; Listing generated by Microsoft (R) Optimizing Compiler Version 19.29.30145.0 

	TITLE	D:\git\src\IBK\IBK_DRFN\#DRfn-CS\_Obj\ChartDesignPropertyAddIn\ColourPopup.obj
	.686P
	.XMM
	include listing.inc
	.model	flat

INCLUDELIB MSVCRT
INCLUDELIB OLDNAMES

PUBLIC	?__empty_global_delete@@YAXPAX@Z		; __empty_global_delete
PUBLIC	?__empty_global_delete@@YAXPAXI@Z		; __empty_global_delete
PUBLIC	??1CObject@@UAE@XZ				; CObject::~CObject
PUBLIC	?Serialize@CObject@@UAEXAAVCArchive@@@Z		; CObject::Serialize
PUBLIC	?AssertValid@CObject@@UBEXXZ			; CObject::AssertValid
PUBLIC	?Dump@CObject@@UBEXAAVCDumpContext@@@Z		; CObject::Dump
PUBLIC	??1CGdiObject@@UAE@XZ				; CGdiObject::~CGdiObject
PUBLIC	??_GCGdiObject@@UAEPAXI@Z			; CGdiObject::`scalar deleting destructor'
PUBLIC	??1CPen@@UAE@XZ					; CPen::~CPen
PUBLIC	??_GCPen@@UAEPAXI@Z				; CPen::`scalar deleting destructor'
PUBLIC	??1CBrush@@UAE@XZ				; CBrush::~CBrush
PUBLIC	??_GCBrush@@UAEPAXI@Z				; CBrush::`scalar deleting destructor'
PUBLIC	??1CFont@@UAE@XZ				; CFont::~CFont
PUBLIC	??_GCFont@@UAEPAXI@Z				; CFont::`scalar deleting destructor'
PUBLIC	??1CPalette@@UAE@XZ				; CPalette::~CPalette
PUBLIC	??_GCPalette@@UAEPAXI@Z				; CPalette::`scalar deleting destructor'
PUBLIC	?DoDataExchange@CWnd@@MAEXPAVCDataExchange@@@Z	; CWnd::DoDataExchange
PUBLIC	?BeginModalState@CWnd@@UAEXXZ			; CWnd::BeginModalState
PUBLIC	?EndModalState@CWnd@@UAEXXZ			; CWnd::EndModalState
PUBLIC	?Create@CDialog@@UAEHIPAVCWnd@@@Z		; CDialog::Create
PUBLIC	??1CCommonDialog@@UAE@XZ			; CCommonDialog::~CCommonDialog
PUBLIC	??_GCCommonDialog@@UAEPAXI@Z			; CCommonDialog::`scalar deleting destructor'
PUBLIC	??1CColorDialog@@UAE@XZ				; CColorDialog::~CColorDialog
PUBLIC	??0CColourPopup@@QAE@XZ				; CColourPopup::CColourPopup
PUBLIC	??0CColourPopup@@QAE@PAUHWND__@@VCPoint@@KPAVCWnd@@PBD3@Z ; CColourPopup::CColourPopup
PUBLIC	?Initialise@CColourPopup@@QAEXXZ		; CColourPopup::Initialise
PUBLIC	?Create@CColourPopup@@QAEHVCPoint@@KPAVCWnd@@PBD2@Z ; CColourPopup::Create
PUBLIC	?PreTranslateMessage@CColourPopup@@UAEHPAUtagMSG@@@Z ; CColourPopup::PreTranslateMessage
PUBLIC	??1CColourPopup@@UAE@XZ				; CColourPopup::~CColourPopup
PUBLIC	?GetCellRect@CColourPopup@@IAEHHABQAUtagRECT@@@Z ; CColourPopup::GetCellRect
PUBLIC	?FindCellFromColour@CColourPopup@@IAEXK@Z	; CColourPopup::FindCellFromColour
PUBLIC	?SetWindowSize@CColourPopup@@IAEXXZ		; CColourPopup::SetWindowSize
PUBLIC	?CreateToolTips@CColourPopup@@IAEXXZ		; CColourPopup::CreateToolTips
PUBLIC	?ChangeSelection@CColourPopup@@IAEXH@Z		; CColourPopup::ChangeSelection
PUBLIC	?EndSelection@CColourPopup@@IAEXH@Z		; CColourPopup::EndSelection
PUBLIC	?DrawCell@CColourPopup@@IAEXPAVCDC@@H@Z		; CColourPopup::DrawCell
PUBLIC	?GetColour@CColourPopup@@IAEKH@Z		; CColourPopup::GetColour
PUBLIC	?GetColourName@CColourPopup@@IAE?AV?$CStringT@DV?$StrTraitMFC_DLL@DV?$ChTraitsCRT@D@ATL@@@@@ATL@@H@Z ; CColourPopup::GetColourName
PUBLIC	?GetIndex@CColourPopup@@IBEHHH@Z		; CColourPopup::GetIndex
PUBLIC	?GetRow@CColourPopup@@IBEHH@Z			; CColourPopup::GetRow
PUBLIC	?GetColumn@CColourPopup@@IBEHH@Z		; CColourPopup::GetColumn
PUBLIC	?OnNcDestroy@CColourPopup@@IAEXXZ		; CColourPopup::OnNcDestroy
PUBLIC	?OnLButtonUp@CColourPopup@@IAEXIVCPoint@@@Z	; CColourPopup::OnLButtonUp
PUBLIC	?OnPaint@CColourPopup@@IAEXXZ			; CColourPopup::OnPaint
PUBLIC	?OnMouseMove@CColourPopup@@IAEXIVCPoint@@@Z	; CColourPopup::OnMouseMove
PUBLIC	?OnKeyDown@CColourPopup@@IAEXIII@Z		; CColourPopup::OnKeyDown
PUBLIC	?OnQueryNewPalette@CColourPopup@@IAEHXZ		; CColourPopup::OnQueryNewPalette
PUBLIC	?OnPaletteChanged@CColourPopup@@IAEXPAVCWnd@@@Z	; CColourPopup::OnPaletteChanged
PUBLIC	?OnKillFocus@CColourPopup@@IAEXPAVCWnd@@@Z	; CColourPopup::OnKillFocus
PUBLIC	?OnActivateApp@CColourPopup@@IAEXHK@Z		; CColourPopup::OnActivateApp
PUBLIC	?GetThisMessageMap@CColourPopup@@KGPBUAFX_MSGMAP@@XZ ; CColourPopup::GetThisMessageMap
PUBLIC	?GetMessageMap@CColourPopup@@MBEPBUAFX_MSGMAP@@XZ ; CColourPopup::GetMessageMap
PUBLIC	??_GCColourPopup@@UAEPAXI@Z			; CColourPopup::`scalar deleting destructor'
PUBLIC	??1CMultiLanguageResourceSetter@@QAE@XZ		; CMultiLanguageResourceSetter::~CMultiLanguageResourceSetter
PUBLIC	??_R0PAVCException@@@8				; CException * `RTTI Type Descriptor'
PUBLIC	??_C@_00CNPNBAHC@@				; `string'
PUBLIC	??_7CGdiObject@@6B@				; CGdiObject::`vftable'
PUBLIC	??_7CPen@@6B@					; CPen::`vftable'
PUBLIC	??_7CBrush@@6B@					; CBrush::`vftable'
PUBLIC	??_7CFont@@6B@					; CFont::`vftable'
PUBLIC	??_7CPalette@@6B@				; CPalette::`vftable'
PUBLIC	??_C@_0HD@JJCHHHNK@C?3?2Program?5Files?5?$CIx86?$CJ?2Microsof@ ; `string'
PUBLIC	??_C@_0BP@OIEOKIDM@Exception?5thrown?5in?5destructor@ ; `string'
PUBLIC	??_C@_0BB@HBOOMJBF@?$CFTs?5?$CI?$CFTs?3?$CFd?$CJ?6?$CFTs@ ; `string'
PUBLIC	??_C@_0N@OMEMOKLE@?$CFTs?5?$CI?$CFTs?3?$CFd?$CJ@ ; `string'
PUBLIC	??_7CCommonDialog@@6B@				; CCommonDialog::`vftable'
PUBLIC	??_R0?AVCObject@@@8				; CObject `RTTI Type Descriptor'
PUBLIC	??_R3CObject@@8					; CObject::`RTTI Class Hierarchy Descriptor'
PUBLIC	??_R2CObject@@8					; CObject::`RTTI Base Class Array'
PUBLIC	??_R1A@?0A@EA@CObject@@8			; CObject::`RTTI Base Class Descriptor at (0,-1,0,64)'
PUBLIC	??_R4CGdiObject@@6B@				; CGdiObject::`RTTI Complete Object Locator'
PUBLIC	??_R0?AVCGdiObject@@@8				; CGdiObject `RTTI Type Descriptor'
PUBLIC	??_R3CGdiObject@@8				; CGdiObject::`RTTI Class Hierarchy Descriptor'
PUBLIC	??_R2CGdiObject@@8				; CGdiObject::`RTTI Base Class Array'
PUBLIC	??_R1A@?0A@EA@CGdiObject@@8			; CGdiObject::`RTTI Base Class Descriptor at (0,-1,0,64)'
PUBLIC	??_R4CPen@@6B@					; CPen::`RTTI Complete Object Locator'
PUBLIC	??_R0?AVCPen@@@8				; CPen `RTTI Type Descriptor'
PUBLIC	??_R3CPen@@8					; CPen::`RTTI Class Hierarchy Descriptor'
PUBLIC	??_R2CPen@@8					; CPen::`RTTI Base Class Array'
PUBLIC	??_R1A@?0A@EA@CPen@@8				; CPen::`RTTI Base Class Descriptor at (0,-1,0,64)'
PUBLIC	??_R4CBrush@@6B@				; CBrush::`RTTI Complete Object Locator'
PUBLIC	??_R0?AVCBrush@@@8				; CBrush `RTTI Type Descriptor'
PUBLIC	??_R3CBrush@@8					; CBrush::`RTTI Class Hierarchy Descriptor'
PUBLIC	??_R2CBrush@@8					; CBrush::`RTTI Base Class Array'
PUBLIC	??_R1A@?0A@EA@CBrush@@8				; CBrush::`RTTI Base Class Descriptor at (0,-1,0,64)'
PUBLIC	??_R4CFont@@6B@					; CFont::`RTTI Complete Object Locator'
PUBLIC	??_R0?AVCFont@@@8				; CFont `RTTI Type Descriptor'
PUBLIC	??_R3CFont@@8					; CFont::`RTTI Class Hierarchy Descriptor'
PUBLIC	??_R2CFont@@8					; CFont::`RTTI Base Class Array'
PUBLIC	??_R1A@?0A@EA@CFont@@8				; CFont::`RTTI Base Class Descriptor at (0,-1,0,64)'
PUBLIC	??_R4CPalette@@6B@				; CPalette::`RTTI Complete Object Locator'
PUBLIC	??_R0?AVCPalette@@@8				; CPalette `RTTI Type Descriptor'
PUBLIC	??_R3CPalette@@8				; CPalette::`RTTI Class Hierarchy Descriptor'
PUBLIC	??_R2CPalette@@8				; CPalette::`RTTI Base Class Array'
PUBLIC	??_R1A@?0A@EA@CPalette@@8			; CPalette::`RTTI Base Class Descriptor at (0,-1,0,64)'
PUBLIC	??_R1A@?0A@EA@CWnd@@8				; CWnd::`RTTI Base Class Descriptor at (0,-1,0,64)'
PUBLIC	??_R0?AVCWnd@@@8				; CWnd `RTTI Type Descriptor'
PUBLIC	??_R3CWnd@@8					; CWnd::`RTTI Class Hierarchy Descriptor'
PUBLIC	??_R2CWnd@@8					; CWnd::`RTTI Base Class Array'
PUBLIC	??_R1A@?0A@EA@CCmdTarget@@8			; CCmdTarget::`RTTI Base Class Descriptor at (0,-1,0,64)'
PUBLIC	??_R0?AVCCmdTarget@@@8				; CCmdTarget `RTTI Type Descriptor'
PUBLIC	??_R3CCmdTarget@@8				; CCmdTarget::`RTTI Class Hierarchy Descriptor'
PUBLIC	??_R2CCmdTarget@@8				; CCmdTarget::`RTTI Base Class Array'
PUBLIC	??_R4CCommonDialog@@6B@				; CCommonDialog::`RTTI Complete Object Locator'
PUBLIC	??_R0?AVCCommonDialog@@@8			; CCommonDialog `RTTI Type Descriptor'
PUBLIC	??_R3CCommonDialog@@8				; CCommonDialog::`RTTI Class Hierarchy Descriptor'
PUBLIC	??_R2CCommonDialog@@8				; CCommonDialog::`RTTI Base Class Array'
PUBLIC	??_R1A@?0A@EA@CCommonDialog@@8			; CCommonDialog::`RTTI Base Class Descriptor at (0,-1,0,64)'
PUBLIC	??_R1A@?0A@EA@CDialog@@8			; CDialog::`RTTI Base Class Descriptor at (0,-1,0,64)'
PUBLIC	??_R0?AVCDialog@@@8				; CDialog `RTTI Type Descriptor'
PUBLIC	??_R3CDialog@@8					; CDialog::`RTTI Class Hierarchy Descriptor'
PUBLIC	??_R2CDialog@@8					; CDialog::`RTTI Base Class Array'
PUBLIC	??_7CColourPopup@@6B@				; CColourPopup::`vftable'
PUBLIC	??_C@_0BA@ENJOCHIO@LoadResourceDLL@		; `string'
PUBLIC	??_R4CColourPopup@@6B@				; CColourPopup::`RTTI Complete Object Locator'
PUBLIC	??_R0?AVCColourPopup@@@8			; CColourPopup `RTTI Type Descriptor'
PUBLIC	??_R3CColourPopup@@8				; CColourPopup::`RTTI Class Hierarchy Descriptor'
PUBLIC	??_R2CColourPopup@@8				; CColourPopup::`RTTI Base Class Array'
PUBLIC	??_R1A@?0A@EA@CColourPopup@@8			; CColourPopup::`RTTI Base Class Descriptor at (0,-1,0,64)'
EXTRN	??3@YAXPAX@Z:PROC				; operator delete
EXTRN	?__global_delete@@YAXPAXI@Z:PROC		; __global_delete
EXTRN	___std_terminate:PROC
EXTRN	__imp__GetProcAddress@8:PROC
EXTRN	__imp__CreateFontIndirectA@4:PROC
EXTRN	__imp__CreatePalette@4:PROC
EXTRN	__imp__CreatePen@12:PROC
EXTRN	__imp__GetDeviceCaps@8:PROC
EXTRN	__imp__GetTextExtentPoint32A@16:PROC
EXTRN	__imp__Rectangle@20:PROC
EXTRN	__imp__RealizePalette@4:PROC
EXTRN	__imp__DrawEdge@16:PROC
EXTRN	__imp__GetMessagePos@0:PROC
EXTRN	__imp__SendMessageA@16:PROC
EXTRN	__imp__SetCapture@4:PROC
EXTRN	__imp__ReleaseCapture@0:PROC
EXTRN	__imp__EnableWindow@8:PROC
EXTRN	__imp__GetSystemMetrics@4:PROC
EXTRN	__imp__InvalidateRect@12:PROC
EXTRN	__imp__GetClientRect@8:PROC
EXTRN	__imp__GetWindowRect@8:PROC
EXTRN	__imp__GetSysColor@4:PROC
EXTRN	__imp__SetRect@20:PROC
EXTRN	__imp__InflateRect@12:PROC
EXTRN	__imp__OffsetRect@12:PROC
EXTRN	__imp__PtInRect@12:PROC
EXTRN	__imp__SystemParametersInfoA@16:PROC
EXTRN	__imp_??0?$CStringT@DV?$StrTraitMFC_DLL@DV?$ChTraitsCRT@D@ATL@@@@@ATL@@QAE@XZ:PROC
EXTRN	__imp_??0?$CStringT@DV?$StrTraitMFC_DLL@DV?$ChTraitsCRT@D@ATL@@@@@ATL@@QAE@PBD@Z:PROC
EXTRN	__imp_??1?$CStringT@DV?$StrTraitMFC_DLL@DV?$ChTraitsCRT@D@ATL@@@@@ATL@@QAE@XZ:PROC
EXTRN	__imp_??4?$CStringT@DV?$StrTraitMFC_DLL@DV?$ChTraitsCRT@D@ATL@@@@@ATL@@QAEAAV01@PBD@Z:PROC
EXTRN	__imp_?Format@?$CStringT@DV?$StrTraitMFC_DLL@DV?$ChTraitsCRT@D@ATL@@@@@ATL@@QAAXPBDZZ:PROC
EXTRN	?AfxGetModuleState@@YGPAVAFX_MODULE_STATE@@XZ:PROC ; AfxGetModuleState
EXTRN	?AfxGetStaticModuleState@@YGPAVAFX_MODULE_STATE@@XZ:PROC ; AfxGetStaticModuleState
EXTRN	?GetRuntimeClass@CGdiObject@@UBEPAUCRuntimeClass@@XZ:PROC ; CGdiObject::GetRuntimeClass
EXTRN	?Attach@CGdiObject@@QAEHPAX@Z:PROC		; CGdiObject::Attach
EXTRN	?DeleteObject@CGdiObject@@QAEHXZ:PROC		; CGdiObject::DeleteObject
EXTRN	??_ECGdiObject@@UAEPAXI@Z:PROC			; CGdiObject::`vector deleting destructor'
EXTRN	?GetRuntimeClass@CPen@@UBEPAUCRuntimeClass@@XZ:PROC ; CPen::GetRuntimeClass
EXTRN	??0CPen@@QAE@HHK@Z:PROC				; CPen::CPen
EXTRN	??_ECPen@@UAEPAXI@Z:PROC			; CPen::`vector deleting destructor'
EXTRN	?GetRuntimeClass@CBrush@@UBEPAUCRuntimeClass@@XZ:PROC ; CBrush::GetRuntimeClass
EXTRN	??0CBrush@@QAE@K@Z:PROC				; CBrush::CBrush
EXTRN	??_ECBrush@@UAEPAXI@Z:PROC			; CBrush::`vector deleting destructor'
EXTRN	?GetRuntimeClass@CFont@@UBEPAUCRuntimeClass@@XZ:PROC ; CFont::GetRuntimeClass
EXTRN	??_ECFont@@UAEPAXI@Z:PROC			; CFont::`vector deleting destructor'
EXTRN	?GetRuntimeClass@CPalette@@UBEPAUCRuntimeClass@@XZ:PROC ; CPalette::GetRuntimeClass
EXTRN	??_ECPalette@@UAEPAXI@Z:PROC			; CPalette::`vector deleting destructor'
EXTRN	?SelectObject@CDC@@QAEPAVCPen@@PAV2@@Z:PROC	; CDC::SelectObject
EXTRN	?SelectObject@CDC@@QAEPAVCBrush@@PAV2@@Z:PROC	; CDC::SelectObject
EXTRN	?SelectObject@CDC@@UAEPAVCFont@@PAV2@@Z:PROC	; CDC::SelectObject
EXTRN	?SelectPalette@CDC@@QAEPAVCPalette@@PAV2@H@Z:PROC ; CDC::SelectPalette
EXTRN	?SetBkMode@CDC@@QAEHH@Z:PROC			; CDC::SetBkMode
EXTRN	?FillSolidRect@CDC@@QAEXPBUtagRECT@@K@Z:PROC	; CDC::FillSolidRect
EXTRN	?FillSolidRect@CDC@@QAEXHHHHK@Z:PROC		; CDC::FillSolidRect
EXTRN	??0CPaintDC@@QAE@PAVCWnd@@@Z:PROC		; CPaintDC::CPaintDC
EXTRN	??1CPaintDC@@UAE@XZ:PROC			; CPaintDC::~CPaintDC
EXTRN	??0CClientDC@@QAE@PAVCWnd@@@Z:PROC		; CClientDC::CClientDC
EXTRN	??1CClientDC@@UAE@XZ:PROC			; CClientDC::~CClientDC
EXTRN	?OnCmdMsg@CCmdTarget@@UAEHIHPAXPAUAFX_CMDHANDLERINFO@@@Z:PROC ; CCmdTarget::OnCmdMsg
EXTRN	?IsInvokeAllowed@CCmdTarget@@UAEHJ@Z:PROC	; CCmdTarget::IsInvokeAllowed
EXTRN	?GetDispatchIID@CCmdTarget@@UAEHPAU_GUID@@@Z:PROC ; CCmdTarget::GetDispatchIID
EXTRN	?GetTypeInfoCount@CCmdTarget@@UAEIXZ:PROC	; CCmdTarget::GetTypeInfoCount
EXTRN	?GetTypeLibCache@CCmdTarget@@UAEPAVCTypeLibCache@@XZ:PROC ; CCmdTarget::GetTypeLibCache
EXTRN	?GetTypeLib@CCmdTarget@@UAEJKPAPAUITypeLib@@@Z:PROC ; CCmdTarget::GetTypeLib
EXTRN	?GetCommandMap@CCmdTarget@@MBEPBUAFX_OLECMDMAP@@XZ:PROC ; CCmdTarget::GetCommandMap
EXTRN	?GetDispatchMap@CCmdTarget@@MBEPBUAFX_DISPMAP@@XZ:PROC ; CCmdTarget::GetDispatchMap
EXTRN	?GetConnectionMap@CCmdTarget@@MBEPBUAFX_CONNECTIONMAP@@XZ:PROC ; CCmdTarget::GetConnectionMap
EXTRN	?GetEventSinkMap@CCmdTarget@@MBEPBUAFX_EVENTSINKMAP@@XZ:PROC ; CCmdTarget::GetEventSinkMap
EXTRN	?OnCreateAggregates@CCmdTarget@@UAEHXZ:PROC	; CCmdTarget::OnCreateAggregates
EXTRN	?GetInterfaceHook@CCmdTarget@@UAEPAUIUnknown@@PBX@Z:PROC ; CCmdTarget::GetInterfaceHook
EXTRN	?GetExtraConnectionPoints@CCmdTarget@@MAEHPAVCPtrArray@@@Z:PROC ; CCmdTarget::GetExtraConnectionPoints
EXTRN	?GetConnectionHook@CCmdTarget@@MAEPAUIConnectionPoint@@ABU_GUID@@@Z:PROC ; CCmdTarget::GetConnectionHook
EXTRN	?GetRuntimeClass@CWnd@@UBEPAUCRuntimeClass@@XZ:PROC ; CWnd::GetRuntimeClass
EXTRN	??0CWnd@@QAE@XZ:PROC				; CWnd::CWnd
EXTRN	?FromHandle@CWnd@@SGPAV1@PAUHWND__@@@Z:PROC	; CWnd::FromHandle
EXTRN	?PreSubclassWindow@CWnd@@UAEXXZ:PROC		; CWnd::PreSubclassWindow
EXTRN	?Create@CWnd@@UAEHPBD0KABUtagRECT@@PAV1@IPAUCCreateContext@@@Z:PROC ; CWnd::Create
EXTRN	?CreateEx@CWnd@@UAEHKPBD0KHHHHPAUHWND__@@PAUHMENU__@@PAX@Z:PROC ; CWnd::CreateEx
EXTRN	?CreateEx@CWnd@@UAEHKPBD0KABUtagRECT@@PAV1@IPAX@Z:PROC ; CWnd::CreateEx
EXTRN	?DestroyWindow@CWnd@@UAEHXZ:PROC		; CWnd::DestroyWindow
EXTRN	?PreCreateWindow@CWnd@@UAEHAAUtagCREATESTRUCTA@@@Z:PROC ; CWnd::PreCreateWindow
EXTRN	?CalcWindowRect@CWnd@@UAEXPAUtagRECT@@I@Z:PROC	; CWnd::CalcWindowRect
EXTRN	?GetMenu@CWnd@@UBEPAVCMenu@@XZ:PROC		; CWnd::GetMenu
EXTRN	?SetMenu@CWnd@@UAEHPAVCMenu@@@Z:PROC		; CWnd::SetMenu
EXTRN	?MoveWindow@CWnd@@QAEXHHHHH@Z:PROC		; CWnd::MoveWindow
EXTRN	?OnToolHitTest@CWnd@@UBEHVCPoint@@PAUtagTOOLINFOA@@@Z:PROC ; CWnd::OnToolHitTest
EXTRN	?GetScrollBarCtrl@CWnd@@UBEPAVCScrollBar@@H@Z:PROC ; CWnd::GetScrollBarCtrl
EXTRN	?WinHelpA@CWnd@@UAEXKI@Z:PROC			; CWnd::WinHelpA
EXTRN	?HtmlHelpA@CWnd@@UAEXKI@Z:PROC			; CWnd::HtmlHelpA
EXTRN	?WinHelpInternal@CWnd@@UAEXKI@Z:PROC		; CWnd::WinHelpInternal
EXTRN	?ContinueModal@CWnd@@UAEHXZ:PROC		; CWnd::ContinueModal
EXTRN	?EndModalLoop@CWnd@@UAEXH@Z:PROC		; CWnd::EndModalLoop
EXTRN	?OnDrawIconicThumbnailOrLivePreview@CWnd@@UAEXAAVCDC@@VCRect@@VCSize@@HAAH@Z:PROC ; CWnd::OnDrawIconicThumbnailOrLivePreview
EXTRN	?GetInterfaceMap@CWnd@@MBEPBUAFX_INTERFACEMAP@@XZ:PROC ; CWnd::GetInterfaceMap
EXTRN	?EnsureStdObj@CWnd@@UAEJXZ:PROC			; CWnd::EnsureStdObj
EXTRN	?get_accParent@CWnd@@UAEJPAPAUIDispatch@@@Z:PROC ; CWnd::get_accParent
EXTRN	?get_accChildCount@CWnd@@UAEJPAJ@Z:PROC		; CWnd::get_accChildCount
EXTRN	?get_accChild@CWnd@@UAEJUtagVARIANT@@PAPAUIDispatch@@@Z:PROC ; CWnd::get_accChild
EXTRN	?get_accName@CWnd@@UAEJUtagVARIANT@@PAPA_W@Z:PROC ; CWnd::get_accName
EXTRN	?get_accValue@CWnd@@UAEJUtagVARIANT@@PAPA_W@Z:PROC ; CWnd::get_accValue
EXTRN	?get_accDescription@CWnd@@UAEJUtagVARIANT@@PAPA_W@Z:PROC ; CWnd::get_accDescription
EXTRN	?get_accRole@CWnd@@UAEJUtagVARIANT@@PAU2@@Z:PROC ; CWnd::get_accRole
EXTRN	?get_accState@CWnd@@UAEJUtagVARIANT@@PAU2@@Z:PROC ; CWnd::get_accState
EXTRN	?get_accHelp@CWnd@@UAEJUtagVARIANT@@PAPA_W@Z:PROC ; CWnd::get_accHelp
EXTRN	?get_accHelpTopic@CWnd@@UAEJPAPA_WUtagVARIANT@@PAJ@Z:PROC ; CWnd::get_accHelpTopic
EXTRN	?get_accKeyboardShortcut@CWnd@@UAEJUtagVARIANT@@PAPA_W@Z:PROC ; CWnd::get_accKeyboardShortcut
EXTRN	?get_accFocus@CWnd@@UAEJPAUtagVARIANT@@@Z:PROC	; CWnd::get_accFocus
EXTRN	?get_accSelection@CWnd@@UAEJPAUtagVARIANT@@@Z:PROC ; CWnd::get_accSelection
EXTRN	?get_accDefaultAction@CWnd@@UAEJUtagVARIANT@@PAPA_W@Z:PROC ; CWnd::get_accDefaultAction
EXTRN	?accSelect@CWnd@@UAEJJUtagVARIANT@@@Z:PROC	; CWnd::accSelect
EXTRN	?accLocation@CWnd@@UAEJPAJ000UtagVARIANT@@@Z:PROC ; CWnd::accLocation
EXTRN	?accNavigate@CWnd@@UAEJJUtagVARIANT@@PAU2@@Z:PROC ; CWnd::accNavigate
EXTRN	?accHitTest@CWnd@@UAEJJJPAUtagVARIANT@@@Z:PROC	; CWnd::accHitTest
EXTRN	?accDoDefaultAction@CWnd@@UAEJUtagVARIANT@@@Z:PROC ; CWnd::accDoDefaultAction
EXTRN	?put_accName@CWnd@@UAEJUtagVARIANT@@PA_W@Z:PROC	; CWnd::put_accName
EXTRN	?put_accValue@CWnd@@UAEJUtagVARIANT@@PA_W@Z:PROC ; CWnd::put_accValue
EXTRN	?SetProxy@CWnd@@UAEJPAUIAccessibleProxy@@@Z:PROC ; CWnd::SetProxy
EXTRN	?CreateAccessibleProxy@CWnd@@UAEJIJPAJ@Z:PROC	; CWnd::CreateAccessibleProxy
EXTRN	?OnCommand@CWnd@@MAEHIJ@Z:PROC			; CWnd::OnCommand
EXTRN	?OnNotify@CWnd@@MAEHIJPAJ@Z:PROC		; CWnd::OnNotify
EXTRN	?OnNcDestroy@CWnd@@IAEXXZ:PROC			; CWnd::OnNcDestroy
EXTRN	?GetSuperWndProcAddr@CWnd@@MAEPAP6GJPAUHWND__@@IIJ@ZXZ:PROC ; CWnd::GetSuperWndProcAddr
EXTRN	?PreTranslateMessage@CWnd@@UAEHPAUtagMSG@@@Z:PROC ; CWnd::PreTranslateMessage
EXTRN	?OnAmbientProperty@CWnd@@UAEHPAVCOleControlSite@@JPAUtagVARIANT@@@Z:PROC ; CWnd::OnAmbientProperty
EXTRN	?WindowProc@CWnd@@MAEJIIJ@Z:PROC		; CWnd::WindowProc
EXTRN	?OnWndMsg@CWnd@@MAEHIIJPAJ@Z:PROC		; CWnd::OnWndMsg
EXTRN	?Default@CWnd@@IAEJXZ:PROC			; CWnd::Default
EXTRN	?DefWindowProcA@CWnd@@MAEJIIJ@Z:PROC		; CWnd::DefWindowProcA
EXTRN	?PostNcDestroy@CWnd@@MAEXXZ:PROC		; CWnd::PostNcDestroy
EXTRN	?OnChildNotify@CWnd@@MAEHIIJPAJ@Z:PROC		; CWnd::OnChildNotify
EXTRN	?OnTouchInputs@CWnd@@MAEHIPAUtagTOUCHINPUT@@@Z:PROC ; CWnd::OnTouchInputs
EXTRN	?OnTouchInput@CWnd@@MAEHVCPoint@@HHPAUtagTOUCHINPUT@@@Z:PROC ; CWnd::OnTouchInput
EXTRN	?GetGestureStatus@CWnd@@MAEKVCPoint@@@Z:PROC	; CWnd::GetGestureStatus
EXTRN	?OnGestureZoom@CWnd@@MAEHVCPoint@@J@Z:PROC	; CWnd::OnGestureZoom
EXTRN	?OnGesturePan@CWnd@@MAEHVCPoint@@0@Z:PROC	; CWnd::OnGesturePan
EXTRN	?OnGestureRotate@CWnd@@MAEHVCPoint@@N@Z:PROC	; CWnd::OnGestureRotate
EXTRN	?OnGestureTwoFingerTap@CWnd@@MAEHVCPoint@@@Z:PROC ; CWnd::OnGestureTwoFingerTap
EXTRN	?OnGesturePressAndTap@CWnd@@MAEHVCPoint@@J@Z:PROC ; CWnd::OnGesturePressAndTap
EXTRN	?ResizeDynamicLayout@CWnd@@MAEXXZ:PROC		; CWnd::ResizeDynamicLayout
EXTRN	??1CWnd@@UAE@XZ:PROC				; CWnd::~CWnd
EXTRN	?CheckAutoCenter@CWnd@@UAEHXZ:PROC		; CWnd::CheckAutoCenter
EXTRN	?IsFrameWnd@CWnd@@UBEHXZ:PROC			; CWnd::IsFrameWnd
EXTRN	?OnFinalRelease@CWnd@@UAEXXZ:PROC		; CWnd::OnFinalRelease
EXTRN	?CreateControlContainer@CWnd@@MAEHPAPAVCOleControlContainer@@@Z:PROC ; CWnd::CreateControlContainer
EXTRN	?CreateControlSite@CWnd@@MAEHPAVCOleControlContainer@@PAPAVCOleControlSite@@IABU_GUID@@@Z:PROC ; CWnd::CreateControlSite
EXTRN	?SetOccDialogInfo@CWnd@@MAEHPAU_AFX_OCC_DIALOG_INFO@@@Z:PROC ; CWnd::SetOccDialogInfo
EXTRN	?GetOccDialogInfo@CWnd@@MAEPAU_AFX_OCC_DIALOG_INFO@@XZ:PROC ; CWnd::GetOccDialogInfo
EXTRN	?GetThisMessageMap@CWnd@@KGPBUAFX_MSGMAP@@XZ:PROC ; CWnd::GetThisMessageMap
EXTRN	?AfxRegisterWndClass@@YGPBDIPAUHICON__@@PAUHBRUSH__@@0@Z:PROC ; AfxRegisterWndClass
EXTRN	?Create@CDialog@@UAEHPBDPAVCWnd@@@Z:PROC	; CDialog::Create
EXTRN	?CreateIndirect@CDialog@@UAEHPBUDLGTEMPLATE@@PAVCWnd@@PAX@Z:PROC ; CDialog::CreateIndirect
EXTRN	?CreateIndirect@CDialog@@UAEHPAXPAVCWnd@@@Z:PROC ; CDialog::CreateIndirect
EXTRN	?DoModal@CDialog@@UAEHXZ:PROC			; CDialog::DoModal
EXTRN	?OnInitDialog@CDialog@@UAEHXZ:PROC		; CDialog::OnInitDialog
EXTRN	?OnSetFont@CDialog@@UAEXPAVCFont@@@Z:PROC	; CDialog::OnSetFont
EXTRN	??1CDialog@@UAE@XZ:PROC				; CDialog::~CDialog
EXTRN	?PreTranslateMessage@CDialog@@UAEHPAUtagMSG@@@Z:PROC ; CDialog::PreTranslateMessage
EXTRN	?OnCmdMsg@CDialog@@UAEHIHPAXPAUAFX_CMDHANDLERINFO@@@Z:PROC ; CDialog::OnCmdMsg
EXTRN	?CheckAutoCenter@CDialog@@UAEHXZ:PROC		; CDialog::CheckAutoCenter
EXTRN	?SetOccDialogInfo@CDialog@@MAEHPAU_AFX_OCC_DIALOG_INFO@@@Z:PROC ; CDialog::SetOccDialogInfo
EXTRN	?GetOccDialogInfo@CDialog@@MAEPAU_AFX_OCC_DIALOG_INFO@@XZ:PROC ; CDialog::GetOccDialogInfo
EXTRN	?PreInitDialog@CDialog@@MAEXXZ:PROC		; CDialog::PreInitDialog
EXTRN	?AfxMessageBox@@YGHPBDII@Z:PROC			; AfxMessageBox
EXTRN	?GetRuntimeClass@CCommonDialog@@UBEPAUCRuntimeClass@@XZ:PROC ; CCommonDialog::GetRuntimeClass
EXTRN	?OnOK@CCommonDialog@@MAEXXZ:PROC		; CCommonDialog::OnOK
EXTRN	?OnCancel@CCommonDialog@@MAEXXZ:PROC		; CCommonDialog::OnCancel
EXTRN	?GetMessageMap@CCommonDialog@@MBEPBUAFX_MSGMAP@@XZ:PROC ; CCommonDialog::GetMessageMap
EXTRN	??_ECCommonDialog@@UAEPAXI@Z:PROC		; CCommonDialog::`vector deleting destructor'
EXTRN	??0CColorDialog@@QAE@KKPAVCWnd@@@Z:PROC		; CColorDialog::CColorDialog
EXTRN	?DoModal@CColorDialog@@UAEHXZ:PROC		; CColorDialog::DoModal
EXTRN	??0CToolTipCtrl@@QAE@XZ:PROC			; CToolTipCtrl::CToolTipCtrl
EXTRN	?AddTool@CToolTipCtrl@@QAEHPAVCWnd@@PBDPBUtagRECT@@I@Z:PROC ; CToolTipCtrl::AddTool
EXTRN	??1CToolTipCtrl@@UAE@XZ:PROC			; CToolTipCtrl::~CToolTipCtrl
EXTRN	??0CColorTableMgr@@QAE@XZ:PROC			; CColorTableMgr::CColorTableMgr
EXTRN	??1CColorTableMgr@@QAE@XZ:PROC			; CColorTableMgr::~CColorTableMgr
EXTRN	?GetColor@CColorTableMgr@@SAKH@Z:PROC		; CColorTableMgr::GetColor
EXTRN	?GetColorText@CColorTableMgr@@SA?AV?$CStringT@DV?$StrTraitMFC_DLL@DV?$ChTraitsCRT@D@ATL@@@@@ATL@@H@Z:PROC ; CColorTableMgr::GetColorText
EXTRN	??_ECColourPopup@@UAEPAXI@Z:PROC		; CColourPopup::`vector deleting destructor'
EXTRN	@__security_check_cookie@4:PROC
EXTRN	___CxxFrameHandler3:PROC
EXTRN	??_7type_info@@6B@:QWORD			; type_info::`vftable'
EXTRN	?g_iMetaTable@@3VIMetaTable@@A:BYTE		; g_iMetaTable
EXTRN	___security_cookie:DWORD
;	COMDAT ??_R1A@?0A@EA@CColourPopup@@8
rdata$r	SEGMENT
??_R1A@?0A@EA@CColourPopup@@8 DD FLAT:??_R0?AVCColourPopup@@@8 ; CColourPopup::`RTTI Base Class Descriptor at (0,-1,0,64)'
	DD	03H
	DD	00H
	DD	0ffffffffH
	DD	00H
	DD	040H
	DD	FLAT:??_R3CColourPopup@@8
rdata$r	ENDS
;	COMDAT ??_R2CColourPopup@@8
rdata$r	SEGMENT
??_R2CColourPopup@@8 DD FLAT:??_R1A@?0A@EA@CColourPopup@@8 ; CColourPopup::`RTTI Base Class Array'
	DD	FLAT:??_R1A@?0A@EA@CWnd@@8
	DD	FLAT:??_R1A@?0A@EA@CCmdTarget@@8
	DD	FLAT:??_R1A@?0A@EA@CObject@@8
rdata$r	ENDS
;	COMDAT ??_R3CColourPopup@@8
rdata$r	SEGMENT
??_R3CColourPopup@@8 DD 00H				; CColourPopup::`RTTI Class Hierarchy Descriptor'
	DD	00H
	DD	04H
	DD	FLAT:??_R2CColourPopup@@8
rdata$r	ENDS
;	COMDAT ??_R0?AVCColourPopup@@@8
data$rs	SEGMENT
??_R0?AVCColourPopup@@@8 DD FLAT:??_7type_info@@6B@	; CColourPopup `RTTI Type Descriptor'
	DD	00H
	DB	'.?AVCColourPopup@@', 00H
data$rs	ENDS
;	COMDAT ??_R4CColourPopup@@6B@
rdata$r	SEGMENT
??_R4CColourPopup@@6B@ DD 00H				; CColourPopup::`RTTI Complete Object Locator'
	DD	00H
	DD	00H
	DD	FLAT:??_R0?AVCColourPopup@@@8
	DD	FLAT:??_R3CColourPopup@@8
rdata$r	ENDS
;	COMDAT ?messageMap@?1??GetThisMessageMap@CColourPopup@@KGPBUAFX_MSGMAP@@XZ@4U3@B
CONST	SEGMENT
?messageMap@?1??GetThisMessageMap@CColourPopup@@KGPBUAFX_MSGMAP@@XZ@4U3@B DD FLAT:?GetThisMessageMap@CWnd@@KGPBUAFX_MSGMAP@@XZ ; `CColourPopup::GetThisMessageMap'::`2'::messageMap
	DD	FLAT:?_messageEntries@?1??GetThisMessageMap@CColourPopup@@KGPBUAFX_MSGMAP@@XZ@4QBUAFX_MSGMAP_ENTRY@@B
CONST	ENDS
;	COMDAT ?_messageEntries@?1??GetThisMessageMap@CColourPopup@@KGPBUAFX_MSGMAP@@XZ@4QBUAFX_MSGMAP_ENTRY@@B
CONST	SEGMENT
?_messageEntries@?1??GetThisMessageMap@CColourPopup@@KGPBUAFX_MSGMAP@@XZ@4QBUAFX_MSGMAP_ENTRY@@B DD 082H ; `CColourPopup::GetThisMessageMap'::`2'::_messageEntries
	DD	00H
	DD	00H
	DD	00H
	DD	013H
	DD	FLAT:?OnNcDestroy@CColourPopup@@IAEXXZ
	DD	0202H
	DD	00H
	DD	00H
	DD	00H
	DD	036H
	DD	FLAT:?OnLButtonUp@CColourPopup@@IAEXIVCPoint@@@Z
	DD	0fH
	DD	00H
	DD	00H
	DD	00H
	DD	013H
	DD	FLAT:?OnPaint@CColourPopup@@IAEXXZ
	DD	0200H
	DD	00H
	DD	00H
	DD	00H
	DD	036H
	DD	FLAT:?OnMouseMove@CColourPopup@@IAEXIVCPoint@@@Z
	DD	0100H
	DD	00H
	DD	00H
	DD	00H
	DD	019H
	DD	FLAT:?OnKeyDown@CColourPopup@@IAEXIII@Z
	DD	030fH
	DD	00H
	DD	00H
	DD	00H
	DD	01eH
	DD	FLAT:?OnQueryNewPalette@CColourPopup@@IAEHXZ
	DD	0311H
	DD	00H
	DD	00H
	DD	00H
	DD	024H
	DD	FLAT:?OnPaletteChanged@CColourPopup@@IAEXPAVCWnd@@@Z
	DD	08H
	DD	00H
	DD	00H
	DD	00H
	DD	024H
	DD	FLAT:?OnKillFocus@CColourPopup@@IAEXPAVCWnd@@@Z
	DD	01cH
	DD	00H
	DD	00H
	DD	00H
	DD	016H
	DD	FLAT:?OnActivateApp@CColourPopup@@IAEXHK@Z
	DD	00H
	DD	00H
	DD	00H
	DD	00H
	DD	00H
	DD	00H
CONST	ENDS
;	COMDAT ??_C@_0BA@ENJOCHIO@LoadResourceDLL@
CONST	SEGMENT
??_C@_0BA@ENJOCHIO@LoadResourceDLL@ DB 'LoadResourceDLL', 00H ; `string'
CONST	ENDS
;	COMDAT ??_7CColourPopup@@6B@
CONST	SEGMENT
??_7CColourPopup@@6B@ DD FLAT:??_R4CColourPopup@@6B@	; CColourPopup::`vftable'
	DD	FLAT:?GetRuntimeClass@CWnd@@UBEPAUCRuntimeClass@@XZ
	DD	FLAT:??_ECColourPopup@@UAEPAXI@Z
	DD	FLAT:?Serialize@CObject@@UAEXAAVCArchive@@@Z
	DD	FLAT:?AssertValid@CObject@@UBEXXZ
	DD	FLAT:?Dump@CObject@@UBEXAAVCDumpContext@@@Z
	DD	FLAT:?OnCmdMsg@CCmdTarget@@UAEHIHPAXPAUAFX_CMDHANDLERINFO@@@Z
	DD	FLAT:?OnFinalRelease@CWnd@@UAEXXZ
	DD	FLAT:?IsInvokeAllowed@CCmdTarget@@UAEHJ@Z
	DD	FLAT:?GetDispatchIID@CCmdTarget@@UAEHPAU_GUID@@@Z
	DD	FLAT:?GetTypeInfoCount@CCmdTarget@@UAEIXZ
	DD	FLAT:?GetTypeLibCache@CCmdTarget@@UAEPAVCTypeLibCache@@XZ
	DD	FLAT:?GetTypeLib@CCmdTarget@@UAEJKPAPAUITypeLib@@@Z
	DD	FLAT:?GetMessageMap@CColourPopup@@MBEPBUAFX_MSGMAP@@XZ
	DD	FLAT:?GetCommandMap@CCmdTarget@@MBEPBUAFX_OLECMDMAP@@XZ
	DD	FLAT:?GetDispatchMap@CCmdTarget@@MBEPBUAFX_DISPMAP@@XZ
	DD	FLAT:?GetConnectionMap@CCmdTarget@@MBEPBUAFX_CONNECTIONMAP@@XZ
	DD	FLAT:?GetInterfaceMap@CWnd@@MBEPBUAFX_INTERFACEMAP@@XZ
	DD	FLAT:?GetEventSinkMap@CCmdTarget@@MBEPBUAFX_EVENTSINKMAP@@XZ
	DD	FLAT:?OnCreateAggregates@CCmdTarget@@UAEHXZ
	DD	FLAT:?GetInterfaceHook@CCmdTarget@@UAEPAUIUnknown@@PBX@Z
	DD	FLAT:?GetExtraConnectionPoints@CCmdTarget@@MAEHPAVCPtrArray@@@Z
	DD	FLAT:?GetConnectionHook@CCmdTarget@@MAEPAUIConnectionPoint@@ABU_GUID@@@Z
	DD	FLAT:?PreSubclassWindow@CWnd@@UAEXXZ
	DD	FLAT:?Create@CWnd@@UAEHPBD0KABUtagRECT@@PAV1@IPAUCCreateContext@@@Z
	DD	FLAT:?CreateEx@CWnd@@UAEHKPBD0KABUtagRECT@@PAV1@IPAX@Z
	DD	FLAT:?CreateEx@CWnd@@UAEHKPBD0KHHHHPAUHWND__@@PAUHMENU__@@PAX@Z
	DD	FLAT:?DestroyWindow@CWnd@@UAEHXZ
	DD	FLAT:?PreCreateWindow@CWnd@@UAEHAAUtagCREATESTRUCTA@@@Z
	DD	FLAT:?CalcWindowRect@CWnd@@UAEXPAUtagRECT@@I@Z
	DD	FLAT:?GetMenu@CWnd@@UBEPAVCMenu@@XZ
	DD	FLAT:?SetMenu@CWnd@@UAEHPAVCMenu@@@Z
	DD	FLAT:?OnToolHitTest@CWnd@@UBEHVCPoint@@PAUtagTOOLINFOA@@@Z
	DD	FLAT:?GetScrollBarCtrl@CWnd@@UBEPAVCScrollBar@@H@Z
	DD	FLAT:?WinHelpA@CWnd@@UAEXKI@Z
	DD	FLAT:?HtmlHelpA@CWnd@@UAEXKI@Z
	DD	FLAT:?WinHelpInternal@CWnd@@UAEXKI@Z
	DD	FLAT:?ContinueModal@CWnd@@UAEHXZ
	DD	FLAT:?EndModalLoop@CWnd@@UAEXH@Z
	DD	FLAT:?OnDrawIconicThumbnailOrLivePreview@CWnd@@UAEXAAVCDC@@VCRect@@VCSize@@HAAH@Z
	DD	FLAT:?EnsureStdObj@CWnd@@UAEJXZ
	DD	FLAT:?get_accParent@CWnd@@UAEJPAPAUIDispatch@@@Z
	DD	FLAT:?get_accChildCount@CWnd@@UAEJPAJ@Z
	DD	FLAT:?get_accChild@CWnd@@UAEJUtagVARIANT@@PAPAUIDispatch@@@Z
	DD	FLAT:?get_accName@CWnd@@UAEJUtagVARIANT@@PAPA_W@Z
	DD	FLAT:?get_accValue@CWnd@@UAEJUtagVARIANT@@PAPA_W@Z
	DD	FLAT:?get_accDescription@CWnd@@UAEJUtagVARIANT@@PAPA_W@Z
	DD	FLAT:?get_accRole@CWnd@@UAEJUtagVARIANT@@PAU2@@Z
	DD	FLAT:?get_accState@CWnd@@UAEJUtagVARIANT@@PAU2@@Z
	DD	FLAT:?get_accHelp@CWnd@@UAEJUtagVARIANT@@PAPA_W@Z
	DD	FLAT:?get_accHelpTopic@CWnd@@UAEJPAPA_WUtagVARIANT@@PAJ@Z
	DD	FLAT:?get_accKeyboardShortcut@CWnd@@UAEJUtagVARIANT@@PAPA_W@Z
	DD	FLAT:?get_accFocus@CWnd@@UAEJPAUtagVARIANT@@@Z
	DD	FLAT:?get_accSelection@CWnd@@UAEJPAUtagVARIANT@@@Z
	DD	FLAT:?get_accDefaultAction@CWnd@@UAEJUtagVARIANT@@PAPA_W@Z
	DD	FLAT:?accSelect@CWnd@@UAEJJUtagVARIANT@@@Z
	DD	FLAT:?accLocation@CWnd@@UAEJPAJ000UtagVARIANT@@@Z
	DD	FLAT:?accNavigate@CWnd@@UAEJJUtagVARIANT@@PAU2@@Z
	DD	FLAT:?accHitTest@CWnd@@UAEJJJPAUtagVARIANT@@@Z
	DD	FLAT:?accDoDefaultAction@CWnd@@UAEJUtagVARIANT@@@Z
	DD	FLAT:?put_accName@CWnd@@UAEJUtagVARIANT@@PA_W@Z
	DD	FLAT:?put_accValue@CWnd@@UAEJUtagVARIANT@@PA_W@Z
	DD	FLAT:?SetProxy@CWnd@@UAEJPAUIAccessibleProxy@@@Z
	DD	FLAT:?CreateAccessibleProxy@CWnd@@UAEJIJPAJ@Z
	DD	FLAT:?OnCommand@CWnd@@MAEHIJ@Z
	DD	FLAT:?OnNotify@CWnd@@MAEHIJPAJ@Z
	DD	FLAT:?GetSuperWndProcAddr@CWnd@@MAEPAP6GJPAUHWND__@@IIJ@ZXZ
	DD	FLAT:?DoDataExchange@CWnd@@MAEXPAVCDataExchange@@@Z
	DD	FLAT:?BeginModalState@CWnd@@UAEXXZ
	DD	FLAT:?EndModalState@CWnd@@UAEXXZ
	DD	FLAT:?PreTranslateMessage@CColourPopup@@UAEHPAUtagMSG@@@Z
	DD	FLAT:?OnAmbientProperty@CWnd@@UAEHPAVCOleControlSite@@JPAUtagVARIANT@@@Z
	DD	FLAT:?WindowProc@CWnd@@MAEJIIJ@Z
	DD	FLAT:?OnWndMsg@CWnd@@MAEHIIJPAJ@Z
	DD	FLAT:?DefWindowProcA@CWnd@@MAEJIIJ@Z
	DD	FLAT:?PostNcDestroy@CWnd@@MAEXXZ
	DD	FLAT:?OnChildNotify@CWnd@@MAEHIIJPAJ@Z
	DD	FLAT:?OnTouchInputs@CWnd@@MAEHIPAUtagTOUCHINPUT@@@Z
	DD	FLAT:?OnTouchInput@CWnd@@MAEHVCPoint@@HHPAUtagTOUCHINPUT@@@Z
	DD	FLAT:?GetGestureStatus@CWnd@@MAEKVCPoint@@@Z
	DD	FLAT:?OnGestureZoom@CWnd@@MAEHVCPoint@@J@Z
	DD	FLAT:?OnGesturePan@CWnd@@MAEHVCPoint@@0@Z
	DD	FLAT:?OnGestureRotate@CWnd@@MAEHVCPoint@@N@Z
	DD	FLAT:?OnGestureTwoFingerTap@CWnd@@MAEHVCPoint@@@Z
	DD	FLAT:?OnGesturePressAndTap@CWnd@@MAEHVCPoint@@J@Z
	DD	FLAT:?ResizeDynamicLayout@CWnd@@MAEXXZ
	DD	FLAT:?CheckAutoCenter@CWnd@@UAEHXZ
	DD	FLAT:?IsFrameWnd@CWnd@@UBEHXZ
	DD	FLAT:?CreateControlContainer@CWnd@@MAEHPAPAVCOleControlContainer@@@Z
	DD	FLAT:?CreateControlSite@CWnd@@MAEHPAVCOleControlContainer@@PAPAVCOleControlSite@@IABU_GUID@@@Z
	DD	FLAT:?SetOccDialogInfo@CWnd@@MAEHPAU_AFX_OCC_DIALOG_INFO@@@Z
	DD	FLAT:?GetOccDialogInfo@CWnd@@MAEPAU_AFX_OCC_DIALOG_INFO@@XZ
CONST	ENDS
;	COMDAT ??_R2CDialog@@8
rdata$r	SEGMENT
??_R2CDialog@@8 DD FLAT:??_R1A@?0A@EA@CDialog@@8	; CDialog::`RTTI Base Class Array'
	DD	FLAT:??_R1A@?0A@EA@CWnd@@8
	DD	FLAT:??_R1A@?0A@EA@CCmdTarget@@8
	DD	FLAT:??_R1A@?0A@EA@CObject@@8
rdata$r	ENDS
;	COMDAT ??_R3CDialog@@8
rdata$r	SEGMENT
??_R3CDialog@@8 DD 00H					; CDialog::`RTTI Class Hierarchy Descriptor'
	DD	00H
	DD	04H
	DD	FLAT:??_R2CDialog@@8
rdata$r	ENDS
;	COMDAT ??_R0?AVCDialog@@@8
data$rs	SEGMENT
??_R0?AVCDialog@@@8 DD FLAT:??_7type_info@@6B@		; CDialog `RTTI Type Descriptor'
	DD	00H
	DB	'.?AVCDialog@@', 00H
data$rs	ENDS
;	COMDAT ??_R1A@?0A@EA@CDialog@@8
rdata$r	SEGMENT
??_R1A@?0A@EA@CDialog@@8 DD FLAT:??_R0?AVCDialog@@@8	; CDialog::`RTTI Base Class Descriptor at (0,-1,0,64)'
	DD	03H
	DD	00H
	DD	0ffffffffH
	DD	00H
	DD	040H
	DD	FLAT:??_R3CDialog@@8
rdata$r	ENDS
;	COMDAT ??_R1A@?0A@EA@CCommonDialog@@8
rdata$r	SEGMENT
??_R1A@?0A@EA@CCommonDialog@@8 DD FLAT:??_R0?AVCCommonDialog@@@8 ; CCommonDialog::`RTTI Base Class Descriptor at (0,-1,0,64)'
	DD	04H
	DD	00H
	DD	0ffffffffH
	DD	00H
	DD	040H
	DD	FLAT:??_R3CCommonDialog@@8
rdata$r	ENDS
;	COMDAT ??_R2CCommonDialog@@8
rdata$r	SEGMENT
??_R2CCommonDialog@@8 DD FLAT:??_R1A@?0A@EA@CCommonDialog@@8 ; CCommonDialog::`RTTI Base Class Array'
	DD	FLAT:??_R1A@?0A@EA@CDialog@@8
	DD	FLAT:??_R1A@?0A@EA@CWnd@@8
	DD	FLAT:??_R1A@?0A@EA@CCmdTarget@@8
	DD	FLAT:??_R1A@?0A@EA@CObject@@8
rdata$r	ENDS
;	COMDAT ??_R3CCommonDialog@@8
rdata$r	SEGMENT
??_R3CCommonDialog@@8 DD 00H				; CCommonDialog::`RTTI Class Hierarchy Descriptor'
	DD	00H
	DD	05H
	DD	FLAT:??_R2CCommonDialog@@8
rdata$r	ENDS
;	COMDAT ??_R0?AVCCommonDialog@@@8
data$rs	SEGMENT
??_R0?AVCCommonDialog@@@8 DD FLAT:??_7type_info@@6B@	; CCommonDialog `RTTI Type Descriptor'
	DD	00H
	DB	'.?AVCCommonDialog@@', 00H
data$rs	ENDS
;	COMDAT ??_R4CCommonDialog@@6B@
rdata$r	SEGMENT
??_R4CCommonDialog@@6B@ DD 00H				; CCommonDialog::`RTTI Complete Object Locator'
	DD	00H
	DD	00H
	DD	FLAT:??_R0?AVCCommonDialog@@@8
	DD	FLAT:??_R3CCommonDialog@@8
rdata$r	ENDS
;	COMDAT ??_R2CCmdTarget@@8
rdata$r	SEGMENT
??_R2CCmdTarget@@8 DD FLAT:??_R1A@?0A@EA@CCmdTarget@@8	; CCmdTarget::`RTTI Base Class Array'
	DD	FLAT:??_R1A@?0A@EA@CObject@@8
rdata$r	ENDS
;	COMDAT ??_R3CCmdTarget@@8
rdata$r	SEGMENT
??_R3CCmdTarget@@8 DD 00H				; CCmdTarget::`RTTI Class Hierarchy Descriptor'
	DD	00H
	DD	02H
	DD	FLAT:??_R2CCmdTarget@@8
rdata$r	ENDS
;	COMDAT ??_R0?AVCCmdTarget@@@8
data$rs	SEGMENT
??_R0?AVCCmdTarget@@@8 DD FLAT:??_7type_info@@6B@	; CCmdTarget `RTTI Type Descriptor'
	DD	00H
	DB	'.?AVCCmdTarget@@', 00H
data$rs	ENDS
;	COMDAT ??_R1A@?0A@EA@CCmdTarget@@8
rdata$r	SEGMENT
??_R1A@?0A@EA@CCmdTarget@@8 DD FLAT:??_R0?AVCCmdTarget@@@8 ; CCmdTarget::`RTTI Base Class Descriptor at (0,-1,0,64)'
	DD	01H
	DD	00H
	DD	0ffffffffH
	DD	00H
	DD	040H
	DD	FLAT:??_R3CCmdTarget@@8
rdata$r	ENDS
;	COMDAT ??_R2CWnd@@8
rdata$r	SEGMENT
??_R2CWnd@@8 DD	FLAT:??_R1A@?0A@EA@CWnd@@8		; CWnd::`RTTI Base Class Array'
	DD	FLAT:??_R1A@?0A@EA@CCmdTarget@@8
	DD	FLAT:??_R1A@?0A@EA@CObject@@8
rdata$r	ENDS
;	COMDAT ??_R3CWnd@@8
rdata$r	SEGMENT
??_R3CWnd@@8 DD	00H					; CWnd::`RTTI Class Hierarchy Descriptor'
	DD	00H
	DD	03H
	DD	FLAT:??_R2CWnd@@8
rdata$r	ENDS
;	COMDAT ??_R0?AVCWnd@@@8
data$rs	SEGMENT
??_R0?AVCWnd@@@8 DD FLAT:??_7type_info@@6B@		; CWnd `RTTI Type Descriptor'
	DD	00H
	DB	'.?AVCWnd@@', 00H
data$rs	ENDS
;	COMDAT ??_R1A@?0A@EA@CWnd@@8
rdata$r	SEGMENT
??_R1A@?0A@EA@CWnd@@8 DD FLAT:??_R0?AVCWnd@@@8		; CWnd::`RTTI Base Class Descriptor at (0,-1,0,64)'
	DD	02H
	DD	00H
	DD	0ffffffffH
	DD	00H
	DD	040H
	DD	FLAT:??_R3CWnd@@8
rdata$r	ENDS
;	COMDAT ??_R1A@?0A@EA@CPalette@@8
rdata$r	SEGMENT
??_R1A@?0A@EA@CPalette@@8 DD FLAT:??_R0?AVCPalette@@@8	; CPalette::`RTTI Base Class Descriptor at (0,-1,0,64)'
	DD	02H
	DD	00H
	DD	0ffffffffH
	DD	00H
	DD	040H
	DD	FLAT:??_R3CPalette@@8
rdata$r	ENDS
;	COMDAT ??_R2CPalette@@8
rdata$r	SEGMENT
??_R2CPalette@@8 DD FLAT:??_R1A@?0A@EA@CPalette@@8	; CPalette::`RTTI Base Class Array'
	DD	FLAT:??_R1A@?0A@EA@CGdiObject@@8
	DD	FLAT:??_R1A@?0A@EA@CObject@@8
rdata$r	ENDS
;	COMDAT ??_R3CPalette@@8
rdata$r	SEGMENT
??_R3CPalette@@8 DD 00H					; CPalette::`RTTI Class Hierarchy Descriptor'
	DD	00H
	DD	03H
	DD	FLAT:??_R2CPalette@@8
rdata$r	ENDS
;	COMDAT ??_R0?AVCPalette@@@8
data$rs	SEGMENT
??_R0?AVCPalette@@@8 DD FLAT:??_7type_info@@6B@		; CPalette `RTTI Type Descriptor'
	DD	00H
	DB	'.?AVCPalette@@', 00H
data$rs	ENDS
;	COMDAT ??_R4CPalette@@6B@
rdata$r	SEGMENT
??_R4CPalette@@6B@ DD 00H				; CPalette::`RTTI Complete Object Locator'
	DD	00H
	DD	00H
	DD	FLAT:??_R0?AVCPalette@@@8
	DD	FLAT:??_R3CPalette@@8
rdata$r	ENDS
;	COMDAT ??_R1A@?0A@EA@CFont@@8
rdata$r	SEGMENT
??_R1A@?0A@EA@CFont@@8 DD FLAT:??_R0?AVCFont@@@8	; CFont::`RTTI Base Class Descriptor at (0,-1,0,64)'
	DD	02H
	DD	00H
	DD	0ffffffffH
	DD	00H
	DD	040H
	DD	FLAT:??_R3CFont@@8
rdata$r	ENDS
;	COMDAT ??_R2CFont@@8
rdata$r	SEGMENT
??_R2CFont@@8 DD FLAT:??_R1A@?0A@EA@CFont@@8		; CFont::`RTTI Base Class Array'
	DD	FLAT:??_R1A@?0A@EA@CGdiObject@@8
	DD	FLAT:??_R1A@?0A@EA@CObject@@8
rdata$r	ENDS
;	COMDAT ??_R3CFont@@8
rdata$r	SEGMENT
??_R3CFont@@8 DD 00H					; CFont::`RTTI Class Hierarchy Descriptor'
	DD	00H
	DD	03H
	DD	FLAT:??_R2CFont@@8
rdata$r	ENDS
;	COMDAT ??_R0?AVCFont@@@8
data$rs	SEGMENT
??_R0?AVCFont@@@8 DD FLAT:??_7type_info@@6B@		; CFont `RTTI Type Descriptor'
	DD	00H
	DB	'.?AVCFont@@', 00H
data$rs	ENDS
;	COMDAT ??_R4CFont@@6B@
rdata$r	SEGMENT
??_R4CFont@@6B@ DD 00H					; CFont::`RTTI Complete Object Locator'
	DD	00H
	DD	00H
	DD	FLAT:??_R0?AVCFont@@@8
	DD	FLAT:??_R3CFont@@8
rdata$r	ENDS
;	COMDAT ??_R1A@?0A@EA@CBrush@@8
rdata$r	SEGMENT
??_R1A@?0A@EA@CBrush@@8 DD FLAT:??_R0?AVCBrush@@@8	; CBrush::`RTTI Base Class Descriptor at (0,-1,0,64)'
	DD	02H
	DD	00H
	DD	0ffffffffH
	DD	00H
	DD	040H
	DD	FLAT:??_R3CBrush@@8
rdata$r	ENDS
;	COMDAT ??_R2CBrush@@8
rdata$r	SEGMENT
??_R2CBrush@@8 DD FLAT:??_R1A@?0A@EA@CBrush@@8		; CBrush::`RTTI Base Class Array'
	DD	FLAT:??_R1A@?0A@EA@CGdiObject@@8
	DD	FLAT:??_R1A@?0A@EA@CObject@@8
rdata$r	ENDS
;	COMDAT ??_R3CBrush@@8
rdata$r	SEGMENT
??_R3CBrush@@8 DD 00H					; CBrush::`RTTI Class Hierarchy Descriptor'
	DD	00H
	DD	03H
	DD	FLAT:??_R2CBrush@@8
rdata$r	ENDS
;	COMDAT ??_R0?AVCBrush@@@8
data$rs	SEGMENT
??_R0?AVCBrush@@@8 DD FLAT:??_7type_info@@6B@		; CBrush `RTTI Type Descriptor'
	DD	00H
	DB	'.?AVCBrush@@', 00H
data$rs	ENDS
;	COMDAT ??_R4CBrush@@6B@
rdata$r	SEGMENT
??_R4CBrush@@6B@ DD 00H					; CBrush::`RTTI Complete Object Locator'
	DD	00H
	DD	00H
	DD	FLAT:??_R0?AVCBrush@@@8
	DD	FLAT:??_R3CBrush@@8
rdata$r	ENDS
;	COMDAT ??_R1A@?0A@EA@CPen@@8
rdata$r	SEGMENT
??_R1A@?0A@EA@CPen@@8 DD FLAT:??_R0?AVCPen@@@8		; CPen::`RTTI Base Class Descriptor at (0,-1,0,64)'
	DD	02H
	DD	00H
	DD	0ffffffffH
	DD	00H
	DD	040H
	DD	FLAT:??_R3CPen@@8
rdata$r	ENDS
;	COMDAT ??_R2CPen@@8
rdata$r	SEGMENT
??_R2CPen@@8 DD	FLAT:??_R1A@?0A@EA@CPen@@8		; CPen::`RTTI Base Class Array'
	DD	FLAT:??_R1A@?0A@EA@CGdiObject@@8
	DD	FLAT:??_R1A@?0A@EA@CObject@@8
rdata$r	ENDS
;	COMDAT ??_R3CPen@@8
rdata$r	SEGMENT
??_R3CPen@@8 DD	00H					; CPen::`RTTI Class Hierarchy Descriptor'
	DD	00H
	DD	03H
	DD	FLAT:??_R2CPen@@8
rdata$r	ENDS
;	COMDAT ??_R0?AVCPen@@@8
data$rs	SEGMENT
??_R0?AVCPen@@@8 DD FLAT:??_7type_info@@6B@		; CPen `RTTI Type Descriptor'
	DD	00H
	DB	'.?AVCPen@@', 00H
data$rs	ENDS
;	COMDAT ??_R4CPen@@6B@
rdata$r	SEGMENT
??_R4CPen@@6B@ DD 00H					; CPen::`RTTI Complete Object Locator'
	DD	00H
	DD	00H
	DD	FLAT:??_R0?AVCPen@@@8
	DD	FLAT:??_R3CPen@@8
rdata$r	ENDS
;	COMDAT ??_R1A@?0A@EA@CGdiObject@@8
rdata$r	SEGMENT
??_R1A@?0A@EA@CGdiObject@@8 DD FLAT:??_R0?AVCGdiObject@@@8 ; CGdiObject::`RTTI Base Class Descriptor at (0,-1,0,64)'
	DD	01H
	DD	00H
	DD	0ffffffffH
	DD	00H
	DD	040H
	DD	FLAT:??_R3CGdiObject@@8
rdata$r	ENDS
;	COMDAT ??_R2CGdiObject@@8
rdata$r	SEGMENT
??_R2CGdiObject@@8 DD FLAT:??_R1A@?0A@EA@CGdiObject@@8	; CGdiObject::`RTTI Base Class Array'
	DD	FLAT:??_R1A@?0A@EA@CObject@@8
rdata$r	ENDS
;	COMDAT ??_R3CGdiObject@@8
rdata$r	SEGMENT
??_R3CGdiObject@@8 DD 00H				; CGdiObject::`RTTI Class Hierarchy Descriptor'
	DD	00H
	DD	02H
	DD	FLAT:??_R2CGdiObject@@8
rdata$r	ENDS
;	COMDAT ??_R0?AVCGdiObject@@@8
data$rs	SEGMENT
??_R0?AVCGdiObject@@@8 DD FLAT:??_7type_info@@6B@	; CGdiObject `RTTI Type Descriptor'
	DD	00H
	DB	'.?AVCGdiObject@@', 00H
data$rs	ENDS
;	COMDAT ??_R4CGdiObject@@6B@
rdata$r	SEGMENT
??_R4CGdiObject@@6B@ DD 00H				; CGdiObject::`RTTI Complete Object Locator'
	DD	00H
	DD	00H
	DD	FLAT:??_R0?AVCGdiObject@@@8
	DD	FLAT:??_R3CGdiObject@@8
rdata$r	ENDS
;	COMDAT ??_R1A@?0A@EA@CObject@@8
rdata$r	SEGMENT
??_R1A@?0A@EA@CObject@@8 DD FLAT:??_R0?AVCObject@@@8	; CObject::`RTTI Base Class Descriptor at (0,-1,0,64)'
	DD	00H
	DD	00H
	DD	0ffffffffH
	DD	00H
	DD	040H
	DD	FLAT:??_R3CObject@@8
rdata$r	ENDS
;	COMDAT ??_R2CObject@@8
rdata$r	SEGMENT
??_R2CObject@@8 DD FLAT:??_R1A@?0A@EA@CObject@@8	; CObject::`RTTI Base Class Array'
rdata$r	ENDS
;	COMDAT ??_R3CObject@@8
rdata$r	SEGMENT
??_R3CObject@@8 DD 00H					; CObject::`RTTI Class Hierarchy Descriptor'
	DD	00H
	DD	01H
	DD	FLAT:??_R2CObject@@8
rdata$r	ENDS
;	COMDAT ??_R0?AVCObject@@@8
data$rs	SEGMENT
??_R0?AVCObject@@@8 DD FLAT:??_7type_info@@6B@		; CObject `RTTI Type Descriptor'
	DD	00H
	DB	'.?AVCObject@@', 00H
data$rs	ENDS
;	COMDAT ??_7CCommonDialog@@6B@
CONST	SEGMENT
??_7CCommonDialog@@6B@ DD FLAT:??_R4CCommonDialog@@6B@	; CCommonDialog::`vftable'
	DD	FLAT:?GetRuntimeClass@CCommonDialog@@UBEPAUCRuntimeClass@@XZ
	DD	FLAT:??_ECCommonDialog@@UAEPAXI@Z
	DD	FLAT:?Serialize@CObject@@UAEXAAVCArchive@@@Z
	DD	FLAT:?AssertValid@CObject@@UBEXXZ
	DD	FLAT:?Dump@CObject@@UBEXAAVCDumpContext@@@Z
	DD	FLAT:?OnCmdMsg@CDialog@@UAEHIHPAXPAUAFX_CMDHANDLERINFO@@@Z
	DD	FLAT:?OnFinalRelease@CWnd@@UAEXXZ
	DD	FLAT:?IsInvokeAllowed@CCmdTarget@@UAEHJ@Z
	DD	FLAT:?GetDispatchIID@CCmdTarget@@UAEHPAU_GUID@@@Z
	DD	FLAT:?GetTypeInfoCount@CCmdTarget@@UAEIXZ
	DD	FLAT:?GetTypeLibCache@CCmdTarget@@UAEPAVCTypeLibCache@@XZ
	DD	FLAT:?GetTypeLib@CCmdTarget@@UAEJKPAPAUITypeLib@@@Z
	DD	FLAT:?GetMessageMap@CCommonDialog@@MBEPBUAFX_MSGMAP@@XZ
	DD	FLAT:?GetCommandMap@CCmdTarget@@MBEPBUAFX_OLECMDMAP@@XZ
	DD	FLAT:?GetDispatchMap@CCmdTarget@@MBEPBUAFX_DISPMAP@@XZ
	DD	FLAT:?GetConnectionMap@CCmdTarget@@MBEPBUAFX_CONNECTIONMAP@@XZ
	DD	FLAT:?GetInterfaceMap@CWnd@@MBEPBUAFX_INTERFACEMAP@@XZ
	DD	FLAT:?GetEventSinkMap@CCmdTarget@@MBEPBUAFX_EVENTSINKMAP@@XZ
	DD	FLAT:?OnCreateAggregates@CCmdTarget@@UAEHXZ
	DD	FLAT:?GetInterfaceHook@CCmdTarget@@UAEPAUIUnknown@@PBX@Z
	DD	FLAT:?GetExtraConnectionPoints@CCmdTarget@@MAEHPAVCPtrArray@@@Z
	DD	FLAT:?GetConnectionHook@CCmdTarget@@MAEPAUIConnectionPoint@@ABU_GUID@@@Z
	DD	FLAT:?PreSubclassWindow@CWnd@@UAEXXZ
	DD	FLAT:?Create@CWnd@@UAEHPBD0KABUtagRECT@@PAV1@IPAUCCreateContext@@@Z
	DD	FLAT:?CreateEx@CWnd@@UAEHKPBD0KABUtagRECT@@PAV1@IPAX@Z
	DD	FLAT:?CreateEx@CWnd@@UAEHKPBD0KHHHHPAUHWND__@@PAUHMENU__@@PAX@Z
	DD	FLAT:?DestroyWindow@CWnd@@UAEHXZ
	DD	FLAT:?PreCreateWindow@CWnd@@UAEHAAUtagCREATESTRUCTA@@@Z
	DD	FLAT:?CalcWindowRect@CWnd@@UAEXPAUtagRECT@@I@Z
	DD	FLAT:?GetMenu@CWnd@@UBEPAVCMenu@@XZ
	DD	FLAT:?SetMenu@CWnd@@UAEHPAVCMenu@@@Z
	DD	FLAT:?OnToolHitTest@CWnd@@UBEHVCPoint@@PAUtagTOOLINFOA@@@Z
	DD	FLAT:?GetScrollBarCtrl@CWnd@@UBEPAVCScrollBar@@H@Z
	DD	FLAT:?WinHelpA@CWnd@@UAEXKI@Z
	DD	FLAT:?HtmlHelpA@CWnd@@UAEXKI@Z
	DD	FLAT:?WinHelpInternal@CWnd@@UAEXKI@Z
	DD	FLAT:?ContinueModal@CWnd@@UAEHXZ
	DD	FLAT:?EndModalLoop@CWnd@@UAEXH@Z
	DD	FLAT:?OnDrawIconicThumbnailOrLivePreview@CWnd@@UAEXAAVCDC@@VCRect@@VCSize@@HAAH@Z
	DD	FLAT:?EnsureStdObj@CWnd@@UAEJXZ
	DD	FLAT:?get_accParent@CWnd@@UAEJPAPAUIDispatch@@@Z
	DD	FLAT:?get_accChildCount@CWnd@@UAEJPAJ@Z
	DD	FLAT:?get_accChild@CWnd@@UAEJUtagVARIANT@@PAPAUIDispatch@@@Z
	DD	FLAT:?get_accName@CWnd@@UAEJUtagVARIANT@@PAPA_W@Z
	DD	FLAT:?get_accValue@CWnd@@UAEJUtagVARIANT@@PAPA_W@Z
	DD	FLAT:?get_accDescription@CWnd@@UAEJUtagVARIANT@@PAPA_W@Z
	DD	FLAT:?get_accRole@CWnd@@UAEJUtagVARIANT@@PAU2@@Z
	DD	FLAT:?get_accState@CWnd@@UAEJUtagVARIANT@@PAU2@@Z
	DD	FLAT:?get_accHelp@CWnd@@UAEJUtagVARIANT@@PAPA_W@Z
	DD	FLAT:?get_accHelpTopic@CWnd@@UAEJPAPA_WUtagVARIANT@@PAJ@Z
	DD	FLAT:?get_accKeyboardShortcut@CWnd@@UAEJUtagVARIANT@@PAPA_W@Z
	DD	FLAT:?get_accFocus@CWnd@@UAEJPAUtagVARIANT@@@Z
	DD	FLAT:?get_accSelection@CWnd@@UAEJPAUtagVARIANT@@@Z
	DD	FLAT:?get_accDefaultAction@CWnd@@UAEJUtagVARIANT@@PAPA_W@Z
	DD	FLAT:?accSelect@CWnd@@UAEJJUtagVARIANT@@@Z
	DD	FLAT:?accLocation@CWnd@@UAEJPAJ000UtagVARIANT@@@Z
	DD	FLAT:?accNavigate@CWnd@@UAEJJUtagVARIANT@@PAU2@@Z
	DD	FLAT:?accHitTest@CWnd@@UAEJJJPAUtagVARIANT@@@Z
	DD	FLAT:?accDoDefaultAction@CWnd@@UAEJUtagVARIANT@@@Z
	DD	FLAT:?put_accName@CWnd@@UAEJUtagVARIANT@@PA_W@Z
	DD	FLAT:?put_accValue@CWnd@@UAEJUtagVARIANT@@PA_W@Z
	DD	FLAT:?SetProxy@CWnd@@UAEJPAUIAccessibleProxy@@@Z
	DD	FLAT:?CreateAccessibleProxy@CWnd@@UAEJIJPAJ@Z
	DD	FLAT:?OnCommand@CWnd@@MAEHIJ@Z
	DD	FLAT:?OnNotify@CWnd@@MAEHIJPAJ@Z
	DD	FLAT:?GetSuperWndProcAddr@CWnd@@MAEPAP6GJPAUHWND__@@IIJ@ZXZ
	DD	FLAT:?DoDataExchange@CWnd@@MAEXPAVCDataExchange@@@Z
	DD	FLAT:?BeginModalState@CWnd@@UAEXXZ
	DD	FLAT:?EndModalState@CWnd@@UAEXXZ
	DD	FLAT:?PreTranslateMessage@CDialog@@UAEHPAUtagMSG@@@Z
	DD	FLAT:?OnAmbientProperty@CWnd@@UAEHPAVCOleControlSite@@JPAUtagVARIANT@@@Z
	DD	FLAT:?WindowProc@CWnd@@MAEJIIJ@Z
	DD	FLAT:?OnWndMsg@CWnd@@MAEHIIJPAJ@Z
	DD	FLAT:?DefWindowProcA@CWnd@@MAEJIIJ@Z
	DD	FLAT:?PostNcDestroy@CWnd@@MAEXXZ
	DD	FLAT:?OnChildNotify@CWnd@@MAEHIIJPAJ@Z
	DD	FLAT:?OnTouchInputs@CWnd@@MAEHIPAUtagTOUCHINPUT@@@Z
	DD	FLAT:?OnTouchInput@CWnd@@MAEHVCPoint@@HHPAUtagTOUCHINPUT@@@Z
	DD	FLAT:?GetGestureStatus@CWnd@@MAEKVCPoint@@@Z
	DD	FLAT:?OnGestureZoom@CWnd@@MAEHVCPoint@@J@Z
	DD	FLAT:?OnGesturePan@CWnd@@MAEHVCPoint@@0@Z
	DD	FLAT:?OnGestureRotate@CWnd@@MAEHVCPoint@@N@Z
	DD	FLAT:?OnGestureTwoFingerTap@CWnd@@MAEHVCPoint@@@Z
	DD	FLAT:?OnGesturePressAndTap@CWnd@@MAEHVCPoint@@J@Z
	DD	FLAT:?ResizeDynamicLayout@CWnd@@MAEXXZ
	DD	FLAT:?CheckAutoCenter@CDialog@@UAEHXZ
	DD	FLAT:?IsFrameWnd@CWnd@@UBEHXZ
	DD	FLAT:?CreateControlContainer@CWnd@@MAEHPAPAVCOleControlContainer@@@Z
	DD	FLAT:?CreateControlSite@CWnd@@MAEHPAVCOleControlContainer@@PAPAVCOleControlSite@@IABU_GUID@@@Z
	DD	FLAT:?SetOccDialogInfo@CDialog@@MAEHPAU_AFX_OCC_DIALOG_INFO@@@Z
	DD	FLAT:?GetOccDialogInfo@CDialog@@MAEPAU_AFX_OCC_DIALOG_INFO@@XZ
	DD	FLAT:?Create@CDialog@@UAEHIPAVCWnd@@@Z
	DD	FLAT:?Create@CDialog@@UAEHPBDPAVCWnd@@@Z
	DD	FLAT:?CreateIndirect@CDialog@@UAEHPAXPAVCWnd@@@Z
	DD	FLAT:?CreateIndirect@CDialog@@UAEHPBUDLGTEMPLATE@@PAVCWnd@@PAX@Z
	DD	FLAT:?DoModal@CDialog@@UAEHXZ
	DD	FLAT:?OnInitDialog@CDialog@@UAEHXZ
	DD	FLAT:?OnSetFont@CDialog@@UAEXPAVCFont@@@Z
	DD	FLAT:?OnOK@CCommonDialog@@MAEXXZ
	DD	FLAT:?OnCancel@CCommonDialog@@MAEXXZ
	DD	FLAT:?PreInitDialog@CDialog@@MAEXXZ
CONST	ENDS
;	COMDAT ??_C@_0N@OMEMOKLE@?$CFTs?5?$CI?$CFTs?3?$CFd?$CJ@
CONST	SEGMENT
??_C@_0N@OMEMOKLE@?$CFTs?5?$CI?$CFTs?3?$CFd?$CJ@ DB '%Ts (%Ts:%d)', 00H ; `string'
CONST	ENDS
;	COMDAT ??_C@_0BB@HBOOMJBF@?$CFTs?5?$CI?$CFTs?3?$CFd?$CJ?6?$CFTs@
CONST	SEGMENT
??_C@_0BB@HBOOMJBF@?$CFTs?5?$CI?$CFTs?3?$CFd?$CJ?6?$CFTs@ DB '%Ts (%Ts:%d'
	DB	')', 0aH, '%Ts', 00H				; `string'
CONST	ENDS
;	COMDAT ??_C@_0BP@OIEOKIDM@Exception?5thrown?5in?5destructor@
CONST	SEGMENT
??_C@_0BP@OIEOKIDM@Exception?5thrown?5in?5destructor@ DB 'Exception throw'
	DB	'n in destructor', 00H			; `string'
CONST	ENDS
;	COMDAT ??_C@_0HD@JJCHHHNK@C?3?2Program?5Files?5?$CIx86?$CJ?2Microsof@
CONST	SEGMENT
??_C@_0HD@JJCHHHNK@C?3?2Program?5Files?5?$CIx86?$CJ?2Microsof@ DB 'C:\Pro'
	DB	'gram Files (x86)\Microsoft Visual Studio\2019\Community\VC\To'
	DB	'ols\MSVC\14.29.30133\atlmfc\include\afxwin1.inl', 00H ; `string'
CONST	ENDS
;	COMDAT ??_7CPalette@@6B@
CONST	SEGMENT
??_7CPalette@@6B@ DD FLAT:??_R4CPalette@@6B@		; CPalette::`vftable'
	DD	FLAT:?GetRuntimeClass@CPalette@@UBEPAUCRuntimeClass@@XZ
	DD	FLAT:??_ECPalette@@UAEPAXI@Z
	DD	FLAT:?Serialize@CObject@@UAEXAAVCArchive@@@Z
	DD	FLAT:?AssertValid@CObject@@UBEXXZ
	DD	FLAT:?Dump@CObject@@UBEXAAVCDumpContext@@@Z
CONST	ENDS
;	COMDAT ??_7CFont@@6B@
CONST	SEGMENT
??_7CFont@@6B@ DD FLAT:??_R4CFont@@6B@			; CFont::`vftable'
	DD	FLAT:?GetRuntimeClass@CFont@@UBEPAUCRuntimeClass@@XZ
	DD	FLAT:??_ECFont@@UAEPAXI@Z
	DD	FLAT:?Serialize@CObject@@UAEXAAVCArchive@@@Z
	DD	FLAT:?AssertValid@CObject@@UBEXXZ
	DD	FLAT:?Dump@CObject@@UBEXAAVCDumpContext@@@Z
CONST	ENDS
;	COMDAT ??_7CBrush@@6B@
CONST	SEGMENT
??_7CBrush@@6B@ DD FLAT:??_R4CBrush@@6B@		; CBrush::`vftable'
	DD	FLAT:?GetRuntimeClass@CBrush@@UBEPAUCRuntimeClass@@XZ
	DD	FLAT:??_ECBrush@@UAEPAXI@Z
	DD	FLAT:?Serialize@CObject@@UAEXAAVCArchive@@@Z
	DD	FLAT:?AssertValid@CObject@@UBEXXZ
	DD	FLAT:?Dump@CObject@@UBEXAAVCDumpContext@@@Z
CONST	ENDS
;	COMDAT ??_7CPen@@6B@
CONST	SEGMENT
??_7CPen@@6B@ DD FLAT:??_R4CPen@@6B@			; CPen::`vftable'
	DD	FLAT:?GetRuntimeClass@CPen@@UBEPAUCRuntimeClass@@XZ
	DD	FLAT:??_ECPen@@UAEPAXI@Z
	DD	FLAT:?Serialize@CObject@@UAEXAAVCArchive@@@Z
	DD	FLAT:?AssertValid@CObject@@UBEXXZ
	DD	FLAT:?Dump@CObject@@UBEXAAVCDumpContext@@@Z
CONST	ENDS
;	COMDAT ??_7CGdiObject@@6B@
CONST	SEGMENT
??_7CGdiObject@@6B@ DD FLAT:??_R4CGdiObject@@6B@	; CGdiObject::`vftable'
	DD	FLAT:?GetRuntimeClass@CGdiObject@@UBEPAUCRuntimeClass@@XZ
	DD	FLAT:??_ECGdiObject@@UAEPAXI@Z
	DD	FLAT:?Serialize@CObject@@UAEXAAVCArchive@@@Z
	DD	FLAT:?AssertValid@CObject@@UBEXXZ
	DD	FLAT:?Dump@CObject@@UBEXAAVCDumpContext@@@Z
CONST	ENDS
;	COMDAT ??_C@_00CNPNBAHC@@
CONST	SEGMENT
??_C@_00CNPNBAHC@@ DB 00H				; `string'
CONST	ENDS
;	COMDAT ??_R0PAVCException@@@8
data$r	SEGMENT
??_R0PAVCException@@@8 DD FLAT:??_7type_info@@6B@	; CException * `RTTI Type Descriptor'
	DD	00H
	DB	'.PAVCException@@', 00H
data$r	ENDS
;	COMDAT xdata$x
xdata$x	SEGMENT
__ehfuncinfo$??1CMultiLanguageResourceSetter@@QAE@XZ DD 019930522H
	DD	00H
	DD	00H
	DD	2 DUP(00H)
	DD	2 DUP(00H)
	DD	00H
	DD	05H
xdata$x	ENDS
;	COMDAT xdata$x
xdata$x	SEGMENT
__unwindtable$??_GCColourPopup@@UAEPAXI@Z DD 0ffffffffH
	DD	FLAT:___std_terminate
__ehfuncinfo$??_GCColourPopup@@UAEPAXI@Z DD 019930522H
	DD	01H
	DD	FLAT:__unwindtable$??_GCColourPopup@@UAEPAXI@Z
	DD	2 DUP(00H)
	DD	2 DUP(00H)
	DD	00H
	DD	05H
xdata$x	ENDS
;	COMDAT xdata$x
xdata$x	SEGMENT
__unwindtable$?OnKeyDown@CColourPopup@@IAEXIII@Z DD 0ffffffffH
	DD	00H
__ehfuncinfo$?OnKeyDown@CColourPopup@@IAEXIII@Z DD 019930522H
	DD	01H
	DD	FLAT:__unwindtable$?OnKeyDown@CColourPopup@@IAEXIII@Z
	DD	2 DUP(00H)
	DD	2 DUP(00H)
	DD	00H
	DD	01H
xdata$x	ENDS
;	COMDAT xdata$x
xdata$x	SEGMENT
__unwindtable$?OnPaint@CColourPopup@@IAEXXZ DD 0ffffffffH
	DD	FLAT:__unwindfunclet$?OnPaint@CColourPopup@@IAEXXZ$0
__ehfuncinfo$?OnPaint@CColourPopup@@IAEXXZ DD 019930522H
	DD	01H
	DD	FLAT:__unwindtable$?OnPaint@CColourPopup@@IAEXXZ
	DD	2 DUP(00H)
	DD	2 DUP(00H)
	DD	00H
	DD	01H
xdata$x	ENDS
;	COMDAT xdata$x
xdata$x	SEGMENT
__unwindtable$?OnLButtonUp@CColourPopup@@IAEXIVCPoint@@@Z DD 0ffffffffH
	DD	00H
__ehfuncinfo$?OnLButtonUp@CColourPopup@@IAEXIVCPoint@@@Z DD 019930522H
	DD	01H
	DD	FLAT:__unwindtable$?OnLButtonUp@CColourPopup@@IAEXIVCPoint@@@Z
	DD	2 DUP(00H)
	DD	2 DUP(00H)
	DD	00H
	DD	01H
xdata$x	ENDS
;	COMDAT xdata$x
xdata$x	SEGMENT
__unwindtable$?DrawCell@CColourPopup@@IAEXPAVCDC@@H@Z DD 0ffffffffH
	DD	FLAT:__unwindfunclet$?DrawCell@CColourPopup@@IAEXPAVCDC@@H@Z$0
	DD	0ffffffffH
	DD	FLAT:__unwindfunclet$?DrawCell@CColourPopup@@IAEXPAVCDC@@H@Z$1
	DD	01H
	DD	FLAT:__unwindfunclet$?DrawCell@CColourPopup@@IAEXPAVCDC@@H@Z$2
__ehfuncinfo$?DrawCell@CColourPopup@@IAEXPAVCDC@@H@Z DD 019930522H
	DD	03H
	DD	FLAT:__unwindtable$?DrawCell@CColourPopup@@IAEXPAVCDC@@H@Z
	DD	2 DUP(00H)
	DD	2 DUP(00H)
	DD	00H
	DD	01H
xdata$x	ENDS
;	COMDAT xdata$x
xdata$x	SEGMENT
__unwindtable$?EndSelection@CColourPopup@@IAEXH@Z DD 0ffffffffH
	DD	FLAT:__unwindfunclet$?EndSelection@CColourPopup@@IAEXH@Z$0
__ehfuncinfo$?EndSelection@CColourPopup@@IAEXH@Z DD 019930522H
	DD	01H
	DD	FLAT:__unwindtable$?EndSelection@CColourPopup@@IAEXH@Z
	DD	2 DUP(00H)
	DD	2 DUP(00H)
	DD	00H
	DD	01H
xdata$x	ENDS
;	COMDAT xdata$x
xdata$x	SEGMENT
__unwindtable$?ChangeSelection@CColourPopup@@IAEXH@Z DD 0ffffffffH
	DD	FLAT:__unwindfunclet$?ChangeSelection@CColourPopup@@IAEXH@Z$0
__ehfuncinfo$?ChangeSelection@CColourPopup@@IAEXH@Z DD 019930522H
	DD	01H
	DD	FLAT:__unwindtable$?ChangeSelection@CColourPopup@@IAEXH@Z
	DD	2 DUP(00H)
	DD	2 DUP(00H)
	DD	00H
	DD	01H
xdata$x	ENDS
;	COMDAT xdata$x
xdata$x	SEGMENT
__unwindtable$?CreateToolTips@CColourPopup@@IAEXXZ DD 0ffffffffH
	DD	FLAT:__unwindfunclet$?CreateToolTips@CColourPopup@@IAEXXZ$0
	DD	0ffffffffH
	DD	00H
	DD	0ffffffffH
	DD	FLAT:___std_terminate
__ehfuncinfo$?CreateToolTips@CColourPopup@@IAEXXZ DD 019930522H
	DD	03H
	DD	FLAT:__unwindtable$?CreateToolTips@CColourPopup@@IAEXXZ
	DD	2 DUP(00H)
	DD	2 DUP(00H)
	DD	00H
	DD	01H
xdata$x	ENDS
;	COMDAT xdata$x
xdata$x	SEGMENT
__unwindtable$?SetWindowSize@CColourPopup@@IAEXXZ DD 0ffffffffH
	DD	FLAT:__unwindfunclet$?SetWindowSize@CColourPopup@@IAEXXZ$0
__ehfuncinfo$?SetWindowSize@CColourPopup@@IAEXXZ DD 019930522H
	DD	01H
	DD	FLAT:__unwindtable$?SetWindowSize@CColourPopup@@IAEXXZ
	DD	2 DUP(00H)
	DD	2 DUP(00H)
	DD	00H
	DD	01H
xdata$x	ENDS
;	COMDAT xdata$x
xdata$x	SEGMENT
__ehfuncinfo$??1CColourPopup@@UAE@XZ DD 019930522H
	DD	00H
	DD	00H
	DD	2 DUP(00H)
	DD	2 DUP(00H)
	DD	00H
	DD	05H
xdata$x	ENDS
;	COMDAT xdata$x
xdata$x	SEGMENT
__unwindtable$?Create@CColourPopup@@QAEHVCPoint@@KPAVCWnd@@PBD2@Z DD 0ffffffffH
	DD	FLAT:__unwindfunclet$?Create@CColourPopup@@QAEHVCPoint@@KPAVCWnd@@PBD2@Z$0
__ehfuncinfo$?Create@CColourPopup@@QAEHVCPoint@@KPAVCWnd@@PBD2@Z DD 019930522H
	DD	01H
	DD	FLAT:__unwindtable$?Create@CColourPopup@@QAEHVCPoint@@KPAVCWnd@@PBD2@Z
	DD	2 DUP(00H)
	DD	2 DUP(00H)
	DD	00H
	DD	01H
xdata$x	ENDS
;	COMDAT xdata$x
xdata$x	SEGMENT
__ehfuncinfo$??0CColourPopup@@QAE@PAUHWND__@@VCPoint@@KPAVCWnd@@PBD3@Z DD 019930522H
	DD	08H
	DD	FLAT:__unwindtable$??0CColourPopup@@QAE@PAUHWND__@@VCPoint@@KPAVCWnd@@PBD3@Z
	DD	2 DUP(00H)
	DD	2 DUP(00H)
	DD	00H
	DD	01H
__unwindtable$??0CColourPopup@@QAE@PAUHWND__@@VCPoint@@KPAVCWnd@@PBD3@Z DD 0ffffffffH
	DD	FLAT:__unwindfunclet$??0CColourPopup@@QAE@PAUHWND__@@VCPoint@@KPAVCWnd@@PBD3@Z$0
	DD	00H
	DD	FLAT:__unwindfunclet$??0CColourPopup@@QAE@PAUHWND__@@VCPoint@@KPAVCWnd@@PBD3@Z$1
	DD	01H
	DD	FLAT:__unwindfunclet$??0CColourPopup@@QAE@PAUHWND__@@VCPoint@@KPAVCWnd@@PBD3@Z$2
	DD	02H
	DD	FLAT:__unwindfunclet$??0CColourPopup@@QAE@PAUHWND__@@VCPoint@@KPAVCWnd@@PBD3@Z$3
	DD	03H
	DD	FLAT:__unwindfunclet$??0CColourPopup@@QAE@PAUHWND__@@VCPoint@@KPAVCWnd@@PBD3@Z$4
	DD	04H
	DD	FLAT:__unwindfunclet$??0CColourPopup@@QAE@PAUHWND__@@VCPoint@@KPAVCWnd@@PBD3@Z$5
	DD	05H
	DD	FLAT:__unwindfunclet$??0CColourPopup@@QAE@PAUHWND__@@VCPoint@@KPAVCWnd@@PBD3@Z$6
	DD	06H
	DD	FLAT:__unwindfunclet$??0CColourPopup@@QAE@PAUHWND__@@VCPoint@@KPAVCWnd@@PBD3@Z$7
xdata$x	ENDS
;	COMDAT xdata$x
xdata$x	SEGMENT
__ehfuncinfo$??0CColourPopup@@QAE@XZ DD 019930522H
	DD	07H
	DD	FLAT:__unwindtable$??0CColourPopup@@QAE@XZ
	DD	2 DUP(00H)
	DD	2 DUP(00H)
	DD	00H
	DD	01H
__unwindtable$??0CColourPopup@@QAE@XZ DD 0ffffffffH
	DD	FLAT:__unwindfunclet$??0CColourPopup@@QAE@XZ$0
	DD	00H
	DD	FLAT:__unwindfunclet$??0CColourPopup@@QAE@XZ$1
	DD	01H
	DD	FLAT:__unwindfunclet$??0CColourPopup@@QAE@XZ$2
	DD	02H
	DD	FLAT:__unwindfunclet$??0CColourPopup@@QAE@XZ$3
	DD	03H
	DD	FLAT:__unwindfunclet$??0CColourPopup@@QAE@XZ$4
	DD	04H
	DD	FLAT:__unwindfunclet$??0CColourPopup@@QAE@XZ$5
	DD	05H
	DD	FLAT:__unwindfunclet$??0CColourPopup@@QAE@XZ$6
xdata$x	ENDS
;	COMDAT xdata$x
xdata$x	SEGMENT
__catchsym$??1CGdiObject@@UAE@XZ$3 DD 00H
	DD	FLAT:??_R0PAVCException@@@8
	DD	0fffffde4H
	DD	FLAT:__catch$??1CGdiObject@@UAE@XZ$0
__tryblocktable$??1CGdiObject@@UAE@XZ DD 00H
	DD	00H
	DD	02H
	DD	01H
	DD	FLAT:__catchsym$??1CGdiObject@@UAE@XZ$3
__unwindtable$??1CGdiObject@@UAE@XZ DD 0ffffffffH
	DD	00H
	DD	0ffffffffH
	DD	00H
	DD	01H
	DD	FLAT:__unwindfunclet$??1CGdiObject@@UAE@XZ$2
__ehfuncinfo$??1CGdiObject@@UAE@XZ DD 019930522H
	DD	03H
	DD	FLAT:__unwindtable$??1CGdiObject@@UAE@XZ
	DD	01H
	DD	FLAT:__tryblocktable$??1CGdiObject@@UAE@XZ
	DD	2 DUP(00H)
	DD	00H
	DD	05H
xdata$x	ENDS
; Function compile flags: /Ogtp
; File D:\git\src\IBK\IBK_DRFN\ProjSrc\SrcChartEx\ChartAddIn\ChartDesignPropertyAddIn\Include_Chart\Dll_Load\IMetaTable.h
; File C:\Program Files (x86)\Microsoft Visual Studio\2019\Community\VC\Tools\MSVC\14.29.30133\atlmfc\include\afxwin1.inl
; File D:\git\src\IBK\IBK_DRFN\ProjSrc\SrcChartEx\ChartAddIn\ChartDesignPropertyAddIn\Include_Chart\Dll_Load\IMetaTable.h
;	COMDAT ??1CMultiLanguageResourceSetter@@QAE@XZ
_TEXT	SEGMENT
__$EHRec$ = -12						; size = 12
??1CMultiLanguageResourceSetter@@QAE@XZ PROC		; CMultiLanguageResourceSetter::~CMultiLanguageResourceSetter, COMDAT
; _this$ = ecx

; 1036 : 	{

  00000	55		 push	 ebp
  00001	8b ec		 mov	 ebp, esp
  00003	6a ff		 push	 -1
  00005	68 00 00 00 00	 push	 __ehhandler$??1CMultiLanguageResourceSetter@@QAE@XZ
  0000a	64 a1 00 00 00
	00		 mov	 eax, DWORD PTR fs:0
  00010	50		 push	 eax
  00011	56		 push	 esi
  00012	a1 00 00 00 00	 mov	 eax, DWORD PTR ___security_cookie
  00017	33 c5		 xor	 eax, ebp
  00019	50		 push	 eax
  0001a	8d 45 f4	 lea	 eax, DWORD PTR __$EHRec$[ebp]
  0001d	64 a3 00 00 00
	00		 mov	 DWORD PTR fs:0, eax

; 1037 : 		AfxSetResourceHandle( m_hInstance);

  00023	8b 31		 mov	 esi, DWORD PTR [ecx]
; File C:\Program Files (x86)\Microsoft Visual Studio\2019\Community\VC\Tools\MSVC\14.29.30133\atlmfc\include\afxwin1.inl

; 27   : 	{ ASSERT(hInstResource != NULL); afxCurrentResourceHandle = hInstResource; }

  00025	e8 00 00 00 00	 call	 ?AfxGetModuleState@@YGPAVAFX_MODULE_STATE@@XZ ; AfxGetModuleState
  0002a	89 70 0c	 mov	 DWORD PTR [eax+12], esi
; File D:\git\src\IBK\IBK_DRFN\ProjSrc\SrcChartEx\ChartAddIn\ChartDesignPropertyAddIn\Include_Chart\Dll_Load\IMetaTable.h

; 1038 : 	}

  0002d	8b 4d f4	 mov	 ecx, DWORD PTR __$EHRec$[ebp]
  00030	64 89 0d 00 00
	00 00		 mov	 DWORD PTR fs:0, ecx
  00037	59		 pop	 ecx
  00038	5e		 pop	 esi
  00039	8b e5		 mov	 esp, ebp
  0003b	5d		 pop	 ebp
  0003c	c3		 ret	 0
  0003d	cc		 int	 3
  0003e	cc		 int	 3
  0003f	cc		 int	 3
  00040	cc		 int	 3
  00041	cc		 int	 3
_TEXT	ENDS
;	COMDAT text$x
text$x	SEGMENT
__ehhandler$??1CMultiLanguageResourceSetter@@QAE@XZ:
  00000	90		 npad	 1
  00001	90		 npad	 1
  00002	8b 54 24 08	 mov	 edx, DWORD PTR [esp+8]
  00006	8d 42 0c	 lea	 eax, DWORD PTR [edx+12]
  00009	8b 4a f8	 mov	 ecx, DWORD PTR [edx-8]
  0000c	33 c8		 xor	 ecx, eax
  0000e	e8 00 00 00 00	 call	 @__security_check_cookie@4
  00013	b8 00 00 00 00	 mov	 eax, OFFSET __ehfuncinfo$??1CMultiLanguageResourceSetter@@QAE@XZ
  00018	e9 00 00 00 00	 jmp	 ___CxxFrameHandler3
text$x	ENDS
??1CMultiLanguageResourceSetter@@QAE@XZ ENDP		; CMultiLanguageResourceSetter::~CMultiLanguageResourceSetter
; Function compile flags: /Ogtp
; File D:\git\src\IBK\IBK_DRFN\ProjSrc\SrcChartEx\ChartAddIn\ChartDesignPropertyAddIn\ChartDesignPropertyAddIn\ColourPopup.cpp
; File C:\Program Files (x86)\Microsoft Visual Studio\2019\Community\VC\Tools\MSVC\14.29.30133\atlmfc\include\afxwin1.inl
; File D:\git\src\IBK\IBK_DRFN\ProjSrc\SrcChartEx\ChartAddIn\ChartDesignPropertyAddIn\ChartDesignPropertyAddIn\ColourPopup.cpp
; File C:\Program Files (x86)\Microsoft Visual Studio\2019\Community\VC\Tools\MSVC\14.29.30133\atlmfc\include\afx.inl
;	COMDAT ??_GCColourPopup@@UAEPAXI@Z
_TEXT	SEGMENT
__$EHRec$ = -12						; size = 12
___flags$ = 8						; size = 4
??_GCColourPopup@@UAEPAXI@Z PROC			; CColourPopup::`scalar deleting destructor', COMDAT
; _this$ = ecx
  00000	55		 push	 ebp
  00001	8b ec		 mov	 ebp, esp
  00003	6a ff		 push	 -1
  00005	68 00 00 00 00	 push	 __ehhandler$??_GCColourPopup@@UAEPAXI@Z
  0000a	64 a1 00 00 00
	00		 mov	 eax, DWORD PTR fs:0
  00010	50		 push	 eax
  00011	53		 push	 ebx
  00012	56		 push	 esi
  00013	57		 push	 edi
  00014	a1 00 00 00 00	 mov	 eax, DWORD PTR ___security_cookie
  00019	33 c5		 xor	 eax, ebp
  0001b	50		 push	 eax
  0001c	8d 45 f4	 lea	 eax, DWORD PTR __$EHRec$[ebp]
  0001f	64 a3 00 00 00
	00		 mov	 DWORD PTR fs:0, eax
  00025	8b d9		 mov	 ebx, ecx
; File D:\git\src\IBK\IBK_DRFN\ProjSrc\SrcChartEx\ChartAddIn\ChartDesignPropertyAddIn\ChartDesignPropertyAddIn\ColourPopup.cpp

; 145  :     m_Font.DeleteObject();

  00027	8d 8b d8 00 00
	00		 lea	 ecx, DWORD PTR [ebx+216]
  0002d	c7 45 fc 00 00
	00 00		 mov	 DWORD PTR __$EHRec$[ebp+8], 0
  00034	c7 03 00 00 00
	00		 mov	 DWORD PTR [ebx], OFFSET ??_7CColourPopup@@6B@
  0003a	e8 00 00 00 00	 call	 ?DeleteObject@CGdiObject@@QAEHXZ ; CGdiObject::DeleteObject

; 146  :     m_Palette.DeleteObject();

  0003f	8d 8b e0 00 00
	00		 lea	 ecx, DWORD PTR [ebx+224]
  00045	e8 00 00 00 00	 call	 ?DeleteObject@CGdiObject@@QAEHXZ ; CGdiObject::DeleteObject

; 147  : }

  0004a	8d 8b f0 00 00
	00		 lea	 ecx, DWORD PTR [ebx+240]
  00050	e8 00 00 00 00	 call	 ??1CToolTipCtrl@@UAE@XZ	; CToolTipCtrl::~CToolTipCtrl
; File C:\Program Files (x86)\Microsoft Visual Studio\2019\Community\VC\Tools\MSVC\14.29.30133\atlmfc\include\afxwin1.inl

; 232  : 	{ }

  00055	8d 8b e0 00 00
	00		 lea	 ecx, DWORD PTR [ebx+224]
  0005b	c7 83 e0 00 00
	00 00 00 00 00	 mov	 DWORD PTR [ebx+224], OFFSET ??_7CPalette@@6B@
  00065	e8 00 00 00 00	 call	 ??1CGdiObject@@UAE@XZ	; CGdiObject::~CGdiObject

; 155  : 	{ }

  0006a	8d 8b d8 00 00
	00		 lea	 ecx, DWORD PTR [ebx+216]
  00070	c7 83 d8 00 00
	00 00 00 00 00	 mov	 DWORD PTR [ebx+216], OFFSET ??_7CFont@@6B@
  0007a	e8 00 00 00 00	 call	 ??1CGdiObject@@UAE@XZ	; CGdiObject::~CGdiObject
; File D:\git\src\IBK\IBK_DRFN\ProjSrc\SrcChartEx\ChartAddIn\ChartDesignPropertyAddIn\ChartDesignPropertyAddIn\ColourPopup.cpp

; 147  : }

  0007f	8d 8b a4 00 00
	00		 lea	 ecx, DWORD PTR [ebx+164]
  00085	ff 15 00 00 00
	00		 call	 DWORD PTR __imp_??1?$CStringT@DV?$StrTraitMFC_DLL@DV?$ChTraitsCRT@D@ATL@@@@@ATL@@QAE@XZ
  0008b	8d 8b a0 00 00
	00		 lea	 ecx, DWORD PTR [ebx+160]
  00091	ff 15 00 00 00
	00		 call	 DWORD PTR __imp_??1?$CStringT@DV?$StrTraitMFC_DLL@DV?$ChTraitsCRT@D@ATL@@@@@ATL@@QAE@XZ
  00097	8d 8b 80 00 00
	00		 lea	 ecx, DWORD PTR [ebx+128]
  0009d	e8 00 00 00 00	 call	 ??1CColorTableMgr@@QAE@XZ ; CColorTableMgr::~CColorTableMgr
  000a2	8b cb		 mov	 ecx, ebx
  000a4	e8 00 00 00 00	 call	 ??1CWnd@@UAE@XZ		; CWnd::~CWnd
  000a9	8b 45 08	 mov	 eax, DWORD PTR ___flags$[ebp]
  000ac	a8 01		 test	 al, 1
  000ae	74 1d		 je	 SHORT $LN18@scalar
  000b0	a8 04		 test	 al, 4
  000b2	75 0b		 jne	 SHORT $LN3@scalar
; File C:\Program Files (x86)\Microsoft Visual Studio\2019\Community\VC\Tools\MSVC\14.29.30133\atlmfc\include\afx.inl

; 112  : 	{ ::operator delete(p); }

  000b4	53		 push	 ebx
  000b5	e8 00 00 00 00	 call	 ??3@YAXPAX@Z		; operator delete
  000ba	83 c4 04	 add	 esp, 4
  000bd	eb 0e		 jmp	 SHORT $LN18@scalar
$LN3@scalar:
  000bf	68 98 01 00 00	 push	 408			; 00000198H
  000c4	53		 push	 ebx
  000c5	e8 00 00 00 00	 call	 ?__global_delete@@YAXPAXI@Z ; __global_delete
  000ca	83 c4 08	 add	 esp, 8
$LN18@scalar:
  000cd	8b c3		 mov	 eax, ebx
  000cf	8b 4d f4	 mov	 ecx, DWORD PTR __$EHRec$[ebp]
  000d2	64 89 0d 00 00
	00 00		 mov	 DWORD PTR fs:0, ecx
  000d9	59		 pop	 ecx
  000da	5f		 pop	 edi
  000db	5e		 pop	 esi
  000dc	5b		 pop	 ebx
  000dd	8b e5		 mov	 esp, ebp
  000df	5d		 pop	 ebp
  000e0	c2 04 00	 ret	 4
  000e3	cc		 int	 3
  000e4	cc		 int	 3
  000e5	cc		 int	 3
  000e6	cc		 int	 3
  000e7	cc		 int	 3
_TEXT	ENDS
;	COMDAT text$x
text$x	SEGMENT
__ehhandler$??_GCColourPopup@@UAEPAXI@Z:
  00000	90		 npad	 1
  00001	90		 npad	 1
  00002	8b 54 24 08	 mov	 edx, DWORD PTR [esp+8]
  00006	8d 42 0c	 lea	 eax, DWORD PTR [edx+12]
  00009	8b 4a f0	 mov	 ecx, DWORD PTR [edx-16]
  0000c	33 c8		 xor	 ecx, eax
  0000e	e8 00 00 00 00	 call	 @__security_check_cookie@4
  00013	b8 00 00 00 00	 mov	 eax, OFFSET __ehfuncinfo$??_GCColourPopup@@UAEPAXI@Z
  00018	e9 00 00 00 00	 jmp	 ___CxxFrameHandler3
text$x	ENDS
??_GCColourPopup@@UAEPAXI@Z ENDP			; CColourPopup::`scalar deleting destructor'
; Function compile flags: /Ogtp
; File D:\git\src\IBK\IBK_DRFN\ProjSrc\SrcChartEx\ChartAddIn\ChartDesignPropertyAddIn\ChartDesignPropertyAddIn\ColourPopup.cpp
;	COMDAT ?GetMessageMap@CColourPopup@@MBEPBUAFX_MSGMAP@@XZ
_TEXT	SEGMENT
?GetMessageMap@CColourPopup@@MBEPBUAFX_MSGMAP@@XZ PROC	; CColourPopup::GetMessageMap, COMDAT
; _this$ = ecx

; 193  : BEGIN_MESSAGE_MAP(CColourPopup, CWnd)

  00000	b8 00 00 00 00	 mov	 eax, OFFSET ?messageMap@?1??GetThisMessageMap@CColourPopup@@KGPBUAFX_MSGMAP@@XZ@4U3@B
  00005	c3		 ret	 0
?GetMessageMap@CColourPopup@@MBEPBUAFX_MSGMAP@@XZ ENDP	; CColourPopup::GetMessageMap
_TEXT	ENDS
; Function compile flags: /Ogtp
; File D:\git\src\IBK\IBK_DRFN\ProjSrc\SrcChartEx\ChartAddIn\ChartDesignPropertyAddIn\ChartDesignPropertyAddIn\ColourPopup.cpp
;	COMDAT ?GetThisMessageMap@CColourPopup@@KGPBUAFX_MSGMAP@@XZ
_TEXT	SEGMENT
?GetThisMessageMap@CColourPopup@@KGPBUAFX_MSGMAP@@XZ PROC ; CColourPopup::GetThisMessageMap, COMDAT

; 194  :     //{{AFX_MSG_MAP(CColourPopup)
; 195  :     ON_WM_NCDESTROY()
; 196  :     ON_WM_LBUTTONUP()
; 197  :     ON_WM_PAINT()
; 198  :     ON_WM_MOUSEMOVE()
; 199  :     ON_WM_KEYDOWN()
; 200  :     ON_WM_QUERYNEWPALETTE()
; 201  :     ON_WM_PALETTECHANGED()
; 202  : 	ON_WM_KILLFOCUS()
; 203  : 	ON_WM_ACTIVATEAPP()
; 204  : 	//}}AFX_MSG_MAP
; 205  : END_MESSAGE_MAP()

  00000	b8 00 00 00 00	 mov	 eax, OFFSET ?messageMap@?1??GetThisMessageMap@CColourPopup@@KGPBUAFX_MSGMAP@@XZ@4U3@B
  00005	c3		 ret	 0
?GetThisMessageMap@CColourPopup@@KGPBUAFX_MSGMAP@@XZ ENDP ; CColourPopup::GetThisMessageMap
_TEXT	ENDS
; Function compile flags: /Ogtp
; File D:\git\src\IBK\IBK_DRFN\ProjSrc\SrcChartEx\ChartAddIn\ChartDesignPropertyAddIn\ChartDesignPropertyAddIn\ColourPopup.cpp
; File C:\Program Files (x86)\Microsoft Visual Studio\2019\Community\VC\Tools\MSVC\14.29.30133\atlmfc\include\afxwin2.inl
; File D:\git\src\IBK\IBK_DRFN\ProjSrc\SrcChartEx\ChartAddIn\ChartDesignPropertyAddIn\ChartDesignPropertyAddIn\ColourPopup.cpp
;	COMDAT ?OnActivateApp@CColourPopup@@IAEXHK@Z
_TEXT	SEGMENT
_bActive$ = 8						; size = 4
_hTask$ = 12						; size = 4
?OnActivateApp@CColourPopup@@IAEXHK@Z PROC		; CColourPopup::OnActivateApp, COMDAT
; _this$ = ecx
; File C:\Program Files (x86)\Microsoft Visual Studio\2019\Community\VC\Tools\MSVC\14.29.30133\atlmfc\include\afxwin2.inl

; 282  : 	{ Default(); }

  00000	e8 00 00 00 00	 call	 ?Default@CWnd@@IAEJXZ	; CWnd::Default
; File D:\git\src\IBK\IBK_DRFN\ProjSrc\SrcChartEx\ChartAddIn\ChartDesignPropertyAddIn\ChartDesignPropertyAddIn\ColourPopup.cpp

; 881  : }

  00005	c2 08 00	 ret	 8
?OnActivateApp@CColourPopup@@IAEXHK@Z ENDP		; CColourPopup::OnActivateApp
_TEXT	ENDS
; Function compile flags: /Ogtp
; File D:\git\src\IBK\IBK_DRFN\ProjSrc\SrcChartEx\ChartAddIn\ChartDesignPropertyAddIn\ChartDesignPropertyAddIn\ColourPopup.cpp
; File C:\Program Files (x86)\Microsoft Visual Studio\2019\Community\VC\Tools\MSVC\14.29.30133\atlmfc\include\afxwin2.inl
; File D:\git\src\IBK\IBK_DRFN\ProjSrc\SrcChartEx\ChartAddIn\ChartDesignPropertyAddIn\ChartDesignPropertyAddIn\ColourPopup.cpp
;	COMDAT ?OnKillFocus@CColourPopup@@IAEXPAVCWnd@@@Z
_TEXT	SEGMENT
_pNewWnd$ = 8						; size = 4
?OnKillFocus@CColourPopup@@IAEXPAVCWnd@@@Z PROC		; CColourPopup::OnKillFocus, COMDAT
; _this$ = ecx
; File C:\Program Files (x86)\Microsoft Visual Studio\2019\Community\VC\Tools\MSVC\14.29.30133\atlmfc\include\afxwin2.inl

; 308  : 	{ Default(); }

  00000	e8 00 00 00 00	 call	 ?Default@CWnd@@IAEJXZ	; CWnd::Default
; File D:\git\src\IBK\IBK_DRFN\ProjSrc\SrcChartEx\ChartAddIn\ChartDesignPropertyAddIn\ChartDesignPropertyAddIn\ColourPopup.cpp

; 869  :     ReleaseCapture();

  00005	ff 15 00 00 00
	00		 call	 DWORD PTR __imp__ReleaseCapture@0

; 870  :     //DestroyWindow(); - causes crash when Custom colour dialog appears.
; 871  : }

  0000b	c2 04 00	 ret	 4
?OnKillFocus@CColourPopup@@IAEXPAVCWnd@@@Z ENDP		; CColourPopup::OnKillFocus
_TEXT	ENDS
; Function compile flags: /Ogtp
; File D:\git\src\IBK\IBK_DRFN\ProjSrc\SrcChartEx\ChartAddIn\ChartDesignPropertyAddIn\ChartDesignPropertyAddIn\ColourPopup.cpp
; File C:\Program Files (x86)\Microsoft Visual Studio\2019\Community\VC\Tools\MSVC\14.29.30133\atlmfc\include\afxwin2.inl
; File D:\git\src\IBK\IBK_DRFN\ProjSrc\SrcChartEx\ChartAddIn\ChartDesignPropertyAddIn\ChartDesignPropertyAddIn\ColourPopup.cpp
; File C:\Program Files (x86)\Microsoft Visual Studio\2019\Community\VC\Tools\MSVC\14.29.30133\atlmfc\include\afxwin2.inl
; File D:\git\src\IBK\IBK_DRFN\ProjSrc\SrcChartEx\ChartAddIn\ChartDesignPropertyAddIn\ChartDesignPropertyAddIn\ColourPopup.cpp
;	COMDAT ?OnPaletteChanged@CColourPopup@@IAEXPAVCWnd@@@Z
_TEXT	SEGMENT
_pFocusWnd$ = 8						; size = 4
?OnPaletteChanged@CColourPopup@@IAEXPAVCWnd@@@Z PROC	; CColourPopup::OnPaletteChanged, COMDAT
; _this$ = ecx

; 858  : {

  00000	55		 push	 ebp
  00001	8b ec		 mov	 ebp, esp
  00003	56		 push	 esi
  00004	8b f1		 mov	 esi, ecx
; File C:\Program Files (x86)\Microsoft Visual Studio\2019\Community\VC\Tools\MSVC\14.29.30133\atlmfc\include\afxwin2.inl

; 402  : 	{ Default(); }

  00006	e8 00 00 00 00	 call	 ?Default@CWnd@@IAEJXZ	; CWnd::Default

; 25   : 	{ return this == NULL ? NULL : m_hWnd; }

  0000b	8b 45 08	 mov	 eax, DWORD PTR _pFocusWnd$[ebp]
  0000e	85 c0		 test	 eax, eax
  00010	74 03		 je	 SHORT $LN9@OnPaletteC
$LN8@OnPaletteC:
  00012	8b 40 20	 mov	 eax, DWORD PTR [eax+32]
$LN9@OnPaletteC:
  00015	85 f6		 test	 esi, esi
  00017	75 04		 jne	 SHORT $LN12@OnPaletteC
  00019	33 c9		 xor	 ecx, ecx
  0001b	eb 03		 jmp	 SHORT $LN13@OnPaletteC
$LN12@OnPaletteC:
  0001d	8b 4e 20	 mov	 ecx, DWORD PTR [esi+32]
$LN13@OnPaletteC:
; File D:\git\src\IBK\IBK_DRFN\ProjSrc\SrcChartEx\ChartAddIn\ChartDesignPropertyAddIn\ChartDesignPropertyAddIn\ColourPopup.cpp

; 861  :     if (pFocusWnd->GetSafeHwnd() != GetSafeHwnd())

  00020	3b c1		 cmp	 eax, ecx
  00022	74 0d		 je	 SHORT $LN2@OnPaletteC
; File C:\Program Files (x86)\Microsoft Visual Studio\2019\Community\VC\Tools\MSVC\14.29.30133\atlmfc\include\afxwin2.inl

; 114  : 	{ ASSERT(::IsWindow(m_hWnd)); ::InvalidateRect(m_hWnd, NULL, bErase); }

  00024	6a 01		 push	 1
  00026	6a 00		 push	 0
  00028	ff 76 20	 push	 DWORD PTR [esi+32]
  0002b	ff 15 00 00 00
	00		 call	 DWORD PTR __imp__InvalidateRect@12
$LN2@OnPaletteC:
  00031	5e		 pop	 esi
; File D:\git\src\IBK\IBK_DRFN\ProjSrc\SrcChartEx\ChartAddIn\ChartDesignPropertyAddIn\ChartDesignPropertyAddIn\ColourPopup.cpp

; 863  : }

  00032	5d		 pop	 ebp
  00033	c2 04 00	 ret	 4
?OnPaletteChanged@CColourPopup@@IAEXPAVCWnd@@@Z ENDP	; CColourPopup::OnPaletteChanged
_TEXT	ENDS
; Function compile flags: /Ogtp
; File D:\git\src\IBK\IBK_DRFN\ProjSrc\SrcChartEx\ChartAddIn\ChartDesignPropertyAddIn\ChartDesignPropertyAddIn\ColourPopup.cpp
; File C:\Program Files (x86)\Microsoft Visual Studio\2019\Community\VC\Tools\MSVC\14.29.30133\atlmfc\include\afxwin2.inl
; File D:\git\src\IBK\IBK_DRFN\ProjSrc\SrcChartEx\ChartAddIn\ChartDesignPropertyAddIn\ChartDesignPropertyAddIn\ColourPopup.cpp
; File C:\Program Files (x86)\Microsoft Visual Studio\2019\Community\VC\Tools\MSVC\14.29.30133\atlmfc\include\afxwin2.inl
; File D:\git\src\IBK\IBK_DRFN\ProjSrc\SrcChartEx\ChartAddIn\ChartDesignPropertyAddIn\ChartDesignPropertyAddIn\ColourPopup.cpp
;	COMDAT ?OnQueryNewPalette@CColourPopup@@IAEHXZ
_TEXT	SEGMENT
?OnQueryNewPalette@CColourPopup@@IAEHXZ PROC		; CColourPopup::OnQueryNewPalette, COMDAT
; _this$ = ecx

; 852  : {

  00000	56		 push	 esi
  00001	8b f1		 mov	 esi, ecx
; File C:\Program Files (x86)\Microsoft Visual Studio\2019\Community\VC\Tools\MSVC\14.29.30133\atlmfc\include\afxwin2.inl

; 114  : 	{ ASSERT(::IsWindow(m_hWnd)); ::InvalidateRect(m_hWnd, NULL, bErase); }

  00003	6a 01		 push	 1
  00005	6a 00		 push	 0
  00007	ff 76 20	 push	 DWORD PTR [esi+32]
  0000a	ff 15 00 00 00
	00		 call	 DWORD PTR __imp__InvalidateRect@12

; 322  : 	{ return (BOOL)Default(); }

  00010	8b ce		 mov	 ecx, esi
; File D:\git\src\IBK\IBK_DRFN\ProjSrc\SrcChartEx\ChartAddIn\ChartDesignPropertyAddIn\ChartDesignPropertyAddIn\ColourPopup.cpp

; 854  :     return CWnd::OnQueryNewPalette();

  00012	5e		 pop	 esi
; File C:\Program Files (x86)\Microsoft Visual Studio\2019\Community\VC\Tools\MSVC\14.29.30133\atlmfc\include\afxwin2.inl

; 322  : 	{ return (BOOL)Default(); }

  00013	e9 00 00 00 00	 jmp	 ?Default@CWnd@@IAEJXZ	; CWnd::Default
?OnQueryNewPalette@CColourPopup@@IAEHXZ ENDP		; CColourPopup::OnQueryNewPalette
_TEXT	ENDS
; Function compile flags: /Ogtp
; File D:\git\src\IBK\IBK_DRFN\ProjSrc\SrcChartEx\ChartAddIn\ChartDesignPropertyAddIn\ChartDesignPropertyAddIn\ColourPopup.cpp
; File C:\Program Files (x86)\Microsoft Visual Studio\2019\Community\VC\Tools\MSVC\14.29.30133\atlmfc\include\atlsimpstr.h
; File D:\git\src\IBK\IBK_DRFN\ProjSrc\SrcChartEx\ChartAddIn\ChartDesignPropertyAddIn\ChartDesignPropertyAddIn\ColourPopup.cpp
; File C:\Program Files (x86)\Microsoft Visual Studio\2019\Community\VC\Tools\MSVC\14.29.30133\atlmfc\include\atlsimpstr.h
; File D:\git\src\IBK\IBK_DRFN\ProjSrc\SrcChartEx\ChartAddIn\ChartDesignPropertyAddIn\ChartDesignPropertyAddIn\ColourPopup.cpp
; File C:\Program Files (x86)\Microsoft Visual Studio\2019\Community\VC\Tools\MSVC\14.29.30133\atlmfc\include\afxwin2.inl
; File D:\git\src\IBK\IBK_DRFN\ProjSrc\SrcChartEx\ChartAddIn\ChartDesignPropertyAddIn\ChartDesignPropertyAddIn\ColourPopup.cpp
; File C:\Program Files (x86)\Microsoft Visual Studio\2019\Community\VC\Tools\MSVC\14.29.30133\atlmfc\include\atlsimpstr.h
; File D:\git\src\IBK\IBK_DRFN\ProjSrc\SrcChartEx\ChartAddIn\ChartDesignPropertyAddIn\ChartDesignPropertyAddIn\ColourPopup.cpp
; File C:\Program Files (x86)\Microsoft Visual Studio\2019\Community\VC\Tools\MSVC\14.29.30133\atlmfc\include\afxwin2.inl
; File D:\git\src\IBK\IBK_DRFN\ProjSrc\SrcChartEx\ChartAddIn\ChartDesignPropertyAddIn\ChartDesignPropertyAddIn\ColourPopup.cpp
; File C:\Program Files (x86)\Microsoft Visual Studio\2019\Community\VC\Tools\MSVC\14.29.30133\atlmfc\include\atlsimpstr.h
; File D:\git\src\IBK\IBK_DRFN\ProjSrc\SrcChartEx\ChartAddIn\ChartDesignPropertyAddIn\ChartDesignPropertyAddIn\ColourPopup.cpp
; File C:\Program Files (x86)\Microsoft Visual Studio\2019\Community\VC\Tools\MSVC\14.29.30133\atlmfc\include\afxwin2.inl
; File D:\git\src\IBK\IBK_DRFN\ProjSrc\SrcChartEx\ChartAddIn\ChartDesignPropertyAddIn\ChartDesignPropertyAddIn\ColourPopup.cpp
; File C:\Program Files (x86)\Microsoft Visual Studio\2019\Community\VC\Tools\MSVC\14.29.30133\atlmfc\include\afxwin2.inl
; File D:\git\src\IBK\IBK_DRFN\ProjSrc\SrcChartEx\ChartAddIn\ChartDesignPropertyAddIn\ChartDesignPropertyAddIn\ColourPopup.cpp
; File C:\Program Files (x86)\Microsoft Visual Studio\2019\Community\VC\Tools\MSVC\14.29.30133\atlmfc\include\afxwin2.inl
; File D:\git\src\IBK\IBK_DRFN\ProjSrc\SrcChartEx\ChartAddIn\ChartDesignPropertyAddIn\ChartDesignPropertyAddIn\ColourPopup.cpp
; File C:\Program Files (x86)\Microsoft Visual Studio\2019\Community\VC\Tools\MSVC\14.29.30133\atlmfc\include\afxwin2.inl
; File D:\git\src\IBK\IBK_DRFN\ProjSrc\SrcChartEx\ChartAddIn\ChartDesignPropertyAddIn\ChartDesignPropertyAddIn\ColourPopup.cpp
;	COMDAT ?OnKeyDown@CColourPopup@@IAEXIII@Z
_TEXT	SEGMENT
__$EHRec$ = -12						; size = 12
_nChar$ = 8						; size = 4
_nRepCnt$ = 12						; size = 4
_nFlags$ = 16						; size = 4
?OnKeyDown@CColourPopup@@IAEXIII@Z PROC			; CColourPopup::OnKeyDown, COMDAT
; _this$ = ecx

; 219  : {

  00000	55		 push	 ebp
  00001	8b ec		 mov	 ebp, esp
  00003	6a ff		 push	 -1
  00005	68 00 00 00 00	 push	 __ehhandler$?OnKeyDown@CColourPopup@@IAEXIII@Z
  0000a	64 a1 00 00 00
	00		 mov	 eax, DWORD PTR fs:0
  00010	50		 push	 eax
  00011	53		 push	 ebx
  00012	56		 push	 esi
  00013	57		 push	 edi
  00014	a1 00 00 00 00	 mov	 eax, DWORD PTR ___security_cookie
  00019	33 c5		 xor	 eax, ebp
  0001b	50		 push	 eax
  0001c	8d 45 f4	 lea	 eax, DWORD PTR __$EHRec$[ebp]
  0001f	64 a3 00 00 00
	00		 mov	 DWORD PTR fs:0, eax
  00025	8b d9		 mov	 ebx, ecx

; 220  :     int row = GetRow(m_nCurrentSel),

  00027	8b 8b 98 00 00
	00		 mov	 ecx, DWORD PTR [ebx+152]

; 471  :     if (nIndex == CUSTOM_BOX_VALUE && m_strCustomText.GetLength())

  0002d	83 f9 fe	 cmp	 ecx, -2			; fffffffeH
  00030	75 10		 jne	 SHORT $LN143@OnKeyDown
; File C:\Program Files (x86)\Microsoft Visual Studio\2019\Community\VC\Tools\MSVC\14.29.30133\atlmfc\include\atlsimpstr.h

; 519  : 		return( GetData()->nDataLength );

  00032	8b 83 a4 00 00
	00		 mov	 eax, DWORD PTR [ebx+164]
; File D:\git\src\IBK\IBK_DRFN\ProjSrc\SrcChartEx\ChartAddIn\ChartDesignPropertyAddIn\ChartDesignPropertyAddIn\ColourPopup.cpp

; 471  :     if (nIndex == CUSTOM_BOX_VALUE && m_strCustomText.GetLength())

  00038	83 78 f4 00	 cmp	 DWORD PTR [eax-12], 0
  0003c	74 32		 je	 SHORT $LN67@OnKeyDown

; 472  :         return CUSTOM_BOX_VALUE;

  0003e	8b f9		 mov	 edi, ecx
  00040	eb 31		 jmp	 SHORT $LN66@OnKeyDown
$LN143@OnKeyDown:

; 473  :     else if (nIndex == DEFAULT_BOX_VALUE && m_strDefaultText.GetLength())

  00042	83 f9 fd	 cmp	 ecx, -3			; fffffffdH
  00045	75 10		 jne	 SHORT $LN142@OnKeyDown
; File C:\Program Files (x86)\Microsoft Visual Studio\2019\Community\VC\Tools\MSVC\14.29.30133\atlmfc\include\atlsimpstr.h

; 519  : 		return( GetData()->nDataLength );

  00047	8b 83 a0 00 00
	00		 mov	 eax, DWORD PTR [ebx+160]
; File D:\git\src\IBK\IBK_DRFN\ProjSrc\SrcChartEx\ChartAddIn\ChartDesignPropertyAddIn\ChartDesignPropertyAddIn\ColourPopup.cpp

; 473  :     else if (nIndex == DEFAULT_BOX_VALUE && m_strDefaultText.GetLength())

  0004d	83 78 f4 00	 cmp	 DWORD PTR [eax-12], 0
  00051	74 1d		 je	 SHORT $LN67@OnKeyDown

; 474  :         return DEFAULT_BOX_VALUE;

  00053	8b f9		 mov	 edi, ecx
  00055	eb 1c		 jmp	 SHORT $LN66@OnKeyDown
$LN142@OnKeyDown:

; 475  :     else if (nIndex < 0 || nIndex >= m_nNumColours)

  00057	85 c9		 test	 ecx, ecx
  00059	78 15		 js	 SHORT $LN67@OnKeyDown
  0005b	3b 8b 84 00 00
	00		 cmp	 ecx, DWORD PTR [ebx+132]
  00061	7d 0d		 jge	 SHORT $LN67@OnKeyDown

; 477  :     else
; 478  :         return nIndex / m_nNumColumns; 

  00063	8b c1		 mov	 eax, ecx
  00065	99		 cdq
  00066	f7 bb 88 00 00
	00		 idiv	 DWORD PTR [ebx+136]
  0006c	8b f8		 mov	 edi, eax
  0006e	eb 03		 jmp	 SHORT $LN66@OnKeyDown
$LN67@OnKeyDown:

; 476  :         return INVALID_COLOUR;

  00070	83 cf ff	 or	 edi, -1
$LN66@OnKeyDown:

; 221  :         col = GetColumn(m_nCurrentSel);

  00073	51		 push	 ecx
  00074	8b cb		 mov	 ecx, ebx
  00076	e8 00 00 00 00	 call	 ?GetColumn@CColourPopup@@IBEHH@Z ; CColourPopup::GetColumn
  0007b	8b f0		 mov	 esi, eax

; 222  : 
; 223  :     if (nChar == VK_DOWN) 

  0007d	8b 45 08	 mov	 eax, DWORD PTR _nChar$[ebp]
  00080	83 f8 28	 cmp	 eax, 40			; 00000028H
  00083	0f 85 86 00 00
	00		 jne	 $LN2@OnKeyDown

; 224  :     {
; 225  :         if (row == DEFAULT_BOX_VALUE) 

  00089	83 ff fd	 cmp	 edi, -3			; fffffffdH
  0008c	74 51		 je	 SHORT $LN12@OnKeyDown

; 226  :             row = col = 0; 
; 227  :         else if (row == CUSTOM_BOX_VALUE)

  0008e	83 ff fe	 cmp	 edi, -2			; fffffffeH
  00091	75 14		 jne	 SHORT $LN5@OnKeyDown

; 228  :         {
; 229  :             if (m_strDefaultText.GetLength())
; 230  :                 row = col = DEFAULT_BOX_VALUE;
; 231  :             else
; 232  :                 row = col = 0;
; 233  :         }

  00093	8b 83 a0 00 00
	00		 mov	 eax, DWORD PTR [ebx+160]
  00099	8b 78 f4	 mov	 edi, DWORD PTR [eax-12]
  0009c	f7 df		 neg	 edi
  0009e	1b ff		 sbb	 edi, edi
  000a0	83 e7 fd	 and	 edi, -3			; fffffffdH
  000a3	8b f7		 mov	 esi, edi
  000a5	eb 3c		 jmp	 SHORT $LN13@OnKeyDown
$LN5@OnKeyDown:

; 234  :         else
; 235  :         {
; 236  :             row++;
; 237  :             if (GetIndex(row,col) < 0)

  000a7	56		 push	 esi
  000a8	47		 inc	 edi
  000a9	8b cb		 mov	 ecx, ebx
  000ab	57		 push	 edi
  000ac	e8 00 00 00 00	 call	 ?GetIndex@CColourPopup@@IBEHHH@Z ; CColourPopup::GetIndex
  000b1	85 c0		 test	 eax, eax
  000b3	79 2e		 jns	 SHORT $LN13@OnKeyDown
$LN156@OnKeyDown:
; File C:\Program Files (x86)\Microsoft Visual Studio\2019\Community\VC\Tools\MSVC\14.29.30133\atlmfc\include\afxwin2.inl

; 424  : 	{ Default(); }

  000b5	8b 83 a4 00 00
	00		 mov	 eax, DWORD PTR [ebx+164]
  000bb	83 78 f4 00	 cmp	 DWORD PTR [eax-12], 0
  000bf	74 09		 je	 SHORT $LN10@OnKeyDown
$LN155@OnKeyDown:
  000c1	be fe ff ff ff	 mov	 esi, -2			; fffffffeH
  000c6	8b fe		 mov	 edi, esi
  000c8	eb 19		 jmp	 SHORT $LN13@OnKeyDown
$LN10@OnKeyDown:
  000ca	8b 83 a0 00 00
	00		 mov	 eax, DWORD PTR [ebx+160]
  000d0	83 78 f4 00	 cmp	 DWORD PTR [eax-12], 0
  000d4	74 09		 je	 SHORT $LN12@OnKeyDown
$LN154@OnKeyDown:
  000d6	be fd ff ff ff	 mov	 esi, -3			; fffffffdH
  000db	8b fe		 mov	 edi, esi
  000dd	eb 04		 jmp	 SHORT $LN13@OnKeyDown
$LN12@OnKeyDown:
  000df	33 f6		 xor	 esi, esi
  000e1	33 ff		 xor	 edi, edi
$LN13@OnKeyDown:
  000e3	56		 push	 esi
  000e4	57		 push	 edi
  000e5	8b cb		 mov	 ecx, ebx
  000e7	e8 00 00 00 00	 call	 ?GetIndex@CColourPopup@@IBEHHH@Z ; CColourPopup::GetIndex
  000ec	50		 push	 eax
  000ed	8b cb		 mov	 ecx, ebx
  000ef	e8 00 00 00 00	 call	 ?ChangeSelection@CColourPopup@@IAEXH@Z ; CColourPopup::ChangeSelection
  000f4	8b cb		 mov	 ecx, ebx
  000f6	e8 00 00 00 00	 call	 ?Default@CWnd@@IAEJXZ	; CWnd::Default
; File D:\git\src\IBK\IBK_DRFN\ProjSrc\SrcChartEx\ChartAddIn\ChartDesignPropertyAddIn\ChartDesignPropertyAddIn\ColourPopup.cpp

; 365  : }

  000fb	8b 4d f4	 mov	 ecx, DWORD PTR __$EHRec$[ebp]
  000fe	64 89 0d 00 00
	00 00		 mov	 DWORD PTR fs:0, ecx
  00105	59		 pop	 ecx
  00106	5f		 pop	 edi
  00107	5e		 pop	 esi
  00108	5b		 pop	 ebx
  00109	8b e5		 mov	 esp, ebp
  0010b	5d		 pop	 ebp
  0010c	c2 0c 00	 ret	 12			; 0000000cH
$LN2@OnKeyDown:

; 238  :             {
; 239  :                 if (m_strCustomText.GetLength())
; 240  :                     row = col = CUSTOM_BOX_VALUE;
; 241  :                 else if (m_strDefaultText.GetLength())
; 242  :                     row = col = DEFAULT_BOX_VALUE;
; 243  :                 else
; 244  :                     row = col = 0;
; 245  :             }
; 246  :         }
; 247  :         ChangeSelection(GetIndex(row, col));
; 248  :     }
; 249  : 
; 250  :     if (nChar == VK_UP) 

  0010f	83 f8 26	 cmp	 eax, 38			; 00000026H
  00112	75 46		 jne	 SHORT $LN14@OnKeyDown

; 251  :     {
; 252  :         if (row == DEFAULT_BOX_VALUE)

  00114	83 ff fd	 cmp	 edi, -3			; fffffffdH
  00117	74 18		 je	 SHORT $LN23@OnKeyDown

; 253  :         {
; 254  :             if (m_strCustomText.GetLength())
; 255  :                 row = col = CUSTOM_BOX_VALUE;
; 256  :             else
; 257  :            { 
; 258  :                 row = GetRow(m_nNumColours-1); 
; 259  :                 col = GetColumn(m_nNumColours-1); 
; 260  :             }
; 261  :         }
; 262  :         else if (row == CUSTOM_BOX_VALUE)

  00119	83 ff fe	 cmp	 edi, -2			; fffffffeH
  0011c	74 1f		 je	 SHORT $LN25@OnKeyDown

; 263  :         { 
; 264  :             row = GetRow(m_nNumColours-1); 
; 265  :             col = GetColumn(m_nNumColours-1); 
; 266  :         }
; 267  :         else if (row > 0) row--;

  0011e	85 ff		 test	 edi, edi
  00120	7e 03		 jle	 SHORT $LN21@OnKeyDown
  00122	4f		 dec	 edi
  00123	eb be		 jmp	 SHORT $LN13@OnKeyDown
$LN21@OnKeyDown:
; File C:\Program Files (x86)\Microsoft Visual Studio\2019\Community\VC\Tools\MSVC\14.29.30133\atlmfc\include\atlsimpstr.h

; 519  : 		return( GetData()->nDataLength );

  00125	8b 83 a0 00 00
	00		 mov	 eax, DWORD PTR [ebx+160]
; File D:\git\src\IBK\IBK_DRFN\ProjSrc\SrcChartEx\ChartAddIn\ChartDesignPropertyAddIn\ChartDesignPropertyAddIn\ColourPopup.cpp

; 270  :             if (m_strDefaultText.GetLength())

  0012b	83 78 f4 00	 cmp	 DWORD PTR [eax-12], 0
  0012f	75 a5		 jne	 SHORT $LN154@OnKeyDown
$LN23@OnKeyDown:

; 271  :                 row = col = DEFAULT_BOX_VALUE;
; 272  :             else if (m_strCustomText.GetLength())
; 273  :                 row = col = CUSTOM_BOX_VALUE;
; 274  :             else
; 275  :             { 
; 276  :                 row = GetRow(m_nNumColours-1); 
; 277  :                 col = GetColumn(m_nNumColours-1); 
; 278  :             }
; 279  :         }
; 280  :         ChangeSelection(GetIndex(row, col));

  00131	8b 83 a4 00 00
	00		 mov	 eax, DWORD PTR [ebx+164]
  00137	83 78 f4 00	 cmp	 DWORD PTR [eax-12], 0
  0013b	75 84		 jne	 SHORT $LN155@OnKeyDown
$LN25@OnKeyDown:
; File C:\Program Files (x86)\Microsoft Visual Studio\2019\Community\VC\Tools\MSVC\14.29.30133\atlmfc\include\afxwin2.inl

; 424  : 	{ Default(); }

  0013d	8b b3 84 00 00
	00		 mov	 esi, DWORD PTR [ebx+132]
  00143	8b cb		 mov	 ecx, ebx
  00145	4e		 dec	 esi
  00146	56		 push	 esi
  00147	e8 00 00 00 00	 call	 ?GetRow@CColourPopup@@IBEHH@Z ; CColourPopup::GetRow
  0014c	56		 push	 esi
  0014d	8b cb		 mov	 ecx, ebx
  0014f	8b f8		 mov	 edi, eax
  00151	e8 00 00 00 00	 call	 ?GetColumn@CColourPopup@@IBEHH@Z ; CColourPopup::GetColumn
  00156	8b f0		 mov	 esi, eax
  00158	eb 89		 jmp	 SHORT $LN13@OnKeyDown
$LN14@OnKeyDown:
; File D:\git\src\IBK\IBK_DRFN\ProjSrc\SrcChartEx\ChartAddIn\ChartDesignPropertyAddIn\ChartDesignPropertyAddIn\ColourPopup.cpp

; 283  :     if (nChar == VK_RIGHT) 

  0015a	83 f8 27	 cmp	 eax, 39			; 00000027H
  0015d	75 4c		 jne	 SHORT $LN27@OnKeyDown

; 284  :     {
; 285  :         if (row == DEFAULT_BOX_VALUE) 

  0015f	83 ff fd	 cmp	 edi, -3			; fffffffdH
  00162	75 06		 jne	 SHORT $LN28@OnKeyDown

; 286  :             row = col = 0; 

  00164	33 f6		 xor	 esi, esi
  00166	33 ff		 xor	 edi, edi
  00168	eb 2a		 jmp	 SHORT $LN35@OnKeyDown
$LN28@OnKeyDown:

; 287  :         else if (row == CUSTOM_BOX_VALUE)

  0016a	83 ff fe	 cmp	 edi, -2			; fffffffeH
  0016d	75 14		 jne	 SHORT $LN30@OnKeyDown

; 288  :         {
; 289  :             if (m_strDefaultText.GetLength())
; 290  :                 row = col = DEFAULT_BOX_VALUE;
; 291  :             else
; 292  :                 row = col = 0;
; 293  :         }

  0016f	8b 83 a0 00 00
	00		 mov	 eax, DWORD PTR [ebx+160]
  00175	8b 78 f4	 mov	 edi, DWORD PTR [eax-12]
  00178	f7 df		 neg	 edi
  0017a	1b ff		 sbb	 edi, edi
  0017c	83 e7 fd	 and	 edi, -3			; fffffffdH
  0017f	8b f7		 mov	 esi, edi
  00181	eb 11		 jmp	 SHORT $LN35@OnKeyDown
$LN30@OnKeyDown:

; 294  :         else if (col < m_nNumColumns-1) 

  00183	8b 83 88 00 00
	00		 mov	 eax, DWORD PTR [ebx+136]
  00189	48		 dec	 eax
  0018a	3b f0		 cmp	 esi, eax
  0018c	7d 03		 jge	 SHORT $LN34@OnKeyDown

; 295  :             col++;

  0018e	46		 inc	 esi
  0018f	eb 03		 jmp	 SHORT $LN35@OnKeyDown
$LN34@OnKeyDown:

; 296  :         else 
; 297  :         { 
; 298  :             col = 0; row++;

  00191	33 f6		 xor	 esi, esi
  00193	47		 inc	 edi
$LN35@OnKeyDown:

; 299  :         }
; 300  : 
; 301  :         if (GetIndex(row,col) == INVALID_COLOUR)

  00194	56		 push	 esi
  00195	57		 push	 edi
  00196	8b cb		 mov	 ecx, ebx
  00198	e8 00 00 00 00	 call	 ?GetIndex@CColourPopup@@IBEHHH@Z ; CColourPopup::GetIndex
  0019d	83 f8 ff	 cmp	 eax, -1
  001a0	0f 85 3d ff ff
	ff		 jne	 $LN13@OnKeyDown

; 302  :         {
; 303  :             if (m_strCustomText.GetLength())
; 304  :                 row = col = CUSTOM_BOX_VALUE;

  001a6	e9 0a ff ff ff	 jmp	 $LN156@OnKeyDown
$LN27@OnKeyDown:

; 305  :             else if (m_strDefaultText.GetLength())
; 306  :                 row = col = DEFAULT_BOX_VALUE;
; 307  :             else
; 308  :                 row = col = 0;
; 309  :         }
; 310  : 
; 311  :         ChangeSelection(GetIndex(row, col));
; 312  :     }
; 313  : 
; 314  :     if (nChar == VK_LEFT) 

  001ab	83 f8 25	 cmp	 eax, 37			; 00000025H
  001ae	75 4b		 jne	 SHORT $LN41@OnKeyDown

; 315  :     {
; 316  :         if (row == DEFAULT_BOX_VALUE)

  001b0	83 ff fd	 cmp	 edi, -3			; fffffffdH
  001b3	74 2a		 je	 SHORT $LN52@OnKeyDown

; 317  :         {
; 318  :             if (m_strCustomText.GetLength())
; 319  :                 row = col = CUSTOM_BOX_VALUE;
; 320  :             else
; 321  :            { 
; 322  :                 row = GetRow(m_nNumColours-1); 
; 323  :                 col = GetColumn(m_nNumColours-1); 
; 324  :             }
; 325  :         }
; 326  :         else if (row == CUSTOM_BOX_VALUE)

  001b5	83 ff fe	 cmp	 edi, -2			; fffffffeH
  001b8	74 83		 je	 SHORT $LN25@OnKeyDown

; 327  :         { 
; 328  :             row = GetRow(m_nNumColours-1); 
; 329  :             col = GetColumn(m_nNumColours-1); 
; 330  :         }
; 331  :         else if (col > 0) col--;

  001ba	85 f6		 test	 esi, esi
  001bc	7f 0b		 jg	 SHORT $LN153@OnKeyDown

; 332  :         else /* col == 0 */
; 333  :         {
; 334  :             if (row > 0) { row--; col = m_nNumColumns-1; }

  001be	85 ff		 test	 edi, edi
  001c0	7e 0d		 jle	 SHORT $LN50@OnKeyDown
  001c2	8b b3 88 00 00
	00		 mov	 esi, DWORD PTR [ebx+136]
  001c8	4f		 dec	 edi
$LN153@OnKeyDown:

; 338  :                     row = col = DEFAULT_BOX_VALUE;
; 339  :                 else if (m_strCustomText.GetLength())
; 340  :                     row = col = CUSTOM_BOX_VALUE;
; 341  :                 else
; 342  :                 { 
; 343  :                     row = GetRow(m_nNumColours-1); 
; 344  :                     col = GetColumn(m_nNumColours-1); 
; 345  :                 }
; 346  :             }
; 347  :         }
; 348  :         ChangeSelection(GetIndex(row, col));

  001c9	4e		 dec	 esi
  001ca	e9 14 ff ff ff	 jmp	 $LN13@OnKeyDown
$LN50@OnKeyDown:
; File C:\Program Files (x86)\Microsoft Visual Studio\2019\Community\VC\Tools\MSVC\14.29.30133\atlmfc\include\atlsimpstr.h

; 519  : 		return( GetData()->nDataLength );

  001cf	8b 83 a0 00 00
	00		 mov	 eax, DWORD PTR [ebx+160]
; File D:\git\src\IBK\IBK_DRFN\ProjSrc\SrcChartEx\ChartAddIn\ChartDesignPropertyAddIn\ChartDesignPropertyAddIn\ColourPopup.cpp

; 337  :                 if (m_strDefaultText.GetLength())

  001d5	83 78 f4 00	 cmp	 DWORD PTR [eax-12], 0
  001d9	0f 85 f7 fe ff
	ff		 jne	 $LN154@OnKeyDown
$LN52@OnKeyDown:

; 338  :                     row = col = DEFAULT_BOX_VALUE;
; 339  :                 else if (m_strCustomText.GetLength())
; 340  :                     row = col = CUSTOM_BOX_VALUE;
; 341  :                 else
; 342  :                 { 
; 343  :                     row = GetRow(m_nNumColours-1); 
; 344  :                     col = GetColumn(m_nNumColours-1); 
; 345  :                 }
; 346  :             }
; 347  :         }
; 348  :         ChangeSelection(GetIndex(row, col));

  001df	8b 83 a4 00 00
	00		 mov	 eax, DWORD PTR [ebx+164]
  001e5	83 78 f4 00	 cmp	 DWORD PTR [eax-12], 0
  001e9	0f 84 4e ff ff
	ff		 je	 $LN25@OnKeyDown
; File C:\Program Files (x86)\Microsoft Visual Studio\2019\Community\VC\Tools\MSVC\14.29.30133\atlmfc\include\afxwin2.inl

; 424  : 	{ Default(); }

  001ef	be fe ff ff ff	 mov	 esi, -2			; fffffffeH
  001f4	8b fe		 mov	 edi, esi
  001f6	e9 e8 fe ff ff	 jmp	 $LN13@OnKeyDown
$LN41@OnKeyDown:
; File D:\git\src\IBK\IBK_DRFN\ProjSrc\SrcChartEx\ChartAddIn\ChartDesignPropertyAddIn\ChartDesignPropertyAddIn\ColourPopup.cpp

; 351  :     if (nChar == VK_ESCAPE) 

  001fb	83 f8 1b	 cmp	 eax, 27			; 0000001bH
  001fe	75 50		 jne	 SHORT $LN56@OnKeyDown

; 352  :     {
; 353  :         m_crColour = m_crInitialColour;

  00200	8b 83 e8 00 00
	00		 mov	 eax, DWORD PTR [ebx+232]
  00206	89 83 ec 00 00
	00		 mov	 DWORD PTR [ebx+236], eax

; 699  :     ReleaseCapture();

  0020c	ff 15 00 00 00
	00		 call	 DWORD PTR __imp__ReleaseCapture@0

; 717  :         m_crColour = m_crInitialColour;

  00212	8b 83 e8 00 00
	00		 mov	 eax, DWORD PTR [ebx+232]
; File C:\Program Files (x86)\Microsoft Visual Studio\2019\Community\VC\Tools\MSVC\14.29.30133\atlmfc\include\afxwin2.inl

; 32   : 	{ ASSERT(::IsWindow(m_hWnd)); return ::SendMessage(m_hWnd, message, wParam, lParam); }

  00218	6a 00		 push	 0
  0021a	50		 push	 eax
; File D:\git\src\IBK\IBK_DRFN\ProjSrc\SrcChartEx\ChartAddIn\ChartDesignPropertyAddIn\ChartDesignPropertyAddIn\ColourPopup.cpp

; 717  :         m_crColour = m_crInitialColour;

  0021b	89 83 ec 00 00
	00		 mov	 DWORD PTR [ebx+236], eax
; File C:\Program Files (x86)\Microsoft Visual Studio\2019\Community\VC\Tools\MSVC\14.29.30133\atlmfc\include\afxwin2.inl

; 32   : 	{ ASSERT(::IsWindow(m_hWnd)); return ::SendMessage(m_hWnd, message, wParam, lParam); }

  00221	8b 83 90 01 00
	00		 mov	 eax, DWORD PTR [ebx+400]
  00227	68 ed 07 00 00	 push	 2029			; 000007edH
  0022c	ff 70 20	 push	 DWORD PTR [eax+32]
  0022f	ff 15 00 00 00
	00		 call	 DWORD PTR __imp__SendMessageA@16
; File D:\git\src\IBK\IBK_DRFN\ProjSrc\SrcChartEx\ChartAddIn\ChartDesignPropertyAddIn\ChartDesignPropertyAddIn\ColourPopup.cpp

; 721  :     DestroyWindow();

  00235	8b 03		 mov	 eax, DWORD PTR [ebx]
  00237	8b cb		 mov	 ecx, ebx
  00239	ff 50 68	 call	 DWORD PTR [eax+104]

; 365  : }

  0023c	8b 4d f4	 mov	 ecx, DWORD PTR __$EHRec$[ebp]
  0023f	64 89 0d 00 00
	00 00		 mov	 DWORD PTR fs:0, ecx
  00246	59		 pop	 ecx
  00247	5f		 pop	 edi
  00248	5e		 pop	 esi
  00249	5b		 pop	 ebx
  0024a	8b e5		 mov	 esp, ebp
  0024c	5d		 pop	 ebp
  0024d	c2 0c 00	 ret	 12			; 0000000cH
$LN56@OnKeyDown:

; 354  :         EndSelection(CPN_SELENDCANCEL);
; 355  :         return;
; 356  :     }
; 357  : 
; 358  :     if (nChar == VK_RETURN || nChar == VK_SPACE)

  00250	83 f8 0d	 cmp	 eax, 13			; 0000000dH
  00253	74 20		 je	 SHORT $LN58@OnKeyDown
  00255	83 f8 20	 cmp	 eax, 32			; 00000020H
  00258	74 1b		 je	 SHORT $LN58@OnKeyDown
; File C:\Program Files (x86)\Microsoft Visual Studio\2019\Community\VC\Tools\MSVC\14.29.30133\atlmfc\include\afxwin2.inl

; 424  : 	{ Default(); }

  0025a	8b cb		 mov	 ecx, ebx
  0025c	e8 00 00 00 00	 call	 ?Default@CWnd@@IAEJXZ	; CWnd::Default
; File D:\git\src\IBK\IBK_DRFN\ProjSrc\SrcChartEx\ChartAddIn\ChartDesignPropertyAddIn\ChartDesignPropertyAddIn\ColourPopup.cpp

; 365  : }

  00261	8b 4d f4	 mov	 ecx, DWORD PTR __$EHRec$[ebp]
  00264	64 89 0d 00 00
	00 00		 mov	 DWORD PTR fs:0, ecx
  0026b	59		 pop	 ecx
  0026c	5f		 pop	 edi
  0026d	5e		 pop	 esi
  0026e	5b		 pop	 ebx
  0026f	8b e5		 mov	 esp, ebp
  00271	5d		 pop	 ebp
  00272	c2 0c 00	 ret	 12			; 0000000cH
$LN58@OnKeyDown:

; 359  :     {
; 360  :         EndSelection(CPN_SELENDOK);

  00275	68 ec 07 00 00	 push	 2028			; 000007ecH
  0027a	8b cb		 mov	 ecx, ebx
  0027c	e8 00 00 00 00	 call	 ?EndSelection@CColourPopup@@IAEXH@Z ; CColourPopup::EndSelection

; 365  : }

  00281	8b 4d f4	 mov	 ecx, DWORD PTR __$EHRec$[ebp]
  00284	64 89 0d 00 00
	00 00		 mov	 DWORD PTR fs:0, ecx
  0028b	59		 pop	 ecx
  0028c	5f		 pop	 edi
  0028d	5e		 pop	 esi
  0028e	5b		 pop	 ebx
  0028f	8b e5		 mov	 esp, ebp
  00291	5d		 pop	 ebp
  00292	c2 0c 00	 ret	 12			; 0000000cH
  00295	cc		 int	 3
  00296	cc		 int	 3
  00297	cc		 int	 3
  00298	cc		 int	 3
  00299	cc		 int	 3
_TEXT	ENDS
;	COMDAT text$x
text$x	SEGMENT
__ehhandler$?OnKeyDown@CColourPopup@@IAEXIII@Z:
  00000	90		 npad	 1
  00001	90		 npad	 1
  00002	8b 54 24 08	 mov	 edx, DWORD PTR [esp+8]
  00006	8d 42 0c	 lea	 eax, DWORD PTR [edx+12]
  00009	8b 4a f0	 mov	 ecx, DWORD PTR [edx-16]
  0000c	33 c8		 xor	 ecx, eax
  0000e	e8 00 00 00 00	 call	 @__security_check_cookie@4
  00013	b8 00 00 00 00	 mov	 eax, OFFSET __ehfuncinfo$?OnKeyDown@CColourPopup@@IAEXIII@Z
  00018	e9 00 00 00 00	 jmp	 ___CxxFrameHandler3
text$x	ENDS
?OnKeyDown@CColourPopup@@IAEXIII@Z ENDP			; CColourPopup::OnKeyDown
; Function compile flags: /Ogtp
; File D:\git\src\IBK\IBK_DRFN\ProjSrc\SrcChartEx\ChartAddIn\ChartDesignPropertyAddIn\ChartDesignPropertyAddIn\ColourPopup.cpp
; File C:\Program Files (x86)\Microsoft Visual Studio\2019\Community\VC\Tools\MSVC\14.29.30133\atlmfc\include\atltypes.h
; File D:\git\src\IBK\IBK_DRFN\ProjSrc\SrcChartEx\ChartAddIn\ChartDesignPropertyAddIn\ChartDesignPropertyAddIn\ColourPopup.cpp
; File C:\Program Files (x86)\Microsoft Visual Studio\2019\Community\VC\Tools\MSVC\14.29.30133\atlmfc\include\atltypes.h
; File D:\git\src\IBK\IBK_DRFN\ProjSrc\SrcChartEx\ChartAddIn\ChartDesignPropertyAddIn\ChartDesignPropertyAddIn\ColourPopup.cpp
; File C:\Program Files (x86)\Microsoft Visual Studio\2019\Community\VC\Tools\MSVC\14.29.30133\atlmfc\include\atltypes.h
; File D:\git\src\IBK\IBK_DRFN\ProjSrc\SrcChartEx\ChartAddIn\ChartDesignPropertyAddIn\ChartDesignPropertyAddIn\ColourPopup.cpp
; File C:\Program Files (x86)\Microsoft Visual Studio\2019\Community\VC\Tools\MSVC\14.29.30133\atlmfc\include\atltypes.h
; File D:\git\src\IBK\IBK_DRFN\ProjSrc\SrcChartEx\ChartAddIn\ChartDesignPropertyAddIn\ChartDesignPropertyAddIn\ColourPopup.cpp
;	COMDAT ?OnMouseMove@CColourPopup@@IAEXIVCPoint@@@Z
_TEXT	SEGMENT
_nFlags$ = 8						; size = 4
_point$ = 12						; size = 8
?OnMouseMove@CColourPopup@@IAEXIVCPoint@@@Z PROC	; CColourPopup::OnMouseMove, COMDAT
; _this$ = ecx

; 398  : {

  00000	55		 push	 ebp
  00001	8b ec		 mov	 ebp, esp

; 399  :     int nNewSelection = INVALID_COLOUR;
; 400  : 
; 401  :     // Translate points to be relative raised window edge
; 402  :     point.x -= m_nMargin;

  00003	8b 55 0c	 mov	 edx, DWORD PTR _point$[ebp]
  00006	56		 push	 esi
  00007	8b f1		 mov	 esi, ecx
  00009	57		 push	 edi

; 403  :     point.y -= m_nMargin;

  0000a	8b 7d 10	 mov	 edi, DWORD PTR _point$[ebp+4]
  0000d	8b 86 94 00 00
	00		 mov	 eax, DWORD PTR [esi+148]
  00013	2b d0		 sub	 edx, eax
  00015	2b f8		 sub	 edi, eax
  00017	89 55 0c	 mov	 DWORD PTR _point$[ebp], edx

; 406  :     if (m_strCustomText.GetLength() && m_CustomTextRect.PtInRect(point))

  0001a	8b 86 a4 00 00
	00		 mov	 eax, DWORD PTR [esi+164]
  00020	89 7d 10	 mov	 DWORD PTR _point$[ebp+4], edi
  00023	83 78 f4 00	 cmp	 DWORD PTR [eax-12], 0
  00027	74 20		 je	 SHORT $LN2@OnMouseMov
; File C:\Program Files (x86)\Microsoft Visual Studio\2019\Community\VC\Tools\MSVC\14.29.30133\atlmfc\include\atltypes.h

; 648  : 	return ::PtInRect(this, point);

  00029	57		 push	 edi
  0002a	52		 push	 edx
; File D:\git\src\IBK\IBK_DRFN\ProjSrc\SrcChartEx\ChartAddIn\ChartDesignPropertyAddIn\ChartDesignPropertyAddIn\ColourPopup.cpp

; 406  :     if (m_strCustomText.GetLength() && m_CustomTextRect.PtInRect(point))

  0002b	8d 86 a8 00 00
	00		 lea	 eax, DWORD PTR [esi+168]
; File C:\Program Files (x86)\Microsoft Visual Studio\2019\Community\VC\Tools\MSVC\14.29.30133\atlmfc\include\atltypes.h

; 648  : 	return ::PtInRect(this, point);

  00031	50		 push	 eax
  00032	ff 15 00 00 00
	00		 call	 DWORD PTR __imp__PtInRect@12
; File D:\git\src\IBK\IBK_DRFN\ProjSrc\SrcChartEx\ChartAddIn\ChartDesignPropertyAddIn\ChartDesignPropertyAddIn\ColourPopup.cpp

; 406  :     if (m_strCustomText.GetLength() && m_CustomTextRect.PtInRect(point))

  00038	85 c0		 test	 eax, eax
  0003a	74 07		 je	 SHORT $LN35@OnMouseMov

; 407  :         nNewSelection = CUSTOM_BOX_VALUE;

  0003c	b8 fe ff ff ff	 mov	 eax, -2			; fffffffeH
  00041	eb 74		 jmp	 SHORT $LN7@OnMouseMov
$LN35@OnMouseMov:

; 406  :     if (m_strCustomText.GetLength() && m_CustomTextRect.PtInRect(point))

  00043	8b 7d 10	 mov	 edi, DWORD PTR _point$[ebp+4]
  00046	8b 55 0c	 mov	 edx, DWORD PTR _point$[ebp]
$LN2@OnMouseMov:

; 408  :     else if (m_strDefaultText.GetLength() && m_DefaultTextRect.PtInRect(point))

  00049	8b 86 a0 00 00
	00		 mov	 eax, DWORD PTR [esi+160]
  0004f	83 78 f4 00	 cmp	 DWORD PTR [eax-12], 0
  00053	74 20		 je	 SHORT $LN34@OnMouseMov
; File C:\Program Files (x86)\Microsoft Visual Studio\2019\Community\VC\Tools\MSVC\14.29.30133\atlmfc\include\atltypes.h

; 648  : 	return ::PtInRect(this, point);

  00055	57		 push	 edi
  00056	52		 push	 edx
; File D:\git\src\IBK\IBK_DRFN\ProjSrc\SrcChartEx\ChartAddIn\ChartDesignPropertyAddIn\ChartDesignPropertyAddIn\ColourPopup.cpp

; 408  :     else if (m_strDefaultText.GetLength() && m_DefaultTextRect.PtInRect(point))

  00057	8d 86 b8 00 00
	00		 lea	 eax, DWORD PTR [esi+184]
; File C:\Program Files (x86)\Microsoft Visual Studio\2019\Community\VC\Tools\MSVC\14.29.30133\atlmfc\include\atltypes.h

; 648  : 	return ::PtInRect(this, point);

  0005d	50		 push	 eax
  0005e	ff 15 00 00 00
	00		 call	 DWORD PTR __imp__PtInRect@12
; File D:\git\src\IBK\IBK_DRFN\ProjSrc\SrcChartEx\ChartAddIn\ChartDesignPropertyAddIn\ChartDesignPropertyAddIn\ColourPopup.cpp

; 408  :     else if (m_strDefaultText.GetLength() && m_DefaultTextRect.PtInRect(point))

  00064	85 c0		 test	 eax, eax
  00066	74 07		 je	 SHORT $LN36@OnMouseMov

; 409  :         nNewSelection = DEFAULT_BOX_VALUE;

  00068	b8 fd ff ff ff	 mov	 eax, -3			; fffffffdH
  0006d	eb 48		 jmp	 SHORT $LN7@OnMouseMov
$LN36@OnMouseMov:

; 408  :     else if (m_strDefaultText.GetLength() && m_DefaultTextRect.PtInRect(point))

  0006f	8b 7d 10	 mov	 edi, DWORD PTR _point$[ebp+4]
  00072	8b 55 0c	 mov	 edx, DWORD PTR _point$[ebp]
$LN34@OnMouseMov:

; 410  :     else
; 411  :     {
; 412  :         // Take into account text box
; 413  :         if (m_strDefaultText.GetLength()) 

  00075	8b 86 a0 00 00
	00		 mov	 eax, DWORD PTR [esi+160]
  0007b	83 78 f4 00	 cmp	 DWORD PTR [eax-12], 0
  0007f	74 11		 je	 SHORT $LN6@OnMouseMov

; 414  :             point.y -= m_DefaultTextRect.Height();  

  00081	8b 8e bc 00 00
	00		 mov	 ecx, DWORD PTR [esi+188]
  00087	2b 8e c4 00 00
	00		 sub	 ecx, DWORD PTR [esi+196]
  0008d	03 f9		 add	 edi, ecx
  0008f	89 7d 10	 mov	 DWORD PTR _point$[ebp+4], edi
$LN6@OnMouseMov:

; 415  : 
; 416  :         // Get the row and column
; 417  :         nNewSelection = GetIndex(point.y / m_nBoxSize, point.x / m_nBoxSize);

  00092	8b 8e 90 00 00
	00		 mov	 ecx, DWORD PTR [esi+144]
  00098	8b c2		 mov	 eax, edx
  0009a	99		 cdq
  0009b	f7 f9		 idiv	 ecx
  0009d	50		 push	 eax
  0009e	8b c7		 mov	 eax, edi
  000a0	99		 cdq
  000a1	f7 f9		 idiv	 ecx
  000a3	8b ce		 mov	 ecx, esi
  000a5	50		 push	 eax
  000a6	e8 00 00 00 00	 call	 ?GetIndex@CColourPopup@@IBEHHH@Z ; CColourPopup::GetIndex

; 418  : 
; 419  :         // In range? If not, default and exit
; 420  :         if (nNewSelection < 0 || nNewSelection >= m_nNumColours)

  000ab	85 c0		 test	 eax, eax
  000ad	78 18		 js	 SHORT $LN9@OnMouseMov
  000af	3b 86 84 00 00
	00		 cmp	 eax, DWORD PTR [esi+132]
  000b5	7d 10		 jge	 SHORT $LN9@OnMouseMov
$LN7@OnMouseMov:

; 421  :         {
; 422  :             CWnd::OnMouseMove(nFlags, point);
; 423  :             return;
; 424  :         }
; 425  :     }
; 426  : 
; 427  :     // OK - we have the row and column of the current selection (may be CUSTOM_BOX_VALUE)
; 428  :     // Has the row/col selection changed? If yes, then redraw old and new cells.
; 429  :     if (nNewSelection != m_nCurrentSel)

  000b7	3b 86 98 00 00
	00		 cmp	 eax, DWORD PTR [esi+152]
  000bd	74 08		 je	 SHORT $LN9@OnMouseMov

; 430  :         ChangeSelection(nNewSelection);

  000bf	50		 push	 eax
  000c0	8b ce		 mov	 ecx, esi
  000c2	e8 00 00 00 00	 call	 ?ChangeSelection@CColourPopup@@IAEXH@Z ; CColourPopup::ChangeSelection
$LN9@OnMouseMov:

; 431  : 
; 432  :     CWnd::OnMouseMove(nFlags, point);
; 433  : }

  000c7	8b ce		 mov	 ecx, esi
  000c9	e8 00 00 00 00	 call	 ?Default@CWnd@@IAEJXZ	; CWnd::Default
  000ce	5f		 pop	 edi
  000cf	5e		 pop	 esi
  000d0	5d		 pop	 ebp
  000d1	c2 0c 00	 ret	 12			; 0000000cH
?OnMouseMove@CColourPopup@@IAEXIVCPoint@@@Z ENDP	; CColourPopup::OnMouseMove
_TEXT	ENDS
; Function compile flags: /Ogtp
; File D:\git\src\IBK\IBK_DRFN\ProjSrc\SrcChartEx\ChartAddIn\ChartDesignPropertyAddIn\ChartDesignPropertyAddIn\ColourPopup.cpp
; File C:\Program Files (x86)\Microsoft Visual Studio\2019\Community\VC\Tools\MSVC\14.29.30133\atlmfc\include\afxwin2.inl
; File C:\Program Files (x86)\Microsoft Visual Studio\2019\Community\VC\Tools\MSVC\14.29.30133\atlmfc\include\atltypes.h
; File C:\Program Files (x86)\Microsoft Visual Studio\2019\Community\VC\Tools\MSVC\14.29.30133\atlmfc\include\afxwin2.inl
; File C:\Program Files (x86)\Microsoft Visual Studio\2019\Community\VC\Tools\MSVC\14.29.30133\atlmfc\include\afxwin1.inl
; File D:\git\src\IBK\IBK_DRFN\ProjSrc\SrcChartEx\ChartAddIn\ChartDesignPropertyAddIn\ChartDesignPropertyAddIn\ColourPopup.cpp
;	COMDAT ?OnPaint@CColourPopup@@IAEXXZ
_TEXT	SEGMENT
_dc$ = -116						; size = 84
_rect$ = -32						; size = 16
__$ArrayPad$ = -16					; size = 4
__$EHRec$ = -12						; size = 12
?OnPaint@CColourPopup@@IAEXXZ PROC			; CColourPopup::OnPaint, COMDAT
; _this$ = ecx

; 375  : {

  00000	55		 push	 ebp
  00001	8b ec		 mov	 ebp, esp
  00003	6a ff		 push	 -1
  00005	68 00 00 00 00	 push	 __ehhandler$?OnPaint@CColourPopup@@IAEXXZ
  0000a	64 a1 00 00 00
	00		 mov	 eax, DWORD PTR fs:0
  00010	50		 push	 eax
  00011	83 ec 68	 sub	 esp, 104		; 00000068H
  00014	a1 00 00 00 00	 mov	 eax, DWORD PTR ___security_cookie
  00019	33 c5		 xor	 eax, ebp
  0001b	89 45 f0	 mov	 DWORD PTR __$ArrayPad$[ebp], eax
  0001e	56		 push	 esi
  0001f	57		 push	 edi
  00020	50		 push	 eax
  00021	8d 45 f4	 lea	 eax, DWORD PTR __$EHRec$[ebp]
  00024	64 a3 00 00 00
	00		 mov	 DWORD PTR fs:0, eax
  0002a	8b f9		 mov	 edi, ecx

; 376  :     CPaintDC dc(this); // device context for painting

  0002c	57		 push	 edi
  0002d	8d 4d 8c	 lea	 ecx, DWORD PTR _dc$[ebp]
  00030	e8 00 00 00 00	 call	 ??0CPaintDC@@QAE@PAVCWnd@@@Z ; CPaintDC::CPaintDC

; 377  : 
; 378  :     // Draw the Default Area text
; 379  :     if (m_strDefaultText.GetLength())

  00035	8b 87 a0 00 00
	00		 mov	 eax, DWORD PTR [edi+160]
  0003b	c7 45 fc 00 00
	00 00		 mov	 DWORD PTR __$EHRec$[ebp+8], 0
  00042	83 78 f4 00	 cmp	 DWORD PTR [eax-12], 0
  00046	74 0d		 je	 SHORT $LN5@OnPaint

; 380  :         DrawCell(&dc, DEFAULT_BOX_VALUE);

  00048	6a fd		 push	 -3			; fffffffdH
  0004a	8d 45 8c	 lea	 eax, DWORD PTR _dc$[ebp]
  0004d	8b cf		 mov	 ecx, edi
  0004f	50		 push	 eax
  00050	e8 00 00 00 00	 call	 ?DrawCell@CColourPopup@@IAEXPAVCDC@@H@Z ; CColourPopup::DrawCell
$LN5@OnPaint:

; 381  :  
; 382  :     // Draw colour cells
; 383  :     for (int i = 0; i < m_nNumColours; i++)

  00055	33 f6		 xor	 esi, esi
  00057	39 b7 84 00 00
	00		 cmp	 DWORD PTR [edi+132], esi
  0005d	7e 16		 jle	 SHORT $LN3@OnPaint
  0005f	90		 npad	 1
$LL4@OnPaint:

; 384  :         DrawCell(&dc, i);

  00060	56		 push	 esi
  00061	8d 45 8c	 lea	 eax, DWORD PTR _dc$[ebp]
  00064	8b cf		 mov	 ecx, edi
  00066	50		 push	 eax
  00067	e8 00 00 00 00	 call	 ?DrawCell@CColourPopup@@IAEXPAVCDC@@H@Z ; CColourPopup::DrawCell
  0006c	46		 inc	 esi
  0006d	3b b7 84 00 00
	00		 cmp	 esi, DWORD PTR [edi+132]
  00073	7c eb		 jl	 SHORT $LL4@OnPaint
$LN3@OnPaint:

; 385  :     
; 386  :     // Draw custom text
; 387  :     if (m_strCustomText.GetLength())

  00075	8b 87 a4 00 00
	00		 mov	 eax, DWORD PTR [edi+164]
  0007b	83 78 f4 00	 cmp	 DWORD PTR [eax-12], 0
  0007f	74 0d		 je	 SHORT $LN6@OnPaint

; 388  :         DrawCell(&dc, CUSTOM_BOX_VALUE);

  00081	6a fe		 push	 -2			; fffffffeH
  00083	8d 45 8c	 lea	 eax, DWORD PTR _dc$[ebp]
  00086	8b cf		 mov	 ecx, edi
  00088	50		 push	 eax
  00089	e8 00 00 00 00	 call	 ?DrawCell@CColourPopup@@IAEXPAVCDC@@H@Z ; CColourPopup::DrawCell
$LN6@OnPaint:
; File C:\Program Files (x86)\Microsoft Visual Studio\2019\Community\VC\Tools\MSVC\14.29.30133\atlmfc\include\afxwin2.inl

; 86   : 	{ ASSERT(::IsWindow(m_hWnd)); ::GetClientRect(m_hWnd, lpRect); }

  0008e	8d 45 e0	 lea	 eax, DWORD PTR _rect$[ebp]
  00091	0f 57 c0	 xorps	 xmm0, xmm0
  00094	50		 push	 eax
  00095	ff 77 20	 push	 DWORD PTR [edi+32]
; File C:\Program Files (x86)\Microsoft Visual Studio\2019\Community\VC\Tools\MSVC\14.29.30133\atlmfc\include\atltypes.h

; 528  : 	left = 0;

  00098	0f 11 45 e0	 movups	 XMMWORD PTR _rect$[ebp], xmm0
; File C:\Program Files (x86)\Microsoft Visual Studio\2019\Community\VC\Tools\MSVC\14.29.30133\atlmfc\include\afxwin2.inl

; 86   : 	{ ASSERT(::IsWindow(m_hWnd)); ::GetClientRect(m_hWnd, lpRect); }

  0009c	ff 15 00 00 00
	00		 call	 DWORD PTR __imp__GetClientRect@8
; File C:\Program Files (x86)\Microsoft Visual Studio\2019\Community\VC\Tools\MSVC\14.29.30133\atlmfc\include\afxwin1.inl

; 510  : 	{ ASSERT(m_hDC != NULL); return ::DrawEdge(m_hDC, lpRect, nEdge, nFlags); }

  000a2	6a 0f		 push	 15			; 0000000fH
  000a4	6a 05		 push	 5
  000a6	8d 45 e0	 lea	 eax, DWORD PTR _rect$[ebp]
  000a9	50		 push	 eax
  000aa	ff 75 90	 push	 DWORD PTR _dc$[ebp+4]
  000ad	ff 15 00 00 00
	00		 call	 DWORD PTR __imp__DrawEdge@16
; File D:\git\src\IBK\IBK_DRFN\ProjSrc\SrcChartEx\ChartAddIn\ChartDesignPropertyAddIn\ChartDesignPropertyAddIn\ColourPopup.cpp

; 395  : }

  000b3	8d 4d 8c	 lea	 ecx, DWORD PTR _dc$[ebp]
  000b6	e8 00 00 00 00	 call	 ??1CPaintDC@@UAE@XZ	; CPaintDC::~CPaintDC
  000bb	8b 4d f4	 mov	 ecx, DWORD PTR __$EHRec$[ebp]
  000be	64 89 0d 00 00
	00 00		 mov	 DWORD PTR fs:0, ecx
  000c5	59		 pop	 ecx
  000c6	5f		 pop	 edi
  000c7	5e		 pop	 esi
  000c8	8b 4d f0	 mov	 ecx, DWORD PTR __$ArrayPad$[ebp]
  000cb	33 cd		 xor	 ecx, ebp
  000cd	e8 00 00 00 00	 call	 @__security_check_cookie@4
  000d2	8b e5		 mov	 esp, ebp
  000d4	5d		 pop	 ebp
  000d5	c3		 ret	 0
_TEXT	ENDS
;	COMDAT text$x
text$x	SEGMENT
__unwindfunclet$?OnPaint@CColourPopup@@IAEXXZ$0:
  00000	8d 4d 8c	 lea	 ecx, DWORD PTR _dc$[ebp]
  00003	e9 00 00 00 00	 jmp	 ??1CPaintDC@@UAE@XZ	; CPaintDC::~CPaintDC
  00008	cc		 int	 3
  00009	cc		 int	 3
  0000a	cc		 int	 3
  0000b	cc		 int	 3
  0000c	cc		 int	 3
__ehhandler$?OnPaint@CColourPopup@@IAEXXZ:
  0000d	90		 npad	 1
  0000e	90		 npad	 1
  0000f	8b 54 24 08	 mov	 edx, DWORD PTR [esp+8]
  00013	8d 42 0c	 lea	 eax, DWORD PTR [edx+12]
  00016	8b 4a 8c	 mov	 ecx, DWORD PTR [edx-116]
  00019	33 c8		 xor	 ecx, eax
  0001b	e8 00 00 00 00	 call	 @__security_check_cookie@4
  00020	8b 4a fc	 mov	 ecx, DWORD PTR [edx-4]
  00023	33 c8		 xor	 ecx, eax
  00025	e8 00 00 00 00	 call	 @__security_check_cookie@4
  0002a	b8 00 00 00 00	 mov	 eax, OFFSET __ehfuncinfo$?OnPaint@CColourPopup@@IAEXXZ
  0002f	e9 00 00 00 00	 jmp	 ___CxxFrameHandler3
text$x	ENDS
?OnPaint@CColourPopup@@IAEXXZ ENDP			; CColourPopup::OnPaint
; Function compile flags: /Ogtp
; File D:\git\src\IBK\IBK_DRFN\ProjSrc\SrcChartEx\ChartAddIn\ChartDesignPropertyAddIn\ChartDesignPropertyAddIn\ColourPopup.cpp
; File C:\Program Files (x86)\Microsoft Visual Studio\2019\Community\VC\Tools\MSVC\14.29.30133\atlmfc\include\afxwin2.inl
; File D:\git\src\IBK\IBK_DRFN\ProjSrc\SrcChartEx\ChartAddIn\ChartDesignPropertyAddIn\ChartDesignPropertyAddIn\ColourPopup.cpp
; File C:\Program Files (x86)\Microsoft Visual Studio\2019\Community\VC\Tools\MSVC\14.29.30133\atlmfc\include\atltypes.h
; File D:\git\src\IBK\IBK_DRFN\ProjSrc\SrcChartEx\ChartAddIn\ChartDesignPropertyAddIn\ChartDesignPropertyAddIn\ColourPopup.cpp
; File C:\Program Files (x86)\Microsoft Visual Studio\2019\Community\VC\Tools\MSVC\14.29.30133\atlmfc\include\atltypes.h
; File D:\git\src\IBK\IBK_DRFN\ProjSrc\SrcChartEx\ChartAddIn\ChartDesignPropertyAddIn\ChartDesignPropertyAddIn\ColourPopup.cpp
; File C:\Program Files (x86)\Microsoft Visual Studio\2019\Community\VC\Tools\MSVC\14.29.30133\atlmfc\include\afxwin2.inl
; File D:\git\src\IBK\IBK_DRFN\ProjSrc\SrcChartEx\ChartAddIn\ChartDesignPropertyAddIn\ChartDesignPropertyAddIn\ColourPopup.cpp
; File C:\Program Files (x86)\Microsoft Visual Studio\2019\Community\VC\Tools\MSVC\14.29.30133\atlmfc\include\afxwin2.inl
; File D:\git\src\IBK\IBK_DRFN\ProjSrc\SrcChartEx\ChartAddIn\ChartDesignPropertyAddIn\ChartDesignPropertyAddIn\ColourPopup.cpp
;	COMDAT ?OnLButtonUp@CColourPopup@@IAEXIVCPoint@@@Z
_TEXT	SEGMENT
__$EHRec$ = -12						; size = 12
_nFlags$ = 8						; size = 4
_point$ = 12						; size = 8
?OnLButtonUp@CColourPopup@@IAEXIVCPoint@@@Z PROC	; CColourPopup::OnLButtonUp, COMDAT
; _this$ = ecx

; 437  : {    

  00000	55		 push	 ebp
  00001	8b ec		 mov	 ebp, esp
  00003	6a ff		 push	 -1
  00005	68 00 00 00 00	 push	 __ehhandler$?OnLButtonUp@CColourPopup@@IAEXIVCPoint@@@Z
  0000a	64 a1 00 00 00
	00		 mov	 eax, DWORD PTR fs:0
  00010	50		 push	 eax
  00011	56		 push	 esi
  00012	a1 00 00 00 00	 mov	 eax, DWORD PTR ___security_cookie
  00017	33 c5		 xor	 eax, ebp
  00019	50		 push	 eax
  0001a	8d 45 f4	 lea	 eax, DWORD PTR __$EHRec$[ebp]
  0001d	64 a3 00 00 00
	00		 mov	 DWORD PTR fs:0, eax
  00023	8b f1		 mov	 esi, ecx
; File C:\Program Files (x86)\Microsoft Visual Studio\2019\Community\VC\Tools\MSVC\14.29.30133\atlmfc\include\afxwin2.inl

; 434  : 	{ Default(); }

  00025	e8 00 00 00 00	 call	 ?Default@CWnd@@IAEJXZ	; CWnd::Default
; File D:\git\src\IBK\IBK_DRFN\ProjSrc\SrcChartEx\ChartAddIn\ChartDesignPropertyAddIn\ChartDesignPropertyAddIn\ColourPopup.cpp

; 440  :     DWORD pos = GetMessagePos();

  0002a	ff 15 00 00 00
	00		 call	 DWORD PTR __imp__GetMessagePos@0

; 441  :     point = CPoint(LOWORD(pos), HIWORD(pos));

  00030	0f b7 d0	 movzx	 edx, ax
  00033	c1 e8 10	 shr	 eax, 16			; 00000010H
; File C:\Program Files (x86)\Microsoft Visual Studio\2019\Community\VC\Tools\MSVC\14.29.30133\atlmfc\include\atltypes.h

; 648  : 	return ::PtInRect(this, point);

  00036	50		 push	 eax
  00037	52		 push	 edx
; File D:\git\src\IBK\IBK_DRFN\ProjSrc\SrcChartEx\ChartAddIn\ChartDesignPropertyAddIn\ChartDesignPropertyAddIn\ColourPopup.cpp

; 443  :     if (m_WindowRect.PtInRect(point))

  00038	8d 86 c8 00 00
	00		 lea	 eax, DWORD PTR [esi+200]
; File C:\Program Files (x86)\Microsoft Visual Studio\2019\Community\VC\Tools\MSVC\14.29.30133\atlmfc\include\atltypes.h

; 648  : 	return ::PtInRect(this, point);

  0003e	50		 push	 eax
  0003f	ff 15 00 00 00
	00		 call	 DWORD PTR __imp__PtInRect@12
; File D:\git\src\IBK\IBK_DRFN\ProjSrc\SrcChartEx\ChartAddIn\ChartDesignPropertyAddIn\ChartDesignPropertyAddIn\ColourPopup.cpp

; 443  :     if (m_WindowRect.PtInRect(point))

  00045	85 c0		 test	 eax, eax
  00047	74 1e		 je	 SHORT $LN2@OnLButtonU

; 444  : 		EndSelection(CPN_SELENDOK);

  00049	68 ec 07 00 00	 push	 2028			; 000007ecH
  0004e	8b ce		 mov	 ecx, esi
  00050	e8 00 00 00 00	 call	 ?EndSelection@CColourPopup@@IAEXH@Z ; CColourPopup::EndSelection

; 445  :     else
; 446  :         EndSelection(CPN_SELENDCANCEL);
; 447  : }

  00055	8b 4d f4	 mov	 ecx, DWORD PTR __$EHRec$[ebp]
  00058	64 89 0d 00 00
	00 00		 mov	 DWORD PTR fs:0, ecx
  0005f	59		 pop	 ecx
  00060	5e		 pop	 esi
  00061	8b e5		 mov	 esp, ebp
  00063	5d		 pop	 ebp
  00064	c2 0c 00	 ret	 12			; 0000000cH
$LN2@OnLButtonU:

; 699  :     ReleaseCapture();

  00067	ff 15 00 00 00
	00		 call	 DWORD PTR __imp__ReleaseCapture@0

; 717  :         m_crColour = m_crInitialColour;

  0006d	8b 86 e8 00 00
	00		 mov	 eax, DWORD PTR [esi+232]
; File C:\Program Files (x86)\Microsoft Visual Studio\2019\Community\VC\Tools\MSVC\14.29.30133\atlmfc\include\afxwin2.inl

; 32   : 	{ ASSERT(::IsWindow(m_hWnd)); return ::SendMessage(m_hWnd, message, wParam, lParam); }

  00073	6a 00		 push	 0
  00075	50		 push	 eax
; File D:\git\src\IBK\IBK_DRFN\ProjSrc\SrcChartEx\ChartAddIn\ChartDesignPropertyAddIn\ChartDesignPropertyAddIn\ColourPopup.cpp

; 717  :         m_crColour = m_crInitialColour;

  00076	89 86 ec 00 00
	00		 mov	 DWORD PTR [esi+236], eax
; File C:\Program Files (x86)\Microsoft Visual Studio\2019\Community\VC\Tools\MSVC\14.29.30133\atlmfc\include\afxwin2.inl

; 32   : 	{ ASSERT(::IsWindow(m_hWnd)); return ::SendMessage(m_hWnd, message, wParam, lParam); }

  0007c	8b 86 90 01 00
	00		 mov	 eax, DWORD PTR [esi+400]
  00082	68 ed 07 00 00	 push	 2029			; 000007edH
  00087	ff 70 20	 push	 DWORD PTR [eax+32]
  0008a	ff 15 00 00 00
	00		 call	 DWORD PTR __imp__SendMessageA@16
; File D:\git\src\IBK\IBK_DRFN\ProjSrc\SrcChartEx\ChartAddIn\ChartDesignPropertyAddIn\ChartDesignPropertyAddIn\ColourPopup.cpp

; 721  :     DestroyWindow();

  00090	8b 06		 mov	 eax, DWORD PTR [esi]
  00092	8b ce		 mov	 ecx, esi
  00094	ff 50 68	 call	 DWORD PTR [eax+104]

; 445  :     else
; 446  :         EndSelection(CPN_SELENDCANCEL);
; 447  : }

  00097	8b 4d f4	 mov	 ecx, DWORD PTR __$EHRec$[ebp]
  0009a	64 89 0d 00 00
	00 00		 mov	 DWORD PTR fs:0, ecx
  000a1	59		 pop	 ecx
  000a2	5e		 pop	 esi
  000a3	8b e5		 mov	 esp, ebp
  000a5	5d		 pop	 ebp
  000a6	c2 0c 00	 ret	 12			; 0000000cH
  000a9	cc		 int	 3
  000aa	cc		 int	 3
  000ab	cc		 int	 3
  000ac	cc		 int	 3
  000ad	cc		 int	 3
_TEXT	ENDS
;	COMDAT text$x
text$x	SEGMENT
__ehhandler$?OnLButtonUp@CColourPopup@@IAEXIVCPoint@@@Z:
  00000	90		 npad	 1
  00001	90		 npad	 1
  00002	8b 54 24 08	 mov	 edx, DWORD PTR [esp+8]
  00006	8d 42 0c	 lea	 eax, DWORD PTR [edx+12]
  00009	8b 4a f8	 mov	 ecx, DWORD PTR [edx-8]
  0000c	33 c8		 xor	 ecx, eax
  0000e	e8 00 00 00 00	 call	 @__security_check_cookie@4
  00013	b8 00 00 00 00	 mov	 eax, OFFSET __ehfuncinfo$?OnLButtonUp@CColourPopup@@IAEXIVCPoint@@@Z
  00018	e9 00 00 00 00	 jmp	 ___CxxFrameHandler3
text$x	ENDS
?OnLButtonUp@CColourPopup@@IAEXIVCPoint@@@Z ENDP	; CColourPopup::OnLButtonUp
; Function compile flags: /Ogtp
; File D:\git\src\IBK\IBK_DRFN\ProjSrc\SrcChartEx\ChartAddIn\ChartDesignPropertyAddIn\ChartDesignPropertyAddIn\ColourPopup.cpp
;	COMDAT ?OnNcDestroy@CColourPopup@@IAEXXZ
_TEXT	SEGMENT
?OnNcDestroy@CColourPopup@@IAEXXZ PROC			; CColourPopup::OnNcDestroy, COMDAT
; _this$ = ecx

; 369  : {

  00000	56		 push	 esi
  00001	8b f1		 mov	 esi, ecx

; 370  :     CWnd::OnNcDestroy();

  00003	e8 00 00 00 00	 call	 ?OnNcDestroy@CWnd@@IAEXXZ ; CWnd::OnNcDestroy

; 371  :     delete this;

  00008	85 f6		 test	 esi, esi
  0000a	74 09		 je	 SHORT $LN3@OnNcDestro
  0000c	8b 06		 mov	 eax, DWORD PTR [esi]
  0000e	8b ce		 mov	 ecx, esi
  00010	6a 01		 push	 1
  00012	ff 50 04	 call	 DWORD PTR [eax+4]
$LN3@OnNcDestro:

; 372  : }

  00015	5e		 pop	 esi
  00016	c3		 ret	 0
?OnNcDestroy@CColourPopup@@IAEXXZ ENDP			; CColourPopup::OnNcDestroy
_TEXT	ENDS
; Function compile flags: /Ogtp
; File D:\git\src\IBK\IBK_DRFN\ProjSrc\SrcChartEx\ChartAddIn\ChartDesignPropertyAddIn\ChartDesignPropertyAddIn\ColourPopup.cpp
;	COMDAT ?GetColumn@CColourPopup@@IBEHH@Z
_TEXT	SEGMENT
_nIndex$ = 8						; size = 4
?GetColumn@CColourPopup@@IBEHH@Z PROC			; CColourPopup::GetColumn, COMDAT
; _this$ = ecx

; 482  : { 

  00000	55		 push	 ebp
  00001	8b ec		 mov	 ebp, esp

; 483  :     if (nIndex == CUSTOM_BOX_VALUE && m_strCustomText.GetLength())

  00003	8b 45 08	 mov	 eax, DWORD PTR _nIndex$[ebp]
  00006	83 f8 fe	 cmp	 eax, -2			; fffffffeH
  00009	75 15		 jne	 SHORT $LN2@GetColumn
  0000b	8b 81 a4 00 00
	00		 mov	 eax, DWORD PTR [ecx+164]
  00011	83 78 f4 00	 cmp	 DWORD PTR [eax-12], 0
  00015	74 3c		 je	 SHORT $LN8@GetColumn

; 484  :         return CUSTOM_BOX_VALUE;

  00017	b8 fe ff ff ff	 mov	 eax, -2			; fffffffeH

; 491  : }

  0001c	5d		 pop	 ebp
  0001d	c2 04 00	 ret	 4
$LN2@GetColumn:

; 485  :     else if (nIndex == DEFAULT_BOX_VALUE && m_strDefaultText.GetLength())

  00020	83 f8 fd	 cmp	 eax, -3			; fffffffdH
  00023	75 15		 jne	 SHORT $LN4@GetColumn
  00025	8b 81 a0 00 00
	00		 mov	 eax, DWORD PTR [ecx+160]
  0002b	83 78 f4 00	 cmp	 DWORD PTR [eax-12], 0
  0002f	74 22		 je	 SHORT $LN8@GetColumn

; 486  :         return DEFAULT_BOX_VALUE;

  00031	b8 fd ff ff ff	 mov	 eax, -3			; fffffffdH

; 491  : }

  00036	5d		 pop	 ebp
  00037	c2 04 00	 ret	 4
$LN4@GetColumn:

; 487  :     else if (nIndex < 0 || nIndex >= m_nNumColours)

  0003a	85 c0		 test	 eax, eax
  0003c	78 15		 js	 SHORT $LN8@GetColumn
  0003e	3b 81 84 00 00
	00		 cmp	 eax, DWORD PTR [ecx+132]
  00044	7d 0d		 jge	 SHORT $LN8@GetColumn

; 489  :     else
; 490  :         return nIndex % m_nNumColumns; 

  00046	99		 cdq
  00047	f7 b9 88 00 00
	00		 idiv	 DWORD PTR [ecx+136]
  0004d	8b c2		 mov	 eax, edx

; 491  : }

  0004f	5d		 pop	 ebp
  00050	c2 04 00	 ret	 4
$LN8@GetColumn:

; 488  :         return INVALID_COLOUR;

  00053	83 c8 ff	 or	 eax, -1

; 491  : }

  00056	5d		 pop	 ebp
  00057	c2 04 00	 ret	 4
?GetColumn@CColourPopup@@IBEHH@Z ENDP			; CColourPopup::GetColumn
_TEXT	ENDS
; Function compile flags: /Ogtp
; File D:\git\src\IBK\IBK_DRFN\ProjSrc\SrcChartEx\ChartAddIn\ChartDesignPropertyAddIn\ChartDesignPropertyAddIn\ColourPopup.cpp
;	COMDAT ?GetRow@CColourPopup@@IBEHH@Z
_TEXT	SEGMENT
_nIndex$ = 8						; size = 4
?GetRow@CColourPopup@@IBEHH@Z PROC			; CColourPopup::GetRow, COMDAT
; _this$ = ecx

; 470  : { 

  00000	55		 push	 ebp
  00001	8b ec		 mov	 ebp, esp

; 471  :     if (nIndex == CUSTOM_BOX_VALUE && m_strCustomText.GetLength())

  00003	8b 45 08	 mov	 eax, DWORD PTR _nIndex$[ebp]
  00006	83 f8 fe	 cmp	 eax, -2			; fffffffeH
  00009	75 15		 jne	 SHORT $LN2@GetRow
  0000b	8b 81 a4 00 00
	00		 mov	 eax, DWORD PTR [ecx+164]
  00011	83 78 f4 00	 cmp	 DWORD PTR [eax-12], 0
  00015	74 3a		 je	 SHORT $LN8@GetRow

; 472  :         return CUSTOM_BOX_VALUE;

  00017	b8 fe ff ff ff	 mov	 eax, -2			; fffffffeH

; 479  : }

  0001c	5d		 pop	 ebp
  0001d	c2 04 00	 ret	 4
$LN2@GetRow:

; 473  :     else if (nIndex == DEFAULT_BOX_VALUE && m_strDefaultText.GetLength())

  00020	83 f8 fd	 cmp	 eax, -3			; fffffffdH
  00023	75 15		 jne	 SHORT $LN4@GetRow
  00025	8b 81 a0 00 00
	00		 mov	 eax, DWORD PTR [ecx+160]
  0002b	83 78 f4 00	 cmp	 DWORD PTR [eax-12], 0
  0002f	74 20		 je	 SHORT $LN8@GetRow

; 474  :         return DEFAULT_BOX_VALUE;

  00031	b8 fd ff ff ff	 mov	 eax, -3			; fffffffdH

; 479  : }

  00036	5d		 pop	 ebp
  00037	c2 04 00	 ret	 4
$LN4@GetRow:

; 475  :     else if (nIndex < 0 || nIndex >= m_nNumColours)

  0003a	85 c0		 test	 eax, eax
  0003c	78 13		 js	 SHORT $LN8@GetRow
  0003e	3b 81 84 00 00
	00		 cmp	 eax, DWORD PTR [ecx+132]
  00044	7d 0b		 jge	 SHORT $LN8@GetRow

; 477  :     else
; 478  :         return nIndex / m_nNumColumns; 

  00046	99		 cdq
  00047	f7 b9 88 00 00
	00		 idiv	 DWORD PTR [ecx+136]

; 479  : }

  0004d	5d		 pop	 ebp
  0004e	c2 04 00	 ret	 4
$LN8@GetRow:

; 476  :         return INVALID_COLOUR;

  00051	83 c8 ff	 or	 eax, -1

; 479  : }

  00054	5d		 pop	 ebp
  00055	c2 04 00	 ret	 4
?GetRow@CColourPopup@@IBEHH@Z ENDP			; CColourPopup::GetRow
_TEXT	ENDS
; Function compile flags: /Ogtp
; File D:\git\src\IBK\IBK_DRFN\ProjSrc\SrcChartEx\ChartAddIn\ChartDesignPropertyAddIn\ChartDesignPropertyAddIn\ColourPopup.cpp
;	COMDAT ?GetIndex@CColourPopup@@IBEHHH@Z
_TEXT	SEGMENT
_row$ = 8						; size = 4
_col$ = 12						; size = 4
?GetIndex@CColourPopup@@IBEHHH@Z PROC			; CColourPopup::GetIndex, COMDAT
; _this$ = ecx

; 453  : { 

  00000	55		 push	 ebp
  00001	8b ec		 mov	 ebp, esp

; 454  :     if ((row == CUSTOM_BOX_VALUE || col == CUSTOM_BOX_VALUE) && m_strCustomText.GetLength())

  00003	8b 55 0c	 mov	 edx, DWORD PTR _col$[ebp]
  00006	56		 push	 esi
  00007	8b 75 08	 mov	 esi, DWORD PTR _row$[ebp]
  0000a	83 fe fe	 cmp	 esi, -2			; fffffffeH
  0000d	74 05		 je	 SHORT $LN4@GetIndex
  0000f	83 fa fe	 cmp	 edx, -2			; fffffffeH
  00012	75 16		 jne	 SHORT $LN2@GetIndex
$LN4@GetIndex:
  00014	8b 81 a4 00 00
	00		 mov	 eax, DWORD PTR [ecx+164]
  0001a	83 78 f4 00	 cmp	 DWORD PTR [eax-12], 0
  0001e	74 0a		 je	 SHORT $LN2@GetIndex

; 455  :         return CUSTOM_BOX_VALUE;

  00020	b8 fe ff ff ff	 mov	 eax, -2			; fffffffeH
  00025	5e		 pop	 esi

; 463  :             return INVALID_COLOUR;
; 464  :         else
; 465  :             return row*m_nNumColumns + col;
; 466  :     }
; 467  : }

  00026	5d		 pop	 ebp
  00027	c2 08 00	 ret	 8
$LN2@GetIndex:

; 456  :     else if ((row == DEFAULT_BOX_VALUE || col == DEFAULT_BOX_VALUE) && m_strDefaultText.GetLength())

  0002a	83 fe fd	 cmp	 esi, -3			; fffffffdH
  0002d	74 05		 je	 SHORT $LN7@GetIndex
  0002f	83 fa fd	 cmp	 edx, -3			; fffffffdH
  00032	75 16		 jne	 SHORT $LN5@GetIndex
$LN7@GetIndex:
  00034	8b 81 a0 00 00
	00		 mov	 eax, DWORD PTR [ecx+160]
  0003a	83 78 f4 00	 cmp	 DWORD PTR [eax-12], 0
  0003e	74 0a		 je	 SHORT $LN5@GetIndex

; 457  :         return DEFAULT_BOX_VALUE;

  00040	b8 fd ff ff ff	 mov	 eax, -3			; fffffffdH
  00045	5e		 pop	 esi

; 463  :             return INVALID_COLOUR;
; 464  :         else
; 465  :             return row*m_nNumColumns + col;
; 466  :     }
; 467  : }

  00046	5d		 pop	 ebp
  00047	c2 08 00	 ret	 8
$LN5@GetIndex:

; 458  :     else if (row < 0 || col < 0 || row >= m_nNumRows || col >= m_nNumColumns)

  0004a	85 f6		 test	 esi, esi
  0004c	78 23		 js	 SHORT $LN10@GetIndex
  0004e	85 d2		 test	 edx, edx
  00050	78 1f		 js	 SHORT $LN10@GetIndex
  00052	3b b1 8c 00 00
	00		 cmp	 esi, DWORD PTR [ecx+140]
  00058	7d 17		 jge	 SHORT $LN10@GetIndex
  0005a	8b 81 88 00 00
	00		 mov	 eax, DWORD PTR [ecx+136]
  00060	3b d0		 cmp	 edx, eax
  00062	7d 0d		 jge	 SHORT $LN10@GetIndex

; 460  :     else
; 461  :     {
; 462  :         if (row*m_nNumColumns + col >= m_nNumColours)

  00064	0f af c6	 imul	 eax, esi
  00067	03 c2		 add	 eax, edx
  00069	3b 81 84 00 00
	00		 cmp	 eax, DWORD PTR [ecx+132]
  0006f	7c 03		 jl	 SHORT $LN12@GetIndex
$LN10@GetIndex:

; 459  :         return INVALID_COLOUR;

  00071	83 c8 ff	 or	 eax, -1
$LN12@GetIndex:
  00074	5e		 pop	 esi

; 463  :             return INVALID_COLOUR;
; 464  :         else
; 465  :             return row*m_nNumColumns + col;
; 466  :     }
; 467  : }

  00075	5d		 pop	 ebp
  00076	c2 08 00	 ret	 8
?GetIndex@CColourPopup@@IBEHHH@Z ENDP			; CColourPopup::GetIndex
_TEXT	ENDS
; Function compile flags: /Ogtp
; File D:\git\src\IBK\IBK_DRFN\ProjSrc\SrcChartEx\ChartAddIn\ChartDesignPropertyAddIn\ChartDesignPropertyAddIn\ColourPopup.cpp
;	COMDAT ?GetColourName@CColourPopup@@IAE?AV?$CStringT@DV?$StrTraitMFC_DLL@DV?$ChTraitsCRT@D@ATL@@@@@ATL@@H@Z
_TEXT	SEGMENT
___$ReturnUdt$ = 8					; size = 4
_nIndex$ = 12						; size = 4
?GetColourName@CColourPopup@@IAE?AV?$CStringT@DV?$StrTraitMFC_DLL@DV?$ChTraitsCRT@D@ATL@@@@@ATL@@H@Z PROC ; CColourPopup::GetColourName, COMDAT
; _this$ = ecx

; 94   : {

  00000	55		 push	 ebp
  00001	8b ec		 mov	 ebp, esp

; 95   : 	return m_colorTableMgr.GetColorText(nIndex);

  00003	ff 75 0c	 push	 DWORD PTR _nIndex$[ebp]
  00006	ff 75 08	 push	 DWORD PTR ___$ReturnUdt$[ebp]
  00009	e8 00 00 00 00	 call	 ?GetColorText@CColorTableMgr@@SA?AV?$CStringT@DV?$StrTraitMFC_DLL@DV?$ChTraitsCRT@D@ATL@@@@@ATL@@H@Z ; CColorTableMgr::GetColorText
  0000e	8b 45 08	 mov	 eax, DWORD PTR ___$ReturnUdt$[ebp]
  00011	83 c4 08	 add	 esp, 8

; 96   : }

  00014	5d		 pop	 ebp
  00015	c2 08 00	 ret	 8
?GetColourName@CColourPopup@@IAE?AV?$CStringT@DV?$StrTraitMFC_DLL@DV?$ChTraitsCRT@D@ATL@@@@@ATL@@H@Z ENDP ; CColourPopup::GetColourName
_TEXT	ENDS
; Function compile flags: /Ogtp
; File D:\git\src\IBK\IBK_DRFN\ProjSrc\SrcChartEx\ChartAddIn\ChartDesignPropertyAddIn\ChartDesignPropertyAddIn\ColourPopup.cpp
;	COMDAT ?GetColour@CColourPopup@@IAEKH@Z
_TEXT	SEGMENT
_nIndex$ = 8						; size = 4
?GetColour@CColourPopup@@IAEKH@Z PROC			; CColourPopup::GetColour, COMDAT
; _this$ = ecx

; 89   : {

  00000	55		 push	 ebp
  00001	8b ec		 mov	 ebp, esp

; 90   : 	return m_colorTableMgr.GetColor(nIndex);

  00003	ff 75 08	 push	 DWORD PTR _nIndex$[ebp]
  00006	e8 00 00 00 00	 call	 ?GetColor@CColorTableMgr@@SAKH@Z ; CColorTableMgr::GetColor
  0000b	83 c4 04	 add	 esp, 4

; 91   : }

  0000e	5d		 pop	 ebp
  0000f	c2 04 00	 ret	 4
?GetColour@CColourPopup@@IAEKH@Z ENDP			; CColourPopup::GetColour
_TEXT	ENDS
; Function compile flags: /Ogtp
; File D:\git\src\IBK\IBK_DRFN\ProjSrc\SrcChartEx\ChartAddIn\ChartDesignPropertyAddIn\ChartDesignPropertyAddIn\ColourPopup.cpp
; File C:\Program Files (x86)\Microsoft Visual Studio\2019\Community\VC\Tools\MSVC\14.29.30133\atlmfc\include\atlsimpstr.h
; File D:\git\src\IBK\IBK_DRFN\ProjSrc\SrcChartEx\ChartAddIn\ChartDesignPropertyAddIn\ChartDesignPropertyAddIn\ColourPopup.cpp
; File C:\Program Files (x86)\Microsoft Visual Studio\2019\Community\VC\Tools\MSVC\14.29.30133\atlmfc\include\atltypes.h
; File D:\git\src\IBK\IBK_DRFN\ProjSrc\SrcChartEx\ChartAddIn\ChartDesignPropertyAddIn\ChartDesignPropertyAddIn\ColourPopup.cpp
; File C:\Program Files (x86)\Microsoft Visual Studio\2019\Community\VC\Tools\MSVC\14.29.30133\atlmfc\include\atltypes.h
; File D:\git\src\IBK\IBK_DRFN\ProjSrc\SrcChartEx\ChartAddIn\ChartDesignPropertyAddIn\ChartDesignPropertyAddIn\ColourPopup.cpp
; File C:\Program Files (x86)\Microsoft Visual Studio\2019\Community\VC\Tools\MSVC\14.29.30133\atlmfc\include\atltypes.h
; File D:\git\src\IBK\IBK_DRFN\ProjSrc\SrcChartEx\ChartAddIn\ChartDesignPropertyAddIn\ChartDesignPropertyAddIn\ColourPopup.cpp
; File C:\Program Files (x86)\Microsoft Visual Studio\2019\Community\VC\Tools\MSVC\14.29.30133\atlmfc\include\atltypes.h
; File D:\git\src\IBK\IBK_DRFN\ProjSrc\SrcChartEx\ChartAddIn\ChartDesignPropertyAddIn\ChartDesignPropertyAddIn\ColourPopup.cpp
; File C:\Program Files (x86)\Microsoft Visual Studio\2019\Community\VC\Tools\MSVC\14.29.30133\atlmfc\include\atltypes.h
; File D:\git\src\IBK\IBK_DRFN\ProjSrc\SrcChartEx\ChartAddIn\ChartDesignPropertyAddIn\ChartDesignPropertyAddIn\ColourPopup.cpp
; File C:\Program Files (x86)\Microsoft Visual Studio\2019\Community\VC\Tools\MSVC\14.29.30133\atlmfc\include\afxwin1.inl
; File D:\git\src\IBK\IBK_DRFN\ProjSrc\SrcChartEx\ChartAddIn\ChartDesignPropertyAddIn\ChartDesignPropertyAddIn\ColourPopup.cpp
; File C:\Program Files (x86)\Microsoft Visual Studio\2019\Community\VC\Tools\MSVC\14.29.30133\atlmfc\include\afxwin1.inl
; File D:\git\src\IBK\IBK_DRFN\ProjSrc\SrcChartEx\ChartAddIn\ChartDesignPropertyAddIn\ChartDesignPropertyAddIn\ColourPopup.cpp
; File C:\Program Files (x86)\Microsoft Visual Studio\2019\Community\VC\Tools\MSVC\14.29.30133\atlmfc\include\atlsimpstr.h
; File C:\Program Files (x86)\Microsoft Visual Studio\2019\Community\VC\Tools\MSVC\14.29.30133\atlmfc\include\afxwin1.inl
; File C:\Program Files (x86)\Microsoft Visual Studio\2019\Community\VC\Tools\MSVC\14.29.30133\atlmfc\include\atlsimpstr.h
; File C:\Program Files (x86)\Microsoft Visual Studio\2019\Community\VC\Tools\MSVC\14.29.30133\atlmfc\include\afxwin1.inl
; File D:\git\src\IBK\IBK_DRFN\ProjSrc\SrcChartEx\ChartAddIn\ChartDesignPropertyAddIn\ChartDesignPropertyAddIn\ColourPopup.cpp
; File C:\Program Files (x86)\Microsoft Visual Studio\2019\Community\VC\Tools\MSVC\14.29.30133\atlmfc\include\atlsimpstr.h
; File D:\git\src\IBK\IBK_DRFN\ProjSrc\SrcChartEx\ChartAddIn\ChartDesignPropertyAddIn\ChartDesignPropertyAddIn\ColourPopup.cpp
; File C:\Program Files (x86)\Microsoft Visual Studio\2019\Community\VC\Tools\MSVC\14.29.30133\atlmfc\include\atltypes.h
; File D:\git\src\IBK\IBK_DRFN\ProjSrc\SrcChartEx\ChartAddIn\ChartDesignPropertyAddIn\ChartDesignPropertyAddIn\ColourPopup.cpp
; File C:\Program Files (x86)\Microsoft Visual Studio\2019\Community\VC\Tools\MSVC\14.29.30133\atlmfc\include\atltypes.h
; File D:\git\src\IBK\IBK_DRFN\ProjSrc\SrcChartEx\ChartAddIn\ChartDesignPropertyAddIn\ChartDesignPropertyAddIn\ColourPopup.cpp
; File C:\Program Files (x86)\Microsoft Visual Studio\2019\Community\VC\Tools\MSVC\14.29.30133\atlmfc\include\atltypes.h
; File D:\git\src\IBK\IBK_DRFN\ProjSrc\SrcChartEx\ChartAddIn\ChartDesignPropertyAddIn\ChartDesignPropertyAddIn\ColourPopup.cpp
; File C:\Program Files (x86)\Microsoft Visual Studio\2019\Community\VC\Tools\MSVC\14.29.30133\atlmfc\include\atltypes.h
; File D:\git\src\IBK\IBK_DRFN\ProjSrc\SrcChartEx\ChartAddIn\ChartDesignPropertyAddIn\ChartDesignPropertyAddIn\ColourPopup.cpp
; File C:\Program Files (x86)\Microsoft Visual Studio\2019\Community\VC\Tools\MSVC\14.29.30133\atlmfc\include\afxwin1.inl
; File D:\git\src\IBK\IBK_DRFN\ProjSrc\SrcChartEx\ChartAddIn\ChartDesignPropertyAddIn\ChartDesignPropertyAddIn\ColourPopup.cpp
; File C:\Program Files (x86)\Microsoft Visual Studio\2019\Community\VC\Tools\MSVC\14.29.30133\atlmfc\include\afxwin1.inl
; File D:\git\src\IBK\IBK_DRFN\ProjSrc\SrcChartEx\ChartAddIn\ChartDesignPropertyAddIn\ChartDesignPropertyAddIn\ColourPopup.cpp
; File C:\Program Files (x86)\Microsoft Visual Studio\2019\Community\VC\Tools\MSVC\14.29.30133\atlmfc\include\afxwin1.inl
; File D:\git\src\IBK\IBK_DRFN\ProjSrc\SrcChartEx\ChartAddIn\ChartDesignPropertyAddIn\ChartDesignPropertyAddIn\ColourPopup.cpp
; File C:\Program Files (x86)\Microsoft Visual Studio\2019\Community\VC\Tools\MSVC\14.29.30133\atlmfc\include\atlsimpstr.h
; File C:\Program Files (x86)\Microsoft Visual Studio\2019\Community\VC\Tools\MSVC\14.29.30133\atlmfc\include\afxwin1.inl
; File C:\Program Files (x86)\Microsoft Visual Studio\2019\Community\VC\Tools\MSVC\14.29.30133\atlmfc\include\atlsimpstr.h
; File C:\Program Files (x86)\Microsoft Visual Studio\2019\Community\VC\Tools\MSVC\14.29.30133\atlmfc\include\afxwin1.inl
; File D:\git\src\IBK\IBK_DRFN\ProjSrc\SrcChartEx\ChartAddIn\ChartDesignPropertyAddIn\ChartDesignPropertyAddIn\ColourPopup.cpp
; File C:\Program Files (x86)\Microsoft Visual Studio\2019\Community\VC\Tools\MSVC\14.29.30133\atlmfc\include\afxwin1.inl
; File D:\git\src\IBK\IBK_DRFN\ProjSrc\SrcChartEx\ChartAddIn\ChartDesignPropertyAddIn\ChartDesignPropertyAddIn\ColourPopup.cpp
; File C:\Program Files (x86)\Microsoft Visual Studio\2019\Community\VC\Tools\MSVC\14.29.30133\atlmfc\include\atltypes.h
; File D:\git\src\IBK\IBK_DRFN\ProjSrc\SrcChartEx\ChartAddIn\ChartDesignPropertyAddIn\ChartDesignPropertyAddIn\ColourPopup.cpp
; File C:\Program Files (x86)\Microsoft Visual Studio\2019\Community\VC\Tools\MSVC\14.29.30133\atlmfc\include\afxwin1.inl
; File D:\git\src\IBK\IBK_DRFN\ProjSrc\SrcChartEx\ChartAddIn\ChartDesignPropertyAddIn\ChartDesignPropertyAddIn\ColourPopup.cpp
; File C:\Program Files (x86)\Microsoft Visual Studio\2019\Community\VC\Tools\MSVC\14.29.30133\atlmfc\include\afxwin1.inl
; File D:\git\src\IBK\IBK_DRFN\ProjSrc\SrcChartEx\ChartAddIn\ChartDesignPropertyAddIn\ChartDesignPropertyAddIn\ColourPopup.cpp
; File C:\Program Files (x86)\Microsoft Visual Studio\2019\Community\VC\Tools\MSVC\14.29.30133\atlmfc\include\afxwin1.inl
; File D:\git\src\IBK\IBK_DRFN\ProjSrc\SrcChartEx\ChartAddIn\ChartDesignPropertyAddIn\ChartDesignPropertyAddIn\ColourPopup.cpp
; File C:\Program Files (x86)\Microsoft Visual Studio\2019\Community\VC\Tools\MSVC\14.29.30133\atlmfc\include\afxwin1.inl
; File D:\git\src\IBK\IBK_DRFN\ProjSrc\SrcChartEx\ChartAddIn\ChartDesignPropertyAddIn\ChartDesignPropertyAddIn\ColourPopup.cpp
; File C:\Program Files (x86)\Microsoft Visual Studio\2019\Community\VC\Tools\MSVC\14.29.30133\atlmfc\include\afxwin1.inl
; File D:\git\src\IBK\IBK_DRFN\ProjSrc\SrcChartEx\ChartAddIn\ChartDesignPropertyAddIn\ChartDesignPropertyAddIn\ColourPopup.cpp
; File C:\Program Files (x86)\Microsoft Visual Studio\2019\Community\VC\Tools\MSVC\14.29.30133\atlmfc\include\afxwin1.inl
; File D:\git\src\IBK\IBK_DRFN\ProjSrc\SrcChartEx\ChartAddIn\ChartDesignPropertyAddIn\ChartDesignPropertyAddIn\ColourPopup.cpp
; File C:\Program Files (x86)\Microsoft Visual Studio\2019\Community\VC\Tools\MSVC\14.29.30133\atlmfc\include\afxwin1.inl
; File D:\git\src\IBK\IBK_DRFN\ProjSrc\SrcChartEx\ChartAddIn\ChartDesignPropertyAddIn\ChartDesignPropertyAddIn\ColourPopup.cpp
; File C:\Program Files (x86)\Microsoft Visual Studio\2019\Community\VC\Tools\MSVC\14.29.30133\atlmfc\include\afxwin1.inl
; File D:\git\src\IBK\IBK_DRFN\ProjSrc\SrcChartEx\ChartAddIn\ChartDesignPropertyAddIn\ChartDesignPropertyAddIn\ColourPopup.cpp
; File C:\Program Files (x86)\Microsoft Visual Studio\2019\Community\VC\Tools\MSVC\14.29.30133\atlmfc\include\atltypes.h
; File D:\git\src\IBK\IBK_DRFN\ProjSrc\SrcChartEx\ChartAddIn\ChartDesignPropertyAddIn\ChartDesignPropertyAddIn\ColourPopup.cpp
; File C:\Program Files (x86)\Microsoft Visual Studio\2019\Community\VC\Tools\MSVC\14.29.30133\atlmfc\include\atltypes.h
; File C:\Program Files (x86)\Microsoft Visual Studio\2019\Community\VC\Tools\MSVC\14.29.30133\atlmfc\include\afxwin1.inl
; File D:\git\src\IBK\IBK_DRFN\ProjSrc\SrcChartEx\ChartAddIn\ChartDesignPropertyAddIn\ChartDesignPropertyAddIn\ColourPopup.cpp
; File C:\Program Files (x86)\Microsoft Visual Studio\2019\Community\VC\Tools\MSVC\14.29.30133\atlmfc\include\afxwin1.inl
; File D:\git\src\IBK\IBK_DRFN\ProjSrc\SrcChartEx\ChartAddIn\ChartDesignPropertyAddIn\ChartDesignPropertyAddIn\ColourPopup.cpp
; File C:\Program Files (x86)\Microsoft Visual Studio\2019\Community\VC\Tools\MSVC\14.29.30133\atlmfc\include\afxwin1.inl
; File D:\git\src\IBK\IBK_DRFN\ProjSrc\SrcChartEx\ChartAddIn\ChartDesignPropertyAddIn\ChartDesignPropertyAddIn\ColourPopup.cpp
;	COMDAT ?DrawCell@CColourPopup@@IAEXPAVCDC@@H@Z
_TEXT	SEGMENT
_brush$ = -112						; size = 8
_pen$ = -104						; size = 8
_pOldPalette$1$ = -96					; size = 4
$T2 = -96						; size = 4
_nIndex$GSCopy$1$ = -92					; size = 4
_pDC$GSCopy$1$ = -88					; size = 4
_this$GSCopy$1$ = -84					; size = 4
_LineRect$3 = -80					; size = 16
_TextButtonRect$4 = -64					; size = 16
_rect$ = -48						; size = 16
_TextButtonRect$5 = -32					; size = 16
_pen$6 = -24						; size = 8
$T7 = -20						; size = 4
__$ArrayPad$ = -16					; size = 4
__$EHRec$ = -12						; size = 12
_pDC$ = 8						; size = 4
_nIndex$ = 12						; size = 4
?DrawCell@CColourPopup@@IAEXPAVCDC@@H@Z PROC		; CColourPopup::DrawCell, COMDAT
; _this$ = ecx

; 725  : {

  00000	55		 push	 ebp
  00001	8b ec		 mov	 ebp, esp
  00003	6a ff		 push	 -1
  00005	68 00 00 00 00	 push	 __ehhandler$?DrawCell@CColourPopup@@IAEXPAVCDC@@H@Z
  0000a	64 a1 00 00 00
	00		 mov	 eax, DWORD PTR fs:0
  00010	50		 push	 eax
  00011	83 ec 64	 sub	 esp, 100		; 00000064H
  00014	a1 00 00 00 00	 mov	 eax, DWORD PTR ___security_cookie
  00019	33 c5		 xor	 eax, ebp
  0001b	89 45 f0	 mov	 DWORD PTR __$ArrayPad$[ebp], eax
  0001e	56		 push	 esi
  0001f	57		 push	 edi
  00020	50		 push	 eax
  00021	8d 45 f4	 lea	 eax, DWORD PTR __$EHRec$[ebp]
  00024	64 a3 00 00 00
	00		 mov	 DWORD PTR fs:0, eax
  0002a	8b f1		 mov	 esi, ecx
  0002c	89 75 ac	 mov	 DWORD PTR _this$GSCopy$1$[ebp], esi
; File C:\Program Files (x86)\Microsoft Visual Studio\2019\Community\VC\Tools\MSVC\14.29.30133\atlmfc\include\atlsimpstr.h

; 519  : 		return( GetData()->nDataLength );

  0002f	8b 86 a4 00 00
	00		 mov	 eax, DWORD PTR [esi+164]
; File D:\git\src\IBK\IBK_DRFN\ProjSrc\SrcChartEx\ChartAddIn\ChartDesignPropertyAddIn\ChartDesignPropertyAddIn\ColourPopup.cpp

; 725  : {

  00035	8b 7d 08	 mov	 edi, DWORD PTR _pDC$[ebp]
  00038	8b 4d 0c	 mov	 ecx, DWORD PTR _nIndex$[ebp]
  0003b	89 7d a8	 mov	 DWORD PTR _pDC$GSCopy$1$[ebp], edi

; 726  :     // For the Custom Text area
; 727  :     if (m_strCustomText.GetLength() && nIndex == CUSTOM_BOX_VALUE)

  0003e	83 78 f4 00	 cmp	 DWORD PTR [eax-12], 0
  00042	89 4d a4	 mov	 DWORD PTR _nIndex$GSCopy$1$[ebp], ecx
  00045	0f 84 73 01 00
	00		 je	 $LN2@DrawCell
  0004b	83 f9 fe	 cmp	 ecx, -2			; fffffffeH
  0004e	0f 85 6a 01 00
	00		 jne	 $LN2@DrawCell

; 728  :     {
; 729  :         // The extent of the actual text button
; 730  :         CRect TextButtonRect = m_CustomTextRect;

  00054	0f 10 86 a8 00
	00 00		 movups	 xmm0, XMMWORD PTR [esi+168]

; 731  :         TextButtonRect.top += 2*m_nMargin;

  0005b	8b 8e 94 00 00
	00		 mov	 ecx, DWORD PTR [esi+148]

; 732  : 
; 733  :         // Fill background
; 734  :         pDC->FillSolidRect(TextButtonRect, ::GetSysColor(COLOR_3DFACE));

  00061	6a 0f		 push	 15			; 0000000fH
  00063	0f 11 45 e0	 movups	 XMMWORD PTR _TextButtonRect$5[ebp], xmm0
  00067	66 0f 73 d8 04	 psrldq	 xmm0, 4
  0006c	66 0f 7e c0	 movd	 eax, xmm0
  00070	8d 04 48	 lea	 eax, DWORD PTR [eax+ecx*2]
  00073	89 45 e4	 mov	 DWORD PTR _TextButtonRect$5[ebp+4], eax
  00076	ff 15 00 00 00
	00		 call	 DWORD PTR __imp__GetSysColor@4
  0007c	50		 push	 eax
  0007d	8d 45 e0	 lea	 eax, DWORD PTR _TextButtonRect$5[ebp]
  00080	8b cf		 mov	 ecx, edi
  00082	50		 push	 eax
  00083	e8 00 00 00 00	 call	 ?FillSolidRect@CDC@@QAEXPBUtagRECT@@K@Z ; CDC::FillSolidRect
; File C:\Program Files (x86)\Microsoft Visual Studio\2019\Community\VC\Tools\MSVC\14.29.30133\atlmfc\include\atltypes.h

; 576  : 	return right - left;

  00088	8b 45 ac	 mov	 eax, DWORD PTR _this$GSCopy$1$[ebp]
  0008b	8b b6 b0 00 00
	00		 mov	 esi, DWORD PTR [esi+176]
; File D:\git\src\IBK\IBK_DRFN\ProjSrc\SrcChartEx\ChartAddIn\ChartDesignPropertyAddIn\ChartDesignPropertyAddIn\ColourPopup.cpp

; 737  :         pDC->FillSolidRect(m_CustomTextRect.left+2*m_nMargin, m_CustomTextRect.top,

  00091	6a 10		 push	 16			; 00000010H
; File C:\Program Files (x86)\Microsoft Visual Studio\2019\Community\VC\Tools\MSVC\14.29.30133\atlmfc\include\atltypes.h

; 576  : 	return right - left;

  00093	2b b0 a8 00 00
	00		 sub	 esi, DWORD PTR [eax+168]
; File D:\git\src\IBK\IBK_DRFN\ProjSrc\SrcChartEx\ChartAddIn\ChartDesignPropertyAddIn\ChartDesignPropertyAddIn\ColourPopup.cpp

; 737  :         pDC->FillSolidRect(m_CustomTextRect.left+2*m_nMargin, m_CustomTextRect.top,

  00099	8b b8 94 00 00
	00		 mov	 edi, DWORD PTR [eax+148]
  0009f	ff 15 00 00 00
	00		 call	 DWORD PTR __imp__GetSysColor@4
  000a5	8b 4d a8	 mov	 ecx, DWORD PTR _pDC$GSCopy$1$[ebp]
  000a8	50		 push	 eax
  000a9	8d 04 bd 00 00
	00 00		 lea	 eax, DWORD PTR [edi*4]
  000b0	2b f0		 sub	 esi, eax
  000b2	8b 45 ac	 mov	 eax, DWORD PTR _this$GSCopy$1$[ebp]
  000b5	6a 01		 push	 1
  000b7	56		 push	 esi
  000b8	ff b0 ac 00 00
	00		 push	 DWORD PTR [eax+172]
  000be	8b 80 a8 00 00
	00		 mov	 eax, DWORD PTR [eax+168]
  000c4	8d 04 78	 lea	 eax, DWORD PTR [eax+edi*2]
  000c7	50		 push	 eax
  000c8	e8 00 00 00 00	 call	 ?FillSolidRect@CDC@@QAEXHHHHK@Z ; CDC::FillSolidRect
; File C:\Program Files (x86)\Microsoft Visual Studio\2019\Community\VC\Tools\MSVC\14.29.30133\atlmfc\include\atltypes.h

; 576  : 	return right - left;

  000cd	8b 45 ac	 mov	 eax, DWORD PTR _this$GSCopy$1$[ebp]
; File D:\git\src\IBK\IBK_DRFN\ProjSrc\SrcChartEx\ChartAddIn\ChartDesignPropertyAddIn\ChartDesignPropertyAddIn\ColourPopup.cpp

; 739  :         pDC->FillSolidRect(m_CustomTextRect.left+2*m_nMargin, m_CustomTextRect.top+1,

  000d0	6a 14		 push	 20			; 00000014H
; File C:\Program Files (x86)\Microsoft Visual Studio\2019\Community\VC\Tools\MSVC\14.29.30133\atlmfc\include\atltypes.h

; 576  : 	return right - left;

  000d2	8b b0 b0 00 00
	00		 mov	 esi, DWORD PTR [eax+176]
  000d8	2b b0 a8 00 00
	00		 sub	 esi, DWORD PTR [eax+168]
; File D:\git\src\IBK\IBK_DRFN\ProjSrc\SrcChartEx\ChartAddIn\ChartDesignPropertyAddIn\ChartDesignPropertyAddIn\ColourPopup.cpp

; 739  :         pDC->FillSolidRect(m_CustomTextRect.left+2*m_nMargin, m_CustomTextRect.top+1,

  000de	8b b8 94 00 00
	00		 mov	 edi, DWORD PTR [eax+148]
  000e4	ff 15 00 00 00
	00		 call	 DWORD PTR __imp__GetSysColor@4
  000ea	8b 4d ac	 mov	 ecx, DWORD PTR _this$GSCopy$1$[ebp]
  000ed	50		 push	 eax
  000ee	8d 04 bd 00 00
	00 00		 lea	 eax, DWORD PTR [edi*4]
  000f5	2b f0		 sub	 esi, eax
  000f7	8b 81 ac 00 00
	00		 mov	 eax, DWORD PTR [ecx+172]
  000fd	6a 01		 push	 1
  000ff	56		 push	 esi
  00100	8b 75 a8	 mov	 esi, DWORD PTR _pDC$GSCopy$1$[ebp]
  00103	40		 inc	 eax
  00104	50		 push	 eax
  00105	8b 81 a8 00 00
	00		 mov	 eax, DWORD PTR [ecx+168]
  0010b	8b ce		 mov	 ecx, esi
  0010d	8d 04 78	 lea	 eax, DWORD PTR [eax+edi*2]
  00110	50		 push	 eax
  00111	e8 00 00 00 00	 call	 ?FillSolidRect@CDC@@QAEXHHHHK@Z ; CDC::FillSolidRect
; File C:\Program Files (x86)\Microsoft Visual Studio\2019\Community\VC\Tools\MSVC\14.29.30133\atlmfc\include\atltypes.h

; 698  : 	::InflateRect(this, -x, -y);

  00116	6a ff		 push	 -1
  00118	6a ff		 push	 -1
  0011a	8d 45 e0	 lea	 eax, DWORD PTR _TextButtonRect$5[ebp]
  0011d	50		 push	 eax
  0011e	ff 15 00 00 00
	00		 call	 DWORD PTR __imp__InflateRect@12
; File D:\git\src\IBK\IBK_DRFN\ProjSrc\SrcChartEx\ChartAddIn\ChartDesignPropertyAddIn\ChartDesignPropertyAddIn\ColourPopup.cpp

; 745  :         if (m_nChosenColourSel == nIndex && m_nCurrentSel != nIndex)

  00124	8b 7d ac	 mov	 edi, DWORD PTR _this$GSCopy$1$[ebp]
  00127	83 bf 9c 00 00
	00 fe		 cmp	 DWORD PTR [edi+156], -2	; fffffffeH
  0012e	75 0d		 jne	 SHORT $LN110@DrawCell
  00130	83 bf 98 00 00
	00 fe		 cmp	 DWORD PTR [edi+152], -2	; fffffffeH
  00137	74 04		 je	 SHORT $LN110@DrawCell

; 746  :             pDC->FillSolidRect(TextButtonRect, ::GetSysColor(COLOR_3DLIGHT));

  00139	6a 16		 push	 22			; 00000016H
  0013b	eb 02		 jmp	 SHORT $LN114@DrawCell
$LN110@DrawCell:

; 747  :         else
; 748  :             pDC->FillSolidRect(TextButtonRect, ::GetSysColor(COLOR_3DFACE));

  0013d	6a 0f		 push	 15			; 0000000fH
$LN114@DrawCell:

; 749  : 
; 750  :         // Draw button
; 751  :         if (m_nCurrentSel == nIndex) 

  0013f	ff 15 00 00 00
	00		 call	 DWORD PTR __imp__GetSysColor@4
  00145	50		 push	 eax
  00146	8d 45 e0	 lea	 eax, DWORD PTR _TextButtonRect$5[ebp]
  00149	8b ce		 mov	 ecx, esi
  0014b	50		 push	 eax
  0014c	e8 00 00 00 00	 call	 ?FillSolidRect@CDC@@QAEXPBUtagRECT@@K@Z ; CDC::FillSolidRect
  00151	83 bf 98 00 00
	00 fe		 cmp	 DWORD PTR [edi+152], -2	; fffffffeH
  00158	75 06		 jne	 SHORT $LN5@DrawCell
; File C:\Program Files (x86)\Microsoft Visual Studio\2019\Community\VC\Tools\MSVC\14.29.30133\atlmfc\include\afxwin1.inl

; 510  : 	{ ASSERT(m_hDC != NULL); return ::DrawEdge(m_hDC, lpRect, nEdge, nFlags); }

  0015a	6a 0f		 push	 15			; 0000000fH
  0015c	6a 04		 push	 4
; File D:\git\src\IBK\IBK_DRFN\ProjSrc\SrcChartEx\ChartAddIn\ChartDesignPropertyAddIn\ChartDesignPropertyAddIn\ColourPopup.cpp

; 752  :             pDC->DrawEdge(TextButtonRect, BDR_RAISEDINNER, BF_RECT);

  0015e	eb 0d		 jmp	 SHORT $LN115@DrawCell
$LN5@DrawCell:

; 753  :         else if (m_nChosenColourSel == nIndex)

  00160	83 bf 9c 00 00
	00 fe		 cmp	 DWORD PTR [edi+156], -2	; fffffffeH
  00167	75 11		 jne	 SHORT $LN7@DrawCell
; File C:\Program Files (x86)\Microsoft Visual Studio\2019\Community\VC\Tools\MSVC\14.29.30133\atlmfc\include\afxwin1.inl

; 510  : 	{ ASSERT(m_hDC != NULL); return ::DrawEdge(m_hDC, lpRect, nEdge, nFlags); }

  00169	6a 0f		 push	 15			; 0000000fH
  0016b	6a 02		 push	 2
$LN115@DrawCell:
; File D:\git\src\IBK\IBK_DRFN\ProjSrc\SrcChartEx\ChartAddIn\ChartDesignPropertyAddIn\ChartDesignPropertyAddIn\ColourPopup.cpp

; 757  :         CFont *pOldFont = (CFont*) pDC->SelectObject(&m_Font);

  0016d	8d 45 e0	 lea	 eax, DWORD PTR _TextButtonRect$5[ebp]
  00170	50		 push	 eax
  00171	ff 76 04	 push	 DWORD PTR [esi+4]
  00174	ff 15 00 00 00
	00		 call	 DWORD PTR __imp__DrawEdge@16
$LN7@DrawCell:
  0017a	8b 16		 mov	 edx, DWORD PTR [esi]
  0017c	8d 87 d8 00 00
	00		 lea	 eax, DWORD PTR [edi+216]
  00182	50		 push	 eax
  00183	8b ce		 mov	 ecx, esi
  00185	8b 42 30	 mov	 eax, DWORD PTR [edx+48]
  00188	ff d0		 call	 eax

; 758  :         pDC->SetBkMode(TRANSPARENT);

  0018a	6a 01		 push	 1
  0018c	8b ce		 mov	 ecx, esi
  0018e	8b f8		 mov	 edi, eax
  00190	e8 00 00 00 00	 call	 ?SetBkMode@CDC@@QAEHH@Z	; CDC::SetBkMode
; File C:\Program Files (x86)\Microsoft Visual Studio\2019\Community\VC\Tools\MSVC\14.29.30133\atlmfc\include\atlsimpstr.h

; 519  : 		return( GetData()->nDataLength );

  00195	8b 45 ac	 mov	 eax, DWORD PTR _this$GSCopy$1$[ebp]
; File C:\Program Files (x86)\Microsoft Visual Studio\2019\Community\VC\Tools\MSVC\14.29.30133\atlmfc\include\afxwin1.inl

; 600  : 		return _AFX_FUNCNAME(DrawText)((LPCTSTR)str, (int)str.GetLength(), lpRect, nFormat); }

  00198	8b 36		 mov	 esi, DWORD PTR [esi]
  0019a	8b 4d a8	 mov	 ecx, DWORD PTR _pDC$GSCopy$1$[ebp]
  0019d	6a 25		 push	 37			; 00000025H
; File C:\Program Files (x86)\Microsoft Visual Studio\2019\Community\VC\Tools\MSVC\14.29.30133\atlmfc\include\atlsimpstr.h

; 519  : 		return( GetData()->nDataLength );

  0019f	8b 90 a4 00 00
	00		 mov	 edx, DWORD PTR [eax+164]
; File C:\Program Files (x86)\Microsoft Visual Studio\2019\Community\VC\Tools\MSVC\14.29.30133\atlmfc\include\afxwin1.inl

; 600  : 		return _AFX_FUNCNAME(DrawText)((LPCTSTR)str, (int)str.GetLength(), lpRect, nFormat); }

  001a5	8d 45 e0	 lea	 eax, DWORD PTR _TextButtonRect$5[ebp]
  001a8	50		 push	 eax
  001a9	ff 72 f4	 push	 DWORD PTR [edx-12]
  001ac	52		 push	 edx
  001ad	ff 56 70	 call	 DWORD PTR [esi+112]
; File D:\git\src\IBK\IBK_DRFN\ProjSrc\SrcChartEx\ChartAddIn\ChartDesignPropertyAddIn\ChartDesignPropertyAddIn\ColourPopup.cpp

; 760  :         pDC->SelectObject(pOldFont);

  001b0	8b 4d a8	 mov	 ecx, DWORD PTR _pDC$GSCopy$1$[ebp]
  001b3	57		 push	 edi
  001b4	8b 01		 mov	 eax, DWORD PTR [ecx]
  001b6	ff 50 30	 call	 DWORD PTR [eax+48]

; 761  : 
; 762  :         return;

  001b9	e9 31 03 00 00	 jmp	 $LN105@DrawCell
$LN2@DrawCell:
; File C:\Program Files (x86)\Microsoft Visual Studio\2019\Community\VC\Tools\MSVC\14.29.30133\atlmfc\include\atlsimpstr.h

; 519  : 		return( GetData()->nDataLength );

  001be	8b 86 a0 00 00
	00		 mov	 eax, DWORD PTR [esi+160]
; File D:\git\src\IBK\IBK_DRFN\ProjSrc\SrcChartEx\ChartAddIn\ChartDesignPropertyAddIn\ChartDesignPropertyAddIn\ColourPopup.cpp

; 766  :     if (m_strDefaultText.GetLength() && nIndex == DEFAULT_BOX_VALUE)

  001c4	83 78 f4 00	 cmp	 DWORD PTR [eax-12], 0
  001c8	0f 84 48 01 00
	00		 je	 $LN8@DrawCell
  001ce	83 f9 fd	 cmp	 ecx, -3			; fffffffdH
  001d1	0f 85 3f 01 00
	00		 jne	 $LN8@DrawCell

; 767  :     {
; 768  :         // Fill background
; 769  :         pDC->FillSolidRect(m_DefaultTextRect, ::GetSysColor(COLOR_3DFACE));

  001d7	6a 0f		 push	 15			; 0000000fH
  001d9	81 c6 b8 00 00
	00		 add	 esi, 184		; 000000b8H
  001df	ff 15 00 00 00
	00		 call	 DWORD PTR __imp__GetSysColor@4
  001e5	50		 push	 eax
  001e6	56		 push	 esi
  001e7	8b cf		 mov	 ecx, edi
  001e9	e8 00 00 00 00	 call	 ?FillSolidRect@CDC@@QAEXPBUtagRECT@@K@Z ; CDC::FillSolidRect

; 772  :         CRect TextButtonRect = m_DefaultTextRect;

  001ee	0f 10 06	 movups	 xmm0, XMMWORD PTR [esi]
; File C:\Program Files (x86)\Microsoft Visual Studio\2019\Community\VC\Tools\MSVC\14.29.30133\atlmfc\include\atltypes.h

; 698  : 	::InflateRect(this, -x, -y);

  001f1	6a ff		 push	 -1
  001f3	6a ff		 push	 -1
  001f5	8d 45 c0	 lea	 eax, DWORD PTR _TextButtonRect$4[ebp]
  001f8	50		 push	 eax
; File D:\git\src\IBK\IBK_DRFN\ProjSrc\SrcChartEx\ChartAddIn\ChartDesignPropertyAddIn\ChartDesignPropertyAddIn\ColourPopup.cpp

; 772  :         CRect TextButtonRect = m_DefaultTextRect;

  001f9	0f 11 45 c0	 movups	 XMMWORD PTR _TextButtonRect$4[ebp], xmm0
; File C:\Program Files (x86)\Microsoft Visual Studio\2019\Community\VC\Tools\MSVC\14.29.30133\atlmfc\include\atltypes.h

; 698  : 	::InflateRect(this, -x, -y);

  001fd	ff 15 00 00 00
	00		 call	 DWORD PTR __imp__InflateRect@12
; File D:\git\src\IBK\IBK_DRFN\ProjSrc\SrcChartEx\ChartAddIn\ChartDesignPropertyAddIn\ChartDesignPropertyAddIn\ColourPopup.cpp

; 776  :         if (m_nChosenColourSel == nIndex && m_nCurrentSel != nIndex)

  00203	8b 75 ac	 mov	 esi, DWORD PTR _this$GSCopy$1$[ebp]
  00206	83 be 9c 00 00
	00 fd		 cmp	 DWORD PTR [esi+156], -3	; fffffffdH
  0020d	75 0d		 jne	 SHORT $LN111@DrawCell
  0020f	83 be 98 00 00
	00 fd		 cmp	 DWORD PTR [esi+152], -3	; fffffffdH
  00216	74 04		 je	 SHORT $LN111@DrawCell

; 777  :             pDC->FillSolidRect(TextButtonRect, ::GetSysColor(COLOR_3DLIGHT));

  00218	6a 16		 push	 22			; 00000016H
  0021a	eb 02		 jmp	 SHORT $LN116@DrawCell
$LN111@DrawCell:

; 778  :         else
; 779  :             pDC->FillSolidRect(TextButtonRect, ::GetSysColor(COLOR_3DFACE));

  0021c	6a 0f		 push	 15			; 0000000fH
$LN116@DrawCell:

; 782  :         CRect LineRect = TextButtonRect;

  0021e	a1 00 00 00 00	 mov	 eax, DWORD PTR __imp__GetSysColor@4
  00223	ff d0		 call	 eax
  00225	50		 push	 eax
  00226	8d 45 c0	 lea	 eax, DWORD PTR _TextButtonRect$4[ebp]
  00229	8b cf		 mov	 ecx, edi
  0022b	50		 push	 eax
  0022c	e8 00 00 00 00	 call	 ?FillSolidRect@CDC@@QAEXPBUtagRECT@@K@Z ; CDC::FillSolidRect

; 783  :         LineRect.DeflateRect(2*m_nMargin,2*m_nMargin);

  00231	8b 86 94 00 00
	00		 mov	 eax, DWORD PTR [esi+148]
  00237	0f 10 45 c0	 movups	 xmm0, XMMWORD PTR _TextButtonRect$4[ebp]
  0023b	03 c0		 add	 eax, eax
; File C:\Program Files (x86)\Microsoft Visual Studio\2019\Community\VC\Tools\MSVC\14.29.30133\atlmfc\include\atltypes.h

; 698  : 	::InflateRect(this, -x, -y);

  0023d	f7 d8		 neg	 eax
  0023f	50		 push	 eax
  00240	50		 push	 eax
  00241	8d 45 b0	 lea	 eax, DWORD PTR _LineRect$3[ebp]
  00244	50		 push	 eax
; File D:\git\src\IBK\IBK_DRFN\ProjSrc\SrcChartEx\ChartAddIn\ChartDesignPropertyAddIn\ChartDesignPropertyAddIn\ColourPopup.cpp

; 782  :         CRect LineRect = TextButtonRect;

  00245	0f 11 45 b0	 movups	 XMMWORD PTR _LineRect$3[ebp], xmm0
; File C:\Program Files (x86)\Microsoft Visual Studio\2019\Community\VC\Tools\MSVC\14.29.30133\atlmfc\include\atltypes.h

; 698  : 	::InflateRect(this, -x, -y);

  00249	ff 15 00 00 00
	00		 call	 DWORD PTR __imp__InflateRect@12
; File D:\git\src\IBK\IBK_DRFN\ProjSrc\SrcChartEx\ChartAddIn\ChartDesignPropertyAddIn\ChartDesignPropertyAddIn\ColourPopup.cpp

; 784  :         CPen pen(PS_SOLID, 1, ::GetSysColor(COLOR_3DSHADOW));

  0024f	6a 10		 push	 16			; 00000010H
  00251	ff 15 00 00 00
	00		 call	 DWORD PTR __imp__GetSysColor@4
  00257	50		 push	 eax
  00258	6a 01		 push	 1
  0025a	6a 00		 push	 0
  0025c	8d 4d e8	 lea	 ecx, DWORD PTR _pen$6[ebp]
  0025f	e8 00 00 00 00	 call	 ??0CPen@@QAE@HHK@Z	; CPen::CPen

; 785  :         CPen* pOldPen = pDC->SelectObject(&pen);

  00264	8d 45 e8	 lea	 eax, DWORD PTR _pen$6[ebp]
  00267	c7 45 fc 00 00
	00 00		 mov	 DWORD PTR __$EHRec$[ebp+8], 0
  0026e	50		 push	 eax
  0026f	8b cf		 mov	 ecx, edi
  00271	e8 00 00 00 00	 call	 ?SelectObject@CDC@@QAEPAVCPen@@PAV2@@Z ; CDC::SelectObject

; 786  :         pDC->SelectStockObject(NULL_BRUSH);

  00276	8b 17		 mov	 edx, DWORD PTR [edi]
  00278	8b cf		 mov	 ecx, edi
  0027a	6a 05		 push	 5
  0027c	8b f0		 mov	 esi, eax
  0027e	ff 52 2c	 call	 DWORD PTR [edx+44]
; File C:\Program Files (x86)\Microsoft Visual Studio\2019\Community\VC\Tools\MSVC\14.29.30133\atlmfc\include\afxwin1.inl

; 541  : 	{ ASSERT(m_hDC != NULL); return ::Rectangle(m_hDC, lpRect->left, lpRect->top,

  00281	ff 75 bc	 push	 DWORD PTR _LineRect$3[ebp+12]
  00284	ff 75 b8	 push	 DWORD PTR _LineRect$3[ebp+8]
  00287	ff 75 b4	 push	 DWORD PTR _LineRect$3[ebp+4]
  0028a	ff 75 b0	 push	 DWORD PTR _LineRect$3[ebp]
  0028d	ff 77 04	 push	 DWORD PTR [edi+4]
  00290	ff 15 00 00 00
	00		 call	 DWORD PTR __imp__Rectangle@20
; File D:\git\src\IBK\IBK_DRFN\ProjSrc\SrcChartEx\ChartAddIn\ChartDesignPropertyAddIn\ChartDesignPropertyAddIn\ColourPopup.cpp

; 788  :         pDC->SelectObject(pOldPen);

  00296	56		 push	 esi
  00297	8b cf		 mov	 ecx, edi
  00299	e8 00 00 00 00	 call	 ?SelectObject@CDC@@QAEPAVCPen@@PAV2@@Z ; CDC::SelectObject

; 789  : 
; 790  :         // Draw button
; 791  :         if (m_nCurrentSel == nIndex) 

  0029e	8b 75 ac	 mov	 esi, DWORD PTR _this$GSCopy$1$[ebp]
  002a1	83 be 98 00 00
	00 fd		 cmp	 DWORD PTR [esi+152], -3	; fffffffdH
  002a8	75 06		 jne	 SHORT $LN11@DrawCell
; File C:\Program Files (x86)\Microsoft Visual Studio\2019\Community\VC\Tools\MSVC\14.29.30133\atlmfc\include\afxwin1.inl

; 510  : 	{ ASSERT(m_hDC != NULL); return ::DrawEdge(m_hDC, lpRect, nEdge, nFlags); }

  002aa	6a 0f		 push	 15			; 0000000fH
  002ac	6a 04		 push	 4
; File D:\git\src\IBK\IBK_DRFN\ProjSrc\SrcChartEx\ChartAddIn\ChartDesignPropertyAddIn\ChartDesignPropertyAddIn\ColourPopup.cpp

; 792  :             pDC->DrawEdge(TextButtonRect, BDR_RAISEDINNER, BF_RECT);

  002ae	eb 0d		 jmp	 SHORT $LN117@DrawCell
$LN11@DrawCell:

; 793  :         else if (m_nChosenColourSel == nIndex)

  002b0	83 be 9c 00 00
	00 fd		 cmp	 DWORD PTR [esi+156], -3	; fffffffdH
  002b7	75 11		 jne	 SHORT $LN13@DrawCell
; File C:\Program Files (x86)\Microsoft Visual Studio\2019\Community\VC\Tools\MSVC\14.29.30133\atlmfc\include\afxwin1.inl

; 510  : 	{ ASSERT(m_hDC != NULL); return ::DrawEdge(m_hDC, lpRect, nEdge, nFlags); }

  002b9	6a 0f		 push	 15			; 0000000fH
  002bb	6a 02		 push	 2
$LN117@DrawCell:
; File D:\git\src\IBK\IBK_DRFN\ProjSrc\SrcChartEx\ChartAddIn\ChartDesignPropertyAddIn\ChartDesignPropertyAddIn\ColourPopup.cpp

; 797  :         CFont *pOldFont = (CFont*) pDC->SelectObject(&m_Font);

  002bd	8d 45 c0	 lea	 eax, DWORD PTR _TextButtonRect$4[ebp]
  002c0	50		 push	 eax
  002c1	ff 77 04	 push	 DWORD PTR [edi+4]
  002c4	ff 15 00 00 00
	00		 call	 DWORD PTR __imp__DrawEdge@16
$LN13@DrawCell:
  002ca	8b 17		 mov	 edx, DWORD PTR [edi]
  002cc	8d 86 d8 00 00
	00		 lea	 eax, DWORD PTR [esi+216]
  002d2	50		 push	 eax
  002d3	8b cf		 mov	 ecx, edi
  002d5	8b 42 30	 mov	 eax, DWORD PTR [edx+48]
  002d8	ff d0		 call	 eax

; 798  :         pDC->SetBkMode(TRANSPARENT);

  002da	6a 01		 push	 1
  002dc	8b cf		 mov	 ecx, edi
  002de	8b f0		 mov	 esi, eax
  002e0	e8 00 00 00 00	 call	 ?SetBkMode@CDC@@QAEHH@Z	; CDC::SetBkMode
; File C:\Program Files (x86)\Microsoft Visual Studio\2019\Community\VC\Tools\MSVC\14.29.30133\atlmfc\include\atlsimpstr.h

; 519  : 		return( GetData()->nDataLength );

  002e5	8b 45 ac	 mov	 eax, DWORD PTR _this$GSCopy$1$[ebp]
; File C:\Program Files (x86)\Microsoft Visual Studio\2019\Community\VC\Tools\MSVC\14.29.30133\atlmfc\include\afxwin1.inl

; 600  : 		return _AFX_FUNCNAME(DrawText)((LPCTSTR)str, (int)str.GetLength(), lpRect, nFormat); }

  002e8	8b 17		 mov	 edx, DWORD PTR [edi]
  002ea	6a 25		 push	 37			; 00000025H
; File C:\Program Files (x86)\Microsoft Visual Studio\2019\Community\VC\Tools\MSVC\14.29.30133\atlmfc\include\atlsimpstr.h

; 519  : 		return( GetData()->nDataLength );

  002ec	8b 88 a0 00 00
	00		 mov	 ecx, DWORD PTR [eax+160]
; File C:\Program Files (x86)\Microsoft Visual Studio\2019\Community\VC\Tools\MSVC\14.29.30133\atlmfc\include\afxwin1.inl

; 600  : 		return _AFX_FUNCNAME(DrawText)((LPCTSTR)str, (int)str.GetLength(), lpRect, nFormat); }

  002f2	8d 45 c0	 lea	 eax, DWORD PTR _TextButtonRect$4[ebp]
  002f5	50		 push	 eax
  002f6	ff 71 f4	 push	 DWORD PTR [ecx-12]
  002f9	51		 push	 ecx
  002fa	8b cf		 mov	 ecx, edi
  002fc	ff 52 70	 call	 DWORD PTR [edx+112]
; File D:\git\src\IBK\IBK_DRFN\ProjSrc\SrcChartEx\ChartAddIn\ChartDesignPropertyAddIn\ChartDesignPropertyAddIn\ColourPopup.cpp

; 800  :         pDC->SelectObject(pOldFont);

  002ff	8b 07		 mov	 eax, DWORD PTR [edi]
  00301	8b cf		 mov	 ecx, edi
  00303	56		 push	 esi
  00304	ff 50 30	 call	 DWORD PTR [eax+48]
; File C:\Program Files (x86)\Microsoft Visual Studio\2019\Community\VC\Tools\MSVC\14.29.30133\atlmfc\include\afxwin1.inl

; 106  : 	{ }

  00307	c7 45 e8 00 00
	00 00		 mov	 DWORD PTR _pen$6[ebp], OFFSET ??_7CPen@@6B@
  0030e	8d 4d e8	 lea	 ecx, DWORD PTR _pen$6[ebp]
; File D:\git\src\IBK\IBK_DRFN\ProjSrc\SrcChartEx\ChartAddIn\ChartDesignPropertyAddIn\ChartDesignPropertyAddIn\ColourPopup.cpp

; 802  :         return;

  00311	e9 d4 01 00 00	 jmp	 $LN118@DrawCell
$LN8@DrawCell:

; 806  :     if (!GetCellRect(nIndex, rect)) return;

  00316	8d 45 d0	 lea	 eax, DWORD PTR _rect$[ebp]
  00319	0f 57 c0	 xorps	 xmm0, xmm0
  0031c	89 45 a0	 mov	 DWORD PTR $T2[ebp], eax
  0031f	8d 45 a0	 lea	 eax, DWORD PTR $T2[ebp]
  00322	50		 push	 eax
  00323	51		 push	 ecx
  00324	8b ce		 mov	 ecx, esi
; File C:\Program Files (x86)\Microsoft Visual Studio\2019\Community\VC\Tools\MSVC\14.29.30133\atlmfc\include\atltypes.h

; 528  : 	left = 0;

  00326	0f 11 45 d0	 movups	 XMMWORD PTR _rect$[ebp], xmm0
; File D:\git\src\IBK\IBK_DRFN\ProjSrc\SrcChartEx\ChartAddIn\ChartDesignPropertyAddIn\ChartDesignPropertyAddIn\ColourPopup.cpp

; 806  :     if (!GetCellRect(nIndex, rect)) return;

  0032a	e8 00 00 00 00	 call	 ?GetCellRect@CColourPopup@@IAEHHABQAUtagRECT@@@Z ; CColourPopup::GetCellRect
  0032f	85 c0		 test	 eax, eax
  00331	0f 84 b8 01 00
	00		 je	 $LN105@DrawCell
; File C:\Program Files (x86)\Microsoft Visual Studio\2019\Community\VC\Tools\MSVC\14.29.30133\atlmfc\include\afxwin1.inl

; 334  : 	{ ASSERT(m_hAttribDC != NULL); return ::GetDeviceCaps(m_hAttribDC, nIndex); }

  00337	6a 26		 push	 38			; 00000026H
  00339	ff 77 08	 push	 DWORD PTR [edi+8]
; File D:\git\src\IBK\IBK_DRFN\ProjSrc\SrcChartEx\ChartAddIn\ChartDesignPropertyAddIn\ChartDesignPropertyAddIn\ColourPopup.cpp

; 809  :     CPalette* pOldPalette = NULL;

  0033c	c7 45 a0 00 00
	00 00		 mov	 DWORD PTR _pOldPalette$1$[ebp], 0
; File C:\Program Files (x86)\Microsoft Visual Studio\2019\Community\VC\Tools\MSVC\14.29.30133\atlmfc\include\afxwin1.inl

; 334  : 	{ ASSERT(m_hAttribDC != NULL); return ::GetDeviceCaps(m_hAttribDC, nIndex); }

  00343	ff 15 00 00 00
	00		 call	 DWORD PTR __imp__GetDeviceCaps@8
; File D:\git\src\IBK\IBK_DRFN\ProjSrc\SrcChartEx\ChartAddIn\ChartDesignPropertyAddIn\ChartDesignPropertyAddIn\ColourPopup.cpp

; 810  :     if (pDC->GetDeviceCaps(RASTERCAPS) & RC_PALETTE)

  00349	a9 00 01 00 00	 test	 eax, 256		; 00000100H
  0034e	74 1c		 je	 SHORT $LN15@DrawCell

; 812  :         pOldPalette = pDC->SelectPalette(&m_Palette, FALSE);

  00350	6a 00		 push	 0
  00352	8d 86 e0 00 00
	00		 lea	 eax, DWORD PTR [esi+224]
  00358	8b cf		 mov	 ecx, edi
  0035a	50		 push	 eax
  0035b	e8 00 00 00 00	 call	 ?SelectPalette@CDC@@QAEPAVCPalette@@PAV2@H@Z ; CDC::SelectPalette
; File C:\Program Files (x86)\Microsoft Visual Studio\2019\Community\VC\Tools\MSVC\14.29.30133\atlmfc\include\afxwin1.inl

; 370  : 	{ ASSERT(m_hDC != NULL); return ::RealizePalette(m_hDC); }

  00360	ff 77 04	 push	 DWORD PTR [edi+4]
; File D:\git\src\IBK\IBK_DRFN\ProjSrc\SrcChartEx\ChartAddIn\ChartDesignPropertyAddIn\ChartDesignPropertyAddIn\ColourPopup.cpp

; 812  :         pOldPalette = pDC->SelectPalette(&m_Palette, FALSE);

  00363	89 45 a0	 mov	 DWORD PTR _pOldPalette$1$[ebp], eax
; File C:\Program Files (x86)\Microsoft Visual Studio\2019\Community\VC\Tools\MSVC\14.29.30133\atlmfc\include\afxwin1.inl

; 370  : 	{ ASSERT(m_hDC != NULL); return ::RealizePalette(m_hDC); }

  00366	ff 15 00 00 00
	00		 call	 DWORD PTR __imp__RealizePalette@4
$LN15@DrawCell:
; File D:\git\src\IBK\IBK_DRFN\ProjSrc\SrcChartEx\ChartAddIn\ChartDesignPropertyAddIn\ChartDesignPropertyAddIn\ColourPopup.cpp

; 817  :     if (m_nChosenColourSel == nIndex && m_nCurrentSel != nIndex)

  0036c	8b 45 a4	 mov	 eax, DWORD PTR _nIndex$GSCopy$1$[ebp]
  0036f	39 86 9c 00 00
	00		 cmp	 DWORD PTR [esi+156], eax
  00375	75 0c		 jne	 SHORT $LN112@DrawCell
  00377	39 86 98 00 00
	00		 cmp	 DWORD PTR [esi+152], eax
  0037d	74 04		 je	 SHORT $LN112@DrawCell

; 818  :         pDC->FillSolidRect(rect, ::GetSysColor(COLOR_3DHILIGHT));

  0037f	6a 14		 push	 20			; 00000014H
  00381	eb 02		 jmp	 SHORT $LN119@DrawCell
$LN112@DrawCell:

; 819  :     else
; 820  :         pDC->FillSolidRect(rect, ::GetSysColor(COLOR_3DFACE));

  00383	6a 0f		 push	 15			; 0000000fH
$LN119@DrawCell:

; 821  : 
; 822  :     // Draw button
; 823  :     if (m_nCurrentSel == nIndex) 

  00385	ff 15 00 00 00
	00		 call	 DWORD PTR __imp__GetSysColor@4
  0038b	50		 push	 eax
  0038c	8d 45 d0	 lea	 eax, DWORD PTR _rect$[ebp]
  0038f	8b cf		 mov	 ecx, edi
  00391	50		 push	 eax
  00392	e8 00 00 00 00	 call	 ?FillSolidRect@CDC@@QAEXPBUtagRECT@@K@Z ; CDC::FillSolidRect
  00397	8b 45 a4	 mov	 eax, DWORD PTR _nIndex$GSCopy$1$[ebp]
  0039a	39 86 98 00 00
	00		 cmp	 DWORD PTR [esi+152], eax
  003a0	75 06		 jne	 SHORT $LN18@DrawCell
; File C:\Program Files (x86)\Microsoft Visual Studio\2019\Community\VC\Tools\MSVC\14.29.30133\atlmfc\include\afxwin1.inl

; 510  : 	{ ASSERT(m_hDC != NULL); return ::DrawEdge(m_hDC, lpRect, nEdge, nFlags); }

  003a2	6a 0f		 push	 15			; 0000000fH
  003a4	6a 04		 push	 4
; File D:\git\src\IBK\IBK_DRFN\ProjSrc\SrcChartEx\ChartAddIn\ChartDesignPropertyAddIn\ChartDesignPropertyAddIn\ColourPopup.cpp

; 824  :         pDC->DrawEdge(rect, BDR_RAISEDINNER, BF_RECT);

  003a6	eb 0c		 jmp	 SHORT $LN120@DrawCell
$LN18@DrawCell:

; 825  :     else if (m_nChosenColourSel == nIndex)

  003a8	39 86 9c 00 00
	00		 cmp	 DWORD PTR [esi+156], eax
  003ae	75 11		 jne	 SHORT $LN20@DrawCell
; File C:\Program Files (x86)\Microsoft Visual Studio\2019\Community\VC\Tools\MSVC\14.29.30133\atlmfc\include\afxwin1.inl

; 510  : 	{ ASSERT(m_hDC != NULL); return ::DrawEdge(m_hDC, lpRect, nEdge, nFlags); }

  003b0	6a 0f		 push	 15			; 0000000fH
  003b2	6a 02		 push	 2
$LN120@DrawCell:
; File D:\git\src\IBK\IBK_DRFN\ProjSrc\SrcChartEx\ChartAddIn\ChartDesignPropertyAddIn\ChartDesignPropertyAddIn\ColourPopup.cpp

; 90   : 	return m_colorTableMgr.GetColor(nIndex);

  003b4	8d 45 d0	 lea	 eax, DWORD PTR _rect$[ebp]
  003b7	50		 push	 eax
  003b8	ff 77 04	 push	 DWORD PTR [edi+4]
  003bb	ff 15 00 00 00
	00		 call	 DWORD PTR __imp__DrawEdge@16
$LN20@DrawCell:
  003c1	8b 75 a4	 mov	 esi, DWORD PTR _nIndex$GSCopy$1$[ebp]
  003c4	56		 push	 esi
  003c5	e8 00 00 00 00	 call	 ?GetColor@CColorTableMgr@@SAKH@Z ; CColorTableMgr::GetColor
  003ca	56		 push	 esi
  003cb	89 45 ec	 mov	 DWORD PTR $T7[ebp], eax
  003ce	e8 00 00 00 00	 call	 ?GetColor@CColorTableMgr@@SAKH@Z ; CColorTableMgr::GetColor
  003d3	8b f0		 mov	 esi, eax
  003d5	8b 45 a4	 mov	 eax, DWORD PTR _nIndex$GSCopy$1$[ebp]
  003d8	50		 push	 eax
  003d9	e8 00 00 00 00	 call	 ?GetColor@CColorTableMgr@@SAKH@Z ; CColorTableMgr::GetColor

; 826  :         pDC->DrawEdge(rect, BDR_SUNKENOUTER, BF_RECT);
; 827  : 
; 828  :     CBrush brush(PALETTERGB(GetRValue(GetColour(nIndex)), 

  003de	c1 e8 10	 shr	 eax, 16			; 00000010H

; 90   : 	return m_colorTableMgr.GetColor(nIndex);

  003e1	83 c4 0c	 add	 esp, 12			; 0000000cH

; 826  :         pDC->DrawEdge(rect, BDR_SUNKENOUTER, BF_RECT);
; 827  : 
; 828  :     CBrush brush(PALETTERGB(GetRValue(GetColour(nIndex)), 

  003e4	0f b6 c8	 movzx	 ecx, al
  003e7	81 c9 00 02 00
	00		 or	 ecx, 512		; 00000200H
  003ed	0f b7 c6	 movzx	 eax, si
  003f0	c1 e1 08	 shl	 ecx, 8
  003f3	c1 e8 08	 shr	 eax, 8
  003f6	0b c8		 or	 ecx, eax
  003f8	8b 45 ec	 mov	 eax, DWORD PTR $T7[ebp]
  003fb	c1 e1 08	 shl	 ecx, 8
  003fe	0f b6 c0	 movzx	 eax, al
  00401	0b c8		 or	 ecx, eax
  00403	51		 push	 ecx
  00404	8d 4d 90	 lea	 ecx, DWORD PTR _brush$[ebp]
  00407	e8 00 00 00 00	 call	 ??0CBrush@@QAE@K@Z	; CBrush::CBrush
  0040c	c7 45 fc 01 00
	00 00		 mov	 DWORD PTR __$EHRec$[ebp+8], 1
; File C:\Program Files (x86)\Microsoft Visual Studio\2019\Community\VC\Tools\MSVC\14.29.30133\atlmfc\include\afxwin1.inl

; 70   : 	{ m_hObject = NULL; }

  00413	c7 45 9c 00 00
	00 00		 mov	 DWORD PTR _pen$[ebp+4], 0

; 104  : 	{ }

  0041a	c7 45 98 00 00
	00 00		 mov	 DWORD PTR _pen$[ebp], OFFSET ??_7CPen@@6B@
; File D:\git\src\IBK\IBK_DRFN\ProjSrc\SrcChartEx\ChartAddIn\ChartDesignPropertyAddIn\ChartDesignPropertyAddIn\ColourPopup.cpp

; 832  :     pen.CreatePen(PS_SOLID, 1, ::GetSysColor(COLOR_3DSHADOW));

  00421	6a 10		 push	 16			; 00000010H
  00423	c6 45 fc 02	 mov	 BYTE PTR __$EHRec$[ebp+8], 2
  00427	ff 15 00 00 00
	00		 call	 DWORD PTR __imp__GetSysColor@4
; File C:\Program Files (x86)\Microsoft Visual Studio\2019\Community\VC\Tools\MSVC\14.29.30133\atlmfc\include\afxwin1.inl

; 108  : 	{ return Attach(::CreatePen(nPenStyle, nWidth, crColor)); }

  0042d	50		 push	 eax
  0042e	6a 01		 push	 1
  00430	6a 00		 push	 0
  00432	ff 15 00 00 00
	00		 call	 DWORD PTR __imp__CreatePen@12
  00438	50		 push	 eax
  00439	8d 4d 98	 lea	 ecx, DWORD PTR _pen$[ebp]
  0043c	e8 00 00 00 00	 call	 ?Attach@CGdiObject@@QAEHPAX@Z ; CGdiObject::Attach
; File D:\git\src\IBK\IBK_DRFN\ProjSrc\SrcChartEx\ChartAddIn\ChartDesignPropertyAddIn\ChartDesignPropertyAddIn\ColourPopup.cpp

; 834  :     CBrush* pOldBrush = (CBrush*) pDC->SelectObject(&brush);

  00441	8d 45 90	 lea	 eax, DWORD PTR _brush$[ebp]
  00444	8b cf		 mov	 ecx, edi
  00446	50		 push	 eax
  00447	e8 00 00 00 00	 call	 ?SelectObject@CDC@@QAEPAVCBrush@@PAV2@@Z ; CDC::SelectObject

; 835  :     CPen*   pOldPen   = (CPen*)   pDC->SelectObject(&pen);

  0044c	8b 4d a8	 mov	 ecx, DWORD PTR _pDC$GSCopy$1$[ebp]
  0044f	8b f8		 mov	 edi, eax
  00451	8d 45 98	 lea	 eax, DWORD PTR _pen$[ebp]
  00454	50		 push	 eax
  00455	e8 00 00 00 00	 call	 ?SelectObject@CDC@@QAEPAVCPen@@PAV2@@Z ; CDC::SelectObject
  0045a	8b f0		 mov	 esi, eax

; 838  :     rect.DeflateRect(m_nMargin+1, m_nMargin+1);

  0045c	8b 45 ac	 mov	 eax, DWORD PTR _this$GSCopy$1$[ebp]
  0045f	8b 88 94 00 00
	00		 mov	 ecx, DWORD PTR [eax+148]
; File C:\Program Files (x86)\Microsoft Visual Studio\2019\Community\VC\Tools\MSVC\14.29.30133\atlmfc\include\atltypes.h

; 698  : 	::InflateRect(this, -x, -y);

  00465	8d 45 d0	 lea	 eax, DWORD PTR _rect$[ebp]
; File D:\git\src\IBK\IBK_DRFN\ProjSrc\SrcChartEx\ChartAddIn\ChartDesignPropertyAddIn\ChartDesignPropertyAddIn\ColourPopup.cpp

; 838  :     rect.DeflateRect(m_nMargin+1, m_nMargin+1);

  00468	f7 d1		 not	 ecx
; File C:\Program Files (x86)\Microsoft Visual Studio\2019\Community\VC\Tools\MSVC\14.29.30133\atlmfc\include\atltypes.h

; 698  : 	::InflateRect(this, -x, -y);

  0046a	51		 push	 ecx
  0046b	51		 push	 ecx
  0046c	50		 push	 eax
  0046d	ff 15 00 00 00
	00		 call	 DWORD PTR __imp__InflateRect@12
; File C:\Program Files (x86)\Microsoft Visual Studio\2019\Community\VC\Tools\MSVC\14.29.30133\atlmfc\include\afxwin1.inl

; 541  : 	{ ASSERT(m_hDC != NULL); return ::Rectangle(m_hDC, lpRect->left, lpRect->top,

  00473	ff 75 dc	 push	 DWORD PTR _rect$[ebp+12]
  00476	8b 45 a8	 mov	 eax, DWORD PTR _pDC$GSCopy$1$[ebp]
  00479	ff 75 d8	 push	 DWORD PTR _rect$[ebp+8]
  0047c	ff 75 d4	 push	 DWORD PTR _rect$[ebp+4]
  0047f	ff 75 d0	 push	 DWORD PTR _rect$[ebp]
  00482	ff 70 04	 push	 DWORD PTR [eax+4]
  00485	ff 15 00 00 00
	00		 call	 DWORD PTR __imp__Rectangle@20
; File D:\git\src\IBK\IBK_DRFN\ProjSrc\SrcChartEx\ChartAddIn\ChartDesignPropertyAddIn\ChartDesignPropertyAddIn\ColourPopup.cpp

; 842  :     pDC->SelectObject(pOldBrush);

  0048b	57		 push	 edi
  0048c	8b 7d a8	 mov	 edi, DWORD PTR _pDC$GSCopy$1$[ebp]
  0048f	8b cf		 mov	 ecx, edi
  00491	e8 00 00 00 00	 call	 ?SelectObject@CDC@@QAEPAVCBrush@@PAV2@@Z ; CDC::SelectObject

; 843  :     pDC->SelectObject(pOldPen);

  00496	56		 push	 esi
  00497	8b cf		 mov	 ecx, edi
  00499	e8 00 00 00 00	 call	 ?SelectObject@CDC@@QAEPAVCPen@@PAV2@@Z ; CDC::SelectObject

; 844  :     brush.DeleteObject();

  0049e	8d 4d 90	 lea	 ecx, DWORD PTR _brush$[ebp]
  004a1	e8 00 00 00 00	 call	 ?DeleteObject@CGdiObject@@QAEHXZ ; CGdiObject::DeleteObject

; 845  :     pen.DeleteObject();

  004a6	8d 4d 98	 lea	 ecx, DWORD PTR _pen$[ebp]
  004a9	e8 00 00 00 00	 call	 ?DeleteObject@CGdiObject@@QAEHXZ ; CGdiObject::DeleteObject

; 847  :     if (pOldPalette && pDC->GetDeviceCaps(RASTERCAPS) & RC_PALETTE)

  004ae	8b 75 a0	 mov	 esi, DWORD PTR _pOldPalette$1$[ebp]
  004b1	85 f6		 test	 esi, esi
  004b3	74 1c		 je	 SHORT $LN21@DrawCell
; File C:\Program Files (x86)\Microsoft Visual Studio\2019\Community\VC\Tools\MSVC\14.29.30133\atlmfc\include\afxwin1.inl

; 334  : 	{ ASSERT(m_hAttribDC != NULL); return ::GetDeviceCaps(m_hAttribDC, nIndex); }

  004b5	6a 26		 push	 38			; 00000026H
  004b7	ff 77 08	 push	 DWORD PTR [edi+8]
  004ba	ff 15 00 00 00
	00		 call	 DWORD PTR __imp__GetDeviceCaps@8
; File D:\git\src\IBK\IBK_DRFN\ProjSrc\SrcChartEx\ChartAddIn\ChartDesignPropertyAddIn\ChartDesignPropertyAddIn\ColourPopup.cpp

; 847  :     if (pOldPalette && pDC->GetDeviceCaps(RASTERCAPS) & RC_PALETTE)

  004c0	a9 00 01 00 00	 test	 eax, 256		; 00000100H
  004c5	74 0a		 je	 SHORT $LN21@DrawCell

; 848  :         pDC->SelectPalette(pOldPalette, FALSE);

  004c7	6a 00		 push	 0
  004c9	56		 push	 esi
  004ca	8b cf		 mov	 ecx, edi
  004cc	e8 00 00 00 00	 call	 ?SelectPalette@CDC@@QAEPAVCPalette@@PAV2@H@Z ; CDC::SelectPalette
$LN21@DrawCell:
; File C:\Program Files (x86)\Microsoft Visual Studio\2019\Community\VC\Tools\MSVC\14.29.30133\atlmfc\include\afxwin1.inl

; 106  : 	{ }

  004d1	8d 4d 98	 lea	 ecx, DWORD PTR _pen$[ebp]
  004d4	c7 45 98 00 00
	00 00		 mov	 DWORD PTR _pen$[ebp], OFFSET ??_7CPen@@6B@
  004db	e8 00 00 00 00	 call	 ??1CGdiObject@@UAE@XZ	; CGdiObject::~CGdiObject

; 130  : 	{ }

  004e0	c7 45 90 00 00
	00 00		 mov	 DWORD PTR _brush$[ebp], OFFSET ??_7CBrush@@6B@
  004e7	8d 4d 90	 lea	 ecx, DWORD PTR _brush$[ebp]
$LN118@DrawCell:
; File D:\git\src\IBK\IBK_DRFN\ProjSrc\SrcChartEx\ChartAddIn\ChartDesignPropertyAddIn\ChartDesignPropertyAddIn\ColourPopup.cpp

; 849  : }

  004ea	e8 00 00 00 00	 call	 ??1CGdiObject@@UAE@XZ	; CGdiObject::~CGdiObject
$LN105@DrawCell:
  004ef	8b 4d f4	 mov	 ecx, DWORD PTR __$EHRec$[ebp]
  004f2	64 89 0d 00 00
	00 00		 mov	 DWORD PTR fs:0, ecx
  004f9	59		 pop	 ecx
  004fa	5f		 pop	 edi
  004fb	5e		 pop	 esi
  004fc	8b 4d f0	 mov	 ecx, DWORD PTR __$ArrayPad$[ebp]
  004ff	33 cd		 xor	 ecx, ebp
  00501	e8 00 00 00 00	 call	 @__security_check_cookie@4
  00506	8b e5		 mov	 esp, ebp
  00508	5d		 pop	 ebp
  00509	c2 08 00	 ret	 8
_TEXT	ENDS
;	COMDAT text$x
text$x	SEGMENT
__unwindfunclet$?DrawCell@CColourPopup@@IAEXPAVCDC@@H@Z$0:
  00000	8d 4d e8	 lea	 ecx, DWORD PTR _pen$6[ebp]
  00003	e9 00 00 00 00	 jmp	 ??1CPen@@UAE@XZ		; CPen::~CPen
__unwindfunclet$?DrawCell@CColourPopup@@IAEXPAVCDC@@H@Z$1:
  00008	8d 4d 90	 lea	 ecx, DWORD PTR _brush$[ebp]
  0000b	e9 00 00 00 00	 jmp	 ??1CBrush@@UAE@XZ	; CBrush::~CBrush
__unwindfunclet$?DrawCell@CColourPopup@@IAEXPAVCDC@@H@Z$2:
  00010	8d 4d 98	 lea	 ecx, DWORD PTR _pen$[ebp]
  00013	e9 00 00 00 00	 jmp	 ??1CPen@@UAE@XZ		; CPen::~CPen
  00018	cc		 int	 3
  00019	cc		 int	 3
  0001a	cc		 int	 3
  0001b	cc		 int	 3
  0001c	cc		 int	 3
__ehhandler$?DrawCell@CColourPopup@@IAEXPAVCDC@@H@Z:
  0001d	90		 npad	 1
  0001e	90		 npad	 1
  0001f	8b 54 24 08	 mov	 edx, DWORD PTR [esp+8]
  00023	8d 42 0c	 lea	 eax, DWORD PTR [edx+12]
  00026	8b 4a 90	 mov	 ecx, DWORD PTR [edx-112]
  00029	33 c8		 xor	 ecx, eax
  0002b	e8 00 00 00 00	 call	 @__security_check_cookie@4
  00030	8b 4a fc	 mov	 ecx, DWORD PTR [edx-4]
  00033	33 c8		 xor	 ecx, eax
  00035	e8 00 00 00 00	 call	 @__security_check_cookie@4
  0003a	b8 00 00 00 00	 mov	 eax, OFFSET __ehfuncinfo$?DrawCell@CColourPopup@@IAEXPAVCDC@@H@Z
  0003f	e9 00 00 00 00	 jmp	 ___CxxFrameHandler3
text$x	ENDS
?DrawCell@CColourPopup@@IAEXPAVCDC@@H@Z ENDP		; CColourPopup::DrawCell
; Function compile flags: /Ogtp
; File D:\git\src\IBK\IBK_DRFN\ProjSrc\SrcChartEx\ChartAddIn\ChartDesignPropertyAddIn\ChartDesignPropertyAddIn\ColourPopup.cpp
; File C:\Program Files (x86)\Microsoft Visual Studio\2019\Community\VC\Tools\MSVC\14.29.30133\atlmfc\include\afxdlgs.h
; File D:\git\src\IBK\IBK_DRFN\ProjSrc\SrcChartEx\ChartAddIn\ChartDesignPropertyAddIn\ChartDesignPropertyAddIn\ColourPopup.cpp
; File C:\Program Files (x86)\Microsoft Visual Studio\2019\Community\VC\Tools\MSVC\14.29.30133\atlmfc\include\afxdlgs.h
; File D:\git\src\IBK\IBK_DRFN\ProjSrc\SrcChartEx\ChartAddIn\ChartDesignPropertyAddIn\ChartDesignPropertyAddIn\ColourPopup.cpp
; File C:\Program Files (x86)\Microsoft Visual Studio\2019\Community\VC\Tools\MSVC\14.29.30133\atlmfc\include\afxwin2.inl
; File D:\git\src\IBK\IBK_DRFN\ProjSrc\SrcChartEx\ChartAddIn\ChartDesignPropertyAddIn\ChartDesignPropertyAddIn\ColourPopup.cpp
;	COMDAT ?EndSelection@CColourPopup@@IAEXH@Z
_TEXT	SEGMENT
_dlg$2 = -220						; size = 208
__$EHRec$ = -12						; size = 12
_nMessage$ = 8						; size = 4
?EndSelection@CColourPopup@@IAEXH@Z PROC		; CColourPopup::EndSelection, COMDAT
; _this$ = ecx

; 698  : {

  00000	55		 push	 ebp
  00001	8b ec		 mov	 ebp, esp
  00003	6a ff		 push	 -1
  00005	68 00 00 00 00	 push	 __ehhandler$?EndSelection@CColourPopup@@IAEXH@Z
  0000a	64 a1 00 00 00
	00		 mov	 eax, DWORD PTR fs:0
  00010	50		 push	 eax
  00011	81 ec d0 00 00
	00		 sub	 esp, 208		; 000000d0H
  00017	56		 push	 esi
  00018	57		 push	 edi
  00019	a1 00 00 00 00	 mov	 eax, DWORD PTR ___security_cookie
  0001e	33 c5		 xor	 eax, ebp
  00020	50		 push	 eax
  00021	8d 45 f4	 lea	 eax, DWORD PTR __$EHRec$[ebp]
  00024	64 a3 00 00 00
	00		 mov	 DWORD PTR fs:0, eax
  0002a	8b f1		 mov	 esi, ecx

; 699  :     ReleaseCapture();

  0002c	ff 15 00 00 00
	00		 call	 DWORD PTR __imp__ReleaseCapture@0

; 700  : 
; 701  :     // If custom text selected, perform a custom colour selection
; 702  :     if (nMessage != CPN_SELENDCANCEL && m_nCurrentSel == CUSTOM_BOX_VALUE)

  00032	8b 7d 08	 mov	 edi, DWORD PTR _nMessage$[ebp]
  00035	81 ff ed 07 00
	00		 cmp	 edi, 2029		; 000007edH
  0003b	74 73		 je	 SHORT $LN17@EndSelecti
  0003d	83 be 98 00 00
	00 fe		 cmp	 DWORD PTR [esi+152], -2	; fffffffeH
  00044	75 62		 jne	 SHORT $LN16@EndSelecti

; 703  :     {
; 704  :         CColorDialog dlg(m_crInitialColour, CC_FULLOPEN | CC_ANYCOLOR, this);

  00046	56		 push	 esi
  00047	68 02 01 00 00	 push	 258			; 00000102H
  0004c	ff b6 e8 00 00
	00		 push	 DWORD PTR [esi+232]
  00052	8d 8d 24 ff ff
	ff		 lea	 ecx, DWORD PTR _dlg$2[ebp]
  00058	e8 00 00 00 00	 call	 ??0CColorDialog@@QAE@KKPAVCWnd@@@Z ; CColorDialog::CColorDialog

; 705  : 
; 706  :         if(dlg.DoModal() == IDOK)

  0005d	8d 8d 24 ff ff
	ff		 lea	 ecx, DWORD PTR _dlg$2[ebp]
  00063	c7 45 fc 00 00
	00 00		 mov	 DWORD PTR __$EHRec$[ebp+8], 0
  0006a	e8 00 00 00 00	 call	 ?DoModal@CColorDialog@@UAEHXZ ; CColorDialog::DoModal
  0006f	83 f8 01	 cmp	 eax, 1
  00072	75 0b		 jne	 SHORT $LN3@EndSelecti

; 707  : 		{
; 708  :             m_crColour = dlg.GetColor();

  00074	8b 45 d8	 mov	 eax, DWORD PTR _dlg$2[ebp+180]
  00077	89 86 ec 00 00
	00		 mov	 DWORD PTR [esi+236], eax

; 709  : 		}

  0007d	eb 05		 jmp	 SHORT $LN4@EndSelecti
$LN3@EndSelecti:

; 710  :         else
; 711  : 		{
; 712  :             nMessage = CPN_SELENDCANCEL;

  0007f	bf ed 07 00 00	 mov	 edi, 2029		; 000007edH
$LN4@EndSelecti:
; File C:\Program Files (x86)\Microsoft Visual Studio\2019\Community\VC\Tools\MSVC\14.29.30133\atlmfc\include\afxdlgs.h

; 110  :     virtual ~CCommonDialog() {};

  00084	8d 8d 24 ff ff
	ff		 lea	 ecx, DWORD PTR _dlg$2[ebp]
; File D:\git\src\IBK\IBK_DRFN\ProjSrc\SrcChartEx\ChartAddIn\ChartDesignPropertyAddIn\ChartDesignPropertyAddIn\ColourPopup.cpp

; 714  :     } 

  0008a	c7 45 fc ff ff
	ff ff		 mov	 DWORD PTR __$EHRec$[ebp+8], -1
; File C:\Program Files (x86)\Microsoft Visual Studio\2019\Community\VC\Tools\MSVC\14.29.30133\atlmfc\include\afxdlgs.h

; 110  :     virtual ~CCommonDialog() {};

  00091	c7 85 24 ff ff
	ff 00 00 00 00	 mov	 DWORD PTR _dlg$2[ebp], OFFSET ??_7CCommonDialog@@6B@
  0009b	e8 00 00 00 00	 call	 ??1CDialog@@UAE@XZ	; CDialog::~CDialog
; File D:\git\src\IBK\IBK_DRFN\ProjSrc\SrcChartEx\ChartAddIn\ChartDesignPropertyAddIn\ChartDesignPropertyAddIn\ColourPopup.cpp

; 716  :     if (nMessage == CPN_SELENDCANCEL)

  000a0	81 ff ed 07 00
	00		 cmp	 edi, 2029		; 000007edH
  000a6	74 08		 je	 SHORT $LN17@EndSelecti
$LN16@EndSelecti:

; 717  :         m_crColour = m_crInitialColour;

  000a8	8b 86 ec 00 00
	00		 mov	 eax, DWORD PTR [esi+236]
  000ae	eb 0c		 jmp	 SHORT $LN5@EndSelecti
$LN17@EndSelecti:
  000b0	8b 86 e8 00 00
	00		 mov	 eax, DWORD PTR [esi+232]
  000b6	89 86 ec 00 00
	00		 mov	 DWORD PTR [esi+236], eax
$LN5@EndSelecti:
; File C:\Program Files (x86)\Microsoft Visual Studio\2019\Community\VC\Tools\MSVC\14.29.30133\atlmfc\include\afxwin2.inl

; 32   : 	{ ASSERT(::IsWindow(m_hWnd)); return ::SendMessage(m_hWnd, message, wParam, lParam); }

  000bc	6a 00		 push	 0
  000be	50		 push	 eax
  000bf	8b 86 90 01 00
	00		 mov	 eax, DWORD PTR [esi+400]
  000c5	57		 push	 edi
  000c6	ff 70 20	 push	 DWORD PTR [eax+32]
  000c9	ff 15 00 00 00
	00		 call	 DWORD PTR __imp__SendMessageA@16
; File D:\git\src\IBK\IBK_DRFN\ProjSrc\SrcChartEx\ChartAddIn\ChartDesignPropertyAddIn\ChartDesignPropertyAddIn\ColourPopup.cpp

; 721  :     DestroyWindow();

  000cf	8b 06		 mov	 eax, DWORD PTR [esi]
  000d1	8b ce		 mov	 ecx, esi
  000d3	ff 50 68	 call	 DWORD PTR [eax+104]

; 722  : }

  000d6	8b 4d f4	 mov	 ecx, DWORD PTR __$EHRec$[ebp]
  000d9	64 89 0d 00 00
	00 00		 mov	 DWORD PTR fs:0, ecx
  000e0	59		 pop	 ecx
  000e1	5f		 pop	 edi
  000e2	5e		 pop	 esi
  000e3	8b e5		 mov	 esp, ebp
  000e5	5d		 pop	 ebp
  000e6	c2 04 00	 ret	 4
_TEXT	ENDS
;	COMDAT text$x
text$x	SEGMENT
__unwindfunclet$?EndSelection@CColourPopup@@IAEXH@Z$0:
  00000	8d 8d 24 ff ff
	ff		 lea	 ecx, DWORD PTR _dlg$2[ebp]
  00006	e9 00 00 00 00	 jmp	 ??1CColorDialog@@UAE@XZ
  0000b	cc		 int	 3
  0000c	cc		 int	 3
  0000d	cc		 int	 3
  0000e	cc		 int	 3
  0000f	cc		 int	 3
__ehhandler$?EndSelection@CColourPopup@@IAEXH@Z:
  00010	90		 npad	 1
  00011	90		 npad	 1
  00012	8b 54 24 08	 mov	 edx, DWORD PTR [esp+8]
  00016	8d 42 0c	 lea	 eax, DWORD PTR [edx+12]
  00019	8b 8a 24 ff ff
	ff		 mov	 ecx, DWORD PTR [edx-220]
  0001f	33 c8		 xor	 ecx, eax
  00021	e8 00 00 00 00	 call	 @__security_check_cookie@4
  00026	b8 00 00 00 00	 mov	 eax, OFFSET __ehfuncinfo$?EndSelection@CColourPopup@@IAEXH@Z
  0002b	e9 00 00 00 00	 jmp	 ___CxxFrameHandler3
text$x	ENDS
?EndSelection@CColourPopup@@IAEXH@Z ENDP		; CColourPopup::EndSelection
; Function compile flags: /Ogtp
; File D:\git\src\IBK\IBK_DRFN\ProjSrc\SrcChartEx\ChartAddIn\ChartDesignPropertyAddIn\ChartDesignPropertyAddIn\ColourPopup.cpp
; File C:\Program Files (x86)\Microsoft Visual Studio\2019\Community\VC\Tools\MSVC\14.29.30133\atlmfc\include\afxwin2.inl
; File D:\git\src\IBK\IBK_DRFN\ProjSrc\SrcChartEx\ChartAddIn\ChartDesignPropertyAddIn\ChartDesignPropertyAddIn\ColourPopup.cpp
; File C:\Program Files (x86)\Microsoft Visual Studio\2019\Community\VC\Tools\MSVC\14.29.30133\atlmfc\include\afxwin2.inl
; File D:\git\src\IBK\IBK_DRFN\ProjSrc\SrcChartEx\ChartAddIn\ChartDesignPropertyAddIn\ChartDesignPropertyAddIn\ColourPopup.cpp
; File C:\Program Files (x86)\Microsoft Visual Studio\2019\Community\VC\Tools\MSVC\14.29.30133\atlmfc\include\afxwin2.inl
; File D:\git\src\IBK\IBK_DRFN\ProjSrc\SrcChartEx\ChartAddIn\ChartDesignPropertyAddIn\ChartDesignPropertyAddIn\ColourPopup.cpp
; File C:\Program Files (x86)\Microsoft Visual Studio\2019\Community\VC\Tools\MSVC\14.29.30133\atlmfc\include\afxwin2.inl
; File D:\git\src\IBK\IBK_DRFN\ProjSrc\SrcChartEx\ChartAddIn\ChartDesignPropertyAddIn\ChartDesignPropertyAddIn\ColourPopup.cpp
;	COMDAT ?ChangeSelection@CColourPopup@@IAEXH@Z
_TEXT	SEGMENT
_dc$ = -32						; size = 20
__$EHRec$ = -12						; size = 12
_nIndex$ = 8						; size = 4
?ChangeSelection@CColourPopup@@IAEXH@Z PROC		; CColourPopup::ChangeSelection, COMDAT
; _this$ = ecx

; 662  : {

  00000	55		 push	 ebp
  00001	8b ec		 mov	 ebp, esp
  00003	6a ff		 push	 -1
  00005	68 00 00 00 00	 push	 __ehhandler$?ChangeSelection@CColourPopup@@IAEXH@Z
  0000a	64 a1 00 00 00
	00		 mov	 eax, DWORD PTR fs:0
  00010	50		 push	 eax
  00011	83 ec 14	 sub	 esp, 20			; 00000014H
  00014	56		 push	 esi
  00015	57		 push	 edi
  00016	a1 00 00 00 00	 mov	 eax, DWORD PTR ___security_cookie
  0001b	33 c5		 xor	 eax, ebp
  0001d	50		 push	 eax
  0001e	8d 45 f4	 lea	 eax, DWORD PTR __$EHRec$[ebp]
  00021	64 a3 00 00 00
	00		 mov	 DWORD PTR fs:0, eax
  00027	8b f1		 mov	 esi, ecx

; 663  :     CClientDC dc(this);        // device context for drawing

  00029	56		 push	 esi
  0002a	8d 4d e0	 lea	 ecx, DWORD PTR _dc$[ebp]
  0002d	e8 00 00 00 00	 call	 ??0CClientDC@@QAE@PAVCWnd@@@Z ; CClientDC::CClientDC

; 664  : 
; 665  :     if (nIndex > m_nNumColours)

  00032	8b 8e 84 00 00
	00		 mov	 ecx, DWORD PTR [esi+132]

; 666  :         nIndex = CUSTOM_BOX_VALUE; 
; 667  : 
; 668  :     if ((m_nCurrentSel >= 0 && m_nCurrentSel < m_nNumColours) ||
; 669  :         m_nCurrentSel == CUSTOM_BOX_VALUE || m_nCurrentSel == DEFAULT_BOX_VALUE)

  00038	bf fe ff ff ff	 mov	 edi, -2			; fffffffeH
  0003d	39 4d 08	 cmp	 DWORD PTR _nIndex$[ebp], ecx
  00040	8b 86 98 00 00
	00		 mov	 eax, DWORD PTR [esi+152]
  00046	0f 4e 7d 08	 cmovle	 edi, DWORD PTR _nIndex$[ebp]
  0004a	c7 45 fc 00 00
	00 00		 mov	 DWORD PTR __$EHRec$[ebp+8], 0
  00051	85 c0		 test	 eax, eax
  00053	78 04		 js	 SHORT $LN5@ChangeSele
  00055	3b c1		 cmp	 eax, ecx
  00057	7c 0a		 jl	 SHORT $LN4@ChangeSele
$LN5@ChangeSele:
  00059	83 f8 fe	 cmp	 eax, -2			; fffffffeH
  0005c	74 05		 je	 SHORT $LN4@ChangeSele
  0005e	83 f8 fd	 cmp	 eax, -3			; fffffffdH
  00061	75 16		 jne	 SHORT $LN3@ChangeSele
$LN4@ChangeSele:

; 670  :     {
; 671  :         // Set Current selection as invalid and redraw old selection (this way
; 672  :         // the old selection will be drawn unselected)
; 673  :         int OldSel = m_nCurrentSel;
; 674  :         m_nCurrentSel = INVALID_COLOUR;
; 675  :         DrawCell(&dc, OldSel);

  00063	50		 push	 eax
  00064	8d 45 e0	 lea	 eax, DWORD PTR _dc$[ebp]
  00067	c7 86 98 00 00
	00 ff ff ff ff	 mov	 DWORD PTR [esi+152], -1
  00071	50		 push	 eax
  00072	8b ce		 mov	 ecx, esi
  00074	e8 00 00 00 00	 call	 ?DrawCell@CColourPopup@@IAEXPAVCDC@@H@Z ; CColourPopup::DrawCell
$LN3@ChangeSele:

; 676  :     }
; 677  : 
; 678  :     // Set the current selection as row/col and draw (it will be drawn selected)
; 679  :     m_nCurrentSel = nIndex;
; 680  :     DrawCell(&dc, m_nCurrentSel);

  00079	57		 push	 edi
  0007a	8d 45 e0	 lea	 eax, DWORD PTR _dc$[ebp]
  0007d	89 be 98 00 00
	00		 mov	 DWORD PTR [esi+152], edi
  00083	50		 push	 eax
  00084	8b ce		 mov	 ecx, esi
  00086	e8 00 00 00 00	 call	 ?DrawCell@CColourPopup@@IAEXPAVCDC@@H@Z ; CColourPopup::DrawCell

; 681  : 
; 682  :     // Store the current colour
; 683  :     if (m_nCurrentSel == CUSTOM_BOX_VALUE)

  0008b	8b 86 98 00 00
	00		 mov	 eax, DWORD PTR [esi+152]
  00091	83 f8 fe	 cmp	 eax, -2			; fffffffeH
  00094	75 0a		 jne	 SHORT $LN6@ChangeSele
; File C:\Program Files (x86)\Microsoft Visual Studio\2019\Community\VC\Tools\MSVC\14.29.30133\atlmfc\include\afxwin2.inl

; 32   : 	{ ASSERT(::IsWindow(m_hWnd)); return ::SendMessage(m_hWnd, message, wParam, lParam); }

  00096	6a 00		 push	 0
  00098	ff b6 e8 00 00
	00		 push	 DWORD PTR [esi+232]
; File D:\git\src\IBK\IBK_DRFN\ProjSrc\SrcChartEx\ChartAddIn\ChartDesignPropertyAddIn\ChartDesignPropertyAddIn\ColourPopup.cpp

; 684  :         m_pParent->SendMessage(CPN_SELCHANGE, (WPARAM) m_crInitialColour, 0);

  0009e	eb 2a		 jmp	 SHORT $LN21@ChangeSele
$LN6@ChangeSele:

; 685  :     else if (m_nCurrentSel == DEFAULT_BOX_VALUE)

  000a0	83 f8 fd	 cmp	 eax, -3			; fffffffdH
  000a3	75 13		 jne	 SHORT $LN8@ChangeSele
; File C:\Program Files (x86)\Microsoft Visual Studio\2019\Community\VC\Tools\MSVC\14.29.30133\atlmfc\include\afxwin2.inl

; 32   : 	{ ASSERT(::IsWindow(m_hWnd)); return ::SendMessage(m_hWnd, message, wParam, lParam); }

  000a5	6a 00		 push	 0
; File D:\git\src\IBK\IBK_DRFN\ProjSrc\SrcChartEx\ChartAddIn\ChartDesignPropertyAddIn\ChartDesignPropertyAddIn\ColourPopup.cpp

; 687  :         m_crColour = CLR_DEFAULT;

  000a7	c7 86 ec 00 00
	00 00 00 00 ff	 mov	 DWORD PTR [esi+236], -16777216 ; ff000000H
; File C:\Program Files (x86)\Microsoft Visual Studio\2019\Community\VC\Tools\MSVC\14.29.30133\atlmfc\include\afxwin2.inl

; 32   : 	{ ASSERT(::IsWindow(m_hWnd)); return ::SendMessage(m_hWnd, message, wParam, lParam); }

  000b1	68 00 00 00 ff	 push	 -16777216		; ff000000H
; File D:\git\src\IBK\IBK_DRFN\ProjSrc\SrcChartEx\ChartAddIn\ChartDesignPropertyAddIn\ChartDesignPropertyAddIn\ColourPopup.cpp

; 689  :     }

  000b6	eb 12		 jmp	 SHORT $LN21@ChangeSele
$LN8@ChangeSele:

; 90   : 	return m_colorTableMgr.GetColor(nIndex);

  000b8	50		 push	 eax
  000b9	e8 00 00 00 00	 call	 ?GetColor@CColorTableMgr@@SAKH@Z ; CColorTableMgr::GetColor
  000be	83 c4 04	 add	 esp, 4

; 690  :     else
; 691  :     {
; 692  :         m_crColour = GetColour(m_nCurrentSel);

  000c1	89 86 ec 00 00
	00		 mov	 DWORD PTR [esi+236], eax
; File C:\Program Files (x86)\Microsoft Visual Studio\2019\Community\VC\Tools\MSVC\14.29.30133\atlmfc\include\afxwin2.inl

; 32   : 	{ ASSERT(::IsWindow(m_hWnd)); return ::SendMessage(m_hWnd, message, wParam, lParam); }

  000c7	6a 00		 push	 0
  000c9	50		 push	 eax
$LN21@ChangeSele:
; File D:\git\src\IBK\IBK_DRFN\ProjSrc\SrcChartEx\ChartAddIn\ChartDesignPropertyAddIn\ChartDesignPropertyAddIn\ColourPopup.cpp

; 695  : }

  000ca	8b 86 90 01 00
	00		 mov	 eax, DWORD PTR [esi+400]
  000d0	68 e9 07 00 00	 push	 2025			; 000007e9H
  000d5	ff 70 20	 push	 DWORD PTR [eax+32]
  000d8	ff 15 00 00 00
	00		 call	 DWORD PTR __imp__SendMessageA@16
  000de	8d 4d e0	 lea	 ecx, DWORD PTR _dc$[ebp]
  000e1	e8 00 00 00 00	 call	 ??1CClientDC@@UAE@XZ	; CClientDC::~CClientDC
  000e6	8b 4d f4	 mov	 ecx, DWORD PTR __$EHRec$[ebp]
  000e9	64 89 0d 00 00
	00 00		 mov	 DWORD PTR fs:0, ecx
  000f0	59		 pop	 ecx
  000f1	5f		 pop	 edi
  000f2	5e		 pop	 esi
  000f3	8b e5		 mov	 esp, ebp
  000f5	5d		 pop	 ebp
  000f6	c2 04 00	 ret	 4
_TEXT	ENDS
;	COMDAT text$x
text$x	SEGMENT
__unwindfunclet$?ChangeSelection@CColourPopup@@IAEXH@Z$0:
  00000	8d 4d e0	 lea	 ecx, DWORD PTR _dc$[ebp]
  00003	e9 00 00 00 00	 jmp	 ??1CClientDC@@UAE@XZ	; CClientDC::~CClientDC
  00008	cc		 int	 3
  00009	cc		 int	 3
  0000a	cc		 int	 3
  0000b	cc		 int	 3
  0000c	cc		 int	 3
__ehhandler$?ChangeSelection@CColourPopup@@IAEXH@Z:
  0000d	90		 npad	 1
  0000e	90		 npad	 1
  0000f	8b 54 24 08	 mov	 edx, DWORD PTR [esp+8]
  00013	8d 42 0c	 lea	 eax, DWORD PTR [edx+12]
  00016	8b 4a e0	 mov	 ecx, DWORD PTR [edx-32]
  00019	33 c8		 xor	 ecx, eax
  0001b	e8 00 00 00 00	 call	 @__security_check_cookie@4
  00020	b8 00 00 00 00	 mov	 eax, OFFSET __ehfuncinfo$?ChangeSelection@CColourPopup@@IAEXH@Z
  00025	e9 00 00 00 00	 jmp	 ___CxxFrameHandler3
text$x	ENDS
?ChangeSelection@CColourPopup@@IAEXH@Z ENDP		; CColourPopup::ChangeSelection
; Function compile flags: /Ogtp
; File D:\git\src\IBK\IBK_DRFN\ProjSrc\SrcChartEx\ChartAddIn\ChartDesignPropertyAddIn\ChartDesignPropertyAddIn\ColourPopup.cpp
; File D:\git\src\IBK\IBK_DRFN\ProjSrc\SrcChartEx\ChartAddIn\ChartDesignPropertyAddIn\Include_Chart\Dll_Load\IMetaTable.h
; File C:\Program Files (x86)\Microsoft Visual Studio\2019\Community\VC\Tools\MSVC\14.29.30133\atlmfc\include\afxwin1.inl
; File D:\git\src\IBK\IBK_DRFN\ProjSrc\SrcChartEx\ChartAddIn\ChartDesignPropertyAddIn\Include_Chart\Dll_Load\IMetaTable.h
; File C:\Program Files (x86)\Microsoft Visual Studio\2019\Community\VC\Tools\MSVC\14.29.30133\atlmfc\include\afxwin1.inl
; File D:\git\src\IBK\IBK_DRFN\ProjSrc\SrcChartEx\ChartAddIn\ChartDesignPropertyAddIn\ChartDesignPropertyAddIn\ColourPopup.cpp
; File C:\Program Files (x86)\Microsoft Visual Studio\2019\Community\VC\Tools\MSVC\14.29.30133\atlmfc\include\atltypes.h
; File D:\git\src\IBK\IBK_DRFN\ProjSrc\SrcChartEx\ChartAddIn\ChartDesignPropertyAddIn\ChartDesignPropertyAddIn\ColourPopup.cpp
; File C:\Program Files (x86)\Microsoft Visual Studio\2019\Community\VC\Tools\MSVC\14.29.30133\atlmfc\include\atlsimpstr.h
; File D:\git\src\IBK\IBK_DRFN\ProjSrc\SrcChartEx\ChartAddIn\ChartDesignPropertyAddIn\ChartDesignPropertyAddIn\ColourPopup.cpp
; File D:\git\src\IBK\IBK_DRFN\ProjSrc\SrcChartEx\ChartAddIn\ChartDesignPropertyAddIn\Include_Chart\Dll_Load\IMetaTable.h
; File C:\Program Files (x86)\Microsoft Visual Studio\2019\Community\VC\Tools\MSVC\14.29.30133\atlmfc\include\afxwin1.inl
; File D:\git\src\IBK\IBK_DRFN\ProjSrc\SrcChartEx\ChartAddIn\ChartDesignPropertyAddIn\ChartDesignPropertyAddIn\ColourPopup.cpp
;	COMDAT ?CreateToolTips@CColourPopup@@IAEXXZ
_TEXT	SEGMENT
___mlrs__$ = -52					; size = 4
___mlrs__$1$ = -48					; size = 4
_this$GSCopy$1$ = -44					; size = 4
$T2 = -40						; size = 4
_p1$1$ = -36						; size = 4
$T3 = -36						; size = 4
$T4 = -36						; size = 4
_rect$5 = -32						; size = 16
__$ArrayPad$ = -16					; size = 4
__$EHRec$ = -12						; size = 12
?CreateToolTips@CColourPopup@@IAEXXZ PROC		; CColourPopup::CreateToolTips, COMDAT
; _this$ = ecx

; 646  : {

  00000	55		 push	 ebp
  00001	8b ec		 mov	 ebp, esp
  00003	6a ff		 push	 -1
  00005	68 00 00 00 00	 push	 __ehhandler$?CreateToolTips@CColourPopup@@IAEXXZ
  0000a	64 a1 00 00 00
	00		 mov	 eax, DWORD PTR fs:0
  00010	50		 push	 eax
  00011	83 ec 28	 sub	 esp, 40			; 00000028H
  00014	a1 00 00 00 00	 mov	 eax, DWORD PTR ___security_cookie
  00019	33 c5		 xor	 eax, ebp
  0001b	89 45 f0	 mov	 DWORD PTR __$ArrayPad$[ebp], eax
  0001e	56		 push	 esi
  0001f	57		 push	 edi
  00020	50		 push	 eax
  00021	8d 45 f4	 lea	 eax, DWORD PTR __$EHRec$[ebp]
  00024	64 a3 00 00 00
	00		 mov	 DWORD PTR fs:0, eax
  0002a	8b f9		 mov	 edi, ecx
  0002c	89 7d d4	 mov	 DWORD PTR _this$GSCopy$1$[ebp], edi

; 647  :     // Create the tool tip
; 648  : 	ML_SET_LANGUAGE_RES();

  0002f	e8 00 00 00 00	 call	 ?AfxGetStaticModuleState@@YGPAVAFX_MODULE_STATE@@XZ ; AfxGetStaticModuleState
  00034	8b 8f 94 01 00
	00		 mov	 ecx, DWORD PTR [edi+404]
  0003a	89 4d dc	 mov	 DWORD PTR _p1$1$[ebp], ecx
  0003d	8b 70 08	 mov	 esi, DWORD PTR [eax+8]
; File D:\git\src\IBK\IBK_DRFN\ProjSrc\SrcChartEx\ChartAddIn\ChartDesignPropertyAddIn\Include_Chart\Dll_Load\IMetaTable.h

; 936  : 	DECLARE_FUNCTION2(	LoadResourceDLL,				HMODULE, AfxGetStaticModuleState()->m_hCurrentInstanceHandle, HWND, HMODULE);

  00040	a1 04 00 00 00	 mov	 eax, DWORD PTR ?g_iMetaTable@@3VIMetaTable@@A+4
  00045	85 c0		 test	 eax, eax
  00047	74 4c		 je	 SHORT $LN14@CreateTool
  00049	ba 80 0d 00 00	 mov	 edx, 3456		; 00000d80H
  0004e	66 3b 15 94 00
	00 00		 cmp	 dx, WORD PTR ?g_iMetaTable@@3VIMetaTable@@A+148
  00055	74 2c		 je	 SHORT $LN52@CreateTool
  00057	68 00 00 00 00	 push	 OFFSET ??_C@_0BA@ENJOCHIO@LoadResourceDLL@
  0005c	50		 push	 eax
  0005d	c7 05 90 00 00
	00 00 00 00 00	 mov	 DWORD PTR ?g_iMetaTable@@3VIMetaTable@@A+144, 0
  00067	ff 15 00 00 00
	00		 call	 DWORD PTR __imp__GetProcAddress@8
  0006d	b9 80 0d 00 00	 mov	 ecx, 3456		; 00000d80H
  00072	a3 90 00 00 00	 mov	 DWORD PTR ?g_iMetaTable@@3VIMetaTable@@A+144, eax
  00077	66 89 0d 94 00
	00 00		 mov	 WORD PTR ?g_iMetaTable@@3VIMetaTable@@A+148, cx
  0007e	8b 4d dc	 mov	 ecx, DWORD PTR _p1$1$[ebp]
  00081	eb 05		 jmp	 SHORT $LN13@CreateTool
$LN52@CreateTool:
  00083	a1 90 00 00 00	 mov	 eax, DWORD PTR ?g_iMetaTable@@3VIMetaTable@@A+144
$LN13@CreateTool:
  00088	85 c0		 test	 eax, eax
  0008a	74 09		 je	 SHORT $LN14@CreateTool
  0008c	56		 push	 esi
  0008d	51		 push	 ecx
  0008e	ff d0		 call	 eax
  00090	83 c4 08	 add	 esp, 8
  00093	eb 08		 jmp	 SHORT $LN54@CreateTool
$LN14@CreateTool:
  00095	e8 00 00 00 00	 call	 ?AfxGetStaticModuleState@@YGPAVAFX_MODULE_STATE@@XZ ; AfxGetStaticModuleState
  0009a	8b 40 08	 mov	 eax, DWORD PTR [eax+8]
$LN54@CreateTool:
; File C:\Program Files (x86)\Microsoft Visual Studio\2019\Community\VC\Tools\MSVC\14.29.30133\atlmfc\include\afxwin1.inl

; 25   : 		return afxCurrentResourceHandle; }

  0009d	89 45 dc	 mov	 DWORD PTR $T3[ebp], eax
  000a0	e8 00 00 00 00	 call	 ?AfxGetModuleState@@YGPAVAFX_MODULE_STATE@@XZ ; AfxGetModuleState
; File D:\git\src\IBK\IBK_DRFN\ProjSrc\SrcChartEx\ChartAddIn\ChartDesignPropertyAddIn\Include_Chart\Dll_Load\IMetaTable.h

; 1032 : 		m_hInstance = AfxGetResourceHandle();

  000a5	8b 70 0c	 mov	 esi, DWORD PTR [eax+12]
  000a8	89 75 d0	 mov	 DWORD PTR ___mlrs__$1$[ebp], esi
  000ab	89 75 cc	 mov	 DWORD PTR ___mlrs__$[ebp], esi
; File C:\Program Files (x86)\Microsoft Visual Studio\2019\Community\VC\Tools\MSVC\14.29.30133\atlmfc\include\afxwin1.inl

; 27   : 	{ ASSERT(hInstResource != NULL); afxCurrentResourceHandle = hInstResource; }

  000ae	e8 00 00 00 00	 call	 ?AfxGetModuleState@@YGPAVAFX_MODULE_STATE@@XZ ; AfxGetModuleState
  000b3	8b 4d dc	 mov	 ecx, DWORD PTR $T3[ebp]
  000b6	89 48 0c	 mov	 DWORD PTR [eax+12], ecx
; File D:\git\src\IBK\IBK_DRFN\ProjSrc\SrcChartEx\ChartAddIn\ChartDesignPropertyAddIn\ChartDesignPropertyAddIn\ColourPopup.cpp

; 649  :     if (!m_ToolTip.Create(this)) return;

  000b9	8b 87 f0 00 00
	00		 mov	 eax, DWORD PTR [edi+240]
  000bf	8d 8f f0 00 00
	00		 lea	 ecx, DWORD PTR [edi+240]
  000c5	6a 00		 push	 0
  000c7	57		 push	 edi
  000c8	c7 45 fc 00 00
	00 00		 mov	 DWORD PTR __$EHRec$[ebp+8], 0
  000cf	8b 80 6c 01 00
	00		 mov	 eax, DWORD PTR [eax+364]
  000d5	ff d0		 call	 eax
  000d7	85 c0		 test	 eax, eax
  000d9	74 67		 je	 SHORT $LN3@CreateTool

; 650  : 
; 651  :     // Add a tool for each cell
; 652  :     for (int i = 0; i < m_nNumColours; i++)

  000db	83 bf 84 00 00
	00 00		 cmp	 DWORD PTR [edi+132], 0
  000e2	7e 5e		 jle	 SHORT $LN3@CreateTool

; 655  :         if (!GetCellRect(i, rect)) continue;

  000e4	8d 45 e0	 lea	 eax, DWORD PTR _rect$5[ebp]
  000e7	33 f6		 xor	 esi, esi
  000e9	89 45 d8	 mov	 DWORD PTR $T2[ebp], eax
  000ec	0f 1f 40 00	 npad	 4
$LL4@CreateTool:
  000f0	8d 45 d8	 lea	 eax, DWORD PTR $T2[ebp]
  000f3	0f 57 c0	 xorps	 xmm0, xmm0
  000f6	50		 push	 eax
  000f7	56		 push	 esi
  000f8	8b cf		 mov	 ecx, edi
; File C:\Program Files (x86)\Microsoft Visual Studio\2019\Community\VC\Tools\MSVC\14.29.30133\atlmfc\include\atltypes.h

; 528  : 	left = 0;

  000fa	0f 11 45 e0	 movups	 XMMWORD PTR _rect$5[ebp], xmm0
; File D:\git\src\IBK\IBK_DRFN\ProjSrc\SrcChartEx\ChartAddIn\ChartDesignPropertyAddIn\ChartDesignPropertyAddIn\ColourPopup.cpp

; 655  :         if (!GetCellRect(i, rect)) continue;

  000fe	e8 00 00 00 00	 call	 ?GetCellRect@CColourPopup@@IAEHHABQAUtagRECT@@@Z ; CColourPopup::GetCellRect
  00103	85 c0		 test	 eax, eax
  00105	74 2f		 je	 SHORT $LN2@CreateTool

; 95   : 	return m_colorTableMgr.GetColorText(nIndex);

  00107	8d 45 dc	 lea	 eax, DWORD PTR $T4[ebp]
  0010a	56		 push	 esi
  0010b	50		 push	 eax
  0010c	e8 00 00 00 00	 call	 ?GetColorText@CColorTableMgr@@SA?AV?$CStringT@DV?$StrTraitMFC_DLL@DV?$ChTraitsCRT@D@ATL@@@@@ATL@@H@Z ; CColorTableMgr::GetColorText
; File C:\Program Files (x86)\Microsoft Visual Studio\2019\Community\VC\Tools\MSVC\14.29.30133\atlmfc\include\atlsimpstr.h

; 377  : 		return( m_pszData );

  00111	8b 7d dc	 mov	 edi, DWORD PTR $T4[ebp]
; File D:\git\src\IBK\IBK_DRFN\ProjSrc\SrcChartEx\ChartAddIn\ChartDesignPropertyAddIn\ChartDesignPropertyAddIn\ColourPopup.cpp

; 656  : 		LPCTSTR szColorName = (LPCTSTR) GetColourName(i);

  00114	8d 4d dc	 lea	 ecx, DWORD PTR $T4[ebp]

; 95   : 	return m_colorTableMgr.GetColorText(nIndex);

  00117	83 c4 08	 add	 esp, 8

; 656  : 		LPCTSTR szColorName = (LPCTSTR) GetColourName(i);

  0011a	ff 15 00 00 00
	00		 call	 DWORD PTR __imp_??1?$CStringT@DV?$StrTraitMFC_DLL@DV?$ChTraitsCRT@D@ATL@@@@@ATL@@QAE@XZ

; 657  :         m_ToolTip.AddTool(this, szColorName, rect, 1);

  00120	6a 01		 push	 1
  00122	8d 45 e0	 lea	 eax, DWORD PTR _rect$5[ebp]
  00125	50		 push	 eax
  00126	57		 push	 edi
  00127	8b 7d d4	 mov	 edi, DWORD PTR _this$GSCopy$1$[ebp]
  0012a	57		 push	 edi
  0012b	8d 8f f0 00 00
	00		 lea	 ecx, DWORD PTR [edi+240]
  00131	e8 00 00 00 00	 call	 ?AddTool@CToolTipCtrl@@QAEHPAVCWnd@@PBDPBUtagRECT@@I@Z ; CToolTipCtrl::AddTool
$LN2@CreateTool:

; 650  : 
; 651  :     // Add a tool for each cell
; 652  :     for (int i = 0; i < m_nNumColours; i++)

  00136	46		 inc	 esi
  00137	3b b7 84 00 00
	00		 cmp	 esi, DWORD PTR [edi+132]
  0013d	7c b1		 jl	 SHORT $LL4@CreateTool
  0013f	8b 75 d0	 mov	 esi, DWORD PTR ___mlrs__$1$[ebp]
$LN3@CreateTool:
; File D:\git\src\IBK\IBK_DRFN\ProjSrc\SrcChartEx\ChartAddIn\ChartDesignPropertyAddIn\Include_Chart\Dll_Load\IMetaTable.h

; 1036 : 	{

  00142	c7 45 fc 02 00
	00 00		 mov	 DWORD PTR __$EHRec$[ebp+8], 2
; File C:\Program Files (x86)\Microsoft Visual Studio\2019\Community\VC\Tools\MSVC\14.29.30133\atlmfc\include\afxwin1.inl

; 27   : 	{ ASSERT(hInstResource != NULL); afxCurrentResourceHandle = hInstResource; }

  00149	e8 00 00 00 00	 call	 ?AfxGetModuleState@@YGPAVAFX_MODULE_STATE@@XZ ; AfxGetModuleState
  0014e	89 70 0c	 mov	 DWORD PTR [eax+12], esi
; File D:\git\src\IBK\IBK_DRFN\ProjSrc\SrcChartEx\ChartAddIn\ChartDesignPropertyAddIn\ChartDesignPropertyAddIn\ColourPopup.cpp

; 659  : }

  00151	8b 4d f4	 mov	 ecx, DWORD PTR __$EHRec$[ebp]
  00154	64 89 0d 00 00
	00 00		 mov	 DWORD PTR fs:0, ecx
  0015b	59		 pop	 ecx
  0015c	5f		 pop	 edi
  0015d	5e		 pop	 esi
  0015e	8b 4d f0	 mov	 ecx, DWORD PTR __$ArrayPad$[ebp]
  00161	33 cd		 xor	 ecx, ebp
  00163	e8 00 00 00 00	 call	 @__security_check_cookie@4
  00168	8b e5		 mov	 esp, ebp
  0016a	5d		 pop	 ebp
  0016b	c3		 ret	 0
_TEXT	ENDS
;	COMDAT text$x
text$x	SEGMENT
__unwindfunclet$?CreateToolTips@CColourPopup@@IAEXXZ$0:
  00000	8d 4d cc	 lea	 ecx, DWORD PTR ___mlrs__$[ebp]
  00003	e9 00 00 00 00	 jmp	 ??1CMultiLanguageResourceSetter@@QAE@XZ ; CMultiLanguageResourceSetter::~CMultiLanguageResourceSetter
  00008	cc		 int	 3
  00009	cc		 int	 3
  0000a	cc		 int	 3
  0000b	cc		 int	 3
  0000c	cc		 int	 3
__ehhandler$?CreateToolTips@CColourPopup@@IAEXXZ:
  0000d	90		 npad	 1
  0000e	90		 npad	 1
  0000f	8b 54 24 08	 mov	 edx, DWORD PTR [esp+8]
  00013	8d 42 0c	 lea	 eax, DWORD PTR [edx+12]
  00016	8b 4a cc	 mov	 ecx, DWORD PTR [edx-52]
  00019	33 c8		 xor	 ecx, eax
  0001b	e8 00 00 00 00	 call	 @__security_check_cookie@4
  00020	8b 4a fc	 mov	 ecx, DWORD PTR [edx-4]
  00023	33 c8		 xor	 ecx, eax
  00025	e8 00 00 00 00	 call	 @__security_check_cookie@4
  0002a	b8 00 00 00 00	 mov	 eax, OFFSET __ehfuncinfo$?CreateToolTips@CColourPopup@@IAEXXZ
  0002f	e9 00 00 00 00	 jmp	 ___CxxFrameHandler3
text$x	ENDS
?CreateToolTips@CColourPopup@@IAEXXZ ENDP		; CColourPopup::CreateToolTips
; Function compile flags: /Ogtp
; File D:\git\src\IBK\IBK_DRFN\ProjSrc\SrcChartEx\ChartAddIn\ChartDesignPropertyAddIn\ChartDesignPropertyAddIn\ColourPopup.cpp
; File C:\Program Files (x86)\Microsoft Visual Studio\2019\Community\VC\Tools\MSVC\14.29.30133\atlmfc\include\atlsimpstr.h
; File D:\git\src\IBK\IBK_DRFN\ProjSrc\SrcChartEx\ChartAddIn\ChartDesignPropertyAddIn\ChartDesignPropertyAddIn\ColourPopup.cpp
; File C:\Program Files (x86)\Microsoft Visual Studio\2019\Community\VC\Tools\MSVC\14.29.30133\atlmfc\include\atltypes.h
; File D:\git\src\IBK\IBK_DRFN\ProjSrc\SrcChartEx\ChartAddIn\ChartDesignPropertyAddIn\ChartDesignPropertyAddIn\ColourPopup.cpp
; File C:\Program Files (x86)\Microsoft Visual Studio\2019\Community\VC\Tools\MSVC\14.29.30133\atlmfc\include\atlsimpstr.h
; File D:\git\src\IBK\IBK_DRFN\ProjSrc\SrcChartEx\ChartAddIn\ChartDesignPropertyAddIn\ChartDesignPropertyAddIn\ColourPopup.cpp
; File C:\Program Files (x86)\Microsoft Visual Studio\2019\Community\VC\Tools\MSVC\14.29.30133\atlmfc\include\atlsimpstr.h
; File C:\Program Files (x86)\Microsoft Visual Studio\2019\Community\VC\Tools\MSVC\14.29.30133\atlmfc\include\atltypes.h
; File D:\git\src\IBK\IBK_DRFN\ProjSrc\SrcChartEx\ChartAddIn\ChartDesignPropertyAddIn\ChartDesignPropertyAddIn\ColourPopup.cpp
; File C:\Program Files (x86)\Microsoft Visual Studio\2019\Community\VC\Tools\MSVC\14.29.30133\atlmfc\include\atltypes.h
; File C:\Program Files (x86)\Microsoft Visual Studio\2019\Community\VC\Tools\MSVC\14.29.30133\atlmfc\include\atlsimpstr.h
; File D:\git\src\IBK\IBK_DRFN\ProjSrc\SrcChartEx\ChartAddIn\ChartDesignPropertyAddIn\ChartDesignPropertyAddIn\ColourPopup.cpp
; File C:\Program Files (x86)\Microsoft Visual Studio\2019\Community\VC\Tools\MSVC\14.29.30133\atlmfc\include\afxwin1.inl
; File D:\git\src\IBK\IBK_DRFN\ProjSrc\SrcChartEx\ChartAddIn\ChartDesignPropertyAddIn\ChartDesignPropertyAddIn\ColourPopup.cpp
; File C:\Program Files (x86)\Microsoft Visual Studio\2019\Community\VC\Tools\MSVC\14.29.30133\atlmfc\include\atlsimpstr.h
; File D:\git\src\IBK\IBK_DRFN\ProjSrc\SrcChartEx\ChartAddIn\ChartDesignPropertyAddIn\ChartDesignPropertyAddIn\ColourPopup.cpp
; File C:\Program Files (x86)\Microsoft Visual Studio\2019\Community\VC\Tools\MSVC\14.29.30133\atlmfc\include\afxwin1.inl
; File D:\git\src\IBK\IBK_DRFN\ProjSrc\SrcChartEx\ChartAddIn\ChartDesignPropertyAddIn\ChartDesignPropertyAddIn\ColourPopup.cpp
; File C:\Program Files (x86)\Microsoft Visual Studio\2019\Community\VC\Tools\MSVC\14.29.30133\atlmfc\include\atltypes.h
; File D:\git\src\IBK\IBK_DRFN\ProjSrc\SrcChartEx\ChartAddIn\ChartDesignPropertyAddIn\ChartDesignPropertyAddIn\ColourPopup.cpp
; File C:\Program Files (x86)\Microsoft Visual Studio\2019\Community\VC\Tools\MSVC\14.29.30133\atlmfc\include\afxwin2.inl
; File C:\Program Files (x86)\Microsoft Visual Studio\2019\Community\VC\Tools\MSVC\14.29.30133\atlmfc\include\atltypes.h
; File C:\Program Files (x86)\Microsoft Visual Studio\2019\Community\VC\Tools\MSVC\14.29.30133\atlmfc\include\afxwin2.inl
; File D:\git\src\IBK\IBK_DRFN\ProjSrc\SrcChartEx\ChartAddIn\ChartDesignPropertyAddIn\ChartDesignPropertyAddIn\ColourPopup.cpp
; File C:\Program Files (x86)\Microsoft Visual Studio\2019\Community\VC\Tools\MSVC\14.29.30133\atlmfc\include\atltypes.h
; File D:\git\src\IBK\IBK_DRFN\ProjSrc\SrcChartEx\ChartAddIn\ChartDesignPropertyAddIn\ChartDesignPropertyAddIn\ColourPopup.cpp
; File C:\Program Files (x86)\Microsoft Visual Studio\2019\Community\VC\Tools\MSVC\14.29.30133\atlmfc\include\atltypes.h
; File D:\git\src\IBK\IBK_DRFN\ProjSrc\SrcChartEx\ChartAddIn\ChartDesignPropertyAddIn\ChartDesignPropertyAddIn\ColourPopup.cpp
; File C:\Program Files (x86)\Microsoft Visual Studio\2019\Community\VC\Tools\MSVC\14.29.30133\atlmfc\include\atltypes.h
; File D:\git\src\IBK\IBK_DRFN\ProjSrc\SrcChartEx\ChartAddIn\ChartDesignPropertyAddIn\ChartDesignPropertyAddIn\ColourPopup.cpp
; File C:\Program Files (x86)\Microsoft Visual Studio\2019\Community\VC\Tools\MSVC\14.29.30133\atlmfc\include\atltypes.h
; File D:\git\src\IBK\IBK_DRFN\ProjSrc\SrcChartEx\ChartAddIn\ChartDesignPropertyAddIn\ChartDesignPropertyAddIn\ColourPopup.cpp
; File C:\Program Files (x86)\Microsoft Visual Studio\2019\Community\VC\Tools\MSVC\14.29.30133\atlmfc\include\atltypes.h
; File D:\git\src\IBK\IBK_DRFN\ProjSrc\SrcChartEx\ChartAddIn\ChartDesignPropertyAddIn\ChartDesignPropertyAddIn\ColourPopup.cpp
; File C:\Program Files (x86)\Microsoft Visual Studio\2019\Community\VC\Tools\MSVC\14.29.30133\atlmfc\include\atltypes.h
; File D:\git\src\IBK\IBK_DRFN\ProjSrc\SrcChartEx\ChartAddIn\ChartDesignPropertyAddIn\ChartDesignPropertyAddIn\ColourPopup.cpp
; File C:\Program Files (x86)\Microsoft Visual Studio\2019\Community\VC\Tools\MSVC\14.29.30133\atlmfc\include\atltypes.h
; File D:\git\src\IBK\IBK_DRFN\ProjSrc\SrcChartEx\ChartAddIn\ChartDesignPropertyAddIn\ChartDesignPropertyAddIn\ColourPopup.cpp
; File C:\Program Files (x86)\Microsoft Visual Studio\2019\Community\VC\Tools\MSVC\14.29.30133\atlmfc\include\atltypes.h
; File D:\git\src\IBK\IBK_DRFN\ProjSrc\SrcChartEx\ChartAddIn\ChartDesignPropertyAddIn\ChartDesignPropertyAddIn\ColourPopup.cpp
; File C:\Program Files (x86)\Microsoft Visual Studio\2019\Community\VC\Tools\MSVC\14.29.30133\atlmfc\include\atltypes.h
; File D:\git\src\IBK\IBK_DRFN\ProjSrc\SrcChartEx\ChartAddIn\ChartDesignPropertyAddIn\ChartDesignPropertyAddIn\ColourPopup.cpp
; File C:\Program Files (x86)\Microsoft Visual Studio\2019\Community\VC\Tools\MSVC\14.29.30133\atlmfc\include\atltypes.h
; File D:\git\src\IBK\IBK_DRFN\ProjSrc\SrcChartEx\ChartAddIn\ChartDesignPropertyAddIn\ChartDesignPropertyAddIn\ColourPopup.cpp
; File C:\Program Files (x86)\Microsoft Visual Studio\2019\Community\VC\Tools\MSVC\14.29.30133\atlmfc\include\atltypes.h
; File D:\git\src\IBK\IBK_DRFN\ProjSrc\SrcChartEx\ChartAddIn\ChartDesignPropertyAddIn\ChartDesignPropertyAddIn\ColourPopup.cpp
; File C:\Program Files (x86)\Microsoft Visual Studio\2019\Community\VC\Tools\MSVC\14.29.30133\atlmfc\include\atltypes.h
; File D:\git\src\IBK\IBK_DRFN\ProjSrc\SrcChartEx\ChartAddIn\ChartDesignPropertyAddIn\ChartDesignPropertyAddIn\ColourPopup.cpp
; File C:\Program Files (x86)\Microsoft Visual Studio\2019\Community\VC\Tools\MSVC\14.29.30133\atlmfc\include\atltypes.h
; File D:\git\src\IBK\IBK_DRFN\ProjSrc\SrcChartEx\ChartAddIn\ChartDesignPropertyAddIn\ChartDesignPropertyAddIn\ColourPopup.cpp
; File C:\Program Files (x86)\Microsoft Visual Studio\2019\Community\VC\Tools\MSVC\14.29.30133\atlmfc\include\atltypes.h
; File D:\git\src\IBK\IBK_DRFN\ProjSrc\SrcChartEx\ChartAddIn\ChartDesignPropertyAddIn\ChartDesignPropertyAddIn\ColourPopup.cpp
; File C:\Program Files (x86)\Microsoft Visual Studio\2019\Community\VC\Tools\MSVC\14.29.30133\atlmfc\include\atltypes.h
; File D:\git\src\IBK\IBK_DRFN\ProjSrc\SrcChartEx\ChartAddIn\ChartDesignPropertyAddIn\ChartDesignPropertyAddIn\ColourPopup.cpp
; File C:\Program Files (x86)\Microsoft Visual Studio\2019\Community\VC\Tools\MSVC\14.29.30133\atlmfc\include\afxwin2.inl
; File C:\Program Files (x86)\Microsoft Visual Studio\2019\Community\VC\Tools\MSVC\14.29.30133\atlmfc\include\atltypes.h
; File C:\Program Files (x86)\Microsoft Visual Studio\2019\Community\VC\Tools\MSVC\14.29.30133\atlmfc\include\afxwin2.inl
; File C:\Program Files (x86)\Microsoft Visual Studio\2019\Community\VC\Tools\MSVC\14.29.30133\atlmfc\include\atltypes.h
; File D:\git\src\IBK\IBK_DRFN\ProjSrc\SrcChartEx\ChartAddIn\ChartDesignPropertyAddIn\ChartDesignPropertyAddIn\ColourPopup.cpp
; File C:\Program Files (x86)\Microsoft Visual Studio\2019\Community\VC\Tools\MSVC\14.29.30133\atlmfc\include\atltypes.h
; File C:\Program Files (x86)\Microsoft Visual Studio\2019\Community\VC\Tools\MSVC\14.29.30133\atlmfc\include\afxwin2.inl
; File D:\git\src\IBK\IBK_DRFN\ProjSrc\SrcChartEx\ChartAddIn\ChartDesignPropertyAddIn\ChartDesignPropertyAddIn\ColourPopup.cpp
;	COMDAT ?SetWindowSize@CColourPopup@@IAEXXZ
_TEXT	SEGMENT
_dc$4 = -84						; size = 20
$T5 = -64						; size = 4
tv1360 = -60						; size = 4
tv1358 = -60						; size = 4
_pOldFont$1$ = -60					; size = 4
_size$6 = -56						; size = 8
_TextSize$3$ = -52					; size = 4
_TextSize$2$ = -52					; size = 4
_rect$ = -48						; size = 16
_ParentRect$7 = -32					; size = 16
_size$8 = -24						; size = 8
__$ArrayPad$ = -16					; size = 4
__$EHRec$ = -12						; size = 12
?SetWindowSize@CColourPopup@@IAEXXZ PROC		; CColourPopup::SetWindowSize, COMDAT
; _this$ = ecx

; 552  : {

  00000	55		 push	 ebp
  00001	8b ec		 mov	 ebp, esp
  00003	6a ff		 push	 -1
  00005	68 00 00 00 00	 push	 __ehhandler$?SetWindowSize@CColourPopup@@IAEXXZ
  0000a	64 a1 00 00 00
	00		 mov	 eax, DWORD PTR fs:0
  00010	50		 push	 eax
  00011	83 ec 48	 sub	 esp, 72			; 00000048H
  00014	a1 00 00 00 00	 mov	 eax, DWORD PTR ___security_cookie
  00019	33 c5		 xor	 eax, ebp
  0001b	89 45 f0	 mov	 DWORD PTR __$ArrayPad$[ebp], eax
  0001e	53		 push	 ebx
  0001f	56		 push	 esi
  00020	57		 push	 edi
  00021	50		 push	 eax
  00022	8d 45 f4	 lea	 eax, DWORD PTR __$EHRec$[ebp]
  00025	64 a3 00 00 00
	00		 mov	 DWORD PTR fs:0, eax
  0002b	8b f9		 mov	 edi, ecx
; File C:\Program Files (x86)\Microsoft Visual Studio\2019\Community\VC\Tools\MSVC\14.29.30133\atlmfc\include\atlsimpstr.h

; 519  : 		return( GetData()->nDataLength );

  0002d	8b 87 a4 00 00
	00		 mov	 eax, DWORD PTR [edi+164]
; File D:\git\src\IBK\IBK_DRFN\ProjSrc\SrcChartEx\ChartAddIn\ChartDesignPropertyAddIn\ChartDesignPropertyAddIn\ColourPopup.cpp

; 556  :     if (m_strCustomText.GetLength() || m_strDefaultText.GetLength())

  00033	8d b7 a0 00 00
	00		 lea	 esi, DWORD PTR [edi+160]
; File C:\Program Files (x86)\Microsoft Visual Studio\2019\Community\VC\Tools\MSVC\14.29.30133\atlmfc\include\atltypes.h

; 304  : 	cx = 0;

  00039	33 db		 xor	 ebx, ebx

; 305  : 	cy = 0;

  0003b	89 5d cc	 mov	 DWORD PTR _TextSize$3$[ebp], ebx
; File D:\git\src\IBK\IBK_DRFN\ProjSrc\SrcChartEx\ChartAddIn\ChartDesignPropertyAddIn\ChartDesignPropertyAddIn\ColourPopup.cpp

; 556  :     if (m_strCustomText.GetLength() || m_strDefaultText.GetLength())

  0003e	39 58 f4	 cmp	 DWORD PTR [eax-12], ebx
  00041	75 0e		 jne	 SHORT $LN114@SetWindowS
; File C:\Program Files (x86)\Microsoft Visual Studio\2019\Community\VC\Tools\MSVC\14.29.30133\atlmfc\include\atlsimpstr.h

; 519  : 		return( GetData()->nDataLength );

  00043	8b 06		 mov	 eax, DWORD PTR [esi]

; 800  : 		return( reinterpret_cast< CStringData* >( m_pszData )-1 );

  00045	89 75 c0	 mov	 DWORD PTR $T5[ebp], esi
; File D:\git\src\IBK\IBK_DRFN\ProjSrc\SrcChartEx\ChartAddIn\ChartDesignPropertyAddIn\ChartDesignPropertyAddIn\ColourPopup.cpp

; 556  :     if (m_strCustomText.GetLength() || m_strDefaultText.GetLength())

  00048	39 58 f4	 cmp	 DWORD PTR [eax-12], ebx
  0004b	0f 84 ab 00 00
	00		 je	 $LN2@SetWindowS
$LN114@SetWindowS:

; 557  :     {
; 558  :         CClientDC dc(this);

  00051	57		 push	 edi
  00052	8d 4d ac	 lea	 ecx, DWORD PTR _dc$4[ebp]
  00055	89 75 c0	 mov	 DWORD PTR $T5[ebp], esi
  00058	e8 00 00 00 00	 call	 ??0CClientDC@@QAE@PAVCWnd@@@Z ; CClientDC::CClientDC

; 559  :         CFont* pOldFont = (CFont*) dc.SelectObject(&m_Font);

  0005d	8d 87 d8 00 00
	00		 lea	 eax, DWORD PTR [edi+216]
  00063	c7 45 fc 00 00
	00 00		 mov	 DWORD PTR __$EHRec$[ebp+8], 0
  0006a	50		 push	 eax
  0006b	8d 4d ac	 lea	 ecx, DWORD PTR _dc$4[ebp]
  0006e	e8 00 00 00 00	 call	 ?SelectObject@CDC@@UAEPAVCFont@@PAV2@@Z ; CDC::SelectObject
; File C:\Program Files (x86)\Microsoft Visual Studio\2019\Community\VC\Tools\MSVC\14.29.30133\atlmfc\include\atlsimpstr.h

; 519  : 		return( GetData()->nDataLength );

  00073	8b 8f a4 00 00
	00		 mov	 ecx, DWORD PTR [edi+164]
; File C:\Program Files (x86)\Microsoft Visual Studio\2019\Community\VC\Tools\MSVC\14.29.30133\atlmfc\include\atltypes.h

; 312  : 	cx = initCX;

  00079	33 db		 xor	 ebx, ebx
; File D:\git\src\IBK\IBK_DRFN\ProjSrc\SrcChartEx\ChartAddIn\ChartDesignPropertyAddIn\ChartDesignPropertyAddIn\ColourPopup.cpp

; 559  :         CFont* pOldFont = (CFont*) dc.SelectObject(&m_Font);

  0007b	89 45 c4	 mov	 DWORD PTR _pOldFont$1$[ebp], eax
; File C:\Program Files (x86)\Microsoft Visual Studio\2019\Community\VC\Tools\MSVC\14.29.30133\atlmfc\include\atltypes.h

; 313  : 	cy = initCY;

  0007e	89 5d cc	 mov	 DWORD PTR _TextSize$2$[ebp], ebx
; File C:\Program Files (x86)\Microsoft Visual Studio\2019\Community\VC\Tools\MSVC\14.29.30133\atlmfc\include\atlsimpstr.h

; 519  : 		return( GetData()->nDataLength );

  00081	8b 51 f4	 mov	 edx, DWORD PTR [ecx-12]
; File D:\git\src\IBK\IBK_DRFN\ProjSrc\SrcChartEx\ChartAddIn\ChartDesignPropertyAddIn\ChartDesignPropertyAddIn\ColourPopup.cpp

; 563  :         if (m_strCustomText.GetLength())

  00084	85 d2		 test	 edx, edx
  00086	74 18		 je	 SHORT $LN4@SetWindowS
; File C:\Program Files (x86)\Microsoft Visual Studio\2019\Community\VC\Tools\MSVC\14.29.30133\atlmfc\include\afxwin1.inl

; 639  : 		VERIFY(::GetTextExtentPoint32(m_hAttribDC, str, (int)str.GetLength(), &size));

  00088	8d 45 c8	 lea	 eax, DWORD PTR _size$6[ebp]
  0008b	50		 push	 eax
  0008c	52		 push	 edx
  0008d	51		 push	 ecx
  0008e	ff 75 b4	 push	 DWORD PTR _dc$4[ebp+8]
  00091	ff 15 00 00 00
	00		 call	 DWORD PTR __imp__GetTextExtentPoint32A@16
; File D:\git\src\IBK\IBK_DRFN\ProjSrc\SrcChartEx\ChartAddIn\ChartDesignPropertyAddIn\ChartDesignPropertyAddIn\ColourPopup.cpp

; 564  :             TextSize = dc.GetTextExtent(m_strCustomText);

  00097	8b 45 cc	 mov	 eax, DWORD PTR _size$6[ebp+4]
  0009a	8b 5d c8	 mov	 ebx, DWORD PTR _size$6[ebp]
  0009d	89 45 cc	 mov	 DWORD PTR _TextSize$2$[ebp], eax
$LN4@SetWindowS:
; File C:\Program Files (x86)\Microsoft Visual Studio\2019\Community\VC\Tools\MSVC\14.29.30133\atlmfc\include\atlsimpstr.h

; 519  : 		return( GetData()->nDataLength );

  000a0	8b 06		 mov	 eax, DWORD PTR [esi]
  000a2	8b 48 f4	 mov	 ecx, DWORD PTR [eax-12]
; File D:\git\src\IBK\IBK_DRFN\ProjSrc\SrcChartEx\ChartAddIn\ChartDesignPropertyAddIn\ChartDesignPropertyAddIn\ColourPopup.cpp

; 567  :         if (m_strDefaultText.GetLength())

  000a5	85 c9		 test	 ecx, ecx
  000a7	74 23		 je	 SHORT $LN7@SetWindowS
; File C:\Program Files (x86)\Microsoft Visual Studio\2019\Community\VC\Tools\MSVC\14.29.30133\atlmfc\include\afxwin1.inl

; 639  : 		VERIFY(::GetTextExtentPoint32(m_hAttribDC, str, (int)str.GetLength(), &size));

  000a9	8d 55 e8	 lea	 edx, DWORD PTR _size$8[ebp]
  000ac	52		 push	 edx
  000ad	51		 push	 ecx
  000ae	50		 push	 eax
  000af	ff 75 b4	 push	 DWORD PTR _dc$4[ebp+8]
  000b2	ff 15 00 00 00
	00		 call	 DWORD PTR __imp__GetTextExtentPoint32A@16
; File D:\git\src\IBK\IBK_DRFN\ProjSrc\SrcChartEx\ChartAddIn\ChartDesignPropertyAddIn\ChartDesignPropertyAddIn\ColourPopup.cpp

; 570  :             if (DefaultSize.cx > TextSize.cx) TextSize.cx = DefaultSize.cx;

  000b8	39 5d e8	 cmp	 DWORD PTR _size$8[ebp], ebx

; 571  :             if (DefaultSize.cy > TextSize.cy) TextSize.cy = DefaultSize.cy;

  000bb	8b 4d cc	 mov	 ecx, DWORD PTR _TextSize$2$[ebp]
  000be	0f 4f 5d e8	 cmovg	 ebx, DWORD PTR _size$8[ebp]
  000c2	39 4d ec	 cmp	 DWORD PTR _size$8[ebp+4], ecx
  000c5	0f 4f 4d ec	 cmovg	 ecx, DWORD PTR _size$8[ebp+4]
  000c9	89 4d cc	 mov	 DWORD PTR _TextSize$2$[ebp], ecx
$LN7@SetWindowS:

; 572  :         }
; 573  : 
; 574  :         dc.SelectObject(pOldFont);

  000cc	ff 75 c4	 push	 DWORD PTR _pOldFont$1$[ebp]
  000cf	8d 4d ac	 lea	 ecx, DWORD PTR _dc$4[ebp]
  000d2	e8 00 00 00 00	 call	 ?SelectObject@CDC@@UAEPAVCFont@@PAV2@@Z ; CDC::SelectObject

; 575  :         TextSize += CSize(2*m_nMargin,2*m_nMargin);

  000d7	8b 87 94 00 00
	00		 mov	 eax, DWORD PTR [edi+148]

; 578  :         TextSize.cy += 2*m_nMargin + 2;

  000dd	8b 4d cc	 mov	 ecx, DWORD PTR _TextSize$2$[ebp]
  000e0	03 c0		 add	 eax, eax
  000e2	83 c1 02	 add	 ecx, 2

; 579  :     }

  000e5	c7 45 fc ff ff
	ff ff		 mov	 DWORD PTR __$EHRec$[ebp+8], -1
; File C:\Program Files (x86)\Microsoft Visual Studio\2019\Community\VC\Tools\MSVC\14.29.30133\atlmfc\include\atltypes.h

; 344  : 	cx += size.cx;

  000ec	03 d8		 add	 ebx, eax
; File D:\git\src\IBK\IBK_DRFN\ProjSrc\SrcChartEx\ChartAddIn\ChartDesignPropertyAddIn\ChartDesignPropertyAddIn\ColourPopup.cpp

; 578  :         TextSize.cy += 2*m_nMargin + 2;

  000ee	8d 04 41	 lea	 eax, DWORD PTR [ecx+eax*2]

; 579  :     }

  000f1	8d 4d ac	 lea	 ecx, DWORD PTR _dc$4[ebp]
  000f4	89 45 cc	 mov	 DWORD PTR _TextSize$3$[ebp], eax
  000f7	e8 00 00 00 00	 call	 ??1CClientDC@@UAE@XZ	; CClientDC::~CClientDC
$LN2@SetWindowS:

; 580  : 
; 581  :     // Get the number of columns and rows
; 582  :     //m_nNumColumns = (int) sqrt((double)m_nNumColours);    // for a square window (yuk)
; 583  :     m_nNumColumns = 24;
; 584  :     m_nNumRows = m_nNumColours / m_nNumColumns;

  000fc	8b 87 84 00 00
	00		 mov	 eax, DWORD PTR [edi+132]
  00102	b9 18 00 00 00	 mov	 ecx, 24			; 00000018H
  00107	99		 cdq
  00108	f7 f9		 idiv	 ecx
  0010a	c7 87 88 00 00
	00 18 00 00 00	 mov	 DWORD PTR [edi+136], 24	; 00000018H
  00114	89 87 8c 00 00
	00		 mov	 DWORD PTR [edi+140], eax

; 585  :     if (m_nNumColours % m_nNumColumns) m_nNumRows++;

  0011a	85 d2		 test	 edx, edx
  0011c	74 07		 je	 SHORT $LN8@SetWindowS
  0011e	40		 inc	 eax
  0011f	89 87 8c 00 00
	00		 mov	 DWORD PTR [edi+140], eax
$LN8@SetWindowS:
; File C:\Program Files (x86)\Microsoft Visual Studio\2019\Community\VC\Tools\MSVC\14.29.30133\atlmfc\include\afxwin2.inl

; 84   : 	{ ASSERT(::IsWindow(m_hWnd)); ::GetWindowRect(m_hWnd, lpRect); }

  00125	8d 45 d0	 lea	 eax, DWORD PTR _rect$[ebp]
  00128	0f 57 c0	 xorps	 xmm0, xmm0
  0012b	50		 push	 eax
  0012c	ff 77 20	 push	 DWORD PTR [edi+32]
; File C:\Program Files (x86)\Microsoft Visual Studio\2019\Community\VC\Tools\MSVC\14.29.30133\atlmfc\include\atltypes.h

; 528  : 	left = 0;

  0012f	0f 11 45 d0	 movups	 XMMWORD PTR _rect$[ebp], xmm0
; File C:\Program Files (x86)\Microsoft Visual Studio\2019\Community\VC\Tools\MSVC\14.29.30133\atlmfc\include\afxwin2.inl

; 84   : 	{ ASSERT(::IsWindow(m_hWnd)); ::GetWindowRect(m_hWnd, lpRect); }

  00133	ff 15 00 00 00
	00		 call	 DWORD PTR __imp__GetWindowRect@8
; File D:\git\src\IBK\IBK_DRFN\ProjSrc\SrcChartEx\ChartAddIn\ChartDesignPropertyAddIn\ChartDesignPropertyAddIn\ColourPopup.cpp

; 591  :     m_WindowRect.SetRect(rect.left, rect.top, 

  00139	8b 8f 90 00 00
	00		 mov	 ecx, DWORD PTR [edi+144]
  0013f	8b 87 8c 00 00
	00		 mov	 eax, DWORD PTR [edi+140]
  00145	8b b7 94 00 00
	00		 mov	 esi, DWORD PTR [edi+148]
  0014b	8b 55 d4	 mov	 edx, DWORD PTR _rect$[ebp+4]
  0014e	03 f6		 add	 esi, esi
  00150	0f af c1	 imul	 eax, ecx
  00153	03 c2		 add	 eax, edx
  00155	03 c6		 add	 eax, esi
; File C:\Program Files (x86)\Microsoft Visual Studio\2019\Community\VC\Tools\MSVC\14.29.30133\atlmfc\include\atltypes.h

; 657  : 	::SetRect(this, x1, y1, x2, y2);

  00157	50		 push	 eax
; File D:\git\src\IBK\IBK_DRFN\ProjSrc\SrcChartEx\ChartAddIn\ChartDesignPropertyAddIn\ChartDesignPropertyAddIn\ColourPopup.cpp

; 591  :     m_WindowRect.SetRect(rect.left, rect.top, 

  00158	8b 87 88 00 00
	00		 mov	 eax, DWORD PTR [edi+136]
  0015e	0f af c1	 imul	 eax, ecx
  00161	8b 4d d0	 mov	 ecx, DWORD PTR _rect$[ebp]
  00164	03 c1		 add	 eax, ecx
  00166	03 c6		 add	 eax, esi
; File C:\Program Files (x86)\Microsoft Visual Studio\2019\Community\VC\Tools\MSVC\14.29.30133\atlmfc\include\atltypes.h

; 657  : 	::SetRect(this, x1, y1, x2, y2);

  00168	8d b7 c8 00 00
	00		 lea	 esi, DWORD PTR [edi+200]
  0016e	50		 push	 eax
  0016f	52		 push	 edx
  00170	51		 push	 ecx
  00171	56		 push	 esi
  00172	ff 15 00 00 00
	00		 call	 DWORD PTR __imp__SetRect@20
; File D:\git\src\IBK\IBK_DRFN\ProjSrc\SrcChartEx\ChartAddIn\ChartDesignPropertyAddIn\ChartDesignPropertyAddIn\ColourPopup.cpp

; 597  :     if (m_strDefaultText.GetLength()) 

  00178	8b 4d c0	 mov	 ecx, DWORD PTR $T5[ebp]
  0017b	8b 01		 mov	 eax, DWORD PTR [ecx]
  0017d	83 78 f4 00	 cmp	 DWORD PTR [eax-12], 0
  00181	74 5a		 je	 SHORT $LN120@SetWindowS
; File C:\Program Files (x86)\Microsoft Visual Studio\2019\Community\VC\Tools\MSVC\14.29.30133\atlmfc\include\atltypes.h

; 576  : 	return right - left;

  00183	8b 46 08	 mov	 eax, DWORD PTR [esi+8]
  00186	8b 16		 mov	 edx, DWORD PTR [esi]
  00188	2b c2		 sub	 eax, edx
; File D:\git\src\IBK\IBK_DRFN\ProjSrc\SrcChartEx\ChartAddIn\ChartDesignPropertyAddIn\ChartDesignPropertyAddIn\ColourPopup.cpp

; 599  :         if (TextSize.cx > m_WindowRect.Width())

  0018a	3b d8		 cmp	 ebx, eax
  0018c	7e 0a		 jle	 SHORT $LN119@SetWindowS

; 600  :             m_WindowRect.right = m_WindowRect.left + TextSize.cx;

  0018e	03 da		 add	 ebx, edx
  00190	89 9f d0 00 00
	00		 mov	 DWORD PTR [edi+208], ebx
  00196	eb 06		 jmp	 SHORT $LN116@SetWindowS
$LN119@SetWindowS:
  00198	8b 9f d0 00 00
	00		 mov	 ebx, DWORD PTR [edi+208]
$LN116@SetWindowS:

; 601  :         TextSize.cx = m_WindowRect.Width()-2*m_nMargin;

  0019e	8b 8f 94 00 00
	00		 mov	 ecx, DWORD PTR [edi+148]
  001a4	2b da		 sub	 ebx, edx
  001a6	8d 04 09	 lea	 eax, DWORD PTR [ecx+ecx]
  001a9	2b d8		 sub	 ebx, eax

; 604  :         m_DefaultTextRect.SetRect(m_nMargin, m_nMargin, 

  001ab	03 45 cc	 add	 eax, DWORD PTR _TextSize$3$[ebp]
; File C:\Program Files (x86)\Microsoft Visual Studio\2019\Community\VC\Tools\MSVC\14.29.30133\atlmfc\include\atltypes.h

; 657  : 	::SetRect(this, x1, y1, x2, y2);

  001ae	50		 push	 eax
; File D:\git\src\IBK\IBK_DRFN\ProjSrc\SrcChartEx\ChartAddIn\ChartDesignPropertyAddIn\ChartDesignPropertyAddIn\ColourPopup.cpp

; 604  :         m_DefaultTextRect.SetRect(m_nMargin, m_nMargin, 

  001af	8d 04 19	 lea	 eax, DWORD PTR [ecx+ebx]
; File C:\Program Files (x86)\Microsoft Visual Studio\2019\Community\VC\Tools\MSVC\14.29.30133\atlmfc\include\atltypes.h

; 657  : 	::SetRect(this, x1, y1, x2, y2);

  001b2	50		 push	 eax
  001b3	51		 push	 ecx
  001b4	51		 push	 ecx
; File D:\git\src\IBK\IBK_DRFN\ProjSrc\SrcChartEx\ChartAddIn\ChartDesignPropertyAddIn\ChartDesignPropertyAddIn\ColourPopup.cpp

; 604  :         m_DefaultTextRect.SetRect(m_nMargin, m_nMargin, 

  001b5	8d 87 b8 00 00
	00		 lea	 eax, DWORD PTR [edi+184]
; File C:\Program Files (x86)\Microsoft Visual Studio\2019\Community\VC\Tools\MSVC\14.29.30133\atlmfc\include\atltypes.h

; 657  : 	::SetRect(this, x1, y1, x2, y2);

  001bb	50		 push	 eax
  001bc	ff 15 00 00 00
	00		 call	 DWORD PTR __imp__SetRect@20
; File D:\git\src\IBK\IBK_DRFN\ProjSrc\SrcChartEx\ChartAddIn\ChartDesignPropertyAddIn\ChartDesignPropertyAddIn\ColourPopup.cpp

; 606  :         m_WindowRect.bottom += m_DefaultTextRect.Height() + 2*m_nMargin;

  001c2	8b 8f c4 00 00
	00		 mov	 ecx, DWORD PTR [edi+196]
  001c8	2b 8f bc 00 00
	00		 sub	 ecx, DWORD PTR [edi+188]
  001ce	8b 87 94 00 00
	00		 mov	 eax, DWORD PTR [edi+148]
  001d4	8d 04 41	 lea	 eax, DWORD PTR [ecx+eax*2]
  001d7	01 87 d4 00 00
	00		 add	 DWORD PTR [edi+212], eax
$LN120@SetWindowS:

; 607  :     }
; 608  : 
; 609  :     // if custom text, then expand window if necessary, and set text width as
; 610  :     // window width
; 611  :     if (m_strCustomText.GetLength()) 

  001dd	8b 87 a4 00 00
	00		 mov	 eax, DWORD PTR [edi+164]
  001e3	83 78 f4 00	 cmp	 DWORD PTR [eax-12], 0
  001e7	74 6c		 je	 SHORT $LN122@SetWindowS
; File C:\Program Files (x86)\Microsoft Visual Studio\2019\Community\VC\Tools\MSVC\14.29.30133\atlmfc\include\atltypes.h

; 576  : 	return right - left;

  001e9	8b 0e		 mov	 ecx, DWORD PTR [esi]
  001eb	8b 46 08	 mov	 eax, DWORD PTR [esi+8]
  001ee	2b c1		 sub	 eax, ecx
  001f0	89 4d c4	 mov	 DWORD PTR tv1358[ebp], ecx
; File D:\git\src\IBK\IBK_DRFN\ProjSrc\SrcChartEx\ChartAddIn\ChartDesignPropertyAddIn\ChartDesignPropertyAddIn\ColourPopup.cpp

; 613  :         if (TextSize.cx > m_WindowRect.Width())

  001f3	3b d8		 cmp	 ebx, eax
  001f5	7e 0a		 jle	 SHORT $LN121@SetWindowS

; 614  :             m_WindowRect.right = m_WindowRect.left + TextSize.cx;

  001f7	03 d9		 add	 ebx, ecx
  001f9	89 9f d0 00 00
	00		 mov	 DWORD PTR [edi+208], ebx
  001ff	eb 06		 jmp	 SHORT $LN12@SetWindowS
$LN121@SetWindowS:
  00201	8b 9f d0 00 00
	00		 mov	 ebx, DWORD PTR [edi+208]
$LN12@SetWindowS:

; 615  :         TextSize.cx = m_WindowRect.Width()-2*m_nMargin;

  00207	8b b7 94 00 00
	00		 mov	 esi, DWORD PTR [edi+148]
; File C:\Program Files (x86)\Microsoft Visual Studio\2019\Community\VC\Tools\MSVC\14.29.30133\atlmfc\include\atltypes.h

; 657  : 	::SetRect(this, x1, y1, x2, y2);

  0020d	8b c6		 mov	 eax, esi

; 581  : 	return bottom - top;

  0020f	8b 8f cc 00 00
	00		 mov	 ecx, DWORD PTR [edi+204]

; 657  : 	::SetRect(this, x1, y1, x2, y2);

  00215	2b de		 sub	 ebx, esi
; File D:\git\src\IBK\IBK_DRFN\ProjSrc\SrcChartEx\ChartAddIn\ChartDesignPropertyAddIn\ChartDesignPropertyAddIn\ColourPopup.cpp

; 618  :         m_CustomTextRect.SetRect(m_nMargin, m_WindowRect.Height(), 

  00217	8b 97 d4 00 00
	00		 mov	 edx, DWORD PTR [edi+212]
; File C:\Program Files (x86)\Microsoft Visual Studio\2019\Community\VC\Tools\MSVC\14.29.30133\atlmfc\include\atltypes.h

; 657  : 	::SetRect(this, x1, y1, x2, y2);

  0021d	2b c1		 sub	 eax, ecx
; File D:\git\src\IBK\IBK_DRFN\ProjSrc\SrcChartEx\ChartAddIn\ChartDesignPropertyAddIn\ChartDesignPropertyAddIn\ColourPopup.cpp

; 618  :         m_CustomTextRect.SetRect(m_nMargin, m_WindowRect.Height(), 

  0021f	2b 5d c4	 sub	 ebx, DWORD PTR tv1358[ebp]
  00222	03 c2		 add	 eax, edx
  00224	03 45 cc	 add	 eax, DWORD PTR _TextSize$3$[ebp]
; File C:\Program Files (x86)\Microsoft Visual Studio\2019\Community\VC\Tools\MSVC\14.29.30133\atlmfc\include\atltypes.h

; 581  : 	return bottom - top;

  00227	2b d1		 sub	 edx, ecx

; 657  : 	::SetRect(this, x1, y1, x2, y2);

  00229	50		 push	 eax
  0022a	53		 push	 ebx
  0022b	52		 push	 edx
  0022c	56		 push	 esi
; File D:\git\src\IBK\IBK_DRFN\ProjSrc\SrcChartEx\ChartAddIn\ChartDesignPropertyAddIn\ChartDesignPropertyAddIn\ColourPopup.cpp

; 618  :         m_CustomTextRect.SetRect(m_nMargin, m_WindowRect.Height(), 

  0022d	8d 87 a8 00 00
	00		 lea	 eax, DWORD PTR [edi+168]
; File C:\Program Files (x86)\Microsoft Visual Studio\2019\Community\VC\Tools\MSVC\14.29.30133\atlmfc\include\atltypes.h

; 657  : 	::SetRect(this, x1, y1, x2, y2);

  00233	50		 push	 eax
  00234	ff 15 00 00 00
	00		 call	 DWORD PTR __imp__SetRect@20
; File D:\git\src\IBK\IBK_DRFN\ProjSrc\SrcChartEx\ChartAddIn\ChartDesignPropertyAddIn\ChartDesignPropertyAddIn\ColourPopup.cpp

; 621  :         m_WindowRect.bottom += m_CustomTextRect.Height() + 2*m_nMargin;

  0023a	8b 8f b4 00 00
	00		 mov	 ecx, DWORD PTR [edi+180]
  00240	2b 8f ac 00 00
	00		 sub	 ecx, DWORD PTR [edi+172]
  00246	8b 87 94 00 00
	00		 mov	 eax, DWORD PTR [edi+148]
  0024c	8d 04 41	 lea	 eax, DWORD PTR [ecx+eax*2]
  0024f	01 87 d4 00 00
	00		 add	 DWORD PTR [edi+212], eax
$LN122@SetWindowS:

; 622  :    }
; 623  : 
; 624  :     // Need to check it'll fit on screen: Too far right?
; 625  :     CSize ScreenSize(::GetSystemMetrics(SM_CXSCREEN), ::GetSystemMetrics(SM_CYSCREEN));

  00255	8b 35 00 00 00
	00		 mov	 esi, DWORD PTR __imp__GetSystemMetrics@4
  0025b	6a 01		 push	 1
  0025d	ff d6		 call	 esi
  0025f	6a 00		 push	 0
  00261	89 45 c4	 mov	 DWORD PTR tv1360[ebp], eax
  00264	ff d6		 call	 esi

; 626  :     if (m_WindowRect.right > ScreenSize.cx)

  00266	8b 8f d0 00 00
	00		 mov	 ecx, DWORD PTR [edi+208]
  0026c	8d 9f c8 00 00
	00		 lea	 ebx, DWORD PTR [edi+200]
  00272	8b 35 00 00 00
	00		 mov	 esi, DWORD PTR __imp__OffsetRect@12
  00278	3b c8		 cmp	 ecx, eax
  0027a	7e 08		 jle	 SHORT $LN13@SetWindowS
; File C:\Program Files (x86)\Microsoft Visual Studio\2019\Community\VC\Tools\MSVC\14.29.30133\atlmfc\include\atltypes.h

; 710  : 	::OffsetRect(this, x, y);

  0027c	6a 00		 push	 0
; File D:\git\src\IBK\IBK_DRFN\ProjSrc\SrcChartEx\ChartAddIn\ChartDesignPropertyAddIn\ChartDesignPropertyAddIn\ColourPopup.cpp

; 627  :         m_WindowRect.OffsetRect(-(m_WindowRect.right - ScreenSize.cx), 0);

  0027e	2b c1		 sub	 eax, ecx
; File C:\Program Files (x86)\Microsoft Visual Studio\2019\Community\VC\Tools\MSVC\14.29.30133\atlmfc\include\atltypes.h

; 710  : 	::OffsetRect(this, x, y);

  00280	50		 push	 eax
  00281	53		 push	 ebx
  00282	ff d6		 call	 esi
$LN13@SetWindowS:
; File D:\git\src\IBK\IBK_DRFN\ProjSrc\SrcChartEx\ChartAddIn\ChartDesignPropertyAddIn\ChartDesignPropertyAddIn\ColourPopup.cpp

; 630  :     if (m_WindowRect.left < 0)

  00284	8b 03		 mov	 eax, DWORD PTR [ebx]
  00286	85 c0		 test	 eax, eax
  00288	79 08		 jns	 SHORT $LN14@SetWindowS
; File C:\Program Files (x86)\Microsoft Visual Studio\2019\Community\VC\Tools\MSVC\14.29.30133\atlmfc\include\atltypes.h

; 710  : 	::OffsetRect(this, x, y);

  0028a	6a 00		 push	 0
; File D:\git\src\IBK\IBK_DRFN\ProjSrc\SrcChartEx\ChartAddIn\ChartDesignPropertyAddIn\ChartDesignPropertyAddIn\ColourPopup.cpp

; 631  :         m_WindowRect.OffsetRect( -m_WindowRect.left, 0);

  0028c	f7 d8		 neg	 eax
; File C:\Program Files (x86)\Microsoft Visual Studio\2019\Community\VC\Tools\MSVC\14.29.30133\atlmfc\include\atltypes.h

; 710  : 	::OffsetRect(this, x, y);

  0028e	50		 push	 eax
  0028f	53		 push	 ebx
  00290	ff d6		 call	 esi
$LN14@SetWindowS:
; File D:\git\src\IBK\IBK_DRFN\ProjSrc\SrcChartEx\ChartAddIn\ChartDesignPropertyAddIn\ChartDesignPropertyAddIn\ColourPopup.cpp

; 634  :     if (m_WindowRect.bottom > ScreenSize.cy)

  00292	8b 45 c4	 mov	 eax, DWORD PTR tv1360[ebp]
  00295	39 87 d4 00 00
	00		 cmp	 DWORD PTR [edi+212], eax
  0029b	7e 32		 jle	 SHORT $LN15@SetWindowS
; File C:\Program Files (x86)\Microsoft Visual Studio\2019\Community\VC\Tools\MSVC\14.29.30133\atlmfc\include\afxwin2.inl

; 84   : 	{ ASSERT(::IsWindow(m_hWnd)); ::GetWindowRect(m_hWnd, lpRect); }

  0029d	8d 45 e0	 lea	 eax, DWORD PTR _ParentRect$7[ebp]
  002a0	0f 57 c0	 xorps	 xmm0, xmm0
  002a3	50		 push	 eax
  002a4	8b 87 90 01 00
	00		 mov	 eax, DWORD PTR [edi+400]
; File C:\Program Files (x86)\Microsoft Visual Studio\2019\Community\VC\Tools\MSVC\14.29.30133\atlmfc\include\atltypes.h

; 528  : 	left = 0;

  002aa	0f 11 45 e0	 movups	 XMMWORD PTR _ParentRect$7[ebp], xmm0
; File C:\Program Files (x86)\Microsoft Visual Studio\2019\Community\VC\Tools\MSVC\14.29.30133\atlmfc\include\afxwin2.inl

; 84   : 	{ ASSERT(::IsWindow(m_hWnd)); ::GetWindowRect(m_hWnd, lpRect); }

  002ae	ff 70 20	 push	 DWORD PTR [eax+32]
  002b1	ff 15 00 00 00
	00		 call	 DWORD PTR __imp__GetWindowRect@8
; File C:\Program Files (x86)\Microsoft Visual Studio\2019\Community\VC\Tools\MSVC\14.29.30133\atlmfc\include\atltypes.h

; 581  : 	return bottom - top;

  002b7	8b 87 cc 00 00
	00		 mov	 eax, DWORD PTR [edi+204]
  002bd	2b 87 d4 00 00
	00		 sub	 eax, DWORD PTR [edi+212]
  002c3	2b 45 ec	 sub	 eax, DWORD PTR _ParentRect$7[ebp+12]
; File D:\git\src\IBK\IBK_DRFN\ProjSrc\SrcChartEx\ChartAddIn\ChartDesignPropertyAddIn\ChartDesignPropertyAddIn\ColourPopup.cpp

; 638  :         m_WindowRect.OffsetRect(0, -(ParentRect.Height() + m_WindowRect.Height()));

  002c6	03 45 e4	 add	 eax, DWORD PTR _ParentRect$7[ebp+4]
; File C:\Program Files (x86)\Microsoft Visual Studio\2019\Community\VC\Tools\MSVC\14.29.30133\atlmfc\include\atltypes.h

; 710  : 	::OffsetRect(this, x, y);

  002c9	50		 push	 eax
  002ca	6a 00		 push	 0
  002cc	53		 push	 ebx
  002cd	ff d6		 call	 esi
$LN15@SetWindowS:
; File C:\Program Files (x86)\Microsoft Visual Studio\2019\Community\VC\Tools\MSVC\14.29.30133\atlmfc\include\afxwin2.inl

; 73   : 	{ MoveWindow(lpRect->left, lpRect->top, lpRect->right - lpRect->left,

  002cf	8b 53 04	 mov	 edx, DWORD PTR [ebx+4]
  002d2	8b cf		 mov	 ecx, edi
  002d4	8b 43 0c	 mov	 eax, DWORD PTR [ebx+12]
  002d7	8b 33		 mov	 esi, DWORD PTR [ebx]
  002d9	2b c2		 sub	 eax, edx
  002db	6a 01		 push	 1
  002dd	50		 push	 eax
  002de	8b 43 08	 mov	 eax, DWORD PTR [ebx+8]
  002e1	2b c6		 sub	 eax, esi
  002e3	50		 push	 eax
  002e4	52		 push	 edx
  002e5	56		 push	 esi
  002e6	e8 00 00 00 00	 call	 ?MoveWindow@CWnd@@QAEXHHHHH@Z ; CWnd::MoveWindow
; File D:\git\src\IBK\IBK_DRFN\ProjSrc\SrcChartEx\ChartAddIn\ChartDesignPropertyAddIn\ChartDesignPropertyAddIn\ColourPopup.cpp

; 643  : }

  002eb	8b 4d f4	 mov	 ecx, DWORD PTR __$EHRec$[ebp]
  002ee	64 89 0d 00 00
	00 00		 mov	 DWORD PTR fs:0, ecx
  002f5	59		 pop	 ecx
  002f6	5f		 pop	 edi
  002f7	5e		 pop	 esi
  002f8	5b		 pop	 ebx
  002f9	8b 4d f0	 mov	 ecx, DWORD PTR __$ArrayPad$[ebp]
  002fc	33 cd		 xor	 ecx, ebp
  002fe	e8 00 00 00 00	 call	 @__security_check_cookie@4
  00303	8b e5		 mov	 esp, ebp
  00305	5d		 pop	 ebp
  00306	c3		 ret	 0
_TEXT	ENDS
;	COMDAT text$x
text$x	SEGMENT
__unwindfunclet$?SetWindowSize@CColourPopup@@IAEXXZ$0:
  00000	8d 4d ac	 lea	 ecx, DWORD PTR _dc$4[ebp]
  00003	e9 00 00 00 00	 jmp	 ??1CClientDC@@UAE@XZ	; CClientDC::~CClientDC
  00008	cc		 int	 3
  00009	cc		 int	 3
  0000a	cc		 int	 3
  0000b	cc		 int	 3
  0000c	cc		 int	 3
__ehhandler$?SetWindowSize@CColourPopup@@IAEXXZ:
  0000d	90		 npad	 1
  0000e	90		 npad	 1
  0000f	8b 54 24 08	 mov	 edx, DWORD PTR [esp+8]
  00013	8d 42 0c	 lea	 eax, DWORD PTR [edx+12]
  00016	8b 4a a8	 mov	 ecx, DWORD PTR [edx-88]
  00019	33 c8		 xor	 ecx, eax
  0001b	e8 00 00 00 00	 call	 @__security_check_cookie@4
  00020	8b 4a fc	 mov	 ecx, DWORD PTR [edx-4]
  00023	33 c8		 xor	 ecx, eax
  00025	e8 00 00 00 00	 call	 @__security_check_cookie@4
  0002a	b8 00 00 00 00	 mov	 eax, OFFSET __ehfuncinfo$?SetWindowSize@CColourPopup@@IAEXXZ
  0002f	e9 00 00 00 00	 jmp	 ___CxxFrameHandler3
text$x	ENDS
?SetWindowSize@CColourPopup@@IAEXXZ ENDP		; CColourPopup::SetWindowSize
; Function compile flags: /Ogtp
; File D:\git\src\IBK\IBK_DRFN\ProjSrc\SrcChartEx\ChartAddIn\ChartDesignPropertyAddIn\ChartDesignPropertyAddIn\ColourPopup.cpp
;	COMDAT ?FindCellFromColour@CColourPopup@@IAEXK@Z
_TEXT	SEGMENT
_crColour$ = 8						; size = 4
?FindCellFromColour@CColourPopup@@IAEXK@Z PROC		; CColourPopup::FindCellFromColour, COMDAT
; _this$ = ecx

; 494  : {

  00000	55		 push	 ebp
  00001	8b ec		 mov	 ebp, esp
  00003	53		 push	 ebx

; 495  :     if (crColour == CLR_DEFAULT && m_strDefaultText.GetLength())

  00004	8b 5d 08	 mov	 ebx, DWORD PTR _crColour$[ebp]
  00007	57		 push	 edi
  00008	8b f9		 mov	 edi, ecx
  0000a	81 fb 00 00 00
	ff		 cmp	 ebx, -16777216		; ff000000H
  00010	75 1c		 jne	 SHORT $LN5@FindCellFr
  00012	8b 87 a0 00 00
	00		 mov	 eax, DWORD PTR [edi+160]
  00018	83 78 f4 00	 cmp	 DWORD PTR [eax-12], 0
  0001c	74 10		 je	 SHORT $LN5@FindCellFr

; 511  :         m_nChosenColourSel = CUSTOM_BOX_VALUE;
; 512  :     else
; 513  :         m_nChosenColourSel = INVALID_COLOUR;
; 514  : }

  0001e	c7 87 9c 00 00
	00 fd ff ff ff	 mov	 DWORD PTR [edi+156], -3	; fffffffdH
  00028	5f		 pop	 edi
  00029	5b		 pop	 ebx
  0002a	5d		 pop	 ebp
  0002b	c2 04 00	 ret	 4
$LN5@FindCellFr:
  0002e	56		 push	 esi

; 496  :     {
; 497  :         m_nChosenColourSel = DEFAULT_BOX_VALUE;
; 498  :         return;
; 499  :     }
; 500  : 
; 501  :     for (int i = 0; i < m_nNumColours; i++)

  0002f	33 f6		 xor	 esi, esi
  00031	39 b7 84 00 00
	00		 cmp	 DWORD PTR [edi+132], esi
  00037	7e 1d		 jle	 SHORT $LN3@FindCellFr
  00039	0f 1f 80 00 00
	00 00		 npad	 7
$LL4@FindCellFr:

; 90   : 	return m_colorTableMgr.GetColor(nIndex);

  00040	56		 push	 esi
  00041	e8 00 00 00 00	 call	 ?GetColor@CColorTableMgr@@SAKH@Z ; CColorTableMgr::GetColor
  00046	83 c4 04	 add	 esp, 4

; 502  :     {
; 503  :         if (GetColour(i) == crColour)

  00049	3b c3		 cmp	 eax, ebx
  0004b	74 24		 je	 SHORT $LN21@FindCellFr

; 496  :     {
; 497  :         m_nChosenColourSel = DEFAULT_BOX_VALUE;
; 498  :         return;
; 499  :     }
; 500  : 
; 501  :     for (int i = 0; i < m_nNumColours; i++)

  0004d	46		 inc	 esi
  0004e	3b b7 84 00 00
	00		 cmp	 esi, DWORD PTR [edi+132]
  00054	7c ea		 jl	 SHORT $LL4@FindCellFr
$LN3@FindCellFr:

; 504  :         {
; 505  :             m_nChosenColourSel = i;
; 506  :             return;
; 507  :         }
; 508  :     }
; 509  : 
; 510  :     if (m_strCustomText.GetLength())

  00056	8b 87 a4 00 00
	00		 mov	 eax, DWORD PTR [edi+164]
  0005c	5e		 pop	 esi
  0005d	8b 40 f4	 mov	 eax, DWORD PTR [eax-12]
  00060	f7 d8		 neg	 eax
  00062	1b c0		 sbb	 eax, eax
  00064	48		 dec	 eax

; 511  :         m_nChosenColourSel = CUSTOM_BOX_VALUE;
; 512  :     else
; 513  :         m_nChosenColourSel = INVALID_COLOUR;
; 514  : }

  00065	89 87 9c 00 00
	00		 mov	 DWORD PTR [edi+156], eax
  0006b	5f		 pop	 edi
  0006c	5b		 pop	 ebx
  0006d	5d		 pop	 ebp
  0006e	c2 04 00	 ret	 4
$LN21@FindCellFr:
  00071	89 b7 9c 00 00
	00		 mov	 DWORD PTR [edi+156], esi
  00077	5e		 pop	 esi
  00078	5f		 pop	 edi
  00079	5b		 pop	 ebx
  0007a	5d		 pop	 ebp
  0007b	c2 04 00	 ret	 4
?FindCellFromColour@CColourPopup@@IAEXK@Z ENDP		; CColourPopup::FindCellFromColour
_TEXT	ENDS
; Function compile flags: /Ogtp
; File D:\git\src\IBK\IBK_DRFN\ProjSrc\SrcChartEx\ChartAddIn\ChartDesignPropertyAddIn\ChartDesignPropertyAddIn\ColourPopup.cpp
; File C:\Program Files (x86)\Microsoft Visual Studio\2019\Community\VC\Tools\MSVC\14.29.30133\atlmfc\include\atltypes.h
; File D:\git\src\IBK\IBK_DRFN\ProjSrc\SrcChartEx\ChartAddIn\ChartDesignPropertyAddIn\ChartDesignPropertyAddIn\ColourPopup.cpp
; File C:\Program Files (x86)\Microsoft Visual Studio\2019\Community\VC\Tools\MSVC\14.29.30133\atlmfc\include\atltypes.h
; File D:\git\src\IBK\IBK_DRFN\ProjSrc\SrcChartEx\ChartAddIn\ChartDesignPropertyAddIn\ChartDesignPropertyAddIn\ColourPopup.cpp
;	COMDAT ?GetCellRect@CColourPopup@@IAEHHABQAUtagRECT@@@Z
_TEXT	SEGMENT
_nIndex$ = 8						; size = 4
_rect$ = 12						; size = 4
?GetCellRect@CColourPopup@@IAEHHABQAUtagRECT@@@Z PROC	; CColourPopup::GetCellRect, COMDAT
; _this$ = ecx

; 518  : {

  00000	55		 push	 ebp
  00001	8b ec		 mov	 ebp, esp
  00003	56		 push	 esi
  00004	57		 push	 edi

; 519  :     if (nIndex == CUSTOM_BOX_VALUE)

  00005	8b 7d 08	 mov	 edi, DWORD PTR _nIndex$[ebp]
  00008	8b f1		 mov	 esi, ecx
  0000a	83 ff fe	 cmp	 edi, -2			; fffffffeH
  0000d	75 2e		 jne	 SHORT $LN2@GetCellRec

; 520  :     {
; 521  :         ::SetRect(rect, 

  0000f	ff b6 b4 00 00
	00		 push	 DWORD PTR [esi+180]
  00015	ff b6 b0 00 00
	00		 push	 DWORD PTR [esi+176]
  0001b	ff b6 ac 00 00
	00		 push	 DWORD PTR [esi+172]
  00021	ff b6 a8 00 00
	00		 push	 DWORD PTR [esi+168]
$LN15@GetCellRec:

; 548  : }

  00027	8b 45 0c	 mov	 eax, DWORD PTR _rect$[ebp]
  0002a	ff 30		 push	 DWORD PTR [eax]
  0002c	ff 15 00 00 00
	00		 call	 DWORD PTR __imp__SetRect@20
  00032	5f		 pop	 edi
  00033	b8 01 00 00 00	 mov	 eax, 1
  00038	5e		 pop	 esi
  00039	5d		 pop	 ebp
  0003a	c2 08 00	 ret	 8
$LN2@GetCellRec:

; 522  :                   m_CustomTextRect.left,  m_CustomTextRect.top,
; 523  :                   m_CustomTextRect.right, m_CustomTextRect.bottom);
; 524  :         return TRUE;
; 525  :     }
; 526  :     else if (nIndex == DEFAULT_BOX_VALUE)

  0003d	83 ff fd	 cmp	 edi, -3			; fffffffdH
  00040	75 1a		 jne	 SHORT $LN4@GetCellRec

; 527  :     {
; 528  :         ::SetRect(rect, 

  00042	ff b6 c4 00 00
	00		 push	 DWORD PTR [esi+196]
  00048	ff b6 c0 00 00
	00		 push	 DWORD PTR [esi+192]
  0004e	ff b6 bc 00 00
	00		 push	 DWORD PTR [esi+188]
  00054	ff b6 b8 00 00
	00		 push	 DWORD PTR [esi+184]

; 529  :                   m_DefaultTextRect.left,  m_DefaultTextRect.top,
; 530  :                   m_DefaultTextRect.right, m_DefaultTextRect.bottom);
; 531  :         return TRUE;

  0005a	eb cb		 jmp	 SHORT $LN15@GetCellRec
$LN4@GetCellRec:

; 532  :     }
; 533  : 
; 534  :     if (nIndex < 0 || nIndex >= m_nNumColours)

  0005c	85 ff		 test	 edi, edi
  0005e	0f 88 87 00 00
	00		 js	 $LN6@GetCellRec
  00064	3b be 84 00 00
	00		 cmp	 edi, DWORD PTR [esi+132]
  0006a	7d 7f		 jge	 SHORT $LN6@GetCellRec

; 536  : 
; 537  :     rect->left = GetColumn(nIndex) * m_nBoxSize + m_nMargin;

  0006c	53		 push	 ebx
  0006d	57		 push	 edi
  0006e	e8 00 00 00 00	 call	 ?GetColumn@CColourPopup@@IBEHH@Z ; CColourPopup::GetColumn
  00073	0f af 86 90 00
	00 00		 imul	 eax, DWORD PTR [esi+144]
  0007a	8b 5d 0c	 mov	 ebx, DWORD PTR _rect$[ebp]

; 538  :     rect->top  = GetRow(nIndex) * m_nBoxSize + m_nMargin;

  0007d	57		 push	 edi
  0007e	8b 0b		 mov	 ecx, DWORD PTR [ebx]
  00080	03 86 94 00 00
	00		 add	 eax, DWORD PTR [esi+148]
  00086	89 01		 mov	 DWORD PTR [ecx], eax
  00088	8b ce		 mov	 ecx, esi
  0008a	e8 00 00 00 00	 call	 ?GetRow@CColourPopup@@IBEHH@Z ; CColourPopup::GetRow
  0008f	0f af 86 90 00
	00 00		 imul	 eax, DWORD PTR [esi+144]
  00096	8b 0b		 mov	 ecx, DWORD PTR [ebx]
  00098	03 86 94 00 00
	00		 add	 eax, DWORD PTR [esi+148]
  0009e	89 41 04	 mov	 DWORD PTR [ecx+4], eax

; 539  : 
; 540  :     // Move everything down if we are displaying a default text area
; 541  :     if (m_strDefaultText.GetLength()) 

  000a1	8b 86 a0 00 00
	00		 mov	 eax, DWORD PTR [esi+160]
  000a7	83 78 f4 00	 cmp	 DWORD PTR [eax-12], 0
  000ab	74 17		 je	 SHORT $LN7@GetCellRec
; File C:\Program Files (x86)\Microsoft Visual Studio\2019\Community\VC\Tools\MSVC\14.29.30133\atlmfc\include\atltypes.h

; 581  : 	return bottom - top;

  000ad	8b 86 c4 00 00
	00		 mov	 eax, DWORD PTR [esi+196]
; File D:\git\src\IBK\IBK_DRFN\ProjSrc\SrcChartEx\ChartAddIn\ChartDesignPropertyAddIn\ChartDesignPropertyAddIn\ColourPopup.cpp

; 542  :         rect->top += (m_nMargin + m_DefaultTextRect.Height());

  000b3	8b 0b		 mov	 ecx, DWORD PTR [ebx]
; File C:\Program Files (x86)\Microsoft Visual Studio\2019\Community\VC\Tools\MSVC\14.29.30133\atlmfc\include\atltypes.h

; 581  : 	return bottom - top;

  000b5	2b 86 bc 00 00
	00		 sub	 eax, DWORD PTR [esi+188]
; File D:\git\src\IBK\IBK_DRFN\ProjSrc\SrcChartEx\ChartAddIn\ChartDesignPropertyAddIn\ChartDesignPropertyAddIn\ColourPopup.cpp

; 542  :         rect->top += (m_nMargin + m_DefaultTextRect.Height());

  000bb	03 86 94 00 00
	00		 add	 eax, DWORD PTR [esi+148]
  000c1	01 41 04	 add	 DWORD PTR [ecx+4], eax
$LN7@GetCellRec:

; 543  : 
; 544  :     rect->right = rect->left + m_nBoxSize;

  000c4	8b 0b		 mov	 ecx, DWORD PTR [ebx]
  000c6	8b 01		 mov	 eax, DWORD PTR [ecx]
  000c8	03 86 90 00 00
	00		 add	 eax, DWORD PTR [esi+144]
  000ce	89 41 08	 mov	 DWORD PTR [ecx+8], eax

; 545  :     rect->bottom = rect->top + m_nBoxSize;

  000d1	8b 0b		 mov	 ecx, DWORD PTR [ebx]

; 546  : 
; 547  :     return TRUE;

  000d3	5b		 pop	 ebx
  000d4	5f		 pop	 edi
  000d5	8b 41 04	 mov	 eax, DWORD PTR [ecx+4]
  000d8	03 86 90 00 00
	00		 add	 eax, DWORD PTR [esi+144]
  000de	89 41 0c	 mov	 DWORD PTR [ecx+12], eax
  000e1	b8 01 00 00 00	 mov	 eax, 1

; 548  : }

  000e6	5e		 pop	 esi
  000e7	5d		 pop	 ebp
  000e8	c2 08 00	 ret	 8
$LN6@GetCellRec:
  000eb	5f		 pop	 edi

; 535  :         return FALSE;

  000ec	33 c0		 xor	 eax, eax

; 548  : }

  000ee	5e		 pop	 esi
  000ef	5d		 pop	 ebp
  000f0	c2 08 00	 ret	 8
?GetCellRect@CColourPopup@@IAEHHABQAUtagRECT@@@Z ENDP	; CColourPopup::GetCellRect
_TEXT	ENDS
; Function compile flags: /Ogtp
; File D:\git\src\IBK\IBK_DRFN\ProjSrc\SrcChartEx\ChartAddIn\ChartDesignPropertyAddIn\ChartDesignPropertyAddIn\ColourPopup.cpp
; File C:\Program Files (x86)\Microsoft Visual Studio\2019\Community\VC\Tools\MSVC\14.29.30133\atlmfc\include\afxwin1.inl
; File D:\git\src\IBK\IBK_DRFN\ProjSrc\SrcChartEx\ChartAddIn\ChartDesignPropertyAddIn\ChartDesignPropertyAddIn\ColourPopup.cpp
;	COMDAT ??1CColourPopup@@UAE@XZ
_TEXT	SEGMENT
__$EHRec$ = -12						; size = 12
??1CColourPopup@@UAE@XZ PROC				; CColourPopup::~CColourPopup, COMDAT
; _this$ = ecx

; 144  : {

  00000	55		 push	 ebp
  00001	8b ec		 mov	 ebp, esp
  00003	6a ff		 push	 -1
  00005	68 00 00 00 00	 push	 __ehhandler$??1CColourPopup@@UAE@XZ
  0000a	64 a1 00 00 00
	00		 mov	 eax, DWORD PTR fs:0
  00010	50		 push	 eax
  00011	53		 push	 ebx
  00012	56		 push	 esi
  00013	57		 push	 edi
  00014	a1 00 00 00 00	 mov	 eax, DWORD PTR ___security_cookie
  00019	33 c5		 xor	 eax, ebp
  0001b	50		 push	 eax
  0001c	8d 45 f4	 lea	 eax, DWORD PTR __$EHRec$[ebp]
  0001f	64 a3 00 00 00
	00		 mov	 DWORD PTR fs:0, eax
  00025	8b d9		 mov	 ebx, ecx

; 145  :     m_Font.DeleteObject();

  00027	8d 8b d8 00 00
	00		 lea	 ecx, DWORD PTR [ebx+216]
  0002d	c7 03 00 00 00
	00		 mov	 DWORD PTR [ebx], OFFSET ??_7CColourPopup@@6B@
  00033	e8 00 00 00 00	 call	 ?DeleteObject@CGdiObject@@QAEHXZ ; CGdiObject::DeleteObject

; 146  :     m_Palette.DeleteObject();

  00038	8d 8b e0 00 00
	00		 lea	 ecx, DWORD PTR [ebx+224]
  0003e	e8 00 00 00 00	 call	 ?DeleteObject@CGdiObject@@QAEHXZ ; CGdiObject::DeleteObject

; 147  : }

  00043	8d 8b f0 00 00
	00		 lea	 ecx, DWORD PTR [ebx+240]
  00049	e8 00 00 00 00	 call	 ??1CToolTipCtrl@@UAE@XZ	; CToolTipCtrl::~CToolTipCtrl
; File C:\Program Files (x86)\Microsoft Visual Studio\2019\Community\VC\Tools\MSVC\14.29.30133\atlmfc\include\afxwin1.inl

; 232  : 	{ }

  0004e	8d 8b e0 00 00
	00		 lea	 ecx, DWORD PTR [ebx+224]
  00054	c7 83 e0 00 00
	00 00 00 00 00	 mov	 DWORD PTR [ebx+224], OFFSET ??_7CPalette@@6B@
  0005e	e8 00 00 00 00	 call	 ??1CGdiObject@@UAE@XZ	; CGdiObject::~CGdiObject

; 155  : 	{ }

  00063	8d 8b d8 00 00
	00		 lea	 ecx, DWORD PTR [ebx+216]
  00069	c7 83 d8 00 00
	00 00 00 00 00	 mov	 DWORD PTR [ebx+216], OFFSET ??_7CFont@@6B@
  00073	e8 00 00 00 00	 call	 ??1CGdiObject@@UAE@XZ	; CGdiObject::~CGdiObject
; File D:\git\src\IBK\IBK_DRFN\ProjSrc\SrcChartEx\ChartAddIn\ChartDesignPropertyAddIn\ChartDesignPropertyAddIn\ColourPopup.cpp

; 147  : }

  00078	8d 8b a4 00 00
	00		 lea	 ecx, DWORD PTR [ebx+164]
  0007e	ff 15 00 00 00
	00		 call	 DWORD PTR __imp_??1?$CStringT@DV?$StrTraitMFC_DLL@DV?$ChTraitsCRT@D@ATL@@@@@ATL@@QAE@XZ
  00084	8d 8b a0 00 00
	00		 lea	 ecx, DWORD PTR [ebx+160]
  0008a	ff 15 00 00 00
	00		 call	 DWORD PTR __imp_??1?$CStringT@DV?$StrTraitMFC_DLL@DV?$ChTraitsCRT@D@ATL@@@@@ATL@@QAE@XZ
  00090	8d 8b 80 00 00
	00		 lea	 ecx, DWORD PTR [ebx+128]
  00096	e8 00 00 00 00	 call	 ??1CColorTableMgr@@QAE@XZ ; CColorTableMgr::~CColorTableMgr
  0009b	8b cb		 mov	 ecx, ebx
  0009d	e8 00 00 00 00	 call	 ??1CWnd@@UAE@XZ		; CWnd::~CWnd
  000a2	8b 4d f4	 mov	 ecx, DWORD PTR __$EHRec$[ebp]
  000a5	64 89 0d 00 00
	00 00		 mov	 DWORD PTR fs:0, ecx
  000ac	59		 pop	 ecx
  000ad	5f		 pop	 edi
  000ae	5e		 pop	 esi
  000af	5b		 pop	 ebx
  000b0	8b e5		 mov	 esp, ebp
  000b2	5d		 pop	 ebp
  000b3	c3		 ret	 0
  000b4	cc		 int	 3
  000b5	cc		 int	 3
  000b6	cc		 int	 3
  000b7	cc		 int	 3
  000b8	cc		 int	 3
_TEXT	ENDS
;	COMDAT text$x
text$x	SEGMENT
__ehhandler$??1CColourPopup@@UAE@XZ:
  00000	90		 npad	 1
  00001	90		 npad	 1
  00002	8b 54 24 08	 mov	 edx, DWORD PTR [esp+8]
  00006	8d 42 0c	 lea	 eax, DWORD PTR [edx+12]
  00009	8b 4a f0	 mov	 ecx, DWORD PTR [edx-16]
  0000c	33 c8		 xor	 ecx, eax
  0000e	e8 00 00 00 00	 call	 @__security_check_cookie@4
  00013	b8 00 00 00 00	 mov	 eax, OFFSET __ehfuncinfo$??1CColourPopup@@UAE@XZ
  00018	e9 00 00 00 00	 jmp	 ___CxxFrameHandler3
text$x	ENDS
??1CColourPopup@@UAE@XZ ENDP				; CColourPopup::~CColourPopup
; Function compile flags: /Ogtp
; File D:\git\src\IBK\IBK_DRFN\ProjSrc\SrcChartEx\ChartAddIn\ChartDesignPropertyAddIn\ChartDesignPropertyAddIn\ColourPopup.cpp
;	COMDAT ?PreTranslateMessage@CColourPopup@@UAEHPAUtagMSG@@@Z
_TEXT	SEGMENT
_pMsg$ = 8						; size = 4
?PreTranslateMessage@CColourPopup@@UAEHPAUtagMSG@@@Z PROC ; CColourPopup::PreTranslateMessage, COMDAT
; _this$ = ecx

; 212  : {

  00000	55		 push	 ebp
  00001	8b ec		 mov	 ebp, esp

; 215  : }

  00003	5d		 pop	 ebp

; 213  : //    m_ToolTip.RelayEvent(pMsg);
; 214  :     return CWnd::PreTranslateMessage(pMsg);

  00004	e9 00 00 00 00	 jmp	 ?PreTranslateMessage@CWnd@@UAEHPAUtagMSG@@@Z ; CWnd::PreTranslateMessage
?PreTranslateMessage@CColourPopup@@UAEHPAUtagMSG@@@Z ENDP ; CColourPopup::PreTranslateMessage
_TEXT	ENDS
; Function compile flags: /Ogtp
; File D:\git\src\IBK\IBK_DRFN\ProjSrc\SrcChartEx\ChartAddIn\ChartDesignPropertyAddIn\ChartDesignPropertyAddIn\ColourPopup.cpp
; File C:\Program Files (x86)\Microsoft Visual Studio\2019\Community\VC\Tools\MSVC\14.29.30133\atlmfc\include\afxwin2.inl
; File D:\git\src\IBK\IBK_DRFN\ProjSrc\SrcChartEx\ChartAddIn\ChartDesignPropertyAddIn\ChartDesignPropertyAddIn\ColourPopup.cpp
; File C:\Program Files (x86)\Microsoft Visual Studio\2019\Community\VC\Tools\MSVC\14.29.30133\atlmfc\include\afxwin2.inl
; File D:\git\src\IBK\IBK_DRFN\ProjSrc\SrcChartEx\ChartAddIn\ChartDesignPropertyAddIn\ChartDesignPropertyAddIn\ColourPopup.cpp
;	COMDAT ?Create@CColourPopup@@QAEHVCPoint@@KPAVCWnd@@PBD2@Z
_TEXT	SEGMENT
__$EHRec$ = -12						; size = 12
_p$ = 8							; size = 8
_crColour$ = 16						; size = 4
_szClassName$ = 20					; size = 4
_pParentWnd$ = 20					; size = 4
_szDefaultText$ = 24					; size = 4
_szCustomText$ = 28					; size = 4
?Create@CColourPopup@@QAEHVCPoint@@KPAVCWnd@@PBD2@Z PROC ; CColourPopup::Create, COMDAT
; _this$ = ecx

; 152  : {

  00000	55		 push	 ebp
  00001	8b ec		 mov	 ebp, esp
  00003	6a ff		 push	 -1
  00005	68 00 00 00 00	 push	 __ehhandler$?Create@CColourPopup@@QAEHVCPoint@@KPAVCWnd@@PBD2@Z
  0000a	64 a1 00 00 00
	00		 mov	 eax, DWORD PTR fs:0
  00010	50		 push	 eax
  00011	53		 push	 ebx
  00012	56		 push	 esi
  00013	57		 push	 edi
  00014	a1 00 00 00 00	 mov	 eax, DWORD PTR ___security_cookie
  00019	33 c5		 xor	 eax, ebp
  0001b	50		 push	 eax
  0001c	8d 45 f4	 lea	 eax, DWORD PTR __$EHRec$[ebp]
  0001f	64 a3 00 00 00
	00		 mov	 DWORD PTR fs:0, eax
  00025	8b f9		 mov	 edi, ecx

; 153  :     ASSERT(pParentWnd && ::IsWindow(pParentWnd->GetSafeHwnd()));
; 154  : //  ASSERT(pParentWnd->IsKindOf(RUNTIME_CLASS(CColourPicker)));
; 155  : 
; 156  :     m_pParent  = pParentWnd;

  00027	8b 75 14	 mov	 esi, DWORD PTR _pParentWnd$[ebp]

; 157  :     m_crColour = m_crInitialColour = crColour;

  0002a	8b 5d 10	 mov	 ebx, DWORD PTR _crColour$[ebp]

; 158  : 
; 159  :     // Get the class name and create the window
; 160  :     CString szClassName = AfxRegisterWndClass(CS_CLASSDC|CS_SAVEBITS|CS_HREDRAW|CS_VREDRAW,

  0002d	6a 00		 push	 0
  0002f	6a 10		 push	 16			; 00000010H
  00031	6a 00		 push	 0
  00033	68 43 08 00 00	 push	 2115			; 00000843H
  00038	89 b7 90 01 00
	00		 mov	 DWORD PTR [edi+400], esi
  0003e	89 9f e8 00 00
	00		 mov	 DWORD PTR [edi+232], ebx
  00044	89 9f ec 00 00
	00		 mov	 DWORD PTR [edi+236], ebx
  0004a	e8 00 00 00 00	 call	 ?AfxRegisterWndClass@@YGPBDIPAUHICON__@@PAUHBRUSH__@@0@Z ; AfxRegisterWndClass
  0004f	50		 push	 eax
  00050	8d 4d 14	 lea	 ecx, DWORD PTR _szClassName$[ebp]
  00053	ff 15 00 00 00
	00		 call	 DWORD PTR __imp_??0?$CStringT@DV?$StrTraitMFC_DLL@DV?$ChTraitsCRT@D@ATL@@@@@ATL@@QAE@PBD@Z
  00059	c7 45 fc 00 00
	00 00		 mov	 DWORD PTR __$EHRec$[ebp+8], 0
; File C:\Program Files (x86)\Microsoft Visual Studio\2019\Community\VC\Tools\MSVC\14.29.30133\atlmfc\include\afxwin2.inl

; 25   : 	{ return this == NULL ? NULL : m_hWnd; }

  00060	85 f6		 test	 esi, esi
  00062	75 04		 jne	 SHORT $LN10@Create
  00064	33 c0		 xor	 eax, eax
  00066	eb 03		 jmp	 SHORT $LN11@Create
$LN10@Create:
  00068	8b 46 20	 mov	 eax, DWORD PTR [esi+32]
$LN11@Create:
; File D:\git\src\IBK\IBK_DRFN\ProjSrc\SrcChartEx\ChartAddIn\ChartDesignPropertyAddIn\ChartDesignPropertyAddIn\ColourPopup.cpp

; 165  :     if (!CWnd::CreateEx(0, szClassName, _T(""), WS_VISIBLE|WS_POPUP, 

  0006b	6a 00		 push	 0
  0006d	6a 00		 push	 0
  0006f	50		 push	 eax
  00070	6a 64		 push	 100			; 00000064H
  00072	6a 64		 push	 100			; 00000064H
  00074	ff 75 0c	 push	 DWORD PTR _p$[ebp+4]
  00077	8b cf		 mov	 ecx, edi
  00079	ff 75 08	 push	 DWORD PTR _p$[ebp]
  0007c	68 00 00 00 90	 push	 -1879048192		; 90000000H
  00081	68 00 00 00 00	 push	 OFFSET ??_C@_00CNPNBAHC@@
  00086	ff 75 14	 push	 DWORD PTR _szClassName$[ebp]
  00089	6a 00		 push	 0
  0008b	e8 00 00 00 00	 call	 ?CreateEx@CWnd@@UAEHKPBD0KHHHHPAUHWND__@@PAUHMENU__@@PAX@Z ; CWnd::CreateEx
  00090	85 c0		 test	 eax, eax
  00092	75 07		 jne	 SHORT $LN2@Create
  00094	33 f6		 xor	 esi, esi
  00096	e9 93 00 00 00	 jmp	 $LN7@Create
$LN2@Create:

; 166  :                         p.x, p.y, 100, 100, // size updated soon
; 167  :                         pParentWnd->GetSafeHwnd(), 0, NULL))
; 168  :         return FALSE;
; 169  : 
; 170  :     // Store the Custom text
; 171  :     if (szCustomText != NULL) 

  0009b	8b 45 1c	 mov	 eax, DWORD PTR _szCustomText$[ebp]
  0009e	85 c0		 test	 eax, eax
  000a0	74 0d		 je	 SHORT $LN3@Create

; 172  :         m_strCustomText = szCustomText;

  000a2	50		 push	 eax
  000a3	8d 8f a4 00 00
	00		 lea	 ecx, DWORD PTR [edi+164]
  000a9	ff 15 00 00 00
	00		 call	 DWORD PTR __imp_??4?$CStringT@DV?$StrTraitMFC_DLL@DV?$ChTraitsCRT@D@ATL@@@@@ATL@@QAEAAV01@PBD@Z
$LN3@Create:

; 173  : 
; 174  :     // Store the Default Area text
; 175  :     if (szDefaultText != NULL) 

  000af	8b 45 18	 mov	 eax, DWORD PTR _szDefaultText$[ebp]
  000b2	85 c0		 test	 eax, eax
  000b4	74 0d		 je	 SHORT $LN4@Create

; 176  :         m_strDefaultText = szDefaultText;

  000b6	50		 push	 eax
  000b7	8d 8f a0 00 00
	00		 lea	 ecx, DWORD PTR [edi+160]
  000bd	ff 15 00 00 00
	00		 call	 DWORD PTR __imp_??4?$CStringT@DV?$StrTraitMFC_DLL@DV?$ChTraitsCRT@D@ATL@@@@@ATL@@QAEAAV01@PBD@Z
$LN4@Create:

; 177  :         
; 178  :     // Set the window size
; 179  :     SetWindowSize();

  000c3	8b cf		 mov	 ecx, edi
  000c5	e8 00 00 00 00	 call	 ?SetWindowSize@CColourPopup@@IAEXXZ ; CColourPopup::SetWindowSize

; 495  :     if (crColour == CLR_DEFAULT && m_strDefaultText.GetLength())

  000ca	81 fb 00 00 00
	ff		 cmp	 ebx, -16777216		; ff000000H
  000d0	75 13		 jne	 SHORT $LN18@Create
  000d2	8b 87 a0 00 00
	00		 mov	 eax, DWORD PTR [edi+160]
  000d8	83 78 f4 00	 cmp	 DWORD PTR [eax-12], 0
  000dc	74 07		 je	 SHORT $LN18@Create

; 496  :     {
; 497  :         m_nChosenColourSel = DEFAULT_BOX_VALUE;

  000de	be fd ff ff ff	 mov	 esi, -3			; fffffffdH

; 498  :         return;

  000e3	eb 2f		 jmp	 SHORT $LN20@Create
$LN18@Create:

; 499  :     }
; 500  : 
; 501  :     for (int i = 0; i < m_nNumColours; i++)

  000e5	33 f6		 xor	 esi, esi
  000e7	39 b7 84 00 00
	00		 cmp	 DWORD PTR [edi+132], esi
  000ed	7e 17		 jle	 SHORT $LN16@Create
  000ef	90		 npad	 1
$LL17@Create:

; 90   : 	return m_colorTableMgr.GetColor(nIndex);

  000f0	56		 push	 esi
  000f1	e8 00 00 00 00	 call	 ?GetColor@CColorTableMgr@@SAKH@Z ; CColorTableMgr::GetColor
  000f6	83 c4 04	 add	 esp, 4

; 503  :         if (GetColour(i) == crColour)

  000f9	3b c3		 cmp	 eax, ebx
  000fb	74 17		 je	 SHORT $LN20@Create

; 499  :     }
; 500  : 
; 501  :     for (int i = 0; i < m_nNumColours; i++)

  000fd	46		 inc	 esi
  000fe	3b b7 84 00 00
	00		 cmp	 esi, DWORD PTR [edi+132]
  00104	7c ea		 jl	 SHORT $LL17@Create
$LN16@Create:

; 504  :         {
; 505  :             m_nChosenColourSel = i;
; 506  :             return;
; 507  :         }
; 508  :     }
; 509  : 
; 510  :     if (m_strCustomText.GetLength())

  00106	8b 87 a4 00 00
	00		 mov	 eax, DWORD PTR [edi+164]
  0010c	8b 70 f4	 mov	 esi, DWORD PTR [eax-12]
  0010f	f7 de		 neg	 esi
  00111	1b f6		 sbb	 esi, esi
  00113	4e		 dec	 esi
$LN20@Create:
; File C:\Program Files (x86)\Microsoft Visual Studio\2019\Community\VC\Tools\MSVC\14.29.30133\atlmfc\include\afxwin2.inl

; 163  : 	{ ASSERT(::IsWindow(m_hWnd)); return CWnd::FromHandle(::SetCapture(m_hWnd)); }

  00114	89 b7 9c 00 00
	00		 mov	 DWORD PTR [edi+156], esi
  0011a	ff 77 20	 push	 DWORD PTR [edi+32]
  0011d	ff 15 00 00 00
	00		 call	 DWORD PTR __imp__SetCapture@4
  00123	50		 push	 eax
  00124	e8 00 00 00 00	 call	 ?FromHandle@CWnd@@SGPAV1@PAUHWND__@@@Z ; CWnd::FromHandle
; File D:\git\src\IBK\IBK_DRFN\ProjSrc\SrcChartEx\ChartAddIn\ChartDesignPropertyAddIn\ChartDesignPropertyAddIn\ColourPopup.cpp

; 190  :     return TRUE;

  00129	be 01 00 00 00	 mov	 esi, 1
$LN7@Create:
  0012e	8d 4d 14	 lea	 ecx, DWORD PTR _szClassName$[ebp]
  00131	ff 15 00 00 00
	00		 call	 DWORD PTR __imp_??1?$CStringT@DV?$StrTraitMFC_DLL@DV?$ChTraitsCRT@D@ATL@@@@@ATL@@QAE@XZ
  00137	8b c6		 mov	 eax, esi

; 191  : }

  00139	8b 4d f4	 mov	 ecx, DWORD PTR __$EHRec$[ebp]
  0013c	64 89 0d 00 00
	00 00		 mov	 DWORD PTR fs:0, ecx
  00143	59		 pop	 ecx
  00144	5f		 pop	 edi
  00145	5e		 pop	 esi
  00146	5b		 pop	 ebx
  00147	8b e5		 mov	 esp, ebp
  00149	5d		 pop	 ebp
  0014a	c2 18 00	 ret	 24			; 00000018H
_TEXT	ENDS
;	COMDAT text$x
text$x	SEGMENT
__unwindfunclet$?Create@CColourPopup@@QAEHVCPoint@@KPAVCWnd@@PBD2@Z$0:
  00000	8d 4d 14	 lea	 ecx, DWORD PTR _szClassName$[ebp]
  00003	ff 25 00 00 00
	00		 jmp	 DWORD PTR __imp_??1?$CStringT@DV?$StrTraitMFC_DLL@DV?$ChTraitsCRT@D@ATL@@@@@ATL@@QAE@XZ
  00009	cc		 int	 3
  0000a	cc		 int	 3
  0000b	cc		 int	 3
  0000c	cc		 int	 3
  0000d	cc		 int	 3
__ehhandler$?Create@CColourPopup@@QAEHVCPoint@@KPAVCWnd@@PBD2@Z:
  0000e	90		 npad	 1
  0000f	90		 npad	 1
  00010	8b 54 24 08	 mov	 edx, DWORD PTR [esp+8]
  00014	8d 42 0c	 lea	 eax, DWORD PTR [edx+12]
  00017	8b 4a f0	 mov	 ecx, DWORD PTR [edx-16]
  0001a	33 c8		 xor	 ecx, eax
  0001c	e8 00 00 00 00	 call	 @__security_check_cookie@4
  00021	b8 00 00 00 00	 mov	 eax, OFFSET __ehfuncinfo$?Create@CColourPopup@@QAEHVCPoint@@KPAVCWnd@@PBD2@Z
  00026	e9 00 00 00 00	 jmp	 ___CxxFrameHandler3
text$x	ENDS
?Create@CColourPopup@@QAEHVCPoint@@KPAVCWnd@@PBD2@Z ENDP ; CColourPopup::Create
; Function compile flags: /Ogtp
; File D:\git\src\IBK\IBK_DRFN\ProjSrc\SrcChartEx\ChartAddIn\ChartDesignPropertyAddIn\ChartDesignPropertyAddIn\ColourPopup.cpp
; File C:\Program Files (x86)\Microsoft Visual Studio\2019\Community\VC\Tools\MSVC\14.29.30133\atlmfc\include\afxwin1.inl
; File D:\git\src\IBK\IBK_DRFN\ProjSrc\SrcChartEx\ChartAddIn\ChartDesignPropertyAddIn\ChartDesignPropertyAddIn\ColourPopup.cpp
; File C:\Program Files (x86)\Microsoft Visual Studio\2019\Community\VC\Tools\MSVC\14.29.30133\atlmfc\include\afxwin1.inl
; File D:\git\src\IBK\IBK_DRFN\ProjSrc\SrcChartEx\ChartAddIn\ChartDesignPropertyAddIn\ChartDesignPropertyAddIn\ColourPopup.cpp
; File C:\Program Files (x86)\Microsoft Visual Studio\2019\Community\VC\Tools\MSVC\14.29.30133\atlmfc\include\afxwin1.inl
; File D:\git\src\IBK\IBK_DRFN\ProjSrc\SrcChartEx\ChartAddIn\ChartDesignPropertyAddIn\ChartDesignPropertyAddIn\ColourPopup.cpp
; File C:\Program Files (x86)\Microsoft Visual Studio\2019\Community\VC\Tools\MSVC\14.29.30133\atlmfc\include\afxwin1.inl
; File D:\git\src\IBK\IBK_DRFN\ProjSrc\SrcChartEx\ChartAddIn\ChartDesignPropertyAddIn\ChartDesignPropertyAddIn\ColourPopup.cpp
; File C:\Program Files (x86)\Microsoft Visual Studio\2019\Community\VC\Tools\MSVC\14.29.30133\atlmfc\include\afxwin1.inl
; File D:\git\src\IBK\IBK_DRFN\ProjSrc\SrcChartEx\ChartAddIn\ChartDesignPropertyAddIn\ChartDesignPropertyAddIn\ColourPopup.cpp
; File C:\Program Files (x86)\Microsoft Visual Studio\2019\Community\VC\Tools\MSVC\14.29.30133\atlmfc\include\afxwin1.inl
; File D:\git\src\IBK\IBK_DRFN\ProjSrc\SrcChartEx\ChartAddIn\ChartDesignPropertyAddIn\ChartDesignPropertyAddIn\ColourPopup.cpp
;	COMDAT ?Initialise@CColourPopup@@QAEXXZ
_TEXT	SEGMENT
_pal$ = -1380						; size = 1032
_ncm$ = -348						; size = 344
__$ArrayPad$ = -4					; size = 4
?Initialise@CColourPopup@@QAEXXZ PROC			; CColourPopup::Initialise, COMDAT
; _this$ = ecx

; 99   : {

  00000	55		 push	 ebp
  00001	8b ec		 mov	 ebp, esp
  00003	81 ec 64 05 00
	00		 sub	 esp, 1380		; 00000564H
  00009	a1 00 00 00 00	 mov	 eax, DWORD PTR ___security_cookie
  0000e	33 c5		 xor	 eax, ebp
  00010	89 45 fc	 mov	 DWORD PTR __$ArrayPad$[ebp], eax
  00013	56		 push	 esi
  00014	8b f1		 mov	 esi, ecx
  00016	57		 push	 edi

; 100  :     
; 101  :     m_nNumColumns       = 0;
; 102  :     m_nNumRows          = 0;
; 103  :     m_nBoxSize          = 18;
; 104  :     m_nMargin           = ::GetSystemMetrics(SM_CXEDGE);

  00017	6a 2d		 push	 45			; 0000002dH
  00019	c7 86 88 00 00
	00 00 00 00 00	 mov	 DWORD PTR [esi+136], 0
  00023	c7 86 8c 00 00
	00 00 00 00 00	 mov	 DWORD PTR [esi+140], 0
  0002d	c7 86 90 00 00
	00 12 00 00 00	 mov	 DWORD PTR [esi+144], 18	; 00000012H
  00037	ff 15 00 00 00
	00		 call	 DWORD PTR __imp__GetSystemMetrics@4
  0003d	89 86 94 00 00
	00		 mov	 DWORD PTR [esi+148], eax

; 105  :     m_nCurrentSel       = INVALID_COLOUR;

  00043	c7 86 98 00 00
	00 ff ff ff ff	 mov	 DWORD PTR [esi+152], -1

; 106  :     m_nChosenColourSel  = INVALID_COLOUR;

  0004d	c7 86 9c 00 00
	00 ff ff ff ff	 mov	 DWORD PTR [esi+156], -1

; 107  :     m_pParent           = NULL;
; 108  :     m_crColour          = m_crInitialColour = RGB(0,0,0);
; 109  : 
; 110  :     // Idiot check: Make sure the colour square is at least 5 x 5;
; 111  :     if (m_nBoxSize - 2*m_nMargin - 2 < 5) m_nBoxSize = 5 + 2*m_nMargin + 2;

  00057	8d 0c 00	 lea	 ecx, DWORD PTR [eax+eax]
  0005a	c7 86 90 01 00
	00 00 00 00 00	 mov	 DWORD PTR [esi+400], 0
  00064	8b 86 90 00 00
	00		 mov	 eax, DWORD PTR [esi+144]
  0006a	2b c1		 sub	 eax, ecx
  0006c	c7 86 e8 00 00
	00 00 00 00 00	 mov	 DWORD PTR [esi+232], 0
  00076	83 e8 02	 sub	 eax, 2
  00079	c7 86 ec 00 00
	00 00 00 00 00	 mov	 DWORD PTR [esi+236], 0
  00083	83 f8 05	 cmp	 eax, 5
  00086	7d 09		 jge	 SHORT $LN5@Initialise
  00088	8d 41 07	 lea	 eax, DWORD PTR [ecx+7]
  0008b	89 86 90 00 00
	00		 mov	 DWORD PTR [esi+144], eax
$LN5@Initialise:

; 112  : 
; 113  :     // Create the font
; 114  :     NONCLIENTMETRICS ncm;
; 115  :     ncm.cbSize = sizeof(NONCLIENTMETRICS);
; 116  :     VERIFY(SystemParametersInfo(SPI_GETNONCLIENTMETRICS, sizeof(NONCLIENTMETRICS), &ncm, 0));

  00091	6a 00		 push	 0
  00093	8d 85 a4 fe ff
	ff		 lea	 eax, DWORD PTR _ncm$[ebp]
  00099	c7 85 a4 fe ff
	ff 58 01 00 00	 mov	 DWORD PTR _ncm$[ebp], 344 ; 00000158H
  000a3	50		 push	 eax
  000a4	68 58 01 00 00	 push	 344			; 00000158H
  000a9	6a 29		 push	 41			; 00000029H
  000ab	ff 15 00 00 00
	00		 call	 DWORD PTR __imp__SystemParametersInfoA@16
; File C:\Program Files (x86)\Microsoft Visual Studio\2019\Community\VC\Tools\MSVC\14.29.30133\atlmfc\include\afxwin1.inl

; 157  : 	{ return Attach(::CreateFontIndirect(lpLogFont)); }

  000b1	8d 45 bc	 lea	 eax, DWORD PTR _ncm$[ebp+280]
  000b4	50		 push	 eax
  000b5	ff 15 00 00 00
	00		 call	 DWORD PTR __imp__CreateFontIndirectA@4
  000bb	50		 push	 eax
; File D:\git\src\IBK\IBK_DRFN\ProjSrc\SrcChartEx\ChartAddIn\ChartDesignPropertyAddIn\ChartDesignPropertyAddIn\ColourPopup.cpp

; 117  :     m_Font.CreateFontIndirect(&(ncm.lfMessageFont));

  000bc	8d 8e d8 00 00
	00		 lea	 ecx, DWORD PTR [esi+216]
; File C:\Program Files (x86)\Microsoft Visual Studio\2019\Community\VC\Tools\MSVC\14.29.30133\atlmfc\include\afxwin1.inl

; 157  : 	{ return Attach(::CreateFontIndirect(lpLogFont)); }

  000c2	e8 00 00 00 00	 call	 ?Attach@CGdiObject@@QAEHPAX@Z ; CGdiObject::Attach
; File D:\git\src\IBK\IBK_DRFN\ProjSrc\SrcChartEx\ChartAddIn\ChartDesignPropertyAddIn\ChartDesignPropertyAddIn\ColourPopup.cpp

; 127  :     pLogPalette->palVersion    = 0x300;

  000c7	b8 00 03 00 00	 mov	 eax, 768		; 00000300H

; 128  :     pLogPalette->palNumEntries = (WORD) m_nNumColours; 
; 129  : 
; 130  :     for (int i = 0; i < m_nNumColours; i++)

  000cc	33 ff		 xor	 edi, edi
  000ce	66 89 85 9c fa
	ff ff		 mov	 WORD PTR _pal$[ebp], ax
  000d5	66 8b 86 84 00
	00 00		 mov	 ax, WORD PTR [esi+132]
  000dc	66 89 85 9e fa
	ff ff		 mov	 WORD PTR _pal$[ebp+2], ax
  000e3	39 be 84 00 00
	00		 cmp	 DWORD PTR [esi+132], edi
  000e9	7e 3c		 jle	 SHORT $LN3@Initialise
  000eb	0f 1f 44 00 00	 npad	 5
$LL4@Initialise:

; 131  :     {
; 132  : 
; 133  : 		COLORREF color = m_colorTableMgr.GetColor(i);

  000f0	57		 push	 edi
  000f1	e8 00 00 00 00	 call	 ?GetColor@CColorTableMgr@@SAKH@Z ; CColorTableMgr::GetColor

; 134  : 		pLogPalette->palPalEntry[i].peRed   = GetRValue(color);
; 135  :         pLogPalette->palPalEntry[i].peGreen = GetGValue(color);

  000f6	8b c8		 mov	 ecx, eax
  000f8	88 84 bd a0 fa
	ff ff		 mov	 BYTE PTR _pal$[ebp+edi*4+4], al
  000ff	c1 e9 08	 shr	 ecx, 8
  00102	83 c4 04	 add	 esp, 4

; 136  :         pLogPalette->palPalEntry[i].peBlue  = GetBValue(color);

  00105	c1 e8 10	 shr	 eax, 16			; 00000010H
  00108	88 8c bd a1 fa
	ff ff		 mov	 BYTE PTR _pal$[ebp+edi*4+5], cl
  0010f	88 84 bd a2 fa
	ff ff		 mov	 BYTE PTR _pal$[ebp+edi*4+6], al

; 137  :         pLogPalette->palPalEntry[i].peFlags = 0;

  00116	c6 84 bd a3 fa
	ff ff 00	 mov	 BYTE PTR _pal$[ebp+edi*4+7], 0
  0011e	47		 inc	 edi
  0011f	3b be 84 00 00
	00		 cmp	 edi, DWORD PTR [esi+132]
  00125	7c c9		 jl	 SHORT $LL4@Initialise
$LN3@Initialise:
; File C:\Program Files (x86)\Microsoft Visual Studio\2019\Community\VC\Tools\MSVC\14.29.30133\atlmfc\include\afxwin1.inl

; 234  : 	{ return Attach(::CreatePalette(lpLogPalette)); }

  00127	8d 85 9c fa ff
	ff		 lea	 eax, DWORD PTR _pal$[ebp]
  0012d	50		 push	 eax
  0012e	ff 15 00 00 00
	00		 call	 DWORD PTR __imp__CreatePalette@4
  00134	50		 push	 eax
; File D:\git\src\IBK\IBK_DRFN\ProjSrc\SrcChartEx\ChartAddIn\ChartDesignPropertyAddIn\ChartDesignPropertyAddIn\ColourPopup.cpp

; 140  :     m_Palette.CreatePalette(pLogPalette);

  00135	8d 8e e0 00 00
	00		 lea	 ecx, DWORD PTR [esi+224]
; File C:\Program Files (x86)\Microsoft Visual Studio\2019\Community\VC\Tools\MSVC\14.29.30133\atlmfc\include\afxwin1.inl

; 234  : 	{ return Attach(::CreatePalette(lpLogPalette)); }

  0013b	e8 00 00 00 00	 call	 ?Attach@CGdiObject@@QAEHPAX@Z ; CGdiObject::Attach
; File D:\git\src\IBK\IBK_DRFN\ProjSrc\SrcChartEx\ChartAddIn\ChartDesignPropertyAddIn\ChartDesignPropertyAddIn\ColourPopup.cpp

; 141  : }

  00140	8b 4d fc	 mov	 ecx, DWORD PTR __$ArrayPad$[ebp]
; File C:\Program Files (x86)\Microsoft Visual Studio\2019\Community\VC\Tools\MSVC\14.29.30133\atlmfc\include\afxwin1.inl

; 234  : 	{ return Attach(::CreatePalette(lpLogPalette)); }

  00143	5f		 pop	 edi
; File D:\git\src\IBK\IBK_DRFN\ProjSrc\SrcChartEx\ChartAddIn\ChartDesignPropertyAddIn\ChartDesignPropertyAddIn\ColourPopup.cpp

; 141  : }

  00144	33 cd		 xor	 ecx, ebp
; File C:\Program Files (x86)\Microsoft Visual Studio\2019\Community\VC\Tools\MSVC\14.29.30133\atlmfc\include\afxwin1.inl

; 234  : 	{ return Attach(::CreatePalette(lpLogPalette)); }

  00146	5e		 pop	 esi
; File D:\git\src\IBK\IBK_DRFN\ProjSrc\SrcChartEx\ChartAddIn\ChartDesignPropertyAddIn\ChartDesignPropertyAddIn\ColourPopup.cpp

; 141  : }

  00147	e8 00 00 00 00	 call	 @__security_check_cookie@4
  0014c	8b e5		 mov	 esp, ebp
  0014e	5d		 pop	 ebp
  0014f	c3		 ret	 0
?Initialise@CColourPopup@@QAEXXZ ENDP			; CColourPopup::Initialise
_TEXT	ENDS
; Function compile flags: /Ogtp
; File D:\git\src\IBK\IBK_DRFN\ProjSrc\SrcChartEx\ChartAddIn\ChartDesignPropertyAddIn\ChartDesignPropertyAddIn\ColourPopup.cpp
; File C:\Program Files (x86)\Microsoft Visual Studio\2019\Community\VC\Tools\MSVC\14.29.30133\atlmfc\include\atltypes.h
; File C:\Program Files (x86)\Microsoft Visual Studio\2019\Community\VC\Tools\MSVC\14.29.30133\atlmfc\include\afxwin1.inl
; File D:\git\src\IBK\IBK_DRFN\ProjSrc\SrcChartEx\ChartAddIn\ChartDesignPropertyAddIn\ChartDesignPropertyAddIn\ColourPopup.cpp
; File C:\Program Files (x86)\Microsoft Visual Studio\2019\Community\VC\Tools\MSVC\14.29.30133\atlmfc\include\afxwin2.inl
; File D:\git\src\IBK\IBK_DRFN\ProjSrc\SrcChartEx\ChartAddIn\ChartDesignPropertyAddIn\ChartDesignPropertyAddIn\ColourPopup.cpp
; File C:\Program Files (x86)\Microsoft Visual Studio\2019\Community\VC\Tools\MSVC\14.29.30133\atlmfc\include\afxwin2.inl
; File D:\git\src\IBK\IBK_DRFN\ProjSrc\SrcChartEx\ChartAddIn\ChartDesignPropertyAddIn\ChartDesignPropertyAddIn\ColourPopup.cpp
; File C:\Program Files (x86)\Microsoft Visual Studio\2019\Community\VC\Tools\MSVC\14.29.30133\atlmfc\include\afxwin2.inl
; File D:\git\src\IBK\IBK_DRFN\ProjSrc\SrcChartEx\ChartAddIn\ChartDesignPropertyAddIn\ChartDesignPropertyAddIn\ColourPopup.cpp
;	COMDAT ??0CColourPopup@@QAE@PAUHWND__@@VCPoint@@KPAVCWnd@@PBD3@Z
_TEXT	SEGMENT
_this$ = -16						; size = 4
__$EHRec$ = -12						; size = 12
_szClassName$2 = 8					; size = 4
_p_hOcxWnd$ = 8						; size = 4
_p$ = 12						; size = 8
_crColour$ = 20						; size = 4
_pParentWnd$ = 24					; size = 4
_szDefaultText$ = 28					; size = 4
_szCustomText$ = 32					; size = 4
??0CColourPopup@@QAE@PAUHWND__@@VCPoint@@KPAVCWnd@@PBD3@Z PROC ; CColourPopup::CColourPopup, COMDAT
; _this$ = ecx

; 71   : {

  00000	55		 push	 ebp
  00001	8b ec		 mov	 ebp, esp
  00003	6a ff		 push	 -1
  00005	68 00 00 00 00	 push	 __ehhandler$??0CColourPopup@@QAE@PAUHWND__@@VCPoint@@KPAVCWnd@@PBD3@Z
  0000a	64 a1 00 00 00
	00		 mov	 eax, DWORD PTR fs:0
  00010	50		 push	 eax
  00011	51		 push	 ecx
  00012	53		 push	 ebx
  00013	56		 push	 esi
  00014	57		 push	 edi
  00015	a1 00 00 00 00	 mov	 eax, DWORD PTR ___security_cookie
  0001a	33 c5		 xor	 eax, ebp
  0001c	50		 push	 eax
  0001d	8d 45 f4	 lea	 eax, DWORD PTR __$EHRec$[ebp]
  00020	64 a3 00 00 00
	00		 mov	 DWORD PTR fs:0, eax
  00026	8b f9		 mov	 edi, ecx
  00028	89 7d f0	 mov	 DWORD PTR _this$[ebp], edi
  0002b	e8 00 00 00 00	 call	 ??0CWnd@@QAE@XZ		; CWnd::CWnd
  00030	8d 8f 80 00 00
	00		 lea	 ecx, DWORD PTR [edi+128]
  00036	c7 45 fc 00 00
	00 00		 mov	 DWORD PTR __$EHRec$[ebp+8], 0
  0003d	c7 07 00 00 00
	00		 mov	 DWORD PTR [edi], OFFSET ??_7CColourPopup@@6B@
  00043	e8 00 00 00 00	 call	 ??0CColorTableMgr@@QAE@XZ ; CColorTableMgr::CColorTableMgr
  00048	8d 8f a0 00 00
	00		 lea	 ecx, DWORD PTR [edi+160]
  0004e	ff 15 00 00 00
	00		 call	 DWORD PTR __imp_??0?$CStringT@DV?$StrTraitMFC_DLL@DV?$ChTraitsCRT@D@ATL@@@@@ATL@@QAE@XZ
  00054	8d 8f a4 00 00
	00		 lea	 ecx, DWORD PTR [edi+164]
  0005a	ff 15 00 00 00
	00		 call	 DWORD PTR __imp_??0?$CStringT@DV?$StrTraitMFC_DLL@DV?$ChTraitsCRT@D@ATL@@@@@ATL@@QAE@XZ
; File C:\Program Files (x86)\Microsoft Visual Studio\2019\Community\VC\Tools\MSVC\14.29.30133\atlmfc\include\atltypes.h

; 528  : 	left = 0;

  00060	c7 87 a8 00 00
	00 00 00 00 00	 mov	 DWORD PTR [edi+168], 0

; 529  : 	top = 0;

  0006a	c7 87 ac 00 00
	00 00 00 00 00	 mov	 DWORD PTR [edi+172], 0

; 530  : 	right = 0;

  00074	c7 87 b0 00 00
	00 00 00 00 00	 mov	 DWORD PTR [edi+176], 0

; 531  : 	bottom = 0;

  0007e	c7 87 b4 00 00
	00 00 00 00 00	 mov	 DWORD PTR [edi+180], 0

; 528  : 	left = 0;

  00088	c7 87 b8 00 00
	00 00 00 00 00	 mov	 DWORD PTR [edi+184], 0

; 529  : 	top = 0;

  00092	c7 87 bc 00 00
	00 00 00 00 00	 mov	 DWORD PTR [edi+188], 0

; 530  : 	right = 0;

  0009c	c7 87 c0 00 00
	00 00 00 00 00	 mov	 DWORD PTR [edi+192], 0

; 531  : 	bottom = 0;

  000a6	c7 87 c4 00 00
	00 00 00 00 00	 mov	 DWORD PTR [edi+196], 0

; 528  : 	left = 0;

  000b0	c7 87 c8 00 00
	00 00 00 00 00	 mov	 DWORD PTR [edi+200], 0

; 529  : 	top = 0;

  000ba	c7 87 cc 00 00
	00 00 00 00 00	 mov	 DWORD PTR [edi+204], 0

; 530  : 	right = 0;

  000c4	c7 87 d0 00 00
	00 00 00 00 00	 mov	 DWORD PTR [edi+208], 0

; 531  : 	bottom = 0;

  000ce	c7 87 d4 00 00
	00 00 00 00 00	 mov	 DWORD PTR [edi+212], 0
; File C:\Program Files (x86)\Microsoft Visual Studio\2019\Community\VC\Tools\MSVC\14.29.30133\atlmfc\include\afxwin1.inl

; 70   : 	{ m_hObject = NULL; }

  000d8	c7 87 dc 00 00
	00 00 00 00 00	 mov	 DWORD PTR [edi+220], 0

; 153  : 	{ }

  000e2	c7 87 d8 00 00
	00 00 00 00 00	 mov	 DWORD PTR [edi+216], OFFSET ??_7CFont@@6B@

; 70   : 	{ m_hObject = NULL; }

  000ec	c7 87 e4 00 00
	00 00 00 00 00	 mov	 DWORD PTR [edi+228], 0

; 230  : 	{ }

  000f6	c7 87 e0 00 00
	00 00 00 00 00	 mov	 DWORD PTR [edi+224], OFFSET ??_7CPalette@@6B@
; File D:\git\src\IBK\IBK_DRFN\ProjSrc\SrcChartEx\ChartAddIn\ChartDesignPropertyAddIn\ChartDesignPropertyAddIn\ColourPopup.cpp

; 71   : {

  00100	8d 8f f0 00 00
	00		 lea	 ecx, DWORD PTR [edi+240]
  00106	c6 45 fc 05	 mov	 BYTE PTR __$EHRec$[ebp+8], 5
  0010a	e8 00 00 00 00	 call	 ??0CToolTipCtrl@@QAE@XZ	; CToolTipCtrl::CToolTipCtrl

; 72   : 	// (2008/1/14 - Seung-Won, Bae) for MultiLanguage.
; 73   : 	m_hOcxWnd = p_hOcxWnd;

  0010f	8b 45 08	 mov	 eax, DWORD PTR _p_hOcxWnd$[ebp]

; 74   : 
; 75   : 	m_nNumColours       = 256;
; 76   : 
; 77   :     Initialise();

  00112	8b cf		 mov	 ecx, edi
  00114	c6 45 fc 06	 mov	 BYTE PTR __$EHRec$[ebp+8], 6
  00118	89 87 94 01 00
	00		 mov	 DWORD PTR [edi+404], eax
  0011e	c7 87 84 00 00
	00 00 01 00 00	 mov	 DWORD PTR [edi+132], 256 ; 00000100H
  00128	e8 00 00 00 00	 call	 ?Initialise@CColourPopup@@QAEXXZ ; CColourPopup::Initialise

; 78   : 
; 79   :     m_crColour       = m_crInitialColour = crColour;
; 80   :     m_pParent        = pParentWnd;
; 81   :     m_strDefaultText = (szDefaultText)? szDefaultText : _T("");

  0012d	8b 4d 1c	 mov	 ecx, DWORD PTR _szDefaultText$[ebp]
  00130	be 00 00 00 00	 mov	 esi, OFFSET ??_C@_00CNPNBAHC@@
  00135	8b 45 18	 mov	 eax, DWORD PTR _pParentWnd$[ebp]
  00138	85 c9		 test	 ecx, ecx
  0013a	8b 5d 14	 mov	 ebx, DWORD PTR _crColour$[ebp]
  0013d	89 87 90 01 00
	00		 mov	 DWORD PTR [edi+400], eax
  00143	8b c6		 mov	 eax, esi
  00145	0f 45 c1	 cmovne	 eax, ecx
  00148	89 9f e8 00 00
	00		 mov	 DWORD PTR [edi+232], ebx
  0014e	50		 push	 eax
  0014f	8d 8f a0 00 00
	00		 lea	 ecx, DWORD PTR [edi+160]
  00155	89 9f ec 00 00
	00		 mov	 DWORD PTR [edi+236], ebx
  0015b	ff 15 00 00 00
	00		 call	 DWORD PTR __imp_??4?$CStringT@DV?$StrTraitMFC_DLL@DV?$ChTraitsCRT@D@ATL@@@@@ATL@@QAEAAV01@PBD@Z

; 82   :     m_strCustomText  = (szCustomText)?  szCustomText  : _T("");

  00161	8b 45 20	 mov	 eax, DWORD PTR _szCustomText$[ebp]
  00164	8d 8f a4 00 00
	00		 lea	 ecx, DWORD PTR [edi+164]
  0016a	85 c0		 test	 eax, eax
  0016c	0f 45 f0	 cmovne	 esi, eax
  0016f	56		 push	 esi
  00170	ff 15 00 00 00
	00		 call	 DWORD PTR __imp_??4?$CStringT@DV?$StrTraitMFC_DLL@DV?$ChTraitsCRT@D@ATL@@@@@ATL@@QAEAAV01@PBD@Z

; 156  :     m_pParent  = pParentWnd;

  00176	8b 45 18	 mov	 eax, DWORD PTR _pParentWnd$[ebp]

; 160  :     CString szClassName = AfxRegisterWndClass(CS_CLASSDC|CS_SAVEBITS|CS_HREDRAW|CS_VREDRAW,

  00179	6a 00		 push	 0
  0017b	6a 10		 push	 16			; 00000010H
  0017d	6a 00		 push	 0
  0017f	68 43 08 00 00	 push	 2115			; 00000843H
  00184	89 87 90 01 00
	00		 mov	 DWORD PTR [edi+400], eax
  0018a	89 9f e8 00 00
	00		 mov	 DWORD PTR [edi+232], ebx
  00190	89 9f ec 00 00
	00		 mov	 DWORD PTR [edi+236], ebx
  00196	e8 00 00 00 00	 call	 ?AfxRegisterWndClass@@YGPBDIPAUHICON__@@PAUHBRUSH__@@0@Z ; AfxRegisterWndClass
  0019b	50		 push	 eax
  0019c	8d 4d 08	 lea	 ecx, DWORD PTR _szClassName$2[ebp]
  0019f	ff 15 00 00 00
	00		 call	 DWORD PTR __imp_??0?$CStringT@DV?$StrTraitMFC_DLL@DV?$ChTraitsCRT@D@ATL@@@@@ATL@@QAE@PBD@Z
; File C:\Program Files (x86)\Microsoft Visual Studio\2019\Community\VC\Tools\MSVC\14.29.30133\atlmfc\include\afxwin2.inl

; 25   : 	{ return this == NULL ? NULL : m_hWnd; }

  001a5	8b 45 18	 mov	 eax, DWORD PTR _pParentWnd$[ebp]
; File D:\git\src\IBK\IBK_DRFN\ProjSrc\SrcChartEx\ChartAddIn\ChartDesignPropertyAddIn\ChartDesignPropertyAddIn\ColourPopup.cpp

; 160  :     CString szClassName = AfxRegisterWndClass(CS_CLASSDC|CS_SAVEBITS|CS_HREDRAW|CS_VREDRAW,

  001a8	c6 45 fc 07	 mov	 BYTE PTR __$EHRec$[ebp+8], 7
; File C:\Program Files (x86)\Microsoft Visual Studio\2019\Community\VC\Tools\MSVC\14.29.30133\atlmfc\include\afxwin2.inl

; 25   : 	{ return this == NULL ? NULL : m_hWnd; }

  001ac	85 c0		 test	 eax, eax
  001ae	74 03		 je	 SHORT $LN33@CColourPop
$LN32@CColourPop:
  001b0	8b 40 20	 mov	 eax, DWORD PTR [eax+32]
$LN33@CColourPop:
; File D:\git\src\IBK\IBK_DRFN\ProjSrc\SrcChartEx\ChartAddIn\ChartDesignPropertyAddIn\ChartDesignPropertyAddIn\ColourPopup.cpp

; 165  :     if (!CWnd::CreateEx(0, szClassName, _T(""), WS_VISIBLE|WS_POPUP, 

  001b3	6a 00		 push	 0
  001b5	6a 00		 push	 0
  001b7	50		 push	 eax
  001b8	6a 64		 push	 100			; 00000064H
  001ba	6a 64		 push	 100			; 00000064H
  001bc	ff 75 10	 push	 DWORD PTR _p$[ebp+4]
  001bf	8b cf		 mov	 ecx, edi
  001c1	ff 75 0c	 push	 DWORD PTR _p$[ebp]
  001c4	68 00 00 00 90	 push	 -1879048192		; 90000000H
  001c9	68 00 00 00 00	 push	 OFFSET ??_C@_00CNPNBAHC@@
  001ce	ff 75 08	 push	 DWORD PTR _szClassName$2[ebp]
  001d1	6a 00		 push	 0
  001d3	e8 00 00 00 00	 call	 ?CreateEx@CWnd@@UAEHKPBD0KHHHHPAUHWND__@@PAUHMENU__@@PAX@Z ; CWnd::CreateEx
  001d8	85 c0		 test	 eax, eax
  001da	0f 84 93 00 00
	00		 je	 $LN64@CColourPop

; 166  :                         p.x, p.y, 100, 100, // size updated soon
; 167  :                         pParentWnd->GetSafeHwnd(), 0, NULL))
; 168  :         return FALSE;
; 169  : 
; 170  :     // Store the Custom text
; 171  :     if (szCustomText != NULL) 

  001e0	8b 45 20	 mov	 eax, DWORD PTR _szCustomText$[ebp]
  001e3	85 c0		 test	 eax, eax
  001e5	74 0d		 je	 SHORT $LN26@CColourPop

; 172  :         m_strCustomText = szCustomText;

  001e7	50		 push	 eax
  001e8	8d 8f a4 00 00
	00		 lea	 ecx, DWORD PTR [edi+164]
  001ee	ff 15 00 00 00
	00		 call	 DWORD PTR __imp_??4?$CStringT@DV?$StrTraitMFC_DLL@DV?$ChTraitsCRT@D@ATL@@@@@ATL@@QAEAAV01@PBD@Z
$LN26@CColourPop:

; 173  : 
; 174  :     // Store the Default Area text
; 175  :     if (szDefaultText != NULL) 

  001f4	8b 45 1c	 mov	 eax, DWORD PTR _szDefaultText$[ebp]
  001f7	8d b7 a0 00 00
	00		 lea	 esi, DWORD PTR [edi+160]
  001fd	85 c0		 test	 eax, eax
  001ff	74 09		 je	 SHORT $LN27@CColourPop

; 176  :         m_strDefaultText = szDefaultText;

  00201	50		 push	 eax
  00202	8b ce		 mov	 ecx, esi
  00204	ff 15 00 00 00
	00		 call	 DWORD PTR __imp_??4?$CStringT@DV?$StrTraitMFC_DLL@DV?$ChTraitsCRT@D@ATL@@@@@ATL@@QAEAAV01@PBD@Z
$LN27@CColourPop:

; 177  :         
; 178  :     // Set the window size
; 179  :     SetWindowSize();

  0020a	8b cf		 mov	 ecx, edi
  0020c	e8 00 00 00 00	 call	 ?SetWindowSize@CColourPopup@@IAEXXZ ; CColourPopup::SetWindowSize

; 495  :     if (crColour == CLR_DEFAULT && m_strDefaultText.GetLength())

  00211	81 fb 00 00 00
	ff		 cmp	 ebx, -16777216		; ff000000H
  00217	75 0f		 jne	 SHORT $LN40@CColourPop
  00219	8b 06		 mov	 eax, DWORD PTR [esi]
  0021b	83 78 f4 00	 cmp	 DWORD PTR [eax-12], 0
  0021f	74 07		 je	 SHORT $LN40@CColourPop

; 496  :     {
; 497  :         m_nChosenColourSel = DEFAULT_BOX_VALUE;

  00221	be fd ff ff ff	 mov	 esi, -3			; fffffffdH

; 498  :         return;

  00226	eb 36		 jmp	 SHORT $LN43@CColourPop
$LN40@CColourPop:

; 499  :     }
; 500  : 
; 501  :     for (int i = 0; i < m_nNumColours; i++)

  00228	33 f6		 xor	 esi, esi
  0022a	39 b7 84 00 00
	00		 cmp	 DWORD PTR [edi+132], esi
  00230	7e 16		 jle	 SHORT $LN38@CColourPop
$LL39@CColourPop:

; 90   : 	return m_colorTableMgr.GetColor(nIndex);

  00232	56		 push	 esi
  00233	e8 00 00 00 00	 call	 ?GetColor@CColorTableMgr@@SAKH@Z ; CColorTableMgr::GetColor
  00238	83 c4 04	 add	 esp, 4

; 503  :         if (GetColour(i) == crColour)

  0023b	3b c3		 cmp	 eax, ebx
  0023d	74 1f		 je	 SHORT $LN43@CColourPop

; 499  :     }
; 500  : 
; 501  :     for (int i = 0; i < m_nNumColours; i++)

  0023f	46		 inc	 esi
  00240	3b b7 84 00 00
	00		 cmp	 esi, DWORD PTR [edi+132]
  00246	7c ea		 jl	 SHORT $LL39@CColourPop
$LN38@CColourPop:

; 504  :         {
; 505  :             m_nChosenColourSel = i;
; 506  :             return;
; 507  :         }
; 508  :     }
; 509  : 
; 510  :     if (m_strCustomText.GetLength())

  00248	8b 87 a4 00 00
	00		 mov	 eax, DWORD PTR [edi+164]
  0024e	83 78 f4 00	 cmp	 DWORD PTR [eax-12], 0
  00252	74 07		 je	 SHORT $LN42@CColourPop

; 511  :         m_nChosenColourSel = CUSTOM_BOX_VALUE;

  00254	be fe ff ff ff	 mov	 esi, -2			; fffffffeH
  00259	eb 03		 jmp	 SHORT $LN43@CColourPop
$LN42@CColourPop:

; 512  :     else
; 513  :         m_nChosenColourSel = INVALID_COLOUR;

  0025b	83 ce ff	 or	 esi, -1
$LN43@CColourPop:
; File C:\Program Files (x86)\Microsoft Visual Studio\2019\Community\VC\Tools\MSVC\14.29.30133\atlmfc\include\afxwin2.inl

; 163  : 	{ ASSERT(::IsWindow(m_hWnd)); return CWnd::FromHandle(::SetCapture(m_hWnd)); }

  0025e	89 b7 9c 00 00
	00		 mov	 DWORD PTR [edi+156], esi
  00264	ff 77 20	 push	 DWORD PTR [edi+32]
  00267	ff 15 00 00 00
	00		 call	 DWORD PTR __imp__SetCapture@4
  0026d	50		 push	 eax
  0026e	e8 00 00 00 00	 call	 ?FromHandle@CWnd@@SGPAV1@PAUHWND__@@@Z ; CWnd::FromHandle
$LN64@CColourPop:
; File D:\git\src\IBK\IBK_DRFN\ProjSrc\SrcChartEx\ChartAddIn\ChartDesignPropertyAddIn\ChartDesignPropertyAddIn\ColourPopup.cpp

; 85   : }

  00273	8d 4d 08	 lea	 ecx, DWORD PTR _szClassName$2[ebp]
  00276	ff 15 00 00 00
	00		 call	 DWORD PTR __imp_??1?$CStringT@DV?$StrTraitMFC_DLL@DV?$ChTraitsCRT@D@ATL@@@@@ATL@@QAE@XZ
  0027c	8b c7		 mov	 eax, edi
  0027e	8b 4d f4	 mov	 ecx, DWORD PTR __$EHRec$[ebp]
  00281	64 89 0d 00 00
	00 00		 mov	 DWORD PTR fs:0, ecx
  00288	59		 pop	 ecx
  00289	5f		 pop	 edi
  0028a	5e		 pop	 esi
  0028b	5b		 pop	 ebx
  0028c	8b e5		 mov	 esp, ebp
  0028e	5d		 pop	 ebp
  0028f	c2 1c 00	 ret	 28			; 0000001cH
_TEXT	ENDS
;	COMDAT text$x
text$x	SEGMENT
__unwindfunclet$??0CColourPopup@@QAE@PAUHWND__@@VCPoint@@KPAVCWnd@@PBD3@Z$0:
  00000	8b 4d f0	 mov	 ecx, DWORD PTR _this$[ebp]
  00003	e9 00 00 00 00	 jmp	 ??1CWnd@@UAE@XZ		; CWnd::~CWnd
__unwindfunclet$??0CColourPopup@@QAE@PAUHWND__@@VCPoint@@KPAVCWnd@@PBD3@Z$1:
  00008	8b 4d f0	 mov	 ecx, DWORD PTR _this$[ebp]
  0000b	81 c1 80 00 00
	00		 add	 ecx, 128		; 00000080H
  00011	e9 00 00 00 00	 jmp	 ??1CColorTableMgr@@QAE@XZ ; CColorTableMgr::~CColorTableMgr
__unwindfunclet$??0CColourPopup@@QAE@PAUHWND__@@VCPoint@@KPAVCWnd@@PBD3@Z$2:
  00016	8b 4d f0	 mov	 ecx, DWORD PTR _this$[ebp]
  00019	81 c1 a0 00 00
	00		 add	 ecx, 160		; 000000a0H
  0001f	ff 25 00 00 00
	00		 jmp	 DWORD PTR __imp_??1?$CStringT@DV?$StrTraitMFC_DLL@DV?$ChTraitsCRT@D@ATL@@@@@ATL@@QAE@XZ
__unwindfunclet$??0CColourPopup@@QAE@PAUHWND__@@VCPoint@@KPAVCWnd@@PBD3@Z$3:
  00025	8b 4d f0	 mov	 ecx, DWORD PTR _this$[ebp]
  00028	81 c1 a4 00 00
	00		 add	 ecx, 164		; 000000a4H
  0002e	ff 25 00 00 00
	00		 jmp	 DWORD PTR __imp_??1?$CStringT@DV?$StrTraitMFC_DLL@DV?$ChTraitsCRT@D@ATL@@@@@ATL@@QAE@XZ
__unwindfunclet$??0CColourPopup@@QAE@PAUHWND__@@VCPoint@@KPAVCWnd@@PBD3@Z$4:
  00034	8b 4d f0	 mov	 ecx, DWORD PTR _this$[ebp]
  00037	81 c1 d8 00 00
	00		 add	 ecx, 216		; 000000d8H
  0003d	e9 00 00 00 00	 jmp	 ??1CFont@@UAE@XZ	; CFont::~CFont
__unwindfunclet$??0CColourPopup@@QAE@PAUHWND__@@VCPoint@@KPAVCWnd@@PBD3@Z$5:
  00042	8b 4d f0	 mov	 ecx, DWORD PTR _this$[ebp]
  00045	81 c1 e0 00 00
	00		 add	 ecx, 224		; 000000e0H
  0004b	e9 00 00 00 00	 jmp	 ??1CPalette@@UAE@XZ	; CPalette::~CPalette
__unwindfunclet$??0CColourPopup@@QAE@PAUHWND__@@VCPoint@@KPAVCWnd@@PBD3@Z$6:
  00050	8b 4d f0	 mov	 ecx, DWORD PTR _this$[ebp]
  00053	81 c1 f0 00 00
	00		 add	 ecx, 240		; 000000f0H
  00059	e9 00 00 00 00	 jmp	 ??1CToolTipCtrl@@UAE@XZ	; CToolTipCtrl::~CToolTipCtrl
__unwindfunclet$??0CColourPopup@@QAE@PAUHWND__@@VCPoint@@KPAVCWnd@@PBD3@Z$7:
  0005e	8d 4d 08	 lea	 ecx, DWORD PTR _szClassName$2[ebp]
  00061	ff 25 00 00 00
	00		 jmp	 DWORD PTR __imp_??1?$CStringT@DV?$StrTraitMFC_DLL@DV?$ChTraitsCRT@D@ATL@@@@@ATL@@QAE@XZ
  00067	cc		 int	 3
  00068	cc		 int	 3
  00069	cc		 int	 3
  0006a	cc		 int	 3
  0006b	cc		 int	 3
__ehhandler$??0CColourPopup@@QAE@PAUHWND__@@VCPoint@@KPAVCWnd@@PBD3@Z:
  0006c	90		 npad	 1
  0006d	90		 npad	 1
  0006e	8b 54 24 08	 mov	 edx, DWORD PTR [esp+8]
  00072	8d 42 0c	 lea	 eax, DWORD PTR [edx+12]
  00075	8b 4a ec	 mov	 ecx, DWORD PTR [edx-20]
  00078	33 c8		 xor	 ecx, eax
  0007a	e8 00 00 00 00	 call	 @__security_check_cookie@4
  0007f	b8 00 00 00 00	 mov	 eax, OFFSET __ehfuncinfo$??0CColourPopup@@QAE@PAUHWND__@@VCPoint@@KPAVCWnd@@PBD3@Z
  00084	e9 00 00 00 00	 jmp	 ___CxxFrameHandler3
text$x	ENDS
??0CColourPopup@@QAE@PAUHWND__@@VCPoint@@KPAVCWnd@@PBD3@Z ENDP ; CColourPopup::CColourPopup
; Function compile flags: /Ogtp
; File D:\git\src\IBK\IBK_DRFN\ProjSrc\SrcChartEx\ChartAddIn\ChartDesignPropertyAddIn\ChartDesignPropertyAddIn\ColourPopup.cpp
; File C:\Program Files (x86)\Microsoft Visual Studio\2019\Community\VC\Tools\MSVC\14.29.30133\atlmfc\include\atltypes.h
; File C:\Program Files (x86)\Microsoft Visual Studio\2019\Community\VC\Tools\MSVC\14.29.30133\atlmfc\include\afxwin1.inl
; File D:\git\src\IBK\IBK_DRFN\ProjSrc\SrcChartEx\ChartAddIn\ChartDesignPropertyAddIn\ChartDesignPropertyAddIn\ColourPopup.cpp
;	COMDAT ??0CColourPopup@@QAE@XZ
_TEXT	SEGMENT
_this$ = -16						; size = 4
__$EHRec$ = -12						; size = 12
??0CColourPopup@@QAE@XZ PROC				; CColourPopup::CColourPopup, COMDAT
; _this$ = ecx

; 60   : {

  00000	55		 push	 ebp
  00001	8b ec		 mov	 ebp, esp
  00003	6a ff		 push	 -1
  00005	68 00 00 00 00	 push	 __ehhandler$??0CColourPopup@@QAE@XZ
  0000a	64 a1 00 00 00
	00		 mov	 eax, DWORD PTR fs:0
  00010	50		 push	 eax
  00011	51		 push	 ecx
  00012	56		 push	 esi
  00013	a1 00 00 00 00	 mov	 eax, DWORD PTR ___security_cookie
  00018	33 c5		 xor	 eax, ebp
  0001a	50		 push	 eax
  0001b	8d 45 f4	 lea	 eax, DWORD PTR __$EHRec$[ebp]
  0001e	64 a3 00 00 00
	00		 mov	 DWORD PTR fs:0, eax
  00024	8b f1		 mov	 esi, ecx
  00026	89 75 f0	 mov	 DWORD PTR _this$[ebp], esi
  00029	e8 00 00 00 00	 call	 ??0CWnd@@QAE@XZ		; CWnd::CWnd
  0002e	8d 8e 80 00 00
	00		 lea	 ecx, DWORD PTR [esi+128]
  00034	c7 45 fc 00 00
	00 00		 mov	 DWORD PTR __$EHRec$[ebp+8], 0
  0003b	c7 06 00 00 00
	00		 mov	 DWORD PTR [esi], OFFSET ??_7CColourPopup@@6B@
  00041	e8 00 00 00 00	 call	 ??0CColorTableMgr@@QAE@XZ ; CColorTableMgr::CColorTableMgr
  00046	8d 8e a0 00 00
	00		 lea	 ecx, DWORD PTR [esi+160]
  0004c	ff 15 00 00 00
	00		 call	 DWORD PTR __imp_??0?$CStringT@DV?$StrTraitMFC_DLL@DV?$ChTraitsCRT@D@ATL@@@@@ATL@@QAE@XZ
  00052	8d 8e a4 00 00
	00		 lea	 ecx, DWORD PTR [esi+164]
  00058	ff 15 00 00 00
	00		 call	 DWORD PTR __imp_??0?$CStringT@DV?$StrTraitMFC_DLL@DV?$ChTraitsCRT@D@ATL@@@@@ATL@@QAE@XZ
; File C:\Program Files (x86)\Microsoft Visual Studio\2019\Community\VC\Tools\MSVC\14.29.30133\atlmfc\include\atltypes.h

; 528  : 	left = 0;

  0005e	c7 86 a8 00 00
	00 00 00 00 00	 mov	 DWORD PTR [esi+168], 0

; 529  : 	top = 0;

  00068	c7 86 ac 00 00
	00 00 00 00 00	 mov	 DWORD PTR [esi+172], 0

; 530  : 	right = 0;

  00072	c7 86 b0 00 00
	00 00 00 00 00	 mov	 DWORD PTR [esi+176], 0

; 531  : 	bottom = 0;

  0007c	c7 86 b4 00 00
	00 00 00 00 00	 mov	 DWORD PTR [esi+180], 0

; 528  : 	left = 0;

  00086	c7 86 b8 00 00
	00 00 00 00 00	 mov	 DWORD PTR [esi+184], 0

; 529  : 	top = 0;

  00090	c7 86 bc 00 00
	00 00 00 00 00	 mov	 DWORD PTR [esi+188], 0

; 530  : 	right = 0;

  0009a	c7 86 c0 00 00
	00 00 00 00 00	 mov	 DWORD PTR [esi+192], 0

; 531  : 	bottom = 0;

  000a4	c7 86 c4 00 00
	00 00 00 00 00	 mov	 DWORD PTR [esi+196], 0

; 528  : 	left = 0;

  000ae	c7 86 c8 00 00
	00 00 00 00 00	 mov	 DWORD PTR [esi+200], 0

; 529  : 	top = 0;

  000b8	c7 86 cc 00 00
	00 00 00 00 00	 mov	 DWORD PTR [esi+204], 0

; 530  : 	right = 0;

  000c2	c7 86 d0 00 00
	00 00 00 00 00	 mov	 DWORD PTR [esi+208], 0

; 531  : 	bottom = 0;

  000cc	c7 86 d4 00 00
	00 00 00 00 00	 mov	 DWORD PTR [esi+212], 0
; File C:\Program Files (x86)\Microsoft Visual Studio\2019\Community\VC\Tools\MSVC\14.29.30133\atlmfc\include\afxwin1.inl

; 70   : 	{ m_hObject = NULL; }

  000d6	c7 86 dc 00 00
	00 00 00 00 00	 mov	 DWORD PTR [esi+220], 0

; 153  : 	{ }

  000e0	c7 86 d8 00 00
	00 00 00 00 00	 mov	 DWORD PTR [esi+216], OFFSET ??_7CFont@@6B@

; 70   : 	{ m_hObject = NULL; }

  000ea	c7 86 e4 00 00
	00 00 00 00 00	 mov	 DWORD PTR [esi+228], 0

; 230  : 	{ }

  000f4	c7 86 e0 00 00
	00 00 00 00 00	 mov	 DWORD PTR [esi+224], OFFSET ??_7CPalette@@6B@
; File D:\git\src\IBK\IBK_DRFN\ProjSrc\SrcChartEx\ChartAddIn\ChartDesignPropertyAddIn\ChartDesignPropertyAddIn\ColourPopup.cpp

; 60   : {

  000fe	8d 8e f0 00 00
	00		 lea	 ecx, DWORD PTR [esi+240]
  00104	c6 45 fc 05	 mov	 BYTE PTR __$EHRec$[ebp+8], 5
  00108	e8 00 00 00 00	 call	 ??0CToolTipCtrl@@QAE@XZ	; CToolTipCtrl::CToolTipCtrl

; 61   : 	m_nNumColours       = 256;
; 62   :     Initialise();

  0010d	8b ce		 mov	 ecx, esi
  0010f	c6 45 fc 06	 mov	 BYTE PTR __$EHRec$[ebp+8], 6
  00113	c7 86 84 00 00
	00 00 01 00 00	 mov	 DWORD PTR [esi+132], 256 ; 00000100H
  0011d	e8 00 00 00 00	 call	 ?Initialise@CColourPopup@@QAEXXZ ; CColourPopup::Initialise

; 63   : 
; 64   : 	// (2008/1/14 - Seung-Won, Bae) for MultiLanguage.
; 65   : 	m_hOcxWnd = NULL;

  00122	c7 86 94 01 00
	00 00 00 00 00	 mov	 DWORD PTR [esi+404], 0

; 66   : }

  0012c	8b c6		 mov	 eax, esi
  0012e	8b 4d f4	 mov	 ecx, DWORD PTR __$EHRec$[ebp]
  00131	64 89 0d 00 00
	00 00		 mov	 DWORD PTR fs:0, ecx
  00138	59		 pop	 ecx
  00139	5e		 pop	 esi
  0013a	8b e5		 mov	 esp, ebp
  0013c	5d		 pop	 ebp
  0013d	c3		 ret	 0
_TEXT	ENDS
;	COMDAT text$x
text$x	SEGMENT
__unwindfunclet$??0CColourPopup@@QAE@XZ$0:
  00000	8b 4d f0	 mov	 ecx, DWORD PTR _this$[ebp]
  00003	e9 00 00 00 00	 jmp	 ??1CWnd@@UAE@XZ		; CWnd::~CWnd
__unwindfunclet$??0CColourPopup@@QAE@XZ$1:
  00008	8b 4d f0	 mov	 ecx, DWORD PTR _this$[ebp]
  0000b	81 c1 80 00 00
	00		 add	 ecx, 128		; 00000080H
  00011	e9 00 00 00 00	 jmp	 ??1CColorTableMgr@@QAE@XZ ; CColorTableMgr::~CColorTableMgr
__unwindfunclet$??0CColourPopup@@QAE@XZ$2:
  00016	8b 4d f0	 mov	 ecx, DWORD PTR _this$[ebp]
  00019	81 c1 a0 00 00
	00		 add	 ecx, 160		; 000000a0H
  0001f	ff 25 00 00 00
	00		 jmp	 DWORD PTR __imp_??1?$CStringT@DV?$StrTraitMFC_DLL@DV?$ChTraitsCRT@D@ATL@@@@@ATL@@QAE@XZ
__unwindfunclet$??0CColourPopup@@QAE@XZ$3:
  00025	8b 4d f0	 mov	 ecx, DWORD PTR _this$[ebp]
  00028	81 c1 a4 00 00
	00		 add	 ecx, 164		; 000000a4H
  0002e	ff 25 00 00 00
	00		 jmp	 DWORD PTR __imp_??1?$CStringT@DV?$StrTraitMFC_DLL@DV?$ChTraitsCRT@D@ATL@@@@@ATL@@QAE@XZ
__unwindfunclet$??0CColourPopup@@QAE@XZ$4:
  00034	8b 4d f0	 mov	 ecx, DWORD PTR _this$[ebp]
  00037	81 c1 d8 00 00
	00		 add	 ecx, 216		; 000000d8H
  0003d	e9 00 00 00 00	 jmp	 ??1CFont@@UAE@XZ	; CFont::~CFont
__unwindfunclet$??0CColourPopup@@QAE@XZ$5:
  00042	8b 4d f0	 mov	 ecx, DWORD PTR _this$[ebp]
  00045	81 c1 e0 00 00
	00		 add	 ecx, 224		; 000000e0H
  0004b	e9 00 00 00 00	 jmp	 ??1CPalette@@UAE@XZ	; CPalette::~CPalette
__unwindfunclet$??0CColourPopup@@QAE@XZ$6:
  00050	8b 4d f0	 mov	 ecx, DWORD PTR _this$[ebp]
  00053	81 c1 f0 00 00
	00		 add	 ecx, 240		; 000000f0H
  00059	e9 00 00 00 00	 jmp	 ??1CToolTipCtrl@@UAE@XZ	; CToolTipCtrl::~CToolTipCtrl
  0005e	cc		 int	 3
  0005f	cc		 int	 3
  00060	cc		 int	 3
  00061	cc		 int	 3
  00062	cc		 int	 3
__ehhandler$??0CColourPopup@@QAE@XZ:
  00063	90		 npad	 1
  00064	90		 npad	 1
  00065	8b 54 24 08	 mov	 edx, DWORD PTR [esp+8]
  00069	8d 42 0c	 lea	 eax, DWORD PTR [edx+12]
  0006c	8b 4a f4	 mov	 ecx, DWORD PTR [edx-12]
  0006f	33 c8		 xor	 ecx, eax
  00071	e8 00 00 00 00	 call	 @__security_check_cookie@4
  00076	b8 00 00 00 00	 mov	 eax, OFFSET __ehfuncinfo$??0CColourPopup@@QAE@XZ
  0007b	e9 00 00 00 00	 jmp	 ___CxxFrameHandler3
text$x	ENDS
??0CColourPopup@@QAE@XZ ENDP				; CColourPopup::CColourPopup
; Function compile flags: /Ogtp
; File C:\Program Files (x86)\Microsoft Visual Studio\2019\Community\VC\Tools\MSVC\14.29.30133\atlmfc\include\afxdlgs.h
;	COMDAT ??1CColorDialog@@UAE@XZ
_TEXT	SEGMENT
??1CColorDialog@@UAE@XZ PROC				; CColorDialog::~CColorDialog, COMDAT
; _this$ = ecx

; 110  :     virtual ~CCommonDialog() {};

  00000	c7 01 00 00 00
	00		 mov	 DWORD PTR [ecx], OFFSET ??_7CCommonDialog@@6B@
  00006	e9 00 00 00 00	 jmp	 ??1CDialog@@UAE@XZ	; CDialog::~CDialog
??1CColorDialog@@UAE@XZ ENDP				; CColorDialog::~CColorDialog
_TEXT	ENDS
; Function compile flags: /Ogtp
; File C:\Program Files (x86)\Microsoft Visual Studio\2019\Community\VC\Tools\MSVC\14.29.30133\atlmfc\include\afxdlgs.h
; File C:\Program Files (x86)\Microsoft Visual Studio\2019\Community\VC\Tools\MSVC\14.29.30133\atlmfc\include\afx.inl
;	COMDAT ??_GCCommonDialog@@UAEPAXI@Z
_TEXT	SEGMENT
___flags$ = 8						; size = 4
??_GCCommonDialog@@UAEPAXI@Z PROC			; CCommonDialog::`scalar deleting destructor', COMDAT
; _this$ = ecx
  00000	55		 push	 ebp
  00001	8b ec		 mov	 ebp, esp
; File C:\Program Files (x86)\Microsoft Visual Studio\2019\Community\VC\Tools\MSVC\14.29.30133\atlmfc\include\afxdlgs.h

; 110  :     virtual ~CCommonDialog() {};

  00003	56		 push	 esi
  00004	8b f1		 mov	 esi, ecx
  00006	c7 06 00 00 00
	00		 mov	 DWORD PTR [esi], OFFSET ??_7CCommonDialog@@6B@
  0000c	e8 00 00 00 00	 call	 ??1CDialog@@UAE@XZ	; CDialog::~CDialog
  00011	8b 45 08	 mov	 eax, DWORD PTR ___flags$[ebp]
  00014	a8 01		 test	 al, 1
  00016	74 22		 je	 SHORT $LN12@scalar
  00018	a8 04		 test	 al, 4
  0001a	75 10		 jne	 SHORT $LN3@scalar
; File C:\Program Files (x86)\Microsoft Visual Studio\2019\Community\VC\Tools\MSVC\14.29.30133\atlmfc\include\afx.inl

; 112  : 	{ ::operator delete(p); }

  0001c	56		 push	 esi
  0001d	e8 00 00 00 00	 call	 ??3@YAXPAX@Z		; operator delete
  00022	83 c4 04	 add	 esp, 4
  00025	8b c6		 mov	 eax, esi
  00027	5e		 pop	 esi
  00028	5d		 pop	 ebp
  00029	c2 04 00	 ret	 4
$LN3@scalar:
  0002c	68 a8 00 00 00	 push	 168			; 000000a8H
  00031	56		 push	 esi
  00032	e8 00 00 00 00	 call	 ?__global_delete@@YAXPAXI@Z ; __global_delete
  00037	83 c4 08	 add	 esp, 8
$LN12@scalar:
  0003a	8b c6		 mov	 eax, esi
  0003c	5e		 pop	 esi
  0003d	5d		 pop	 ebp
  0003e	c2 04 00	 ret	 4
??_GCCommonDialog@@UAEPAXI@Z ENDP			; CCommonDialog::`scalar deleting destructor'
_TEXT	ENDS
; Function compile flags: /Ogtp
; File C:\Program Files (x86)\Microsoft Visual Studio\2019\Community\VC\Tools\MSVC\14.29.30133\atlmfc\include\afxdlgs.h
;	COMDAT ??1CCommonDialog@@UAE@XZ
_TEXT	SEGMENT
??1CCommonDialog@@UAE@XZ PROC				; CCommonDialog::~CCommonDialog, COMDAT
; _this$ = ecx

; 110  :     virtual ~CCommonDialog() {};

  00000	c7 01 00 00 00
	00		 mov	 DWORD PTR [ecx], OFFSET ??_7CCommonDialog@@6B@
  00006	e9 00 00 00 00	 jmp	 ??1CDialog@@UAE@XZ	; CDialog::~CDialog
??1CCommonDialog@@UAE@XZ ENDP				; CCommonDialog::~CCommonDialog
_TEXT	ENDS
; Function compile flags: /Ogtp
; File C:\Program Files (x86)\Microsoft Visual Studio\2019\Community\VC\Tools\MSVC\14.29.30133\atlmfc\include\afxwin2.inl
;	COMDAT ?Create@CDialog@@UAEHIPAVCWnd@@@Z
_TEXT	SEGMENT
_nIDTemplate$ = 8					; size = 4
_pParentWnd$ = 12					; size = 4
?Create@CDialog@@UAEHIPAVCWnd@@@Z PROC			; CDialog::Create, COMDAT
; _this$ = ecx

; 585  : 	{ return CDialog::Create(ATL_MAKEINTRESOURCE(nIDTemplate), pParentWnd); }

  00000	55		 push	 ebp
  00001	8b ec		 mov	 ebp, esp
  00003	0f b7 45 08	 movzx	 eax, WORD PTR _nIDTemplate$[ebp]
  00007	89 45 08	 mov	 DWORD PTR _nIDTemplate$[ebp], eax
  0000a	5d		 pop	 ebp
  0000b	e9 00 00 00 00	 jmp	 ?Create@CDialog@@UAEHPBDPAVCWnd@@@Z ; CDialog::Create
?Create@CDialog@@UAEHIPAVCWnd@@@Z ENDP			; CDialog::Create
_TEXT	ENDS
; Function compile flags: /Ogtp
; File C:\Program Files (x86)\Microsoft Visual Studio\2019\Community\VC\Tools\MSVC\14.29.30133\atlmfc\include\afxwin2.inl
;	COMDAT ?EndModalState@CWnd@@UAEXXZ
_TEXT	SEGMENT
?EndModalState@CWnd@@UAEXXZ PROC			; CWnd::EndModalState, COMDAT
; _this$ = ecx

; 567  : 	{ ::EnableWindow(m_hWnd, TRUE); }

  00000	6a 01		 push	 1
  00002	ff 71 20	 push	 DWORD PTR [ecx+32]
  00005	ff 15 00 00 00
	00		 call	 DWORD PTR __imp__EnableWindow@8
  0000b	c3		 ret	 0
?EndModalState@CWnd@@UAEXXZ ENDP			; CWnd::EndModalState
_TEXT	ENDS
; Function compile flags: /Ogtp
; File C:\Program Files (x86)\Microsoft Visual Studio\2019\Community\VC\Tools\MSVC\14.29.30133\atlmfc\include\afxwin2.inl
;	COMDAT ?BeginModalState@CWnd@@UAEXXZ
_TEXT	SEGMENT
?BeginModalState@CWnd@@UAEXXZ PROC			; CWnd::BeginModalState, COMDAT
; _this$ = ecx

; 565  : 	{ ::EnableWindow(m_hWnd, FALSE); }

  00000	6a 00		 push	 0
  00002	ff 71 20	 push	 DWORD PTR [ecx+32]
  00005	ff 15 00 00 00
	00		 call	 DWORD PTR __imp__EnableWindow@8
  0000b	c3		 ret	 0
?BeginModalState@CWnd@@UAEXXZ ENDP			; CWnd::BeginModalState
_TEXT	ENDS
; Function compile flags: /Ogtp
; File C:\Program Files (x86)\Microsoft Visual Studio\2019\Community\VC\Tools\MSVC\14.29.30133\atlmfc\include\afxwin2.inl
;	COMDAT ?DoDataExchange@CWnd@@MAEXPAVCDataExchange@@@Z
_TEXT	SEGMENT
___formal$ = 8						; size = 4
?DoDataExchange@CWnd@@MAEXPAVCDataExchange@@@Z PROC	; CWnd::DoDataExchange, COMDAT
; _this$ = ecx

; 561  : 	{ } // default does nothing

  00000	c2 04 00	 ret	 4
?DoDataExchange@CWnd@@MAEXPAVCDataExchange@@@Z ENDP	; CWnd::DoDataExchange
_TEXT	ENDS
; Function compile flags: /Ogtp
; File C:\Program Files (x86)\Microsoft Visual Studio\2019\Community\VC\Tools\MSVC\14.29.30133\atlmfc\include\afxwin1.inl
; File C:\Program Files (x86)\Microsoft Visual Studio\2019\Community\VC\Tools\MSVC\14.29.30133\atlmfc\include\afx.inl
;	COMDAT ??_GCPalette@@UAEPAXI@Z
_TEXT	SEGMENT
___flags$ = 8						; size = 4
??_GCPalette@@UAEPAXI@Z PROC				; CPalette::`scalar deleting destructor', COMDAT
; _this$ = ecx
  00000	55		 push	 ebp
  00001	8b ec		 mov	 ebp, esp
; File C:\Program Files (x86)\Microsoft Visual Studio\2019\Community\VC\Tools\MSVC\14.29.30133\atlmfc\include\afxwin1.inl

; 232  : 	{ }

  00003	56		 push	 esi
  00004	8b f1		 mov	 esi, ecx
  00006	c7 06 00 00 00
	00		 mov	 DWORD PTR [esi], OFFSET ??_7CPalette@@6B@
  0000c	e8 00 00 00 00	 call	 ??1CGdiObject@@UAE@XZ	; CGdiObject::~CGdiObject
  00011	8b 45 08	 mov	 eax, DWORD PTR ___flags$[ebp]
  00014	a8 01		 test	 al, 1
  00016	74 1f		 je	 SHORT $LN12@scalar
  00018	a8 04		 test	 al, 4
  0001a	75 10		 jne	 SHORT $LN3@scalar
; File C:\Program Files (x86)\Microsoft Visual Studio\2019\Community\VC\Tools\MSVC\14.29.30133\atlmfc\include\afx.inl

; 112  : 	{ ::operator delete(p); }

  0001c	56		 push	 esi
  0001d	e8 00 00 00 00	 call	 ??3@YAXPAX@Z		; operator delete
  00022	83 c4 04	 add	 esp, 4
  00025	8b c6		 mov	 eax, esi
  00027	5e		 pop	 esi
  00028	5d		 pop	 ebp
  00029	c2 04 00	 ret	 4
$LN3@scalar:
  0002c	6a 08		 push	 8
  0002e	56		 push	 esi
  0002f	e8 00 00 00 00	 call	 ?__global_delete@@YAXPAXI@Z ; __global_delete
  00034	83 c4 08	 add	 esp, 8
$LN12@scalar:
  00037	8b c6		 mov	 eax, esi
  00039	5e		 pop	 esi
  0003a	5d		 pop	 ebp
  0003b	c2 04 00	 ret	 4
??_GCPalette@@UAEPAXI@Z ENDP				; CPalette::`scalar deleting destructor'
_TEXT	ENDS
; Function compile flags: /Ogtp
; File C:\Program Files (x86)\Microsoft Visual Studio\2019\Community\VC\Tools\MSVC\14.29.30133\atlmfc\include\afxwin1.inl
;	COMDAT ??1CPalette@@UAE@XZ
_TEXT	SEGMENT
??1CPalette@@UAE@XZ PROC				; CPalette::~CPalette, COMDAT
; _this$ = ecx

; 232  : 	{ }

  00000	c7 01 00 00 00
	00		 mov	 DWORD PTR [ecx], OFFSET ??_7CPalette@@6B@
  00006	e9 00 00 00 00	 jmp	 ??1CGdiObject@@UAE@XZ	; CGdiObject::~CGdiObject
??1CPalette@@UAE@XZ ENDP				; CPalette::~CPalette
_TEXT	ENDS
; Function compile flags: /Ogtp
; File C:\Program Files (x86)\Microsoft Visual Studio\2019\Community\VC\Tools\MSVC\14.29.30133\atlmfc\include\afxwin1.inl
; File C:\Program Files (x86)\Microsoft Visual Studio\2019\Community\VC\Tools\MSVC\14.29.30133\atlmfc\include\afx.inl
;	COMDAT ??_GCFont@@UAEPAXI@Z
_TEXT	SEGMENT
___flags$ = 8						; size = 4
??_GCFont@@UAEPAXI@Z PROC				; CFont::`scalar deleting destructor', COMDAT
; _this$ = ecx
  00000	55		 push	 ebp
  00001	8b ec		 mov	 ebp, esp
; File C:\Program Files (x86)\Microsoft Visual Studio\2019\Community\VC\Tools\MSVC\14.29.30133\atlmfc\include\afxwin1.inl

; 155  : 	{ }

  00003	56		 push	 esi
  00004	8b f1		 mov	 esi, ecx
  00006	c7 06 00 00 00
	00		 mov	 DWORD PTR [esi], OFFSET ??_7CFont@@6B@
  0000c	e8 00 00 00 00	 call	 ??1CGdiObject@@UAE@XZ	; CGdiObject::~CGdiObject
  00011	8b 45 08	 mov	 eax, DWORD PTR ___flags$[ebp]
  00014	a8 01		 test	 al, 1
  00016	74 1f		 je	 SHORT $LN12@scalar
  00018	a8 04		 test	 al, 4
  0001a	75 10		 jne	 SHORT $LN3@scalar
; File C:\Program Files (x86)\Microsoft Visual Studio\2019\Community\VC\Tools\MSVC\14.29.30133\atlmfc\include\afx.inl

; 112  : 	{ ::operator delete(p); }

  0001c	56		 push	 esi
  0001d	e8 00 00 00 00	 call	 ??3@YAXPAX@Z		; operator delete
  00022	83 c4 04	 add	 esp, 4
  00025	8b c6		 mov	 eax, esi
  00027	5e		 pop	 esi
  00028	5d		 pop	 ebp
  00029	c2 04 00	 ret	 4
$LN3@scalar:
  0002c	6a 08		 push	 8
  0002e	56		 push	 esi
  0002f	e8 00 00 00 00	 call	 ?__global_delete@@YAXPAXI@Z ; __global_delete
  00034	83 c4 08	 add	 esp, 8
$LN12@scalar:
  00037	8b c6		 mov	 eax, esi
  00039	5e		 pop	 esi
  0003a	5d		 pop	 ebp
  0003b	c2 04 00	 ret	 4
??_GCFont@@UAEPAXI@Z ENDP				; CFont::`scalar deleting destructor'
_TEXT	ENDS
; Function compile flags: /Ogtp
; File C:\Program Files (x86)\Microsoft Visual Studio\2019\Community\VC\Tools\MSVC\14.29.30133\atlmfc\include\afxwin1.inl
;	COMDAT ??1CFont@@UAE@XZ
_TEXT	SEGMENT
??1CFont@@UAE@XZ PROC					; CFont::~CFont, COMDAT
; _this$ = ecx

; 155  : 	{ }

  00000	c7 01 00 00 00
	00		 mov	 DWORD PTR [ecx], OFFSET ??_7CFont@@6B@
  00006	e9 00 00 00 00	 jmp	 ??1CGdiObject@@UAE@XZ	; CGdiObject::~CGdiObject
??1CFont@@UAE@XZ ENDP					; CFont::~CFont
_TEXT	ENDS
; Function compile flags: /Ogtp
; File C:\Program Files (x86)\Microsoft Visual Studio\2019\Community\VC\Tools\MSVC\14.29.30133\atlmfc\include\afxwin1.inl
; File C:\Program Files (x86)\Microsoft Visual Studio\2019\Community\VC\Tools\MSVC\14.29.30133\atlmfc\include\afx.inl
;	COMDAT ??_GCBrush@@UAEPAXI@Z
_TEXT	SEGMENT
___flags$ = 8						; size = 4
??_GCBrush@@UAEPAXI@Z PROC				; CBrush::`scalar deleting destructor', COMDAT
; _this$ = ecx
  00000	55		 push	 ebp
  00001	8b ec		 mov	 ebp, esp
; File C:\Program Files (x86)\Microsoft Visual Studio\2019\Community\VC\Tools\MSVC\14.29.30133\atlmfc\include\afxwin1.inl

; 130  : 	{ }

  00003	56		 push	 esi
  00004	8b f1		 mov	 esi, ecx
  00006	c7 06 00 00 00
	00		 mov	 DWORD PTR [esi], OFFSET ??_7CBrush@@6B@
  0000c	e8 00 00 00 00	 call	 ??1CGdiObject@@UAE@XZ	; CGdiObject::~CGdiObject
  00011	8b 45 08	 mov	 eax, DWORD PTR ___flags$[ebp]
  00014	a8 01		 test	 al, 1
  00016	74 1f		 je	 SHORT $LN12@scalar
  00018	a8 04		 test	 al, 4
  0001a	75 10		 jne	 SHORT $LN3@scalar
; File C:\Program Files (x86)\Microsoft Visual Studio\2019\Community\VC\Tools\MSVC\14.29.30133\atlmfc\include\afx.inl

; 112  : 	{ ::operator delete(p); }

  0001c	56		 push	 esi
  0001d	e8 00 00 00 00	 call	 ??3@YAXPAX@Z		; operator delete
  00022	83 c4 04	 add	 esp, 4
  00025	8b c6		 mov	 eax, esi
  00027	5e		 pop	 esi
  00028	5d		 pop	 ebp
  00029	c2 04 00	 ret	 4
$LN3@scalar:
  0002c	6a 08		 push	 8
  0002e	56		 push	 esi
  0002f	e8 00 00 00 00	 call	 ?__global_delete@@YAXPAXI@Z ; __global_delete
  00034	83 c4 08	 add	 esp, 8
$LN12@scalar:
  00037	8b c6		 mov	 eax, esi
  00039	5e		 pop	 esi
  0003a	5d		 pop	 ebp
  0003b	c2 04 00	 ret	 4
??_GCBrush@@UAEPAXI@Z ENDP				; CBrush::`scalar deleting destructor'
_TEXT	ENDS
; Function compile flags: /Ogtp
; File C:\Program Files (x86)\Microsoft Visual Studio\2019\Community\VC\Tools\MSVC\14.29.30133\atlmfc\include\afxwin1.inl
;	COMDAT ??1CBrush@@UAE@XZ
_TEXT	SEGMENT
??1CBrush@@UAE@XZ PROC					; CBrush::~CBrush, COMDAT
; _this$ = ecx

; 130  : 	{ }

  00000	c7 01 00 00 00
	00		 mov	 DWORD PTR [ecx], OFFSET ??_7CBrush@@6B@
  00006	e9 00 00 00 00	 jmp	 ??1CGdiObject@@UAE@XZ	; CGdiObject::~CGdiObject
??1CBrush@@UAE@XZ ENDP					; CBrush::~CBrush
_TEXT	ENDS
; Function compile flags: /Ogtp
; File C:\Program Files (x86)\Microsoft Visual Studio\2019\Community\VC\Tools\MSVC\14.29.30133\atlmfc\include\afxwin1.inl
; File C:\Program Files (x86)\Microsoft Visual Studio\2019\Community\VC\Tools\MSVC\14.29.30133\atlmfc\include\afx.inl
;	COMDAT ??_GCPen@@UAEPAXI@Z
_TEXT	SEGMENT
___flags$ = 8						; size = 4
??_GCPen@@UAEPAXI@Z PROC				; CPen::`scalar deleting destructor', COMDAT
; _this$ = ecx
  00000	55		 push	 ebp
  00001	8b ec		 mov	 ebp, esp
; File C:\Program Files (x86)\Microsoft Visual Studio\2019\Community\VC\Tools\MSVC\14.29.30133\atlmfc\include\afxwin1.inl

; 106  : 	{ }

  00003	56		 push	 esi
  00004	8b f1		 mov	 esi, ecx
  00006	c7 06 00 00 00
	00		 mov	 DWORD PTR [esi], OFFSET ??_7CPen@@6B@
  0000c	e8 00 00 00 00	 call	 ??1CGdiObject@@UAE@XZ	; CGdiObject::~CGdiObject
  00011	8b 45 08	 mov	 eax, DWORD PTR ___flags$[ebp]
  00014	a8 01		 test	 al, 1
  00016	74 1f		 je	 SHORT $LN12@scalar
  00018	a8 04		 test	 al, 4
  0001a	75 10		 jne	 SHORT $LN3@scalar
; File C:\Program Files (x86)\Microsoft Visual Studio\2019\Community\VC\Tools\MSVC\14.29.30133\atlmfc\include\afx.inl

; 112  : 	{ ::operator delete(p); }

  0001c	56		 push	 esi
  0001d	e8 00 00 00 00	 call	 ??3@YAXPAX@Z		; operator delete
  00022	83 c4 04	 add	 esp, 4
  00025	8b c6		 mov	 eax, esi
  00027	5e		 pop	 esi
  00028	5d		 pop	 ebp
  00029	c2 04 00	 ret	 4
$LN3@scalar:
  0002c	6a 08		 push	 8
  0002e	56		 push	 esi
  0002f	e8 00 00 00 00	 call	 ?__global_delete@@YAXPAXI@Z ; __global_delete
  00034	83 c4 08	 add	 esp, 8
$LN12@scalar:
  00037	8b c6		 mov	 eax, esi
  00039	5e		 pop	 esi
  0003a	5d		 pop	 ebp
  0003b	c2 04 00	 ret	 4
??_GCPen@@UAEPAXI@Z ENDP				; CPen::`scalar deleting destructor'
_TEXT	ENDS
; Function compile flags: /Ogtp
; File C:\Program Files (x86)\Microsoft Visual Studio\2019\Community\VC\Tools\MSVC\14.29.30133\atlmfc\include\afxwin1.inl
;	COMDAT ??1CPen@@UAE@XZ
_TEXT	SEGMENT
??1CPen@@UAE@XZ PROC					; CPen::~CPen, COMDAT
; _this$ = ecx

; 106  : 	{ }

  00000	c7 01 00 00 00
	00		 mov	 DWORD PTR [ecx], OFFSET ??_7CPen@@6B@
  00006	e9 00 00 00 00	 jmp	 ??1CGdiObject@@UAE@XZ	; CGdiObject::~CGdiObject
??1CPen@@UAE@XZ ENDP					; CPen::~CPen
_TEXT	ENDS
; Function compile flags: /Ogtp
; File C:\Program Files (x86)\Microsoft Visual Studio\2019\Community\VC\Tools\MSVC\14.29.30133\atlmfc\include\afx.inl
;	COMDAT ??_GCGdiObject@@UAEPAXI@Z
_TEXT	SEGMENT
___flags$ = 8						; size = 4
??_GCGdiObject@@UAEPAXI@Z PROC				; CGdiObject::`scalar deleting destructor', COMDAT
; _this$ = ecx
  00000	55		 push	 ebp
  00001	8b ec		 mov	 ebp, esp
  00003	56		 push	 esi
  00004	8b f1		 mov	 esi, ecx
  00006	e8 00 00 00 00	 call	 ??1CGdiObject@@UAE@XZ	; CGdiObject::~CGdiObject
  0000b	8b 45 08	 mov	 eax, DWORD PTR ___flags$[ebp]
  0000e	a8 01		 test	 al, 1
  00010	74 1f		 je	 SHORT $LN9@scalar
  00012	a8 04		 test	 al, 4
  00014	75 10		 jne	 SHORT $LN3@scalar

; 112  : 	{ ::operator delete(p); }

  00016	56		 push	 esi
  00017	e8 00 00 00 00	 call	 ??3@YAXPAX@Z		; operator delete
  0001c	83 c4 04	 add	 esp, 4
  0001f	8b c6		 mov	 eax, esi
  00021	5e		 pop	 esi
  00022	5d		 pop	 ebp
  00023	c2 04 00	 ret	 4
$LN3@scalar:
  00026	6a 08		 push	 8
  00028	56		 push	 esi
  00029	e8 00 00 00 00	 call	 ?__global_delete@@YAXPAXI@Z ; __global_delete
  0002e	83 c4 08	 add	 esp, 8
$LN9@scalar:
  00031	8b c6		 mov	 eax, esi
  00033	5e		 pop	 esi
  00034	5d		 pop	 ebp
  00035	c2 04 00	 ret	 4
??_GCGdiObject@@UAEPAXI@Z ENDP				; CGdiObject::`scalar deleting destructor'
_TEXT	ENDS
; Function compile flags: /Ogtp
; File C:\Program Files (x86)\Microsoft Visual Studio\2019\Community\VC\Tools\MSVC\14.29.30133\atlmfc\include\afxwin1.inl
;	COMDAT ??1CGdiObject@@UAE@XZ
_TEXT	SEGMENT
_pException$2 = -540					; size = 4
_strMsg$3 = -536					; size = 4
_szErrorMessage$4 = -532				; size = 512
__$ArrayPad$ = -20					; size = 4
__$EHRec$ = -16						; size = 16
??1CGdiObject@@UAE@XZ PROC				; CGdiObject::~CGdiObject, COMDAT
; _this$ = ecx

; 74   : {

  00000	55		 push	 ebp
  00001	8b ec		 mov	 ebp, esp
  00003	6a ff		 push	 -1
  00005	68 00 00 00 00	 push	 __ehhandler$??1CGdiObject@@UAE@XZ
  0000a	64 a1 00 00 00
	00		 mov	 eax, DWORD PTR fs:0
  00010	50		 push	 eax
  00011	81 ec 10 02 00
	00		 sub	 esp, 528		; 00000210H
  00017	a1 00 00 00 00	 mov	 eax, DWORD PTR ___security_cookie
  0001c	33 c5		 xor	 eax, ebp
  0001e	89 45 ec	 mov	 DWORD PTR __$ArrayPad$[ebp], eax
  00021	53		 push	 ebx
  00022	56		 push	 esi
  00023	57		 push	 edi
  00024	50		 push	 eax
  00025	8d 45 f4	 lea	 eax, DWORD PTR __$EHRec$[ebp+4]
  00028	64 a3 00 00 00
	00		 mov	 DWORD PTR fs:0, eax
  0002e	89 65 f0	 mov	 DWORD PTR __$EHRec$[ebp], esp
  00031	c7 01 00 00 00
	00		 mov	 DWORD PTR [ecx], OFFSET ??_7CGdiObject@@6B@

; 75   : 	AFX_BEGIN_DESTRUCTOR

  00037	c7 45 fc 00 00
	00 00		 mov	 DWORD PTR __$EHRec$[ebp+12], 0

; 76   : 	DeleteObject();

  0003e	e8 00 00 00 00	 call	 ?DeleteObject@CGdiObject@@QAEHXZ ; CGdiObject::DeleteObject
$LN18@CGdiObject:

; 78   : }

  00043	8b 4d f4	 mov	 ecx, DWORD PTR __$EHRec$[ebp+4]
  00046	64 89 0d 00 00
	00 00		 mov	 DWORD PTR fs:0, ecx
  0004d	59		 pop	 ecx
  0004e	5f		 pop	 edi
  0004f	5e		 pop	 esi
  00050	5b		 pop	 ebx
  00051	8b 4d ec	 mov	 ecx, DWORD PTR __$ArrayPad$[ebp]
  00054	33 cd		 xor	 ecx, ebp
  00056	e8 00 00 00 00	 call	 @__security_check_cookie@4
  0005b	8b e5		 mov	 esp, ebp
  0005d	5d		 pop	 ebp
  0005e	c3		 ret	 0
__catch$??1CGdiObject@@UAE@XZ$0:

; 77   : 	AFX_END_DESTRUCTOR

  0005f	8d 8d e8 fd ff
	ff		 lea	 ecx, DWORD PTR _strMsg$3[ebp]
  00065	ff 15 00 00 00
	00		 call	 DWORD PTR __imp_??0?$CStringT@DV?$StrTraitMFC_DLL@DV?$ChTraitsCRT@D@ATL@@@@@ATL@@QAE@XZ
  0006b	8b b5 e4 fd ff
	ff		 mov	 esi, DWORD PTR _pException$2[ebp]
  00071	8d 8d ec fd ff
	ff		 lea	 ecx, DWORD PTR _szErrorMessage$4[ebp]
  00077	6a 00		 push	 0
  00079	68 00 02 00 00	 push	 512			; 00000200H
  0007e	51		 push	 ecx
  0007f	8b 06		 mov	 eax, DWORD PTR [esi]
  00081	8b ce		 mov	 ecx, esi
  00083	c6 45 fc 02	 mov	 BYTE PTR __$EHRec$[ebp+12], 2
  00087	ff 50 14	 call	 DWORD PTR [eax+20]
  0008a	85 c0		 test	 eax, eax
  0008c	74 2a		 je	 SHORT $LN9@CGdiObject
  0008e	8d 85 ec fd ff
	ff		 lea	 eax, DWORD PTR _szErrorMessage$4[ebp]
  00094	50		 push	 eax
  00095	6a 4d		 push	 77			; 0000004dH
  00097	68 00 00 00 00	 push	 OFFSET ??_C@_0HD@JJCHHHNK@C?3?2Program?5Files?5?$CIx86?$CJ?2Microsof@
  0009c	68 00 00 00 00	 push	 OFFSET ??_C@_0BP@OIEOKIDM@Exception?5thrown?5in?5destructor@
  000a1	8d 85 e8 fd ff
	ff		 lea	 eax, DWORD PTR _strMsg$3[ebp]
  000a7	68 00 00 00 00	 push	 OFFSET ??_C@_0BB@HBOOMJBF@?$CFTs?5?$CI?$CFTs?3?$CFd?$CJ?6?$CFTs@
  000ac	50		 push	 eax
  000ad	ff 15 00 00 00
	00		 call	 DWORD PTR __imp_?Format@?$CStringT@DV?$StrTraitMFC_DLL@DV?$ChTraitsCRT@D@ATL@@@@@ATL@@QAAXPBDZZ
  000b3	83 c4 18	 add	 esp, 24			; 00000018H
  000b6	eb 21		 jmp	 SHORT $LN10@CGdiObject
$LN9@CGdiObject:
  000b8	6a 4d		 push	 77			; 0000004dH
  000ba	68 00 00 00 00	 push	 OFFSET ??_C@_0HD@JJCHHHNK@C?3?2Program?5Files?5?$CIx86?$CJ?2Microsof@
  000bf	68 00 00 00 00	 push	 OFFSET ??_C@_0BP@OIEOKIDM@Exception?5thrown?5in?5destructor@
  000c4	8d 85 e8 fd ff
	ff		 lea	 eax, DWORD PTR _strMsg$3[ebp]
  000ca	68 00 00 00 00	 push	 OFFSET ??_C@_0N@OMEMOKLE@?$CFTs?5?$CI?$CFTs?3?$CFd?$CJ@
  000cf	50		 push	 eax
  000d0	ff 15 00 00 00
	00		 call	 DWORD PTR __imp_?Format@?$CStringT@DV?$StrTraitMFC_DLL@DV?$ChTraitsCRT@D@ATL@@@@@ATL@@QAAXPBDZZ
  000d6	83 c4 14	 add	 esp, 20			; 00000014H
$LN10@CGdiObject:
  000d9	6a 00		 push	 0
  000db	6a 00		 push	 0
  000dd	ff b5 e8 fd ff
	ff		 push	 DWORD PTR _strMsg$3[ebp]
  000e3	e8 00 00 00 00	 call	 ?AfxMessageBox@@YGHPBDII@Z ; AfxMessageBox
  000e8	8d 8d e8 fd ff
	ff		 lea	 ecx, DWORD PTR _strMsg$3[ebp]
  000ee	ff 15 00 00 00
	00		 call	 DWORD PTR __imp_??1?$CStringT@DV?$StrTraitMFC_DLL@DV?$ChTraitsCRT@D@ATL@@@@@ATL@@QAE@XZ
  000f4	8b 06		 mov	 eax, DWORD PTR [esi]
  000f6	8b ce		 mov	 ecx, esi
  000f8	6a 01		 push	 1
  000fa	ff 50 04	 call	 DWORD PTR [eax+4]
  000fd	b8 00 00 00 00	 mov	 eax, $LN18@CGdiObject
  00102	c3		 ret	 0
_TEXT	ENDS
;	COMDAT text$x
text$x	SEGMENT
__unwindfunclet$??1CGdiObject@@UAE@XZ$2:
  00000	8d 8d e8 fd ff
	ff		 lea	 ecx, DWORD PTR _strMsg$3[ebp]
  00006	ff 25 00 00 00
	00		 jmp	 DWORD PTR __imp_??1?$CStringT@DV?$StrTraitMFC_DLL@DV?$ChTraitsCRT@D@ATL@@@@@ATL@@QAE@XZ
  0000c	cc		 int	 3
  0000d	cc		 int	 3
  0000e	cc		 int	 3
  0000f	cc		 int	 3
  00010	cc		 int	 3
__ehhandler$??1CGdiObject@@UAE@XZ:
  00011	90		 npad	 1
  00012	90		 npad	 1
  00013	8b 54 24 08	 mov	 edx, DWORD PTR [esp+8]
  00017	8d 42 0c	 lea	 eax, DWORD PTR [edx+12]
  0001a	8b 8a e0 fd ff
	ff		 mov	 ecx, DWORD PTR [edx-544]
  00020	33 c8		 xor	 ecx, eax
  00022	e8 00 00 00 00	 call	 @__security_check_cookie@4
  00027	8b 4a f8	 mov	 ecx, DWORD PTR [edx-8]
  0002a	33 c8		 xor	 ecx, eax
  0002c	e8 00 00 00 00	 call	 @__security_check_cookie@4
  00031	b8 00 00 00 00	 mov	 eax, OFFSET __ehfuncinfo$??1CGdiObject@@UAE@XZ
  00036	e9 00 00 00 00	 jmp	 ___CxxFrameHandler3
text$x	ENDS
??1CGdiObject@@UAE@XZ ENDP				; CGdiObject::~CGdiObject
; Function compile flags: /Ogtp
; File C:\Program Files (x86)\Microsoft Visual Studio\2019\Community\VC\Tools\MSVC\14.29.30133\atlmfc\include\afx.inl
;	COMDAT ?Dump@CObject@@UBEXAAVCDumpContext@@@Z
_TEXT	SEGMENT
___formal$ = 8						; size = 4
?Dump@CObject@@UBEXAAVCDumpContext@@@Z PROC		; CObject::Dump, COMDAT
; _this$ = ecx

; 122  : 	{ /* no dumping in release builds */ }

  00000	c2 04 00	 ret	 4
?Dump@CObject@@UBEXAAVCDumpContext@@@Z ENDP		; CObject::Dump
_TEXT	ENDS
; Function compile flags: /Ogtp
; File C:\Program Files (x86)\Microsoft Visual Studio\2019\Community\VC\Tools\MSVC\14.29.30133\atlmfc\include\afx.inl
;	COMDAT ?AssertValid@CObject@@UBEXXZ
_TEXT	SEGMENT
?AssertValid@CObject@@UBEXXZ PROC			; CObject::AssertValid, COMDAT
; _this$ = ecx

; 120  : 	{ /* no asserts in release builds */ }

  00000	c2 00 00	 ret	 0
?AssertValid@CObject@@UBEXXZ ENDP			; CObject::AssertValid
_TEXT	ENDS
; Function compile flags: /Ogtp
; File C:\Program Files (x86)\Microsoft Visual Studio\2019\Community\VC\Tools\MSVC\14.29.30133\atlmfc\include\afx.inl
;	COMDAT ?Serialize@CObject@@UAEXAAVCArchive@@@Z
_TEXT	SEGMENT
___formal$ = 8						; size = 4
?Serialize@CObject@@UAEXAAVCArchive@@@Z PROC		; CObject::Serialize, COMDAT
; _this$ = ecx

; 106  : 	{ /* CObject does not serialize anything by default */ }

  00000	c2 04 00	 ret	 4
?Serialize@CObject@@UAEXAAVCArchive@@@Z ENDP		; CObject::Serialize
_TEXT	ENDS
; Function compile flags: /Ogtp
; File C:\Program Files (x86)\Microsoft Visual Studio\2019\Community\VC\Tools\MSVC\14.29.30133\atlmfc\include\afx.inl
;	COMDAT ??1CObject@@UAE@XZ
_TEXT	SEGMENT
??1CObject@@UAE@XZ PROC					; CObject::~CObject, COMDAT
; _this$ = ecx

; 104  : 	{ }

  00000	c2 00 00	 ret	 0
??1CObject@@UAE@XZ ENDP					; CObject::~CObject
_TEXT	ENDS
; Function compile flags: /Ogtp
; File D:\git\src\IBK\IBK_DRFN\ProjSrc\SrcChartEx\ChartAddIn\ChartDesignPropertyAddIn\ChartDesignPropertyAddIn\ColourPopup.cpp
;	COMDAT ?__empty_global_delete@@YAXPAXI@Z
_TEXT	SEGMENT
___formal$ = 8						; size = 4
___formal$ = 12						; size = 4
?__empty_global_delete@@YAXPAXI@Z PROC			; __empty_global_delete, COMDAT

  00000	c2 00 00	 ret	 0
?__empty_global_delete@@YAXPAXI@Z ENDP			; __empty_global_delete
_TEXT	ENDS
; Function compile flags: /Ogtp
; File D:\git\src\IBK\IBK_DRFN\ProjSrc\SrcChartEx\ChartAddIn\ChartDesignPropertyAddIn\ChartDesignPropertyAddIn\ColourPopup.cpp
;	COMDAT ?__empty_global_delete@@YAXPAX@Z
_TEXT	SEGMENT
___formal$ = 8						; size = 4
?__empty_global_delete@@YAXPAX@Z PROC			; __empty_global_delete, COMDAT

  00000	c2 00 00	 ret	 0
?__empty_global_delete@@YAXPAX@Z ENDP			; __empty_global_delete
_TEXT	ENDS
END
