; Listing generated by Microsoft (R) Optimizing Compiler Version 19.29.30145.0 

	TITLE	D:\git\src\IBK\IBK_DRFN\#DRfn-CS\_Obj\ChartDesignPropertyAddIn\ColourPicker.obj
	.686P
	.XMM
	include listing.inc
	.model	flat

INCLUDELIB MSVCRT
INCLUDELIB OLDNAMES

PUBLIC	?__empty_global_delete@@YAXPAX@Z		; __empty_global_delete
PUBLIC	?__empty_global_delete@@YAXPAXI@Z		; __empty_global_delete
PUBLIC	??1CObject@@UAE@XZ				; CObject::~CObject
PUBLIC	??3CObject@@SGXPAX@Z				; CObject::operator delete
PUBLIC	?Serialize@CObject@@UAEXAAVCArchive@@@Z		; CObject::Serialize
PUBLIC	?AssertValid@CObject@@UBEXXZ			; CObject::AssertValid
PUBLIC	?Dump@CObject@@UBEXAAVCDumpContext@@@Z		; CObject::Dump
PUBLIC	??1CGdiObject@@UAE@XZ				; CGdiObject::~CGdiObject
PUBLIC	??_GCGdiObject@@UAEPAXI@Z			; CGdiObject::`scalar deleting destructor'
PUBLIC	??1CBrush@@UAE@XZ				; CBrush::~CBrush
PUBLIC	??_GCBrush@@UAEPAXI@Z				; CBrush::`scalar deleting destructor'
PUBLIC	?DoDataExchange@CWnd@@MAEXPAVCDataExchange@@@Z	; CWnd::DoDataExchange
PUBLIC	?BeginModalState@CWnd@@UAEXXZ			; CWnd::BeginModalState
PUBLIC	?EndModalState@CWnd@@UAEXXZ			; CWnd::EndModalState
PUBLIC	??_GCButton@@UAEPAXI@Z				; CButton::`scalar deleting destructor'
PUBLIC	??0CColourPicker@@QAE@XZ			; CColourPicker::CColourPicker
PUBLIC	?_GetBaseClass@CColourPicker@@KGPAUCRuntimeClass@@XZ ; CColourPicker::_GetBaseClass
PUBLIC	?GetThisClass@CColourPicker@@SGPAUCRuntimeClass@@XZ ; CColourPicker::GetThisClass
PUBLIC	?GetRuntimeClass@CColourPicker@@UBEPAUCRuntimeClass@@XZ ; CColourPicker::GetRuntimeClass
PUBLIC	?CreateObject@CColourPicker@@SGPAVCObject@@XZ	; CColourPicker::CreateObject
PUBLIC	?GetColour@CColourPicker@@QAEKXZ		; CColourPicker::GetColour
PUBLIC	?SetColour@CColourPicker@@QAEXK@Z		; CColourPicker::SetColour
PUBLIC	?SetDefaultText@CColourPicker@@QAEXPBD@Z	; CColourPicker::SetDefaultText
PUBLIC	?SetCustomText@CColourPicker@@QAEXPBD@Z		; CColourPicker::SetCustomText
PUBLIC	?SetBkColour@CColourPicker@@QAEXK@Z		; CColourPicker::SetBkColour
PUBLIC	?SetTextColour@CColourPicker@@QAEXK@Z		; CColourPicker::SetTextColour
PUBLIC	?InitColorPicker@CColourPicker@@QAEXK@Z		; CColourPicker::InitColorPicker
PUBLIC	?DrawItem@CColourPicker@@UAEXPAUtagDRAWITEMSTRUCT@@@Z ; CColourPicker::DrawItem
PUBLIC	?PreSubclassWindow@CColourPicker@@MAEXXZ	; CColourPicker::PreSubclassWindow
PUBLIC	??1CColourPicker@@UAE@XZ			; CColourPicker::~CColourPicker
PUBLIC	?SetWindowSize@CColourPicker@@IAEXXZ		; CColourPicker::SetWindowSize
PUBLIC	?OnClicked@CColourPicker@@IAEHXZ		; CColourPicker::OnClicked
PUBLIC	?OnCreate@CColourPicker@@IAEHPAUtagCREATESTRUCTA@@@Z ; CColourPicker::OnCreate
PUBLIC	?OnSelEndOK@CColourPicker@@IAEJIJ@Z		; CColourPicker::OnSelEndOK
PUBLIC	?OnSelEndCancel@CColourPicker@@IAEJIJ@Z		; CColourPicker::OnSelEndCancel
PUBLIC	?OnSelChange@CColourPicker@@IAEJIJ@Z		; CColourPicker::OnSelChange
PUBLIC	?GetThisMessageMap@CColourPicker@@KGPBUAFX_MSGMAP@@XZ ; CColourPicker::GetThisMessageMap
PUBLIC	?GetMessageMap@CColourPicker@@MBEPBUAFX_MSGMAP@@XZ ; CColourPicker::GetMessageMap
PUBLIC	??_GCColourPicker@@UAEPAXI@Z			; CColourPicker::`scalar deleting destructor'
PUBLIC	??_R0PAVCException@@@8				; CException * `RTTI Type Descriptor'
PUBLIC	??_C@_00CNPNBAHC@@				; `string'
PUBLIC	??_7CGdiObject@@6B@				; CGdiObject::`vftable'
PUBLIC	??_7CBrush@@6B@					; CBrush::`vftable'
PUBLIC	??_7CButton@@6B@				; CButton::`vftable'
PUBLIC	??_C@_0HD@JJCHHHNK@C?3?2Program?5Files?5?$CIx86?$CJ?2Microsof@ ; `string'
PUBLIC	??_C@_0BP@OIEOKIDM@Exception?5thrown?5in?5destructor@ ; `string'
PUBLIC	??_C@_0BB@HBOOMJBF@?$CFTs?5?$CI?$CFTs?3?$CFd?$CJ?6?$CFTs@ ; `string'
PUBLIC	??_C@_0N@OMEMOKLE@?$CFTs?5?$CI?$CFTs?3?$CFd?$CJ@ ; `string'
PUBLIC	??_R0?AVCObject@@@8				; CObject `RTTI Type Descriptor'
PUBLIC	??_R3CObject@@8					; CObject::`RTTI Class Hierarchy Descriptor'
PUBLIC	??_R2CObject@@8					; CObject::`RTTI Base Class Array'
PUBLIC	??_R1A@?0A@EA@CObject@@8			; CObject::`RTTI Base Class Descriptor at (0,-1,0,64)'
PUBLIC	??_R4CGdiObject@@6B@				; CGdiObject::`RTTI Complete Object Locator'
PUBLIC	??_R0?AVCGdiObject@@@8				; CGdiObject `RTTI Type Descriptor'
PUBLIC	??_R3CGdiObject@@8				; CGdiObject::`RTTI Class Hierarchy Descriptor'
PUBLIC	??_R2CGdiObject@@8				; CGdiObject::`RTTI Base Class Array'
PUBLIC	??_R1A@?0A@EA@CGdiObject@@8			; CGdiObject::`RTTI Base Class Descriptor at (0,-1,0,64)'
PUBLIC	??_R4CBrush@@6B@				; CBrush::`RTTI Complete Object Locator'
PUBLIC	??_R0?AVCBrush@@@8				; CBrush `RTTI Type Descriptor'
PUBLIC	??_R3CBrush@@8					; CBrush::`RTTI Class Hierarchy Descriptor'
PUBLIC	??_R2CBrush@@8					; CBrush::`RTTI Base Class Array'
PUBLIC	??_R1A@?0A@EA@CBrush@@8				; CBrush::`RTTI Base Class Descriptor at (0,-1,0,64)'
PUBLIC	??_R1A@?0A@EA@CWnd@@8				; CWnd::`RTTI Base Class Descriptor at (0,-1,0,64)'
PUBLIC	??_R0?AVCWnd@@@8				; CWnd `RTTI Type Descriptor'
PUBLIC	??_R3CWnd@@8					; CWnd::`RTTI Class Hierarchy Descriptor'
PUBLIC	??_R2CWnd@@8					; CWnd::`RTTI Base Class Array'
PUBLIC	??_R1A@?0A@EA@CCmdTarget@@8			; CCmdTarget::`RTTI Base Class Descriptor at (0,-1,0,64)'
PUBLIC	??_R0?AVCCmdTarget@@@8				; CCmdTarget `RTTI Type Descriptor'
PUBLIC	??_R3CCmdTarget@@8				; CCmdTarget::`RTTI Class Hierarchy Descriptor'
PUBLIC	??_R2CCmdTarget@@8				; CCmdTarget::`RTTI Base Class Array'
PUBLIC	??_R4CButton@@6B@				; CButton::`RTTI Complete Object Locator'
PUBLIC	??_R0?AVCButton@@@8				; CButton `RTTI Type Descriptor'
PUBLIC	??_R3CButton@@8					; CButton::`RTTI Class Hierarchy Descriptor'
PUBLIC	??_R2CButton@@8					; CButton::`RTTI Base Class Array'
PUBLIC	??_R1A@?0A@EA@CButton@@8			; CButton::`RTTI Base Class Descriptor at (0,-1,0,64)'
PUBLIC	?classCColourPicker@CColourPicker@@2UCRuntimeClass@@B ; CColourPicker::classCColourPicker
PUBLIC	??_7CColourPicker@@6B@				; CColourPicker::`vftable'
PUBLIC	??_C@_09HPGOGDJC@Automatic@			; `string'
PUBLIC	??_C@_0BA@MBABNAAM@More?5Colours?4?4?4@		; `string'
PUBLIC	??_C@_0O@KPAMJHO@CColourPicker@			; `string'
PUBLIC	??_C@_06IFNFKIOM@ETC?4?4?4@			; `string'
PUBLIC	??_R4CColourPicker@@6B@				; CColourPicker::`RTTI Complete Object Locator'
PUBLIC	??_R0?AVCColourPicker@@@8			; CColourPicker `RTTI Type Descriptor'
PUBLIC	??_R3CColourPicker@@8				; CColourPicker::`RTTI Class Hierarchy Descriptor'
PUBLIC	??_R2CColourPicker@@8				; CColourPicker::`RTTI Base Class Array'
PUBLIC	??_R1A@?0A@EA@CColourPicker@@8			; CColourPicker::`RTTI Base Class Descriptor at (0,-1,0,64)'
EXTRN	??2@YAPAXI@Z:PROC				; operator new
EXTRN	??3@YAXPAX@Z:PROC				; operator delete
EXTRN	?__global_delete@@YAXPAXI@Z:PROC		; __global_delete
EXTRN	__imp__Rectangle@20:PROC
EXTRN	__imp__DrawEdge@16:PROC
EXTRN	__imp__SendMessageA@16:PROC
EXTRN	__imp__IsWindow@4:PROC
EXTRN	__imp__EnableWindow@8:PROC
EXTRN	__imp__GetSystemMetrics@4:PROC
EXTRN	__imp__RedrawWindow@16:PROC
EXTRN	__imp__GetWindowRect@8:PROC
EXTRN	__imp__GetSysColor@4:PROC
EXTRN	__imp__DrawFocusRect@8:PROC
EXTRN	__imp__SetRect@20:PROC
EXTRN	__imp__CopyRect@8:PROC
EXTRN	__imp__InflateRect@12:PROC
EXTRN	__imp__OffsetRect@12:PROC
EXTRN	__imp__GetParent@4:PROC
EXTRN	__imp_??0?$CStringT@DV?$StrTraitMFC_DLL@DV?$ChTraitsCRT@D@ATL@@@@@ATL@@QAE@XZ:PROC
EXTRN	__imp_??0?$CStringT@DV?$StrTraitMFC_DLL@DV?$ChTraitsCRT@D@ATL@@@@@ATL@@QAE@PBD@Z:PROC
EXTRN	__imp_??1?$CStringT@DV?$StrTraitMFC_DLL@DV?$ChTraitsCRT@D@ATL@@@@@ATL@@QAE@XZ:PROC
EXTRN	__imp_??4?$CStringT@DV?$StrTraitMFC_DLL@DV?$ChTraitsCRT@D@ATL@@@@@ATL@@QAEAAV01@PBD@Z:PROC
EXTRN	__imp_?Format@?$CStringT@DV?$StrTraitMFC_DLL@DV?$ChTraitsCRT@D@ATL@@@@@ATL@@QAAXPBDZZ:PROC
EXTRN	?GetRuntimeClass@CGdiObject@@UBEPAUCRuntimeClass@@XZ:PROC ; CGdiObject::GetRuntimeClass
EXTRN	?DeleteObject@CGdiObject@@QAEHXZ:PROC		; CGdiObject::DeleteObject
EXTRN	??_ECGdiObject@@UAEPAXI@Z:PROC			; CGdiObject::`vector deleting destructor'
EXTRN	?GetRuntimeClass@CBrush@@UBEPAUCRuntimeClass@@XZ:PROC ; CBrush::GetRuntimeClass
EXTRN	??0CBrush@@QAE@K@Z:PROC				; CBrush::CBrush
EXTRN	??_ECBrush@@UAEPAXI@Z:PROC			; CBrush::`vector deleting destructor'
EXTRN	?FromHandle@CDC@@SGPAV1@PAUHDC__@@@Z:PROC	; CDC::FromHandle
EXTRN	?SelectObject@CDC@@QAEPAVCBrush@@PAV2@@Z:PROC	; CDC::SelectObject
EXTRN	?SetBkMode@CDC@@QAEHH@Z:PROC			; CDC::SetBkMode
EXTRN	?OnCmdMsg@CCmdTarget@@UAEHIHPAXPAUAFX_CMDHANDLERINFO@@@Z:PROC ; CCmdTarget::OnCmdMsg
EXTRN	?IsInvokeAllowed@CCmdTarget@@UAEHJ@Z:PROC	; CCmdTarget::IsInvokeAllowed
EXTRN	?GetDispatchIID@CCmdTarget@@UAEHPAU_GUID@@@Z:PROC ; CCmdTarget::GetDispatchIID
EXTRN	?GetTypeInfoCount@CCmdTarget@@UAEIXZ:PROC	; CCmdTarget::GetTypeInfoCount
EXTRN	?GetTypeLibCache@CCmdTarget@@UAEPAVCTypeLibCache@@XZ:PROC ; CCmdTarget::GetTypeLibCache
EXTRN	?GetTypeLib@CCmdTarget@@UAEJKPAPAUITypeLib@@@Z:PROC ; CCmdTarget::GetTypeLib
EXTRN	?GetCommandMap@CCmdTarget@@MBEPBUAFX_OLECMDMAP@@XZ:PROC ; CCmdTarget::GetCommandMap
EXTRN	?GetDispatchMap@CCmdTarget@@MBEPBUAFX_DISPMAP@@XZ:PROC ; CCmdTarget::GetDispatchMap
EXTRN	?GetConnectionMap@CCmdTarget@@MBEPBUAFX_CONNECTIONMAP@@XZ:PROC ; CCmdTarget::GetConnectionMap
EXTRN	?GetEventSinkMap@CCmdTarget@@MBEPBUAFX_EVENTSINKMAP@@XZ:PROC ; CCmdTarget::GetEventSinkMap
EXTRN	?OnCreateAggregates@CCmdTarget@@UAEHXZ:PROC	; CCmdTarget::OnCreateAggregates
EXTRN	?GetInterfaceHook@CCmdTarget@@UAEPAUIUnknown@@PBX@Z:PROC ; CCmdTarget::GetInterfaceHook
EXTRN	?GetExtraConnectionPoints@CCmdTarget@@MAEHPAVCPtrArray@@@Z:PROC ; CCmdTarget::GetExtraConnectionPoints
EXTRN	?GetConnectionHook@CCmdTarget@@MAEPAUIConnectionPoint@@ABU_GUID@@@Z:PROC ; CCmdTarget::GetConnectionHook
EXTRN	?ModifyStyle@CWnd@@QAEHKKI@Z:PROC		; CWnd::ModifyStyle
EXTRN	??0CWnd@@QAE@XZ:PROC				; CWnd::CWnd
EXTRN	?FromHandle@CWnd@@SGPAV1@PAUHWND__@@@Z:PROC	; CWnd::FromHandle
EXTRN	?PreSubclassWindow@CWnd@@UAEXXZ:PROC		; CWnd::PreSubclassWindow
EXTRN	?Create@CWnd@@UAEHPBD0KABUtagRECT@@PAV1@IPAUCCreateContext@@@Z:PROC ; CWnd::Create
EXTRN	?CreateEx@CWnd@@UAEHKPBD0KHHHHPAUHWND__@@PAUHMENU__@@PAX@Z:PROC ; CWnd::CreateEx
EXTRN	?CreateEx@CWnd@@UAEHKPBD0KABUtagRECT@@PAV1@IPAX@Z:PROC ; CWnd::CreateEx
EXTRN	?DestroyWindow@CWnd@@UAEHXZ:PROC		; CWnd::DestroyWindow
EXTRN	?PreCreateWindow@CWnd@@UAEHAAUtagCREATESTRUCTA@@@Z:PROC ; CWnd::PreCreateWindow
EXTRN	?CalcWindowRect@CWnd@@UAEXPAUtagRECT@@I@Z:PROC	; CWnd::CalcWindowRect
EXTRN	?GetDlgCtrlID@CWnd@@QBEHXZ:PROC			; CWnd::GetDlgCtrlID
EXTRN	?GetWindowTextA@CWnd@@QBEXAAV?$CStringT@DV?$StrTraitMFC_DLL@DV?$ChTraitsCRT@D@ATL@@@@@ATL@@@Z:PROC ; CWnd::GetWindowTextA
EXTRN	?GetMenu@CWnd@@UBEPAVCMenu@@XZ:PROC		; CWnd::GetMenu
EXTRN	?SetMenu@CWnd@@UAEHPAVCMenu@@@Z:PROC		; CWnd::SetMenu
EXTRN	?MoveWindow@CWnd@@QAEXHHHHH@Z:PROC		; CWnd::MoveWindow
EXTRN	?ScreenToClient@CWnd@@QBEXPAUtagRECT@@@Z:PROC	; CWnd::ScreenToClient
EXTRN	?OnToolHitTest@CWnd@@UBEHVCPoint@@PAUtagTOOLINFOA@@@Z:PROC ; CWnd::OnToolHitTest
EXTRN	?GetScrollBarCtrl@CWnd@@UBEPAVCScrollBar@@H@Z:PROC ; CWnd::GetScrollBarCtrl
EXTRN	?WinHelpA@CWnd@@UAEXKI@Z:PROC			; CWnd::WinHelpA
EXTRN	?HtmlHelpA@CWnd@@UAEXKI@Z:PROC			; CWnd::HtmlHelpA
EXTRN	?WinHelpInternal@CWnd@@UAEXKI@Z:PROC		; CWnd::WinHelpInternal
EXTRN	?ContinueModal@CWnd@@UAEHXZ:PROC		; CWnd::ContinueModal
EXTRN	?EndModalLoop@CWnd@@UAEXH@Z:PROC		; CWnd::EndModalLoop
EXTRN	?OnDrawIconicThumbnailOrLivePreview@CWnd@@UAEXAAVCDC@@VCRect@@VCSize@@HAAH@Z:PROC ; CWnd::OnDrawIconicThumbnailOrLivePreview
EXTRN	?GetInterfaceMap@CWnd@@MBEPBUAFX_INTERFACEMAP@@XZ:PROC ; CWnd::GetInterfaceMap
EXTRN	?EnsureStdObj@CWnd@@UAEJXZ:PROC			; CWnd::EnsureStdObj
EXTRN	?get_accParent@CWnd@@UAEJPAPAUIDispatch@@@Z:PROC ; CWnd::get_accParent
EXTRN	?get_accChildCount@CWnd@@UAEJPAJ@Z:PROC		; CWnd::get_accChildCount
EXTRN	?get_accChild@CWnd@@UAEJUtagVARIANT@@PAPAUIDispatch@@@Z:PROC ; CWnd::get_accChild
EXTRN	?get_accName@CWnd@@UAEJUtagVARIANT@@PAPA_W@Z:PROC ; CWnd::get_accName
EXTRN	?get_accValue@CWnd@@UAEJUtagVARIANT@@PAPA_W@Z:PROC ; CWnd::get_accValue
EXTRN	?get_accDescription@CWnd@@UAEJUtagVARIANT@@PAPA_W@Z:PROC ; CWnd::get_accDescription
EXTRN	?get_accRole@CWnd@@UAEJUtagVARIANT@@PAU2@@Z:PROC ; CWnd::get_accRole
EXTRN	?get_accState@CWnd@@UAEJUtagVARIANT@@PAU2@@Z:PROC ; CWnd::get_accState
EXTRN	?get_accHelp@CWnd@@UAEJUtagVARIANT@@PAPA_W@Z:PROC ; CWnd::get_accHelp
EXTRN	?get_accHelpTopic@CWnd@@UAEJPAPA_WUtagVARIANT@@PAJ@Z:PROC ; CWnd::get_accHelpTopic
EXTRN	?get_accKeyboardShortcut@CWnd@@UAEJUtagVARIANT@@PAPA_W@Z:PROC ; CWnd::get_accKeyboardShortcut
EXTRN	?get_accFocus@CWnd@@UAEJPAUtagVARIANT@@@Z:PROC	; CWnd::get_accFocus
EXTRN	?get_accSelection@CWnd@@UAEJPAUtagVARIANT@@@Z:PROC ; CWnd::get_accSelection
EXTRN	?get_accDefaultAction@CWnd@@UAEJUtagVARIANT@@PAPA_W@Z:PROC ; CWnd::get_accDefaultAction
EXTRN	?accSelect@CWnd@@UAEJJUtagVARIANT@@@Z:PROC	; CWnd::accSelect
EXTRN	?accLocation@CWnd@@UAEJPAJ000UtagVARIANT@@@Z:PROC ; CWnd::accLocation
EXTRN	?accNavigate@CWnd@@UAEJJUtagVARIANT@@PAU2@@Z:PROC ; CWnd::accNavigate
EXTRN	?accHitTest@CWnd@@UAEJJJPAUtagVARIANT@@@Z:PROC	; CWnd::accHitTest
EXTRN	?accDoDefaultAction@CWnd@@UAEJUtagVARIANT@@@Z:PROC ; CWnd::accDoDefaultAction
EXTRN	?put_accName@CWnd@@UAEJUtagVARIANT@@PA_W@Z:PROC	; CWnd::put_accName
EXTRN	?put_accValue@CWnd@@UAEJUtagVARIANT@@PA_W@Z:PROC ; CWnd::put_accValue
EXTRN	?SetProxy@CWnd@@UAEJPAUIAccessibleProxy@@@Z:PROC ; CWnd::SetProxy
EXTRN	?CreateAccessibleProxy@CWnd@@UAEJIJPAJ@Z:PROC	; CWnd::CreateAccessibleProxy
EXTRN	?OnCommand@CWnd@@MAEHIJ@Z:PROC			; CWnd::OnCommand
EXTRN	?OnNotify@CWnd@@MAEHIJPAJ@Z:PROC		; CWnd::OnNotify
EXTRN	?GetSuperWndProcAddr@CWnd@@MAEPAP6GJPAUHWND__@@IIJ@ZXZ:PROC ; CWnd::GetSuperWndProcAddr
EXTRN	?PreTranslateMessage@CWnd@@UAEHPAUtagMSG@@@Z:PROC ; CWnd::PreTranslateMessage
EXTRN	?OnAmbientProperty@CWnd@@UAEHPAVCOleControlSite@@JPAUtagVARIANT@@@Z:PROC ; CWnd::OnAmbientProperty
EXTRN	?WindowProc@CWnd@@MAEJIIJ@Z:PROC		; CWnd::WindowProc
EXTRN	?OnWndMsg@CWnd@@MAEHIIJPAJ@Z:PROC		; CWnd::OnWndMsg
EXTRN	?Default@CWnd@@IAEJXZ:PROC			; CWnd::Default
EXTRN	?DefWindowProcA@CWnd@@MAEJIIJ@Z:PROC		; CWnd::DefWindowProcA
EXTRN	?PostNcDestroy@CWnd@@MAEXXZ:PROC		; CWnd::PostNcDestroy
EXTRN	?OnTouchInputs@CWnd@@MAEHIPAUtagTOUCHINPUT@@@Z:PROC ; CWnd::OnTouchInputs
EXTRN	?OnTouchInput@CWnd@@MAEHVCPoint@@HHPAUtagTOUCHINPUT@@@Z:PROC ; CWnd::OnTouchInput
EXTRN	?GetGestureStatus@CWnd@@MAEKVCPoint@@@Z:PROC	; CWnd::GetGestureStatus
EXTRN	?OnGestureZoom@CWnd@@MAEHVCPoint@@J@Z:PROC	; CWnd::OnGestureZoom
EXTRN	?OnGesturePan@CWnd@@MAEHVCPoint@@0@Z:PROC	; CWnd::OnGesturePan
EXTRN	?OnGestureRotate@CWnd@@MAEHVCPoint@@N@Z:PROC	; CWnd::OnGestureRotate
EXTRN	?OnGestureTwoFingerTap@CWnd@@MAEHVCPoint@@@Z:PROC ; CWnd::OnGestureTwoFingerTap
EXTRN	?OnGesturePressAndTap@CWnd@@MAEHVCPoint@@J@Z:PROC ; CWnd::OnGesturePressAndTap
EXTRN	?ResizeDynamicLayout@CWnd@@MAEXXZ:PROC		; CWnd::ResizeDynamicLayout
EXTRN	?CheckAutoCenter@CWnd@@UAEHXZ:PROC		; CWnd::CheckAutoCenter
EXTRN	?IsFrameWnd@CWnd@@UBEHXZ:PROC			; CWnd::IsFrameWnd
EXTRN	?OnFinalRelease@CWnd@@UAEXXZ:PROC		; CWnd::OnFinalRelease
EXTRN	?CreateControlContainer@CWnd@@MAEHPAPAVCOleControlContainer@@@Z:PROC ; CWnd::CreateControlContainer
EXTRN	?CreateControlSite@CWnd@@MAEHPAVCOleControlContainer@@PAPAVCOleControlSite@@IABU_GUID@@@Z:PROC ; CWnd::CreateControlSite
EXTRN	?SetOccDialogInfo@CWnd@@MAEHPAU_AFX_OCC_DIALOG_INFO@@@Z:PROC ; CWnd::SetOccDialogInfo
EXTRN	?GetOccDialogInfo@CWnd@@MAEPAU_AFX_OCC_DIALOG_INFO@@XZ:PROC ; CWnd::GetOccDialogInfo
EXTRN	?GetThisMessageMap@CWnd@@KGPBUAFX_MSGMAP@@XZ:PROC ; CWnd::GetThisMessageMap
EXTRN	?GetMessageMap@CWnd@@MBEPBUAFX_MSGMAP@@XZ:PROC	; CWnd::GetMessageMap
EXTRN	?GetThisClass@CButton@@SGPAUCRuntimeClass@@XZ:PROC ; CButton::GetThisClass
EXTRN	?GetRuntimeClass@CButton@@UBEPAUCRuntimeClass@@XZ:PROC ; CButton::GetRuntimeClass
EXTRN	?Create@CButton@@UAEHPBDKABUtagRECT@@PAVCWnd@@I@Z:PROC ; CButton::Create
EXTRN	?DrawItem@CButton@@UAEXPAUtagDRAWITEMSTRUCT@@@Z:PROC ; CButton::DrawItem
EXTRN	??1CButton@@UAE@XZ:PROC				; CButton::~CButton
EXTRN	?OnChildNotify@CButton@@MAEHIIJPAJ@Z:PROC	; CButton::OnChildNotify
EXTRN	??_ECButton@@UAEPAXI@Z:PROC			; CButton::`vector deleting destructor'
EXTRN	?AfxMessageBox@@YGHPBDII@Z:PROC			; AfxMessageBox
EXTRN	??0CColourPopup@@QAE@PAUHWND__@@VCPoint@@KPAVCWnd@@PBD3@Z:PROC ; CColourPopup::CColourPopup
EXTRN	??_ECColourPicker@@UAEPAXI@Z:PROC		; CColourPicker::`vector deleting destructor'
EXTRN	@__security_check_cookie@4:PROC
EXTRN	___CxxFrameHandler3:PROC
EXTRN	??_7type_info@@6B@:QWORD			; type_info::`vftable'
EXTRN	___security_cookie:DWORD
;	COMDAT ??_R1A@?0A@EA@CColourPicker@@8
rdata$r	SEGMENT
??_R1A@?0A@EA@CColourPicker@@8 DD FLAT:??_R0?AVCColourPicker@@@8 ; CColourPicker::`RTTI Base Class Descriptor at (0,-1,0,64)'
	DD	04H
	DD	00H
	DD	0ffffffffH
	DD	00H
	DD	040H
	DD	FLAT:??_R3CColourPicker@@8
rdata$r	ENDS
;	COMDAT ??_R2CColourPicker@@8
rdata$r	SEGMENT
??_R2CColourPicker@@8 DD FLAT:??_R1A@?0A@EA@CColourPicker@@8 ; CColourPicker::`RTTI Base Class Array'
	DD	FLAT:??_R1A@?0A@EA@CButton@@8
	DD	FLAT:??_R1A@?0A@EA@CWnd@@8
	DD	FLAT:??_R1A@?0A@EA@CCmdTarget@@8
	DD	FLAT:??_R1A@?0A@EA@CObject@@8
rdata$r	ENDS
;	COMDAT ??_R3CColourPicker@@8
rdata$r	SEGMENT
??_R3CColourPicker@@8 DD 00H				; CColourPicker::`RTTI Class Hierarchy Descriptor'
	DD	00H
	DD	05H
	DD	FLAT:??_R2CColourPicker@@8
rdata$r	ENDS
;	COMDAT ??_R0?AVCColourPicker@@@8
data$rs	SEGMENT
??_R0?AVCColourPicker@@@8 DD FLAT:??_7type_info@@6B@	; CColourPicker `RTTI Type Descriptor'
	DD	00H
	DB	'.?AVCColourPicker@@', 00H
data$rs	ENDS
;	COMDAT ??_R4CColourPicker@@6B@
rdata$r	SEGMENT
??_R4CColourPicker@@6B@ DD 00H				; CColourPicker::`RTTI Complete Object Locator'
	DD	00H
	DD	00H
	DD	FLAT:??_R0?AVCColourPicker@@@8
	DD	FLAT:??_R3CColourPicker@@8
rdata$r	ENDS
;	COMDAT ??_C@_06IFNFKIOM@ETC?4?4?4@
CONST	SEGMENT
??_C@_06IFNFKIOM@ETC?4?4?4@ DB 'ETC...', 00H		; `string'
CONST	ENDS
;	COMDAT ?messageMap@?1??GetThisMessageMap@CColourPicker@@KGPBUAFX_MSGMAP@@XZ@4U3@B
CONST	SEGMENT
?messageMap@?1??GetThisMessageMap@CColourPicker@@KGPBUAFX_MSGMAP@@XZ@4U3@B DD FLAT:?GetThisMessageMap@CWnd@@KGPBUAFX_MSGMAP@@XZ ; `CColourPicker::GetThisMessageMap'::`2'::messageMap
	DD	FLAT:?_messageEntries@?1??GetThisMessageMap@CColourPicker@@KGPBUAFX_MSGMAP@@XZ@4QBUAFX_MSGMAP_ENTRY@@B
CONST	ENDS
;	COMDAT ?_messageEntries@?1??GetThisMessageMap@CColourPicker@@KGPBUAFX_MSGMAP@@XZ@4QBUAFX_MSGMAP_ENTRY@@B
CONST	SEGMENT
?_messageEntries@?1??GetThisMessageMap@CColourPicker@@KGPBUAFX_MSGMAP@@XZ@4QBUAFX_MSGMAP_ENTRY@@B DD 0bd11H ; `CColourPicker::GetThisMessageMap'::`2'::_messageEntries
	DD	00H
	DD	00H
	DD	00H
	DD	03bH
	DD	FLAT:?OnClicked@CColourPicker@@IAEHXZ
	DD	01H
	DD	00H
	DD	00H
	DD	00H
	DD	0dH
	DD	FLAT:?OnCreate@CColourPicker@@IAEHPAUtagCREATESTRUCTA@@@Z
	DD	07ecH
	DD	00H
	DD	00H
	DD	00H
	DD	0eH
	DD	FLAT:?OnSelEndOK@CColourPicker@@IAEJIJ@Z
	DD	07edH
	DD	00H
	DD	00H
	DD	00H
	DD	0eH
	DD	FLAT:?OnSelEndCancel@CColourPicker@@IAEJIJ@Z
	DD	07e9H
	DD	00H
	DD	00H
	DD	00H
	DD	0eH
	DD	FLAT:?OnSelChange@CColourPicker@@IAEJIJ@Z
	DD	00H
	DD	00H
	DD	00H
	DD	00H
	DD	00H
	DD	00H
CONST	ENDS
;	COMDAT ??_C@_0O@KPAMJHO@CColourPicker@
CONST	SEGMENT
??_C@_0O@KPAMJHO@CColourPicker@ DB 'CColourPicker', 00H	; `string'
CONST	ENDS
;	COMDAT ??_C@_0BA@MBABNAAM@More?5Colours?4?4?4@
CONST	SEGMENT
??_C@_0BA@MBABNAAM@More?5Colours?4?4?4@ DB 'More Colours...', 00H ; `string'
CONST	ENDS
;	COMDAT ??_C@_09HPGOGDJC@Automatic@
CONST	SEGMENT
??_C@_09HPGOGDJC@Automatic@ DB 'Automatic', 00H		; `string'
CONST	ENDS
;	COMDAT ??_7CColourPicker@@6B@
CONST	SEGMENT
??_7CColourPicker@@6B@ DD FLAT:??_R4CColourPicker@@6B@	; CColourPicker::`vftable'
	DD	FLAT:?GetRuntimeClass@CColourPicker@@UBEPAUCRuntimeClass@@XZ
	DD	FLAT:??_ECColourPicker@@UAEPAXI@Z
	DD	FLAT:?Serialize@CObject@@UAEXAAVCArchive@@@Z
	DD	FLAT:?AssertValid@CObject@@UBEXXZ
	DD	FLAT:?Dump@CObject@@UBEXAAVCDumpContext@@@Z
	DD	FLAT:?OnCmdMsg@CCmdTarget@@UAEHIHPAXPAUAFX_CMDHANDLERINFO@@@Z
	DD	FLAT:?OnFinalRelease@CWnd@@UAEXXZ
	DD	FLAT:?IsInvokeAllowed@CCmdTarget@@UAEHJ@Z
	DD	FLAT:?GetDispatchIID@CCmdTarget@@UAEHPAU_GUID@@@Z
	DD	FLAT:?GetTypeInfoCount@CCmdTarget@@UAEIXZ
	DD	FLAT:?GetTypeLibCache@CCmdTarget@@UAEPAVCTypeLibCache@@XZ
	DD	FLAT:?GetTypeLib@CCmdTarget@@UAEJKPAPAUITypeLib@@@Z
	DD	FLAT:?GetMessageMap@CColourPicker@@MBEPBUAFX_MSGMAP@@XZ
	DD	FLAT:?GetCommandMap@CCmdTarget@@MBEPBUAFX_OLECMDMAP@@XZ
	DD	FLAT:?GetDispatchMap@CCmdTarget@@MBEPBUAFX_DISPMAP@@XZ
	DD	FLAT:?GetConnectionMap@CCmdTarget@@MBEPBUAFX_CONNECTIONMAP@@XZ
	DD	FLAT:?GetInterfaceMap@CWnd@@MBEPBUAFX_INTERFACEMAP@@XZ
	DD	FLAT:?GetEventSinkMap@CCmdTarget@@MBEPBUAFX_EVENTSINKMAP@@XZ
	DD	FLAT:?OnCreateAggregates@CCmdTarget@@UAEHXZ
	DD	FLAT:?GetInterfaceHook@CCmdTarget@@UAEPAUIUnknown@@PBX@Z
	DD	FLAT:?GetExtraConnectionPoints@CCmdTarget@@MAEHPAVCPtrArray@@@Z
	DD	FLAT:?GetConnectionHook@CCmdTarget@@MAEPAUIConnectionPoint@@ABU_GUID@@@Z
	DD	FLAT:?PreSubclassWindow@CColourPicker@@MAEXXZ
	DD	FLAT:?Create@CWnd@@UAEHPBD0KABUtagRECT@@PAV1@IPAUCCreateContext@@@Z
	DD	FLAT:?CreateEx@CWnd@@UAEHKPBD0KABUtagRECT@@PAV1@IPAX@Z
	DD	FLAT:?CreateEx@CWnd@@UAEHKPBD0KHHHHPAUHWND__@@PAUHMENU__@@PAX@Z
	DD	FLAT:?DestroyWindow@CWnd@@UAEHXZ
	DD	FLAT:?PreCreateWindow@CWnd@@UAEHAAUtagCREATESTRUCTA@@@Z
	DD	FLAT:?CalcWindowRect@CWnd@@UAEXPAUtagRECT@@I@Z
	DD	FLAT:?GetMenu@CWnd@@UBEPAVCMenu@@XZ
	DD	FLAT:?SetMenu@CWnd@@UAEHPAVCMenu@@@Z
	DD	FLAT:?OnToolHitTest@CWnd@@UBEHVCPoint@@PAUtagTOOLINFOA@@@Z
	DD	FLAT:?GetScrollBarCtrl@CWnd@@UBEPAVCScrollBar@@H@Z
	DD	FLAT:?WinHelpA@CWnd@@UAEXKI@Z
	DD	FLAT:?HtmlHelpA@CWnd@@UAEXKI@Z
	DD	FLAT:?WinHelpInternal@CWnd@@UAEXKI@Z
	DD	FLAT:?ContinueModal@CWnd@@UAEHXZ
	DD	FLAT:?EndModalLoop@CWnd@@UAEXH@Z
	DD	FLAT:?OnDrawIconicThumbnailOrLivePreview@CWnd@@UAEXAAVCDC@@VCRect@@VCSize@@HAAH@Z
	DD	FLAT:?EnsureStdObj@CWnd@@UAEJXZ
	DD	FLAT:?get_accParent@CWnd@@UAEJPAPAUIDispatch@@@Z
	DD	FLAT:?get_accChildCount@CWnd@@UAEJPAJ@Z
	DD	FLAT:?get_accChild@CWnd@@UAEJUtagVARIANT@@PAPAUIDispatch@@@Z
	DD	FLAT:?get_accName@CWnd@@UAEJUtagVARIANT@@PAPA_W@Z
	DD	FLAT:?get_accValue@CWnd@@UAEJUtagVARIANT@@PAPA_W@Z
	DD	FLAT:?get_accDescription@CWnd@@UAEJUtagVARIANT@@PAPA_W@Z
	DD	FLAT:?get_accRole@CWnd@@UAEJUtagVARIANT@@PAU2@@Z
	DD	FLAT:?get_accState@CWnd@@UAEJUtagVARIANT@@PAU2@@Z
	DD	FLAT:?get_accHelp@CWnd@@UAEJUtagVARIANT@@PAPA_W@Z
	DD	FLAT:?get_accHelpTopic@CWnd@@UAEJPAPA_WUtagVARIANT@@PAJ@Z
	DD	FLAT:?get_accKeyboardShortcut@CWnd@@UAEJUtagVARIANT@@PAPA_W@Z
	DD	FLAT:?get_accFocus@CWnd@@UAEJPAUtagVARIANT@@@Z
	DD	FLAT:?get_accSelection@CWnd@@UAEJPAUtagVARIANT@@@Z
	DD	FLAT:?get_accDefaultAction@CWnd@@UAEJUtagVARIANT@@PAPA_W@Z
	DD	FLAT:?accSelect@CWnd@@UAEJJUtagVARIANT@@@Z
	DD	FLAT:?accLocation@CWnd@@UAEJPAJ000UtagVARIANT@@@Z
	DD	FLAT:?accNavigate@CWnd@@UAEJJUtagVARIANT@@PAU2@@Z
	DD	FLAT:?accHitTest@CWnd@@UAEJJJPAUtagVARIANT@@@Z
	DD	FLAT:?accDoDefaultAction@CWnd@@UAEJUtagVARIANT@@@Z
	DD	FLAT:?put_accName@CWnd@@UAEJUtagVARIANT@@PA_W@Z
	DD	FLAT:?put_accValue@CWnd@@UAEJUtagVARIANT@@PA_W@Z
	DD	FLAT:?SetProxy@CWnd@@UAEJPAUIAccessibleProxy@@@Z
	DD	FLAT:?CreateAccessibleProxy@CWnd@@UAEJIJPAJ@Z
	DD	FLAT:?OnCommand@CWnd@@MAEHIJ@Z
	DD	FLAT:?OnNotify@CWnd@@MAEHIJPAJ@Z
	DD	FLAT:?GetSuperWndProcAddr@CWnd@@MAEPAP6GJPAUHWND__@@IIJ@ZXZ
	DD	FLAT:?DoDataExchange@CWnd@@MAEXPAVCDataExchange@@@Z
	DD	FLAT:?BeginModalState@CWnd@@UAEXXZ
	DD	FLAT:?EndModalState@CWnd@@UAEXXZ
	DD	FLAT:?PreTranslateMessage@CWnd@@UAEHPAUtagMSG@@@Z
	DD	FLAT:?OnAmbientProperty@CWnd@@UAEHPAVCOleControlSite@@JPAUtagVARIANT@@@Z
	DD	FLAT:?WindowProc@CWnd@@MAEJIIJ@Z
	DD	FLAT:?OnWndMsg@CWnd@@MAEHIIJPAJ@Z
	DD	FLAT:?DefWindowProcA@CWnd@@MAEJIIJ@Z
	DD	FLAT:?PostNcDestroy@CWnd@@MAEXXZ
	DD	FLAT:?OnChildNotify@CButton@@MAEHIIJPAJ@Z
	DD	FLAT:?OnTouchInputs@CWnd@@MAEHIPAUtagTOUCHINPUT@@@Z
	DD	FLAT:?OnTouchInput@CWnd@@MAEHVCPoint@@HHPAUtagTOUCHINPUT@@@Z
	DD	FLAT:?GetGestureStatus@CWnd@@MAEKVCPoint@@@Z
	DD	FLAT:?OnGestureZoom@CWnd@@MAEHVCPoint@@J@Z
	DD	FLAT:?OnGesturePan@CWnd@@MAEHVCPoint@@0@Z
	DD	FLAT:?OnGestureRotate@CWnd@@MAEHVCPoint@@N@Z
	DD	FLAT:?OnGestureTwoFingerTap@CWnd@@MAEHVCPoint@@@Z
	DD	FLAT:?OnGesturePressAndTap@CWnd@@MAEHVCPoint@@J@Z
	DD	FLAT:?ResizeDynamicLayout@CWnd@@MAEXXZ
	DD	FLAT:?CheckAutoCenter@CWnd@@UAEHXZ
	DD	FLAT:?IsFrameWnd@CWnd@@UBEHXZ
	DD	FLAT:?CreateControlContainer@CWnd@@MAEHPAPAVCOleControlContainer@@@Z
	DD	FLAT:?CreateControlSite@CWnd@@MAEHPAVCOleControlContainer@@PAPAVCOleControlSite@@IABU_GUID@@@Z
	DD	FLAT:?SetOccDialogInfo@CWnd@@MAEHPAU_AFX_OCC_DIALOG_INFO@@@Z
	DD	FLAT:?GetOccDialogInfo@CWnd@@MAEPAU_AFX_OCC_DIALOG_INFO@@XZ
	DD	FLAT:?Create@CButton@@UAEHPBDKABUtagRECT@@PAVCWnd@@I@Z
	DD	FLAT:?DrawItem@CColourPicker@@UAEXPAUtagDRAWITEMSTRUCT@@@Z
CONST	ENDS
;	COMDAT ?classCColourPicker@CColourPicker@@2UCRuntimeClass@@B
CONST	SEGMENT
?classCColourPicker@CColourPicker@@2UCRuntimeClass@@B DD FLAT:??_C@_0O@KPAMJHO@CColourPicker@ ; CColourPicker::classCColourPicker
	DD	0b0H
	DD	0ffffH
	DD	FLAT:?CreateObject@CColourPicker@@SGPAVCObject@@XZ
	DD	FLAT:?_GetBaseClass@CColourPicker@@KGPAUCRuntimeClass@@XZ
	DD	00H
	DD	00H
CONST	ENDS
;	COMDAT ??_R1A@?0A@EA@CButton@@8
rdata$r	SEGMENT
??_R1A@?0A@EA@CButton@@8 DD FLAT:??_R0?AVCButton@@@8	; CButton::`RTTI Base Class Descriptor at (0,-1,0,64)'
	DD	03H
	DD	00H
	DD	0ffffffffH
	DD	00H
	DD	040H
	DD	FLAT:??_R3CButton@@8
rdata$r	ENDS
;	COMDAT ??_R2CButton@@8
rdata$r	SEGMENT
??_R2CButton@@8 DD FLAT:??_R1A@?0A@EA@CButton@@8	; CButton::`RTTI Base Class Array'
	DD	FLAT:??_R1A@?0A@EA@CWnd@@8
	DD	FLAT:??_R1A@?0A@EA@CCmdTarget@@8
	DD	FLAT:??_R1A@?0A@EA@CObject@@8
rdata$r	ENDS
;	COMDAT ??_R3CButton@@8
rdata$r	SEGMENT
??_R3CButton@@8 DD 00H					; CButton::`RTTI Class Hierarchy Descriptor'
	DD	00H
	DD	04H
	DD	FLAT:??_R2CButton@@8
rdata$r	ENDS
;	COMDAT ??_R0?AVCButton@@@8
data$rs	SEGMENT
??_R0?AVCButton@@@8 DD FLAT:??_7type_info@@6B@		; CButton `RTTI Type Descriptor'
	DD	00H
	DB	'.?AVCButton@@', 00H
data$rs	ENDS
;	COMDAT ??_R4CButton@@6B@
rdata$r	SEGMENT
??_R4CButton@@6B@ DD 00H				; CButton::`RTTI Complete Object Locator'
	DD	00H
	DD	00H
	DD	FLAT:??_R0?AVCButton@@@8
	DD	FLAT:??_R3CButton@@8
rdata$r	ENDS
;	COMDAT ??_R2CCmdTarget@@8
rdata$r	SEGMENT
??_R2CCmdTarget@@8 DD FLAT:??_R1A@?0A@EA@CCmdTarget@@8	; CCmdTarget::`RTTI Base Class Array'
	DD	FLAT:??_R1A@?0A@EA@CObject@@8
rdata$r	ENDS
;	COMDAT ??_R3CCmdTarget@@8
rdata$r	SEGMENT
??_R3CCmdTarget@@8 DD 00H				; CCmdTarget::`RTTI Class Hierarchy Descriptor'
	DD	00H
	DD	02H
	DD	FLAT:??_R2CCmdTarget@@8
rdata$r	ENDS
;	COMDAT ??_R0?AVCCmdTarget@@@8
data$rs	SEGMENT
??_R0?AVCCmdTarget@@@8 DD FLAT:??_7type_info@@6B@	; CCmdTarget `RTTI Type Descriptor'
	DD	00H
	DB	'.?AVCCmdTarget@@', 00H
data$rs	ENDS
;	COMDAT ??_R1A@?0A@EA@CCmdTarget@@8
rdata$r	SEGMENT
??_R1A@?0A@EA@CCmdTarget@@8 DD FLAT:??_R0?AVCCmdTarget@@@8 ; CCmdTarget::`RTTI Base Class Descriptor at (0,-1,0,64)'
	DD	01H
	DD	00H
	DD	0ffffffffH
	DD	00H
	DD	040H
	DD	FLAT:??_R3CCmdTarget@@8
rdata$r	ENDS
;	COMDAT ??_R2CWnd@@8
rdata$r	SEGMENT
??_R2CWnd@@8 DD	FLAT:??_R1A@?0A@EA@CWnd@@8		; CWnd::`RTTI Base Class Array'
	DD	FLAT:??_R1A@?0A@EA@CCmdTarget@@8
	DD	FLAT:??_R1A@?0A@EA@CObject@@8
rdata$r	ENDS
;	COMDAT ??_R3CWnd@@8
rdata$r	SEGMENT
??_R3CWnd@@8 DD	00H					; CWnd::`RTTI Class Hierarchy Descriptor'
	DD	00H
	DD	03H
	DD	FLAT:??_R2CWnd@@8
rdata$r	ENDS
;	COMDAT ??_R0?AVCWnd@@@8
data$rs	SEGMENT
??_R0?AVCWnd@@@8 DD FLAT:??_7type_info@@6B@		; CWnd `RTTI Type Descriptor'
	DD	00H
	DB	'.?AVCWnd@@', 00H
data$rs	ENDS
;	COMDAT ??_R1A@?0A@EA@CWnd@@8
rdata$r	SEGMENT
??_R1A@?0A@EA@CWnd@@8 DD FLAT:??_R0?AVCWnd@@@8		; CWnd::`RTTI Base Class Descriptor at (0,-1,0,64)'
	DD	02H
	DD	00H
	DD	0ffffffffH
	DD	00H
	DD	040H
	DD	FLAT:??_R3CWnd@@8
rdata$r	ENDS
;	COMDAT ??_R1A@?0A@EA@CBrush@@8
rdata$r	SEGMENT
??_R1A@?0A@EA@CBrush@@8 DD FLAT:??_R0?AVCBrush@@@8	; CBrush::`RTTI Base Class Descriptor at (0,-1,0,64)'
	DD	02H
	DD	00H
	DD	0ffffffffH
	DD	00H
	DD	040H
	DD	FLAT:??_R3CBrush@@8
rdata$r	ENDS
;	COMDAT ??_R2CBrush@@8
rdata$r	SEGMENT
??_R2CBrush@@8 DD FLAT:??_R1A@?0A@EA@CBrush@@8		; CBrush::`RTTI Base Class Array'
	DD	FLAT:??_R1A@?0A@EA@CGdiObject@@8
	DD	FLAT:??_R1A@?0A@EA@CObject@@8
rdata$r	ENDS
;	COMDAT ??_R3CBrush@@8
rdata$r	SEGMENT
??_R3CBrush@@8 DD 00H					; CBrush::`RTTI Class Hierarchy Descriptor'
	DD	00H
	DD	03H
	DD	FLAT:??_R2CBrush@@8
rdata$r	ENDS
;	COMDAT ??_R0?AVCBrush@@@8
data$rs	SEGMENT
??_R0?AVCBrush@@@8 DD FLAT:??_7type_info@@6B@		; CBrush `RTTI Type Descriptor'
	DD	00H
	DB	'.?AVCBrush@@', 00H
data$rs	ENDS
;	COMDAT ??_R4CBrush@@6B@
rdata$r	SEGMENT
??_R4CBrush@@6B@ DD 00H					; CBrush::`RTTI Complete Object Locator'
	DD	00H
	DD	00H
	DD	FLAT:??_R0?AVCBrush@@@8
	DD	FLAT:??_R3CBrush@@8
rdata$r	ENDS
;	COMDAT ??_R1A@?0A@EA@CGdiObject@@8
rdata$r	SEGMENT
??_R1A@?0A@EA@CGdiObject@@8 DD FLAT:??_R0?AVCGdiObject@@@8 ; CGdiObject::`RTTI Base Class Descriptor at (0,-1,0,64)'
	DD	01H
	DD	00H
	DD	0ffffffffH
	DD	00H
	DD	040H
	DD	FLAT:??_R3CGdiObject@@8
rdata$r	ENDS
;	COMDAT ??_R2CGdiObject@@8
rdata$r	SEGMENT
??_R2CGdiObject@@8 DD FLAT:??_R1A@?0A@EA@CGdiObject@@8	; CGdiObject::`RTTI Base Class Array'
	DD	FLAT:??_R1A@?0A@EA@CObject@@8
rdata$r	ENDS
;	COMDAT ??_R3CGdiObject@@8
rdata$r	SEGMENT
??_R3CGdiObject@@8 DD 00H				; CGdiObject::`RTTI Class Hierarchy Descriptor'
	DD	00H
	DD	02H
	DD	FLAT:??_R2CGdiObject@@8
rdata$r	ENDS
;	COMDAT ??_R0?AVCGdiObject@@@8
data$rs	SEGMENT
??_R0?AVCGdiObject@@@8 DD FLAT:??_7type_info@@6B@	; CGdiObject `RTTI Type Descriptor'
	DD	00H
	DB	'.?AVCGdiObject@@', 00H
data$rs	ENDS
;	COMDAT ??_R4CGdiObject@@6B@
rdata$r	SEGMENT
??_R4CGdiObject@@6B@ DD 00H				; CGdiObject::`RTTI Complete Object Locator'
	DD	00H
	DD	00H
	DD	FLAT:??_R0?AVCGdiObject@@@8
	DD	FLAT:??_R3CGdiObject@@8
rdata$r	ENDS
;	COMDAT ??_R1A@?0A@EA@CObject@@8
rdata$r	SEGMENT
??_R1A@?0A@EA@CObject@@8 DD FLAT:??_R0?AVCObject@@@8	; CObject::`RTTI Base Class Descriptor at (0,-1,0,64)'
	DD	00H
	DD	00H
	DD	0ffffffffH
	DD	00H
	DD	040H
	DD	FLAT:??_R3CObject@@8
rdata$r	ENDS
;	COMDAT ??_R2CObject@@8
rdata$r	SEGMENT
??_R2CObject@@8 DD FLAT:??_R1A@?0A@EA@CObject@@8	; CObject::`RTTI Base Class Array'
rdata$r	ENDS
;	COMDAT ??_R3CObject@@8
rdata$r	SEGMENT
??_R3CObject@@8 DD 00H					; CObject::`RTTI Class Hierarchy Descriptor'
	DD	00H
	DD	01H
	DD	FLAT:??_R2CObject@@8
rdata$r	ENDS
;	COMDAT ??_R0?AVCObject@@@8
data$rs	SEGMENT
??_R0?AVCObject@@@8 DD FLAT:??_7type_info@@6B@		; CObject `RTTI Type Descriptor'
	DD	00H
	DB	'.?AVCObject@@', 00H
data$rs	ENDS
;	COMDAT ??_C@_0N@OMEMOKLE@?$CFTs?5?$CI?$CFTs?3?$CFd?$CJ@
CONST	SEGMENT
??_C@_0N@OMEMOKLE@?$CFTs?5?$CI?$CFTs?3?$CFd?$CJ@ DB '%Ts (%Ts:%d)', 00H ; `string'
CONST	ENDS
;	COMDAT ??_C@_0BB@HBOOMJBF@?$CFTs?5?$CI?$CFTs?3?$CFd?$CJ?6?$CFTs@
CONST	SEGMENT
??_C@_0BB@HBOOMJBF@?$CFTs?5?$CI?$CFTs?3?$CFd?$CJ?6?$CFTs@ DB '%Ts (%Ts:%d'
	DB	')', 0aH, '%Ts', 00H				; `string'
CONST	ENDS
;	COMDAT ??_C@_0BP@OIEOKIDM@Exception?5thrown?5in?5destructor@
CONST	SEGMENT
??_C@_0BP@OIEOKIDM@Exception?5thrown?5in?5destructor@ DB 'Exception throw'
	DB	'n in destructor', 00H			; `string'
CONST	ENDS
;	COMDAT ??_C@_0HD@JJCHHHNK@C?3?2Program?5Files?5?$CIx86?$CJ?2Microsof@
CONST	SEGMENT
??_C@_0HD@JJCHHHNK@C?3?2Program?5Files?5?$CIx86?$CJ?2Microsof@ DB 'C:\Pro'
	DB	'gram Files (x86)\Microsoft Visual Studio\2019\Community\VC\To'
	DB	'ols\MSVC\14.29.30133\atlmfc\include\afxwin1.inl', 00H ; `string'
CONST	ENDS
;	COMDAT ??_7CButton@@6B@
CONST	SEGMENT
??_7CButton@@6B@ DD FLAT:??_R4CButton@@6B@		; CButton::`vftable'
	DD	FLAT:?GetRuntimeClass@CButton@@UBEPAUCRuntimeClass@@XZ
	DD	FLAT:??_ECButton@@UAEPAXI@Z
	DD	FLAT:?Serialize@CObject@@UAEXAAVCArchive@@@Z
	DD	FLAT:?AssertValid@CObject@@UBEXXZ
	DD	FLAT:?Dump@CObject@@UBEXAAVCDumpContext@@@Z
	DD	FLAT:?OnCmdMsg@CCmdTarget@@UAEHIHPAXPAUAFX_CMDHANDLERINFO@@@Z
	DD	FLAT:?OnFinalRelease@CWnd@@UAEXXZ
	DD	FLAT:?IsInvokeAllowed@CCmdTarget@@UAEHJ@Z
	DD	FLAT:?GetDispatchIID@CCmdTarget@@UAEHPAU_GUID@@@Z
	DD	FLAT:?GetTypeInfoCount@CCmdTarget@@UAEIXZ
	DD	FLAT:?GetTypeLibCache@CCmdTarget@@UAEPAVCTypeLibCache@@XZ
	DD	FLAT:?GetTypeLib@CCmdTarget@@UAEJKPAPAUITypeLib@@@Z
	DD	FLAT:?GetMessageMap@CWnd@@MBEPBUAFX_MSGMAP@@XZ
	DD	FLAT:?GetCommandMap@CCmdTarget@@MBEPBUAFX_OLECMDMAP@@XZ
	DD	FLAT:?GetDispatchMap@CCmdTarget@@MBEPBUAFX_DISPMAP@@XZ
	DD	FLAT:?GetConnectionMap@CCmdTarget@@MBEPBUAFX_CONNECTIONMAP@@XZ
	DD	FLAT:?GetInterfaceMap@CWnd@@MBEPBUAFX_INTERFACEMAP@@XZ
	DD	FLAT:?GetEventSinkMap@CCmdTarget@@MBEPBUAFX_EVENTSINKMAP@@XZ
	DD	FLAT:?OnCreateAggregates@CCmdTarget@@UAEHXZ
	DD	FLAT:?GetInterfaceHook@CCmdTarget@@UAEPAUIUnknown@@PBX@Z
	DD	FLAT:?GetExtraConnectionPoints@CCmdTarget@@MAEHPAVCPtrArray@@@Z
	DD	FLAT:?GetConnectionHook@CCmdTarget@@MAEPAUIConnectionPoint@@ABU_GUID@@@Z
	DD	FLAT:?PreSubclassWindow@CWnd@@UAEXXZ
	DD	FLAT:?Create@CWnd@@UAEHPBD0KABUtagRECT@@PAV1@IPAUCCreateContext@@@Z
	DD	FLAT:?CreateEx@CWnd@@UAEHKPBD0KABUtagRECT@@PAV1@IPAX@Z
	DD	FLAT:?CreateEx@CWnd@@UAEHKPBD0KHHHHPAUHWND__@@PAUHMENU__@@PAX@Z
	DD	FLAT:?DestroyWindow@CWnd@@UAEHXZ
	DD	FLAT:?PreCreateWindow@CWnd@@UAEHAAUtagCREATESTRUCTA@@@Z
	DD	FLAT:?CalcWindowRect@CWnd@@UAEXPAUtagRECT@@I@Z
	DD	FLAT:?GetMenu@CWnd@@UBEPAVCMenu@@XZ
	DD	FLAT:?SetMenu@CWnd@@UAEHPAVCMenu@@@Z
	DD	FLAT:?OnToolHitTest@CWnd@@UBEHVCPoint@@PAUtagTOOLINFOA@@@Z
	DD	FLAT:?GetScrollBarCtrl@CWnd@@UBEPAVCScrollBar@@H@Z
	DD	FLAT:?WinHelpA@CWnd@@UAEXKI@Z
	DD	FLAT:?HtmlHelpA@CWnd@@UAEXKI@Z
	DD	FLAT:?WinHelpInternal@CWnd@@UAEXKI@Z
	DD	FLAT:?ContinueModal@CWnd@@UAEHXZ
	DD	FLAT:?EndModalLoop@CWnd@@UAEXH@Z
	DD	FLAT:?OnDrawIconicThumbnailOrLivePreview@CWnd@@UAEXAAVCDC@@VCRect@@VCSize@@HAAH@Z
	DD	FLAT:?EnsureStdObj@CWnd@@UAEJXZ
	DD	FLAT:?get_accParent@CWnd@@UAEJPAPAUIDispatch@@@Z
	DD	FLAT:?get_accChildCount@CWnd@@UAEJPAJ@Z
	DD	FLAT:?get_accChild@CWnd@@UAEJUtagVARIANT@@PAPAUIDispatch@@@Z
	DD	FLAT:?get_accName@CWnd@@UAEJUtagVARIANT@@PAPA_W@Z
	DD	FLAT:?get_accValue@CWnd@@UAEJUtagVARIANT@@PAPA_W@Z
	DD	FLAT:?get_accDescription@CWnd@@UAEJUtagVARIANT@@PAPA_W@Z
	DD	FLAT:?get_accRole@CWnd@@UAEJUtagVARIANT@@PAU2@@Z
	DD	FLAT:?get_accState@CWnd@@UAEJUtagVARIANT@@PAU2@@Z
	DD	FLAT:?get_accHelp@CWnd@@UAEJUtagVARIANT@@PAPA_W@Z
	DD	FLAT:?get_accHelpTopic@CWnd@@UAEJPAPA_WUtagVARIANT@@PAJ@Z
	DD	FLAT:?get_accKeyboardShortcut@CWnd@@UAEJUtagVARIANT@@PAPA_W@Z
	DD	FLAT:?get_accFocus@CWnd@@UAEJPAUtagVARIANT@@@Z
	DD	FLAT:?get_accSelection@CWnd@@UAEJPAUtagVARIANT@@@Z
	DD	FLAT:?get_accDefaultAction@CWnd@@UAEJUtagVARIANT@@PAPA_W@Z
	DD	FLAT:?accSelect@CWnd@@UAEJJUtagVARIANT@@@Z
	DD	FLAT:?accLocation@CWnd@@UAEJPAJ000UtagVARIANT@@@Z
	DD	FLAT:?accNavigate@CWnd@@UAEJJUtagVARIANT@@PAU2@@Z
	DD	FLAT:?accHitTest@CWnd@@UAEJJJPAUtagVARIANT@@@Z
	DD	FLAT:?accDoDefaultAction@CWnd@@UAEJUtagVARIANT@@@Z
	DD	FLAT:?put_accName@CWnd@@UAEJUtagVARIANT@@PA_W@Z
	DD	FLAT:?put_accValue@CWnd@@UAEJUtagVARIANT@@PA_W@Z
	DD	FLAT:?SetProxy@CWnd@@UAEJPAUIAccessibleProxy@@@Z
	DD	FLAT:?CreateAccessibleProxy@CWnd@@UAEJIJPAJ@Z
	DD	FLAT:?OnCommand@CWnd@@MAEHIJ@Z
	DD	FLAT:?OnNotify@CWnd@@MAEHIJPAJ@Z
	DD	FLAT:?GetSuperWndProcAddr@CWnd@@MAEPAP6GJPAUHWND__@@IIJ@ZXZ
	DD	FLAT:?DoDataExchange@CWnd@@MAEXPAVCDataExchange@@@Z
	DD	FLAT:?BeginModalState@CWnd@@UAEXXZ
	DD	FLAT:?EndModalState@CWnd@@UAEXXZ
	DD	FLAT:?PreTranslateMessage@CWnd@@UAEHPAUtagMSG@@@Z
	DD	FLAT:?OnAmbientProperty@CWnd@@UAEHPAVCOleControlSite@@JPAUtagVARIANT@@@Z
	DD	FLAT:?WindowProc@CWnd@@MAEJIIJ@Z
	DD	FLAT:?OnWndMsg@CWnd@@MAEHIIJPAJ@Z
	DD	FLAT:?DefWindowProcA@CWnd@@MAEJIIJ@Z
	DD	FLAT:?PostNcDestroy@CWnd@@MAEXXZ
	DD	FLAT:?OnChildNotify@CButton@@MAEHIIJPAJ@Z
	DD	FLAT:?OnTouchInputs@CWnd@@MAEHIPAUtagTOUCHINPUT@@@Z
	DD	FLAT:?OnTouchInput@CWnd@@MAEHVCPoint@@HHPAUtagTOUCHINPUT@@@Z
	DD	FLAT:?GetGestureStatus@CWnd@@MAEKVCPoint@@@Z
	DD	FLAT:?OnGestureZoom@CWnd@@MAEHVCPoint@@J@Z
	DD	FLAT:?OnGesturePan@CWnd@@MAEHVCPoint@@0@Z
	DD	FLAT:?OnGestureRotate@CWnd@@MAEHVCPoint@@N@Z
	DD	FLAT:?OnGestureTwoFingerTap@CWnd@@MAEHVCPoint@@@Z
	DD	FLAT:?OnGesturePressAndTap@CWnd@@MAEHVCPoint@@J@Z
	DD	FLAT:?ResizeDynamicLayout@CWnd@@MAEXXZ
	DD	FLAT:?CheckAutoCenter@CWnd@@UAEHXZ
	DD	FLAT:?IsFrameWnd@CWnd@@UBEHXZ
	DD	FLAT:?CreateControlContainer@CWnd@@MAEHPAPAVCOleControlContainer@@@Z
	DD	FLAT:?CreateControlSite@CWnd@@MAEHPAVCOleControlContainer@@PAPAVCOleControlSite@@IABU_GUID@@@Z
	DD	FLAT:?SetOccDialogInfo@CWnd@@MAEHPAU_AFX_OCC_DIALOG_INFO@@@Z
	DD	FLAT:?GetOccDialogInfo@CWnd@@MAEPAU_AFX_OCC_DIALOG_INFO@@XZ
	DD	FLAT:?Create@CButton@@UAEHPBDKABUtagRECT@@PAVCWnd@@I@Z
	DD	FLAT:?DrawItem@CButton@@UAEXPAUtagDRAWITEMSTRUCT@@@Z
CONST	ENDS
;	COMDAT ??_7CBrush@@6B@
CONST	SEGMENT
??_7CBrush@@6B@ DD FLAT:??_R4CBrush@@6B@		; CBrush::`vftable'
	DD	FLAT:?GetRuntimeClass@CBrush@@UBEPAUCRuntimeClass@@XZ
	DD	FLAT:??_ECBrush@@UAEPAXI@Z
	DD	FLAT:?Serialize@CObject@@UAEXAAVCArchive@@@Z
	DD	FLAT:?AssertValid@CObject@@UBEXXZ
	DD	FLAT:?Dump@CObject@@UBEXAAVCDumpContext@@@Z
CONST	ENDS
;	COMDAT ??_7CGdiObject@@6B@
CONST	SEGMENT
??_7CGdiObject@@6B@ DD FLAT:??_R4CGdiObject@@6B@	; CGdiObject::`vftable'
	DD	FLAT:?GetRuntimeClass@CGdiObject@@UBEPAUCRuntimeClass@@XZ
	DD	FLAT:??_ECGdiObject@@UAEPAXI@Z
	DD	FLAT:?Serialize@CObject@@UAEXAAVCArchive@@@Z
	DD	FLAT:?AssertValid@CObject@@UBEXXZ
	DD	FLAT:?Dump@CObject@@UBEXAAVCDumpContext@@@Z
CONST	ENDS
;	COMDAT ??_C@_00CNPNBAHC@@
CONST	SEGMENT
??_C@_00CNPNBAHC@@ DB 00H				; `string'
CONST	ENDS
;	COMDAT ??_R0PAVCException@@@8
data$r	SEGMENT
??_R0PAVCException@@@8 DD FLAT:??_7type_info@@6B@	; CException * `RTTI Type Descriptor'
	DD	00H
	DB	'.PAVCException@@', 00H
data$r	ENDS
;	COMDAT xdata$x
xdata$x	SEGMENT
__unwindtable$?OnClicked@CColourPicker@@IAEHXZ DD 0ffffffffH
	DD	FLAT:__unwindfunclet$?OnClicked@CColourPicker@@IAEHXZ$0
__ehfuncinfo$?OnClicked@CColourPicker@@IAEHXZ DD 019930522H
	DD	01H
	DD	FLAT:__unwindtable$?OnClicked@CColourPicker@@IAEHXZ
	DD	2 DUP(00H)
	DD	2 DUP(00H)
	DD	00H
	DD	01H
xdata$x	ENDS
;	COMDAT xdata$x
xdata$x	SEGMENT
__unwindtable$?DrawItem@CColourPicker@@UAEXPAUtagDRAWITEMSTRUCT@@@Z DD 0ffffffffH
	DD	FLAT:__unwindfunclet$?DrawItem@CColourPicker@@UAEXPAUtagDRAWITEMSTRUCT@@@Z$0
	DD	00H
	DD	FLAT:__unwindfunclet$?DrawItem@CColourPicker@@UAEXPAUtagDRAWITEMSTRUCT@@@Z$1
__ehfuncinfo$?DrawItem@CColourPicker@@UAEXPAUtagDRAWITEMSTRUCT@@@Z DD 019930522H
	DD	02H
	DD	FLAT:__unwindtable$?DrawItem@CColourPicker@@UAEXPAUtagDRAWITEMSTRUCT@@@Z
	DD	2 DUP(00H)
	DD	2 DUP(00H)
	DD	00H
	DD	01H
xdata$x	ENDS
;	COMDAT xdata$x
xdata$x	SEGMENT
__unwindtable$?InitColorPicker@CColourPicker@@QAEXK@Z DD 0ffffffffH
	DD	FLAT:__unwindfunclet$?InitColorPicker@CColourPicker@@QAEXK@Z$0
	DD	0ffffffffH
	DD	FLAT:__unwindfunclet$?InitColorPicker@CColourPicker@@QAEXK@Z$1
__ehfuncinfo$?InitColorPicker@CColourPicker@@QAEXK@Z DD 019930522H
	DD	02H
	DD	FLAT:__unwindtable$?InitColorPicker@CColourPicker@@QAEXK@Z
	DD	2 DUP(00H)
	DD	2 DUP(00H)
	DD	00H
	DD	01H
xdata$x	ENDS
;	COMDAT xdata$x
xdata$x	SEGMENT
__unwindtable$?CreateObject@CColourPicker@@SGPAVCObject@@XZ DD 0ffffffffH
	DD	FLAT:__unwindfunclet$?CreateObject@CColourPicker@@SGPAVCObject@@XZ$0
	DD	00H
	DD	FLAT:__unwindfunclet$?CreateObject@CColourPicker@@SGPAVCObject@@XZ$1
	DD	01H
	DD	FLAT:__unwindfunclet$?CreateObject@CColourPicker@@SGPAVCObject@@XZ$2
	DD	02H
	DD	FLAT:__unwindfunclet$?CreateObject@CColourPicker@@SGPAVCObject@@XZ$3
__ehfuncinfo$?CreateObject@CColourPicker@@SGPAVCObject@@XZ DD 019930522H
	DD	04H
	DD	FLAT:__unwindtable$?CreateObject@CColourPicker@@SGPAVCObject@@XZ
	DD	2 DUP(00H)
	DD	2 DUP(00H)
	DD	00H
	DD	01H
xdata$x	ENDS
;	COMDAT xdata$x
xdata$x	SEGMENT
__unwindtable$??0CColourPicker@@QAE@XZ DD 0ffffffffH
	DD	FLAT:__unwindfunclet$??0CColourPicker@@QAE@XZ$0
	DD	00H
	DD	FLAT:__unwindfunclet$??0CColourPicker@@QAE@XZ$1
	DD	01H
	DD	FLAT:__unwindfunclet$??0CColourPicker@@QAE@XZ$2
__ehfuncinfo$??0CColourPicker@@QAE@XZ DD 019930522H
	DD	03H
	DD	FLAT:__unwindtable$??0CColourPicker@@QAE@XZ
	DD	2 DUP(00H)
	DD	2 DUP(00H)
	DD	00H
	DD	01H
xdata$x	ENDS
;	COMDAT xdata$x
xdata$x	SEGMENT
__catchsym$??1CGdiObject@@UAE@XZ$3 DD 00H
	DD	FLAT:??_R0PAVCException@@@8
	DD	0fffffde4H
	DD	FLAT:__catch$??1CGdiObject@@UAE@XZ$0
__tryblocktable$??1CGdiObject@@UAE@XZ DD 00H
	DD	00H
	DD	02H
	DD	01H
	DD	FLAT:__catchsym$??1CGdiObject@@UAE@XZ$3
__unwindtable$??1CGdiObject@@UAE@XZ DD 0ffffffffH
	DD	00H
	DD	0ffffffffH
	DD	00H
	DD	01H
	DD	FLAT:__unwindfunclet$??1CGdiObject@@UAE@XZ$2
__ehfuncinfo$??1CGdiObject@@UAE@XZ DD 019930522H
	DD	03H
	DD	FLAT:__unwindtable$??1CGdiObject@@UAE@XZ
	DD	01H
	DD	FLAT:__tryblocktable$??1CGdiObject@@UAE@XZ
	DD	2 DUP(00H)
	DD	00H
	DD	05H
xdata$x	ENDS
; Function compile flags: /Ogtp
; File D:\git\src\IBK\IBK_DRFN\ProjSrc\SrcChartEx\ChartAddIn\ChartDesignPropertyAddIn\ChartDesignPropertyAddIn\ColourPicker.cpp
; File C:\Program Files (x86)\Microsoft Visual Studio\2019\Community\VC\Tools\MSVC\14.29.30133\atlmfc\include\afx.inl
;	COMDAT ??_GCColourPicker@@UAEPAXI@Z
_TEXT	SEGMENT
___flags$ = 8						; size = 4
??_GCColourPicker@@UAEPAXI@Z PROC			; CColourPicker::`scalar deleting destructor', COMDAT
; _this$ = ecx
  00000	55		 push	 ebp
  00001	8b ec		 mov	 ebp, esp
; File D:\git\src\IBK\IBK_DRFN\ProjSrc\SrcChartEx\ChartAddIn\ChartDesignPropertyAddIn\ChartDesignPropertyAddIn\ColourPicker.cpp

; 79   : {

  00003	56		 push	 esi
  00004	8b f1		 mov	 esi, ecx

; 80   : }

  00006	8d 8e a8 00 00
	00		 lea	 ecx, DWORD PTR [esi+168]
  0000c	c7 06 00 00 00
	00		 mov	 DWORD PTR [esi], OFFSET ??_7CColourPicker@@6B@
  00012	ff 15 00 00 00
	00		 call	 DWORD PTR __imp_??1?$CStringT@DV?$StrTraitMFC_DLL@DV?$ChTraitsCRT@D@ATL@@@@@ATL@@QAE@XZ
  00018	8d 8e a4 00 00
	00		 lea	 ecx, DWORD PTR [esi+164]
  0001e	ff 15 00 00 00
	00		 call	 DWORD PTR __imp_??1?$CStringT@DV?$StrTraitMFC_DLL@DV?$ChTraitsCRT@D@ATL@@@@@ATL@@QAE@XZ
  00024	8b ce		 mov	 ecx, esi
  00026	e8 00 00 00 00	 call	 ??1CButton@@UAE@XZ	; CButton::~CButton
  0002b	8b 45 08	 mov	 eax, DWORD PTR ___flags$[ebp]
  0002e	a8 01		 test	 al, 1
  00030	74 22		 je	 SHORT $LN12@scalar
  00032	a8 04		 test	 al, 4
  00034	75 10		 jne	 SHORT $LN3@scalar
; File C:\Program Files (x86)\Microsoft Visual Studio\2019\Community\VC\Tools\MSVC\14.29.30133\atlmfc\include\afx.inl

; 112  : 	{ ::operator delete(p); }

  00036	56		 push	 esi
  00037	e8 00 00 00 00	 call	 ??3@YAXPAX@Z		; operator delete
  0003c	83 c4 04	 add	 esp, 4
  0003f	8b c6		 mov	 eax, esi
  00041	5e		 pop	 esi
  00042	5d		 pop	 ebp
  00043	c2 04 00	 ret	 4
$LN3@scalar:
  00046	68 b0 00 00 00	 push	 176			; 000000b0H
  0004b	56		 push	 esi
  0004c	e8 00 00 00 00	 call	 ?__global_delete@@YAXPAXI@Z ; __global_delete
  00051	83 c4 08	 add	 esp, 8
$LN12@scalar:
  00054	8b c6		 mov	 eax, esi
  00056	5e		 pop	 esi
  00057	5d		 pop	 ebp
  00058	c2 04 00	 ret	 4
??_GCColourPicker@@UAEPAXI@Z ENDP			; CColourPicker::`scalar deleting destructor'
_TEXT	ENDS
; Function compile flags: /Ogtp
; File D:\git\src\IBK\IBK_DRFN\ProjSrc\SrcChartEx\ChartAddIn\ChartDesignPropertyAddIn\ChartDesignPropertyAddIn\ColourPicker.cpp
;	COMDAT ?GetMessageMap@CColourPicker@@MBEPBUAFX_MSGMAP@@XZ
_TEXT	SEGMENT
?GetMessageMap@CColourPicker@@MBEPBUAFX_MSGMAP@@XZ PROC	; CColourPicker::GetMessageMap, COMDAT
; _this$ = ecx

; 84   : BEGIN_MESSAGE_MAP(CColourPicker, CButton)

  00000	b8 00 00 00 00	 mov	 eax, OFFSET ?messageMap@?1??GetThisMessageMap@CColourPicker@@KGPBUAFX_MSGMAP@@XZ@4U3@B
  00005	c3		 ret	 0
?GetMessageMap@CColourPicker@@MBEPBUAFX_MSGMAP@@XZ ENDP	; CColourPicker::GetMessageMap
_TEXT	ENDS
; Function compile flags: /Ogtp
; File D:\git\src\IBK\IBK_DRFN\ProjSrc\SrcChartEx\ChartAddIn\ChartDesignPropertyAddIn\ChartDesignPropertyAddIn\ColourPicker.cpp
;	COMDAT ?GetThisMessageMap@CColourPicker@@KGPBUAFX_MSGMAP@@XZ
_TEXT	SEGMENT
?GetThisMessageMap@CColourPicker@@KGPBUAFX_MSGMAP@@XZ PROC ; CColourPicker::GetThisMessageMap, COMDAT

; 85   :     //{{AFX_MSG_MAP(CColourPicker)
; 86   :     ON_CONTROL_REFLECT_EX(BN_CLICKED, OnClicked)
; 87   :     ON_WM_CREATE()
; 88   :     //}}AFX_MSG_MAP
; 89   :     ON_MESSAGE(CPN_SELENDOK,     OnSelEndOK)
; 90   :     ON_MESSAGE(CPN_SELENDCANCEL, OnSelEndCancel)
; 91   :     ON_MESSAGE(CPN_SELCHANGE,    OnSelChange)
; 92   : END_MESSAGE_MAP()

  00000	b8 00 00 00 00	 mov	 eax, OFFSET ?messageMap@?1??GetThisMessageMap@CColourPicker@@KGPBUAFX_MSGMAP@@XZ@4U3@B
  00005	c3		 ret	 0
?GetThisMessageMap@CColourPicker@@KGPBUAFX_MSGMAP@@XZ ENDP ; CColourPicker::GetThisMessageMap
_TEXT	ENDS
; Function compile flags: /Ogtp
; File D:\git\src\IBK\IBK_DRFN\ProjSrc\SrcChartEx\ChartAddIn\ChartDesignPropertyAddIn\ChartDesignPropertyAddIn\ColourPicker.cpp
; File C:\Program Files (x86)\Microsoft Visual Studio\2019\Community\VC\Tools\MSVC\14.29.30133\atlmfc\include\afxwin2.inl
; File D:\git\src\IBK\IBK_DRFN\ProjSrc\SrcChartEx\ChartAddIn\ChartDesignPropertyAddIn\ChartDesignPropertyAddIn\ColourPicker.cpp
; File C:\Program Files (x86)\Microsoft Visual Studio\2019\Community\VC\Tools\MSVC\14.29.30133\atlmfc\include\afxwin2.inl
; File D:\git\src\IBK\IBK_DRFN\ProjSrc\SrcChartEx\ChartAddIn\ChartDesignPropertyAddIn\ChartDesignPropertyAddIn\ColourPicker.cpp
;	COMDAT ?OnSelChange@CColourPicker@@IAEJIJ@Z
_TEXT	SEGMENT
_lParam$ = 8						; size = 4
___formal$ = 12						; size = 4
?OnSelChange@CColourPicker@@IAEJIJ@Z PROC		; CColourPicker::OnSelChange, COMDAT
; _this$ = ecx

; 136  : {

  00000	55		 push	 ebp
  00001	8b ec		 mov	 ebp, esp
  00003	53		 push	 ebx
  00004	56		 push	 esi
  00005	8b f1		 mov	 esi, ecx
  00007	57		 push	 edi

; 137  :     if (m_bTrackSelection) SetColour((COLORREF) lParam);

  00008	8b 7d 08	 mov	 edi, DWORD PTR _lParam$[ebp]
  0000b	83 be 84 00 00
	00 00		 cmp	 DWORD PTR [esi+132], 0
  00012	74 37		 je	 SHORT $LN19@OnSelChang

; 260  :     (m_nSelectionMode == CP_MODE_TEXT)? 

  00014	83 be 90 00 00
	00 01		 cmp	 DWORD PTR [esi+144], 1
  0001b	8b 46 20	 mov	 eax, DWORD PTR [esi+32]
  0001e	50		 push	 eax
  0001f	75 08		 jne	 SHORT $LN7@OnSelChang

; 272  :     m_crColourText = crColourText;

  00021	89 be 8c 00 00
	00		 mov	 DWORD PTR [esi+140], edi

; 260  :     (m_nSelectionMode == CP_MODE_TEXT)? 

  00027	eb 06		 jmp	 SHORT $LN33@OnSelChang
$LN7@OnSelChang:

; 266  :     m_crColourBk = crColourBk;

  00029	89 be 88 00 00
	00		 mov	 DWORD PTR [esi+136], edi
$LN33@OnSelChang:
; File C:\Program Files (x86)\Microsoft Visual Studio\2019\Community\VC\Tools\MSVC\14.29.30133\atlmfc\include\afxwin2.inl

; 213  : 	{ ASSERT(::IsWindow(m_hWnd)); return CWnd::FromHandle(::GetParent(m_hWnd)); }

  0002f	ff 15 00 00 00
	00		 call	 DWORD PTR __imp__IsWindow@4
  00035	85 c0		 test	 eax, eax
  00037	74 12		 je	 SHORT $LN19@OnSelChang
  00039	68 05 01 00 00	 push	 261			; 00000105H
  0003e	6a 00		 push	 0
  00040	6a 00		 push	 0
  00042	ff 76 20	 push	 DWORD PTR [esi+32]
  00045	ff 15 00 00 00
	00		 call	 DWORD PTR __imp__RedrawWindow@16
$LN19@OnSelChang:
  0004b	ff 76 20	 push	 DWORD PTR [esi+32]
  0004e	ff 15 00 00 00
	00		 call	 DWORD PTR __imp__GetParent@4
  00054	50		 push	 eax
  00055	e8 00 00 00 00	 call	 ?FromHandle@CWnd@@SGPAV1@PAUHWND__@@@Z ; CWnd::FromHandle
; File D:\git\src\IBK\IBK_DRFN\ProjSrc\SrcChartEx\ChartAddIn\ChartDesignPropertyAddIn\ChartDesignPropertyAddIn\ColourPicker.cpp

; 139  :     CWnd *pParent = GetParent();

  0005a	8b d8		 mov	 ebx, eax

; 140  :     if (pParent) pParent->SendMessage(CPN_SELCHANGE, lParam, (WPARAM) GetDlgCtrlID());

  0005c	85 db		 test	 ebx, ebx
  0005e	74 17		 je	 SHORT $LN31@OnSelChang
  00060	8b ce		 mov	 ecx, esi
  00062	e8 00 00 00 00	 call	 ?GetDlgCtrlID@CWnd@@QBEHXZ ; CWnd::GetDlgCtrlID
; File C:\Program Files (x86)\Microsoft Visual Studio\2019\Community\VC\Tools\MSVC\14.29.30133\atlmfc\include\afxwin2.inl

; 32   : 	{ ASSERT(::IsWindow(m_hWnd)); return ::SendMessage(m_hWnd, message, wParam, lParam); }

  00067	50		 push	 eax
  00068	57		 push	 edi
  00069	68 e9 07 00 00	 push	 2025			; 000007e9H
  0006e	ff 73 20	 push	 DWORD PTR [ebx+32]
  00071	ff 15 00 00 00
	00		 call	 DWORD PTR __imp__SendMessageA@16
$LN31@OnSelChang:
  00077	5f		 pop	 edi
; File D:\git\src\IBK\IBK_DRFN\ProjSrc\SrcChartEx\ChartAddIn\ChartDesignPropertyAddIn\ChartDesignPropertyAddIn\ColourPicker.cpp

; 143  : }

  00078	5e		 pop	 esi
  00079	b8 01 00 00 00	 mov	 eax, 1
  0007e	5b		 pop	 ebx
  0007f	5d		 pop	 ebp
  00080	c2 08 00	 ret	 8
?OnSelChange@CColourPicker@@IAEJIJ@Z ENDP		; CColourPicker::OnSelChange
_TEXT	ENDS
; Function compile flags: /Ogtp
; File D:\git\src\IBK\IBK_DRFN\ProjSrc\SrcChartEx\ChartAddIn\ChartDesignPropertyAddIn\ChartDesignPropertyAddIn\ColourPicker.cpp
; File C:\Program Files (x86)\Microsoft Visual Studio\2019\Community\VC\Tools\MSVC\14.29.30133\atlmfc\include\afxwin2.inl
; File D:\git\src\IBK\IBK_DRFN\ProjSrc\SrcChartEx\ChartAddIn\ChartDesignPropertyAddIn\ChartDesignPropertyAddIn\ColourPicker.cpp
; File C:\Program Files (x86)\Microsoft Visual Studio\2019\Community\VC\Tools\MSVC\14.29.30133\atlmfc\include\afxwin2.inl
; File D:\git\src\IBK\IBK_DRFN\ProjSrc\SrcChartEx\ChartAddIn\ChartDesignPropertyAddIn\ChartDesignPropertyAddIn\ColourPicker.cpp
; File C:\Program Files (x86)\Microsoft Visual Studio\2019\Community\VC\Tools\MSVC\14.29.30133\atlmfc\include\afxwin2.inl
; File D:\git\src\IBK\IBK_DRFN\ProjSrc\SrcChartEx\ChartAddIn\ChartDesignPropertyAddIn\ChartDesignPropertyAddIn\ColourPicker.cpp
;	COMDAT ?OnSelEndCancel@CColourPicker@@IAEJIJ@Z
_TEXT	SEGMENT
_pParent$1$ = 8						; size = 4
_lParam$ = 8						; size = 4
___formal$ = 12						; size = 4
?OnSelEndCancel@CColourPicker@@IAEJIJ@Z PROC		; CColourPicker::OnSelEndCancel, COMDAT
; _this$ = ecx

; 121  : {

  00000	55		 push	 ebp
  00001	8b ec		 mov	 ebp, esp
  00003	53		 push	 ebx

; 260  :     (m_nSelectionMode == CP_MODE_TEXT)? 

  00004	8b 5d 08	 mov	 ebx, DWORD PTR _lParam$[ebp]

; 121  : {

  00007	56		 push	 esi
  00008	57		 push	 edi
  00009	8b f9		 mov	 edi, ecx

; 260  :     (m_nSelectionMode == CP_MODE_TEXT)? 

  0000b	83 bf 90 00 00
	00 01		 cmp	 DWORD PTR [edi+144], 1
  00012	8b 47 20	 mov	 eax, DWORD PTR [edi+32]

; 122  :     m_bActive = FALSE;

  00015	c7 87 80 00 00
	00 00 00 00 00	 mov	 DWORD PTR [edi+128], 0

; 260  :     (m_nSelectionMode == CP_MODE_TEXT)? 

  0001f	50		 push	 eax
  00020	75 08		 jne	 SHORT $LN6@OnSelEndCa

; 272  :     m_crColourText = crColourText;

  00022	89 9f 8c 00 00
	00		 mov	 DWORD PTR [edi+140], ebx

; 260  :     (m_nSelectionMode == CP_MODE_TEXT)? 

  00028	eb 06		 jmp	 SHORT $LN34@OnSelEndCa
$LN6@OnSelEndCa:

; 266  :     m_crColourBk = crColourBk;

  0002a	89 9f 88 00 00
	00		 mov	 DWORD PTR [edi+136], ebx
$LN34@OnSelEndCa:
; File C:\Program Files (x86)\Microsoft Visual Studio\2019\Community\VC\Tools\MSVC\14.29.30133\atlmfc\include\afxwin2.inl

; 213  : 	{ ASSERT(::IsWindow(m_hWnd)); return CWnd::FromHandle(::GetParent(m_hWnd)); }

  00030	ff 15 00 00 00
	00		 call	 DWORD PTR __imp__IsWindow@4
  00036	85 c0		 test	 eax, eax
  00038	74 12		 je	 SHORT $LN18@OnSelEndCa
  0003a	68 05 01 00 00	 push	 261			; 00000105H
  0003f	6a 00		 push	 0
  00041	6a 00		 push	 0
  00043	ff 77 20	 push	 DWORD PTR [edi+32]
  00046	ff 15 00 00 00
	00		 call	 DWORD PTR __imp__RedrawWindow@16
$LN18@OnSelEndCa:
  0004c	ff 77 20	 push	 DWORD PTR [edi+32]
  0004f	ff 15 00 00 00
	00		 call	 DWORD PTR __imp__GetParent@4
  00055	50		 push	 eax
  00056	e8 00 00 00 00	 call	 ?FromHandle@CWnd@@SGPAV1@PAUHWND__@@@Z ; CWnd::FromHandle
; File D:\git\src\IBK\IBK_DRFN\ProjSrc\SrcChartEx\ChartAddIn\ChartDesignPropertyAddIn\ChartDesignPropertyAddIn\ColourPicker.cpp

; 125  :     CWnd *pParent = GetParent();

  0005b	8b f0		 mov	 esi, eax
  0005d	89 75 08	 mov	 DWORD PTR _pParent$1$[ebp], esi

; 126  :     if (pParent)

  00060	85 f6		 test	 esi, esi
  00062	74 2f		 je	 SHORT $LN32@OnSelEndCa

; 127  : 	{
; 128  :         pParent->SendMessage(CPN_CLOSEUP, lParam, (WPARAM) GetDlgCtrlID());

  00064	8b cf		 mov	 ecx, edi
  00066	e8 00 00 00 00	 call	 ?GetDlgCtrlID@CWnd@@QBEHXZ ; CWnd::GetDlgCtrlID
; File C:\Program Files (x86)\Microsoft Visual Studio\2019\Community\VC\Tools\MSVC\14.29.30133\atlmfc\include\afxwin2.inl

; 32   : 	{ ASSERT(::IsWindow(m_hWnd)); return ::SendMessage(m_hWnd, message, wParam, lParam); }

  0006b	50		 push	 eax
  0006c	53		 push	 ebx
  0006d	68 eb 07 00 00	 push	 2027			; 000007ebH
  00072	ff 76 20	 push	 DWORD PTR [esi+32]
  00075	8b 35 00 00 00
	00		 mov	 esi, DWORD PTR __imp__SendMessageA@16
  0007b	ff d6		 call	 esi
; File D:\git\src\IBK\IBK_DRFN\ProjSrc\SrcChartEx\ChartAddIn\ChartDesignPropertyAddIn\ChartDesignPropertyAddIn\ColourPicker.cpp

; 129  :         pParent->SendMessage(CPN_SELENDCANCEL, lParam, (WPARAM) GetDlgCtrlID());

  0007d	8b cf		 mov	 ecx, edi
  0007f	e8 00 00 00 00	 call	 ?GetDlgCtrlID@CWnd@@QBEHXZ ; CWnd::GetDlgCtrlID
; File C:\Program Files (x86)\Microsoft Visual Studio\2019\Community\VC\Tools\MSVC\14.29.30133\atlmfc\include\afxwin2.inl

; 32   : 	{ ASSERT(::IsWindow(m_hWnd)); return ::SendMessage(m_hWnd, message, wParam, lParam); }

  00084	50		 push	 eax
  00085	8b 45 08	 mov	 eax, DWORD PTR _pParent$1$[ebp]
  00088	53		 push	 ebx
  00089	68 ed 07 00 00	 push	 2029			; 000007edH
  0008e	ff 70 20	 push	 DWORD PTR [eax+32]
  00091	ff d6		 call	 esi
$LN32@OnSelEndCa:
  00093	5f		 pop	 edi
; File D:\git\src\IBK\IBK_DRFN\ProjSrc\SrcChartEx\ChartAddIn\ChartDesignPropertyAddIn\ChartDesignPropertyAddIn\ColourPicker.cpp

; 133  : }

  00094	5e		 pop	 esi
  00095	b8 01 00 00 00	 mov	 eax, 1
  0009a	5b		 pop	 ebx
  0009b	5d		 pop	 ebp
  0009c	c2 08 00	 ret	 8
?OnSelEndCancel@CColourPicker@@IAEJIJ@Z ENDP		; CColourPicker::OnSelEndCancel
_TEXT	ENDS
; Function compile flags: /Ogtp
; File D:\git\src\IBK\IBK_DRFN\ProjSrc\SrcChartEx\ChartAddIn\ChartDesignPropertyAddIn\ChartDesignPropertyAddIn\ColourPicker.cpp
; File C:\Program Files (x86)\Microsoft Visual Studio\2019\Community\VC\Tools\MSVC\14.29.30133\atlmfc\include\afxwin2.inl
; File D:\git\src\IBK\IBK_DRFN\ProjSrc\SrcChartEx\ChartAddIn\ChartDesignPropertyAddIn\ChartDesignPropertyAddIn\ColourPicker.cpp
; File C:\Program Files (x86)\Microsoft Visual Studio\2019\Community\VC\Tools\MSVC\14.29.30133\atlmfc\include\afxwin2.inl
; File D:\git\src\IBK\IBK_DRFN\ProjSrc\SrcChartEx\ChartAddIn\ChartDesignPropertyAddIn\ChartDesignPropertyAddIn\ColourPicker.cpp
; File C:\Program Files (x86)\Microsoft Visual Studio\2019\Community\VC\Tools\MSVC\14.29.30133\atlmfc\include\afxwin2.inl
; File D:\git\src\IBK\IBK_DRFN\ProjSrc\SrcChartEx\ChartAddIn\ChartDesignPropertyAddIn\ChartDesignPropertyAddIn\ColourPicker.cpp
; File C:\Program Files (x86)\Microsoft Visual Studio\2019\Community\VC\Tools\MSVC\14.29.30133\atlmfc\include\afxwin2.inl
; File D:\git\src\IBK\IBK_DRFN\ProjSrc\SrcChartEx\ChartAddIn\ChartDesignPropertyAddIn\ChartDesignPropertyAddIn\ColourPicker.cpp
;	COMDAT ?OnSelEndOK@CColourPicker@@IAEJIJ@Z
_TEXT	SEGMENT
_lParam$ = 8						; size = 4
___formal$ = 12						; size = 4
?OnSelEndOK@CColourPicker@@IAEJIJ@Z PROC		; CColourPicker::OnSelEndOK, COMDAT
; _this$ = ecx

; 98   : {

  00000	55		 push	 ebp
  00001	8b ec		 mov	 ebp, esp
  00003	53		 push	 ebx
  00004	56		 push	 esi
  00005	8b f1		 mov	 esi, ecx
  00007	57		 push	 edi

; 260  :     (m_nSelectionMode == CP_MODE_TEXT)? 

  00008	8b 7d 08	 mov	 edi, DWORD PTR _lParam$[ebp]
  0000b	83 be 90 00 00
	00 01		 cmp	 DWORD PTR [esi+144], 1
  00012	8b 46 20	 mov	 eax, DWORD PTR [esi+32]

; 99   : 	
; 100  :     COLORREF crNewColour = (COLORREF) lParam;
; 101  :     m_bActive = FALSE;

  00015	c7 86 80 00 00
	00 00 00 00 00	 mov	 DWORD PTR [esi+128], 0

; 260  :     (m_nSelectionMode == CP_MODE_TEXT)? 

  0001f	50		 push	 eax
  00020	75 08		 jne	 SHORT $LN8@OnSelEndOK

; 272  :     m_crColourText = crColourText;

  00022	89 be 8c 00 00
	00		 mov	 DWORD PTR [esi+140], edi

; 260  :     (m_nSelectionMode == CP_MODE_TEXT)? 

  00028	eb 06		 jmp	 SHORT $LN43@OnSelEndOK
$LN8@OnSelEndOK:

; 266  :     m_crColourBk = crColourBk;

  0002a	89 be 88 00 00
	00		 mov	 DWORD PTR [esi+136], edi
$LN43@OnSelEndOK:
; File C:\Program Files (x86)\Microsoft Visual Studio\2019\Community\VC\Tools\MSVC\14.29.30133\atlmfc\include\afxwin2.inl

; 213  : 	{ ASSERT(::IsWindow(m_hWnd)); return CWnd::FromHandle(::GetParent(m_hWnd)); }

  00030	ff 15 00 00 00
	00		 call	 DWORD PTR __imp__IsWindow@4
  00036	85 c0		 test	 eax, eax
  00038	74 12		 je	 SHORT $LN20@OnSelEndOK
  0003a	68 05 01 00 00	 push	 261			; 00000105H
  0003f	6a 00		 push	 0
  00041	6a 00		 push	 0
  00043	ff 76 20	 push	 DWORD PTR [esi+32]
  00046	ff 15 00 00 00
	00		 call	 DWORD PTR __imp__RedrawWindow@16
$LN20@OnSelEndOK:
  0004c	ff 76 20	 push	 DWORD PTR [esi+32]
  0004f	ff 15 00 00 00
	00		 call	 DWORD PTR __imp__GetParent@4
  00055	50		 push	 eax
  00056	e8 00 00 00 00	 call	 ?FromHandle@CWnd@@SGPAV1@PAUHWND__@@@Z ; CWnd::FromHandle
; File D:\git\src\IBK\IBK_DRFN\ProjSrc\SrcChartEx\ChartAddIn\ChartDesignPropertyAddIn\ChartDesignPropertyAddIn\ColourPicker.cpp

; 104  :     CWnd *pParent = GetParent();

  0005b	8b d8		 mov	 ebx, eax

; 105  :     if (pParent) 

  0005d	85 db		 test	 ebx, ebx
  0005f	74 2e		 je	 SHORT $LN2@OnSelEndOK

; 106  : 	{
; 107  :         pParent->SendMessage(CPN_CLOSEUP, lParam, (WPARAM) GetDlgCtrlID());

  00061	8b ce		 mov	 ecx, esi
  00063	e8 00 00 00 00	 call	 ?GetDlgCtrlID@CWnd@@QBEHXZ ; CWnd::GetDlgCtrlID
; File C:\Program Files (x86)\Microsoft Visual Studio\2019\Community\VC\Tools\MSVC\14.29.30133\atlmfc\include\afxwin2.inl

; 32   : 	{ ASSERT(::IsWindow(m_hWnd)); return ::SendMessage(m_hWnd, message, wParam, lParam); }

  00068	50		 push	 eax
  00069	57		 push	 edi
  0006a	68 eb 07 00 00	 push	 2027			; 000007ebH
  0006f	ff 73 20	 push	 DWORD PTR [ebx+32]
  00072	ff 15 00 00 00
	00		 call	 DWORD PTR __imp__SendMessageA@16
; File D:\git\src\IBK\IBK_DRFN\ProjSrc\SrcChartEx\ChartAddIn\ChartDesignPropertyAddIn\ChartDesignPropertyAddIn\ColourPicker.cpp

; 108  :         pParent->SendMessage(CPN_SELENDOK, lParam, (WPARAM) GetDlgCtrlID());

  00078	8b ce		 mov	 ecx, esi
  0007a	e8 00 00 00 00	 call	 ?GetDlgCtrlID@CWnd@@QBEHXZ ; CWnd::GetDlgCtrlID
; File C:\Program Files (x86)\Microsoft Visual Studio\2019\Community\VC\Tools\MSVC\14.29.30133\atlmfc\include\afxwin2.inl

; 32   : 	{ ASSERT(::IsWindow(m_hWnd)); return ::SendMessage(m_hWnd, message, wParam, lParam); }

  0007f	50		 push	 eax
  00080	57		 push	 edi
  00081	68 ec 07 00 00	 push	 2028			; 000007ecH
  00086	ff 73 20	 push	 DWORD PTR [ebx+32]
  00089	ff 15 00 00 00
	00		 call	 DWORD PTR __imp__SendMessageA@16
$LN2@OnSelEndOK:
; File D:\git\src\IBK\IBK_DRFN\ProjSrc\SrcChartEx\ChartAddIn\ChartDesignPropertyAddIn\ChartDesignPropertyAddIn\ColourPicker.cpp

; 255  :     return (m_nSelectionMode == CP_MODE_TEXT) ? GetTextColour(): GetBkColour(); 

  0008f	83 be 90 00 00
	00 01		 cmp	 DWORD PTR [esi+144], 1
  00096	75 08		 jne	 SHORT $LN36@OnSelEndOK
  00098	8b 86 8c 00 00
	00		 mov	 eax, DWORD PTR [esi+140]
  0009e	eb 06		 jmp	 SHORT $LN37@OnSelEndOK
$LN36@OnSelEndOK:
  000a0	8b 86 88 00 00
	00		 mov	 eax, DWORD PTR [esi+136]
$LN37@OnSelEndOK:

; 109  :     }
; 110  : 
; 111  :   
; 112  :     if (crNewColour != GetColour())

  000a6	3b f8		 cmp	 edi, eax
  000a8	74 1b		 je	 SHORT $LN41@OnSelEndOK

; 113  :         if (pParent) 

  000aa	85 db		 test	 ebx, ebx
  000ac	74 17		 je	 SHORT $LN41@OnSelEndOK

; 114  : 			pParent->SendMessage(CPN_SELCHANGE, lParam, (WPARAM) GetDlgCtrlID());

  000ae	8b ce		 mov	 ecx, esi
  000b0	e8 00 00 00 00	 call	 ?GetDlgCtrlID@CWnd@@QBEHXZ ; CWnd::GetDlgCtrlID
; File C:\Program Files (x86)\Microsoft Visual Studio\2019\Community\VC\Tools\MSVC\14.29.30133\atlmfc\include\afxwin2.inl

; 32   : 	{ ASSERT(::IsWindow(m_hWnd)); return ::SendMessage(m_hWnd, message, wParam, lParam); }

  000b5	50		 push	 eax
  000b6	57		 push	 edi
  000b7	68 e9 07 00 00	 push	 2025			; 000007e9H
  000bc	ff 73 20	 push	 DWORD PTR [ebx+32]
  000bf	ff 15 00 00 00
	00		 call	 DWORD PTR __imp__SendMessageA@16
$LN41@OnSelEndOK:
  000c5	5f		 pop	 edi
; File D:\git\src\IBK\IBK_DRFN\ProjSrc\SrcChartEx\ChartAddIn\ChartDesignPropertyAddIn\ChartDesignPropertyAddIn\ColourPicker.cpp

; 118  : }

  000c6	5e		 pop	 esi
  000c7	b8 01 00 00 00	 mov	 eax, 1
  000cc	5b		 pop	 ebx
  000cd	5d		 pop	 ebp
  000ce	c2 08 00	 ret	 8
?OnSelEndOK@CColourPicker@@IAEJIJ@Z ENDP		; CColourPicker::OnSelEndOK
_TEXT	ENDS
; Function compile flags: /Ogtp
; File D:\git\src\IBK\IBK_DRFN\ProjSrc\SrcChartEx\ChartAddIn\ChartDesignPropertyAddIn\ChartDesignPropertyAddIn\ColourPicker.cpp
; File C:\Program Files (x86)\Microsoft Visual Studio\2019\Community\VC\Tools\MSVC\14.29.30133\atlmfc\include\afxwin2.inl
; File D:\git\src\IBK\IBK_DRFN\ProjSrc\SrcChartEx\ChartAddIn\ChartDesignPropertyAddIn\ChartDesignPropertyAddIn\ColourPicker.cpp
;	COMDAT ?OnCreate@CColourPicker@@IAEHPAUtagCREATESTRUCTA@@@Z
_TEXT	SEGMENT
_lpCreateStruct$ = 8					; size = 4
?OnCreate@CColourPicker@@IAEHPAUtagCREATESTRUCTA@@@Z PROC ; CColourPicker::OnCreate, COMDAT
; _this$ = ecx

; 146  : {

  00000	56		 push	 esi
  00001	8b f1		 mov	 esi, ecx
; File C:\Program Files (x86)\Microsoft Visual Studio\2019\Community\VC\Tools\MSVC\14.29.30133\atlmfc\include\afxwin2.inl

; 296  : 	{ return (int)Default(); }

  00003	e8 00 00 00 00	 call	 ?Default@CWnd@@IAEJXZ	; CWnd::Default
; File D:\git\src\IBK\IBK_DRFN\ProjSrc\SrcChartEx\ChartAddIn\ChartDesignPropertyAddIn\ChartDesignPropertyAddIn\ColourPicker.cpp

; 147  :     if (CButton::OnCreate(lpCreateStruct) == -1)

  00008	83 f8 ff	 cmp	 eax, -1
  0000b	75 06		 jne	 SHORT $LN2@OnCreate

; 148  :         return -1;

  0000d	0b c0		 or	 eax, eax
  0000f	5e		 pop	 esi

; 152  : }

  00010	c2 04 00	 ret	 4
$LN2@OnCreate:

; 149  :     
; 150  :     SetWindowSize();    // resize appropriately

  00013	8b ce		 mov	 ecx, esi
  00015	e8 00 00 00 00	 call	 ?SetWindowSize@CColourPicker@@IAEXXZ ; CColourPicker::SetWindowSize

; 151  :     return 0;

  0001a	33 c0		 xor	 eax, eax
  0001c	5e		 pop	 esi

; 152  : }

  0001d	c2 04 00	 ret	 4
?OnCreate@CColourPicker@@IAEHPAUtagCREATESTRUCTA@@@Z ENDP ; CColourPicker::OnCreate
_TEXT	ENDS
; Function compile flags: /Ogtp
; File D:\git\src\IBK\IBK_DRFN\ProjSrc\SrcChartEx\ChartAddIn\ChartDesignPropertyAddIn\ChartDesignPropertyAddIn\ColourPicker.cpp
; File C:\Program Files (x86)\Microsoft Visual Studio\2019\Community\VC\Tools\MSVC\14.29.30133\atlmfc\include\afxwin2.inl
; File D:\git\src\IBK\IBK_DRFN\ProjSrc\SrcChartEx\ChartAddIn\ChartDesignPropertyAddIn\ChartDesignPropertyAddIn\ColourPicker.cpp
; File C:\Program Files (x86)\Microsoft Visual Studio\2019\Community\VC\Tools\MSVC\14.29.30133\atlmfc\include\afxwin2.inl
; File C:\Program Files (x86)\Microsoft Visual Studio\2019\Community\VC\Tools\MSVC\14.29.30133\atlmfc\include\atltypes.h
; File C:\Program Files (x86)\Microsoft Visual Studio\2019\Community\VC\Tools\MSVC\14.29.30133\atlmfc\include\afxwin2.inl
; File C:\Program Files (x86)\Microsoft Visual Studio\2019\Community\VC\Tools\MSVC\14.29.30133\atlmfc\include\afx.inl
; File D:\git\src\IBK\IBK_DRFN\ProjSrc\SrcChartEx\ChartAddIn\ChartDesignPropertyAddIn\ChartDesignPropertyAddIn\ColourPicker.cpp
; File C:\Program Files (x86)\Microsoft Visual Studio\2019\Community\VC\Tools\MSVC\14.29.30133\atlmfc\include\afx.inl
; File D:\git\src\IBK\IBK_DRFN\ProjSrc\SrcChartEx\ChartAddIn\ChartDesignPropertyAddIn\ChartDesignPropertyAddIn\ColourPicker.cpp
; File C:\Program Files (x86)\Microsoft Visual Studio\2019\Community\VC\Tools\MSVC\14.29.30133\atlmfc\include\afxwin2.inl
; File D:\git\src\IBK\IBK_DRFN\ProjSrc\SrcChartEx\ChartAddIn\ChartDesignPropertyAddIn\ChartDesignPropertyAddIn\ColourPicker.cpp
; File C:\Program Files (x86)\Microsoft Visual Studio\2019\Community\VC\Tools\MSVC\14.29.30133\atlmfc\include\afxwin2.inl
; File D:\git\src\IBK\IBK_DRFN\ProjSrc\SrcChartEx\ChartAddIn\ChartDesignPropertyAddIn\ChartDesignPropertyAddIn\ColourPicker.cpp
; File C:\Program Files (x86)\Microsoft Visual Studio\2019\Community\VC\Tools\MSVC\14.29.30133\atlmfc\include\afxwin2.inl
; File D:\git\src\IBK\IBK_DRFN\ProjSrc\SrcChartEx\ChartAddIn\ChartDesignPropertyAddIn\ChartDesignPropertyAddIn\ColourPicker.cpp
;	COMDAT ?OnClicked@CColourPicker@@IAEHXZ
_TEXT	SEGMENT
$T2 = -36						; size = 4
_rect$ = -32						; size = 16
__$ArrayPad$ = -16					; size = 4
__$EHRec$ = -12						; size = 12
?OnClicked@CColourPicker@@IAEHXZ PROC			; CColourPicker::OnClicked, COMDAT
; _this$ = ecx

; 156  : {

  00000	55		 push	 ebp
  00001	8b ec		 mov	 ebp, esp
  00003	6a ff		 push	 -1
  00005	68 00 00 00 00	 push	 __ehhandler$?OnClicked@CColourPicker@@IAEHXZ
  0000a	64 a1 00 00 00
	00		 mov	 eax, DWORD PTR fs:0
  00010	50		 push	 eax
  00011	83 ec 18	 sub	 esp, 24			; 00000018H
  00014	a1 00 00 00 00	 mov	 eax, DWORD PTR ___security_cookie
  00019	33 c5		 xor	 eax, ebp
  0001b	89 45 f0	 mov	 DWORD PTR __$ArrayPad$[ebp], eax
  0001e	53		 push	 ebx
  0001f	56		 push	 esi
  00020	57		 push	 edi
  00021	50		 push	 eax
  00022	8d 45 f4	 lea	 eax, DWORD PTR __$EHRec$[ebp]
  00025	64 a3 00 00 00
	00		 mov	 DWORD PTR fs:0, eax
  0002b	8b f1		 mov	 esi, ecx
; File C:\Program Files (x86)\Microsoft Visual Studio\2019\Community\VC\Tools\MSVC\14.29.30133\atlmfc\include\afxwin2.inl

; 84   : 	{ ASSERT(::IsWindow(m_hWnd)); ::GetWindowRect(m_hWnd, lpRect); }

  0002d	8d 45 e0	 lea	 eax, DWORD PTR _rect$[ebp]
; File D:\git\src\IBK\IBK_DRFN\ProjSrc\SrcChartEx\ChartAddIn\ChartDesignPropertyAddIn\ChartDesignPropertyAddIn\ColourPicker.cpp

; 157  :     m_bActive = TRUE;

  00030	c7 86 80 00 00
	00 01 00 00 00	 mov	 DWORD PTR [esi+128], 1
; File C:\Program Files (x86)\Microsoft Visual Studio\2019\Community\VC\Tools\MSVC\14.29.30133\atlmfc\include\afxwin2.inl

; 84   : 	{ ASSERT(::IsWindow(m_hWnd)); ::GetWindowRect(m_hWnd, lpRect); }

  0003a	50		 push	 eax
  0003b	ff 76 20	 push	 DWORD PTR [esi+32]
  0003e	0f 57 c0	 xorps	 xmm0, xmm0
; File C:\Program Files (x86)\Microsoft Visual Studio\2019\Community\VC\Tools\MSVC\14.29.30133\atlmfc\include\atltypes.h

; 528  : 	left = 0;

  00041	0f 11 45 e0	 movups	 XMMWORD PTR _rect$[ebp], xmm0
; File C:\Program Files (x86)\Microsoft Visual Studio\2019\Community\VC\Tools\MSVC\14.29.30133\atlmfc\include\afxwin2.inl

; 84   : 	{ ASSERT(::IsWindow(m_hWnd)); ::GetWindowRect(m_hWnd, lpRect); }

  00045	ff 15 00 00 00
	00		 call	 DWORD PTR __imp__GetWindowRect@8
; File C:\Program Files (x86)\Microsoft Visual Studio\2019\Community\VC\Tools\MSVC\14.29.30133\atlmfc\include\afx.inl

; 116  : 	{ return ::operator new(nSize); }

  0004b	68 98 01 00 00	 push	 408			; 00000198H
  00050	e8 00 00 00 00	 call	 ??2@YAPAXI@Z		; operator new
; File D:\git\src\IBK\IBK_DRFN\ProjSrc\SrcChartEx\ChartAddIn\ChartDesignPropertyAddIn\ChartDesignPropertyAddIn\ColourPicker.cpp

; 160  :     new CColourPopup( m_hOcxWnd, CPoint(rect.left, rect.bottom),    // Point to display popup

  00055	8b c8		 mov	 ecx, eax
; File C:\Program Files (x86)\Microsoft Visual Studio\2019\Community\VC\Tools\MSVC\14.29.30133\atlmfc\include\afx.inl

; 116  : 	{ return ::operator new(nSize); }

  00057	83 c4 04	 add	 esp, 4
; File D:\git\src\IBK\IBK_DRFN\ProjSrc\SrcChartEx\ChartAddIn\ChartDesignPropertyAddIn\ChartDesignPropertyAddIn\ColourPicker.cpp

; 160  :     new CColourPopup( m_hOcxWnd, CPoint(rect.left, rect.bottom),    // Point to display popup

  0005a	89 4d dc	 mov	 DWORD PTR $T2[ebp], ecx
  0005d	c7 45 fc 00 00
	00 00		 mov	 DWORD PTR __$EHRec$[ebp+8], 0
  00064	85 c9		 test	 ecx, ecx
  00066	74 36		 je	 SHORT $LN4@OnClicked

; 255  :     return (m_nSelectionMode == CP_MODE_TEXT) ? GetTextColour(): GetBkColour(); 

  00068	83 be 90 00 00
	00 01		 cmp	 DWORD PTR [esi+144], 1
  0006f	75 08		 jne	 SHORT $LN19@OnClicked
  00071	8b 86 8c 00 00
	00		 mov	 eax, DWORD PTR [esi+140]
  00077	eb 06		 jmp	 SHORT $LN20@OnClicked
$LN19@OnClicked:
  00079	8b 86 88 00 00
	00		 mov	 eax, DWORD PTR [esi+136]
$LN20@OnClicked:

; 160  :     new CColourPopup( m_hOcxWnd, CPoint(rect.left, rect.bottom),    // Point to display popup

  0007f	ff b6 a8 00 00
	00		 push	 DWORD PTR [esi+168]
  00085	ff b6 a4 00 00
	00		 push	 DWORD PTR [esi+164]
  0008b	56		 push	 esi
  0008c	50		 push	 eax
  0008d	ff 75 ec	 push	 DWORD PTR _rect$[ebp+12]
  00090	ff 75 e0	 push	 DWORD PTR _rect$[ebp]
  00093	ff b6 ac 00 00
	00		 push	 DWORD PTR [esi+172]
  00099	e8 00 00 00 00	 call	 ??0CColourPopup@@QAE@PAUHWND__@@VCPoint@@KPAVCWnd@@PBD3@Z ; CColourPopup::CColourPopup
$LN4@OnClicked:
; File C:\Program Files (x86)\Microsoft Visual Studio\2019\Community\VC\Tools\MSVC\14.29.30133\atlmfc\include\afxwin2.inl

; 213  : 	{ ASSERT(::IsWindow(m_hWnd)); return CWnd::FromHandle(::GetParent(m_hWnd)); }

  0009e	ff 76 20	 push	 DWORD PTR [esi+32]
; File D:\git\src\IBK\IBK_DRFN\ProjSrc\SrcChartEx\ChartAddIn\ChartDesignPropertyAddIn\ChartDesignPropertyAddIn\ColourPicker.cpp

; 160  :     new CColourPopup( m_hOcxWnd, CPoint(rect.left, rect.bottom),    // Point to display popup

  000a1	c7 45 fc ff ff
	ff ff		 mov	 DWORD PTR __$EHRec$[ebp+8], -1
; File C:\Program Files (x86)\Microsoft Visual Studio\2019\Community\VC\Tools\MSVC\14.29.30133\atlmfc\include\afxwin2.inl

; 213  : 	{ ASSERT(::IsWindow(m_hWnd)); return CWnd::FromHandle(::GetParent(m_hWnd)); }

  000a8	ff 15 00 00 00
	00		 call	 DWORD PTR __imp__GetParent@4
  000ae	50		 push	 eax
  000af	e8 00 00 00 00	 call	 ?FromHandle@CWnd@@SGPAV1@PAUHWND__@@@Z ; CWnd::FromHandle
; File D:\git\src\IBK\IBK_DRFN\ProjSrc\SrcChartEx\ChartAddIn\ChartDesignPropertyAddIn\ChartDesignPropertyAddIn\ColourPicker.cpp

; 166  :     CWnd *pParent = GetParent();

  000b4	8b d8		 mov	 ebx, eax

; 167  :     if (pParent)

  000b6	85 db		 test	 ebx, ebx
  000b8	74 2e		 je	 SHORT $LN31@OnClicked

; 255  :     return (m_nSelectionMode == CP_MODE_TEXT) ? GetTextColour(): GetBkColour(); 

  000ba	83 be 90 00 00
	00 01		 cmp	 DWORD PTR [esi+144], 1
  000c1	75 08		 jne	 SHORT $LN27@OnClicked
  000c3	8b be 8c 00 00
	00		 mov	 edi, DWORD PTR [esi+140]
  000c9	eb 06		 jmp	 SHORT $LN28@OnClicked
$LN27@OnClicked:
  000cb	8b be 88 00 00
	00		 mov	 edi, DWORD PTR [esi+136]
$LN28@OnClicked:

; 168  :         pParent->SendMessage(CPN_DROPDOWN, (LPARAM)GetColour(), (WPARAM) GetDlgCtrlID());

  000d1	8b ce		 mov	 ecx, esi
  000d3	e8 00 00 00 00	 call	 ?GetDlgCtrlID@CWnd@@QBEHXZ ; CWnd::GetDlgCtrlID
; File C:\Program Files (x86)\Microsoft Visual Studio\2019\Community\VC\Tools\MSVC\14.29.30133\atlmfc\include\afxwin2.inl

; 32   : 	{ ASSERT(::IsWindow(m_hWnd)); return ::SendMessage(m_hWnd, message, wParam, lParam); }

  000d8	50		 push	 eax
  000d9	57		 push	 edi
  000da	68 ea 07 00 00	 push	 2026			; 000007eaH
  000df	ff 73 20	 push	 DWORD PTR [ebx+32]
  000e2	ff 15 00 00 00
	00		 call	 DWORD PTR __imp__SendMessageA@16
$LN31@OnClicked:
; File D:\git\src\IBK\IBK_DRFN\ProjSrc\SrcChartEx\ChartAddIn\ChartDesignPropertyAddIn\ChartDesignPropertyAddIn\ColourPicker.cpp

; 174  : }

  000e8	b8 01 00 00 00	 mov	 eax, 1
  000ed	8b 4d f4	 mov	 ecx, DWORD PTR __$EHRec$[ebp]
  000f0	64 89 0d 00 00
	00 00		 mov	 DWORD PTR fs:0, ecx
  000f7	59		 pop	 ecx
  000f8	5f		 pop	 edi
  000f9	5e		 pop	 esi
  000fa	5b		 pop	 ebx
  000fb	8b 4d f0	 mov	 ecx, DWORD PTR __$ArrayPad$[ebp]
  000fe	33 cd		 xor	 ecx, ebp
  00100	e8 00 00 00 00	 call	 @__security_check_cookie@4
  00105	8b e5		 mov	 esp, ebp
  00107	5d		 pop	 ebp
  00108	c3		 ret	 0
_TEXT	ENDS
;	COMDAT text$x
text$x	SEGMENT
__unwindfunclet$?OnClicked@CColourPicker@@IAEHXZ$0:
  00000	8b 45 dc	 mov	 eax, DWORD PTR $T2[ebp]
  00003	50		 push	 eax
  00004	e8 00 00 00 00	 call	 ??3CObject@@SGXPAX@Z	; CObject::operator delete
  00009	c3		 ret	 0
  0000a	cc		 int	 3
  0000b	cc		 int	 3
  0000c	cc		 int	 3
  0000d	cc		 int	 3
  0000e	cc		 int	 3
__ehhandler$?OnClicked@CColourPicker@@IAEHXZ:
  0000f	90		 npad	 1
  00010	90		 npad	 1
  00011	8b 54 24 08	 mov	 edx, DWORD PTR [esp+8]
  00015	8d 42 0c	 lea	 eax, DWORD PTR [edx+12]
  00018	8b 4a d8	 mov	 ecx, DWORD PTR [edx-40]
  0001b	33 c8		 xor	 ecx, eax
  0001d	e8 00 00 00 00	 call	 @__security_check_cookie@4
  00022	8b 4a fc	 mov	 ecx, DWORD PTR [edx-4]
  00025	33 c8		 xor	 ecx, eax
  00027	e8 00 00 00 00	 call	 @__security_check_cookie@4
  0002c	b8 00 00 00 00	 mov	 eax, OFFSET __ehfuncinfo$?OnClicked@CColourPicker@@IAEHXZ
  00031	e9 00 00 00 00	 jmp	 ___CxxFrameHandler3
text$x	ENDS
?OnClicked@CColourPicker@@IAEHXZ ENDP			; CColourPicker::OnClicked
; Function compile flags: /Ogtp
; File D:\git\src\IBK\IBK_DRFN\ProjSrc\SrcChartEx\ChartAddIn\ChartDesignPropertyAddIn\ChartDesignPropertyAddIn\ColourPicker.cpp
; File C:\Program Files (x86)\Microsoft Visual Studio\2019\Community\VC\Tools\MSVC\14.29.30133\atlmfc\include\atltypes.h
; File D:\git\src\IBK\IBK_DRFN\ProjSrc\SrcChartEx\ChartAddIn\ChartDesignPropertyAddIn\ChartDesignPropertyAddIn\ColourPicker.cpp
; File C:\Program Files (x86)\Microsoft Visual Studio\2019\Community\VC\Tools\MSVC\14.29.30133\atlmfc\include\afxwin2.inl
; File D:\git\src\IBK\IBK_DRFN\ProjSrc\SrcChartEx\ChartAddIn\ChartDesignPropertyAddIn\ChartDesignPropertyAddIn\ColourPicker.cpp
; File C:\Program Files (x86)\Microsoft Visual Studio\2019\Community\VC\Tools\MSVC\14.29.30133\atlmfc\include\afxwin2.inl
; File D:\git\src\IBK\IBK_DRFN\ProjSrc\SrcChartEx\ChartAddIn\ChartDesignPropertyAddIn\ChartDesignPropertyAddIn\ColourPicker.cpp
; File C:\Program Files (x86)\Microsoft Visual Studio\2019\Community\VC\Tools\MSVC\14.29.30133\atlmfc\include\afxwin2.inl
; File C:\Program Files (x86)\Microsoft Visual Studio\2019\Community\VC\Tools\MSVC\14.29.30133\atlmfc\include\atltypes.h
; File C:\Program Files (x86)\Microsoft Visual Studio\2019\Community\VC\Tools\MSVC\14.29.30133\atlmfc\include\afxwin2.inl
; File D:\git\src\IBK\IBK_DRFN\ProjSrc\SrcChartEx\ChartAddIn\ChartDesignPropertyAddIn\ChartDesignPropertyAddIn\ColourPicker.cpp
; File C:\Program Files (x86)\Microsoft Visual Studio\2019\Community\VC\Tools\MSVC\14.29.30133\atlmfc\include\atltypes.h
; File D:\git\src\IBK\IBK_DRFN\ProjSrc\SrcChartEx\ChartAddIn\ChartDesignPropertyAddIn\ChartDesignPropertyAddIn\ColourPicker.cpp
; File C:\Program Files (x86)\Microsoft Visual Studio\2019\Community\VC\Tools\MSVC\14.29.30133\atlmfc\include\atltypes.h
; File D:\git\src\IBK\IBK_DRFN\ProjSrc\SrcChartEx\ChartAddIn\ChartDesignPropertyAddIn\ChartDesignPropertyAddIn\ColourPicker.cpp
; File C:\Program Files (x86)\Microsoft Visual Studio\2019\Community\VC\Tools\MSVC\14.29.30133\atlmfc\include\afxwin2.inl
; File D:\git\src\IBK\IBK_DRFN\ProjSrc\SrcChartEx\ChartAddIn\ChartDesignPropertyAddIn\ChartDesignPropertyAddIn\ColourPicker.cpp
; File C:\Program Files (x86)\Microsoft Visual Studio\2019\Community\VC\Tools\MSVC\14.29.30133\atlmfc\include\atltypes.h
; File D:\git\src\IBK\IBK_DRFN\ProjSrc\SrcChartEx\ChartAddIn\ChartDesignPropertyAddIn\ChartDesignPropertyAddIn\ColourPicker.cpp
; File C:\Program Files (x86)\Microsoft Visual Studio\2019\Community\VC\Tools\MSVC\14.29.30133\atlmfc\include\atltypes.h
; File D:\git\src\IBK\IBK_DRFN\ProjSrc\SrcChartEx\ChartAddIn\ChartDesignPropertyAddIn\ChartDesignPropertyAddIn\ColourPicker.cpp
; File C:\Program Files (x86)\Microsoft Visual Studio\2019\Community\VC\Tools\MSVC\14.29.30133\atlmfc\include\atltypes.h
; File D:\git\src\IBK\IBK_DRFN\ProjSrc\SrcChartEx\ChartAddIn\ChartDesignPropertyAddIn\ChartDesignPropertyAddIn\ColourPicker.cpp
; File C:\Program Files (x86)\Microsoft Visual Studio\2019\Community\VC\Tools\MSVC\14.29.30133\atlmfc\include\atltypes.h
; File D:\git\src\IBK\IBK_DRFN\ProjSrc\SrcChartEx\ChartAddIn\ChartDesignPropertyAddIn\ChartDesignPropertyAddIn\ColourPicker.cpp
; File C:\Program Files (x86)\Microsoft Visual Studio\2019\Community\VC\Tools\MSVC\14.29.30133\atlmfc\include\atltypes.h
; File D:\git\src\IBK\IBK_DRFN\ProjSrc\SrcChartEx\ChartAddIn\ChartDesignPropertyAddIn\ChartDesignPropertyAddIn\ColourPicker.cpp
; File C:\Program Files (x86)\Microsoft Visual Studio\2019\Community\VC\Tools\MSVC\14.29.30133\atlmfc\include\atltypes.h
; File D:\git\src\IBK\IBK_DRFN\ProjSrc\SrcChartEx\ChartAddIn\ChartDesignPropertyAddIn\ChartDesignPropertyAddIn\ColourPicker.cpp
;	COMDAT ?SetWindowSize@CColourPicker@@IAEXXZ
_TEXT	SEGMENT
_MarginSize$$sroa$304$1$ = -32				; size = 4
_initCY$1$ = -28					; size = 4
_this$GSCopy$1$ = -24					; size = 4
_rect$ = -20						; size = 16
__$ArrayPad$ = -4					; size = 4
?SetWindowSize@CColourPicker@@IAEXXZ PROC		; CColourPicker::SetWindowSize, COMDAT
; _this$ = ecx

; 290  : {

  00000	55		 push	 ebp
  00001	8b ec		 mov	 ebp, esp
  00003	83 ec 20	 sub	 esp, 32			; 00000020H
  00006	a1 00 00 00 00	 mov	 eax, DWORD PTR ___security_cookie
  0000b	33 c5		 xor	 eax, ebp
  0000d	89 45 fc	 mov	 DWORD PTR __$ArrayPad$[ebp], eax
  00010	53		 push	 ebx
  00011	56		 push	 esi

; 291  :     // Get size dimensions of edges
; 292  :     CSize MarginSize(::GetSystemMetrics(SM_CXEDGE), ::GetSystemMetrics(SM_CYEDGE));

  00012	8b 35 00 00 00
	00		 mov	 esi, DWORD PTR __imp__GetSystemMetrics@4
  00018	57		 push	 edi
  00019	6a 2e		 push	 46			; 0000002eH
  0001b	89 4d e8	 mov	 DWORD PTR _this$GSCopy$1$[ebp], ecx
  0001e	ff d6		 call	 esi
  00020	8b f8		 mov	 edi, eax
  00022	6a 2d		 push	 45			; 0000002dH
  00024	89 7d e4	 mov	 DWORD PTR _initCY$1$[ebp], edi
  00027	ff d6		 call	 esi

; 295  :     int nArrowWidth = max(::GetSystemMetrics(SM_CXHTHUMB), 5*MarginSize.cx);

  00029	6a 0a		 push	 10			; 0000000aH
; File C:\Program Files (x86)\Microsoft Visual Studio\2019\Community\VC\Tools\MSVC\14.29.30133\atlmfc\include\atltypes.h

; 312  : 	cx = initCX;

  0002b	89 45 e0	 mov	 DWORD PTR _MarginSize$$sroa$304$1$[ebp], eax
; File D:\git\src\IBK\IBK_DRFN\ProjSrc\SrcChartEx\ChartAddIn\ChartDesignPropertyAddIn\ChartDesignPropertyAddIn\ColourPicker.cpp

; 295  :     int nArrowWidth = max(::GetSystemMetrics(SM_CXHTHUMB), 5*MarginSize.cx);

  0002e	8d 1c 80	 lea	 ebx, DWORD PTR [eax+eax*4]
  00031	ff d6		 call	 esi
  00033	3b c3		 cmp	 eax, ebx
  00035	7e 06		 jle	 SHORT $LN4@SetWindowS
  00037	6a 0a		 push	 10			; 0000000aH
  00039	ff d6		 call	 esi
  0003b	8b d8		 mov	 ebx, eax
$LN4@SetWindowS:

; 296  :     int nArrowHeight = max(::GetSystemMetrics(SM_CYVTHUMB), 5*MarginSize.cy);

  0003d	6a 09		 push	 9
  0003f	8d 3c bf	 lea	 edi, DWORD PTR [edi+edi*4]
  00042	ff d6		 call	 esi
  00044	3b c7		 cmp	 eax, edi
  00046	7e 06		 jle	 SHORT $LN6@SetWindowS
  00048	6a 09		 push	 9
  0004a	ff d6		 call	 esi
  0004c	8b f8		 mov	 edi, eax
$LN6@SetWindowS:
; File C:\Program Files (x86)\Microsoft Visual Studio\2019\Community\VC\Tools\MSVC\14.29.30133\atlmfc\include\afxwin2.inl

; 84   : 	{ ASSERT(::IsWindow(m_hWnd)); ::GetWindowRect(m_hWnd, lpRect); }

  0004e	8b 35 00 00 00
	00		 mov	 esi, DWORD PTR __imp__GetWindowRect@8
  00054	8d 45 ec	 lea	 eax, DWORD PTR _rect$[ebp]
; File D:\git\src\IBK\IBK_DRFN\ProjSrc\SrcChartEx\ChartAddIn\ChartDesignPropertyAddIn\ChartDesignPropertyAddIn\ColourPicker.cpp

; 297  :     CSize ArrowSize(max(nArrowWidth, nArrowHeight), max(nArrowWidth, nArrowHeight));

  00057	3b df		 cmp	 ebx, edi
  00059	0f 57 c0	 xorps	 xmm0, xmm0
; File C:\Program Files (x86)\Microsoft Visual Studio\2019\Community\VC\Tools\MSVC\14.29.30133\atlmfc\include\afxwin2.inl

; 84   : 	{ ASSERT(::IsWindow(m_hWnd)); ::GetWindowRect(m_hWnd, lpRect); }

  0005c	50		 push	 eax
; File D:\git\src\IBK\IBK_DRFN\ProjSrc\SrcChartEx\ChartAddIn\ChartDesignPropertyAddIn\ChartDesignPropertyAddIn\ColourPicker.cpp

; 297  :     CSize ArrowSize(max(nArrowWidth, nArrowHeight), max(nArrowWidth, nArrowHeight));

  0005d	0f 4f fb	 cmovg	 edi, ebx
; File C:\Program Files (x86)\Microsoft Visual Studio\2019\Community\VC\Tools\MSVC\14.29.30133\atlmfc\include\afxwin2.inl

; 84   : 	{ ASSERT(::IsWindow(m_hWnd)); ::GetWindowRect(m_hWnd, lpRect); }

  00060	8b 5d e8	 mov	 ebx, DWORD PTR _this$GSCopy$1$[ebp]
; File C:\Program Files (x86)\Microsoft Visual Studio\2019\Community\VC\Tools\MSVC\14.29.30133\atlmfc\include\atltypes.h

; 528  : 	left = 0;

  00063	0f 11 45 ec	 movups	 XMMWORD PTR _rect$[ebp], xmm0
; File C:\Program Files (x86)\Microsoft Visual Studio\2019\Community\VC\Tools\MSVC\14.29.30133\atlmfc\include\afxwin2.inl

; 84   : 	{ ASSERT(::IsWindow(m_hWnd)); ::GetWindowRect(m_hWnd, lpRect); }

  00067	ff 73 20	 push	 DWORD PTR [ebx+32]
  0006a	ff d6		 call	 esi

; 213  : 	{ ASSERT(::IsWindow(m_hWnd)); return CWnd::FromHandle(::GetParent(m_hWnd)); }

  0006c	ff 73 20	 push	 DWORD PTR [ebx+32]
  0006f	ff 15 00 00 00
	00		 call	 DWORD PTR __imp__GetParent@4
  00075	50		 push	 eax
  00076	e8 00 00 00 00	 call	 ?FromHandle@CWnd@@SGPAV1@PAUHWND__@@@Z ; CWnd::FromHandle
; File D:\git\src\IBK\IBK_DRFN\ProjSrc\SrcChartEx\ChartAddIn\ChartDesignPropertyAddIn\ChartDesignPropertyAddIn\ColourPicker.cpp

; 304  :     if (pParent)

  0007b	85 c0		 test	 eax, eax
  0007d	74 0b		 je	 SHORT $LN2@SetWindowS

; 305  :         pParent->ScreenToClient(rect);

  0007f	8d 4d ec	 lea	 ecx, DWORD PTR _rect$[ebp]
  00082	51		 push	 ecx
  00083	8b c8		 mov	 ecx, eax
  00085	e8 00 00 00 00	 call	 ?ScreenToClient@CWnd@@QBEXPAUtagRECT@@@Z ; CWnd::ScreenToClient
$LN2@SetWindowS:
; File C:\Program Files (x86)\Microsoft Visual Studio\2019\Community\VC\Tools\MSVC\14.29.30133\atlmfc\include\atltypes.h

; 581  : 	return bottom - top;

  0008a	8b 45 f8	 mov	 eax, DWORD PTR _rect$[ebp+12]
  0008d	8b 55 f0	 mov	 edx, DWORD PTR _rect$[ebp+4]
  00090	2b c2		 sub	 eax, edx

; 576  : 	return right - left;

  00092	8b 4d ec	 mov	 ecx, DWORD PTR _rect$[ebp]
; File D:\git\src\IBK\IBK_DRFN\ProjSrc\SrcChartEx\ChartAddIn\ChartDesignPropertyAddIn\ChartDesignPropertyAddIn\ColourPicker.cpp

; 311  : 	MoveWindow(rect.left, rect.top, rect.Width(), rect.Height(),TRUE);//ArrowSize.cy+2*MarginSize.cy, TRUE);

  00095	6a 01		 push	 1
  00097	50		 push	 eax
; File C:\Program Files (x86)\Microsoft Visual Studio\2019\Community\VC\Tools\MSVC\14.29.30133\atlmfc\include\atltypes.h

; 576  : 	return right - left;

  00098	8b 45 f4	 mov	 eax, DWORD PTR _rect$[ebp+8]
  0009b	2b c1		 sub	 eax, ecx
; File D:\git\src\IBK\IBK_DRFN\ProjSrc\SrcChartEx\ChartAddIn\ChartDesignPropertyAddIn\ChartDesignPropertyAddIn\ColourPicker.cpp

; 311  : 	MoveWindow(rect.left, rect.top, rect.Width(), rect.Height(),TRUE);//ArrowSize.cy+2*MarginSize.cy, TRUE);

  0009d	50		 push	 eax
  0009e	52		 push	 edx
  0009f	51		 push	 ecx
  000a0	8b cb		 mov	 ecx, ebx
  000a2	e8 00 00 00 00	 call	 ?MoveWindow@CWnd@@QAEXHHHHH@Z ; CWnd::MoveWindow
; File C:\Program Files (x86)\Microsoft Visual Studio\2019\Community\VC\Tools\MSVC\14.29.30133\atlmfc\include\afxwin2.inl

; 84   : 	{ ASSERT(::IsWindow(m_hWnd)); ::GetWindowRect(m_hWnd, lpRect); }

  000a7	8d 45 ec	 lea	 eax, DWORD PTR _rect$[ebp]
  000aa	50		 push	 eax
  000ab	ff 73 20	 push	 DWORD PTR [ebx+32]
  000ae	ff d6		 call	 esi
; File D:\git\src\IBK\IBK_DRFN\ProjSrc\SrcChartEx\ChartAddIn\ChartDesignPropertyAddIn\ChartDesignPropertyAddIn\ColourPicker.cpp

; 314  :     ScreenToClient(rect);

  000b0	8d 45 ec	 lea	 eax, DWORD PTR _rect$[ebp]
  000b3	8b cb		 mov	 ecx, ebx
  000b5	50		 push	 eax
  000b6	e8 00 00 00 00	 call	 ?ScreenToClient@CWnd@@QBEXPAUtagRECT@@@Z ; CWnd::ScreenToClient

; 317  :     m_ArrowRect.SetRect(rect.right - ArrowSize.cx - MarginSize.cx, 

  000bb	8b 45 f8	 mov	 eax, DWORD PTR _rect$[ebp+12]
  000be	2b 45 e4	 sub	 eax, DWORD PTR _initCY$1$[ebp]
  000c1	8b 4d f4	 mov	 ecx, DWORD PTR _rect$[ebp+8]
; File C:\Program Files (x86)\Microsoft Visual Studio\2019\Community\VC\Tools\MSVC\14.29.30133\atlmfc\include\atltypes.h

; 657  : 	::SetRect(this, x1, y1, x2, y2);

  000c4	50		 push	 eax
; File D:\git\src\IBK\IBK_DRFN\ProjSrc\SrcChartEx\ChartAddIn\ChartDesignPropertyAddIn\ChartDesignPropertyAddIn\ColourPicker.cpp

; 317  :     m_ArrowRect.SetRect(rect.right - ArrowSize.cx - MarginSize.cx, 

  000c5	8b c1		 mov	 eax, ecx
  000c7	2b cf		 sub	 ecx, edi
  000c9	2b 45 e0	 sub	 eax, DWORD PTR _MarginSize$$sroa$304$1$[ebp]
  000cc	2b 4d e0	 sub	 ecx, DWORD PTR _MarginSize$$sroa$304$1$[ebp]
; File C:\Program Files (x86)\Microsoft Visual Studio\2019\Community\VC\Tools\MSVC\14.29.30133\atlmfc\include\atltypes.h

; 657  : 	::SetRect(this, x1, y1, x2, y2);

  000cf	50		 push	 eax
; File D:\git\src\IBK\IBK_DRFN\ProjSrc\SrcChartEx\ChartAddIn\ChartDesignPropertyAddIn\ChartDesignPropertyAddIn\ColourPicker.cpp

; 317  :     m_ArrowRect.SetRect(rect.right - ArrowSize.cx - MarginSize.cx, 

  000d0	8b 45 f0	 mov	 eax, DWORD PTR _rect$[ebp+4]
  000d3	03 45 e4	 add	 eax, DWORD PTR _initCY$1$[ebp]
; File C:\Program Files (x86)\Microsoft Visual Studio\2019\Community\VC\Tools\MSVC\14.29.30133\atlmfc\include\atltypes.h

; 657  : 	::SetRect(this, x1, y1, x2, y2);

  000d6	50		 push	 eax
  000d7	51		 push	 ecx
; File D:\git\src\IBK\IBK_DRFN\ProjSrc\SrcChartEx\ChartAddIn\ChartDesignPropertyAddIn\ChartDesignPropertyAddIn\ColourPicker.cpp

; 317  :     m_ArrowRect.SetRect(rect.right - ArrowSize.cx - MarginSize.cx, 

  000d8	8d 83 94 00 00
	00		 lea	 eax, DWORD PTR [ebx+148]
; File C:\Program Files (x86)\Microsoft Visual Studio\2019\Community\VC\Tools\MSVC\14.29.30133\atlmfc\include\atltypes.h

; 657  : 	::SetRect(this, x1, y1, x2, y2);

  000de	50		 push	 eax
  000df	ff 15 00 00 00
	00		 call	 DWORD PTR __imp__SetRect@20
; File D:\git\src\IBK\IBK_DRFN\ProjSrc\SrcChartEx\ChartAddIn\ChartDesignPropertyAddIn\ChartDesignPropertyAddIn\ColourPicker.cpp

; 320  : }

  000e5	8b 4d fc	 mov	 ecx, DWORD PTR __$ArrayPad$[ebp]
; File C:\Program Files (x86)\Microsoft Visual Studio\2019\Community\VC\Tools\MSVC\14.29.30133\atlmfc\include\atltypes.h

; 657  : 	::SetRect(this, x1, y1, x2, y2);

  000e8	5f		 pop	 edi
  000e9	5e		 pop	 esi
; File D:\git\src\IBK\IBK_DRFN\ProjSrc\SrcChartEx\ChartAddIn\ChartDesignPropertyAddIn\ChartDesignPropertyAddIn\ColourPicker.cpp

; 320  : }

  000ea	33 cd		 xor	 ecx, ebp
; File C:\Program Files (x86)\Microsoft Visual Studio\2019\Community\VC\Tools\MSVC\14.29.30133\atlmfc\include\atltypes.h

; 657  : 	::SetRect(this, x1, y1, x2, y2);

  000ec	5b		 pop	 ebx
; File D:\git\src\IBK\IBK_DRFN\ProjSrc\SrcChartEx\ChartAddIn\ChartDesignPropertyAddIn\ChartDesignPropertyAddIn\ColourPicker.cpp

; 320  : }

  000ed	e8 00 00 00 00	 call	 @__security_check_cookie@4
  000f2	8b e5		 mov	 esp, ebp
  000f4	5d		 pop	 ebp
  000f5	c3		 ret	 0
?SetWindowSize@CColourPicker@@IAEXXZ ENDP		; CColourPicker::SetWindowSize
_TEXT	ENDS
; Function compile flags: /Ogtp
; File D:\git\src\IBK\IBK_DRFN\ProjSrc\SrcChartEx\ChartAddIn\ChartDesignPropertyAddIn\ChartDesignPropertyAddIn\ColourPicker.cpp
;	COMDAT ??1CColourPicker@@UAE@XZ
_TEXT	SEGMENT
??1CColourPicker@@UAE@XZ PROC				; CColourPicker::~CColourPicker, COMDAT
; _this$ = ecx

; 79   : {

  00000	56		 push	 esi
  00001	8b f1		 mov	 esi, ecx

; 80   : }

  00003	8d 8e a8 00 00
	00		 lea	 ecx, DWORD PTR [esi+168]
  00009	c7 06 00 00 00
	00		 mov	 DWORD PTR [esi], OFFSET ??_7CColourPicker@@6B@
  0000f	ff 15 00 00 00
	00		 call	 DWORD PTR __imp_??1?$CStringT@DV?$StrTraitMFC_DLL@DV?$ChTraitsCRT@D@ATL@@@@@ATL@@QAE@XZ
  00015	8d 8e a4 00 00
	00		 lea	 ecx, DWORD PTR [esi+164]
  0001b	ff 15 00 00 00
	00		 call	 DWORD PTR __imp_??1?$CStringT@DV?$StrTraitMFC_DLL@DV?$ChTraitsCRT@D@ATL@@@@@ATL@@QAE@XZ
  00021	8b ce		 mov	 ecx, esi
  00023	5e		 pop	 esi
  00024	e9 00 00 00 00	 jmp	 ??1CButton@@UAE@XZ	; CButton::~CButton
??1CColourPicker@@UAE@XZ ENDP				; CColourPicker::~CColourPicker
_TEXT	ENDS
; Function compile flags: /Ogtp
; File D:\git\src\IBK\IBK_DRFN\ProjSrc\SrcChartEx\ChartAddIn\ChartDesignPropertyAddIn\ChartDesignPropertyAddIn\ColourPicker.cpp
;	COMDAT ?PreSubclassWindow@CColourPicker@@MAEXXZ
_TEXT	SEGMENT
?PreSubclassWindow@CColourPicker@@MAEXXZ PROC		; CColourPicker::PreSubclassWindow, COMDAT
; _this$ = ecx

; 244  : {

  00000	56		 push	 esi

; 245  :     ModifyStyle(0, BS_OWNERDRAW);        // Make it owner drawn

  00001	6a 00		 push	 0
  00003	6a 0b		 push	 11			; 0000000bH
  00005	6a 00		 push	 0
  00007	8b f1		 mov	 esi, ecx
  00009	e8 00 00 00 00	 call	 ?ModifyStyle@CWnd@@QAEHKKI@Z ; CWnd::ModifyStyle

; 246  :     CButton::PreSubclassWindow();

  0000e	8b ce		 mov	 ecx, esi
  00010	e8 00 00 00 00	 call	 ?PreSubclassWindow@CWnd@@UAEXXZ ; CWnd::PreSubclassWindow

; 247  :     SetWindowSize();                     // resize appropriately

  00015	8b ce		 mov	 ecx, esi
  00017	5e		 pop	 esi
  00018	e9 00 00 00 00	 jmp	 ?SetWindowSize@CColourPicker@@IAEXXZ ; CColourPicker::SetWindowSize
?PreSubclassWindow@CColourPicker@@MAEXXZ ENDP		; CColourPicker::PreSubclassWindow
_TEXT	ENDS
; Function compile flags: /Ogtp
; File D:\git\src\IBK\IBK_DRFN\ProjSrc\SrcChartEx\ChartAddIn\ChartDesignPropertyAddIn\ChartDesignPropertyAddIn\ColourPicker.cpp
; File C:\Program Files (x86)\Microsoft Visual Studio\2019\Community\VC\Tools\MSVC\14.29.30133\atlmfc\include\atltypes.h
; File D:\git\src\IBK\IBK_DRFN\ProjSrc\SrcChartEx\ChartAddIn\ChartDesignPropertyAddIn\ChartDesignPropertyAddIn\ColourPicker.cpp
; File C:\Program Files (x86)\Microsoft Visual Studio\2019\Community\VC\Tools\MSVC\14.29.30133\atlmfc\include\atltypes.h
; File C:\Program Files (x86)\Microsoft Visual Studio\2019\Community\VC\Tools\MSVC\14.29.30133\atlmfc\include\afxwin1.inl
; File C:\Program Files (x86)\Microsoft Visual Studio\2019\Community\VC\Tools\MSVC\14.29.30133\atlmfc\include\atltypes.h
; File D:\git\src\IBK\IBK_DRFN\ProjSrc\SrcChartEx\ChartAddIn\ChartDesignPropertyAddIn\ChartDesignPropertyAddIn\ColourPicker.cpp
; File C:\Program Files (x86)\Microsoft Visual Studio\2019\Community\VC\Tools\MSVC\14.29.30133\atlmfc\include\afxwin1.inl
; File D:\git\src\IBK\IBK_DRFN\ProjSrc\SrcChartEx\ChartAddIn\ChartDesignPropertyAddIn\ChartDesignPropertyAddIn\ColourPicker.cpp
; File C:\Program Files (x86)\Microsoft Visual Studio\2019\Community\VC\Tools\MSVC\14.29.30133\atlmfc\include\atltypes.h
; File D:\git\src\IBK\IBK_DRFN\ProjSrc\SrcChartEx\ChartAddIn\ChartDesignPropertyAddIn\ChartDesignPropertyAddIn\ColourPicker.cpp
; File C:\Program Files (x86)\Microsoft Visual Studio\2019\Community\VC\Tools\MSVC\14.29.30133\atlmfc\include\afxwin1.inl
; File C:\Program Files (x86)\Microsoft Visual Studio\2019\Community\VC\Tools\MSVC\14.29.30133\atlmfc\include\atltypes.h
; File D:\git\src\IBK\IBK_DRFN\ProjSrc\SrcChartEx\ChartAddIn\ChartDesignPropertyAddIn\ChartDesignPropertyAddIn\ColourPicker.cpp
; File C:\Program Files (x86)\Microsoft Visual Studio\2019\Community\VC\Tools\MSVC\14.29.30133\atlmfc\include\atltypes.h
; File C:\Program Files (x86)\Microsoft Visual Studio\2019\Community\VC\Tools\MSVC\14.29.30133\atlmfc\include\afxwin1.inl
; File D:\git\src\IBK\IBK_DRFN\ProjSrc\SrcChartEx\ChartAddIn\ChartDesignPropertyAddIn\ChartDesignPropertyAddIn\ColourPicker.cpp
;	COMDAT ?DrawItem@CColourPicker@@UAEXPAUtagDRAWITEMSTRUCT@@@Z
_TEXT	SEGMENT
_brush$ = -60						; size = 8
tv420 = -52						; size = 4
tv425 = -48						; size = 4
_pDC$1$ = -44						; size = 4
_this$GSCopy$1$ = -40					; size = 4
_m_strText$ = -36					; size = 4
_rect$ = -32						; size = 16
__$ArrayPad$ = -16					; size = 4
__$EHRec$ = -12						; size = 12
_lpDrawItemStruct$ = 8					; size = 4
?DrawItem@CColourPicker@@UAEXPAUtagDRAWITEMSTRUCT@@@Z PROC ; CColourPicker::DrawItem, COMDAT
; _this$ = ecx

; 177  : {

  00000	55		 push	 ebp
  00001	8b ec		 mov	 ebp, esp
  00003	6a ff		 push	 -1
  00005	68 00 00 00 00	 push	 __ehhandler$?DrawItem@CColourPicker@@UAEXPAUtagDRAWITEMSTRUCT@@@Z
  0000a	64 a1 00 00 00
	00		 mov	 eax, DWORD PTR fs:0
  00010	50		 push	 eax
  00011	83 ec 30	 sub	 esp, 48			; 00000030H
  00014	a1 00 00 00 00	 mov	 eax, DWORD PTR ___security_cookie
  00019	33 c5		 xor	 eax, ebp
  0001b	89 45 f0	 mov	 DWORD PTR __$ArrayPad$[ebp], eax
  0001e	53		 push	 ebx
  0001f	56		 push	 esi
  00020	57		 push	 edi
  00021	50		 push	 eax
  00022	8d 45 f4	 lea	 eax, DWORD PTR __$EHRec$[ebp]
  00025	64 a3 00 00 00
	00		 mov	 DWORD PTR fs:0, eax
  0002b	89 4d d8	 mov	 DWORD PTR _this$GSCopy$1$[ebp], ecx
  0002e	8b 75 08	 mov	 esi, DWORD PTR _lpDrawItemStruct$[ebp]

; 178  : 	ASSERT(lpDrawItemStruct);
; 179  :     
; 180  :     CDC*    pDC     = CDC::FromHandle(lpDrawItemStruct->hDC);

  00031	ff 76 18	 push	 DWORD PTR [esi+24]
  00034	e8 00 00 00 00	 call	 ?FromHandle@CDC@@SGPAV1@PAUHDC__@@@Z ; CDC::FromHandle

; 181  :     CRect   rect    = lpDrawItemStruct->rcItem;

  00039	8d 56 1c	 lea	 edx, DWORD PTR [esi+28]
  0003c	89 45 d4	 mov	 DWORD PTR _pDC$1$[ebp], eax
; File C:\Program Files (x86)\Microsoft Visual Studio\2019\Community\VC\Tools\MSVC\14.29.30133\atlmfc\include\atltypes.h

; 548  : 	::CopyRect(this, &srcRect);

  0003f	52		 push	 edx
  00040	8d 45 e0	 lea	 eax, DWORD PTR _rect$[ebp]
  00043	50		 push	 eax
  00044	ff 15 00 00 00
	00		 call	 DWORD PTR __imp__CopyRect@8
; File D:\git\src\IBK\IBK_DRFN\ProjSrc\SrcChartEx\ChartAddIn\ChartDesignPropertyAddIn\ChartDesignPropertyAddIn\ColourPicker.cpp

; 182  :     UINT    state   = lpDrawItemStruct->itemState;

  0004a	8b 7e 10	 mov	 edi, DWORD PTR [esi+16]

; 183  :     CString m_strText;

  0004d	8d 4d dc	 lea	 ecx, DWORD PTR _m_strText$[ebp]
  00050	ff 15 00 00 00
	00		 call	 DWORD PTR __imp_??0?$CStringT@DV?$StrTraitMFC_DLL@DV?$ChTraitsCRT@D@ATL@@@@@ATL@@QAE@XZ

; 184  : 
; 185  :     CSize Margins(::GetSystemMetrics(SM_CXEDGE), ::GetSystemMetrics(SM_CYEDGE));

  00056	8b 35 00 00 00
	00		 mov	 esi, DWORD PTR __imp__GetSystemMetrics@4
  0005c	6a 2e		 push	 46			; 0000002eH
  0005e	c7 45 fc 00 00
	00 00		 mov	 DWORD PTR __$EHRec$[ebp+8], 0
  00065	ff d6		 call	 esi
  00067	6a 2d		 push	 45			; 0000002dH
  00069	8b d8		 mov	 ebx, eax
  0006b	ff d6		 call	 esi
; File C:\Program Files (x86)\Microsoft Visual Studio\2019\Community\VC\Tools\MSVC\14.29.30133\atlmfc\include\atltypes.h

; 312  : 	cx = initCX;

  0006d	8b f0		 mov	 esi, eax
; File C:\Program Files (x86)\Microsoft Visual Studio\2019\Community\VC\Tools\MSVC\14.29.30133\atlmfc\include\afxwin1.inl

; 510  : 	{ ASSERT(m_hDC != NULL); return ::DrawEdge(m_hDC, lpRect, nEdge, nFlags); }

  0006f	8b cf		 mov	 ecx, edi
  00071	8b 45 d8	 mov	 eax, DWORD PTR _this$GSCopy$1$[ebp]
  00074	83 c9 01	 or	 ecx, 1
  00077	6a 0f		 push	 15			; 0000000fH
  00079	6a 06		 push	 6
  0007b	83 b8 80 00 00
	00 00		 cmp	 DWORD PTR [eax+128], 0
  00082	8d 45 e0	 lea	 eax, DWORD PTR _rect$[ebp]
  00085	50		 push	 eax
  00086	8b 45 d4	 mov	 eax, DWORD PTR _pDC$1$[ebp]
  00089	0f 44 cf	 cmove	 ecx, edi
  0008c	89 4d d0	 mov	 DWORD PTR tv425[ebp], ecx
  0008f	ff 70 04	 push	 DWORD PTR [eax+4]
  00092	ff 15 00 00 00
	00		 call	 DWORD PTR __imp__DrawEdge@16
  00098	f7 db		 neg	 ebx
; File C:\Program Files (x86)\Microsoft Visual Studio\2019\Community\VC\Tools\MSVC\14.29.30133\atlmfc\include\atltypes.h

; 698  : 	::InflateRect(this, -x, -y);

  0009a	8d 45 e0	 lea	 eax, DWORD PTR _rect$[ebp]
  0009d	53		 push	 ebx
  0009e	f7 de		 neg	 esi
  000a0	56		 push	 esi
  000a1	50		 push	 eax
  000a2	ff 15 00 00 00
	00		 call	 DWORD PTR __imp__InflateRect@12
; File D:\git\src\IBK\IBK_DRFN\ProjSrc\SrcChartEx\ChartAddIn\ChartDesignPropertyAddIn\ChartDesignPropertyAddIn\ColourPicker.cpp

; 202  :     CBrush brush( ((state & ODS_DISABLED) || m_crColourBk == CLR_DEFAULT) ? 

  000a8	8b 45 d0	 mov	 eax, DWORD PTR tv425[ebp]
  000ab	8b 7d d8	 mov	 edi, DWORD PTR _this$GSCopy$1$[ebp]
  000ae	83 e0 04	 and	 eax, 4
  000b1	89 45 cc	 mov	 DWORD PTR tv420[ebp], eax
  000b4	75 0d		 jne	 SHORT $LN62@DrawItem
  000b6	8b 87 88 00 00
	00		 mov	 eax, DWORD PTR [edi+136]
  000bc	3d 00 00 00 ff	 cmp	 eax, -16777216		; ff000000H
  000c1	75 08		 jne	 SHORT $LN9@DrawItem
$LN62@DrawItem:
  000c3	6a 0f		 push	 15			; 0000000fH
  000c5	ff 15 00 00 00
	00		 call	 DWORD PTR __imp__GetSysColor@4
$LN9@DrawItem:
  000cb	50		 push	 eax
  000cc	8d 4d c4	 lea	 ecx, DWORD PTR _brush$[ebp]
  000cf	e8 00 00 00 00	 call	 ??0CBrush@@QAE@K@Z	; CBrush::CBrush

; 203  :                   ::GetSysColor(COLOR_3DFACE) : m_crColourBk);
; 204  :     CBrush* pOldBrush = (CBrush*) pDC->SelectObject(&brush);

  000d4	8b 5d d4	 mov	 ebx, DWORD PTR _pDC$1$[ebp]
  000d7	8d 45 c4	 lea	 eax, DWORD PTR _brush$[ebp]
  000da	50		 push	 eax
  000db	8b cb		 mov	 ecx, ebx
  000dd	c6 45 fc 01	 mov	 BYTE PTR __$EHRec$[ebp+8], 1
  000e1	e8 00 00 00 00	 call	 ?SelectObject@CDC@@QAEPAVCBrush@@PAV2@@Z ; CDC::SelectObject

; 205  : 	pDC->SelectStockObject(NULL_PEN);

  000e6	8b 13		 mov	 edx, DWORD PTR [ebx]
  000e8	8b cb		 mov	 ecx, ebx
  000ea	6a 08		 push	 8
  000ec	8b f0		 mov	 esi, eax
  000ee	ff 52 2c	 call	 DWORD PTR [edx+44]
; File C:\Program Files (x86)\Microsoft Visual Studio\2019\Community\VC\Tools\MSVC\14.29.30133\atlmfc\include\afxwin1.inl

; 541  : 	{ ASSERT(m_hDC != NULL); return ::Rectangle(m_hDC, lpRect->left, lpRect->top,

  000f1	ff 75 ec	 push	 DWORD PTR _rect$[ebp+12]
  000f4	ff 75 e8	 push	 DWORD PTR _rect$[ebp+8]
  000f7	ff 75 e4	 push	 DWORD PTR _rect$[ebp+4]
  000fa	ff 75 e0	 push	 DWORD PTR _rect$[ebp]
  000fd	ff 73 04	 push	 DWORD PTR [ebx+4]
  00100	ff 15 00 00 00
	00		 call	 DWORD PTR __imp__Rectangle@20
; File D:\git\src\IBK\IBK_DRFN\ProjSrc\SrcChartEx\ChartAddIn\ChartDesignPropertyAddIn\ChartDesignPropertyAddIn\ColourPicker.cpp

; 207  :     pDC->SelectObject(pOldBrush);

  00106	56		 push	 esi
  00107	8b cb		 mov	 ecx, ebx
  00109	e8 00 00 00 00	 call	 ?SelectObject@CDC@@QAEPAVCBrush@@PAV2@@Z ; CDC::SelectObject

; 208  : 
; 209  :     // Draw the window text (if any)
; 210  :     GetWindowText(m_strText);

  0010e	8d 45 dc	 lea	 eax, DWORD PTR _m_strText$[ebp]
  00111	8b cf		 mov	 ecx, edi
  00113	50		 push	 eax
  00114	e8 00 00 00 00	 call	 ?GetWindowTextA@CWnd@@QBEXAAV?$CStringT@DV?$StrTraitMFC_DLL@DV?$ChTraitsCRT@D@ATL@@@@@ATL@@@Z ; CWnd::GetWindowTextA

; 211  :     if (m_strText.GetLength())

  00119	8b 45 dc	 mov	 eax, DWORD PTR _m_strText$[ebp]
  0011c	83 78 f4 00	 cmp	 DWORD PTR [eax-12], 0
  00120	0f 84 86 00 00
	00		 je	 $LN5@DrawItem

; 212  :     {
; 213  :         pDC->SetBkMode(TRANSPARENT);

  00126	6a 01		 push	 1
  00128	8b cb		 mov	 ecx, ebx
  0012a	e8 00 00 00 00	 call	 ?SetBkMode@CDC@@QAEHH@Z	; CDC::SetBkMode

; 214  :         if (state & ODS_DISABLED)

  0012f	83 7d cc 00	 cmp	 DWORD PTR tv420[ebp], 0
  00133	74 50		 je	 SHORT $LN4@DrawItem
; File C:\Program Files (x86)\Microsoft Visual Studio\2019\Community\VC\Tools\MSVC\14.29.30133\atlmfc\include\atltypes.h

; 710  : 	::OffsetRect(this, x, y);

  00135	8b 3d 00 00 00
	00		 mov	 edi, DWORD PTR __imp__OffsetRect@12
  0013b	8d 45 e0	 lea	 eax, DWORD PTR _rect$[ebp]
  0013e	6a 01		 push	 1
  00140	6a 01		 push	 1
  00142	50		 push	 eax
  00143	ff d7		 call	 edi
; File D:\git\src\IBK\IBK_DRFN\ProjSrc\SrcChartEx\ChartAddIn\ChartDesignPropertyAddIn\ChartDesignPropertyAddIn\ColourPicker.cpp

; 217  :             pDC->SetTextColor(::GetSysColor(COLOR_3DHILIGHT));

  00145	8b 33		 mov	 esi, DWORD PTR [ebx]
  00147	6a 14		 push	 20			; 00000014H
  00149	ff 15 00 00 00
	00		 call	 DWORD PTR __imp__GetSysColor@4
  0014f	50		 push	 eax
  00150	8b cb		 mov	 ecx, ebx
  00152	ff 56 38	 call	 DWORD PTR [esi+56]
; File C:\Program Files (x86)\Microsoft Visual Studio\2019\Community\VC\Tools\MSVC\14.29.30133\atlmfc\include\afxwin1.inl

; 600  : 		return _AFX_FUNCNAME(DrawText)((LPCTSTR)str, (int)str.GetLength(), lpRect, nFormat); }

  00155	8b 13		 mov	 edx, DWORD PTR [ebx]
  00157	8d 45 e0	 lea	 eax, DWORD PTR _rect$[ebp]
  0015a	6a 25		 push	 37			; 00000025H
  0015c	50		 push	 eax
  0015d	8b 45 dc	 mov	 eax, DWORD PTR _m_strText$[ebp]
  00160	8b cb		 mov	 ecx, ebx
  00162	ff 70 f4	 push	 DWORD PTR [eax-12]
  00165	50		 push	 eax
  00166	ff 52 70	 call	 DWORD PTR [edx+112]
; File C:\Program Files (x86)\Microsoft Visual Studio\2019\Community\VC\Tools\MSVC\14.29.30133\atlmfc\include\atltypes.h

; 710  : 	::OffsetRect(this, x, y);

  00169	6a ff		 push	 -1
  0016b	6a ff		 push	 -1
  0016d	8d 45 e0	 lea	 eax, DWORD PTR _rect$[ebp]
  00170	50		 push	 eax
  00171	ff d7		 call	 edi
; File D:\git\src\IBK\IBK_DRFN\ProjSrc\SrcChartEx\ChartAddIn\ChartDesignPropertyAddIn\ChartDesignPropertyAddIn\ColourPicker.cpp

; 220  :             pDC->SetTextColor(::GetSysColor(COLOR_3DSHADOW));

  00173	8b 33		 mov	 esi, DWORD PTR [ebx]
  00175	6a 10		 push	 16			; 00000010H
  00177	ff 15 00 00 00
	00		 call	 DWORD PTR __imp__GetSysColor@4
  0017d	50		 push	 eax
  0017e	8b cb		 mov	 ecx, ebx
  00180	ff 56 38	 call	 DWORD PTR [esi+56]

; 221  :             pDC->DrawText(m_strText, rect, DT_CENTER|DT_SINGLELINE|DT_VCENTER);
; 222  :         }

  00183	eb 13		 jmp	 SHORT $LN65@DrawItem
$LN4@DrawItem:

; 223  :         else
; 224  :         {
; 225  : //            pDC->SetTextColor((m_crColourText == CLR_DEFAULT)? 0 : m_crColourText);
; 226  : 			pDC->SetTextColor(0xFFFFFF - m_crColourBk);

  00185	8b 13		 mov	 edx, DWORD PTR [ebx]
  00187	b8 ff ff ff 00	 mov	 eax, 16777215		; 00ffffffH
  0018c	2b 87 88 00 00
	00		 sub	 eax, DWORD PTR [edi+136]
  00192	8b cb		 mov	 ecx, ebx
  00194	50		 push	 eax
  00195	ff 52 38	 call	 DWORD PTR [edx+56]
$LN65@DrawItem:

; 227  :             pDC->DrawText(m_strText, rect, DT_CENTER|DT_SINGLELINE|DT_VCENTER);
; 228  :         }
; 229  :     }
; 230  : 
; 231  :     // Draw focus rect
; 232  :     if (state & ODS_FOCUS) 

  00198	8b 13		 mov	 edx, DWORD PTR [ebx]
  0019a	8d 45 e0	 lea	 eax, DWORD PTR _rect$[ebp]
  0019d	6a 25		 push	 37			; 00000025H
  0019f	50		 push	 eax
  001a0	8b 45 dc	 mov	 eax, DWORD PTR _m_strText$[ebp]
  001a3	8b cb		 mov	 ecx, ebx
  001a5	ff 70 f4	 push	 DWORD PTR [eax-12]
  001a8	50		 push	 eax
  001a9	ff 52 70	 call	 DWORD PTR [edx+112]
$LN5@DrawItem:
  001ac	f6 45 d0 10	 test	 BYTE PTR tv425[ebp], 16	; 00000010H
  001b0	74 1b		 je	 SHORT $LN6@DrawItem
; File C:\Program Files (x86)\Microsoft Visual Studio\2019\Community\VC\Tools\MSVC\14.29.30133\atlmfc\include\atltypes.h

; 698  : 	::InflateRect(this, -x, -y);

  001b2	6a ff		 push	 -1
  001b4	6a ff		 push	 -1
  001b6	8d 45 e0	 lea	 eax, DWORD PTR _rect$[ebp]
  001b9	50		 push	 eax
  001ba	ff 15 00 00 00
	00		 call	 DWORD PTR __imp__InflateRect@12
; File C:\Program Files (x86)\Microsoft Visual Studio\2019\Community\VC\Tools\MSVC\14.29.30133\atlmfc\include\afxwin1.inl

; 522  : 	{ ASSERT(m_hDC != NULL); ::DrawFocusRect(m_hDC, lpRect); }

  001c0	8d 45 e0	 lea	 eax, DWORD PTR _rect$[ebp]
  001c3	50		 push	 eax
  001c4	ff 73 04	 push	 DWORD PTR [ebx+4]
  001c7	ff 15 00 00 00
	00		 call	 DWORD PTR __imp__DrawFocusRect@8
$LN6@DrawItem:

; 130  : 	{ }

  001cd	8d 4d c4	 lea	 ecx, DWORD PTR _brush$[ebp]
  001d0	c7 45 c4 00 00
	00 00		 mov	 DWORD PTR _brush$[ebp], OFFSET ??_7CBrush@@6B@
  001d7	e8 00 00 00 00	 call	 ??1CGdiObject@@UAE@XZ	; CGdiObject::~CGdiObject
; File D:\git\src\IBK\IBK_DRFN\ProjSrc\SrcChartEx\ChartAddIn\ChartDesignPropertyAddIn\ChartDesignPropertyAddIn\ColourPicker.cpp

; 238  : }

  001dc	8d 4d dc	 lea	 ecx, DWORD PTR _m_strText$[ebp]
  001df	ff 15 00 00 00
	00		 call	 DWORD PTR __imp_??1?$CStringT@DV?$StrTraitMFC_DLL@DV?$ChTraitsCRT@D@ATL@@@@@ATL@@QAE@XZ
  001e5	8b 4d f4	 mov	 ecx, DWORD PTR __$EHRec$[ebp]
  001e8	64 89 0d 00 00
	00 00		 mov	 DWORD PTR fs:0, ecx
  001ef	59		 pop	 ecx
  001f0	5f		 pop	 edi
  001f1	5e		 pop	 esi
  001f2	5b		 pop	 ebx
  001f3	8b 4d f0	 mov	 ecx, DWORD PTR __$ArrayPad$[ebp]
  001f6	33 cd		 xor	 ecx, ebp
  001f8	e8 00 00 00 00	 call	 @__security_check_cookie@4
  001fd	8b e5		 mov	 esp, ebp
  001ff	5d		 pop	 ebp
  00200	c2 04 00	 ret	 4
_TEXT	ENDS
;	COMDAT text$x
text$x	SEGMENT
__unwindfunclet$?DrawItem@CColourPicker@@UAEXPAUtagDRAWITEMSTRUCT@@@Z$0:
  00000	8d 4d dc	 lea	 ecx, DWORD PTR _m_strText$[ebp]
  00003	ff 25 00 00 00
	00		 jmp	 DWORD PTR __imp_??1?$CStringT@DV?$StrTraitMFC_DLL@DV?$ChTraitsCRT@D@ATL@@@@@ATL@@QAE@XZ
__unwindfunclet$?DrawItem@CColourPicker@@UAEXPAUtagDRAWITEMSTRUCT@@@Z$1:
  00009	8d 4d c4	 lea	 ecx, DWORD PTR _brush$[ebp]
  0000c	e9 00 00 00 00	 jmp	 ??1CBrush@@UAE@XZ	; CBrush::~CBrush
  00011	cc		 int	 3
  00012	cc		 int	 3
  00013	cc		 int	 3
  00014	cc		 int	 3
  00015	cc		 int	 3
__ehhandler$?DrawItem@CColourPicker@@UAEXPAUtagDRAWITEMSTRUCT@@@Z:
  00016	90		 npad	 1
  00017	90		 npad	 1
  00018	8b 54 24 08	 mov	 edx, DWORD PTR [esp+8]
  0001c	8d 42 0c	 lea	 eax, DWORD PTR [edx+12]
  0001f	8b 4a c0	 mov	 ecx, DWORD PTR [edx-64]
  00022	33 c8		 xor	 ecx, eax
  00024	e8 00 00 00 00	 call	 @__security_check_cookie@4
  00029	8b 4a fc	 mov	 ecx, DWORD PTR [edx-4]
  0002c	33 c8		 xor	 ecx, eax
  0002e	e8 00 00 00 00	 call	 @__security_check_cookie@4
  00033	b8 00 00 00 00	 mov	 eax, OFFSET __ehfuncinfo$?DrawItem@CColourPicker@@UAEXPAUtagDRAWITEMSTRUCT@@@Z
  00038	e9 00 00 00 00	 jmp	 ___CxxFrameHandler3
text$x	ENDS
?DrawItem@CColourPicker@@UAEXPAUtagDRAWITEMSTRUCT@@@Z ENDP ; CColourPicker::DrawItem
; Function compile flags: /Ogtp
; File D:\git\src\IBK\IBK_DRFN\ProjSrc\SrcChartEx\ChartAddIn\ChartDesignPropertyAddIn\ChartDesignPropertyAddIn\ColourPicker.cpp
; File C:\Program Files (x86)\Microsoft Visual Studio\2019\Community\VC\Tools\MSVC\14.29.30133\atlmfc\include\atlsimpstr.h
; File D:\git\src\IBK\IBK_DRFN\ProjSrc\SrcChartEx\ChartAddIn\ChartDesignPropertyAddIn\ChartDesignPropertyAddIn\ColourPicker.cpp
; File C:\Program Files (x86)\Microsoft Visual Studio\2019\Community\VC\Tools\MSVC\14.29.30133\atlmfc\include\atlsimpstr.h
; File D:\git\src\IBK\IBK_DRFN\ProjSrc\SrcChartEx\ChartAddIn\ChartDesignPropertyAddIn\ChartDesignPropertyAddIn\ColourPicker.cpp
;	COMDAT ?InitColorPicker@CColourPicker@@QAEXK@Z
_TEXT	SEGMENT
$T2 = -20						; size = 4
$T3 = -16						; size = 4
__$EHRec$ = -12						; size = 12
_color$ = 8						; size = 4
?InitColorPicker@CColourPicker@@QAEXK@Z PROC		; CColourPicker::InitColorPicker, COMDAT
; _this$ = ecx

; 323  : {

  00000	55		 push	 ebp
  00001	8b ec		 mov	 ebp, esp
  00003	6a ff		 push	 -1
  00005	68 00 00 00 00	 push	 __ehhandler$?InitColorPicker@CColourPicker@@QAEXK@Z
  0000a	64 a1 00 00 00
	00		 mov	 eax, DWORD PTR fs:0
  00010	50		 push	 eax
  00011	83 ec 08	 sub	 esp, 8
  00014	56		 push	 esi
  00015	57		 push	 edi
  00016	a1 00 00 00 00	 mov	 eax, DWORD PTR ___security_cookie
  0001b	33 c5		 xor	 eax, ebp
  0001d	50		 push	 eax
  0001e	8d 45 f4	 lea	 eax, DWORD PTR __$EHRec$[ebp]
  00021	64 a3 00 00 00
	00		 mov	 DWORD PTR fs:0, eax
  00027	8b f9		 mov	 edi, ecx

; 324  : 	SetSelectionMode(CP_MODE_BK);
; 325  : 	SetDefaultText(CString(""));

  00029	68 00 00 00 00	 push	 OFFSET ??_C@_00CNPNBAHC@@
  0002e	8d 4d f0	 lea	 ecx, DWORD PTR $T3[ebp]
  00031	c7 87 90 00 00
	00 02 00 00 00	 mov	 DWORD PTR [edi+144], 2
  0003b	ff 15 00 00 00
	00		 call	 DWORD PTR __imp_??0?$CStringT@DV?$StrTraitMFC_DLL@DV?$ChTraitsCRT@D@ATL@@@@@ATL@@QAE@PBD@Z
; File C:\Program Files (x86)\Microsoft Visual Studio\2019\Community\VC\Tools\MSVC\14.29.30133\atlmfc\include\atlsimpstr.h

; 377  : 		return( m_pszData );

  00041	8b 08		 mov	 ecx, DWORD PTR [eax]
; File D:\git\src\IBK\IBK_DRFN\ProjSrc\SrcChartEx\ChartAddIn\ChartDesignPropertyAddIn\ChartDesignPropertyAddIn\ColourPicker.cpp

; 278  :     m_strDefaultText = (szDefaultText)? szDefaultText : _T("");

  00043	be 00 00 00 00	 mov	 esi, OFFSET ??_C@_00CNPNBAHC@@
  00048	85 c9		 test	 ecx, ecx

; 324  : 	SetSelectionMode(CP_MODE_BK);
; 325  : 	SetDefaultText(CString(""));

  0004a	c7 45 fc 00 00
	00 00		 mov	 DWORD PTR __$EHRec$[ebp+8], 0

; 278  :     m_strDefaultText = (szDefaultText)? szDefaultText : _T("");

  00051	8b c6		 mov	 eax, esi
  00053	0f 45 c1	 cmovne	 eax, ecx
  00056	8d 8f a4 00 00
	00		 lea	 ecx, DWORD PTR [edi+164]
  0005c	50		 push	 eax
  0005d	ff 15 00 00 00
	00		 call	 DWORD PTR __imp_??4?$CStringT@DV?$StrTraitMFC_DLL@DV?$ChTraitsCRT@D@ATL@@@@@ATL@@QAEAAV01@PBD@Z

; 324  : 	SetSelectionMode(CP_MODE_BK);
; 325  : 	SetDefaultText(CString(""));

  00063	8d 4d f0	 lea	 ecx, DWORD PTR $T3[ebp]
  00066	c7 45 fc ff ff
	ff ff		 mov	 DWORD PTR __$EHRec$[ebp+8], -1
  0006d	ff 15 00 00 00
	00		 call	 DWORD PTR __imp_??1?$CStringT@DV?$StrTraitMFC_DLL@DV?$ChTraitsCRT@D@ATL@@@@@ATL@@QAE@XZ

; 326  : 	SetCustomText(CString("ETC..."));

  00073	68 00 00 00 00	 push	 OFFSET ??_C@_06IFNFKIOM@ETC?4?4?4@
  00078	8d 4d ec	 lea	 ecx, DWORD PTR $T2[ebp]
  0007b	ff 15 00 00 00
	00		 call	 DWORD PTR __imp_??0?$CStringT@DV?$StrTraitMFC_DLL@DV?$ChTraitsCRT@D@ATL@@@@@ATL@@QAE@PBD@Z
; File C:\Program Files (x86)\Microsoft Visual Studio\2019\Community\VC\Tools\MSVC\14.29.30133\atlmfc\include\atlsimpstr.h

; 377  : 		return( m_pszData );

  00081	8b 00		 mov	 eax, DWORD PTR [eax]
; File D:\git\src\IBK\IBK_DRFN\ProjSrc\SrcChartEx\ChartAddIn\ChartDesignPropertyAddIn\ChartDesignPropertyAddIn\ColourPicker.cpp

; 283  :     m_strCustomText = (szCustomText)? szCustomText : _T("");

  00083	8d 8f a8 00 00
	00		 lea	 ecx, DWORD PTR [edi+168]
  00089	85 c0		 test	 eax, eax

; 326  : 	SetCustomText(CString("ETC..."));

  0008b	c7 45 fc 01 00
	00 00		 mov	 DWORD PTR __$EHRec$[ebp+8], 1

; 283  :     m_strCustomText = (szCustomText)? szCustomText : _T("");

  00092	0f 45 f0	 cmovne	 esi, eax
  00095	56		 push	 esi
  00096	ff 15 00 00 00
	00		 call	 DWORD PTR __imp_??4?$CStringT@DV?$StrTraitMFC_DLL@DV?$ChTraitsCRT@D@ATL@@@@@ATL@@QAEAAV01@PBD@Z

; 326  : 	SetCustomText(CString("ETC..."));

  0009c	8d 4d ec	 lea	 ecx, DWORD PTR $T2[ebp]
  0009f	ff 15 00 00 00
	00		 call	 DWORD PTR __imp_??1?$CStringT@DV?$StrTraitMFC_DLL@DV?$ChTraitsCRT@D@ATL@@@@@ATL@@QAE@XZ

; 260  :     (m_nSelectionMode == CP_MODE_TEXT)? 

  000a5	83 bf 90 00 00
	00 01		 cmp	 DWORD PTR [edi+144], 1
  000ac	8b 4f 20	 mov	 ecx, DWORD PTR [edi+32]
  000af	8b 45 08	 mov	 eax, DWORD PTR _color$[ebp]
  000b2	51		 push	 ecx
  000b3	75 08		 jne	 SHORT $LN15@InitColorP

; 272  :     m_crColourText = crColourText;

  000b5	89 87 8c 00 00
	00		 mov	 DWORD PTR [edi+140], eax

; 260  :     (m_nSelectionMode == CP_MODE_TEXT)? 

  000bb	eb 06		 jmp	 SHORT $LN37@InitColorP
$LN15@InitColorP:

; 266  :     m_crColourBk = crColourBk;

  000bd	89 87 88 00 00
	00		 mov	 DWORD PTR [edi+136], eax
$LN37@InitColorP:

; 327  : 	SetColour(color);	
; 328  : }

  000c3	ff 15 00 00 00
	00		 call	 DWORD PTR __imp__IsWindow@4
  000c9	85 c0		 test	 eax, eax
  000cb	74 12		 je	 SHORT $LN27@InitColorP
  000cd	68 05 01 00 00	 push	 261			; 00000105H
  000d2	6a 00		 push	 0
  000d4	6a 00		 push	 0
  000d6	ff 77 20	 push	 DWORD PTR [edi+32]
  000d9	ff 15 00 00 00
	00		 call	 DWORD PTR __imp__RedrawWindow@16
$LN27@InitColorP:
  000df	8b 4d f4	 mov	 ecx, DWORD PTR __$EHRec$[ebp]
  000e2	64 89 0d 00 00
	00 00		 mov	 DWORD PTR fs:0, ecx
  000e9	59		 pop	 ecx
  000ea	5f		 pop	 edi
  000eb	5e		 pop	 esi
  000ec	8b e5		 mov	 esp, ebp
  000ee	5d		 pop	 ebp
  000ef	c2 04 00	 ret	 4
_TEXT	ENDS
;	COMDAT text$x
text$x	SEGMENT
__unwindfunclet$?InitColorPicker@CColourPicker@@QAEXK@Z$0:
  00000	8d 4d f0	 lea	 ecx, DWORD PTR $T3[ebp]
  00003	ff 25 00 00 00
	00		 jmp	 DWORD PTR __imp_??1?$CStringT@DV?$StrTraitMFC_DLL@DV?$ChTraitsCRT@D@ATL@@@@@ATL@@QAE@XZ
__unwindfunclet$?InitColorPicker@CColourPicker@@QAEXK@Z$1:
  00009	8d 4d ec	 lea	 ecx, DWORD PTR $T2[ebp]
  0000c	ff 25 00 00 00
	00		 jmp	 DWORD PTR __imp_??1?$CStringT@DV?$StrTraitMFC_DLL@DV?$ChTraitsCRT@D@ATL@@@@@ATL@@QAE@XZ
  00012	cc		 int	 3
  00013	cc		 int	 3
  00014	cc		 int	 3
  00015	cc		 int	 3
  00016	cc		 int	 3
__ehhandler$?InitColorPicker@CColourPicker@@QAEXK@Z:
  00017	90		 npad	 1
  00018	90		 npad	 1
  00019	8b 54 24 08	 mov	 edx, DWORD PTR [esp+8]
  0001d	8d 42 0c	 lea	 eax, DWORD PTR [edx+12]
  00020	8b 4a ec	 mov	 ecx, DWORD PTR [edx-20]
  00023	33 c8		 xor	 ecx, eax
  00025	e8 00 00 00 00	 call	 @__security_check_cookie@4
  0002a	b8 00 00 00 00	 mov	 eax, OFFSET __ehfuncinfo$?InitColorPicker@CColourPicker@@QAEXK@Z
  0002f	e9 00 00 00 00	 jmp	 ___CxxFrameHandler3
text$x	ENDS
?InitColorPicker@CColourPicker@@QAEXK@Z ENDP		; CColourPicker::InitColorPicker
; Function compile flags: /Ogtp
; File D:\git\src\IBK\IBK_DRFN\ProjSrc\SrcChartEx\ChartAddIn\ChartDesignPropertyAddIn\ChartDesignPropertyAddIn\ColourPicker.cpp
; File C:\Program Files (x86)\Microsoft Visual Studio\2019\Community\VC\Tools\MSVC\14.29.30133\atlmfc\include\afxwin2.inl
; File D:\git\src\IBK\IBK_DRFN\ProjSrc\SrcChartEx\ChartAddIn\ChartDesignPropertyAddIn\ChartDesignPropertyAddIn\ColourPicker.cpp
;	COMDAT ?SetTextColour@CColourPicker@@QAEXK@Z
_TEXT	SEGMENT
_crColourText$ = 8					; size = 4
?SetTextColour@CColourPicker@@QAEXK@Z PROC		; CColourPicker::SetTextColour, COMDAT
; _this$ = ecx

; 271  : {

  00000	55		 push	 ebp
  00001	8b ec		 mov	 ebp, esp

; 272  :     m_crColourText = crColourText;

  00003	8b 45 08	 mov	 eax, DWORD PTR _crColourText$[ebp]
  00006	56		 push	 esi
  00007	8b f1		 mov	 esi, ecx

; 273  :     if (IsWindow(m_hWnd)) RedrawWindow();

  00009	ff 76 20	 push	 DWORD PTR [esi+32]
  0000c	89 86 8c 00 00
	00		 mov	 DWORD PTR [esi+140], eax
  00012	ff 15 00 00 00
	00		 call	 DWORD PTR __imp__IsWindow@4
  00018	85 c0		 test	 eax, eax
  0001a	74 12		 je	 SHORT $LN2@SetTextCol
; File C:\Program Files (x86)\Microsoft Visual Studio\2019\Community\VC\Tools\MSVC\14.29.30133\atlmfc\include\afxwin2.inl

; 142  : 	{ ASSERT(::IsWindow(m_hWnd)); return ::RedrawWindow(m_hWnd, lpRectUpdate, (HRGN)prgnUpdate->GetSafeHandle(), flags); }

  0001c	68 05 01 00 00	 push	 261			; 00000105H
  00021	6a 00		 push	 0
  00023	6a 00		 push	 0
  00025	ff 76 20	 push	 DWORD PTR [esi+32]
  00028	ff 15 00 00 00
	00		 call	 DWORD PTR __imp__RedrawWindow@16
$LN2@SetTextCol:
  0002e	5e		 pop	 esi
; File D:\git\src\IBK\IBK_DRFN\ProjSrc\SrcChartEx\ChartAddIn\ChartDesignPropertyAddIn\ChartDesignPropertyAddIn\ColourPicker.cpp

; 274  : }

  0002f	5d		 pop	 ebp
  00030	c2 04 00	 ret	 4
?SetTextColour@CColourPicker@@QAEXK@Z ENDP		; CColourPicker::SetTextColour
_TEXT	ENDS
; Function compile flags: /Ogtp
; File D:\git\src\IBK\IBK_DRFN\ProjSrc\SrcChartEx\ChartAddIn\ChartDesignPropertyAddIn\ChartDesignPropertyAddIn\ColourPicker.cpp
; File C:\Program Files (x86)\Microsoft Visual Studio\2019\Community\VC\Tools\MSVC\14.29.30133\atlmfc\include\afxwin2.inl
; File D:\git\src\IBK\IBK_DRFN\ProjSrc\SrcChartEx\ChartAddIn\ChartDesignPropertyAddIn\ChartDesignPropertyAddIn\ColourPicker.cpp
;	COMDAT ?SetBkColour@CColourPicker@@QAEXK@Z
_TEXT	SEGMENT
_crColourBk$ = 8					; size = 4
?SetBkColour@CColourPicker@@QAEXK@Z PROC		; CColourPicker::SetBkColour, COMDAT
; _this$ = ecx

; 265  : {

  00000	55		 push	 ebp
  00001	8b ec		 mov	 ebp, esp

; 266  :     m_crColourBk = crColourBk;

  00003	8b 45 08	 mov	 eax, DWORD PTR _crColourBk$[ebp]
  00006	56		 push	 esi
  00007	8b f1		 mov	 esi, ecx

; 267  :     if (IsWindow(m_hWnd)) RedrawWindow();

  00009	ff 76 20	 push	 DWORD PTR [esi+32]
  0000c	89 86 88 00 00
	00		 mov	 DWORD PTR [esi+136], eax
  00012	ff 15 00 00 00
	00		 call	 DWORD PTR __imp__IsWindow@4
  00018	85 c0		 test	 eax, eax
  0001a	74 12		 je	 SHORT $LN2@SetBkColou
; File C:\Program Files (x86)\Microsoft Visual Studio\2019\Community\VC\Tools\MSVC\14.29.30133\atlmfc\include\afxwin2.inl

; 142  : 	{ ASSERT(::IsWindow(m_hWnd)); return ::RedrawWindow(m_hWnd, lpRectUpdate, (HRGN)prgnUpdate->GetSafeHandle(), flags); }

  0001c	68 05 01 00 00	 push	 261			; 00000105H
  00021	6a 00		 push	 0
  00023	6a 00		 push	 0
  00025	ff 76 20	 push	 DWORD PTR [esi+32]
  00028	ff 15 00 00 00
	00		 call	 DWORD PTR __imp__RedrawWindow@16
$LN2@SetBkColou:
  0002e	5e		 pop	 esi
; File D:\git\src\IBK\IBK_DRFN\ProjSrc\SrcChartEx\ChartAddIn\ChartDesignPropertyAddIn\ChartDesignPropertyAddIn\ColourPicker.cpp

; 268  : }

  0002f	5d		 pop	 ebp
  00030	c2 04 00	 ret	 4
?SetBkColour@CColourPicker@@QAEXK@Z ENDP		; CColourPicker::SetBkColour
_TEXT	ENDS
; Function compile flags: /Ogtp
; File D:\git\src\IBK\IBK_DRFN\ProjSrc\SrcChartEx\ChartAddIn\ChartDesignPropertyAddIn\ChartDesignPropertyAddIn\ColourPicker.cpp
;	COMDAT ?SetCustomText@CColourPicker@@QAEXPBD@Z
_TEXT	SEGMENT
_szCustomText$ = 8					; size = 4
?SetCustomText@CColourPicker@@QAEXPBD@Z PROC		; CColourPicker::SetCustomText, COMDAT
; _this$ = ecx

; 282  : {

  00000	55		 push	 ebp
  00001	8b ec		 mov	 ebp, esp

; 283  :     m_strCustomText = (szCustomText)? szCustomText : _T("");

  00003	8b 45 08	 mov	 eax, DWORD PTR _szCustomText$[ebp]
  00006	ba 00 00 00 00	 mov	 edx, OFFSET ??_C@_00CNPNBAHC@@
  0000b	85 c0		 test	 eax, eax
  0000d	0f 45 d0	 cmovne	 edx, eax
  00010	89 55 08	 mov	 DWORD PTR _szCustomText$[ebp], edx
  00013	81 c1 a8 00 00
	00		 add	 ecx, 168		; 000000a8H

; 284  : }

  00019	5d		 pop	 ebp

; 283  :     m_strCustomText = (szCustomText)? szCustomText : _T("");

  0001a	ff 25 00 00 00
	00		 jmp	 DWORD PTR __imp_??4?$CStringT@DV?$StrTraitMFC_DLL@DV?$ChTraitsCRT@D@ATL@@@@@ATL@@QAEAAV01@PBD@Z
?SetCustomText@CColourPicker@@QAEXPBD@Z ENDP		; CColourPicker::SetCustomText
_TEXT	ENDS
; Function compile flags: /Ogtp
; File D:\git\src\IBK\IBK_DRFN\ProjSrc\SrcChartEx\ChartAddIn\ChartDesignPropertyAddIn\ChartDesignPropertyAddIn\ColourPicker.cpp
;	COMDAT ?SetDefaultText@CColourPicker@@QAEXPBD@Z
_TEXT	SEGMENT
_szDefaultText$ = 8					; size = 4
?SetDefaultText@CColourPicker@@QAEXPBD@Z PROC		; CColourPicker::SetDefaultText, COMDAT
; _this$ = ecx

; 277  : {

  00000	55		 push	 ebp
  00001	8b ec		 mov	 ebp, esp

; 278  :     m_strDefaultText = (szDefaultText)? szDefaultText : _T("");

  00003	8b 45 08	 mov	 eax, DWORD PTR _szDefaultText$[ebp]
  00006	ba 00 00 00 00	 mov	 edx, OFFSET ??_C@_00CNPNBAHC@@
  0000b	85 c0		 test	 eax, eax
  0000d	0f 45 d0	 cmovne	 edx, eax
  00010	89 55 08	 mov	 DWORD PTR _szDefaultText$[ebp], edx
  00013	81 c1 a4 00 00
	00		 add	 ecx, 164		; 000000a4H

; 279  : }

  00019	5d		 pop	 ebp

; 278  :     m_strDefaultText = (szDefaultText)? szDefaultText : _T("");

  0001a	ff 25 00 00 00
	00		 jmp	 DWORD PTR __imp_??4?$CStringT@DV?$StrTraitMFC_DLL@DV?$ChTraitsCRT@D@ATL@@@@@ATL@@QAEAAV01@PBD@Z
?SetDefaultText@CColourPicker@@QAEXPBD@Z ENDP		; CColourPicker::SetDefaultText
_TEXT	ENDS
; Function compile flags: /Ogtp
; File D:\git\src\IBK\IBK_DRFN\ProjSrc\SrcChartEx\ChartAddIn\ChartDesignPropertyAddIn\ChartDesignPropertyAddIn\ColourPicker.cpp
;	COMDAT ?SetColour@CColourPicker@@QAEXK@Z
_TEXT	SEGMENT
_crColour$ = 8						; size = 4
?SetColour@CColourPicker@@QAEXK@Z PROC			; CColourPicker::SetColour, COMDAT
; _this$ = ecx

; 259  : { 

  00000	55		 push	 ebp
  00001	8b ec		 mov	 ebp, esp

; 260  :     (m_nSelectionMode == CP_MODE_TEXT)? 

  00003	8b 45 08	 mov	 eax, DWORD PTR _crColour$[ebp]
  00006	56		 push	 esi
  00007	8b f1		 mov	 esi, ecx
  00009	83 be 90 00 00
	00 01		 cmp	 DWORD PTR [esi+144], 1
  00010	8b 4e 20	 mov	 ecx, DWORD PTR [esi+32]
  00013	51		 push	 ecx
  00014	75 08		 jne	 SHORT $LN3@SetColour

; 272  :     m_crColourText = crColourText;

  00016	89 86 8c 00 00
	00		 mov	 DWORD PTR [esi+140], eax

; 260  :     (m_nSelectionMode == CP_MODE_TEXT)? 

  0001c	eb 06		 jmp	 SHORT $LN24@SetColour
$LN3@SetColour:

; 266  :     m_crColourBk = crColourBk;

  0001e	89 86 88 00 00
	00		 mov	 DWORD PTR [esi+136], eax
$LN24@SetColour:

; 261  :         SetTextColour(crColour): SetBkColour(crColour); 
; 262  : }

  00024	ff 15 00 00 00
	00		 call	 DWORD PTR __imp__IsWindow@4
  0002a	85 c0		 test	 eax, eax
  0002c	74 12		 je	 SHORT $LN15@SetColour
  0002e	68 05 01 00 00	 push	 261			; 00000105H
  00033	6a 00		 push	 0
  00035	6a 00		 push	 0
  00037	ff 76 20	 push	 DWORD PTR [esi+32]
  0003a	ff 15 00 00 00
	00		 call	 DWORD PTR __imp__RedrawWindow@16
$LN15@SetColour:
  00040	5e		 pop	 esi
  00041	5d		 pop	 ebp
  00042	c2 04 00	 ret	 4
?SetColour@CColourPicker@@QAEXK@Z ENDP			; CColourPicker::SetColour
_TEXT	ENDS
; Function compile flags: /Ogtp
; File D:\git\src\IBK\IBK_DRFN\ProjSrc\SrcChartEx\ChartAddIn\ChartDesignPropertyAddIn\ChartDesignPropertyAddIn\ColourPicker.cpp
;	COMDAT ?GetColour@CColourPicker@@QAEKXZ
_TEXT	SEGMENT
?GetColour@CColourPicker@@QAEKXZ PROC			; CColourPicker::GetColour, COMDAT
; _this$ = ecx

; 255  :     return (m_nSelectionMode == CP_MODE_TEXT) ? GetTextColour(): GetBkColour(); 

  00000	83 b9 90 00 00
	00 01		 cmp	 DWORD PTR [ecx+144], 1
  00007	75 07		 jne	 SHORT $LN3@GetColour
  00009	8b 81 8c 00 00
	00		 mov	 eax, DWORD PTR [ecx+140]

; 256  : }

  0000f	c3		 ret	 0
$LN3@GetColour:

; 255  :     return (m_nSelectionMode == CP_MODE_TEXT) ? GetTextColour(): GetBkColour(); 

  00010	8b 81 88 00 00
	00		 mov	 eax, DWORD PTR [ecx+136]

; 256  : }

  00016	c3		 ret	 0
?GetColour@CColourPicker@@QAEKXZ ENDP			; CColourPicker::GetColour
_TEXT	ENDS
; Function compile flags: /Ogtp
; File D:\git\src\IBK\IBK_DRFN\ProjSrc\SrcChartEx\ChartAddIn\ChartDesignPropertyAddIn\ChartDesignPropertyAddIn\ColourPicker.cpp
; File C:\Program Files (x86)\Microsoft Visual Studio\2019\Community\VC\Tools\MSVC\14.29.30133\atlmfc\include\afx.inl
; File D:\git\src\IBK\IBK_DRFN\ProjSrc\SrcChartEx\ChartAddIn\ChartDesignPropertyAddIn\ChartDesignPropertyAddIn\ColourPicker.cpp
; File C:\Program Files (x86)\Microsoft Visual Studio\2019\Community\VC\Tools\MSVC\14.29.30133\atlmfc\include\afx.inl
; File D:\git\src\IBK\IBK_DRFN\ProjSrc\SrcChartEx\ChartAddIn\ChartDesignPropertyAddIn\ChartDesignPropertyAddIn\ColourPicker.cpp
; File C:\Program Files (x86)\Microsoft Visual Studio\2019\Community\VC\Tools\MSVC\14.29.30133\atlmfc\include\afxwin2.inl
; File D:\git\src\IBK\IBK_DRFN\ProjSrc\SrcChartEx\ChartAddIn\ChartDesignPropertyAddIn\ChartDesignPropertyAddIn\ColourPicker.cpp
; File C:\Program Files (x86)\Microsoft Visual Studio\2019\Community\VC\Tools\MSVC\14.29.30133\atlmfc\include\atltypes.h
; File D:\git\src\IBK\IBK_DRFN\ProjSrc\SrcChartEx\ChartAddIn\ChartDesignPropertyAddIn\ChartDesignPropertyAddIn\ColourPicker.cpp
; File C:\Program Files (x86)\Microsoft Visual Studio\2019\Community\VC\Tools\MSVC\14.29.30133\atlmfc\include\afxwin2.inl
; File D:\git\src\IBK\IBK_DRFN\ProjSrc\SrcChartEx\ChartAddIn\ChartDesignPropertyAddIn\ChartDesignPropertyAddIn\ColourPicker.cpp
; File C:\Program Files (x86)\Microsoft Visual Studio\2019\Community\VC\Tools\MSVC\14.29.30133\atlmfc\include\afxwin2.inl
; File D:\git\src\IBK\IBK_DRFN\ProjSrc\SrcChartEx\ChartAddIn\ChartDesignPropertyAddIn\ChartDesignPropertyAddIn\ColourPicker.cpp
;	COMDAT ?CreateObject@CColourPicker@@SGPAVCObject@@XZ
_TEXT	SEGMENT
$T2 = -16						; size = 4
__$EHRec$ = -12						; size = 12
?CreateObject@CColourPicker@@SGPAVCObject@@XZ PROC	; CColourPicker::CreateObject, COMDAT

; 82   : IMPLEMENT_DYNCREATE(CColourPicker, CButton)

  00000	55		 push	 ebp
  00001	8b ec		 mov	 ebp, esp
  00003	6a ff		 push	 -1
  00005	68 00 00 00 00	 push	 __ehhandler$?CreateObject@CColourPicker@@SGPAVCObject@@XZ
  0000a	64 a1 00 00 00
	00		 mov	 eax, DWORD PTR fs:0
  00010	50		 push	 eax
  00011	51		 push	 ecx
  00012	53		 push	 ebx
  00013	56		 push	 esi
  00014	a1 00 00 00 00	 mov	 eax, DWORD PTR ___security_cookie
  00019	33 c5		 xor	 eax, ebp
  0001b	50		 push	 eax
  0001c	8d 45 f4	 lea	 eax, DWORD PTR __$EHRec$[ebp]
  0001f	64 a3 00 00 00
	00		 mov	 DWORD PTR fs:0, eax
; File C:\Program Files (x86)\Microsoft Visual Studio\2019\Community\VC\Tools\MSVC\14.29.30133\atlmfc\include\afx.inl

; 116  : 	{ return ::operator new(nSize); }

  00025	68 b0 00 00 00	 push	 176			; 000000b0H
  0002a	e8 00 00 00 00	 call	 ??2@YAPAXI@Z		; operator new
; File D:\git\src\IBK\IBK_DRFN\ProjSrc\SrcChartEx\ChartAddIn\ChartDesignPropertyAddIn\ChartDesignPropertyAddIn\ColourPicker.cpp

; 82   : IMPLEMENT_DYNCREATE(CColourPicker, CButton)

  0002f	8b f0		 mov	 esi, eax
; File C:\Program Files (x86)\Microsoft Visual Studio\2019\Community\VC\Tools\MSVC\14.29.30133\atlmfc\include\afx.inl

; 116  : 	{ return ::operator new(nSize); }

  00031	83 c4 04	 add	 esp, 4
; File D:\git\src\IBK\IBK_DRFN\ProjSrc\SrcChartEx\ChartAddIn\ChartDesignPropertyAddIn\ChartDesignPropertyAddIn\ColourPicker.cpp

; 82   : IMPLEMENT_DYNCREATE(CColourPicker, CButton)

  00034	89 75 f0	 mov	 DWORD PTR $T2[ebp], esi
  00037	c7 45 fc 00 00
	00 00		 mov	 DWORD PTR __$EHRec$[ebp+8], 0
  0003e	85 f6		 test	 esi, esi
  00040	0f 84 08 01 00
	00		 je	 $LN3@CreateObje
; File C:\Program Files (x86)\Microsoft Visual Studio\2019\Community\VC\Tools\MSVC\14.29.30133\atlmfc\include\afxwin2.inl

; 622  : 	{ }

  00046	8b ce		 mov	 ecx, esi
  00048	e8 00 00 00 00	 call	 ??0CWnd@@QAE@XZ		; CWnd::CWnd
; File D:\git\src\IBK\IBK_DRFN\ProjSrc\SrcChartEx\ChartAddIn\ChartDesignPropertyAddIn\ChartDesignPropertyAddIn\ColourPicker.cpp

; 63   : {

  0004d	c7 06 00 00 00
	00		 mov	 DWORD PTR [esi], OFFSET ??_7CColourPicker@@6B@
  00053	8d 8e a4 00 00
	00		 lea	 ecx, DWORD PTR [esi+164]
; File C:\Program Files (x86)\Microsoft Visual Studio\2019\Community\VC\Tools\MSVC\14.29.30133\atlmfc\include\atltypes.h

; 528  : 	left = 0;

  00059	c7 86 94 00 00
	00 00 00 00 00	 mov	 DWORD PTR [esi+148], 0

; 529  : 	top = 0;

  00063	c7 86 98 00 00
	00 00 00 00 00	 mov	 DWORD PTR [esi+152], 0

; 530  : 	right = 0;

  0006d	c7 86 9c 00 00
	00 00 00 00 00	 mov	 DWORD PTR [esi+156], 0

; 531  : 	bottom = 0;

  00077	c7 86 a0 00 00
	00 00 00 00 00	 mov	 DWORD PTR [esi+160], 0
; File D:\git\src\IBK\IBK_DRFN\ProjSrc\SrcChartEx\ChartAddIn\ChartDesignPropertyAddIn\ChartDesignPropertyAddIn\ColourPicker.cpp

; 63   : {

  00081	ff 15 00 00 00
	00		 call	 DWORD PTR __imp_??0?$CStringT@DV?$StrTraitMFC_DLL@DV?$ChTraitsCRT@D@ATL@@@@@ATL@@QAE@XZ
  00087	8d 8e a8 00 00
	00		 lea	 ecx, DWORD PTR [esi+168]
  0008d	ff 15 00 00 00
	00		 call	 DWORD PTR __imp_??0?$CStringT@DV?$StrTraitMFC_DLL@DV?$ChTraitsCRT@D@ATL@@@@@ATL@@QAE@XZ

; 64   :     SetBkColour(GetSysColor(COLOR_3DFACE));

  00093	6a 0f		 push	 15			; 0000000fH
  00095	c6 45 fc 03	 mov	 BYTE PTR __$EHRec$[ebp+8], 3
  00099	ff 15 00 00 00
	00		 call	 DWORD PTR __imp__GetSysColor@4

; 267  :     if (IsWindow(m_hWnd)) RedrawWindow();

  0009f	ff 76 20	 push	 DWORD PTR [esi+32]
  000a2	89 86 88 00 00
	00		 mov	 DWORD PTR [esi+136], eax
  000a8	ff 15 00 00 00
	00		 call	 DWORD PTR __imp__IsWindow@4
  000ae	85 c0		 test	 eax, eax
  000b0	74 12		 je	 SHORT $LN19@CreateObje
; File C:\Program Files (x86)\Microsoft Visual Studio\2019\Community\VC\Tools\MSVC\14.29.30133\atlmfc\include\afxwin2.inl

; 142  : 	{ ASSERT(::IsWindow(m_hWnd)); return ::RedrawWindow(m_hWnd, lpRectUpdate, (HRGN)prgnUpdate->GetSafeHandle(), flags); }

  000b2	68 05 01 00 00	 push	 261			; 00000105H
  000b7	6a 00		 push	 0
  000b9	6a 00		 push	 0
  000bb	ff 76 20	 push	 DWORD PTR [esi+32]
  000be	ff 15 00 00 00
	00		 call	 DWORD PTR __imp__RedrawWindow@16
$LN19@CreateObje:
; File D:\git\src\IBK\IBK_DRFN\ProjSrc\SrcChartEx\ChartAddIn\ChartDesignPropertyAddIn\ChartDesignPropertyAddIn\ColourPicker.cpp

; 65   :     SetTextColour(GetSysColor(COLOR_BTNTEXT));

  000c4	6a 12		 push	 18			; 00000012H
  000c6	ff 15 00 00 00
	00		 call	 DWORD PTR __imp__GetSysColor@4

; 273  :     if (IsWindow(m_hWnd)) RedrawWindow();

  000cc	ff 76 20	 push	 DWORD PTR [esi+32]
  000cf	89 86 8c 00 00
	00		 mov	 DWORD PTR [esi+140], eax
  000d5	ff 15 00 00 00
	00		 call	 DWORD PTR __imp__IsWindow@4
  000db	85 c0		 test	 eax, eax
  000dd	74 12		 je	 SHORT $LN28@CreateObje
; File C:\Program Files (x86)\Microsoft Visual Studio\2019\Community\VC\Tools\MSVC\14.29.30133\atlmfc\include\afxwin2.inl

; 142  : 	{ ASSERT(::IsWindow(m_hWnd)); return ::RedrawWindow(m_hWnd, lpRectUpdate, (HRGN)prgnUpdate->GetSafeHandle(), flags); }

  000df	68 05 01 00 00	 push	 261			; 00000105H
  000e4	6a 00		 push	 0
  000e6	6a 00		 push	 0
  000e8	ff 76 20	 push	 DWORD PTR [esi+32]
  000eb	ff 15 00 00 00
	00		 call	 DWORD PTR __imp__RedrawWindow@16
$LN28@CreateObje:
; File D:\git\src\IBK\IBK_DRFN\ProjSrc\SrcChartEx\ChartAddIn\ChartDesignPropertyAddIn\ChartDesignPropertyAddIn\ColourPicker.cpp

; 71   :     m_strDefaultText = _T("Automatic");

  000f1	68 00 00 00 00	 push	 OFFSET ??_C@_09HPGOGDJC@Automatic@
  000f6	8d 8e a4 00 00
	00		 lea	 ecx, DWORD PTR [esi+164]
  000fc	c7 86 84 00 00
	00 00 00 00 00	 mov	 DWORD PTR [esi+132], 0
  00106	c7 86 90 00 00
	00 02 00 00 00	 mov	 DWORD PTR [esi+144], 2
  00110	c7 86 80 00 00
	00 00 00 00 00	 mov	 DWORD PTR [esi+128], 0
  0011a	ff 15 00 00 00
	00		 call	 DWORD PTR __imp_??4?$CStringT@DV?$StrTraitMFC_DLL@DV?$ChTraitsCRT@D@ATL@@@@@ATL@@QAEAAV01@PBD@Z

; 72   :     m_strCustomText  = _T("More Colours...");

  00120	68 00 00 00 00	 push	 OFFSET ??_C@_0BA@MBABNAAM@More?5Colours?4?4?4@
  00125	8d 8e a8 00 00
	00		 lea	 ecx, DWORD PTR [esi+168]
  0012b	ff 15 00 00 00
	00		 call	 DWORD PTR __imp_??4?$CStringT@DV?$StrTraitMFC_DLL@DV?$ChTraitsCRT@D@ATL@@@@@ATL@@QAEAAV01@PBD@Z

; 73   : 
; 74   : 	// (2008/1/14 - Seung-Won, Bae) for MultiLanguage.
; 75   : 	m_hOcxWnd = NULL;

  00131	c7 86 ac 00 00
	00 00 00 00 00	 mov	 DWORD PTR [esi+172], 0

; 82   : IMPLEMENT_DYNCREATE(CColourPicker, CButton)

  0013b	8b c6		 mov	 eax, esi
  0013d	8b 4d f4	 mov	 ecx, DWORD PTR __$EHRec$[ebp]
  00140	64 89 0d 00 00
	00 00		 mov	 DWORD PTR fs:0, ecx
  00147	59		 pop	 ecx
  00148	5e		 pop	 esi
  00149	5b		 pop	 ebx
  0014a	8b e5		 mov	 esp, ebp
  0014c	5d		 pop	 ebp
  0014d	c3		 ret	 0
$LN3@CreateObje:
  0014e	33 c0		 xor	 eax, eax
  00150	8b 4d f4	 mov	 ecx, DWORD PTR __$EHRec$[ebp]
  00153	64 89 0d 00 00
	00 00		 mov	 DWORD PTR fs:0, ecx
  0015a	59		 pop	 ecx
  0015b	5e		 pop	 esi
  0015c	5b		 pop	 ebx
  0015d	8b e5		 mov	 esp, ebp
  0015f	5d		 pop	 ebp
  00160	c3		 ret	 0
_TEXT	ENDS
;	COMDAT text$x
text$x	SEGMENT
__unwindfunclet$?CreateObject@CColourPicker@@SGPAVCObject@@XZ$0:
  00000	8b 45 f0	 mov	 eax, DWORD PTR $T2[ebp]
  00003	50		 push	 eax
  00004	e8 00 00 00 00	 call	 ??3CObject@@SGXPAX@Z	; CObject::operator delete
  00009	c3		 ret	 0
__unwindfunclet$?CreateObject@CColourPicker@@SGPAVCObject@@XZ$1:
  0000a	8b 4d f0	 mov	 ecx, DWORD PTR $T2[ebp]
  0000d	e9 00 00 00 00	 jmp	 ??1CButton@@UAE@XZ	; CButton::~CButton
__unwindfunclet$?CreateObject@CColourPicker@@SGPAVCObject@@XZ$2:
  00012	8b 4d f0	 mov	 ecx, DWORD PTR $T2[ebp]
  00015	81 c1 a4 00 00
	00		 add	 ecx, 164		; 000000a4H
  0001b	ff 25 00 00 00
	00		 jmp	 DWORD PTR __imp_??1?$CStringT@DV?$StrTraitMFC_DLL@DV?$ChTraitsCRT@D@ATL@@@@@ATL@@QAE@XZ
__unwindfunclet$?CreateObject@CColourPicker@@SGPAVCObject@@XZ$3:
  00021	8b 4d f0	 mov	 ecx, DWORD PTR $T2[ebp]
  00024	81 c1 a8 00 00
	00		 add	 ecx, 168		; 000000a8H
  0002a	ff 25 00 00 00
	00		 jmp	 DWORD PTR __imp_??1?$CStringT@DV?$StrTraitMFC_DLL@DV?$ChTraitsCRT@D@ATL@@@@@ATL@@QAE@XZ
  00030	cc		 int	 3
  00031	cc		 int	 3
  00032	cc		 int	 3
  00033	cc		 int	 3
  00034	cc		 int	 3
__ehhandler$?CreateObject@CColourPicker@@SGPAVCObject@@XZ:
  00035	90		 npad	 1
  00036	90		 npad	 1
  00037	8b 54 24 08	 mov	 edx, DWORD PTR [esp+8]
  0003b	8d 42 0c	 lea	 eax, DWORD PTR [edx+12]
  0003e	8b 4a f0	 mov	 ecx, DWORD PTR [edx-16]
  00041	33 c8		 xor	 ecx, eax
  00043	e8 00 00 00 00	 call	 @__security_check_cookie@4
  00048	b8 00 00 00 00	 mov	 eax, OFFSET __ehfuncinfo$?CreateObject@CColourPicker@@SGPAVCObject@@XZ
  0004d	e9 00 00 00 00	 jmp	 ___CxxFrameHandler3
text$x	ENDS
?CreateObject@CColourPicker@@SGPAVCObject@@XZ ENDP	; CColourPicker::CreateObject
; Function compile flags: /Ogtp
; File D:\git\src\IBK\IBK_DRFN\ProjSrc\SrcChartEx\ChartAddIn\ChartDesignPropertyAddIn\ChartDesignPropertyAddIn\ColourPicker.cpp
;	COMDAT ?GetRuntimeClass@CColourPicker@@UBEPAUCRuntimeClass@@XZ
_TEXT	SEGMENT
?GetRuntimeClass@CColourPicker@@UBEPAUCRuntimeClass@@XZ PROC ; CColourPicker::GetRuntimeClass, COMDAT
; _this$ = ecx

; 82   : IMPLEMENT_DYNCREATE(CColourPicker, CButton)

  00000	b8 00 00 00 00	 mov	 eax, OFFSET ?classCColourPicker@CColourPicker@@2UCRuntimeClass@@B ; CColourPicker::classCColourPicker
  00005	c3		 ret	 0
?GetRuntimeClass@CColourPicker@@UBEPAUCRuntimeClass@@XZ ENDP ; CColourPicker::GetRuntimeClass
_TEXT	ENDS
; Function compile flags: /Ogtp
; File D:\git\src\IBK\IBK_DRFN\ProjSrc\SrcChartEx\ChartAddIn\ChartDesignPropertyAddIn\ChartDesignPropertyAddIn\ColourPicker.cpp
;	COMDAT ?GetThisClass@CColourPicker@@SGPAUCRuntimeClass@@XZ
_TEXT	SEGMENT
?GetThisClass@CColourPicker@@SGPAUCRuntimeClass@@XZ PROC ; CColourPicker::GetThisClass, COMDAT

; 82   : IMPLEMENT_DYNCREATE(CColourPicker, CButton)

  00000	b8 00 00 00 00	 mov	 eax, OFFSET ?classCColourPicker@CColourPicker@@2UCRuntimeClass@@B ; CColourPicker::classCColourPicker
  00005	c3		 ret	 0
?GetThisClass@CColourPicker@@SGPAUCRuntimeClass@@XZ ENDP ; CColourPicker::GetThisClass
_TEXT	ENDS
; Function compile flags: /Ogtp
; File D:\git\src\IBK\IBK_DRFN\ProjSrc\SrcChartEx\ChartAddIn\ChartDesignPropertyAddIn\ChartDesignPropertyAddIn\ColourPicker.cpp
;	COMDAT ?_GetBaseClass@CColourPicker@@KGPAUCRuntimeClass@@XZ
_TEXT	SEGMENT
?_GetBaseClass@CColourPicker@@KGPAUCRuntimeClass@@XZ PROC ; CColourPicker::_GetBaseClass, COMDAT

; 82   : IMPLEMENT_DYNCREATE(CColourPicker, CButton)

  00000	e9 00 00 00 00	 jmp	 ?GetThisClass@CButton@@SGPAUCRuntimeClass@@XZ ; CButton::GetThisClass
?_GetBaseClass@CColourPicker@@KGPAUCRuntimeClass@@XZ ENDP ; CColourPicker::_GetBaseClass
_TEXT	ENDS
; Function compile flags: /Ogtp
; File D:\git\src\IBK\IBK_DRFN\ProjSrc\SrcChartEx\ChartAddIn\ChartDesignPropertyAddIn\ChartDesignPropertyAddIn\ColourPicker.cpp
; File C:\Program Files (x86)\Microsoft Visual Studio\2019\Community\VC\Tools\MSVC\14.29.30133\atlmfc\include\afxwin2.inl
; File D:\git\src\IBK\IBK_DRFN\ProjSrc\SrcChartEx\ChartAddIn\ChartDesignPropertyAddIn\ChartDesignPropertyAddIn\ColourPicker.cpp
; File C:\Program Files (x86)\Microsoft Visual Studio\2019\Community\VC\Tools\MSVC\14.29.30133\atlmfc\include\atltypes.h
; File D:\git\src\IBK\IBK_DRFN\ProjSrc\SrcChartEx\ChartAddIn\ChartDesignPropertyAddIn\ChartDesignPropertyAddIn\ColourPicker.cpp
; File C:\Program Files (x86)\Microsoft Visual Studio\2019\Community\VC\Tools\MSVC\14.29.30133\atlmfc\include\afxwin2.inl
; File D:\git\src\IBK\IBK_DRFN\ProjSrc\SrcChartEx\ChartAddIn\ChartDesignPropertyAddIn\ChartDesignPropertyAddIn\ColourPicker.cpp
; File C:\Program Files (x86)\Microsoft Visual Studio\2019\Community\VC\Tools\MSVC\14.29.30133\atlmfc\include\afxwin2.inl
; File D:\git\src\IBK\IBK_DRFN\ProjSrc\SrcChartEx\ChartAddIn\ChartDesignPropertyAddIn\ChartDesignPropertyAddIn\ColourPicker.cpp
;	COMDAT ??0CColourPicker@@QAE@XZ
_TEXT	SEGMENT
_this$ = -16						; size = 4
__$EHRec$ = -12						; size = 12
??0CColourPicker@@QAE@XZ PROC				; CColourPicker::CColourPicker, COMDAT
; _this$ = ecx

; 63   : {

  00000	55		 push	 ebp
  00001	8b ec		 mov	 ebp, esp
  00003	6a ff		 push	 -1
  00005	68 00 00 00 00	 push	 __ehhandler$??0CColourPicker@@QAE@XZ
  0000a	64 a1 00 00 00
	00		 mov	 eax, DWORD PTR fs:0
  00010	50		 push	 eax
  00011	51		 push	 ecx
  00012	53		 push	 ebx
  00013	56		 push	 esi
  00014	57		 push	 edi
  00015	a1 00 00 00 00	 mov	 eax, DWORD PTR ___security_cookie
  0001a	33 c5		 xor	 eax, ebp
  0001c	50		 push	 eax
  0001d	8d 45 f4	 lea	 eax, DWORD PTR __$EHRec$[ebp]
  00020	64 a3 00 00 00
	00		 mov	 DWORD PTR fs:0, eax
  00026	8b f1		 mov	 esi, ecx
  00028	89 75 f0	 mov	 DWORD PTR _this$[ebp], esi
; File C:\Program Files (x86)\Microsoft Visual Studio\2019\Community\VC\Tools\MSVC\14.29.30133\atlmfc\include\afxwin2.inl

; 622  : 	{ }

  0002b	e8 00 00 00 00	 call	 ??0CWnd@@QAE@XZ		; CWnd::CWnd
; File D:\git\src\IBK\IBK_DRFN\ProjSrc\SrcChartEx\ChartAddIn\ChartDesignPropertyAddIn\ChartDesignPropertyAddIn\ColourPicker.cpp

; 63   : {

  00030	c7 06 00 00 00
	00		 mov	 DWORD PTR [esi], OFFSET ??_7CColourPicker@@6B@
  00036	8d 8e a4 00 00
	00		 lea	 ecx, DWORD PTR [esi+164]
  0003c	c7 45 fc 00 00
	00 00		 mov	 DWORD PTR __$EHRec$[ebp+8], 0
; File C:\Program Files (x86)\Microsoft Visual Studio\2019\Community\VC\Tools\MSVC\14.29.30133\atlmfc\include\atltypes.h

; 528  : 	left = 0;

  00043	c7 86 94 00 00
	00 00 00 00 00	 mov	 DWORD PTR [esi+148], 0

; 529  : 	top = 0;

  0004d	c7 86 98 00 00
	00 00 00 00 00	 mov	 DWORD PTR [esi+152], 0

; 530  : 	right = 0;

  00057	c7 86 9c 00 00
	00 00 00 00 00	 mov	 DWORD PTR [esi+156], 0

; 531  : 	bottom = 0;

  00061	c7 86 a0 00 00
	00 00 00 00 00	 mov	 DWORD PTR [esi+160], 0
; File D:\git\src\IBK\IBK_DRFN\ProjSrc\SrcChartEx\ChartAddIn\ChartDesignPropertyAddIn\ChartDesignPropertyAddIn\ColourPicker.cpp

; 63   : {

  0006b	ff 15 00 00 00
	00		 call	 DWORD PTR __imp_??0?$CStringT@DV?$StrTraitMFC_DLL@DV?$ChTraitsCRT@D@ATL@@@@@ATL@@QAE@XZ
  00071	8d 8e a8 00 00
	00		 lea	 ecx, DWORD PTR [esi+168]
  00077	ff 15 00 00 00
	00		 call	 DWORD PTR __imp_??0?$CStringT@DV?$StrTraitMFC_DLL@DV?$ChTraitsCRT@D@ATL@@@@@ATL@@QAE@XZ

; 64   :     SetBkColour(GetSysColor(COLOR_3DFACE));

  0007d	6a 0f		 push	 15			; 0000000fH
  0007f	c6 45 fc 02	 mov	 BYTE PTR __$EHRec$[ebp+8], 2
  00083	ff 15 00 00 00
	00		 call	 DWORD PTR __imp__GetSysColor@4

; 267  :     if (IsWindow(m_hWnd)) RedrawWindow();

  00089	ff 76 20	 push	 DWORD PTR [esi+32]
  0008c	89 86 88 00 00
	00		 mov	 DWORD PTR [esi+136], eax
  00092	ff 15 00 00 00
	00		 call	 DWORD PTR __imp__IsWindow@4
  00098	8b 3d 00 00 00
	00		 mov	 edi, DWORD PTR __imp__RedrawWindow@16
  0009e	85 c0		 test	 eax, eax
  000a0	74 0e		 je	 SHORT $LN12@CColourPic
; File C:\Program Files (x86)\Microsoft Visual Studio\2019\Community\VC\Tools\MSVC\14.29.30133\atlmfc\include\afxwin2.inl

; 142  : 	{ ASSERT(::IsWindow(m_hWnd)); return ::RedrawWindow(m_hWnd, lpRectUpdate, (HRGN)prgnUpdate->GetSafeHandle(), flags); }

  000a2	68 05 01 00 00	 push	 261			; 00000105H
  000a7	6a 00		 push	 0
  000a9	6a 00		 push	 0
  000ab	ff 76 20	 push	 DWORD PTR [esi+32]
  000ae	ff d7		 call	 edi
$LN12@CColourPic:
; File D:\git\src\IBK\IBK_DRFN\ProjSrc\SrcChartEx\ChartAddIn\ChartDesignPropertyAddIn\ChartDesignPropertyAddIn\ColourPicker.cpp

; 65   :     SetTextColour(GetSysColor(COLOR_BTNTEXT));

  000b0	6a 12		 push	 18			; 00000012H
  000b2	ff 15 00 00 00
	00		 call	 DWORD PTR __imp__GetSysColor@4

; 273  :     if (IsWindow(m_hWnd)) RedrawWindow();

  000b8	ff 76 20	 push	 DWORD PTR [esi+32]
  000bb	89 86 8c 00 00
	00		 mov	 DWORD PTR [esi+140], eax
  000c1	ff 15 00 00 00
	00		 call	 DWORD PTR __imp__IsWindow@4
  000c7	85 c0		 test	 eax, eax
  000c9	74 0e		 je	 SHORT $LN21@CColourPic
; File C:\Program Files (x86)\Microsoft Visual Studio\2019\Community\VC\Tools\MSVC\14.29.30133\atlmfc\include\afxwin2.inl

; 142  : 	{ ASSERT(::IsWindow(m_hWnd)); return ::RedrawWindow(m_hWnd, lpRectUpdate, (HRGN)prgnUpdate->GetSafeHandle(), flags); }

  000cb	68 05 01 00 00	 push	 261			; 00000105H
  000d0	6a 00		 push	 0
  000d2	6a 00		 push	 0
  000d4	ff 76 20	 push	 DWORD PTR [esi+32]
  000d7	ff d7		 call	 edi
$LN21@CColourPic:
; File D:\git\src\IBK\IBK_DRFN\ProjSrc\SrcChartEx\ChartAddIn\ChartDesignPropertyAddIn\ChartDesignPropertyAddIn\ColourPicker.cpp

; 71   :     m_strDefaultText = _T("Automatic");

  000d9	68 00 00 00 00	 push	 OFFSET ??_C@_09HPGOGDJC@Automatic@
  000de	8d 8e a4 00 00
	00		 lea	 ecx, DWORD PTR [esi+164]
  000e4	c7 86 84 00 00
	00 00 00 00 00	 mov	 DWORD PTR [esi+132], 0
  000ee	c7 86 90 00 00
	00 02 00 00 00	 mov	 DWORD PTR [esi+144], 2
  000f8	c7 86 80 00 00
	00 00 00 00 00	 mov	 DWORD PTR [esi+128], 0
  00102	ff 15 00 00 00
	00		 call	 DWORD PTR __imp_??4?$CStringT@DV?$StrTraitMFC_DLL@DV?$ChTraitsCRT@D@ATL@@@@@ATL@@QAEAAV01@PBD@Z

; 72   :     m_strCustomText  = _T("More Colours...");

  00108	68 00 00 00 00	 push	 OFFSET ??_C@_0BA@MBABNAAM@More?5Colours?4?4?4@
  0010d	8d 8e a8 00 00
	00		 lea	 ecx, DWORD PTR [esi+168]
  00113	ff 15 00 00 00
	00		 call	 DWORD PTR __imp_??4?$CStringT@DV?$StrTraitMFC_DLL@DV?$ChTraitsCRT@D@ATL@@@@@ATL@@QAEAAV01@PBD@Z

; 73   : 
; 74   : 	// (2008/1/14 - Seung-Won, Bae) for MultiLanguage.
; 75   : 	m_hOcxWnd = NULL;

  00119	c7 86 ac 00 00
	00 00 00 00 00	 mov	 DWORD PTR [esi+172], 0

; 76   : }

  00123	8b c6		 mov	 eax, esi
  00125	8b 4d f4	 mov	 ecx, DWORD PTR __$EHRec$[ebp]
  00128	64 89 0d 00 00
	00 00		 mov	 DWORD PTR fs:0, ecx
  0012f	59		 pop	 ecx
  00130	5f		 pop	 edi
  00131	5e		 pop	 esi
  00132	5b		 pop	 ebx
  00133	8b e5		 mov	 esp, ebp
  00135	5d		 pop	 ebp
  00136	c3		 ret	 0
_TEXT	ENDS
;	COMDAT text$x
text$x	SEGMENT
__unwindfunclet$??0CColourPicker@@QAE@XZ$0:
  00000	8b 4d f0	 mov	 ecx, DWORD PTR _this$[ebp]
  00003	e9 00 00 00 00	 jmp	 ??1CButton@@UAE@XZ	; CButton::~CButton
__unwindfunclet$??0CColourPicker@@QAE@XZ$1:
  00008	8b 4d f0	 mov	 ecx, DWORD PTR _this$[ebp]
  0000b	81 c1 a4 00 00
	00		 add	 ecx, 164		; 000000a4H
  00011	ff 25 00 00 00
	00		 jmp	 DWORD PTR __imp_??1?$CStringT@DV?$StrTraitMFC_DLL@DV?$ChTraitsCRT@D@ATL@@@@@ATL@@QAE@XZ
__unwindfunclet$??0CColourPicker@@QAE@XZ$2:
  00017	8b 4d f0	 mov	 ecx, DWORD PTR _this$[ebp]
  0001a	81 c1 a8 00 00
	00		 add	 ecx, 168		; 000000a8H
  00020	ff 25 00 00 00
	00		 jmp	 DWORD PTR __imp_??1?$CStringT@DV?$StrTraitMFC_DLL@DV?$ChTraitsCRT@D@ATL@@@@@ATL@@QAE@XZ
  00026	cc		 int	 3
  00027	cc		 int	 3
  00028	cc		 int	 3
  00029	cc		 int	 3
  0002a	cc		 int	 3
__ehhandler$??0CColourPicker@@QAE@XZ:
  0002b	90		 npad	 1
  0002c	90		 npad	 1
  0002d	8b 54 24 08	 mov	 edx, DWORD PTR [esp+8]
  00031	8d 42 0c	 lea	 eax, DWORD PTR [edx+12]
  00034	8b 4a ec	 mov	 ecx, DWORD PTR [edx-20]
  00037	33 c8		 xor	 ecx, eax
  00039	e8 00 00 00 00	 call	 @__security_check_cookie@4
  0003e	b8 00 00 00 00	 mov	 eax, OFFSET __ehfuncinfo$??0CColourPicker@@QAE@XZ
  00043	e9 00 00 00 00	 jmp	 ___CxxFrameHandler3
text$x	ENDS
??0CColourPicker@@QAE@XZ ENDP				; CColourPicker::CColourPicker
; Function compile flags: /Ogtp
; File C:\Program Files (x86)\Microsoft Visual Studio\2019\Community\VC\Tools\MSVC\14.29.30133\atlmfc\include\afx.inl
;	COMDAT ??_GCButton@@UAEPAXI@Z
_TEXT	SEGMENT
___flags$ = 8						; size = 4
??_GCButton@@UAEPAXI@Z PROC				; CButton::`scalar deleting destructor', COMDAT
; _this$ = ecx
  00000	55		 push	 ebp
  00001	8b ec		 mov	 ebp, esp
  00003	56		 push	 esi
  00004	8b f1		 mov	 esi, ecx
  00006	e8 00 00 00 00	 call	 ??1CButton@@UAE@XZ	; CButton::~CButton
  0000b	8b 45 08	 mov	 eax, DWORD PTR ___flags$[ebp]
  0000e	a8 01		 test	 al, 1
  00010	74 22		 je	 SHORT $LN9@scalar
  00012	a8 04		 test	 al, 4
  00014	75 10		 jne	 SHORT $LN3@scalar

; 112  : 	{ ::operator delete(p); }

  00016	56		 push	 esi
  00017	e8 00 00 00 00	 call	 ??3@YAXPAX@Z		; operator delete
  0001c	83 c4 04	 add	 esp, 4
  0001f	8b c6		 mov	 eax, esi
  00021	5e		 pop	 esi
  00022	5d		 pop	 ebp
  00023	c2 04 00	 ret	 4
$LN3@scalar:
  00026	68 80 00 00 00	 push	 128			; 00000080H
  0002b	56		 push	 esi
  0002c	e8 00 00 00 00	 call	 ?__global_delete@@YAXPAXI@Z ; __global_delete
  00031	83 c4 08	 add	 esp, 8
$LN9@scalar:
  00034	8b c6		 mov	 eax, esi
  00036	5e		 pop	 esi
  00037	5d		 pop	 ebp
  00038	c2 04 00	 ret	 4
??_GCButton@@UAEPAXI@Z ENDP				; CButton::`scalar deleting destructor'
_TEXT	ENDS
; Function compile flags: /Ogtp
; File C:\Program Files (x86)\Microsoft Visual Studio\2019\Community\VC\Tools\MSVC\14.29.30133\atlmfc\include\afxwin2.inl
;	COMDAT ?EndModalState@CWnd@@UAEXXZ
_TEXT	SEGMENT
?EndModalState@CWnd@@UAEXXZ PROC			; CWnd::EndModalState, COMDAT
; _this$ = ecx

; 567  : 	{ ::EnableWindow(m_hWnd, TRUE); }

  00000	6a 01		 push	 1
  00002	ff 71 20	 push	 DWORD PTR [ecx+32]
  00005	ff 15 00 00 00
	00		 call	 DWORD PTR __imp__EnableWindow@8
  0000b	c3		 ret	 0
?EndModalState@CWnd@@UAEXXZ ENDP			; CWnd::EndModalState
_TEXT	ENDS
; Function compile flags: /Ogtp
; File C:\Program Files (x86)\Microsoft Visual Studio\2019\Community\VC\Tools\MSVC\14.29.30133\atlmfc\include\afxwin2.inl
;	COMDAT ?BeginModalState@CWnd@@UAEXXZ
_TEXT	SEGMENT
?BeginModalState@CWnd@@UAEXXZ PROC			; CWnd::BeginModalState, COMDAT
; _this$ = ecx

; 565  : 	{ ::EnableWindow(m_hWnd, FALSE); }

  00000	6a 00		 push	 0
  00002	ff 71 20	 push	 DWORD PTR [ecx+32]
  00005	ff 15 00 00 00
	00		 call	 DWORD PTR __imp__EnableWindow@8
  0000b	c3		 ret	 0
?BeginModalState@CWnd@@UAEXXZ ENDP			; CWnd::BeginModalState
_TEXT	ENDS
; Function compile flags: /Ogtp
; File C:\Program Files (x86)\Microsoft Visual Studio\2019\Community\VC\Tools\MSVC\14.29.30133\atlmfc\include\afxwin2.inl
;	COMDAT ?DoDataExchange@CWnd@@MAEXPAVCDataExchange@@@Z
_TEXT	SEGMENT
___formal$ = 8						; size = 4
?DoDataExchange@CWnd@@MAEXPAVCDataExchange@@@Z PROC	; CWnd::DoDataExchange, COMDAT
; _this$ = ecx

; 561  : 	{ } // default does nothing

  00000	c2 04 00	 ret	 4
?DoDataExchange@CWnd@@MAEXPAVCDataExchange@@@Z ENDP	; CWnd::DoDataExchange
_TEXT	ENDS
; Function compile flags: /Ogtp
; File C:\Program Files (x86)\Microsoft Visual Studio\2019\Community\VC\Tools\MSVC\14.29.30133\atlmfc\include\afxwin1.inl
; File C:\Program Files (x86)\Microsoft Visual Studio\2019\Community\VC\Tools\MSVC\14.29.30133\atlmfc\include\afx.inl
;	COMDAT ??_GCBrush@@UAEPAXI@Z
_TEXT	SEGMENT
___flags$ = 8						; size = 4
??_GCBrush@@UAEPAXI@Z PROC				; CBrush::`scalar deleting destructor', COMDAT
; _this$ = ecx
  00000	55		 push	 ebp
  00001	8b ec		 mov	 ebp, esp
; File C:\Program Files (x86)\Microsoft Visual Studio\2019\Community\VC\Tools\MSVC\14.29.30133\atlmfc\include\afxwin1.inl

; 130  : 	{ }

  00003	56		 push	 esi
  00004	8b f1		 mov	 esi, ecx
  00006	c7 06 00 00 00
	00		 mov	 DWORD PTR [esi], OFFSET ??_7CBrush@@6B@
  0000c	e8 00 00 00 00	 call	 ??1CGdiObject@@UAE@XZ	; CGdiObject::~CGdiObject
  00011	8b 45 08	 mov	 eax, DWORD PTR ___flags$[ebp]
  00014	a8 01		 test	 al, 1
  00016	74 1f		 je	 SHORT $LN12@scalar
  00018	a8 04		 test	 al, 4
  0001a	75 10		 jne	 SHORT $LN3@scalar
; File C:\Program Files (x86)\Microsoft Visual Studio\2019\Community\VC\Tools\MSVC\14.29.30133\atlmfc\include\afx.inl

; 112  : 	{ ::operator delete(p); }

  0001c	56		 push	 esi
  0001d	e8 00 00 00 00	 call	 ??3@YAXPAX@Z		; operator delete
  00022	83 c4 04	 add	 esp, 4
  00025	8b c6		 mov	 eax, esi
  00027	5e		 pop	 esi
  00028	5d		 pop	 ebp
  00029	c2 04 00	 ret	 4
$LN3@scalar:
  0002c	6a 08		 push	 8
  0002e	56		 push	 esi
  0002f	e8 00 00 00 00	 call	 ?__global_delete@@YAXPAXI@Z ; __global_delete
  00034	83 c4 08	 add	 esp, 8
$LN12@scalar:
  00037	8b c6		 mov	 eax, esi
  00039	5e		 pop	 esi
  0003a	5d		 pop	 ebp
  0003b	c2 04 00	 ret	 4
??_GCBrush@@UAEPAXI@Z ENDP				; CBrush::`scalar deleting destructor'
_TEXT	ENDS
; Function compile flags: /Ogtp
; File C:\Program Files (x86)\Microsoft Visual Studio\2019\Community\VC\Tools\MSVC\14.29.30133\atlmfc\include\afxwin1.inl
;	COMDAT ??1CBrush@@UAE@XZ
_TEXT	SEGMENT
??1CBrush@@UAE@XZ PROC					; CBrush::~CBrush, COMDAT
; _this$ = ecx

; 130  : 	{ }

  00000	c7 01 00 00 00
	00		 mov	 DWORD PTR [ecx], OFFSET ??_7CBrush@@6B@
  00006	e9 00 00 00 00	 jmp	 ??1CGdiObject@@UAE@XZ	; CGdiObject::~CGdiObject
??1CBrush@@UAE@XZ ENDP					; CBrush::~CBrush
_TEXT	ENDS
; Function compile flags: /Ogtp
; File C:\Program Files (x86)\Microsoft Visual Studio\2019\Community\VC\Tools\MSVC\14.29.30133\atlmfc\include\afx.inl
;	COMDAT ??_GCGdiObject@@UAEPAXI@Z
_TEXT	SEGMENT
___flags$ = 8						; size = 4
??_GCGdiObject@@UAEPAXI@Z PROC				; CGdiObject::`scalar deleting destructor', COMDAT
; _this$ = ecx
  00000	55		 push	 ebp
  00001	8b ec		 mov	 ebp, esp
  00003	56		 push	 esi
  00004	8b f1		 mov	 esi, ecx
  00006	e8 00 00 00 00	 call	 ??1CGdiObject@@UAE@XZ	; CGdiObject::~CGdiObject
  0000b	8b 45 08	 mov	 eax, DWORD PTR ___flags$[ebp]
  0000e	a8 01		 test	 al, 1
  00010	74 1f		 je	 SHORT $LN9@scalar
  00012	a8 04		 test	 al, 4
  00014	75 10		 jne	 SHORT $LN3@scalar

; 112  : 	{ ::operator delete(p); }

  00016	56		 push	 esi
  00017	e8 00 00 00 00	 call	 ??3@YAXPAX@Z		; operator delete
  0001c	83 c4 04	 add	 esp, 4
  0001f	8b c6		 mov	 eax, esi
  00021	5e		 pop	 esi
  00022	5d		 pop	 ebp
  00023	c2 04 00	 ret	 4
$LN3@scalar:
  00026	6a 08		 push	 8
  00028	56		 push	 esi
  00029	e8 00 00 00 00	 call	 ?__global_delete@@YAXPAXI@Z ; __global_delete
  0002e	83 c4 08	 add	 esp, 8
$LN9@scalar:
  00031	8b c6		 mov	 eax, esi
  00033	5e		 pop	 esi
  00034	5d		 pop	 ebp
  00035	c2 04 00	 ret	 4
??_GCGdiObject@@UAEPAXI@Z ENDP				; CGdiObject::`scalar deleting destructor'
_TEXT	ENDS
; Function compile flags: /Ogtp
; File C:\Program Files (x86)\Microsoft Visual Studio\2019\Community\VC\Tools\MSVC\14.29.30133\atlmfc\include\afxwin1.inl
;	COMDAT ??1CGdiObject@@UAE@XZ
_TEXT	SEGMENT
_pException$2 = -540					; size = 4
_strMsg$3 = -536					; size = 4
_szErrorMessage$4 = -532				; size = 512
__$ArrayPad$ = -20					; size = 4
__$EHRec$ = -16						; size = 16
??1CGdiObject@@UAE@XZ PROC				; CGdiObject::~CGdiObject, COMDAT
; _this$ = ecx

; 74   : {

  00000	55		 push	 ebp
  00001	8b ec		 mov	 ebp, esp
  00003	6a ff		 push	 -1
  00005	68 00 00 00 00	 push	 __ehhandler$??1CGdiObject@@UAE@XZ
  0000a	64 a1 00 00 00
	00		 mov	 eax, DWORD PTR fs:0
  00010	50		 push	 eax
  00011	81 ec 10 02 00
	00		 sub	 esp, 528		; 00000210H
  00017	a1 00 00 00 00	 mov	 eax, DWORD PTR ___security_cookie
  0001c	33 c5		 xor	 eax, ebp
  0001e	89 45 ec	 mov	 DWORD PTR __$ArrayPad$[ebp], eax
  00021	53		 push	 ebx
  00022	56		 push	 esi
  00023	57		 push	 edi
  00024	50		 push	 eax
  00025	8d 45 f4	 lea	 eax, DWORD PTR __$EHRec$[ebp+4]
  00028	64 a3 00 00 00
	00		 mov	 DWORD PTR fs:0, eax
  0002e	89 65 f0	 mov	 DWORD PTR __$EHRec$[ebp], esp
  00031	c7 01 00 00 00
	00		 mov	 DWORD PTR [ecx], OFFSET ??_7CGdiObject@@6B@

; 75   : 	AFX_BEGIN_DESTRUCTOR

  00037	c7 45 fc 00 00
	00 00		 mov	 DWORD PTR __$EHRec$[ebp+12], 0

; 76   : 	DeleteObject();

  0003e	e8 00 00 00 00	 call	 ?DeleteObject@CGdiObject@@QAEHXZ ; CGdiObject::DeleteObject
$LN18@CGdiObject:

; 78   : }

  00043	8b 4d f4	 mov	 ecx, DWORD PTR __$EHRec$[ebp+4]
  00046	64 89 0d 00 00
	00 00		 mov	 DWORD PTR fs:0, ecx
  0004d	59		 pop	 ecx
  0004e	5f		 pop	 edi
  0004f	5e		 pop	 esi
  00050	5b		 pop	 ebx
  00051	8b 4d ec	 mov	 ecx, DWORD PTR __$ArrayPad$[ebp]
  00054	33 cd		 xor	 ecx, ebp
  00056	e8 00 00 00 00	 call	 @__security_check_cookie@4
  0005b	8b e5		 mov	 esp, ebp
  0005d	5d		 pop	 ebp
  0005e	c3		 ret	 0
__catch$??1CGdiObject@@UAE@XZ$0:

; 77   : 	AFX_END_DESTRUCTOR

  0005f	8d 8d e8 fd ff
	ff		 lea	 ecx, DWORD PTR _strMsg$3[ebp]
  00065	ff 15 00 00 00
	00		 call	 DWORD PTR __imp_??0?$CStringT@DV?$StrTraitMFC_DLL@DV?$ChTraitsCRT@D@ATL@@@@@ATL@@QAE@XZ
  0006b	8b b5 e4 fd ff
	ff		 mov	 esi, DWORD PTR _pException$2[ebp]
  00071	8d 8d ec fd ff
	ff		 lea	 ecx, DWORD PTR _szErrorMessage$4[ebp]
  00077	6a 00		 push	 0
  00079	68 00 02 00 00	 push	 512			; 00000200H
  0007e	51		 push	 ecx
  0007f	8b 06		 mov	 eax, DWORD PTR [esi]
  00081	8b ce		 mov	 ecx, esi
  00083	c6 45 fc 02	 mov	 BYTE PTR __$EHRec$[ebp+12], 2
  00087	ff 50 14	 call	 DWORD PTR [eax+20]
  0008a	85 c0		 test	 eax, eax
  0008c	74 2a		 je	 SHORT $LN9@CGdiObject
  0008e	8d 85 ec fd ff
	ff		 lea	 eax, DWORD PTR _szErrorMessage$4[ebp]
  00094	50		 push	 eax
  00095	6a 4d		 push	 77			; 0000004dH
  00097	68 00 00 00 00	 push	 OFFSET ??_C@_0HD@JJCHHHNK@C?3?2Program?5Files?5?$CIx86?$CJ?2Microsof@
  0009c	68 00 00 00 00	 push	 OFFSET ??_C@_0BP@OIEOKIDM@Exception?5thrown?5in?5destructor@
  000a1	8d 85 e8 fd ff
	ff		 lea	 eax, DWORD PTR _strMsg$3[ebp]
  000a7	68 00 00 00 00	 push	 OFFSET ??_C@_0BB@HBOOMJBF@?$CFTs?5?$CI?$CFTs?3?$CFd?$CJ?6?$CFTs@
  000ac	50		 push	 eax
  000ad	ff 15 00 00 00
	00		 call	 DWORD PTR __imp_?Format@?$CStringT@DV?$StrTraitMFC_DLL@DV?$ChTraitsCRT@D@ATL@@@@@ATL@@QAAXPBDZZ
  000b3	83 c4 18	 add	 esp, 24			; 00000018H
  000b6	eb 21		 jmp	 SHORT $LN10@CGdiObject
$LN9@CGdiObject:
  000b8	6a 4d		 push	 77			; 0000004dH
  000ba	68 00 00 00 00	 push	 OFFSET ??_C@_0HD@JJCHHHNK@C?3?2Program?5Files?5?$CIx86?$CJ?2Microsof@
  000bf	68 00 00 00 00	 push	 OFFSET ??_C@_0BP@OIEOKIDM@Exception?5thrown?5in?5destructor@
  000c4	8d 85 e8 fd ff
	ff		 lea	 eax, DWORD PTR _strMsg$3[ebp]
  000ca	68 00 00 00 00	 push	 OFFSET ??_C@_0N@OMEMOKLE@?$CFTs?5?$CI?$CFTs?3?$CFd?$CJ@
  000cf	50		 push	 eax
  000d0	ff 15 00 00 00
	00		 call	 DWORD PTR __imp_?Format@?$CStringT@DV?$StrTraitMFC_DLL@DV?$ChTraitsCRT@D@ATL@@@@@ATL@@QAAXPBDZZ
  000d6	83 c4 14	 add	 esp, 20			; 00000014H
$LN10@CGdiObject:
  000d9	6a 00		 push	 0
  000db	6a 00		 push	 0
  000dd	ff b5 e8 fd ff
	ff		 push	 DWORD PTR _strMsg$3[ebp]
  000e3	e8 00 00 00 00	 call	 ?AfxMessageBox@@YGHPBDII@Z ; AfxMessageBox
  000e8	8d 8d e8 fd ff
	ff		 lea	 ecx, DWORD PTR _strMsg$3[ebp]
  000ee	ff 15 00 00 00
	00		 call	 DWORD PTR __imp_??1?$CStringT@DV?$StrTraitMFC_DLL@DV?$ChTraitsCRT@D@ATL@@@@@ATL@@QAE@XZ
  000f4	8b 06		 mov	 eax, DWORD PTR [esi]
  000f6	8b ce		 mov	 ecx, esi
  000f8	6a 01		 push	 1
  000fa	ff 50 04	 call	 DWORD PTR [eax+4]
  000fd	b8 00 00 00 00	 mov	 eax, $LN18@CGdiObject
  00102	c3		 ret	 0
_TEXT	ENDS
;	COMDAT text$x
text$x	SEGMENT
__unwindfunclet$??1CGdiObject@@UAE@XZ$2:
  00000	8d 8d e8 fd ff
	ff		 lea	 ecx, DWORD PTR _strMsg$3[ebp]
  00006	ff 25 00 00 00
	00		 jmp	 DWORD PTR __imp_??1?$CStringT@DV?$StrTraitMFC_DLL@DV?$ChTraitsCRT@D@ATL@@@@@ATL@@QAE@XZ
  0000c	cc		 int	 3
  0000d	cc		 int	 3
  0000e	cc		 int	 3
  0000f	cc		 int	 3
  00010	cc		 int	 3
__ehhandler$??1CGdiObject@@UAE@XZ:
  00011	90		 npad	 1
  00012	90		 npad	 1
  00013	8b 54 24 08	 mov	 edx, DWORD PTR [esp+8]
  00017	8d 42 0c	 lea	 eax, DWORD PTR [edx+12]
  0001a	8b 8a e0 fd ff
	ff		 mov	 ecx, DWORD PTR [edx-544]
  00020	33 c8		 xor	 ecx, eax
  00022	e8 00 00 00 00	 call	 @__security_check_cookie@4
  00027	8b 4a f8	 mov	 ecx, DWORD PTR [edx-8]
  0002a	33 c8		 xor	 ecx, eax
  0002c	e8 00 00 00 00	 call	 @__security_check_cookie@4
  00031	b8 00 00 00 00	 mov	 eax, OFFSET __ehfuncinfo$??1CGdiObject@@UAE@XZ
  00036	e9 00 00 00 00	 jmp	 ___CxxFrameHandler3
text$x	ENDS
??1CGdiObject@@UAE@XZ ENDP				; CGdiObject::~CGdiObject
; Function compile flags: /Ogtp
; File C:\Program Files (x86)\Microsoft Visual Studio\2019\Community\VC\Tools\MSVC\14.29.30133\atlmfc\include\afx.inl
;	COMDAT ?Dump@CObject@@UBEXAAVCDumpContext@@@Z
_TEXT	SEGMENT
___formal$ = 8						; size = 4
?Dump@CObject@@UBEXAAVCDumpContext@@@Z PROC		; CObject::Dump, COMDAT
; _this$ = ecx

; 122  : 	{ /* no dumping in release builds */ }

  00000	c2 04 00	 ret	 4
?Dump@CObject@@UBEXAAVCDumpContext@@@Z ENDP		; CObject::Dump
_TEXT	ENDS
; Function compile flags: /Ogtp
; File C:\Program Files (x86)\Microsoft Visual Studio\2019\Community\VC\Tools\MSVC\14.29.30133\atlmfc\include\afx.inl
;	COMDAT ?AssertValid@CObject@@UBEXXZ
_TEXT	SEGMENT
?AssertValid@CObject@@UBEXXZ PROC			; CObject::AssertValid, COMDAT
; _this$ = ecx

; 120  : 	{ /* no asserts in release builds */ }

  00000	c2 00 00	 ret	 0
?AssertValid@CObject@@UBEXXZ ENDP			; CObject::AssertValid
_TEXT	ENDS
; Function compile flags: /Ogtp
; File C:\Program Files (x86)\Microsoft Visual Studio\2019\Community\VC\Tools\MSVC\14.29.30133\atlmfc\include\afx.inl
;	COMDAT ?Serialize@CObject@@UAEXAAVCArchive@@@Z
_TEXT	SEGMENT
___formal$ = 8						; size = 4
?Serialize@CObject@@UAEXAAVCArchive@@@Z PROC		; CObject::Serialize, COMDAT
; _this$ = ecx

; 106  : 	{ /* CObject does not serialize anything by default */ }

  00000	c2 04 00	 ret	 4
?Serialize@CObject@@UAEXAAVCArchive@@@Z ENDP		; CObject::Serialize
_TEXT	ENDS
; Function compile flags: /Ogtp
; File C:\Program Files (x86)\Microsoft Visual Studio\2019\Community\VC\Tools\MSVC\14.29.30133\atlmfc\include\afx.inl
;	COMDAT ??3CObject@@SGXPAX@Z
_TEXT	SEGMENT
_p$ = 8							; size = 4
??3CObject@@SGXPAX@Z PROC				; CObject::operator delete, COMDAT

; 112  : 	{ ::operator delete(p); }

  00000	55		 push	 ebp
  00001	8b ec		 mov	 ebp, esp
  00003	ff 75 08	 push	 DWORD PTR _p$[ebp]
  00006	e8 00 00 00 00	 call	 ??3@YAXPAX@Z		; operator delete
  0000b	83 c4 04	 add	 esp, 4
  0000e	5d		 pop	 ebp
  0000f	c2 04 00	 ret	 4
??3CObject@@SGXPAX@Z ENDP				; CObject::operator delete
_TEXT	ENDS
; Function compile flags: /Ogtp
; File C:\Program Files (x86)\Microsoft Visual Studio\2019\Community\VC\Tools\MSVC\14.29.30133\atlmfc\include\afx.inl
;	COMDAT ??1CObject@@UAE@XZ
_TEXT	SEGMENT
??1CObject@@UAE@XZ PROC					; CObject::~CObject, COMDAT
; _this$ = ecx

; 104  : 	{ }

  00000	c2 00 00	 ret	 0
??1CObject@@UAE@XZ ENDP					; CObject::~CObject
_TEXT	ENDS
; Function compile flags: /Ogtp
; File D:\git\src\IBK\IBK_DRFN\ProjSrc\SrcChartEx\ChartAddIn\ChartDesignPropertyAddIn\ChartDesignPropertyAddIn\ColourPicker.cpp
;	COMDAT ?__empty_global_delete@@YAXPAXI@Z
_TEXT	SEGMENT
___formal$ = 8						; size = 4
___formal$ = 12						; size = 4
?__empty_global_delete@@YAXPAXI@Z PROC			; __empty_global_delete, COMDAT

  00000	c2 00 00	 ret	 0
?__empty_global_delete@@YAXPAXI@Z ENDP			; __empty_global_delete
_TEXT	ENDS
; Function compile flags: /Ogtp
; File D:\git\src\IBK\IBK_DRFN\ProjSrc\SrcChartEx\ChartAddIn\ChartDesignPropertyAddIn\ChartDesignPropertyAddIn\ColourPicker.cpp
;	COMDAT ?__empty_global_delete@@YAXPAX@Z
_TEXT	SEGMENT
___formal$ = 8						; size = 4
?__empty_global_delete@@YAXPAX@Z PROC			; __empty_global_delete, COMDAT

  00000	c2 00 00	 ret	 0
?__empty_global_delete@@YAXPAX@Z ENDP			; __empty_global_delete
_TEXT	ENDS
END
