; Listing generated by Microsoft (R) Optimizing Compiler Version 19.29.30145.0 

	TITLE	D:\git\src\IBK\IBK_DRFN\#DRfn-CS\_Obj\ChartDesignPropertyAddIn\ComboEdit.obj
	.686P
	.XMM
	include listing.inc
	.model	flat

INCLUDELIB MSVCRT
INCLUDELIB OLDNAMES

PUBLIC	?__empty_global_delete@@YAXPAX@Z		; __empty_global_delete
PUBLIC	?__empty_global_delete@@YAXPAXI@Z		; __empty_global_delete
PUBLIC	??1CObject@@UAE@XZ				; CObject::~CObject
PUBLIC	?Serialize@CObject@@UAEXAAVCArchive@@@Z		; CObject::Serialize
PUBLIC	?AssertValid@CObject@@UBEXXZ			; CObject::AssertValid
PUBLIC	?Dump@CObject@@UBEXAAVCDumpContext@@@Z		; CObject::Dump
PUBLIC	??1CGdiObject@@UAE@XZ				; CGdiObject::~CGdiObject
PUBLIC	??_GCGdiObject@@UAEPAXI@Z			; CGdiObject::`scalar deleting destructor'
PUBLIC	??1CBrush@@UAE@XZ				; CBrush::~CBrush
PUBLIC	??_GCBrush@@UAEPAXI@Z				; CBrush::`scalar deleting destructor'
PUBLIC	?OnKillFocus@CWnd@@IAEXPAV1@@Z			; CWnd::OnKillFocus
PUBLIC	?DoDataExchange@CWnd@@MAEXPAVCDataExchange@@@Z	; CWnd::DoDataExchange
PUBLIC	?BeginModalState@CWnd@@UAEXXZ			; CWnd::BeginModalState
PUBLIC	?EndModalState@CWnd@@UAEXXZ			; CWnd::EndModalState
PUBLIC	??_GCEdit@@UAEPAXI@Z				; CEdit::`scalar deleting destructor'
PUBLIC	??0CComboEdit@@QAE@XZ				; CComboEdit::CComboEdit
PUBLIC	??1CComboEdit@@UAE@XZ				; CComboEdit::~CComboEdit
PUBLIC	?OnChar@CComboEdit@@IAEXIII@Z			; CComboEdit::OnChar
PUBLIC	?OnContextMenu@CComboEdit@@IAEXPAVCWnd@@VCPoint@@@Z ; CComboEdit::OnContextMenu
PUBLIC	?OnLButtonDown@CComboEdit@@IAEXIVCPoint@@@Z	; CComboEdit::OnLButtonDown
PUBLIC	?OnPaint@CComboEdit@@IAEXXZ			; CComboEdit::OnPaint
PUBLIC	?OnMouseActivate@CComboEdit@@IAEHPAVCWnd@@II@Z	; CComboEdit::OnMouseActivate
PUBLIC	?OnActivate@CComboEdit@@IAEXIPAVCWnd@@H@Z	; CComboEdit::OnActivate
PUBLIC	?OnSetfocus@CComboEdit@@IAEXXZ			; CComboEdit::OnSetfocus
PUBLIC	?OnMouseMove@CComboEdit@@IAEXIVCPoint@@@Z	; CComboEdit::OnMouseMove
PUBLIC	?OnKillfocus@CComboEdit@@IAEXXZ			; CComboEdit::OnKillfocus
PUBLIC	?OnLButtonDblClk@CComboEdit@@IAEXIVCPoint@@@Z	; CComboEdit::OnLButtonDblClk
PUBLIC	?OnIgnoreMessage@CComboEdit@@IAEJIJ@Z		; CComboEdit::OnIgnoreMessage
PUBLIC	?GetThisMessageMap@CComboEdit@@KGPBUAFX_MSGMAP@@XZ ; CComboEdit::GetThisMessageMap
PUBLIC	?GetMessageMap@CComboEdit@@MBEPBUAFX_MSGMAP@@XZ	; CComboEdit::GetMessageMap
PUBLIC	??_GCComboEdit@@UAEPAXI@Z			; CComboEdit::`scalar deleting destructor'
PUBLIC	??_R0PAVCException@@@8				; CException * `RTTI Type Descriptor'
PUBLIC	??_7CGdiObject@@6B@				; CGdiObject::`vftable'
PUBLIC	??_7CBrush@@6B@					; CBrush::`vftable'
PUBLIC	??_7CEdit@@6B@					; CEdit::`vftable'
PUBLIC	??_C@_0HD@JJCHHHNK@C?3?2Program?5Files?5?$CIx86?$CJ?2Microsof@ ; `string'
PUBLIC	??_C@_0BP@OIEOKIDM@Exception?5thrown?5in?5destructor@ ; `string'
PUBLIC	??_C@_0BB@HBOOMJBF@?$CFTs?5?$CI?$CFTs?3?$CFd?$CJ?6?$CFTs@ ; `string'
PUBLIC	??_C@_0N@OMEMOKLE@?$CFTs?5?$CI?$CFTs?3?$CFd?$CJ@ ; `string'
PUBLIC	??_R0?AVCObject@@@8				; CObject `RTTI Type Descriptor'
PUBLIC	??_R3CObject@@8					; CObject::`RTTI Class Hierarchy Descriptor'
PUBLIC	??_R2CObject@@8					; CObject::`RTTI Base Class Array'
PUBLIC	??_R1A@?0A@EA@CObject@@8			; CObject::`RTTI Base Class Descriptor at (0,-1,0,64)'
PUBLIC	??_R4CGdiObject@@6B@				; CGdiObject::`RTTI Complete Object Locator'
PUBLIC	??_R0?AVCGdiObject@@@8				; CGdiObject `RTTI Type Descriptor'
PUBLIC	??_R3CGdiObject@@8				; CGdiObject::`RTTI Class Hierarchy Descriptor'
PUBLIC	??_R2CGdiObject@@8				; CGdiObject::`RTTI Base Class Array'
PUBLIC	??_R1A@?0A@EA@CGdiObject@@8			; CGdiObject::`RTTI Base Class Descriptor at (0,-1,0,64)'
PUBLIC	??_R4CBrush@@6B@				; CBrush::`RTTI Complete Object Locator'
PUBLIC	??_R0?AVCBrush@@@8				; CBrush `RTTI Type Descriptor'
PUBLIC	??_R3CBrush@@8					; CBrush::`RTTI Class Hierarchy Descriptor'
PUBLIC	??_R2CBrush@@8					; CBrush::`RTTI Base Class Array'
PUBLIC	??_R1A@?0A@EA@CBrush@@8				; CBrush::`RTTI Base Class Descriptor at (0,-1,0,64)'
PUBLIC	??_R1A@?0A@EA@CWnd@@8				; CWnd::`RTTI Base Class Descriptor at (0,-1,0,64)'
PUBLIC	??_R0?AVCWnd@@@8				; CWnd `RTTI Type Descriptor'
PUBLIC	??_R3CWnd@@8					; CWnd::`RTTI Class Hierarchy Descriptor'
PUBLIC	??_R2CWnd@@8					; CWnd::`RTTI Base Class Array'
PUBLIC	??_R1A@?0A@EA@CCmdTarget@@8			; CCmdTarget::`RTTI Base Class Descriptor at (0,-1,0,64)'
PUBLIC	??_R0?AVCCmdTarget@@@8				; CCmdTarget `RTTI Type Descriptor'
PUBLIC	??_R3CCmdTarget@@8				; CCmdTarget::`RTTI Class Hierarchy Descriptor'
PUBLIC	??_R2CCmdTarget@@8				; CCmdTarget::`RTTI Base Class Array'
PUBLIC	??_R4CEdit@@6B@					; CEdit::`RTTI Complete Object Locator'
PUBLIC	??_R0?AVCEdit@@@8				; CEdit `RTTI Type Descriptor'
PUBLIC	??_R3CEdit@@8					; CEdit::`RTTI Class Hierarchy Descriptor'
PUBLIC	??_R2CEdit@@8					; CEdit::`RTTI Base Class Array'
PUBLIC	??_R1A@?0A@EA@CEdit@@8				; CEdit::`RTTI Base Class Descriptor at (0,-1,0,64)'
PUBLIC	??_7CComboEdit@@6B@				; CComboEdit::`vftable'
PUBLIC	??_R4CComboEdit@@6B@				; CComboEdit::`RTTI Complete Object Locator'
PUBLIC	??_R0?AVCComboEdit@@@8				; CComboEdit `RTTI Type Descriptor'
PUBLIC	??_R3CComboEdit@@8				; CComboEdit::`RTTI Class Hierarchy Descriptor'
PUBLIC	??_R2CComboEdit@@8				; CComboEdit::`RTTI Base Class Array'
PUBLIC	??_R1A@?0A@EA@CComboEdit@@8			; CComboEdit::`RTTI Base Class Descriptor at (0,-1,0,64)'
EXTRN	??3@YAXPAX@Z:PROC				; operator delete
EXTRN	?__global_delete@@YAXPAXI@Z:PROC		; __global_delete
EXTRN	__imp__SendMessageA@16:PROC
EXTRN	__imp__EnableWindow@8:PROC
EXTRN	__imp__GetSystemMetrics@4:PROC
EXTRN	__imp__InvalidateRect@12:PROC
EXTRN	__imp__GetClientRect@8:PROC
EXTRN	__imp__HideCaret@4:PROC
EXTRN	__imp__ShowCaret@4:PROC
EXTRN	__imp__GetSysColor@4:PROC
EXTRN	__imp__DrawFocusRect@8:PROC
EXTRN	__imp__FillRect@12:PROC
EXTRN	__imp__GetParent@4:PROC
EXTRN	__imp_??0?$CStringT@DV?$StrTraitMFC_DLL@DV?$ChTraitsCRT@D@ATL@@@@@ATL@@QAE@XZ:PROC
EXTRN	__imp_??1?$CStringT@DV?$StrTraitMFC_DLL@DV?$ChTraitsCRT@D@ATL@@@@@ATL@@QAE@XZ:PROC
EXTRN	__imp_?Format@?$CStringT@DV?$StrTraitMFC_DLL@DV?$ChTraitsCRT@D@ATL@@@@@ATL@@QAAXPBDZZ:PROC
EXTRN	?GetRuntimeClass@CGdiObject@@UBEPAUCRuntimeClass@@XZ:PROC ; CGdiObject::GetRuntimeClass
EXTRN	?FromHandle@CGdiObject@@SGPAV1@PAX@Z:PROC	; CGdiObject::FromHandle
EXTRN	?DeleteObject@CGdiObject@@QAEHXZ:PROC		; CGdiObject::DeleteObject
EXTRN	??_ECGdiObject@@UAEPAXI@Z:PROC			; CGdiObject::`vector deleting destructor'
EXTRN	?GetRuntimeClass@CBrush@@UBEPAUCRuntimeClass@@XZ:PROC ; CBrush::GetRuntimeClass
EXTRN	??0CBrush@@QAE@K@Z:PROC				; CBrush::CBrush
EXTRN	??_ECBrush@@UAEPAXI@Z:PROC			; CBrush::`vector deleting destructor'
EXTRN	?SelectObject@CDC@@UAEPAVCFont@@PAV2@@Z:PROC	; CDC::SelectObject
EXTRN	?SetBkColor@CDC@@UAEKK@Z:PROC			; CDC::SetBkColor
EXTRN	?SetTextColor@CDC@@UAEKK@Z:PROC			; CDC::SetTextColor
EXTRN	??0CPaintDC@@QAE@PAVCWnd@@@Z:PROC		; CPaintDC::CPaintDC
EXTRN	??1CPaintDC@@UAE@XZ:PROC			; CPaintDC::~CPaintDC
EXTRN	?OnCmdMsg@CCmdTarget@@UAEHIHPAXPAUAFX_CMDHANDLERINFO@@@Z:PROC ; CCmdTarget::OnCmdMsg
EXTRN	?IsInvokeAllowed@CCmdTarget@@UAEHJ@Z:PROC	; CCmdTarget::IsInvokeAllowed
EXTRN	?GetDispatchIID@CCmdTarget@@UAEHPAU_GUID@@@Z:PROC ; CCmdTarget::GetDispatchIID
EXTRN	?GetTypeInfoCount@CCmdTarget@@UAEIXZ:PROC	; CCmdTarget::GetTypeInfoCount
EXTRN	?GetTypeLibCache@CCmdTarget@@UAEPAVCTypeLibCache@@XZ:PROC ; CCmdTarget::GetTypeLibCache
EXTRN	?GetTypeLib@CCmdTarget@@UAEJKPAPAUITypeLib@@@Z:PROC ; CCmdTarget::GetTypeLib
EXTRN	?GetCommandMap@CCmdTarget@@MBEPBUAFX_OLECMDMAP@@XZ:PROC ; CCmdTarget::GetCommandMap
EXTRN	?GetDispatchMap@CCmdTarget@@MBEPBUAFX_DISPMAP@@XZ:PROC ; CCmdTarget::GetDispatchMap
EXTRN	?GetConnectionMap@CCmdTarget@@MBEPBUAFX_CONNECTIONMAP@@XZ:PROC ; CCmdTarget::GetConnectionMap
EXTRN	?GetEventSinkMap@CCmdTarget@@MBEPBUAFX_EVENTSINKMAP@@XZ:PROC ; CCmdTarget::GetEventSinkMap
EXTRN	?OnCreateAggregates@CCmdTarget@@UAEHXZ:PROC	; CCmdTarget::OnCreateAggregates
EXTRN	?GetInterfaceHook@CCmdTarget@@UAEPAUIUnknown@@PBX@Z:PROC ; CCmdTarget::GetInterfaceHook
EXTRN	?GetExtraConnectionPoints@CCmdTarget@@MAEHPAVCPtrArray@@@Z:PROC ; CCmdTarget::GetExtraConnectionPoints
EXTRN	?GetConnectionHook@CCmdTarget@@MAEPAUIConnectionPoint@@ABU_GUID@@@Z:PROC ; CCmdTarget::GetConnectionHook
EXTRN	??0CWnd@@QAE@XZ:PROC				; CWnd::CWnd
EXTRN	?FromHandle@CWnd@@SGPAV1@PAUHWND__@@@Z:PROC	; CWnd::FromHandle
EXTRN	?PreSubclassWindow@CWnd@@UAEXXZ:PROC		; CWnd::PreSubclassWindow
EXTRN	?Create@CWnd@@UAEHPBD0KABUtagRECT@@PAV1@IPAUCCreateContext@@@Z:PROC ; CWnd::Create
EXTRN	?CreateEx@CWnd@@UAEHKPBD0KHHHHPAUHWND__@@PAUHMENU__@@PAX@Z:PROC ; CWnd::CreateEx
EXTRN	?CreateEx@CWnd@@UAEHKPBD0KABUtagRECT@@PAV1@IPAX@Z:PROC ; CWnd::CreateEx
EXTRN	?DestroyWindow@CWnd@@UAEHXZ:PROC		; CWnd::DestroyWindow
EXTRN	?PreCreateWindow@CWnd@@UAEHAAUtagCREATESTRUCTA@@@Z:PROC ; CWnd::PreCreateWindow
EXTRN	?CalcWindowRect@CWnd@@UAEXPAUtagRECT@@I@Z:PROC	; CWnd::CalcWindowRect
EXTRN	?GetWindowTextA@CWnd@@QBEXAAV?$CStringT@DV?$StrTraitMFC_DLL@DV?$ChTraitsCRT@D@ATL@@@@@ATL@@@Z:PROC ; CWnd::GetWindowTextA
EXTRN	?GetMenu@CWnd@@UBEPAVCMenu@@XZ:PROC		; CWnd::GetMenu
EXTRN	?SetMenu@CWnd@@UAEHPAVCMenu@@@Z:PROC		; CWnd::SetMenu
EXTRN	?OnToolHitTest@CWnd@@UBEHVCPoint@@PAUtagTOOLINFOA@@@Z:PROC ; CWnd::OnToolHitTest
EXTRN	?GetScrollBarCtrl@CWnd@@UBEPAVCScrollBar@@H@Z:PROC ; CWnd::GetScrollBarCtrl
EXTRN	?WinHelpA@CWnd@@UAEXKI@Z:PROC			; CWnd::WinHelpA
EXTRN	?HtmlHelpA@CWnd@@UAEXKI@Z:PROC			; CWnd::HtmlHelpA
EXTRN	?WinHelpInternal@CWnd@@UAEXKI@Z:PROC		; CWnd::WinHelpInternal
EXTRN	?ContinueModal@CWnd@@UAEHXZ:PROC		; CWnd::ContinueModal
EXTRN	?EndModalLoop@CWnd@@UAEXH@Z:PROC		; CWnd::EndModalLoop
EXTRN	?OnDrawIconicThumbnailOrLivePreview@CWnd@@UAEXAAVCDC@@VCRect@@VCSize@@HAAH@Z:PROC ; CWnd::OnDrawIconicThumbnailOrLivePreview
EXTRN	?GetInterfaceMap@CWnd@@MBEPBUAFX_INTERFACEMAP@@XZ:PROC ; CWnd::GetInterfaceMap
EXTRN	?EnsureStdObj@CWnd@@UAEJXZ:PROC			; CWnd::EnsureStdObj
EXTRN	?get_accParent@CWnd@@UAEJPAPAUIDispatch@@@Z:PROC ; CWnd::get_accParent
EXTRN	?get_accChildCount@CWnd@@UAEJPAJ@Z:PROC		; CWnd::get_accChildCount
EXTRN	?get_accChild@CWnd@@UAEJUtagVARIANT@@PAPAUIDispatch@@@Z:PROC ; CWnd::get_accChild
EXTRN	?get_accName@CWnd@@UAEJUtagVARIANT@@PAPA_W@Z:PROC ; CWnd::get_accName
EXTRN	?get_accValue@CWnd@@UAEJUtagVARIANT@@PAPA_W@Z:PROC ; CWnd::get_accValue
EXTRN	?get_accDescription@CWnd@@UAEJUtagVARIANT@@PAPA_W@Z:PROC ; CWnd::get_accDescription
EXTRN	?get_accRole@CWnd@@UAEJUtagVARIANT@@PAU2@@Z:PROC ; CWnd::get_accRole
EXTRN	?get_accState@CWnd@@UAEJUtagVARIANT@@PAU2@@Z:PROC ; CWnd::get_accState
EXTRN	?get_accHelp@CWnd@@UAEJUtagVARIANT@@PAPA_W@Z:PROC ; CWnd::get_accHelp
EXTRN	?get_accHelpTopic@CWnd@@UAEJPAPA_WUtagVARIANT@@PAJ@Z:PROC ; CWnd::get_accHelpTopic
EXTRN	?get_accKeyboardShortcut@CWnd@@UAEJUtagVARIANT@@PAPA_W@Z:PROC ; CWnd::get_accKeyboardShortcut
EXTRN	?get_accFocus@CWnd@@UAEJPAUtagVARIANT@@@Z:PROC	; CWnd::get_accFocus
EXTRN	?get_accSelection@CWnd@@UAEJPAUtagVARIANT@@@Z:PROC ; CWnd::get_accSelection
EXTRN	?get_accDefaultAction@CWnd@@UAEJUtagVARIANT@@PAPA_W@Z:PROC ; CWnd::get_accDefaultAction
EXTRN	?accSelect@CWnd@@UAEJJUtagVARIANT@@@Z:PROC	; CWnd::accSelect
EXTRN	?accLocation@CWnd@@UAEJPAJ000UtagVARIANT@@@Z:PROC ; CWnd::accLocation
EXTRN	?accNavigate@CWnd@@UAEJJUtagVARIANT@@PAU2@@Z:PROC ; CWnd::accNavigate
EXTRN	?accHitTest@CWnd@@UAEJJJPAUtagVARIANT@@@Z:PROC	; CWnd::accHitTest
EXTRN	?accDoDefaultAction@CWnd@@UAEJUtagVARIANT@@@Z:PROC ; CWnd::accDoDefaultAction
EXTRN	?put_accName@CWnd@@UAEJUtagVARIANT@@PA_W@Z:PROC	; CWnd::put_accName
EXTRN	?put_accValue@CWnd@@UAEJUtagVARIANT@@PA_W@Z:PROC ; CWnd::put_accValue
EXTRN	?SetProxy@CWnd@@UAEJPAUIAccessibleProxy@@@Z:PROC ; CWnd::SetProxy
EXTRN	?CreateAccessibleProxy@CWnd@@UAEJIJPAJ@Z:PROC	; CWnd::CreateAccessibleProxy
EXTRN	?OnCommand@CWnd@@MAEHIJ@Z:PROC			; CWnd::OnCommand
EXTRN	?OnNotify@CWnd@@MAEHIJPAJ@Z:PROC		; CWnd::OnNotify
EXTRN	?GetSuperWndProcAddr@CWnd@@MAEPAP6GJPAUHWND__@@IIJ@ZXZ:PROC ; CWnd::GetSuperWndProcAddr
EXTRN	?PreTranslateMessage@CWnd@@UAEHPAUtagMSG@@@Z:PROC ; CWnd::PreTranslateMessage
EXTRN	?OnAmbientProperty@CWnd@@UAEHPAVCOleControlSite@@JPAUtagVARIANT@@@Z:PROC ; CWnd::OnAmbientProperty
EXTRN	?WindowProc@CWnd@@MAEJIIJ@Z:PROC		; CWnd::WindowProc
EXTRN	?OnWndMsg@CWnd@@MAEHIIJPAJ@Z:PROC		; CWnd::OnWndMsg
EXTRN	?Default@CWnd@@IAEJXZ:PROC			; CWnd::Default
EXTRN	?DefWindowProcA@CWnd@@MAEJIIJ@Z:PROC		; CWnd::DefWindowProcA
EXTRN	?PostNcDestroy@CWnd@@MAEXXZ:PROC		; CWnd::PostNcDestroy
EXTRN	?OnChildNotify@CWnd@@MAEHIIJPAJ@Z:PROC		; CWnd::OnChildNotify
EXTRN	?OnTouchInputs@CWnd@@MAEHIPAUtagTOUCHINPUT@@@Z:PROC ; CWnd::OnTouchInputs
EXTRN	?OnTouchInput@CWnd@@MAEHVCPoint@@HHPAUtagTOUCHINPUT@@@Z:PROC ; CWnd::OnTouchInput
EXTRN	?GetGestureStatus@CWnd@@MAEKVCPoint@@@Z:PROC	; CWnd::GetGestureStatus
EXTRN	?OnGestureZoom@CWnd@@MAEHVCPoint@@J@Z:PROC	; CWnd::OnGestureZoom
EXTRN	?OnGesturePan@CWnd@@MAEHVCPoint@@0@Z:PROC	; CWnd::OnGesturePan
EXTRN	?OnGestureRotate@CWnd@@MAEHVCPoint@@N@Z:PROC	; CWnd::OnGestureRotate
EXTRN	?OnGestureTwoFingerTap@CWnd@@MAEHVCPoint@@@Z:PROC ; CWnd::OnGestureTwoFingerTap
EXTRN	?OnGesturePressAndTap@CWnd@@MAEHVCPoint@@J@Z:PROC ; CWnd::OnGesturePressAndTap
EXTRN	?ResizeDynamicLayout@CWnd@@MAEXXZ:PROC		; CWnd::ResizeDynamicLayout
EXTRN	?CheckAutoCenter@CWnd@@UAEHXZ:PROC		; CWnd::CheckAutoCenter
EXTRN	?IsFrameWnd@CWnd@@UBEHXZ:PROC			; CWnd::IsFrameWnd
EXTRN	?OnFinalRelease@CWnd@@UAEXXZ:PROC		; CWnd::OnFinalRelease
EXTRN	?CreateControlContainer@CWnd@@MAEHPAPAVCOleControlContainer@@@Z:PROC ; CWnd::CreateControlContainer
EXTRN	?CreateControlSite@CWnd@@MAEHPAVCOleControlContainer@@PAPAVCOleControlSite@@IABU_GUID@@@Z:PROC ; CWnd::CreateControlSite
EXTRN	?SetOccDialogInfo@CWnd@@MAEHPAU_AFX_OCC_DIALOG_INFO@@@Z:PROC ; CWnd::SetOccDialogInfo
EXTRN	?GetOccDialogInfo@CWnd@@MAEPAU_AFX_OCC_DIALOG_INFO@@XZ:PROC ; CWnd::GetOccDialogInfo
EXTRN	?GetThisMessageMap@CWnd@@KGPBUAFX_MSGMAP@@XZ:PROC ; CWnd::GetThisMessageMap
EXTRN	?GetMessageMap@CWnd@@MBEPBUAFX_MSGMAP@@XZ:PROC	; CWnd::GetMessageMap
EXTRN	?GetRuntimeClass@CEdit@@UBEPAUCRuntimeClass@@XZ:PROC ; CEdit::GetRuntimeClass
EXTRN	??1CEdit@@UAE@XZ:PROC				; CEdit::~CEdit
EXTRN	??_ECEdit@@UAEPAXI@Z:PROC			; CEdit::`vector deleting destructor'
EXTRN	?AfxMessageBox@@YGHPBDII@Z:PROC			; AfxMessageBox
EXTRN	??_ECComboEdit@@UAEPAXI@Z:PROC			; CComboEdit::`vector deleting destructor'
EXTRN	?IsEditHighlightOn@CTreeCombo@@IAEHXZ:PROC	; CTreeCombo::IsEditHighlightOn
EXTRN	@__security_check_cookie@4:PROC
EXTRN	___CxxFrameHandler3:PROC
EXTRN	??_7type_info@@6B@:QWORD			; type_info::`vftable'
EXTRN	___security_cookie:DWORD
;	COMDAT ??_R1A@?0A@EA@CComboEdit@@8
rdata$r	SEGMENT
??_R1A@?0A@EA@CComboEdit@@8 DD FLAT:??_R0?AVCComboEdit@@@8 ; CComboEdit::`RTTI Base Class Descriptor at (0,-1,0,64)'
	DD	04H
	DD	00H
	DD	0ffffffffH
	DD	00H
	DD	040H
	DD	FLAT:??_R3CComboEdit@@8
rdata$r	ENDS
;	COMDAT ??_R2CComboEdit@@8
rdata$r	SEGMENT
??_R2CComboEdit@@8 DD FLAT:??_R1A@?0A@EA@CComboEdit@@8	; CComboEdit::`RTTI Base Class Array'
	DD	FLAT:??_R1A@?0A@EA@CEdit@@8
	DD	FLAT:??_R1A@?0A@EA@CWnd@@8
	DD	FLAT:??_R1A@?0A@EA@CCmdTarget@@8
	DD	FLAT:??_R1A@?0A@EA@CObject@@8
rdata$r	ENDS
;	COMDAT ??_R3CComboEdit@@8
rdata$r	SEGMENT
??_R3CComboEdit@@8 DD 00H				; CComboEdit::`RTTI Class Hierarchy Descriptor'
	DD	00H
	DD	05H
	DD	FLAT:??_R2CComboEdit@@8
rdata$r	ENDS
;	COMDAT ??_R0?AVCComboEdit@@@8
data$rs	SEGMENT
??_R0?AVCComboEdit@@@8 DD FLAT:??_7type_info@@6B@	; CComboEdit `RTTI Type Descriptor'
	DD	00H
	DB	'.?AVCComboEdit@@', 00H
data$rs	ENDS
;	COMDAT ??_R4CComboEdit@@6B@
rdata$r	SEGMENT
??_R4CComboEdit@@6B@ DD 00H				; CComboEdit::`RTTI Complete Object Locator'
	DD	00H
	DD	00H
	DD	FLAT:??_R0?AVCComboEdit@@@8
	DD	FLAT:??_R3CComboEdit@@8
rdata$r	ENDS
;	COMDAT ?messageMap@?1??GetThisMessageMap@CComboEdit@@KGPBUAFX_MSGMAP@@XZ@4U3@B
CONST	SEGMENT
?messageMap@?1??GetThisMessageMap@CComboEdit@@KGPBUAFX_MSGMAP@@XZ@4U3@B DD FLAT:?GetThisMessageMap@CWnd@@KGPBUAFX_MSGMAP@@XZ ; `CComboEdit::GetThisMessageMap'::`2'::messageMap
	DD	FLAT:?_messageEntries@?1??GetThisMessageMap@CComboEdit@@KGPBUAFX_MSGMAP@@XZ@4QBUAFX_MSGMAP_ENTRY@@B
CONST	ENDS
;	COMDAT ?_messageEntries@?1??GetThisMessageMap@CComboEdit@@KGPBUAFX_MSGMAP@@XZ@4QBUAFX_MSGMAP_ENTRY@@B
CONST	SEGMENT
?_messageEntries@?1??GetThisMessageMap@CComboEdit@@KGPBUAFX_MSGMAP@@XZ@4QBUAFX_MSGMAP_ENTRY@@B DD 0102H ; `CComboEdit::GetThisMessageMap'::`2'::_messageEntries
	DD	00H
	DD	00H
	DD	00H
	DD	019H
	DD	FLAT:?OnChar@CComboEdit@@IAEXIII@Z
	DD	07bH
	DD	00H
	DD	00H
	DD	00H
	DD	027H
	DD	FLAT:?OnContextMenu@CComboEdit@@IAEXPAVCWnd@@VCPoint@@@Z
	DD	0201H
	DD	00H
	DD	00H
	DD	00H
	DD	036H
	DD	FLAT:?OnLButtonDown@CComboEdit@@IAEXIVCPoint@@@Z
	DD	0fH
	DD	00H
	DD	00H
	DD	00H
	DD	013H
	DD	FLAT:?OnPaint@CComboEdit@@IAEXXZ
	DD	021H
	DD	00H
	DD	00H
	DD	00H
	DD	0cH
	DD	FLAT:?OnMouseActivate@CComboEdit@@IAEHPAVCWnd@@II@Z
	DD	06H
	DD	00H
	DD	00H
	DD	00H
	DD	02aH
	DD	FLAT:?OnActivate@CComboEdit@@IAEXIPAVCWnd@@H@Z
	DD	0bd11H
	DD	0100H
	DD	00H
	DD	00H
	DD	03aH
	DD	FLAT:?OnSetfocus@CComboEdit@@IAEXXZ
	DD	0200H
	DD	00H
	DD	00H
	DD	00H
	DD	036H
	DD	FLAT:?OnMouseMove@CComboEdit@@IAEXIVCPoint@@@Z
	DD	0bd11H
	DD	0200H
	DD	00H
	DD	00H
	DD	03aH
	DD	FLAT:?OnKillfocus@CComboEdit@@IAEXXZ
	DD	0203H
	DD	00H
	DD	00H
	DD	00H
	DD	036H
	DD	FLAT:?OnLButtonDblClk@CComboEdit@@IAEXIVCPoint@@@Z
	DD	08H
	DD	00H
	DD	00H
	DD	00H
	DD	024H
	DD	FLAT:?OnKillFocus@CWnd@@IAEXPAV1@@Z
	DD	0302H
	DD	00H
	DD	00H
	DD	00H
	DD	0eH
	DD	FLAT:?OnIgnoreMessage@CComboEdit@@IAEJIJ@Z
	DD	0300H
	DD	00H
	DD	00H
	DD	00H
	DD	0eH
	DD	FLAT:?OnIgnoreMessage@CComboEdit@@IAEJIJ@Z
	DD	0303H
	DD	00H
	DD	00H
	DD	00H
	DD	0eH
	DD	FLAT:?OnIgnoreMessage@CComboEdit@@IAEJIJ@Z
	DD	00H
	DD	00H
	DD	00H
	DD	00H
	DD	00H
	DD	00H
CONST	ENDS
;	COMDAT ??_7CComboEdit@@6B@
CONST	SEGMENT
??_7CComboEdit@@6B@ DD FLAT:??_R4CComboEdit@@6B@	; CComboEdit::`vftable'
	DD	FLAT:?GetRuntimeClass@CEdit@@UBEPAUCRuntimeClass@@XZ
	DD	FLAT:??_ECComboEdit@@UAEPAXI@Z
	DD	FLAT:?Serialize@CObject@@UAEXAAVCArchive@@@Z
	DD	FLAT:?AssertValid@CObject@@UBEXXZ
	DD	FLAT:?Dump@CObject@@UBEXAAVCDumpContext@@@Z
	DD	FLAT:?OnCmdMsg@CCmdTarget@@UAEHIHPAXPAUAFX_CMDHANDLERINFO@@@Z
	DD	FLAT:?OnFinalRelease@CWnd@@UAEXXZ
	DD	FLAT:?IsInvokeAllowed@CCmdTarget@@UAEHJ@Z
	DD	FLAT:?GetDispatchIID@CCmdTarget@@UAEHPAU_GUID@@@Z
	DD	FLAT:?GetTypeInfoCount@CCmdTarget@@UAEIXZ
	DD	FLAT:?GetTypeLibCache@CCmdTarget@@UAEPAVCTypeLibCache@@XZ
	DD	FLAT:?GetTypeLib@CCmdTarget@@UAEJKPAPAUITypeLib@@@Z
	DD	FLAT:?GetMessageMap@CComboEdit@@MBEPBUAFX_MSGMAP@@XZ
	DD	FLAT:?GetCommandMap@CCmdTarget@@MBEPBUAFX_OLECMDMAP@@XZ
	DD	FLAT:?GetDispatchMap@CCmdTarget@@MBEPBUAFX_DISPMAP@@XZ
	DD	FLAT:?GetConnectionMap@CCmdTarget@@MBEPBUAFX_CONNECTIONMAP@@XZ
	DD	FLAT:?GetInterfaceMap@CWnd@@MBEPBUAFX_INTERFACEMAP@@XZ
	DD	FLAT:?GetEventSinkMap@CCmdTarget@@MBEPBUAFX_EVENTSINKMAP@@XZ
	DD	FLAT:?OnCreateAggregates@CCmdTarget@@UAEHXZ
	DD	FLAT:?GetInterfaceHook@CCmdTarget@@UAEPAUIUnknown@@PBX@Z
	DD	FLAT:?GetExtraConnectionPoints@CCmdTarget@@MAEHPAVCPtrArray@@@Z
	DD	FLAT:?GetConnectionHook@CCmdTarget@@MAEPAUIConnectionPoint@@ABU_GUID@@@Z
	DD	FLAT:?PreSubclassWindow@CWnd@@UAEXXZ
	DD	FLAT:?Create@CWnd@@UAEHPBD0KABUtagRECT@@PAV1@IPAUCCreateContext@@@Z
	DD	FLAT:?CreateEx@CWnd@@UAEHKPBD0KABUtagRECT@@PAV1@IPAX@Z
	DD	FLAT:?CreateEx@CWnd@@UAEHKPBD0KHHHHPAUHWND__@@PAUHMENU__@@PAX@Z
	DD	FLAT:?DestroyWindow@CWnd@@UAEHXZ
	DD	FLAT:?PreCreateWindow@CWnd@@UAEHAAUtagCREATESTRUCTA@@@Z
	DD	FLAT:?CalcWindowRect@CWnd@@UAEXPAUtagRECT@@I@Z
	DD	FLAT:?GetMenu@CWnd@@UBEPAVCMenu@@XZ
	DD	FLAT:?SetMenu@CWnd@@UAEHPAVCMenu@@@Z
	DD	FLAT:?OnToolHitTest@CWnd@@UBEHVCPoint@@PAUtagTOOLINFOA@@@Z
	DD	FLAT:?GetScrollBarCtrl@CWnd@@UBEPAVCScrollBar@@H@Z
	DD	FLAT:?WinHelpA@CWnd@@UAEXKI@Z
	DD	FLAT:?HtmlHelpA@CWnd@@UAEXKI@Z
	DD	FLAT:?WinHelpInternal@CWnd@@UAEXKI@Z
	DD	FLAT:?ContinueModal@CWnd@@UAEHXZ
	DD	FLAT:?EndModalLoop@CWnd@@UAEXH@Z
	DD	FLAT:?OnDrawIconicThumbnailOrLivePreview@CWnd@@UAEXAAVCDC@@VCRect@@VCSize@@HAAH@Z
	DD	FLAT:?EnsureStdObj@CWnd@@UAEJXZ
	DD	FLAT:?get_accParent@CWnd@@UAEJPAPAUIDispatch@@@Z
	DD	FLAT:?get_accChildCount@CWnd@@UAEJPAJ@Z
	DD	FLAT:?get_accChild@CWnd@@UAEJUtagVARIANT@@PAPAUIDispatch@@@Z
	DD	FLAT:?get_accName@CWnd@@UAEJUtagVARIANT@@PAPA_W@Z
	DD	FLAT:?get_accValue@CWnd@@UAEJUtagVARIANT@@PAPA_W@Z
	DD	FLAT:?get_accDescription@CWnd@@UAEJUtagVARIANT@@PAPA_W@Z
	DD	FLAT:?get_accRole@CWnd@@UAEJUtagVARIANT@@PAU2@@Z
	DD	FLAT:?get_accState@CWnd@@UAEJUtagVARIANT@@PAU2@@Z
	DD	FLAT:?get_accHelp@CWnd@@UAEJUtagVARIANT@@PAPA_W@Z
	DD	FLAT:?get_accHelpTopic@CWnd@@UAEJPAPA_WUtagVARIANT@@PAJ@Z
	DD	FLAT:?get_accKeyboardShortcut@CWnd@@UAEJUtagVARIANT@@PAPA_W@Z
	DD	FLAT:?get_accFocus@CWnd@@UAEJPAUtagVARIANT@@@Z
	DD	FLAT:?get_accSelection@CWnd@@UAEJPAUtagVARIANT@@@Z
	DD	FLAT:?get_accDefaultAction@CWnd@@UAEJUtagVARIANT@@PAPA_W@Z
	DD	FLAT:?accSelect@CWnd@@UAEJJUtagVARIANT@@@Z
	DD	FLAT:?accLocation@CWnd@@UAEJPAJ000UtagVARIANT@@@Z
	DD	FLAT:?accNavigate@CWnd@@UAEJJUtagVARIANT@@PAU2@@Z
	DD	FLAT:?accHitTest@CWnd@@UAEJJJPAUtagVARIANT@@@Z
	DD	FLAT:?accDoDefaultAction@CWnd@@UAEJUtagVARIANT@@@Z
	DD	FLAT:?put_accName@CWnd@@UAEJUtagVARIANT@@PA_W@Z
	DD	FLAT:?put_accValue@CWnd@@UAEJUtagVARIANT@@PA_W@Z
	DD	FLAT:?SetProxy@CWnd@@UAEJPAUIAccessibleProxy@@@Z
	DD	FLAT:?CreateAccessibleProxy@CWnd@@UAEJIJPAJ@Z
	DD	FLAT:?OnCommand@CWnd@@MAEHIJ@Z
	DD	FLAT:?OnNotify@CWnd@@MAEHIJPAJ@Z
	DD	FLAT:?GetSuperWndProcAddr@CWnd@@MAEPAP6GJPAUHWND__@@IIJ@ZXZ
	DD	FLAT:?DoDataExchange@CWnd@@MAEXPAVCDataExchange@@@Z
	DD	FLAT:?BeginModalState@CWnd@@UAEXXZ
	DD	FLAT:?EndModalState@CWnd@@UAEXXZ
	DD	FLAT:?PreTranslateMessage@CWnd@@UAEHPAUtagMSG@@@Z
	DD	FLAT:?OnAmbientProperty@CWnd@@UAEHPAVCOleControlSite@@JPAUtagVARIANT@@@Z
	DD	FLAT:?WindowProc@CWnd@@MAEJIIJ@Z
	DD	FLAT:?OnWndMsg@CWnd@@MAEHIIJPAJ@Z
	DD	FLAT:?DefWindowProcA@CWnd@@MAEJIIJ@Z
	DD	FLAT:?PostNcDestroy@CWnd@@MAEXXZ
	DD	FLAT:?OnChildNotify@CWnd@@MAEHIIJPAJ@Z
	DD	FLAT:?OnTouchInputs@CWnd@@MAEHIPAUtagTOUCHINPUT@@@Z
	DD	FLAT:?OnTouchInput@CWnd@@MAEHVCPoint@@HHPAUtagTOUCHINPUT@@@Z
	DD	FLAT:?GetGestureStatus@CWnd@@MAEKVCPoint@@@Z
	DD	FLAT:?OnGestureZoom@CWnd@@MAEHVCPoint@@J@Z
	DD	FLAT:?OnGesturePan@CWnd@@MAEHVCPoint@@0@Z
	DD	FLAT:?OnGestureRotate@CWnd@@MAEHVCPoint@@N@Z
	DD	FLAT:?OnGestureTwoFingerTap@CWnd@@MAEHVCPoint@@@Z
	DD	FLAT:?OnGesturePressAndTap@CWnd@@MAEHVCPoint@@J@Z
	DD	FLAT:?ResizeDynamicLayout@CWnd@@MAEXXZ
	DD	FLAT:?CheckAutoCenter@CWnd@@UAEHXZ
	DD	FLAT:?IsFrameWnd@CWnd@@UBEHXZ
	DD	FLAT:?CreateControlContainer@CWnd@@MAEHPAPAVCOleControlContainer@@@Z
	DD	FLAT:?CreateControlSite@CWnd@@MAEHPAVCOleControlContainer@@PAPAVCOleControlSite@@IABU_GUID@@@Z
	DD	FLAT:?SetOccDialogInfo@CWnd@@MAEHPAU_AFX_OCC_DIALOG_INFO@@@Z
	DD	FLAT:?GetOccDialogInfo@CWnd@@MAEPAU_AFX_OCC_DIALOG_INFO@@XZ
CONST	ENDS
;	COMDAT ??_R1A@?0A@EA@CEdit@@8
rdata$r	SEGMENT
??_R1A@?0A@EA@CEdit@@8 DD FLAT:??_R0?AVCEdit@@@8	; CEdit::`RTTI Base Class Descriptor at (0,-1,0,64)'
	DD	03H
	DD	00H
	DD	0ffffffffH
	DD	00H
	DD	040H
	DD	FLAT:??_R3CEdit@@8
rdata$r	ENDS
;	COMDAT ??_R2CEdit@@8
rdata$r	SEGMENT
??_R2CEdit@@8 DD FLAT:??_R1A@?0A@EA@CEdit@@8		; CEdit::`RTTI Base Class Array'
	DD	FLAT:??_R1A@?0A@EA@CWnd@@8
	DD	FLAT:??_R1A@?0A@EA@CCmdTarget@@8
	DD	FLAT:??_R1A@?0A@EA@CObject@@8
rdata$r	ENDS
;	COMDAT ??_R3CEdit@@8
rdata$r	SEGMENT
??_R3CEdit@@8 DD 00H					; CEdit::`RTTI Class Hierarchy Descriptor'
	DD	00H
	DD	04H
	DD	FLAT:??_R2CEdit@@8
rdata$r	ENDS
;	COMDAT ??_R0?AVCEdit@@@8
data$rs	SEGMENT
??_R0?AVCEdit@@@8 DD FLAT:??_7type_info@@6B@		; CEdit `RTTI Type Descriptor'
	DD	00H
	DB	'.?AVCEdit@@', 00H
data$rs	ENDS
;	COMDAT ??_R4CEdit@@6B@
rdata$r	SEGMENT
??_R4CEdit@@6B@ DD 00H					; CEdit::`RTTI Complete Object Locator'
	DD	00H
	DD	00H
	DD	FLAT:??_R0?AVCEdit@@@8
	DD	FLAT:??_R3CEdit@@8
rdata$r	ENDS
;	COMDAT ??_R2CCmdTarget@@8
rdata$r	SEGMENT
??_R2CCmdTarget@@8 DD FLAT:??_R1A@?0A@EA@CCmdTarget@@8	; CCmdTarget::`RTTI Base Class Array'
	DD	FLAT:??_R1A@?0A@EA@CObject@@8
rdata$r	ENDS
;	COMDAT ??_R3CCmdTarget@@8
rdata$r	SEGMENT
??_R3CCmdTarget@@8 DD 00H				; CCmdTarget::`RTTI Class Hierarchy Descriptor'
	DD	00H
	DD	02H
	DD	FLAT:??_R2CCmdTarget@@8
rdata$r	ENDS
;	COMDAT ??_R0?AVCCmdTarget@@@8
data$rs	SEGMENT
??_R0?AVCCmdTarget@@@8 DD FLAT:??_7type_info@@6B@	; CCmdTarget `RTTI Type Descriptor'
	DD	00H
	DB	'.?AVCCmdTarget@@', 00H
data$rs	ENDS
;	COMDAT ??_R1A@?0A@EA@CCmdTarget@@8
rdata$r	SEGMENT
??_R1A@?0A@EA@CCmdTarget@@8 DD FLAT:??_R0?AVCCmdTarget@@@8 ; CCmdTarget::`RTTI Base Class Descriptor at (0,-1,0,64)'
	DD	01H
	DD	00H
	DD	0ffffffffH
	DD	00H
	DD	040H
	DD	FLAT:??_R3CCmdTarget@@8
rdata$r	ENDS
;	COMDAT ??_R2CWnd@@8
rdata$r	SEGMENT
??_R2CWnd@@8 DD	FLAT:??_R1A@?0A@EA@CWnd@@8		; CWnd::`RTTI Base Class Array'
	DD	FLAT:??_R1A@?0A@EA@CCmdTarget@@8
	DD	FLAT:??_R1A@?0A@EA@CObject@@8
rdata$r	ENDS
;	COMDAT ??_R3CWnd@@8
rdata$r	SEGMENT
??_R3CWnd@@8 DD	00H					; CWnd::`RTTI Class Hierarchy Descriptor'
	DD	00H
	DD	03H
	DD	FLAT:??_R2CWnd@@8
rdata$r	ENDS
;	COMDAT ??_R0?AVCWnd@@@8
data$rs	SEGMENT
??_R0?AVCWnd@@@8 DD FLAT:??_7type_info@@6B@		; CWnd `RTTI Type Descriptor'
	DD	00H
	DB	'.?AVCWnd@@', 00H
data$rs	ENDS
;	COMDAT ??_R1A@?0A@EA@CWnd@@8
rdata$r	SEGMENT
??_R1A@?0A@EA@CWnd@@8 DD FLAT:??_R0?AVCWnd@@@8		; CWnd::`RTTI Base Class Descriptor at (0,-1,0,64)'
	DD	02H
	DD	00H
	DD	0ffffffffH
	DD	00H
	DD	040H
	DD	FLAT:??_R3CWnd@@8
rdata$r	ENDS
;	COMDAT ??_R1A@?0A@EA@CBrush@@8
rdata$r	SEGMENT
??_R1A@?0A@EA@CBrush@@8 DD FLAT:??_R0?AVCBrush@@@8	; CBrush::`RTTI Base Class Descriptor at (0,-1,0,64)'
	DD	02H
	DD	00H
	DD	0ffffffffH
	DD	00H
	DD	040H
	DD	FLAT:??_R3CBrush@@8
rdata$r	ENDS
;	COMDAT ??_R2CBrush@@8
rdata$r	SEGMENT
??_R2CBrush@@8 DD FLAT:??_R1A@?0A@EA@CBrush@@8		; CBrush::`RTTI Base Class Array'
	DD	FLAT:??_R1A@?0A@EA@CGdiObject@@8
	DD	FLAT:??_R1A@?0A@EA@CObject@@8
rdata$r	ENDS
;	COMDAT ??_R3CBrush@@8
rdata$r	SEGMENT
??_R3CBrush@@8 DD 00H					; CBrush::`RTTI Class Hierarchy Descriptor'
	DD	00H
	DD	03H
	DD	FLAT:??_R2CBrush@@8
rdata$r	ENDS
;	COMDAT ??_R0?AVCBrush@@@8
data$rs	SEGMENT
??_R0?AVCBrush@@@8 DD FLAT:??_7type_info@@6B@		; CBrush `RTTI Type Descriptor'
	DD	00H
	DB	'.?AVCBrush@@', 00H
data$rs	ENDS
;	COMDAT ??_R4CBrush@@6B@
rdata$r	SEGMENT
??_R4CBrush@@6B@ DD 00H					; CBrush::`RTTI Complete Object Locator'
	DD	00H
	DD	00H
	DD	FLAT:??_R0?AVCBrush@@@8
	DD	FLAT:??_R3CBrush@@8
rdata$r	ENDS
;	COMDAT ??_R1A@?0A@EA@CGdiObject@@8
rdata$r	SEGMENT
??_R1A@?0A@EA@CGdiObject@@8 DD FLAT:??_R0?AVCGdiObject@@@8 ; CGdiObject::`RTTI Base Class Descriptor at (0,-1,0,64)'
	DD	01H
	DD	00H
	DD	0ffffffffH
	DD	00H
	DD	040H
	DD	FLAT:??_R3CGdiObject@@8
rdata$r	ENDS
;	COMDAT ??_R2CGdiObject@@8
rdata$r	SEGMENT
??_R2CGdiObject@@8 DD FLAT:??_R1A@?0A@EA@CGdiObject@@8	; CGdiObject::`RTTI Base Class Array'
	DD	FLAT:??_R1A@?0A@EA@CObject@@8
rdata$r	ENDS
;	COMDAT ??_R3CGdiObject@@8
rdata$r	SEGMENT
??_R3CGdiObject@@8 DD 00H				; CGdiObject::`RTTI Class Hierarchy Descriptor'
	DD	00H
	DD	02H
	DD	FLAT:??_R2CGdiObject@@8
rdata$r	ENDS
;	COMDAT ??_R0?AVCGdiObject@@@8
data$rs	SEGMENT
??_R0?AVCGdiObject@@@8 DD FLAT:??_7type_info@@6B@	; CGdiObject `RTTI Type Descriptor'
	DD	00H
	DB	'.?AVCGdiObject@@', 00H
data$rs	ENDS
;	COMDAT ??_R4CGdiObject@@6B@
rdata$r	SEGMENT
??_R4CGdiObject@@6B@ DD 00H				; CGdiObject::`RTTI Complete Object Locator'
	DD	00H
	DD	00H
	DD	FLAT:??_R0?AVCGdiObject@@@8
	DD	FLAT:??_R3CGdiObject@@8
rdata$r	ENDS
;	COMDAT ??_R1A@?0A@EA@CObject@@8
rdata$r	SEGMENT
??_R1A@?0A@EA@CObject@@8 DD FLAT:??_R0?AVCObject@@@8	; CObject::`RTTI Base Class Descriptor at (0,-1,0,64)'
	DD	00H
	DD	00H
	DD	0ffffffffH
	DD	00H
	DD	040H
	DD	FLAT:??_R3CObject@@8
rdata$r	ENDS
;	COMDAT ??_R2CObject@@8
rdata$r	SEGMENT
??_R2CObject@@8 DD FLAT:??_R1A@?0A@EA@CObject@@8	; CObject::`RTTI Base Class Array'
rdata$r	ENDS
;	COMDAT ??_R3CObject@@8
rdata$r	SEGMENT
??_R3CObject@@8 DD 00H					; CObject::`RTTI Class Hierarchy Descriptor'
	DD	00H
	DD	01H
	DD	FLAT:??_R2CObject@@8
rdata$r	ENDS
;	COMDAT ??_R0?AVCObject@@@8
data$rs	SEGMENT
??_R0?AVCObject@@@8 DD FLAT:??_7type_info@@6B@		; CObject `RTTI Type Descriptor'
	DD	00H
	DB	'.?AVCObject@@', 00H
data$rs	ENDS
;	COMDAT ??_C@_0N@OMEMOKLE@?$CFTs?5?$CI?$CFTs?3?$CFd?$CJ@
CONST	SEGMENT
??_C@_0N@OMEMOKLE@?$CFTs?5?$CI?$CFTs?3?$CFd?$CJ@ DB '%Ts (%Ts:%d)', 00H ; `string'
CONST	ENDS
;	COMDAT ??_C@_0BB@HBOOMJBF@?$CFTs?5?$CI?$CFTs?3?$CFd?$CJ?6?$CFTs@
CONST	SEGMENT
??_C@_0BB@HBOOMJBF@?$CFTs?5?$CI?$CFTs?3?$CFd?$CJ?6?$CFTs@ DB '%Ts (%Ts:%d'
	DB	')', 0aH, '%Ts', 00H				; `string'
CONST	ENDS
;	COMDAT ??_C@_0BP@OIEOKIDM@Exception?5thrown?5in?5destructor@
CONST	SEGMENT
??_C@_0BP@OIEOKIDM@Exception?5thrown?5in?5destructor@ DB 'Exception throw'
	DB	'n in destructor', 00H			; `string'
CONST	ENDS
;	COMDAT ??_C@_0HD@JJCHHHNK@C?3?2Program?5Files?5?$CIx86?$CJ?2Microsof@
CONST	SEGMENT
??_C@_0HD@JJCHHHNK@C?3?2Program?5Files?5?$CIx86?$CJ?2Microsof@ DB 'C:\Pro'
	DB	'gram Files (x86)\Microsoft Visual Studio\2019\Community\VC\To'
	DB	'ols\MSVC\14.29.30133\atlmfc\include\afxwin1.inl', 00H ; `string'
CONST	ENDS
;	COMDAT ??_7CEdit@@6B@
CONST	SEGMENT
??_7CEdit@@6B@ DD FLAT:??_R4CEdit@@6B@			; CEdit::`vftable'
	DD	FLAT:?GetRuntimeClass@CEdit@@UBEPAUCRuntimeClass@@XZ
	DD	FLAT:??_ECEdit@@UAEPAXI@Z
	DD	FLAT:?Serialize@CObject@@UAEXAAVCArchive@@@Z
	DD	FLAT:?AssertValid@CObject@@UBEXXZ
	DD	FLAT:?Dump@CObject@@UBEXAAVCDumpContext@@@Z
	DD	FLAT:?OnCmdMsg@CCmdTarget@@UAEHIHPAXPAUAFX_CMDHANDLERINFO@@@Z
	DD	FLAT:?OnFinalRelease@CWnd@@UAEXXZ
	DD	FLAT:?IsInvokeAllowed@CCmdTarget@@UAEHJ@Z
	DD	FLAT:?GetDispatchIID@CCmdTarget@@UAEHPAU_GUID@@@Z
	DD	FLAT:?GetTypeInfoCount@CCmdTarget@@UAEIXZ
	DD	FLAT:?GetTypeLibCache@CCmdTarget@@UAEPAVCTypeLibCache@@XZ
	DD	FLAT:?GetTypeLib@CCmdTarget@@UAEJKPAPAUITypeLib@@@Z
	DD	FLAT:?GetMessageMap@CWnd@@MBEPBUAFX_MSGMAP@@XZ
	DD	FLAT:?GetCommandMap@CCmdTarget@@MBEPBUAFX_OLECMDMAP@@XZ
	DD	FLAT:?GetDispatchMap@CCmdTarget@@MBEPBUAFX_DISPMAP@@XZ
	DD	FLAT:?GetConnectionMap@CCmdTarget@@MBEPBUAFX_CONNECTIONMAP@@XZ
	DD	FLAT:?GetInterfaceMap@CWnd@@MBEPBUAFX_INTERFACEMAP@@XZ
	DD	FLAT:?GetEventSinkMap@CCmdTarget@@MBEPBUAFX_EVENTSINKMAP@@XZ
	DD	FLAT:?OnCreateAggregates@CCmdTarget@@UAEHXZ
	DD	FLAT:?GetInterfaceHook@CCmdTarget@@UAEPAUIUnknown@@PBX@Z
	DD	FLAT:?GetExtraConnectionPoints@CCmdTarget@@MAEHPAVCPtrArray@@@Z
	DD	FLAT:?GetConnectionHook@CCmdTarget@@MAEPAUIConnectionPoint@@ABU_GUID@@@Z
	DD	FLAT:?PreSubclassWindow@CWnd@@UAEXXZ
	DD	FLAT:?Create@CWnd@@UAEHPBD0KABUtagRECT@@PAV1@IPAUCCreateContext@@@Z
	DD	FLAT:?CreateEx@CWnd@@UAEHKPBD0KABUtagRECT@@PAV1@IPAX@Z
	DD	FLAT:?CreateEx@CWnd@@UAEHKPBD0KHHHHPAUHWND__@@PAUHMENU__@@PAX@Z
	DD	FLAT:?DestroyWindow@CWnd@@UAEHXZ
	DD	FLAT:?PreCreateWindow@CWnd@@UAEHAAUtagCREATESTRUCTA@@@Z
	DD	FLAT:?CalcWindowRect@CWnd@@UAEXPAUtagRECT@@I@Z
	DD	FLAT:?GetMenu@CWnd@@UBEPAVCMenu@@XZ
	DD	FLAT:?SetMenu@CWnd@@UAEHPAVCMenu@@@Z
	DD	FLAT:?OnToolHitTest@CWnd@@UBEHVCPoint@@PAUtagTOOLINFOA@@@Z
	DD	FLAT:?GetScrollBarCtrl@CWnd@@UBEPAVCScrollBar@@H@Z
	DD	FLAT:?WinHelpA@CWnd@@UAEXKI@Z
	DD	FLAT:?HtmlHelpA@CWnd@@UAEXKI@Z
	DD	FLAT:?WinHelpInternal@CWnd@@UAEXKI@Z
	DD	FLAT:?ContinueModal@CWnd@@UAEHXZ
	DD	FLAT:?EndModalLoop@CWnd@@UAEXH@Z
	DD	FLAT:?OnDrawIconicThumbnailOrLivePreview@CWnd@@UAEXAAVCDC@@VCRect@@VCSize@@HAAH@Z
	DD	FLAT:?EnsureStdObj@CWnd@@UAEJXZ
	DD	FLAT:?get_accParent@CWnd@@UAEJPAPAUIDispatch@@@Z
	DD	FLAT:?get_accChildCount@CWnd@@UAEJPAJ@Z
	DD	FLAT:?get_accChild@CWnd@@UAEJUtagVARIANT@@PAPAUIDispatch@@@Z
	DD	FLAT:?get_accName@CWnd@@UAEJUtagVARIANT@@PAPA_W@Z
	DD	FLAT:?get_accValue@CWnd@@UAEJUtagVARIANT@@PAPA_W@Z
	DD	FLAT:?get_accDescription@CWnd@@UAEJUtagVARIANT@@PAPA_W@Z
	DD	FLAT:?get_accRole@CWnd@@UAEJUtagVARIANT@@PAU2@@Z
	DD	FLAT:?get_accState@CWnd@@UAEJUtagVARIANT@@PAU2@@Z
	DD	FLAT:?get_accHelp@CWnd@@UAEJUtagVARIANT@@PAPA_W@Z
	DD	FLAT:?get_accHelpTopic@CWnd@@UAEJPAPA_WUtagVARIANT@@PAJ@Z
	DD	FLAT:?get_accKeyboardShortcut@CWnd@@UAEJUtagVARIANT@@PAPA_W@Z
	DD	FLAT:?get_accFocus@CWnd@@UAEJPAUtagVARIANT@@@Z
	DD	FLAT:?get_accSelection@CWnd@@UAEJPAUtagVARIANT@@@Z
	DD	FLAT:?get_accDefaultAction@CWnd@@UAEJUtagVARIANT@@PAPA_W@Z
	DD	FLAT:?accSelect@CWnd@@UAEJJUtagVARIANT@@@Z
	DD	FLAT:?accLocation@CWnd@@UAEJPAJ000UtagVARIANT@@@Z
	DD	FLAT:?accNavigate@CWnd@@UAEJJUtagVARIANT@@PAU2@@Z
	DD	FLAT:?accHitTest@CWnd@@UAEJJJPAUtagVARIANT@@@Z
	DD	FLAT:?accDoDefaultAction@CWnd@@UAEJUtagVARIANT@@@Z
	DD	FLAT:?put_accName@CWnd@@UAEJUtagVARIANT@@PA_W@Z
	DD	FLAT:?put_accValue@CWnd@@UAEJUtagVARIANT@@PA_W@Z
	DD	FLAT:?SetProxy@CWnd@@UAEJPAUIAccessibleProxy@@@Z
	DD	FLAT:?CreateAccessibleProxy@CWnd@@UAEJIJPAJ@Z
	DD	FLAT:?OnCommand@CWnd@@MAEHIJ@Z
	DD	FLAT:?OnNotify@CWnd@@MAEHIJPAJ@Z
	DD	FLAT:?GetSuperWndProcAddr@CWnd@@MAEPAP6GJPAUHWND__@@IIJ@ZXZ
	DD	FLAT:?DoDataExchange@CWnd@@MAEXPAVCDataExchange@@@Z
	DD	FLAT:?BeginModalState@CWnd@@UAEXXZ
	DD	FLAT:?EndModalState@CWnd@@UAEXXZ
	DD	FLAT:?PreTranslateMessage@CWnd@@UAEHPAUtagMSG@@@Z
	DD	FLAT:?OnAmbientProperty@CWnd@@UAEHPAVCOleControlSite@@JPAUtagVARIANT@@@Z
	DD	FLAT:?WindowProc@CWnd@@MAEJIIJ@Z
	DD	FLAT:?OnWndMsg@CWnd@@MAEHIIJPAJ@Z
	DD	FLAT:?DefWindowProcA@CWnd@@MAEJIIJ@Z
	DD	FLAT:?PostNcDestroy@CWnd@@MAEXXZ
	DD	FLAT:?OnChildNotify@CWnd@@MAEHIIJPAJ@Z
	DD	FLAT:?OnTouchInputs@CWnd@@MAEHIPAUtagTOUCHINPUT@@@Z
	DD	FLAT:?OnTouchInput@CWnd@@MAEHVCPoint@@HHPAUtagTOUCHINPUT@@@Z
	DD	FLAT:?GetGestureStatus@CWnd@@MAEKVCPoint@@@Z
	DD	FLAT:?OnGestureZoom@CWnd@@MAEHVCPoint@@J@Z
	DD	FLAT:?OnGesturePan@CWnd@@MAEHVCPoint@@0@Z
	DD	FLAT:?OnGestureRotate@CWnd@@MAEHVCPoint@@N@Z
	DD	FLAT:?OnGestureTwoFingerTap@CWnd@@MAEHVCPoint@@@Z
	DD	FLAT:?OnGesturePressAndTap@CWnd@@MAEHVCPoint@@J@Z
	DD	FLAT:?ResizeDynamicLayout@CWnd@@MAEXXZ
	DD	FLAT:?CheckAutoCenter@CWnd@@UAEHXZ
	DD	FLAT:?IsFrameWnd@CWnd@@UBEHXZ
	DD	FLAT:?CreateControlContainer@CWnd@@MAEHPAPAVCOleControlContainer@@@Z
	DD	FLAT:?CreateControlSite@CWnd@@MAEHPAVCOleControlContainer@@PAPAVCOleControlSite@@IABU_GUID@@@Z
	DD	FLAT:?SetOccDialogInfo@CWnd@@MAEHPAU_AFX_OCC_DIALOG_INFO@@@Z
	DD	FLAT:?GetOccDialogInfo@CWnd@@MAEPAU_AFX_OCC_DIALOG_INFO@@XZ
CONST	ENDS
;	COMDAT ??_7CBrush@@6B@
CONST	SEGMENT
??_7CBrush@@6B@ DD FLAT:??_R4CBrush@@6B@		; CBrush::`vftable'
	DD	FLAT:?GetRuntimeClass@CBrush@@UBEPAUCRuntimeClass@@XZ
	DD	FLAT:??_ECBrush@@UAEPAXI@Z
	DD	FLAT:?Serialize@CObject@@UAEXAAVCArchive@@@Z
	DD	FLAT:?AssertValid@CObject@@UBEXXZ
	DD	FLAT:?Dump@CObject@@UBEXAAVCDumpContext@@@Z
CONST	ENDS
;	COMDAT ??_7CGdiObject@@6B@
CONST	SEGMENT
??_7CGdiObject@@6B@ DD FLAT:??_R4CGdiObject@@6B@	; CGdiObject::`vftable'
	DD	FLAT:?GetRuntimeClass@CGdiObject@@UBEPAUCRuntimeClass@@XZ
	DD	FLAT:??_ECGdiObject@@UAEPAXI@Z
	DD	FLAT:?Serialize@CObject@@UAEXAAVCArchive@@@Z
	DD	FLAT:?AssertValid@CObject@@UBEXXZ
	DD	FLAT:?Dump@CObject@@UBEXAAVCDumpContext@@@Z
CONST	ENDS
;	COMDAT ??_R0PAVCException@@@8
data$r	SEGMENT
??_R0PAVCException@@@8 DD FLAT:??_7type_info@@6B@	; CException * `RTTI Type Descriptor'
	DD	00H
	DB	'.PAVCException@@', 00H
data$r	ENDS
;	COMDAT xdata$x
xdata$x	SEGMENT
__unwindtable$?OnPaint@CComboEdit@@IAEXXZ DD 0ffffffffH
	DD	FLAT:__unwindfunclet$?OnPaint@CComboEdit@@IAEXXZ$0
	DD	00H
	DD	FLAT:__unwindfunclet$?OnPaint@CComboEdit@@IAEXXZ$1
	DD	01H
	DD	FLAT:__unwindfunclet$?OnPaint@CComboEdit@@IAEXXZ$2
__ehfuncinfo$?OnPaint@CComboEdit@@IAEXXZ DD 019930522H
	DD	03H
	DD	FLAT:__unwindtable$?OnPaint@CComboEdit@@IAEXXZ
	DD	2 DUP(00H)
	DD	2 DUP(00H)
	DD	00H
	DD	01H
xdata$x	ENDS
;	COMDAT xdata$x
xdata$x	SEGMENT
__catchsym$??1CGdiObject@@UAE@XZ$3 DD 00H
	DD	FLAT:??_R0PAVCException@@@8
	DD	0fffffde4H
	DD	FLAT:__catch$??1CGdiObject@@UAE@XZ$0
__tryblocktable$??1CGdiObject@@UAE@XZ DD 00H
	DD	00H
	DD	02H
	DD	01H
	DD	FLAT:__catchsym$??1CGdiObject@@UAE@XZ$3
__unwindtable$??1CGdiObject@@UAE@XZ DD 0ffffffffH
	DD	00H
	DD	0ffffffffH
	DD	00H
	DD	01H
	DD	FLAT:__unwindfunclet$??1CGdiObject@@UAE@XZ$2
__ehfuncinfo$??1CGdiObject@@UAE@XZ DD 019930522H
	DD	03H
	DD	FLAT:__unwindtable$??1CGdiObject@@UAE@XZ
	DD	01H
	DD	FLAT:__tryblocktable$??1CGdiObject@@UAE@XZ
	DD	2 DUP(00H)
	DD	00H
	DD	05H
xdata$x	ENDS
; Function compile flags: /Ogtp
; File D:\git\src\IBK\IBK_DRFN\ProjSrc\SrcChartEx\ChartAddIn\ChartDesignPropertyAddIn\ChartDesignPropertyAddIn\ComboEdit.cpp
; File C:\Program Files (x86)\Microsoft Visual Studio\2019\Community\VC\Tools\MSVC\14.29.30133\atlmfc\include\afx.inl
;	COMDAT ??_GCComboEdit@@UAEPAXI@Z
_TEXT	SEGMENT
___flags$ = 8						; size = 4
??_GCComboEdit@@UAEPAXI@Z PROC				; CComboEdit::`scalar deleting destructor', COMDAT
; _this$ = ecx
  00000	55		 push	 ebp
  00001	8b ec		 mov	 ebp, esp
; File D:\git\src\IBK\IBK_DRFN\ProjSrc\SrcChartEx\ChartAddIn\ChartDesignPropertyAddIn\ChartDesignPropertyAddIn\ComboEdit.cpp

; 29   : {

  00003	56		 push	 esi
  00004	8b f1		 mov	 esi, ecx
  00006	c7 06 00 00 00
	00		 mov	 DWORD PTR [esi], OFFSET ??_7CComboEdit@@6B@

; 30   : }

  0000c	e8 00 00 00 00	 call	 ??1CEdit@@UAE@XZ	; CEdit::~CEdit
  00011	8b 45 08	 mov	 eax, DWORD PTR ___flags$[ebp]
  00014	a8 01		 test	 al, 1
  00016	74 22		 je	 SHORT $LN12@scalar
  00018	a8 04		 test	 al, 4
  0001a	75 10		 jne	 SHORT $LN3@scalar
; File C:\Program Files (x86)\Microsoft Visual Studio\2019\Community\VC\Tools\MSVC\14.29.30133\atlmfc\include\afx.inl

; 112  : 	{ ::operator delete(p); }

  0001c	56		 push	 esi
  0001d	e8 00 00 00 00	 call	 ??3@YAXPAX@Z		; operator delete
  00022	83 c4 04	 add	 esp, 4
  00025	8b c6		 mov	 eax, esi
  00027	5e		 pop	 esi
  00028	5d		 pop	 ebp
  00029	c2 04 00	 ret	 4
$LN3@scalar:
  0002c	68 80 00 00 00	 push	 128			; 00000080H
  00031	56		 push	 esi
  00032	e8 00 00 00 00	 call	 ?__global_delete@@YAXPAXI@Z ; __global_delete
  00037	83 c4 08	 add	 esp, 8
$LN12@scalar:
  0003a	8b c6		 mov	 eax, esi
  0003c	5e		 pop	 esi
  0003d	5d		 pop	 ebp
  0003e	c2 04 00	 ret	 4
??_GCComboEdit@@UAEPAXI@Z ENDP				; CComboEdit::`scalar deleting destructor'
_TEXT	ENDS
; Function compile flags: /Ogtp
; File D:\git\src\IBK\IBK_DRFN\ProjSrc\SrcChartEx\ChartAddIn\ChartDesignPropertyAddIn\ChartDesignPropertyAddIn\ComboEdit.cpp
;	COMDAT ?GetMessageMap@CComboEdit@@MBEPBUAFX_MSGMAP@@XZ
_TEXT	SEGMENT
?GetMessageMap@CComboEdit@@MBEPBUAFX_MSGMAP@@XZ PROC	; CComboEdit::GetMessageMap, COMDAT
; _this$ = ecx

; 33   : BEGIN_MESSAGE_MAP(CComboEdit, CEdit)

  00000	b8 00 00 00 00	 mov	 eax, OFFSET ?messageMap@?1??GetThisMessageMap@CComboEdit@@KGPBUAFX_MSGMAP@@XZ@4U3@B
  00005	c3		 ret	 0
?GetMessageMap@CComboEdit@@MBEPBUAFX_MSGMAP@@XZ ENDP	; CComboEdit::GetMessageMap
_TEXT	ENDS
; Function compile flags: /Ogtp
; File D:\git\src\IBK\IBK_DRFN\ProjSrc\SrcChartEx\ChartAddIn\ChartDesignPropertyAddIn\ChartDesignPropertyAddIn\ComboEdit.cpp
;	COMDAT ?GetThisMessageMap@CComboEdit@@KGPBUAFX_MSGMAP@@XZ
_TEXT	SEGMENT
?GetThisMessageMap@CComboEdit@@KGPBUAFX_MSGMAP@@XZ PROC	; CComboEdit::GetThisMessageMap, COMDAT

; 34   : 	//{{AFX_MSG_MAP(CComboEdit)
; 35   : 	ON_WM_CHAR()
; 36   : 	ON_WM_CONTEXTMENU()
; 37   : 	ON_WM_LBUTTONDOWN()
; 38   : 	ON_WM_PAINT()
; 39   : 	ON_WM_MOUSEACTIVATE()
; 40   : 	ON_WM_ACTIVATE()
; 41   : 	ON_CONTROL_REFLECT(EN_SETFOCUS, OnSetfocus)
; 42   : 	ON_WM_MOUSEMOVE()
; 43   : 	ON_CONTROL_REFLECT(EN_KILLFOCUS, OnKillfocus)
; 44   : 	ON_WM_LBUTTONDBLCLK()
; 45   : 	ON_WM_KILLFOCUS()
; 46   : 	//}}AFX_MSG_MAP
; 47   : 	ON_MESSAGE (WM_PASTE, OnIgnoreMessage )
; 48   : 	ON_MESSAGE (WM_CUT, OnIgnoreMessage)
; 49   : 	ON_MESSAGE (WM_CLEAR, OnIgnoreMessage)
; 50   : END_MESSAGE_MAP()

  00000	b8 00 00 00 00	 mov	 eax, OFFSET ?messageMap@?1??GetThisMessageMap@CComboEdit@@KGPBUAFX_MSGMAP@@XZ@4U3@B
  00005	c3		 ret	 0
?GetThisMessageMap@CComboEdit@@KGPBUAFX_MSGMAP@@XZ ENDP	; CComboEdit::GetThisMessageMap
_TEXT	ENDS
; Function compile flags: /Ogtp
; File D:\git\src\IBK\IBK_DRFN\ProjSrc\SrcChartEx\ChartAddIn\ChartDesignPropertyAddIn\ChartDesignPropertyAddIn\ComboEdit.cpp
;	COMDAT ?OnIgnoreMessage@CComboEdit@@IAEJIJ@Z
_TEXT	SEGMENT
_wParam$ = 8						; size = 4
_lParam$ = 12						; size = 4
?OnIgnoreMessage@CComboEdit@@IAEJIJ@Z PROC		; CComboEdit::OnIgnoreMessage, COMDAT
; _this$ = ecx

; 68   : 	UNREFERENCED_PARAMETER (wParam);
; 69   : 	UNREFERENCED_PARAMETER (lParam);
; 70   : 	// block cut, paste and clear messages
; 71   : 	return 0L;

  00000	33 c0		 xor	 eax, eax

; 72   : }

  00002	c2 08 00	 ret	 8
?OnIgnoreMessage@CComboEdit@@IAEJIJ@Z ENDP		; CComboEdit::OnIgnoreMessage
_TEXT	ENDS
; Function compile flags: /Ogtp
; File D:\git\src\IBK\IBK_DRFN\ProjSrc\SrcChartEx\ChartAddIn\ChartDesignPropertyAddIn\ChartDesignPropertyAddIn\ComboEdit.cpp
;	COMDAT ?OnLButtonDblClk@CComboEdit@@IAEXIVCPoint@@@Z
_TEXT	SEGMENT
_nFlags$ = 8						; size = 4
_point$ = 12						; size = 8
?OnLButtonDblClk@CComboEdit@@IAEXIVCPoint@@@Z PROC	; CComboEdit::OnLButtonDblClk, COMDAT
; _this$ = ecx

; 201  : 	UNREFERENCED_PARAMETER (nFlags);
; 202  : 	UNREFERENCED_PARAMETER (point);
; 203  : 	//disregard text selection using a double click
; 204  : }

  00000	c2 0c 00	 ret	 12			; 0000000cH
?OnLButtonDblClk@CComboEdit@@IAEXIVCPoint@@@Z ENDP	; CComboEdit::OnLButtonDblClk
_TEXT	ENDS
; Function compile flags: /Ogtp
; File D:\git\src\IBK\IBK_DRFN\ProjSrc\SrcChartEx\ChartAddIn\ChartDesignPropertyAddIn\ChartDesignPropertyAddIn\ComboEdit.cpp
; File C:\Program Files (x86)\Microsoft Visual Studio\2019\Community\VC\Tools\MSVC\14.29.30133\atlmfc\include\afxwin2.inl
; File D:\git\src\IBK\IBK_DRFN\ProjSrc\SrcChartEx\ChartAddIn\ChartDesignPropertyAddIn\ChartDesignPropertyAddIn\ComboEdit.cpp
;	COMDAT ?OnKillfocus@CComboEdit@@IAEXXZ
_TEXT	SEGMENT
?OnKillfocus@CComboEdit@@IAEXXZ PROC			; CComboEdit::OnKillfocus, COMDAT
; _this$ = ecx

; 193  : {

  00000	56		 push	 esi
  00001	8b f1		 mov	 esi, ecx
; File C:\Program Files (x86)\Microsoft Visual Studio\2019\Community\VC\Tools\MSVC\14.29.30133\atlmfc\include\afxwin2.inl

; 251  : 	{ ASSERT(::IsWindow(m_hWnd)); ::ShowCaret(m_hWnd); }

  00003	ff 76 20	 push	 DWORD PTR [esi+32]
  00006	ff 15 00 00 00
	00		 call	 DWORD PTR __imp__ShowCaret@4

; 114  : 	{ ASSERT(::IsWindow(m_hWnd)); ::InvalidateRect(m_hWnd, NULL, bErase); }

  0000c	6a 01		 push	 1
  0000e	6a 00		 push	 0
  00010	ff 76 20	 push	 DWORD PTR [esi+32]
  00013	ff 15 00 00 00
	00		 call	 DWORD PTR __imp__InvalidateRect@12
  00019	5e		 pop	 esi
; File D:\git\src\IBK\IBK_DRFN\ProjSrc\SrcChartEx\ChartAddIn\ChartDesignPropertyAddIn\ChartDesignPropertyAddIn\ComboEdit.cpp

; 197  : }

  0001a	c3		 ret	 0
?OnKillfocus@CComboEdit@@IAEXXZ ENDP			; CComboEdit::OnKillfocus
_TEXT	ENDS
; Function compile flags: /Ogtp
; File D:\git\src\IBK\IBK_DRFN\ProjSrc\SrcChartEx\ChartAddIn\ChartDesignPropertyAddIn\ChartDesignPropertyAddIn\ComboEdit.cpp
;	COMDAT ?OnMouseMove@CComboEdit@@IAEXIVCPoint@@@Z
_TEXT	SEGMENT
_nFlags$ = 8						; size = 4
_point$ = 12						; size = 8
?OnMouseMove@CComboEdit@@IAEXIVCPoint@@@Z PROC		; CComboEdit::OnMouseMove, COMDAT
; _this$ = ecx

; 187  : 	UNREFERENCED_PARAMETER (nFlags);
; 188  : 	UNREFERENCED_PARAMETER (point);
; 189  : 	//disregard text selection using the mouse
; 190  : }

  00000	c2 0c 00	 ret	 12			; 0000000cH
?OnMouseMove@CComboEdit@@IAEXIVCPoint@@@Z ENDP		; CComboEdit::OnMouseMove
_TEXT	ENDS
; Function compile flags: /Ogtp
; File D:\git\src\IBK\IBK_DRFN\ProjSrc\SrcChartEx\ChartAddIn\ChartDesignPropertyAddIn\ChartDesignPropertyAddIn\ComboEdit.cpp
; File C:\Program Files (x86)\Microsoft Visual Studio\2019\Community\VC\Tools\MSVC\14.29.30133\atlmfc\include\afxwin2.inl
; File D:\git\src\IBK\IBK_DRFN\ProjSrc\SrcChartEx\ChartAddIn\ChartDesignPropertyAddIn\ChartDesignPropertyAddIn\ComboEdit.cpp
;	COMDAT ?OnSetfocus@CComboEdit@@IAEXXZ
_TEXT	SEGMENT
?OnSetfocus@CComboEdit@@IAEXXZ PROC			; CComboEdit::OnSetfocus, COMDAT
; _this$ = ecx

; 180  : {

  00000	56		 push	 esi
  00001	8b f1		 mov	 esi, ecx
; File C:\Program Files (x86)\Microsoft Visual Studio\2019\Community\VC\Tools\MSVC\14.29.30133\atlmfc\include\afxwin2.inl

; 249  : 	{ ASSERT(::IsWindow(m_hWnd)); ::HideCaret(m_hWnd); }

  00003	ff 76 20	 push	 DWORD PTR [esi+32]
  00006	ff 15 00 00 00
	00		 call	 DWORD PTR __imp__HideCaret@4

; 114  : 	{ ASSERT(::IsWindow(m_hWnd)); ::InvalidateRect(m_hWnd, NULL, bErase); }

  0000c	6a 01		 push	 1
  0000e	6a 00		 push	 0
  00010	ff 76 20	 push	 DWORD PTR [esi+32]
  00013	ff 15 00 00 00
	00		 call	 DWORD PTR __imp__InvalidateRect@12
  00019	5e		 pop	 esi
; File D:\git\src\IBK\IBK_DRFN\ProjSrc\SrcChartEx\ChartAddIn\ChartDesignPropertyAddIn\ChartDesignPropertyAddIn\ComboEdit.cpp

; 183  : }

  0001a	c3		 ret	 0
?OnSetfocus@CComboEdit@@IAEXXZ ENDP			; CComboEdit::OnSetfocus
_TEXT	ENDS
; Function compile flags: /Ogtp
; File D:\git\src\IBK\IBK_DRFN\ProjSrc\SrcChartEx\ChartAddIn\ChartDesignPropertyAddIn\ChartDesignPropertyAddIn\ComboEdit.cpp
; File C:\Program Files (x86)\Microsoft Visual Studio\2019\Community\VC\Tools\MSVC\14.29.30133\atlmfc\include\afxwin2.inl
; File D:\git\src\IBK\IBK_DRFN\ProjSrc\SrcChartEx\ChartAddIn\ChartDesignPropertyAddIn\ChartDesignPropertyAddIn\ComboEdit.cpp
;	COMDAT ?OnActivate@CComboEdit@@IAEXIPAVCWnd@@H@Z
_TEXT	SEGMENT
_nState$ = 8						; size = 4
_pWndOther$ = 12					; size = 4
_bMinimized$ = 16					; size = 4
?OnActivate@CComboEdit@@IAEXIPAVCWnd@@H@Z PROC		; CComboEdit::OnActivate, COMDAT
; _this$ = ecx

; 173  : {

  00000	56		 push	 esi
  00001	8b f1		 mov	 esi, ecx
; File C:\Program Files (x86)\Microsoft Visual Studio\2019\Community\VC\Tools\MSVC\14.29.30133\atlmfc\include\afxwin2.inl

; 284  : 	{ Default(); }

  00003	e8 00 00 00 00	 call	 ?Default@CWnd@@IAEJXZ	; CWnd::Default

; 114  : 	{ ASSERT(::IsWindow(m_hWnd)); ::InvalidateRect(m_hWnd, NULL, bErase); }

  00008	6a 01		 push	 1
  0000a	6a 00		 push	 0
  0000c	ff 76 20	 push	 DWORD PTR [esi+32]
  0000f	ff 15 00 00 00
	00		 call	 DWORD PTR __imp__InvalidateRect@12
  00015	5e		 pop	 esi
; File D:\git\src\IBK\IBK_DRFN\ProjSrc\SrcChartEx\ChartAddIn\ChartDesignPropertyAddIn\ChartDesignPropertyAddIn\ComboEdit.cpp

; 177  : }

  00016	c2 0c 00	 ret	 12			; 0000000cH
?OnActivate@CComboEdit@@IAEXIPAVCWnd@@H@Z ENDP		; CComboEdit::OnActivate
_TEXT	ENDS
; Function compile flags: /Ogtp
; File D:\git\src\IBK\IBK_DRFN\ProjSrc\SrcChartEx\ChartAddIn\ChartDesignPropertyAddIn\ChartDesignPropertyAddIn\ComboEdit.cpp
;	COMDAT ?OnMouseActivate@CComboEdit@@IAEHPAVCWnd@@II@Z
_TEXT	SEGMENT
_pDesktopWnd$ = 8					; size = 4
_nHitTest$ = 12						; size = 4
_message$ = 16						; size = 4
?OnMouseActivate@CComboEdit@@IAEHPAVCWnd@@II@Z PROC	; CComboEdit::OnMouseActivate, COMDAT
; _this$ = ecx

; 164  : 	UNREFERENCED_PARAMETER (pDesktopWnd);
; 165  : 	UNREFERENCED_PARAMETER (nHitTest);
; 166  : 	UNREFERENCED_PARAMETER (message);
; 167  : 
; 168  : 
; 169  : 	return MA_ACTIVATE;   

  00000	b8 01 00 00 00	 mov	 eax, 1

; 170  : }

  00005	c2 0c 00	 ret	 12			; 0000000cH
?OnMouseActivate@CComboEdit@@IAEHPAVCWnd@@II@Z ENDP	; CComboEdit::OnMouseActivate
_TEXT	ENDS
; Function compile flags: /Ogtp
; File D:\git\src\IBK\IBK_DRFN\ProjSrc\SrcChartEx\ChartAddIn\ChartDesignPropertyAddIn\ChartDesignPropertyAddIn\ComboEdit.cpp
; File C:\Program Files (x86)\Microsoft Visual Studio\2019\Community\VC\Tools\MSVC\14.29.30133\atlmfc\include\afxwin2.inl
; File D:\git\src\IBK\IBK_DRFN\ProjSrc\SrcChartEx\ChartAddIn\ChartDesignPropertyAddIn\ChartDesignPropertyAddIn\ComboEdit.cpp
; File C:\Program Files (x86)\Microsoft Visual Studio\2019\Community\VC\Tools\MSVC\14.29.30133\atlmfc\include\afxwin2.inl
; File D:\git\src\IBK\IBK_DRFN\ProjSrc\SrcChartEx\ChartAddIn\ChartDesignPropertyAddIn\ChartDesignPropertyAddIn\ComboEdit.cpp
; File C:\Program Files (x86)\Microsoft Visual Studio\2019\Community\VC\Tools\MSVC\14.29.30133\atlmfc\include\afxwin2.inl
; File C:\Program Files (x86)\Microsoft Visual Studio\2019\Community\VC\Tools\MSVC\14.29.30133\atlmfc\include\atltypes.h
; File C:\Program Files (x86)\Microsoft Visual Studio\2019\Community\VC\Tools\MSVC\14.29.30133\atlmfc\include\afxwin2.inl
; File D:\git\src\IBK\IBK_DRFN\ProjSrc\SrcChartEx\ChartAddIn\ChartDesignPropertyAddIn\ChartDesignPropertyAddIn\ComboEdit.cpp
; File C:\Program Files (x86)\Microsoft Visual Studio\2019\Community\VC\Tools\MSVC\14.29.30133\atlmfc\include\afxwin1.inl
; File D:\git\src\IBK\IBK_DRFN\ProjSrc\SrcChartEx\ChartAddIn\ChartDesignPropertyAddIn\ChartDesignPropertyAddIn\ComboEdit.cpp
; File C:\Program Files (x86)\Microsoft Visual Studio\2019\Community\VC\Tools\MSVC\14.29.30133\atlmfc\include\afxwin1.inl
; File D:\git\src\IBK\IBK_DRFN\ProjSrc\SrcChartEx\ChartAddIn\ChartDesignPropertyAddIn\ChartDesignPropertyAddIn\ComboEdit.cpp
; File C:\Program Files (x86)\Microsoft Visual Studio\2019\Community\VC\Tools\MSVC\14.29.30133\atlmfc\include\afxwin1.inl
; File D:\git\src\IBK\IBK_DRFN\ProjSrc\SrcChartEx\ChartAddIn\ChartDesignPropertyAddIn\ChartDesignPropertyAddIn\ComboEdit.cpp
; File C:\Program Files (x86)\Microsoft Visual Studio\2019\Community\VC\Tools\MSVC\14.29.30133\atlmfc\include\afxwin2.inl
; File C:\Program Files (x86)\Microsoft Visual Studio\2019\Community\VC\Tools\MSVC\14.29.30133\atlmfc\include\afxwin1.inl
; File D:\git\src\IBK\IBK_DRFN\ProjSrc\SrcChartEx\ChartAddIn\ChartDesignPropertyAddIn\ChartDesignPropertyAddIn\ComboEdit.cpp
; File C:\Program Files (x86)\Microsoft Visual Studio\2019\Community\VC\Tools\MSVC\14.29.30133\atlmfc\include\afxwin1.inl
; File D:\git\src\IBK\IBK_DRFN\ProjSrc\SrcChartEx\ChartAddIn\ChartDesignPropertyAddIn\ChartDesignPropertyAddIn\ComboEdit.cpp
; File C:\Program Files (x86)\Microsoft Visual Studio\2019\Community\VC\Tools\MSVC\14.29.30133\atlmfc\include\afxwin1.inl
; File D:\git\src\IBK\IBK_DRFN\ProjSrc\SrcChartEx\ChartAddIn\ChartDesignPropertyAddIn\ChartDesignPropertyAddIn\ComboEdit.cpp
; File C:\Program Files (x86)\Microsoft Visual Studio\2019\Community\VC\Tools\MSVC\14.29.30133\atlmfc\include\afxwin1.inl
; File D:\git\src\IBK\IBK_DRFN\ProjSrc\SrcChartEx\ChartAddIn\ChartDesignPropertyAddIn\ChartDesignPropertyAddIn\ComboEdit.cpp
;	COMDAT ?OnPaint@CComboEdit@@IAEXXZ
_TEXT	SEGMENT
_BkBrush$ = -132					; size = 8
_TextColor$1$ = -124					; size = 4
_Text$ = -120						; size = 4
_dc$ = -116						; size = 84
_rect$ = -32						; size = 16
__$ArrayPad$ = -16					; size = 4
__$EHRec$ = -12						; size = 12
?OnPaint@CComboEdit@@IAEXXZ PROC			; CComboEdit::OnPaint, COMDAT
; _this$ = ecx

; 101  : {

  00000	55		 push	 ebp
  00001	8b ec		 mov	 ebp, esp
  00003	6a ff		 push	 -1
  00005	68 00 00 00 00	 push	 __ehhandler$?OnPaint@CComboEdit@@IAEXXZ
  0000a	64 a1 00 00 00
	00		 mov	 eax, DWORD PTR fs:0
  00010	50		 push	 eax
  00011	83 ec 78	 sub	 esp, 120		; 00000078H
  00014	a1 00 00 00 00	 mov	 eax, DWORD PTR ___security_cookie
  00019	33 c5		 xor	 eax, ebp
  0001b	89 45 f0	 mov	 DWORD PTR __$ArrayPad$[ebp], eax
  0001e	53		 push	 ebx
  0001f	56		 push	 esi
  00020	57		 push	 edi
  00021	50		 push	 eax
  00022	8d 45 f4	 lea	 eax, DWORD PTR __$EHRec$[ebp]
  00025	64 a3 00 00 00
	00		 mov	 DWORD PTR fs:0, eax
  0002b	8b f9		 mov	 edi, ecx

; 102  : 	CPaintDC dc(this); // device context for painting

  0002d	57		 push	 edi
  0002e	8d 4d 8c	 lea	 ecx, DWORD PTR _dc$[ebp]
  00031	e8 00 00 00 00	 call	 ??0CPaintDC@@QAE@PAVCWnd@@@Z ; CPaintDC::CPaintDC
; File C:\Program Files (x86)\Microsoft Visual Studio\2019\Community\VC\Tools\MSVC\14.29.30133\atlmfc\include\afxwin2.inl

; 213  : 	{ ASSERT(::IsWindow(m_hWnd)); return CWnd::FromHandle(::GetParent(m_hWnd)); }

  00036	ff 77 20	 push	 DWORD PTR [edi+32]
; File D:\git\src\IBK\IBK_DRFN\ProjSrc\SrcChartEx\ChartAddIn\ChartDesignPropertyAddIn\ChartDesignPropertyAddIn\ComboEdit.cpp

; 102  : 	CPaintDC dc(this); // device context for painting

  00039	c7 45 fc 00 00
	00 00		 mov	 DWORD PTR __$EHRec$[ebp+8], 0

; 103  : 	
; 104  : 	COLORREF TextColor;
; 105  : 	COLORREF BkColor;
; 106  : 
; 107  : 	BOOL bDrawHighlight = FALSE;

  00040	33 db		 xor	 ebx, ebx
; File C:\Program Files (x86)\Microsoft Visual Studio\2019\Community\VC\Tools\MSVC\14.29.30133\atlmfc\include\afxwin2.inl

; 213  : 	{ ASSERT(::IsWindow(m_hWnd)); return CWnd::FromHandle(::GetParent(m_hWnd)); }

  00042	ff 15 00 00 00
	00		 call	 DWORD PTR __imp__GetParent@4
  00048	50		 push	 eax
  00049	e8 00 00 00 00	 call	 ?FromHandle@CWnd@@SGPAV1@PAUHWND__@@@Z ; CWnd::FromHandle
; File D:\git\src\IBK\IBK_DRFN\ProjSrc\SrcChartEx\ChartAddIn\ChartDesignPropertyAddIn\ChartDesignPropertyAddIn\ComboEdit.cpp

; 113  : 	if (pParent && (pParent->IsEditHighlightOn () == TRUE))

  0004e	85 c0		 test	 eax, eax
  00050	74 1c		 je	 SHORT $LN3@OnPaint
  00052	8b c8		 mov	 ecx, eax
  00054	e8 00 00 00 00	 call	 ?IsEditHighlightOn@CTreeCombo@@IAEHXZ ; CTreeCombo::IsEditHighlightOn
  00059	83 f8 01	 cmp	 eax, 1
  0005c	75 10		 jne	 SHORT $LN3@OnPaint

; 114  : 	{
; 115  : 		bDrawHighlight = TRUE;
; 116  : 	}
; 117  : 
; 118  : 	if (bDrawHighlight)
; 119  : 	{
; 120  : 		TextColor = GetSysColor (COLOR_HIGHLIGHTTEXT);

  0005e	8b 35 00 00 00
	00		 mov	 esi, DWORD PTR __imp__GetSysColor@4
  00064	8b d8		 mov	 ebx, eax
  00066	6a 0e		 push	 14			; 0000000eH
  00068	ff d6		 call	 esi

; 121  : 		BkColor = GetSysColor (COLOR_HIGHLIGHT);

  0006a	6a 0d		 push	 13			; 0000000dH

; 122  : 	}

  0006c	eb 0c		 jmp	 SHORT $LN41@OnPaint
$LN3@OnPaint:

; 123  : 	else
; 124  : 	{
; 125  : 		TextColor = GetSysColor (COLOR_WINDOWTEXT);

  0006e	8b 35 00 00 00
	00		 mov	 esi, DWORD PTR __imp__GetSysColor@4
  00074	6a 08		 push	 8
  00076	ff d6		 call	 esi

; 126  : 		BkColor = GetSysColor (COLOR_WINDOW);

  00078	6a 05		 push	 5
$LN41@OnPaint:

; 127  : 	}
; 128  : 
; 129  : 	CString Text;

  0007a	89 45 84	 mov	 DWORD PTR _TextColor$1$[ebp], eax
  0007d	ff d6		 call	 esi
  0007f	8d 4d 88	 lea	 ecx, DWORD PTR _Text$[ebp]
  00082	8b f0		 mov	 esi, eax
  00084	ff 15 00 00 00
	00		 call	 DWORD PTR __imp_??0?$CStringT@DV?$StrTraitMFC_DLL@DV?$ChTraitsCRT@D@ATL@@@@@ATL@@QAE@XZ

; 130  : 	GetWindowText (Text);

  0008a	8d 45 88	 lea	 eax, DWORD PTR _Text$[ebp]
  0008d	c6 45 fc 01	 mov	 BYTE PTR __$EHRec$[ebp+8], 1
  00091	50		 push	 eax
  00092	8b cf		 mov	 ecx, edi
  00094	e8 00 00 00 00	 call	 ?GetWindowTextA@CWnd@@QBEXAAV?$CStringT@DV?$StrTraitMFC_DLL@DV?$ChTraitsCRT@D@ATL@@@@@ATL@@@Z ; CWnd::GetWindowTextA
; File C:\Program Files (x86)\Microsoft Visual Studio\2019\Community\VC\Tools\MSVC\14.29.30133\atlmfc\include\afxwin2.inl

; 86   : 	{ ASSERT(::IsWindow(m_hWnd)); ::GetClientRect(m_hWnd, lpRect); }

  00099	8d 45 e0	 lea	 eax, DWORD PTR _rect$[ebp]
  0009c	0f 57 c0	 xorps	 xmm0, xmm0
  0009f	50		 push	 eax
  000a0	ff 77 20	 push	 DWORD PTR [edi+32]
; File C:\Program Files (x86)\Microsoft Visual Studio\2019\Community\VC\Tools\MSVC\14.29.30133\atlmfc\include\atltypes.h

; 528  : 	left = 0;

  000a3	0f 11 45 e0	 movups	 XMMWORD PTR _rect$[ebp], xmm0
; File C:\Program Files (x86)\Microsoft Visual Studio\2019\Community\VC\Tools\MSVC\14.29.30133\atlmfc\include\afxwin2.inl

; 86   : 	{ ASSERT(::IsWindow(m_hWnd)); ::GetClientRect(m_hWnd, lpRect); }

  000a7	ff 15 00 00 00
	00		 call	 DWORD PTR __imp__GetClientRect@8
; File D:\git\src\IBK\IBK_DRFN\ProjSrc\SrcChartEx\ChartAddIn\ChartDesignPropertyAddIn\ChartDesignPropertyAddIn\ComboEdit.cpp

; 135  : 	CBrush BkBrush (BkColor);

  000ad	56		 push	 esi
  000ae	8d 8d 7c ff ff
	ff		 lea	 ecx, DWORD PTR _BkBrush$[ebp]
  000b4	e8 00 00 00 00	 call	 ??0CBrush@@QAE@K@Z	; CBrush::CBrush
; File C:\Program Files (x86)\Microsoft Visual Studio\2019\Community\VC\Tools\MSVC\14.29.30133\atlmfc\include\afxwin1.inl

; 476  : 	{ ASSERT(m_hDC != NULL); ::FillRect(m_hDC, lpRect, (HBRUSH)pBrush->GetSafeHandle()); }

  000b9	ff 75 80	 push	 DWORD PTR _BkBrush$[ebp+4]
  000bc	8d 45 e0	 lea	 eax, DWORD PTR _rect$[ebp]
; File D:\git\src\IBK\IBK_DRFN\ProjSrc\SrcChartEx\ChartAddIn\ChartDesignPropertyAddIn\ChartDesignPropertyAddIn\ComboEdit.cpp

; 135  : 	CBrush BkBrush (BkColor);

  000bf	c6 45 fc 02	 mov	 BYTE PTR __$EHRec$[ebp+8], 2
; File C:\Program Files (x86)\Microsoft Visual Studio\2019\Community\VC\Tools\MSVC\14.29.30133\atlmfc\include\afxwin1.inl

; 476  : 	{ ASSERT(m_hDC != NULL); ::FillRect(m_hDC, lpRect, (HBRUSH)pBrush->GetSafeHandle()); }

  000c3	50		 push	 eax
  000c4	ff 75 90	 push	 DWORD PTR _dc$[ebp+4]
  000c7	ff 15 00 00 00
	00		 call	 DWORD PTR __imp__FillRect@12
; File D:\git\src\IBK\IBK_DRFN\ProjSrc\SrcChartEx\ChartAddIn\ChartDesignPropertyAddIn\ChartDesignPropertyAddIn\ComboEdit.cpp

; 140  : 	if (bDrawHighlight)

  000cd	85 db		 test	 ebx, ebx
  000cf	74 0d		 je	 SHORT $LN5@OnPaint
; File C:\Program Files (x86)\Microsoft Visual Studio\2019\Community\VC\Tools\MSVC\14.29.30133\atlmfc\include\afxwin1.inl

; 522  : 	{ ASSERT(m_hDC != NULL); ::DrawFocusRect(m_hDC, lpRect); }

  000d1	8d 45 e0	 lea	 eax, DWORD PTR _rect$[ebp]
  000d4	50		 push	 eax
  000d5	ff 75 90	 push	 DWORD PTR _dc$[ebp+4]
  000d8	ff 15 00 00 00
	00		 call	 DWORD PTR __imp__DrawFocusRect@8
$LN5@OnPaint:
; File D:\git\src\IBK\IBK_DRFN\ProjSrc\SrcChartEx\ChartAddIn\ChartDesignPropertyAddIn\ChartDesignPropertyAddIn\ComboEdit.cpp

; 145  : 	int xBorder = GetSystemMetrics (SM_CXEDGE);

  000de	6a 2d		 push	 45			; 0000002dH
  000e0	ff 15 00 00 00
	00		 call	 DWORD PTR __imp__GetSystemMetrics@4

; 146  : 	rect.left += xBorder;

  000e6	01 45 e0	 add	 DWORD PTR _rect$[ebp], eax
; File C:\Program Files (x86)\Microsoft Visual Studio\2019\Community\VC\Tools\MSVC\14.29.30133\atlmfc\include\afxwin2.inl

; 45   : 	{ ASSERT(::IsWindow(m_hWnd)); return CFont::FromHandle(

  000e9	6a 00		 push	 0
  000eb	6a 00		 push	 0
  000ed	6a 31		 push	 49			; 00000031H
  000ef	ff 77 20	 push	 DWORD PTR [edi+32]
  000f2	ff 15 00 00 00
	00		 call	 DWORD PTR __imp__SendMessageA@16
; File C:\Program Files (x86)\Microsoft Visual Studio\2019\Community\VC\Tools\MSVC\14.29.30133\atlmfc\include\afxwin1.inl

; 151  : 	{ return (CFont*) CGdiObject::FromHandle(hFont); }

  000f8	50		 push	 eax
  000f9	e8 00 00 00 00	 call	 ?FromHandle@CGdiObject@@SGPAV1@PAX@Z ; CGdiObject::FromHandle
; File D:\git\src\IBK\IBK_DRFN\ProjSrc\SrcChartEx\ChartAddIn\ChartDesignPropertyAddIn\ChartDesignPropertyAddIn\ComboEdit.cpp

; 149  : 	CFont* pOldFont = dc.SelectObject (pFont);

  000fe	50		 push	 eax
  000ff	8d 4d 8c	 lea	 ecx, DWORD PTR _dc$[ebp]
  00102	e8 00 00 00 00	 call	 ?SelectObject@CDC@@UAEPAVCFont@@PAV2@@Z ; CDC::SelectObject

; 150  : 	COLORREF oldTextColor = dc.SetTextColor (TextColor);

  00107	ff 75 84	 push	 DWORD PTR _TextColor$1$[ebp]
  0010a	8d 4d 8c	 lea	 ecx, DWORD PTR _dc$[ebp]
  0010d	8b d8		 mov	 ebx, eax
  0010f	e8 00 00 00 00	 call	 ?SetTextColor@CDC@@UAEKK@Z ; CDC::SetTextColor

; 151  : 	COLORREF oldBkColor = dc.SetBkColor (BkColor);

  00114	56		 push	 esi
  00115	8d 4d 8c	 lea	 ecx, DWORD PTR _dc$[ebp]
  00118	8b f8		 mov	 edi, eax
  0011a	e8 00 00 00 00	 call	 ?SetBkColor@CDC@@UAEKK@Z ; CDC::SetBkColor
; File C:\Program Files (x86)\Microsoft Visual Studio\2019\Community\VC\Tools\MSVC\14.29.30133\atlmfc\include\afxwin1.inl

; 600  : 		return _AFX_FUNCNAME(DrawText)((LPCTSTR)str, (int)str.GetLength(), lpRect, nFormat); }

  0011f	8b 4d 88	 mov	 ecx, DWORD PTR _Text$[ebp]
; File D:\git\src\IBK\IBK_DRFN\ProjSrc\SrcChartEx\ChartAddIn\ChartDesignPropertyAddIn\ChartDesignPropertyAddIn\ComboEdit.cpp

; 151  : 	COLORREF oldBkColor = dc.SetBkColor (BkColor);

  00122	8b f0		 mov	 esi, eax
; File C:\Program Files (x86)\Microsoft Visual Studio\2019\Community\VC\Tools\MSVC\14.29.30133\atlmfc\include\afxwin1.inl

; 600  : 		return _AFX_FUNCNAME(DrawText)((LPCTSTR)str, (int)str.GetLength(), lpRect, nFormat); }

  00124	8b 55 8c	 mov	 edx, DWORD PTR _dc$[ebp]
  00127	8d 45 e0	 lea	 eax, DWORD PTR _rect$[ebp]
  0012a	6a 24		 push	 36			; 00000024H
  0012c	50		 push	 eax
  0012d	ff 71 f4	 push	 DWORD PTR [ecx-12]
  00130	51		 push	 ecx
  00131	8d 4d 8c	 lea	 ecx, DWORD PTR _dc$[ebp]
  00134	ff 52 70	 call	 DWORD PTR [edx+112]
; File D:\git\src\IBK\IBK_DRFN\ProjSrc\SrcChartEx\ChartAddIn\ChartDesignPropertyAddIn\ChartDesignPropertyAddIn\ComboEdit.cpp

; 155  : 	dc.SelectObject (pOldFont);

  00137	53		 push	 ebx
  00138	8d 4d 8c	 lea	 ecx, DWORD PTR _dc$[ebp]
  0013b	e8 00 00 00 00	 call	 ?SelectObject@CDC@@UAEPAVCFont@@PAV2@@Z ; CDC::SelectObject

; 156  : 	dc.SetTextColor (oldTextColor);

  00140	57		 push	 edi
  00141	8d 4d 8c	 lea	 ecx, DWORD PTR _dc$[ebp]
  00144	e8 00 00 00 00	 call	 ?SetTextColor@CDC@@UAEKK@Z ; CDC::SetTextColor

; 157  : 	dc.SetBkColor (oldBkColor);

  00149	56		 push	 esi
  0014a	8d 4d 8c	 lea	 ecx, DWORD PTR _dc$[ebp]
  0014d	e8 00 00 00 00	 call	 ?SetBkColor@CDC@@UAEKK@Z ; CDC::SetBkColor
; File C:\Program Files (x86)\Microsoft Visual Studio\2019\Community\VC\Tools\MSVC\14.29.30133\atlmfc\include\afxwin1.inl

; 130  : 	{ }

  00152	8d 8d 7c ff ff
	ff		 lea	 ecx, DWORD PTR _BkBrush$[ebp]
  00158	c7 85 7c ff ff
	ff 00 00 00 00	 mov	 DWORD PTR _BkBrush$[ebp], OFFSET ??_7CBrush@@6B@
  00162	e8 00 00 00 00	 call	 ??1CGdiObject@@UAE@XZ	; CGdiObject::~CGdiObject
; File D:\git\src\IBK\IBK_DRFN\ProjSrc\SrcChartEx\ChartAddIn\ChartDesignPropertyAddIn\ChartDesignPropertyAddIn\ComboEdit.cpp

; 160  : }

  00167	8d 4d 88	 lea	 ecx, DWORD PTR _Text$[ebp]
  0016a	ff 15 00 00 00
	00		 call	 DWORD PTR __imp_??1?$CStringT@DV?$StrTraitMFC_DLL@DV?$ChTraitsCRT@D@ATL@@@@@ATL@@QAE@XZ
  00170	8d 4d 8c	 lea	 ecx, DWORD PTR _dc$[ebp]
  00173	e8 00 00 00 00	 call	 ??1CPaintDC@@UAE@XZ	; CPaintDC::~CPaintDC
  00178	8b 4d f4	 mov	 ecx, DWORD PTR __$EHRec$[ebp]
  0017b	64 89 0d 00 00
	00 00		 mov	 DWORD PTR fs:0, ecx
  00182	59		 pop	 ecx
  00183	5f		 pop	 edi
  00184	5e		 pop	 esi
  00185	5b		 pop	 ebx
  00186	8b 4d f0	 mov	 ecx, DWORD PTR __$ArrayPad$[ebp]
  00189	33 cd		 xor	 ecx, ebp
  0018b	e8 00 00 00 00	 call	 @__security_check_cookie@4
  00190	8b e5		 mov	 esp, ebp
  00192	5d		 pop	 ebp
  00193	c3		 ret	 0
_TEXT	ENDS
;	COMDAT text$x
text$x	SEGMENT
__unwindfunclet$?OnPaint@CComboEdit@@IAEXXZ$0:
  00000	8d 4d 8c	 lea	 ecx, DWORD PTR _dc$[ebp]
  00003	e9 00 00 00 00	 jmp	 ??1CPaintDC@@UAE@XZ	; CPaintDC::~CPaintDC
__unwindfunclet$?OnPaint@CComboEdit@@IAEXXZ$1:
  00008	8d 4d 88	 lea	 ecx, DWORD PTR _Text$[ebp]
  0000b	ff 25 00 00 00
	00		 jmp	 DWORD PTR __imp_??1?$CStringT@DV?$StrTraitMFC_DLL@DV?$ChTraitsCRT@D@ATL@@@@@ATL@@QAE@XZ
__unwindfunclet$?OnPaint@CComboEdit@@IAEXXZ$2:
  00011	8d 8d 7c ff ff
	ff		 lea	 ecx, DWORD PTR _BkBrush$[ebp]
  00017	e9 00 00 00 00	 jmp	 ??1CBrush@@UAE@XZ	; CBrush::~CBrush
  0001c	cc		 int	 3
  0001d	cc		 int	 3
  0001e	cc		 int	 3
  0001f	cc		 int	 3
  00020	cc		 int	 3
__ehhandler$?OnPaint@CComboEdit@@IAEXXZ:
  00021	90		 npad	 1
  00022	90		 npad	 1
  00023	8b 54 24 08	 mov	 edx, DWORD PTR [esp+8]
  00027	8d 42 0c	 lea	 eax, DWORD PTR [edx+12]
  0002a	8b 8a 78 ff ff
	ff		 mov	 ecx, DWORD PTR [edx-136]
  00030	33 c8		 xor	 ecx, eax
  00032	e8 00 00 00 00	 call	 @__security_check_cookie@4
  00037	8b 4a fc	 mov	 ecx, DWORD PTR [edx-4]
  0003a	33 c8		 xor	 ecx, eax
  0003c	e8 00 00 00 00	 call	 @__security_check_cookie@4
  00041	b8 00 00 00 00	 mov	 eax, OFFSET __ehfuncinfo$?OnPaint@CComboEdit@@IAEXXZ
  00046	e9 00 00 00 00	 jmp	 ___CxxFrameHandler3
text$x	ENDS
?OnPaint@CComboEdit@@IAEXXZ ENDP			; CComboEdit::OnPaint
; Function compile flags: /Ogtp
; File D:\git\src\IBK\IBK_DRFN\ProjSrc\SrcChartEx\ChartAddIn\ChartDesignPropertyAddIn\ChartDesignPropertyAddIn\ComboEdit.cpp
;	COMDAT ?OnLButtonDown@CComboEdit@@IAEXIVCPoint@@@Z
_TEXT	SEGMENT
_nFlags$ = 8						; size = 4
_point$ = 12						; size = 8
?OnLButtonDown@CComboEdit@@IAEXIVCPoint@@@Z PROC	; CComboEdit::OnLButtonDown, COMDAT
; _this$ = ecx

; 84   : 	
; 85   : 	UNREFERENCED_PARAMETER (point);
; 86   : 	UNREFERENCED_PARAMETER (nFlags);
; 87   : 
; 88   : //	CTreeCombo* pParent = static_cast<CTreeCombo*>(GetParent ());
; 89   : //	_ASSERTE (pParent);
; 90   : //	if (pParent)
; 91   : //	{
; 92   : //		//Drop down the tree control
; 93   : //		CButton& DropDownButton = pParent->GetDropDownButton ();
; 94   : //		pParent->PostMessage (WM_COMMAND, MAKEWPARAM(DropDownButton.GetDlgCtrlID(), BN_CLICKED), (LPARAM) DropDownButton.GetSafeHwnd ());
; 95   : //	}
; 96   : 	
; 97   : 	
; 98   : }

  00000	c2 0c 00	 ret	 12			; 0000000cH
?OnLButtonDown@CComboEdit@@IAEXIVCPoint@@@Z ENDP	; CComboEdit::OnLButtonDown
_TEXT	ENDS
; Function compile flags: /Ogtp
; File D:\git\src\IBK\IBK_DRFN\ProjSrc\SrcChartEx\ChartAddIn\ChartDesignPropertyAddIn\ChartDesignPropertyAddIn\ComboEdit.cpp
;	COMDAT ?OnContextMenu@CComboEdit@@IAEXPAVCWnd@@VCPoint@@@Z
_TEXT	SEGMENT
_pWnd$ = 8						; size = 4
_point$ = 12						; size = 8
?OnContextMenu@CComboEdit@@IAEXPAVCWnd@@VCPoint@@@Z PROC ; CComboEdit::OnContextMenu, COMDAT
; _this$ = ecx

; 77   : 	UNREFERENCED_PARAMETER (pWnd);
; 78   : 	UNREFERENCED_PARAMETER (point);
; 79   : 	//no context menu	
; 80   : }

  00000	c2 0c 00	 ret	 12			; 0000000cH
?OnContextMenu@CComboEdit@@IAEXPAVCWnd@@VCPoint@@@Z ENDP ; CComboEdit::OnContextMenu
_TEXT	ENDS
; Function compile flags: /Ogtp
; File D:\git\src\IBK\IBK_DRFN\ProjSrc\SrcChartEx\ChartAddIn\ChartDesignPropertyAddIn\ChartDesignPropertyAddIn\ComboEdit.cpp
;	COMDAT ?OnChar@CComboEdit@@IAEXIII@Z
_TEXT	SEGMENT
_nChar$ = 8						; size = 4
_nRepCnt$ = 12						; size = 4
_nFlags$ = 16						; size = 4
?OnChar@CComboEdit@@IAEXIII@Z PROC			; CComboEdit::OnChar, COMDAT
; _this$ = ecx

; 57   : 
; 58   : 	UNREFERENCED_PARAMETER (nChar);
; 59   : 	UNREFERENCED_PARAMETER (nRepCnt);
; 60   : 	UNREFERENCED_PARAMETER (nFlags);
; 61   : 
; 62   : 	//Customize this to do lookups, etc.
; 63   : 	return;	//make control read only
; 64   : }

  00000	c2 0c 00	 ret	 12			; 0000000cH
?OnChar@CComboEdit@@IAEXIII@Z ENDP			; CComboEdit::OnChar
_TEXT	ENDS
; Function compile flags: /Ogtp
; File D:\git\src\IBK\IBK_DRFN\ProjSrc\SrcChartEx\ChartAddIn\ChartDesignPropertyAddIn\ChartDesignPropertyAddIn\ComboEdit.cpp
;	COMDAT ??1CComboEdit@@UAE@XZ
_TEXT	SEGMENT
??1CComboEdit@@UAE@XZ PROC				; CComboEdit::~CComboEdit, COMDAT
; _this$ = ecx

; 29   : {

  00000	c7 01 00 00 00
	00		 mov	 DWORD PTR [ecx], OFFSET ??_7CComboEdit@@6B@

; 30   : }

  00006	e9 00 00 00 00	 jmp	 ??1CEdit@@UAE@XZ	; CEdit::~CEdit
??1CComboEdit@@UAE@XZ ENDP				; CComboEdit::~CComboEdit
_TEXT	ENDS
; Function compile flags: /Ogtp
; File D:\git\src\IBK\IBK_DRFN\ProjSrc\SrcChartEx\ChartAddIn\ChartDesignPropertyAddIn\ChartDesignPropertyAddIn\ComboEdit.cpp
; File C:\Program Files (x86)\Microsoft Visual Studio\2019\Community\VC\Tools\MSVC\14.29.30133\atlmfc\include\afxwin2.inl
; File D:\git\src\IBK\IBK_DRFN\ProjSrc\SrcChartEx\ChartAddIn\ChartDesignPropertyAddIn\ChartDesignPropertyAddIn\ComboEdit.cpp
;	COMDAT ??0CComboEdit@@QAE@XZ
_TEXT	SEGMENT
_this$ = -4						; size = 4
??0CComboEdit@@QAE@XZ PROC				; CComboEdit::CComboEdit, COMDAT
; _this$ = ecx

; 25   : {

  00000	55		 push	 ebp
  00001	8b ec		 mov	 ebp, esp
  00003	51		 push	 ecx
  00004	56		 push	 esi
  00005	8b f1		 mov	 esi, ecx
  00007	89 75 fc	 mov	 DWORD PTR _this$[ebp], esi
; File C:\Program Files (x86)\Microsoft Visual Studio\2019\Community\VC\Tools\MSVC\14.29.30133\atlmfc\include\afxwin2.inl

; 851  : 	{ }

  0000a	e8 00 00 00 00	 call	 ??0CWnd@@QAE@XZ		; CWnd::CWnd
; File D:\git\src\IBK\IBK_DRFN\ProjSrc\SrcChartEx\ChartAddIn\ChartDesignPropertyAddIn\ChartDesignPropertyAddIn\ComboEdit.cpp

; 25   : {

  0000f	c7 06 00 00 00
	00		 mov	 DWORD PTR [esi], OFFSET ??_7CComboEdit@@6B@

; 26   : }

  00015	8b c6		 mov	 eax, esi
  00017	5e		 pop	 esi
  00018	8b e5		 mov	 esp, ebp
  0001a	5d		 pop	 ebp
  0001b	c3		 ret	 0
??0CComboEdit@@QAE@XZ ENDP				; CComboEdit::CComboEdit
_TEXT	ENDS
; Function compile flags: /Ogtp
; File C:\Program Files (x86)\Microsoft Visual Studio\2019\Community\VC\Tools\MSVC\14.29.30133\atlmfc\include\afx.inl
;	COMDAT ??_GCEdit@@UAEPAXI@Z
_TEXT	SEGMENT
___flags$ = 8						; size = 4
??_GCEdit@@UAEPAXI@Z PROC				; CEdit::`scalar deleting destructor', COMDAT
; _this$ = ecx
  00000	55		 push	 ebp
  00001	8b ec		 mov	 ebp, esp
  00003	56		 push	 esi
  00004	8b f1		 mov	 esi, ecx
  00006	e8 00 00 00 00	 call	 ??1CEdit@@UAE@XZ	; CEdit::~CEdit
  0000b	8b 45 08	 mov	 eax, DWORD PTR ___flags$[ebp]
  0000e	a8 01		 test	 al, 1
  00010	74 22		 je	 SHORT $LN9@scalar
  00012	a8 04		 test	 al, 4
  00014	75 10		 jne	 SHORT $LN3@scalar

; 112  : 	{ ::operator delete(p); }

  00016	56		 push	 esi
  00017	e8 00 00 00 00	 call	 ??3@YAXPAX@Z		; operator delete
  0001c	83 c4 04	 add	 esp, 4
  0001f	8b c6		 mov	 eax, esi
  00021	5e		 pop	 esi
  00022	5d		 pop	 ebp
  00023	c2 04 00	 ret	 4
$LN3@scalar:
  00026	68 80 00 00 00	 push	 128			; 00000080H
  0002b	56		 push	 esi
  0002c	e8 00 00 00 00	 call	 ?__global_delete@@YAXPAXI@Z ; __global_delete
  00031	83 c4 08	 add	 esp, 8
$LN9@scalar:
  00034	8b c6		 mov	 eax, esi
  00036	5e		 pop	 esi
  00037	5d		 pop	 ebp
  00038	c2 04 00	 ret	 4
??_GCEdit@@UAEPAXI@Z ENDP				; CEdit::`scalar deleting destructor'
_TEXT	ENDS
; Function compile flags: /Ogtp
; File C:\Program Files (x86)\Microsoft Visual Studio\2019\Community\VC\Tools\MSVC\14.29.30133\atlmfc\include\afxwin2.inl
;	COMDAT ?EndModalState@CWnd@@UAEXXZ
_TEXT	SEGMENT
?EndModalState@CWnd@@UAEXXZ PROC			; CWnd::EndModalState, COMDAT
; _this$ = ecx

; 567  : 	{ ::EnableWindow(m_hWnd, TRUE); }

  00000	6a 01		 push	 1
  00002	ff 71 20	 push	 DWORD PTR [ecx+32]
  00005	ff 15 00 00 00
	00		 call	 DWORD PTR __imp__EnableWindow@8
  0000b	c3		 ret	 0
?EndModalState@CWnd@@UAEXXZ ENDP			; CWnd::EndModalState
_TEXT	ENDS
; Function compile flags: /Ogtp
; File C:\Program Files (x86)\Microsoft Visual Studio\2019\Community\VC\Tools\MSVC\14.29.30133\atlmfc\include\afxwin2.inl
;	COMDAT ?BeginModalState@CWnd@@UAEXXZ
_TEXT	SEGMENT
?BeginModalState@CWnd@@UAEXXZ PROC			; CWnd::BeginModalState, COMDAT
; _this$ = ecx

; 565  : 	{ ::EnableWindow(m_hWnd, FALSE); }

  00000	6a 00		 push	 0
  00002	ff 71 20	 push	 DWORD PTR [ecx+32]
  00005	ff 15 00 00 00
	00		 call	 DWORD PTR __imp__EnableWindow@8
  0000b	c3		 ret	 0
?BeginModalState@CWnd@@UAEXXZ ENDP			; CWnd::BeginModalState
_TEXT	ENDS
; Function compile flags: /Ogtp
; File C:\Program Files (x86)\Microsoft Visual Studio\2019\Community\VC\Tools\MSVC\14.29.30133\atlmfc\include\afxwin2.inl
;	COMDAT ?DoDataExchange@CWnd@@MAEXPAVCDataExchange@@@Z
_TEXT	SEGMENT
___formal$ = 8						; size = 4
?DoDataExchange@CWnd@@MAEXPAVCDataExchange@@@Z PROC	; CWnd::DoDataExchange, COMDAT
; _this$ = ecx

; 561  : 	{ } // default does nothing

  00000	c2 04 00	 ret	 4
?DoDataExchange@CWnd@@MAEXPAVCDataExchange@@@Z ENDP	; CWnd::DoDataExchange
_TEXT	ENDS
; Function compile flags: /Ogtp
; File C:\Program Files (x86)\Microsoft Visual Studio\2019\Community\VC\Tools\MSVC\14.29.30133\atlmfc\include\afxwin2.inl
;	COMDAT ?OnKillFocus@CWnd@@IAEXPAV1@@Z
_TEXT	SEGMENT
___formal$ = 8						; size = 4
?OnKillFocus@CWnd@@IAEXPAV1@@Z PROC			; CWnd::OnKillFocus, COMDAT
; _this$ = ecx

; 308  : 	{ Default(); }

  00000	e8 00 00 00 00	 call	 ?Default@CWnd@@IAEJXZ	; CWnd::Default
  00005	c2 04 00	 ret	 4
?OnKillFocus@CWnd@@IAEXPAV1@@Z ENDP			; CWnd::OnKillFocus
_TEXT	ENDS
; Function compile flags: /Ogtp
; File C:\Program Files (x86)\Microsoft Visual Studio\2019\Community\VC\Tools\MSVC\14.29.30133\atlmfc\include\afxwin1.inl
; File C:\Program Files (x86)\Microsoft Visual Studio\2019\Community\VC\Tools\MSVC\14.29.30133\atlmfc\include\afx.inl
;	COMDAT ??_GCBrush@@UAEPAXI@Z
_TEXT	SEGMENT
___flags$ = 8						; size = 4
??_GCBrush@@UAEPAXI@Z PROC				; CBrush::`scalar deleting destructor', COMDAT
; _this$ = ecx
  00000	55		 push	 ebp
  00001	8b ec		 mov	 ebp, esp
; File C:\Program Files (x86)\Microsoft Visual Studio\2019\Community\VC\Tools\MSVC\14.29.30133\atlmfc\include\afxwin1.inl

; 130  : 	{ }

  00003	56		 push	 esi
  00004	8b f1		 mov	 esi, ecx
  00006	c7 06 00 00 00
	00		 mov	 DWORD PTR [esi], OFFSET ??_7CBrush@@6B@
  0000c	e8 00 00 00 00	 call	 ??1CGdiObject@@UAE@XZ	; CGdiObject::~CGdiObject
  00011	8b 45 08	 mov	 eax, DWORD PTR ___flags$[ebp]
  00014	a8 01		 test	 al, 1
  00016	74 1f		 je	 SHORT $LN12@scalar
  00018	a8 04		 test	 al, 4
  0001a	75 10		 jne	 SHORT $LN3@scalar
; File C:\Program Files (x86)\Microsoft Visual Studio\2019\Community\VC\Tools\MSVC\14.29.30133\atlmfc\include\afx.inl

; 112  : 	{ ::operator delete(p); }

  0001c	56		 push	 esi
  0001d	e8 00 00 00 00	 call	 ??3@YAXPAX@Z		; operator delete
  00022	83 c4 04	 add	 esp, 4
  00025	8b c6		 mov	 eax, esi
  00027	5e		 pop	 esi
  00028	5d		 pop	 ebp
  00029	c2 04 00	 ret	 4
$LN3@scalar:
  0002c	6a 08		 push	 8
  0002e	56		 push	 esi
  0002f	e8 00 00 00 00	 call	 ?__global_delete@@YAXPAXI@Z ; __global_delete
  00034	83 c4 08	 add	 esp, 8
$LN12@scalar:
  00037	8b c6		 mov	 eax, esi
  00039	5e		 pop	 esi
  0003a	5d		 pop	 ebp
  0003b	c2 04 00	 ret	 4
??_GCBrush@@UAEPAXI@Z ENDP				; CBrush::`scalar deleting destructor'
_TEXT	ENDS
; Function compile flags: /Ogtp
; File C:\Program Files (x86)\Microsoft Visual Studio\2019\Community\VC\Tools\MSVC\14.29.30133\atlmfc\include\afxwin1.inl
;	COMDAT ??1CBrush@@UAE@XZ
_TEXT	SEGMENT
??1CBrush@@UAE@XZ PROC					; CBrush::~CBrush, COMDAT
; _this$ = ecx

; 130  : 	{ }

  00000	c7 01 00 00 00
	00		 mov	 DWORD PTR [ecx], OFFSET ??_7CBrush@@6B@
  00006	e9 00 00 00 00	 jmp	 ??1CGdiObject@@UAE@XZ	; CGdiObject::~CGdiObject
??1CBrush@@UAE@XZ ENDP					; CBrush::~CBrush
_TEXT	ENDS
; Function compile flags: /Ogtp
; File C:\Program Files (x86)\Microsoft Visual Studio\2019\Community\VC\Tools\MSVC\14.29.30133\atlmfc\include\afx.inl
;	COMDAT ??_GCGdiObject@@UAEPAXI@Z
_TEXT	SEGMENT
___flags$ = 8						; size = 4
??_GCGdiObject@@UAEPAXI@Z PROC				; CGdiObject::`scalar deleting destructor', COMDAT
; _this$ = ecx
  00000	55		 push	 ebp
  00001	8b ec		 mov	 ebp, esp
  00003	56		 push	 esi
  00004	8b f1		 mov	 esi, ecx
  00006	e8 00 00 00 00	 call	 ??1CGdiObject@@UAE@XZ	; CGdiObject::~CGdiObject
  0000b	8b 45 08	 mov	 eax, DWORD PTR ___flags$[ebp]
  0000e	a8 01		 test	 al, 1
  00010	74 1f		 je	 SHORT $LN9@scalar
  00012	a8 04		 test	 al, 4
  00014	75 10		 jne	 SHORT $LN3@scalar

; 112  : 	{ ::operator delete(p); }

  00016	56		 push	 esi
  00017	e8 00 00 00 00	 call	 ??3@YAXPAX@Z		; operator delete
  0001c	83 c4 04	 add	 esp, 4
  0001f	8b c6		 mov	 eax, esi
  00021	5e		 pop	 esi
  00022	5d		 pop	 ebp
  00023	c2 04 00	 ret	 4
$LN3@scalar:
  00026	6a 08		 push	 8
  00028	56		 push	 esi
  00029	e8 00 00 00 00	 call	 ?__global_delete@@YAXPAXI@Z ; __global_delete
  0002e	83 c4 08	 add	 esp, 8
$LN9@scalar:
  00031	8b c6		 mov	 eax, esi
  00033	5e		 pop	 esi
  00034	5d		 pop	 ebp
  00035	c2 04 00	 ret	 4
??_GCGdiObject@@UAEPAXI@Z ENDP				; CGdiObject::`scalar deleting destructor'
_TEXT	ENDS
; Function compile flags: /Ogtp
; File C:\Program Files (x86)\Microsoft Visual Studio\2019\Community\VC\Tools\MSVC\14.29.30133\atlmfc\include\afxwin1.inl
;	COMDAT ??1CGdiObject@@UAE@XZ
_TEXT	SEGMENT
_pException$2 = -540					; size = 4
_strMsg$3 = -536					; size = 4
_szErrorMessage$4 = -532				; size = 512
__$ArrayPad$ = -20					; size = 4
__$EHRec$ = -16						; size = 16
??1CGdiObject@@UAE@XZ PROC				; CGdiObject::~CGdiObject, COMDAT
; _this$ = ecx

; 74   : {

  00000	55		 push	 ebp
  00001	8b ec		 mov	 ebp, esp
  00003	6a ff		 push	 -1
  00005	68 00 00 00 00	 push	 __ehhandler$??1CGdiObject@@UAE@XZ
  0000a	64 a1 00 00 00
	00		 mov	 eax, DWORD PTR fs:0
  00010	50		 push	 eax
  00011	81 ec 10 02 00
	00		 sub	 esp, 528		; 00000210H
  00017	a1 00 00 00 00	 mov	 eax, DWORD PTR ___security_cookie
  0001c	33 c5		 xor	 eax, ebp
  0001e	89 45 ec	 mov	 DWORD PTR __$ArrayPad$[ebp], eax
  00021	53		 push	 ebx
  00022	56		 push	 esi
  00023	57		 push	 edi
  00024	50		 push	 eax
  00025	8d 45 f4	 lea	 eax, DWORD PTR __$EHRec$[ebp+4]
  00028	64 a3 00 00 00
	00		 mov	 DWORD PTR fs:0, eax
  0002e	89 65 f0	 mov	 DWORD PTR __$EHRec$[ebp], esp
  00031	c7 01 00 00 00
	00		 mov	 DWORD PTR [ecx], OFFSET ??_7CGdiObject@@6B@

; 75   : 	AFX_BEGIN_DESTRUCTOR

  00037	c7 45 fc 00 00
	00 00		 mov	 DWORD PTR __$EHRec$[ebp+12], 0

; 76   : 	DeleteObject();

  0003e	e8 00 00 00 00	 call	 ?DeleteObject@CGdiObject@@QAEHXZ ; CGdiObject::DeleteObject
$LN18@CGdiObject:

; 78   : }

  00043	8b 4d f4	 mov	 ecx, DWORD PTR __$EHRec$[ebp+4]
  00046	64 89 0d 00 00
	00 00		 mov	 DWORD PTR fs:0, ecx
  0004d	59		 pop	 ecx
  0004e	5f		 pop	 edi
  0004f	5e		 pop	 esi
  00050	5b		 pop	 ebx
  00051	8b 4d ec	 mov	 ecx, DWORD PTR __$ArrayPad$[ebp]
  00054	33 cd		 xor	 ecx, ebp
  00056	e8 00 00 00 00	 call	 @__security_check_cookie@4
  0005b	8b e5		 mov	 esp, ebp
  0005d	5d		 pop	 ebp
  0005e	c3		 ret	 0
__catch$??1CGdiObject@@UAE@XZ$0:

; 77   : 	AFX_END_DESTRUCTOR

  0005f	8d 8d e8 fd ff
	ff		 lea	 ecx, DWORD PTR _strMsg$3[ebp]
  00065	ff 15 00 00 00
	00		 call	 DWORD PTR __imp_??0?$CStringT@DV?$StrTraitMFC_DLL@DV?$ChTraitsCRT@D@ATL@@@@@ATL@@QAE@XZ
  0006b	8b b5 e4 fd ff
	ff		 mov	 esi, DWORD PTR _pException$2[ebp]
  00071	8d 8d ec fd ff
	ff		 lea	 ecx, DWORD PTR _szErrorMessage$4[ebp]
  00077	6a 00		 push	 0
  00079	68 00 02 00 00	 push	 512			; 00000200H
  0007e	51		 push	 ecx
  0007f	8b 06		 mov	 eax, DWORD PTR [esi]
  00081	8b ce		 mov	 ecx, esi
  00083	c6 45 fc 02	 mov	 BYTE PTR __$EHRec$[ebp+12], 2
  00087	ff 50 14	 call	 DWORD PTR [eax+20]
  0008a	85 c0		 test	 eax, eax
  0008c	74 2a		 je	 SHORT $LN9@CGdiObject
  0008e	8d 85 ec fd ff
	ff		 lea	 eax, DWORD PTR _szErrorMessage$4[ebp]
  00094	50		 push	 eax
  00095	6a 4d		 push	 77			; 0000004dH
  00097	68 00 00 00 00	 push	 OFFSET ??_C@_0HD@JJCHHHNK@C?3?2Program?5Files?5?$CIx86?$CJ?2Microsof@
  0009c	68 00 00 00 00	 push	 OFFSET ??_C@_0BP@OIEOKIDM@Exception?5thrown?5in?5destructor@
  000a1	8d 85 e8 fd ff
	ff		 lea	 eax, DWORD PTR _strMsg$3[ebp]
  000a7	68 00 00 00 00	 push	 OFFSET ??_C@_0BB@HBOOMJBF@?$CFTs?5?$CI?$CFTs?3?$CFd?$CJ?6?$CFTs@
  000ac	50		 push	 eax
  000ad	ff 15 00 00 00
	00		 call	 DWORD PTR __imp_?Format@?$CStringT@DV?$StrTraitMFC_DLL@DV?$ChTraitsCRT@D@ATL@@@@@ATL@@QAAXPBDZZ
  000b3	83 c4 18	 add	 esp, 24			; 00000018H
  000b6	eb 21		 jmp	 SHORT $LN10@CGdiObject
$LN9@CGdiObject:
  000b8	6a 4d		 push	 77			; 0000004dH
  000ba	68 00 00 00 00	 push	 OFFSET ??_C@_0HD@JJCHHHNK@C?3?2Program?5Files?5?$CIx86?$CJ?2Microsof@
  000bf	68 00 00 00 00	 push	 OFFSET ??_C@_0BP@OIEOKIDM@Exception?5thrown?5in?5destructor@
  000c4	8d 85 e8 fd ff
	ff		 lea	 eax, DWORD PTR _strMsg$3[ebp]
  000ca	68 00 00 00 00	 push	 OFFSET ??_C@_0N@OMEMOKLE@?$CFTs?5?$CI?$CFTs?3?$CFd?$CJ@
  000cf	50		 push	 eax
  000d0	ff 15 00 00 00
	00		 call	 DWORD PTR __imp_?Format@?$CStringT@DV?$StrTraitMFC_DLL@DV?$ChTraitsCRT@D@ATL@@@@@ATL@@QAAXPBDZZ
  000d6	83 c4 14	 add	 esp, 20			; 00000014H
$LN10@CGdiObject:
  000d9	6a 00		 push	 0
  000db	6a 00		 push	 0
  000dd	ff b5 e8 fd ff
	ff		 push	 DWORD PTR _strMsg$3[ebp]
  000e3	e8 00 00 00 00	 call	 ?AfxMessageBox@@YGHPBDII@Z ; AfxMessageBox
  000e8	8d 8d e8 fd ff
	ff		 lea	 ecx, DWORD PTR _strMsg$3[ebp]
  000ee	ff 15 00 00 00
	00		 call	 DWORD PTR __imp_??1?$CStringT@DV?$StrTraitMFC_DLL@DV?$ChTraitsCRT@D@ATL@@@@@ATL@@QAE@XZ
  000f4	8b 06		 mov	 eax, DWORD PTR [esi]
  000f6	8b ce		 mov	 ecx, esi
  000f8	6a 01		 push	 1
  000fa	ff 50 04	 call	 DWORD PTR [eax+4]
  000fd	b8 00 00 00 00	 mov	 eax, $LN18@CGdiObject
  00102	c3		 ret	 0
_TEXT	ENDS
;	COMDAT text$x
text$x	SEGMENT
__unwindfunclet$??1CGdiObject@@UAE@XZ$2:
  00000	8d 8d e8 fd ff
	ff		 lea	 ecx, DWORD PTR _strMsg$3[ebp]
  00006	ff 25 00 00 00
	00		 jmp	 DWORD PTR __imp_??1?$CStringT@DV?$StrTraitMFC_DLL@DV?$ChTraitsCRT@D@ATL@@@@@ATL@@QAE@XZ
  0000c	cc		 int	 3
  0000d	cc		 int	 3
  0000e	cc		 int	 3
  0000f	cc		 int	 3
  00010	cc		 int	 3
__ehhandler$??1CGdiObject@@UAE@XZ:
  00011	90		 npad	 1
  00012	90		 npad	 1
  00013	8b 54 24 08	 mov	 edx, DWORD PTR [esp+8]
  00017	8d 42 0c	 lea	 eax, DWORD PTR [edx+12]
  0001a	8b 8a e0 fd ff
	ff		 mov	 ecx, DWORD PTR [edx-544]
  00020	33 c8		 xor	 ecx, eax
  00022	e8 00 00 00 00	 call	 @__security_check_cookie@4
  00027	8b 4a f8	 mov	 ecx, DWORD PTR [edx-8]
  0002a	33 c8		 xor	 ecx, eax
  0002c	e8 00 00 00 00	 call	 @__security_check_cookie@4
  00031	b8 00 00 00 00	 mov	 eax, OFFSET __ehfuncinfo$??1CGdiObject@@UAE@XZ
  00036	e9 00 00 00 00	 jmp	 ___CxxFrameHandler3
text$x	ENDS
??1CGdiObject@@UAE@XZ ENDP				; CGdiObject::~CGdiObject
; Function compile flags: /Ogtp
; File C:\Program Files (x86)\Microsoft Visual Studio\2019\Community\VC\Tools\MSVC\14.29.30133\atlmfc\include\afx.inl
;	COMDAT ?Dump@CObject@@UBEXAAVCDumpContext@@@Z
_TEXT	SEGMENT
___formal$ = 8						; size = 4
?Dump@CObject@@UBEXAAVCDumpContext@@@Z PROC		; CObject::Dump, COMDAT
; _this$ = ecx

; 122  : 	{ /* no dumping in release builds */ }

  00000	c2 04 00	 ret	 4
?Dump@CObject@@UBEXAAVCDumpContext@@@Z ENDP		; CObject::Dump
_TEXT	ENDS
; Function compile flags: /Ogtp
; File C:\Program Files (x86)\Microsoft Visual Studio\2019\Community\VC\Tools\MSVC\14.29.30133\atlmfc\include\afx.inl
;	COMDAT ?AssertValid@CObject@@UBEXXZ
_TEXT	SEGMENT
?AssertValid@CObject@@UBEXXZ PROC			; CObject::AssertValid, COMDAT
; _this$ = ecx

; 120  : 	{ /* no asserts in release builds */ }

  00000	c2 00 00	 ret	 0
?AssertValid@CObject@@UBEXXZ ENDP			; CObject::AssertValid
_TEXT	ENDS
; Function compile flags: /Ogtp
; File C:\Program Files (x86)\Microsoft Visual Studio\2019\Community\VC\Tools\MSVC\14.29.30133\atlmfc\include\afx.inl
;	COMDAT ?Serialize@CObject@@UAEXAAVCArchive@@@Z
_TEXT	SEGMENT
___formal$ = 8						; size = 4
?Serialize@CObject@@UAEXAAVCArchive@@@Z PROC		; CObject::Serialize, COMDAT
; _this$ = ecx

; 106  : 	{ /* CObject does not serialize anything by default */ }

  00000	c2 04 00	 ret	 4
?Serialize@CObject@@UAEXAAVCArchive@@@Z ENDP		; CObject::Serialize
_TEXT	ENDS
; Function compile flags: /Ogtp
; File C:\Program Files (x86)\Microsoft Visual Studio\2019\Community\VC\Tools\MSVC\14.29.30133\atlmfc\include\afx.inl
;	COMDAT ??1CObject@@UAE@XZ
_TEXT	SEGMENT
??1CObject@@UAE@XZ PROC					; CObject::~CObject, COMDAT
; _this$ = ecx

; 104  : 	{ }

  00000	c2 00 00	 ret	 0
??1CObject@@UAE@XZ ENDP					; CObject::~CObject
_TEXT	ENDS
; Function compile flags: /Ogtp
; File D:\git\src\IBK\IBK_DRFN\ProjSrc\SrcChartEx\ChartAddIn\ChartDesignPropertyAddIn\ChartDesignPropertyAddIn\ComboEdit.cpp
;	COMDAT ?__empty_global_delete@@YAXPAXI@Z
_TEXT	SEGMENT
___formal$ = 8						; size = 4
___formal$ = 12						; size = 4
?__empty_global_delete@@YAXPAXI@Z PROC			; __empty_global_delete, COMDAT

  00000	c2 00 00	 ret	 0
?__empty_global_delete@@YAXPAXI@Z ENDP			; __empty_global_delete
_TEXT	ENDS
; Function compile flags: /Ogtp
; File D:\git\src\IBK\IBK_DRFN\ProjSrc\SrcChartEx\ChartAddIn\ChartDesignPropertyAddIn\ChartDesignPropertyAddIn\ComboEdit.cpp
;	COMDAT ?__empty_global_delete@@YAXPAX@Z
_TEXT	SEGMENT
___formal$ = 8						; size = 4
?__empty_global_delete@@YAXPAX@Z PROC			; __empty_global_delete, COMDAT

  00000	c2 00 00	 ret	 0
?__empty_global_delete@@YAXPAX@Z ENDP			; __empty_global_delete
_TEXT	ENDS
END
