; Listing generated by Microsoft (R) Optimizing Compiler Version 19.29.30145.0 

	TITLE	D:\git\src\IBK\IBK_DRFN\#DRfn-CS\_Obj\ChartDesignPropertyAddIn\DataOfChartListPage.obj
	.686P
	.XMM
	include listing.inc
	.model	flat

INCLUDELIB MSVCRT
INCLUDELIB OLDNAMES

PUBLIC	?__empty_global_delete@@YAXPAX@Z		; __empty_global_delete
PUBLIC	?__empty_global_delete@@YAXPAXI@Z		; __empty_global_delete
PUBLIC	?GetBlockandGraphAllData@CDataOfChartListPage@@QAE?AV?$CStringT@DV?$StrTraitMFC_DLL@DV?$ChTraitsCRT@D@ATL@@@@@ATL@@PAVCChartLink@@@Z ; CDataOfChartListPage::GetBlockandGraphAllData
PUBLIC	?SetData@CDataOfChartListPage@@QAEXABV?$CStringT@DV?$StrTraitMFC_DLL@DV?$ChTraitsCRT@D@ATL@@@@@ATL@@PAUIGraphInfoManager134661@@@Z ; CDataOfChartListPage::SetData
PUBLIC	??0CDataOfChartListPage@@QAE@HHPAVCMyTreeCtrl@@PAUHWND__@@@Z ; CDataOfChartListPage::CDataOfChartListPage
PUBLIC	??0CDataOfChartListPage@@QAE@PAUHWND__@@@Z	; CDataOfChartListPage::CDataOfChartListPage
PUBLIC	??1CDataOfChartListPage@@UAE@XZ			; CDataOfChartListPage::~CDataOfChartListPage
PUBLIC	?GetGraphTypeWhenNoTypeInfo@CDataOfChartListPage@@AAE?AV?$CStringT@DV?$StrTraitMFC_DLL@DV?$ChTraitsCRT@D@ATL@@@@@ATL@@H@Z ; CDataOfChartListPage::GetGraphTypeWhenNoTypeInfo
PUBLIC	?GetGraphType@CDataOfChartListPage@@AAE?AV?$CStringT@DV?$StrTraitMFC_DLL@DV?$ChTraitsCRT@D@ATL@@@@@ATL@@ABV23@PAUIGraphInfoManager134661@@@Z ; CDataOfChartListPage::GetGraphType
PUBLIC	?SetItem@CDataOfChartListPage@@AAEXPAVCChartLink@@ABV?$CStringT@DV?$StrTraitMFC_DLL@DV?$ChTraitsCRT@D@ATL@@@@@ATL@@PAUIGraphInfoManager134661@@@Z ; CDataOfChartListPage::SetItem
PUBLIC	?SetVerticalScaleItem@CDataOfChartListPage@@AAEPAVCChartLink@@HV?$CStringT@DV?$StrTraitMFC_DLL@DV?$ChTraitsCRT@D@ATL@@@@@ATL@@@Z ; CDataOfChartListPage::SetVerticalScaleItem
PUBLIC	?SetVerticalScaleItem_Temp@CDataOfChartListPage@@AAEPAVCChartLink@@HV?$CStringT@DV?$StrTraitMFC_DLL@DV?$ChTraitsCRT@D@ATL@@@@@ATL@@@Z ; CDataOfChartListPage::SetVerticalScaleItem_Temp
PUBLIC	?SetBlockItem@CDataOfChartListPage@@AAEXHV?$CStringT@DV?$StrTraitMFC_DLL@DV?$ChTraitsCRT@D@ATL@@@@@ATL@@@Z ; CDataOfChartListPage::SetBlockItem
PUBLIC	?SetBlockItem_Temp@CDataOfChartListPage@@AAEXHV?$CStringT@DV?$StrTraitMFC_DLL@DV?$ChTraitsCRT@D@ATL@@@@@ATL@@@Z ; CDataOfChartListPage::SetBlockItem_Temp
PUBLIC	?GetGraphAllData@CDataOfChartListPage@@AAE?AV?$CStringT@DV?$StrTraitMFC_DLL@DV?$ChTraitsCRT@D@ATL@@@@@ATL@@PAVCChartLink@@@Z ; CDataOfChartListPage::GetGraphAllData
PUBLIC	?GetVerticalAllData@CDataOfChartListPage@@AAE?AV?$CStringT@DV?$StrTraitMFC_DLL@DV?$ChTraitsCRT@D@ATL@@@@@ATL@@PAVCChartLink@@@Z ; CDataOfChartListPage::GetVerticalAllData
PUBLIC	?GetBlockAllData@CDataOfChartListPage@@AAE?AV?$CStringT@DV?$StrTraitMFC_DLL@DV?$ChTraitsCRT@D@ATL@@@@@ATL@@PAVCChartLink@@@Z ; CDataOfChartListPage::GetBlockAllData
PUBLIC	?GetSignalData@CDataOfChartListPage@@AAEXABV?$CStringT@DV?$StrTraitMFC_DLL@DV?$ChTraitsCRT@D@ATL@@@@@ATL@@AA_N1@Z ; CDataOfChartListPage::GetSignalData
PUBLIC	??_GCDataOfChartListPage@@UAEPAXI@Z		; CDataOfChartListPage::`scalar deleting destructor'
PUBLIC	??_C@_00CNPNBAHC@@				; `string'
PUBLIC	??_7CDataOfChartListPage@@6B@			; CDataOfChartListPage::`vftable'
PUBLIC	??_C@_01ICJEACDI@?$DL@				; `string'
PUBLIC	??_C@_01JLIPDDHJ@?3@				; `string'
PUBLIC	??_C@_0BC@DENBEKI@BlockColumnEnd?$DL?$AN?6@	; `string'
PUBLIC	??_C@_0P@GBPFOBGA@BlockColumn?$DL?$AN?6@	; `string'
PUBLIC	??_C@_0M@FHFNKLHB@BlockEnd?$DL?$AN?6@		; `string'
PUBLIC	??_C@_0BF@DDJNMPKE@VertScaleGroupEnd?$DL?$AN?6@	; `string'
PUBLIC	??_C@_08KGLHHGPJ@Block?$DL?$AN?6@		; `string'
PUBLIC	??_C@_02BIGHCMEF@0?$DL@				; `string'
PUBLIC	??_C@_02PCIJFNDE@?$AN?6@			; `string'
PUBLIC	??_C@_08BHMMGBBH@Graph?$DL?$AN?6@		; `string'
PUBLIC	??_C@_02FAMCGDNB@G?3@				; `string'
PUBLIC	??_C@_0M@DGHFHKEI@GraphEnd?$DL?$AN?6@		; `string'
PUBLIC	??_C@_0BC@DJOHDNOJ@VertScaleGroup?$DL?$AN?6@	; `string'
PUBLIC	??_R4CDataOfChartListPage@@6B@			; CDataOfChartListPage::`RTTI Complete Object Locator'
PUBLIC	??_R0?AVCDataOfChartListPage@@@8		; CDataOfChartListPage `RTTI Type Descriptor'
PUBLIC	??_R3CDataOfChartListPage@@8			; CDataOfChartListPage::`RTTI Class Hierarchy Descriptor'
PUBLIC	??_R2CDataOfChartListPage@@8			; CDataOfChartListPage::`RTTI Base Class Array'
PUBLIC	??_R1A@?0A@EA@CDataOfChartListPage@@8		; CDataOfChartListPage::`RTTI Base Class Descriptor at (0,-1,0,64)'
EXTRN	??3@YAXPAXI@Z:PROC				; operator delete
EXTRN	__imp__atof:PROC
EXTRN	__imp__atoi:PROC
EXTRN	__imp_??A?$CSimpleStringT@D$00@ATL@@QBEDH@Z:PROC
EXTRN	__imp_?Concatenate@?$CSimpleStringT@D$00@ATL@@KAXAAV12@PBDH1H@Z:PROC
EXTRN	__imp_??0?$CStringT@DV?$StrTraitMFC_DLL@DV?$ChTraitsCRT@D@ATL@@@@@ATL@@QAE@XZ:PROC
EXTRN	__imp_??0?$CStringT@DV?$StrTraitMFC_DLL@DV?$ChTraitsCRT@D@ATL@@@@@ATL@@QAE@PAUIAtlStringMgr@1@@Z:PROC
EXTRN	__imp_??0?$CStringT@DV?$StrTraitMFC_DLL@DV?$ChTraitsCRT@D@ATL@@@@@ATL@@QAE@ABV01@@Z:PROC
EXTRN	__imp_??0?$CStringT@DV?$StrTraitMFC_DLL@DV?$ChTraitsCRT@D@ATL@@@@@ATL@@QAE@PBD@Z:PROC
EXTRN	__imp_??0?$CStringT@DV?$StrTraitMFC_DLL@DV?$ChTraitsCRT@D@ATL@@@@@ATL@@QAE@DH@Z:PROC
EXTRN	__imp_??1?$CStringT@DV?$StrTraitMFC_DLL@DV?$ChTraitsCRT@D@ATL@@@@@ATL@@QAE@XZ:PROC
EXTRN	__imp_??4?$CStringT@DV?$StrTraitMFC_DLL@DV?$ChTraitsCRT@D@ATL@@@@@ATL@@QAEAAV01@ABV01@@Z:PROC
EXTRN	__imp_??4?$CStringT@DV?$StrTraitMFC_DLL@DV?$ChTraitsCRT@D@ATL@@@@@ATL@@QAEAAV01@PBD@Z:PROC
EXTRN	__imp_??Y?$CStringT@DV?$StrTraitMFC_DLL@DV?$ChTraitsCRT@D@ATL@@@@@ATL@@QAEAAV01@ABV?$CSimpleStringT@D$00@1@@Z:PROC
EXTRN	__imp_??Y?$CStringT@DV?$StrTraitMFC_DLL@DV?$ChTraitsCRT@D@ATL@@@@@ATL@@QAEAAV01@PBD@Z:PROC
EXTRN	__imp_?GetManager@?$CStringT@DV?$StrTraitMFC_DLL@DV?$ChTraitsCRT@D@ATL@@@@@ATL@@QBEPAUIAtlStringMgr@2@XZ:PROC
EXTRN	__imp_?Compare@?$CStringT@DV?$StrTraitMFC_DLL@DV?$ChTraitsCRT@D@ATL@@@@@ATL@@QBEHPBD@Z:PROC
EXTRN	__imp_?Find@?$CStringT@DV?$StrTraitMFC_DLL@DV?$ChTraitsCRT@D@ATL@@@@@ATL@@QBEHPBDH@Z:PROC
EXTRN	__imp_?Mid@?$CStringT@DV?$StrTraitMFC_DLL@DV?$ChTraitsCRT@D@ATL@@@@@ATL@@QBE?AV12@H@Z:PROC
EXTRN	__imp_?Right@?$CStringT@DV?$StrTraitMFC_DLL@DV?$ChTraitsCRT@D@ATL@@@@@ATL@@QBE?AV12@H@Z:PROC
EXTRN	__imp_?Left@?$CStringT@DV?$StrTraitMFC_DLL@DV?$ChTraitsCRT@D@ATL@@@@@ATL@@QBE?AV12@H@Z:PROC
EXTRN	?GetMetaText@IMetaTable@@QAEPBDPAUHWND__@@W4E_CODEPAGE@1@PBDH@Z:PROC ; IMetaTable::GetMetaText
EXTRN	?GetLanguageText@IMetaTable@@QAEPBDPAUHWND__@@W4E_CODEPAGE@1@PBDH@Z:PROC ; IMetaTable::GetLanguageText
EXTRN	?GetMultipleMetaText@IMetaTable@@QAE?AV?$CStringT@DV?$StrTraitMFC_DLL@DV?$ChTraitsCRT@D@ATL@@@@@ATL@@PAUHWND__@@V23@1HH@Z:PROC ; IMetaTable::GetMultipleMetaText
EXTRN	??_ECDataOfChartListPage@@UAEPAXI@Z:PROC	; CDataOfChartListPage::`vector deleting destructor'
EXTRN	?ChangeBlockData@CMyTreeCtrl@@QAEXHABV?$CStringT@DV?$StrTraitMFC_DLL@DV?$ChTraitsCRT@D@ATL@@@@@ATL@@HH00HHH@Z:PROC ; CMyTreeCtrl::ChangeBlockData
EXTRN	?AddVerticalScaleItem@CMyTreeCtrl@@QAEPAVCChartLink@@ABV?$CStringT@DV?$StrTraitMFC_DLL@DV?$ChTraitsCRT@D@ATL@@@@@ATL@@HHHHHNNHHNNHH@Z:PROC ; CMyTreeCtrl::AddVerticalScaleItem
EXTRN	?AddItem@CMyTreeCtrl@@QAEXPAVCChartLink@@ABV?$CStringT@DV?$StrTraitMFC_DLL@DV?$ChTraitsCRT@D@ATL@@@@@ATL@@111_N222H221@Z:PROC ; CMyTreeCtrl::AddItem
EXTRN	?atob@CDataConversion@@SA_NPBD@Z:PROC		; CDataConversion::atob
EXTRN	?Bool2Str@CDataConversion@@SA?AV?$CStringT@DV?$StrTraitMFC_DLL@DV?$ChTraitsCRT@D@ATL@@@@@ATL@@H@Z:PROC ; CDataConversion::Bool2Str
EXTRN	?IntToString@CDataConversion@@SA?AV?$CStringT@DV?$StrTraitMFC_DLL@DV?$ChTraitsCRT@D@ATL@@@@@ATL@@H@Z:PROC ; CDataConversion::IntToString
EXTRN	?DoubleToString@CDataConversion@@SA?AV?$CStringT@DV?$StrTraitMFC_DLL@DV?$ChTraitsCRT@D@ATL@@@@@ATL@@ABN@Z:PROC ; CDataConversion::DoubleToString
EXTRN	?GetStringData@CDataConversion@@SA?AV?$CStringT@DV?$StrTraitMFC_DLL@DV?$ChTraitsCRT@D@ATL@@@@@ATL@@AAV23@ABV23@_N@Z:PROC ; CDataConversion::GetStringData
EXTRN	?GetStringDataCount@CDataConversion@@SAHABV?$CStringT@DV?$StrTraitMFC_DLL@DV?$ChTraitsCRT@D@ATL@@@@@ATL@@0@Z:PROC ; CDataConversion::GetStringDataCount
EXTRN	@__security_check_cookie@4:PROC
EXTRN	___CxxFrameHandler3:PROC
EXTRN	??_7type_info@@6B@:QWORD			; type_info::`vftable'
EXTRN	?g_iMetaTable@@3VIMetaTable@@A:BYTE		; g_iMetaTable
EXTRN	___security_cookie:DWORD
EXTRN	__fltused:DWORD
;	COMDAT ??_R1A@?0A@EA@CDataOfChartListPage@@8
rdata$r	SEGMENT
??_R1A@?0A@EA@CDataOfChartListPage@@8 DD FLAT:??_R0?AVCDataOfChartListPage@@@8 ; CDataOfChartListPage::`RTTI Base Class Descriptor at (0,-1,0,64)'
	DD	00H
	DD	00H
	DD	0ffffffffH
	DD	00H
	DD	040H
	DD	FLAT:??_R3CDataOfChartListPage@@8
rdata$r	ENDS
;	COMDAT ??_R2CDataOfChartListPage@@8
rdata$r	SEGMENT
??_R2CDataOfChartListPage@@8 DD FLAT:??_R1A@?0A@EA@CDataOfChartListPage@@8 ; CDataOfChartListPage::`RTTI Base Class Array'
rdata$r	ENDS
;	COMDAT ??_R3CDataOfChartListPage@@8
rdata$r	SEGMENT
??_R3CDataOfChartListPage@@8 DD 00H			; CDataOfChartListPage::`RTTI Class Hierarchy Descriptor'
	DD	00H
	DD	01H
	DD	FLAT:??_R2CDataOfChartListPage@@8
rdata$r	ENDS
;	COMDAT ??_R0?AVCDataOfChartListPage@@@8
data$rs	SEGMENT
??_R0?AVCDataOfChartListPage@@@8 DD FLAT:??_7type_info@@6B@ ; CDataOfChartListPage `RTTI Type Descriptor'
	DD	00H
	DB	'.?AVCDataOfChartListPage@@', 00H
data$rs	ENDS
;	COMDAT ??_R4CDataOfChartListPage@@6B@
rdata$r	SEGMENT
??_R4CDataOfChartListPage@@6B@ DD 00H			; CDataOfChartListPage::`RTTI Complete Object Locator'
	DD	00H
	DD	00H
	DD	FLAT:??_R0?AVCDataOfChartListPage@@@8
	DD	FLAT:??_R3CDataOfChartListPage@@8
rdata$r	ENDS
;	COMDAT ??_C@_0BC@DJOHDNOJ@VertScaleGroup?$DL?$AN?6@
CONST	SEGMENT
??_C@_0BC@DJOHDNOJ@VertScaleGroup?$DL?$AN?6@ DB 'VertScaleGroup;', 0dH, 0aH
	DB	00H						; `string'
CONST	ENDS
;	COMDAT ??_C@_0M@DGHFHKEI@GraphEnd?$DL?$AN?6@
CONST	SEGMENT
??_C@_0M@DGHFHKEI@GraphEnd?$DL?$AN?6@ DB 'GraphEnd;', 0dH, 0aH, 00H ; `string'
CONST	ENDS
;	COMDAT ??_C@_02FAMCGDNB@G?3@
CONST	SEGMENT
??_C@_02FAMCGDNB@G?3@ DB 'G:', 00H			; `string'
CONST	ENDS
;	COMDAT ??_C@_08BHMMGBBH@Graph?$DL?$AN?6@
CONST	SEGMENT
??_C@_08BHMMGBBH@Graph?$DL?$AN?6@ DB 'Graph;', 0dH, 0aH, 00H ; `string'
CONST	ENDS
;	COMDAT ??_C@_02PCIJFNDE@?$AN?6@
CONST	SEGMENT
??_C@_02PCIJFNDE@?$AN?6@ DB 0dH, 0aH, 00H		; `string'
CONST	ENDS
;	COMDAT ??_C@_02BIGHCMEF@0?$DL@
CONST	SEGMENT
??_C@_02BIGHCMEF@0?$DL@ DB '0;', 00H			; `string'
CONST	ENDS
;	COMDAT ??_C@_08KGLHHGPJ@Block?$DL?$AN?6@
CONST	SEGMENT
??_C@_08KGLHHGPJ@Block?$DL?$AN?6@ DB 'Block;', 0dH, 0aH, 00H ; `string'
CONST	ENDS
;	COMDAT ??_C@_0BF@DDJNMPKE@VertScaleGroupEnd?$DL?$AN?6@
CONST	SEGMENT
??_C@_0BF@DDJNMPKE@VertScaleGroupEnd?$DL?$AN?6@ DB 'VertScaleGroupEnd;', 0dH
	DB	0aH, 00H					; `string'
CONST	ENDS
;	COMDAT ??_C@_0M@FHFNKLHB@BlockEnd?$DL?$AN?6@
CONST	SEGMENT
??_C@_0M@FHFNKLHB@BlockEnd?$DL?$AN?6@ DB 'BlockEnd;', 0dH, 0aH, 00H ; `string'
CONST	ENDS
;	COMDAT ??_C@_0P@GBPFOBGA@BlockColumn?$DL?$AN?6@
CONST	SEGMENT
??_C@_0P@GBPFOBGA@BlockColumn?$DL?$AN?6@ DB 'BlockColumn;', 0dH, 0aH, 00H ; `string'
CONST	ENDS
;	COMDAT ??_C@_0BC@DENBEKI@BlockColumnEnd?$DL?$AN?6@
CONST	SEGMENT
??_C@_0BC@DENBEKI@BlockColumnEnd?$DL?$AN?6@ DB 'BlockColumnEnd;', 0dH, 0aH
	DB	00H						; `string'
CONST	ENDS
;	COMDAT ??_C@_01JLIPDDHJ@?3@
CONST	SEGMENT
??_C@_01JLIPDDHJ@?3@ DB ':', 00H			; `string'
CONST	ENDS
;	COMDAT ??_C@_01ICJEACDI@?$DL@
CONST	SEGMENT
??_C@_01ICJEACDI@?$DL@ DB ';', 00H			; `string'
CONST	ENDS
;	COMDAT ??_7CDataOfChartListPage@@6B@
CONST	SEGMENT
??_7CDataOfChartListPage@@6B@ DD FLAT:??_R4CDataOfChartListPage@@6B@ ; CDataOfChartListPage::`vftable'
	DD	FLAT:??_ECDataOfChartListPage@@UAEPAXI@Z
CONST	ENDS
;	COMDAT ??_C@_00CNPNBAHC@@
CONST	SEGMENT
??_C@_00CNPNBAHC@@ DB 00H				; `string'
CONST	ENDS
;	COMDAT xdata$x
xdata$x	SEGMENT
__ehfuncinfo$?GetSignalData@CDataOfChartListPage@@AAEXABV?$CStringT@DV?$StrTraitMFC_DLL@DV?$ChTraitsCRT@D@ATL@@@@@ATL@@AA_N1@Z DD 019930522H
	DD	05H
	DD	FLAT:__unwindtable$?GetSignalData@CDataOfChartListPage@@AAEXABV?$CStringT@DV?$StrTraitMFC_DLL@DV?$ChTraitsCRT@D@ATL@@@@@ATL@@AA_N1@Z
	DD	2 DUP(00H)
	DD	2 DUP(00H)
	DD	00H
	DD	01H
__unwindtable$?GetSignalData@CDataOfChartListPage@@AAEXABV?$CStringT@DV?$StrTraitMFC_DLL@DV?$ChTraitsCRT@D@ATL@@@@@ATL@@AA_N1@Z DD 0ffffffffH
	DD	FLAT:__unwindfunclet$?GetSignalData@CDataOfChartListPage@@AAEXABV?$CStringT@DV?$StrTraitMFC_DLL@DV?$ChTraitsCRT@D@ATL@@@@@ATL@@AA_N1@Z$0
	DD	00H
	DD	FLAT:__unwindfunclet$?GetSignalData@CDataOfChartListPage@@AAEXABV?$CStringT@DV?$StrTraitMFC_DLL@DV?$ChTraitsCRT@D@ATL@@@@@ATL@@AA_N1@Z$2
	DD	01H
	DD	FLAT:__unwindfunclet$?GetSignalData@CDataOfChartListPage@@AAEXABV?$CStringT@DV?$StrTraitMFC_DLL@DV?$ChTraitsCRT@D@ATL@@@@@ATL@@AA_N1@Z$3
	DD	00H
	DD	FLAT:__unwindfunclet$?GetSignalData@CDataOfChartListPage@@AAEXABV?$CStringT@DV?$StrTraitMFC_DLL@DV?$ChTraitsCRT@D@ATL@@@@@ATL@@AA_N1@Z$4
	DD	03H
	DD	FLAT:__unwindfunclet$?GetSignalData@CDataOfChartListPage@@AAEXABV?$CStringT@DV?$StrTraitMFC_DLL@DV?$ChTraitsCRT@D@ATL@@@@@ATL@@AA_N1@Z$5
xdata$x	ENDS
;	COMDAT xdata$x
xdata$x	SEGMENT
__ehfuncinfo$?GetBlockAllData@CDataOfChartListPage@@AAE?AV?$CStringT@DV?$StrTraitMFC_DLL@DV?$ChTraitsCRT@D@ATL@@@@@ATL@@PAVCChartLink@@@Z DD 019930522H
	DD	0dH
	DD	FLAT:__unwindtable$?GetBlockAllData@CDataOfChartListPage@@AAE?AV?$CStringT@DV?$StrTraitMFC_DLL@DV?$ChTraitsCRT@D@ATL@@@@@ATL@@PAVCChartLink@@@Z
	DD	2 DUP(00H)
	DD	2 DUP(00H)
	DD	00H
	DD	01H
__unwindtable$?GetBlockAllData@CDataOfChartListPage@@AAE?AV?$CStringT@DV?$StrTraitMFC_DLL@DV?$ChTraitsCRT@D@ATL@@@@@ATL@@PAVCChartLink@@@Z DD 0ffffffffH
	DD	FLAT:__unwindfunclet$?GetBlockAllData@CDataOfChartListPage@@AAE?AV?$CStringT@DV?$StrTraitMFC_DLL@DV?$ChTraitsCRT@D@ATL@@@@@ATL@@PAVCChartLink@@@Z$0
	DD	00H
	DD	FLAT:__unwindfunclet$?GetBlockAllData@CDataOfChartListPage@@AAE?AV?$CStringT@DV?$StrTraitMFC_DLL@DV?$ChTraitsCRT@D@ATL@@@@@ATL@@PAVCChartLink@@@Z$1
	DD	01H
	DD	FLAT:__unwindfunclet$?GetBlockAllData@CDataOfChartListPage@@AAE?AV?$CStringT@DV?$StrTraitMFC_DLL@DV?$ChTraitsCRT@D@ATL@@@@@ATL@@PAVCChartLink@@@Z$13
	DD	01H
	DD	FLAT:__unwindfunclet$?GetBlockAllData@CDataOfChartListPage@@AAE?AV?$CStringT@DV?$StrTraitMFC_DLL@DV?$ChTraitsCRT@D@ATL@@@@@ATL@@PAVCChartLink@@@Z$3
	DD	03H
	DD	FLAT:__unwindfunclet$?GetBlockAllData@CDataOfChartListPage@@AAE?AV?$CStringT@DV?$StrTraitMFC_DLL@DV?$ChTraitsCRT@D@ATL@@@@@ATL@@PAVCChartLink@@@Z$14
	DD	01H
	DD	FLAT:__unwindfunclet$?GetBlockAllData@CDataOfChartListPage@@AAE?AV?$CStringT@DV?$StrTraitMFC_DLL@DV?$ChTraitsCRT@D@ATL@@@@@ATL@@PAVCChartLink@@@Z$5
	DD	05H
	DD	FLAT:__unwindfunclet$?GetBlockAllData@CDataOfChartListPage@@AAE?AV?$CStringT@DV?$StrTraitMFC_DLL@DV?$ChTraitsCRT@D@ATL@@@@@ATL@@PAVCChartLink@@@Z$15
	DD	01H
	DD	FLAT:__unwindfunclet$?GetBlockAllData@CDataOfChartListPage@@AAE?AV?$CStringT@DV?$StrTraitMFC_DLL@DV?$ChTraitsCRT@D@ATL@@@@@ATL@@PAVCChartLink@@@Z$16
	DD	01H
	DD	FLAT:__unwindfunclet$?GetBlockAllData@CDataOfChartListPage@@AAE?AV?$CStringT@DV?$StrTraitMFC_DLL@DV?$ChTraitsCRT@D@ATL@@@@@ATL@@PAVCChartLink@@@Z$17
	DD	01H
	DD	FLAT:__unwindfunclet$?GetBlockAllData@CDataOfChartListPage@@AAE?AV?$CStringT@DV?$StrTraitMFC_DLL@DV?$ChTraitsCRT@D@ATL@@@@@ATL@@PAVCChartLink@@@Z$9
	DD	09H
	DD	FLAT:__unwindfunclet$?GetBlockAllData@CDataOfChartListPage@@AAE?AV?$CStringT@DV?$StrTraitMFC_DLL@DV?$ChTraitsCRT@D@ATL@@@@@ATL@@PAVCChartLink@@@Z$18
	DD	01H
	DD	FLAT:__unwindfunclet$?GetBlockAllData@CDataOfChartListPage@@AAE?AV?$CStringT@DV?$StrTraitMFC_DLL@DV?$ChTraitsCRT@D@ATL@@@@@ATL@@PAVCChartLink@@@Z$11
	DD	0bH
	DD	FLAT:__unwindfunclet$?GetBlockAllData@CDataOfChartListPage@@AAE?AV?$CStringT@DV?$StrTraitMFC_DLL@DV?$ChTraitsCRT@D@ATL@@@@@ATL@@PAVCChartLink@@@Z$19
xdata$x	ENDS
;	COMDAT xdata$x
xdata$x	SEGMENT
__ehfuncinfo$?GetVerticalAllData@CDataOfChartListPage@@AAE?AV?$CStringT@DV?$StrTraitMFC_DLL@DV?$ChTraitsCRT@D@ATL@@@@@ATL@@PAVCChartLink@@@Z DD 019930522H
	DD	01eH
	DD	FLAT:__unwindtable$?GetVerticalAllData@CDataOfChartListPage@@AAE?AV?$CStringT@DV?$StrTraitMFC_DLL@DV?$ChTraitsCRT@D@ATL@@@@@ATL@@PAVCChartLink@@@Z
	DD	2 DUP(00H)
	DD	2 DUP(00H)
	DD	00H
	DD	01H
__unwindtable$?GetVerticalAllData@CDataOfChartListPage@@AAE?AV?$CStringT@DV?$StrTraitMFC_DLL@DV?$ChTraitsCRT@D@ATL@@@@@ATL@@PAVCChartLink@@@Z DD 0ffffffffH
	DD	FLAT:__unwindfunclet$?GetVerticalAllData@CDataOfChartListPage@@AAE?AV?$CStringT@DV?$StrTraitMFC_DLL@DV?$ChTraitsCRT@D@ATL@@@@@ATL@@PAVCChartLink@@@Z$0
	DD	00H
	DD	FLAT:__unwindfunclet$?GetVerticalAllData@CDataOfChartListPage@@AAE?AV?$CStringT@DV?$StrTraitMFC_DLL@DV?$ChTraitsCRT@D@ATL@@@@@ATL@@PAVCChartLink@@@Z$1
	DD	00H
	DD	FLAT:__unwindfunclet$?GetVerticalAllData@CDataOfChartListPage@@AAE?AV?$CStringT@DV?$StrTraitMFC_DLL@DV?$ChTraitsCRT@D@ATL@@@@@ATL@@PAVCChartLink@@@Z$3
	DD	02H
	DD	FLAT:__unwindfunclet$?GetVerticalAllData@CDataOfChartListPage@@AAE?AV?$CStringT@DV?$StrTraitMFC_DLL@DV?$ChTraitsCRT@D@ATL@@@@@ATL@@PAVCChartLink@@@Z$31
	DD	00H
	DD	FLAT:__unwindfunclet$?GetVerticalAllData@CDataOfChartListPage@@AAE?AV?$CStringT@DV?$StrTraitMFC_DLL@DV?$ChTraitsCRT@D@ATL@@@@@ATL@@PAVCChartLink@@@Z$5
	DD	04H
	DD	FLAT:__unwindfunclet$?GetVerticalAllData@CDataOfChartListPage@@AAE?AV?$CStringT@DV?$StrTraitMFC_DLL@DV?$ChTraitsCRT@D@ATL@@@@@ATL@@PAVCChartLink@@@Z$32
	DD	00H
	DD	FLAT:__unwindfunclet$?GetVerticalAllData@CDataOfChartListPage@@AAE?AV?$CStringT@DV?$StrTraitMFC_DLL@DV?$ChTraitsCRT@D@ATL@@@@@ATL@@PAVCChartLink@@@Z$7
	DD	06H
	DD	FLAT:__unwindfunclet$?GetVerticalAllData@CDataOfChartListPage@@AAE?AV?$CStringT@DV?$StrTraitMFC_DLL@DV?$ChTraitsCRT@D@ATL@@@@@ATL@@PAVCChartLink@@@Z$33
	DD	00H
	DD	FLAT:__unwindfunclet$?GetVerticalAllData@CDataOfChartListPage@@AAE?AV?$CStringT@DV?$StrTraitMFC_DLL@DV?$ChTraitsCRT@D@ATL@@@@@ATL@@PAVCChartLink@@@Z$9
	DD	08H
	DD	FLAT:__unwindfunclet$?GetVerticalAllData@CDataOfChartListPage@@AAE?AV?$CStringT@DV?$StrTraitMFC_DLL@DV?$ChTraitsCRT@D@ATL@@@@@ATL@@PAVCChartLink@@@Z$34
	DD	00H
	DD	FLAT:__unwindfunclet$?GetVerticalAllData@CDataOfChartListPage@@AAE?AV?$CStringT@DV?$StrTraitMFC_DLL@DV?$ChTraitsCRT@D@ATL@@@@@ATL@@PAVCChartLink@@@Z$11
	DD	0aH
	DD	FLAT:__unwindfunclet$?GetVerticalAllData@CDataOfChartListPage@@AAE?AV?$CStringT@DV?$StrTraitMFC_DLL@DV?$ChTraitsCRT@D@ATL@@@@@ATL@@PAVCChartLink@@@Z$35
	DD	00H
	DD	FLAT:__unwindfunclet$?GetVerticalAllData@CDataOfChartListPage@@AAE?AV?$CStringT@DV?$StrTraitMFC_DLL@DV?$ChTraitsCRT@D@ATL@@@@@ATL@@PAVCChartLink@@@Z$13
	DD	0cH
	DD	FLAT:__unwindfunclet$?GetVerticalAllData@CDataOfChartListPage@@AAE?AV?$CStringT@DV?$StrTraitMFC_DLL@DV?$ChTraitsCRT@D@ATL@@@@@ATL@@PAVCChartLink@@@Z$36
	DD	00H
	DD	FLAT:__unwindfunclet$?GetVerticalAllData@CDataOfChartListPage@@AAE?AV?$CStringT@DV?$StrTraitMFC_DLL@DV?$ChTraitsCRT@D@ATL@@@@@ATL@@PAVCChartLink@@@Z$15
	DD	0eH
	DD	FLAT:__unwindfunclet$?GetVerticalAllData@CDataOfChartListPage@@AAE?AV?$CStringT@DV?$StrTraitMFC_DLL@DV?$ChTraitsCRT@D@ATL@@@@@ATL@@PAVCChartLink@@@Z$37
	DD	00H
	DD	FLAT:__unwindfunclet$?GetVerticalAllData@CDataOfChartListPage@@AAE?AV?$CStringT@DV?$StrTraitMFC_DLL@DV?$ChTraitsCRT@D@ATL@@@@@ATL@@PAVCChartLink@@@Z$17
	DD	010H
	DD	FLAT:__unwindfunclet$?GetVerticalAllData@CDataOfChartListPage@@AAE?AV?$CStringT@DV?$StrTraitMFC_DLL@DV?$ChTraitsCRT@D@ATL@@@@@ATL@@PAVCChartLink@@@Z$38
	DD	00H
	DD	FLAT:__unwindfunclet$?GetVerticalAllData@CDataOfChartListPage@@AAE?AV?$CStringT@DV?$StrTraitMFC_DLL@DV?$ChTraitsCRT@D@ATL@@@@@ATL@@PAVCChartLink@@@Z$19
	DD	012H
	DD	FLAT:__unwindfunclet$?GetVerticalAllData@CDataOfChartListPage@@AAE?AV?$CStringT@DV?$StrTraitMFC_DLL@DV?$ChTraitsCRT@D@ATL@@@@@ATL@@PAVCChartLink@@@Z$39
	DD	00H
	DD	FLAT:__unwindfunclet$?GetVerticalAllData@CDataOfChartListPage@@AAE?AV?$CStringT@DV?$StrTraitMFC_DLL@DV?$ChTraitsCRT@D@ATL@@@@@ATL@@PAVCChartLink@@@Z$21
	DD	014H
	DD	FLAT:__unwindfunclet$?GetVerticalAllData@CDataOfChartListPage@@AAE?AV?$CStringT@DV?$StrTraitMFC_DLL@DV?$ChTraitsCRT@D@ATL@@@@@ATL@@PAVCChartLink@@@Z$40
	DD	00H
	DD	FLAT:__unwindfunclet$?GetVerticalAllData@CDataOfChartListPage@@AAE?AV?$CStringT@DV?$StrTraitMFC_DLL@DV?$ChTraitsCRT@D@ATL@@@@@ATL@@PAVCChartLink@@@Z$23
	DD	016H
	DD	FLAT:__unwindfunclet$?GetVerticalAllData@CDataOfChartListPage@@AAE?AV?$CStringT@DV?$StrTraitMFC_DLL@DV?$ChTraitsCRT@D@ATL@@@@@ATL@@PAVCChartLink@@@Z$41
	DD	00H
	DD	FLAT:__unwindfunclet$?GetVerticalAllData@CDataOfChartListPage@@AAE?AV?$CStringT@DV?$StrTraitMFC_DLL@DV?$ChTraitsCRT@D@ATL@@@@@ATL@@PAVCChartLink@@@Z$25
	DD	018H
	DD	FLAT:__unwindfunclet$?GetVerticalAllData@CDataOfChartListPage@@AAE?AV?$CStringT@DV?$StrTraitMFC_DLL@DV?$ChTraitsCRT@D@ATL@@@@@ATL@@PAVCChartLink@@@Z$42
	DD	00H
	DD	FLAT:__unwindfunclet$?GetVerticalAllData@CDataOfChartListPage@@AAE?AV?$CStringT@DV?$StrTraitMFC_DLL@DV?$ChTraitsCRT@D@ATL@@@@@ATL@@PAVCChartLink@@@Z$27
	DD	01aH
	DD	FLAT:__unwindfunclet$?GetVerticalAllData@CDataOfChartListPage@@AAE?AV?$CStringT@DV?$StrTraitMFC_DLL@DV?$ChTraitsCRT@D@ATL@@@@@ATL@@PAVCChartLink@@@Z$43
	DD	00H
	DD	FLAT:__unwindfunclet$?GetVerticalAllData@CDataOfChartListPage@@AAE?AV?$CStringT@DV?$StrTraitMFC_DLL@DV?$ChTraitsCRT@D@ATL@@@@@ATL@@PAVCChartLink@@@Z$29
	DD	01cH
	DD	FLAT:__unwindfunclet$?GetVerticalAllData@CDataOfChartListPage@@AAE?AV?$CStringT@DV?$StrTraitMFC_DLL@DV?$ChTraitsCRT@D@ATL@@@@@ATL@@PAVCChartLink@@@Z$44
xdata$x	ENDS
;	COMDAT xdata$x
xdata$x	SEGMENT
__ehfuncinfo$?GetGraphAllData@CDataOfChartListPage@@AAE?AV?$CStringT@DV?$StrTraitMFC_DLL@DV?$ChTraitsCRT@D@ATL@@@@@ATL@@PAVCChartLink@@@Z DD 019930522H
	DD	013H
	DD	FLAT:__unwindtable$?GetGraphAllData@CDataOfChartListPage@@AAE?AV?$CStringT@DV?$StrTraitMFC_DLL@DV?$ChTraitsCRT@D@ATL@@@@@ATL@@PAVCChartLink@@@Z
	DD	2 DUP(00H)
	DD	2 DUP(00H)
	DD	00H
	DD	01H
__unwindtable$?GetGraphAllData@CDataOfChartListPage@@AAE?AV?$CStringT@DV?$StrTraitMFC_DLL@DV?$ChTraitsCRT@D@ATL@@@@@ATL@@PAVCChartLink@@@Z DD 0ffffffffH
	DD	FLAT:__unwindfunclet$?GetGraphAllData@CDataOfChartListPage@@AAE?AV?$CStringT@DV?$StrTraitMFC_DLL@DV?$ChTraitsCRT@D@ATL@@@@@ATL@@PAVCChartLink@@@Z$0
	DD	00H
	DD	FLAT:__unwindfunclet$?GetGraphAllData@CDataOfChartListPage@@AAE?AV?$CStringT@DV?$StrTraitMFC_DLL@DV?$ChTraitsCRT@D@ATL@@@@@ATL@@PAVCChartLink@@@Z$19
	DD	00H
	DD	FLAT:__unwindfunclet$?GetGraphAllData@CDataOfChartListPage@@AAE?AV?$CStringT@DV?$StrTraitMFC_DLL@DV?$ChTraitsCRT@D@ATL@@@@@ATL@@PAVCChartLink@@@Z$20
	DD	02H
	DD	FLAT:__unwindfunclet$?GetGraphAllData@CDataOfChartListPage@@AAE?AV?$CStringT@DV?$StrTraitMFC_DLL@DV?$ChTraitsCRT@D@ATL@@@@@ATL@@PAVCChartLink@@@Z$21
	DD	00H
	DD	FLAT:__unwindfunclet$?GetGraphAllData@CDataOfChartListPage@@AAE?AV?$CStringT@DV?$StrTraitMFC_DLL@DV?$ChTraitsCRT@D@ATL@@@@@ATL@@PAVCChartLink@@@Z$22
	DD	00H
	DD	FLAT:__unwindfunclet$?GetGraphAllData@CDataOfChartListPage@@AAE?AV?$CStringT@DV?$StrTraitMFC_DLL@DV?$ChTraitsCRT@D@ATL@@@@@ATL@@PAVCChartLink@@@Z$5
	DD	05H
	DD	FLAT:__unwindfunclet$?GetGraphAllData@CDataOfChartListPage@@AAE?AV?$CStringT@DV?$StrTraitMFC_DLL@DV?$ChTraitsCRT@D@ATL@@@@@ATL@@PAVCChartLink@@@Z$23
	DD	00H
	DD	FLAT:__unwindfunclet$?GetGraphAllData@CDataOfChartListPage@@AAE?AV?$CStringT@DV?$StrTraitMFC_DLL@DV?$ChTraitsCRT@D@ATL@@@@@ATL@@PAVCChartLink@@@Z$7
	DD	07H
	DD	FLAT:__unwindfunclet$?GetGraphAllData@CDataOfChartListPage@@AAE?AV?$CStringT@DV?$StrTraitMFC_DLL@DV?$ChTraitsCRT@D@ATL@@@@@ATL@@PAVCChartLink@@@Z$24
	DD	00H
	DD	FLAT:__unwindfunclet$?GetGraphAllData@CDataOfChartListPage@@AAE?AV?$CStringT@DV?$StrTraitMFC_DLL@DV?$ChTraitsCRT@D@ATL@@@@@ATL@@PAVCChartLink@@@Z$9
	DD	09H
	DD	FLAT:__unwindfunclet$?GetGraphAllData@CDataOfChartListPage@@AAE?AV?$CStringT@DV?$StrTraitMFC_DLL@DV?$ChTraitsCRT@D@ATL@@@@@ATL@@PAVCChartLink@@@Z$25
	DD	00H
	DD	FLAT:__unwindfunclet$?GetGraphAllData@CDataOfChartListPage@@AAE?AV?$CStringT@DV?$StrTraitMFC_DLL@DV?$ChTraitsCRT@D@ATL@@@@@ATL@@PAVCChartLink@@@Z$11
	DD	0bH
	DD	FLAT:__unwindfunclet$?GetGraphAllData@CDataOfChartListPage@@AAE?AV?$CStringT@DV?$StrTraitMFC_DLL@DV?$ChTraitsCRT@D@ATL@@@@@ATL@@PAVCChartLink@@@Z$26
	DD	00H
	DD	FLAT:__unwindfunclet$?GetGraphAllData@CDataOfChartListPage@@AAE?AV?$CStringT@DV?$StrTraitMFC_DLL@DV?$ChTraitsCRT@D@ATL@@@@@ATL@@PAVCChartLink@@@Z$13
	DD	0dH
	DD	FLAT:__unwindfunclet$?GetGraphAllData@CDataOfChartListPage@@AAE?AV?$CStringT@DV?$StrTraitMFC_DLL@DV?$ChTraitsCRT@D@ATL@@@@@ATL@@PAVCChartLink@@@Z$27
	DD	00H
	DD	FLAT:__unwindfunclet$?GetGraphAllData@CDataOfChartListPage@@AAE?AV?$CStringT@DV?$StrTraitMFC_DLL@DV?$ChTraitsCRT@D@ATL@@@@@ATL@@PAVCChartLink@@@Z$15
	DD	0fH
	DD	FLAT:__unwindfunclet$?GetGraphAllData@CDataOfChartListPage@@AAE?AV?$CStringT@DV?$StrTraitMFC_DLL@DV?$ChTraitsCRT@D@ATL@@@@@ATL@@PAVCChartLink@@@Z$28
	DD	00H
	DD	FLAT:__unwindfunclet$?GetGraphAllData@CDataOfChartListPage@@AAE?AV?$CStringT@DV?$StrTraitMFC_DLL@DV?$ChTraitsCRT@D@ATL@@@@@ATL@@PAVCChartLink@@@Z$17
	DD	011H
	DD	FLAT:__unwindfunclet$?GetGraphAllData@CDataOfChartListPage@@AAE?AV?$CStringT@DV?$StrTraitMFC_DLL@DV?$ChTraitsCRT@D@ATL@@@@@ATL@@PAVCChartLink@@@Z$29
xdata$x	ENDS
;	COMDAT xdata$x
xdata$x	SEGMENT
__ehfuncinfo$?SetBlockItem_Temp@CDataOfChartListPage@@AAEXHV?$CStringT@DV?$StrTraitMFC_DLL@DV?$ChTraitsCRT@D@ATL@@@@@ATL@@@Z DD 019930522H
	DD	0fH
	DD	FLAT:__unwindtable$?SetBlockItem_Temp@CDataOfChartListPage@@AAEXHV?$CStringT@DV?$StrTraitMFC_DLL@DV?$ChTraitsCRT@D@ATL@@@@@ATL@@@Z
	DD	2 DUP(00H)
	DD	2 DUP(00H)
	DD	00H
	DD	01H
__unwindtable$?SetBlockItem_Temp@CDataOfChartListPage@@AAEXHV?$CStringT@DV?$StrTraitMFC_DLL@DV?$ChTraitsCRT@D@ATL@@@@@ATL@@@Z DD 0ffffffffH
	DD	FLAT:__unwindfunclet$?SetBlockItem_Temp@CDataOfChartListPage@@AAEXHV?$CStringT@DV?$StrTraitMFC_DLL@DV?$ChTraitsCRT@D@ATL@@@@@ATL@@@Z$0
	DD	00H
	DD	FLAT:__unwindfunclet$?SetBlockItem_Temp@CDataOfChartListPage@@AAEXHV?$CStringT@DV?$StrTraitMFC_DLL@DV?$ChTraitsCRT@D@ATL@@@@@ATL@@@Z$1
	DD	00H
	DD	FLAT:__unwindfunclet$?SetBlockItem_Temp@CDataOfChartListPage@@AAEXHV?$CStringT@DV?$StrTraitMFC_DLL@DV?$ChTraitsCRT@D@ATL@@@@@ATL@@@Z$3
	DD	02H
	DD	FLAT:__unwindfunclet$?SetBlockItem_Temp@CDataOfChartListPage@@AAEXHV?$CStringT@DV?$StrTraitMFC_DLL@DV?$ChTraitsCRT@D@ATL@@@@@ATL@@@Z$4
	DD	00H
	DD	FLAT:__unwindfunclet$?SetBlockItem_Temp@CDataOfChartListPage@@AAEXHV?$CStringT@DV?$StrTraitMFC_DLL@DV?$ChTraitsCRT@D@ATL@@@@@ATL@@@Z$4
	DD	04H
	DD	FLAT:__unwindfunclet$?SetBlockItem_Temp@CDataOfChartListPage@@AAEXHV?$CStringT@DV?$StrTraitMFC_DLL@DV?$ChTraitsCRT@D@ATL@@@@@ATL@@@Z$5
	DD	04H
	DD	FLAT:__unwindfunclet$?SetBlockItem_Temp@CDataOfChartListPage@@AAEXHV?$CStringT@DV?$StrTraitMFC_DLL@DV?$ChTraitsCRT@D@ATL@@@@@ATL@@@Z$7
	DD	06H
	DD	FLAT:__unwindfunclet$?SetBlockItem_Temp@CDataOfChartListPage@@AAEXHV?$CStringT@DV?$StrTraitMFC_DLL@DV?$ChTraitsCRT@D@ATL@@@@@ATL@@@Z$8
	DD	04H
	DD	FLAT:__unwindfunclet$?SetBlockItem_Temp@CDataOfChartListPage@@AAEXHV?$CStringT@DV?$StrTraitMFC_DLL@DV?$ChTraitsCRT@D@ATL@@@@@ATL@@@Z$8
	DD	08H
	DD	FLAT:__unwindfunclet$?SetBlockItem_Temp@CDataOfChartListPage@@AAEXHV?$CStringT@DV?$StrTraitMFC_DLL@DV?$ChTraitsCRT@D@ATL@@@@@ATL@@@Z$9
	DD	09H
	DD	FLAT:__unwindfunclet$?SetBlockItem_Temp@CDataOfChartListPage@@AAEXHV?$CStringT@DV?$StrTraitMFC_DLL@DV?$ChTraitsCRT@D@ATL@@@@@ATL@@@Z$10
	DD	08H
	DD	FLAT:__unwindfunclet$?SetBlockItem_Temp@CDataOfChartListPage@@AAEXHV?$CStringT@DV?$StrTraitMFC_DLL@DV?$ChTraitsCRT@D@ATL@@@@@ATL@@@Z$10
	DD	0bH
	DD	FLAT:__unwindfunclet$?SetBlockItem_Temp@CDataOfChartListPage@@AAEXHV?$CStringT@DV?$StrTraitMFC_DLL@DV?$ChTraitsCRT@D@ATL@@@@@ATL@@@Z$11
	DD	0bH
	DD	FLAT:__unwindfunclet$?SetBlockItem_Temp@CDataOfChartListPage@@AAEXHV?$CStringT@DV?$StrTraitMFC_DLL@DV?$ChTraitsCRT@D@ATL@@@@@ATL@@@Z$13
	DD	0bH
	DD	FLAT:__unwindfunclet$?SetBlockItem_Temp@CDataOfChartListPage@@AAEXHV?$CStringT@DV?$StrTraitMFC_DLL@DV?$ChTraitsCRT@D@ATL@@@@@ATL@@@Z$15
xdata$x	ENDS
;	COMDAT xdata$x
xdata$x	SEGMENT
__ehfuncinfo$?SetBlockItem@CDataOfChartListPage@@AAEXHV?$CStringT@DV?$StrTraitMFC_DLL@DV?$ChTraitsCRT@D@ATL@@@@@ATL@@@Z DD 019930522H
	DD	010H
	DD	FLAT:__unwindtable$?SetBlockItem@CDataOfChartListPage@@AAEXHV?$CStringT@DV?$StrTraitMFC_DLL@DV?$ChTraitsCRT@D@ATL@@@@@ATL@@@Z
	DD	2 DUP(00H)
	DD	2 DUP(00H)
	DD	00H
	DD	01H
__unwindtable$?SetBlockItem@CDataOfChartListPage@@AAEXHV?$CStringT@DV?$StrTraitMFC_DLL@DV?$ChTraitsCRT@D@ATL@@@@@ATL@@@Z DD 0ffffffffH
	DD	FLAT:__unwindfunclet$?SetBlockItem@CDataOfChartListPage@@AAEXHV?$CStringT@DV?$StrTraitMFC_DLL@DV?$ChTraitsCRT@D@ATL@@@@@ATL@@@Z$0
	DD	00H
	DD	FLAT:__unwindfunclet$?SetBlockItem@CDataOfChartListPage@@AAEXHV?$CStringT@DV?$StrTraitMFC_DLL@DV?$ChTraitsCRT@D@ATL@@@@@ATL@@@Z$1
	DD	01H
	DD	FLAT:__unwindfunclet$?SetBlockItem@CDataOfChartListPage@@AAEXHV?$CStringT@DV?$StrTraitMFC_DLL@DV?$ChTraitsCRT@D@ATL@@@@@ATL@@@Z$2
	DD	00H
	DD	FLAT:__unwindfunclet$?SetBlockItem@CDataOfChartListPage@@AAEXHV?$CStringT@DV?$StrTraitMFC_DLL@DV?$ChTraitsCRT@D@ATL@@@@@ATL@@@Z$2
	DD	03H
	DD	FLAT:__unwindfunclet$?SetBlockItem@CDataOfChartListPage@@AAEXHV?$CStringT@DV?$StrTraitMFC_DLL@DV?$ChTraitsCRT@D@ATL@@@@@ATL@@@Z$3
	DD	03H
	DD	FLAT:__unwindfunclet$?SetBlockItem@CDataOfChartListPage@@AAEXHV?$CStringT@DV?$StrTraitMFC_DLL@DV?$ChTraitsCRT@D@ATL@@@@@ATL@@@Z$5
	DD	03H
	DD	FLAT:__unwindfunclet$?SetBlockItem@CDataOfChartListPage@@AAEXHV?$CStringT@DV?$StrTraitMFC_DLL@DV?$ChTraitsCRT@D@ATL@@@@@ATL@@@Z$7
	DD	06H
	DD	FLAT:__unwindfunclet$?SetBlockItem@CDataOfChartListPage@@AAEXHV?$CStringT@DV?$StrTraitMFC_DLL@DV?$ChTraitsCRT@D@ATL@@@@@ATL@@@Z$8
	DD	03H
	DD	FLAT:__unwindfunclet$?SetBlockItem@CDataOfChartListPage@@AAEXHV?$CStringT@DV?$StrTraitMFC_DLL@DV?$ChTraitsCRT@D@ATL@@@@@ATL@@@Z$8
	DD	08H
	DD	FLAT:__unwindfunclet$?SetBlockItem@CDataOfChartListPage@@AAEXHV?$CStringT@DV?$StrTraitMFC_DLL@DV?$ChTraitsCRT@D@ATL@@@@@ATL@@@Z$9
	DD	09H
	DD	FLAT:__unwindfunclet$?SetBlockItem@CDataOfChartListPage@@AAEXHV?$CStringT@DV?$StrTraitMFC_DLL@DV?$ChTraitsCRT@D@ATL@@@@@ATL@@@Z$10
	DD	08H
	DD	FLAT:__unwindfunclet$?SetBlockItem@CDataOfChartListPage@@AAEXHV?$CStringT@DV?$StrTraitMFC_DLL@DV?$ChTraitsCRT@D@ATL@@@@@ATL@@@Z$10
	DD	0bH
	DD	FLAT:__unwindfunclet$?SetBlockItem@CDataOfChartListPage@@AAEXHV?$CStringT@DV?$StrTraitMFC_DLL@DV?$ChTraitsCRT@D@ATL@@@@@ATL@@@Z$11
	DD	0bH
	DD	FLAT:__unwindfunclet$?SetBlockItem@CDataOfChartListPage@@AAEXHV?$CStringT@DV?$StrTraitMFC_DLL@DV?$ChTraitsCRT@D@ATL@@@@@ATL@@@Z$13
	DD	0bH
	DD	FLAT:__unwindfunclet$?SetBlockItem@CDataOfChartListPage@@AAEXHV?$CStringT@DV?$StrTraitMFC_DLL@DV?$ChTraitsCRT@D@ATL@@@@@ATL@@@Z$15
	DD	0bH
	DD	FLAT:__unwindfunclet$?SetBlockItem@CDataOfChartListPage@@AAEXHV?$CStringT@DV?$StrTraitMFC_DLL@DV?$ChTraitsCRT@D@ATL@@@@@ATL@@@Z$17
xdata$x	ENDS
;	COMDAT xdata$x
xdata$x	SEGMENT
__ehfuncinfo$?SetVerticalScaleItem_Temp@CDataOfChartListPage@@AAEPAVCChartLink@@HV?$CStringT@DV?$StrTraitMFC_DLL@DV?$ChTraitsCRT@D@ATL@@@@@ATL@@@Z DD 019930522H
	DD	0aH
	DD	FLAT:__unwindtable$?SetVerticalScaleItem_Temp@CDataOfChartListPage@@AAEPAVCChartLink@@HV?$CStringT@DV?$StrTraitMFC_DLL@DV?$ChTraitsCRT@D@ATL@@@@@ATL@@@Z
	DD	2 DUP(00H)
	DD	2 DUP(00H)
	DD	00H
	DD	01H
__unwindtable$?SetVerticalScaleItem_Temp@CDataOfChartListPage@@AAEPAVCChartLink@@HV?$CStringT@DV?$StrTraitMFC_DLL@DV?$ChTraitsCRT@D@ATL@@@@@ATL@@@Z DD 0ffffffffH
	DD	FLAT:__unwindfunclet$?SetVerticalScaleItem_Temp@CDataOfChartListPage@@AAEPAVCChartLink@@HV?$CStringT@DV?$StrTraitMFC_DLL@DV?$ChTraitsCRT@D@ATL@@@@@ATL@@@Z$0
	DD	00H
	DD	FLAT:__unwindfunclet$?SetVerticalScaleItem_Temp@CDataOfChartListPage@@AAEPAVCChartLink@@HV?$CStringT@DV?$StrTraitMFC_DLL@DV?$ChTraitsCRT@D@ATL@@@@@ATL@@@Z$1
	DD	01H
	DD	FLAT:__unwindfunclet$?SetVerticalScaleItem_Temp@CDataOfChartListPage@@AAEPAVCChartLink@@HV?$CStringT@DV?$StrTraitMFC_DLL@DV?$ChTraitsCRT@D@ATL@@@@@ATL@@@Z$2
	DD	01H
	DD	FLAT:__unwindfunclet$?SetVerticalScaleItem_Temp@CDataOfChartListPage@@AAEPAVCChartLink@@HV?$CStringT@DV?$StrTraitMFC_DLL@DV?$ChTraitsCRT@D@ATL@@@@@ATL@@@Z$4
	DD	01H
	DD	FLAT:__unwindfunclet$?SetVerticalScaleItem_Temp@CDataOfChartListPage@@AAEPAVCChartLink@@HV?$CStringT@DV?$StrTraitMFC_DLL@DV?$ChTraitsCRT@D@ATL@@@@@ATL@@@Z$6
	DD	01H
	DD	FLAT:__unwindfunclet$?SetVerticalScaleItem_Temp@CDataOfChartListPage@@AAEPAVCChartLink@@HV?$CStringT@DV?$StrTraitMFC_DLL@DV?$ChTraitsCRT@D@ATL@@@@@ATL@@@Z$8
	DD	01H
	DD	FLAT:__unwindfunclet$?SetVerticalScaleItem_Temp@CDataOfChartListPage@@AAEPAVCChartLink@@HV?$CStringT@DV?$StrTraitMFC_DLL@DV?$ChTraitsCRT@D@ATL@@@@@ATL@@@Z$10
	DD	01H
	DD	FLAT:__unwindfunclet$?SetVerticalScaleItem_Temp@CDataOfChartListPage@@AAEPAVCChartLink@@HV?$CStringT@DV?$StrTraitMFC_DLL@DV?$ChTraitsCRT@D@ATL@@@@@ATL@@@Z$12
	DD	07H
	DD	FLAT:__unwindfunclet$?SetVerticalScaleItem_Temp@CDataOfChartListPage@@AAEPAVCChartLink@@HV?$CStringT@DV?$StrTraitMFC_DLL@DV?$ChTraitsCRT@D@ATL@@@@@ATL@@@Z$13
	DD	01H
	DD	FLAT:__unwindfunclet$?SetVerticalScaleItem_Temp@CDataOfChartListPage@@AAEPAVCChartLink@@HV?$CStringT@DV?$StrTraitMFC_DLL@DV?$ChTraitsCRT@D@ATL@@@@@ATL@@@Z$13
xdata$x	ENDS
;	COMDAT xdata$x
xdata$x	SEGMENT
__ehfuncinfo$?SetVerticalScaleItem@CDataOfChartListPage@@AAEPAVCChartLink@@HV?$CStringT@DV?$StrTraitMFC_DLL@DV?$ChTraitsCRT@D@ATL@@@@@ATL@@@Z DD 019930522H
	DD	013H
	DD	FLAT:__unwindtable$?SetVerticalScaleItem@CDataOfChartListPage@@AAEPAVCChartLink@@HV?$CStringT@DV?$StrTraitMFC_DLL@DV?$ChTraitsCRT@D@ATL@@@@@ATL@@@Z
	DD	2 DUP(00H)
	DD	2 DUP(00H)
	DD	00H
	DD	01H
__unwindtable$?SetVerticalScaleItem@CDataOfChartListPage@@AAEPAVCChartLink@@HV?$CStringT@DV?$StrTraitMFC_DLL@DV?$ChTraitsCRT@D@ATL@@@@@ATL@@@Z DD 0ffffffffH
	DD	FLAT:__unwindfunclet$?SetVerticalScaleItem@CDataOfChartListPage@@AAEPAVCChartLink@@HV?$CStringT@DV?$StrTraitMFC_DLL@DV?$ChTraitsCRT@D@ATL@@@@@ATL@@@Z$0
	DD	00H
	DD	FLAT:__unwindfunclet$?SetVerticalScaleItem@CDataOfChartListPage@@AAEPAVCChartLink@@HV?$CStringT@DV?$StrTraitMFC_DLL@DV?$ChTraitsCRT@D@ATL@@@@@ATL@@@Z$1
	DD	01H
	DD	FLAT:__unwindfunclet$?SetVerticalScaleItem@CDataOfChartListPage@@AAEPAVCChartLink@@HV?$CStringT@DV?$StrTraitMFC_DLL@DV?$ChTraitsCRT@D@ATL@@@@@ATL@@@Z$2
	DD	01H
	DD	FLAT:__unwindfunclet$?SetVerticalScaleItem@CDataOfChartListPage@@AAEPAVCChartLink@@HV?$CStringT@DV?$StrTraitMFC_DLL@DV?$ChTraitsCRT@D@ATL@@@@@ATL@@@Z$4
	DD	03H
	DD	FLAT:__unwindfunclet$?SetVerticalScaleItem@CDataOfChartListPage@@AAEPAVCChartLink@@HV?$CStringT@DV?$StrTraitMFC_DLL@DV?$ChTraitsCRT@D@ATL@@@@@ATL@@@Z$5
	DD	01H
	DD	FLAT:__unwindfunclet$?SetVerticalScaleItem@CDataOfChartListPage@@AAEPAVCChartLink@@HV?$CStringT@DV?$StrTraitMFC_DLL@DV?$ChTraitsCRT@D@ATL@@@@@ATL@@@Z$5
	DD	05H
	DD	FLAT:__unwindfunclet$?SetVerticalScaleItem@CDataOfChartListPage@@AAEPAVCChartLink@@HV?$CStringT@DV?$StrTraitMFC_DLL@DV?$ChTraitsCRT@D@ATL@@@@@ATL@@@Z$6
	DD	05H
	DD	FLAT:__unwindfunclet$?SetVerticalScaleItem@CDataOfChartListPage@@AAEPAVCChartLink@@HV?$CStringT@DV?$StrTraitMFC_DLL@DV?$ChTraitsCRT@D@ATL@@@@@ATL@@@Z$8
	DD	05H
	DD	FLAT:__unwindfunclet$?SetVerticalScaleItem@CDataOfChartListPage@@AAEPAVCChartLink@@HV?$CStringT@DV?$StrTraitMFC_DLL@DV?$ChTraitsCRT@D@ATL@@@@@ATL@@@Z$10
	DD	05H
	DD	FLAT:__unwindfunclet$?SetVerticalScaleItem@CDataOfChartListPage@@AAEPAVCChartLink@@HV?$CStringT@DV?$StrTraitMFC_DLL@DV?$ChTraitsCRT@D@ATL@@@@@ATL@@@Z$12
	DD	05H
	DD	FLAT:__unwindfunclet$?SetVerticalScaleItem@CDataOfChartListPage@@AAEPAVCChartLink@@HV?$CStringT@DV?$StrTraitMFC_DLL@DV?$ChTraitsCRT@D@ATL@@@@@ATL@@@Z$14
	DD	05H
	DD	FLAT:__unwindfunclet$?SetVerticalScaleItem@CDataOfChartListPage@@AAEPAVCChartLink@@HV?$CStringT@DV?$StrTraitMFC_DLL@DV?$ChTraitsCRT@D@ATL@@@@@ATL@@@Z$16
	DD	05H
	DD	FLAT:__unwindfunclet$?SetVerticalScaleItem@CDataOfChartListPage@@AAEPAVCChartLink@@HV?$CStringT@DV?$StrTraitMFC_DLL@DV?$ChTraitsCRT@D@ATL@@@@@ATL@@@Z$18
	DD	05H
	DD	FLAT:__unwindfunclet$?SetVerticalScaleItem@CDataOfChartListPage@@AAEPAVCChartLink@@HV?$CStringT@DV?$StrTraitMFC_DLL@DV?$ChTraitsCRT@D@ATL@@@@@ATL@@@Z$20
	DD	05H
	DD	FLAT:__unwindfunclet$?SetVerticalScaleItem@CDataOfChartListPage@@AAEPAVCChartLink@@HV?$CStringT@DV?$StrTraitMFC_DLL@DV?$ChTraitsCRT@D@ATL@@@@@ATL@@@Z$22
	DD	05H
	DD	FLAT:__unwindfunclet$?SetVerticalScaleItem@CDataOfChartListPage@@AAEPAVCChartLink@@HV?$CStringT@DV?$StrTraitMFC_DLL@DV?$ChTraitsCRT@D@ATL@@@@@ATL@@@Z$24
	DD	05H
	DD	FLAT:__unwindfunclet$?SetVerticalScaleItem@CDataOfChartListPage@@AAEPAVCChartLink@@HV?$CStringT@DV?$StrTraitMFC_DLL@DV?$ChTraitsCRT@D@ATL@@@@@ATL@@@Z$26
	DD	05H
	DD	FLAT:__unwindfunclet$?SetVerticalScaleItem@CDataOfChartListPage@@AAEPAVCChartLink@@HV?$CStringT@DV?$StrTraitMFC_DLL@DV?$ChTraitsCRT@D@ATL@@@@@ATL@@@Z$28
	DD	05H
	DD	FLAT:__unwindfunclet$?SetVerticalScaleItem@CDataOfChartListPage@@AAEPAVCChartLink@@HV?$CStringT@DV?$StrTraitMFC_DLL@DV?$ChTraitsCRT@D@ATL@@@@@ATL@@@Z$30
xdata$x	ENDS
;	COMDAT xdata$x
xdata$x	SEGMENT
__ehfuncinfo$?SetItem@CDataOfChartListPage@@AAEXPAVCChartLink@@ABV?$CStringT@DV?$StrTraitMFC_DLL@DV?$ChTraitsCRT@D@ATL@@@@@ATL@@PAUIGraphInfoManager134661@@@Z DD 019930522H
	DD	025H
	DD	FLAT:__unwindtable$?SetItem@CDataOfChartListPage@@AAEXPAVCChartLink@@ABV?$CStringT@DV?$StrTraitMFC_DLL@DV?$ChTraitsCRT@D@ATL@@@@@ATL@@PAUIGraphInfoManager134661@@@Z
	DD	2 DUP(00H)
	DD	2 DUP(00H)
	DD	00H
	DD	01H
__unwindtable$?SetItem@CDataOfChartListPage@@AAEXPAVCChartLink@@ABV?$CStringT@DV?$StrTraitMFC_DLL@DV?$ChTraitsCRT@D@ATL@@@@@ATL@@PAUIGraphInfoManager134661@@@Z DD 0ffffffffH
	DD	FLAT:__unwindfunclet$?SetItem@CDataOfChartListPage@@AAEXPAVCChartLink@@ABV?$CStringT@DV?$StrTraitMFC_DLL@DV?$ChTraitsCRT@D@ATL@@@@@ATL@@PAUIGraphInfoManager134661@@@Z$0
	DD	00H
	DD	FLAT:__unwindfunclet$?SetItem@CDataOfChartListPage@@AAEXPAVCChartLink@@ABV?$CStringT@DV?$StrTraitMFC_DLL@DV?$ChTraitsCRT@D@ATL@@@@@ATL@@PAUIGraphInfoManager134661@@@Z$1
	DD	01H
	DD	FLAT:__unwindfunclet$?SetItem@CDataOfChartListPage@@AAEXPAVCChartLink@@ABV?$CStringT@DV?$StrTraitMFC_DLL@DV?$ChTraitsCRT@D@ATL@@@@@ATL@@PAUIGraphInfoManager134661@@@Z$2
	DD	00H
	DD	FLAT:__unwindfunclet$?SetItem@CDataOfChartListPage@@AAEXPAVCChartLink@@ABV?$CStringT@DV?$StrTraitMFC_DLL@DV?$ChTraitsCRT@D@ATL@@@@@ATL@@PAUIGraphInfoManager134661@@@Z$2
	DD	03H
	DD	FLAT:__unwindfunclet$?SetItem@CDataOfChartListPage@@AAEXPAVCChartLink@@ABV?$CStringT@DV?$StrTraitMFC_DLL@DV?$ChTraitsCRT@D@ATL@@@@@ATL@@PAUIGraphInfoManager134661@@@Z$3
	DD	03H
	DD	FLAT:__unwindfunclet$?SetItem@CDataOfChartListPage@@AAEXPAVCChartLink@@ABV?$CStringT@DV?$StrTraitMFC_DLL@DV?$ChTraitsCRT@D@ATL@@@@@ATL@@PAUIGraphInfoManager134661@@@Z$5
	DD	05H
	DD	FLAT:__unwindfunclet$?SetItem@CDataOfChartListPage@@AAEXPAVCChartLink@@ABV?$CStringT@DV?$StrTraitMFC_DLL@DV?$ChTraitsCRT@D@ATL@@@@@ATL@@PAUIGraphInfoManager134661@@@Z$6
	DD	03H
	DD	FLAT:__unwindfunclet$?SetItem@CDataOfChartListPage@@AAEXPAVCChartLink@@ABV?$CStringT@DV?$StrTraitMFC_DLL@DV?$ChTraitsCRT@D@ATL@@@@@ATL@@PAUIGraphInfoManager134661@@@Z$6
	DD	07H
	DD	FLAT:__unwindfunclet$?SetItem@CDataOfChartListPage@@AAEXPAVCChartLink@@ABV?$CStringT@DV?$StrTraitMFC_DLL@DV?$ChTraitsCRT@D@ATL@@@@@ATL@@PAUIGraphInfoManager134661@@@Z$7
	DD	08H
	DD	FLAT:__unwindfunclet$?SetItem@CDataOfChartListPage@@AAEXPAVCChartLink@@ABV?$CStringT@DV?$StrTraitMFC_DLL@DV?$ChTraitsCRT@D@ATL@@@@@ATL@@PAUIGraphInfoManager134661@@@Z$8
	DD	08H
	DD	FLAT:__unwindfunclet$?SetItem@CDataOfChartListPage@@AAEXPAVCChartLink@@ABV?$CStringT@DV?$StrTraitMFC_DLL@DV?$ChTraitsCRT@D@ATL@@@@@ATL@@PAUIGraphInfoManager134661@@@Z$9
	DD	0aH
	DD	FLAT:__unwindfunclet$?SetItem@CDataOfChartListPage@@AAEXPAVCChartLink@@ABV?$CStringT@DV?$StrTraitMFC_DLL@DV?$ChTraitsCRT@D@ATL@@@@@ATL@@PAUIGraphInfoManager134661@@@Z$10
	DD	0bH
	DD	FLAT:__unwindfunclet$?SetItem@CDataOfChartListPage@@AAEXPAVCChartLink@@ABV?$CStringT@DV?$StrTraitMFC_DLL@DV?$ChTraitsCRT@D@ATL@@@@@ATL@@PAUIGraphInfoManager134661@@@Z$11
	DD	08H
	DD	FLAT:__unwindfunclet$?SetItem@CDataOfChartListPage@@AAEXPAVCChartLink@@ABV?$CStringT@DV?$StrTraitMFC_DLL@DV?$ChTraitsCRT@D@ATL@@@@@ATL@@PAUIGraphInfoManager134661@@@Z$12
	DD	0dH
	DD	FLAT:__unwindfunclet$?SetItem@CDataOfChartListPage@@AAEXPAVCChartLink@@ABV?$CStringT@DV?$StrTraitMFC_DLL@DV?$ChTraitsCRT@D@ATL@@@@@ATL@@PAUIGraphInfoManager134661@@@Z$13
	DD	08H
	DD	FLAT:__unwindfunclet$?SetItem@CDataOfChartListPage@@AAEXPAVCChartLink@@ABV?$CStringT@DV?$StrTraitMFC_DLL@DV?$ChTraitsCRT@D@ATL@@@@@ATL@@PAUIGraphInfoManager134661@@@Z$13
	DD	0fH
	DD	FLAT:__unwindfunclet$?SetItem@CDataOfChartListPage@@AAEXPAVCChartLink@@ABV?$CStringT@DV?$StrTraitMFC_DLL@DV?$ChTraitsCRT@D@ATL@@@@@ATL@@PAUIGraphInfoManager134661@@@Z$14
	DD	010H
	DD	FLAT:__unwindfunclet$?SetItem@CDataOfChartListPage@@AAEXPAVCChartLink@@ABV?$CStringT@DV?$StrTraitMFC_DLL@DV?$ChTraitsCRT@D@ATL@@@@@ATL@@PAUIGraphInfoManager134661@@@Z$15
	DD	011H
	DD	FLAT:__unwindfunclet$?SetItem@CDataOfChartListPage@@AAEXPAVCChartLink@@ABV?$CStringT@DV?$StrTraitMFC_DLL@DV?$ChTraitsCRT@D@ATL@@@@@ATL@@PAUIGraphInfoManager134661@@@Z$29
	DD	012H
	DD	FLAT:__unwindfunclet$?SetItem@CDataOfChartListPage@@AAEXPAVCChartLink@@ABV?$CStringT@DV?$StrTraitMFC_DLL@DV?$ChTraitsCRT@D@ATL@@@@@ATL@@PAUIGraphInfoManager134661@@@Z$31
	DD	013H
	DD	FLAT:__unwindfunclet$?SetItem@CDataOfChartListPage@@AAEXPAVCChartLink@@ABV?$CStringT@DV?$StrTraitMFC_DLL@DV?$ChTraitsCRT@D@ATL@@@@@ATL@@PAUIGraphInfoManager134661@@@Z$32
	DD	012H
	DD	FLAT:__unwindfunclet$?SetItem@CDataOfChartListPage@@AAEXPAVCChartLink@@ABV?$CStringT@DV?$StrTraitMFC_DLL@DV?$ChTraitsCRT@D@ATL@@@@@ATL@@PAUIGraphInfoManager134661@@@Z$33
	DD	015H
	DD	FLAT:__unwindfunclet$?SetItem@CDataOfChartListPage@@AAEXPAVCChartLink@@ABV?$CStringT@DV?$StrTraitMFC_DLL@DV?$ChTraitsCRT@D@ATL@@@@@ATL@@PAUIGraphInfoManager134661@@@Z$34
	DD	0fH
	DD	FLAT:__unwindfunclet$?SetItem@CDataOfChartListPage@@AAEXPAVCChartLink@@ABV?$CStringT@DV?$StrTraitMFC_DLL@DV?$ChTraitsCRT@D@ATL@@@@@ATL@@PAUIGraphInfoManager134661@@@Z$16
	DD	017H
	DD	FLAT:__unwindfunclet$?SetItem@CDataOfChartListPage@@AAEXPAVCChartLink@@ABV?$CStringT@DV?$StrTraitMFC_DLL@DV?$ChTraitsCRT@D@ATL@@@@@ATL@@PAUIGraphInfoManager134661@@@Z$17
	DD	0fH
	DD	FLAT:__unwindfunclet$?SetItem@CDataOfChartListPage@@AAEXPAVCChartLink@@ABV?$CStringT@DV?$StrTraitMFC_DLL@DV?$ChTraitsCRT@D@ATL@@@@@ATL@@PAUIGraphInfoManager134661@@@Z$18
	DD	019H
	DD	FLAT:__unwindfunclet$?SetItem@CDataOfChartListPage@@AAEXPAVCChartLink@@ABV?$CStringT@DV?$StrTraitMFC_DLL@DV?$ChTraitsCRT@D@ATL@@@@@ATL@@PAUIGraphInfoManager134661@@@Z$19
	DD	0fH
	DD	FLAT:__unwindfunclet$?SetItem@CDataOfChartListPage@@AAEXPAVCChartLink@@ABV?$CStringT@DV?$StrTraitMFC_DLL@DV?$ChTraitsCRT@D@ATL@@@@@ATL@@PAUIGraphInfoManager134661@@@Z$20
	DD	01bH
	DD	FLAT:__unwindfunclet$?SetItem@CDataOfChartListPage@@AAEXPAVCChartLink@@ABV?$CStringT@DV?$StrTraitMFC_DLL@DV?$ChTraitsCRT@D@ATL@@@@@ATL@@PAUIGraphInfoManager134661@@@Z$21
	DD	0fH
	DD	FLAT:__unwindfunclet$?SetItem@CDataOfChartListPage@@AAEXPAVCChartLink@@ABV?$CStringT@DV?$StrTraitMFC_DLL@DV?$ChTraitsCRT@D@ATL@@@@@ATL@@PAUIGraphInfoManager134661@@@Z$22
	DD	01dH
	DD	FLAT:__unwindfunclet$?SetItem@CDataOfChartListPage@@AAEXPAVCChartLink@@ABV?$CStringT@DV?$StrTraitMFC_DLL@DV?$ChTraitsCRT@D@ATL@@@@@ATL@@PAUIGraphInfoManager134661@@@Z$23
	DD	0fH
	DD	FLAT:__unwindfunclet$?SetItem@CDataOfChartListPage@@AAEXPAVCChartLink@@ABV?$CStringT@DV?$StrTraitMFC_DLL@DV?$ChTraitsCRT@D@ATL@@@@@ATL@@PAUIGraphInfoManager134661@@@Z$24
	DD	0fH
	DD	FLAT:__unwindfunclet$?SetItem@CDataOfChartListPage@@AAEXPAVCChartLink@@ABV?$CStringT@DV?$StrTraitMFC_DLL@DV?$ChTraitsCRT@D@ATL@@@@@ATL@@PAUIGraphInfoManager134661@@@Z$26
	DD	020H
	DD	FLAT:__unwindfunclet$?SetItem@CDataOfChartListPage@@AAEXPAVCChartLink@@ABV?$CStringT@DV?$StrTraitMFC_DLL@DV?$ChTraitsCRT@D@ATL@@@@@ATL@@PAUIGraphInfoManager134661@@@Z$36
	DD	021H
	DD	FLAT:__unwindfunclet$?SetItem@CDataOfChartListPage@@AAEXPAVCChartLink@@ABV?$CStringT@DV?$StrTraitMFC_DLL@DV?$ChTraitsCRT@D@ATL@@@@@ATL@@PAUIGraphInfoManager134661@@@Z$37
	DD	020H
	DD	FLAT:__unwindfunclet$?SetItem@CDataOfChartListPage@@AAEXPAVCChartLink@@ABV?$CStringT@DV?$StrTraitMFC_DLL@DV?$ChTraitsCRT@D@ATL@@@@@ATL@@PAUIGraphInfoManager134661@@@Z$27
	DD	020H
	DD	FLAT:__unwindfunclet$?SetItem@CDataOfChartListPage@@AAEXPAVCChartLink@@ABV?$CStringT@DV?$StrTraitMFC_DLL@DV?$ChTraitsCRT@D@ATL@@@@@ATL@@PAUIGraphInfoManager134661@@@Z$28
xdata$x	ENDS
;	COMDAT xdata$x
xdata$x	SEGMENT
__unwindtable$?GetGraphType@CDataOfChartListPage@@AAE?AV?$CStringT@DV?$StrTraitMFC_DLL@DV?$ChTraitsCRT@D@ATL@@@@@ATL@@ABV23@PAUIGraphInfoManager134661@@@Z DD 0ffffffffH
	DD	FLAT:__unwindfunclet$?GetGraphType@CDataOfChartListPage@@AAE?AV?$CStringT@DV?$StrTraitMFC_DLL@DV?$ChTraitsCRT@D@ATL@@@@@ATL@@ABV23@PAUIGraphInfoManager134661@@@Z$1
	DD	00H
	DD	FLAT:__unwindfunclet$?GetGraphType@CDataOfChartListPage@@AAE?AV?$CStringT@DV?$StrTraitMFC_DLL@DV?$ChTraitsCRT@D@ATL@@@@@ATL@@ABV23@PAUIGraphInfoManager134661@@@Z$2
__ehfuncinfo$?GetGraphType@CDataOfChartListPage@@AAE?AV?$CStringT@DV?$StrTraitMFC_DLL@DV?$ChTraitsCRT@D@ATL@@@@@ATL@@ABV23@PAUIGraphInfoManager134661@@@Z DD 019930522H
	DD	02H
	DD	FLAT:__unwindtable$?GetGraphType@CDataOfChartListPage@@AAE?AV?$CStringT@DV?$StrTraitMFC_DLL@DV?$ChTraitsCRT@D@ATL@@@@@ATL@@ABV23@PAUIGraphInfoManager134661@@@Z
	DD	2 DUP(00H)
	DD	2 DUP(00H)
	DD	00H
	DD	01H
xdata$x	ENDS
;	COMDAT xdata$x
xdata$x	SEGMENT
__ehfuncinfo$?SetData@CDataOfChartListPage@@QAEXABV?$CStringT@DV?$StrTraitMFC_DLL@DV?$ChTraitsCRT@D@ATL@@@@@ATL@@PAUIGraphInfoManager134661@@@Z DD 019930522H
	DD	01cH
	DD	FLAT:__unwindtable$?SetData@CDataOfChartListPage@@QAEXABV?$CStringT@DV?$StrTraitMFC_DLL@DV?$ChTraitsCRT@D@ATL@@@@@ATL@@PAUIGraphInfoManager134661@@@Z
	DD	2 DUP(00H)
	DD	2 DUP(00H)
	DD	00H
	DD	01H
__unwindtable$?SetData@CDataOfChartListPage@@QAEXABV?$CStringT@DV?$StrTraitMFC_DLL@DV?$ChTraitsCRT@D@ATL@@@@@ATL@@PAUIGraphInfoManager134661@@@Z DD 0ffffffffH
	DD	FLAT:__unwindfunclet$?SetData@CDataOfChartListPage@@QAEXABV?$CStringT@DV?$StrTraitMFC_DLL@DV?$ChTraitsCRT@D@ATL@@@@@ATL@@PAUIGraphInfoManager134661@@@Z$0
	DD	00H
	DD	FLAT:__unwindfunclet$?SetData@CDataOfChartListPage@@QAEXABV?$CStringT@DV?$StrTraitMFC_DLL@DV?$ChTraitsCRT@D@ATL@@@@@ATL@@PAUIGraphInfoManager134661@@@Z$1
	DD	00H
	DD	FLAT:__unwindfunclet$?SetData@CDataOfChartListPage@@QAEXABV?$CStringT@DV?$StrTraitMFC_DLL@DV?$ChTraitsCRT@D@ATL@@@@@ATL@@PAUIGraphInfoManager134661@@@Z$3
	DD	00H
	DD	FLAT:__unwindfunclet$?SetData@CDataOfChartListPage@@QAEXABV?$CStringT@DV?$StrTraitMFC_DLL@DV?$ChTraitsCRT@D@ATL@@@@@ATL@@PAUIGraphInfoManager134661@@@Z$4
	DD	00H
	DD	FLAT:__unwindfunclet$?SetData@CDataOfChartListPage@@QAEXABV?$CStringT@DV?$StrTraitMFC_DLL@DV?$ChTraitsCRT@D@ATL@@@@@ATL@@PAUIGraphInfoManager134661@@@Z$6
	DD	04H
	DD	FLAT:__unwindfunclet$?SetData@CDataOfChartListPage@@QAEXABV?$CStringT@DV?$StrTraitMFC_DLL@DV?$ChTraitsCRT@D@ATL@@@@@ATL@@PAUIGraphInfoManager134661@@@Z$7
	DD	00H
	DD	FLAT:__unwindfunclet$?SetData@CDataOfChartListPage@@QAEXABV?$CStringT@DV?$StrTraitMFC_DLL@DV?$ChTraitsCRT@D@ATL@@@@@ATL@@PAUIGraphInfoManager134661@@@Z$7
	DD	06H
	DD	FLAT:__unwindfunclet$?SetData@CDataOfChartListPage@@QAEXABV?$CStringT@DV?$StrTraitMFC_DLL@DV?$ChTraitsCRT@D@ATL@@@@@ATL@@PAUIGraphInfoManager134661@@@Z$8
	DD	06H
	DD	FLAT:__unwindfunclet$?SetData@CDataOfChartListPage@@QAEXABV?$CStringT@DV?$StrTraitMFC_DLL@DV?$ChTraitsCRT@D@ATL@@@@@ATL@@PAUIGraphInfoManager134661@@@Z$10
	DD	06H
	DD	FLAT:__unwindfunclet$?SetData@CDataOfChartListPage@@QAEXABV?$CStringT@DV?$StrTraitMFC_DLL@DV?$ChTraitsCRT@D@ATL@@@@@ATL@@PAUIGraphInfoManager134661@@@Z$11
	DD	06H
	DD	FLAT:__unwindfunclet$?SetData@CDataOfChartListPage@@QAEXABV?$CStringT@DV?$StrTraitMFC_DLL@DV?$ChTraitsCRT@D@ATL@@@@@ATL@@PAUIGraphInfoManager134661@@@Z$13
	DD	0aH
	DD	FLAT:__unwindfunclet$?SetData@CDataOfChartListPage@@QAEXABV?$CStringT@DV?$StrTraitMFC_DLL@DV?$ChTraitsCRT@D@ATL@@@@@ATL@@PAUIGraphInfoManager134661@@@Z$14
	DD	06H
	DD	FLAT:__unwindfunclet$?SetData@CDataOfChartListPage@@QAEXABV?$CStringT@DV?$StrTraitMFC_DLL@DV?$ChTraitsCRT@D@ATL@@@@@ATL@@PAUIGraphInfoManager134661@@@Z$14
	DD	0cH
	DD	FLAT:__unwindfunclet$?SetData@CDataOfChartListPage@@QAEXABV?$CStringT@DV?$StrTraitMFC_DLL@DV?$ChTraitsCRT@D@ATL@@@@@ATL@@PAUIGraphInfoManager134661@@@Z$15
	DD	0cH
	DD	FLAT:__unwindfunclet$?SetData@CDataOfChartListPage@@QAEXABV?$CStringT@DV?$StrTraitMFC_DLL@DV?$ChTraitsCRT@D@ATL@@@@@ATL@@PAUIGraphInfoManager134661@@@Z$17
	DD	0cH
	DD	FLAT:__unwindfunclet$?SetData@CDataOfChartListPage@@QAEXABV?$CStringT@DV?$StrTraitMFC_DLL@DV?$ChTraitsCRT@D@ATL@@@@@ATL@@PAUIGraphInfoManager134661@@@Z$18
	DD	0cH
	DD	FLAT:__unwindfunclet$?SetData@CDataOfChartListPage@@QAEXABV?$CStringT@DV?$StrTraitMFC_DLL@DV?$ChTraitsCRT@D@ATL@@@@@ATL@@PAUIGraphInfoManager134661@@@Z$20
	DD	010H
	DD	FLAT:__unwindfunclet$?SetData@CDataOfChartListPage@@QAEXABV?$CStringT@DV?$StrTraitMFC_DLL@DV?$ChTraitsCRT@D@ATL@@@@@ATL@@PAUIGraphInfoManager134661@@@Z$21
	DD	0cH
	DD	FLAT:__unwindfunclet$?SetData@CDataOfChartListPage@@QAEXABV?$CStringT@DV?$StrTraitMFC_DLL@DV?$ChTraitsCRT@D@ATL@@@@@ATL@@PAUIGraphInfoManager134661@@@Z$21
	DD	00H
	DD	FLAT:__unwindfunclet$?SetData@CDataOfChartListPage@@QAEXABV?$CStringT@DV?$StrTraitMFC_DLL@DV?$ChTraitsCRT@D@ATL@@@@@ATL@@PAUIGraphInfoManager134661@@@Z$22
	DD	00H
	DD	FLAT:__unwindfunclet$?SetData@CDataOfChartListPage@@QAEXABV?$CStringT@DV?$StrTraitMFC_DLL@DV?$ChTraitsCRT@D@ATL@@@@@ATL@@PAUIGraphInfoManager134661@@@Z$24
	DD	00H
	DD	FLAT:__unwindfunclet$?SetData@CDataOfChartListPage@@QAEXABV?$CStringT@DV?$StrTraitMFC_DLL@DV?$ChTraitsCRT@D@ATL@@@@@ATL@@PAUIGraphInfoManager134661@@@Z$25
	DD	015H
	DD	FLAT:__unwindfunclet$?SetData@CDataOfChartListPage@@QAEXABV?$CStringT@DV?$StrTraitMFC_DLL@DV?$ChTraitsCRT@D@ATL@@@@@ATL@@PAUIGraphInfoManager134661@@@Z$26
	DD	00H
	DD	FLAT:__unwindfunclet$?SetData@CDataOfChartListPage@@QAEXABV?$CStringT@DV?$StrTraitMFC_DLL@DV?$ChTraitsCRT@D@ATL@@@@@ATL@@PAUIGraphInfoManager134661@@@Z$26
	DD	017H
	DD	FLAT:__unwindfunclet$?SetData@CDataOfChartListPage@@QAEXABV?$CStringT@DV?$StrTraitMFC_DLL@DV?$ChTraitsCRT@D@ATL@@@@@ATL@@PAUIGraphInfoManager134661@@@Z$27
	DD	017H
	DD	FLAT:__unwindfunclet$?SetData@CDataOfChartListPage@@QAEXABV?$CStringT@DV?$StrTraitMFC_DLL@DV?$ChTraitsCRT@D@ATL@@@@@ATL@@PAUIGraphInfoManager134661@@@Z$28
	DD	017H
	DD	FLAT:__unwindfunclet$?SetData@CDataOfChartListPage@@QAEXABV?$CStringT@DV?$StrTraitMFC_DLL@DV?$ChTraitsCRT@D@ATL@@@@@ATL@@PAUIGraphInfoManager134661@@@Z$31
	DD	01aH
	DD	FLAT:__unwindfunclet$?SetData@CDataOfChartListPage@@QAEXABV?$CStringT@DV?$StrTraitMFC_DLL@DV?$ChTraitsCRT@D@ATL@@@@@ATL@@PAUIGraphInfoManager134661@@@Z$32
xdata$x	ENDS
;	COMDAT xdata$x
xdata$x	SEGMENT
__unwindtable$?GetBlockandGraphAllData@CDataOfChartListPage@@QAE?AV?$CStringT@DV?$StrTraitMFC_DLL@DV?$ChTraitsCRT@D@ATL@@@@@ATL@@PAVCChartLink@@@Z DD 0ffffffffH
	DD	FLAT:__unwindfunclet$?GetBlockandGraphAllData@CDataOfChartListPage@@QAE?AV?$CStringT@DV?$StrTraitMFC_DLL@DV?$ChTraitsCRT@D@ATL@@@@@ATL@@PAVCChartLink@@@Z$0
	DD	00H
	DD	FLAT:__unwindfunclet$?GetBlockandGraphAllData@CDataOfChartListPage@@QAE?AV?$CStringT@DV?$StrTraitMFC_DLL@DV?$ChTraitsCRT@D@ATL@@@@@ATL@@PAVCChartLink@@@Z$2
	DD	00H
	DD	FLAT:__unwindfunclet$?GetBlockandGraphAllData@CDataOfChartListPage@@QAE?AV?$CStringT@DV?$StrTraitMFC_DLL@DV?$ChTraitsCRT@D@ATL@@@@@ATL@@PAVCChartLink@@@Z$3
	DD	00H
	DD	FLAT:__unwindfunclet$?GetBlockandGraphAllData@CDataOfChartListPage@@QAE?AV?$CStringT@DV?$StrTraitMFC_DLL@DV?$ChTraitsCRT@D@ATL@@@@@ATL@@PAVCChartLink@@@Z$4
__ehfuncinfo$?GetBlockandGraphAllData@CDataOfChartListPage@@QAE?AV?$CStringT@DV?$StrTraitMFC_DLL@DV?$ChTraitsCRT@D@ATL@@@@@ATL@@PAVCChartLink@@@Z DD 019930522H
	DD	04H
	DD	FLAT:__unwindtable$?GetBlockandGraphAllData@CDataOfChartListPage@@QAE?AV?$CStringT@DV?$StrTraitMFC_DLL@DV?$ChTraitsCRT@D@ATL@@@@@ATL@@PAVCChartLink@@@Z
	DD	2 DUP(00H)
	DD	2 DUP(00H)
	DD	00H
	DD	01H
xdata$x	ENDS
;	COMDAT xdata$x
xdata$x	SEGMENT
__unwindtable$??HATL@@YA?AV?$CStringT@DV?$StrTraitMFC_DLL@DV?$ChTraitsCRT@D@ATL@@@@@0@PBDABV10@@Z DD 0ffffffffH
	DD	FLAT:__unwindfunclet$??HATL@@YA?AV?$CStringT@DV?$StrTraitMFC_DLL@DV?$ChTraitsCRT@D@ATL@@@@@0@PBDABV10@@Z$0
__ehfuncinfo$??HATL@@YA?AV?$CStringT@DV?$StrTraitMFC_DLL@DV?$ChTraitsCRT@D@ATL@@@@@0@PBDABV10@@Z DD 019930522H
	DD	01H
	DD	FLAT:__unwindtable$??HATL@@YA?AV?$CStringT@DV?$StrTraitMFC_DLL@DV?$ChTraitsCRT@D@ATL@@@@@0@PBDABV10@@Z
	DD	2 DUP(00H)
	DD	2 DUP(00H)
	DD	00H
	DD	01H
xdata$x	ENDS
;	COMDAT xdata$x
xdata$x	SEGMENT
__unwindtable$??HATL@@YA?AV?$CStringT@DV?$StrTraitMFC_DLL@DV?$ChTraitsCRT@D@ATL@@@@@0@ABV10@PBD@Z DD 0ffffffffH
	DD	FLAT:__unwindfunclet$??HATL@@YA?AV?$CStringT@DV?$StrTraitMFC_DLL@DV?$ChTraitsCRT@D@ATL@@@@@0@ABV10@PBD@Z$0
__ehfuncinfo$??HATL@@YA?AV?$CStringT@DV?$StrTraitMFC_DLL@DV?$ChTraitsCRT@D@ATL@@@@@0@ABV10@PBD@Z DD 019930522H
	DD	01H
	DD	FLAT:__unwindtable$??HATL@@YA?AV?$CStringT@DV?$StrTraitMFC_DLL@DV?$ChTraitsCRT@D@ATL@@@@@0@ABV10@PBD@Z
	DD	2 DUP(00H)
	DD	2 DUP(00H)
	DD	00H
	DD	01H
xdata$x	ENDS
; Function compile flags: /Ogtp
;	COMDAT ??_GCDataOfChartListPage@@UAEPAXI@Z
_TEXT	SEGMENT
___flags$ = 8						; size = 4
??_GCDataOfChartListPage@@UAEPAXI@Z PROC		; CDataOfChartListPage::`scalar deleting destructor', COMDAT
; _this$ = ecx
  00000	55		 push	 ebp
  00001	8b ec		 mov	 ebp, esp
  00003	f6 45 08 01	 test	 BYTE PTR ___flags$[ebp], 1
  00007	56		 push	 esi
  00008	8b f1		 mov	 esi, ecx
  0000a	c7 06 00 00 00
	00		 mov	 DWORD PTR [esi], OFFSET ??_7CDataOfChartListPage@@6B@
  00010	74 0b		 je	 SHORT $LN4@scalar
  00012	6a 14		 push	 20			; 00000014H
  00014	56		 push	 esi
  00015	e8 00 00 00 00	 call	 ??3@YAXPAXI@Z		; operator delete
  0001a	83 c4 08	 add	 esp, 8
$LN4@scalar:
  0001d	8b c6		 mov	 eax, esi
  0001f	5e		 pop	 esi
  00020	5d		 pop	 ebp
  00021	c2 04 00	 ret	 4
??_GCDataOfChartListPage@@UAEPAXI@Z ENDP		; CDataOfChartListPage::`scalar deleting destructor'
_TEXT	ENDS
; Function compile flags: /Ogtp
; File D:\git\src\IBK\IBK_DRFN\ProjSrc\SrcChartEx\ChartAddIn\ChartDesignPropertyAddIn\ChartDesignPropertyAddIn\DataOfChartListPage.cpp
; File C:\Program Files (x86)\Microsoft Visual Studio\2019\Community\VC\Tools\MSVC\14.29.30133\atlmfc\include\atlsimpstr.h
; File C:\Program Files (x86)\Microsoft Visual Studio\2019\Community\VC\Tools\MSVC\14.29.30133\atlmfc\include\cstringt.h
; File D:\git\src\IBK\IBK_DRFN\ProjSrc\SrcChartEx\ChartAddIn\ChartDesignPropertyAddIn\ChartDesignPropertyAddIn\DataOfChartListPage.cpp
;	COMDAT ?GetSignalData@CDataOfChartListPage@@AAEXABV?$CStringT@DV?$StrTraitMFC_DLL@DV?$ChTraitsCRT@D@ATL@@@@@ATL@@AA_N1@Z
_TEXT	SEGMENT
__$EHRec$ = -12						; size = 12
$T2 = 8							; size = 4
$T3 = 8							; size = 4
_strData$ = 8						; size = 4
$T4 = 12						; size = 4
$T5 = 12						; size = 4
$T6 = 12						; size = 4
_bSignalUse$ = 12					; size = 4
_strRealData$ = 16					; size = 4
_bSignalShow$ = 16					; size = 4
?GetSignalData@CDataOfChartListPage@@AAEXABV?$CStringT@DV?$StrTraitMFC_DLL@DV?$ChTraitsCRT@D@ATL@@@@@ATL@@AA_N1@Z PROC ; CDataOfChartListPage::GetSignalData, COMDAT
; _this$ = ecx

; 70   : {

  00000	55		 push	 ebp
  00001	8b ec		 mov	 ebp, esp
  00003	6a ff		 push	 -1
  00005	68 00 00 00 00	 push	 __ehhandler$?GetSignalData@CDataOfChartListPage@@AAEXABV?$CStringT@DV?$StrTraitMFC_DLL@DV?$ChTraitsCRT@D@ATL@@@@@ATL@@AA_N1@Z
  0000a	64 a1 00 00 00
	00		 mov	 eax, DWORD PTR fs:0
  00010	50		 push	 eax
  00011	56		 push	 esi
  00012	57		 push	 edi
  00013	a1 00 00 00 00	 mov	 eax, DWORD PTR ___security_cookie
  00018	33 c5		 xor	 eax, ebp
  0001a	50		 push	 eax
  0001b	8d 45 f4	 lea	 eax, DWORD PTR __$EHRec$[ebp]
  0001e	64 a3 00 00 00
	00		 mov	 DWORD PTR fs:0, eax

; 71   : 	bSignalUse = bSignalShow = false;

  00024	8b 75 10	 mov	 esi, DWORD PTR _bSignalShow$[ebp]

; 72   : 
; 73   : 	CString strRealData = strData;

  00027	8d 4d 10	 lea	 ecx, DWORD PTR _strRealData$[ebp]
  0002a	8b 7d 0c	 mov	 edi, DWORD PTR _bSignalUse$[ebp]
  0002d	ff 75 08	 push	 DWORD PTR _strData$[ebp]
  00030	c6 06 00	 mov	 BYTE PTR [esi], 0
  00033	c6 07 00	 mov	 BYTE PTR [edi], 0
  00036	ff 15 00 00 00
	00		 call	 DWORD PTR __imp_??0?$CStringT@DV?$StrTraitMFC_DLL@DV?$ChTraitsCRT@D@ATL@@@@@ATL@@QAE@ABV01@@Z

; 74   : 	if(strRealData.Right(1) != ';')

  0003c	6a 01		 push	 1
  0003e	8d 45 0c	 lea	 eax, DWORD PTR $T6[ebp]
  00041	c7 45 fc 00 00
	00 00		 mov	 DWORD PTR __$EHRec$[ebp+8], 0
  00048	50		 push	 eax
  00049	8d 4d 10	 lea	 ecx, DWORD PTR _strRealData$[ebp]
  0004c	ff 15 00 00 00
	00		 call	 DWORD PTR __imp_?Right@?$CStringT@DV?$StrTraitMFC_DLL@DV?$ChTraitsCRT@D@ATL@@@@@ATL@@QBE?AV12@H@Z
; File C:\Program Files (x86)\Microsoft Visual Studio\2019\Community\VC\Tools\MSVC\14.29.30133\atlmfc\include\atlsimpstr.h

; 519  : 		return( GetData()->nDataLength );

  00052	8b 08		 mov	 ecx, DWORD PTR [eax]
; File C:\Program Files (x86)\Microsoft Visual Studio\2019\Community\VC\Tools\MSVC\14.29.30133\atlmfc\include\cstringt.h

; 2699 : 		return((str1.GetLength() != 1) || (str1[0] != ch2));

  00054	83 79 f4 01	 cmp	 DWORD PTR [ecx-12], 1
  00058	75 19		 jne	 SHORT $LN12@GetSignalD
  0005a	6a 00		 push	 0
  0005c	8b c8		 mov	 ecx, eax
  0005e	ff 15 00 00 00
	00		 call	 DWORD PTR __imp_??A?$CSimpleStringT@D$00@ATL@@QBEDH@Z
  00064	3c 3b		 cmp	 al, 59			; 0000003bH
  00066	75 0b		 jne	 SHORT $LN12@GetSignalD
  00068	8d 4d 0c	 lea	 ecx, DWORD PTR $T6[ebp]
  0006b	ff 15 00 00 00
	00		 call	 DWORD PTR __imp_??1?$CStringT@DV?$StrTraitMFC_DLL@DV?$ChTraitsCRT@D@ATL@@@@@ATL@@QAE@XZ
  00071	eb 17		 jmp	 SHORT $LN2@GetSignalD
$LN12@GetSignalD:
  00073	8d 4d 0c	 lea	 ecx, DWORD PTR $T6[ebp]
  00076	ff 15 00 00 00
	00		 call	 DWORD PTR __imp_??1?$CStringT@DV?$StrTraitMFC_DLL@DV?$ChTraitsCRT@D@ATL@@@@@ATL@@QAE@XZ
; File D:\git\src\IBK\IBK_DRFN\ProjSrc\SrcChartEx\ChartAddIn\ChartDesignPropertyAddIn\ChartDesignPropertyAddIn\DataOfChartListPage.cpp

; 75   : 		strRealData += ";";

  0007c	68 00 00 00 00	 push	 OFFSET ??_C@_01ICJEACDI@?$DL@
  00081	8d 4d 10	 lea	 ecx, DWORD PTR _strRealData$[ebp]
  00084	ff 15 00 00 00
	00		 call	 DWORD PTR __imp_??Y?$CStringT@DV?$StrTraitMFC_DLL@DV?$ChTraitsCRT@D@ATL@@@@@ATL@@QAEAAV01@PBD@Z
$LN2@GetSignalD:

; 76   : 
; 77   : 	// "signal:signal;"
; 78   : 	// signal
; 79   : 	bSignalUse = CDataConversion::atob(CDataConversion::GetStringData(strRealData, ":"));

  0008a	68 00 00 00 00	 push	 OFFSET ??_C@_01JLIPDDHJ@?3@
  0008f	8d 4d 0c	 lea	 ecx, DWORD PTR $T5[ebp]
  00092	ff 15 00 00 00
	00		 call	 DWORD PTR __imp_??0?$CStringT@DV?$StrTraitMFC_DLL@DV?$ChTraitsCRT@D@ATL@@@@@ATL@@QAE@PBD@Z
  00098	6a 01		 push	 1
  0009a	8d 45 0c	 lea	 eax, DWORD PTR $T5[ebp]
  0009d	c6 45 fc 01	 mov	 BYTE PTR __$EHRec$[ebp+8], 1
  000a1	50		 push	 eax
  000a2	8d 45 10	 lea	 eax, DWORD PTR _strRealData$[ebp]
  000a5	50		 push	 eax
  000a6	8d 45 08	 lea	 eax, DWORD PTR $T3[ebp]
  000a9	50		 push	 eax
  000aa	e8 00 00 00 00	 call	 ?GetStringData@CDataConversion@@SA?AV?$CStringT@DV?$StrTraitMFC_DLL@DV?$ChTraitsCRT@D@ATL@@@@@ATL@@AAV23@ABV23@_N@Z ; CDataConversion::GetStringData
  000af	ff 30		 push	 DWORD PTR [eax]
  000b1	c6 45 fc 02	 mov	 BYTE PTR __$EHRec$[ebp+8], 2
  000b5	e8 00 00 00 00	 call	 ?atob@CDataConversion@@SA_NPBD@Z ; CDataConversion::atob
  000ba	83 c4 14	 add	 esp, 20			; 00000014H
  000bd	88 07		 mov	 BYTE PTR [edi], al
  000bf	8d 4d 08	 lea	 ecx, DWORD PTR $T3[ebp]
  000c2	ff 15 00 00 00
	00		 call	 DWORD PTR __imp_??1?$CStringT@DV?$StrTraitMFC_DLL@DV?$ChTraitsCRT@D@ATL@@@@@ATL@@QAE@XZ
  000c8	8d 4d 0c	 lea	 ecx, DWORD PTR $T5[ebp]
  000cb	c6 45 fc 00	 mov	 BYTE PTR __$EHRec$[ebp+8], 0
  000cf	ff 15 00 00 00
	00		 call	 DWORD PTR __imp_??1?$CStringT@DV?$StrTraitMFC_DLL@DV?$ChTraitsCRT@D@ATL@@@@@ATL@@QAE@XZ

; 80   : 	// signal
; 81   : 	bSignalShow = CDataConversion::atob(CDataConversion::GetStringData(strRealData, ';'));

  000d5	6a 01		 push	 1
  000d7	6a 3b		 push	 59			; 0000003bH
  000d9	8d 4d 0c	 lea	 ecx, DWORD PTR $T4[ebp]
  000dc	ff 15 00 00 00
	00		 call	 DWORD PTR __imp_??0?$CStringT@DV?$StrTraitMFC_DLL@DV?$ChTraitsCRT@D@ATL@@@@@ATL@@QAE@DH@Z
  000e2	6a 01		 push	 1
  000e4	8d 45 0c	 lea	 eax, DWORD PTR $T4[ebp]
  000e7	c6 45 fc 03	 mov	 BYTE PTR __$EHRec$[ebp+8], 3
  000eb	50		 push	 eax
  000ec	8d 45 10	 lea	 eax, DWORD PTR _strRealData$[ebp]
  000ef	50		 push	 eax
  000f0	8d 45 08	 lea	 eax, DWORD PTR $T2[ebp]
  000f3	50		 push	 eax
  000f4	e8 00 00 00 00	 call	 ?GetStringData@CDataConversion@@SA?AV?$CStringT@DV?$StrTraitMFC_DLL@DV?$ChTraitsCRT@D@ATL@@@@@ATL@@AAV23@ABV23@_N@Z ; CDataConversion::GetStringData
  000f9	ff 30		 push	 DWORD PTR [eax]
  000fb	c6 45 fc 04	 mov	 BYTE PTR __$EHRec$[ebp+8], 4
  000ff	e8 00 00 00 00	 call	 ?atob@CDataConversion@@SA_NPBD@Z ; CDataConversion::atob
  00104	83 c4 14	 add	 esp, 20			; 00000014H
  00107	88 06		 mov	 BYTE PTR [esi], al
  00109	8d 4d 08	 lea	 ecx, DWORD PTR $T2[ebp]
  0010c	ff 15 00 00 00
	00		 call	 DWORD PTR __imp_??1?$CStringT@DV?$StrTraitMFC_DLL@DV?$ChTraitsCRT@D@ATL@@@@@ATL@@QAE@XZ
  00112	8d 4d 0c	 lea	 ecx, DWORD PTR $T4[ebp]
  00115	ff 15 00 00 00
	00		 call	 DWORD PTR __imp_??1?$CStringT@DV?$StrTraitMFC_DLL@DV?$ChTraitsCRT@D@ATL@@@@@ATL@@QAE@XZ

; 82   : }

  0011b	8d 4d 10	 lea	 ecx, DWORD PTR _strRealData$[ebp]
  0011e	ff 15 00 00 00
	00		 call	 DWORD PTR __imp_??1?$CStringT@DV?$StrTraitMFC_DLL@DV?$ChTraitsCRT@D@ATL@@@@@ATL@@QAE@XZ
  00124	8b 4d f4	 mov	 ecx, DWORD PTR __$EHRec$[ebp]
  00127	64 89 0d 00 00
	00 00		 mov	 DWORD PTR fs:0, ecx
  0012e	59		 pop	 ecx
  0012f	5f		 pop	 edi
  00130	5e		 pop	 esi
  00131	8b e5		 mov	 esp, ebp
  00133	5d		 pop	 ebp
  00134	c2 0c 00	 ret	 12			; 0000000cH
_TEXT	ENDS
;	COMDAT text$x
text$x	SEGMENT
__unwindfunclet$?GetSignalData@CDataOfChartListPage@@AAEXABV?$CStringT@DV?$StrTraitMFC_DLL@DV?$ChTraitsCRT@D@ATL@@@@@ATL@@AA_N1@Z$0:
  00000	8d 4d 10	 lea	 ecx, DWORD PTR _strRealData$[ebp]
  00003	ff 25 00 00 00
	00		 jmp	 DWORD PTR __imp_??1?$CStringT@DV?$StrTraitMFC_DLL@DV?$ChTraitsCRT@D@ATL@@@@@ATL@@QAE@XZ
__unwindfunclet$?GetSignalData@CDataOfChartListPage@@AAEXABV?$CStringT@DV?$StrTraitMFC_DLL@DV?$ChTraitsCRT@D@ATL@@@@@ATL@@AA_N1@Z$2:
  00009	8d 4d 0c	 lea	 ecx, DWORD PTR $T5[ebp]
  0000c	ff 25 00 00 00
	00		 jmp	 DWORD PTR __imp_??1?$CStringT@DV?$StrTraitMFC_DLL@DV?$ChTraitsCRT@D@ATL@@@@@ATL@@QAE@XZ
__unwindfunclet$?GetSignalData@CDataOfChartListPage@@AAEXABV?$CStringT@DV?$StrTraitMFC_DLL@DV?$ChTraitsCRT@D@ATL@@@@@ATL@@AA_N1@Z$3:
  00012	8d 4d 08	 lea	 ecx, DWORD PTR $T3[ebp]
  00015	ff 25 00 00 00
	00		 jmp	 DWORD PTR __imp_??1?$CStringT@DV?$StrTraitMFC_DLL@DV?$ChTraitsCRT@D@ATL@@@@@ATL@@QAE@XZ
__unwindfunclet$?GetSignalData@CDataOfChartListPage@@AAEXABV?$CStringT@DV?$StrTraitMFC_DLL@DV?$ChTraitsCRT@D@ATL@@@@@ATL@@AA_N1@Z$4:
  0001b	8d 4d 0c	 lea	 ecx, DWORD PTR $T4[ebp]
  0001e	ff 25 00 00 00
	00		 jmp	 DWORD PTR __imp_??1?$CStringT@DV?$StrTraitMFC_DLL@DV?$ChTraitsCRT@D@ATL@@@@@ATL@@QAE@XZ
__unwindfunclet$?GetSignalData@CDataOfChartListPage@@AAEXABV?$CStringT@DV?$StrTraitMFC_DLL@DV?$ChTraitsCRT@D@ATL@@@@@ATL@@AA_N1@Z$5:
  00024	8d 4d 08	 lea	 ecx, DWORD PTR $T2[ebp]
  00027	ff 25 00 00 00
	00		 jmp	 DWORD PTR __imp_??1?$CStringT@DV?$StrTraitMFC_DLL@DV?$ChTraitsCRT@D@ATL@@@@@ATL@@QAE@XZ
  0002d	cc		 int	 3
  0002e	cc		 int	 3
  0002f	cc		 int	 3
  00030	cc		 int	 3
  00031	cc		 int	 3
__ehhandler$?GetSignalData@CDataOfChartListPage@@AAEXABV?$CStringT@DV?$StrTraitMFC_DLL@DV?$ChTraitsCRT@D@ATL@@@@@ATL@@AA_N1@Z:
  00032	90		 npad	 1
  00033	90		 npad	 1
  00034	8b 54 24 08	 mov	 edx, DWORD PTR [esp+8]
  00038	8d 42 0c	 lea	 eax, DWORD PTR [edx+12]
  0003b	8b 4a f4	 mov	 ecx, DWORD PTR [edx-12]
  0003e	33 c8		 xor	 ecx, eax
  00040	e8 00 00 00 00	 call	 @__security_check_cookie@4
  00045	b8 00 00 00 00	 mov	 eax, OFFSET __ehfuncinfo$?GetSignalData@CDataOfChartListPage@@AAEXABV?$CStringT@DV?$StrTraitMFC_DLL@DV?$ChTraitsCRT@D@ATL@@@@@ATL@@AA_N1@Z
  0004a	e9 00 00 00 00	 jmp	 ___CxxFrameHandler3
text$x	ENDS
?GetSignalData@CDataOfChartListPage@@AAEXABV?$CStringT@DV?$StrTraitMFC_DLL@DV?$ChTraitsCRT@D@ATL@@@@@ATL@@AA_N1@Z ENDP ; CDataOfChartListPage::GetSignalData
; Function compile flags: /Ogtp
; File D:\git\src\IBK\IBK_DRFN\ProjSrc\SrcChartEx\ChartAddIn\ChartDesignPropertyAddIn\ChartDesignPropertyAddIn\DataOfChartListPage.cpp
; File C:\Program Files (x86)\Microsoft Visual Studio\2019\Community\VC\Tools\MSVC\14.29.30133\atlmfc\include\atlsimpstr.h
; File D:\git\src\IBK\IBK_DRFN\ProjSrc\SrcChartEx\ChartAddIn\ChartDesignPropertyAddIn\ChartDesignPropertyAddIn\DataOfChartListPage.cpp
; File C:\Program Files (x86)\Microsoft Visual Studio\2019\Community\VC\Tools\MSVC\14.29.30133\atlmfc\include\atlsimpstr.h
; File D:\git\src\IBK\IBK_DRFN\ProjSrc\SrcChartEx\ChartAddIn\ChartDesignPropertyAddIn\ChartDesignPropertyAddIn\DataOfChartListPage.cpp
; File C:\Program Files (x86)\Microsoft Visual Studio\2019\Community\VC\Tools\MSVC\14.29.30133\atlmfc\include\atlsimpstr.h
; File D:\git\src\IBK\IBK_DRFN\ProjSrc\SrcChartEx\ChartAddIn\ChartDesignPropertyAddIn\ChartDesignPropertyAddIn\DataOfChartListPage.cpp
; File C:\Program Files (x86)\Microsoft Visual Studio\2019\Community\VC\Tools\MSVC\14.29.30133\atlmfc\include\cstringt.h
; File D:\git\src\IBK\IBK_DRFN\ProjSrc\SrcChartEx\ChartAddIn\ChartDesignPropertyAddIn\ChartDesignPropertyAddIn\DataOfChartListPage.cpp
; File C:\Program Files (x86)\Microsoft Visual Studio\2019\Community\VC\Tools\MSVC\14.29.30133\atlmfc\include\cstringt.h
; File C:\Program Files (x86)\Microsoft Visual Studio\2019\Community\VC\Tools\MSVC\14.29.30133\atlmfc\include\atlsimpstr.h
; File C:\Program Files (x86)\Microsoft Visual Studio\2019\Community\VC\Tools\MSVC\14.29.30133\atlmfc\include\cstringt.h
; File D:\git\src\IBK\IBK_DRFN\ProjSrc\SrcChartEx\ChartAddIn\ChartDesignPropertyAddIn\ChartDesignPropertyAddIn\DataOfChartListPage.cpp
; File C:\Program Files (x86)\Microsoft Visual Studio\2019\Community\VC\Tools\MSVC\14.29.30133\atlmfc\include\cstringt.h
; File D:\git\src\IBK\IBK_DRFN\ProjSrc\SrcChartEx\ChartAddIn\ChartDesignPropertyAddIn\ChartDesignPropertyAddIn\DataOfChartListPage.cpp
; File C:\Program Files (x86)\Microsoft Visual Studio\2019\Community\VC\Tools\MSVC\14.29.30133\atlmfc\include\cstringt.h
; File C:\Program Files (x86)\Microsoft Visual Studio\2019\Community\VC\Tools\MSVC\14.29.30133\atlmfc\include\atlsimpstr.h
; File C:\Program Files (x86)\Microsoft Visual Studio\2019\Community\VC\Tools\MSVC\14.29.30133\atlmfc\include\cstringt.h
; File D:\git\src\IBK\IBK_DRFN\ProjSrc\SrcChartEx\ChartAddIn\ChartDesignPropertyAddIn\ChartDesignPropertyAddIn\DataOfChartListPage.cpp
; File C:\Program Files (x86)\Microsoft Visual Studio\2019\Community\VC\Tools\MSVC\14.29.30133\atlmfc\include\cstringt.h
; File D:\git\src\IBK\IBK_DRFN\ProjSrc\SrcChartEx\ChartAddIn\ChartDesignPropertyAddIn\ChartDesignPropertyAddIn\DataOfChartListPage.cpp
; File C:\Program Files (x86)\Microsoft Visual Studio\2019\Community\VC\Tools\MSVC\14.29.30133\atlmfc\include\cstringt.h
; File C:\Program Files (x86)\Microsoft Visual Studio\2019\Community\VC\Tools\MSVC\14.29.30133\atlmfc\include\atlsimpstr.h
; File C:\Program Files (x86)\Microsoft Visual Studio\2019\Community\VC\Tools\MSVC\14.29.30133\atlmfc\include\cstringt.h
; File D:\git\src\IBK\IBK_DRFN\ProjSrc\SrcChartEx\ChartAddIn\ChartDesignPropertyAddIn\ChartDesignPropertyAddIn\DataOfChartListPage.cpp
; File C:\Program Files (x86)\Microsoft Visual Studio\2019\Community\VC\Tools\MSVC\14.29.30133\atlmfc\include\cstringt.h
; File D:\git\src\IBK\IBK_DRFN\ProjSrc\SrcChartEx\ChartAddIn\ChartDesignPropertyAddIn\ChartDesignPropertyAddIn\DataOfChartListPage.cpp
; File C:\Program Files (x86)\Microsoft Visual Studio\2019\Community\VC\Tools\MSVC\14.29.30133\atlmfc\include\cstringt.h
; File C:\Program Files (x86)\Microsoft Visual Studio\2019\Community\VC\Tools\MSVC\14.29.30133\atlmfc\include\atlsimpstr.h
; File C:\Program Files (x86)\Microsoft Visual Studio\2019\Community\VC\Tools\MSVC\14.29.30133\atlmfc\include\cstringt.h
; File D:\git\src\IBK\IBK_DRFN\ProjSrc\SrcChartEx\ChartAddIn\ChartDesignPropertyAddIn\ChartDesignPropertyAddIn\DataOfChartListPage.cpp
; File C:\Program Files (x86)\Microsoft Visual Studio\2019\Community\VC\Tools\MSVC\14.29.30133\atlmfc\include\cstringt.h
; File D:\git\src\IBK\IBK_DRFN\ProjSrc\SrcChartEx\ChartAddIn\ChartDesignPropertyAddIn\ChartDesignPropertyAddIn\DataOfChartListPage.cpp
; File C:\Program Files (x86)\Microsoft Visual Studio\2019\Community\VC\Tools\MSVC\14.29.30133\atlmfc\include\cstringt.h
; File C:\Program Files (x86)\Microsoft Visual Studio\2019\Community\VC\Tools\MSVC\14.29.30133\atlmfc\include\atlsimpstr.h
; File C:\Program Files (x86)\Microsoft Visual Studio\2019\Community\VC\Tools\MSVC\14.29.30133\atlmfc\include\cstringt.h
; File D:\git\src\IBK\IBK_DRFN\ProjSrc\SrcChartEx\ChartAddIn\ChartDesignPropertyAddIn\ChartDesignPropertyAddIn\DataOfChartListPage.cpp
; File C:\Program Files (x86)\Microsoft Visual Studio\2019\Community\VC\Tools\MSVC\14.29.30133\atlmfc\include\cstringt.h
; File D:\git\src\IBK\IBK_DRFN\ProjSrc\SrcChartEx\ChartAddIn\ChartDesignPropertyAddIn\ChartDesignPropertyAddIn\DataOfChartListPage.cpp
; File C:\Program Files (x86)\Microsoft Visual Studio\2019\Community\VC\Tools\MSVC\14.29.30133\atlmfc\include\cstringt.h
; File C:\Program Files (x86)\Microsoft Visual Studio\2019\Community\VC\Tools\MSVC\14.29.30133\atlmfc\include\atlsimpstr.h
; File C:\Program Files (x86)\Microsoft Visual Studio\2019\Community\VC\Tools\MSVC\14.29.30133\atlmfc\include\cstringt.h
; File D:\git\src\IBK\IBK_DRFN\ProjSrc\SrcChartEx\ChartAddIn\ChartDesignPropertyAddIn\ChartDesignPropertyAddIn\DataOfChartListPage.cpp
; File C:\Program Files (x86)\Microsoft Visual Studio\2019\Community\VC\Tools\MSVC\14.29.30133\atlmfc\include\cstringt.h
; File D:\git\src\IBK\IBK_DRFN\ProjSrc\SrcChartEx\ChartAddIn\ChartDesignPropertyAddIn\ChartDesignPropertyAddIn\DataOfChartListPage.cpp
; File C:\Program Files (x86)\Microsoft Visual Studio\2019\Community\VC\Tools\MSVC\14.29.30133\atlmfc\include\cstringt.h
; File C:\Program Files (x86)\Microsoft Visual Studio\2019\Community\VC\Tools\MSVC\14.29.30133\atlmfc\include\atlsimpstr.h
; File C:\Program Files (x86)\Microsoft Visual Studio\2019\Community\VC\Tools\MSVC\14.29.30133\atlmfc\include\cstringt.h
; File D:\git\src\IBK\IBK_DRFN\ProjSrc\SrcChartEx\ChartAddIn\ChartDesignPropertyAddIn\ChartDesignPropertyAddIn\DataOfChartListPage.cpp
;	COMDAT ?GetBlockAllData@CDataOfChartListPage@@AAE?AV?$CStringT@DV?$StrTraitMFC_DLL@DV?$ChTraitsCRT@D@ATL@@@@@ATL@@PAVCChartLink@@@Z
_TEXT	SEGMENT
$T2 = -24						; size = 4
$T3 = -24						; size = 4
$T4 = -24						; size = 4
$T5 = -24						; size = 4
_strScaleStyle$ = -20					; size = 4
$T6 = -16						; size = 4
__$EHRec$ = -12						; size = 12
___$ReturnUdt$ = 8					; size = 4
$T7 = 12						; size = 4
$T8 = 12						; size = 4
$T9 = 12						; size = 4
$T10 = 12						; size = 4
$T11 = 12						; size = 4
$T12 = 12						; size = 4
$T13 = 12						; size = 4
_pItem$ = 12						; size = 4
?GetBlockAllData@CDataOfChartListPage@@AAE?AV?$CStringT@DV?$StrTraitMFC_DLL@DV?$ChTraitsCRT@D@ATL@@@@@ATL@@PAVCChartLink@@@Z PROC ; CDataOfChartListPage::GetBlockAllData, COMDAT
; _this$ = ecx

; 139  : {

  00000	55		 push	 ebp
  00001	8b ec		 mov	 ebp, esp
  00003	6a ff		 push	 -1
  00005	68 00 00 00 00	 push	 __ehhandler$?GetBlockAllData@CDataOfChartListPage@@AAE?AV?$CStringT@DV?$StrTraitMFC_DLL@DV?$ChTraitsCRT@D@ATL@@@@@ATL@@PAVCChartLink@@@Z
  0000a	64 a1 00 00 00
	00		 mov	 eax, DWORD PTR fs:0
  00010	50		 push	 eax
  00011	83 ec 0c	 sub	 esp, 12			; 0000000cH
  00014	53		 push	 ebx
  00015	56		 push	 esi
  00016	57		 push	 edi
  00017	a1 00 00 00 00	 mov	 eax, DWORD PTR ___security_cookie
  0001c	33 c5		 xor	 eax, ebp
  0001e	50		 push	 eax
  0001f	8d 45 f4	 lea	 eax, DWORD PTR __$EHRec$[ebp]
  00022	64 a3 00 00 00
	00		 mov	 DWORD PTR fs:0, eax
  00028	8b f1		 mov	 esi, ecx
  0002a	c7 45 f0 00 00
	00 00		 mov	 DWORD PTR $T6[ebp], 0

; 140  : 	CString strValue = "";

  00031	8b 7d 08	 mov	 edi, DWORD PTR ___$ReturnUdt$[ebp]
  00034	8b cf		 mov	 ecx, edi
  00036	68 00 00 00 00	 push	 OFFSET ??_C@_00CNPNBAHC@@
  0003b	c7 45 fc 00 00
	00 00		 mov	 DWORD PTR __$EHRec$[ebp+8], 0
  00042	ff 15 00 00 00
	00		 call	 DWORD PTR __imp_??0?$CStringT@DV?$StrTraitMFC_DLL@DV?$ChTraitsCRT@D@ATL@@@@@ATL@@QAE@PBD@Z

; 159  : 	return strValue;

  00048	68 00 00 00 00	 push	 OFFSET ??_C@_08KGLHHGPJ@Block?$DL?$AN?6@
  0004d	8b cf		 mov	 ecx, edi
  0004f	c7 45 fc 00 00
	00 00		 mov	 DWORD PTR __$EHRec$[ebp+8], 0
  00056	c7 45 f0 01 00
	00 00		 mov	 DWORD PTR $T6[ebp], 1
  0005d	ff 15 00 00 00
	00		 call	 DWORD PTR __imp_??Y?$CStringT@DV?$StrTraitMFC_DLL@DV?$ChTraitsCRT@D@ATL@@@@@ATL@@QAEAAV01@PBD@Z
; File C:\Program Files (x86)\Microsoft Visual Studio\2019\Community\VC\Tools\MSVC\14.29.30133\atlmfc\include\atlsimpstr.h

; 377  : 		return( m_pszData );

  00063	8b 5d 0c	 mov	 ebx, DWORD PTR _pItem$[ebp]
; File D:\git\src\IBK\IBK_DRFN\ProjSrc\SrcChartEx\ChartAddIn\ChartDesignPropertyAddIn\ChartDesignPropertyAddIn\DataOfChartListPage.cpp

; 143  : 	CString strScaleStyle = _LTOM6_N( pItem->m_strScaleStyle);

  00066	b9 00 00 00 00	 mov	 ecx, OFFSET ?g_iMetaTable@@3VIMetaTable@@A ; g_iMetaTable
  0006b	6a 01		 push	 1
  0006d	ff 73 58	 push	 DWORD PTR [ebx+88]
  00070	6a 06		 push	 6
  00072	ff 76 10	 push	 DWORD PTR [esi+16]
  00075	e8 00 00 00 00	 call	 ?GetMetaText@IMetaTable@@QAEPBDPAUHWND__@@W4E_CODEPAGE@1@PBDH@Z ; IMetaTable::GetMetaText
  0007a	50		 push	 eax
  0007b	8d 4d ec	 lea	 ecx, DWORD PTR _strScaleStyle$[ebp]
  0007e	ff 15 00 00 00
	00		 call	 DWORD PTR __imp_??0?$CStringT@DV?$StrTraitMFC_DLL@DV?$ChTraitsCRT@D@ATL@@@@@ATL@@QAE@PBD@Z
; File C:\Program Files (x86)\Microsoft Visual Studio\2019\Community\VC\Tools\MSVC\14.29.30133\atlmfc\include\atlsimpstr.h

; 519  : 		return( GetData()->nDataLength );

  00084	8b 45 ec	 mov	 eax, DWORD PTR _strScaleStyle$[ebp]
; File D:\git\src\IBK\IBK_DRFN\ProjSrc\SrcChartEx\ChartAddIn\ChartDesignPropertyAddIn\ChartDesignPropertyAddIn\DataOfChartListPage.cpp

; 143  : 	CString strScaleStyle = _LTOM6_N( pItem->m_strScaleStyle);

  00087	c7 45 fc 01 00
	00 00		 mov	 DWORD PTR __$EHRec$[ebp+8], 1
; File C:\Program Files (x86)\Microsoft Visual Studio\2019\Community\VC\Tools\MSVC\14.29.30133\atlmfc\include\atlsimpstr.h

; 533  : 		return( GetLength() == 0 );

  0008e	83 78 f4 00	 cmp	 DWORD PTR [eax-12], 0
; File D:\git\src\IBK\IBK_DRFN\ProjSrc\SrcChartEx\ChartAddIn\ChartDesignPropertyAddIn\ChartDesignPropertyAddIn\DataOfChartListPage.cpp

; 144  : 	if( strScaleStyle.IsEmpty()) strScaleStyle = _LTOM0( pItem->m_strScaleStyle);

  00092	75 1e		 jne	 SHORT $LN2@GetBlockAl
  00094	6a 00		 push	 0
  00096	ff 73 58	 push	 DWORD PTR [ebx+88]
  00099	b9 00 00 00 00	 mov	 ecx, OFFSET ?g_iMetaTable@@3VIMetaTable@@A ; g_iMetaTable
  0009e	6a 00		 push	 0
  000a0	ff 76 10	 push	 DWORD PTR [esi+16]
  000a3	e8 00 00 00 00	 call	 ?GetMetaText@IMetaTable@@QAEPBDPAUHWND__@@W4E_CODEPAGE@1@PBDH@Z ; IMetaTable::GetMetaText
  000a8	50		 push	 eax
  000a9	8d 4d ec	 lea	 ecx, DWORD PTR _strScaleStyle$[ebp]
  000ac	ff 15 00 00 00
	00		 call	 DWORD PTR __imp_??4?$CStringT@DV?$StrTraitMFC_DLL@DV?$ChTraitsCRT@D@ATL@@@@@ATL@@QAEAAV01@PBD@Z
$LN2@GetBlockAl:
; File C:\Program Files (x86)\Microsoft Visual Studio\2019\Community\VC\Tools\MSVC\14.29.30133\atlmfc\include\cstringt.h

; 2401 : 		CStringT strResult( str1.GetManager() );

  000b2	8d 4d ec	 lea	 ecx, DWORD PTR _strScaleStyle$[ebp]
; File D:\git\src\IBK\IBK_DRFN\ProjSrc\SrcChartEx\ChartAddIn\ChartDesignPropertyAddIn\ChartDesignPropertyAddIn\DataOfChartListPage.cpp

; 146  : 	strValue += strScaleStyle + ";" ; //

  000b5	c6 45 fc 02	 mov	 BYTE PTR __$EHRec$[ebp+8], 2
; File C:\Program Files (x86)\Microsoft Visual Studio\2019\Community\VC\Tools\MSVC\14.29.30133\atlmfc\include\cstringt.h

; 2401 : 		CStringT strResult( str1.GetManager() );

  000b9	ff 15 00 00 00
	00		 call	 DWORD PTR __imp_?GetManager@?$CStringT@DV?$StrTraitMFC_DLL@DV?$ChTraitsCRT@D@ATL@@@@@ATL@@QBEPAUIAtlStringMgr@2@XZ
  000bf	50		 push	 eax
  000c0	8d 4d 0c	 lea	 ecx, DWORD PTR $T13[ebp]
  000c3	ff 15 00 00 00
	00		 call	 DWORD PTR __imp_??0?$CStringT@DV?$StrTraitMFC_DLL@DV?$ChTraitsCRT@D@ATL@@@@@ATL@@QAE@PAUIAtlStringMgr@1@@Z
; File C:\Program Files (x86)\Microsoft Visual Studio\2019\Community\VC\Tools\MSVC\14.29.30133\atlmfc\include\atlsimpstr.h

; 519  : 		return( GetData()->nDataLength );

  000c9	8b 45 ec	 mov	 eax, DWORD PTR _strScaleStyle$[ebp]
; File C:\Program Files (x86)\Microsoft Visual Studio\2019\Community\VC\Tools\MSVC\14.29.30133\atlmfc\include\cstringt.h

; 2403 : 		CThisSimpleString::Concatenate( strResult, str1, str1.GetLength(), psz2, CThisSimpleString::StringLength( psz2 ) );

  000cc	6a 01		 push	 1
  000ce	68 00 00 00 00	 push	 OFFSET ??_C@_01ICJEACDI@?$DL@

; 2404 : 
; 2405 : 		return( strResult );

  000d3	c7 45 f0 03 00
	00 00		 mov	 DWORD PTR $T6[ebp], 3
  000da	ff 70 f4	 push	 DWORD PTR [eax-12]
  000dd	50		 push	 eax
  000de	8d 45 0c	 lea	 eax, DWORD PTR $T13[ebp]
  000e1	50		 push	 eax
  000e2	ff 15 00 00 00
	00		 call	 DWORD PTR __imp_?Concatenate@?$CSimpleStringT@D$00@ATL@@KAXAAV12@PBDH1H@Z
  000e8	83 c4 14	 add	 esp, 20			; 00000014H
; File D:\git\src\IBK\IBK_DRFN\ProjSrc\SrcChartEx\ChartAddIn\ChartDesignPropertyAddIn\ChartDesignPropertyAddIn\DataOfChartListPage.cpp

; 146  : 	strValue += strScaleStyle + ";" ; //

  000eb	8d 45 0c	 lea	 eax, DWORD PTR $T13[ebp]
  000ee	8b cf		 mov	 ecx, edi
  000f0	50		 push	 eax
  000f1	ff 15 00 00 00
	00		 call	 DWORD PTR __imp_??Y?$CStringT@DV?$StrTraitMFC_DLL@DV?$ChTraitsCRT@D@ATL@@@@@ATL@@QAEAAV01@ABV?$CSimpleStringT@D$00@1@@Z
  000f7	8d 4d 0c	 lea	 ecx, DWORD PTR $T13[ebp]
  000fa	c7 45 f0 01 00
	00 00		 mov	 DWORD PTR $T6[ebp], 1
  00101	c6 45 fc 01	 mov	 BYTE PTR __$EHRec$[ebp+8], 1
  00105	ff 15 00 00 00
	00		 call	 DWORD PTR __imp_??1?$CStringT@DV?$StrTraitMFC_DLL@DV?$ChTraitsCRT@D@ATL@@@@@ATL@@QAE@XZ

; 147  : 	strValue += CDataConversion::IntToString(pItem->m_nHorizonpos) + ";" ; //

  0010b	ff 73 40	 push	 DWORD PTR [ebx+64]
  0010e	8d 45 e8	 lea	 eax, DWORD PTR $T5[ebp]
  00111	50		 push	 eax
  00112	e8 00 00 00 00	 call	 ?IntToString@CDataConversion@@SA?AV?$CStringT@DV?$StrTraitMFC_DLL@DV?$ChTraitsCRT@D@ATL@@@@@ATL@@H@Z ; CDataConversion::IntToString
  00117	83 c4 08	 add	 esp, 8
  0011a	8b f0		 mov	 esi, eax
; File C:\Program Files (x86)\Microsoft Visual Studio\2019\Community\VC\Tools\MSVC\14.29.30133\atlmfc\include\cstringt.h

; 2401 : 		CStringT strResult( str1.GetManager() );

  0011c	8b ce		 mov	 ecx, esi
; File D:\git\src\IBK\IBK_DRFN\ProjSrc\SrcChartEx\ChartAddIn\ChartDesignPropertyAddIn\ChartDesignPropertyAddIn\DataOfChartListPage.cpp

; 147  : 	strValue += CDataConversion::IntToString(pItem->m_nHorizonpos) + ";" ; //

  0011e	c6 45 fc 04	 mov	 BYTE PTR __$EHRec$[ebp+8], 4
; File C:\Program Files (x86)\Microsoft Visual Studio\2019\Community\VC\Tools\MSVC\14.29.30133\atlmfc\include\cstringt.h

; 2401 : 		CStringT strResult( str1.GetManager() );

  00122	ff 15 00 00 00
	00		 call	 DWORD PTR __imp_?GetManager@?$CStringT@DV?$StrTraitMFC_DLL@DV?$ChTraitsCRT@D@ATL@@@@@ATL@@QBEPAUIAtlStringMgr@2@XZ
  00128	50		 push	 eax
  00129	8d 4d 0c	 lea	 ecx, DWORD PTR $T12[ebp]
  0012c	ff 15 00 00 00
	00		 call	 DWORD PTR __imp_??0?$CStringT@DV?$StrTraitMFC_DLL@DV?$ChTraitsCRT@D@ATL@@@@@ATL@@QAE@PAUIAtlStringMgr@1@@Z
; File C:\Program Files (x86)\Microsoft Visual Studio\2019\Community\VC\Tools\MSVC\14.29.30133\atlmfc\include\atlsimpstr.h

; 519  : 		return( GetData()->nDataLength );

  00132	8b 06		 mov	 eax, DWORD PTR [esi]
; File C:\Program Files (x86)\Microsoft Visual Studio\2019\Community\VC\Tools\MSVC\14.29.30133\atlmfc\include\cstringt.h

; 2403 : 		CThisSimpleString::Concatenate( strResult, str1, str1.GetLength(), psz2, CThisSimpleString::StringLength( psz2 ) );

  00134	6a 01		 push	 1
  00136	68 00 00 00 00	 push	 OFFSET ??_C@_01ICJEACDI@?$DL@

; 2404 : 
; 2405 : 		return( strResult );

  0013b	c7 45 f0 05 00
	00 00		 mov	 DWORD PTR $T6[ebp], 5
  00142	ff 70 f4	 push	 DWORD PTR [eax-12]
  00145	50		 push	 eax
  00146	8d 45 0c	 lea	 eax, DWORD PTR $T12[ebp]
  00149	50		 push	 eax
  0014a	ff 15 00 00 00
	00		 call	 DWORD PTR __imp_?Concatenate@?$CSimpleStringT@D$00@ATL@@KAXAAV12@PBDH1H@Z
  00150	83 c4 14	 add	 esp, 20			; 00000014H
; File D:\git\src\IBK\IBK_DRFN\ProjSrc\SrcChartEx\ChartAddIn\ChartDesignPropertyAddIn\ChartDesignPropertyAddIn\DataOfChartListPage.cpp

; 147  : 	strValue += CDataConversion::IntToString(pItem->m_nHorizonpos) + ";" ; //

  00153	8d 45 0c	 lea	 eax, DWORD PTR $T12[ebp]
  00156	8b cf		 mov	 ecx, edi
  00158	50		 push	 eax
  00159	ff 15 00 00 00
	00		 call	 DWORD PTR __imp_??Y?$CStringT@DV?$StrTraitMFC_DLL@DV?$ChTraitsCRT@D@ATL@@@@@ATL@@QAEAAV01@ABV?$CSimpleStringT@D$00@1@@Z
  0015f	8d 4d 0c	 lea	 ecx, DWORD PTR $T12[ebp]
  00162	c7 45 f0 01 00
	00 00		 mov	 DWORD PTR $T6[ebp], 1
  00169	ff 15 00 00 00
	00		 call	 DWORD PTR __imp_??1?$CStringT@DV?$StrTraitMFC_DLL@DV?$ChTraitsCRT@D@ATL@@@@@ATL@@QAE@XZ
  0016f	8d 4d e8	 lea	 ecx, DWORD PTR $T5[ebp]
  00172	c6 45 fc 01	 mov	 BYTE PTR __$EHRec$[ebp+8], 1
  00176	ff 15 00 00 00
	00		 call	 DWORD PTR __imp_??1?$CStringT@DV?$StrTraitMFC_DLL@DV?$ChTraitsCRT@D@ATL@@@@@ATL@@QAE@XZ

; 148  : 	strValue += CDataConversion::IntToString(pItem->m_nScaleCompartType) + ";" ; //.

  0017c	ff 73 50	 push	 DWORD PTR [ebx+80]
  0017f	8d 45 e8	 lea	 eax, DWORD PTR $T4[ebp]
  00182	50		 push	 eax
  00183	e8 00 00 00 00	 call	 ?IntToString@CDataConversion@@SA?AV?$CStringT@DV?$StrTraitMFC_DLL@DV?$ChTraitsCRT@D@ATL@@@@@ATL@@H@Z ; CDataConversion::IntToString
  00188	83 c4 08	 add	 esp, 8
  0018b	8b f0		 mov	 esi, eax
; File C:\Program Files (x86)\Microsoft Visual Studio\2019\Community\VC\Tools\MSVC\14.29.30133\atlmfc\include\cstringt.h

; 2401 : 		CStringT strResult( str1.GetManager() );

  0018d	8b ce		 mov	 ecx, esi
; File D:\git\src\IBK\IBK_DRFN\ProjSrc\SrcChartEx\ChartAddIn\ChartDesignPropertyAddIn\ChartDesignPropertyAddIn\DataOfChartListPage.cpp

; 148  : 	strValue += CDataConversion::IntToString(pItem->m_nScaleCompartType) + ";" ; //.

  0018f	c6 45 fc 06	 mov	 BYTE PTR __$EHRec$[ebp+8], 6
; File C:\Program Files (x86)\Microsoft Visual Studio\2019\Community\VC\Tools\MSVC\14.29.30133\atlmfc\include\cstringt.h

; 2401 : 		CStringT strResult( str1.GetManager() );

  00193	ff 15 00 00 00
	00		 call	 DWORD PTR __imp_?GetManager@?$CStringT@DV?$StrTraitMFC_DLL@DV?$ChTraitsCRT@D@ATL@@@@@ATL@@QBEPAUIAtlStringMgr@2@XZ
  00199	50		 push	 eax
  0019a	8d 4d 0c	 lea	 ecx, DWORD PTR $T11[ebp]
  0019d	ff 15 00 00 00
	00		 call	 DWORD PTR __imp_??0?$CStringT@DV?$StrTraitMFC_DLL@DV?$ChTraitsCRT@D@ATL@@@@@ATL@@QAE@PAUIAtlStringMgr@1@@Z
; File C:\Program Files (x86)\Microsoft Visual Studio\2019\Community\VC\Tools\MSVC\14.29.30133\atlmfc\include\atlsimpstr.h

; 519  : 		return( GetData()->nDataLength );

  001a3	8b 06		 mov	 eax, DWORD PTR [esi]
; File C:\Program Files (x86)\Microsoft Visual Studio\2019\Community\VC\Tools\MSVC\14.29.30133\atlmfc\include\cstringt.h

; 2403 : 		CThisSimpleString::Concatenate( strResult, str1, str1.GetLength(), psz2, CThisSimpleString::StringLength( psz2 ) );

  001a5	6a 01		 push	 1
  001a7	68 00 00 00 00	 push	 OFFSET ??_C@_01ICJEACDI@?$DL@

; 2404 : 
; 2405 : 		return( strResult );

  001ac	c7 45 f0 09 00
	00 00		 mov	 DWORD PTR $T6[ebp], 9
  001b3	ff 70 f4	 push	 DWORD PTR [eax-12]
  001b6	50		 push	 eax
  001b7	8d 45 0c	 lea	 eax, DWORD PTR $T11[ebp]
  001ba	50		 push	 eax

; 2403 : 		CThisSimpleString::Concatenate( strResult, str1, str1.GetLength(), psz2, CThisSimpleString::StringLength( psz2 ) );

  001bb	ff 15 00 00 00
	00		 call	 DWORD PTR __imp_?Concatenate@?$CSimpleStringT@D$00@ATL@@KAXAAV12@PBDH1H@Z
  001c1	83 c4 14	 add	 esp, 20			; 00000014H
; File D:\git\src\IBK\IBK_DRFN\ProjSrc\SrcChartEx\ChartAddIn\ChartDesignPropertyAddIn\ChartDesignPropertyAddIn\DataOfChartListPage.cpp

; 148  : 	strValue += CDataConversion::IntToString(pItem->m_nScaleCompartType) + ";" ; //.

  001c4	8d 45 0c	 lea	 eax, DWORD PTR $T11[ebp]
  001c7	8b cf		 mov	 ecx, edi
  001c9	50		 push	 eax
  001ca	ff 15 00 00 00
	00		 call	 DWORD PTR __imp_??Y?$CStringT@DV?$StrTraitMFC_DLL@DV?$ChTraitsCRT@D@ATL@@@@@ATL@@QAEAAV01@ABV?$CSimpleStringT@D$00@1@@Z
  001d0	8d 4d 0c	 lea	 ecx, DWORD PTR $T11[ebp]
  001d3	ff 15 00 00 00
	00		 call	 DWORD PTR __imp_??1?$CStringT@DV?$StrTraitMFC_DLL@DV?$ChTraitsCRT@D@ATL@@@@@ATL@@QAE@XZ
  001d9	8d 4d e8	 lea	 ecx, DWORD PTR $T4[ebp]
  001dc	ff 15 00 00 00
	00		 call	 DWORD PTR __imp_??1?$CStringT@DV?$StrTraitMFC_DLL@DV?$ChTraitsCRT@D@ATL@@@@@ATL@@QAE@XZ
; File C:\Program Files (x86)\Microsoft Visual Studio\2019\Community\VC\Tools\MSVC\14.29.30133\atlmfc\include\cstringt.h

; 2401 : 		CStringT strResult( str1.GetManager() );

  001e2	8d 4b 38	 lea	 ecx, DWORD PTR [ebx+56]
; File D:\git\src\IBK\IBK_DRFN\ProjSrc\SrcChartEx\ChartAddIn\ChartDesignPropertyAddIn\ChartDesignPropertyAddIn\DataOfChartListPage.cpp

; 149  : 	strValue += pItem->m_strDateScaleCompart + ";"; //

  001e5	c6 45 fc 07	 mov	 BYTE PTR __$EHRec$[ebp+8], 7
; File C:\Program Files (x86)\Microsoft Visual Studio\2019\Community\VC\Tools\MSVC\14.29.30133\atlmfc\include\cstringt.h

; 2401 : 		CStringT strResult( str1.GetManager() );

  001e9	ff 15 00 00 00
	00		 call	 DWORD PTR __imp_?GetManager@?$CStringT@DV?$StrTraitMFC_DLL@DV?$ChTraitsCRT@D@ATL@@@@@ATL@@QBEPAUIAtlStringMgr@2@XZ
  001ef	50		 push	 eax
  001f0	8d 4d 0c	 lea	 ecx, DWORD PTR $T10[ebp]
  001f3	ff 15 00 00 00
	00		 call	 DWORD PTR __imp_??0?$CStringT@DV?$StrTraitMFC_DLL@DV?$ChTraitsCRT@D@ATL@@@@@ATL@@QAE@PAUIAtlStringMgr@1@@Z
; File C:\Program Files (x86)\Microsoft Visual Studio\2019\Community\VC\Tools\MSVC\14.29.30133\atlmfc\include\atlsimpstr.h

; 519  : 		return( GetData()->nDataLength );

  001f9	8b 43 38	 mov	 eax, DWORD PTR [ebx+56]
; File C:\Program Files (x86)\Microsoft Visual Studio\2019\Community\VC\Tools\MSVC\14.29.30133\atlmfc\include\cstringt.h

; 2403 : 		CThisSimpleString::Concatenate( strResult, str1, str1.GetLength(), psz2, CThisSimpleString::StringLength( psz2 ) );

  001fc	6a 01		 push	 1
  001fe	68 00 00 00 00	 push	 OFFSET ??_C@_01ICJEACDI@?$DL@

; 2404 : 
; 2405 : 		return( strResult );

  00203	c7 45 f0 11 00
	00 00		 mov	 DWORD PTR $T6[ebp], 17	; 00000011H
  0020a	ff 70 f4	 push	 DWORD PTR [eax-12]
  0020d	50		 push	 eax
  0020e	8d 45 0c	 lea	 eax, DWORD PTR $T10[ebp]
  00211	50		 push	 eax
  00212	ff 15 00 00 00
	00		 call	 DWORD PTR __imp_?Concatenate@?$CSimpleStringT@D$00@ATL@@KAXAAV12@PBDH1H@Z
  00218	83 c4 14	 add	 esp, 20			; 00000014H
; File D:\git\src\IBK\IBK_DRFN\ProjSrc\SrcChartEx\ChartAddIn\ChartDesignPropertyAddIn\ChartDesignPropertyAddIn\DataOfChartListPage.cpp

; 149  : 	strValue += pItem->m_strDateScaleCompart + ";"; //

  0021b	8d 45 0c	 lea	 eax, DWORD PTR $T10[ebp]
  0021e	8b cf		 mov	 ecx, edi
  00220	50		 push	 eax
  00221	ff 15 00 00 00
	00		 call	 DWORD PTR __imp_??Y?$CStringT@DV?$StrTraitMFC_DLL@DV?$ChTraitsCRT@D@ATL@@@@@ATL@@QAEAAV01@ABV?$CSimpleStringT@D$00@1@@Z
  00227	8d 4d 0c	 lea	 ecx, DWORD PTR $T10[ebp]
  0022a	ff 15 00 00 00
	00		 call	 DWORD PTR __imp_??1?$CStringT@DV?$StrTraitMFC_DLL@DV?$ChTraitsCRT@D@ATL@@@@@ATL@@QAE@XZ
; File C:\Program Files (x86)\Microsoft Visual Studio\2019\Community\VC\Tools\MSVC\14.29.30133\atlmfc\include\cstringt.h

; 2401 : 		CStringT strResult( str1.GetManager() );

  00230	8d 4b 3c	 lea	 ecx, DWORD PTR [ebx+60]
; File D:\git\src\IBK\IBK_DRFN\ProjSrc\SrcChartEx\ChartAddIn\ChartDesignPropertyAddIn\ChartDesignPropertyAddIn\DataOfChartListPage.cpp

; 150  : 	strValue += pItem->m_strTimeScaleCompart + ";"; //

  00233	c6 45 fc 08	 mov	 BYTE PTR __$EHRec$[ebp+8], 8
; File C:\Program Files (x86)\Microsoft Visual Studio\2019\Community\VC\Tools\MSVC\14.29.30133\atlmfc\include\cstringt.h

; 2401 : 		CStringT strResult( str1.GetManager() );

  00237	ff 15 00 00 00
	00		 call	 DWORD PTR __imp_?GetManager@?$CStringT@DV?$StrTraitMFC_DLL@DV?$ChTraitsCRT@D@ATL@@@@@ATL@@QBEPAUIAtlStringMgr@2@XZ
  0023d	50		 push	 eax
  0023e	8d 4d 0c	 lea	 ecx, DWORD PTR $T9[ebp]
  00241	ff 15 00 00 00
	00		 call	 DWORD PTR __imp_??0?$CStringT@DV?$StrTraitMFC_DLL@DV?$ChTraitsCRT@D@ATL@@@@@ATL@@QAE@PAUIAtlStringMgr@1@@Z
; File C:\Program Files (x86)\Microsoft Visual Studio\2019\Community\VC\Tools\MSVC\14.29.30133\atlmfc\include\atlsimpstr.h

; 519  : 		return( GetData()->nDataLength );

  00247	8b 43 3c	 mov	 eax, DWORD PTR [ebx+60]
; File C:\Program Files (x86)\Microsoft Visual Studio\2019\Community\VC\Tools\MSVC\14.29.30133\atlmfc\include\cstringt.h

; 2403 : 		CThisSimpleString::Concatenate( strResult, str1, str1.GetLength(), psz2, CThisSimpleString::StringLength( psz2 ) );

  0024a	6a 01		 push	 1
  0024c	68 00 00 00 00	 push	 OFFSET ??_C@_01ICJEACDI@?$DL@

; 2404 : 
; 2405 : 		return( strResult );

  00251	c7 45 f0 21 00
	00 00		 mov	 DWORD PTR $T6[ebp], 33	; 00000021H
  00258	ff 70 f4	 push	 DWORD PTR [eax-12]
  0025b	50		 push	 eax
  0025c	8d 45 0c	 lea	 eax, DWORD PTR $T9[ebp]
  0025f	50		 push	 eax
  00260	ff 15 00 00 00
	00		 call	 DWORD PTR __imp_?Concatenate@?$CSimpleStringT@D$00@ATL@@KAXAAV12@PBDH1H@Z
  00266	83 c4 14	 add	 esp, 20			; 00000014H
; File D:\git\src\IBK\IBK_DRFN\ProjSrc\SrcChartEx\ChartAddIn\ChartDesignPropertyAddIn\ChartDesignPropertyAddIn\DataOfChartListPage.cpp

; 150  : 	strValue += pItem->m_strTimeScaleCompart + ";"; //

  00269	8d 45 0c	 lea	 eax, DWORD PTR $T9[ebp]
  0026c	8b cf		 mov	 ecx, edi
  0026e	50		 push	 eax
  0026f	ff 15 00 00 00
	00		 call	 DWORD PTR __imp_??Y?$CStringT@DV?$StrTraitMFC_DLL@DV?$ChTraitsCRT@D@ATL@@@@@ATL@@QAEAAV01@ABV?$CSimpleStringT@D$00@1@@Z
  00275	8d 4d 0c	 lea	 ecx, DWORD PTR $T9[ebp]
  00278	c7 45 f0 01 00
	00 00		 mov	 DWORD PTR $T6[ebp], 1
  0027f	c6 45 fc 01	 mov	 BYTE PTR __$EHRec$[ebp+8], 1
  00283	ff 15 00 00 00
	00		 call	 DWORD PTR __imp_??1?$CStringT@DV?$StrTraitMFC_DLL@DV?$ChTraitsCRT@D@ATL@@@@@ATL@@QAE@XZ

; 151  : 	strValue += CDataConversion::IntToString(pItem->m_nHorizonStyle) + ";"; //,  

  00289	ff 73 44	 push	 DWORD PTR [ebx+68]
  0028c	8d 45 e8	 lea	 eax, DWORD PTR $T3[ebp]
  0028f	50		 push	 eax
  00290	e8 00 00 00 00	 call	 ?IntToString@CDataConversion@@SA?AV?$CStringT@DV?$StrTraitMFC_DLL@DV?$ChTraitsCRT@D@ATL@@@@@ATL@@H@Z ; CDataConversion::IntToString
  00295	83 c4 08	 add	 esp, 8
  00298	8b f0		 mov	 esi, eax
; File C:\Program Files (x86)\Microsoft Visual Studio\2019\Community\VC\Tools\MSVC\14.29.30133\atlmfc\include\cstringt.h

; 2401 : 		CStringT strResult( str1.GetManager() );

  0029a	8b ce		 mov	 ecx, esi
; File D:\git\src\IBK\IBK_DRFN\ProjSrc\SrcChartEx\ChartAddIn\ChartDesignPropertyAddIn\ChartDesignPropertyAddIn\DataOfChartListPage.cpp

; 151  : 	strValue += CDataConversion::IntToString(pItem->m_nHorizonStyle) + ";"; //,  

  0029c	c6 45 fc 0a	 mov	 BYTE PTR __$EHRec$[ebp+8], 10 ; 0000000aH
; File C:\Program Files (x86)\Microsoft Visual Studio\2019\Community\VC\Tools\MSVC\14.29.30133\atlmfc\include\cstringt.h

; 2401 : 		CStringT strResult( str1.GetManager() );

  002a0	ff 15 00 00 00
	00		 call	 DWORD PTR __imp_?GetManager@?$CStringT@DV?$StrTraitMFC_DLL@DV?$ChTraitsCRT@D@ATL@@@@@ATL@@QBEPAUIAtlStringMgr@2@XZ
  002a6	50		 push	 eax
  002a7	8d 4d 0c	 lea	 ecx, DWORD PTR $T8[ebp]
  002aa	ff 15 00 00 00
	00		 call	 DWORD PTR __imp_??0?$CStringT@DV?$StrTraitMFC_DLL@DV?$ChTraitsCRT@D@ATL@@@@@ATL@@QAE@PAUIAtlStringMgr@1@@Z
; File C:\Program Files (x86)\Microsoft Visual Studio\2019\Community\VC\Tools\MSVC\14.29.30133\atlmfc\include\atlsimpstr.h

; 519  : 		return( GetData()->nDataLength );

  002b0	8b 06		 mov	 eax, DWORD PTR [esi]
; File C:\Program Files (x86)\Microsoft Visual Studio\2019\Community\VC\Tools\MSVC\14.29.30133\atlmfc\include\cstringt.h

; 2403 : 		CThisSimpleString::Concatenate( strResult, str1, str1.GetLength(), psz2, CThisSimpleString::StringLength( psz2 ) );

  002b2	6a 01		 push	 1
  002b4	68 00 00 00 00	 push	 OFFSET ??_C@_01ICJEACDI@?$DL@

; 2404 : 
; 2405 : 		return( strResult );

  002b9	c7 45 f0 41 00
	00 00		 mov	 DWORD PTR $T6[ebp], 65	; 00000041H
  002c0	ff 70 f4	 push	 DWORD PTR [eax-12]
  002c3	50		 push	 eax
  002c4	8d 45 0c	 lea	 eax, DWORD PTR $T8[ebp]
  002c7	50		 push	 eax
  002c8	ff 15 00 00 00
	00		 call	 DWORD PTR __imp_?Concatenate@?$CSimpleStringT@D$00@ATL@@KAXAAV12@PBDH1H@Z

; 2403 : 		CThisSimpleString::Concatenate( strResult, str1, str1.GetLength(), psz2, CThisSimpleString::StringLength( psz2 ) );

  002ce	83 c4 14	 add	 esp, 20			; 00000014H
; File D:\git\src\IBK\IBK_DRFN\ProjSrc\SrcChartEx\ChartAddIn\ChartDesignPropertyAddIn\ChartDesignPropertyAddIn\DataOfChartListPage.cpp

; 151  : 	strValue += CDataConversion::IntToString(pItem->m_nHorizonStyle) + ";"; //,  

  002d1	8d 45 0c	 lea	 eax, DWORD PTR $T8[ebp]
  002d4	8b cf		 mov	 ecx, edi
  002d6	50		 push	 eax
  002d7	ff 15 00 00 00
	00		 call	 DWORD PTR __imp_??Y?$CStringT@DV?$StrTraitMFC_DLL@DV?$ChTraitsCRT@D@ATL@@@@@ATL@@QAEAAV01@ABV?$CSimpleStringT@D$00@1@@Z
  002dd	8d 4d 0c	 lea	 ecx, DWORD PTR $T8[ebp]
  002e0	c7 45 f0 01 00
	00 00		 mov	 DWORD PTR $T6[ebp], 1
  002e7	ff 15 00 00 00
	00		 call	 DWORD PTR __imp_??1?$CStringT@DV?$StrTraitMFC_DLL@DV?$ChTraitsCRT@D@ATL@@@@@ATL@@QAE@XZ
  002ed	8d 4d e8	 lea	 ecx, DWORD PTR $T3[ebp]
  002f0	c6 45 fc 01	 mov	 BYTE PTR __$EHRec$[ebp+8], 1
  002f4	ff 15 00 00 00
	00		 call	 DWORD PTR __imp_??1?$CStringT@DV?$StrTraitMFC_DLL@DV?$ChTraitsCRT@D@ATL@@@@@ATL@@QAE@XZ

; 152  : 	strValue += CDataConversion::IntToString(pItem->m_nLog) + ";"; //log

  002fa	ff 73 4c	 push	 DWORD PTR [ebx+76]
  002fd	8d 45 e8	 lea	 eax, DWORD PTR $T2[ebp]
  00300	50		 push	 eax
  00301	e8 00 00 00 00	 call	 ?IntToString@CDataConversion@@SA?AV?$CStringT@DV?$StrTraitMFC_DLL@DV?$ChTraitsCRT@D@ATL@@@@@ATL@@H@Z ; CDataConversion::IntToString
  00306	83 c4 08	 add	 esp, 8
  00309	8b f0		 mov	 esi, eax
; File C:\Program Files (x86)\Microsoft Visual Studio\2019\Community\VC\Tools\MSVC\14.29.30133\atlmfc\include\cstringt.h

; 2401 : 		CStringT strResult( str1.GetManager() );

  0030b	8b ce		 mov	 ecx, esi
; File D:\git\src\IBK\IBK_DRFN\ProjSrc\SrcChartEx\ChartAddIn\ChartDesignPropertyAddIn\ChartDesignPropertyAddIn\DataOfChartListPage.cpp

; 152  : 	strValue += CDataConversion::IntToString(pItem->m_nLog) + ";"; //log

  0030d	c6 45 fc 0c	 mov	 BYTE PTR __$EHRec$[ebp+8], 12 ; 0000000cH
; File C:\Program Files (x86)\Microsoft Visual Studio\2019\Community\VC\Tools\MSVC\14.29.30133\atlmfc\include\cstringt.h

; 2401 : 		CStringT strResult( str1.GetManager() );

  00311	ff 15 00 00 00
	00		 call	 DWORD PTR __imp_?GetManager@?$CStringT@DV?$StrTraitMFC_DLL@DV?$ChTraitsCRT@D@ATL@@@@@ATL@@QBEPAUIAtlStringMgr@2@XZ
  00317	50		 push	 eax
  00318	8d 4d 0c	 lea	 ecx, DWORD PTR $T7[ebp]
  0031b	ff 15 00 00 00
	00		 call	 DWORD PTR __imp_??0?$CStringT@DV?$StrTraitMFC_DLL@DV?$ChTraitsCRT@D@ATL@@@@@ATL@@QAE@PAUIAtlStringMgr@1@@Z
; File C:\Program Files (x86)\Microsoft Visual Studio\2019\Community\VC\Tools\MSVC\14.29.30133\atlmfc\include\atlsimpstr.h

; 519  : 		return( GetData()->nDataLength );

  00321	8b 06		 mov	 eax, DWORD PTR [esi]
; File C:\Program Files (x86)\Microsoft Visual Studio\2019\Community\VC\Tools\MSVC\14.29.30133\atlmfc\include\cstringt.h

; 2403 : 		CThisSimpleString::Concatenate( strResult, str1, str1.GetLength(), psz2, CThisSimpleString::StringLength( psz2 ) );

  00323	6a 01		 push	 1
  00325	68 00 00 00 00	 push	 OFFSET ??_C@_01ICJEACDI@?$DL@

; 2404 : 
; 2405 : 		return( strResult );

  0032a	c7 45 f0 81 00
	00 00		 mov	 DWORD PTR $T6[ebp], 129	; 00000081H
  00331	ff 70 f4	 push	 DWORD PTR [eax-12]
  00334	50		 push	 eax
  00335	8d 45 0c	 lea	 eax, DWORD PTR $T7[ebp]
  00338	50		 push	 eax
  00339	ff 15 00 00 00
	00		 call	 DWORD PTR __imp_?Concatenate@?$CSimpleStringT@D$00@ATL@@KAXAAV12@PBDH1H@Z
  0033f	83 c4 14	 add	 esp, 20			; 00000014H
; File D:\git\src\IBK\IBK_DRFN\ProjSrc\SrcChartEx\ChartAddIn\ChartDesignPropertyAddIn\ChartDesignPropertyAddIn\DataOfChartListPage.cpp

; 152  : 	strValue += CDataConversion::IntToString(pItem->m_nLog) + ";"; //log

  00342	8d 45 0c	 lea	 eax, DWORD PTR $T7[ebp]
  00345	8b cf		 mov	 ecx, edi
  00347	50		 push	 eax
  00348	ff 15 00 00 00
	00		 call	 DWORD PTR __imp_??Y?$CStringT@DV?$StrTraitMFC_DLL@DV?$ChTraitsCRT@D@ATL@@@@@ATL@@QAEAAV01@ABV?$CSimpleStringT@D$00@1@@Z
  0034e	8d 4d 0c	 lea	 ecx, DWORD PTR $T7[ebp]
  00351	c7 45 f0 01 00
	00 00		 mov	 DWORD PTR $T6[ebp], 1
  00358	ff 15 00 00 00
	00		 call	 DWORD PTR __imp_??1?$CStringT@DV?$StrTraitMFC_DLL@DV?$ChTraitsCRT@D@ATL@@@@@ATL@@QAE@XZ
  0035e	8d 4d e8	 lea	 ecx, DWORD PTR $T2[ebp]
  00361	c6 45 fc 01	 mov	 BYTE PTR __$EHRec$[ebp+8], 1
  00365	ff 15 00 00 00
	00		 call	 DWORD PTR __imp_??1?$CStringT@DV?$StrTraitMFC_DLL@DV?$ChTraitsCRT@D@ATL@@@@@ATL@@QAE@XZ

; 153  : 	strValue += "0;";	// (2008/2/26 - Seung-Won, Bae) Block Reverse. Not used any more.

  0036b	68 00 00 00 00	 push	 OFFSET ??_C@_02BIGHCMEF@0?$DL@
  00370	8b cf		 mov	 ecx, edi
  00372	ff 15 00 00 00
	00		 call	 DWORD PTR __imp_??Y?$CStringT@DV?$StrTraitMFC_DLL@DV?$ChTraitsCRT@D@ATL@@@@@ATL@@QAEAAV01@PBD@Z

; 154  : 
; 155  : 	// (2006/10/25 - Seung-Won, Bae) Do not make Double Size Block Data to use the RDB(Row Double Size Index).
; 156  : 	//		And Do not used Double Size Block Flag.
; 157  : 
; 158  : 	strValue += "\r\n";

  00378	68 00 00 00 00	 push	 OFFSET ??_C@_02PCIJFNDE@?$AN?6@
  0037d	8b cf		 mov	 ecx, edi
  0037f	ff 15 00 00 00
	00		 call	 DWORD PTR __imp_??Y?$CStringT@DV?$StrTraitMFC_DLL@DV?$ChTraitsCRT@D@ATL@@@@@ATL@@QAEAAV01@PBD@Z

; 159  : 	return strValue;

  00385	8d 4d ec	 lea	 ecx, DWORD PTR _strScaleStyle$[ebp]
  00388	ff 15 00 00 00
	00		 call	 DWORD PTR __imp_??1?$CStringT@DV?$StrTraitMFC_DLL@DV?$ChTraitsCRT@D@ATL@@@@@ATL@@QAE@XZ
  0038e	8b c7		 mov	 eax, edi

; 160  : }

  00390	8b 4d f4	 mov	 ecx, DWORD PTR __$EHRec$[ebp]
  00393	64 89 0d 00 00
	00 00		 mov	 DWORD PTR fs:0, ecx
  0039a	59		 pop	 ecx
  0039b	5f		 pop	 edi
  0039c	5e		 pop	 esi
  0039d	5b		 pop	 ebx
  0039e	8b e5		 mov	 esp, ebp
  003a0	5d		 pop	 ebp
  003a1	c2 08 00	 ret	 8
_TEXT	ENDS
;	COMDAT text$x
text$x	SEGMENT
__unwindfunclet$?GetBlockAllData@CDataOfChartListPage@@AAE?AV?$CStringT@DV?$StrTraitMFC_DLL@DV?$ChTraitsCRT@D@ATL@@@@@ATL@@PAVCChartLink@@@Z$0:
  00000	8b 45 f0	 mov	 eax, DWORD PTR $T6[ebp]
  00003	83 e0 01	 and	 eax, 1
  00006	0f 84 0d 00 00
	00		 je	 $LN5@GetBlockAl
  0000c	83 65 f0 fe	 and	 DWORD PTR $T6[ebp], -2	; fffffffeH
  00010	8b 4d 08	 mov	 ecx, DWORD PTR ___$ReturnUdt$[ebp]
  00013	ff 25 00 00 00
	00		 jmp	 DWORD PTR __imp_??1?$CStringT@DV?$StrTraitMFC_DLL@DV?$ChTraitsCRT@D@ATL@@@@@ATL@@QAE@XZ
$LN5@GetBlockAl:
  00019	c3		 ret	 0
__unwindfunclet$?GetBlockAllData@CDataOfChartListPage@@AAE?AV?$CStringT@DV?$StrTraitMFC_DLL@DV?$ChTraitsCRT@D@ATL@@@@@ATL@@PAVCChartLink@@@Z$1:
  0001a	8d 4d ec	 lea	 ecx, DWORD PTR _strScaleStyle$[ebp]
  0001d	ff 25 00 00 00
	00		 jmp	 DWORD PTR __imp_??1?$CStringT@DV?$StrTraitMFC_DLL@DV?$ChTraitsCRT@D@ATL@@@@@ATL@@QAE@XZ
__unwindfunclet$?GetBlockAllData@CDataOfChartListPage@@AAE?AV?$CStringT@DV?$StrTraitMFC_DLL@DV?$ChTraitsCRT@D@ATL@@@@@ATL@@PAVCChartLink@@@Z$13:
  00023	8b 45 f0	 mov	 eax, DWORD PTR $T6[ebp]
  00026	83 e0 02	 and	 eax, 2
  00029	0f 84 0d 00 00
	00		 je	 $LN31@GetBlockAl
  0002f	83 65 f0 fd	 and	 DWORD PTR $T6[ebp], -3	; fffffffdH
  00033	8d 4d 0c	 lea	 ecx, DWORD PTR $T13[ebp]
  00036	ff 25 00 00 00
	00		 jmp	 DWORD PTR __imp_??1?$CStringT@DV?$StrTraitMFC_DLL@DV?$ChTraitsCRT@D@ATL@@@@@ATL@@QAE@XZ
$LN31@GetBlockAl:
  0003c	c3		 ret	 0
__unwindfunclet$?GetBlockAllData@CDataOfChartListPage@@AAE?AV?$CStringT@DV?$StrTraitMFC_DLL@DV?$ChTraitsCRT@D@ATL@@@@@ATL@@PAVCChartLink@@@Z$3:
  0003d	8d 4d e8	 lea	 ecx, DWORD PTR $T5[ebp]
  00040	ff 25 00 00 00
	00		 jmp	 DWORD PTR __imp_??1?$CStringT@DV?$StrTraitMFC_DLL@DV?$ChTraitsCRT@D@ATL@@@@@ATL@@QAE@XZ
__unwindfunclet$?GetBlockAllData@CDataOfChartListPage@@AAE?AV?$CStringT@DV?$StrTraitMFC_DLL@DV?$ChTraitsCRT@D@ATL@@@@@ATL@@PAVCChartLink@@@Z$14:
  00046	8b 45 f0	 mov	 eax, DWORD PTR $T6[ebp]
  00049	83 e0 04	 and	 eax, 4
  0004c	0f 84 0d 00 00
	00		 je	 $LN44@GetBlockAl
  00052	83 65 f0 fb	 and	 DWORD PTR $T6[ebp], -5	; fffffffbH
  00056	8d 4d 0c	 lea	 ecx, DWORD PTR $T12[ebp]
  00059	ff 25 00 00 00
	00		 jmp	 DWORD PTR __imp_??1?$CStringT@DV?$StrTraitMFC_DLL@DV?$ChTraitsCRT@D@ATL@@@@@ATL@@QAE@XZ
$LN44@GetBlockAl:
  0005f	c3		 ret	 0
__unwindfunclet$?GetBlockAllData@CDataOfChartListPage@@AAE?AV?$CStringT@DV?$StrTraitMFC_DLL@DV?$ChTraitsCRT@D@ATL@@@@@ATL@@PAVCChartLink@@@Z$5:
  00060	8d 4d e8	 lea	 ecx, DWORD PTR $T4[ebp]
  00063	ff 25 00 00 00
	00		 jmp	 DWORD PTR __imp_??1?$CStringT@DV?$StrTraitMFC_DLL@DV?$ChTraitsCRT@D@ATL@@@@@ATL@@QAE@XZ
__unwindfunclet$?GetBlockAllData@CDataOfChartListPage@@AAE?AV?$CStringT@DV?$StrTraitMFC_DLL@DV?$ChTraitsCRT@D@ATL@@@@@ATL@@PAVCChartLink@@@Z$15:
  00069	8b 45 f0	 mov	 eax, DWORD PTR $T6[ebp]
  0006c	83 e0 08	 and	 eax, 8
  0006f	0f 84 0d 00 00
	00		 je	 $LN57@GetBlockAl
  00075	83 65 f0 f7	 and	 DWORD PTR $T6[ebp], -9	; fffffff7H
  00079	8d 4d 0c	 lea	 ecx, DWORD PTR $T11[ebp]
  0007c	ff 25 00 00 00
	00		 jmp	 DWORD PTR __imp_??1?$CStringT@DV?$StrTraitMFC_DLL@DV?$ChTraitsCRT@D@ATL@@@@@ATL@@QAE@XZ
$LN57@GetBlockAl:
  00082	c3		 ret	 0
__unwindfunclet$?GetBlockAllData@CDataOfChartListPage@@AAE?AV?$CStringT@DV?$StrTraitMFC_DLL@DV?$ChTraitsCRT@D@ATL@@@@@ATL@@PAVCChartLink@@@Z$16:
  00083	8b 45 f0	 mov	 eax, DWORD PTR $T6[ebp]
  00086	83 e0 10	 and	 eax, 16			; 00000010H
  00089	0f 84 0d 00 00
	00		 je	 $LN70@GetBlockAl
  0008f	83 65 f0 ef	 and	 DWORD PTR $T6[ebp], -17	; ffffffefH
  00093	8d 4d 0c	 lea	 ecx, DWORD PTR $T10[ebp]
  00096	ff 25 00 00 00
	00		 jmp	 DWORD PTR __imp_??1?$CStringT@DV?$StrTraitMFC_DLL@DV?$ChTraitsCRT@D@ATL@@@@@ATL@@QAE@XZ
$LN70@GetBlockAl:
  0009c	c3		 ret	 0
__unwindfunclet$?GetBlockAllData@CDataOfChartListPage@@AAE?AV?$CStringT@DV?$StrTraitMFC_DLL@DV?$ChTraitsCRT@D@ATL@@@@@ATL@@PAVCChartLink@@@Z$17:
  0009d	8b 45 f0	 mov	 eax, DWORD PTR $T6[ebp]
  000a0	83 e0 20	 and	 eax, 32			; 00000020H
  000a3	0f 84 0d 00 00
	00		 je	 $LN83@GetBlockAl
  000a9	83 65 f0 df	 and	 DWORD PTR $T6[ebp], -33	; ffffffdfH
  000ad	8d 4d 0c	 lea	 ecx, DWORD PTR $T9[ebp]
  000b0	ff 25 00 00 00
	00		 jmp	 DWORD PTR __imp_??1?$CStringT@DV?$StrTraitMFC_DLL@DV?$ChTraitsCRT@D@ATL@@@@@ATL@@QAE@XZ
$LN83@GetBlockAl:
  000b6	c3		 ret	 0
__unwindfunclet$?GetBlockAllData@CDataOfChartListPage@@AAE?AV?$CStringT@DV?$StrTraitMFC_DLL@DV?$ChTraitsCRT@D@ATL@@@@@ATL@@PAVCChartLink@@@Z$9:
  000b7	8d 4d e8	 lea	 ecx, DWORD PTR $T3[ebp]
  000ba	ff 25 00 00 00
	00		 jmp	 DWORD PTR __imp_??1?$CStringT@DV?$StrTraitMFC_DLL@DV?$ChTraitsCRT@D@ATL@@@@@ATL@@QAE@XZ
__unwindfunclet$?GetBlockAllData@CDataOfChartListPage@@AAE?AV?$CStringT@DV?$StrTraitMFC_DLL@DV?$ChTraitsCRT@D@ATL@@@@@ATL@@PAVCChartLink@@@Z$18:
  000c0	8b 45 f0	 mov	 eax, DWORD PTR $T6[ebp]
  000c3	83 e0 40	 and	 eax, 64			; 00000040H
  000c6	0f 84 0d 00 00
	00		 je	 $LN96@GetBlockAl
  000cc	83 65 f0 bf	 and	 DWORD PTR $T6[ebp], -65	; ffffffbfH
  000d0	8d 4d 0c	 lea	 ecx, DWORD PTR $T8[ebp]
  000d3	ff 25 00 00 00
	00		 jmp	 DWORD PTR __imp_??1?$CStringT@DV?$StrTraitMFC_DLL@DV?$ChTraitsCRT@D@ATL@@@@@ATL@@QAE@XZ
$LN96@GetBlockAl:
  000d9	c3		 ret	 0
__unwindfunclet$?GetBlockAllData@CDataOfChartListPage@@AAE?AV?$CStringT@DV?$StrTraitMFC_DLL@DV?$ChTraitsCRT@D@ATL@@@@@ATL@@PAVCChartLink@@@Z$11:
  000da	8d 4d e8	 lea	 ecx, DWORD PTR $T2[ebp]
  000dd	ff 25 00 00 00
	00		 jmp	 DWORD PTR __imp_??1?$CStringT@DV?$StrTraitMFC_DLL@DV?$ChTraitsCRT@D@ATL@@@@@ATL@@QAE@XZ
__unwindfunclet$?GetBlockAllData@CDataOfChartListPage@@AAE?AV?$CStringT@DV?$StrTraitMFC_DLL@DV?$ChTraitsCRT@D@ATL@@@@@ATL@@PAVCChartLink@@@Z$19:
  000e3	8b 45 f0	 mov	 eax, DWORD PTR $T6[ebp]
  000e6	25 80 00 00 00	 and	 eax, 128		; 00000080H
  000eb	0f 84 10 00 00
	00		 je	 $LN109@GetBlockAl
  000f1	81 65 f0 7f ff
	ff ff		 and	 DWORD PTR $T6[ebp], -129 ; ffffff7fH
  000f8	8d 4d 0c	 lea	 ecx, DWORD PTR $T7[ebp]
  000fb	ff 25 00 00 00
	00		 jmp	 DWORD PTR __imp_??1?$CStringT@DV?$StrTraitMFC_DLL@DV?$ChTraitsCRT@D@ATL@@@@@ATL@@QAE@XZ
$LN109@GetBlockAl:
  00101	c3		 ret	 0
  00102	cc		 int	 3
  00103	cc		 int	 3
  00104	cc		 int	 3
  00105	cc		 int	 3
  00106	cc		 int	 3
__ehhandler$?GetBlockAllData@CDataOfChartListPage@@AAE?AV?$CStringT@DV?$StrTraitMFC_DLL@DV?$ChTraitsCRT@D@ATL@@@@@ATL@@PAVCChartLink@@@Z:
  00107	90		 npad	 1
  00108	90		 npad	 1
  00109	8b 54 24 08	 mov	 edx, DWORD PTR [esp+8]
  0010d	8d 42 0c	 lea	 eax, DWORD PTR [edx+12]
  00110	8b 4a e4	 mov	 ecx, DWORD PTR [edx-28]
  00113	33 c8		 xor	 ecx, eax
  00115	e8 00 00 00 00	 call	 @__security_check_cookie@4
  0011a	b8 00 00 00 00	 mov	 eax, OFFSET __ehfuncinfo$?GetBlockAllData@CDataOfChartListPage@@AAE?AV?$CStringT@DV?$StrTraitMFC_DLL@DV?$ChTraitsCRT@D@ATL@@@@@ATL@@PAVCChartLink@@@Z
  0011f	e9 00 00 00 00	 jmp	 ___CxxFrameHandler3
text$x	ENDS
?GetBlockAllData@CDataOfChartListPage@@AAE?AV?$CStringT@DV?$StrTraitMFC_DLL@DV?$ChTraitsCRT@D@ATL@@@@@ATL@@PAVCChartLink@@@Z ENDP ; CDataOfChartListPage::GetBlockAllData
; Function compile flags: /Ogtp
; File D:\git\src\IBK\IBK_DRFN\ProjSrc\SrcChartEx\ChartAddIn\ChartDesignPropertyAddIn\ChartDesignPropertyAddIn\DataOfChartListPage.cpp
; File C:\Program Files (x86)\Microsoft Visual Studio\2019\Community\VC\Tools\MSVC\14.29.30133\atlmfc\include\cstringt.h
; File D:\git\src\IBK\IBK_DRFN\ProjSrc\SrcChartEx\ChartAddIn\ChartDesignPropertyAddIn\ChartDesignPropertyAddIn\DataOfChartListPage.cpp
; File C:\Program Files (x86)\Microsoft Visual Studio\2019\Community\VC\Tools\MSVC\14.29.30133\atlmfc\include\cstringt.h
; File C:\Program Files (x86)\Microsoft Visual Studio\2019\Community\VC\Tools\MSVC\14.29.30133\atlmfc\include\atlsimpstr.h
; File C:\Program Files (x86)\Microsoft Visual Studio\2019\Community\VC\Tools\MSVC\14.29.30133\atlmfc\include\cstringt.h
; File D:\git\src\IBK\IBK_DRFN\ProjSrc\SrcChartEx\ChartAddIn\ChartDesignPropertyAddIn\ChartDesignPropertyAddIn\DataOfChartListPage.cpp
; File C:\Program Files (x86)\Microsoft Visual Studio\2019\Community\VC\Tools\MSVC\14.29.30133\atlmfc\include\cstringt.h
; File D:\git\src\IBK\IBK_DRFN\ProjSrc\SrcChartEx\ChartAddIn\ChartDesignPropertyAddIn\ChartDesignPropertyAddIn\DataOfChartListPage.cpp
; File C:\Program Files (x86)\Microsoft Visual Studio\2019\Community\VC\Tools\MSVC\14.29.30133\atlmfc\include\cstringt.h
; File C:\Program Files (x86)\Microsoft Visual Studio\2019\Community\VC\Tools\MSVC\14.29.30133\atlmfc\include\atlsimpstr.h
; File C:\Program Files (x86)\Microsoft Visual Studio\2019\Community\VC\Tools\MSVC\14.29.30133\atlmfc\include\cstringt.h
; File D:\git\src\IBK\IBK_DRFN\ProjSrc\SrcChartEx\ChartAddIn\ChartDesignPropertyAddIn\ChartDesignPropertyAddIn\DataOfChartListPage.cpp
; File C:\Program Files (x86)\Microsoft Visual Studio\2019\Community\VC\Tools\MSVC\14.29.30133\atlmfc\include\cstringt.h
; File D:\git\src\IBK\IBK_DRFN\ProjSrc\SrcChartEx\ChartAddIn\ChartDesignPropertyAddIn\ChartDesignPropertyAddIn\DataOfChartListPage.cpp
; File C:\Program Files (x86)\Microsoft Visual Studio\2019\Community\VC\Tools\MSVC\14.29.30133\atlmfc\include\cstringt.h
; File C:\Program Files (x86)\Microsoft Visual Studio\2019\Community\VC\Tools\MSVC\14.29.30133\atlmfc\include\atlsimpstr.h
; File C:\Program Files (x86)\Microsoft Visual Studio\2019\Community\VC\Tools\MSVC\14.29.30133\atlmfc\include\cstringt.h
; File D:\git\src\IBK\IBK_DRFN\ProjSrc\SrcChartEx\ChartAddIn\ChartDesignPropertyAddIn\ChartDesignPropertyAddIn\DataOfChartListPage.cpp
; File C:\Program Files (x86)\Microsoft Visual Studio\2019\Community\VC\Tools\MSVC\14.29.30133\atlmfc\include\cstringt.h
; File D:\git\src\IBK\IBK_DRFN\ProjSrc\SrcChartEx\ChartAddIn\ChartDesignPropertyAddIn\ChartDesignPropertyAddIn\DataOfChartListPage.cpp
; File C:\Program Files (x86)\Microsoft Visual Studio\2019\Community\VC\Tools\MSVC\14.29.30133\atlmfc\include\cstringt.h
; File C:\Program Files (x86)\Microsoft Visual Studio\2019\Community\VC\Tools\MSVC\14.29.30133\atlmfc\include\atlsimpstr.h
; File C:\Program Files (x86)\Microsoft Visual Studio\2019\Community\VC\Tools\MSVC\14.29.30133\atlmfc\include\cstringt.h
; File D:\git\src\IBK\IBK_DRFN\ProjSrc\SrcChartEx\ChartAddIn\ChartDesignPropertyAddIn\ChartDesignPropertyAddIn\DataOfChartListPage.cpp
; File C:\Program Files (x86)\Microsoft Visual Studio\2019\Community\VC\Tools\MSVC\14.29.30133\atlmfc\include\cstringt.h
; File D:\git\src\IBK\IBK_DRFN\ProjSrc\SrcChartEx\ChartAddIn\ChartDesignPropertyAddIn\ChartDesignPropertyAddIn\DataOfChartListPage.cpp
; File C:\Program Files (x86)\Microsoft Visual Studio\2019\Community\VC\Tools\MSVC\14.29.30133\atlmfc\include\cstringt.h
; File C:\Program Files (x86)\Microsoft Visual Studio\2019\Community\VC\Tools\MSVC\14.29.30133\atlmfc\include\atlsimpstr.h
; File C:\Program Files (x86)\Microsoft Visual Studio\2019\Community\VC\Tools\MSVC\14.29.30133\atlmfc\include\cstringt.h
; File D:\git\src\IBK\IBK_DRFN\ProjSrc\SrcChartEx\ChartAddIn\ChartDesignPropertyAddIn\ChartDesignPropertyAddIn\DataOfChartListPage.cpp
; File C:\Program Files (x86)\Microsoft Visual Studio\2019\Community\VC\Tools\MSVC\14.29.30133\atlmfc\include\cstringt.h
; File D:\git\src\IBK\IBK_DRFN\ProjSrc\SrcChartEx\ChartAddIn\ChartDesignPropertyAddIn\ChartDesignPropertyAddIn\DataOfChartListPage.cpp
; File C:\Program Files (x86)\Microsoft Visual Studio\2019\Community\VC\Tools\MSVC\14.29.30133\atlmfc\include\cstringt.h
; File C:\Program Files (x86)\Microsoft Visual Studio\2019\Community\VC\Tools\MSVC\14.29.30133\atlmfc\include\atlsimpstr.h
; File C:\Program Files (x86)\Microsoft Visual Studio\2019\Community\VC\Tools\MSVC\14.29.30133\atlmfc\include\cstringt.h
; File D:\git\src\IBK\IBK_DRFN\ProjSrc\SrcChartEx\ChartAddIn\ChartDesignPropertyAddIn\ChartDesignPropertyAddIn\DataOfChartListPage.cpp
; File C:\Program Files (x86)\Microsoft Visual Studio\2019\Community\VC\Tools\MSVC\14.29.30133\atlmfc\include\cstringt.h
; File C:\Program Files (x86)\Microsoft Visual Studio\2019\Community\VC\Tools\MSVC\14.29.30133\atlmfc\include\atlsimpstr.h
; File C:\Program Files (x86)\Microsoft Visual Studio\2019\Community\VC\Tools\MSVC\14.29.30133\atlmfc\include\cstringt.h
; File D:\git\src\IBK\IBK_DRFN\ProjSrc\SrcChartEx\ChartAddIn\ChartDesignPropertyAddIn\ChartDesignPropertyAddIn\DataOfChartListPage.cpp
; File C:\Program Files (x86)\Microsoft Visual Studio\2019\Community\VC\Tools\MSVC\14.29.30133\atlmfc\include\cstringt.h
; File D:\git\src\IBK\IBK_DRFN\ProjSrc\SrcChartEx\ChartAddIn\ChartDesignPropertyAddIn\ChartDesignPropertyAddIn\DataOfChartListPage.cpp
; File C:\Program Files (x86)\Microsoft Visual Studio\2019\Community\VC\Tools\MSVC\14.29.30133\atlmfc\include\cstringt.h
; File C:\Program Files (x86)\Microsoft Visual Studio\2019\Community\VC\Tools\MSVC\14.29.30133\atlmfc\include\atlsimpstr.h
; File C:\Program Files (x86)\Microsoft Visual Studio\2019\Community\VC\Tools\MSVC\14.29.30133\atlmfc\include\cstringt.h
; File D:\git\src\IBK\IBK_DRFN\ProjSrc\SrcChartEx\ChartAddIn\ChartDesignPropertyAddIn\ChartDesignPropertyAddIn\DataOfChartListPage.cpp
; File C:\Program Files (x86)\Microsoft Visual Studio\2019\Community\VC\Tools\MSVC\14.29.30133\atlmfc\include\cstringt.h
; File D:\git\src\IBK\IBK_DRFN\ProjSrc\SrcChartEx\ChartAddIn\ChartDesignPropertyAddIn\ChartDesignPropertyAddIn\DataOfChartListPage.cpp
; File C:\Program Files (x86)\Microsoft Visual Studio\2019\Community\VC\Tools\MSVC\14.29.30133\atlmfc\include\cstringt.h
; File C:\Program Files (x86)\Microsoft Visual Studio\2019\Community\VC\Tools\MSVC\14.29.30133\atlmfc\include\atlsimpstr.h
; File C:\Program Files (x86)\Microsoft Visual Studio\2019\Community\VC\Tools\MSVC\14.29.30133\atlmfc\include\cstringt.h
; File D:\git\src\IBK\IBK_DRFN\ProjSrc\SrcChartEx\ChartAddIn\ChartDesignPropertyAddIn\ChartDesignPropertyAddIn\DataOfChartListPage.cpp
; File C:\Program Files (x86)\Microsoft Visual Studio\2019\Community\VC\Tools\MSVC\14.29.30133\atlmfc\include\cstringt.h
; File D:\git\src\IBK\IBK_DRFN\ProjSrc\SrcChartEx\ChartAddIn\ChartDesignPropertyAddIn\ChartDesignPropertyAddIn\DataOfChartListPage.cpp
; File C:\Program Files (x86)\Microsoft Visual Studio\2019\Community\VC\Tools\MSVC\14.29.30133\atlmfc\include\cstringt.h
; File C:\Program Files (x86)\Microsoft Visual Studio\2019\Community\VC\Tools\MSVC\14.29.30133\atlmfc\include\atlsimpstr.h
; File C:\Program Files (x86)\Microsoft Visual Studio\2019\Community\VC\Tools\MSVC\14.29.30133\atlmfc\include\cstringt.h
; File D:\git\src\IBK\IBK_DRFN\ProjSrc\SrcChartEx\ChartAddIn\ChartDesignPropertyAddIn\ChartDesignPropertyAddIn\DataOfChartListPage.cpp
; File C:\Program Files (x86)\Microsoft Visual Studio\2019\Community\VC\Tools\MSVC\14.29.30133\atlmfc\include\cstringt.h
; File D:\git\src\IBK\IBK_DRFN\ProjSrc\SrcChartEx\ChartAddIn\ChartDesignPropertyAddIn\ChartDesignPropertyAddIn\DataOfChartListPage.cpp
; File C:\Program Files (x86)\Microsoft Visual Studio\2019\Community\VC\Tools\MSVC\14.29.30133\atlmfc\include\cstringt.h
; File C:\Program Files (x86)\Microsoft Visual Studio\2019\Community\VC\Tools\MSVC\14.29.30133\atlmfc\include\atlsimpstr.h
; File C:\Program Files (x86)\Microsoft Visual Studio\2019\Community\VC\Tools\MSVC\14.29.30133\atlmfc\include\cstringt.h
; File D:\git\src\IBK\IBK_DRFN\ProjSrc\SrcChartEx\ChartAddIn\ChartDesignPropertyAddIn\ChartDesignPropertyAddIn\DataOfChartListPage.cpp
; File C:\Program Files (x86)\Microsoft Visual Studio\2019\Community\VC\Tools\MSVC\14.29.30133\atlmfc\include\cstringt.h
; File D:\git\src\IBK\IBK_DRFN\ProjSrc\SrcChartEx\ChartAddIn\ChartDesignPropertyAddIn\ChartDesignPropertyAddIn\DataOfChartListPage.cpp
; File C:\Program Files (x86)\Microsoft Visual Studio\2019\Community\VC\Tools\MSVC\14.29.30133\atlmfc\include\cstringt.h
; File C:\Program Files (x86)\Microsoft Visual Studio\2019\Community\VC\Tools\MSVC\14.29.30133\atlmfc\include\atlsimpstr.h
; File C:\Program Files (x86)\Microsoft Visual Studio\2019\Community\VC\Tools\MSVC\14.29.30133\atlmfc\include\cstringt.h
; File D:\git\src\IBK\IBK_DRFN\ProjSrc\SrcChartEx\ChartAddIn\ChartDesignPropertyAddIn\ChartDesignPropertyAddIn\DataOfChartListPage.cpp
; File C:\Program Files (x86)\Microsoft Visual Studio\2019\Community\VC\Tools\MSVC\14.29.30133\atlmfc\include\cstringt.h
; File D:\git\src\IBK\IBK_DRFN\ProjSrc\SrcChartEx\ChartAddIn\ChartDesignPropertyAddIn\ChartDesignPropertyAddIn\DataOfChartListPage.cpp
; File C:\Program Files (x86)\Microsoft Visual Studio\2019\Community\VC\Tools\MSVC\14.29.30133\atlmfc\include\cstringt.h
; File C:\Program Files (x86)\Microsoft Visual Studio\2019\Community\VC\Tools\MSVC\14.29.30133\atlmfc\include\atlsimpstr.h
; File C:\Program Files (x86)\Microsoft Visual Studio\2019\Community\VC\Tools\MSVC\14.29.30133\atlmfc\include\cstringt.h
; File D:\git\src\IBK\IBK_DRFN\ProjSrc\SrcChartEx\ChartAddIn\ChartDesignPropertyAddIn\ChartDesignPropertyAddIn\DataOfChartListPage.cpp
; File C:\Program Files (x86)\Microsoft Visual Studio\2019\Community\VC\Tools\MSVC\14.29.30133\atlmfc\include\cstringt.h
; File D:\git\src\IBK\IBK_DRFN\ProjSrc\SrcChartEx\ChartAddIn\ChartDesignPropertyAddIn\ChartDesignPropertyAddIn\DataOfChartListPage.cpp
; File C:\Program Files (x86)\Microsoft Visual Studio\2019\Community\VC\Tools\MSVC\14.29.30133\atlmfc\include\cstringt.h
; File C:\Program Files (x86)\Microsoft Visual Studio\2019\Community\VC\Tools\MSVC\14.29.30133\atlmfc\include\atlsimpstr.h
; File C:\Program Files (x86)\Microsoft Visual Studio\2019\Community\VC\Tools\MSVC\14.29.30133\atlmfc\include\cstringt.h
; File D:\git\src\IBK\IBK_DRFN\ProjSrc\SrcChartEx\ChartAddIn\ChartDesignPropertyAddIn\ChartDesignPropertyAddIn\DataOfChartListPage.cpp
;	COMDAT ?GetVerticalAllData@CDataOfChartListPage@@AAE?AV?$CStringT@DV?$StrTraitMFC_DLL@DV?$ChTraitsCRT@D@ATL@@@@@ATL@@PAVCChartLink@@@Z
_TEXT	SEGMENT
$T2 = -28						; size = 4
$T3 = -24						; size = 4
$T4 = -24						; size = 4
$T5 = -24						; size = 4
$T6 = -24						; size = 4
$T7 = -24						; size = 4
$T8 = -24						; size = 4
$T9 = -24						; size = 4
$T10 = -24						; size = 4
$T11 = -24						; size = 4
$T12 = -24						; size = 4
$T13 = -24						; size = 4
$T14 = -24						; size = 4
$T15 = -24						; size = 4
$T16 = -24						; size = 4
$T17 = -20						; size = 4
$T18 = -16						; size = 4
__$EHRec$ = -12						; size = 12
___$ReturnUdt$ = 8					; size = 4
$T19 = 12						; size = 4
$T20 = 12						; size = 4
$T21 = 12						; size = 4
$T22 = 12						; size = 4
$T23 = 12						; size = 4
$T24 = 12						; size = 4
$T25 = 12						; size = 4
$T26 = 12						; size = 4
$T27 = 12						; size = 4
$T28 = 12						; size = 4
$T29 = 12						; size = 4
$T30 = 12						; size = 4
$T31 = 12						; size = 4
_pItem$ = 12						; size = 4
?GetVerticalAllData@CDataOfChartListPage@@AAE?AV?$CStringT@DV?$StrTraitMFC_DLL@DV?$ChTraitsCRT@D@ATL@@@@@ATL@@PAVCChartLink@@@Z PROC ; CDataOfChartListPage::GetVerticalAllData, COMDAT
; _this$ = ecx

; 205  : {

  00000	55		 push	 ebp
  00001	8b ec		 mov	 ebp, esp
  00003	6a ff		 push	 -1
  00005	68 00 00 00 00	 push	 __ehhandler$?GetVerticalAllData@CDataOfChartListPage@@AAE?AV?$CStringT@DV?$StrTraitMFC_DLL@DV?$ChTraitsCRT@D@ATL@@@@@ATL@@PAVCChartLink@@@Z
  0000a	64 a1 00 00 00
	00		 mov	 eax, DWORD PTR fs:0
  00010	50		 push	 eax
  00011	83 ec 14	 sub	 esp, 20			; 00000014H
  00014	53		 push	 ebx
  00015	56		 push	 esi
  00016	57		 push	 edi
  00017	a1 00 00 00 00	 mov	 eax, DWORD PTR ___security_cookie
  0001c	33 c5		 xor	 eax, ebp
  0001e	50		 push	 eax
  0001f	8d 45 f4	 lea	 eax, DWORD PTR __$EHRec$[ebp]
  00022	64 a3 00 00 00
	00		 mov	 DWORD PTR fs:0, eax
  00028	8b f1		 mov	 esi, ecx
  0002a	c7 45 f0 00 00
	00 00		 mov	 DWORD PTR $T18[ebp], 0

; 206  : 	CString strValue = "";

  00031	8b 5d 08	 mov	 ebx, DWORD PTR ___$ReturnUdt$[ebp]
  00034	8b cb		 mov	 ecx, ebx
  00036	68 00 00 00 00	 push	 OFFSET ??_C@_00CNPNBAHC@@
  0003b	c7 45 fc 00 00
	00 00		 mov	 DWORD PTR __$EHRec$[ebp+8], 0
  00042	ff 15 00 00 00
	00		 call	 DWORD PTR __imp_??0?$CStringT@DV?$StrTraitMFC_DLL@DV?$ChTraitsCRT@D@ATL@@@@@ATL@@QAE@PBD@Z

; 233  : 	return strValue;

  00048	68 00 00 00 00	 push	 OFFSET ??_C@_0BC@DJOHDNOJ@VertScaleGroup?$DL?$AN?6@
  0004d	8b cb		 mov	 ecx, ebx
  0004f	c7 45 fc 00 00
	00 00		 mov	 DWORD PTR __$EHRec$[ebp+8], 0
  00056	c7 45 f0 01 00
	00 00		 mov	 DWORD PTR $T18[ebp], 1
  0005d	ff 15 00 00 00
	00		 call	 DWORD PTR __imp_??Y?$CStringT@DV?$StrTraitMFC_DLL@DV?$ChTraitsCRT@D@ATL@@@@@ATL@@QAEAAV01@PBD@Z
  00063	6a 00		 push	 0
  00065	6a 06		 push	 6
  00067	51		 push	 ecx
  00068	8b cc		 mov	 ecx, esp
  0006a	89 65 e4	 mov	 DWORD PTR $T2[ebp], esp
  0006d	6a 01		 push	 1
  0006f	6a 2c		 push	 44			; 0000002cH
  00071	ff 15 00 00 00
	00		 call	 DWORD PTR __imp_??0?$CStringT@DV?$StrTraitMFC_DLL@DV?$ChTraitsCRT@D@ATL@@@@@ATL@@QAE@DH@Z
  00077	8b 7d 0c	 mov	 edi, DWORD PTR _pItem$[ebp]
  0007a	51		 push	 ecx
  0007b	8b cc		 mov	 ecx, esp
  0007d	c7 45 fc 01 00
	00 00		 mov	 DWORD PTR __$EHRec$[ebp+8], 1
  00084	8d 47 58	 lea	 eax, DWORD PTR [edi+88]
  00087	50		 push	 eax
  00088	ff 15 00 00 00
	00		 call	 DWORD PTR __imp_??0?$CStringT@DV?$StrTraitMFC_DLL@DV?$ChTraitsCRT@D@ATL@@@@@ATL@@QAE@ABV01@@Z
  0008e	ff 76 10	 push	 DWORD PTR [esi+16]
  00091	8d 45 e8	 lea	 eax, DWORD PTR $T16[ebp]
  00094	c6 45 fc 00	 mov	 BYTE PTR __$EHRec$[ebp+8], 0
  00098	50		 push	 eax
  00099	b9 00 00 00 00	 mov	 ecx, OFFSET ?g_iMetaTable@@3VIMetaTable@@A ; g_iMetaTable
  0009e	e8 00 00 00 00	 call	 ?GetMultipleMetaText@IMetaTable@@QAE?AV?$CStringT@DV?$StrTraitMFC_DLL@DV?$ChTraitsCRT@D@ATL@@@@@ATL@@PAUHWND__@@V23@1HH@Z ; IMetaTable::GetMultipleMetaText
  000a3	8b f0		 mov	 esi, eax
; File C:\Program Files (x86)\Microsoft Visual Studio\2019\Community\VC\Tools\MSVC\14.29.30133\atlmfc\include\cstringt.h

; 2401 : 		CStringT strResult( str1.GetManager() );

  000a5	8b ce		 mov	 ecx, esi
; File D:\git\src\IBK\IBK_DRFN\ProjSrc\SrcChartEx\ChartAddIn\ChartDesignPropertyAddIn\ChartDesignPropertyAddIn\DataOfChartListPage.cpp

; 209  : 	strValue +=	_LTOMS2( pItem->m_strScaleStyle, ',', 6, 0)						+ ";";  //

  000a7	c7 45 fc 03 00
	00 00		 mov	 DWORD PTR __$EHRec$[ebp+8], 3
; File C:\Program Files (x86)\Microsoft Visual Studio\2019\Community\VC\Tools\MSVC\14.29.30133\atlmfc\include\cstringt.h

; 2401 : 		CStringT strResult( str1.GetManager() );

  000ae	ff 15 00 00 00
	00		 call	 DWORD PTR __imp_?GetManager@?$CStringT@DV?$StrTraitMFC_DLL@DV?$ChTraitsCRT@D@ATL@@@@@ATL@@QBEPAUIAtlStringMgr@2@XZ
  000b4	50		 push	 eax
  000b5	8d 4d ec	 lea	 ecx, DWORD PTR $T17[ebp]
  000b8	ff 15 00 00 00
	00		 call	 DWORD PTR __imp_??0?$CStringT@DV?$StrTraitMFC_DLL@DV?$ChTraitsCRT@D@ATL@@@@@ATL@@QAE@PAUIAtlStringMgr@1@@Z
; File C:\Program Files (x86)\Microsoft Visual Studio\2019\Community\VC\Tools\MSVC\14.29.30133\atlmfc\include\atlsimpstr.h

; 519  : 		return( GetData()->nDataLength );

  000be	8b 06		 mov	 eax, DWORD PTR [esi]
; File C:\Program Files (x86)\Microsoft Visual Studio\2019\Community\VC\Tools\MSVC\14.29.30133\atlmfc\include\cstringt.h

; 2403 : 		CThisSimpleString::Concatenate( strResult, str1, str1.GetLength(), psz2, CThisSimpleString::StringLength( psz2 ) );

  000c0	6a 01		 push	 1
  000c2	68 00 00 00 00	 push	 OFFSET ??_C@_01ICJEACDI@?$DL@

; 2404 : 
; 2405 : 		return( strResult );

  000c7	c7 45 f0 03 00
	00 00		 mov	 DWORD PTR $T18[ebp], 3
  000ce	ff 70 f4	 push	 DWORD PTR [eax-12]
  000d1	50		 push	 eax
  000d2	8d 45 ec	 lea	 eax, DWORD PTR $T17[ebp]
  000d5	50		 push	 eax
  000d6	ff 15 00 00 00
	00		 call	 DWORD PTR __imp_?Concatenate@?$CSimpleStringT@D$00@ATL@@KAXAAV12@PBDH1H@Z
  000dc	83 c4 14	 add	 esp, 20			; 00000014H
; File D:\git\src\IBK\IBK_DRFN\ProjSrc\SrcChartEx\ChartAddIn\ChartDesignPropertyAddIn\ChartDesignPropertyAddIn\DataOfChartListPage.cpp

; 209  : 	strValue +=	_LTOMS2( pItem->m_strScaleStyle, ',', 6, 0)						+ ";";  //

  000df	8d 45 ec	 lea	 eax, DWORD PTR $T17[ebp]
  000e2	8b cb		 mov	 ecx, ebx
  000e4	50		 push	 eax
  000e5	ff 15 00 00 00
	00		 call	 DWORD PTR __imp_??Y?$CStringT@DV?$StrTraitMFC_DLL@DV?$ChTraitsCRT@D@ATL@@@@@ATL@@QAEAAV01@ABV?$CSimpleStringT@D$00@1@@Z
  000eb	8d 4d ec	 lea	 ecx, DWORD PTR $T17[ebp]
  000ee	c7 45 f0 01 00
	00 00		 mov	 DWORD PTR $T18[ebp], 1
  000f5	ff 15 00 00 00
	00		 call	 DWORD PTR __imp_??1?$CStringT@DV?$StrTraitMFC_DLL@DV?$ChTraitsCRT@D@ATL@@@@@ATL@@QAE@XZ
  000fb	8d 4d e8	 lea	 ecx, DWORD PTR $T16[ebp]
  000fe	c6 45 fc 00	 mov	 BYTE PTR __$EHRec$[ebp+8], 0
  00102	ff 15 00 00 00
	00		 call	 DWORD PTR __imp_??1?$CStringT@DV?$StrTraitMFC_DLL@DV?$ChTraitsCRT@D@ATL@@@@@ATL@@QAE@XZ

; 210  : 	strValue +=	CDataConversion::IntToString(pItem->m_nScalePosition)			+ ";"; // 

  00108	ff 77 20	 push	 DWORD PTR [edi+32]
  0010b	8d 45 e8	 lea	 eax, DWORD PTR $T15[ebp]
  0010e	50		 push	 eax
  0010f	e8 00 00 00 00	 call	 ?IntToString@CDataConversion@@SA?AV?$CStringT@DV?$StrTraitMFC_DLL@DV?$ChTraitsCRT@D@ATL@@@@@ATL@@H@Z ; CDataConversion::IntToString
  00114	83 c4 08	 add	 esp, 8
  00117	8b f0		 mov	 esi, eax
; File C:\Program Files (x86)\Microsoft Visual Studio\2019\Community\VC\Tools\MSVC\14.29.30133\atlmfc\include\cstringt.h

; 2401 : 		CStringT strResult( str1.GetManager() );

  00119	8b ce		 mov	 ecx, esi
; File D:\git\src\IBK\IBK_DRFN\ProjSrc\SrcChartEx\ChartAddIn\ChartDesignPropertyAddIn\ChartDesignPropertyAddIn\DataOfChartListPage.cpp

; 210  : 	strValue +=	CDataConversion::IntToString(pItem->m_nScalePosition)			+ ";"; // 

  0011b	c7 45 fc 05 00
	00 00		 mov	 DWORD PTR __$EHRec$[ebp+8], 5
; File C:\Program Files (x86)\Microsoft Visual Studio\2019\Community\VC\Tools\MSVC\14.29.30133\atlmfc\include\cstringt.h

; 2401 : 		CStringT strResult( str1.GetManager() );

  00122	ff 15 00 00 00
	00		 call	 DWORD PTR __imp_?GetManager@?$CStringT@DV?$StrTraitMFC_DLL@DV?$ChTraitsCRT@D@ATL@@@@@ATL@@QBEPAUIAtlStringMgr@2@XZ
  00128	50		 push	 eax
  00129	8d 4d 0c	 lea	 ecx, DWORD PTR $T31[ebp]
  0012c	ff 15 00 00 00
	00		 call	 DWORD PTR __imp_??0?$CStringT@DV?$StrTraitMFC_DLL@DV?$ChTraitsCRT@D@ATL@@@@@ATL@@QAE@PAUIAtlStringMgr@1@@Z
; File C:\Program Files (x86)\Microsoft Visual Studio\2019\Community\VC\Tools\MSVC\14.29.30133\atlmfc\include\atlsimpstr.h

; 519  : 		return( GetData()->nDataLength );

  00132	8b 06		 mov	 eax, DWORD PTR [esi]
; File C:\Program Files (x86)\Microsoft Visual Studio\2019\Community\VC\Tools\MSVC\14.29.30133\atlmfc\include\cstringt.h

; 2403 : 		CThisSimpleString::Concatenate( strResult, str1, str1.GetLength(), psz2, CThisSimpleString::StringLength( psz2 ) );

  00134	6a 01		 push	 1

; 2404 : 
; 2405 : 		return( strResult );

  00136	c7 45 f0 05 00
	00 00		 mov	 DWORD PTR $T18[ebp], 5
  0013d	68 00 00 00 00	 push	 OFFSET ??_C@_01ICJEACDI@?$DL@

; 2403 : 		CThisSimpleString::Concatenate( strResult, str1, str1.GetLength(), psz2, CThisSimpleString::StringLength( psz2 ) );

  00142	ff 70 f4	 push	 DWORD PTR [eax-12]
  00145	50		 push	 eax
  00146	8d 45 0c	 lea	 eax, DWORD PTR $T31[ebp]
  00149	50		 push	 eax
  0014a	ff 15 00 00 00
	00		 call	 DWORD PTR __imp_?Concatenate@?$CSimpleStringT@D$00@ATL@@KAXAAV12@PBDH1H@Z
  00150	83 c4 14	 add	 esp, 20			; 00000014H
; File D:\git\src\IBK\IBK_DRFN\ProjSrc\SrcChartEx\ChartAddIn\ChartDesignPropertyAddIn\ChartDesignPropertyAddIn\DataOfChartListPage.cpp

; 210  : 	strValue +=	CDataConversion::IntToString(pItem->m_nScalePosition)			+ ";"; // 

  00153	8d 45 0c	 lea	 eax, DWORD PTR $T31[ebp]
  00156	8b cb		 mov	 ecx, ebx
  00158	50		 push	 eax
  00159	ff 15 00 00 00
	00		 call	 DWORD PTR __imp_??Y?$CStringT@DV?$StrTraitMFC_DLL@DV?$ChTraitsCRT@D@ATL@@@@@ATL@@QAEAAV01@ABV?$CSimpleStringT@D$00@1@@Z
  0015f	8d 4d 0c	 lea	 ecx, DWORD PTR $T31[ebp]
  00162	c7 45 f0 01 00
	00 00		 mov	 DWORD PTR $T18[ebp], 1
  00169	ff 15 00 00 00
	00		 call	 DWORD PTR __imp_??1?$CStringT@DV?$StrTraitMFC_DLL@DV?$ChTraitsCRT@D@ATL@@@@@ATL@@QAE@XZ
  0016f	8d 4d e8	 lea	 ecx, DWORD PTR $T15[ebp]
  00172	c6 45 fc 00	 mov	 BYTE PTR __$EHRec$[ebp+8], 0
  00176	ff 15 00 00 00
	00		 call	 DWORD PTR __imp_??1?$CStringT@DV?$StrTraitMFC_DLL@DV?$ChTraitsCRT@D@ATL@@@@@ATL@@QAE@XZ

; 211  : 	strValue +=	CDataConversion::IntToString(pItem->m_nScaleCompartType)		+ ";"; //Grid Type

  0017c	ff 77 50	 push	 DWORD PTR [edi+80]
  0017f	8d 45 e8	 lea	 eax, DWORD PTR $T14[ebp]
  00182	50		 push	 eax
  00183	e8 00 00 00 00	 call	 ?IntToString@CDataConversion@@SA?AV?$CStringT@DV?$StrTraitMFC_DLL@DV?$ChTraitsCRT@D@ATL@@@@@ATL@@H@Z ; CDataConversion::IntToString
  00188	83 c4 08	 add	 esp, 8
  0018b	8b f0		 mov	 esi, eax
; File C:\Program Files (x86)\Microsoft Visual Studio\2019\Community\VC\Tools\MSVC\14.29.30133\atlmfc\include\cstringt.h

; 2401 : 		CStringT strResult( str1.GetManager() );

  0018d	8b ce		 mov	 ecx, esi
; File D:\git\src\IBK\IBK_DRFN\ProjSrc\SrcChartEx\ChartAddIn\ChartDesignPropertyAddIn\ChartDesignPropertyAddIn\DataOfChartListPage.cpp

; 211  : 	strValue +=	CDataConversion::IntToString(pItem->m_nScaleCompartType)		+ ";"; //Grid Type

  0018f	c7 45 fc 07 00
	00 00		 mov	 DWORD PTR __$EHRec$[ebp+8], 7
; File C:\Program Files (x86)\Microsoft Visual Studio\2019\Community\VC\Tools\MSVC\14.29.30133\atlmfc\include\cstringt.h

; 2401 : 		CStringT strResult( str1.GetManager() );

  00196	ff 15 00 00 00
	00		 call	 DWORD PTR __imp_?GetManager@?$CStringT@DV?$StrTraitMFC_DLL@DV?$ChTraitsCRT@D@ATL@@@@@ATL@@QBEPAUIAtlStringMgr@2@XZ
  0019c	50		 push	 eax
  0019d	8d 4d 0c	 lea	 ecx, DWORD PTR $T30[ebp]
  001a0	ff 15 00 00 00
	00		 call	 DWORD PTR __imp_??0?$CStringT@DV?$StrTraitMFC_DLL@DV?$ChTraitsCRT@D@ATL@@@@@ATL@@QAE@PAUIAtlStringMgr@1@@Z
; File C:\Program Files (x86)\Microsoft Visual Studio\2019\Community\VC\Tools\MSVC\14.29.30133\atlmfc\include\atlsimpstr.h

; 519  : 		return( GetData()->nDataLength );

  001a6	8b 06		 mov	 eax, DWORD PTR [esi]
; File C:\Program Files (x86)\Microsoft Visual Studio\2019\Community\VC\Tools\MSVC\14.29.30133\atlmfc\include\cstringt.h

; 2403 : 		CThisSimpleString::Concatenate( strResult, str1, str1.GetLength(), psz2, CThisSimpleString::StringLength( psz2 ) );

  001a8	6a 01		 push	 1
  001aa	68 00 00 00 00	 push	 OFFSET ??_C@_01ICJEACDI@?$DL@

; 2404 : 
; 2405 : 		return( strResult );

  001af	c7 45 f0 09 00
	00 00		 mov	 DWORD PTR $T18[ebp], 9
  001b6	ff 70 f4	 push	 DWORD PTR [eax-12]
  001b9	50		 push	 eax
  001ba	8d 45 0c	 lea	 eax, DWORD PTR $T30[ebp]
  001bd	50		 push	 eax
  001be	ff 15 00 00 00
	00		 call	 DWORD PTR __imp_?Concatenate@?$CSimpleStringT@D$00@ATL@@KAXAAV12@PBDH1H@Z
  001c4	83 c4 14	 add	 esp, 20			; 00000014H
; File D:\git\src\IBK\IBK_DRFN\ProjSrc\SrcChartEx\ChartAddIn\ChartDesignPropertyAddIn\ChartDesignPropertyAddIn\DataOfChartListPage.cpp

; 211  : 	strValue +=	CDataConversion::IntToString(pItem->m_nScaleCompartType)		+ ";"; //Grid Type

  001c7	8d 45 0c	 lea	 eax, DWORD PTR $T30[ebp]
  001ca	8b cb		 mov	 ecx, ebx
  001cc	50		 push	 eax
  001cd	ff 15 00 00 00
	00		 call	 DWORD PTR __imp_??Y?$CStringT@DV?$StrTraitMFC_DLL@DV?$ChTraitsCRT@D@ATL@@@@@ATL@@QAEAAV01@ABV?$CSimpleStringT@D$00@1@@Z
  001d3	8d 4d 0c	 lea	 ecx, DWORD PTR $T30[ebp]
  001d6	c7 45 f0 01 00
	00 00		 mov	 DWORD PTR $T18[ebp], 1
  001dd	ff 15 00 00 00
	00		 call	 DWORD PTR __imp_??1?$CStringT@DV?$StrTraitMFC_DLL@DV?$ChTraitsCRT@D@ATL@@@@@ATL@@QAE@XZ
  001e3	8d 4d e8	 lea	 ecx, DWORD PTR $T14[ebp]
  001e6	c6 45 fc 00	 mov	 BYTE PTR __$EHRec$[ebp+8], 0
  001ea	ff 15 00 00 00
	00		 call	 DWORD PTR __imp_??1?$CStringT@DV?$StrTraitMFC_DLL@DV?$ChTraitsCRT@D@ATL@@@@@ATL@@QAE@XZ

; 212  : 	strValue +=	CDataConversion::IntToString(pItem->m_nScaleExpressionType)		+ ";"; //scale  

  001f0	ff 77 54	 push	 DWORD PTR [edi+84]
  001f3	8d 45 e8	 lea	 eax, DWORD PTR $T13[ebp]
  001f6	50		 push	 eax
  001f7	e8 00 00 00 00	 call	 ?IntToString@CDataConversion@@SA?AV?$CStringT@DV?$StrTraitMFC_DLL@DV?$ChTraitsCRT@D@ATL@@@@@ATL@@H@Z ; CDataConversion::IntToString
  001fc	83 c4 08	 add	 esp, 8
  001ff	8b f0		 mov	 esi, eax
; File C:\Program Files (x86)\Microsoft Visual Studio\2019\Community\VC\Tools\MSVC\14.29.30133\atlmfc\include\cstringt.h

; 2401 : 		CStringT strResult( str1.GetManager() );

  00201	8b ce		 mov	 ecx, esi
; File D:\git\src\IBK\IBK_DRFN\ProjSrc\SrcChartEx\ChartAddIn\ChartDesignPropertyAddIn\ChartDesignPropertyAddIn\DataOfChartListPage.cpp

; 212  : 	strValue +=	CDataConversion::IntToString(pItem->m_nScaleExpressionType)		+ ";"; //scale  

  00203	c7 45 fc 09 00
	00 00		 mov	 DWORD PTR __$EHRec$[ebp+8], 9
; File C:\Program Files (x86)\Microsoft Visual Studio\2019\Community\VC\Tools\MSVC\14.29.30133\atlmfc\include\cstringt.h

; 2401 : 		CStringT strResult( str1.GetManager() );

  0020a	ff 15 00 00 00
	00		 call	 DWORD PTR __imp_?GetManager@?$CStringT@DV?$StrTraitMFC_DLL@DV?$ChTraitsCRT@D@ATL@@@@@ATL@@QBEPAUIAtlStringMgr@2@XZ
  00210	50		 push	 eax
  00211	8d 4d 0c	 lea	 ecx, DWORD PTR $T29[ebp]
  00214	ff 15 00 00 00
	00		 call	 DWORD PTR __imp_??0?$CStringT@DV?$StrTraitMFC_DLL@DV?$ChTraitsCRT@D@ATL@@@@@ATL@@QAE@PAUIAtlStringMgr@1@@Z
; File C:\Program Files (x86)\Microsoft Visual Studio\2019\Community\VC\Tools\MSVC\14.29.30133\atlmfc\include\atlsimpstr.h

; 519  : 		return( GetData()->nDataLength );

  0021a	8b 06		 mov	 eax, DWORD PTR [esi]
; File C:\Program Files (x86)\Microsoft Visual Studio\2019\Community\VC\Tools\MSVC\14.29.30133\atlmfc\include\cstringt.h

; 2403 : 		CThisSimpleString::Concatenate( strResult, str1, str1.GetLength(), psz2, CThisSimpleString::StringLength( psz2 ) );

  0021c	6a 01		 push	 1
  0021e	68 00 00 00 00	 push	 OFFSET ??_C@_01ICJEACDI@?$DL@

; 2404 : 
; 2405 : 		return( strResult );

  00223	c7 45 f0 11 00
	00 00		 mov	 DWORD PTR $T18[ebp], 17	; 00000011H
  0022a	ff 70 f4	 push	 DWORD PTR [eax-12]
  0022d	50		 push	 eax
  0022e	8d 45 0c	 lea	 eax, DWORD PTR $T29[ebp]
  00231	50		 push	 eax
  00232	ff 15 00 00 00
	00		 call	 DWORD PTR __imp_?Concatenate@?$CSimpleStringT@D$00@ATL@@KAXAAV12@PBDH1H@Z
  00238	83 c4 14	 add	 esp, 20			; 00000014H
; File D:\git\src\IBK\IBK_DRFN\ProjSrc\SrcChartEx\ChartAddIn\ChartDesignPropertyAddIn\ChartDesignPropertyAddIn\DataOfChartListPage.cpp

; 212  : 	strValue +=	CDataConversion::IntToString(pItem->m_nScaleExpressionType)		+ ";"; //scale  

  0023b	8d 45 0c	 lea	 eax, DWORD PTR $T29[ebp]
  0023e	8b cb		 mov	 ecx, ebx
  00240	50		 push	 eax
  00241	ff 15 00 00 00
	00		 call	 DWORD PTR __imp_??Y?$CStringT@DV?$StrTraitMFC_DLL@DV?$ChTraitsCRT@D@ATL@@@@@ATL@@QAEAAV01@ABV?$CSimpleStringT@D$00@1@@Z
  00247	8d 4d 0c	 lea	 ecx, DWORD PTR $T29[ebp]
  0024a	c7 45 f0 01 00
	00 00		 mov	 DWORD PTR $T18[ebp], 1
  00251	ff 15 00 00 00
	00		 call	 DWORD PTR __imp_??1?$CStringT@DV?$StrTraitMFC_DLL@DV?$ChTraitsCRT@D@ATL@@@@@ATL@@QAE@XZ
  00257	8d 4d e8	 lea	 ecx, DWORD PTR $T13[ebp]
  0025a	c6 45 fc 00	 mov	 BYTE PTR __$EHRec$[ebp+8], 0
  0025e	ff 15 00 00 00
	00		 call	 DWORD PTR __imp_??1?$CStringT@DV?$StrTraitMFC_DLL@DV?$ChTraitsCRT@D@ATL@@@@@ATL@@QAE@XZ

; 215  : 	strValue +=	CDataConversion::Bool2Str(			pItem->m_bMinMaxLock)		+ ";"; // Lock

  00264	ff 77 6c	 push	 DWORD PTR [edi+108]
  00267	8d 45 e8	 lea	 eax, DWORD PTR $T12[ebp]
  0026a	50		 push	 eax
  0026b	e8 00 00 00 00	 call	 ?Bool2Str@CDataConversion@@SA?AV?$CStringT@DV?$StrTraitMFC_DLL@DV?$ChTraitsCRT@D@ATL@@@@@ATL@@H@Z ; CDataConversion::Bool2Str
  00270	83 c4 08	 add	 esp, 8
  00273	8b f0		 mov	 esi, eax
; File C:\Program Files (x86)\Microsoft Visual Studio\2019\Community\VC\Tools\MSVC\14.29.30133\atlmfc\include\cstringt.h

; 2401 : 		CStringT strResult( str1.GetManager() );

  00275	8b ce		 mov	 ecx, esi
; File D:\git\src\IBK\IBK_DRFN\ProjSrc\SrcChartEx\ChartAddIn\ChartDesignPropertyAddIn\ChartDesignPropertyAddIn\DataOfChartListPage.cpp

; 215  : 	strValue +=	CDataConversion::Bool2Str(			pItem->m_bMinMaxLock)		+ ";"; // Lock

  00277	c7 45 fc 0b 00
	00 00		 mov	 DWORD PTR __$EHRec$[ebp+8], 11 ; 0000000bH
; File C:\Program Files (x86)\Microsoft Visual Studio\2019\Community\VC\Tools\MSVC\14.29.30133\atlmfc\include\cstringt.h

; 2401 : 		CStringT strResult( str1.GetManager() );

  0027e	ff 15 00 00 00
	00		 call	 DWORD PTR __imp_?GetManager@?$CStringT@DV?$StrTraitMFC_DLL@DV?$ChTraitsCRT@D@ATL@@@@@ATL@@QBEPAUIAtlStringMgr@2@XZ
  00284	50		 push	 eax
  00285	8d 4d 0c	 lea	 ecx, DWORD PTR $T28[ebp]
  00288	ff 15 00 00 00
	00		 call	 DWORD PTR __imp_??0?$CStringT@DV?$StrTraitMFC_DLL@DV?$ChTraitsCRT@D@ATL@@@@@ATL@@QAE@PAUIAtlStringMgr@1@@Z
; File C:\Program Files (x86)\Microsoft Visual Studio\2019\Community\VC\Tools\MSVC\14.29.30133\atlmfc\include\atlsimpstr.h

; 519  : 		return( GetData()->nDataLength );

  0028e	8b 06		 mov	 eax, DWORD PTR [esi]
; File C:\Program Files (x86)\Microsoft Visual Studio\2019\Community\VC\Tools\MSVC\14.29.30133\atlmfc\include\cstringt.h

; 2403 : 		CThisSimpleString::Concatenate( strResult, str1, str1.GetLength(), psz2, CThisSimpleString::StringLength( psz2 ) );

  00290	6a 01		 push	 1
  00292	68 00 00 00 00	 push	 OFFSET ??_C@_01ICJEACDI@?$DL@

; 2404 : 
; 2405 : 		return( strResult );

  00297	c7 45 f0 21 00
	00 00		 mov	 DWORD PTR $T18[ebp], 33	; 00000021H
  0029e	ff 70 f4	 push	 DWORD PTR [eax-12]
  002a1	50		 push	 eax
  002a2	8d 45 0c	 lea	 eax, DWORD PTR $T28[ebp]
  002a5	50		 push	 eax
  002a6	ff 15 00 00 00
	00		 call	 DWORD PTR __imp_?Concatenate@?$CSimpleStringT@D$00@ATL@@KAXAAV12@PBDH1H@Z
  002ac	83 c4 14	 add	 esp, 20			; 00000014H
; File D:\git\src\IBK\IBK_DRFN\ProjSrc\SrcChartEx\ChartAddIn\ChartDesignPropertyAddIn\ChartDesignPropertyAddIn\DataOfChartListPage.cpp

; 215  : 	strValue +=	CDataConversion::Bool2Str(			pItem->m_bMinMaxLock)		+ ";"; // Lock

  002af	8d 45 0c	 lea	 eax, DWORD PTR $T28[ebp]
  002b2	8b cb		 mov	 ecx, ebx
  002b4	50		 push	 eax
  002b5	ff 15 00 00 00
	00		 call	 DWORD PTR __imp_??Y?$CStringT@DV?$StrTraitMFC_DLL@DV?$ChTraitsCRT@D@ATL@@@@@ATL@@QAEAAV01@ABV?$CSimpleStringT@D$00@1@@Z
  002bb	8d 4d 0c	 lea	 ecx, DWORD PTR $T28[ebp]
  002be	c7 45 f0 01 00
	00 00		 mov	 DWORD PTR $T18[ebp], 1
  002c5	ff 15 00 00 00
	00		 call	 DWORD PTR __imp_??1?$CStringT@DV?$StrTraitMFC_DLL@DV?$ChTraitsCRT@D@ATL@@@@@ATL@@QAE@XZ
  002cb	8d 4d e8	 lea	 ecx, DWORD PTR $T12[ebp]
  002ce	c6 45 fc 00	 mov	 BYTE PTR __$EHRec$[ebp+8], 0
  002d2	ff 15 00 00 00
	00		 call	 DWORD PTR __imp_??1?$CStringT@DV?$StrTraitMFC_DLL@DV?$ChTraitsCRT@D@ATL@@@@@ATL@@QAE@XZ

; 216  : 	strValue +=	CDataConversion::IntToString(		( int)pItem->m_eMinMaxType)	+ ";"; // Type

  002d8	ff 77 70	 push	 DWORD PTR [edi+112]
  002db	8d 45 e8	 lea	 eax, DWORD PTR $T11[ebp]
  002de	50		 push	 eax
  002df	e8 00 00 00 00	 call	 ?IntToString@CDataConversion@@SA?AV?$CStringT@DV?$StrTraitMFC_DLL@DV?$ChTraitsCRT@D@ATL@@@@@ATL@@H@Z ; CDataConversion::IntToString
  002e4	83 c4 08	 add	 esp, 8
  002e7	8b f0		 mov	 esi, eax
; File C:\Program Files (x86)\Microsoft Visual Studio\2019\Community\VC\Tools\MSVC\14.29.30133\atlmfc\include\cstringt.h

; 2401 : 		CStringT strResult( str1.GetManager() );

  002e9	8b ce		 mov	 ecx, esi
; File D:\git\src\IBK\IBK_DRFN\ProjSrc\SrcChartEx\ChartAddIn\ChartDesignPropertyAddIn\ChartDesignPropertyAddIn\DataOfChartListPage.cpp

; 216  : 	strValue +=	CDataConversion::IntToString(		( int)pItem->m_eMinMaxType)	+ ";"; // Type

  002eb	c7 45 fc 0d 00
	00 00		 mov	 DWORD PTR __$EHRec$[ebp+8], 13 ; 0000000dH
; File C:\Program Files (x86)\Microsoft Visual Studio\2019\Community\VC\Tools\MSVC\14.29.30133\atlmfc\include\cstringt.h

; 2401 : 		CStringT strResult( str1.GetManager() );

  002f2	ff 15 00 00 00
	00		 call	 DWORD PTR __imp_?GetManager@?$CStringT@DV?$StrTraitMFC_DLL@DV?$ChTraitsCRT@D@ATL@@@@@ATL@@QBEPAUIAtlStringMgr@2@XZ
  002f8	50		 push	 eax
  002f9	8d 4d 0c	 lea	 ecx, DWORD PTR $T27[ebp]
  002fc	ff 15 00 00 00
	00		 call	 DWORD PTR __imp_??0?$CStringT@DV?$StrTraitMFC_DLL@DV?$ChTraitsCRT@D@ATL@@@@@ATL@@QAE@PAUIAtlStringMgr@1@@Z
; File C:\Program Files (x86)\Microsoft Visual Studio\2019\Community\VC\Tools\MSVC\14.29.30133\atlmfc\include\atlsimpstr.h

; 519  : 		return( GetData()->nDataLength );

  00302	8b 06		 mov	 eax, DWORD PTR [esi]
; File C:\Program Files (x86)\Microsoft Visual Studio\2019\Community\VC\Tools\MSVC\14.29.30133\atlmfc\include\cstringt.h

; 2403 : 		CThisSimpleString::Concatenate( strResult, str1, str1.GetLength(), psz2, CThisSimpleString::StringLength( psz2 ) );

  00304	6a 01		 push	 1
  00306	68 00 00 00 00	 push	 OFFSET ??_C@_01ICJEACDI@?$DL@

; 2404 : 
; 2405 : 		return( strResult );

  0030b	c7 45 f0 41 00
	00 00		 mov	 DWORD PTR $T18[ebp], 65	; 00000041H
  00312	ff 70 f4	 push	 DWORD PTR [eax-12]
  00315	50		 push	 eax
  00316	8d 45 0c	 lea	 eax, DWORD PTR $T27[ebp]
  00319	50		 push	 eax
  0031a	ff 15 00 00 00
	00		 call	 DWORD PTR __imp_?Concatenate@?$CSimpleStringT@D$00@ATL@@KAXAAV12@PBDH1H@Z
  00320	83 c4 14	 add	 esp, 20			; 00000014H
; File D:\git\src\IBK\IBK_DRFN\ProjSrc\SrcChartEx\ChartAddIn\ChartDesignPropertyAddIn\ChartDesignPropertyAddIn\DataOfChartListPage.cpp

; 216  : 	strValue +=	CDataConversion::IntToString(		( int)pItem->m_eMinMaxType)	+ ";"; // Type

  00323	8d 45 0c	 lea	 eax, DWORD PTR $T27[ebp]
  00326	8b cb		 mov	 ecx, ebx
  00328	50		 push	 eax
  00329	ff 15 00 00 00
	00		 call	 DWORD PTR __imp_??Y?$CStringT@DV?$StrTraitMFC_DLL@DV?$ChTraitsCRT@D@ATL@@@@@ATL@@QAEAAV01@ABV?$CSimpleStringT@D$00@1@@Z
  0032f	8d 4d 0c	 lea	 ecx, DWORD PTR $T27[ebp]
  00332	c7 45 f0 01 00
	00 00		 mov	 DWORD PTR $T18[ebp], 1
  00339	ff 15 00 00 00
	00		 call	 DWORD PTR __imp_??1?$CStringT@DV?$StrTraitMFC_DLL@DV?$ChTraitsCRT@D@ATL@@@@@ATL@@QAE@XZ
  0033f	8d 4d e8	 lea	 ecx, DWORD PTR $T11[ebp]
  00342	c6 45 fc 00	 mov	 BYTE PTR __$EHRec$[ebp+8], 0
  00346	ff 15 00 00 00
	00		 call	 DWORD PTR __imp_??1?$CStringT@DV?$StrTraitMFC_DLL@DV?$ChTraitsCRT@D@ATL@@@@@ATL@@QAE@XZ

; 217  : 	strValue +=	CDataConversion::DoubleToString(	pItem->m_dMin)				+ ";"; // Min

  0034c	8d 87 80 00 00
	00		 lea	 eax, DWORD PTR [edi+128]
  00352	50		 push	 eax
  00353	8d 45 e8	 lea	 eax, DWORD PTR $T10[ebp]
  00356	50		 push	 eax
  00357	e8 00 00 00 00	 call	 ?DoubleToString@CDataConversion@@SA?AV?$CStringT@DV?$StrTraitMFC_DLL@DV?$ChTraitsCRT@D@ATL@@@@@ATL@@ABN@Z ; CDataConversion::DoubleToString
  0035c	83 c4 08	 add	 esp, 8
  0035f	8b f0		 mov	 esi, eax
  00361	c7 45 fc 0f 00
	00 00		 mov	 DWORD PTR __$EHRec$[ebp+8], 15 ; 0000000fH
; File C:\Program Files (x86)\Microsoft Visual Studio\2019\Community\VC\Tools\MSVC\14.29.30133\atlmfc\include\cstringt.h

; 2401 : 		CStringT strResult( str1.GetManager() );

  00368	8b ce		 mov	 ecx, esi
  0036a	ff 15 00 00 00
	00		 call	 DWORD PTR __imp_?GetManager@?$CStringT@DV?$StrTraitMFC_DLL@DV?$ChTraitsCRT@D@ATL@@@@@ATL@@QBEPAUIAtlStringMgr@2@XZ
  00370	50		 push	 eax
  00371	8d 4d 0c	 lea	 ecx, DWORD PTR $T26[ebp]
  00374	ff 15 00 00 00
	00		 call	 DWORD PTR __imp_??0?$CStringT@DV?$StrTraitMFC_DLL@DV?$ChTraitsCRT@D@ATL@@@@@ATL@@QAE@PAUIAtlStringMgr@1@@Z
; File C:\Program Files (x86)\Microsoft Visual Studio\2019\Community\VC\Tools\MSVC\14.29.30133\atlmfc\include\atlsimpstr.h

; 519  : 		return( GetData()->nDataLength );

  0037a	8b 06		 mov	 eax, DWORD PTR [esi]
; File C:\Program Files (x86)\Microsoft Visual Studio\2019\Community\VC\Tools\MSVC\14.29.30133\atlmfc\include\cstringt.h

; 2403 : 		CThisSimpleString::Concatenate( strResult, str1, str1.GetLength(), psz2, CThisSimpleString::StringLength( psz2 ) );

  0037c	6a 01		 push	 1
  0037e	68 00 00 00 00	 push	 OFFSET ??_C@_01ICJEACDI@?$DL@

; 2404 : 
; 2405 : 		return( strResult );

  00383	c7 45 f0 81 00
	00 00		 mov	 DWORD PTR $T18[ebp], 129 ; 00000081H
  0038a	ff 70 f4	 push	 DWORD PTR [eax-12]
  0038d	50		 push	 eax
  0038e	8d 45 0c	 lea	 eax, DWORD PTR $T26[ebp]
  00391	50		 push	 eax
  00392	ff 15 00 00 00
	00		 call	 DWORD PTR __imp_?Concatenate@?$CSimpleStringT@D$00@ATL@@KAXAAV12@PBDH1H@Z
  00398	83 c4 14	 add	 esp, 20			; 00000014H
; File D:\git\src\IBK\IBK_DRFN\ProjSrc\SrcChartEx\ChartAddIn\ChartDesignPropertyAddIn\ChartDesignPropertyAddIn\DataOfChartListPage.cpp

; 217  : 	strValue +=	CDataConversion::DoubleToString(	pItem->m_dMin)				+ ";"; // Min

  0039b	8d 45 0c	 lea	 eax, DWORD PTR $T26[ebp]
  0039e	8b cb		 mov	 ecx, ebx
  003a0	50		 push	 eax
  003a1	ff 15 00 00 00
	00		 call	 DWORD PTR __imp_??Y?$CStringT@DV?$StrTraitMFC_DLL@DV?$ChTraitsCRT@D@ATL@@@@@ATL@@QAEAAV01@ABV?$CSimpleStringT@D$00@1@@Z
  003a7	8d 4d 0c	 lea	 ecx, DWORD PTR $T26[ebp]
  003aa	c7 45 f0 01 00
	00 00		 mov	 DWORD PTR $T18[ebp], 1
  003b1	ff 15 00 00 00
	00		 call	 DWORD PTR __imp_??1?$CStringT@DV?$StrTraitMFC_DLL@DV?$ChTraitsCRT@D@ATL@@@@@ATL@@QAE@XZ
  003b7	8d 4d e8	 lea	 ecx, DWORD PTR $T10[ebp]
  003ba	c6 45 fc 00	 mov	 BYTE PTR __$EHRec$[ebp+8], 0
  003be	ff 15 00 00 00
	00		 call	 DWORD PTR __imp_??1?$CStringT@DV?$StrTraitMFC_DLL@DV?$ChTraitsCRT@D@ATL@@@@@ATL@@QAE@XZ

; 218  : 	strValue +=	CDataConversion::DoubleToString(	pItem->m_dMax)				+ ";"; // Max

  003c4	8d 47 78	 lea	 eax, DWORD PTR [edi+120]
  003c7	50		 push	 eax
  003c8	8d 45 e8	 lea	 eax, DWORD PTR $T9[ebp]
  003cb	50		 push	 eax
  003cc	e8 00 00 00 00	 call	 ?DoubleToString@CDataConversion@@SA?AV?$CStringT@DV?$StrTraitMFC_DLL@DV?$ChTraitsCRT@D@ATL@@@@@ATL@@ABN@Z ; CDataConversion::DoubleToString
  003d1	83 c4 08	 add	 esp, 8
  003d4	8b f0		 mov	 esi, eax
; File C:\Program Files (x86)\Microsoft Visual Studio\2019\Community\VC\Tools\MSVC\14.29.30133\atlmfc\include\cstringt.h

; 2401 : 		CStringT strResult( str1.GetManager() );

  003d6	8b ce		 mov	 ecx, esi
; File D:\git\src\IBK\IBK_DRFN\ProjSrc\SrcChartEx\ChartAddIn\ChartDesignPropertyAddIn\ChartDesignPropertyAddIn\DataOfChartListPage.cpp

; 218  : 	strValue +=	CDataConversion::DoubleToString(	pItem->m_dMax)				+ ";"; // Max

  003d8	c7 45 fc 11 00
	00 00		 mov	 DWORD PTR __$EHRec$[ebp+8], 17 ; 00000011H
; File C:\Program Files (x86)\Microsoft Visual Studio\2019\Community\VC\Tools\MSVC\14.29.30133\atlmfc\include\cstringt.h

; 2401 : 		CStringT strResult( str1.GetManager() );

  003df	ff 15 00 00 00
	00		 call	 DWORD PTR __imp_?GetManager@?$CStringT@DV?$StrTraitMFC_DLL@DV?$ChTraitsCRT@D@ATL@@@@@ATL@@QBEPAUIAtlStringMgr@2@XZ
  003e5	50		 push	 eax
  003e6	8d 4d 0c	 lea	 ecx, DWORD PTR $T25[ebp]
  003e9	ff 15 00 00 00
	00		 call	 DWORD PTR __imp_??0?$CStringT@DV?$StrTraitMFC_DLL@DV?$ChTraitsCRT@D@ATL@@@@@ATL@@QAE@PAUIAtlStringMgr@1@@Z
; File C:\Program Files (x86)\Microsoft Visual Studio\2019\Community\VC\Tools\MSVC\14.29.30133\atlmfc\include\atlsimpstr.h

; 519  : 		return( GetData()->nDataLength );

  003ef	8b 06		 mov	 eax, DWORD PTR [esi]
; File C:\Program Files (x86)\Microsoft Visual Studio\2019\Community\VC\Tools\MSVC\14.29.30133\atlmfc\include\cstringt.h

; 2403 : 		CThisSimpleString::Concatenate( strResult, str1, str1.GetLength(), psz2, CThisSimpleString::StringLength( psz2 ) );

  003f1	6a 01		 push	 1
  003f3	68 00 00 00 00	 push	 OFFSET ??_C@_01ICJEACDI@?$DL@

; 2404 : 
; 2405 : 		return( strResult );

  003f8	c7 45 f0 01 01
	00 00		 mov	 DWORD PTR $T18[ebp], 257 ; 00000101H
  003ff	ff 70 f4	 push	 DWORD PTR [eax-12]
  00402	50		 push	 eax
  00403	8d 45 0c	 lea	 eax, DWORD PTR $T25[ebp]
  00406	50		 push	 eax
  00407	ff 15 00 00 00
	00		 call	 DWORD PTR __imp_?Concatenate@?$CSimpleStringT@D$00@ATL@@KAXAAV12@PBDH1H@Z
  0040d	83 c4 14	 add	 esp, 20			; 00000014H
; File D:\git\src\IBK\IBK_DRFN\ProjSrc\SrcChartEx\ChartAddIn\ChartDesignPropertyAddIn\ChartDesignPropertyAddIn\DataOfChartListPage.cpp

; 218  : 	strValue +=	CDataConversion::DoubleToString(	pItem->m_dMax)				+ ";"; // Max

  00410	8d 45 0c	 lea	 eax, DWORD PTR $T25[ebp]
  00413	8b cb		 mov	 ecx, ebx
  00415	50		 push	 eax
  00416	ff 15 00 00 00
	00		 call	 DWORD PTR __imp_??Y?$CStringT@DV?$StrTraitMFC_DLL@DV?$ChTraitsCRT@D@ATL@@@@@ATL@@QAEAAV01@ABV?$CSimpleStringT@D$00@1@@Z
  0041c	8d 4d 0c	 lea	 ecx, DWORD PTR $T25[ebp]
  0041f	c7 45 f0 01 00
	00 00		 mov	 DWORD PTR $T18[ebp], 1
  00426	ff 15 00 00 00
	00		 call	 DWORD PTR __imp_??1?$CStringT@DV?$StrTraitMFC_DLL@DV?$ChTraitsCRT@D@ATL@@@@@ATL@@QAE@XZ
  0042c	8d 4d e8	 lea	 ecx, DWORD PTR $T9[ebp]
  0042f	c6 45 fc 00	 mov	 BYTE PTR __$EHRec$[ebp+8], 0
  00433	ff 15 00 00 00
	00		 call	 DWORD PTR __imp_??1?$CStringT@DV?$StrTraitMFC_DLL@DV?$ChTraitsCRT@D@ATL@@@@@ATL@@QAE@XZ

; 221  : 	strValue +=	CDataConversion::IntToString(		pItem->m_nUpSpace)			+ ";"; // UpSpace

  00439	ff b7 88 00 00
	00		 push	 DWORD PTR [edi+136]
  0043f	8d 45 e8	 lea	 eax, DWORD PTR $T8[ebp]
  00442	50		 push	 eax
  00443	e8 00 00 00 00	 call	 ?IntToString@CDataConversion@@SA?AV?$CStringT@DV?$StrTraitMFC_DLL@DV?$ChTraitsCRT@D@ATL@@@@@ATL@@H@Z ; CDataConversion::IntToString
  00448	83 c4 08	 add	 esp, 8
  0044b	8b f0		 mov	 esi, eax
; File C:\Program Files (x86)\Microsoft Visual Studio\2019\Community\VC\Tools\MSVC\14.29.30133\atlmfc\include\cstringt.h

; 2401 : 		CStringT strResult( str1.GetManager() );

  0044d	8b ce		 mov	 ecx, esi
; File D:\git\src\IBK\IBK_DRFN\ProjSrc\SrcChartEx\ChartAddIn\ChartDesignPropertyAddIn\ChartDesignPropertyAddIn\DataOfChartListPage.cpp

; 221  : 	strValue +=	CDataConversion::IntToString(		pItem->m_nUpSpace)			+ ";"; // UpSpace

  0044f	c7 45 fc 13 00
	00 00		 mov	 DWORD PTR __$EHRec$[ebp+8], 19 ; 00000013H
; File C:\Program Files (x86)\Microsoft Visual Studio\2019\Community\VC\Tools\MSVC\14.29.30133\atlmfc\include\cstringt.h

; 2401 : 		CStringT strResult( str1.GetManager() );

  00456	ff 15 00 00 00
	00		 call	 DWORD PTR __imp_?GetManager@?$CStringT@DV?$StrTraitMFC_DLL@DV?$ChTraitsCRT@D@ATL@@@@@ATL@@QBEPAUIAtlStringMgr@2@XZ
  0045c	50		 push	 eax
  0045d	8d 4d 0c	 lea	 ecx, DWORD PTR $T24[ebp]
  00460	ff 15 00 00 00
	00		 call	 DWORD PTR __imp_??0?$CStringT@DV?$StrTraitMFC_DLL@DV?$ChTraitsCRT@D@ATL@@@@@ATL@@QAE@PAUIAtlStringMgr@1@@Z
; File C:\Program Files (x86)\Microsoft Visual Studio\2019\Community\VC\Tools\MSVC\14.29.30133\atlmfc\include\atlsimpstr.h

; 519  : 		return( GetData()->nDataLength );

  00466	8b 06		 mov	 eax, DWORD PTR [esi]
; File C:\Program Files (x86)\Microsoft Visual Studio\2019\Community\VC\Tools\MSVC\14.29.30133\atlmfc\include\cstringt.h

; 2403 : 		CThisSimpleString::Concatenate( strResult, str1, str1.GetLength(), psz2, CThisSimpleString::StringLength( psz2 ) );

  00468	6a 01		 push	 1
  0046a	68 00 00 00 00	 push	 OFFSET ??_C@_01ICJEACDI@?$DL@

; 2404 : 
; 2405 : 		return( strResult );

  0046f	c7 45 f0 01 02
	00 00		 mov	 DWORD PTR $T18[ebp], 513 ; 00000201H
  00476	ff 70 f4	 push	 DWORD PTR [eax-12]
  00479	50		 push	 eax
  0047a	8d 45 0c	 lea	 eax, DWORD PTR $T24[ebp]

; 2403 : 		CThisSimpleString::Concatenate( strResult, str1, str1.GetLength(), psz2, CThisSimpleString::StringLength( psz2 ) );

  0047d	50		 push	 eax
  0047e	ff 15 00 00 00
	00		 call	 DWORD PTR __imp_?Concatenate@?$CSimpleStringT@D$00@ATL@@KAXAAV12@PBDH1H@Z
  00484	83 c4 14	 add	 esp, 20			; 00000014H
; File D:\git\src\IBK\IBK_DRFN\ProjSrc\SrcChartEx\ChartAddIn\ChartDesignPropertyAddIn\ChartDesignPropertyAddIn\DataOfChartListPage.cpp

; 221  : 	strValue +=	CDataConversion::IntToString(		pItem->m_nUpSpace)			+ ";"; // UpSpace

  00487	8d 45 0c	 lea	 eax, DWORD PTR $T24[ebp]
  0048a	8b cb		 mov	 ecx, ebx
  0048c	50		 push	 eax
  0048d	ff 15 00 00 00
	00		 call	 DWORD PTR __imp_??Y?$CStringT@DV?$StrTraitMFC_DLL@DV?$ChTraitsCRT@D@ATL@@@@@ATL@@QAEAAV01@ABV?$CSimpleStringT@D$00@1@@Z
  00493	8d 4d 0c	 lea	 ecx, DWORD PTR $T24[ebp]
  00496	c7 45 f0 01 00
	00 00		 mov	 DWORD PTR $T18[ebp], 1
  0049d	ff 15 00 00 00
	00		 call	 DWORD PTR __imp_??1?$CStringT@DV?$StrTraitMFC_DLL@DV?$ChTraitsCRT@D@ATL@@@@@ATL@@QAE@XZ
  004a3	8d 4d e8	 lea	 ecx, DWORD PTR $T8[ebp]
  004a6	c6 45 fc 00	 mov	 BYTE PTR __$EHRec$[ebp+8], 0
  004aa	ff 15 00 00 00
	00		 call	 DWORD PTR __imp_??1?$CStringT@DV?$StrTraitMFC_DLL@DV?$ChTraitsCRT@D@ATL@@@@@ATL@@QAE@XZ

; 222  : 	strValue +=	CDataConversion::IntToString(		pItem->m_nDownSpace)		+ ";"; // DownSpace

  004b0	ff b7 8c 00 00
	00		 push	 DWORD PTR [edi+140]
  004b6	8d 45 e8	 lea	 eax, DWORD PTR $T7[ebp]
  004b9	50		 push	 eax
  004ba	e8 00 00 00 00	 call	 ?IntToString@CDataConversion@@SA?AV?$CStringT@DV?$StrTraitMFC_DLL@DV?$ChTraitsCRT@D@ATL@@@@@ATL@@H@Z ; CDataConversion::IntToString
  004bf	83 c4 08	 add	 esp, 8
  004c2	8b f0		 mov	 esi, eax
; File C:\Program Files (x86)\Microsoft Visual Studio\2019\Community\VC\Tools\MSVC\14.29.30133\atlmfc\include\cstringt.h

; 2401 : 		CStringT strResult( str1.GetManager() );

  004c4	8b ce		 mov	 ecx, esi
; File D:\git\src\IBK\IBK_DRFN\ProjSrc\SrcChartEx\ChartAddIn\ChartDesignPropertyAddIn\ChartDesignPropertyAddIn\DataOfChartListPage.cpp

; 222  : 	strValue +=	CDataConversion::IntToString(		pItem->m_nDownSpace)		+ ";"; // DownSpace

  004c6	c7 45 fc 15 00
	00 00		 mov	 DWORD PTR __$EHRec$[ebp+8], 21 ; 00000015H
; File C:\Program Files (x86)\Microsoft Visual Studio\2019\Community\VC\Tools\MSVC\14.29.30133\atlmfc\include\cstringt.h

; 2401 : 		CStringT strResult( str1.GetManager() );

  004cd	ff 15 00 00 00
	00		 call	 DWORD PTR __imp_?GetManager@?$CStringT@DV?$StrTraitMFC_DLL@DV?$ChTraitsCRT@D@ATL@@@@@ATL@@QBEPAUIAtlStringMgr@2@XZ
  004d3	50		 push	 eax
  004d4	8d 4d 0c	 lea	 ecx, DWORD PTR $T23[ebp]
  004d7	ff 15 00 00 00
	00		 call	 DWORD PTR __imp_??0?$CStringT@DV?$StrTraitMFC_DLL@DV?$ChTraitsCRT@D@ATL@@@@@ATL@@QAE@PAUIAtlStringMgr@1@@Z
; File C:\Program Files (x86)\Microsoft Visual Studio\2019\Community\VC\Tools\MSVC\14.29.30133\atlmfc\include\atlsimpstr.h

; 519  : 		return( GetData()->nDataLength );

  004dd	8b 06		 mov	 eax, DWORD PTR [esi]
; File C:\Program Files (x86)\Microsoft Visual Studio\2019\Community\VC\Tools\MSVC\14.29.30133\atlmfc\include\cstringt.h

; 2403 : 		CThisSimpleString::Concatenate( strResult, str1, str1.GetLength(), psz2, CThisSimpleString::StringLength( psz2 ) );

  004df	6a 01		 push	 1
  004e1	68 00 00 00 00	 push	 OFFSET ??_C@_01ICJEACDI@?$DL@

; 2404 : 
; 2405 : 		return( strResult );

  004e6	c7 45 f0 01 04
	00 00		 mov	 DWORD PTR $T18[ebp], 1025 ; 00000401H
  004ed	ff 70 f4	 push	 DWORD PTR [eax-12]
  004f0	50		 push	 eax
  004f1	8d 45 0c	 lea	 eax, DWORD PTR $T23[ebp]
  004f4	50		 push	 eax
  004f5	ff 15 00 00 00
	00		 call	 DWORD PTR __imp_?Concatenate@?$CSimpleStringT@D$00@ATL@@KAXAAV12@PBDH1H@Z
  004fb	83 c4 14	 add	 esp, 20			; 00000014H
; File D:\git\src\IBK\IBK_DRFN\ProjSrc\SrcChartEx\ChartAddIn\ChartDesignPropertyAddIn\ChartDesignPropertyAddIn\DataOfChartListPage.cpp

; 222  : 	strValue +=	CDataConversion::IntToString(		pItem->m_nDownSpace)		+ ";"; // DownSpace

  004fe	8d 45 0c	 lea	 eax, DWORD PTR $T23[ebp]
  00501	8b cb		 mov	 ecx, ebx
  00503	50		 push	 eax
  00504	ff 15 00 00 00
	00		 call	 DWORD PTR __imp_??Y?$CStringT@DV?$StrTraitMFC_DLL@DV?$ChTraitsCRT@D@ATL@@@@@ATL@@QAEAAV01@ABV?$CSimpleStringT@D$00@1@@Z
  0050a	8d 4d 0c	 lea	 ecx, DWORD PTR $T23[ebp]
  0050d	c7 45 f0 01 00
	00 00		 mov	 DWORD PTR $T18[ebp], 1
  00514	ff 15 00 00 00
	00		 call	 DWORD PTR __imp_??1?$CStringT@DV?$StrTraitMFC_DLL@DV?$ChTraitsCRT@D@ATL@@@@@ATL@@QAE@XZ
  0051a	8d 4d e8	 lea	 ecx, DWORD PTR $T7[ebp]
  0051d	c6 45 fc 00	 mov	 BYTE PTR __$EHRec$[ebp+8], 0
  00521	ff 15 00 00 00
	00		 call	 DWORD PTR __imp_??1?$CStringT@DV?$StrTraitMFC_DLL@DV?$ChTraitsCRT@D@ATL@@@@@ATL@@QAE@XZ

; 225  : 	strValue +=	CDataConversion::DoubleToString(	pItem->m_dHogaNumber)		+ ";";

  00527	8d 87 90 00 00
	00		 lea	 eax, DWORD PTR [edi+144]
  0052d	50		 push	 eax
  0052e	8d 45 e8	 lea	 eax, DWORD PTR $T6[ebp]
  00531	50		 push	 eax
  00532	e8 00 00 00 00	 call	 ?DoubleToString@CDataConversion@@SA?AV?$CStringT@DV?$StrTraitMFC_DLL@DV?$ChTraitsCRT@D@ATL@@@@@ATL@@ABN@Z ; CDataConversion::DoubleToString
  00537	83 c4 08	 add	 esp, 8
  0053a	8b f0		 mov	 esi, eax
; File C:\Program Files (x86)\Microsoft Visual Studio\2019\Community\VC\Tools\MSVC\14.29.30133\atlmfc\include\cstringt.h

; 2401 : 		CStringT strResult( str1.GetManager() );

  0053c	8b ce		 mov	 ecx, esi
; File D:\git\src\IBK\IBK_DRFN\ProjSrc\SrcChartEx\ChartAddIn\ChartDesignPropertyAddIn\ChartDesignPropertyAddIn\DataOfChartListPage.cpp

; 225  : 	strValue +=	CDataConversion::DoubleToString(	pItem->m_dHogaNumber)		+ ";";

  0053e	c7 45 fc 17 00
	00 00		 mov	 DWORD PTR __$EHRec$[ebp+8], 23 ; 00000017H
; File C:\Program Files (x86)\Microsoft Visual Studio\2019\Community\VC\Tools\MSVC\14.29.30133\atlmfc\include\cstringt.h

; 2401 : 		CStringT strResult( str1.GetManager() );

  00545	ff 15 00 00 00
	00		 call	 DWORD PTR __imp_?GetManager@?$CStringT@DV?$StrTraitMFC_DLL@DV?$ChTraitsCRT@D@ATL@@@@@ATL@@QBEPAUIAtlStringMgr@2@XZ
  0054b	50		 push	 eax
  0054c	8d 4d 0c	 lea	 ecx, DWORD PTR $T22[ebp]
  0054f	ff 15 00 00 00
	00		 call	 DWORD PTR __imp_??0?$CStringT@DV?$StrTraitMFC_DLL@DV?$ChTraitsCRT@D@ATL@@@@@ATL@@QAE@PAUIAtlStringMgr@1@@Z
; File C:\Program Files (x86)\Microsoft Visual Studio\2019\Community\VC\Tools\MSVC\14.29.30133\atlmfc\include\atlsimpstr.h

; 519  : 		return( GetData()->nDataLength );

  00555	8b 06		 mov	 eax, DWORD PTR [esi]
; File C:\Program Files (x86)\Microsoft Visual Studio\2019\Community\VC\Tools\MSVC\14.29.30133\atlmfc\include\cstringt.h

; 2403 : 		CThisSimpleString::Concatenate( strResult, str1, str1.GetLength(), psz2, CThisSimpleString::StringLength( psz2 ) );

  00557	6a 01		 push	 1
  00559	68 00 00 00 00	 push	 OFFSET ??_C@_01ICJEACDI@?$DL@

; 2404 : 
; 2405 : 		return( strResult );

  0055e	c7 45 f0 01 08
	00 00		 mov	 DWORD PTR $T18[ebp], 2049 ; 00000801H
  00565	ff 70 f4	 push	 DWORD PTR [eax-12]
  00568	50		 push	 eax
  00569	8d 45 0c	 lea	 eax, DWORD PTR $T22[ebp]
  0056c	50		 push	 eax
  0056d	ff 15 00 00 00
	00		 call	 DWORD PTR __imp_?Concatenate@?$CSimpleStringT@D$00@ATL@@KAXAAV12@PBDH1H@Z
  00573	83 c4 14	 add	 esp, 20			; 00000014H
; File D:\git\src\IBK\IBK_DRFN\ProjSrc\SrcChartEx\ChartAddIn\ChartDesignPropertyAddIn\ChartDesignPropertyAddIn\DataOfChartListPage.cpp

; 225  : 	strValue +=	CDataConversion::DoubleToString(	pItem->m_dHogaNumber)		+ ";";

  00576	8d 45 0c	 lea	 eax, DWORD PTR $T22[ebp]
  00579	8b cb		 mov	 ecx, ebx
  0057b	50		 push	 eax
  0057c	ff 15 00 00 00
	00		 call	 DWORD PTR __imp_??Y?$CStringT@DV?$StrTraitMFC_DLL@DV?$ChTraitsCRT@D@ATL@@@@@ATL@@QAEAAV01@ABV?$CSimpleStringT@D$00@1@@Z
  00582	8d 4d 0c	 lea	 ecx, DWORD PTR $T22[ebp]
  00585	c7 45 f0 01 00
	00 00		 mov	 DWORD PTR $T18[ebp], 1
  0058c	ff 15 00 00 00
	00		 call	 DWORD PTR __imp_??1?$CStringT@DV?$StrTraitMFC_DLL@DV?$ChTraitsCRT@D@ATL@@@@@ATL@@QAE@XZ
  00592	c6 45 fc 00	 mov	 BYTE PTR __$EHRec$[ebp+8], 0
  00596	8d 4d e8	 lea	 ecx, DWORD PTR $T6[ebp]
  00599	ff 15 00 00 00
	00		 call	 DWORD PTR __imp_??1?$CStringT@DV?$StrTraitMFC_DLL@DV?$ChTraitsCRT@D@ATL@@@@@ATL@@QAE@XZ

; 226  : 	strValue +=	CDataConversion::DoubleToString(	pItem->m_dUserNumber)		+ ";";

  0059f	8d 87 98 00 00
	00		 lea	 eax, DWORD PTR [edi+152]
  005a5	50		 push	 eax
  005a6	8d 45 e8	 lea	 eax, DWORD PTR $T5[ebp]
  005a9	50		 push	 eax
  005aa	e8 00 00 00 00	 call	 ?DoubleToString@CDataConversion@@SA?AV?$CStringT@DV?$StrTraitMFC_DLL@DV?$ChTraitsCRT@D@ATL@@@@@ATL@@ABN@Z ; CDataConversion::DoubleToString
  005af	83 c4 08	 add	 esp, 8
  005b2	8b f0		 mov	 esi, eax
; File C:\Program Files (x86)\Microsoft Visual Studio\2019\Community\VC\Tools\MSVC\14.29.30133\atlmfc\include\cstringt.h

; 2401 : 		CStringT strResult( str1.GetManager() );

  005b4	8b ce		 mov	 ecx, esi
; File D:\git\src\IBK\IBK_DRFN\ProjSrc\SrcChartEx\ChartAddIn\ChartDesignPropertyAddIn\ChartDesignPropertyAddIn\DataOfChartListPage.cpp

; 226  : 	strValue +=	CDataConversion::DoubleToString(	pItem->m_dUserNumber)		+ ";";

  005b6	c7 45 fc 19 00
	00 00		 mov	 DWORD PTR __$EHRec$[ebp+8], 25 ; 00000019H
; File C:\Program Files (x86)\Microsoft Visual Studio\2019\Community\VC\Tools\MSVC\14.29.30133\atlmfc\include\cstringt.h

; 2401 : 		CStringT strResult( str1.GetManager() );

  005bd	ff 15 00 00 00
	00		 call	 DWORD PTR __imp_?GetManager@?$CStringT@DV?$StrTraitMFC_DLL@DV?$ChTraitsCRT@D@ATL@@@@@ATL@@QBEPAUIAtlStringMgr@2@XZ
  005c3	50		 push	 eax
  005c4	8d 4d 0c	 lea	 ecx, DWORD PTR $T21[ebp]
  005c7	ff 15 00 00 00
	00		 call	 DWORD PTR __imp_??0?$CStringT@DV?$StrTraitMFC_DLL@DV?$ChTraitsCRT@D@ATL@@@@@ATL@@QAE@PAUIAtlStringMgr@1@@Z
; File C:\Program Files (x86)\Microsoft Visual Studio\2019\Community\VC\Tools\MSVC\14.29.30133\atlmfc\include\atlsimpstr.h

; 519  : 		return( GetData()->nDataLength );

  005cd	8b 06		 mov	 eax, DWORD PTR [esi]
; File C:\Program Files (x86)\Microsoft Visual Studio\2019\Community\VC\Tools\MSVC\14.29.30133\atlmfc\include\cstringt.h

; 2403 : 		CThisSimpleString::Concatenate( strResult, str1, str1.GetLength(), psz2, CThisSimpleString::StringLength( psz2 ) );

  005cf	6a 01		 push	 1
  005d1	68 00 00 00 00	 push	 OFFSET ??_C@_01ICJEACDI@?$DL@

; 2404 : 
; 2405 : 		return( strResult );

  005d6	c7 45 f0 01 10
	00 00		 mov	 DWORD PTR $T18[ebp], 4097 ; 00001001H
  005dd	ff 70 f4	 push	 DWORD PTR [eax-12]
  005e0	50		 push	 eax
  005e1	8d 45 0c	 lea	 eax, DWORD PTR $T21[ebp]
  005e4	50		 push	 eax
  005e5	ff 15 00 00 00
	00		 call	 DWORD PTR __imp_?Concatenate@?$CSimpleStringT@D$00@ATL@@KAXAAV12@PBDH1H@Z
  005eb	83 c4 14	 add	 esp, 20			; 00000014H
; File D:\git\src\IBK\IBK_DRFN\ProjSrc\SrcChartEx\ChartAddIn\ChartDesignPropertyAddIn\ChartDesignPropertyAddIn\DataOfChartListPage.cpp

; 226  : 	strValue +=	CDataConversion::DoubleToString(	pItem->m_dUserNumber)		+ ";";

  005ee	8d 45 0c	 lea	 eax, DWORD PTR $T21[ebp]
  005f1	8b cb		 mov	 ecx, ebx
  005f3	50		 push	 eax
  005f4	ff 15 00 00 00
	00		 call	 DWORD PTR __imp_??Y?$CStringT@DV?$StrTraitMFC_DLL@DV?$ChTraitsCRT@D@ATL@@@@@ATL@@QAEAAV01@ABV?$CSimpleStringT@D$00@1@@Z
  005fa	8d 4d 0c	 lea	 ecx, DWORD PTR $T21[ebp]
  005fd	c7 45 f0 01 00
	00 00		 mov	 DWORD PTR $T18[ebp], 1
  00604	ff 15 00 00 00
	00		 call	 DWORD PTR __imp_??1?$CStringT@DV?$StrTraitMFC_DLL@DV?$ChTraitsCRT@D@ATL@@@@@ATL@@QAE@XZ
  0060a	8d 4d e8	 lea	 ecx, DWORD PTR $T5[ebp]
  0060d	c6 45 fc 00	 mov	 BYTE PTR __$EHRec$[ebp+8], 0
  00611	ff 15 00 00 00
	00		 call	 DWORD PTR __imp_??1?$CStringT@DV?$StrTraitMFC_DLL@DV?$ChTraitsCRT@D@ATL@@@@@ATL@@QAE@XZ

; 227  : 	strValue +=	CDataConversion::IntToString(		pItem->m_nUserHogaType)		+ ";";

  00617	ff b7 a0 00 00
	00		 push	 DWORD PTR [edi+160]
  0061d	8d 45 e8	 lea	 eax, DWORD PTR $T4[ebp]
  00620	50		 push	 eax
  00621	e8 00 00 00 00	 call	 ?IntToString@CDataConversion@@SA?AV?$CStringT@DV?$StrTraitMFC_DLL@DV?$ChTraitsCRT@D@ATL@@@@@ATL@@H@Z ; CDataConversion::IntToString
  00626	83 c4 08	 add	 esp, 8
  00629	8b f0		 mov	 esi, eax
; File C:\Program Files (x86)\Microsoft Visual Studio\2019\Community\VC\Tools\MSVC\14.29.30133\atlmfc\include\cstringt.h

; 2401 : 		CStringT strResult( str1.GetManager() );

  0062b	8b ce		 mov	 ecx, esi
; File D:\git\src\IBK\IBK_DRFN\ProjSrc\SrcChartEx\ChartAddIn\ChartDesignPropertyAddIn\ChartDesignPropertyAddIn\DataOfChartListPage.cpp

; 227  : 	strValue +=	CDataConversion::IntToString(		pItem->m_nUserHogaType)		+ ";";

  0062d	c7 45 fc 1b 00
	00 00		 mov	 DWORD PTR __$EHRec$[ebp+8], 27 ; 0000001bH
; File C:\Program Files (x86)\Microsoft Visual Studio\2019\Community\VC\Tools\MSVC\14.29.30133\atlmfc\include\cstringt.h

; 2401 : 		CStringT strResult( str1.GetManager() );

  00634	ff 15 00 00 00
	00		 call	 DWORD PTR __imp_?GetManager@?$CStringT@DV?$StrTraitMFC_DLL@DV?$ChTraitsCRT@D@ATL@@@@@ATL@@QBEPAUIAtlStringMgr@2@XZ
  0063a	50		 push	 eax
  0063b	8d 4d 0c	 lea	 ecx, DWORD PTR $T20[ebp]
  0063e	ff 15 00 00 00
	00		 call	 DWORD PTR __imp_??0?$CStringT@DV?$StrTraitMFC_DLL@DV?$ChTraitsCRT@D@ATL@@@@@ATL@@QAE@PAUIAtlStringMgr@1@@Z
; File C:\Program Files (x86)\Microsoft Visual Studio\2019\Community\VC\Tools\MSVC\14.29.30133\atlmfc\include\atlsimpstr.h

; 519  : 		return( GetData()->nDataLength );

  00644	8b 06		 mov	 eax, DWORD PTR [esi]
; File C:\Program Files (x86)\Microsoft Visual Studio\2019\Community\VC\Tools\MSVC\14.29.30133\atlmfc\include\cstringt.h

; 2403 : 		CThisSimpleString::Concatenate( strResult, str1, str1.GetLength(), psz2, CThisSimpleString::StringLength( psz2 ) );

  00646	6a 01		 push	 1
  00648	68 00 00 00 00	 push	 OFFSET ??_C@_01ICJEACDI@?$DL@

; 2404 : 
; 2405 : 		return( strResult );

  0064d	c7 45 f0 01 20
	00 00		 mov	 DWORD PTR $T18[ebp], 8193 ; 00002001H
  00654	ff 70 f4	 push	 DWORD PTR [eax-12]
  00657	50		 push	 eax
  00658	8d 45 0c	 lea	 eax, DWORD PTR $T20[ebp]
  0065b	50		 push	 eax
  0065c	ff 15 00 00 00
	00		 call	 DWORD PTR __imp_?Concatenate@?$CSimpleStringT@D$00@ATL@@KAXAAV12@PBDH1H@Z
  00662	83 c4 14	 add	 esp, 20			; 00000014H
; File D:\git\src\IBK\IBK_DRFN\ProjSrc\SrcChartEx\ChartAddIn\ChartDesignPropertyAddIn\ChartDesignPropertyAddIn\DataOfChartListPage.cpp

; 227  : 	strValue +=	CDataConversion::IntToString(		pItem->m_nUserHogaType)		+ ";";

  00665	8d 45 0c	 lea	 eax, DWORD PTR $T20[ebp]
  00668	8b cb		 mov	 ecx, ebx
  0066a	50		 push	 eax
  0066b	ff 15 00 00 00
	00		 call	 DWORD PTR __imp_??Y?$CStringT@DV?$StrTraitMFC_DLL@DV?$ChTraitsCRT@D@ATL@@@@@ATL@@QAEAAV01@ABV?$CSimpleStringT@D$00@1@@Z
  00671	8d 4d 0c	 lea	 ecx, DWORD PTR $T20[ebp]
  00674	c7 45 f0 01 00
	00 00		 mov	 DWORD PTR $T18[ebp], 1
  0067b	ff 15 00 00 00
	00		 call	 DWORD PTR __imp_??1?$CStringT@DV?$StrTraitMFC_DLL@DV?$ChTraitsCRT@D@ATL@@@@@ATL@@QAE@XZ
  00681	8d 4d e8	 lea	 ecx, DWORD PTR $T4[ebp]
  00684	c6 45 fc 00	 mov	 BYTE PTR __$EHRec$[ebp+8], 0
  00688	ff 15 00 00 00
	00		 call	 DWORD PTR __imp_??1?$CStringT@DV?$StrTraitMFC_DLL@DV?$ChTraitsCRT@D@ATL@@@@@ATL@@QAE@XZ

; 230  : 	strValue += CDataConversion::Bool2Str(			pItem->m_bIsInvert)			+ ";";

  0068e	ff b7 a4 00 00
	00		 push	 DWORD PTR [edi+164]
  00694	8d 45 e8	 lea	 eax, DWORD PTR $T3[ebp]
  00697	50		 push	 eax
  00698	e8 00 00 00 00	 call	 ?Bool2Str@CDataConversion@@SA?AV?$CStringT@DV?$StrTraitMFC_DLL@DV?$ChTraitsCRT@D@ATL@@@@@ATL@@H@Z ; CDataConversion::Bool2Str
  0069d	83 c4 08	 add	 esp, 8
  006a0	8b f0		 mov	 esi, eax
; File C:\Program Files (x86)\Microsoft Visual Studio\2019\Community\VC\Tools\MSVC\14.29.30133\atlmfc\include\cstringt.h

; 2401 : 		CStringT strResult( str1.GetManager() );

  006a2	8b ce		 mov	 ecx, esi
; File D:\git\src\IBK\IBK_DRFN\ProjSrc\SrcChartEx\ChartAddIn\ChartDesignPropertyAddIn\ChartDesignPropertyAddIn\DataOfChartListPage.cpp

; 230  : 	strValue += CDataConversion::Bool2Str(			pItem->m_bIsInvert)			+ ";";

  006a4	c7 45 fc 1d 00
	00 00		 mov	 DWORD PTR __$EHRec$[ebp+8], 29 ; 0000001dH
; File C:\Program Files (x86)\Microsoft Visual Studio\2019\Community\VC\Tools\MSVC\14.29.30133\atlmfc\include\cstringt.h

; 2401 : 		CStringT strResult( str1.GetManager() );

  006ab	ff 15 00 00 00
	00		 call	 DWORD PTR __imp_?GetManager@?$CStringT@DV?$StrTraitMFC_DLL@DV?$ChTraitsCRT@D@ATL@@@@@ATL@@QBEPAUIAtlStringMgr@2@XZ
  006b1	50		 push	 eax
  006b2	8d 4d 0c	 lea	 ecx, DWORD PTR $T19[ebp]
  006b5	ff 15 00 00 00
	00		 call	 DWORD PTR __imp_??0?$CStringT@DV?$StrTraitMFC_DLL@DV?$ChTraitsCRT@D@ATL@@@@@ATL@@QAE@PAUIAtlStringMgr@1@@Z
; File C:\Program Files (x86)\Microsoft Visual Studio\2019\Community\VC\Tools\MSVC\14.29.30133\atlmfc\include\atlsimpstr.h

; 519  : 		return( GetData()->nDataLength );

  006bb	8b 06		 mov	 eax, DWORD PTR [esi]
; File C:\Program Files (x86)\Microsoft Visual Studio\2019\Community\VC\Tools\MSVC\14.29.30133\atlmfc\include\cstringt.h

; 2403 : 		CThisSimpleString::Concatenate( strResult, str1, str1.GetLength(), psz2, CThisSimpleString::StringLength( psz2 ) );

  006bd	6a 01		 push	 1
  006bf	68 00 00 00 00	 push	 OFFSET ??_C@_01ICJEACDI@?$DL@

; 2404 : 
; 2405 : 		return( strResult );

  006c4	c7 45 f0 01 40
	00 00		 mov	 DWORD PTR $T18[ebp], 16385 ; 00004001H
  006cb	ff 70 f4	 push	 DWORD PTR [eax-12]
  006ce	50		 push	 eax
  006cf	8d 45 0c	 lea	 eax, DWORD PTR $T19[ebp]
  006d2	50		 push	 eax
  006d3	ff 15 00 00 00
	00		 call	 DWORD PTR __imp_?Concatenate@?$CSimpleStringT@D$00@ATL@@KAXAAV12@PBDH1H@Z
  006d9	83 c4 14	 add	 esp, 20			; 00000014H
; File D:\git\src\IBK\IBK_DRFN\ProjSrc\SrcChartEx\ChartAddIn\ChartDesignPropertyAddIn\ChartDesignPropertyAddIn\DataOfChartListPage.cpp

; 230  : 	strValue += CDataConversion::Bool2Str(			pItem->m_bIsInvert)			+ ";";

  006dc	8d 45 0c	 lea	 eax, DWORD PTR $T19[ebp]
  006df	8b cb		 mov	 ecx, ebx
  006e1	50		 push	 eax
  006e2	ff 15 00 00 00
	00		 call	 DWORD PTR __imp_??Y?$CStringT@DV?$StrTraitMFC_DLL@DV?$ChTraitsCRT@D@ATL@@@@@ATL@@QAEAAV01@ABV?$CSimpleStringT@D$00@1@@Z
  006e8	8d 4d 0c	 lea	 ecx, DWORD PTR $T19[ebp]
  006eb	c7 45 f0 01 00
	00 00		 mov	 DWORD PTR $T18[ebp], 1
  006f2	ff 15 00 00 00
	00		 call	 DWORD PTR __imp_??1?$CStringT@DV?$StrTraitMFC_DLL@DV?$ChTraitsCRT@D@ATL@@@@@ATL@@QAE@XZ
  006f8	8d 4d e8	 lea	 ecx, DWORD PTR $T3[ebp]
  006fb	c6 45 fc 00	 mov	 BYTE PTR __$EHRec$[ebp+8], 0
  006ff	ff 15 00 00 00
	00		 call	 DWORD PTR __imp_??1?$CStringT@DV?$StrTraitMFC_DLL@DV?$ChTraitsCRT@D@ATL@@@@@ATL@@QAE@XZ

; 231  : 
; 232  : 	strValue += "\r\n";

  00705	68 00 00 00 00	 push	 OFFSET ??_C@_02PCIJFNDE@?$AN?6@
  0070a	8b cb		 mov	 ecx, ebx
  0070c	ff 15 00 00 00
	00		 call	 DWORD PTR __imp_??Y?$CStringT@DV?$StrTraitMFC_DLL@DV?$ChTraitsCRT@D@ATL@@@@@ATL@@QAEAAV01@PBD@Z

; 233  : 	return strValue;

  00712	8b c3		 mov	 eax, ebx

; 234  : }

  00714	8b 4d f4	 mov	 ecx, DWORD PTR __$EHRec$[ebp]
  00717	64 89 0d 00 00
	00 00		 mov	 DWORD PTR fs:0, ecx
  0071e	59		 pop	 ecx
  0071f	5f		 pop	 edi
  00720	5e		 pop	 esi
  00721	5b		 pop	 ebx
  00722	8b e5		 mov	 esp, ebp
  00724	5d		 pop	 ebp
  00725	c2 08 00	 ret	 8
_TEXT	ENDS
;	COMDAT text$x
text$x	SEGMENT
__unwindfunclet$?GetVerticalAllData@CDataOfChartListPage@@AAE?AV?$CStringT@DV?$StrTraitMFC_DLL@DV?$ChTraitsCRT@D@ATL@@@@@ATL@@PAVCChartLink@@@Z$0:
  00000	8b 45 f0	 mov	 eax, DWORD PTR $T18[ebp]
  00003	83 e0 01	 and	 eax, 1
  00006	0f 84 0d 00 00
	00		 je	 $LN4@GetVertica
  0000c	83 65 f0 fe	 and	 DWORD PTR $T18[ebp], -2	; fffffffeH
  00010	8b 4d 08	 mov	 ecx, DWORD PTR ___$ReturnUdt$[ebp]
  00013	ff 25 00 00 00
	00		 jmp	 DWORD PTR __imp_??1?$CStringT@DV?$StrTraitMFC_DLL@DV?$ChTraitsCRT@D@ATL@@@@@ATL@@QAE@XZ
$LN4@GetVertica:
  00019	c3		 ret	 0
__unwindfunclet$?GetVerticalAllData@CDataOfChartListPage@@AAE?AV?$CStringT@DV?$StrTraitMFC_DLL@DV?$ChTraitsCRT@D@ATL@@@@@ATL@@PAVCChartLink@@@Z$1:
  0001a	8b 4d e4	 mov	 ecx, DWORD PTR $T2[ebp]
  0001d	ff 25 00 00 00
	00		 jmp	 DWORD PTR __imp_??1?$CStringT@DV?$StrTraitMFC_DLL@DV?$ChTraitsCRT@D@ATL@@@@@ATL@@QAE@XZ
__unwindfunclet$?GetVerticalAllData@CDataOfChartListPage@@AAE?AV?$CStringT@DV?$StrTraitMFC_DLL@DV?$ChTraitsCRT@D@ATL@@@@@ATL@@PAVCChartLink@@@Z$3:
  00023	8d 4d e8	 lea	 ecx, DWORD PTR $T16[ebp]
  00026	ff 25 00 00 00
	00		 jmp	 DWORD PTR __imp_??1?$CStringT@DV?$StrTraitMFC_DLL@DV?$ChTraitsCRT@D@ATL@@@@@ATL@@QAE@XZ
__unwindfunclet$?GetVerticalAllData@CDataOfChartListPage@@AAE?AV?$CStringT@DV?$StrTraitMFC_DLL@DV?$ChTraitsCRT@D@ATL@@@@@ATL@@PAVCChartLink@@@Z$31:
  0002c	8b 45 f0	 mov	 eax, DWORD PTR $T18[ebp]
  0002f	83 e0 02	 and	 eax, 2
  00032	0f 84 0d 00 00
	00		 je	 $LN38@GetVertica
  00038	83 65 f0 fd	 and	 DWORD PTR $T18[ebp], -3	; fffffffdH
  0003c	8d 4d ec	 lea	 ecx, DWORD PTR $T17[ebp]
  0003f	ff 25 00 00 00
	00		 jmp	 DWORD PTR __imp_??1?$CStringT@DV?$StrTraitMFC_DLL@DV?$ChTraitsCRT@D@ATL@@@@@ATL@@QAE@XZ
$LN38@GetVertica:
  00045	c3		 ret	 0
__unwindfunclet$?GetVerticalAllData@CDataOfChartListPage@@AAE?AV?$CStringT@DV?$StrTraitMFC_DLL@DV?$ChTraitsCRT@D@ATL@@@@@ATL@@PAVCChartLink@@@Z$5:
  00046	8d 4d e8	 lea	 ecx, DWORD PTR $T15[ebp]
  00049	ff 25 00 00 00
	00		 jmp	 DWORD PTR __imp_??1?$CStringT@DV?$StrTraitMFC_DLL@DV?$ChTraitsCRT@D@ATL@@@@@ATL@@QAE@XZ
__unwindfunclet$?GetVerticalAllData@CDataOfChartListPage@@AAE?AV?$CStringT@DV?$StrTraitMFC_DLL@DV?$ChTraitsCRT@D@ATL@@@@@ATL@@PAVCChartLink@@@Z$32:
  0004f	8b 45 f0	 mov	 eax, DWORD PTR $T18[ebp]
  00052	83 e0 04	 and	 eax, 4
  00055	0f 84 0d 00 00
	00		 je	 $LN51@GetVertica
  0005b	83 65 f0 fb	 and	 DWORD PTR $T18[ebp], -5	; fffffffbH
  0005f	8d 4d 0c	 lea	 ecx, DWORD PTR $T31[ebp]
  00062	ff 25 00 00 00
	00		 jmp	 DWORD PTR __imp_??1?$CStringT@DV?$StrTraitMFC_DLL@DV?$ChTraitsCRT@D@ATL@@@@@ATL@@QAE@XZ
$LN51@GetVertica:
  00068	c3		 ret	 0
__unwindfunclet$?GetVerticalAllData@CDataOfChartListPage@@AAE?AV?$CStringT@DV?$StrTraitMFC_DLL@DV?$ChTraitsCRT@D@ATL@@@@@ATL@@PAVCChartLink@@@Z$7:
  00069	8d 4d e8	 lea	 ecx, DWORD PTR $T14[ebp]
  0006c	ff 25 00 00 00
	00		 jmp	 DWORD PTR __imp_??1?$CStringT@DV?$StrTraitMFC_DLL@DV?$ChTraitsCRT@D@ATL@@@@@ATL@@QAE@XZ
__unwindfunclet$?GetVerticalAllData@CDataOfChartListPage@@AAE?AV?$CStringT@DV?$StrTraitMFC_DLL@DV?$ChTraitsCRT@D@ATL@@@@@ATL@@PAVCChartLink@@@Z$33:
  00072	8b 45 f0	 mov	 eax, DWORD PTR $T18[ebp]
  00075	83 e0 08	 and	 eax, 8
  00078	0f 84 0d 00 00
	00		 je	 $LN64@GetVertica
  0007e	83 65 f0 f7	 and	 DWORD PTR $T18[ebp], -9	; fffffff7H
  00082	8d 4d 0c	 lea	 ecx, DWORD PTR $T30[ebp]
  00085	ff 25 00 00 00
	00		 jmp	 DWORD PTR __imp_??1?$CStringT@DV?$StrTraitMFC_DLL@DV?$ChTraitsCRT@D@ATL@@@@@ATL@@QAE@XZ
$LN64@GetVertica:
  0008b	c3		 ret	 0
__unwindfunclet$?GetVerticalAllData@CDataOfChartListPage@@AAE?AV?$CStringT@DV?$StrTraitMFC_DLL@DV?$ChTraitsCRT@D@ATL@@@@@ATL@@PAVCChartLink@@@Z$9:
  0008c	8d 4d e8	 lea	 ecx, DWORD PTR $T13[ebp]
  0008f	ff 25 00 00 00
	00		 jmp	 DWORD PTR __imp_??1?$CStringT@DV?$StrTraitMFC_DLL@DV?$ChTraitsCRT@D@ATL@@@@@ATL@@QAE@XZ
__unwindfunclet$?GetVerticalAllData@CDataOfChartListPage@@AAE?AV?$CStringT@DV?$StrTraitMFC_DLL@DV?$ChTraitsCRT@D@ATL@@@@@ATL@@PAVCChartLink@@@Z$34:
  00095	8b 45 f0	 mov	 eax, DWORD PTR $T18[ebp]
  00098	83 e0 10	 and	 eax, 16			; 00000010H
  0009b	0f 84 0d 00 00
	00		 je	 $LN77@GetVertica
  000a1	83 65 f0 ef	 and	 DWORD PTR $T18[ebp], -17 ; ffffffefH
  000a5	8d 4d 0c	 lea	 ecx, DWORD PTR $T29[ebp]
  000a8	ff 25 00 00 00
	00		 jmp	 DWORD PTR __imp_??1?$CStringT@DV?$StrTraitMFC_DLL@DV?$ChTraitsCRT@D@ATL@@@@@ATL@@QAE@XZ
$LN77@GetVertica:
  000ae	c3		 ret	 0
__unwindfunclet$?GetVerticalAllData@CDataOfChartListPage@@AAE?AV?$CStringT@DV?$StrTraitMFC_DLL@DV?$ChTraitsCRT@D@ATL@@@@@ATL@@PAVCChartLink@@@Z$11:
  000af	8d 4d e8	 lea	 ecx, DWORD PTR $T12[ebp]
  000b2	ff 25 00 00 00
	00		 jmp	 DWORD PTR __imp_??1?$CStringT@DV?$StrTraitMFC_DLL@DV?$ChTraitsCRT@D@ATL@@@@@ATL@@QAE@XZ
__unwindfunclet$?GetVerticalAllData@CDataOfChartListPage@@AAE?AV?$CStringT@DV?$StrTraitMFC_DLL@DV?$ChTraitsCRT@D@ATL@@@@@ATL@@PAVCChartLink@@@Z$35:
  000b8	8b 45 f0	 mov	 eax, DWORD PTR $T18[ebp]
  000bb	83 e0 20	 and	 eax, 32			; 00000020H
  000be	0f 84 0d 00 00
	00		 je	 $LN90@GetVertica
  000c4	83 65 f0 df	 and	 DWORD PTR $T18[ebp], -33 ; ffffffdfH
  000c8	8d 4d 0c	 lea	 ecx, DWORD PTR $T28[ebp]
  000cb	ff 25 00 00 00
	00		 jmp	 DWORD PTR __imp_??1?$CStringT@DV?$StrTraitMFC_DLL@DV?$ChTraitsCRT@D@ATL@@@@@ATL@@QAE@XZ
$LN90@GetVertica:
  000d1	c3		 ret	 0
__unwindfunclet$?GetVerticalAllData@CDataOfChartListPage@@AAE?AV?$CStringT@DV?$StrTraitMFC_DLL@DV?$ChTraitsCRT@D@ATL@@@@@ATL@@PAVCChartLink@@@Z$13:
  000d2	8d 4d e8	 lea	 ecx, DWORD PTR $T11[ebp]
  000d5	ff 25 00 00 00
	00		 jmp	 DWORD PTR __imp_??1?$CStringT@DV?$StrTraitMFC_DLL@DV?$ChTraitsCRT@D@ATL@@@@@ATL@@QAE@XZ
__unwindfunclet$?GetVerticalAllData@CDataOfChartListPage@@AAE?AV?$CStringT@DV?$StrTraitMFC_DLL@DV?$ChTraitsCRT@D@ATL@@@@@ATL@@PAVCChartLink@@@Z$36:
  000db	8b 45 f0	 mov	 eax, DWORD PTR $T18[ebp]
  000de	83 e0 40	 and	 eax, 64			; 00000040H
  000e1	0f 84 0d 00 00
	00		 je	 $LN103@GetVertica
  000e7	83 65 f0 bf	 and	 DWORD PTR $T18[ebp], -65 ; ffffffbfH
  000eb	8d 4d 0c	 lea	 ecx, DWORD PTR $T27[ebp]
  000ee	ff 25 00 00 00
	00		 jmp	 DWORD PTR __imp_??1?$CStringT@DV?$StrTraitMFC_DLL@DV?$ChTraitsCRT@D@ATL@@@@@ATL@@QAE@XZ
$LN103@GetVertica:
  000f4	c3		 ret	 0
__unwindfunclet$?GetVerticalAllData@CDataOfChartListPage@@AAE?AV?$CStringT@DV?$StrTraitMFC_DLL@DV?$ChTraitsCRT@D@ATL@@@@@ATL@@PAVCChartLink@@@Z$15:
  000f5	8d 4d e8	 lea	 ecx, DWORD PTR $T10[ebp]
  000f8	ff 25 00 00 00
	00		 jmp	 DWORD PTR __imp_??1?$CStringT@DV?$StrTraitMFC_DLL@DV?$ChTraitsCRT@D@ATL@@@@@ATL@@QAE@XZ
__unwindfunclet$?GetVerticalAllData@CDataOfChartListPage@@AAE?AV?$CStringT@DV?$StrTraitMFC_DLL@DV?$ChTraitsCRT@D@ATL@@@@@ATL@@PAVCChartLink@@@Z$37:
  000fe	8b 45 f0	 mov	 eax, DWORD PTR $T18[ebp]
  00101	25 80 00 00 00	 and	 eax, 128		; 00000080H
  00106	0f 84 10 00 00
	00		 je	 $LN116@GetVertica
  0010c	81 65 f0 7f ff
	ff ff		 and	 DWORD PTR $T18[ebp], -129 ; ffffff7fH
  00113	8d 4d 0c	 lea	 ecx, DWORD PTR $T26[ebp]
  00116	ff 25 00 00 00
	00		 jmp	 DWORD PTR __imp_??1?$CStringT@DV?$StrTraitMFC_DLL@DV?$ChTraitsCRT@D@ATL@@@@@ATL@@QAE@XZ
$LN116@GetVertica:
  0011c	c3		 ret	 0
__unwindfunclet$?GetVerticalAllData@CDataOfChartListPage@@AAE?AV?$CStringT@DV?$StrTraitMFC_DLL@DV?$ChTraitsCRT@D@ATL@@@@@ATL@@PAVCChartLink@@@Z$17:
  0011d	8d 4d e8	 lea	 ecx, DWORD PTR $T9[ebp]
  00120	ff 25 00 00 00
	00		 jmp	 DWORD PTR __imp_??1?$CStringT@DV?$StrTraitMFC_DLL@DV?$ChTraitsCRT@D@ATL@@@@@ATL@@QAE@XZ
__unwindfunclet$?GetVerticalAllData@CDataOfChartListPage@@AAE?AV?$CStringT@DV?$StrTraitMFC_DLL@DV?$ChTraitsCRT@D@ATL@@@@@ATL@@PAVCChartLink@@@Z$38:
  00126	8b 45 f0	 mov	 eax, DWORD PTR $T18[ebp]
  00129	25 00 01 00 00	 and	 eax, 256		; 00000100H
  0012e	0f 84 10 00 00
	00		 je	 $LN129@GetVertica
  00134	81 65 f0 ff fe
	ff ff		 and	 DWORD PTR $T18[ebp], -257 ; fffffeffH
  0013b	8d 4d 0c	 lea	 ecx, DWORD PTR $T25[ebp]
  0013e	ff 25 00 00 00
	00		 jmp	 DWORD PTR __imp_??1?$CStringT@DV?$StrTraitMFC_DLL@DV?$ChTraitsCRT@D@ATL@@@@@ATL@@QAE@XZ
$LN129@GetVertica:
  00144	c3		 ret	 0
__unwindfunclet$?GetVerticalAllData@CDataOfChartListPage@@AAE?AV?$CStringT@DV?$StrTraitMFC_DLL@DV?$ChTraitsCRT@D@ATL@@@@@ATL@@PAVCChartLink@@@Z$19:
  00145	8d 4d e8	 lea	 ecx, DWORD PTR $T8[ebp]
  00148	ff 25 00 00 00
	00		 jmp	 DWORD PTR __imp_??1?$CStringT@DV?$StrTraitMFC_DLL@DV?$ChTraitsCRT@D@ATL@@@@@ATL@@QAE@XZ
__unwindfunclet$?GetVerticalAllData@CDataOfChartListPage@@AAE?AV?$CStringT@DV?$StrTraitMFC_DLL@DV?$ChTraitsCRT@D@ATL@@@@@ATL@@PAVCChartLink@@@Z$39:
  0014e	8b 45 f0	 mov	 eax, DWORD PTR $T18[ebp]
  00151	25 00 02 00 00	 and	 eax, 512		; 00000200H
  00156	0f 84 10 00 00
	00		 je	 $LN142@GetVertica
  0015c	81 65 f0 ff fd
	ff ff		 and	 DWORD PTR $T18[ebp], -513 ; fffffdffH
  00163	8d 4d 0c	 lea	 ecx, DWORD PTR $T24[ebp]
  00166	ff 25 00 00 00
	00		 jmp	 DWORD PTR __imp_??1?$CStringT@DV?$StrTraitMFC_DLL@DV?$ChTraitsCRT@D@ATL@@@@@ATL@@QAE@XZ
$LN142@GetVertica:
  0016c	c3		 ret	 0
__unwindfunclet$?GetVerticalAllData@CDataOfChartListPage@@AAE?AV?$CStringT@DV?$StrTraitMFC_DLL@DV?$ChTraitsCRT@D@ATL@@@@@ATL@@PAVCChartLink@@@Z$21:
  0016d	8d 4d e8	 lea	 ecx, DWORD PTR $T7[ebp]
  00170	ff 25 00 00 00
	00		 jmp	 DWORD PTR __imp_??1?$CStringT@DV?$StrTraitMFC_DLL@DV?$ChTraitsCRT@D@ATL@@@@@ATL@@QAE@XZ
__unwindfunclet$?GetVerticalAllData@CDataOfChartListPage@@AAE?AV?$CStringT@DV?$StrTraitMFC_DLL@DV?$ChTraitsCRT@D@ATL@@@@@ATL@@PAVCChartLink@@@Z$40:
  00176	8b 45 f0	 mov	 eax, DWORD PTR $T18[ebp]
  00179	25 00 04 00 00	 and	 eax, 1024		; 00000400H
  0017e	0f 84 10 00 00
	00		 je	 $LN155@GetVertica
  00184	81 65 f0 ff fb
	ff ff		 and	 DWORD PTR $T18[ebp], -1025 ; fffffbffH
  0018b	8d 4d 0c	 lea	 ecx, DWORD PTR $T23[ebp]
  0018e	ff 25 00 00 00
	00		 jmp	 DWORD PTR __imp_??1?$CStringT@DV?$StrTraitMFC_DLL@DV?$ChTraitsCRT@D@ATL@@@@@ATL@@QAE@XZ
$LN155@GetVertica:
  00194	c3		 ret	 0
__unwindfunclet$?GetVerticalAllData@CDataOfChartListPage@@AAE?AV?$CStringT@DV?$StrTraitMFC_DLL@DV?$ChTraitsCRT@D@ATL@@@@@ATL@@PAVCChartLink@@@Z$23:
  00195	8d 4d e8	 lea	 ecx, DWORD PTR $T6[ebp]
  00198	ff 25 00 00 00
	00		 jmp	 DWORD PTR __imp_??1?$CStringT@DV?$StrTraitMFC_DLL@DV?$ChTraitsCRT@D@ATL@@@@@ATL@@QAE@XZ
__unwindfunclet$?GetVerticalAllData@CDataOfChartListPage@@AAE?AV?$CStringT@DV?$StrTraitMFC_DLL@DV?$ChTraitsCRT@D@ATL@@@@@ATL@@PAVCChartLink@@@Z$41:
  0019e	8b 45 f0	 mov	 eax, DWORD PTR $T18[ebp]
  001a1	25 00 08 00 00	 and	 eax, 2048		; 00000800H
  001a6	0f 84 10 00 00
	00		 je	 $LN168@GetVertica
  001ac	81 65 f0 ff f7
	ff ff		 and	 DWORD PTR $T18[ebp], -2049 ; fffff7ffH
  001b3	8d 4d 0c	 lea	 ecx, DWORD PTR $T22[ebp]
  001b6	ff 25 00 00 00
	00		 jmp	 DWORD PTR __imp_??1?$CStringT@DV?$StrTraitMFC_DLL@DV?$ChTraitsCRT@D@ATL@@@@@ATL@@QAE@XZ
$LN168@GetVertica:
  001bc	c3		 ret	 0
__unwindfunclet$?GetVerticalAllData@CDataOfChartListPage@@AAE?AV?$CStringT@DV?$StrTraitMFC_DLL@DV?$ChTraitsCRT@D@ATL@@@@@ATL@@PAVCChartLink@@@Z$25:
  001bd	8d 4d e8	 lea	 ecx, DWORD PTR $T5[ebp]
  001c0	ff 25 00 00 00
	00		 jmp	 DWORD PTR __imp_??1?$CStringT@DV?$StrTraitMFC_DLL@DV?$ChTraitsCRT@D@ATL@@@@@ATL@@QAE@XZ
__unwindfunclet$?GetVerticalAllData@CDataOfChartListPage@@AAE?AV?$CStringT@DV?$StrTraitMFC_DLL@DV?$ChTraitsCRT@D@ATL@@@@@ATL@@PAVCChartLink@@@Z$42:
  001c6	8b 45 f0	 mov	 eax, DWORD PTR $T18[ebp]
  001c9	25 00 10 00 00	 and	 eax, 4096		; 00001000H
  001ce	0f 84 10 00 00
	00		 je	 $LN181@GetVertica
  001d4	81 65 f0 ff ef
	ff ff		 and	 DWORD PTR $T18[ebp], -4097 ; ffffefffH
  001db	8d 4d 0c	 lea	 ecx, DWORD PTR $T21[ebp]
  001de	ff 25 00 00 00
	00		 jmp	 DWORD PTR __imp_??1?$CStringT@DV?$StrTraitMFC_DLL@DV?$ChTraitsCRT@D@ATL@@@@@ATL@@QAE@XZ
$LN181@GetVertica:
  001e4	c3		 ret	 0
__unwindfunclet$?GetVerticalAllData@CDataOfChartListPage@@AAE?AV?$CStringT@DV?$StrTraitMFC_DLL@DV?$ChTraitsCRT@D@ATL@@@@@ATL@@PAVCChartLink@@@Z$27:
  001e5	8d 4d e8	 lea	 ecx, DWORD PTR $T4[ebp]
  001e8	ff 25 00 00 00
	00		 jmp	 DWORD PTR __imp_??1?$CStringT@DV?$StrTraitMFC_DLL@DV?$ChTraitsCRT@D@ATL@@@@@ATL@@QAE@XZ
__unwindfunclet$?GetVerticalAllData@CDataOfChartListPage@@AAE?AV?$CStringT@DV?$StrTraitMFC_DLL@DV?$ChTraitsCRT@D@ATL@@@@@ATL@@PAVCChartLink@@@Z$43:
  001ee	8b 45 f0	 mov	 eax, DWORD PTR $T18[ebp]
  001f1	25 00 20 00 00	 and	 eax, 8192		; 00002000H
  001f6	0f 84 10 00 00
	00		 je	 $LN194@GetVertica
  001fc	81 65 f0 ff df
	ff ff		 and	 DWORD PTR $T18[ebp], -8193 ; ffffdfffH
  00203	8d 4d 0c	 lea	 ecx, DWORD PTR $T20[ebp]
  00206	ff 25 00 00 00
	00		 jmp	 DWORD PTR __imp_??1?$CStringT@DV?$StrTraitMFC_DLL@DV?$ChTraitsCRT@D@ATL@@@@@ATL@@QAE@XZ
$LN194@GetVertica:
  0020c	c3		 ret	 0
__unwindfunclet$?GetVerticalAllData@CDataOfChartListPage@@AAE?AV?$CStringT@DV?$StrTraitMFC_DLL@DV?$ChTraitsCRT@D@ATL@@@@@ATL@@PAVCChartLink@@@Z$29:
  0020d	8d 4d e8	 lea	 ecx, DWORD PTR $T3[ebp]
  00210	ff 25 00 00 00
	00		 jmp	 DWORD PTR __imp_??1?$CStringT@DV?$StrTraitMFC_DLL@DV?$ChTraitsCRT@D@ATL@@@@@ATL@@QAE@XZ
__unwindfunclet$?GetVerticalAllData@CDataOfChartListPage@@AAE?AV?$CStringT@DV?$StrTraitMFC_DLL@DV?$ChTraitsCRT@D@ATL@@@@@ATL@@PAVCChartLink@@@Z$44:
  00216	8b 45 f0	 mov	 eax, DWORD PTR $T18[ebp]
  00219	25 00 40 00 00	 and	 eax, 16384		; 00004000H
  0021e	0f 84 10 00 00
	00		 je	 $LN207@GetVertica
  00224	81 65 f0 ff bf
	ff ff		 and	 DWORD PTR $T18[ebp], -16385 ; ffffbfffH
  0022b	8d 4d 0c	 lea	 ecx, DWORD PTR $T19[ebp]
  0022e	ff 25 00 00 00
	00		 jmp	 DWORD PTR __imp_??1?$CStringT@DV?$StrTraitMFC_DLL@DV?$ChTraitsCRT@D@ATL@@@@@ATL@@QAE@XZ
$LN207@GetVertica:
  00234	c3		 ret	 0
  00235	cc		 int	 3
  00236	cc		 int	 3
  00237	cc		 int	 3
  00238	cc		 int	 3
  00239	cc		 int	 3
__ehhandler$?GetVerticalAllData@CDataOfChartListPage@@AAE?AV?$CStringT@DV?$StrTraitMFC_DLL@DV?$ChTraitsCRT@D@ATL@@@@@ATL@@PAVCChartLink@@@Z:
  0023a	90		 npad	 1
  0023b	90		 npad	 1
  0023c	8b 54 24 08	 mov	 edx, DWORD PTR [esp+8]
  00240	8d 42 0c	 lea	 eax, DWORD PTR [edx+12]
  00243	8b 4a dc	 mov	 ecx, DWORD PTR [edx-36]
  00246	33 c8		 xor	 ecx, eax
  00248	e8 00 00 00 00	 call	 @__security_check_cookie@4
  0024d	b8 00 00 00 00	 mov	 eax, OFFSET __ehfuncinfo$?GetVerticalAllData@CDataOfChartListPage@@AAE?AV?$CStringT@DV?$StrTraitMFC_DLL@DV?$ChTraitsCRT@D@ATL@@@@@ATL@@PAVCChartLink@@@Z
  00252	e9 00 00 00 00	 jmp	 ___CxxFrameHandler3
text$x	ENDS
?GetVerticalAllData@CDataOfChartListPage@@AAE?AV?$CStringT@DV?$StrTraitMFC_DLL@DV?$ChTraitsCRT@D@ATL@@@@@ATL@@PAVCChartLink@@@Z ENDP ; CDataOfChartListPage::GetVerticalAllData
; Function compile flags: /Ogtp
; File D:\git\src\IBK\IBK_DRFN\ProjSrc\SrcChartEx\ChartAddIn\ChartDesignPropertyAddIn\ChartDesignPropertyAddIn\DataOfChartListPage.cpp
; File C:\Program Files (x86)\Microsoft Visual Studio\2019\Community\VC\Tools\MSVC\14.29.30133\atlmfc\include\cstringt.h
; File D:\git\src\IBK\IBK_DRFN\ProjSrc\SrcChartEx\ChartAddIn\ChartDesignPropertyAddIn\ChartDesignPropertyAddIn\DataOfChartListPage.cpp
; File C:\Program Files (x86)\Microsoft Visual Studio\2019\Community\VC\Tools\MSVC\14.29.30133\atlmfc\include\cstringt.h
; File C:\Program Files (x86)\Microsoft Visual Studio\2019\Community\VC\Tools\MSVC\14.29.30133\atlmfc\include\atlsimpstr.h
; File C:\Program Files (x86)\Microsoft Visual Studio\2019\Community\VC\Tools\MSVC\14.29.30133\atlmfc\include\cstringt.h
; File D:\git\src\IBK\IBK_DRFN\ProjSrc\SrcChartEx\ChartAddIn\ChartDesignPropertyAddIn\ChartDesignPropertyAddIn\DataOfChartListPage.cpp
; File C:\Program Files (x86)\Microsoft Visual Studio\2019\Community\VC\Tools\MSVC\14.29.30133\atlmfc\include\cstringt.h
; File D:\git\src\IBK\IBK_DRFN\ProjSrc\SrcChartEx\ChartAddIn\ChartDesignPropertyAddIn\ChartDesignPropertyAddIn\DataOfChartListPage.cpp
; File C:\Program Files (x86)\Microsoft Visual Studio\2019\Community\VC\Tools\MSVC\14.29.30133\atlmfc\include\cstringt.h
; File C:\Program Files (x86)\Microsoft Visual Studio\2019\Community\VC\Tools\MSVC\14.29.30133\atlmfc\include\atlsimpstr.h
; File C:\Program Files (x86)\Microsoft Visual Studio\2019\Community\VC\Tools\MSVC\14.29.30133\atlmfc\include\cstringt.h
; File D:\git\src\IBK\IBK_DRFN\ProjSrc\SrcChartEx\ChartAddIn\ChartDesignPropertyAddIn\ChartDesignPropertyAddIn\DataOfChartListPage.cpp
; File C:\Program Files (x86)\Microsoft Visual Studio\2019\Community\VC\Tools\MSVC\14.29.30133\atlmfc\include\cstringt.h
; File C:\Program Files (x86)\Microsoft Visual Studio\2019\Community\VC\Tools\MSVC\14.29.30133\atlmfc\include\atlsimpstr.h
; File C:\Program Files (x86)\Microsoft Visual Studio\2019\Community\VC\Tools\MSVC\14.29.30133\atlmfc\include\cstringt.h
; File D:\git\src\IBK\IBK_DRFN\ProjSrc\SrcChartEx\ChartAddIn\ChartDesignPropertyAddIn\ChartDesignPropertyAddIn\DataOfChartListPage.cpp
; File C:\Program Files (x86)\Microsoft Visual Studio\2019\Community\VC\Tools\MSVC\14.29.30133\atlmfc\include\cstringt.h
; File D:\git\src\IBK\IBK_DRFN\ProjSrc\SrcChartEx\ChartAddIn\ChartDesignPropertyAddIn\ChartDesignPropertyAddIn\DataOfChartListPage.cpp
; File C:\Program Files (x86)\Microsoft Visual Studio\2019\Community\VC\Tools\MSVC\14.29.30133\atlmfc\include\cstringt.h
; File C:\Program Files (x86)\Microsoft Visual Studio\2019\Community\VC\Tools\MSVC\14.29.30133\atlmfc\include\atlsimpstr.h
; File C:\Program Files (x86)\Microsoft Visual Studio\2019\Community\VC\Tools\MSVC\14.29.30133\atlmfc\include\cstringt.h
; File D:\git\src\IBK\IBK_DRFN\ProjSrc\SrcChartEx\ChartAddIn\ChartDesignPropertyAddIn\ChartDesignPropertyAddIn\DataOfChartListPage.cpp
; File C:\Program Files (x86)\Microsoft Visual Studio\2019\Community\VC\Tools\MSVC\14.29.30133\atlmfc\include\cstringt.h
; File D:\git\src\IBK\IBK_DRFN\ProjSrc\SrcChartEx\ChartAddIn\ChartDesignPropertyAddIn\ChartDesignPropertyAddIn\DataOfChartListPage.cpp
; File C:\Program Files (x86)\Microsoft Visual Studio\2019\Community\VC\Tools\MSVC\14.29.30133\atlmfc\include\cstringt.h
; File C:\Program Files (x86)\Microsoft Visual Studio\2019\Community\VC\Tools\MSVC\14.29.30133\atlmfc\include\atlsimpstr.h
; File C:\Program Files (x86)\Microsoft Visual Studio\2019\Community\VC\Tools\MSVC\14.29.30133\atlmfc\include\cstringt.h
; File D:\git\src\IBK\IBK_DRFN\ProjSrc\SrcChartEx\ChartAddIn\ChartDesignPropertyAddIn\ChartDesignPropertyAddIn\DataOfChartListPage.cpp
; File C:\Program Files (x86)\Microsoft Visual Studio\2019\Community\VC\Tools\MSVC\14.29.30133\atlmfc\include\cstringt.h
; File D:\git\src\IBK\IBK_DRFN\ProjSrc\SrcChartEx\ChartAddIn\ChartDesignPropertyAddIn\ChartDesignPropertyAddIn\DataOfChartListPage.cpp
; File C:\Program Files (x86)\Microsoft Visual Studio\2019\Community\VC\Tools\MSVC\14.29.30133\atlmfc\include\cstringt.h
; File C:\Program Files (x86)\Microsoft Visual Studio\2019\Community\VC\Tools\MSVC\14.29.30133\atlmfc\include\atlsimpstr.h
; File C:\Program Files (x86)\Microsoft Visual Studio\2019\Community\VC\Tools\MSVC\14.29.30133\atlmfc\include\cstringt.h
; File D:\git\src\IBK\IBK_DRFN\ProjSrc\SrcChartEx\ChartAddIn\ChartDesignPropertyAddIn\ChartDesignPropertyAddIn\DataOfChartListPage.cpp
; File C:\Program Files (x86)\Microsoft Visual Studio\2019\Community\VC\Tools\MSVC\14.29.30133\atlmfc\include\cstringt.h
; File D:\git\src\IBK\IBK_DRFN\ProjSrc\SrcChartEx\ChartAddIn\ChartDesignPropertyAddIn\ChartDesignPropertyAddIn\DataOfChartListPage.cpp
; File C:\Program Files (x86)\Microsoft Visual Studio\2019\Community\VC\Tools\MSVC\14.29.30133\atlmfc\include\cstringt.h
; File C:\Program Files (x86)\Microsoft Visual Studio\2019\Community\VC\Tools\MSVC\14.29.30133\atlmfc\include\atlsimpstr.h
; File C:\Program Files (x86)\Microsoft Visual Studio\2019\Community\VC\Tools\MSVC\14.29.30133\atlmfc\include\cstringt.h
; File D:\git\src\IBK\IBK_DRFN\ProjSrc\SrcChartEx\ChartAddIn\ChartDesignPropertyAddIn\ChartDesignPropertyAddIn\DataOfChartListPage.cpp
; File C:\Program Files (x86)\Microsoft Visual Studio\2019\Community\VC\Tools\MSVC\14.29.30133\atlmfc\include\cstringt.h
; File D:\git\src\IBK\IBK_DRFN\ProjSrc\SrcChartEx\ChartAddIn\ChartDesignPropertyAddIn\ChartDesignPropertyAddIn\DataOfChartListPage.cpp
; File C:\Program Files (x86)\Microsoft Visual Studio\2019\Community\VC\Tools\MSVC\14.29.30133\atlmfc\include\cstringt.h
; File C:\Program Files (x86)\Microsoft Visual Studio\2019\Community\VC\Tools\MSVC\14.29.30133\atlmfc\include\atlsimpstr.h
; File C:\Program Files (x86)\Microsoft Visual Studio\2019\Community\VC\Tools\MSVC\14.29.30133\atlmfc\include\cstringt.h
; File D:\git\src\IBK\IBK_DRFN\ProjSrc\SrcChartEx\ChartAddIn\ChartDesignPropertyAddIn\ChartDesignPropertyAddIn\DataOfChartListPage.cpp
; File C:\Program Files (x86)\Microsoft Visual Studio\2019\Community\VC\Tools\MSVC\14.29.30133\atlmfc\include\cstringt.h
; File D:\git\src\IBK\IBK_DRFN\ProjSrc\SrcChartEx\ChartAddIn\ChartDesignPropertyAddIn\ChartDesignPropertyAddIn\DataOfChartListPage.cpp
; File C:\Program Files (x86)\Microsoft Visual Studio\2019\Community\VC\Tools\MSVC\14.29.30133\atlmfc\include\cstringt.h
; File C:\Program Files (x86)\Microsoft Visual Studio\2019\Community\VC\Tools\MSVC\14.29.30133\atlmfc\include\atlsimpstr.h
; File C:\Program Files (x86)\Microsoft Visual Studio\2019\Community\VC\Tools\MSVC\14.29.30133\atlmfc\include\cstringt.h
; File D:\git\src\IBK\IBK_DRFN\ProjSrc\SrcChartEx\ChartAddIn\ChartDesignPropertyAddIn\ChartDesignPropertyAddIn\DataOfChartListPage.cpp
; File C:\Program Files (x86)\Microsoft Visual Studio\2019\Community\VC\Tools\MSVC\14.29.30133\atlmfc\include\cstringt.h
; File D:\git\src\IBK\IBK_DRFN\ProjSrc\SrcChartEx\ChartAddIn\ChartDesignPropertyAddIn\ChartDesignPropertyAddIn\DataOfChartListPage.cpp
; File C:\Program Files (x86)\Microsoft Visual Studio\2019\Community\VC\Tools\MSVC\14.29.30133\atlmfc\include\cstringt.h
; File C:\Program Files (x86)\Microsoft Visual Studio\2019\Community\VC\Tools\MSVC\14.29.30133\atlmfc\include\atlsimpstr.h
; File C:\Program Files (x86)\Microsoft Visual Studio\2019\Community\VC\Tools\MSVC\14.29.30133\atlmfc\include\cstringt.h
; File D:\git\src\IBK\IBK_DRFN\ProjSrc\SrcChartEx\ChartAddIn\ChartDesignPropertyAddIn\ChartDesignPropertyAddIn\DataOfChartListPage.cpp
; File C:\Program Files (x86)\Microsoft Visual Studio\2019\Community\VC\Tools\MSVC\14.29.30133\atlmfc\include\cstringt.h
; File D:\git\src\IBK\IBK_DRFN\ProjSrc\SrcChartEx\ChartAddIn\ChartDesignPropertyAddIn\ChartDesignPropertyAddIn\DataOfChartListPage.cpp
; File C:\Program Files (x86)\Microsoft Visual Studio\2019\Community\VC\Tools\MSVC\14.29.30133\atlmfc\include\cstringt.h
; File C:\Program Files (x86)\Microsoft Visual Studio\2019\Community\VC\Tools\MSVC\14.29.30133\atlmfc\include\atlsimpstr.h
; File C:\Program Files (x86)\Microsoft Visual Studio\2019\Community\VC\Tools\MSVC\14.29.30133\atlmfc\include\cstringt.h
; File D:\git\src\IBK\IBK_DRFN\ProjSrc\SrcChartEx\ChartAddIn\ChartDesignPropertyAddIn\ChartDesignPropertyAddIn\DataOfChartListPage.cpp
;	COMDAT ?GetGraphAllData@CDataOfChartListPage@@AAE?AV?$CStringT@DV?$StrTraitMFC_DLL@DV?$ChTraitsCRT@D@ATL@@@@@ATL@@PAVCChartLink@@@Z
_TEXT	SEGMENT
$T2 = -20						; size = 4
$T3 = -20						; size = 4
$T4 = -20						; size = 4
$T5 = -20						; size = 4
$T6 = -20						; size = 4
$T7 = -20						; size = 4
$T8 = -20						; size = 4
$T9 = -20						; size = 4
$T10 = -16						; size = 4
__$EHRec$ = -12						; size = 12
___$ReturnUdt$ = 8					; size = 4
$T11 = 12						; size = 4
$T12 = 12						; size = 4
$T13 = 12						; size = 4
$T14 = 12						; size = 4
$T15 = 12						; size = 4
$T16 = 12						; size = 4
$T17 = 12						; size = 4
$T18 = 12						; size = 4
$T19 = 12						; size = 4
$T20 = 12						; size = 4
_pItem$ = 12						; size = 4
?GetGraphAllData@CDataOfChartListPage@@AAE?AV?$CStringT@DV?$StrTraitMFC_DLL@DV?$ChTraitsCRT@D@ATL@@@@@ATL@@PAVCChartLink@@@Z PROC ; CDataOfChartListPage::GetGraphAllData, COMDAT
; _this$ = ecx

; 163  : {

  00000	55		 push	 ebp
  00001	8b ec		 mov	 ebp, esp
  00003	6a ff		 push	 -1
  00005	68 00 00 00 00	 push	 __ehhandler$?GetGraphAllData@CDataOfChartListPage@@AAE?AV?$CStringT@DV?$StrTraitMFC_DLL@DV?$ChTraitsCRT@D@ATL@@@@@ATL@@PAVCChartLink@@@Z
  0000a	64 a1 00 00 00
	00		 mov	 eax, DWORD PTR fs:0
  00010	50		 push	 eax
  00011	83 ec 08	 sub	 esp, 8
  00014	53		 push	 ebx
  00015	56		 push	 esi
  00016	57		 push	 edi
  00017	a1 00 00 00 00	 mov	 eax, DWORD PTR ___security_cookie
  0001c	33 c5		 xor	 eax, ebp
  0001e	50		 push	 eax
  0001f	8d 45 f4	 lea	 eax, DWORD PTR __$EHRec$[ebp]
  00022	64 a3 00 00 00
	00		 mov	 DWORD PTR fs:0, eax
  00028	c7 45 f0 00 00
	00 00		 mov	 DWORD PTR $T10[ebp], 0

; 164  : 	CString strValue = "";

  0002f	8b 5d 08	 mov	 ebx, DWORD PTR ___$ReturnUdt$[ebp]
  00032	8b cb		 mov	 ecx, ebx
  00034	68 00 00 00 00	 push	 OFFSET ??_C@_00CNPNBAHC@@
  00039	c7 45 fc 00 00
	00 00		 mov	 DWORD PTR __$EHRec$[ebp+8], 0
  00040	ff 15 00 00 00
	00		 call	 DWORD PTR __imp_??0?$CStringT@DV?$StrTraitMFC_DLL@DV?$ChTraitsCRT@D@ATL@@@@@ATL@@QAE@PBD@Z

; 183  : 	return strValue;

  00046	68 00 00 00 00	 push	 OFFSET ??_C@_08BHMMGBBH@Graph?$DL?$AN?6@
  0004b	8b cb		 mov	 ecx, ebx
  0004d	c7 45 fc 00 00
	00 00		 mov	 DWORD PTR __$EHRec$[ebp+8], 0
  00054	c7 45 f0 01 00
	00 00		 mov	 DWORD PTR $T10[ebp], 1
  0005b	ff 15 00 00 00
	00		 call	 DWORD PTR __imp_??Y?$CStringT@DV?$StrTraitMFC_DLL@DV?$ChTraitsCRT@D@ATL@@@@@ATL@@QAEAAV01@PBD@Z
  00061	68 00 00 00 00	 push	 OFFSET ??_C@_01ICJEACDI@?$DL@
  00066	8b cb		 mov	 ecx, ebx
  00068	ff 15 00 00 00
	00		 call	 DWORD PTR __imp_??Y?$CStringT@DV?$StrTraitMFC_DLL@DV?$ChTraitsCRT@D@ATL@@@@@ATL@@QAEAAV01@PBD@Z
  0006e	8b 7d 0c	 mov	 edi, DWORD PTR _pItem$[ebp]
; File C:\Program Files (x86)\Microsoft Visual Studio\2019\Community\VC\Tools\MSVC\14.29.30133\atlmfc\include\cstringt.h

; 2401 : 		CStringT strResult( str1.GetManager() );

  00071	8d 4f 14	 lea	 ecx, DWORD PTR [edi+20]
; File D:\git\src\IBK\IBK_DRFN\ProjSrc\SrcChartEx\ChartAddIn\ChartDesignPropertyAddIn\ChartDesignPropertyAddIn\DataOfChartListPage.cpp

; 168  : 	strValue += pItem->m_strIndicatorName + ";";								//

  00074	c7 45 fc 01 00
	00 00		 mov	 DWORD PTR __$EHRec$[ebp+8], 1
; File C:\Program Files (x86)\Microsoft Visual Studio\2019\Community\VC\Tools\MSVC\14.29.30133\atlmfc\include\cstringt.h

; 2401 : 		CStringT strResult( str1.GetManager() );

  0007b	ff 15 00 00 00
	00		 call	 DWORD PTR __imp_?GetManager@?$CStringT@DV?$StrTraitMFC_DLL@DV?$ChTraitsCRT@D@ATL@@@@@ATL@@QBEPAUIAtlStringMgr@2@XZ
  00081	50		 push	 eax
  00082	8d 4d 0c	 lea	 ecx, DWORD PTR $T20[ebp]
  00085	ff 15 00 00 00
	00		 call	 DWORD PTR __imp_??0?$CStringT@DV?$StrTraitMFC_DLL@DV?$ChTraitsCRT@D@ATL@@@@@ATL@@QAE@PAUIAtlStringMgr@1@@Z
; File C:\Program Files (x86)\Microsoft Visual Studio\2019\Community\VC\Tools\MSVC\14.29.30133\atlmfc\include\atlsimpstr.h

; 519  : 		return( GetData()->nDataLength );

  0008b	8b 47 14	 mov	 eax, DWORD PTR [edi+20]
; File C:\Program Files (x86)\Microsoft Visual Studio\2019\Community\VC\Tools\MSVC\14.29.30133\atlmfc\include\cstringt.h

; 2403 : 		CThisSimpleString::Concatenate( strResult, str1, str1.GetLength(), psz2, CThisSimpleString::StringLength( psz2 ) );

  0008e	6a 01		 push	 1
  00090	68 00 00 00 00	 push	 OFFSET ??_C@_01ICJEACDI@?$DL@

; 2404 : 
; 2405 : 		return( strResult );

  00095	c7 45 f0 03 00
	00 00		 mov	 DWORD PTR $T10[ebp], 3
  0009c	ff 70 f4	 push	 DWORD PTR [eax-12]
  0009f	50		 push	 eax
  000a0	8d 45 0c	 lea	 eax, DWORD PTR $T20[ebp]
  000a3	50		 push	 eax
  000a4	ff 15 00 00 00
	00		 call	 DWORD PTR __imp_?Concatenate@?$CSimpleStringT@D$00@ATL@@KAXAAV12@PBDH1H@Z
  000aa	83 c4 14	 add	 esp, 20			; 00000014H
; File D:\git\src\IBK\IBK_DRFN\ProjSrc\SrcChartEx\ChartAddIn\ChartDesignPropertyAddIn\ChartDesignPropertyAddIn\DataOfChartListPage.cpp

; 168  : 	strValue += pItem->m_strIndicatorName + ";";								//

  000ad	8d 45 0c	 lea	 eax, DWORD PTR $T20[ebp]
  000b0	8b cb		 mov	 ecx, ebx
  000b2	50		 push	 eax
  000b3	ff 15 00 00 00
	00		 call	 DWORD PTR __imp_??Y?$CStringT@DV?$StrTraitMFC_DLL@DV?$ChTraitsCRT@D@ATL@@@@@ATL@@QAEAAV01@ABV?$CSimpleStringT@D$00@1@@Z
  000b9	8d 4d 0c	 lea	 ecx, DWORD PTR $T20[ebp]
  000bc	ff 15 00 00 00
	00		 call	 DWORD PTR __imp_??1?$CStringT@DV?$StrTraitMFC_DLL@DV?$ChTraitsCRT@D@ATL@@@@@ATL@@QAE@XZ
; File C:\Program Files (x86)\Microsoft Visual Studio\2019\Community\VC\Tools\MSVC\14.29.30133\atlmfc\include\cstringt.h

; 2412 : 		CStringT strResult( str2.GetManager() );

  000c2	8d 4f 18	 lea	 ecx, DWORD PTR [edi+24]
; File D:\git\src\IBK\IBK_DRFN\ProjSrc\SrcChartEx\ChartAddIn\ChartDesignPropertyAddIn\ChartDesignPropertyAddIn\DataOfChartListPage.cpp

; 169  : 	strValue += "G:" + pItem->m_strGraphName + ";";								// (2006/11/29 - Seung-Won, Bae) Support Graph Name for Binding with Indicator Info.

  000c5	c7 45 fc 02 00
	00 00		 mov	 DWORD PTR __$EHRec$[ebp+8], 2
; File C:\Program Files (x86)\Microsoft Visual Studio\2019\Community\VC\Tools\MSVC\14.29.30133\atlmfc\include\cstringt.h

; 2412 : 		CStringT strResult( str2.GetManager() );

  000cc	ff 15 00 00 00
	00		 call	 DWORD PTR __imp_?GetManager@?$CStringT@DV?$StrTraitMFC_DLL@DV?$ChTraitsCRT@D@ATL@@@@@ATL@@QBEPAUIAtlStringMgr@2@XZ
  000d2	50		 push	 eax
  000d3	8d 4d 0c	 lea	 ecx, DWORD PTR $T19[ebp]
  000d6	ff 15 00 00 00
	00		 call	 DWORD PTR __imp_??0?$CStringT@DV?$StrTraitMFC_DLL@DV?$ChTraitsCRT@D@ATL@@@@@ATL@@QAE@PAUIAtlStringMgr@1@@Z
; File C:\Program Files (x86)\Microsoft Visual Studio\2019\Community\VC\Tools\MSVC\14.29.30133\atlmfc\include\atlsimpstr.h

; 519  : 		return( GetData()->nDataLength );

  000dc	8b 47 18	 mov	 eax, DWORD PTR [edi+24]
; File C:\Program Files (x86)\Microsoft Visual Studio\2019\Community\VC\Tools\MSVC\14.29.30133\atlmfc\include\cstringt.h

; 2416 : 		return( strResult );

  000df	c7 45 f0 05 00
	00 00		 mov	 DWORD PTR $T10[ebp], 5
  000e6	ff 70 f4	 push	 DWORD PTR [eax-12]
  000e9	50		 push	 eax
  000ea	6a 02		 push	 2
  000ec	8d 45 0c	 lea	 eax, DWORD PTR $T19[ebp]
  000ef	68 00 00 00 00	 push	 OFFSET ??_C@_02FAMCGDNB@G?3@
  000f4	50		 push	 eax
  000f5	ff 15 00 00 00
	00		 call	 DWORD PTR __imp_?Concatenate@?$CSimpleStringT@D$00@ATL@@KAXAAV12@PBDH1H@Z
  000fb	83 c4 14	 add	 esp, 20			; 00000014H

; 2401 : 		CStringT strResult( str1.GetManager() );

  000fe	8d 4d 0c	 lea	 ecx, DWORD PTR $T19[ebp]
; File D:\git\src\IBK\IBK_DRFN\ProjSrc\SrcChartEx\ChartAddIn\ChartDesignPropertyAddIn\ChartDesignPropertyAddIn\DataOfChartListPage.cpp

; 169  : 	strValue += "G:" + pItem->m_strGraphName + ";";								// (2006/11/29 - Seung-Won, Bae) Support Graph Name for Binding with Indicator Info.

  00101	c6 45 fc 03	 mov	 BYTE PTR __$EHRec$[ebp+8], 3
; File C:\Program Files (x86)\Microsoft Visual Studio\2019\Community\VC\Tools\MSVC\14.29.30133\atlmfc\include\cstringt.h

; 2401 : 		CStringT strResult( str1.GetManager() );

  00105	ff 15 00 00 00
	00		 call	 DWORD PTR __imp_?GetManager@?$CStringT@DV?$StrTraitMFC_DLL@DV?$ChTraitsCRT@D@ATL@@@@@ATL@@QBEPAUIAtlStringMgr@2@XZ
  0010b	50		 push	 eax
  0010c	8d 4d ec	 lea	 ecx, DWORD PTR $T9[ebp]
  0010f	ff 15 00 00 00
	00		 call	 DWORD PTR __imp_??0?$CStringT@DV?$StrTraitMFC_DLL@DV?$ChTraitsCRT@D@ATL@@@@@ATL@@QAE@PAUIAtlStringMgr@1@@Z
; File C:\Program Files (x86)\Microsoft Visual Studio\2019\Community\VC\Tools\MSVC\14.29.30133\atlmfc\include\atlsimpstr.h

; 519  : 		return( GetData()->nDataLength );

  00115	8b 45 0c	 mov	 eax, DWORD PTR $T19[ebp]
; File C:\Program Files (x86)\Microsoft Visual Studio\2019\Community\VC\Tools\MSVC\14.29.30133\atlmfc\include\cstringt.h

; 2403 : 		CThisSimpleString::Concatenate( strResult, str1, str1.GetLength(), psz2, CThisSimpleString::StringLength( psz2 ) );

  00118	6a 01		 push	 1
  0011a	68 00 00 00 00	 push	 OFFSET ??_C@_01ICJEACDI@?$DL@

; 2404 : 
; 2405 : 		return( strResult );

  0011f	c7 45 f0 0d 00
	00 00		 mov	 DWORD PTR $T10[ebp], 13	; 0000000dH
  00126	ff 70 f4	 push	 DWORD PTR [eax-12]
  00129	50		 push	 eax
  0012a	8d 45 ec	 lea	 eax, DWORD PTR $T9[ebp]
  0012d	50		 push	 eax
  0012e	ff 15 00 00 00
	00		 call	 DWORD PTR __imp_?Concatenate@?$CSimpleStringT@D$00@ATL@@KAXAAV12@PBDH1H@Z
  00134	83 c4 14	 add	 esp, 20			; 00000014H
; File D:\git\src\IBK\IBK_DRFN\ProjSrc\SrcChartEx\ChartAddIn\ChartDesignPropertyAddIn\ChartDesignPropertyAddIn\DataOfChartListPage.cpp

; 169  : 	strValue += "G:" + pItem->m_strGraphName + ";";								// (2006/11/29 - Seung-Won, Bae) Support Graph Name for Binding with Indicator Info.

  00137	8d 45 ec	 lea	 eax, DWORD PTR $T9[ebp]
  0013a	8b cb		 mov	 ecx, ebx
  0013c	50		 push	 eax
  0013d	ff 15 00 00 00
	00		 call	 DWORD PTR __imp_??Y?$CStringT@DV?$StrTraitMFC_DLL@DV?$ChTraitsCRT@D@ATL@@@@@ATL@@QAEAAV01@ABV?$CSimpleStringT@D$00@1@@Z
  00143	8d 4d ec	 lea	 ecx, DWORD PTR $T9[ebp]
  00146	ff 15 00 00 00
	00		 call	 DWORD PTR __imp_??1?$CStringT@DV?$StrTraitMFC_DLL@DV?$ChTraitsCRT@D@ATL@@@@@ATL@@QAE@XZ
  0014c	8d 4d 0c	 lea	 ecx, DWORD PTR $T19[ebp]
  0014f	ff 15 00 00 00
	00		 call	 DWORD PTR __imp_??1?$CStringT@DV?$StrTraitMFC_DLL@DV?$ChTraitsCRT@D@ATL@@@@@ATL@@QAE@XZ
; File C:\Program Files (x86)\Microsoft Visual Studio\2019\Community\VC\Tools\MSVC\14.29.30133\atlmfc\include\cstringt.h

; 2401 : 		CStringT strResult( str1.GetManager() );

  00155	8d 4f 24	 lea	 ecx, DWORD PTR [edi+36]
; File D:\git\src\IBK\IBK_DRFN\ProjSrc\SrcChartEx\ChartAddIn\ChartDesignPropertyAddIn\ChartDesignPropertyAddIn\DataOfChartListPage.cpp

; 170  : 	strValue += pItem->m_strCheckedPacketItems + ";";							//  Packet 

  00158	c7 45 fc 04 00
	00 00		 mov	 DWORD PTR __$EHRec$[ebp+8], 4
; File C:\Program Files (x86)\Microsoft Visual Studio\2019\Community\VC\Tools\MSVC\14.29.30133\atlmfc\include\cstringt.h

; 2401 : 		CStringT strResult( str1.GetManager() );

  0015f	ff 15 00 00 00
	00		 call	 DWORD PTR __imp_?GetManager@?$CStringT@DV?$StrTraitMFC_DLL@DV?$ChTraitsCRT@D@ATL@@@@@ATL@@QBEPAUIAtlStringMgr@2@XZ
  00165	50		 push	 eax
  00166	8d 4d 0c	 lea	 ecx, DWORD PTR $T18[ebp]
  00169	ff 15 00 00 00
	00		 call	 DWORD PTR __imp_??0?$CStringT@DV?$StrTraitMFC_DLL@DV?$ChTraitsCRT@D@ATL@@@@@ATL@@QAE@PAUIAtlStringMgr@1@@Z
; File C:\Program Files (x86)\Microsoft Visual Studio\2019\Community\VC\Tools\MSVC\14.29.30133\atlmfc\include\atlsimpstr.h

; 519  : 		return( GetData()->nDataLength );

  0016f	8b 47 24	 mov	 eax, DWORD PTR [edi+36]
; File C:\Program Files (x86)\Microsoft Visual Studio\2019\Community\VC\Tools\MSVC\14.29.30133\atlmfc\include\cstringt.h

; 2403 : 		CThisSimpleString::Concatenate( strResult, str1, str1.GetLength(), psz2, CThisSimpleString::StringLength( psz2 ) );

  00172	6a 01		 push	 1
  00174	68 00 00 00 00	 push	 OFFSET ??_C@_01ICJEACDI@?$DL@

; 2404 : 
; 2405 : 		return( strResult );

  00179	c7 45 f0 11 00
	00 00		 mov	 DWORD PTR $T10[ebp], 17	; 00000011H
  00180	ff 70 f4	 push	 DWORD PTR [eax-12]
  00183	50		 push	 eax
  00184	8d 45 0c	 lea	 eax, DWORD PTR $T18[ebp]
  00187	50		 push	 eax
  00188	ff 15 00 00 00
	00		 call	 DWORD PTR __imp_?Concatenate@?$CSimpleStringT@D$00@ATL@@KAXAAV12@PBDH1H@Z
  0018e	83 c4 14	 add	 esp, 20			; 00000014H
; File D:\git\src\IBK\IBK_DRFN\ProjSrc\SrcChartEx\ChartAddIn\ChartDesignPropertyAddIn\ChartDesignPropertyAddIn\DataOfChartListPage.cpp

; 170  : 	strValue += pItem->m_strCheckedPacketItems + ";";							//  Packet 

  00191	8d 45 0c	 lea	 eax, DWORD PTR $T18[ebp]
  00194	8b cb		 mov	 ecx, ebx
  00196	50		 push	 eax
  00197	ff 15 00 00 00
	00		 call	 DWORD PTR __imp_??Y?$CStringT@DV?$StrTraitMFC_DLL@DV?$ChTraitsCRT@D@ATL@@@@@ATL@@QAEAAV01@ABV?$CSimpleStringT@D$00@1@@Z
  0019d	8d 4d 0c	 lea	 ecx, DWORD PTR $T18[ebp]
  001a0	c7 45 f0 01 00
	00 00		 mov	 DWORD PTR $T10[ebp], 1
  001a7	c6 45 fc 00	 mov	 BYTE PTR __$EHRec$[ebp+8], 0
  001ab	ff 15 00 00 00
	00		 call	 DWORD PTR __imp_??1?$CStringT@DV?$StrTraitMFC_DLL@DV?$ChTraitsCRT@D@ATL@@@@@ATL@@QAE@XZ

; 172  : 	strValue += CDataConversion::IntToString(pItem->m_bSignalUse) + ":";		//signal 

  001b1	0f b6 47 2c	 movzx	 eax, BYTE PTR [edi+44]
  001b5	50		 push	 eax
  001b6	8d 45 ec	 lea	 eax, DWORD PTR $T8[ebp]
  001b9	50		 push	 eax
  001ba	e8 00 00 00 00	 call	 ?IntToString@CDataConversion@@SA?AV?$CStringT@DV?$StrTraitMFC_DLL@DV?$ChTraitsCRT@D@ATL@@@@@ATL@@H@Z ; CDataConversion::IntToString
  001bf	83 c4 08	 add	 esp, 8
  001c2	8b f0		 mov	 esi, eax
; File C:\Program Files (x86)\Microsoft Visual Studio\2019\Community\VC\Tools\MSVC\14.29.30133\atlmfc\include\cstringt.h

; 2401 : 		CStringT strResult( str1.GetManager() );

  001c4	8b ce		 mov	 ecx, esi
; File D:\git\src\IBK\IBK_DRFN\ProjSrc\SrcChartEx\ChartAddIn\ChartDesignPropertyAddIn\ChartDesignPropertyAddIn\DataOfChartListPage.cpp

; 172  : 	strValue += CDataConversion::IntToString(pItem->m_bSignalUse) + ":";		//signal 

  001c6	c7 45 fc 06 00
	00 00		 mov	 DWORD PTR __$EHRec$[ebp+8], 6
; File C:\Program Files (x86)\Microsoft Visual Studio\2019\Community\VC\Tools\MSVC\14.29.30133\atlmfc\include\cstringt.h

; 2401 : 		CStringT strResult( str1.GetManager() );

  001cd	ff 15 00 00 00
	00		 call	 DWORD PTR __imp_?GetManager@?$CStringT@DV?$StrTraitMFC_DLL@DV?$ChTraitsCRT@D@ATL@@@@@ATL@@QBEPAUIAtlStringMgr@2@XZ
  001d3	50		 push	 eax
  001d4	8d 4d 0c	 lea	 ecx, DWORD PTR $T17[ebp]
  001d7	ff 15 00 00 00
	00		 call	 DWORD PTR __imp_??0?$CStringT@DV?$StrTraitMFC_DLL@DV?$ChTraitsCRT@D@ATL@@@@@ATL@@QAE@PAUIAtlStringMgr@1@@Z
; File C:\Program Files (x86)\Microsoft Visual Studio\2019\Community\VC\Tools\MSVC\14.29.30133\atlmfc\include\atlsimpstr.h

; 519  : 		return( GetData()->nDataLength );

  001dd	8b 06		 mov	 eax, DWORD PTR [esi]
; File C:\Program Files (x86)\Microsoft Visual Studio\2019\Community\VC\Tools\MSVC\14.29.30133\atlmfc\include\cstringt.h

; 2403 : 		CThisSimpleString::Concatenate( strResult, str1, str1.GetLength(), psz2, CThisSimpleString::StringLength( psz2 ) );

  001df	6a 01		 push	 1
  001e1	68 00 00 00 00	 push	 OFFSET ??_C@_01JLIPDDHJ@?3@

; 2404 : 
; 2405 : 		return( strResult );

  001e6	c7 45 f0 21 00
	00 00		 mov	 DWORD PTR $T10[ebp], 33	; 00000021H
  001ed	ff 70 f4	 push	 DWORD PTR [eax-12]
  001f0	50		 push	 eax
  001f1	8d 45 0c	 lea	 eax, DWORD PTR $T17[ebp]
  001f4	50		 push	 eax
  001f5	ff 15 00 00 00
	00		 call	 DWORD PTR __imp_?Concatenate@?$CSimpleStringT@D$00@ATL@@KAXAAV12@PBDH1H@Z
  001fb	83 c4 14	 add	 esp, 20			; 00000014H
; File D:\git\src\IBK\IBK_DRFN\ProjSrc\SrcChartEx\ChartAddIn\ChartDesignPropertyAddIn\ChartDesignPropertyAddIn\DataOfChartListPage.cpp

; 172  : 	strValue += CDataConversion::IntToString(pItem->m_bSignalUse) + ":";		//signal 

  001fe	8d 45 0c	 lea	 eax, DWORD PTR $T17[ebp]
  00201	8b cb		 mov	 ecx, ebx
  00203	50		 push	 eax
  00204	ff 15 00 00 00
	00		 call	 DWORD PTR __imp_??Y?$CStringT@DV?$StrTraitMFC_DLL@DV?$ChTraitsCRT@D@ATL@@@@@ATL@@QAEAAV01@ABV?$CSimpleStringT@D$00@1@@Z
  0020a	8d 4d 0c	 lea	 ecx, DWORD PTR $T17[ebp]
  0020d	c7 45 f0 01 00
	00 00		 mov	 DWORD PTR $T10[ebp], 1
  00214	ff 15 00 00 00
	00		 call	 DWORD PTR __imp_??1?$CStringT@DV?$StrTraitMFC_DLL@DV?$ChTraitsCRT@D@ATL@@@@@ATL@@QAE@XZ
  0021a	8d 4d ec	 lea	 ecx, DWORD PTR $T8[ebp]
  0021d	c6 45 fc 00	 mov	 BYTE PTR __$EHRec$[ebp+8], 0
  00221	ff 15 00 00 00
	00		 call	 DWORD PTR __imp_??1?$CStringT@DV?$StrTraitMFC_DLL@DV?$ChTraitsCRT@D@ATL@@@@@ATL@@QAE@XZ

; 173  : 	strValue += CDataConversion::IntToString(pItem->m_bSignalShow) + ";";		//signal 

  00227	0f b6 47 2d	 movzx	 eax, BYTE PTR [edi+45]
  0022b	50		 push	 eax
  0022c	8d 45 ec	 lea	 eax, DWORD PTR $T7[ebp]
  0022f	50		 push	 eax
  00230	e8 00 00 00 00	 call	 ?IntToString@CDataConversion@@SA?AV?$CStringT@DV?$StrTraitMFC_DLL@DV?$ChTraitsCRT@D@ATL@@@@@ATL@@H@Z ; CDataConversion::IntToString
  00235	83 c4 08	 add	 esp, 8
  00238	8b f0		 mov	 esi, eax
; File C:\Program Files (x86)\Microsoft Visual Studio\2019\Community\VC\Tools\MSVC\14.29.30133\atlmfc\include\cstringt.h

; 2401 : 		CStringT strResult( str1.GetManager() );

  0023a	8b ce		 mov	 ecx, esi
; File D:\git\src\IBK\IBK_DRFN\ProjSrc\SrcChartEx\ChartAddIn\ChartDesignPropertyAddIn\ChartDesignPropertyAddIn\DataOfChartListPage.cpp

; 173  : 	strValue += CDataConversion::IntToString(pItem->m_bSignalShow) + ";";		//signal 

  0023c	c7 45 fc 08 00
	00 00		 mov	 DWORD PTR __$EHRec$[ebp+8], 8
; File C:\Program Files (x86)\Microsoft Visual Studio\2019\Community\VC\Tools\MSVC\14.29.30133\atlmfc\include\cstringt.h

; 2401 : 		CStringT strResult( str1.GetManager() );

  00243	ff 15 00 00 00
	00		 call	 DWORD PTR __imp_?GetManager@?$CStringT@DV?$StrTraitMFC_DLL@DV?$ChTraitsCRT@D@ATL@@@@@ATL@@QBEPAUIAtlStringMgr@2@XZ
  00249	50		 push	 eax
  0024a	8d 4d 0c	 lea	 ecx, DWORD PTR $T16[ebp]
  0024d	ff 15 00 00 00
	00		 call	 DWORD PTR __imp_??0?$CStringT@DV?$StrTraitMFC_DLL@DV?$ChTraitsCRT@D@ATL@@@@@ATL@@QAE@PAUIAtlStringMgr@1@@Z
; File C:\Program Files (x86)\Microsoft Visual Studio\2019\Community\VC\Tools\MSVC\14.29.30133\atlmfc\include\atlsimpstr.h

; 519  : 		return( GetData()->nDataLength );

  00253	8b 06		 mov	 eax, DWORD PTR [esi]
; File C:\Program Files (x86)\Microsoft Visual Studio\2019\Community\VC\Tools\MSVC\14.29.30133\atlmfc\include\cstringt.h

; 2403 : 		CThisSimpleString::Concatenate( strResult, str1, str1.GetLength(), psz2, CThisSimpleString::StringLength( psz2 ) );

  00255	6a 01		 push	 1
  00257	68 00 00 00 00	 push	 OFFSET ??_C@_01ICJEACDI@?$DL@

; 2404 : 
; 2405 : 		return( strResult );

  0025c	c7 45 f0 41 00
	00 00		 mov	 DWORD PTR $T10[ebp], 65	; 00000041H
  00263	ff 70 f4	 push	 DWORD PTR [eax-12]
  00266	50		 push	 eax

; 2403 : 		CThisSimpleString::Concatenate( strResult, str1, str1.GetLength(), psz2, CThisSimpleString::StringLength( psz2 ) );

  00267	8d 45 0c	 lea	 eax, DWORD PTR $T16[ebp]
  0026a	50		 push	 eax
  0026b	ff 15 00 00 00
	00		 call	 DWORD PTR __imp_?Concatenate@?$CSimpleStringT@D$00@ATL@@KAXAAV12@PBDH1H@Z
  00271	83 c4 14	 add	 esp, 20			; 00000014H
; File D:\git\src\IBK\IBK_DRFN\ProjSrc\SrcChartEx\ChartAddIn\ChartDesignPropertyAddIn\ChartDesignPropertyAddIn\DataOfChartListPage.cpp

; 173  : 	strValue += CDataConversion::IntToString(pItem->m_bSignalShow) + ";";		//signal 

  00274	8d 45 0c	 lea	 eax, DWORD PTR $T16[ebp]
  00277	8b cb		 mov	 ecx, ebx
  00279	50		 push	 eax
  0027a	ff 15 00 00 00
	00		 call	 DWORD PTR __imp_??Y?$CStringT@DV?$StrTraitMFC_DLL@DV?$ChTraitsCRT@D@ATL@@@@@ATL@@QAEAAV01@ABV?$CSimpleStringT@D$00@1@@Z
  00280	8d 4d 0c	 lea	 ecx, DWORD PTR $T16[ebp]
  00283	c7 45 f0 01 00
	00 00		 mov	 DWORD PTR $T10[ebp], 1
  0028a	ff 15 00 00 00
	00		 call	 DWORD PTR __imp_??1?$CStringT@DV?$StrTraitMFC_DLL@DV?$ChTraitsCRT@D@ATL@@@@@ATL@@QAE@XZ
  00290	8d 4d ec	 lea	 ecx, DWORD PTR $T7[ebp]
  00293	c6 45 fc 00	 mov	 BYTE PTR __$EHRec$[ebp+8], 0
  00297	ff 15 00 00 00
	00		 call	 DWORD PTR __imp_??1?$CStringT@DV?$StrTraitMFC_DLL@DV?$ChTraitsCRT@D@ATL@@@@@ATL@@QAE@XZ

; 175  : 	strValue += CDataConversion::IntToString(pItem->m_bLowHighUpDown) + ";";	//   

  0029d	0f b6 47 2e	 movzx	 eax, BYTE PTR [edi+46]
  002a1	50		 push	 eax
  002a2	8d 45 ec	 lea	 eax, DWORD PTR $T6[ebp]
  002a5	50		 push	 eax
  002a6	e8 00 00 00 00	 call	 ?IntToString@CDataConversion@@SA?AV?$CStringT@DV?$StrTraitMFC_DLL@DV?$ChTraitsCRT@D@ATL@@@@@ATL@@H@Z ; CDataConversion::IntToString
  002ab	83 c4 08	 add	 esp, 8
  002ae	8b f0		 mov	 esi, eax
; File C:\Program Files (x86)\Microsoft Visual Studio\2019\Community\VC\Tools\MSVC\14.29.30133\atlmfc\include\cstringt.h

; 2401 : 		CStringT strResult( str1.GetManager() );

  002b0	8b ce		 mov	 ecx, esi
; File D:\git\src\IBK\IBK_DRFN\ProjSrc\SrcChartEx\ChartAddIn\ChartDesignPropertyAddIn\ChartDesignPropertyAddIn\DataOfChartListPage.cpp

; 175  : 	strValue += CDataConversion::IntToString(pItem->m_bLowHighUpDown) + ";";	//   

  002b2	c7 45 fc 0a 00
	00 00		 mov	 DWORD PTR __$EHRec$[ebp+8], 10 ; 0000000aH
; File C:\Program Files (x86)\Microsoft Visual Studio\2019\Community\VC\Tools\MSVC\14.29.30133\atlmfc\include\cstringt.h

; 2401 : 		CStringT strResult( str1.GetManager() );

  002b9	ff 15 00 00 00
	00		 call	 DWORD PTR __imp_?GetManager@?$CStringT@DV?$StrTraitMFC_DLL@DV?$ChTraitsCRT@D@ATL@@@@@ATL@@QBEPAUIAtlStringMgr@2@XZ
  002bf	50		 push	 eax
  002c0	8d 4d 0c	 lea	 ecx, DWORD PTR $T15[ebp]
  002c3	ff 15 00 00 00
	00		 call	 DWORD PTR __imp_??0?$CStringT@DV?$StrTraitMFC_DLL@DV?$ChTraitsCRT@D@ATL@@@@@ATL@@QAE@PAUIAtlStringMgr@1@@Z
; File C:\Program Files (x86)\Microsoft Visual Studio\2019\Community\VC\Tools\MSVC\14.29.30133\atlmfc\include\atlsimpstr.h

; 519  : 		return( GetData()->nDataLength );

  002c9	8b 06		 mov	 eax, DWORD PTR [esi]
; File C:\Program Files (x86)\Microsoft Visual Studio\2019\Community\VC\Tools\MSVC\14.29.30133\atlmfc\include\cstringt.h

; 2403 : 		CThisSimpleString::Concatenate( strResult, str1, str1.GetLength(), psz2, CThisSimpleString::StringLength( psz2 ) );

  002cb	6a 01		 push	 1
  002cd	68 00 00 00 00	 push	 OFFSET ??_C@_01ICJEACDI@?$DL@

; 2404 : 
; 2405 : 		return( strResult );

  002d2	c7 45 f0 81 00
	00 00		 mov	 DWORD PTR $T10[ebp], 129 ; 00000081H
  002d9	ff 70 f4	 push	 DWORD PTR [eax-12]
  002dc	50		 push	 eax
  002dd	8d 45 0c	 lea	 eax, DWORD PTR $T15[ebp]
  002e0	50		 push	 eax
  002e1	ff 15 00 00 00
	00		 call	 DWORD PTR __imp_?Concatenate@?$CSimpleStringT@D$00@ATL@@KAXAAV12@PBDH1H@Z
  002e7	83 c4 14	 add	 esp, 20			; 00000014H
; File D:\git\src\IBK\IBK_DRFN\ProjSrc\SrcChartEx\ChartAddIn\ChartDesignPropertyAddIn\ChartDesignPropertyAddIn\DataOfChartListPage.cpp

; 175  : 	strValue += CDataConversion::IntToString(pItem->m_bLowHighUpDown) + ";";	//   

  002ea	8d 45 0c	 lea	 eax, DWORD PTR $T15[ebp]
  002ed	8b cb		 mov	 ecx, ebx
  002ef	50		 push	 eax
  002f0	ff 15 00 00 00
	00		 call	 DWORD PTR __imp_??Y?$CStringT@DV?$StrTraitMFC_DLL@DV?$ChTraitsCRT@D@ATL@@@@@ATL@@QAEAAV01@ABV?$CSimpleStringT@D$00@1@@Z
  002f6	8d 4d 0c	 lea	 ecx, DWORD PTR $T15[ebp]
  002f9	c7 45 f0 01 00
	00 00		 mov	 DWORD PTR $T10[ebp], 1
  00300	ff 15 00 00 00
	00		 call	 DWORD PTR __imp_??1?$CStringT@DV?$StrTraitMFC_DLL@DV?$ChTraitsCRT@D@ATL@@@@@ATL@@QAE@XZ
  00306	8d 4d ec	 lea	 ecx, DWORD PTR $T6[ebp]
  00309	c6 45 fc 00	 mov	 BYTE PTR __$EHRec$[ebp+8], 0
  0030d	ff 15 00 00 00
	00		 call	 DWORD PTR __imp_??1?$CStringT@DV?$StrTraitMFC_DLL@DV?$ChTraitsCRT@D@ATL@@@@@ATL@@QAE@XZ

; 176  : 	strValue += CDataConversion::IntToString(pItem->m_bLowNowUpDown) + ";";

  00313	0f b6 47 2f	 movzx	 eax, BYTE PTR [edi+47]
  00317	50		 push	 eax
  00318	8d 45 ec	 lea	 eax, DWORD PTR $T5[ebp]
  0031b	50		 push	 eax
  0031c	e8 00 00 00 00	 call	 ?IntToString@CDataConversion@@SA?AV?$CStringT@DV?$StrTraitMFC_DLL@DV?$ChTraitsCRT@D@ATL@@@@@ATL@@H@Z ; CDataConversion::IntToString
  00321	83 c4 08	 add	 esp, 8
  00324	8b f0		 mov	 esi, eax
; File C:\Program Files (x86)\Microsoft Visual Studio\2019\Community\VC\Tools\MSVC\14.29.30133\atlmfc\include\cstringt.h

; 2401 : 		CStringT strResult( str1.GetManager() );

  00326	8b ce		 mov	 ecx, esi
; File D:\git\src\IBK\IBK_DRFN\ProjSrc\SrcChartEx\ChartAddIn\ChartDesignPropertyAddIn\ChartDesignPropertyAddIn\DataOfChartListPage.cpp

; 176  : 	strValue += CDataConversion::IntToString(pItem->m_bLowNowUpDown) + ";";

  00328	c7 45 fc 0c 00
	00 00		 mov	 DWORD PTR __$EHRec$[ebp+8], 12 ; 0000000cH
; File C:\Program Files (x86)\Microsoft Visual Studio\2019\Community\VC\Tools\MSVC\14.29.30133\atlmfc\include\cstringt.h

; 2401 : 		CStringT strResult( str1.GetManager() );

  0032f	ff 15 00 00 00
	00		 call	 DWORD PTR __imp_?GetManager@?$CStringT@DV?$StrTraitMFC_DLL@DV?$ChTraitsCRT@D@ATL@@@@@ATL@@QBEPAUIAtlStringMgr@2@XZ
  00335	50		 push	 eax
  00336	8d 4d 0c	 lea	 ecx, DWORD PTR $T14[ebp]
  00339	ff 15 00 00 00
	00		 call	 DWORD PTR __imp_??0?$CStringT@DV?$StrTraitMFC_DLL@DV?$ChTraitsCRT@D@ATL@@@@@ATL@@QAE@PAUIAtlStringMgr@1@@Z
; File C:\Program Files (x86)\Microsoft Visual Studio\2019\Community\VC\Tools\MSVC\14.29.30133\atlmfc\include\atlsimpstr.h

; 519  : 		return( GetData()->nDataLength );

  0033f	8b 06		 mov	 eax, DWORD PTR [esi]
; File C:\Program Files (x86)\Microsoft Visual Studio\2019\Community\VC\Tools\MSVC\14.29.30133\atlmfc\include\cstringt.h

; 2403 : 		CThisSimpleString::Concatenate( strResult, str1, str1.GetLength(), psz2, CThisSimpleString::StringLength( psz2 ) );

  00341	6a 01		 push	 1
  00343	68 00 00 00 00	 push	 OFFSET ??_C@_01ICJEACDI@?$DL@

; 2404 : 
; 2405 : 		return( strResult );

  00348	c7 45 f0 01 01
	00 00		 mov	 DWORD PTR $T10[ebp], 257 ; 00000101H
  0034f	ff 70 f4	 push	 DWORD PTR [eax-12]
  00352	50		 push	 eax
  00353	8d 45 0c	 lea	 eax, DWORD PTR $T14[ebp]
  00356	50		 push	 eax
  00357	ff 15 00 00 00
	00		 call	 DWORD PTR __imp_?Concatenate@?$CSimpleStringT@D$00@ATL@@KAXAAV12@PBDH1H@Z
  0035d	83 c4 14	 add	 esp, 20			; 00000014H
; File D:\git\src\IBK\IBK_DRFN\ProjSrc\SrcChartEx\ChartAddIn\ChartDesignPropertyAddIn\ChartDesignPropertyAddIn\DataOfChartListPage.cpp

; 176  : 	strValue += CDataConversion::IntToString(pItem->m_bLowNowUpDown) + ";";

  00360	8d 45 0c	 lea	 eax, DWORD PTR $T14[ebp]
  00363	8b cb		 mov	 ecx, ebx
  00365	50		 push	 eax
  00366	ff 15 00 00 00
	00		 call	 DWORD PTR __imp_??Y?$CStringT@DV?$StrTraitMFC_DLL@DV?$ChTraitsCRT@D@ATL@@@@@ATL@@QAEAAV01@ABV?$CSimpleStringT@D$00@1@@Z
  0036c	8d 4d 0c	 lea	 ecx, DWORD PTR $T14[ebp]
  0036f	c7 45 f0 01 00
	00 00		 mov	 DWORD PTR $T10[ebp], 1
  00376	ff 15 00 00 00
	00		 call	 DWORD PTR __imp_??1?$CStringT@DV?$StrTraitMFC_DLL@DV?$ChTraitsCRT@D@ATL@@@@@ATL@@QAE@XZ
  0037c	8d 4d ec	 lea	 ecx, DWORD PTR $T5[ebp]
  0037f	c6 45 fc 00	 mov	 BYTE PTR __$EHRec$[ebp+8], 0
  00383	ff 15 00 00 00
	00		 call	 DWORD PTR __imp_??1?$CStringT@DV?$StrTraitMFC_DLL@DV?$ChTraitsCRT@D@ATL@@@@@ATL@@QAE@XZ

; 177  : 	strValue += CDataConversion::IntToString(pItem->m_bHighNowUpDown) + ";";

  00389	0f b6 47 30	 movzx	 eax, BYTE PTR [edi+48]
  0038d	50		 push	 eax
  0038e	8d 45 ec	 lea	 eax, DWORD PTR $T4[ebp]
  00391	50		 push	 eax
  00392	e8 00 00 00 00	 call	 ?IntToString@CDataConversion@@SA?AV?$CStringT@DV?$StrTraitMFC_DLL@DV?$ChTraitsCRT@D@ATL@@@@@ATL@@H@Z ; CDataConversion::IntToString
  00397	83 c4 08	 add	 esp, 8
  0039a	8b f0		 mov	 esi, eax
; File C:\Program Files (x86)\Microsoft Visual Studio\2019\Community\VC\Tools\MSVC\14.29.30133\atlmfc\include\cstringt.h

; 2401 : 		CStringT strResult( str1.GetManager() );

  0039c	8b ce		 mov	 ecx, esi
; File D:\git\src\IBK\IBK_DRFN\ProjSrc\SrcChartEx\ChartAddIn\ChartDesignPropertyAddIn\ChartDesignPropertyAddIn\DataOfChartListPage.cpp

; 177  : 	strValue += CDataConversion::IntToString(pItem->m_bHighNowUpDown) + ";";

  0039e	c7 45 fc 0e 00
	00 00		 mov	 DWORD PTR __$EHRec$[ebp+8], 14 ; 0000000eH
; File C:\Program Files (x86)\Microsoft Visual Studio\2019\Community\VC\Tools\MSVC\14.29.30133\atlmfc\include\cstringt.h

; 2401 : 		CStringT strResult( str1.GetManager() );

  003a5	ff 15 00 00 00
	00		 call	 DWORD PTR __imp_?GetManager@?$CStringT@DV?$StrTraitMFC_DLL@DV?$ChTraitsCRT@D@ATL@@@@@ATL@@QBEPAUIAtlStringMgr@2@XZ
  003ab	50		 push	 eax
  003ac	8d 4d 0c	 lea	 ecx, DWORD PTR $T13[ebp]
  003af	ff 15 00 00 00
	00		 call	 DWORD PTR __imp_??0?$CStringT@DV?$StrTraitMFC_DLL@DV?$ChTraitsCRT@D@ATL@@@@@ATL@@QAE@PAUIAtlStringMgr@1@@Z
; File C:\Program Files (x86)\Microsoft Visual Studio\2019\Community\VC\Tools\MSVC\14.29.30133\atlmfc\include\atlsimpstr.h

; 519  : 		return( GetData()->nDataLength );

  003b5	8b 06		 mov	 eax, DWORD PTR [esi]
; File C:\Program Files (x86)\Microsoft Visual Studio\2019\Community\VC\Tools\MSVC\14.29.30133\atlmfc\include\cstringt.h

; 2403 : 		CThisSimpleString::Concatenate( strResult, str1, str1.GetLength(), psz2, CThisSimpleString::StringLength( psz2 ) );

  003b7	6a 01		 push	 1
  003b9	68 00 00 00 00	 push	 OFFSET ??_C@_01ICJEACDI@?$DL@

; 2404 : 
; 2405 : 		return( strResult );

  003be	c7 45 f0 01 02
	00 00		 mov	 DWORD PTR $T10[ebp], 513 ; 00000201H
  003c5	ff 70 f4	 push	 DWORD PTR [eax-12]
  003c8	50		 push	 eax
  003c9	8d 45 0c	 lea	 eax, DWORD PTR $T13[ebp]
  003cc	50		 push	 eax
  003cd	ff 15 00 00 00
	00		 call	 DWORD PTR __imp_?Concatenate@?$CSimpleStringT@D$00@ATL@@KAXAAV12@PBDH1H@Z
  003d3	83 c4 14	 add	 esp, 20			; 00000014H
; File D:\git\src\IBK\IBK_DRFN\ProjSrc\SrcChartEx\ChartAddIn\ChartDesignPropertyAddIn\ChartDesignPropertyAddIn\DataOfChartListPage.cpp

; 177  : 	strValue += CDataConversion::IntToString(pItem->m_bHighNowUpDown) + ";";

  003d6	8d 45 0c	 lea	 eax, DWORD PTR $T13[ebp]
  003d9	8b cb		 mov	 ecx, ebx
  003db	50		 push	 eax
  003dc	ff 15 00 00 00
	00		 call	 DWORD PTR __imp_??Y?$CStringT@DV?$StrTraitMFC_DLL@DV?$ChTraitsCRT@D@ATL@@@@@ATL@@QAEAAV01@ABV?$CSimpleStringT@D$00@1@@Z
  003e2	8d 4d 0c	 lea	 ecx, DWORD PTR $T13[ebp]
  003e5	c7 45 f0 01 00
	00 00		 mov	 DWORD PTR $T10[ebp], 1
  003ec	ff 15 00 00 00
	00		 call	 DWORD PTR __imp_??1?$CStringT@DV?$StrTraitMFC_DLL@DV?$ChTraitsCRT@D@ATL@@@@@ATL@@QAE@XZ
  003f2	8d 4d ec	 lea	 ecx, DWORD PTR $T4[ebp]
  003f5	c6 45 fc 00	 mov	 BYTE PTR __$EHRec$[ebp+8], 0
  003f9	ff 15 00 00 00
	00		 call	 DWORD PTR __imp_??1?$CStringT@DV?$StrTraitMFC_DLL@DV?$ChTraitsCRT@D@ATL@@@@@ATL@@QAE@XZ

; 178  : 	strValue += CDataConversion::IntToString(pItem->m_bPreNowContrast) + ";";

  003ff	0f b6 47 31	 movzx	 eax, BYTE PTR [edi+49]
  00403	50		 push	 eax
  00404	8d 45 ec	 lea	 eax, DWORD PTR $T3[ebp]
  00407	50		 push	 eax
  00408	e8 00 00 00 00	 call	 ?IntToString@CDataConversion@@SA?AV?$CStringT@DV?$StrTraitMFC_DLL@DV?$ChTraitsCRT@D@ATL@@@@@ATL@@H@Z ; CDataConversion::IntToString
  0040d	83 c4 08	 add	 esp, 8
  00410	8b f0		 mov	 esi, eax
; File C:\Program Files (x86)\Microsoft Visual Studio\2019\Community\VC\Tools\MSVC\14.29.30133\atlmfc\include\cstringt.h

; 2401 : 		CStringT strResult( str1.GetManager() );

  00412	8b ce		 mov	 ecx, esi
; File D:\git\src\IBK\IBK_DRFN\ProjSrc\SrcChartEx\ChartAddIn\ChartDesignPropertyAddIn\ChartDesignPropertyAddIn\DataOfChartListPage.cpp

; 178  : 	strValue += CDataConversion::IntToString(pItem->m_bPreNowContrast) + ";";

  00414	c7 45 fc 10 00
	00 00		 mov	 DWORD PTR __$EHRec$[ebp+8], 16 ; 00000010H
; File C:\Program Files (x86)\Microsoft Visual Studio\2019\Community\VC\Tools\MSVC\14.29.30133\atlmfc\include\cstringt.h

; 2401 : 		CStringT strResult( str1.GetManager() );

  0041b	ff 15 00 00 00
	00		 call	 DWORD PTR __imp_?GetManager@?$CStringT@DV?$StrTraitMFC_DLL@DV?$ChTraitsCRT@D@ATL@@@@@ATL@@QBEPAUIAtlStringMgr@2@XZ
  00421	50		 push	 eax
  00422	8d 4d 0c	 lea	 ecx, DWORD PTR $T12[ebp]
  00425	ff 15 00 00 00
	00		 call	 DWORD PTR __imp_??0?$CStringT@DV?$StrTraitMFC_DLL@DV?$ChTraitsCRT@D@ATL@@@@@ATL@@QAE@PAUIAtlStringMgr@1@@Z
; File C:\Program Files (x86)\Microsoft Visual Studio\2019\Community\VC\Tools\MSVC\14.29.30133\atlmfc\include\atlsimpstr.h

; 519  : 		return( GetData()->nDataLength );

  0042b	8b 06		 mov	 eax, DWORD PTR [esi]
; File C:\Program Files (x86)\Microsoft Visual Studio\2019\Community\VC\Tools\MSVC\14.29.30133\atlmfc\include\cstringt.h

; 2403 : 		CThisSimpleString::Concatenate( strResult, str1, str1.GetLength(), psz2, CThisSimpleString::StringLength( psz2 ) );

  0042d	6a 01		 push	 1
  0042f	68 00 00 00 00	 push	 OFFSET ??_C@_01ICJEACDI@?$DL@

; 2404 : 
; 2405 : 		return( strResult );

  00434	c7 45 f0 01 04
	00 00		 mov	 DWORD PTR $T10[ebp], 1025 ; 00000401H
  0043b	ff 70 f4	 push	 DWORD PTR [eax-12]
  0043e	50		 push	 eax
  0043f	8d 45 0c	 lea	 eax, DWORD PTR $T12[ebp]
  00442	50		 push	 eax
  00443	ff 15 00 00 00
	00		 call	 DWORD PTR __imp_?Concatenate@?$CSimpleStringT@D$00@ATL@@KAXAAV12@PBDH1H@Z
  00449	83 c4 14	 add	 esp, 20			; 00000014H
; File D:\git\src\IBK\IBK_DRFN\ProjSrc\SrcChartEx\ChartAddIn\ChartDesignPropertyAddIn\ChartDesignPropertyAddIn\DataOfChartListPage.cpp

; 178  : 	strValue += CDataConversion::IntToString(pItem->m_bPreNowContrast) + ";";

  0044c	8d 45 0c	 lea	 eax, DWORD PTR $T12[ebp]
  0044f	8b cb		 mov	 ecx, ebx
  00451	50		 push	 eax
  00452	ff 15 00 00 00
	00		 call	 DWORD PTR __imp_??Y?$CStringT@DV?$StrTraitMFC_DLL@DV?$ChTraitsCRT@D@ATL@@@@@ATL@@QAEAAV01@ABV?$CSimpleStringT@D$00@1@@Z
  00458	8d 4d 0c	 lea	 ecx, DWORD PTR $T12[ebp]
  0045b	c7 45 f0 01 00
	00 00		 mov	 DWORD PTR $T10[ebp], 1
  00462	ff 15 00 00 00
	00		 call	 DWORD PTR __imp_??1?$CStringT@DV?$StrTraitMFC_DLL@DV?$ChTraitsCRT@D@ATL@@@@@ATL@@QAE@XZ
  00468	8d 4d ec	 lea	 ecx, DWORD PTR $T3[ebp]
  0046b	c6 45 fc 00	 mov	 BYTE PTR __$EHRec$[ebp+8], 0
  0046f	ff 15 00 00 00
	00		 call	 DWORD PTR __imp_??1?$CStringT@DV?$StrTraitMFC_DLL@DV?$ChTraitsCRT@D@ATL@@@@@ATL@@QAE@XZ

; 179  : 	strValue += CDataConversion::IntToString(pItem->m_nCurData) + ";";

  00475	ff 77 34	 push	 DWORD PTR [edi+52]
  00478	8d 45 ec	 lea	 eax, DWORD PTR $T2[ebp]
  0047b	50		 push	 eax
  0047c	e8 00 00 00 00	 call	 ?IntToString@CDataConversion@@SA?AV?$CStringT@DV?$StrTraitMFC_DLL@DV?$ChTraitsCRT@D@ATL@@@@@ATL@@H@Z ; CDataConversion::IntToString
  00481	83 c4 08	 add	 esp, 8
  00484	8b f0		 mov	 esi, eax
; File C:\Program Files (x86)\Microsoft Visual Studio\2019\Community\VC\Tools\MSVC\14.29.30133\atlmfc\include\cstringt.h

; 2401 : 		CStringT strResult( str1.GetManager() );

  00486	8b ce		 mov	 ecx, esi
; File D:\git\src\IBK\IBK_DRFN\ProjSrc\SrcChartEx\ChartAddIn\ChartDesignPropertyAddIn\ChartDesignPropertyAddIn\DataOfChartListPage.cpp

; 179  : 	strValue += CDataConversion::IntToString(pItem->m_nCurData) + ";";

  00488	c7 45 fc 12 00
	00 00		 mov	 DWORD PTR __$EHRec$[ebp+8], 18 ; 00000012H
; File C:\Program Files (x86)\Microsoft Visual Studio\2019\Community\VC\Tools\MSVC\14.29.30133\atlmfc\include\cstringt.h

; 2401 : 		CStringT strResult( str1.GetManager() );

  0048f	ff 15 00 00 00
	00		 call	 DWORD PTR __imp_?GetManager@?$CStringT@DV?$StrTraitMFC_DLL@DV?$ChTraitsCRT@D@ATL@@@@@ATL@@QBEPAUIAtlStringMgr@2@XZ
  00495	50		 push	 eax
  00496	8d 4d 0c	 lea	 ecx, DWORD PTR $T11[ebp]
  00499	ff 15 00 00 00
	00		 call	 DWORD PTR __imp_??0?$CStringT@DV?$StrTraitMFC_DLL@DV?$ChTraitsCRT@D@ATL@@@@@ATL@@QAE@PAUIAtlStringMgr@1@@Z
; File C:\Program Files (x86)\Microsoft Visual Studio\2019\Community\VC\Tools\MSVC\14.29.30133\atlmfc\include\atlsimpstr.h

; 519  : 		return( GetData()->nDataLength );

  0049f	8b 06		 mov	 eax, DWORD PTR [esi]
; File C:\Program Files (x86)\Microsoft Visual Studio\2019\Community\VC\Tools\MSVC\14.29.30133\atlmfc\include\cstringt.h

; 2403 : 		CThisSimpleString::Concatenate( strResult, str1, str1.GetLength(), psz2, CThisSimpleString::StringLength( psz2 ) );

  004a1	6a 01		 push	 1
  004a3	68 00 00 00 00	 push	 OFFSET ??_C@_01ICJEACDI@?$DL@

; 2404 : 
; 2405 : 		return( strResult );

  004a8	c7 45 f0 01 08
	00 00		 mov	 DWORD PTR $T10[ebp], 2049 ; 00000801H
  004af	ff 70 f4	 push	 DWORD PTR [eax-12]
  004b2	50		 push	 eax
  004b3	8d 45 0c	 lea	 eax, DWORD PTR $T11[ebp]
  004b6	50		 push	 eax
  004b7	ff 15 00 00 00
	00		 call	 DWORD PTR __imp_?Concatenate@?$CSimpleStringT@D$00@ATL@@KAXAAV12@PBDH1H@Z
  004bd	83 c4 14	 add	 esp, 20			; 00000014H
; File D:\git\src\IBK\IBK_DRFN\ProjSrc\SrcChartEx\ChartAddIn\ChartDesignPropertyAddIn\ChartDesignPropertyAddIn\DataOfChartListPage.cpp

; 179  : 	strValue += CDataConversion::IntToString(pItem->m_nCurData) + ";";

  004c0	8d 45 0c	 lea	 eax, DWORD PTR $T11[ebp]
  004c3	8b cb		 mov	 ecx, ebx
  004c5	50		 push	 eax
  004c6	ff 15 00 00 00
	00		 call	 DWORD PTR __imp_??Y?$CStringT@DV?$StrTraitMFC_DLL@DV?$ChTraitsCRT@D@ATL@@@@@ATL@@QAEAAV01@ABV?$CSimpleStringT@D$00@1@@Z
  004cc	8d 4d 0c	 lea	 ecx, DWORD PTR $T11[ebp]
  004cf	c7 45 f0 01 00
	00 00		 mov	 DWORD PTR $T10[ebp], 1
  004d6	ff 15 00 00 00
	00		 call	 DWORD PTR __imp_??1?$CStringT@DV?$StrTraitMFC_DLL@DV?$ChTraitsCRT@D@ATL@@@@@ATL@@QAE@XZ
  004dc	8d 4d ec	 lea	 ecx, DWORD PTR $T2[ebp]
  004df	c6 45 fc 00	 mov	 BYTE PTR __$EHRec$[ebp+8], 0
  004e3	ff 15 00 00 00
	00		 call	 DWORD PTR __imp_??1?$CStringT@DV?$StrTraitMFC_DLL@DV?$ChTraitsCRT@D@ATL@@@@@ATL@@QAE@XZ

; 180  : 	strValue += "\r\n";	

  004e9	68 00 00 00 00	 push	 OFFSET ??_C@_02PCIJFNDE@?$AN?6@
  004ee	8b cb		 mov	 ecx, ebx
  004f0	ff 15 00 00 00
	00		 call	 DWORD PTR __imp_??Y?$CStringT@DV?$StrTraitMFC_DLL@DV?$ChTraitsCRT@D@ATL@@@@@ATL@@QAEAAV01@PBD@Z

; 181  : 	strValue += pItem->m_strSubGraphDatas; 

  004f6	8d 4f 28	 lea	 ecx, DWORD PTR [edi+40]
  004f9	51		 push	 ecx
  004fa	8b cb		 mov	 ecx, ebx
  004fc	ff 15 00 00 00
	00		 call	 DWORD PTR __imp_??Y?$CStringT@DV?$StrTraitMFC_DLL@DV?$ChTraitsCRT@D@ATL@@@@@ATL@@QAEAAV01@ABV?$CSimpleStringT@D$00@1@@Z

; 182  : 	strValue += "GraphEnd;\r\n";

  00502	68 00 00 00 00	 push	 OFFSET ??_C@_0M@DGHFHKEI@GraphEnd?$DL?$AN?6@
  00507	8b cb		 mov	 ecx, ebx
  00509	ff 15 00 00 00
	00		 call	 DWORD PTR __imp_??Y?$CStringT@DV?$StrTraitMFC_DLL@DV?$ChTraitsCRT@D@ATL@@@@@ATL@@QAEAAV01@PBD@Z

; 183  : 	return strValue;

  0050f	8b c3		 mov	 eax, ebx

; 184  : }

  00511	8b 4d f4	 mov	 ecx, DWORD PTR __$EHRec$[ebp]
  00514	64 89 0d 00 00
	00 00		 mov	 DWORD PTR fs:0, ecx
  0051b	59		 pop	 ecx
  0051c	5f		 pop	 edi
  0051d	5e		 pop	 esi
  0051e	5b		 pop	 ebx
  0051f	8b e5		 mov	 esp, ebp
  00521	5d		 pop	 ebp
  00522	c2 08 00	 ret	 8
_TEXT	ENDS
;	COMDAT text$x
text$x	SEGMENT
__unwindfunclet$?GetGraphAllData@CDataOfChartListPage@@AAE?AV?$CStringT@DV?$StrTraitMFC_DLL@DV?$ChTraitsCRT@D@ATL@@@@@ATL@@PAVCChartLink@@@Z$0:
  00000	8b 45 f0	 mov	 eax, DWORD PTR $T10[ebp]
  00003	83 e0 01	 and	 eax, 1
  00006	0f 84 0d 00 00
	00		 je	 $LN4@GetGraphAl
  0000c	83 65 f0 fe	 and	 DWORD PTR $T10[ebp], -2	; fffffffeH
  00010	8b 4d 08	 mov	 ecx, DWORD PTR ___$ReturnUdt$[ebp]
  00013	ff 25 00 00 00
	00		 jmp	 DWORD PTR __imp_??1?$CStringT@DV?$StrTraitMFC_DLL@DV?$ChTraitsCRT@D@ATL@@@@@ATL@@QAE@XZ
$LN4@GetGraphAl:
  00019	c3		 ret	 0
__unwindfunclet$?GetGraphAllData@CDataOfChartListPage@@AAE?AV?$CStringT@DV?$StrTraitMFC_DLL@DV?$ChTraitsCRT@D@ATL@@@@@ATL@@PAVCChartLink@@@Z$19:
  0001a	8b 45 f0	 mov	 eax, DWORD PTR $T10[ebp]
  0001d	83 e0 02	 and	 eax, 2
  00020	0f 84 0d 00 00
	00		 je	 $LN26@GetGraphAl
  00026	83 65 f0 fd	 and	 DWORD PTR $T10[ebp], -3	; fffffffdH
  0002a	8d 4d 0c	 lea	 ecx, DWORD PTR $T20[ebp]
  0002d	ff 25 00 00 00
	00		 jmp	 DWORD PTR __imp_??1?$CStringT@DV?$StrTraitMFC_DLL@DV?$ChTraitsCRT@D@ATL@@@@@ATL@@QAE@XZ
$LN26@GetGraphAl:
  00033	c3		 ret	 0
__unwindfunclet$?GetGraphAllData@CDataOfChartListPage@@AAE?AV?$CStringT@DV?$StrTraitMFC_DLL@DV?$ChTraitsCRT@D@ATL@@@@@ATL@@PAVCChartLink@@@Z$20:
  00034	8b 45 f0	 mov	 eax, DWORD PTR $T10[ebp]
  00037	83 e0 04	 and	 eax, 4
  0003a	0f 84 0d 00 00
	00		 je	 $LN39@GetGraphAl
  00040	83 65 f0 fb	 and	 DWORD PTR $T10[ebp], -5	; fffffffbH
  00044	8d 4d 0c	 lea	 ecx, DWORD PTR $T19[ebp]
  00047	ff 25 00 00 00
	00		 jmp	 DWORD PTR __imp_??1?$CStringT@DV?$StrTraitMFC_DLL@DV?$ChTraitsCRT@D@ATL@@@@@ATL@@QAE@XZ
$LN39@GetGraphAl:
  0004d	c3		 ret	 0
__unwindfunclet$?GetGraphAllData@CDataOfChartListPage@@AAE?AV?$CStringT@DV?$StrTraitMFC_DLL@DV?$ChTraitsCRT@D@ATL@@@@@ATL@@PAVCChartLink@@@Z$21:
  0004e	8b 45 f0	 mov	 eax, DWORD PTR $T10[ebp]
  00051	83 e0 08	 and	 eax, 8
  00054	0f 84 0d 00 00
	00		 je	 $LN52@GetGraphAl
  0005a	83 65 f0 f7	 and	 DWORD PTR $T10[ebp], -9	; fffffff7H
  0005e	8d 4d ec	 lea	 ecx, DWORD PTR $T9[ebp]
  00061	ff 25 00 00 00
	00		 jmp	 DWORD PTR __imp_??1?$CStringT@DV?$StrTraitMFC_DLL@DV?$ChTraitsCRT@D@ATL@@@@@ATL@@QAE@XZ
$LN52@GetGraphAl:
  00067	c3		 ret	 0
__unwindfunclet$?GetGraphAllData@CDataOfChartListPage@@AAE?AV?$CStringT@DV?$StrTraitMFC_DLL@DV?$ChTraitsCRT@D@ATL@@@@@ATL@@PAVCChartLink@@@Z$22:
  00068	8b 45 f0	 mov	 eax, DWORD PTR $T10[ebp]
  0006b	83 e0 10	 and	 eax, 16			; 00000010H
  0006e	0f 84 0d 00 00
	00		 je	 $LN65@GetGraphAl
  00074	83 65 f0 ef	 and	 DWORD PTR $T10[ebp], -17 ; ffffffefH
  00078	8d 4d 0c	 lea	 ecx, DWORD PTR $T18[ebp]
  0007b	ff 25 00 00 00
	00		 jmp	 DWORD PTR __imp_??1?$CStringT@DV?$StrTraitMFC_DLL@DV?$ChTraitsCRT@D@ATL@@@@@ATL@@QAE@XZ
$LN65@GetGraphAl:
  00081	c3		 ret	 0
__unwindfunclet$?GetGraphAllData@CDataOfChartListPage@@AAE?AV?$CStringT@DV?$StrTraitMFC_DLL@DV?$ChTraitsCRT@D@ATL@@@@@ATL@@PAVCChartLink@@@Z$5:
  00082	8d 4d ec	 lea	 ecx, DWORD PTR $T8[ebp]
  00085	ff 25 00 00 00
	00		 jmp	 DWORD PTR __imp_??1?$CStringT@DV?$StrTraitMFC_DLL@DV?$ChTraitsCRT@D@ATL@@@@@ATL@@QAE@XZ
__unwindfunclet$?GetGraphAllData@CDataOfChartListPage@@AAE?AV?$CStringT@DV?$StrTraitMFC_DLL@DV?$ChTraitsCRT@D@ATL@@@@@ATL@@PAVCChartLink@@@Z$23:
  0008b	8b 45 f0	 mov	 eax, DWORD PTR $T10[ebp]
  0008e	83 e0 20	 and	 eax, 32			; 00000020H
  00091	0f 84 0d 00 00
	00		 je	 $LN78@GetGraphAl
  00097	83 65 f0 df	 and	 DWORD PTR $T10[ebp], -33 ; ffffffdfH
  0009b	8d 4d 0c	 lea	 ecx, DWORD PTR $T17[ebp]
  0009e	ff 25 00 00 00
	00		 jmp	 DWORD PTR __imp_??1?$CStringT@DV?$StrTraitMFC_DLL@DV?$ChTraitsCRT@D@ATL@@@@@ATL@@QAE@XZ
$LN78@GetGraphAl:
  000a4	c3		 ret	 0
__unwindfunclet$?GetGraphAllData@CDataOfChartListPage@@AAE?AV?$CStringT@DV?$StrTraitMFC_DLL@DV?$ChTraitsCRT@D@ATL@@@@@ATL@@PAVCChartLink@@@Z$7:
  000a5	8d 4d ec	 lea	 ecx, DWORD PTR $T7[ebp]
  000a8	ff 25 00 00 00
	00		 jmp	 DWORD PTR __imp_??1?$CStringT@DV?$StrTraitMFC_DLL@DV?$ChTraitsCRT@D@ATL@@@@@ATL@@QAE@XZ
__unwindfunclet$?GetGraphAllData@CDataOfChartListPage@@AAE?AV?$CStringT@DV?$StrTraitMFC_DLL@DV?$ChTraitsCRT@D@ATL@@@@@ATL@@PAVCChartLink@@@Z$24:
  000ae	8b 45 f0	 mov	 eax, DWORD PTR $T10[ebp]
  000b1	83 e0 40	 and	 eax, 64			; 00000040H
  000b4	0f 84 0d 00 00
	00		 je	 $LN91@GetGraphAl
  000ba	83 65 f0 bf	 and	 DWORD PTR $T10[ebp], -65 ; ffffffbfH
  000be	8d 4d 0c	 lea	 ecx, DWORD PTR $T16[ebp]
  000c1	ff 25 00 00 00
	00		 jmp	 DWORD PTR __imp_??1?$CStringT@DV?$StrTraitMFC_DLL@DV?$ChTraitsCRT@D@ATL@@@@@ATL@@QAE@XZ
$LN91@GetGraphAl:
  000c7	c3		 ret	 0
__unwindfunclet$?GetGraphAllData@CDataOfChartListPage@@AAE?AV?$CStringT@DV?$StrTraitMFC_DLL@DV?$ChTraitsCRT@D@ATL@@@@@ATL@@PAVCChartLink@@@Z$9:
  000c8	8d 4d ec	 lea	 ecx, DWORD PTR $T6[ebp]
  000cb	ff 25 00 00 00
	00		 jmp	 DWORD PTR __imp_??1?$CStringT@DV?$StrTraitMFC_DLL@DV?$ChTraitsCRT@D@ATL@@@@@ATL@@QAE@XZ
__unwindfunclet$?GetGraphAllData@CDataOfChartListPage@@AAE?AV?$CStringT@DV?$StrTraitMFC_DLL@DV?$ChTraitsCRT@D@ATL@@@@@ATL@@PAVCChartLink@@@Z$25:
  000d1	8b 45 f0	 mov	 eax, DWORD PTR $T10[ebp]
  000d4	25 80 00 00 00	 and	 eax, 128		; 00000080H
  000d9	0f 84 10 00 00
	00		 je	 $LN104@GetGraphAl
  000df	81 65 f0 7f ff
	ff ff		 and	 DWORD PTR $T10[ebp], -129 ; ffffff7fH
  000e6	8d 4d 0c	 lea	 ecx, DWORD PTR $T15[ebp]
  000e9	ff 25 00 00 00
	00		 jmp	 DWORD PTR __imp_??1?$CStringT@DV?$StrTraitMFC_DLL@DV?$ChTraitsCRT@D@ATL@@@@@ATL@@QAE@XZ
$LN104@GetGraphAl:
  000ef	c3		 ret	 0
__unwindfunclet$?GetGraphAllData@CDataOfChartListPage@@AAE?AV?$CStringT@DV?$StrTraitMFC_DLL@DV?$ChTraitsCRT@D@ATL@@@@@ATL@@PAVCChartLink@@@Z$11:
  000f0	8d 4d ec	 lea	 ecx, DWORD PTR $T5[ebp]
  000f3	ff 25 00 00 00
	00		 jmp	 DWORD PTR __imp_??1?$CStringT@DV?$StrTraitMFC_DLL@DV?$ChTraitsCRT@D@ATL@@@@@ATL@@QAE@XZ
__unwindfunclet$?GetGraphAllData@CDataOfChartListPage@@AAE?AV?$CStringT@DV?$StrTraitMFC_DLL@DV?$ChTraitsCRT@D@ATL@@@@@ATL@@PAVCChartLink@@@Z$26:
  000f9	8b 45 f0	 mov	 eax, DWORD PTR $T10[ebp]
  000fc	25 00 01 00 00	 and	 eax, 256		; 00000100H
  00101	0f 84 10 00 00
	00		 je	 $LN117@GetGraphAl
  00107	81 65 f0 ff fe
	ff ff		 and	 DWORD PTR $T10[ebp], -257 ; fffffeffH
  0010e	8d 4d 0c	 lea	 ecx, DWORD PTR $T14[ebp]
  00111	ff 25 00 00 00
	00		 jmp	 DWORD PTR __imp_??1?$CStringT@DV?$StrTraitMFC_DLL@DV?$ChTraitsCRT@D@ATL@@@@@ATL@@QAE@XZ
$LN117@GetGraphAl:
  00117	c3		 ret	 0
__unwindfunclet$?GetGraphAllData@CDataOfChartListPage@@AAE?AV?$CStringT@DV?$StrTraitMFC_DLL@DV?$ChTraitsCRT@D@ATL@@@@@ATL@@PAVCChartLink@@@Z$13:
  00118	8d 4d ec	 lea	 ecx, DWORD PTR $T4[ebp]
  0011b	ff 25 00 00 00
	00		 jmp	 DWORD PTR __imp_??1?$CStringT@DV?$StrTraitMFC_DLL@DV?$ChTraitsCRT@D@ATL@@@@@ATL@@QAE@XZ
__unwindfunclet$?GetGraphAllData@CDataOfChartListPage@@AAE?AV?$CStringT@DV?$StrTraitMFC_DLL@DV?$ChTraitsCRT@D@ATL@@@@@ATL@@PAVCChartLink@@@Z$27:
  00121	8b 45 f0	 mov	 eax, DWORD PTR $T10[ebp]
  00124	25 00 02 00 00	 and	 eax, 512		; 00000200H
  00129	0f 84 10 00 00
	00		 je	 $LN130@GetGraphAl
  0012f	81 65 f0 ff fd
	ff ff		 and	 DWORD PTR $T10[ebp], -513 ; fffffdffH
  00136	8d 4d 0c	 lea	 ecx, DWORD PTR $T13[ebp]
  00139	ff 25 00 00 00
	00		 jmp	 DWORD PTR __imp_??1?$CStringT@DV?$StrTraitMFC_DLL@DV?$ChTraitsCRT@D@ATL@@@@@ATL@@QAE@XZ
$LN130@GetGraphAl:
  0013f	c3		 ret	 0
__unwindfunclet$?GetGraphAllData@CDataOfChartListPage@@AAE?AV?$CStringT@DV?$StrTraitMFC_DLL@DV?$ChTraitsCRT@D@ATL@@@@@ATL@@PAVCChartLink@@@Z$15:
  00140	8d 4d ec	 lea	 ecx, DWORD PTR $T3[ebp]
  00143	ff 25 00 00 00
	00		 jmp	 DWORD PTR __imp_??1?$CStringT@DV?$StrTraitMFC_DLL@DV?$ChTraitsCRT@D@ATL@@@@@ATL@@QAE@XZ
__unwindfunclet$?GetGraphAllData@CDataOfChartListPage@@AAE?AV?$CStringT@DV?$StrTraitMFC_DLL@DV?$ChTraitsCRT@D@ATL@@@@@ATL@@PAVCChartLink@@@Z$28:
  00149	8b 45 f0	 mov	 eax, DWORD PTR $T10[ebp]
  0014c	25 00 04 00 00	 and	 eax, 1024		; 00000400H
  00151	0f 84 10 00 00
	00		 je	 $LN143@GetGraphAl
  00157	81 65 f0 ff fb
	ff ff		 and	 DWORD PTR $T10[ebp], -1025 ; fffffbffH
  0015e	8d 4d 0c	 lea	 ecx, DWORD PTR $T12[ebp]
  00161	ff 25 00 00 00
	00		 jmp	 DWORD PTR __imp_??1?$CStringT@DV?$StrTraitMFC_DLL@DV?$ChTraitsCRT@D@ATL@@@@@ATL@@QAE@XZ
$LN143@GetGraphAl:
  00167	c3		 ret	 0
__unwindfunclet$?GetGraphAllData@CDataOfChartListPage@@AAE?AV?$CStringT@DV?$StrTraitMFC_DLL@DV?$ChTraitsCRT@D@ATL@@@@@ATL@@PAVCChartLink@@@Z$17:
  00168	8d 4d ec	 lea	 ecx, DWORD PTR $T2[ebp]
  0016b	ff 25 00 00 00
	00		 jmp	 DWORD PTR __imp_??1?$CStringT@DV?$StrTraitMFC_DLL@DV?$ChTraitsCRT@D@ATL@@@@@ATL@@QAE@XZ
__unwindfunclet$?GetGraphAllData@CDataOfChartListPage@@AAE?AV?$CStringT@DV?$StrTraitMFC_DLL@DV?$ChTraitsCRT@D@ATL@@@@@ATL@@PAVCChartLink@@@Z$29:
  00171	8b 45 f0	 mov	 eax, DWORD PTR $T10[ebp]
  00174	25 00 08 00 00	 and	 eax, 2048		; 00000800H
  00179	0f 84 10 00 00
	00		 je	 $LN156@GetGraphAl
  0017f	81 65 f0 ff f7
	ff ff		 and	 DWORD PTR $T10[ebp], -2049 ; fffff7ffH
  00186	8d 4d 0c	 lea	 ecx, DWORD PTR $T11[ebp]
  00189	ff 25 00 00 00
	00		 jmp	 DWORD PTR __imp_??1?$CStringT@DV?$StrTraitMFC_DLL@DV?$ChTraitsCRT@D@ATL@@@@@ATL@@QAE@XZ
$LN156@GetGraphAl:
  0018f	c3		 ret	 0
  00190	cc		 int	 3
  00191	cc		 int	 3
  00192	cc		 int	 3
  00193	cc		 int	 3
  00194	cc		 int	 3
__ehhandler$?GetGraphAllData@CDataOfChartListPage@@AAE?AV?$CStringT@DV?$StrTraitMFC_DLL@DV?$ChTraitsCRT@D@ATL@@@@@ATL@@PAVCChartLink@@@Z:
  00195	90		 npad	 1
  00196	90		 npad	 1
  00197	8b 54 24 08	 mov	 edx, DWORD PTR [esp+8]
  0019b	8d 42 0c	 lea	 eax, DWORD PTR [edx+12]
  0019e	8b 4a e8	 mov	 ecx, DWORD PTR [edx-24]
  001a1	33 c8		 xor	 ecx, eax
  001a3	e8 00 00 00 00	 call	 @__security_check_cookie@4
  001a8	b8 00 00 00 00	 mov	 eax, OFFSET __ehfuncinfo$?GetGraphAllData@CDataOfChartListPage@@AAE?AV?$CStringT@DV?$StrTraitMFC_DLL@DV?$ChTraitsCRT@D@ATL@@@@@ATL@@PAVCChartLink@@@Z
  001ad	e9 00 00 00 00	 jmp	 ___CxxFrameHandler3
text$x	ENDS
?GetGraphAllData@CDataOfChartListPage@@AAE?AV?$CStringT@DV?$StrTraitMFC_DLL@DV?$ChTraitsCRT@D@ATL@@@@@ATL@@PAVCChartLink@@@Z ENDP ; CDataOfChartListPage::GetGraphAllData
; Function compile flags: /Ogtp
; File D:\git\src\IBK\IBK_DRFN\ProjSrc\SrcChartEx\ChartAddIn\ChartDesignPropertyAddIn\ChartDesignPropertyAddIn\DataOfChartListPage.cpp
; File C:\Program Files (x86)\Microsoft Visual Studio\2019\Community\VC\Tools\MSVC\14.29.30133\atlmfc\include\atlsimpstr.h
; File D:\git\src\IBK\IBK_DRFN\ProjSrc\SrcChartEx\ChartAddIn\ChartDesignPropertyAddIn\ChartDesignPropertyAddIn\DataOfChartListPage.cpp
; File C:\Program Files (x86)\Microsoft Visual Studio\2019\Community\VC\Tools\MSVC\14.29.30133\atlmfc\include\atlsimpstr.h
; File D:\git\src\IBK\IBK_DRFN\ProjSrc\SrcChartEx\ChartAddIn\ChartDesignPropertyAddIn\ChartDesignPropertyAddIn\DataOfChartListPage.cpp
;	COMDAT ?SetBlockItem_Temp@CDataOfChartListPage@@AAEXHV?$CStringT@DV?$StrTraitMFC_DLL@DV?$ChTraitsCRT@D@ATL@@@@@ATL@@@Z
_TEXT	SEGMENT
_this$1$ = -44						; size = 4
_nHorizonpos$1$ = -40					; size = 4
$T2 = -36						; size = 4
$T3 = -36						; size = 4
$T4 = -36						; size = 4
$T5 = -36						; size = 4
_szScaleData$ = -32					; size = 4
_szDateScalePosition$ = -28				; size = 4
_szTimeScalePosition$ = -24				; size = 4
$T6 = -20						; size = 4
$T7 = -20						; size = 4
$T8 = -20						; size = 4
$T9 = -20						; size = 4
$T10 = -20						; size = 4
$T11 = -20						; size = 4
$T12 = -16						; size = 4
$T13 = -16						; size = 4
$T14 = -16						; size = 4
__$EHRec$ = -12						; size = 12
_nBlock$ = 8						; size = 4
_strData$ = 12						; size = 4
?SetBlockItem_Temp@CDataOfChartListPage@@AAEXHV?$CStringT@DV?$StrTraitMFC_DLL@DV?$ChTraitsCRT@D@ATL@@@@@ATL@@@Z PROC ; CDataOfChartListPage::SetBlockItem_Temp, COMDAT
; _this$ = ecx

; 284  : {

  00000	55		 push	 ebp
  00001	8b ec		 mov	 ebp, esp
  00003	6a ff		 push	 -1
  00005	68 00 00 00 00	 push	 __ehhandler$?SetBlockItem_Temp@CDataOfChartListPage@@AAEXHV?$CStringT@DV?$StrTraitMFC_DLL@DV?$ChTraitsCRT@D@ATL@@@@@ATL@@@Z
  0000a	64 a1 00 00 00
	00		 mov	 eax, DWORD PTR fs:0
  00010	50		 push	 eax
  00011	83 ec 20	 sub	 esp, 32			; 00000020H
  00014	53		 push	 ebx
  00015	56		 push	 esi
  00016	57		 push	 edi
  00017	a1 00 00 00 00	 mov	 eax, DWORD PTR ___security_cookie
  0001c	33 c5		 xor	 eax, ebp
  0001e	50		 push	 eax
  0001f	8d 45 f4	 lea	 eax, DWORD PTR __$EHRec$[ebp]
  00022	64 a3 00 00 00
	00		 mov	 DWORD PTR fs:0, eax
  00028	89 4d d4	 mov	 DWORD PTR _this$1$[ebp], ecx
; File C:\Program Files (x86)\Microsoft Visual Studio\2019\Community\VC\Tools\MSVC\14.29.30133\atlmfc\include\atlsimpstr.h

; 519  : 		return( GetData()->nDataLength );

  0002b	8b 45 0c	 mov	 eax, DWORD PTR _strData$[ebp]
; File D:\git\src\IBK\IBK_DRFN\ProjSrc\SrcChartEx\ChartAddIn\ChartDesignPropertyAddIn\ChartDesignPropertyAddIn\DataOfChartListPage.cpp

; 284  : {

  0002e	c7 45 fc 00 00
	00 00		 mov	 DWORD PTR __$EHRec$[ebp+8], 0
; File C:\Program Files (x86)\Microsoft Visual Studio\2019\Community\VC\Tools\MSVC\14.29.30133\atlmfc\include\atlsimpstr.h

; 533  : 		return( GetLength() == 0 );

  00035	83 78 f4 00	 cmp	 DWORD PTR [eax-12], 0
; File D:\git\src\IBK\IBK_DRFN\ProjSrc\SrcChartEx\ChartAddIn\ChartDesignPropertyAddIn\ChartDesignPropertyAddIn\DataOfChartListPage.cpp

; 286  : 	if(strData.IsEmpty())

  00039	0f 84 31 02 00
	00		 je	 $LN21@SetBlockIt

; 287  : 		return;
; 288  : 
; 289  : 	CDataConversion::GetStringData(strData, "Block;\r\n");

  0003f	68 00 00 00 00	 push	 OFFSET ??_C@_08KGLHHGPJ@Block?$DL?$AN?6@
  00044	8d 4d f0	 lea	 ecx, DWORD PTR $T14[ebp]
  00047	ff 15 00 00 00
	00		 call	 DWORD PTR __imp_??0?$CStringT@DV?$StrTraitMFC_DLL@DV?$ChTraitsCRT@D@ATL@@@@@ATL@@QAE@PBD@Z
  0004d	6a 01		 push	 1
  0004f	8d 45 f0	 lea	 eax, DWORD PTR $T14[ebp]
  00052	c6 45 fc 01	 mov	 BYTE PTR __$EHRec$[ebp+8], 1
  00056	50		 push	 eax
  00057	8d 45 0c	 lea	 eax, DWORD PTR _strData$[ebp]
  0005a	50		 push	 eax
  0005b	8d 45 ec	 lea	 eax, DWORD PTR $T11[ebp]
  0005e	50		 push	 eax
  0005f	e8 00 00 00 00	 call	 ?GetStringData@CDataConversion@@SA?AV?$CStringT@DV?$StrTraitMFC_DLL@DV?$ChTraitsCRT@D@ATL@@@@@ATL@@AAV23@ABV23@_N@Z ; CDataConversion::GetStringData
  00064	83 c4 10	 add	 esp, 16			; 00000010H
  00067	8d 4d ec	 lea	 ecx, DWORD PTR $T11[ebp]
  0006a	ff 15 00 00 00
	00		 call	 DWORD PTR __imp_??1?$CStringT@DV?$StrTraitMFC_DLL@DV?$ChTraitsCRT@D@ATL@@@@@ATL@@QAE@XZ
  00070	8d 4d f0	 lea	 ecx, DWORD PTR $T14[ebp]
  00073	c6 45 fc 00	 mov	 BYTE PTR __$EHRec$[ebp+8], 0
  00077	ff 15 00 00 00
	00		 call	 DWORD PTR __imp_??1?$CStringT@DV?$StrTraitMFC_DLL@DV?$ChTraitsCRT@D@ATL@@@@@ATL@@QAE@XZ

; 290  : 	CString szScaleData = CDataConversion::GetStringData(strData, ";");

  0007d	68 00 00 00 00	 push	 OFFSET ??_C@_01ICJEACDI@?$DL@
  00082	8d 4d f0	 lea	 ecx, DWORD PTR $T13[ebp]
  00085	ff 15 00 00 00
	00		 call	 DWORD PTR __imp_??0?$CStringT@DV?$StrTraitMFC_DLL@DV?$ChTraitsCRT@D@ATL@@@@@ATL@@QAE@PBD@Z
  0008b	6a 01		 push	 1
  0008d	8d 45 f0	 lea	 eax, DWORD PTR $T13[ebp]
  00090	c6 45 fc 02	 mov	 BYTE PTR __$EHRec$[ebp+8], 2
  00094	50		 push	 eax
  00095	8d 45 0c	 lea	 eax, DWORD PTR _strData$[ebp]
  00098	50		 push	 eax
  00099	8d 45 e0	 lea	 eax, DWORD PTR _szScaleData$[ebp]
  0009c	50		 push	 eax
  0009d	e8 00 00 00 00	 call	 ?GetStringData@CDataConversion@@SA?AV?$CStringT@DV?$StrTraitMFC_DLL@DV?$ChTraitsCRT@D@ATL@@@@@ATL@@AAV23@ABV23@_N@Z ; CDataConversion::GetStringData
  000a2	83 c4 10	 add	 esp, 16			; 00000010H
  000a5	8d 4d f0	 lea	 ecx, DWORD PTR $T13[ebp]
  000a8	c6 45 fc 04	 mov	 BYTE PTR __$EHRec$[ebp+8], 4
  000ac	ff 15 00 00 00
	00		 call	 DWORD PTR __imp_??1?$CStringT@DV?$StrTraitMFC_DLL@DV?$ChTraitsCRT@D@ATL@@@@@ATL@@QAE@XZ

; 291  : 	int nHorizonpos = atoi(CDataConversion::GetStringData(strData, ";"));

  000b2	68 00 00 00 00	 push	 OFFSET ??_C@_01ICJEACDI@?$DL@
  000b7	8d 4d ec	 lea	 ecx, DWORD PTR $T10[ebp]
  000ba	ff 15 00 00 00
	00		 call	 DWORD PTR __imp_??0?$CStringT@DV?$StrTraitMFC_DLL@DV?$ChTraitsCRT@D@ATL@@@@@ATL@@QAE@PBD@Z
  000c0	6a 01		 push	 1
  000c2	8d 45 ec	 lea	 eax, DWORD PTR $T10[ebp]
  000c5	c6 45 fc 05	 mov	 BYTE PTR __$EHRec$[ebp+8], 5
  000c9	50		 push	 eax
  000ca	8d 45 0c	 lea	 eax, DWORD PTR _strData$[ebp]
  000cd	50		 push	 eax
  000ce	8d 45 dc	 lea	 eax, DWORD PTR $T5[ebp]
  000d1	50		 push	 eax
  000d2	e8 00 00 00 00	 call	 ?GetStringData@CDataConversion@@SA?AV?$CStringT@DV?$StrTraitMFC_DLL@DV?$ChTraitsCRT@D@ATL@@@@@ATL@@AAV23@ABV23@_N@Z ; CDataConversion::GetStringData
  000d7	8b 35 00 00 00
	00		 mov	 esi, DWORD PTR __imp__atoi
  000dd	ff 30		 push	 DWORD PTR [eax]
  000df	ff d6		 call	 esi
  000e1	83 c4 14	 add	 esp, 20			; 00000014H
  000e4	89 45 d8	 mov	 DWORD PTR _nHorizonpos$1$[ebp], eax
  000e7	8d 4d dc	 lea	 ecx, DWORD PTR $T5[ebp]
  000ea	ff 15 00 00 00
	00		 call	 DWORD PTR __imp_??1?$CStringT@DV?$StrTraitMFC_DLL@DV?$ChTraitsCRT@D@ATL@@@@@ATL@@QAE@XZ
  000f0	8d 4d ec	 lea	 ecx, DWORD PTR $T10[ebp]
  000f3	c6 45 fc 04	 mov	 BYTE PTR __$EHRec$[ebp+8], 4
  000f7	ff 15 00 00 00
	00		 call	 DWORD PTR __imp_??1?$CStringT@DV?$StrTraitMFC_DLL@DV?$ChTraitsCRT@D@ATL@@@@@ATL@@QAE@XZ

; 292  : 	CString szDateScalePosition = CDataConversion::GetStringData(strData, ";");

  000fd	68 00 00 00 00	 push	 OFFSET ??_C@_01ICJEACDI@?$DL@
  00102	8d 4d ec	 lea	 ecx, DWORD PTR $T9[ebp]
  00105	ff 15 00 00 00
	00		 call	 DWORD PTR __imp_??0?$CStringT@DV?$StrTraitMFC_DLL@DV?$ChTraitsCRT@D@ATL@@@@@ATL@@QAE@PBD@Z
  0010b	6a 01		 push	 1
  0010d	8d 45 ec	 lea	 eax, DWORD PTR $T9[ebp]
  00110	c6 45 fc 06	 mov	 BYTE PTR __$EHRec$[ebp+8], 6
  00114	50		 push	 eax
  00115	8d 45 0c	 lea	 eax, DWORD PTR _strData$[ebp]
  00118	50		 push	 eax
  00119	8d 45 e4	 lea	 eax, DWORD PTR _szDateScalePosition$[ebp]
  0011c	50		 push	 eax
  0011d	e8 00 00 00 00	 call	 ?GetStringData@CDataConversion@@SA?AV?$CStringT@DV?$StrTraitMFC_DLL@DV?$ChTraitsCRT@D@ATL@@@@@ATL@@AAV23@ABV23@_N@Z ; CDataConversion::GetStringData
  00122	83 c4 10	 add	 esp, 16			; 00000010H
  00125	8d 4d ec	 lea	 ecx, DWORD PTR $T9[ebp]
  00128	c6 45 fc 08	 mov	 BYTE PTR __$EHRec$[ebp+8], 8
  0012c	ff 15 00 00 00
	00		 call	 DWORD PTR __imp_??1?$CStringT@DV?$StrTraitMFC_DLL@DV?$ChTraitsCRT@D@ATL@@@@@ATL@@QAE@XZ

; 293  : 	CString szTimeScalePosition = CDataConversion::GetStringData(strData, ";");

  00132	68 00 00 00 00	 push	 OFFSET ??_C@_01ICJEACDI@?$DL@
  00137	8d 4d f0	 lea	 ecx, DWORD PTR $T12[ebp]
  0013a	ff 15 00 00 00
	00		 call	 DWORD PTR __imp_??0?$CStringT@DV?$StrTraitMFC_DLL@DV?$ChTraitsCRT@D@ATL@@@@@ATL@@QAE@PBD@Z
  00140	6a 01		 push	 1
  00142	8d 45 f0	 lea	 eax, DWORD PTR $T12[ebp]
  00145	c6 45 fc 09	 mov	 BYTE PTR __$EHRec$[ebp+8], 9
  00149	50		 push	 eax
  0014a	8d 45 0c	 lea	 eax, DWORD PTR _strData$[ebp]
  0014d	50		 push	 eax
  0014e	8d 45 e8	 lea	 eax, DWORD PTR _szTimeScalePosition$[ebp]
  00151	50		 push	 eax
  00152	e8 00 00 00 00	 call	 ?GetStringData@CDataConversion@@SA?AV?$CStringT@DV?$StrTraitMFC_DLL@DV?$ChTraitsCRT@D@ATL@@@@@ATL@@AAV23@ABV23@_N@Z ; CDataConversion::GetStringData
  00157	83 c4 10	 add	 esp, 16			; 00000010H
  0015a	8d 4d f0	 lea	 ecx, DWORD PTR $T12[ebp]
  0015d	c6 45 fc 0b	 mov	 BYTE PTR __$EHRec$[ebp+8], 11 ; 0000000bH
  00161	ff 15 00 00 00
	00		 call	 DWORD PTR __imp_??1?$CStringT@DV?$StrTraitMFC_DLL@DV?$ChTraitsCRT@D@ATL@@@@@ATL@@QAE@XZ

; 294  : 	int nHorizonStyle = atoi(CDataConversion::GetStringData(strData, ";"));

  00167	68 00 00 00 00	 push	 OFFSET ??_C@_01ICJEACDI@?$DL@
  0016c	8d 4d ec	 lea	 ecx, DWORD PTR $T8[ebp]
  0016f	ff 15 00 00 00
	00		 call	 DWORD PTR __imp_??0?$CStringT@DV?$StrTraitMFC_DLL@DV?$ChTraitsCRT@D@ATL@@@@@ATL@@QAE@PBD@Z
  00175	6a 01		 push	 1
  00177	8d 45 ec	 lea	 eax, DWORD PTR $T8[ebp]
  0017a	c6 45 fc 0c	 mov	 BYTE PTR __$EHRec$[ebp+8], 12 ; 0000000cH
  0017e	50		 push	 eax
  0017f	8d 45 0c	 lea	 eax, DWORD PTR _strData$[ebp]
  00182	50		 push	 eax
  00183	8d 45 dc	 lea	 eax, DWORD PTR $T4[ebp]
  00186	50		 push	 eax
  00187	e8 00 00 00 00	 call	 ?GetStringData@CDataConversion@@SA?AV?$CStringT@DV?$StrTraitMFC_DLL@DV?$ChTraitsCRT@D@ATL@@@@@ATL@@AAV23@ABV23@_N@Z ; CDataConversion::GetStringData
  0018c	ff 30		 push	 DWORD PTR [eax]
  0018e	ff d6		 call	 esi
  00190	83 c4 14	 add	 esp, 20			; 00000014H
  00193	8d 4d dc	 lea	 ecx, DWORD PTR $T4[ebp]
  00196	8b d8		 mov	 ebx, eax
  00198	ff 15 00 00 00
	00		 call	 DWORD PTR __imp_??1?$CStringT@DV?$StrTraitMFC_DLL@DV?$ChTraitsCRT@D@ATL@@@@@ATL@@QAE@XZ
  0019e	8d 4d ec	 lea	 ecx, DWORD PTR $T8[ebp]
  001a1	c6 45 fc 0b	 mov	 BYTE PTR __$EHRec$[ebp+8], 11 ; 0000000bH
  001a5	ff 15 00 00 00
	00		 call	 DWORD PTR __imp_??1?$CStringT@DV?$StrTraitMFC_DLL@DV?$ChTraitsCRT@D@ATL@@@@@ATL@@QAE@XZ

; 295  : 	int nLog = atoi(CDataConversion::GetStringData(strData, ";"));

  001ab	68 00 00 00 00	 push	 OFFSET ??_C@_01ICJEACDI@?$DL@
  001b0	8d 4d ec	 lea	 ecx, DWORD PTR $T7[ebp]
  001b3	ff 15 00 00 00
	00		 call	 DWORD PTR __imp_??0?$CStringT@DV?$StrTraitMFC_DLL@DV?$ChTraitsCRT@D@ATL@@@@@ATL@@QAE@PBD@Z
  001b9	6a 01		 push	 1
  001bb	8d 45 ec	 lea	 eax, DWORD PTR $T7[ebp]
  001be	c6 45 fc 0d	 mov	 BYTE PTR __$EHRec$[ebp+8], 13 ; 0000000dH
  001c2	50		 push	 eax
  001c3	8d 45 0c	 lea	 eax, DWORD PTR _strData$[ebp]
  001c6	50		 push	 eax
  001c7	8d 45 dc	 lea	 eax, DWORD PTR $T3[ebp]
  001ca	50		 push	 eax
  001cb	e8 00 00 00 00	 call	 ?GetStringData@CDataConversion@@SA?AV?$CStringT@DV?$StrTraitMFC_DLL@DV?$ChTraitsCRT@D@ATL@@@@@ATL@@AAV23@ABV23@_N@Z ; CDataConversion::GetStringData
  001d0	ff 30		 push	 DWORD PTR [eax]
  001d2	ff d6		 call	 esi
  001d4	83 c4 14	 add	 esp, 20			; 00000014H
  001d7	8d 4d dc	 lea	 ecx, DWORD PTR $T3[ebp]
  001da	8b f8		 mov	 edi, eax
  001dc	ff 15 00 00 00
	00		 call	 DWORD PTR __imp_??1?$CStringT@DV?$StrTraitMFC_DLL@DV?$ChTraitsCRT@D@ATL@@@@@ATL@@QAE@XZ
  001e2	8d 4d ec	 lea	 ecx, DWORD PTR $T7[ebp]
  001e5	c6 45 fc 0b	 mov	 BYTE PTR __$EHRec$[ebp+8], 11 ; 0000000bH
  001e9	ff 15 00 00 00
	00		 call	 DWORD PTR __imp_??1?$CStringT@DV?$StrTraitMFC_DLL@DV?$ChTraitsCRT@D@ATL@@@@@ATL@@QAE@XZ

; 296  : 	int nOverTurn = atoi(CDataConversion::GetStringData(strData, ";"));

  001ef	68 00 00 00 00	 push	 OFFSET ??_C@_01ICJEACDI@?$DL@
  001f4	8d 4d ec	 lea	 ecx, DWORD PTR $T6[ebp]
  001f7	ff 15 00 00 00
	00		 call	 DWORD PTR __imp_??0?$CStringT@DV?$StrTraitMFC_DLL@DV?$ChTraitsCRT@D@ATL@@@@@ATL@@QAE@PBD@Z
  001fd	6a 01		 push	 1
  001ff	8d 45 ec	 lea	 eax, DWORD PTR $T6[ebp]
  00202	c6 45 fc 0e	 mov	 BYTE PTR __$EHRec$[ebp+8], 14 ; 0000000eH
  00206	50		 push	 eax
  00207	8d 45 0c	 lea	 eax, DWORD PTR _strData$[ebp]
  0020a	50		 push	 eax
  0020b	8d 45 dc	 lea	 eax, DWORD PTR $T2[ebp]
  0020e	50		 push	 eax
  0020f	e8 00 00 00 00	 call	 ?GetStringData@CDataConversion@@SA?AV?$CStringT@DV?$StrTraitMFC_DLL@DV?$ChTraitsCRT@D@ATL@@@@@ATL@@AAV23@ABV23@_N@Z ; CDataConversion::GetStringData
  00214	ff 30		 push	 DWORD PTR [eax]
  00216	ff d6		 call	 esi
  00218	83 c4 14	 add	 esp, 20			; 00000014H
  0021b	8d 4d dc	 lea	 ecx, DWORD PTR $T2[ebp]
  0021e	8b f0		 mov	 esi, eax
  00220	ff 15 00 00 00
	00		 call	 DWORD PTR __imp_??1?$CStringT@DV?$StrTraitMFC_DLL@DV?$ChTraitsCRT@D@ATL@@@@@ATL@@QAE@XZ
  00226	8d 4d ec	 lea	 ecx, DWORD PTR $T6[ebp]
  00229	c6 45 fc 0b	 mov	 BYTE PTR __$EHRec$[ebp+8], 11 ; 0000000bH
  0022d	ff 15 00 00 00
	00		 call	 DWORD PTR __imp_??1?$CStringT@DV?$StrTraitMFC_DLL@DV?$ChTraitsCRT@D@ATL@@@@@ATL@@QAE@XZ

; 297  : 	m_pTreeChart->ChangeBlockData(nBlock, szScaleData, nHorizonpos, 0, szDateScalePosition, szTimeScalePosition, nHorizonStyle, nLog, nOverTurn);

  00233	8b 4d d4	 mov	 ecx, DWORD PTR _this$1$[ebp]
  00236	8d 45 e8	 lea	 eax, DWORD PTR _szTimeScalePosition$[ebp]
  00239	56		 push	 esi
  0023a	57		 push	 edi
  0023b	53		 push	 ebx
  0023c	8b 49 0c	 mov	 ecx, DWORD PTR [ecx+12]
  0023f	50		 push	 eax
  00240	8d 45 e4	 lea	 eax, DWORD PTR _szDateScalePosition$[ebp]
  00243	50		 push	 eax
  00244	6a 00		 push	 0
  00246	ff 75 d8	 push	 DWORD PTR _nHorizonpos$1$[ebp]
  00249	8d 45 e0	 lea	 eax, DWORD PTR _szScaleData$[ebp]
  0024c	50		 push	 eax
  0024d	ff 75 08	 push	 DWORD PTR _nBlock$[ebp]
  00250	e8 00 00 00 00	 call	 ?ChangeBlockData@CMyTreeCtrl@@QAEXHABV?$CStringT@DV?$StrTraitMFC_DLL@DV?$ChTraitsCRT@D@ATL@@@@@ATL@@HH00HHH@Z ; CMyTreeCtrl::ChangeBlockData

; 298  : }

  00255	8d 4d e8	 lea	 ecx, DWORD PTR _szTimeScalePosition$[ebp]
  00258	ff 15 00 00 00
	00		 call	 DWORD PTR __imp_??1?$CStringT@DV?$StrTraitMFC_DLL@DV?$ChTraitsCRT@D@ATL@@@@@ATL@@QAE@XZ
  0025e	8d 4d e4	 lea	 ecx, DWORD PTR _szDateScalePosition$[ebp]
  00261	ff 15 00 00 00
	00		 call	 DWORD PTR __imp_??1?$CStringT@DV?$StrTraitMFC_DLL@DV?$ChTraitsCRT@D@ATL@@@@@ATL@@QAE@XZ
  00267	8d 4d e0	 lea	 ecx, DWORD PTR _szScaleData$[ebp]
  0026a	ff 15 00 00 00
	00		 call	 DWORD PTR __imp_??1?$CStringT@DV?$StrTraitMFC_DLL@DV?$ChTraitsCRT@D@ATL@@@@@ATL@@QAE@XZ
$LN21@SetBlockIt:
  00270	8d 4d 0c	 lea	 ecx, DWORD PTR _strData$[ebp]
  00273	ff 15 00 00 00
	00		 call	 DWORD PTR __imp_??1?$CStringT@DV?$StrTraitMFC_DLL@DV?$ChTraitsCRT@D@ATL@@@@@ATL@@QAE@XZ
  00279	8b 4d f4	 mov	 ecx, DWORD PTR __$EHRec$[ebp]
  0027c	64 89 0d 00 00
	00 00		 mov	 DWORD PTR fs:0, ecx
  00283	59		 pop	 ecx
  00284	5f		 pop	 edi
  00285	5e		 pop	 esi
  00286	5b		 pop	 ebx
  00287	8b e5		 mov	 esp, ebp
  00289	5d		 pop	 ebp
  0028a	c2 08 00	 ret	 8
_TEXT	ENDS
;	COMDAT text$x
text$x	SEGMENT
__unwindfunclet$?SetBlockItem_Temp@CDataOfChartListPage@@AAEXHV?$CStringT@DV?$StrTraitMFC_DLL@DV?$ChTraitsCRT@D@ATL@@@@@ATL@@@Z$0:
  00000	8d 4d 0c	 lea	 ecx, DWORD PTR _strData$[ebp]
  00003	ff 25 00 00 00
	00		 jmp	 DWORD PTR __imp_??1?$CStringT@DV?$StrTraitMFC_DLL@DV?$ChTraitsCRT@D@ATL@@@@@ATL@@QAE@XZ
__unwindfunclet$?SetBlockItem_Temp@CDataOfChartListPage@@AAEXHV?$CStringT@DV?$StrTraitMFC_DLL@DV?$ChTraitsCRT@D@ATL@@@@@ATL@@@Z$1:
  00009	8d 4d f0	 lea	 ecx, DWORD PTR $T14[ebp]
  0000c	ff 25 00 00 00
	00		 jmp	 DWORD PTR __imp_??1?$CStringT@DV?$StrTraitMFC_DLL@DV?$ChTraitsCRT@D@ATL@@@@@ATL@@QAE@XZ
__unwindfunclet$?SetBlockItem_Temp@CDataOfChartListPage@@AAEXHV?$CStringT@DV?$StrTraitMFC_DLL@DV?$ChTraitsCRT@D@ATL@@@@@ATL@@@Z$3:
  00012	8d 4d f0	 lea	 ecx, DWORD PTR $T13[ebp]
  00015	ff 25 00 00 00
	00		 jmp	 DWORD PTR __imp_??1?$CStringT@DV?$StrTraitMFC_DLL@DV?$ChTraitsCRT@D@ATL@@@@@ATL@@QAE@XZ
__unwindfunclet$?SetBlockItem_Temp@CDataOfChartListPage@@AAEXHV?$CStringT@DV?$StrTraitMFC_DLL@DV?$ChTraitsCRT@D@ATL@@@@@ATL@@@Z$4:
  0001b	8d 4d e0	 lea	 ecx, DWORD PTR _szScaleData$[ebp]
  0001e	ff 25 00 00 00
	00		 jmp	 DWORD PTR __imp_??1?$CStringT@DV?$StrTraitMFC_DLL@DV?$ChTraitsCRT@D@ATL@@@@@ATL@@QAE@XZ
__unwindfunclet$?SetBlockItem_Temp@CDataOfChartListPage@@AAEXHV?$CStringT@DV?$StrTraitMFC_DLL@DV?$ChTraitsCRT@D@ATL@@@@@ATL@@@Z$5:
  00024	8d 4d ec	 lea	 ecx, DWORD PTR $T10[ebp]
  00027	ff 25 00 00 00
	00		 jmp	 DWORD PTR __imp_??1?$CStringT@DV?$StrTraitMFC_DLL@DV?$ChTraitsCRT@D@ATL@@@@@ATL@@QAE@XZ
__unwindfunclet$?SetBlockItem_Temp@CDataOfChartListPage@@AAEXHV?$CStringT@DV?$StrTraitMFC_DLL@DV?$ChTraitsCRT@D@ATL@@@@@ATL@@@Z$7:
  0002d	8d 4d ec	 lea	 ecx, DWORD PTR $T9[ebp]
  00030	ff 25 00 00 00
	00		 jmp	 DWORD PTR __imp_??1?$CStringT@DV?$StrTraitMFC_DLL@DV?$ChTraitsCRT@D@ATL@@@@@ATL@@QAE@XZ
__unwindfunclet$?SetBlockItem_Temp@CDataOfChartListPage@@AAEXHV?$CStringT@DV?$StrTraitMFC_DLL@DV?$ChTraitsCRT@D@ATL@@@@@ATL@@@Z$8:
  00036	8d 4d e4	 lea	 ecx, DWORD PTR _szDateScalePosition$[ebp]
  00039	ff 25 00 00 00
	00		 jmp	 DWORD PTR __imp_??1?$CStringT@DV?$StrTraitMFC_DLL@DV?$ChTraitsCRT@D@ATL@@@@@ATL@@QAE@XZ
__unwindfunclet$?SetBlockItem_Temp@CDataOfChartListPage@@AAEXHV?$CStringT@DV?$StrTraitMFC_DLL@DV?$ChTraitsCRT@D@ATL@@@@@ATL@@@Z$9:
  0003f	8d 4d f0	 lea	 ecx, DWORD PTR $T12[ebp]
  00042	ff 25 00 00 00
	00		 jmp	 DWORD PTR __imp_??1?$CStringT@DV?$StrTraitMFC_DLL@DV?$ChTraitsCRT@D@ATL@@@@@ATL@@QAE@XZ
__unwindfunclet$?SetBlockItem_Temp@CDataOfChartListPage@@AAEXHV?$CStringT@DV?$StrTraitMFC_DLL@DV?$ChTraitsCRT@D@ATL@@@@@ATL@@@Z$10:
  00048	8d 4d e8	 lea	 ecx, DWORD PTR _szTimeScalePosition$[ebp]
  0004b	ff 25 00 00 00
	00		 jmp	 DWORD PTR __imp_??1?$CStringT@DV?$StrTraitMFC_DLL@DV?$ChTraitsCRT@D@ATL@@@@@ATL@@QAE@XZ
__unwindfunclet$?SetBlockItem_Temp@CDataOfChartListPage@@AAEXHV?$CStringT@DV?$StrTraitMFC_DLL@DV?$ChTraitsCRT@D@ATL@@@@@ATL@@@Z$11:
  00051	8d 4d ec	 lea	 ecx, DWORD PTR $T8[ebp]
  00054	ff 25 00 00 00
	00		 jmp	 DWORD PTR __imp_??1?$CStringT@DV?$StrTraitMFC_DLL@DV?$ChTraitsCRT@D@ATL@@@@@ATL@@QAE@XZ
__unwindfunclet$?SetBlockItem_Temp@CDataOfChartListPage@@AAEXHV?$CStringT@DV?$StrTraitMFC_DLL@DV?$ChTraitsCRT@D@ATL@@@@@ATL@@@Z$13:
  0005a	8d 4d ec	 lea	 ecx, DWORD PTR $T7[ebp]
  0005d	ff 25 00 00 00
	00		 jmp	 DWORD PTR __imp_??1?$CStringT@DV?$StrTraitMFC_DLL@DV?$ChTraitsCRT@D@ATL@@@@@ATL@@QAE@XZ
__unwindfunclet$?SetBlockItem_Temp@CDataOfChartListPage@@AAEXHV?$CStringT@DV?$StrTraitMFC_DLL@DV?$ChTraitsCRT@D@ATL@@@@@ATL@@@Z$15:
  00063	8d 4d ec	 lea	 ecx, DWORD PTR $T6[ebp]
  00066	ff 25 00 00 00
	00		 jmp	 DWORD PTR __imp_??1?$CStringT@DV?$StrTraitMFC_DLL@DV?$ChTraitsCRT@D@ATL@@@@@ATL@@QAE@XZ
  0006c	cc		 int	 3
  0006d	cc		 int	 3
  0006e	cc		 int	 3
  0006f	cc		 int	 3
  00070	cc		 int	 3
__ehhandler$?SetBlockItem_Temp@CDataOfChartListPage@@AAEXHV?$CStringT@DV?$StrTraitMFC_DLL@DV?$ChTraitsCRT@D@ATL@@@@@ATL@@@Z:
  00071	90		 npad	 1
  00072	90		 npad	 1
  00073	8b 54 24 08	 mov	 edx, DWORD PTR [esp+8]
  00077	8d 42 0c	 lea	 eax, DWORD PTR [edx+12]
  0007a	8b 4a d0	 mov	 ecx, DWORD PTR [edx-48]
  0007d	33 c8		 xor	 ecx, eax
  0007f	e8 00 00 00 00	 call	 @__security_check_cookie@4
  00084	b8 00 00 00 00	 mov	 eax, OFFSET __ehfuncinfo$?SetBlockItem_Temp@CDataOfChartListPage@@AAEXHV?$CStringT@DV?$StrTraitMFC_DLL@DV?$ChTraitsCRT@D@ATL@@@@@ATL@@@Z
  00089	e9 00 00 00 00	 jmp	 ___CxxFrameHandler3
text$x	ENDS
?SetBlockItem_Temp@CDataOfChartListPage@@AAEXHV?$CStringT@DV?$StrTraitMFC_DLL@DV?$ChTraitsCRT@D@ATL@@@@@ATL@@@Z ENDP ; CDataOfChartListPage::SetBlockItem_Temp
; Function compile flags: /Ogtp
; File D:\git\src\IBK\IBK_DRFN\ProjSrc\SrcChartEx\ChartAddIn\ChartDesignPropertyAddIn\ChartDesignPropertyAddIn\DataOfChartListPage.cpp
; File C:\Program Files (x86)\Microsoft Visual Studio\2019\Community\VC\Tools\MSVC\14.29.30133\atlmfc\include\atlsimpstr.h
; File D:\git\src\IBK\IBK_DRFN\ProjSrc\SrcChartEx\ChartAddIn\ChartDesignPropertyAddIn\ChartDesignPropertyAddIn\DataOfChartListPage.cpp
; File C:\Program Files (x86)\Microsoft Visual Studio\2019\Community\VC\Tools\MSVC\14.29.30133\atlmfc\include\atlsimpstr.h
; File D:\git\src\IBK\IBK_DRFN\ProjSrc\SrcChartEx\ChartAddIn\ChartDesignPropertyAddIn\ChartDesignPropertyAddIn\DataOfChartListPage.cpp
; File C:\Program Files (x86)\Microsoft Visual Studio\2019\Community\VC\Tools\MSVC\14.29.30133\atlmfc\include\atlsimpstr.h
; File D:\git\src\IBK\IBK_DRFN\ProjSrc\SrcChartEx\ChartAddIn\ChartDesignPropertyAddIn\ChartDesignPropertyAddIn\DataOfChartListPage.cpp
; File C:\Program Files (x86)\Microsoft Visual Studio\2019\Community\VC\Tools\MSVC\14.29.30133\atlmfc\include\atlsimpstr.h
; File D:\git\src\IBK\IBK_DRFN\ProjSrc\SrcChartEx\ChartAddIn\ChartDesignPropertyAddIn\ChartDesignPropertyAddIn\DataOfChartListPage.cpp
;	COMDAT ?SetBlockItem@CDataOfChartListPage@@AAEXHV?$CStringT@DV?$StrTraitMFC_DLL@DV?$ChTraitsCRT@D@ATL@@@@@ATL@@@Z
_TEXT	SEGMENT
_nScaleCompart$1$ = -52					; size = 4
_nHorizonStyle$1$ = -48					; size = 4
_nLog$1$ = -44						; size = 4
$T2 = -40						; size = 4
$T3 = -40						; size = 4
$T4 = -40						; size = 4
$T5 = -40						; size = 4
$T6 = -40						; size = 4
_szDateScalePosition$ = -36				; size = 4
_szTimeScalePosition$ = -32				; size = 4
$T7 = -28						; size = 4
$T8 = -28						; size = 4
$T9 = -28						; size = 4
$T10 = -28						; size = 4
$T11 = -28						; size = 4
$T12 = -28						; size = 4
$T13 = -24						; size = 4
$T14 = -24						; size = 4
_szScaleData$ = -20					; size = 4
_strScaleData$ = -16					; size = 4
__$EHRec$ = -12						; size = 12
_nBlock$ = 8						; size = 4
_strData$ = 12						; size = 4
?SetBlockItem@CDataOfChartListPage@@AAEXHV?$CStringT@DV?$StrTraitMFC_DLL@DV?$ChTraitsCRT@D@ATL@@@@@ATL@@@Z PROC ; CDataOfChartListPage::SetBlockItem, COMDAT
; _this$ = ecx

; 47   : {

  00000	55		 push	 ebp
  00001	8b ec		 mov	 ebp, esp
  00003	6a ff		 push	 -1
  00005	68 00 00 00 00	 push	 __ehhandler$?SetBlockItem@CDataOfChartListPage@@AAEXHV?$CStringT@DV?$StrTraitMFC_DLL@DV?$ChTraitsCRT@D@ATL@@@@@ATL@@@Z
  0000a	64 a1 00 00 00
	00		 mov	 eax, DWORD PTR fs:0
  00010	50		 push	 eax
  00011	83 ec 28	 sub	 esp, 40			; 00000028H
  00014	53		 push	 ebx
  00015	56		 push	 esi
  00016	57		 push	 edi
  00017	a1 00 00 00 00	 mov	 eax, DWORD PTR ___security_cookie
  0001c	33 c5		 xor	 eax, ebp
  0001e	50		 push	 eax
  0001f	8d 45 f4	 lea	 eax, DWORD PTR __$EHRec$[ebp]
  00022	64 a3 00 00 00
	00		 mov	 DWORD PTR fs:0, eax
  00028	8b f9		 mov	 edi, ecx
; File C:\Program Files (x86)\Microsoft Visual Studio\2019\Community\VC\Tools\MSVC\14.29.30133\atlmfc\include\atlsimpstr.h

; 519  : 		return( GetData()->nDataLength );

  0002a	8b 45 0c	 mov	 eax, DWORD PTR _strData$[ebp]
; File D:\git\src\IBK\IBK_DRFN\ProjSrc\SrcChartEx\ChartAddIn\ChartDesignPropertyAddIn\ChartDesignPropertyAddIn\DataOfChartListPage.cpp

; 47   : {

  0002d	c7 45 fc 00 00
	00 00		 mov	 DWORD PTR __$EHRec$[ebp+8], 0
; File C:\Program Files (x86)\Microsoft Visual Studio\2019\Community\VC\Tools\MSVC\14.29.30133\atlmfc\include\atlsimpstr.h

; 533  : 		return( GetLength() == 0 );

  00034	83 78 f4 00	 cmp	 DWORD PTR [eax-12], 0
; File D:\git\src\IBK\IBK_DRFN\ProjSrc\SrcChartEx\ChartAddIn\ChartDesignPropertyAddIn\ChartDesignPropertyAddIn\DataOfChartListPage.cpp

; 49   : 	if(strData.IsEmpty())

  00038	0f 84 8b 02 00
	00		 je	 $LN23@SetBlockIt

; 50   : 		return;
; 51   : 
; 52   : 	CString szScaleData = CDataConversion::GetStringData(strData, ";");

  0003e	68 00 00 00 00	 push	 OFFSET ??_C@_01ICJEACDI@?$DL@
  00043	8d 4d e8	 lea	 ecx, DWORD PTR $T14[ebp]
  00046	ff 15 00 00 00
	00		 call	 DWORD PTR __imp_??0?$CStringT@DV?$StrTraitMFC_DLL@DV?$ChTraitsCRT@D@ATL@@@@@ATL@@QAE@PBD@Z
  0004c	6a 01		 push	 1
  0004e	8d 45 e8	 lea	 eax, DWORD PTR $T14[ebp]
  00051	c6 45 fc 01	 mov	 BYTE PTR __$EHRec$[ebp+8], 1
  00055	50		 push	 eax
  00056	8d 45 0c	 lea	 eax, DWORD PTR _strData$[ebp]
  00059	50		 push	 eax
  0005a	8d 45 ec	 lea	 eax, DWORD PTR _szScaleData$[ebp]
  0005d	50		 push	 eax
  0005e	e8 00 00 00 00	 call	 ?GetStringData@CDataConversion@@SA?AV?$CStringT@DV?$StrTraitMFC_DLL@DV?$ChTraitsCRT@D@ATL@@@@@ATL@@AAV23@ABV23@_N@Z ; CDataConversion::GetStringData
  00063	83 c4 10	 add	 esp, 16			; 00000010H
  00066	8d 4d e8	 lea	 ecx, DWORD PTR $T14[ebp]
  00069	c6 45 fc 03	 mov	 BYTE PTR __$EHRec$[ebp+8], 3
  0006d	ff 15 00 00 00
	00		 call	 DWORD PTR __imp_??1?$CStringT@DV?$StrTraitMFC_DLL@DV?$ChTraitsCRT@D@ATL@@@@@ATL@@QAE@XZ

; 53   : 	int nHorizonpos = atoi(CDataConversion::GetStringData(strData, ";"));

  00073	68 00 00 00 00	 push	 OFFSET ??_C@_01ICJEACDI@?$DL@
  00078	8d 4d e4	 lea	 ecx, DWORD PTR $T12[ebp]
  0007b	ff 15 00 00 00
	00		 call	 DWORD PTR __imp_??0?$CStringT@DV?$StrTraitMFC_DLL@DV?$ChTraitsCRT@D@ATL@@@@@ATL@@QAE@PBD@Z
  00081	6a 01		 push	 1
  00083	8d 45 e4	 lea	 eax, DWORD PTR $T12[ebp]
  00086	c6 45 fc 04	 mov	 BYTE PTR __$EHRec$[ebp+8], 4
  0008a	50		 push	 eax
  0008b	8d 45 0c	 lea	 eax, DWORD PTR _strData$[ebp]
  0008e	50		 push	 eax
  0008f	8d 45 d8	 lea	 eax, DWORD PTR $T6[ebp]
  00092	50		 push	 eax
  00093	e8 00 00 00 00	 call	 ?GetStringData@CDataConversion@@SA?AV?$CStringT@DV?$StrTraitMFC_DLL@DV?$ChTraitsCRT@D@ATL@@@@@ATL@@AAV23@ABV23@_N@Z ; CDataConversion::GetStringData
  00098	8b 35 00 00 00
	00		 mov	 esi, DWORD PTR __imp__atoi
  0009e	ff 30		 push	 DWORD PTR [eax]
  000a0	ff d6		 call	 esi
  000a2	83 c4 14	 add	 esp, 20			; 00000014H
  000a5	8d 4d d8	 lea	 ecx, DWORD PTR $T6[ebp]
  000a8	8b d8		 mov	 ebx, eax
  000aa	ff 15 00 00 00
	00		 call	 DWORD PTR __imp_??1?$CStringT@DV?$StrTraitMFC_DLL@DV?$ChTraitsCRT@D@ATL@@@@@ATL@@QAE@XZ
  000b0	8d 4d e4	 lea	 ecx, DWORD PTR $T12[ebp]
  000b3	c6 45 fc 03	 mov	 BYTE PTR __$EHRec$[ebp+8], 3
  000b7	ff 15 00 00 00
	00		 call	 DWORD PTR __imp_??1?$CStringT@DV?$StrTraitMFC_DLL@DV?$ChTraitsCRT@D@ATL@@@@@ATL@@QAE@XZ

; 54   : 	int nScaleCompart = atoi(CDataConversion::GetStringData(strData, ";"));

  000bd	68 00 00 00 00	 push	 OFFSET ??_C@_01ICJEACDI@?$DL@
  000c2	8d 4d e4	 lea	 ecx, DWORD PTR $T11[ebp]
  000c5	ff 15 00 00 00
	00		 call	 DWORD PTR __imp_??0?$CStringT@DV?$StrTraitMFC_DLL@DV?$ChTraitsCRT@D@ATL@@@@@ATL@@QAE@PBD@Z
  000cb	6a 01		 push	 1
  000cd	8d 45 e4	 lea	 eax, DWORD PTR $T11[ebp]
  000d0	c6 45 fc 05	 mov	 BYTE PTR __$EHRec$[ebp+8], 5
  000d4	50		 push	 eax
  000d5	8d 45 0c	 lea	 eax, DWORD PTR _strData$[ebp]
  000d8	50		 push	 eax
  000d9	8d 45 d8	 lea	 eax, DWORD PTR $T5[ebp]
  000dc	50		 push	 eax
  000dd	e8 00 00 00 00	 call	 ?GetStringData@CDataConversion@@SA?AV?$CStringT@DV?$StrTraitMFC_DLL@DV?$ChTraitsCRT@D@ATL@@@@@ATL@@AAV23@ABV23@_N@Z ; CDataConversion::GetStringData
  000e2	ff 30		 push	 DWORD PTR [eax]
  000e4	ff d6		 call	 esi
  000e6	83 c4 14	 add	 esp, 20			; 00000014H
  000e9	89 45 cc	 mov	 DWORD PTR _nScaleCompart$1$[ebp], eax
  000ec	8d 4d d8	 lea	 ecx, DWORD PTR $T5[ebp]
  000ef	ff 15 00 00 00
	00		 call	 DWORD PTR __imp_??1?$CStringT@DV?$StrTraitMFC_DLL@DV?$ChTraitsCRT@D@ATL@@@@@ATL@@QAE@XZ
  000f5	8d 4d e4	 lea	 ecx, DWORD PTR $T11[ebp]
  000f8	c6 45 fc 03	 mov	 BYTE PTR __$EHRec$[ebp+8], 3
  000fc	ff 15 00 00 00
	00		 call	 DWORD PTR __imp_??1?$CStringT@DV?$StrTraitMFC_DLL@DV?$ChTraitsCRT@D@ATL@@@@@ATL@@QAE@XZ

; 55   : 	CString szDateScalePosition = CDataConversion::GetStringData(strData, ";");

  00102	68 00 00 00 00	 push	 OFFSET ??_C@_01ICJEACDI@?$DL@
  00107	8d 4d e4	 lea	 ecx, DWORD PTR $T10[ebp]
  0010a	ff 15 00 00 00
	00		 call	 DWORD PTR __imp_??0?$CStringT@DV?$StrTraitMFC_DLL@DV?$ChTraitsCRT@D@ATL@@@@@ATL@@QAE@PBD@Z
  00110	6a 01		 push	 1
  00112	8d 45 e4	 lea	 eax, DWORD PTR $T10[ebp]
  00115	c6 45 fc 06	 mov	 BYTE PTR __$EHRec$[ebp+8], 6
  00119	50		 push	 eax
  0011a	8d 45 0c	 lea	 eax, DWORD PTR _strData$[ebp]
  0011d	50		 push	 eax
  0011e	8d 45 dc	 lea	 eax, DWORD PTR _szDateScalePosition$[ebp]
  00121	50		 push	 eax
  00122	e8 00 00 00 00	 call	 ?GetStringData@CDataConversion@@SA?AV?$CStringT@DV?$StrTraitMFC_DLL@DV?$ChTraitsCRT@D@ATL@@@@@ATL@@AAV23@ABV23@_N@Z ; CDataConversion::GetStringData
  00127	83 c4 10	 add	 esp, 16			; 00000010H
  0012a	c6 45 fc 08	 mov	 BYTE PTR __$EHRec$[ebp+8], 8
  0012e	8d 4d e4	 lea	 ecx, DWORD PTR $T10[ebp]
  00131	ff 15 00 00 00
	00		 call	 DWORD PTR __imp_??1?$CStringT@DV?$StrTraitMFC_DLL@DV?$ChTraitsCRT@D@ATL@@@@@ATL@@QAE@XZ

; 56   : 	CString szTimeScalePosition = CDataConversion::GetStringData(strData, ";");

  00137	68 00 00 00 00	 push	 OFFSET ??_C@_01ICJEACDI@?$DL@
  0013c	8d 4d e8	 lea	 ecx, DWORD PTR $T13[ebp]
  0013f	ff 15 00 00 00
	00		 call	 DWORD PTR __imp_??0?$CStringT@DV?$StrTraitMFC_DLL@DV?$ChTraitsCRT@D@ATL@@@@@ATL@@QAE@PBD@Z
  00145	6a 01		 push	 1
  00147	8d 45 e8	 lea	 eax, DWORD PTR $T13[ebp]
  0014a	c6 45 fc 09	 mov	 BYTE PTR __$EHRec$[ebp+8], 9
  0014e	50		 push	 eax
  0014f	8d 45 0c	 lea	 eax, DWORD PTR _strData$[ebp]
  00152	50		 push	 eax
  00153	8d 45 e0	 lea	 eax, DWORD PTR _szTimeScalePosition$[ebp]
  00156	50		 push	 eax
  00157	e8 00 00 00 00	 call	 ?GetStringData@CDataConversion@@SA?AV?$CStringT@DV?$StrTraitMFC_DLL@DV?$ChTraitsCRT@D@ATL@@@@@ATL@@AAV23@ABV23@_N@Z ; CDataConversion::GetStringData
  0015c	83 c4 10	 add	 esp, 16			; 00000010H
  0015f	8d 4d e8	 lea	 ecx, DWORD PTR $T13[ebp]
  00162	c6 45 fc 0b	 mov	 BYTE PTR __$EHRec$[ebp+8], 11 ; 0000000bH
  00166	ff 15 00 00 00
	00		 call	 DWORD PTR __imp_??1?$CStringT@DV?$StrTraitMFC_DLL@DV?$ChTraitsCRT@D@ATL@@@@@ATL@@QAE@XZ

; 57   : 	int nHorizonStyle = atoi(CDataConversion::GetStringData(strData, ";"));

  0016c	68 00 00 00 00	 push	 OFFSET ??_C@_01ICJEACDI@?$DL@
  00171	8d 4d e4	 lea	 ecx, DWORD PTR $T9[ebp]
  00174	ff 15 00 00 00
	00		 call	 DWORD PTR __imp_??0?$CStringT@DV?$StrTraitMFC_DLL@DV?$ChTraitsCRT@D@ATL@@@@@ATL@@QAE@PBD@Z
  0017a	6a 01		 push	 1
  0017c	8d 45 e4	 lea	 eax, DWORD PTR $T9[ebp]
  0017f	c6 45 fc 0c	 mov	 BYTE PTR __$EHRec$[ebp+8], 12 ; 0000000cH
  00183	50		 push	 eax
  00184	8d 45 0c	 lea	 eax, DWORD PTR _strData$[ebp]
  00187	50		 push	 eax
  00188	8d 45 d8	 lea	 eax, DWORD PTR $T4[ebp]
  0018b	50		 push	 eax
  0018c	e8 00 00 00 00	 call	 ?GetStringData@CDataConversion@@SA?AV?$CStringT@DV?$StrTraitMFC_DLL@DV?$ChTraitsCRT@D@ATL@@@@@ATL@@AAV23@ABV23@_N@Z ; CDataConversion::GetStringData
  00191	ff 30		 push	 DWORD PTR [eax]
  00193	ff d6		 call	 esi
  00195	83 c4 14	 add	 esp, 20			; 00000014H
  00198	89 45 d0	 mov	 DWORD PTR _nHorizonStyle$1$[ebp], eax
  0019b	8d 4d d8	 lea	 ecx, DWORD PTR $T4[ebp]
  0019e	ff 15 00 00 00
	00		 call	 DWORD PTR __imp_??1?$CStringT@DV?$StrTraitMFC_DLL@DV?$ChTraitsCRT@D@ATL@@@@@ATL@@QAE@XZ
  001a4	8d 4d e4	 lea	 ecx, DWORD PTR $T9[ebp]
  001a7	c6 45 fc 0b	 mov	 BYTE PTR __$EHRec$[ebp+8], 11 ; 0000000bH
  001ab	ff 15 00 00 00
	00		 call	 DWORD PTR __imp_??1?$CStringT@DV?$StrTraitMFC_DLL@DV?$ChTraitsCRT@D@ATL@@@@@ATL@@QAE@XZ

; 58   : 	int nLog = atoi(CDataConversion::GetStringData(strData, ";"));

  001b1	68 00 00 00 00	 push	 OFFSET ??_C@_01ICJEACDI@?$DL@
  001b6	8d 4d e4	 lea	 ecx, DWORD PTR $T8[ebp]
  001b9	ff 15 00 00 00
	00		 call	 DWORD PTR __imp_??0?$CStringT@DV?$StrTraitMFC_DLL@DV?$ChTraitsCRT@D@ATL@@@@@ATL@@QAE@PBD@Z
  001bf	6a 01		 push	 1
  001c1	8d 45 e4	 lea	 eax, DWORD PTR $T8[ebp]
  001c4	c6 45 fc 0d	 mov	 BYTE PTR __$EHRec$[ebp+8], 13 ; 0000000dH
  001c8	50		 push	 eax
  001c9	8d 45 0c	 lea	 eax, DWORD PTR _strData$[ebp]
  001cc	50		 push	 eax
  001cd	8d 45 d8	 lea	 eax, DWORD PTR $T3[ebp]
  001d0	50		 push	 eax
  001d1	e8 00 00 00 00	 call	 ?GetStringData@CDataConversion@@SA?AV?$CStringT@DV?$StrTraitMFC_DLL@DV?$ChTraitsCRT@D@ATL@@@@@ATL@@AAV23@ABV23@_N@Z ; CDataConversion::GetStringData
  001d6	ff 30		 push	 DWORD PTR [eax]
  001d8	ff d6		 call	 esi
  001da	83 c4 14	 add	 esp, 20			; 00000014H
  001dd	89 45 d4	 mov	 DWORD PTR _nLog$1$[ebp], eax
  001e0	8d 4d d8	 lea	 ecx, DWORD PTR $T3[ebp]
  001e3	ff 15 00 00 00
	00		 call	 DWORD PTR __imp_??1?$CStringT@DV?$StrTraitMFC_DLL@DV?$ChTraitsCRT@D@ATL@@@@@ATL@@QAE@XZ
  001e9	8d 4d e4	 lea	 ecx, DWORD PTR $T8[ebp]
  001ec	c6 45 fc 0b	 mov	 BYTE PTR __$EHRec$[ebp+8], 11 ; 0000000bH
  001f0	ff 15 00 00 00
	00		 call	 DWORD PTR __imp_??1?$CStringT@DV?$StrTraitMFC_DLL@DV?$ChTraitsCRT@D@ATL@@@@@ATL@@QAE@XZ

; 59   : 	int nOverTurn = atoi(CDataConversion::GetStringData(strData, ";"));

  001f6	68 00 00 00 00	 push	 OFFSET ??_C@_01ICJEACDI@?$DL@
  001fb	8d 4d e4	 lea	 ecx, DWORD PTR $T7[ebp]
  001fe	ff 15 00 00 00
	00		 call	 DWORD PTR __imp_??0?$CStringT@DV?$StrTraitMFC_DLL@DV?$ChTraitsCRT@D@ATL@@@@@ATL@@QAE@PBD@Z
  00204	6a 01		 push	 1
  00206	8d 45 e4	 lea	 eax, DWORD PTR $T7[ebp]
  00209	c6 45 fc 0e	 mov	 BYTE PTR __$EHRec$[ebp+8], 14 ; 0000000eH
  0020d	50		 push	 eax
  0020e	8d 45 0c	 lea	 eax, DWORD PTR _strData$[ebp]
  00211	50		 push	 eax
  00212	8d 45 d8	 lea	 eax, DWORD PTR $T2[ebp]
  00215	50		 push	 eax
  00216	e8 00 00 00 00	 call	 ?GetStringData@CDataConversion@@SA?AV?$CStringT@DV?$StrTraitMFC_DLL@DV?$ChTraitsCRT@D@ATL@@@@@ATL@@AAV23@ABV23@_N@Z ; CDataConversion::GetStringData
  0021b	ff 30		 push	 DWORD PTR [eax]
  0021d	ff d6		 call	 esi
  0021f	83 c4 14	 add	 esp, 20			; 00000014H
  00222	8d 4d d8	 lea	 ecx, DWORD PTR $T2[ebp]
  00225	8b f0		 mov	 esi, eax
  00227	ff 15 00 00 00
	00		 call	 DWORD PTR __imp_??1?$CStringT@DV?$StrTraitMFC_DLL@DV?$ChTraitsCRT@D@ATL@@@@@ATL@@QAE@XZ
  0022d	8d 4d e4	 lea	 ecx, DWORD PTR $T7[ebp]
  00230	c6 45 fc 0b	 mov	 BYTE PTR __$EHRec$[ebp+8], 11 ; 0000000bH
  00234	ff 15 00 00 00
	00		 call	 DWORD PTR __imp_??1?$CStringT@DV?$StrTraitMFC_DLL@DV?$ChTraitsCRT@D@ATL@@@@@ATL@@QAE@XZ

; 63   : 	CString strScaleData = _MTOL6_N( szScaleData);

  0023a	6a 01		 push	 1
  0023c	ff 75 ec	 push	 DWORD PTR _szScaleData$[ebp]
  0023f	b9 00 00 00 00	 mov	 ecx, OFFSET ?g_iMetaTable@@3VIMetaTable@@A ; g_iMetaTable
  00244	6a 06		 push	 6
  00246	ff 77 10	 push	 DWORD PTR [edi+16]
  00249	e8 00 00 00 00	 call	 ?GetLanguageText@IMetaTable@@QAEPBDPAUHWND__@@W4E_CODEPAGE@1@PBDH@Z ; IMetaTable::GetLanguageText
  0024e	50		 push	 eax
  0024f	8d 4d f0	 lea	 ecx, DWORD PTR _strScaleData$[ebp]
  00252	ff 15 00 00 00
	00		 call	 DWORD PTR __imp_??0?$CStringT@DV?$StrTraitMFC_DLL@DV?$ChTraitsCRT@D@ATL@@@@@ATL@@QAE@PBD@Z
; File C:\Program Files (x86)\Microsoft Visual Studio\2019\Community\VC\Tools\MSVC\14.29.30133\atlmfc\include\atlsimpstr.h

; 533  : 		return( GetLength() == 0 );

  00258	8b 45 f0	 mov	 eax, DWORD PTR _strScaleData$[ebp]
; File D:\git\src\IBK\IBK_DRFN\ProjSrc\SrcChartEx\ChartAddIn\ChartDesignPropertyAddIn\ChartDesignPropertyAddIn\DataOfChartListPage.cpp

; 63   : 	CString strScaleData = _MTOL6_N( szScaleData);

  0025b	c6 45 fc 0f	 mov	 BYTE PTR __$EHRec$[ebp+8], 15 ; 0000000fH
; File C:\Program Files (x86)\Microsoft Visual Studio\2019\Community\VC\Tools\MSVC\14.29.30133\atlmfc\include\atlsimpstr.h

; 533  : 		return( GetLength() == 0 );

  0025f	83 78 f4 00	 cmp	 DWORD PTR [eax-12], 0
; File D:\git\src\IBK\IBK_DRFN\ProjSrc\SrcChartEx\ChartAddIn\ChartDesignPropertyAddIn\ChartDesignPropertyAddIn\DataOfChartListPage.cpp

; 64   : 	if( strScaleData.IsEmpty()) strScaleData = _MTOL0( szScaleData);

  00263	75 1e		 jne	 SHORT $LN3@SetBlockIt
  00265	6a 00		 push	 0
  00267	ff 75 ec	 push	 DWORD PTR _szScaleData$[ebp]
  0026a	b9 00 00 00 00	 mov	 ecx, OFFSET ?g_iMetaTable@@3VIMetaTable@@A ; g_iMetaTable
  0026f	6a 00		 push	 0
  00271	ff 77 10	 push	 DWORD PTR [edi+16]
  00274	e8 00 00 00 00	 call	 ?GetLanguageText@IMetaTable@@QAEPBDPAUHWND__@@W4E_CODEPAGE@1@PBDH@Z ; IMetaTable::GetLanguageText
  00279	50		 push	 eax
  0027a	8d 4d f0	 lea	 ecx, DWORD PTR _strScaleData$[ebp]
  0027d	ff 15 00 00 00
	00		 call	 DWORD PTR __imp_??4?$CStringT@DV?$StrTraitMFC_DLL@DV?$ChTraitsCRT@D@ATL@@@@@ATL@@QAEAAV01@PBD@Z
$LN3@SetBlockIt:

; 65   : 	m_pTreeChart->ChangeBlockData(nBlock, strScaleData, nHorizonpos, nScaleCompart, szDateScalePosition, szTimeScalePosition, nHorizonStyle, nLog, nOverTurn);

  00283	8b 4f 0c	 mov	 ecx, DWORD PTR [edi+12]
  00286	8d 45 e0	 lea	 eax, DWORD PTR _szTimeScalePosition$[ebp]
  00289	56		 push	 esi
  0028a	ff 75 d4	 push	 DWORD PTR _nLog$1$[ebp]
  0028d	ff 75 d0	 push	 DWORD PTR _nHorizonStyle$1$[ebp]
  00290	50		 push	 eax
  00291	8d 45 dc	 lea	 eax, DWORD PTR _szDateScalePosition$[ebp]
  00294	50		 push	 eax
  00295	ff 75 cc	 push	 DWORD PTR _nScaleCompart$1$[ebp]
  00298	8d 45 f0	 lea	 eax, DWORD PTR _strScaleData$[ebp]
  0029b	53		 push	 ebx
  0029c	50		 push	 eax
  0029d	ff 75 08	 push	 DWORD PTR _nBlock$[ebp]
  002a0	e8 00 00 00 00	 call	 ?ChangeBlockData@CMyTreeCtrl@@QAEXHABV?$CStringT@DV?$StrTraitMFC_DLL@DV?$ChTraitsCRT@D@ATL@@@@@ATL@@HH00HHH@Z ; CMyTreeCtrl::ChangeBlockData

; 66   : }

  002a5	8d 4d f0	 lea	 ecx, DWORD PTR _strScaleData$[ebp]
  002a8	ff 15 00 00 00
	00		 call	 DWORD PTR __imp_??1?$CStringT@DV?$StrTraitMFC_DLL@DV?$ChTraitsCRT@D@ATL@@@@@ATL@@QAE@XZ
  002ae	8d 4d e0	 lea	 ecx, DWORD PTR _szTimeScalePosition$[ebp]
  002b1	ff 15 00 00 00
	00		 call	 DWORD PTR __imp_??1?$CStringT@DV?$StrTraitMFC_DLL@DV?$ChTraitsCRT@D@ATL@@@@@ATL@@QAE@XZ
  002b7	8d 4d dc	 lea	 ecx, DWORD PTR _szDateScalePosition$[ebp]
  002ba	ff 15 00 00 00
	00		 call	 DWORD PTR __imp_??1?$CStringT@DV?$StrTraitMFC_DLL@DV?$ChTraitsCRT@D@ATL@@@@@ATL@@QAE@XZ
  002c0	8d 4d ec	 lea	 ecx, DWORD PTR _szScaleData$[ebp]
  002c3	ff 15 00 00 00
	00		 call	 DWORD PTR __imp_??1?$CStringT@DV?$StrTraitMFC_DLL@DV?$ChTraitsCRT@D@ATL@@@@@ATL@@QAE@XZ
$LN23@SetBlockIt:
  002c9	8d 4d 0c	 lea	 ecx, DWORD PTR _strData$[ebp]
  002cc	ff 15 00 00 00
	00		 call	 DWORD PTR __imp_??1?$CStringT@DV?$StrTraitMFC_DLL@DV?$ChTraitsCRT@D@ATL@@@@@ATL@@QAE@XZ
  002d2	8b 4d f4	 mov	 ecx, DWORD PTR __$EHRec$[ebp]
  002d5	64 89 0d 00 00
	00 00		 mov	 DWORD PTR fs:0, ecx
  002dc	59		 pop	 ecx
  002dd	5f		 pop	 edi
  002de	5e		 pop	 esi
  002df	5b		 pop	 ebx
  002e0	8b e5		 mov	 esp, ebp
  002e2	5d		 pop	 ebp
  002e3	c2 08 00	 ret	 8
_TEXT	ENDS
;	COMDAT text$x
text$x	SEGMENT
__unwindfunclet$?SetBlockItem@CDataOfChartListPage@@AAEXHV?$CStringT@DV?$StrTraitMFC_DLL@DV?$ChTraitsCRT@D@ATL@@@@@ATL@@@Z$0:
  00000	8d 4d 0c	 lea	 ecx, DWORD PTR _strData$[ebp]
  00003	ff 25 00 00 00
	00		 jmp	 DWORD PTR __imp_??1?$CStringT@DV?$StrTraitMFC_DLL@DV?$ChTraitsCRT@D@ATL@@@@@ATL@@QAE@XZ
__unwindfunclet$?SetBlockItem@CDataOfChartListPage@@AAEXHV?$CStringT@DV?$StrTraitMFC_DLL@DV?$ChTraitsCRT@D@ATL@@@@@ATL@@@Z$1:
  00009	8d 4d e8	 lea	 ecx, DWORD PTR $T14[ebp]
  0000c	ff 25 00 00 00
	00		 jmp	 DWORD PTR __imp_??1?$CStringT@DV?$StrTraitMFC_DLL@DV?$ChTraitsCRT@D@ATL@@@@@ATL@@QAE@XZ
__unwindfunclet$?SetBlockItem@CDataOfChartListPage@@AAEXHV?$CStringT@DV?$StrTraitMFC_DLL@DV?$ChTraitsCRT@D@ATL@@@@@ATL@@@Z$2:
  00012	8d 4d ec	 lea	 ecx, DWORD PTR _szScaleData$[ebp]
  00015	ff 25 00 00 00
	00		 jmp	 DWORD PTR __imp_??1?$CStringT@DV?$StrTraitMFC_DLL@DV?$ChTraitsCRT@D@ATL@@@@@ATL@@QAE@XZ
__unwindfunclet$?SetBlockItem@CDataOfChartListPage@@AAEXHV?$CStringT@DV?$StrTraitMFC_DLL@DV?$ChTraitsCRT@D@ATL@@@@@ATL@@@Z$3:
  0001b	8d 4d e4	 lea	 ecx, DWORD PTR $T12[ebp]
  0001e	ff 25 00 00 00
	00		 jmp	 DWORD PTR __imp_??1?$CStringT@DV?$StrTraitMFC_DLL@DV?$ChTraitsCRT@D@ATL@@@@@ATL@@QAE@XZ
__unwindfunclet$?SetBlockItem@CDataOfChartListPage@@AAEXHV?$CStringT@DV?$StrTraitMFC_DLL@DV?$ChTraitsCRT@D@ATL@@@@@ATL@@@Z$5:
  00024	8d 4d e4	 lea	 ecx, DWORD PTR $T11[ebp]
  00027	ff 25 00 00 00
	00		 jmp	 DWORD PTR __imp_??1?$CStringT@DV?$StrTraitMFC_DLL@DV?$ChTraitsCRT@D@ATL@@@@@ATL@@QAE@XZ
__unwindfunclet$?SetBlockItem@CDataOfChartListPage@@AAEXHV?$CStringT@DV?$StrTraitMFC_DLL@DV?$ChTraitsCRT@D@ATL@@@@@ATL@@@Z$7:
  0002d	8d 4d e4	 lea	 ecx, DWORD PTR $T10[ebp]
  00030	ff 25 00 00 00
	00		 jmp	 DWORD PTR __imp_??1?$CStringT@DV?$StrTraitMFC_DLL@DV?$ChTraitsCRT@D@ATL@@@@@ATL@@QAE@XZ
__unwindfunclet$?SetBlockItem@CDataOfChartListPage@@AAEXHV?$CStringT@DV?$StrTraitMFC_DLL@DV?$ChTraitsCRT@D@ATL@@@@@ATL@@@Z$8:
  00036	8d 4d dc	 lea	 ecx, DWORD PTR _szDateScalePosition$[ebp]
  00039	ff 25 00 00 00
	00		 jmp	 DWORD PTR __imp_??1?$CStringT@DV?$StrTraitMFC_DLL@DV?$ChTraitsCRT@D@ATL@@@@@ATL@@QAE@XZ
__unwindfunclet$?SetBlockItem@CDataOfChartListPage@@AAEXHV?$CStringT@DV?$StrTraitMFC_DLL@DV?$ChTraitsCRT@D@ATL@@@@@ATL@@@Z$9:
  0003f	8d 4d e8	 lea	 ecx, DWORD PTR $T13[ebp]
  00042	ff 25 00 00 00
	00		 jmp	 DWORD PTR __imp_??1?$CStringT@DV?$StrTraitMFC_DLL@DV?$ChTraitsCRT@D@ATL@@@@@ATL@@QAE@XZ
__unwindfunclet$?SetBlockItem@CDataOfChartListPage@@AAEXHV?$CStringT@DV?$StrTraitMFC_DLL@DV?$ChTraitsCRT@D@ATL@@@@@ATL@@@Z$10:
  00048	8d 4d e0	 lea	 ecx, DWORD PTR _szTimeScalePosition$[ebp]
  0004b	ff 25 00 00 00
	00		 jmp	 DWORD PTR __imp_??1?$CStringT@DV?$StrTraitMFC_DLL@DV?$ChTraitsCRT@D@ATL@@@@@ATL@@QAE@XZ
__unwindfunclet$?SetBlockItem@CDataOfChartListPage@@AAEXHV?$CStringT@DV?$StrTraitMFC_DLL@DV?$ChTraitsCRT@D@ATL@@@@@ATL@@@Z$11:
  00051	8d 4d e4	 lea	 ecx, DWORD PTR $T9[ebp]
  00054	ff 25 00 00 00
	00		 jmp	 DWORD PTR __imp_??1?$CStringT@DV?$StrTraitMFC_DLL@DV?$ChTraitsCRT@D@ATL@@@@@ATL@@QAE@XZ
__unwindfunclet$?SetBlockItem@CDataOfChartListPage@@AAEXHV?$CStringT@DV?$StrTraitMFC_DLL@DV?$ChTraitsCRT@D@ATL@@@@@ATL@@@Z$13:
  0005a	8d 4d e4	 lea	 ecx, DWORD PTR $T8[ebp]
  0005d	ff 25 00 00 00
	00		 jmp	 DWORD PTR __imp_??1?$CStringT@DV?$StrTraitMFC_DLL@DV?$ChTraitsCRT@D@ATL@@@@@ATL@@QAE@XZ
__unwindfunclet$?SetBlockItem@CDataOfChartListPage@@AAEXHV?$CStringT@DV?$StrTraitMFC_DLL@DV?$ChTraitsCRT@D@ATL@@@@@ATL@@@Z$15:
  00063	8d 4d e4	 lea	 ecx, DWORD PTR $T7[ebp]
  00066	ff 25 00 00 00
	00		 jmp	 DWORD PTR __imp_??1?$CStringT@DV?$StrTraitMFC_DLL@DV?$ChTraitsCRT@D@ATL@@@@@ATL@@QAE@XZ
__unwindfunclet$?SetBlockItem@CDataOfChartListPage@@AAEXHV?$CStringT@DV?$StrTraitMFC_DLL@DV?$ChTraitsCRT@D@ATL@@@@@ATL@@@Z$17:
  0006c	8d 4d f0	 lea	 ecx, DWORD PTR _strScaleData$[ebp]
  0006f	ff 25 00 00 00
	00		 jmp	 DWORD PTR __imp_??1?$CStringT@DV?$StrTraitMFC_DLL@DV?$ChTraitsCRT@D@ATL@@@@@ATL@@QAE@XZ
  00075	cc		 int	 3
  00076	cc		 int	 3
  00077	cc		 int	 3
  00078	cc		 int	 3
  00079	cc		 int	 3
__ehhandler$?SetBlockItem@CDataOfChartListPage@@AAEXHV?$CStringT@DV?$StrTraitMFC_DLL@DV?$ChTraitsCRT@D@ATL@@@@@ATL@@@Z:
  0007a	90		 npad	 1
  0007b	90		 npad	 1
  0007c	8b 54 24 08	 mov	 edx, DWORD PTR [esp+8]
  00080	8d 42 0c	 lea	 eax, DWORD PTR [edx+12]
  00083	8b 4a c8	 mov	 ecx, DWORD PTR [edx-56]
  00086	33 c8		 xor	 ecx, eax
  00088	e8 00 00 00 00	 call	 @__security_check_cookie@4
  0008d	b8 00 00 00 00	 mov	 eax, OFFSET __ehfuncinfo$?SetBlockItem@CDataOfChartListPage@@AAEXHV?$CStringT@DV?$StrTraitMFC_DLL@DV?$ChTraitsCRT@D@ATL@@@@@ATL@@@Z
  00092	e9 00 00 00 00	 jmp	 ___CxxFrameHandler3
text$x	ENDS
?SetBlockItem@CDataOfChartListPage@@AAEXHV?$CStringT@DV?$StrTraitMFC_DLL@DV?$ChTraitsCRT@D@ATL@@@@@ATL@@@Z ENDP ; CDataOfChartListPage::SetBlockItem
; Function compile flags: /Ogtp
; File D:\git\src\IBK\IBK_DRFN\ProjSrc\SrcChartEx\ChartAddIn\ChartDesignPropertyAddIn\ChartDesignPropertyAddIn\DataOfChartListPage.cpp
;	COMDAT ?SetVerticalScaleItem_Temp@CDataOfChartListPage@@AAEPAVCChartLink@@HV?$CStringT@DV?$StrTraitMFC_DLL@DV?$ChTraitsCRT@D@ATL@@@@@ATL@@@Z
_TEXT	SEGMENT
$T2 = -28						; size = 4
$T3 = -28						; size = 4
$T4 = -28						; size = 4
$T5 = -28						; size = 4
$T6 = -28						; size = 4
_strScaleData$ = -24					; size = 4
$T7 = -20						; size = 4
$T8 = -20						; size = 4
$T9 = -20						; size = 4
$T10 = -20						; size = 4
$T11 = -20						; size = 4
$T12 = -20						; size = 4
_data$ = -16						; size = 4
__$EHRec$ = -12						; size = 12
_nVerticalScale$ = 8					; size = 4
_strData$ = 12						; size = 4
?SetVerticalScaleItem_Temp@CDataOfChartListPage@@AAEPAVCChartLink@@HV?$CStringT@DV?$StrTraitMFC_DLL@DV?$ChTraitsCRT@D@ATL@@@@@ATL@@@Z PROC ; CDataOfChartListPage::SetVerticalScaleItem_Temp, COMDAT
; _this$ = ecx

; 269  : {

  00000	55		 push	 ebp
  00001	8b ec		 mov	 ebp, esp
  00003	6a ff		 push	 -1
  00005	68 00 00 00 00	 push	 __ehhandler$?SetVerticalScaleItem_Temp@CDataOfChartListPage@@AAEPAVCChartLink@@HV?$CStringT@DV?$StrTraitMFC_DLL@DV?$ChTraitsCRT@D@ATL@@@@@ATL@@@Z
  0000a	64 a1 00 00 00
	00		 mov	 eax, DWORD PTR fs:0
  00010	50		 push	 eax
  00011	83 ec 10	 sub	 esp, 16			; 00000010H
  00014	56		 push	 esi
  00015	a1 00 00 00 00	 mov	 eax, DWORD PTR ___security_cookie
  0001a	33 c5		 xor	 eax, ebp
  0001c	50		 push	 eax
  0001d	8d 45 f4	 lea	 eax, DWORD PTR __$EHRec$[ebp]
  00020	64 a3 00 00 00
	00		 mov	 DWORD PTR fs:0, eax
  00026	8b f1		 mov	 esi, ecx

; 270  : 	CString data = strData;

  00028	8d 45 0c	 lea	 eax, DWORD PTR _strData$[ebp]
  0002b	c7 45 fc 00 00
	00 00		 mov	 DWORD PTR __$EHRec$[ebp+8], 0
  00032	50		 push	 eax
  00033	8d 4d f0	 lea	 ecx, DWORD PTR _data$[ebp]
  00036	ff 15 00 00 00
	00		 call	 DWORD PTR __imp_??0?$CStringT@DV?$StrTraitMFC_DLL@DV?$ChTraitsCRT@D@ATL@@@@@ATL@@QAE@ABV01@@Z

; 271  : 	CDataConversion::GetStringData(data, "Graph;\r\n");

  0003c	68 00 00 00 00	 push	 OFFSET ??_C@_08BHMMGBBH@Graph?$DL?$AN?6@
  00041	8d 4d ec	 lea	 ecx, DWORD PTR $T12[ebp]
  00044	c6 45 fc 01	 mov	 BYTE PTR __$EHRec$[ebp+8], 1
  00048	ff 15 00 00 00
	00		 call	 DWORD PTR __imp_??0?$CStringT@DV?$StrTraitMFC_DLL@DV?$ChTraitsCRT@D@ATL@@@@@ATL@@QAE@PBD@Z
  0004e	6a 01		 push	 1
  00050	8d 45 ec	 lea	 eax, DWORD PTR $T12[ebp]
  00053	c6 45 fc 02	 mov	 BYTE PTR __$EHRec$[ebp+8], 2
  00057	50		 push	 eax
  00058	8d 45 f0	 lea	 eax, DWORD PTR _data$[ebp]
  0005b	50		 push	 eax
  0005c	8d 45 e4	 lea	 eax, DWORD PTR $T6[ebp]
  0005f	50		 push	 eax
  00060	e8 00 00 00 00	 call	 ?GetStringData@CDataConversion@@SA?AV?$CStringT@DV?$StrTraitMFC_DLL@DV?$ChTraitsCRT@D@ATL@@@@@ATL@@AAV23@ABV23@_N@Z ; CDataConversion::GetStringData
  00065	83 c4 10	 add	 esp, 16			; 00000010H
  00068	8d 4d e4	 lea	 ecx, DWORD PTR $T6[ebp]
  0006b	ff 15 00 00 00
	00		 call	 DWORD PTR __imp_??1?$CStringT@DV?$StrTraitMFC_DLL@DV?$ChTraitsCRT@D@ATL@@@@@ATL@@QAE@XZ
  00071	8d 4d ec	 lea	 ecx, DWORD PTR $T12[ebp]
  00074	c6 45 fc 01	 mov	 BYTE PTR __$EHRec$[ebp+8], 1
  00078	ff 15 00 00 00
	00		 call	 DWORD PTR __imp_??1?$CStringT@DV?$StrTraitMFC_DLL@DV?$ChTraitsCRT@D@ATL@@@@@ATL@@QAE@XZ

; 272  : 	CDataConversion::GetStringData(data, ";");

  0007e	68 00 00 00 00	 push	 OFFSET ??_C@_01ICJEACDI@?$DL@
  00083	8d 4d ec	 lea	 ecx, DWORD PTR $T11[ebp]
  00086	ff 15 00 00 00
	00		 call	 DWORD PTR __imp_??0?$CStringT@DV?$StrTraitMFC_DLL@DV?$ChTraitsCRT@D@ATL@@@@@ATL@@QAE@PBD@Z
  0008c	6a 01		 push	 1
  0008e	8d 45 ec	 lea	 eax, DWORD PTR $T11[ebp]
  00091	c6 45 fc 03	 mov	 BYTE PTR __$EHRec$[ebp+8], 3
  00095	50		 push	 eax
  00096	8d 45 f0	 lea	 eax, DWORD PTR _data$[ebp]
  00099	50		 push	 eax
  0009a	8d 45 e4	 lea	 eax, DWORD PTR $T5[ebp]
  0009d	50		 push	 eax
  0009e	e8 00 00 00 00	 call	 ?GetStringData@CDataConversion@@SA?AV?$CStringT@DV?$StrTraitMFC_DLL@DV?$ChTraitsCRT@D@ATL@@@@@ATL@@AAV23@ABV23@_N@Z ; CDataConversion::GetStringData
  000a3	83 c4 10	 add	 esp, 16			; 00000010H
  000a6	8d 4d e4	 lea	 ecx, DWORD PTR $T5[ebp]
  000a9	ff 15 00 00 00
	00		 call	 DWORD PTR __imp_??1?$CStringT@DV?$StrTraitMFC_DLL@DV?$ChTraitsCRT@D@ATL@@@@@ATL@@QAE@XZ
  000af	8d 4d ec	 lea	 ecx, DWORD PTR $T11[ebp]
  000b2	c6 45 fc 01	 mov	 BYTE PTR __$EHRec$[ebp+8], 1
  000b6	ff 15 00 00 00
	00		 call	 DWORD PTR __imp_??1?$CStringT@DV?$StrTraitMFC_DLL@DV?$ChTraitsCRT@D@ATL@@@@@ATL@@QAE@XZ

; 273  : 	CDataConversion::GetStringData(data, ";");

  000bc	68 00 00 00 00	 push	 OFFSET ??_C@_01ICJEACDI@?$DL@
  000c1	8d 4d ec	 lea	 ecx, DWORD PTR $T10[ebp]
  000c4	ff 15 00 00 00
	00		 call	 DWORD PTR __imp_??0?$CStringT@DV?$StrTraitMFC_DLL@DV?$ChTraitsCRT@D@ATL@@@@@ATL@@QAE@PBD@Z
  000ca	6a 01		 push	 1
  000cc	8d 45 ec	 lea	 eax, DWORD PTR $T10[ebp]
  000cf	c6 45 fc 04	 mov	 BYTE PTR __$EHRec$[ebp+8], 4
  000d3	50		 push	 eax
  000d4	8d 45 f0	 lea	 eax, DWORD PTR _data$[ebp]
  000d7	50		 push	 eax
  000d8	8d 45 e4	 lea	 eax, DWORD PTR $T4[ebp]
  000db	50		 push	 eax
  000dc	e8 00 00 00 00	 call	 ?GetStringData@CDataConversion@@SA?AV?$CStringT@DV?$StrTraitMFC_DLL@DV?$ChTraitsCRT@D@ATL@@@@@ATL@@AAV23@ABV23@_N@Z ; CDataConversion::GetStringData
  000e1	83 c4 10	 add	 esp, 16			; 00000010H
  000e4	8d 4d e4	 lea	 ecx, DWORD PTR $T4[ebp]
  000e7	ff 15 00 00 00
	00		 call	 DWORD PTR __imp_??1?$CStringT@DV?$StrTraitMFC_DLL@DV?$ChTraitsCRT@D@ATL@@@@@ATL@@QAE@XZ
  000ed	8d 4d ec	 lea	 ecx, DWORD PTR $T10[ebp]
  000f0	c6 45 fc 01	 mov	 BYTE PTR __$EHRec$[ebp+8], 1
  000f4	ff 15 00 00 00
	00		 call	 DWORD PTR __imp_??1?$CStringT@DV?$StrTraitMFC_DLL@DV?$ChTraitsCRT@D@ATL@@@@@ATL@@QAE@XZ

; 274  : 	CDataConversion::GetStringData(data, ";");

  000fa	68 00 00 00 00	 push	 OFFSET ??_C@_01ICJEACDI@?$DL@
  000ff	8d 4d ec	 lea	 ecx, DWORD PTR $T9[ebp]
  00102	ff 15 00 00 00
	00		 call	 DWORD PTR __imp_??0?$CStringT@DV?$StrTraitMFC_DLL@DV?$ChTraitsCRT@D@ATL@@@@@ATL@@QAE@PBD@Z
  00108	6a 01		 push	 1
  0010a	8d 45 ec	 lea	 eax, DWORD PTR $T9[ebp]
  0010d	c6 45 fc 05	 mov	 BYTE PTR __$EHRec$[ebp+8], 5
  00111	50		 push	 eax
  00112	8d 45 f0	 lea	 eax, DWORD PTR _data$[ebp]
  00115	50		 push	 eax
  00116	8d 45 e4	 lea	 eax, DWORD PTR $T3[ebp]
  00119	50		 push	 eax
  0011a	e8 00 00 00 00	 call	 ?GetStringData@CDataConversion@@SA?AV?$CStringT@DV?$StrTraitMFC_DLL@DV?$ChTraitsCRT@D@ATL@@@@@ATL@@AAV23@ABV23@_N@Z ; CDataConversion::GetStringData
  0011f	83 c4 10	 add	 esp, 16			; 00000010H
  00122	8d 4d e4	 lea	 ecx, DWORD PTR $T3[ebp]
  00125	ff 15 00 00 00
	00		 call	 DWORD PTR __imp_??1?$CStringT@DV?$StrTraitMFC_DLL@DV?$ChTraitsCRT@D@ATL@@@@@ATL@@QAE@XZ
  0012b	8d 4d ec	 lea	 ecx, DWORD PTR $T9[ebp]
  0012e	c6 45 fc 01	 mov	 BYTE PTR __$EHRec$[ebp+8], 1
  00132	ff 15 00 00 00
	00		 call	 DWORD PTR __imp_??1?$CStringT@DV?$StrTraitMFC_DLL@DV?$ChTraitsCRT@D@ATL@@@@@ATL@@QAE@XZ

; 275  : 	CDataConversion::GetStringData(data, ";");

  00138	68 00 00 00 00	 push	 OFFSET ??_C@_01ICJEACDI@?$DL@
  0013d	8d 4d ec	 lea	 ecx, DWORD PTR $T8[ebp]
  00140	ff 15 00 00 00
	00		 call	 DWORD PTR __imp_??0?$CStringT@DV?$StrTraitMFC_DLL@DV?$ChTraitsCRT@D@ATL@@@@@ATL@@QAE@PBD@Z
  00146	6a 01		 push	 1
  00148	8d 45 ec	 lea	 eax, DWORD PTR $T8[ebp]
  0014b	c6 45 fc 06	 mov	 BYTE PTR __$EHRec$[ebp+8], 6
  0014f	50		 push	 eax
  00150	8d 45 f0	 lea	 eax, DWORD PTR _data$[ebp]
  00153	50		 push	 eax
  00154	8d 45 e4	 lea	 eax, DWORD PTR $T2[ebp]
  00157	50		 push	 eax
  00158	e8 00 00 00 00	 call	 ?GetStringData@CDataConversion@@SA?AV?$CStringT@DV?$StrTraitMFC_DLL@DV?$ChTraitsCRT@D@ATL@@@@@ATL@@AAV23@ABV23@_N@Z ; CDataConversion::GetStringData
  0015d	83 c4 10	 add	 esp, 16			; 00000010H
  00160	8d 4d e4	 lea	 ecx, DWORD PTR $T2[ebp]
  00163	ff 15 00 00 00
	00		 call	 DWORD PTR __imp_??1?$CStringT@DV?$StrTraitMFC_DLL@DV?$ChTraitsCRT@D@ATL@@@@@ATL@@QAE@XZ
  00169	8d 4d ec	 lea	 ecx, DWORD PTR $T8[ebp]
  0016c	c6 45 fc 01	 mov	 BYTE PTR __$EHRec$[ebp+8], 1
  00170	ff 15 00 00 00
	00		 call	 DWORD PTR __imp_??1?$CStringT@DV?$StrTraitMFC_DLL@DV?$ChTraitsCRT@D@ATL@@@@@ATL@@QAE@XZ

; 276  : 	CString strScaleData = CDataConversion::GetStringData(data, ";");

  00176	68 00 00 00 00	 push	 OFFSET ??_C@_01ICJEACDI@?$DL@
  0017b	8d 4d ec	 lea	 ecx, DWORD PTR $T7[ebp]
  0017e	ff 15 00 00 00
	00		 call	 DWORD PTR __imp_??0?$CStringT@DV?$StrTraitMFC_DLL@DV?$ChTraitsCRT@D@ATL@@@@@ATL@@QAE@PBD@Z
  00184	6a 01		 push	 1
  00186	8d 45 ec	 lea	 eax, DWORD PTR $T7[ebp]
  00189	c6 45 fc 07	 mov	 BYTE PTR __$EHRec$[ebp+8], 7
  0018d	50		 push	 eax
  0018e	8d 45 f0	 lea	 eax, DWORD PTR _data$[ebp]
  00191	50		 push	 eax
  00192	8d 45 e8	 lea	 eax, DWORD PTR _strScaleData$[ebp]
  00195	50		 push	 eax
  00196	e8 00 00 00 00	 call	 ?GetStringData@CDataConversion@@SA?AV?$CStringT@DV?$StrTraitMFC_DLL@DV?$ChTraitsCRT@D@ATL@@@@@ATL@@AAV23@ABV23@_N@Z ; CDataConversion::GetStringData
  0019b	83 c4 10	 add	 esp, 16			; 00000010H
  0019e	8d 4d ec	 lea	 ecx, DWORD PTR $T7[ebp]
  001a1	c6 45 fc 09	 mov	 BYTE PTR __$EHRec$[ebp+8], 9
  001a5	ff 15 00 00 00
	00		 call	 DWORD PTR __imp_??1?$CStringT@DV?$StrTraitMFC_DLL@DV?$ChTraitsCRT@D@ATL@@@@@ATL@@QAE@XZ

; 277  : 
; 278  : 	//   - ojtaso (20071023)
; 279  : 	return m_pTreeChart->AddVerticalScaleItem( strScaleData, 2, 0, 0, FALSE, 0, 0.0, 0.0, 0, 0, 0.0, 0.0, 0, 0);

  001ab	6a 00		 push	 0
  001ad	6a 00		 push	 0
  001af	83 ec 10	 sub	 esp, 16			; 00000010H
  001b2	8b 4e 0c	 mov	 ecx, DWORD PTR [esi+12]
  001b5	0f 57 c0	 xorps	 xmm0, xmm0
  001b8	8d 45 e8	 lea	 eax, DWORD PTR _strScaleData$[ebp]
  001bb	0f 11 04 24	 movups	 XMMWORD PTR [esp], xmm0
  001bf	6a 00		 push	 0
  001c1	6a 00		 push	 0
  001c3	83 ec 10	 sub	 esp, 16			; 00000010H
  001c6	0f 11 04 24	 movups	 XMMWORD PTR [esp], xmm0
  001ca	6a 00		 push	 0
  001cc	6a 00		 push	 0
  001ce	6a 00		 push	 0
  001d0	6a 00		 push	 0
  001d2	6a 02		 push	 2
  001d4	50		 push	 eax
  001d5	e8 00 00 00 00	 call	 ?AddVerticalScaleItem@CMyTreeCtrl@@QAEPAVCChartLink@@ABV?$CStringT@DV?$StrTraitMFC_DLL@DV?$ChTraitsCRT@D@ATL@@@@@ATL@@HHHHHNNHHNNHH@Z ; CMyTreeCtrl::AddVerticalScaleItem
  001da	8d 4d e8	 lea	 ecx, DWORD PTR _strScaleData$[ebp]
  001dd	8b f0		 mov	 esi, eax
  001df	ff 15 00 00 00
	00		 call	 DWORD PTR __imp_??1?$CStringT@DV?$StrTraitMFC_DLL@DV?$ChTraitsCRT@D@ATL@@@@@ATL@@QAE@XZ
  001e5	8d 4d f0	 lea	 ecx, DWORD PTR _data$[ebp]
  001e8	ff 15 00 00 00
	00		 call	 DWORD PTR __imp_??1?$CStringT@DV?$StrTraitMFC_DLL@DV?$ChTraitsCRT@D@ATL@@@@@ATL@@QAE@XZ
  001ee	8d 4d 0c	 lea	 ecx, DWORD PTR _strData$[ebp]
  001f1	ff 15 00 00 00
	00		 call	 DWORD PTR __imp_??1?$CStringT@DV?$StrTraitMFC_DLL@DV?$ChTraitsCRT@D@ATL@@@@@ATL@@QAE@XZ
  001f7	8b c6		 mov	 eax, esi

; 280  : }

  001f9	8b 4d f4	 mov	 ecx, DWORD PTR __$EHRec$[ebp]
  001fc	64 89 0d 00 00
	00 00		 mov	 DWORD PTR fs:0, ecx
  00203	59		 pop	 ecx
  00204	5e		 pop	 esi
  00205	8b e5		 mov	 esp, ebp
  00207	5d		 pop	 ebp
  00208	c2 08 00	 ret	 8
_TEXT	ENDS
;	COMDAT text$x
text$x	SEGMENT
__unwindfunclet$?SetVerticalScaleItem_Temp@CDataOfChartListPage@@AAEPAVCChartLink@@HV?$CStringT@DV?$StrTraitMFC_DLL@DV?$ChTraitsCRT@D@ATL@@@@@ATL@@@Z$0:
  00000	8d 4d 0c	 lea	 ecx, DWORD PTR _strData$[ebp]
  00003	ff 25 00 00 00
	00		 jmp	 DWORD PTR __imp_??1?$CStringT@DV?$StrTraitMFC_DLL@DV?$ChTraitsCRT@D@ATL@@@@@ATL@@QAE@XZ
__unwindfunclet$?SetVerticalScaleItem_Temp@CDataOfChartListPage@@AAEPAVCChartLink@@HV?$CStringT@DV?$StrTraitMFC_DLL@DV?$ChTraitsCRT@D@ATL@@@@@ATL@@@Z$1:
  00009	8d 4d f0	 lea	 ecx, DWORD PTR _data$[ebp]
  0000c	ff 25 00 00 00
	00		 jmp	 DWORD PTR __imp_??1?$CStringT@DV?$StrTraitMFC_DLL@DV?$ChTraitsCRT@D@ATL@@@@@ATL@@QAE@XZ
__unwindfunclet$?SetVerticalScaleItem_Temp@CDataOfChartListPage@@AAEPAVCChartLink@@HV?$CStringT@DV?$StrTraitMFC_DLL@DV?$ChTraitsCRT@D@ATL@@@@@ATL@@@Z$2:
  00012	8d 4d ec	 lea	 ecx, DWORD PTR $T12[ebp]
  00015	ff 25 00 00 00
	00		 jmp	 DWORD PTR __imp_??1?$CStringT@DV?$StrTraitMFC_DLL@DV?$ChTraitsCRT@D@ATL@@@@@ATL@@QAE@XZ
__unwindfunclet$?SetVerticalScaleItem_Temp@CDataOfChartListPage@@AAEPAVCChartLink@@HV?$CStringT@DV?$StrTraitMFC_DLL@DV?$ChTraitsCRT@D@ATL@@@@@ATL@@@Z$4:
  0001b	8d 4d ec	 lea	 ecx, DWORD PTR $T11[ebp]
  0001e	ff 25 00 00 00
	00		 jmp	 DWORD PTR __imp_??1?$CStringT@DV?$StrTraitMFC_DLL@DV?$ChTraitsCRT@D@ATL@@@@@ATL@@QAE@XZ
__unwindfunclet$?SetVerticalScaleItem_Temp@CDataOfChartListPage@@AAEPAVCChartLink@@HV?$CStringT@DV?$StrTraitMFC_DLL@DV?$ChTraitsCRT@D@ATL@@@@@ATL@@@Z$6:
  00024	8d 4d ec	 lea	 ecx, DWORD PTR $T10[ebp]
  00027	ff 25 00 00 00
	00		 jmp	 DWORD PTR __imp_??1?$CStringT@DV?$StrTraitMFC_DLL@DV?$ChTraitsCRT@D@ATL@@@@@ATL@@QAE@XZ
__unwindfunclet$?SetVerticalScaleItem_Temp@CDataOfChartListPage@@AAEPAVCChartLink@@HV?$CStringT@DV?$StrTraitMFC_DLL@DV?$ChTraitsCRT@D@ATL@@@@@ATL@@@Z$8:
  0002d	8d 4d ec	 lea	 ecx, DWORD PTR $T9[ebp]
  00030	ff 25 00 00 00
	00		 jmp	 DWORD PTR __imp_??1?$CStringT@DV?$StrTraitMFC_DLL@DV?$ChTraitsCRT@D@ATL@@@@@ATL@@QAE@XZ
__unwindfunclet$?SetVerticalScaleItem_Temp@CDataOfChartListPage@@AAEPAVCChartLink@@HV?$CStringT@DV?$StrTraitMFC_DLL@DV?$ChTraitsCRT@D@ATL@@@@@ATL@@@Z$10:
  00036	8d 4d ec	 lea	 ecx, DWORD PTR $T8[ebp]
  00039	ff 25 00 00 00
	00		 jmp	 DWORD PTR __imp_??1?$CStringT@DV?$StrTraitMFC_DLL@DV?$ChTraitsCRT@D@ATL@@@@@ATL@@QAE@XZ
__unwindfunclet$?SetVerticalScaleItem_Temp@CDataOfChartListPage@@AAEPAVCChartLink@@HV?$CStringT@DV?$StrTraitMFC_DLL@DV?$ChTraitsCRT@D@ATL@@@@@ATL@@@Z$12:
  0003f	8d 4d ec	 lea	 ecx, DWORD PTR $T7[ebp]
  00042	ff 25 00 00 00
	00		 jmp	 DWORD PTR __imp_??1?$CStringT@DV?$StrTraitMFC_DLL@DV?$ChTraitsCRT@D@ATL@@@@@ATL@@QAE@XZ
__unwindfunclet$?SetVerticalScaleItem_Temp@CDataOfChartListPage@@AAEPAVCChartLink@@HV?$CStringT@DV?$StrTraitMFC_DLL@DV?$ChTraitsCRT@D@ATL@@@@@ATL@@@Z$13:
  00048	8d 4d e8	 lea	 ecx, DWORD PTR _strScaleData$[ebp]
  0004b	ff 25 00 00 00
	00		 jmp	 DWORD PTR __imp_??1?$CStringT@DV?$StrTraitMFC_DLL@DV?$ChTraitsCRT@D@ATL@@@@@ATL@@QAE@XZ
  00051	cc		 int	 3
  00052	cc		 int	 3
  00053	cc		 int	 3
  00054	cc		 int	 3
  00055	cc		 int	 3
__ehhandler$?SetVerticalScaleItem_Temp@CDataOfChartListPage@@AAEPAVCChartLink@@HV?$CStringT@DV?$StrTraitMFC_DLL@DV?$ChTraitsCRT@D@ATL@@@@@ATL@@@Z:
  00056	90		 npad	 1
  00057	90		 npad	 1
  00058	8b 54 24 08	 mov	 edx, DWORD PTR [esp+8]
  0005c	8d 42 0c	 lea	 eax, DWORD PTR [edx+12]
  0005f	8b 4a e8	 mov	 ecx, DWORD PTR [edx-24]
  00062	33 c8		 xor	 ecx, eax
  00064	e8 00 00 00 00	 call	 @__security_check_cookie@4
  00069	b8 00 00 00 00	 mov	 eax, OFFSET __ehfuncinfo$?SetVerticalScaleItem_Temp@CDataOfChartListPage@@AAEPAVCChartLink@@HV?$CStringT@DV?$StrTraitMFC_DLL@DV?$ChTraitsCRT@D@ATL@@@@@ATL@@@Z
  0006e	e9 00 00 00 00	 jmp	 ___CxxFrameHandler3
text$x	ENDS
?SetVerticalScaleItem_Temp@CDataOfChartListPage@@AAEPAVCChartLink@@HV?$CStringT@DV?$StrTraitMFC_DLL@DV?$ChTraitsCRT@D@ATL@@@@@ATL@@@Z ENDP ; CDataOfChartListPage::SetVerticalScaleItem_Temp
; Function compile flags: /Ogtp
; File D:\git\src\IBK\IBK_DRFN\ProjSrc\SrcChartEx\ChartAddIn\ChartDesignPropertyAddIn\ChartDesignPropertyAddIn\DataOfChartListPage.cpp
;	COMDAT ?SetVerticalScaleItem@CDataOfChartListPage@@AAEPAVCChartLink@@HV?$CStringT@DV?$StrTraitMFC_DLL@DV?$ChTraitsCRT@D@ATL@@@@@ATL@@@Z
_TEXT	SEGMENT
_dMin$ = -92						; size = 8
_dMax$ = -84						; size = 8
_dHogaNumber$ = -76					; size = 8
_dUserNumber$ = -68					; size = 8
_this$1$ = -60						; size = 4
_nScalePos$1$ = -56					; size = 4
_nScaleCompart$1$ = -52					; size = 4
_nScaleExpessionType$1$ = -48				; size = 4
_bMinMaxLock$1$ = -44					; size = 4
_nMinMaxType$1$ = -40					; size = 4
_nUpSpace$1$ = -36					; size = 4
$T2 = -32						; size = 4
$T3 = -32						; size = 4
$T4 = -32						; size = 4
$T5 = -32						; size = 4
$T6 = -32						; size = 4
$T7 = -32						; size = 4
$T8 = -32						; size = 4
$T9 = -32						; size = 4
$T10 = -32						; size = 4
$T11 = -32						; size = 4
$T12 = -32						; size = 4
$T13 = -32						; size = 4
$T14 = -32						; size = 4
_strScaleData$ = -28					; size = 4
$T15 = -24						; size = 4
$T16 = -24						; size = 4
$T17 = -24						; size = 4
$T18 = -24						; size = 4
$T19 = -24						; size = 4
$T20 = -24						; size = 4
$T21 = -24						; size = 4
$T22 = -24						; size = 4
$T23 = -24						; size = 4
$T24 = -24						; size = 4
$T25 = -24						; size = 4
$T26 = -24						; size = 4
$T27 = -24						; size = 4
$T28 = -24						; size = 4
$T29 = -20						; size = 4
$T30 = -20						; size = 4
_data$ = -16						; size = 4
__$EHRec$ = -12						; size = 12
_nVerticalScale$ = 8					; size = 4
_strData$ = 12						; size = 4
?SetVerticalScaleItem@CDataOfChartListPage@@AAEPAVCChartLink@@HV?$CStringT@DV?$StrTraitMFC_DLL@DV?$ChTraitsCRT@D@ATL@@@@@ATL@@@Z PROC ; CDataOfChartListPage::SetVerticalScaleItem, COMDAT
; _this$ = ecx

; 237  : {

  00000	55		 push	 ebp
  00001	8b ec		 mov	 ebp, esp
  00003	6a ff		 push	 -1
  00005	68 00 00 00 00	 push	 __ehhandler$?SetVerticalScaleItem@CDataOfChartListPage@@AAEPAVCChartLink@@HV?$CStringT@DV?$StrTraitMFC_DLL@DV?$ChTraitsCRT@D@ATL@@@@@ATL@@@Z
  0000a	64 a1 00 00 00
	00		 mov	 eax, DWORD PTR fs:0
  00010	50		 push	 eax
  00011	83 ec 50	 sub	 esp, 80			; 00000050H
  00014	53		 push	 ebx
  00015	56		 push	 esi
  00016	57		 push	 edi
  00017	a1 00 00 00 00	 mov	 eax, DWORD PTR ___security_cookie
  0001c	33 c5		 xor	 eax, ebp
  0001e	50		 push	 eax
  0001f	8d 45 f4	 lea	 eax, DWORD PTR __$EHRec$[ebp]
  00022	64 a3 00 00 00
	00		 mov	 DWORD PTR fs:0, eax
  00028	89 4d c4	 mov	 DWORD PTR _this$1$[ebp], ecx

; 238  : 	CString data = strData;

  0002b	8d 45 0c	 lea	 eax, DWORD PTR _strData$[ebp]
  0002e	c7 45 fc 00 00
	00 00		 mov	 DWORD PTR __$EHRec$[ebp+8], 0
  00035	50		 push	 eax
  00036	8d 4d f0	 lea	 ecx, DWORD PTR _data$[ebp]
  00039	ff 15 00 00 00
	00		 call	 DWORD PTR __imp_??0?$CStringT@DV?$StrTraitMFC_DLL@DV?$ChTraitsCRT@D@ATL@@@@@ATL@@QAE@ABV01@@Z

; 239  : 
; 240  : 	CDataConversion::GetStringData(data, "VertScaleGroup;\r\n");

  0003f	68 00 00 00 00	 push	 OFFSET ??_C@_0BC@DJOHDNOJ@VertScaleGroup?$DL?$AN?6@
  00044	8d 4d ec	 lea	 ecx, DWORD PTR $T30[ebp]
  00047	c6 45 fc 01	 mov	 BYTE PTR __$EHRec$[ebp+8], 1
  0004b	ff 15 00 00 00
	00		 call	 DWORD PTR __imp_??0?$CStringT@DV?$StrTraitMFC_DLL@DV?$ChTraitsCRT@D@ATL@@@@@ATL@@QAE@PBD@Z
  00051	6a 01		 push	 1
  00053	8d 45 ec	 lea	 eax, DWORD PTR $T30[ebp]
  00056	c6 45 fc 02	 mov	 BYTE PTR __$EHRec$[ebp+8], 2
  0005a	50		 push	 eax
  0005b	8d 45 f0	 lea	 eax, DWORD PTR _data$[ebp]
  0005e	50		 push	 eax
  0005f	8d 45 e8	 lea	 eax, DWORD PTR $T28[ebp]
  00062	50		 push	 eax
  00063	e8 00 00 00 00	 call	 ?GetStringData@CDataConversion@@SA?AV?$CStringT@DV?$StrTraitMFC_DLL@DV?$ChTraitsCRT@D@ATL@@@@@ATL@@AAV23@ABV23@_N@Z ; CDataConversion::GetStringData
  00068	83 c4 10	 add	 esp, 16			; 00000010H
  0006b	8d 4d e8	 lea	 ecx, DWORD PTR $T28[ebp]
  0006e	ff 15 00 00 00
	00		 call	 DWORD PTR __imp_??1?$CStringT@DV?$StrTraitMFC_DLL@DV?$ChTraitsCRT@D@ATL@@@@@ATL@@QAE@XZ
  00074	8d 4d ec	 lea	 ecx, DWORD PTR $T30[ebp]
  00077	c6 45 fc 01	 mov	 BYTE PTR __$EHRec$[ebp+8], 1
  0007b	ff 15 00 00 00
	00		 call	 DWORD PTR __imp_??1?$CStringT@DV?$StrTraitMFC_DLL@DV?$ChTraitsCRT@D@ATL@@@@@ATL@@QAE@XZ

; 241  : 	CString strScaleData = CDataConversion::GetStringData(data, ";");

  00081	68 00 00 00 00	 push	 OFFSET ??_C@_01ICJEACDI@?$DL@
  00086	8d 4d ec	 lea	 ecx, DWORD PTR $T29[ebp]
  00089	ff 15 00 00 00
	00		 call	 DWORD PTR __imp_??0?$CStringT@DV?$StrTraitMFC_DLL@DV?$ChTraitsCRT@D@ATL@@@@@ATL@@QAE@PBD@Z
  0008f	6a 01		 push	 1
  00091	8d 45 ec	 lea	 eax, DWORD PTR $T29[ebp]
  00094	c6 45 fc 03	 mov	 BYTE PTR __$EHRec$[ebp+8], 3
  00098	50		 push	 eax
  00099	8d 45 f0	 lea	 eax, DWORD PTR _data$[ebp]
  0009c	50		 push	 eax
  0009d	8d 45 e4	 lea	 eax, DWORD PTR _strScaleData$[ebp]
  000a0	50		 push	 eax
  000a1	e8 00 00 00 00	 call	 ?GetStringData@CDataConversion@@SA?AV?$CStringT@DV?$StrTraitMFC_DLL@DV?$ChTraitsCRT@D@ATL@@@@@ATL@@AAV23@ABV23@_N@Z ; CDataConversion::GetStringData
  000a6	83 c4 10	 add	 esp, 16			; 00000010H
  000a9	8d 4d ec	 lea	 ecx, DWORD PTR $T29[ebp]
  000ac	c6 45 fc 05	 mov	 BYTE PTR __$EHRec$[ebp+8], 5
  000b0	ff 15 00 00 00
	00		 call	 DWORD PTR __imp_??1?$CStringT@DV?$StrTraitMFC_DLL@DV?$ChTraitsCRT@D@ATL@@@@@ATL@@QAE@XZ

; 242  : 	int nScalePos = atoi(CDataConversion::GetStringData(data, ";"));

  000b6	68 00 00 00 00	 push	 OFFSET ??_C@_01ICJEACDI@?$DL@
  000bb	8d 4d e8	 lea	 ecx, DWORD PTR $T27[ebp]
  000be	ff 15 00 00 00
	00		 call	 DWORD PTR __imp_??0?$CStringT@DV?$StrTraitMFC_DLL@DV?$ChTraitsCRT@D@ATL@@@@@ATL@@QAE@PBD@Z
  000c4	6a 01		 push	 1
  000c6	8d 45 e8	 lea	 eax, DWORD PTR $T27[ebp]
  000c9	c6 45 fc 06	 mov	 BYTE PTR __$EHRec$[ebp+8], 6
  000cd	50		 push	 eax
  000ce	8d 45 f0	 lea	 eax, DWORD PTR _data$[ebp]
  000d1	50		 push	 eax
  000d2	8d 45 e0	 lea	 eax, DWORD PTR $T14[ebp]
  000d5	50		 push	 eax
  000d6	e8 00 00 00 00	 call	 ?GetStringData@CDataConversion@@SA?AV?$CStringT@DV?$StrTraitMFC_DLL@DV?$ChTraitsCRT@D@ATL@@@@@ATL@@AAV23@ABV23@_N@Z ; CDataConversion::GetStringData
  000db	8b 35 00 00 00
	00		 mov	 esi, DWORD PTR __imp__atoi
  000e1	ff 30		 push	 DWORD PTR [eax]
  000e3	ff d6		 call	 esi
  000e5	83 c4 14	 add	 esp, 20			; 00000014H
  000e8	89 45 c8	 mov	 DWORD PTR _nScalePos$1$[ebp], eax
  000eb	8d 4d e0	 lea	 ecx, DWORD PTR $T14[ebp]
  000ee	ff 15 00 00 00
	00		 call	 DWORD PTR __imp_??1?$CStringT@DV?$StrTraitMFC_DLL@DV?$ChTraitsCRT@D@ATL@@@@@ATL@@QAE@XZ
  000f4	8d 4d e8	 lea	 ecx, DWORD PTR $T27[ebp]
  000f7	c6 45 fc 05	 mov	 BYTE PTR __$EHRec$[ebp+8], 5
  000fb	ff 15 00 00 00
	00		 call	 DWORD PTR __imp_??1?$CStringT@DV?$StrTraitMFC_DLL@DV?$ChTraitsCRT@D@ATL@@@@@ATL@@QAE@XZ

; 243  : 	int nScaleCompart = atoi(CDataConversion::GetStringData(data, ";"));

  00101	68 00 00 00 00	 push	 OFFSET ??_C@_01ICJEACDI@?$DL@
  00106	8d 4d e8	 lea	 ecx, DWORD PTR $T26[ebp]
  00109	ff 15 00 00 00
	00		 call	 DWORD PTR __imp_??0?$CStringT@DV?$StrTraitMFC_DLL@DV?$ChTraitsCRT@D@ATL@@@@@ATL@@QAE@PBD@Z
  0010f	6a 01		 push	 1
  00111	8d 45 e8	 lea	 eax, DWORD PTR $T26[ebp]
  00114	c6 45 fc 07	 mov	 BYTE PTR __$EHRec$[ebp+8], 7
  00118	50		 push	 eax
  00119	8d 45 f0	 lea	 eax, DWORD PTR _data$[ebp]
  0011c	50		 push	 eax
  0011d	8d 45 e0	 lea	 eax, DWORD PTR $T13[ebp]
  00120	50		 push	 eax
  00121	e8 00 00 00 00	 call	 ?GetStringData@CDataConversion@@SA?AV?$CStringT@DV?$StrTraitMFC_DLL@DV?$ChTraitsCRT@D@ATL@@@@@ATL@@AAV23@ABV23@_N@Z ; CDataConversion::GetStringData
  00126	ff 30		 push	 DWORD PTR [eax]
  00128	ff d6		 call	 esi
  0012a	83 c4 14	 add	 esp, 20			; 00000014H
  0012d	89 45 cc	 mov	 DWORD PTR _nScaleCompart$1$[ebp], eax
  00130	8d 4d e0	 lea	 ecx, DWORD PTR $T13[ebp]
  00133	ff 15 00 00 00
	00		 call	 DWORD PTR __imp_??1?$CStringT@DV?$StrTraitMFC_DLL@DV?$ChTraitsCRT@D@ATL@@@@@ATL@@QAE@XZ
  00139	8d 4d e8	 lea	 ecx, DWORD PTR $T26[ebp]
  0013c	c6 45 fc 05	 mov	 BYTE PTR __$EHRec$[ebp+8], 5
  00140	ff 15 00 00 00
	00		 call	 DWORD PTR __imp_??1?$CStringT@DV?$StrTraitMFC_DLL@DV?$ChTraitsCRT@D@ATL@@@@@ATL@@QAE@XZ

; 244  : 	int nScaleExpessionType = atoi(CDataConversion::GetStringData(data, ";"));

  00146	68 00 00 00 00	 push	 OFFSET ??_C@_01ICJEACDI@?$DL@
  0014b	8d 4d e8	 lea	 ecx, DWORD PTR $T25[ebp]
  0014e	ff 15 00 00 00
	00		 call	 DWORD PTR __imp_??0?$CStringT@DV?$StrTraitMFC_DLL@DV?$ChTraitsCRT@D@ATL@@@@@ATL@@QAE@PBD@Z
  00154	6a 01		 push	 1
  00156	8d 45 e8	 lea	 eax, DWORD PTR $T25[ebp]
  00159	c6 45 fc 08	 mov	 BYTE PTR __$EHRec$[ebp+8], 8
  0015d	50		 push	 eax
  0015e	8d 45 f0	 lea	 eax, DWORD PTR _data$[ebp]
  00161	50		 push	 eax
  00162	8d 45 e0	 lea	 eax, DWORD PTR $T12[ebp]
  00165	50		 push	 eax
  00166	e8 00 00 00 00	 call	 ?GetStringData@CDataConversion@@SA?AV?$CStringT@DV?$StrTraitMFC_DLL@DV?$ChTraitsCRT@D@ATL@@@@@ATL@@AAV23@ABV23@_N@Z ; CDataConversion::GetStringData
  0016b	ff 30		 push	 DWORD PTR [eax]
  0016d	ff d6		 call	 esi
  0016f	83 c4 14	 add	 esp, 20			; 00000014H
  00172	89 45 d0	 mov	 DWORD PTR _nScaleExpessionType$1$[ebp], eax
  00175	8d 4d e0	 lea	 ecx, DWORD PTR $T12[ebp]
  00178	ff 15 00 00 00
	00		 call	 DWORD PTR __imp_??1?$CStringT@DV?$StrTraitMFC_DLL@DV?$ChTraitsCRT@D@ATL@@@@@ATL@@QAE@XZ
  0017e	8d 4d e8	 lea	 ecx, DWORD PTR $T25[ebp]
  00181	c6 45 fc 05	 mov	 BYTE PTR __$EHRec$[ebp+8], 5
  00185	ff 15 00 00 00
	00		 call	 DWORD PTR __imp_??1?$CStringT@DV?$StrTraitMFC_DLL@DV?$ChTraitsCRT@D@ATL@@@@@ATL@@QAE@XZ

; 245  : 
; 246  : 	// (2006/11/11 - Seung-Won, Bae) Min/Max Setting
; 247  : 	BOOL	bMinMaxLock	= atoi( CDataConversion::GetStringData( data, ";"));	// Lock

  0018b	68 00 00 00 00	 push	 OFFSET ??_C@_01ICJEACDI@?$DL@
  00190	8d 4d e8	 lea	 ecx, DWORD PTR $T24[ebp]
  00193	ff 15 00 00 00
	00		 call	 DWORD PTR __imp_??0?$CStringT@DV?$StrTraitMFC_DLL@DV?$ChTraitsCRT@D@ATL@@@@@ATL@@QAE@PBD@Z
  00199	6a 01		 push	 1
  0019b	8d 45 e8	 lea	 eax, DWORD PTR $T24[ebp]
  0019e	c6 45 fc 09	 mov	 BYTE PTR __$EHRec$[ebp+8], 9
  001a2	50		 push	 eax
  001a3	8d 45 f0	 lea	 eax, DWORD PTR _data$[ebp]
  001a6	50		 push	 eax
  001a7	8d 45 e0	 lea	 eax, DWORD PTR $T11[ebp]
  001aa	50		 push	 eax
  001ab	e8 00 00 00 00	 call	 ?GetStringData@CDataConversion@@SA?AV?$CStringT@DV?$StrTraitMFC_DLL@DV?$ChTraitsCRT@D@ATL@@@@@ATL@@AAV23@ABV23@_N@Z ; CDataConversion::GetStringData
  001b0	ff 30		 push	 DWORD PTR [eax]
  001b2	ff d6		 call	 esi
  001b4	83 c4 14	 add	 esp, 20			; 00000014H
  001b7	89 45 d4	 mov	 DWORD PTR _bMinMaxLock$1$[ebp], eax
  001ba	8d 4d e0	 lea	 ecx, DWORD PTR $T11[ebp]
  001bd	ff 15 00 00 00
	00		 call	 DWORD PTR __imp_??1?$CStringT@DV?$StrTraitMFC_DLL@DV?$ChTraitsCRT@D@ATL@@@@@ATL@@QAE@XZ
  001c3	8d 4d e8	 lea	 ecx, DWORD PTR $T24[ebp]
  001c6	c6 45 fc 05	 mov	 BYTE PTR __$EHRec$[ebp+8], 5
  001ca	ff 15 00 00 00
	00		 call	 DWORD PTR __imp_??1?$CStringT@DV?$StrTraitMFC_DLL@DV?$ChTraitsCRT@D@ATL@@@@@ATL@@QAE@XZ

; 248  : 	int		nMinMaxType	= atoi( CDataConversion::GetStringData( data, ";"));	// Type

  001d0	68 00 00 00 00	 push	 OFFSET ??_C@_01ICJEACDI@?$DL@
  001d5	8d 4d e8	 lea	 ecx, DWORD PTR $T23[ebp]
  001d8	ff 15 00 00 00
	00		 call	 DWORD PTR __imp_??0?$CStringT@DV?$StrTraitMFC_DLL@DV?$ChTraitsCRT@D@ATL@@@@@ATL@@QAE@PBD@Z
  001de	6a 01		 push	 1
  001e0	8d 45 e8	 lea	 eax, DWORD PTR $T23[ebp]
  001e3	c6 45 fc 0a	 mov	 BYTE PTR __$EHRec$[ebp+8], 10 ; 0000000aH
  001e7	50		 push	 eax
  001e8	8d 45 f0	 lea	 eax, DWORD PTR _data$[ebp]
  001eb	50		 push	 eax
  001ec	8d 45 e0	 lea	 eax, DWORD PTR $T10[ebp]
  001ef	50		 push	 eax
  001f0	e8 00 00 00 00	 call	 ?GetStringData@CDataConversion@@SA?AV?$CStringT@DV?$StrTraitMFC_DLL@DV?$ChTraitsCRT@D@ATL@@@@@ATL@@AAV23@ABV23@_N@Z ; CDataConversion::GetStringData
  001f5	ff 30		 push	 DWORD PTR [eax]
  001f7	ff d6		 call	 esi
  001f9	83 c4 14	 add	 esp, 20			; 00000014H
  001fc	89 45 d8	 mov	 DWORD PTR _nMinMaxType$1$[ebp], eax
  001ff	8d 4d e0	 lea	 ecx, DWORD PTR $T10[ebp]
  00202	ff 15 00 00 00
	00		 call	 DWORD PTR __imp_??1?$CStringT@DV?$StrTraitMFC_DLL@DV?$ChTraitsCRT@D@ATL@@@@@ATL@@QAE@XZ
  00208	8d 4d e8	 lea	 ecx, DWORD PTR $T23[ebp]
  0020b	c6 45 fc 05	 mov	 BYTE PTR __$EHRec$[ebp+8], 5
  0020f	ff 15 00 00 00
	00		 call	 DWORD PTR __imp_??1?$CStringT@DV?$StrTraitMFC_DLL@DV?$ChTraitsCRT@D@ATL@@@@@ATL@@QAE@XZ

; 249  : 	double	dMin		= atof( CDataConversion::GetStringData( data, ";"));	// Min

  00215	68 00 00 00 00	 push	 OFFSET ??_C@_01ICJEACDI@?$DL@
  0021a	8d 4d e8	 lea	 ecx, DWORD PTR $T22[ebp]
  0021d	ff 15 00 00 00
	00		 call	 DWORD PTR __imp_??0?$CStringT@DV?$StrTraitMFC_DLL@DV?$ChTraitsCRT@D@ATL@@@@@ATL@@QAE@PBD@Z
  00223	c6 45 fc 0b	 mov	 BYTE PTR __$EHRec$[ebp+8], 11 ; 0000000bH
  00227	6a 01		 push	 1
  00229	8d 45 e8	 lea	 eax, DWORD PTR $T22[ebp]
  0022c	50		 push	 eax
  0022d	8d 45 f0	 lea	 eax, DWORD PTR _data$[ebp]
  00230	50		 push	 eax
  00231	8d 45 e0	 lea	 eax, DWORD PTR $T9[ebp]
  00234	50		 push	 eax
  00235	e8 00 00 00 00	 call	 ?GetStringData@CDataConversion@@SA?AV?$CStringT@DV?$StrTraitMFC_DLL@DV?$ChTraitsCRT@D@ATL@@@@@ATL@@AAV23@ABV23@_N@Z ; CDataConversion::GetStringData
  0023a	ff 30		 push	 DWORD PTR [eax]
  0023c	ff 15 00 00 00
	00		 call	 DWORD PTR __imp__atof
  00242	83 c4 14	 add	 esp, 20			; 00000014H
  00245	8d 4d e0	 lea	 ecx, DWORD PTR $T9[ebp]
  00248	dd 5d a4	 fstp	 QWORD PTR _dMin$[ebp]
  0024b	ff 15 00 00 00
	00		 call	 DWORD PTR __imp_??1?$CStringT@DV?$StrTraitMFC_DLL@DV?$ChTraitsCRT@D@ATL@@@@@ATL@@QAE@XZ
  00251	8d 4d e8	 lea	 ecx, DWORD PTR $T22[ebp]
  00254	c6 45 fc 05	 mov	 BYTE PTR __$EHRec$[ebp+8], 5
  00258	ff 15 00 00 00
	00		 call	 DWORD PTR __imp_??1?$CStringT@DV?$StrTraitMFC_DLL@DV?$ChTraitsCRT@D@ATL@@@@@ATL@@QAE@XZ

; 250  : 	double	dMax		= atof( CDataConversion::GetStringData( data, ";"));	// Max

  0025e	68 00 00 00 00	 push	 OFFSET ??_C@_01ICJEACDI@?$DL@
  00263	8d 4d e8	 lea	 ecx, DWORD PTR $T21[ebp]
  00266	ff 15 00 00 00
	00		 call	 DWORD PTR __imp_??0?$CStringT@DV?$StrTraitMFC_DLL@DV?$ChTraitsCRT@D@ATL@@@@@ATL@@QAE@PBD@Z
  0026c	6a 01		 push	 1
  0026e	8d 45 e8	 lea	 eax, DWORD PTR $T21[ebp]
  00271	c6 45 fc 0c	 mov	 BYTE PTR __$EHRec$[ebp+8], 12 ; 0000000cH
  00275	50		 push	 eax
  00276	8d 45 f0	 lea	 eax, DWORD PTR _data$[ebp]
  00279	50		 push	 eax
  0027a	8d 45 e0	 lea	 eax, DWORD PTR $T8[ebp]
  0027d	50		 push	 eax
  0027e	e8 00 00 00 00	 call	 ?GetStringData@CDataConversion@@SA?AV?$CStringT@DV?$StrTraitMFC_DLL@DV?$ChTraitsCRT@D@ATL@@@@@ATL@@AAV23@ABV23@_N@Z ; CDataConversion::GetStringData
  00283	ff 30		 push	 DWORD PTR [eax]
  00285	ff 15 00 00 00
	00		 call	 DWORD PTR __imp__atof
  0028b	83 c4 14	 add	 esp, 20			; 00000014H
  0028e	8d 4d e0	 lea	 ecx, DWORD PTR $T8[ebp]
  00291	dd 5d ac	 fstp	 QWORD PTR _dMax$[ebp]
  00294	ff 15 00 00 00
	00		 call	 DWORD PTR __imp_??1?$CStringT@DV?$StrTraitMFC_DLL@DV?$ChTraitsCRT@D@ATL@@@@@ATL@@QAE@XZ
  0029a	8d 4d e8	 lea	 ecx, DWORD PTR $T21[ebp]
  0029d	c6 45 fc 05	 mov	 BYTE PTR __$EHRec$[ebp+8], 5
  002a1	ff 15 00 00 00
	00		 call	 DWORD PTR __imp_??1?$CStringT@DV?$StrTraitMFC_DLL@DV?$ChTraitsCRT@D@ATL@@@@@ATL@@QAE@XZ

; 251  : 
; 252  : 	// (2007/7/19 - Seung-Won, Bae) Support Up/Down Space
; 253  : 	int nUpSpace	= atoi( CDataConversion::GetStringData( data, ";"));	// UpSpace

  002a7	68 00 00 00 00	 push	 OFFSET ??_C@_01ICJEACDI@?$DL@
  002ac	8d 4d e8	 lea	 ecx, DWORD PTR $T20[ebp]
  002af	ff 15 00 00 00
	00		 call	 DWORD PTR __imp_??0?$CStringT@DV?$StrTraitMFC_DLL@DV?$ChTraitsCRT@D@ATL@@@@@ATL@@QAE@PBD@Z
  002b5	6a 01		 push	 1
  002b7	8d 45 e8	 lea	 eax, DWORD PTR $T20[ebp]
  002ba	c6 45 fc 0d	 mov	 BYTE PTR __$EHRec$[ebp+8], 13 ; 0000000dH
  002be	50		 push	 eax
  002bf	8d 45 f0	 lea	 eax, DWORD PTR _data$[ebp]
  002c2	50		 push	 eax
  002c3	8d 45 e0	 lea	 eax, DWORD PTR $T7[ebp]
  002c6	50		 push	 eax
  002c7	e8 00 00 00 00	 call	 ?GetStringData@CDataConversion@@SA?AV?$CStringT@DV?$StrTraitMFC_DLL@DV?$ChTraitsCRT@D@ATL@@@@@ATL@@AAV23@ABV23@_N@Z ; CDataConversion::GetStringData
  002cc	ff 30		 push	 DWORD PTR [eax]
  002ce	ff d6		 call	 esi
  002d0	83 c4 14	 add	 esp, 20			; 00000014H
  002d3	89 45 dc	 mov	 DWORD PTR _nUpSpace$1$[ebp], eax
  002d6	8d 4d e0	 lea	 ecx, DWORD PTR $T7[ebp]
  002d9	ff 15 00 00 00
	00		 call	 DWORD PTR __imp_??1?$CStringT@DV?$StrTraitMFC_DLL@DV?$ChTraitsCRT@D@ATL@@@@@ATL@@QAE@XZ
  002df	8d 4d e8	 lea	 ecx, DWORD PTR $T20[ebp]
  002e2	c6 45 fc 05	 mov	 BYTE PTR __$EHRec$[ebp+8], 5
  002e6	ff 15 00 00 00
	00		 call	 DWORD PTR __imp_??1?$CStringT@DV?$StrTraitMFC_DLL@DV?$ChTraitsCRT@D@ATL@@@@@ATL@@QAE@XZ

; 254  : 	int nDownSpace	= atoi( CDataConversion::GetStringData( data, ";"));	// DownSpace

  002ec	68 00 00 00 00	 push	 OFFSET ??_C@_01ICJEACDI@?$DL@
  002f1	8d 4d e8	 lea	 ecx, DWORD PTR $T19[ebp]
  002f4	ff 15 00 00 00
	00		 call	 DWORD PTR __imp_??0?$CStringT@DV?$StrTraitMFC_DLL@DV?$ChTraitsCRT@D@ATL@@@@@ATL@@QAE@PBD@Z
  002fa	6a 01		 push	 1
  002fc	8d 45 e8	 lea	 eax, DWORD PTR $T19[ebp]
  002ff	c6 45 fc 0e	 mov	 BYTE PTR __$EHRec$[ebp+8], 14 ; 0000000eH
  00303	50		 push	 eax
  00304	8d 45 f0	 lea	 eax, DWORD PTR _data$[ebp]
  00307	50		 push	 eax
  00308	8d 45 e0	 lea	 eax, DWORD PTR $T6[ebp]
  0030b	50		 push	 eax
  0030c	e8 00 00 00 00	 call	 ?GetStringData@CDataConversion@@SA?AV?$CStringT@DV?$StrTraitMFC_DLL@DV?$ChTraitsCRT@D@ATL@@@@@ATL@@AAV23@ABV23@_N@Z ; CDataConversion::GetStringData
  00311	ff 30		 push	 DWORD PTR [eax]
  00313	ff d6		 call	 esi
  00315	83 c4 14	 add	 esp, 20			; 00000014H
  00318	8d 4d e0	 lea	 ecx, DWORD PTR $T6[ebp]
  0031b	8b d8		 mov	 ebx, eax
  0031d	ff 15 00 00 00
	00		 call	 DWORD PTR __imp_??1?$CStringT@DV?$StrTraitMFC_DLL@DV?$ChTraitsCRT@D@ATL@@@@@ATL@@QAE@XZ
  00323	c6 45 fc 05	 mov	 BYTE PTR __$EHRec$[ebp+8], 5
  00327	8d 4d e8	 lea	 ecx, DWORD PTR $T19[ebp]
  0032a	ff 15 00 00 00
	00		 call	 DWORD PTR __imp_??1?$CStringT@DV?$StrTraitMFC_DLL@DV?$ChTraitsCRT@D@ATL@@@@@ATL@@QAE@XZ

; 255  : 
; 256  : 	//2007.01.22 Scale ,
; 257  : 	double dHogaNumber	= atof( CDataConversion::GetStringData( data, ";"));

  00330	68 00 00 00 00	 push	 OFFSET ??_C@_01ICJEACDI@?$DL@
  00335	8d 4d e8	 lea	 ecx, DWORD PTR $T18[ebp]
  00338	ff 15 00 00 00
	00		 call	 DWORD PTR __imp_??0?$CStringT@DV?$StrTraitMFC_DLL@DV?$ChTraitsCRT@D@ATL@@@@@ATL@@QAE@PBD@Z
  0033e	6a 01		 push	 1
  00340	8d 45 e8	 lea	 eax, DWORD PTR $T18[ebp]
  00343	c6 45 fc 0f	 mov	 BYTE PTR __$EHRec$[ebp+8], 15 ; 0000000fH
  00347	50		 push	 eax
  00348	8d 45 f0	 lea	 eax, DWORD PTR _data$[ebp]
  0034b	50		 push	 eax
  0034c	8d 45 e0	 lea	 eax, DWORD PTR $T5[ebp]
  0034f	50		 push	 eax
  00350	e8 00 00 00 00	 call	 ?GetStringData@CDataConversion@@SA?AV?$CStringT@DV?$StrTraitMFC_DLL@DV?$ChTraitsCRT@D@ATL@@@@@ATL@@AAV23@ABV23@_N@Z ; CDataConversion::GetStringData
  00355	ff 30		 push	 DWORD PTR [eax]
  00357	ff 15 00 00 00
	00		 call	 DWORD PTR __imp__atof
  0035d	83 c4 14	 add	 esp, 20			; 00000014H
  00360	8d 4d e0	 lea	 ecx, DWORD PTR $T5[ebp]
  00363	dd 5d b4	 fstp	 QWORD PTR _dHogaNumber$[ebp]
  00366	ff 15 00 00 00
	00		 call	 DWORD PTR __imp_??1?$CStringT@DV?$StrTraitMFC_DLL@DV?$ChTraitsCRT@D@ATL@@@@@ATL@@QAE@XZ
  0036c	8d 4d e8	 lea	 ecx, DWORD PTR $T18[ebp]
  0036f	c6 45 fc 05	 mov	 BYTE PTR __$EHRec$[ebp+8], 5
  00373	ff 15 00 00 00
	00		 call	 DWORD PTR __imp_??1?$CStringT@DV?$StrTraitMFC_DLL@DV?$ChTraitsCRT@D@ATL@@@@@ATL@@QAE@XZ

; 258  : 	double dUserNumber	= atof( CDataConversion::GetStringData( data, ";"));

  00379	68 00 00 00 00	 push	 OFFSET ??_C@_01ICJEACDI@?$DL@
  0037e	8d 4d e8	 lea	 ecx, DWORD PTR $T17[ebp]
  00381	ff 15 00 00 00
	00		 call	 DWORD PTR __imp_??0?$CStringT@DV?$StrTraitMFC_DLL@DV?$ChTraitsCRT@D@ATL@@@@@ATL@@QAE@PBD@Z
  00387	6a 01		 push	 1
  00389	8d 45 e8	 lea	 eax, DWORD PTR $T17[ebp]
  0038c	c6 45 fc 10	 mov	 BYTE PTR __$EHRec$[ebp+8], 16 ; 00000010H
  00390	50		 push	 eax
  00391	8d 45 f0	 lea	 eax, DWORD PTR _data$[ebp]
  00394	50		 push	 eax
  00395	8d 45 e0	 lea	 eax, DWORD PTR $T4[ebp]
  00398	50		 push	 eax
  00399	e8 00 00 00 00	 call	 ?GetStringData@CDataConversion@@SA?AV?$CStringT@DV?$StrTraitMFC_DLL@DV?$ChTraitsCRT@D@ATL@@@@@ATL@@AAV23@ABV23@_N@Z ; CDataConversion::GetStringData
  0039e	ff 30		 push	 DWORD PTR [eax]
  003a0	ff 15 00 00 00
	00		 call	 DWORD PTR __imp__atof
  003a6	83 c4 14	 add	 esp, 20			; 00000014H
  003a9	8d 4d e0	 lea	 ecx, DWORD PTR $T4[ebp]
  003ac	dd 5d bc	 fstp	 QWORD PTR _dUserNumber$[ebp]
  003af	ff 15 00 00 00
	00		 call	 DWORD PTR __imp_??1?$CStringT@DV?$StrTraitMFC_DLL@DV?$ChTraitsCRT@D@ATL@@@@@ATL@@QAE@XZ
  003b5	8d 4d e8	 lea	 ecx, DWORD PTR $T17[ebp]
  003b8	c6 45 fc 05	 mov	 BYTE PTR __$EHRec$[ebp+8], 5
  003bc	ff 15 00 00 00
	00		 call	 DWORD PTR __imp_??1?$CStringT@DV?$StrTraitMFC_DLL@DV?$ChTraitsCRT@D@ATL@@@@@ATL@@QAE@XZ

; 259  : 	int nUserHogaType	= atoi( CDataConversion::GetStringData( data, ";"));

  003c2	68 00 00 00 00	 push	 OFFSET ??_C@_01ICJEACDI@?$DL@
  003c7	8d 4d e8	 lea	 ecx, DWORD PTR $T16[ebp]
  003ca	ff 15 00 00 00
	00		 call	 DWORD PTR __imp_??0?$CStringT@DV?$StrTraitMFC_DLL@DV?$ChTraitsCRT@D@ATL@@@@@ATL@@QAE@PBD@Z
  003d0	6a 01		 push	 1
  003d2	8d 45 e8	 lea	 eax, DWORD PTR $T16[ebp]
  003d5	c6 45 fc 11	 mov	 BYTE PTR __$EHRec$[ebp+8], 17 ; 00000011H
  003d9	50		 push	 eax
  003da	8d 45 f0	 lea	 eax, DWORD PTR _data$[ebp]
  003dd	50		 push	 eax
  003de	8d 45 e0	 lea	 eax, DWORD PTR $T3[ebp]
  003e1	50		 push	 eax
  003e2	e8 00 00 00 00	 call	 ?GetStringData@CDataConversion@@SA?AV?$CStringT@DV?$StrTraitMFC_DLL@DV?$ChTraitsCRT@D@ATL@@@@@ATL@@AAV23@ABV23@_N@Z ; CDataConversion::GetStringData
  003e7	ff 30		 push	 DWORD PTR [eax]
  003e9	ff d6		 call	 esi
  003eb	83 c4 14	 add	 esp, 20			; 00000014H
  003ee	8d 4d e0	 lea	 ecx, DWORD PTR $T3[ebp]
  003f1	8b f8		 mov	 edi, eax
  003f3	ff 15 00 00 00
	00		 call	 DWORD PTR __imp_??1?$CStringT@DV?$StrTraitMFC_DLL@DV?$ChTraitsCRT@D@ATL@@@@@ATL@@QAE@XZ
  003f9	8d 4d e8	 lea	 ecx, DWORD PTR $T16[ebp]
  003fc	c6 45 fc 05	 mov	 BYTE PTR __$EHRec$[ebp+8], 5
  00400	ff 15 00 00 00
	00		 call	 DWORD PTR __imp_??1?$CStringT@DV?$StrTraitMFC_DLL@DV?$ChTraitsCRT@D@ATL@@@@@ATL@@QAE@XZ

; 260  : 
; 261  : 	//   - ojtaso (20071023)
; 262  : 	BOOL	bIsInvert	= atoi( CDataConversion::GetStringData( data, ";"));	// Invert

  00406	68 00 00 00 00	 push	 OFFSET ??_C@_01ICJEACDI@?$DL@
  0040b	8d 4d e8	 lea	 ecx, DWORD PTR $T15[ebp]
  0040e	ff 15 00 00 00
	00		 call	 DWORD PTR __imp_??0?$CStringT@DV?$StrTraitMFC_DLL@DV?$ChTraitsCRT@D@ATL@@@@@ATL@@QAE@PBD@Z
  00414	6a 01		 push	 1
  00416	8d 45 e8	 lea	 eax, DWORD PTR $T15[ebp]
  00419	c6 45 fc 12	 mov	 BYTE PTR __$EHRec$[ebp+8], 18 ; 00000012H
  0041d	50		 push	 eax
  0041e	8d 45 f0	 lea	 eax, DWORD PTR _data$[ebp]
  00421	50		 push	 eax
  00422	8d 45 e0	 lea	 eax, DWORD PTR $T2[ebp]
  00425	50		 push	 eax
  00426	e8 00 00 00 00	 call	 ?GetStringData@CDataConversion@@SA?AV?$CStringT@DV?$StrTraitMFC_DLL@DV?$ChTraitsCRT@D@ATL@@@@@ATL@@AAV23@ABV23@_N@Z ; CDataConversion::GetStringData
  0042b	ff 30		 push	 DWORD PTR [eax]
  0042d	ff d6		 call	 esi
  0042f	83 c4 14	 add	 esp, 20			; 00000014H
  00432	8d 4d e0	 lea	 ecx, DWORD PTR $T2[ebp]
  00435	8b f0		 mov	 esi, eax
  00437	ff 15 00 00 00
	00		 call	 DWORD PTR __imp_??1?$CStringT@DV?$StrTraitMFC_DLL@DV?$ChTraitsCRT@D@ATL@@@@@ATL@@QAE@XZ
  0043d	8d 4d e8	 lea	 ecx, DWORD PTR $T15[ebp]
  00440	c6 45 fc 05	 mov	 BYTE PTR __$EHRec$[ebp+8], 5
  00444	ff 15 00 00 00
	00		 call	 DWORD PTR __imp_??1?$CStringT@DV?$StrTraitMFC_DLL@DV?$ChTraitsCRT@D@ATL@@@@@ATL@@QAE@XZ

; 263  : 
; 264  : 	//   - ojtaso (20071023)
; 265  : 	return m_pTreeChart->AddVerticalScaleItem( strScaleData, nScalePos, nScaleCompart, nScaleExpessionType, bMinMaxLock, nMinMaxType, dMin, dMax, nUpSpace, nDownSpace, dHogaNumber, dUserNumber, nUserHogaType, bIsInvert);

  0044a	f2 0f 10 45 bc	 movsd	 xmm0, QWORD PTR _dUserNumber$[ebp]
  0044f	8d 45 e4	 lea	 eax, DWORD PTR _strScaleData$[ebp]
  00452	56		 push	 esi
  00453	57		 push	 edi
  00454	83 ec 10	 sub	 esp, 16			; 00000010H
  00457	8b 4d c4	 mov	 ecx, DWORD PTR _this$1$[ebp]
  0045a	f2 0f 11 44 24
	08		 movsd	 QWORD PTR [esp+8], xmm0
  00460	f2 0f 10 45 b4	 movsd	 xmm0, QWORD PTR _dHogaNumber$[ebp]
  00465	f2 0f 11 04 24	 movsd	 QWORD PTR [esp], xmm0
  0046a	f2 0f 10 45 ac	 movsd	 xmm0, QWORD PTR _dMax$[ebp]
  0046f	53		 push	 ebx
  00470	ff 75 dc	 push	 DWORD PTR _nUpSpace$1$[ebp]
  00473	8b 49 0c	 mov	 ecx, DWORD PTR [ecx+12]
  00476	83 ec 10	 sub	 esp, 16			; 00000010H
  00479	f2 0f 11 44 24
	08		 movsd	 QWORD PTR [esp+8], xmm0
  0047f	f2 0f 10 45 a4	 movsd	 xmm0, QWORD PTR _dMin$[ebp]
  00484	f2 0f 11 04 24	 movsd	 QWORD PTR [esp], xmm0
  00489	ff 75 d8	 push	 DWORD PTR _nMinMaxType$1$[ebp]
  0048c	ff 75 d4	 push	 DWORD PTR _bMinMaxLock$1$[ebp]
  0048f	ff 75 d0	 push	 DWORD PTR _nScaleExpessionType$1$[ebp]
  00492	ff 75 cc	 push	 DWORD PTR _nScaleCompart$1$[ebp]
  00495	ff 75 c8	 push	 DWORD PTR _nScalePos$1$[ebp]
  00498	50		 push	 eax
  00499	e8 00 00 00 00	 call	 ?AddVerticalScaleItem@CMyTreeCtrl@@QAEPAVCChartLink@@ABV?$CStringT@DV?$StrTraitMFC_DLL@DV?$ChTraitsCRT@D@ATL@@@@@ATL@@HHHHHNNHHNNHH@Z ; CMyTreeCtrl::AddVerticalScaleItem
  0049e	8d 4d e4	 lea	 ecx, DWORD PTR _strScaleData$[ebp]
  004a1	8b f0		 mov	 esi, eax
  004a3	ff 15 00 00 00
	00		 call	 DWORD PTR __imp_??1?$CStringT@DV?$StrTraitMFC_DLL@DV?$ChTraitsCRT@D@ATL@@@@@ATL@@QAE@XZ
  004a9	8d 4d f0	 lea	 ecx, DWORD PTR _data$[ebp]
  004ac	ff 15 00 00 00
	00		 call	 DWORD PTR __imp_??1?$CStringT@DV?$StrTraitMFC_DLL@DV?$ChTraitsCRT@D@ATL@@@@@ATL@@QAE@XZ
  004b2	8d 4d 0c	 lea	 ecx, DWORD PTR _strData$[ebp]
  004b5	ff 15 00 00 00
	00		 call	 DWORD PTR __imp_??1?$CStringT@DV?$StrTraitMFC_DLL@DV?$ChTraitsCRT@D@ATL@@@@@ATL@@QAE@XZ
  004bb	8b c6		 mov	 eax, esi

; 266  : }

  004bd	8b 4d f4	 mov	 ecx, DWORD PTR __$EHRec$[ebp]
  004c0	64 89 0d 00 00
	00 00		 mov	 DWORD PTR fs:0, ecx
  004c7	59		 pop	 ecx
  004c8	5f		 pop	 edi
  004c9	5e		 pop	 esi
  004ca	5b		 pop	 ebx
  004cb	8b e5		 mov	 esp, ebp
  004cd	5d		 pop	 ebp
  004ce	c2 08 00	 ret	 8
_TEXT	ENDS
;	COMDAT text$x
text$x	SEGMENT
__unwindfunclet$?SetVerticalScaleItem@CDataOfChartListPage@@AAEPAVCChartLink@@HV?$CStringT@DV?$StrTraitMFC_DLL@DV?$ChTraitsCRT@D@ATL@@@@@ATL@@@Z$0:
  00000	8d 4d 0c	 lea	 ecx, DWORD PTR _strData$[ebp]
  00003	ff 25 00 00 00
	00		 jmp	 DWORD PTR __imp_??1?$CStringT@DV?$StrTraitMFC_DLL@DV?$ChTraitsCRT@D@ATL@@@@@ATL@@QAE@XZ
__unwindfunclet$?SetVerticalScaleItem@CDataOfChartListPage@@AAEPAVCChartLink@@HV?$CStringT@DV?$StrTraitMFC_DLL@DV?$ChTraitsCRT@D@ATL@@@@@ATL@@@Z$1:
  00009	8d 4d f0	 lea	 ecx, DWORD PTR _data$[ebp]
  0000c	ff 25 00 00 00
	00		 jmp	 DWORD PTR __imp_??1?$CStringT@DV?$StrTraitMFC_DLL@DV?$ChTraitsCRT@D@ATL@@@@@ATL@@QAE@XZ
__unwindfunclet$?SetVerticalScaleItem@CDataOfChartListPage@@AAEPAVCChartLink@@HV?$CStringT@DV?$StrTraitMFC_DLL@DV?$ChTraitsCRT@D@ATL@@@@@ATL@@@Z$2:
  00012	8d 4d ec	 lea	 ecx, DWORD PTR $T30[ebp]
  00015	ff 25 00 00 00
	00		 jmp	 DWORD PTR __imp_??1?$CStringT@DV?$StrTraitMFC_DLL@DV?$ChTraitsCRT@D@ATL@@@@@ATL@@QAE@XZ
__unwindfunclet$?SetVerticalScaleItem@CDataOfChartListPage@@AAEPAVCChartLink@@HV?$CStringT@DV?$StrTraitMFC_DLL@DV?$ChTraitsCRT@D@ATL@@@@@ATL@@@Z$4:
  0001b	8d 4d ec	 lea	 ecx, DWORD PTR $T29[ebp]
  0001e	ff 25 00 00 00
	00		 jmp	 DWORD PTR __imp_??1?$CStringT@DV?$StrTraitMFC_DLL@DV?$ChTraitsCRT@D@ATL@@@@@ATL@@QAE@XZ
__unwindfunclet$?SetVerticalScaleItem@CDataOfChartListPage@@AAEPAVCChartLink@@HV?$CStringT@DV?$StrTraitMFC_DLL@DV?$ChTraitsCRT@D@ATL@@@@@ATL@@@Z$5:
  00024	8d 4d e4	 lea	 ecx, DWORD PTR _strScaleData$[ebp]
  00027	ff 25 00 00 00
	00		 jmp	 DWORD PTR __imp_??1?$CStringT@DV?$StrTraitMFC_DLL@DV?$ChTraitsCRT@D@ATL@@@@@ATL@@QAE@XZ
__unwindfunclet$?SetVerticalScaleItem@CDataOfChartListPage@@AAEPAVCChartLink@@HV?$CStringT@DV?$StrTraitMFC_DLL@DV?$ChTraitsCRT@D@ATL@@@@@ATL@@@Z$6:
  0002d	8d 4d e8	 lea	 ecx, DWORD PTR $T27[ebp]
  00030	ff 25 00 00 00
	00		 jmp	 DWORD PTR __imp_??1?$CStringT@DV?$StrTraitMFC_DLL@DV?$ChTraitsCRT@D@ATL@@@@@ATL@@QAE@XZ
__unwindfunclet$?SetVerticalScaleItem@CDataOfChartListPage@@AAEPAVCChartLink@@HV?$CStringT@DV?$StrTraitMFC_DLL@DV?$ChTraitsCRT@D@ATL@@@@@ATL@@@Z$8:
  00036	8d 4d e8	 lea	 ecx, DWORD PTR $T26[ebp]
  00039	ff 25 00 00 00
	00		 jmp	 DWORD PTR __imp_??1?$CStringT@DV?$StrTraitMFC_DLL@DV?$ChTraitsCRT@D@ATL@@@@@ATL@@QAE@XZ
__unwindfunclet$?SetVerticalScaleItem@CDataOfChartListPage@@AAEPAVCChartLink@@HV?$CStringT@DV?$StrTraitMFC_DLL@DV?$ChTraitsCRT@D@ATL@@@@@ATL@@@Z$10:
  0003f	8d 4d e8	 lea	 ecx, DWORD PTR $T25[ebp]
  00042	ff 25 00 00 00
	00		 jmp	 DWORD PTR __imp_??1?$CStringT@DV?$StrTraitMFC_DLL@DV?$ChTraitsCRT@D@ATL@@@@@ATL@@QAE@XZ
__unwindfunclet$?SetVerticalScaleItem@CDataOfChartListPage@@AAEPAVCChartLink@@HV?$CStringT@DV?$StrTraitMFC_DLL@DV?$ChTraitsCRT@D@ATL@@@@@ATL@@@Z$12:
  00048	8d 4d e8	 lea	 ecx, DWORD PTR $T24[ebp]
  0004b	ff 25 00 00 00
	00		 jmp	 DWORD PTR __imp_??1?$CStringT@DV?$StrTraitMFC_DLL@DV?$ChTraitsCRT@D@ATL@@@@@ATL@@QAE@XZ
__unwindfunclet$?SetVerticalScaleItem@CDataOfChartListPage@@AAEPAVCChartLink@@HV?$CStringT@DV?$StrTraitMFC_DLL@DV?$ChTraitsCRT@D@ATL@@@@@ATL@@@Z$14:
  00051	8d 4d e8	 lea	 ecx, DWORD PTR $T23[ebp]
  00054	ff 25 00 00 00
	00		 jmp	 DWORD PTR __imp_??1?$CStringT@DV?$StrTraitMFC_DLL@DV?$ChTraitsCRT@D@ATL@@@@@ATL@@QAE@XZ
__unwindfunclet$?SetVerticalScaleItem@CDataOfChartListPage@@AAEPAVCChartLink@@HV?$CStringT@DV?$StrTraitMFC_DLL@DV?$ChTraitsCRT@D@ATL@@@@@ATL@@@Z$16:
  0005a	8d 4d e8	 lea	 ecx, DWORD PTR $T22[ebp]
  0005d	ff 25 00 00 00
	00		 jmp	 DWORD PTR __imp_??1?$CStringT@DV?$StrTraitMFC_DLL@DV?$ChTraitsCRT@D@ATL@@@@@ATL@@QAE@XZ
__unwindfunclet$?SetVerticalScaleItem@CDataOfChartListPage@@AAEPAVCChartLink@@HV?$CStringT@DV?$StrTraitMFC_DLL@DV?$ChTraitsCRT@D@ATL@@@@@ATL@@@Z$18:
  00063	8d 4d e8	 lea	 ecx, DWORD PTR $T21[ebp]
  00066	ff 25 00 00 00
	00		 jmp	 DWORD PTR __imp_??1?$CStringT@DV?$StrTraitMFC_DLL@DV?$ChTraitsCRT@D@ATL@@@@@ATL@@QAE@XZ
__unwindfunclet$?SetVerticalScaleItem@CDataOfChartListPage@@AAEPAVCChartLink@@HV?$CStringT@DV?$StrTraitMFC_DLL@DV?$ChTraitsCRT@D@ATL@@@@@ATL@@@Z$20:
  0006c	8d 4d e8	 lea	 ecx, DWORD PTR $T20[ebp]
  0006f	ff 25 00 00 00
	00		 jmp	 DWORD PTR __imp_??1?$CStringT@DV?$StrTraitMFC_DLL@DV?$ChTraitsCRT@D@ATL@@@@@ATL@@QAE@XZ
__unwindfunclet$?SetVerticalScaleItem@CDataOfChartListPage@@AAEPAVCChartLink@@HV?$CStringT@DV?$StrTraitMFC_DLL@DV?$ChTraitsCRT@D@ATL@@@@@ATL@@@Z$22:
  00075	8d 4d e8	 lea	 ecx, DWORD PTR $T19[ebp]
  00078	ff 25 00 00 00
	00		 jmp	 DWORD PTR __imp_??1?$CStringT@DV?$StrTraitMFC_DLL@DV?$ChTraitsCRT@D@ATL@@@@@ATL@@QAE@XZ
__unwindfunclet$?SetVerticalScaleItem@CDataOfChartListPage@@AAEPAVCChartLink@@HV?$CStringT@DV?$StrTraitMFC_DLL@DV?$ChTraitsCRT@D@ATL@@@@@ATL@@@Z$24:
  0007e	8d 4d e8	 lea	 ecx, DWORD PTR $T18[ebp]
  00081	ff 25 00 00 00
	00		 jmp	 DWORD PTR __imp_??1?$CStringT@DV?$StrTraitMFC_DLL@DV?$ChTraitsCRT@D@ATL@@@@@ATL@@QAE@XZ
__unwindfunclet$?SetVerticalScaleItem@CDataOfChartListPage@@AAEPAVCChartLink@@HV?$CStringT@DV?$StrTraitMFC_DLL@DV?$ChTraitsCRT@D@ATL@@@@@ATL@@@Z$26:
  00087	8d 4d e8	 lea	 ecx, DWORD PTR $T17[ebp]
  0008a	ff 25 00 00 00
	00		 jmp	 DWORD PTR __imp_??1?$CStringT@DV?$StrTraitMFC_DLL@DV?$ChTraitsCRT@D@ATL@@@@@ATL@@QAE@XZ
__unwindfunclet$?SetVerticalScaleItem@CDataOfChartListPage@@AAEPAVCChartLink@@HV?$CStringT@DV?$StrTraitMFC_DLL@DV?$ChTraitsCRT@D@ATL@@@@@ATL@@@Z$28:
  00090	8d 4d e8	 lea	 ecx, DWORD PTR $T16[ebp]
  00093	ff 25 00 00 00
	00		 jmp	 DWORD PTR __imp_??1?$CStringT@DV?$StrTraitMFC_DLL@DV?$ChTraitsCRT@D@ATL@@@@@ATL@@QAE@XZ
__unwindfunclet$?SetVerticalScaleItem@CDataOfChartListPage@@AAEPAVCChartLink@@HV?$CStringT@DV?$StrTraitMFC_DLL@DV?$ChTraitsCRT@D@ATL@@@@@ATL@@@Z$30:
  00099	8d 4d e8	 lea	 ecx, DWORD PTR $T15[ebp]
  0009c	ff 25 00 00 00
	00		 jmp	 DWORD PTR __imp_??1?$CStringT@DV?$StrTraitMFC_DLL@DV?$ChTraitsCRT@D@ATL@@@@@ATL@@QAE@XZ
  000a2	cc		 int	 3
  000a3	cc		 int	 3
  000a4	cc		 int	 3
  000a5	cc		 int	 3
  000a6	cc		 int	 3
__ehhandler$?SetVerticalScaleItem@CDataOfChartListPage@@AAEPAVCChartLink@@HV?$CStringT@DV?$StrTraitMFC_DLL@DV?$ChTraitsCRT@D@ATL@@@@@ATL@@@Z:
  000a7	90		 npad	 1
  000a8	90		 npad	 1
  000a9	8b 54 24 08	 mov	 edx, DWORD PTR [esp+8]
  000ad	8d 42 0c	 lea	 eax, DWORD PTR [edx+12]
  000b0	8b 4a a0	 mov	 ecx, DWORD PTR [edx-96]
  000b3	33 c8		 xor	 ecx, eax
  000b5	e8 00 00 00 00	 call	 @__security_check_cookie@4
  000ba	b8 00 00 00 00	 mov	 eax, OFFSET __ehfuncinfo$?SetVerticalScaleItem@CDataOfChartListPage@@AAEPAVCChartLink@@HV?$CStringT@DV?$StrTraitMFC_DLL@DV?$ChTraitsCRT@D@ATL@@@@@ATL@@@Z
  000bf	e9 00 00 00 00	 jmp	 ___CxxFrameHandler3
text$x	ENDS
?SetVerticalScaleItem@CDataOfChartListPage@@AAEPAVCChartLink@@HV?$CStringT@DV?$StrTraitMFC_DLL@DV?$ChTraitsCRT@D@ATL@@@@@ATL@@@Z ENDP ; CDataOfChartListPage::SetVerticalScaleItem
; Function compile flags: /Ogtp
; File D:\git\src\IBK\IBK_DRFN\ProjSrc\SrcChartEx\ChartAddIn\ChartDesignPropertyAddIn\ChartDesignPropertyAddIn\DataOfChartListPage.cpp
; File C:\Program Files (x86)\Microsoft Visual Studio\2019\Community\VC\Tools\MSVC\14.29.30133\atlmfc\include\cstringt.h
; File D:\git\src\IBK\IBK_DRFN\ProjSrc\SrcChartEx\ChartAddIn\ChartDesignPropertyAddIn\ChartDesignPropertyAddIn\DataOfChartListPage.cpp
; File C:\Program Files (x86)\Microsoft Visual Studio\2019\Community\VC\Tools\MSVC\14.29.30133\atlmfc\include\cstringt.h
; File D:\git\src\IBK\IBK_DRFN\ProjSrc\SrcChartEx\ChartAddIn\ChartDesignPropertyAddIn\ChartDesignPropertyAddIn\DataOfChartListPage.cpp
; File C:\Program Files (x86)\Microsoft Visual Studio\2019\Community\VC\Tools\MSVC\14.29.30133\atlmfc\include\atlsimpstr.h
; File C:\Program Files (x86)\Microsoft Visual Studio\2019\Community\VC\Tools\MSVC\14.29.30133\atlmfc\include\cstringt.h
; File D:\git\src\IBK\IBK_DRFN\ProjSrc\SrcChartEx\ChartAddIn\ChartDesignPropertyAddIn\ChartDesignPropertyAddIn\DataOfChartListPage.cpp
; File C:\Program Files (x86)\Microsoft Visual Studio\2019\Community\VC\Tools\MSVC\14.29.30133\atlmfc\include\atlsimpstr.h
; File D:\git\src\IBK\IBK_DRFN\ProjSrc\SrcChartEx\ChartAddIn\ChartDesignPropertyAddIn\ChartDesignPropertyAddIn\DataOfChartListPage.cpp
; File C:\Program Files (x86)\Microsoft Visual Studio\2019\Community\VC\Tools\MSVC\14.29.30133\atlmfc\include\atlsimpstr.h
; File D:\git\src\IBK\IBK_DRFN\ProjSrc\SrcChartEx\ChartAddIn\ChartDesignPropertyAddIn\ChartDesignPropertyAddIn\DataOfChartListPage.cpp
;	COMDAT ?SetItem@CDataOfChartListPage@@AAEXPAVCChartLink@@ABV?$CStringT@DV?$StrTraitMFC_DLL@DV?$ChTraitsCRT@D@ATL@@@@@ATL@@PAUIGraphInfoManager134661@@@Z
_TEXT	SEGMENT
_bLowHighUpDown$ = -76					; size = 1
_bLowNowUpDown$ = -72					; size = 1
_bHighNowUpDown$ = -68					; size = 1
_bSignalUse$ = -64					; size = 1
_bSignalShow$ = -60					; size = 1
$T2 = -56						; size = 4
$T3 = -56						; size = 4
$T4 = -56						; size = 4
$T5 = -56						; size = 4
$T6 = -56						; size = 4
$T7 = -56						; size = 4
_bPreNowContrast$ = -52					; size = 1
$T8 = -52						; size = 4
$T9 = -52						; size = 4
_strPacket$ = -48					; size = 4
_strIndicatorName$ = -44				; size = 4
_strGraphName$ = -40					; size = 4
_strType$ = -36						; size = 4
_strStyleData$10 = -32					; size = 4
$T11 = -32						; size = 4
$T12 = -32						; size = 4
$T13 = -32						; size = 4
$T14 = -32						; size = 4
_subGraphData$ = -28					; size = 4
_strTypeData$15 = -24					; size = 4
$T16 = -24						; size = 4
$T17 = -24						; size = 4
$T18 = -24						; size = 4
$T19 = -24						; size = 4
$T20 = -24						; size = 4
$T21 = -20						; size = 4
$T22 = -20						; size = 4
_graphData$ = -16					; size = 4
__$EHRec$ = -12						; size = 12
_pVertiScale$ = 8					; size = 4
_szType$23 = 12						; size = 2
_strRealData$24 = 12					; size = 4
$T25 = 12						; size = 4
$T26 = 12						; size = 4
$T27 = 12						; size = 4
$T28 = 12						; size = 4
$T29 = 12						; size = 4
$T30 = 12						; size = 4
$T31 = 12						; size = 4
$T32 = 12						; size = 4
$T33 = 12						; size = 4
_data$ = 12						; size = 4
_p_pIGraphInfoManager$ = 16				; size = 4
?SetItem@CDataOfChartListPage@@AAEXPAVCChartLink@@ABV?$CStringT@DV?$StrTraitMFC_DLL@DV?$ChTraitsCRT@D@ATL@@@@@ATL@@PAUIGraphInfoManager134661@@@Z PROC ; CDataOfChartListPage::SetItem, COMDAT
; _this$ = ecx

; 376  : {

  00000	55		 push	 ebp
  00001	8b ec		 mov	 ebp, esp
  00003	6a ff		 push	 -1
  00005	68 00 00 00 00	 push	 __ehhandler$?SetItem@CDataOfChartListPage@@AAEXPAVCChartLink@@ABV?$CStringT@DV?$StrTraitMFC_DLL@DV?$ChTraitsCRT@D@ATL@@@@@ATL@@PAUIGraphInfoManager134661@@@Z
  0000a	64 a1 00 00 00
	00		 mov	 eax, DWORD PTR fs:0
  00010	50		 push	 eax
  00011	83 ec 40	 sub	 esp, 64			; 00000040H
  00014	53		 push	 ebx
  00015	56		 push	 esi
  00016	57		 push	 edi
  00017	a1 00 00 00 00	 mov	 eax, DWORD PTR ___security_cookie
  0001c	33 c5		 xor	 eax, ebp
  0001e	50		 push	 eax
  0001f	8d 45 f4	 lea	 eax, DWORD PTR __$EHRec$[ebp]
  00022	64 a3 00 00 00
	00		 mov	 DWORD PTR fs:0, eax
  00028	8b f9		 mov	 edi, ecx

; 377  : 	CString subGraphData = data;

  0002a	ff 75 0c	 push	 DWORD PTR _data$[ebp]
  0002d	8d 4d e4	 lea	 ecx, DWORD PTR _subGraphData$[ebp]
  00030	ff 15 00 00 00
	00		 call	 DWORD PTR __imp_??0?$CStringT@DV?$StrTraitMFC_DLL@DV?$ChTraitsCRT@D@ATL@@@@@ATL@@QAE@ABV01@@Z

; 378  : 	CString graphData = CDataConversion::GetStringData(subGraphData, "\r\n");

  00036	68 00 00 00 00	 push	 OFFSET ??_C@_02PCIJFNDE@?$AN?6@
  0003b	8d 4d 0c	 lea	 ecx, DWORD PTR $T33[ebp]
  0003e	c7 45 fc 00 00
	00 00		 mov	 DWORD PTR __$EHRec$[ebp+8], 0
  00045	ff 15 00 00 00
	00		 call	 DWORD PTR __imp_??0?$CStringT@DV?$StrTraitMFC_DLL@DV?$ChTraitsCRT@D@ATL@@@@@ATL@@QAE@PBD@Z
  0004b	6a 01		 push	 1
  0004d	8d 45 0c	 lea	 eax, DWORD PTR $T33[ebp]
  00050	c6 45 fc 01	 mov	 BYTE PTR __$EHRec$[ebp+8], 1
  00054	50		 push	 eax
  00055	8d 45 e4	 lea	 eax, DWORD PTR _subGraphData$[ebp]
  00058	50		 push	 eax
  00059	8d 45 f0	 lea	 eax, DWORD PTR _graphData$[ebp]
  0005c	50		 push	 eax
  0005d	e8 00 00 00 00	 call	 ?GetStringData@CDataConversion@@SA?AV?$CStringT@DV?$StrTraitMFC_DLL@DV?$ChTraitsCRT@D@ATL@@@@@ATL@@AAV23@ABV23@_N@Z ; CDataConversion::GetStringData
  00062	83 c4 10	 add	 esp, 16			; 00000010H
  00065	8d 4d 0c	 lea	 ecx, DWORD PTR $T33[ebp]
  00068	c6 45 fc 03	 mov	 BYTE PTR __$EHRec$[ebp+8], 3
  0006c	ff 15 00 00 00
	00		 call	 DWORD PTR __imp_??1?$CStringT@DV?$StrTraitMFC_DLL@DV?$ChTraitsCRT@D@ATL@@@@@ATL@@QAE@XZ

; 379  : 
; 380  : 	//    
; 381  : 	// Graph   !
; 382  : 	// (2006/10/26 - Seung-Won, Bae) Skip GraphType (? Function Index ?)
; 383  : 	CDataConversion::GetStringData(graphData, ";");

  00072	68 00 00 00 00	 push	 OFFSET ??_C@_01ICJEACDI@?$DL@
  00077	8d 4d e0	 lea	 ecx, DWORD PTR $T14[ebp]
  0007a	ff 15 00 00 00
	00		 call	 DWORD PTR __imp_??0?$CStringT@DV?$StrTraitMFC_DLL@DV?$ChTraitsCRT@D@ATL@@@@@ATL@@QAE@PBD@Z
  00080	6a 01		 push	 1
  00082	8d 45 e0	 lea	 eax, DWORD PTR $T14[ebp]
  00085	c6 45 fc 04	 mov	 BYTE PTR __$EHRec$[ebp+8], 4
  00089	50		 push	 eax
  0008a	8d 45 f0	 lea	 eax, DWORD PTR _graphData$[ebp]
  0008d	50		 push	 eax
  0008e	8d 45 e8	 lea	 eax, DWORD PTR $T20[ebp]
  00091	50		 push	 eax
  00092	e8 00 00 00 00	 call	 ?GetStringData@CDataConversion@@SA?AV?$CStringT@DV?$StrTraitMFC_DLL@DV?$ChTraitsCRT@D@ATL@@@@@ATL@@AAV23@ABV23@_N@Z ; CDataConversion::GetStringData
  00097	83 c4 10	 add	 esp, 16			; 00000010H
  0009a	8d 4d e8	 lea	 ecx, DWORD PTR $T20[ebp]
  0009d	ff 15 00 00 00
	00		 call	 DWORD PTR __imp_??1?$CStringT@DV?$StrTraitMFC_DLL@DV?$ChTraitsCRT@D@ATL@@@@@ATL@@QAE@XZ
  000a3	8d 4d e0	 lea	 ecx, DWORD PTR $T14[ebp]
  000a6	c6 45 fc 03	 mov	 BYTE PTR __$EHRec$[ebp+8], 3
  000aa	ff 15 00 00 00
	00		 call	 DWORD PTR __imp_??1?$CStringT@DV?$StrTraitMFC_DLL@DV?$ChTraitsCRT@D@ATL@@@@@ATL@@QAE@XZ

; 384  : 	CString strIndicatorName = CDataConversion::GetStringData(graphData, ";");

  000b0	68 00 00 00 00	 push	 OFFSET ??_C@_01ICJEACDI@?$DL@
  000b5	8d 4d e0	 lea	 ecx, DWORD PTR $T13[ebp]
  000b8	ff 15 00 00 00
	00		 call	 DWORD PTR __imp_??0?$CStringT@DV?$StrTraitMFC_DLL@DV?$ChTraitsCRT@D@ATL@@@@@ATL@@QAE@PBD@Z
  000be	6a 01		 push	 1
  000c0	8d 45 e0	 lea	 eax, DWORD PTR $T13[ebp]
  000c3	c6 45 fc 05	 mov	 BYTE PTR __$EHRec$[ebp+8], 5
  000c7	50		 push	 eax
  000c8	8d 45 f0	 lea	 eax, DWORD PTR _graphData$[ebp]
  000cb	50		 push	 eax
  000cc	8d 45 d4	 lea	 eax, DWORD PTR _strIndicatorName$[ebp]
  000cf	50		 push	 eax
  000d0	e8 00 00 00 00	 call	 ?GetStringData@CDataConversion@@SA?AV?$CStringT@DV?$StrTraitMFC_DLL@DV?$ChTraitsCRT@D@ATL@@@@@ATL@@AAV23@ABV23@_N@Z ; CDataConversion::GetStringData
  000d5	83 c4 10	 add	 esp, 16			; 00000010H
  000d8	8d 4d e0	 lea	 ecx, DWORD PTR $T13[ebp]
  000db	c6 45 fc 07	 mov	 BYTE PTR __$EHRec$[ebp+8], 7
  000df	ff 15 00 00 00
	00		 call	 DWORD PTR __imp_??1?$CStringT@DV?$StrTraitMFC_DLL@DV?$ChTraitsCRT@D@ATL@@@@@ATL@@QAE@XZ

; 385  : 
; 386  : 	// (2006/11/29 - Seung-Won, Bae) Support Graph Name for Binding with Indicator Info.
; 387  : 	CString strGraphName( strIndicatorName);

  000e5	8d 45 d4	 lea	 eax, DWORD PTR _strIndicatorName$[ebp]
  000e8	50		 push	 eax
  000e9	8d 4d d8	 lea	 ecx, DWORD PTR _strGraphName$[ebp]
  000ec	ff 15 00 00 00
	00		 call	 DWORD PTR __imp_??0?$CStringT@DV?$StrTraitMFC_DLL@DV?$ChTraitsCRT@D@ATL@@@@@ATL@@QAE@ABV01@@Z

; 388  : 	if( graphData.Left( 2) == "G:") strGraphName = CDataConversion::GetStringData( graphData, ";").Mid( 2);

  000f2	6a 02		 push	 2
  000f4	8d 45 0c	 lea	 eax, DWORD PTR $T32[ebp]
  000f7	c6 45 fc 08	 mov	 BYTE PTR __$EHRec$[ebp+8], 8
  000fb	50		 push	 eax
  000fc	8d 4d f0	 lea	 ecx, DWORD PTR _graphData$[ebp]
  000ff	ff 15 00 00 00
	00		 call	 DWORD PTR __imp_?Left@?$CStringT@DV?$StrTraitMFC_DLL@DV?$ChTraitsCRT@D@ATL@@@@@ATL@@QBE?AV12@H@Z
; File C:\Program Files (x86)\Microsoft Visual Studio\2019\Community\VC\Tools\MSVC\14.29.30133\atlmfc\include\cstringt.h

; 2486 : 		return(str1.Compare(psz2) == 0);

  00105	68 00 00 00 00	 push	 OFFSET ??_C@_02FAMCGDNB@G?3@
  0010a	8b c8		 mov	 ecx, eax
; File D:\git\src\IBK\IBK_DRFN\ProjSrc\SrcChartEx\ChartAddIn\ChartDesignPropertyAddIn\ChartDesignPropertyAddIn\DataOfChartListPage.cpp

; 388  : 	if( graphData.Left( 2) == "G:") strGraphName = CDataConversion::GetStringData( graphData, ";").Mid( 2);

  0010c	c6 45 fc 09	 mov	 BYTE PTR __$EHRec$[ebp+8], 9
; File C:\Program Files (x86)\Microsoft Visual Studio\2019\Community\VC\Tools\MSVC\14.29.30133\atlmfc\include\cstringt.h

; 2486 : 		return(str1.Compare(psz2) == 0);

  00110	ff 15 00 00 00
	00		 call	 DWORD PTR __imp_?Compare@?$CStringT@DV?$StrTraitMFC_DLL@DV?$ChTraitsCRT@D@ATL@@@@@ATL@@QBEHPBD@Z
  00116	8b f0		 mov	 esi, eax
; File D:\git\src\IBK\IBK_DRFN\ProjSrc\SrcChartEx\ChartAddIn\ChartDesignPropertyAddIn\ChartDesignPropertyAddIn\DataOfChartListPage.cpp

; 388  : 	if( graphData.Left( 2) == "G:") strGraphName = CDataConversion::GetStringData( graphData, ";").Mid( 2);

  00118	c6 45 fc 08	 mov	 BYTE PTR __$EHRec$[ebp+8], 8
  0011c	8d 4d 0c	 lea	 ecx, DWORD PTR $T32[ebp]
  0011f	ff 15 00 00 00
	00		 call	 DWORD PTR __imp_??1?$CStringT@DV?$StrTraitMFC_DLL@DV?$ChTraitsCRT@D@ATL@@@@@ATL@@QAE@XZ
  00125	85 f6		 test	 esi, esi
  00127	75 67		 jne	 SHORT $LN2@SetItem
  00129	68 00 00 00 00	 push	 OFFSET ??_C@_01ICJEACDI@?$DL@
  0012e	8d 4d 0c	 lea	 ecx, DWORD PTR $T31[ebp]
  00131	ff 15 00 00 00
	00		 call	 DWORD PTR __imp_??0?$CStringT@DV?$StrTraitMFC_DLL@DV?$ChTraitsCRT@D@ATL@@@@@ATL@@QAE@PBD@Z
  00137	6a 01		 push	 1
  00139	8d 45 0c	 lea	 eax, DWORD PTR $T31[ebp]
  0013c	c6 45 fc 0a	 mov	 BYTE PTR __$EHRec$[ebp+8], 10 ; 0000000aH
  00140	50		 push	 eax
  00141	8d 45 f0	 lea	 eax, DWORD PTR _graphData$[ebp]
  00144	50		 push	 eax
  00145	8d 45 e8	 lea	 eax, DWORD PTR $T19[ebp]
  00148	50		 push	 eax
  00149	e8 00 00 00 00	 call	 ?GetStringData@CDataConversion@@SA?AV?$CStringT@DV?$StrTraitMFC_DLL@DV?$ChTraitsCRT@D@ATL@@@@@ATL@@AAV23@ABV23@_N@Z ; CDataConversion::GetStringData
  0014e	83 c4 10	 add	 esp, 16			; 00000010H
  00151	6a 02		 push	 2
  00153	8d 4d e0	 lea	 ecx, DWORD PTR $T12[ebp]
  00156	c6 45 fc 0b	 mov	 BYTE PTR __$EHRec$[ebp+8], 11 ; 0000000bH
  0015a	51		 push	 ecx
  0015b	8b c8		 mov	 ecx, eax
  0015d	ff 15 00 00 00
	00		 call	 DWORD PTR __imp_?Mid@?$CStringT@DV?$StrTraitMFC_DLL@DV?$ChTraitsCRT@D@ATL@@@@@ATL@@QBE?AV12@H@Z
  00163	50		 push	 eax
  00164	8d 4d d8	 lea	 ecx, DWORD PTR _strGraphName$[ebp]
  00167	c6 45 fc 0c	 mov	 BYTE PTR __$EHRec$[ebp+8], 12 ; 0000000cH
  0016b	ff 15 00 00 00
	00		 call	 DWORD PTR __imp_??4?$CStringT@DV?$StrTraitMFC_DLL@DV?$ChTraitsCRT@D@ATL@@@@@ATL@@QAEAAV01@ABV01@@Z
  00171	8d 4d e0	 lea	 ecx, DWORD PTR $T12[ebp]
  00174	ff 15 00 00 00
	00		 call	 DWORD PTR __imp_??1?$CStringT@DV?$StrTraitMFC_DLL@DV?$ChTraitsCRT@D@ATL@@@@@ATL@@QAE@XZ
  0017a	8d 4d e8	 lea	 ecx, DWORD PTR $T19[ebp]
  0017d	ff 15 00 00 00
	00		 call	 DWORD PTR __imp_??1?$CStringT@DV?$StrTraitMFC_DLL@DV?$ChTraitsCRT@D@ATL@@@@@ATL@@QAE@XZ
  00183	8d 4d 0c	 lea	 ecx, DWORD PTR $T31[ebp]
  00186	c6 45 fc 08	 mov	 BYTE PTR __$EHRec$[ebp+8], 8
  0018a	ff 15 00 00 00
	00		 call	 DWORD PTR __imp_??1?$CStringT@DV?$StrTraitMFC_DLL@DV?$ChTraitsCRT@D@ATL@@@@@ATL@@QAE@XZ
$LN2@SetItem:

; 389  : 
; 390  : 	CString strPacket = CDataConversion::GetStringData(graphData, ";");

  00190	68 00 00 00 00	 push	 OFFSET ??_C@_01ICJEACDI@?$DL@
  00195	8d 4d e0	 lea	 ecx, DWORD PTR $T11[ebp]
  00198	ff 15 00 00 00
	00		 call	 DWORD PTR __imp_??0?$CStringT@DV?$StrTraitMFC_DLL@DV?$ChTraitsCRT@D@ATL@@@@@ATL@@QAE@PBD@Z
  0019e	6a 01		 push	 1
  001a0	8d 45 e0	 lea	 eax, DWORD PTR $T11[ebp]
  001a3	c6 45 fc 0d	 mov	 BYTE PTR __$EHRec$[ebp+8], 13 ; 0000000dH
  001a7	50		 push	 eax
  001a8	8d 45 f0	 lea	 eax, DWORD PTR _graphData$[ebp]
  001ab	50		 push	 eax
  001ac	8d 45 d0	 lea	 eax, DWORD PTR _strPacket$[ebp]
  001af	50		 push	 eax
  001b0	e8 00 00 00 00	 call	 ?GetStringData@CDataConversion@@SA?AV?$CStringT@DV?$StrTraitMFC_DLL@DV?$ChTraitsCRT@D@ATL@@@@@ATL@@AAV23@ABV23@_N@Z ; CDataConversion::GetStringData
  001b5	83 c4 10	 add	 esp, 16			; 00000010H
  001b8	8d 4d e0	 lea	 ecx, DWORD PTR $T11[ebp]
  001bb	c6 45 fc 0f	 mov	 BYTE PTR __$EHRec$[ebp+8], 15 ; 0000000fH
  001bf	ff 15 00 00 00
	00		 call	 DWORD PTR __imp_??1?$CStringT@DV?$StrTraitMFC_DLL@DV?$ChTraitsCRT@D@ATL@@@@@ATL@@QAE@XZ

; 391  : 	bool bLowHighUpDown = false;
; 392  : 	bool bLowNowUpDown = false;
; 393  : 	bool bHighNowUpDown = false;
; 394  : 	bool bPreNowContrast = false;
; 395  : 	int nCurData = 0;
; 396  : 	//sy 2006.04.17.
; 397  : 	bool bSignalUse = false, bSignalShow = false;
; 398  : 	GetSignalData(CDataConversion::GetStringData(graphData, ";"), bSignalUse, bSignalShow);

  001c5	68 00 00 00 00	 push	 OFFSET ??_C@_01ICJEACDI@?$DL@
  001ca	8d 4d ec	 lea	 ecx, DWORD PTR $T22[ebp]
  001cd	ff 15 00 00 00
	00		 call	 DWORD PTR __imp_??0?$CStringT@DV?$StrTraitMFC_DLL@DV?$ChTraitsCRT@D@ATL@@@@@ATL@@QAE@PBD@Z
  001d3	6a 01		 push	 1
  001d5	8d 45 ec	 lea	 eax, DWORD PTR $T22[ebp]
  001d8	c6 45 fc 10	 mov	 BYTE PTR __$EHRec$[ebp+8], 16 ; 00000010H
  001dc	50		 push	 eax
  001dd	8d 45 f0	 lea	 eax, DWORD PTR _graphData$[ebp]
  001e0	50		 push	 eax
  001e1	8d 45 c8	 lea	 eax, DWORD PTR $T7[ebp]
  001e4	50		 push	 eax
  001e5	e8 00 00 00 00	 call	 ?GetStringData@CDataConversion@@SA?AV?$CStringT@DV?$StrTraitMFC_DLL@DV?$ChTraitsCRT@D@ATL@@@@@ATL@@AAV23@ABV23@_N@Z ; CDataConversion::GetStringData
  001ea	83 c4 10	 add	 esp, 16			; 00000010H

; 73   : 	CString strRealData = strData;

  001ed	50		 push	 eax
  001ee	8d 4d 0c	 lea	 ecx, DWORD PTR _strRealData$24[ebp]

; 391  : 	bool bLowHighUpDown = false;
; 392  : 	bool bLowNowUpDown = false;
; 393  : 	bool bHighNowUpDown = false;
; 394  : 	bool bPreNowContrast = false;
; 395  : 	int nCurData = 0;
; 396  : 	//sy 2006.04.17.
; 397  : 	bool bSignalUse = false, bSignalShow = false;
; 398  : 	GetSignalData(CDataConversion::GetStringData(graphData, ";"), bSignalUse, bSignalShow);

  001f1	c6 45 fc 11	 mov	 BYTE PTR __$EHRec$[ebp+8], 17 ; 00000011H

; 73   : 	CString strRealData = strData;

  001f5	ff 15 00 00 00
	00		 call	 DWORD PTR __imp_??0?$CStringT@DV?$StrTraitMFC_DLL@DV?$ChTraitsCRT@D@ATL@@@@@ATL@@QAE@ABV01@@Z

; 74   : 	if(strRealData.Right(1) != ';')

  001fb	6a 01		 push	 1
  001fd	8d 45 e8	 lea	 eax, DWORD PTR $T18[ebp]
  00200	c6 45 fc 12	 mov	 BYTE PTR __$EHRec$[ebp+8], 18 ; 00000012H
  00204	50		 push	 eax
  00205	8d 4d 0c	 lea	 ecx, DWORD PTR _strRealData$24[ebp]
  00208	ff 15 00 00 00
	00		 call	 DWORD PTR __imp_?Right@?$CStringT@DV?$StrTraitMFC_DLL@DV?$ChTraitsCRT@D@ATL@@@@@ATL@@QBE?AV12@H@Z
; File C:\Program Files (x86)\Microsoft Visual Studio\2019\Community\VC\Tools\MSVC\14.29.30133\atlmfc\include\atlsimpstr.h

; 519  : 		return( GetData()->nDataLength );

  0020e	8b 08		 mov	 ecx, DWORD PTR [eax]
; File C:\Program Files (x86)\Microsoft Visual Studio\2019\Community\VC\Tools\MSVC\14.29.30133\atlmfc\include\cstringt.h

; 2699 : 		return((str1.GetLength() != 1) || (str1[0] != ch2));

  00210	83 79 f4 01	 cmp	 DWORD PTR [ecx-12], 1
  00214	75 19		 jne	 SHORT $LN46@SetItem
  00216	6a 00		 push	 0
  00218	8b c8		 mov	 ecx, eax
  0021a	ff 15 00 00 00
	00		 call	 DWORD PTR __imp_??A?$CSimpleStringT@D$00@ATL@@QBEDH@Z
  00220	3c 3b		 cmp	 al, 59			; 0000003bH
  00222	75 0b		 jne	 SHORT $LN46@SetItem
  00224	8d 4d e8	 lea	 ecx, DWORD PTR $T18[ebp]
  00227	ff 15 00 00 00
	00		 call	 DWORD PTR __imp_??1?$CStringT@DV?$StrTraitMFC_DLL@DV?$ChTraitsCRT@D@ATL@@@@@ATL@@QAE@XZ
  0022d	eb 17		 jmp	 SHORT $LN36@SetItem
$LN46@SetItem:
  0022f	8d 4d e8	 lea	 ecx, DWORD PTR $T18[ebp]
  00232	ff 15 00 00 00
	00		 call	 DWORD PTR __imp_??1?$CStringT@DV?$StrTraitMFC_DLL@DV?$ChTraitsCRT@D@ATL@@@@@ATL@@QAE@XZ
; File D:\git\src\IBK\IBK_DRFN\ProjSrc\SrcChartEx\ChartAddIn\ChartDesignPropertyAddIn\ChartDesignPropertyAddIn\DataOfChartListPage.cpp

; 75   : 		strRealData += ";";

  00238	68 00 00 00 00	 push	 OFFSET ??_C@_01ICJEACDI@?$DL@
  0023d	8d 4d 0c	 lea	 ecx, DWORD PTR _strRealData$24[ebp]
  00240	ff 15 00 00 00
	00		 call	 DWORD PTR __imp_??Y?$CStringT@DV?$StrTraitMFC_DLL@DV?$ChTraitsCRT@D@ATL@@@@@ATL@@QAEAAV01@PBD@Z
$LN36@SetItem:

; 76   : 
; 77   : 	// "signal:signal;"
; 78   : 	// signal
; 79   : 	bSignalUse = CDataConversion::atob(CDataConversion::GetStringData(strRealData, ":"));

  00246	68 00 00 00 00	 push	 OFFSET ??_C@_01JLIPDDHJ@?3@
  0024b	8d 4d e8	 lea	 ecx, DWORD PTR $T17[ebp]
  0024e	ff 15 00 00 00
	00		 call	 DWORD PTR __imp_??0?$CStringT@DV?$StrTraitMFC_DLL@DV?$ChTraitsCRT@D@ATL@@@@@ATL@@QAE@PBD@Z
  00254	6a 01		 push	 1
  00256	8d 45 e8	 lea	 eax, DWORD PTR $T17[ebp]
  00259	c6 45 fc 13	 mov	 BYTE PTR __$EHRec$[ebp+8], 19 ; 00000013H
  0025d	50		 push	 eax
  0025e	8d 45 0c	 lea	 eax, DWORD PTR _strRealData$24[ebp]
  00261	50		 push	 eax
  00262	8d 45 cc	 lea	 eax, DWORD PTR $T9[ebp]
  00265	50		 push	 eax
  00266	e8 00 00 00 00	 call	 ?GetStringData@CDataConversion@@SA?AV?$CStringT@DV?$StrTraitMFC_DLL@DV?$ChTraitsCRT@D@ATL@@@@@ATL@@AAV23@ABV23@_N@Z ; CDataConversion::GetStringData
  0026b	ff 30		 push	 DWORD PTR [eax]
  0026d	c6 45 fc 14	 mov	 BYTE PTR __$EHRec$[ebp+8], 20 ; 00000014H
  00271	e8 00 00 00 00	 call	 ?atob@CDataConversion@@SA_NPBD@Z ; CDataConversion::atob
  00276	83 c4 14	 add	 esp, 20			; 00000014H
  00279	88 45 c0	 mov	 BYTE PTR _bSignalUse$[ebp], al
  0027c	8d 4d cc	 lea	 ecx, DWORD PTR $T9[ebp]
  0027f	ff 15 00 00 00
	00		 call	 DWORD PTR __imp_??1?$CStringT@DV?$StrTraitMFC_DLL@DV?$ChTraitsCRT@D@ATL@@@@@ATL@@QAE@XZ
  00285	8d 4d e8	 lea	 ecx, DWORD PTR $T17[ebp]
  00288	c6 45 fc 12	 mov	 BYTE PTR __$EHRec$[ebp+8], 18 ; 00000012H
  0028c	ff 15 00 00 00
	00		 call	 DWORD PTR __imp_??1?$CStringT@DV?$StrTraitMFC_DLL@DV?$ChTraitsCRT@D@ATL@@@@@ATL@@QAE@XZ

; 80   : 	// signal
; 81   : 	bSignalShow = CDataConversion::atob(CDataConversion::GetStringData(strRealData, ';'));

  00292	6a 01		 push	 1
  00294	6a 3b		 push	 59			; 0000003bH
  00296	8d 4d e8	 lea	 ecx, DWORD PTR $T16[ebp]
  00299	ff 15 00 00 00
	00		 call	 DWORD PTR __imp_??0?$CStringT@DV?$StrTraitMFC_DLL@DV?$ChTraitsCRT@D@ATL@@@@@ATL@@QAE@DH@Z
  0029f	6a 01		 push	 1
  002a1	8d 45 e8	 lea	 eax, DWORD PTR $T16[ebp]
  002a4	c6 45 fc 15	 mov	 BYTE PTR __$EHRec$[ebp+8], 21 ; 00000015H
  002a8	50		 push	 eax
  002a9	8d 45 0c	 lea	 eax, DWORD PTR _strRealData$24[ebp]
  002ac	50		 push	 eax
  002ad	8d 45 cc	 lea	 eax, DWORD PTR $T8[ebp]
  002b0	50		 push	 eax
  002b1	e8 00 00 00 00	 call	 ?GetStringData@CDataConversion@@SA?AV?$CStringT@DV?$StrTraitMFC_DLL@DV?$ChTraitsCRT@D@ATL@@@@@ATL@@AAV23@ABV23@_N@Z ; CDataConversion::GetStringData
  002b6	ff 30		 push	 DWORD PTR [eax]
  002b8	c6 45 fc 16	 mov	 BYTE PTR __$EHRec$[ebp+8], 22 ; 00000016H
  002bc	e8 00 00 00 00	 call	 ?atob@CDataConversion@@SA_NPBD@Z ; CDataConversion::atob
  002c1	83 c4 14	 add	 esp, 20			; 00000014H
  002c4	88 45 c4	 mov	 BYTE PTR _bSignalShow$[ebp], al
  002c7	8d 4d cc	 lea	 ecx, DWORD PTR $T8[ebp]
  002ca	ff 15 00 00 00
	00		 call	 DWORD PTR __imp_??1?$CStringT@DV?$StrTraitMFC_DLL@DV?$ChTraitsCRT@D@ATL@@@@@ATL@@QAE@XZ
  002d0	8d 4d e8	 lea	 ecx, DWORD PTR $T16[ebp]
  002d3	ff 15 00 00 00
	00		 call	 DWORD PTR __imp_??1?$CStringT@DV?$StrTraitMFC_DLL@DV?$ChTraitsCRT@D@ATL@@@@@ATL@@QAE@XZ

; 82   : }

  002d9	8d 4d 0c	 lea	 ecx, DWORD PTR _strRealData$24[ebp]
  002dc	ff 15 00 00 00
	00		 call	 DWORD PTR __imp_??1?$CStringT@DV?$StrTraitMFC_DLL@DV?$ChTraitsCRT@D@ATL@@@@@ATL@@QAE@XZ

; 391  : 	bool bLowHighUpDown = false;
; 392  : 	bool bLowNowUpDown = false;
; 393  : 	bool bHighNowUpDown = false;
; 394  : 	bool bPreNowContrast = false;
; 395  : 	int nCurData = 0;
; 396  : 	//sy 2006.04.17.
; 397  : 	bool bSignalUse = false, bSignalShow = false;
; 398  : 	GetSignalData(CDataConversion::GetStringData(graphData, ";"), bSignalUse, bSignalShow);

  002e2	8d 4d c8	 lea	 ecx, DWORD PTR $T7[ebp]
  002e5	ff 15 00 00 00
	00		 call	 DWORD PTR __imp_??1?$CStringT@DV?$StrTraitMFC_DLL@DV?$ChTraitsCRT@D@ATL@@@@@ATL@@QAE@XZ
  002eb	8d 4d ec	 lea	 ecx, DWORD PTR $T22[ebp]
  002ee	c6 45 fc 0f	 mov	 BYTE PTR __$EHRec$[ebp+8], 15 ; 0000000fH
  002f2	ff 15 00 00 00
	00		 call	 DWORD PTR __imp_??1?$CStringT@DV?$StrTraitMFC_DLL@DV?$ChTraitsCRT@D@ATL@@@@@ATL@@QAE@XZ

; 399  : 
; 400  : 	bLowHighUpDown = CDataConversion::atob(CDataConversion::GetStringData(graphData, ";"));

  002f8	68 00 00 00 00	 push	 OFFSET ??_C@_01ICJEACDI@?$DL@
  002fd	8d 4d 0c	 lea	 ecx, DWORD PTR $T30[ebp]
  00300	ff 15 00 00 00
	00		 call	 DWORD PTR __imp_??0?$CStringT@DV?$StrTraitMFC_DLL@DV?$ChTraitsCRT@D@ATL@@@@@ATL@@QAE@PBD@Z
  00306	6a 01		 push	 1
  00308	8d 45 0c	 lea	 eax, DWORD PTR $T30[ebp]
  0030b	c6 45 fc 17	 mov	 BYTE PTR __$EHRec$[ebp+8], 23 ; 00000017H
  0030f	50		 push	 eax
  00310	8d 45 f0	 lea	 eax, DWORD PTR _graphData$[ebp]
  00313	50		 push	 eax
  00314	8d 45 c8	 lea	 eax, DWORD PTR $T6[ebp]
  00317	50		 push	 eax
  00318	e8 00 00 00 00	 call	 ?GetStringData@CDataConversion@@SA?AV?$CStringT@DV?$StrTraitMFC_DLL@DV?$ChTraitsCRT@D@ATL@@@@@ATL@@AAV23@ABV23@_N@Z ; CDataConversion::GetStringData
  0031d	ff 30		 push	 DWORD PTR [eax]
  0031f	c6 45 fc 18	 mov	 BYTE PTR __$EHRec$[ebp+8], 24 ; 00000018H
  00323	e8 00 00 00 00	 call	 ?atob@CDataConversion@@SA_NPBD@Z ; CDataConversion::atob
  00328	83 c4 14	 add	 esp, 20			; 00000014H
  0032b	88 45 b4	 mov	 BYTE PTR _bLowHighUpDown$[ebp], al
  0032e	8d 4d c8	 lea	 ecx, DWORD PTR $T6[ebp]
  00331	ff 15 00 00 00
	00		 call	 DWORD PTR __imp_??1?$CStringT@DV?$StrTraitMFC_DLL@DV?$ChTraitsCRT@D@ATL@@@@@ATL@@QAE@XZ
  00337	8d 4d 0c	 lea	 ecx, DWORD PTR $T30[ebp]
  0033a	c6 45 fc 0f	 mov	 BYTE PTR __$EHRec$[ebp+8], 15 ; 0000000fH
  0033e	ff 15 00 00 00
	00		 call	 DWORD PTR __imp_??1?$CStringT@DV?$StrTraitMFC_DLL@DV?$ChTraitsCRT@D@ATL@@@@@ATL@@QAE@XZ

; 401  : 	bLowNowUpDown = CDataConversion::atob(CDataConversion::GetStringData(graphData, ";"));

  00344	68 00 00 00 00	 push	 OFFSET ??_C@_01ICJEACDI@?$DL@
  00349	8d 4d 0c	 lea	 ecx, DWORD PTR $T29[ebp]
  0034c	ff 15 00 00 00
	00		 call	 DWORD PTR __imp_??0?$CStringT@DV?$StrTraitMFC_DLL@DV?$ChTraitsCRT@D@ATL@@@@@ATL@@QAE@PBD@Z
  00352	6a 01		 push	 1
  00354	8d 45 0c	 lea	 eax, DWORD PTR $T29[ebp]
  00357	c6 45 fc 19	 mov	 BYTE PTR __$EHRec$[ebp+8], 25 ; 00000019H
  0035b	50		 push	 eax
  0035c	8d 45 f0	 lea	 eax, DWORD PTR _graphData$[ebp]
  0035f	50		 push	 eax
  00360	8d 45 c8	 lea	 eax, DWORD PTR $T5[ebp]
  00363	50		 push	 eax
  00364	e8 00 00 00 00	 call	 ?GetStringData@CDataConversion@@SA?AV?$CStringT@DV?$StrTraitMFC_DLL@DV?$ChTraitsCRT@D@ATL@@@@@ATL@@AAV23@ABV23@_N@Z ; CDataConversion::GetStringData
  00369	ff 30		 push	 DWORD PTR [eax]
  0036b	c6 45 fc 1a	 mov	 BYTE PTR __$EHRec$[ebp+8], 26 ; 0000001aH
  0036f	e8 00 00 00 00	 call	 ?atob@CDataConversion@@SA_NPBD@Z ; CDataConversion::atob
  00374	83 c4 14	 add	 esp, 20			; 00000014H
  00377	88 45 b8	 mov	 BYTE PTR _bLowNowUpDown$[ebp], al
  0037a	8d 4d c8	 lea	 ecx, DWORD PTR $T5[ebp]
  0037d	ff 15 00 00 00
	00		 call	 DWORD PTR __imp_??1?$CStringT@DV?$StrTraitMFC_DLL@DV?$ChTraitsCRT@D@ATL@@@@@ATL@@QAE@XZ
  00383	8d 4d 0c	 lea	 ecx, DWORD PTR $T29[ebp]
  00386	c6 45 fc 0f	 mov	 BYTE PTR __$EHRec$[ebp+8], 15 ; 0000000fH
  0038a	ff 15 00 00 00
	00		 call	 DWORD PTR __imp_??1?$CStringT@DV?$StrTraitMFC_DLL@DV?$ChTraitsCRT@D@ATL@@@@@ATL@@QAE@XZ

; 402  : 	bHighNowUpDown = CDataConversion::atob(CDataConversion::GetStringData(graphData, ";"));

  00390	68 00 00 00 00	 push	 OFFSET ??_C@_01ICJEACDI@?$DL@
  00395	8d 4d 0c	 lea	 ecx, DWORD PTR $T28[ebp]
  00398	ff 15 00 00 00
	00		 call	 DWORD PTR __imp_??0?$CStringT@DV?$StrTraitMFC_DLL@DV?$ChTraitsCRT@D@ATL@@@@@ATL@@QAE@PBD@Z
  0039e	6a 01		 push	 1
  003a0	8d 45 0c	 lea	 eax, DWORD PTR $T28[ebp]
  003a3	c6 45 fc 1b	 mov	 BYTE PTR __$EHRec$[ebp+8], 27 ; 0000001bH
  003a7	50		 push	 eax
  003a8	8d 45 f0	 lea	 eax, DWORD PTR _graphData$[ebp]
  003ab	50		 push	 eax
  003ac	8d 45 c8	 lea	 eax, DWORD PTR $T4[ebp]
  003af	50		 push	 eax
  003b0	e8 00 00 00 00	 call	 ?GetStringData@CDataConversion@@SA?AV?$CStringT@DV?$StrTraitMFC_DLL@DV?$ChTraitsCRT@D@ATL@@@@@ATL@@AAV23@ABV23@_N@Z ; CDataConversion::GetStringData
  003b5	ff 30		 push	 DWORD PTR [eax]
  003b7	c6 45 fc 1c	 mov	 BYTE PTR __$EHRec$[ebp+8], 28 ; 0000001cH
  003bb	e8 00 00 00 00	 call	 ?atob@CDataConversion@@SA_NPBD@Z ; CDataConversion::atob
  003c0	83 c4 14	 add	 esp, 20			; 00000014H
  003c3	88 45 bc	 mov	 BYTE PTR _bHighNowUpDown$[ebp], al
  003c6	8d 4d c8	 lea	 ecx, DWORD PTR $T4[ebp]
  003c9	ff 15 00 00 00
	00		 call	 DWORD PTR __imp_??1?$CStringT@DV?$StrTraitMFC_DLL@DV?$ChTraitsCRT@D@ATL@@@@@ATL@@QAE@XZ
  003cf	8d 4d 0c	 lea	 ecx, DWORD PTR $T28[ebp]
  003d2	c6 45 fc 0f	 mov	 BYTE PTR __$EHRec$[ebp+8], 15 ; 0000000fH
  003d6	ff 15 00 00 00
	00		 call	 DWORD PTR __imp_??1?$CStringT@DV?$StrTraitMFC_DLL@DV?$ChTraitsCRT@D@ATL@@@@@ATL@@QAE@XZ

; 403  : 	bPreNowContrast = CDataConversion::atob(CDataConversion::GetStringData(graphData, ";"));

  003dc	68 00 00 00 00	 push	 OFFSET ??_C@_01ICJEACDI@?$DL@
  003e1	8d 4d 0c	 lea	 ecx, DWORD PTR $T27[ebp]
  003e4	ff 15 00 00 00
	00		 call	 DWORD PTR __imp_??0?$CStringT@DV?$StrTraitMFC_DLL@DV?$ChTraitsCRT@D@ATL@@@@@ATL@@QAE@PBD@Z
  003ea	6a 01		 push	 1
  003ec	8d 45 0c	 lea	 eax, DWORD PTR $T27[ebp]
  003ef	c6 45 fc 1d	 mov	 BYTE PTR __$EHRec$[ebp+8], 29 ; 0000001dH
  003f3	50		 push	 eax
  003f4	8d 45 f0	 lea	 eax, DWORD PTR _graphData$[ebp]
  003f7	50		 push	 eax
  003f8	8d 45 c8	 lea	 eax, DWORD PTR $T3[ebp]
  003fb	50		 push	 eax
  003fc	e8 00 00 00 00	 call	 ?GetStringData@CDataConversion@@SA?AV?$CStringT@DV?$StrTraitMFC_DLL@DV?$ChTraitsCRT@D@ATL@@@@@ATL@@AAV23@ABV23@_N@Z ; CDataConversion::GetStringData
  00401	ff 30		 push	 DWORD PTR [eax]
  00403	c6 45 fc 1e	 mov	 BYTE PTR __$EHRec$[ebp+8], 30 ; 0000001eH
  00407	e8 00 00 00 00	 call	 ?atob@CDataConversion@@SA_NPBD@Z ; CDataConversion::atob
  0040c	83 c4 14	 add	 esp, 20			; 00000014H
  0040f	88 45 cc	 mov	 BYTE PTR _bPreNowContrast$[ebp], al
  00412	8d 4d c8	 lea	 ecx, DWORD PTR $T3[ebp]
  00415	ff 15 00 00 00
	00		 call	 DWORD PTR __imp_??1?$CStringT@DV?$StrTraitMFC_DLL@DV?$ChTraitsCRT@D@ATL@@@@@ATL@@QAE@XZ
  0041b	8d 4d 0c	 lea	 ecx, DWORD PTR $T27[ebp]
  0041e	c6 45 fc 0f	 mov	 BYTE PTR __$EHRec$[ebp+8], 15 ; 0000000fH
  00422	ff 15 00 00 00
	00		 call	 DWORD PTR __imp_??1?$CStringT@DV?$StrTraitMFC_DLL@DV?$ChTraitsCRT@D@ATL@@@@@ATL@@QAE@XZ

; 404  : 	nCurData = atoi(CDataConversion::GetStringData(graphData, ";"));

  00428	68 00 00 00 00	 push	 OFFSET ??_C@_01ICJEACDI@?$DL@
  0042d	8d 4d 0c	 lea	 ecx, DWORD PTR $T26[ebp]
  00430	ff 15 00 00 00
	00		 call	 DWORD PTR __imp_??0?$CStringT@DV?$StrTraitMFC_DLL@DV?$ChTraitsCRT@D@ATL@@@@@ATL@@QAE@PBD@Z
  00436	6a 01		 push	 1
  00438	8d 45 0c	 lea	 eax, DWORD PTR $T26[ebp]
  0043b	c6 45 fc 1f	 mov	 BYTE PTR __$EHRec$[ebp+8], 31 ; 0000001fH
  0043f	50		 push	 eax
  00440	8d 45 f0	 lea	 eax, DWORD PTR _graphData$[ebp]
  00443	50		 push	 eax
  00444	8d 45 c8	 lea	 eax, DWORD PTR $T2[ebp]
  00447	50		 push	 eax
  00448	e8 00 00 00 00	 call	 ?GetStringData@CDataConversion@@SA?AV?$CStringT@DV?$StrTraitMFC_DLL@DV?$ChTraitsCRT@D@ATL@@@@@ATL@@AAV23@ABV23@_N@Z ; CDataConversion::GetStringData
  0044d	8b 35 00 00 00
	00		 mov	 esi, DWORD PTR __imp__atoi
  00453	ff 30		 push	 DWORD PTR [eax]
  00455	ff d6		 call	 esi
  00457	83 c4 14	 add	 esp, 20			; 00000014H
  0045a	8d 4d c8	 lea	 ecx, DWORD PTR $T2[ebp]
  0045d	8b d8		 mov	 ebx, eax
  0045f	ff 15 00 00 00
	00		 call	 DWORD PTR __imp_??1?$CStringT@DV?$StrTraitMFC_DLL@DV?$ChTraitsCRT@D@ATL@@@@@ATL@@QAE@XZ
  00465	8d 4d 0c	 lea	 ecx, DWORD PTR $T26[ebp]
  00468	ff 15 00 00 00
	00		 call	 DWORD PTR __imp_??1?$CStringT@DV?$StrTraitMFC_DLL@DV?$ChTraitsCRT@D@ATL@@@@@ATL@@QAE@XZ

; 408  : 	CString strType;

  0046e	8d 4d dc	 lea	 ecx, DWORD PTR _strType$[ebp]
  00471	ff 15 00 00 00
	00		 call	 DWORD PTR __imp_??0?$CStringT@DV?$StrTraitMFC_DLL@DV?$ChTraitsCRT@D@ATL@@@@@ATL@@QAE@XZ
; File C:\Program Files (x86)\Microsoft Visual Studio\2019\Community\VC\Tools\MSVC\14.29.30133\atlmfc\include\atlsimpstr.h

; 519  : 		return( GetData()->nDataLength );

  00477	8b 4d e4	 mov	 ecx, DWORD PTR _subGraphData$[ebp]
; File D:\git\src\IBK\IBK_DRFN\ProjSrc\SrcChartEx\ChartAddIn\ChartDesignPropertyAddIn\ChartDesignPropertyAddIn\DataOfChartListPage.cpp

; 408  : 	CString strType;

  0047a	c6 45 fc 20	 mov	 BYTE PTR __$EHRec$[ebp+8], 32 ; 00000020H
; File C:\Program Files (x86)\Microsoft Visual Studio\2019\Community\VC\Tools\MSVC\14.29.30133\atlmfc\include\atlsimpstr.h

; 533  : 		return( GetLength() == 0 );

  0047e	83 79 f4 00	 cmp	 DWORD PTR [ecx-12], 0
; File D:\git\src\IBK\IBK_DRFN\ProjSrc\SrcChartEx\ChartAddIn\ChartDesignPropertyAddIn\ChartDesignPropertyAddIn\DataOfChartListPage.cpp

; 420  : 	if( strGraphData.IsEmpty()) return _MTEXT( C5_LINE_TYPE);

  00482	75 19		 jne	 SHORT $LN67@SetItem
  00484	a1 54 00 00 00	 mov	 eax, DWORD PTR ?g_iMetaTable@@3VIMetaTable@@A+84
  00489	8d 4d ec	 lea	 ecx, DWORD PTR $T21[ebp]
  0048c	ff b0 e0 07 00
	00		 push	 DWORD PTR [eax+2016]
  00492	ff 15 00 00 00
	00		 call	 DWORD PTR __imp_??0?$CStringT@DV?$StrTraitMFC_DLL@DV?$ChTraitsCRT@D@ATL@@@@@ATL@@QAE@PBD@Z
  00498	e9 d0 00 00 00	 jmp	 $LN66@SetItem
$LN67@SetItem:

; 421  : 
; 422  : 	const char *szGraphData = strGraphData;
; 423  : 	if( !szGraphData) return _MTEXT( C5_LINE_TYPE);
; 424  : 
; 425  : 	char szType[ 2] = { ' ', '\0'};

  0049d	c6 45 0d 00	 mov	 BYTE PTR _szType$23[ebp+1], 0

; 426  : 	szType[ 0] = szGraphData[ 0];

  004a1	8a 01		 mov	 al, BYTE PTR [ecx]
  004a3	88 45 0c	 mov	 BYTE PTR _szType$23[ebp], al

; 427  : 	int nGraphType = atoi( szType);

  004a6	8d 45 0c	 lea	 eax, DWORD PTR _szType$23[ebp]
  004a9	50		 push	 eax
  004aa	ff d6		 call	 esi
  004ac	83 c4 04	 add	 esp, 4

; 428  : 
; 429  : 	// (2006/7/5 - Seung-Won, Bae) Use IGraphInfoManager
; 430  : 	CString strTypeData, strStyleData;

  004af	8d 4d e8	 lea	 ecx, DWORD PTR _strTypeData$15[ebp]
  004b2	8b f0		 mov	 esi, eax
  004b4	ff 15 00 00 00
	00		 call	 DWORD PTR __imp_??0?$CStringT@DV?$StrTraitMFC_DLL@DV?$ChTraitsCRT@D@ATL@@@@@ATL@@QAE@XZ
  004ba	8d 4d e0	 lea	 ecx, DWORD PTR _strStyleData$10[ebp]
  004bd	ff 15 00 00 00
	00		 call	 DWORD PTR __imp_??0?$CStringT@DV?$StrTraitMFC_DLL@DV?$ChTraitsCRT@D@ATL@@@@@ATL@@QAE@XZ

; 431  : 	if( p_pIGraphInfoManager->GetGraphTypeAndStyle( nGraphType, 0, strTypeData, strStyleData))

  004c3	8b 4d 10	 mov	 ecx, DWORD PTR _p_pIGraphInfoManager$[ebp]
  004c6	8d 45 e0	 lea	 eax, DWORD PTR _strStyleData$10[ebp]
  004c9	50		 push	 eax
  004ca	8d 45 e8	 lea	 eax, DWORD PTR _strTypeData$15[ebp]
  004cd	c6 45 fc 22	 mov	 BYTE PTR __$EHRec$[ebp+8], 34 ; 00000022H
  004d1	50		 push	 eax
  004d2	8b 11		 mov	 edx, DWORD PTR [ecx]
  004d4	6a 00		 push	 0
  004d6	56		 push	 esi
  004d7	ff 52 24	 call	 DWORD PTR [edx+36]
  004da	85 c0		 test	 eax, eax
  004dc	74 0f		 je	 SHORT $LN69@SetItem

; 432  : 		return strTypeData;

  004de	8d 45 e8	 lea	 eax, DWORD PTR _strTypeData$15[ebp]
  004e1	50		 push	 eax
  004e2	8d 4d ec	 lea	 ecx, DWORD PTR $T21[ebp]
  004e5	ff 15 00 00 00
	00		 call	 DWORD PTR __imp_??0?$CStringT@DV?$StrTraitMFC_DLL@DV?$ChTraitsCRT@D@ATL@@@@@ATL@@QAE@ABV01@@Z
  004eb	eb 6e		 jmp	 SHORT $LN83@SetItem
$LN69@SetItem:

; 302  : 	switch(nGraphType)

  004ed	83 fe 06	 cmp	 esi, 6
  004f0	77 55		 ja	 SHORT $LN87@SetItem
  004f2	ff 24 b5 00 00
	00 00		 jmp	 DWORD PTR $LN100@SetItem[esi*4]
$LN86@SetItem:

; 303  : 	{
; 304  : 	case CGraphBaseData::Bong_Type:
; 305  : 		return _MTEXT( C5_CANDLE_TYPE);

  004f9	a1 54 00 00 00	 mov	 eax, DWORD PTR ?g_iMetaTable@@3VIMetaTable@@A+84
  004fe	ff b0 dc 07 00
	00		 push	 DWORD PTR [eax+2012]
  00504	eb 4c		 jmp	 SHORT $LN102@SetItem
$LN89@SetItem:

; 309  : 	case CGraphBaseData::Bar_Type:
; 310  : 		return _MTEXT( C5_BAR_TYPE);

  00506	a1 54 00 00 00	 mov	 eax, DWORD PTR ?g_iMetaTable@@3VIMetaTable@@A+84
  0050b	ff b0 e4 07 00
	00		 push	 DWORD PTR [eax+2020]
  00511	eb 3f		 jmp	 SHORT $LN102@SetItem
$LN90@SetItem:

; 311  : 	case CGraphBaseData::Pie_Type:
; 312  : 		return _MTEXT( C5_PIE_TYPE);

  00513	a1 54 00 00 00	 mov	 eax, DWORD PTR ?g_iMetaTable@@3VIMetaTable@@A+84
  00518	ff b0 e8 07 00
	00		 push	 DWORD PTR [eax+2024]
  0051e	eb 32		 jmp	 SHORT $LN102@SetItem
$LN91@SetItem:

; 313  : 	case CGraphBaseData::Special_Type:
; 314  : 		return _MTEXT( C5_SPECIAL_TYPE);

  00520	a1 54 00 00 00	 mov	 eax, DWORD PTR ?g_iMetaTable@@3VIMetaTable@@A+84
  00525	ff b0 ec 07 00
	00		 push	 DWORD PTR [eax+2028]
  0052b	eb 25		 jmp	 SHORT $LN102@SetItem
$LN92@SetItem:

; 315  : 	case CGraphBaseData::Fund_Type:
; 316  : 		return _MTEXT( C5_FUND_TYPE);

  0052d	a1 54 00 00 00	 mov	 eax, DWORD PTR ?g_iMetaTable@@3VIMetaTable@@A+84
  00532	ff b0 f0 07 00
	00		 push	 DWORD PTR [eax+2032]
  00538	eb 18		 jmp	 SHORT $LN102@SetItem
$LN93@SetItem:

; 317  : 	case CGraphBaseData::DataView_Type:
; 318  : 		return _MTEXT( C5_DATA_EXPRESSION_TYPE);

  0053a	a1 54 00 00 00	 mov	 eax, DWORD PTR ?g_iMetaTable@@3VIMetaTable@@A+84
  0053f	ff b0 f4 07 00
	00		 push	 DWORD PTR [eax+2036]
  00545	eb 0b		 jmp	 SHORT $LN102@SetItem
$LN87@SetItem:

; 306  : 	default:
; 307  : 	case CGraphBaseData::Line_Type:
; 308  : 		return _MTEXT( C5_LINE_TYPE);

  00547	a1 54 00 00 00	 mov	 eax, DWORD PTR ?g_iMetaTable@@3VIMetaTable@@A+84
  0054c	ff b0 e0 07 00
	00		 push	 DWORD PTR [eax+2016]
$LN102@SetItem:

; 409  : 	// <data>  "", ""..         .
; 410  : 	strType = GetGraphType(subGraphData, p_pIGraphInfoManager);

  00552	8d 4d ec	 lea	 ecx, DWORD PTR $T21[ebp]
  00555	ff 15 00 00 00
	00		 call	 DWORD PTR __imp_??0?$CStringT@DV?$StrTraitMFC_DLL@DV?$ChTraitsCRT@D@ATL@@@@@ATL@@QAE@PBD@Z
$LN83@SetItem:
  0055b	8d 4d e0	 lea	 ecx, DWORD PTR _strStyleData$10[ebp]
  0055e	ff 15 00 00 00
	00		 call	 DWORD PTR __imp_??1?$CStringT@DV?$StrTraitMFC_DLL@DV?$ChTraitsCRT@D@ATL@@@@@ATL@@QAE@XZ
  00564	8d 4d e8	 lea	 ecx, DWORD PTR _strTypeData$15[ebp]
  00567	ff 15 00 00 00
	00		 call	 DWORD PTR __imp_??1?$CStringT@DV?$StrTraitMFC_DLL@DV?$ChTraitsCRT@D@ATL@@@@@ATL@@QAE@XZ
$LN66@SetItem:
  0056d	8d 45 ec	 lea	 eax, DWORD PTR $T21[ebp]
  00570	c6 45 fc 23	 mov	 BYTE PTR __$EHRec$[ebp+8], 35 ; 00000023H
  00574	50		 push	 eax
  00575	8d 4d dc	 lea	 ecx, DWORD PTR _strType$[ebp]
  00578	ff 15 00 00 00
	00		 call	 DWORD PTR __imp_??4?$CStringT@DV?$StrTraitMFC_DLL@DV?$ChTraitsCRT@D@ATL@@@@@ATL@@QAEAAV01@ABV01@@Z
  0057e	8d 4d ec	 lea	 ecx, DWORD PTR $T21[ebp]
  00581	c6 45 fc 20	 mov	 BYTE PTR __$EHRec$[ebp+8], 32 ; 00000020H
  00585	ff 15 00 00 00
	00		 call	 DWORD PTR __imp_??1?$CStringT@DV?$StrTraitMFC_DLL@DV?$ChTraitsCRT@D@ATL@@@@@ATL@@QAE@XZ

; 411  : 
; 412  : 	m_pTreeChart->AddItem(pVertiScale, _MTOL5( strType), strIndicatorName, strGraphName, strPacket,

  0058b	6a 00		 push	 0
  0058d	ff 75 dc	 push	 DWORD PTR _strType$[ebp]
  00590	b9 00 00 00 00	 mov	 ecx, OFFSET ?g_iMetaTable@@3VIMetaTable@@A ; g_iMetaTable
  00595	6a 05		 push	 5
  00597	ff 77 10	 push	 DWORD PTR [edi+16]
  0059a	e8 00 00 00 00	 call	 ?GetLanguageText@IMetaTable@@QAEPBDPAUHWND__@@W4E_CODEPAGE@1@PBDH@Z ; IMetaTable::GetLanguageText
  0059f	50		 push	 eax
  005a0	8d 4d 0c	 lea	 ecx, DWORD PTR $T25[ebp]
  005a3	ff 15 00 00 00
	00		 call	 DWORD PTR __imp_??0?$CStringT@DV?$StrTraitMFC_DLL@DV?$ChTraitsCRT@D@ATL@@@@@ATL@@QAE@PBD@Z
  005a9	8d 45 e4	 lea	 eax, DWORD PTR _subGraphData$[ebp]
  005ac	8b 4f 0c	 mov	 ecx, DWORD PTR [edi+12]
  005af	50		 push	 eax
  005b0	ff 75 c4	 push	 DWORD PTR _bSignalShow$[ebp]
  005b3	8d 45 d0	 lea	 eax, DWORD PTR _strPacket$[ebp]
  005b6	c6 45 fc 24	 mov	 BYTE PTR __$EHRec$[ebp+8], 36 ; 00000024H
  005ba	ff 75 c0	 push	 DWORD PTR _bSignalUse$[ebp]
  005bd	53		 push	 ebx
  005be	ff 75 cc	 push	 DWORD PTR _bPreNowContrast$[ebp]
  005c1	ff 75 bc	 push	 DWORD PTR _bHighNowUpDown$[ebp]
  005c4	ff 75 b8	 push	 DWORD PTR _bLowNowUpDown$[ebp]
  005c7	ff 75 b4	 push	 DWORD PTR _bLowHighUpDown$[ebp]
  005ca	50		 push	 eax
  005cb	8d 45 d8	 lea	 eax, DWORD PTR _strGraphName$[ebp]
  005ce	50		 push	 eax
  005cf	8d 45 d4	 lea	 eax, DWORD PTR _strIndicatorName$[ebp]
  005d2	50		 push	 eax
  005d3	8d 45 0c	 lea	 eax, DWORD PTR $T25[ebp]
  005d6	50		 push	 eax
  005d7	ff 75 08	 push	 DWORD PTR _pVertiScale$[ebp]
  005da	e8 00 00 00 00	 call	 ?AddItem@CMyTreeCtrl@@QAEXPAVCChartLink@@ABV?$CStringT@DV?$StrTraitMFC_DLL@DV?$ChTraitsCRT@D@ATL@@@@@ATL@@111_N222H221@Z ; CMyTreeCtrl::AddItem
  005df	8d 4d 0c	 lea	 ecx, DWORD PTR $T25[ebp]
  005e2	ff 15 00 00 00
	00		 call	 DWORD PTR __imp_??1?$CStringT@DV?$StrTraitMFC_DLL@DV?$ChTraitsCRT@D@ATL@@@@@ATL@@QAE@XZ

; 413  : 							bLowHighUpDown, bLowNowUpDown, bHighNowUpDown, bPreNowContrast, nCurData, 
; 414  : 							bSignalUse, bSignalShow, subGraphData);
; 415  : }

  005e8	8d 4d dc	 lea	 ecx, DWORD PTR _strType$[ebp]
  005eb	ff 15 00 00 00
	00		 call	 DWORD PTR __imp_??1?$CStringT@DV?$StrTraitMFC_DLL@DV?$ChTraitsCRT@D@ATL@@@@@ATL@@QAE@XZ
  005f1	8d 4d d0	 lea	 ecx, DWORD PTR _strPacket$[ebp]
  005f4	ff 15 00 00 00
	00		 call	 DWORD PTR __imp_??1?$CStringT@DV?$StrTraitMFC_DLL@DV?$ChTraitsCRT@D@ATL@@@@@ATL@@QAE@XZ
  005fa	8d 4d d8	 lea	 ecx, DWORD PTR _strGraphName$[ebp]
  005fd	ff 15 00 00 00
	00		 call	 DWORD PTR __imp_??1?$CStringT@DV?$StrTraitMFC_DLL@DV?$ChTraitsCRT@D@ATL@@@@@ATL@@QAE@XZ
  00603	8d 4d d4	 lea	 ecx, DWORD PTR _strIndicatorName$[ebp]
  00606	ff 15 00 00 00
	00		 call	 DWORD PTR __imp_??1?$CStringT@DV?$StrTraitMFC_DLL@DV?$ChTraitsCRT@D@ATL@@@@@ATL@@QAE@XZ
  0060c	8d 4d f0	 lea	 ecx, DWORD PTR _graphData$[ebp]
  0060f	ff 15 00 00 00
	00		 call	 DWORD PTR __imp_??1?$CStringT@DV?$StrTraitMFC_DLL@DV?$ChTraitsCRT@D@ATL@@@@@ATL@@QAE@XZ
  00615	8d 4d e4	 lea	 ecx, DWORD PTR _subGraphData$[ebp]
  00618	ff 15 00 00 00
	00		 call	 DWORD PTR __imp_??1?$CStringT@DV?$StrTraitMFC_DLL@DV?$ChTraitsCRT@D@ATL@@@@@ATL@@QAE@XZ
  0061e	8b 4d f4	 mov	 ecx, DWORD PTR __$EHRec$[ebp]
  00621	64 89 0d 00 00
	00 00		 mov	 DWORD PTR fs:0, ecx
  00628	59		 pop	 ecx
  00629	5f		 pop	 edi
  0062a	5e		 pop	 esi
  0062b	5b		 pop	 ebx
  0062c	8b e5		 mov	 esp, ebp
  0062e	5d		 pop	 ebp
  0062f	c2 0c 00	 ret	 12			; 0000000cH
  00632	66 90		 npad	 2
$LN100@SetItem:
  00634	00 00 00 00	 DD	 $LN86@SetItem
  00638	00 00 00 00	 DD	 $LN87@SetItem
  0063c	00 00 00 00	 DD	 $LN89@SetItem
  00640	00 00 00 00	 DD	 $LN90@SetItem
  00644	00 00 00 00	 DD	 $LN91@SetItem
  00648	00 00 00 00	 DD	 $LN92@SetItem
  0064c	00 00 00 00	 DD	 $LN93@SetItem
_TEXT	ENDS
;	COMDAT text$x
text$x	SEGMENT
__unwindfunclet$?SetItem@CDataOfChartListPage@@AAEXPAVCChartLink@@ABV?$CStringT@DV?$StrTraitMFC_DLL@DV?$ChTraitsCRT@D@ATL@@@@@ATL@@PAUIGraphInfoManager134661@@@Z$0:
  00000	8d 4d e4	 lea	 ecx, DWORD PTR _subGraphData$[ebp]
  00003	ff 25 00 00 00
	00		 jmp	 DWORD PTR __imp_??1?$CStringT@DV?$StrTraitMFC_DLL@DV?$ChTraitsCRT@D@ATL@@@@@ATL@@QAE@XZ
__unwindfunclet$?SetItem@CDataOfChartListPage@@AAEXPAVCChartLink@@ABV?$CStringT@DV?$StrTraitMFC_DLL@DV?$ChTraitsCRT@D@ATL@@@@@ATL@@PAUIGraphInfoManager134661@@@Z$1:
  00009	8d 4d 0c	 lea	 ecx, DWORD PTR $T33[ebp]
  0000c	ff 25 00 00 00
	00		 jmp	 DWORD PTR __imp_??1?$CStringT@DV?$StrTraitMFC_DLL@DV?$ChTraitsCRT@D@ATL@@@@@ATL@@QAE@XZ
__unwindfunclet$?SetItem@CDataOfChartListPage@@AAEXPAVCChartLink@@ABV?$CStringT@DV?$StrTraitMFC_DLL@DV?$ChTraitsCRT@D@ATL@@@@@ATL@@PAUIGraphInfoManager134661@@@Z$2:
  00012	8d 4d f0	 lea	 ecx, DWORD PTR _graphData$[ebp]
  00015	ff 25 00 00 00
	00		 jmp	 DWORD PTR __imp_??1?$CStringT@DV?$StrTraitMFC_DLL@DV?$ChTraitsCRT@D@ATL@@@@@ATL@@QAE@XZ
__unwindfunclet$?SetItem@CDataOfChartListPage@@AAEXPAVCChartLink@@ABV?$CStringT@DV?$StrTraitMFC_DLL@DV?$ChTraitsCRT@D@ATL@@@@@ATL@@PAUIGraphInfoManager134661@@@Z$3:
  0001b	8d 4d e0	 lea	 ecx, DWORD PTR $T14[ebp]
  0001e	ff 25 00 00 00
	00		 jmp	 DWORD PTR __imp_??1?$CStringT@DV?$StrTraitMFC_DLL@DV?$ChTraitsCRT@D@ATL@@@@@ATL@@QAE@XZ
__unwindfunclet$?SetItem@CDataOfChartListPage@@AAEXPAVCChartLink@@ABV?$CStringT@DV?$StrTraitMFC_DLL@DV?$ChTraitsCRT@D@ATL@@@@@ATL@@PAUIGraphInfoManager134661@@@Z$5:
  00024	8d 4d e0	 lea	 ecx, DWORD PTR $T13[ebp]
  00027	ff 25 00 00 00
	00		 jmp	 DWORD PTR __imp_??1?$CStringT@DV?$StrTraitMFC_DLL@DV?$ChTraitsCRT@D@ATL@@@@@ATL@@QAE@XZ
__unwindfunclet$?SetItem@CDataOfChartListPage@@AAEXPAVCChartLink@@ABV?$CStringT@DV?$StrTraitMFC_DLL@DV?$ChTraitsCRT@D@ATL@@@@@ATL@@PAUIGraphInfoManager134661@@@Z$6:
  0002d	8d 4d d4	 lea	 ecx, DWORD PTR _strIndicatorName$[ebp]
  00030	ff 25 00 00 00
	00		 jmp	 DWORD PTR __imp_??1?$CStringT@DV?$StrTraitMFC_DLL@DV?$ChTraitsCRT@D@ATL@@@@@ATL@@QAE@XZ
__unwindfunclet$?SetItem@CDataOfChartListPage@@AAEXPAVCChartLink@@ABV?$CStringT@DV?$StrTraitMFC_DLL@DV?$ChTraitsCRT@D@ATL@@@@@ATL@@PAUIGraphInfoManager134661@@@Z$7:
  00036	8d 4d d8	 lea	 ecx, DWORD PTR _strGraphName$[ebp]
  00039	ff 25 00 00 00
	00		 jmp	 DWORD PTR __imp_??1?$CStringT@DV?$StrTraitMFC_DLL@DV?$ChTraitsCRT@D@ATL@@@@@ATL@@QAE@XZ
__unwindfunclet$?SetItem@CDataOfChartListPage@@AAEXPAVCChartLink@@ABV?$CStringT@DV?$StrTraitMFC_DLL@DV?$ChTraitsCRT@D@ATL@@@@@ATL@@PAUIGraphInfoManager134661@@@Z$8:
  0003f	8d 4d 0c	 lea	 ecx, DWORD PTR $T32[ebp]
  00042	ff 25 00 00 00
	00		 jmp	 DWORD PTR __imp_??1?$CStringT@DV?$StrTraitMFC_DLL@DV?$ChTraitsCRT@D@ATL@@@@@ATL@@QAE@XZ
__unwindfunclet$?SetItem@CDataOfChartListPage@@AAEXPAVCChartLink@@ABV?$CStringT@DV?$StrTraitMFC_DLL@DV?$ChTraitsCRT@D@ATL@@@@@ATL@@PAUIGraphInfoManager134661@@@Z$9:
  00048	8d 4d 0c	 lea	 ecx, DWORD PTR $T31[ebp]
  0004b	ff 25 00 00 00
	00		 jmp	 DWORD PTR __imp_??1?$CStringT@DV?$StrTraitMFC_DLL@DV?$ChTraitsCRT@D@ATL@@@@@ATL@@QAE@XZ
__unwindfunclet$?SetItem@CDataOfChartListPage@@AAEXPAVCChartLink@@ABV?$CStringT@DV?$StrTraitMFC_DLL@DV?$ChTraitsCRT@D@ATL@@@@@ATL@@PAUIGraphInfoManager134661@@@Z$10:
  00051	8d 4d e8	 lea	 ecx, DWORD PTR $T19[ebp]
  00054	ff 25 00 00 00
	00		 jmp	 DWORD PTR __imp_??1?$CStringT@DV?$StrTraitMFC_DLL@DV?$ChTraitsCRT@D@ATL@@@@@ATL@@QAE@XZ
__unwindfunclet$?SetItem@CDataOfChartListPage@@AAEXPAVCChartLink@@ABV?$CStringT@DV?$StrTraitMFC_DLL@DV?$ChTraitsCRT@D@ATL@@@@@ATL@@PAUIGraphInfoManager134661@@@Z$11:
  0005a	8d 4d e0	 lea	 ecx, DWORD PTR $T12[ebp]
  0005d	ff 25 00 00 00
	00		 jmp	 DWORD PTR __imp_??1?$CStringT@DV?$StrTraitMFC_DLL@DV?$ChTraitsCRT@D@ATL@@@@@ATL@@QAE@XZ
__unwindfunclet$?SetItem@CDataOfChartListPage@@AAEXPAVCChartLink@@ABV?$CStringT@DV?$StrTraitMFC_DLL@DV?$ChTraitsCRT@D@ATL@@@@@ATL@@PAUIGraphInfoManager134661@@@Z$12:
  00063	8d 4d e0	 lea	 ecx, DWORD PTR $T11[ebp]
  00066	ff 25 00 00 00
	00		 jmp	 DWORD PTR __imp_??1?$CStringT@DV?$StrTraitMFC_DLL@DV?$ChTraitsCRT@D@ATL@@@@@ATL@@QAE@XZ
__unwindfunclet$?SetItem@CDataOfChartListPage@@AAEXPAVCChartLink@@ABV?$CStringT@DV?$StrTraitMFC_DLL@DV?$ChTraitsCRT@D@ATL@@@@@ATL@@PAUIGraphInfoManager134661@@@Z$13:
  0006c	8d 4d d0	 lea	 ecx, DWORD PTR _strPacket$[ebp]
  0006f	ff 25 00 00 00
	00		 jmp	 DWORD PTR __imp_??1?$CStringT@DV?$StrTraitMFC_DLL@DV?$ChTraitsCRT@D@ATL@@@@@ATL@@QAE@XZ
__unwindfunclet$?SetItem@CDataOfChartListPage@@AAEXPAVCChartLink@@ABV?$CStringT@DV?$StrTraitMFC_DLL@DV?$ChTraitsCRT@D@ATL@@@@@ATL@@PAUIGraphInfoManager134661@@@Z$14:
  00075	8d 4d ec	 lea	 ecx, DWORD PTR $T22[ebp]
  00078	ff 25 00 00 00
	00		 jmp	 DWORD PTR __imp_??1?$CStringT@DV?$StrTraitMFC_DLL@DV?$ChTraitsCRT@D@ATL@@@@@ATL@@QAE@XZ
__unwindfunclet$?SetItem@CDataOfChartListPage@@AAEXPAVCChartLink@@ABV?$CStringT@DV?$StrTraitMFC_DLL@DV?$ChTraitsCRT@D@ATL@@@@@ATL@@PAUIGraphInfoManager134661@@@Z$15:
  0007e	8d 4d c8	 lea	 ecx, DWORD PTR $T7[ebp]
  00081	ff 25 00 00 00
	00		 jmp	 DWORD PTR __imp_??1?$CStringT@DV?$StrTraitMFC_DLL@DV?$ChTraitsCRT@D@ATL@@@@@ATL@@QAE@XZ
__unwindfunclet$?SetItem@CDataOfChartListPage@@AAEXPAVCChartLink@@ABV?$CStringT@DV?$StrTraitMFC_DLL@DV?$ChTraitsCRT@D@ATL@@@@@ATL@@PAUIGraphInfoManager134661@@@Z$29:
  00087	8d 4d 0c	 lea	 ecx, DWORD PTR _strRealData$24[ebp]
  0008a	ff 25 00 00 00
	00		 jmp	 DWORD PTR __imp_??1?$CStringT@DV?$StrTraitMFC_DLL@DV?$ChTraitsCRT@D@ATL@@@@@ATL@@QAE@XZ
__unwindfunclet$?SetItem@CDataOfChartListPage@@AAEXPAVCChartLink@@ABV?$CStringT@DV?$StrTraitMFC_DLL@DV?$ChTraitsCRT@D@ATL@@@@@ATL@@PAUIGraphInfoManager134661@@@Z$31:
  00090	8d 4d e8	 lea	 ecx, DWORD PTR $T17[ebp]
  00093	ff 25 00 00 00
	00		 jmp	 DWORD PTR __imp_??1?$CStringT@DV?$StrTraitMFC_DLL@DV?$ChTraitsCRT@D@ATL@@@@@ATL@@QAE@XZ
__unwindfunclet$?SetItem@CDataOfChartListPage@@AAEXPAVCChartLink@@ABV?$CStringT@DV?$StrTraitMFC_DLL@DV?$ChTraitsCRT@D@ATL@@@@@ATL@@PAUIGraphInfoManager134661@@@Z$32:
  00099	8d 4d cc	 lea	 ecx, DWORD PTR $T9[ebp]
  0009c	ff 25 00 00 00
	00		 jmp	 DWORD PTR __imp_??1?$CStringT@DV?$StrTraitMFC_DLL@DV?$ChTraitsCRT@D@ATL@@@@@ATL@@QAE@XZ
__unwindfunclet$?SetItem@CDataOfChartListPage@@AAEXPAVCChartLink@@ABV?$CStringT@DV?$StrTraitMFC_DLL@DV?$ChTraitsCRT@D@ATL@@@@@ATL@@PAUIGraphInfoManager134661@@@Z$33:
  000a2	8d 4d e8	 lea	 ecx, DWORD PTR $T16[ebp]
  000a5	ff 25 00 00 00
	00		 jmp	 DWORD PTR __imp_??1?$CStringT@DV?$StrTraitMFC_DLL@DV?$ChTraitsCRT@D@ATL@@@@@ATL@@QAE@XZ
__unwindfunclet$?SetItem@CDataOfChartListPage@@AAEXPAVCChartLink@@ABV?$CStringT@DV?$StrTraitMFC_DLL@DV?$ChTraitsCRT@D@ATL@@@@@ATL@@PAUIGraphInfoManager134661@@@Z$34:
  000ab	8d 4d cc	 lea	 ecx, DWORD PTR $T8[ebp]
  000ae	ff 25 00 00 00
	00		 jmp	 DWORD PTR __imp_??1?$CStringT@DV?$StrTraitMFC_DLL@DV?$ChTraitsCRT@D@ATL@@@@@ATL@@QAE@XZ
__unwindfunclet$?SetItem@CDataOfChartListPage@@AAEXPAVCChartLink@@ABV?$CStringT@DV?$StrTraitMFC_DLL@DV?$ChTraitsCRT@D@ATL@@@@@ATL@@PAUIGraphInfoManager134661@@@Z$16:
  000b4	8d 4d 0c	 lea	 ecx, DWORD PTR $T30[ebp]
  000b7	ff 25 00 00 00
	00		 jmp	 DWORD PTR __imp_??1?$CStringT@DV?$StrTraitMFC_DLL@DV?$ChTraitsCRT@D@ATL@@@@@ATL@@QAE@XZ
__unwindfunclet$?SetItem@CDataOfChartListPage@@AAEXPAVCChartLink@@ABV?$CStringT@DV?$StrTraitMFC_DLL@DV?$ChTraitsCRT@D@ATL@@@@@ATL@@PAUIGraphInfoManager134661@@@Z$17:
  000bd	8d 4d c8	 lea	 ecx, DWORD PTR $T6[ebp]
  000c0	ff 25 00 00 00
	00		 jmp	 DWORD PTR __imp_??1?$CStringT@DV?$StrTraitMFC_DLL@DV?$ChTraitsCRT@D@ATL@@@@@ATL@@QAE@XZ
__unwindfunclet$?SetItem@CDataOfChartListPage@@AAEXPAVCChartLink@@ABV?$CStringT@DV?$StrTraitMFC_DLL@DV?$ChTraitsCRT@D@ATL@@@@@ATL@@PAUIGraphInfoManager134661@@@Z$18:
  000c6	8d 4d 0c	 lea	 ecx, DWORD PTR $T29[ebp]
  000c9	ff 25 00 00 00
	00		 jmp	 DWORD PTR __imp_??1?$CStringT@DV?$StrTraitMFC_DLL@DV?$ChTraitsCRT@D@ATL@@@@@ATL@@QAE@XZ
__unwindfunclet$?SetItem@CDataOfChartListPage@@AAEXPAVCChartLink@@ABV?$CStringT@DV?$StrTraitMFC_DLL@DV?$ChTraitsCRT@D@ATL@@@@@ATL@@PAUIGraphInfoManager134661@@@Z$19:
  000cf	8d 4d c8	 lea	 ecx, DWORD PTR $T5[ebp]
  000d2	ff 25 00 00 00
	00		 jmp	 DWORD PTR __imp_??1?$CStringT@DV?$StrTraitMFC_DLL@DV?$ChTraitsCRT@D@ATL@@@@@ATL@@QAE@XZ
__unwindfunclet$?SetItem@CDataOfChartListPage@@AAEXPAVCChartLink@@ABV?$CStringT@DV?$StrTraitMFC_DLL@DV?$ChTraitsCRT@D@ATL@@@@@ATL@@PAUIGraphInfoManager134661@@@Z$20:
  000d8	8d 4d 0c	 lea	 ecx, DWORD PTR $T28[ebp]
  000db	ff 25 00 00 00
	00		 jmp	 DWORD PTR __imp_??1?$CStringT@DV?$StrTraitMFC_DLL@DV?$ChTraitsCRT@D@ATL@@@@@ATL@@QAE@XZ
__unwindfunclet$?SetItem@CDataOfChartListPage@@AAEXPAVCChartLink@@ABV?$CStringT@DV?$StrTraitMFC_DLL@DV?$ChTraitsCRT@D@ATL@@@@@ATL@@PAUIGraphInfoManager134661@@@Z$21:
  000e1	8d 4d c8	 lea	 ecx, DWORD PTR $T4[ebp]
  000e4	ff 25 00 00 00
	00		 jmp	 DWORD PTR __imp_??1?$CStringT@DV?$StrTraitMFC_DLL@DV?$ChTraitsCRT@D@ATL@@@@@ATL@@QAE@XZ
__unwindfunclet$?SetItem@CDataOfChartListPage@@AAEXPAVCChartLink@@ABV?$CStringT@DV?$StrTraitMFC_DLL@DV?$ChTraitsCRT@D@ATL@@@@@ATL@@PAUIGraphInfoManager134661@@@Z$22:
  000ea	8d 4d 0c	 lea	 ecx, DWORD PTR $T27[ebp]
  000ed	ff 25 00 00 00
	00		 jmp	 DWORD PTR __imp_??1?$CStringT@DV?$StrTraitMFC_DLL@DV?$ChTraitsCRT@D@ATL@@@@@ATL@@QAE@XZ
__unwindfunclet$?SetItem@CDataOfChartListPage@@AAEXPAVCChartLink@@ABV?$CStringT@DV?$StrTraitMFC_DLL@DV?$ChTraitsCRT@D@ATL@@@@@ATL@@PAUIGraphInfoManager134661@@@Z$23:
  000f3	8d 4d c8	 lea	 ecx, DWORD PTR $T3[ebp]
  000f6	ff 25 00 00 00
	00		 jmp	 DWORD PTR __imp_??1?$CStringT@DV?$StrTraitMFC_DLL@DV?$ChTraitsCRT@D@ATL@@@@@ATL@@QAE@XZ
__unwindfunclet$?SetItem@CDataOfChartListPage@@AAEXPAVCChartLink@@ABV?$CStringT@DV?$StrTraitMFC_DLL@DV?$ChTraitsCRT@D@ATL@@@@@ATL@@PAUIGraphInfoManager134661@@@Z$24:
  000fc	8d 4d 0c	 lea	 ecx, DWORD PTR $T26[ebp]
  000ff	ff 25 00 00 00
	00		 jmp	 DWORD PTR __imp_??1?$CStringT@DV?$StrTraitMFC_DLL@DV?$ChTraitsCRT@D@ATL@@@@@ATL@@QAE@XZ
__unwindfunclet$?SetItem@CDataOfChartListPage@@AAEXPAVCChartLink@@ABV?$CStringT@DV?$StrTraitMFC_DLL@DV?$ChTraitsCRT@D@ATL@@@@@ATL@@PAUIGraphInfoManager134661@@@Z$26:
  00105	8d 4d dc	 lea	 ecx, DWORD PTR _strType$[ebp]
  00108	ff 25 00 00 00
	00		 jmp	 DWORD PTR __imp_??1?$CStringT@DV?$StrTraitMFC_DLL@DV?$ChTraitsCRT@D@ATL@@@@@ATL@@QAE@XZ
__unwindfunclet$?SetItem@CDataOfChartListPage@@AAEXPAVCChartLink@@ABV?$CStringT@DV?$StrTraitMFC_DLL@DV?$ChTraitsCRT@D@ATL@@@@@ATL@@PAUIGraphInfoManager134661@@@Z$36:
  0010e	8d 4d e8	 lea	 ecx, DWORD PTR _strTypeData$15[ebp]
  00111	ff 25 00 00 00
	00		 jmp	 DWORD PTR __imp_??1?$CStringT@DV?$StrTraitMFC_DLL@DV?$ChTraitsCRT@D@ATL@@@@@ATL@@QAE@XZ
__unwindfunclet$?SetItem@CDataOfChartListPage@@AAEXPAVCChartLink@@ABV?$CStringT@DV?$StrTraitMFC_DLL@DV?$ChTraitsCRT@D@ATL@@@@@ATL@@PAUIGraphInfoManager134661@@@Z$37:
  00117	8d 4d e0	 lea	 ecx, DWORD PTR _strStyleData$10[ebp]
  0011a	ff 25 00 00 00
	00		 jmp	 DWORD PTR __imp_??1?$CStringT@DV?$StrTraitMFC_DLL@DV?$ChTraitsCRT@D@ATL@@@@@ATL@@QAE@XZ
__unwindfunclet$?SetItem@CDataOfChartListPage@@AAEXPAVCChartLink@@ABV?$CStringT@DV?$StrTraitMFC_DLL@DV?$ChTraitsCRT@D@ATL@@@@@ATL@@PAUIGraphInfoManager134661@@@Z$27:
  00120	8d 4d ec	 lea	 ecx, DWORD PTR $T21[ebp]
  00123	ff 25 00 00 00
	00		 jmp	 DWORD PTR __imp_??1?$CStringT@DV?$StrTraitMFC_DLL@DV?$ChTraitsCRT@D@ATL@@@@@ATL@@QAE@XZ
__unwindfunclet$?SetItem@CDataOfChartListPage@@AAEXPAVCChartLink@@ABV?$CStringT@DV?$StrTraitMFC_DLL@DV?$ChTraitsCRT@D@ATL@@@@@ATL@@PAUIGraphInfoManager134661@@@Z$28:
  00129	8d 4d 0c	 lea	 ecx, DWORD PTR $T25[ebp]
  0012c	ff 25 00 00 00
	00		 jmp	 DWORD PTR __imp_??1?$CStringT@DV?$StrTraitMFC_DLL@DV?$ChTraitsCRT@D@ATL@@@@@ATL@@QAE@XZ
  00132	cc		 int	 3
  00133	cc		 int	 3
  00134	cc		 int	 3
  00135	cc		 int	 3
  00136	cc		 int	 3
__ehhandler$?SetItem@CDataOfChartListPage@@AAEXPAVCChartLink@@ABV?$CStringT@DV?$StrTraitMFC_DLL@DV?$ChTraitsCRT@D@ATL@@@@@ATL@@PAUIGraphInfoManager134661@@@Z:
  00137	90		 npad	 1
  00138	90		 npad	 1
  00139	8b 54 24 08	 mov	 edx, DWORD PTR [esp+8]
  0013d	8d 42 0c	 lea	 eax, DWORD PTR [edx+12]
  00140	8b 4a b0	 mov	 ecx, DWORD PTR [edx-80]
  00143	33 c8		 xor	 ecx, eax
  00145	e8 00 00 00 00	 call	 @__security_check_cookie@4
  0014a	b8 00 00 00 00	 mov	 eax, OFFSET __ehfuncinfo$?SetItem@CDataOfChartListPage@@AAEXPAVCChartLink@@ABV?$CStringT@DV?$StrTraitMFC_DLL@DV?$ChTraitsCRT@D@ATL@@@@@ATL@@PAUIGraphInfoManager134661@@@Z
  0014f	e9 00 00 00 00	 jmp	 ___CxxFrameHandler3
text$x	ENDS
?SetItem@CDataOfChartListPage@@AAEXPAVCChartLink@@ABV?$CStringT@DV?$StrTraitMFC_DLL@DV?$ChTraitsCRT@D@ATL@@@@@ATL@@PAUIGraphInfoManager134661@@@Z ENDP ; CDataOfChartListPage::SetItem
; Function compile flags: /Ogtp
; File D:\git\src\IBK\IBK_DRFN\ProjSrc\SrcChartEx\ChartAddIn\ChartDesignPropertyAddIn\ChartDesignPropertyAddIn\DataOfChartListPage.cpp
; File C:\Program Files (x86)\Microsoft Visual Studio\2019\Community\VC\Tools\MSVC\14.29.30133\atlmfc\include\atlsimpstr.h
; File D:\git\src\IBK\IBK_DRFN\ProjSrc\SrcChartEx\ChartAddIn\ChartDesignPropertyAddIn\ChartDesignPropertyAddIn\DataOfChartListPage.cpp
;	COMDAT ?GetGraphType@CDataOfChartListPage@@AAE?AV?$CStringT@DV?$StrTraitMFC_DLL@DV?$ChTraitsCRT@D@ATL@@@@@ATL@@ABV23@PAUIGraphInfoManager134661@@@Z
_TEXT	SEGMENT
_strStyleData$ = -20					; size = 4
_strTypeData$ = -16					; size = 4
__$EHRec$ = -12						; size = 12
___$ReturnUdt$ = 8					; size = 4
_szType$ = 12						; size = 2
_strGraphData$ = 12					; size = 4
_p_pIGraphInfoManager$ = 16				; size = 4
?GetGraphType@CDataOfChartListPage@@AAE?AV?$CStringT@DV?$StrTraitMFC_DLL@DV?$ChTraitsCRT@D@ATL@@@@@ATL@@ABV23@PAUIGraphInfoManager134661@@@Z PROC ; CDataOfChartListPage::GetGraphType, COMDAT
; _this$ = ecx

; 419  : {

  00000	55		 push	 ebp
  00001	8b ec		 mov	 ebp, esp
  00003	6a ff		 push	 -1
  00005	68 00 00 00 00	 push	 __ehhandler$?GetGraphType@CDataOfChartListPage@@AAE?AV?$CStringT@DV?$StrTraitMFC_DLL@DV?$ChTraitsCRT@D@ATL@@@@@ATL@@ABV23@PAUIGraphInfoManager134661@@@Z
  0000a	64 a1 00 00 00
	00		 mov	 eax, DWORD PTR fs:0
  00010	50		 push	 eax
  00011	83 ec 08	 sub	 esp, 8
  00014	56		 push	 esi
  00015	a1 00 00 00 00	 mov	 eax, DWORD PTR ___security_cookie
  0001a	33 c5		 xor	 eax, ebp
  0001c	50		 push	 eax
  0001d	8d 45 f4	 lea	 eax, DWORD PTR __$EHRec$[ebp]
  00020	64 a3 00 00 00
	00		 mov	 DWORD PTR fs:0, eax
; File C:\Program Files (x86)\Microsoft Visual Studio\2019\Community\VC\Tools\MSVC\14.29.30133\atlmfc\include\atlsimpstr.h

; 519  : 		return( GetData()->nDataLength );

  00026	8b 45 0c	 mov	 eax, DWORD PTR _strGraphData$[ebp]
  00029	8b 00		 mov	 eax, DWORD PTR [eax]

; 533  : 		return( GetLength() == 0 );

  0002b	83 78 f4 00	 cmp	 DWORD PTR [eax-12], 0
; File D:\git\src\IBK\IBK_DRFN\ProjSrc\SrcChartEx\ChartAddIn\ChartDesignPropertyAddIn\ChartDesignPropertyAddIn\DataOfChartListPage.cpp

; 420  : 	if( strGraphData.IsEmpty()) return _MTEXT( C5_LINE_TYPE);

  0002f	75 29		 jne	 SHORT $LN2@GetGraphTy
$LN35@GetGraphTy:

; 435  : }

  00031	a1 54 00 00 00	 mov	 eax, DWORD PTR ?g_iMetaTable@@3VIMetaTable@@A+84
  00036	8b 4d 08	 mov	 ecx, DWORD PTR ___$ReturnUdt$[ebp]
  00039	ff b0 e0 07 00
	00		 push	 DWORD PTR [eax+2016]
  0003f	ff 15 00 00 00
	00		 call	 DWORD PTR __imp_??0?$CStringT@DV?$StrTraitMFC_DLL@DV?$ChTraitsCRT@D@ATL@@@@@ATL@@QAE@PBD@Z
  00045	8b 45 08	 mov	 eax, DWORD PTR ___$ReturnUdt$[ebp]
  00048	8b 4d f4	 mov	 ecx, DWORD PTR __$EHRec$[ebp]
  0004b	64 89 0d 00 00
	00 00		 mov	 DWORD PTR fs:0, ecx
  00052	59		 pop	 ecx
  00053	5e		 pop	 esi
  00054	8b e5		 mov	 esp, ebp
  00056	5d		 pop	 ebp
  00057	c2 0c 00	 ret	 12			; 0000000cH
$LN2@GetGraphTy:

; 421  : 
; 422  : 	const char *szGraphData = strGraphData;
; 423  : 	if( !szGraphData) return _MTEXT( C5_LINE_TYPE);

  0005a	85 c0		 test	 eax, eax
  0005c	74 d3		 je	 SHORT $LN35@GetGraphTy

; 424  : 
; 425  : 	char szType[ 2] = { ' ', '\0'};

  0005e	c6 45 0d 00	 mov	 BYTE PTR _szType$[ebp+1], 0

; 426  : 	szType[ 0] = szGraphData[ 0];

  00062	8a 00		 mov	 al, BYTE PTR [eax]
  00064	88 45 0c	 mov	 BYTE PTR _szType$[ebp], al

; 427  : 	int nGraphType = atoi( szType);

  00067	8d 45 0c	 lea	 eax, DWORD PTR _szType$[ebp]
  0006a	50		 push	 eax
  0006b	ff 15 00 00 00
	00		 call	 DWORD PTR __imp__atoi
  00071	83 c4 04	 add	 esp, 4

; 428  : 
; 429  : 	// (2006/7/5 - Seung-Won, Bae) Use IGraphInfoManager
; 430  : 	CString strTypeData, strStyleData;

  00074	8d 4d f0	 lea	 ecx, DWORD PTR _strTypeData$[ebp]
  00077	8b f0		 mov	 esi, eax
  00079	ff 15 00 00 00
	00		 call	 DWORD PTR __imp_??0?$CStringT@DV?$StrTraitMFC_DLL@DV?$ChTraitsCRT@D@ATL@@@@@ATL@@QAE@XZ
  0007f	8d 4d ec	 lea	 ecx, DWORD PTR _strStyleData$[ebp]
  00082	c7 45 fc 00 00
	00 00		 mov	 DWORD PTR __$EHRec$[ebp+8], 0
  00089	ff 15 00 00 00
	00		 call	 DWORD PTR __imp_??0?$CStringT@DV?$StrTraitMFC_DLL@DV?$ChTraitsCRT@D@ATL@@@@@ATL@@QAE@XZ

; 431  : 	if( p_pIGraphInfoManager->GetGraphTypeAndStyle( nGraphType, 0, strTypeData, strStyleData))

  0008f	8b 4d 10	 mov	 ecx, DWORD PTR _p_pIGraphInfoManager$[ebp]
  00092	8d 55 ec	 lea	 edx, DWORD PTR _strStyleData$[ebp]
  00095	52		 push	 edx
  00096	8d 55 f0	 lea	 edx, DWORD PTR _strTypeData$[ebp]
  00099	c6 45 fc 01	 mov	 BYTE PTR __$EHRec$[ebp+8], 1
  0009d	52		 push	 edx
  0009e	8b 01		 mov	 eax, DWORD PTR [ecx]
  000a0	6a 00		 push	 0
  000a2	56		 push	 esi
  000a3	ff 50 24	 call	 DWORD PTR [eax+36]
  000a6	85 c0		 test	 eax, eax
  000a8	74 34		 je	 SHORT $LN4@GetGraphTy

; 432  : 		return strTypeData;

  000aa	8b 4d 08	 mov	 ecx, DWORD PTR ___$ReturnUdt$[ebp]
  000ad	8d 45 f0	 lea	 eax, DWORD PTR _strTypeData$[ebp]
  000b0	50		 push	 eax
  000b1	ff 15 00 00 00
	00		 call	 DWORD PTR __imp_??0?$CStringT@DV?$StrTraitMFC_DLL@DV?$ChTraitsCRT@D@ATL@@@@@ATL@@QAE@ABV01@@Z
  000b7	8d 4d ec	 lea	 ecx, DWORD PTR _strStyleData$[ebp]
  000ba	ff 15 00 00 00
	00		 call	 DWORD PTR __imp_??1?$CStringT@DV?$StrTraitMFC_DLL@DV?$ChTraitsCRT@D@ATL@@@@@ATL@@QAE@XZ
  000c0	8d 4d f0	 lea	 ecx, DWORD PTR _strTypeData$[ebp]
  000c3	ff 15 00 00 00
	00		 call	 DWORD PTR __imp_??1?$CStringT@DV?$StrTraitMFC_DLL@DV?$ChTraitsCRT@D@ATL@@@@@ATL@@QAE@XZ
  000c9	8b 45 08	 mov	 eax, DWORD PTR ___$ReturnUdt$[ebp]

; 435  : }

  000cc	8b 4d f4	 mov	 ecx, DWORD PTR __$EHRec$[ebp]
  000cf	64 89 0d 00 00
	00 00		 mov	 DWORD PTR fs:0, ecx
  000d6	59		 pop	 ecx
  000d7	5e		 pop	 esi
  000d8	8b e5		 mov	 esp, ebp
  000da	5d		 pop	 ebp
  000db	c2 0c 00	 ret	 12			; 0000000cH
$LN4@GetGraphTy:

; 302  : 	switch(nGraphType)

  000de	83 fe 06	 cmp	 esi, 6
  000e1	77 55		 ja	 SHORT $LN22@GetGraphTy
  000e3	ff 24 b5 00 00
	00 00		 jmp	 DWORD PTR $LN32@GetGraphTy[esi*4]
$LN21@GetGraphTy:

; 303  : 	{
; 304  : 	case CGraphBaseData::Bong_Type:
; 305  : 		return _MTEXT( C5_CANDLE_TYPE);

  000ea	a1 54 00 00 00	 mov	 eax, DWORD PTR ?g_iMetaTable@@3VIMetaTable@@A+84
  000ef	ff b0 dc 07 00
	00		 push	 DWORD PTR [eax+2012]
  000f5	eb 4c		 jmp	 SHORT $LN34@GetGraphTy
$LN24@GetGraphTy:

; 309  : 	case CGraphBaseData::Bar_Type:
; 310  : 		return _MTEXT( C5_BAR_TYPE);

  000f7	a1 54 00 00 00	 mov	 eax, DWORD PTR ?g_iMetaTable@@3VIMetaTable@@A+84
  000fc	ff b0 e4 07 00
	00		 push	 DWORD PTR [eax+2020]
  00102	eb 3f		 jmp	 SHORT $LN34@GetGraphTy
$LN25@GetGraphTy:

; 311  : 	case CGraphBaseData::Pie_Type:
; 312  : 		return _MTEXT( C5_PIE_TYPE);

  00104	a1 54 00 00 00	 mov	 eax, DWORD PTR ?g_iMetaTable@@3VIMetaTable@@A+84
  00109	ff b0 e8 07 00
	00		 push	 DWORD PTR [eax+2024]
  0010f	eb 32		 jmp	 SHORT $LN34@GetGraphTy
$LN26@GetGraphTy:

; 313  : 	case CGraphBaseData::Special_Type:
; 314  : 		return _MTEXT( C5_SPECIAL_TYPE);

  00111	a1 54 00 00 00	 mov	 eax, DWORD PTR ?g_iMetaTable@@3VIMetaTable@@A+84
  00116	ff b0 ec 07 00
	00		 push	 DWORD PTR [eax+2028]
  0011c	eb 25		 jmp	 SHORT $LN34@GetGraphTy
$LN27@GetGraphTy:

; 315  : 	case CGraphBaseData::Fund_Type:
; 316  : 		return _MTEXT( C5_FUND_TYPE);

  0011e	a1 54 00 00 00	 mov	 eax, DWORD PTR ?g_iMetaTable@@3VIMetaTable@@A+84
  00123	ff b0 f0 07 00
	00		 push	 DWORD PTR [eax+2032]
  00129	eb 18		 jmp	 SHORT $LN34@GetGraphTy
$LN28@GetGraphTy:

; 317  : 	case CGraphBaseData::DataView_Type:
; 318  : 		return _MTEXT( C5_DATA_EXPRESSION_TYPE);

  0012b	a1 54 00 00 00	 mov	 eax, DWORD PTR ?g_iMetaTable@@3VIMetaTable@@A+84
  00130	ff b0 f4 07 00
	00		 push	 DWORD PTR [eax+2036]
  00136	eb 0b		 jmp	 SHORT $LN34@GetGraphTy
$LN22@GetGraphTy:

; 306  : 	default:
; 307  : 	case CGraphBaseData::Line_Type:
; 308  : 		return _MTEXT( C5_LINE_TYPE);

  00138	a1 54 00 00 00	 mov	 eax, DWORD PTR ?g_iMetaTable@@3VIMetaTable@@A+84
  0013d	ff b0 e0 07 00
	00		 push	 DWORD PTR [eax+2016]
$LN34@GetGraphTy:

; 433  : 
; 434  : 	return GetGraphTypeWhenNoTypeInfo( nGraphType);

  00143	8b 75 08	 mov	 esi, DWORD PTR ___$ReturnUdt$[ebp]
  00146	8b ce		 mov	 ecx, esi
  00148	ff 15 00 00 00
	00		 call	 DWORD PTR __imp_??0?$CStringT@DV?$StrTraitMFC_DLL@DV?$ChTraitsCRT@D@ATL@@@@@ATL@@QAE@PBD@Z
  0014e	8d 4d ec	 lea	 ecx, DWORD PTR _strStyleData$[ebp]
  00151	ff 15 00 00 00
	00		 call	 DWORD PTR __imp_??1?$CStringT@DV?$StrTraitMFC_DLL@DV?$ChTraitsCRT@D@ATL@@@@@ATL@@QAE@XZ
  00157	8d 4d f0	 lea	 ecx, DWORD PTR _strTypeData$[ebp]
  0015a	ff 15 00 00 00
	00		 call	 DWORD PTR __imp_??1?$CStringT@DV?$StrTraitMFC_DLL@DV?$ChTraitsCRT@D@ATL@@@@@ATL@@QAE@XZ
  00160	8b c6		 mov	 eax, esi

; 435  : }

  00162	8b 4d f4	 mov	 ecx, DWORD PTR __$EHRec$[ebp]
  00165	64 89 0d 00 00
	00 00		 mov	 DWORD PTR fs:0, ecx
  0016c	59		 pop	 ecx
  0016d	5e		 pop	 esi
  0016e	8b e5		 mov	 esp, ebp
  00170	5d		 pop	 ebp
  00171	c2 0c 00	 ret	 12			; 0000000cH
$LN32@GetGraphTy:
  00174	00 00 00 00	 DD	 $LN21@GetGraphTy
  00178	00 00 00 00	 DD	 $LN22@GetGraphTy
  0017c	00 00 00 00	 DD	 $LN24@GetGraphTy
  00180	00 00 00 00	 DD	 $LN25@GetGraphTy
  00184	00 00 00 00	 DD	 $LN26@GetGraphTy
  00188	00 00 00 00	 DD	 $LN27@GetGraphTy
  0018c	00 00 00 00	 DD	 $LN28@GetGraphTy
_TEXT	ENDS
;	COMDAT text$x
text$x	SEGMENT
__unwindfunclet$?GetGraphType@CDataOfChartListPage@@AAE?AV?$CStringT@DV?$StrTraitMFC_DLL@DV?$ChTraitsCRT@D@ATL@@@@@ATL@@ABV23@PAUIGraphInfoManager134661@@@Z$1:
  00000	8d 4d f0	 lea	 ecx, DWORD PTR _strTypeData$[ebp]
  00003	ff 25 00 00 00
	00		 jmp	 DWORD PTR __imp_??1?$CStringT@DV?$StrTraitMFC_DLL@DV?$ChTraitsCRT@D@ATL@@@@@ATL@@QAE@XZ
__unwindfunclet$?GetGraphType@CDataOfChartListPage@@AAE?AV?$CStringT@DV?$StrTraitMFC_DLL@DV?$ChTraitsCRT@D@ATL@@@@@ATL@@ABV23@PAUIGraphInfoManager134661@@@Z$2:
  00009	8d 4d ec	 lea	 ecx, DWORD PTR _strStyleData$[ebp]
  0000c	ff 25 00 00 00
	00		 jmp	 DWORD PTR __imp_??1?$CStringT@DV?$StrTraitMFC_DLL@DV?$ChTraitsCRT@D@ATL@@@@@ATL@@QAE@XZ
  00012	cc		 int	 3
  00013	cc		 int	 3
  00014	cc		 int	 3
  00015	cc		 int	 3
  00016	cc		 int	 3
__ehhandler$?GetGraphType@CDataOfChartListPage@@AAE?AV?$CStringT@DV?$StrTraitMFC_DLL@DV?$ChTraitsCRT@D@ATL@@@@@ATL@@ABV23@PAUIGraphInfoManager134661@@@Z:
  00017	90		 npad	 1
  00018	90		 npad	 1
  00019	8b 54 24 08	 mov	 edx, DWORD PTR [esp+8]
  0001d	8d 42 0c	 lea	 eax, DWORD PTR [edx+12]
  00020	8b 4a f0	 mov	 ecx, DWORD PTR [edx-16]
  00023	33 c8		 xor	 ecx, eax
  00025	e8 00 00 00 00	 call	 @__security_check_cookie@4
  0002a	b8 00 00 00 00	 mov	 eax, OFFSET __ehfuncinfo$?GetGraphType@CDataOfChartListPage@@AAE?AV?$CStringT@DV?$StrTraitMFC_DLL@DV?$ChTraitsCRT@D@ATL@@@@@ATL@@ABV23@PAUIGraphInfoManager134661@@@Z
  0002f	e9 00 00 00 00	 jmp	 ___CxxFrameHandler3
text$x	ENDS
?GetGraphType@CDataOfChartListPage@@AAE?AV?$CStringT@DV?$StrTraitMFC_DLL@DV?$ChTraitsCRT@D@ATL@@@@@ATL@@ABV23@PAUIGraphInfoManager134661@@@Z ENDP ; CDataOfChartListPage::GetGraphType
; Function compile flags: /Ogtp
; File D:\git\src\IBK\IBK_DRFN\ProjSrc\SrcChartEx\ChartAddIn\ChartDesignPropertyAddIn\ChartDesignPropertyAddIn\DataOfChartListPage.cpp
;	COMDAT ?GetGraphTypeWhenNoTypeInfo@CDataOfChartListPage@@AAE?AV?$CStringT@DV?$StrTraitMFC_DLL@DV?$ChTraitsCRT@D@ATL@@@@@ATL@@H@Z
_TEXT	SEGMENT
___$ReturnUdt$ = 8					; size = 4
_nGraphType$ = 12					; size = 4
?GetGraphTypeWhenNoTypeInfo@CDataOfChartListPage@@AAE?AV?$CStringT@DV?$StrTraitMFC_DLL@DV?$ChTraitsCRT@D@ATL@@@@@ATL@@H@Z PROC ; CDataOfChartListPage::GetGraphTypeWhenNoTypeInfo, COMDAT
; _this$ = ecx

; 301  : {

  00000	55		 push	 ebp
  00001	8b ec		 mov	 ebp, esp

; 302  : 	switch(nGraphType)

  00003	8b 45 0c	 mov	 eax, DWORD PTR _nGraphType$[ebp]
  00006	56		 push	 esi
  00007	83 f8 06	 cmp	 eax, 6
  0000a	0f 87 af 00 00
	00		 ja	 $LN5@GetGraphTy
  00010	ff 24 85 00 00
	00 00		 jmp	 DWORD PTR $LN15@GetGraphTy[eax*4]
$LN4@GetGraphTy:

; 303  : 	{
; 304  : 	case CGraphBaseData::Bong_Type:
; 305  : 		return _MTEXT( C5_CANDLE_TYPE);

  00017	a1 54 00 00 00	 mov	 eax, DWORD PTR ?g_iMetaTable@@3VIMetaTable@@A+84

; 319  : 	}
; 320  : }

  0001c	8b 4d 08	 mov	 ecx, DWORD PTR ___$ReturnUdt$[ebp]
  0001f	ff b0 dc 07 00
	00		 push	 DWORD PTR [eax+2012]
  00025	ff 15 00 00 00
	00		 call	 DWORD PTR __imp_??0?$CStringT@DV?$StrTraitMFC_DLL@DV?$ChTraitsCRT@D@ATL@@@@@ATL@@QAE@PBD@Z
  0002b	8b 45 08	 mov	 eax, DWORD PTR ___$ReturnUdt$[ebp]
  0002e	5e		 pop	 esi
  0002f	5d		 pop	 ebp
  00030	c2 08 00	 ret	 8
$LN7@GetGraphTy:

; 309  : 	case CGraphBaseData::Bar_Type:
; 310  : 		return _MTEXT( C5_BAR_TYPE);

  00033	a1 54 00 00 00	 mov	 eax, DWORD PTR ?g_iMetaTable@@3VIMetaTable@@A+84

; 319  : 	}
; 320  : }

  00038	8b 4d 08	 mov	 ecx, DWORD PTR ___$ReturnUdt$[ebp]
  0003b	ff b0 e4 07 00
	00		 push	 DWORD PTR [eax+2020]
  00041	ff 15 00 00 00
	00		 call	 DWORD PTR __imp_??0?$CStringT@DV?$StrTraitMFC_DLL@DV?$ChTraitsCRT@D@ATL@@@@@ATL@@QAE@PBD@Z
  00047	8b 45 08	 mov	 eax, DWORD PTR ___$ReturnUdt$[ebp]
  0004a	5e		 pop	 esi
  0004b	5d		 pop	 ebp
  0004c	c2 08 00	 ret	 8
$LN8@GetGraphTy:

; 311  : 	case CGraphBaseData::Pie_Type:
; 312  : 		return _MTEXT( C5_PIE_TYPE);

  0004f	a1 54 00 00 00	 mov	 eax, DWORD PTR ?g_iMetaTable@@3VIMetaTable@@A+84

; 319  : 	}
; 320  : }

  00054	8b 4d 08	 mov	 ecx, DWORD PTR ___$ReturnUdt$[ebp]
  00057	ff b0 e8 07 00
	00		 push	 DWORD PTR [eax+2024]
  0005d	ff 15 00 00 00
	00		 call	 DWORD PTR __imp_??0?$CStringT@DV?$StrTraitMFC_DLL@DV?$ChTraitsCRT@D@ATL@@@@@ATL@@QAE@PBD@Z
  00063	8b 45 08	 mov	 eax, DWORD PTR ___$ReturnUdt$[ebp]
  00066	5e		 pop	 esi
  00067	5d		 pop	 ebp
  00068	c2 08 00	 ret	 8
$LN9@GetGraphTy:

; 313  : 	case CGraphBaseData::Special_Type:
; 314  : 		return _MTEXT( C5_SPECIAL_TYPE);

  0006b	a1 54 00 00 00	 mov	 eax, DWORD PTR ?g_iMetaTable@@3VIMetaTable@@A+84

; 319  : 	}
; 320  : }

  00070	8b 4d 08	 mov	 ecx, DWORD PTR ___$ReturnUdt$[ebp]
  00073	ff b0 ec 07 00
	00		 push	 DWORD PTR [eax+2028]
  00079	ff 15 00 00 00
	00		 call	 DWORD PTR __imp_??0?$CStringT@DV?$StrTraitMFC_DLL@DV?$ChTraitsCRT@D@ATL@@@@@ATL@@QAE@PBD@Z
  0007f	8b 45 08	 mov	 eax, DWORD PTR ___$ReturnUdt$[ebp]
  00082	5e		 pop	 esi
  00083	5d		 pop	 ebp
  00084	c2 08 00	 ret	 8
$LN10@GetGraphTy:

; 315  : 	case CGraphBaseData::Fund_Type:
; 316  : 		return _MTEXT( C5_FUND_TYPE);

  00087	a1 54 00 00 00	 mov	 eax, DWORD PTR ?g_iMetaTable@@3VIMetaTable@@A+84

; 319  : 	}
; 320  : }

  0008c	8b 4d 08	 mov	 ecx, DWORD PTR ___$ReturnUdt$[ebp]
  0008f	ff b0 f0 07 00
	00		 push	 DWORD PTR [eax+2032]
  00095	ff 15 00 00 00
	00		 call	 DWORD PTR __imp_??0?$CStringT@DV?$StrTraitMFC_DLL@DV?$ChTraitsCRT@D@ATL@@@@@ATL@@QAE@PBD@Z
  0009b	8b 45 08	 mov	 eax, DWORD PTR ___$ReturnUdt$[ebp]
  0009e	5e		 pop	 esi
  0009f	5d		 pop	 ebp
  000a0	c2 08 00	 ret	 8
$LN11@GetGraphTy:

; 317  : 	case CGraphBaseData::DataView_Type:
; 318  : 		return _MTEXT( C5_DATA_EXPRESSION_TYPE);

  000a3	a1 54 00 00 00	 mov	 eax, DWORD PTR ?g_iMetaTable@@3VIMetaTable@@A+84

; 319  : 	}
; 320  : }

  000a8	8b 4d 08	 mov	 ecx, DWORD PTR ___$ReturnUdt$[ebp]
  000ab	ff b0 f4 07 00
	00		 push	 DWORD PTR [eax+2036]
  000b1	ff 15 00 00 00
	00		 call	 DWORD PTR __imp_??0?$CStringT@DV?$StrTraitMFC_DLL@DV?$ChTraitsCRT@D@ATL@@@@@ATL@@QAE@PBD@Z
  000b7	8b 45 08	 mov	 eax, DWORD PTR ___$ReturnUdt$[ebp]
  000ba	5e		 pop	 esi
  000bb	5d		 pop	 ebp
  000bc	c2 08 00	 ret	 8
$LN5@GetGraphTy:

; 306  : 	default:
; 307  : 	case CGraphBaseData::Line_Type:
; 308  : 		return _MTEXT( C5_LINE_TYPE);

  000bf	a1 54 00 00 00	 mov	 eax, DWORD PTR ?g_iMetaTable@@3VIMetaTable@@A+84

; 319  : 	}
; 320  : }

  000c4	8b 4d 08	 mov	 ecx, DWORD PTR ___$ReturnUdt$[ebp]
  000c7	ff b0 e0 07 00
	00		 push	 DWORD PTR [eax+2016]
  000cd	ff 15 00 00 00
	00		 call	 DWORD PTR __imp_??0?$CStringT@DV?$StrTraitMFC_DLL@DV?$ChTraitsCRT@D@ATL@@@@@ATL@@QAE@PBD@Z
  000d3	8b 45 08	 mov	 eax, DWORD PTR ___$ReturnUdt$[ebp]
  000d6	5e		 pop	 esi
  000d7	5d		 pop	 ebp
  000d8	c2 08 00	 ret	 8
  000db	90		 npad	 1
$LN15@GetGraphTy:
  000dc	00 00 00 00	 DD	 $LN4@GetGraphTy
  000e0	00 00 00 00	 DD	 $LN5@GetGraphTy
  000e4	00 00 00 00	 DD	 $LN7@GetGraphTy
  000e8	00 00 00 00	 DD	 $LN8@GetGraphTy
  000ec	00 00 00 00	 DD	 $LN9@GetGraphTy
  000f0	00 00 00 00	 DD	 $LN10@GetGraphTy
  000f4	00 00 00 00	 DD	 $LN11@GetGraphTy
?GetGraphTypeWhenNoTypeInfo@CDataOfChartListPage@@AAE?AV?$CStringT@DV?$StrTraitMFC_DLL@DV?$ChTraitsCRT@D@ATL@@@@@ATL@@H@Z ENDP ; CDataOfChartListPage::GetGraphTypeWhenNoTypeInfo
_TEXT	ENDS
; Function compile flags: /Ogtp
; File D:\git\src\IBK\IBK_DRFN\ProjSrc\SrcChartEx\ChartAddIn\ChartDesignPropertyAddIn\ChartDesignPropertyAddIn\DataOfChartListPage.cpp
;	COMDAT ??1CDataOfChartListPage@@UAE@XZ
_TEXT	SEGMENT
??1CDataOfChartListPage@@UAE@XZ PROC			; CDataOfChartListPage::~CDataOfChartListPage, COMDAT
; _this$ = ecx

; 42   : {

  00000	c7 01 00 00 00
	00		 mov	 DWORD PTR [ecx], OFFSET ??_7CDataOfChartListPage@@6B@

; 43   : 
; 44   : }

  00006	c3		 ret	 0
??1CDataOfChartListPage@@UAE@XZ ENDP			; CDataOfChartListPage::~CDataOfChartListPage
_TEXT	ENDS
; Function compile flags: /Ogtp
; File D:\git\src\IBK\IBK_DRFN\ProjSrc\SrcChartEx\ChartAddIn\ChartDesignPropertyAddIn\ChartDesignPropertyAddIn\DataOfChartListPage.cpp
;	COMDAT ??0CDataOfChartListPage@@QAE@PAUHWND__@@@Z
_TEXT	SEGMENT
_p_hOcxWnd$ = 8						; size = 4
??0CDataOfChartListPage@@QAE@PAUHWND__@@@Z PROC		; CDataOfChartListPage::CDataOfChartListPage, COMDAT
; _this$ = ecx

; 36   : {

  00000	55		 push	 ebp
  00001	8b ec		 mov	 ebp, esp

; 37   : 	// (2008/1/14 - Seung-Won, Bae) for MultiLanguage.
; 38   : 	m_hOcxWnd = p_hOcxWnd;

  00003	8b 45 08	 mov	 eax, DWORD PTR _p_hOcxWnd$[ebp]
  00006	89 41 10	 mov	 DWORD PTR [ecx+16], eax

; 39   : }

  00009	8b c1		 mov	 eax, ecx
  0000b	c7 01 00 00 00
	00		 mov	 DWORD PTR [ecx], OFFSET ??_7CDataOfChartListPage@@6B@
  00011	5d		 pop	 ebp
  00012	c2 04 00	 ret	 4
??0CDataOfChartListPage@@QAE@PAUHWND__@@@Z ENDP		; CDataOfChartListPage::CDataOfChartListPage
_TEXT	ENDS
; Function compile flags: /Ogtp
; File D:\git\src\IBK\IBK_DRFN\ProjSrc\SrcChartEx\ChartAddIn\ChartDesignPropertyAddIn\ChartDesignPropertyAddIn\DataOfChartListPage.cpp
;	COMDAT ??0CDataOfChartListPage@@QAE@HHPAVCMyTreeCtrl@@PAUHWND__@@@Z
_TEXT	SEGMENT
_nRow$ = 8						; size = 4
_nColumn$ = 12						; size = 4
_pTreeChart$ = 16					; size = 4
_p_hOcxWnd$ = 20					; size = 4
??0CDataOfChartListPage@@QAE@HHPAVCMyTreeCtrl@@PAUHWND__@@@Z PROC ; CDataOfChartListPage::CDataOfChartListPage, COMDAT
; _this$ = ecx

; 26   : {

  00000	55		 push	 ebp
  00001	8b ec		 mov	 ebp, esp

; 27   : 	m_pTreeChart = pTreeChart;

  00003	8b 45 10	 mov	 eax, DWORD PTR _pTreeChart$[ebp]
  00006	89 41 0c	 mov	 DWORD PTR [ecx+12], eax

; 28   : 	m_nRow = nRow;

  00009	8b 45 08	 mov	 eax, DWORD PTR _nRow$[ebp]
  0000c	89 41 08	 mov	 DWORD PTR [ecx+8], eax

; 29   : 	m_nColumn = nColumn;

  0000f	8b 45 0c	 mov	 eax, DWORD PTR _nColumn$[ebp]
  00012	89 41 04	 mov	 DWORD PTR [ecx+4], eax

; 30   : 
; 31   : 	// (2008/1/14 - Seung-Won, Bae) for MultiLanguage.
; 32   : 	m_hOcxWnd = p_hOcxWnd;

  00015	8b 45 14	 mov	 eax, DWORD PTR _p_hOcxWnd$[ebp]
  00018	89 41 10	 mov	 DWORD PTR [ecx+16], eax

; 33   : }

  0001b	8b c1		 mov	 eax, ecx
  0001d	c7 01 00 00 00
	00		 mov	 DWORD PTR [ecx], OFFSET ??_7CDataOfChartListPage@@6B@
  00023	5d		 pop	 ebp
  00024	c2 10 00	 ret	 16			; 00000010H
??0CDataOfChartListPage@@QAE@HHPAVCMyTreeCtrl@@PAUHWND__@@@Z ENDP ; CDataOfChartListPage::CDataOfChartListPage
_TEXT	ENDS
; Function compile flags: /Ogtp
; File D:\git\src\IBK\IBK_DRFN\ProjSrc\SrcChartEx\ChartAddIn\ChartDesignPropertyAddIn\ChartDesignPropertyAddIn\DataOfChartListPage.cpp
;	COMDAT ?SetData@CDataOfChartListPage@@QAEXABV?$CStringT@DV?$StrTraitMFC_DLL@DV?$ChTraitsCRT@D@ATL@@@@@ATL@@PAUIGraphInfoManager134661@@@Z
_TEXT	SEGMENT
_pVertiScale$1$ = -92					; size = 4
_nBlockCount$1$ = -92					; size = 4
$T2 = -92						; size = 4
_nScaleGroupCount$1$ = -88				; size = 4
$T3 = -88						; size = 4
_nBlockCount$1$ = -84					; size = 4
$T4 = -84						; size = 4
$T5 = -80						; size = 4
$T6 = -76						; size = 4
_nScale$1$ = -72					; size = 4
$T7 = -72						; size = 4
$T8 = -72						; size = 4
$T9 = -72						; size = 4
$T10 = -72						; size = 4
$T11 = -68						; size = 4
_strGraph$12 = -68					; size = 4
$T13 = -64						; size = 4
$T14 = -64						; size = 4
$T15 = -60						; size = 4
$T16 = -60						; size = 4
$T17 = -56						; size = 4
$T18 = -52						; size = 4
$T19 = -48						; size = 4
$T20 = -44						; size = 4
$T21 = -40						; size = 4
$T22 = -36						; size = 4
$T23 = -32						; size = 4
$T24 = -28						; size = 4
_i$1$ = -24						; size = 4
$T25 = -24						; size = 4
$T26 = -24						; size = 4
_strBlockData$27 = -20					; size = 4
_strBlockData$28 = -20					; size = 4
_ScaleGroup$29 = -16					; size = 4
__$EHRec$ = -12						; size = 12
__szData$ = 8						; size = 4
_strChartListPageData$ = 8				; size = 4
_p_pIGraphInfoManager$ = 12				; size = 4
?SetData@CDataOfChartListPage@@QAEXABV?$CStringT@DV?$StrTraitMFC_DLL@DV?$ChTraitsCRT@D@ATL@@@@@ATL@@PAUIGraphInfoManager134661@@@Z PROC ; CDataOfChartListPage::SetData, COMDAT
; _this$ = ecx

; 324  : {

  00000	55		 push	 ebp
  00001	8b ec		 mov	 ebp, esp
  00003	6a ff		 push	 -1
  00005	68 00 00 00 00	 push	 __ehhandler$?SetData@CDataOfChartListPage@@QAEXABV?$CStringT@DV?$StrTraitMFC_DLL@DV?$ChTraitsCRT@D@ATL@@@@@ATL@@PAUIGraphInfoManager134661@@@Z
  0000a	64 a1 00 00 00
	00		 mov	 eax, DWORD PTR fs:0
  00010	50		 push	 eax
  00011	83 ec 54	 sub	 esp, 84			; 00000054H
  00014	53		 push	 ebx
  00015	56		 push	 esi
  00016	57		 push	 edi
  00017	a1 00 00 00 00	 mov	 eax, DWORD PTR ___security_cookie
  0001c	33 c5		 xor	 eax, ebp
  0001e	50		 push	 eax
  0001f	8d 45 f4	 lea	 eax, DWORD PTR __$EHRec$[ebp]
  00022	64 a3 00 00 00
	00		 mov	 DWORD PTR fs:0, eax
  00028	8b f1		 mov	 esi, ecx

; 325  : 	CString _szData = strChartListPageData;

  0002a	ff 75 08	 push	 DWORD PTR _strChartListPageData$[ebp]
  0002d	8d 4d 08	 lea	 ecx, DWORD PTR __szData$[ebp]
  00030	ff 15 00 00 00
	00		 call	 DWORD PTR __imp_??0?$CStringT@DV?$StrTraitMFC_DLL@DV?$ChTraitsCRT@D@ATL@@@@@ATL@@QAE@ABV01@@Z

; 326  : 
; 327  : 	// (2006/11/15 - Seung-Won, Bae) Logic Adjusting
; 328  : 	if( _szData.Find("VertScaleGroup;\r\n") > 0)

  00036	6a 00		 push	 0
  00038	68 00 00 00 00	 push	 OFFSET ??_C@_0BC@DJOHDNOJ@VertScaleGroup?$DL?$AN?6@
  0003d	8d 4d 08	 lea	 ecx, DWORD PTR __szData$[ebp]
  00040	c7 45 fc 00 00
	00 00		 mov	 DWORD PTR __$EHRec$[ebp+8], 0
  00047	ff 15 00 00 00
	00		 call	 DWORD PTR __imp_?Find@?$CStringT@DV?$StrTraitMFC_DLL@DV?$ChTraitsCRT@D@ATL@@@@@ATL@@QBEHPBDH@Z
  0004d	68 00 00 00 00	 push	 OFFSET ??_C@_0P@GBPFOBGA@BlockColumn?$DL?$AN?6@
  00052	85 c0		 test	 eax, eax
  00054	0f 8e 49 03 00
	00		 jle	 $LN17@SetData

; 329  : 	{ 
; 330  : 		CDataConversion::GetStringData(_szData, "BlockColumn;\r\n");

  0005a	8d 4d e8	 lea	 ecx, DWORD PTR $T26[ebp]
  0005d	ff 15 00 00 00
	00		 call	 DWORD PTR __imp_??0?$CStringT@DV?$StrTraitMFC_DLL@DV?$ChTraitsCRT@D@ATL@@@@@ATL@@QAE@PBD@Z
  00063	6a 01		 push	 1
  00065	8d 45 e8	 lea	 eax, DWORD PTR $T26[ebp]
  00068	c6 45 fc 01	 mov	 BYTE PTR __$EHRec$[ebp+8], 1
  0006c	50		 push	 eax
  0006d	8d 45 08	 lea	 eax, DWORD PTR __szData$[ebp]
  00070	50		 push	 eax
  00071	8d 45 b8	 lea	 eax, DWORD PTR $T10[ebp]
  00074	50		 push	 eax
  00075	e8 00 00 00 00	 call	 ?GetStringData@CDataConversion@@SA?AV?$CStringT@DV?$StrTraitMFC_DLL@DV?$ChTraitsCRT@D@ATL@@@@@ATL@@AAV23@ABV23@_N@Z ; CDataConversion::GetStringData
  0007a	83 c4 10	 add	 esp, 16			; 00000010H
  0007d	8d 4d b8	 lea	 ecx, DWORD PTR $T10[ebp]
  00080	ff 15 00 00 00
	00		 call	 DWORD PTR __imp_??1?$CStringT@DV?$StrTraitMFC_DLL@DV?$ChTraitsCRT@D@ATL@@@@@ATL@@QAE@XZ
  00086	8d 4d e8	 lea	 ecx, DWORD PTR $T26[ebp]
  00089	c6 45 fc 00	 mov	 BYTE PTR __$EHRec$[ebp+8], 0
  0008d	ff 15 00 00 00
	00		 call	 DWORD PTR __imp_??1?$CStringT@DV?$StrTraitMFC_DLL@DV?$ChTraitsCRT@D@ATL@@@@@ATL@@QAE@XZ

; 331  : 		int nBlockCount = CDataConversion::GetStringDataCount(_szData, "Block;\r\n");

  00093	68 00 00 00 00	 push	 OFFSET ??_C@_08KGLHHGPJ@Block?$DL?$AN?6@
  00098	8d 4d e8	 lea	 ecx, DWORD PTR $T25[ebp]
  0009b	ff 15 00 00 00
	00		 call	 DWORD PTR __imp_??0?$CStringT@DV?$StrTraitMFC_DLL@DV?$ChTraitsCRT@D@ATL@@@@@ATL@@QAE@PBD@Z
  000a1	8d 45 e8	 lea	 eax, DWORD PTR $T25[ebp]
  000a4	c6 45 fc 02	 mov	 BYTE PTR __$EHRec$[ebp+8], 2
  000a8	50		 push	 eax
  000a9	8d 45 08	 lea	 eax, DWORD PTR __szData$[ebp]
  000ac	50		 push	 eax
  000ad	e8 00 00 00 00	 call	 ?GetStringDataCount@CDataConversion@@SAHABV?$CStringT@DV?$StrTraitMFC_DLL@DV?$ChTraitsCRT@D@ATL@@@@@ATL@@0@Z ; CDataConversion::GetStringDataCount
  000b2	83 c4 08	 add	 esp, 8
  000b5	c6 45 fc 00	 mov	 BYTE PTR __$EHRec$[ebp+8], 0
  000b9	8b f8		 mov	 edi, eax
  000bb	8d 4d e8	 lea	 ecx, DWORD PTR $T25[ebp]
  000be	89 7d a4	 mov	 DWORD PTR _nBlockCount$1$[ebp], edi
  000c1	ff 15 00 00 00
	00		 call	 DWORD PTR __imp_??1?$CStringT@DV?$StrTraitMFC_DLL@DV?$ChTraitsCRT@D@ATL@@@@@ATL@@QAE@XZ

; 332  : 		for(int i = 0 ; i < nBlockCount ; i++)

  000c7	33 db		 xor	 ebx, ebx
  000c9	89 5d e8	 mov	 DWORD PTR _i$1$[ebp], ebx
  000cc	85 ff		 test	 edi, edi
  000ce	0f 8e 83 04 00
	00		 jle	 $LN12@SetData
  000d4	0f 1f 40 00 0f
	1f 84 00 00 00
	00 00		 npad	 12
$LL4@SetData:

; 333  : 		{
; 334  : 			CDataConversion::GetStringData( _szData, "Block;\r\n");

  000e0	68 00 00 00 00	 push	 OFFSET ??_C@_08KGLHHGPJ@Block?$DL?$AN?6@
  000e5	8d 4d e4	 lea	 ecx, DWORD PTR $T24[ebp]
  000e8	ff 15 00 00 00
	00		 call	 DWORD PTR __imp_??0?$CStringT@DV?$StrTraitMFC_DLL@DV?$ChTraitsCRT@D@ATL@@@@@ATL@@QAE@PBD@Z
  000ee	6a 01		 push	 1
  000f0	8d 45 e4	 lea	 eax, DWORD PTR $T24[ebp]
  000f3	c6 45 fc 03	 mov	 BYTE PTR __$EHRec$[ebp+8], 3
  000f7	50		 push	 eax
  000f8	8d 45 08	 lea	 eax, DWORD PTR __szData$[ebp]
  000fb	50		 push	 eax
  000fc	8d 45 b4	 lea	 eax, DWORD PTR $T6[ebp]
  000ff	50		 push	 eax
  00100	e8 00 00 00 00	 call	 ?GetStringData@CDataConversion@@SA?AV?$CStringT@DV?$StrTraitMFC_DLL@DV?$ChTraitsCRT@D@ATL@@@@@ATL@@AAV23@ABV23@_N@Z ; CDataConversion::GetStringData
  00105	83 c4 10	 add	 esp, 16			; 00000010H
  00108	8d 4d b4	 lea	 ecx, DWORD PTR $T6[ebp]
  0010b	ff 15 00 00 00
	00		 call	 DWORD PTR __imp_??1?$CStringT@DV?$StrTraitMFC_DLL@DV?$ChTraitsCRT@D@ATL@@@@@ATL@@QAE@XZ
  00111	8d 4d e4	 lea	 ecx, DWORD PTR $T24[ebp]
  00114	c6 45 fc 00	 mov	 BYTE PTR __$EHRec$[ebp+8], 0
  00118	ff 15 00 00 00
	00		 call	 DWORD PTR __imp_??1?$CStringT@DV?$StrTraitMFC_DLL@DV?$ChTraitsCRT@D@ATL@@@@@ATL@@QAE@XZ

; 335  : 			CString strBlockData = CDataConversion::GetStringData(_szData, "BlockEnd;\r\n");

  0011e	68 00 00 00 00	 push	 OFFSET ??_C@_0M@FHFNKLHB@BlockEnd?$DL?$AN?6@
  00123	8d 4d e0	 lea	 ecx, DWORD PTR $T23[ebp]
  00126	ff 15 00 00 00
	00		 call	 DWORD PTR __imp_??0?$CStringT@DV?$StrTraitMFC_DLL@DV?$ChTraitsCRT@D@ATL@@@@@ATL@@QAE@PBD@Z
  0012c	6a 01		 push	 1
  0012e	8d 45 e0	 lea	 eax, DWORD PTR $T23[ebp]
  00131	c6 45 fc 04	 mov	 BYTE PTR __$EHRec$[ebp+8], 4
  00135	50		 push	 eax
  00136	8d 45 08	 lea	 eax, DWORD PTR __szData$[ebp]
  00139	50		 push	 eax
  0013a	8d 45 ec	 lea	 eax, DWORD PTR _strBlockData$28[ebp]
  0013d	50		 push	 eax
  0013e	e8 00 00 00 00	 call	 ?GetStringData@CDataConversion@@SA?AV?$CStringT@DV?$StrTraitMFC_DLL@DV?$ChTraitsCRT@D@ATL@@@@@ATL@@AAV23@ABV23@_N@Z ; CDataConversion::GetStringData
  00143	83 c4 10	 add	 esp, 16			; 00000010H
  00146	8d 4d e0	 lea	 ecx, DWORD PTR $T23[ebp]
  00149	c6 45 fc 06	 mov	 BYTE PTR __$EHRec$[ebp+8], 6
  0014d	ff 15 00 00 00
	00		 call	 DWORD PTR __imp_??1?$CStringT@DV?$StrTraitMFC_DLL@DV?$ChTraitsCRT@D@ATL@@@@@ATL@@QAE@XZ

; 336  : 			SetBlockItem(i, CDataConversion::GetStringData(strBlockData, "\r\n"));

  00153	68 00 00 00 00	 push	 OFFSET ??_C@_02PCIJFNDE@?$AN?6@
  00158	8d 4d dc	 lea	 ecx, DWORD PTR $T22[ebp]
  0015b	ff 15 00 00 00
	00		 call	 DWORD PTR __imp_??0?$CStringT@DV?$StrTraitMFC_DLL@DV?$ChTraitsCRT@D@ATL@@@@@ATL@@QAE@PBD@Z
  00161	51		 push	 ecx
  00162	8b c4		 mov	 eax, esp
  00164	c6 45 fc 07	 mov	 BYTE PTR __$EHRec$[ebp+8], 7
  00168	6a 01		 push	 1
  0016a	8d 4d dc	 lea	 ecx, DWORD PTR $T22[ebp]
  0016d	51		 push	 ecx
  0016e	8d 4d ec	 lea	 ecx, DWORD PTR _strBlockData$28[ebp]
  00171	51		 push	 ecx
  00172	50		 push	 eax
  00173	e8 00 00 00 00	 call	 ?GetStringData@CDataConversion@@SA?AV?$CStringT@DV?$StrTraitMFC_DLL@DV?$ChTraitsCRT@D@ATL@@@@@ATL@@AAV23@ABV23@_N@Z ; CDataConversion::GetStringData
  00178	83 c4 10	 add	 esp, 16			; 00000010H
  0017b	8b ce		 mov	 ecx, esi
  0017d	53		 push	 ebx
  0017e	e8 00 00 00 00	 call	 ?SetBlockItem@CDataOfChartListPage@@AAEXHV?$CStringT@DV?$StrTraitMFC_DLL@DV?$ChTraitsCRT@D@ATL@@@@@ATL@@@Z ; CDataOfChartListPage::SetBlockItem
  00183	8d 4d dc	 lea	 ecx, DWORD PTR $T22[ebp]
  00186	c6 45 fc 06	 mov	 BYTE PTR __$EHRec$[ebp+8], 6
  0018a	ff 15 00 00 00
	00		 call	 DWORD PTR __imp_??1?$CStringT@DV?$StrTraitMFC_DLL@DV?$ChTraitsCRT@D@ATL@@@@@ATL@@QAE@XZ

; 337  : 			int nScaleGroupCount = CDataConversion::GetStringDataCount(strBlockData, "VertScaleGroup;\r\n");

  00190	68 00 00 00 00	 push	 OFFSET ??_C@_0BC@DJOHDNOJ@VertScaleGroup?$DL?$AN?6@
  00195	8d 4d d8	 lea	 ecx, DWORD PTR $T21[ebp]
  00198	ff 15 00 00 00
	00		 call	 DWORD PTR __imp_??0?$CStringT@DV?$StrTraitMFC_DLL@DV?$ChTraitsCRT@D@ATL@@@@@ATL@@QAE@PBD@Z
  0019e	8d 45 d8	 lea	 eax, DWORD PTR $T21[ebp]
  001a1	c6 45 fc 08	 mov	 BYTE PTR __$EHRec$[ebp+8], 8
  001a5	50		 push	 eax
  001a6	8d 45 ec	 lea	 eax, DWORD PTR _strBlockData$28[ebp]
  001a9	50		 push	 eax
  001aa	e8 00 00 00 00	 call	 ?GetStringDataCount@CDataConversion@@SAHABV?$CStringT@DV?$StrTraitMFC_DLL@DV?$ChTraitsCRT@D@ATL@@@@@ATL@@0@Z ; CDataConversion::GetStringDataCount
  001af	83 c4 08	 add	 esp, 8
  001b2	c6 45 fc 06	 mov	 BYTE PTR __$EHRec$[ebp+8], 6
  001b6	8b f8		 mov	 edi, eax
  001b8	8d 4d d8	 lea	 ecx, DWORD PTR $T21[ebp]
  001bb	89 7d a8	 mov	 DWORD PTR _nScaleGroupCount$1$[ebp], edi
  001be	ff 15 00 00 00
	00		 call	 DWORD PTR __imp_??1?$CStringT@DV?$StrTraitMFC_DLL@DV?$ChTraitsCRT@D@ATL@@@@@ATL@@QAE@XZ

; 338  : 			for(int nScale = 0 ; nScale< nScaleGroupCount ; nScale++)

  001c4	33 db		 xor	 ebx, ebx
  001c6	89 5d b8	 mov	 DWORD PTR _nScale$1$[ebp], ebx
  001c9	85 ff		 test	 edi, edi
  001cb	0f 8e b0 01 00
	00		 jle	 $LN6@SetData
$LL7@SetData:

; 339  : 			{
; 340  : 				CDataConversion::GetStringData(strBlockData, "VertScaleGroup;\r\n");

  001d1	68 00 00 00 00	 push	 OFFSET ??_C@_0BC@DJOHDNOJ@VertScaleGroup?$DL?$AN?6@
  001d6	8d 4d d4	 lea	 ecx, DWORD PTR $T20[ebp]
  001d9	ff 15 00 00 00
	00		 call	 DWORD PTR __imp_??0?$CStringT@DV?$StrTraitMFC_DLL@DV?$ChTraitsCRT@D@ATL@@@@@ATL@@QAE@PBD@Z
  001df	6a 01		 push	 1
  001e1	8d 45 d4	 lea	 eax, DWORD PTR $T20[ebp]
  001e4	c6 45 fc 09	 mov	 BYTE PTR __$EHRec$[ebp+8], 9
  001e8	50		 push	 eax
  001e9	8d 45 ec	 lea	 eax, DWORD PTR _strBlockData$28[ebp]
  001ec	50		 push	 eax
  001ed	8d 45 b0	 lea	 eax, DWORD PTR $T5[ebp]
  001f0	50		 push	 eax
  001f1	e8 00 00 00 00	 call	 ?GetStringData@CDataConversion@@SA?AV?$CStringT@DV?$StrTraitMFC_DLL@DV?$ChTraitsCRT@D@ATL@@@@@ATL@@AAV23@ABV23@_N@Z ; CDataConversion::GetStringData
  001f6	83 c4 10	 add	 esp, 16			; 00000010H
  001f9	8d 4d b0	 lea	 ecx, DWORD PTR $T5[ebp]
  001fc	ff 15 00 00 00
	00		 call	 DWORD PTR __imp_??1?$CStringT@DV?$StrTraitMFC_DLL@DV?$ChTraitsCRT@D@ATL@@@@@ATL@@QAE@XZ
  00202	8d 4d d4	 lea	 ecx, DWORD PTR $T20[ebp]
  00205	c6 45 fc 06	 mov	 BYTE PTR __$EHRec$[ebp+8], 6
  00209	ff 15 00 00 00
	00		 call	 DWORD PTR __imp_??1?$CStringT@DV?$StrTraitMFC_DLL@DV?$ChTraitsCRT@D@ATL@@@@@ATL@@QAE@XZ

; 341  : 				CString ScaleGroup = CDataConversion::GetStringData(strBlockData, "VertScaleGroupEnd;\r\n");

  0020f	68 00 00 00 00	 push	 OFFSET ??_C@_0BF@DDJNMPKE@VertScaleGroupEnd?$DL?$AN?6@
  00214	8d 4d d0	 lea	 ecx, DWORD PTR $T19[ebp]
  00217	ff 15 00 00 00
	00		 call	 DWORD PTR __imp_??0?$CStringT@DV?$StrTraitMFC_DLL@DV?$ChTraitsCRT@D@ATL@@@@@ATL@@QAE@PBD@Z
  0021d	6a 01		 push	 1
  0021f	8d 45 d0	 lea	 eax, DWORD PTR $T19[ebp]
  00222	c6 45 fc 0a	 mov	 BYTE PTR __$EHRec$[ebp+8], 10 ; 0000000aH
  00226	50		 push	 eax
  00227	8d 45 ec	 lea	 eax, DWORD PTR _strBlockData$28[ebp]
  0022a	50		 push	 eax
  0022b	8d 45 f0	 lea	 eax, DWORD PTR _ScaleGroup$29[ebp]
  0022e	50		 push	 eax
  0022f	e8 00 00 00 00	 call	 ?GetStringData@CDataConversion@@SA?AV?$CStringT@DV?$StrTraitMFC_DLL@DV?$ChTraitsCRT@D@ATL@@@@@ATL@@AAV23@ABV23@_N@Z ; CDataConversion::GetStringData
  00234	83 c4 10	 add	 esp, 16			; 00000010H
  00237	8d 4d d0	 lea	 ecx, DWORD PTR $T19[ebp]
  0023a	c6 45 fc 0c	 mov	 BYTE PTR __$EHRec$[ebp+8], 12 ; 0000000cH
  0023e	ff 15 00 00 00
	00		 call	 DWORD PTR __imp_??1?$CStringT@DV?$StrTraitMFC_DLL@DV?$ChTraitsCRT@D@ATL@@@@@ATL@@QAE@XZ

; 342  : 				CChartLink* pVertiScale = SetVerticalScaleItem(nScale, CDataConversion::GetStringData(ScaleGroup, "\r\n"));

  00244	68 00 00 00 00	 push	 OFFSET ??_C@_02PCIJFNDE@?$AN?6@
  00249	8d 4d cc	 lea	 ecx, DWORD PTR $T18[ebp]
  0024c	ff 15 00 00 00
	00		 call	 DWORD PTR __imp_??0?$CStringT@DV?$StrTraitMFC_DLL@DV?$ChTraitsCRT@D@ATL@@@@@ATL@@QAE@PBD@Z
  00252	51		 push	 ecx
  00253	8b c4		 mov	 eax, esp
  00255	c6 45 fc 0d	 mov	 BYTE PTR __$EHRec$[ebp+8], 13 ; 0000000dH
  00259	6a 01		 push	 1
  0025b	8d 4d cc	 lea	 ecx, DWORD PTR $T18[ebp]
  0025e	51		 push	 ecx
  0025f	8d 4d f0	 lea	 ecx, DWORD PTR _ScaleGroup$29[ebp]
  00262	51		 push	 ecx
  00263	50		 push	 eax
  00264	e8 00 00 00 00	 call	 ?GetStringData@CDataConversion@@SA?AV?$CStringT@DV?$StrTraitMFC_DLL@DV?$ChTraitsCRT@D@ATL@@@@@ATL@@AAV23@ABV23@_N@Z ; CDataConversion::GetStringData
  00269	83 c4 10	 add	 esp, 16			; 00000010H
  0026c	8b ce		 mov	 ecx, esi
  0026e	53		 push	 ebx
  0026f	e8 00 00 00 00	 call	 ?SetVerticalScaleItem@CDataOfChartListPage@@AAEPAVCChartLink@@HV?$CStringT@DV?$StrTraitMFC_DLL@DV?$ChTraitsCRT@D@ATL@@@@@ATL@@@Z ; CDataOfChartListPage::SetVerticalScaleItem
  00274	8d 4d cc	 lea	 ecx, DWORD PTR $T18[ebp]
  00277	c6 45 fc 0c	 mov	 BYTE PTR __$EHRec$[ebp+8], 12 ; 0000000cH
  0027b	8b d8		 mov	 ebx, eax
  0027d	ff 15 00 00 00
	00		 call	 DWORD PTR __imp_??1?$CStringT@DV?$StrTraitMFC_DLL@DV?$ChTraitsCRT@D@ATL@@@@@ATL@@QAE@XZ

; 343  : 				int nGraphCount = CDataConversion::GetStringDataCount(ScaleGroup, "Graph;\r\n");

  00283	68 00 00 00 00	 push	 OFFSET ??_C@_08BHMMGBBH@Graph?$DL?$AN?6@
  00288	8d 4d c8	 lea	 ecx, DWORD PTR $T17[ebp]
  0028b	ff 15 00 00 00
	00		 call	 DWORD PTR __imp_??0?$CStringT@DV?$StrTraitMFC_DLL@DV?$ChTraitsCRT@D@ATL@@@@@ATL@@QAE@PBD@Z
  00291	8d 45 c8	 lea	 eax, DWORD PTR $T17[ebp]
  00294	c6 45 fc 0e	 mov	 BYTE PTR __$EHRec$[ebp+8], 14 ; 0000000eH
  00298	50		 push	 eax
  00299	8d 45 f0	 lea	 eax, DWORD PTR _ScaleGroup$29[ebp]
  0029c	50		 push	 eax
  0029d	e8 00 00 00 00	 call	 ?GetStringDataCount@CDataConversion@@SAHABV?$CStringT@DV?$StrTraitMFC_DLL@DV?$ChTraitsCRT@D@ATL@@@@@ATL@@0@Z ; CDataConversion::GetStringDataCount
  002a2	83 c4 08	 add	 esp, 8
  002a5	c6 45 fc 0c	 mov	 BYTE PTR __$EHRec$[ebp+8], 12 ; 0000000cH
  002a9	8d 4d c8	 lea	 ecx, DWORD PTR $T17[ebp]
  002ac	8b f8		 mov	 edi, eax
  002ae	ff 15 00 00 00
	00		 call	 DWORD PTR __imp_??1?$CStringT@DV?$StrTraitMFC_DLL@DV?$ChTraitsCRT@D@ATL@@@@@ATL@@QAE@XZ

; 344  : 				for(int j = 0; j < nGraphCount ; j++)

  002b4	85 ff		 test	 edi, edi
  002b6	0f 8e a8 00 00
	00		 jle	 $LN9@SetData
  002bc	0f 1f 40 00	 npad	 4
$LL10@SetData:

; 345  : 				{
; 346  : 					CDataConversion::GetStringData( ScaleGroup, "Graph;\r\n");

  002c0	68 00 00 00 00	 push	 OFFSET ??_C@_08BHMMGBBH@Graph?$DL?$AN?6@
  002c5	8d 4d c4	 lea	 ecx, DWORD PTR $T16[ebp]
  002c8	ff 15 00 00 00
	00		 call	 DWORD PTR __imp_??0?$CStringT@DV?$StrTraitMFC_DLL@DV?$ChTraitsCRT@D@ATL@@@@@ATL@@QAE@PBD@Z
  002ce	6a 01		 push	 1
  002d0	8d 45 c4	 lea	 eax, DWORD PTR $T16[ebp]
  002d3	c6 45 fc 0f	 mov	 BYTE PTR __$EHRec$[ebp+8], 15 ; 0000000fH
  002d7	50		 push	 eax
  002d8	8d 45 f0	 lea	 eax, DWORD PTR _ScaleGroup$29[ebp]
  002db	50		 push	 eax
  002dc	8d 45 ac	 lea	 eax, DWORD PTR $T4[ebp]
  002df	50		 push	 eax
  002e0	e8 00 00 00 00	 call	 ?GetStringData@CDataConversion@@SA?AV?$CStringT@DV?$StrTraitMFC_DLL@DV?$ChTraitsCRT@D@ATL@@@@@ATL@@AAV23@ABV23@_N@Z ; CDataConversion::GetStringData
  002e5	83 c4 10	 add	 esp, 16			; 00000010H
  002e8	8d 4d ac	 lea	 ecx, DWORD PTR $T4[ebp]
  002eb	ff 15 00 00 00
	00		 call	 DWORD PTR __imp_??1?$CStringT@DV?$StrTraitMFC_DLL@DV?$ChTraitsCRT@D@ATL@@@@@ATL@@QAE@XZ
  002f1	8d 4d c4	 lea	 ecx, DWORD PTR $T16[ebp]
  002f4	c6 45 fc 0c	 mov	 BYTE PTR __$EHRec$[ebp+8], 12 ; 0000000cH
  002f8	ff 15 00 00 00
	00		 call	 DWORD PTR __imp_??1?$CStringT@DV?$StrTraitMFC_DLL@DV?$ChTraitsCRT@D@ATL@@@@@ATL@@QAE@XZ

; 347  : 					CString strGraph = CDataConversion::GetStringData( ScaleGroup, "GraphEnd;\r\n");

  002fe	68 00 00 00 00	 push	 OFFSET ??_C@_0M@DGHFHKEI@GraphEnd?$DL?$AN?6@
  00303	8d 4d c0	 lea	 ecx, DWORD PTR $T14[ebp]
  00306	ff 15 00 00 00
	00		 call	 DWORD PTR __imp_??0?$CStringT@DV?$StrTraitMFC_DLL@DV?$ChTraitsCRT@D@ATL@@@@@ATL@@QAE@PBD@Z
  0030c	6a 01		 push	 1
  0030e	8d 45 c0	 lea	 eax, DWORD PTR $T14[ebp]
  00311	c6 45 fc 10	 mov	 BYTE PTR __$EHRec$[ebp+8], 16 ; 00000010H
  00315	50		 push	 eax
  00316	8d 45 f0	 lea	 eax, DWORD PTR _ScaleGroup$29[ebp]
  00319	50		 push	 eax
  0031a	8d 45 bc	 lea	 eax, DWORD PTR _strGraph$12[ebp]
  0031d	50		 push	 eax
  0031e	e8 00 00 00 00	 call	 ?GetStringData@CDataConversion@@SA?AV?$CStringT@DV?$StrTraitMFC_DLL@DV?$ChTraitsCRT@D@ATL@@@@@ATL@@AAV23@ABV23@_N@Z ; CDataConversion::GetStringData
  00323	83 c4 10	 add	 esp, 16			; 00000010H
  00326	8d 4d c0	 lea	 ecx, DWORD PTR $T14[ebp]
  00329	c6 45 fc 12	 mov	 BYTE PTR __$EHRec$[ebp+8], 18 ; 00000012H
  0032d	ff 15 00 00 00
	00		 call	 DWORD PTR __imp_??1?$CStringT@DV?$StrTraitMFC_DLL@DV?$ChTraitsCRT@D@ATL@@@@@ATL@@QAE@XZ

; 348  : 					if(i < (m_nColumn * m_nRow)) SetItem( pVertiScale, strGraph, p_pIGraphInfoManager);

  00333	8b 46 04	 mov	 eax, DWORD PTR [esi+4]
  00336	0f af 46 08	 imul	 eax, DWORD PTR [esi+8]
  0033a	39 45 e8	 cmp	 DWORD PTR _i$1$[ebp], eax
  0033d	7d 0f		 jge	 SHORT $LN19@SetData
  0033f	ff 75 0c	 push	 DWORD PTR _p_pIGraphInfoManager$[ebp]
  00342	8d 45 bc	 lea	 eax, DWORD PTR _strGraph$12[ebp]
  00345	8b ce		 mov	 ecx, esi
  00347	50		 push	 eax
  00348	53		 push	 ebx
  00349	e8 00 00 00 00	 call	 ?SetItem@CDataOfChartListPage@@AAEXPAVCChartLink@@ABV?$CStringT@DV?$StrTraitMFC_DLL@DV?$ChTraitsCRT@D@ATL@@@@@ATL@@PAUIGraphInfoManager134661@@@Z ; CDataOfChartListPage::SetItem
$LN19@SetData:

; 349  : 				}

  0034e	8d 4d bc	 lea	 ecx, DWORD PTR _strGraph$12[ebp]
  00351	c6 45 fc 0c	 mov	 BYTE PTR __$EHRec$[ebp+8], 12 ; 0000000cH
  00355	ff 15 00 00 00
	00		 call	 DWORD PTR __imp_??1?$CStringT@DV?$StrTraitMFC_DLL@DV?$ChTraitsCRT@D@ATL@@@@@ATL@@QAE@XZ
  0035b	83 ef 01	 sub	 edi, 1
  0035e	0f 85 5c ff ff
	ff		 jne	 $LL10@SetData
$LN9@SetData:

; 350  : 			}

  00364	8d 4d f0	 lea	 ecx, DWORD PTR _ScaleGroup$29[ebp]
  00367	c6 45 fc 06	 mov	 BYTE PTR __$EHRec$[ebp+8], 6
  0036b	ff 15 00 00 00
	00		 call	 DWORD PTR __imp_??1?$CStringT@DV?$StrTraitMFC_DLL@DV?$ChTraitsCRT@D@ATL@@@@@ATL@@QAE@XZ
  00371	8b 5d b8	 mov	 ebx, DWORD PTR _nScale$1$[ebp]
  00374	43		 inc	 ebx
  00375	89 5d b8	 mov	 DWORD PTR _nScale$1$[ebp], ebx
  00378	3b 5d a8	 cmp	 ebx, DWORD PTR _nScaleGroupCount$1$[ebp]
  0037b	0f 8c 50 fe ff
	ff		 jl	 $LL7@SetData
$LN6@SetData:

; 351  : 		}

  00381	8d 4d ec	 lea	 ecx, DWORD PTR _strBlockData$28[ebp]
  00384	c6 45 fc 00	 mov	 BYTE PTR __$EHRec$[ebp+8], 0
  00388	ff 15 00 00 00
	00		 call	 DWORD PTR __imp_??1?$CStringT@DV?$StrTraitMFC_DLL@DV?$ChTraitsCRT@D@ATL@@@@@ATL@@QAE@XZ
  0038e	8b 5d e8	 mov	 ebx, DWORD PTR _i$1$[ebp]
  00391	43		 inc	 ebx
  00392	89 5d e8	 mov	 DWORD PTR _i$1$[ebp], ebx
  00395	3b 5d a4	 cmp	 ebx, DWORD PTR _nBlockCount$1$[ebp]
  00398	0f 8c 42 fd ff
	ff		 jl	 $LL4@SetData

; 352  : 	}

  0039e	e9 b4 01 00 00	 jmp	 $LN12@SetData
$LN17@SetData:

; 353  : 	else { //..
; 354  : 		CDataConversion::GetStringData(_szData, "BlockColumn;\r\n");

  003a3	8d 4d b8	 lea	 ecx, DWORD PTR $T9[ebp]
  003a6	ff 15 00 00 00
	00		 call	 DWORD PTR __imp_??0?$CStringT@DV?$StrTraitMFC_DLL@DV?$ChTraitsCRT@D@ATL@@@@@ATL@@QAE@PBD@Z
  003ac	6a 01		 push	 1
  003ae	8d 45 b8	 lea	 eax, DWORD PTR $T9[ebp]
  003b1	c6 45 fc 13	 mov	 BYTE PTR __$EHRec$[ebp+8], 19 ; 00000013H
  003b5	50		 push	 eax
  003b6	8d 45 08	 lea	 eax, DWORD PTR __szData$[ebp]
  003b9	50		 push	 eax
  003ba	8d 45 a4	 lea	 eax, DWORD PTR $T2[ebp]
  003bd	50		 push	 eax
  003be	e8 00 00 00 00	 call	 ?GetStringData@CDataConversion@@SA?AV?$CStringT@DV?$StrTraitMFC_DLL@DV?$ChTraitsCRT@D@ATL@@@@@ATL@@AAV23@ABV23@_N@Z ; CDataConversion::GetStringData
  003c3	83 c4 10	 add	 esp, 16			; 00000010H
  003c6	8d 4d a4	 lea	 ecx, DWORD PTR $T2[ebp]
  003c9	ff 15 00 00 00
	00		 call	 DWORD PTR __imp_??1?$CStringT@DV?$StrTraitMFC_DLL@DV?$ChTraitsCRT@D@ATL@@@@@ATL@@QAE@XZ
  003cf	8d 4d b8	 lea	 ecx, DWORD PTR $T9[ebp]
  003d2	c6 45 fc 00	 mov	 BYTE PTR __$EHRec$[ebp+8], 0
  003d6	ff 15 00 00 00
	00		 call	 DWORD PTR __imp_??1?$CStringT@DV?$StrTraitMFC_DLL@DV?$ChTraitsCRT@D@ATL@@@@@ATL@@QAE@XZ

; 355  : 		int nBlockCount = CDataConversion::GetStringDataCount(_szData, "Block;\r\n");

  003dc	68 00 00 00 00	 push	 OFFSET ??_C@_08KGLHHGPJ@Block?$DL?$AN?6@
  003e1	8d 4d b8	 lea	 ecx, DWORD PTR $T8[ebp]
  003e4	ff 15 00 00 00
	00		 call	 DWORD PTR __imp_??0?$CStringT@DV?$StrTraitMFC_DLL@DV?$ChTraitsCRT@D@ATL@@@@@ATL@@QAE@PBD@Z
  003ea	8d 45 b8	 lea	 eax, DWORD PTR $T8[ebp]
  003ed	c6 45 fc 14	 mov	 BYTE PTR __$EHRec$[ebp+8], 20 ; 00000014H
  003f1	50		 push	 eax
  003f2	8d 45 08	 lea	 eax, DWORD PTR __szData$[ebp]
  003f5	50		 push	 eax
  003f6	e8 00 00 00 00	 call	 ?GetStringDataCount@CDataConversion@@SAHABV?$CStringT@DV?$StrTraitMFC_DLL@DV?$ChTraitsCRT@D@ATL@@@@@ATL@@0@Z ; CDataConversion::GetStringDataCount
  003fb	83 c4 08	 add	 esp, 8
  003fe	c6 45 fc 00	 mov	 BYTE PTR __$EHRec$[ebp+8], 0
  00402	8b f8		 mov	 edi, eax
  00404	8d 4d b8	 lea	 ecx, DWORD PTR $T8[ebp]
  00407	89 7d ac	 mov	 DWORD PTR _nBlockCount$1$[ebp], edi
  0040a	ff 15 00 00 00
	00		 call	 DWORD PTR __imp_??1?$CStringT@DV?$StrTraitMFC_DLL@DV?$ChTraitsCRT@D@ATL@@@@@ATL@@QAE@XZ

; 356  : 		for(int i = 0 ; i < nBlockCount ; i++) {

  00410	33 db		 xor	 ebx, ebx
  00412	85 ff		 test	 edi, edi
  00414	0f 8e 3d 01 00
	00		 jle	 $LN12@SetData
  0041a	66 0f 1f 44 00
	00		 npad	 6
$LL13@SetData:

; 357  : 			CString strBlockData = CDataConversion::GetStringData(_szData, "BlockEnd;\r\n");

  00420	68 00 00 00 00	 push	 OFFSET ??_C@_0M@FHFNKLHB@BlockEnd?$DL?$AN?6@
  00425	8d 4d b8	 lea	 ecx, DWORD PTR $T7[ebp]
  00428	ff 15 00 00 00
	00		 call	 DWORD PTR __imp_??0?$CStringT@DV?$StrTraitMFC_DLL@DV?$ChTraitsCRT@D@ATL@@@@@ATL@@QAE@PBD@Z
  0042e	6a 01		 push	 1
  00430	8d 45 b8	 lea	 eax, DWORD PTR $T7[ebp]
  00433	c6 45 fc 15	 mov	 BYTE PTR __$EHRec$[ebp+8], 21 ; 00000015H
  00437	50		 push	 eax
  00438	8d 45 08	 lea	 eax, DWORD PTR __szData$[ebp]
  0043b	50		 push	 eax
  0043c	8d 45 ec	 lea	 eax, DWORD PTR _strBlockData$27[ebp]
  0043f	50		 push	 eax
  00440	e8 00 00 00 00	 call	 ?GetStringData@CDataConversion@@SA?AV?$CStringT@DV?$StrTraitMFC_DLL@DV?$ChTraitsCRT@D@ATL@@@@@ATL@@AAV23@ABV23@_N@Z ; CDataConversion::GetStringData
  00445	83 c4 10	 add	 esp, 16			; 00000010H
  00448	8d 4d b8	 lea	 ecx, DWORD PTR $T7[ebp]
  0044b	c6 45 fc 17	 mov	 BYTE PTR __$EHRec$[ebp+8], 23 ; 00000017H
  0044f	ff 15 00 00 00
	00		 call	 DWORD PTR __imp_??1?$CStringT@DV?$StrTraitMFC_DLL@DV?$ChTraitsCRT@D@ATL@@@@@ATL@@QAE@XZ

; 358  : 			int nGraphCount = CDataConversion::GetStringDataCount(strBlockData, "Graph;\r\n");

  00455	68 00 00 00 00	 push	 OFFSET ??_C@_08BHMMGBBH@Graph?$DL?$AN?6@
  0045a	8d 4d bc	 lea	 ecx, DWORD PTR $T11[ebp]
  0045d	ff 15 00 00 00
	00		 call	 DWORD PTR __imp_??0?$CStringT@DV?$StrTraitMFC_DLL@DV?$ChTraitsCRT@D@ATL@@@@@ATL@@QAE@PBD@Z
  00463	8d 45 bc	 lea	 eax, DWORD PTR $T11[ebp]
  00466	c6 45 fc 18	 mov	 BYTE PTR __$EHRec$[ebp+8], 24 ; 00000018H
  0046a	50		 push	 eax
  0046b	8d 45 ec	 lea	 eax, DWORD PTR _strBlockData$27[ebp]
  0046e	50		 push	 eax
  0046f	e8 00 00 00 00	 call	 ?GetStringDataCount@CDataConversion@@SAHABV?$CStringT@DV?$StrTraitMFC_DLL@DV?$ChTraitsCRT@D@ATL@@@@@ATL@@0@Z ; CDataConversion::GetStringDataCount
  00474	83 c4 08	 add	 esp, 8
  00477	c6 45 fc 17	 mov	 BYTE PTR __$EHRec$[ebp+8], 23 ; 00000017H
  0047b	8d 4d bc	 lea	 ecx, DWORD PTR $T11[ebp]
  0047e	8b f8		 mov	 edi, eax
  00480	ff 15 00 00 00
	00		 call	 DWORD PTR __imp_??1?$CStringT@DV?$StrTraitMFC_DLL@DV?$ChTraitsCRT@D@ATL@@@@@ATL@@QAE@XZ

; 359  : 			SetBlockItem_Temp(i, CDataConversion::GetStringData(strBlockData, "Graph;\r\n"));

  00486	68 00 00 00 00	 push	 OFFSET ??_C@_08BHMMGBBH@Graph?$DL?$AN?6@
  0048b	8d 4d c0	 lea	 ecx, DWORD PTR $T13[ebp]
  0048e	ff 15 00 00 00
	00		 call	 DWORD PTR __imp_??0?$CStringT@DV?$StrTraitMFC_DLL@DV?$ChTraitsCRT@D@ATL@@@@@ATL@@QAE@PBD@Z
  00494	51		 push	 ecx
  00495	8b c4		 mov	 eax, esp
  00497	c6 45 fc 19	 mov	 BYTE PTR __$EHRec$[ebp+8], 25 ; 00000019H
  0049b	6a 01		 push	 1
  0049d	8d 4d c0	 lea	 ecx, DWORD PTR $T13[ebp]
  004a0	51		 push	 ecx
  004a1	8d 4d ec	 lea	 ecx, DWORD PTR _strBlockData$27[ebp]
  004a4	51		 push	 ecx
  004a5	50		 push	 eax
  004a6	e8 00 00 00 00	 call	 ?GetStringData@CDataConversion@@SA?AV?$CStringT@DV?$StrTraitMFC_DLL@DV?$ChTraitsCRT@D@ATL@@@@@ATL@@AAV23@ABV23@_N@Z ; CDataConversion::GetStringData
  004ab	83 c4 10	 add	 esp, 16			; 00000010H
  004ae	8b ce		 mov	 ecx, esi
  004b0	53		 push	 ebx
  004b1	e8 00 00 00 00	 call	 ?SetBlockItem_Temp@CDataOfChartListPage@@AAEXHV?$CStringT@DV?$StrTraitMFC_DLL@DV?$ChTraitsCRT@D@ATL@@@@@ATL@@@Z ; CDataOfChartListPage::SetBlockItem_Temp
  004b6	8d 4d c0	 lea	 ecx, DWORD PTR $T13[ebp]
  004b9	c6 45 fc 17	 mov	 BYTE PTR __$EHRec$[ebp+8], 23 ; 00000017H
  004bd	ff 15 00 00 00
	00		 call	 DWORD PTR __imp_??1?$CStringT@DV?$StrTraitMFC_DLL@DV?$ChTraitsCRT@D@ATL@@@@@ATL@@QAE@XZ

; 360  : 			CChartLink* pVertiScale = SetVerticalScaleItem_Temp(i, strBlockData);

  004c3	51		 push	 ecx
  004c4	8d 45 ec	 lea	 eax, DWORD PTR _strBlockData$27[ebp]
  004c7	8b cc		 mov	 ecx, esp
  004c9	50		 push	 eax
  004ca	ff 15 00 00 00
	00		 call	 DWORD PTR __imp_??0?$CStringT@DV?$StrTraitMFC_DLL@DV?$ChTraitsCRT@D@ATL@@@@@ATL@@QAE@ABV01@@Z
  004d0	53		 push	 ebx
  004d1	8b ce		 mov	 ecx, esi
  004d3	e8 00 00 00 00	 call	 ?SetVerticalScaleItem_Temp@CDataOfChartListPage@@AAEPAVCChartLink@@HV?$CStringT@DV?$StrTraitMFC_DLL@DV?$ChTraitsCRT@D@ATL@@@@@ATL@@@Z ; CDataOfChartListPage::SetVerticalScaleItem_Temp
  004d8	89 45 a4	 mov	 DWORD PTR _pVertiScale$1$[ebp], eax

; 361  : 			for(int j = 0; j < nGraphCount ; j++) {

  004db	85 ff		 test	 edi, edi
  004dd	7e 61		 jle	 SHORT $LN15@SetData
  004df	90		 npad	 1
$LL16@SetData:

; 362  : 				if(i < (m_nColumn * m_nRow)) 

  004e0	8b 46 04	 mov	 eax, DWORD PTR [esi+4]
  004e3	0f af 46 08	 imul	 eax, DWORD PTR [esi+8]
  004e7	3b d8		 cmp	 ebx, eax
  004e9	7d 50		 jge	 SHORT $LN14@SetData

; 363  : 					SetItem(pVertiScale, CDataConversion::GetStringData(strBlockData, "GraphEnd;\r\n"), p_pIGraphInfoManager);

  004eb	68 00 00 00 00	 push	 OFFSET ??_C@_0M@DGHFHKEI@GraphEnd?$DL?$AN?6@
  004f0	8d 4d c4	 lea	 ecx, DWORD PTR $T15[ebp]
  004f3	ff 15 00 00 00
	00		 call	 DWORD PTR __imp_??0?$CStringT@DV?$StrTraitMFC_DLL@DV?$ChTraitsCRT@D@ATL@@@@@ATL@@QAE@PBD@Z
  004f9	6a 01		 push	 1
  004fb	8d 45 c4	 lea	 eax, DWORD PTR $T15[ebp]
  004fe	c6 45 fc 1a	 mov	 BYTE PTR __$EHRec$[ebp+8], 26 ; 0000001aH
  00502	50		 push	 eax
  00503	8d 45 ec	 lea	 eax, DWORD PTR _strBlockData$27[ebp]
  00506	50		 push	 eax
  00507	8d 45 a8	 lea	 eax, DWORD PTR $T3[ebp]
  0050a	50		 push	 eax
  0050b	e8 00 00 00 00	 call	 ?GetStringData@CDataConversion@@SA?AV?$CStringT@DV?$StrTraitMFC_DLL@DV?$ChTraitsCRT@D@ATL@@@@@ATL@@AAV23@ABV23@_N@Z ; CDataConversion::GetStringData
  00510	83 c4 10	 add	 esp, 16			; 00000010H
  00513	ff 75 0c	 push	 DWORD PTR _p_pIGraphInfoManager$[ebp]
  00516	8b ce		 mov	 ecx, esi
  00518	c6 45 fc 1b	 mov	 BYTE PTR __$EHRec$[ebp+8], 27 ; 0000001bH
  0051c	50		 push	 eax
  0051d	ff 75 a4	 push	 DWORD PTR _pVertiScale$1$[ebp]
  00520	e8 00 00 00 00	 call	 ?SetItem@CDataOfChartListPage@@AAEXPAVCChartLink@@ABV?$CStringT@DV?$StrTraitMFC_DLL@DV?$ChTraitsCRT@D@ATL@@@@@ATL@@PAUIGraphInfoManager134661@@@Z ; CDataOfChartListPage::SetItem
  00525	8d 4d a8	 lea	 ecx, DWORD PTR $T3[ebp]
  00528	ff 15 00 00 00
	00		 call	 DWORD PTR __imp_??1?$CStringT@DV?$StrTraitMFC_DLL@DV?$ChTraitsCRT@D@ATL@@@@@ATL@@QAE@XZ
  0052e	8d 4d c4	 lea	 ecx, DWORD PTR $T15[ebp]
  00531	c6 45 fc 17	 mov	 BYTE PTR __$EHRec$[ebp+8], 23 ; 00000017H
  00535	ff 15 00 00 00
	00		 call	 DWORD PTR __imp_??1?$CStringT@DV?$StrTraitMFC_DLL@DV?$ChTraitsCRT@D@ATL@@@@@ATL@@QAE@XZ
$LN14@SetData:

; 361  : 			for(int j = 0; j < nGraphCount ; j++) {

  0053b	83 ef 01	 sub	 edi, 1
  0053e	75 a0		 jne	 SHORT $LL16@SetData
$LN15@SetData:

; 364  : 			}
; 365  : 		}

  00540	8d 4d ec	 lea	 ecx, DWORD PTR _strBlockData$27[ebp]
  00543	c6 45 fc 00	 mov	 BYTE PTR __$EHRec$[ebp+8], 0
  00547	ff 15 00 00 00
	00		 call	 DWORD PTR __imp_??1?$CStringT@DV?$StrTraitMFC_DLL@DV?$ChTraitsCRT@D@ATL@@@@@ATL@@QAE@XZ
  0054d	43		 inc	 ebx
  0054e	3b 5d ac	 cmp	 ebx, DWORD PTR _nBlockCount$1$[ebp]
  00551	0f 8c c9 fe ff
	ff		 jl	 $LL13@SetData
$LN12@SetData:

; 366  : 	}
; 367  : 	return;

  00557	8d 4d 08	 lea	 ecx, DWORD PTR __szData$[ebp]
  0055a	ff 15 00 00 00
	00		 call	 DWORD PTR __imp_??1?$CStringT@DV?$StrTraitMFC_DLL@DV?$ChTraitsCRT@D@ATL@@@@@ATL@@QAE@XZ

; 368  : }

  00560	8b 4d f4	 mov	 ecx, DWORD PTR __$EHRec$[ebp]
  00563	64 89 0d 00 00
	00 00		 mov	 DWORD PTR fs:0, ecx
  0056a	59		 pop	 ecx
  0056b	5f		 pop	 edi
  0056c	5e		 pop	 esi
  0056d	5b		 pop	 ebx
  0056e	8b e5		 mov	 esp, ebp
  00570	5d		 pop	 ebp
  00571	c2 08 00	 ret	 8
_TEXT	ENDS
;	COMDAT text$x
text$x	SEGMENT
__unwindfunclet$?SetData@CDataOfChartListPage@@QAEXABV?$CStringT@DV?$StrTraitMFC_DLL@DV?$ChTraitsCRT@D@ATL@@@@@ATL@@PAUIGraphInfoManager134661@@@Z$0:
  00000	8d 4d 08	 lea	 ecx, DWORD PTR __szData$[ebp]
  00003	ff 25 00 00 00
	00		 jmp	 DWORD PTR __imp_??1?$CStringT@DV?$StrTraitMFC_DLL@DV?$ChTraitsCRT@D@ATL@@@@@ATL@@QAE@XZ
__unwindfunclet$?SetData@CDataOfChartListPage@@QAEXABV?$CStringT@DV?$StrTraitMFC_DLL@DV?$ChTraitsCRT@D@ATL@@@@@ATL@@PAUIGraphInfoManager134661@@@Z$1:
  00009	8d 4d e8	 lea	 ecx, DWORD PTR $T26[ebp]
  0000c	ff 25 00 00 00
	00		 jmp	 DWORD PTR __imp_??1?$CStringT@DV?$StrTraitMFC_DLL@DV?$ChTraitsCRT@D@ATL@@@@@ATL@@QAE@XZ
__unwindfunclet$?SetData@CDataOfChartListPage@@QAEXABV?$CStringT@DV?$StrTraitMFC_DLL@DV?$ChTraitsCRT@D@ATL@@@@@ATL@@PAUIGraphInfoManager134661@@@Z$3:
  00012	8d 4d e8	 lea	 ecx, DWORD PTR $T25[ebp]
  00015	ff 25 00 00 00
	00		 jmp	 DWORD PTR __imp_??1?$CStringT@DV?$StrTraitMFC_DLL@DV?$ChTraitsCRT@D@ATL@@@@@ATL@@QAE@XZ
__unwindfunclet$?SetData@CDataOfChartListPage@@QAEXABV?$CStringT@DV?$StrTraitMFC_DLL@DV?$ChTraitsCRT@D@ATL@@@@@ATL@@PAUIGraphInfoManager134661@@@Z$4:
  0001b	8d 4d e4	 lea	 ecx, DWORD PTR $T24[ebp]
  0001e	ff 25 00 00 00
	00		 jmp	 DWORD PTR __imp_??1?$CStringT@DV?$StrTraitMFC_DLL@DV?$ChTraitsCRT@D@ATL@@@@@ATL@@QAE@XZ
__unwindfunclet$?SetData@CDataOfChartListPage@@QAEXABV?$CStringT@DV?$StrTraitMFC_DLL@DV?$ChTraitsCRT@D@ATL@@@@@ATL@@PAUIGraphInfoManager134661@@@Z$6:
  00024	8d 4d e0	 lea	 ecx, DWORD PTR $T23[ebp]
  00027	ff 25 00 00 00
	00		 jmp	 DWORD PTR __imp_??1?$CStringT@DV?$StrTraitMFC_DLL@DV?$ChTraitsCRT@D@ATL@@@@@ATL@@QAE@XZ
__unwindfunclet$?SetData@CDataOfChartListPage@@QAEXABV?$CStringT@DV?$StrTraitMFC_DLL@DV?$ChTraitsCRT@D@ATL@@@@@ATL@@PAUIGraphInfoManager134661@@@Z$7:
  0002d	8d 4d ec	 lea	 ecx, DWORD PTR _strBlockData$28[ebp]
  00030	ff 25 00 00 00
	00		 jmp	 DWORD PTR __imp_??1?$CStringT@DV?$StrTraitMFC_DLL@DV?$ChTraitsCRT@D@ATL@@@@@ATL@@QAE@XZ
__unwindfunclet$?SetData@CDataOfChartListPage@@QAEXABV?$CStringT@DV?$StrTraitMFC_DLL@DV?$ChTraitsCRT@D@ATL@@@@@ATL@@PAUIGraphInfoManager134661@@@Z$8:
  00036	8d 4d dc	 lea	 ecx, DWORD PTR $T22[ebp]
  00039	ff 25 00 00 00
	00		 jmp	 DWORD PTR __imp_??1?$CStringT@DV?$StrTraitMFC_DLL@DV?$ChTraitsCRT@D@ATL@@@@@ATL@@QAE@XZ
__unwindfunclet$?SetData@CDataOfChartListPage@@QAEXABV?$CStringT@DV?$StrTraitMFC_DLL@DV?$ChTraitsCRT@D@ATL@@@@@ATL@@PAUIGraphInfoManager134661@@@Z$10:
  0003f	8d 4d d8	 lea	 ecx, DWORD PTR $T21[ebp]
  00042	ff 25 00 00 00
	00		 jmp	 DWORD PTR __imp_??1?$CStringT@DV?$StrTraitMFC_DLL@DV?$ChTraitsCRT@D@ATL@@@@@ATL@@QAE@XZ
__unwindfunclet$?SetData@CDataOfChartListPage@@QAEXABV?$CStringT@DV?$StrTraitMFC_DLL@DV?$ChTraitsCRT@D@ATL@@@@@ATL@@PAUIGraphInfoManager134661@@@Z$11:
  00048	8d 4d d4	 lea	 ecx, DWORD PTR $T20[ebp]
  0004b	ff 25 00 00 00
	00		 jmp	 DWORD PTR __imp_??1?$CStringT@DV?$StrTraitMFC_DLL@DV?$ChTraitsCRT@D@ATL@@@@@ATL@@QAE@XZ
__unwindfunclet$?SetData@CDataOfChartListPage@@QAEXABV?$CStringT@DV?$StrTraitMFC_DLL@DV?$ChTraitsCRT@D@ATL@@@@@ATL@@PAUIGraphInfoManager134661@@@Z$13:
  00051	8d 4d d0	 lea	 ecx, DWORD PTR $T19[ebp]
  00054	ff 25 00 00 00
	00		 jmp	 DWORD PTR __imp_??1?$CStringT@DV?$StrTraitMFC_DLL@DV?$ChTraitsCRT@D@ATL@@@@@ATL@@QAE@XZ
__unwindfunclet$?SetData@CDataOfChartListPage@@QAEXABV?$CStringT@DV?$StrTraitMFC_DLL@DV?$ChTraitsCRT@D@ATL@@@@@ATL@@PAUIGraphInfoManager134661@@@Z$14:
  0005a	8d 4d f0	 lea	 ecx, DWORD PTR _ScaleGroup$29[ebp]
  0005d	ff 25 00 00 00
	00		 jmp	 DWORD PTR __imp_??1?$CStringT@DV?$StrTraitMFC_DLL@DV?$ChTraitsCRT@D@ATL@@@@@ATL@@QAE@XZ
__unwindfunclet$?SetData@CDataOfChartListPage@@QAEXABV?$CStringT@DV?$StrTraitMFC_DLL@DV?$ChTraitsCRT@D@ATL@@@@@ATL@@PAUIGraphInfoManager134661@@@Z$15:
  00063	8d 4d cc	 lea	 ecx, DWORD PTR $T18[ebp]
  00066	ff 25 00 00 00
	00		 jmp	 DWORD PTR __imp_??1?$CStringT@DV?$StrTraitMFC_DLL@DV?$ChTraitsCRT@D@ATL@@@@@ATL@@QAE@XZ
__unwindfunclet$?SetData@CDataOfChartListPage@@QAEXABV?$CStringT@DV?$StrTraitMFC_DLL@DV?$ChTraitsCRT@D@ATL@@@@@ATL@@PAUIGraphInfoManager134661@@@Z$17:
  0006c	8d 4d c8	 lea	 ecx, DWORD PTR $T17[ebp]
  0006f	ff 25 00 00 00
	00		 jmp	 DWORD PTR __imp_??1?$CStringT@DV?$StrTraitMFC_DLL@DV?$ChTraitsCRT@D@ATL@@@@@ATL@@QAE@XZ
__unwindfunclet$?SetData@CDataOfChartListPage@@QAEXABV?$CStringT@DV?$StrTraitMFC_DLL@DV?$ChTraitsCRT@D@ATL@@@@@ATL@@PAUIGraphInfoManager134661@@@Z$18:
  00075	8d 4d c4	 lea	 ecx, DWORD PTR $T16[ebp]
  00078	ff 25 00 00 00
	00		 jmp	 DWORD PTR __imp_??1?$CStringT@DV?$StrTraitMFC_DLL@DV?$ChTraitsCRT@D@ATL@@@@@ATL@@QAE@XZ
__unwindfunclet$?SetData@CDataOfChartListPage@@QAEXABV?$CStringT@DV?$StrTraitMFC_DLL@DV?$ChTraitsCRT@D@ATL@@@@@ATL@@PAUIGraphInfoManager134661@@@Z$20:
  0007e	8d 4d c0	 lea	 ecx, DWORD PTR $T14[ebp]
  00081	ff 25 00 00 00
	00		 jmp	 DWORD PTR __imp_??1?$CStringT@DV?$StrTraitMFC_DLL@DV?$ChTraitsCRT@D@ATL@@@@@ATL@@QAE@XZ
__unwindfunclet$?SetData@CDataOfChartListPage@@QAEXABV?$CStringT@DV?$StrTraitMFC_DLL@DV?$ChTraitsCRT@D@ATL@@@@@ATL@@PAUIGraphInfoManager134661@@@Z$21:
  00087	8d 4d bc	 lea	 ecx, DWORD PTR _strGraph$12[ebp]
  0008a	ff 25 00 00 00
	00		 jmp	 DWORD PTR __imp_??1?$CStringT@DV?$StrTraitMFC_DLL@DV?$ChTraitsCRT@D@ATL@@@@@ATL@@QAE@XZ
__unwindfunclet$?SetData@CDataOfChartListPage@@QAEXABV?$CStringT@DV?$StrTraitMFC_DLL@DV?$ChTraitsCRT@D@ATL@@@@@ATL@@PAUIGraphInfoManager134661@@@Z$22:
  00090	8d 4d b8	 lea	 ecx, DWORD PTR $T9[ebp]
  00093	ff 25 00 00 00
	00		 jmp	 DWORD PTR __imp_??1?$CStringT@DV?$StrTraitMFC_DLL@DV?$ChTraitsCRT@D@ATL@@@@@ATL@@QAE@XZ
__unwindfunclet$?SetData@CDataOfChartListPage@@QAEXABV?$CStringT@DV?$StrTraitMFC_DLL@DV?$ChTraitsCRT@D@ATL@@@@@ATL@@PAUIGraphInfoManager134661@@@Z$24:
  00099	8d 4d b8	 lea	 ecx, DWORD PTR $T8[ebp]
  0009c	ff 25 00 00 00
	00		 jmp	 DWORD PTR __imp_??1?$CStringT@DV?$StrTraitMFC_DLL@DV?$ChTraitsCRT@D@ATL@@@@@ATL@@QAE@XZ
__unwindfunclet$?SetData@CDataOfChartListPage@@QAEXABV?$CStringT@DV?$StrTraitMFC_DLL@DV?$ChTraitsCRT@D@ATL@@@@@ATL@@PAUIGraphInfoManager134661@@@Z$25:
  000a2	8d 4d b8	 lea	 ecx, DWORD PTR $T7[ebp]
  000a5	ff 25 00 00 00
	00		 jmp	 DWORD PTR __imp_??1?$CStringT@DV?$StrTraitMFC_DLL@DV?$ChTraitsCRT@D@ATL@@@@@ATL@@QAE@XZ
__unwindfunclet$?SetData@CDataOfChartListPage@@QAEXABV?$CStringT@DV?$StrTraitMFC_DLL@DV?$ChTraitsCRT@D@ATL@@@@@ATL@@PAUIGraphInfoManager134661@@@Z$26:
  000ab	8d 4d ec	 lea	 ecx, DWORD PTR _strBlockData$27[ebp]
  000ae	ff 25 00 00 00
	00		 jmp	 DWORD PTR __imp_??1?$CStringT@DV?$StrTraitMFC_DLL@DV?$ChTraitsCRT@D@ATL@@@@@ATL@@QAE@XZ
__unwindfunclet$?SetData@CDataOfChartListPage@@QAEXABV?$CStringT@DV?$StrTraitMFC_DLL@DV?$ChTraitsCRT@D@ATL@@@@@ATL@@PAUIGraphInfoManager134661@@@Z$27:
  000b4	8d 4d bc	 lea	 ecx, DWORD PTR $T11[ebp]
  000b7	ff 25 00 00 00
	00		 jmp	 DWORD PTR __imp_??1?$CStringT@DV?$StrTraitMFC_DLL@DV?$ChTraitsCRT@D@ATL@@@@@ATL@@QAE@XZ
__unwindfunclet$?SetData@CDataOfChartListPage@@QAEXABV?$CStringT@DV?$StrTraitMFC_DLL@DV?$ChTraitsCRT@D@ATL@@@@@ATL@@PAUIGraphInfoManager134661@@@Z$28:
  000bd	8d 4d c0	 lea	 ecx, DWORD PTR $T13[ebp]
  000c0	ff 25 00 00 00
	00		 jmp	 DWORD PTR __imp_??1?$CStringT@DV?$StrTraitMFC_DLL@DV?$ChTraitsCRT@D@ATL@@@@@ATL@@QAE@XZ
__unwindfunclet$?SetData@CDataOfChartListPage@@QAEXABV?$CStringT@DV?$StrTraitMFC_DLL@DV?$ChTraitsCRT@D@ATL@@@@@ATL@@PAUIGraphInfoManager134661@@@Z$31:
  000c6	8d 4d c4	 lea	 ecx, DWORD PTR $T15[ebp]
  000c9	ff 25 00 00 00
	00		 jmp	 DWORD PTR __imp_??1?$CStringT@DV?$StrTraitMFC_DLL@DV?$ChTraitsCRT@D@ATL@@@@@ATL@@QAE@XZ
__unwindfunclet$?SetData@CDataOfChartListPage@@QAEXABV?$CStringT@DV?$StrTraitMFC_DLL@DV?$ChTraitsCRT@D@ATL@@@@@ATL@@PAUIGraphInfoManager134661@@@Z$32:
  000cf	8d 4d a8	 lea	 ecx, DWORD PTR $T3[ebp]
  000d2	ff 25 00 00 00
	00		 jmp	 DWORD PTR __imp_??1?$CStringT@DV?$StrTraitMFC_DLL@DV?$ChTraitsCRT@D@ATL@@@@@ATL@@QAE@XZ
  000d8	cc		 int	 3
  000d9	cc		 int	 3
  000da	cc		 int	 3
  000db	cc		 int	 3
  000dc	cc		 int	 3
__ehhandler$?SetData@CDataOfChartListPage@@QAEXABV?$CStringT@DV?$StrTraitMFC_DLL@DV?$ChTraitsCRT@D@ATL@@@@@ATL@@PAUIGraphInfoManager134661@@@Z:
  000dd	90		 npad	 1
  000de	90		 npad	 1
  000df	8b 54 24 08	 mov	 edx, DWORD PTR [esp+8]
  000e3	8d 42 0c	 lea	 eax, DWORD PTR [edx+12]
  000e6	8b 4a 9c	 mov	 ecx, DWORD PTR [edx-100]
  000e9	33 c8		 xor	 ecx, eax
  000eb	e8 00 00 00 00	 call	 @__security_check_cookie@4
  000f0	b8 00 00 00 00	 mov	 eax, OFFSET __ehfuncinfo$?SetData@CDataOfChartListPage@@QAEXABV?$CStringT@DV?$StrTraitMFC_DLL@DV?$ChTraitsCRT@D@ATL@@@@@ATL@@PAUIGraphInfoManager134661@@@Z
  000f5	e9 00 00 00 00	 jmp	 ___CxxFrameHandler3
text$x	ENDS
?SetData@CDataOfChartListPage@@QAEXABV?$CStringT@DV?$StrTraitMFC_DLL@DV?$ChTraitsCRT@D@ATL@@@@@ATL@@PAUIGraphInfoManager134661@@@Z ENDP ; CDataOfChartListPage::SetData
; Function compile flags: /Ogtp
; File D:\git\src\IBK\IBK_DRFN\ProjSrc\SrcChartEx\ChartAddIn\ChartDesignPropertyAddIn\ChartDesignPropertyAddIn\DataOfChartListPage.cpp
;	COMDAT ?GetBlockandGraphAllData@CDataOfChartListPage@@QAE?AV?$CStringT@DV?$StrTraitMFC_DLL@DV?$ChTraitsCRT@D@ATL@@@@@ATL@@PAVCChartLink@@@Z
_TEXT	SEGMENT
$T2 = -32						; size = 4
$T3 = -28						; size = 4
$T4 = -24						; size = 4
_nOldColumn$1$ = -20					; size = 4
_pBlock$1$ = -16					; size = 4
__$EHRec$ = -12						; size = 12
___$ReturnUdt$ = 8					; size = 4
_strBlockandGraphAllData$ = 12				; size = 4
_pRoot$ = 12						; size = 4
?GetBlockandGraphAllData@CDataOfChartListPage@@QAE?AV?$CStringT@DV?$StrTraitMFC_DLL@DV?$ChTraitsCRT@D@ATL@@@@@ATL@@PAVCChartLink@@@Z PROC ; CDataOfChartListPage::GetBlockandGraphAllData, COMDAT
; _this$ = ecx

; 86   : {

  00000	55		 push	 ebp
  00001	8b ec		 mov	 ebp, esp
  00003	6a ff		 push	 -1
  00005	68 00 00 00 00	 push	 __ehhandler$?GetBlockandGraphAllData@CDataOfChartListPage@@QAE?AV?$CStringT@DV?$StrTraitMFC_DLL@DV?$ChTraitsCRT@D@ATL@@@@@ATL@@PAVCChartLink@@@Z
  0000a	64 a1 00 00 00
	00		 mov	 eax, DWORD PTR fs:0
  00010	50		 push	 eax
  00011	83 ec 14	 sub	 esp, 20			; 00000014H
  00014	53		 push	 ebx
  00015	56		 push	 esi
  00016	57		 push	 edi
  00017	a1 00 00 00 00	 mov	 eax, DWORD PTR ___security_cookie
  0001c	33 c5		 xor	 eax, ebp
  0001e	50		 push	 eax
  0001f	8d 45 f4	 lea	 eax, DWORD PTR __$EHRec$[ebp]
  00022	64 a3 00 00 00
	00		 mov	 DWORD PTR fs:0, eax
  00028	8b d9		 mov	 ebx, ecx

; 87   : 	CChartLink* pBlock = pRoot->m_Child;

  0002a	8b 45 0c	 mov	 eax, DWORD PTR _pRoot$[ebp]

; 88   : 	
; 89   : 	CString strBlockandGraphAllData = "";

  0002d	8d 4d 0c	 lea	 ecx, DWORD PTR _strBlockandGraphAllData$[ebp]
  00030	68 00 00 00 00	 push	 OFFSET ??_C@_00CNPNBAHC@@
  00035	8b 70 60	 mov	 esi, DWORD PTR [eax+96]
  00038	89 75 f0	 mov	 DWORD PTR _pBlock$1$[ebp], esi
  0003b	ff 15 00 00 00
	00		 call	 DWORD PTR __imp_??0?$CStringT@DV?$StrTraitMFC_DLL@DV?$ChTraitsCRT@D@ATL@@@@@ATL@@QAE@PBD@Z
  00041	c7 45 fc 00 00
	00 00		 mov	 DWORD PTR __$EHRec$[ebp+8], 0

; 90   : 	if(pBlock == NULL) return "";

  00048	85 f6		 test	 esi, esi
  0004a	75 13		 jne	 SHORT $LN8@GetBlockan
  0004c	8b 4d 08	 mov	 ecx, DWORD PTR ___$ReturnUdt$[ebp]
  0004f	68 00 00 00 00	 push	 OFFSET ??_C@_00CNPNBAHC@@
  00054	ff 15 00 00 00
	00		 call	 DWORD PTR __imp_??0?$CStringT@DV?$StrTraitMFC_DLL@DV?$ChTraitsCRT@D@ATL@@@@@ATL@@QAE@PBD@Z
  0005a	e9 1b 01 00 00	 jmp	 $LN47@GetBlockan
$LN8@GetBlockan:

; 91   : 
; 92   : 	//BlockColumn   .
; 93   : 	bool bFirst = false;
; 94   : 	int nOldColumn = 0;

  0005f	33 ff		 xor	 edi, edi
  00061	89 7d ec	 mov	 DWORD PTR _nOldColumn$1$[ebp], edi
$LL2@GetBlockan:

; 95   : 
; 96   : 	while(pBlock) { //Block
; 97   : 		if(pBlock->m_iType == BLOCK) {

  00064	83 7e 10 01	 cmp	 DWORD PTR [esi+16], 1
  00068	75 55		 jne	 SHORT $LN9@GetBlockan

; 98   : 			if(nOldColumn != pBlock->m_nColumnIndex)

  0006a	8b 46 48	 mov	 eax, DWORD PTR [esi+72]
  0006d	3b f8		 cmp	 edi, eax
  0006f	74 27		 je	 SHORT $LN11@GetBlockan

; 99   : 				bFirst = true;
; 100  : 			if(bFirst == true) {
; 101  : 				if(pBlock->m_nColumnIndex != 1) 

  00071	83 f8 01	 cmp	 eax, 1
  00074	74 0e		 je	 SHORT $LN12@GetBlockan

; 102  : 					strBlockandGraphAllData += "BlockColumnEnd;\r\n";

  00076	68 00 00 00 00	 push	 OFFSET ??_C@_0BC@DENBEKI@BlockColumnEnd?$DL?$AN?6@
  0007b	8d 4d 0c	 lea	 ecx, DWORD PTR _strBlockandGraphAllData$[ebp]
  0007e	ff 15 00 00 00
	00		 call	 DWORD PTR __imp_??Y?$CStringT@DV?$StrTraitMFC_DLL@DV?$ChTraitsCRT@D@ATL@@@@@ATL@@QAEAAV01@PBD@Z
$LN12@GetBlockan:

; 103  : 				strBlockandGraphAllData += "BlockColumn;\r\n";

  00084	68 00 00 00 00	 push	 OFFSET ??_C@_0P@GBPFOBGA@BlockColumn?$DL?$AN?6@
  00089	8d 4d 0c	 lea	 ecx, DWORD PTR _strBlockandGraphAllData$[ebp]
  0008c	ff 15 00 00 00
	00		 call	 DWORD PTR __imp_??Y?$CStringT@DV?$StrTraitMFC_DLL@DV?$ChTraitsCRT@D@ATL@@@@@ATL@@QAEAAV01@PBD@Z

; 104  : 				nOldColumn = pBlock->m_nColumnIndex;

  00092	8b 46 48	 mov	 eax, DWORD PTR [esi+72]
  00095	89 45 ec	 mov	 DWORD PTR _nOldColumn$1$[ebp], eax
$LN11@GetBlockan:

; 105  : 				bFirst = false;
; 106  : 			}
; 107  : 			strBlockandGraphAllData += GetBlockAllData(pBlock);

  00098	56		 push	 esi
  00099	8d 45 e8	 lea	 eax, DWORD PTR $T4[ebp]
  0009c	8b cb		 mov	 ecx, ebx
  0009e	50		 push	 eax
  0009f	e8 00 00 00 00	 call	 ?GetBlockAllData@CDataOfChartListPage@@AAE?AV?$CStringT@DV?$StrTraitMFC_DLL@DV?$ChTraitsCRT@D@ATL@@@@@ATL@@PAVCChartLink@@@Z ; CDataOfChartListPage::GetBlockAllData
  000a4	50		 push	 eax
  000a5	8d 4d 0c	 lea	 ecx, DWORD PTR _strBlockandGraphAllData$[ebp]
  000a8	c6 45 fc 01	 mov	 BYTE PTR __$EHRec$[ebp+8], 1
  000ac	ff 15 00 00 00
	00		 call	 DWORD PTR __imp_??Y?$CStringT@DV?$StrTraitMFC_DLL@DV?$ChTraitsCRT@D@ATL@@@@@ATL@@QAEAAV01@ABV?$CSimpleStringT@D$00@1@@Z
  000b2	8d 4d e8	 lea	 ecx, DWORD PTR $T4[ebp]
  000b5	c6 45 fc 00	 mov	 BYTE PTR __$EHRec$[ebp+8], 0
  000b9	ff 15 00 00 00
	00		 call	 DWORD PTR __imp_??1?$CStringT@DV?$StrTraitMFC_DLL@DV?$ChTraitsCRT@D@ATL@@@@@ATL@@QAE@XZ
$LN9@GetBlockan:

; 108  : 		}
; 109  : 		CChartLink* pVertiScale = pBlock->m_Child; //verti Scale

  000bf	8b 7e 60	 mov	 edi, DWORD PTR [esi+96]

; 110  : 		if(pVertiScale == NULL) //VertiScale, graph ..

  000c2	85 ff		 test	 edi, edi
  000c4	74 7a		 je	 SHORT $LN43@GetBlockan
$LL4@GetBlockan:

; 111  : 			strBlockandGraphAllData += "BlockEnd;\r\n";
; 112  : 
; 113  : 		while(pVertiScale) { //Vertical ..
; 114  : 			strBlockandGraphAllData += GetVerticalAllData(pVertiScale); //Vertical Data .

  000c6	57		 push	 edi
  000c7	8d 45 e4	 lea	 eax, DWORD PTR $T3[ebp]
  000ca	8b cb		 mov	 ecx, ebx
  000cc	50		 push	 eax
  000cd	e8 00 00 00 00	 call	 ?GetVerticalAllData@CDataOfChartListPage@@AAE?AV?$CStringT@DV?$StrTraitMFC_DLL@DV?$ChTraitsCRT@D@ATL@@@@@ATL@@PAVCChartLink@@@Z ; CDataOfChartListPage::GetVerticalAllData
  000d2	50		 push	 eax
  000d3	8d 4d 0c	 lea	 ecx, DWORD PTR _strBlockandGraphAllData$[ebp]
  000d6	c6 45 fc 02	 mov	 BYTE PTR __$EHRec$[ebp+8], 2
  000da	ff 15 00 00 00
	00		 call	 DWORD PTR __imp_??Y?$CStringT@DV?$StrTraitMFC_DLL@DV?$ChTraitsCRT@D@ATL@@@@@ATL@@QAEAAV01@ABV?$CSimpleStringT@D$00@1@@Z
  000e0	8d 4d e4	 lea	 ecx, DWORD PTR $T3[ebp]
  000e3	c6 45 fc 00	 mov	 BYTE PTR __$EHRec$[ebp+8], 0
  000e7	ff 15 00 00 00
	00		 call	 DWORD PTR __imp_??1?$CStringT@DV?$StrTraitMFC_DLL@DV?$ChTraitsCRT@D@ATL@@@@@ATL@@QAE@XZ

; 115  : 			CChartLink* pGraph = pVertiScale->m_Child; //graph

  000ed	8b 77 60	 mov	 esi, DWORD PTR [edi+96]

; 116  : 			if(pGraph == NULL) //graph ..

  000f0	85 f6		 test	 esi, esi
  000f2	74 34		 je	 SHORT $LN42@GetBlockan
$LL6@GetBlockan:

; 117  : 				strBlockandGraphAllData += "VertScaleGroupEnd;\r\n";
; 118  : 
; 119  : 			while(pGraph) { //Graph
; 120  : 				if(pGraph->m_iType == GRAPH) 

  000f4	83 7e 10 03	 cmp	 DWORD PTR [esi+16], 3
  000f8	75 27		 jne	 SHORT $LN15@GetBlockan

; 121  : 					strBlockandGraphAllData += GetGraphAllData(pGraph);

  000fa	56		 push	 esi
  000fb	8d 45 e0	 lea	 eax, DWORD PTR $T2[ebp]
  000fe	8b cb		 mov	 ecx, ebx
  00100	50		 push	 eax
  00101	e8 00 00 00 00	 call	 ?GetGraphAllData@CDataOfChartListPage@@AAE?AV?$CStringT@DV?$StrTraitMFC_DLL@DV?$ChTraitsCRT@D@ATL@@@@@ATL@@PAVCChartLink@@@Z ; CDataOfChartListPage::GetGraphAllData
  00106	50		 push	 eax
  00107	8d 4d 0c	 lea	 ecx, DWORD PTR _strBlockandGraphAllData$[ebp]
  0010a	c6 45 fc 03	 mov	 BYTE PTR __$EHRec$[ebp+8], 3
  0010e	ff 15 00 00 00
	00		 call	 DWORD PTR __imp_??Y?$CStringT@DV?$StrTraitMFC_DLL@DV?$ChTraitsCRT@D@ATL@@@@@ATL@@QAEAAV01@ABV?$CSimpleStringT@D$00@1@@Z
  00114	8d 4d e0	 lea	 ecx, DWORD PTR $T2[ebp]
  00117	c6 45 fc 00	 mov	 BYTE PTR __$EHRec$[ebp+8], 0
  0011b	ff 15 00 00 00
	00		 call	 DWORD PTR __imp_??1?$CStringT@DV?$StrTraitMFC_DLL@DV?$ChTraitsCRT@D@ATL@@@@@ATL@@QAE@XZ
$LN15@GetBlockan:

; 122  : 
; 123  : 				pGraph = pGraph->m_Next; // graph

  00121	8b 76 68	 mov	 esi, DWORD PTR [esi+104]

; 124  : 				if(pGraph == NULL) // grpah ..

  00124	85 f6		 test	 esi, esi
  00126	75 cc		 jne	 SHORT $LL6@GetBlockan
$LN42@GetBlockan:

; 125  : 					strBlockandGraphAllData += "VertScaleGroupEnd;\r\n";

  00128	68 00 00 00 00	 push	 OFFSET ??_C@_0BF@DDJNMPKE@VertScaleGroupEnd?$DL?$AN?6@
  0012d	8d 4d 0c	 lea	 ecx, DWORD PTR _strBlockandGraphAllData$[ebp]
  00130	ff 15 00 00 00
	00		 call	 DWORD PTR __imp_??Y?$CStringT@DV?$StrTraitMFC_DLL@DV?$ChTraitsCRT@D@ATL@@@@@ATL@@QAEAAV01@PBD@Z

; 126  : 			}
; 127  : 
; 128  : 			pVertiScale = pVertiScale->m_Next; //next Vertical Scale

  00136	8b 7f 68	 mov	 edi, DWORD PTR [edi+104]

; 129  : 			if(pVertiScale == NULL) // Vertical Scale ..

  00139	85 ff		 test	 edi, edi
  0013b	75 89		 jne	 SHORT $LL4@GetBlockan
  0013d	8b 75 f0	 mov	 esi, DWORD PTR _pBlock$1$[ebp]
$LN43@GetBlockan:

; 130  : 				strBlockandGraphAllData += "BlockEnd;\r\n";

  00140	68 00 00 00 00	 push	 OFFSET ??_C@_0M@FHFNKLHB@BlockEnd?$DL?$AN?6@
  00145	8d 4d 0c	 lea	 ecx, DWORD PTR _strBlockandGraphAllData$[ebp]
  00148	ff 15 00 00 00
	00		 call	 DWORD PTR __imp_??Y?$CStringT@DV?$StrTraitMFC_DLL@DV?$ChTraitsCRT@D@ATL@@@@@ATL@@QAEAAV01@PBD@Z

; 131  : 		}
; 132  : 		pBlock = pBlock->m_Next; //next Block

  0014e	8b 76 68	 mov	 esi, DWORD PTR [esi+104]
  00151	8b 7d ec	 mov	 edi, DWORD PTR _nOldColumn$1$[ebp]
  00154	89 75 f0	 mov	 DWORD PTR _pBlock$1$[ebp], esi
  00157	85 f6		 test	 esi, esi
  00159	0f 85 05 ff ff
	ff		 jne	 $LL2@GetBlockan

; 133  : 	}
; 134  : 	strBlockandGraphAllData += "BlockColumnEnd;\r\n";

  0015f	68 00 00 00 00	 push	 OFFSET ??_C@_0BC@DENBEKI@BlockColumnEnd?$DL?$AN?6@
  00164	8d 4d 0c	 lea	 ecx, DWORD PTR _strBlockandGraphAllData$[ebp]
  00167	ff 15 00 00 00
	00		 call	 DWORD PTR __imp_??Y?$CStringT@DV?$StrTraitMFC_DLL@DV?$ChTraitsCRT@D@ATL@@@@@ATL@@QAEAAV01@PBD@Z

; 135  : 	return strBlockandGraphAllData;

  0016d	8b 4d 08	 mov	 ecx, DWORD PTR ___$ReturnUdt$[ebp]
  00170	8d 45 0c	 lea	 eax, DWORD PTR _strBlockandGraphAllData$[ebp]
  00173	50		 push	 eax
  00174	ff 15 00 00 00
	00		 call	 DWORD PTR __imp_??0?$CStringT@DV?$StrTraitMFC_DLL@DV?$ChTraitsCRT@D@ATL@@@@@ATL@@QAE@ABV01@@Z
$LN47@GetBlockan:

; 136  : }

  0017a	8d 4d 0c	 lea	 ecx, DWORD PTR _strBlockandGraphAllData$[ebp]
  0017d	ff 15 00 00 00
	00		 call	 DWORD PTR __imp_??1?$CStringT@DV?$StrTraitMFC_DLL@DV?$ChTraitsCRT@D@ATL@@@@@ATL@@QAE@XZ
  00183	8b 45 08	 mov	 eax, DWORD PTR ___$ReturnUdt$[ebp]
  00186	8b 4d f4	 mov	 ecx, DWORD PTR __$EHRec$[ebp]
  00189	64 89 0d 00 00
	00 00		 mov	 DWORD PTR fs:0, ecx
  00190	59		 pop	 ecx
  00191	5f		 pop	 edi
  00192	5e		 pop	 esi
  00193	5b		 pop	 ebx
  00194	8b e5		 mov	 esp, ebp
  00196	5d		 pop	 ebp
  00197	c2 08 00	 ret	 8
_TEXT	ENDS
;	COMDAT text$x
text$x	SEGMENT
__unwindfunclet$?GetBlockandGraphAllData@CDataOfChartListPage@@QAE?AV?$CStringT@DV?$StrTraitMFC_DLL@DV?$ChTraitsCRT@D@ATL@@@@@ATL@@PAVCChartLink@@@Z$0:
  00000	8d 4d 0c	 lea	 ecx, DWORD PTR _strBlockandGraphAllData$[ebp]
  00003	ff 25 00 00 00
	00		 jmp	 DWORD PTR __imp_??1?$CStringT@DV?$StrTraitMFC_DLL@DV?$ChTraitsCRT@D@ATL@@@@@ATL@@QAE@XZ
__unwindfunclet$?GetBlockandGraphAllData@CDataOfChartListPage@@QAE?AV?$CStringT@DV?$StrTraitMFC_DLL@DV?$ChTraitsCRT@D@ATL@@@@@ATL@@PAVCChartLink@@@Z$2:
  00009	8d 4d e8	 lea	 ecx, DWORD PTR $T4[ebp]
  0000c	ff 25 00 00 00
	00		 jmp	 DWORD PTR __imp_??1?$CStringT@DV?$StrTraitMFC_DLL@DV?$ChTraitsCRT@D@ATL@@@@@ATL@@QAE@XZ
__unwindfunclet$?GetBlockandGraphAllData@CDataOfChartListPage@@QAE?AV?$CStringT@DV?$StrTraitMFC_DLL@DV?$ChTraitsCRT@D@ATL@@@@@ATL@@PAVCChartLink@@@Z$3:
  00012	8d 4d e4	 lea	 ecx, DWORD PTR $T3[ebp]
  00015	ff 25 00 00 00
	00		 jmp	 DWORD PTR __imp_??1?$CStringT@DV?$StrTraitMFC_DLL@DV?$ChTraitsCRT@D@ATL@@@@@ATL@@QAE@XZ
__unwindfunclet$?GetBlockandGraphAllData@CDataOfChartListPage@@QAE?AV?$CStringT@DV?$StrTraitMFC_DLL@DV?$ChTraitsCRT@D@ATL@@@@@ATL@@PAVCChartLink@@@Z$4:
  0001b	8d 4d e0	 lea	 ecx, DWORD PTR $T2[ebp]
  0001e	ff 25 00 00 00
	00		 jmp	 DWORD PTR __imp_??1?$CStringT@DV?$StrTraitMFC_DLL@DV?$ChTraitsCRT@D@ATL@@@@@ATL@@QAE@XZ
  00024	cc		 int	 3
  00025	cc		 int	 3
  00026	cc		 int	 3
  00027	cc		 int	 3
  00028	cc		 int	 3
__ehhandler$?GetBlockandGraphAllData@CDataOfChartListPage@@QAE?AV?$CStringT@DV?$StrTraitMFC_DLL@DV?$ChTraitsCRT@D@ATL@@@@@ATL@@PAVCChartLink@@@Z:
  00029	90		 npad	 1
  0002a	90		 npad	 1
  0002b	8b 54 24 08	 mov	 edx, DWORD PTR [esp+8]
  0002f	8d 42 0c	 lea	 eax, DWORD PTR [edx+12]
  00032	8b 4a dc	 mov	 ecx, DWORD PTR [edx-36]
  00035	33 c8		 xor	 ecx, eax
  00037	e8 00 00 00 00	 call	 @__security_check_cookie@4
  0003c	b8 00 00 00 00	 mov	 eax, OFFSET __ehfuncinfo$?GetBlockandGraphAllData@CDataOfChartListPage@@QAE?AV?$CStringT@DV?$StrTraitMFC_DLL@DV?$ChTraitsCRT@D@ATL@@@@@ATL@@PAVCChartLink@@@Z
  00041	e9 00 00 00 00	 jmp	 ___CxxFrameHandler3
text$x	ENDS
?GetBlockandGraphAllData@CDataOfChartListPage@@QAE?AV?$CStringT@DV?$StrTraitMFC_DLL@DV?$ChTraitsCRT@D@ATL@@@@@ATL@@PAVCChartLink@@@Z ENDP ; CDataOfChartListPage::GetBlockandGraphAllData
; Function compile flags: /Ogtp
; File D:\git\src\IBK\IBK_DRFN\ProjSrc\SrcChartEx\ChartAddIn\ChartDesignPropertyAddIn\ChartDesignPropertyAddIn\DataOfChartListPage.cpp
;	COMDAT ?__empty_global_delete@@YAXPAXI@Z
_TEXT	SEGMENT
___formal$ = 8						; size = 4
___formal$ = 12						; size = 4
?__empty_global_delete@@YAXPAXI@Z PROC			; __empty_global_delete, COMDAT

  00000	c2 00 00	 ret	 0
?__empty_global_delete@@YAXPAXI@Z ENDP			; __empty_global_delete
_TEXT	ENDS
; Function compile flags: /Ogtp
; File D:\git\src\IBK\IBK_DRFN\ProjSrc\SrcChartEx\ChartAddIn\ChartDesignPropertyAddIn\ChartDesignPropertyAddIn\DataOfChartListPage.cpp
;	COMDAT ?__empty_global_delete@@YAXPAX@Z
_TEXT	SEGMENT
___formal$ = 8						; size = 4
?__empty_global_delete@@YAXPAX@Z PROC			; __empty_global_delete, COMDAT

  00000	c2 00 00	 ret	 0
?__empty_global_delete@@YAXPAX@Z ENDP			; __empty_global_delete
_TEXT	ENDS
END
