; Listing generated by Microsoft (R) Optimizing Compiler Version 19.29.30145.0 

	TITLE	D:\git\src\IBK\IBK_DRFN\#DRfn-CS\_Obj\ChartDesignPropertyAddIn\DataOfPacketPage.obj
	.686P
	.XMM
	include listing.inc
	.model	flat

INCLUDELIB MSVCRT
INCLUDELIB OLDNAMES

PUBLIC	?__empty_global_delete@@YAXPAX@Z		; __empty_global_delete
PUBLIC	?__empty_global_delete@@YAXPAXI@Z		; __empty_global_delete
PUBLIC	?Init@CDataOfPacketPage@@QAEXABV?$CStringT@DV?$StrTraitMFC_DLL@DV?$ChTraitsCRT@D@ATL@@@@@ATL@@PAVCPacketSuperGrid@@@Z ; CDataOfPacketPage::Init
PUBLIC	??0CDataOfPacketPage@@QAE@XZ			; CDataOfPacketPage::CDataOfPacketPage
PUBLIC	??1CDataOfPacketPage@@UAE@XZ			; CDataOfPacketPage::~CDataOfPacketPage
PUBLIC	?GetUseRealPacketItems@CDataOfPacketPage@@QAE?AV?$CStringT@DV?$StrTraitMFC_DLL@DV?$ChTraitsCRT@D@ATL@@@@@ATL@@ABV23@@Z ; CDataOfPacketPage::GetUseRealPacketItems
PUBLIC	?GetAllDataFromListCtrl@CDataOfPacketPage@@QAE?AV?$CStringT@DV?$StrTraitMFC_DLL@DV?$ChTraitsCRT@D@ATL@@@@@ATL@@PAVCPacketSuperGrid@@@Z ; CDataOfPacketPage::GetAllDataFromListCtrl
PUBLIC	?AddData@CDataOfPacketPage@@AAEXHABV?$CStringT@DV?$StrTraitMFC_DLL@DV?$ChTraitsCRT@D@ATL@@@@@ATL@@0000PAVCPacketSuperGrid@@@Z ; CDataOfPacketPage::AddData
PUBLIC	??_GCDataOfPacketPage@@UAEPAXI@Z		; CDataOfPacketPage::`scalar deleting destructor'
PUBLIC	??_C@_00CNPNBAHC@@				; `string'
PUBLIC	??_C@_0BE@BAJMOMEE@CreateLocalMetaText@		; `string'
PUBLIC	??_7CDataOfPacketPage@@6B@			; CDataOfPacketPage::`vftable'
PUBLIC	??_C@_01ICJEACDI@?$DL@				; `string'
PUBLIC	??_C@_06LFBENNGP@Packet@			; `string'
PUBLIC	??_C@_02BJKFEGHC@1?$DL@				; `string'
PUBLIC	??_C@_02BIGHCMEF@0?$DL@				; `string'
PUBLIC	??_C@_02PCIJFNDE@?$AN?6@			; `string'
PUBLIC	??_R4CDataOfPacketPage@@6B@			; CDataOfPacketPage::`RTTI Complete Object Locator'
PUBLIC	??_R0?AVCDataOfPacketPage@@@8			; CDataOfPacketPage `RTTI Type Descriptor'
PUBLIC	??_R3CDataOfPacketPage@@8			; CDataOfPacketPage::`RTTI Class Hierarchy Descriptor'
PUBLIC	??_R2CDataOfPacketPage@@8			; CDataOfPacketPage::`RTTI Base Class Array'
PUBLIC	??_R1A@?0A@EA@CDataOfPacketPage@@8		; CDataOfPacketPage::`RTTI Base Class Descriptor at (0,-1,0,64)'
EXTRN	??3@YAXPAXI@Z:PROC				; operator delete
EXTRN	__imp__GetProcAddress@8:PROC
EXTRN	__imp__SendMessageA@16:PROC
EXTRN	__imp__atoi:PROC
EXTRN	__imp_?Concatenate@?$CSimpleStringT@D$00@ATL@@KAXAAV12@PBDH1H@Z:PROC
EXTRN	__imp_??0?$CStringT@DV?$StrTraitMFC_DLL@DV?$ChTraitsCRT@D@ATL@@@@@ATL@@QAE@XZ:PROC
EXTRN	__imp_??0?$CStringT@DV?$StrTraitMFC_DLL@DV?$ChTraitsCRT@D@ATL@@@@@ATL@@QAE@PAUIAtlStringMgr@1@@Z:PROC
EXTRN	__imp_??0?$CStringT@DV?$StrTraitMFC_DLL@DV?$ChTraitsCRT@D@ATL@@@@@ATL@@QAE@ABV01@@Z:PROC
EXTRN	__imp_??0?$CStringT@DV?$StrTraitMFC_DLL@DV?$ChTraitsCRT@D@ATL@@@@@ATL@@QAE@PBD@Z:PROC
EXTRN	__imp_??1?$CStringT@DV?$StrTraitMFC_DLL@DV?$ChTraitsCRT@D@ATL@@@@@ATL@@QAE@XZ:PROC
EXTRN	__imp_??Y?$CStringT@DV?$StrTraitMFC_DLL@DV?$ChTraitsCRT@D@ATL@@@@@ATL@@QAEAAV01@ABV?$CSimpleStringT@D$00@1@@Z:PROC
EXTRN	__imp_??Y?$CStringT@DV?$StrTraitMFC_DLL@DV?$ChTraitsCRT@D@ATL@@@@@ATL@@QAEAAV01@PBD@Z:PROC
EXTRN	__imp_?GetManager@?$CStringT@DV?$StrTraitMFC_DLL@DV?$ChTraitsCRT@D@ATL@@@@@ATL@@QBEPAUIAtlStringMgr@2@XZ:PROC
EXTRN	__imp_?Compare@?$CStringT@DV?$StrTraitMFC_DLL@DV?$ChTraitsCRT@D@ATL@@@@@ATL@@QBEHPBD@Z:PROC
EXTRN	__imp_?Right@?$CStringT@DV?$StrTraitMFC_DLL@DV?$ChTraitsCRT@D@ATL@@@@@ATL@@QBE?AV12@H@Z:PROC
EXTRN	?GetItemText@CListCtrl@@QBE?AV?$CStringT@DV?$StrTraitMFC_DLL@DV?$ChTraitsCRT@D@ATL@@@@@ATL@@HH@Z:PROC ; CListCtrl::GetItemText
EXTRN	?GetCheck@CListCtrl@@QBEHH@Z:PROC		; CListCtrl::GetCheck
EXTRN	?GetMetaText@IMetaTable@@QAEPBDPAUHWND__@@W4E_CODEPAGE@1@PBDH@Z:PROC ; IMetaTable::GetMetaText
EXTRN	?GetLanguageText@IMetaTable@@QAEPBDPAUHWND__@@W4E_CODEPAGE@1@PBDH@Z:PROC ; IMetaTable::GetLanguageText
EXTRN	??_ECDataOfPacketPage@@UAEPAXI@Z:PROC		; CDataOfPacketPage::`vector deleting destructor'
EXTRN	?AddItem@CPacketSuperGrid@@QAEXHABV?$CStringT@DV?$StrTraitMFC_DLL@DV?$ChTraitsCRT@D@ATL@@@@@ATL@@0000@Z:PROC ; CPacketSuperGrid::AddItem
EXTRN	?GetStringData@CDataConversion@@SA?AV?$CStringT@DV?$StrTraitMFC_DLL@DV?$ChTraitsCRT@D@ATL@@@@@ATL@@AAV23@ABV23@_N@Z:PROC ; CDataConversion::GetStringData
EXTRN	?GetStringDataCount@CDataConversion@@SAHABV?$CStringT@DV?$StrTraitMFC_DLL@DV?$ChTraitsCRT@D@ATL@@@@@ATL@@0@Z:PROC ; CDataConversion::GetStringDataCount
EXTRN	@__security_check_cookie@4:PROC
EXTRN	___CxxFrameHandler3:PROC
EXTRN	??_7type_info@@6B@:QWORD			; type_info::`vftable'
EXTRN	?g_iMetaTable@@3VIMetaTable@@A:BYTE		; g_iMetaTable
EXTRN	___security_cookie:DWORD
;	COMDAT ??_R1A@?0A@EA@CDataOfPacketPage@@8
rdata$r	SEGMENT
??_R1A@?0A@EA@CDataOfPacketPage@@8 DD FLAT:??_R0?AVCDataOfPacketPage@@@8 ; CDataOfPacketPage::`RTTI Base Class Descriptor at (0,-1,0,64)'
	DD	00H
	DD	00H
	DD	0ffffffffH
	DD	00H
	DD	040H
	DD	FLAT:??_R3CDataOfPacketPage@@8
rdata$r	ENDS
;	COMDAT ??_R2CDataOfPacketPage@@8
rdata$r	SEGMENT
??_R2CDataOfPacketPage@@8 DD FLAT:??_R1A@?0A@EA@CDataOfPacketPage@@8 ; CDataOfPacketPage::`RTTI Base Class Array'
rdata$r	ENDS
;	COMDAT ??_R3CDataOfPacketPage@@8
rdata$r	SEGMENT
??_R3CDataOfPacketPage@@8 DD 00H			; CDataOfPacketPage::`RTTI Class Hierarchy Descriptor'
	DD	00H
	DD	01H
	DD	FLAT:??_R2CDataOfPacketPage@@8
rdata$r	ENDS
;	COMDAT ??_R0?AVCDataOfPacketPage@@@8
data$rs	SEGMENT
??_R0?AVCDataOfPacketPage@@@8 DD FLAT:??_7type_info@@6B@ ; CDataOfPacketPage `RTTI Type Descriptor'
	DD	00H
	DB	'.?AVCDataOfPacketPage@@', 00H
data$rs	ENDS
;	COMDAT ??_R4CDataOfPacketPage@@6B@
rdata$r	SEGMENT
??_R4CDataOfPacketPage@@6B@ DD 00H			; CDataOfPacketPage::`RTTI Complete Object Locator'
	DD	00H
	DD	00H
	DD	FLAT:??_R0?AVCDataOfPacketPage@@@8
	DD	FLAT:??_R3CDataOfPacketPage@@8
rdata$r	ENDS
;	COMDAT ??_C@_02PCIJFNDE@?$AN?6@
CONST	SEGMENT
??_C@_02PCIJFNDE@?$AN?6@ DB 0dH, 0aH, 00H		; `string'
CONST	ENDS
;	COMDAT ??_C@_02BIGHCMEF@0?$DL@
CONST	SEGMENT
??_C@_02BIGHCMEF@0?$DL@ DB '0;', 00H			; `string'
CONST	ENDS
;	COMDAT ??_C@_02BJKFEGHC@1?$DL@
CONST	SEGMENT
??_C@_02BJKFEGHC@1?$DL@ DB '1;', 00H			; `string'
CONST	ENDS
;	COMDAT ??_C@_06LFBENNGP@Packet@
CONST	SEGMENT
??_C@_06LFBENNGP@Packet@ DB 'Packet', 00H		; `string'
CONST	ENDS
;	COMDAT ??_C@_01ICJEACDI@?$DL@
CONST	SEGMENT
??_C@_01ICJEACDI@?$DL@ DB ';', 00H			; `string'
CONST	ENDS
;	COMDAT ??_7CDataOfPacketPage@@6B@
CONST	SEGMENT
??_7CDataOfPacketPage@@6B@ DD FLAT:??_R4CDataOfPacketPage@@6B@ ; CDataOfPacketPage::`vftable'
	DD	FLAT:??_ECDataOfPacketPage@@UAEPAXI@Z
CONST	ENDS
;	COMDAT ??_C@_0BE@BAJMOMEE@CreateLocalMetaText@
CONST	SEGMENT
??_C@_0BE@BAJMOMEE@CreateLocalMetaText@ DB 'CreateLocalMetaText', 00H ; `string'
CONST	ENDS
;	COMDAT ??_C@_00CNPNBAHC@@
CONST	SEGMENT
??_C@_00CNPNBAHC@@ DB 00H				; `string'
CONST	ENDS
;	COMDAT xdata$x
xdata$x	SEGMENT
__unwindtable$?AddData@CDataOfPacketPage@@AAEXHABV?$CStringT@DV?$StrTraitMFC_DLL@DV?$ChTraitsCRT@D@ATL@@@@@ATL@@0000PAVCPacketSuperGrid@@@Z DD 0ffffffffH
	DD	FLAT:__unwindfunclet$?AddData@CDataOfPacketPage@@AAEXHABV?$CStringT@DV?$StrTraitMFC_DLL@DV?$ChTraitsCRT@D@ATL@@@@@ATL@@0000PAVCPacketSuperGrid@@@Z$1
__ehfuncinfo$?AddData@CDataOfPacketPage@@AAEXHABV?$CStringT@DV?$StrTraitMFC_DLL@DV?$ChTraitsCRT@D@ATL@@@@@ATL@@0000PAVCPacketSuperGrid@@@Z DD 019930522H
	DD	01H
	DD	FLAT:__unwindtable$?AddData@CDataOfPacketPage@@AAEXHABV?$CStringT@DV?$StrTraitMFC_DLL@DV?$ChTraitsCRT@D@ATL@@@@@ATL@@0000PAVCPacketSuperGrid@@@Z
	DD	2 DUP(00H)
	DD	2 DUP(00H)
	DD	00H
	DD	01H
xdata$x	ENDS
;	COMDAT xdata$x
xdata$x	SEGMENT
__ehfuncinfo$?GetAllDataFromListCtrl@CDataOfPacketPage@@QAE?AV?$CStringT@DV?$StrTraitMFC_DLL@DV?$ChTraitsCRT@D@ATL@@@@@ATL@@PAVCPacketSuperGrid@@@Z DD 019930522H
	DD	0aH
	DD	FLAT:__unwindtable$?GetAllDataFromListCtrl@CDataOfPacketPage@@QAE?AV?$CStringT@DV?$StrTraitMFC_DLL@DV?$ChTraitsCRT@D@ATL@@@@@ATL@@PAVCPacketSuperGrid@@@Z
	DD	2 DUP(00H)
	DD	2 DUP(00H)
	DD	00H
	DD	01H
__unwindtable$?GetAllDataFromListCtrl@CDataOfPacketPage@@QAE?AV?$CStringT@DV?$StrTraitMFC_DLL@DV?$ChTraitsCRT@D@ATL@@@@@ATL@@PAVCPacketSuperGrid@@@Z DD 0ffffffffH
	DD	FLAT:__unwindfunclet$?GetAllDataFromListCtrl@CDataOfPacketPage@@QAE?AV?$CStringT@DV?$StrTraitMFC_DLL@DV?$ChTraitsCRT@D@ATL@@@@@ATL@@PAVCPacketSuperGrid@@@Z$0
	DD	00H
	DD	FLAT:__unwindfunclet$?GetAllDataFromListCtrl@CDataOfPacketPage@@QAE?AV?$CStringT@DV?$StrTraitMFC_DLL@DV?$ChTraitsCRT@D@ATL@@@@@ATL@@PAVCPacketSuperGrid@@@Z$1
	DD	01H
	DD	FLAT:__unwindfunclet$?GetAllDataFromListCtrl@CDataOfPacketPage@@QAE?AV?$CStringT@DV?$StrTraitMFC_DLL@DV?$ChTraitsCRT@D@ATL@@@@@ATL@@PAVCPacketSuperGrid@@@Z$2
	DD	02H
	DD	FLAT:__unwindfunclet$?GetAllDataFromListCtrl@CDataOfPacketPage@@QAE?AV?$CStringT@DV?$StrTraitMFC_DLL@DV?$ChTraitsCRT@D@ATL@@@@@ATL@@PAVCPacketSuperGrid@@@Z$10
	DD	01H
	DD	FLAT:__unwindfunclet$?GetAllDataFromListCtrl@CDataOfPacketPage@@QAE?AV?$CStringT@DV?$StrTraitMFC_DLL@DV?$ChTraitsCRT@D@ATL@@@@@ATL@@PAVCPacketSuperGrid@@@Z$4
	DD	04H
	DD	FLAT:__unwindfunclet$?GetAllDataFromListCtrl@CDataOfPacketPage@@QAE?AV?$CStringT@DV?$StrTraitMFC_DLL@DV?$ChTraitsCRT@D@ATL@@@@@ATL@@PAVCPacketSuperGrid@@@Z$5
	DD	05H
	DD	FLAT:__unwindfunclet$?GetAllDataFromListCtrl@CDataOfPacketPage@@QAE?AV?$CStringT@DV?$StrTraitMFC_DLL@DV?$ChTraitsCRT@D@ATL@@@@@ATL@@PAVCPacketSuperGrid@@@Z$11
	DD	01H
	DD	FLAT:__unwindfunclet$?GetAllDataFromListCtrl@CDataOfPacketPage@@QAE?AV?$CStringT@DV?$StrTraitMFC_DLL@DV?$ChTraitsCRT@D@ATL@@@@@ATL@@PAVCPacketSuperGrid@@@Z$7
	DD	07H
	DD	FLAT:__unwindfunclet$?GetAllDataFromListCtrl@CDataOfPacketPage@@QAE?AV?$CStringT@DV?$StrTraitMFC_DLL@DV?$ChTraitsCRT@D@ATL@@@@@ATL@@PAVCPacketSuperGrid@@@Z$8
	DD	08H
	DD	FLAT:__unwindfunclet$?GetAllDataFromListCtrl@CDataOfPacketPage@@QAE?AV?$CStringT@DV?$StrTraitMFC_DLL@DV?$ChTraitsCRT@D@ATL@@@@@ATL@@PAVCPacketSuperGrid@@@Z$12
xdata$x	ENDS
;	COMDAT xdata$x
xdata$x	SEGMENT
__ehfuncinfo$?GetUseRealPacketItems@CDataOfPacketPage@@QAE?AV?$CStringT@DV?$StrTraitMFC_DLL@DV?$ChTraitsCRT@D@ATL@@@@@ATL@@ABV23@@Z DD 019930522H
	DD	018H
	DD	FLAT:__unwindtable$?GetUseRealPacketItems@CDataOfPacketPage@@QAE?AV?$CStringT@DV?$StrTraitMFC_DLL@DV?$ChTraitsCRT@D@ATL@@@@@ATL@@ABV23@@Z
	DD	2 DUP(00H)
	DD	2 DUP(00H)
	DD	00H
	DD	01H
__unwindtable$?GetUseRealPacketItems@CDataOfPacketPage@@QAE?AV?$CStringT@DV?$StrTraitMFC_DLL@DV?$ChTraitsCRT@D@ATL@@@@@ATL@@ABV23@@Z DD 0ffffffffH
	DD	FLAT:__unwindfunclet$?GetUseRealPacketItems@CDataOfPacketPage@@QAE?AV?$CStringT@DV?$StrTraitMFC_DLL@DV?$ChTraitsCRT@D@ATL@@@@@ATL@@ABV23@@Z$1
	DD	00H
	DD	FLAT:__unwindfunclet$?GetUseRealPacketItems@CDataOfPacketPage@@QAE?AV?$CStringT@DV?$StrTraitMFC_DLL@DV?$ChTraitsCRT@D@ATL@@@@@ATL@@ABV23@@Z$2
	DD	00H
	DD	FLAT:__unwindfunclet$?GetUseRealPacketItems@CDataOfPacketPage@@QAE?AV?$CStringT@DV?$StrTraitMFC_DLL@DV?$ChTraitsCRT@D@ATL@@@@@ATL@@ABV23@@Z$3
	DD	02H
	DD	FLAT:__unwindfunclet$?GetUseRealPacketItems@CDataOfPacketPage@@QAE?AV?$CStringT@DV?$StrTraitMFC_DLL@DV?$ChTraitsCRT@D@ATL@@@@@ATL@@ABV23@@Z$4
	DD	02H
	DD	FLAT:__unwindfunclet$?GetUseRealPacketItems@CDataOfPacketPage@@QAE?AV?$CStringT@DV?$StrTraitMFC_DLL@DV?$ChTraitsCRT@D@ATL@@@@@ATL@@ABV23@@Z$5
	DD	04H
	DD	FLAT:__unwindfunclet$?GetUseRealPacketItems@CDataOfPacketPage@@QAE?AV?$CStringT@DV?$StrTraitMFC_DLL@DV?$ChTraitsCRT@D@ATL@@@@@ATL@@ABV23@@Z$6
	DD	02H
	DD	FLAT:__unwindfunclet$?GetUseRealPacketItems@CDataOfPacketPage@@QAE?AV?$CStringT@DV?$StrTraitMFC_DLL@DV?$ChTraitsCRT@D@ATL@@@@@ATL@@ABV23@@Z$6
	DD	06H
	DD	FLAT:__unwindfunclet$?GetUseRealPacketItems@CDataOfPacketPage@@QAE?AV?$CStringT@DV?$StrTraitMFC_DLL@DV?$ChTraitsCRT@D@ATL@@@@@ATL@@ABV23@@Z$7
	DD	06H
	DD	FLAT:__unwindfunclet$?GetUseRealPacketItems@CDataOfPacketPage@@QAE?AV?$CStringT@DV?$StrTraitMFC_DLL@DV?$ChTraitsCRT@D@ATL@@@@@ATL@@ABV23@@Z$9
	DD	08H
	DD	FLAT:__unwindfunclet$?GetUseRealPacketItems@CDataOfPacketPage@@QAE?AV?$CStringT@DV?$StrTraitMFC_DLL@DV?$ChTraitsCRT@D@ATL@@@@@ATL@@ABV23@@Z$10
	DD	06H
	DD	FLAT:__unwindfunclet$?GetUseRealPacketItems@CDataOfPacketPage@@QAE?AV?$CStringT@DV?$StrTraitMFC_DLL@DV?$ChTraitsCRT@D@ATL@@@@@ATL@@ABV23@@Z$10
	DD	0aH
	DD	FLAT:__unwindfunclet$?GetUseRealPacketItems@CDataOfPacketPage@@QAE?AV?$CStringT@DV?$StrTraitMFC_DLL@DV?$ChTraitsCRT@D@ATL@@@@@ATL@@ABV23@@Z$11
	DD	0bH
	DD	FLAT:__unwindfunclet$?GetUseRealPacketItems@CDataOfPacketPage@@QAE?AV?$CStringT@DV?$StrTraitMFC_DLL@DV?$ChTraitsCRT@D@ATL@@@@@ATL@@ABV23@@Z$12
	DD	0aH
	DD	FLAT:__unwindfunclet$?GetUseRealPacketItems@CDataOfPacketPage@@QAE?AV?$CStringT@DV?$StrTraitMFC_DLL@DV?$ChTraitsCRT@D@ATL@@@@@ATL@@ABV23@@Z$12
	DD	0dH
	DD	FLAT:__unwindfunclet$?GetUseRealPacketItems@CDataOfPacketPage@@QAE?AV?$CStringT@DV?$StrTraitMFC_DLL@DV?$ChTraitsCRT@D@ATL@@@@@ATL@@ABV23@@Z$13
	DD	0eH
	DD	FLAT:__unwindfunclet$?GetUseRealPacketItems@CDataOfPacketPage@@QAE?AV?$CStringT@DV?$StrTraitMFC_DLL@DV?$ChTraitsCRT@D@ATL@@@@@ATL@@ABV23@@Z$14
	DD	0dH
	DD	FLAT:__unwindfunclet$?GetUseRealPacketItems@CDataOfPacketPage@@QAE?AV?$CStringT@DV?$StrTraitMFC_DLL@DV?$ChTraitsCRT@D@ATL@@@@@ATL@@ABV23@@Z$14
	DD	010H
	DD	FLAT:__unwindfunclet$?GetUseRealPacketItems@CDataOfPacketPage@@QAE?AV?$CStringT@DV?$StrTraitMFC_DLL@DV?$ChTraitsCRT@D@ATL@@@@@ATL@@ABV23@@Z$15
	DD	011H
	DD	FLAT:__unwindfunclet$?GetUseRealPacketItems@CDataOfPacketPage@@QAE?AV?$CStringT@DV?$StrTraitMFC_DLL@DV?$ChTraitsCRT@D@ATL@@@@@ATL@@ABV23@@Z$16
	DD	010H
	DD	FLAT:__unwindfunclet$?GetUseRealPacketItems@CDataOfPacketPage@@QAE?AV?$CStringT@DV?$StrTraitMFC_DLL@DV?$ChTraitsCRT@D@ATL@@@@@ATL@@ABV23@@Z$16
	DD	013H
	DD	FLAT:__unwindfunclet$?GetUseRealPacketItems@CDataOfPacketPage@@QAE?AV?$CStringT@DV?$StrTraitMFC_DLL@DV?$ChTraitsCRT@D@ATL@@@@@ATL@@ABV23@@Z$17
	DD	014H
	DD	FLAT:__unwindfunclet$?GetUseRealPacketItems@CDataOfPacketPage@@QAE?AV?$CStringT@DV?$StrTraitMFC_DLL@DV?$ChTraitsCRT@D@ATL@@@@@ATL@@ABV23@@Z$18
	DD	013H
	DD	FLAT:__unwindfunclet$?GetUseRealPacketItems@CDataOfPacketPage@@QAE?AV?$CStringT@DV?$StrTraitMFC_DLL@DV?$ChTraitsCRT@D@ATL@@@@@ATL@@ABV23@@Z$18
	DD	016H
	DD	FLAT:__unwindfunclet$?GetUseRealPacketItems@CDataOfPacketPage@@QAE?AV?$CStringT@DV?$StrTraitMFC_DLL@DV?$ChTraitsCRT@D@ATL@@@@@ATL@@ABV23@@Z$20
xdata$x	ENDS
;	COMDAT xdata$x
xdata$x	SEGMENT
__ehfuncinfo$?Init@CDataOfPacketPage@@QAEXABV?$CStringT@DV?$StrTraitMFC_DLL@DV?$ChTraitsCRT@D@ATL@@@@@ATL@@PAVCPacketSuperGrid@@@Z DD 019930522H
	DD	01aH
	DD	FLAT:__unwindtable$?Init@CDataOfPacketPage@@QAEXABV?$CStringT@DV?$StrTraitMFC_DLL@DV?$ChTraitsCRT@D@ATL@@@@@ATL@@PAVCPacketSuperGrid@@@Z
	DD	2 DUP(00H)
	DD	2 DUP(00H)
	DD	00H
	DD	01H
__unwindtable$?Init@CDataOfPacketPage@@QAEXABV?$CStringT@DV?$StrTraitMFC_DLL@DV?$ChTraitsCRT@D@ATL@@@@@ATL@@PAVCPacketSuperGrid@@@Z DD 0ffffffffH
	DD	FLAT:__unwindfunclet$?Init@CDataOfPacketPage@@QAEXABV?$CStringT@DV?$StrTraitMFC_DLL@DV?$ChTraitsCRT@D@ATL@@@@@ATL@@PAVCPacketSuperGrid@@@Z$0
	DD	00H
	DD	FLAT:__unwindfunclet$?Init@CDataOfPacketPage@@QAEXABV?$CStringT@DV?$StrTraitMFC_DLL@DV?$ChTraitsCRT@D@ATL@@@@@ATL@@PAVCPacketSuperGrid@@@Z$1
	DD	00H
	DD	FLAT:__unwindfunclet$?Init@CDataOfPacketPage@@QAEXABV?$CStringT@DV?$StrTraitMFC_DLL@DV?$ChTraitsCRT@D@ATL@@@@@ATL@@PAVCPacketSuperGrid@@@Z$2
	DD	00H
	DD	FLAT:__unwindfunclet$?Init@CDataOfPacketPage@@QAEXABV?$CStringT@DV?$StrTraitMFC_DLL@DV?$ChTraitsCRT@D@ATL@@@@@ATL@@PAVCPacketSuperGrid@@@Z$3
	DD	03H
	DD	FLAT:__unwindfunclet$?Init@CDataOfPacketPage@@QAEXABV?$CStringT@DV?$StrTraitMFC_DLL@DV?$ChTraitsCRT@D@ATL@@@@@ATL@@PAVCPacketSuperGrid@@@Z$4
	DD	00H
	DD	FLAT:__unwindfunclet$?Init@CDataOfPacketPage@@QAEXABV?$CStringT@DV?$StrTraitMFC_DLL@DV?$ChTraitsCRT@D@ATL@@@@@ATL@@PAVCPacketSuperGrid@@@Z$4
	DD	05H
	DD	FLAT:__unwindfunclet$?Init@CDataOfPacketPage@@QAEXABV?$CStringT@DV?$StrTraitMFC_DLL@DV?$ChTraitsCRT@D@ATL@@@@@ATL@@PAVCPacketSuperGrid@@@Z$5
	DD	05H
	DD	FLAT:__unwindfunclet$?Init@CDataOfPacketPage@@QAEXABV?$CStringT@DV?$StrTraitMFC_DLL@DV?$ChTraitsCRT@D@ATL@@@@@ATL@@PAVCPacketSuperGrid@@@Z$7
	DD	07H
	DD	FLAT:__unwindfunclet$?Init@CDataOfPacketPage@@QAEXABV?$CStringT@DV?$StrTraitMFC_DLL@DV?$ChTraitsCRT@D@ATL@@@@@ATL@@PAVCPacketSuperGrid@@@Z$8
	DD	05H
	DD	FLAT:__unwindfunclet$?Init@CDataOfPacketPage@@QAEXABV?$CStringT@DV?$StrTraitMFC_DLL@DV?$ChTraitsCRT@D@ATL@@@@@ATL@@PAVCPacketSuperGrid@@@Z$8
	DD	09H
	DD	FLAT:__unwindfunclet$?Init@CDataOfPacketPage@@QAEXABV?$CStringT@DV?$StrTraitMFC_DLL@DV?$ChTraitsCRT@D@ATL@@@@@ATL@@PAVCPacketSuperGrid@@@Z$9
	DD	0aH
	DD	FLAT:__unwindfunclet$?Init@CDataOfPacketPage@@QAEXABV?$CStringT@DV?$StrTraitMFC_DLL@DV?$ChTraitsCRT@D@ATL@@@@@ATL@@PAVCPacketSuperGrid@@@Z$10
	DD	09H
	DD	FLAT:__unwindfunclet$?Init@CDataOfPacketPage@@QAEXABV?$CStringT@DV?$StrTraitMFC_DLL@DV?$ChTraitsCRT@D@ATL@@@@@ATL@@PAVCPacketSuperGrid@@@Z$10
	DD	0cH
	DD	FLAT:__unwindfunclet$?Init@CDataOfPacketPage@@QAEXABV?$CStringT@DV?$StrTraitMFC_DLL@DV?$ChTraitsCRT@D@ATL@@@@@ATL@@PAVCPacketSuperGrid@@@Z$11
	DD	0dH
	DD	FLAT:__unwindfunclet$?Init@CDataOfPacketPage@@QAEXABV?$CStringT@DV?$StrTraitMFC_DLL@DV?$ChTraitsCRT@D@ATL@@@@@ATL@@PAVCPacketSuperGrid@@@Z$12
	DD	0cH
	DD	FLAT:__unwindfunclet$?Init@CDataOfPacketPage@@QAEXABV?$CStringT@DV?$StrTraitMFC_DLL@DV?$ChTraitsCRT@D@ATL@@@@@ATL@@PAVCPacketSuperGrid@@@Z$12
	DD	0fH
	DD	FLAT:__unwindfunclet$?Init@CDataOfPacketPage@@QAEXABV?$CStringT@DV?$StrTraitMFC_DLL@DV?$ChTraitsCRT@D@ATL@@@@@ATL@@PAVCPacketSuperGrid@@@Z$13
	DD	010H
	DD	FLAT:__unwindfunclet$?Init@CDataOfPacketPage@@QAEXABV?$CStringT@DV?$StrTraitMFC_DLL@DV?$ChTraitsCRT@D@ATL@@@@@ATL@@PAVCPacketSuperGrid@@@Z$14
	DD	0fH
	DD	FLAT:__unwindfunclet$?Init@CDataOfPacketPage@@QAEXABV?$CStringT@DV?$StrTraitMFC_DLL@DV?$ChTraitsCRT@D@ATL@@@@@ATL@@PAVCPacketSuperGrid@@@Z$14
	DD	012H
	DD	FLAT:__unwindfunclet$?Init@CDataOfPacketPage@@QAEXABV?$CStringT@DV?$StrTraitMFC_DLL@DV?$ChTraitsCRT@D@ATL@@@@@ATL@@PAVCPacketSuperGrid@@@Z$15
	DD	013H
	DD	FLAT:__unwindfunclet$?Init@CDataOfPacketPage@@QAEXABV?$CStringT@DV?$StrTraitMFC_DLL@DV?$ChTraitsCRT@D@ATL@@@@@ATL@@PAVCPacketSuperGrid@@@Z$16
	DD	012H
	DD	FLAT:__unwindfunclet$?Init@CDataOfPacketPage@@QAEXABV?$CStringT@DV?$StrTraitMFC_DLL@DV?$ChTraitsCRT@D@ATL@@@@@ATL@@PAVCPacketSuperGrid@@@Z$16
	DD	015H
	DD	FLAT:__unwindfunclet$?Init@CDataOfPacketPage@@QAEXABV?$CStringT@DV?$StrTraitMFC_DLL@DV?$ChTraitsCRT@D@ATL@@@@@ATL@@PAVCPacketSuperGrid@@@Z$17
	DD	016H
	DD	FLAT:__unwindfunclet$?Init@CDataOfPacketPage@@QAEXABV?$CStringT@DV?$StrTraitMFC_DLL@DV?$ChTraitsCRT@D@ATL@@@@@ATL@@PAVCPacketSuperGrid@@@Z$18
	DD	017H
	DD	FLAT:__unwindfunclet$?Init@CDataOfPacketPage@@QAEXABV?$CStringT@DV?$StrTraitMFC_DLL@DV?$ChTraitsCRT@D@ATL@@@@@ATL@@PAVCPacketSuperGrid@@@Z$19
	DD	018H
	DD	FLAT:__unwindfunclet$?Init@CDataOfPacketPage@@QAEXABV?$CStringT@DV?$StrTraitMFC_DLL@DV?$ChTraitsCRT@D@ATL@@@@@ATL@@PAVCPacketSuperGrid@@@Z$21
xdata$x	ENDS
;	COMDAT xdata$x
xdata$x	SEGMENT
__unwindtable$??HATL@@YA?AV?$CStringT@DV?$StrTraitMFC_DLL@DV?$ChTraitsCRT@D@ATL@@@@@0@ABV10@PBD@Z DD 0ffffffffH
	DD	FLAT:__unwindfunclet$??HATL@@YA?AV?$CStringT@DV?$StrTraitMFC_DLL@DV?$ChTraitsCRT@D@ATL@@@@@0@ABV10@PBD@Z$0
__ehfuncinfo$??HATL@@YA?AV?$CStringT@DV?$StrTraitMFC_DLL@DV?$ChTraitsCRT@D@ATL@@@@@0@ABV10@PBD@Z DD 019930522H
	DD	01H
	DD	FLAT:__unwindtable$??HATL@@YA?AV?$CStringT@DV?$StrTraitMFC_DLL@DV?$ChTraitsCRT@D@ATL@@@@@0@ABV10@PBD@Z
	DD	2 DUP(00H)
	DD	2 DUP(00H)
	DD	00H
	DD	01H
xdata$x	ENDS
; Function compile flags: /Ogtp
; File D:\git\src\IBK\IBK_DRFN\ProjSrc\SrcChartEx\ChartAddIn\ChartDesignPropertyAddIn\ChartDesignPropertyAddIn\DataOfPacketPage.cpp
;	COMDAT ??_GCDataOfPacketPage@@UAEPAXI@Z
_TEXT	SEGMENT
___flags$ = 8						; size = 4
??_GCDataOfPacketPage@@UAEPAXI@Z PROC			; CDataOfPacketPage::`scalar deleting destructor', COMDAT
; _this$ = ecx
  00000	55		 push	 ebp
  00001	8b ec		 mov	 ebp, esp

; 29   : {

  00003	56		 push	 esi
  00004	8b f1		 mov	 esi, ecx

; 30   : 
; 31   : }

  00006	8d 4e 08	 lea	 ecx, DWORD PTR [esi+8]
  00009	c7 06 00 00 00
	00		 mov	 DWORD PTR [esi], OFFSET ??_7CDataOfPacketPage@@6B@
  0000f	ff 15 00 00 00
	00		 call	 DWORD PTR __imp_??1?$CStringT@DV?$StrTraitMFC_DLL@DV?$ChTraitsCRT@D@ATL@@@@@ATL@@QAE@XZ
  00015	8d 4e 04	 lea	 ecx, DWORD PTR [esi+4]
  00018	ff 15 00 00 00
	00		 call	 DWORD PTR __imp_??1?$CStringT@DV?$StrTraitMFC_DLL@DV?$ChTraitsCRT@D@ATL@@@@@ATL@@QAE@XZ
  0001e	f6 45 08 01	 test	 BYTE PTR ___flags$[ebp], 1
  00022	74 0b		 je	 SHORT $LN7@scalar
  00024	6a 10		 push	 16			; 00000010H
  00026	56		 push	 esi
  00027	e8 00 00 00 00	 call	 ??3@YAXPAXI@Z		; operator delete
  0002c	83 c4 08	 add	 esp, 8
$LN7@scalar:
  0002f	8b c6		 mov	 eax, esi
  00031	5e		 pop	 esi
  00032	5d		 pop	 ebp
  00033	c2 04 00	 ret	 4
??_GCDataOfPacketPage@@UAEPAXI@Z ENDP			; CDataOfPacketPage::`scalar deleting destructor'
_TEXT	ENDS
; Function compile flags: /Ogtp
; File D:\git\src\IBK\IBK_DRFN\ProjSrc\SrcChartEx\ChartAddIn\ChartDesignPropertyAddIn\ChartDesignPropertyAddIn\DataOfPacketPage.cpp
; File C:\Program Files (x86)\Microsoft Visual Studio\2019\Community\VC\Tools\MSVC\14.29.30133\atlmfc\include\cstringt.h
; File D:\git\src\IBK\IBK_DRFN\ProjSrc\SrcChartEx\ChartAddIn\ChartDesignPropertyAddIn\ChartDesignPropertyAddIn\DataOfPacketPage.cpp
; File C:\Program Files (x86)\Microsoft Visual Studio\2019\Community\VC\Tools\MSVC\14.29.30133\atlmfc\include\cstringt.h
; File C:\Program Files (x86)\Microsoft Visual Studio\2019\Community\VC\Tools\MSVC\14.29.30133\atlmfc\include\atlsimpstr.h
; File C:\Program Files (x86)\Microsoft Visual Studio\2019\Community\VC\Tools\MSVC\14.29.30133\atlmfc\include\cstringt.h
; File D:\git\src\IBK\IBK_DRFN\ProjSrc\SrcChartEx\ChartAddIn\ChartDesignPropertyAddIn\ChartDesignPropertyAddIn\DataOfPacketPage.cpp
; File C:\Program Files (x86)\Microsoft Visual Studio\2019\Community\VC\Tools\MSVC\14.29.30133\atlmfc\include\cstringt.h
; File D:\git\src\IBK\IBK_DRFN\ProjSrc\SrcChartEx\ChartAddIn\ChartDesignPropertyAddIn\ChartDesignPropertyAddIn\DataOfPacketPage.cpp
;	COMDAT ?AddData@CDataOfPacketPage@@AAEXHABV?$CStringT@DV?$StrTraitMFC_DLL@DV?$ChTraitsCRT@D@ATL@@@@@ATL@@0000PAVCPacketSuperGrid@@@Z
_TEXT	SEGMENT
_this$1$ = -20						; size = 4
$T2 = -16						; size = 4
__$EHRec$ = -12						; size = 12
_nCheck$ = 8						; size = 4
$T3 = 12						; size = 4
_szpacket$ = 12						; size = 4
_szField$ = 16						; size = 4
_szLength$ = 20						; size = 4
_szType$ = 24						; size = 4
_szReal$ = 28						; size = 4
_PacketList$ = 32					; size = 4
?AddData@CDataOfPacketPage@@AAEXHABV?$CStringT@DV?$StrTraitMFC_DLL@DV?$ChTraitsCRT@D@ATL@@@@@ATL@@0000PAVCPacketSuperGrid@@@Z PROC ; CDataOfPacketPage::AddData, COMDAT
; _this$ = ecx

; 35   : {

  00000	55		 push	 ebp
  00001	8b ec		 mov	 ebp, esp
  00003	6a ff		 push	 -1
  00005	68 00 00 00 00	 push	 __ehhandler$?AddData@CDataOfPacketPage@@AAEXHABV?$CStringT@DV?$StrTraitMFC_DLL@DV?$ChTraitsCRT@D@ATL@@@@@ATL@@0000PAVCPacketSuperGrid@@@Z
  0000a	64 a1 00 00 00
	00		 mov	 eax, DWORD PTR fs:0
  00010	50		 push	 eax
  00011	83 ec 08	 sub	 esp, 8
  00014	57		 push	 edi
  00015	a1 00 00 00 00	 mov	 eax, DWORD PTR ___security_cookie
  0001a	33 c5		 xor	 eax, ebp
  0001c	50		 push	 eax
  0001d	8d 45 f4	 lea	 eax, DWORD PTR __$EHRec$[ebp]
  00020	64 a3 00 00 00
	00		 mov	 DWORD PTR fs:0, eax
  00026	89 4d ec	 mov	 DWORD PTR _this$1$[ebp], ecx

; 36   : 	//수정되기 이전에 Real을 사용하기로 한 Packet 아이템들.
; 37   : 	if(nCheck == 1 && szReal.Compare( _LTEXT6( C6_YES)) == 0) 

  00029	83 7d 08 01	 cmp	 DWORD PTR _nCheck$[ebp], 1
  0002d	c7 45 f0 00 00
	00 00		 mov	 DWORD PTR $T2[ebp], 0
  00034	8b 7d 0c	 mov	 edi, DWORD PTR _szpacket$[ebp]
  00037	0f 85 80 00 00
	00		 jne	 $LN2@AddData
  0003d	a1 54 00 00 00	 mov	 eax, DWORD PTR ?g_iMetaTable@@3VIMetaTable@@A+84
  00042	6a 00		 push	 0
  00044	ff b0 64 09 00
	00		 push	 DWORD PTR [eax+2404]
  0004a	6a 06		 push	 6
  0004c	ff 71 0c	 push	 DWORD PTR [ecx+12]
  0004f	b9 00 00 00 00	 mov	 ecx, OFFSET ?g_iMetaTable@@3VIMetaTable@@A ; g_iMetaTable
  00054	e8 00 00 00 00	 call	 ?GetLanguageText@IMetaTable@@QAEPBDPAUHWND__@@W4E_CODEPAGE@1@PBDH@Z ; IMetaTable::GetLanguageText
  00059	8b 4d 1c	 mov	 ecx, DWORD PTR _szReal$[ebp]
  0005c	50		 push	 eax
  0005d	ff 15 00 00 00
	00		 call	 DWORD PTR __imp_?Compare@?$CStringT@DV?$StrTraitMFC_DLL@DV?$ChTraitsCRT@D@ATL@@@@@ATL@@QBEHPBD@Z
  00063	85 c0		 test	 eax, eax
  00065	75 56		 jne	 SHORT $LN2@AddData
; File C:\Program Files (x86)\Microsoft Visual Studio\2019\Community\VC\Tools\MSVC\14.29.30133\atlmfc\include\cstringt.h

; 2401 : 		CStringT strResult( str1.GetManager() );

  00067	8b cf		 mov	 ecx, edi
; File D:\git\src\IBK\IBK_DRFN\ProjSrc\SrcChartEx\ChartAddIn\ChartDesignPropertyAddIn\ChartDesignPropertyAddIn\DataOfPacketPage.cpp

; 38   : 		m_strOldRealPacketCount += szpacket + ";";

  00069	89 45 fc	 mov	 DWORD PTR __$EHRec$[ebp+8], eax
; File C:\Program Files (x86)\Microsoft Visual Studio\2019\Community\VC\Tools\MSVC\14.29.30133\atlmfc\include\cstringt.h

; 2401 : 		CStringT strResult( str1.GetManager() );

  0006c	ff 15 00 00 00
	00		 call	 DWORD PTR __imp_?GetManager@?$CStringT@DV?$StrTraitMFC_DLL@DV?$ChTraitsCRT@D@ATL@@@@@ATL@@QBEPAUIAtlStringMgr@2@XZ
  00072	50		 push	 eax
  00073	8d 4d 0c	 lea	 ecx, DWORD PTR $T3[ebp]
  00076	ff 15 00 00 00
	00		 call	 DWORD PTR __imp_??0?$CStringT@DV?$StrTraitMFC_DLL@DV?$ChTraitsCRT@D@ATL@@@@@ATL@@QAE@PAUIAtlStringMgr@1@@Z
; File C:\Program Files (x86)\Microsoft Visual Studio\2019\Community\VC\Tools\MSVC\14.29.30133\atlmfc\include\atlsimpstr.h

; 519  : 		return( GetData()->nDataLength );

  0007c	8b 07		 mov	 eax, DWORD PTR [edi]
; File C:\Program Files (x86)\Microsoft Visual Studio\2019\Community\VC\Tools\MSVC\14.29.30133\atlmfc\include\cstringt.h

; 2403 : 		CThisSimpleString::Concatenate( strResult, str1, str1.GetLength(), psz2, CThisSimpleString::StringLength( psz2 ) );

  0007e	6a 01		 push	 1
  00080	68 00 00 00 00	 push	 OFFSET ??_C@_01ICJEACDI@?$DL@

; 2404 : 
; 2405 : 		return( strResult );

  00085	c7 45 f0 01 00
	00 00		 mov	 DWORD PTR $T2[ebp], 1
  0008c	ff 70 f4	 push	 DWORD PTR [eax-12]
  0008f	50		 push	 eax
  00090	8d 45 0c	 lea	 eax, DWORD PTR $T3[ebp]
  00093	50		 push	 eax
  00094	ff 15 00 00 00
	00		 call	 DWORD PTR __imp_?Concatenate@?$CSimpleStringT@D$00@ATL@@KAXAAV12@PBDH1H@Z
; File D:\git\src\IBK\IBK_DRFN\ProjSrc\SrcChartEx\ChartAddIn\ChartDesignPropertyAddIn\ChartDesignPropertyAddIn\DataOfPacketPage.cpp

; 38   : 		m_strOldRealPacketCount += szpacket + ";";

  0009a	8b 4d ec	 mov	 ecx, DWORD PTR _this$1$[ebp]
  0009d	8d 45 0c	 lea	 eax, DWORD PTR $T3[ebp]
; File C:\Program Files (x86)\Microsoft Visual Studio\2019\Community\VC\Tools\MSVC\14.29.30133\atlmfc\include\cstringt.h

; 2403 : 		CThisSimpleString::Concatenate( strResult, str1, str1.GetLength(), psz2, CThisSimpleString::StringLength( psz2 ) );

  000a0	83 c4 14	 add	 esp, 20			; 00000014H
; File D:\git\src\IBK\IBK_DRFN\ProjSrc\SrcChartEx\ChartAddIn\ChartDesignPropertyAddIn\ChartDesignPropertyAddIn\DataOfPacketPage.cpp

; 38   : 		m_strOldRealPacketCount += szpacket + ";";

  000a3	83 c1 04	 add	 ecx, 4
  000a6	50		 push	 eax
  000a7	ff 15 00 00 00
	00		 call	 DWORD PTR __imp_??Y?$CStringT@DV?$StrTraitMFC_DLL@DV?$ChTraitsCRT@D@ATL@@@@@ATL@@QAEAAV01@ABV?$CSimpleStringT@D$00@1@@Z
  000ad	8d 4d 0c	 lea	 ecx, DWORD PTR $T3[ebp]
  000b0	c7 45 fc ff ff
	ff ff		 mov	 DWORD PTR __$EHRec$[ebp+8], -1
  000b7	ff 15 00 00 00
	00		 call	 DWORD PTR __imp_??1?$CStringT@DV?$StrTraitMFC_DLL@DV?$ChTraitsCRT@D@ATL@@@@@ATL@@QAE@XZ
$LN2@AddData:

; 39   : 
; 40   : 	PacketList->AddItem(nCheck, szpacket, szField, szLength, szType, szReal);

  000bd	ff 75 1c	 push	 DWORD PTR _szReal$[ebp]
  000c0	8b 4d 20	 mov	 ecx, DWORD PTR _PacketList$[ebp]
  000c3	ff 75 18	 push	 DWORD PTR _szType$[ebp]
  000c6	ff 75 14	 push	 DWORD PTR _szLength$[ebp]
  000c9	ff 75 10	 push	 DWORD PTR _szField$[ebp]
  000cc	57		 push	 edi
  000cd	ff 75 08	 push	 DWORD PTR _nCheck$[ebp]
  000d0	e8 00 00 00 00	 call	 ?AddItem@CPacketSuperGrid@@QAEXHABV?$CStringT@DV?$StrTraitMFC_DLL@DV?$ChTraitsCRT@D@ATL@@@@@ATL@@0000@Z ; CPacketSuperGrid::AddItem

; 41   : }

  000d5	8b 4d f4	 mov	 ecx, DWORD PTR __$EHRec$[ebp]
  000d8	64 89 0d 00 00
	00 00		 mov	 DWORD PTR fs:0, ecx
  000df	59		 pop	 ecx
  000e0	5f		 pop	 edi
  000e1	8b e5		 mov	 esp, ebp
  000e3	5d		 pop	 ebp
  000e4	c2 1c 00	 ret	 28			; 0000001cH
_TEXT	ENDS
;	COMDAT text$x
text$x	SEGMENT
__unwindfunclet$?AddData@CDataOfPacketPage@@AAEXHABV?$CStringT@DV?$StrTraitMFC_DLL@DV?$ChTraitsCRT@D@ATL@@@@@ATL@@0000PAVCPacketSuperGrid@@@Z$1:
  00000	8b 45 f0	 mov	 eax, DWORD PTR $T2[ebp]
  00003	83 e0 01	 and	 eax, 1
  00006	0f 84 0d 00 00
	00		 je	 $LN8@AddData
  0000c	83 65 f0 fe	 and	 DWORD PTR $T2[ebp], -2	; fffffffeH
  00010	8d 4d 0c	 lea	 ecx, DWORD PTR $T3[ebp]
  00013	ff 25 00 00 00
	00		 jmp	 DWORD PTR __imp_??1?$CStringT@DV?$StrTraitMFC_DLL@DV?$ChTraitsCRT@D@ATL@@@@@ATL@@QAE@XZ
$LN8@AddData:
  00019	c3		 ret	 0
  0001a	cc		 int	 3
  0001b	cc		 int	 3
  0001c	cc		 int	 3
  0001d	cc		 int	 3
  0001e	cc		 int	 3
__ehhandler$?AddData@CDataOfPacketPage@@AAEXHABV?$CStringT@DV?$StrTraitMFC_DLL@DV?$ChTraitsCRT@D@ATL@@@@@ATL@@0000PAVCPacketSuperGrid@@@Z:
  0001f	90		 npad	 1
  00020	90		 npad	 1
  00021	8b 54 24 08	 mov	 edx, DWORD PTR [esp+8]
  00025	8d 42 0c	 lea	 eax, DWORD PTR [edx+12]
  00028	8b 4a f0	 mov	 ecx, DWORD PTR [edx-16]
  0002b	33 c8		 xor	 ecx, eax
  0002d	e8 00 00 00 00	 call	 @__security_check_cookie@4
  00032	b8 00 00 00 00	 mov	 eax, OFFSET __ehfuncinfo$?AddData@CDataOfPacketPage@@AAEXHABV?$CStringT@DV?$StrTraitMFC_DLL@DV?$ChTraitsCRT@D@ATL@@@@@ATL@@0000PAVCPacketSuperGrid@@@Z
  00037	e9 00 00 00 00	 jmp	 ___CxxFrameHandler3
text$x	ENDS
?AddData@CDataOfPacketPage@@AAEXHABV?$CStringT@DV?$StrTraitMFC_DLL@DV?$ChTraitsCRT@D@ATL@@@@@ATL@@0000PAVCPacketSuperGrid@@@Z ENDP ; CDataOfPacketPage::AddData
; Function compile flags: /Ogtp
; File D:\git\src\IBK\IBK_DRFN\ProjSrc\SrcChartEx\ChartAddIn\ChartDesignPropertyAddIn\ChartDesignPropertyAddIn\DataOfPacketPage.cpp
; File C:\Program Files (x86)\Microsoft Visual Studio\2019\Community\VC\Tools\MSVC\14.29.30133\atlmfc\include\afxcmn.inl
; File D:\git\src\IBK\IBK_DRFN\ProjSrc\SrcChartEx\ChartAddIn\ChartDesignPropertyAddIn\ChartDesignPropertyAddIn\DataOfPacketPage.cpp
; File C:\Program Files (x86)\Microsoft Visual Studio\2019\Community\VC\Tools\MSVC\14.29.30133\atlmfc\include\afxcmn.inl
; File D:\git\src\IBK\IBK_DRFN\ProjSrc\SrcChartEx\ChartAddIn\ChartDesignPropertyAddIn\ChartDesignPropertyAddIn\DataOfPacketPage.cpp
; File C:\Program Files (x86)\Microsoft Visual Studio\2019\Community\VC\Tools\MSVC\14.29.30133\atlmfc\include\afxcmn.inl
; File D:\git\src\IBK\IBK_DRFN\ProjSrc\SrcChartEx\ChartAddIn\ChartDesignPropertyAddIn\ChartDesignPropertyAddIn\DataOfPacketPage.cpp
; File C:\Program Files (x86)\Microsoft Visual Studio\2019\Community\VC\Tools\MSVC\14.29.30133\atlmfc\include\atlsimpstr.h
; File D:\git\src\IBK\IBK_DRFN\ProjSrc\SrcChartEx\ChartAddIn\ChartDesignPropertyAddIn\ChartDesignPropertyAddIn\DataOfPacketPage.cpp
; File D:\git\src\IBK\IBK_DRFN\ProjSrc\SrcChartEx\ChartAddIn\ChartDesignPropertyAddIn\Include_Chart\Dll_Load\IMetaTable.h
; File D:\git\src\IBK\IBK_DRFN\ProjSrc\SrcChartEx\ChartAddIn\ChartDesignPropertyAddIn\ChartDesignPropertyAddIn\DataOfPacketPage.cpp
; File D:\git\src\IBK\IBK_DRFN\ProjSrc\SrcChartEx\ChartAddIn\ChartDesignPropertyAddIn\Include_Chart\Dll_Load\IMetaTable.h
; File D:\git\src\IBK\IBK_DRFN\ProjSrc\SrcChartEx\ChartAddIn\ChartDesignPropertyAddIn\ChartDesignPropertyAddIn\DataOfPacketPage.cpp
; File C:\Program Files (x86)\Microsoft Visual Studio\2019\Community\VC\Tools\MSVC\14.29.30133\atlmfc\include\cstringt.h
; File D:\git\src\IBK\IBK_DRFN\ProjSrc\SrcChartEx\ChartAddIn\ChartDesignPropertyAddIn\ChartDesignPropertyAddIn\DataOfPacketPage.cpp
; File C:\Program Files (x86)\Microsoft Visual Studio\2019\Community\VC\Tools\MSVC\14.29.30133\atlmfc\include\cstringt.h
; File C:\Program Files (x86)\Microsoft Visual Studio\2019\Community\VC\Tools\MSVC\14.29.30133\atlmfc\include\atlsimpstr.h
; File C:\Program Files (x86)\Microsoft Visual Studio\2019\Community\VC\Tools\MSVC\14.29.30133\atlmfc\include\cstringt.h
; File D:\git\src\IBK\IBK_DRFN\ProjSrc\SrcChartEx\ChartAddIn\ChartDesignPropertyAddIn\ChartDesignPropertyAddIn\DataOfPacketPage.cpp
; File C:\Program Files (x86)\Microsoft Visual Studio\2019\Community\VC\Tools\MSVC\14.29.30133\atlmfc\include\cstringt.h
; File D:\git\src\IBK\IBK_DRFN\ProjSrc\SrcChartEx\ChartAddIn\ChartDesignPropertyAddIn\ChartDesignPropertyAddIn\DataOfPacketPage.cpp
; File C:\Program Files (x86)\Microsoft Visual Studio\2019\Community\VC\Tools\MSVC\14.29.30133\atlmfc\include\cstringt.h
; File D:\git\src\IBK\IBK_DRFN\ProjSrc\SrcChartEx\ChartAddIn\ChartDesignPropertyAddIn\ChartDesignPropertyAddIn\DataOfPacketPage.cpp
; File C:\Program Files (x86)\Microsoft Visual Studio\2019\Community\VC\Tools\MSVC\14.29.30133\atlmfc\include\cstringt.h
; File C:\Program Files (x86)\Microsoft Visual Studio\2019\Community\VC\Tools\MSVC\14.29.30133\atlmfc\include\atlsimpstr.h
; File C:\Program Files (x86)\Microsoft Visual Studio\2019\Community\VC\Tools\MSVC\14.29.30133\atlmfc\include\cstringt.h
; File D:\git\src\IBK\IBK_DRFN\ProjSrc\SrcChartEx\ChartAddIn\ChartDesignPropertyAddIn\ChartDesignPropertyAddIn\DataOfPacketPage.cpp
; File C:\Program Files (x86)\Microsoft Visual Studio\2019\Community\VC\Tools\MSVC\14.29.30133\atlmfc\include\cstringt.h
; File D:\git\src\IBK\IBK_DRFN\ProjSrc\SrcChartEx\ChartAddIn\ChartDesignPropertyAddIn\ChartDesignPropertyAddIn\DataOfPacketPage.cpp
; File C:\Program Files (x86)\Microsoft Visual Studio\2019\Community\VC\Tools\MSVC\14.29.30133\atlmfc\include\cstringt.h
; File D:\git\src\IBK\IBK_DRFN\ProjSrc\SrcChartEx\ChartAddIn\ChartDesignPropertyAddIn\ChartDesignPropertyAddIn\DataOfPacketPage.cpp
; File C:\Program Files (x86)\Microsoft Visual Studio\2019\Community\VC\Tools\MSVC\14.29.30133\atlmfc\include\cstringt.h
; File C:\Program Files (x86)\Microsoft Visual Studio\2019\Community\VC\Tools\MSVC\14.29.30133\atlmfc\include\atlsimpstr.h
; File C:\Program Files (x86)\Microsoft Visual Studio\2019\Community\VC\Tools\MSVC\14.29.30133\atlmfc\include\cstringt.h
; File D:\git\src\IBK\IBK_DRFN\ProjSrc\SrcChartEx\ChartAddIn\ChartDesignPropertyAddIn\ChartDesignPropertyAddIn\DataOfPacketPage.cpp
; File C:\Program Files (x86)\Microsoft Visual Studio\2019\Community\VC\Tools\MSVC\14.29.30133\atlmfc\include\cstringt.h
; File D:\git\src\IBK\IBK_DRFN\ProjSrc\SrcChartEx\ChartAddIn\ChartDesignPropertyAddIn\ChartDesignPropertyAddIn\DataOfPacketPage.cpp
;	COMDAT ?GetAllDataFromListCtrl@CDataOfPacketPage@@QAE?AV?$CStringT@DV?$StrTraitMFC_DLL@DV?$ChTraitsCRT@D@ATL@@@@@ATL@@PAVCPacketSuperGrid@@@Z
_TEXT	SEGMENT
_Count$1$ = -68						; size = 4
$T2 = -64						; size = 4
$T3 = -60						; size = 4
$T4 = -56						; size = 4
$T5 = -52						; size = 4
$T6 = -48						; size = 4
_p1$1$ = -44						; size = 4
$T7 = -40						; size = 4
$T8 = -36						; size = 4
$T9 = -32						; size = 4
_parent$10 = -28					; size = 4
_this$1$ = -24						; size = 4
_i$1$ = -20						; size = 4
$T11 = -16						; size = 4
__$EHRec$ = -12						; size = 12
___$ReturnUdt$ = 8					; size = 4
_PacketList$ = 12					; size = 4
?GetAllDataFromListCtrl@CDataOfPacketPage@@QAE?AV?$CStringT@DV?$StrTraitMFC_DLL@DV?$ChTraitsCRT@D@ATL@@@@@ATL@@PAVCPacketSuperGrid@@@Z PROC ; CDataOfPacketPage::GetAllDataFromListCtrl, COMDAT
; _this$ = ecx

; 44   : {

  00000	55		 push	 ebp
  00001	8b ec		 mov	 ebp, esp
  00003	6a ff		 push	 -1
  00005	68 00 00 00 00	 push	 __ehhandler$?GetAllDataFromListCtrl@CDataOfPacketPage@@QAE?AV?$CStringT@DV?$StrTraitMFC_DLL@DV?$ChTraitsCRT@D@ATL@@@@@ATL@@PAVCPacketSuperGrid@@@Z
  0000a	64 a1 00 00 00
	00		 mov	 eax, DWORD PTR fs:0
  00010	50		 push	 eax
  00011	83 ec 38	 sub	 esp, 56			; 00000038H
  00014	53		 push	 ebx
  00015	56		 push	 esi
  00016	57		 push	 edi
  00017	a1 00 00 00 00	 mov	 eax, DWORD PTR ___security_cookie
  0001c	33 c5		 xor	 eax, ebp
  0001e	50		 push	 eax
  0001f	8d 45 f4	 lea	 eax, DWORD PTR __$EHRec$[ebp]
  00022	64 a3 00 00 00
	00		 mov	 DWORD PTR fs:0, eax
  00028	89 4d e8	 mov	 DWORD PTR _this$1$[ebp], ecx
  0002b	c7 45 f0 00 00
	00 00		 mov	 DWORD PTR $T11[ebp], 0

; 45   : 	CString strInfoOfAllPacketItems = "";

  00032	8b 7d 08	 mov	 edi, DWORD PTR ___$ReturnUdt$[ebp]
  00035	8b cf		 mov	 ecx, edi
  00037	68 00 00 00 00	 push	 OFFSET ??_C@_00CNPNBAHC@@
  0003c	c7 45 fc 00 00
	00 00		 mov	 DWORD PTR __$EHRec$[ebp+8], 0
  00043	ff 15 00 00 00
	00		 call	 DWORD PTR __imp_??0?$CStringT@DV?$StrTraitMFC_DLL@DV?$ChTraitsCRT@D@ATL@@@@@ATL@@QAE@PBD@Z
; File C:\Program Files (x86)\Microsoft Visual Studio\2019\Community\VC\Tools\MSVC\14.29.30133\atlmfc\include\afxcmn.inl

; 155  : 	{ ASSERT(::IsWindow(m_hWnd)); return (int) ::SendMessage(m_hWnd, LVM_GETITEMCOUNT, 0, 0L); }

  00049	8b 45 0c	 mov	 eax, DWORD PTR _PacketList$[ebp]
; File D:\git\src\IBK\IBK_DRFN\ProjSrc\SrcChartEx\ChartAddIn\ChartDesignPropertyAddIn\ChartDesignPropertyAddIn\DataOfPacketPage.cpp

; 70   : 	return strInfoOfAllPacketItems;

  0004c	bb 01 00 00 00	 mov	 ebx, 1
; File C:\Program Files (x86)\Microsoft Visual Studio\2019\Community\VC\Tools\MSVC\14.29.30133\atlmfc\include\afxcmn.inl

; 155  : 	{ ASSERT(::IsWindow(m_hWnd)); return (int) ::SendMessage(m_hWnd, LVM_GETITEMCOUNT, 0, 0L); }

  00051	6a 00		 push	 0
  00053	6a 00		 push	 0
  00055	68 04 10 00 00	 push	 4100			; 00001004H
  0005a	ff 70 20	 push	 DWORD PTR [eax+32]
; File D:\git\src\IBK\IBK_DRFN\ProjSrc\SrcChartEx\ChartAddIn\ChartDesignPropertyAddIn\ChartDesignPropertyAddIn\DataOfPacketPage.cpp

; 70   : 	return strInfoOfAllPacketItems;

  0005d	c7 45 fc 00 00
	00 00		 mov	 DWORD PTR __$EHRec$[ebp+8], 0
  00064	89 5d f0	 mov	 DWORD PTR $T11[ebp], ebx
; File C:\Program Files (x86)\Microsoft Visual Studio\2019\Community\VC\Tools\MSVC\14.29.30133\atlmfc\include\afxcmn.inl

; 155  : 	{ ASSERT(::IsWindow(m_hWnd)); return (int) ::SendMessage(m_hWnd, LVM_GETITEMCOUNT, 0, 0L); }

  00067	ff 15 00 00 00
	00		 call	 DWORD PTR __imp__SendMessageA@16
; File D:\git\src\IBK\IBK_DRFN\ProjSrc\SrcChartEx\ChartAddIn\ChartDesignPropertyAddIn\ChartDesignPropertyAddIn\DataOfPacketPage.cpp

; 48   : 	for(int i = 0; i< Count ; i++) {

  0006d	33 f6		 xor	 esi, esi
  0006f	89 45 bc	 mov	 DWORD PTR _Count$1$[ebp], eax
  00072	89 75 ec	 mov	 DWORD PTR _i$1$[ebp], esi
  00075	85 c0		 test	 eax, eax
  00077	0f 8e 0f 03 00
	00		 jle	 $LN92@GetAllData
  0007d	0f 1f 00	 npad	 3
$LL4@GetAllData:

; 49   : 		CString parent = PacketList->GetItemText(i, 0);

  00080	8b 4d 0c	 mov	 ecx, DWORD PTR _PacketList$[ebp]
  00083	8d 45 e4	 lea	 eax, DWORD PTR _parent$10[ebp]
  00086	6a 00		 push	 0
  00088	56		 push	 esi
  00089	50		 push	 eax
  0008a	e8 00 00 00 00	 call	 ?GetItemText@CListCtrl@@QBE?AV?$CStringT@DV?$StrTraitMFC_DLL@DV?$ChTraitsCRT@D@ATL@@@@@ATL@@HH@Z ; CListCtrl::GetItemText

; 50   : 		if(parent.Compare("Packet") == 0 || parent.Compare( _LTEXT6( C6_USER_DEFINE)) == 0 || parent.Compare( _LTEXT6( C6_INPUT_ITEM)) == 0)

  0008f	68 00 00 00 00	 push	 OFFSET ??_C@_06LFBENNGP@Packet@
  00094	8d 4d e4	 lea	 ecx, DWORD PTR _parent$10[ebp]
  00097	c7 45 fc 01 00
	00 00		 mov	 DWORD PTR __$EHRec$[ebp+8], 1
  0009e	ff 15 00 00 00
	00		 call	 DWORD PTR __imp_?Compare@?$CStringT@DV?$StrTraitMFC_DLL@DV?$ChTraitsCRT@D@ATL@@@@@ATL@@QBEHPBD@Z
  000a4	85 c0		 test	 eax, eax
  000a6	0f 84 c6 02 00
	00		 je	 $LN10@GetAllData
  000ac	a1 54 00 00 00	 mov	 eax, DWORD PTR ?g_iMetaTable@@3VIMetaTable@@A+84
  000b1	b9 00 00 00 00	 mov	 ecx, OFFSET ?g_iMetaTable@@3VIMetaTable@@A ; g_iMetaTable
  000b6	6a 00		 push	 0
  000b8	ff b0 1c 0a 00
	00		 push	 DWORD PTR [eax+2588]
  000be	8b 45 e8	 mov	 eax, DWORD PTR _this$1$[ebp]
  000c1	6a 06		 push	 6
  000c3	ff 70 0c	 push	 DWORD PTR [eax+12]
  000c6	e8 00 00 00 00	 call	 ?GetLanguageText@IMetaTable@@QAEPBDPAUHWND__@@W4E_CODEPAGE@1@PBDH@Z ; IMetaTable::GetLanguageText
  000cb	50		 push	 eax
  000cc	8d 4d e4	 lea	 ecx, DWORD PTR _parent$10[ebp]
  000cf	ff 15 00 00 00
	00		 call	 DWORD PTR __imp_?Compare@?$CStringT@DV?$StrTraitMFC_DLL@DV?$ChTraitsCRT@D@ATL@@@@@ATL@@QBEHPBD@Z
  000d5	85 c0		 test	 eax, eax
  000d7	0f 84 95 02 00
	00		 je	 $LN10@GetAllData
  000dd	a1 54 00 00 00	 mov	 eax, DWORD PTR ?g_iMetaTable@@3VIMetaTable@@A+84
  000e2	b9 00 00 00 00	 mov	 ecx, OFFSET ?g_iMetaTable@@3VIMetaTable@@A ; g_iMetaTable
  000e7	6a 00		 push	 0
  000e9	ff b0 20 0a 00
	00		 push	 DWORD PTR [eax+2592]
  000ef	8b 45 e8	 mov	 eax, DWORD PTR _this$1$[ebp]
  000f2	6a 06		 push	 6
  000f4	ff 70 0c	 push	 DWORD PTR [eax+12]
  000f7	e8 00 00 00 00	 call	 ?GetLanguageText@IMetaTable@@QAEPBDPAUHWND__@@W4E_CODEPAGE@1@PBDH@Z ; IMetaTable::GetLanguageText
  000fc	50		 push	 eax
  000fd	8d 4d e4	 lea	 ecx, DWORD PTR _parent$10[ebp]
  00100	ff 15 00 00 00
	00		 call	 DWORD PTR __imp_?Compare@?$CStringT@DV?$StrTraitMFC_DLL@DV?$ChTraitsCRT@D@ATL@@@@@ATL@@QBEHPBD@Z
  00106	85 c0		 test	 eax, eax
  00108	0f 84 64 02 00
	00		 je	 $LN10@GetAllData

; 51   : 			;
; 52   : 		else {
; 53   : 			//Check or no Check를 확인.
; 54   : 			if(PacketList->GetCheck(i) != 0 ) 

  0010e	8b 4d 0c	 mov	 ecx, DWORD PTR _PacketList$[ebp]
  00111	56		 push	 esi
  00112	e8 00 00 00 00	 call	 ?GetCheck@CListCtrl@@QBEHH@Z ; CListCtrl::GetCheck
  00117	8b cf		 mov	 ecx, edi
  00119	85 c0		 test	 eax, eax
  0011b	74 07		 je	 SHORT $LN11@GetAllData

; 55   : 				strInfoOfAllPacketItems += "1;";

  0011d	68 00 00 00 00	 push	 OFFSET ??_C@_02BJKFEGHC@1?$DL@
  00122	eb 05		 jmp	 SHORT $LN95@GetAllData
$LN11@GetAllData:

; 56   : 			else 
; 57   : 				strInfoOfAllPacketItems += "0;";

  00124	68 00 00 00 00	 push	 OFFSET ??_C@_02BIGHCMEF@0?$DL@
$LN95@GetAllData:

; 58   : 		
; 59   : 			//subitem 내용을 string에 넣음.
; 60   : 			for(int y=0 ; y< 5; y++)

  00129	ff 15 00 00 00
	00		 call	 DWORD PTR __imp_??Y?$CStringT@DV?$StrTraitMFC_DLL@DV?$ChTraitsCRT@D@ATL@@@@@ATL@@QAEAAV01@PBD@Z
  0012f	33 f6		 xor	 esi, esi
$LL7@GetAllData:

; 63   : 				if( y == 1 || y == 2)			strInfoOfAllPacketItems += PacketList->GetItemText(i, y) + ";";

  00131	83 fe 01	 cmp	 esi, 1
  00134	0f 84 a6 01 00
	00		 je	 $LN15@GetAllData
  0013a	83 fe 02	 cmp	 esi, 2
  0013d	0f 84 9d 01 00
	00		 je	 $LN15@GetAllData

; 64   : 				else if( y == 0)				strInfoOfAllPacketItems += CString( _CRTM0( PacketList->GetItemText(i, y))) + ";";

  00143	85 f6		 test	 esi, esi
  00145	0f 85 ef 00 00
	00		 jne	 $LN16@GetAllData
  0014b	8b 4d 0c	 mov	 ecx, DWORD PTR _PacketList$[ebp]
  0014e	8d 45 cc	 lea	 eax, DWORD PTR $T5[ebp]
  00151	56		 push	 esi
  00152	ff 75 ec	 push	 DWORD PTR _i$1$[ebp]
  00155	50		 push	 eax
  00156	e8 00 00 00 00	 call	 ?GetItemText@CListCtrl@@QBE?AV?$CStringT@DV?$StrTraitMFC_DLL@DV?$ChTraitsCRT@D@ATL@@@@@ATL@@HH@Z ; CListCtrl::GetItemText
; File C:\Program Files (x86)\Microsoft Visual Studio\2019\Community\VC\Tools\MSVC\14.29.30133\atlmfc\include\atlsimpstr.h

; 377  : 		return( m_pszData );

  0015b	8b 38		 mov	 edi, DWORD PTR [eax]
; File D:\git\src\IBK\IBK_DRFN\ProjSrc\SrcChartEx\ChartAddIn\ChartDesignPropertyAddIn\ChartDesignPropertyAddIn\DataOfPacketPage.cpp

; 64   : 				else if( y == 0)				strInfoOfAllPacketItems += CString( _CRTM0( PacketList->GetItemText(i, y))) + ";";

  0015d	8b 45 e8	 mov	 eax, DWORD PTR _this$1$[ebp]
  00160	c6 45 fc 04	 mov	 BYTE PTR __$EHRec$[ebp+8], 4
  00164	8b 48 0c	 mov	 ecx, DWORD PTR [eax+12]
; File D:\git\src\IBK\IBK_DRFN\ProjSrc\SrcChartEx\ChartAddIn\ChartDesignPropertyAddIn\Include_Chart\Dll_Load\IMetaTable.h

; 920  : 	DECLARE_FUNCTION3(	CreateLocalMetaText,	const char *, NULL, HWND, E_CODEPAGE, const char *);

  00167	a1 04 00 00 00	 mov	 eax, DWORD PTR ?g_iMetaTable@@3VIMetaTable@@A+4
; File D:\git\src\IBK\IBK_DRFN\ProjSrc\SrcChartEx\ChartAddIn\ChartDesignPropertyAddIn\ChartDesignPropertyAddIn\DataOfPacketPage.cpp

; 64   : 				else if( y == 0)				strInfoOfAllPacketItems += CString( _CRTM0( PacketList->GetItemText(i, y))) + ";";

  0016c	89 4d d4	 mov	 DWORD PTR _p1$1$[ebp], ecx
; File D:\git\src\IBK\IBK_DRFN\ProjSrc\SrcChartEx\ChartAddIn\ChartDesignPropertyAddIn\Include_Chart\Dll_Load\IMetaTable.h

; 920  : 	DECLARE_FUNCTION3(	CreateLocalMetaText,	const char *, NULL, HWND, E_CODEPAGE, const char *);

  0016f	85 c0		 test	 eax, eax
  00171	74 4a		 je	 SHORT $LN89@GetAllData
  00173	ba 80 0d 00 00	 mov	 edx, 3456		; 00000d80H
  00178	66 3b 15 48 00
	00 00		 cmp	 dx, WORD PTR ?g_iMetaTable@@3VIMetaTable@@A+72
  0017f	74 28		 je	 SHORT $LN93@GetAllData
  00181	68 00 00 00 00	 push	 OFFSET ??_C@_0BE@BAJMOMEE@CreateLocalMetaText@
  00186	50		 push	 eax
  00187	89 35 44 00 00
	00		 mov	 DWORD PTR ?g_iMetaTable@@3VIMetaTable@@A+68, esi
  0018d	ff 15 00 00 00
	00		 call	 DWORD PTR __imp__GetProcAddress@8
  00193	b9 80 0d 00 00	 mov	 ecx, 3456		; 00000d80H
  00198	a3 44 00 00 00	 mov	 DWORD PTR ?g_iMetaTable@@3VIMetaTable@@A+68, eax
  0019d	66 89 0d 48 00
	00 00		 mov	 WORD PTR ?g_iMetaTable@@3VIMetaTable@@A+72, cx
  001a4	8b 4d d4	 mov	 ecx, DWORD PTR _p1$1$[ebp]
  001a7	eb 05		 jmp	 SHORT $LN52@GetAllData
$LN93@GetAllData:
  001a9	a1 44 00 00 00	 mov	 eax, DWORD PTR ?g_iMetaTable@@3VIMetaTable@@A+68
$LN52@GetAllData:
  001ae	85 c0		 test	 eax, eax
  001b0	74 0b		 je	 SHORT $LN89@GetAllData
  001b2	57		 push	 edi
  001b3	6a 00		 push	 0
  001b5	51		 push	 ecx
  001b6	ff d0		 call	 eax
  001b8	83 c4 0c	 add	 esp, 12			; 0000000cH
  001bb	eb 02		 jmp	 SHORT $LN50@GetAllData
$LN89@GetAllData:
  001bd	33 c0		 xor	 eax, eax
$LN50@GetAllData:
; File D:\git\src\IBK\IBK_DRFN\ProjSrc\SrcChartEx\ChartAddIn\ChartDesignPropertyAddIn\ChartDesignPropertyAddIn\DataOfPacketPage.cpp

; 64   : 				else if( y == 0)				strInfoOfAllPacketItems += CString( _CRTM0( PacketList->GetItemText(i, y))) + ";";

  001bf	50		 push	 eax
  001c0	8d 4d d0	 lea	 ecx, DWORD PTR $T6[ebp]
  001c3	ff 15 00 00 00
	00		 call	 DWORD PTR __imp_??0?$CStringT@DV?$StrTraitMFC_DLL@DV?$ChTraitsCRT@D@ATL@@@@@ATL@@QAE@PBD@Z
  001c9	8b f8		 mov	 edi, eax
; File C:\Program Files (x86)\Microsoft Visual Studio\2019\Community\VC\Tools\MSVC\14.29.30133\atlmfc\include\cstringt.h

; 2401 : 		CStringT strResult( str1.GetManager() );

  001cb	8b cf		 mov	 ecx, edi
; File D:\git\src\IBK\IBK_DRFN\ProjSrc\SrcChartEx\ChartAddIn\ChartDesignPropertyAddIn\ChartDesignPropertyAddIn\DataOfPacketPage.cpp

; 64   : 				else if( y == 0)				strInfoOfAllPacketItems += CString( _CRTM0( PacketList->GetItemText(i, y))) + ";";

  001cd	c6 45 fc 06	 mov	 BYTE PTR __$EHRec$[ebp+8], 6
; File C:\Program Files (x86)\Microsoft Visual Studio\2019\Community\VC\Tools\MSVC\14.29.30133\atlmfc\include\cstringt.h

; 2401 : 		CStringT strResult( str1.GetManager() );

  001d1	ff 15 00 00 00
	00		 call	 DWORD PTR __imp_?GetManager@?$CStringT@DV?$StrTraitMFC_DLL@DV?$ChTraitsCRT@D@ATL@@@@@ATL@@QBEPAUIAtlStringMgr@2@XZ
  001d7	50		 push	 eax
  001d8	8d 4d e0	 lea	 ecx, DWORD PTR $T9[ebp]
  001db	ff 15 00 00 00
	00		 call	 DWORD PTR __imp_??0?$CStringT@DV?$StrTraitMFC_DLL@DV?$ChTraitsCRT@D@ATL@@@@@ATL@@QAE@PAUIAtlStringMgr@1@@Z
; File C:\Program Files (x86)\Microsoft Visual Studio\2019\Community\VC\Tools\MSVC\14.29.30133\atlmfc\include\atlsimpstr.h

; 519  : 		return( GetData()->nDataLength );

  001e1	8b 07		 mov	 eax, DWORD PTR [edi]
; File C:\Program Files (x86)\Microsoft Visual Studio\2019\Community\VC\Tools\MSVC\14.29.30133\atlmfc\include\cstringt.h

; 2405 : 		return( strResult );

  001e3	83 cb 04	 or	 ebx, 4
  001e6	6a 01		 push	 1
  001e8	68 00 00 00 00	 push	 OFFSET ??_C@_01ICJEACDI@?$DL@
  001ed	89 5d f0	 mov	 DWORD PTR $T11[ebp], ebx
  001f0	ff 70 f4	 push	 DWORD PTR [eax-12]
  001f3	50		 push	 eax
  001f4	8d 45 e0	 lea	 eax, DWORD PTR $T9[ebp]
  001f7	50		 push	 eax
  001f8	ff 15 00 00 00
	00		 call	 DWORD PTR __imp_?Concatenate@?$CSimpleStringT@D$00@ATL@@KAXAAV12@PBDH1H@Z
; File D:\git\src\IBK\IBK_DRFN\ProjSrc\SrcChartEx\ChartAddIn\ChartDesignPropertyAddIn\ChartDesignPropertyAddIn\DataOfPacketPage.cpp

; 64   : 				else if( y == 0)				strInfoOfAllPacketItems += CString( _CRTM0( PacketList->GetItemText(i, y))) + ";";

  001fe	8b 7d 08	 mov	 edi, DWORD PTR ___$ReturnUdt$[ebp]
  00201	8d 45 e0	 lea	 eax, DWORD PTR $T9[ebp]
; File C:\Program Files (x86)\Microsoft Visual Studio\2019\Community\VC\Tools\MSVC\14.29.30133\atlmfc\include\cstringt.h

; 2403 : 		CThisSimpleString::Concatenate( strResult, str1, str1.GetLength(), psz2, CThisSimpleString::StringLength( psz2 ) );

  00204	83 c4 14	 add	 esp, 20			; 00000014H
; File D:\git\src\IBK\IBK_DRFN\ProjSrc\SrcChartEx\ChartAddIn\ChartDesignPropertyAddIn\ChartDesignPropertyAddIn\DataOfPacketPage.cpp

; 64   : 				else if( y == 0)				strInfoOfAllPacketItems += CString( _CRTM0( PacketList->GetItemText(i, y))) + ";";

  00207	8b cf		 mov	 ecx, edi
  00209	50		 push	 eax
  0020a	ff 15 00 00 00
	00		 call	 DWORD PTR __imp_??Y?$CStringT@DV?$StrTraitMFC_DLL@DV?$ChTraitsCRT@D@ATL@@@@@ATL@@QAEAAV01@ABV?$CSimpleStringT@D$00@1@@Z
  00210	83 e3 fb	 and	 ebx, -5			; fffffffbH
  00213	8d 4d e0	 lea	 ecx, DWORD PTR $T9[ebp]
  00216	89 5d f0	 mov	 DWORD PTR $T11[ebp], ebx
  00219	ff 15 00 00 00
	00		 call	 DWORD PTR __imp_??1?$CStringT@DV?$StrTraitMFC_DLL@DV?$ChTraitsCRT@D@ATL@@@@@ATL@@QAE@XZ
  0021f	8d 4d d0	 lea	 ecx, DWORD PTR $T6[ebp]
  00222	ff 15 00 00 00
	00		 call	 DWORD PTR __imp_??1?$CStringT@DV?$StrTraitMFC_DLL@DV?$ChTraitsCRT@D@ATL@@@@@ATL@@QAE@XZ
  00228	8d 4d cc	 lea	 ecx, DWORD PTR $T5[ebp]
  0022b	c6 45 fc 01	 mov	 BYTE PTR __$EHRec$[ebp+8], 1
  0022f	ff 15 00 00 00
	00		 call	 DWORD PTR __imp_??1?$CStringT@DV?$StrTraitMFC_DLL@DV?$ChTraitsCRT@D@ATL@@@@@ATL@@QAE@XZ
  00235	e9 2b 01 00 00	 jmp	 $LN5@GetAllData
$LN16@GetAllData:

; 65   : 				else if( y == 3 || y == 4)		strInfoOfAllPacketItems += CString( _LTOM6( PacketList->GetItemText(i, y))) + ";";

  0023a	83 fe 03	 cmp	 esi, 3
  0023d	74 09		 je	 SHORT $LN19@GetAllData
  0023f	83 fe 04	 cmp	 esi, 4
  00242	0f 85 1d 01 00
	00		 jne	 $LN5@GetAllData
$LN19@GetAllData:
  00248	8b 4d 0c	 mov	 ecx, DWORD PTR _PacketList$[ebp]
  0024b	8d 45 c4	 lea	 eax, DWORD PTR $T3[ebp]
  0024e	56		 push	 esi
  0024f	ff 75 ec	 push	 DWORD PTR _i$1$[ebp]
  00252	50		 push	 eax
  00253	e8 00 00 00 00	 call	 ?GetItemText@CListCtrl@@QBE?AV?$CStringT@DV?$StrTraitMFC_DLL@DV?$ChTraitsCRT@D@ATL@@@@@ATL@@HH@Z ; CListCtrl::GetItemText
  00258	6a 00		 push	 0
  0025a	ff 30		 push	 DWORD PTR [eax]
  0025c	8b 45 e8	 mov	 eax, DWORD PTR _this$1$[ebp]
  0025f	b9 00 00 00 00	 mov	 ecx, OFFSET ?g_iMetaTable@@3VIMetaTable@@A ; g_iMetaTable
  00264	6a 06		 push	 6
  00266	c6 45 fc 07	 mov	 BYTE PTR __$EHRec$[ebp+8], 7
  0026a	ff 70 0c	 push	 DWORD PTR [eax+12]
  0026d	e8 00 00 00 00	 call	 ?GetMetaText@IMetaTable@@QAEPBDPAUHWND__@@W4E_CODEPAGE@1@PBDH@Z ; IMetaTable::GetMetaText
  00272	50		 push	 eax
  00273	8d 4d c8	 lea	 ecx, DWORD PTR $T4[ebp]
  00276	ff 15 00 00 00
	00		 call	 DWORD PTR __imp_??0?$CStringT@DV?$StrTraitMFC_DLL@DV?$ChTraitsCRT@D@ATL@@@@@ATL@@QAE@PBD@Z
  0027c	8b f8		 mov	 edi, eax
; File C:\Program Files (x86)\Microsoft Visual Studio\2019\Community\VC\Tools\MSVC\14.29.30133\atlmfc\include\cstringt.h

; 2401 : 		CStringT strResult( str1.GetManager() );

  0027e	8b cf		 mov	 ecx, edi
; File D:\git\src\IBK\IBK_DRFN\ProjSrc\SrcChartEx\ChartAddIn\ChartDesignPropertyAddIn\ChartDesignPropertyAddIn\DataOfPacketPage.cpp

; 65   : 				else if( y == 3 || y == 4)		strInfoOfAllPacketItems += CString( _LTOM6( PacketList->GetItemText(i, y))) + ";";

  00280	c6 45 fc 09	 mov	 BYTE PTR __$EHRec$[ebp+8], 9
; File C:\Program Files (x86)\Microsoft Visual Studio\2019\Community\VC\Tools\MSVC\14.29.30133\atlmfc\include\cstringt.h

; 2401 : 		CStringT strResult( str1.GetManager() );

  00284	ff 15 00 00 00
	00		 call	 DWORD PTR __imp_?GetManager@?$CStringT@DV?$StrTraitMFC_DLL@DV?$ChTraitsCRT@D@ATL@@@@@ATL@@QBEPAUIAtlStringMgr@2@XZ
  0028a	50		 push	 eax
  0028b	8d 4d dc	 lea	 ecx, DWORD PTR $T8[ebp]
  0028e	ff 15 00 00 00
	00		 call	 DWORD PTR __imp_??0?$CStringT@DV?$StrTraitMFC_DLL@DV?$ChTraitsCRT@D@ATL@@@@@ATL@@QAE@PAUIAtlStringMgr@1@@Z
; File C:\Program Files (x86)\Microsoft Visual Studio\2019\Community\VC\Tools\MSVC\14.29.30133\atlmfc\include\atlsimpstr.h

; 519  : 		return( GetData()->nDataLength );

  00294	8b 07		 mov	 eax, DWORD PTR [edi]
; File C:\Program Files (x86)\Microsoft Visual Studio\2019\Community\VC\Tools\MSVC\14.29.30133\atlmfc\include\cstringt.h

; 2405 : 		return( strResult );

  00296	83 cb 08	 or	 ebx, 8
  00299	6a 01		 push	 1
  0029b	68 00 00 00 00	 push	 OFFSET ??_C@_01ICJEACDI@?$DL@
  002a0	89 5d f0	 mov	 DWORD PTR $T11[ebp], ebx
  002a3	ff 70 f4	 push	 DWORD PTR [eax-12]
  002a6	50		 push	 eax
  002a7	8d 45 dc	 lea	 eax, DWORD PTR $T8[ebp]
  002aa	50		 push	 eax
  002ab	ff 15 00 00 00
	00		 call	 DWORD PTR __imp_?Concatenate@?$CSimpleStringT@D$00@ATL@@KAXAAV12@PBDH1H@Z
; File D:\git\src\IBK\IBK_DRFN\ProjSrc\SrcChartEx\ChartAddIn\ChartDesignPropertyAddIn\ChartDesignPropertyAddIn\DataOfPacketPage.cpp

; 65   : 				else if( y == 3 || y == 4)		strInfoOfAllPacketItems += CString( _LTOM6( PacketList->GetItemText(i, y))) + ";";

  002b1	8b 7d 08	 mov	 edi, DWORD PTR ___$ReturnUdt$[ebp]
  002b4	8d 45 dc	 lea	 eax, DWORD PTR $T8[ebp]
; File C:\Program Files (x86)\Microsoft Visual Studio\2019\Community\VC\Tools\MSVC\14.29.30133\atlmfc\include\cstringt.h

; 2403 : 		CThisSimpleString::Concatenate( strResult, str1, str1.GetLength(), psz2, CThisSimpleString::StringLength( psz2 ) );

  002b7	83 c4 14	 add	 esp, 20			; 00000014H
; File D:\git\src\IBK\IBK_DRFN\ProjSrc\SrcChartEx\ChartAddIn\ChartDesignPropertyAddIn\ChartDesignPropertyAddIn\DataOfPacketPage.cpp

; 65   : 				else if( y == 3 || y == 4)		strInfoOfAllPacketItems += CString( _LTOM6( PacketList->GetItemText(i, y))) + ";";

  002ba	8b cf		 mov	 ecx, edi
  002bc	50		 push	 eax
  002bd	ff 15 00 00 00
	00		 call	 DWORD PTR __imp_??Y?$CStringT@DV?$StrTraitMFC_DLL@DV?$ChTraitsCRT@D@ATL@@@@@ATL@@QAEAAV01@ABV?$CSimpleStringT@D$00@1@@Z
  002c3	83 e3 f7	 and	 ebx, -9			; fffffff7H
  002c6	8d 4d dc	 lea	 ecx, DWORD PTR $T8[ebp]
  002c9	89 5d f0	 mov	 DWORD PTR $T11[ebp], ebx
  002cc	ff 15 00 00 00
	00		 call	 DWORD PTR __imp_??1?$CStringT@DV?$StrTraitMFC_DLL@DV?$ChTraitsCRT@D@ATL@@@@@ATL@@QAE@XZ
  002d2	8d 4d c8	 lea	 ecx, DWORD PTR $T4[ebp]
  002d5	ff 15 00 00 00
	00		 call	 DWORD PTR __imp_??1?$CStringT@DV?$StrTraitMFC_DLL@DV?$ChTraitsCRT@D@ATL@@@@@ATL@@QAE@XZ
  002db	8d 4d c4	 lea	 ecx, DWORD PTR $T3[ebp]
  002de	eb 69		 jmp	 SHORT $LN96@GetAllData
$LN15@GetAllData:

; 63   : 				if( y == 1 || y == 2)			strInfoOfAllPacketItems += PacketList->GetItemText(i, y) + ";";

  002e0	8b 4d 0c	 mov	 ecx, DWORD PTR _PacketList$[ebp]
  002e3	8d 45 c0	 lea	 eax, DWORD PTR $T2[ebp]
  002e6	56		 push	 esi
  002e7	ff 75 ec	 push	 DWORD PTR _i$1$[ebp]
  002ea	50		 push	 eax
  002eb	e8 00 00 00 00	 call	 ?GetItemText@CListCtrl@@QBE?AV?$CStringT@DV?$StrTraitMFC_DLL@DV?$ChTraitsCRT@D@ATL@@@@@ATL@@HH@Z ; CListCtrl::GetItemText
  002f0	8b f8		 mov	 edi, eax
; File C:\Program Files (x86)\Microsoft Visual Studio\2019\Community\VC\Tools\MSVC\14.29.30133\atlmfc\include\cstringt.h

; 2401 : 		CStringT strResult( str1.GetManager() );

  002f2	8b cf		 mov	 ecx, edi
; File D:\git\src\IBK\IBK_DRFN\ProjSrc\SrcChartEx\ChartAddIn\ChartDesignPropertyAddIn\ChartDesignPropertyAddIn\DataOfPacketPage.cpp

; 63   : 				if( y == 1 || y == 2)			strInfoOfAllPacketItems += PacketList->GetItemText(i, y) + ";";

  002f4	c6 45 fc 03	 mov	 BYTE PTR __$EHRec$[ebp+8], 3
; File C:\Program Files (x86)\Microsoft Visual Studio\2019\Community\VC\Tools\MSVC\14.29.30133\atlmfc\include\cstringt.h

; 2401 : 		CStringT strResult( str1.GetManager() );

  002f8	ff 15 00 00 00
	00		 call	 DWORD PTR __imp_?GetManager@?$CStringT@DV?$StrTraitMFC_DLL@DV?$ChTraitsCRT@D@ATL@@@@@ATL@@QBEPAUIAtlStringMgr@2@XZ
  002fe	50		 push	 eax
  002ff	8d 4d d8	 lea	 ecx, DWORD PTR $T7[ebp]
  00302	ff 15 00 00 00
	00		 call	 DWORD PTR __imp_??0?$CStringT@DV?$StrTraitMFC_DLL@DV?$ChTraitsCRT@D@ATL@@@@@ATL@@QAE@PAUIAtlStringMgr@1@@Z
; File C:\Program Files (x86)\Microsoft Visual Studio\2019\Community\VC\Tools\MSVC\14.29.30133\atlmfc\include\atlsimpstr.h

; 519  : 		return( GetData()->nDataLength );

  00308	8b 07		 mov	 eax, DWORD PTR [edi]
; File C:\Program Files (x86)\Microsoft Visual Studio\2019\Community\VC\Tools\MSVC\14.29.30133\atlmfc\include\cstringt.h

; 2405 : 		return( strResult );

  0030a	83 cb 02	 or	 ebx, 2
  0030d	6a 01		 push	 1
  0030f	68 00 00 00 00	 push	 OFFSET ??_C@_01ICJEACDI@?$DL@
  00314	89 5d f0	 mov	 DWORD PTR $T11[ebp], ebx
  00317	ff 70 f4	 push	 DWORD PTR [eax-12]
  0031a	50		 push	 eax
  0031b	8d 45 d8	 lea	 eax, DWORD PTR $T7[ebp]
  0031e	50		 push	 eax
  0031f	ff 15 00 00 00
	00		 call	 DWORD PTR __imp_?Concatenate@?$CSimpleStringT@D$00@ATL@@KAXAAV12@PBDH1H@Z
; File D:\git\src\IBK\IBK_DRFN\ProjSrc\SrcChartEx\ChartAddIn\ChartDesignPropertyAddIn\ChartDesignPropertyAddIn\DataOfPacketPage.cpp

; 63   : 				if( y == 1 || y == 2)			strInfoOfAllPacketItems += PacketList->GetItemText(i, y) + ";";

  00325	8b 7d 08	 mov	 edi, DWORD PTR ___$ReturnUdt$[ebp]
  00328	8d 45 d8	 lea	 eax, DWORD PTR $T7[ebp]
; File C:\Program Files (x86)\Microsoft Visual Studio\2019\Community\VC\Tools\MSVC\14.29.30133\atlmfc\include\cstringt.h

; 2403 : 		CThisSimpleString::Concatenate( strResult, str1, str1.GetLength(), psz2, CThisSimpleString::StringLength( psz2 ) );

  0032b	83 c4 14	 add	 esp, 20			; 00000014H
; File D:\git\src\IBK\IBK_DRFN\ProjSrc\SrcChartEx\ChartAddIn\ChartDesignPropertyAddIn\ChartDesignPropertyAddIn\DataOfPacketPage.cpp

; 63   : 				if( y == 1 || y == 2)			strInfoOfAllPacketItems += PacketList->GetItemText(i, y) + ";";

  0032e	8b cf		 mov	 ecx, edi
  00330	50		 push	 eax
  00331	ff 15 00 00 00
	00		 call	 DWORD PTR __imp_??Y?$CStringT@DV?$StrTraitMFC_DLL@DV?$ChTraitsCRT@D@ATL@@@@@ATL@@QAEAAV01@ABV?$CSimpleStringT@D$00@1@@Z
  00337	83 e3 fd	 and	 ebx, -3			; fffffffdH
  0033a	8d 4d d8	 lea	 ecx, DWORD PTR $T7[ebp]
  0033d	89 5d f0	 mov	 DWORD PTR $T11[ebp], ebx
  00340	ff 15 00 00 00
	00		 call	 DWORD PTR __imp_??1?$CStringT@DV?$StrTraitMFC_DLL@DV?$ChTraitsCRT@D@ATL@@@@@ATL@@QAE@XZ
  00346	8d 4d c0	 lea	 ecx, DWORD PTR $T2[ebp]
$LN96@GetAllData:

; 66   : 				if( y == 4) strInfoOfAllPacketItems += "\r\n";

  00349	c6 45 fc 01	 mov	 BYTE PTR __$EHRec$[ebp+8], 1
  0034d	ff 15 00 00 00
	00		 call	 DWORD PTR __imp_??1?$CStringT@DV?$StrTraitMFC_DLL@DV?$ChTraitsCRT@D@ATL@@@@@ATL@@QAE@XZ
  00353	83 fe 04	 cmp	 esi, 4
  00356	75 0d		 jne	 SHORT $LN5@GetAllData
  00358	68 00 00 00 00	 push	 OFFSET ??_C@_02PCIJFNDE@?$AN?6@
  0035d	8b cf		 mov	 ecx, edi
  0035f	ff 15 00 00 00
	00		 call	 DWORD PTR __imp_??Y?$CStringT@DV?$StrTraitMFC_DLL@DV?$ChTraitsCRT@D@ATL@@@@@ATL@@QAEAAV01@PBD@Z
$LN5@GetAllData:

; 58   : 		
; 59   : 			//subitem 내용을 string에 넣음.
; 60   : 			for(int y=0 ; y< 5; y++)

  00365	46		 inc	 esi
  00366	83 fe 05	 cmp	 esi, 5
  00369	0f 8c c2 fd ff
	ff		 jl	 $LL7@GetAllData
  0036f	8b 75 ec	 mov	 esi, DWORD PTR _i$1$[ebp]
$LN10@GetAllData:

; 67   : 			}
; 68   : 		}		
; 69   : 	}

  00372	8d 4d e4	 lea	 ecx, DWORD PTR _parent$10[ebp]
  00375	c6 45 fc 00	 mov	 BYTE PTR __$EHRec$[ebp+8], 0
  00379	ff 15 00 00 00
	00		 call	 DWORD PTR __imp_??1?$CStringT@DV?$StrTraitMFC_DLL@DV?$ChTraitsCRT@D@ATL@@@@@ATL@@QAE@XZ
  0037f	46		 inc	 esi
  00380	89 75 ec	 mov	 DWORD PTR _i$1$[ebp], esi
  00383	3b 75 bc	 cmp	 esi, DWORD PTR _Count$1$[ebp]
  00386	0f 8c f4 fc ff
	ff		 jl	 $LL4@GetAllData
$LN92@GetAllData:

; 71   : }

  0038c	8b c7		 mov	 eax, edi
  0038e	8b 4d f4	 mov	 ecx, DWORD PTR __$EHRec$[ebp]
  00391	64 89 0d 00 00
	00 00		 mov	 DWORD PTR fs:0, ecx
  00398	59		 pop	 ecx
  00399	5f		 pop	 edi
  0039a	5e		 pop	 esi
  0039b	5b		 pop	 ebx
  0039c	8b e5		 mov	 esp, ebp
  0039e	5d		 pop	 ebp
  0039f	c2 08 00	 ret	 8
_TEXT	ENDS
;	COMDAT text$x
text$x	SEGMENT
__unwindfunclet$?GetAllDataFromListCtrl@CDataOfPacketPage@@QAE?AV?$CStringT@DV?$StrTraitMFC_DLL@DV?$ChTraitsCRT@D@ATL@@@@@ATL@@PAVCPacketSuperGrid@@@Z$0:
  00000	8b 45 f0	 mov	 eax, DWORD PTR $T11[ebp]
  00003	83 e0 01	 and	 eax, 1
  00006	0f 84 0d 00 00
	00		 je	 $LN23@GetAllData
  0000c	83 65 f0 fe	 and	 DWORD PTR $T11[ebp], -2	; fffffffeH
  00010	8b 4d 08	 mov	 ecx, DWORD PTR ___$ReturnUdt$[ebp]
  00013	ff 25 00 00 00
	00		 jmp	 DWORD PTR __imp_??1?$CStringT@DV?$StrTraitMFC_DLL@DV?$ChTraitsCRT@D@ATL@@@@@ATL@@QAE@XZ
$LN23@GetAllData:
  00019	c3		 ret	 0
__unwindfunclet$?GetAllDataFromListCtrl@CDataOfPacketPage@@QAE?AV?$CStringT@DV?$StrTraitMFC_DLL@DV?$ChTraitsCRT@D@ATL@@@@@ATL@@PAVCPacketSuperGrid@@@Z$1:
  0001a	8d 4d e4	 lea	 ecx, DWORD PTR _parent$10[ebp]
  0001d	ff 25 00 00 00
	00		 jmp	 DWORD PTR __imp_??1?$CStringT@DV?$StrTraitMFC_DLL@DV?$ChTraitsCRT@D@ATL@@@@@ATL@@QAE@XZ
__unwindfunclet$?GetAllDataFromListCtrl@CDataOfPacketPage@@QAE?AV?$CStringT@DV?$StrTraitMFC_DLL@DV?$ChTraitsCRT@D@ATL@@@@@ATL@@PAVCPacketSuperGrid@@@Z$4:
  00023	8d 4d cc	 lea	 ecx, DWORD PTR $T5[ebp]
  00026	ff 25 00 00 00
	00		 jmp	 DWORD PTR __imp_??1?$CStringT@DV?$StrTraitMFC_DLL@DV?$ChTraitsCRT@D@ATL@@@@@ATL@@QAE@XZ
__unwindfunclet$?GetAllDataFromListCtrl@CDataOfPacketPage@@QAE?AV?$CStringT@DV?$StrTraitMFC_DLL@DV?$ChTraitsCRT@D@ATL@@@@@ATL@@PAVCPacketSuperGrid@@@Z$5:
  0002c	8d 4d d0	 lea	 ecx, DWORD PTR $T6[ebp]
  0002f	ff 25 00 00 00
	00		 jmp	 DWORD PTR __imp_??1?$CStringT@DV?$StrTraitMFC_DLL@DV?$ChTraitsCRT@D@ATL@@@@@ATL@@QAE@XZ
__unwindfunclet$?GetAllDataFromListCtrl@CDataOfPacketPage@@QAE?AV?$CStringT@DV?$StrTraitMFC_DLL@DV?$ChTraitsCRT@D@ATL@@@@@ATL@@PAVCPacketSuperGrid@@@Z$11:
  00035	8b 45 f0	 mov	 eax, DWORD PTR $T11[ebp]
  00038	83 e0 04	 and	 eax, 4
  0003b	0f 84 0d 00 00
	00		 je	 $LN58@GetAllData
  00041	83 65 f0 fb	 and	 DWORD PTR $T11[ebp], -5	; fffffffbH
  00045	8d 4d e0	 lea	 ecx, DWORD PTR $T9[ebp]
  00048	ff 25 00 00 00
	00		 jmp	 DWORD PTR __imp_??1?$CStringT@DV?$StrTraitMFC_DLL@DV?$ChTraitsCRT@D@ATL@@@@@ATL@@QAE@XZ
$LN58@GetAllData:
  0004e	c3		 ret	 0
__unwindfunclet$?GetAllDataFromListCtrl@CDataOfPacketPage@@QAE?AV?$CStringT@DV?$StrTraitMFC_DLL@DV?$ChTraitsCRT@D@ATL@@@@@ATL@@PAVCPacketSuperGrid@@@Z$7:
  0004f	8d 4d c4	 lea	 ecx, DWORD PTR $T3[ebp]
  00052	ff 25 00 00 00
	00		 jmp	 DWORD PTR __imp_??1?$CStringT@DV?$StrTraitMFC_DLL@DV?$ChTraitsCRT@D@ATL@@@@@ATL@@QAE@XZ
__unwindfunclet$?GetAllDataFromListCtrl@CDataOfPacketPage@@QAE?AV?$CStringT@DV?$StrTraitMFC_DLL@DV?$ChTraitsCRT@D@ATL@@@@@ATL@@PAVCPacketSuperGrid@@@Z$8:
  00058	8d 4d c8	 lea	 ecx, DWORD PTR $T4[ebp]
  0005b	ff 25 00 00 00
	00		 jmp	 DWORD PTR __imp_??1?$CStringT@DV?$StrTraitMFC_DLL@DV?$ChTraitsCRT@D@ATL@@@@@ATL@@QAE@XZ
__unwindfunclet$?GetAllDataFromListCtrl@CDataOfPacketPage@@QAE?AV?$CStringT@DV?$StrTraitMFC_DLL@DV?$ChTraitsCRT@D@ATL@@@@@ATL@@PAVCPacketSuperGrid@@@Z$12:
  00061	8b 45 f0	 mov	 eax, DWORD PTR $T11[ebp]
  00064	83 e0 08	 and	 eax, 8
  00067	0f 84 0d 00 00
	00		 je	 $LN73@GetAllData
  0006d	83 65 f0 f7	 and	 DWORD PTR $T11[ebp], -9	; fffffff7H
  00071	8d 4d dc	 lea	 ecx, DWORD PTR $T8[ebp]
  00074	ff 25 00 00 00
	00		 jmp	 DWORD PTR __imp_??1?$CStringT@DV?$StrTraitMFC_DLL@DV?$ChTraitsCRT@D@ATL@@@@@ATL@@QAE@XZ
$LN73@GetAllData:
  0007a	c3		 ret	 0
__unwindfunclet$?GetAllDataFromListCtrl@CDataOfPacketPage@@QAE?AV?$CStringT@DV?$StrTraitMFC_DLL@DV?$ChTraitsCRT@D@ATL@@@@@ATL@@PAVCPacketSuperGrid@@@Z$2:
  0007b	8d 4d c0	 lea	 ecx, DWORD PTR $T2[ebp]
  0007e	ff 25 00 00 00
	00		 jmp	 DWORD PTR __imp_??1?$CStringT@DV?$StrTraitMFC_DLL@DV?$ChTraitsCRT@D@ATL@@@@@ATL@@QAE@XZ
__unwindfunclet$?GetAllDataFromListCtrl@CDataOfPacketPage@@QAE?AV?$CStringT@DV?$StrTraitMFC_DLL@DV?$ChTraitsCRT@D@ATL@@@@@ATL@@PAVCPacketSuperGrid@@@Z$10:
  00084	8b 45 f0	 mov	 eax, DWORD PTR $T11[ebp]
  00087	83 e0 02	 and	 eax, 2
  0008a	0f 84 0d 00 00
	00		 je	 $LN38@GetAllData
  00090	83 65 f0 fd	 and	 DWORD PTR $T11[ebp], -3	; fffffffdH
  00094	8d 4d d8	 lea	 ecx, DWORD PTR $T7[ebp]
  00097	ff 25 00 00 00
	00		 jmp	 DWORD PTR __imp_??1?$CStringT@DV?$StrTraitMFC_DLL@DV?$ChTraitsCRT@D@ATL@@@@@ATL@@QAE@XZ
$LN38@GetAllData:
  0009d	c3		 ret	 0
  0009e	cc		 int	 3
  0009f	cc		 int	 3
  000a0	cc		 int	 3
  000a1	cc		 int	 3
  000a2	cc		 int	 3
__ehhandler$?GetAllDataFromListCtrl@CDataOfPacketPage@@QAE?AV?$CStringT@DV?$StrTraitMFC_DLL@DV?$ChTraitsCRT@D@ATL@@@@@ATL@@PAVCPacketSuperGrid@@@Z:
  000a3	90		 npad	 1
  000a4	90		 npad	 1
  000a5	8b 54 24 08	 mov	 edx, DWORD PTR [esp+8]
  000a9	8d 42 0c	 lea	 eax, DWORD PTR [edx+12]
  000ac	8b 4a b8	 mov	 ecx, DWORD PTR [edx-72]
  000af	33 c8		 xor	 ecx, eax
  000b1	e8 00 00 00 00	 call	 @__security_check_cookie@4
  000b6	b8 00 00 00 00	 mov	 eax, OFFSET __ehfuncinfo$?GetAllDataFromListCtrl@CDataOfPacketPage@@QAE?AV?$CStringT@DV?$StrTraitMFC_DLL@DV?$ChTraitsCRT@D@ATL@@@@@ATL@@PAVCPacketSuperGrid@@@Z
  000bb	e9 00 00 00 00	 jmp	 ___CxxFrameHandler3
text$x	ENDS
?GetAllDataFromListCtrl@CDataOfPacketPage@@QAE?AV?$CStringT@DV?$StrTraitMFC_DLL@DV?$ChTraitsCRT@D@ATL@@@@@ATL@@PAVCPacketSuperGrid@@@Z ENDP ; CDataOfPacketPage::GetAllDataFromListCtrl
; Function compile flags: /Ogtp
; File D:\git\src\IBK\IBK_DRFN\ProjSrc\SrcChartEx\ChartAddIn\ChartDesignPropertyAddIn\ChartDesignPropertyAddIn\DataOfPacketPage.cpp
; File C:\Program Files (x86)\Microsoft Visual Studio\2019\Community\VC\Tools\MSVC\14.29.30133\atlmfc\include\atlsimpstr.h
; File D:\git\src\IBK\IBK_DRFN\ProjSrc\SrcChartEx\ChartAddIn\ChartDesignPropertyAddIn\ChartDesignPropertyAddIn\DataOfPacketPage.cpp
; File C:\Program Files (x86)\Microsoft Visual Studio\2019\Community\VC\Tools\MSVC\14.29.30133\atlmfc\include\cstringt.h
; File D:\git\src\IBK\IBK_DRFN\ProjSrc\SrcChartEx\ChartAddIn\ChartDesignPropertyAddIn\ChartDesignPropertyAddIn\DataOfPacketPage.cpp
; File C:\Program Files (x86)\Microsoft Visual Studio\2019\Community\VC\Tools\MSVC\14.29.30133\atlmfc\include\cstringt.h
; File D:\git\src\IBK\IBK_DRFN\ProjSrc\SrcChartEx\ChartAddIn\ChartDesignPropertyAddIn\ChartDesignPropertyAddIn\DataOfPacketPage.cpp
; File C:\Program Files (x86)\Microsoft Visual Studio\2019\Community\VC\Tools\MSVC\14.29.30133\atlmfc\include\cstringt.h
; File D:\git\src\IBK\IBK_DRFN\ProjSrc\SrcChartEx\ChartAddIn\ChartDesignPropertyAddIn\ChartDesignPropertyAddIn\DataOfPacketPage.cpp
; File C:\Program Files (x86)\Microsoft Visual Studio\2019\Community\VC\Tools\MSVC\14.29.30133\atlmfc\include\cstringt.h
; File D:\git\src\IBK\IBK_DRFN\ProjSrc\SrcChartEx\ChartAddIn\ChartDesignPropertyAddIn\ChartDesignPropertyAddIn\DataOfPacketPage.cpp
; File C:\Program Files (x86)\Microsoft Visual Studio\2019\Community\VC\Tools\MSVC\14.29.30133\atlmfc\include\cstringt.h
; File C:\Program Files (x86)\Microsoft Visual Studio\2019\Community\VC\Tools\MSVC\14.29.30133\atlmfc\include\atlsimpstr.h
; File C:\Program Files (x86)\Microsoft Visual Studio\2019\Community\VC\Tools\MSVC\14.29.30133\atlmfc\include\cstringt.h
; File D:\git\src\IBK\IBK_DRFN\ProjSrc\SrcChartEx\ChartAddIn\ChartDesignPropertyAddIn\ChartDesignPropertyAddIn\DataOfPacketPage.cpp
;	COMDAT ?GetUseRealPacketItems@CDataOfPacketPage@@QAE?AV?$CStringT@DV?$StrTraitMFC_DLL@DV?$ChTraitsCRT@D@ATL@@@@@ATL@@ABV23@@Z
_TEXT	SEGMENT
_szField$2 = -80					; size = 4
_szLength$3 = -76					; size = 4
_szType$4 = -72						; size = 4
$T5 = -68						; size = 4
$T6 = -64						; size = 4
_szReal$7 = -60						; size = 4
$T8 = -56						; size = 4
$T9 = -52						; size = 4
$T10 = -48						; size = 4
$T11 = -44						; size = 4
$T12 = -40						; size = 4
$T13 = -36						; size = 4
$T14 = -32						; size = 4
_strResult$ = -28					; size = 4
_szpacket$15 = -24					; size = 4
$T16 = -20						; size = 4
__szData$ = -16						; size = 4
__$EHRec$ = -12						; size = 12
___$ReturnUdt$ = 8					; size = 4
_szItemData$17 = 12					; size = 4
$T18 = 12						; size = 4
$T19 = 12						; size = 4
_strSavedData$ = 12					; size = 4
?GetUseRealPacketItems@CDataOfPacketPage@@QAE?AV?$CStringT@DV?$StrTraitMFC_DLL@DV?$ChTraitsCRT@D@ATL@@@@@ATL@@ABV23@@Z PROC ; CDataOfPacketPage::GetUseRealPacketItems, COMDAT
; _this$ = ecx

; 74   : {

  00000	55		 push	 ebp
  00001	8b ec		 mov	 ebp, esp
  00003	6a ff		 push	 -1
  00005	68 00 00 00 00	 push	 __ehhandler$?GetUseRealPacketItems@CDataOfPacketPage@@QAE?AV?$CStringT@DV?$StrTraitMFC_DLL@DV?$ChTraitsCRT@D@ATL@@@@@ATL@@ABV23@@Z
  0000a	64 a1 00 00 00
	00		 mov	 eax, DWORD PTR fs:0
  00010	50		 push	 eax
  00011	83 ec 44	 sub	 esp, 68			; 00000044H
  00014	53		 push	 ebx
  00015	56		 push	 esi
  00016	57		 push	 edi
  00017	a1 00 00 00 00	 mov	 eax, DWORD PTR ___security_cookie
  0001c	33 c5		 xor	 eax, ebp
  0001e	50		 push	 eax
  0001f	8d 45 f4	 lea	 eax, DWORD PTR __$EHRec$[ebp]
  00022	64 a3 00 00 00
	00		 mov	 DWORD PTR fs:0, eax
  00028	33 ff		 xor	 edi, edi
  0002a	89 7d bc	 mov	 DWORD PTR $T5[ebp], edi
; File C:\Program Files (x86)\Microsoft Visual Studio\2019\Community\VC\Tools\MSVC\14.29.30133\atlmfc\include\atlsimpstr.h

; 519  : 		return( GetData()->nDataLength );

  0002d	8b 4d 0c	 mov	 ecx, DWORD PTR _strSavedData$[ebp]
  00030	8b 01		 mov	 eax, DWORD PTR [ecx]

; 533  : 		return( GetLength() == 0 );

  00032	39 78 f4	 cmp	 DWORD PTR [eax-12], edi
; File D:\git\src\IBK\IBK_DRFN\ProjSrc\SrcChartEx\ChartAddIn\ChartDesignPropertyAddIn\ChartDesignPropertyAddIn\DataOfPacketPage.cpp

; 75   : 	if(strSavedData.IsEmpty())

  00035	75 13		 jne	 SHORT $LN5@GetUseReal

; 76   : 		return "";

  00037	8b 4d 08	 mov	 ecx, DWORD PTR ___$ReturnUdt$[ebp]
  0003a	68 00 00 00 00	 push	 OFFSET ??_C@_00CNPNBAHC@@
  0003f	ff 15 00 00 00
	00		 call	 DWORD PTR __imp_??0?$CStringT@DV?$StrTraitMFC_DLL@DV?$ChTraitsCRT@D@ATL@@@@@ATL@@QAE@PBD@Z
  00045	e9 fb 02 00 00	 jmp	 $LN58@GetUseReal
$LN5@GetUseReal:

; 77   : 
; 78   : 	CString _szData = strSavedData;

  0004a	51		 push	 ecx
  0004b	8d 4d f0	 lea	 ecx, DWORD PTR __szData$[ebp]
  0004e	ff 15 00 00 00
	00		 call	 DWORD PTR __imp_??0?$CStringT@DV?$StrTraitMFC_DLL@DV?$ChTraitsCRT@D@ATL@@@@@ATL@@QAE@ABV01@@Z

; 80   : 	if(_szData.Right(2) != "\r\n")

  00054	6a 02		 push	 2
  00056	8d 45 0c	 lea	 eax, DWORD PTR $T19[ebp]
  00059	c7 45 fc 00 00
	00 00		 mov	 DWORD PTR __$EHRec$[ebp+8], 0
  00060	50		 push	 eax
  00061	8d 4d f0	 lea	 ecx, DWORD PTR __szData$[ebp]
  00064	ff 15 00 00 00
	00		 call	 DWORD PTR __imp_?Right@?$CStringT@DV?$StrTraitMFC_DLL@DV?$ChTraitsCRT@D@ATL@@@@@ATL@@QBE?AV12@H@Z
; File C:\Program Files (x86)\Microsoft Visual Studio\2019\Community\VC\Tools\MSVC\14.29.30133\atlmfc\include\cstringt.h

; 2567 : 		return( str1.Compare( psz2 ) != 0 );

  0006a	68 00 00 00 00	 push	 OFFSET ??_C@_02PCIJFNDE@?$AN?6@
  0006f	8b c8		 mov	 ecx, eax
; File D:\git\src\IBK\IBK_DRFN\ProjSrc\SrcChartEx\ChartAddIn\ChartDesignPropertyAddIn\ChartDesignPropertyAddIn\DataOfPacketPage.cpp

; 80   : 	if(_szData.Right(2) != "\r\n")

  00071	c6 45 fc 01	 mov	 BYTE PTR __$EHRec$[ebp+8], 1
; File C:\Program Files (x86)\Microsoft Visual Studio\2019\Community\VC\Tools\MSVC\14.29.30133\atlmfc\include\cstringt.h

; 2567 : 		return( str1.Compare( psz2 ) != 0 );

  00075	ff 15 00 00 00
	00		 call	 DWORD PTR __imp_?Compare@?$CStringT@DV?$StrTraitMFC_DLL@DV?$ChTraitsCRT@D@ATL@@@@@ATL@@QBEHPBD@Z
; File D:\git\src\IBK\IBK_DRFN\ProjSrc\SrcChartEx\ChartAddIn\ChartDesignPropertyAddIn\ChartDesignPropertyAddIn\DataOfPacketPage.cpp

; 80   : 	if(_szData.Right(2) != "\r\n")

  0007b	8d 4d 0c	 lea	 ecx, DWORD PTR $T19[ebp]
  0007e	c6 45 fc 00	 mov	 BYTE PTR __$EHRec$[ebp+8], 0
; File C:\Program Files (x86)\Microsoft Visual Studio\2019\Community\VC\Tools\MSVC\14.29.30133\atlmfc\include\cstringt.h

; 2567 : 		return( str1.Compare( psz2 ) != 0 );

  00082	8b f0		 mov	 esi, eax
; File D:\git\src\IBK\IBK_DRFN\ProjSrc\SrcChartEx\ChartAddIn\ChartDesignPropertyAddIn\ChartDesignPropertyAddIn\DataOfPacketPage.cpp

; 80   : 	if(_szData.Right(2) != "\r\n")

  00084	ff 15 00 00 00
	00		 call	 DWORD PTR __imp_??1?$CStringT@DV?$StrTraitMFC_DLL@DV?$ChTraitsCRT@D@ATL@@@@@ATL@@QAE@XZ
  0008a	85 f6		 test	 esi, esi
  0008c	74 0e		 je	 SHORT $LN6@GetUseReal

; 81   : 		_szData += "\r\n";

  0008e	68 00 00 00 00	 push	 OFFSET ??_C@_02PCIJFNDE@?$AN?6@
  00093	8d 4d f0	 lea	 ecx, DWORD PTR __szData$[ebp]
  00096	ff 15 00 00 00
	00		 call	 DWORD PTR __imp_??Y?$CStringT@DV?$StrTraitMFC_DLL@DV?$ChTraitsCRT@D@ATL@@@@@ATL@@QAEAAV01@PBD@Z
$LN6@GetUseReal:

; 82   : 
; 83   : 	CString strResult = "";

  0009c	68 00 00 00 00	 push	 OFFSET ??_C@_00CNPNBAHC@@
  000a1	8d 4d e4	 lea	 ecx, DWORD PTR _strResult$[ebp]
  000a4	ff 15 00 00 00
	00		 call	 DWORD PTR __imp_??0?$CStringT@DV?$StrTraitMFC_DLL@DV?$ChTraitsCRT@D@ATL@@@@@ATL@@QAE@PBD@Z

; 84   : 	int nCount = CDataConversion::GetStringDataCount(_szData, "\r\n");

  000aa	68 00 00 00 00	 push	 OFFSET ??_C@_02PCIJFNDE@?$AN?6@
  000af	8d 4d 0c	 lea	 ecx, DWORD PTR $T18[ebp]
  000b2	c6 45 fc 02	 mov	 BYTE PTR __$EHRec$[ebp+8], 2
  000b6	ff 15 00 00 00
	00		 call	 DWORD PTR __imp_??0?$CStringT@DV?$StrTraitMFC_DLL@DV?$ChTraitsCRT@D@ATL@@@@@ATL@@QAE@PBD@Z
  000bc	8d 45 0c	 lea	 eax, DWORD PTR $T18[ebp]
  000bf	c6 45 fc 03	 mov	 BYTE PTR __$EHRec$[ebp+8], 3
  000c3	50		 push	 eax
  000c4	8d 45 f0	 lea	 eax, DWORD PTR __szData$[ebp]
  000c7	50		 push	 eax
  000c8	e8 00 00 00 00	 call	 ?GetStringDataCount@CDataConversion@@SAHABV?$CStringT@DV?$StrTraitMFC_DLL@DV?$ChTraitsCRT@D@ATL@@@@@ATL@@0@Z ; CDataConversion::GetStringDataCount
  000cd	83 c4 08	 add	 esp, 8
  000d0	c6 45 fc 02	 mov	 BYTE PTR __$EHRec$[ebp+8], 2
  000d4	8d 4d 0c	 lea	 ecx, DWORD PTR $T18[ebp]
  000d7	8b d8		 mov	 ebx, eax
  000d9	ff 15 00 00 00
	00		 call	 DWORD PTR __imp_??1?$CStringT@DV?$StrTraitMFC_DLL@DV?$ChTraitsCRT@D@ATL@@@@@ATL@@QAE@XZ

; 85   : 	for(int i =0 ; i< nCount; i++) {

  000df	85 db		 test	 ebx, ebx
  000e1	0f 8e 3f 02 00
	00		 jle	 $LN3@GetUseReal
  000e7	66 0f 1f 84 00
	00 00 00 00	 npad	 9
$LL4@GetUseReal:

; 86   : 		CString szItemData = CDataConversion::GetStringData(_szData, "\r\n");

  000f0	68 00 00 00 00	 push	 OFFSET ??_C@_02PCIJFNDE@?$AN?6@
  000f5	8d 4d e0	 lea	 ecx, DWORD PTR $T14[ebp]
  000f8	ff 15 00 00 00
	00		 call	 DWORD PTR __imp_??0?$CStringT@DV?$StrTraitMFC_DLL@DV?$ChTraitsCRT@D@ATL@@@@@ATL@@QAE@PBD@Z
  000fe	6a 01		 push	 1
  00100	8d 45 e0	 lea	 eax, DWORD PTR $T14[ebp]
  00103	c6 45 fc 04	 mov	 BYTE PTR __$EHRec$[ebp+8], 4
  00107	50		 push	 eax
  00108	8d 45 f0	 lea	 eax, DWORD PTR __szData$[ebp]
  0010b	50		 push	 eax
  0010c	8d 45 0c	 lea	 eax, DWORD PTR _szItemData$17[ebp]
  0010f	50		 push	 eax
  00110	e8 00 00 00 00	 call	 ?GetStringData@CDataConversion@@SA?AV?$CStringT@DV?$StrTraitMFC_DLL@DV?$ChTraitsCRT@D@ATL@@@@@ATL@@AAV23@ABV23@_N@Z ; CDataConversion::GetStringData
  00115	83 c4 10	 add	 esp, 16			; 00000010H
  00118	8d 4d e0	 lea	 ecx, DWORD PTR $T14[ebp]
  0011b	c6 45 fc 06	 mov	 BYTE PTR __$EHRec$[ebp+8], 6
  0011f	ff 15 00 00 00
	00		 call	 DWORD PTR __imp_??1?$CStringT@DV?$StrTraitMFC_DLL@DV?$ChTraitsCRT@D@ATL@@@@@ATL@@QAE@XZ

; 87   : 		int nCheck = atoi(CDataConversion::GetStringData(szItemData, ";"));

  00125	68 00 00 00 00	 push	 OFFSET ??_C@_01ICJEACDI@?$DL@
  0012a	8d 4d dc	 lea	 ecx, DWORD PTR $T13[ebp]
  0012d	ff 15 00 00 00
	00		 call	 DWORD PTR __imp_??0?$CStringT@DV?$StrTraitMFC_DLL@DV?$ChTraitsCRT@D@ATL@@@@@ATL@@QAE@PBD@Z
  00133	6a 01		 push	 1
  00135	8d 45 dc	 lea	 eax, DWORD PTR $T13[ebp]
  00138	c6 45 fc 07	 mov	 BYTE PTR __$EHRec$[ebp+8], 7
  0013c	50		 push	 eax
  0013d	8d 45 0c	 lea	 eax, DWORD PTR _szItemData$17[ebp]
  00140	50		 push	 eax
  00141	8d 45 c0	 lea	 eax, DWORD PTR $T6[ebp]
  00144	50		 push	 eax
  00145	e8 00 00 00 00	 call	 ?GetStringData@CDataConversion@@SA?AV?$CStringT@DV?$StrTraitMFC_DLL@DV?$ChTraitsCRT@D@ATL@@@@@ATL@@AAV23@ABV23@_N@Z ; CDataConversion::GetStringData
  0014a	ff 30		 push	 DWORD PTR [eax]
  0014c	ff 15 00 00 00
	00		 call	 DWORD PTR __imp__atoi
  00152	83 c4 14	 add	 esp, 20			; 00000014H
  00155	8d 4d c0	 lea	 ecx, DWORD PTR $T6[ebp]
  00158	8b f0		 mov	 esi, eax
  0015a	ff 15 00 00 00
	00		 call	 DWORD PTR __imp_??1?$CStringT@DV?$StrTraitMFC_DLL@DV?$ChTraitsCRT@D@ATL@@@@@ATL@@QAE@XZ
  00160	8d 4d dc	 lea	 ecx, DWORD PTR $T13[ebp]
  00163	c6 45 fc 06	 mov	 BYTE PTR __$EHRec$[ebp+8], 6
  00167	ff 15 00 00 00
	00		 call	 DWORD PTR __imp_??1?$CStringT@DV?$StrTraitMFC_DLL@DV?$ChTraitsCRT@D@ATL@@@@@ATL@@QAE@XZ

; 88   : 		CString szpacket = CDataConversion::GetStringData(szItemData, ";");

  0016d	68 00 00 00 00	 push	 OFFSET ??_C@_01ICJEACDI@?$DL@
  00172	8d 4d d8	 lea	 ecx, DWORD PTR $T12[ebp]
  00175	ff 15 00 00 00
	00		 call	 DWORD PTR __imp_??0?$CStringT@DV?$StrTraitMFC_DLL@DV?$ChTraitsCRT@D@ATL@@@@@ATL@@QAE@PBD@Z
  0017b	6a 01		 push	 1
  0017d	8d 45 d8	 lea	 eax, DWORD PTR $T12[ebp]
  00180	c6 45 fc 08	 mov	 BYTE PTR __$EHRec$[ebp+8], 8
  00184	50		 push	 eax
  00185	8d 45 0c	 lea	 eax, DWORD PTR _szItemData$17[ebp]
  00188	50		 push	 eax
  00189	8d 45 e8	 lea	 eax, DWORD PTR _szpacket$15[ebp]
  0018c	50		 push	 eax
  0018d	e8 00 00 00 00	 call	 ?GetStringData@CDataConversion@@SA?AV?$CStringT@DV?$StrTraitMFC_DLL@DV?$ChTraitsCRT@D@ATL@@@@@ATL@@AAV23@ABV23@_N@Z ; CDataConversion::GetStringData
  00192	83 c4 10	 add	 esp, 16			; 00000010H
  00195	8d 4d d8	 lea	 ecx, DWORD PTR $T12[ebp]
  00198	c6 45 fc 0a	 mov	 BYTE PTR __$EHRec$[ebp+8], 10 ; 0000000aH
  0019c	ff 15 00 00 00
	00		 call	 DWORD PTR __imp_??1?$CStringT@DV?$StrTraitMFC_DLL@DV?$ChTraitsCRT@D@ATL@@@@@ATL@@QAE@XZ

; 89   : 		CString szField = CDataConversion::GetStringData(szItemData, ";");

  001a2	68 00 00 00 00	 push	 OFFSET ??_C@_01ICJEACDI@?$DL@
  001a7	8d 4d d4	 lea	 ecx, DWORD PTR $T11[ebp]
  001aa	ff 15 00 00 00
	00		 call	 DWORD PTR __imp_??0?$CStringT@DV?$StrTraitMFC_DLL@DV?$ChTraitsCRT@D@ATL@@@@@ATL@@QAE@PBD@Z
  001b0	6a 01		 push	 1
  001b2	8d 45 d4	 lea	 eax, DWORD PTR $T11[ebp]
  001b5	c6 45 fc 0b	 mov	 BYTE PTR __$EHRec$[ebp+8], 11 ; 0000000bH
  001b9	50		 push	 eax
  001ba	8d 45 0c	 lea	 eax, DWORD PTR _szItemData$17[ebp]
  001bd	50		 push	 eax
  001be	8d 45 b0	 lea	 eax, DWORD PTR _szField$2[ebp]
  001c1	50		 push	 eax
  001c2	e8 00 00 00 00	 call	 ?GetStringData@CDataConversion@@SA?AV?$CStringT@DV?$StrTraitMFC_DLL@DV?$ChTraitsCRT@D@ATL@@@@@ATL@@AAV23@ABV23@_N@Z ; CDataConversion::GetStringData
  001c7	83 c4 10	 add	 esp, 16			; 00000010H
  001ca	8d 4d d4	 lea	 ecx, DWORD PTR $T11[ebp]
  001cd	c6 45 fc 0d	 mov	 BYTE PTR __$EHRec$[ebp+8], 13 ; 0000000dH
  001d1	ff 15 00 00 00
	00		 call	 DWORD PTR __imp_??1?$CStringT@DV?$StrTraitMFC_DLL@DV?$ChTraitsCRT@D@ATL@@@@@ATL@@QAE@XZ

; 90   : 		CString szLength = CDataConversion::GetStringData(szItemData, ";");

  001d7	68 00 00 00 00	 push	 OFFSET ??_C@_01ICJEACDI@?$DL@
  001dc	8d 4d d0	 lea	 ecx, DWORD PTR $T10[ebp]
  001df	ff 15 00 00 00
	00		 call	 DWORD PTR __imp_??0?$CStringT@DV?$StrTraitMFC_DLL@DV?$ChTraitsCRT@D@ATL@@@@@ATL@@QAE@PBD@Z
  001e5	6a 01		 push	 1
  001e7	8d 45 d0	 lea	 eax, DWORD PTR $T10[ebp]
  001ea	c6 45 fc 0e	 mov	 BYTE PTR __$EHRec$[ebp+8], 14 ; 0000000eH
  001ee	50		 push	 eax
  001ef	8d 45 0c	 lea	 eax, DWORD PTR _szItemData$17[ebp]
  001f2	50		 push	 eax
  001f3	8d 45 b4	 lea	 eax, DWORD PTR _szLength$3[ebp]
  001f6	50		 push	 eax
  001f7	e8 00 00 00 00	 call	 ?GetStringData@CDataConversion@@SA?AV?$CStringT@DV?$StrTraitMFC_DLL@DV?$ChTraitsCRT@D@ATL@@@@@ATL@@AAV23@ABV23@_N@Z ; CDataConversion::GetStringData
  001fc	83 c4 10	 add	 esp, 16			; 00000010H
  001ff	8d 4d d0	 lea	 ecx, DWORD PTR $T10[ebp]
  00202	c6 45 fc 10	 mov	 BYTE PTR __$EHRec$[ebp+8], 16 ; 00000010H
  00206	ff 15 00 00 00
	00		 call	 DWORD PTR __imp_??1?$CStringT@DV?$StrTraitMFC_DLL@DV?$ChTraitsCRT@D@ATL@@@@@ATL@@QAE@XZ

; 91   : 		CString szType = CDataConversion::GetStringData(szItemData, ";");

  0020c	68 00 00 00 00	 push	 OFFSET ??_C@_01ICJEACDI@?$DL@
  00211	8d 4d cc	 lea	 ecx, DWORD PTR $T9[ebp]
  00214	ff 15 00 00 00
	00		 call	 DWORD PTR __imp_??0?$CStringT@DV?$StrTraitMFC_DLL@DV?$ChTraitsCRT@D@ATL@@@@@ATL@@QAE@PBD@Z
  0021a	6a 01		 push	 1
  0021c	8d 45 cc	 lea	 eax, DWORD PTR $T9[ebp]
  0021f	c6 45 fc 11	 mov	 BYTE PTR __$EHRec$[ebp+8], 17 ; 00000011H
  00223	50		 push	 eax
  00224	8d 45 0c	 lea	 eax, DWORD PTR _szItemData$17[ebp]
  00227	50		 push	 eax
  00228	8d 45 b8	 lea	 eax, DWORD PTR _szType$4[ebp]
  0022b	50		 push	 eax
  0022c	e8 00 00 00 00	 call	 ?GetStringData@CDataConversion@@SA?AV?$CStringT@DV?$StrTraitMFC_DLL@DV?$ChTraitsCRT@D@ATL@@@@@ATL@@AAV23@ABV23@_N@Z ; CDataConversion::GetStringData
  00231	83 c4 10	 add	 esp, 16			; 00000010H
  00234	8d 4d cc	 lea	 ecx, DWORD PTR $T9[ebp]
  00237	c6 45 fc 13	 mov	 BYTE PTR __$EHRec$[ebp+8], 19 ; 00000013H
  0023b	ff 15 00 00 00
	00		 call	 DWORD PTR __imp_??1?$CStringT@DV?$StrTraitMFC_DLL@DV?$ChTraitsCRT@D@ATL@@@@@ATL@@QAE@XZ

; 92   : 		CString szReal = CDataConversion::GetStringData(szItemData, ";");

  00241	68 00 00 00 00	 push	 OFFSET ??_C@_01ICJEACDI@?$DL@
  00246	8d 4d c8	 lea	 ecx, DWORD PTR $T8[ebp]
  00249	ff 15 00 00 00
	00		 call	 DWORD PTR __imp_??0?$CStringT@DV?$StrTraitMFC_DLL@DV?$ChTraitsCRT@D@ATL@@@@@ATL@@QAE@PBD@Z
  0024f	6a 01		 push	 1
  00251	8d 45 c8	 lea	 eax, DWORD PTR $T8[ebp]
  00254	c6 45 fc 14	 mov	 BYTE PTR __$EHRec$[ebp+8], 20 ; 00000014H
  00258	50		 push	 eax
  00259	8d 45 0c	 lea	 eax, DWORD PTR _szItemData$17[ebp]
  0025c	50		 push	 eax
  0025d	8d 45 c4	 lea	 eax, DWORD PTR _szReal$7[ebp]
  00260	50		 push	 eax
  00261	e8 00 00 00 00	 call	 ?GetStringData@CDataConversion@@SA?AV?$CStringT@DV?$StrTraitMFC_DLL@DV?$ChTraitsCRT@D@ATL@@@@@ATL@@AAV23@ABV23@_N@Z ; CDataConversion::GetStringData
  00266	83 c4 10	 add	 esp, 16			; 00000010H
  00269	8d 4d c8	 lea	 ecx, DWORD PTR $T8[ebp]
  0026c	c6 45 fc 16	 mov	 BYTE PTR __$EHRec$[ebp+8], 22 ; 00000016H
  00270	ff 15 00 00 00
	00		 call	 DWORD PTR __imp_??1?$CStringT@DV?$StrTraitMFC_DLL@DV?$ChTraitsCRT@D@ATL@@@@@ATL@@QAE@XZ

; 93   : 
; 94   : 		if(nCheck == 1 && szReal.Compare( _MTEXT( C6_YES)) == 0) 

  00276	83 fe 01	 cmp	 esi, 1
  00279	75 68		 jne	 SHORT $LN7@GetUseReal
  0027b	a1 54 00 00 00	 mov	 eax, DWORD PTR ?g_iMetaTable@@3VIMetaTable@@A+84
  00280	8d 4d c4	 lea	 ecx, DWORD PTR _szReal$7[ebp]
  00283	ff b0 64 09 00
	00		 push	 DWORD PTR [eax+2404]
  00289	ff 15 00 00 00
	00		 call	 DWORD PTR __imp_?Compare@?$CStringT@DV?$StrTraitMFC_DLL@DV?$ChTraitsCRT@D@ATL@@@@@ATL@@QBEHPBD@Z
  0028f	85 c0		 test	 eax, eax
  00291	75 50		 jne	 SHORT $LN7@GetUseReal
; File C:\Program Files (x86)\Microsoft Visual Studio\2019\Community\VC\Tools\MSVC\14.29.30133\atlmfc\include\cstringt.h

; 2401 : 		CStringT strResult( str1.GetManager() );

  00293	8d 4d e8	 lea	 ecx, DWORD PTR _szpacket$15[ebp]
; File D:\git\src\IBK\IBK_DRFN\ProjSrc\SrcChartEx\ChartAddIn\ChartDesignPropertyAddIn\ChartDesignPropertyAddIn\DataOfPacketPage.cpp

; 95   : 			strResult +=  szpacket+ ";";

  00296	c6 45 fc 17	 mov	 BYTE PTR __$EHRec$[ebp+8], 23 ; 00000017H
; File C:\Program Files (x86)\Microsoft Visual Studio\2019\Community\VC\Tools\MSVC\14.29.30133\atlmfc\include\cstringt.h

; 2401 : 		CStringT strResult( str1.GetManager() );

  0029a	ff 15 00 00 00
	00		 call	 DWORD PTR __imp_?GetManager@?$CStringT@DV?$StrTraitMFC_DLL@DV?$ChTraitsCRT@D@ATL@@@@@ATL@@QBEPAUIAtlStringMgr@2@XZ
  002a0	50		 push	 eax
  002a1	8d 4d ec	 lea	 ecx, DWORD PTR $T16[ebp]
  002a4	ff 15 00 00 00
	00		 call	 DWORD PTR __imp_??0?$CStringT@DV?$StrTraitMFC_DLL@DV?$ChTraitsCRT@D@ATL@@@@@ATL@@QAE@PAUIAtlStringMgr@1@@Z
; File C:\Program Files (x86)\Microsoft Visual Studio\2019\Community\VC\Tools\MSVC\14.29.30133\atlmfc\include\atlsimpstr.h

; 519  : 		return( GetData()->nDataLength );

  002aa	8b 45 e8	 mov	 eax, DWORD PTR _szpacket$15[ebp]
; File C:\Program Files (x86)\Microsoft Visual Studio\2019\Community\VC\Tools\MSVC\14.29.30133\atlmfc\include\cstringt.h

; 2405 : 		return( strResult );

  002ad	83 cf 02	 or	 edi, 2
  002b0	56		 push	 esi
  002b1	68 00 00 00 00	 push	 OFFSET ??_C@_01ICJEACDI@?$DL@
  002b6	89 7d bc	 mov	 DWORD PTR $T5[ebp], edi
  002b9	ff 70 f4	 push	 DWORD PTR [eax-12]
  002bc	50		 push	 eax
  002bd	8d 45 ec	 lea	 eax, DWORD PTR $T16[ebp]
  002c0	50		 push	 eax
  002c1	ff 15 00 00 00
	00		 call	 DWORD PTR __imp_?Concatenate@?$CSimpleStringT@D$00@ATL@@KAXAAV12@PBDH1H@Z
  002c7	83 c4 14	 add	 esp, 20			; 00000014H
; File D:\git\src\IBK\IBK_DRFN\ProjSrc\SrcChartEx\ChartAddIn\ChartDesignPropertyAddIn\ChartDesignPropertyAddIn\DataOfPacketPage.cpp

; 95   : 			strResult +=  szpacket+ ";";

  002ca	8d 45 ec	 lea	 eax, DWORD PTR $T16[ebp]
  002cd	8d 4d e4	 lea	 ecx, DWORD PTR _strResult$[ebp]
  002d0	50		 push	 eax
  002d1	ff 15 00 00 00
	00		 call	 DWORD PTR __imp_??Y?$CStringT@DV?$StrTraitMFC_DLL@DV?$ChTraitsCRT@D@ATL@@@@@ATL@@QAEAAV01@ABV?$CSimpleStringT@D$00@1@@Z
  002d7	8d 4d ec	 lea	 ecx, DWORD PTR $T16[ebp]
  002da	83 e7 fd	 and	 edi, -3			; fffffffdH
  002dd	ff 15 00 00 00
	00		 call	 DWORD PTR __imp_??1?$CStringT@DV?$StrTraitMFC_DLL@DV?$ChTraitsCRT@D@ATL@@@@@ATL@@QAE@XZ
$LN7@GetUseReal:

; 96   : 	}

  002e3	8d 4d c4	 lea	 ecx, DWORD PTR _szReal$7[ebp]
  002e6	ff 15 00 00 00
	00		 call	 DWORD PTR __imp_??1?$CStringT@DV?$StrTraitMFC_DLL@DV?$ChTraitsCRT@D@ATL@@@@@ATL@@QAE@XZ
  002ec	8d 4d b8	 lea	 ecx, DWORD PTR _szType$4[ebp]
  002ef	ff 15 00 00 00
	00		 call	 DWORD PTR __imp_??1?$CStringT@DV?$StrTraitMFC_DLL@DV?$ChTraitsCRT@D@ATL@@@@@ATL@@QAE@XZ
  002f5	8d 4d b4	 lea	 ecx, DWORD PTR _szLength$3[ebp]
  002f8	ff 15 00 00 00
	00		 call	 DWORD PTR __imp_??1?$CStringT@DV?$StrTraitMFC_DLL@DV?$ChTraitsCRT@D@ATL@@@@@ATL@@QAE@XZ
  002fe	8d 4d b0	 lea	 ecx, DWORD PTR _szField$2[ebp]
  00301	ff 15 00 00 00
	00		 call	 DWORD PTR __imp_??1?$CStringT@DV?$StrTraitMFC_DLL@DV?$ChTraitsCRT@D@ATL@@@@@ATL@@QAE@XZ
  00307	8d 4d e8	 lea	 ecx, DWORD PTR _szpacket$15[ebp]
  0030a	ff 15 00 00 00
	00		 call	 DWORD PTR __imp_??1?$CStringT@DV?$StrTraitMFC_DLL@DV?$ChTraitsCRT@D@ATL@@@@@ATL@@QAE@XZ
  00310	8d 4d 0c	 lea	 ecx, DWORD PTR _szItemData$17[ebp]
  00313	c6 45 fc 02	 mov	 BYTE PTR __$EHRec$[ebp+8], 2
  00317	ff 15 00 00 00
	00		 call	 DWORD PTR __imp_??1?$CStringT@DV?$StrTraitMFC_DLL@DV?$ChTraitsCRT@D@ATL@@@@@ATL@@QAE@XZ
  0031d	83 eb 01	 sub	 ebx, 1
  00320	0f 85 ca fd ff
	ff		 jne	 $LL4@GetUseReal
$LN3@GetUseReal:

; 97   : 	return strResult;

  00326	8b 4d 08	 mov	 ecx, DWORD PTR ___$ReturnUdt$[ebp]
  00329	8d 45 e4	 lea	 eax, DWORD PTR _strResult$[ebp]
  0032c	50		 push	 eax
  0032d	ff 15 00 00 00
	00		 call	 DWORD PTR __imp_??0?$CStringT@DV?$StrTraitMFC_DLL@DV?$ChTraitsCRT@D@ATL@@@@@ATL@@QAE@ABV01@@Z
  00333	8d 4d e4	 lea	 ecx, DWORD PTR _strResult$[ebp]
  00336	ff 15 00 00 00
	00		 call	 DWORD PTR __imp_??1?$CStringT@DV?$StrTraitMFC_DLL@DV?$ChTraitsCRT@D@ATL@@@@@ATL@@QAE@XZ
  0033c	8d 4d f0	 lea	 ecx, DWORD PTR __szData$[ebp]
  0033f	ff 15 00 00 00
	00		 call	 DWORD PTR __imp_??1?$CStringT@DV?$StrTraitMFC_DLL@DV?$ChTraitsCRT@D@ATL@@@@@ATL@@QAE@XZ
$LN58@GetUseReal:

; 98   : }

  00345	8b 45 08	 mov	 eax, DWORD PTR ___$ReturnUdt$[ebp]
  00348	8b 4d f4	 mov	 ecx, DWORD PTR __$EHRec$[ebp]
  0034b	64 89 0d 00 00
	00 00		 mov	 DWORD PTR fs:0, ecx
  00352	59		 pop	 ecx
  00353	5f		 pop	 edi
  00354	5e		 pop	 esi
  00355	5b		 pop	 ebx
  00356	8b e5		 mov	 esp, ebp
  00358	5d		 pop	 ebp
  00359	c2 08 00	 ret	 8
_TEXT	ENDS
;	COMDAT text$x
text$x	SEGMENT
__unwindfunclet$?GetUseRealPacketItems@CDataOfPacketPage@@QAE?AV?$CStringT@DV?$StrTraitMFC_DLL@DV?$ChTraitsCRT@D@ATL@@@@@ATL@@ABV23@@Z$1:
  00000	8d 4d f0	 lea	 ecx, DWORD PTR __szData$[ebp]
  00003	ff 25 00 00 00
	00		 jmp	 DWORD PTR __imp_??1?$CStringT@DV?$StrTraitMFC_DLL@DV?$ChTraitsCRT@D@ATL@@@@@ATL@@QAE@XZ
__unwindfunclet$?GetUseRealPacketItems@CDataOfPacketPage@@QAE?AV?$CStringT@DV?$StrTraitMFC_DLL@DV?$ChTraitsCRT@D@ATL@@@@@ATL@@ABV23@@Z$2:
  00009	8d 4d 0c	 lea	 ecx, DWORD PTR $T19[ebp]
  0000c	ff 25 00 00 00
	00		 jmp	 DWORD PTR __imp_??1?$CStringT@DV?$StrTraitMFC_DLL@DV?$ChTraitsCRT@D@ATL@@@@@ATL@@QAE@XZ
__unwindfunclet$?GetUseRealPacketItems@CDataOfPacketPage@@QAE?AV?$CStringT@DV?$StrTraitMFC_DLL@DV?$ChTraitsCRT@D@ATL@@@@@ATL@@ABV23@@Z$3:
  00012	8d 4d e4	 lea	 ecx, DWORD PTR _strResult$[ebp]
  00015	ff 25 00 00 00
	00		 jmp	 DWORD PTR __imp_??1?$CStringT@DV?$StrTraitMFC_DLL@DV?$ChTraitsCRT@D@ATL@@@@@ATL@@QAE@XZ
__unwindfunclet$?GetUseRealPacketItems@CDataOfPacketPage@@QAE?AV?$CStringT@DV?$StrTraitMFC_DLL@DV?$ChTraitsCRT@D@ATL@@@@@ATL@@ABV23@@Z$4:
  0001b	8d 4d 0c	 lea	 ecx, DWORD PTR $T18[ebp]
  0001e	ff 25 00 00 00
	00		 jmp	 DWORD PTR __imp_??1?$CStringT@DV?$StrTraitMFC_DLL@DV?$ChTraitsCRT@D@ATL@@@@@ATL@@QAE@XZ
__unwindfunclet$?GetUseRealPacketItems@CDataOfPacketPage@@QAE?AV?$CStringT@DV?$StrTraitMFC_DLL@DV?$ChTraitsCRT@D@ATL@@@@@ATL@@ABV23@@Z$5:
  00024	8d 4d e0	 lea	 ecx, DWORD PTR $T14[ebp]
  00027	ff 25 00 00 00
	00		 jmp	 DWORD PTR __imp_??1?$CStringT@DV?$StrTraitMFC_DLL@DV?$ChTraitsCRT@D@ATL@@@@@ATL@@QAE@XZ
__unwindfunclet$?GetUseRealPacketItems@CDataOfPacketPage@@QAE?AV?$CStringT@DV?$StrTraitMFC_DLL@DV?$ChTraitsCRT@D@ATL@@@@@ATL@@ABV23@@Z$6:
  0002d	8d 4d 0c	 lea	 ecx, DWORD PTR _szItemData$17[ebp]
  00030	ff 25 00 00 00
	00		 jmp	 DWORD PTR __imp_??1?$CStringT@DV?$StrTraitMFC_DLL@DV?$ChTraitsCRT@D@ATL@@@@@ATL@@QAE@XZ
__unwindfunclet$?GetUseRealPacketItems@CDataOfPacketPage@@QAE?AV?$CStringT@DV?$StrTraitMFC_DLL@DV?$ChTraitsCRT@D@ATL@@@@@ATL@@ABV23@@Z$7:
  00036	8d 4d dc	 lea	 ecx, DWORD PTR $T13[ebp]
  00039	ff 25 00 00 00
	00		 jmp	 DWORD PTR __imp_??1?$CStringT@DV?$StrTraitMFC_DLL@DV?$ChTraitsCRT@D@ATL@@@@@ATL@@QAE@XZ
__unwindfunclet$?GetUseRealPacketItems@CDataOfPacketPage@@QAE?AV?$CStringT@DV?$StrTraitMFC_DLL@DV?$ChTraitsCRT@D@ATL@@@@@ATL@@ABV23@@Z$9:
  0003f	8d 4d d8	 lea	 ecx, DWORD PTR $T12[ebp]
  00042	ff 25 00 00 00
	00		 jmp	 DWORD PTR __imp_??1?$CStringT@DV?$StrTraitMFC_DLL@DV?$ChTraitsCRT@D@ATL@@@@@ATL@@QAE@XZ
__unwindfunclet$?GetUseRealPacketItems@CDataOfPacketPage@@QAE?AV?$CStringT@DV?$StrTraitMFC_DLL@DV?$ChTraitsCRT@D@ATL@@@@@ATL@@ABV23@@Z$10:
  00048	8d 4d e8	 lea	 ecx, DWORD PTR _szpacket$15[ebp]
  0004b	ff 25 00 00 00
	00		 jmp	 DWORD PTR __imp_??1?$CStringT@DV?$StrTraitMFC_DLL@DV?$ChTraitsCRT@D@ATL@@@@@ATL@@QAE@XZ
__unwindfunclet$?GetUseRealPacketItems@CDataOfPacketPage@@QAE?AV?$CStringT@DV?$StrTraitMFC_DLL@DV?$ChTraitsCRT@D@ATL@@@@@ATL@@ABV23@@Z$11:
  00051	8d 4d d4	 lea	 ecx, DWORD PTR $T11[ebp]
  00054	ff 25 00 00 00
	00		 jmp	 DWORD PTR __imp_??1?$CStringT@DV?$StrTraitMFC_DLL@DV?$ChTraitsCRT@D@ATL@@@@@ATL@@QAE@XZ
__unwindfunclet$?GetUseRealPacketItems@CDataOfPacketPage@@QAE?AV?$CStringT@DV?$StrTraitMFC_DLL@DV?$ChTraitsCRT@D@ATL@@@@@ATL@@ABV23@@Z$12:
  0005a	8d 4d b0	 lea	 ecx, DWORD PTR _szField$2[ebp]
  0005d	ff 25 00 00 00
	00		 jmp	 DWORD PTR __imp_??1?$CStringT@DV?$StrTraitMFC_DLL@DV?$ChTraitsCRT@D@ATL@@@@@ATL@@QAE@XZ
__unwindfunclet$?GetUseRealPacketItems@CDataOfPacketPage@@QAE?AV?$CStringT@DV?$StrTraitMFC_DLL@DV?$ChTraitsCRT@D@ATL@@@@@ATL@@ABV23@@Z$13:
  00063	8d 4d d0	 lea	 ecx, DWORD PTR $T10[ebp]
  00066	ff 25 00 00 00
	00		 jmp	 DWORD PTR __imp_??1?$CStringT@DV?$StrTraitMFC_DLL@DV?$ChTraitsCRT@D@ATL@@@@@ATL@@QAE@XZ
__unwindfunclet$?GetUseRealPacketItems@CDataOfPacketPage@@QAE?AV?$CStringT@DV?$StrTraitMFC_DLL@DV?$ChTraitsCRT@D@ATL@@@@@ATL@@ABV23@@Z$14:
  0006c	8d 4d b4	 lea	 ecx, DWORD PTR _szLength$3[ebp]
  0006f	ff 25 00 00 00
	00		 jmp	 DWORD PTR __imp_??1?$CStringT@DV?$StrTraitMFC_DLL@DV?$ChTraitsCRT@D@ATL@@@@@ATL@@QAE@XZ
__unwindfunclet$?GetUseRealPacketItems@CDataOfPacketPage@@QAE?AV?$CStringT@DV?$StrTraitMFC_DLL@DV?$ChTraitsCRT@D@ATL@@@@@ATL@@ABV23@@Z$15:
  00075	8d 4d cc	 lea	 ecx, DWORD PTR $T9[ebp]
  00078	ff 25 00 00 00
	00		 jmp	 DWORD PTR __imp_??1?$CStringT@DV?$StrTraitMFC_DLL@DV?$ChTraitsCRT@D@ATL@@@@@ATL@@QAE@XZ
__unwindfunclet$?GetUseRealPacketItems@CDataOfPacketPage@@QAE?AV?$CStringT@DV?$StrTraitMFC_DLL@DV?$ChTraitsCRT@D@ATL@@@@@ATL@@ABV23@@Z$16:
  0007e	8d 4d b8	 lea	 ecx, DWORD PTR _szType$4[ebp]
  00081	ff 25 00 00 00
	00		 jmp	 DWORD PTR __imp_??1?$CStringT@DV?$StrTraitMFC_DLL@DV?$ChTraitsCRT@D@ATL@@@@@ATL@@QAE@XZ
__unwindfunclet$?GetUseRealPacketItems@CDataOfPacketPage@@QAE?AV?$CStringT@DV?$StrTraitMFC_DLL@DV?$ChTraitsCRT@D@ATL@@@@@ATL@@ABV23@@Z$17:
  00087	8d 4d c8	 lea	 ecx, DWORD PTR $T8[ebp]
  0008a	ff 25 00 00 00
	00		 jmp	 DWORD PTR __imp_??1?$CStringT@DV?$StrTraitMFC_DLL@DV?$ChTraitsCRT@D@ATL@@@@@ATL@@QAE@XZ
__unwindfunclet$?GetUseRealPacketItems@CDataOfPacketPage@@QAE?AV?$CStringT@DV?$StrTraitMFC_DLL@DV?$ChTraitsCRT@D@ATL@@@@@ATL@@ABV23@@Z$18:
  00090	8d 4d c4	 lea	 ecx, DWORD PTR _szReal$7[ebp]
  00093	ff 25 00 00 00
	00		 jmp	 DWORD PTR __imp_??1?$CStringT@DV?$StrTraitMFC_DLL@DV?$ChTraitsCRT@D@ATL@@@@@ATL@@QAE@XZ
__unwindfunclet$?GetUseRealPacketItems@CDataOfPacketPage@@QAE?AV?$CStringT@DV?$StrTraitMFC_DLL@DV?$ChTraitsCRT@D@ATL@@@@@ATL@@ABV23@@Z$20:
  00099	8b 45 bc	 mov	 eax, DWORD PTR $T5[ebp]
  0009c	83 e0 02	 and	 eax, 2
  0009f	0f 84 0d 00 00
	00		 je	 $LN43@GetUseReal
  000a5	83 65 bc fd	 and	 DWORD PTR $T5[ebp], -3	; fffffffdH
  000a9	8d 4d ec	 lea	 ecx, DWORD PTR $T16[ebp]
  000ac	ff 25 00 00 00
	00		 jmp	 DWORD PTR __imp_??1?$CStringT@DV?$StrTraitMFC_DLL@DV?$ChTraitsCRT@D@ATL@@@@@ATL@@QAE@XZ
$LN43@GetUseReal:
  000b2	c3		 ret	 0
  000b3	cc		 int	 3
  000b4	cc		 int	 3
  000b5	cc		 int	 3
  000b6	cc		 int	 3
  000b7	cc		 int	 3
__ehhandler$?GetUseRealPacketItems@CDataOfPacketPage@@QAE?AV?$CStringT@DV?$StrTraitMFC_DLL@DV?$ChTraitsCRT@D@ATL@@@@@ATL@@ABV23@@Z:
  000b8	90		 npad	 1
  000b9	90		 npad	 1
  000ba	8b 54 24 08	 mov	 edx, DWORD PTR [esp+8]
  000be	8d 42 0c	 lea	 eax, DWORD PTR [edx+12]
  000c1	8b 4a ac	 mov	 ecx, DWORD PTR [edx-84]
  000c4	33 c8		 xor	 ecx, eax
  000c6	e8 00 00 00 00	 call	 @__security_check_cookie@4
  000cb	b8 00 00 00 00	 mov	 eax, OFFSET __ehfuncinfo$?GetUseRealPacketItems@CDataOfPacketPage@@QAE?AV?$CStringT@DV?$StrTraitMFC_DLL@DV?$ChTraitsCRT@D@ATL@@@@@ATL@@ABV23@@Z
  000d0	e9 00 00 00 00	 jmp	 ___CxxFrameHandler3
text$x	ENDS
?GetUseRealPacketItems@CDataOfPacketPage@@QAE?AV?$CStringT@DV?$StrTraitMFC_DLL@DV?$ChTraitsCRT@D@ATL@@@@@ATL@@ABV23@@Z ENDP ; CDataOfPacketPage::GetUseRealPacketItems
; Function compile flags: /Ogtp
; File D:\git\src\IBK\IBK_DRFN\ProjSrc\SrcChartEx\ChartAddIn\ChartDesignPropertyAddIn\ChartDesignPropertyAddIn\DataOfPacketPage.cpp
;	COMDAT ??1CDataOfPacketPage@@UAE@XZ
_TEXT	SEGMENT
??1CDataOfPacketPage@@UAE@XZ PROC			; CDataOfPacketPage::~CDataOfPacketPage, COMDAT
; _this$ = ecx

; 29   : {

  00000	56		 push	 esi
  00001	8b f1		 mov	 esi, ecx

; 30   : 
; 31   : }

  00003	8d 4e 08	 lea	 ecx, DWORD PTR [esi+8]
  00006	c7 06 00 00 00
	00		 mov	 DWORD PTR [esi], OFFSET ??_7CDataOfPacketPage@@6B@
  0000c	ff 15 00 00 00
	00		 call	 DWORD PTR __imp_??1?$CStringT@DV?$StrTraitMFC_DLL@DV?$ChTraitsCRT@D@ATL@@@@@ATL@@QAE@XZ
  00012	8d 4e 04	 lea	 ecx, DWORD PTR [esi+4]
  00015	5e		 pop	 esi
  00016	ff 25 00 00 00
	00		 jmp	 DWORD PTR __imp_??1?$CStringT@DV?$StrTraitMFC_DLL@DV?$ChTraitsCRT@D@ATL@@@@@ATL@@QAE@XZ
??1CDataOfPacketPage@@UAE@XZ ENDP			; CDataOfPacketPage::~CDataOfPacketPage
_TEXT	ENDS
; Function compile flags: /Ogtp
; File D:\git\src\IBK\IBK_DRFN\ProjSrc\SrcChartEx\ChartAddIn\ChartDesignPropertyAddIn\ChartDesignPropertyAddIn\DataOfPacketPage.cpp
;	COMDAT ??0CDataOfPacketPage@@QAE@XZ
_TEXT	SEGMENT
_this$ = -4						; size = 4
??0CDataOfPacketPage@@QAE@XZ PROC			; CDataOfPacketPage::CDataOfPacketPage, COMDAT
; _this$ = ecx

; 24   : {

  00000	55		 push	 ebp
  00001	8b ec		 mov	 ebp, esp
  00003	51		 push	 ecx
  00004	56		 push	 esi
  00005	8b f1		 mov	 esi, ecx
  00007	89 75 fc	 mov	 DWORD PTR _this$[ebp], esi
  0000a	8d 4e 04	 lea	 ecx, DWORD PTR [esi+4]
  0000d	c7 06 00 00 00
	00		 mov	 DWORD PTR [esi], OFFSET ??_7CDataOfPacketPage@@6B@
  00013	ff 15 00 00 00
	00		 call	 DWORD PTR __imp_??0?$CStringT@DV?$StrTraitMFC_DLL@DV?$ChTraitsCRT@D@ATL@@@@@ATL@@QAE@XZ
  00019	8d 4e 08	 lea	 ecx, DWORD PTR [esi+8]
  0001c	ff 15 00 00 00
	00		 call	 DWORD PTR __imp_??0?$CStringT@DV?$StrTraitMFC_DLL@DV?$ChTraitsCRT@D@ATL@@@@@ATL@@QAE@XZ

; 25   : 
; 26   : }

  00022	8b c6		 mov	 eax, esi
  00024	5e		 pop	 esi
  00025	8b e5		 mov	 esp, ebp
  00027	5d		 pop	 ebp
  00028	c3		 ret	 0
??0CDataOfPacketPage@@QAE@XZ ENDP			; CDataOfPacketPage::CDataOfPacketPage
_TEXT	ENDS
; Function compile flags: /Ogtp
; File D:\git\src\IBK\IBK_DRFN\ProjSrc\SrcChartEx\ChartAddIn\ChartDesignPropertyAddIn\ChartDesignPropertyAddIn\DataOfPacketPage.cpp
; File C:\Program Files (x86)\Microsoft Visual Studio\2019\Community\VC\Tools\MSVC\14.29.30133\atlmfc\include\atlsimpstr.h
; File D:\git\src\IBK\IBK_DRFN\ProjSrc\SrcChartEx\ChartAddIn\ChartDesignPropertyAddIn\ChartDesignPropertyAddIn\DataOfPacketPage.cpp
; File C:\Program Files (x86)\Microsoft Visual Studio\2019\Community\VC\Tools\MSVC\14.29.30133\atlmfc\include\cstringt.h
; File D:\git\src\IBK\IBK_DRFN\ProjSrc\SrcChartEx\ChartAddIn\ChartDesignPropertyAddIn\ChartDesignPropertyAddIn\DataOfPacketPage.cpp
; File C:\Program Files (x86)\Microsoft Visual Studio\2019\Community\VC\Tools\MSVC\14.29.30133\atlmfc\include\cstringt.h
; File D:\git\src\IBK\IBK_DRFN\ProjSrc\SrcChartEx\ChartAddIn\ChartDesignPropertyAddIn\ChartDesignPropertyAddIn\DataOfPacketPage.cpp
; File C:\Program Files (x86)\Microsoft Visual Studio\2019\Community\VC\Tools\MSVC\14.29.30133\atlmfc\include\cstringt.h
; File D:\git\src\IBK\IBK_DRFN\ProjSrc\SrcChartEx\ChartAddIn\ChartDesignPropertyAddIn\ChartDesignPropertyAddIn\DataOfPacketPage.cpp
; File C:\Program Files (x86)\Microsoft Visual Studio\2019\Community\VC\Tools\MSVC\14.29.30133\atlmfc\include\cstringt.h
; File D:\git\src\IBK\IBK_DRFN\ProjSrc\SrcChartEx\ChartAddIn\ChartDesignPropertyAddIn\ChartDesignPropertyAddIn\DataOfPacketPage.cpp
; File C:\Program Files (x86)\Microsoft Visual Studio\2019\Community\VC\Tools\MSVC\14.29.30133\atlmfc\include\cstringt.h
; File C:\Program Files (x86)\Microsoft Visual Studio\2019\Community\VC\Tools\MSVC\14.29.30133\atlmfc\include\atlsimpstr.h
; File C:\Program Files (x86)\Microsoft Visual Studio\2019\Community\VC\Tools\MSVC\14.29.30133\atlmfc\include\cstringt.h
; File D:\git\src\IBK\IBK_DRFN\ProjSrc\SrcChartEx\ChartAddIn\ChartDesignPropertyAddIn\ChartDesignPropertyAddIn\DataOfPacketPage.cpp
;	COMDAT ?Init@CDataOfPacketPage@@QAEXABV?$CStringT@DV?$StrTraitMFC_DLL@DV?$ChTraitsCRT@D@ATL@@@@@ATL@@PAVCPacketSuperGrid@@@Z
_TEXT	SEGMENT
$T2 = -92						; size = 4
$T3 = -88						; size = 4
_szpacket$4 = -84					; size = 4
_szField$5 = -80					; size = 4
_szLength$6 = -76					; size = 4
_szType$7 = -72						; size = 4
_szReal$8 = -68						; size = 4
$T9 = -64						; size = 4
$T10 = -60						; size = 4
$T11 = -56						; size = 4
$T12 = -52						; size = 4
$T13 = -48						; size = 4
$T14 = -44						; size = 4
$T15 = -40						; size = 4
$T16 = -36						; size = 4
$T17 = -32						; size = 4
_nCheck$1$ = -28					; size = 4
$T18 = -24						; size = 4
$T19 = -20						; size = 4
__szData$ = -16						; size = 4
__$EHRec$ = -12						; size = 12
_szItemData$20 = 8					; size = 4
$T21 = 8						; size = 4
$T22 = 8						; size = 4
_strReceiveDataFromOcx$ = 8				; size = 4
_PacketList$ = 12					; size = 4
?Init@CDataOfPacketPage@@QAEXABV?$CStringT@DV?$StrTraitMFC_DLL@DV?$ChTraitsCRT@D@ATL@@@@@ATL@@PAVCPacketSuperGrid@@@Z PROC ; CDataOfPacketPage::Init, COMDAT
; _this$ = ecx

; 101  : {

  00000	55		 push	 ebp
  00001	8b ec		 mov	 ebp, esp
  00003	6a ff		 push	 -1
  00005	68 00 00 00 00	 push	 __ehhandler$?Init@CDataOfPacketPage@@QAEXABV?$CStringT@DV?$StrTraitMFC_DLL@DV?$ChTraitsCRT@D@ATL@@@@@ATL@@PAVCPacketSuperGrid@@@Z
  0000a	64 a1 00 00 00
	00		 mov	 eax, DWORD PTR fs:0
  00010	50		 push	 eax
  00011	83 ec 50	 sub	 esp, 80			; 00000050H
  00014	53		 push	 ebx
  00015	56		 push	 esi
  00016	57		 push	 edi
  00017	a1 00 00 00 00	 mov	 eax, DWORD PTR ___security_cookie
  0001c	33 c5		 xor	 eax, ebp
  0001e	50		 push	 eax
  0001f	8d 45 f4	 lea	 eax, DWORD PTR __$EHRec$[ebp]
  00022	64 a3 00 00 00
	00		 mov	 DWORD PTR fs:0, eax
  00028	8b d9		 mov	 ebx, ecx
  0002a	33 ff		 xor	 edi, edi
  0002c	89 7d a4	 mov	 DWORD PTR $T2[ebp], edi
; File C:\Program Files (x86)\Microsoft Visual Studio\2019\Community\VC\Tools\MSVC\14.29.30133\atlmfc\include\atlsimpstr.h

; 519  : 		return( GetData()->nDataLength );

  0002f	8b 4d 08	 mov	 ecx, DWORD PTR _strReceiveDataFromOcx$[ebp]
  00032	8b 01		 mov	 eax, DWORD PTR [ecx]

; 533  : 		return( GetLength() == 0 );

  00034	39 78 f4	 cmp	 DWORD PTR [eax-12], edi
; File D:\git\src\IBK\IBK_DRFN\ProjSrc\SrcChartEx\ChartAddIn\ChartDesignPropertyAddIn\ChartDesignPropertyAddIn\DataOfPacketPage.cpp

; 102  : 	if(strReceiveDataFromOcx.IsEmpty())

  00037	0f 84 92 03 00
	00		 je	 $LN1@Init

; 103  : 		return ;
; 104  : 
; 105  : 	CString _szData = strReceiveDataFromOcx;

  0003d	51		 push	 ecx
  0003e	8d 4d f0	 lea	 ecx, DWORD PTR __szData$[ebp]
  00041	ff 15 00 00 00
	00		 call	 DWORD PTR __imp_??0?$CStringT@DV?$StrTraitMFC_DLL@DV?$ChTraitsCRT@D@ATL@@@@@ATL@@QAE@ABV01@@Z

; 106  : 	if(_szData.Right(2) != "\r\n") _szData += "\r\n";

  00047	6a 02		 push	 2
  00049	8d 45 08	 lea	 eax, DWORD PTR $T22[ebp]
  0004c	89 7d fc	 mov	 DWORD PTR __$EHRec$[ebp+8], edi
  0004f	50		 push	 eax
  00050	8d 4d f0	 lea	 ecx, DWORD PTR __szData$[ebp]
  00053	ff 15 00 00 00
	00		 call	 DWORD PTR __imp_?Right@?$CStringT@DV?$StrTraitMFC_DLL@DV?$ChTraitsCRT@D@ATL@@@@@ATL@@QBE?AV12@H@Z
; File C:\Program Files (x86)\Microsoft Visual Studio\2019\Community\VC\Tools\MSVC\14.29.30133\atlmfc\include\cstringt.h

; 2567 : 		return( str1.Compare( psz2 ) != 0 );

  00059	68 00 00 00 00	 push	 OFFSET ??_C@_02PCIJFNDE@?$AN?6@
  0005e	8b c8		 mov	 ecx, eax
; File D:\git\src\IBK\IBK_DRFN\ProjSrc\SrcChartEx\ChartAddIn\ChartDesignPropertyAddIn\ChartDesignPropertyAddIn\DataOfPacketPage.cpp

; 106  : 	if(_szData.Right(2) != "\r\n") _szData += "\r\n";

  00060	c6 45 fc 01	 mov	 BYTE PTR __$EHRec$[ebp+8], 1
; File C:\Program Files (x86)\Microsoft Visual Studio\2019\Community\VC\Tools\MSVC\14.29.30133\atlmfc\include\cstringt.h

; 2567 : 		return( str1.Compare( psz2 ) != 0 );

  00064	ff 15 00 00 00
	00		 call	 DWORD PTR __imp_?Compare@?$CStringT@DV?$StrTraitMFC_DLL@DV?$ChTraitsCRT@D@ATL@@@@@ATL@@QBEHPBD@Z
; File D:\git\src\IBK\IBK_DRFN\ProjSrc\SrcChartEx\ChartAddIn\ChartDesignPropertyAddIn\ChartDesignPropertyAddIn\DataOfPacketPage.cpp

; 106  : 	if(_szData.Right(2) != "\r\n") _szData += "\r\n";

  0006a	8d 4d 08	 lea	 ecx, DWORD PTR $T22[ebp]
  0006d	c6 45 fc 00	 mov	 BYTE PTR __$EHRec$[ebp+8], 0
; File C:\Program Files (x86)\Microsoft Visual Studio\2019\Community\VC\Tools\MSVC\14.29.30133\atlmfc\include\cstringt.h

; 2567 : 		return( str1.Compare( psz2 ) != 0 );

  00071	8b f0		 mov	 esi, eax
; File D:\git\src\IBK\IBK_DRFN\ProjSrc\SrcChartEx\ChartAddIn\ChartDesignPropertyAddIn\ChartDesignPropertyAddIn\DataOfPacketPage.cpp

; 106  : 	if(_szData.Right(2) != "\r\n") _szData += "\r\n";

  00073	ff 15 00 00 00
	00		 call	 DWORD PTR __imp_??1?$CStringT@DV?$StrTraitMFC_DLL@DV?$ChTraitsCRT@D@ATL@@@@@ATL@@QAE@XZ
  00079	85 f6		 test	 esi, esi
  0007b	74 0e		 je	 SHORT $LN6@Init
  0007d	68 00 00 00 00	 push	 OFFSET ??_C@_02PCIJFNDE@?$AN?6@
  00082	8d 4d f0	 lea	 ecx, DWORD PTR __szData$[ebp]
  00085	ff 15 00 00 00
	00		 call	 DWORD PTR __imp_??Y?$CStringT@DV?$StrTraitMFC_DLL@DV?$ChTraitsCRT@D@ATL@@@@@ATL@@QAEAAV01@PBD@Z
$LN6@Init:

; 107  : 
; 108  : 	int nCount = CDataConversion::GetStringDataCount(_szData, "\r\n");

  0008b	68 00 00 00 00	 push	 OFFSET ??_C@_02PCIJFNDE@?$AN?6@
  00090	8d 4d 08	 lea	 ecx, DWORD PTR $T21[ebp]
  00093	ff 15 00 00 00
	00		 call	 DWORD PTR __imp_??0?$CStringT@DV?$StrTraitMFC_DLL@DV?$ChTraitsCRT@D@ATL@@@@@ATL@@QAE@PBD@Z
  00099	8d 45 08	 lea	 eax, DWORD PTR $T21[ebp]
  0009c	c6 45 fc 02	 mov	 BYTE PTR __$EHRec$[ebp+8], 2
  000a0	50		 push	 eax
  000a1	8d 45 f0	 lea	 eax, DWORD PTR __szData$[ebp]
  000a4	50		 push	 eax
  000a5	e8 00 00 00 00	 call	 ?GetStringDataCount@CDataConversion@@SAHABV?$CStringT@DV?$StrTraitMFC_DLL@DV?$ChTraitsCRT@D@ATL@@@@@ATL@@0@Z ; CDataConversion::GetStringDataCount
  000aa	83 c4 08	 add	 esp, 8
  000ad	c6 45 fc 00	 mov	 BYTE PTR __$EHRec$[ebp+8], 0
  000b1	8d 4d 08	 lea	 ecx, DWORD PTR $T21[ebp]
  000b4	8b f0		 mov	 esi, eax
  000b6	ff 15 00 00 00
	00		 call	 DWORD PTR __imp_??1?$CStringT@DV?$StrTraitMFC_DLL@DV?$ChTraitsCRT@D@ATL@@@@@ATL@@QAE@XZ

; 109  : 	for(int i =0 ; i< nCount; i++)

  000bc	85 f6		 test	 esi, esi
  000be	0f 8e 02 03 00
	00		 jle	 $LN3@Init
  000c4	0f 1f 40 00 0f
	1f 84 00 00 00
	00 00		 npad	 12
$LL4@Init:

; 110  : 	{
; 111  : 		CString szItemData = CDataConversion::GetStringData(_szData, "\r\n");

  000d0	68 00 00 00 00	 push	 OFFSET ??_C@_02PCIJFNDE@?$AN?6@
  000d5	8d 4d dc	 lea	 ecx, DWORD PTR $T16[ebp]
  000d8	ff 15 00 00 00
	00		 call	 DWORD PTR __imp_??0?$CStringT@DV?$StrTraitMFC_DLL@DV?$ChTraitsCRT@D@ATL@@@@@ATL@@QAE@PBD@Z
  000de	6a 01		 push	 1
  000e0	8d 45 dc	 lea	 eax, DWORD PTR $T16[ebp]
  000e3	c6 45 fc 03	 mov	 BYTE PTR __$EHRec$[ebp+8], 3
  000e7	50		 push	 eax
  000e8	8d 45 f0	 lea	 eax, DWORD PTR __szData$[ebp]
  000eb	50		 push	 eax
  000ec	8d 45 08	 lea	 eax, DWORD PTR _szItemData$20[ebp]
  000ef	50		 push	 eax
  000f0	e8 00 00 00 00	 call	 ?GetStringData@CDataConversion@@SA?AV?$CStringT@DV?$StrTraitMFC_DLL@DV?$ChTraitsCRT@D@ATL@@@@@ATL@@AAV23@ABV23@_N@Z ; CDataConversion::GetStringData
  000f5	83 c4 10	 add	 esp, 16			; 00000010H
  000f8	8d 4d dc	 lea	 ecx, DWORD PTR $T16[ebp]
  000fb	c6 45 fc 05	 mov	 BYTE PTR __$EHRec$[ebp+8], 5
  000ff	ff 15 00 00 00
	00		 call	 DWORD PTR __imp_??1?$CStringT@DV?$StrTraitMFC_DLL@DV?$ChTraitsCRT@D@ATL@@@@@ATL@@QAE@XZ

; 112  : 		int nCheck = atoi(CDataConversion::GetStringData(szItemData, ";"));

  00105	68 00 00 00 00	 push	 OFFSET ??_C@_01ICJEACDI@?$DL@
  0010a	8d 4d d8	 lea	 ecx, DWORD PTR $T15[ebp]
  0010d	ff 15 00 00 00
	00		 call	 DWORD PTR __imp_??0?$CStringT@DV?$StrTraitMFC_DLL@DV?$ChTraitsCRT@D@ATL@@@@@ATL@@QAE@PBD@Z
  00113	6a 01		 push	 1
  00115	8d 45 d8	 lea	 eax, DWORD PTR $T15[ebp]
  00118	c6 45 fc 06	 mov	 BYTE PTR __$EHRec$[ebp+8], 6
  0011c	50		 push	 eax
  0011d	8d 45 08	 lea	 eax, DWORD PTR _szItemData$20[ebp]
  00120	50		 push	 eax
  00121	8d 45 a8	 lea	 eax, DWORD PTR $T3[ebp]
  00124	50		 push	 eax
  00125	e8 00 00 00 00	 call	 ?GetStringData@CDataConversion@@SA?AV?$CStringT@DV?$StrTraitMFC_DLL@DV?$ChTraitsCRT@D@ATL@@@@@ATL@@AAV23@ABV23@_N@Z ; CDataConversion::GetStringData
  0012a	ff 30		 push	 DWORD PTR [eax]
  0012c	ff 15 00 00 00
	00		 call	 DWORD PTR __imp__atoi
  00132	83 c4 14	 add	 esp, 20			; 00000014H
  00135	89 45 e4	 mov	 DWORD PTR _nCheck$1$[ebp], eax
  00138	8d 4d a8	 lea	 ecx, DWORD PTR $T3[ebp]
  0013b	ff 15 00 00 00
	00		 call	 DWORD PTR __imp_??1?$CStringT@DV?$StrTraitMFC_DLL@DV?$ChTraitsCRT@D@ATL@@@@@ATL@@QAE@XZ
  00141	8d 4d d8	 lea	 ecx, DWORD PTR $T15[ebp]
  00144	c6 45 fc 05	 mov	 BYTE PTR __$EHRec$[ebp+8], 5
  00148	ff 15 00 00 00
	00		 call	 DWORD PTR __imp_??1?$CStringT@DV?$StrTraitMFC_DLL@DV?$ChTraitsCRT@D@ATL@@@@@ATL@@QAE@XZ

; 113  : 		CString szpacket = CDataConversion::GetStringData(szItemData, ";");

  0014e	68 00 00 00 00	 push	 OFFSET ??_C@_01ICJEACDI@?$DL@
  00153	8d 4d d4	 lea	 ecx, DWORD PTR $T14[ebp]
  00156	ff 15 00 00 00
	00		 call	 DWORD PTR __imp_??0?$CStringT@DV?$StrTraitMFC_DLL@DV?$ChTraitsCRT@D@ATL@@@@@ATL@@QAE@PBD@Z
  0015c	6a 01		 push	 1
  0015e	8d 45 d4	 lea	 eax, DWORD PTR $T14[ebp]
  00161	c6 45 fc 07	 mov	 BYTE PTR __$EHRec$[ebp+8], 7
  00165	50		 push	 eax
  00166	8d 45 08	 lea	 eax, DWORD PTR _szItemData$20[ebp]
  00169	50		 push	 eax
  0016a	8d 45 ac	 lea	 eax, DWORD PTR _szpacket$4[ebp]
  0016d	50		 push	 eax
  0016e	e8 00 00 00 00	 call	 ?GetStringData@CDataConversion@@SA?AV?$CStringT@DV?$StrTraitMFC_DLL@DV?$ChTraitsCRT@D@ATL@@@@@ATL@@AAV23@ABV23@_N@Z ; CDataConversion::GetStringData
  00173	83 c4 10	 add	 esp, 16			; 00000010H
  00176	8d 4d d4	 lea	 ecx, DWORD PTR $T14[ebp]
  00179	c6 45 fc 09	 mov	 BYTE PTR __$EHRec$[ebp+8], 9
  0017d	ff 15 00 00 00
	00		 call	 DWORD PTR __imp_??1?$CStringT@DV?$StrTraitMFC_DLL@DV?$ChTraitsCRT@D@ATL@@@@@ATL@@QAE@XZ

; 114  : 		CString szField = CDataConversion::GetStringData(szItemData, ";");

  00183	68 00 00 00 00	 push	 OFFSET ??_C@_01ICJEACDI@?$DL@
  00188	8d 4d d0	 lea	 ecx, DWORD PTR $T13[ebp]
  0018b	ff 15 00 00 00
	00		 call	 DWORD PTR __imp_??0?$CStringT@DV?$StrTraitMFC_DLL@DV?$ChTraitsCRT@D@ATL@@@@@ATL@@QAE@PBD@Z
  00191	6a 01		 push	 1
  00193	8d 45 d0	 lea	 eax, DWORD PTR $T13[ebp]
  00196	c6 45 fc 0a	 mov	 BYTE PTR __$EHRec$[ebp+8], 10 ; 0000000aH
  0019a	50		 push	 eax
  0019b	8d 45 08	 lea	 eax, DWORD PTR _szItemData$20[ebp]
  0019e	50		 push	 eax
  0019f	8d 45 b0	 lea	 eax, DWORD PTR _szField$5[ebp]
  001a2	50		 push	 eax
  001a3	e8 00 00 00 00	 call	 ?GetStringData@CDataConversion@@SA?AV?$CStringT@DV?$StrTraitMFC_DLL@DV?$ChTraitsCRT@D@ATL@@@@@ATL@@AAV23@ABV23@_N@Z ; CDataConversion::GetStringData
  001a8	83 c4 10	 add	 esp, 16			; 00000010H
  001ab	8d 4d d0	 lea	 ecx, DWORD PTR $T13[ebp]
  001ae	c6 45 fc 0c	 mov	 BYTE PTR __$EHRec$[ebp+8], 12 ; 0000000cH
  001b2	ff 15 00 00 00
	00		 call	 DWORD PTR __imp_??1?$CStringT@DV?$StrTraitMFC_DLL@DV?$ChTraitsCRT@D@ATL@@@@@ATL@@QAE@XZ

; 115  : 		CString szLength = CDataConversion::GetStringData(szItemData, ";");

  001b8	68 00 00 00 00	 push	 OFFSET ??_C@_01ICJEACDI@?$DL@
  001bd	8d 4d cc	 lea	 ecx, DWORD PTR $T12[ebp]
  001c0	ff 15 00 00 00
	00		 call	 DWORD PTR __imp_??0?$CStringT@DV?$StrTraitMFC_DLL@DV?$ChTraitsCRT@D@ATL@@@@@ATL@@QAE@PBD@Z
  001c6	6a 01		 push	 1
  001c8	8d 45 cc	 lea	 eax, DWORD PTR $T12[ebp]
  001cb	c6 45 fc 0d	 mov	 BYTE PTR __$EHRec$[ebp+8], 13 ; 0000000dH
  001cf	50		 push	 eax
  001d0	8d 45 08	 lea	 eax, DWORD PTR _szItemData$20[ebp]
  001d3	50		 push	 eax
  001d4	8d 45 b4	 lea	 eax, DWORD PTR _szLength$6[ebp]
  001d7	50		 push	 eax
  001d8	e8 00 00 00 00	 call	 ?GetStringData@CDataConversion@@SA?AV?$CStringT@DV?$StrTraitMFC_DLL@DV?$ChTraitsCRT@D@ATL@@@@@ATL@@AAV23@ABV23@_N@Z ; CDataConversion::GetStringData
  001dd	83 c4 10	 add	 esp, 16			; 00000010H
  001e0	8d 4d cc	 lea	 ecx, DWORD PTR $T12[ebp]
  001e3	c6 45 fc 0f	 mov	 BYTE PTR __$EHRec$[ebp+8], 15 ; 0000000fH
  001e7	ff 15 00 00 00
	00		 call	 DWORD PTR __imp_??1?$CStringT@DV?$StrTraitMFC_DLL@DV?$ChTraitsCRT@D@ATL@@@@@ATL@@QAE@XZ

; 116  : 		CString szType = CDataConversion::GetStringData(szItemData, ";");

  001ed	68 00 00 00 00	 push	 OFFSET ??_C@_01ICJEACDI@?$DL@
  001f2	8d 4d c8	 lea	 ecx, DWORD PTR $T11[ebp]
  001f5	ff 15 00 00 00
	00		 call	 DWORD PTR __imp_??0?$CStringT@DV?$StrTraitMFC_DLL@DV?$ChTraitsCRT@D@ATL@@@@@ATL@@QAE@PBD@Z
  001fb	6a 01		 push	 1
  001fd	8d 45 c8	 lea	 eax, DWORD PTR $T11[ebp]
  00200	c6 45 fc 10	 mov	 BYTE PTR __$EHRec$[ebp+8], 16 ; 00000010H
  00204	50		 push	 eax
  00205	8d 45 08	 lea	 eax, DWORD PTR _szItemData$20[ebp]
  00208	50		 push	 eax
  00209	8d 45 b8	 lea	 eax, DWORD PTR _szType$7[ebp]
  0020c	50		 push	 eax
  0020d	e8 00 00 00 00	 call	 ?GetStringData@CDataConversion@@SA?AV?$CStringT@DV?$StrTraitMFC_DLL@DV?$ChTraitsCRT@D@ATL@@@@@ATL@@AAV23@ABV23@_N@Z ; CDataConversion::GetStringData
  00212	83 c4 10	 add	 esp, 16			; 00000010H
  00215	8d 4d c8	 lea	 ecx, DWORD PTR $T11[ebp]
  00218	c6 45 fc 12	 mov	 BYTE PTR __$EHRec$[ebp+8], 18 ; 00000012H
  0021c	ff 15 00 00 00
	00		 call	 DWORD PTR __imp_??1?$CStringT@DV?$StrTraitMFC_DLL@DV?$ChTraitsCRT@D@ATL@@@@@ATL@@QAE@XZ

; 117  : 		CString szReal = CDataConversion::GetStringData(szItemData, ";");

  00222	68 00 00 00 00	 push	 OFFSET ??_C@_01ICJEACDI@?$DL@
  00227	8d 4d c4	 lea	 ecx, DWORD PTR $T10[ebp]
  0022a	ff 15 00 00 00
	00		 call	 DWORD PTR __imp_??0?$CStringT@DV?$StrTraitMFC_DLL@DV?$ChTraitsCRT@D@ATL@@@@@ATL@@QAE@PBD@Z
  00230	6a 01		 push	 1
  00232	8d 45 c4	 lea	 eax, DWORD PTR $T10[ebp]
  00235	c6 45 fc 13	 mov	 BYTE PTR __$EHRec$[ebp+8], 19 ; 00000013H
  00239	50		 push	 eax
  0023a	8d 45 08	 lea	 eax, DWORD PTR _szItemData$20[ebp]
  0023d	50		 push	 eax
  0023e	8d 45 bc	 lea	 eax, DWORD PTR _szReal$8[ebp]
  00241	50		 push	 eax
  00242	e8 00 00 00 00	 call	 ?GetStringData@CDataConversion@@SA?AV?$CStringT@DV?$StrTraitMFC_DLL@DV?$ChTraitsCRT@D@ATL@@@@@ATL@@AAV23@ABV23@_N@Z ; CDataConversion::GetStringData
  00247	83 c4 10	 add	 esp, 16			; 00000010H
  0024a	8d 4d c4	 lea	 ecx, DWORD PTR $T10[ebp]
  0024d	c6 45 fc 15	 mov	 BYTE PTR __$EHRec$[ebp+8], 21 ; 00000015H
  00251	ff 15 00 00 00
	00		 call	 DWORD PTR __imp_??1?$CStringT@DV?$StrTraitMFC_DLL@DV?$ChTraitsCRT@D@ATL@@@@@ATL@@QAE@XZ

; 118  : 		AddData(nCheck, _MTOL0( szpacket), szField, szLength, _MTOL6( szType), _MTOL6( szReal), PacketList);	

  00257	6a 00		 push	 0
  00259	ff 75 bc	 push	 DWORD PTR _szReal$8[ebp]
  0025c	b9 00 00 00 00	 mov	 ecx, OFFSET ?g_iMetaTable@@3VIMetaTable@@A ; g_iMetaTable
  00261	6a 06		 push	 6
  00263	ff 73 0c	 push	 DWORD PTR [ebx+12]
  00266	e8 00 00 00 00	 call	 ?GetLanguageText@IMetaTable@@QAEPBDPAUHWND__@@W4E_CODEPAGE@1@PBDH@Z ; IMetaTable::GetLanguageText
  0026b	50		 push	 eax
  0026c	8d 4d e0	 lea	 ecx, DWORD PTR $T17[ebp]
  0026f	ff 15 00 00 00
	00		 call	 DWORD PTR __imp_??0?$CStringT@DV?$StrTraitMFC_DLL@DV?$ChTraitsCRT@D@ATL@@@@@ATL@@QAE@PBD@Z
  00275	6a 00		 push	 0
  00277	ff 75 b8	 push	 DWORD PTR _szType$7[ebp]
  0027a	b9 00 00 00 00	 mov	 ecx, OFFSET ?g_iMetaTable@@3VIMetaTable@@A ; g_iMetaTable
  0027f	c6 45 fc 16	 mov	 BYTE PTR __$EHRec$[ebp+8], 22 ; 00000016H
  00283	6a 06		 push	 6
  00285	ff 73 0c	 push	 DWORD PTR [ebx+12]
  00288	e8 00 00 00 00	 call	 ?GetLanguageText@IMetaTable@@QAEPBDPAUHWND__@@W4E_CODEPAGE@1@PBDH@Z ; IMetaTable::GetLanguageText
  0028d	50		 push	 eax
  0028e	8d 4d c0	 lea	 ecx, DWORD PTR $T9[ebp]
  00291	ff 15 00 00 00
	00		 call	 DWORD PTR __imp_??0?$CStringT@DV?$StrTraitMFC_DLL@DV?$ChTraitsCRT@D@ATL@@@@@ATL@@QAE@PBD@Z
  00297	6a 00		 push	 0
  00299	ff 75 ac	 push	 DWORD PTR _szpacket$4[ebp]
  0029c	c6 45 fc 17	 mov	 BYTE PTR __$EHRec$[ebp+8], 23 ; 00000017H
  002a0	6a 00		 push	 0
  002a2	ff 73 0c	 push	 DWORD PTR [ebx+12]
  002a5	b9 00 00 00 00	 mov	 ecx, OFFSET ?g_iMetaTable@@3VIMetaTable@@A ; g_iMetaTable
  002aa	e8 00 00 00 00	 call	 ?GetLanguageText@IMetaTable@@QAEPBDPAUHWND__@@W4E_CODEPAGE@1@PBDH@Z ; IMetaTable::GetLanguageText
  002af	50		 push	 eax
  002b0	8d 4d ec	 lea	 ecx, DWORD PTR $T19[ebp]
  002b3	ff 15 00 00 00
	00		 call	 DWORD PTR __imp_??0?$CStringT@DV?$StrTraitMFC_DLL@DV?$ChTraitsCRT@D@ATL@@@@@ATL@@QAE@PBD@Z

; 37   : 	if(nCheck == 1 && szReal.Compare( _LTEXT6( C6_YES)) == 0) 

  002b9	8b 45 e4	 mov	 eax, DWORD PTR _nCheck$1$[ebp]

; 118  : 		AddData(nCheck, _MTOL0( szpacket), szField, szLength, _MTOL6( szType), _MTOL6( szReal), PacketList);	

  002bc	c6 45 fc 18	 mov	 BYTE PTR __$EHRec$[ebp+8], 24 ; 00000018H

; 37   : 	if(nCheck == 1 && szReal.Compare( _LTEXT6( C6_YES)) == 0) 

  002c0	83 f8 01	 cmp	 eax, 1
  002c3	0f 85 82 00 00
	00		 jne	 $LN45@Init
  002c9	a1 54 00 00 00	 mov	 eax, DWORD PTR ?g_iMetaTable@@3VIMetaTable@@A+84
  002ce	b9 00 00 00 00	 mov	 ecx, OFFSET ?g_iMetaTable@@3VIMetaTable@@A ; g_iMetaTable
  002d3	6a 00		 push	 0
  002d5	ff b0 64 09 00
	00		 push	 DWORD PTR [eax+2404]
  002db	6a 06		 push	 6
  002dd	ff 73 0c	 push	 DWORD PTR [ebx+12]
  002e0	e8 00 00 00 00	 call	 ?GetLanguageText@IMetaTable@@QAEPBDPAUHWND__@@W4E_CODEPAGE@1@PBDH@Z ; IMetaTable::GetLanguageText
  002e5	50		 push	 eax
  002e6	8d 4d e0	 lea	 ecx, DWORD PTR $T17[ebp]
  002e9	ff 15 00 00 00
	00		 call	 DWORD PTR __imp_?Compare@?$CStringT@DV?$StrTraitMFC_DLL@DV?$ChTraitsCRT@D@ATL@@@@@ATL@@QBEHPBD@Z
  002ef	85 c0		 test	 eax, eax
  002f1	75 55		 jne	 SHORT $LN65@Init
; File C:\Program Files (x86)\Microsoft Visual Studio\2019\Community\VC\Tools\MSVC\14.29.30133\atlmfc\include\cstringt.h

; 2401 : 		CStringT strResult( str1.GetManager() );

  002f3	8d 4d ec	 lea	 ecx, DWORD PTR $T19[ebp]
; File D:\git\src\IBK\IBK_DRFN\ProjSrc\SrcChartEx\ChartAddIn\ChartDesignPropertyAddIn\ChartDesignPropertyAddIn\DataOfPacketPage.cpp

; 38   : 		m_strOldRealPacketCount += szpacket + ";";

  002f6	c6 45 fc 19	 mov	 BYTE PTR __$EHRec$[ebp+8], 25 ; 00000019H
; File C:\Program Files (x86)\Microsoft Visual Studio\2019\Community\VC\Tools\MSVC\14.29.30133\atlmfc\include\cstringt.h

; 2401 : 		CStringT strResult( str1.GetManager() );

  002fa	ff 15 00 00 00
	00		 call	 DWORD PTR __imp_?GetManager@?$CStringT@DV?$StrTraitMFC_DLL@DV?$ChTraitsCRT@D@ATL@@@@@ATL@@QBEPAUIAtlStringMgr@2@XZ
  00300	50		 push	 eax
  00301	8d 4d e8	 lea	 ecx, DWORD PTR $T18[ebp]
  00304	ff 15 00 00 00
	00		 call	 DWORD PTR __imp_??0?$CStringT@DV?$StrTraitMFC_DLL@DV?$ChTraitsCRT@D@ATL@@@@@ATL@@QAE@PAUIAtlStringMgr@1@@Z
; File C:\Program Files (x86)\Microsoft Visual Studio\2019\Community\VC\Tools\MSVC\14.29.30133\atlmfc\include\atlsimpstr.h

; 519  : 		return( GetData()->nDataLength );

  0030a	8b 45 ec	 mov	 eax, DWORD PTR $T19[ebp]
; File C:\Program Files (x86)\Microsoft Visual Studio\2019\Community\VC\Tools\MSVC\14.29.30133\atlmfc\include\cstringt.h

; 2405 : 		return( strResult );

  0030d	83 cf 01	 or	 edi, 1
  00310	6a 01		 push	 1
  00312	68 00 00 00 00	 push	 OFFSET ??_C@_01ICJEACDI@?$DL@
  00317	89 7d a4	 mov	 DWORD PTR $T2[ebp], edi
  0031a	ff 70 f4	 push	 DWORD PTR [eax-12]
  0031d	50		 push	 eax
  0031e	8d 45 e8	 lea	 eax, DWORD PTR $T18[ebp]
  00321	50		 push	 eax
  00322	ff 15 00 00 00
	00		 call	 DWORD PTR __imp_?Concatenate@?$CSimpleStringT@D$00@ATL@@KAXAAV12@PBDH1H@Z
  00328	83 c4 14	 add	 esp, 20			; 00000014H
; File D:\git\src\IBK\IBK_DRFN\ProjSrc\SrcChartEx\ChartAddIn\ChartDesignPropertyAddIn\ChartDesignPropertyAddIn\DataOfPacketPage.cpp

; 38   : 		m_strOldRealPacketCount += szpacket + ";";

  0032b	8d 45 e8	 lea	 eax, DWORD PTR $T18[ebp]
  0032e	8d 4b 04	 lea	 ecx, DWORD PTR [ebx+4]
  00331	50		 push	 eax
  00332	ff 15 00 00 00
	00		 call	 DWORD PTR __imp_??Y?$CStringT@DV?$StrTraitMFC_DLL@DV?$ChTraitsCRT@D@ATL@@@@@ATL@@QAEAAV01@ABV?$CSimpleStringT@D$00@1@@Z
  00338	8d 4d e8	 lea	 ecx, DWORD PTR $T18[ebp]
  0033b	c6 45 fc 18	 mov	 BYTE PTR __$EHRec$[ebp+8], 24 ; 00000018H
  0033f	83 e7 fe	 and	 edi, -2			; fffffffeH
  00342	ff 15 00 00 00
	00		 call	 DWORD PTR __imp_??1?$CStringT@DV?$StrTraitMFC_DLL@DV?$ChTraitsCRT@D@ATL@@@@@ATL@@QAE@XZ
$LN65@Init:

; 39   : 
; 40   : 	PacketList->AddItem(nCheck, szpacket, szField, szLength, szType, szReal);

  00348	8b 45 e4	 mov	 eax, DWORD PTR _nCheck$1$[ebp]
$LN45@Init:
  0034b	8d 4d e0	 lea	 ecx, DWORD PTR $T17[ebp]
  0034e	51		 push	 ecx
  0034f	8d 4d c0	 lea	 ecx, DWORD PTR $T9[ebp]
  00352	51		 push	 ecx
  00353	8d 4d b4	 lea	 ecx, DWORD PTR _szLength$6[ebp]
  00356	51		 push	 ecx
  00357	8d 4d b0	 lea	 ecx, DWORD PTR _szField$5[ebp]
  0035a	51		 push	 ecx
  0035b	8d 4d ec	 lea	 ecx, DWORD PTR $T19[ebp]
  0035e	51		 push	 ecx
  0035f	8b 4d 0c	 mov	 ecx, DWORD PTR _PacketList$[ebp]
  00362	50		 push	 eax
  00363	e8 00 00 00 00	 call	 ?AddItem@CPacketSuperGrid@@QAEXHABV?$CStringT@DV?$StrTraitMFC_DLL@DV?$ChTraitsCRT@D@ATL@@@@@ATL@@0000@Z ; CPacketSuperGrid::AddItem

; 118  : 		AddData(nCheck, _MTOL0( szpacket), szField, szLength, _MTOL6( szType), _MTOL6( szReal), PacketList);	

  00368	8d 4d ec	 lea	 ecx, DWORD PTR $T19[ebp]
  0036b	ff 15 00 00 00
	00		 call	 DWORD PTR __imp_??1?$CStringT@DV?$StrTraitMFC_DLL@DV?$ChTraitsCRT@D@ATL@@@@@ATL@@QAE@XZ
  00371	8d 4d c0	 lea	 ecx, DWORD PTR $T9[ebp]
  00374	ff 15 00 00 00
	00		 call	 DWORD PTR __imp_??1?$CStringT@DV?$StrTraitMFC_DLL@DV?$ChTraitsCRT@D@ATL@@@@@ATL@@QAE@XZ
  0037a	8d 4d e0	 lea	 ecx, DWORD PTR $T17[ebp]
  0037d	ff 15 00 00 00
	00		 call	 DWORD PTR __imp_??1?$CStringT@DV?$StrTraitMFC_DLL@DV?$ChTraitsCRT@D@ATL@@@@@ATL@@QAE@XZ

; 119  : 	}

  00383	8d 4d bc	 lea	 ecx, DWORD PTR _szReal$8[ebp]
  00386	ff 15 00 00 00
	00		 call	 DWORD PTR __imp_??1?$CStringT@DV?$StrTraitMFC_DLL@DV?$ChTraitsCRT@D@ATL@@@@@ATL@@QAE@XZ
  0038c	8d 4d b8	 lea	 ecx, DWORD PTR _szType$7[ebp]
  0038f	ff 15 00 00 00
	00		 call	 DWORD PTR __imp_??1?$CStringT@DV?$StrTraitMFC_DLL@DV?$ChTraitsCRT@D@ATL@@@@@ATL@@QAE@XZ
  00395	8d 4d b4	 lea	 ecx, DWORD PTR _szLength$6[ebp]
  00398	ff 15 00 00 00
	00		 call	 DWORD PTR __imp_??1?$CStringT@DV?$StrTraitMFC_DLL@DV?$ChTraitsCRT@D@ATL@@@@@ATL@@QAE@XZ
  0039e	8d 4d b0	 lea	 ecx, DWORD PTR _szField$5[ebp]
  003a1	ff 15 00 00 00
	00		 call	 DWORD PTR __imp_??1?$CStringT@DV?$StrTraitMFC_DLL@DV?$ChTraitsCRT@D@ATL@@@@@ATL@@QAE@XZ
  003a7	8d 4d ac	 lea	 ecx, DWORD PTR _szpacket$4[ebp]
  003aa	ff 15 00 00 00
	00		 call	 DWORD PTR __imp_??1?$CStringT@DV?$StrTraitMFC_DLL@DV?$ChTraitsCRT@D@ATL@@@@@ATL@@QAE@XZ
  003b0	8d 4d 08	 lea	 ecx, DWORD PTR _szItemData$20[ebp]
  003b3	c6 45 fc 00	 mov	 BYTE PTR __$EHRec$[ebp+8], 0
  003b7	ff 15 00 00 00
	00		 call	 DWORD PTR __imp_??1?$CStringT@DV?$StrTraitMFC_DLL@DV?$ChTraitsCRT@D@ATL@@@@@ATL@@QAE@XZ
  003bd	83 ee 01	 sub	 esi, 1
  003c0	0f 85 0a fd ff
	ff		 jne	 $LL4@Init
$LN3@Init:

; 120  : }

  003c6	8d 4d f0	 lea	 ecx, DWORD PTR __szData$[ebp]
  003c9	ff 15 00 00 00
	00		 call	 DWORD PTR __imp_??1?$CStringT@DV?$StrTraitMFC_DLL@DV?$ChTraitsCRT@D@ATL@@@@@ATL@@QAE@XZ
$LN1@Init:
  003cf	8b 4d f4	 mov	 ecx, DWORD PTR __$EHRec$[ebp]
  003d2	64 89 0d 00 00
	00 00		 mov	 DWORD PTR fs:0, ecx
  003d9	59		 pop	 ecx
  003da	5f		 pop	 edi
  003db	5e		 pop	 esi
  003dc	5b		 pop	 ebx
  003dd	8b e5		 mov	 esp, ebp
  003df	5d		 pop	 ebp
  003e0	c2 08 00	 ret	 8
_TEXT	ENDS
;	COMDAT text$x
text$x	SEGMENT
__unwindfunclet$?Init@CDataOfPacketPage@@QAEXABV?$CStringT@DV?$StrTraitMFC_DLL@DV?$ChTraitsCRT@D@ATL@@@@@ATL@@PAVCPacketSuperGrid@@@Z$0:
  00000	8d 4d f0	 lea	 ecx, DWORD PTR __szData$[ebp]
  00003	ff 25 00 00 00
	00		 jmp	 DWORD PTR __imp_??1?$CStringT@DV?$StrTraitMFC_DLL@DV?$ChTraitsCRT@D@ATL@@@@@ATL@@QAE@XZ
__unwindfunclet$?Init@CDataOfPacketPage@@QAEXABV?$CStringT@DV?$StrTraitMFC_DLL@DV?$ChTraitsCRT@D@ATL@@@@@ATL@@PAVCPacketSuperGrid@@@Z$1:
  00009	8d 4d 08	 lea	 ecx, DWORD PTR $T22[ebp]
  0000c	ff 25 00 00 00
	00		 jmp	 DWORD PTR __imp_??1?$CStringT@DV?$StrTraitMFC_DLL@DV?$ChTraitsCRT@D@ATL@@@@@ATL@@QAE@XZ
__unwindfunclet$?Init@CDataOfPacketPage@@QAEXABV?$CStringT@DV?$StrTraitMFC_DLL@DV?$ChTraitsCRT@D@ATL@@@@@ATL@@PAVCPacketSuperGrid@@@Z$2:
  00012	8d 4d 08	 lea	 ecx, DWORD PTR $T21[ebp]
  00015	ff 25 00 00 00
	00		 jmp	 DWORD PTR __imp_??1?$CStringT@DV?$StrTraitMFC_DLL@DV?$ChTraitsCRT@D@ATL@@@@@ATL@@QAE@XZ
__unwindfunclet$?Init@CDataOfPacketPage@@QAEXABV?$CStringT@DV?$StrTraitMFC_DLL@DV?$ChTraitsCRT@D@ATL@@@@@ATL@@PAVCPacketSuperGrid@@@Z$3:
  0001b	8d 4d dc	 lea	 ecx, DWORD PTR $T16[ebp]
  0001e	ff 25 00 00 00
	00		 jmp	 DWORD PTR __imp_??1?$CStringT@DV?$StrTraitMFC_DLL@DV?$ChTraitsCRT@D@ATL@@@@@ATL@@QAE@XZ
__unwindfunclet$?Init@CDataOfPacketPage@@QAEXABV?$CStringT@DV?$StrTraitMFC_DLL@DV?$ChTraitsCRT@D@ATL@@@@@ATL@@PAVCPacketSuperGrid@@@Z$4:
  00024	8d 4d 08	 lea	 ecx, DWORD PTR _szItemData$20[ebp]
  00027	ff 25 00 00 00
	00		 jmp	 DWORD PTR __imp_??1?$CStringT@DV?$StrTraitMFC_DLL@DV?$ChTraitsCRT@D@ATL@@@@@ATL@@QAE@XZ
__unwindfunclet$?Init@CDataOfPacketPage@@QAEXABV?$CStringT@DV?$StrTraitMFC_DLL@DV?$ChTraitsCRT@D@ATL@@@@@ATL@@PAVCPacketSuperGrid@@@Z$5:
  0002d	8d 4d d8	 lea	 ecx, DWORD PTR $T15[ebp]
  00030	ff 25 00 00 00
	00		 jmp	 DWORD PTR __imp_??1?$CStringT@DV?$StrTraitMFC_DLL@DV?$ChTraitsCRT@D@ATL@@@@@ATL@@QAE@XZ
__unwindfunclet$?Init@CDataOfPacketPage@@QAEXABV?$CStringT@DV?$StrTraitMFC_DLL@DV?$ChTraitsCRT@D@ATL@@@@@ATL@@PAVCPacketSuperGrid@@@Z$7:
  00036	8d 4d d4	 lea	 ecx, DWORD PTR $T14[ebp]
  00039	ff 25 00 00 00
	00		 jmp	 DWORD PTR __imp_??1?$CStringT@DV?$StrTraitMFC_DLL@DV?$ChTraitsCRT@D@ATL@@@@@ATL@@QAE@XZ
__unwindfunclet$?Init@CDataOfPacketPage@@QAEXABV?$CStringT@DV?$StrTraitMFC_DLL@DV?$ChTraitsCRT@D@ATL@@@@@ATL@@PAVCPacketSuperGrid@@@Z$8:
  0003f	8d 4d ac	 lea	 ecx, DWORD PTR _szpacket$4[ebp]
  00042	ff 25 00 00 00
	00		 jmp	 DWORD PTR __imp_??1?$CStringT@DV?$StrTraitMFC_DLL@DV?$ChTraitsCRT@D@ATL@@@@@ATL@@QAE@XZ
__unwindfunclet$?Init@CDataOfPacketPage@@QAEXABV?$CStringT@DV?$StrTraitMFC_DLL@DV?$ChTraitsCRT@D@ATL@@@@@ATL@@PAVCPacketSuperGrid@@@Z$9:
  00048	8d 4d d0	 lea	 ecx, DWORD PTR $T13[ebp]
  0004b	ff 25 00 00 00
	00		 jmp	 DWORD PTR __imp_??1?$CStringT@DV?$StrTraitMFC_DLL@DV?$ChTraitsCRT@D@ATL@@@@@ATL@@QAE@XZ
__unwindfunclet$?Init@CDataOfPacketPage@@QAEXABV?$CStringT@DV?$StrTraitMFC_DLL@DV?$ChTraitsCRT@D@ATL@@@@@ATL@@PAVCPacketSuperGrid@@@Z$10:
  00051	8d 4d b0	 lea	 ecx, DWORD PTR _szField$5[ebp]
  00054	ff 25 00 00 00
	00		 jmp	 DWORD PTR __imp_??1?$CStringT@DV?$StrTraitMFC_DLL@DV?$ChTraitsCRT@D@ATL@@@@@ATL@@QAE@XZ
__unwindfunclet$?Init@CDataOfPacketPage@@QAEXABV?$CStringT@DV?$StrTraitMFC_DLL@DV?$ChTraitsCRT@D@ATL@@@@@ATL@@PAVCPacketSuperGrid@@@Z$11:
  0005a	8d 4d cc	 lea	 ecx, DWORD PTR $T12[ebp]
  0005d	ff 25 00 00 00
	00		 jmp	 DWORD PTR __imp_??1?$CStringT@DV?$StrTraitMFC_DLL@DV?$ChTraitsCRT@D@ATL@@@@@ATL@@QAE@XZ
__unwindfunclet$?Init@CDataOfPacketPage@@QAEXABV?$CStringT@DV?$StrTraitMFC_DLL@DV?$ChTraitsCRT@D@ATL@@@@@ATL@@PAVCPacketSuperGrid@@@Z$12:
  00063	8d 4d b4	 lea	 ecx, DWORD PTR _szLength$6[ebp]
  00066	ff 25 00 00 00
	00		 jmp	 DWORD PTR __imp_??1?$CStringT@DV?$StrTraitMFC_DLL@DV?$ChTraitsCRT@D@ATL@@@@@ATL@@QAE@XZ
__unwindfunclet$?Init@CDataOfPacketPage@@QAEXABV?$CStringT@DV?$StrTraitMFC_DLL@DV?$ChTraitsCRT@D@ATL@@@@@ATL@@PAVCPacketSuperGrid@@@Z$13:
  0006c	8d 4d c8	 lea	 ecx, DWORD PTR $T11[ebp]
  0006f	ff 25 00 00 00
	00		 jmp	 DWORD PTR __imp_??1?$CStringT@DV?$StrTraitMFC_DLL@DV?$ChTraitsCRT@D@ATL@@@@@ATL@@QAE@XZ
__unwindfunclet$?Init@CDataOfPacketPage@@QAEXABV?$CStringT@DV?$StrTraitMFC_DLL@DV?$ChTraitsCRT@D@ATL@@@@@ATL@@PAVCPacketSuperGrid@@@Z$14:
  00075	8d 4d b8	 lea	 ecx, DWORD PTR _szType$7[ebp]
  00078	ff 25 00 00 00
	00		 jmp	 DWORD PTR __imp_??1?$CStringT@DV?$StrTraitMFC_DLL@DV?$ChTraitsCRT@D@ATL@@@@@ATL@@QAE@XZ
__unwindfunclet$?Init@CDataOfPacketPage@@QAEXABV?$CStringT@DV?$StrTraitMFC_DLL@DV?$ChTraitsCRT@D@ATL@@@@@ATL@@PAVCPacketSuperGrid@@@Z$15:
  0007e	8d 4d c4	 lea	 ecx, DWORD PTR $T10[ebp]
  00081	ff 25 00 00 00
	00		 jmp	 DWORD PTR __imp_??1?$CStringT@DV?$StrTraitMFC_DLL@DV?$ChTraitsCRT@D@ATL@@@@@ATL@@QAE@XZ
__unwindfunclet$?Init@CDataOfPacketPage@@QAEXABV?$CStringT@DV?$StrTraitMFC_DLL@DV?$ChTraitsCRT@D@ATL@@@@@ATL@@PAVCPacketSuperGrid@@@Z$16:
  00087	8d 4d bc	 lea	 ecx, DWORD PTR _szReal$8[ebp]
  0008a	ff 25 00 00 00
	00		 jmp	 DWORD PTR __imp_??1?$CStringT@DV?$StrTraitMFC_DLL@DV?$ChTraitsCRT@D@ATL@@@@@ATL@@QAE@XZ
__unwindfunclet$?Init@CDataOfPacketPage@@QAEXABV?$CStringT@DV?$StrTraitMFC_DLL@DV?$ChTraitsCRT@D@ATL@@@@@ATL@@PAVCPacketSuperGrid@@@Z$17:
  00090	8d 4d e0	 lea	 ecx, DWORD PTR $T17[ebp]
  00093	ff 25 00 00 00
	00		 jmp	 DWORD PTR __imp_??1?$CStringT@DV?$StrTraitMFC_DLL@DV?$ChTraitsCRT@D@ATL@@@@@ATL@@QAE@XZ
__unwindfunclet$?Init@CDataOfPacketPage@@QAEXABV?$CStringT@DV?$StrTraitMFC_DLL@DV?$ChTraitsCRT@D@ATL@@@@@ATL@@PAVCPacketSuperGrid@@@Z$18:
  00099	8d 4d c0	 lea	 ecx, DWORD PTR $T9[ebp]
  0009c	ff 25 00 00 00
	00		 jmp	 DWORD PTR __imp_??1?$CStringT@DV?$StrTraitMFC_DLL@DV?$ChTraitsCRT@D@ATL@@@@@ATL@@QAE@XZ
__unwindfunclet$?Init@CDataOfPacketPage@@QAEXABV?$CStringT@DV?$StrTraitMFC_DLL@DV?$ChTraitsCRT@D@ATL@@@@@ATL@@PAVCPacketSuperGrid@@@Z$19:
  000a2	8d 4d ec	 lea	 ecx, DWORD PTR $T19[ebp]
  000a5	ff 25 00 00 00
	00		 jmp	 DWORD PTR __imp_??1?$CStringT@DV?$StrTraitMFC_DLL@DV?$ChTraitsCRT@D@ATL@@@@@ATL@@QAE@XZ
__unwindfunclet$?Init@CDataOfPacketPage@@QAEXABV?$CStringT@DV?$StrTraitMFC_DLL@DV?$ChTraitsCRT@D@ATL@@@@@ATL@@PAVCPacketSuperGrid@@@Z$21:
  000ab	8b 45 a4	 mov	 eax, DWORD PTR $T2[ebp]
  000ae	83 e0 01	 and	 eax, 1
  000b1	0f 84 0d 00 00
	00		 je	 $LN51@Init
  000b7	83 65 a4 fe	 and	 DWORD PTR $T2[ebp], -2	; fffffffeH
  000bb	8d 4d e8	 lea	 ecx, DWORD PTR $T18[ebp]
  000be	ff 25 00 00 00
	00		 jmp	 DWORD PTR __imp_??1?$CStringT@DV?$StrTraitMFC_DLL@DV?$ChTraitsCRT@D@ATL@@@@@ATL@@QAE@XZ
$LN51@Init:
  000c4	c3		 ret	 0
  000c5	cc		 int	 3
  000c6	cc		 int	 3
  000c7	cc		 int	 3
  000c8	cc		 int	 3
  000c9	cc		 int	 3
__ehhandler$?Init@CDataOfPacketPage@@QAEXABV?$CStringT@DV?$StrTraitMFC_DLL@DV?$ChTraitsCRT@D@ATL@@@@@ATL@@PAVCPacketSuperGrid@@@Z:
  000ca	90		 npad	 1
  000cb	90		 npad	 1
  000cc	8b 54 24 08	 mov	 edx, DWORD PTR [esp+8]
  000d0	8d 42 0c	 lea	 eax, DWORD PTR [edx+12]
  000d3	8b 4a a0	 mov	 ecx, DWORD PTR [edx-96]
  000d6	33 c8		 xor	 ecx, eax
  000d8	e8 00 00 00 00	 call	 @__security_check_cookie@4
  000dd	b8 00 00 00 00	 mov	 eax, OFFSET __ehfuncinfo$?Init@CDataOfPacketPage@@QAEXABV?$CStringT@DV?$StrTraitMFC_DLL@DV?$ChTraitsCRT@D@ATL@@@@@ATL@@PAVCPacketSuperGrid@@@Z
  000e2	e9 00 00 00 00	 jmp	 ___CxxFrameHandler3
text$x	ENDS
?Init@CDataOfPacketPage@@QAEXABV?$CStringT@DV?$StrTraitMFC_DLL@DV?$ChTraitsCRT@D@ATL@@@@@ATL@@PAVCPacketSuperGrid@@@Z ENDP ; CDataOfPacketPage::Init
; Function compile flags: /Ogtp
; File D:\git\src\IBK\IBK_DRFN\ProjSrc\SrcChartEx\ChartAddIn\ChartDesignPropertyAddIn\ChartDesignPropertyAddIn\DataOfPacketPage.cpp
;	COMDAT ?__empty_global_delete@@YAXPAXI@Z
_TEXT	SEGMENT
___formal$ = 8						; size = 4
___formal$ = 12						; size = 4
?__empty_global_delete@@YAXPAXI@Z PROC			; __empty_global_delete, COMDAT

  00000	c2 00 00	 ret	 0
?__empty_global_delete@@YAXPAXI@Z ENDP			; __empty_global_delete
_TEXT	ENDS
; Function compile flags: /Ogtp
; File D:\git\src\IBK\IBK_DRFN\ProjSrc\SrcChartEx\ChartAddIn\ChartDesignPropertyAddIn\ChartDesignPropertyAddIn\DataOfPacketPage.cpp
;	COMDAT ?__empty_global_delete@@YAXPAX@Z
_TEXT	SEGMENT
___formal$ = 8						; size = 4
?__empty_global_delete@@YAXPAX@Z PROC			; __empty_global_delete, COMDAT

  00000	c2 00 00	 ret	 0
?__empty_global_delete@@YAXPAX@Z ENDP			; __empty_global_delete
_TEXT	ENDS
END
