; Listing generated by Microsoft (R) Optimizing Compiler Version 19.29.30145.0 

	TITLE	D:\git\src\IBK\IBK_DRFN\#DRfn-CS\_Obj\ChartDesignPropertyAddIn\DataOfChartListPage.obj
	.686P
	.XMM
	include listing.inc
	.model	flat

INCLUDELIB MSVCRT
INCLUDELIB OLDNAMES

PUBLIC	?__empty_global_delete@@YAXPAX@Z		; __empty_global_delete
PUBLIC	?__empty_global_delete@@YAXPAXI@Z		; __empty_global_delete
PUBLIC	?GetBlockandGraphAllData@CDataOfChartListPage@@QAE?AV?$CStringT@DV?$StrTraitMFC_DLL@DV?$ChTraitsCRT@D@ATL@@@@@ATL@@PAVCChartLink@@@Z ; CDataOfChartListPage::GetBlockandGraphAllData
PUBLIC	?SetData@CDataOfChartListPage@@QAEXABV?$CStringT@DV?$StrTraitMFC_DLL@DV?$ChTraitsCRT@D@ATL@@@@@ATL@@PAUIGraphInfoManager134661@@@Z ; CDataOfChartListPage::SetData
PUBLIC	??0CDataOfChartListPage@@QAE@HHPAVCMyTreeCtrl@@PAUHWND__@@@Z ; CDataOfChartListPage::CDataOfChartListPage
PUBLIC	??0CDataOfChartListPage@@QAE@PAUHWND__@@@Z	; CDataOfChartListPage::CDataOfChartListPage
PUBLIC	??1CDataOfChartListPage@@UAE@XZ			; CDataOfChartListPage::~CDataOfChartListPage
PUBLIC	?GetGraphTypeWhenNoTypeInfo@CDataOfChartListPage@@AAE?AV?$CStringT@DV?$StrTraitMFC_DLL@DV?$ChTraitsCRT@D@ATL@@@@@ATL@@H@Z ; CDataOfChartListPage::GetGraphTypeWhenNoTypeInfo
PUBLIC	?GetGraphType@CDataOfChartListPage@@AAE?AV?$CStringT@DV?$StrTraitMFC_DLL@DV?$ChTraitsCRT@D@ATL@@@@@ATL@@ABV23@PAUIGraphInfoManager134661@@@Z ; CDataOfChartListPage::GetGraphType
PUBLIC	?SetItem@CDataOfChartListPage@@AAEXPAVCChartLink@@ABV?$CStringT@DV?$StrTraitMFC_DLL@DV?$ChTraitsCRT@D@ATL@@@@@ATL@@PAUIGraphInfoManager134661@@@Z ; CDataOfChartListPage::SetItem
PUBLIC	?SetVerticalScaleItem@CDataOfChartListPage@@AAEPAVCChartLink@@HV?$CStringT@DV?$StrTraitMFC_DLL@DV?$ChTraitsCRT@D@ATL@@@@@ATL@@@Z ; CDataOfChartListPage::SetVerticalScaleItem
PUBLIC	?SetVerticalScaleItem_Temp@CDataOfChartListPage@@AAEPAVCChartLink@@HV?$CStringT@DV?$StrTraitMFC_DLL@DV?$ChTraitsCRT@D@ATL@@@@@ATL@@@Z ; CDataOfChartListPage::SetVerticalScaleItem_Temp
PUBLIC	?SetBlockItem@CDataOfChartListPage@@AAEXHV?$CStringT@DV?$StrTraitMFC_DLL@DV?$ChTraitsCRT@D@ATL@@@@@ATL@@@Z ; CDataOfChartListPage::SetBlockItem
PUBLIC	?SetBlockItem_Temp@CDataOfChartListPage@@AAEXHV?$CStringT@DV?$StrTraitMFC_DLL@DV?$ChTraitsCRT@D@ATL@@@@@ATL@@@Z ; CDataOfChartListPage::SetBlockItem_Temp
PUBLIC	?GetGraphAllData@CDataOfChartListPage@@AAE?AV?$CStringT@DV?$StrTraitMFC_DLL@DV?$ChTraitsCRT@D@ATL@@@@@ATL@@PAVCChartLink@@@Z ; CDataOfChartListPage::GetGraphAllData
PUBLIC	?GetVerticalAllData@CDataOfChartListPage@@AAE?AV?$CStringT@DV?$StrTraitMFC_DLL@DV?$ChTraitsCRT@D@ATL@@@@@ATL@@PAVCChartLink@@@Z ; CDataOfChartListPage::GetVerticalAllData
PUBLIC	?GetBlockAllData@CDataOfChartListPage@@AAE?AV?$CStringT@DV?$StrTraitMFC_DLL@DV?$ChTraitsCRT@D@ATL@@@@@ATL@@PAVCChartLink@@@Z ; CDataOfChartListPage::GetBlockAllData
PUBLIC	?GetSignalData@CDataOfChartListPage@@AAEXABV?$CStringT@DV?$StrTraitMFC_DLL@DV?$ChTraitsCRT@D@ATL@@@@@ATL@@AA_N1@Z ; CDataOfChartListPage::GetSignalData
PUBLIC	??_GCDataOfChartListPage@@UAEPAXI@Z		; CDataOfChartListPage::`scalar deleting destructor'
PUBLIC	??_C@_00CNPNBAHC@@				; `string'
PUBLIC	??_7CDataOfChartListPage@@6B@			; CDataOfChartListPage::`vftable'
PUBLIC	??_C@_01ICJEACDI@?$DL@				; `string'
PUBLIC	??_C@_01JLIPDDHJ@?3@				; `string'
PUBLIC	??_C@_0BC@DENBEKI@BlockColumnEnd?$DL?$AN?6@	; `string'
PUBLIC	??_C@_0P@GBPFOBGA@BlockColumn?$DL?$AN?6@	; `string'
PUBLIC	??_C@_0M@FHFNKLHB@BlockEnd?$DL?$AN?6@		; `string'
PUBLIC	??_C@_0BF@DDJNMPKE@VertScaleGroupEnd?$DL?$AN?6@	; `string'
PUBLIC	??_C@_08KGLHHGPJ@Block?$DL?$AN?6@		; `string'
PUBLIC	??_C@_02BIGHCMEF@0?$DL@				; `string'
PUBLIC	??_C@_02PCIJFNDE@?$AN?6@			; `string'
PUBLIC	??_C@_08BHMMGBBH@Graph?$DL?$AN?6@		; `string'
PUBLIC	??_C@_02FAMCGDNB@G?3@				; `string'
PUBLIC	??_C@_0M@DGHFHKEI@GraphEnd?$DL?$AN?6@		; `string'
PUBLIC	??_C@_0BC@DJOHDNOJ@VertScaleGroup?$DL?$AN?6@	; `string'
PUBLIC	??_R4CDataOfChartListPage@@6B@			; CDataOfChartListPage::`RTTI Complete Object Locator'
PUBLIC	??_R0?AVCDataOfChartListPage@@@8		; CDataOfChartListPage `RTTI Type Descriptor'
PUBLIC	??_R3CDataOfChartListPage@@8			; CDataOfChartListPage::`RTTI Class Hierarchy Descriptor'
PUBLIC	??_R2CDataOfChartListPage@@8			; CDataOfChartListPage::`RTTI Base Class Array'
PUBLIC	??_R1A@?0A@EA@CDataOfChartListPage@@8		; CDataOfChartListPage::`RTTI Base Class Descriptor at (0,-1,0,64)'
EXTRN	??3@YAXPAXI@Z:PROC				; operator delete
EXTRN	__imp__atof:PROC
EXTRN	__imp__atoi:PROC
EXTRN	__imp_??A?$CSimpleStringT@D$00@ATL@@QBEDH@Z:PROC
EXTRN	__imp_?Concatenate@?$CSimpleStringT@D$00@ATL@@KAXAAV12@PBDH1H@Z:PROC
EXTRN	__imp_??0?$CStringT@DV?$StrTraitMFC_DLL@DV?$ChTraitsCRT@D@ATL@@@@@ATL@@QAE@XZ:PROC
EXTRN	__imp_??0?$CStringT@DV?$StrTraitMFC_DLL@DV?$ChTraitsCRT@D@ATL@@@@@ATL@@QAE@PAUIAtlStringMgr@1@@Z:PROC
EXTRN	__imp_??0?$CStringT@DV?$StrTraitMFC_DLL@DV?$ChTraitsCRT@D@ATL@@@@@ATL@@QAE@ABV01@@Z:PROC
EXTRN	__imp_??0?$CStringT@DV?$StrTraitMFC_DLL@DV?$ChTraitsCRT@D@ATL@@@@@ATL@@QAE@PBD@Z:PROC
EXTRN	__imp_??0?$CStringT@DV?$StrTraitMFC_DLL@DV?$ChTraitsCRT@D@ATL@@@@@ATL@@QAE@DH@Z:PROC
EXTRN	__imp_??1?$CStringT@DV?$StrTraitMFC_DLL@DV?$ChTraitsCRT@D@ATL@@@@@ATL@@QAE@XZ:PROC
EXTRN	__imp_??4?$CStringT@DV?$StrTraitMFC_DLL@DV?$ChTraitsCRT@D@ATL@@@@@ATL@@QAEAAV01@ABV01@@Z:PROC
EXTRN	__imp_??4?$CStringT@DV?$StrTraitMFC_DLL@DV?$ChTraitsCRT@D@ATL@@@@@ATL@@QAEAAV01@PBD@Z:PROC
EXTRN	__imp_??Y?$CStringT@DV?$StrTraitMFC_DLL@DV?$ChTraitsCRT@D@ATL@@@@@ATL@@QAEAAV01@ABV?$CSimpleStringT@D$00@1@@Z:PROC
EXTRN	__imp_??Y?$CStringT@DV?$StrTraitMFC_DLL@DV?$ChTraitsCRT@D@ATL@@@@@ATL@@QAEAAV01@PBD@Z:PROC
EXTRN	__imp_?GetManager@?$CStringT@DV?$StrTraitMFC_DLL@DV?$ChTraitsCRT@D@ATL@@@@@ATL@@QBEPAUIAtlStringMgr@2@XZ:PROC
EXTRN	__imp_?Compare@?$CStringT@DV?$StrTraitMFC_DLL@DV?$ChTraitsCRT@D@ATL@@@@@ATL@@QBEHPBD@Z:PROC
EXTRN	__imp_?Find@?$CStringT@DV?$StrTraitMFC_DLL@DV?$ChTraitsCRT@D@ATL@@@@@ATL@@QBEHPBDH@Z:PROC
EXTRN	__imp_?Mid@?$CStringT@DV?$StrTraitMFC_DLL@DV?$ChTraitsCRT@D@ATL@@@@@ATL@@QBE?AV12@H@Z:PROC
EXTRN	__imp_?Right@?$CStringT@DV?$StrTraitMFC_DLL@DV?$ChTraitsCRT@D@ATL@@@@@ATL@@QBE?AV12@H@Z:PROC
EXTRN	__imp_?Left@?$CStringT@DV?$StrTraitMFC_DLL@DV?$ChTraitsCRT@D@ATL@@@@@ATL@@QBE?AV12@H@Z:PROC
EXTRN	?GetMetaText@IMetaTable@@QAEPBDPAUHWND__@@W4E_CODEPAGE@1@PBDH@Z:PROC ; IMetaTable::GetMetaText
EXTRN	?GetLanguageText@IMetaTable@@QAEPBDPAUHWND__@@W4E_CODEPAGE@1@PBDH@Z:PROC ; IMetaTable::GetLanguageText
EXTRN	?GetMultipleMetaText@IMetaTable@@QAE?AV?$CStringT@DV?$StrTraitMFC_DLL@DV?$ChTraitsCRT@D@ATL@@@@@ATL@@PAUHWND__@@V23@1HH@Z:PROC ; IMetaTable::GetMultipleMetaText
EXTRN	??_ECDataOfChartListPage@@UAEPAXI@Z:PROC	; CDataOfChartListPage::`vector deleting destructor'
EXTRN	?ChangeBlockData@CMyTreeCtrl@@QAEXHABV?$CStringT@DV?$StrTraitMFC_DLL@DV?$ChTraitsCRT@D@ATL@@@@@ATL@@HH00HHH@Z:PROC ; CMyTreeCtrl::ChangeBlockData
EXTRN	?AddVerticalScaleItem@CMyTreeCtrl@@QAEPAVCChartLink@@ABV?$CStringT@DV?$StrTraitMFC_DLL@DV?$ChTraitsCRT@D@ATL@@@@@ATL@@HHHHHNNHHNNHH@Z:PROC ; CMyTreeCtrl::AddVerticalScaleItem
EXTRN	?AddItem@CMyTreeCtrl@@QAEXPAVCChartLink@@ABV?$CStringT@DV?$StrTraitMFC_DLL@DV?$ChTraitsCRT@D@ATL@@@@@ATL@@111_N222H221@Z:PROC ; CMyTreeCtrl::AddItem
EXTRN	?atob@CDataConversion@@SA_NPBD@Z:PROC		; CDataConversion::atob
EXTRN	?Bool2Str@CDataConversion@@SA?AV?$CStringT@DV?$StrTraitMFC_DLL@DV?$ChTraitsCRT@D@ATL@@@@@ATL@@H@Z:PROC ; CDataConversion::Bool2Str
EXTRN	?IntToString@CDataConversion@@SA?AV?$CStringT@DV?$StrTraitMFC_DLL@DV?$ChTraitsCRT@D@ATL@@@@@ATL@@H@Z:PROC ; CDataConversion::IntToString
EXTRN	?DoubleToString@CDataConversion@@SA?AV?$CStringT@DV?$StrTraitMFC_DLL@DV?$ChTraitsCRT@D@ATL@@@@@ATL@@ABN@Z:PROC ; CDataConversion::DoubleToString
EXTRN	?GetStringData@CDataConversion@@SA?AV?$CStringT@DV?$StrTraitMFC_DLL@DV?$ChTraitsCRT@D@ATL@@@@@ATL@@AAV23@ABV23@_N@Z:PROC ; CDataConversion::GetStringData
EXTRN	?GetStringDataCount@CDataConversion@@SAHABV?$CStringT@DV?$StrTraitMFC_DLL@DV?$ChTraitsCRT@D@ATL@@@@@ATL@@0@Z:PROC ; CDataConversion::GetStringDataCount
EXTRN	@__security_check_cookie@4:PROC
EXTRN	___CxxFrameHandler3:PROC
EXTRN	??_7type_info@@6B@:QWORD			; type_info::`vftable'
EXTRN	?g_iMetaTable@@3VIMetaTable@@A:BYTE		; g_iMetaTable
EXTRN	___security_cookie:DWORD
EXTRN	__fltused:DWORD
;	COMDAT ??_R1A@?0A@EA@CDataOfChartListPage@@8
rdata$r	SEGMENT
??_R1A@?0A@EA@CDataOfChartListPage@@8 DD FLAT:??_R0?AVCDataOfChartListPage@@@8 ; CDataOfChartListPage::`RTTI Base Class Descriptor at (0,-1,0,64)'
	DD	00H
	DD	00H
	DD	0ffffffffH
	DD	00H
	DD	040H
	DD	FLAT:??_R3CDataOfChartListPage@@8
rdata$r	ENDS
;	COMDAT ??_R2CDataOfChartListPage@@8
rdata$r	SEGMENT
??_R2CDataOfChartListPage@@8 DD FLAT:??_R1A@?0A@EA@CDataOfChartListPage@@8 ; CDataOfChartListPage::`RTTI Base Class Array'
rdata$r	ENDS
;	COMDAT ??_R3CDataOfChartListPage@@8
rdata$r	SEGMENT
??_R3CDataOfChartListPage@@8 DD 00H			; CDataOfChartListPage::`RTTI Class Hierarchy Descriptor'
	DD	00H
	DD	01H
	DD	FLAT:??_R2CDataOfChartListPage@@8
rdata$r	ENDS
;	COMDAT ??_R0?AVCDataOfChartListPage@@@8
data$rs	SEGMENT
??_R0?AVCDataOfChartListPage@@@8 DD FLAT:??_7type_info@@6B@ ; CDataOfChartListPage `RTTI Type Descriptor'
	DD	00H
	DB	'.?AVCDataOfChartListPage@@', 00H
data$rs	ENDS
;	COMDAT ??_R4CDataOfChartListPage@@6B@
rdata$r	SEGMENT
??_R4CDataOfChartListPage@@6B@ DD 00H			; CDataOfChartListPage::`RTTI Complete Object Locator'
	DD	00H
	DD	00H
	DD	FLAT:??_R0?AVCDataOfChartListPage@@@8
	DD	FLAT:??_R3CDataOfChartListPage@@8
rdata$r	ENDS
;	COMDAT ??_C@_0BC@DJOHDNOJ@VertScaleGroup?$DL?$AN?6@
CONST	SEGMENT
??_C@_0BC@DJOHDNOJ@VertScaleGroup?$DL?$AN?6@ DB 'VertScaleGroup;', 0dH, 0aH
	DB	00H						; `string'
CONST	ENDS
;	COMDAT ??_C@_0M@DGHFHKEI@GraphEnd?$DL?$AN?6@
CONST	SEGMENT
??_C@_0M@DGHFHKEI@GraphEnd?$DL?$AN?6@ DB 'GraphEnd;', 0dH, 0aH, 00H ; `string'
CONST	ENDS
;	COMDAT ??_C@_02FAMCGDNB@G?3@
CONST	SEGMENT
??_C@_02FAMCGDNB@G?3@ DB 'G:', 00H			; `string'
CONST	ENDS
;	COMDAT ??_C@_08BHMMGBBH@Graph?$DL?$AN?6@
CONST	SEGMENT
??_C@_08BHMMGBBH@Graph?$DL?$AN?6@ DB 'Graph;', 0dH, 0aH, 00H ; `string'
CONST	ENDS
;	COMDAT ??_C@_02PCIJFNDE@?$AN?6@
CONST	SEGMENT
??_C@_02PCIJFNDE@?$AN?6@ DB 0dH, 0aH, 00H		; `string'
CONST	ENDS
;	COMDAT ??_C@_02BIGHCMEF@0?$DL@
CONST	SEGMENT
??_C@_02BIGHCMEF@0?$DL@ DB '0;', 00H			; `string'
CONST	ENDS
;	COMDAT ??_C@_08KGLHHGPJ@Block?$DL?$AN?6@
CONST	SEGMENT
??_C@_08KGLHHGPJ@Block?$DL?$AN?6@ DB 'Block;', 0dH, 0aH, 00H ; `string'
CONST	ENDS
;	COMDAT ??_C@_0BF@DDJNMPKE@VertScaleGroupEnd?$DL?$AN?6@
CONST	SEGMENT
??_C@_0BF@DDJNMPKE@VertScaleGroupEnd?$DL?$AN?6@ DB 'VertScaleGroupEnd;', 0dH
	DB	0aH, 00H					; `string'
CONST	ENDS
;	COMDAT ??_C@_0M@FHFNKLHB@BlockEnd?$DL?$AN?6@
CONST	SEGMENT
??_C@_0M@FHFNKLHB@BlockEnd?$DL?$AN?6@ DB 'BlockEnd;', 0dH, 0aH, 00H ; `string'
CONST	ENDS
;	COMDAT ??_C@_0P@GBPFOBGA@BlockColumn?$DL?$AN?6@
CONST	SEGMENT
??_C@_0P@GBPFOBGA@BlockColumn?$DL?$AN?6@ DB 'BlockColumn;', 0dH, 0aH, 00H ; `string'
CONST	ENDS
;	COMDAT ??_C@_0BC@DENBEKI@BlockColumnEnd?$DL?$AN?6@
CONST	SEGMENT
??_C@_0BC@DENBEKI@BlockColumnEnd?$DL?$AN?6@ DB 'BlockColumnEnd;', 0dH, 0aH
	DB	00H						; `string'
CONST	ENDS
;	COMDAT ??_C@_01JLIPDDHJ@?3@
CONST	SEGMENT
??_C@_01JLIPDDHJ@?3@ DB ':', 00H			; `string'
CONST	ENDS
;	COMDAT ??_C@_01ICJEACDI@?$DL@
CONST	SEGMENT
??_C@_01ICJEACDI@?$DL@ DB ';', 00H			; `string'
CONST	ENDS
;	COMDAT ??_7CDataOfChartListPage@@6B@
CONST	SEGMENT
??_7CDataOfChartListPage@@6B@ DD FLAT:??_R4CDataOfChartListPage@@6B@ ; CDataOfChartListPage::`vftable'
	DD	FLAT:??_ECDataOfChartListPage@@UAEPAXI@Z
CONST	ENDS
;	COMDAT ??_C@_00CNPNBAHC@@
CONST	SEGMENT
??_C@_00CNPNBAHC@@ DB 00H				; `string'
CONST	ENDS
;	COMDAT xdata$x
xdata$x	SEGMENT
__ehfuncinfo$?GetSignalData@CDataOfChartListPage@@AAEXABV?$CStringT@DV?$StrTraitMFC_DLL@DV?$ChTraitsCRT@D@ATL@@@@@ATL@@AA_N1@Z DD 019930522H
	DD	05H
	DD	FLAT:__unwindtable$?GetSignalData@CDataOfChartListPage@@AAEXABV?$CStringT@DV?$StrTraitMFC_DLL@DV?$ChTraitsCRT@D@ATL@@@@@ATL@@AA_N1@Z
	DD	2 DUP(00H)
	DD	2 DUP(00H)
	DD	00H
	DD	01H
__unwindtable$?GetSignalData@CDataOfChartListPage@@AAEXABV?$CStringT@DV?$StrTraitMFC_DLL@DV?$ChTraitsCRT@D@ATL@@@@@ATL@@AA_N1@Z DD 0ffffffffH
	DD	FLAT:__unwindfunclet$?GetSignalData@CDataOfChartListPage@@AAEXABV?$CStringT@DV?$StrTraitMFC_DLL@DV?$ChTraitsCRT@D@ATL@@@@@ATL@@AA_N1@Z$0
	DD	00H
	DD	FLAT:__unwindfunclet$?GetSignalData@CDataOfChartListPage@@AAEXABV?$CStringT@DV?$StrTraitMFC_DLL@DV?$ChTraitsCRT@D@ATL@@@@@ATL@@AA_N1@Z$2
	DD	01H
	DD	FLAT:__unwindfunclet$?GetSignalData@CDataOfChartListPage@@AAEXABV?$CStringT@DV?$StrTraitMFC_DLL@DV?$ChTraitsCRT@D@ATL@@@@@ATL@@AA_N1@Z$3
	DD	00H
	DD	FLAT:__unwindfunclet$?GetSignalData@CDataOfChartListPage@@AAEXABV?$CStringT@DV?$StrTraitMFC_DLL@DV?$ChTraitsCRT@D@ATL@@@@@ATL@@AA_N1@Z$4
	DD	03H
	DD	FLAT:__unwindfunclet$?GetSignalData@CDataOfChartListPage@@AAEXABV?$CStringT@DV?$StrTraitMFC_DLL@DV?$ChTraitsCRT@D@ATL@@@@@ATL@@AA_N1@Z$5
xdata$x	ENDS
;	COMDAT xdata$x
xdata$x	SEGMENT
__ehfuncinfo$?GetBlockAllData@CDataOfChartListPage@@AAE?AV?$CStringT@DV?$StrTraitMFC_DLL@DV?$ChTraitsCRT@D@ATL@@@@@ATL@@PAVCChartLink@@@Z DD 019930522H
	DD	0dH
	DD	FLAT:__unwindtable$?GetBlockAllData@CDataOfChartListPage@@AAE?AV?$CStringT@DV?$StrTraitMFC_DLL@DV?$ChTraitsCRT@D@ATL@@@@@ATL@@PAVCChartLink@@@Z
	DD	2 DUP(00H)
	DD	2 DUP(00H)
	DD	00H
	DD	01H
__unwindtable$?GetBlockAllData@CDataOfChartListPage@@AAE?AV?$CStringT@DV?$StrTraitMFC_DLL@DV?$ChTraitsCRT@D@ATL@@@@@ATL@@PAVCChartLink@@@Z DD 0ffffffffH
	DD	FLAT:__unwindfunclet$?GetBlockAllData@CDataOfChartListPage@@AAE?AV?$CStringT@DV?$StrTraitMFC_DLL@DV?$ChTraitsCRT@D@ATL@@@@@ATL@@PAVCChartLink@@@Z$0
	DD	00H
	DD	FLAT:__unwindfunclet$?GetBlockAllData@CDataOfChartListPage@@AAE?AV?$CStringT@DV?$StrTraitMFC_DLL@DV?$ChTraitsCRT@D@ATL@@@@@ATL@@PAVCChartLink@@@Z$1
	DD	01H
	DD	FLAT:__unwindfunclet$?GetBlockAllData@CDataOfChartListPage@@AAE?AV?$CStringT@DV?$StrTraitMFC_DLL@DV?$ChTraitsCRT@D@ATL@@@@@ATL@@PAVCChartLink@@@Z$13
	DD	01H
	DD	FLAT:__unwindfunclet$?GetBlockAllData@CDataOfChartListPage@@AAE?AV?$CStringT@DV?$StrTraitMFC_DLL@DV?$ChTraitsCRT@D@ATL@@@@@ATL@@PAVCChartLink@@@Z$3
	DD	03H
	DD	FLAT:__unwindfunclet$?GetBlockAllData@CDataOfChartListPage@@AAE?AV?$CStringT@DV?$StrTraitMFC_DLL@DV?$ChTraitsCRT@D@ATL@@@@@ATL@@PAVCChartLink@@@Z$14
	DD	01H
	DD	FLAT:__unwindfunclet$?GetBlockAllData@CDataOfChartListPage@@AAE?AV?$CStringT@DV?$StrTraitMFC_DLL@DV?$ChTraitsCRT@D@ATL@@@@@ATL@@PAVCChartLink@@@Z$5
	DD	05H
	DD	FLAT:__unwindfunclet$?GetBlockAllData@CDataOfChartListPage@@AAE?AV?$CStringT@DV?$StrTraitMFC_DLL@DV?$ChTraitsCRT@D@ATL@@@@@ATL@@PAVCChartLink@@@Z$15
	DD	01H
	DD	FLAT:__unwindfunclet$?GetBlockAllData@CDataOfChartListPage@@AAE?AV?$CStringT@DV?$StrTraitMFC_DLL@DV?$ChTraitsCRT@D@ATL@@@@@ATL@@PAVCChartLink@@@Z$16
	DD	01H
	DD	FLAT:__unwindfunclet$?GetBlockAllData@CDataOfChartListPage@@AAE?AV?$CStringT@DV?$StrTraitMFC_DLL@DV?$ChTraitsCRT@D@ATL@@@@@ATL@@PAVCChartLink@@@Z$17
	DD	01H
	DD	FLAT:__unwindfunclet$?GetBlockAllData@CDataOfChartListPage@@AAE?AV?$CStringT@DV?$StrTraitMFC_DLL@DV?$ChTraitsCRT@D@ATL@@@@@ATL@@PAVCChartLink@@@Z$9
	DD	09H
	DD	FLAT:__unwindfunclet$?GetBlockAllData@CDataOfChartListPage@@AAE?AV?$CStringT@DV?$StrTraitMFC_DLL@DV?$ChTraitsCRT@D@ATL@@@@@ATL@@PAVCChartLink@@@Z$18
	DD	01H
	DD	FLAT:__unwindfunclet$?GetBlockAllData@CDataOfChartListPage@@AAE?AV?$CStringT@DV?$StrTraitMFC_DLL@DV?$ChTraitsCRT@D@ATL@@@@@ATL@@PAVCChartLink@@@Z$11
	DD	0bH
	DD	FLAT:__unwindfunclet$?GetBlockAllData@CDataOfChartListPage@@AAE?AV?$CStringT@DV?$StrTraitMFC_DLL@DV?$ChTraitsCRT@D@ATL@@@@@ATL@@PAVCChartLink@@@Z$19
xdata$x	ENDS
;	COMDAT xdata$x
xdata$x	SEGMENT
__ehfuncinfo$?GetVerticalAllData@CDataOfChartListPage@@AAE?AV?$CStringT@DV?$StrTraitMFC_DLL@DV?$ChTraitsCRT@D@ATL@@@@@ATL@@PAVCChartLink@@@Z DD 019930522H
	DD	01eH
	DD	FLAT:__unwindtable$?GetVerticalAllData@CDataOfChartListPage@@AAE?AV?$CStringT@DV?$StrTraitMFC_DLL@DV?$ChTraitsCRT@D@ATL@@@@@ATL@@PAVCChartLink@@@Z
	DD	2 DUP(00H)
	DD	2 DUP(00H)
	DD	00H
	DD	01H
__unwindtable$?GetVerticalAllData@CDataOfChartListPage@@AAE?AV?$CStringT@DV?$StrTraitMFC_DLL@DV?$ChTraitsCRT@D@ATL@@@@@ATL@@PAVCChartLink@@@Z DD 0ffffffffH
	DD	FLAT:__unwindfunclet$?GetVerticalAllData@CDataOfChartListPage@@AAE?AV?$CStringT@DV?$StrTraitMFC_DLL@DV?$ChTraitsCRT@D@ATL@@@@@ATL@@PAVCChartLink@@@Z$0
	DD	00H
	DD	FLAT:__unwindfunclet$?GetVerticalAllData@CDataOfChartListPage@@AAE?AV?$CStringT@DV?$StrTraitMFC_DLL@DV?$ChTraitsCRT@D@ATL@@@@@ATL@@PAVCChartLink@@@Z$1
	DD	00H
	DD	FLAT:__unwindfunclet$?GetVerticalAllData@CDataOfChartListPage@@AAE?AV?$CStringT@DV?$StrTraitMFC_DLL@DV?$ChTraitsCRT@D@ATL@@@@@ATL@@PAVCChartLink@@@Z$3
	DD	02H
	DD	FLAT:__unwindfunclet$?GetVerticalAllData@CDataOfChartListPage@@AAE?AV?$CStringT@DV?$StrTraitMFC_DLL@DV?$ChTraitsCRT@D@ATL@@@@@ATL@@PAVCChartLink@@@Z$31
	DD	00H
	DD	FLAT:__unwindfunclet$?GetVerticalAllData@CDataOfChartListPage@@AAE?AV?$CStringT@DV?$StrTraitMFC_DLL@DV?$ChTraitsCRT@D@ATL@@@@@ATL@@PAVCChartLink@@@Z$5
	DD	04H
	DD	FLAT:__unwindfunclet$?GetVerticalAllData@CDataOfChartListPage@@AAE?AV?$CStringT@DV?$StrTraitMFC_DLL@DV?$ChTraitsCRT@D@ATL@@@@@ATL@@PAVCChartLink@@@Z$32
	DD	00H
	DD	FLAT:__unwindfunclet$?GetVerticalAllData@CDataOfChartListPage@@AAE?AV?$CStringT@DV?$StrTraitMFC_DLL@DV?$ChTraitsCRT@D@ATL@@@@@ATL@@PAVCChartLink@@@Z$7
	DD	06H
	DD	FLAT:__unwindfunclet$?GetVerticalAllData@CDataOfChartListPage@@AAE?AV?$CStringT@DV?$StrTraitMFC_DLL@DV?$ChTraitsCRT@D@ATL@@@@@ATL@@PAVCChartLink@@@Z$33
	DD	00H
	DD	FLAT:__unwindfunclet$?GetVerticalAllData@CDataOfChartListPage@@AAE?AV?$CStringT@DV?$StrTraitMFC_DLL@DV?$ChTraitsCRT@D@ATL@@@@@ATL@@PAVCChartLink@@@Z$9
	DD	08H
	DD	FLAT:__unwindfunclet$?GetVerticalAllData@CDataOfChartListPage@@AAE?AV?$CStringT@DV?$StrTraitMFC_DLL@DV?$ChTraitsCRT@D@ATL@@@@@ATL@@PAVCChartLink@@@Z$34
	DD	00H
	DD	FLAT:__unwindfunclet$?GetVerticalAllData@CDataOfChartListPage@@AAE?AV?$CStringT@DV?$StrTraitMFC_DLL@DV?$ChTraitsCRT@D@ATL@@@@@ATL@@PAVCChartLink@@@Z$11
	DD	0aH
	DD	FLAT:__unwindfunclet$?GetVerticalAllData@CDataOfChartListPage@@AAE?AV?$CStringT@DV?$StrTraitMFC_DLL@DV?$ChTraitsCRT@D@ATL@@@@@ATL@@PAVCChartLink@@@Z$35
	DD	00H
	DD	FLAT:__unwindfunclet$?GetVerticalAllData@CDataOfChartListPage@@AAE?AV?$CStringT@DV?$StrTraitMFC_DLL@DV?$ChTraitsCRT@D@ATL@@@@@ATL@@PAVCChartLink@@@Z$13
	DD	0cH
	DD	FLAT:__unwindfunclet$?GetVerticalAllData@CDataOfChartListPage@@AAE?AV?$CStringT@DV?$StrTraitMFC_DLL@DV?$ChTraitsCRT@D@ATL@@@@@ATL@@PAVCChartLink@@@Z$36
	DD	00H
	DD	FLAT:__unwindfunclet$?GetVerticalAllData@CDataOfChartListPage@@AAE?AV?$CStringT@DV?$StrTraitMFC_DLL@DV?$ChTraitsCRT@D@ATL@@@@@ATL@@PAVCChartLink@@@Z$15
	DD	0eH
	DD	FLAT:__unwindfunclet$?GetVerticalAllData@CDataOfChartListPage@@AAE?AV?$CStringT@DV?$StrTraitMFC_DLL@DV?$ChTraitsCRT@D@ATL@@@@@ATL@@PAVCChartLink@@@Z$37
	DD	00H
	DD	FLAT:__unwindfunclet$?GetVerticalAllData@CDataOfChartListPage@@AAE?AV?$CStringT@DV?$StrTraitMFC_DLL@DV?$ChTraitsCRT@D@ATL@@@@@ATL@@PAVCChartLink@@@Z$17
	DD	010H
	DD	FLAT:__unwindfunclet$?GetVerticalAllData@CDataOfChartListPage@@AAE?AV?$CStringT@DV?$StrTraitMFC_DLL@DV?$ChTraitsCRT@D@ATL@@@@@ATL@@PAVCChartLink@@@Z$38
	DD	00H
	DD	FLAT:__unwindfunclet$?GetVerticalAllData@CDataOfChartListPage@@AAE?AV?$CStringT@DV?$StrTraitMFC_DLL@DV?$ChTraitsCRT@D@ATL@@@@@ATL@@PAVCChartLink@@@Z$19
	DD	012H
	DD	FLAT:__unwindfunclet$?GetVerticalAllData@CDataOfChartListPage@@AAE?AV?$CStringT@DV?$StrTraitMFC_DLL@DV?$ChTraitsCRT@D@ATL@@@@@ATL@@PAVCChartLink@@@Z$39
	DD	00H
	DD	FLAT:__unwindfunclet$?GetVerticalAllData@CDataOfChartListPage@@AAE?AV?$CStringT@DV?$StrTraitMFC_DLL@DV?$ChTraitsCRT@D@ATL@@@@@ATL@@PAVCChartLink@@@Z$21
	DD	014H
	DD	FLAT:__unwindfunclet$?GetVerticalAllData@CDataOfChartListPage@@AAE?AV?$CStringT@DV?$StrTraitMFC_DLL@DV?$ChTraitsCRT@D@ATL@@@@@ATL@@PAVCChartLink@@@Z$40
	DD	00H
	DD	FLAT:__unwindfunclet$?GetVerticalAllData@CDataOfChartListPage@@AAE?AV?$CStringT@DV?$StrTraitMFC_DLL@DV?$ChTraitsCRT@D@ATL@@@@@ATL@@PAVCChartLink@@@Z$23
	DD	016H
	DD	FLAT:__unwindfunclet$?GetVerticalAllData@CDataOfChartListPage@@AAE?AV?$CStringT@DV?$StrTraitMFC_DLL@DV?$ChTraitsCRT@D@ATL@@@@@ATL@@PAVCChartLink@@@Z$41
	DD	00H
	DD	FLAT:__unwindfunclet$?GetVerticalAllData@CDataOfChartListPage@@AAE?AV?$CStringT@DV?$StrTraitMFC_DLL@DV?$ChTraitsCRT@D@ATL@@@@@ATL@@PAVCChartLink@@@Z$25
	DD	018H
	DD	FLAT:__unwindfunclet$?GetVerticalAllData@CDataOfChartListPage@@AAE?AV?$CStringT@DV?$StrTraitMFC_DLL@DV?$ChTraitsCRT@D@ATL@@@@@ATL@@PAVCChartLink@@@Z$42
	DD	00H
	DD	FLAT:__unwindfunclet$?GetVerticalAllData@CDataOfChartListPage@@AAE?AV?$CStringT@DV?$StrTraitMFC_DLL@DV?$ChTraitsCRT@D@ATL@@@@@ATL@@PAVCChartLink@@@Z$27
	DD	01aH
	DD	FLAT:__unwindfunclet$?GetVerticalAllData@CDataOfChartListPage@@AAE?AV?$CStringT@DV?$StrTraitMFC_DLL@DV?$ChTraitsCRT@D@ATL@@@@@ATL@@PAVCChartLink@@@Z$43
	DD	00H
	DD	FLAT:__unwindfunclet$?GetVerticalAllData@CDataOfChartListPage@@AAE?AV?$CStringT@DV?$StrTraitMFC_DLL@DV?$ChTraitsCRT@D@ATL@@@@@ATL@@PAVCChartLink@@@Z$29
	DD	01cH
	DD	FLAT:__unwindfunclet$?GetVerticalAllData@CDataOfChartListPage@@AAE?AV?$CStringT@DV?$StrTraitMFC_DLL@DV?$ChTraitsCRT@D@ATL@@@@@ATL@@PAVCChartLink@@@Z$44
xdata$x	ENDS
;	COMDAT xdata$x
xdata$x	SEGMENT
__ehfuncinfo$?GetGraphAllData@CDataOfChartListPage@@AAE?AV?$CStringT@DV?$StrTraitMFC_DLL@DV?$ChTraitsCRT@D@ATL@@@@@ATL@@PAVCChartLink@@@Z DD 019930522H
	DD	013H
	DD	FLAT:__unwindtable$?GetGraphAllData@CDataOfChartListPage@@AAE?AV?$CStringT@DV?$StrTraitMFC_DLL@DV?$ChTraitsCRT@D@ATL@@@@@ATL@@PAVCChartLink@@@Z
	DD	2 DUP(00H)
	DD	2 DUP(00H)
	DD	00H
	DD	01H
__unwindtable$?GetGraphAllData@CDataOfChartListPage@@AAE?AV?$CStringT@DV?$StrTraitMFC_DLL@DV?$ChTraitsCRT@D@ATL@@@@@ATL@@PAVCChartLink@@@Z DD 0ffffffffH
	DD	FLAT:__unwindfunclet$?GetGraphAllData@CDataOfChartListPage@@AAE?AV?$CStringT@DV?$StrTraitMFC_DLL@DV?$ChTraitsCRT@D@ATL@@@@@ATL@@PAVCChartLink@@@Z$0
	DD	00H
	DD	FLAT:__unwindfunclet$?GetGraphAllData@CDataOfChartListPage@@AAE?AV?$CStringT@DV?$StrTraitMFC_DLL@DV?$ChTraitsCRT@D@ATL@@@@@ATL@@PAVCChartLink@@@Z$19
	DD	00H
	DD	FLAT:__unwindfunclet$?GetGraphAllData@CDataOfChartListPage@@AAE?AV?$CStringT@DV?$StrTraitMFC_DLL@DV?$ChTraitsCRT@D@ATL@@@@@ATL@@PAVCChartLink@@@Z$20
	DD	02H
	DD	FLAT:__unwindfunclet$?GetGraphAllData@CDataOfChartListPage@@AAE?AV?$CStringT@DV?$StrTraitMFC_DLL@DV?$ChTraitsCRT@D@ATL@@@@@ATL@@PAVCChartLink@@@Z$21
	DD	00H
	DD	FLAT:__unwindfunclet$?GetGraphAllData@CDataOfChartListPage@@AAE?AV?$CStringT@DV?$StrTraitMFC_DLL@DV?$ChTraitsCRT@D@ATL@@@@@ATL@@PAVCChartLink@@@Z$22
	DD	00H
	DD	FLAT:__unwindfunclet$?GetGraphAllData@CDataOfChartListPage@@AAE?AV?$CStringT@DV?$StrTraitMFC_DLL@DV?$ChTraitsCRT@D@ATL@@@@@ATL@@PAVCChartLink@@@Z$5
	DD	05H
	DD	FLAT:__unwindfunclet$?GetGraphAllData@CDataOfChartListPage@@AAE?AV?$CStringT@DV?$StrTraitMFC_DLL@DV?$ChTraitsCRT@D@ATL@@@@@ATL@@PAVCChartLink@@@Z$23
	DD	00H
	DD	FLAT:__unwindfunclet$?GetGraphAllData@CDataOfChartListPage@@AAE?AV?$CStringT@DV?$StrTraitMFC_DLL@DV?$ChTraitsCRT@D@ATL@@@@@ATL@@PAVCChartLink@@@Z$7
	DD	07H
	DD	FLAT:__unwindfunclet$?GetGraphAllData@CDataOfChartListPage@@AAE?AV?$CStringT@DV?$StrTraitMFC_DLL@DV?$ChTraitsCRT@D@ATL@@@@@ATL@@PAVCChartLink@@@Z$24
	DD	00H
	DD	FLAT:__unwindfunclet$?GetGraphAllData@CDataOfChartListPage@@AAE?AV?$CStringT@DV?$StrTraitMFC_DLL@DV?$ChTraitsCRT@D@ATL@@@@@ATL@@PAVCChartLink@@@Z$9
	DD	09H
	DD	FLAT:__unwindfunclet$?GetGraphAllData@CDataOfChartListPage@@AAE?AV?$CStringT@DV?$StrTraitMFC_DLL@DV?$ChTraitsCRT@D@ATL@@@@@ATL@@PAVCChartLink@@@Z$25
	DD	00H
	DD	FLAT:__unwindfunclet$?GetGraphAllData@CDataOfChartListPage@@AAE?AV?$CStringT@DV?$StrTraitMFC_DLL@DV?$ChTraitsCRT@D@ATL@@@@@ATL@@PAVCChartLink@@@Z$11
	DD	0bH
	DD	FLAT:__unwindfunclet$?GetGraphAllData@CDataOfChartListPage@@AAE?AV?$CStringT@DV?$StrTraitMFC_DLL@DV?$ChTraitsCRT@D@ATL@@@@@ATL@@PAVCChartLink@@@Z$26
	DD	00H
	DD	FLAT:__unwindfunclet$?GetGraphAllData@CDataOfChartListPage@@AAE?AV?$CStringT@DV?$StrTraitMFC_DLL@DV?$ChTraitsCRT@D@ATL@@@@@ATL@@PAVCChartLink@@@Z$13
	DD	0dH
	DD	FLAT:__unwindfunclet$?GetGraphAllData@CDataOfChartListPage@@AAE?AV?$CStringT@DV?$StrTraitMFC_DLL@DV?$ChTraitsCRT@D@ATL@@@@@ATL@@PAVCChartLink@@@Z$27
	DD	00H
	DD	FLAT:__unwindfunclet$?GetGraphAllData@CDataOfChartListPage@@AAE?AV?$CStringT@DV?$StrTraitMFC_DLL@DV?$ChTraitsCRT@D@ATL@@@@@ATL@@PAVCChartLink@@@Z$15
	DD	0fH
	DD	FLAT:__unwindfunclet$?GetGraphAllData@CDataOfChartListPage@@AAE?AV?$CStringT@DV?$StrTraitMFC_DLL@DV?$ChTraitsCRT@D@ATL@@@@@ATL@@PAVCChartLink@@@Z$28
	DD	00H
	DD	FLAT:__unwindfunclet$?GetGraphAllData@CDataOfChartListPage@@AAE?AV?$CStringT@DV?$StrTraitMFC_DLL@DV?$ChTraitsCRT@D@ATL@@@@@ATL@@PAVCChartLink@@@Z$17
	DD	011H
	DD	FLAT:__unwindfunclet$?GetGraphAllData@CDataOfChartListPage@@AAE?AV?$CStringT@DV?$StrTraitMFC_DLL@DV?$ChTraitsCRT@D@ATL@@@@@ATL@@PAVCChartLink@@@Z$29
xdata$x	ENDS
;	COMDAT xdata$x
xdata$x	SEGMENT
__ehfuncinfo$?SetBlockItem_Temp@CDataOfChartListPage@@AAEXHV?$CStringT@DV?$StrTraitMFC_DLL@DV?$ChTraitsCRT@D@ATL@@@@@ATL@@@Z DD 019930522H
	DD	0fH
	DD	FLAT:__unwindtable$?SetBlockItem_Temp@CDataOfChartListPage@@AAEXHV?$CStringT@DV?$StrTraitMFC_DLL@DV?$ChTraitsCRT@D@ATL@@@@@ATL@@@Z
	DD	2 DUP(00H)
	DD	2 DUP(00H)
	DD	00H
	DD	01H
__unwindtable$?SetBlockItem_Temp@CDataOfChartListPage@@AAEXHV?$CStringT@DV?$StrTraitMFC_DLL@DV?$ChTraitsCRT@D@ATL@@@@@ATL@@@Z DD 0ffffffffH
	DD	FLAT:__unwindfunclet$?SetBlockItem_Temp@CDataOfChartListPage@@AAEXHV?$CStringT@DV?$StrTraitMFC_DLL@DV?$ChTraitsCRT@D@ATL@@@@@ATL@@@Z$0
	DD	00H
	DD	FLAT:__unwindfunclet$?SetBlockItem_Temp@CDataOfChartListPage@@AAEXHV?$CStringT@DV?$StrTraitMFC_DLL@DV?$ChTraitsCRT@D@ATL@@@@@ATL@@@Z$1
	DD	00H
	DD	FLAT:__unwindfunclet$?SetBlockItem_Temp@CDataOfChartListPage@@AAEXHV?$CStringT@DV?$StrTraitMFC_DLL@DV?$ChTraitsCRT@D@ATL@@@@@ATL@@@Z$3
	DD	02H
	DD	FLAT:__unwindfunclet$?SetBlockItem_Temp@CDataOfChartListPage@@AAEXHV?$CStringT@DV?$StrTraitMFC_DLL@DV?$ChTraitsCRT@D@ATL@@@@@ATL@@@Z$4
	DD	00H
	DD	FLAT:__unwindfunclet$?SetBlockItem_Temp@CDataOfChartListPage@@AAEXHV?$CStringT@DV?$StrTraitMFC_DLL@DV?$ChTraitsCRT@D@ATL@@@@@ATL@@@Z$4
	DD	04H
	DD	FLAT:__unwindfunclet$?SetBlockItem_Temp@CDataOfChartListPage@@AAEXHV?$CStringT@DV?$StrTraitMFC_DLL@DV?$ChTraitsCRT@D@ATL@@@@@ATL@@@Z$5
	DD	04H
	DD	FLAT:__unwindfunclet$?SetBlockItem_Temp@CDataOfChartListPage@@AAEXHV?$CStringT@DV?$StrTraitMFC_DLL@DV?$ChTraitsCRT@D@ATL@@@@@ATL@@@Z$7
	DD	06H
	DD	FLAT:__unwindfunclet$?SetBlockItem_Temp@CDataOfChartListPage@@AAEXHV?$CStringT@DV?$StrTraitMFC_DLL@DV?$ChTraitsCRT@D@ATL@@@@@ATL@@@Z$8
	DD	04H
	DD	FLAT:__unwindfunclet$?SetBlockItem_Temp@CDataOfChartListPage@@AAEXHV?$CStringT@DV?$StrTraitMFC_DLL@DV?$ChTraitsCRT@D@ATL@@@@@ATL@@@Z$8
	DD	08H
	DD	FLAT:__unwindfunclet$?SetBlockItem_Temp@CDataOfChartListPage@@AAEXHV?$CStringT@DV?$StrTraitMFC_DLL@DV?$ChTraitsCRT@D@ATL@@@@@ATL@@@Z$9
	DD	09H
	DD	FLAT:__unwindfunclet$?SetBlockItem_Temp@CDataOfChartListPage@@AAEXHV?$CStringT@DV?$StrTraitMFC_DLL@DV?$ChTraitsCRT@D@ATL@@@@@ATL@@@Z$10
	DD	08H
	DD	FLAT:__unwindfunclet$?SetBlockItem_Temp@CDataOfChartListPage@@AAEXHV?$CStringT@DV?$StrTraitMFC_DLL@DV?$ChTraitsCRT@D@ATL@@@@@ATL@@@Z$10
	DD	0bH
	DD	FLAT:__unwindfunclet$?SetBlockItem_Temp@CDataOfChartListPage@@AAEXHV?$CStringT@DV?$StrTraitMFC_DLL@DV?$ChTraitsCRT@D@ATL@@@@@ATL@@@Z$11
	DD	0bH
	DD	FLAT:__unwindfunclet$?SetBlockItem_Temp@CDataOfChartListPage@@AAEXHV?$CStringT@DV?$StrTraitMFC_DLL@DV?$ChTraitsCRT@D@ATL@@@@@ATL@@@Z$13
	DD	0bH
	DD	FLAT:__unwindfunclet$?SetBlockItem_Temp@CDataOfChartListPage@@AAEXHV?$CStringT@DV?$StrTraitMFC_DLL@DV?$ChTraitsCRT@D@ATL@@@@@ATL@@@Z$15
xdata$x	ENDS
;	COMDAT xdata$x
xdata$x	SEGMENT
__ehfuncinfo$?SetBlockItem@CDataOfChartListPage@@AAEXHV?$CStringT@DV?$StrTraitMFC_DLL@DV?$ChTraitsCRT@D@ATL@@@@@ATL@@@Z DD 019930522H
	DD	010H
	DD	FLAT:__unwindtable$?SetBlockItem@CDataOfChartListPage@@AAEXHV?$CStringT@DV?$StrTraitMFC_DLL@DV?$ChTraitsCRT@D@ATL@@@@@ATL@@@Z
	DD	2 DUP(00H)
	DD	2 DUP(00H)
	DD	00H
	DD	01H
__unwindtable$?SetBlockItem@CDataOfChartListPage@@AAEXHV?$CStringT@DV?$StrTraitMFC_DLL@DV?$ChTraitsCRT@D@ATL@@@@@ATL@@@Z DD 0ffffffffH
	DD	FLAT:__unwindfunclet$?SetBlockItem@CDataOfChartListPage@@AAEXHV?$CStringT@DV?$StrTraitMFC_DLL@DV?$ChTraitsCRT@D@ATL@@@@@ATL@@@Z$0
	DD	00H
	DD	FLAT:__unwindfunclet$?SetBlockItem@CDataOfChartListPage@@AAEXHV?$CStringT@DV?$StrTraitMFC_DLL@DV?$ChTraitsCRT@D@ATL@@@@@ATL@@@Z$1
	DD	01H
	DD	FLAT:__unwindfunclet$?SetBlockItem@CDataOfChartListPage@@AAEXHV?$CStringT@DV?$StrTraitMFC_DLL@DV?$ChTraitsCRT@D@ATL@@@@@ATL@@@Z$2
	DD	00H
	DD	FLAT:__unwindfunclet$?SetBlockItem@CDataOfChartListPage@@AAEXHV?$CStringT@DV?$StrTraitMFC_DLL@DV?$ChTraitsCRT@D@ATL@@@@@ATL@@@Z$2
	DD	03H
	DD	FLAT:__unwindfunclet$?SetBlockItem@CDataOfChartListPage@@AAEXHV?$CStringT@DV?$StrTraitMFC_DLL@DV?$ChTraitsCRT@D@ATL@@@@@ATL@@@Z$3
	DD	03H
	DD	FLAT:__unwindfunclet$?SetBlockItem@CDataOfChartListPage@@AAEXHV?$CStringT@DV?$StrTraitMFC_DLL@DV?$ChTraitsCRT@D@ATL@@@@@ATL@@@Z$5
	DD	03H
	DD	FLAT:__unwindfunclet$?SetBlockItem@CDataOfChartListPage@@AAEXHV?$CStringT@DV?$StrTraitMFC_DLL@DV?$ChTraitsCRT@D@ATL@@@@@ATL@@@Z$7
	DD	06H
	DD	FLAT:__unwindfunclet$?SetBlockItem@CDataOfChartListPage@@AAEXHV?$CStringT@DV?$StrTraitMFC_DLL@DV?$ChTraitsCRT@D@ATL@@@@@ATL@@@Z$8
	DD	03H
	DD	FLAT:__unwindfunclet$?SetBlockItem@CDataOfChartListPage@@AAEXHV?$CStringT@DV?$StrTraitMFC_DLL@DV?$ChTraitsCRT@D@ATL@@@@@ATL@@@Z$8
	DD	08H
	DD	FLAT:__unwindfunclet$?SetBlockItem@CDataOfChartListPage@@AAEXHV?$CStringT@DV?$StrTraitMFC_DLL@DV?$ChTraitsCRT@D@ATL@@@@@ATL@@@Z$9
	DD	09H
	DD	FLAT:__unwindfunclet$?SetBlockItem@CDataOfChartListPage@@AAEXHV?$CStringT@DV?$StrTraitMFC_DLL@DV?$ChTraitsCRT@D@ATL@@@@@ATL@@@Z$10
	DD	08H
	DD	FLAT:__unwindfunclet$?SetBlockItem@CDataOfChartListPage@@AAEXHV?$CStringT@DV?$StrTraitMFC_DLL@DV?$ChTraitsCRT@D@ATL@@@@@ATL@@@Z$10
	DD	0bH
	DD	FLAT:__unwindfunclet$?SetBlockItem@CDataOfChartListPage@@AAEXHV?$CStringT@DV?$StrTraitMFC_DLL@DV?$ChTraitsCRT@D@ATL@@@@@ATL@@@Z$11
	DD	0bH
	DD	FLAT:__unwindfunclet$?SetBlockItem@CDataOfChartListPage@@AAEXHV?$CStringT@DV?$StrTraitMFC_DLL@DV?$ChTraitsCRT@D@ATL@@@@@ATL@@@Z$13
	DD	0bH
	DD	FLAT:__unwindfunclet$?SetBlockItem@CDataOfChartListPage@@AAEXHV?$CStringT@DV?$StrTraitMFC_DLL@DV?$ChTraitsCRT@D@ATL@@@@@ATL@@@Z$15
	DD	0bH
	DD	FLAT:__unwindfunclet$?SetBlockItem@CDataOfChartListPage@@AAEXHV?$CStringT@DV?$StrTraitMFC_DLL@DV?$ChTraitsCRT@D@ATL@@@@@ATL@@@Z$17
xdata$x	ENDS
;	COMDAT xdata$x
xdata$x	SEGMENT
__ehfuncinfo$?SetVerticalScaleItem_Temp@CDataOfChartListPage@@AAEPAVCChartLink@@HV?$CStringT@DV?$StrTraitMFC_DLL@DV?$ChTraitsCRT@D@ATL@@@@@ATL@@@Z DD 019930522H
	DD	0aH
	DD	FLAT:__unwindtable$?SetVerticalScaleItem_Temp@CDataOfChartListPage@@AAEPAVCChartLink@@HV?$CStringT@DV?$StrTraitMFC_DLL@DV?$ChTraitsCRT@D@ATL@@@@@ATL@@@Z
	DD	2 DUP(00H)
	DD	2 DUP(00H)
	DD	00H
	DD	01H
__unwindtable$?SetVerticalScaleItem_Temp@CDataOfChartListPage@@AAEPAVCChartLink@@HV?$CStringT@DV?$StrTraitMFC_DLL@DV?$ChTraitsCRT@D@ATL@@@@@ATL@@@Z DD 0ffffffffH
	DD	FLAT:__unwindfunclet$?SetVerticalScaleItem_Temp@CDataOfChartListPage@@AAEPAVCChartLink@@HV?$CStringT@DV?$StrTraitMFC_DLL@DV?$ChTraitsCRT@D@ATL@@@@@ATL@@@Z$0
	DD	00H
	DD	FLAT:__unwindfunclet$?SetVerticalScaleItem_Temp@CDataOfChartListPage@@AAEPAVCChartLink@@HV?$CStringT@DV?$StrTraitMFC_DLL@DV?$ChTraitsCRT@D@ATL@@@@@ATL@@@Z$1
	DD	01H
	DD	FLAT:__unwindfunclet$?SetVerticalScaleItem_Temp@CDataOfChartListPage@@AAEPAVCChartLink@@HV?$CStringT@DV?$StrTraitMFC_DLL@DV?$ChTraitsCRT@D@ATL@@@@@ATL@@@Z$2
	DD	01H
	DD	FLAT:__unwindfunclet$?SetVerticalScaleItem_Temp@CDataOfChartListPage@@AAEPAVCChartLink@@HV?$CStringT@DV?$StrTraitMFC_DLL@DV?$ChTraitsCRT@D@ATL@@@@@ATL@@@Z$4
	DD	01H
	DD	FLAT:__unwindfunclet$?SetVerticalScaleItem_Temp@CDataOfChartListPage@@AAEPAVCChartLink@@HV?$CStringT@DV?$StrTraitMFC_DLL@DV?$ChTraitsCRT@D@ATL@@@@@ATL@@@Z$6
	DD	01H
	DD	FLAT:__unwindfunclet$?SetVerticalScaleItem_Temp@CDataOfChartListPage@@AAEPAVCChartLink@@HV?$CStringT@DV?$StrTraitMFC_DLL@DV?$ChTraitsCRT@D@ATL@@@@@ATL@@@Z$8
	DD	01H
	DD	FLAT:__unwindfunclet$?SetVerticalScaleItem_Temp@CDataOfChartListPage@@AAEPAVCChartLink@@HV?$CStringT@DV?$StrTraitMFC_DLL@DV?$ChTraitsCRT@D@ATL@@@@@ATL@@@Z$10
	DD	01H
	DD	FLAT:__unwindfunclet$?SetVerticalScaleItem_Temp@CDataOfChartListPage@@AAEPAVCChartLink@@HV?$CStringT@DV?$StrTraitMFC_DLL@DV?$ChTraitsCRT@D@ATL@@@@@ATL@@@Z$12
	DD	07H
	DD	FLAT:__unwindfunclet$?SetVerticalScaleItem_Temp@CDataOfChartListPage@@AAEPAVCChartLink@@HV?$CStringT@DV?$StrTraitMFC_DLL@DV?$ChTraitsCRT@D@ATL@@@@@ATL@@@Z$13
	DD	01H
	DD	FLAT:__unwindfunclet$?SetVerticalScaleItem_Temp@CDataOfChartListPage@@AAEPAVCChartLink@@HV?$CStringT@DV?$StrTraitMFC_DLL@DV?$ChTraitsCRT@D@ATL@@@@@ATL@@@Z$13
xdata$x	ENDS
;	COMDAT xdata$x
xdata$x	SEGMENT
__ehfuncinfo$?SetVerticalScaleItem@CDataOfChartListPage@@AAEPAVCChartLink@@HV?$CStringT@DV?$StrTraitMFC_DLL@DV?$ChTraitsCRT@D@ATL@@@@@ATL@@@Z DD 019930522H
	DD	013H
	DD	FLAT:__unwindtable$?SetVerticalScaleItem@CDataOfChartListPage@@AAEPAVCChartLink@@HV?$CStringT@DV?$StrTraitMFC_DLL@DV?$ChTraitsCRT@D@ATL@@@@@ATL@@@Z
	DD	2 DUP(00H)
	DD	2 DUP(00H)
	DD	00H
	DD	01H
__unwindtable$?SetVerticalScaleItem@CDataOfChartListPage@@AAEPAVCChartLink@@HV?$CStringT@DV?$StrTraitMFC_DLL@DV?$ChTraitsCRT@D@ATL@@@@@ATL@@@Z DD 0ffffffffH
	DD	FLAT:__unwindfunclet$?SetVerticalScaleItem@CDataOfChartListPage@@AAEPAVCChartLink@@HV?$CStringT@DV?$StrTraitMFC_DLL@DV?$ChTraitsCRT@D@ATL@@@@@ATL@@@Z$0
	DD	00H
	DD	FLAT:__unwindfunclet$?SetVerticalScaleItem@CDataOfChartListPage@@AAEPAVCChartLink@@HV?$CStringT@DV?$StrTraitMFC_DLL@DV?$ChTraitsCRT@D@ATL@@@@@ATL@@@Z$1
	DD	01H
	DD	FLAT:__unwindfunclet$?SetVerticalScaleItem@CDataOfChartListPage@@AAEPAVCChartLink@@HV?$CStringT@DV?$StrTraitMFC_DLL@DV?$ChTraitsCRT@D@ATL@@@@@ATL@@@Z$2
	DD	01H
	DD	FLAT:__unwindfunclet$?SetVerticalScaleItem@CDataOfChartListPage@@AAEPAVCChartLink@@HV?$CStringT@DV?$StrTraitMFC_DLL@DV?$ChTraitsCRT@D@ATL@@@@@ATL@@@Z$4
	DD	03H
	DD	FLAT:__unwindfunclet$?SetVerticalScaleItem@CDataOfChartListPage@@AAEPAVCChartLink@@HV?$CStringT@DV?$StrTraitMFC_DLL@DV?$ChTraitsCRT@D@ATL@@@@@ATL@@@Z$5
	DD	01H
	DD	FLAT:__unwindfunclet$?SetVerticalScaleItem@CDataOfChartListPage@@AAEPAVCChartLink@@HV?$CStringT@DV?$StrTraitMFC_DLL@DV?$ChTraitsCRT@D@ATL@@@@@ATL@@@Z$5
	DD	05H
	DD	FLAT:__unwindfunclet$?SetVerticalScaleItem@CDataOfChartListPage@@AAEPAVCChartLink@@HV?$CStringT@DV?$StrTraitMFC_DLL@DV?$ChTraitsCRT@D@ATL@@@@@ATL@@@Z$6
	DD	05H
	DD	FLAT:__unwindfunclet$?SetVerticalScaleItem@CDataOfChartListPage@@AAEPAVCChartLink@@HV?$CStringT@DV?$StrTraitMFC_DLL@DV?$ChTraitsCRT@D@ATL@@@@@ATL@@@Z$8
	DD	05H
	DD	FLAT:__unwindfunclet$?SetVerticalScaleItem@CDataOfChartListPage@@AAEPAVCChartLink@@HV?$CStringT@DV?$StrTraitMFC_DLL@DV?$ChTraitsCRT@D@ATL@@@@@ATL@@@Z$10
	DD	05H
	DD	FLAT:__unwindfunclet$?SetVerticalScaleItem@CDataOfChartListPage@@AAEPAVCChartLink@@HV?$CStringT@DV?$StrTraitMFC_DLL@DV?$ChTraitsCRT@D@ATL@@@@@ATL@@@Z$12
	DD	05H
	DD	FLAT:__unwindfunclet$?SetVerticalScaleItem@CDataOfChartListPage@@AAEPAVCChartLink@@HV?$CStringT@DV?$StrTraitMFC_DLL@DV?$ChTraitsCRT@D@ATL@@@@@ATL@@@Z$14
	DD	05H
	DD	FLAT:__unwindfunclet$?SetVerticalScaleItem@CDataOfChartListPage@@AAEPAVCChartLink@@HV?$CStringT@DV?$StrTraitMFC_DLL@DV?$ChTraitsCRT@D@ATL@@@@@ATL@@@Z$16
	DD	05H
	DD	FLAT:__unwindfunclet$?SetVerticalScaleItem@CDataOfChartListPage@@AAEPAVCChartLink@@HV?$CStringT@DV?$StrTraitMFC_DLL@DV?$ChTraitsCRT@D@ATL@@@@@ATL@@@Z$18
	DD	05H
	DD	FLAT:__unwindfunclet$?SetVerticalScaleItem@CDataOfChartListPage@@AAEPAVCChartLink@@HV?$CStringT@DV?$StrTraitMFC_DLL@DV?$ChTraitsCRT@D@ATL@@@@@ATL@@@Z$20
	DD	05H
	DD	FLAT:__unwindfunclet$?SetVerticalScaleItem@CDataOfChartListPage@@AAEPAVCChartLink@@HV?$CStringT@DV?$StrTraitMFC_DLL@DV?$ChTraitsCRT@D@ATL@@@@@ATL@@@Z$22
	DD	05H
	DD	FLAT:__unwindfunclet$?SetVerticalScaleItem@CDataOfChartListPage@@AAEPAVCChartLink@@HV?$CStringT@DV?$StrTraitMFC_DLL@DV?$ChTraitsCRT@D@ATL@@@@@ATL@@@Z$24
	DD	05H
	DD	FLAT:__unwindfunclet$?SetVerticalScaleItem@CDataOfChartListPage@@AAEPAVCChartLink@@HV?$CStringT@DV?$StrTraitMFC_DLL@DV?$ChTraitsCRT@D@ATL@@@@@ATL@@@Z$26
	DD	05H
	DD	FLAT:__unwindfunclet$?SetVerticalScaleItem@CDataOfChartListPage@@AAEPAVCChartLink@@HV?$CStringT@DV?$StrTraitMFC_DLL@DV?$ChTraitsCRT@D@ATL@@@@@ATL@@@Z$28
	DD	05H
	DD	FLAT:__unwindfunclet$?SetVerticalScaleItem@CDataOfChartListPage@@AAEPAVCChartLink@@HV?$CStringT@DV?$StrTraitMFC_DLL@DV?$ChTraitsCRT@D@ATL@@@@@ATL@@@Z$30
xdata$x	ENDS
;	COMDAT xdata$x
xdata$x	SEGMENT
__ehfuncinfo$?SetItem@CDataOfChartListPage@@AAEXPAVCChartLink@@ABV?$CStringT@DV?$StrTraitMFC_DLL@DV?$ChTraitsCRT@D@ATL@@@@@ATL@@PAUIGraphInfoManager134661@@@Z DD 019930522H
	DD	025H
	DD	FLAT:__unwindtable$?SetItem@CDataOfChartListPage@@AAEXPAVCChartLink@@ABV?$CStringT@DV?$StrTraitMFC_DLL@DV?$ChTraitsCRT@D@ATL@@@@@ATL@@PAUIGraphInfoManager134661@@@Z
	DD	2 DUP(00H)
	DD	2 DUP(00H)
	DD	00H
	DD	01H
__unwindtable$?SetItem@CDataOfChartListPage@@AAEXPAVCChartLink@@ABV?$CStringT@DV?$StrTraitMFC_DLL@DV?$ChTraitsCRT@D@ATL@@@@@ATL@@PAUIGraphInfoManager134661@@@Z DD 0ffffffffH
	DD	FLAT:__unwindfunclet$?SetItem@CDataOfChartListPage@@AAEXPAVCChartLink@@ABV?$CStringT@DV?$StrTraitMFC_DLL@DV?$ChTraitsCRT@D@ATL@@@@@ATL@@PAUIGraphInfoManager134661@@@Z$0
	DD	00H
	DD	FLAT:__unwindfunclet$?SetItem@CDataOfChartListPage@@AAEXPAVCChartLink@@ABV?$CStringT@DV?$StrTraitMFC_DLL@DV?$ChTraitsCRT@D@ATL@@@@@ATL@@PAUIGraphInfoManager134661@@@Z$1
	DD	01H
	DD	FLAT:__unwindfunclet$?SetItem@CDataOfChartListPage@@AAEXPAVCChartLink@@ABV?$CStringT@DV?$StrTraitMFC_DLL@DV?$ChTraitsCRT@D@ATL@@@@@ATL@@PAUIGraphInfoManager134661@@@Z$2
	DD	00H
	DD	FLAT:__unwindfunclet$?SetItem@CDataOfChartListPage@@AAEXPAVCChartLink@@ABV?$CStringT@DV?$StrTraitMFC_DLL@DV?$ChTraitsCRT@D@ATL@@@@@ATL@@PAUIGraphInfoManager134661@@@Z$2
	DD	03H
	DD	FLAT:__unwindfunclet$?SetItem@CDataOfChartListPage@@AAEXPAVCChartLink@@ABV?$CStringT@DV?$StrTraitMFC_DLL@DV?$ChTraitsCRT@D@ATL@@@@@ATL@@PAUIGraphInfoManager134661@@@Z$3
	DD	03H
	DD	FLAT:__unwindfunclet$?SetItem@CDataOfChartListPage@@AAEXPAVCChartLink@@ABV?$CStringT@DV?$StrTraitMFC_DLL@DV?$ChTraitsCRT@D@ATL@@@@@ATL@@PAUIGraphInfoManager134661@@@Z$5
	DD	05H
	DD	FLAT:__unwindfunclet$?SetItem@CDataOfChartListPage@@AAEXPAVCChartLink@@ABV?$CStringT@DV?$StrTraitMFC_DLL@DV?$ChTraitsCRT@D@ATL@@@@@ATL@@PAUIGraphInfoManager134661@@@Z$6
	DD	03H
	DD	FLAT:__unwindfunclet$?SetItem@CDataOfChartListPage@@AAEXPAVCChartLink@@ABV?$CStringT@DV?$StrTraitMFC_DLL@DV?$ChTraitsCRT@D@ATL@@@@@ATL@@PAUIGraphInfoManager134661@@@Z$6
	DD	07H
	DD	FLAT:__unwindfunclet$?SetItem@CDataOfChartListPage@@AAEXPAVCChartLink@@ABV?$CStringT@DV?$StrTraitMFC_DLL@DV?$ChTraitsCRT@D@ATL@@@@@ATL@@PAUIGraphInfoManager134661@@@Z$7
	DD	08H
	DD	FLAT:__unwindfunclet$?SetItem@CDataOfChartListPage@@AAEXPAVCChartLink@@ABV?$CStringT@DV?$StrTraitMFC_DLL@DV?$ChTraitsCRT@D@ATL@@@@@ATL@@PAUIGraphInfoManager134661@@@Z$8
	DD	08H
	DD	FLAT:__unwindfunclet$?SetItem@CDataOfChartListPage@@AAEXPAVCChartLink@@ABV?$CStringT@DV?$StrTraitMFC_DLL@DV?$ChTraitsCRT@D@ATL@@@@@ATL@@PAUIGraphInfoManager134661@@@Z$9
	DD	0aH
	DD	FLAT:__unwindfunclet$?SetItem@CDataOfChartListPage@@AAEXPAVCChartLink@@ABV?$CStringT@DV?$StrTraitMFC_DLL@DV?$ChTraitsCRT@D@ATL@@@@@ATL@@PAUIGraphInfoManager134661@@@Z$10
	DD	0bH
	DD	FLAT:__unwindfunclet$?SetItem@CDataOfChartListPage@@AAEXPAVCChartLink@@ABV?$CStringT@DV?$StrTraitMFC_DLL@DV?$ChTraitsCRT@D@ATL@@@@@ATL@@PAUIGraphInfoManager134661@@@Z$11
	DD	08H
	DD	FLAT:__unwindfunclet$?SetItem@CDataOfChartListPage@@AAEXPAVCChartLink@@ABV?$CStringT@DV?$StrTraitMFC_DLL@DV?$ChTraitsCRT@D@ATL@@@@@ATL@@PAUIGraphInfoManager134661@@@Z$12
	DD	0dH
	DD	FLAT:__unwindfunclet$?SetItem@CDataOfChartListPage@@AAEXPAVCChartLink@@ABV?$CStringT@DV?$StrTraitMFC_DLL@DV?$ChTraitsCRT@D@ATL@@@@@ATL@@PAUIGraphInfoManager134661@@@Z$13
	DD	08H
	DD	FLAT:__unwindfunclet$?SetItem@CDataOfChartListPage@@AAEXPAVCChartLink@@ABV?$CStringT@DV?$StrTraitMFC_DLL@DV?$ChTraitsCRT@D@ATL@@@@@ATL@@PAUIGraphInfoManager134661@@@Z$13
	DD	0fH
	DD	FLAT:__unwindfunclet$?SetItem@CDataOfChartListPage@@AAEXPAVCChartLink@@ABV?$CStringT@DV?$StrTraitMFC_DLL@DV?$ChTraitsCRT@D@ATL@@@@@ATL@@PAUIGraphInfoManager134661@@@Z$14
	DD	010H
	DD	FLAT:__unwindfunclet$?SetItem@CDataOfChartListPage@@AAEXPAVCChartLink@@ABV?$CStringT@DV?$StrTraitMFC_DLL@DV?$ChTraitsCRT@D@ATL@@@@@ATL@@PAUIGraphInfoManager134661@@@Z$15
	DD	011H
	DD	FLAT:__unwindfunclet$?SetItem@CDataOfChartListPage@@AAEXPAVCChartLink@@ABV?$CStringT@DV?$StrTraitMFC_DLL@DV?$ChTraitsCRT@D@ATL@@@@@ATL@@PAUIGraphInfoManager134661@@@Z$29
	DD	012H
	DD	FLAT:__unwindfunclet$?SetItem@CDataOfChartListPage@@AAEXPAVCChartLink@@ABV?$CStringT@DV?$StrTraitMFC_DLL@DV?$ChTraitsCRT@D@ATL@@@@@ATL@@PAUIGraphInfoManager134661@@@Z$31
	DD	013H
	DD	FLAT:__unwindfunclet$?SetItem@CDataOfChartListPage@@AAEXPAVCChartLink@@ABV?$CStringT@DV?$StrTraitMFC_DLL@DV?$ChTraitsCRT@D@ATL@@@@@ATL@@PAUIGraphInfoManager134661@@@Z$32
	DD	012H
	DD	FLAT:__unwindfunclet$?SetItem@CDataOfChartListPage@@AAEXPAVCChartLink@@ABV?$CStringT@DV?$StrTraitMFC_DLL@DV?$ChTraitsCRT@D@ATL@@@@@ATL@@PAUIGraphInfoManager134661@@@Z$33
	DD	015H
	DD	FLAT:__unwindfunclet$?SetItem@CDataOfChartListPage@@AAEXPAVCChartLink@@ABV?$CStringT@DV?$StrTraitMFC_DLL@DV?$ChTraitsCRT@D@ATL@@@@@ATL@@PAUIGraphInfoManager134661@@@Z$34
	DD	0fH
	DD	FLAT:__unwindfunclet$?SetItem@CDataOfChartListPage@@AAEXPAVCChartLink@@ABV?$CStringT@DV?$StrTraitMFC_DLL@DV?$ChTraitsCRT@D@ATL@@@@@ATL@@PAUIGraphInfoManager134661@@@Z$16
	DD	017H
	DD	FLAT:__unwindfunclet$?SetItem@CDataOfChartListPage@@AAEXPAVCChartLink@@ABV?$CStringT@DV?$StrTraitMFC_DLL@DV?$ChTraitsCRT@D@ATL@@@@@ATL@@PAUIGraphInfoManager134661@@@Z$17
	DD	0fH
	DD	FLAT:__unwindfunclet$?SetItem@CDataOfChartListPage@@AAEXPAVCChartLink@@ABV?$CStringT@DV?$StrTraitMFC_DLL@DV?$ChTraitsCRT@D@ATL@@@@@ATL@@PAUIGraphInfoManager134661@@@Z$18
	DD	019H
	DD	FLAT:__unwindfunclet$?SetItem@CDataOfChartListPage@@AAEXPAVCChartLink@@ABV?$CStringT@DV?$StrTraitMFC_DLL@DV?$ChTraitsCRT@D@ATL@@@@@ATL@@PAUIGraphInfoManager134661@@@Z$19
	DD	0fH
	DD	FLAT:__unwindfunclet$?SetItem@CDataOfChartListPage@@AAEXPAVCChartLink@@ABV?$CStringT@DV?$StrTraitMFC_DLL@DV?$ChTraitsCRT@D@ATL@@@@@ATL@@PAUIGraphInfoManager134661@@@Z$20
	DD	01bH
	DD	FLAT:__unwindfunclet$?SetItem@CDataOfChartListPage@@AAEXPAVCChartLink@@ABV?$CStringT@DV?$StrTraitMFC_DLL@DV?$ChTraitsCRT@D@ATL@@@@@ATL@@PAUIGraphInfoManager134661@@@Z$21
	DD	0fH
	DD	FLAT:__unwindfunclet$?SetItem@CDataOfChartListPage@@AAEXPAVCChartLink@@ABV?$CStringT@DV?$StrTraitMFC_DLL@DV?$ChTraitsCRT@D@ATL@@@@@ATL@@PAUIGraphInfoManager134661@@@Z$22
	DD	01dH
	DD	FLAT:__unwindfunclet$?SetItem@CDataOfChartListPage@@AAEXPAVCChartLink@@ABV?$CStringT@DV?$StrTraitMFC_DLL@DV?$ChTraitsCRT@D@ATL@@@@@ATL@@PAUIGraphInfoManager134661@@@Z$23
	DD	0fH
	DD	FLAT:__unwindfunclet$?SetItem@CDataOfChartListPage@@AAEXPAVCChartLink@@ABV?$CStringT@DV?$StrTraitMFC_DLL@DV?$ChTraitsCRT@D@ATL@@@@@ATL@@PAUIGraphInfoManager134661@@@Z$24
	DD	0fH
	DD	FLAT:__unwindfunclet$?SetItem@CDataOfChartListPage@@AAEXPAVCChartLink@@ABV?$CStringT@DV?$StrTraitMFC_DLL@DV?$ChTraitsCRT@D@ATL@@@@@ATL@@PAUIGraphInfoManager134661@@@Z$26
	DD	020H
	DD	FLAT:__unwindfunclet$?SetItem@CDataOfChartListPage@@AAEXPAVCChartLink@@ABV?$CStringT@DV?$StrTraitMFC_DLL@DV?$ChTraitsCRT@D@ATL@@@@@ATL@@PAUIGraphInfoManager134661@@@Z$36
	DD	021H
	DD	FLAT:__unwindfunclet$?SetItem@CDataOfChartListPage@@AAEXPAVCChartLink@@ABV?$CStringT@DV?$StrTraitMFC_DLL@DV?$ChTraitsCRT@D@ATL@@@@@ATL@@PAUIGraphInfoManager134661@@@Z$37
	DD	020H
	DD	FLAT:__unwindfunclet$?SetItem@CDataOfChartListPage@@AAEXPAVCChartLink@@ABV?$CStringT@DV?$StrTraitMFC_DLL@DV?$ChTraitsCRT@D@ATL@@@@@ATL@@PAUIGraphInfoManager134661@@@Z$27
	DD	020H
	DD	FLAT:__unwindfunclet$?SetItem@CDataOfChartListPage@@AAEXPAVCChartLink@@ABV?$CStringT@DV?$StrTraitMFC_DLL@DV?$ChTraitsCRT@D@ATL@@@@@ATL@@PAUIGraphInfoManager134661@@@Z$28
xdata$x	ENDS
;	COMDAT xdata$x
xdata$x	SEGMENT
__unwindtable$?GetGraphType@CDataOfChartListPage@@AAE?AV?$CStringT@DV?$StrTraitMFC_DLL@DV?$ChTraitsCRT@D@ATL@@@@@ATL@@ABV23@PAUIGraphInfoManager134661@@@Z DD 0ffffffffH
	DD	FLAT:__unwindfunclet$?GetGraphType@CDataOfChartListPage@@AAE?AV?$CStringT@DV?$StrTraitMFC_DLL@DV?$ChTraitsCRT@D@ATL@@@@@ATL@@ABV23@PAUIGraphInfoManager134661@@@Z$1
	DD	00H
	DD	FLAT:__unwindfunclet$?GetGraphType@CDataOfChartListPage@@AAE?AV?$CStringT@DV?$StrTraitMFC_DLL@DV?$ChTraitsCRT@D@ATL@@@@@ATL@@ABV23@PAUIGraphInfoManager134661@@@Z$2
__ehfuncinfo$?GetGraphType@CDataOfChartListPage@@AAE?AV?$CStringT@DV?$StrTraitMFC_DLL@DV?$ChTraitsCRT@D@ATL@@@@@ATL@@ABV23@PAUIGraphInfoManager134661@@@Z DD 019930522H
	DD	02H
	DD	FLAT:__unwindtable$?GetGraphType@CDataOfChartListPage@@AAE?AV?$CStringT@DV?$StrTraitMFC_DLL@DV?$ChTraitsCRT@D@ATL@@@@@ATL@@ABV23@PAUIGraphInfoManager134661@@@Z
	DD	2 DUP(00H)
	DD	2 DUP(00H)
	DD	00H
	DD	01H
xdata$x	ENDS
;	COMDAT xdata$x
xdata$x	SEGMENT
__ehfuncinfo$?SetData@CDataOfChartListPage@@QAEXABV?$CStringT@DV?$StrTraitMFC_DLL@DV?$ChTraitsCRT@D@ATL@@@@@ATL@@PAUIGraphInfoManager134661@@@Z DD 019930522H
	DD	01cH
	DD	FLAT:__unwindtable$?SetData@CDataOfChartListPage@@QAEXABV?$CStringT@DV?$StrTraitMFC_DLL@DV?$ChTraitsCRT@D@ATL@@@@@ATL@@PAUIGraphInfoManager134661@@@Z
	DD	2 DUP(00H)
	DD	2 DUP(00H)
	DD	00H
	DD	01H
__unwindtable$?SetData@CDataOfChartListPage@@QAEXABV?$CStringT@DV?$StrTraitMFC_DLL@DV?$ChTraitsCRT@D@ATL@@@@@ATL@@PAUIGraphInfoManager134661@@@Z DD 0ffffffffH
	DD	FLAT:__unwindfunclet$?SetData@CDataOfChartListPage@@QAEXABV?$CStringT@DV?$StrTraitMFC_DLL@DV?$ChTraitsCRT@D@ATL@@@@@ATL@@PAUIGraphInfoManager134661@@@Z$0
	DD	00H
	DD	FLAT:__unwindfunclet$?SetData@CDataOfChartListPage@@QAEXABV?$CStringT@DV?$StrTraitMFC_DLL@DV?$ChTraitsCRT@D@ATL@@@@@ATL@@PAUIGraphInfoManager134661@@@Z$1
	DD	00H
	DD	FLAT:__unwindfunclet$?SetData@CDataOfChartListPage@@QAEXABV?$CStringT@DV?$StrTraitMFC_DLL@DV?$ChTraitsCRT@D@ATL@@@@@ATL@@PAUIGraphInfoManager134661@@@Z$3
	DD	00H
	DD	FLAT:__unwindfunclet$?SetData@CDataOfChartListPage@@QAEXABV?$CStringT@DV?$StrTraitMFC_DLL@DV?$ChTraitsCRT@D@ATL@@@@@ATL@@PAUIGraphInfoManager134661@@@Z$4
	DD	00H
	DD	FLAT:__unwindfunclet$?SetData@CDataOfChartListPage@@QAEXABV?$CStringT@DV?$StrTraitMFC_DLL@DV?$ChTraitsCRT@D@ATL@@@@@ATL@@PAUIGraphInfoManager134661@@@Z$6
	DD	04H
	DD	FLAT:__unwindfunclet$?SetData@CDataOfChartListPage@@QAEXABV?$CStringT@DV?$StrTraitMFC_DLL@DV?$ChTraitsCRT@D@ATL@@@@@ATL@@PAUIGraphInfoManager134661@@@Z$7
	DD	00H
	DD	FLAT:__unwindfunclet$?SetData@CDataOfChartListPage@@QAEXABV?$CStringT@DV?$StrTraitMFC_DLL@DV?$ChTraitsCRT@D@ATL@@@@@ATL@@PAUIGraphInfoManager134661@@@Z$7
	DD	06H
	DD	FLAT:__unwindfunclet$?SetData@CDataOfChartListPage@@QAEXABV?$CStringT@DV?$StrTraitMFC_DLL@DV?$ChTraitsCRT@D@ATL@@@@@ATL@@PAUIGraphInfoManager134661@@@Z$8
	DD	06H
	DD	FLAT:__unwindfunclet$?SetData@CDataOfChartListPage@@QAEXABV?$CStringT@DV?$StrTraitMFC_DLL@DV?$ChTraitsCRT@D@ATL@@@@@ATL@@PAUIGraphInfoManager134661@@@Z$10
	DD	06H
	DD	FLAT:__unwindfunclet$?SetData@CDataOfChartListPage@@QAEXABV?$CStringT@DV?$StrTraitMFC_DLL@DV?$ChTraitsCRT@D@ATL@@@@@ATL@@PAUIGraphInfoManager134661@@@Z$11
	DD	06H
	DD	FLAT:__unwindfunclet$?SetData@CDataOfChartListPage@@QAEXABV?$CStringT@DV?$StrTraitMFC_DLL@DV?$ChTraitsCRT@D@ATL@@@@@ATL@@PAUIGraphInfoManager134661@@@Z$13
	DD	0aH
	DD	FLAT:__unwindfunclet$?SetData@CDataOfChartListPage@@QAEXABV?$CStringT@DV?$StrTraitMFC_DLL@DV?$ChTraitsCRT@D@ATL@@@@@ATL@@PAUIGraphInfoManager134661@@@Z$14
	DD	06H
	DD	FLAT:__unwindfunclet$?SetData@CDataOfChartListPage@@QAEXABV?$CStringT@DV?$StrTraitMFC_DLL@DV?$ChTraitsCRT@D@ATL@@@@@ATL@@PAUIGraphInfoManager134661@@@Z$14
	DD	0cH
	DD	FLAT:__unwindfunclet$?SetData@CDataOfChartListPage@@QAEXABV?$CStringT@DV?$StrTraitMFC_DLL@DV?$ChTraitsCRT@D@ATL@@@@@ATL@@PAUIGraphInfoManager134661@@@Z$15
	DD	0cH
	DD	FLAT:__unwindfunclet$?SetData@CDataOfChartListPage@@QAEXABV?$CStringT@DV?$StrTraitMFC_DLL@DV?$ChTraitsCRT@D@ATL@@@@@ATL@@PAUIGraphInfoManager134661@@@Z$17
	DD	0cH
	DD	FLAT:__unwindfunclet$?SetData@CDataOfChartListPage@@QAEXABV?$CStringT@DV?$StrTraitMFC_DLL@DV?$ChTraitsCRT@D@ATL@@@@@ATL@@PAUIGraphInfoManager134661@@@Z$18
	DD	0cH
	DD	FLAT:__unwindfunclet$?SetData@CDataOfChartListPage@@QAEXABV?$CStringT@DV?$StrTraitMFC_DLL@DV?$ChTraitsCRT@D@ATL@@@@@ATL@@PAUIGraphInfoManager134661@@@Z$20
	DD	010H
	DD	FLAT:__unwindfunclet$?SetData@CDataOfChartListPage@@QAEXABV?$CStringT@DV?$StrTraitMFC_DLL@DV?$ChTraitsCRT@D@ATL@@@@@ATL@@PAUIGraphInfoManager134661@@@Z$21
	DD	0cH
	DD	FLAT:__unwindfunclet$?SetData@CDataOfChartListPage@@QAEXABV?$CStringT@DV?$StrTraitMFC_DLL@DV?$ChTraitsCRT@D@ATL@@@@@ATL@@PAUIGraphInfoManager134661@@@Z$21
	DD	00H
	DD	FLAT:__unwindfunclet$?SetData@CDataOfChartListPage@@QAEXABV?$CStringT@DV?$StrTraitMFC_DLL@DV?$ChTraitsCRT@D@ATL@@@@@ATL@@PAUIGraphInfoManager134661@@@Z$22
	DD	00H
	DD	FLAT:__unwindfunclet$?SetData@CDataOfChartListPage@@QAEXABV?$CStringT@DV?$StrTraitMFC_DLL@DV?$ChTraitsCRT@D@ATL@@@@@ATL@@PAUIGraphInfoManager134661@@@Z$24
	DD	00H
	DD	FLAT:__unwindfunclet$?SetData@CDataOfChartListPage@@QAEXABV?$CStringT@DV?$StrTraitMFC_DLL@DV?$ChTraitsCRT@D@ATL@@@@@ATL@@PAUIGraphInfoManager134661@@@Z$25
	DD	015H
	DD	FLAT:__unwindfunclet$?SetData@CDataOfChartListPage@@QAEXABV?$CStringT@DV?$StrTraitMFC_DLL@DV?$ChTraitsCRT@D@ATL@@@@@ATL@@PAUIGraphInfoManager134661@@@Z$26
	DD	00H
	DD	FLAT:__unwindfunclet$?SetData@CDataOfChartListPage@@QAEXABV?$CStringT@DV?$StrTraitMFC_DLL@DV?$ChTraitsCRT@D@ATL@@@@@ATL@@PAUIGraphInfoManager134661@@@Z$26
	DD	017H
	DD	FLAT:__unwindfunclet$?SetData@CDataOfChartListPage@@QAEXABV?$CStringT@DV?$StrTraitMFC_DLL@DV?$ChTraitsCRT@D@ATL@@@@@ATL@@PAUIGraphInfoManager134661@@@Z$27
	DD	017H
	DD	FLAT:__unwindfunclet$?SetData@CDataOfChartListPage@@QAEXABV?$CStringT@DV?$StrTraitMFC_DLL@DV?$ChTraitsCRT@D@ATL@@@@@ATL@@PAUIGraphInfoManager134661@@@Z$28
	DD	017H
	DD	FLAT:__unwindfunclet$?SetData@CDataOfChartListPage@@QAEXABV?$CStringT@DV?$StrTraitMFC_DLL@DV?$ChTraitsCRT@D@ATL@@@@@ATL@@PAUIGraphInfoManager134661@@@Z$31
	DD	01aH
	DD	FLAT:__unwindfunclet$?SetData@CDataOfChartListPage@@QAEXABV?$CStringT@DV?$StrTraitMFC_DLL@DV?$ChTraitsCRT@D@ATL@@@@@ATL@@PAUIGraphInfoManager134661@@@Z$32
xdata$x	ENDS
;	COMDAT xdata$x
xdata$x	SEGMENT
__unwindtable$?GetBlockandGraphAllData@CDataOfChartListPage@@QAE?AV?$CStringT@DV?$StrTraitMFC_DLL@DV?$ChTraitsCRT@D@ATL@@@@@ATL@@PAVCChartLink@@@Z DD 0ffffffffH
	DD	FLAT:__unwindfunclet$?GetBlockandGraphAllData@CDataOfChartListPage@@QAE?AV?$CStringT@DV?$StrTraitMFC_DLL@DV?$ChTraitsCRT@D@ATL@@@@@ATL@@PAVCChartLink@@@Z$0
	DD	00H
	DD	FLAT:__unwindfunclet$?GetBlockandGraphAllData@CDataOfChartListPage@@QAE?AV?$CStringT@DV?$StrTraitMFC_DLL@DV?$ChTraitsCRT@D@ATL@@@@@ATL@@PAVCChartLink@@@Z$2
	DD	00H
	DD	FLAT:__unwindfunclet$?GetBlockandGraphAllData@CDataOfChartListPage@@QAE?AV?$CStringT@DV?$StrTraitMFC_DLL@DV?$ChTraitsCRT@D@ATL@@@@@ATL@@PAVCChartLink@@@Z$3
	DD	00H
	DD	FLAT:__unwindfunclet$?GetBlockandGraphAllData@CDataOfChartListPage@@QAE?AV?$CStringT@DV?$StrTraitMFC_DLL@DV?$ChTraitsCRT@D@ATL@@@@@ATL@@PAVCChartLink@@@Z$4
__ehfuncinfo$?GetBlockandGraphAllData@CDataOfChartListPage@@QAE?AV?$CStringT@DV?$StrTraitMFC_DLL@DV?$ChTraitsCRT@D@ATL@@@@@ATL@@PAVCChartLink@@@Z DD 019930522H
	DD	04H
	DD	FLAT:__unwindtable$?GetBlockandGraphAllData@CDataOfChartListPage@@QAE?AV?$CStringT@DV?$StrTraitMFC_DLL@DV?$ChTraitsCRT@D@ATL@@@@@ATL@@PAVCChartLink@@@Z
	DD	2 DUP(00H)
	DD	2 DUP(00H)
	DD	00H
	DD	01H
xdata$x	ENDS
;	COMDAT xdata$x
xdata$x	SEGMENT
__unwindtable$??HATL@@YA?AV?$CStringT@DV?$StrTraitMFC_DLL@DV?$ChTraitsCRT@D@ATL@@@@@0@PBDABV10@@Z DD 0ffffffffH
	DD	FLAT:__unwindfunclet$??HATL@@YA?AV?$CStringT@DV?$StrTraitMFC_DLL@DV?$ChTraitsCRT@D@ATL@@@@@0@PBDABV10@@Z$0
__ehfuncinfo$??HATL@@YA?AV?$CStringT@DV?$StrTraitMFC_DLL@DV?$ChTraitsCRT@D@ATL@@@@@0@PBDABV10@@Z DD 019930522H
	DD	01H
	DD	FLAT:__unwindtable$??HATL@@YA?AV?$CStringT@DV?$StrTraitMFC_DLL@DV?$ChTraitsCRT@D@ATL@@@@@0@PBDABV10@@Z
	DD	2 DUP(00H)
	DD	2 DUP(00H)
	DD	00H
	DD	01H
xdata$x	ENDS
;	COMDAT xdata$x
xdata$x	SEGMENT
__unwindtable$??HATL@@YA?AV?$CStringT@DV?$StrTraitMFC_DLL@DV?$ChTraitsCRT@D@ATL@@@@@0@ABV10@PBD@Z DD 0ffffffffH
	DD	FLAT:__unwindfunclet$??HATL@@YA?AV?$CStringT@DV?$StrTraitMFC_DLL@DV?$ChTraitsCRT@D@ATL@@@@@0@ABV10@PBD@Z$0
__ehfuncinfo$??HATL@@YA?AV?$CStringT@DV?$StrTraitMFC_DLL@DV?$ChTraitsCRT@D@ATL@@@@@0@ABV10@PBD@Z DD 019930522H
	DD	01H
	DD	FLAT:__unwindtable$??HATL@@YA?AV?$CStringT@DV?$StrTraitMFC_DLL@DV?$ChTraitsCRT@D@ATL@@@@@0@ABV10@PBD@Z
	DD	2 DUP(00H)
	DD	2 DUP(00H)
	DD	00H
	DD	01H
xdata$x	ENDS
; Function compile flags: /Ogtp
;	COMDAT ??_GCDataOfChartListPage@@UAEPAXI@Z
_TEXT	SEGMENT
___flags$ = 8						; size = 4
??_GCDataOfChartListPage@@UAEPAXI@Z PROC		; CDataOfChartListPage::`scalar deleting destructor', COMDAT
; _this$ = ecx
  00000	55		 push	 ebp
  00001	8b ec		 mov	 ebp, esp
  00003	f6 45 08 01	 test	 BYTE PTR ___flags$[ebp], 1
  00007	56		 push	 esi
  00008	8b f1		 mov	 esi, ecx
  0000a	c7 06 00 00 00
	00		 mov	 DWORD PTR [esi], OFFSET ??_7CDataOfChartListPage@@6B@
  00010	74 0b		 je	 SHORT $LN4@scalar
  00012	6a 14		 push	 20			; 00000014H
  00014	56		 push	 esi
  00015	e8 00 00 00 00	 call	 ??3@YAXPAXI@Z		; operator delete
  0001a	83 c4 08	 add	 esp, 8
$LN4@scalar:
  0001d	8b c6		 mov	 eax, esi
  0001f	5e		 pop	 esi
  00020	5d		 pop	 ebp
  00021	c2 04 00	 ret	 4
??_GCDataOfChartListPage@@UAEPAXI@Z ENDP		; CDataOfChartListPage::`scalar deleting destructor'
_TEXT	ENDS
; Function compile flags: /Ogtp
; File D:\git\src\IBK\IBK_DRFN\ProjSrc\SrcChartEx\ChartAddIn\ChartDesignPropertyAddIn\ChartDesignPropertyAddIn\DataOfChartListPage.cpp
; File C:\Program Files (x86)\Microsoft Visual Studio\2019\Community\VC\Tools\MSVC\14.29.30133\atlmfc\include\atlsimpstr.h
; File C:\Program Files (x86)\Microsoft Visual Studio\2019\Community\VC\Tools\MSVC\14.29.30133\atlmfc\include\cstringt.h
; File D:\git\src\IBK\IBK_DRFN\ProjSrc\SrcChartEx\ChartAddIn\ChartDesignPropertyAddIn\ChartDesignPropertyAddIn\DataOfChartListPage.cpp
;	COMDAT ?GetSignalData@CDataOfChartListPage@@AAEXABV?$CStringT@DV?$StrTraitMFC_DLL@DV?$ChTraitsCRT@D@ATL@@@@@ATL@@AA_N1@Z
_TEXT	SEGMENT
__$EHRec$ = -12						; size = 12
$T2 = 8							; size = 4
$T3 = 8							; size = 4
_strData$ = 8						; size = 4
$T4 = 12						; size = 4
$T5 = 12						; size = 4
$T6 = 12						; size = 4
_bSignalUse$ = 12					; size = 4
_strRealData$ = 16					; size = 4
_bSignalShow$ = 16					; size = 4
?GetSignalData@CDataOfChartListPage@@AAEXABV?$CStringT@DV?$StrTraitMFC_DLL@DV?$ChTraitsCRT@D@ATL@@@@@ATL@@AA_N1@Z PROC ; CDataOfChartListPage::GetSignalData, COMDAT
; _this$ = ecx

; 70   : {

  00000	55		 push	 ebp
  00001	8b ec		 mov	 ebp, esp
  00003	6a ff		 push	 -1
  00005	68 00 00 00 00	 push	 __ehhandler$?GetSignalData@CDataOfChartListPage@@AAEXABV?$CStringT@DV?$StrTraitMFC_DLL@DV?$ChTraitsCRT@D@ATL@@@@@ATL@@AA_N1@Z
  0000a	64 a1 00 00 00
	00		 mov	 eax, DWORD PTR fs:0
  00010	50		 push	 eax
  00011	56		 push	 esi
  00012	57		 push	 edi
  00013	a1 00 00 00 00	 mov	 eax, DWORD PTR ___security_cookie
  00018	33 c5		 xor	 eax, ebp
  0001a	50		 push	 eax
  0001b	8d 45 f4	 lea	 eax, DWORD PTR __$EHRec$[ebp]
  0001e	64 a3 00 00 00
	00		 mov	 DWORD PTR fs:0, eax

; 71   : 	bSignalUse = bSignalShow = false;

  00024	8b 75 10	 mov	 esi, DWORD PTR _bSignalShow$[ebp]

; 72   : 
; 73   : 	CString strRealData = strData;

  00027	8d 4d 10	 lea	 ecx, DWORD PTR _strRealData$[ebp]
  0002a	8b 7d 0c	 mov	 edi, DWORD PTR _bSignalUse$[ebp]
  0002d	ff 75 08	 push	 DWORD PTR _strData$[ebp]
  00030	c6 06 00	 mov	 BYTE PTR [esi], 0
  00033	c6 07 00	 mov	 BYTE PTR [edi], 0
  00036	ff 15 00 00 00
	00		 call	 DWORD PTR __imp_??0?$CStringT@DV?$StrTraitMFC_DLL@DV?$ChTraitsCRT@D@ATL@@@@@ATL@@QAE@ABV01@@Z

; 74   : 	if(strRealData.Right(1) != ';')

  0003c	6a 01		 push	 1
  0003e	8d 45 0c	 lea	 eax, DWORD PTR $T6[ebp]
  00041	c7 45 fc 00 00
	00 00		 mov	 DWORD PTR __$EHRec$[ebp+8], 0
  00048	50		 push	 eax
  00049	8d 4d 10	 lea	 ecx, DWORD PTR _strRealData$[ebp]
  0004c	ff 15 00 00 00
	00		 call	 DWORD PTR __imp_?Right@?$CStringT@DV?$StrTraitMFC_DLL@DV?$ChTraitsCRT@D@ATL@@@@@ATL@@QBE?AV12@H@Z
; File C:\Program Files (x86)\Microsoft Visual Studio\2019\Community\VC\Tools\MSVC\14.29.30133\atlmfc\include\atlsimpstr.h

; 519  : 		return( GetData()->nDataLength );

  00052	8b 08		 mov	 ecx, DWORD PTR [eax]
; File C:\Program Files (x86)\Microsoft Visual Studio\2019\Community\VC\Tools\MSVC\14.29.30133\atlmfc\include\cstringt.h

; 2699 : 		return((str1.GetLength() != 1) || (str1[0] != ch2));

  00054	83 79 f4 01	 cmp	 DWORD PTR [ecx-12], 1
  00058	75 19		 jne	 SHORT $LN12@GetSignalD
  0005a	6a 00		 push	 0
  0005c	8b c8		 mov	 ecx, eax
  0005e	ff 15 00 00 00
	00		 call	 DWORD PTR __imp_??A?$CSimpleStringT@D$00@ATL@@QBEDH@Z
  00064	3c 3b		 cmp	 al, 59			; 0000003bH
  00066	75 0b		 jne	 SHORT $LN12@GetSignalD
  00068	8d 4d 0c	 lea	 ecx, DWORD PTR $T6[ebp]
  0006b	ff 15 00 00 00
	00		 call	 DWORD PTR __imp_??1?$CStringT@DV?$StrTraitMFC_DLL@DV?$ChTraitsCRT@D@ATL@@@@@ATL@@QAE@XZ
  00071	eb 17		 jmp	 SHORT $LN2@GetSignalD
$LN12@GetSignalD:
  00073	8d 4d 0c	 lea	 ecx, DWORD PTR $T6[ebp]
  00076	ff 15 00 00 00
	00		 call	 DWORD PTR __imp_??1?$CStringT@DV?$StrTraitMFC_DLL@DV?$ChTraitsCRT@D@ATL@@@@@ATL@@QAE@XZ
; File D:\git\src\IBK\IBK_DRFN\ProjSrc\SrcChartEx\ChartAddIn\ChartDesignPropertyAddIn\ChartDesignPropertyAddIn\DataOfChartListPage.cpp

; 75   : 		strRealData += ";";

  0007c	68 00 00 00 00	 push	 OFFSET ??_C@_01ICJEACDI@?$DL@
  00081	8d 4d 10	 lea	 ecx, DWORD PTR _strRealData$[ebp]
  00084	ff 15 00 00 00
	00		 call	 DWORD PTR __imp_??Y?$CStringT@DV?$StrTraitMFC_DLL@DV?$ChTraitsCRT@D@ATL@@@@@ATL@@QAEAAV01@PBD@Z
$LN2@GetSignalD:

; 76   : 
; 77   : 	// "signal:signal;"
; 78   : 	// signal
; 79   : 	bSignalUse = CDataConversion::atob(CDataConversion::GetStringData(strRealData, ":"));

  0008a	68 00 00 00 00	 push	 OFFSET ??_C@_01JLIPDDHJ@?3@
  0008f	8d 4d 0c	 lea	 ecx, DWORD PTR $T5[ebp]
  00092	ff 15 00 00 00
	00		 call	 DWORD PTR __imp_??0?$CStringT@DV?$StrTraitMFC_DLL@DV?$ChTraitsCRT@D@ATL@@@@@ATL@@QAE@PBD@Z
  00098	6a 01		 push	 1
  0009a	8d 45 0c	 lea	 eax, DWORD PTR $T5[ebp]
  0009d	c6 45 fc 01	 mov	 BYTE PTR __$EHRec$[ebp+8], 1
  000a1	50		 push	 eax
  000a2	8d 45 10	 lea	 eax, DWORD PTR _strRealData$[ebp]
  000a5	50		 push	 eax
  000a6	8d 45 08	 lea	 eax, DWORD PTR $T3[ebp]
  000a9	50		 push	 eax
  000aa	e8 00 00 00 00	 call	 ?GetStringData@CDataConversion@@SA?AV?$CStringT@DV?$StrTraitMFC_DLL@DV?$ChTraitsCRT@D@ATL@@@@@ATL@@AAV23@ABV23@_N@Z ; CDataConversion::GetStringData
  000af	ff 30		 push	 DWORD PTR [eax]
  000b1	c6 45 fc 02	 mov	 BYTE PTR __$EHRec$[ebp+8], 2
  000b5	e8 00 00 00 00	 call	 ?atob@CDataConversion@@SA_NPBD@Z ; CDataConversion::atob
  000ba	83 c4 14	 add	 esp, 20			; 00000014H
  000bd	88 07		 mov	 BYTE PTR [edi], al
  000bf	8d 4d 08	 lea	 ecx, DWORD PTR $T3[ebp]
  000c2	ff 15 00 00 00
	00		 call	 DWORD PTR __imp_??1?$CStringT@DV?$StrTraitMFC_DLL@DV?$ChTraitsCRT@D@ATL@@@@@ATL@@QAE@XZ
  000c8	8d 4d 0c	 lea	 ecx, DWORD PTR $T5[ebp]
  000cb	c6 45 fc 00	 mov	 BYTE PTR __$EHRec$[ebp+8], 0
  000cf	ff 15 00 00 00
	00		 call	 DWORD PTR __imp_??1?$CStringT@DV?$StrTraitMFC_DLL@DV?$ChTraitsCRT@D@ATL@@@@@ATL@@QAE@XZ

; 80   : 	// signal
; 81   : 	bSignalShow = CDataConversion::atob(CDataConversion::GetStringData(strRealData, ';'));

  000d5	6a 01		 push	 1
  000d7	6a 3b		 push	 59			; 0000003bH
  000d9	8d 4d 0c	 lea	 ecx, DWORD PTR $T4[ebp]
  000dc	ff 15 00 00 00
	00		 call	 DWORD PTR __imp_??0?$CStringT@DV?$StrTraitMFC_DLL@DV?$ChTraitsCRT@D@ATL@@@@@ATL@@QAE@DH@Z
  000e2	6a 01		 push	 1
  000e4	8d 45 0c	 lea	 eax, DWORD PTR $T4[ebp]
  000e7	c6 45 fc 03	 mov	 BYTE PTR __$EHRec$[ebp+8], 3
  000eb	50		 push	 eax
  000ec	8d 45 10	 lea	 eax, DWORD PTR _strRealData$[ebp]
  000ef	50		 push	 eax
  000f0	8d 45 08	 lea	 eax, DWORD PTR $T2[ebp]
  000f3	50		 push	 eax
  000f4	e8 00 00 00 00	 call	 ?GetStringData@CDataConversion@@SA?AV?$CStringT@DV?$StrTraitMFC_DLL@DV?$ChTraitsCRT@D@ATL@@@@@ATL@@AAV23@ABV23@_N@Z ; CDataConversion::GetStringData
  000f9	ff 30		 push	 DWORD PTR [eax]
  000fb	c6 45 fc 04	 mov	 BYTE PTR __$EHRec$[ebp+8], 4
  000ff	e8 00 00 00 00	 call	 ?atob@CDataConversion@@SA_NPBD@Z ; CDataConversion::atob
  00104	83 c4 14	 add	 esp, 20			; 00000014H
  00107	88 06		 mov	 BYTE PTR [esi], al
  00109	8d 4d 08	 lea	 ecx, DWORD PTR $T2[ebp]
  0010c	ff 15 00 00 00
	00		 call	 DWORD PTR __imp_??1?$CStringT@DV?$StrTraitMFC_DLL@DV?$ChTraitsCRT@D@ATL@@@@@ATL@@QAE@XZ
  00112	8d 4d 0c	 lea	 ecx, DWORD PTR $T4[ebp]
  00115	ff 15 00 00 00
	00		 call	 DWORD PTR __imp_??1?$CStringT@DV?$StrTraitMFC_DLL@DV?$ChTraitsCRT@D@ATL@@@@@ATL@@QAE@XZ

; 82   : }

  0011b	8d 4d 10	 lea	 ecx, DWORD PTR _strRealData$[ebp]
  0011e	ff 15 00 00 00
	00		 call	 DWORD PTR __imp_??1?$CStringT@DV?$StrTraitMFC_DLL@DV?$ChTraitsCRT@D@ATL@@@@@ATL@@QAE@XZ
  00124	8b 4d f4	 mov	 ecx, DWORD PTR __$EHRec$[ebp]
  00127	64 89 0d 00 00
	00 00		 mov	 DWORD PTR fs:0, ecx
  0012e	59		 pop	 ecx
  0012f	5f		 pop	 edi
  00130	5e		 pop	 esi
  00131	8b e5		 mov	 esp, ebp
  00133	5d		 pop	 ebp
  00134	c2 0c 00	 ret	 12			; 0000000cH
_TEXT	ENDS
;	COMDAT text$x
text$x	SEGMENT
__unwindfunclet$?GetSignalData@CDataOfChartListPage@@AAEXABV?$CStringT@DV?$StrTraitMFC_DLL@DV?$ChTraitsCRT@D@ATL@@@@@ATL@@AA_N1@Z$0:
  00000	8d 4d 10	 lea	 ecx, DWORD PTR _strRealData$[ebp]
  00003	ff 25 00 00 00
	00		 jmp	 DWORD PTR __imp_??1?$CStringT@DV?$StrTraitMFC_DLL@DV?$ChTraitsCRT@D@ATL@@@@@ATL@@QAE@XZ
__unwindfunclet$?GetSignalData@CDataOfChartListPage@@AAEXABV?$CStringT@DV?$StrTraitMFC_DLL@DV?$ChTraitsCRT@D@ATL@@@@@ATL@@AA_N1@Z$2:
  00009	8d 4d 0c	 lea	 ecx, DWORD PTR $T5[ebp]
  0000c	ff 25 00 00 00
	00		 jmp	 DWORD PTR __imp_??1?$CStringT@DV?$StrTraitMFC_DLL@DV?$ChTraitsCRT@D@ATL@@@@@ATL@@QAE@XZ
__unwindfunclet$?GetSignalData@CDataOfChartListPage@@AAEXABV?$CStringT@DV?$StrTraitMFC_DLL@DV?$ChTraitsCRT@D@ATL@@@@@ATL@@AA_N1@Z$3:
  00012	8d 4d 08	 lea	 ecx, DWORD PTR $T3[ebp]
  00015	ff 25 00 00 00
	00		 jmp	 DWORD PTR __imp_??1?$CStringT@DV?$StrTraitMFC_DLL@DV?$ChTraitsCRT@D@ATL@@@@@ATL@@QAE@XZ
__unwindfunclet$?GetSignalData@CDataOfChartListPage@@AAEXABV?$CStringT@DV?$StrTraitMFC_DLL@DV?$ChTraitsCRT@D@ATL@@@@@ATL@@AA_N1@Z$4:
  0001b	8d 4d 0c	 lea	 ecx, DWORD PTR $T4[ebp]
  0001e	ff 25 00 00 00
	00		 jmp	 DWORD PTR __imp_??1?$CStringT@DV?$StrTraitMFC_DLL@DV?$ChTraitsCRT@D@ATL@@@@@ATL@@QAE@XZ
__unwindfunclet$?GetSignalData@CDataOfChartListPage@@AAEXABV?$CStringT@DV?$StrTraitMFC_DLL@DV?$ChTraitsCRT@D@ATL@@@@@ATL@@AA_N1@Z$5:
  00024	8d 4d 08	 lea	 ecx, DWORD PTR $T2[ebp]
  00027	ff 25 00 00 00
	00		 jmp	 DWORD PTR __imp_??1?$CStringT@DV?$StrTraitMFC_DLL@DV?$ChTraitsCRT@D@ATL@@@@@ATL@@QAE@XZ
  0002d	cc		 int	 3
  0002e	cc		 int	 3
  0002f	cc		 int	 3
  00030	cc		 int	 3
  00031	cc		 int	 3
__ehhandler$?GetSignalData@CDataOfChartListPage@@AAEXABV?$CStringT@DV?$StrTraitMFC_DLL@DV?$ChTraitsCRT@D@ATL@@@@@ATL@@AA_N1@Z:
  00032	90		 npad	 1
  00033	90		 npad	 1
  00034	8b 54 24 08	 mov	 edx, DWORD PTR [esp+8]
  00038	8d 42 0c	 lea	 eax, DWORD PTR [edx+12]
  0003b	8b 4a f4	 mov	 ecx, DWORD PTR [edx-12]
  0003e	33 c8		 xor	 ecx, eax
  00040	e8 00 00 00 00	 call	 @__security_check_cookie@4
  00045	b8 00 00 00 00	 mov	 eax, OFFSET __ehfuncinfo$?GetSignalData@CDataOfChartListPage@@AAEXABV?$CStringT@DV?$StrTraitMFC_DLL@DV?$ChTraitsCRT@D@ATL@@@@@ATL@@AA_N1@Z
  0004a	e9 00 00 00 00	 jmp	 ___CxxFrameHandler3
text$x	ENDS
?GetSignalData@CDataOfChartListPage@@AAEXABV?$CStringT@DV?$StrTraitMFC_DLL@DV?$ChTraitsCRT@D@ATL@@@@@ATL@@AA_N1@Z ENDP ; CDataOfChartListPage::GetSignalData
; Function compile flags: /Ogtp
; File D:\git\src\IBK\IBK_DRFN\ProjSrc\SrcChartEx\ChartAddIn\ChartDesignPropertyAddIn\ChartDesignPropertyAddIn\DataOfChartListPage.cpp
; File C:\Program Files (x86)\Microsoft Visual Studio\2019\Community\VC\Tools\MSVC\14.29.30133\atlmfc\include\atlsimpstr.h
; File D:\git\src\IBK\IBK_DRFN\ProjSrc\SrcChartEx\ChartAddIn\ChartDesignPropertyAddIn\ChartDesignPropertyAddIn\DataOfChartListPage.cpp
; File C:\Program Files (x86)\Microsoft Visual Studio\2019\Community\VC\Tools\MSVC\14.29.30133\atlmfc\include\atlsimpstr.h
; File D:\git\src\IBK\IBK_DRFN\ProjSrc\SrcChartEx\ChartAddIn\ChartDesignPropertyAddIn\ChartDesignPropertyAddIn\DataOfChartListPage.cpp
; File C:\Program Files (x86)\Microsoft Visual Studio\2019\Community\VC\Tools\MSVC\14.29.30133\atlmfc\include\atlsimpstr.h
; File D:\git\src\IBK\IBK_DRFN\ProjSrc\SrcChartEx\ChartAddIn\ChartDesignPropertyAddIn\ChartDesignPropertyAddIn\DataOfChartListPage.cpp
; File C:\Program Files (x86)\Microsoft Visual Studio\2019\Community\VC\Tools\MSVC\14.29.30133\atlmfc\include\cstringt.h
; File D:\git\src\IBK\IBK_DRFN\ProjSrc\SrcChartEx\ChartAddIn\ChartDesignPropertyAddIn\ChartDesignPropertyAddIn\DataOfChartListPage.cpp
; File C:\Program Files (x86)\Microsoft Visual Studio\2019\Community\VC\Tools\MSVC\14.29.30133\atlmfc\include\cstringt.h
; File C:\Program Files (x86)\Microsoft Visual Studio\2019\Community\VC\Tools\MSVC\14.29.30133\atlmfc\include\atlsimpstr.h
; File C:\Program Files (x86)\Microsoft Visual Studio\2019\Community\VC\Tools\MSVC\14.29.30133\atlmfc\include\cstringt.h
; File D:\git\src\IBK\IBK_DRFN\ProjSrc\SrcChartEx\ChartAddIn\ChartDesignPropertyAddIn\ChartDesignPropertyAddIn\DataOfChartListPage.cpp
; File C:\Program Files (x86)\Microsoft Visual Studio\2019\Community\VC\Tools\MSVC\14.29.30133\atlmfc\include\cstringt.h
; File D:\git\src\IBK\IBK_DRFN\ProjSrc\SrcChartEx\ChartAddIn\ChartDesignPropertyAddIn\ChartDesignPropertyAddIn\DataOfChartListPage.cpp
; File C:\Program Files (x86)\Microsoft Visual Studio\2019\Community\VC\Tools\MSVC\14.29.30133\atlmfc\include\cstringt.h
; File C:\Program Files (x86)\Microsoft Visual Studio\2019\Community\VC\Tools\MSVC\14.29.30133\atlmfc\include\atlsimpstr.h
; File C:\Program Files (x86)\Microsoft Visual Studio\2019\Community\VC\Tools\MSVC\14.29.30133\atlmfc\include\cstringt.h
; File D:\git\src\IBK\IBK_DRFN\ProjSrc\SrcChartEx\ChartAddIn\ChartDesignPropertyAddIn\ChartDesignPropertyAddIn\DataOfChartListPage.cpp
; File C:\Program Files (x86)\Microsoft Visual Studio\2019\Community\VC\Tools\MSVC\14.29.30133\atlmfc\include\cstringt.h
; File D:\git\src\IBK\IBK_DRFN\ProjSrc\SrcChartEx\ChartAddIn\ChartDesignPropertyAddIn\ChartDesignPropertyAddIn\DataOfChartListPage.cpp
; File C:\Program Files (x86)\Microsoft Visual Studio\2019\Community\VC\Tools\MSVC\14.29.30133\atlmfc\include\cstringt.h
; File C:\Program Files (x86)\Microsoft Visual Studio\2019\Community\VC\Tools\MSVC\14.29.30133\atlmfc\include\atlsimpstr.h
; File C:\Program Files (x86)\Microsoft Visual Studio\2019\Community\VC\Tools\MSVC\14.29.30133\atlmfc\include\cstringt.h
; File D:\git\src\IBK\IBK_DRFN\ProjSrc\SrcChartEx\ChartAddIn\ChartDesignPropertyAddIn\ChartDesignPropertyAddIn\DataOfChartListPage.cpp
; File C:\Program Files (x86)\Microsoft Visual Studio\2019\Community\VC\Tools\MSVC\14.29.30133\atlmfc\include\cstringt.h
; File D:\git\src\IBK\IBK_DRFN\ProjSrc\SrcChartEx\ChartAddIn\ChartDesignPropertyAddIn\ChartDesignPropertyAddIn\DataOfChartListPage.cpp
; File C:\Program Files (x86)\Microsoft Visual Studio\2019\Community\VC\Tools\MSVC\14.29.30133\atlmfc\include\cstringt.h
; File C:\Program Files (x86)\Microsoft Visual Studio\2019\Community\VC\Tools\MSVC\14.29.30133\atlmfc\include\atlsimpstr.h
; File C:\Program Files (x86)\Microsoft Visual Studio\2019\Community\VC\Tools\MSVC\14.29.30133\atlmfc\include\cstringt.h
; File D:\git\src\IBK\IBK_DRFN\ProjSrc\SrcChartEx\ChartAddIn\ChartDesignPropertyAddIn\ChartDesignPropertyAddIn\DataOfChartListPage.cpp
; File C:\Program Files (x86)\Microsoft Visual Studio\2019\Community\VC\Tools\MSVC\14.29.30133\atlmfc\include\cstringt.h
; File D:\git\src\IBK\IBK_DRFN\ProjSrc\SrcChartEx\ChartAddIn\ChartDesignPropertyAddIn\ChartDesignPropertyAddIn\DataOfChartListPage.cpp
; File C:\Program Files (x86)\Microsoft Visual Studio\2019\Community\VC\Tools\MSVC\14.29.30133\atlmfc\include\cstringt.h
; File C:\Program Files (x86)\Microsoft Visual Studio\2019\Community\VC\Tools\MSVC\14.29.30133\atlmfc\include\atlsimpstr.h
; File C:\Program Files (x86)\Microsoft Visual Studio\2019\Community\VC\Tools\MSVC\14.29.30133\atlmfc\include\cstringt.h
; File D:\git\src\IBK\IBK_DRFN\ProjSrc\SrcChartEx\ChartAddIn\ChartDesignPropertyAddIn\ChartDesignPropertyAddIn\DataOfChartListPage.cpp
; File C:\Program Files (x86)\Microsoft Visual Studio\2019\Community\VC\Tools\MSVC\14.29.30133\atlmfc\include\cstringt.h
; File D:\git\src\IBK\IBK_DRFN\ProjSrc\SrcChartEx\ChartAddIn\ChartDesignPropertyAddIn\ChartDesignPropertyAddIn\DataOfChartListPage.cpp
; File C:\Program Files (x86)\Microsoft Visual Studio\2019\Community\VC\Tools\MSVC\14.29.30133\atlmfc\include\cstringt.h
; File C:\Program Files (x86)\Microsoft Visual Studio\2019\Community\VC\Tools\MSVC\14.29.30133\atlmfc\include\atlsimpstr.h
; File C:\Program Files (x86)\Microsoft Visual Studio\2019\Community\VC\Tools\MSVC\14.29.30133\atlmfc\include\cstringt.h
; File D:\git\src\IBK\IBK_DRFN\ProjSrc\SrcChartEx\ChartAddIn\ChartDesignPropertyAddIn\ChartDesignPropertyAddIn\DataOfChartListPage.cpp
; File C:\Program Files (x86)\Microsoft Visual Studio\2019\Community\VC\Tools\MSVC\14.29.30133\atlmfc\include\cstringt.h
; File D:\git\src\IBK\IBK_DRFN\ProjSrc\SrcChartEx\ChartAddIn\ChartDesignPropertyAddIn\ChartDesignPropertyAddIn\DataOfChartListPage.cpp
; File C:\Program Files (x86)\Microsoft Visual Studio\2019\Community\VC\Tools\MSVC\14.29.30133\atlmfc\include\cstringt.h
; File C:\Program Files (x86)\Microsoft Visual Studio\2019\Community\VC\Tools\MSVC\14.29.30133\atlmfc\include\atlsimpstr.h
; File C:\Program Files (x86)\Microsoft Visual Studio\2019\Community\VC\Tools\MSVC\14.29.30133\atlmfc\include\cstringt.h
; File D:\git\src\IBK\IBK_DRFN\ProjSrc\SrcChartEx\ChartAddIn\ChartDesignPropertyAddIn\ChartDesignPropertyAddIn\DataOfChartListPage.cpp
;	COMDAT ?GetBlockAllData@CDataOfChartListPage@@AAE?AV?$CStringT@DV?$StrTraitMFC_DLL@DV?$ChTraitsCRT@D@ATL@@@@@ATL@@PAVCChartLink@@@Z
_TEXT	SEGMENT
$T2 = -24						; size = 4
$T3 = -24						; size = 4
$T4 = -24						; size = 4
$T5 = -24						; size = 4
_strScaleStyle$ = -20					; size = 4
$T6 = -16						; size = 4
__$EHRec$ = -12						; size = 12
___$ReturnUdt$ = 8					; size = 4
$T7 = 12						; size = 4
$T8 = 12						; size = 4
$T9 = 12						; size = 4
$T10 = 12						; size = 4
$T11 = 12						; size = 4
$T12 = 12						; size = 4
$T13 = 12						; size = 4
_pItem$ = 12						; size = 4
?GetBlockAllData@CDataOfChartListPage@@AAE?AV?$CStringT@DV?$StrTraitMFC_DLL@DV?$ChTraitsCRT@D@ATL@@@@@ATL@@PAVCChartLink@@@Z PROC ; CDataOfChartListPage::GetBlockAllData, COMDAT
; _this$ = ecx

; 139  : {

  00000	55		 push	 ebp
  00001	8b ec		 mov	 ebp, esp
  00003	6a ff		 push	 -1
  00005	68 00 00 00 00	 push	 __ehhandler$?GetBlockAllData@CDataOfChartListPage@@AAE?AV?$CStringT@DV?$StrTraitMFC_DLL@DV?$ChTraitsCRT@D@ATL@@@@@ATL@@PAVCChartLink@@@Z
  0000a	64 a1 00 00 00
	00		 mov	 eax, DWORD PTR fs:0
  00010	50		 push	 eax
  00011	83 ec 0c	 sub	 esp, 12			; 0000000cH
  00014	53		 push	 ebx
  00015	56		 push	 esi
  00016	57		 push	 edi
  00017	a1 00 00 00 00	 mov	 eax, DWORD PTR ___security_cookie
  0001c	33 c5		 xor	 eax, ebp
  0001e	50		 push	 eax
  0001f	8d 45 f4	 lea	 eax, DWORD PTR __$EHRec$[ebp]
  00022	64 a3 00 00 00
	00		 mov	 DWORD PTR fs:0, eax
  00028	8b f1		 mov	 esi, ecx
  0002a	c7 45 f0 00 00
	00 00		 mov	 DWORD PTR $T6[ebp], 0

; 140  : 	CString strValue = "";

  00031	8b 7d 08	 mov	 edi, DWORD PTR ___$ReturnUdt$[ebp]
  00034	8b cf		 mov	 ecx, edi
  00036	68 00 00 00 00	 push	 OFFSET ??_C@_00CNPNBAHC@@
  0003b	c7 45 fc 00 00
	00 00		 mov	 DWORD PTR __$EHRec$[ebp+8], 0
  00042	ff 15 00 00 00
	00		 call	 DWORD PTR __imp_??0?$CStringT@DV?$StrTraitMFC_DLL@DV?$ChTraitsCRT@D@ATL@@@@@ATL@@QAE@PBD@Z

; 159  : 	return strValue;

  00048	68 00 00 00 00	 push	 OFFSET ??_C@_08KGLHHGPJ@Block?$DL?$AN?6@
  0004d	8b cf		 mov	 ecx, edi
  0004f	c7 45 fc 00 00
	00 00		 mov	 DWORD PTR __$EHRec$[ebp+8], 0
  00056	c7 45 f0 01 00
	00 00		 mov	 DWORD PTR $T6[ebp], 1
  0005d	ff 15 00 00 00
	00		 call	 DWORD PTR __imp_??Y?$CStringT@DV?$StrTraitMFC_DLL@DV?$ChTraitsCRT@D@ATL@@@@@ATL@@QAEAAV01@PBD@Z
; File C:\Program Files (x86)\Microsoft Visual Studio\2019\Community\VC\Tools\MSVC\14.29.30133\atlmfc\include\atlsimpstr.h

; 377  : 		return( m_pszData );

  00063	8b 5d 0c	 mov	 ebx, DWORD PTR _pItem$[ebp]
; File D:\git\src\IBK\IBK_DRFN\ProjSrc\SrcChartEx\ChartAddIn\ChartDesignPropertyAddIn\ChartDesignPropertyAddIn\DataOfChartListPage.cpp

; 143  : 	CString strScaleStyle = _LTOM6_N( pItem->m_strScaleStyle);

  00066	b9 00 00 00 00	 mov	 ecx, OFFSET ?g_iMetaTable@@3VIMetaTable@@A ; g_iMetaTable
  0006b	6a 01		 push	 1
  0006d	ff 73 58	 push	 DWORD PTR [ebx+88]
  00070	6a 06		 push	 6
  00072	ff 76 10	 push	 DWORD PTR [esi+16]
  00075	e8 00 00 00 00	 call	 ?GetMetaText@IMetaTable@@QAEPBDPAUHWND__@@W4E_CODEPAGE@1@PBDH@Z ; IMetaTable::GetMetaText
  0007a	50		 push	 eax
  0007b	8d 4d ec	 lea	 ecx, DWORD PTR _strScaleStyle$[ebp]
  0007e	ff 15 00 00 00
	00		 call	 DWORD PTR __imp_??0?$CStringT@DV?$StrTraitMFC_DLL@DV?$ChTraitsCRT@D@ATL@@@@@ATL@@QAE@PBD@Z
; File C:\Program Files (x86)\Microsoft Visual Studio\2019\Community\VC\Tools\MSVC\14.29.30133\atlmfc\include\atlsimpstr.h

; 519  : 		return( GetData()->nDataLength );

  00084	8b 45 ec	 mov	 eax, DWORD PTR _strScaleStyle$[ebp]
; File D:\git\src\IBK\IBK_DRFN\ProjSrc\SrcChartEx\ChartAddIn\ChartDesignPropertyAddIn\ChartDesignPropertyAddIn\DataOfChartListPage.cpp

; 143  : 	CString strScaleStyle = _LTOM6_N( pItem->m_strScaleStyle);

  00087	c7 45 fc 01 00
	00 00		 mov	 DWORD PTR __$EHRec$[ebp+8], 1
; File C:\Program Files (x86)\Microsoft Visual Studio\2019\Community\VC\Tools\MSVC\14.29.30133\atlmfc\include\atlsimpstr.h

; 533  : 		return( GetLength() == 0 );

  0008e	83 78 f4 00	 cmp	 DWORD PTR [eax-12], 0
; File D:\git\src\IBK\IBK_DRFN\ProjSrc\SrcChartEx\ChartAddIn\ChartDesignPropertyAddIn\ChartDesignPropertyAddIn\DataOfChartListPage.cpp

; 144  : 	if( strScaleStyle.IsEmpty()) strScaleStyle = _LTOM0( pItem->m_strScaleStyle);

  00092	75 1e		 jne	 SHORT $LN2@GetBlockAl
  00094	6a 00		 push	 0
  00096	ff 73 58	 push	 DWORD PTR [ebx+88]
  00099	b9 00 00 00 00	 mov	 ecx, OFFSET ?g_iMetaTable@@3VIMetaTable@@A ; g_iMetaTable
  0009e	6a 00		 push	 0
  000a0	ff 76 10	 push	 DWORD PTR [esi+16]
  000a3	e8 00 00 00 00	 call	 ?GetMetaText@IMetaTable@@QAEPBDPAUHWND__@@W4E_CODEPAGE@1@PBDH@Z ; IMetaTable::GetMetaText
  000a8	50		 push	 eax
  000a9	8d 4d ec	 lea	 ecx, DWORD PTR _strScaleStyle$[ebp]
  000ac	ff 15 00 00 00
	00		 call	 DWORD PTR __imp_??4?$CStringT@DV?$StrTraitMFC_DLL@DV?$ChTraitsCRT@D@ATL@@@@@ATL@@QAEAAV01@PBD@Z
$LN2@GetBlockAl:
; File C:\Program Files (x86)\Microsoft Visual Studio\2019\Community\VC\Tools\MSVC\14.29.30133\atlmfc\include\cstringt.h

; 2401 : 		CStringT strResult( str1.GetManager() );

  000b2	8d 4d ec	 lea	 ecx, DWORD PTR _strScaleStyle$[ebp]
; File D:\git\src\IBK\IBK_DRFN\ProjSrc\SrcChartEx\ChartAddIn\ChartDesignPropertyAddIn\ChartDesignPropertyAddIn\DataOfChartListPage.cpp

; 146  : 	strValue += strScaleStyle + ";" ; //

  000b5	c6 45 fc 02	 mov	 BYTE PTR __$EHRec$[ebp+8], 2
; File C:\Program Files (x86)\Microsoft Visual Studio\2019\Community\VC\Tools\MSVC\14.29.30133\atlmfc\include\cstringt.h

; 2401 : 		CStringT strResult( str1.GetManager() );

  000b9	ff 15 00 00 00
	00		 call	 DWORD PTR __imp_?GetManager@?$CStringT@DV?$StrTraitMFC_DLL@DV?$ChTraitsCRT@D@ATL@@@@@ATL@@QBEPAUIAtlStringMgr@2@XZ
  000bf	50		 push	 eax
  000c0	8d 4d 0c	 lea	 ecx, DWORD PTR $T13[ebp]
  000c3	ff 15 00 00 00
	00		 call	 DWORD PTR __imp_??0?$CStringT@DV?$StrTraitMFC_DLL@DV?$ChTraitsCRT@D@ATL@@@@@ATL@@QAE@PAUIAtlStringMgr@1@@Z
; File C:\Program Files (x86)\Microsoft Visual Studio\2019\Community\VC\Tools\MSVC\14.29.30133\atlmfc\include\atlsimpstr.h

; 519  : 		return( GetData()->nDataLength );

  000c9	8b 45 ec	 mov	 eax, DWORD PTR _strScaleStyle$[ebp]
; File C:\Program Files (x86)\Microsoft Visual Studio\2019\Community\VC\Tools\MSVC\14.29.30133\atlmfc\include\cstringt.h

; 2403 : 		CThisSimpleString::Concatenate( strResult, str1, str1.GetLength(), psz2, CThisSimpleString::StringLength( psz2 ) );

  000cc	6a 01		 push	 1
  000ce	68 00 00 00 00	 push	 OFFSET ??_C@_01ICJEACDI@?$DL@

; 2404 : 
; 2405 : 		return( strResult );

  000d3	c7 45 f0 03 00
	00 00		 mov	 DWORD PTR $T6[ebp], 3
  000da	ff 70 f4	 push	 DWORD PTR [eax-12]
  000dd	50		 push	 eax
  000de	8d 45 0c	 lea	 eax, DWORD PTR $T13[ebp]
  000e1	50		 push	 eax
  000e2	ff 15 00 00 00
	00		 call	 DWORD PTR __imp_?Concatenate@?$CSimpleStringT@D$00@ATL@@KAXAAV12@PBDH1H@Z
  000e8	83 c4 14	 add	 esp, 20			; 00000014H
; File D:\git\src\IBK\IBK_DRFN\ProjSrc\SrcChartEx\ChartAddIn\ChartDesignPropertyAddIn\ChartDesignPropertyAddIn\DataOfChartListPage.cpp

; 146  : 	strValue += strScaleStyle + ";" ; //

  000eb	8d 45 0c	 lea	 eax, DWORD PTR $T13[ebp]
  000ee	8b cf		 mov	 ecx, edi
  000f0	50		 push	 eax
  000f1	ff 15 00 00 00
	00		 call	 DWORD PTR __imp_??Y?$CStringT@DV?$StrTraitMFC_DLL@DV?$ChTraitsCRT@D@ATL@@@@@ATL@@QAEAAV01@ABV?$CSimpleStringT@D$00@1@@Z
  000f7	8d 4d 0c	 lea	 ecx, DWORD PTR $T13[ebp]
  000fa	c7 45 f0 01 00
	00 00		 mov	 DWORD PTR $T6[ebp], 1
  00101	c6 45 fc 01	 mov	 BYTE PTR __$EHRec$[ebp+8], 1
  00105	ff 15 00 00 00
	00		 call	 DWORD PTR __imp_??1?$CStringT@DV?$StrTraitMFC_DLL@DV?$ChTraitsCRT@D@ATL@@@@@ATL@@QAE@XZ

; 147  : 	strValue += CDataConversion::IntToString(pItem->m_nHorizonpos) + ";" ; //

  0010b	ff 73 40	 push	 DWORD PTR [ebx+64]
  0010e	8d 45 e8	 lea	 eax, DWORD PTR $T5[ebp]
  00111	50		 push	 eax
  00112	e8 00 00 00 00	 call	 ?IntToString@CDataConversion@@SA?AV?$CStringT@DV?$StrTraitMFC_DLL@DV?$ChTraitsCRT@D@ATL@@@@@ATL@@H@Z ; CDataConversion::IntToString
  00117	83 c4 08	 add	 esp, 8
  0011a	8b f0		 mov	 esi, eax
; File C:\Program Files (x86)\Microsoft Visual Studio\2019\Community\VC\Tools\MSVC\14.29.30133\atlmfc\include\cstringt.h

; 2401 : 		CStringT strResult( str1.GetManager() );

  0011c	8b ce		 mov	 ecx, esi
; File D:\git\src\IBK\IBK_DRFN\ProjSrc\SrcChartEx\ChartAddIn\ChartDesignPropertyAddIn\ChartDesignPropertyAddIn\DataOfChartListPage.cpp

; 147  : 	strValue += CDataConversion::IntToString(pItem->m_nHorizonpos) + ";" ; //

  0011e	c6 45 fc 04	 mov	 BYTE PTR __$EHRec$[ebp+8], 4
; File C:\Program Files (x86)\Microsoft Visual Studio\2019\Community\VC\Tools\MSVC\14.29.30133\atlmfc\include\cstringt.h

; 2401 : 		CStringT strResult( str1.GetManager() );

  00122	ff 15 00 00 00
	00		 call	 DWORD PTR __imp_?GetManager@?$CStringT@DV?$StrTraitMFC_DLL@DV?$ChTraitsCRT@D@ATL@@@@@ATL@@QBEPAUIAtlStringMgr@2@XZ
  00128	50		 push	 eax
  00129	8d 4d 0c	 lea	 ecx, DWORD PTR $T12[ebp]
  0012c	ff 15 00 00 00
	00		 call	 DWORD PTR __imp_??0?$CStringT@DV?$StrTraitMFC_DLL@DV?$ChTraitsCRT@D@ATL@@@@@ATL@@QAE@PAUIAtlStringMgr@1@@Z
; File C:\Program Files (x86)\Microsoft Visual Studio\2019\Community\VC\Tools\MSVC\14.29.30133\atlmfc\include\atlsimpstr.h

; 519  : 		return( GetData()->nDataLength );

  00132	8b 06		 mov	 eax, DWORD PTR [esi]
; File C:\Program Files (x86)\Microsoft Visual Studio\2019\Community\VC\Tools\MSVC\14.29.30133\atlmfc\include\cstringt.h

; 2403 : 		CThisSimpleString::Concatenate( strResult, str1, str1.GetLength(), psz2, CThisSimpleString::StringLength( psz2 ) );

  00134	6a 01		 push	 1
  00136	68 00 00 00 00	 push	 OFFSET ??_C@_01ICJEACDI@?$DL@

; 2404 : 
; 2405 : 		return( strResult );

  0013b	c7 45 f0 05 00
	00 00		 mov	 DWORD PTR $T6[ebp], 5
  00142	ff 70 f4	 push	 DWORD PTR [eax-12]
  00145	50		 push	 eax
  00146	8d 45 0c	 lea	 eax, DWORD PTR $T12[ebp]
  00149	50		 push	 eax
  0014a	ff 15 00 00 00
	00		 call	 DWORD PTR __imp_?Concatenate@?$CSimpleStringT@D$00@ATL@@KAXAAV12@PBDH1H@Z
  00150	83 c4 14	 add	 esp, 20			; 00000014H
; File D:\git\src\IBK\IBK_DRFN\ProjSrc\SrcChartEx\ChartAddIn\ChartDesignPropertyAddIn\ChartDesignPropertyAddIn\DataOfChartListPage.cpp

; 147  : 	strValue += CDataConversion::IntToString(pItem->m_nHorizonpos) + ";" ; //

  00153	8d 45 0c	 lea	 eax, DWORD PTR $T12[ebp]
  00156	8b cf		 mov	 ecx, edi
  00158	50		 push	 eax
  00159	ff 15 00 00 00
	00		 call	 DWORD PTR __imp_??Y?$CStringT@DV?$StrTraitMFC_DLL@DV?$ChTraitsCRT@D@ATL@@@@@ATL@@QAEAAV01@ABV?$CSimpleStringT@D$00@1@@Z
  0015f	8d 4d 0c	 lea	 ecx, DWORD PTR $T12[ebp]
  00162	c7 45 f0 01 00
	00 00		 mov	 DWORD PTR $T6[ebp], 1
  00169	ff 15 00 00 00
	00		 call	 DWORD PTR __imp_??1?$CStringT@DV?$StrTraitMFC_DLL@DV?$ChTraitsCRT@D@ATL@@@@@ATL@@QAE@XZ
  0016f	8d 4d e8	 lea	 ecx, DWORD PTR $T5[ebp]
  00172	c6 45 fc 01	 mov	 BYTE PTR __$EHRec$[ebp+8], 1
  00176	ff 15 00 00 00
	00		 call	 DWORD PTR __imp_??1?$CStringT@DV?$StrTraitMFC_DLL@DV?$ChTraitsCRT@D@ATL@@@@@ATL@@QAE@XZ

; 148  : 	strValue += CDataConversion::IntToString(pItem->m_nScaleCompartType) + ";" ; //.

  0017c	ff 73 50	 push	 DWORD PTR [ebx+80]
  0017f	8d 45 e8	 lea	 eax, DWORD PTR $T4[ebp]
  00182	50		 push	 eax
  00183	e8 00 00 00 00	 call	 ?IntToString@CDataConversion@@SA?AV?$CStringT@DV?$StrTraitMFC_DLL@DV?$ChTraitsCRT@D@ATL@@@@@ATL@@H@Z ; CDataConversion::IntToString
  00188	83 c4 08	 add	 esp, 8
  0018b	8b f0		 mov	 esi, eax
; File C:\Program Files (x86)\Microsoft Visual Studio\2019\Community\VC\Tools\MSVC\14.29.30133\atlmfc\include\cstringt.h

; 2401 : 		CStringT strResult( str1.GetManager() );

  0018d	8b ce		 mov	 ecx, esi
; File D:\git\src\IBK\IBK_DRFN\ProjSrc\SrcChartEx\ChartAddIn\ChartDesignPropertyAddIn\ChartDesignPropertyAddIn\DataOfChartListPage.cpp

; 148  : 	strValue += CDataConversion::IntToString(pItem->m_nScaleCompartType) + ";" ; //.

  0018f	c6 45 fc 06	 mov	 BYTE PTR __$EHRec$[ebp+8], 6
; File C:\Program Files (x86)\Microsoft Visual Studio\2019\Community\VC\Tools\MSVC\14.29.30133\atlmfc\include\cstringt.h

; 2401 : 		CStringT strResult( str1.GetManager() );

  00193	ff 15 00 00 00
	00		 call	 DWORD PTR __imp_?GetManager@?$CStringT@DV?$StrTraitMFC_DLL@DV?$ChTraitsCRT@D@ATL@@@@@ATL@@QBEPAUIAtlStringMgr@2@XZ
  00199	50		 push	 eax
  0019a	8d 4d 0c	 lea	 ecx, DWORD PTR $T11[ebp]
  0019d	ff 15 00 00 00
	00		 call	 DWORD PTR __imp_??0?$CStringT@DV?$StrTraitMFC_DLL@DV?$ChTraitsCRT@D@ATL@@@@@ATL@@QAE@PAUIAtlStringMgr@1@@Z
; File C:\Program Files (x86)\Microsoft Visual Studio\2019\Community\VC\Tools\MSVC\14.29.30133\atlmfc\include\atlsimpstr.h

; 519  : 		return( GetData()->nDataLength );

  001a3	8b 06		 mov	 eax, DWORD PTR [esi]
; File C:\Program Files (x86)\Microsoft Visual Studio\2019\Community\VC\Tools\MSVC\14.29.30133\atlmfc\include\cstringt.h

; 2403 : 		CThisSimpleString::Concatenate( strResult, str1, str1.GetLength(), psz2, CThisSimpleString::StringLength( psz2 ) );

  001a5	6a 01		 push	 1
  001a7	68 00 00 00 00	 push	 OFFSET ??_C@_01ICJEACDI@?$DL@

; 2404 : 
; 2405 : 		return( strResult );

  001ac	c7 45 f0 09 00
	00 00		 mov	 DWORD PTR $T6[ebp], 9
  001b3	ff 70 f4	 push	 DWORD PTR [eax-12]
  001b6	50		 push	 eax
  001b7	8d 45 0c	 lea	 eax, DWORD PTR $T11[ebp]
  001ba	50		 push	 eax

; 2403 : 		CThisSimpleString::Concatenate( strResult, str1, str1.GetLength(), psz2, CThisSimpleString::StringLength( psz2 ) );

  001bb	ff 15 00 00 00
	00		 call	 DWORD PTR __imp_?Concatenate@?$CSimpleStringT@D$00@ATL@@KAXAAV12@PBDH1H@Z
  001c1	83 c4 14	 add	 esp, 20			; 00000014H
; File D:\git\src\IBK\IBK_DRFN\ProjSrc\SrcChartEx\ChartAddIn\ChartDesignPropertyAddIn\ChartDesignPropertyAddIn\DataOfChartListPage.cpp

; 148  : 	strValue += CDataConversion::IntToString(pItem->m_nScaleCompartType) + ";" ; //.

  001c4	8d 45 0c	 lea	 eax, DWORD PTR $T11[ebp]
  001c7	8b cf		 mov	 ecx, edi
  001c9	50		 push	 eax
  001ca	ff 15 00 00 00
	00		 call	 DWORD PTR __imp_??Y?$CStringT@DV?$StrTraitMFC_DLL@DV?$ChTraitsCRT@D@ATL@@@@@ATL@@QAEAAV01@ABV?$CSimpleStringT@D$00@1@@Z
  001d0	8d 4d 0c	 lea	 ecx, DWORD PTR $T11[ebp]
  001d3	ff 15 00 00 00
	00		 call	 DWORD PTR __imp_??1?$CStringT@DV?$StrTraitMFC_DLL@DV?$ChTraitsCRT@D@ATL@@@@@ATL@@QAE@XZ
  001d9	8d 4d e8	 lea	 ecx, DWORD PTR $T4[ebp]
  001dc	ff 15 00 00 00
	00		 call	 DWORD PTR __imp_??1?$CStringT@DV?$StrTraitMFC_DLL@DV?$ChTraitsCRT@D@ATL@@@@@ATL@@QAE@XZ
; File C:\Program Files (x86)\Microsoft Visual Studio\2019\Community\VC\Tools\MSVC\14.29.30133\atlmfc\include\cstringt.h

; 2401 : 		CStringT strResult( str1.GetManager() );

  001e2	8d 4b 38	 lea	 ecx, DWORD PTR [ebx+56]
; File D:\git\src\IBK\IBK_DRFN\ProjSrc\SrcChartEx\ChartAddIn\ChartDesignPropertyAddIn\ChartDesignPropertyAddIn\DataOfChartListPage.cpp

; 149  : 	strValue += pItem->m_strDateScaleCompart + ";"; //

  001e5	c6 45 fc 07	 mov	 BYTE PTR __$EHRec$[ebp+8], 7
; File C:\Program Files (x86)\Microsoft Visual Studio\2019\Community\VC\Tools\MSVC\14.29.30133\atlmfc\include\cstringt.h

; 2401 : 		CStringT strResult( str1.GetManager() );

  001e9	ff 15 00 00 00
	00		 call	 DWORD PTR __imp_?GetManager@?$CStringT@DV?$StrTraitMFC_DLL@DV?$ChTraitsCRT@D@ATL@@@@@ATL@@QBEPAUIAtlStringMgr@2@XZ
  001ef	50		 push	 eax
  001f0	8d 4d 0c	 lea	 ecx, DWORD PTR $T10[ebp]
  001f3	ff 15 00 00 00
	00		 call	 DWORD PTR __imp_??0?$CStringT@DV?$StrTraitMFC_DLL@DV?$ChTraitsCRT@D@ATL@@@@@ATL@@QAE@PAUIAtlStringMgr@1@@Z
; File C:\Program Files (x86)\Microsoft Visual Studio\2019\Community\VC\Tools\MSVC\14.29.30133\atlmfc\include\atlsimpstr.h

; 519  : 		return( GetData()->nDataLength );

  001f9	8b 43 38	 mov	 eax, DWORD PTR [ebx+56]
; File C:\Program Files (x86)\Microsoft Visual Studio\2019\Community\VC\Tools\MSVC\14.29.30133\atlmfc\include\cstringt.h

; 2403 : 		CThisSimpleString::Concatenate( strResult, str1, str1.GetLength(), psz2, CThisSimpleString::StringLength( psz2 ) );

  001fc	6a 01		 push	 1
  001fe	68 00 00 00 00	 push	 OFFSET ??_C@_01ICJEACDI@?$DL@

; 2404 : 
; 2405 : 		return( strResult );

  00203	c7 45 f0 11 00
	00 00		 mov	 DWORD PTR $T6[ebp], 17	; 00000011H
  0020a	ff 70 f4	 push	 DWORD PTR [eax-12]
  0020d	50		 push	 eax
  0020e	8d 45 0c	 lea	 eax, DWORD PTR $T10[ebp]
  00211	50		 push	 eax
  00212	ff 15 00 00 00
	00		 call	 DWORD PTR __imp_?Concatenate@?$CSimpleStringT@D$00@ATL@@KAXAAV12@PBDH1H@Z
  00218	83 c4 14	 add	 esp, 20			; 00000014H
; File D:\git\src\IBK\IBK_DRFN\ProjSrc\SrcChartEx\ChartAddIn\ChartDesignPropertyAddIn\ChartDesignPropertyAddIn\DataOfChartListPage.cpp

; 149  : 	strValue += pItem->m_strDateScaleCompart + ";"; //

  0021b	8d 45 0c	 lea	 eax, DWORD PTR $T10[ebp]
  0021e	8b cf		 mov	 ecx, edi
  00220	50		 push	 eax
  00221	ff 15 00 00 00
	00		 call	 DWORD PTR __imp_??Y?$CStringT@DV?$StrTraitMFC_DLL@DV?$ChTraitsCRT@D@ATL@@@@@ATL@@QAEAAV01@ABV?$CSimpleStringT@D$00@1@@Z
  00227	8d 4d 0c	 lea	 ecx, DWORD PTR $T10[ebp]
  0022a	ff 15 00 00 00
	00		 call	 DWORD PTR __imp_??1?$CStringT@DV?$StrTraitMFC_DLL@DV?$ChTraitsCRT@D@ATL@@@@@ATL@@QAE@XZ
; File C:\Program Files (x86)\Microsoft Visual Studio\2019\Community\VC\Tools\MSVC\14.29.30133\atlmfc\include\cstringt.h

; 2401 : 		CStringT strResult( str1.GetManager() );

  00230	8d 4b 3c	 lea	 ecx, DWORD PTR [ebx+60]
; File D:\git\src\IBK\IBK_DRFN\ProjSrc\SrcChartEx\ChartAddIn\ChartDesignPropertyAddIn\ChartDesignPropertyAddIn\DataOfChartListPage.cpp

; 150  : 	strValue += pItem->m_strTimeScaleCompart + ";"; //

  00233	c6 45 fc 08	 mov	 BYTE PTR __$EHRec$[ebp+8], 8
; File C:\Program Files (x86)\Microsoft Visual Studio\2019\Community\VC\Tools\MSVC\14.29.30133\atlmfc\include\cstringt.h

; 2401 : 		CStringT strResult( str1.GetManager() );

  00237	ff 15 00 00 00
	00		 call	 DWORD PTR __imp_?GetManager@?$CStringT@DV?$StrTraitMFC_DLL@DV?$ChTraitsCRT@D@ATL@@@@@ATL@@QBEPAUIAtlStringMgr@2@XZ
  0023d	50		 push	 eax
  0023e	8d 4d 0c	 lea	 ecx, DWORD PTR $T9[ebp]
  00241	ff 15 00 00 00
	00		 call	 DWORD PTR __imp_??0?$CStringT@DV?$StrTraitMFC_DLL@DV?$ChTraitsCRT@D@ATL@@@@@ATL@@QAE@PAUIAtlStringMgr@1@@Z
; File C:\Program Files (x86)\Microsoft Visual Studio\2019\Community\VC\Tools\MSVC\14.29.30133\atlmfc\include\atlsimpstr.h

; 519  : 		return( GetData()->nDataLength );

  00247	8b 43 3c	 mov	 eax, DWORD PTR [ebx+60]
; File C:\Program Files (x86)\Microsoft Visual Studio\2019\Community\VC\Tools\MSVC\14.29.30133\atlmfc\include\cstringt.h

; 2403 : 		CThisSimpleString::Concatenate( strResult, str1, str1.GetLength(), psz2, CThisSimpleString::StringLength( psz2 ) );

  0024a	6a 01		 push	 1
  0024c	68 00 00 00 00	 push	 OFFSET ??_C@_01ICJEACDI@?$DL@

; 2404 : 
; 2405 : 		return( strResult );

  00251	c7 45 f0 21 00
	00 00		 mov	 DWORD PTR $T6[ebp], 33	; 00000021H
  00258	ff 70 f4	 push	 DWORD PTR [eax-12]
  0025b	50		 push	 eax
  0025c	8d 45 0c	 lea	 eax, DWORD PTR $T9[ebp]
  0025f	50		 push	 eax
  00260	ff 15 00 00 00
	00		 call	 DWORD PTR __imp_?Concatenate@?$CSimpleStringT@D$00@ATL@@KAXAAV12@PBDH1H@Z
  00266	83 c4 14	 add	 esp, 20			; 00000014H
; File D:\git\src\IBK\IBK_DRFN\ProjSrc\SrcChartEx\ChartAddIn\ChartDesignPropertyAddIn\ChartDesignPropertyAddIn\DataOfChartListPage.cpp

; 150  : 	strValue += pItem->m_strTimeScaleCompart + ";"; //

  00269	8d 45 0c	 lea	 eax, DWORD PTR $T9[ebp]
  0026c	8b cf		 mov	 ecx, edi
  0026e	50		 push	 eax
  0026f	ff 15 00 00 00
	00		 call	 DWORD PTR __imp_??Y?$CStringT@DV?$StrTraitMFC_DLL@DV?$ChTraitsCRT@D@ATL@@@@@ATL@@QAEAAV01@ABV?$CSimpleStringT@D$00@1@@Z
  00275	8d 4d 0c	 lea	 ecx, DWORD PTR $T9[ebp]
  00278	c7 45 f0 01 00
	00 00		 mov	 DWORD PTR $T6[ebp], 1
  0027f	c6 45 fc 01	 mov	 BYTE PTR __$EHRec$[ebp+8], 1
  00283	ff 15 00 00 00
	00		 call	 DWORD PTR __imp_??1?$CStringT@DV?$StrTraitMFC_DLL@DV?$ChTraitsCRT@D@ATL@@@@@ATL@@QAE@XZ

; 151  : 	strValue += CDataConversion::IntToString(pItem->m_nHorizonStyle) + ";"; //,  

  00289	ff 73 44	 push	 DWORD PTR [ebx+68]
  0028c	8d 45 e8	 lea	 eax, DWORD PTR $T3[ebp]
  0028f	50		 push	 eax
  00290	e8 00 00 00 00	 call	 ?IntToString@CDataConversion@@SA?AV?$CStringT@DV?$StrTraitMFC_DLL@DV?$ChTraitsCRT@D@ATL@@@@@ATL@@H@Z ; CDataConversion::IntToString
  00295	83 c4 08	 add	 esp, 8
  00298	8b f0		 mov	 esi, eax
; File C:\Program Files (x86)\Microsoft Visual Studio\2019\Community\VC\Tools\MSVC\14.29.30133\atlmfc\include\cstringt.h

; 2401 : 		CStringT strResult( str1.GetManager() );

  0029a	8b ce		 mov	 ecx, esi
; File D:\git\src\IBK\IBK_DRFN\ProjSrc\SrcChartEx\ChartAddIn\ChartDesignPropertyAddIn\ChartDesignPropertyAddIn\DataOfChartListPage.cpp

; 151  : 	strValue += CDataConversion::IntToString(pItem->m_nHorizonStyle) + ";"; //,  

  0029c	c6 45 fc 0a	 mov	 BYTE PTR __$EHRec$[ebp+8], 10 ; 0000000aH
; File C:\Program Files (x86)\Microsoft Visual Studio\2019\Community\VC\Tools\MSVC\14.29.30133\atlmfc\include\cstringt.h

; 2401 : 		CStringT strResult( str1.GetManager() );

  002a0	ff 15 00 00 00
	00		 call	 DWORD PTR __imp_?GetManager@?$CStringT@DV?$StrTraitMFC_DLL@DV?$ChTraitsCRT@D@ATL@@@@@ATL@@QBEPAUIAtlStringMgr@2@XZ
  002a6	50		 push	 eax
  002a7	8d 4d 0c	 lea	 ecx, DWORD PTR $T8[ebp]
  002aa	ff 15 00 00 00
	00		 call	 DWORD PTR __imp_??0?$CStringT@DV?$StrTraitMFC_DLL@DV?$ChTraitsCRT@D@ATL@@@@@ATL@@QAE@PAUIAtlStringMgr@1@@Z
; File C:\Program Files (x86)\Microsoft Visual Studio\2019\Community\VC\Tools\MSVC\14.29.30133\atlmfc\include\atlsimpstr.h

; 519  : 		return( GetData()->nDataLength );

  002b0	8b 06		 mov	 eax, DWORD PTR [esi]
; File C:\Program Files (x86)\Microsoft Visual Studio\2019\Community\VC\Tools\MSVC\14.29.30133\atlmfc\include\cstringt.h

; 2403 : 		CThisSimpleString::Concatenate( strResult, str1, str1.GetLength(), psz2, CThisSimpleString::StringLength( psz2 ) );

  002b2	6a 01		 push	 1
  002b4	68 00 00 00 00	 push	 OFFSET ??_C@_01ICJEACDI@?$DL@

; 2404 : 
; 2405 : 		return( strResult );

  002b9	c7 45 f0 41 00
	00 00		 mov	 DWORD PTR $T6[ebp], 65	; 00000041H
  002c0	ff 70 f4	 push	 DWORD PTR [eax-12]
  002c3	50		 push	 eax
  002c4	8d 45 0c	 lea	 eax, DWORD PTR $T8[ebp]
  002c7	50		 push	 eax
  002c8	ff 15 00 00 00
	00		 call	 DWORD PTR __imp_?Concatenate@?$CSimpleStringT@D$00@ATL@@KAXAAV12@PBDH1H@Z

; 2403 : 		CThisSimpleString::Concatenate( strResult, str1, str1.GetLength(), psz2, CThisSimpleString::StringLength( psz2 ) );

  002ce	83 c4 14	 add	 esp, 20			; 00000014H
; File D:\git\src\IBK\IBK_DRFN\ProjSrc\SrcChartEx\ChartAddIn\ChartDesignPropertyAddIn\ChartDesignPropertyAddIn\DataOfChartListPage.cpp

; 151  : 	strValue += CDataConversion::IntToString(pItem->m_nHorizonStyle) + ";"; //,  

  002d1	8d 45 0c	 lea	 eax, DWORD PTR $T8[ebp]
  002d4	8b cf		 mov	 ecx, edi
  002d6	50		 push	 eax
  002d7	ff 15 00 00 00
	00		 call	 DWORD PTR __imp_??Y?$CStringT@DV?$StrTraitMFC_DLL@DV?$ChTraitsCRT@D@ATL@@@@@ATL@@QAEAAV01@ABV?$CSimpleStringT@D$00@1@@Z
  002dd	8d 4d 0c	 lea	 ecx, DWORD PTR $T8[ebp]
  002e0	c7 45 f0 01 00
	00 00		 mov	 DWORD PTR $T6[ebp], 1
  002e7	ff 15 00 00 00
	00		 call	 DWORD PTR __imp_??1?$CStringT@DV?$StrTraitMFC_DLL@DV?$ChTraitsCRT@D@ATL@@@@@ATL@@QAE@XZ
  002ed	8d 4d e8	 lea	 ecx, DWORD PTR $T3[ebp]
  002f0	c6 45 fc 01	 mov	 BYTE PTR __$EHRec$[ebp+8], 1
  002f4	ff 15 00 00 00
	00		 call	 DWORD PTR __imp_??1?$CStringT@DV?$StrTraitMFC_DLL@DV?$ChTraitsCRT@D@ATL@@@@@ATL@@QAE@XZ

; 152  : 	strValue += CDataConversion::IntToString(pItem->m_nLog) + ";"; //log

  002fa	ff 73 4c	 push	 DWORD PTR [ebx+76]
  002fd	8d 45 e8	 lea	 eax, DWORD PTR $T2[ebp]
  00300	50		 push	 eax
  00301	e8 00 00 00 00	 call	 ?IntToString@CDataConversion@@SA?AV?$CStringT@DV?$StrTraitMFC_DLL@DV?$ChTraitsCRT@D@ATL@@@@@ATL@@H@Z ; CDataConversion::IntToString
  00306	83 c4 08	 add	 esp, 8
  00309	8b f0		 mov	 esi, eax
; File C:\Program Files (x86)\Microsoft Visual Studio\2019\Community\VC\Tools\MSVC\14.29.30133\atlmfc\include\cstringt.h

; 2401 : 		CStringT strResult( str1.GetManager() );

  0030b	8b ce		 mov	 ecx, esi
; File D:\git\src\IBK\IBK_DRFN\ProjSrc\SrcChartEx\ChartAddIn\ChartDesignPropertyAddIn\ChartDesignPropertyAddIn\DataOfChartListPage.cpp

; 152  : 	strValue += CDataConversion::IntToString(pItem->m_nLog) + ";"; //log

  0030d	c6 45 fc 0c	 mov	 BYTE PTR __$EHRec$[ebp+8], 12 ; 0000000cH
; File C:\Program Files (x86)\Microsoft Visual Studio\2019\Community\VC\Tools\MSVC\14.29.30133\atlmfc\include\cstringt.h

; 2401 : 		CStringT strResult( str1.GetManager() );

  00311	ff 15 00 00 00
	00		 call	 DWORD PTR __imp_?GetManager@?$CStringT@DV?$StrTraitMFC_DLL@DV?$ChTraitsCRT@D@ATL@@@@@ATL@@QBEPAUIAtlStringMgr@2@XZ
  00317	50		 push	 eax
  00318	8d 4d 0c	 lea	 ecx, DWORD PTR $T7[ebp]
  0031b	ff 15 00 00 00
	00		 call	 DWORD PTR __imp_??0?$CStringT@DV?$StrTraitMFC_DLL@DV?$ChTraitsCRT@D@ATL@@@@@ATL@@QAE@PAUIAtlStringMgr@1@@Z
; File C:\Program Files (x86)\Microsoft Visual Studio\2019\Community\VC\Tools\MSVC\14.29.30133\atlmfc\include\atlsimpstr.h

; 519  : 		return( GetData()->nDataLength );

  00321	8b 06		 mov	 eax, DWORD PTR [esi]
; File C:\Program Files (x86)\Microsoft Visual Studio\2019\Community\VC\Tools\MSVC\14.29.30133\atlmfc\include\cstringt.h

; 2403 : 		CThisSimpleString::Concatenate( strResult, str1, str1.GetLength(), psz2, CThisSimpleString::StringLength( psz2 ) );

  00323	6a 01		 push	 1
  00325	68 00 00 00 00	 push	 OFFSET ??_C@_01ICJEACDI@?$DL@

; 2404 : 
; 2405 : 		return( strResult );

  0032a	c7 45 f0 81 00
	00 00		 mov	 DWORD PTR $T6[ebp], 129	; 00000081H
  00331	ff 70 f4	 push	 DWORD PTR [eax-12]
  00334	50		 push	 eax
  00335	8d 45 0c	 lea	 eax, DWORD PTR $T7[ebp]
  00338	50		 push	 eax
  00339	ff 15 00 00 00
	00		 call	 DWORD PTR __imp_?Concatenate@?$CSimpleStringT@D$00@ATL@@KAXAAV12@PBDH1H@Z
  0033f	83 c4 14	 add	 esp, 20			; 00000014H
; File D:\git\src\IBK\IBK_DRFN\ProjSrc\SrcChartEx\ChartAddIn\ChartDesignPropertyAddIn\ChartDesignPropertyAddIn\DataOfChartListPage.cpp

; 152  : 	strValue += CDataConversion::IntToString(pItem->m_nLog) + ";"; //log

  00342	8d 45 0c	 lea	 eax, DWORD PTR $T7[ebp]
  00345	8b cf		 mov	 ecx, edi
  00347	50		 push	 eax
  00348	ff 15 00 00 00
	00		 call	 DWORD PTR __imp_??Y?$CStringT@DV?$StrTraitMFC_DLL@DV?$ChTraitsCRT@D@ATL@@@@@ATL@@QAEAAV01@ABV?$CSimpleStringT@D$00@1@@Z
  0034e	8d 4d 0c	 lea	 ecx, DWORD PTR $T7[ebp]
  00351	c7 45 f0 01 00
	00 00		 mov	 DWORD PTR $T6[ebp], 1
  00358	ff 15 00 00 00
	00		 call	 DWORD PTR __imp_??1?$CStringT@DV?$StrTraitMFC_DLL@DV?$ChTraitsCRT@D@ATL@@@@@ATL@@QAE@XZ
  0035e	8d 4d e8	 lea	 ecx, DWORD PTR $T2[ebp]
  00361	c6 45 fc 01	 mov	 BYTE PTR __$EHRec$[ebp+8], 1
  00365	ff 15 00 00 00
	00		 call	 DWORD PTR __imp_??1?$CStringT@DV?$StrTraitMFC_DLL@DV?$ChTraitsCRT@D@ATL@@@@@ATL@@QAE@XZ

; 153  : 	strValue += "0;";	// (2008/2/26 - Seung-Won, Bae) Block Reverse. Not used any more.

  0036b	68 00 00 00 00	 push	 OFFSET ??_C@_02BIGHCMEF@0?$DL@
  00370	8b cf		 mov	 ecx, edi
  00372	ff 15 00 00 00
	00		 call	 DWORD PTR __imp_??Y?$CStringT@DV?$StrTraitMFC_DLL@DV?$ChTraitsCRT@D@ATL@@@@@ATL@@QAEAAV01@PBD@Z

; 154  : 
; 155  : 	// (2006/10/25 - Seung-Won, Bae) Do not make Double Size Block Data to use the RDB(Row Double Size Index).
; 156  : 	//		And Do not used Double Size Block Flag.
; 157  : 
; 158  : 	strValue += "\r\n";

  00378	68 00 00 00 00	 push	 OFFSET ??_C@_02PCIJFNDE@?$AN?6@
  0037d	8b cf		 mov	 ecx, edi
  0037f	ff 15 00 00 00
	00		 call	 DWORD PTR __imp_??Y?$CStringT@DV?$StrTraitMFC_DLL@DV?$ChTraitsCRT@D@ATL@@@@@ATL@@QAEAAV01@PBD@Z

; 159  : 	return strValue;

  00385	8d 4d ec	 lea	 ecx, DWORD PTR _strScaleStyle$[ebp]
  00388	ff 15 00 00 00
	00		 call	 DWORD PTR __imp_??1?$CStringT@DV?$StrTraitMFC_DLL@DV?$ChTraitsCRT@D@ATL@@@@@ATL@@QAE@XZ
  0038e	8b c7		 mov	 eax, edi

; 160  : }

  00390	8b 4d f4	 mov	 ecx, DWORD PTR __$EHRec$[ebp]
  00393	64 89 0d 00 00
	00 00		 mov	 DWORD PTR fs:0, ecx
  0039a	59		 pop	 ecx
  0039b	5f		 pop	 edi
  0039c	5e		 pop	 esi
  0039d	5b		 pop	 ebx
  0039e	8b e5		 mov	 esp, ebp
  003a0	5d		 pop	 ebp
  003a1	c2 08 00	 ret	 8
_TEXT	ENDS
;	COMDAT text$x
text$x	SEGMENT
__unwindfunclet$?GetBlockAllData@CDataOfChartListPage@@AAE?AV?$CStringT@DV?$StrTraitMFC_DLL@DV?$ChTraitsCRT@D@ATL@@@@@ATL@@PAVCChartLink@@@Z$0:
  00000	8b 45 f0	 mov	 eax, DWORD PTR $T6[ebp]
  00003	83 e0 01	 and	 eax, 1
  00006	0f 84 0d 00 00
	00		 je	 $LN5@GetBlockAl
  0000c	83 65 f0 fe	 and	 DWORD PTR $T6[ebp], -2	; fffffffeH
  00010	8b 4d 08	 mov	 ecx, DWORD PTR ___$ReturnUdt$[ebp]
  00013	ff 25 00 00 00
	00		 jmp	 DWORD PTR __imp_??1?$CStringT@DV?$StrTraitMFC_DLL@DV?$ChTraitsCRT@D@ATL@@@@@ATL@@QAE@XZ
$LN5@GetBlockAl:
  00019	c3		 ret	 0
__unwindfunclet$?GetBlockAllData@CDataOfChartListPage@@AAE?AV?$CStringT@DV?$StrTraitMFC_DLL@DV?$ChTraitsCRT@D@ATL@@@@@ATL@@PAVCChartLink@@@Z$1:
  0001a	8d 4d ec	 lea	 ecx, DWORD PTR _strScaleStyle$[ebp]
  0001d	ff 25 00 00 00
	00		 jmp	 DWORD PTR __imp_??1?$CStringT@DV?$StrTraitMFC_DLL@DV?$ChTraitsCRT@D@ATL@@@@@ATL@@QAE@XZ
__unwindfunclet$?GetBlockAllData@CDataOfChartListPage@@AAE?AV?$CStringT@DV?$StrTraitMFC_DLL@DV?$ChTraitsCRT@D@ATL@@@@@ATL@@PAVCChartLink@@@Z$13:
  00023	8b 45 f0	 mov	 eax, DWORD PTR $T6[ebp]
  00026	83 e0 02	 and	 eax, 2
  00029	0f 84 0d 00 00
	00		 je	 $LN31@GetBlockAl
  0002f	83 65 f0 fd	 and	 DWORD PTR $T6[ebp], -3	; fffffffdH
  00033	8d 4d 0c	 lea	 ecx, DWORD PTR $T13[ebp]
  00036	ff 25 00 00 00
	00		 jmp	 DWORD PTR __imp_??1?$CStringT@DV?$StrTraitMFC_DLL@DV?$ChTraitsCRT@D@ATL@@@@@ATL@@QAE@XZ
$LN31@GetBlockAl:
  0003c	c3		 ret	 0
__unwindfunclet$?GetBlockAllData@CDataOfChartListPage@@AAE?AV?$CStringT@DV?$StrTraitMFC_DLL@DV?$ChTraitsCRT@D@ATL@@@@@ATL@@PAVCChartLink@@@Z$3:
  0003d	8d 4d e8	 lea	 ecx, DWORD PTR $T5[ebp]
  00040	ff 25 00 00 00
	00		 jmp	 DWORD PTR __imp_??1?$CStringT@DV?$StrTraitMFC_DLL@DV?$ChTraitsCRT@D@ATL@@@@@ATL@@QAE@XZ
__unwindfunclet$?GetBlockAllData@CDataOfChartListPage@@AAE?AV?$CStringT@DV?$StrTraitMFC_DLL@DV?$ChTraitsCRT@D@ATL@@@@@ATL@@PAVCChartLink@@@Z$14:
  00046	8b 45 f0	 mov	 eax, DWORD PTR $T6[ebp]
  00049	83 e0 04	 and	 eax, 4
  0004c	0f 84 0d 00 00
	00		 je	 $LN44@GetBlockAl
  00052	83 65 f0 fb	 and	 DWORD PTR $T6[ebp], -5	; fffffffbH
  00056	8d 4d 0c	 lea	 ecx, DWORD PTR $T12[ebp]
  00059	ff 25 00 00 00
	00		 jmp	 DWORD PTR __imp_??1?$CStringT@DV?$StrTraitMFC_DLL@DV?$ChTraitsCRT@D@ATL@@@@@ATL@@QAE@XZ
$LN44@GetBlockAl:
  0005f	c3		 ret	 0
__unwindfunclet$?GetBlockAllData@CDataOfChartListPage@@AAE?AV?$CStringT@DV?$StrTraitMFC_DLL@DV?$ChTraitsCRT@D@ATL@@@@@ATL@@PAVCChartLink@@@Z$5:
  00060	8d 4d e8	 lea	 ecx, DWORD PTR $T4[ebp]
  00063	ff 25 00 00 00
	00		 jmp	 DWORD PTR __imp_??1?$CStringT@DV?$StrTraitMFC_DLL@DV?$ChTraitsCRT@D@ATL@@@@@ATL@@QAE@XZ
__unwindfunclet$?GetBlockAllData@CDataOfChartListPage@@AAE?AV?$CStringT@DV?$StrTraitMFC_DLL@DV?$ChTraitsCRT@D@ATL@@@@@ATL@@PAVCChartLink@@@Z$15:
  00069	8b 45 f0	 mov	 eax, DWORD PTR $T6[ebp]
  0006c	83 e0 08	 and	 eax, 8
  0006f	0f 84 0d 00 00
	00		 je	 $LN57@GetBlockAl
  00075	83 65 f0 f7	 and	 DWORD PTR $T6[ebp], -9	; fffffff7H
  00079	8d 4d 0c	 lea	 ecx, DWORD PTR $T11[ebp]
  0007c	ff 25 00 00 00
	00		 jmp	 DWORD PTR __imp_??1?$CStringT@DV?$StrTraitMFC_DLL@DV?$ChTraitsCRT@D@ATL@@@@@ATL@@QAE@XZ
$LN57@GetBlockAl:
  00082	c3		 ret	 0
__unwindfunclet$?GetBlockAllData@CDataOfChartListPage@@AAE?AV?$CStringT@DV?$StrTraitMFC_DLL@DV?$ChTraitsCRT@D@ATL@@@@@ATL@@PAVCChartLink@@@Z$16:
  00083	8b 45 f0	 mov	 eax, DWORD PTR $T6[ebp]
  00086	83 e0 10	 and	 eax, 16			; 00000010H
  00089	0f 84 0d 00 00
	00		 je	 $LN70@GetBlockAl
  0008f	83 65 f0 ef	 and	 DWORD PTR $T6[ebp], -17	; ffffffefH
  00093	8d 4d 0c	 lea	 ecx, DWORD PTR $T10[ebp]
  00096	ff 25 00 00 00
	00		 jmp	 DWORD PTR __imp_??1?$CStringT@DV?$StrTraitMFC_DLL@DV?$ChTraitsCRT@D@ATL@@@@@ATL@@QAE@XZ
$LN70@GetBlockAl:
  0009c	c3		 ret	 0
__unwindfunclet$?GetBlockAllData@CDataOfChartListPage@@AAE?AV?$CStringT@DV?$StrTraitMFC_DLL@DV?$ChTraitsCRT@D@ATL@@@@@ATL@@PAVCChartLink@@@Z$17:
  0009d	8b 45 f0	 mov	 eax, DWORD PTR $T6[ebp]
  000a0	83 e0 20	 and	 eax, 32			; 00000020H
  000a3	0f 84 0d 00 00
	00		 je	 $LN83@GetBlockAl
  000a9	83 65 f0 df	 and	 DWORD PTR $T6[ebp], -33	; ffffffdfH
  000ad	8d 4d 0c	 lea	 ecx, DWORD PTR $T9[ebp]
  000b0	ff 25 00 00 00
	00		 jmp	 DWORD PTR __imp_??1?$CStringT@DV?$StrTraitMFC_DLL@DV?$ChTraitsCRT@D@ATL@@@@@ATL@@QAE@XZ
$LN83@GetBlockAl:
  000b6	c3		 ret	 0
__unwindfunclet$?GetBlockAllData@CDataOfChartListPage@@AAE?AV?$CStringT@DV?$StrTraitMFC_DLL@DV?$ChTraitsCRT@D@ATL@@@@@ATL@@PAVCChartLink@@@Z$9:
  000b7	8d 4d e8	 lea	 ecx, DWORD PTR $T3[ebp]
  000ba	ff 25 00 00 00
	00		 jmp	 DWORD PTR __imp_??1?$CStringT@DV?$StrTraitMFC_DLL@DV?$ChTraitsCRT@D@ATL@@@@@ATL@@QAE@XZ
__unwindfunclet$?GetBlockAllData@CDataOfChartListPage@@AAE?AV?$CStringT@DV?$StrTraitMFC_DLL@DV?$ChTraitsCRT@D@ATL@@@@@ATL@@PAVCChartLink@@@Z$18:
  000c0	8b 45 f0	 mov	 eax, DWORD PTR $T6[ebp]
  000c3	83 e0 40	 and	 eax, 64			; 00000040H
  000c6	0f 84 0d 00 00
	00		 je	 $LN96@GetBlockAl
  000cc	83 65 f0 bf	 and	 DWORD PTR $T6[ebp], -65	; ffffffbfH
  000d0	8d 4d 0c	 lea	 ecx, DWORD PTR $T8[ebp]
  000d3	ff 25 00 00 00
	00		 jmp	 DWORD PTR __imp_??1?$CStringT@DV?$StrTraitMFC_DLL@DV?$ChTraitsCRT@D@ATL@@@@@ATL@@QAE@XZ
$LN96@GetBlockAl:
  000d9	c3		 ret	 0
__unwindfunclet$?GetBlockAllData@CDataOfChartListPage@@AAE?AV?$CStringT@DV?$StrTraitMFC_DLL@DV?$ChTraitsCRT@D@ATL@@@@@ATL@@PAVCChartLink@@@Z$11:
  000da	8d 4d e8	 lea	 ecx, DWORD PTR $T2[ebp]
  000dd	ff 25 00 00 00
	00		 jmp	 DWORD PTR __imp_??1?$CStringT@DV?$StrTraitMFC_DLL@DV?$ChTraitsCRT@D@ATL@@@@@ATL@@QAE@XZ
__unwindfunclet$?GetBlockAllData@CDataOfChartListPage@@AAE?AV?$CStringT@DV?$StrTraitMFC_DLL@DV?$ChTraitsCRT@D@ATL@@@@@ATL@@PAVCChartLink@@@Z$19:
  000e3	8b 45 f0	 mov	 eax, DWORD PTR $T6[ebp]
  000e6	25 80 00 00 00	 and	 eax, 128		; 00000080H
  000eb	0f 84 10 00 00
	00		 je	 $LN109@GetBlockAl
  000f1	81 65 f0 7f ff
	ff ff		 and	 DWORD PTR $T6[ebp], -129 ; ffffff7fH
  000f8	8d 4d 0c	 lea	 ecx, DWORD PTR $T7[ebp]
  000fb	ff 25 00 00 00
	00		 jmp	 DWORD PTR __imp_??1?$CStringT@DV?$StrTraitMFC_DLL@DV?$ChTraitsCRT@D@ATL@@@@@ATL@@QAE@XZ
$LN109@GetBlockAl:
  00101	c3		 ret	 0
  00102	cc		 int	 3
  00103	cc		 int	 3
  00104	cc		 int	 3
  00105	cc		 int	 3
  00106	cc		 int	 3
__ehhandler$?GetBlockAllData@CDataOfChartListPage@@AAE?AV?$CStringT@DV?$StrTraitMFC_DLL@DV?$ChTraitsCRT@D@ATL@@@@@ATL@@PAVCChartLink@@@Z:
  00107	90		 npad	 1
  00108	90		 npad	 1
  00109	8b 54 24 08	 mov	 edx, DWORD PTR [esp+8]
  0010d	8d 42 0c	 lea	 eax, DWORD PTR [edx+12]
  00110	8b 4a e4	 mov	 ecx, DWORD PTR [edx-28]
  00113	33 c8		 xor	 ecx, eax
  00115	e8 00 00 00 00	 call	 @__security_check_cookie@4
  0011a	b8 00 00 00 00	 mov	 eax, OFFSET __ehfuncinfo$?GetBlockAllData@CDataOfChartListPage@@AAE?AV?$CStringT@DV?$StrTraitMFC_DLL@DV?$ChTraitsCRT@D@ATL@@@@@ATL@@PAVCChartLink@@@Z
  0011f	e9 00 00 00 00	 jmp	 ___CxxFrameHandler3
text$x	ENDS
?GetBlockAllData@CDataOfChartListPage@@AAE?AV?$CStringT@DV?$StrTraitMFC_DLL@DV?$ChTraitsCRT@D@ATL@@@@@ATL@@PAVCChartLink@@@Z ENDP ; CDataOfChartListPage::GetBlockAllData
; Function compile flags: /Ogtp
; File D:\git\src\IBK\IBK_DRFN\ProjSrc\SrcChartEx\ChartAddIn\ChartDesignPropertyAddIn\ChartDesignPropertyAddIn\DataOfChartListPage.cpp
; File C:\Program Files (x86)\Microsoft Visual Studio\2019\Community\VC\Tools\MSVC\14.29.30133\atlmfc\include\cstringt.h
; File D:\git\src\IBK\IBK_DRFN\ProjSrc\SrcChartEx\ChartAddIn\ChartDesignPropertyAddIn\ChartDesignPropertyAddIn\DataOfChartListPage.cpp
; File C:\Program Files (x86)\Microsoft Visual Studio\2019\Community\VC\Tools\MSVC\14.29.30133\atlmfc\include\cstringt.h
; File C:\Program Files (x86)\Microsoft Visual Studio\2019\Community\VC\Tools\MSVC\14.29.30133\atlmfc\include\atlsimpstr.h
; File C:\Program Files (x86)\Microsoft Visual Studio\2019\Community\VC\Tools\MSVC\14.29.30133\atlmfc\include\cstringt.h
; File D:\git\src\IBK\IBK_DRFN\ProjSrc\SrcChartEx\ChartAddIn\ChartDesignPropertyAddIn\ChartDesignPropertyAddIn\DataOfChartListPage.cpp
; File C:\Program Files (x86)\Microsoft Visual Studio\2019\Community\VC\Tools\MSVC\14.29.30133\atlmfc\include\cstringt.h
; File D:\git\src\IBK\IBK_DRFN\ProjSrc\SrcChartEx\ChartAddIn\ChartDesignPropertyAddIn\ChartDesignPropertyAddIn\DataOfChartListPage.cpp
; File C:\Program Files (x86)\Microsoft Visual Studio\2019\Community\VC\Tools\MSVC\14.29.30133\atlmfc\include\cstringt.h
; File C:\Program Files (x86)\Microsoft Visual Studio\2019\Community\VC\Tools\MSVC\14.29.30133\atlmfc\include\atlsimpstr.h
; File C:\Program Files (x86)\Microsoft Visual Studio\2019\Community\VC\Tools\MSVC\14.29.30133\atlmfc\include\cstringt.h
; File D:\git\src\IBK\IBK_DRFN\ProjSrc\SrcChartEx\ChartAddIn\ChartDesignPropertyAddIn\ChartDesignPropertyAddIn\DataOfChartListPage.cpp
; File C:\Program Files (x86)\Microsoft Visual Studio\2019\Community\VC\Tools\MSVC\14.29.30133\atlmfc\include\cstringt.h
; File D:\git\src\IBK\IBK_DRFN\ProjSrc\SrcChartEx\ChartAddIn\ChartDesignPropertyAddIn\ChartDesignPropertyAddIn\DataOfChartListPage.cpp
; File C:\Program Files (x86)\Microsoft Visual Studio\2019\Community\VC\Tools\MSVC\14.29.30133\atlmfc\include\cstringt.h
; File C:\Program Files (x86)\Microsoft Visual Studio\2019\Community\VC\Tools\MSVC\14.29.30133\atlmfc\include\atlsimpstr.h
; File C:\Program Files (x86)\Microsoft Visual Studio\2019\Community\VC\Tools\MSVC\14.29.30133\atlmfc\include\cstringt.h
; File D:\git\src\IBK\IBK_DRFN\ProjSrc\SrcChartEx\ChartAddIn\ChartDesignPropertyAddIn\ChartDesignPropertyAddIn\DataOfChartListPage.cpp
; File C:\Program Files (x86)\Microsoft Visual Studio\2019\Community\VC\Tools\MSVC\14.29.30133\atlmfc\include\cstringt.h
; File D:\git\src\IBK\IBK_DRFN\ProjSrc\SrcChartEx\ChartAddIn\ChartDesignPropertyAddIn\ChartDesignPropertyAddIn\DataOfChartListPage.cpp
; File C:\Program Files (x86)\Microsoft Visual Studio\2019\Community\VC\Tools\MSVC\14.29.30133\atlmfc\include\cstringt.h
; File C:\Program Files (x86)\Microsoft Visual Studio\2019\Community\VC\Tools\MSVC\14.29.30133\atlmfc\include\atlsimpstr.h
; File C:\Program Files (x86)\Microsoft Visual Studio\2019\Community\VC\Tools\MSVC\14.29.30133\atlmfc\include\cstringt.h
; File D:\git\src\IBK\IBK_DRFN\ProjSrc\SrcChartEx\ChartAddIn\ChartDesignPropertyAddIn\ChartDesignPropertyAddIn\DataOfChartListPage.cpp
; File C:\Program Files (x86)\Microsoft Visual Studio\2019\Community\VC\Tools\MSVC\14.29.30133\atlmfc\include\cstringt.h
; File D:\git\src\IBK\IBK_DRFN\ProjSrc\SrcChartEx\ChartAddIn\ChartDesignPropertyAddIn\ChartDesignPropertyAddIn\DataOfChartListPage.cpp
; File C:\Program Files (x86)\Microsoft Visual Studio\2019\Community\VC\Tools\MSVC\14.29.30133\atlmfc\include\cstringt.h
; File C:\Program Files (x86)\Microsoft Visual Studio\2019\Community\VC\Tools\MSVC\14.29.30133\atlmfc\include\atlsimpstr.h
; File C:\Program Files (x86)\Microsoft Visual Studio\2019\Community\VC\Tools\MSVC\14.29.30133\atlmfc\include\cstringt.h
; File D:\git\src\IBK\IBK_DRFN\ProjSrc\SrcChartEx\ChartAddIn\ChartDesignPropertyAddIn\ChartDesignPropertyAddIn\DataOfChartListPage.cpp
; File C:\Program Files (x86)\Microsoft Visual Studio\2019\Community\VC\Tools\MSVC\14.29.30133\atlmfc\include\cstringt.h
; File D:\git\src\IBK\IBK_DRFN\ProjSrc\SrcChartEx\ChartAddIn\ChartDesignPropertyAddIn\ChartDesignPropertyAddIn\DataOfChartListPage.cpp
; File C:\Program Files (x86)\Microsoft Visual Studio\2019\Community\VC\Tools\MSVC\14.29.30133\atlmfc\include\cstringt.h
; File C:\Program Files (x86)\Microsoft Visual Studio\2019\Community\VC\Tools\MSVC\14.29.30133\atlmfc\include\atlsimpstr.h
; File C:\Program Files (x86)\Microsoft Visual Studio\2019\Community\VC\Tools\MSVC\14.29.30133\atlmfc\include\cstringt.h
; File D:\git\src\IBK\IBK_DRFN\ProjSrc\SrcChartEx\ChartAddIn\ChartDesignPropertyAddIn\ChartDesignPropertyAddIn\DataOfChartListPage.cpp
; File C:\Program Files (x86)\Microsoft Visual Studio\2019\Community\VC\Tools\MSVC\14.29.30133\atlmfc\include\cstringt.h
; File C:\Program Files (x86)\Microsoft Visual Studio\2019\Community\VC\Tools\MSVC\14.29.30133\atlmfc\include\atlsimpstr.h
; File C:\Program Files (x86)\Microsoft Visual Studio\2019\Community\VC\Tools\MSVC\14.29.30133\atlmfc\include\cstringt.h
; File D:\git\src\IBK\IBK_DRFN\ProjSrc\SrcChartEx\ChartAddIn\ChartDesignPropertyAddIn\ChartDesignPropertyAddIn\DataOfChartListPage.cpp
; File C:\Program Files (x86)\Microsoft Visual Studio\2019\Community\VC\Tools\MSVC\14.29.30133\atlmfc\include\cstringt.h
; File D:\git\src\IBK\IBK_DRFN\ProjSrc\SrcChartEx\ChartAddIn\ChartDesignPropertyAddIn\ChartDesignPropertyAddIn\DataOfChartListPage.cpp
; File C:\Program Files (x86)\Microsoft Visual Studio\2019\Community\VC\Tools\MSVC\14.29.30133\atlmfc\include\cstringt.h
; File C:\Program Files (x86)\Microsoft Visual Studio\2019\Community\VC\Tools\MSVC\14.29.30133\atlmfc\include\atlsimpstr.h
; File C:\Program Files (x86)\Microsoft Visual Studio\2019\Community\VC\Tools\MSVC\14.29.30133\atlmfc\include\cstringt.h
; File D:\git\src\IBK\IBK_DRFN\ProjSrc\SrcChartEx\ChartAddIn\ChartDesignPropertyAddIn\ChartDesignPropertyAddIn\DataOfChartListPage.cpp
; File C:\Program Files (x86)\Microsoft Visual Studio\2019\Community\VC\Tools\MSVC\14.29.30133\atlmfc\include\cstringt.h
; File D:\git\src\IBK\IBK_DRFN\ProjSrc\SrcChartEx\ChartAddIn\ChartDesignPropertyAddIn\ChartDesignPropertyAddIn\DataOfChartListPage.cpp
; File C:\Program Files (x86)\Microsoft Visual Studio\2019\Community\VC\Tools\MSVC\14.29.30133\atlmfc\include\cstringt.h
; File C:\Program Files (x86)\Microsoft Visual Studio\2019\Community\VC\Tools\MSVC\14.29.30133\atlmfc\include\atlsimpstr.h
; File C:\Program Files (x86)\Microsoft Visual Studio\2019\Community\VC\Tools\MSVC\14.29.30133\atlmfc\include\cstringt.h
; File D:\git\src\IBK\IBK_DRFN\ProjSrc\SrcChartEx\ChartAddIn\ChartDesignPropertyAddIn\ChartDesignPropertyAddIn\DataOfChartListPage.cpp
; File C:\Program Files (x86)\Microsoft Visual Studio\2019\Community\VC\Tools\MSVC\14.29.30133\atlmfc\include\cstringt.h
; File D:\git\src\IBK\IBK_DRFN\ProjSrc\SrcChartEx\ChartAddIn\ChartDesignPropertyAddIn\ChartDesignPropertyAddIn\DataOfChartListPage.cpp
; File C:\Program Files (x86)\Microsoft Visual Studio\2019\Community\VC\Tools\MSVC\14.29.30133\atlmfc\include\cstringt.h
; File C:\Program Files (x86)\Microsoft Visual Studio\2019\Community\VC\Tools\MSVC\14.29.30133\atlmfc\include\atlsimpstr.h
; File C:\Program Files (x86)\Microsoft Visual Studio\2019\Community\VC\Tools\MSVC\14.29.30133\atlmfc\include\cstringt.h
; File D:\git\src\IBK\IBK_DRFN\ProjSrc\SrcChartEx\ChartAddIn\ChartDesignPropertyAddIn\ChartDesignPropertyAddIn\DataOfChartListPage.cpp
; File C:\Program Files (x86)\Microsoft Visual Studio\2019\Community\VC\Tools\MSVC\14.29.30133\atlmfc\include\cstringt.h
; File D:\git\src\IBK\IBK_DRFN\ProjSrc\SrcChartEx\ChartAddIn\ChartDesignPropertyAddIn\ChartDesignPropertyAddIn\DataOfChartListPage.cpp
; File C:\Program Files (x86)\Microsoft Visual Studio\2019\Community\VC\Tools\MSVC\14.29.30133\atlmfc\include\cstringt.h
; File C:\Program Files (x86)\Microsoft Visual Studio\2019\Community\VC\Tools\MSVC\14.29.30133\atlmfc\include\atlsimpstr.h
; File C:\Program Files (x86)\Microsoft Visual Studio\2019\Community\VC\Tools\MSVC\14.29.30133\atlmfc\include\cstringt.h
; File D:\git\src\IBK\IBK_DRFN\ProjSrc\SrcChartEx\ChartAddIn\ChartDesignPropertyAddIn\ChartDesignPropertyAddIn\DataOfChartListPage.cpp
; File C:\Program Files (x86)\Microsoft Visual Studio\2019\Community\VC\Tools\MSVC\14.29.30133\atlmfc\include\cstringt.h
; File D:\git\src\IBK\IBK_DRFN\ProjSrc\SrcChartEx\ChartAddIn\ChartDesignPropertyAddIn\ChartDesignPropertyAddIn\DataOfChartListPage.cpp
; File C:\Program Files (x86)\Microsoft Visual Studio\2019\Community\VC\Tools\MSVC\14.29.30133\atlmfc\include\cstringt.h
; File C:\Program Files (x86)\Microsoft Visual Studio\2019\Community\VC\Tools\MSVC\14.29.30133\atlmfc\include\atlsimpstr.h
; File C:\Program Files (x86)\Microsoft Visual Studio\2019\Community\VC\Tools\MSVC\14.29.30133\atlmfc\include\cstringt.h
; File D:\git\src\IBK\IBK_DRFN\ProjSrc\SrcChartEx\ChartAddIn\ChartDesignPropertyAddIn\ChartDesignPropertyAddIn\DataOfChartListPage.cpp
; File C:\Program Files (x86)\Microsoft Visual Studio\2019\Community\VC\Tools\MSVC\14.29.30133\atlmfc\include\cstringt.h
; File D:\git\src\IBK\IBK_DRFN\ProjSrc\SrcChartEx\ChartAddIn\ChartDesignPropertyAddIn\ChartDesignPropertyAddIn\DataOfChartListPage.cpp
; File C:\Program Files (x86)\Microsoft Visual Studio\2019\Community\VC\Tools\MSVC\14.29.30133\atlmfc\include\cstringt.h
; File C:\Program Files (x86)\Microsoft Visual Studio\2019\Community\VC\Tools\MSVC\14.29.30133\atlmfc\include\atlsimpstr.h
; File C:\Program Files (x86)\Microsoft Visual Studio\2019\Community\VC\Tools\MSVC\14.29.30133\atlmfc\include\cstringt.h
; File D:\git\src\IBK\IBK_DRFN\ProjSrc\SrcChartEx\ChartAddIn\ChartDesignPropertyAddIn\ChartDesignPropertyAddIn\DataOfChartListPage.cpp
; File C:\Program Files (x86)\Microsoft Visual Studio\2019\Community\VC\Tools\MSVC\14.29.30133\atlmfc\include\cstringt.h
; File D:\git\src\IBK\IBK_DRFN\ProjSrc\SrcChartEx\ChartAddIn\ChartDesignPropertyAddIn\ChartDesignPropertyAddIn\DataOfChartListPage.cpp
; File C:\Program Files (x86)\Microsoft Visual Studio\2019\Community\VC\Tools\MSVC\14.29.30133\atlmfc\include\cstringt.h
; File C:\Program Files (x86)\Microsoft Visual Studio\2019\Community\VC\Tools\MSVC\14.29.30133\atlmfc\include\atlsimpstr.h
; File C:\Program Files (x86)\Microsoft Visual Studio\2019\Community\VC\Tools\MSVC\14.29.30133\atlmfc\include\cstringt.h
; File D:\git\src\IBK\IBK_DRFN\ProjSrc\SrcChartEx\ChartAddIn\ChartDesignPropertyAddIn\ChartDesignPropertyAddIn\DataOfChartListPage.cpp
;	COMDAT ?GetVerticalAllData@CDataOfChartListPage@@AAE?AV?$CStringT@DV?$StrTraitMFC_DLL@DV?$ChTraitsCRT@D@ATL@@@@@ATL@@PAVCChartLink@@@Z
_TEXT	SEGMENT
$T2 = -28						; size = 4
$T3 = -24						; size = 4
$T4 = -24						; size = 4
$T5 = -24						; size = 4
$T6 = -24						; size = 4
$T7 = -24						; size = 4
$T8 = -24						; size = 4
$T9 = -24						; size = 4
$T10 = -24						; size = 4
$T11 = -24						; size = 4
$T12 = -24						; size = 4
$T13 = -24						; size = 4
$T14 = -24						; size = 4
$T15 = -24						; size = 4
$T16 = -24						; size = 4
$T17 = -20						; size = 4
$T18 = -16						; size = 4
__$EHRec$ = -12						; size = 12
___$ReturnUdt$ = 8					; size = 4
$T19 = 12						; size = 4
$T20 = 12						; size = 4
$T21 = 12						; size = 4
$T22 = 12						; size = 4
$T23 = 12						; size = 4
$T24 = 12						; size = 4
$T25 = 12						; size = 4
$T26 = 12						; size = 4
$T27 = 12						; size = 4
$T28 = 12						; size = 4
$T29 = 12						; size = 4
$T30 = 12						; size = 4
$T31 = 12						; size = 4
_pItem$ = 12						; size = 4
?GetVerticalAllData@CDataOfChartListPage@@AAE?AV?$CStringT@DV?$StrTraitMFC_DLL@DV?$ChTraitsCRT@D@ATL@@@@@ATL@@PAVCChartLink@@@Z PROC ; CDataOfChartListPage::GetVerticalAllData, COMDAT
; _this$ = ecx

; 205  : {

  00000	55		 push	 ebp
  00001	8b ec		 mov	 ebp, esp
  00003	6a ff		 push	 -1
  00005	68 00 00 00 00	 push	 __ehhandler$?GetVerticalAllData@CDataOfChartListPage@@AAE?AV?$CStringT@DV?$StrTraitMFC_DLL@DV?$ChTraitsCRT@D@ATL@@@@@ATL@@PAVCChartLink@@@Z
  0000a	64 a1 00 00 00
	00		 mov	 eax, DWORD PTR fs:0
  00010	50		 push	 eax
  00011	83 ec 14	 sub	 esp, 20			; 00000014H
  00014	53		 push	 ebx
  00015	56		 push	 esi
  00016	57		 push	 edi
  00017	a1 00 00 00 00	 mov	 eax, DWORD PTR ___security_cookie
  0001c	33 c5		 xor	 eax, ebp
  0001e	50		 push	 eax
  0001f	8d 45 f4	 lea	 eax, DWORD PTR __$EHRec$[ebp]
  00022	64 a3 00 00 00
	00		 mov	 DWORD PTR fs:0, eax
  00028	8b f1		 mov	 esi, ecx
  0002a	c7 45 f0 00 00
	00 00		 mov	 DWORD PTR $T18[ebp], 0

; 206  : 	CString strValue = "";

  00031	8b 5d 08	 mov	 ebx, DWORD PTR ___$ReturnUdt$[ebp]
  00034	8b cb		 mov	 ecx, ebx
  00036	68 00 00 00 00	 push	 OFFSET ??_C@_00CNPNBAHC@@
  0003b	c7 45 fc 00 00
	00 00		 mov	 DWORD PTR __$EHRec$[ebp+8], 0
  00042	ff 15 00 00 00
	00		 call	 DWORD PTR __imp_??0?$CStringT@DV?$StrTraitMFC_DLL@DV?$ChTraitsCRT@D@ATL@@@@@ATL@@QAE@PBD@Z

; 233  : 	return strValue;

  00048	68 00 00 00 00	 push	 OFFSET ??_C@_0BC@DJOHDNOJ@VertScaleGroup?$DL?$AN?6@
  0004d	8b cb		 mov	 ecx, ebx
  0004f	c7 45 fc 00 00
	00 00		 mov	 DWORD PTR __$EHRec$[ebp+8], 0
  00056	c7 45 f0 01 00
	00 00		 mov	 DWORD PTR $T18[ebp], 1
  0005d	ff 15 00 00 00
	00		 call	 DWORD PTR __imp_??Y?$CStringT@DV?$StrTraitMFC_DLL@DV?$ChTraitsCRT@D@ATL@@@@@ATL@@QAEAAV01@PBD@Z
  00063	6a 00		 push	 0
  00065	6a 06		 push	 6
  00067	51		 push	 ecx
  00068	8b cc		 mov	 ecx, esp
  0006a	89 65 e4	 mov	 DWORD PTR $T2[ebp], esp
  0006d	6a 01		 push	 1
  0006f	6a 2c		 push	 44			; 0000002cH
  00071	ff 15 00 00 00
	00		 call	 DWORD PTR __imp_??0?$CStringT@DV?$StrTraitMFC_DLL@DV?$ChTraitsCRT@D@ATL@@@@@ATL@@QAE@DH@Z
  00077	8b 7d 0c	 mov	 edi, DWORD PTR _pItem$[ebp]
  0007a	51		 push	 ecx
  0007b	8b cc		 mov	 ecx, esp
  0007d	c7 45 fc 01 00
	00 00		 mov	 DWORD PTR __$EHRec$[ebp+8], 1
  00084	8d 47 58	 lea	 eax, DWORD PTR [edi+88]
  00087	50		 push	 eax
  00088	ff 15 00 00 00
	00		 call	 DWORD PTR __imp_??0?$CStringT@DV?$StrTraitMFC_DLL@DV?$ChTraitsCRT@D@ATL@@@@@ATL@@QAE@ABV01@@Z
  0008e	ff 76 10	 push	 DWORD PTR [esi+16]
  00091	8d 45 e8	 lea	 eax, DWORD PTR $T16[ebp]
  00094	c6 45 fc 00	 mov	 BYTE PTR __$EHRec$[ebp+8], 0
  00098	50		 push	 eax
  00099	b9 00 00 00 00	 mov	 ecx, OFFSET ?g_iMetaTable@@3VIMetaTable@@A ; g_iMetaTable
  0009e	e8 00 00 00 00	 call	 ?GetMultipleMetaText@IMetaTable@@QAE?AV?$CStringT@DV?$StrTraitMFC_DLL@DV?$ChTraitsCRT@D@ATL@@@@@ATL@@PAUHWND__@@V23@1HH@Z ; IMetaTable::GetMultipleMetaText
  000a3	8b f0		 mov	 esi, eax
; File C:\Program Files (x86)\Microsoft Visual Studio\2019\Community\VC\Tools\MSVC\14.29.30133\atlmfc\include\cstringt.h

; 2401 : 		CStringT strResult( str1.GetManager() );

  000a5	8b ce		 mov	 ecx, esi
; File D:\git\src\IBK\IBK_DRFN\ProjSrc\SrcChartEx\ChartAddIn\ChartDesignPropertyAddIn\ChartDesignPropertyAddIn\DataOfChartListPage.cpp

; 209  : 	strValue +=	_LTOMS2( pItem->m_strScaleStyle, ',', 6, 0)						+ ";";  //

  000a7	c7 45 fc 03 00
	00 00		 mov	 DWORD PTR __$EHRec$[ebp+8], 3
; File C:\Program Files (x86)\Microsoft Visual Studio\2019\Community\VC\Tools\MSVC\14.29.30133\atlmfc\include\cstringt.h

; 2401 : 		CStringT strResult( str1.GetManager() );

  000ae	ff 15 00 00 00
	00		 call	 DWORD PTR __imp_?GetManager@?$CStringT@DV?$StrTraitMFC_DLL@DV?$ChTraitsCRT@D@ATL@@@@@ATL@@QBEPAUIAtlStringMgr@2@XZ
  000b4	50		 push	 eax
  000b5	8d 4d ec	 lea	 ecx, DWORD PTR $T17[ebp]
  000b8	ff 15 00 00 00
	00		 call	 DWORD PTR __imp_??0?$CStringT@DV?$StrTraitMFC_DLL@DV?$ChTraitsCRT@D@ATL@@@@@ATL@@QAE@PAUIAtlStringMgr@1@@Z
; File C:\Program Files (x86)\Microsoft Visual Studio\2019\Community\VC\Tools\MSVC\14.29.30133\atlmfc\include\atlsimpstr.h

; 519  : 		return( GetData()->nDataLength );

  000be	8b 06		 mov	 eax, DWORD PTR [esi]
; File C:\Program Files (x86)\Microsoft Visual Studio\2019\Community\VC\Tools\MSVC\14.29.30133\atlmfc\include\cstringt.h

; 2403 : 		CThisSimpleString::Concatenate( strResult, str1, str1.GetLength(), psz2, CThisSimpleString::StringLength( psz2 ) );

  000c0	6a 01		 push	 1
  000c2	68 00 00 00 00	 push	 OFFSET ??_C@_01ICJEACDI@?$DL@

; 2404 : 
; 2405 : 		return( strResult );

  000c7	c7 45 f0 03 00
	00 00		 mov	 DWORD PTR $T18[ebp], 3
  000ce	ff 70 f4	 push	 DWORD PTR [eax-12]
  000d1	50		 push	 eax
  000d2	8d 45 ec	 lea	 eax, DWORD PTR $T17[ebp]
  000d5	50		 push	 eax
  000d6	ff 15 00 00 00
	00		 call	 DWORD PTR __imp_?Concatenate@?$CSimpleStringT@D$00@ATL@@KAXAAV12@PBDH1H@Z
  000dc	83 c4 14	 add	 esp, 20			; 00000014H
; File D:\git\src\IBK\IBK_DRFN\ProjSrc\SrcChartEx\ChartAddIn\ChartDesignPropertyAddIn\ChartDesignPropertyAddIn\DataOfChartListPage.cpp

; 209  : 	strValue +=	_LTOMS2( pItem->m_strScaleStyle, ',', 6, 0)						+ ";";  //

  000df	8d 45 ec	 lea	 eax, DWORD PTR $T17[ebp]
  000e2	8b cb		 mov	 ecx, ebx
  000e4	50		 push	 eax
  000e5	ff 15 00 00 00
	00		 call	 DWORD PTR __imp_??Y?$CStringT@DV?$StrTraitMFC_DLL@DV?$ChTraitsCRT@D@ATL@@@@@ATL@@QAEAAV01@ABV?$CSimpleStringT@D$00@1@@Z
  000eb	8d 4d ec	 lea	 ecx, DWORD PTR $T17[ebp]
  000ee	c7 45 f0 01 00
	00 00		 mov	 DWORD PTR $T18[ebp], 1
  000f5	ff 15 00 00 00
	00		 call	 DWORD PTR __imp_??1?$CStringT@DV?$StrTraitMFC_DLL@DV?$ChTraitsCRT@D@ATL@@@@@ATL@@QAE@XZ
  000fb	8d 4d e8	 lea	 ecx, DWORD PTR $T16[ebp]
  000fe	c6 45 fc 00	 mov	 BYTE PTR __$EHRec$[ebp+8], 0
  00102	ff 15 00 00 00
	00		 call	 DWORD PTR __imp_??1?$CStringT@DV?$StrTraitMFC_DLL@DV?$ChTraitsCRT@D@ATL@@@@@ATL@@QAE@XZ

; 210  : 	strValue +=	CDataConversion::IntToString(pItem->m_nScalePosition)			+ ";"; // 

  00108	ff 77 20	 push	 DWORD PTR [edi+32]
  0010b	8d 45 e8	 lea	 eax, DWORD PTR $T15[ebp]
  0010e	50		 push	 eax
  0010f	e8 00 00 00 00	 call	 ?IntToString@CDataConversion@@SA?AV?$CStringT@DV?$StrTraitMFC_DLL@DV?$ChTraitsCRT@D@ATL@@@@@ATL@@H@Z ; CDataConversion::IntToString
  00114	83 c4 08	 add	 esp, 8
  00117	8b f0		 mov	 esi, eax
; File C:\Program Files (x86)\Microsoft Visual Studio\2019\Community\VC\Tools\MSVC\14.29.30133\atlmfc\include\cstringt.h

; 2401 : 		CStringT strResult( str1.GetManager() );

  00119	8b ce		 mov	 ecx, esi
; File D:\git\src\IBK\IBK_DRFN\ProjSrc\SrcChartEx\ChartAddIn\ChartDesignPropertyAddIn\ChartDesignPropertyAddIn\DataOfChartListPage.cpp

; 210  : 	strValue +=	CDataConversion::IntToString(pItem->m_nScalePosition)			+ ";"; // 

  0011b	c7 45 fc 05 00
	00 00		 mov	 DWORD PTR __$EHRec$[ebp+8], 5
; File C:\Program Files (x86)\Microsoft Visual Studio\2019\Community\VC\Tools\MSVC\14.29.30133\atlmfc\include\cstringt.h

; 2401 : 		CStringT strResult( str1.GetManager() );

  00122	ff 15 00 00 00
	00		 call	 DWORD PTR __imp_?GetManager@?$CStringT@DV?$StrTraitMFC_DLL@DV?$ChTraitsCRT@D@ATL@@@@@ATL@@QBEPAUIAtlStringMgr@2@XZ
  00128	50		 push	 eax
  00129	8d 4d 0c	 lea	 ecx, DWORD PTR $T31[ebp]
  0012c	ff 15 00 00 00
	00		 call	 DWORD PTR __imp_??0?$CStringT@DV?$StrTraitMFC_DLL@DV?$ChTraitsCRT@D@ATL@@@@@ATL@@QAE@PAUIAtlStringMgr@1@@Z
; File C:\Program Files (x86)\Microsoft Visual Studio\2019\Community\VC\Tools\MSVC\14.29.30133\atlmfc\include\atlsimpstr.h

; 519  : 		return( GetData()->nDataLength );

  00132	8b 06		 mov	 eax, DWORD PTR [esi]
; File C:\Program Files (x86)\Microsoft Visual Studio\2019\Community\VC\Tools\MSVC\14.29.30133\atlmfc\include\cstringt.h

; 2403 : 		CThisSimpleString::Concatenate( strResult, str1, str1.GetLength(), psz2, CThisSimpleString::StringLength( psz2 ) );

  00134	6a 01		 push	 1

; 2404 : 
; 2405 : 		return( strResult );

  00136	c7 45 f0 05 00
	00 00		 mov	 DWORD PTR $T18[ebp], 5
  0013d	68 00 00 00 00	 push	 OFFSET ??_C@_01ICJEACDI@?$DL@

; 2403 : 		CThisSimpleString::Concatenate( strResult, str1, str1.GetLength(), psz2, CThisSimpleString::StringLength( psz2 ) );

  00142	ff 70 f4	 push	 DWORD PTR [eax-12]
  00145	50		 push	 eax
  00146	8d 45 0c	 lea	 eax, DWORD PTR $T31[ebp]
  00149	50		 push	 eax
  0014a	ff 15 00 00 00
	00		 call	 DWORD PTR __imp_?Concatenate@?$CSimpleStringT@D$00@ATL@@KAXAAV12@PBDH1H@Z
  00150	83 c4 14	 add	 esp, 20			; 00000014H
; File D:\git\src\IBK\IBK_DRFN\ProjSrc\SrcChartEx\ChartAddIn\ChartDesignPropertyAddIn\ChartDesignPropertyAddIn\DataOfChartListPage.cpp

; 210  : 	strValue +=	CDataConversion::IntToString(pItem->m_nScalePosition)			+ ";"; // 

  00153	8d 45 0c	 lea	 eax, DWORD PTR $T31[ebp]
  00156	8b cb		 mov	 ecx, ebx
  00158	50		 push	 eax
  00159	ff 15 00 00 00
	00		 call	 DWORD PTR __imp_??Y?$CStringT@DV?$StrTraitMFC_DLL@DV?$ChTraitsCRT@D@ATL@@@@@ATL@@QAEAAV01@ABV?$CSimpleStringT@D$00@1@@Z
  0015f	8d 4d 0c	 lea	 ecx, DWORD PTR $T31[ebp]
  00162	c7 45 f0 01 00
	00 00		 mov	 DWORD PTR $T18[ebp], 1
  00169	ff 15 00 00 00
	00		 call	 DWORD PTR __imp_??1?$CStringT@DV?$StrTraitMFC_DLL@DV?$ChTraitsCRT@D@ATL@@@@@ATL@@QAE@XZ
  0016f	8d 4d e8	 lea	 ecx, DWORD PTR $T15[ebp]
  00172	c6 45 fc 00	 mov	 BYTE PTR __$EHRec$[ebp+8], 0
  00176	ff 15 00 00 00
	00		 call	 DWORD PTR __imp_??1?$CStringT@DV?$StrTraitMFC_DLL@DV?$ChTraitsCRT@D@ATL@@@@@ATL@@QAE@XZ

; 211  : 	strValue +=	CDataConversion::IntToString(pItem->m_nScaleCompartType)		+ ";"; //Grid Type

  0017c	ff 77 50	 push	 DWORD PTR [edi+80]
  0017f	8d 45 e8	 lea	 eax, DWORD PTR $T14[ebp]
  00182	50		 push	 eax
  00183	e8 00 00 00 00	 call	 ?IntToString@CDataConversion@@SA?AV?$CStringT@DV?$StrTraitMFC_DLL@DV?$ChTraitsCRT@D@ATL@@@@@ATL@@H@Z ; CDataConversion::IntToString
  00188	83 c4 08	 add	 esp, 8
  0018b	8b f0		 mov	 esi, eax
; File C:\Program Files (x86)\Microsoft Visual Studio\2019\Community\VC\Tools\MSVC\14.29.30133\atlmfc\include\cstringt.h

; 2401 : 		CStringT strResult( str1.GetManager() );

  0018d	8b ce		 mov	 ecx, esi
; File D:\git\src\IBK\IBK_DRFN\ProjSrc\SrcChartEx\ChartAddIn\ChartDesignPropertyAddIn\ChartDesignPropertyAddIn\DataOfChartListPage.cpp

; 211  : 	strValue +=	CDataConversion::IntToString(pItem->m_nScaleCompartType)		+ ";"; //Grid Type

  0018f	c7 45 fc 07 00
	00 00		 mov	 DWORD PTR __$EHRec$[ebp+8], 7
; File C:\Program Files (x86)\Microsoft Visual Studio\2019\Community\VC\Tools\MSVC\14.29.30133\atlmfc\include\cstringt.h

; 2401 : 		CStringT strResult( str1.GetManager() );

  00196	ff 15 00 00 00
	00		 call	 DWORD PTR __imp_?GetManager@?$CStringT@DV?$StrTraitMFC_DLL@DV?$ChTraitsCRT@D@ATL@@@@@ATL@@QBEPAUIAtlStringMgr@2@XZ
  0019c	50		 push	 eax
  0019d	8d 4d 0c	 lea	 ecx, DWORD PTR $T30[ebp]
  001a0	ff 15 00 00 00
	00		 call	 DWORD PTR __imp_??0?$CStringT@DV?$StrTraitMFC_DLL@DV?$ChTraitsCRT@D@ATL@@@@@ATL@@QAE@PAUIAtlStringMgr@1@@Z
; File C:\Program Files (x86)\Microsoft Visual Studio\2019\Community\VC\Tools\MSVC\14.29.30133\atlmfc\include\atlsimpstr.h

; 519  : 		return( GetData()->nDataLength );

  001a6	8b 06		 mov	 eax, DWORD PTR [esi]
; File C:\Program Files (x86)\Microsoft Visual Studio\2019\Community\VC\Tools\MSVC\14.29.30133\atlmfc\include\cstringt.h

; 2403 : 		CThisSimpleString::Concatenate( strResult, str1, str1.GetLength(), psz2, CThisSimpleString::StringLength( psz2 ) );

  001a8	6a 01		 push	 1
  001aa	68 00 00 00 00	 push	 OFFSET ??_C@_01ICJEACDI@?$DL@

; 2404 : 
; 2405 : 		return( strResult );

  001af	c7 45 f0 09 00
	00 00		 mov	 DWORD PTR $T18[ebp], 9
  001b6	ff 70 f4	 push	 DWORD PTR [eax-12]
  001b9	50		 push	 eax
  001ba	8d 45 0c	 lea	 eax, DWORD PTR $T30[ebp]
  001bd	50		 push	 eax
  001be	ff 15 00 00 00
	00		 call	 DWORD PTR __imp_?Concatenate@?$CSimpleStringT@D$00@ATL@@KAXAAV12@PBDH1H@Z
  001c4	83 c4 14	 add	 esp, 20			; 00000014H
; File D:\git\src\IBK\IBK_DRFN\ProjSrc\SrcChartEx\ChartAddIn\ChartDesignPropertyAddIn\ChartDesignPropertyAddIn\DataOfChartListPage.cpp

; 211  : 	strValue +=	CDataConversion::IntToString(pItem->m_nScaleCompartType)		+ ";"; //Grid Type

  001c7	8d 45 0c	 lea	 eax, DWORD PTR $T30[ebp]
  001ca	8b cb		 mov	 ecx, ebx
  001cc	50		 push	 eax
  001cd	ff 15 00 00 00
	00		 call	 DWORD PTR __imp_??Y?$CStringT@DV?$StrTraitMFC_DLL@DV?$ChTraitsCRT@D@ATL@@@@@ATL@@QAEAAV01@ABV?$CSimpleStringT@D$00@1@@Z
  001d3	8d 4d 0c	 lea	 ecx, DWORD PTR $T30[ebp]
  001d6	c7 45 f0 01 00
	00 00		 mov	 DWORD PTR $T18[ebp], 1
  001dd	ff 15 00 00 00
	00		 call	 DWORD PTR __imp_??1?$CStringT@DV?$StrTraitMFC_DLL@DV?$ChTraitsCRT@D@ATL@@@@@ATL@@QAE@XZ
  001e3	8d 4d e8	 lea	 ecx, DWORD PTR $T14[ebp]
  001e6	c6 45 fc 00	 mov	 BYTE PTR __$EHRec$[ebp+8], 0
  001ea	ff 15 00 00 00
	00		 call	 DWORD PTR __imp_??1?$CStringT@DV?$StrTraitMFC_DLL@DV?$ChTraitsCRT@D@ATL@@@@@ATL@@QAE@XZ

; 212  : 	strValue +=	CDataConversion::IntToString(pItem->m_nScaleExpressionType)		+ ";"; //scale  

  001f0	ff 77 54	 push	 DWORD PTR [edi+84]
  001f3	8d 45 e8	 lea	 eax, DWORD PTR $T13[ebp]
  001f6	50		 push	 eax
  001f7	e8 00 00 00 00	 call	 ?IntToString@CDataConversion@@SA?AV?$CStringT@DV?$StrTraitMFC_DLL@DV?$ChTraitsCRT@D@ATL@@@@@ATL@@H@Z ; CDataConversion::IntToString
  001fc	83 c4 08	 add	 esp, 8
  001ff	8b f0		 mov	 esi, eax
; File C:\Program Files (x86)\Microsoft Visual Studio\2019\Community\VC\Tools\MSVC\14.29.30133\atlmfc\include\cstringt.h

; 2401 : 		CStringT strResult( str1.GetManager() );

  00201	8b ce		 mov	 ecx, esi
; File D:\git\src\IBK\IBK_DRFN\ProjSrc\SrcChartEx\ChartAddIn\ChartDesignPropertyAddIn\ChartDesignPropertyAddIn\DataOfChartListPage.cpp

; 212  : 	strValue +=	CDataConversion::IntToString(pItem->m_nScaleExpressionType)		+ ";"; //scale  

  00203	c7 45 fc 09 00
	00 00		 mov	 DWORD PTR __$EHRec$[ebp+8], 9
; File C:\Program Files (x86)\Microsoft Visual Studio\2019\Community\VC\Tools\MSVC\14.29.30133\atlmfc\include\cstringt.h

; 2401 : 		CStringT strResult( str1.GetManager() );

  0020a	ff 15 00 00 00
	00		 call	 DWORD PTR __imp_?GetManager@?$CStringT@DV?$StrTraitMFC_DLL@DV?$ChTraitsCRT@D@ATL@@@@@ATL@@QBEPAUIAtlStringMgr@2@XZ
  00210	50		 push	 eax
  00211	8d 4d 0c	 lea	 ecx, DWORD PTR $T29[ebp]
  00214	ff 15 00 00 00
	00		 call	 DWORD PTR __imp_??0?$CStringT@DV?$StrTraitMFC_DLL@DV?$ChTraitsCRT@D@ATL@@@@@ATL@@QAE@PAUIAtlStringMgr@1@@Z
; File C:\Program Files (x86)\Microsoft Visual Studio\2019\Community\VC\Tools\MSVC\14.29.30133\atlmfc\include\atlsimpstr.h

; 519  : 		return( GetData()->nDataLength );

  0021a	8b 06		 mov	 eax, DWORD PTR [esi]
; File C:\Program Files (x86)\Microsoft Visual Studio\2019\Community\VC\Tools\MSVC\14.29.30133\atlmfc\include\cstringt.h

; 2403 : 		CThisSimpleString::Concatenate( strResult, str1, str1.GetLength(), psz2, CThisSimpleString::StringLength( psz2 ) );

  0021c	6a 01		 push	 1
  0021e	68 00 00 00 00	 push	 OFFSET ??_C@_01ICJEACDI@?$DL@

; 2404 : 
; 2405 : 		return( strResult );

  00223	c7 45 f0 11 00
	00 00		 mov	 DWORD PTR $T18[ebp], 17	; 00000011H
  0022a	ff 70 f4	 push	 DWORD PTR [eax-12]
  0022d	50		 push	 eax
  0022e	8d 45 0c	 lea	 eax, DWORD PTR $T29[ebp]
  00231	50		 push	 eax
  00232	ff 15 00 00 00
	00		 call	 DWORD PTR __imp_?Concatenate@?$CSimpleStringT@D$00@ATL@@KAXAAV12@PBDH1H@Z
  00238	83 c4 14	 add	 esp, 20			; 00000014H
; File D:\git\src\IBK\IBK_DRFN\ProjSrc\SrcChartEx\ChartAddIn\ChartDesignPropertyAddIn\ChartDesignPropertyAddIn\DataOfChartListPage.cpp

; 212  : 	strValue +=	CDataConversion::IntToString(pItem->m_nScaleExpressionType)		+ ";"; //scale  

  0023b	8d 45 0c	 lea	 eax, DWORD PTR $T29[ebp]
  0023e	8b cb		 mov	 ecx, ebx
  00240	50		 push	 eax
  00241	ff 15 00 00 00
	00		 call	 DWORD PTR __imp_??Y?$CStringT@DV?$StrTraitMFC_DLL@DV?$ChTraitsCRT@D@ATL@@@@@ATL@@QAEAAV01@ABV?$CSimpleStringT@D$00@1@@Z
  00247	8d 4d 0c	 lea	 ecx, DWORD PTR $T29[ebp]
  0024a	c7 45 f0 01 00
	00 00		 mov	 DWORD PTR $T18[ebp], 1
  00251	ff 15 00 00 00
	00		 call	 DWORD PTR __imp_??1?$CStringT@DV?$StrTraitMFC_DLL@DV?$ChTraitsCRT@D@ATL@@@@@ATL@@QAE@XZ
  00257	8d 4d e8	 lea	 ecx, DWORD PTR $T13[ebp]
  0025a	c6 45 fc 00	 mov	 BYTE PTR __$EHRec$[ebp+8], 0
  0025e	ff 15 00 00 00
	00		 call	 DWORD PTR __imp_??1?$CStringT@DV?$StrTraitMFC_DLL@DV?$ChTraitsCRT@D@ATL@@@@@ATL@@QAE@XZ

; 215  : 	strValue +=	CDataConversion::Bool2Str(			pItem->m_bMinMaxLock)		+ ";"; // Lock

  00264	ff 77 6c	 push	 DWORD PTR [edi+108]
  00267	8d 45 e8	 lea	 eax, DWORD PTR $T12[ebp]
  0026a	50		 push	 eax
  0026b	e8 00 00 00 00	 call	 ?Bool2Str@CDataConversion@@SA?AV?$CStringT@DV?$StrTraitMFC_DLL@DV?$ChTraitsCRT@D@ATL@@@@@ATL@@H@Z ; CDataConversion::Bool2Str
  00270	83 c4 08	 add	 esp, 8
  00273	8b f0		 mov	 esi, eax
; File C:\Program Files (x86)\Microsoft Visual Studio\2019\Community\VC\Tools\MSVC\14.29.30133\atlmfc\include\cstringt.h

; 2401 : 		CStringT strResult( str1.GetManager() );

  00275	8b ce		 mov	 ecx, esi
; File D:\git\src\IBK\IBK_DRFN\ProjSrc\SrcChartEx\ChartAddIn\ChartDesignPropertyAddIn\ChartDesignPropertyAddIn\DataOfChartListPage.cpp

; 215  : 	strValue +=	CDataConversion::Bool2Str(			pItem->m_bMinMaxLock)		+ ";"; // Lock

  00277	c7 45 fc 0b 00
	00 00		 mov	 DWORD PTR __$EHRec$[ebp+8], 11 ; 0000000bH
; File C:\Program Files (x86)\Microsoft Visual Studio\2019\Community\VC\Tools\MSVC\14.29.30133\atlmfc\include\cstringt.h

; 2401 : 		CStringT strResult( str1.GetManager() );

  0027e	ff 15 00 00 00
	00		 call	 DWORD PTR __imp_?GetManager@?$CStringT@DV?$StrTraitMFC_DLL@DV?$ChTraitsCRT@D@ATL@@@@@ATL@@QBEPAUIAtlStringMgr@2@XZ
  00284	50		 push	 eax
  00285	8d 4d 0c	 lea	 ecx, DWORD PTR $T28[ebp]
  00288	ff 15 00 00 00
	00		 call	 DWORD PTR __imp_??0?$CStringT@DV?$StrTraitMFC_DLL@DV?$ChTraitsCRT@D@ATL@@@@@ATL@@QAE@PAUIAtlStringMgr@1@@Z
; File C:\Program Files (x86)\Microsoft Visual Studio\2019\Community\VC\Tools\MSVC\14.29.30133\atlmfc\include\atlsimpstr.h

; 519  : 		return( GetData()->nDataLength );

  0028e	8b 06		 mov	 eax, DWORD PTR [esi]
; File C:\Program Files (x86)\Microsoft Visual Studio\2019\Community\VC\Tools\MSVC\14.29.30133\atlmfc\include\cstringt.h

; 2403 : 		CThisSimpleString::Concatenate( strResult, str1, str1.GetLength(), psz2, CThisSimpleString::StringLength( psz2 ) );

  00290	6a 01		 push	 1
  00292	68 00 00 00 00	 push	 OFFSET ??_C@_01ICJEACDI@?$DL@

; 2404 : 
; 2405 : 		return( strResult );

  00297	c7 45 f0 21 00
	00 00		 mov	 DWORD PTR $T18[ebp], 33	; 00000021H
  0029e	ff 70 f4	 push	 DWORD PTR [eax-12]
  002a1	50		 push	 eax
  002a2	8d 45 0c	 lea	 eax, DWORD PTR $T28[ebp]
  002a5	50		 push	 eax
  002a6	ff 15 00 00 00
	00		 call	 DWORD PTR __imp_?Concatenate@?$CSimpleStringT@D$00@ATL@@KAXAAV12@PBDH1H@Z
  002ac	83 c4 14	 add	 esp, 20			; 00000014H
; File D:\git\src\IBK\IBK_DRFN\ProjSrc\SrcChartEx\ChartAddIn\ChartDesignPropertyAddIn\ChartDesignPropertyAddIn\DataOfChartListPage.cpp

; 215  : 	strValue +=	CDataConversion::Bool2Str(			pItem->m_bMinMaxLock)		+ ";"; // Lock

  002af	8d 45 0c	 lea	 eax, DWORD PTR $T28[ebp]
  002b2	8b cb		 mov	 ecx, ebx
  002b4	50		 push	 eax
  002b5	ff 15 00 00 00
	00		 call	 DWORD PTR __imp_??Y?$CStringT@DV?$StrTraitMFC_DLL@DV?$ChTraitsCRT@D@ATL@@@@@ATL@@QAEAAV01@ABV?$CSimpleStringT@D$00@1@@Z
  002bb	8d 4d 0c	 lea	 ecx, DWORD PTR $T28[ebp]
  002be	c7 45 f0 01 00
	00 00		 mov	 DWORD PTR $T18[ebp], 1
  002c5	ff 15 00 00 00
	00		 call	 DWORD PTR __imp_??1?$CStringT@DV?$StrTraitMFC_DLL@DV?$ChTraitsCRT@D@ATL@@@@@ATL@@QAE@XZ
  002cb	8d 4d e8	 lea	 ecx, DWORD PTR $T12[ebp]
  002ce	c6 45 fc 00	 mov	 BYTE PTR __$EHRec$[ebp+8], 0
  002d2	ff 15 00 00 00
	00		 call	 DWORD PTR __imp_??1?$CStringT@DV?$StrTraitMFC_DLL@DV?$ChTraitsCRT@D@ATL@@@@@ATL@@QAE@XZ

; 216  : 	strValue +=	CDataConversion::IntToString(		( int)pItem->m_eMinMaxType)	+ ";"; // Type

  002d8	ff 77 70	 push	 DWORD PTR [edi+112]
  002db	8d 45 e8	 lea	 eax, DWORD PTR $T11[ebp]
  002de	50		 push	 eax
  002df	e8 00 00 00 00	 call	 ?IntToString@CDataConversion@@SA?AV?$CStringT@DV?$StrTraitMFC_DLL@DV?$ChTraitsCRT@D@ATL@@@@@ATL@@H@Z ; CDataConversion::IntToString
  002e4	83 c4 08	 add	 esp, 8
  002e7	8b f0		 mov	 esi, eax
; File C:\Program Files (x86)\Microsoft Visual Studio\2019\Community\VC\Tools\MSVC\14.29.30133\atlmfc\include\cstringt.h

; 2401 : 		CStringT strResult( str1.GetManager() );

  002e9	8b ce		 mov	 ecx, esi
; File D:\git\src\IBK\IBK_DRFN\ProjSrc\SrcChartEx\ChartAddIn\ChartDesignPropertyAddIn\ChartDesignPropertyAddIn\DataOfChartListPage.cpp

; 216  : 	strValue +=	CDataConversion::IntToString(		( int)pItem->m_eMinMaxType)	+ ";"; // Type

  002eb	c7 45 fc 0d 00
	00 00		 mov	 DWORD PTR __$EHRec$[ebp+8], 13 ; 0000000dH
; File C:\Program Files (x86)\Microsoft Visual Studio\2019\Community\VC\Tools\MSVC\14.29.30133\atlmfc\include\cstringt.h

; 2401 : 		CStringT strResult( str1.GetManager() );

  002f2	ff 15 00 00 00
	00		 call	 DWORD PTR __imp_?GetManager@?$CStringT@DV?$StrTraitMFC_DLL@DV?$ChTraitsCRT@D@ATL@@@@@ATL@@QBEPAUIAtlStringMgr@2@XZ
  002f8	50		 push	 eax
  002f9	8d 4d 0c	 lea	 ecx, DWORD PTR $T27[ebp]
  002fc	ff 15 00 00 00
	00		 call	 DWORD PTR __imp_??0?$CStringT@DV?$StrTraitMFC_DLL@DV?$ChTraitsCRT@D@ATL@@@@@ATL@@QAE@PAUIAtlStringMgr@1@@Z
; File C:\Program Files (x86)\Microsoft Visual Studio\2019\Community\VC\Tools\MSVC\14.29.30133\atlmfc\include\atlsimpstr.h

; 519  : 		return( GetData()->nDataLength );

  00302	8b 06		 mov	 eax, DWORD PTR [esi]
; File C:\Program Files (x86)\Microsoft Visual Studio\2019\Community\VC\Tools\MSVC\14.29.30133\atlmfc\include\cstringt.h

; 2403 : 		CThisSimpleString::Concatenate( strResult, str1, str1.GetLength(), psz2, CThisSimpleString::StringLength( psz2 ) );

  00304	6a 01		 push	 1
  00306	68 00 00 00 00	 push	 OFFSET ??_C@_01ICJEACDI@?$DL@

; 2404 : 
; 2405 : 		return( strResult );

  0030b	c7 45 f0 41 00
	00 00		 mov	 DWORD PTR $T18[ebp], 65	; 00000041H
  00312	ff 70 f4	 push	 DWORD PTR [eax-12]
  00315	50		 push	 eax
  00316	8d 45 0c	 lea	 eax, DWORD PTR $T27[ebp]
  00319	50		 push	 eax
  0031a	ff 15 00 00 00
	00		 call	 DWORD PTR __imp_?Concatenate@?$CSimpleStringT@D$00@ATL@@KAXAAV12@PBDH1H@Z
  00320	83 c4 14	 add	 esp, 20			; 00000014H
; File D:\git\src\IBK\IBK_DRFN\ProjSrc\SrcChartEx\ChartAddIn\ChartDesignPropertyAddIn\ChartDesignPropertyAddIn\DataOfChartListPage.cpp

; 216  : 	strValue +=	CDataConversion::IntToString(		( int)pItem->m_eMinMaxType)	+ ";"; // Type

  00323	8d 45 0c	 lea	 eax, DWORD PTR $T27[ebp]
  00326	8b cb		 mov	 ecx, ebx
  00328	50		 push	 eax
  00329	ff 15 00 00 00
	00		 call	 DWORD PTR __imp_??Y?$CStringT@DV?$StrTraitMFC_DLL@DV?$ChTraitsCRT@D@ATL@@@@@ATL@@QAEAAV01@ABV?$CSimpleStringT@D$00@1@@Z
  0032f	8d 4d 0c	 lea	 ecx, DWORD PTR $T27[ebp]
  00332	c7 45 f0 01 00
	00 00		 mov	 DWORD PTR $T18[ebp], 1
  00339	ff 15 00 00 00
	00		 call	 DWORD PTR __imp_??1?$CStringT@DV?$StrTraitMFC_DLL@DV?$ChTraitsCRT@D@ATL@@@@@ATL@@QAE@XZ
  0033f	8d 4d e8	 lea	 ecx, DWORD PTR $T11[ebp]
  00342	c6 45 fc 00	 mov	 BYTE PTR __$EHRec$[ebp+8], 0
  00346	ff 15 00 00 00
	00		 call	 DWORD PTR __imp_??1?$CStringT@DV?$StrTraitMFC_DLL@DV?$ChTraitsCRT@D@ATL@@@@@ATL@@QAE@XZ

; 217  : 	strValue +=	CDataConversion::DoubleToString(	pItem->m_dMin)				+ ";"; // Min

  0034c	8d 87 80 00 00
	00		 lea	 eax, DWORD PTR [edi+128]
  00352	50		 push	 eax
  00353	8d 45 e8	 lea	 eax, DWORD PTR $T10[ebp]
  00356	50		 push	 eax
  00357	e8 00 00 00 00	 call	 ?DoubleToString@CDataConversion@@SA?AV?$CStringT@DV?$StrTraitMFC_DLL@DV?$ChTraitsCRT@D@ATL@@@@@ATL@@ABN@Z ; CDataConversion::DoubleToString
  0035c	83 c4 08	 add	 esp, 8
  0035f	8b f0		 mov	 esi, eax
  00361	c7 45 fc 0f 00
	00 00		 mov	 DWORD PTR __$EHRec$[ebp+8], 15 ; 0000000fH
; File C:\Program Files (x86)\Microsoft Visual Studio\2019\Community\VC\Tools\MSVC\14.29.30133\atlmfc\include\cstringt.h

; 2401 : 		CStringT strResult( str1.GetManager() );

  00368	8b ce		 mov	 ecx, esi
  0036a	ff 15 00 00 00
	00		 call	 DWORD PTR __imp_?GetManager@?$CStringT@DV?$StrTraitMFC_DLL@DV?$ChTraitsCRT@D@ATL@@@@@ATL@@QBEPAUIAtlStringMgr@2@XZ
  00370	50		 push	 eax
  00371	8d 4d 0c	 lea	 ecx, DWORD PTR $T26[ebp]
  00374	ff 15 00 00 00
	00		 call	 DWORD PTR __imp_??0?$CStringT@DV?$StrTraitMFC_DLL@DV?$ChTraitsCRT@D@ATL@@@@@ATL@@QAE@PAUIAtlStringMgr@1@@Z
; File C:\Program Files (x86)\Microsoft Visual Studio\2019\Community\VC\Tools\MSVC\14.29.30133\atlmfc\include\atlsimpstr.h

; 519  : 		return( GetData()->nDataLength );

  0037a	8b 06		 mov	 eax, DWORD PTR [esi]
; File C:\Program Files (x86)\Microsoft Visual Studio\2019\Community\VC\Tools\MSVC\14.29.30133\atlmfc\include\cstringt.h

; 2403 : 		CThisSimpleString::Concatenate( strResult, str1, str1.GetLength(), psz2, CThisSimpleString::StringLength( psz2 ) );

  0037c	6a 01		 push	 1
  0037e	68 00 00 00 00	 push	 OFFSET ??_C@_01ICJEACDI@?$DL@

; 2404 : 
; 2405 : 		return( strResult );

  00383	c7 45 f0 81 00
	00 00		 mov	 DWORD PTR $T18[ebp], 129 ; 00000081H
  0038a	ff 70 f4	 push	 DWORD PTR [eax-12]
  0038d	50		 push	 eax
  0038e	8d 45 0c	 lea	 eax, DWORD PTR $T26[ebp]
  00391	50		 push	 eax
  00392	ff 15 00 00 00
	00		 call	 DWORD PTR __imp_?Concatenate@?$CSimpleStringT@D$00@ATL@@KAXAAV12@PBDH1H@Z
  00398	83 c4 14	 add	 esp, 20			; 00000014H
; File D:\git\src\IBK\IBK_DRFN\ProjSrc\SrcChartEx\ChartAddIn\ChartDesignPropertyAddIn\ChartDesignPropertyAddIn\DataOfChartListPage.cpp

; 217  : 	strValue +=	CDataConversion::DoubleToString(	pItem->m_dMin)				+ ";"; // Min

  0039b	8d 45 0c	 lea	 eax, DWORD PTR $T26[ebp]
  0039e	8b cb		 mov	 ecx, ebx
  003a0	50		 push	 eax
  003a1	ff 15 00 00 00
	00		 call	 DWORD PTR __imp_??Y?$CStringT@DV?$StrTraitMFC_DLL@DV?$ChTraitsCRT@D@ATL@@@@@ATL@@QAEAAV01@ABV?$CSimpleStringT@D$00@1@@Z
  003a7	8d 4d 0c	 lea	 ecx, DWORD PTR $T26[ebp]
  003aa	c7 45 f0 01 00
	00 00		 mov	 DWORD PTR $T18[ebp], 1
  003b1	ff 15 00 00 00
	00		 call	 DWORD PTR __imp_??1?$CStringT@DV?$StrTraitMFC_DLL@DV?$ChTraitsCRT@D@ATL@@@@@ATL@@QAE@XZ
  003b7	8d 4d e8	 lea	 ecx, DWORD PTR $T10[ebp]
  003ba	c6 45 fc 00	 mov	 BYTE PTR __$EHRec$[ebp+8], 0
  003be	ff 15 00 00 00
	00		 call	 DWORD PTR __imp_??1?$CStringT@DV?$StrTraitMFC_DLL@DV?$ChTraitsCRT@D@ATL@@@@@ATL@@QAE@XZ

; 218  : 	strValue +=	CDataConversion::DoubleToString(	pItem->m_dMax)				+ ";"; // Max

  003c4	8d 47 78	 lea	 eax, DWORD PTR [edi+120]
  003c7	50		 push	 eax
  003c8	8d 45 e8	 lea	 eax, DWORD PTR $T9[ebp]
  003cb	50		 push	 eax
  003cc	e8 00 00 00 00	 call	 ?DoubleToString@CDataConversion@@SA?AV?$CStringT@DV?$StrTraitMFC_DLL@DV?$ChTraitsCRT@D@ATL@@@@@ATL@@ABN@Z ; CDataConversion::DoubleToString
  003d1	83 c4 08	 add	 esp, 8
  003d4	8b f0		 mov	 esi, eax
; File C:\Program Files (x86)\Microsoft Visual Studio\2019\Community\VC\Tools\MSVC\14.29.30133\atlmfc\include\cstringt.h

; 2401 : 		CStringT strResult( str1.GetManager() );

  003d6	8b ce		 mov	 ecx, esi
; File D:\git\src\IBK\IBK_DRFN\ProjSrc\SrcChartEx\ChartAddIn\ChartDesignPropertyAddIn\ChartDesignPropertyAddIn\DataOfChartListPage.cpp

; 218  : 	strValue +=	CDataConversion::DoubleToString(	pItem->m_dMax)				+ ";"; // Max

  003d8	c7 45 fc 11 00
	00 00		 mov	 DWORD PTR __$EHRec$[ebp+8], 17 ; 00000011H
; File C:\Program Files (x86)\Microsoft Visual Studio\2019\Community\VC\Tools\MSVC\14.29.30133\atlmfc\include\cstringt.h

; 2401 : 		CStringT strResult( str1.GetManager() );

  003df	ff 15 00 00 00
	00		 call	 DWORD PTR __imp_?GetManager@?$CStringT@DV?$StrTraitMFC_DLL@DV?$ChTraitsCRT@D@ATL@@@@@ATL@@QBEPAUIAtlStringMgr@2@XZ
  003e5	50		 push	 eax
  003e6	8d 4d 0c	 lea	 ecx, DWORD PTR $T25[ebp]
  003e9	ff 15 00 00 00
	00		 call	 DWORD PTR __imp_??0?$CStringT@DV?$StrTraitMFC_DLL@DV?$ChTraitsCRT@D@ATL@@@@@ATL@@QAE@PAUIAtlStringMgr@1@@Z
; File C:\Program Files (x86)\Microsoft Visual Studio\2019\Community\VC\Tools\MSVC\14.29.30133\atlmfc\include\atlsimpstr.h

; 519  : 		return( GetData()->nDataLength );

  003ef	8b 06		 mov	 eax, DWORD PTR [esi]
; File C:\Program Files (x86)\Microsoft Visual Studio\2019\Community\VC\Tools\MSVC\14.29.30133\atlmfc\include\cstringt.h

; 2403 : 		CThisSimpleString::Concatenate( strResult, str1, str1.GetLength(), psz2, CThisSimpleString::StringLength( psz2 ) );

  003f1	6a 01		 push	 1
  003f3	68 00 00 00 00	 push	 OFFSET ??_C@_01ICJEACDI@?$DL@

; 2404 : 
; 2405 : 		return( strResult );

  003f8	c7 45 f0 01 01
	00 00		 mov	 DWORD PTR $T18[ebp], 257 ; 00000101H
  003ff	ff 70 f4	 push	 DWORD PTR [eax-12]
  00402	50		 push	 eax
  00403	8d 45 0c	 lea	 eax, DWORD PTR $T25[ebp]
  00406	50		 push	 eax
  00407	ff 15 00 00 00
	00		 call	 DWORD PTR __imp_?Concatenate@?$CSimpleStringT@D$00@ATL@@KAXAAV12@PBDH1H@Z
  0040d	83 c4 14	 add	 esp, 20			; 00000014H
; File D:\git\src\IBK\IBK_DRFN\ProjSrc\SrcChartEx\ChartAddIn\ChartDesignPropertyAddIn\ChartDesignPropertyAddIn\DataOfChartListPage.cpp

; 218  : 	strValue +=	CDataConversion::DoubleToString(	pItem->m_dMax)				+ ";"; // Max

  00410	8d 45 0c	 lea	 eax, DWORD PTR $T25[ebp]
  00413	8b cb		 mov	 ecx, ebx
  00415	50		 push	 eax
  00416	ff 15 00 00 00
	00		 call	 DWORD PTR __imp_??Y?$CStringT@DV?$StrTraitMFC_DLL@DV?$ChTraitsCRT@D@ATL@@@@@ATL@@QAEAAV01@ABV?$CSimpleStringT@D$00@1@@Z
  0041c	8d 4d 0c	 lea	 ecx, DWORD PTR $T25[ebp]
  0041f	c7 45 f0 01 00
	00 00		 mov	 DWORD PTR $T18[ebp], 1
  00426	ff 15 00 00 00
	00		 call	 DWORD PTR __imp_??1?$CStringT@DV?$StrTraitMFC_DLL@DV?$ChTraitsCRT@D@ATL@@@@@ATL@@QAE@XZ
  0042c	8d 4d e8	 lea	 ecx, DWORD PTR $T9[ebp]
  0042f	c6 45 fc 00	 mov	 BYTE PTR __$EHRec$[ebp+8], 0
  00433	ff 15 00 00 00
	00		 call	 DWORD PTR __imp_??1?$CStringT@DV?$StrTraitMFC_DLL@DV?$ChTraitsCRT@D@ATL@@@@@ATL@@QAE@XZ

; 221  : 	strValue +=	CDataConversion::IntToString(		pItem->m_nUpSpace)			+ ";"; // UpSpace

  00439	ff b7 88 00 00
	00		 push	 DWORD PTR [edi+136]
  0043f	8d 45 e8	 lea	 eax, DWORD PTR $T8[ebp]
  00442	50		 push	 eax
  00443	e8 00 00 00 00	 call	 ?IntToString@CDataConversion@@SA?AV?$CStringT@DV?$StrTraitMFC_DLL@DV?$ChTraitsCRT@D@ATL@@@@@ATL@@H@Z ; CDataConversion::IntToString
  00448	83 c4 08	 add	 esp, 8
  0044b	8b f0		 mov	 esi, eax
; File C:\Program Files (x86)\Microsoft Visual Studio\2019\Community\VC\Tools\MSVC\14.29.30133\atlmfc\include\cstringt.h

; 2401 : 		CStringT strResult( str1.GetManager() );

  0044d	8b ce		 mov	 ecx, esi
; File D:\git\src\IBK\IBK_DRFN\ProjSrc\SrcChartEx\ChartAddIn\ChartDesignPropertyAddIn\ChartDesignPropertyAddIn\DataOfChartListPage.cpp

; 221  : 	strValue +=	CDataConversion::IntToString(		pItem->m_nUpSpace)			+ ";"; // UpSpace

  0044f	c7 45 fc 13 00
	00 00		 mov	 DWORD PTR __$EHRec$[ebp+8], 19 ; 00000013H
; File C:\Program Files (x86)\Microsoft Visual Studio\2019\Community\VC\Tools\MSVC\14.29.30133\atlmfc\include\cstringt.h

; 2401 : 		CStringT strResult( str1.GetManager() );

  00456	ff 15 00 00 00
	00		 call	 DWORD PTR __imp_?GetManager@?$CStringT@DV?$StrTraitMFC_DLL@DV?$ChTraitsCRT@D@ATL@@@@@ATL@@QBEPAUIAtlStringMgr@2@XZ
  0045c	50		 push	 eax
  0045d	8d 4d 0c	 lea	 ecx, DWORD PTR $T24[ebp]
  00460	ff 15 00 00 00
	00		 call	 DWORD PTR __imp_??0?$CStringT@DV?$StrTraitMFC_DLL@DV?$ChTraitsCRT@D@ATL@@@@@ATL@@QAE@PAUIAtlStringMgr@1@@Z
; File C:\Program Files (x86)\Microsoft Visual Studio\2019\Community\VC\Tools\MSVC\14.29.30133\atlmfc\include\atlsimpstr.h

; 519  : 		return( GetData()->nDataLength );

  00466	8b 06		 mov	 eax, DWORD PTR [esi]
; File C:\Program Files (x86)\Microsoft Visual Studio\2019\Community\VC\Tools\MSVC\14.29.30133\atlmfc\include\cstringt.h

; 2403 : 		CThisSimpleString::Concatenate( strResult, str1, str1.GetLength(), psz2, CThisSimpleString::StringLength( psz2 ) );

  00468	6a 01		 push	 1
  0046a	68 00 00 00 00	 push	 OFFSET ??_C@_01ICJEACDI@?$DL@

; 2404 : 
; 2405 : 		return( strResult );

  0046f	c7 45 f0 01 02
	00 00		 mov	 DWORD PTR $T18[ebp], 513 ; 00000201H
  00476	ff 70 f4	 push	 DWORD PTR [eax-12]
  00479	50		 push	 eax
  0047a	8d 45 0c	 lea	 eax, DWORD PTR $T24[ebp]

; 2403 : 		CThisSimpleString::Concatenate( strResult, str1, str1.GetLength(), psz2, CThisSimpleString::StringLength( psz2 ) );

  0047d	50		 push	 eax
  0047e	ff 15 00 00 00
	00		 call	 DWORD PTR __imp_?Concatenate@?$CSimpleStringT@D$00@ATL@@KAXAAV12@PBDH1H@Z
  00484	83 c4 14	 add	 esp, 20			; 00000014H
; File D:\git\src\IBK\IBK_DRFN\ProjSrc\SrcChartEx\ChartAddIn\ChartDesignPropertyAddIn\ChartDesignPropertyAddIn\DataOfChartListPage.cpp

; 221  : 	strValue +=	CDataConversion::IntToString(		pItem->m_nUpSpace)			+ ";"; // UpSpace

  00487	8d 45 0c	 lea	 eax, DWORD PTR $T24[ebp]
  0048a	8b cb		 mov	 ecx, ebx
  0048c	50		 push	 eax
  0048d	ff 15 00 00 00
	00		 call	 DWORD PTR __imp_??Y?$CStringT@DV?$StrTraitMFC_DLL@DV?$ChTraitsCRT@D@ATL@@@@@ATL@@QAEAAV01@ABV?$CSimpleStringT@D$00@1@@Z
  00493	8d 4d 0c	 lea	 ecx, DWORD PTR $T24[ebp]
  00496	c7 45 f0 01 00
	00 00		 mov	 DWORD PTR $T18[ebp], 1
  0049d	ff 15 00 00 00
	00		 call	 DWORD PTR __imp_??1?$CStringT@DV?$StrTraitMFC_DLL@DV?$ChTraitsCRT@D@ATL@@@@@ATL@@QAE@XZ
  004a3	8d 4d e8	 lea	 ecx, DWORD PTR $T8[ebp]
  004a6	c6 45 fc 00	 mov	 BYTE PTR __$EHRec$[ebp+8], 0
  004aa	ff 15 00 00 00
	00		 call	 DWORD PTR __imp_??1?$CStringT@DV?$StrTraitMFC_DLL@DV?$ChTraitsCRT@D@ATL@@@@@ATL@@QAE@XZ

; 222  : 	strValue +=	CDataConversion::IntToString(		pItem->m_nDownSpace)		+ ";"; // DownSpace

  004b0	ff b7 8c 00 00
	00		 push	 DWORD PTR [edi+140]
  004b6	8d 45 e8	 lea	 eax, DWORD PTR $T7[ebp]
  004b9	50		 push	 eax
  004ba	e8 00 00 00 00	 call	 ?IntToString@CDataConversion@@SA?AV?$CStringT@DV?$StrTraitMFC_DLL@DV?$ChTraitsCRT@D@ATL@@@@@ATL@@H@Z ; CDataConversion::IntToString
  004bf	83 c4 08	 add	 esp, 8
  004c2	8b f0		 mov	 esi, eax
; File C:\Program Files (x86)\Microsoft Visual Studio\2019\Community\VC\Tools\MSVC\14.29.30133\atlmfc\include\cstringt.h

; 2401 : 		CStringT strResult( str1.GetManager() );

  004c4	8b ce		 mov	 ecx, esi
; File D:\git\src\IBK\IBK_DRFN\ProjSrc\SrcChartEx\ChartAddIn\ChartDesignPropertyAddIn\ChartDesignPropertyAddIn\DataOfChartListPage.cpp

; 222  : 	strValue +=	CDataConversion::IntToString(		pItem->m_nDownSpace)		+ ";"; // DownSpace

  004c6	c7 45 fc 15 00
	00 00		 mov	 DWORD PTR __$EHRec$[ebp+8], 21 ; 00000015H
; File C:\Program Files (x86)\Microsoft Visual Studio\2019\Community\VC\Tools\MSVC\14.29.30133\atlmfc\include\cstringt.h

; 2401 : 		CStringT strResult( str1.GetManager() );

  004cd	ff 15 00 00 00
	00		 call	 DWORD PTR __imp_?GetManager@?$CStringT@DV?$StrTraitMFC_DLL@DV?$ChTraitsCRT@D@ATL@@@@@ATL@@QBEPAUIAtlStringMgr@2@XZ
  004d3	50		 push	 eax
  004d4	8d 4d 0c	 lea	 ecx, DWORD PTR $T23[ebp]
  004d7	ff 15 00 00 00
	00		 call	 DWORD PTR __imp_??0?$CStringT@DV?$StrTraitMFC_DLL@DV?$ChTraitsCRT@D@ATL@@@@@ATL@@QAE@PAUIAtlStringMgr@1@@Z
; File C:\Program Files (x86)\Microsoft Visual Studio\2019\Community\VC\Tools\MSVC\14.29.30133\atlmfc\include\atlsimpstr.h

; 519  : 		return( GetData()->nDataLength );

  004dd	8b 06		 mov	 eax, DWORD PTR [esi]
; File C:\Program Files (x86)\Microsoft Visual Studio\2019\Community\VC\Tools\MSVC\14.29.30133\atlmfc\include\cstringt.h

; 2403 : 		CThisSimpleString::Concatenate( strResult, str1, str1.GetLength(), psz2, CThisSimpleString::StringLength( psz2 ) );

  004df	6a 01		 push	 1
  004e1	68 00 00 00 00	 push	 OFFSET ??_C@_01ICJEACDI@?$DL@

; 2404 : 
; 2405 : 		return( strResult );

  004e6	c7 45 f0 01 04
	00 00		 mov	 DWORD PTR $T18[ebp], 1025 ; 00000401H
  004ed	ff 70 f4	 push	 DWORD PTR [eax-12]
  004f0	50		 push	 eax
  004f1	8d 45 0c	 lea	 eax, DWORD PTR $T23[ebp]
  004f4	50		 push	 eax
  004f5	ff 15 00 00 00
	00		 call	 DWORD PTR __imp_?Concatenate@?$CSimpleStringT@D$00@ATL@@KAXAAV12@PBDH1H@Z
  004fb	83 c4 14	 add	 esp, 20			; 00000014H
; File D:\git\src\IBK\IBK_DRFN\ProjSrc\SrcChartEx\ChartAddIn\ChartDesignPropertyAddIn\ChartDesignPropertyAddIn\DataOfChartListPage.cpp

; 222  : 	strValue +=	CDataConversion::IntToString(		pItem->m_nDownSpace)		+ ";"; // DownSpace

  004fe	8d 45 0c	 lea	 eax, DWORD PTR $T23[ebp]
  00501	8b cb		 mov	 ecx, ebx
  00503	50		 push	 eax
  00504	ff 15 00 00 00
	00		 call	 DWORD PTR __imp_??Y?$CStringT@DV?$StrTraitMFC_DLL@DV?$ChTraitsCRT@D@ATL@@@@@ATL@@QAEAAV01@ABV?$CSimpleStringT@D$00@1@@Z
  0050a	8d 4d 0c	 lea	 ecx, DWORD PTR $T23[ebp]
  0050d	c7 45 f0 01 00
	00 00		 mov	 DWORD PTR $T18[ebp], 1
  00514	ff 15 00 00 00
	00		 call	 DWORD PTR __imp_??1?$CStringT@DV?$StrTraitMFC_DLL@DV?$ChTraitsCRT@D@ATL@@@@@ATL@@QAE@XZ
  0051a	8d 4d e8	 lea	 ecx, DWORD PTR $T7[ebp]
  0051d	c6 45 fc 00	 mov	 BYTE PTR __$EHRec$[ebp+8], 0
  00521	ff 15 00 00 00
	00		 call	 DWORD PTR __imp_??1?$CStringT@DV?$StrTraitMFC_DLL@DV?$ChTraitsCRT@D@ATL@@@@@ATL@@QAE@XZ

; 225  : 	strValue +=	CDataConversion::DoubleToString(	pItem->m_dHogaNumber)		+ ";";

  00527	8d 87 90 00 00
	00		 lea	 eax, DWORD PTR [edi+144]
  0052d	50		 push	 eax
  0052e	8d 45 e8	 lea	 eax, DWORD PTR $T6[ebp]
  00531	50		 push	 eax
  00532	e8 00 00 00 00	 call	 ?DoubleToString@CDataConversion@@SA?AV?$CStringT@DV?$StrTraitMFC_DLL@DV?$ChTraitsCRT@D@ATL@@@@@ATL@@ABN@Z ; CDataConversion::DoubleToString
  00537	83 c4 08	 add	 esp, 8
  0053a	8b f0		 mov	 esi, eax
; File C:\Program Files (x86)\Microsoft Visual Studio\2019\Community\VC\Tools\MSVC\14.29.30133\atlmfc\include\cstringt.h

; 2401 : 		CStringT strResult( str1.GetManager() );

  0053c	8b ce		 mov	 ecx, esi
; File D:\git\src\IBK\IBK_DRFN\ProjSrc\SrcChartEx\ChartAddIn\ChartDesignPropertyAddIn\ChartDesignPropertyAddIn\DataOfChartListPage.cpp

; 225  : 	strValue +=	CDataConversion::DoubleToString(	pItem->m_dHogaNumber)		+ ";";

  0053e	c7 45 fc 17 00
	00 00		 mov	 DWORD PTR __$EHRec$[ebp+8], 23 ; 00000017H
; File C:\Program Files (x86)\Microsoft Visual Studio\2019\Community\VC\Tools\MSVC\14.29.30133\atlmfc\include\cstringt.h

; 2401 : 		CStringT strResult( str1.GetManager() );

  00545	ff 15 00 00 00
	00		 call	 DWORD PTR __imp_?GetManager@?$CStringT@DV?$StrTraitMFC_DLL@DV?$ChTraitsCRT@D@ATL@@@@@ATL@@QBEPAUIAtlStringMgr@2@XZ
  0054b	50		 push	 eax
  0054c	8d 4d 0c	 lea	 ecx, DWORD PTR $T22[ebp]
  0054f	ff 15 00 00 00
	00		 call	 DWORD PTR __imp_??0?$CStringT@DV?$StrTraitMFC_DLL@DV?$ChTraitsCRT@D@ATL@@@@@ATL@@QAE@PAUIAtlStringMgr@1@@Z
; File C:\Program Files (x86)\Microsoft Visual Studio\2019\Community\VC\Tools\MSVC\14.29.30133\atlmfc\include\atlsimpstr.h

; 519  : 		return( GetData()->nDataLength );

  00555	8b 06		 mov	 eax, DWORD PTR [esi]
; File C:\Program Files (x86)\Microsoft Visual Studio\2019\Community\VC\Tools\MSVC\14.29.30133\atlmfc\include\cstringt.h

; 2403 : 		CThisSimpleString::Concatenate( strResult, str1, str1.GetLength(), psz2, CThisSimpleString::StringLength( psz2 ) );

  00557	6a 01		 push	 1
  00559	68 00 00 00 00	 push	 OFFSET ??_C@_01ICJEACDI@?$DL@

; 2404 : 
; 2405 : 		return( strResult );

  0055e	c7 45 f0 01 08
	00 00		 mov	 DWORD PTR $T18[ebp], 2049 ; 00000801H
  00565	ff 70 f4	 push	 DWORD PTR [eax-12]
  00568	50		 push	 eax
  00569	8d 45 0c	 lea	 eax, DWORD PTR $T22[ebp]
  0056c	50		 push	 eax
  0056d	ff 15 00 00 00
	00		 call	 DWORD PTR __imp_?Concatenate@?$CSimpleStringT@D$00@ATL@@KAXAAV12@PBDH1H@Z
  00573	83 c4 14	 add	 esp, 20			; 00000014H
; File D:\git\src\IBK\IBK_DRFN\ProjSrc\SrcChartEx\ChartAddIn\ChartDesignPropertyAddIn\ChartDesignPropertyAddIn\DataOfChartListPage.cpp

; 225  : 	strValue +=	CDataConversion::DoubleToString(	pItem->m_dHogaNumber)		+ ";";

  00576	8d 45 0c	 lea	 eax, DWORD PTR $T22[ebp]
  00579	8b cb		 mov	 ecx, ebx
  0057b	50		 push	 eax
  0057c	ff 15 00 00 00
	00		 call	 DWORD PTR __imp_??Y?$CStringT@DV?$StrTraitMFC_DLL@DV?$ChTraitsCRT@D@ATL@@@@@ATL@@QAEAAV01@ABV?$CSimpleStringT@D$00@1@@Z
  00582	8d 4d 0c	 lea	 ecx, DWORD PTR $T22[ebp]
  00585	c7 45 f0 01 00
	00 00		 mov	 DWORD PTR $T18[ebp], 1
  0058c	ff 15 00 00 00
	00		 call	 DWORD PTR __imp_??1?$CStringT@DV?$StrTraitMFC_DLL@DV?$ChTraitsCRT@D@ATL@@@@@ATL@@QAE@XZ
  00592	c6 45 fc 00	 mov	 BYTE PTR __$EHRec$[ebp+8], 0
  00596	8d 4d e8	 lea	 ecx, DWORD PTR $T6[ebp]
  00599	ff 15 00 00 00
	00		 call	 DWORD PTR __imp_??1?$CStringT@DV?$StrTraitMFC_DLL@DV?$ChTraitsCRT@D@ATL@@@@@ATL@@QAE@XZ

; 226  : 	strValue +=	CDataConversion::DoubleToString(	pItem->m_dUserNumber)		+ ";";

  0059f	8d 87 98 00 00
	00		 lea	 eax, DWORD PTR [edi+152]
  005a5	50		 push	 eax
  005a6	8d 45 e8	 lea	 eax, DWORD PTR $T5[ebp]
  005a9	50		 push	 eax
  005aa	e8 00 00 00 00	 call	 ?DoubleToString@CDataConversion@@SA?AV?$CStringT@DV?$StrTraitMFC_DLL@DV?$ChTraitsCRT@D@ATL@@@@@ATL@@ABN@Z ; CDataConversion::DoubleToString
  005af	83 c4 08	 add	 esp, 8
  005b2	8b f0		 mov	 esi, eax
; File C:\Program Files (x86)\Microsoft Visual Studio\2019\Community\VC\Tools\MSVC\14.29.30133\atlmfc\include\cstringt.h

; 2401 : 		CStringT strResult( str1.GetManager() );

  005b4	8b ce		 mov	 ecx, esi
; File D:\git\src\IBK\IBK_DRFN\ProjSrc\SrcChartEx\ChartAddIn\ChartDesignPropertyAddIn\ChartDesignPropertyAddIn\DataOfChartListPage.cpp

; 226  : 	strValue +=	CDataConversion::DoubleToString(	pItem->m_dUserNumber)		+ ";";

  005b6	c7 45 fc 19 00
	00 00		 mov	 DWORD PTR __$EHRec$[ebp+8], 25 ; 00000019H
; File C:\Program Files (x86)\Microsoft Visual Studio\2019\Community\VC\Tools\MSVC\14.29.30133\atlmfc\include\cstringt.h

; 2401 : 		CStringT strResult( str1.GetManager() );

  005bd	ff 15 00 00 00
	00		 call	 DWORD PTR __imp_?GetManager@?$CStringT@DV?$StrTraitMFC_DLL@DV?$ChTraitsCRT@D@ATL@@@@@ATL@@QBEPAUIAtlStringMgr@2@XZ
  005c3	50		 push	 eax
  005c4	8d 4d 0c	 lea	 ecx, DWORD PTR $T21[ebp]
  005c7	ff 15 00 00 00
	00		 call	 DWORD PTR __imp_??0?$CStringT@DV?$StrTraitMFC_DLL@DV?$ChTraitsCRT@D@ATL@@@@@ATL@@QAE@PAUIAtlStringMgr@1@@Z
; File C:\Program Files (x86)\Microsoft Visual Studio\2019\Community\VC\Tools\MSVC\14.29.30133\atlmfc\include\atlsimpstr.h

; 519  : 		return( GetData()->nDataLength );

  005cd	8b 06		 mov	 eax, DWORD PTR [esi]
; File C:\Program Files (x86)\Microsoft Visual Studio\2019\Community\VC\Tools\MSVC\14.29.30133\atlmfc\include\cstringt.h

; 2403 : 		CThisSimpleString::Concatenate( strResult, str1, str1.GetLength(), psz2, CThisSimpleString::StringLength( psz2 ) );

  005cf	6a 01		 push	 1
  005d1	68 00 00 00 00	 push	 OFFSET ??_C@_01ICJEACDI@?$DL@

; 2404 : 
; 2405 : 		return( strResult );

  005d6	c7 45 f0 01 10
	00 00		 mov	 DWORD PTR $T18[ebp], 4097 ; 00001001H
  005dd	ff 70 f4	 push	 DWORD PTR [eax-12]
  005e0	50		 push	 eax
  005e1	8d 45 0c	 lea	 eax, DWORD PTR $T21[ebp]
  005e4	50		 push	 eax
  005e5	ff 15 00 00 00
	00		 call	 DWORD PTR __imp_?Concatenate@?$CSimpleStringT@D$00@ATL@@KAXAAV12@PBDH1H@Z
  005eb	83 c4 14	 add	 esp, 20			; 00000014H
; File D:\git\src\IBK\IBK_DRFN\ProjSrc\SrcChartEx\ChartAddIn\ChartDesignPropertyAddIn\ChartDesignPropertyAddIn\DataOfChartListPage.cpp

; 226  : 	strValue +=	CDataConversion::DoubleToString(	pItem->m_dUserNumber)		+ ";";

  005ee	8d 45 0c	 lea	 eax, DWORD PTR $T21[ebp]
  005f1	8b cb		 mov	 ecx, ebx
  005f3	50		 push	 eax
  005f4	ff 15 00 00 00
	00		 call	 DWORD PTR __imp_??Y?$CStringT@DV?$StrTraitMFC_DLL@DV?$ChTraitsCRT@D@ATL@@@@@ATL@@QAEAAV01@ABV?$CSimpleStringT@D$00@1@@Z
  005fa	8d 4d 0c	 lea	 ecx, DWORD PTR $T21[ebp]
  005fd	c7 45 f0 01 00
	00 00		 mov	 DWORD PTR $T18[ebp], 1
  00604	ff 15 00 00 00
	00		 call	 DWORD PTR __imp_??1?$CStringT@DV?$StrTraitMFC_DLL@DV?$ChTraitsCRT@D@ATL@@@@@ATL@@QAE@XZ
  0060a	8d 4d e8	 lea	 ecx, DWORD PTR $T5[ebp]
  0060d	c6 45 fc 00	 mov	 BYTE PTR __$EHRec$[ebp+8], 0
  00611	ff 15 00 00 00
	00		 call	 DWORD PTR __imp_??1?$CStringT@DV?$StrTraitMFC_DLL@DV?$ChTraitsCRT@D@ATL@@@@@ATL@@QAE@XZ

; 227  : 	strValue +=	CDataConversion::IntToString(		pItem->m_nUserHogaType)		+ ";";

  00617	ff b7 a0 00 00
	00		 push	 DWORD PTR [edi+160]
  0061d	8d 45 e8	 lea	 eax, DWORD PTR $T4[ebp]
  00620	50		 push	 eax
  00621	e8 00 00 00 00	 call	 ?IntToString@CDataConversion@@SA?AV?$CStringT@DV?$StrTraitMFC_DLL@DV?$ChTraitsCRT@D@ATL@@@@@ATL@@H@Z ; CDataConversion::IntToString
  00626	83 c4 08	 add	 esp, 8
  00629	8b f0		 mov	 esi, eax
; File C:\Program Files (x86)\Microsoft Visual Studio\2019\Community\VC\Tools\MSVC\14.29.30133\atlmfc\include\cstringt.h

; 2401 : 		CStringT strResult( str1.GetManager() );

  0062b	8b ce		 mov	 ecx, esi
; File D:\git\src\IBK\IBK_DRFN\ProjSrc\SrcChartEx\ChartAddIn\ChartDesignPropertyAddIn\ChartDesignPropertyAddIn\DataOfChartListPage.cpp

; 227  : 	strValue +=	CDataConversion::IntToString(		pItem->m_nUserHogaType)		+ ";";

  0062d	c7 45 fc 1b 00
	00 00		 mov	 DWORD PTR __$EHRec$[ebp+8], 27 ; 0000001bH
; File C:\Program Files (x86)\Microsoft Visual Studio\2019\Community\VC\Tools\MSVC\14.29.30133\atlmfc\include\cstringt.h

; 2401 : 		CStringT strResult( str1.GetManager() );

  00634	ff 15 00 00 00
	00		 call	 DWORD PTR __imp_?GetManager@?$CStringT@DV?$StrTraitMFC_DLL@DV?$ChTraitsCRT@D@ATL@@@@@ATL@@QBEPAUIAtlStringMgr@2@XZ
  0063a	50		 push	 eax
  0063b	8d 4d 0c	 lea	 ecx, DWORD PTR $T20[ebp]
  0063e	ff 15 00 00 00
	00		 call	 DWORD PTR __imp_??0?$CStringT@DV?$StrTraitMFC_DLL@DV?$ChTraitsCRT@D@ATL@@@@@ATL@@QAE@PAUIAtlStringMgr@1@@Z
; File C:\Program Files (x86)\Microsoft Visual Studio\2019\Community\VC\Tools\MSVC\14.29.30133\atlmfc\include\atlsimpstr.h

; 519  : 		return( GetData()->nDataLength );

  00644	8b 06		 mov	 eax, DWORD PTR [esi]
; File C:\Program Files (x86)\Microsoft Visual Studio\2019\Community\VC\Tools\MSVC\14.29.30133\atlmfc\include\cstringt.h

; 2403 : 		CThisSimpleString::Concatenate( strResult, str1, str1.GetLength(), psz2, CThisSimpleString::StringLength( psz2 ) );

  00646	6a 01		 push	 1
  00648	68 00 00 00 00	 push	 OFFSET ??_C@_01ICJEACDI@?$DL@

; 2404 : 
; 2405 : 		return( strResult );

  0064d	c7 45 f0 01 20
	00 00		 mov	 DWORD PTR $T18[ebp], 8193 ; 00002001H
  00654	ff 70 f4	 push	 DWORD PTR [eax-12]
  00657	50		 push	 eax
  00658	8d 45 0c	 lea	 eax, DWORD PTR $T20[ebp]
  0065b	50		 push	 eax
  0065c	ff 15 00 00 00
	00		 call	 DWORD PTR __imp_?Concatenate@?$CSimpleStringT@D$00@ATL@@KAXAAV12@PBDH1H@Z
  00662	83 c4 14	 add	 esp, 20			; 00000014H
; File D:\git\src\IBK\IBK_DRFN\ProjSrc\SrcChartEx\ChartAddIn\ChartDesignPropertyAddIn\ChartDesignPropertyAddIn\DataOfChartListPage.cpp

; 227  : 	strValue +=	CDataConversion::IntToString(		pItem->m_nUserHogaType)		+ ";";

  00665	8d 45 0c	 lea	 eax, DWORD PTR $T20[ebp]
  00668	8b cb		 mov	 ecx, ebx
  0066a	50		 push	 eax
  0066b	ff 15 00 00 00
	00		 call	 DWORD PTR __imp_??Y?$CStringT@DV?$StrTraitMFC_DLL@DV?$ChTraitsCRT@D@ATL@@@@@ATL@@QAEAAV01@ABV?$CSimpleStringT@D$00@1@@Z
  00671	8d 4d 0c	 lea	 ecx, DWORD PTR $T20[ebp]
  00674	c7 45 f0 01 00
	00 00		 mov	 DWORD PTR $T18[ebp], 1
  0067b	ff 15 00 00 00
	00		 call	 DWORD PTR __imp_??1?$CStringT@DV?$StrTraitMFC_DLL@DV?$ChTraitsCRT@D@ATL@@@@@ATL@@QAE@XZ
  00681	8d 4d e8	 lea	 ecx, DWORD PTR $T4[ebp]
  00684	c6 45 fc 00	 mov	 BYTE PTR __$EHRec$[ebp+8], 0
  00688	ff 15 00 00 00
	00		 call	 DWORD PTR __imp_??1?$CStringT@DV?$StrTraitMFC_DLL@DV?$ChTraitsCRT@D@ATL@@@@@ATL@@QAE@XZ

; 230  : 	strValue += CDataConversion::Bool2Str(			pItem->m_bIsInvert)			+ ";";

  0068e	ff b7 a4 00 00
	00		 push	 DWORD PTR [edi+164]
  00694	8d 45 e8	 lea	 eax, DWORD PTR $T3[ebp]
  00697	50		 push	 eax
  00698	e8 00 00 00 00	 call	 ?Bool2Str@CDataConversion@@SA?AV?$CStringT@DV?$StrTraitMFC_DLL@DV?$ChTraitsCRT@D@ATL@@@@@ATL@@H@Z ; CDataConversion::Bool2Str
  0069d	83 c4 08	 add	 esp, 8
  006a0	8b f0		 mov	 esi, eax
; File C:\Program Files (x86)\Microsoft Visual Studio\2019\Community\VC\Tools\MSVC\14.29.30133\atlmfc\include\cstringt.h

; 2401 : 		CStringT strResult( str1.GetManager() );

  006a2	8b ce		 mov	 ecx, esi
; File D:\git\src\IBK\IBK_DRFN\ProjSrc\SrcChartEx\ChartAddIn\ChartDesignPropertyAddIn\ChartDesignPropertyAddIn\DataOfChartListPage.cpp

; 230  : 	strValue += CDataConversion::Bool2Str(			pItem->m_bIsInvert)			+ ";";

  006a4	c7 45 fc 1d 00
	00 00		 mov	 DWORD PTR __$EHRec$[ebp+8], 29 ; 0000001dH
; File C:\Program Files (x86)\Microsoft Visual Studio\2019\Community\VC\Tools\MSVC\14.29.30133\atlmfc\include\cstringt.h

; 2401 : 		CStringT strResult( str1.GetManager() );

  006ab	ff 15 00 00 00
	00		 call	 DWORD PTR __imp_?GetManager@?$CStringT@DV?$StrTraitMFC_DLL@DV?$ChTraitsCRT@D@ATL@@@@@ATL@@QBEPAUIAtlStringMgr@2@XZ
  006b1	50		 push	 eax
  006b2	8d 4d 0c	 lea	 ecx, DWORD PTR $T19[ebp]
  006b5	ff 15 00 00 00
	00		 call	 DWORD PTR __imp_??0?$CStringT@DV?$StrTraitMFC_DLL@DV?$ChTraitsCRT@D@ATL@@@@@ATL@@QAE@PAUIAtlStringMgr@1@@Z
; File C:\Program Files (x86)\Microsoft Visual Studio\2019\Community\VC\Tools\MSVC\14.29.30133\atlmfc\include\atlsimpstr.h

; 519  : 		return( GetData()->nDataLength );

  006bb	8b 06		 mov	 eax, DWORD PTR [esi]
; File C:\Program Files (x86)\Microsoft Visual Studio\2019\Community\VC\Tools\MSVC\14.29.30133\atlmfc\include\cstringt.h

; 2403 : 		CThisSimpleString::Concatenate( strResult, str1, str1.GetLength(), psz2, CThisSimpleString::StringLength( psz2 ) );

  006bd	6a 01		 push	 1
  006bf	68 00 00 00 00	 push	 OFFSET ??_C@_01ICJEACDI@?$DL@

; 2404 : 
; 2405 : 		return( strResult );

  006c4	c7 45 f0 01 40
	00 00		 mov	 DWORD PTR $T18[ebp], 16385 ; 00004001H
  006cb	ff 70 f4	 push	 DWORD PTR [eax-12]
  006ce	50		 push	 eax
  006cf	8d 45 0c	 lea	 eax, DWORD PTR $T19[ebp]
  006d2	50		 push	 eax
  006d3	ff 15 00 00 00
	00		 call	 DWORD PTR __imp_?Concatenate@?$CSimpleStringT@D$00@ATL@@KAXAAV12@PBDH1H@Z
  006d9	83 c4 14	 add	 esp, 20			; 00000014H
; File D:\git\src\IBK\IBK_DRFN\ProjSrc\SrcChartEx\ChartAddIn\ChartDesignPropertyAddIn\ChartDesignPropertyAddIn\DataOfChartListPage.cpp

; 230  : 	strValue += CDataConversion::Bool2Str(			pItem->m_bIsInvert)			+ ";";

  006dc	8d 45 0c	 lea	 eax, DWORD PTR $T19[ebp]
  006df	8b cb		 mov	 ecx, ebx
  006e1	50		 push	 eax
  006e2	ff 15 00 00 00
	00		 call	 DWORD PTR __imp_??Y?$CStringT@DV?$StrTraitMFC_DLL@DV?$ChTraitsCRT@D@ATL@@@@@ATL@@QAEAAV01@ABV?$CSimpleStringT@D$00@1@@Z
  006e8	8d 4d 0c	 lea	 ecx, DWORD PTR $T19[ebp]
  006eb	c7 45 f0 01 00
	00 00		 mov	 DWORD PTR $T18[ebp], 1
  006f2	ff 15 00 00 00
	00		 call	 DWORD PTR __imp_??1?$CStringT@DV?$StrTraitMFC_DLL@DV?$ChTraitsCRT@D@ATL@@@@@ATL@@QAE@XZ
  006f8	8d 4d e8	 lea	 ecx, DWORD PTR $T3[ebp]
  006fb	c6 45 fc 00	 mov	 BYTE PTR __$EHRec$[ebp+8], 0
  006ff	ff 15 00 00 00
	00		 call	 DWORD PTR __imp_??1?$CStringT@DV?$StrTraitMFC_DLL@DV?$ChTraitsCRT@D@ATL@@@@@ATL@@QAE@XZ

; 231  : 
; 232  : 	strValue += "\r\n";

  00705	68 00 00 00 00	 push	 OFFSET ??_C@_02PCIJFNDE@?$AN?6@
  0070a	8b cb		 mov	 ecx, ebx
  0070c	ff 15 00 00 00
	00		 call	 DWORD PTR __imp_??Y?$CStringT@DV?$StrTraitMFC_DLL@DV?$ChTraitsCRT@D@ATL@@@@@ATL@@QAEAAV01@PBD@Z

; 233  : 	return strValue;

  00712	8b c3		 mov	 eax, ebx

; 234  : }

  00714	8b 4d f4	 mov	 ecx, DWORD PTR __$EHRec$[ebp]
  00717	64 89 0d 00 00
	00 00		 mov	 DWORD PTR fs:0, ecx
  0071e	59		 pop	 ecx
  0071f	5f		 pop	 edi
  00720	5e		 pop	 esi
  00721	5b		 pop	 ebx
  00722	8b e5		 mov	 esp, ebp
  00724	5d		 pop	 ebp
  00725	c2 08 00	 ret	 8
_TEXT	ENDS
;	COMDAT text$x
text$x	SEGMENT
__unwindfunclet$?GetVerticalAllData@CDataOfChartListPage@@AAE?AV?$CStringT@DV?$StrTraitMFC_DLL@DV?$ChTraitsCRT@D@ATL@@@@@ATL@@PAVCChartLink@@@Z$0:
  00000	8b 45 f0	 mov	 eax, DWORD PTR $T18[ebp]
  00003	83 e0 01	 and	 eax, 1
  00006	0f 84 0d 00 00
	00		 je	 $LN4@GetVertica
  0000c	83 65 f0 fe	 and	 DWORD PTR $T18[ebp], -2	; fffffffeH
  00010	8b 4d 08	 mov	 ecx, DWORD PTR ___$ReturnUdt$[ebp]
  00013	ff 25 00 00 00
	00		 jmp	 DWORD PTR __imp_??1?$CStringT@DV?$StrTraitMFC_DLL@DV?$ChTraitsCRT@D@ATL@@@@@ATL@@QAE@XZ
$LN4@GetVertica:
  00019	c3		 ret	 0
__unwindfunclet$?GetVerticalAllData@CDataOfChartListPage@@AAE?AV?$CStringT@DV?$StrTraitMFC_DLL@DV?$ChTraitsCRT@D@ATL@@@@@ATL@@PAVCChartLink@@@Z$1:
  0001a	8b 4d e4	 mov	 ecx, DWORD PTR $T2[ebp]
  0001d	ff 25 00 00 00
	00		 jmp	 DWORD PTR __imp_??1?$CStringT@DV?$StrTraitMFC_DLL@DV?$ChTraitsCRT@D@ATL@@@@@ATL@@QAE@XZ
__unwindfunclet$?GetVerticalAllData@CDataOfChartListPage@@AAE?AV?$CStringT@DV?$StrTraitMFC_DLL@DV?$ChTraitsCRT@D@ATL@@@@@ATL@@PAVCChartLink@@@Z$3:
  00023	8d 4d e8	 lea	 ecx, DWORD PTR $T16[ebp]
  00026	ff 25 00 00 00
	00		 jmp	 DWORD PTR __imp_??1?$CStringT@DV?$StrTraitMFC_DLL@DV?$ChTraitsCRT@D@ATL@@@@@ATL@@QAE@XZ
__unwindfunclet$?GetVerticalAllData@CDataOfChartListPage@@AAE?AV?$CStringT@DV?$StrTraitMFC_DLL@DV?$ChTraitsCRT@D@ATL@@@@@ATL@@PAVCChartLink@@@Z$31:
  0002c	8b 45 f0	 mov	 eax, DWORD PTR $T18[ebp]
  0002f	83 e0 02	 and	 eax, 2
  00032	0f 84 0d 00 00
	00		 je	 $LN38@GetVertica
  00038	83 65 f0 fd	 and	 DWORD PTR $T18[ebp], -3	; fffffffdH
  0003c	8d 4d ec	 lea	 ecx, DWORD PTR $T17[ebp]
  0003f	ff 25 00 00 00
	00		 jmp	 DWORD PTR __imp_??1?$CStringT@DV?$StrTraitMFC_DLL@DV?$ChTraitsCRT@D@ATL@@@@@ATL@@QAE@XZ
$LN38@GetVertica:
  00045	c3		 ret	 0
__unwindfunclet$?GetVerticalAllData@CDataOfChartListPage@@AAE?AV?$CStringT@DV?$StrTraitMFC_DLL@DV?$ChTraitsCRT@D@ATL@@@@@ATL@@PAVCChartLink@@@Z$5:
  00046	8d 4d e8	 lea	 ecx, DWORD PTR $T15[ebp]
  00049	ff 25 00 00 00
	00		 jmp	 DWORD PTR __imp_??1?$CStringT@DV?$StrTraitMFC_DLL@DV?$ChTraitsCRT@D@ATL@@@@@ATL@@QAE@XZ
__unwindfunclet$?GetVerticalAllData@CDataOfChartListPage@@AAE?AV?$CStringT@DV?$StrTraitMFC_DLL@DV?$ChTraitsCRT@D@ATL@@@@@ATL@@PAVCChartLink@@@Z$32:
  0004f	8b 45 f0	 mov	 eax, DWORD PTR $T18[ebp]
  00052	83 e0 04	 and	 eax, 4
  00055	0f 84 0d 00 00
	00		 je	 $LN51@GetVertica
  0005b	83 65 f0 fb	 and	 DWORD PTR $T18[ebp], -5	; fffffffbH
  0005f	8d 4d 0c	 lea	 ecx, DWORD PTR $T31[ebp]
  00062	ff 25 00 00 00
	00		 jmp	 DWORD PTR __imp_??1?$CStringT@DV?$StrTraitMFC_DLL@DV?$ChTraitsCRT@D@ATL@@@@@ATL@@QAE@XZ
$LN51@GetVertica:
  00068	c3		 ret	 0
__unwindfunclet$?GetVerticalAllData@CDataOfChartListPage@@AAE?AV?$CStringT@DV?$StrTraitMFC_DLL@DV?$ChTraitsCRT@D@ATL@@@@@ATL@@PAVCChartLink@@@Z$7:
  00069	8d 4d e8	 lea	 ecx, DWORD PTR $T14[ebp]
  0006c	ff 25 00 00 00
	00		 jmp	 DWORD PTR __imp_??1?$CStringT@DV?$StrTraitMFC_DLL@DV?$ChTraitsCRT@D@ATL@@@@@ATL@@QAE@XZ
__unwindfunclet$?GetVerticalAllData@CDataOfChartListPage@@AAE?AV?$CStringT@DV?$StrTraitMFC_DLL@DV?$ChTraitsCRT@D@ATL@@@@@ATL@@PAVCChartLink@@@Z$33:
  00072	8b 45 f0	 mov	 eax, DWORD PTR $T18[ebp]
  00075	83 e0 08	 and	 eax, 8
  00078	0f 84 0d 00 00
	00		 je	 $LN64@GetVertica
  0007e	83 65 f0 f7	 and	 DWORD PTR $T18[ebp], -9	; fffffff7H
  00082	8d 4d 0c	 lea	 ecx, DWORD PTR $T30[ebp]
  00085	ff 25 00 00 00
	00		 jmp	 DWORD PTR __imp_??1?$CStringT@DV?$StrTraitMFC_DLL@DV?$ChTraitsCRT@D@ATL@@@@@ATL@@QAE@XZ
$LN64@GetVertica:
  0008b	c3		 ret	 0
__unwindfunclet$?GetVerticalAllData@CDataOfChartListPage@@AAE?AV?$CStringT@DV?$StrTraitMFC_DLL@DV?$ChTraitsCRT@D@ATL@@@@@ATL@@PAVCChartLink@@@Z$9:
  0008c	8d 4d e8	 lea	 ecx, DWORD PTR $T13[ebp]
  0008f	ff 25 00 00 00
	00		 jmp	 DWORD PTR __imp_??1?$CStringT@DV?$StrTraitMFC_DLL@DV?$ChTraitsCRT@D@ATL@@@@@ATL@@QAE@XZ
__unwindfunclet$?GetVerticalAllData@CDataOfChartListPage@@AAE?AV?$CStringT@DV?$StrTraitMFC_DLL@DV?$ChTraitsCRT@D@ATL@@@@@ATL@@PAVCChartLink@@@Z$34:
  00095	8b 45 f0	 mov	 eax, DWORD PTR $T18[ebp]
  00098	83 e0 10	 and	 eax, 16			; 00000010H
  0009b	0f 84 0d 00 00
	00		 je	 $LN77@GetVertica
  000a1	83 65 f0 ef	 and	 DWORD PTR $T18[ebp], -17 ; ffffffefH
  000a5	8d 4d 0c	 lea	 ecx, DWORD PTR $T29[ebp]
  000a8	ff 25 00 00 00
	00		 jmp	 DWORD PTR __imp_??1?$CStringT@DV?$StrTraitMFC_DLL@DV?$ChTraitsCRT@D@ATL@@@@@ATL@@QAE@XZ
$LN77@GetVertica:
  000ae	c3		 ret	 0
__unwindfunclet$?GetVerticalAllData@CDataOfChartListPage@@AAE?AV?$CStringT@DV?$StrTraitMFC_DLL@DV?$ChTraitsCRT@D@ATL@@@@@ATL@@PAVCChartLink@@@Z$11:
  000af	8d 4d e8	 lea	 ecx, DWORD PTR $T12[ebp]
  000b2	ff 25 00 00 00
	00		 jmp	 DWORD PTR __imp_??1?$CStringT@DV?$StrTraitMFC_DLL@DV?$ChTraitsCRT@D@ATL@@@@@ATL@@QAE@XZ
__unwindfunclet$?GetVerticalAllData@CDataOfChartListPage@@AAE?AV?$CStringT@DV?$StrTraitMFC_DLL@DV?$ChTraitsCRT@D@ATL@@@@@ATL@@PAVCChartLink@@@Z$35:
  000b8	8b 45 f0	 mov	 eax, DWORD PTR $T18[ebp]
  000bb	83 e0 20	 and	 eax, 32			; 00000020H
  000be	0f 84 0d 00 00
	00		 je	 $LN90@GetVertica
  000c4	83 65 f0 df	 and	 DWORD PTR $T18[ebp], -33 ; ffffffdfH
  000c8	8d 4d 0c	 lea	 ecx, DWORD PTR $T28[ebp]
  000cb	ff 25 00 00 00
	00		 jmp	 DWORD PTR __imp_??1?$CStringT@DV?$StrTraitMFC_DLL@DV?$ChTraitsCRT@D@ATL@@@@@ATL@@QAE@XZ
$LN90@GetVertica:
  000d1	c3		 ret	 0
__unwindfunclet$?GetVerticalAllData@CDataOfChartListPage@@AAE?AV?$CStringT@DV?$StrTraitMFC_DLL@DV?$ChTraitsCRT@D@ATL@@@@@ATL@@PAVCChartLink@@@Z$13:
  000d2	8d 4d e8	 lea	 ecx, DWORD PTR $T11[ebp]
  000d5	ff 25 00 00 00
	00		 jmp	 DWORD PTR __imp_??1?$CStringT@DV?$StrTraitMFC_DLL@DV?$ChTraitsCRT@D@ATL@@@@@ATL@@QAE@XZ
__unwindfunclet$?GetVerticalAllData@CDataOfChartListPage@@AAE?AV?$CStringT@DV?$StrTraitMFC_DLL@DV?$ChTraitsCRT@D@ATL@@@@@ATL@@PAVCChartLink@@@Z$36:
  000db	8b 45 f0	 mov	 eax, DWORD PTR $T18[ebp]
  000de	83 e0 40	 and	 eax, 64			; 00000040H
  000e1	0f 84 0d 00 00
	00		 je	 $LN103@GetVertica
  000e7	83 65 f0 bf	 and	 DWORD PTR $T18[ebp], -65 ; ffffffbfH
  000eb	8d 4d 0c	 lea	 ecx, DWORD PTR $T27[ebp]
  000ee	ff 25 00 00 00
	00		 jmp	 DWORD PTR __imp_??1?$CStringT@DV?$StrTraitMFC_DLL@DV?$ChTraitsCRT@D@ATL@@@@@ATL@@QAE@XZ
$LN103@GetVertica:
  000f4	c3		 ret	 0
__unwindfunclet$?GetVerticalAllData@CDataOfChartListPage@@AAE?AV?$CStringT@DV?$StrTraitMFC_DLL@DV?$ChTraitsCRT@D@ATL@@@@@ATL@@PAVCChartLink@@@Z$15:
  000f5	8d 4d e8	 lea	 ecx, DWORD PTR $T10[ebp]
  000f8	ff 25 00 00 00
	00		 jmp	 DWORD PTR __imp_??1?$CStringT@DV?$StrTraitMFC_DLL@DV?$ChTraitsCRT@D@ATL@@@@@ATL@@QAE@XZ
__unwindfunclet$?GetVerticalAllData@CDataOfChartListPage@@AAE?AV?$CStringT@DV?$StrTraitMFC_DLL@DV?$ChTraitsCRT@D@ATL@@@@@ATL@@PAVCChartLink@@@Z$37:
  000fe	8b 45 f0	 mov	 eax, DWORD PTR $T18[ebp]
  00101	25 80 00 00 00	 and	 eax, 128		; 00000080H
  00106	0f 84 10 00 00
	00		 je	 $LN116@GetVertica
  0010c	81 65 f0 7f ff
	ff ff		 and	 DWORD PTR $T18[ebp], -129 ; ffffff7fH
  00113	8d 4d 0c	 lea	 ecx, DWORD PTR $T26[ebp]
  00116	ff 25 00 00 00
	00		 jmp	 DWORD PTR __imp_??1?$CStringT@DV?$StrTraitMFC_DLL@DV?$ChTraitsCRT@D@ATL@@@@@ATL@@QAE@XZ
$LN116@GetVertica:
  0011c	c3		 ret	 0
__unwindfunclet$?GetVerticalAllData@CDataOfChartListPage@@AAE?AV?$CStringT@DV?$StrTraitMFC_DLL@DV?$ChTraitsCRT@D@ATL@@@@@ATL@@PAVCChartLink@@@Z$17:
  0011d	8d 4d e8	 lea	 ecx, DWORD PTR $T9[ebp]
  00120	ff 25 00 00 00
	00		 jmp	 DWORD PTR __imp_??1?$CStringT@DV?$StrTraitMFC_DLL@DV?$ChTraitsCRT@D@ATL@@@@@ATL@@QAE@XZ
__unwindfunclet$?GetVerticalAllData@CDataOfChartListPage@@AAE?AV?$CStringT@DV?$StrTraitMFC_DLL@DV?$ChTraitsCRT@D@ATL@@@@@ATL@@PAVCChartLink@@@Z$38:
  00126	8b 45 f0	 mov	 eax, DWORD PTR $T18[ebp]
  00129	25 00 01 00 00	 and	 eax, 256		; 00000100H
  0012e	0f 84 10 00 00
	00		 je	 $LN129@GetVertica
  00134	81 65 f0 ff fe
	ff ff		 and	 DWORD PTR $T18[ebp], -257 ; fffffeffH
  0013b	8d 4d 0c	 lea	 ecx, DWORD PTR $T25[ebp]
  0013e	ff 25 00 00 00
	00		 jmp	 DWORD PTR __imp_??1?$CStringT@DV?$StrTraitMFC_DLL@DV?$ChTraitsCRT@D@ATL@@@@@ATL@@QAE@XZ
$LN129@GetVertica:
  00144	c3		 ret	 0
__unwindfunclet$?GetVerticalAllData@CDataOfChartListPage@@AAE?AV?$CStringT@DV?$StrTraitMFC_DLL@DV?$ChTraitsCRT@D@ATL@@@@@ATL@@PAVCChartLink@@@Z$19:
  00145	8d 4d e8	 lea	 ecx, DWORD PTR $T8[ebp]
  00148	ff 25 00 00 00
	00		 jmp	 DWORD PTR __imp_??1?$CStringT@DV?$StrTraitMFC_DLL@DV?$ChTraitsCRT@D@ATL@@@@@ATL@@QAE@XZ
__unwindfunclet$?GetVerticalAllData@CDataOfChartListPage@@AAE?AV?$CStringT@DV?$StrTraitMFC_DLL@DV?$ChTraitsCRT@D@ATL@@@@@ATL@@PAVCChartLink@@@Z$39:
  0014e	8b 45 f0	 mov	 eax, DWORD PTR $T18[ebp]
  00151	25 00 02 00 00	 and	 eax, 512		; 00000200H
  00156	0f 84 10 00 00
	00		 je	 $LN142@GetVertica
  0015c	81 65 f0 ff fd
	ff ff		 and	 DWORD PTR $T18[ebp], -513 ; fffffdffH
  00163	8d 4d 0c	 lea	 ecx, DWORD PTR $T24[ebp]
  00166	ff 25 00 00 00
	00		 jmp	 DWORD PTR __imp_??1?$CStringT@DV?$StrTraitMFC_DLL@DV?$ChTraitsCRT@D@ATL@@@@@ATL@@QAE@XZ
$LN142@GetVertica:
  0016c	c3		 ret	 0
__unwindfunclet$?GetVerticalAllData@CDataOfChartListPage@@AAE?AV?$CStringT@DV?$StrTraitMFC_DLL@DV?$ChTraitsCRT@D@ATL@@@@@ATL@@PAVCChartLink@@@Z$21:
  0016d	8d 4d e8	 lea	 ecx, DWORD PTR $T7[ebp]
  00170	ff 25 00 00 00
	00		 jmp	 DWORD PTR __imp_??1?$CStringT@DV?$StrTraitMFC_DLL@DV?$ChTraitsCRT@D@ATL@@@@@ATL@@QAE@XZ
__unwindfunclet$?GetVerticalAllData@CDataOfChartListPage@@AAE?AV?$CStringT@DV?$StrTraitMFC_DLL@DV?$ChTraitsCRT@D@ATL@@@@@ATL@@PAVCChartLink@@@Z$40:
  00176	8b 45 f0	 mov	 eax, DWORD PTR $T18[ebp]
  00179	25 00 04 00 00	 and	 eax, 1024		; 00000400H
  0017e	0f 84 10 00 00
	00		 je	 $LN155@GetVertica
  00184	81 65 f0 ff fb
	ff ff		 and	 DWORD PTR $T18[ebp], -1025 ; fffffbffH
  0018b	8d 4d 0c	 lea	 ecx, DWORD PTR $T23[ebp]
  0018e	ff 25 00 00 00
	00		 jmp	 DWORD PTR __imp_??1?$CStringT@DV?$StrTraitMFC_DLL@DV?$ChTraitsCRT@D@ATL@@@@@ATL@@QAE@XZ
$LN155@GetVertica:
  00194	c3		 ret	 0
__unwindfunclet$?GetVerticalAllData@CDataOfChartListPage@@AAE?AV?$CStringT@DV?$StrTraitMFC_DLL@DV?$ChTraitsCRT@D@ATL@@@@@ATL@@PAVCChartLink@@@Z$23:
  00195	8d 4d e8	 lea	 ecx, DWORD PTR $T6[ebp]
  00198	ff 25 00 00 00
	00		 jmp	 DWORD PTR __imp_??1?$CStringT@DV?$StrTraitMFC_DLL@DV?$ChTraitsCRT@D@ATL@@@@@ATL@@QAE@XZ
__unwindfunclet$?GetVerticalAllData@CDataOfChartListPage@@AAE?AV?$CStringT@DV?$StrTraitMFC_DLL@DV?$ChTraitsCRT@D@ATL@@@@@ATL@@PAVCChartLink@@@Z$41:
  0019e	8b 45 f0	 mov	 eax, DWORD PTR $T18[ebp]
  001a1	25 00 08 00 00	 and	 eax, 2048		; 00000800H
  001a6	0f 84 10 00 00
	00		 je	 $LN168@GetVertica
  001ac	81 65 f0 ff f7
	ff ff		 and	 DWORD PTR $T18[ebp], -2049 ; fffff7ffH
  001b3	8d 4d 0c	 lea	 ecx, DWORD PTR $T22[ebp]
  001b6	ff 25 00 00 00
	00		 jmp	 DWORD PTR __imp_??1?$CStringT@DV?$StrTraitMFC_DLL@DV?$ChTraitsCRT@D@ATL@@@@@ATL@@QAE@XZ
$LN168@GetVertica:
  001bc	c3		 ret	 0
__unwindfunclet$?GetVerticalAllData@CDataOfChartListPage@@AAE?AV?$CStringT@DV?$StrTraitMFC_DLL@DV?$ChTraitsCRT@D@ATL@@@@@ATL@@PAVCChartLink@@@Z$25:
  001bd	8d 4d e8	 lea	 ecx, DWORD PTR $T5[ebp]
  001c0	ff 25 00 00 00
	00		 jmp	 DWORD PTR __imp_??1?$CStringT@DV?$StrTraitMFC_DLL@DV?$ChTraitsCRT@D@ATL@@@@@ATL@@QAE@XZ
__unwindfunclet$?GetVerticalAllData@CDataOfChartListPage@@AAE?AV?$CStringT@DV?$StrTraitMFC_DLL@DV?$ChTraitsCRT@D@ATL@@@@@ATL@@PAVCChartLink@@@Z$42:
  001c6	8b 45 f0	 mov	 eax, DWORD PTR $T18[ebp]
  001c9	25 00 10 00 00	 and	 eax, 4096		; 00001000H
  001ce	0f 84 10 00 00
	00		 je	 $LN181@GetVertica
  001d4	81 65 f0 ff ef
	ff ff		 and	 DWORD PTR $T18[ebp], -4097 ; ffffefffH
  001db	8d 4d 0c	 lea	 ecx, DWORD PTR $T21[ebp]
  001de	ff 25 00 00 00
	00		 jmp	 DWORD PTR __imp_??1?$CStringT@DV?$StrTraitMFC_DLL@DV?$ChTraitsCRT@D@ATL@@@@@ATL@@QAE@XZ
$LN181@GetVertica:
  001e4	c3		 ret	 0
__unwindfunclet$?GetVerticalAllData@CDataOfChartListPage@@AAE?AV?$CStringT@DV?$StrTraitMFC_DLL@DV?$ChTraitsCRT@D@ATL@@@@@ATL@@PAVCChartLink@@@Z$27:
  001e5	8d 4d e8	 lea	 ecx, DWORD PTR $T4[ebp]
  001e8	ff 25 00 00 00
	00		 jmp	 DWORD PTR __imp_??1?$CStringT@DV?$StrTraitMFC_DLL@DV?$ChTraitsCRT@D@ATL@@@@@ATL@@QAE@XZ
__unwindfunclet$?GetVerticalAllData@CDataOfChartListPage@@AAE?AV?$CStringT@DV?$StrTraitMFC_DLL@DV?$ChTraitsCRT@D@ATL@@@@@ATL@@PAVCChartLink@@@Z$43:
  001ee	8b 45 f0	 mov	 eax, DWORD PTR $T18[ebp]
  001f1	25 00 20 00 00	 and	 eax, 8192		; 00002000H
  001f6	0f 84 10 00 00
	00		 je	 $LN194@GetVertica
  001fc	81 65 f0 ff df
	ff ff		 and	 DWORD PTR $T18[ebp], -8193 ; ffffdfffH
  00203	8d 4d 0c	 lea	 ecx, DWORD PTR $T20[ebp]
  00206	ff 25 00 00 00
	00		 jmp	 DWORD PTR __imp_??1?$CStringT@DV?$StrTraitMFC_DLL@DV?$ChTraitsCRT@D@ATL@@@@@ATL@@QAE@XZ
$LN194@GetVertica:
  0020c	c3		 ret	 0
__unwindfunclet$?GetVerticalAllData@CDataOfChartListPage@@AAE?AV?$CStringT@DV?$StrTraitMFC_DLL@DV?$ChTraitsCRT@D@ATL@@@@@ATL@@PAVCChartLink@@@Z$29:
  0020d	8d 4d e8	 lea	 ecx, DWORD PTR $T3[ebp]
  00210	ff 25 00 00 00
	00		 jmp	 DWORD PTR __imp_??1?$CStringT@DV?$StrTraitMFC_DLL@DV?$ChTraitsCRT@D@ATL@@@@@ATL@@QAE@XZ
__unwindfunclet$?GetVerticalAllData@CDataOfChartListPage@@AAE?AV?$CStringT@DV?$StrTraitMFC_DLL@DV?$ChTraitsCRT@D@ATL@@@@@ATL@@PAVCChartLink@@@Z$44:
  00216	8b 45 f0	 mov	 eax, DWORD PTR $T18[ebp]
  00219	25 00 40 00 00	 and	 eax, 16384		; 00004000H
  0021e	0f 84 10 00 00
	00		 je	 $LN207@GetVertica
  00224	81 65 f0 ff bf
	ff ff		 and	 DWORD PTR $T18[ebp], -16385 ; ffffbfffH
  0022b	8d 4d 0c	 lea	 ecx, DWORD PTR $T19[ebp]
  0022e	ff 25 00 00 00
	00		 jmp	 DWORD PTR __imp_??1?$CStringT@DV?$StrTraitMFC_DLL@DV?$ChTraitsCRT@D@ATL@@@@@ATL@@QAE@XZ
$LN207@GetVertica:
  00234	c3		 ret	 0
  00235	cc		 int	 3
  00236	cc		 int	 3
  00237	cc		 int	 3
  00238	cc		 int	 3
  00239	cc		 int	 3
__ehhandler$?GetVerticalAllData@CDataOfChartListPage@@AAE?AV?$CStringT@DV?$StrTraitMFC_DLL@DV?$ChTraitsCRT@D@ATL@@@@@ATL@@PAVCChartLink@@@Z:
  0023a	90		 npad	 1
  0023b	90		 npad	 1
  0023c	8b 54 24 08	 mov	 edx, DWORD PTR [esp+8]
  00240	8d 42 0c	 lea	 eax, DWORD PTR [edx+12]
  00243	8b 4a dc	 mov	 ecx, DWORD PTR [edx-36]
  00246	33 c8		 xor	 ecx, eax
  00248	e8 00 00 00 00	 call	 @__security_check_cookie@4
  0024d	b8 00 00 00 00	 mov	 eax, OFFSET __ehfuncinfo$?GetVerticalAllData@CDataOfChartListPage@@AAE?AV?$CStringT@DV?$StrTraitMFC_DLL@DV?$ChTraitsCRT@D@ATL@@@@@ATL@@PAVCChartLink@@@Z
  00252	e9 00 00 00 00	 jmp	 ___CxxFrameHandler3
text$x	ENDS
?GetVerticalAllData@CDataOfChartListPage@@AAE?AV?$CStringT@DV?$StrTraitMFC_DLL@DV?$ChTraitsCRT@D@ATL@@@@@ATL@@PAVCChartLink@@@Z ENDP ; CDataOfChartListPage::GetVerticalAllData
; Function compile flags: /Ogtp
; File D:\git\src\IBK\IBK_DRFN\ProjSrc\SrcChartEx\ChartAddIn\ChartDesignPropertyAddIn\ChartDesignPropertyAddIn\DataOfChartListPage.cpp
; File C:\Program Files (x86)\Microsoft Visual Studio\2019\Community\VC\Tools\MSVC\14.29.30133\atlmfc\include\cstringt.h
; File D:\git\src\IBK\IBK_DRFN\ProjSrc\SrcChartEx\ChartAddIn\ChartDesignPropertyAddIn\ChartDesignPropertyAddIn\DataOfChartListPage.cpp
; File C:\Program Files (x86)\Microsoft Visual Studio\2019\Community\VC\Tools\MSVC\14.29.30133\atlmfc\include\cstringt.h
; File C:\Program Files (x86)\Microsoft Visual Studio\2019\Community\VC\Tools\MSVC\14.29.30133\atlmfc\include\atlsimpstr.h
; File C:\Program Files (x86)\Microsoft Visual Studio\2019\Community\VC\Tools\MSVC\14.29.30133\atlmfc\include\cstringt.h
; File D:\git\src\IBK\IBK_DRFN\ProjSrc\SrcChartEx\ChartAddIn\ChartDesignPropertyAddIn\ChartDesignPropertyAddIn\DataOfChartListPage.cpp
; File C:\Program Files (x86)\Microsoft Visual Studio\2019\Community\VC\Tools\MSVC\14.29.30133\atlmfc\include\cstringt.h
; File D:\git\src\IBK\IBK_DRFN\ProjSrc\SrcChartEx\ChartAddIn\ChartDesignPropertyAddIn\ChartDesignPropertyAddIn\DataOfChartListPage.cpp
; File C:\Program Files (x86)\Microsoft Visual Studio\2019\Community\VC\Tools\MSVC\14.29.30133\atlmfc\include\cstringt.h
; File C:\Program Files (x86)\Microsoft Visual Studio\2019\Community\VC\Tools\MSVC\14.29.30133\atlmfc\include\atlsimpstr.h
; File C:\Program Files (x86)\Microsoft Visual Studio\2019\Community\VC\Tools\MSVC\14.29.30133\atlmfc\include\cstringt.h
; File D:\git\src\IBK\IBK_DRFN\ProjSrc\SrcChartEx\ChartAddIn\ChartDesignPropertyAddIn\ChartDesignPropertyAddIn\DataOfChartListPage.cpp
; File C:\Program Files (x86)\Microsoft Visual Studio\2019\Community\VC\Tools\MSVC\14.29.30133\atlmfc\include\cstringt.h
; File C:\Program Files (x86)\Microsoft Visual Studio\2019\Community\VC\Tools\MSVC\14.29.30133\atlmfc\include\atlsimpstr.h
; File C:\Program Files (x86)\Microsoft Visual Studio\2019\Community\VC\Tools\MSVC\14.29.30133\atlmfc\include\cstringt.h
; File D:\git\src\IBK\IBK_DRFN\ProjSrc\SrcChartEx\ChartAddIn\ChartDesignPropertyAddIn\ChartDesignPropertyAddIn\DataOfChartListPage.cpp
; File C:\Program Files (x86)\Microsoft Visual Studio\2019\Community\VC\Tools\MSVC\14.29.30133\atlmfc\include\cstringt.h
; File D:\git\src\IBK\IBK_DRFN\ProjSrc\SrcChartEx\ChartAddIn\ChartDesignPropertyAddIn\ChartDesignPropertyAddIn\DataOfChartListPage.cpp
; File C:\Program Files (x86)\Microsoft Visual Studio\2019\Community\VC\Tools\MSVC\14.29.30133\atlmfc\include\cstringt.h
; File C:\Program Files (x86)\Microsoft Visual Studio\2019\Community\VC\Tools\MSVC\14.29.30133\atlmfc\include\atlsimpstr.h
; File C:\Program Files (x86)\Microsoft Visual Studio\2019\Community\VC\Tools\MSVC\14.29.30133\atlmfc\include\cstringt.h
; File D:\git\src\IBK\IBK_DRFN\ProjSrc\SrcChartEx\ChartAddIn\ChartDesignPropertyAddIn\ChartDesignPropertyAddIn\DataOfChartListPage.cpp
; File C:\Program Files (x86)\Microsoft Visual Studio\2019\Community\VC\Tools\MSVC\14.29.30133\atlmfc\include\cstringt.h
; File D:\git\src\IBK\IBK_DRFN\ProjSrc\SrcChartEx\ChartAddIn\ChartDesignPropertyAddIn\ChartDesignPropertyAddIn\DataOfChartListPage.cpp
; File C:\Program Files (x86)\Microsoft Visual Studio\2019\Community\VC\Tools\MSVC\14.29.30133\atlmfc\include\cstringt.h
; File C:\Program Files (x86)\Microsoft Visual Studio\2019\Community\VC\Tools\MSVC\14.29.30133\atlmfc\include\atlsimpstr.h
; File C:\Program Files (x86)\Microsoft Visual Studio\2019\Community\VC\Tools\MSVC\14.29.30133\atlmfc\include\cstringt.h
; File D:\git\src\IBK\IBK_DRFN\ProjSrc\SrcChartEx\ChartAddIn\ChartDesignPropertyAddIn\ChartDesignPropertyAddIn\DataOfChartListPage.cpp
; File C:\Program Files (x86)\Microsoft Visual Studio\2019\Community\VC\Tools\MSVC\14.29.30133\atlmfc\include\cstringt.h
; File D:\git\src\IBK\IBK_DRFN\ProjSrc\SrcChartEx\ChartAddIn\ChartDesignPropertyAddIn\ChartDesignPropertyAddIn\DataOfChartListPage.cpp
; File C:\Program Files (x86)\Microsoft Visual Studio\2019\Community\VC\Tools\MSVC\14.29.30133\atlmfc\include\cstringt.h
; File C:\Program Files (x86)\Microsoft Visual Studio\2019\Community\VC\Tools\MSVC\14.29.30133\atlmfc\include\atlsimpstr.h
; File C:\Program Files (x86)\Microsoft Visual Studio\2019\Community\VC\Tools\MSVC\14.29.30133\atlmfc\include\cstringt.h
; File D:\git\src\IBK\IBK_DRFN\ProjSrc\SrcChartEx\ChartAddIn\ChartDesignPropertyAddIn\ChartDesignPropertyAddIn\DataOfChartListPage.cpp
; File C:\Program Files (x86)\Microsoft Visual Studio\2019\Community\VC\Tools\MSVC\14.29.30133\atlmfc\include\cstringt.h
; File D:\git\src\IBK\IBK_DRFN\ProjSrc\SrcChartEx\ChartAddIn\ChartDesignPropertyAddIn\ChartDesignPropertyAddIn\DataOfChartListPage.cpp
; File C:\Program Files (x86)\Microsoft Visual Studio\2019\Community\VC\Tools\MSVC\14.29.30133\atlmfc\include\cstringt.h
; File C:\Program Files (x86)\Microsoft Visual Studio\2019\Community\VC\Tools\MSVC\14.29.30133\atlmfc\include\atlsimpstr.h
; File C:\Program Files (x86)\Microsoft Visual Studio\2019\Community\VC\Tools\MSVC\14.29.30133\atlmfc\include\cstringt.h
; File D:\git\src\IBK\IBK_DRFN\ProjSrc\SrcChartEx\ChartAddIn\ChartDesignPropertyAddIn\ChartDesignPropertyAddIn\DataOfChartListPage.cpp
; File C:\Program Files (x86)\Microsoft Visual Studio\2019\Community\VC\Tools\MSVC\14.29.30133\atlmfc\include\cstringt.h
; File D:\git\src\IBK\IBK_DRFN\ProjSrc\SrcChartEx\ChartAddIn\ChartDesignPropertyAddIn\ChartDesignPropertyAddIn\DataOfChartListPage.cpp
; File C:\Program Files (x86)\Microsoft Visual Studio\2019\Community\VC\Tools\MSVC\14.29.30133\atlmfc\include\cstringt.h
; File C:\Program Files (x86)\Microsoft Visual Studio\2019\Community\VC\Tools\MSVC\14.29.30133\atlmfc\include\atlsimpstr.h
; File C:\Program Files (x86)\Microsoft Visual Studio\2019\Community\VC\Tools\MSVC\14.29.30133\atlmfc\include\cstringt.h
; File D:\git\src\IBK\IBK_DRFN\ProjSrc\SrcChartEx\ChartAddIn\ChartDesignPropertyAddIn\ChartDesignPropertyAddIn\DataOfChartListPage.cpp
; File C:\Program Files (x86)\Microsoft Visual Studio\2019\Community\VC\Tools\MSVC\14.29.30133\atlmfc\include\cstringt.h
; File D:\git\src\IBK\IBK_DRFN\ProjSrc\SrcChartEx\ChartAddIn\ChartDesignPropertyAddIn\ChartDesignPropertyAddIn\DataOfChartListPage.cpp
; File C:\Program Files (x86)\Microsoft Visual Studio\2019\Community\VC\Tools\MSVC\14.29.30133\atlmfc\include\cstringt.h
; File C:\Program Files (x86)\Microsoft Visual Studio\2019\Community\VC\Tools\MSVC\14.29.30133\atlmfc\include\atlsimpstr.h
; File C:\Program Files (x86)\Microsoft Visual Studio\2019\Community\VC\Tools\MSVC\14.29.30133\atlmfc\include\cstringt.h
; File D:\git\src\IBK\IBK_DRFN\ProjSrc\SrcChartEx\ChartAddIn\ChartDesignPropertyAddIn\ChartDesignPropertyAddIn\DataOfChartListPage.cpp
; File C:\Program Files (x86)\Microsoft Visual Studio\2019\Community\VC\Tools\MSVC\14.29.30133\atlmfc\include\cstringt.h
; File D:\git\src\IBK\IBK_DRFN\ProjSrc\SrcChartEx\ChartAddIn\ChartDesignPropertyAddIn\ChartDesignPropertyAddIn\DataOfChartListPage.cpp
; File C:\Program Files (x86)\Microsoft Visual Studio\2019\Community\VC\Tools\MSVC\14.29.30133\atlmfc\include\cstringt.h
; File C:\Program Files (x86)\Microsoft Visual Studio\2019\Community\VC\Tools\MSVC\14.29.30133\atlmfc\include\atlsimpstr.h
; File C:\Program Files (x86)\Microsoft Visual Studio\2019\Community\VC\Tools\MSVC\14.29.30133\atlmfc\include\cstringt.h
; File D:\git\src\IBK\IBK_DRFN\ProjSrc\SrcChartEx\ChartAddIn\ChartDesignPropertyAddIn\ChartDesignPropertyAddIn\DataOfChartListPage.cpp
; File C:\Program Files (x86)\Microsoft Visual Studio\2019\Community\VC\Tools\MSVC\14.29.30133\atlmfc\include\cstringt.h
; File D:\git\src\IBK\IBK_DRFN\ProjSrc\SrcChartEx\ChartAddIn\ChartDesignPropertyAddIn\ChartDesignPropertyAddIn\DataOfChartListPage.cpp
; File C:\Program Files (x86)\Microsoft Visual Studio\2019\Community\VC\Tools\MSVC\14.29.30133\atlmfc\include\cstringt.h
; File C:\Program Files (x86)\Microsoft Visual Studio\2019\Community\VC\Tools\MSVC\14.29.30133\atlmfc\include\atlsimpstr.h
; File C:\Program Files (x86)\Microsoft Visual Studio\2019\Community\VC\Tools\MSVC\14.29.30133\atlmfc\include\cstringt.h
; File D:\git\src\IBK\IBK_DRFN\ProjSrc\SrcChartEx\ChartAddIn\ChartDesignPropertyAddIn\ChartDesignPropertyAddIn\DataOfChartListPage.cpp
;	COMDAT ?GetGraphAllData@CDataOfChartListPage@@AAE?AV?$CStringT@DV?$StrTraitMFC_DLL@DV?$ChTraitsCRT@D@ATL@@@@@ATL@@PAVCChartLink@@@Z
_TEXT	SEGMENT
$T2 = -20						; size = 4
$T3 = -20						; size = 4
$T4 = -20						; size = 4
$T5 = -20						; size = 4
$T6 = -20						; size = 4
$T7 = -20						; size = 4
$T8 = -20						; size = 4
$T9 = -20						; size = 4
$T10 = -16						; size = 4
__$EHRec$ = -12						; size = 12
___$ReturnUdt$ = 8					; size = 4
$T11 = 12						; size = 4
$T12 = 12						; size = 4
$T13 = 12						; size = 4
$T14 = 12						; size = 4
$T15 = 12						; size = 4
$T16 = 12						; size = 4
$T17 = 12						; size = 4
$T18 = 12						; size = 4
$T19 = 12						; size = 4
$T20 = 12						; size = 4
_pItem$ = 12						; size = 4
?GetGraphAllData@CDataOfChartListPage@@AAE?AV?$CStringT@DV?$StrTraitMFC_DLL@DV?$ChTraitsCRT@D@ATL@@@@@ATL@@PAVCChartLink@@@Z PROC ; CDataOfChartListPage::GetGraphAllData, COMDAT
; _this$ = ecx

; 163  : {

  00000	55		 push	 ebp
  00001	8b ec		 mov	 ebp, esp
  00003	6a ff		 push	 -1
  00005	68 00 00 00 00	 push	 __ehhandler$?GetGraphAllData@CDataOfChartListPage@@AAE?AV?$CStringT@DV?$StrTraitMFC_DLL@DV?$ChTraitsCRT@D@ATL@@@@@ATL@@PAVCChartLink@@@Z
  0000a	64 a1 00 00 00
	00		 mov	 eax, DWORD PTR fs:0
  00010	50		 push	 eax
  00011	83 ec 08	 sub	 esp, 8
  00014	53		 push	 ebx
  00015	56		 push	 esi
  00016	57		 push	 edi
  00017	a1 00 00 00 00	 mov	 eax, DWORD PTR ___security_cookie
  0001c	33 c5		 xor	 eax, ebp
  0001e	50		 push	 eax
  0001f	8d 45 f4	 lea	 eax, DWORD PTR __$EHRec$[ebp]
  00022	64 a3 00 00 00
	00		 mov	 DWORD PTR fs:0, eax
  00028	c7 45 f0 00 00
	00 00		 mov	 DWORD PTR $T10[ebp], 0

; 164  : 	CString strValue = "";

  0002f	8b 5d 08	 mov	 ebx, DWORD PTR ___$ReturnUdt$[ebp]
  00032	8b cb		 mov	 ecx, ebx
  00034	68 00 00 00 00	 push	 OFFSET ??_C@_00CNPNBAHC@@
  00039	c7 45 fc 00 00
	00 00		 mov	 DWORD PTR __$EHRec$[ebp+8], 0
  00040	ff 15 00 00 00
	00		 call	 DWORD PTR __imp_??0?$CStringT@DV?$StrTraitMFC_DLL@DV?$ChTraitsCRT@D@ATL@@@@@ATL@@QAE@PBD@Z

; 183  : 	return strValue;

  00046	68 00 00 00 00	 push	 OFFSET ??_C@_08BHMMGBBH@Graph?$DL?$AN?6@
  0004b	8b cb		 mov	 ecx, ebx
  0004d	c7 45 fc 00 00
	00 00		 mov	 DWORD PTR __$EHRec$[ebp+8], 0
  00054	c7 45 f0 01 00
	00 00		 mov	 DWORD PTR $T10[ebp], 1
  0005b	ff 15 00 00 00
	00		 call	 DWORD PTR __imp_??Y?$CStringT@DV?$StrTraitMFC_DLL@DV?$ChTraitsCRT@D@ATL@@@@@ATL@@QAEAAV01@PBD@Z
  00061	68 00 00 00 00	 push	 OFFSET ??_C@_01ICJEACDI@?$DL@
  00066	8b cb		 mov	 ecx, ebx
  00068	ff 15 00 00 00
	00		 call	 DWORD PTR __imp_??Y?$CStringT@DV?$StrTraitMFC_DLL@DV?$ChTraitsCRT@D@ATL@@@@@ATL@@QAEAAV01@PBD@Z
  0006e	8b 7d 0c	 mov	 edi, DWORD PTR _pItem$[ebp]
; File C:\Program Files (x86)\Microsoft Visual Studio\2019\Community\VC\Tools\MSVC\14.29.30133\atlmfc\include\cstringt.h

; 2401 : 		CStringT strResult( str1.GetManager() );

  00071	8d 4f 14	 lea	 ecx, DWORD PTR [edi+20]
; File D:\git\src\IBK\IBK_DRFN\ProjSrc\SrcChartEx\ChartAddIn\ChartDesignPropertyAddIn\ChartDesignPropertyAddIn\DataOfChartListPage.cpp

; 168  : 	strValue += pItem->m_strIndicatorName + ";";								//

  00074	c7 45 fc 01 00
	00 00		 mov	 DWORD PTR __$EHRec$[ebp+8], 1
; File C:\Program Files (x86)\Microsoft Visual Studio\2019\Community\VC\Tools\MSVC\14.29.30133\atlmfc\include\cstringt.h

; 2401 : 		CStringT strResult( str1.GetManager() );

  0007b	ff 15 00 00 00
	00		 call	 DWORD PTR __imp_?GetManager@?$CStringT@DV?$StrTraitMFC_DLL@DV?$ChTraitsCRT@D@ATL@@@@@ATL@@QBEPAUIAtlStringMgr@2@XZ
  00081	50		 push	 eax
  00082	8d 4d 0c	 lea	 ecx, DWORD PTR $T20[ebp]
  00085	ff 15 00 00 00
	00		 call	 DWORD PTR __imp_??0?$CStringT@DV?$StrTraitMFC_DLL@DV?$ChTraitsCRT@D@ATL@@@@@ATL@@QAE@PAUIAtlStringMgr@1@@Z
; File C:\Program Files (x86)\Microsoft Visual Studio\2019\Community\VC\Tools\MSVC\14.29.30133\atlmfc\include\atlsimpstr.h

; 519  : 		return( GetData()->nDataLength );

  0008b	8b 47 14	 mov	 eax, DWORD PTR [edi+20]
; File C:\Program Files (x86)\Microsoft Visual Studio\2019\Community\VC\Tools\MSVC\14.29.30133\atlmfc\include\cstringt.h

; 2403 : 		CThisSimpleString::Concatenate( strResult, str1, str1.GetLength(), psz2, CThisSimpleString::StringLength( psz2 ) );

  0008e	6a 01		 push	 1
  00090	68 00 00 00 00	 push	 OFFSET ??_C@_01ICJEACDI@?$DL@

; 2404 : 
; 2405 : 		return( strResult );

  00095	c7 45 f0 03 00
	00 00		 mov	 DWORD PTR $T10[ebp], 3
  0009c	ff 70 f4	 push	 DWORD PTR [eax-12]
  0009f	50		 push	 eax
  000a0	8d 45 0c	 lea	 eax, DWORD PTR $T20[ebp]
  000a3	50		 push	 eax
  000a4	ff 15 00 00 00
	00		 call	 DWORD PTR __imp_?Concatenate@?$CSimpleStringT@D$00@ATL@@KAXAAV12@PBDH1H@Z
  000aa	83 c4 14	 add	 esp, 20			; 00000014H
; File D:\git\src\IBK\IBK_DRFN\ProjSrc\SrcChartEx\ChartAddIn\ChartDesignPropertyAddIn\ChartDesignPropertyAddIn\DataOfChartListPage.cpp

; 168  : 	strValue += pItem->m_strIndicatorName + ";";								//

  000ad	8d 45 0c	 lea	 eax, DWORD PTR $T20[ebp]
  000b0	8b cb		 mov	 ecx, ebx
  000b2	50		 push	 eax
  000b3	ff 15 00 00 00
	00		 call	 DWORD PTR __imp_??Y?$CStringT@DV?$StrTraitMFC_DLL@DV?$ChTraitsCRT@D@ATL@@@@@ATL@@QAEAAV01@ABV?$CSimpleStringT@D$00@1@@Z
  000b9	8d 4d 0c	 lea	 ecx, DWORD PTR $T20[ebp]
  000bc	ff 15 00 00 00
	00		 call	 DWORD PTR __imp_??1?$CStringT@DV?$StrTraitMFC_DLL@DV?$ChTraitsCRT@D@ATL@@@@@ATL@@QAE@XZ
; File C:\Program Files (x86)\Microsoft Visual Studio\2019\Community\VC\Tools\MSVC\14.29.30133\atlmfc\include\cstringt.h

; 2412 : 		CStringT strResult( str2.GetManager() );

  000c2	8d 4f 18	 lea	 ecx, DWORD PTR [edi+24]
; File D:\git\src\IBK\IBK_DRFN\ProjSrc\SrcChartEx\ChartAddIn\ChartDesignPropertyAddIn\ChartDesignPropertyAddIn\DataOfChartListPage.cpp

; 169  : 	strValue += "G:" + pItem->m_strGraphName + ";";								// (2006/11/29 - Seung-Won, Bae) Support Graph Name for Binding with Indicator Info.

  000c5	c7 45 fc 02 00
	00 00		 mov	 DWORD PTR __$EHRec$[ebp+8], 2
; File C:\Program Files (x86)\Microsoft Visual Studio\2019\Community\VC\Tools\MSVC\14.29.30133\atlmfc\include\cstringt.h

; 2412 : 		CStringT strResult( str2.GetManager() );

  000cc	ff 15 00 00 00
	00		 call	 DWORD PTR __imp_?GetManager@?$CStringT@DV?$StrTraitMFC_DLL@DV?$ChTraitsCRT@D@ATL@@@@@ATL@@QBEPAUIAtlStringMgr@2@XZ
  000d2	50		 push	 eax
  000d3	8d 4d 0c	 lea	 ecx, DWORD PTR $T19[ebp]
  000d6	ff 15 00 00 00
	00		 call	 DWORD PTR __imp_??0?$CStringT@DV?$StrTraitMFC_DLL@DV?$ChTraitsCRT@D@ATL@@@@@ATL@@QAE@PAUIAtlStringMgr@1@@Z
; File C:\Program Files (x86)\Microsoft Visual Studio\2019\Community\VC\Tools\MSVC\14.29.30133\atlmfc\include\atlsimpstr.h

; 519  : 		return( GetData()->nDataLength );

  000dc	8b 47 18	 mov	 eax, DWORD PTR [edi+24]
; File C:\Program Files (x86)\Microsoft Visual Studio\2019\Community\VC\Tools\MSVC\14.29.30133\atlmfc\include\cstringt.h

; 2416 : 		return( strResult );

  000df	c7 45 f0 05 00
	00 00		 mov	 DWORD PTR $T10[ebp], 5
  000e6	ff 70 f4	 push	 DWORD PTR [eax-12]
  000e9	50		 push	 eax
  000ea	6a 02		 push	 2
  000ec	8d 45 0c	 lea	 eax, DWORD PTR $T19[ebp]
  000ef	68 00 00 00 00	 push	 OFFSET ??_C@_02FAMCGDNB@G?3@
  000f4	50		 push	 eax
  000f5	ff 15 00 00 00
	00		 call	 DWORD PTR __imp_?Concatenate@?$CSimpleStringT@D$00@ATL@@KAXAAV12@PBDH1H@Z
  000fb	83 c4 14	 add	 esp, 20			; 00000014H

; 2401 : 		CStringT strResult( str1.GetManager() );

  000fe	8d 4d 0c	 lea	 ecx, DWORD PTR $T19[ebp]
; File D:\git\src\IBK\IBK_DRFN\ProjSrc\SrcChartEx\ChartAddIn\ChartDesignPropertyAddIn\ChartDesignPropertyAddIn\DataOfChartListPage.cpp

; 169  : 	strValue += "G:" + pItem->m_strGraphName + ";";								// (2006/11/29 - Seung-Won, Bae) Support Graph Name for Binding with Indicator Info.

  00101	c6 45 fc 03	 mov	 BYTE PTR __$EHRec$[ebp+8], 3
; File C:\Program Files (x86)\Microsoft Visual Studio\2019\Community\VC\Tools\MSVC\14.29.30133\atlmfc\include\cstringt.h

; 2401 : 		CStringT strResult( str1.GetManager() );

  00105	ff 15 00 00 00
	00		 call	 DWORD PTR __imp_?GetManager@?$CStringT@DV?$StrTraitMFC_DLL@DV?$ChTraitsCRT@D@ATL@@@@@ATL@@QBEPAUIAtlStringMgr@2@XZ
  0010b	50		 push	 eax
  0010c	8d 4d ec	 lea	 ecx, DWORD PTR $T9[ebp]
  0010f	ff 15 00 00 00
	00		 call	 DWORD PTR __imp_??0?$CStringT@DV?$StrTraitMFC_DLL@DV?$ChTraitsCRT@D@ATL@@@@@ATL@@QAE@PAUIAtlStringMgr@1@@Z
; File C:\Program Files (x86)\Microsoft Visual Studio\2019\Community\VC\Tools\MSVC\14.29.30133\atlmfc\include\atlsimpstr.h

; 519  : 		return( GetData()->nDataLength );

  00115	8b 45 0c	 mov	 eax, DWORD PTR $T19[ebp]
; File C:\Program Files (x86)\Microsoft Visual Studio\2019\Community\VC\Tools\MSVC\14.29.30133\atlmfc\include\cstringt.h

; 2403 : 		CThisSimpleString::Concatenate( strResult, str1, str1.GetLength(), psz2, CThisSimpleString::StringLength( psz2 ) );

  00118	6a 01		 push	 1
  0011a	68 00 00 00 00	 push	 OFFSET ??_C@_01ICJEACDI@?$DL@

; 2404 : 
; 2405 : 		return( strResult );

  0011f	c7 45 f0 0d 00
	00 00		 mov	 DWORD PTR $T10[ebp], 13	; 0000000dH
  00126	ff 70 f4	 push	 DWORD PTR [eax-12]
  00129	50		 push	 eax
  0012a	8d 45 ec	 lea	 eax, DWORD PTR $T9[ebp]
  0012d	50		 push	 eax
  0012e	ff 15 00 00 00
	00		 call	 DWORD PTR __imp_?Concatenate@?$CSimpleStringT@D$00@ATL@@KAXAAV12@PBDH1H@Z
  00134	83 c4 14	 add	 esp, 20			; 00000014H
; File D:\git\src\IBK\IBK_DRFN\ProjSrc\SrcChartEx\ChartAddIn\ChartDesignPropertyAddIn\ChartDesignPropertyAddIn\DataOfChartListPage.cpp

; 169  : 	strValue += "G:" + pItem->m_strGraphName + ";";								// (2006/11/29 - Seung-Won, Bae) Support Graph Name for Binding with Indicator Info.

  00137	8d 45 ec	 lea	 eax, DWORD PTR $T9[ebp]
  0013a	8b cb		 mov	 ecx, ebx
  0013c	50		 push	 eax
  0013d	ff 15 00 00 00
	00		 call	 DWORD PTR __imp_??Y?$CStringT@DV?$StrTraitMFC_DLL@DV?$ChTraitsCRT@D@ATL@@@@@ATL@@QAEAAV01@ABV?$CSimpleStringT@D$00@1@@Z
  00143	8d 4d ec	 lea	 ecx, DWORD PTR $T9[ebp]
  00146	ff 15 00 00 00
	00		 call	 DWORD PTR __imp_??1?$CStringT@DV?$StrTraitMFC_DLL@DV?$ChTraitsCRT@D@ATL@@@@@ATL@@QAE@XZ
  0014c	8d 4d 0c	 lea	 ecx, DWORD PTR $T19[ebp]
  0014f	ff 15 00 00 00
	00		 call	 DWORD PTR __imp_??1?$CStringT@DV?$StrTraitMFC_DLL@DV?$ChTraitsCRT@D@ATL@@@@@ATL@@QAE@XZ
; File C:\Program Files (x86)\Microsoft Visual Studio\2019\Community\VC\Tools\MSVC\14.29.30133\atlmfc\include\cstringt.h

; 2401 : 		CStringT strResult( str1.GetManager() );

  00155	8d 4f 24	 lea	 ecx, DWORD PTR [edi+36]
; File D:\git\src\IBK\IBK_DRFN\ProjSrc\SrcChartEx\ChartAddIn\ChartDesignPropertyAddIn\ChartDesignPropertyAddIn\DataOfChartListPage.cpp

; 170  : 	strValue += pItem->m_strCheckedPacketItems + ";";							//  Packet 

  00158	c7 45 fc 04 00
	00 00		 mov	 DWORD PTR __$EHRec$[ebp+8], 4
; File C:\Program Files (x86)\Microsoft Visual Studio\2019\Community\VC\Tools\MSVC\14.29.30133\atlmfc\include\cstringt.h

; 2401 : 		CStringT strResult( str1.GetManager() );

  0015f	ff 15 00 00 00
	00		 call	 DWORD PTR __imp_?GetManager@?$CStringT@DV?$StrTraitMFC_DLL@DV?$ChTraitsCRT@D@ATL@@@@@ATL@@QBEPAUIAtlStringMgr@2@XZ
  00165	50		 push	 eax
  00166	8d 4d 0c	 lea	 ecx, DWORD PTR $T18[ebp]
  00169	ff 15 00 00 00
	00		 call	 DWORD PTR __imp_??0?$CStringT@DV?$StrTraitMFC_DLL@DV?$ChTraitsCRT@D@ATL@@@@@ATL@@QAE@PAUIAtlStringMgr@1@@Z
; File C:\Program Files (x86)\Microsoft Visual Studio\2019\Community\VC\Tools\MSVC\14.29.30133\atlmfc\include\atlsimpstr.h

; 519  : 		return( GetData()->nDataLength );

  0016f	8b 47 24	 mov	 eax, DWORD PTR [edi+36]
; File C:\Program Files (x86)\Microsoft Visual Studio\2019\Community\VC\Tools\MSVC\14.29.30133\atlmfc\include\cstringt.h

; 2403 : 		CThisSimpleString::Concatenate( strResult, str1, str1.GetLength(), psz2, CThisSimpleString::StringLength( psz2 ) );

  00172	6a 01		 push	 1
  00174	68 00 00 00 00	 push	 OFFSET ??_C@_01ICJEACDI@?$DL@

; 2404 : 
; 2405 : 		return( strResult );

  00179	c7 45 f0 11 00
	00 00		 mov	 DWORD PTR $T10[ebp], 17	; 00000011H
  00180	ff 70 f4	 push	 DWORD PTR [eax-12]
  00183	50		 push	 eax
  00184	8d 45 0c	 lea	 eax, DWORD PTR $T18[ebp]
  00187	50		 push	 eax
  00188	ff 15 00 00 00
	00		 call	 DWORD PTR __imp_?Concatenate@?$CSimpleStringT@D$00@ATL@@KAXAAV12@PBDH1H@Z
  0018e	83 c4 14	 add	 esp, 20			; 00000014H
; File D:\git\src\IBK\IBK_DRFN\ProjSrc\SrcChartEx\ChartAddIn\ChartDesignPropertyAddIn\ChartDesignPropertyAddIn\DataOfChartListPage.cpp

; 170  : 	strValue += pItem->m_strCheckedPacketItems + ";";							//  Packet 

  00191	8d 45 0c	 lea	 eax, DWORD PTR $T18[ebp]
  00194	8b cb		 mov	 ecx, ebx
  00196	50		 push	 eax
  00197	ff 15 00 00 00
	00		 call	 DWORD PTR __imp_??Y?$CStringT@DV?$StrTraitMFC_DLL@DV?$ChTraitsCRT@D@ATL@@@@@ATL@@QAEAAV01@ABV?$CSimpleStringT@D$00@1@@Z
  0019d	8d 4d 0c	 lea	 ecx, DWORD PTR $T18[ebp]
  001a0	c7 45 f0 01 00
	00 00		 mov	 DWORD PTR $T10[ebp], 1
  001a7	c6 45 fc 00	 mov	 BYTE PTR __$EHRec$[ebp+8], 0
  001ab	ff 15 00 00 00
	00		 call	 DWORD PTR __imp_??1?$CStringT@DV?$StrTraitMFC_DLL@DV?$ChTraitsCRT@D@ATL@@@@@ATL@@QAE@XZ

; 172  : 	strValue += CDataConversion::IntToString(pItem->m_bSignalUse) + ":";		//signal 

  001b1	0f b6 47 2c	 movzx	 eax, BYTE PTR [edi+44]
  001b5	50		 push	 eax
  001b6	8d 45 ec	 lea	 eax, DWORD PTR $T8[ebp]
  001b9	50		 push	 eax
  001ba	e8 00 00 00 00	 call	 ?IntToString@CDataConversion@@SA?AV?$CStringT@DV?$StrTraitMFC_DLL@DV?$ChTraitsCRT@D@ATL@@@@@ATL@@H@Z ; CDataConversion::IntToString
  001bf	83 c4 08	 add	 esp, 8
  001c2	8b f0		 mov	 esi, eax
; File C:\Program Files (x86)\Microsoft Visual Studio\2019\Community\VC\Tools\MSVC\14.29.30133\atlmfc\include\cstringt.h

; 2401 : 		CStringT strResult( str1.GetManager() );

  001c4	8b ce		 mov	 ecx, esi
; File D:\git\src\IBK\IBK_DRFN\ProjSrc\SrcChartEx\ChartAddIn\ChartDesignPropertyAddIn\ChartDesignPropertyAddIn\DataOfChartListPage.cpp

; 172  : 	strValue += CDataConversion::IntToString(pItem->m_bSignalUse) + ":";		//signal 

  001c6	c7 45 fc 06 00
	00 00		 mov	 DWORD PTR __$EHRec$[ebp+8], 6
; File C:\Program Files (x86)\Microsoft Visual Studio\2019\Community\VC\Tools\MSVC\14.29.30133\atlmfc\include\cstringt.h

; 2401 : 		CStringT strResult( str1.GetManager() );

  001cd	ff 15 00 00 00
	00		 call	 DWORD PTR __imp_?GetManager@?$CStringT@DV?$StrTraitMFC_DLL@DV?$ChTraitsCRT@D@ATL@@@@@ATL@@QBEPAUIAtlStringMgr@2@XZ
  001d3	50		 push	 eax
  001d4	8d 4d 0c	 lea	 ecx, DWORD PTR $T17[ebp]
  001d7	ff 15 00 00 00
	00		 call	 DWORD PTR __imp_??0?$CStringT@DV?$StrTraitMFC_DLL@DV?$ChTraitsCRT@D@ATL@@@@@ATL@@QAE@PAUIAtlStringMgr@1@@Z
; File C:\Program Files (x86)\Microsoft Visual Studio\2019\Community\VC\Tools\MSVC\14.29.30133\atlmfc\include\atlsimpstr.h

; 519  : 		return( GetData()->nDataLength );

  001dd	8b 06		 mov	 eax, DWORD PTR [esi]
; File C:\Program Files (x86)\Microsoft Visual Studio\2019\Community\VC\Tools\MSVC\14.29.30133\atlmfc\include\cstringt.h

; 2403 : 		CThisSimpleString::Concatenate( strResult, str1, str1.GetLength(), psz2, CThisSimpleString::StringLength( psz2 ) );

  001df	6a 01		 push	 1
  001e1	68 00 00 00 00	 push	 OFFSET ??_C@_01JLIPDDHJ@?3@

; 2404 : 
; 2405 : 		return( strResult );

  001e6	c7 45 f0 21 00
	00 00		 mov	 DWORD PTR $T10[ebp], 33	; 00000021H
  001ed	ff 70 f4	 push	 DWORD PTR [eax-12]
  001f0	50		 push	 eax
  001f1	8d 45 0c	 lea	 eax, DWORD PTR $T17[ebp]
  001f4	50		 push	 eax
  001f5	ff 15 00 00 00
	00		 call	 DWORD PTR __imp_?Concatenate@?$CSimpleStringT@D$00@ATL@@KAXAAV12@PBDH1H@Z
  001fb	83 c4 14	 add	 esp, 20			; 00000014H
; File D:\git\src\IBK\IBK_DRFN\ProjSrc\SrcChartEx\ChartAddIn\ChartDesignPropertyAddIn\ChartDesignPropertyAddIn\DataOfChartListPage.cpp

; 172  : 	strValue += CDataConversion::IntToString(pItem->m_bSignalUse) + ":";		//signal 

  001fe	8d 45 0c	 lea	 eax, DWORD PTR $T17[ebp]
  00201	8b cb		 mov	 ecx, ebx
  00203	50		 push	 eax
  00204	ff 15 00 00 00
	00		 call	 DWORD PTR __imp_??Y?$CStringT@DV?$StrTraitMFC_DLL@DV?$ChTraitsCRT@D@ATL@@@@@ATL@@QAEAAV01@ABV?$CSimpleStringT@D$00@1@@Z
  0020a	8d 4d 0c	 lea	 ecx, DWORD PTR $T17[ebp]
  0020d	c7 45 f0 01 00
	00 00		 mov	 DWORD PTR $T10[ebp], 1
  00214	ff 15 00 00 00
	00		 call	 DWORD PTR __imp_??1?$CStringT@DV?$StrTraitMFC_DLL@DV?$ChTraitsCRT@D@ATL@@@@@ATL@@QAE@XZ
  0021a	8d 4d ec	 lea	 ecx, DWORD PTR $T8[ebp]
  0021d	c6 45 fc 00	 mov	 BYTE PTR __$EHRec$[ebp+8], 0
  00221	ff 15 00 00 00
	00		 call	 DWORD PTR __imp_??1?$CStringT@DV?$StrTraitMFC_DLL@DV?$ChTraitsCRT@D@ATL@@@@@ATL@@QAE@XZ

; 173  : 	strValue += CDataConversion::IntToString(pItem->m_bSignalShow) + ";";		//signal 

  00227	0f b6 47 2d	 movzx	 eax, BYTE PTR [edi+45]
  0022b	50		 push	 eax
  0022c	8d 45 ec	 lea	 eax, DWORD PTR $T7[ebp]
  0022f	50		 push	 eax
  00230	e8 00 00 00 00	 call	 ?IntToString@CDataConversion@@SA?AV?$CStringT@DV?$StrTraitMFC_DLL@DV?$ChTraitsCRT@D@ATL@@@@@ATL@@H@Z ; CDataConversion::IntToString
  00235	83 c4 08	 add	 esp, 8
  00238	8b f0		 mov	 esi, eax
; File C:\Program Files (x86)\Microsoft Visual Studio\2019\Community\VC\Tools\MSVC\14.29.30133\atlmfc\include\cstringt.h

; 2401 : 		CStringT strResult( str1.GetManager() );

  0023a	8b ce		 mov	 ecx, esi
; File D:\git\src\IBK\IBK_DRFN\ProjSrc\SrcChartEx\ChartAddIn\ChartDesignPropertyAddIn\ChartDesignPropertyAddIn\DataOfChartListPage.cpp

; 173  : 	strValue += CDataConversion::IntToString(pItem->m_bSignalShow) + ";";		//signal 

  0023c	c7 45 fc 08 00
	00 00		 mov	 DWORD PTR __$EHRec$[ebp+8], 8
; File C:\Program Files (x86)\Microsoft Visual Studio\2019\Community\VC\Tools\MSVC\14.29.30133\atlmfc\include\cstringt.h

; 2401 : 		CStringT strResult( str1.GetManager() );

  00243	ff 15 00 00 00
	00		 call	 DWORD PTR __imp_?GetManager@?$CStringT@DV?$StrTraitMFC_DLL@DV?$ChTraitsCRT@D@ATL@@@@@ATL@@QBEPAUIAtlStringMgr@2@XZ
  00249	50		 push	 eax
  0024a	8d 4d 0c	 lea	 ecx, DWORD PTR $T16[ebp]
  0024d	ff 15 00 00 00
	00		 call	 DWORD PTR __imp_??0?$CStringT@DV?$StrTraitMFC_DLL@DV?$ChTraitsCRT@D@ATL@@@@@ATL@@QAE@PAUIAtlStringMgr@1@@Z
; File C:\Program Files (x86)\Microsoft Visual Studio\2019\Community\VC\Tools\MSVC\14.29.30133\atlmfc\include\atlsimpstr.h

; 519  : 		return( GetData()->nDataLength );

  00253	8b 06		 mov	 eax, DWORD PTR [esi]
; File C:\Program Files (x86)\Microsoft Visual Studio\2019\Community\VC\Tools\MSVC\14.29.30133\atlmfc\include\cstringt.h

; 2403 : 		CThisSimpleString::Concatenate( strResult, str1, str1.GetLength(), psz2, CThisSimpleString::StringLength( psz2 ) );

  00255	6a 01		 push	 1
  00257	68 00 00 00 00	 push	 OFFSET ??_C@_01ICJEACDI@?$DL@

; 2404 : 
; 2405 : 		return( strResult );

  0025c	c7 45 f0 41 00
	00 00		 mov	 DWORD PTR $T10[ebp], 65	; 00000041H
  00263	ff 70 f4	 push	 DWORD PTR [eax-12]
  00266	50		 push	 eax

; 2403 : 		CThisSimpleString::Concatenate( strResult, str1, str1.GetLength(), psz2, CThisSimpleString::StringLength( psz2 ) );

  00267	8d 45 0c	 lea	 eax, DWORD PTR $T16[ebp]
  0026a	50		 push	 eax
  0026b	ff 15 00 00 00
	00		 call	 DWORD PTR __imp_?Concatenate@?$CSimpleStringT@D$00@ATL@@KAXAAV12@PBDH1H@Z
  00271	83 c4 14	 add	 esp, 20			; 00000014H
; File D:\git\src\IBK\IBK_DRFN\ProjSrc\SrcChartEx\ChartAddIn\ChartDesignPropertyAddIn\ChartDesignPropertyAddIn\DataOfChartListPage.cpp

; 173  : 	strValue += CDataConversion::IntToString(pItem->m_bSignalShow) + ";";		//signal 

  00274	8d 45 0c	 lea	 eax, DWORD PTR $T16[ebp]
  00277	8b cb		 mov	 ecx, ebx
  00279	50		 push	 eax
  0027a	ff 15 00 00 00
	00		 call	 DWORD PTR __imp_??Y?$CStringT@DV?$StrTraitMFC_DLL@DV?$ChTraitsCRT@D@ATL@@@@@ATL@@QAEAAV01@ABV?$CSimpleStringT@D$00@1@@Z
  00280	8d 4d 0c	 lea	 ecx, DWORD PTR $T16[ebp]
  00283	c7 45 f0 01 00
	00 00		 mov	 DWORD PTR $T10[ebp], 1
  0028a	ff 15 00 00 00
	00		 call	 DWORD PTR __imp_??1?$CStringT@DV?$StrTraitMFC_DLL@DV?$ChTraitsCRT@D@ATL@@@@@ATL@@QAE@XZ
  00290	8d 4d ec	 lea	 ecx, DWORD PTR $T7[ebp]
  00293	c6 45 fc 00	 mov	 BYTE PTR __$EHRec$[ebp+8], 0
  00297	ff 15 00 00 00
	00		 call	 DWORD PTR __imp_??1?$CStringT@DV?$StrTraitMFC_DLL@DV?$ChTraitsCRT@D@ATL@@@@@ATL@@QAE@XZ

; 175  : 	strValue += CDataConversion::IntToString(pItem->m_bLowHighUpDown) + ";";	//   

  0029d	0f b6 47 2e	 movzx	 eax, BYTE PTR [edi+46]
  002a1	50		 push	 eax
  002a2	8d 45 ec	 lea	 eax, DWORD PTR $T6[ebp]
  002a5	50		 push	 eax
  002a6	e8 00 00 00 00	 call	 ?IntToString@CDataConversion@@SA?AV?$CStringT@DV?$StrTraitMFC_DLL@DV?$ChTraitsCRT@D@ATL@@@@@ATL@@H@Z ; CDataConversion::IntToString
  002ab	83 c4 08	 add	 esp, 8
  002ae	8b f0		 mov	 esi, eax
; File C:\Program Files (x86)\Microsoft Visual Studio\2019\Community\VC\Tools\MSVC\14.29.30133\atlmfc\include\cstringt.h

; 2401 : 		CStringT strResult( str1.GetManager() );

  002b0	8b ce		 mov	 ecx, esi
; File D:\git\src\IBK\IBK_DRFN\ProjSrc\SrcChartEx\ChartAddIn\ChartDesignPropertyAddIn\ChartDesignPropertyAddIn\DataOfChartListPage.cpp

; 175  : 	strValue += CDataConversion::IntToString(pItem->m_bLowHighUpDown) + ";";	//   

  002b2	c7 45 fc 0a 00
	00 00		 mov	 DWORD PTR __$EHRec$[ebp+8], 10 ; 0000000aH
; File C:\Program Files (x86)\Microsoft Visual Studio\2019\Community\VC\Tools\MSVC\14.29.30133\atlmfc\include\cstringt.h

; 2401 : 		CStringT strResult( str1.GetManager() );

  002b9	ff 15 00 00 00
	00		 call	 DWORD PTR __imp_?GetManager@?$CStringT@DV?$StrTraitMFC_DLL@DV?$ChTraitsCRT@D@ATL@@@@@ATL@@QBEPAUIAtlStringMgr@2@XZ
  002bf	50		 push	 eax
  002c0	8d 4d 0c	 lea	 ecx, DWORD PTR $T15[ebp]
  002c3	ff 15 00 00 00
	00		 call	 DWORD PTR __imp_??0?$CStringT@DV?$StrTraitMFC_DLL@DV?$ChTraitsCRT@D@ATL@@@@@ATL@@QAE@PAUIAtlStringMgr@1@@Z
; File C:\Program Files (x86)\Microsoft Visual Studio\2019\Community\VC\Tools\MSVC\14.29.30133\atlmfc\include\atlsimpstr.h

; 519  : 		return( GetData()->nDataLength );

  002c9	8b 06		 mov	 eax, DWORD PTR [esi]
; File C:\Program Files (x86)\Microsoft Visual Studio\2019\Community\VC\Tools\MSVC\14.29.30133\atlmfc\include\cstringt.h

; 2403 : 		CThisSimpleString::Concatenate( strResult, str1, str1.GetLength(), psz2, CThisSimpleString::StringLength( psz2 ) );

  002cb	6a 01		 push	 1
  002cd	68 00 00 00 00	 push	 OFFSET ??_C@_01ICJEACDI@?$DL@

; 2404 : 
; 2405 : 		return( strResult );

  002d2	c7 45 f0 81 00
	00 00		 mov	 DWORD PTR $T10[ebp], 129 ; 00000081H
  002d9	ff 70 f4	 push	 DWORD PTR [eax-12]
  002dc	50		 push	 eax
  002dd	8d 45 0c	 lea	 eax, DWORD PTR $T15[ebp]
  002e0	50		 push	 eax
  002e1	ff 15 00 00 00
	00		 call	 DWORD PTR __imp_?Concatenate@?$CSimpleStringT@D$00@ATL@@KAXAAV12@PBDH1H@Z
  002e7	83 c4 14	 add	 esp, 20			; 00000014H
; File D:\git\src\IBK\IBK_DRFN\ProjSrc\SrcChartEx\ChartAddIn\ChartDesignPropertyAddIn\ChartDesignPropertyAddIn\DataOfChartListPage.cpp

; 175  : 	strValue += CDataConversion::IntToString(pItem->m_bLowHighUpDown) + ";";	//   

  002ea	8d 45 0c	 lea	 eax, DWORD PTR $T15[ebp]
  002ed	8b cb		 mov	 ecx, ebx
  002ef	50		 push	 eax
  002f0	ff 15 00 00 00
	00		 call	 DWORD PTR __imp_??Y?$CStringT@DV?$StrTraitMFC_DLL@DV?$ChTraitsCRT@D@ATL@@@@@ATL@@QAEAAV01@ABV?$CSimpleStringT@D$00@1@@Z
  002f6	8d 4d 0c	 lea	 ecx, DWORD PTR $T15[ebp]
  002f9	c7 45 f0 01 00
	00 00		 mov	 DWORD PTR $T10[ebp], 1
  00300	ff 15 00 00 00
	00		 call	 DWORD PTR __imp_??1?$CStringT@DV?$StrTraitMFC_DLL@DV?$ChTraitsCRT@D@ATL@@@@@ATL@@QAE@XZ
  00306	8d 4d ec	 lea	 ecx, DWORD PTR $T6[ebp]
  00309	c6 45 fc 00	 mov	 BYTE PTR __$EHRec$[ebp+8], 0
  0030d	ff 15 00 00 00
	00		 call	 DWORD PTR __imp_??1?$CStringT@DV?$StrTraitMFC_DLL@DV?$ChTraitsCRT@D@ATL@@@@@ATL@@QAE@XZ

; 176  : 	strValue += CDataConversion::IntToString(pItem->m_bLowNowUpDown) + ";";

  00313	0f b6 47 2f	 movzx	 eax, BYTE PTR [edi+47]
  00317	50		 push	 eax
  00318	8d 45 ec	 lea	 eax, DWORD PTR $T5[ebp]
  0031b	50		 push	 eax
  0031c	e8 00 00 00 00	 call	 ?IntToString@CDataConversion@@SA?AV?$CStringT@DV?$StrTraitMFC_DLL@DV?$ChTraitsCRT@D@ATL@@@@@ATL@@H@Z ; CDataConversion::IntToString
  00321	83 c4 08	 add	 esp, 8
  00324	8b f0		 mov	 esi, eax
; File C:\Program Files (x86)\Microsoft Visual Studio\2019\Community\VC\Tools\MSVC\14.29.30133\atlmfc\include\cstringt.h

; 2401 : 		CStringT strResult( str1.GetManager() );

  00326	8b ce		 mov	 ecx, esi
; File D:\git\src\IBK\IBK_DRFN\ProjSrc\SrcChartEx\ChartAddIn\ChartDesignPropertyAddIn\ChartDesignPropertyAddIn\DataOfChartListPage.cpp

; 176  : 	strValue += CDataConversion::IntToString(pItem->m_bLowNowUpDown) + ";";

  00328	c7 45 fc 0c 00
	00 00		 mov	 DWORD PTR __$EHRec$[ebp+8], 12 ; 0000000cH
; File C:\Program Files (x86)\Microsoft Visual Studio\2019\Community\VC\Tools\MSVC\14.29.30133\atlmfc\include\cstringt.h

; 2401 : 		CStringT strResult( str1.GetManager() );

  0032f	ff 15 00 00 00
	00		 call	 DWORD PTR __imp_?GetManager@?$CStringT@DV?$StrTraitMFC_DLL@DV?$ChTraitsCRT@D@ATL@@@@@ATL@@QBEPAUIAtlStringMgr@2@XZ
  00335	50		 push	 eax
  00336	8d 4d 0c	 lea	 ecx, DWORD PTR $T14[ebp]
  00339	ff 15 00 00 00
	00		 call	 DWORD PTR __imp_??0?$CStringT@DV?$StrTraitMFC_DLL@DV?$ChTraitsCRT@D@ATL@@@@@ATL@@QAE@PAUIAtlStringMgr@1@@Z
; File C:\Program Files (x86)\Microsoft Visual Studio\2019\Community\VC\Tools\MSVC\14.29.30133\atlmfc\include\atlsimpstr.h

; 519  : 		return( GetData()->nDataLength );

  0033f	8b 06		 mov	 eax, DWORD PTR [esi]
; File C:\Program Files (x86)\Microsoft Visual Studio\2019\Community\VC\Tools\MSVC\14.29.30133\atlmfc\include\cstringt.h

; 2403 : 		CThisSimpleString::Concatenate( strResult, str1, str1.GetLength(), psz2, CThisSimpleString::StringLength( psz2 ) );

  00341	6a 01		 push	 1
  00343	68 00 00 00 00	 push	 OFFSET ??_C@_01ICJEACDI@?$DL@

; 2404 : 
; 2405 : 		return( strResult );

  00348	c7 45 f0 01 01
	00 00		 mov	 DWORD PTR $T10[ebp], 257 ; 00000101H
  0034f	ff 70 f4	 push	 DWORD PTR [eax-12]
  00352	50		 push	 eax
  00353	8d 45 0c	 lea	 eax, DWORD PTR $T14[ebp]
  00356	50		 push	 eax
  00357	ff 15 00 00 00
	00		 call	 DWORD PTR __imp_?Concatenate@?$CSimpleStringT@D$00@ATL@@KAXAAV12@PBDH1H@Z
  0035d	83 c4 14	 add	 esp, 20			; 00000014H
; File D:\git\src\IBK\IBK_DRFN\ProjSrc\SrcChartEx\ChartAddIn\ChartDesignPropertyAddIn\ChartDesignPropertyAddIn\DataOfChartListPage.cpp

; 176  : 	strValue += CDataConversion::IntToString(pItem->m_bLowNowUpDown) + ";";

  00360	8d 45 0c	 lea	 eax, DWORD PTR $T14[ebp]
  00363	8b cb		 mov	 ecx, ebx
  00365	50		 push	 eax
  00366	ff 15 00 00 00
	00		 call	 DWORD PTR __imp_??Y?$CStringT@DV?$StrTraitMFC_DLL@DV?$ChTraitsCRT@D@ATL@@@@@ATL@@QAEAAV01@ABV?$CSimpleStringT@D$00@1@@Z
  0036c	8d 4d 0c	 lea	 ecx, DWORD PTR $T14[ebp]
  0036f	c7 45 f0 01 00
	00 00		 mov	 DWORD PTR $T10[ebp], 1
  00376	ff 15 00 00 00
	00		 call	 DWORD PTR __imp_??1?$CStringT@DV?$StrTraitMFC_DLL@DV?$ChTraitsCRT@D@ATL@@@@@ATL@@QAE@XZ
  0037c	8d 4d ec	 lea	 ecx, DWORD PTR $T5[ebp]
  0037f	c6 45 fc 00	 mov	 BYTE PTR __$EHRec$[ebp+8], 0
  00383	ff 15 00 00 00
	00		 call	 DWORD PTR __imp_??1?$CStringT@DV?$StrTraitMFC_DLL@DV?$ChTraitsCRT@D@ATL@@@@@ATL@@QAE@XZ

; 177  : 	strValue += CDataConversion::IntToString(pItem->m_bHighNowUpDown) + ";";

  00389	0f b6 47 30	 movzx	 eax, BYTE PTR [edi+48]
  0038d	50		 push	 eax
  0038e	8d 45 ec	 lea	 eax, DWORD PTR $T4[ebp]
  00391	50		 push	 eax
  00392	e8 00 00 00 00	 call	 ?IntToString@CDataConversion@@SA?AV?$CStringT@DV?$StrTraitMFC_DLL@DV?$ChTraitsCRT@D@ATL@@@@@ATL@@H@Z ; CDataConversion::IntToString
  00397	83 c4 08	 add	 esp, 8
  0039a	8b f0		 mov	 esi, eax
; File C:\Program Files (x86)\Microsoft Visual Studio\2019\Community\VC\Tools\MSVC\14.29.30133\atlmfc\include\cstringt.h

; 2401 : 		CStringT strResult( str1.GetManager() );

  0039c	8b ce		 mov	 ecx, esi
; File D:\git\src\IBK\IBK_DRFN\ProjSrc\SrcChartEx\ChartAddIn\ChartDesignPropertyAddIn\ChartDesignPropertyAddIn\DataOfChartListPage.cpp

; 177  : 	strValue += CDataConversion::IntToString(pItem->m_bHighNowUpDown) + ";";

  0039e	c7 45 fc 0e 00
	00 00		 mov	 DWORD PTR __$EHRec$[ebp+8], 14 ; 0000000eH
; File C:\Program Files (x86)\Microsoft Visual Studio\2019\Community\VC\Tools\MSVC\14.29.30133\atlmfc\include\cstringt.h

; 2401 : 		CStringT strResult( str1.GetManager() );

  003a5	ff 15 00 00 00
	00		 call	 DWORD PTR __imp_?GetManager@?$CStringT@DV?$StrTraitMFC_DLL@DV?$ChTraitsCRT@D@ATL@@@@@ATL@@QBEPAUIAtlStringMgr@2@XZ
  003ab	50		 push	 eax
  003ac	8d 4d 0c	 lea	 ecx, DWORD PTR $T13[ebp]
  003af	ff 15 00 00 00
	00		 call	 DWORD PTR __imp_??0?$CStringT@DV?$StrTraitMFC_DLL@DV?$ChTraitsCRT@D@ATL@@@@@ATL@@QAE@PAUIAtlStringMgr@1@@Z
; File C:\Program Files (x86)\Microsoft Visual Studio\2019\Community\VC\Tools\MSVC\14.29.30133\atlmfc\include\atlsimpstr.h

; 519  : 		return( GetData()->nDataLength );

  003b5	8b 06		 mov	 eax, DWORD PTR [esi]
; File C:\Program Files (x86)\Microsoft Visual Studio\2019\Community\VC\Tools\MSVC\14.29.30133\atlmfc\include\cstringt.h

; 2403 : 		CThisSimpleString::Concatenate( strResult, str1, str1.GetLength(), psz2, CThisSimpleString::StringLength( psz2 ) );

  003b7	6a 01		 push	 1
  003b9	68 00 00 00 00	 push	 OFFSET ??_C@_01ICJEACDI@?$DL@

; 2404 : 
; 2405 : 		return( strResult );

  003be	c7 45 f0 01 02
	00 00		 mov	 DWORD PTR $T10[ebp], 513 ; 00000201H
  003c5	ff 70 f4	 push	 DWORD PTR [eax-12]
  003c8	50		 push	 eax
  003c9	8d 45 0c	 lea	 eax, DWORD PTR $T13[ebp]
  003cc	50		 push	 eax
  003cd	ff 15 00 00 00
	00		 call	 DWORD PTR __imp_?Concatenate@?$CSimpleStringT@D$00@ATL@@KAXAAV12@PBDH1H@Z
  003d3	83 c4 14	 add	 esp, 20			; 00000014H
; File D:\git\src\IBK\IBK_DRFN\ProjSrc\SrcChartEx\ChartAddIn\ChartDesignPropertyAddIn\ChartDesignPropertyAddIn\DataOfChartListPage.cpp

; 177  : 	strValue += CDataConversion::IntToString(pItem->m_bHighNowUpDown) + ";";

  003d6	8d 45 0c	 lea	 eax, DWORD PTR $T13[ebp]
  003d9	8b cb		 mov	 ecx, ebx
  003db	50		 push	 eax
  003dc	ff 15 00 00 00
	00		 call	 DWORD PTR __imp_??Y?$CStringT@DV?$StrTraitMFC_DLL@DV?$ChTraitsCRT@D@ATL@@@@@ATL@@QAEAAV01@ABV?$CSimpleStringT@D$00@1@@Z
  003e2	8d 4d 0c	 lea	 ecx, DWORD PTR $T13[ebp]
  003e5	c7 45 f0 01 00
	00 00		 mov	 DWORD PTR $T10[ebp], 1
  003ec	ff 15 00 00 00
	00		 call	 DWORD PTR __imp_??1?$CStringT@DV?$StrTraitMFC_DLL@DV?$ChTraitsCRT@D@ATL@@@@@ATL@@QAE@XZ
  003f2	8d 4d ec	 lea	 ecx, DWORD PTR $T4[ebp]
  003f5	c6 45 fc 00	 mov	 BYTE PTR __$EHRec$[ebp+8], 0
  003f9	ff 15 00 00 00
	00		 call	 DWORD PTR __imp_??1?$CStringT@DV?$StrTraitMFC_DLL@DV?$ChTraitsCRT@D@ATL@@@@@ATL@@QAE@XZ

; 178  : 	strValue += CDataConversion::IntToString(pItem->m_bPreNowContrast) + ";";

  003ff	0f b6 47 31	 movzx	 eax, BYTE PTR [edi+49]
  00403	50		 push	 eax
  00404	8d 45 ec	 lea	 eax, DWORD PTR $T3[ebp]
  00407	50		 push	 eax
  00408	e8 00 00 00 00	 call	 ?IntToString@CDataConversion@@SA?AV?$CStringT@DV?$StrTraitMFC_DLL@DV?$ChTraitsCRT@D@ATL@@@@@ATL@@H@Z ; CDataConversion::IntToString
  0040d	83 c4 08	 add	 esp, 8
  00410	8b f0		 mov	 esi, eax
; File C:\Program Files (x86)\Microsoft Visual Studio\2019\Community\VC\Tools\MSVC\14.29.30133\atlmfc\include\cstringt.h

; 2401 : 		CStringT strResult( str1.GetManager() );

  00412	8b ce		 mov	 ecx, esi
; File D:\git\src\IBK\IBK_DRFN\ProjSrc\SrcChartEx\ChartAddIn\ChartDesignPropertyAddIn\ChartDesignPropertyAddIn\DataOfChartListPage.cpp

; 178  : 	strValue += CDataConversion::IntToString(pItem->m_bPreNowContrast) + ";";

  00414	c7 45 fc 10 00
	00 00		 mov	 DWORD PTR __$EHRec$[ebp+8], 16 ; 00000010H
; File C:\Program Files (x86)\Microsoft Visual Studio\2019\Community\VC\Tools\MSVC\14.29.30133\atlmfc\include\cstringt.h

; 2401 : 		CStringT strResult( str1.GetManager() );

  0041b	ff 15 00 00 00
	00		 call	 DWORD PTR __imp_?GetManager@?$CStringT@DV?$StrTraitMFC_DLL@DV?$ChTraitsCRT@D@ATL@@@@@ATL@@QBEPAUIAtlStringMgr@2@XZ
  00421	50		 push	 eax
  00422	8d 4d 0c	 lea	 ecx, DWORD PTR $T12[ebp]
  00425	ff 15 00 00 00
	00		 call	 DWORD PTR __imp_??0?$CStringT@DV?$StrTraitMFC_DLL@DV?$ChTraitsCRT@D@ATL@@@@@ATL@@QAE@PAUIAtlStringMgr@1@@Z
; File C:\Program Files (x86)\Microsoft Visual Studio\2019\Community\VC\Tools\MSVC\14.29.30133\atlmfc\include\atlsimpstr.h

; 519  : 		return( GetData()->nDataLength );

  0042b	8b 06		 mov	 eax, DWORD PTR [esi]
; File C:\Program Files (x86)\Microsoft Visual Studio\2019\Community\VC\Tools\MSVC\14.29.30133\atlmfc\include\cstringt.h

; 2403 : 		CThisSimpleString::Concatenate( strResult, str1, str1.GetLength(), psz2, CThisSimpleString::StringLength( psz2 ) );

  0042d	6a 01		 push	 1
  0042f	68 00 00 00 00	 push	 OFFSET ??_C@_01ICJEACDI@?$DL@

; 2404 : 
; 2405 : 		return( strResult );

  00434	c7 45 f0 01 04
	00 00		 mov	 DWORD PTR $T10[ebp], 1025 ; 00000401H
  0043b	ff 70 f4	 push	 DWORD PTR [eax-12]
  0043e	50		 push	 eax
  0043f	8d 45 0c	 lea	 eax, DWORD PTR $T12[ebp]
  00442	50		 push	 eax
  00443	ff 15 00 00 00
	00		 call	 DWORD PTR __imp_?Concatenate@?$CSimpleStringT@D$00@ATL@@KAXAAV12@PBDH1H@Z
  00449	83 c4 14	 add	 esp, 20			; 00000014H
; File D:\git\src\IBK\IBK_DRFN\ProjSrc\SrcChartEx\ChartAddIn\ChartDesignPropertyAddIn\ChartDesignPropertyAddIn\DataOfChartListPage.cpp

; 178  : 	strValue += CDataConversion::IntToString(pItem->m_bPreNowContrast) + ";";

  0044c	8d 45 0c	 lea	 eax, DWORD PTR $T12[ebp]
  0044f	8b cb		 mov	 ecx, ebx
  00451	50		 push	 eax
  00452	ff 15 00 00 00
	00		 call	 DWORD PTR __imp_??Y?$CStringT@DV?$StrTraitMFC_DLL@DV?$ChTraitsCRT@D@ATL@@@@@ATL@@QAEAAV01@ABV?$CSimpleStringT@D$00@1@@Z
  00458	8d 4d 0c	 lea	 ecx, DWORD PTR $T12[ebp]
  0045b	c7 45 f0 01 00
	00 00		 mov	 DWORD PTR $T10[ebp], 1
  00462	ff 15 00 00 00
	00		 call	 DWORD PTR __imp_??1?$CStringT@DV?$StrTraitMFC_DLL@DV?$ChTraitsCRT@D@ATL@@@@@ATL@@QAE@XZ
  00468	8d 4d ec	 lea	 ecx, DWORD PTR $T3[ebp]
  0046b	c6 45 fc 00	 mov	 BYTE PTR __$EHRec$[ebp+8], 0
  0046f	ff 15 00 00 00
	00		 call	 DWORD PTR __imp_??1?$CStringT@DV?$StrTraitMFC_DLL@DV?$ChTraitsCRT@D@ATL@@@@@ATL@@QAE@XZ

; 179  : 	strValue += CDataConversion::IntToString(pItem->m_nCurData) + ";";

  00475	ff 77 34	 push	 DWORD PTR [edi+52]
  00478	8d 45 ec	 lea	 eax, DWORD PTR $T2[ebp]
  0047b	50		 push	 eax
  0047c	e8 00 00 00 00	 call	 ?IntToString@CDataConversion@@SA?AV?$CStringT@DV?$StrTraitMFC_DLL@DV?$ChTraitsCRT@D@ATL@@@@@ATL@@H@Z ; CDataConversion::IntToString
  00481	83 c4 08	 add	 esp, 8
  00484	8b f0		 mov	 esi, eax
; File C:\Program Files (x86)\Microsoft Visual Studio\2019\Community\VC\Tools\MSVC\14.29.30133\atlmfc\include\cstringt.h

; 2401 : 		CStringT strResult( str1.GetManager() );

  00486	8b ce		 mov	 ecx, esi
; File D:\git\src\IBK\IBK_DRFN\ProjSrc\SrcChartEx\ChartAddIn\ChartDesignPropertyAddIn\ChartDesignPropertyAddIn\DataOfChartListPage.cpp

; 179  : 	strValue += CDataConversion::IntToString(pItem->m_nCurData) + ";";

  00488	c7 45 fc 12 00
	00 00		 mov	 DWORD PTR __$EHRec$[ebp+8], 18 ; 00000012H
; File C:\Program Files (x86)\Microsoft Visual Studio\2019\Community\VC\Tools\MSVC\14.29.30133\atlmfc\include\cstringt.h

; 2401 : 		CStringT strResult( str1.GetManager() );

  0048f	ff 15 00 00 00
	00		 call	 DWORD PTR __imp_?GetManager@?$CStringT@DV?$StrTraitMFC_DLL@DV?$ChTraitsCRT@D@ATL@@@@@ATL@@QBEPAUIAtlStringMgr@2@XZ
  00495	50		 push	 eax
  00496	8d 4d 0c	 lea	 ecx, DWORD PTR $T11[ebp]
  00499	ff 15 00 00 00
	00		 call	 DWORD PTR __imp_??0?$CStringT@DV?$StrTraitMFC_DLL@DV?$ChTraitsCRT@D@ATL@@@@@ATL@@QAE@PAUIAtlStringMgr@1@@Z
; File C:\Program Files (x86)\Microsoft Visual Studio\2019\Community\VC\Tools\MSVC\14.29.30133\atlmfc\include\atlsimpstr.h

; 519  : 		return( GetData()->nDataLength );

  0049f	8b 06		 mov	 eax, DWORD PTR [esi]
; File C:\Program Files (x86)\Microsoft Visual Studio\2019\Community\VC\Tools\MSVC\14.29.30133\atlmfc\include\cstringt.h

; 2403 : 		CThisSimpleString::Concatenate( strResult, str1, str1.GetLength(), psz2, CThisSimpleString::StringLength( psz2 ) );

  004a1	6a 01		 push	 1
  004a3	68 00 00 00 00	 push	 OFFSET ??_C@_01ICJEACDI@?$DL@

; 2404 : 
; 2405 : 		return( strResult );

  004a8	c7 45 f0 01 08
	00 00		 mov	 DWORD PTR $T10[ebp], 2049 ; 00000801H
  004af	ff 70 f4	 push	 DWORD PTR [eax-12]
  004b2	50		 push	 eax
  004b3	8d 45 0c	 lea	 eax, DWORD PTR $T11[ebp]
  004b6	50		 push	 eax
  004b7	ff 15 00 00 00
	00		 call	 DWORD PTR __imp_?Concatenate@?$CSimpleStringT@D$00@ATL@@KAXAAV12@PBDH1H@Z
  004bd	83 c4 14	 add	 esp, 20			; 00000014H
; File D:\git\src\IBK\IBK_DRFN\ProjSrc\SrcChartEx\ChartAddIn\ChartDesignPropertyAddIn\ChartDesignPropertyAddIn\DataOfChartListPage.cpp

; 179  : 	strValue += CDataConversion::IntToString(pItem->m_nCurData) + ";";

  004c0	8d 45 0c	 lea	 eax, DWORD PTR $T11[ebp]
  004c3	8b cb		 mov	 ecx, ebx
  004c5	50		 push	 eax
  004c6	ff 15 00 00 00
	00		 call	 DWORD PTR __imp_??Y?$CStringT@DV?$StrTraitMFC_DLL@DV?$ChTraitsCRT@D@ATL@@@@@ATL@@QAEAAV01@ABV?$CSimpleStringT@D$00@1@@Z
  004cc	8d 4d 0c	 lea	 ecx, DWORD PTR $T11[ebp]
  004cf	c7 45 f0 01 00
	00 00		 mov	 DWORD PTR $T10[ebp], 1
  004d6	ff 15 00 00 00
	00		 call	 DWORD PTR __imp_??1?$CStringT@DV?$StrTraitMFC_DLL@DV?$ChTraitsCRT@D@ATL@@@@@ATL@@QAE@XZ
  004dc	8d 4d ec	 lea	 ecx, DWORD PTR $T2[ebp]
  004df	c6 45 fc 00	 mov	 BYTE PTR __$EHRec$[ebp+8], 0
  004e3	ff 15 00 00 00
	00		 call	 DWORD PTR __imp_??1?$CStringT@DV?$StrTraitMFC_DLL@DV?$ChTraitsCRT@D@ATL@@@@@ATL@@QAE@XZ

; 180  : 	strValue += "\r\n";	

  004e9	68 00 00 00 00	 push	 OFFSET ??_C@_02PCIJFNDE@?$AN?6@
  004ee	8b cb		 mov	 ecx, ebx
  004f0	ff 15 00 00 00
	00		 call	 DWORD PTR __imp_??Y?$CStringT@DV?$StrTraitMFC_DLL@DV?$ChTraitsCRT@D@ATL@@@@@ATL@@QAEAAV01@PBD@Z

; 181  : 	strValue += pItem->m_strSubGraphDatas; 

  004f6	8d 4f 28	 lea	 ecx, DWORD PTR [edi+40]
  004f9	51		 push	 ecx
  004fa	8b cb		 mov	 ecx, ebx
  004fc	ff 15 00 00 00
	00		 call	 DWORD PTR __imp_??Y?$CStringT@DV?$StrTraitMFC_DLL@DV?$ChTraitsCRT@D@ATL@@@@@ATL@@QAEAAV01@ABV?$CSimpleStringT@D$00@1@@Z

; 182  : 	strValue += "GraphEnd;\r\n";

  00502	68 00 00 00 00	 push	 OFFSET ??_C@_0M@DGHFHKEI@GraphEnd?$DL?$AN?6@
  00507	8b cb		 mov	 ecx, ebx
  00509	ff 15 00 00 00
	00		 call	 DWORD PTR __imp_??Y?$CStringT@DV?$StrTraitMFC_DLL@DV?$ChTraitsCRT@D@ATL@@@@@ATL@@QAEAAV01@PBD@Z

; 183  : 	return strValue;

  0050f	8b c3		 mov	 eax, ebx

; 184  : }

  00511	8b 4d f4	 mov	 ecx, DWORD PTR __$EHRec$[ebp]
  00514	64 89 0d 00 00
	00 00		 mov	 DWORD PTR fs:0, ecx
  0051b	59		 pop	 ecx
  0051c	5f		 pop	 edi
  0051d	5e		 pop	 esi
  0051e	5b		 pop	 ebx
  0051f	8b e5		 mov	 esp, ebp
  00521	5d		 pop	 ebp
  00522	c2 08 00	 ret	 8
_TEXT	ENDS
;	COMDAT text$x
text$x	SEGMENT
__unwindfunclet$?GetGraphAllData@CDataOfChartListPage@@AAE?AV?$CStringT@DV?$StrTraitMFC_DLL@DV?$ChTraitsCRT@D@ATL@@@@@ATL@@PAVCChartLink@@@Z$0:
  00000	8b 45 f0	 mov	 eax, DWORD PTR $T10[ebp]
  00003	83 e0 01	 and	 eax, 1
  00006	0f 84 0d 00 00
	00		 je	 $LN4@GetGraphAl
  0000c	83 65 f0 fe	 and	 DWORD PTR $T10[ebp], -2	; fffffffeH
  00010	8b 4d 08	 mov	 ecx, DWORD PTR ___$ReturnUdt$[ebp]
  00013	ff 25 00 00 00
	00		 jmp	 DWORD PTR __imp_??1?$CStringT@DV?$StrTraitMFC_DLL@DV?$ChTraitsCRT@D@ATL@@@@@ATL@@QAE@XZ
$LN4@GetGraphAl:
  00019	c3		 ret	 0
__unwindfunclet$?GetGraphAllData@CDataOfChartListPage@@AAE?AV?$CStringT@DV?$StrTraitMFC_DLL@DV?$ChTraitsCRT@D@ATL@@@@@ATL@@PAVCChartLink@@@Z$19:
  0001a	8b 45 f0	 mov	 eax, DWORD PTR $T10[ebp]
  0001d	83 e0 02	 and	 eax, 2
  00020	0f 84 0d 00 00
	00		 je	 $LN26@GetGraphAl
  00026	83 65 f0 fd	 and	 DWORD PTR $T10[ebp], -3	; fffffffdH
  0002a	8d 4d 0c	 lea	 ecx, DWORD PTR $T20[ebp]
  0002d	ff 25 00 00 00
	00		 jmp	 DWORD PTR __imp_??1?$CStringT@DV?$StrTraitMFC_DLL@DV?$ChTraitsCRT@D@ATL@@@@@ATL@@QAE@XZ
$LN26@GetGraphAl:
  00033	c3		 ret	 0
__unwindfunclet$?GetGraphAllData@CDataOfChartListPage@@AAE?AV?$CStringT@DV?$StrTraitMFC_DLL@DV?$ChTraitsCRT@D@ATL@@@@@ATL@@PAVCChartLink@@@Z$20:
  00034	8b 45 f0	 mov	 eax, DWORD PTR $T10[ebp]
  00037	83 e0 04	 and	 eax, 4
  0003a	0f 84 0d 00 00
	00		 je	 $LN39@GetGraphAl
  00040	83 65 f0 fb	 and	 DWORD PTR $T10[ebp], -5	; fffffffbH
  00044	8d 4d 0c	 lea	 ecx, DWORD PTR $T19[ebp]
  00047	ff 25 00 00 00
	00		 jmp	 DWORD PTR __imp_??1?$CStringT@DV?$StrTraitMFC_DLL@DV?$ChTraitsCRT@D@ATL@@@@@ATL@@QAE@XZ
$LN39@GetGraphAl:
  0004d	c3		 ret	 0
__unwindfunclet$?GetGraphAllData@CDataOfChartListPage@@AAE?AV?$CStringT@DV?$StrTraitMFC_DLL@DV?$ChTraitsCRT@D@ATL@@@@@ATL@@PAVCChartLink@@@Z$21:
  0004e	8b 45 f0	 mov	 eax, DWORD PTR $T10[ebp]
  00051	83 e0 08	 and	 eax, 8
  00054	0f 84 0d 00 00
	00		 je	 $LN52@GetGraphAl
  0005a	83 65 f0 f7	 and	 DWORD PTR $T10[ebp], -9	; fffffff7H
  0005e	8d 4d ec	 lea	 ecx, DWORD PTR $T9[ebp]
  00061	ff 25 00 00 00
	00		 jmp	 DWORD PTR __imp_??1?$CStringT@DV?$StrTraitMFC_DLL@DV?$ChTraitsCRT@D@ATL@@@@@ATL@@QAE@XZ
$LN52@GetGraphAl:
  00067	c3		 ret	 0
__unwindfunclet$?GetGraphAllData@CDataOfChartListPage@@AAE?AV?$CStringT@DV?$StrTraitMFC_DLL@DV?$ChTraitsCRT@D@ATL@@@@@ATL@@PAVCChartLink@@@Z$22:
  00068	8b 45 f0	 mov	 eax, DWORD PTR $T10[ebp]
  0006b	83 e0 10	 and	 eax, 16			; 00000010H
  0006e	0f 84 0d 00 00
	00		 je	 $LN65@GetGraphAl
  00074	83 65 f0 ef	 and	 DWORD PTR $T10[ebp], -17 ; ffffffefH
  00078	8d 4d 0c	 lea	 ecx, DWORD PTR $T18[ebp]
  0007b	ff 25 00 00 00
	00		 jmp	 DWORD PTR __imp_??1?$CStringT@DV?$StrTraitMFC_DLL@DV?$ChTraitsCRT@D@ATL@@@@@ATL@@QAE@XZ
$LN65@GetGraphAl:
  00081	c3		 ret	 0
__unwindfunclet$?GetGraphAllData@CDataOfChartListPage@@AAE?AV?$CStringT@DV?$StrTraitMFC_DLL@DV?$ChTraitsCRT@D@ATL@@@@@ATL@@PAVCChartLink@@@Z$5:
  00082	8d 4d ec	 lea	 ecx, DWORD PTR $T8[ebp]
  00085	ff 25 00 00 00
	00		 jmp	 DWORD PTR __imp_??1?$CStringT@DV?$StrTraitMFC_DLL@DV?$ChTraitsCRT@D@ATL@@@@@ATL@@QAE@XZ
__unwindfunclet$?GetGraphAllData@CDataOfChartListPage@@AAE?AV?$CStringT@DV?$StrTraitMFC_DLL@DV?$ChTraitsCRT@D@ATL@@@@@ATL@@PAVCChartLink@@@Z$23:
  0008b	8b 45 f0	 mov	 eax, DWORD PTR $T10[ebp]
  0008e	83 e0 20	 and	 eax, 32			; 00000020H
  00091	0f 84 0d 00 00
	00		 je	 $LN78@GetGraphAl
  00097	83 65 f0 df	 and	 DWORD PTR $T10[ebp], -33 ; ffffffdfH
  0009b	8d 4d 0c	 lea	 ecx, DWORD PTR $T17[ebp]
  0009e	ff 25 00 00 00
	00		 jmp	 DWORD PTR __imp_??1?$CStringT@DV?$StrTraitMFC_DLL@DV?$ChTraitsCRT@D@ATL@@@@@ATL@@QAE@XZ
$LN78@GetGraphAl:
  000a4	c3		 ret	 0
__unwindfunclet$?GetGraphAllData@CDataOfChartListPage@@AAE?AV?$CStringT@DV?$StrTraitMFC_DLL@DV?$ChTraitsCRT@D@ATL@@@@@ATL@@PAVCChartLink@@@Z$7:
  000a5	8d 4d ec	 lea	 ecx, DWORD PTR $T7[ebp]
  000a8	ff 25 00 00 00
	00		 jmp	 DWORD PTR __imp_??1?$CStringT@DV?$StrTraitMFC_DLL@DV?$ChTraitsCRT@D@ATL@@@@@ATL@@QAE@XZ
__unwindfunclet$?GetGraphAllData@CDataOfChartListPage@@AAE?AV?$CStringT@DV?$StrTraitMFC_DLL@DV?$ChTraitsCRT@D@ATL@@@@@ATL@@PAVCChartLink@@@Z$24:
  000ae	8b 45 f0	 mov	 eax, DWORD PTR $T10[ebp]
  000b1	83 e0 40	 and	 eax, 64			; 00000040H
  000b4	0f 84 0d 00 00
	00		 je	 $LN91@GetGraphAl
  000ba	83 65 f0 bf	 and	 DWORD PTR $T10[ebp], -65 ; ffffffbfH
  000be	8d 4d 0c	 lea	 ecx, DWORD PTR $T16[ebp]
  000c1	ff 25 00 00 00
	00		 jmp	 DWORD PTR __imp_??1?$CStringT@DV?$StrTraitMFC_DLL@DV?$ChTraitsCRT@D@ATL@@@@@ATL@@QAE@XZ
$LN91@GetGraphAl:
  000c7	c3		 ret	 0
__unwindfunclet$?GetGraphAllData@CDataOfChartListPage@@AAE?AV?$CStringT@DV?$StrTraitMFC_DLL@DV?$ChTraitsCRT@D@ATL@@@@@ATL@@PAVCChartLink@@@Z$9:
  000c8	8d 4d ec	 lea	 ecx, DWORD PTR $T6[ebp]
  000cb	ff 25 00 00 00
	00		 jmp	 DWORD PTR __imp_??1?$CStringT@DV?$StrTraitMFC_DLL@DV?$ChTraitsCRT@D@ATL@@@@@ATL@@QAE@XZ
__unwindfunclet$?GetGraphAllData@CDataOfChartListPage@@AAE?AV?$CStringT@DV?$StrTraitMFC_DLL@DV?$ChTraitsCRT@D@ATL@@@@@ATL@@PAVCChartLink@@@Z$25:
  000d1	8b 45 f0	 mov	 eax, DWORD PTR $T10[ebp]
  000d4	25 80 00 00 00	 and	 eax, 128		; 00000080H
  000d9	0f 84 10 00 00
	00		 je	 $LN104@GetGraphAl
  000df	81 65 f0 7f ff
	ff ff		 and	 DWORD PTR $T10[ebp], -129 ; ffffff7fH
  000e6	8d 4d 0c	 lea	 ecx, DWORD PTR $T15[ebp]
  000e9	ff 25 00 00 00
	00		 jmp	 DWORD PTR __imp_??1?$CStringT@DV?$StrTraitMFC_DLL@DV?$ChTraitsCRT@D@ATL@@@@@ATL@@QAE@XZ
$LN104@GetGraphAl:
  000ef	c3		 ret	 0
__unwindfunclet$?GetGraphAllData@CDataOfChartListPage@@AAE?AV?$CStringT@DV?$StrTraitMFC_DLL@DV?$ChTraitsCRT@D@ATL@@@@@ATL@@PAVCChartLink@@@Z$11:
  000f0	8d 4d ec	 lea	 ecx, DWORD PTR $T5[ebp]
  000f3	ff 25 00 00 00
	00		 jmp	 DWORD PTR __imp_??1?$CStringT@DV?$StrTraitMFC_DLL@DV?$ChTraitsCRT@D@ATL@@@@@ATL@@QAE@XZ
__unwindfunclet$?GetGraphAllData@CDataOfChartListPage@@AAE?AV?$CStringT@DV?$StrTraitMFC_DLL@DV?$ChTraitsCRT@D@ATL@@@@@ATL@@PAVCChartLink@@@Z$26:
  000f9	8b 45 f0	 mov	 eax, DWORD PTR $T10[ebp]
  000fc	25 00 01 00 00	 and	 eax, 256		; 00000100H
  00101	0f 84 10 00 00
	00		 je	 $LN117@GetGraphAl
  00107	81 65 f0 ff fe
	ff ff		 and	 DWORD PTR $T10[ebp], -257 ; fffffeffH
  0010e	8d 4d 0c	 lea	 ecx, DWORD PTR $T14[ebp]
  00111	ff 25 00 00 00
	00		 jmp	 DWORD PTR __imp_??1?$CStringT@DV?$StrTraitMFC_DLL@DV?$ChTraitsCRT@D@ATL@@@@@ATL@@QAE@XZ
$LN117@GetGraphAl:
  00117	c3		 ret	 0
__unwindfunclet$?GetGraphAllData@CDataOfChartListPage@@AAE?AV?$CStringT@DV?$StrTraitMFC_DLL@DV?$ChTraitsCRT@D@ATL@@@@@ATL@@PAVCChartLink@@@Z$13:
  00118	8d 4d ec	 lea	 ecx, DWORD PTR $T4[ebp]
  0011b	ff 25 00 00 00
	00		 jmp	 DWORD PTR __imp_??1?$CStringT@DV?$StrTraitMFC_DLL@DV?$ChTraitsCRT@D@ATL@@@@@ATL@@QAE@XZ
__unwindfunclet$?GetGraphAllData@CDataOfChartListPage@@AAE?AV?$CStringT@DV?$StrTraitMFC_DLL@DV?$ChTraitsCRT@D@ATL@@@@@ATL@@PAVCChartLink@@@Z$27:
  00121	8b 45 f0	 mov	 eax, DWORD PTR $T10[ebp]
  00124	25 00 02 00 00	 and	 eax, 512		; 00000200H
  00129	0f 84 10 00 00
	00		 je	 $LN130@GetGraphAl
  0012f	81 65 f0 ff fd
	ff ff		 and	 DWORD PTR $T10[ebp], -513 ; fffffdffH
  00136	8d 4d 0c	 lea	 ecx, DWORD PTR $T13[ebp]
  00139	ff 25 00 00 00
	00		 jmp	 DWORD PTR __imp_??1?$CStringT@DV?$StrTraitMFC_DLL@DV?$ChTraitsCRT@D@ATL@@@@@ATL@@QAE@XZ
$LN130@GetGraphAl:
  0013f	c3		 ret	 0
__unwindfunclet$?GetGraphAllData@CDataOfChartListPage@@AAE?AV?$CStringT@DV?$StrTraitMFC_DLL@DV?$ChTraitsCRT@D@ATL@@@@@ATL@@PAVCChartLink@@@Z$15:
  00140	8d 4d ec	 lea	 ecx, DWORD PTR $T3[ebp]
  00143	ff 25 00 00 00
	00		 jmp	 DWORD PTR __imp_??1?$CStringT@DV?$StrTraitMFC_DLL@DV?$ChTraitsCRT@D@ATL@@@@@ATL@@QAE@XZ
__unwindfunclet$?GetGraphAllData@CDataOfChartListPage@@AAE?AV?$CStringT@DV?$StrTraitMFC_DLL@DV?$ChTraitsCRT@D@ATL@@@@@ATL@@PAVCChartLink@@@Z$28:
  00149	8b 45 f0	 mov	 eax, DWORD PTR $T10[ebp]
  0014c	25 00 04 00 00	 and	 eax, 1024		; 00000400H
  00151	0f 84 10 00 00
	00		 je	 $LN143@GetGraphAl
  00157	81 65 f0 ff fb
	ff ff		 and	 DWORD PTR $T10[ebp], -1025 ; fffffbffH
  0015e	8d 4d 0c	 lea	 ecx, DWORD PTR $T12[ebp]
  00161	ff 25 00 00 00
	00		 jmp	 DWORD PTR __imp_??1?$CStringT@DV?$StrTraitMFC_DLL@DV?$ChTraitsCRT@D@ATL@@@@@ATL@@QAE@XZ
$LN143@GetGraphAl:
  00167	c3		 ret	 0
__unwindfunclet$?GetGraphAllData@CDataOfChartListPage@@AAE?AV?$CStringT@DV?$StrTraitMFC_DLL@DV?$ChTraitsCRT@D@ATL@@@@@ATL@@PAVCChartLink@@@Z$17:
  00168	8d 4d ec	 lea	 ecx, DWORD PTR $T2[ebp]
  0016b	ff 25 00 00 00
	00		 jmp	 DWORD PTR __imp_??1?$CStringT@DV?$StrTraitMFC_DLL@DV?$ChTraitsCRT@D@ATL@@@@@ATL@@QAE@XZ
__unwindfunclet$?GetGraphAllData@CDataOfChartListPage@@AAE?AV?$CStringT@DV?$StrTraitMFC_DLL@DV?$ChTraitsCRT@D@ATL@@@@@ATL@@PAVCChartLink@@@Z$29:
  00171	8b 45 f0	 mov	 eax, DWORD PTR $T10[ebp]
  00174	25 00 08 00 00	 and	 eax, 2048		; 00000800H
  00179	0f 84 10 00 00
	00		 je	 $LN156@GetGraphAl
  0017f	81 65 f0 ff f7
	ff ff		 and	 DWORD PTR $T10[ebp], -2049 ; fffff7ffH
  00186	8d 4d 0c	 lea	 ecx, DWORD PTR $T11[ebp]
  00189	ff 25 00 00 00
	00		 jmp	 DWORD PTR __imp_??1?$CStringT@DV?$StrTraitMFC_DLL@DV?$ChTraitsCRT@D@ATL@@@@@ATL@@QAE@XZ
$LN156@GetGraphAl:
  0018f	c3		 ret	 0
  00190	cc		 int	 3
  00191	cc		 int	 3
  00192	cc		 int	 3
  00193	cc		 int	 3
  00194	cc		 int	 3
__ehhandler$?GetGraphAllData@CDataOfChartListPage@@AAE?AV?$CStringT@DV?$StrTraitMFC_DLL@DV?$ChTraitsCRT@D@ATL@@@@@ATL@@PAVCChartLink@@@Z:
  00195	90		 npad	 1
  00196	90		 npad	 1
  00197	8b 54 24 08	 mov	 edx, DWORD PTR [esp+8]
  0019b	8d 42 0c	 lea	 eax, DWORD PTR [edx+12]
  0019e	8b 4a e8	 mov	 ecx, DWORD PTR [edx-24]
  001a1	33 c8		 xor	 ecx, eax
  001a3	e8 00 00 00 00	 call	 @__security_check_cookie@4
  001a8	b8 00 00 00 00	 mov	 eax, OFFSET __ehfuncinfo$?GetGraphAllData@CDataOfChartListPage@@AAE?AV?$CStringT@DV?$StrTraitMFC_DLL@DV?$ChTraitsCRT@D@ATL@@@@@ATL@@PAVCChartLink@@@Z
  001ad	e9 00 00 00 00	 jmp	 ___CxxFrameHandler3
text$x	ENDS
?GetGraphAllData@CDataOfChartListPage@@AAE?AV?$CStringT@DV?$StrTraitMFC_DLL@DV?$ChTraitsCRT@D@ATL@@@@@ATL@@PAVCChartLink@@@Z ENDP ; CDataOfChartListPage::GetGraphAllData
; Function compile flags: /Ogtp
; File D:\git\src\IBK\IBK_DRFN\ProjSrc\SrcChartEx\ChartAddIn\ChartDesignPropertyAddIn\ChartDesignPropertyAddIn\DataOfChartListPage.cpp
; File C:\Program Files (x86)\Microsoft Visual Studio\2019\Community\VC\Tools\MSVC\14.29.30133\atlmfc\include\atlsimpstr.h
; File D:\git\src\IBK\IBK_DRFN\ProjSrc\SrcChartEx\ChartAddIn\ChartDesignPropertyAddIn\ChartDesignPropertyAddIn\DataOfChartListPage.cpp
; File C:\Program Files (x86)\Microsoft Visual Studio\2019\Community\VC\Tools\MSVC\14.29.30133\atlmfc\include\atlsimpstr.h
; File D:\git\src\IBK\IBK_DRFN\ProjSrc\SrcChartEx\ChartAddIn\ChartDesignPropertyAddIn\ChartDesignPropertyAddIn\DataOfChartListPage.cpp
;	COMDAT ?SetBlockItem_Temp@CDataOfChartListPage@@AAEXHV?$CStringT@DV?$StrTraitMFC_DLL@DV?$ChTraitsCRT@D@ATL@@@@@ATL@@@Z
_TEXT	SEGMENT
_this$1$ = -44						; size = 4
_nHorizonpos$1$ = -40					; size = 4
$T2 = -36						; size = 4
$T3 = -36						; size = 4
$T4 = -36						; size = 4
$T5 = -36						; size = 4
_szScaleData$ = -32					; size = 4
_szDateScalePosition$ = -28				; size = 4
_szTimeScalePosition$ = -24				; size = 4
$T6 = -20						; size = 4
$T7 = -20						; size = 4
$T8 = -20						; size = 4
$T9 = -20						; size = 4
$T10 = -20						; size = 4
$T11 = -20						; size = 4
$T12 = -16						; size = 4
$T13 = -16						; size = 4
$T14 = -16						; size = 4
__$EHRec$ = -12						; size = 12
_nBlock$ = 8						; size = 4
_strData$ = 12						; size = 4
?SetBlockItem_Temp@CDataOfChartListPage@@AAEXHV?$CStringT@DV?$StrTraitMFC_DLL@DV?$ChTraitsCRT@D@ATL@@@@@ATL@@@Z PROC ; CDataOfChartListPage::SetBlockItem_Temp, COMDAT
; _this$ = ecx

; 284  : {

  00000	55		 push	 ebp
  00001	8b ec		 mov	 ebp, esp
  00003	6a ff		 push	 -1
  00005	68 00 00 00 00	 push	 __ehhandler$?SetBlockItem_Temp@CDataOfChartListPage@@AAEXHV?$CStringT@DV?$StrTraitMFC_DLL@DV?$ChTraitsCRT@D@ATL@@@@@ATL@@@Z
  0000a	64 a1 00 00 00
	00		 mov	 eax, DWORD PTR fs:0
  00010	50		 push	 eax
  00011	83 ec 20	 sub	 esp, 32			; 00000020H
  00014	53		 push	 ebx
  00015	56		 push	 esi
  00016	57		 push	 edi
  00017	a1 00 00 00 00	 mov	 eax, DWORD PTR ___security_cookie
  0001c	33 c5		 xor	 eax, ebp
  0001e	50		 push	 eax
  0001f	8d 45 f4	 lea	 eax, DWORD PTR __$EHRec$[ebp]
  00022	64 a3 00 00 00
	00		 mov	 DWORD PTR fs:0, eax
  00028	89 4d d4	 mov	 DWORD PTR _this$1$[ebp], ecx
; File C:\Program Files (x86)\Microsoft Visual Studio\2019\Community\VC\Tools\MSVC\14.29.30133\atlmfc\include\atlsimpstr.h

; 519  : 		return( GetData()->nDataLength );

  0002b	8b 45 0c	 mov	 eax, DWORD PTR _strData$[ebp]
; File D:\git\src\IBK\IBK_DRFN\ProjSrc\SrcChartEx\ChartAddIn\ChartDesignPropertyAddIn\ChartDesignPropertyAddIn\DataOfChartListPage.cpp

; 284  : {

  0002e	c7 45 fc 00 00
	00 00		 mov	 DWORD PTR __$EHRec$[ebp+8], 0
; File C:\Program Files (x86)\Microsoft Visual Studio\2019\Community\VC\Tools\MSVC\14.29.30133\atlmfc\include\atlsimpstr.h

; 533  : 		return( GetLength() == 0 );

  00035	83 78 f4 00	 cmp	 DWORD PTR [eax-12], 0
; File D:\git\src\IBK\IBK_DRFN\ProjSrc\SrcChartEx\ChartAddIn\ChartDesignPropertyAddIn\ChartDesignPropertyAddIn\DataOfChartListPage.cpp

; 286  : 	if(strData.IsEmpty())

  00039	0f 84 31 02 00
	00		 je	 $LN21@SetBlockIt

; 287  : 		return;
; 288  : 
; 289  : 	CDataConversion::GetStringData(strData, "Block;\r\n");

  0003f	68 00 00 00 00	 push	 OFFSET ??_C@_08KGLHHGPJ@Block?$DL?$AN?6@
  00044	8d 4d f0	 lea	 ecx, DWORD PTR $T14[ebp]
  00047	ff 15 00 00 00
	00		 call	 DWORD PTR __imp_??0?$CStringT@DV?$StrTraitMFC_DLL@DV?$ChTraitsCRT@D@ATL@@@@@ATL@@QAE@PBD@Z
  0004d	6a 01		 push	 1
  0004f	8d 45 f0	 lea	 eax, DWORD PTR $T14[ebp]
  00052	c6 45 fc 01	 mov	 BYTE PTR __$EHRec$[ebp+8], 1
  00056	50		 push	 eax
  00057	8d 45 0c	 lea	 eax, DWORD PTR _strData$[ebp]
  0005a	50		 push	 eax
  0005b	8d 45 ec	 lea	 eax, DWORD PTR $T11[ebp]
  0005e	50		 push	 eax
  0005f	e8 00 00 00 00	 call	 ?GetStringData@CDataConversion@@SA?AV?$CStringT@DV?$StrTraitMFC_DLL@DV?$ChTraitsCRT@D@ATL@@@@@ATL@@AAV23@ABV23@_N@Z ; CDataConversion::GetStringData
  00064	83 c4 10	 add	 esp, 16			; 00000010H
  00067	8d 4d ec	 lea	 ecx, DWORD PTR $T11[ebp]
  0006a	ff 15 00 00 00
	00		 call	 DWORD PTR __imp_??1?$CStringT@DV?$StrTraitMFC_DLL@DV?$ChTraitsCRT@D@ATL@@@@@ATL@@QAE@XZ
  00070	8d 4d f0	 lea	 ecx, DWORD PTR $T14[ebp]
  00073	c6 45 fc 00	 mov	 BYTE PTR __$EHRec$[ebp+8], 0
  00077	ff 15 00 00 00
	00		 call	 DWORD PTR __imp_??1?$CStringT@DV?$StrTraitMFC_DLL@DV?$ChTraitsCRT@D@ATL@@@@@ATL@@QAE@XZ

; 290  : 	CString szScaleData = CDataConversion::GetStringData(strData, ";");

  0007d	68 00 00 00 00	 push	 OFFSET ??_C@_01ICJEACDI@?$DL@
  00082	8d 4d f0	 lea	 ecx, DWORD PTR $T13[ebp]
  00085	ff 15 00 00 00
	00		 call	 DWORD PTR __imp_??0?$CStringT@DV?$StrTraitMFC_DLL@DV?$ChTraitsCRT@D@ATL@@@@@ATL@@QAE@PBD@Z
  0008b	6a 01		 push	 1
  0008d	8d 45 f0	 lea	 eax, DWORD PTR $T13[ebp]
  00090	c6 45 fc 02	 mov	 BYTE PTR __$EHRec$[ebp+8], 2
  00094	50		 push	 eax
  00095	8d 45 0c	 lea	 eax, DWORD PTR _strData$[ebp]
  00098	50		 push	 eax
  00099	8d 45 e0	 lea	 eax, DWORD PTR _szScaleData$[ebp]
  0009c	50		 push	 eax
  0009d	e8 00 00 00 00	 call	 ?GetStringData@CDataConversion@@SA?AV?$CStringT@DV?$StrTraitMFC_DLL@DV?$ChTraitsCRT@D@ATL@@@@@ATL@@AAV23@ABV23@_N@Z ; CDataConversion::GetStringData
  000a2	83 c4 10	 add	 esp, 16			; 00000010H
  000a5	8d 4d f0	 lea	 ecx, DWORD PTR $T13[ebp]
  000a8	c6 45 fc 04	 mov	 BYTE PTR __$EHRec$[ebp+8], 4
  000ac	ff 15 00 00 00
	00		 call	 DWORD PTR __imp_??1?$CStringT@DV?$StrTraitMFC_DLL@DV?$ChTraitsCRT@D@ATL@@@@@ATL@@QAE@XZ

; 291  : 	int nHorizonpos = atoi(CDataConversion::GetStringData(strData, ";"));

  000b2	68 00 00 00 00	 push	 OFFSET ??_C@_01ICJEACDI@?$DL@
  000b7	8d 4d ec	 lea	 ecx, DWORD PTR $T10[ebp]
  000ba	ff 15 00 00 00
	00		 call	 DWORD PTR __imp_??0?$CStringT@DV?$StrTraitMFC_DLL@DV?$ChTraitsCRT@D@ATL@@@@@ATL@@QAE@PBD@Z
  000c0	6a 01		 push	 1
  000c2	8d 45 ec	 lea	 eax, DWORD PTR $T10[ebp]
  000c5	c6 45 fc 05	 mov	 BYTE PTR __$EHRec$[ebp+8], 5
  000c9	50		 push	 eax
  000ca	8d 45 0c	 lea	 eax, DWORD PTR _strData$[ebp]
  000cd	50		 push	 eax
  000ce	8d 45 dc	 lea	 eax, DWORD PTR $T5[ebp]
  000d1	50		 push	 eax
  000d2	e8 00 00 00 00	 call	 ?GetStringData@CDataConversion@@SA?AV?$CStringT@DV?$StrTraitMFC_DLL@DV?$ChTraitsCRT@D@ATL@@@@@ATL@@AAV23@ABV23@_N@Z ; CDataConversion::GetStringData
  000d7	8b 35 00 00 00
	00		 mov	 esi, DWORD PTR __imp__atoi
  000dd	ff 30		 push	 DWORD PTR [eax]
  000df	ff d6		 call	 esi
  000e1	83 c4 14	 add	 esp, 20			; 00000014H
  000e4	89 45 d8	 mov	 DWORD PTR _nHorizonpos$1$[ebp], eax
  000e7	8d 4d dc	 lea	 ecx, DWORD PTR $T5[ebp]
  000ea	ff 15 00 00 00
	00		 call	 DWORD PTR __imp_??1?$CStringT@DV?$StrTraitMFC_DLL@DV?$ChTraitsCRT@D@ATL@@@@@ATL@@QAE@XZ
  000f0	8d 4d ec	 lea	 ecx, DWORD PTR $T10[ebp]
  000f3	c6 45 fc 04	 mov	 BYTE PTR __$EHRec$[ebp+8], 4
  000f7	ff 15 00 00 00
	00		 call	 DWORD PTR __imp_??1?$CStringT@DV?$StrTraitMFC_DLL@DV?$ChTraitsCRT@D@ATL@@@@@ATL@@QAE@XZ

; 292  : 	CString szDateScalePosition = CDataConversion::GetStringData(strData, ";");

  000fd	68 00 00 00 00	 push	 OFFSET ??_C@_01ICJEACDI@?$DL@
  00102	8d 4d ec	 lea	 ecx, DWORD PTR $T9[ebp]
  00105	ff 15 00 00 00
	00		 call	 DWORD PTR __imp_??0?$CStringT@DV?$StrTraitMFC_DLL@DV?$ChTraitsCRT@D@ATL@@@@@ATL@@QAE@PBD@Z
  0010b	6a 01		 push	 1
  0010d	8d 45 ec	 lea	 eax, DWORD PTR $T9[ebp]
  00110	c6 45 fc 06	 mov	 BYTE PTR __$EHRec$[ebp+8], 6
  00114	50		 push	 eax
  00115	8d 45 0c	 lea	 eax, DWORD PTR _strData$[ebp]
  00118	50		 push	 eax
  00119	8d 45 e4	 lea	 eax, DWORD PTR _szDateScalePosition$[ebp]
  0011c	50		 push	 eax
  0011d	e8 00 00 00 00	 call	 ?GetStringData@CDataConversion@@SA?AV?$CStringT@DV?$StrTraitMFC_DLL@DV?$ChTraitsCRT@D@ATL@@@@@ATL@@AAV23@ABV23@_N@Z ; CDataConversion::GetStringData
  00122	83 c4 10	 add	 esp, 16			; 00000010H
  00125	8d 4d ec	 lea	 ecx, DWORD PTR $T9[ebp]
  00128	c6 45 fc 08	 mov	 BYTE PTR __$EHRec$[ebp+8], 8
  0012c	ff 15 00 00 00
	00		 call	 DWORD PTR __imp_??1?$CStringT@DV?$StrTraitMFC_DLL@DV?$ChTraitsCRT@D@ATL@@@@@ATL@@QAE@XZ

; 293  : 	CString szTimeScalePosition = CDataConversion::GetStringData(strData, ";");

  00132	68 00 00 00 00	 push	 OFFSET ??_C@_01ICJEACDI@?$DL@
  00137	8d 4d f0	 lea	 ecx, DWORD PTR $T12[ebp]
  0013a	ff 15 00 00 00
	00		 call	 DWORD PTR __imp_??0?$CStringT@DV?$StrTraitMFC_DLL@DV?$ChTraitsCRT@D@ATL@@@@@ATL@@QAE@PBD@Z
  00140	6a 01		 push	 1
  00142	8d 45 f0	 lea	 eax, DWORD PTR $T12[ebp]
  00145	c6 45 fc 09	 mov	 BYTE PTR __$EHRec$[ebp+8], 9
  00149	50		 push	 eax
  0014a	8d 45 0c	 lea	 eax, DWORD PTR _strData$[ebp]
  0014d	50		 push	 eax
  0014e	8d 45 e8	 lea	 eax, DWORD PTR _szTimeScalePosition$[ebp]
  00151	50		 push	 eax
  00152	e8 00 00 00 00	 call	 ?GetStringData@CDataConversion@@SA?AV?$CStringT@DV?$StrTraitMFC_DLL@DV?$ChTraitsCRT@D@ATL@@@@@ATL@@AAV23@ABV23@_N@Z ; CDataConversion::GetStringData
  00157	83 c4 10	 add	 esp, 16			; 00000010H
  0015a	8d 4d f0	 lea	 ecx, DWORD PTR $T12[ebp]
  0015d	c6 45 fc 0b	 mov	 BYTE PTR __$EHRec$[ebp+8], 11 ; 0000000bH
  00161	ff 15 00 00 00
	00		 call	 DWORD PTR __imp_??1?$CStringT@DV?$StrTraitMFC_DLL@DV?$ChTraitsCRT@D@ATL@@@@@ATL@@QAE@XZ

; 294  : 	int nHorizonStyle = atoi(CDataConversion::GetStringData(strData, ";"));

  00167	68 00 00 00 00	 push	 OFFSET ??_C@_01ICJEACDI@?$DL@
  0016c	8d 4d ec	 lea	 ecx, DWORD PTR $T8[ebp]
  0016f	ff 15 00 00 00
	00		 call	 DWORD PTR __imp_??0?$CStringT@DV?$StrTraitMFC_DLL@DV?$ChTraitsCRT@D@ATL@@@@@ATL@@QAE@PBD@Z
  00175	6a 01		 push	 1
  00177	8d 45 ec	 lea	 eax, DWORD PTR $T8[ebp]
  0017a	c6 45 fc 0c	 mov	 BYTE PTR __$EHRec$[ebp+8], 12 ; 0000000cH
  0017e	50		 push	 eax
  0017f	8d 45 0c	 lea	 eax, DWORD PTR _strData$[ebp]
  00182	50		 push	 eax
  00183	8d 45 dc	 lea	 eax, DWORD PTR $T4[ebp]
  00186	50		 push	 eax
  00187	e8 00 00 00 00	 call	 ?GetStringData@CDataConversion@@SA?AV?$CStringT@DV?$StrTraitMFC_DLL@DV?$ChTraitsCRT@D@ATL@@@@@ATL@@AAV23@ABV23@_N@Z ; CDataConversion::GetStringData
  0018c	ff 30		 push	 DWORD PTR [eax]
  0018e	ff d6		 call	 esi
  00190	83 c4 14	 add	 esp, 20			; 00000014H
  00193	8d 4d dc	 lea	 ecx, DWORD PTR $T4[ebp]
  00196	8b d8		 mov	 ebx, eax
  00198	ff 15 00 00 00
	00		 call	 DWORD PTR __imp_??1?$CStringT@DV?$StrTraitMFC_DLL@DV?$ChTraitsCRT@D@ATL@@@@@ATL@@QAE@XZ
  0019e	8d 4d ec	 lea	 ecx, DWORD PTR $T8[ebp]
  001a1	c6 45 fc 0b	 mov	 BYTE PTR __$EHRec$[ebp+8], 11 ; 0000000bH
  001a5	ff 15 00 00 00
	00		 call	 DWORD PTR __imp_??1?$CStringT@DV?$StrTraitMFC_DLL@DV?$ChTraitsCRT@D@ATL@@@@@ATL@@QAE@XZ

; 295  : 	int nLog = atoi(CDataConversion::GetStringData(strData, ";"));

  001ab	68 00 00 00 00	 push	 OFFSET ??_C@_01ICJEACDI@?$DL@
  001b0	8d 4d ec	 lea	 ecx, DWORD PTR $T7[ebp]
  001b3	ff 15 00 00 00
	00		 call	 DWORD PTR __imp_??0?$CStringT@DV?$StrTraitMFC_DLL@DV?$ChTraitsCRT@D@ATL@@@@@ATL@@QAE@PBD@Z
  001b9	6a 01		 push	 1
  001bb	8d 45 ec	 lea	 eax, DWORD PTR $T7[ebp]
  001be	c6 45 fc 0d	 mov	 BYTE PTR __$EHRec$[ebp+8], 13 ; 0000000dH
  001c2	50		 push	 eax
  001c3	8d 45 0c	 lea	 eax, DWORD PTR _strData$[ebp]
  001c6	50		 push	 eax
  001c7	8d 45 dc	 lea	 eax, DWORD PTR $T3[ebp]
  001ca	50		 push	 eax
  001cb	e8 00 00 00 00	 call	 ?GetStringData@CDataConversion@@SA?AV?$CStringT@DV?$StrTraitMFC_DLL@DV?$ChTraitsCRT@D@ATL@@@@@ATL@@AAV23@ABV23@_N@Z ; CDataConversion::GetStringData
  001d0	ff 30		 push	 DWORD PTR [eax]
  001d2	ff d6		 call	 esi
  001d4	83 c4 14	 add	 esp, 20			; 00000014H
  001d7	8d 4d dc	 lea	 ecx, DWORD PTR $T3[ebp]
  001da	8b f8		 mov	 edi, eax
  001dc	ff 15 00 00 00
	00		 call	 DWORD PTR __imp_??1?$CStringT@DV?$StrTraitMFC_DLL@DV?$ChTraitsCRT@D@ATL@@@@@ATL@@QAE@XZ
  001e2	8d 4d ec	 lea	 ecx, DWORD PTR $T7[ebp]
  001e5	c6 45 fc 0b	 mov	 BYTE PTR __$EHRec$[ebp+8], 11 ; 0000000bH
  001e9	ff 15 00 00 00
	00		 call	 DWORD PTR __imp_??1?$CStringT@DV?$StrTraitMFC_DLL@DV?$ChTraitsCRT@D@ATL@@@@@ATL@@QAE@XZ

; 296  : 	int nOverTurn = atoi(CDataConversion::GetStringData(strData, ";"));

  001ef	68 00 00 00 00	 push	 OFFSET ??_C@_01ICJEACDI@?$DL@
  001f4	8d 4d ec	 lea	 ecx, DWORD PTR $T6[ebp]
  001f7	ff 15 00 00 00
	00		 call	 DWORD PTR __imp_??0?$CStringT@DV?$StrTraitMFC_DLL@DV?$ChTraitsCRT@D@ATL@@@@@ATL@@QAE@PBD@Z
  001fd	6a 01		 push	 1
  001ff	8d 45 ec	 lea	 eax, DWORD PTR $T6[ebp]
  00202	c6 45 fc 0e	 mov	 BYTE PTR __$EHRec$[ebp+8], 14 ; 0000000eH
  00206	50		 push	 eax
  00207	8d 45 0c	 lea	 eax, DWORD PTR _strData$[ebp]
  0020a	50		 push	 eax
  0020b	8d 45 dc	 lea	 eax, DWORD PTR $T2[ebp]
  0020e	50		 push	 eax
  0020f	e8 00 00 00 00	 call	 ?GetStringData@CDataConversion@@SA?AV?$CStringT@DV?$StrTraitMFC_DLL@DV?$ChTraitsCRT@D@ATL@@@@@ATL@@AAV23@ABV23@_N@Z ; CDataConversion::GetStringData
  00214	ff 30		 push	 DWORD PTR [eax]
  00216	ff d6		 call	 esi
  00218	83 c4 14	 add	 esp, 20			; 00000014H
  0021b	8d 4d dc	 lea	 ecx, DWORD PTR $T2[ebp]
  0021e	8b f0		 mov	 esi, eax
  00220	ff 15 00 00 00
	00		 call	 DWORD PTR __imp_??1?$CStringT@DV?$StrTraitMFC_DLL@DV?$ChTraitsCRT@D@ATL@@@@@ATL@@QAE@XZ
  00226	8d 4d ec	 lea	 ecx, DWORD PTR $T6[ebp]
  00229	c6 45 fc 0b	 mov	 BYTE PTR __$EHRec$[ebp+8], 11 ; 0000000bH
  0022d	ff 15 00 00 00
	00		 call	 DWORD PTR __imp_??1?$CStringT@DV?$StrTraitMFC_DLL@DV?$ChTraitsCRT@D@ATL@@@@@ATL@@QAE@XZ

; 297  : 	m_pTreeChart->ChangeBlockData(nBlock, szScaleData, nHorizonpos, 0, szDateScalePosition, szTimeScalePosition, nHorizonStyle, nLog, nOverTurn);

  00233	8b 4d d4	 mov	 ecx, DWORD PTR _this$1$[ebp]
  00236	8d 45 e8	 lea	 eax, DWORD PTR _szTimeScalePosition$[ebp]
  00239	56		 push	 esi
  0023a	57		 push	 edi
  0023b	53		 push	 ebx
  0023c	8b 49 0c	 mov	 ecx, DWORD PTR [ecx+12]
  0023f	50		 push	 eax
  00240	8d 45 e4	 lea	 eax, DWORD PTR _szDateScalePosition$[ebp]
  00243	50		 push	 eax
  00244	6a 00		 push	 0
  00246	ff 75 d8	 push	 DWORD PTR _nHorizonpos$1$[ebp]
  00249	8d 45 e0	 lea	 eax, DWORD PTR _szScaleData$[ebp]
  0024c	50		 push	 eax
  0024d	ff 75 08	 push	 DWORD PTR _nBlock$[ebp]
  00250	e8 00 00 00 00	 call	 ?ChangeBlockData@CMyTreeCtrl@@QAEXHABV?$CStringT@DV?$StrTraitMFC_DLL@DV?$ChTraitsCRT@D@ATL@@@@@ATL@@HH00HHH@Z ; CMyTreeCtrl::ChangeBlockData

; 298  : }

  00255	8d 4d e8	 lea	 ecx, DWORD PTR _szTimeScalePosition$[ebp]
  00258	ff 15 00 00 00
	00		 call	 DWORD PTR __imp_??1?$CStringT@DV?$StrTraitMFC_DLL@DV?$ChTraitsCRT@D@ATL@@@@@ATL@@QAE@XZ
  0025e	8d 4d e4	 lea	 ecx, DWORD PTR _szDateScalePosition$[ebp]
  00261	ff 15 00 00 00
	00		 call	 DWORD PTR __imp_??1?$CStringT@DV?$StrTraitMFC_DLL@DV?$ChTraitsCRT@D@ATL@@@@@ATL@@QAE@XZ
  00267	8d 4d e0	 lea	 ecx, DWORD PTR _szScaleData$[ebp]
  0026a	ff 15 00 00 00
