; Listing generated by Microsoft (R) Optimizing Compiler Version 19.29.30145.0 

	TITLE	D:\git\src\IBK\IBK_DRFN\#DRfn-CS\_Obj\ChartDesignPropertyAddIn\DialogExpander.obj
	.686P
	.XMM
	include listing.inc
	.model	flat

INCLUDELIB MSVCRT
INCLUDELIB OLDNAMES

PUBLIC	?__empty_global_delete@@YAXPAX@Z		; __empty_global_delete
PUBLIC	?__empty_global_delete@@YAXPAXI@Z		; __empty_global_delete
PUBLIC	??0CExpandDialog@@QAE@XZ			; CExpandDialog::CExpandDialog
PUBLIC	?Initialize@CExpandDialog@@QAEXPAVCWnd@@HH@Z	; CExpandDialog::Initialize
PUBLIC	?OnExpandButton@CExpandDialog@@QAEX_N@Z		; CExpandDialog::OnExpandButton
PUBLIC	?ShrinkDialog@@YAXPAVCWnd@@H@Z			; ShrinkDialog
EXTRN	__imp__GetClientRect@8:PROC
EXTRN	__imp__GetWindowRect@8:PROC
EXTRN	__imp__GetParent@4:PROC
EXTRN	__imp_??0?$CStringT@DV?$StrTraitMFC_DLL@DV?$ChTraitsCRT@D@ATL@@@@@ATL@@QAE@XZ:PROC
EXTRN	?FromHandle@CWnd@@SGPAV1@PAUHWND__@@@Z:PROC	; CWnd::FromHandle
EXTRN	?GetDlgItem@CWnd@@QBEPAV1@H@Z:PROC		; CWnd::GetDlgItem
EXTRN	?MoveWindow@CWnd@@QAEXHHHHH@Z:PROC		; CWnd::MoveWindow
EXTRN	?ScreenToClient@CWnd@@QBEXPAUtagRECT@@@Z:PROC	; CWnd::ScreenToClient
EXTRN	?ShowWindow@CWnd@@QAEHH@Z:PROC			; CWnd::ShowWindow
EXTRN	@__security_check_cookie@4:PROC
EXTRN	___security_cookie:DWORD
; Function compile flags: /Ogtp
; File D:\git\src\IBK\IBK_DRFN\ProjSrc\SrcChartEx\ChartAddIn\ChartDesignPropertyAddIn\ChartDesignPropertyAddIn\DialogExpander.cpp
; File C:\Program Files (x86)\Microsoft Visual Studio\2019\Community\VC\Tools\MSVC\14.29.30133\atlmfc\include\afxwin2.inl
; File D:\git\src\IBK\IBK_DRFN\ProjSrc\SrcChartEx\ChartAddIn\ChartDesignPropertyAddIn\ChartDesignPropertyAddIn\DialogExpander.cpp
; File C:\Program Files (x86)\Microsoft Visual Studio\2019\Community\VC\Tools\MSVC\14.29.30133\atlmfc\include\atltypes.h
; File C:\Program Files (x86)\Microsoft Visual Studio\2019\Community\VC\Tools\MSVC\14.29.30133\atlmfc\include\afxwin2.inl
; File D:\git\src\IBK\IBK_DRFN\ProjSrc\SrcChartEx\ChartAddIn\ChartDesignPropertyAddIn\ChartDesignPropertyAddIn\DialogExpander.cpp
; File C:\Program Files (x86)\Microsoft Visual Studio\2019\Community\VC\Tools\MSVC\14.29.30133\atlmfc\include\afxwin2.inl
; File D:\git\src\IBK\IBK_DRFN\ProjSrc\SrcChartEx\ChartAddIn\ChartDesignPropertyAddIn\ChartDesignPropertyAddIn\DialogExpander.cpp
; File C:\Program Files (x86)\Microsoft Visual Studio\2019\Community\VC\Tools\MSVC\14.29.30133\atlmfc\include\afxwin2.inl
; File D:\git\src\IBK\IBK_DRFN\ProjSrc\SrcChartEx\ChartAddIn\ChartDesignPropertyAddIn\ChartDesignPropertyAddIn\DialogExpander.cpp
; File C:\Program Files (x86)\Microsoft Visual Studio\2019\Community\VC\Tools\MSVC\14.29.30133\atlmfc\include\atltypes.h
; File D:\git\src\IBK\IBK_DRFN\ProjSrc\SrcChartEx\ChartAddIn\ChartDesignPropertyAddIn\ChartDesignPropertyAddIn\DialogExpander.cpp
; File C:\Program Files (x86)\Microsoft Visual Studio\2019\Community\VC\Tools\MSVC\14.29.30133\atlmfc\include\atltypes.h
; File D:\git\src\IBK\IBK_DRFN\ProjSrc\SrcChartEx\ChartAddIn\ChartDesignPropertyAddIn\ChartDesignPropertyAddIn\DialogExpander.cpp
;	COMDAT ?ShrinkDialog@@YAXPAVCWnd@@H@Z
_TEXT	SEGMENT
_pDlg$GSCopy$1$ = -56					; size = 4
_clientrect$ = -52					; size = 16
_markrect$ = -36					; size = 16
_dlgrect$ = -20						; size = 16
__$ArrayPad$ = -4					; size = 4
_pDlg$ = 8						; size = 4
_idmark$ = 12						; size = 4
?ShrinkDialog@@YAXPAVCWnd@@H@Z PROC			; ShrinkDialog, COMDAT

; 14   : {   

  00000	55		 push	 ebp
  00001	8b ec		 mov	 ebp, esp
  00003	83 ec 38	 sub	 esp, 56			; 00000038H
  00006	a1 00 00 00 00	 mov	 eax, DWORD PTR ___security_cookie
  0000b	33 c5		 xor	 eax, ebp
  0000d	89 45 fc	 mov	 DWORD PTR __$ArrayPad$[ebp], eax
  00010	8b 45 0c	 mov	 eax, DWORD PTR _idmark$[ebp]
  00013	53		 push	 ebx
  00014	56		 push	 esi
  00015	8b 75 08	 mov	 esi, DWORD PTR _pDlg$[ebp]

; 16   :   CWnd *pWndMark = pDlg->GetDlgItem(idmark);

  00018	8b ce		 mov	 ecx, esi
  0001a	57		 push	 edi
  0001b	50		 push	 eax
  0001c	89 75 c8	 mov	 DWORD PTR _pDlg$GSCopy$1$[ebp], esi
  0001f	e8 00 00 00 00	 call	 ?GetDlgItem@CWnd@@QBEPAV1@H@Z ; CWnd::GetDlgItem
; File C:\Program Files (x86)\Microsoft Visual Studio\2019\Community\VC\Tools\MSVC\14.29.30133\atlmfc\include\afxwin2.inl

; 213  : 	{ ASSERT(::IsWindow(m_hWnd)); return CWnd::FromHandle(::GetParent(m_hWnd)); }

  00024	ff 76 20	 push	 DWORD PTR [esi+32]
  00027	0f 57 c0	 xorps	 xmm0, xmm0
; File D:\git\src\IBK\IBK_DRFN\ProjSrc\SrcChartEx\ChartAddIn\ChartDesignPropertyAddIn\ChartDesignPropertyAddIn\DialogExpander.cpp

; 16   :   CWnd *pWndMark = pDlg->GetDlgItem(idmark);

  0002a	8b d8		 mov	 ebx, eax
; File C:\Program Files (x86)\Microsoft Visual Studio\2019\Community\VC\Tools\MSVC\14.29.30133\atlmfc\include\atltypes.h

; 528  : 	left = 0;

  0002c	0f 11 45 dc	 movups	 XMMWORD PTR _markrect$[ebp], xmm0
  00030	0f 11 45 ec	 movups	 XMMWORD PTR _dlgrect$[ebp], xmm0
  00034	0f 11 45 cc	 movups	 XMMWORD PTR _clientrect$[ebp], xmm0
; File C:\Program Files (x86)\Microsoft Visual Studio\2019\Community\VC\Tools\MSVC\14.29.30133\atlmfc\include\afxwin2.inl

; 213  : 	{ ASSERT(::IsWindow(m_hWnd)); return CWnd::FromHandle(::GetParent(m_hWnd)); }

  00038	ff 15 00 00 00
	00		 call	 DWORD PTR __imp__GetParent@4
  0003e	50		 push	 eax
  0003f	e8 00 00 00 00	 call	 ?FromHandle@CWnd@@SGPAV1@PAUHWND__@@@Z ; CWnd::FromHandle

; 86   : 	{ ASSERT(::IsWindow(m_hWnd)); ::GetClientRect(m_hWnd, lpRect); }

  00044	8d 45 cc	 lea	 eax, DWORD PTR _clientrect$[ebp]
  00047	50		 push	 eax
  00048	ff 76 20	 push	 DWORD PTR [esi+32]
  0004b	ff 15 00 00 00
	00		 call	 DWORD PTR __imp__GetClientRect@8

; 84   : 	{ ASSERT(::IsWindow(m_hWnd)); ::GetWindowRect(m_hWnd, lpRect); }

  00051	8d 45 ec	 lea	 eax, DWORD PTR _dlgrect$[ebp]
  00054	50		 push	 eax
  00055	ff 76 20	 push	 DWORD PTR [esi+32]
  00058	8b 35 00 00 00
	00		 mov	 esi, DWORD PTR __imp__GetWindowRect@8
  0005e	ff d6		 call	 esi
; File D:\git\src\IBK\IBK_DRFN\ProjSrc\SrcChartEx\ChartAddIn\ChartDesignPropertyAddIn\ChartDesignPropertyAddIn\DialogExpander.cpp

; 28   :   offset = dlgrect.Height() - clientrect.bottom ;

  00060	8b 7d f8	 mov	 edi, DWORD PTR _dlgrect$[ebp+12]
; File C:\Program Files (x86)\Microsoft Visual Studio\2019\Community\VC\Tools\MSVC\14.29.30133\atlmfc\include\afxwin2.inl

; 84   : 	{ ASSERT(::IsWindow(m_hWnd)); ::GetWindowRect(m_hWnd, lpRect); }

  00063	8d 45 dc	 lea	 eax, DWORD PTR _markrect$[ebp]
; File D:\git\src\IBK\IBK_DRFN\ProjSrc\SrcChartEx\ChartAddIn\ChartDesignPropertyAddIn\ChartDesignPropertyAddIn\DialogExpander.cpp

; 28   :   offset = dlgrect.Height() - clientrect.bottom ;

  00066	2b 7d f0	 sub	 edi, DWORD PTR _dlgrect$[ebp+4]
  00069	2b 7d d8	 sub	 edi, DWORD PTR _clientrect$[ebp+12]
; File C:\Program Files (x86)\Microsoft Visual Studio\2019\Community\VC\Tools\MSVC\14.29.30133\atlmfc\include\afxwin2.inl

; 84   : 	{ ASSERT(::IsWindow(m_hWnd)); ::GetWindowRect(m_hWnd, lpRect); }

  0006c	50		 push	 eax
  0006d	ff 73 20	 push	 DWORD PTR [ebx+32]
  00070	ff d6		 call	 esi
; File D:\git\src\IBK\IBK_DRFN\ProjSrc\SrcChartEx\ChartAddIn\ChartDesignPropertyAddIn\ChartDesignPropertyAddIn\DialogExpander.cpp

; 33   :   pDlg->ScreenToClient(&markrect) ;

  00072	8b 4d c8	 mov	 ecx, DWORD PTR _pDlg$GSCopy$1$[ebp]
  00075	8d 45 dc	 lea	 eax, DWORD PTR _markrect$[ebp]
  00078	50		 push	 eax
  00079	e8 00 00 00 00	 call	 ?ScreenToClient@CWnd@@QBEXPAUtagRECT@@@Z ; CWnd::ScreenToClient

; 36   :   dlgrect.bottom = dlgrect.top + markrect.bottom + offset;

  0007e	8b 75 f0	 mov	 esi, DWORD PTR _dlgrect$[ebp+4]
  00081	8b 45 e8	 mov	 eax, DWORD PTR _markrect$[ebp+12]
; File C:\Program Files (x86)\Microsoft Visual Studio\2019\Community\VC\Tools\MSVC\14.29.30133\atlmfc\include\atltypes.h

; 576  : 	return right - left;

  00084	8b 55 ec	 mov	 edx, DWORD PTR _dlgrect$[ebp]
; File D:\git\src\IBK\IBK_DRFN\ProjSrc\SrcChartEx\ChartAddIn\ChartDesignPropertyAddIn\ChartDesignPropertyAddIn\DialogExpander.cpp

; 36   :   dlgrect.bottom = dlgrect.top + markrect.bottom + offset;

  00087	03 c6		 add	 eax, esi

; 38   :   pDlg->MoveWindow (dlgrect.left, dlgrect.top, dlgrect.Width(), dlgrect.Height()) ;

  00089	8b 4d c8	 mov	 ecx, DWORD PTR _pDlg$GSCopy$1$[ebp]
  0008c	03 c7		 add	 eax, edi
  0008e	89 45 f8	 mov	 DWORD PTR _dlgrect$[ebp+12], eax
  00091	2b c6		 sub	 eax, esi
  00093	6a 01		 push	 1
  00095	50		 push	 eax
; File C:\Program Files (x86)\Microsoft Visual Studio\2019\Community\VC\Tools\MSVC\14.29.30133\atlmfc\include\atltypes.h

; 576  : 	return right - left;

  00096	8b 45 f4	 mov	 eax, DWORD PTR _dlgrect$[ebp+8]
  00099	2b c2		 sub	 eax, edx
; File D:\git\src\IBK\IBK_DRFN\ProjSrc\SrcChartEx\ChartAddIn\ChartDesignPropertyAddIn\ChartDesignPropertyAddIn\DialogExpander.cpp

; 38   :   pDlg->MoveWindow (dlgrect.left, dlgrect.top, dlgrect.Width(), dlgrect.Height()) ;

  0009b	50		 push	 eax
  0009c	56		 push	 esi
  0009d	52		 push	 edx
  0009e	e8 00 00 00 00	 call	 ?MoveWindow@CWnd@@QAEXHHHHH@Z ; CWnd::MoveWindow

; 39   : }

  000a3	8b 4d fc	 mov	 ecx, DWORD PTR __$ArrayPad$[ebp]
  000a6	5f		 pop	 edi
  000a7	5e		 pop	 esi
  000a8	33 cd		 xor	 ecx, ebp
  000aa	5b		 pop	 ebx
  000ab	e8 00 00 00 00	 call	 @__security_check_cookie@4
  000b0	8b e5		 mov	 esp, ebp
  000b2	5d		 pop	 ebp
  000b3	c3		 ret	 0
?ShrinkDialog@@YAXPAVCWnd@@H@Z ENDP			; ShrinkDialog
_TEXT	ENDS
; Function compile flags: /Ogtp
; File D:\git\src\IBK\IBK_DRFN\ProjSrc\SrcChartEx\ChartAddIn\ChartDesignPropertyAddIn\ChartDesignPropertyAddIn\DialogExpander.cpp
; File C:\Program Files (x86)\Microsoft Visual Studio\2019\Community\VC\Tools\MSVC\14.29.30133\atlmfc\include\afxwin2.inl
; File C:\Program Files (x86)\Microsoft Visual Studio\2019\Community\VC\Tools\MSVC\14.29.30133\atlmfc\include\atltypes.h
; File C:\Program Files (x86)\Microsoft Visual Studio\2019\Community\VC\Tools\MSVC\14.29.30133\atlmfc\include\afxwin2.inl
; File C:\Program Files (x86)\Microsoft Visual Studio\2019\Community\VC\Tools\MSVC\14.29.30133\atlmfc\include\atltypes.h
; File D:\git\src\IBK\IBK_DRFN\ProjSrc\SrcChartEx\ChartAddIn\ChartDesignPropertyAddIn\ChartDesignPropertyAddIn\DialogExpander.cpp
; File C:\Program Files (x86)\Microsoft Visual Studio\2019\Community\VC\Tools\MSVC\14.29.30133\atlmfc\include\atltypes.h
; File D:\git\src\IBK\IBK_DRFN\ProjSrc\SrcChartEx\ChartAddIn\ChartDesignPropertyAddIn\ChartDesignPropertyAddIn\DialogExpander.cpp
; File C:\Program Files (x86)\Microsoft Visual Studio\2019\Community\VC\Tools\MSVC\14.29.30133\atlmfc\include\afxwin2.inl
; File D:\git\src\IBK\IBK_DRFN\ProjSrc\SrcChartEx\ChartAddIn\ChartDesignPropertyAddIn\ChartDesignPropertyAddIn\DialogExpander.cpp
; File C:\Program Files (x86)\Microsoft Visual Studio\2019\Community\VC\Tools\MSVC\14.29.30133\atlmfc\include\afxwin2.inl
; File D:\git\src\IBK\IBK_DRFN\ProjSrc\SrcChartEx\ChartAddIn\ChartDesignPropertyAddIn\ChartDesignPropertyAddIn\DialogExpander.cpp
; File C:\Program Files (x86)\Microsoft Visual Studio\2019\Community\VC\Tools\MSVC\14.29.30133\atlmfc\include\afxwin2.inl
; File D:\git\src\IBK\IBK_DRFN\ProjSrc\SrcChartEx\ChartAddIn\ChartDesignPropertyAddIn\ChartDesignPropertyAddIn\DialogExpander.cpp
; File C:\Program Files (x86)\Microsoft Visual Studio\2019\Community\VC\Tools\MSVC\14.29.30133\atlmfc\include\afxwin2.inl
; File D:\git\src\IBK\IBK_DRFN\ProjSrc\SrcChartEx\ChartAddIn\ChartDesignPropertyAddIn\ChartDesignPropertyAddIn\DialogExpander.cpp
; File C:\Program Files (x86)\Microsoft Visual Studio\2019\Community\VC\Tools\MSVC\14.29.30133\atlmfc\include\atltypes.h
; File C:\Program Files (x86)\Microsoft Visual Studio\2019\Community\VC\Tools\MSVC\14.29.30133\atlmfc\include\afxwin2.inl
; File D:\git\src\IBK\IBK_DRFN\ProjSrc\SrcChartEx\ChartAddIn\ChartDesignPropertyAddIn\ChartDesignPropertyAddIn\DialogExpander.cpp
; File C:\Program Files (x86)\Microsoft Visual Studio\2019\Community\VC\Tools\MSVC\14.29.30133\atlmfc\include\afxwin2.inl
; File D:\git\src\IBK\IBK_DRFN\ProjSrc\SrcChartEx\ChartAddIn\ChartDesignPropertyAddIn\ChartDesignPropertyAddIn\DialogExpander.cpp
; File C:\Program Files (x86)\Microsoft Visual Studio\2019\Community\VC\Tools\MSVC\14.29.30133\atlmfc\include\afxwin2.inl
; File D:\git\src\IBK\IBK_DRFN\ProjSrc\SrcChartEx\ChartAddIn\ChartDesignPropertyAddIn\ChartDesignPropertyAddIn\DialogExpander.cpp
; File C:\Program Files (x86)\Microsoft Visual Studio\2019\Community\VC\Tools\MSVC\14.29.30133\atlmfc\include\atltypes.h
; File D:\git\src\IBK\IBK_DRFN\ProjSrc\SrcChartEx\ChartAddIn\ChartDesignPropertyAddIn\ChartDesignPropertyAddIn\DialogExpander.cpp
; File C:\Program Files (x86)\Microsoft Visual Studio\2019\Community\VC\Tools\MSVC\14.29.30133\atlmfc\include\atltypes.h
; File D:\git\src\IBK\IBK_DRFN\ProjSrc\SrcChartEx\ChartAddIn\ChartDesignPropertyAddIn\ChartDesignPropertyAddIn\DialogExpander.cpp
;	COMDAT ?OnExpandButton@CExpandDialog@@QAEX_N@Z
_TEXT	SEGMENT
_pDlg$1$ = -56						; size = 4
_clientrect$1 = -52					; size = 16
_markrect$2 = -36					; size = 16
_dlgrect$3 = -20					; size = 16
_rect$4 = -20						; size = 16
__$ArrayPad$ = -4					; size = 4
_m_bIsExpanded$ = 8					; size = 1
?OnExpandButton@CExpandDialog@@QAEX_N@Z PROC		; CExpandDialog::OnExpandButton, COMDAT
; _this$ = ecx

; 68   : {

  00000	55		 push	 ebp
  00001	8b ec		 mov	 ebp, esp
  00003	83 ec 38	 sub	 esp, 56			; 00000038H
  00006	a1 00 00 00 00	 mov	 eax, DWORD PTR ___security_cookie
  0000b	33 c5		 xor	 eax, ebp
  0000d	89 45 fc	 mov	 DWORD PTR __$ArrayPad$[ebp], eax

; 69   :   ASSERT(m_bIsInitialized);
; 70   : 
; 71   :   // m_bIsExpanded = !m_bIsExpanded ;	
; 72   : 
; 73   :   if (m_bIsExpanded)

  00010	80 7d 08 00	 cmp	 BYTE PTR _m_bIsExpanded$[ebp], 0
  00014	53		 push	 ebx
  00015	56		 push	 esi
  00016	57		 push	 edi
  00017	8b d9		 mov	 ebx, ecx
  00019	74 44		 je	 SHORT $LN2@OnExpandBu
; File C:\Program Files (x86)\Microsoft Visual Studio\2019\Community\VC\Tools\MSVC\14.29.30133\atlmfc\include\afxwin2.inl

; 84   : 	{ ASSERT(::IsWindow(m_hWnd)); ::GetWindowRect(m_hWnd, lpRect); }

  0001b	8d 45 ec	 lea	 eax, DWORD PTR _rect$4[ebp]
  0001e	0f 57 c0	 xorps	 xmm0, xmm0
  00021	50		 push	 eax
  00022	8b 43 0c	 mov	 eax, DWORD PTR [ebx+12]
; File C:\Program Files (x86)\Microsoft Visual Studio\2019\Community\VC\Tools\MSVC\14.29.30133\atlmfc\include\atltypes.h

; 528  : 	left = 0;

  00025	0f 11 45 ec	 movups	 XMMWORD PTR _rect$4[ebp], xmm0
; File C:\Program Files (x86)\Microsoft Visual Studio\2019\Community\VC\Tools\MSVC\14.29.30133\atlmfc\include\afxwin2.inl

; 84   : 	{ ASSERT(::IsWindow(m_hWnd)); ::GetWindowRect(m_hWnd, lpRect); }

  00029	ff 70 20	 push	 DWORD PTR [eax+32]
  0002c	ff 15 00 00 00
	00		 call	 DWORD PTR __imp__GetWindowRect@8
; File C:\Program Files (x86)\Microsoft Visual Studio\2019\Community\VC\Tools\MSVC\14.29.30133\atlmfc\include\atltypes.h

; 581  : 	return bottom - top;

  00032	8b 73 20	 mov	 esi, DWORD PTR [ebx+32]
  00035	2b 73 18	 sub	 esi, DWORD PTR [ebx+24]
; File D:\git\src\IBK\IBK_DRFN\ProjSrc\SrcChartEx\ChartAddIn\ChartDesignPropertyAddIn\ChartDesignPropertyAddIn\DialogExpander.cpp

; 78   : 	rect.bottom = rect.top + m_dialogrect.Height() ;

  00038	8b 7d f0	 mov	 edi, DWORD PTR _rect$4[ebp+4]
  0003b	03 f7		 add	 esi, edi
; File C:\Program Files (x86)\Microsoft Visual Studio\2019\Community\VC\Tools\MSVC\14.29.30133\atlmfc\include\atltypes.h

; 576  : 	return right - left;

  0003d	8b 43 1c	 mov	 eax, DWORD PTR [ebx+28]
  00040	2b 43 14	 sub	 eax, DWORD PTR [ebx+20]
; File D:\git\src\IBK\IBK_DRFN\ProjSrc\SrcChartEx\ChartAddIn\ChartDesignPropertyAddIn\ChartDesignPropertyAddIn\DialogExpander.cpp

; 79   : 	rect.right = rect.left + m_dialogrect.Width() ;

  00043	8b 55 ec	 mov	 edx, DWORD PTR _rect$4[ebp]
  00046	03 c2		 add	 eax, edx
; File C:\Program Files (x86)\Microsoft Visual Studio\2019\Community\VC\Tools\MSVC\14.29.30133\atlmfc\include\afxwin2.inl

; 73   : 	{ MoveWindow(lpRect->left, lpRect->top, lpRect->right - lpRect->left,

  00048	8b 4b 0c	 mov	 ecx, DWORD PTR [ebx+12]
  0004b	6a 01		 push	 1
; File D:\git\src\IBK\IBK_DRFN\ProjSrc\SrcChartEx\ChartAddIn\ChartDesignPropertyAddIn\ChartDesignPropertyAddIn\DialogExpander.cpp

; 78   : 	rect.bottom = rect.top + m_dialogrect.Height() ;

  0004d	89 75 f8	 mov	 DWORD PTR _rect$4[ebp+12], esi
; File C:\Program Files (x86)\Microsoft Visual Studio\2019\Community\VC\Tools\MSVC\14.29.30133\atlmfc\include\afxwin2.inl

; 73   : 	{ MoveWindow(lpRect->left, lpRect->top, lpRect->right - lpRect->left,

  00050	2b f7		 sub	 esi, edi
; File D:\git\src\IBK\IBK_DRFN\ProjSrc\SrcChartEx\ChartAddIn\ChartDesignPropertyAddIn\ChartDesignPropertyAddIn\DialogExpander.cpp

; 79   : 	rect.right = rect.left + m_dialogrect.Width() ;

  00052	89 45 f4	 mov	 DWORD PTR _rect$4[ebp+8], eax
; File C:\Program Files (x86)\Microsoft Visual Studio\2019\Community\VC\Tools\MSVC\14.29.30133\atlmfc\include\afxwin2.inl

; 73   : 	{ MoveWindow(lpRect->left, lpRect->top, lpRect->right - lpRect->left,

  00055	2b c2		 sub	 eax, edx
  00057	56		 push	 esi
  00058	50		 push	 eax
  00059	57		 push	 edi
; File D:\git\src\IBK\IBK_DRFN\ProjSrc\SrcChartEx\ChartAddIn\ChartDesignPropertyAddIn\ChartDesignPropertyAddIn\DialogExpander.cpp

; 81   :   }

  0005a	e9 89 00 00 00	 jmp	 $LN37@OnExpandBu
$LN2@OnExpandBu:

; 82   :   else
; 83   : 	ShrinkDialog(m_pDialog, m_IdCollapsedMark ) ;

  0005f	8b 73 0c	 mov	 esi, DWORD PTR [ebx+12]

; 16   :   CWnd *pWndMark = pDlg->GetDlgItem(idmark);

  00062	8b ce		 mov	 ecx, esi
  00064	ff 73 08	 push	 DWORD PTR [ebx+8]

; 82   :   else
; 83   : 	ShrinkDialog(m_pDialog, m_IdCollapsedMark ) ;

  00067	89 75 c8	 mov	 DWORD PTR _pDlg$1$[ebp], esi

; 16   :   CWnd *pWndMark = pDlg->GetDlgItem(idmark);

  0006a	e8 00 00 00 00	 call	 ?GetDlgItem@CWnd@@QBEPAV1@H@Z ; CWnd::GetDlgItem
; File C:\Program Files (x86)\Microsoft Visual Studio\2019\Community\VC\Tools\MSVC\14.29.30133\atlmfc\include\afxwin2.inl

; 213  : 	{ ASSERT(::IsWindow(m_hWnd)); return CWnd::FromHandle(::GetParent(m_hWnd)); }

  0006f	ff 76 20	 push	 DWORD PTR [esi+32]
  00072	0f 57 c0	 xorps	 xmm0, xmm0
; File D:\git\src\IBK\IBK_DRFN\ProjSrc\SrcChartEx\ChartAddIn\ChartDesignPropertyAddIn\ChartDesignPropertyAddIn\DialogExpander.cpp

; 16   :   CWnd *pWndMark = pDlg->GetDlgItem(idmark);

  00075	8b d8		 mov	 ebx, eax
; File C:\Program Files (x86)\Microsoft Visual Studio\2019\Community\VC\Tools\MSVC\14.29.30133\atlmfc\include\atltypes.h

; 528  : 	left = 0;

  00077	0f 11 45 dc	 movups	 XMMWORD PTR _markrect$2[ebp], xmm0
  0007b	0f 11 45 ec	 movups	 XMMWORD PTR _dlgrect$3[ebp], xmm0
  0007f	0f 11 45 cc	 movups	 XMMWORD PTR _clientrect$1[ebp], xmm0
; File C:\Program Files (x86)\Microsoft Visual Studio\2019\Community\VC\Tools\MSVC\14.29.30133\atlmfc\include\afxwin2.inl

; 213  : 	{ ASSERT(::IsWindow(m_hWnd)); return CWnd::FromHandle(::GetParent(m_hWnd)); }

  00083	ff 15 00 00 00
	00		 call	 DWORD PTR __imp__GetParent@4
  00089	50		 push	 eax
  0008a	e8 00 00 00 00	 call	 ?FromHandle@CWnd@@SGPAV1@PAUHWND__@@@Z ; CWnd::FromHandle

; 86   : 	{ ASSERT(::IsWindow(m_hWnd)); ::GetClientRect(m_hWnd, lpRect); }

  0008f	8d 45 cc	 lea	 eax, DWORD PTR _clientrect$1[ebp]
  00092	50		 push	 eax
  00093	ff 76 20	 push	 DWORD PTR [esi+32]
  00096	ff 15 00 00 00
	00		 call	 DWORD PTR __imp__GetClientRect@8

; 84   : 	{ ASSERT(::IsWindow(m_hWnd)); ::GetWindowRect(m_hWnd, lpRect); }

  0009c	8d 45 ec	 lea	 eax, DWORD PTR _dlgrect$3[ebp]
  0009f	50		 push	 eax
  000a0	ff 76 20	 push	 DWORD PTR [esi+32]
  000a3	8b 35 00 00 00
	00		 mov	 esi, DWORD PTR __imp__GetWindowRect@8
  000a9	ff d6		 call	 esi
; File D:\git\src\IBK\IBK_DRFN\ProjSrc\SrcChartEx\ChartAddIn\ChartDesignPropertyAddIn\ChartDesignPropertyAddIn\DialogExpander.cpp

; 28   :   offset = dlgrect.Height() - clientrect.bottom ;

  000ab	8b 7d f8	 mov	 edi, DWORD PTR _dlgrect$3[ebp+12]
; File C:\Program Files (x86)\Microsoft Visual Studio\2019\Community\VC\Tools\MSVC\14.29.30133\atlmfc\include\afxwin2.inl

; 84   : 	{ ASSERT(::IsWindow(m_hWnd)); ::GetWindowRect(m_hWnd, lpRect); }

  000ae	8d 45 dc	 lea	 eax, DWORD PTR _markrect$2[ebp]
; File D:\git\src\IBK\IBK_DRFN\ProjSrc\SrcChartEx\ChartAddIn\ChartDesignPropertyAddIn\ChartDesignPropertyAddIn\DialogExpander.cpp

; 28   :   offset = dlgrect.Height() - clientrect.bottom ;

  000b1	2b 7d f0	 sub	 edi, DWORD PTR _dlgrect$3[ebp+4]
  000b4	2b 7d d8	 sub	 edi, DWORD PTR _clientrect$1[ebp+12]
; File C:\Program Files (x86)\Microsoft Visual Studio\2019\Community\VC\Tools\MSVC\14.29.30133\atlmfc\include\afxwin2.inl

; 84   : 	{ ASSERT(::IsWindow(m_hWnd)); ::GetWindowRect(m_hWnd, lpRect); }

  000b7	50		 push	 eax
  000b8	ff 73 20	 push	 DWORD PTR [ebx+32]
  000bb	ff d6		 call	 esi
; File D:\git\src\IBK\IBK_DRFN\ProjSrc\SrcChartEx\ChartAddIn\ChartDesignPropertyAddIn\ChartDesignPropertyAddIn\DialogExpander.cpp

; 33   :   pDlg->ScreenToClient(&markrect) ;

  000bd	8b 4d c8	 mov	 ecx, DWORD PTR _pDlg$1$[ebp]
  000c0	8d 45 dc	 lea	 eax, DWORD PTR _markrect$2[ebp]
  000c3	50		 push	 eax
  000c4	e8 00 00 00 00	 call	 ?ScreenToClient@CWnd@@QBEXPAUtagRECT@@@Z ; CWnd::ScreenToClient

; 36   :   dlgrect.bottom = dlgrect.top + markrect.bottom + offset;

  000c9	8b 75 f0	 mov	 esi, DWORD PTR _dlgrect$3[ebp+4]
  000cc	8b 45 e8	 mov	 eax, DWORD PTR _markrect$2[ebp+12]
; File C:\Program Files (x86)\Microsoft Visual Studio\2019\Community\VC\Tools\MSVC\14.29.30133\atlmfc\include\atltypes.h

; 576  : 	return right - left;

  000cf	8b 55 ec	 mov	 edx, DWORD PTR _dlgrect$3[ebp]
; File D:\git\src\IBK\IBK_DRFN\ProjSrc\SrcChartEx\ChartAddIn\ChartDesignPropertyAddIn\ChartDesignPropertyAddIn\DialogExpander.cpp

; 36   :   dlgrect.bottom = dlgrect.top + markrect.bottom + offset;

  000d2	03 c6		 add	 eax, esi

; 38   :   pDlg->MoveWindow (dlgrect.left, dlgrect.top, dlgrect.Width(), dlgrect.Height()) ;

  000d4	8b 4d c8	 mov	 ecx, DWORD PTR _pDlg$1$[ebp]
  000d7	03 c7		 add	 eax, edi
  000d9	89 45 f8	 mov	 DWORD PTR _dlgrect$3[ebp+12], eax
  000dc	2b c6		 sub	 eax, esi
  000de	6a 01		 push	 1
  000e0	50		 push	 eax
; File C:\Program Files (x86)\Microsoft Visual Studio\2019\Community\VC\Tools\MSVC\14.29.30133\atlmfc\include\atltypes.h

; 576  : 	return right - left;

  000e1	8b 45 f4	 mov	 eax, DWORD PTR _dlgrect$3[ebp+8]
  000e4	2b c2		 sub	 eax, edx
; File D:\git\src\IBK\IBK_DRFN\ProjSrc\SrcChartEx\ChartAddIn\ChartDesignPropertyAddIn\ChartDesignPropertyAddIn\DialogExpander.cpp

; 38   :   pDlg->MoveWindow (dlgrect.left, dlgrect.top, dlgrect.Width(), dlgrect.Height()) ;

  000e6	50		 push	 eax
  000e7	56		 push	 esi
$LN37@OnExpandBu:

; 84   : }

  000e8	52		 push	 edx
  000e9	e8 00 00 00 00	 call	 ?MoveWindow@CWnd@@QAEXHHHHH@Z ; CWnd::MoveWindow
  000ee	8b 4d fc	 mov	 ecx, DWORD PTR __$ArrayPad$[ebp]
  000f1	5f		 pop	 edi
  000f2	5e		 pop	 esi
  000f3	33 cd		 xor	 ecx, ebp
  000f5	5b		 pop	 ebx
  000f6	e8 00 00 00 00	 call	 @__security_check_cookie@4
  000fb	8b e5		 mov	 esp, ebp
  000fd	5d		 pop	 ebp
  000fe	c2 04 00	 ret	 4
?OnExpandButton@CExpandDialog@@QAEX_N@Z ENDP		; CExpandDialog::OnExpandButton
_TEXT	ENDS
; Function compile flags: /Ogtp
; File D:\git\src\IBK\IBK_DRFN\ProjSrc\SrcChartEx\ChartAddIn\ChartDesignPropertyAddIn\ChartDesignPropertyAddIn\DialogExpander.cpp
; File C:\Program Files (x86)\Microsoft Visual Studio\2019\Community\VC\Tools\MSVC\14.29.30133\atlmfc\include\afxwin2.inl
; File D:\git\src\IBK\IBK_DRFN\ProjSrc\SrcChartEx\ChartAddIn\ChartDesignPropertyAddIn\ChartDesignPropertyAddIn\DialogExpander.cpp
; File C:\Program Files (x86)\Microsoft Visual Studio\2019\Community\VC\Tools\MSVC\14.29.30133\atlmfc\include\afxwin2.inl
; File D:\git\src\IBK\IBK_DRFN\ProjSrc\SrcChartEx\ChartAddIn\ChartDesignPropertyAddIn\ChartDesignPropertyAddIn\DialogExpander.cpp
; File C:\Program Files (x86)\Microsoft Visual Studio\2019\Community\VC\Tools\MSVC\14.29.30133\atlmfc\include\afxwin2.inl
; File D:\git\src\IBK\IBK_DRFN\ProjSrc\SrcChartEx\ChartAddIn\ChartDesignPropertyAddIn\ChartDesignPropertyAddIn\DialogExpander.cpp
; File C:\Program Files (x86)\Microsoft Visual Studio\2019\Community\VC\Tools\MSVC\14.29.30133\atlmfc\include\afxwin2.inl
; File C:\Program Files (x86)\Microsoft Visual Studio\2019\Community\VC\Tools\MSVC\14.29.30133\atlmfc\include\atltypes.h
; File C:\Program Files (x86)\Microsoft Visual Studio\2019\Community\VC\Tools\MSVC\14.29.30133\atlmfc\include\afxwin2.inl
; File C:\Program Files (x86)\Microsoft Visual Studio\2019\Community\VC\Tools\MSVC\14.29.30133\atlmfc\include\atltypes.h
; File D:\git\src\IBK\IBK_DRFN\ProjSrc\SrcChartEx\ChartAddIn\ChartDesignPropertyAddIn\ChartDesignPropertyAddIn\DialogExpander.cpp
; File C:\Program Files (x86)\Microsoft Visual Studio\2019\Community\VC\Tools\MSVC\14.29.30133\atlmfc\include\atltypes.h
; File D:\git\src\IBK\IBK_DRFN\ProjSrc\SrcChartEx\ChartAddIn\ChartDesignPropertyAddIn\ChartDesignPropertyAddIn\DialogExpander.cpp
; File C:\Program Files (x86)\Microsoft Visual Studio\2019\Community\VC\Tools\MSVC\14.29.30133\atlmfc\include\atltypes.h
; File D:\git\src\IBK\IBK_DRFN\ProjSrc\SrcChartEx\ChartAddIn\ChartDesignPropertyAddIn\ChartDesignPropertyAddIn\DialogExpander.cpp
; File C:\Program Files (x86)\Microsoft Visual Studio\2019\Community\VC\Tools\MSVC\14.29.30133\atlmfc\include\afxwin2.inl
; File D:\git\src\IBK\IBK_DRFN\ProjSrc\SrcChartEx\ChartAddIn\ChartDesignPropertyAddIn\ChartDesignPropertyAddIn\DialogExpander.cpp
; File C:\Program Files (x86)\Microsoft Visual Studio\2019\Community\VC\Tools\MSVC\14.29.30133\atlmfc\include\afxwin2.inl
; File D:\git\src\IBK\IBK_DRFN\ProjSrc\SrcChartEx\ChartAddIn\ChartDesignPropertyAddIn\ChartDesignPropertyAddIn\DialogExpander.cpp
;	COMDAT ?Initialize@CExpandDialog@@QAEXPAVCWnd@@HH@Z
_TEXT	SEGMENT
_rect$1 = -20						; size = 16
__$ArrayPad$ = -4					; size = 4
_pDialog$ = 8						; size = 4
_bInitiallyExpanded$ = 12				; size = 4
_IdCollapsedMark$ = 16					; size = 4
?Initialize@CExpandDialog@@QAEXPAVCWnd@@HH@Z PROC	; CExpandDialog::Initialize, COMDAT
; _this$ = ecx

; 49   : {

  00000	55		 push	 ebp
  00001	8b ec		 mov	 ebp, esp
  00003	83 ec 14	 sub	 esp, 20			; 00000014H
  00006	a1 00 00 00 00	 mov	 eax, DWORD PTR ___security_cookie
  0000b	33 c5		 xor	 eax, ebp
  0000d	89 45 fc	 mov	 DWORD PTR __$ArrayPad$[ebp], eax

; 50   :   m_IdCollapsedMark = IdCollapsedMark;

  00010	8b 45 10	 mov	 eax, DWORD PTR _IdCollapsedMark$[ebp]
  00013	53		 push	 ebx
  00014	56		 push	 esi
; File C:\Program Files (x86)\Microsoft Visual Studio\2019\Community\VC\Tools\MSVC\14.29.30133\atlmfc\include\afxwin2.inl

; 84   : 	{ ASSERT(::IsWindow(m_hWnd)); ::GetWindowRect(m_hWnd, lpRect); }

  00015	8b 35 00 00 00
	00		 mov	 esi, DWORD PTR __imp__GetWindowRect@8
; File D:\git\src\IBK\IBK_DRFN\ProjSrc\SrcChartEx\ChartAddIn\ChartDesignPropertyAddIn\ChartDesignPropertyAddIn\DialogExpander.cpp

; 49   : {

  0001b	57		 push	 edi
  0001c	8b f9		 mov	 edi, ecx

; 50   :   m_IdCollapsedMark = IdCollapsedMark;

  0001e	89 47 08	 mov	 DWORD PTR [edi+8], eax

; 53   : //  m_bIsExpanded = TRUE ;
; 54   : 
; 55   :   m_pDialog->GetWindowRect(&m_dialogrect) ;	  // rectangle of the dialog window

  00021	8d 5f 14	 lea	 ebx, DWORD PTR [edi+20]
  00024	8b 45 08	 mov	 eax, DWORD PTR _pDialog$[ebp]
; File C:\Program Files (x86)\Microsoft Visual Studio\2019\Community\VC\Tools\MSVC\14.29.30133\atlmfc\include\afxwin2.inl

; 84   : 	{ ASSERT(::IsWindow(m_hWnd)); ::GetWindowRect(m_hWnd, lpRect); }

  00027	53		 push	 ebx
; File D:\git\src\IBK\IBK_DRFN\ProjSrc\SrcChartEx\ChartAddIn\ChartDesignPropertyAddIn\ChartDesignPropertyAddIn\DialogExpander.cpp

; 51   :   m_bIsInitialized = TRUE;

  00028	c7 07 01 00 00
	00		 mov	 DWORD PTR [edi], 1

; 52   :   m_pDialog = pDialog ;

  0002e	89 47 0c	 mov	 DWORD PTR [edi+12], eax
; File C:\Program Files (x86)\Microsoft Visual Studio\2019\Community\VC\Tools\MSVC\14.29.30133\atlmfc\include\afxwin2.inl

; 84   : 	{ ASSERT(::IsWindow(m_hWnd)); ::GetWindowRect(m_hWnd, lpRect); }

  00031	ff 70 20	 push	 DWORD PTR [eax+32]
  00034	ff d6		 call	 esi
; File D:\git\src\IBK\IBK_DRFN\ProjSrc\SrcChartEx\ChartAddIn\ChartDesignPropertyAddIn\ChartDesignPropertyAddIn\DialogExpander.cpp

; 57   :   CWnd *pWndMark = m_pDialog->GetDlgItem(m_IdCollapsedMark) ;

  00036	ff 77 08	 push	 DWORD PTR [edi+8]
  00039	8b 4f 0c	 mov	 ecx, DWORD PTR [edi+12]
  0003c	e8 00 00 00 00	 call	 ?GetDlgItem@CWnd@@QBEPAV1@H@Z ; CWnd::GetDlgItem

; 58   :   pWndMark->ShowWindow(SW_HIDE);	// hide the "delimiting" control

  00041	6a 00		 push	 0
  00043	8b c8		 mov	 ecx, eax
  00045	e8 00 00 00 00	 call	 ?ShowWindow@CWnd@@QAEHH@Z ; CWnd::ShowWindow

; 59   : 
; 60   :   if (bInitiallyExpanded)

  0004a	83 7d 0c 00	 cmp	 DWORD PTR _bInitiallyExpanded$[ebp], 0
  0004e	74 53		 je	 SHORT $LN2@Initialize
; File C:\Program Files (x86)\Microsoft Visual Studio\2019\Community\VC\Tools\MSVC\14.29.30133\atlmfc\include\afxwin2.inl

; 84   : 	{ ASSERT(::IsWindow(m_hWnd)); ::GetWindowRect(m_hWnd, lpRect); }

  00050	8d 45 ec	 lea	 eax, DWORD PTR _rect$1[ebp]
  00053	0f 57 c0	 xorps	 xmm0, xmm0
  00056	50		 push	 eax
  00057	8b 47 0c	 mov	 eax, DWORD PTR [edi+12]
; File C:\Program Files (x86)\Microsoft Visual Studio\2019\Community\VC\Tools\MSVC\14.29.30133\atlmfc\include\atltypes.h

; 528  : 	left = 0;

  0005a	0f 11 45 ec	 movups	 XMMWORD PTR _rect$1[ebp], xmm0
; File C:\Program Files (x86)\Microsoft Visual Studio\2019\Community\VC\Tools\MSVC\14.29.30133\atlmfc\include\afxwin2.inl

; 84   : 	{ ASSERT(::IsWindow(m_hWnd)); ::GetWindowRect(m_hWnd, lpRect); }

  0005e	ff 70 20	 push	 DWORD PTR [eax+32]
  00061	ff d6		 call	 esi
; File C:\Program Files (x86)\Microsoft Visual Studio\2019\Community\VC\Tools\MSVC\14.29.30133\atlmfc\include\atltypes.h

; 581  : 	return bottom - top;

  00063	8b 57 20	 mov	 edx, DWORD PTR [edi+32]
  00066	2b 57 18	 sub	 edx, DWORD PTR [edi+24]
; File D:\git\src\IBK\IBK_DRFN\ProjSrc\SrcChartEx\ChartAddIn\ChartDesignPropertyAddIn\ChartDesignPropertyAddIn\DialogExpander.cpp

; 78   : 	rect.bottom = rect.top + m_dialogrect.Height() ;

  00069	8b 75 f0	 mov	 esi, DWORD PTR _rect$1[ebp+4]
  0006c	03 d6		 add	 edx, esi
; File C:\Program Files (x86)\Microsoft Visual Studio\2019\Community\VC\Tools\MSVC\14.29.30133\atlmfc\include\atltypes.h

; 576  : 	return right - left;

  0006e	8b 43 08	 mov	 eax, DWORD PTR [ebx+8]
; File D:\git\src\IBK\IBK_DRFN\ProjSrc\SrcChartEx\ChartAddIn\ChartDesignPropertyAddIn\ChartDesignPropertyAddIn\DialogExpander.cpp

; 79   : 	rect.right = rect.left + m_dialogrect.Width() ;

  00071	8b 4d ec	 mov	 ecx, DWORD PTR _rect$1[ebp]
; File C:\Program Files (x86)\Microsoft Visual Studio\2019\Community\VC\Tools\MSVC\14.29.30133\atlmfc\include\atltypes.h

; 576  : 	return right - left;

  00074	2b 03		 sub	 eax, DWORD PTR [ebx]
; File D:\git\src\IBK\IBK_DRFN\ProjSrc\SrcChartEx\ChartAddIn\ChartDesignPropertyAddIn\ChartDesignPropertyAddIn\DialogExpander.cpp

; 79   : 	rect.right = rect.left + m_dialogrect.Width() ;

  00076	03 c1		 add	 eax, ecx
  00078	89 55 f8	 mov	 DWORD PTR _rect$1[ebp+12], edx
; File C:\Program Files (x86)\Microsoft Visual Studio\2019\Community\VC\Tools\MSVC\14.29.30133\atlmfc\include\afxwin2.inl

; 73   : 	{ MoveWindow(lpRect->left, lpRect->top, lpRect->right - lpRect->left,

  0007b	6a 01		 push	 1
  0007d	2b d6		 sub	 edx, esi
; File D:\git\src\IBK\IBK_DRFN\ProjSrc\SrcChartEx\ChartAddIn\ChartDesignPropertyAddIn\ChartDesignPropertyAddIn\DialogExpander.cpp

; 79   : 	rect.right = rect.left + m_dialogrect.Width() ;

  0007f	89 45 f4	 mov	 DWORD PTR _rect$1[ebp+8], eax
; File C:\Program Files (x86)\Microsoft Visual Studio\2019\Community\VC\Tools\MSVC\14.29.30133\atlmfc\include\afxwin2.inl

; 73   : 	{ MoveWindow(lpRect->left, lpRect->top, lpRect->right - lpRect->left,

  00082	52		 push	 edx
  00083	2b c1		 sub	 eax, ecx
  00085	50		 push	 eax
  00086	56		 push	 esi
  00087	51		 push	 ecx
  00088	8b 4f 0c	 mov	 ecx, DWORD PTR [edi+12]
  0008b	e8 00 00 00 00	 call	 ?MoveWindow@CWnd@@QAEXHHHHH@Z ; CWnd::MoveWindow
  00090	5f		 pop	 edi
; File D:\git\src\IBK\IBK_DRFN\ProjSrc\SrcChartEx\ChartAddIn\ChartDesignPropertyAddIn\ChartDesignPropertyAddIn\DialogExpander.cpp

; 64   : }

  00091	5e		 pop	 esi
  00092	5b		 pop	 ebx
  00093	8b 4d fc	 mov	 ecx, DWORD PTR __$ArrayPad$[ebp]
  00096	33 cd		 xor	 ecx, ebp
  00098	e8 00 00 00 00	 call	 @__security_check_cookie@4
  0009d	8b e5		 mov	 esp, ebp
  0009f	5d		 pop	 ebp
  000a0	c2 0c 00	 ret	 12			; 0000000cH
$LN2@Initialize:

; 61   : 	OnExpandButton(true);
; 62   :   else
; 63   : 	OnExpandButton(false);

  000a3	6a 00		 push	 0
  000a5	8b cf		 mov	 ecx, edi
  000a7	e8 00 00 00 00	 call	 ?OnExpandButton@CExpandDialog@@QAEX_N@Z ; CExpandDialog::OnExpandButton

; 64   : }

  000ac	8b 4d fc	 mov	 ecx, DWORD PTR __$ArrayPad$[ebp]
  000af	5f		 pop	 edi
  000b0	5e		 pop	 esi
  000b1	33 cd		 xor	 ecx, ebp
  000b3	5b		 pop	 ebx
  000b4	e8 00 00 00 00	 call	 @__security_check_cookie@4
  000b9	8b e5		 mov	 esp, ebp
  000bb	5d		 pop	 ebp
  000bc	c2 0c 00	 ret	 12			; 0000000cH
?Initialize@CExpandDialog@@QAEXPAVCWnd@@HH@Z ENDP	; CExpandDialog::Initialize
_TEXT	ENDS
; Function compile flags: /Ogtp
; File D:\git\src\IBK\IBK_DRFN\ProjSrc\SrcChartEx\ChartAddIn\ChartDesignPropertyAddIn\ChartDesignPropertyAddIn\DialogExpander.cpp
; File C:\Program Files (x86)\Microsoft Visual Studio\2019\Community\VC\Tools\MSVC\14.29.30133\atlmfc\include\atltypes.h
; File D:\git\src\IBK\IBK_DRFN\ProjSrc\SrcChartEx\ChartAddIn\ChartDesignPropertyAddIn\ChartDesignPropertyAddIn\DialogExpander.cpp
; File C:\Program Files (x86)\Microsoft Visual Studio\2019\Community\VC\Tools\MSVC\14.29.30133\atlmfc\include\atltypes.h
; File D:\git\src\IBK\IBK_DRFN\ProjSrc\SrcChartEx\ChartAddIn\ChartDesignPropertyAddIn\ChartDesignPropertyAddIn\DialogExpander.cpp
;	COMDAT ??0CExpandDialog@@QAE@XZ
_TEXT	SEGMENT
_this$ = -4						; size = 4
??0CExpandDialog@@QAE@XZ PROC				; CExpandDialog::CExpandDialog, COMDAT
; _this$ = ecx

; 42   : {

  00000	55		 push	 ebp
  00001	8b ec		 mov	 ebp, esp
  00003	51		 push	 ecx
  00004	56		 push	 esi
  00005	8b f1		 mov	 esi, ecx
  00007	89 75 fc	 mov	 DWORD PTR _this$[ebp], esi
  0000a	8d 4e 10	 lea	 ecx, DWORD PTR [esi+16]
  0000d	ff 15 00 00 00
	00		 call	 DWORD PTR __imp_??0?$CStringT@DV?$StrTraitMFC_DLL@DV?$ChTraitsCRT@D@ATL@@@@@ATL@@QAE@XZ
; File C:\Program Files (x86)\Microsoft Visual Studio\2019\Community\VC\Tools\MSVC\14.29.30133\atlmfc\include\atltypes.h

; 528  : 	left = 0;

  00013	c7 46 14 00 00
	00 00		 mov	 DWORD PTR [esi+20], 0
; File D:\git\src\IBK\IBK_DRFN\ProjSrc\SrcChartEx\ChartAddIn\ChartDesignPropertyAddIn\ChartDesignPropertyAddIn\DialogExpander.cpp

; 44   : }

  0001a	8b c6		 mov	 eax, esi
; File C:\Program Files (x86)\Microsoft Visual Studio\2019\Community\VC\Tools\MSVC\14.29.30133\atlmfc\include\atltypes.h

; 529  : 	top = 0;

  0001c	c7 46 18 00 00
	00 00		 mov	 DWORD PTR [esi+24], 0

; 530  : 	right = 0;

  00023	c7 46 1c 00 00
	00 00		 mov	 DWORD PTR [esi+28], 0

; 531  : 	bottom = 0;

  0002a	c7 46 20 00 00
	00 00		 mov	 DWORD PTR [esi+32], 0
; File D:\git\src\IBK\IBK_DRFN\ProjSrc\SrcChartEx\ChartAddIn\ChartDesignPropertyAddIn\ChartDesignPropertyAddIn\DialogExpander.cpp

; 43   :   m_bIsInitialized = FALSE ;

  00031	c7 06 00 00 00
	00		 mov	 DWORD PTR [esi], 0

; 44   : }

  00037	5e		 pop	 esi
  00038	8b e5		 mov	 esp, ebp
  0003a	5d		 pop	 ebp
  0003b	c3		 ret	 0
??0CExpandDialog@@QAE@XZ ENDP				; CExpandDialog::CExpandDialog
_TEXT	ENDS
; Function compile flags: /Ogtp
; File D:\git\src\IBK\IBK_DRFN\ProjSrc\SrcChartEx\ChartAddIn\ChartDesignPropertyAddIn\ChartDesignPropertyAddIn\DialogExpander.cpp
;	COMDAT ?__empty_global_delete@@YAXPAXI@Z
_TEXT	SEGMENT
___formal$ = 8						; size = 4
___formal$ = 12						; size = 4
?__empty_global_delete@@YAXPAXI@Z PROC			; __empty_global_delete, COMDAT

  00000	c2 00 00	 ret	 0
?__empty_global_delete@@YAXPAXI@Z ENDP			; __empty_global_delete
_TEXT	ENDS
; Function compile flags: /Ogtp
; File D:\git\src\IBK\IBK_DRFN\ProjSrc\SrcChartEx\ChartAddIn\ChartDesignPropertyAddIn\ChartDesignPropertyAddIn\DialogExpander.cpp
;	COMDAT ?__empty_global_delete@@YAXPAX@Z
_TEXT	SEGMENT
___formal$ = 8						; size = 4
?__empty_global_delete@@YAXPAX@Z PROC			; __empty_global_delete, COMDAT

  00000	c2 00 00	 ret	 0
?__empty_global_delete@@YAXPAX@Z ENDP			; __empty_global_delete
_TEXT	ENDS
END
