; Listing generated by Microsoft (R) Optimizing Compiler Version 19.29.30145.0 

	TITLE	D:\git\src\IBK\IBK_DRFN\#DRfn-CS\_Obj\ChartDesignPropertyAddIn\DlgGlobalLanguageTable.obj
	.686P
	.XMM
	include listing.inc
	.model	flat

INCLUDELIB MSVCRT
INCLUDELIB OLDNAMES

PUBLIC	??_C@_0CB@EFDCECKM@RMSG_EDITABLELISTCTRL_CELLEDITE@ ; `string'
PUBLIC	?g_bSortASC@@3HA				; g_bSortASC
_DATA	SEGMENT
?g_bSortASC@@3HA DD 01H					; g_bSortASC
_DATA	ENDS
;	COMDAT ??_C@_0CB@EFDCECKM@RMSG_EDITABLELISTCTRL_CELLEDITE@
CONST	SEGMENT
??_C@_0CB@EFDCECKM@RMSG_EDITABLELISTCTRL_CELLEDITE@ DB 'RMSG_EDITABLELIST'
	DB	'CTRL_CELLEDITED', 00H			; `string'
CONST	ENDS
PUBLIC	?__empty_global_delete@@YAXPAX@Z		; __empty_global_delete
PUBLIC	?__empty_global_delete@@YAXPAXI@Z		; __empty_global_delete
PUBLIC	??3CObject@@SGXPAX@Z				; CObject::operator delete
PUBLIC	?Serialize@CObject@@UAEXAAVCArchive@@@Z		; CObject::Serialize
PUBLIC	?AssertValid@CObject@@UBEXXZ			; CObject::AssertValid
PUBLIC	?Dump@CObject@@UBEXAAVCDumpContext@@@Z		; CObject::Dump
PUBLIC	?DoDataExchange@CWnd@@MAEXPAVCDataExchange@@@Z	; CWnd::DoDataExchange
PUBLIC	?BeginModalState@CWnd@@UAEXXZ			; CWnd::BeginModalState
PUBLIC	?EndModalState@CWnd@@UAEXXZ			; CWnd::EndModalState
PUBLIC	?Create@CDialog@@UAEHIPAVCWnd@@@Z		; CDialog::Create
PUBLIC	??_GCComboBox@@UAEPAXI@Z			; CComboBox::`scalar deleting destructor'
PUBLIC	??_GCListCtrl@@UAEPAXI@Z			; CListCtrl::`scalar deleting destructor'
PUBLIC	??0CDlgGlobalLanguageTable@@QAE@PAVCWnd@@@Z	; CDlgGlobalLanguageTable::CDlgGlobalLanguageTable
PUBLIC	?DoDataExchange@CDlgGlobalLanguageTable@@MAEXPAVCDataExchange@@@Z ; CDlgGlobalLanguageTable::DoDataExchange
PUBLIC	?OnInitDialog@CDlgGlobalLanguageTable@@MAEHXZ	; CDlgGlobalLanguageTable::OnInitDialog
PUBLIC	?OnSize@CDlgGlobalLanguageTable@@IAEXIHH@Z	; CDlgGlobalLanguageTable::OnSize
PUBLIC	?OnGetMinMaxInfo@CDlgGlobalLanguageTable@@IAEXPAUtagMINMAXINFO@@@Z ; CDlgGlobalLanguageTable::OnGetMinMaxInfo
PUBLIC	?OnUpdateEdtSearchText@CDlgGlobalLanguageTable@@IAEXXZ ; CDlgGlobalLanguageTable::OnUpdateEdtSearchText
PUBLIC	?OnSelchangeCmbTableType@CDlgGlobalLanguageTable@@IAEXXZ ; CDlgGlobalLanguageTable::OnSelchangeCmbTableType
PUBLIC	?OnItemchangedLstMetaTable@CDlgGlobalLanguageTable@@IAEXPAUtagNMHDR@@PAJ@Z ; CDlgGlobalLanguageTable::OnItemchangedLstMetaTable
PUBLIC	?OnDestroy@CDlgGlobalLanguageTable@@IAEXXZ	; CDlgGlobalLanguageTable::OnDestroy
PUBLIC	?OnItemclickLstMetaTable@CDlgGlobalLanguageTable@@IAEXPAUtagNMHDR@@PAJ@Z ; CDlgGlobalLanguageTable::OnItemclickLstMetaTable
PUBLIC	?GetThisMessageMap@CDlgGlobalLanguageTable@@KGPBUAFX_MSGMAP@@XZ ; CDlgGlobalLanguageTable::GetThisMessageMap
PUBLIC	?GetMessageMap@CDlgGlobalLanguageTable@@MBEPBUAFX_MSGMAP@@XZ ; CDlgGlobalLanguageTable::GetMessageMap
PUBLIC	??_GCDlgGlobalLanguageTable@@UAEPAXI@Z		; CDlgGlobalLanguageTable::`scalar deleting destructor'
PUBLIC	?SortFunc@@YGHJJJ@Z				; SortFunc
PUBLIC	??_C@_00CNPNBAHC@@				; `string'
PUBLIC	??_7CComboBox@@6B@				; CComboBox::`vftable'
PUBLIC	??_7CListCtrl@@6B@				; CListCtrl::`vftable'
PUBLIC	??_R0?AVCObject@@@8				; CObject `RTTI Type Descriptor'
PUBLIC	??_R3CObject@@8					; CObject::`RTTI Class Hierarchy Descriptor'
PUBLIC	??_R2CObject@@8					; CObject::`RTTI Base Class Array'
PUBLIC	??_R1A@?0A@EA@CObject@@8			; CObject::`RTTI Base Class Descriptor at (0,-1,0,64)'
PUBLIC	??_R1A@?0A@EA@CWnd@@8				; CWnd::`RTTI Base Class Descriptor at (0,-1,0,64)'
PUBLIC	??_R0?AVCWnd@@@8				; CWnd `RTTI Type Descriptor'
PUBLIC	??_R3CWnd@@8					; CWnd::`RTTI Class Hierarchy Descriptor'
PUBLIC	??_R2CWnd@@8					; CWnd::`RTTI Base Class Array'
PUBLIC	??_R1A@?0A@EA@CCmdTarget@@8			; CCmdTarget::`RTTI Base Class Descriptor at (0,-1,0,64)'
PUBLIC	??_R0?AVCCmdTarget@@@8				; CCmdTarget `RTTI Type Descriptor'
PUBLIC	??_R3CCmdTarget@@8				; CCmdTarget::`RTTI Class Hierarchy Descriptor'
PUBLIC	??_R2CCmdTarget@@8				; CCmdTarget::`RTTI Base Class Array'
PUBLIC	??_R4CComboBox@@6B@				; CComboBox::`RTTI Complete Object Locator'
PUBLIC	??_R0?AVCComboBox@@@8				; CComboBox `RTTI Type Descriptor'
PUBLIC	??_R3CComboBox@@8				; CComboBox::`RTTI Class Hierarchy Descriptor'
PUBLIC	??_R2CComboBox@@8				; CComboBox::`RTTI Base Class Array'
PUBLIC	??_R1A@?0A@EA@CComboBox@@8			; CComboBox::`RTTI Base Class Descriptor at (0,-1,0,64)'
PUBLIC	??_R1A@?0A@EA@CDialog@@8			; CDialog::`RTTI Base Class Descriptor at (0,-1,0,64)'
PUBLIC	??_R0?AVCDialog@@@8				; CDialog `RTTI Type Descriptor'
PUBLIC	??_R3CDialog@@8					; CDialog::`RTTI Class Hierarchy Descriptor'
PUBLIC	??_R2CDialog@@8					; CDialog::`RTTI Base Class Array'
PUBLIC	??_R4CListCtrl@@6B@				; CListCtrl::`RTTI Complete Object Locator'
PUBLIC	??_R0?AVCListCtrl@@@8				; CListCtrl `RTTI Type Descriptor'
PUBLIC	??_R3CListCtrl@@8				; CListCtrl::`RTTI Class Hierarchy Descriptor'
PUBLIC	??_R2CListCtrl@@8				; CListCtrl::`RTTI Base Class Array'
PUBLIC	??_R1A@?0A@EA@CListCtrl@@8			; CListCtrl::`RTTI Base Class Descriptor at (0,-1,0,64)'
PUBLIC	??_C@_0BB@NBLJOLNL@GetMetaTextCount@		; `string'
PUBLIC	??_C@_0BA@BCPDFAJN@GetAllMetaTexts@		; `string'
PUBLIC	??_7CDlgGlobalLanguageTable@@6B@		; CDlgGlobalLanguageTable::`vftable'
PUBLIC	??_C@_09LDGIOJFP@Meta?5Text@			; `string'
PUBLIC	??_C@_07NEKHPBCG@English@			; `string'
PUBLIC	??_C@_06OALMOPCN@Korean@			; `string'
PUBLIC	??_C@_0M@HGLBGEGA@Packet?5Name@			; `string'
PUBLIC	??_C@_0M@NKINGHGE@Graph?5Title@			; `string'
PUBLIC	??_C@_0P@LLECGGKA@Indicator?5Name@		; `string'
PUBLIC	??_C@_0P@MGDEPAED@Sub?5Graph?5Name@		; `string'
PUBLIC	??_C@_09FBPNNPKB@Tool?5Name@			; `string'
PUBLIC	??_C@_0BF@OFNIMIPE@Graph?5Type?5and?5Style@	; `string'
PUBLIC	??_C@_0BD@LBNBANAN@Scale?5Type?5and?5ETC@	; `string'
PUBLIC	??_C@_0BF@MFPJGLEF@Indicator?5Group?5Name@	; `string'
PUBLIC	??_C@_02PCIJFNDE@?$AN?6@			; `string'
PUBLIC	??_R4CDlgGlobalLanguageTable@@6B@		; CDlgGlobalLanguageTable::`RTTI Complete Object Locator'
PUBLIC	??_R0?AVCDlgGlobalLanguageTable@@@8		; CDlgGlobalLanguageTable `RTTI Type Descriptor'
PUBLIC	??_R3CDlgGlobalLanguageTable@@8			; CDlgGlobalLanguageTable::`RTTI Class Hierarchy Descriptor'
PUBLIC	??_R2CDlgGlobalLanguageTable@@8			; CDlgGlobalLanguageTable::`RTTI Base Class Array'
PUBLIC	??_R1A@?0A@EA@CDlgGlobalLanguageTable@@8	; CDlgGlobalLanguageTable::`RTTI Base Class Descriptor at (0,-1,0,64)'
EXTRN	??2@YAPAXI@Z:PROC				; operator new
EXTRN	??3@YAXPAX@Z:PROC				; operator delete
EXTRN	?__global_delete@@YAXPAXI@Z:PROC		; __global_delete
EXTRN	??_U@YAPAXI@Z:PROC				; operator new[]
EXTRN	??_V@YAXPAX@Z:PROC				; operator delete[]
EXTRN	__imp__stricmp:PROC
EXTRN	__imp__GetProcAddress@8:PROC
EXTRN	__imp__RegisterWindowMessageA@4:PROC
EXTRN	__imp__SendMessageA@16:PROC
EXTRN	__imp__IsWindow@4:PROC
EXTRN	__imp__EnableWindow@8:PROC
EXTRN	__imp__GetWindowRect@8:PROC
EXTRN	__imp__OffsetRect@12:PROC
EXTRN	?AfxThrowInvalidArgException@@YGXXZ:PROC	; AfxThrowInvalidArgException
EXTRN	__imp_??0?$CStringT@DV?$StrTraitMFC_DLL@DV?$ChTraitsCRT@D@ATL@@@@@ATL@@QAE@XZ:PROC
EXTRN	__imp_??1?$CStringT@DV?$StrTraitMFC_DLL@DV?$ChTraitsCRT@D@ATL@@@@@ATL@@QAE@XZ:PROC
EXTRN	__imp_??4?$CStringT@DV?$StrTraitMFC_DLL@DV?$ChTraitsCRT@D@ATL@@@@@ATL@@QAEAAV01@ABV01@@Z:PROC
EXTRN	__imp_??4?$CStringT@DV?$StrTraitMFC_DLL@DV?$ChTraitsCRT@D@ATL@@@@@ATL@@QAEAAV01@PBD@Z:PROC
EXTRN	__imp_?Replace@?$CStringT@DV?$StrTraitMFC_DLL@DV?$ChTraitsCRT@D@ATL@@@@@ATL@@QAEHPBD0@Z:PROC
EXTRN	__imp_?Find@?$CStringT@DV?$StrTraitMFC_DLL@DV?$ChTraitsCRT@D@ATL@@@@@ATL@@QBEHPBDH@Z:PROC
EXTRN	__imp_?MakeLower@?$CStringT@DV?$StrTraitMFC_DLL@DV?$ChTraitsCRT@D@ATL@@@@@ATL@@QAEAAV12@XZ:PROC
EXTRN	??0CStringArray@@QAE@XZ:PROC			; CStringArray::CStringArray
EXTRN	?SetSize@CStringArray@@QAEXHH@Z:PROC		; CStringArray::SetSize
EXTRN	?DDX_Control@@YGXPAVCDataExchange@@HAAVCWnd@@@Z:PROC ; DDX_Control
EXTRN	?OnCmdMsg@CCmdTarget@@UAEHIHPAXPAUAFX_CMDHANDLERINFO@@@Z:PROC ; CCmdTarget::OnCmdMsg
EXTRN	?IsInvokeAllowed@CCmdTarget@@UAEHJ@Z:PROC	; CCmdTarget::IsInvokeAllowed
EXTRN	?GetDispatchIID@CCmdTarget@@UAEHPAU_GUID@@@Z:PROC ; CCmdTarget::GetDispatchIID
EXTRN	?GetTypeInfoCount@CCmdTarget@@UAEIXZ:PROC	; CCmdTarget::GetTypeInfoCount
EXTRN	?GetTypeLibCache@CCmdTarget@@UAEPAVCTypeLibCache@@XZ:PROC ; CCmdTarget::GetTypeLibCache
EXTRN	?GetTypeLib@CCmdTarget@@UAEJKPAPAUITypeLib@@@Z:PROC ; CCmdTarget::GetTypeLib
EXTRN	?GetCommandMap@CCmdTarget@@MBEPBUAFX_OLECMDMAP@@XZ:PROC ; CCmdTarget::GetCommandMap
EXTRN	?GetDispatchMap@CCmdTarget@@MBEPBUAFX_DISPMAP@@XZ:PROC ; CCmdTarget::GetDispatchMap
EXTRN	?GetConnectionMap@CCmdTarget@@MBEPBUAFX_CONNECTIONMAP@@XZ:PROC ; CCmdTarget::GetConnectionMap
EXTRN	?GetEventSinkMap@CCmdTarget@@MBEPBUAFX_EVENTSINKMAP@@XZ:PROC ; CCmdTarget::GetEventSinkMap
EXTRN	?OnCreateAggregates@CCmdTarget@@UAEHXZ:PROC	; CCmdTarget::OnCreateAggregates
EXTRN	?GetInterfaceHook@CCmdTarget@@UAEPAUIUnknown@@PBX@Z:PROC ; CCmdTarget::GetInterfaceHook
EXTRN	?GetExtraConnectionPoints@CCmdTarget@@MAEHPAVCPtrArray@@@Z:PROC ; CCmdTarget::GetExtraConnectionPoints
EXTRN	?GetConnectionHook@CCmdTarget@@MAEPAUIConnectionPoint@@ABU_GUID@@@Z:PROC ; CCmdTarget::GetConnectionHook
EXTRN	??0CWnd@@QAE@XZ:PROC				; CWnd::CWnd
EXTRN	?PreSubclassWindow@CWnd@@UAEXXZ:PROC		; CWnd::PreSubclassWindow
EXTRN	?Create@CWnd@@UAEHPBD0KABUtagRECT@@PAV1@IPAUCCreateContext@@@Z:PROC ; CWnd::Create
EXTRN	?CreateEx@CWnd@@UAEHKPBD0KHHHHPAUHWND__@@PAUHMENU__@@PAX@Z:PROC ; CWnd::CreateEx
EXTRN	?CreateEx@CWnd@@UAEHKPBD0KABUtagRECT@@PAV1@IPAX@Z:PROC ; CWnd::CreateEx
EXTRN	?DestroyWindow@CWnd@@UAEHXZ:PROC		; CWnd::DestroyWindow
EXTRN	?PreCreateWindow@CWnd@@UAEHAAUtagCREATESTRUCTA@@@Z:PROC ; CWnd::PreCreateWindow
EXTRN	?CalcWindowRect@CWnd@@UAEXPAUtagRECT@@I@Z:PROC	; CWnd::CalcWindowRect
EXTRN	?GetDlgItem@CWnd@@QBEPAV1@H@Z:PROC		; CWnd::GetDlgItem
EXTRN	?SetWindowTextA@CWnd@@QAEXPBD@Z:PROC		; CWnd::SetWindowTextA
EXTRN	?GetWindowTextA@CWnd@@QBEXAAV?$CStringT@DV?$StrTraitMFC_DLL@DV?$ChTraitsCRT@D@ATL@@@@@ATL@@@Z:PROC ; CWnd::GetWindowTextA
EXTRN	?GetMenu@CWnd@@UBEPAVCMenu@@XZ:PROC		; CWnd::GetMenu
EXTRN	?SetMenu@CWnd@@UAEHPAVCMenu@@@Z:PROC		; CWnd::SetMenu
EXTRN	?MoveWindow@CWnd@@QAEXHHHHH@Z:PROC		; CWnd::MoveWindow
EXTRN	?ScreenToClient@CWnd@@QBEXPAUtagRECT@@@Z:PROC	; CWnd::ScreenToClient
EXTRN	?OnToolHitTest@CWnd@@UBEHVCPoint@@PAUtagTOOLINFOA@@@Z:PROC ; CWnd::OnToolHitTest
EXTRN	?GetScrollBarCtrl@CWnd@@UBEPAVCScrollBar@@H@Z:PROC ; CWnd::GetScrollBarCtrl
EXTRN	?WinHelpA@CWnd@@UAEXKI@Z:PROC			; CWnd::WinHelpA
EXTRN	?HtmlHelpA@CWnd@@UAEXKI@Z:PROC			; CWnd::HtmlHelpA
EXTRN	?WinHelpInternal@CWnd@@UAEXKI@Z:PROC		; CWnd::WinHelpInternal
EXTRN	?ContinueModal@CWnd@@UAEHXZ:PROC		; CWnd::ContinueModal
EXTRN	?EndModalLoop@CWnd@@UAEXH@Z:PROC		; CWnd::EndModalLoop
EXTRN	?OnDrawIconicThumbnailOrLivePreview@CWnd@@UAEXAAVCDC@@VCRect@@VCSize@@HAAH@Z:PROC ; CWnd::OnDrawIconicThumbnailOrLivePreview
EXTRN	?GetInterfaceMap@CWnd@@MBEPBUAFX_INTERFACEMAP@@XZ:PROC ; CWnd::GetInterfaceMap
EXTRN	?EnsureStdObj@CWnd@@UAEJXZ:PROC			; CWnd::EnsureStdObj
EXTRN	?get_accParent@CWnd@@UAEJPAPAUIDispatch@@@Z:PROC ; CWnd::get_accParent
EXTRN	?get_accChildCount@CWnd@@UAEJPAJ@Z:PROC		; CWnd::get_accChildCount
EXTRN	?get_accChild@CWnd@@UAEJUtagVARIANT@@PAPAUIDispatch@@@Z:PROC ; CWnd::get_accChild
EXTRN	?get_accName@CWnd@@UAEJUtagVARIANT@@PAPA_W@Z:PROC ; CWnd::get_accName
EXTRN	?get_accValue@CWnd@@UAEJUtagVARIANT@@PAPA_W@Z:PROC ; CWnd::get_accValue
EXTRN	?get_accDescription@CWnd@@UAEJUtagVARIANT@@PAPA_W@Z:PROC ; CWnd::get_accDescription
EXTRN	?get_accRole@CWnd@@UAEJUtagVARIANT@@PAU2@@Z:PROC ; CWnd::get_accRole
EXTRN	?get_accState@CWnd@@UAEJUtagVARIANT@@PAU2@@Z:PROC ; CWnd::get_accState
EXTRN	?get_accHelp@CWnd@@UAEJUtagVARIANT@@PAPA_W@Z:PROC ; CWnd::get_accHelp
EXTRN	?get_accHelpTopic@CWnd@@UAEJPAPA_WUtagVARIANT@@PAJ@Z:PROC ; CWnd::get_accHelpTopic
EXTRN	?get_accKeyboardShortcut@CWnd@@UAEJUtagVARIANT@@PAPA_W@Z:PROC ; CWnd::get_accKeyboardShortcut
EXTRN	?get_accFocus@CWnd@@UAEJPAUtagVARIANT@@@Z:PROC	; CWnd::get_accFocus
EXTRN	?get_accSelection@CWnd@@UAEJPAUtagVARIANT@@@Z:PROC ; CWnd::get_accSelection
EXTRN	?get_accDefaultAction@CWnd@@UAEJUtagVARIANT@@PAPA_W@Z:PROC ; CWnd::get_accDefaultAction
EXTRN	?accSelect@CWnd@@UAEJJUtagVARIANT@@@Z:PROC	; CWnd::accSelect
EXTRN	?accLocation@CWnd@@UAEJPAJ000UtagVARIANT@@@Z:PROC ; CWnd::accLocation
EXTRN	?accNavigate@CWnd@@UAEJJUtagVARIANT@@PAU2@@Z:PROC ; CWnd::accNavigate
EXTRN	?accHitTest@CWnd@@UAEJJJPAUtagVARIANT@@@Z:PROC	; CWnd::accHitTest
EXTRN	?accDoDefaultAction@CWnd@@UAEJUtagVARIANT@@@Z:PROC ; CWnd::accDoDefaultAction
EXTRN	?put_accName@CWnd@@UAEJUtagVARIANT@@PA_W@Z:PROC	; CWnd::put_accName
EXTRN	?put_accValue@CWnd@@UAEJUtagVARIANT@@PA_W@Z:PROC ; CWnd::put_accValue
EXTRN	?SetProxy@CWnd@@UAEJPAUIAccessibleProxy@@@Z:PROC ; CWnd::SetProxy
EXTRN	?CreateAccessibleProxy@CWnd@@UAEJIJPAJ@Z:PROC	; CWnd::CreateAccessibleProxy
EXTRN	?OnCommand@CWnd@@MAEHIJ@Z:PROC			; CWnd::OnCommand
EXTRN	?OnNotify@CWnd@@MAEHIJPAJ@Z:PROC		; CWnd::OnNotify
EXTRN	?OnDestroy@CWnd@@IAEXXZ:PROC			; CWnd::OnDestroy
EXTRN	?GetSuperWndProcAddr@CWnd@@MAEPAP6GJPAUHWND__@@IIJ@ZXZ:PROC ; CWnd::GetSuperWndProcAddr
EXTRN	?PreTranslateMessage@CWnd@@UAEHPAUtagMSG@@@Z:PROC ; CWnd::PreTranslateMessage
EXTRN	?OnAmbientProperty@CWnd@@UAEHPAVCOleControlSite@@JPAUtagVARIANT@@@Z:PROC ; CWnd::OnAmbientProperty
EXTRN	?WindowProc@CWnd@@MAEJIIJ@Z:PROC		; CWnd::WindowProc
EXTRN	?OnWndMsg@CWnd@@MAEHIIJPAJ@Z:PROC		; CWnd::OnWndMsg
EXTRN	?Default@CWnd@@IAEJXZ:PROC			; CWnd::Default
EXTRN	?DefWindowProcA@CWnd@@MAEJIIJ@Z:PROC		; CWnd::DefWindowProcA
EXTRN	?PostNcDestroy@CWnd@@MAEXXZ:PROC		; CWnd::PostNcDestroy
EXTRN	?OnChildNotify@CWnd@@MAEHIIJPAJ@Z:PROC		; CWnd::OnChildNotify
EXTRN	?OnTouchInputs@CWnd@@MAEHIPAUtagTOUCHINPUT@@@Z:PROC ; CWnd::OnTouchInputs
EXTRN	?OnTouchInput@CWnd@@MAEHVCPoint@@HHPAUtagTOUCHINPUT@@@Z:PROC ; CWnd::OnTouchInput
EXTRN	?GetGestureStatus@CWnd@@MAEKVCPoint@@@Z:PROC	; CWnd::GetGestureStatus
EXTRN	?OnGestureZoom@CWnd@@MAEHVCPoint@@J@Z:PROC	; CWnd::OnGestureZoom
EXTRN	?OnGesturePan@CWnd@@MAEHVCPoint@@0@Z:PROC	; CWnd::OnGesturePan
EXTRN	?OnGestureRotate@CWnd@@MAEHVCPoint@@N@Z:PROC	; CWnd::OnGestureRotate
EXTRN	?OnGestureTwoFingerTap@CWnd@@MAEHVCPoint@@@Z:PROC ; CWnd::OnGestureTwoFingerTap
EXTRN	?OnGesturePressAndTap@CWnd@@MAEHVCPoint@@J@Z:PROC ; CWnd::OnGesturePressAndTap
EXTRN	?ResizeDynamicLayout@CWnd@@MAEXXZ:PROC		; CWnd::ResizeDynamicLayout
EXTRN	?CheckAutoCenter@CWnd@@UAEHXZ:PROC		; CWnd::CheckAutoCenter
EXTRN	?IsFrameWnd@CWnd@@UBEHXZ:PROC			; CWnd::IsFrameWnd
EXTRN	?OnFinalRelease@CWnd@@UAEXXZ:PROC		; CWnd::OnFinalRelease
EXTRN	?CreateControlContainer@CWnd@@MAEHPAPAVCOleControlContainer@@@Z:PROC ; CWnd::CreateControlContainer
EXTRN	?CreateControlSite@CWnd@@MAEHPAVCOleControlContainer@@PAPAVCOleControlSite@@IABU_GUID@@@Z:PROC ; CWnd::CreateControlSite
EXTRN	?SetOccDialogInfo@CWnd@@MAEHPAU_AFX_OCC_DIALOG_INFO@@@Z:PROC ; CWnd::SetOccDialogInfo
EXTRN	?GetOccDialogInfo@CWnd@@MAEPAU_AFX_OCC_DIALOG_INFO@@XZ:PROC ; CWnd::GetOccDialogInfo
EXTRN	?GetMessageMap@CWnd@@MBEPBUAFX_MSGMAP@@XZ:PROC	; CWnd::GetMessageMap
EXTRN	?GetRuntimeClass@CDialog@@UBEPAUCRuntimeClass@@XZ:PROC ; CDialog::GetRuntimeClass
EXTRN	?Create@CDialog@@UAEHPBDPAVCWnd@@@Z:PROC	; CDialog::Create
EXTRN	?CreateIndirect@CDialog@@UAEHPBUDLGTEMPLATE@@PAVCWnd@@PAX@Z:PROC ; CDialog::CreateIndirect
EXTRN	?CreateIndirect@CDialog@@UAEHPAXPAVCWnd@@@Z:PROC ; CDialog::CreateIndirect
EXTRN	??0CDialog@@QAE@IPAVCWnd@@@Z:PROC		; CDialog::CDialog
EXTRN	?DoModal@CDialog@@UAEHXZ:PROC			; CDialog::DoModal
EXTRN	?OnInitDialog@CDialog@@UAEHXZ:PROC		; CDialog::OnInitDialog
EXTRN	?OnSetFont@CDialog@@UAEXPAVCFont@@@Z:PROC	; CDialog::OnSetFont
EXTRN	?OnOK@CDialog@@MAEXXZ:PROC			; CDialog::OnOK
EXTRN	?OnCancel@CDialog@@MAEXXZ:PROC			; CDialog::OnCancel
EXTRN	??1CDialog@@UAE@XZ:PROC				; CDialog::~CDialog
EXTRN	?PreTranslateMessage@CDialog@@UAEHPAUtagMSG@@@Z:PROC ; CDialog::PreTranslateMessage
EXTRN	?OnCmdMsg@CDialog@@UAEHIHPAXPAUAFX_CMDHANDLERINFO@@@Z:PROC ; CDialog::OnCmdMsg
EXTRN	?CheckAutoCenter@CDialog@@UAEHXZ:PROC		; CDialog::CheckAutoCenter
EXTRN	?SetOccDialogInfo@CDialog@@MAEHPAU_AFX_OCC_DIALOG_INFO@@@Z:PROC ; CDialog::SetOccDialogInfo
EXTRN	?GetOccDialogInfo@CDialog@@MAEPAU_AFX_OCC_DIALOG_INFO@@XZ:PROC ; CDialog::GetOccDialogInfo
EXTRN	?PreInitDialog@CDialog@@MAEXXZ:PROC		; CDialog::PreInitDialog
EXTRN	?GetThisMessageMap@CDialog@@KGPBUAFX_MSGMAP@@XZ:PROC ; CDialog::GetThisMessageMap
EXTRN	?GetRuntimeClass@CComboBox@@UBEPAUCRuntimeClass@@XZ:PROC ; CComboBox::GetRuntimeClass
EXTRN	?Create@CComboBox@@UAEHKABUtagRECT@@PAVCWnd@@I@Z:PROC ; CComboBox::Create
EXTRN	?DrawItem@CComboBox@@UAEXPAUtagDRAWITEMSTRUCT@@@Z:PROC ; CComboBox::DrawItem
EXTRN	?MeasureItem@CComboBox@@UAEXPAUtagMEASUREITEMSTRUCT@@@Z:PROC ; CComboBox::MeasureItem
EXTRN	?CompareItem@CComboBox@@UAEHPAUtagCOMPAREITEMSTRUCT@@@Z:PROC ; CComboBox::CompareItem
EXTRN	?DeleteItem@CComboBox@@UAEXPAUtagDELETEITEMSTRUCT@@@Z:PROC ; CComboBox::DeleteItem
EXTRN	??1CComboBox@@UAE@XZ:PROC			; CComboBox::~CComboBox
EXTRN	?OnChildNotify@CComboBox@@MAEHIIJPAJ@Z:PROC	; CComboBox::OnChildNotify
EXTRN	??_ECComboBox@@UAEPAXI@Z:PROC			; CComboBox::`vector deleting destructor'
EXTRN	?GetRuntimeClass@CListCtrl@@UBEPAUCRuntimeClass@@XZ:PROC ; CListCtrl::GetRuntimeClass
EXTRN	?SetItem@CListCtrl@@QAEHHHIPBDHIIJ@Z:PROC	; CListCtrl::SetItem
EXTRN	?SetItemState@CListCtrl@@QAEHHII@Z:PROC		; CListCtrl::SetItemState
EXTRN	?GetItemText@CListCtrl@@QBE?AV?$CStringT@DV?$StrTraitMFC_DLL@DV?$ChTraitsCRT@D@ATL@@@@@ATL@@HH@Z:PROC ; CListCtrl::GetItemText
EXTRN	?SetItemText@CListCtrl@@QAEHHHPBD@Z:PROC	; CListCtrl::SetItemText
EXTRN	?GetItemData@CListCtrl@@QBEKH@Z:PROC		; CListCtrl::GetItemData
EXTRN	?InsertColumn@CListCtrl@@QAEHHPBDHHH@Z:PROC	; CListCtrl::InsertColumn
EXTRN	?DrawItem@CListCtrl@@UAEXPAUtagDRAWITEMSTRUCT@@@Z:PROC ; CListCtrl::DrawItem
EXTRN	?InsertItem@CListCtrl@@QAEHIHPBDIIHJ@Z:PROC	; CListCtrl::InsertItem
EXTRN	??1CListCtrl@@UAE@XZ:PROC			; CListCtrl::~CListCtrl
EXTRN	?OnChildNotify@CListCtrl@@MAEHIIJPAJ@Z:PROC	; CListCtrl::OnChildNotify
EXTRN	?GetMessageMap@CListCtrl@@MBEPBUAFX_MSGMAP@@XZ:PROC ; CListCtrl::GetMessageMap
EXTRN	??_ECListCtrl@@UAEPAXI@Z:PROC			; CListCtrl::`vector deleting destructor'
EXTRN	?GetLanguageTextDirectly@IMetaTable@@QAEPBDW4E_CODEPAGE@1@W4E_LANGUAGEID@1@PBD@Z:PROC ; IMetaTable::GetLanguageTextDirectly
EXTRN	??_ECDlgGlobalLanguageTable@@UAEPAXI@Z:PROC	; CDlgGlobalLanguageTable::`vector deleting destructor'
EXTRN	@__security_check_cookie@4:PROC
EXTRN	___CxxFrameHandler3:PROC
EXTRN	??_7type_info@@6B@:QWORD			; type_info::`vftable'
EXTRN	?g_iMetaTable@@3VIMetaTable@@A:BYTE		; g_iMetaTable
EXTRN	___security_cookie:DWORD
_BSS	SEGMENT
?RMSG_ELC_CELLEDITED@@3IB DD 01H DUP (?)		; RMSG_ELC_CELLEDITED
_BSS	ENDS
CRT$XCU	SEGMENT
?RMSG_ELC_CELLEDITED$initializer$@@3P6AXXZA DD FLAT:??__ERMSG_ELC_CELLEDITED@@YAXXZ ; RMSG_ELC_CELLEDITED$initializer$
CRT$XCU	ENDS
;	COMDAT ??_R1A@?0A@EA@CDlgGlobalLanguageTable@@8
rdata$r	SEGMENT
??_R1A@?0A@EA@CDlgGlobalLanguageTable@@8 DD FLAT:??_R0?AVCDlgGlobalLanguageTable@@@8 ; CDlgGlobalLanguageTable::`RTTI Base Class Descriptor at (0,-1,0,64)'
	DD	04H
	DD	00H
	DD	0ffffffffH
	DD	00H
	DD	040H
	DD	FLAT:??_R3CDlgGlobalLanguageTable@@8
rdata$r	ENDS
;	COMDAT ??_R2CDlgGlobalLanguageTable@@8
rdata$r	SEGMENT
??_R2CDlgGlobalLanguageTable@@8 DD FLAT:??_R1A@?0A@EA@CDlgGlobalLanguageTable@@8 ; CDlgGlobalLanguageTable::`RTTI Base Class Array'
	DD	FLAT:??_R1A@?0A@EA@CDialog@@8
	DD	FLAT:??_R1A@?0A@EA@CWnd@@8
	DD	FLAT:??_R1A@?0A@EA@CCmdTarget@@8
	DD	FLAT:??_R1A@?0A@EA@CObject@@8
rdata$r	ENDS
;	COMDAT ??_R3CDlgGlobalLanguageTable@@8
rdata$r	SEGMENT
??_R3CDlgGlobalLanguageTable@@8 DD 00H			; CDlgGlobalLanguageTable::`RTTI Class Hierarchy Descriptor'
	DD	00H
	DD	05H
	DD	FLAT:??_R2CDlgGlobalLanguageTable@@8
rdata$r	ENDS
;	COMDAT ??_R0?AVCDlgGlobalLanguageTable@@@8
data$rs	SEGMENT
??_R0?AVCDlgGlobalLanguageTable@@@8 DD FLAT:??_7type_info@@6B@ ; CDlgGlobalLanguageTable `RTTI Type Descriptor'
	DD	00H
	DB	'.?AVCDlgGlobalLanguageTable@@', 00H
data$rs	ENDS
;	COMDAT ??_R4CDlgGlobalLanguageTable@@6B@
rdata$r	SEGMENT
??_R4CDlgGlobalLanguageTable@@6B@ DD 00H		; CDlgGlobalLanguageTable::`RTTI Complete Object Locator'
	DD	00H
	DD	00H
	DD	FLAT:??_R0?AVCDlgGlobalLanguageTable@@@8
	DD	FLAT:??_R3CDlgGlobalLanguageTable@@8
rdata$r	ENDS
;	COMDAT ??_C@_02PCIJFNDE@?$AN?6@
CONST	SEGMENT
??_C@_02PCIJFNDE@?$AN?6@ DB 0dH, 0aH, 00H		; `string'
CONST	ENDS
;	COMDAT ??_C@_0BF@MFPJGLEF@Indicator?5Group?5Name@
CONST	SEGMENT
??_C@_0BF@MFPJGLEF@Indicator?5Group?5Name@ DB 'Indicator Group Name', 00H ; `string'
CONST	ENDS
;	COMDAT ??_C@_0BD@LBNBANAN@Scale?5Type?5and?5ETC@
CONST	SEGMENT
??_C@_0BD@LBNBANAN@Scale?5Type?5and?5ETC@ DB 'Scale Type and ETC', 00H ; `string'
CONST	ENDS
;	COMDAT ??_C@_0BF@OFNIMIPE@Graph?5Type?5and?5Style@
CONST	SEGMENT
??_C@_0BF@OFNIMIPE@Graph?5Type?5and?5Style@ DB 'Graph Type and Style', 00H ; `string'
CONST	ENDS
;	COMDAT ??_C@_09FBPNNPKB@Tool?5Name@
CONST	SEGMENT
??_C@_09FBPNNPKB@Tool?5Name@ DB 'Tool Name', 00H	; `string'
CONST	ENDS
;	COMDAT ??_C@_0P@MGDEPAED@Sub?5Graph?5Name@
CONST	SEGMENT
??_C@_0P@MGDEPAED@Sub?5Graph?5Name@ DB 'Sub Graph Name', 00H ; `string'
CONST	ENDS
;	COMDAT ??_C@_0P@LLECGGKA@Indicator?5Name@
CONST	SEGMENT
??_C@_0P@LLECGGKA@Indicator?5Name@ DB 'Indicator Name', 00H ; `string'
CONST	ENDS
;	COMDAT ??_C@_0M@NKINGHGE@Graph?5Title@
CONST	SEGMENT
??_C@_0M@NKINGHGE@Graph?5Title@ DB 'Graph Title', 00H	; `string'
CONST	ENDS
;	COMDAT ??_C@_0M@HGLBGEGA@Packet?5Name@
CONST	SEGMENT
??_C@_0M@HGLBGEGA@Packet?5Name@ DB 'Packet Name', 00H	; `string'
CONST	ENDS
;	COMDAT ??_C@_06OALMOPCN@Korean@
CONST	SEGMENT
??_C@_06OALMOPCN@Korean@ DB 'Korean', 00H		; `string'
CONST	ENDS
;	COMDAT ??_C@_07NEKHPBCG@English@
CONST	SEGMENT
??_C@_07NEKHPBCG@English@ DB 'English', 00H		; `string'
CONST	ENDS
;	COMDAT ??_C@_09LDGIOJFP@Meta?5Text@
CONST	SEGMENT
??_C@_09LDGIOJFP@Meta?5Text@ DB 'Meta Text', 00H	; `string'
CONST	ENDS
;	COMDAT ?messageMap@?1??GetThisMessageMap@CDlgGlobalLanguageTable@@KGPBUAFX_MSGMAP@@XZ@4U3@B
CONST	SEGMENT
?messageMap@?1??GetThisMessageMap@CDlgGlobalLanguageTable@@KGPBUAFX_MSGMAP@@XZ@4U3@B DD FLAT:?GetThisMessageMap@CDialog@@KGPBUAFX_MSGMAP@@XZ ; `CDlgGlobalLanguageTable::GetThisMessageMap'::`2'::messageMap
	DD	FLAT:?_messageEntries@?1??GetThisMessageMap@CDlgGlobalLanguageTable@@KGPBUAFX_MSGMAP@@XZ@4QBUAFX_MSGMAP_ENTRY@@B
CONST	ENDS
;	COMDAT ?_messageEntries@?1??GetThisMessageMap@CDlgGlobalLanguageTable@@KGPBUAFX_MSGMAP@@XZ@4QBUAFX_MSGMAP_ENTRY@@B
CONST	SEGMENT
?_messageEntries@?1??GetThisMessageMap@CDlgGlobalLanguageTable@@KGPBUAFX_MSGMAP@@XZ@4QBUAFX_MSGMAP_ENTRY@@B DD 05H ; `CDlgGlobalLanguageTable::GetThisMessageMap'::`2'::_messageEntries
	DD	00H
	DD	00H
	DD	00H
	DD	01aH
	DD	FLAT:?OnSize@CDlgGlobalLanguageTable@@IAEXIHH@Z
	DD	024H
	DD	00H
	DD	00H
	DD	00H
	DD	02dH
	DD	FLAT:?OnGetMinMaxInfo@CDlgGlobalLanguageTable@@IAEXPAUtagMINMAXINFO@@@Z
	DD	0111H
	DD	0400H
	DD	07e1H
	DD	07e1H
	DD	03aH
	DD	FLAT:?OnUpdateEdtSearchText@CDlgGlobalLanguageTable@@IAEXXZ
	DD	0111H
	DD	01H
	DD	07e3H
	DD	07e3H
	DD	03aH
	DD	FLAT:?OnSelchangeCmbTableType@CDlgGlobalLanguageTable@@IAEXXZ
	DD	04eH
	DD	0ff9bH
	DD	07deH
	DD	07deH
	DD	03eH
	DD	FLAT:?OnItemchangedLstMetaTable@CDlgGlobalLanguageTable@@IAEXPAUtagNMHDR@@PAJ@Z
	DD	02H
	DD	00H
	DD	00H
	DD	00H
	DD	013H
	DD	FLAT:?OnDestroy@CDlgGlobalLanguageTable@@IAEXXZ
	DD	04eH
	DD	0fed2H
	DD	00H
	DD	00H
	DD	03eH
	DD	FLAT:?OnItemclickLstMetaTable@CDlgGlobalLanguageTable@@IAEXPAUtagNMHDR@@PAJ@Z
	DD	00H
	DD	00H
	DD	00H
	DD	00H
	DD	00H
	DD	00H
CONST	ENDS
;	COMDAT ??_7CDlgGlobalLanguageTable@@6B@
CONST	SEGMENT
??_7CDlgGlobalLanguageTable@@6B@ DD FLAT:??_R4CDlgGlobalLanguageTable@@6B@ ; CDlgGlobalLanguageTable::`vftable'
	DD	FLAT:?GetRuntimeClass@CDialog@@UBEPAUCRuntimeClass@@XZ
	DD	FLAT:??_ECDlgGlobalLanguageTable@@UAEPAXI@Z
	DD	FLAT:?Serialize@CObject@@UAEXAAVCArchive@@@Z
	DD	FLAT:?AssertValid@CObject@@UBEXXZ
	DD	FLAT:?Dump@CObject@@UBEXAAVCDumpContext@@@Z
	DD	FLAT:?OnCmdMsg@CDialog@@UAEHIHPAXPAUAFX_CMDHANDLERINFO@@@Z
	DD	FLAT:?OnFinalRelease@CWnd@@UAEXXZ
	DD	FLAT:?IsInvokeAllowed@CCmdTarget@@UAEHJ@Z
	DD	FLAT:?GetDispatchIID@CCmdTarget@@UAEHPAU_GUID@@@Z
	DD	FLAT:?GetTypeInfoCount@CCmdTarget@@UAEIXZ
	DD	FLAT:?GetTypeLibCache@CCmdTarget@@UAEPAVCTypeLibCache@@XZ
	DD	FLAT:?GetTypeLib@CCmdTarget@@UAEJKPAPAUITypeLib@@@Z
	DD	FLAT:?GetMessageMap@CDlgGlobalLanguageTable@@MBEPBUAFX_MSGMAP@@XZ
	DD	FLAT:?GetCommandMap@CCmdTarget@@MBEPBUAFX_OLECMDMAP@@XZ
	DD	FLAT:?GetDispatchMap@CCmdTarget@@MBEPBUAFX_DISPMAP@@XZ
	DD	FLAT:?GetConnectionMap@CCmdTarget@@MBEPBUAFX_CONNECTIONMAP@@XZ
	DD	FLAT:?GetInterfaceMap@CWnd@@MBEPBUAFX_INTERFACEMAP@@XZ
	DD	FLAT:?GetEventSinkMap@CCmdTarget@@MBEPBUAFX_EVENTSINKMAP@@XZ
	DD	FLAT:?OnCreateAggregates@CCmdTarget@@UAEHXZ
	DD	FLAT:?GetInterfaceHook@CCmdTarget@@UAEPAUIUnknown@@PBX@Z
	DD	FLAT:?GetExtraConnectionPoints@CCmdTarget@@MAEHPAVCPtrArray@@@Z
	DD	FLAT:?GetConnectionHook@CCmdTarget@@MAEPAUIConnectionPoint@@ABU_GUID@@@Z
	DD	FLAT:?PreSubclassWindow@CWnd@@UAEXXZ
	DD	FLAT:?Create@CWnd@@UAEHPBD0KABUtagRECT@@PAV1@IPAUCCreateContext@@@Z
	DD	FLAT:?CreateEx@CWnd@@UAEHKPBD0KABUtagRECT@@PAV1@IPAX@Z
	DD	FLAT:?CreateEx@CWnd@@UAEHKPBD0KHHHHPAUHWND__@@PAUHMENU__@@PAX@Z
	DD	FLAT:?DestroyWindow@CWnd@@UAEHXZ
	DD	FLAT:?PreCreateWindow@CWnd@@UAEHAAUtagCREATESTRUCTA@@@Z
	DD	FLAT:?CalcWindowRect@CWnd@@UAEXPAUtagRECT@@I@Z
	DD	FLAT:?GetMenu@CWnd@@UBEPAVCMenu@@XZ
	DD	FLAT:?SetMenu@CWnd@@UAEHPAVCMenu@@@Z
	DD	FLAT:?OnToolHitTest@CWnd@@UBEHVCPoint@@PAUtagTOOLINFOA@@@Z
	DD	FLAT:?GetScrollBarCtrl@CWnd@@UBEPAVCScrollBar@@H@Z
	DD	FLAT:?WinHelpA@CWnd@@UAEXKI@Z
	DD	FLAT:?HtmlHelpA@CWnd@@UAEXKI@Z
	DD	FLAT:?WinHelpInternal@CWnd@@UAEXKI@Z
	DD	FLAT:?ContinueModal@CWnd@@UAEHXZ
	DD	FLAT:?EndModalLoop@CWnd@@UAEXH@Z
	DD	FLAT:?OnDrawIconicThumbnailOrLivePreview@CWnd@@UAEXAAVCDC@@VCRect@@VCSize@@HAAH@Z
	DD	FLAT:?EnsureStdObj@CWnd@@UAEJXZ
	DD	FLAT:?get_accParent@CWnd@@UAEJPAPAUIDispatch@@@Z
	DD	FLAT:?get_accChildCount@CWnd@@UAEJPAJ@Z
	DD	FLAT:?get_accChild@CWnd@@UAEJUtagVARIANT@@PAPAUIDispatch@@@Z
	DD	FLAT:?get_accName@CWnd@@UAEJUtagVARIANT@@PAPA_W@Z
	DD	FLAT:?get_accValue@CWnd@@UAEJUtagVARIANT@@PAPA_W@Z
	DD	FLAT:?get_accDescription@CWnd@@UAEJUtagVARIANT@@PAPA_W@Z
	DD	FLAT:?get_accRole@CWnd@@UAEJUtagVARIANT@@PAU2@@Z
	DD	FLAT:?get_accState@CWnd@@UAEJUtagVARIANT@@PAU2@@Z
	DD	FLAT:?get_accHelp@CWnd@@UAEJUtagVARIANT@@PAPA_W@Z
	DD	FLAT:?get_accHelpTopic@CWnd@@UAEJPAPA_WUtagVARIANT@@PAJ@Z
	DD	FLAT:?get_accKeyboardShortcut@CWnd@@UAEJUtagVARIANT@@PAPA_W@Z
	DD	FLAT:?get_accFocus@CWnd@@UAEJPAUtagVARIANT@@@Z
	DD	FLAT:?get_accSelection@CWnd@@UAEJPAUtagVARIANT@@@Z
	DD	FLAT:?get_accDefaultAction@CWnd@@UAEJUtagVARIANT@@PAPA_W@Z
	DD	FLAT:?accSelect@CWnd@@UAEJJUtagVARIANT@@@Z
	DD	FLAT:?accLocation@CWnd@@UAEJPAJ000UtagVARIANT@@@Z
	DD	FLAT:?accNavigate@CWnd@@UAEJJUtagVARIANT@@PAU2@@Z
	DD	FLAT:?accHitTest@CWnd@@UAEJJJPAUtagVARIANT@@@Z
	DD	FLAT:?accDoDefaultAction@CWnd@@UAEJUtagVARIANT@@@Z
	DD	FLAT:?put_accName@CWnd@@UAEJUtagVARIANT@@PA_W@Z
	DD	FLAT:?put_accValue@CWnd@@UAEJUtagVARIANT@@PA_W@Z
	DD	FLAT:?SetProxy@CWnd@@UAEJPAUIAccessibleProxy@@@Z
	DD	FLAT:?CreateAccessibleProxy@CWnd@@UAEJIJPAJ@Z
	DD	FLAT:?OnCommand@CWnd@@MAEHIJ@Z
	DD	FLAT:?OnNotify@CWnd@@MAEHIJPAJ@Z
	DD	FLAT:?GetSuperWndProcAddr@CWnd@@MAEPAP6GJPAUHWND__@@IIJ@ZXZ
	DD	FLAT:?DoDataExchange@CDlgGlobalLanguageTable@@MAEXPAVCDataExchange@@@Z
	DD	FLAT:?BeginModalState@CWnd@@UAEXXZ
	DD	FLAT:?EndModalState@CWnd@@UAEXXZ
	DD	FLAT:?PreTranslateMessage@CDialog@@UAEHPAUtagMSG@@@Z
	DD	FLAT:?OnAmbientProperty@CWnd@@UAEHPAVCOleControlSite@@JPAUtagVARIANT@@@Z
	DD	FLAT:?WindowProc@CWnd@@MAEJIIJ@Z
	DD	FLAT:?OnWndMsg@CWnd@@MAEHIIJPAJ@Z
	DD	FLAT:?DefWindowProcA@CWnd@@MAEJIIJ@Z
	DD	FLAT:?PostNcDestroy@CWnd@@MAEXXZ
	DD	FLAT:?OnChildNotify@CWnd@@MAEHIIJPAJ@Z
	DD	FLAT:?OnTouchInputs@CWnd@@MAEHIPAUtagTOUCHINPUT@@@Z
	DD	FLAT:?OnTouchInput@CWnd@@MAEHVCPoint@@HHPAUtagTOUCHINPUT@@@Z
	DD	FLAT:?GetGestureStatus@CWnd@@MAEKVCPoint@@@Z
	DD	FLAT:?OnGestureZoom@CWnd@@MAEHVCPoint@@J@Z
	DD	FLAT:?OnGesturePan@CWnd@@MAEHVCPoint@@0@Z
	DD	FLAT:?OnGestureRotate@CWnd@@MAEHVCPoint@@N@Z
	DD	FLAT:?OnGestureTwoFingerTap@CWnd@@MAEHVCPoint@@@Z
	DD	FLAT:?OnGesturePressAndTap@CWnd@@MAEHVCPoint@@J@Z
	DD	FLAT:?ResizeDynamicLayout@CWnd@@MAEXXZ
	DD	FLAT:?CheckAutoCenter@CDialog@@UAEHXZ
	DD	FLAT:?IsFrameWnd@CWnd@@UBEHXZ
	DD	FLAT:?CreateControlContainer@CWnd@@MAEHPAPAVCOleControlContainer@@@Z
	DD	FLAT:?CreateControlSite@CWnd@@MAEHPAVCOleControlContainer@@PAPAVCOleControlSite@@IABU_GUID@@@Z
	DD	FLAT:?SetOccDialogInfo@CDialog@@MAEHPAU_AFX_OCC_DIALOG_INFO@@@Z
	DD	FLAT:?GetOccDialogInfo@CDialog@@MAEPAU_AFX_OCC_DIALOG_INFO@@XZ
	DD	FLAT:?Create@CDialog@@UAEHIPAVCWnd@@@Z
	DD	FLAT:?Create@CDialog@@UAEHPBDPAVCWnd@@@Z
	DD	FLAT:?CreateIndirect@CDialog@@UAEHPAXPAVCWnd@@@Z
	DD	FLAT:?CreateIndirect@CDialog@@UAEHPBUDLGTEMPLATE@@PAVCWnd@@PAX@Z
	DD	FLAT:?DoModal@CDialog@@UAEHXZ
	DD	FLAT:?OnInitDialog@CDlgGlobalLanguageTable@@MAEHXZ
	DD	FLAT:?OnSetFont@CDialog@@UAEXPAVCFont@@@Z
	DD	FLAT:?OnOK@CDialog@@MAEXXZ
	DD	FLAT:?OnCancel@CDialog@@MAEXXZ
	DD	FLAT:?PreInitDialog@CDialog@@MAEXXZ
CONST	ENDS
;	COMDAT ??_C@_0BA@BCPDFAJN@GetAllMetaTexts@
CONST	SEGMENT
??_C@_0BA@BCPDFAJN@GetAllMetaTexts@ DB 'GetAllMetaTexts', 00H ; `string'
CONST	ENDS
;	COMDAT ??_C@_0BB@NBLJOLNL@GetMetaTextCount@
CONST	SEGMENT
??_C@_0BB@NBLJOLNL@GetMetaTextCount@ DB 'GetMetaTextCount', 00H ; `string'
CONST	ENDS
;	COMDAT ??_R1A@?0A@EA@CListCtrl@@8
rdata$r	SEGMENT
??_R1A@?0A@EA@CListCtrl@@8 DD FLAT:??_R0?AVCListCtrl@@@8 ; CListCtrl::`RTTI Base Class Descriptor at (0,-1,0,64)'
	DD	03H
	DD	00H
	DD	0ffffffffH
	DD	00H
	DD	040H
	DD	FLAT:??_R3CListCtrl@@8
rdata$r	ENDS
;	COMDAT ??_R2CListCtrl@@8
rdata$r	SEGMENT
??_R2CListCtrl@@8 DD FLAT:??_R1A@?0A@EA@CListCtrl@@8	; CListCtrl::`RTTI Base Class Array'
	DD	FLAT:??_R1A@?0A@EA@CWnd@@8
	DD	FLAT:??_R1A@?0A@EA@CCmdTarget@@8
	DD	FLAT:??_R1A@?0A@EA@CObject@@8
rdata$r	ENDS
;	COMDAT ??_R3CListCtrl@@8
rdata$r	SEGMENT
??_R3CListCtrl@@8 DD 00H				; CListCtrl::`RTTI Class Hierarchy Descriptor'
	DD	00H
	DD	04H
	DD	FLAT:??_R2CListCtrl@@8
rdata$r	ENDS
;	COMDAT ??_R0?AVCListCtrl@@@8
data$rs	SEGMENT
??_R0?AVCListCtrl@@@8 DD FLAT:??_7type_info@@6B@	; CListCtrl `RTTI Type Descriptor'
	DD	00H
	DB	'.?AVCListCtrl@@', 00H
data$rs	ENDS
;	COMDAT ??_R4CListCtrl@@6B@
rdata$r	SEGMENT
??_R4CListCtrl@@6B@ DD 00H				; CListCtrl::`RTTI Complete Object Locator'
	DD	00H
	DD	00H
	DD	FLAT:??_R0?AVCListCtrl@@@8
	DD	FLAT:??_R3CListCtrl@@8
rdata$r	ENDS
;	COMDAT ??_R2CDialog@@8
rdata$r	SEGMENT
??_R2CDialog@@8 DD FLAT:??_R1A@?0A@EA@CDialog@@8	; CDialog::`RTTI Base Class Array'
	DD	FLAT:??_R1A@?0A@EA@CWnd@@8
	DD	FLAT:??_R1A@?0A@EA@CCmdTarget@@8
	DD	FLAT:??_R1A@?0A@EA@CObject@@8
rdata$r	ENDS
;	COMDAT ??_R3CDialog@@8
rdata$r	SEGMENT
??_R3CDialog@@8 DD 00H					; CDialog::`RTTI Class Hierarchy Descriptor'
	DD	00H
	DD	04H
	DD	FLAT:??_R2CDialog@@8
rdata$r	ENDS
;	COMDAT ??_R0?AVCDialog@@@8
data$rs	SEGMENT
??_R0?AVCDialog@@@8 DD FLAT:??_7type_info@@6B@		; CDialog `RTTI Type Descriptor'
	DD	00H
	DB	'.?AVCDialog@@', 00H
data$rs	ENDS
;	COMDAT ??_R1A@?0A@EA@CDialog@@8
rdata$r	SEGMENT
??_R1A@?0A@EA@CDialog@@8 DD FLAT:??_R0?AVCDialog@@@8	; CDialog::`RTTI Base Class Descriptor at (0,-1,0,64)'
	DD	03H
	DD	00H
	DD	0ffffffffH
	DD	00H
	DD	040H
	DD	FLAT:??_R3CDialog@@8
rdata$r	ENDS
;	COMDAT ??_R1A@?0A@EA@CComboBox@@8
rdata$r	SEGMENT
??_R1A@?0A@EA@CComboBox@@8 DD FLAT:??_R0?AVCComboBox@@@8 ; CComboBox::`RTTI Base Class Descriptor at (0,-1,0,64)'
	DD	03H
	DD	00H
	DD	0ffffffffH
	DD	00H
	DD	040H
	DD	FLAT:??_R3CComboBox@@8
rdata$r	ENDS
;	COMDAT ??_R2CComboBox@@8
rdata$r	SEGMENT
??_R2CComboBox@@8 DD FLAT:??_R1A@?0A@EA@CComboBox@@8	; CComboBox::`RTTI Base Class Array'
	DD	FLAT:??_R1A@?0A@EA@CWnd@@8
	DD	FLAT:??_R1A@?0A@EA@CCmdTarget@@8
	DD	FLAT:??_R1A@?0A@EA@CObject@@8
rdata$r	ENDS
;	COMDAT ??_R3CComboBox@@8
rdata$r	SEGMENT
??_R3CComboBox@@8 DD 00H				; CComboBox::`RTTI Class Hierarchy Descriptor'
	DD	00H
	DD	04H
	DD	FLAT:??_R2CComboBox@@8
rdata$r	ENDS
;	COMDAT ??_R0?AVCComboBox@@@8
data$rs	SEGMENT
??_R0?AVCComboBox@@@8 DD FLAT:??_7type_info@@6B@	; CComboBox `RTTI Type Descriptor'
	DD	00H
	DB	'.?AVCComboBox@@', 00H
data$rs	ENDS
;	COMDAT ??_R4CComboBox@@6B@
rdata$r	SEGMENT
??_R4CComboBox@@6B@ DD 00H				; CComboBox::`RTTI Complete Object Locator'
	DD	00H
	DD	00H
	DD	FLAT:??_R0?AVCComboBox@@@8
	DD	FLAT:??_R3CComboBox@@8
rdata$r	ENDS
;	COMDAT ??_R2CCmdTarget@@8
rdata$r	SEGMENT
??_R2CCmdTarget@@8 DD FLAT:??_R1A@?0A@EA@CCmdTarget@@8	; CCmdTarget::`RTTI Base Class Array'
	DD	FLAT:??_R1A@?0A@EA@CObject@@8
rdata$r	ENDS
;	COMDAT ??_R3CCmdTarget@@8
rdata$r	SEGMENT
??_R3CCmdTarget@@8 DD 00H				; CCmdTarget::`RTTI Class Hierarchy Descriptor'
	DD	00H
	DD	02H
	DD	FLAT:??_R2CCmdTarget@@8
rdata$r	ENDS
;	COMDAT ??_R0?AVCCmdTarget@@@8
data$rs	SEGMENT
??_R0?AVCCmdTarget@@@8 DD FLAT:??_7type_info@@6B@	; CCmdTarget `RTTI Type Descriptor'
	DD	00H
	DB	'.?AVCCmdTarget@@', 00H
data$rs	ENDS
;	COMDAT ??_R1A@?0A@EA@CCmdTarget@@8
rdata$r	SEGMENT
??_R1A@?0A@EA@CCmdTarget@@8 DD FLAT:??_R0?AVCCmdTarget@@@8 ; CCmdTarget::`RTTI Base Class Descriptor at (0,-1,0,64)'
	DD	01H
	DD	00H
	DD	0ffffffffH
	DD	00H
	DD	040H
	DD	FLAT:??_R3CCmdTarget@@8
rdata$r	ENDS
;	COMDAT ??_R2CWnd@@8
rdata$r	SEGMENT
??_R2CWnd@@8 DD	FLAT:??_R1A@?0A@EA@CWnd@@8		; CWnd::`RTTI Base Class Array'
	DD	FLAT:??_R1A@?0A@EA@CCmdTarget@@8
	DD	FLAT:??_R1A@?0A@EA@CObject@@8
rdata$r	ENDS
;	COMDAT ??_R3CWnd@@8
rdata$r	SEGMENT
??_R3CWnd@@8 DD	00H					; CWnd::`RTTI Class Hierarchy Descriptor'
	DD	00H
	DD	03H
	DD	FLAT:??_R2CWnd@@8
rdata$r	ENDS
;	COMDAT ??_R0?AVCWnd@@@8
data$rs	SEGMENT
??_R0?AVCWnd@@@8 DD FLAT:??_7type_info@@6B@		; CWnd `RTTI Type Descriptor'
	DD	00H
	DB	'.?AVCWnd@@', 00H
data$rs	ENDS
;	COMDAT ??_R1A@?0A@EA@CWnd@@8
rdata$r	SEGMENT
??_R1A@?0A@EA@CWnd@@8 DD FLAT:??_R0?AVCWnd@@@8		; CWnd::`RTTI Base Class Descriptor at (0,-1,0,64)'
	DD	02H
	DD	00H
	DD	0ffffffffH
	DD	00H
	DD	040H
	DD	FLAT:??_R3CWnd@@8
rdata$r	ENDS
;	COMDAT ??_R1A@?0A@EA@CObject@@8
rdata$r	SEGMENT
??_R1A@?0A@EA@CObject@@8 DD FLAT:??_R0?AVCObject@@@8	; CObject::`RTTI Base Class Descriptor at (0,-1,0,64)'
	DD	00H
	DD	00H
	DD	0ffffffffH
	DD	00H
	DD	040H
	DD	FLAT:??_R3CObject@@8
rdata$r	ENDS
;	COMDAT ??_R2CObject@@8
rdata$r	SEGMENT
??_R2CObject@@8 DD FLAT:??_R1A@?0A@EA@CObject@@8	; CObject::`RTTI Base Class Array'
rdata$r	ENDS
;	COMDAT ??_R3CObject@@8
rdata$r	SEGMENT
??_R3CObject@@8 DD 00H					; CObject::`RTTI Class Hierarchy Descriptor'
	DD	00H
	DD	01H
	DD	FLAT:??_R2CObject@@8
rdata$r	ENDS
;	COMDAT ??_R0?AVCObject@@@8
data$rs	SEGMENT
??_R0?AVCObject@@@8 DD FLAT:??_7type_info@@6B@		; CObject `RTTI Type Descriptor'
	DD	00H
	DB	'.?AVCObject@@', 00H
data$rs	ENDS
;	COMDAT ??_7CListCtrl@@6B@
CONST	SEGMENT
??_7CListCtrl@@6B@ DD FLAT:??_R4CListCtrl@@6B@		; CListCtrl::`vftable'
	DD	FLAT:?GetRuntimeClass@CListCtrl@@UBEPAUCRuntimeClass@@XZ
	DD	FLAT:??_ECListCtrl@@UAEPAXI@Z
	DD	FLAT:?Serialize@CObject@@UAEXAAVCArchive@@@Z
	DD	FLAT:?AssertValid@CObject@@UBEXXZ
	DD	FLAT:?Dump@CObject@@UBEXAAVCDumpContext@@@Z
	DD	FLAT:?OnCmdMsg@CCmdTarget@@UAEHIHPAXPAUAFX_CMDHANDLERINFO@@@Z
	DD	FLAT:?OnFinalRelease@CWnd@@UAEXXZ
	DD	FLAT:?IsInvokeAllowed@CCmdTarget@@UAEHJ@Z
	DD	FLAT:?GetDispatchIID@CCmdTarget@@UAEHPAU_GUID@@@Z
	DD	FLAT:?GetTypeInfoCount@CCmdTarget@@UAEIXZ
	DD	FLAT:?GetTypeLibCache@CCmdTarget@@UAEPAVCTypeLibCache@@XZ
	DD	FLAT:?GetTypeLib@CCmdTarget@@UAEJKPAPAUITypeLib@@@Z
	DD	FLAT:?GetMessageMap@CListCtrl@@MBEPBUAFX_MSGMAP@@XZ
	DD	FLAT:?GetCommandMap@CCmdTarget@@MBEPBUAFX_OLECMDMAP@@XZ
	DD	FLAT:?GetDispatchMap@CCmdTarget@@MBEPBUAFX_DISPMAP@@XZ
	DD	FLAT:?GetConnectionMap@CCmdTarget@@MBEPBUAFX_CONNECTIONMAP@@XZ
	DD	FLAT:?GetInterfaceMap@CWnd@@MBEPBUAFX_INTERFACEMAP@@XZ
	DD	FLAT:?GetEventSinkMap@CCmdTarget@@MBEPBUAFX_EVENTSINKMAP@@XZ
	DD	FLAT:?OnCreateAggregates@CCmdTarget@@UAEHXZ
	DD	FLAT:?GetInterfaceHook@CCmdTarget@@UAEPAUIUnknown@@PBX@Z
	DD	FLAT:?GetExtraConnectionPoints@CCmdTarget@@MAEHPAVCPtrArray@@@Z
	DD	FLAT:?GetConnectionHook@CCmdTarget@@MAEPAUIConnectionPoint@@ABU_GUID@@@Z
	DD	FLAT:?PreSubclassWindow@CWnd@@UAEXXZ
	DD	FLAT:?Create@CWnd@@UAEHPBD0KABUtagRECT@@PAV1@IPAUCCreateContext@@@Z
	DD	FLAT:?CreateEx@CWnd@@UAEHKPBD0KABUtagRECT@@PAV1@IPAX@Z
	DD	FLAT:?CreateEx@CWnd@@UAEHKPBD0KHHHHPAUHWND__@@PAUHMENU__@@PAX@Z
	DD	FLAT:?DestroyWindow@CWnd@@UAEHXZ
	DD	FLAT:?PreCreateWindow@CWnd@@UAEHAAUtagCREATESTRUCTA@@@Z
	DD	FLAT:?CalcWindowRect@CWnd@@UAEXPAUtagRECT@@I@Z
	DD	FLAT:?GetMenu@CWnd@@UBEPAVCMenu@@XZ
	DD	FLAT:?SetMenu@CWnd@@UAEHPAVCMenu@@@Z
	DD	FLAT:?OnToolHitTest@CWnd@@UBEHVCPoint@@PAUtagTOOLINFOA@@@Z
	DD	FLAT:?GetScrollBarCtrl@CWnd@@UBEPAVCScrollBar@@H@Z
	DD	FLAT:?WinHelpA@CWnd@@UAEXKI@Z
	DD	FLAT:?HtmlHelpA@CWnd@@UAEXKI@Z
	DD	FLAT:?WinHelpInternal@CWnd@@UAEXKI@Z
	DD	FLAT:?ContinueModal@CWnd@@UAEHXZ
	DD	FLAT:?EndModalLoop@CWnd@@UAEXH@Z
	DD	FLAT:?OnDrawIconicThumbnailOrLivePreview@CWnd@@UAEXAAVCDC@@VCRect@@VCSize@@HAAH@Z
	DD	FLAT:?EnsureStdObj@CWnd@@UAEJXZ
	DD	FLAT:?get_accParent@CWnd@@UAEJPAPAUIDispatch@@@Z
	DD	FLAT:?get_accChildCount@CWnd@@UAEJPAJ@Z
	DD	FLAT:?get_accChild@CWnd@@UAEJUtagVARIANT@@PAPAUIDispatch@@@Z
	DD	FLAT:?get_accName@CWnd@@UAEJUtagVARIANT@@PAPA_W@Z
	DD	FLAT:?get_accValue@CWnd@@UAEJUtagVARIANT@@PAPA_W@Z
	DD	FLAT:?get_accDescription@CWnd@@UAEJUtagVARIANT@@PAPA_W@Z
	DD	FLAT:?get_accRole@CWnd@@UAEJUtagVARIANT@@PAU2@@Z
	DD	FLAT:?get_accState@CWnd@@UAEJUtagVARIANT@@PAU2@@Z
	DD	FLAT:?get_accHelp@CWnd@@UAEJUtagVARIANT@@PAPA_W@Z
	DD	FLAT:?get_accHelpTopic@CWnd@@UAEJPAPA_WUtagVARIANT@@PAJ@Z
	DD	FLAT:?get_accKeyboardShortcut@CWnd@@UAEJUtagVARIANT@@PAPA_W@Z
	DD	FLAT:?get_accFocus@CWnd@@UAEJPAUtagVARIANT@@@Z
	DD	FLAT:?get_accSelection@CWnd@@UAEJPAUtagVARIANT@@@Z
	DD	FLAT:?get_accDefaultAction@CWnd@@UAEJUtagVARIANT@@PAPA_W@Z
	DD	FLAT:?accSelect@CWnd@@UAEJJUtagVARIANT@@@Z
	DD	FLAT:?accLocation@CWnd@@UAEJPAJ000UtagVARIANT@@@Z
	DD	FLAT:?accNavigate@CWnd@@UAEJJUtagVARIANT@@PAU2@@Z
	DD	FLAT:?accHitTest@CWnd@@UAEJJJPAUtagVARIANT@@@Z
	DD	FLAT:?accDoDefaultAction@CWnd@@UAEJUtagVARIANT@@@Z
	DD	FLAT:?put_accName@CWnd@@UAEJUtagVARIANT@@PA_W@Z
	DD	FLAT:?put_accValue@CWnd@@UAEJUtagVARIANT@@PA_W@Z
	DD	FLAT:?SetProxy@CWnd@@UAEJPAUIAccessibleProxy@@@Z
	DD	FLAT:?CreateAccessibleProxy@CWnd@@UAEJIJPAJ@Z
	DD	FLAT:?OnCommand@CWnd@@MAEHIJ@Z
	DD	FLAT:?OnNotify@CWnd@@MAEHIJPAJ@Z
	DD	FLAT:?GetSuperWndProcAddr@CWnd@@MAEPAP6GJPAUHWND__@@IIJ@ZXZ
	DD	FLAT:?DoDataExchange@CWnd@@MAEXPAVCDataExchange@@@Z
	DD	FLAT:?BeginModalState@CWnd@@UAEXXZ
	DD	FLAT:?EndModalState@CWnd@@UAEXXZ
	DD	FLAT:?PreTranslateMessage@CWnd@@UAEHPAUtagMSG@@@Z
	DD	FLAT:?OnAmbientProperty@CWnd@@UAEHPAVCOleControlSite@@JPAUtagVARIANT@@@Z
	DD	FLAT:?WindowProc@CWnd@@MAEJIIJ@Z
	DD	FLAT:?OnWndMsg@CWnd@@MAEHIIJPAJ@Z
	DD	FLAT:?DefWindowProcA@CWnd@@MAEJIIJ@Z
	DD	FLAT:?PostNcDestroy@CWnd@@MAEXXZ
	DD	FLAT:?OnChildNotify@CListCtrl@@MAEHIIJPAJ@Z
	DD	FLAT:?OnTouchInputs@CWnd@@MAEHIPAUtagTOUCHINPUT@@@Z
	DD	FLAT:?OnTouchInput@CWnd@@MAEHVCPoint@@HHPAUtagTOUCHINPUT@@@Z
	DD	FLAT:?GetGestureStatus@CWnd@@MAEKVCPoint@@@Z
	DD	FLAT:?OnGestureZoom@CWnd@@MAEHVCPoint@@J@Z
	DD	FLAT:?OnGesturePan@CWnd@@MAEHVCPoint@@0@Z
	DD	FLAT:?OnGestureRotate@CWnd@@MAEHVCPoint@@N@Z
	DD	FLAT:?OnGestureTwoFingerTap@CWnd@@MAEHVCPoint@@@Z
	DD	FLAT:?OnGesturePressAndTap@CWnd@@MAEHVCPoint@@J@Z
	DD	FLAT:?ResizeDynamicLayout@CWnd@@MAEXXZ
	DD	FLAT:?CheckAutoCenter@CWnd@@UAEHXZ
	DD	FLAT:?IsFrameWnd@CWnd@@UBEHXZ
	DD	FLAT:?CreateControlContainer@CWnd@@MAEHPAPAVCOleControlContainer@@@Z
	DD	FLAT:?CreateControlSite@CWnd@@MAEHPAVCOleControlContainer@@PAPAVCOleControlSite@@IABU_GUID@@@Z
	DD	FLAT:?SetOccDialogInfo@CWnd@@MAEHPAU_AFX_OCC_DIALOG_INFO@@@Z
	DD	FLAT:?GetOccDialogInfo@CWnd@@MAEPAU_AFX_OCC_DIALOG_INFO@@XZ
	DD	FLAT:?DrawItem@CListCtrl@@UAEXPAUtagDRAWITEMSTRUCT@@@Z
CONST	ENDS
;	COMDAT ??_7CComboBox@@6B@
CONST	SEGMENT
??_7CComboBox@@6B@ DD FLAT:??_R4CComboBox@@6B@		; CComboBox::`vftable'
	DD	FLAT:?GetRuntimeClass@CComboBox@@UBEPAUCRuntimeClass@@XZ
	DD	FLAT:??_ECComboBox@@UAEPAXI@Z
	DD	FLAT:?Serialize@CObject@@UAEXAAVCArchive@@@Z
	DD	FLAT:?AssertValid@CObject@@UBEXXZ
	DD	FLAT:?Dump@CObject@@UBEXAAVCDumpContext@@@Z
	DD	FLAT:?OnCmdMsg@CCmdTarget@@UAEHIHPAXPAUAFX_CMDHANDLERINFO@@@Z
	DD	FLAT:?OnFinalRelease@CWnd@@UAEXXZ
	DD	FLAT:?IsInvokeAllowed@CCmdTarget@@UAEHJ@Z
	DD	FLAT:?GetDispatchIID@CCmdTarget@@UAEHPAU_GUID@@@Z
	DD	FLAT:?GetTypeInfoCount@CCmdTarget@@UAEIXZ
	DD	FLAT:?GetTypeLibCache@CCmdTarget@@UAEPAVCTypeLibCache@@XZ
	DD	FLAT:?GetTypeLib@CCmdTarget@@UAEJKPAPAUITypeLib@@@Z
	DD	FLAT:?GetMessageMap@CWnd@@MBEPBUAFX_MSGMAP@@XZ
	DD	FLAT:?GetCommandMap@CCmdTarget@@MBEPBUAFX_OLECMDMAP@@XZ
	DD	FLAT:?GetDispatchMap@CCmdTarget@@MBEPBUAFX_DISPMAP@@XZ
	DD	FLAT:?GetConnectionMap@CCmdTarget@@MBEPBUAFX_CONNECTIONMAP@@XZ
	DD	FLAT:?GetInterfaceMap@CWnd@@MBEPBUAFX_INTERFACEMAP@@XZ
	DD	FLAT:?GetEventSinkMap@CCmdTarget@@MBEPBUAFX_EVENTSINKMAP@@XZ
	DD	FLAT:?OnCreateAggregates@CCmdTarget@@UAEHXZ
	DD	FLAT:?GetInterfaceHook@CCmdTarget@@UAEPAUIUnknown@@PBX@Z
	DD	FLAT:?GetExtraConnectionPoints@CCmdTarget@@MAEHPAVCPtrArray@@@Z
	DD	FLAT:?GetConnectionHook@CCmdTarget@@MAEPAUIConnectionPoint@@ABU_GUID@@@Z
	DD	FLAT:?PreSubclassWindow@CWnd@@UAEXXZ
	DD	FLAT:?Create@CWnd@@UAEHPBD0KABUtagRECT@@PAV1@IPAUCCreateContext@@@Z
	DD	FLAT:?CreateEx@CWnd@@UAEHKPBD0KABUtagRECT@@PAV1@IPAX@Z
	DD	FLAT:?CreateEx@CWnd@@UAEHKPBD0KHHHHPAUHWND__@@PAUHMENU__@@PAX@Z
	DD	FLAT:?DestroyWindow@CWnd@@UAEHXZ
	DD	FLAT:?PreCreateWindow@CWnd@@UAEHAAUtagCREATESTRUCTA@@@Z
	DD	FLAT:?CalcWindowRect@CWnd@@UAEXPAUtagRECT@@I@Z
	DD	FLAT:?GetMenu@CWnd@@UBEPAVCMenu@@XZ
	DD	FLAT:?SetMenu@CWnd@@UAEHPAVCMenu@@@Z
	DD	FLAT:?OnToolHitTest@CWnd@@UBEHVCPoint@@PAUtagTOOLINFOA@@@Z
	DD	FLAT:?GetScrollBarCtrl@CWnd@@UBEPAVCScrollBar@@H@Z
	DD	FLAT:?WinHelpA@CWnd@@UAEXKI@Z
	DD	FLAT:?HtmlHelpA@CWnd@@UAEXKI@Z
	DD	FLAT:?WinHelpInternal@CWnd@@UAEXKI@Z
	DD	FLAT:?ContinueModal@CWnd@@UAEHXZ
	DD	FLAT:?EndModalLoop@CWnd@@UAEXH@Z
	DD	FLAT:?OnDrawIconicThumbnailOrLivePreview@CWnd@@UAEXAAVCDC@@VCRect@@VCSize@@HAAH@Z
	DD	FLAT:?EnsureStdObj@CWnd@@UAEJXZ
	DD	FLAT:?get_accParent@CWnd@@UAEJPAPAUIDispatch@@@Z
	DD	FLAT:?get_accChildCount@CWnd@@UAEJPAJ@Z
	DD	FLAT:?get_accChild@CWnd@@UAEJUtagVARIANT@@PAPAUIDispatch@@@Z
	DD	FLAT:?get_accName@CWnd@@UAEJUtagVARIANT@@PAPA_W@Z
	DD	FLAT:?get_accValue@CWnd@@UAEJUtagVARIANT@@PAPA_W@Z
	DD	FLAT:?get_accDescription@CWnd@@UAEJUtagVARIANT@@PAPA_W@Z
	DD	FLAT:?get_accRole@CWnd@@UAEJUtagVARIANT@@PAU2@@Z
	DD	FLAT:?get_accState@CWnd@@UAEJUtagVARIANT@@PAU2@@Z
	DD	FLAT:?get_accHelp@CWnd@@UAEJUtagVARIANT@@PAPA_W@Z
	DD	FLAT:?get_accHelpTopic@CWnd@@UAEJPAPA_WUtagVARIANT@@PAJ@Z
	DD	FLAT:?get_accKeyboardShortcut@CWnd@@UAEJUtagVARIANT@@PAPA_W@Z
	DD	FLAT:?get_accFocus@CWnd@@UAEJPAUtagVARIANT@@@Z
	DD	FLAT:?get_accSelection@CWnd@@UAEJPAUtagVARIANT@@@Z
	DD	FLAT:?get_accDefaultAction@CWnd@@UAEJUtagVARIANT@@PAPA_W@Z
	DD	FLAT:?accSelect@CWnd@@UAEJJUtagVARIANT@@@Z
	DD	FLAT:?accLocation@CWnd@@UAEJPAJ000UtagVARIANT@@@Z
	DD	FLAT:?accNavigate@CWnd@@UAEJJUtagVARIANT@@PAU2@@Z
	DD	FLAT:?accHitTest@CWnd@@UAEJJJPAUtagVARIANT@@@Z
	DD	FLAT:?accDoDefaultAction@CWnd@@UAEJUtagVARIANT@@@Z
	DD	FLAT:?put_accName@CWnd@@UAEJUtagVARIANT@@PA_W@Z
	DD	FLAT:?put_accValue@CWnd@@UAEJUtagVARIANT@@PA_W@Z
	DD	FLAT:?SetProxy@CWnd@@UAEJPAUIAccessibleProxy@@@Z
	DD	FLAT:?CreateAccessibleProxy@CWnd@@UAEJIJPAJ@Z
	DD	FLAT:?OnCommand@CWnd@@MAEHIJ@Z
	DD	FLAT:?OnNotify@CWnd@@MAEHIJPAJ@Z
	DD	FLAT:?GetSuperWndProcAddr@CWnd@@MAEPAP6GJPAUHWND__@@IIJ@ZXZ
	DD	FLAT:?DoDataExchange@CWnd@@MAEXPAVCDataExchange@@@Z
	DD	FLAT:?BeginModalState@CWnd@@UAEXXZ
	DD	FLAT:?EndModalState@CWnd@@UAEXXZ
	DD	FLAT:?PreTranslateMessage@CWnd@@UAEHPAUtagMSG@@@Z
	DD	FLAT:?OnAmbientProperty@CWnd@@UAEHPAVCOleControlSite@@JPAUtagVARIANT@@@Z
	DD	FLAT:?WindowProc@CWnd@@MAEJIIJ@Z
	DD	FLAT:?OnWndMsg@CWnd@@MAEHIIJPAJ@Z
	DD	FLAT:?DefWindowProcA@CWnd@@MAEJIIJ@Z
	DD	FLAT:?PostNcDestroy@CWnd@@MAEXXZ
	DD	FLAT:?OnChildNotify@CComboBox@@MAEHIIJPAJ@Z
	DD	FLAT:?OnTouchInputs@CWnd@@MAEHIPAUtagTOUCHINPUT@@@Z
	DD	FLAT:?OnTouchInput@CWnd@@MAEHVCPoint@@HHPAUtagTOUCHINPUT@@@Z
	DD	FLAT:?GetGestureStatus@CWnd@@MAEKVCPoint@@@Z
	DD	FLAT:?OnGestureZoom@CWnd@@MAEHVCPoint@@J@Z
	DD	FLAT:?OnGesturePan@CWnd@@MAEHVCPoint@@0@Z
	DD	FLAT:?OnGestureRotate@CWnd@@MAEHVCPoint@@N@Z
	DD	FLAT:?OnGestureTwoFingerTap@CWnd@@MAEHVCPoint@@@Z
	DD	FLAT:?OnGesturePressAndTap@CWnd@@MAEHVCPoint@@J@Z
	DD	FLAT:?ResizeDynamicLayout@CWnd@@MAEXXZ
	DD	FLAT:?CheckAutoCenter@CWnd@@UAEHXZ
	DD	FLAT:?IsFrameWnd@CWnd@@UBEHXZ
	DD	FLAT:?CreateControlContainer@CWnd@@MAEHPAPAVCOleControlContainer@@@Z
	DD	FLAT:?CreateControlSite@CWnd@@MAEHPAVCOleControlContainer@@PAPAVCOleControlSite@@IABU_GUID@@@Z
	DD	FLAT:?SetOccDialogInfo@CWnd@@MAEHPAU_AFX_OCC_DIALOG_INFO@@@Z
	DD	FLAT:?GetOccDialogInfo@CWnd@@MAEPAU_AFX_OCC_DIALOG_INFO@@XZ
	DD	FLAT:?Create@CComboBox@@UAEHKABUtagRECT@@PAVCWnd@@I@Z
	DD	FLAT:?DrawItem@CComboBox@@UAEXPAUtagDRAWITEMSTRUCT@@@Z
	DD	FLAT:?MeasureItem@CComboBox@@UAEXPAUtagMEASUREITEMSTRUCT@@@Z
	DD	FLAT:?CompareItem@CComboBox@@UAEHPAUtagCOMPAREITEMSTRUCT@@@Z
	DD	FLAT:?DeleteItem@CComboBox@@UAEXPAUtagDELETEITEMSTRUCT@@@Z
CONST	ENDS
;	COMDAT ??_C@_00CNPNBAHC@@
CONST	SEGMENT
??_C@_00CNPNBAHC@@ DB 00H				; `string'
CONST	ENDS
;	COMDAT xdata$x
xdata$x	SEGMENT
__unwindtable$?OnItemchangedLstMetaTable@CDlgGlobalLanguageTable@@IAEXPAUtagNMHDR@@PAJ@Z DD 0ffffffffH
	DD	FLAT:__unwindfunclet$?OnItemchangedLstMetaTable@CDlgGlobalLanguageTable@@IAEXPAUtagNMHDR@@PAJ@Z$0
__ehfuncinfo$?OnItemchangedLstMetaTable@CDlgGlobalLanguageTable@@IAEXPAUtagNMHDR@@PAJ@Z DD 019930522H
	DD	01H
	DD	FLAT:__unwindtable$?OnItemchangedLstMetaTable@CDlgGlobalLanguageTable@@IAEXPAUtagNMHDR@@PAJ@Z
	DD	2 DUP(00H)
	DD	2 DUP(00H)
	DD	00H
	DD	01H
xdata$x	ENDS
;	COMDAT xdata$x
xdata$x	SEGMENT
__unwindtable$?OnSelchangeCmbTableType@CDlgGlobalLanguageTable@@IAEXXZ DD 0ffffffffH
	DD	FLAT:__unwindfunclet$?OnSelchangeCmbTableType@CDlgGlobalLanguageTable@@IAEXXZ$0
__ehfuncinfo$?OnSelchangeCmbTableType@CDlgGlobalLanguageTable@@IAEXXZ DD 019930522H
	DD	01H
	DD	FLAT:__unwindtable$?OnSelchangeCmbTableType@CDlgGlobalLanguageTable@@IAEXXZ
	DD	2 DUP(00H)
	DD	2 DUP(00H)
	DD	00H
	DD	01H
xdata$x	ENDS
;	COMDAT xdata$x
xdata$x	SEGMENT
__ehfuncinfo$?OnUpdateEdtSearchText@CDlgGlobalLanguageTable@@IAEXXZ DD 019930522H
	DD	06H
	DD	FLAT:__unwindtable$?OnUpdateEdtSearchText@CDlgGlobalLanguageTable@@IAEXXZ
	DD	2 DUP(00H)
	DD	2 DUP(00H)
	DD	00H
	DD	01H
__unwindtable$?OnUpdateEdtSearchText@CDlgGlobalLanguageTable@@IAEXXZ DD 0ffffffffH
	DD	FLAT:__unwindfunclet$?OnUpdateEdtSearchText@CDlgGlobalLanguageTable@@IAEXXZ$0
	DD	00H
	DD	FLAT:__unwindfunclet$?OnUpdateEdtSearchText@CDlgGlobalLanguageTable@@IAEXXZ$1
	DD	01H
	DD	FLAT:__unwindfunclet$?OnUpdateEdtSearchText@CDlgGlobalLanguageTable@@IAEXXZ$2
	DD	01H
	DD	FLAT:__unwindfunclet$?OnUpdateEdtSearchText@CDlgGlobalLanguageTable@@IAEXXZ$3
	DD	01H
	DD	FLAT:__unwindfunclet$?OnUpdateEdtSearchText@CDlgGlobalLanguageTable@@IAEXXZ$4
	DD	01H
	DD	FLAT:__unwindfunclet$?OnUpdateEdtSearchText@CDlgGlobalLanguageTable@@IAEXXZ$5
xdata$x	ENDS
;	COMDAT xdata$x
xdata$x	SEGMENT
__unwindtable$?OnInitDialog@CDlgGlobalLanguageTable@@MAEHXZ DD 0ffffffffH
	DD	FLAT:__unwindfunclet$?OnInitDialog@CDlgGlobalLanguageTable@@MAEHXZ$0
__ehfuncinfo$?OnInitDialog@CDlgGlobalLanguageTable@@MAEHXZ DD 019930522H
	DD	01H
	DD	FLAT:__unwindtable$?OnInitDialog@CDlgGlobalLanguageTable@@MAEHXZ
	DD	2 DUP(00H)
	DD	2 DUP(00H)
	DD	00H
	DD	01H
xdata$x	ENDS
;	COMDAT xdata$x
xdata$x	SEGMENT
__unwindtable$??0CDlgGlobalLanguageTable@@QAE@PAVCWnd@@@Z DD 0ffffffffH
	DD	FLAT:__unwindfunclet$??0CDlgGlobalLanguageTable@@QAE@PAVCWnd@@@Z$0
	DD	00H
	DD	FLAT:__unwindfunclet$??0CDlgGlobalLanguageTable@@QAE@PAVCWnd@@@Z$1
__ehfuncinfo$??0CDlgGlobalLanguageTable@@QAE@PAVCWnd@@@Z DD 019930522H
	DD	02H
	DD	FLAT:__unwindtable$??0CDlgGlobalLanguageTable@@QAE@PAVCWnd@@@Z
	DD	2 DUP(00H)
	DD	2 DUP(00H)
	DD	00H
	DD	01H
xdata$x	ENDS
; Function compile flags: /Ogtp
; File D:\git\src\IBK\IBK_DRFN\ProjSrc\SrcChartEx\ChartAddIn\ChartDesignPropertyAddIn\ChartDesignPropertyAddIn\DlgGlobalLanguageTable.cpp
; File C:\Program Files (x86)\Microsoft Visual Studio\2019\Community\VC\Tools\MSVC\14.29.30133\atlmfc\include\afxcoll.inl
; File C:\Program Files (x86)\Microsoft Visual Studio\2019\Community\VC\Tools\MSVC\14.29.30133\atlmfc\include\atlsimpstr.h
; File D:\git\src\IBK\IBK_DRFN\ProjSrc\SrcChartEx\ChartAddIn\ChartDesignPropertyAddIn\ChartDesignPropertyAddIn\DlgGlobalLanguageTable.cpp
; File C:\Program Files (x86)\Microsoft Visual Studio\2019\Community\VC\Tools\MSVC\14.29.30133\atlmfc\include\afxcoll.inl
; File D:\git\src\IBK\IBK_DRFN\ProjSrc\SrcChartEx\ChartAddIn\ChartDesignPropertyAddIn\ChartDesignPropertyAddIn\DlgGlobalLanguageTable.cpp
;	COMDAT ?SortFunc@@YGHJJJ@Z
_TEXT	SEGMENT
_lParam1$ = 8						; size = 4
_lParam2$ = 12						; size = 4
_lParamSort$ = 16					; size = 4
?SortFunc@@YGHJJJ@Z PROC				; SortFunc, COMDAT

; 258  : {

  00000	55		 push	 ebp
  00001	8b ec		 mov	 ebp, esp

; 259  : 	CStringArray *psaItems1 = ( CStringArray *)lParam1;
; 260  : 	CStringArray *psaItems2 = ( CStringArray *)lParam2;
; 261  : 
; 262  : 	// Include IMetaTable::LANGUAGE_ID_END == lParamSort for Meta Text
; 263  : 	if( lParamSort < IMetaTable::ENGLISH || IMetaTable::LANGUAGE_ID_END < lParamSort)

  00003	8b 55 10	 mov	 edx, DWORD PTR _lParamSort$[ebp]
  00006	83 fa 02	 cmp	 edx, 2
  00009	77 37		 ja	 SHORT $LN3@SortFunc
; File C:\Program Files (x86)\Microsoft Visual Studio\2019\Community\VC\Tools\MSVC\14.29.30133\atlmfc\include\afxcoll.inl

; 289  : 		if( nIndex < 0 || nIndex >= m_nSize )

  0000b	56		 push	 esi
  0000c	8b 75 0c	 mov	 esi, DWORD PTR _lParam2$[ebp]
  0000f	3b 56 08	 cmp	 edx, DWORD PTR [esi+8]
  00012	7d 34		 jge	 SHORT $LN9@SortFunc
  00014	8b 45 08	 mov	 eax, DWORD PTR _lParam1$[ebp]
  00017	3b 50 08	 cmp	 edx, DWORD PTR [eax+8]
  0001a	7d 2c		 jge	 SHORT $LN9@SortFunc
; File C:\Program Files (x86)\Microsoft Visual Studio\2019\Community\VC\Tools\MSVC\14.29.30133\atlmfc\include\atlsimpstr.h

; 377  : 		return( m_pszData );

  0001c	8b 40 04	 mov	 eax, DWORD PTR [eax+4]
  0001f	8b 0c 90	 mov	 ecx, DWORD PTR [eax+edx*4]
  00022	8b 46 04	 mov	 eax, DWORD PTR [esi+4]
; File D:\git\src\IBK\IBK_DRFN\ProjSrc\SrcChartEx\ChartAddIn\ChartDesignPropertyAddIn\ChartDesignPropertyAddIn\DlgGlobalLanguageTable.cpp

; 265  : 	int nResult = stricmp( psaItems1->GetAt( lParamSort), psaItems2->GetAt( lParamSort));

  00025	ff 34 90	 push	 DWORD PTR [eax+edx*4]
  00028	51		 push	 ecx
  00029	ff 15 00 00 00
	00		 call	 DWORD PTR __imp__stricmp
  0002f	83 c4 08	 add	 esp, 8

; 266  : 	return ( g_bSortASC ? nResult : -nResult);

  00032	83 3d 00 00 00
	00 00		 cmp	 DWORD PTR ?g_bSortASC@@3HA, 0 ; g_bSortASC
  00039	5e		 pop	 esi
  0003a	75 08		 jne	 SHORT $LN1@SortFunc
  0003c	f7 d8		 neg	 eax

; 267  : } 

  0003e	5d		 pop	 ebp
  0003f	c2 0c 00	 ret	 12			; 0000000cH
$LN3@SortFunc:

; 264  : 		return 0;

  00042	33 c0		 xor	 eax, eax
$LN1@SortFunc:

; 267  : } 

  00044	5d		 pop	 ebp
  00045	c2 0c 00	 ret	 12			; 0000000cH
$LN9@SortFunc:
; File C:\Program Files (x86)\Microsoft Visual Studio\2019\Community\VC\Tools\MSVC\14.29.30133\atlmfc\include\afxcoll.inl

; 290  : 			AfxThrowInvalidArgException();

  00048	e8 00 00 00 00	 call	 ?AfxThrowInvalidArgException@@YGXXZ ; AfxThrowInvalidArgException
$LN20@SortFunc:
  0004d	cc		 int	 3
?SortFunc@@YGHJJJ@Z ENDP				; SortFunc
_TEXT	ENDS
; Function compile flags: /Ogtp
; File C:\Program Files (x86)\Microsoft Visual Studio\2019\Community\VC\Tools\MSVC\14.29.30133\atlmfc\include\afx.inl
;	COMDAT ??_GCDlgGlobalLanguageTable@@UAEPAXI@Z
_TEXT	SEGMENT
___flags$ = 8						; size = 4
??_GCDlgGlobalLanguageTable@@UAEPAXI@Z PROC		; CDlgGlobalLanguageTable::`scalar deleting destructor', COMDAT
; _this$ = ecx
  00000	55		 push	 ebp
  00001	8b ec		 mov	 ebp, esp
  00003	56		 push	 esi
  00004	8b f1		 mov	 esi, ecx
  00006	8d 8e 28 01 00
	00		 lea	 ecx, DWORD PTR [esi+296]
  0000c	e8 00 00 00 00	 call	 ??1CListCtrl@@UAE@XZ	; CListCtrl::~CListCtrl
  00011	8d 8e a8 00 00
	00		 lea	 ecx, DWORD PTR [esi+168]
  00017	e8 00 00 00 00	 call	 ??1CComboBox@@UAE@XZ	; CComboBox::~CComboBox
  0001c	8b ce		 mov	 ecx, esi
  0001e	e8 00 00 00 00	 call	 ??1CDialog@@UAE@XZ	; CDialog::~CDialog
  00023	8b 45 08	 mov	 eax, DWORD PTR ___flags$[ebp]
  00026	a8 01		 test	 al, 1
  00028	74 22		 je	 SHORT $LN12@scalar
  0002a	a8 04		 test	 al, 4
  0002c	75 10		 jne	 SHORT $LN3@scalar

; 112  : 	{ ::operator delete(p); }

  0002e	56		 push	 esi
  0002f	e8 00 00 00 00	 call	 ??3@YAXPAX@Z		; operator delete
  00034	83 c4 04	 add	 esp, 4
  00037	8b c6		 mov	 eax, esi
  00039	5e		 pop	 esi
  0003a	5d		 pop	 ebp
  0003b	c2 04 00	 ret	 4
$LN3@scalar:
  0003e	68 b8 01 00 00	 push	 440			; 000001b8H
  00043	56		 push	 esi
  00044	e8 00 00 00 00	 call	 ?__global_delete@@YAXPAXI@Z ; __global_delete
  00049	83 c4 08	 add	 esp, 8
$LN12@scalar:
  0004c	8b c6		 mov	 eax, esi
  0004e	5e		 pop	 esi
  0004f	5d		 pop	 ebp
  00050	c2 04 00	 ret	 4
??_GCDlgGlobalLanguageTable@@UAEPAXI@Z ENDP		; CDlgGlobalLanguageTable::`scalar deleting destructor'
_TEXT	ENDS
; Function compile flags: /Ogtp
; File D:\git\src\IBK\IBK_DRFN\ProjSrc\SrcChartEx\ChartAddIn\ChartDesignPropertyAddIn\ChartDesignPropertyAddIn\DlgGlobalLanguageTable.cpp
;	COMDAT ?GetMessageMap@CDlgGlobalLanguageTable@@MBEPBUAFX_MSGMAP@@XZ
_TEXT	SEGMENT
?GetMessageMap@CDlgGlobalLanguageTable@@MBEPBUAFX_MSGMAP@@XZ PROC ; CDlgGlobalLanguageTable::GetMessageMap, COMDAT
; _this$ = ecx

; 43   : BEGIN_MESSAGE_MAP(CDlgGlobalLanguageTable, CDialog)

  00000	b8 00 00 00 00	 mov	 eax, OFFSET ?messageMap@?1??GetThisMessageMap@CDlgGlobalLanguageTable@@KGPBUAFX_MSGMAP@@XZ@4U3@B
  00005	c3		 ret	 0
?GetMessageMap@CDlgGlobalLanguageTable@@MBEPBUAFX_MSGMAP@@XZ ENDP ; CDlgGlobalLanguageTable::GetMessageMap
_TEXT	ENDS
; Function compile flags: /Ogtp
; File D:\git\src\IBK\IBK_DRFN\ProjSrc\SrcChartEx\ChartAddIn\ChartDesignPropertyAddIn\ChartDesignPropertyAddIn\DlgGlobalLanguageTable.cpp
;	COMDAT ?GetThisMessageMap@CDlgGlobalLanguageTable@@KGPBUAFX_MSGMAP@@XZ
_TEXT	SEGMENT
?GetThisMessageMap@CDlgGlobalLanguageTable@@KGPBUAFX_MSGMAP@@XZ PROC ; CDlgGlobalLanguageTable::GetThisMessageMap, COMDAT

; 44   : 	//{{AFX_MSG_MAP(CDlgGlobalLanguageTable)
; 45   : 	ON_WM_SIZE()
; 46   : 	ON_WM_GETMINMAXINFO()
; 47   : 	ON_EN_UPDATE(IDC_EDT_SEARCH_TEXT, OnUpdateEdtSearchText)
; 48   : 	ON_CBN_SELCHANGE(IDC_CMB_TABLE_TYPE, OnSelchangeCmbTableType)
; 49   : 	ON_NOTIFY(LVN_ITEMCHANGED, IDC_LST_META_TABLE, OnItemchangedLstMetaTable)
; 50   : 	ON_WM_DESTROY()
; 51   : 	//}}AFX_MSG_MAP
; 52   : 	ON_NOTIFY(HDN_ITEMCLICK, 0, OnItemclickLstMetaTable)
; 53   : END_MESSAGE_MAP()

  00000	b8 00 00 00 00	 mov	 eax, OFFSET ?messageMap@?1??GetThisMessageMap@CDlgGlobalLanguageTable@@KGPBUAFX_MSGMAP@@XZ@4U3@B
  00005	c3		 ret	 0
?GetThisMessageMap@CDlgGlobalLanguageTable@@KGPBUAFX_MSGMAP@@XZ ENDP ; CDlgGlobalLanguageTable::GetThisMessageMap
_TEXT	ENDS
; Function compile flags: /Ogtp
; File D:\git\src\IBK\IBK_DRFN\ProjSrc\SrcChartEx\ChartAddIn\ChartDesignPropertyAddIn\ChartDesignPropertyAddIn\DlgGlobalLanguageTable.cpp
; File C:\Program Files (x86)\Microsoft Visual Studio\2019\Community\VC\Tools\MSVC\14.29.30133\atlmfc\include\afxcmn.inl
; File D:\git\src\IBK\IBK_DRFN\ProjSrc\SrcChartEx\ChartAddIn\ChartDesignPropertyAddIn\ChartDesignPropertyAddIn\DlgGlobalLanguageTable.cpp
; File C:\Program Files (x86)\Microsoft Visual Studio\2019\Community\VC\Tools\MSVC\14.29.30133\atlmfc\include\afxcmn.inl
; File D:\git\src\IBK\IBK_DRFN\ProjSrc\SrcChartEx\ChartAddIn\ChartDesignPropertyAddIn\ChartDesignPropertyAddIn\DlgGlobalLanguageTable.cpp
;	COMDAT ?OnItemclickLstMetaTable@CDlgGlobalLanguageTable@@IAEXPAUtagNMHDR@@PAJ@Z
_TEXT	SEGMENT
_pNMHDR$ = 8						; size = 4
_pResult$ = 12						; size = 4
?OnItemclickLstMetaTable@CDlgGlobalLanguageTable@@IAEXPAUtagNMHDR@@PAJ@Z PROC ; CDlgGlobalLanguageTable::OnItemclickLstMetaTable, COMDAT
; _this$ = ecx

; 269  : {

  00000	55		 push	 ebp
  00001	8b ec		 mov	 ebp, esp

; 270  : 	HD_NOTIFY *phdn = (HD_NOTIFY *) pNMHDR;
; 271  : 	// TODO: Add your control notification handler code here
; 272  : 	*pResult = 0;

  00003	8b 45 0c	 mov	 eax, DWORD PTR _pResult$[ebp]

; 273  : 
; 274  : 	NMLISTVIEW *pLV = ( NMLISTVIEW *)pNMHDR;
; 275  : 	// (2008/2/25 - Seung-Won, Bae) for Column Reverse Sort
; 276  : 	if( pLV->iItem == m_nSortColumn) m_bSortASC = !m_bSortASC;

  00006	8b 55 08	 mov	 edx, DWORD PTR _pNMHDR$[ebp]
  00009	c7 00 00 00 00
	00		 mov	 DWORD PTR [eax], 0
  0000f	8b 42 0c	 mov	 eax, DWORD PTR [edx+12]
  00012	3b 81 b0 01 00
	00		 cmp	 eax, DWORD PTR [ecx+432]
  00018	75 0d		 jne	 SHORT $LN2@OnItemclic
  0001a	33 c0		 xor	 eax, eax
  0001c	39 81 b4 01 00
	00		 cmp	 DWORD PTR [ecx+436], eax
  00022	0f 94 c0	 sete	 al
  00025	eb 0b		 jmp	 SHORT $LN3@OnItemclic
$LN2@OnItemclic:

; 277  : 	else
; 278  : 	{
; 279  : 		m_nSortColumn	= pLV->iItem;

  00027	89 81 b0 01 00
	00		 mov	 DWORD PTR [ecx+432], eax

; 280  : 		m_bSortASC		= TRUE;

  0002d	b8 01 00 00 00	 mov	 eax, 1
$LN3@OnItemclic:

; 283  : 	g_bSortASC = m_bSortASC;

  00032	89 81 b4 01 00
	00		 mov	 DWORD PTR [ecx+436], eax
; File C:\Program Files (x86)\Microsoft Visual Studio\2019\Community\VC\Tools\MSVC\14.29.30133\atlmfc\include\afxcmn.inl

; 241  : 	{ ASSERT(::IsWindow(m_hWnd)); ASSERT((GetStyle() & LVS_OWNERDATA)==0); return (BOOL) ::SendMessage(m_hWnd, LVM_SORTITEMS, dwData, (LPARAM)pfnCompare); }

  00038	68 00 00 00 00	 push	 OFFSET ?SortFunc@@YGHJJJ@Z ; SortFunc
; File D:\git\src\IBK\IBK_DRFN\ProjSrc\SrcChartEx\ChartAddIn\ChartDesignPropertyAddIn\ChartDesignPropertyAddIn\DlgGlobalLanguageTable.cpp

; 283  : 	g_bSortASC = m_bSortASC;

  0003d	a3 00 00 00 00	 mov	 DWORD PTR ?g_bSortASC@@3HA, eax ; g_bSortASC
; File C:\Program Files (x86)\Microsoft Visual Studio\2019\Community\VC\Tools\MSVC\14.29.30133\atlmfc\include\afxcmn.inl

; 241  : 	{ ASSERT(::IsWindow(m_hWnd)); ASSERT((GetStyle() & LVS_OWNERDATA)==0); return (BOOL) ::SendMessage(m_hWnd, LVM_SORTITEMS, dwData, (LPARAM)pfnCompare); }

  00042	ff 72 0c	 push	 DWORD PTR [edx+12]
  00045	68 30 10 00 00	 push	 4144			; 00001030H
  0004a	ff b1 48 01 00
	00		 push	 DWORD PTR [ecx+328]
  00050	ff 15 00 00 00
	00		 call	 DWORD PTR __imp__SendMessageA@16
; File D:\git\src\IBK\IBK_DRFN\ProjSrc\SrcChartEx\ChartAddIn\ChartDesignPropertyAddIn\ChartDesignPropertyAddIn\DlgGlobalLanguageTable.cpp

; 285  : }

  00056	5d		 pop	 ebp
  00057	c2 08 00	 ret	 8
?OnItemclickLstMetaTable@CDlgGlobalLanguageTable@@IAEXPAUtagNMHDR@@PAJ@Z ENDP ; CDlgGlobalLanguageTable::OnItemclickLstMetaTable
_TEXT	ENDS
; Function compile flags: /Ogtp
; File D:\git\src\IBK\IBK_DRFN\ProjSrc\SrcChartEx\ChartAddIn\ChartDesignPropertyAddIn\ChartDesignPropertyAddIn\DlgGlobalLanguageTable.cpp
; File C:\Program Files (x86)\Microsoft Visual Studio\2019\Community\VC\Tools\MSVC\14.29.30133\atlmfc\include\afxwin2.inl
; File D:\git\src\IBK\IBK_DRFN\ProjSrc\SrcChartEx\ChartAddIn\ChartDesignPropertyAddIn\ChartDesignPropertyAddIn\DlgGlobalLanguageTable.cpp
; File C:\Program Files (x86)\Microsoft Visual Studio\2019\Community\VC\Tools\MSVC\14.29.30133\atlmfc\include\afxcmn.inl
; File D:\git\src\IBK\IBK_DRFN\ProjSrc\SrcChartEx\ChartAddIn\ChartDesignPropertyAddIn\ChartDesignPropertyAddIn\DlgGlobalLanguageTable.cpp
; File C:\Program Files (x86)\Microsoft Visual Studio\2019\Community\VC\Tools\MSVC\14.29.30133\atlmfc\include\afxcmn.inl
; File D:\git\src\IBK\IBK_DRFN\ProjSrc\SrcChartEx\ChartAddIn\ChartDesignPropertyAddIn\ChartDesignPropertyAddIn\DlgGlobalLanguageTable.cpp
; File C:\Program Files (x86)\Microsoft Visual Studio\2019\Community\VC\Tools\MSVC\14.29.30133\atlmfc\include\afxcmn.inl
; File D:\git\src\IBK\IBK_DRFN\ProjSrc\SrcChartEx\ChartAddIn\ChartDesignPropertyAddIn\ChartDesignPropertyAddIn\DlgGlobalLanguageTable.cpp
;	COMDAT ?OnDestroy@CDlgGlobalLanguageTable@@IAEXXZ
_TEXT	SEGMENT
_this$1$ = -4						; size = 4
?OnDestroy@CDlgGlobalLanguageTable@@IAEXXZ PROC		; CDlgGlobalLanguageTable::OnDestroy, COMDAT
; _this$ = ecx

; 288  : {

  00000	55		 push	 ebp
  00001	8b ec		 mov	 ebp, esp
  00003	51		 push	 ecx
  00004	53		 push	 ebx
  00005	8b d9		 mov	 ebx, ecx
  00007	57		 push	 edi
  00008	89 5d fc	 mov	 DWORD PTR _this$1$[ebp], ebx

; 289  : 	CDialog::OnDestroy();

  0000b	e8 00 00 00 00	 call	 ?OnDestroy@CWnd@@IAEXXZ	; CWnd::OnDestroy

; 292  : 	if( IsWindow( m_lstMetaTable.GetSafeHwnd()))

  00010	8d bb 28 01 00
	00		 lea	 edi, DWORD PTR [ebx+296]
; File C:\Program Files (x86)\Microsoft Visual Studio\2019\Community\VC\Tools\MSVC\14.29.30133\atlmfc\include\afxwin2.inl

; 25   : 	{ return this == NULL ? NULL : m_hWnd; }

  00016	85 ff		 test	 edi, edi
  00018	75 04		 jne	 SHORT $LN11@OnDestroy
  0001a	33 c0		 xor	 eax, eax
  0001c	eb 03		 jmp	 SHORT $LN12@OnDestroy
$LN11@OnDestroy:
  0001e	8b 47 20	 mov	 eax, DWORD PTR [edi+32]
$LN12@OnDestroy:
; File D:\git\src\IBK\IBK_DRFN\ProjSrc\SrcChartEx\ChartAddIn\ChartDesignPropertyAddIn\ChartDesignPropertyAddIn\DlgGlobalLanguageTable.cpp

; 292  : 	if( IsWindow( m_lstMetaTable.GetSafeHwnd()))

  00021	50		 push	 eax
  00022	ff 15 00 00 00
	00		 call	 DWORD PTR __imp__IsWindow@4
  00028	85 c0		 test	 eax, eax
  0002a	74 57		 je	 SHORT $LN5@OnDestroy
; File C:\Program Files (x86)\Microsoft Visual Studio\2019\Community\VC\Tools\MSVC\14.29.30133\atlmfc\include\afxcmn.inl

; 155  : 	{ ASSERT(::IsWindow(m_hWnd)); return (int) ::SendMessage(m_hWnd, LVM_GETITEMCOUNT, 0, 0L); }

  0002c	56		 push	 esi
  0002d	6a 00		 push	 0
  0002f	6a 00		 push	 0
  00031	68 04 10 00 00	 push	 4100			; 00001004H
  00036	ff b3 48 01 00
	00		 push	 DWORD PTR [ebx+328]
  0003c	ff 15 00 00 00
	00		 call	 DWORD PTR __imp__SendMessageA@16
; File D:\git\src\IBK\IBK_DRFN\ProjSrc\SrcChartEx\ChartAddIn\ChartDesignPropertyAddIn\ChartDesignPropertyAddIn\DlgGlobalLanguageTable.cpp

; 294  : 		int nTextCount = m_lstMetaTable.GetItemCount();

  00042	8b d8		 mov	 ebx, eax
; File C:\Program Files (x86)\Microsoft Visual Studio\2019\Community\VC\Tools\MSVC\14.29.30133\atlmfc\include\afxcmn.inl

; 155  : 	{ ASSERT(::IsWindow(m_hWnd)); return (int) ::SendMessage(m_hWnd, LVM_GETITEMCOUNT, 0, 0L); }

  00044	33 f6		 xor	 esi, esi
; File D:\git\src\IBK\IBK_DRFN\ProjSrc\SrcChartEx\ChartAddIn\ChartDesignPropertyAddIn\ChartDesignPropertyAddIn\DlgGlobalLanguageTable.cpp

; 295  : 		for( int j = 0; j < nTextCount; j++)

  00046	85 db		 test	 ebx, ebx
  00048	7e 20		 jle	 SHORT $LN3@OnDestroy
  0004a	66 0f 1f 44 00
	00		 npad	 6
$LL4@OnDestroy:

; 296  : 		{
; 297  : 			CStringArray *psaItems = ( CStringArray *)m_lstMetaTable.GetItemData( j);

  00050	56		 push	 esi
  00051	8b cf		 mov	 ecx, edi
  00053	e8 00 00 00 00	 call	 ?GetItemData@CListCtrl@@QBEKH@Z ; CListCtrl::GetItemData

; 298  : 			delete psaItems;

  00058	85 c0		 test	 eax, eax
  0005a	74 09		 je	 SHORT $LN2@OnDestroy
  0005c	8b 10		 mov	 edx, DWORD PTR [eax]
  0005e	8b c8		 mov	 ecx, eax
  00060	6a 01		 push	 1
  00062	ff 52 04	 call	 DWORD PTR [edx+4]
$LN2@OnDestroy:

; 295  : 		for( int j = 0; j < nTextCount; j++)

  00065	46		 inc	 esi
  00066	3b f3		 cmp	 esi, ebx
  00068	7c e6		 jl	 SHORT $LL4@OnDestroy
$LN3@OnDestroy:
; File C:\Program Files (x86)\Microsoft Visual Studio\2019\Community\VC\Tools\MSVC\14.29.30133\atlmfc\include\afxcmn.inl

; 171  : 	{ ASSERT(::IsWindow(m_hWnd)); return (BOOL) ::SendMessage(m_hWnd, LVM_DELETEALLITEMS, 0, 0L); }

  0006a	8b 45 fc	 mov	 eax, DWORD PTR _this$1$[ebp]
  0006d	6a 00		 push	 0
  0006f	6a 00		 push	 0
  00071	68 09 10 00 00	 push	 4105			; 00001009H
  00076	ff b0 48 01 00
	00		 push	 DWORD PTR [eax+328]
  0007c	ff 15 00 00 00
	00		 call	 DWORD PTR __imp__SendMessageA@16
  00082	5e		 pop	 esi
$LN5@OnDestroy:
  00083	5f		 pop	 edi
; File D:\git\src\IBK\IBK_DRFN\ProjSrc\SrcChartEx\ChartAddIn\ChartDesignPropertyAddIn\ChartDesignPropertyAddIn\DlgGlobalLanguageTable.cpp

; 302  : }

  00084	5b		 pop	 ebx
  00085	8b e5		 mov	 esp, ebp
  00087	5d		 pop	 ebp
  00088	c3		 ret	 0
?OnDestroy@CDlgGlobalLanguageTable@@IAEXXZ ENDP		; CDlgGlobalLanguageTable::OnDestroy
_TEXT	ENDS
; Function compile flags: /Ogtp
; File D:\git\src\IBK\IBK_DRFN\ProjSrc\SrcChartEx\ChartAddIn\ChartDesignPropertyAddIn\ChartDesignPropertyAddIn\DlgGlobalLanguageTable.cpp
; File C:\Program Files (x86)\Microsoft Visual Studio\2019\Community\VC\Tools\MSVC\14.29.30133\atlmfc\include\afxwin2.inl
; File D:\git\src\IBK\IBK_DRFN\ProjSrc\SrcChartEx\ChartAddIn\ChartDesignPropertyAddIn\ChartDesignPropertyAddIn\DlgGlobalLanguageTable.cpp
;	COMDAT ?OnItemchangedLstMetaTable@CDlgGlobalLanguageTable@@IAEXPAUtagNMHDR@@PAJ@Z
_TEXT	SEGMENT
__$EHRec$ = -12						; size = 12
_pNMHDR$ = 8						; size = 4
_strMetaText$ = 12					; size = 4
_pResult$ = 12						; size = 4
?OnItemchangedLstMetaTable@CDlgGlobalLanguageTable@@IAEXPAUtagNMHDR@@PAJ@Z PROC ; CDlgGlobalLanguageTable::OnItemchangedLstMetaTable, COMDAT
; _this$ = ecx

; 240  : {

  00000	55		 push	 ebp
  00001	8b ec		 mov	 ebp, esp
  00003	6a ff		 push	 -1
  00005	68 00 00 00 00	 push	 __ehhandler$?OnItemchangedLstMetaTable@CDlgGlobalLanguageTable@@IAEXPAUtagNMHDR@@PAJ@Z
  0000a	64 a1 00 00 00
	00		 mov	 eax, DWORD PTR fs:0
  00010	50		 push	 eax
  00011	56		 push	 esi
  00012	57		 push	 edi
  00013	a1 00 00 00 00	 mov	 eax, DWORD PTR ___security_cookie
  00018	33 c5		 xor	 eax, ebp
  0001a	50		 push	 eax
  0001b	8d 45 f4	 lea	 eax, DWORD PTR __$EHRec$[ebp]
  0001e	64 a3 00 00 00
	00		 mov	 DWORD PTR fs:0, eax
  00024	8b f1		 mov	 esi, ecx

; 241  : 	NM_LISTVIEW* pNMListView = (NM_LISTVIEW*)pNMHDR;
; 242  : 	// TODO: Add your control notification handler code here
; 243  : 	*pResult = 0;

  00026	8b 45 0c	 mov	 eax, DWORD PTR _pResult$[ebp]
  00029	c7 00 00 00 00
	00		 mov	 DWORD PTR [eax], 0

; 244  : 
; 245  : 	if( !pNMListView) return;

  0002f	8b 45 08	 mov	 eax, DWORD PTR _pNMHDR$[ebp]
  00032	85 c0		 test	 eax, eax
  00034	74 78		 je	 SHORT $LN1@OnItemchan

; 246  : 	if( !( pNMListView->uChanged & LVIF_STATE)) return;

  00036	f6 40 1c 08	 test	 BYTE PTR [eax+28], 8
  0003a	74 72		 je	 SHORT $LN1@OnItemchan

; 247  : 	if( !( pNMListView->uNewState & LVIS_SELECTED)) return;

  0003c	f6 40 14 02	 test	 BYTE PTR [eax+20], 2
  00040	74 6c		 je	 SHORT $LN1@OnItemchan

; 248  : 
; 249  : 	CString strMetaText = m_lstMetaTable.GetItemText( pNMListView->iItem, 0);

  00042	6a 00		 push	 0
  00044	ff 70 0c	 push	 DWORD PTR [eax+12]
  00047	8d 45 0c	 lea	 eax, DWORD PTR _strMetaText$[ebp]
  0004a	50		 push	 eax
  0004b	8d 8e 28 01 00
	00		 lea	 ecx, DWORD PTR [esi+296]
  00051	e8 00 00 00 00	 call	 ?GetItemText@CListCtrl@@QBE?AV?$CStringT@DV?$StrTraitMFC_DLL@DV?$ChTraitsCRT@D@ATL@@@@@ATL@@HH@Z ; CListCtrl::GetItemText

; 250  : 	CEdit *pCopyBuffer = ( CEdit *)GetDlgItem( IDC_EDT_COPY_BUFFER);

  00056	68 e2 07 00 00	 push	 2018			; 000007e2H
  0005b	8b ce		 mov	 ecx, esi
  0005d	c7 45 fc 00 00
	00 00		 mov	 DWORD PTR __$EHRec$[ebp+8], 0
  00064	e8 00 00 00 00	 call	 ?GetDlgItem@CWnd@@QBEPAV1@H@Z ; CWnd::GetDlgItem

; 251  : 	pCopyBuffer->SetWindowText( strMetaText);

  00069	ff 75 0c	 push	 DWORD PTR _strMetaText$[ebp]
  0006c	8b f8		 mov	 edi, eax
  0006e	8b cf		 mov	 ecx, edi
  00070	e8 00 00 00 00	 call	 ?SetWindowTextA@CWnd@@QAEXPBD@Z ; CWnd::SetWindowTextA
; File C:\Program Files (x86)\Microsoft Visual Studio\2019\Community\VC\Tools\MSVC\14.29.30133\atlmfc\include\afxwin2.inl

; 909  : 	{ ASSERT(::IsWindow(m_hWnd)); ::SendMessage(m_hWnd, EM_SETSEL, nStartChar, nEndChar);

  00075	8b 35 00 00 00
	00		 mov	 esi, DWORD PTR __imp__SendMessageA@16
  0007b	6a ff		 push	 -1
  0007d	6a 00		 push	 0
  0007f	68 b1 00 00 00	 push	 177			; 000000b1H
  00084	ff 77 20	 push	 DWORD PTR [edi+32]
  00087	ff d6		 call	 esi

; 910  : 	  if (!bNoScroll)
; 911  : 		::SendMessage(m_hWnd, EM_SCROLLCARET, 0, 0); }

  00089	6a 00		 push	 0
  0008b	6a 00		 push	 0
  0008d	68 b7 00 00 00	 push	 183			; 000000b7H
  00092	ff 77 20	 push	 DWORD PTR [edi+32]
  00095	ff d6		 call	 esi

; 925  : 	{ ASSERT(::IsWindow(m_hWnd)); ::SendMessage(m_hWnd, WM_COPY, 0, 0); }

  00097	6a 00		 push	 0
  00099	6a 00		 push	 0
  0009b	68 01 03 00 00	 push	 769			; 00000301H
  000a0	ff 77 20	 push	 DWORD PTR [edi+32]
  000a3	ff d6		 call	 esi
; File D:\git\src\IBK\IBK_DRFN\ProjSrc\SrcChartEx\ChartAddIn\ChartDesignPropertyAddIn\ChartDesignPropertyAddIn\DlgGlobalLanguageTable.cpp

; 254  : }

  000a5	8d 4d 0c	 lea	 ecx, DWORD PTR _strMetaText$[ebp]
  000a8	ff 15 00 00 00
	00		 call	 DWORD PTR __imp_??1?$CStringT@DV?$StrTraitMFC_DLL@DV?$ChTraitsCRT@D@ATL@@@@@ATL@@QAE@XZ
$LN1@OnItemchan:
  000ae	8b 4d f4	 mov	 ecx, DWORD PTR __$EHRec$[ebp]
  000b1	64 89 0d 00 00
	00 00		 mov	 DWORD PTR fs:0, ecx
  000b8	59		 pop	 ecx
  000b9	5f		 pop	 edi
  000ba	5e		 pop	 esi
  000bb	8b e5		 mov	 esp, ebp
  000bd	5d		 pop	 ebp
  000be	c2 08 00	 ret	 8
_TEXT	ENDS
;	COMDAT text$x
text$x	SEGMENT
__unwindfunclet$?OnItemchangedLstMetaTable@CDlgGlobalLanguageTable@@IAEXPAUtagNMHDR@@PAJ@Z$0:
  00000	8d 4d 0c	 lea	 ecx, DWORD PTR _strMetaText$[ebp]
  00003	ff 25 00 00 00
	00		 jmp	 DWORD PTR __imp_??1?$CStringT@DV?$StrTraitMFC_DLL@DV?$ChTraitsCRT@D@ATL@@@@@ATL@@QAE@XZ
  00009	cc		 int	 3
  0000a	cc		 int	 3
  0000b	cc		 int	 3
  0000c	cc		 int	 3
  0000d	cc		 int	 3
__ehhandler$?OnItemchangedLstMetaTable@CDlgGlobalLanguageTable@@IAEXPAUtagNMHDR@@PAJ@Z:
  0000e	90		 npad	 1
  0000f	90		 npad	 1
  00010	8b 54 24 08	 mov	 edx, DWORD PTR [esp+8]
  00014	8d 42 0c	 lea	 eax, DWORD PTR [edx+12]
  00017	8b 4a f4	 mov	 ecx, DWORD PTR [edx-12]
  0001a	33 c8		 xor	 ecx, eax
  0001c	e8 00 00 00 00	 call	 @__security_check_cookie@4
  00021	b8 00 00 00 00	 mov	 eax, OFFSET __ehfuncinfo$?OnItemchangedLstMetaTable@CDlgGlobalLanguageTable@@IAEXPAUtagNMHDR@@PAJ@Z
  00026	e9 00 00 00 00	 jmp	 ___CxxFrameHandler3
text$x	ENDS
?OnItemchangedLstMetaTable@CDlgGlobalLanguageTable@@IAEXPAUtagNMHDR@@PAJ@Z ENDP ; CDlgGlobalLanguageTable::OnItemchangedLstMetaTable
; Function compile flags: /Ogtp
; File D:\git\src\IBK\IBK_DRFN\ProjSrc\SrcChartEx\ChartAddIn\ChartDesignPropertyAddIn\ChartDesignPropertyAddIn\DlgGlobalLanguageTable.cpp
; File C:\Program Files (x86)\Microsoft Visual Studio\2019\Community\VC\Tools\MSVC\14.29.30133\atlmfc\include\afxwin2.inl
; File D:\git\src\IBK\IBK_DRFN\ProjSrc\SrcChartEx\ChartAddIn\ChartDesignPropertyAddIn\ChartDesignPropertyAddIn\DlgGlobalLanguageTable.cpp
; File C:\Program Files (x86)\Microsoft Visual Studio\2019\Community\VC\Tools\MSVC\14.29.30133\atlmfc\include\afxcmn.inl
; File D:\git\src\IBK\IBK_DRFN\ProjSrc\SrcChartEx\ChartAddIn\ChartDesignPropertyAddIn\ChartDesignPropertyAddIn\DlgGlobalLanguageTable.cpp
; File C:\Program Files (x86)\Microsoft Visual Studio\2019\Community\VC\Tools\MSVC\14.29.30133\atlmfc\include\afxcmn.inl
; File D:\git\src\IBK\IBK_DRFN\ProjSrc\SrcChartEx\ChartAddIn\ChartDesignPropertyAddIn\ChartDesignPropertyAddIn\DlgGlobalLanguageTable.cpp
; File C:\Program Files (x86)\Microsoft Visual Studio\2019\Community\VC\Tools\MSVC\14.29.30133\atlmfc\include\afxcmn.inl
; File D:\git\src\IBK\IBK_DRFN\ProjSrc\SrcChartEx\ChartAddIn\ChartDesignPropertyAddIn\Include_Chart\Dll_Load\IMetaTable.h
; File D:\git\src\IBK\IBK_DRFN\ProjSrc\SrcChartEx\ChartAddIn\ChartDesignPropertyAddIn\ChartDesignPropertyAddIn\DlgGlobalLanguageTable.cpp
; File D:\git\src\IBK\IBK_DRFN\ProjSrc\SrcChartEx\ChartAddIn\ChartDesignPropertyAddIn\Include_Chart\Dll_Load\IMetaTable.h
; File D:\git\src\IBK\IBK_DRFN\ProjSrc\SrcChartEx\ChartAddIn\ChartDesignPropertyAddIn\ChartDesignPropertyAddIn\DlgGlobalLanguageTable.cpp
; File D:\git\src\IBK\IBK_DRFN\ProjSrc\SrcChartEx\ChartAddIn\ChartDesignPropertyAddIn\Include_Chart\Dll_Load\IMetaTable.h
; File D:\git\src\IBK\IBK_DRFN\ProjSrc\SrcChartEx\ChartAddIn\ChartDesignPropertyAddIn\ChartDesignPropertyAddIn\DlgGlobalLanguageTable.cpp
; File C:\Program Files (x86)\Microsoft Visual Studio\2019\Community\VC\Tools\MSVC\14.29.30133\atlmfc\include\afx.inl
; File D:\git\src\IBK\IBK_DRFN\ProjSrc\SrcChartEx\ChartAddIn\ChartDesignPropertyAddIn\ChartDesignPropertyAddIn\DlgGlobalLanguageTable.cpp
; File C:\Program Files (x86)\Microsoft Visual Studio\2019\Community\VC\Tools\MSVC\14.29.30133\atlmfc\include\afxcoll.inl
; File D:\git\src\IBK\IBK_DRFN\ProjSrc\SrcChartEx\ChartAddIn\ChartDesignPropertyAddIn\ChartDesignPropertyAddIn\DlgGlobalLanguageTable.cpp
; File C:\Program Files (x86)\Microsoft Visual Studio\2019\Community\VC\Tools\MSVC\14.29.30133\atlmfc\include\afxcmn.inl
; File D:\git\src\IBK\IBK_DRFN\ProjSrc\SrcChartEx\ChartAddIn\ChartDesignPropertyAddIn\ChartDesignPropertyAddIn\DlgGlobalLanguageTable.cpp
; File C:\Program Files (x86)\Microsoft Visual Studio\2019\Community\VC\Tools\MSVC\14.29.30133\atlmfc\include\afxcmn.inl
; File D:\git\src\IBK\IBK_DRFN\ProjSrc\SrcChartEx\ChartAddIn\ChartDesignPropertyAddIn\ChartDesignPropertyAddIn\DlgGlobalLanguageTable.cpp
; File C:\Program Files (x86)\Microsoft Visual Studio\2019\Community\VC\Tools\MSVC\14.29.30133\atlmfc\include\afxcoll.inl
; File D:\git\src\IBK\IBK_DRFN\ProjSrc\SrcChartEx\ChartAddIn\ChartDesignPropertyAddIn\ChartDesignPropertyAddIn\DlgGlobalLanguageTable.cpp
; File C:\Program Files (x86)\Microsoft Visual Studio\2019\Community\VC\Tools\MSVC\14.29.30133\atlmfc\include\afxcmn.inl
; File D:\git\src\IBK\IBK_DRFN\ProjSrc\SrcChartEx\ChartAddIn\ChartDesignPropertyAddIn\ChartDesignPropertyAddIn\DlgGlobalLanguageTable.cpp
; File C:\Program Files (x86)\Microsoft Visual Studio\2019\Community\VC\Tools\MSVC\14.29.30133\atlmfc\include\afxcoll.inl
; File D:\git\src\IBK\IBK_DRFN\ProjSrc\SrcChartEx\ChartAddIn\ChartDesignPropertyAddIn\ChartDesignPropertyAddIn\DlgGlobalLanguageTable.cpp
;	COMDAT ?OnSelchangeCmbTableType@CDlgGlobalLanguageTable@@IAEXXZ
_TEXT	SEGMENT
$T2 = -48						; size = 4
tv441 = -44						; size = 4
_nTextCount$2$ = -40					; size = 4
_j$2$ = -36						; size = 4
_nIndex$1$ = -32					; size = 4
tv433 = -28						; size = 4
_nTableType$1$ = -24					; size = 4
_szMetaTexts$1$ = -20					; size = 4
_this$1$ = -16						; size = 4
__$EHRec$ = -12						; size = 12
?OnSelchangeCmbTableType@CDlgGlobalLanguageTable@@IAEXXZ PROC ; CDlgGlobalLanguageTable::OnSelchangeCmbTableType, COMDAT
; _this$ = ecx

; 196  : {

  00000	55		 push	 ebp
  00001	8b ec		 mov	 ebp, esp
  00003	6a ff		 push	 -1
  00005	68 00 00 00 00	 push	 __ehhandler$?OnSelchangeCmbTableType@CDlgGlobalLanguageTable@@IAEXXZ
  0000a	64 a1 00 00 00
	00		 mov	 eax, DWORD PTR fs:0
  00010	50		 push	 eax
  00011	83 ec 24	 sub	 esp, 36			; 00000024H
  00014	53		 push	 ebx
  00015	56		 push	 esi
  00016	57		 push	 edi
  00017	a1 00 00 00 00	 mov	 eax, DWORD PTR ___security_cookie
  0001c	33 c5		 xor	 eax, ebp
  0001e	50		 push	 eax
  0001f	8d 45 f4	 lea	 eax, DWORD PTR __$EHRec$[ebp]
  00022	64 a3 00 00 00
	00		 mov	 DWORD PTR fs:0, eax
  00028	8b f1		 mov	 esi, ecx
  0002a	89 75 f0	 mov	 DWORD PTR _this$1$[ebp], esi
; File C:\Program Files (x86)\Microsoft Visual Studio\2019\Community\VC\Tools\MSVC\14.29.30133\atlmfc\include\afxwin2.inl

; 765  : 	{ ASSERT(::IsWindow(m_hWnd)); return (int)::SendMessage(m_hWnd, CB_GETCURSEL, 0, 0); }

  0002d	8b 1d 00 00 00
	00		 mov	 ebx, DWORD PTR __imp__SendMessageA@16
  00033	6a 00		 push	 0
  00035	6a 00		 push	 0
  00037	68 47 01 00 00	 push	 327			; 00000147H
  0003c	ff b6 c8 00 00
	00		 push	 DWORD PTR [esi+200]
  00042	ff d3		 call	 ebx
; File D:\git\src\IBK\IBK_DRFN\ProjSrc\SrcChartEx\ChartAddIn\ChartDesignPropertyAddIn\ChartDesignPropertyAddIn\DlgGlobalLanguageTable.cpp

; 199  : 	int nTableType = m_cmbTableType.GetCurSel();

  00044	89 45 e8	 mov	 DWORD PTR _nTableType$1$[ebp], eax

; 200  : 	if( nTableType < 0 || IMetaTable::CODE_PAGE_END <= nTableType) return;

  00047	83 f8 08	 cmp	 eax, 8
  0004a	0f 87 4d 02 00
	00		 ja	 $LN12@OnSelchang
; File C:\Program Files (x86)\Microsoft Visual Studio\2019\Community\VC\Tools\MSVC\14.29.30133\atlmfc\include\afxcmn.inl

; 155  : 	{ ASSERT(::IsWindow(m_hWnd)); return (int) ::SendMessage(m_hWnd, LVM_GETITEMCOUNT, 0, 0L); }

  00050	6a 00		 push	 0
  00052	6a 00		 push	 0
  00054	68 04 10 00 00	 push	 4100			; 00001004H
  00059	ff b6 48 01 00
	00		 push	 DWORD PTR [esi+328]
  0005f	ff d3		 call	 ebx
; File D:\git\src\IBK\IBK_DRFN\ProjSrc\SrcChartEx\ChartAddIn\ChartDesignPropertyAddIn\ChartDesignPropertyAddIn\DlgGlobalLanguageTable.cpp

; 202  : 	int nTextCount = m_lstMetaTable.GetItemCount();

  00061	8b f8		 mov	 edi, eax
; File C:\Program Files (x86)\Microsoft Visual Studio\2019\Community\VC\Tools\MSVC\14.29.30133\atlmfc\include\afxcmn.inl

; 155  : 	{ ASSERT(::IsWindow(m_hWnd)); return (int) ::SendMessage(m_hWnd, LVM_GETITEMCOUNT, 0, 0L); }

  00063	33 f6		 xor	 esi, esi
; File D:\git\src\IBK\IBK_DRFN\ProjSrc\SrcChartEx\ChartAddIn\ChartDesignPropertyAddIn\ChartDesignPropertyAddIn\DlgGlobalLanguageTable.cpp

; 204  : 	for(  j = 0; j < nTextCount; j++)

  00065	85 ff		 test	 edi, edi
  00067	7e 2b		 jle	 SHORT $LN3@OnSelchang
  00069	8b 5d f0	 mov	 ebx, DWORD PTR _this$1$[ebp]
  0006c	0f 1f 40 00	 npad	 4
$LL4@OnSelchang:

; 205  : 	{
; 206  : 		CStringArray *psaItems = ( CStringArray *)m_lstMetaTable.GetItemData( j);

  00070	56		 push	 esi
  00071	8d 8b 28 01 00
	00		 lea	 ecx, DWORD PTR [ebx+296]
  00077	e8 00 00 00 00	 call	 ?GetItemData@CListCtrl@@QBEKH@Z ; CListCtrl::GetItemData

; 207  : 		delete psaItems;

  0007c	85 c0		 test	 eax, eax
  0007e	74 09		 je	 SHORT $LN2@OnSelchang
  00080	8b 10		 mov	 edx, DWORD PTR [eax]
  00082	8b c8		 mov	 ecx, eax
  00084	6a 01		 push	 1
  00086	ff 52 04	 call	 DWORD PTR [edx+4]
$LN2@OnSelchang:

; 204  : 	for(  j = 0; j < nTextCount; j++)

  00089	46		 inc	 esi
  0008a	3b f7		 cmp	 esi, edi
  0008c	7c e2		 jl	 SHORT $LL4@OnSelchang
  0008e	8b 1d 00 00 00
	00		 mov	 ebx, DWORD PTR __imp__SendMessageA@16
$LN3@OnSelchang:
; File C:\Program Files (x86)\Microsoft Visual Studio\2019\Community\VC\Tools\MSVC\14.29.30133\atlmfc\include\afxcmn.inl

; 171  : 	{ ASSERT(::IsWindow(m_hWnd)); return (BOOL) ::SendMessage(m_hWnd, LVM_DELETEALLITEMS, 0, 0L); }

  00094	8b 45 f0	 mov	 eax, DWORD PTR _this$1$[ebp]
  00097	6a 00		 push	 0
  00099	6a 00		 push	 0
  0009b	68 09 10 00 00	 push	 4105			; 00001009H
  000a0	ff b0 48 01 00
	00		 push	 DWORD PTR [eax+328]
  000a6	ff d3		 call	 ebx
; File D:\git\src\IBK\IBK_DRFN\ProjSrc\SrcChartEx\ChartAddIn\ChartDesignPropertyAddIn\Include_Chart\Dll_Load\IMetaTable.h

; 937  : 	DECLARE_FUNCTION1(	GetMetaTextCount,				int, 0, E_CODEPAGE);

  000a8	a1 04 00 00 00	 mov	 eax, DWORD PTR ?g_iMetaTable@@3VIMetaTable@@A+4
  000ad	bb 80 0d 00 00	 mov	 ebx, 3456		; 00000d80H
  000b2	8b 35 00 00 00
	00		 mov	 esi, DWORD PTR __imp__GetProcAddress@8
  000b8	85 c0		 test	 eax, eax
  000ba	74 3f		 je	 SHORT $LN28@OnSelchang
  000bc	66 3b 1d 9c 00
	00 00		 cmp	 bx, WORD PTR ?g_iMetaTable@@3VIMetaTable@@A+156
  000c3	74 20		 je	 SHORT $LN64@OnSelchang
  000c5	68 00 00 00 00	 push	 OFFSET ??_C@_0BB@NBLJOLNL@GetMetaTextCount@
  000ca	50		 push	 eax
  000cb	c7 05 98 00 00
	00 00 00 00 00	 mov	 DWORD PTR ?g_iMetaTable@@3VIMetaTable@@A+152, 0
  000d5	ff d6		 call	 esi
  000d7	a3 98 00 00 00	 mov	 DWORD PTR ?g_iMetaTable@@3VIMetaTable@@A+152, eax
  000dc	66 89 1d 9c 00
	00 00		 mov	 WORD PTR ?g_iMetaTable@@3VIMetaTable@@A+156, bx
  000e3	eb 05		 jmp	 SHORT $LN27@OnSelchang
$LN64@OnSelchang:
  000e5	a1 98 00 00 00	 mov	 eax, DWORD PTR ?g_iMetaTable@@3VIMetaTable@@A+152
$LN27@OnSelchang:
  000ea	85 c0		 test	 eax, eax
  000ec	74 0d		 je	 SHORT $LN28@OnSelchang
  000ee	8b 5d e8	 mov	 ebx, DWORD PTR _nTableType$1$[ebp]
  000f1	53		 push	 ebx
  000f2	ff d0		 call	 eax
  000f4	83 c4 04	 add	 esp, 4
  000f7	8b f8		 mov	 edi, eax
  000f9	eb 05		 jmp	 SHORT $LN69@OnSelchang
$LN28@OnSelchang:
  000fb	8b 5d e8	 mov	 ebx, DWORD PTR _nTableType$1$[ebp]
  000fe	33 ff		 xor	 edi, edi
$LN69@OnSelchang:
; File D:\git\src\IBK\IBK_DRFN\ProjSrc\SrcChartEx\ChartAddIn\ChartDesignPropertyAddIn\ChartDesignPropertyAddIn\DlgGlobalLanguageTable.cpp

; 213  : 	char **szMetaTexts = new char *[ nTextCount];

  00100	33 c9		 xor	 ecx, ecx
  00102	89 7d d8	 mov	 DWORD PTR _nTextCount$2$[ebp], edi
  00105	8b c7		 mov	 eax, edi
  00107	ba 04 00 00 00	 mov	 edx, 4
  0010c	f7 e2		 mul	 edx
  0010e	0f 90 c1	 seto	 cl
  00111	f7 d9		 neg	 ecx
  00113	0b c8		 or	 ecx, eax
  00115	51		 push	 ecx
  00116	e8 00 00 00 00	 call	 ??_U@YAPAXI@Z		; operator new[]
; File D:\git\src\IBK\IBK_DRFN\ProjSrc\SrcChartEx\ChartAddIn\ChartDesignPropertyAddIn\Include_Chart\Dll_Load\IMetaTable.h

; 938  : 	DECLARE_FUNCTION2(	GetAllMetaTexts,				BOOL, FALSE, E_CODEPAGE, char **);

  0011b	8b 0d 04 00 00
	00		 mov	 ecx, DWORD PTR ?g_iMetaTable@@3VIMetaTable@@A+4
; File D:\git\src\IBK\IBK_DRFN\ProjSrc\SrcChartEx\ChartAddIn\ChartDesignPropertyAddIn\ChartDesignPropertyAddIn\DlgGlobalLanguageTable.cpp

; 213  : 	char **szMetaTexts = new char *[ nTextCount];

  00121	83 c4 04	 add	 esp, 4
  00124	89 45 ec	 mov	 DWORD PTR _szMetaTexts$1$[ebp], eax
; File D:\git\src\IBK\IBK_DRFN\ProjSrc\SrcChartEx\ChartAddIn\ChartDesignPropertyAddIn\Include_Chart\Dll_Load\IMetaTable.h

; 938  : 	DECLARE_FUNCTION2(	GetAllMetaTexts,				BOOL, FALSE, E_CODEPAGE, char **);

  00127	85 c9		 test	 ecx, ecx
  00129	74 48		 je	 SHORT $LN33@OnSelchang
  0012b	b8 80 0d 00 00	 mov	 eax, 3456		; 00000d80H
  00130	66 3b 05 a4 00
	00 00		 cmp	 ax, WORD PTR ?g_iMetaTable@@3VIMetaTable@@A+164
  00137	74 25		 je	 SHORT $LN65@OnSelchang
  00139	68 00 00 00 00	 push	 OFFSET ??_C@_0BA@BCPDFAJN@GetAllMetaTexts@
  0013e	51		 push	 ecx
  0013f	c7 05 a0 00 00
	00 00 00 00 00	 mov	 DWORD PTR ?g_iMetaTable@@3VIMetaTable@@A+160, 0
  00149	ff d6		 call	 esi
  0014b	b9 80 0d 00 00	 mov	 ecx, 3456		; 00000d80H
  00150	a3 a0 00 00 00	 mov	 DWORD PTR ?g_iMetaTable@@3VIMetaTable@@A+160, eax
  00155	66 89 0d a4 00
	00 00		 mov	 WORD PTR ?g_iMetaTable@@3VIMetaTable@@A+164, cx
  0015c	eb 05		 jmp	 SHORT $LN32@OnSelchang
$LN65@OnSelchang:
  0015e	a1 a0 00 00 00	 mov	 eax, DWORD PTR ?g_iMetaTable@@3VIMetaTable@@A+160
$LN32@OnSelchang:
  00163	85 c0		 test	 eax, eax
  00165	74 09		 je	 SHORT $LN66@OnSelchang
  00167	ff 75 ec	 push	 DWORD PTR _szMetaTexts$1$[ebp]
  0016a	53		 push	 ebx
  0016b	ff d0		 call	 eax
  0016d	83 c4 08	 add	 esp, 8
$LN66@OnSelchang:
; File D:\git\src\IBK\IBK_DRFN\ProjSrc\SrcChartEx\ChartAddIn\ChartDesignPropertyAddIn\ChartDesignPropertyAddIn\DlgGlobalLanguageTable.cpp

; 215  : 	for( j = 0; j < nTextCount; j++)

  00170	8b 45 ec	 mov	 eax, DWORD PTR _szMetaTexts$1$[ebp]
$LN33@OnSelchang:
  00173	33 f6		 xor	 esi, esi
  00175	89 75 dc	 mov	 DWORD PTR _j$2$[ebp], esi
  00178	85 ff		 test	 edi, edi
  0017a	0f 8e fb 00 00
	00		 jle	 $LN6@OnSelchang
  00180	8b d8		 mov	 ebx, eax
  00182	89 45 e4	 mov	 DWORD PTR tv433[ebp], eax
$LL7@OnSelchang:
; File C:\Program Files (x86)\Microsoft Visual Studio\2019\Community\VC\Tools\MSVC\14.29.30133\atlmfc\include\afx.inl

; 116  : 	{ return ::operator new(nSize); }

  00185	6a 14		 push	 20			; 00000014H
  00187	e8 00 00 00 00	 call	 ??2@YAPAXI@Z		; operator new
  0018c	83 c4 04	 add	 esp, 4
; File D:\git\src\IBK\IBK_DRFN\ProjSrc\SrcChartEx\ChartAddIn\ChartDesignPropertyAddIn\ChartDesignPropertyAddIn\DlgGlobalLanguageTable.cpp

; 217  : 		CStringArray *psaItems = new CStringArray;

  0018f	89 45 d0	 mov	 DWORD PTR $T2[ebp], eax
  00192	c7 45 fc 00 00
	00 00		 mov	 DWORD PTR __$EHRec$[ebp+8], 0
  00199	85 c0		 test	 eax, eax
  0019b	74 0b		 je	 SHORT $LN16@OnSelchang
  0019d	8b c8		 mov	 ecx, eax
  0019f	e8 00 00 00 00	 call	 ??0CStringArray@@QAE@XZ	; CStringArray::CStringArray
  001a4	8b f8		 mov	 edi, eax
  001a6	eb 02		 jmp	 SHORT $LN17@OnSelchang
$LN16@OnSelchang:
  001a8	33 ff		 xor	 edi, edi
$LN17@OnSelchang:

; 218  : 		psaItems->SetSize( IMetaTable::LANGUAGE_ID_END + 1);		// +1 for Meta Text

  001aa	6a ff		 push	 -1
  001ac	6a 03		 push	 3
  001ae	8b cf		 mov	 ecx, edi
  001b0	c7 45 fc ff ff
	ff ff		 mov	 DWORD PTR __$EHRec$[ebp+8], -1
  001b7	e8 00 00 00 00	 call	 ?SetSize@CStringArray@@QAEXHH@Z ; CStringArray::SetSize
; File C:\Program Files (x86)\Microsoft Visual Studio\2019\Community\VC\Tools\MSVC\14.29.30133\atlmfc\include\afxcoll.inl

; 294  : 		if( nIndex < 0 || nIndex >= m_nSize )

  001bc	83 7f 08 00	 cmp	 DWORD PTR [edi+8], 0
  001c0	0f 8e e9 00 00
	00		 jle	 $LN53@OnSelchang

; 296  : 		m_pData[nIndex] = newElement; }

  001c6	ff 33		 push	 DWORD PTR [ebx]
  001c8	8b 4f 04	 mov	 ecx, DWORD PTR [edi+4]
  001cb	ff 15 00 00 00
	00		 call	 DWORD PTR __imp_??4?$CStringT@DV?$StrTraitMFC_DLL@DV?$ChTraitsCRT@D@ATL@@@@@ATL@@QAEAAV01@PBD@Z
; File D:\git\src\IBK\IBK_DRFN\ProjSrc\SrcChartEx\ChartAddIn\ChartDesignPropertyAddIn\ChartDesignPropertyAddIn\DlgGlobalLanguageTable.cpp

; 221  : 		nIndex = m_lstMetaTable.InsertItem( j, szMetaTexts[ j]);

  001d1	8b 4d f0	 mov	 ecx, DWORD PTR _this$1$[ebp]
; File C:\Program Files (x86)\Microsoft Visual Studio\2019\Community\VC\Tools\MSVC\14.29.30133\atlmfc\include\afxcmn.inl

; 165  : 	{ ASSERT(::IsWindow(m_hWnd)); return InsertItem(LVIF_TEXT, nItem, lpszItem, 0, 0, 0, 0); }

  001d4	6a 00		 push	 0
  001d6	6a 00		 push	 0
  001d8	6a 00		 push	 0
  001da	6a 00		 push	 0
  001dc	ff 33		 push	 DWORD PTR [ebx]
; File D:\git\src\IBK\IBK_DRFN\ProjSrc\SrcChartEx\ChartAddIn\ChartDesignPropertyAddIn\ChartDesignPropertyAddIn\DlgGlobalLanguageTable.cpp

; 221  : 		nIndex = m_lstMetaTable.InsertItem( j, szMetaTexts[ j]);

  001de	81 c1 28 01 00
	00		 add	 ecx, 296		; 00000128H
; File C:\Program Files (x86)\Microsoft Visual Studio\2019\Community\VC\Tools\MSVC\14.29.30133\atlmfc\include\afxcmn.inl

; 165  : 	{ ASSERT(::IsWindow(m_hWnd)); return InsertItem(LVIF_TEXT, nItem, lpszItem, 0, 0, 0, 0); }

  001e4	56		 push	 esi
  001e5	6a 01		 push	 1
  001e7	e8 00 00 00 00	 call	 ?InsertItem@CListCtrl@@QAEHIHPBDIIHJ@Z ; CListCtrl::InsertItem
; File D:\git\src\IBK\IBK_DRFN\ProjSrc\SrcChartEx\ChartAddIn\ChartDesignPropertyAddIn\ChartDesignPropertyAddIn\DlgGlobalLanguageTable.cpp

; 221  : 		nIndex = m_lstMetaTable.InsertItem( j, szMetaTexts[ j]);

  001ec	89 45 e0	 mov	 DWORD PTR _nIndex$1$[ebp], eax
  001ef	be 01 00 00 00	 mov	 esi, 1
$LL10@OnSelchang:

; 223  : 		{
; 224  : 			const char *szLanguageText = _MTOLDN( nTableType, i, szMetaTexts[ j]);

  001f4	ff 33		 push	 DWORD PTR [ebx]
  001f6	8d 4e ff	 lea	 ecx, DWORD PTR [esi-1]
  001f9	89 75 d4	 mov	 DWORD PTR tv441[ebp], esi
  001fc	51		 push	 ecx
  001fd	ff 75 e8	 push	 DWORD PTR _nTableType$1$[ebp]
  00200	b9 00 00 00 00	 mov	 ecx, OFFSET ?g_iMetaTable@@3VIMetaTable@@A ; g_iMetaTable
  00205	e8 00 00 00 00	 call	 ?GetLanguageTextDirectly@IMetaTable@@QAEPBDW4E_CODEPAGE@1@W4E_LANGUAGEID@1@PBD@Z ; IMetaTable::GetLanguageTextDirectly

; 225  : 			m_lstMetaTable.SetItemText( nIndex, i + 1, szLanguageText);

  0020a	8b 4d f0	 mov	 ecx, DWORD PTR _this$1$[ebp]
  0020d	8b d8		 mov	 ebx, eax
  0020f	53		 push	 ebx
  00210	56		 push	 esi
  00211	ff 75 e0	 push	 DWORD PTR _nIndex$1$[ebp]
  00214	8d 89 28 01 00
	00		 lea	 ecx, DWORD PTR [ecx+296]
  0021a	e8 00 00 00 00	 call	 ?SetItemText@CListCtrl@@QAEHHHPBD@Z ; CListCtrl::SetItemText
; File C:\Program Files (x86)\Microsoft Visual Studio\2019\Community\VC\Tools\MSVC\14.29.30133\atlmfc\include\afxcoll.inl

; 294  : 		if( nIndex < 0 || nIndex >= m_nSize )

  0021f	85 f6		 test	 esi, esi
  00221	0f 88 88 00 00
	00		 js	 $LN53@OnSelchang
  00227	3b 77 08	 cmp	 esi, DWORD PTR [edi+8]
  0022a	0f 8d 7f 00 00
	00		 jge	 $LN53@OnSelchang

; 296  : 		m_pData[nIndex] = newElement; }

  00230	8b 47 04	 mov	 eax, DWORD PTR [edi+4]
  00233	53		 push	 ebx
  00234	8d 0c b0	 lea	 ecx, DWORD PTR [eax+esi*4]
  00237	ff 15 00 00 00
	00		 call	 DWORD PTR __imp_??4?$CStringT@DV?$StrTraitMFC_DLL@DV?$ChTraitsCRT@D@ATL@@@@@ATL@@QAEAAV01@PBD@Z
; File D:\git\src\IBK\IBK_DRFN\ProjSrc\SrcChartEx\ChartAddIn\ChartDesignPropertyAddIn\ChartDesignPropertyAddIn\DlgGlobalLanguageTable.cpp

; 222  : 		for( int i = IMetaTable::ENGLISH; i < IMetaTable::LANGUAGE_ID_END; i++)

  0023d	8b 5d e4	 mov	 ebx, DWORD PTR tv433[ebp]
  00240	46		 inc	 esi
  00241	83 7d d4 02	 cmp	 DWORD PTR tv441[ebp], 2
  00245	7c ad		 jl	 SHORT $LL10@OnSelchang
; File C:\Program Files (x86)\Microsoft Visual Studio\2019\Community\VC\Tools\MSVC\14.29.30133\atlmfc\include\afxcmn.inl

; 161  : 	{ ASSERT(::IsWindow(m_hWnd)); return SetItem(nItem, 0, LVIF_PARAM, NULL, 0, 0, 0, (LPARAM)dwData); }

  00247	8b 4d f0	 mov	 ecx, DWORD PTR _this$1$[ebp]
  0024a	57		 push	 edi
  0024b	6a 00		 push	 0
  0024d	6a 00		 push	 0
  0024f	6a 00		 push	 0
  00251	6a 00		 push	 0
  00253	6a 04		 push	 4
  00255	6a 00		 push	 0
  00257	ff 75 e0	 push	 DWORD PTR _nIndex$1$[ebp]
  0025a	8d 89 28 01 00
	00		 lea	 ecx, DWORD PTR [ecx+296]
  00260	e8 00 00 00 00	 call	 ?SetItem@CListCtrl@@QAEHHHIPBDHIIJ@Z ; CListCtrl::SetItem
; File D:\git\src\IBK\IBK_DRFN\ProjSrc\SrcChartEx\ChartAddIn\ChartDesignPropertyAddIn\ChartDesignPropertyAddIn\DlgGlobalLanguageTable.cpp

; 215  : 	for( j = 0; j < nTextCount; j++)

  00265	8b 75 dc	 mov	 esi, DWORD PTR _j$2$[ebp]
  00268	83 c3 04	 add	 ebx, 4
  0026b	46		 inc	 esi
  0026c	89 5d e4	 mov	 DWORD PTR tv433[ebp], ebx
  0026f	89 75 dc	 mov	 DWORD PTR _j$2$[ebp], esi
  00272	3b 75 d8	 cmp	 esi, DWORD PTR _nTextCount$2$[ebp]
  00275	0f 8c 0a ff ff
	ff		 jl	 $LL7@OnSelchang
$LN6@OnSelchang:

; 226  : 
; 227  : 			psaItems->SetAt( i + 1, szLanguageText);
; 228  : 		}
; 229  : 
; 230  : 		m_lstMetaTable.SetItemData( nIndex, ( DWORD)psaItems);
; 231  : 	}
; 232  : 	delete [] szMetaTexts;

  0027b	ff 75 ec	 push	 DWORD PTR _szMetaTexts$1$[ebp]
  0027e	e8 00 00 00 00	 call	 ??_V@YAXPAX@Z		; operator delete[]

; 233  : 
; 234  : 	// (2008/2/25 - Seung-Won, Bae) for Column Reverse Sort
; 235  : 	m_nSortColumn	= 0;

  00283	8b 45 f0	 mov	 eax, DWORD PTR _this$1$[ebp]
  00286	83 c4 04	 add	 esp, 4
  00289	c7 80 b0 01 00
	00 00 00 00 00	 mov	 DWORD PTR [eax+432], 0

; 236  : 	m_bSortASC		= TRUE;

  00293	c7 80 b4 01 00
	00 01 00 00 00	 mov	 DWORD PTR [eax+436], 1
$LN12@OnSelchang:

; 237  : }

  0029d	8b 4d f4	 mov	 ecx, DWORD PTR __$EHRec$[ebp]
  002a0	64 89 0d 00 00
	00 00		 mov	 DWORD PTR fs:0, ecx
  002a7	59		 pop	 ecx
  002a8	5f		 pop	 edi
  002a9	5e		 pop	 esi
  002aa	5b		 pop	 ebx
  002ab	8b e5		 mov	 esp, ebp
  002ad	5d		 pop	 ebp
  002ae	c3		 ret	 0
$LN53@OnSelchang:
; File C:\Program Files (x86)\Microsoft Visual Studio\2019\Community\VC\Tools\MSVC\14.29.30133\atlmfc\include\afxcoll.inl

; 295  : 			AfxThrowInvalidArgException();

  002af	e8 00 00 00 00	 call	 ?AfxThrowInvalidArgException@@YGXXZ ; AfxThrowInvalidArgException
$LN68@OnSelchang:
  002b4	cc		 int	 3
_TEXT	ENDS
;	COMDAT text$x
text$x	SEGMENT
__unwindfunclet$?OnSelchangeCmbTableType@CDlgGlobalLanguageTable@@IAEXXZ$0:
  00000	8b 45 d0	 mov	 eax, DWORD PTR $T2[ebp]
  00003	50		 push	 eax
  00004	e8 00 00 00 00	 call	 ??3CObject@@SGXPAX@Z	; CObject::operator delete
  00009	c3		 ret	 0
  0000a	cc		 int	 3
  0000b	cc		 int	 3
  0000c	cc		 int	 3
  0000d	cc		 int	 3
  0000e	cc		 int	 3
__ehhandler$?OnSelchangeCmbTableType@CDlgGlobalLanguageTable@@IAEXXZ:
  0000f	90		 npad	 1
  00010	90		 npad	 1
  00011	8b 54 24 08	 mov	 edx, DWORD PTR [esp+8]
  00015	8d 42 0c	 lea	 eax, DWORD PTR [edx+12]
  00018	8b 4a cc	 mov	 ecx, DWORD PTR [edx-52]
  0001b	33 c8		 xor	 ecx, eax
  0001d	e8 00 00 00 00	 call	 @__security_check_cookie@4
  00022	b8 00 00 00 00	 mov	 eax, OFFSET __ehfuncinfo$?OnSelchangeCmbTableType@CDlgGlobalLanguageTable@@IAEXXZ
  00027	e9 00 00 00 00	 jmp	 ___CxxFrameHandler3
text$x	ENDS
?OnSelchangeCmbTableType@CDlgGlobalLanguageTable@@IAEXXZ ENDP ; CDlgGlobalLanguageTable::OnSelchangeCmbTableType
; Function compile flags: /Ogtp
; File D:\git\src\IBK\IBK_DRFN\ProjSrc\SrcChartEx\ChartAddIn\ChartDesignPropertyAddIn\ChartDesignPropertyAddIn\DlgGlobalLanguageTable.cpp
; File C:\Program Files (x86)\Microsoft Visual Studio\2019\Community\VC\Tools\MSVC\14.29.30133\atlmfc\include\afxwin2.inl
; File D:\git\src\IBK\IBK_DRFN\ProjSrc\SrcChartEx\ChartAddIn\ChartDesignPropertyAddIn\ChartDesignPropertyAddIn\DlgGlobalLanguageTable.cpp
; File C:\Program Files (x86)\Microsoft Visual Studio\2019\Community\VC\Tools\MSVC\14.29.30133\atlmfc\include\afxcmn.inl
; File D:\git\src\IBK\IBK_DRFN\ProjSrc\SrcChartEx\ChartAddIn\ChartDesignPropertyAddIn\ChartDesignPropertyAddIn\DlgGlobalLanguageTable.cpp
; File C:\Program Files (x86)\Microsoft Visual Studio\2019\Community\VC\Tools\MSVC\14.29.30133\atlmfc\include\afxcmn.inl
; File D:\git\src\IBK\IBK_DRFN\ProjSrc\SrcChartEx\ChartAddIn\ChartDesignPropertyAddIn\ChartDesignPropertyAddIn\DlgGlobalLanguageTable.cpp
; File C:\Program Files (x86)\Microsoft Visual Studio\2019\Community\VC\Tools\MSVC\14.29.30133\atlmfc\include\afxcmn.inl
; File D:\git\src\IBK\IBK_DRFN\ProjSrc\SrcChartEx\ChartAddIn\ChartDesignPropertyAddIn\ChartDesignPropertyAddIn\DlgGlobalLanguageTable.cpp
; File C:\Program Files (x86)\Microsoft Visual Studio\2019\Community\VC\Tools\MSVC\14.29.30133\atlmfc\include\afxcmn.inl
; File D:\git\src\IBK\IBK_DRFN\ProjSrc\SrcChartEx\ChartAddIn\ChartDesignPropertyAddIn\ChartDesignPropertyAddIn\DlgGlobalLanguageTable.cpp
; File C:\Program Files (x86)\Microsoft Visual Studio\2019\Community\VC\Tools\MSVC\14.29.30133\atlmfc\include\afxcmn.inl
; File D:\git\src\IBK\IBK_DRFN\ProjSrc\SrcChartEx\ChartAddIn\ChartDesignPropertyAddIn\ChartDesignPropertyAddIn\DlgGlobalLanguageTable.cpp
;	COMDAT ?OnUpdateEdtSearchText@CDlgGlobalLanguageTable@@IAEXXZ
_TEXT	SEGMENT
_this$1$ = -36						; size = 4
tv408 = -32						; size = 4
$T2 = -32						; size = 4
$T3 = -32						; size = 4
$T4 = -28						; size = 4
$T5 = -28						; size = 4
_nSelectedIndex$1$ = -24				; size = 4
_strSearchText$ = -20					; size = 4
_strLanguageText$ = -16					; size = 4
__$EHRec$ = -12						; size = 12
?OnUpdateEdtSearchText@CDlgGlobalLanguageTable@@IAEXXZ PROC ; CDlgGlobalLanguageTable::OnUpdateEdtSearchText, COMDAT
; _this$ = ecx

; 140  : {

  00000	55		 push	 ebp
  00001	8b ec		 mov	 ebp, esp
  00003	6a ff		 push	 -1
  00005	68 00 00 00 00	 push	 __ehhandler$?OnUpdateEdtSearchText@CDlgGlobalLanguageTable@@IAEXXZ
  0000a	64 a1 00 00 00
	00		 mov	 eax, DWORD PTR fs:0
  00010	50		 push	 eax
  00011	83 ec 18	 sub	 esp, 24			; 00000018H
  00014	53		 push	 ebx
  00015	56		 push	 esi
  00016	57		 push	 edi
  00017	a1 00 00 00 00	 mov	 eax, DWORD PTR ___security_cookie
  0001c	33 c5		 xor	 eax, ebp
  0001e	50		 push	 eax
  0001f	8d 45 f4	 lea	 eax, DWORD PTR __$EHRec$[ebp]
  00022	64 a3 00 00 00
	00		 mov	 DWORD PTR fs:0, eax
  00028	8b d9		 mov	 ebx, ecx
  0002a	89 5d dc	 mov	 DWORD PTR _this$1$[ebp], ebx

; 141  : 	// TODO: If this is a RICHEDIT control, the control will not
; 142  : 	// send this notification unless you override the CDialog::OnInitDialog()
; 143  : 	// function to send the EM_SETEVENTMASK message to the control
; 144  : 	// with the ENM_UPDATE flag ORed into the lParam mask.
; 145  : 	
; 146  : 	// TODO: Add your control notification handler code here
; 147  : 	
; 148  : 	CEdit *pSearchText = ( CEdit *)GetDlgItem( IDC_EDT_SEARCH_TEXT);

  0002d	68 e1 07 00 00	 push	 2017			; 000007e1H
  00032	e8 00 00 00 00	 call	 ?GetDlgItem@CWnd@@QBEPAV1@H@Z ; CWnd::GetDlgItem

; 149  : 
; 150  : 	CString strSearchText;

  00037	8d 4d ec	 lea	 ecx, DWORD PTR _strSearchText$[ebp]
  0003a	8b f0		 mov	 esi, eax
  0003c	ff 15 00 00 00
	00		 call	 DWORD PTR __imp_??0?$CStringT@DV?$StrTraitMFC_DLL@DV?$ChTraitsCRT@D@ATL@@@@@ATL@@QAE@XZ

; 151  : 	pSearchText->GetWindowText( strSearchText);

  00042	8d 45 ec	 lea	 eax, DWORD PTR _strSearchText$[ebp]
  00045	c7 45 fc 00 00
	00 00		 mov	 DWORD PTR __$EHRec$[ebp+8], 0
  0004c	50		 push	 eax
  0004d	8b ce		 mov	 ecx, esi
  0004f	e8 00 00 00 00	 call	 ?GetWindowTextA@CWnd@@QBEXAAV?$CStringT@DV?$StrTraitMFC_DLL@DV?$ChTraitsCRT@D@ATL@@@@@ATL@@@Z ; CWnd::GetWindowTextA

; 152  : 	if( strSearchText.Find( "\r\n") < 0) return;

  00054	6a 00		 push	 0
  00056	68 00 00 00 00	 push	 OFFSET ??_C@_02PCIJFNDE@?$AN?6@
  0005b	8d 4d ec	 lea	 ecx, DWORD PTR _strSearchText$[ebp]
  0005e	ff 15 00 00 00
	00		 call	 DWORD PTR __imp_?Find@?$CStringT@DV?$StrTraitMFC_DLL@DV?$ChTraitsCRT@D@ATL@@@@@ATL@@QBEHPBDH@Z
  00064	85 c0		 test	 eax, eax
  00066	0f 88 4c 02 00
	00		 js	 $LN23@OnUpdateEd

; 153  : 
; 154  : 	strSearchText.Replace( "\r\n", "");

  0006c	68 00 00 00 00	 push	 OFFSET ??_C@_00CNPNBAHC@@
  00071	68 00 00 00 00	 push	 OFFSET ??_C@_02PCIJFNDE@?$AN?6@
  00076	8d 4d ec	 lea	 ecx, DWORD PTR _strSearchText$[ebp]
  00079	ff 15 00 00 00
	00		 call	 DWORD PTR __imp_?Replace@?$CStringT@DV?$StrTraitMFC_DLL@DV?$ChTraitsCRT@D@ATL@@@@@ATL@@QAEHPBD0@Z

; 155  : 	pSearchText->SetWindowText( strSearchText);

  0007f	ff 75 ec	 push	 DWORD PTR _strSearchText$[ebp]
  00082	8b ce		 mov	 ecx, esi
  00084	e8 00 00 00 00	 call	 ?SetWindowTextA@CWnd@@QAEXPBD@Z ; CWnd::SetWindowTextA
; File C:\Program Files (x86)\Microsoft Visual Studio\2019\Community\VC\Tools\MSVC\14.29.30133\atlmfc\include\afxwin2.inl

; 909  : 	{ ASSERT(::IsWindow(m_hWnd)); ::SendMessage(m_hWnd, EM_SETSEL, nStartChar, nEndChar);

  00089	8b 3d 00 00 00
	00		 mov	 edi, DWORD PTR __imp__SendMessageA@16
  0008f	6a ff		 push	 -1
  00091	6a 00		 push	 0
  00093	68 b1 00 00 00	 push	 177			; 000000b1H
  00098	ff 76 20	 push	 DWORD PTR [esi+32]
  0009b	ff d7		 call	 edi

; 910  : 	  if (!bNoScroll)
; 911  : 		::SendMessage(m_hWnd, EM_SCROLLCARET, 0, 0); }

  0009d	6a 00		 push	 0
  0009f	6a 00		 push	 0
  000a1	68 b7 00 00 00	 push	 183			; 000000b7H
  000a6	ff 76 20	 push	 DWORD PTR [esi+32]
  000a9	ff d7		 call	 edi

; 909  : 	{ ASSERT(::IsWindow(m_hWnd)); ::SendMessage(m_hWnd, EM_SETSEL, nStartChar, nEndChar);

  000ab	6a ff		 push	 -1
  000ad	6a ff		 push	 -1
  000af	68 b1 00 00 00	 push	 177			; 000000b1H
  000b4	ff 76 20	 push	 DWORD PTR [esi+32]
  000b7	ff d7		 call	 edi

; 910  : 	  if (!bNoScroll)
; 911  : 		::SendMessage(m_hWnd, EM_SCROLLCARET, 0, 0); }

  000b9	6a 00		 push	 0
  000bb	6a 00		 push	 0
  000bd	68 b7 00 00 00	 push	 183			; 000000b7H
  000c2	ff 76 20	 push	 DWORD PTR [esi+32]
  000c5	ff d7		 call	 edi
; File D:\git\src\IBK\IBK_DRFN\ProjSrc\SrcChartEx\ChartAddIn\ChartDesignPropertyAddIn\ChartDesignPropertyAddIn\DlgGlobalLanguageTable.cpp

; 159  : 	strSearchText.MakeLower();

  000c7	8d 4d ec	 lea	 ecx, DWORD PTR _strSearchText$[ebp]
  000ca	ff 15 00 00 00
	00		 call	 DWORD PTR __imp_?MakeLower@?$CStringT@DV?$StrTraitMFC_DLL@DV?$ChTraitsCRT@D@ATL@@@@@ATL@@QAEAAV12@XZ
; File C:\Program Files (x86)\Microsoft Visual Studio\2019\Community\VC\Tools\MSVC\14.29.30133\atlmfc\include\afxcmn.inl

; 177  : 	{ ASSERT(::IsWindow(m_hWnd)); return (int) ::SendMessage(m_hWnd, LVM_GETNEXTITEM, nItem, MAKELPARAM(nFlags, 0)); }

  000d0	6a 02		 push	 2
; File D:\git\src\IBK\IBK_DRFN\ProjSrc\SrcChartEx\ChartAddIn\ChartDesignPropertyAddIn\ChartDesignPropertyAddIn\DlgGlobalLanguageTable.cpp

; 160  : 	int nSelectedIndex = -1;

  000d2	83 ce ff	 or	 esi, -1
; File C:\Program Files (x86)\Microsoft Visual Studio\2019\Community\VC\Tools\MSVC\14.29.30133\atlmfc\include\afxcmn.inl

; 177  : 	{ ASSERT(::IsWindow(m_hWnd)); return (int) ::SendMessage(m_hWnd, LVM_GETNEXTITEM, nItem, MAKELPARAM(nFlags, 0)); }

  000d5	56		 push	 esi
  000d6	68 0c 10 00 00	 push	 4108			; 0000100cH
  000db	ff b3 48 01 00
	00		 push	 DWORD PTR [ebx+328]
; File D:\git\src\IBK\IBK_DRFN\ProjSrc\SrcChartEx\ChartAddIn\ChartDesignPropertyAddIn\ChartDesignPropertyAddIn\DlgGlobalLanguageTable.cpp

; 160  : 	int nSelectedIndex = -1;

  000e1	89 75 e8	 mov	 DWORD PTR _nSelectedIndex$1$[ebp], esi
; File C:\Program Files (x86)\Microsoft Visual Studio\2019\Community\VC\Tools\MSVC\14.29.30133\atlmfc\include\afxcmn.inl

; 177  : 	{ ASSERT(::IsWindow(m_hWnd)); return (int) ::SendMessage(m_hWnd, LVM_GETNEXTITEM, nItem, MAKELPARAM(nFlags, 0)); }

  000e4	ff d7		 call	 edi

; 179  : 	{ ASSERT(::IsWindow(m_hWnd)); return (POSITION)(DWORD_PTR)(1+GetNextItem(-1, LVIS_SELECTED)); }

  000e6	83 c0 01	 add	 eax, 1
; File D:\git\src\IBK\IBK_DRFN\ProjSrc\SrcChartEx\ChartAddIn\ChartDesignPropertyAddIn\ChartDesignPropertyAddIn\DlgGlobalLanguageTable.cpp

; 162  : 	if( psnSelection) nSelectedIndex = m_lstMetaTable.GetNextSelectedItem( psnSelection);

  000e9	74 16		 je	 SHORT $LN9@OnUpdateEd
; File C:\Program Files (x86)\Microsoft Visual Studio\2019\Community\VC\Tools\MSVC\14.29.30133\atlmfc\include\afxcmn.inl

; 177  : 	{ ASSERT(::IsWindow(m_hWnd)); return (int) ::SendMessage(m_hWnd, LVM_GETNEXTITEM, nItem, MAKELPARAM(nFlags, 0)); }

  000eb	6a 02		 push	 2

; 181  : 	{ ASSERT(::IsWindow(m_hWnd)); DWORD_PTR nOldPos = (DWORD_PTR)pos-1; pos = (POSITION)(DWORD_PTR)(1+GetNextItem((UINT)nOldPos, LVIS_SELECTED)); return (UINT)nOldPos; }

  000ed	8d 70 ff	 lea	 esi, DWORD PTR [eax-1]

; 177  : 	{ ASSERT(::IsWindow(m_hWnd)); return (int) ::SendMessage(m_hWnd, LVM_GETNEXTITEM, nItem, MAKELPARAM(nFlags, 0)); }

  000f0	56		 push	 esi
  000f1	68 0c 10 00 00	 push	 4108			; 0000100cH
  000f6	ff b3 48 01 00
	00		 push	 DWORD PTR [ebx+328]

; 181  : 	{ ASSERT(::IsWindow(m_hWnd)); DWORD_PTR nOldPos = (DWORD_PTR)pos-1; pos = (POSITION)(DWORD_PTR)(1+GetNextItem((UINT)nOldPos, LVIS_SELECTED)); return (UINT)nOldPos; }

  000fc	89 75 e8	 mov	 DWORD PTR _nSelectedIndex$1$[ebp], esi

; 177  : 	{ ASSERT(::IsWindow(m_hWnd)); return (int) ::SendMessage(m_hWnd, LVM_GETNEXTITEM, nItem, MAKELPARAM(nFlags, 0)); }

  000ff	ff d7		 call	 edi
$LN9@OnUpdateEd:

; 155  : 	{ ASSERT(::IsWindow(m_hWnd)); return (int) ::SendMessage(m_hWnd, LVM_GETITEMCOUNT, 0, 0L); }

  00101	6a 00		 push	 0
  00103	6a 00		 push	 0
  00105	68 04 10 00 00	 push	 4100			; 00001004H
  0010a	ff b3 48 01 00
	00		 push	 DWORD PTR [ebx+328]
  00110	ff d7		 call	 edi
; File D:\git\src\IBK\IBK_DRFN\ProjSrc\SrcChartEx\ChartAddIn\ChartDesignPropertyAddIn\ChartDesignPropertyAddIn\DlgGlobalLanguageTable.cpp

; 164  : 	CString strLanguageText;

  00112	8d 4d f0	 lea	 ecx, DWORD PTR _strLanguageText$[ebp]
  00115	8b f8		 mov	 edi, eax
  00117	ff 15 00 00 00
	00		 call	 DWORD PTR __imp_??0?$CStringT@DV?$StrTraitMFC_DLL@DV?$ChTraitsCRT@D@ATL@@@@@ATL@@QAE@XZ

; 165  : 	int i = 0;
; 166  : 	for(  i = nSelectedIndex + 1; i < nMetaCount; i++)

  0011d	46		 inc	 esi
  0011e	c6 45 fc 01	 mov	 BYTE PTR __$EHRec$[ebp+8], 1
  00122	3b f7		 cmp	 esi, edi
  00124	0f 8d ab 00 00
	00		 jge	 $LN65@OnUpdateEd
  0012a	8d 83 28 01 00
	00		 lea	 eax, DWORD PTR [ebx+296]
$LL4@OnUpdateEd:

; 167  : 	{
; 168  : 		strLanguageText = m_lstMetaTable.GetItemText( i, 1);

  00130	6a 01		 push	 1
  00132	56		 push	 esi
  00133	8d 4d e4	 lea	 ecx, DWORD PTR $T5[ebp]
  00136	51		 push	 ecx
  00137	8b c8		 mov	 ecx, eax
  00139	e8 00 00 00 00	 call	 ?GetItemText@CListCtrl@@QBE?AV?$CStringT@DV?$StrTraitMFC_DLL@DV?$ChTraitsCRT@D@ATL@@@@@ATL@@HH@Z ; CListCtrl::GetItemText
  0013e	50		 push	 eax
  0013f	8d 4d f0	 lea	 ecx, DWORD PTR _strLanguageText$[ebp]
  00142	c6 45 fc 02	 mov	 BYTE PTR __$EHRec$[ebp+8], 2
  00146	ff 15 00 00 00
	00		 call	 DWORD PTR __imp_??4?$CStringT@DV?$StrTraitMFC_DLL@DV?$ChTraitsCRT@D@ATL@@@@@ATL@@QAEAAV01@ABV01@@Z
  0014c	8d 4d e4	 lea	 ecx, DWORD PTR $T5[ebp]
  0014f	c6 45 fc 01	 mov	 BYTE PTR __$EHRec$[ebp+8], 1
  00153	ff 15 00 00 00
	00		 call	 DWORD PTR __imp_??1?$CStringT@DV?$StrTraitMFC_DLL@DV?$ChTraitsCRT@D@ATL@@@@@ATL@@QAE@XZ

; 169  : 		strLanguageText.MakeLower();

  00159	8d 4d f0	 lea	 ecx, DWORD PTR _strLanguageText$[ebp]
  0015c	ff 15 00 00 00
	00		 call	 DWORD PTR __imp_?MakeLower@?$CStringT@DV?$StrTraitMFC_DLL@DV?$ChTraitsCRT@D@ATL@@@@@ATL@@QAEAAV12@XZ

; 170  : 		if( 0 <= strLanguageText.Find( strSearchText)) break;

  00162	6a 00		 push	 0
  00164	ff 75 ec	 push	 DWORD PTR _strSearchText$[ebp]
  00167	8d 4d f0	 lea	 ecx, DWORD PTR _strLanguageText$[ebp]
  0016a	ff 15 00 00 00
	00		 call	 DWORD PTR __imp_?Find@?$CStringT@DV?$StrTraitMFC_DLL@DV?$ChTraitsCRT@D@ATL@@@@@ATL@@QBEHPBDH@Z
  00170	85 c0		 test	 eax, eax
  00172	79 59		 jns	 SHORT $LN55@OnUpdateEd

; 171  : 		strLanguageText = m_lstMetaTable.GetItemText( i, 2);

  00174	6a 02		 push	 2
  00176	56		 push	 esi
  00177	8d 45 e0	 lea	 eax, DWORD PTR $T3[ebp]
  0017a	50		 push	 eax
  0017b	8d 8b 28 01 00
	00		 lea	 ecx, DWORD PTR [ebx+296]
  00181	e8 00 00 00 00	 call	 ?GetItemText@CListCtrl@@QBE?AV?$CStringT@DV?$StrTraitMFC_DLL@DV?$ChTraitsCRT@D@ATL@@@@@ATL@@HH@Z ; CListCtrl::GetItemText
  00186	50		 push	 eax
  00187	8d 4d f0	 lea	 ecx, DWORD PTR _strLanguageText$[ebp]
  0018a	c6 45 fc 03	 mov	 BYTE PTR __$EHRec$[ebp+8], 3
  0018e	ff 15 00 00 00
	00		 call	 DWORD PTR __imp_??4?$CStringT@DV?$StrTraitMFC_DLL@DV?$ChTraitsCRT@D@ATL@@@@@ATL@@QAEAAV01@ABV01@@Z
  00194	8d 4d e0	 lea	 ecx, DWORD PTR $T3[ebp]
  00197	c6 45 fc 01	 mov	 BYTE PTR __$EHRec$[ebp+8], 1
  0019b	ff 15 00 00 00
	00		 call	 DWORD PTR __imp_??1?$CStringT@DV?$StrTraitMFC_DLL@DV?$ChTraitsCRT@D@ATL@@@@@ATL@@QAE@XZ

; 172  : 		strLanguageText.MakeLower();

  001a1	8d 4d f0	 lea	 ecx, DWORD PTR _strLanguageText$[ebp]
  001a4	ff 15 00 00 00
	00		 call	 DWORD PTR __imp_?MakeLower@?$CStringT@DV?$StrTraitMFC_DLL@DV?$ChTraitsCRT@D@ATL@@@@@ATL@@QAEAAV12@XZ

; 173  : 		if( 0 <= strLanguageText.Find( strSearchText)) break;

  001aa	6a 00		 push	 0
  001ac	ff 75 ec	 push	 DWORD PTR _strSearchText$[ebp]
  001af	8d 4d f0	 lea	 ecx, DWORD PTR _strLanguageText$[ebp]
  001b2	ff 15 00 00 00
	00		 call	 DWORD PTR __imp_?Find@?$CStringT@DV?$StrTraitMFC_DLL@DV?$ChTraitsCRT@D@ATL@@@@@ATL@@QBEHPBDH@Z
  001b8	85 c0		 test	 eax, eax
  001ba	79 11		 jns	 SHORT $LN55@OnUpdateEd

; 165  : 	int i = 0;
; 166  : 	for(  i = nSelectedIndex + 1; i < nMetaCount; i++)

  001bc	46		 inc	 esi
  001bd	8d 83 28 01 00
	00		 lea	 eax, DWORD PTR [ebx+296]
  001c3	3b f7		 cmp	 esi, edi
  001c5	0f 8c 65 ff ff
	ff		 jl	 $LL4@OnUpdateEd

; 174  : 	}
; 175  : 	if( nMetaCount <= i)

  001cb	eb 08		 jmp	 SHORT $LN65@OnUpdateEd
$LN55@OnUpdateEd:
  001cd	3b fe		 cmp	 edi, esi
  001cf	0f 8f b6 00 00
	00		 jg	 $LN15@OnUpdateEd
$LN65@OnUpdateEd:

; 176  : 	{
; 177  : 		for( i = 0; i < nSelectedIndex + 1; i++)

  001d5	8b 45 e8	 mov	 eax, DWORD PTR _nSelectedIndex$1$[ebp]
  001d8	33 f6		 xor	 esi, esi
  001da	8d 78 01	 lea	 edi, DWORD PTR [eax+1]
  001dd	85 ff		 test	 edi, edi
  001df	0f 8e a2 00 00
	00		 jle	 $LN57@OnUpdateEd
  001e5	8d 83 28 01 00
	00		 lea	 eax, DWORD PTR [ebx+296]
  001eb	8b d8		 mov	 ebx, eax
  001ed	0f 1f 00	 npad	 3
$LL7@OnUpdateEd:

; 178  : 		{
; 179  : 			strLanguageText = m_lstMetaTable.GetItemText( i, 1);

  001f0	6a 01		 push	 1
  001f2	56		 push	 esi
  001f3	8d 45 e0	 lea	 eax, DWORD PTR $T2[ebp]
  001f6	8b cb		 mov	 ecx, ebx
  001f8	50		 push	 eax
  001f9	e8 00 00 00 00	 call	 ?GetItemText@CListCtrl@@QBE?AV?$CStringT@DV?$StrTraitMFC_DLL@DV?$ChTraitsCRT@D@ATL@@@@@ATL@@HH@Z ; CListCtrl::GetItemText
  001fe	50		 push	 eax
  001ff	8d 4d f0	 lea	 ecx, DWORD PTR _strLanguageText$[ebp]
  00202	c6 45 fc 04	 mov	 BYTE PTR __$EHRec$[ebp+8], 4
  00206	ff 15 00 00 00
	00		 call	 DWORD PTR __imp_??4?$CStringT@DV?$StrTraitMFC_DLL@DV?$ChTraitsCRT@D@ATL@@@@@ATL@@QAEAAV01@ABV01@@Z
  0020c	8d 4d e0	 lea	 ecx, DWORD PTR $T2[ebp]
  0020f	c6 45 fc 01	 mov	 BYTE PTR __$EHRec$[ebp+8], 1
  00213	ff 15 00 00 00
	00		 call	 DWORD PTR __imp_??1?$CStringT@DV?$StrTraitMFC_DLL@DV?$ChTraitsCRT@D@ATL@@@@@ATL@@QAE@XZ

; 180  : 			strLanguageText.MakeLower();

  00219	8d 4d f0	 lea	 ecx, DWORD PTR _strLanguageText$[ebp]
  0021c	ff 15 00 00 00
	00		 call	 DWORD PTR __imp_?MakeLower@?$CStringT@DV?$StrTraitMFC_DLL@DV?$ChTraitsCRT@D@ATL@@@@@ATL@@QAEAAV12@XZ

; 181  : 			if( 0 <= strLanguageText.Find( strSearchText)) break;

  00222	6a 00		 push	 0
  00224	ff 75 ec	 push	 DWORD PTR _strSearchText$[ebp]
  00227	8d 4d f0	 lea	 ecx, DWORD PTR _strLanguageText$[ebp]
  0022a	ff 15 00 00 00
	00		 call	 DWORD PTR __imp_?Find@?$CStringT@DV?$StrTraitMFC_DLL@DV?$ChTraitsCRT@D@ATL@@@@@ATL@@QBEHPBDH@Z
  00230	85 c0		 test	 eax, eax
  00232	79 4d		 jns	 SHORT $LN66@OnUpdateEd

; 182  : 			strLanguageText = m_lstMetaTable.GetItemText( i, 2);

  00234	6a 02		 push	 2
  00236	56		 push	 esi
  00237	8d 45 e4	 lea	 eax, DWORD PTR $T4[ebp]
  0023a	8b cb		 mov	 ecx, ebx
  0023c	50		 push	 eax
  0023d	e8 00 00 00 00	 call	 ?GetItemText@CListCtrl@@QBE?AV?$CStringT@DV?$StrTraitMFC_DLL@DV?$ChTraitsCRT@D@ATL@@@@@ATL@@HH@Z ; CListCtrl::GetItemText
  00242	50		 push	 eax
  00243	8d 4d f0	 lea	 ecx, DWORD PTR _strLanguageText$[ebp]
  00246	c6 45 fc 05	 mov	 BYTE PTR __$EHRec$[ebp+8], 5
  0024a	ff 15 00 00 00
	00		 call	 DWORD PTR __imp_??4?$CStringT@DV?$StrTraitMFC_DLL@DV?$ChTraitsCRT@D@ATL@@@@@ATL@@QAEAAV01@ABV01@@Z
  00250	8d 4d e4	 lea	 ecx, DWORD PTR $T4[ebp]
  00253	c6 45 fc 01	 mov	 BYTE PTR __$EHRec$[ebp+8], 1
  00257	ff 15 00 00 00
	00		 call	 DWORD PTR __imp_??1?$CStringT@DV?$StrTraitMFC_DLL@DV?$ChTraitsCRT@D@ATL@@@@@ATL@@QAE@XZ

; 183  : 			strLanguageText.MakeLower();

  0025d	8d 4d f0	 lea	 ecx, DWORD PTR _strLanguageText$[ebp]
  00260	ff 15 00 00 00
	00		 call	 DWORD PTR __imp_?MakeLower@?$CStringT@DV?$StrTraitMFC_DLL@DV?$ChTraitsCRT@D@ATL@@@@@ATL@@QAEAAV12@XZ

; 184  : 			if( 0 <= strLanguageText.Find( strSearchText)) break;

  00266	6a 00		 push	 0
  00268	ff 75 ec	 push	 DWORD PTR _strSearchText$[ebp]
  0026b	8d 4d f0	 lea	 ecx, DWORD PTR _strLanguageText$[ebp]
  0026e	ff 15 00 00 00
	00		 call	 DWORD PTR __imp_?Find@?$CStringT@DV?$StrTraitMFC_DLL@DV?$ChTraitsCRT@D@ATL@@@@@ATL@@QBEHPBDH@Z
  00274	85 c0		 test	 eax, eax
  00276	79 09		 jns	 SHORT $LN66@OnUpdateEd

; 176  : 	{
; 177  : 		for( i = 0; i < nSelectedIndex + 1; i++)

  00278	46		 inc	 esi
  00279	3b f7		 cmp	 esi, edi
  0027b	0f 8c 6f ff ff
	ff		 jl	 $LL7@OnUpdateEd
$LN66@OnUpdateEd:
  00281	8b 5d dc	 mov	 ebx, DWORD PTR _this$1$[ebp]
  00284	8b 45 e8	 mov	 eax, DWORD PTR _nSelectedIndex$1$[ebp]
$LN57@OnUpdateEd:

; 185  : 		}
; 186  : 
; 187  : 		// Check Not Found
; 188  : 		if( nSelectedIndex <= i) return;

  00287	3b c6		 cmp	 eax, esi
  00289	7e 24		 jle	 SHORT $LN24@OnUpdateEd
$LN15@OnUpdateEd:

; 189  : 	}
; 190  : 
; 191  : 	m_lstMetaTable.SetItemState( i,	LVIS_SELECTED, LVIS_SELECTED);

  0028b	6a 02		 push	 2
  0028d	6a 02		 push	 2
  0028f	56		 push	 esi
  00290	8d 8b 28 01 00
	00		 lea	 ecx, DWORD PTR [ebx+296]
  00296	e8 00 00 00 00	 call	 ?SetItemState@CListCtrl@@QAEHHII@Z ; CListCtrl::SetItemState
; File C:\Program Files (x86)\Microsoft Visual Studio\2019\Community\VC\Tools\MSVC\14.29.30133\atlmfc\include\afxcmn.inl

; 193  : 	{ ASSERT(::IsWindow(m_hWnd)); return (BOOL) ::SendMessage(m_hWnd, LVM_ENSUREVISIBLE, nItem, MAKELPARAM(bPartialOK, 0)); }

  0029b	6a 00		 push	 0
  0029d	56		 push	 esi
  0029e	68 13 10 00 00	 push	 4115			; 00001013H
  002a3	ff b3 48 01 00
	00		 push	 DWORD PTR [ebx+328]
  002a9	ff 15 00 00 00
	00		 call	 DWORD PTR __imp__SendMessageA@16
$LN24@OnUpdateEd:
; File D:\git\src\IBK\IBK_DRFN\ProjSrc\SrcChartEx\ChartAddIn\ChartDesignPropertyAddIn\ChartDesignPropertyAddIn\DlgGlobalLanguageTable.cpp

; 193  : }

  002af	8d 4d f0	 lea	 ecx, DWORD PTR _strLanguageText$[ebp]
  002b2	ff 15 00 00 00
	00		 call	 DWORD PTR __imp_??1?$CStringT@DV?$StrTraitMFC_DLL@DV?$ChTraitsCRT@D@ATL@@@@@ATL@@QAE@XZ
$LN23@OnUpdateEd:
  002b8	8d 4d ec	 lea	 ecx, DWORD PTR _strSearchText$[ebp]
  002bb	ff 15 00 00 00
	00		 call	 DWORD PTR __imp_??1?$CStringT@DV?$StrTraitMFC_DLL@DV?$ChTraitsCRT@D@ATL@@@@@ATL@@QAE@XZ
  002c1	8b 4d f4	 mov	 ecx, DWORD PTR __$EHRec$[ebp]
  002c4	64 89 0d 00 00
	00 00		 mov	 DWORD PTR fs:0, ecx
  002cb	59		 pop	 ecx
  002cc	5f		 pop	 edi
  002cd	5e		 pop	 esi
  002ce	5b		 pop	 ebx
  002cf	8b e5		 mov	 esp, ebp
  002d1	5d		 pop	 ebp
  002d2	c3		 ret	 0
_TEXT	ENDS
;	COMDAT text$x
text$x	SEGMENT
__unwindfunclet$?OnUpdateEdtSearchText@CDlgGlobalLanguageTable@@IAEXXZ$0:
  00000	8d 4d ec	 lea	 ecx, DWORD PTR _strSearchText$[ebp]
  00003	ff 25 00 00 00
	00		 jmp	 DWORD PTR __imp_??1?$CStringT@DV?$StrTraitMFC_DLL@DV?$ChTraitsCRT@D@ATL@@@@@ATL@@QAE@XZ
__unwindfunclet$?OnUpdateEdtSearchText@CDlgGlobalLanguageTable@@IAEXXZ$1:
  00009	8d 4d f0	 lea	 ecx, DWORD PTR _strLanguageText$[ebp]
  0000c	ff 25 00 00 00
	00		 jmp	 DWORD PTR __imp_??1?$CStringT@DV?$StrTraitMFC_DLL@DV?$ChTraitsCRT@D@ATL@@@@@ATL@@QAE@XZ
__unwindfunclet$?OnUpdateEdtSearchText@CDlgGlobalLanguageTable@@IAEXXZ$2:
  00012	8d 4d e4	 lea	 ecx, DWORD PTR $T5[ebp]
  00015	ff 25 00 00 00
	00		 jmp	 DWORD PTR __imp_??1?$CStringT@DV?$StrTraitMFC_DLL@DV?$ChTraitsCRT@D@ATL@@@@@ATL@@QAE@XZ
__unwindfunclet$?OnUpdateEdtSearchText@CDlgGlobalLanguageTable@@IAEXXZ$3:
  0001b	8d 4d e0	 lea	 ecx, DWORD PTR $T3[ebp]
  0001e	ff 25 00 00 00
	00		 jmp	 DWORD PTR __imp_??1?$CStringT@DV?$StrTraitMFC_DLL@DV?$ChTraitsCRT@D@ATL@@@@@ATL@@QAE@XZ
__unwindfunclet$?OnUpdateEdtSearchText@CDlgGlobalLanguageTable@@IAEXXZ$4:
  00024	8d 4d e0	 lea	 ecx, DWORD PTR $T2[ebp]
  00027	ff 25 00 00 00
	00		 jmp	 DWORD PTR __imp_??1?$CStringT@DV?$StrTraitMFC_DLL@DV?$ChTraitsCRT@D@ATL@@@@@ATL@@QAE@XZ
__unwindfunclet$?OnUpdateEdtSearchText@CDlgGlobalLanguageTable@@IAEXXZ$5:
  0002d	8d 4d e4	 lea	 ecx, DWORD PTR $T4[ebp]
  00030	ff 25 00 00 00
	00		 jmp	 DWORD PTR __imp_??1?$CStringT@DV?$StrTraitMFC_DLL@DV?$ChTraitsCRT@D@ATL@@@@@ATL@@QAE@XZ
  00036	cc		 int	 3
  00037	cc		 int	 3
  00038	cc		 int	 3
  00039	cc		 int	 3
  0003a	cc		 int	 3
__ehhandler$?OnUpdateEdtSearchText@CDlgGlobalLanguageTable@@IAEXXZ:
  0003b	90		 npad	 1
  0003c	90		 npad	 1
  0003d	8b 54 24 08	 mov	 edx, DWORD PTR [esp+8]
  00041	8d 42 0c	 lea	 eax, DWORD PTR [edx+12]
  00044	8b 4a d8	 mov	 ecx, DWORD PTR [edx-40]
  00047	33 c8		 xor	 ecx, eax
  00049	e8 00 00 00 00	 call	 @__security_check_cookie@4
  0004e	b8 00 00 00 00	 mov	 eax, OFFSET __ehfuncinfo$?OnUpdateEdtSearchText@CDlgGlobalLanguageTable@@IAEXXZ
  00053	e9 00 00 00 00	 jmp	 ___CxxFrameHandler3
text$x	ENDS
?OnUpdateEdtSearchText@CDlgGlobalLanguageTable@@IAEXXZ ENDP ; CDlgGlobalLanguageTable::OnUpdateEdtSearchText
; Function compile flags: /Ogtp
; File D:\git\src\IBK\IBK_DRFN\ProjSrc\SrcChartEx\ChartAddIn\ChartDesignPropertyAddIn\ChartDesignPropertyAddIn\DlgGlobalLanguageTable.cpp
; File C:\Program Files (x86)\Microsoft Visual Studio\2019\Community\VC\Tools\MSVC\14.29.30133\atlmfc\include\afxwin2.inl
; File D:\git\src\IBK\IBK_DRFN\ProjSrc\SrcChartEx\ChartAddIn\ChartDesignPropertyAddIn\ChartDesignPropertyAddIn\DlgGlobalLanguageTable.cpp
;	COMDAT ?OnGetMinMaxInfo@CDlgGlobalLanguageTable@@IAEXPAUtagMINMAXINFO@@@Z
_TEXT	SEGMENT
_lpMMI$ = 8						; size = 4
?OnGetMinMaxInfo@CDlgGlobalLanguageTable@@IAEXPAUtagMINMAXINFO@@@Z PROC ; CDlgGlobalLanguageTable::OnGetMinMaxInfo, COMDAT
; _this$ = ecx

; 132  : {

  00000	55		 push	 ebp
  00001	8b ec		 mov	 ebp, esp

; 133  : 	// TODO: Add your message handler code here and/or call default
; 134  : 	
; 135  : 	lpMMI->ptMinTrackSize = m_ptMinSize;

  00003	8b 45 08	 mov	 eax, DWORD PTR _lpMMI$[ebp]
  00006	8b 91 a8 01 00
	00		 mov	 edx, DWORD PTR [ecx+424]
  0000c	56		 push	 esi
  0000d	8b b1 ac 01 00
	00		 mov	 esi, DWORD PTR [ecx+428]
  00013	89 50 18	 mov	 DWORD PTR [eax+24], edx
  00016	89 70 1c	 mov	 DWORD PTR [eax+28], esi
; File C:\Program Files (x86)\Microsoft Visual Studio\2019\Community\VC\Tools\MSVC\14.29.30133\atlmfc\include\afxwin2.inl

; 304  : 	{ Default(); }

  00019	e8 00 00 00 00	 call	 ?Default@CWnd@@IAEJXZ	; CWnd::Default
  0001e	5e		 pop	 esi
; File D:\git\src\IBK\IBK_DRFN\ProjSrc\SrcChartEx\ChartAddIn\ChartDesignPropertyAddIn\ChartDesignPropertyAddIn\DlgGlobalLanguageTable.cpp

; 137  : }

  0001f	5d		 pop	 ebp
  00020	c2 04 00	 ret	 4
?OnGetMinMaxInfo@CDlgGlobalLanguageTable@@IAEXPAUtagMINMAXINFO@@@Z ENDP ; CDlgGlobalLanguageTable::OnGetMinMaxInfo
_TEXT	ENDS
; Function compile flags: /Ogtp
; File D:\git\src\IBK\IBK_DRFN\ProjSrc\SrcChartEx\ChartAddIn\ChartDesignPropertyAddIn\ChartDesignPropertyAddIn\DlgGlobalLanguageTable.cpp
; File C:\Program Files (x86)\Microsoft Visual Studio\2019\Community\VC\Tools\MSVC\14.29.30133\atlmfc\include\afxwin2.inl
; File D:\git\src\IBK\IBK_DRFN\ProjSrc\SrcChartEx\ChartAddIn\ChartDesignPropertyAddIn\ChartDesignPropertyAddIn\DlgGlobalLanguageTable.cpp
; File C:\Program Files (x86)\Microsoft Visual Studio\2019\Community\VC\Tools\MSVC\14.29.30133\atlmfc\include\afxwin2.inl
; File D:\git\src\IBK\IBK_DRFN\ProjSrc\SrcChartEx\ChartAddIn\ChartDesignPropertyAddIn\ChartDesignPropertyAddIn\DlgGlobalLanguageTable.cpp
; File C:\Program Files (x86)\Microsoft Visual Studio\2019\Community\VC\Tools\MSVC\14.29.30133\atlmfc\include\atltypes.h
; File D:\git\src\IBK\IBK_DRFN\ProjSrc\SrcChartEx\ChartAddIn\ChartDesignPropertyAddIn\ChartDesignPropertyAddIn\DlgGlobalLanguageTable.cpp
; File C:\Program Files (x86)\Microsoft Visual Studio\2019\Community\VC\Tools\MSVC\14.29.30133\atlmfc\include\atltypes.h
; File D:\git\src\IBK\IBK_DRFN\ProjSrc\SrcChartEx\ChartAddIn\ChartDesignPropertyAddIn\ChartDesignPropertyAddIn\DlgGlobalLanguageTable.cpp
; File C:\Program Files (x86)\Microsoft Visual Studio\2019\Community\VC\Tools\MSVC\14.29.30133\atlmfc\include\afxwin2.inl
; File D:\git\src\IBK\IBK_DRFN\ProjSrc\SrcChartEx\ChartAddIn\ChartDesignPropertyAddIn\ChartDesignPropertyAddIn\DlgGlobalLanguageTable.cpp
; File C:\Program Files (x86)\Microsoft Visual Studio\2019\Community\VC\Tools\MSVC\14.29.30133\atlmfc\include\afxwin2.inl
; File D:\git\src\IBK\IBK_DRFN\ProjSrc\SrcChartEx\ChartAddIn\ChartDesignPropertyAddIn\ChartDesignPropertyAddIn\DlgGlobalLanguageTable.cpp
; File C:\Program Files (x86)\Microsoft Visual Studio\2019\Community\VC\Tools\MSVC\14.29.30133\atlmfc\include\afxwin2.inl
; File D:\git\src\IBK\IBK_DRFN\ProjSrc\SrcChartEx\ChartAddIn\ChartDesignPropertyAddIn\ChartDesignPropertyAddIn\DlgGlobalLanguageTable.cpp
; File C:\Program Files (x86)\Microsoft Visual Studio\2019\Community\VC\Tools\MSVC\14.29.30133\atlmfc\include\afxwin2.inl
; File D:\git\src\IBK\IBK_DRFN\ProjSrc\SrcChartEx\ChartAddIn\ChartDesignPropertyAddIn\ChartDesignPropertyAddIn\DlgGlobalLanguageTable.cpp
; File C:\Program Files (x86)\Microsoft Visual Studio\2019\Community\VC\Tools\MSVC\14.29.30133\atlmfc\include\afxwin2.inl
; File D:\git\src\IBK\IBK_DRFN\ProjSrc\SrcChartEx\ChartAddIn\ChartDesignPropertyAddIn\ChartDesignPropertyAddIn\DlgGlobalLanguageTable.cpp
; File C:\Program Files (x86)\Microsoft Visual Studio\2019\Community\VC\Tools\MSVC\14.29.30133\atlmfc\include\afxwin2.inl
; File D:\git\src\IBK\IBK_DRFN\ProjSrc\SrcChartEx\ChartAddIn\ChartDesignPropertyAddIn\ChartDesignPropertyAddIn\DlgGlobalLanguageTable.cpp
; File C:\Program Files (x86)\Microsoft Visual Studio\2019\Community\VC\Tools\MSVC\14.29.30133\atlmfc\include\afxwin2.inl
; File D:\git\src\IBK\IBK_DRFN\ProjSrc\SrcChartEx\ChartAddIn\ChartDesignPropertyAddIn\ChartDesignPropertyAddIn\DlgGlobalLanguageTable.cpp
; File C:\Program Files (x86)\Microsoft Visual Studio\2019\Community\VC\Tools\MSVC\14.29.30133\atlmfc\include\atltypes.h
; File D:\git\src\IBK\IBK_DRFN\ProjSrc\SrcChartEx\ChartAddIn\ChartDesignPropertyAddIn\ChartDesignPropertyAddIn\DlgGlobalLanguageTable.cpp
; File C:\Program Files (x86)\Microsoft Visual Studio\2019\Community\VC\Tools\MSVC\14.29.30133\atlmfc\include\atltypes.h
; File C:\Program Files (x86)\Microsoft Visual Studio\2019\Community\VC\Tools\MSVC\14.29.30133\atlmfc\include\afxwin2.inl
; File D:\git\src\IBK\IBK_DRFN\ProjSrc\SrcChartEx\ChartAddIn\ChartDesignPropertyAddIn\ChartDesignPropertyAddIn\DlgGlobalLanguageTable.cpp
;	COMDAT ?OnSize@CDlgGlobalLanguageTable@@IAEXIHH@Z
_TEXT	SEGMENT
_this$1$ = -32						; size = 4
_nLeftGap$1$ = -28					; size = 4
_this$GSCopy$1$ = -24					; size = 4
_rctCtrl$ = -20						; size = 16
__$ArrayPad$ = -4					; size = 4
_nType$ = 8						; size = 4
_cx$ = 12						; size = 4
_cy$ = 16						; size = 4
?OnSize@CDlgGlobalLanguageTable@@IAEXIHH@Z PROC		; CDlgGlobalLanguageTable::OnSize, COMDAT
; _this$ = ecx

; 101  : {

  00000	55		 push	 ebp
  00001	8b ec		 mov	 ebp, esp
  00003	83 ec 20	 sub	 esp, 32			; 00000020H
  00006	a1 00 00 00 00	 mov	 eax, DWORD PTR ___security_cookie
  0000b	33 c5		 xor	 eax, ebp
  0000d	89 45 fc	 mov	 DWORD PTR __$ArrayPad$[ebp], eax
  00010	57		 push	 edi
  00011	8b f9		 mov	 edi, ecx
  00013	89 7d e8	 mov	 DWORD PTR _this$GSCopy$1$[ebp], edi
; File C:\Program Files (x86)\Microsoft Visual Studio\2019\Community\VC\Tools\MSVC\14.29.30133\atlmfc\include\afxwin2.inl

; 330  : 	{ Default(); }

  00016	e8 00 00 00 00	 call	 ?Default@CWnd@@IAEJXZ	; CWnd::Default
; File D:\git\src\IBK\IBK_DRFN\ProjSrc\SrcChartEx\ChartAddIn\ChartDesignPropertyAddIn\ChartDesignPropertyAddIn\DlgGlobalLanguageTable.cpp

; 106  : 	if( !IsWindow( m_lstMetaTable.GetSafeHwnd())) return;

  0001b	8d 87 28 01 00
	00		 lea	 eax, DWORD PTR [edi+296]
  00021	89 45 e0	 mov	 DWORD PTR _this$1$[ebp], eax
; File C:\Program Files (x86)\Microsoft Visual Studio\2019\Community\VC\Tools\MSVC\14.29.30133\atlmfc\include\afxwin2.inl

; 25   : 	{ return this == NULL ? NULL : m_hWnd; }

  00024	85 c0		 test	 eax, eax
  00026	74 03		 je	 SHORT $LN9@OnSize
$LN8@OnSize:
  00028	8b 40 20	 mov	 eax, DWORD PTR [eax+32]
$LN9@OnSize:
; File D:\git\src\IBK\IBK_DRFN\ProjSrc\SrcChartEx\ChartAddIn\ChartDesignPropertyAddIn\ChartDesignPropertyAddIn\DlgGlobalLanguageTable.cpp

; 106  : 	if( !IsWindow( m_lstMetaTable.GetSafeHwnd())) return;

  0002b	50		 push	 eax
  0002c	ff 15 00 00 00
	00		 call	 DWORD PTR __imp__IsWindow@4
  00032	85 c0		 test	 eax, eax
  00034	0f 84 d0 00 00
	00		 je	 $LN1@OnSize
; File C:\Program Files (x86)\Microsoft Visual Studio\2019\Community\VC\Tools\MSVC\14.29.30133\atlmfc\include\atltypes.h

; 528  : 	left = 0;

  0003a	53		 push	 ebx
  0003b	56		 push	 esi
  0003c	0f 57 c0	 xorps	 xmm0, xmm0
; File D:\git\src\IBK\IBK_DRFN\ProjSrc\SrcChartEx\ChartAddIn\ChartDesignPropertyAddIn\ChartDesignPropertyAddIn\DlgGlobalLanguageTable.cpp

; 110  : 	CWnd *pWnd = GetDlgItem( IDC_CMB_TABLE_TYPE);

  0003f	8b cf		 mov	 ecx, edi
  00041	68 e3 07 00 00	 push	 2019			; 000007e3H
; File C:\Program Files (x86)\Microsoft Visual Studio\2019\Community\VC\Tools\MSVC\14.29.30133\atlmfc\include\atltypes.h

; 528  : 	left = 0;

  00046	0f 11 45 ec	 movups	 XMMWORD PTR _rctCtrl$[ebp], xmm0
; File D:\git\src\IBK\IBK_DRFN\ProjSrc\SrcChartEx\ChartAddIn\ChartDesignPropertyAddIn\ChartDesignPropertyAddIn\DlgGlobalLanguageTable.cpp

; 110  : 	CWnd *pWnd = GetDlgItem( IDC_CMB_TABLE_TYPE);

  0004a	e8 00 00 00 00	 call	 ?GetDlgItem@CWnd@@QBEPAV1@H@Z ; CWnd::GetDlgItem
; File C:\Program Files (x86)\Microsoft Visual Studio\2019\Community\VC\Tools\MSVC\14.29.30133\atlmfc\include\afxwin2.inl

; 84   : 	{ ASSERT(::IsWindow(m_hWnd)); ::GetWindowRect(m_hWnd, lpRect); }

  0004f	8b 1d 00 00 00
	00		 mov	 ebx, DWORD PTR __imp__GetWindowRect@8
  00055	8d 4d ec	 lea	 ecx, DWORD PTR _rctCtrl$[ebp]
  00058	51		 push	 ecx
  00059	ff 70 20	 push	 DWORD PTR [eax+32]
  0005c	ff d3		 call	 ebx
; File D:\git\src\IBK\IBK_DRFN\ProjSrc\SrcChartEx\ChartAddIn\ChartDesignPropertyAddIn\ChartDesignPropertyAddIn\DlgGlobalLanguageTable.cpp

; 112  : 	ScreenToClient( rctCtrl);

  0005e	8d 45 ec	 lea	 eax, DWORD PTR _rctCtrl$[ebp]
  00061	8b cf		 mov	 ecx, edi
  00063	50		 push	 eax
  00064	e8 00 00 00 00	 call	 ?ScreenToClient@CWnd@@QBEXPAUtagRECT@@@Z ; CWnd::ScreenToClient

; 113  : 	int nLeftGap = rctCtrl.left;

  00069	8b 45 ec	 mov	 eax, DWORD PTR _rctCtrl$[ebp]

; 114  : 	int nTopGap = rctCtrl.top;

  0006c	8b 75 f0	 mov	 esi, DWORD PTR _rctCtrl$[ebp+4]
  0006f	89 45 e4	 mov	 DWORD PTR _nLeftGap$1$[ebp], eax
; File C:\Program Files (x86)\Microsoft Visual Studio\2019\Community\VC\Tools\MSVC\14.29.30133\atlmfc\include\afxwin2.inl

; 84   : 	{ ASSERT(::IsWindow(m_hWnd)); ::GetWindowRect(m_hWnd, lpRect); }

  00072	8d 45 ec	 lea	 eax, DWORD PTR _rctCtrl$[ebp]
  00075	50		 push	 eax
  00076	ff b7 48 01 00
	00		 push	 DWORD PTR [edi+328]
  0007c	ff d3		 call	 ebx
; File D:\git\src\IBK\IBK_DRFN\ProjSrc\SrcChartEx\ChartAddIn\ChartDesignPropertyAddIn\ChartDesignPropertyAddIn\DlgGlobalLanguageTable.cpp

; 118  : 	ScreenToClient( rctCtrl);

  0007e	8d 45 ec	 lea	 eax, DWORD PTR _rctCtrl$[ebp]
  00081	8b cf		 mov	 ecx, edi
  00083	50		 push	 eax
  00084	e8 00 00 00 00	 call	 ?ScreenToClient@CWnd@@QBEXPAUtagRECT@@@Z ; CWnd::ScreenToClient

; 120  : 	rctCtrl.bottom = cy - nTopGap;

  00089	8b 45 10	 mov	 eax, DWORD PTR _cy$[ebp]
; File C:\Program Files (x86)\Microsoft Visual Studio\2019\Community\VC\Tools\MSVC\14.29.30133\atlmfc\include\afxwin2.inl

; 73   : 	{ MoveWindow(lpRect->left, lpRect->top, lpRect->right - lpRect->left,

  0008c	8b 4d f0	 mov	 ecx, DWORD PTR _rctCtrl$[ebp+4]
; File D:\git\src\IBK\IBK_DRFN\ProjSrc\SrcChartEx\ChartAddIn\ChartDesignPropertyAddIn\ChartDesignPropertyAddIn\DlgGlobalLanguageTable.cpp

; 120  : 	rctCtrl.bottom = cy - nTopGap;

  0008f	2b c6		 sub	 eax, esi
  00091	8b 7d 0c	 mov	 edi, DWORD PTR _cx$[ebp]
  00094	8b d7		 mov	 edx, edi
  00096	2b 55 e4	 sub	 edx, DWORD PTR _nLeftGap$1$[ebp]
; File C:\Program Files (x86)\Microsoft Visual Studio\2019\Community\VC\Tools\MSVC\14.29.30133\atlmfc\include\afxwin2.inl

; 73   : 	{ MoveWindow(lpRect->left, lpRect->top, lpRect->right - lpRect->left,

  00099	6a 01		 push	 1
; File D:\git\src\IBK\IBK_DRFN\ProjSrc\SrcChartEx\ChartAddIn\ChartDesignPropertyAddIn\ChartDesignPropertyAddIn\DlgGlobalLanguageTable.cpp

; 120  : 	rctCtrl.bottom = cy - nTopGap;

  0009b	89 45 f8	 mov	 DWORD PTR _rctCtrl$[ebp+12], eax
; File C:\Program Files (x86)\Microsoft Visual Studio\2019\Community\VC\Tools\MSVC\14.29.30133\atlmfc\include\afxwin2.inl

; 73   : 	{ MoveWindow(lpRect->left, lpRect->top, lpRect->right - lpRect->left,

  0009e	2b c1		 sub	 eax, ecx
  000a0	50		 push	 eax
  000a1	8b 45 ec	 mov	 eax, DWORD PTR _rctCtrl$[ebp]
; File D:\git\src\IBK\IBK_DRFN\ProjSrc\SrcChartEx\ChartAddIn\ChartDesignPropertyAddIn\ChartDesignPropertyAddIn\DlgGlobalLanguageTable.cpp

; 119  : 	rctCtrl.right = cx - nLeftGap;

  000a4	89 55 f4	 mov	 DWORD PTR _rctCtrl$[ebp+8], edx
; File C:\Program Files (x86)\Microsoft Visual Studio\2019\Community\VC\Tools\MSVC\14.29.30133\atlmfc\include\afxwin2.inl

; 73   : 	{ MoveWindow(lpRect->left, lpRect->top, lpRect->right - lpRect->left,

  000a7	2b d0		 sub	 edx, eax
  000a9	52		 push	 edx
  000aa	51		 push	 ecx
  000ab	8b 4d e0	 mov	 ecx, DWORD PTR _this$1$[ebp]
  000ae	50		 push	 eax
  000af	e8 00 00 00 00	 call	 ?MoveWindow@CWnd@@QAEXHHHHH@Z ; CWnd::MoveWindow
; File D:\git\src\IBK\IBK_DRFN\ProjSrc\SrcChartEx\ChartAddIn\ChartDesignPropertyAddIn\ChartDesignPropertyAddIn\DlgGlobalLanguageTable.cpp

; 124  : 	pWnd = GetDlgItem( IDC_EDT_SEARCH_TEXT);

  000b4	8b 4d e8	 mov	 ecx, DWORD PTR _this$GSCopy$1$[ebp]
  000b7	68 e1 07 00 00	 push	 2017			; 000007e1H
  000bc	e8 00 00 00 00	 call	 ?GetDlgItem@CWnd@@QBEPAV1@H@Z ; CWnd::GetDlgItem
  000c1	8b f0		 mov	 esi, eax
; File C:\Program Files (x86)\Microsoft Visual Studio\2019\Community\VC\Tools\MSVC\14.29.30133\atlmfc\include\afxwin2.inl

; 84   : 	{ ASSERT(::IsWindow(m_hWnd)); ::GetWindowRect(m_hWnd, lpRect); }

  000c3	8d 45 ec	 lea	 eax, DWORD PTR _rctCtrl$[ebp]
  000c6	50		 push	 eax
  000c7	ff 76 20	 push	 DWORD PTR [esi+32]
  000ca	ff d3		 call	 ebx
; File D:\git\src\IBK\IBK_DRFN\ProjSrc\SrcChartEx\ChartAddIn\ChartDesignPropertyAddIn\ChartDesignPropertyAddIn\DlgGlobalLanguageTable.cpp

; 126  : 	ScreenToClient( rctCtrl);

  000cc	8b 4d e8	 mov	 ecx, DWORD PTR _this$GSCopy$1$[ebp]
  000cf	8d 45 ec	 lea	 eax, DWORD PTR _rctCtrl$[ebp]
  000d2	50		 push	 eax
  000d3	e8 00 00 00 00	 call	 ?ScreenToClient@CWnd@@QBEXPAUtagRECT@@@Z ; CWnd::ScreenToClient
; File C:\Program Files (x86)\Microsoft Visual Studio\2019\Community\VC\Tools\MSVC\14.29.30133\atlmfc\include\atltypes.h

; 710  : 	::OffsetRect(this, x, y);

  000d8	2b 7d f4	 sub	 edi, DWORD PTR _rctCtrl$[ebp+8]
  000db	8d 45 ec	 lea	 eax, DWORD PTR _rctCtrl$[ebp]
; File D:\git\src\IBK\IBK_DRFN\ProjSrc\SrcChartEx\ChartAddIn\ChartDesignPropertyAddIn\ChartDesignPropertyAddIn\DlgGlobalLanguageTable.cpp

; 127  : 	rctCtrl.OffsetRect( cx - rctCtrl.Width() - nLeftGap - rctCtrl.left, 0);

  000de	2b 7d e4	 sub	 edi, DWORD PTR _nLeftGap$1$[ebp]
; File C:\Program Files (x86)\Microsoft Visual Studio\2019\Community\VC\Tools\MSVC\14.29.30133\atlmfc\include\atltypes.h

; 710  : 	::OffsetRect(this, x, y);

  000e1	6a 00		 push	 0
  000e3	57		 push	 edi
  000e4	50		 push	 eax
  000e5	ff 15 00 00 00
	00		 call	 DWORD PTR __imp__OffsetRect@12
; File C:\Program Files (x86)\Microsoft Visual Studio\2019\Community\VC\Tools\MSVC\14.29.30133\atlmfc\include\afxwin2.inl

; 73   : 	{ MoveWindow(lpRect->left, lpRect->top, lpRect->right - lpRect->left,

  000eb	8b 45 f8	 mov	 eax, DWORD PTR _rctCtrl$[ebp+12]
  000ee	8b 55 f0	 mov	 edx, DWORD PTR _rctCtrl$[ebp+4]
  000f1	2b c2		 sub	 eax, edx
  000f3	8b 4d ec	 mov	 ecx, DWORD PTR _rctCtrl$[ebp]
  000f6	6a 01		 push	 1
  000f8	50		 push	 eax
  000f9	8b 45 f4	 mov	 eax, DWORD PTR _rctCtrl$[ebp+8]
  000fc	2b c1		 sub	 eax, ecx
  000fe	50		 push	 eax
  000ff	52		 push	 edx
  00100	51		 push	 ecx
  00101	8b ce		 mov	 ecx, esi
  00103	e8 00 00 00 00	 call	 ?MoveWindow@CWnd@@QAEXHHHHH@Z ; CWnd::MoveWindow
  00108	5e		 pop	 esi
  00109	5b		 pop	 ebx
$LN1@OnSize:
; File D:\git\src\IBK\IBK_DRFN\ProjSrc\SrcChartEx\ChartAddIn\ChartDesignPropertyAddIn\ChartDesignPropertyAddIn\DlgGlobalLanguageTable.cpp

; 129  : }

  0010a	8b 4d fc	 mov	 ecx, DWORD PTR __$ArrayPad$[ebp]
  0010d	33 cd		 xor	 ecx, ebp
  0010f	5f		 pop	 edi
  00110	e8 00 00 00 00	 call	 @__security_check_cookie@4
  00115	8b e5		 mov	 esp, ebp
  00117	5d		 pop	 ebp
  00118	c2 0c 00	 ret	 12			; 0000000cH
?OnSize@CDlgGlobalLanguageTable@@IAEXIHH@Z ENDP		; CDlgGlobalLanguageTable::OnSize
_TEXT	ENDS
; Function compile flags: /Ogtp
; File D:\git\src\IBK\IBK_DRFN\ProjSrc\SrcChartEx\ChartAddIn\ChartDesignPropertyAddIn\ChartDesignPropertyAddIn\DlgGlobalLanguageTable.cpp
; File C:\Program Files (x86)\Microsoft Visual Studio\2019\Community\VC\Tools\MSVC\14.29.30133\atlmfc\include\afxwin2.inl
; File C:\Program Files (x86)\Microsoft Visual Studio\2019\Community\VC\Tools\MSVC\14.29.30133\atlmfc\include\atltypes.h
; File C:\Program Files (x86)\Microsoft Visual Studio\2019\Community\VC\Tools\MSVC\14.29.30133\atlmfc\include\afxwin2.inl
; File D:\git\src\IBK\IBK_DRFN\ProjSrc\SrcChartEx\ChartAddIn\ChartDesignPropertyAddIn\ChartDesignPropertyAddIn\DlgGlobalLanguageTable.cpp
; File C:\Program Files (x86)\Microsoft Visual Studio\2019\Community\VC\Tools\MSVC\14.29.30133\atlmfc\include\afxwin2.inl
; File D:\git\src\IBK\IBK_DRFN\ProjSrc\SrcChartEx\ChartAddIn\ChartDesignPropertyAddIn\ChartDesignPropertyAddIn\DlgGlobalLanguageTable.cpp
; File C:\Program Files (x86)\Microsoft Visual Studio\2019\Community\VC\Tools\MSVC\14.29.30133\atlmfc\include\afxwin2.inl
; File D:\git\src\IBK\IBK_DRFN\ProjSrc\SrcChartEx\ChartAddIn\ChartDesignPropertyAddIn\ChartDesignPropertyAddIn\DlgGlobalLanguageTable.cpp
; File C:\Program Files (x86)\Microsoft Visual Studio\2019\Community\VC\Tools\MSVC\14.29.30133\atlmfc\include\afxwin2.inl
; File C:\Program Files (x86)\Microsoft Visual Studio\2019\Community\VC\Tools\MSVC\14.29.30133\atlmfc\include\afxcmn2.inl
; File D:\git\src\IBK\IBK_DRFN\ProjSrc\SrcChartEx\ChartAddIn\ChartDesignPropertyAddIn\ChartDesignPropertyAddIn\DlgGlobalLanguageTable.cpp
; File C:\Program Files (x86)\Microsoft Visual Studio\2019\Community\VC\Tools\MSVC\14.29.30133\atlmfc\include\afxcmn2.inl
; File D:\git\src\IBK\IBK_DRFN\ProjSrc\SrcChartEx\ChartAddIn\ChartDesignPropertyAddIn\ChartDesignPropertyAddIn\DlgGlobalLanguageTable.cpp
; File C:\Program Files (x86)\Microsoft Visual Studio\2019\Community\VC\Tools\MSVC\14.29.30133\atlmfc\include\afxwin2.inl
; File D:\git\src\IBK\IBK_DRFN\ProjSrc\SrcChartEx\ChartAddIn\ChartDesignPropertyAddIn\ChartDesignPropertyAddIn\DlgGlobalLanguageTable.cpp
;	COMDAT ?OnInitDialog@CDlgGlobalLanguageTable@@MAEHXZ
_TEXT	SEGMENT
_strHeader$ = -36					; size = 4
_rctWindow$ = -32					; size = 16
__$ArrayPad$ = -16					; size = 4
__$EHRec$ = -12						; size = 12
?OnInitDialog@CDlgGlobalLanguageTable@@MAEHXZ PROC	; CDlgGlobalLanguageTable::OnInitDialog, COMDAT
; _this$ = ecx

; 59   : {

  00000	55		 push	 ebp
  00001	8b ec		 mov	 ebp, esp
  00003	6a ff		 push	 -1
  00005	68 00 00 00 00	 push	 __ehhandler$?OnInitDialog@CDlgGlobalLanguageTable@@MAEHXZ
  0000a	64 a1 00 00 00
	00		 mov	 eax, DWORD PTR fs:0
  00010	50		 push	 eax
  00011	83 ec 18	 sub	 esp, 24			; 00000018H
  00014	a1 00 00 00 00	 mov	 eax, DWORD PTR ___security_cookie
  00019	33 c5		 xor	 eax, ebp
  0001b	89 45 f0	 mov	 DWORD PTR __$ArrayPad$[ebp], eax
  0001e	53		 push	 ebx
  0001f	56		 push	 esi
  00020	57		 push	 edi
  00021	50		 push	 eax
  00022	8d 45 f4	 lea	 eax, DWORD PTR __$EHRec$[ebp]
  00025	64 a3 00 00 00
	00		 mov	 DWORD PTR fs:0, eax
  0002b	8b f9		 mov	 edi, ecx

; 60   : 	CDialog::OnInitDialog();

  0002d	e8 00 00 00 00	 call	 ?OnInitDialog@CDialog@@UAEHXZ ; CDialog::OnInitDialog
; File C:\Program Files (x86)\Microsoft Visual Studio\2019\Community\VC\Tools\MSVC\14.29.30133\atlmfc\include\afxwin2.inl

; 84   : 	{ ASSERT(::IsWindow(m_hWnd)); ::GetWindowRect(m_hWnd, lpRect); }

  00032	8d 45 e0	 lea	 eax, DWORD PTR _rctWindow$[ebp]
  00035	0f 57 c0	 xorps	 xmm0, xmm0
  00038	50		 push	 eax
  00039	ff 77 20	 push	 DWORD PTR [edi+32]
; File C:\Program Files (x86)\Microsoft Visual Studio\2019\Community\VC\Tools\MSVC\14.29.30133\atlmfc\include\atltypes.h

; 528  : 	left = 0;

  0003c	0f 11 45 e0	 movups	 XMMWORD PTR _rctWindow$[ebp], xmm0
; File C:\Program Files (x86)\Microsoft Visual Studio\2019\Community\VC\Tools\MSVC\14.29.30133\atlmfc\include\afxwin2.inl

; 84   : 	{ ASSERT(::IsWindow(m_hWnd)); ::GetWindowRect(m_hWnd, lpRect); }

  00040	ff 15 00 00 00
	00		 call	 DWORD PTR __imp__GetWindowRect@8
; File D:\git\src\IBK\IBK_DRFN\ProjSrc\SrcChartEx\ChartAddIn\ChartDesignPropertyAddIn\ChartDesignPropertyAddIn\DlgGlobalLanguageTable.cpp

; 66   : 	rctWindow.right = rctWindow.left + m_ptMinSize.x + 1;

  00046	8b 75 e0	 mov	 esi, DWORD PTR _rctWindow$[ebp]

; 67   : 	rctWindow.bottom = rctWindow.top + m_ptMinSize.y + 1;

  00049	8b 87 ac 01 00
	00		 mov	 eax, DWORD PTR [edi+428]
  0004f	8b 4d e4	 mov	 ecx, DWORD PTR _rctWindow$[ebp+4]
  00052	40		 inc	 eax
  00053	03 c1		 add	 eax, ecx
; File C:\Program Files (x86)\Microsoft Visual Studio\2019\Community\VC\Tools\MSVC\14.29.30133\atlmfc\include\afxwin2.inl

; 73   : 	{ MoveWindow(lpRect->left, lpRect->top, lpRect->right - lpRect->left,

  00055	6a 01		 push	 1
; File D:\git\src\IBK\IBK_DRFN\ProjSrc\SrcChartEx\ChartAddIn\ChartDesignPropertyAddIn\ChartDesignPropertyAddIn\DlgGlobalLanguageTable.cpp

; 66   : 	rctWindow.right = rctWindow.left + m_ptMinSize.x + 1;

  00057	8d 56 01	 lea	 edx, DWORD PTR [esi+1]

; 67   : 	rctWindow.bottom = rctWindow.top + m_ptMinSize.y + 1;

  0005a	89 45 ec	 mov	 DWORD PTR _rctWindow$[ebp+12], eax
  0005d	03 97 a8 01 00
	00		 add	 edx, DWORD PTR [edi+424]
; File C:\Program Files (x86)\Microsoft Visual Studio\2019\Community\VC\Tools\MSVC\14.29.30133\atlmfc\include\afxwin2.inl

; 73   : 	{ MoveWindow(lpRect->left, lpRect->top, lpRect->right - lpRect->left,

  00063	2b c1		 sub	 eax, ecx
  00065	50		 push	 eax
; File D:\git\src\IBK\IBK_DRFN\ProjSrc\SrcChartEx\ChartAddIn\ChartDesignPropertyAddIn\ChartDesignPropertyAddIn\DlgGlobalLanguageTable.cpp

; 66   : 	rctWindow.right = rctWindow.left + m_ptMinSize.x + 1;

  00066	89 55 e8	 mov	 DWORD PTR _rctWindow$[ebp+8], edx
; File C:\Program Files (x86)\Microsoft Visual Studio\2019\Community\VC\Tools\MSVC\14.29.30133\atlmfc\include\afxwin2.inl

; 73   : 	{ MoveWindow(lpRect->left, lpRect->top, lpRect->right - lpRect->left,

  00069	2b d6		 sub	 edx, esi
  0006b	52		 push	 edx
  0006c	51		 push	 ecx
  0006d	56		 push	 esi
  0006e	8b cf		 mov	 ecx, edi
  00070	e8 00 00 00 00	 call	 ?MoveWindow@CWnd@@QAEXHHHHH@Z ; CWnd::MoveWindow
; File C:\Program Files (x86)\Microsoft Visual Studio\2019\Community\VC\Tools\MSVC\14.29.30133\atlmfc\include\afxcmn2.inl

; 131  : 	{ ASSERT(::IsWindow(m_hWnd)); return (DWORD) ::SendMessage(m_hWnd, LVM_GETEXTENDEDLISTVIEWSTYLE, 0, 0); }

  00075	8b 1d 00 00 00
	00		 mov	 ebx, DWORD PTR __imp__SendMessageA@16
  0007b	6a 00		 push	 0
  0007d	6a 00		 push	 0
  0007f	68 37 10 00 00	 push	 4151			; 00001037H
  00084	ff b7 48 01 00
	00		 push	 DWORD PTR [edi+328]
  0008a	ff d3		 call	 ebx
; File D:\git\src\IBK\IBK_DRFN\ProjSrc\SrcChartEx\ChartAddIn\ChartDesignPropertyAddIn\ChartDesignPropertyAddIn\DlgGlobalLanguageTable.cpp

; 70   : 	m_lstMetaTable.SetExtendedStyle( m_lstMetaTable.GetExtendedStyle() | LVS_EX_FULLROWSELECT);

  0008c	83 c8 20	 or	 eax, 32			; 00000020H
; File C:\Program Files (x86)\Microsoft Visual Studio\2019\Community\VC\Tools\MSVC\14.29.30133\atlmfc\include\afxcmn2.inl

; 117  : 	{ ASSERT(::IsWindow(m_hWnd)); return (DWORD) ::SendMessage(m_hWnd, LVM_SETEXTENDEDLISTVIEWSTYLE, 0, (LPARAM) dwNewStyle); }

  0008f	50		 push	 eax
  00090	6a 00		 push	 0
  00092	68 36 10 00 00	 push	 4150			; 00001036H
  00097	ff b7 48 01 00
	00		 push	 DWORD PTR [edi+328]
  0009d	ff d3		 call	 ebx
; File D:\git\src\IBK\IBK_DRFN\ProjSrc\SrcChartEx\ChartAddIn\ChartDesignPropertyAddIn\ChartDesignPropertyAddIn\DlgGlobalLanguageTable.cpp

; 72   : 	CString strHeader;

  0009f	8d 4d dc	 lea	 ecx, DWORD PTR _strHeader$[ebp]
  000a2	ff 15 00 00 00
	00		 call	 DWORD PTR __imp_??0?$CStringT@DV?$StrTraitMFC_DLL@DV?$ChTraitsCRT@D@ATL@@@@@ATL@@QAE@XZ

; 73   : 	m_lstMetaTable.InsertColumn( 0, "Meta Text", LVCFMT_LEFT, 180);

  000a8	6a ff		 push	 -1
  000aa	68 b4 00 00 00	 push	 180			; 000000b4H
  000af	6a 00		 push	 0
  000b1	68 00 00 00 00	 push	 OFFSET ??_C@_09LDGIOJFP@Meta?5Text@
  000b6	8d 8f 28 01 00
	00		 lea	 ecx, DWORD PTR [edi+296]
  000bc	c7 45 fc 00 00
	00 00		 mov	 DWORD PTR __$EHRec$[ebp+8], 0
  000c3	6a 00		 push	 0
  000c5	e8 00 00 00 00	 call	 ?InsertColumn@CListCtrl@@QAEHHPBDHHH@Z ; CListCtrl::InsertColumn

; 74   : 	for( int i = IMetaTable::ENGLISH; i < IMetaTable::LANGUAGE_ID_END; i++)

  000ca	33 f6		 xor	 esi, esi
  000cc	0f 1f 40 00	 npad	 4
$LL4@OnInitDial:

; 75   : 	{
; 76   : 		switch( i)

  000d0	8b c6		 mov	 eax, esi
  000d2	83 e8 00	 sub	 eax, 0
  000d5	0f 84 14 01 00
	00		 je	 $LN7@OnInitDial
  000db	83 e8 01	 sub	 eax, 1
  000de	0f 85 19 01 00
	00		 jne	 $LN5@OnInitDial

; 79   : 										break;
; 80   : 			case IMetaTable::KOREAN:	strHeader = "Korean";

  000e4	68 00 00 00 00	 push	 OFFSET ??_C@_06OALMOPCN@Korean@
  000e9	8d 4d dc	 lea	 ecx, DWORD PTR _strHeader$[ebp]
  000ec	ff 15 00 00 00
	00		 call	 DWORD PTR __imp_??4?$CStringT@DV?$StrTraitMFC_DLL@DV?$ChTraitsCRT@D@ATL@@@@@ATL@@QAEAAV01@PBD@Z
  000f2	6a ff		 push	 -1
  000f4	68 c8 00 00 00	 push	 200			; 000000c8H
  000f9	6a 00		 push	 0
  000fb	ff 75 dc	 push	 DWORD PTR _strHeader$[ebp]
  000fe	8d 46 01	 lea	 eax, DWORD PTR [esi+1]
  00101	50		 push	 eax
  00102	8d 8f 28 01 00
	00		 lea	 ecx, DWORD PTR [edi+296]
  00108	e8 00 00 00 00	 call	 ?InsertColumn@CListCtrl@@QAEHHPBDHHH@Z ; CListCtrl::InsertColumn
$LN45@OnInitDial:
; File C:\Program Files (x86)\Microsoft Visual Studio\2019\Community\VC\Tools\MSVC\14.29.30133\atlmfc\include\afxwin2.inl

; 795  : 	{ ASSERT(::IsWindow(m_hWnd)); return (int)::SendMessage(m_hWnd, CB_ADDSTRING, 0, (LPARAM)lpszString); }

  0010d	68 00 00 00 00	 push	 OFFSET ??_C@_0M@HGLBGEGA@Packet?5Name@
  00112	6a 00		 push	 0
  00114	68 43 01 00 00	 push	 323			; 00000143H
  00119	ff b7 c8 00 00
	00		 push	 DWORD PTR [edi+200]
  0011f	ff d3		 call	 ebx
  00121	68 00 00 00 00	 push	 OFFSET ??_C@_0M@NKINGHGE@Graph?5Title@
  00126	6a 00		 push	 0
  00128	68 43 01 00 00	 push	 323			; 00000143H
  0012d	ff b7 c8 00 00
	00		 push	 DWORD PTR [edi+200]
  00133	ff d3		 call	 ebx
  00135	68 00 00 00 00	 push	 OFFSET ??_C@_0P@LLECGGKA@Indicator?5Name@
  0013a	6a 00		 push	 0
  0013c	68 43 01 00 00	 push	 323			; 00000143H
  00141	ff b7 c8 00 00
	00		 push	 DWORD PTR [edi+200]
  00147	ff d3		 call	 ebx
  00149	68 00 00 00 00	 push	 OFFSET ??_C@_0P@MGDEPAED@Sub?5Graph?5Name@
  0014e	6a 00		 push	 0
  00150	68 43 01 00 00	 push	 323			; 00000143H
  00155	ff b7 c8 00 00
	00		 push	 DWORD PTR [edi+200]
  0015b	ff d3		 call	 ebx
  0015d	68 00 00 00 00	 push	 OFFSET ??_C@_09FBPNNPKB@Tool?5Name@
  00162	6a 00		 push	 0
  00164	68 43 01 00 00	 push	 323			; 00000143H
  00169	ff b7 c8 00 00
	00		 push	 DWORD PTR [edi+200]
  0016f	ff d3		 call	 ebx
  00171	68 00 00 00 00	 push	 OFFSET ??_C@_0BF@OFNIMIPE@Graph?5Type?5and?5Style@
  00176	6a 00		 push	 0
  00178	68 43 01 00 00	 push	 323			; 00000143H
  0017d	ff b7 c8 00 00
	00		 push	 DWORD PTR [edi+200]
  00183	ff d3		 call	 ebx
  00185	68 00 00 00 00	 push	 OFFSET ??_C@_0BD@LBNBANAN@Scale?5Type?5and?5ETC@
  0018a	6a 00		 push	 0
  0018c	68 43 01 00 00	 push	 323			; 00000143H
  00191	ff b7 c8 00 00
	00		 push	 DWORD PTR [edi+200]
  00197	ff d3		 call	 ebx
  00199	68 00 00 00 00	 push	 OFFSET ??_C@_0BF@MFPJGLEF@Indicator?5Group?5Name@
  0019e	6a 00		 push	 0
  001a0	68 43 01 00 00	 push	 323			; 00000143H
  001a5	ff b7 c8 00 00
	00		 push	 DWORD PTR [edi+200]
  001ab	ff d3		 call	 ebx

; 767  : 	{ ASSERT(::IsWindow(m_hWnd)); return (int)::SendMessage(m_hWnd, CB_SETCURSEL, nSelect, 0); }

  001ad	6a 00		 push	 0
  001af	6a 00		 push	 0
  001b1	68 4e 01 00 00	 push	 334			; 0000014eH
  001b6	ff b7 c8 00 00
	00		 push	 DWORD PTR [edi+200]
  001bc	ff d3		 call	 ebx
; File D:\git\src\IBK\IBK_DRFN\ProjSrc\SrcChartEx\ChartAddIn\ChartDesignPropertyAddIn\ChartDesignPropertyAddIn\DlgGlobalLanguageTable.cpp

; 95   : 	OnSelchangeCmbTableType();

  001be	8b cf		 mov	 ecx, edi
  001c0	e8 00 00 00 00	 call	 ?OnSelchangeCmbTableType@CDlgGlobalLanguageTable@@IAEXXZ ; CDlgGlobalLanguageTable::OnSelchangeCmbTableType

; 96   : 	return TRUE;  // return TRUE unless you set the focus to a control

  001c5	8d 4d dc	 lea	 ecx, DWORD PTR _strHeader$[ebp]
  001c8	ff 15 00 00 00
	00		 call	 DWORD PTR __imp_??1?$CStringT@DV?$StrTraitMFC_DLL@DV?$ChTraitsCRT@D@ATL@@@@@ATL@@QAE@XZ
  001ce	b8 01 00 00 00	 mov	 eax, 1

; 97   : 	              // EXCEPTION: OCX Property Pages should return FALSE
; 98   : }

  001d3	8b 4d f4	 mov	 ecx, DWORD PTR __$EHRec$[ebp]
  001d6	64 89 0d 00 00
	00 00		 mov	 DWORD PTR fs:0, ecx
  001dd	59		 pop	 ecx
  001de	5f		 pop	 edi
  001df	5e		 pop	 esi
  001e0	5b		 pop	 ebx
  001e1	8b 4d f0	 mov	 ecx, DWORD PTR __$ArrayPad$[ebp]
  001e4	33 cd		 xor	 ecx, ebp
  001e6	e8 00 00 00 00	 call	 @__security_check_cookie@4
  001eb	8b e5		 mov	 esp, ebp
  001ed	5d		 pop	 ebp
  001ee	c3		 ret	 0
$LN7@OnInitDial:

; 77   : 		{
; 78   : 			case IMetaTable::ENGLISH:	strHeader = "English";

  001ef	68 00 00 00 00	 push	 OFFSET ??_C@_07NEKHPBCG@English@
  001f4	8d 4d dc	 lea	 ecx, DWORD PTR _strHeader$[ebp]
  001f7	ff 15 00 00 00
	00		 call	 DWORD PTR __imp_??4?$CStringT@DV?$StrTraitMFC_DLL@DV?$ChTraitsCRT@D@ATL@@@@@ATL@@QAEAAV01@PBD@Z
$LN5@OnInitDial:

; 81   : 										break;
; 82   : 		}
; 83   : 		m_lstMetaTable.InsertColumn( i + 1, strHeader, LVCFMT_LEFT, 200);

  001fd	6a ff		 push	 -1
  001ff	68 c8 00 00 00	 push	 200			; 000000c8H
  00204	6a 00		 push	 0
  00206	ff 75 dc	 push	 DWORD PTR _strHeader$[ebp]
  00209	46		 inc	 esi
  0020a	8d 8f 28 01 00
	00		 lea	 ecx, DWORD PTR [edi+296]
  00210	56		 push	 esi
  00211	e8 00 00 00 00	 call	 ?InsertColumn@CListCtrl@@QAEHHPBDHHH@Z ; CListCtrl::InsertColumn
  00216	83 fe 02	 cmp	 esi, 2
  00219	0f 8c b1 fe ff
	ff		 jl	 $LL4@OnInitDial

; 74   : 	for( int i = IMetaTable::ENGLISH; i < IMetaTable::LANGUAGE_ID_END; i++)

  0021f	e9 e9 fe ff ff	 jmp	 $LN45@OnInitDial
_TEXT	ENDS
;	COMDAT text$x
text$x	SEGMENT
__unwindfunclet$?OnInitDialog@CDlgGlobalLanguageTable@@MAEHXZ$0:
  00000	8d 4d dc	 lea	 ecx, DWORD PTR _strHeader$[ebp]
  00003	ff 25 00 00 00
	00		 jmp	 DWORD PTR __imp_??1?$CStringT@DV?$StrTraitMFC_DLL@DV?$ChTraitsCRT@D@ATL@@@@@ATL@@QAE@XZ
  00009	cc		 int	 3
  0000a	cc		 int	 3
  0000b	cc		 int	 3
  0000c	cc		 int	 3
  0000d	cc		 int	 3
__ehhandler$?OnInitDialog@CDlgGlobalLanguageTable@@MAEHXZ:
  0000e	90		 npad	 1
  0000f	90		 npad	 1
  00010	8b 54 24 08	 mov	 edx, DWORD PTR [esp+8]
  00014	8d 42 0c	 lea	 eax, DWORD PTR [edx+12]
  00017	8b 4a d8	 mov	 ecx, DWORD PTR [edx-40]
  0001a	33 c8		 xor	 ecx, eax
  0001c	e8 00 00 00 00	 call	 @__security_check_cookie@4
  00021	8b 4a fc	 mov	 ecx, DWORD PTR [edx-4]
  00024	33 c8		 xor	 ecx, eax
  00026	e8 00 00 00 00	 call	 @__security_check_cookie@4
  0002b	b8 00 00 00 00	 mov	 eax, OFFSET __ehfuncinfo$?OnInitDialog@CDlgGlobalLanguageTable@@MAEHXZ
  00030	e9 00 00 00 00	 jmp	 ___CxxFrameHandler3
text$x	ENDS
?OnInitDialog@CDlgGlobalLanguageTable@@MAEHXZ ENDP	; CDlgGlobalLanguageTable::OnInitDialog
; Function compile flags: /Ogtp
; File D:\git\src\IBK\IBK_DRFN\ProjSrc\SrcChartEx\ChartAddIn\ChartDesignPropertyAddIn\ChartDesignPropertyAddIn\DlgGlobalLanguageTable.cpp
;	COMDAT ?DoDataExchange@CDlgGlobalLanguageTable@@MAEXPAVCDataExchange@@@Z
_TEXT	SEGMENT
_pDX$ = 8						; size = 4
?DoDataExchange@CDlgGlobalLanguageTable@@MAEXPAVCDataExchange@@@Z PROC ; CDlgGlobalLanguageTable::DoDataExchange, COMDAT
; _this$ = ecx

; 34   : {

  00000	55		 push	 ebp
  00001	8b ec		 mov	 ebp, esp
  00003	57		 push	 edi
  00004	8b f9		 mov	 edi, ecx

; 35   : 	CDialog::DoDataExchange(pDX);
; 36   : 	//{{AFX_DATA_MAP(CDlgGlobalLanguageTable)
; 37   : 	DDX_Control(pDX, IDC_CMB_TABLE_TYPE, m_cmbTableType);

  00006	8d 87 a8 00 00
	00		 lea	 eax, DWORD PTR [edi+168]
  0000c	50		 push	 eax
  0000d	68 e3 07 00 00	 push	 2019			; 000007e3H
  00012	ff 75 08	 push	 DWORD PTR _pDX$[ebp]
  00015	e8 00 00 00 00	 call	 ?DDX_Control@@YGXPAVCDataExchange@@HAAVCWnd@@@Z ; DDX_Control

; 38   : 	DDX_Control(pDX, IDC_LST_META_TABLE, m_lstMetaTable);

  0001a	8d 87 28 01 00
	00		 lea	 eax, DWORD PTR [edi+296]
  00020	50		 push	 eax
  00021	68 de 07 00 00	 push	 2014			; 000007deH
  00026	ff 75 08	 push	 DWORD PTR _pDX$[ebp]
  00029	e8 00 00 00 00	 call	 ?DDX_Control@@YGXPAVCDataExchange@@HAAVCWnd@@@Z ; DDX_Control
  0002e	5f		 pop	 edi

; 39   : 	//}}AFX_DATA_MAP
; 40   : }

  0002f	5d		 pop	 ebp
  00030	c2 04 00	 ret	 4
?DoDataExchange@CDlgGlobalLanguageTable@@MAEXPAVCDataExchange@@@Z ENDP ; CDlgGlobalLanguageTable::DoDataExchange
_TEXT	ENDS
; Function compile flags: /Ogtp
; File D:\git\src\IBK\IBK_DRFN\ProjSrc\SrcChartEx\ChartAddIn\ChartDesignPropertyAddIn\ChartDesignPropertyAddIn\DlgGlobalLanguageTable.cpp
; File C:\Program Files (x86)\Microsoft Visual Studio\2019\Community\VC\Tools\MSVC\14.29.30133\atlmfc\include\afxwin2.inl
; File D:\git\src\IBK\IBK_DRFN\ProjSrc\SrcChartEx\ChartAddIn\ChartDesignPropertyAddIn\ChartDesignPropertyAddIn\DlgGlobalLanguageTable.cpp
; File C:\Program Files (x86)\Microsoft Visual Studio\2019\Community\VC\Tools\MSVC\14.29.30133\atlmfc\include\afxwin2.inl
; File D:\git\src\IBK\IBK_DRFN\ProjSrc\SrcChartEx\ChartAddIn\ChartDesignPropertyAddIn\ChartDesignPropertyAddIn\DlgGlobalLanguageTable.cpp
; File C:\Program Files (x86)\Microsoft Visual Studio\2019\Community\VC\Tools\MSVC\14.29.30133\atlmfc\include\afxcmn.inl
; File D:\git\src\IBK\IBK_DRFN\ProjSrc\SrcChartEx\ChartAddIn\ChartDesignPropertyAddIn\ChartDesignPropertyAddIn\DlgGlobalLanguageTable.cpp
; File C:\Program Files (x86)\Microsoft Visual Studio\2019\Community\VC\Tools\MSVC\14.29.30133\atlmfc\include\afxcmn.inl
; File D:\git\src\IBK\IBK_DRFN\ProjSrc\SrcChartEx\ChartAddIn\ChartDesignPropertyAddIn\ChartDesignPropertyAddIn\DlgGlobalLanguageTable.cpp
; File C:\Program Files (x86)\Microsoft Visual Studio\2019\Community\VC\Tools\MSVC\14.29.30133\atlmfc\include\atltypes.h
; File D:\git\src\IBK\IBK_DRFN\ProjSrc\SrcChartEx\ChartAddIn\ChartDesignPropertyAddIn\ChartDesignPropertyAddIn\DlgGlobalLanguageTable.cpp
;	COMDAT ??0CDlgGlobalLanguageTable@@QAE@PAVCWnd@@@Z
_TEXT	SEGMENT
_this$ = -16						; size = 4
__$EHRec$ = -12						; size = 12
_this$ = 8						; size = 4
_this$ = 8						; size = 4
_pParent$ = 8						; size = 4
??0CDlgGlobalLanguageTable@@QAE@PAVCWnd@@@Z PROC	; CDlgGlobalLanguageTable::CDlgGlobalLanguageTable, COMDAT
; _this$ = ecx

; 20   : {

  00000	55		 push	 ebp
  00001	8b ec		 mov	 ebp, esp
  00003	6a ff		 push	 -1
  00005	68 00 00 00 00	 push	 __ehhandler$??0CDlgGlobalLanguageTable@@QAE@PAVCWnd@@@Z
  0000a	64 a1 00 00 00
	00		 mov	 eax, DWORD PTR fs:0
  00010	50		 push	 eax
  00011	51		 push	 ecx
  00012	56		 push	 esi
  00013	57		 push	 edi
  00014	a1 00 00 00 00	 mov	 eax, DWORD PTR ___security_cookie
  00019	33 c5		 xor	 eax, ebp
  0001b	50		 push	 eax
  0001c	8d 45 f4	 lea	 eax, DWORD PTR __$EHRec$[ebp]
  0001f	64 a3 00 00 00
	00		 mov	 DWORD PTR fs:0, eax
  00025	8b f9		 mov	 edi, ecx
  00027	89 7d f0	 mov	 DWORD PTR _this$[ebp], edi

; 19   : 	: CDialog(CDlgGlobalLanguageTable::IDD, pParent)

  0002a	ff 75 08	 push	 DWORD PTR _pParent$[ebp]
  0002d	68 d2 07 00 00	 push	 2002			; 000007d2H
  00032	e8 00 00 00 00	 call	 ??0CDialog@@QAE@IPAVCWnd@@@Z ; CDialog::CDialog

; 20   : {

  00037	8d b7 a8 00 00
	00		 lea	 esi, DWORD PTR [edi+168]
  0003d	c7 45 fc 00 00
	00 00		 mov	 DWORD PTR __$EHRec$[ebp+8], 0
; File C:\Program Files (x86)\Microsoft Visual Studio\2019\Community\VC\Tools\MSVC\14.29.30133\atlmfc\include\afxwin2.inl

; 761  : 	{ }

  00044	8b ce		 mov	 ecx, esi
; File D:\git\src\IBK\IBK_DRFN\ProjSrc\SrcChartEx\ChartAddIn\ChartDesignPropertyAddIn\ChartDesignPropertyAddIn\DlgGlobalLanguageTable.cpp

; 20   : {

  00046	c7 07 00 00 00
	00		 mov	 DWORD PTR [edi], OFFSET ??_7CDlgGlobalLanguageTable@@6B@
  0004c	89 75 08	 mov	 DWORD PTR _this$[ebp], esi
; File C:\Program Files (x86)\Microsoft Visual Studio\2019\Community\VC\Tools\MSVC\14.29.30133\atlmfc\include\afxwin2.inl

; 761  : 	{ }

  0004f	e8 00 00 00 00	 call	 ??0CWnd@@QAE@XZ		; CWnd::CWnd
  00054	c7 06 00 00 00
	00		 mov	 DWORD PTR [esi], OFFSET ??_7CComboBox@@6B@
; File D:\git\src\IBK\IBK_DRFN\ProjSrc\SrcChartEx\ChartAddIn\ChartDesignPropertyAddIn\ChartDesignPropertyAddIn\DlgGlobalLanguageTable.cpp

; 20   : {

  0005a	8d b7 28 01 00
	00		 lea	 esi, DWORD PTR [edi+296]
  00060	c6 45 fc 01	 mov	 BYTE PTR __$EHRec$[ebp+8], 1
; File C:\Program Files (x86)\Microsoft Visual Studio\2019\Community\VC\Tools\MSVC\14.29.30133\atlmfc\include\afxcmn.inl

; 141  : 	{ }

  00064	8b ce		 mov	 ecx, esi
; File D:\git\src\IBK\IBK_DRFN\ProjSrc\SrcChartEx\ChartAddIn\ChartDesignPropertyAddIn\ChartDesignPropertyAddIn\DlgGlobalLanguageTable.cpp

; 20   : {

  00066	89 75 08	 mov	 DWORD PTR _this$[ebp], esi
; File C:\Program Files (x86)\Microsoft Visual Studio\2019\Community\VC\Tools\MSVC\14.29.30133\atlmfc\include\afxcmn.inl

; 141  : 	{ }

  00069	e8 00 00 00 00	 call	 ??0CWnd@@QAE@XZ		; CWnd::CWnd
  0006e	c7 06 00 00 00
	00		 mov	 DWORD PTR [esi], OFFSET ??_7CListCtrl@@6B@
; File D:\git\src\IBK\IBK_DRFN\ProjSrc\SrcChartEx\ChartAddIn\ChartDesignPropertyAddIn\ChartDesignPropertyAddIn\DlgGlobalLanguageTable.cpp

; 31   : }

  00074	8b c7		 mov	 eax, edi
; File C:\Program Files (x86)\Microsoft Visual Studio\2019\Community\VC\Tools\MSVC\14.29.30133\atlmfc\include\atltypes.h

; 400  : 	x = 0;

  00076	c7 87 a8 01 00
	00 00 00 00 00	 mov	 DWORD PTR [edi+424], 0

; 401  : 	y = 0;

  00080	c7 87 ac 01 00
	00 00 00 00 00	 mov	 DWORD PTR [edi+428], 0
; File D:\git\src\IBK\IBK_DRFN\ProjSrc\SrcChartEx\ChartAddIn\ChartDesignPropertyAddIn\ChartDesignPropertyAddIn\DlgGlobalLanguageTable.cpp

; 25   : 	m_nSortColumn	= 0;

  0008a	c7 87 b0 01 00
	00 00 00 00 00	 mov	 DWORD PTR [edi+432], 0

; 26   : 	m_bSortASC		= TRUE;

  00094	c7 87 b4 01 00
	00 01 00 00 00	 mov	 DWORD PTR [edi+436], 1

; 27   : 
; 28   : 	// (2008/2/24 - Seung-Won, Bae) Resize Minimum
; 29   : 	m_ptMinSize.x = 650;

  0009e	c7 87 a8 01 00
	00 8a 02 00 00	 mov	 DWORD PTR [edi+424], 650 ; 0000028aH

; 30   : 	m_ptMinSize.y = 450;

  000a8	c7 87 ac 01 00
	00 c2 01 00 00	 mov	 DWORD PTR [edi+428], 450 ; 000001c2H

; 31   : }

  000b2	8b 4d f4	 mov	 ecx, DWORD PTR __$EHRec$[ebp]
  000b5	64 89 0d 00 00
	00 00		 mov	 DWORD PTR fs:0, ecx
  000bc	59		 pop	 ecx
  000bd	5f		 pop	 edi
  000be	5e		 pop	 esi
  000bf	8b e5		 mov	 esp, ebp
  000c1	5d		 pop	 ebp
  000c2	c2 04 00	 ret	 4
_TEXT	ENDS
;	COMDAT text$x
text$x	SEGMENT
__unwindfunclet$??0CDlgGlobalLanguageTable@@QAE@PAVCWnd@@@Z$0:
  00000	8b 4d f0	 mov	 ecx, DWORD PTR _this$[ebp]
  00003	e9 00 00 00 00	 jmp	 ??1CDialog@@UAE@XZ	; CDialog::~CDialog
__unwindfunclet$??0CDlgGlobalLanguageTable@@QAE@PAVCWnd@@@Z$1:
  00008	8b 4d f0	 mov	 ecx, DWORD PTR _this$[ebp]
  0000b	81 c1 a8 00 00
	00		 add	 ecx, 168		; 000000a8H
  00011	e9 00 00 00 00	 jmp	 ??1CComboBox@@UAE@XZ	; CComboBox::~CComboBox
  00016	cc		 int	 3
  00017	cc		 int	 3
  00018	cc		 int	 3
  00019	cc		 int	 3
  0001a	cc		 int	 3
__ehhandler$??0CDlgGlobalLanguageTable@@QAE@PAVCWnd@@@Z:
  0001b	90		 npad	 1
  0001c	90		 npad	 1
  0001d	8b 54 24 08	 mov	 edx, DWORD PTR [esp+8]
  00021	8d 42 0c	 lea	 eax, DWORD PTR [edx+12]
  00024	8b 4a f0	 mov	 ecx, DWORD PTR [edx-16]
  00027	33 c8		 xor	 ecx, eax
  00029	e8 00 00 00 00	 call	 @__security_check_cookie@4
  0002e	b8 00 00 00 00	 mov	 eax, OFFSET __ehfuncinfo$??0CDlgGlobalLanguageTable@@QAE@PAVCWnd@@@Z
  00033	e9 00 00 00 00	 jmp	 ___CxxFrameHandler3
text$x	ENDS
??0CDlgGlobalLanguageTable@@QAE@PAVCWnd@@@Z ENDP	; CDlgGlobalLanguageTable::CDlgGlobalLanguageTable
; Function compile flags: /Ogtp
; File D:\git\src\IBK\IBK_DRFN\ProjSrc\SrcChartEx\ChartAddIn\ChartDesignPropertyAddIn\ChartDesignPropertyAddIn\EditableListCtrl.h
;	COMDAT ??__ERMSG_ELC_CELLEDITED@@YAXXZ
text$di	SEGMENT
??__ERMSG_ELC_CELLEDITED@@YAXXZ PROC			; `dynamic initializer for 'RMSG_ELC_CELLEDITED'', COMDAT

; 27   : const UINT RMSG_ELC_CELLEDITED = ::RegisterWindowMessage(_T("RMSG_EDITABLELISTCTRL_CELLEDITED"));

  00000	68 00 00 00 00	 push	 OFFSET ??_C@_0CB@EFDCECKM@RMSG_EDITABLELISTCTRL_CELLEDITE@
  00005	ff 15 00 00 00
	00		 call	 DWORD PTR __imp__RegisterWindowMessageA@4
  0000b	a3 00 00 00 00	 mov	 DWORD PTR ?RMSG_ELC_CELLEDITED@@3IB, eax
  00010	c3		 ret	 0
??__ERMSG_ELC_CELLEDITED@@YAXXZ ENDP			; `dynamic initializer for 'RMSG_ELC_CELLEDITED''
text$di	ENDS
; Function compile flags: /Ogtp
; File C:\Program Files (x86)\Microsoft Visual Studio\2019\Community\VC\Tools\MSVC\14.29.30133\atlmfc\include\afx.inl
;	COMDAT ??_GCListCtrl@@UAEPAXI@Z
_TEXT	SEGMENT
___flags$ = 8						; size = 4
??_GCListCtrl@@UAEPAXI@Z PROC				; CListCtrl::`scalar deleting destructor', COMDAT
; _this$ = ecx
  00000	55		 push	 ebp
  00001	8b ec		 mov	 ebp, esp
  00003	56		 push	 esi
  00004	8b f1		 mov	 esi, ecx
  00006	e8 00 00 00 00	 call	 ??1CListCtrl@@UAE@XZ	; CListCtrl::~CListCtrl
  0000b	8b 45 08	 mov	 eax, DWORD PTR ___flags$[ebp]
  0000e	a8 01		 test	 al, 1
  00010	74 22		 je	 SHORT $LN9@scalar
  00012	a8 04		 test	 al, 4
  00014	75 10		 jne	 SHORT $LN3@scalar

; 112  : 	{ ::operator delete(p); }

  00016	56		 push	 esi
  00017	e8 00 00 00 00	 call	 ??3@YAXPAX@Z		; operator delete
  0001c	83 c4 04	 add	 esp, 4
  0001f	8b c6		 mov	 eax, esi
  00021	5e		 pop	 esi
  00022	5d		 pop	 ebp
  00023	c2 04 00	 ret	 4
$LN3@scalar:
  00026	68 80 00 00 00	 push	 128			; 00000080H
  0002b	56		 push	 esi
  0002c	e8 00 00 00 00	 call	 ?__global_delete@@YAXPAXI@Z ; __global_delete
  00031	83 c4 08	 add	 esp, 8
$LN9@scalar:
  00034	8b c6		 mov	 eax, esi
  00036	5e		 pop	 esi
  00037	5d		 pop	 ebp
  00038	c2 04 00	 ret	 4
??_GCListCtrl@@UAEPAXI@Z ENDP				; CListCtrl::`scalar deleting destructor'
_TEXT	ENDS
; Function compile flags: /Ogtp
; File C:\Program Files (x86)\Microsoft Visual Studio\2019\Community\VC\Tools\MSVC\14.29.30133\atlmfc\include\afx.inl
;	COMDAT ??_GCComboBox@@UAEPAXI@Z
_TEXT	SEGMENT
___flags$ = 8						; size = 4
??_GCComboBox@@UAEPAXI@Z PROC				; CComboBox::`scalar deleting destructor', COMDAT
; _this$ = ecx
  00000	55		 push	 ebp
  00001	8b ec		 mov	 ebp, esp
  00003	56		 push	 esi
  00004	8b f1		 mov	 esi, ecx
  00006	e8 00 00 00 00	 call	 ??1CComboBox@@UAE@XZ	; CComboBox::~CComboBox
  0000b	8b 45 08	 mov	 eax, DWORD PTR ___flags$[ebp]
  0000e	a8 01		 test	 al, 1
  00010	74 22		 je	 SHORT $LN9@scalar
  00012	a8 04		 test	 al, 4
  00014	75 10		 jne	 SHORT $LN3@scalar

; 112  : 	{ ::operator delete(p); }

  00016	56		 push	 esi
  00017	e8 00 00 00 00	 call	 ??3@YAXPAX@Z		; operator delete
  0001c	83 c4 04	 add	 esp, 4
  0001f	8b c6		 mov	 eax, esi
  00021	5e		 pop	 esi
  00022	5d		 pop	 ebp
  00023	c2 04 00	 ret	 4
$LN3@scalar:
  00026	68 80 00 00 00	 push	 128			; 00000080H
  0002b	56		 push	 esi
  0002c	e8 00 00 00 00	 call	 ?__global_delete@@YAXPAXI@Z ; __global_delete
  00031	83 c4 08	 add	 esp, 8
$LN9@scalar:
  00034	8b c6		 mov	 eax, esi
  00036	5e		 pop	 esi
  00037	5d		 pop	 ebp
  00038	c2 04 00	 ret	 4
??_GCComboBox@@UAEPAXI@Z ENDP				; CComboBox::`scalar deleting destructor'
_TEXT	ENDS
; Function compile flags: /Ogtp
; File C:\Program Files (x86)\Microsoft Visual Studio\2019\Community\VC\Tools\MSVC\14.29.30133\atlmfc\include\afxwin2.inl
;	COMDAT ?Create@CDialog@@UAEHIPAVCWnd@@@Z
_TEXT	SEGMENT
_nIDTemplate$ = 8					; size = 4
_pParentWnd$ = 12					; size = 4
?Create@CDialog@@UAEHIPAVCWnd@@@Z PROC			; CDialog::Create, COMDAT
; _this$ = ecx

; 585  : 	{ return CDialog::Create(ATL_MAKEINTRESOURCE(nIDTemplate), pParentWnd); }

  00000	55		 push	 ebp
  00001	8b ec		 mov	 ebp, esp
  00003	0f b7 45 08	 movzx	 eax, WORD PTR _nIDTemplate$[ebp]
  00007	89 45 08	 mov	 DWORD PTR _nIDTemplate$[ebp], eax
  0000a	5d		 pop	 ebp
  0000b	e9 00 00 00 00	 jmp	 ?Create@CDialog@@UAEHPBDPAVCWnd@@@Z ; CDialog::Create
?Create@CDialog@@UAEHIPAVCWnd@@@Z ENDP			; CDialog::Create
_TEXT	ENDS
; Function compile flags: /Ogtp
; File C:\Program Files (x86)\Microsoft Visual Studio\2019\Community\VC\Tools\MSVC\14.29.30133\atlmfc\include\afxwin2.inl
;	COMDAT ?EndModalState@CWnd@@UAEXXZ
_TEXT	SEGMENT
?EndModalState@CWnd@@UAEXXZ PROC			; CWnd::EndModalState, COMDAT
; _this$ = ecx

; 567  : 	{ ::EnableWindow(m_hWnd, TRUE); }

  00000	6a 01		 push	 1
  00002	ff 71 20	 push	 DWORD PTR [ecx+32]
  00005	ff 15 00 00 00
	00		 call	 DWORD PTR __imp__EnableWindow@8
  0000b	c3		 ret	 0
?EndModalState@CWnd@@UAEXXZ ENDP			; CWnd::EndModalState
_TEXT	ENDS
; Function compile flags: /Ogtp
; File C:\Program Files (x86)\Microsoft Visual Studio\2019\Community\VC\Tools\MSVC\14.29.30133\atlmfc\include\afxwin2.inl
;	COMDAT ?BeginModalState@CWnd@@UAEXXZ
_TEXT	SEGMENT
?BeginModalState@CWnd@@UAEXXZ PROC			; CWnd::BeginModalState, COMDAT
; _this$ = ecx

; 565  : 	{ ::EnableWindow(m_hWnd, FALSE); }

  00000	6a 00		 push	 0
  00002	ff 71 20	 push	 DWORD PTR [ecx+32]
  00005	ff 15 00 00 00
	00		 call	 DWORD PTR __imp__EnableWindow@8
  0000b	c3		 ret	 0
?BeginModalState@CWnd@@UAEXXZ ENDP			; CWnd::BeginModalState
_TEXT	ENDS
; Function compile flags: /Ogtp
; File C:\Program Files (x86)\Microsoft Visual Studio\2019\Community\VC\Tools\MSVC\14.29.30133\atlmfc\include\afxwin2.inl
;	COMDAT ?DoDataExchange@CWnd@@MAEXPAVCDataExchange@@@Z
_TEXT	SEGMENT
___formal$ = 8						; size = 4
?DoDataExchange@CWnd@@MAEXPAVCDataExchange@@@Z PROC	; CWnd::DoDataExchange, COMDAT
; _this$ = ecx

; 561  : 	{ } // default does nothing

  00000	c2 04 00	 ret	 4
?DoDataExchange@CWnd@@MAEXPAVCDataExchange@@@Z ENDP	; CWnd::DoDataExchange
_TEXT	ENDS
; Function compile flags: /Ogtp
; File C:\Program Files (x86)\Microsoft Visual Studio\2019\Community\VC\Tools\MSVC\14.29.30133\atlmfc\include\afx.inl
;	COMDAT ?Dump@CObject@@UBEXAAVCDumpContext@@@Z
_TEXT	SEGMENT
___formal$ = 8						; size = 4
?Dump@CObject@@UBEXAAVCDumpContext@@@Z PROC		; CObject::Dump, COMDAT
; _this$ = ecx

; 122  : 	{ /* no dumping in release builds */ }

  00000	c2 04 00	 ret	 4
?Dump@CObject@@UBEXAAVCDumpContext@@@Z ENDP		; CObject::Dump
_TEXT	ENDS
; Function compile flags: /Ogtp
; File C:\Program Files (x86)\Microsoft Visual Studio\2019\Community\VC\Tools\MSVC\14.29.30133\atlmfc\include\afx.inl
;	COMDAT ?AssertValid@CObject@@UBEXXZ
_TEXT	SEGMENT
?AssertValid@CObject@@UBEXXZ PROC			; CObject::AssertValid, COMDAT
; _this$ = ecx

; 120  : 	{ /* no asserts in release builds */ }

  00000	c2 00 00	 ret	 0
?AssertValid@CObject@@UBEXXZ ENDP			; CObject::AssertValid
_TEXT	ENDS
; Function compile flags: /Ogtp
; File C:\Program Files (x86)\Microsoft Visual Studio\2019\Community\VC\Tools\MSVC\14.29.30133\atlmfc\include\afx.inl
;	COMDAT ?Serialize@CObject@@UAEXAAVCArchive@@@Z
_TEXT	SEGMENT
___formal$ = 8						; size = 4
?Serialize@CObject@@UAEXAAVCArchive@@@Z PROC		; CObject::Serialize, COMDAT
; _this$ = ecx

; 106  : 	{ /* CObject does not serialize anything by default */ }

  00000	c2 04 00	 ret	 4
?Serialize@CObject@@UAEXAAVCArchive@@@Z ENDP		; CObject::Serialize
_TEXT	ENDS
; Function compile flags: /Ogtp
; File C:\Program Files (x86)\Microsoft Visual Studio\2019\Community\VC\Tools\MSVC\14.29.30133\atlmfc\include\afx.inl
;	COMDAT ??3CObject@@SGXPAX@Z
_TEXT	SEGMENT
_p$ = 8							; size = 4
??3CObject@@SGXPAX@Z PROC				; CObject::operator delete, COMDAT

; 112  : 	{ ::operator delete(p); }

  00000	55		 push	 ebp
  00001	8b ec		 mov	 ebp, esp
  00003	ff 75 08	 push	 DWORD PTR _p$[ebp]
  00006	e8 00 00 00 00	 call	 ??3@YAXPAX@Z		; operator delete
  0000b	83 c4 04	 add	 esp, 4
  0000e	5d		 pop	 ebp
  0000f	c2 04 00	 ret	 4
??3CObject@@SGXPAX@Z ENDP				; CObject::operator delete
_TEXT	ENDS
; Function compile flags: /Ogtp
; File D:\git\src\IBK\IBK_DRFN\ProjSrc\SrcChartEx\ChartAddIn\ChartDesignPropertyAddIn\ChartDesignPropertyAddIn\DlgGlobalLanguageTable.cpp
;	COMDAT ?__empty_global_delete@@YAXPAXI@Z
_TEXT	SEGMENT
___formal$ = 8						; size = 4
___formal$ = 12						; size = 4
?__empty_global_delete@@YAXPAXI@Z PROC			; __empty_global_delete, COMDAT

  00000	c2 00 00	 ret	 0
?__empty_global_delete@@YAXPAXI@Z ENDP			; __empty_global_delete
_TEXT	ENDS
; Function compile flags: /Ogtp
; File D:\git\src\IBK\IBK_DRFN\ProjSrc\SrcChartEx\ChartAddIn\ChartDesignPropertyAddIn\ChartDesignPropertyAddIn\DlgGlobalLanguageTable.cpp
;	COMDAT ?__empty_global_delete@@YAXPAX@Z
_TEXT	SEGMENT
___formal$ = 8						; size = 4
?__empty_global_delete@@YAXPAX@Z PROC			; __empty_global_delete, COMDAT

  00000	c2 00 00	 ret	 0
?__empty_global_delete@@YAXPAX@Z ENDP			; __empty_global_delete
_TEXT	ENDS
END
