; Listing generated by Microsoft (R) Optimizing Compiler Version 19.29.30145.0 

	TITLE	D:\git\src\IBK\IBK_DRFN\#DRfn-CS\_Obj\ChartDesignPropertyAddIn\DlgGraphSetting.obj
	.686P
	.XMM
	include listing.inc
	.model	flat

INCLUDELIB MSVCRT
INCLUDELIB OLDNAMES

PUBLIC	?__empty_global_delete@@YAXPAX@Z		; __empty_global_delete
PUBLIC	?__empty_global_delete@@YAXPAXI@Z		; __empty_global_delete
PUBLIC	??1CObject@@UAE@XZ				; CObject::~CObject
PUBLIC	?Serialize@CObject@@UAEXAAVCArchive@@@Z		; CObject::Serialize
PUBLIC	?AssertValid@CObject@@UBEXXZ			; CObject::AssertValid
PUBLIC	?Dump@CObject@@UBEXAAVCDumpContext@@@Z		; CObject::Dump
PUBLIC	?DoDataExchange@CWnd@@MAEXPAVCDataExchange@@@Z	; CWnd::DoDataExchange
PUBLIC	?BeginModalState@CWnd@@UAEXXZ			; CWnd::BeginModalState
PUBLIC	?EndModalState@CWnd@@UAEXXZ			; CWnd::EndModalState
PUBLIC	?Create@CDialog@@UAEHIPAVCWnd@@@Z		; CDialog::Create
PUBLIC	??_GCButton@@UAEPAXI@Z				; CButton::`scalar deleting destructor'
PUBLIC	?LoadResourceDLL@IMetaTable@@QAEPAUHINSTANCE__@@PAUHWND__@@PAU2@@Z ; IMetaTable::LoadResourceDLL
PUBLIC	??1CMultiLanguageResourceSetter@@QAE@XZ		; CMultiLanguageResourceSetter::~CMultiLanguageResourceSetter
PUBLIC	??1CExpandDialog@@QAE@XZ			; CExpandDialog::~CExpandDialog
PUBLIC	??0?$CList@V?$CStringT@DV?$StrTraitMFC_DLL@DV?$ChTraitsCRT@D@ATL@@@@@ATL@@V12@@@QAE@H@Z ; CList<ATL::CStringT<char,StrTraitMFC_DLL<char,ATL::ChTraitsCRT<char> > >,ATL::CStringT<char,StrTraitMFC_DLL<char,ATL::ChTraitsCRT<char> > > >::CList<ATL::CStringT<char,StrTraitMFC_DLL<char,ATL::ChTraitsCRT<char> > >,ATL::CStringT<char,StrTraitMFC_DLL<char,ATL::ChTraitsCRT<char> > > >
PUBLIC	?AddTail@?$CList@V?$CStringT@DV?$StrTraitMFC_DLL@DV?$ChTraitsCRT@D@ATL@@@@@ATL@@V12@@@QAEPAU__POSITION@@V?$CStringT@DV?$StrTraitMFC_DLL@DV?$ChTraitsCRT@D@ATL@@@@@ATL@@@Z ; CList<ATL::CStringT<char,StrTraitMFC_DLL<char,ATL::ChTraitsCRT<char> > >,ATL::CStringT<char,StrTraitMFC_DLL<char,ATL::ChTraitsCRT<char> > > >::AddTail
PUBLIC	?RemoveAll@?$CList@V?$CStringT@DV?$StrTraitMFC_DLL@DV?$ChTraitsCRT@D@ATL@@@@@ATL@@V12@@@QAEXXZ ; CList<ATL::CStringT<char,StrTraitMFC_DLL<char,ATL::ChTraitsCRT<char> > >,ATL::CStringT<char,StrTraitMFC_DLL<char,ATL::ChTraitsCRT<char> > > >::RemoveAll
PUBLIC	?NewNode@?$CList@V?$CStringT@DV?$StrTraitMFC_DLL@DV?$ChTraitsCRT@D@ATL@@@@@ATL@@V12@@@IAEPAUCNode@1@PAU21@0@Z ; CList<ATL::CStringT<char,StrTraitMFC_DLL<char,ATL::ChTraitsCRT<char> > >,ATL::CStringT<char,StrTraitMFC_DLL<char,ATL::ChTraitsCRT<char> > > >::NewNode
PUBLIC	??1?$CList@V?$CStringT@DV?$StrTraitMFC_DLL@DV?$ChTraitsCRT@D@ATL@@@@@ATL@@V12@@@UAE@XZ ; CList<ATL::CStringT<char,StrTraitMFC_DLL<char,ATL::ChTraitsCRT<char> > >,ATL::CStringT<char,StrTraitMFC_DLL<char,ATL::ChTraitsCRT<char> > > >::~CList<ATL::CStringT<char,StrTraitMFC_DLL<char,ATL::ChTraitsCRT<char> > >,ATL::CStringT<char,StrTraitMFC_DLL<char,ATL::ChTraitsCRT<char> > > >
PUBLIC	?Serialize@?$CList@V?$CStringT@DV?$StrTraitMFC_DLL@DV?$ChTraitsCRT@D@ATL@@@@@ATL@@V12@@@UAEXAAVCArchive@@@Z ; CList<ATL::CStringT<char,StrTraitMFC_DLL<char,ATL::ChTraitsCRT<char> > >,ATL::CStringT<char,StrTraitMFC_DLL<char,ATL::ChTraitsCRT<char> > > >::Serialize
PUBLIC	??_G?$CList@V?$CStringT@DV?$StrTraitMFC_DLL@DV?$ChTraitsCRT@D@ATL@@@@@ATL@@V12@@@UAEPAXI@Z ; CList<ATL::CStringT<char,StrTraitMFC_DLL<char,ATL::ChTraitsCRT<char> > >,ATL::CStringT<char,StrTraitMFC_DLL<char,ATL::ChTraitsCRT<char> > > >::`scalar deleting destructor'
PUBLIC	??0CDlgGraphSetting@@QAE@PAVCChartLink@@PAVCLineColor@@PAUIGraphInfoManager134661@@PAUHWND__@@PAVCWnd@@@Z ; CDlgGraphSetting::CDlgGraphSetting
PUBLIC	??1CDlgGraphSetting@@UAE@XZ			; CDlgGraphSetting::~CDlgGraphSetting
PUBLIC	?GetIndicatorName@CDlgGraphSetting@@QAE?AV?$CStringT@DV?$StrTraitMFC_DLL@DV?$ChTraitsCRT@D@ATL@@@@@ATL@@XZ ; CDlgGraphSetting::GetIndicatorName
PUBLIC	?SetAllItemInfoOfPacketPage@CDlgGraphSetting@@QAEXABV?$CStringT@DV?$StrTraitMFC_DLL@DV?$ChTraitsCRT@D@ATL@@@@@ATL@@@Z ; CDlgGraphSetting::SetAllItemInfoOfPacketPage
PUBLIC	?SetIndicatorNameToEditFromDlgGraphColor@CDlgGraphSetting@@QAEXABV?$CStringT@DV?$StrTraitMFC_DLL@DV?$ChTraitsCRT@D@ATL@@@@@ATL@@@Z ; CDlgGraphSetting::SetIndicatorNameToEditFromDlgGraphColor
PUBLIC	?ButtonClicked@CDlgGraphSetting@@QAEXABH@Z	; CDlgGraphSetting::ButtonClicked
PUBLIC	?GetSubGraphDatas@CDlgGraphSetting@@QAE?AV?$CStringT@DV?$StrTraitMFC_DLL@DV?$ChTraitsCRT@D@ATL@@@@@ATL@@PBD@Z ; CDlgGraphSetting::GetSubGraphDatas
PUBLIC	?PreTranslateMessage@CDlgGraphSetting@@UAEHPAUtagMSG@@@Z ; CDlgGraphSetting::PreTranslateMessage
PUBLIC	?DoDataExchange@CDlgGraphSetting@@MAEXPAVCDataExchange@@@Z ; CDlgGraphSetting::DoDataExchange
PUBLIC	?OnInitDialog@CDlgGraphSetting@@MAEHXZ		; CDlgGraphSetting::OnInitDialog
PUBLIC	?OnOK@CDlgGraphSetting@@MAEXXZ			; CDlgGraphSetting::OnOK
PUBLIC	?OnEditchangeIndicatorfunctionname@CDlgGraphSetting@@IAEXXZ ; CDlgGraphSetting::OnEditchangeIndicatorfunctionname
PUBLIC	?OnSelchangeIndicatorfunctionname@CDlgGraphSetting@@IAEXXZ ; CDlgGraphSetting::OnSelchangeIndicatorfunctionname
PUBLIC	?OnSelchangeComboPacketlist@CDlgGraphSetting@@IAEXXZ ; CDlgGraphSetting::OnSelchangeComboPacketlist
PUBLIC	?OnEtcsetBt@CDlgGraphSetting@@IAEXXZ		; CDlgGraphSetting::OnEtcsetBt
PUBLIC	?OnBtnNextSubgraph@CDlgGraphSetting@@IAEXXZ	; CDlgGraphSetting::OnBtnNextSubgraph
PUBLIC	?OnBtnPrevSubgraph@CDlgGraphSetting@@IAEXXZ	; CDlgGraphSetting::OnBtnPrevSubgraph
PUBLIC	?GetThisMessageMap@CDlgGraphSetting@@KGPBUAFX_MSGMAP@@XZ ; CDlgGraphSetting::GetThisMessageMap
PUBLIC	?GetMessageMap@CDlgGraphSetting@@MBEPBUAFX_MSGMAP@@XZ ; CDlgGraphSetting::GetMessageMap
PUBLIC	?CheckDataViewItems@CDlgGraphSetting@@AAEXXZ	; CDlgGraphSetting::CheckDataViewItems
PUBLIC	?DoThisIndicatorNeedSignal@CDlgGraphSetting@@AAE_NABV?$CStringT@DV?$StrTraitMFC_DLL@DV?$ChTraitsCRT@D@ATL@@@@@ATL@@@Z ; CDlgGraphSetting::DoThisIndicatorNeedSignal
PUBLIC	?UnCheckAllCheckedPacketItems@CDlgGraphSetting@@AAEXXZ ; CDlgGraphSetting::UnCheckAllCheckedPacketItems
PUBLIC	?CreateToolTip@CDlgGraphSetting@@AAEXXZ		; CDlgGraphSetting::CreateToolTip
PUBLIC	?AddStringToPacketCombo@CDlgGraphSetting@@AAEXXZ ; CDlgGraphSetting::AddStringToPacketCombo
PUBLIC	?AddStringToIndicatorFunctionCombo@CDlgGraphSetting@@AAEXXZ ; CDlgGraphSetting::AddStringToIndicatorFunctionCombo
PUBLIC	?AddStringToIndicatorFunctionComboWhenNoSpecialGraphType@CDlgGraphSetting@@AAEXXZ ; CDlgGraphSetting::AddStringToIndicatorFunctionComboWhenNoSpecialGraphType
PUBLIC	?AddStringToIndicatorFunctionComboWhenSpecialGraphType@CDlgGraphSetting@@AAEXXZ ; CDlgGraphSetting::AddStringToIndicatorFunctionComboWhenSpecialGraphType
PUBLIC	?SetDisableWindow@CDlgGraphSetting@@AAEXIH@Z	; CDlgGraphSetting::SetDisableWindow
PUBLIC	?SetRadioDisableWindow@CDlgGraphSetting@@AAEXH@Z ; CDlgGraphSetting::SetRadioDisableWindow
PUBLIC	?SetSubGraphDlgOnGraphSettingDlg@CDlgGraphSetting@@AAEXXZ ; CDlgGraphSetting::SetSubGraphDlgOnGraphSettingDlg
PUBLIC	?CheckPacketbyCheckedPacketItems@CDlgGraphSetting@@AAEXXZ ; CDlgGraphSetting::CheckPacketbyCheckedPacketItems
PUBLIC	?IsGeneralIndicatorType@CDlgGraphSetting@@ABE_NXZ ; CDlgGraphSetting::IsGeneralIndicatorType
PUBLIC	?IsNoneIndicatorType@CDlgGraphSetting@@ABE_NXZ	; CDlgGraphSetting::IsNoneIndicatorType
PUBLIC	?SetSubGraphDatas_Indicater@CDlgGraphSetting@@AAEXXZ ; CDlgGraphSetting::SetSubGraphDatas_Indicater
PUBLIC	?CheckGraphSettingbyIndicatorName@CDlgGraphSetting@@AAEXABV?$CStringT@DV?$StrTraitMFC_DLL@DV?$ChTraitsCRT@D@ATL@@@@@ATL@@@Z ; CDlgGraphSetting::CheckGraphSettingbyIndicatorName
PUBLIC	?CheckDefaultPacketbyIndicatorInfo@CDlgGraphSetting@@AAEXPAUIGraphInfo134661@@@Z ; CDlgGraphSetting::CheckDefaultPacketbyIndicatorInfo
PUBLIC	?CheckGraphSetting2byIndicatorInfo@CDlgGraphSetting@@AAEXPAUIGraphInfo134661@@PBD@Z ; CDlgGraphSetting::CheckGraphSetting2byIndicatorInfo
PUBLIC	?CheckSignalbyIndicatorInfo@CDlgGraphSetting@@AAEXPAUIGraphInfo134661@@@Z ; CDlgGraphSetting::CheckSignalbyIndicatorInfo
PUBLIC	?CheckSignal@CDlgGraphSetting@@AAEX_N@Z		; CDlgGraphSetting::CheckSignal
PUBLIC	?SetSignal@CDlgGraphSetting@@AAEXPAVCChartLink@@@Z ; CDlgGraphSetting::SetSignal
PUBLIC	??_GCDlgGraphSetting@@UAEPAXI@Z			; CDlgGraphSetting::`scalar deleting destructor'
PUBLIC	??1CDlgGraphSetting2@@UAE@XZ			; CDlgGraphSetting2::~CDlgGraphSetting2
PUBLIC	??_C@_00CNPNBAHC@@				; `string'
PUBLIC	??_7CButton@@6B@				; CButton::`vftable'
PUBLIC	??_R0?AVCObject@@@8				; CObject `RTTI Type Descriptor'
PUBLIC	??_R3CObject@@8					; CObject::`RTTI Class Hierarchy Descriptor'
PUBLIC	??_R2CObject@@8					; CObject::`RTTI Base Class Array'
PUBLIC	??_R1A@?0A@EA@CObject@@8			; CObject::`RTTI Base Class Descriptor at (0,-1,0,64)'
PUBLIC	??_R1A@?0A@EA@CWnd@@8				; CWnd::`RTTI Base Class Descriptor at (0,-1,0,64)'
PUBLIC	??_R0?AVCWnd@@@8				; CWnd `RTTI Type Descriptor'
PUBLIC	??_R3CWnd@@8					; CWnd::`RTTI Class Hierarchy Descriptor'
PUBLIC	??_R2CWnd@@8					; CWnd::`RTTI Base Class Array'
PUBLIC	??_R1A@?0A@EA@CCmdTarget@@8			; CCmdTarget::`RTTI Base Class Descriptor at (0,-1,0,64)'
PUBLIC	??_R0?AVCCmdTarget@@@8				; CCmdTarget `RTTI Type Descriptor'
PUBLIC	??_R3CCmdTarget@@8				; CCmdTarget::`RTTI Class Hierarchy Descriptor'
PUBLIC	??_R2CCmdTarget@@8				; CCmdTarget::`RTTI Base Class Array'
PUBLIC	??_R4CButton@@6B@				; CButton::`RTTI Complete Object Locator'
PUBLIC	??_R0?AVCButton@@@8				; CButton `RTTI Type Descriptor'
PUBLIC	??_R3CButton@@8					; CButton::`RTTI Class Hierarchy Descriptor'
PUBLIC	??_R2CButton@@8					; CButton::`RTTI Base Class Array'
PUBLIC	??_R1A@?0A@EA@CButton@@8			; CButton::`RTTI Base Class Descriptor at (0,-1,0,64)'
PUBLIC	??_R1A@?0A@EA@CDialog@@8			; CDialog::`RTTI Base Class Descriptor at (0,-1,0,64)'
PUBLIC	??_R0?AVCDialog@@@8				; CDialog `RTTI Type Descriptor'
PUBLIC	??_R3CDialog@@8					; CDialog::`RTTI Class Hierarchy Descriptor'
PUBLIC	??_R2CDialog@@8					; CDialog::`RTTI Base Class Array'
PUBLIC	??_C@_0BA@ENJOCHIO@LoadResourceDLL@		; `string'
PUBLIC	??_7?$CList@V?$CStringT@DV?$StrTraitMFC_DLL@DV?$ChTraitsCRT@D@ATL@@@@@ATL@@V12@@@6B@ ; CList<ATL::CStringT<char,StrTraitMFC_DLL<char,ATL::ChTraitsCRT<char> > >,ATL::CStringT<char,StrTraitMFC_DLL<char,ATL::ChTraitsCRT<char> > > >::`vftable'
PUBLIC	??_7CDlgGraphSetting@@6B@			; CDlgGraphSetting::`vftable'
PUBLIC	??_C@_01IHBHIGKO@?0@				; `string'
PUBLIC	??_C@_0L@NBHIHAGD@_Price?5MA_@			; `string'
PUBLIC	??_C@_0L@PHFILLDG@_BuyClose_@			; `string'
PUBLIC	??_C@_0M@DKEGEIMD@_SellClose_@			; `string'
PUBLIC	??_C@_02PCIJFNDE@?$AN?6@			; `string'
PUBLIC	??_C@_01ICJEACDI@?$DL@				; `string'
PUBLIC	??_R4?$CList@V?$CStringT@DV?$StrTraitMFC_DLL@DV?$ChTraitsCRT@D@ATL@@@@@ATL@@V12@@@6B@ ; CList<ATL::CStringT<char,StrTraitMFC_DLL<char,ATL::ChTraitsCRT<char> > >,ATL::CStringT<char,StrTraitMFC_DLL<char,ATL::ChTraitsCRT<char> > > >::`RTTI Complete Object Locator'
PUBLIC	??_R0?AV?$CList@V?$CStringT@DV?$StrTraitMFC_DLL@DV?$ChTraitsCRT@D@ATL@@@@@ATL@@V12@@@@8 ; CList<ATL::CStringT<char,StrTraitMFC_DLL<char,ATL::ChTraitsCRT<char> > >,ATL::CStringT<char,StrTraitMFC_DLL<char,ATL::ChTraitsCRT<char> > > > `RTTI Type Descriptor'
PUBLIC	??_R3?$CList@V?$CStringT@DV?$StrTraitMFC_DLL@DV?$ChTraitsCRT@D@ATL@@@@@ATL@@V12@@@8 ; CList<ATL::CStringT<char,StrTraitMFC_DLL<char,ATL::ChTraitsCRT<char> > >,ATL::CStringT<char,StrTraitMFC_DLL<char,ATL::ChTraitsCRT<char> > > >::`RTTI Class Hierarchy Descriptor'
PUBLIC	??_R2?$CList@V?$CStringT@DV?$StrTraitMFC_DLL@DV?$ChTraitsCRT@D@ATL@@@@@ATL@@V12@@@8 ; CList<ATL::CStringT<char,StrTraitMFC_DLL<char,ATL::ChTraitsCRT<char> > >,ATL::CStringT<char,StrTraitMFC_DLL<char,ATL::ChTraitsCRT<char> > > >::`RTTI Base Class Array'
PUBLIC	??_R1A@?0A@EA@?$CList@V?$CStringT@DV?$StrTraitMFC_DLL@DV?$ChTraitsCRT@D@ATL@@@@@ATL@@V12@@@8 ; CList<ATL::CStringT<char,StrTraitMFC_DLL<char,ATL::ChTraitsCRT<char> > >,ATL::CStringT<char,StrTraitMFC_DLL<char,ATL::ChTraitsCRT<char> > > >::`RTTI Base Class Descriptor at (0,-1,0,64)'
PUBLIC	??_R4CDlgGraphSetting@@6B@			; CDlgGraphSetting::`RTTI Complete Object Locator'
PUBLIC	??_R0?AVCDlgGraphSetting@@@8			; CDlgGraphSetting `RTTI Type Descriptor'
PUBLIC	??_R3CDlgGraphSetting@@8			; CDlgGraphSetting::`RTTI Class Hierarchy Descriptor'
PUBLIC	??_R2CDlgGraphSetting@@8			; CDlgGraphSetting::`RTTI Base Class Array'
PUBLIC	??_R1A@?0A@EA@CDlgGraphSetting@@8		; CDlgGraphSetting::`RTTI Base Class Descriptor at (0,-1,0,64)'
EXTRN	??_L@YGXPAXIIP6EX0@Z1@Z:PROC			; `eh vector constructor iterator'
EXTRN	??_M@YGXPAXIIP6EX0@Z@Z:PROC			; `eh vector destructor iterator'
EXTRN	??2@YAPAXI@Z:PROC				; operator new
EXTRN	??3@YAXPAX@Z:PROC				; operator delete
EXTRN	??3@YAXPAXI@Z:PROC				; operator delete
EXTRN	?__global_delete@@YAXPAXI@Z:PROC		; __global_delete
EXTRN	___std_terminate:PROC
EXTRN	__imp__GetProcAddress@8:PROC
EXTRN	__imp__SendMessageA@16:PROC
EXTRN	__imp__PostMessageA@16:PROC
EXTRN	__imp__EnableWindow@8:PROC
EXTRN	__imp__GetWindowRect@8:PROC
EXTRN	__imp__ScreenToClient@8:PROC
EXTRN	__imp__atoi:PROC
EXTRN	?AfxThrowInvalidArgException@@YGXXZ:PROC	; AfxThrowInvalidArgException
EXTRN	?GetRuntimeClass@CObject@@UBEPAUCRuntimeClass@@XZ:PROC ; CObject::GetRuntimeClass
EXTRN	__imp_?Concatenate@?$CSimpleStringT@D$00@ATL@@KAXAAV12@PBDH1H@Z:PROC
EXTRN	__imp_??0?$CStringT@DV?$StrTraitMFC_DLL@DV?$ChTraitsCRT@D@ATL@@@@@ATL@@QAE@XZ:PROC
EXTRN	__imp_??0?$CStringT@DV?$StrTraitMFC_DLL@DV?$ChTraitsCRT@D@ATL@@@@@ATL@@QAE@PAUIAtlStringMgr@1@@Z:PROC
EXTRN	__imp_??0?$CStringT@DV?$StrTraitMFC_DLL@DV?$ChTraitsCRT@D@ATL@@@@@ATL@@QAE@ABV01@@Z:PROC
EXTRN	__imp_??0?$CStringT@DV?$StrTraitMFC_DLL@DV?$ChTraitsCRT@D@ATL@@@@@ATL@@QAE@PBD@Z:PROC
EXTRN	__imp_??1?$CStringT@DV?$StrTraitMFC_DLL@DV?$ChTraitsCRT@D@ATL@@@@@ATL@@QAE@XZ:PROC
EXTRN	__imp_??4?$CStringT@DV?$StrTraitMFC_DLL@DV?$ChTraitsCRT@D@ATL@@@@@ATL@@QAEAAV01@ABV01@@Z:PROC
EXTRN	__imp_??4?$CStringT@DV?$StrTraitMFC_DLL@DV?$ChTraitsCRT@D@ATL@@@@@ATL@@QAEAAV01@PBD@Z:PROC
EXTRN	__imp_??Y?$CStringT@DV?$StrTraitMFC_DLL@DV?$ChTraitsCRT@D@ATL@@@@@ATL@@QAEAAV01@PBD@Z:PROC
EXTRN	__imp_?GetManager@?$CStringT@DV?$StrTraitMFC_DLL@DV?$ChTraitsCRT@D@ATL@@@@@ATL@@QBEPAUIAtlStringMgr@2@XZ:PROC
EXTRN	__imp_?Compare@?$CStringT@DV?$StrTraitMFC_DLL@DV?$ChTraitsCRT@D@ATL@@@@@ATL@@QBEHPBD@Z:PROC
EXTRN	__imp_?CompareNoCase@?$CStringT@DV?$StrTraitMFC_DLL@DV?$ChTraitsCRT@D@ATL@@@@@ATL@@QBEHPBD@Z:PROC
EXTRN	__imp_?TrimLeft@?$CStringT@DV?$StrTraitMFC_DLL@DV?$ChTraitsCRT@D@ATL@@@@@ATL@@QAEAAV12@XZ:PROC
EXTRN	__imp_?Right@?$CStringT@DV?$StrTraitMFC_DLL@DV?$ChTraitsCRT@D@ATL@@@@@ATL@@QBE?AV12@H@Z:PROC
EXTRN	__imp_?Left@?$CStringT@DV?$StrTraitMFC_DLL@DV?$ChTraitsCRT@D@ATL@@@@@ATL@@QBE?AV12@H@Z:PROC
EXTRN	?ReadCount@CArchive@@QAEKXZ:PROC		; CArchive::ReadCount
EXTRN	?WriteCount@CArchive@@QAEXK@Z:PROC		; CArchive::WriteCount
EXTRN	??0CDWordArray@@QAE@XZ:PROC			; CDWordArray::CDWordArray
EXTRN	?SetSize@CDWordArray@@QAEXHH@Z:PROC		; CDWordArray::SetSize
EXTRN	?SetAtGrow@CDWordArray@@QAEXHK@Z:PROC		; CDWordArray::SetAtGrow
EXTRN	??1CDWordArray@@UAE@XZ:PROC			; CDWordArray::~CDWordArray
EXTRN	?AfxGetModuleState@@YGPAVAFX_MODULE_STATE@@XZ:PROC ; AfxGetModuleState
EXTRN	?AfxGetStaticModuleState@@YGPAVAFX_MODULE_STATE@@XZ:PROC ; AfxGetStaticModuleState
EXTRN	?Create@CPlex@@SGPAU1@AAPAU1@II@Z:PROC		; CPlex::Create
EXTRN	?FreeDataChain@CPlex@@QAEXXZ:PROC		; CPlex::FreeDataChain
EXTRN	??$SerializeElements@V?$CStringT@DV?$StrTraitMFC_DLL@DV?$ChTraitsCRT@D@ATL@@@@@ATL@@@@YGXAAVCArchive@@PAV?$CStringT@DV?$StrTraitMFC_DLL@DV?$ChTraitsCRT@D@ATL@@@@@ATL@@H@Z:PROC ; SerializeElements<ATL::CStringT<char,StrTraitMFC_DLL<char,ATL::ChTraitsCRT<char> > > >
EXTRN	?DDX_Check@@YGXPAVCDataExchange@@HAAH@Z:PROC	; DDX_Check
EXTRN	?DDX_CBString@@YGXPAVCDataExchange@@HAAV?$CStringT@DV?$StrTraitMFC_DLL@DV?$ChTraitsCRT@D@ATL@@@@@ATL@@@Z:PROC ; DDX_CBString
EXTRN	?DDX_Control@@YGXPAVCDataExchange@@HAAVCWnd@@@Z:PROC ; DDX_Control
EXTRN	?OnCmdMsg@CCmdTarget@@UAEHIHPAXPAUAFX_CMDHANDLERINFO@@@Z:PROC ; CCmdTarget::OnCmdMsg
EXTRN	?IsInvokeAllowed@CCmdTarget@@UAEHJ@Z:PROC	; CCmdTarget::IsInvokeAllowed
EXTRN	?GetDispatchIID@CCmdTarget@@UAEHPAU_GUID@@@Z:PROC ; CCmdTarget::GetDispatchIID
EXTRN	?GetTypeInfoCount@CCmdTarget@@UAEIXZ:PROC	; CCmdTarget::GetTypeInfoCount
EXTRN	?GetTypeLibCache@CCmdTarget@@UAEPAVCTypeLibCache@@XZ:PROC ; CCmdTarget::GetTypeLibCache
EXTRN	?GetTypeLib@CCmdTarget@@UAEJKPAPAUITypeLib@@@Z:PROC ; CCmdTarget::GetTypeLib
EXTRN	?GetCommandMap@CCmdTarget@@MBEPBUAFX_OLECMDMAP@@XZ:PROC ; CCmdTarget::GetCommandMap
EXTRN	?GetDispatchMap@CCmdTarget@@MBEPBUAFX_DISPMAP@@XZ:PROC ; CCmdTarget::GetDispatchMap
EXTRN	?GetConnectionMap@CCmdTarget@@MBEPBUAFX_CONNECTIONMAP@@XZ:PROC ; CCmdTarget::GetConnectionMap
EXTRN	?GetEventSinkMap@CCmdTarget@@MBEPBUAFX_EVENTSINKMAP@@XZ:PROC ; CCmdTarget::GetEventSinkMap
EXTRN	?OnCreateAggregates@CCmdTarget@@UAEHXZ:PROC	; CCmdTarget::OnCreateAggregates
EXTRN	?GetInterfaceHook@CCmdTarget@@UAEPAUIUnknown@@PBX@Z:PROC ; CCmdTarget::GetInterfaceHook
EXTRN	?GetExtraConnectionPoints@CCmdTarget@@MAEHPAVCPtrArray@@@Z:PROC ; CCmdTarget::GetExtraConnectionPoints
EXTRN	?GetConnectionHook@CCmdTarget@@MAEPAUIConnectionPoint@@ABU_GUID@@@Z:PROC ; CCmdTarget::GetConnectionHook
EXTRN	??0CWnd@@QAE@XZ:PROC				; CWnd::CWnd
EXTRN	?PreSubclassWindow@CWnd@@UAEXXZ:PROC		; CWnd::PreSubclassWindow
EXTRN	?Create@CWnd@@UAEHPBD0KABUtagRECT@@PAV1@IPAUCCreateContext@@@Z:PROC ; CWnd::Create
EXTRN	?CreateEx@CWnd@@UAEHKPBD0KHHHHPAUHWND__@@PAUHMENU__@@PAX@Z:PROC ; CWnd::CreateEx
EXTRN	?CreateEx@CWnd@@UAEHKPBD0KABUtagRECT@@PAV1@IPAX@Z:PROC ; CWnd::CreateEx
EXTRN	?DestroyWindow@CWnd@@UAEHXZ:PROC		; CWnd::DestroyWindow
EXTRN	?PreCreateWindow@CWnd@@UAEHAAUtagCREATESTRUCTA@@@Z:PROC ; CWnd::PreCreateWindow
EXTRN	?CalcWindowRect@CWnd@@UAEXPAUtagRECT@@I@Z:PROC	; CWnd::CalcWindowRect
EXTRN	?GetDlgItem@CWnd@@QBEPAV1@H@Z:PROC		; CWnd::GetDlgItem
EXTRN	?SetWindowTextA@CWnd@@QAEXPBD@Z:PROC		; CWnd::SetWindowTextA
EXTRN	?GetWindowTextA@CWnd@@QBEXAAV?$CStringT@DV?$StrTraitMFC_DLL@DV?$ChTraitsCRT@D@ATL@@@@@ATL@@@Z:PROC ; CWnd::GetWindowTextA
EXTRN	?GetMenu@CWnd@@UBEPAVCMenu@@XZ:PROC		; CWnd::GetMenu
EXTRN	?SetMenu@CWnd@@UAEHPAVCMenu@@@Z:PROC		; CWnd::SetMenu
EXTRN	?ScreenToClient@CWnd@@QBEXPAUtagRECT@@@Z:PROC	; CWnd::ScreenToClient
EXTRN	?ShowWindow@CWnd@@QAEHH@Z:PROC			; CWnd::ShowWindow
EXTRN	?OnToolHitTest@CWnd@@UBEHVCPoint@@PAUtagTOOLINFOA@@@Z:PROC ; CWnd::OnToolHitTest
EXTRN	?EnableWindow@CWnd@@QAEHH@Z:PROC		; CWnd::EnableWindow
EXTRN	?GetScrollBarCtrl@CWnd@@UBEPAVCScrollBar@@H@Z:PROC ; CWnd::GetScrollBarCtrl
EXTRN	?UpdateData@CWnd@@QAEHH@Z:PROC			; CWnd::UpdateData
EXTRN	?WinHelpA@CWnd@@UAEXKI@Z:PROC			; CWnd::WinHelpA
EXTRN	?HtmlHelpA@CWnd@@UAEXKI@Z:PROC			; CWnd::HtmlHelpA
EXTRN	?WinHelpInternal@CWnd@@UAEXKI@Z:PROC		; CWnd::WinHelpInternal
EXTRN	?ContinueModal@CWnd@@UAEHXZ:PROC		; CWnd::ContinueModal
EXTRN	?EndModalLoop@CWnd@@UAEXH@Z:PROC		; CWnd::EndModalLoop
EXTRN	?OnDrawIconicThumbnailOrLivePreview@CWnd@@UAEXAAVCDC@@VCRect@@VCSize@@HAAH@Z:PROC ; CWnd::OnDrawIconicThumbnailOrLivePreview
EXTRN	?GetInterfaceMap@CWnd@@MBEPBUAFX_INTERFACEMAP@@XZ:PROC ; CWnd::GetInterfaceMap
EXTRN	?EnsureStdObj@CWnd@@UAEJXZ:PROC			; CWnd::EnsureStdObj
EXTRN	?get_accParent@CWnd@@UAEJPAPAUIDispatch@@@Z:PROC ; CWnd::get_accParent
EXTRN	?get_accChildCount@CWnd@@UAEJPAJ@Z:PROC		; CWnd::get_accChildCount
EXTRN	?get_accChild@CWnd@@UAEJUtagVARIANT@@PAPAUIDispatch@@@Z:PROC ; CWnd::get_accChild
EXTRN	?get_accName@CWnd@@UAEJUtagVARIANT@@PAPA_W@Z:PROC ; CWnd::get_accName
EXTRN	?get_accValue@CWnd@@UAEJUtagVARIANT@@PAPA_W@Z:PROC ; CWnd::get_accValue
EXTRN	?get_accDescription@CWnd@@UAEJUtagVARIANT@@PAPA_W@Z:PROC ; CWnd::get_accDescription
EXTRN	?get_accRole@CWnd@@UAEJUtagVARIANT@@PAU2@@Z:PROC ; CWnd::get_accRole
EXTRN	?get_accState@CWnd@@UAEJUtagVARIANT@@PAU2@@Z:PROC ; CWnd::get_accState
EXTRN	?get_accHelp@CWnd@@UAEJUtagVARIANT@@PAPA_W@Z:PROC ; CWnd::get_accHelp
EXTRN	?get_accHelpTopic@CWnd@@UAEJPAPA_WUtagVARIANT@@PAJ@Z:PROC ; CWnd::get_accHelpTopic
EXTRN	?get_accKeyboardShortcut@CWnd@@UAEJUtagVARIANT@@PAPA_W@Z:PROC ; CWnd::get_accKeyboardShortcut
EXTRN	?get_accFocus@CWnd@@UAEJPAUtagVARIANT@@@Z:PROC	; CWnd::get_accFocus
EXTRN	?get_accSelection@CWnd@@UAEJPAUtagVARIANT@@@Z:PROC ; CWnd::get_accSelection
EXTRN	?get_accDefaultAction@CWnd@@UAEJUtagVARIANT@@PAPA_W@Z:PROC ; CWnd::get_accDefaultAction
EXTRN	?accSelect@CWnd@@UAEJJUtagVARIANT@@@Z:PROC	; CWnd::accSelect
EXTRN	?accLocation@CWnd@@UAEJPAJ000UtagVARIANT@@@Z:PROC ; CWnd::accLocation
EXTRN	?accNavigate@CWnd@@UAEJJUtagVARIANT@@PAU2@@Z:PROC ; CWnd::accNavigate
EXTRN	?accHitTest@CWnd@@UAEJJJPAUtagVARIANT@@@Z:PROC	; CWnd::accHitTest
EXTRN	?accDoDefaultAction@CWnd@@UAEJUtagVARIANT@@@Z:PROC ; CWnd::accDoDefaultAction
EXTRN	?put_accName@CWnd@@UAEJUtagVARIANT@@PA_W@Z:PROC	; CWnd::put_accName
EXTRN	?put_accValue@CWnd@@UAEJUtagVARIANT@@PA_W@Z:PROC ; CWnd::put_accValue
EXTRN	?SetProxy@CWnd@@UAEJPAUIAccessibleProxy@@@Z:PROC ; CWnd::SetProxy
EXTRN	?CreateAccessibleProxy@CWnd@@UAEJIJPAJ@Z:PROC	; CWnd::CreateAccessibleProxy
EXTRN	?OnCommand@CWnd@@MAEHIJ@Z:PROC			; CWnd::OnCommand
EXTRN	?OnNotify@CWnd@@MAEHIJPAJ@Z:PROC		; CWnd::OnNotify
EXTRN	?GetSuperWndProcAddr@CWnd@@MAEPAP6GJPAUHWND__@@IIJ@ZXZ:PROC ; CWnd::GetSuperWndProcAddr
EXTRN	?PreTranslateMessage@CWnd@@UAEHPAUtagMSG@@@Z:PROC ; CWnd::PreTranslateMessage
EXTRN	?OnAmbientProperty@CWnd@@UAEHPAVCOleControlSite@@JPAUtagVARIANT@@@Z:PROC ; CWnd::OnAmbientProperty
EXTRN	?WindowProc@CWnd@@MAEJIIJ@Z:PROC		; CWnd::WindowProc
EXTRN	?OnWndMsg@CWnd@@MAEHIIJPAJ@Z:PROC		; CWnd::OnWndMsg
EXTRN	?DefWindowProcA@CWnd@@MAEJIIJ@Z:PROC		; CWnd::DefWindowProcA
EXTRN	?PostNcDestroy@CWnd@@MAEXXZ:PROC		; CWnd::PostNcDestroy
EXTRN	?OnChildNotify@CWnd@@MAEHIIJPAJ@Z:PROC		; CWnd::OnChildNotify
EXTRN	?OnTouchInputs@CWnd@@MAEHIPAUtagTOUCHINPUT@@@Z:PROC ; CWnd::OnTouchInputs
EXTRN	?OnTouchInput@CWnd@@MAEHVCPoint@@HHPAUtagTOUCHINPUT@@@Z:PROC ; CWnd::OnTouchInput
EXTRN	?GetGestureStatus@CWnd@@MAEKVCPoint@@@Z:PROC	; CWnd::GetGestureStatus
EXTRN	?OnGestureZoom@CWnd@@MAEHVCPoint@@J@Z:PROC	; CWnd::OnGestureZoom
EXTRN	?OnGesturePan@CWnd@@MAEHVCPoint@@0@Z:PROC	; CWnd::OnGesturePan
EXTRN	?OnGestureRotate@CWnd@@MAEHVCPoint@@N@Z:PROC	; CWnd::OnGestureRotate
EXTRN	?OnGestureTwoFingerTap@CWnd@@MAEHVCPoint@@@Z:PROC ; CWnd::OnGestureTwoFingerTap
EXTRN	?OnGesturePressAndTap@CWnd@@MAEHVCPoint@@J@Z:PROC ; CWnd::OnGesturePressAndTap
EXTRN	?ResizeDynamicLayout@CWnd@@MAEXXZ:PROC		; CWnd::ResizeDynamicLayout
EXTRN	?CheckAutoCenter@CWnd@@UAEHXZ:PROC		; CWnd::CheckAutoCenter
EXTRN	?IsFrameWnd@CWnd@@UBEHXZ:PROC			; CWnd::IsFrameWnd
EXTRN	?OnFinalRelease@CWnd@@UAEXXZ:PROC		; CWnd::OnFinalRelease
EXTRN	?CreateControlContainer@CWnd@@MAEHPAPAVCOleControlContainer@@@Z:PROC ; CWnd::CreateControlContainer
EXTRN	?CreateControlSite@CWnd@@MAEHPAVCOleControlContainer@@PAPAVCOleControlSite@@IABU_GUID@@@Z:PROC ; CWnd::CreateControlSite
EXTRN	?SetOccDialogInfo@CWnd@@MAEHPAU_AFX_OCC_DIALOG_INFO@@@Z:PROC ; CWnd::SetOccDialogInfo
EXTRN	?GetOccDialogInfo@CWnd@@MAEPAU_AFX_OCC_DIALOG_INFO@@XZ:PROC ; CWnd::GetOccDialogInfo
EXTRN	?GetMessageMap@CWnd@@MBEPBUAFX_MSGMAP@@XZ:PROC	; CWnd::GetMessageMap
EXTRN	?GetRuntimeClass@CDialog@@UBEPAUCRuntimeClass@@XZ:PROC ; CDialog::GetRuntimeClass
EXTRN	?Create@CDialog@@UAEHPBDPAVCWnd@@@Z:PROC	; CDialog::Create
EXTRN	?CreateIndirect@CDialog@@UAEHPBUDLGTEMPLATE@@PAVCWnd@@PAX@Z:PROC ; CDialog::CreateIndirect
EXTRN	?CreateIndirect@CDialog@@UAEHPAXPAVCWnd@@@Z:PROC ; CDialog::CreateIndirect
EXTRN	??0CDialog@@QAE@IPAVCWnd@@@Z:PROC		; CDialog::CDialog
EXTRN	?DoModal@CDialog@@UAEHXZ:PROC			; CDialog::DoModal
EXTRN	?OnInitDialog@CDialog@@UAEHXZ:PROC		; CDialog::OnInitDialog
EXTRN	?OnSetFont@CDialog@@UAEXPAVCFont@@@Z:PROC	; CDialog::OnSetFont
EXTRN	?OnOK@CDialog@@MAEXXZ:PROC			; CDialog::OnOK
EXTRN	?OnCancel@CDialog@@MAEXXZ:PROC			; CDialog::OnCancel
EXTRN	??1CDialog@@UAE@XZ:PROC				; CDialog::~CDialog
EXTRN	?PreTranslateMessage@CDialog@@UAEHPAUtagMSG@@@Z:PROC ; CDialog::PreTranslateMessage
EXTRN	?OnCmdMsg@CDialog@@UAEHIHPAXPAUAFX_CMDHANDLERINFO@@@Z:PROC ; CDialog::OnCmdMsg
EXTRN	?CheckAutoCenter@CDialog@@UAEHXZ:PROC		; CDialog::CheckAutoCenter
EXTRN	?SetOccDialogInfo@CDialog@@MAEHPAU_AFX_OCC_DIALOG_INFO@@@Z:PROC ; CDialog::SetOccDialogInfo
EXTRN	?GetOccDialogInfo@CDialog@@MAEPAU_AFX_OCC_DIALOG_INFO@@XZ:PROC ; CDialog::GetOccDialogInfo
EXTRN	?PreInitDialog@CDialog@@MAEXXZ:PROC		; CDialog::PreInitDialog
EXTRN	?GetThisMessageMap@CDialog@@KGPBUAFX_MSGMAP@@XZ:PROC ; CDialog::GetThisMessageMap
EXTRN	?GetRuntimeClass@CButton@@UBEPAUCRuntimeClass@@XZ:PROC ; CButton::GetRuntimeClass
EXTRN	?Create@CButton@@UAEHPBDKABUtagRECT@@PAVCWnd@@I@Z:PROC ; CButton::Create
EXTRN	?DrawItem@CButton@@UAEXPAUtagDRAWITEMSTRUCT@@@Z:PROC ; CButton::DrawItem
EXTRN	??1CButton@@UAE@XZ:PROC				; CButton::~CButton
EXTRN	?OnChildNotify@CButton@@MAEHIIJPAJ@Z:PROC	; CButton::OnChildNotify
EXTRN	??_ECButton@@UAEPAXI@Z:PROC			; CButton::`vector deleting destructor'
EXTRN	?GetLBText@CComboBox@@QBEXHAAV?$CStringT@DV?$StrTraitMFC_DLL@DV?$ChTraitsCRT@D@ATL@@@@@ATL@@@Z:PROC ; CComboBox::GetLBText
EXTRN	?GetMetaText@IMetaTable@@QAEPBDPAUHWND__@@W4E_CODEPAGE@1@PBDH@Z:PROC ; IMetaTable::GetMetaText
EXTRN	?GetLanguageText@IMetaTable@@QAEPBDPAUHWND__@@W4E_CODEPAGE@1@PBDH@Z:PROC ; IMetaTable::GetLanguageText
EXTRN	?GetMultipleMetaText@IMetaTable@@QAE?AV?$CStringT@DV?$StrTraitMFC_DLL@DV?$ChTraitsCRT@D@ATL@@@@@ATL@@PAUHWND__@@V23@1HH@Z:PROC ; IMetaTable::GetMultipleMetaText
EXTRN	?GetMultipleLanguageText@IMetaTable@@QAE?AV?$CStringT@DV?$StrTraitMFC_DLL@DV?$ChTraitsCRT@D@ATL@@@@@ATL@@PAUHWND__@@V23@1HH@Z:PROC ; IMetaTable::GetMultipleLanguageText
EXTRN	?GetCurState@CCheckComboBox@@QAE_NXZ:PROC	; CCheckComboBox::GetCurState
EXTRN	??0CCheckComboBox@@QAE@XZ:PROC			; CCheckComboBox::CCheckComboBox
EXTRN	??1CCheckComboBox@@UAE@XZ:PROC			; CCheckComboBox::~CCheckComboBox
EXTRN	?SetCheck@CCheckComboBox@@QAEHHH@Z:PROC		; CCheckComboBox::SetCheck
EXTRN	?GetCheck@CCheckComboBox@@QAEHH@Z:PROC		; CCheckComboBox::GetCheck
EXTRN	?SetItemCheck@CCheckComboBox@@QAEXABV?$CStringT@DV?$StrTraitMFC_DLL@DV?$ChTraitsCRT@D@ATL@@@@@ATL@@@Z:PROC ; CCheckComboBox::SetItemCheck
EXTRN	??0CDlgToolTip@@QAE@XZ:PROC			; CDlgToolTip::CDlgToolTip
EXTRN	?HideToolTip@CDlgToolTip@@QAEXAAVCPoint@@@Z:PROC ; CDlgToolTip::HideToolTip
EXTRN	??1CDlgToolTip@@UAE@XZ:PROC			; CDlgToolTip::~CDlgToolTip
EXTRN	?Create@CDlgToolTip@@QAEXPAVCWnd@@@Z:PROC	; CDlgToolTip::Create
EXTRN	?ShowToolTip@CDlgToolTip@@QAEXAAVCPoint@@@Z:PROC ; CDlgToolTip::ShowToolTip
EXTRN	?AddControlInfo@CDlgToolTip@@QAEHIAAVCDWordArray@@KK@Z:PROC ; CDlgToolTip::AddControlInfo
EXTRN	??0CNoSystemMenuCombo@@QAE@XZ:PROC		; CNoSystemMenuCombo::CNoSystemMenuCombo
EXTRN	??1CNoSystemMenuCombo@@UAE@XZ:PROC		; CNoSystemMenuCombo::~CNoSystemMenuCombo
EXTRN	??0CExpandDialog@@QAE@XZ:PROC			; CExpandDialog::CExpandDialog
EXTRN	?Initialize@CExpandDialog@@QAEXPAVCWnd@@HH@Z:PROC ; CExpandDialog::Initialize
EXTRN	?OnExpandButton@CExpandDialog@@QAEX_N@Z:PROC	; CExpandDialog::OnExpandButton
EXTRN	?CreateSubGraphSettingDialogandButton@CGraphColorCollection@@QAEXAAVCRect@@0ABV?$CStringT@DV?$StrTraitMFC_DLL@DV?$ChTraitsCRT@D@ATL@@@@@ATL@@11PAVCLineColor@@PAUIGraphInfoManager134661@@HPAVCWnd@@@Z:PROC ; CGraphColorCollection::CreateSubGraphSettingDialogandButton
EXTRN	?GetSubGraphDatas@CGraphColorCollection@@QAE?AV?$CStringT@DV?$StrTraitMFC_DLL@DV?$ChTraitsCRT@D@ATL@@@@@ATL@@PBD@Z:PROC ; CGraphColorCollection::GetSubGraphDatas
EXTRN	?ShowSubGraphSettingDlg@CGraphColorCollection@@QAE_NH@Z:PROC ; CGraphColorCollection::ShowSubGraphSettingDlg
EXTRN	??0CGraphColorCollection@@QAE@PAUHWND__@@@Z:PROC ; CGraphColorCollection::CGraphColorCollection
EXTRN	?SetButtonPos@CGraphColorCollection@@QAEXPAVCWnd@@H@Z:PROC ; CGraphColorCollection::SetButtonPos
EXTRN	??_E?$CList@V?$CStringT@DV?$StrTraitMFC_DLL@DV?$ChTraitsCRT@D@ATL@@@@@ATL@@V12@@@UAEPAXI@Z:PROC ; CList<ATL::CStringT<char,StrTraitMFC_DLL<char,ATL::ChTraitsCRT<char> > >,ATL::CStringT<char,StrTraitMFC_DLL<char,ATL::ChTraitsCRT<char> > > >::`vector deleting destructor'
EXTRN	??0CGraphSetting2Data@@QAE@_N000H@Z:PROC	; CGraphSetting2Data::CGraphSetting2Data
EXTRN	?IsHighNow@CGraphSetting2Data@@QBE_NXZ:PROC	; CGraphSetting2Data::IsHighNow
EXTRN	?IsLowHigh@CGraphSetting2Data@@QBE_NXZ:PROC	; CGraphSetting2Data::IsLowHigh
EXTRN	?IsLowNow@CGraphSetting2Data@@QBE_NXZ:PROC	; CGraphSetting2Data::IsLowNow
EXTRN	?IsPrevNow@CGraphSetting2Data@@QBE_NXZ:PROC	; CGraphSetting2Data::IsPrevNow
EXTRN	?GetCurDataType@CGraphSetting2Data@@QBEHXZ:PROC	; CGraphSetting2Data::GetCurDataType
EXTRN	?SetData@CGraphSetting2Data@@QAEX_N000H@Z:PROC	; CGraphSetting2Data::SetData
EXTRN	?SetHighNow@CGraphSetting2Data@@QAEX_N@Z:PROC	; CGraphSetting2Data::SetHighNow
EXTRN	?SetLowHigh@CGraphSetting2Data@@QAEX_N@Z:PROC	; CGraphSetting2Data::SetLowHigh
EXTRN	?SetLowNow@CGraphSetting2Data@@QAEX_N@Z:PROC	; CGraphSetting2Data::SetLowNow
EXTRN	?SetPrevNow@CGraphSetting2Data@@QAEX_N@Z:PROC	; CGraphSetting2Data::SetPrevNow
EXTRN	?SetCurDataType@CGraphSetting2Data@@QAEXH@Z:PROC ; CGraphSetting2Data::SetCurDataType
EXTRN	??_ECDlgGraphSetting@@UAEPAXI@Z:PROC		; CDlgGraphSetting::`vector deleting destructor'
EXTRN	?GetStringData@CDataConversion@@SA?AV?$CStringT@DV?$StrTraitMFC_DLL@DV?$ChTraitsCRT@D@ATL@@@@@ATL@@AAV23@ABV23@_N@Z:PROC ; CDataConversion::GetStringData
EXTRN	?GetStringDataCount@CDataConversion@@SAHABV?$CStringT@DV?$StrTraitMFC_DLL@DV?$ChTraitsCRT@D@ATL@@@@@ATL@@0@Z:PROC ; CDataConversion::GetStringDataCount
EXTRN	??0CDlgGraphSetting2@@QAE@PAVCGraphSetting2Data@@PAVCWnd@@@Z:PROC ; CDlgGraphSetting2::CDlgGraphSetting2
EXTRN	@__security_check_cookie@4:PROC
EXTRN	___CxxFrameHandler3:PROC
EXTRN	??_7type_info@@6B@:QWORD			; type_info::`vftable'
EXTRN	?g_iMetaTable@@3VIMetaTable@@A:BYTE		; g_iMetaTable
EXTRN	___security_cookie:DWORD
;	COMDAT ??_R1A@?0A@EA@CDlgGraphSetting@@8
rdata$r	SEGMENT
??_R1A@?0A@EA@CDlgGraphSetting@@8 DD FLAT:??_R0?AVCDlgGraphSetting@@@8 ; CDlgGraphSetting::`RTTI Base Class Descriptor at (0,-1,0,64)'
	DD	04H
	DD	00H
	DD	0ffffffffH
	DD	00H
	DD	040H
	DD	FLAT:??_R3CDlgGraphSetting@@8
rdata$r	ENDS
;	COMDAT ??_R2CDlgGraphSetting@@8
rdata$r	SEGMENT
??_R2CDlgGraphSetting@@8 DD FLAT:??_R1A@?0A@EA@CDlgGraphSetting@@8 ; CDlgGraphSetting::`RTTI Base Class Array'
	DD	FLAT:??_R1A@?0A@EA@CDialog@@8
	DD	FLAT:??_R1A@?0A@EA@CWnd@@8
	DD	FLAT:??_R1A@?0A@EA@CCmdTarget@@8
	DD	FLAT:??_R1A@?0A@EA@CObject@@8
rdata$r	ENDS
;	COMDAT ??_R3CDlgGraphSetting@@8
rdata$r	SEGMENT
??_R3CDlgGraphSetting@@8 DD 00H				; CDlgGraphSetting::`RTTI Class Hierarchy Descriptor'
	DD	00H
	DD	05H
	DD	FLAT:??_R2CDlgGraphSetting@@8
rdata$r	ENDS
;	COMDAT ??_R0?AVCDlgGraphSetting@@@8
data$rs	SEGMENT
??_R0?AVCDlgGraphSetting@@@8 DD FLAT:??_7type_info@@6B@	; CDlgGraphSetting `RTTI Type Descriptor'
	DD	00H
	DB	'.?AVCDlgGraphSetting@@', 00H
data$rs	ENDS
;	COMDAT ??_R4CDlgGraphSetting@@6B@
rdata$r	SEGMENT
??_R4CDlgGraphSetting@@6B@ DD 00H			; CDlgGraphSetting::`RTTI Complete Object Locator'
	DD	00H
	DD	00H
	DD	FLAT:??_R0?AVCDlgGraphSetting@@@8
	DD	FLAT:??_R3CDlgGraphSetting@@8
rdata$r	ENDS
;	COMDAT ??_R1A@?0A@EA@?$CList@V?$CStringT@DV?$StrTraitMFC_DLL@DV?$ChTraitsCRT@D@ATL@@@@@ATL@@V12@@@8
rdata$r	SEGMENT
??_R1A@?0A@EA@?$CList@V?$CStringT@DV?$StrTraitMFC_DLL@DV?$ChTraitsCRT@D@ATL@@@@@ATL@@V12@@@8 DD FLAT:??_R0?AV?$CList@V?$CStringT@DV?$StrTraitMFC_DLL@DV?$ChTraitsCRT@D@ATL@@@@@ATL@@V12@@@@8 ; CList<ATL::CStringT<char,StrTraitMFC_DLL<char,ATL::ChTraitsCRT<char> > >,ATL::CStringT<char,StrTraitMFC_DLL<char,ATL::ChTraitsCRT<char> > > >::`RTTI Base Class Descriptor at (0,-1,0,64)'
	DD	01H
	DD	00H
	DD	0ffffffffH
	DD	00H
	DD	040H
	DD	FLAT:??_R3?$CList@V?$CStringT@DV?$StrTraitMFC_DLL@DV?$ChTraitsCRT@D@ATL@@@@@ATL@@V12@@@8
rdata$r	ENDS
;	COMDAT ??_R2?$CList@V?$CStringT@DV?$StrTraitMFC_DLL@DV?$ChTraitsCRT@D@ATL@@@@@ATL@@V12@@@8
rdata$r	SEGMENT
??_R2?$CList@V?$CStringT@DV?$StrTraitMFC_DLL@DV?$ChTraitsCRT@D@ATL@@@@@ATL@@V12@@@8 DD FLAT:??_R1A@?0A@EA@?$CList@V?$CStringT@DV?$StrTraitMFC_DLL@DV?$ChTraitsCRT@D@ATL@@@@@ATL@@V12@@@8 ; CList<ATL::CStringT<char,StrTraitMFC_DLL<char,ATL::ChTraitsCRT<char> > >,ATL::CStringT<char,StrTraitMFC_DLL<char,ATL::ChTraitsCRT<char> > > >::`RTTI Base Class Array'
	DD	FLAT:??_R1A@?0A@EA@CObject@@8
rdata$r	ENDS
;	COMDAT ??_R3?$CList@V?$CStringT@DV?$StrTraitMFC_DLL@DV?$ChTraitsCRT@D@ATL@@@@@ATL@@V12@@@8
rdata$r	SEGMENT
??_R3?$CList@V?$CStringT@DV?$StrTraitMFC_DLL@DV?$ChTraitsCRT@D@ATL@@@@@ATL@@V12@@@8 DD 00H ; CList<ATL::CStringT<char,StrTraitMFC_DLL<char,ATL::ChTraitsCRT<char> > >,ATL::CStringT<char,StrTraitMFC_DLL<char,ATL::ChTraitsCRT<char> > > >::`RTTI Class Hierarchy Descriptor'
	DD	00H
	DD	02H
	DD	FLAT:??_R2?$CList@V?$CStringT@DV?$StrTraitMFC_DLL@DV?$ChTraitsCRT@D@ATL@@@@@ATL@@V12@@@8
rdata$r	ENDS
;	COMDAT ??_R0?AV?$CList@V?$CStringT@DV?$StrTraitMFC_DLL@DV?$ChTraitsCRT@D@ATL@@@@@ATL@@V12@@@@8
data$rs	SEGMENT
??_R0?AV?$CList@V?$CStringT@DV?$StrTraitMFC_DLL@DV?$ChTraitsCRT@D@ATL@@@@@ATL@@V12@@@@8 DD FLAT:??_7type_info@@6B@ ; CList<ATL::CStringT<char,StrTraitMFC_DLL<char,ATL::ChTraitsCRT<char> > >,ATL::CStringT<char,StrTraitMFC_DLL<char,ATL::ChTraitsCRT<char> > > > `RTTI Type Descriptor'
	DD	00H
	DB	'.?AV?$CList@V?$CStringT@DV?$StrTraitMFC_DLL@DV?$ChTraits'
	DB	'CRT@D@ATL@@@@@ATL@@V12@@@', 00H
data$rs	ENDS
;	COMDAT ??_R4?$CList@V?$CStringT@DV?$StrTraitMFC_DLL@DV?$ChTraitsCRT@D@ATL@@@@@ATL@@V12@@@6B@
rdata$r	SEGMENT
??_R4?$CList@V?$CStringT@DV?$StrTraitMFC_DLL@DV?$ChTraitsCRT@D@ATL@@@@@ATL@@V12@@@6B@ DD 00H ; CList<ATL::CStringT<char,StrTraitMFC_DLL<char,ATL::ChTraitsCRT<char> > >,ATL::CStringT<char,StrTraitMFC_DLL<char,ATL::ChTraitsCRT<char> > > >::`RTTI Complete Object Locator'
	DD	00H
	DD	00H
	DD	FLAT:??_R0?AV?$CList@V?$CStringT@DV?$StrTraitMFC_DLL@DV?$ChTraitsCRT@D@ATL@@@@@ATL@@V12@@@@8
	DD	FLAT:??_R3?$CList@V?$CStringT@DV?$StrTraitMFC_DLL@DV?$ChTraitsCRT@D@ATL@@@@@ATL@@V12@@@8
rdata$r	ENDS
;	COMDAT ?eIndicators@?1??DoThisIndicatorNeedSignal@CDlgGraphSetting@@AAE_NABV?$CStringT@DV?$StrTraitMFC_DLL@DV?$ChTraitsCRT@D@ATL@@@@@ATL@@@Z@4PAW4E_METACODE@IMetaTable@@A
_DATA	SEGMENT
?eIndicators@?1??DoThisIndicatorNeedSignal@CDlgGraphSetting@@AAE_NABV?$CStringT@DV?$StrTraitMFC_DLL@DV?$ChTraitsCRT@D@ATL@@@@@ATL@@@Z@4PAW4E_METACODE@IMetaTable@@A DD 0f9H ; `CDlgGraphSetting::DoThisIndicatorNeedSignal'::`2'::eIndicators
	DD	012bH
	DD	0113H
	DD	012aH
	DD	010bH
	DD	0ffH
	DD	0e6H
	DD	0eaH
	DD	0f4H
	DD	0320H
	DD	0eeH
	DD	0efH
	DD	0f0H
	DD	0f1H
	DD	0f2H
	DD	0f3H
	DD	0102H
	DD	0ddH
	DD	0333H
	DD	0334H
	DD	0335H
	DD	0336H
	DD	0fcH
_DATA	ENDS
;	COMDAT ??_C@_01ICJEACDI@?$DL@
CONST	SEGMENT
??_C@_01ICJEACDI@?$DL@ DB ';', 00H			; `string'
CONST	ENDS
;	COMDAT ??_C@_02PCIJFNDE@?$AN?6@
CONST	SEGMENT
??_C@_02PCIJFNDE@?$AN?6@ DB 0dH, 0aH, 00H		; `string'
CONST	ENDS
;	COMDAT ??_C@_0M@DKEGEIMD@_SellClose_@
CONST	SEGMENT
??_C@_0M@DKEGEIMD@_SellClose_@ DB '_SellClose_', 00H	; `string'
CONST	ENDS
;	COMDAT ??_C@_0L@PHFILLDG@_BuyClose_@
CONST	SEGMENT
??_C@_0L@PHFILLDG@_BuyClose_@ DB '_BuyClose_', 00H	; `string'
CONST	ENDS
;	COMDAT ??_C@_0L@NBHIHAGD@_Price?5MA_@
CONST	SEGMENT
??_C@_0L@NBHIHAGD@_Price?5MA_@ DB '_Price MA_', 00H	; `string'
CONST	ENDS
;	COMDAT ?messageMap@?1??GetThisMessageMap@CDlgGraphSetting@@KGPBUAFX_MSGMAP@@XZ@4U3@B
CONST	SEGMENT
?messageMap@?1??GetThisMessageMap@CDlgGraphSetting@@KGPBUAFX_MSGMAP@@XZ@4U3@B DD FLAT:?GetThisMessageMap@CDialog@@KGPBUAFX_MSGMAP@@XZ ; `CDlgGraphSetting::GetThisMessageMap'::`2'::messageMap
	DD	FLAT:?_messageEntries@?1??GetThisMessageMap@CDlgGraphSetting@@KGPBUAFX_MSGMAP@@XZ@4QBUAFX_MSGMAP_ENTRY@@B
CONST	ENDS
;	COMDAT ?_messageEntries@?1??GetThisMessageMap@CDlgGraphSetting@@KGPBUAFX_MSGMAP@@XZ@4QBUAFX_MSGMAP_ENTRY@@B
CONST	SEGMENT
?_messageEntries@?1??GetThisMessageMap@CDlgGraphSetting@@KGPBUAFX_MSGMAP@@XZ@4QBUAFX_MSGMAP_ENTRY@@B DD 0111H ; `CDlgGraphSetting::GetThisMessageMap'::`2'::_messageEntries
	DD	05H
	DD	0272dH
	DD	0272dH
	DD	03aH
	DD	FLAT:?OnEditchangeIndicatorfunctionname@CDlgGraphSetting@@IAEXXZ
	DD	0111H
	DD	01H
	DD	0272dH
	DD	0272dH
	DD	03aH
	DD	FLAT:?OnSelchangeIndicatorfunctionname@CDlgGraphSetting@@IAEXXZ
	DD	0111H
	DD	01H
	DD	0272eH
	DD	0272eH
	DD	03aH
	DD	FLAT:?OnSelchangeComboPacketlist@CDlgGraphSetting@@IAEXXZ
	DD	0111H
	DD	00H
	DD	01bd8H
	DD	01bd8H
	DD	03aH
	DD	FLAT:?OnEtcsetBt@CDlgGraphSetting@@IAEXXZ
	DD	0111H
	DD	00H
	DD	07d9H
	DD	07d9H
	DD	03aH
	DD	FLAT:?OnBtnNextSubgraph@CDlgGraphSetting@@IAEXXZ
	DD	0111H
	DD	00H
	DD	07daH
	DD	07daH
	DD	03aH
	DD	FLAT:?OnBtnPrevSubgraph@CDlgGraphSetting@@IAEXXZ
	DD	00H
	DD	00H
	DD	00H
	DD	00H
	DD	00H
	DD	00H
CONST	ENDS
;	COMDAT ??_C@_01IHBHIGKO@?0@
CONST	SEGMENT
??_C@_01IHBHIGKO@?0@ DB ',', 00H			; `string'
CONST	ENDS
;	COMDAT ??_7CDlgGraphSetting@@6B@
CONST	SEGMENT
??_7CDlgGraphSetting@@6B@ DD FLAT:??_R4CDlgGraphSetting@@6B@ ; CDlgGraphSetting::`vftable'
	DD	FLAT:?GetRuntimeClass@CDialog@@UBEPAUCRuntimeClass@@XZ
	DD	FLAT:??_ECDlgGraphSetting@@UAEPAXI@Z
	DD	FLAT:?Serialize@CObject@@UAEXAAVCArchive@@@Z
	DD	FLAT:?AssertValid@CObject@@UBEXXZ
	DD	FLAT:?Dump@CObject@@UBEXAAVCDumpContext@@@Z
	DD	FLAT:?OnCmdMsg@CDialog@@UAEHIHPAXPAUAFX_CMDHANDLERINFO@@@Z
	DD	FLAT:?OnFinalRelease@CWnd@@UAEXXZ
	DD	FLAT:?IsInvokeAllowed@CCmdTarget@@UAEHJ@Z
	DD	FLAT:?GetDispatchIID@CCmdTarget@@UAEHPAU_GUID@@@Z
	DD	FLAT:?GetTypeInfoCount@CCmdTarget@@UAEIXZ
	DD	FLAT:?GetTypeLibCache@CCmdTarget@@UAEPAVCTypeLibCache@@XZ
	DD	FLAT:?GetTypeLib@CCmdTarget@@UAEJKPAPAUITypeLib@@@Z
	DD	FLAT:?GetMessageMap@CDlgGraphSetting@@MBEPBUAFX_MSGMAP@@XZ
	DD	FLAT:?GetCommandMap@CCmdTarget@@MBEPBUAFX_OLECMDMAP@@XZ
	DD	FLAT:?GetDispatchMap@CCmdTarget@@MBEPBUAFX_DISPMAP@@XZ
	DD	FLAT:?GetConnectionMap@CCmdTarget@@MBEPBUAFX_CONNECTIONMAP@@XZ
	DD	FLAT:?GetInterfaceMap@CWnd@@MBEPBUAFX_INTERFACEMAP@@XZ
	DD	FLAT:?GetEventSinkMap@CCmdTarget@@MBEPBUAFX_EVENTSINKMAP@@XZ
	DD	FLAT:?OnCreateAggregates@CCmdTarget@@UAEHXZ
	DD	FLAT:?GetInterfaceHook@CCmdTarget@@UAEPAUIUnknown@@PBX@Z
	DD	FLAT:?GetExtraConnectionPoints@CCmdTarget@@MAEHPAVCPtrArray@@@Z
	DD	FLAT:?GetConnectionHook@CCmdTarget@@MAEPAUIConnectionPoint@@ABU_GUID@@@Z
	DD	FLAT:?PreSubclassWindow@CWnd@@UAEXXZ
	DD	FLAT:?Create@CWnd@@UAEHPBD0KABUtagRECT@@PAV1@IPAUCCreateContext@@@Z
	DD	FLAT:?CreateEx@CWnd@@UAEHKPBD0KABUtagRECT@@PAV1@IPAX@Z
	DD	FLAT:?CreateEx@CWnd@@UAEHKPBD0KHHHHPAUHWND__@@PAUHMENU__@@PAX@Z
	DD	FLAT:?DestroyWindow@CWnd@@UAEHXZ
	DD	FLAT:?PreCreateWindow@CWnd@@UAEHAAUtagCREATESTRUCTA@@@Z
	DD	FLAT:?CalcWindowRect@CWnd@@UAEXPAUtagRECT@@I@Z
	DD	FLAT:?GetMenu@CWnd@@UBEPAVCMenu@@XZ
	DD	FLAT:?SetMenu@CWnd@@UAEHPAVCMenu@@@Z
	DD	FLAT:?OnToolHitTest@CWnd@@UBEHVCPoint@@PAUtagTOOLINFOA@@@Z
	DD	FLAT:?GetScrollBarCtrl@CWnd@@UBEPAVCScrollBar@@H@Z
	DD	FLAT:?WinHelpA@CWnd@@UAEXKI@Z
	DD	FLAT:?HtmlHelpA@CWnd@@UAEXKI@Z
	DD	FLAT:?WinHelpInternal@CWnd@@UAEXKI@Z
	DD	FLAT:?ContinueModal@CWnd@@UAEHXZ
	DD	FLAT:?EndModalLoop@CWnd@@UAEXH@Z
	DD	FLAT:?OnDrawIconicThumbnailOrLivePreview@CWnd@@UAEXAAVCDC@@VCRect@@VCSize@@HAAH@Z
	DD	FLAT:?EnsureStdObj@CWnd@@UAEJXZ
	DD	FLAT:?get_accParent@CWnd@@UAEJPAPAUIDispatch@@@Z
	DD	FLAT:?get_accChildCount@CWnd@@UAEJPAJ@Z
	DD	FLAT:?get_accChild@CWnd@@UAEJUtagVARIANT@@PAPAUIDispatch@@@Z
	DD	FLAT:?get_accName@CWnd@@UAEJUtagVARIANT@@PAPA_W@Z
	DD	FLAT:?get_accValue@CWnd@@UAEJUtagVARIANT@@PAPA_W@Z
	DD	FLAT:?get_accDescription@CWnd@@UAEJUtagVARIANT@@PAPA_W@Z
	DD	FLAT:?get_accRole@CWnd@@UAEJUtagVARIANT@@PAU2@@Z
	DD	FLAT:?get_accState@CWnd@@UAEJUtagVARIANT@@PAU2@@Z
	DD	FLAT:?get_accHelp@CWnd@@UAEJUtagVARIANT@@PAPA_W@Z
	DD	FLAT:?get_accHelpTopic@CWnd@@UAEJPAPA_WUtagVARIANT@@PAJ@Z
	DD	FLAT:?get_accKeyboardShortcut@CWnd@@UAEJUtagVARIANT@@PAPA_W@Z
	DD	FLAT:?get_accFocus@CWnd@@UAEJPAUtagVARIANT@@@Z
	DD	FLAT:?get_accSelection@CWnd@@UAEJPAUtagVARIANT@@@Z
	DD	FLAT:?get_accDefaultAction@CWnd@@UAEJUtagVARIANT@@PAPA_W@Z
	DD	FLAT:?accSelect@CWnd@@UAEJJUtagVARIANT@@@Z
	DD	FLAT:?accLocation@CWnd@@UAEJPAJ000UtagVARIANT@@@Z
	DD	FLAT:?accNavigate@CWnd@@UAEJJUtagVARIANT@@PAU2@@Z
	DD	FLAT:?accHitTest@CWnd@@UAEJJJPAUtagVARIANT@@@Z
	DD	FLAT:?accDoDefaultAction@CWnd@@UAEJUtagVARIANT@@@Z
	DD	FLAT:?put_accName@CWnd@@UAEJUtagVARIANT@@PA_W@Z
	DD	FLAT:?put_accValue@CWnd@@UAEJUtagVARIANT@@PA_W@Z
	DD	FLAT:?SetProxy@CWnd@@UAEJPAUIAccessibleProxy@@@Z
	DD	FLAT:?CreateAccessibleProxy@CWnd@@UAEJIJPAJ@Z
	DD	FLAT:?OnCommand@CWnd@@MAEHIJ@Z
	DD	FLAT:?OnNotify@CWnd@@MAEHIJPAJ@Z
	DD	FLAT:?GetSuperWndProcAddr@CWnd@@MAEPAP6GJPAUHWND__@@IIJ@ZXZ
	DD	FLAT:?DoDataExchange@CDlgGraphSetting@@MAEXPAVCDataExchange@@@Z
	DD	FLAT:?BeginModalState@CWnd@@UAEXXZ
	DD	FLAT:?EndModalState@CWnd@@UAEXXZ
	DD	FLAT:?PreTranslateMessage@CDlgGraphSetting@@UAEHPAUtagMSG@@@Z
	DD	FLAT:?OnAmbientProperty@CWnd@@UAEHPAVCOleControlSite@@JPAUtagVARIANT@@@Z
	DD	FLAT:?WindowProc@CWnd@@MAEJIIJ@Z
	DD	FLAT:?OnWndMsg@CWnd@@MAEHIIJPAJ@Z
	DD	FLAT:?DefWindowProcA@CWnd@@MAEJIIJ@Z
	DD	FLAT:?PostNcDestroy@CWnd@@MAEXXZ
	DD	FLAT:?OnChildNotify@CWnd@@MAEHIIJPAJ@Z
	DD	FLAT:?OnTouchInputs@CWnd@@MAEHIPAUtagTOUCHINPUT@@@Z
	DD	FLAT:?OnTouchInput@CWnd@@MAEHVCPoint@@HHPAUtagTOUCHINPUT@@@Z
	DD	FLAT:?GetGestureStatus@CWnd@@MAEKVCPoint@@@Z
	DD	FLAT:?OnGestureZoom@CWnd@@MAEHVCPoint@@J@Z
	DD	FLAT:?OnGesturePan@CWnd@@MAEHVCPoint@@0@Z
	DD	FLAT:?OnGestureRotate@CWnd@@MAEHVCPoint@@N@Z
	DD	FLAT:?OnGestureTwoFingerTap@CWnd@@MAEHVCPoint@@@Z
	DD	FLAT:?OnGesturePressAndTap@CWnd@@MAEHVCPoint@@J@Z
	DD	FLAT:?ResizeDynamicLayout@CWnd@@MAEXXZ
	DD	FLAT:?CheckAutoCenter@CDialog@@UAEHXZ
	DD	FLAT:?IsFrameWnd@CWnd@@UBEHXZ
	DD	FLAT:?CreateControlContainer@CWnd@@MAEHPAPAVCOleControlContainer@@@Z
	DD	FLAT:?CreateControlSite@CWnd@@MAEHPAVCOleControlContainer@@PAPAVCOleControlSite@@IABU_GUID@@@Z
	DD	FLAT:?SetOccDialogInfo@CDialog@@MAEHPAU_AFX_OCC_DIALOG_INFO@@@Z
	DD	FLAT:?GetOccDialogInfo@CDialog@@MAEPAU_AFX_OCC_DIALOG_INFO@@XZ
	DD	FLAT:?Create@CDialog@@UAEHIPAVCWnd@@@Z
	DD	FLAT:?Create@CDialog@@UAEHPBDPAVCWnd@@@Z
	DD	FLAT:?CreateIndirect@CDialog@@UAEHPAXPAVCWnd@@@Z
	DD	FLAT:?CreateIndirect@CDialog@@UAEHPBUDLGTEMPLATE@@PAVCWnd@@PAX@Z
	DD	FLAT:?DoModal@CDialog@@UAEHXZ
	DD	FLAT:?OnInitDialog@CDlgGraphSetting@@MAEHXZ
	DD	FLAT:?OnSetFont@CDialog@@UAEXPAVCFont@@@Z
	DD	FLAT:?OnOK@CDlgGraphSetting@@MAEXXZ
	DD	FLAT:?OnCancel@CDialog@@MAEXXZ
	DD	FLAT:?PreInitDialog@CDialog@@MAEXXZ
CONST	ENDS
;	COMDAT ??_7?$CList@V?$CStringT@DV?$StrTraitMFC_DLL@DV?$ChTraitsCRT@D@ATL@@@@@ATL@@V12@@@6B@
CONST	SEGMENT
??_7?$CList@V?$CStringT@DV?$StrTraitMFC_DLL@DV?$ChTraitsCRT@D@ATL@@@@@ATL@@V12@@@6B@ DD FLAT:??_R4?$CList@V?$CStringT@DV?$StrTraitMFC_DLL@DV?$ChTraitsCRT@D@ATL@@@@@ATL@@V12@@@6B@ ; CList<ATL::CStringT<char,StrTraitMFC_DLL<char,ATL::ChTraitsCRT<char> > >,ATL::CStringT<char,StrTraitMFC_DLL<char,ATL::ChTraitsCRT<char> > > >::`vftable'
	DD	FLAT:?GetRuntimeClass@CObject@@UBEPAUCRuntimeClass@@XZ
	DD	FLAT:??_E?$CList@V?$CStringT@DV?$StrTraitMFC_DLL@DV?$ChTraitsCRT@D@ATL@@@@@ATL@@V12@@@UAEPAXI@Z
	DD	FLAT:?Serialize@?$CList@V?$CStringT@DV?$StrTraitMFC_DLL@DV?$ChTraitsCRT@D@ATL@@@@@ATL@@V12@@@UAEXAAVCArchive@@@Z
	DD	FLAT:?AssertValid@CObject@@UBEXXZ
	DD	FLAT:?Dump@CObject@@UBEXAAVCDumpContext@@@Z
CONST	ENDS
_DATA	SEGMENT
?pGraphTypeItem@@3PAW4E_METACODE@IMetaTable@@A DD 01f7H	; pGraphTypeItem
	DD	01f8H
	DD	01f9H
	DD	01faH
	DD	01fbH
	DD	01fcH
	DD	01fdH
	DD	01feH
_DATA	ENDS
;	COMDAT ??_C@_0BA@ENJOCHIO@LoadResourceDLL@
CONST	SEGMENT
??_C@_0BA@ENJOCHIO@LoadResourceDLL@ DB 'LoadResourceDLL', 00H ; `string'
CONST	ENDS
;	COMDAT ??_R2CDialog@@8
rdata$r	SEGMENT
??_R2CDialog@@8 DD FLAT:??_R1A@?0A@EA@CDialog@@8	; CDialog::`RTTI Base Class Array'
	DD	FLAT:??_R1A@?0A@EA@CWnd@@8
	DD	FLAT:??_R1A@?0A@EA@CCmdTarget@@8
	DD	FLAT:??_R1A@?0A@EA@CObject@@8
rdata$r	ENDS
;	COMDAT ??_R3CDialog@@8
rdata$r	SEGMENT
??_R3CDialog@@8 DD 00H					; CDialog::`RTTI Class Hierarchy Descriptor'
	DD	00H
	DD	04H
	DD	FLAT:??_R2CDialog@@8
rdata$r	ENDS
;	COMDAT ??_R0?AVCDialog@@@8
data$rs	SEGMENT
??_R0?AVCDialog@@@8 DD FLAT:??_7type_info@@6B@		; CDialog `RTTI Type Descriptor'
	DD	00H
	DB	'.?AVCDialog@@', 00H
data$rs	ENDS
;	COMDAT ??_R1A@?0A@EA@CDialog@@8
rdata$r	SEGMENT
??_R1A@?0A@EA@CDialog@@8 DD FLAT:??_R0?AVCDialog@@@8	; CDialog::`RTTI Base Class Descriptor at (0,-1,0,64)'
	DD	03H
	DD	00H
	DD	0ffffffffH
	DD	00H
	DD	040H
	DD	FLAT:??_R3CDialog@@8
rdata$r	ENDS
;	COMDAT ??_R1A@?0A@EA@CButton@@8
rdata$r	SEGMENT
??_R1A@?0A@EA@CButton@@8 DD FLAT:??_R0?AVCButton@@@8	; CButton::`RTTI Base Class Descriptor at (0,-1,0,64)'
	DD	03H
	DD	00H
	DD	0ffffffffH
	DD	00H
	DD	040H
	DD	FLAT:??_R3CButton@@8
rdata$r	ENDS
;	COMDAT ??_R2CButton@@8
rdata$r	SEGMENT
??_R2CButton@@8 DD FLAT:??_R1A@?0A@EA@CButton@@8	; CButton::`RTTI Base Class Array'
	DD	FLAT:??_R1A@?0A@EA@CWnd@@8
	DD	FLAT:??_R1A@?0A@EA@CCmdTarget@@8
	DD	FLAT:??_R1A@?0A@EA@CObject@@8
rdata$r	ENDS
;	COMDAT ??_R3CButton@@8
rdata$r	SEGMENT
??_R3CButton@@8 DD 00H					; CButton::`RTTI Class Hierarchy Descriptor'
	DD	00H
	DD	04H
	DD	FLAT:??_R2CButton@@8
rdata$r	ENDS
;	COMDAT ??_R0?AVCButton@@@8
data$rs	SEGMENT
??_R0?AVCButton@@@8 DD FLAT:??_7type_info@@6B@		; CButton `RTTI Type Descriptor'
	DD	00H
	DB	'.?AVCButton@@', 00H
data$rs	ENDS
;	COMDAT ??_R4CButton@@6B@
rdata$r	SEGMENT
??_R4CButton@@6B@ DD 00H				; CButton::`RTTI Complete Object Locator'
	DD	00H
	DD	00H
	DD	FLAT:??_R0?AVCButton@@@8
	DD	FLAT:??_R3CButton@@8
rdata$r	ENDS
;	COMDAT ??_R2CCmdTarget@@8
rdata$r	SEGMENT
??_R2CCmdTarget@@8 DD FLAT:??_R1A@?0A@EA@CCmdTarget@@8	; CCmdTarget::`RTTI Base Class Array'
	DD	FLAT:??_R1A@?0A@EA@CObject@@8
rdata$r	ENDS
;	COMDAT ??_R3CCmdTarget@@8
rdata$r	SEGMENT
??_R3CCmdTarget@@8 DD 00H				; CCmdTarget::`RTTI Class Hierarchy Descriptor'
	DD	00H
	DD	02H
	DD	FLAT:??_R2CCmdTarget@@8
rdata$r	ENDS
;	COMDAT ??_R0?AVCCmdTarget@@@8
data$rs	SEGMENT
??_R0?AVCCmdTarget@@@8 DD FLAT:??_7type_info@@6B@	; CCmdTarget `RTTI Type Descriptor'
	DD	00H
	DB	'.?AVCCmdTarget@@', 00H
data$rs	ENDS
;	COMDAT ??_R1A@?0A@EA@CCmdTarget@@8
rdata$r	SEGMENT
??_R1A@?0A@EA@CCmdTarget@@8 DD FLAT:??_R0?AVCCmdTarget@@@8 ; CCmdTarget::`RTTI Base Class Descriptor at (0,-1,0,64)'
	DD	01H
	DD	00H
	DD	0ffffffffH
	DD	00H
	DD	040H
	DD	FLAT:??_R3CCmdTarget@@8
rdata$r	ENDS
;	COMDAT ??_R2CWnd@@8
rdata$r	SEGMENT
??_R2CWnd@@8 DD	FLAT:??_R1A@?0A@EA@CWnd@@8		; CWnd::`RTTI Base Class Array'
	DD	FLAT:??_R1A@?0A@EA@CCmdTarget@@8
	DD	FLAT:??_R1A@?0A@EA@CObject@@8
rdata$r	ENDS
;	COMDAT ??_R3CWnd@@8
rdata$r	SEGMENT
??_R3CWnd@@8 DD	00H					; CWnd::`RTTI Class Hierarchy Descriptor'
	DD	00H
	DD	03H
	DD	FLAT:??_R2CWnd@@8
rdata$r	ENDS
;	COMDAT ??_R0?AVCWnd@@@8
data$rs	SEGMENT
??_R0?AVCWnd@@@8 DD FLAT:??_7type_info@@6B@		; CWnd `RTTI Type Descriptor'
	DD	00H
	DB	'.?AVCWnd@@', 00H
data$rs	ENDS
;	COMDAT ??_R1A@?0A@EA@CWnd@@8
rdata$r	SEGMENT
??_R1A@?0A@EA@CWnd@@8 DD FLAT:??_R0?AVCWnd@@@8		; CWnd::`RTTI Base Class Descriptor at (0,-1,0,64)'
	DD	02H
	DD	00H
	DD	0ffffffffH
	DD	00H
	DD	040H
	DD	FLAT:??_R3CWnd@@8
rdata$r	ENDS
;	COMDAT ??_R1A@?0A@EA@CObject@@8
rdata$r	SEGMENT
??_R1A@?0A@EA@CObject@@8 DD FLAT:??_R0?AVCObject@@@8	; CObject::`RTTI Base Class Descriptor at (0,-1,0,64)'
	DD	00H
	DD	00H
	DD	0ffffffffH
	DD	00H
	DD	040H
	DD	FLAT:??_R3CObject@@8
rdata$r	ENDS
;	COMDAT ??_R2CObject@@8
rdata$r	SEGMENT
??_R2CObject@@8 DD FLAT:??_R1A@?0A@EA@CObject@@8	; CObject::`RTTI Base Class Array'
rdata$r	ENDS
;	COMDAT ??_R3CObject@@8
rdata$r	SEGMENT
??_R3CObject@@8 DD 00H					; CObject::`RTTI Class Hierarchy Descriptor'
	DD	00H
	DD	01H
	DD	FLAT:??_R2CObject@@8
rdata$r	ENDS
;	COMDAT ??_R0?AVCObject@@@8
data$rs	SEGMENT
??_R0?AVCObject@@@8 DD FLAT:??_7type_info@@6B@		; CObject `RTTI Type Descriptor'
	DD	00H
	DB	'.?AVCObject@@', 00H
data$rs	ENDS
;	COMDAT ??_7CButton@@6B@
CONST	SEGMENT
??_7CButton@@6B@ DD FLAT:??_R4CButton@@6B@		; CButton::`vftable'
	DD	FLAT:?GetRuntimeClass@CButton@@UBEPAUCRuntimeClass@@XZ
	DD	FLAT:??_ECButton@@UAEPAXI@Z
	DD	FLAT:?Serialize@CObject@@UAEXAAVCArchive@@@Z
	DD	FLAT:?AssertValid@CObject@@UBEXXZ
	DD	FLAT:?Dump@CObject@@UBEXAAVCDumpContext@@@Z
	DD	FLAT:?OnCmdMsg@CCmdTarget@@UAEHIHPAXPAUAFX_CMDHANDLERINFO@@@Z
	DD	FLAT:?OnFinalRelease@CWnd@@UAEXXZ
	DD	FLAT:?IsInvokeAllowed@CCmdTarget@@UAEHJ@Z
	DD	FLAT:?GetDispatchIID@CCmdTarget@@UAEHPAU_GUID@@@Z
	DD	FLAT:?GetTypeInfoCount@CCmdTarget@@UAEIXZ
	DD	FLAT:?GetTypeLibCache@CCmdTarget@@UAEPAVCTypeLibCache@@XZ
	DD	FLAT:?GetTypeLib@CCmdTarget@@UAEJKPAPAUITypeLib@@@Z
	DD	FLAT:?GetMessageMap@CWnd@@MBEPBUAFX_MSGMAP@@XZ
	DD	FLAT:?GetCommandMap@CCmdTarget@@MBEPBUAFX_OLECMDMAP@@XZ
	DD	FLAT:?GetDispatchMap@CCmdTarget@@MBEPBUAFX_DISPMAP@@XZ
	DD	FLAT:?GetConnectionMap@CCmdTarget@@MBEPBUAFX_CONNECTIONMAP@@XZ
	DD	FLAT:?GetInterfaceMap@CWnd@@MBEPBUAFX_INTERFACEMAP@@XZ
	DD	FLAT:?GetEventSinkMap@CCmdTarget@@MBEPBUAFX_EVENTSINKMAP@@XZ
	DD	FLAT:?OnCreateAggregates@CCmdTarget@@UAEHXZ
	DD	FLAT:?GetInterfaceHook@CCmdTarget@@UAEPAUIUnknown@@PBX@Z
	DD	FLAT:?GetExtraConnectionPoints@CCmdTarget@@MAEHPAVCPtrArray@@@Z
	DD	FLAT:?GetConnectionHook@CCmdTarget@@MAEPAUIConnectionPoint@@ABU_GUID@@@Z
	DD	FLAT:?PreSubclassWindow@CWnd@@UAEXXZ
	DD	FLAT:?Create@CWnd@@UAEHPBD0KABUtagRECT@@PAV1@IPAUCCreateContext@@@Z
	DD	FLAT:?CreateEx@CWnd@@UAEHKPBD0KABUtagRECT@@PAV1@IPAX@Z
	DD	FLAT:?CreateEx@CWnd@@UAEHKPBD0KHHHHPAUHWND__@@PAUHMENU__@@PAX@Z
	DD	FLAT:?DestroyWindow@CWnd@@UAEHXZ
	DD	FLAT:?PreCreateWindow@CWnd@@UAEHAAUtagCREATESTRUCTA@@@Z
	DD	FLAT:?CalcWindowRect@CWnd@@UAEXPAUtagRECT@@I@Z
	DD	FLAT:?GetMenu@CWnd@@UBEPAVCMenu@@XZ
	DD	FLAT:?SetMenu@CWnd@@UAEHPAVCMenu@@@Z
	DD	FLAT:?OnToolHitTest@CWnd@@UBEHVCPoint@@PAUtagTOOLINFOA@@@Z
	DD	FLAT:?GetScrollBarCtrl@CWnd@@UBEPAVCScrollBar@@H@Z
	DD	FLAT:?WinHelpA@CWnd@@UAEXKI@Z
	DD	FLAT:?HtmlHelpA@CWnd@@UAEXKI@Z
	DD	FLAT:?WinHelpInternal@CWnd@@UAEXKI@Z
	DD	FLAT:?ContinueModal@CWnd@@UAEHXZ
	DD	FLAT:?EndModalLoop@CWnd@@UAEXH@Z
	DD	FLAT:?OnDrawIconicThumbnailOrLivePreview@CWnd@@UAEXAAVCDC@@VCRect@@VCSize@@HAAH@Z
	DD	FLAT:?EnsureStdObj@CWnd@@UAEJXZ
	DD	FLAT:?get_accParent@CWnd@@UAEJPAPAUIDispatch@@@Z
	DD	FLAT:?get_accChildCount@CWnd@@UAEJPAJ@Z
	DD	FLAT:?get_accChild@CWnd@@UAEJUtagVARIANT@@PAPAUIDispatch@@@Z
	DD	FLAT:?get_accName@CWnd@@UAEJUtagVARIANT@@PAPA_W@Z
	DD	FLAT:?get_accValue@CWnd@@UAEJUtagVARIANT@@PAPA_W@Z
	DD	FLAT:?get_accDescription@CWnd@@UAEJUtagVARIANT@@PAPA_W@Z
	DD	FLAT:?get_accRole@CWnd@@UAEJUtagVARIANT@@PAU2@@Z
	DD	FLAT:?get_accState@CWnd@@UAEJUtagVARIANT@@PAU2@@Z
	DD	FLAT:?get_accHelp@CWnd@@UAEJUtagVARIANT@@PAPA_W@Z
	DD	FLAT:?get_accHelpTopic@CWnd@@UAEJPAPA_WUtagVARIANT@@PAJ@Z
	DD	FLAT:?get_accKeyboardShortcut@CWnd@@UAEJUtagVARIANT@@PAPA_W@Z
	DD	FLAT:?get_accFocus@CWnd@@UAEJPAUtagVARIANT@@@Z
	DD	FLAT:?get_accSelection@CWnd@@UAEJPAUtagVARIANT@@@Z
	DD	FLAT:?get_accDefaultAction@CWnd@@UAEJUtagVARIANT@@PAPA_W@Z
	DD	FLAT:?accSelect@CWnd@@UAEJJUtagVARIANT@@@Z
	DD	FLAT:?accLocation@CWnd@@UAEJPAJ000UtagVARIANT@@@Z
	DD	FLAT:?accNavigate@CWnd@@UAEJJUtagVARIANT@@PAU2@@Z
	DD	FLAT:?accHitTest@CWnd@@UAEJJJPAUtagVARIANT@@@Z
	DD	FLAT:?accDoDefaultAction@CWnd@@UAEJUtagVARIANT@@@Z
	DD	FLAT:?put_accName@CWnd@@UAEJUtagVARIANT@@PA_W@Z
	DD	FLAT:?put_accValue@CWnd@@UAEJUtagVARIANT@@PA_W@Z
	DD	FLAT:?SetProxy@CWnd@@UAEJPAUIAccessibleProxy@@@Z
	DD	FLAT:?CreateAccessibleProxy@CWnd@@UAEJIJPAJ@Z
	DD	FLAT:?OnCommand@CWnd@@MAEHIJ@Z
	DD	FLAT:?OnNotify@CWnd@@MAEHIJPAJ@Z
	DD	FLAT:?GetSuperWndProcAddr@CWnd@@MAEPAP6GJPAUHWND__@@IIJ@ZXZ
	DD	FLAT:?DoDataExchange@CWnd@@MAEXPAVCDataExchange@@@Z
	DD	FLAT:?BeginModalState@CWnd@@UAEXXZ
	DD	FLAT:?EndModalState@CWnd@@UAEXXZ
	DD	FLAT:?PreTranslateMessage@CWnd@@UAEHPAUtagMSG@@@Z
	DD	FLAT:?OnAmbientProperty@CWnd@@UAEHPAVCOleControlSite@@JPAUtagVARIANT@@@Z
	DD	FLAT:?WindowProc@CWnd@@MAEJIIJ@Z
	DD	FLAT:?OnWndMsg@CWnd@@MAEHIIJPAJ@Z
	DD	FLAT:?DefWindowProcA@CWnd@@MAEJIIJ@Z
	DD	FLAT:?PostNcDestroy@CWnd@@MAEXXZ
	DD	FLAT:?OnChildNotify@CButton@@MAEHIIJPAJ@Z
	DD	FLAT:?OnTouchInputs@CWnd@@MAEHIPAUtagTOUCHINPUT@@@Z
	DD	FLAT:?OnTouchInput@CWnd@@MAEHVCPoint@@HHPAUtagTOUCHINPUT@@@Z
	DD	FLAT:?GetGestureStatus@CWnd@@MAEKVCPoint@@@Z
	DD	FLAT:?OnGestureZoom@CWnd@@MAEHVCPoint@@J@Z
	DD	FLAT:?OnGesturePan@CWnd@@MAEHVCPoint@@0@Z
	DD	FLAT:?OnGestureRotate@CWnd@@MAEHVCPoint@@N@Z
	DD	FLAT:?OnGestureTwoFingerTap@CWnd@@MAEHVCPoint@@@Z
	DD	FLAT:?OnGesturePressAndTap@CWnd@@MAEHVCPoint@@J@Z
	DD	FLAT:?ResizeDynamicLayout@CWnd@@MAEXXZ
	DD	FLAT:?CheckAutoCenter@CWnd@@UAEHXZ
	DD	FLAT:?IsFrameWnd@CWnd@@UBEHXZ
	DD	FLAT:?CreateControlContainer@CWnd@@MAEHPAPAVCOleControlContainer@@@Z
	DD	FLAT:?CreateControlSite@CWnd@@MAEHPAVCOleControlContainer@@PAPAVCOleControlSite@@IABU_GUID@@@Z
	DD	FLAT:?SetOccDialogInfo@CWnd@@MAEHPAU_AFX_OCC_DIALOG_INFO@@@Z
	DD	FLAT:?GetOccDialogInfo@CWnd@@MAEPAU_AFX_OCC_DIALOG_INFO@@XZ
	DD	FLAT:?Create@CButton@@UAEHPBDKABUtagRECT@@PAVCWnd@@I@Z
	DD	FLAT:?DrawItem@CButton@@UAEXPAUtagDRAWITEMSTRUCT@@@Z
CONST	ENDS
;	COMDAT ??_C@_00CNPNBAHC@@
CONST	SEGMENT
??_C@_00CNPNBAHC@@ DB 00H				; `string'
CONST	ENDS
;	COMDAT xdata$x
xdata$x	SEGMENT
__unwindtable$??_GCDlgGraphSetting@@UAEPAXI@Z DD 0ffffffffH
	DD	FLAT:___std_terminate
__ehfuncinfo$??_GCDlgGraphSetting@@UAEPAXI@Z DD 019930522H
	DD	01H
	DD	FLAT:__unwindtable$??_GCDlgGraphSetting@@UAEPAXI@Z
	DD	2 DUP(00H)
	DD	2 DUP(00H)
	DD	00H
	DD	05H
xdata$x	ENDS
;	COMDAT xdata$x
xdata$x	SEGMENT
__unwindtable$?CheckDefaultPacketbyIndicatorInfo@CDlgGraphSetting@@AAEXPAUIGraphInfo134661@@@Z DD 0ffffffffH
	DD	FLAT:__unwindfunclet$?CheckDefaultPacketbyIndicatorInfo@CDlgGraphSetting@@AAEXPAUIGraphInfo134661@@@Z$0
	DD	0ffffffffH
	DD	FLAT:__unwindfunclet$?CheckDefaultPacketbyIndicatorInfo@CDlgGraphSetting@@AAEXPAUIGraphInfo134661@@@Z$2
__ehfuncinfo$?CheckDefaultPacketbyIndicatorInfo@CDlgGraphSetting@@AAEXPAUIGraphInfo134661@@@Z DD 019930522H
	DD	02H
	DD	FLAT:__unwindtable$?CheckDefaultPacketbyIndicatorInfo@CDlgGraphSetting@@AAEXPAUIGraphInfo134661@@@Z
	DD	2 DUP(00H)
	DD	2 DUP(00H)
	DD	00H
	DD	01H
xdata$x	ENDS
;	COMDAT xdata$x
xdata$x	SEGMENT
__unwindtable$?CheckGraphSettingbyIndicatorName@CDlgGraphSetting@@AAEXABV?$CStringT@DV?$StrTraitMFC_DLL@DV?$ChTraitsCRT@D@ATL@@@@@ATL@@@Z DD 0ffffffffH
	DD	FLAT:__unwindfunclet$?CheckGraphSettingbyIndicatorName@CDlgGraphSetting@@AAEXABV?$CStringT@DV?$StrTraitMFC_DLL@DV?$ChTraitsCRT@D@ATL@@@@@ATL@@@Z$0
	DD	0ffffffffH
	DD	FLAT:__unwindfunclet$?CheckGraphSettingbyIndicatorName@CDlgGraphSetting@@AAEXABV?$CStringT@DV?$StrTraitMFC_DLL@DV?$ChTraitsCRT@D@ATL@@@@@ATL@@@Z$2
__ehfuncinfo$?CheckGraphSettingbyIndicatorName@CDlgGraphSetting@@AAEXABV?$CStringT@DV?$StrTraitMFC_DLL@DV?$ChTraitsCRT@D@ATL@@@@@ATL@@@Z DD 019930522H
	DD	02H
	DD	FLAT:__unwindtable$?CheckGraphSettingbyIndicatorName@CDlgGraphSetting@@AAEXABV?$CStringT@DV?$StrTraitMFC_DLL@DV?$ChTraitsCRT@D@ATL@@@@@ATL@@@Z
	DD	2 DUP(00H)
	DD	2 DUP(00H)
	DD	00H
	DD	01H
xdata$x	ENDS
;	COMDAT xdata$x
xdata$x	SEGMENT
__ehfuncinfo$?CheckPacketbyCheckedPacketItems@CDlgGraphSetting@@AAEXXZ DD 019930522H
	DD	07H
	DD	FLAT:__unwindtable$?CheckPacketbyCheckedPacketItems@CDlgGraphSetting@@AAEXXZ
	DD	2 DUP(00H)
	DD	2 DUP(00H)
	DD	00H
	DD	01H
__unwindtable$?CheckPacketbyCheckedPacketItems@CDlgGraphSetting@@AAEXXZ DD 0ffffffffH
	DD	FLAT:__unwindfunclet$?CheckPacketbyCheckedPacketItems@CDlgGraphSetting@@AAEXXZ$0
	DD	00H
	DD	FLAT:__unwindfunclet$?CheckPacketbyCheckedPacketItems@CDlgGraphSetting@@AAEXXZ$1
	DD	00H
	DD	FLAT:__unwindfunclet$?CheckPacketbyCheckedPacketItems@CDlgGraphSetting@@AAEXXZ$2
	DD	02H
	DD	FLAT:__unwindfunclet$?CheckPacketbyCheckedPacketItems@CDlgGraphSetting@@AAEXXZ$3
	DD	02H
	DD	FLAT:__unwindfunclet$?CheckPacketbyCheckedPacketItems@CDlgGraphSetting@@AAEXXZ$4
	DD	04H
	DD	FLAT:__unwindfunclet$?CheckPacketbyCheckedPacketItems@CDlgGraphSetting@@AAEXXZ$5
	DD	02H
	DD	FLAT:__unwindfunclet$?CheckPacketbyCheckedPacketItems@CDlgGraphSetting@@AAEXXZ$5
xdata$x	ENDS
;	COMDAT xdata$x
xdata$x	SEGMENT
__unwindtable$?SetSubGraphDlgOnGraphSettingDlg@CDlgGraphSetting@@AAEXXZ DD 0ffffffffH
	DD	FLAT:__unwindfunclet$?SetSubGraphDlgOnGraphSettingDlg@CDlgGraphSetting@@AAEXXZ$0
	DD	00H
	DD	FLAT:__unwindfunclet$?SetSubGraphDlgOnGraphSettingDlg@CDlgGraphSetting@@AAEXXZ$1
	DD	01H
	DD	FLAT:__unwindfunclet$?SetSubGraphDlgOnGraphSettingDlg@CDlgGraphSetting@@AAEXXZ$2
	DD	0ffffffffH
	DD	FLAT:___std_terminate
__ehfuncinfo$?SetSubGraphDlgOnGraphSettingDlg@CDlgGraphSetting@@AAEXXZ DD 019930522H
	DD	04H
	DD	FLAT:__unwindtable$?SetSubGraphDlgOnGraphSettingDlg@CDlgGraphSetting@@AAEXXZ
	DD	2 DUP(00H)
	DD	2 DUP(00H)
	DD	00H
	DD	01H
xdata$x	ENDS
;	COMDAT xdata$x
xdata$x	SEGMENT
__unwindtable$?AddStringToIndicatorFunctionComboWhenSpecialGraphType@CDlgGraphSetting@@AAEXXZ DD 0ffffffffH
	DD	FLAT:__unwindfunclet$?AddStringToIndicatorFunctionComboWhenSpecialGraphType@CDlgGraphSetting@@AAEXXZ$0
	DD	0ffffffffH
	DD	00H
	DD	0ffffffffH
	DD	FLAT:___std_terminate
__ehfuncinfo$?AddStringToIndicatorFunctionComboWhenSpecialGraphType@CDlgGraphSetting@@AAEXXZ DD 019930522H
	DD	03H
	DD	FLAT:__unwindtable$?AddStringToIndicatorFunctionComboWhenSpecialGraphType@CDlgGraphSetting@@AAEXXZ
	DD	2 DUP(00H)
	DD	2 DUP(00H)
	DD	00H
	DD	01H
xdata$x	ENDS
;	COMDAT xdata$x
xdata$x	SEGMENT
__unwindtable$?AddStringToIndicatorFunctionComboWhenNoSpecialGraphType@CDlgGraphSetting@@AAEXXZ DD 0ffffffffH
	DD	FLAT:__unwindfunclet$?AddStringToIndicatorFunctionComboWhenNoSpecialGraphType@CDlgGraphSetting@@AAEXXZ$0
	DD	0ffffffffH
	DD	FLAT:___std_terminate
	DD	0ffffffffH
	DD	FLAT:__unwindfunclet$?AddStringToIndicatorFunctionComboWhenNoSpecialGraphType@CDlgGraphSetting@@AAEXXZ$1
	DD	0ffffffffH
	DD	FLAT:___std_terminate
__ehfuncinfo$?AddStringToIndicatorFunctionComboWhenNoSpecialGraphType@CDlgGraphSetting@@AAEXXZ DD 019930522H
	DD	04H
	DD	FLAT:__unwindtable$?AddStringToIndicatorFunctionComboWhenNoSpecialGraphType@CDlgGraphSetting@@AAEXXZ
	DD	2 DUP(00H)
	DD	2 DUP(00H)
	DD	00H
	DD	01H
xdata$x	ENDS
;	COMDAT xdata$x
xdata$x	SEGMENT
__unwindtable$?AddStringToIndicatorFunctionCombo@CDlgGraphSetting@@AAEXXZ DD 0ffffffffH
	DD	FLAT:__unwindfunclet$?AddStringToIndicatorFunctionCombo@CDlgGraphSetting@@AAEXXZ$0
	DD	0ffffffffH
	DD	FLAT:___std_terminate
	DD	0ffffffffH
	DD	FLAT:___std_terminate
__ehfuncinfo$?AddStringToIndicatorFunctionCombo@CDlgGraphSetting@@AAEXXZ DD 019930522H
	DD	03H
	DD	FLAT:__unwindtable$?AddStringToIndicatorFunctionCombo@CDlgGraphSetting@@AAEXXZ
	DD	2 DUP(00H)
	DD	2 DUP(00H)
	DD	00H
	DD	01H
xdata$x	ENDS
;	COMDAT xdata$x
xdata$x	SEGMENT
__ehfuncinfo$?AddStringToPacketCombo@CDlgGraphSetting@@AAEXXZ DD 019930522H
	DD	0aH
	DD	FLAT:__unwindtable$?AddStringToPacketCombo@CDlgGraphSetting@@AAEXXZ
	DD	2 DUP(00H)
	DD	2 DUP(00H)
	DD	00H
	DD	01H
__unwindtable$?AddStringToPacketCombo@CDlgGraphSetting@@AAEXXZ DD 0ffffffffH
	DD	FLAT:__unwindfunclet$?AddStringToPacketCombo@CDlgGraphSetting@@AAEXXZ$0
	DD	00H
	DD	FLAT:__unwindfunclet$?AddStringToPacketCombo@CDlgGraphSetting@@AAEXXZ$1
	DD	00H
	DD	FLAT:__unwindfunclet$?AddStringToPacketCombo@CDlgGraphSetting@@AAEXXZ$2
	DD	00H
	DD	FLAT:__unwindfunclet$?AddStringToPacketCombo@CDlgGraphSetting@@AAEXXZ$3
	DD	03H
	DD	FLAT:__unwindfunclet$?AddStringToPacketCombo@CDlgGraphSetting@@AAEXXZ$4
	DD	00H
	DD	FLAT:__unwindfunclet$?AddStringToPacketCombo@CDlgGraphSetting@@AAEXXZ$4
	DD	05H
	DD	FLAT:__unwindfunclet$?AddStringToPacketCombo@CDlgGraphSetting@@AAEXXZ$5
	DD	05H
	DD	FLAT:__unwindfunclet$?AddStringToPacketCombo@CDlgGraphSetting@@AAEXXZ$7
	DD	07H
	DD	FLAT:__unwindfunclet$?AddStringToPacketCombo@CDlgGraphSetting@@AAEXXZ$8
	DD	05H
	DD	FLAT:__unwindfunclet$?AddStringToPacketCombo@CDlgGraphSetting@@AAEXXZ$8
xdata$x	ENDS
;	COMDAT xdata$x
xdata$x	SEGMENT
__unwindtable$?CreateToolTip@CDlgGraphSetting@@AAEXXZ DD 0ffffffffH
	DD	FLAT:__unwindfunclet$?CreateToolTip@CDlgGraphSetting@@AAEXXZ$0
	DD	00H
	DD	FLAT:__unwindfunclet$?CreateToolTip@CDlgGraphSetting@@AAEXXZ$1
	DD	0ffffffffH
	DD	FLAT:___std_terminate
__ehfuncinfo$?CreateToolTip@CDlgGraphSetting@@AAEXXZ DD 019930522H
	DD	03H
	DD	FLAT:__unwindtable$?CreateToolTip@CDlgGraphSetting@@AAEXXZ
	DD	2 DUP(00H)
	DD	2 DUP(00H)
	DD	00H
	DD	01H
xdata$x	ENDS
;	COMDAT xdata$x
xdata$x	SEGMENT
__unwindtable$?OnEtcsetBt@CDlgGraphSetting@@IAEXXZ DD 0ffffffffH
	DD	FLAT:__unwindfunclet$?OnEtcsetBt@CDlgGraphSetting@@IAEXXZ$0
	DD	00H
	DD	FLAT:__unwindfunclet$?OnEtcsetBt@CDlgGraphSetting@@IAEXXZ$1
	DD	0ffffffffH
	DD	00H
	DD	0ffffffffH
	DD	FLAT:___std_terminate
__ehfuncinfo$?OnEtcsetBt@CDlgGraphSetting@@IAEXXZ DD 019930522H
	DD	04H
	DD	FLAT:__unwindtable$?OnEtcsetBt@CDlgGraphSetting@@IAEXXZ
	DD	2 DUP(00H)
	DD	2 DUP(00H)
	DD	00H
	DD	01H
xdata$x	ENDS
;	COMDAT xdata$x
xdata$x	SEGMENT
__unwindtable$?OnSelchangeIndicatorfunctionname@CDlgGraphSetting@@IAEXXZ DD 0ffffffffH
	DD	FLAT:__unwindfunclet$?OnSelchangeIndicatorfunctionname@CDlgGraphSetting@@IAEXXZ$0
__ehfuncinfo$?OnSelchangeIndicatorfunctionname@CDlgGraphSetting@@IAEXXZ DD 019930522H
	DD	01H
	DD	FLAT:__unwindtable$?OnSelchangeIndicatorfunctionname@CDlgGraphSetting@@IAEXXZ
	DD	2 DUP(00H)
	DD	2 DUP(00H)
	DD	00H
	DD	01H
xdata$x	ENDS
;	COMDAT xdata$x
xdata$x	SEGMENT
__ehfuncinfo$?OnOK@CDlgGraphSetting@@MAEXXZ DD 019930522H
	DD	07H
	DD	FLAT:__unwindtable$?OnOK@CDlgGraphSetting@@MAEXXZ
	DD	2 DUP(00H)
	DD	2 DUP(00H)
	DD	00H
	DD	01H
__unwindtable$?OnOK@CDlgGraphSetting@@MAEXXZ DD 0ffffffffH
	DD	FLAT:__unwindfunclet$?OnOK@CDlgGraphSetting@@MAEXXZ$0
	DD	0ffffffffH
	DD	FLAT:__unwindfunclet$?OnOK@CDlgGraphSetting@@MAEXXZ$1
	DD	0ffffffffH
	DD	FLAT:__unwindfunclet$?OnOK@CDlgGraphSetting@@MAEXXZ$2
	DD	02H
	DD	FLAT:__unwindfunclet$?OnOK@CDlgGraphSetting@@MAEXXZ$9
	DD	0ffffffffH
	DD	FLAT:__unwindfunclet$?OnOK@CDlgGraphSetting@@MAEXXZ$4
	DD	0ffffffffH
	DD	FLAT:__unwindfunclet$?OnOK@CDlgGraphSetting@@MAEXXZ$6
	DD	0ffffffffH
	DD	FLAT:__unwindfunclet$?OnOK@CDlgGraphSetting@@MAEXXZ$7
xdata$x	ENDS
;	COMDAT xdata$x
xdata$x	SEGMENT
__ehfuncinfo$??1CDlgGraphSetting@@UAE@XZ DD 019930522H
	DD	00H
	DD	00H
	DD	2 DUP(00H)
	DD	2 DUP(00H)
	DD	00H
	DD	05H
xdata$x	ENDS
;	COMDAT xdata$x
xdata$x	SEGMENT
__ehfuncinfo$??0CDlgGraphSetting@@QAE@PAVCChartLink@@PAVCLineColor@@PAUIGraphInfoManager134661@@PAUHWND__@@PAVCWnd@@@Z DD 019930522H
	DD	0fH
	DD	FLAT:__unwindtable$??0CDlgGraphSetting@@QAE@PAVCChartLink@@PAVCLineColor@@PAUIGraphInfoManager134661@@PAUHWND__@@PAVCWnd@@@Z
	DD	2 DUP(00H)
	DD	2 DUP(00H)
	DD	00H
	DD	01H
__unwindtable$??0CDlgGraphSetting@@QAE@PAVCChartLink@@PAVCLineColor@@PAUIGraphInfoManager134661@@PAUHWND__@@PAVCWnd@@@Z DD 0ffffffffH
	DD	FLAT:__unwindfunclet$??0CDlgGraphSetting@@QAE@PAVCChartLink@@PAVCLineColor@@PAUIGraphInfoManager134661@@PAUHWND__@@PAVCWnd@@@Z$0
	DD	00H
	DD	FLAT:__unwindfunclet$??0CDlgGraphSetting@@QAE@PAVCChartLink@@PAVCLineColor@@PAUIGraphInfoManager134661@@PAUHWND__@@PAVCWnd@@@Z$1
	DD	01H
	DD	FLAT:__unwindfunclet$??0CDlgGraphSetting@@QAE@PAVCChartLink@@PAVCLineColor@@PAUIGraphInfoManager134661@@PAUHWND__@@PAVCWnd@@@Z$2
	DD	02H
	DD	FLAT:__unwindfunclet$??0CDlgGraphSetting@@QAE@PAVCChartLink@@PAVCLineColor@@PAUIGraphInfoManager134661@@PAUHWND__@@PAVCWnd@@@Z$3
	DD	03H
	DD	FLAT:__unwindfunclet$??0CDlgGraphSetting@@QAE@PAVCChartLink@@PAVCLineColor@@PAUIGraphInfoManager134661@@PAUHWND__@@PAVCWnd@@@Z$4
	DD	04H
	DD	FLAT:__unwindfunclet$??0CDlgGraphSetting@@QAE@PAVCChartLink@@PAVCLineColor@@PAUIGraphInfoManager134661@@PAUHWND__@@PAVCWnd@@@Z$5
	DD	05H
	DD	FLAT:__unwindfunclet$??0CDlgGraphSetting@@QAE@PAVCChartLink@@PAVCLineColor@@PAUIGraphInfoManager134661@@PAUHWND__@@PAVCWnd@@@Z$6
	DD	06H
	DD	FLAT:__unwindfunclet$??0CDlgGraphSetting@@QAE@PAVCChartLink@@PAVCLineColor@@PAUIGraphInfoManager134661@@PAUHWND__@@PAVCWnd@@@Z$7
	DD	07H
	DD	FLAT:__unwindfunclet$??0CDlgGraphSetting@@QAE@PAVCChartLink@@PAVCLineColor@@PAUIGraphInfoManager134661@@PAUHWND__@@PAVCWnd@@@Z$8
	DD	08H
	DD	FLAT:__unwindfunclet$??0CDlgGraphSetting@@QAE@PAVCChartLink@@PAVCLineColor@@PAUIGraphInfoManager134661@@PAUHWND__@@PAVCWnd@@@Z$9
	DD	09H
	DD	FLAT:__unwindfunclet$??0CDlgGraphSetting@@QAE@PAVCChartLink@@PAVCLineColor@@PAUIGraphInfoManager134661@@PAUHWND__@@PAVCWnd@@@Z$10
	DD	0aH
	DD	FLAT:__unwindfunclet$??0CDlgGraphSetting@@QAE@PAVCChartLink@@PAVCLineColor@@PAUIGraphInfoManager134661@@PAUHWND__@@PAVCWnd@@@Z$11
	DD	0bH
	DD	FLAT:__unwindfunclet$??0CDlgGraphSetting@@QAE@PAVCChartLink@@PAVCLineColor@@PAUIGraphInfoManager134661@@PAUHWND__@@PAVCWnd@@@Z$12
	DD	0bH
	DD	FLAT:__unwindfunclet$??0CDlgGraphSetting@@QAE@PAVCChartLink@@PAVCLineColor@@PAUIGraphInfoManager134661@@PAUHWND__@@PAVCWnd@@@Z$13
	DD	0bH
	DD	FLAT:__unwindfunclet$??0CDlgGraphSetting@@QAE@PAVCChartLink@@PAVCLineColor@@PAUIGraphInfoManager134661@@PAUHWND__@@PAVCWnd@@@Z$15
xdata$x	ENDS
;	COMDAT xdata$x
xdata$x	SEGMENT
__unwindtable$?Serialize@?$CList@V?$CStringT@DV?$StrTraitMFC_DLL@DV?$ChTraitsCRT@D@ATL@@@@@ATL@@V12@@@UAEXAAVCArchive@@@Z DD 0ffffffffH
	DD	FLAT:__unwindfunclet$?Serialize@?$CList@V?$CStringT@DV?$StrTraitMFC_DLL@DV?$ChTraitsCRT@D@ATL@@@@@ATL@@V12@@@UAEXAAVCArchive@@@Z$0
	DD	00H
	DD	FLAT:__unwindfunclet$?Serialize@?$CList@V?$CStringT@DV?$StrTraitMFC_DLL@DV?$ChTraitsCRT@D@ATL@@@@@ATL@@V12@@@UAEXAAVCArchive@@@Z$2
__ehfuncinfo$?Serialize@?$CList@V?$CStringT@DV?$StrTraitMFC_DLL@DV?$ChTraitsCRT@D@ATL@@@@@ATL@@V12@@@UAEXAAVCArchive@@@Z DD 019930522H
	DD	02H
	DD	FLAT:__unwindtable$?Serialize@?$CList@V?$CStringT@DV?$StrTraitMFC_DLL@DV?$ChTraitsCRT@D@ATL@@@@@ATL@@V12@@@UAEXAAVCArchive@@@Z
	DD	2 DUP(00H)
	DD	2 DUP(00H)
	DD	00H
	DD	01H
xdata$x	ENDS
;	COMDAT xdata$x
xdata$x	SEGMENT
__ehfuncinfo$??1?$CList@V?$CStringT@DV?$StrTraitMFC_DLL@DV?$ChTraitsCRT@D@ATL@@@@@ATL@@V12@@@UAE@XZ DD 019930522H
	DD	00H
	DD	00H
	DD	2 DUP(00H)
	DD	2 DUP(00H)
	DD	00H
	DD	05H
xdata$x	ENDS
;	COMDAT xdata$x
xdata$x	SEGMENT
__unwindtable$?AddTail@?$CList@V?$CStringT@DV?$StrTraitMFC_DLL@DV?$ChTraitsCRT@D@ATL@@@@@ATL@@V12@@@QAEPAU__POSITION@@V?$CStringT@DV?$StrTraitMFC_DLL@DV?$ChTraitsCRT@D@ATL@@@@@ATL@@@Z DD 0ffffffffH
	DD	FLAT:__unwindfunclet$?AddTail@?$CList@V?$CStringT@DV?$StrTraitMFC_DLL@DV?$ChTraitsCRT@D@ATL@@@@@ATL@@V12@@@QAEPAU__POSITION@@V?$CStringT@DV?$StrTraitMFC_DLL@DV?$ChTraitsCRT@D@ATL@@@@@ATL@@@Z$0
__ehfuncinfo$?AddTail@?$CList@V?$CStringT@DV?$StrTraitMFC_DLL@DV?$ChTraitsCRT@D@ATL@@@@@ATL@@V12@@@QAEPAU__POSITION@@V?$CStringT@DV?$StrTraitMFC_DLL@DV?$ChTraitsCRT@D@ATL@@@@@ATL@@@Z DD 019930522H
	DD	01H
	DD	FLAT:__unwindtable$?AddTail@?$CList@V?$CStringT@DV?$StrTraitMFC_DLL@DV?$ChTraitsCRT@D@ATL@@@@@ATL@@V12@@@QAEPAU__POSITION@@V?$CStringT@DV?$StrTraitMFC_DLL@DV?$ChTraitsCRT@D@ATL@@@@@ATL@@@Z
	DD	2 DUP(00H)
	DD	2 DUP(00H)
	DD	00H
	DD	01H
xdata$x	ENDS
;	COMDAT xdata$x
xdata$x	SEGMENT
__ehfuncinfo$??1CMultiLanguageResourceSetter@@QAE@XZ DD 019930522H
	DD	00H
	DD	00H
	DD	2 DUP(00H)
	DD	2 DUP(00H)
	DD	00H
	DD	05H
xdata$x	ENDS
;	COMDAT xdata$x
xdata$x	SEGMENT
__unwindtable$??HATL@@YA?AV?$CStringT@DV?$StrTraitMFC_DLL@DV?$ChTraitsCRT@D@ATL@@@@@0@ABV10@PBD@Z DD 0ffffffffH
	DD	FLAT:__unwindfunclet$??HATL@@YA?AV?$CStringT@DV?$StrTraitMFC_DLL@DV?$ChTraitsCRT@D@ATL@@@@@0@ABV10@PBD@Z$0
__ehfuncinfo$??HATL@@YA?AV?$CStringT@DV?$StrTraitMFC_DLL@DV?$ChTraitsCRT@D@ATL@@@@@0@ABV10@PBD@Z DD 019930522H
	DD	01H
	DD	FLAT:__unwindtable$??HATL@@YA?AV?$CStringT@DV?$StrTraitMFC_DLL@DV?$ChTraitsCRT@D@ATL@@@@@0@ABV10@PBD@Z
	DD	2 DUP(00H)
	DD	2 DUP(00H)
	DD	00H
	DD	01H
xdata$x	ENDS
; Function compile flags: /Ogtp
;	COMDAT ??1CDlgGraphSetting2@@UAE@XZ
_TEXT	SEGMENT
??1CDlgGraphSetting2@@UAE@XZ PROC			; CDlgGraphSetting2::~CDlgGraphSetting2, COMDAT
; _this$ = ecx
  00000	e9 00 00 00 00	 jmp	 ??1CDialog@@UAE@XZ	; CDialog::~CDialog
??1CDlgGraphSetting2@@UAE@XZ ENDP			; CDlgGraphSetting2::~CDlgGraphSetting2
_TEXT	ENDS
; Function compile flags: /Ogtp
; File D:\git\src\IBK\IBK_DRFN\ProjSrc\SrcChartEx\ChartAddIn\ChartDesignPropertyAddIn\ChartDesignPropertyAddIn\DlgGraphSetting.cpp
; File C:\Program Files (x86)\Microsoft Visual Studio\2019\Community\VC\Tools\MSVC\14.29.30133\atlmfc\include\afx.inl
;	COMDAT ??_GCDlgGraphSetting@@UAEPAXI@Z
_TEXT	SEGMENT
__$EHRec$ = -12						; size = 12
___flags$ = 8						; size = 4
??_GCDlgGraphSetting@@UAEPAXI@Z PROC			; CDlgGraphSetting::`scalar deleting destructor', COMDAT
; _this$ = ecx
  00000	55		 push	 ebp
  00001	8b ec		 mov	 ebp, esp
  00003	6a ff		 push	 -1
  00005	68 00 00 00 00	 push	 __ehhandler$??_GCDlgGraphSetting@@UAEPAXI@Z
  0000a	64 a1 00 00 00
	00		 mov	 eax, DWORD PTR fs:0
  00010	50		 push	 eax
  00011	56		 push	 esi
  00012	a1 00 00 00 00	 mov	 eax, DWORD PTR ___security_cookie
  00017	33 c5		 xor	 eax, ebp
  00019	50		 push	 eax
  0001a	8d 45 f4	 lea	 eax, DWORD PTR __$EHRec$[ebp]
  0001d	64 a3 00 00 00
	00		 mov	 DWORD PTR fs:0, eax
  00023	8b f1		 mov	 esi, ecx
; File D:\git\src\IBK\IBK_DRFN\ProjSrc\SrcChartEx\ChartAddIn\ChartDesignPropertyAddIn\ChartDesignPropertyAddIn\DlgGraphSetting.cpp

; 69   : 	if( m_GraphColorCollection != NULL) delete m_GraphColorCollection;

  00025	8b 8e 90 02 00
	00		 mov	 ecx, DWORD PTR [esi+656]
  0002b	c7 45 fc 00 00
	00 00		 mov	 DWORD PTR __$EHRec$[ebp+8], 0
  00032	c7 06 00 00 00
	00		 mov	 DWORD PTR [esi], OFFSET ??_7CDlgGraphSetting@@6B@
  00038	85 c9		 test	 ecx, ecx
  0003a	74 06		 je	 SHORT $LN11@scalar
  0003c	8b 01		 mov	 eax, DWORD PTR [ecx]
  0003e	6a 01		 push	 1
  00040	ff 10		 call	 DWORD PTR [eax]
$LN11@scalar:

; 70   : 
; 71   : 	// (2006/7/5 - Seung-Won, Bae) Use IGraphInfoManager
; 72   : 	if( m_pIGraphInfoManager) m_pIGraphInfoManager->Release();

  00042	8b 8e 84 03 00
	00		 mov	 ecx, DWORD PTR [esi+900]
  00048	85 c9		 test	 ecx, ecx
  0004a	74 06		 je	 SHORT $LN9@scalar
  0004c	8b 01		 mov	 eax, DWORD PTR [ecx]
  0004e	51		 push	 ecx
  0004f	ff 50 08	 call	 DWORD PTR [eax+8]
$LN9@scalar:

; 73   : }

  00052	8d 8e 98 02 00
	00		 lea	 ecx, DWORD PTR [esi+664]
  00058	e8 00 00 00 00	 call	 ??1CDlgToolTip@@UAE@XZ	; CDlgToolTip::~CDlgToolTip
  0005d	8d 8e 80 02 00
	00		 lea	 ecx, DWORD PTR [esi+640]
  00063	ff 15 00 00 00
	00		 call	 DWORD PTR __imp_??1?$CStringT@DV?$StrTraitMFC_DLL@DV?$ChTraitsCRT@D@ATL@@@@@ATL@@QAE@XZ
  00069	8d 8e 7c 02 00
	00		 lea	 ecx, DWORD PTR [esi+636]
  0006f	ff 15 00 00 00
	00		 call	 DWORD PTR __imp_??1?$CStringT@DV?$StrTraitMFC_DLL@DV?$ChTraitsCRT@D@ATL@@@@@ATL@@QAE@XZ
  00075	8d 8e 78 02 00
	00		 lea	 ecx, DWORD PTR [esi+632]
  0007b	ff 15 00 00 00
	00		 call	 DWORD PTR __imp_??1?$CStringT@DV?$StrTraitMFC_DLL@DV?$ChTraitsCRT@D@ATL@@@@@ATL@@QAE@XZ
  00081	8d 8e 74 02 00
	00		 lea	 ecx, DWORD PTR [esi+628]
  00087	ff 15 00 00 00
	00		 call	 DWORD PTR __imp_??1?$CStringT@DV?$StrTraitMFC_DLL@DV?$ChTraitsCRT@D@ATL@@@@@ATL@@QAE@XZ
  0008d	8d 8e 5c 02 00
	00		 lea	 ecx, DWORD PTR [esi+604]
  00093	ff 15 00 00 00
	00		 call	 DWORD PTR __imp_??1?$CStringT@DV?$StrTraitMFC_DLL@DV?$ChTraitsCRT@D@ATL@@@@@ATL@@QAE@XZ
  00099	8d 8e 44 02 00
	00		 lea	 ecx, DWORD PTR [esi+580]
  0009f	ff 15 00 00 00
	00		 call	 DWORD PTR __imp_??1?$CStringT@DV?$StrTraitMFC_DLL@DV?$ChTraitsCRT@D@ATL@@@@@ATL@@QAE@XZ
  000a5	8d 8e 40 02 00
	00		 lea	 ecx, DWORD PTR [esi+576]
  000ab	ff 15 00 00 00
	00		 call	 DWORD PTR __imp_??1?$CStringT@DV?$StrTraitMFC_DLL@DV?$ChTraitsCRT@D@ATL@@@@@ATL@@QAE@XZ
  000b1	8d 8e c0 01 00
	00		 lea	 ecx, DWORD PTR [esi+448]
  000b7	e8 00 00 00 00	 call	 ??1CNoSystemMenuCombo@@UAE@XZ ; CNoSystemMenuCombo::~CNoSystemMenuCombo
  000bc	8d 8e 28 01 00
	00		 lea	 ecx, DWORD PTR [esi+296]
  000c2	e8 00 00 00 00	 call	 ??1CCheckComboBox@@UAE@XZ ; CCheckComboBox::~CCheckComboBox
  000c7	8d 8e a8 00 00
	00		 lea	 ecx, DWORD PTR [esi+168]
  000cd	e8 00 00 00 00	 call	 ??1CButton@@UAE@XZ	; CButton::~CButton
  000d2	8b ce		 mov	 ecx, esi
  000d4	e8 00 00 00 00	 call	 ??1CDialog@@UAE@XZ	; CDialog::~CDialog
  000d9	8b 45 08	 mov	 eax, DWORD PTR ___flags$[ebp]
  000dc	a8 01		 test	 al, 1
  000de	74 2f		 je	 SHORT $LN19@scalar
  000e0	a8 04		 test	 al, 4
  000e2	75 1d		 jne	 SHORT $LN3@scalar
; File C:\Program Files (x86)\Microsoft Visual Studio\2019\Community\VC\Tools\MSVC\14.29.30133\atlmfc\include\afx.inl

; 112  : 	{ ::operator delete(p); }

  000e4	56		 push	 esi
  000e5	e8 00 00 00 00	 call	 ??3@YAXPAX@Z		; operator delete
  000ea	83 c4 04	 add	 esp, 4
  000ed	8b c6		 mov	 eax, esi
  000ef	8b 4d f4	 mov	 ecx, DWORD PTR __$EHRec$[ebp]
  000f2	64 89 0d 00 00
	00 00		 mov	 DWORD PTR fs:0, ecx
  000f9	59		 pop	 ecx
  000fa	5e		 pop	 esi
  000fb	8b e5		 mov	 esp, ebp
  000fd	5d		 pop	 ebp
  000fe	c2 04 00	 ret	 4
$LN3@scalar:
  00101	68 90 03 00 00	 push	 912			; 00000390H
  00106	56		 push	 esi
  00107	e8 00 00 00 00	 call	 ?__global_delete@@YAXPAXI@Z ; __global_delete
  0010c	83 c4 08	 add	 esp, 8
$LN19@scalar:
  0010f	8b c6		 mov	 eax, esi
  00111	8b 4d f4	 mov	 ecx, DWORD PTR __$EHRec$[ebp]
  00114	64 89 0d 00 00
	00 00		 mov	 DWORD PTR fs:0, ecx
  0011b	59		 pop	 ecx
  0011c	5e		 pop	 esi
  0011d	8b e5		 mov	 esp, ebp
  0011f	5d		 pop	 ebp
  00120	c2 04 00	 ret	 4
  00123	cc		 int	 3
  00124	cc		 int	 3
  00125	cc		 int	 3
  00126	cc		 int	 3
  00127	cc		 int	 3
_TEXT	ENDS
;	COMDAT text$x
text$x	SEGMENT
__ehhandler$??_GCDlgGraphSetting@@UAEPAXI@Z:
  00000	90		 npad	 1
  00001	90		 npad	 1
  00002	8b 54 24 08	 mov	 edx, DWORD PTR [esp+8]
  00006	8d 42 0c	 lea	 eax, DWORD PTR [edx+12]
  00009	8b 4a f8	 mov	 ecx, DWORD PTR [edx-8]
  0000c	33 c8		 xor	 ecx, eax
  0000e	e8 00 00 00 00	 call	 @__security_check_cookie@4
  00013	b8 00 00 00 00	 mov	 eax, OFFSET __ehfuncinfo$??_GCDlgGraphSetting@@UAEPAXI@Z
  00018	e9 00 00 00 00	 jmp	 ___CxxFrameHandler3
text$x	ENDS
??_GCDlgGraphSetting@@UAEPAXI@Z ENDP			; CDlgGraphSetting::`scalar deleting destructor'
; Function compile flags: /Ogtp
; File D:\git\src\IBK\IBK_DRFN\ProjSrc\SrcChartEx\ChartAddIn\ChartDesignPropertyAddIn\ChartDesignPropertyAddIn\DlgGraphSetting.cpp
;	COMDAT ?SetSignal@CDlgGraphSetting@@AAEXPAVCChartLink@@@Z
_TEXT	SEGMENT
_pItem$ = 8						; size = 4
?SetSignal@CDlgGraphSetting@@AAEXPAVCChartLink@@@Z PROC	; CDlgGraphSetting::SetSignal, COMDAT
; _this$ = ecx

; 588  : {

  00000	55		 push	 ebp
  00001	8b ec		 mov	 ebp, esp

; 589  : 	if(pItem == NULL)

  00003	8b 55 08	 mov	 edx, DWORD PTR _pItem$[ebp]
  00006	85 d2		 test	 edx, edx
  00008	74 1a		 je	 SHORT $LN1@SetSignal

; 590  : 		return;
; 591  : 
; 592  : 	//m_pItem->m_bSignalShow = m_bSignalShow == 1 ? true : false;
; 593  : 	pItem->m_bSignalUse		= ( m_bSignalUse	? true : false);

  0000a	83 b9 78 03 00
	00 00		 cmp	 DWORD PTR [ecx+888], 0
  00011	0f 95 c0	 setne	 al
  00014	88 42 2c	 mov	 BYTE PTR [edx+44], al

; 594  : 	pItem->m_bSignalShow	= ( m_bSignalShow	? true : false);

  00017	83 b9 48 02 00
	00 00		 cmp	 DWORD PTR [ecx+584], 0
  0001e	0f 95 c0	 setne	 al
  00021	88 42 2d	 mov	 BYTE PTR [edx+45], al
$LN1@SetSignal:

; 595  : }

  00024	5d		 pop	 ebp
  00025	c2 04 00	 ret	 4
?SetSignal@CDlgGraphSetting@@AAEXPAVCChartLink@@@Z ENDP	; CDlgGraphSetting::SetSignal
_TEXT	ENDS
; Function compile flags: /Ogtp
; File D:\git\src\IBK\IBK_DRFN\ProjSrc\SrcChartEx\ChartAddIn\ChartDesignPropertyAddIn\ChartDesignPropertyAddIn\DlgGraphSetting.cpp
;	COMDAT ?CheckSignal@CDlgGraphSetting@@AAEX_N@Z
_TEXT	SEGMENT
_bIsShow$ = 8						; size = 1
?CheckSignal@CDlgGraphSetting@@AAEX_N@Z PROC		; CDlgGraphSetting::CheckSignal, COMDAT
; _this$ = ecx

; 579  : {

  00000	55		 push	 ebp
  00001	8b ec		 mov	 ebp, esp

; 580  : 	//signal   , 
; 581  : 	if(bIsShow)
; 582  : 		m_Signal_Bt.ShowWindow(SW_SHOW);
; 583  : 	else
; 584  : 		m_Signal_Bt.ShowWindow(SW_HIDE);
; 585  : }

  00003	33 d2		 xor	 edx, edx
  00005	b8 05 00 00 00	 mov	 eax, 5
  0000a	38 55 08	 cmp	 BYTE PTR _bIsShow$[ebp], dl
  0000d	0f 44 c2	 cmove	 eax, edx
  00010	89 45 08	 mov	 DWORD PTR _bIsShow$[ebp], eax

; 579  : {

  00013	81 c1 a8 00 00
	00		 add	 ecx, 168		; 000000a8H

; 580  : 	//signal   , 
; 581  : 	if(bIsShow)
; 582  : 		m_Signal_Bt.ShowWindow(SW_SHOW);
; 583  : 	else
; 584  : 		m_Signal_Bt.ShowWindow(SW_HIDE);
; 585  : }

  00019	5d		 pop	 ebp
  0001a	e9 00 00 00 00	 jmp	 ?ShowWindow@CWnd@@QAEHH@Z ; CWnd::ShowWindow
?CheckSignal@CDlgGraphSetting@@AAEX_N@Z ENDP		; CDlgGraphSetting::CheckSignal
_TEXT	ENDS
; Function compile flags: /Ogtp
; File D:\git\src\IBK\IBK_DRFN\ProjSrc\SrcChartEx\ChartAddIn\ChartDesignPropertyAddIn\ChartDesignPropertyAddIn\DlgGraphSetting.cpp
;	COMDAT ?CheckSignalbyIndicatorInfo@CDlgGraphSetting@@AAEXPAUIGraphInfo134661@@@Z
_TEXT	SEGMENT
_p_pIGraphInfo$ = 8					; size = 4
?CheckSignalbyIndicatorInfo@CDlgGraphSetting@@AAEXPAUIGraphInfo134661@@@Z PROC ; CDlgGraphSetting::CheckSignalbyIndicatorInfo, COMDAT
; _this$ = ecx

; 714  : {

  00000	55		 push	 ebp
  00001	8b ec		 mov	 ebp, esp
  00003	56		 push	 esi
  00004	8b f1		 mov	 esi, ecx

; 715  : 	// (2006/7/5 - Seung-Won, Bae) Use IGraphInfoManager
; 716  : 	if( p_pIGraphInfo == NULL) m_bSignalUse = m_bSignalShow = false;

  00006	8b 4d 08	 mov	 ecx, DWORD PTR _p_pIGraphInfo$[ebp]
  00009	57		 push	 edi
  0000a	8d 96 48 02 00
	00		 lea	 edx, DWORD PTR [esi+584]
  00010	8d be 78 03 00
	00		 lea	 edi, DWORD PTR [esi+888]
  00016	85 c9		 test	 ecx, ecx
  00018	75 08		 jne	 SHORT $LN2@CheckSigna
  0001a	89 0a		 mov	 DWORD PTR [edx], ecx
  0001c	33 c0		 xor	 eax, eax
  0001e	89 0f		 mov	 DWORD PTR [edi], ecx
  00020	eb 09		 jmp	 SHORT $LN3@CheckSigna
$LN2@CheckSigna:

; 717  : 	else p_pIGraphInfo->GetSignalInfo( m_bSignalUse, m_bSignalShow);

  00022	8b 01		 mov	 eax, DWORD PTR [ecx]
  00024	52		 push	 edx
  00025	57		 push	 edi
  00026	ff 50 40	 call	 DWORD PTR [eax+64]
  00029	8b 07		 mov	 eax, DWORD PTR [edi]
$LN3@CheckSigna:

; 718  : 
; 719  : 	CheckSignal( m_bSignalUse ? true : false);
; 720  : }

  0002b	f7 d8		 neg	 eax
  0002d	8d 8e a8 00 00
	00		 lea	 ecx, DWORD PTR [esi+168]
  00033	1b c0		 sbb	 eax, eax
  00035	83 e0 05	 and	 eax, 5
  00038	50		 push	 eax
  00039	e8 00 00 00 00	 call	 ?ShowWindow@CWnd@@QAEHH@Z ; CWnd::ShowWindow
  0003e	5f		 pop	 edi
  0003f	5e		 pop	 esi
  00040	5d		 pop	 ebp
  00041	c2 04 00	 ret	 4
?CheckSignalbyIndicatorInfo@CDlgGraphSetting@@AAEXPAUIGraphInfo134661@@@Z ENDP ; CDlgGraphSetting::CheckSignalbyIndicatorInfo
_TEXT	ENDS
; Function compile flags: /Ogtp
; File D:\git\src\IBK\IBK_DRFN\ProjSrc\SrcChartEx\ChartAddIn\ChartDesignPropertyAddIn\ChartDesignPropertyAddIn\DlgGraphSetting.cpp
;	COMDAT ?CheckGraphSetting2byIndicatorInfo@CDlgGraphSetting@@AAEXPAUIGraphInfo134661@@PBD@Z
_TEXT	SEGMENT
_this$1$ = -24						; size = 4
_m_nCurDataType$ = -20					; size = 4
_m_bPrevNow$ = -16					; size = 4
_m_bLowNow$ = -12					; size = 4
_m_bLowHigh$ = -8					; size = 4
_m_bHighNow$ = -4					; size = 4
_p_pIGraphInfo$ = 8					; size = 4
_p_szIndicatorName$ = 12				; size = 4
?CheckGraphSetting2byIndicatorInfo@CDlgGraphSetting@@AAEXPAUIGraphInfo134661@@PBD@Z PROC ; CDlgGraphSetting::CheckGraphSetting2byIndicatorInfo, COMDAT
; _this$ = ecx

; 702  : {

  00000	55		 push	 ebp
  00001	8b ec		 mov	 ebp, esp
  00003	83 ec 18	 sub	 esp, 24			; 00000018H
  00006	53		 push	 ebx
  00007	56		 push	 esi
  00008	57		 push	 edi
  00009	89 4d e8	 mov	 DWORD PTR _this$1$[ebp], ecx

; 703  : 	// (2006/7/5 - Seung-Won, Bae) Use IGraphInfoManager
; 704  : 	BOOL m_bHighNow( FALSE), m_bLowHigh( FALSE), m_bLowNow( FALSE), m_bPrevNow( FALSE);

  0000c	33 d2		 xor	 edx, edx

; 705  : 	int m_nCurDataType = 0;
; 706  : 	if( p_pIGraphInfo) p_pIGraphInfo->GetGraphDataDrawingData( m_bLowHigh, m_bLowNow, m_bHighNow, m_bPrevNow, m_nCurDataType);

  0000e	8b 4d 08	 mov	 ecx, DWORD PTR _p_pIGraphInfo$[ebp]
  00011	33 f6		 xor	 esi, esi
  00013	33 ff		 xor	 edi, edi
  00015	89 55 fc	 mov	 DWORD PTR _m_bHighNow$[ebp], edx
  00018	33 c0		 xor	 eax, eax
  0001a	89 75 f8	 mov	 DWORD PTR _m_bLowHigh$[ebp], esi
  0001d	33 db		 xor	 ebx, ebx
  0001f	89 7d f4	 mov	 DWORD PTR _m_bLowNow$[ebp], edi
  00022	89 45 f0	 mov	 DWORD PTR _m_bPrevNow$[ebp], eax
  00025	89 5d ec	 mov	 DWORD PTR _m_nCurDataType$[ebp], ebx
  00028	85 c9		 test	 ecx, ecx
  0002a	74 28		 je	 SHORT $LN2@CheckGraph
  0002c	8b 01		 mov	 eax, DWORD PTR [ecx]
  0002e	8d 55 ec	 lea	 edx, DWORD PTR _m_nCurDataType$[ebp]
  00031	52		 push	 edx
  00032	8d 55 f0	 lea	 edx, DWORD PTR _m_bPrevNow$[ebp]
  00035	52		 push	 edx
  00036	8d 55 fc	 lea	 edx, DWORD PTR _m_bHighNow$[ebp]
  00039	52		 push	 edx
  0003a	8d 55 f4	 lea	 edx, DWORD PTR _m_bLowNow$[ebp]
  0003d	52		 push	 edx
  0003e	8d 55 f8	 lea	 edx, DWORD PTR _m_bLowHigh$[ebp]
  00041	52		 push	 edx
  00042	ff 50 3c	 call	 DWORD PTR [eax+60]
  00045	8b 55 fc	 mov	 edx, DWORD PTR _m_bHighNow$[ebp]
  00048	8b 75 f8	 mov	 esi, DWORD PTR _m_bLowHigh$[ebp]
  0004b	8b 7d f4	 mov	 edi, DWORD PTR _m_bLowNow$[ebp]
  0004e	8b 45 f0	 mov	 eax, DWORD PTR _m_bPrevNow$[ebp]
  00051	8b 5d ec	 mov	 ebx, DWORD PTR _m_nCurDataType$[ebp]
$LN2@CheckGraph:

; 707  : 	m_graphSetting2Data.SetData( m_bHighNow ? true : false, m_bLowHigh ? true : false, m_bLowNow ? true : false, m_bPrevNow ? true : false, m_nCurDataType);

  00054	85 c0		 test	 eax, eax
  00056	53		 push	 ebx
  00057	0f 95 c0	 setne	 al
  0005a	85 ff		 test	 edi, edi
  0005c	8b 7d e8	 mov	 edi, DWORD PTR _this$1$[ebp]
  0005f	0f b6 c0	 movzx	 eax, al
  00062	50		 push	 eax
  00063	0f 95 c0	 setne	 al
  00066	85 f6		 test	 esi, esi
  00068	0f b6 c0	 movzx	 eax, al
  0006b	8d 8f 7c 03 00
	00		 lea	 ecx, DWORD PTR [edi+892]
  00071	50		 push	 eax
  00072	0f 95 c0	 setne	 al
  00075	85 d2		 test	 edx, edx
  00077	0f b6 c0	 movzx	 eax, al
  0007a	50		 push	 eax
  0007b	0f 95 c0	 setne	 al
  0007e	0f b6 c0	 movzx	 eax, al
  00081	50		 push	 eax
  00082	e8 00 00 00 00	 call	 ?SetData@CGraphSetting2Data@@QAEX_N000H@Z ; CGraphSetting2Data::SetData

; 708  : 
; 709  : 	// (2006/10/18 - Seung-Won, Bae) Enable ETC Data Setting in PriceChart
; 710  : 	GetDlgItem( IDC_ETCSET_BT)->EnableWindow( !strcmp( p_szIndicatorName, _MTEXT( C2_PRICE_CHART)) || !strcmp( p_szIndicatorName, _MTEXT( C2_VOLUME_CHART)));

  00087	8b 35 54 00 00
	00		 mov	 esi, DWORD PTR ?g_iMetaTable@@3VIMetaTable@@A+84
  0008d	8b 4d 0c	 mov	 ecx, DWORD PTR _p_szIndicatorName$[ebp]
  00090	8b c1		 mov	 eax, ecx
  00092	8b 96 28 03 00
	00		 mov	 edx, DWORD PTR [esi+808]
$LL6@CheckGraph:
  00098	8a 18		 mov	 bl, BYTE PTR [eax]
  0009a	3a 1a		 cmp	 bl, BYTE PTR [edx]
  0009c	75 1a		 jne	 SHORT $LN7@CheckGraph
  0009e	84 db		 test	 bl, bl
  000a0	74 12		 je	 SHORT $LN8@CheckGraph
  000a2	8a 58 01	 mov	 bl, BYTE PTR [eax+1]
  000a5	3a 5a 01	 cmp	 bl, BYTE PTR [edx+1]
  000a8	75 0e		 jne	 SHORT $LN7@CheckGraph
  000aa	83 c0 02	 add	 eax, 2
  000ad	83 c2 02	 add	 edx, 2
  000b0	84 db		 test	 bl, bl
  000b2	75 e4		 jne	 SHORT $LL6@CheckGraph
$LN8@CheckGraph:
  000b4	33 c0		 xor	 eax, eax
  000b6	eb 05		 jmp	 SHORT $LN9@CheckGraph
$LN7@CheckGraph:
  000b8	1b c0		 sbb	 eax, eax
  000ba	83 c8 01	 or	 eax, 1
$LN9@CheckGraph:
  000bd	85 c0		 test	 eax, eax
  000bf	74 33		 je	 SHORT $LN4@CheckGraph
  000c1	8b 86 2c 03 00
	00		 mov	 eax, DWORD PTR [esi+812]
$LL10@CheckGraph:
  000c7	8a 11		 mov	 dl, BYTE PTR [ecx]
  000c9	3a 10		 cmp	 dl, BYTE PTR [eax]
  000cb	75 1a		 jne	 SHORT $LN11@CheckGraph
  000cd	84 d2		 test	 dl, dl
  000cf	74 12		 je	 SHORT $LN12@CheckGraph
  000d1	8a 51 01	 mov	 dl, BYTE PTR [ecx+1]
  000d4	3a 50 01	 cmp	 dl, BYTE PTR [eax+1]
  000d7	75 0e		 jne	 SHORT $LN11@CheckGraph
  000d9	83 c1 02	 add	 ecx, 2
  000dc	83 c0 02	 add	 eax, 2
  000df	84 d2		 test	 dl, dl
  000e1	75 e4		 jne	 SHORT $LL10@CheckGraph
$LN12@CheckGraph:
  000e3	33 c0		 xor	 eax, eax
  000e5	eb 05		 jmp	 SHORT $LN13@CheckGraph
$LN11@CheckGraph:
  000e7	1b c0		 sbb	 eax, eax
  000e9	83 c8 01	 or	 eax, 1
$LN13@CheckGraph:
  000ec	85 c0		 test	 eax, eax
  000ee	74 04		 je	 SHORT $LN4@CheckGraph
  000f0	33 c0		 xor	 eax, eax
  000f2	eb 05		 jmp	 SHORT $LN5@CheckGraph
$LN4@CheckGraph:
  000f4	b8 01 00 00 00	 mov	 eax, 1
$LN5@CheckGraph:
  000f9	50		 push	 eax
  000fa	68 d8 1b 00 00	 push	 7128			; 00001bd8H
  000ff	8b cf		 mov	 ecx, edi
  00101	e8 00 00 00 00	 call	 ?GetDlgItem@CWnd@@QBEPAV1@H@Z ; CWnd::GetDlgItem
  00106	8b c8		 mov	 ecx, eax
  00108	e8 00 00 00 00	 call	 ?EnableWindow@CWnd@@QAEHH@Z ; CWnd::EnableWindow
  0010d	5f		 pop	 edi
  0010e	5e		 pop	 esi
  0010f	5b		 pop	 ebx

; 711  : }

  00110	8b e5		 mov	 esp, ebp
  00112	5d		 pop	 ebp
  00113	c2 08 00	 ret	 8
?CheckGraphSetting2byIndicatorInfo@CDlgGraphSetting@@AAEXPAUIGraphInfo134661@@PBD@Z ENDP ; CDlgGraphSetting::CheckGraphSetting2byIndicatorInfo
_TEXT	ENDS
; Function compile flags: /Ogtp
; File D:\git\src\IBK\IBK_DRFN\ProjSrc\SrcChartEx\ChartAddIn\ChartDesignPropertyAddIn\ChartDesignPropertyAddIn\DlgGraphSetting.cpp
; File C:\Program Files (x86)\Microsoft Visual Studio\2019\Community\VC\Tools\MSVC\14.29.30133\atlmfc\include\afxwin2.inl
; File D:\git\src\IBK\IBK_DRFN\ProjSrc\SrcChartEx\ChartAddIn\ChartDesignPropertyAddIn\ChartDesignPropertyAddIn\DlgGraphSetting.cpp
; File C:\Program Files (x86)\Microsoft Visual Studio\2019\Community\VC\Tools\MSVC\14.29.30133\atlmfc\include\afxwin2.inl
; File D:\git\src\IBK\IBK_DRFN\ProjSrc\SrcChartEx\ChartAddIn\ChartDesignPropertyAddIn\ChartDesignPropertyAddIn\DlgGraphSetting.cpp
;	COMDAT ?CheckDefaultPacketbyIndicatorInfo@CDlgGraphSetting@@AAEXPAUIGraphInfo134661@@@Z
_TEXT	SEGMENT
$T2 = -20						; size = 4
_this$1$ = -16						; size = 4
__$EHRec$ = -12						; size = 12
$T3 = 8							; size = 4
_p_pIGraphInfo$ = 8					; size = 4
?CheckDefaultPacketbyIndicatorInfo@CDlgGraphSetting@@AAEXPAUIGraphInfo134661@@@Z PROC ; CDlgGraphSetting::CheckDefaultPacketbyIndicatorInfo, COMDAT
; _this$ = ecx

; 690  : {

  00000	55		 push	 ebp
  00001	8b ec		 mov	 ebp, esp
  00003	6a ff		 push	 -1
  00005	68 00 00 00 00	 push	 __ehhandler$?CheckDefaultPacketbyIndicatorInfo@CDlgGraphSetting@@AAEXPAUIGraphInfo134661@@@Z
  0000a	64 a1 00 00 00
	00		 mov	 eax, DWORD PTR fs:0
  00010	50		 push	 eax
  00011	83 ec 0c	 sub	 esp, 12			; 0000000cH
  00014	53		 push	 ebx
  00015	56		 push	 esi
  00016	57		 push	 edi
  00017	a1 00 00 00 00	 mov	 eax, DWORD PTR ___security_cookie
  0001c	33 c5		 xor	 eax, ebp
  0001e	50		 push	 eax
  0001f	8d 45 f4	 lea	 eax, DWORD PTR __$EHRec$[ebp]
  00022	64 a3 00 00 00
	00		 mov	 DWORD PTR fs:0, eax
  00028	8b f9		 mov	 edi, ecx
  0002a	89 7d f0	 mov	 DWORD PTR _this$1$[ebp], edi
; File C:\Program Files (x86)\Microsoft Visual Studio\2019\Community\VC\Tools\MSVC\14.29.30133\atlmfc\include\afxwin2.inl

; 763  : 	{ ASSERT(::IsWindow(m_hWnd)); return (int)::SendMessage(m_hWnd, CB_GETCOUNT, 0, 0); }

  0002d	6a 00		 push	 0
  0002f	6a 00		 push	 0
  00031	68 46 01 00 00	 push	 326			; 00000146H
  00036	ff b7 48 01 00
	00		 push	 DWORD PTR [edi+328]
  0003c	ff 15 00 00 00
	00		 call	 DWORD PTR __imp__SendMessageA@16
; File D:\git\src\IBK\IBK_DRFN\ProjSrc\SrcChartEx\ChartAddIn\ChartDesignPropertyAddIn\ChartDesignPropertyAddIn\DlgGraphSetting.cpp

; 456  : 	int count = m_pPacketComboBox.GetCount();

  00042	8b d8		 mov	 ebx, eax
; File C:\Program Files (x86)\Microsoft Visual Studio\2019\Community\VC\Tools\MSVC\14.29.30133\atlmfc\include\afxwin2.inl

; 763  : 	{ ASSERT(::IsWindow(m_hWnd)); return (int)::SendMessage(m_hWnd, CB_GETCOUNT, 0, 0); }

  00044	33 f6		 xor	 esi, esi
  00046	81 c7 28 01 00
	00		 add	 edi, 296		; 00000128H
; File D:\git\src\IBK\IBK_DRFN\ProjSrc\SrcChartEx\ChartAddIn\ChartDesignPropertyAddIn\ChartDesignPropertyAddIn\DlgGraphSetting.cpp

; 457  : 	for(int i = 0 ; i< count; i++) {

  0004c	85 db		 test	 ebx, ebx
  0004e	7e 1b		 jle	 SHORT $LN19@CheckDefau
$LL10@CheckDefau:

; 458  : 		if(m_pPacketComboBox.GetCheck(i))

  00050	56		 push	 esi
  00051	8b cf		 mov	 ecx, edi
  00053	e8 00 00 00 00	 call	 ?GetCheck@CCheckComboBox@@QAEHH@Z ; CCheckComboBox::GetCheck
  00058	85 c0		 test	 eax, eax
  0005a	74 0a		 je	 SHORT $LN8@CheckDefau

; 459  : 			m_pPacketComboBox.SetCheck(i,FALSE);

  0005c	6a 00		 push	 0
  0005e	56		 push	 esi
  0005f	8b cf		 mov	 ecx, edi
  00061	e8 00 00 00 00	 call	 ?SetCheck@CCheckComboBox@@QAEHHH@Z ; CCheckComboBox::SetCheck
$LN8@CheckDefau:

; 457  : 	for(int i = 0 ; i< count; i++) {

  00066	46		 inc	 esi
  00067	3b f3		 cmp	 esi, ebx
  00069	7c e5		 jl	 SHORT $LL10@CheckDefau
$LN19@CheckDefau:

; 691  : 	// (2006/7/5 - Seung-Won, Bae) Use IGraphInfoManager
; 692  : 	UnCheckAllCheckedPacketItems();
; 693  : 	if( p_pIGraphInfo == NULL) return;

  0006b	8b 5d 08	 mov	 ebx, DWORD PTR _p_pIGraphInfo$[ebp]
  0006e	85 db		 test	 ebx, ebx
  00070	74 65		 je	 SHORT $LN1@CheckDefau

; 694  : 
; 695  : 	//sy 2003.6.3 ->    .
; 696  : 	m_pPacketComboBox.SetItemCheck( _MTOLS( p_pIGraphInfo->GetCommonCalculatePacketNames(), ",", 0));

  00072	6a ff		 push	 -1
  00074	6a 00		 push	 0
  00076	51		 push	 ecx
  00077	8b cc		 mov	 ecx, esp
  00079	89 65 ec	 mov	 DWORD PTR $T2[ebp], esp
  0007c	68 00 00 00 00	 push	 OFFSET ??_C@_01IHBHIGKO@?0@
  00081	ff 15 00 00 00
	00		 call	 DWORD PTR __imp_??0?$CStringT@DV?$StrTraitMFC_DLL@DV?$ChTraitsCRT@D@ATL@@@@@ATL@@QAE@PBD@Z
  00087	8b 03		 mov	 eax, DWORD PTR [ebx]
  00089	51		 push	 ecx
  0008a	8b cb		 mov	 ecx, ebx
  0008c	c7 45 fc 00 00
	00 00		 mov	 DWORD PTR __$EHRec$[ebp+8], 0
  00093	8b f4		 mov	 esi, esp
  00095	ff 50 1c	 call	 DWORD PTR [eax+28]
  00098	50		 push	 eax
  00099	8b ce		 mov	 ecx, esi
  0009b	ff 15 00 00 00
	00		 call	 DWORD PTR __imp_??0?$CStringT@DV?$StrTraitMFC_DLL@DV?$ChTraitsCRT@D@ATL@@@@@ATL@@QAE@PBD@Z
  000a1	8b 45 f0	 mov	 eax, DWORD PTR _this$1$[ebp]
  000a4	b9 00 00 00 00	 mov	 ecx, OFFSET ?g_iMetaTable@@3VIMetaTable@@A ; g_iMetaTable
  000a9	ff b0 88 03 00
	00		 push	 DWORD PTR [eax+904]
  000af	8d 45 08	 lea	 eax, DWORD PTR $T3[ebp]
  000b2	c7 45 fc ff ff
	ff ff		 mov	 DWORD PTR __$EHRec$[ebp+8], -1
  000b9	50		 push	 eax
  000ba	e8 00 00 00 00	 call	 ?GetMultipleLanguageText@IMetaTable@@QAE?AV?$CStringT@DV?$StrTraitMFC_DLL@DV?$ChTraitsCRT@D@ATL@@@@@ATL@@PAUHWND__@@V23@1HH@Z ; IMetaTable::GetMultipleLanguageText
  000bf	50		 push	 eax
  000c0	8b cf		 mov	 ecx, edi
  000c2	c7 45 fc 01 00
	00 00		 mov	 DWORD PTR __$EHRec$[ebp+8], 1
  000c9	e8 00 00 00 00	 call	 ?SetItemCheck@CCheckComboBox@@QAEXABV?$CStringT@DV?$StrTraitMFC_DLL@DV?$ChTraitsCRT@D@ATL@@@@@ATL@@@Z ; CCheckComboBox::SetItemCheck
  000ce	8d 4d 08	 lea	 ecx, DWORD PTR $T3[ebp]
  000d1	ff 15 00 00 00
	00		 call	 DWORD PTR __imp_??1?$CStringT@DV?$StrTraitMFC_DLL@DV?$ChTraitsCRT@D@ATL@@@@@ATL@@QAE@XZ
$LN1@CheckDefau:

; 697  : }

  000d7	8b 4d f4	 mov	 ecx, DWORD PTR __$EHRec$[ebp]
  000da	64 89 0d 00 00
	00 00		 mov	 DWORD PTR fs:0, ecx
  000e1	59		 pop	 ecx
  000e2	5f		 pop	 edi
  000e3	5e		 pop	 esi
  000e4	5b		 pop	 ebx
  000e5	8b e5		 mov	 esp, ebp
  000e7	5d		 pop	 ebp
  000e8	c2 04 00	 ret	 4
_TEXT	ENDS
;	COMDAT text$x
text$x	SEGMENT
__unwindfunclet$?CheckDefaultPacketbyIndicatorInfo@CDlgGraphSetting@@AAEXPAUIGraphInfo134661@@@Z$0:
  00000	8b 4d ec	 mov	 ecx, DWORD PTR $T2[ebp]
  00003	ff 25 00 00 00
	00		 jmp	 DWORD PTR __imp_??1?$CStringT@DV?$StrTraitMFC_DLL@DV?$ChTraitsCRT@D@ATL@@@@@ATL@@QAE@XZ
__unwindfunclet$?CheckDefaultPacketbyIndicatorInfo@CDlgGraphSetting@@AAEXPAUIGraphInfo134661@@@Z$2:
  00009	8d 4d 08	 lea	 ecx, DWORD PTR $T3[ebp]
  0000c	ff 25 00 00 00
	00		 jmp	 DWORD PTR __imp_??1?$CStringT@DV?$StrTraitMFC_DLL@DV?$ChTraitsCRT@D@ATL@@@@@ATL@@QAE@XZ
  00012	cc		 int	 3
  00013	cc		 int	 3
  00014	cc		 int	 3
  00015	cc		 int	 3
  00016	cc		 int	 3
__ehhandler$?CheckDefaultPacketbyIndicatorInfo@CDlgGraphSetting@@AAEXPAUIGraphInfo134661@@@Z:
  00017	90		 npad	 1
  00018	90		 npad	 1
  00019	8b 54 24 08	 mov	 edx, DWORD PTR [esp+8]
  0001d	8d 42 0c	 lea	 eax, DWORD PTR [edx+12]
  00020	8b 4a e4	 mov	 ecx, DWORD PTR [edx-28]
  00023	33 c8		 xor	 ecx, eax
  00025	e8 00 00 00 00	 call	 @__security_check_cookie@4
  0002a	b8 00 00 00 00	 mov	 eax, OFFSET __ehfuncinfo$?CheckDefaultPacketbyIndicatorInfo@CDlgGraphSetting@@AAEXPAUIGraphInfo134661@@@Z
  0002f	e9 00 00 00 00	 jmp	 ___CxxFrameHandler3
text$x	ENDS
?CheckDefaultPacketbyIndicatorInfo@CDlgGraphSetting@@AAEXPAUIGraphInfo134661@@@Z ENDP ; CDlgGraphSetting::CheckDefaultPacketbyIndicatorInfo
; Function compile flags: /Ogtp
; File D:\git\src\IBK\IBK_DRFN\ProjSrc\SrcChartEx\ChartAddIn\ChartDesignPropertyAddIn\ChartDesignPropertyAddIn\DlgGraphSetting.cpp
; File C:\Program Files (x86)\Microsoft Visual Studio\2019\Community\VC\Tools\MSVC\14.29.30133\atlmfc\include\afxwin2.inl
; File D:\git\src\IBK\IBK_DRFN\ProjSrc\SrcChartEx\ChartAddIn\ChartDesignPropertyAddIn\ChartDesignPropertyAddIn\DlgGraphSetting.cpp
; File C:\Program Files (x86)\Microsoft Visual Studio\2019\Community\VC\Tools\MSVC\14.29.30133\atlmfc\include\afxwin2.inl
; File C:\Program Files (x86)\Microsoft Visual Studio\2019\Community\VC\Tools\MSVC\14.29.30133\atlmfc\include\atlsimpstr.h
; File D:\git\src\IBK\IBK_DRFN\ProjSrc\SrcChartEx\ChartAddIn\ChartDesignPropertyAddIn\ChartDesignPropertyAddIn\DlgGraphSetting.cpp
; File C:\Program Files (x86)\Microsoft Visual Studio\2019\Community\VC\Tools\MSVC\14.29.30133\atlmfc\include\atlsimpstr.h
; File D:\git\src\IBK\IBK_DRFN\ProjSrc\SrcChartEx\ChartAddIn\ChartDesignPropertyAddIn\ChartDesignPropertyAddIn\DlgGraphSetting.cpp
; File C:\Program Files (x86)\Microsoft Visual Studio\2019\Community\VC\Tools\MSVC\14.29.30133\atlmfc\include\atlsimpstr.h
; File D:\git\src\IBK\IBK_DRFN\ProjSrc\SrcChartEx\ChartAddIn\ChartDesignPropertyAddIn\ChartDesignPropertyAddIn\DlgGraphSetting.cpp
;	COMDAT ?CheckGraphSettingbyIndicatorName@CDlgGraphSetting@@AAEXABV?$CStringT@DV?$StrTraitMFC_DLL@DV?$ChTraitsCRT@D@ATL@@@@@ATL@@@Z
_TEXT	SEGMENT
$T2 = -40						; size = 4
$T3 = -36						; size = 4
_this$1$ = -36						; size = 4
_m_bLowNow$4 = -32					; size = 4
_m_nCurDataType$5 = -28					; size = 4
_m_bPrevNow$6 = -24					; size = 4
_m_bLowHigh$7 = -20					; size = 4
_pIGraphInfo$1$ = -16					; size = 4
__$EHRec$ = -12						; size = 12
_m_bHighNow$8 = 8					; size = 4
_strIndicatorName$ = 8					; size = 4
?CheckGraphSettingbyIndicatorName@CDlgGraphSetting@@AAEXABV?$CStringT@DV?$StrTraitMFC_DLL@DV?$ChTraitsCRT@D@ATL@@@@@ATL@@@Z PROC ; CDlgGraphSetting::CheckGraphSettingbyIndicatorName, COMDAT
; _this$ = ecx

; 678  : {

  00000	55		 push	 ebp
  00001	8b ec		 mov	 ebp, esp
  00003	6a ff		 push	 -1
  00005	68 00 00 00 00	 push	 __ehhandler$?CheckGraphSettingbyIndicatorName@CDlgGraphSetting@@AAEXABV?$CStringT@DV?$StrTraitMFC_DLL@DV?$ChTraitsCRT@D@ATL@@@@@ATL@@@Z
  0000a	64 a1 00 00 00
	00		 mov	 eax, DWORD PTR fs:0
  00010	50		 push	 eax
  00011	83 ec 20	 sub	 esp, 32			; 00000020H
  00014	53		 push	 ebx
  00015	56		 push	 esi
  00016	57		 push	 edi
  00017	a1 00 00 00 00	 mov	 eax, DWORD PTR ___security_cookie
  0001c	33 c5		 xor	 eax, ebp
  0001e	50		 push	 eax
  0001f	8d 45 f4	 lea	 eax, DWORD PTR __$EHRec$[ebp]
  00022	64 a3 00 00 00
	00		 mov	 DWORD PTR fs:0, eax
  00028	8b d9		 mov	 ebx, ecx
  0002a	89 5d dc	 mov	 DWORD PTR _this$1$[ebp], ebx

; 681  : 	IGraphInfo *pIGraphInfo = m_pIGraphInfoManager->GetGraphInfo( IGraphInfoManager::IEILT_USER, strIndicatorName, IGraphInfoManager::IEIIGT_WITH_DEFAULT_GET_AND_SET);

  0002d	8b 8b 84 03 00
	00		 mov	 ecx, DWORD PTR [ebx+900]
  00033	8b 55 08	 mov	 edx, DWORD PTR _strIndicatorName$[ebp]
  00036	6a 02		 push	 2
  00038	8b 01		 mov	 eax, DWORD PTR [ecx]
  0003a	ff 32		 push	 DWORD PTR [edx]
  0003c	6a 03		 push	 3
  0003e	ff 50 14	 call	 DWORD PTR [eax+20]
; File C:\Program Files (x86)\Microsoft Visual Studio\2019\Community\VC\Tools\MSVC\14.29.30133\atlmfc\include\afxwin2.inl

; 763  : 	{ ASSERT(::IsWindow(m_hWnd)); return (int)::SendMessage(m_hWnd, CB_GETCOUNT, 0, 0); }

  00041	6a 00		 push	 0
  00043	6a 00		 push	 0
  00045	68 46 01 00 00	 push	 326			; 00000146H
  0004a	ff b3 48 01 00
	00		 push	 DWORD PTR [ebx+328]
; File D:\git\src\IBK\IBK_DRFN\ProjSrc\SrcChartEx\ChartAddIn\ChartDesignPropertyAddIn\ChartDesignPropertyAddIn\DlgGraphSetting.cpp

; 681  : 	IGraphInfo *pIGraphInfo = m_pIGraphInfoManager->GetGraphInfo( IGraphInfoManager::IEILT_USER, strIndicatorName, IGraphInfoManager::IEIIGT_WITH_DEFAULT_GET_AND_SET);

  00050	89 45 f0	 mov	 DWORD PTR _pIGraphInfo$1$[ebp], eax
; File C:\Program Files (x86)\Microsoft Visual Studio\2019\Community\VC\Tools\MSVC\14.29.30133\atlmfc\include\afxwin2.inl

; 763  : 	{ ASSERT(::IsWindow(m_hWnd)); return (int)::SendMessage(m_hWnd, CB_GETCOUNT, 0, 0); }

  00053	ff 15 00 00 00
	00		 call	 DWORD PTR __imp__SendMessageA@16
; File C:\Program Files (x86)\Microsoft Visual Studio\2019\Community\VC\Tools\MSVC\14.29.30133\atlmfc\include\atlsimpstr.h

; 377  : 		return( m_pszData );

  00059	33 f6		 xor	 esi, esi
  0005b	8d bb 28 01 00
	00		 lea	 edi, DWORD PTR [ebx+296]
; File D:\git\src\IBK\IBK_DRFN\ProjSrc\SrcChartEx\ChartAddIn\ChartDesignPropertyAddIn\ChartDesignPropertyAddIn\DlgGraphSetting.cpp

; 457  : 	for(int i = 0 ; i< count; i++) {

  00061	85 c0		 test	 eax, eax
  00063	7e 20		 jle	 SHORT $LN39@CheckGraph
  00065	8b d8		 mov	 ebx, eax
$LL15@CheckGraph:

; 458  : 		if(m_pPacketComboBox.GetCheck(i))

  00067	56		 push	 esi
  00068	8b cf		 mov	 ecx, edi
  0006a	e8 00 00 00 00	 call	 ?GetCheck@CCheckComboBox@@QAEHH@Z ; CCheckComboBox::GetCheck
  0006f	85 c0		 test	 eax, eax
  00071	74 0a		 je	 SHORT $LN13@CheckGraph

; 459  : 			m_pPacketComboBox.SetCheck(i,FALSE);

  00073	6a 00		 push	 0
  00075	56		 push	 esi
  00076	8b cf		 mov	 ecx, edi
  00078	e8 00 00 00 00	 call	 ?SetCheck@CCheckComboBox@@QAEHHH@Z ; CCheckComboBox::SetCheck
$LN13@CheckGraph:

; 457  : 	for(int i = 0 ; i< count; i++) {

  0007d	46		 inc	 esi
  0007e	3b f3		 cmp	 esi, ebx
  00080	7c e5		 jl	 SHORT $LL15@CheckGraph
  00082	8b 5d dc	 mov	 ebx, DWORD PTR _this$1$[ebp]
$LN39@CheckGraph:

; 693  : 	if( p_pIGraphInfo == NULL) return;

  00085	83 7d f0 00	 cmp	 DWORD PTR _pIGraphInfo$1$[ebp], 0
  00089	0f 84 bb 00 00
	00		 je	 $LN6@CheckGraph

; 694  : 
; 695  : 	//sy 2003.6.3 ->    .
; 696  : 	m_pPacketComboBox.SetItemCheck( _MTOLS( p_pIGraphInfo->GetCommonCalculatePacketNames(), ",", 0));

  0008f	6a ff		 push	 -1
  00091	6a 00		 push	 0
  00093	51		 push	 ecx
  00094	8b cc		 mov	 ecx, esp
  00096	89 65 d8	 mov	 DWORD PTR $T2[ebp], esp
  00099	68 00 00 00 00	 push	 OFFSET ??_C@_01IHBHIGKO@?0@
  0009e	ff 15 00 00 00
	00		 call	 DWORD PTR __imp_??0?$CStringT@DV?$StrTraitMFC_DLL@DV?$ChTraitsCRT@D@ATL@@@@@ATL@@QAE@PBD@Z
  000a4	51		 push	 ecx
  000a5	8b 4d f0	 mov	 ecx, DWORD PTR _pIGraphInfo$1$[ebp]
  000a8	8b f4		 mov	 esi, esp
  000aa	c7 45 fc 00 00
	00 00		 mov	 DWORD PTR __$EHRec$[ebp+8], 0
  000b1	8b 01		 mov	 eax, DWORD PTR [ecx]
  000b3	ff 50 1c	 call	 DWORD PTR [eax+28]
  000b6	50		 push	 eax
  000b7	8b ce		 mov	 ecx, esi
  000b9	ff 15 00 00 00
	00		 call	 DWORD PTR __imp_??0?$CStringT@DV?$StrTraitMFC_DLL@DV?$ChTraitsCRT@D@ATL@@@@@ATL@@QAE@PBD@Z
  000bf	ff b3 88 03 00
	00		 push	 DWORD PTR [ebx+904]
  000c5	8d 45 dc	 lea	 eax, DWORD PTR $T3[ebp]
  000c8	c7 45 fc ff ff
	ff ff		 mov	 DWORD PTR __$EHRec$[ebp+8], -1
  000cf	50		 push	 eax
  000d0	b9 00 00 00 00	 mov	 ecx, OFFSET ?g_iMetaTable@@3VIMetaTable@@A ; g_iMetaTable
  000d5	e8 00 00 00 00	 call	 ?GetMultipleLanguageText@IMetaTable@@QAE?AV?$CStringT@DV?$StrTraitMFC_DLL@DV?$ChTraitsCRT@D@ATL@@@@@ATL@@PAUHWND__@@V23@1HH@Z ; IMetaTable::GetMultipleLanguageText
  000da	50		 push	 eax
  000db	8b cf		 mov	 ecx, edi
  000dd	c7 45 fc 01 00
	00 00		 mov	 DWORD PTR __$EHRec$[ebp+8], 1
  000e4	e8 00 00 00 00	 call	 ?SetItemCheck@CCheckComboBox@@QAEXABV?$CStringT@DV?$StrTraitMFC_DLL@DV?$ChTraitsCRT@D@ATL@@@@@ATL@@@Z ; CCheckComboBox::SetItemCheck
  000e9	8d 4d dc	 lea	 ecx, DWORD PTR $T3[ebp]
  000ec	c7 45 fc ff ff
	ff ff		 mov	 DWORD PTR __$EHRec$[ebp+8], -1
  000f3	ff 15 00 00 00
	00		 call	 DWORD PTR __imp_??1?$CStringT@DV?$StrTraitMFC_DLL@DV?$ChTraitsCRT@D@ATL@@@@@ATL@@QAE@XZ
  000f9	8b 45 08	 mov	 eax, DWORD PTR _strIndicatorName$[ebp]

; 706  : 	if( p_pIGraphInfo) p_pIGraphInfo->GetGraphDataDrawingData( m_bLowHigh, m_bLowNow, m_bHighNow, m_bPrevNow, m_nCurDataType);

  000fc	8d 4d e4	 lea	 ecx, DWORD PTR _m_nCurDataType$5[ebp]
  000ff	8b 7d f0	 mov	 edi, DWORD PTR _pIGraphInfo$1$[ebp]
  00102	51		 push	 ecx
  00103	8d 4d e8	 lea	 ecx, DWORD PTR _m_bPrevNow$6[ebp]

; 696  : 	m_pPacketComboBox.SetItemCheck( _MTOLS( p_pIGraphInfo->GetCommonCalculatePacketNames(), ",", 0));

  00106	c7 45 08 00 00
	00 00		 mov	 DWORD PTR _m_bHighNow$8[ebp], 0
  0010d	8b 30		 mov	 esi, DWORD PTR [eax]

; 706  : 	if( p_pIGraphInfo) p_pIGraphInfo->GetGraphDataDrawingData( m_bLowHigh, m_bLowNow, m_bHighNow, m_bPrevNow, m_nCurDataType);

  0010f	8b 07		 mov	 eax, DWORD PTR [edi]
  00111	51		 push	 ecx
  00112	8d 4d 08	 lea	 ecx, DWORD PTR _m_bHighNow$8[ebp]

; 696  : 	m_pPacketComboBox.SetItemCheck( _MTOLS( p_pIGraphInfo->GetCommonCalculatePacketNames(), ",", 0));

  00115	c7 45 ec 00 00
	00 00		 mov	 DWORD PTR _m_bLowHigh$7[ebp], 0

; 706  : 	if( p_pIGraphInfo) p_pIGraphInfo->GetGraphDataDrawingData( m_bLowHigh, m_bLowNow, m_bHighNow, m_bPrevNow, m_nCurDataType);

  0011c	51		 push	 ecx
  0011d	8d 4d e0	 lea	 ecx, DWORD PTR _m_bLowNow$4[ebp]

; 696  : 	m_pPacketComboBox.SetItemCheck( _MTOLS( p_pIGraphInfo->GetCommonCalculatePacketNames(), ",", 0));

  00120	c7 45 e0 00 00
	00 00		 mov	 DWORD PTR _m_bLowNow$4[ebp], 0

; 706  : 	if( p_pIGraphInfo) p_pIGraphInfo->GetGraphDataDrawingData( m_bLowHigh, m_bLowNow, m_bHighNow, m_bPrevNow, m_nCurDataType);

  00127	51		 push	 ecx
  00128	8d 4d ec	 lea	 ecx, DWORD PTR _m_bLowHigh$7[ebp]

; 696  : 	m_pPacketComboBox.SetItemCheck( _MTOLS( p_pIGraphInfo->GetCommonCalculatePacketNames(), ",", 0));

  0012b	c7 45 e8 00 00
	00 00		 mov	 DWORD PTR _m_bPrevNow$6[ebp], 0

; 706  : 	if( p_pIGraphInfo) p_pIGraphInfo->GetGraphDataDrawingData( m_bLowHigh, m_bLowNow, m_bHighNow, m_bPrevNow, m_nCurDataType);

  00132	51		 push	 ecx
  00133	8b cf		 mov	 ecx, edi

; 696  : 	m_pPacketComboBox.SetItemCheck( _MTOLS( p_pIGraphInfo->GetCommonCalculatePacketNames(), ",", 0));

  00135	c7 45 e4 00 00
	00 00		 mov	 DWORD PTR _m_nCurDataType$5[ebp], 0

; 706  : 	if( p_pIGraphInfo) p_pIGraphInfo->GetGraphDataDrawingData( m_bLowHigh, m_bLowNow, m_bHighNow, m_bPrevNow, m_nCurDataType);

  0013c	ff 50 3c	 call	 DWORD PTR [eax+60]
  0013f	8b 4d 08	 mov	 ecx, DWORD PTR _m_bHighNow$8[ebp]
  00142	8b 55 ec	 mov	 edx, DWORD PTR _m_bLowHigh$7[ebp]
  00145	8b 45 e8	 mov	 eax, DWORD PTR _m_bPrevNow$6[ebp]
  00148	eb 1d		 jmp	 SHORT $LN23@CheckGraph
$LN6@CheckGraph:
; File C:\Program Files (x86)\Microsoft Visual Studio\2019\Community\VC\Tools\MSVC\14.29.30133\atlmfc\include\atlsimpstr.h

; 377  : 		return( m_pszData );

  0014a	8b 45 08	 mov	 eax, DWORD PTR _strIndicatorName$[ebp]
; File D:\git\src\IBK\IBK_DRFN\ProjSrc\SrcChartEx\ChartAddIn\ChartDesignPropertyAddIn\ChartDesignPropertyAddIn\DlgGraphSetting.cpp

; 704  : 	BOOL m_bHighNow( FALSE), m_bLowHigh( FALSE), m_bLowNow( FALSE), m_bPrevNow( FALSE);

  0014d	33 c9		 xor	 ecx, ecx
  0014f	8b 7d f0	 mov	 edi, DWORD PTR _pIGraphInfo$1$[ebp]
  00152	33 d2		 xor	 edx, edx
  00154	89 4d 08	 mov	 DWORD PTR _m_bHighNow$8[ebp], ecx
  00157	89 55 ec	 mov	 DWORD PTR _m_bLowHigh$7[ebp], edx
; File C:\Program Files (x86)\Microsoft Visual Studio\2019\Community\VC\Tools\MSVC\14.29.30133\atlmfc\include\atlsimpstr.h

; 377  : 		return( m_pszData );

  0015a	8b 30		 mov	 esi, DWORD PTR [eax]
; File D:\git\src\IBK\IBK_DRFN\ProjSrc\SrcChartEx\ChartAddIn\ChartDesignPropertyAddIn\ChartDesignPropertyAddIn\DlgGraphSetting.cpp

; 704  : 	BOOL m_bHighNow( FALSE), m_bLowHigh( FALSE), m_bLowNow( FALSE), m_bPrevNow( FALSE);

  0015c	33 c0		 xor	 eax, eax
  0015e	89 4d e0	 mov	 DWORD PTR _m_bLowNow$4[ebp], ecx
  00161	89 45 e8	 mov	 DWORD PTR _m_bPrevNow$6[ebp], eax

; 705  : 	int m_nCurDataType = 0;

  00164	89 45 e4	 mov	 DWORD PTR _m_nCurDataType$5[ebp], eax
$LN23@CheckGraph:

; 707  : 	m_graphSetting2Data.SetData( m_bHighNow ? true : false, m_bLowHigh ? true : false, m_bLowNow ? true : false, m_bPrevNow ? true : false, m_nCurDataType);

  00167	ff 75 e4	 push	 DWORD PTR _m_nCurDataType$5[ebp]
  0016a	85 c0		 test	 eax, eax
  0016c	0f 95 c0	 setne	 al
  0016f	83 7d e0 00	 cmp	 DWORD PTR _m_bLowNow$4[ebp], 0
  00173	0f b6 c0	 movzx	 eax, al
  00176	50		 push	 eax
  00177	0f 95 c0	 setne	 al
  0017a	85 d2		 test	 edx, edx
  0017c	0f b6 c0	 movzx	 eax, al
  0017f	50		 push	 eax
  00180	0f 95 c0	 setne	 al
  00183	85 c9		 test	 ecx, ecx
  00185	0f b6 c0	 movzx	 eax, al
  00188	8d 8b 7c 03 00
	00		 lea	 ecx, DWORD PTR [ebx+892]
  0018e	50		 push	 eax
  0018f	0f 95 c0	 setne	 al
  00192	0f b6 c0	 movzx	 eax, al
  00195	50		 push	 eax
  00196	e8 00 00 00 00	 call	 ?SetData@CGraphSetting2Data@@QAEX_N000H@Z ; CGraphSetting2Data::SetData

; 708  : 
; 709  : 	// (2006/10/18 - Seung-Won, Bae) Enable ETC Data Setting in PriceChart
; 710  : 	GetDlgItem( IDC_ETCSET_BT)->EnableWindow( !strcmp( p_szIndicatorName, _MTEXT( C2_PRICE_CHART)) || !strcmp( p_szIndicatorName, _MTEXT( C2_VOLUME_CHART)));

  0019b	8b 0d 54 00 00
	00		 mov	 ecx, DWORD PTR ?g_iMetaTable@@3VIMetaTable@@A+84
  001a1	8b c6		 mov	 eax, esi
  001a3	8b 89 28 03 00
	00		 mov	 ecx, DWORD PTR [ecx+808]
  001a9	0f 1f 80 00 00
	00 00		 npad	 7
$LL43@CheckGraph:
  001b0	8a 10		 mov	 dl, BYTE PTR [eax]
  001b2	3a 11		 cmp	 dl, BYTE PTR [ecx]
  001b4	75 1a		 jne	 SHORT $LN44@CheckGraph
  001b6	84 d2		 test	 dl, dl
  001b8	74 12		 je	 SHORT $LN45@CheckGraph
  001ba	8a 50 01	 mov	 dl, BYTE PTR [eax+1]
  001bd	3a 51 01	 cmp	 dl, BYTE PTR [ecx+1]
  001c0	75 0e		 jne	 SHORT $LN44@CheckGraph
  001c2	83 c0 02	 add	 eax, 2
  001c5	83 c1 02	 add	 ecx, 2
  001c8	84 d2		 test	 dl, dl
  001ca	75 e4		 jne	 SHORT $LL43@CheckGraph
$LN45@CheckGraph:
  001cc	33 c0		 xor	 eax, eax
  001ce	eb 05		 jmp	 SHORT $LN46@CheckGraph
$LN44@CheckGraph:
  001d0	1b c0		 sbb	 eax, eax
  001d2	83 c8 01	 or	 eax, 1
$LN46@CheckGraph:
  001d5	85 c0		 test	 eax, eax
  001d7	74 38		 je	 SHORT $LN25@CheckGraph
  001d9	a1 54 00 00 00	 mov	 eax, DWORD PTR ?g_iMetaTable@@3VIMetaTable@@A+84
  001de	8b 80 2c 03 00
	00		 mov	 eax, DWORD PTR [eax+812]
$LL47@CheckGraph:
  001e4	8a 0e		 mov	 cl, BYTE PTR [esi]
  001e6	3a 08		 cmp	 cl, BYTE PTR [eax]
  001e8	75 1a		 jne	 SHORT $LN48@CheckGraph
  001ea	84 c9		 test	 cl, cl
  001ec	74 12		 je	 SHORT $LN49@CheckGraph
  001ee	8a 4e 01	 mov	 cl, BYTE PTR [esi+1]
  001f1	3a 48 01	 cmp	 cl, BYTE PTR [eax+1]
  001f4	75 0e		 jne	 SHORT $LN48@CheckGraph
  001f6	83 c6 02	 add	 esi, 2
  001f9	83 c0 02	 add	 eax, 2
  001fc	84 c9		 test	 cl, cl
  001fe	75 e4		 jne	 SHORT $LL47@CheckGraph
$LN49@CheckGraph:
  00200	33 c0		 xor	 eax, eax
  00202	eb 05		 jmp	 SHORT $LN50@CheckGraph
$LN48@CheckGraph:
  00204	1b c0		 sbb	 eax, eax
  00206	83 c8 01	 or	 eax, 1
$LN50@CheckGraph:
  00209	85 c0		 test	 eax, eax
  0020b	74 04		 je	 SHORT $LN25@CheckGraph
  0020d	33 c0		 xor	 eax, eax
  0020f	eb 05		 jmp	 SHORT $LN26@CheckGraph
$LN25@CheckGraph:
  00211	b8 01 00 00 00	 mov	 eax, 1
$LN26@CheckGraph:
  00216	50		 push	 eax
  00217	68 d8 1b 00 00	 push	 7128			; 00001bd8H
  0021c	8b cb		 mov	 ecx, ebx
  0021e	e8 00 00 00 00	 call	 ?GetDlgItem@CWnd@@QBEPAV1@H@Z ; CWnd::GetDlgItem
  00223	8b c8		 mov	 ecx, eax
  00225	e8 00 00 00 00	 call	 ?EnableWindow@CWnd@@QAEHH@Z ; CWnd::EnableWindow
  0022a	8d 8b 48 02 00
	00		 lea	 ecx, DWORD PTR [ebx+584]
  00230	8d b3 78 03 00
	00		 lea	 esi, DWORD PTR [ebx+888]

; 716  : 	if( p_pIGraphInfo == NULL) m_bSignalUse = m_bSignalShow = false;

  00236	85 ff		 test	 edi, edi
  00238	75 24		 jne	 SHORT $LN28@CheckGraph
  0023a	89 39		 mov	 DWORD PTR [ecx], edi
  0023c	8d 8b a8 00 00
	00		 lea	 ecx, DWORD PTR [ebx+168]
  00242	57		 push	 edi
  00243	89 3e		 mov	 DWORD PTR [esi], edi
  00245	e8 00 00 00 00	 call	 ?ShowWindow@CWnd@@QAEHH@Z ; CWnd::ShowWindow

; 686  : }

  0024a	8b 4d f4	 mov	 ecx, DWORD PTR __$EHRec$[ebp]
  0024d	64 89 0d 00 00
	00 00		 mov	 DWORD PTR fs:0, ecx
  00254	59		 pop	 ecx
  00255	5f		 pop	 edi
  00256	5e		 pop	 esi
  00257	5b		 pop	 ebx
  00258	8b e5		 mov	 esp, ebp
  0025a	5d		 pop	 ebp
  0025b	c2 04 00	 ret	 4
$LN28@CheckGraph:

; 717  : 	else p_pIGraphInfo->GetSignalInfo( m_bSignalUse, m_bSignalShow);

  0025e	8b 07		 mov	 eax, DWORD PTR [edi]
  00260	51		 push	 ecx
  00261	56		 push	 esi
  00262	8b cf		 mov	 ecx, edi
  00264	ff 50 40	 call	 DWORD PTR [eax+64]
  00267	8b 06		 mov	 eax, DWORD PTR [esi]
  00269	8d 8b a8 00 00
	00		 lea	 ecx, DWORD PTR [ebx+168]
  0026f	f7 d8		 neg	 eax
  00271	1b c0		 sbb	 eax, eax
  00273	83 e0 05	 and	 eax, 5
  00276	50		 push	 eax
  00277	e8 00 00 00 00	 call	 ?ShowWindow@CWnd@@QAEHH@Z ; CWnd::ShowWindow

; 682  : 	CheckDefaultPacketbyIndicatorInfo(	pIGraphInfo);
; 683  : 	CheckGraphSetting2byIndicatorInfo(	pIGraphInfo, strIndicatorName);
; 684  : 	CheckSignalbyIndicatorInfo(			pIGraphInfo);
; 685  : 	if( pIGraphInfo) pIGraphInfo->Release();

  0027c	8b 07		 mov	 eax, DWORD PTR [edi]
  0027e	57		 push	 edi
  0027f	ff 50 08	 call	 DWORD PTR [eax+8]

; 686  : }

  00282	8b 4d f4	 mov	 ecx, DWORD PTR __$EHRec$[ebp]
  00285	64 89 0d 00 00
	00 00		 mov	 DWORD PTR fs:0, ecx
  0028c	59		 pop	 ecx
  0028d	5f		 pop	 edi
  0028e	5e		 pop	 esi
  0028f	5b		 pop	 ebx
  00290	8b e5		 mov	 esp, ebp
  00292	5d		 pop	 ebp
  00293	c2 04 00	 ret	 4
_TEXT	ENDS
;	COMDAT text$x
text$x	SEGMENT
__unwindfunclet$?CheckGraphSettingbyIndicatorName@CDlgGraphSetting@@AAEXABV?$CStringT@DV?$StrTraitMFC_DLL@DV?$ChTraitsCRT@D@ATL@@@@@ATL@@@Z$0:
  00000	8b 4d d8	 mov	 ecx, DWORD PTR $T2[ebp]
  00003	ff 25 00 00 00
	00		 jmp	 DWORD PTR __imp_??1?$CStringT@DV?$StrTraitMFC_DLL@DV?$ChTraitsCRT@D@ATL@@@@@ATL@@QAE@XZ
__unwindfunclet$?CheckGraphSettingbyIndicatorName@CDlgGraphSetting@@AAEXABV?$CStringT@DV?$StrTraitMFC_DLL@DV?$ChTraitsCRT@D@ATL@@@@@ATL@@@Z$2:
  00009	8d 4d dc	 lea	 ecx, DWORD PTR $T3[ebp]
  0000c	ff 25 00 00 00
	00		 jmp	 DWORD PTR __imp_??1?$CStringT@DV?$StrTraitMFC_DLL@DV?$ChTraitsCRT@D@ATL@@@@@ATL@@QAE@XZ
  00012	cc		 int	 3
  00013	cc		 int	 3
  00014	cc		 int	 3
  00015	cc		 int	 3
  00016	cc		 int	 3
__ehhandler$?CheckGraphSettingbyIndicatorName@CDlgGraphSetting@@AAEXABV?$CStringT@DV?$StrTraitMFC_DLL@DV?$ChTraitsCRT@D@ATL@@@@@ATL@@@Z:
  00017	90		 npad	 1
  00018	90		 npad	 1
  00019	8b 54 24 08	 mov	 edx, DWORD PTR [esp+8]
  0001d	8d 42 0c	 lea	 eax, DWORD PTR [edx+12]
  00020	8b 4a d0	 mov	 ecx, DWORD PTR [edx-48]
  00023	33 c8		 xor	 ecx, eax
  00025	e8 00 00 00 00	 call	 @__security_check_cookie@4
  0002a	b8 00 00 00 00	 mov	 eax, OFFSET __ehfuncinfo$?CheckGraphSettingbyIndicatorName@CDlgGraphSetting@@AAEXABV?$CStringT@DV?$StrTraitMFC_DLL@DV?$ChTraitsCRT@D@ATL@@@@@ATL@@@Z
  0002f	e9 00 00 00 00	 jmp	 ___CxxFrameHandler3
text$x	ENDS
?CheckGraphSettingbyIndicatorName@CDlgGraphSetting@@AAEXABV?$CStringT@DV?$StrTraitMFC_DLL@DV?$ChTraitsCRT@D@ATL@@@@@ATL@@@Z ENDP ; CDlgGraphSetting::CheckGraphSettingbyIndicatorName
; Function compile flags: /Ogtp
; File D:\git\src\IBK\IBK_DRFN\ProjSrc\SrcChartEx\ChartAddIn\ChartDesignPropertyAddIn\ChartDesignPropertyAddIn\DlgGraphSetting.cpp
;	COMDAT ?SetSubGraphDatas_Indicater@CDlgGraphSetting@@AAEXXZ
_TEXT	SEGMENT
?SetSubGraphDatas_Indicater@CDlgGraphSetting@@AAEXXZ PROC ; CDlgGraphSetting::SetSubGraphDatas_Indicater, COMDAT
; _this$ = ecx

; 618  : {

  00000	56		 push	 esi
  00001	57		 push	 edi
  00002	8b f9		 mov	 edi, ecx

; 619  : 	// (2006/7/5 - Seung-Won, Bae) Use IGraphInfoManager
; 620  : 	if( m_pIGraphInfoManager == NULL) return;

  00004	8b b7 84 03 00
	00		 mov	 esi, DWORD PTR [edi+900]
  0000a	85 f6		 test	 esi, esi
  0000c	74 44		 je	 SHORT $LN1@SetSubGrap

; 621  : 	
; 622  : 	// (2006/11/23 - Seung-Won, Bae) Use User Indicator Info in Design Time.
; 623  : 	IGraphInfo * pIGraphInfo = m_pIGraphInfoManager->GetGraphInfo( IGraphInfoManager::IEILT_USER, _LTOM2( m_strIndicatorName), IGraphInfoManager::IEIIGT_WITH_DEFAULT_GET_AND_SET);

  0000e	8b 36		 mov	 esi, DWORD PTR [esi]
  00010	b9 00 00 00 00	 mov	 ecx, OFFSET ?g_iMetaTable@@3VIMetaTable@@A ; g_iMetaTable
  00015	6a 02		 push	 2
  00017	6a 00		 push	 0
  00019	ff b7 40 02 00
	00		 push	 DWORD PTR [edi+576]
  0001f	6a 02		 push	 2
  00021	ff b7 88 03 00
	00		 push	 DWORD PTR [edi+904]
  00027	e8 00 00 00 00	 call	 ?GetMetaText@IMetaTable@@QAEPBDPAUHWND__@@W4E_CODEPAGE@1@PBDH@Z ; IMetaTable::GetMetaText
  0002c	8b 8f 84 03 00
	00		 mov	 ecx, DWORD PTR [edi+900]
  00032	50		 push	 eax
  00033	6a 03		 push	 3
  00035	ff 56 14	 call	 DWORD PTR [esi+20]
  00038	8b f0		 mov	 esi, eax

; 624  : 	if( pIGraphInfo == NULL) return;

  0003a	85 f6		 test	 esi, esi
  0003c	74 14		 je	 SHORT $LN1@SetSubGrap

; 625  : 	pIGraphInfo->GetAllSubGraphDataForMaking( m_strSubGraphDatas);

  0003e	8b 16		 mov	 edx, DWORD PTR [esi]
  00040	8d 8f 78 02 00
	00		 lea	 ecx, DWORD PTR [edi+632]
  00046	51		 push	 ecx
  00047	8b ce		 mov	 ecx, esi
  00049	ff 52 38	 call	 DWORD PTR [edx+56]

; 626  : 	pIGraphInfo->Release();

  0004c	8b 06		 mov	 eax, DWORD PTR [esi]
  0004e	56		 push	 esi
  0004f	ff 50 08	 call	 DWORD PTR [eax+8]
$LN1@SetSubGrap:

; 627  : }

  00052	5f		 pop	 edi
  00053	5e		 pop	 esi
  00054	c3		 ret	 0
?SetSubGraphDatas_Indicater@CDlgGraphSetting@@AAEXXZ ENDP ; CDlgGraphSetting::SetSubGraphDatas_Indicater
_TEXT	ENDS
; Function compile flags: /Ogtp
; File D:\git\src\IBK\IBK_DRFN\ProjSrc\SrcChartEx\ChartAddIn\ChartDesignPropertyAddIn\ChartDesignPropertyAddIn\DlgGraphSetting.cpp
; File C:\Program Files (x86)\Microsoft Visual Studio\2019\Community\VC\Tools\MSVC\14.29.30133\atlmfc\include\cstringt.h
; File D:\git\src\IBK\IBK_DRFN\ProjSrc\SrcChartEx\ChartAddIn\ChartDesignPropertyAddIn\ChartDesignPropertyAddIn\DlgGraphSetting.cpp
; File C:\Program Files (x86)\Microsoft Visual Studio\2019\Community\VC\Tools\MSVC\14.29.30133\atlmfc\include\cstringt.h
; File D:\git\src\IBK\IBK_DRFN\ProjSrc\SrcChartEx\ChartAddIn\ChartDesignPropertyAddIn\ChartDesignPropertyAddIn\DlgGraphSetting.cpp
; File C:\Program Files (x86)\Microsoft Visual Studio\2019\Community\VC\Tools\MSVC\14.29.30133\atlmfc\include\cstringt.h
; File D:\git\src\IBK\IBK_DRFN\ProjSrc\SrcChartEx\ChartAddIn\ChartDesignPropertyAddIn\ChartDesignPropertyAddIn\DlgGraphSetting.cpp
; File C:\Program Files (x86)\Microsoft Visual Studio\2019\Community\VC\Tools\MSVC\14.29.30133\atlmfc\include\cstringt.h
; File D:\git\src\IBK\IBK_DRFN\ProjSrc\SrcChartEx\ChartAddIn\ChartDesignPropertyAddIn\ChartDesignPropertyAddIn\DlgGraphSetting.cpp
; File C:\Program Files (x86)\Microsoft Visual Studio\2019\Community\VC\Tools\MSVC\14.29.30133\atlmfc\include\cstringt.h
; File D:\git\src\IBK\IBK_DRFN\ProjSrc\SrcChartEx\ChartAddIn\ChartDesignPropertyAddIn\ChartDesignPropertyAddIn\DlgGraphSetting.cpp
;	COMDAT ?IsNoneIndicatorType@CDlgGraphSetting@@ABE_NXZ
_TEXT	SEGMENT
?IsNoneIndicatorType@CDlgGraphSetting@@ABE_NXZ PROC	; CDlgGraphSetting::IsNoneIndicatorType, COMDAT
; _this$ = ecx

; 570  : 	return (m_strIndicatorType == _MTEXTN( pGraphTypeItem[1]) || 

  00000	8b 15 54 00 00
	00		 mov	 edx, DWORD PTR ?g_iMetaTable@@3VIMetaTable@@A+84
  00006	a1 04 00 00 00	 mov	 eax, DWORD PTR ?pGraphTypeItem@@3PAW4E_METACODE@IMetaTable@@A+4
  0000b	56		 push	 esi
  0000c	8d b1 74 02 00
	00		 lea	 esi, DWORD PTR [ecx+628]
; File C:\Program Files (x86)\Microsoft Visual Studio\2019\Community\VC\Tools\MSVC\14.29.30133\atlmfc\include\cstringt.h

; 2486 : 		return(str1.Compare(psz2) == 0);

  00012	8b ce		 mov	 ecx, esi
  00014	ff 34 82	 push	 DWORD PTR [edx+eax*4]
  00017	ff 15 00 00 00
	00		 call	 DWORD PTR __imp_?Compare@?$CStringT@DV?$StrTraitMFC_DLL@DV?$ChTraitsCRT@D@ATL@@@@@ATL@@QBEHPBD@Z
  0001d	85 c0		 test	 eax, eax
; File D:\git\src\IBK\IBK_DRFN\ProjSrc\SrcChartEx\ChartAddIn\ChartDesignPropertyAddIn\ChartDesignPropertyAddIn\DlgGraphSetting.cpp

; 570  : 	return (m_strIndicatorType == _MTEXTN( pGraphTypeItem[1]) || 

  0001f	74 52		 je	 SHORT $LN3@IsNoneIndi
  00021	8b 0d 54 00 00
	00		 mov	 ecx, DWORD PTR ?g_iMetaTable@@3VIMetaTable@@A+84
  00027	a1 08 00 00 00	 mov	 eax, DWORD PTR ?pGraphTypeItem@@3PAW4E_METACODE@IMetaTable@@A+8
; File C:\Program Files (x86)\Microsoft Visual Studio\2019\Community\VC\Tools\MSVC\14.29.30133\atlmfc\include\cstringt.h

; 2486 : 		return(str1.Compare(psz2) == 0);

  0002c	ff 34 81	 push	 DWORD PTR [ecx+eax*4]
  0002f	8b ce		 mov	 ecx, esi
  00031	ff 15 00 00 00
	00		 call	 DWORD PTR __imp_?Compare@?$CStringT@DV?$StrTraitMFC_DLL@DV?$ChTraitsCRT@D@ATL@@@@@ATL@@QBEHPBD@Z
  00037	85 c0		 test	 eax, eax
; File D:\git\src\IBK\IBK_DRFN\ProjSrc\SrcChartEx\ChartAddIn\ChartDesignPropertyAddIn\ChartDesignPropertyAddIn\DlgGraphSetting.cpp

; 570  : 	return (m_strIndicatorType == _MTEXTN( pGraphTypeItem[1]) || 

  00039	74 38		 je	 SHORT $LN3@IsNoneIndi
  0003b	8b 0d 54 00 00
	00		 mov	 ecx, DWORD PTR ?g_iMetaTable@@3VIMetaTable@@A+84
  00041	a1 18 00 00 00	 mov	 eax, DWORD PTR ?pGraphTypeItem@@3PAW4E_METACODE@IMetaTable@@A+24
; File C:\Program Files (x86)\Microsoft Visual Studio\2019\Community\VC\Tools\MSVC\14.29.30133\atlmfc\include\cstringt.h

; 2486 : 		return(str1.Compare(psz2) == 0);

  00046	ff 34 81	 push	 DWORD PTR [ecx+eax*4]
  00049	8b ce		 mov	 ecx, esi
  0004b	ff 15 00 00 00
	00		 call	 DWORD PTR __imp_?Compare@?$CStringT@DV?$StrTraitMFC_DLL@DV?$ChTraitsCRT@D@ATL@@@@@ATL@@QBEHPBD@Z
  00051	85 c0		 test	 eax, eax
; File D:\git\src\IBK\IBK_DRFN\ProjSrc\SrcChartEx\ChartAddIn\ChartDesignPropertyAddIn\ChartDesignPropertyAddIn\DlgGraphSetting.cpp

; 570  : 	return (m_strIndicatorType == _MTEXTN( pGraphTypeItem[1]) || 

  00053	74 1e		 je	 SHORT $LN3@IsNoneIndi
  00055	8b 15 54 00 00
	00		 mov	 edx, DWORD PTR ?g_iMetaTable@@3VIMetaTable@@A+84
; File C:\Program Files (x86)\Microsoft Visual Studio\2019\Community\VC\Tools\MSVC\14.29.30133\atlmfc\include\cstringt.h

; 2486 : 		return(str1.Compare(psz2) == 0);

  0005b	8b ce		 mov	 ecx, esi
; File D:\git\src\IBK\IBK_DRFN\ProjSrc\SrcChartEx\ChartAddIn\ChartDesignPropertyAddIn\ChartDesignPropertyAddIn\DlgGraphSetting.cpp

; 570  : 	return (m_strIndicatorType == _MTEXTN( pGraphTypeItem[1]) || 

  0005d	a1 1c 00 00 00	 mov	 eax, DWORD PTR ?pGraphTypeItem@@3PAW4E_METACODE@IMetaTable@@A+28
; File C:\Program Files (x86)\Microsoft Visual Studio\2019\Community\VC\Tools\MSVC\14.29.30133\atlmfc\include\cstringt.h

; 2486 : 		return(str1.Compare(psz2) == 0);

  00062	ff 34 82	 push	 DWORD PTR [edx+eax*4]
  00065	ff 15 00 00 00
	00		 call	 DWORD PTR __imp_?Compare@?$CStringT@DV?$StrTraitMFC_DLL@DV?$ChTraitsCRT@D@ATL@@@@@ATL@@QBEHPBD@Z
  0006b	85 c0		 test	 eax, eax
; File D:\git\src\IBK\IBK_DRFN\ProjSrc\SrcChartEx\ChartAddIn\ChartDesignPropertyAddIn\ChartDesignPropertyAddIn\DlgGraphSetting.cpp

; 570  : 	return (m_strIndicatorType == _MTEXTN( pGraphTypeItem[1]) || 

  0006d	74 04		 je	 SHORT $LN3@IsNoneIndi
  0006f	32 c0		 xor	 al, al
  00071	5e		 pop	 esi

; 571  : 		m_strIndicatorType == _MTEXTN( pGraphTypeItem[2]) ||			// (2007/3/21 - Seung-Won, Bae) Add 'Bar' for ''
; 572  : 		m_strIndicatorType == _MTEXTN( pGraphTypeItem[6]) || 
; 573  : 		m_strIndicatorType == _MTEXTN( pGraphTypeItem[7]));
; 574  : }

  00072	c3		 ret	 0
$LN3@IsNoneIndi:

; 570  : 	return (m_strIndicatorType == _MTEXTN( pGraphTypeItem[1]) || 

  00073	b0 01		 mov	 al, 1
  00075	5e		 pop	 esi

; 571  : 		m_strIndicatorType == _MTEXTN( pGraphTypeItem[2]) ||			// (2007/3/21 - Seung-Won, Bae) Add 'Bar' for ''
; 572  : 		m_strIndicatorType == _MTEXTN( pGraphTypeItem[6]) || 
; 573  : 		m_strIndicatorType == _MTEXTN( pGraphTypeItem[7]));
; 574  : }

  00076	c3		 ret	 0
?IsNoneIndicatorType@CDlgGraphSetting@@ABE_NXZ ENDP	; CDlgGraphSetting::IsNoneIndicatorType
_TEXT	ENDS
; Function compile flags: /Ogtp
; File D:\git\src\IBK\IBK_DRFN\ProjSrc\SrcChartEx\ChartAddIn\ChartDesignPropertyAddIn\ChartDesignPropertyAddIn\DlgGraphSetting.cpp
; File C:\Program Files (x86)\Microsoft Visual Studio\2019\Community\VC\Tools\MSVC\14.29.30133\atlmfc\include\cstringt.h
; File D:\git\src\IBK\IBK_DRFN\ProjSrc\SrcChartEx\ChartAddIn\ChartDesignPropertyAddIn\ChartDesignPropertyAddIn\DlgGraphSetting.cpp
; File C:\Program Files (x86)\Microsoft Visual Studio\2019\Community\VC\Tools\MSVC\14.29.30133\atlmfc\include\cstringt.h
; File D:\git\src\IBK\IBK_DRFN\ProjSrc\SrcChartEx\ChartAddIn\ChartDesignPropertyAddIn\ChartDesignPropertyAddIn\DlgGraphSetting.cpp
; File C:\Program Files (x86)\Microsoft Visual Studio\2019\Community\VC\Tools\MSVC\14.29.30133\atlmfc\include\cstringt.h
; File D:\git\src\IBK\IBK_DRFN\ProjSrc\SrcChartEx\ChartAddIn\ChartDesignPropertyAddIn\ChartDesignPropertyAddIn\DlgGraphSetting.cpp
; File C:\Program Files (x86)\Microsoft Visual Studio\2019\Community\VC\Tools\MSVC\14.29.30133\atlmfc\include\cstringt.h
; File D:\git\src\IBK\IBK_DRFN\ProjSrc\SrcChartEx\ChartAddIn\ChartDesignPropertyAddIn\ChartDesignPropertyAddIn\DlgGraphSetting.cpp
;	COMDAT ?IsGeneralIndicatorType@CDlgGraphSetting@@ABE_NXZ
_TEXT	SEGMENT
?IsGeneralIndicatorType@CDlgGraphSetting@@ABE_NXZ PROC	; CDlgGraphSetting::IsGeneralIndicatorType, COMDAT
; _this$ = ecx

; 562  : 	return (m_strIndicatorType == _MTEXTN( pGraphTypeItem[0]) || 

  00000	8b 15 54 00 00
	00		 mov	 edx, DWORD PTR ?g_iMetaTable@@3VIMetaTable@@A+84
  00006	a1 00 00 00 00	 mov	 eax, DWORD PTR ?pGraphTypeItem@@3PAW4E_METACODE@IMetaTable@@A
  0000b	56		 push	 esi
  0000c	8d b1 74 02 00
	00		 lea	 esi, DWORD PTR [ecx+628]
; File C:\Program Files (x86)\Microsoft Visual Studio\2019\Community\VC\Tools\MSVC\14.29.30133\atlmfc\include\cstringt.h

; 2486 : 		return(str1.Compare(psz2) == 0);

  00012	8b ce		 mov	 ecx, esi
  00014	ff 34 82	 push	 DWORD PTR [edx+eax*4]
  00017	ff 15 00 00 00
	00		 call	 DWORD PTR __imp_?Compare@?$CStringT@DV?$StrTraitMFC_DLL@DV?$ChTraitsCRT@D@ATL@@@@@ATL@@QBEHPBD@Z
  0001d	85 c0		 test	 eax, eax
; File D:\git\src\IBK\IBK_DRFN\ProjSrc\SrcChartEx\ChartAddIn\ChartDesignPropertyAddIn\ChartDesignPropertyAddIn\DlgGraphSetting.cpp

; 562  : 	return (m_strIndicatorType == _MTEXTN( pGraphTypeItem[0]) || 

  0001f	74 38		 je	 SHORT $LN3@IsGeneralI
  00021	8b 0d 54 00 00
	00		 mov	 ecx, DWORD PTR ?g_iMetaTable@@3VIMetaTable@@A+84
  00027	a1 04 00 00 00	 mov	 eax, DWORD PTR ?pGraphTypeItem@@3PAW4E_METACODE@IMetaTable@@A+4
; File C:\Program Files (x86)\Microsoft Visual Studio\2019\Community\VC\Tools\MSVC\14.29.30133\atlmfc\include\cstringt.h

; 2486 : 		return(str1.Compare(psz2) == 0);

  0002c	ff 34 81	 push	 DWORD PTR [ecx+eax*4]
  0002f	8b ce		 mov	 ecx, esi
  00031	ff 15 00 00 00
	00		 call	 DWORD PTR __imp_?Compare@?$CStringT@DV?$StrTraitMFC_DLL@DV?$ChTraitsCRT@D@ATL@@@@@ATL@@QBEHPBD@Z
  00037	85 c0		 test	 eax, eax
; File D:\git\src\IBK\IBK_DRFN\ProjSrc\SrcChartEx\ChartAddIn\ChartDesignPropertyAddIn\ChartDesignPropertyAddIn\DlgGraphSetting.cpp

; 562  : 	return (m_strIndicatorType == _MTEXTN( pGraphTypeItem[0]) || 

  00039	74 1e		 je	 SHORT $LN3@IsGeneralI
  0003b	8b 15 54 00 00
	00		 mov	 edx, DWORD PTR ?g_iMetaTable@@3VIMetaTable@@A+84
; File C:\Program Files (x86)\Microsoft Visual Studio\2019\Community\VC\Tools\MSVC\14.29.30133\atlmfc\include\cstringt.h

; 2486 : 		return(str1.Compare(psz2) == 0);

  00041	8b ce		 mov	 ecx, esi
; File D:\git\src\IBK\IBK_DRFN\ProjSrc\SrcChartEx\ChartAddIn\ChartDesignPropertyAddIn\ChartDesignPropertyAddIn\DlgGraphSetting.cpp

; 562  : 	return (m_strIndicatorType == _MTEXTN( pGraphTypeItem[0]) || 

  00043	a1 08 00 00 00	 mov	 eax, DWORD PTR ?pGraphTypeItem@@3PAW4E_METACODE@IMetaTable@@A+8
; File C:\Program Files (x86)\Microsoft Visual Studio\2019\Community\VC\Tools\MSVC\14.29.30133\atlmfc\include\cstringt.h

; 2486 : 		return(str1.Compare(psz2) == 0);

  00048	ff 34 82	 push	 DWORD PTR [edx+eax*4]
  0004b	ff 15 00 00 00
	00		 call	 DWORD PTR __imp_?Compare@?$CStringT@DV?$StrTraitMFC_DLL@DV?$ChTraitsCRT@D@ATL@@@@@ATL@@QBEHPBD@Z
  00051	85 c0		 test	 eax, eax
; File D:\git\src\IBK\IBK_DRFN\ProjSrc\SrcChartEx\ChartAddIn\ChartDesignPropertyAddIn\ChartDesignPropertyAddIn\DlgGraphSetting.cpp

; 562  : 	return (m_strIndicatorType == _MTEXTN( pGraphTypeItem[0]) || 

  00053	74 04		 je	 SHORT $LN3@IsGeneralI
  00055	32 c0		 xor	 al, al
  00057	5e		 pop	 esi

; 563  : 		m_strIndicatorType == _MTEXTN( pGraphTypeItem[1]) || 
; 564  : 		m_strIndicatorType == _MTEXTN( pGraphTypeItem[2]));
; 565  : }

  00058	c3		 ret	 0
$LN3@IsGeneralI:

; 562  : 	return (m_strIndicatorType == _MTEXTN( pGraphTypeItem[0]) || 

  00059	b0 01		 mov	 al, 1
  0005b	5e		 pop	 esi

; 563  : 		m_strIndicatorType == _MTEXTN( pGraphTypeItem[1]) || 
; 564  : 		m_strIndicatorType == _MTEXTN( pGraphTypeItem[2]));
; 565  : }

  0005c	c3		 ret	 0
?IsGeneralIndicatorType@CDlgGraphSetting@@ABE_NXZ ENDP	; CDlgGraphSetting::IsGeneralIndicatorType
_TEXT	ENDS
; Function compile flags: /Ogtp
; File D:\git\src\IBK\IBK_DRFN\ProjSrc\SrcChartEx\ChartAddIn\ChartDesignPropertyAddIn\ChartDesignPropertyAddIn\DlgGraphSetting.cpp
; File C:\Program Files (x86)\Microsoft Visual Studio\2019\Community\VC\Tools\MSVC\14.29.30133\atlmfc\include\cstringt.h
; File D:\git\src\IBK\IBK_DRFN\ProjSrc\SrcChartEx\ChartAddIn\ChartDesignPropertyAddIn\ChartDesignPropertyAddIn\DlgGraphSetting.cpp
; File C:\Program Files (x86)\Microsoft Visual Studio\2019\Community\VC\Tools\MSVC\14.29.30133\atlmfc\include\cstringt.h
; File D:\git\src\IBK\IBK_DRFN\ProjSrc\SrcChartEx\ChartAddIn\ChartDesignPropertyAddIn\ChartDesignPropertyAddIn\DlgGraphSetting.cpp
; File C:\Program Files (x86)\Microsoft Visual Studio\2019\Community\VC\Tools\MSVC\14.29.30133\atlmfc\include\cstringt.h
; File D:\git\src\IBK\IBK_DRFN\ProjSrc\SrcChartEx\ChartAddIn\ChartDesignPropertyAddIn\ChartDesignPropertyAddIn\DlgGraphSetting.cpp
; File C:\Program Files (x86)\Microsoft Visual Studio\2019\Community\VC\Tools\MSVC\14.29.30133\atlmfc\include\afxwin2.inl
; File D:\git\src\IBK\IBK_DRFN\ProjSrc\SrcChartEx\ChartAddIn\ChartDesignPropertyAddIn\ChartDesignPropertyAddIn\DlgGraphSetting.cpp
; File C:\Program Files (x86)\Microsoft Visual Studio\2019\Community\VC\Tools\MSVC\14.29.30133\atlmfc\include\afxwin2.inl
; File D:\git\src\IBK\IBK_DRFN\ProjSrc\SrcChartEx\ChartAddIn\ChartDesignPropertyAddIn\ChartDesignPropertyAddIn\DlgGraphSetting.cpp
; File C:\Program Files (x86)\Microsoft Visual Studio\2019\Community\VC\Tools\MSVC\14.29.30133\atlmfc\include\afxwin2.inl
; File D:\git\src\IBK\IBK_DRFN\ProjSrc\SrcChartEx\ChartAddIn\ChartDesignPropertyAddIn\ChartDesignPropertyAddIn\DlgGraphSetting.cpp
;	COMDAT ?CheckPacketbyCheckedPacketItems@CDlgGraphSetting@@AAEXXZ
_TEXT	SEGMENT
_nCount$1$ = -32					; size = 4
$T2 = -32						; size = 4
$T3 = -28						; size = 4
_PacketName$ = -24					; size = 4
_szItemData$4 = -20					; size = 4
$T5 = -20						; size = 4
__szData$ = -16						; size = 4
__$EHRec$ = -12						; size = 12
?CheckPacketbyCheckedPacketItems@CDlgGraphSetting@@AAEXXZ PROC ; CDlgGraphSetting::CheckPacketbyCheckedPacketItems, COMDAT
; _this$ = ecx

; 322  : {

  00000	55		 push	 ebp
  00001	8b ec		 mov	 ebp, esp
  00003	6a ff		 push	 -1
  00005	68 00 00 00 00	 push	 __ehhandler$?CheckPacketbyCheckedPacketItems@CDlgGraphSetting@@AAEXXZ
  0000a	64 a1 00 00 00
	00		 mov	 eax, DWORD PTR fs:0
  00010	50		 push	 eax
  00011	83 ec 14	 sub	 esp, 20			; 00000014H
  00014	53		 push	 ebx
  00015	56		 push	 esi
  00016	57		 push	 edi
  00017	a1 00 00 00 00	 mov	 eax, DWORD PTR ___security_cookie
  0001c	33 c5		 xor	 eax, ebp
  0001e	50		 push	 eax
  0001f	8d 45 f4	 lea	 eax, DWORD PTR __$EHRec$[ebp]
  00022	64 a3 00 00 00
	00		 mov	 DWORD PTR fs:0, eax
  00028	8b f9		 mov	 edi, ecx

; 323  : 	CString _szData = m_strCheckedPacketItems;

  0002a	8d 87 44 02 00
	00		 lea	 eax, DWORD PTR [edi+580]
  00030	50		 push	 eax
  00031	8d 4d f0	 lea	 ecx, DWORD PTR __szData$[ebp]
  00034	ff 15 00 00 00
	00		 call	 DWORD PTR __imp_??0?$CStringT@DV?$StrTraitMFC_DLL@DV?$ChTraitsCRT@D@ATL@@@@@ATL@@QAE@ABV01@@Z

; 325  : 	if(_szData.Right(1) != ",")

  0003a	6a 01		 push	 1
  0003c	8d 45 e0	 lea	 eax, DWORD PTR $T2[ebp]
  0003f	c7 45 fc 00 00
	00 00		 mov	 DWORD PTR __$EHRec$[ebp+8], 0
  00046	50		 push	 eax
  00047	8d 4d f0	 lea	 ecx, DWORD PTR __szData$[ebp]
  0004a	ff 15 00 00 00
	00		 call	 DWORD PTR __imp_?Right@?$CStringT@DV?$StrTraitMFC_DLL@DV?$ChTraitsCRT@D@ATL@@@@@ATL@@QBE?AV12@H@Z
; File C:\Program Files (x86)\Microsoft Visual Studio\2019\Community\VC\Tools\MSVC\14.29.30133\atlmfc\include\cstringt.h

; 2567 : 		return( str1.Compare( psz2 ) != 0 );

  00050	68 00 00 00 00	 push	 OFFSET ??_C@_01IHBHIGKO@?0@
  00055	8b c8		 mov	 ecx, eax
; File D:\git\src\IBK\IBK_DRFN\ProjSrc\SrcChartEx\ChartAddIn\ChartDesignPropertyAddIn\ChartDesignPropertyAddIn\DlgGraphSetting.cpp

; 325  : 	if(_szData.Right(1) != ",")

  00057	c6 45 fc 01	 mov	 BYTE PTR __$EHRec$[ebp+8], 1
; File C:\Program Files (x86)\Microsoft Visual Studio\2019\Community\VC\Tools\MSVC\14.29.30133\atlmfc\include\cstringt.h

; 2567 : 		return( str1.Compare( psz2 ) != 0 );

  0005b	ff 15 00 00 00
	00		 call	 DWORD PTR __imp_?Compare@?$CStringT@DV?$StrTraitMFC_DLL@DV?$ChTraitsCRT@D@ATL@@@@@ATL@@QBEHPBD@Z
; File D:\git\src\IBK\IBK_DRFN\ProjSrc\SrcChartEx\ChartAddIn\ChartDesignPropertyAddIn\ChartDesignPropertyAddIn\DlgGraphSetting.cpp

; 325  : 	if(_szData.Right(1) != ",")

  00061	8d 4d e0	 lea	 ecx, DWORD PTR $T2[ebp]
  00064	c6 45 fc 00	 mov	 BYTE PTR __$EHRec$[ebp+8], 0
; File C:\Program Files (x86)\Microsoft Visual Studio\2019\Community\VC\Tools\MSVC\14.29.30133\atlmfc\include\cstringt.h

; 2567 : 		return( str1.Compare( psz2 ) != 0 );

  00068	8b f0		 mov	 esi, eax
; File D:\git\src\IBK\IBK_DRFN\ProjSrc\SrcChartEx\ChartAddIn\ChartDesignPropertyAddIn\ChartDesignPropertyAddIn\DlgGraphSetting.cpp

; 325  : 	if(_szData.Right(1) != ",")

  0006a	ff 15 00 00 00
	00		 call	 DWORD PTR __imp_??1?$CStringT@DV?$StrTraitMFC_DLL@DV?$ChTraitsCRT@D@ATL@@@@@ATL@@QAE@XZ
  00070	85 f6		 test	 esi, esi
  00072	74 0e		 je	 SHORT $LN8@CheckPacke

; 326  : 		_szData += ",";

  00074	68 00 00 00 00	 push	 OFFSET ??_C@_01IHBHIGKO@?0@
  00079	8d 4d f0	 lea	 ecx, DWORD PTR __szData$[ebp]
  0007c	ff 15 00 00 00
	00		 call	 DWORD PTR __imp_??Y?$CStringT@DV?$StrTraitMFC_DLL@DV?$ChTraitsCRT@D@ATL@@@@@ATL@@QAEAAV01@PBD@Z
$LN8@CheckPacke:

; 327  : 
; 328  : 	CString PacketName = "";

  00082	68 00 00 00 00	 push	 OFFSET ??_C@_00CNPNBAHC@@
  00087	8d 4d e8	 lea	 ecx, DWORD PTR _PacketName$[ebp]
  0008a	ff 15 00 00 00
	00		 call	 DWORD PTR __imp_??0?$CStringT@DV?$StrTraitMFC_DLL@DV?$ChTraitsCRT@D@ATL@@@@@ATL@@QAE@PBD@Z

; 329  : 	m_bIsSelectedPacketData = false;
; 330  : 	int nCount = CDataConversion::GetStringDataCount(_szData, ",");

  00090	68 00 00 00 00	 push	 OFFSET ??_C@_01IHBHIGKO@?0@
  00095	8d 4d ec	 lea	 ecx, DWORD PTR $T5[ebp]
  00098	c6 45 fc 02	 mov	 BYTE PTR __$EHRec$[ebp+8], 2
  0009c	c6 87 8c 02 00
	00 00		 mov	 BYTE PTR [edi+652], 0
  000a3	ff 15 00 00 00
	00		 call	 DWORD PTR __imp_??0?$CStringT@DV?$StrTraitMFC_DLL@DV?$ChTraitsCRT@D@ATL@@@@@ATL@@QAE@PBD@Z
  000a9	8d 45 ec	 lea	 eax, DWORD PTR $T5[ebp]
  000ac	c6 45 fc 03	 mov	 BYTE PTR __$EHRec$[ebp+8], 3
  000b0	50		 push	 eax
  000b1	8d 45 f0	 lea	 eax, DWORD PTR __szData$[ebp]
  000b4	50		 push	 eax
  000b5	e8 00 00 00 00	 call	 ?GetStringDataCount@CDataConversion@@SAHABV?$CStringT@DV?$StrTraitMFC_DLL@DV?$ChTraitsCRT@D@ATL@@@@@ATL@@0@Z ; CDataConversion::GetStringDataCount
  000ba	83 c4 08	 add	 esp, 8
  000bd	c6 45 fc 02	 mov	 BYTE PTR __$EHRec$[ebp+8], 2
  000c1	8b d8		 mov	 ebx, eax
  000c3	8d 4d ec	 lea	 ecx, DWORD PTR $T5[ebp]
  000c6	89 5d e0	 mov	 DWORD PTR _nCount$1$[ebp], ebx
  000c9	ff 15 00 00 00
	00		 call	 DWORD PTR __imp_??1?$CStringT@DV?$StrTraitMFC_DLL@DV?$ChTraitsCRT@D@ATL@@@@@ATL@@QAE@XZ

; 331  : 	for(int i = 0 ; i < nCount ; i++) {

  000cf	85 db		 test	 ebx, ebx
  000d1	0f 8e cb 00 00
	00		 jle	 $LN3@CheckPacke
  000d7	66 0f 1f 84 00
	00 00 00 00	 npad	 9
$LL4@CheckPacke:

; 332  :        CString szItemData = CDataConversion::GetStringData(_szData, ",");

  000e0	68 00 00 00 00	 push	 OFFSET ??_C@_01IHBHIGKO@?0@
  000e5	8d 4d e4	 lea	 ecx, DWORD PTR $T3[ebp]
  000e8	ff 15 00 00 00
	00		 call	 DWORD PTR __imp_??0?$CStringT@DV?$StrTraitMFC_DLL@DV?$ChTraitsCRT@D@ATL@@@@@ATL@@QAE@PBD@Z
  000ee	6a 01		 push	 1
  000f0	8d 45 e4	 lea	 eax, DWORD PTR $T3[ebp]
  000f3	c6 45 fc 04	 mov	 BYTE PTR __$EHRec$[ebp+8], 4
  000f7	50		 push	 eax
  000f8	8d 45 f0	 lea	 eax, DWORD PTR __szData$[ebp]
  000fb	50		 push	 eax
  000fc	8d 45 ec	 lea	 eax, DWORD PTR _szItemData$4[ebp]
  000ff	50		 push	 eax
  00100	e8 00 00 00 00	 call	 ?GetStringData@CDataConversion@@SA?AV?$CStringT@DV?$StrTraitMFC_DLL@DV?$ChTraitsCRT@D@ATL@@@@@ATL@@AAV23@ABV23@_N@Z ; CDataConversion::GetStringData
  00105	83 c4 10	 add	 esp, 16			; 00000010H
  00108	8d 4d e4	 lea	 ecx, DWORD PTR $T3[ebp]
  0010b	c6 45 fc 06	 mov	 BYTE PTR __$EHRec$[ebp+8], 6
  0010f	ff 15 00 00 00
	00		 call	 DWORD PTR __imp_??1?$CStringT@DV?$StrTraitMFC_DLL@DV?$ChTraitsCRT@D@ATL@@@@@ATL@@QAE@XZ

; 333  : 	   szItemData.TrimLeft();

  00115	8d 4d ec	 lea	 ecx, DWORD PTR _szItemData$4[ebp]
  00118	ff 15 00 00 00
	00		 call	 DWORD PTR __imp_?TrimLeft@?$CStringT@DV?$StrTraitMFC_DLL@DV?$ChTraitsCRT@D@ATL@@@@@ATL@@QAEAAV12@XZ

; 334  : 	   for(int j = 0 ; j < m_pPacketComboBox.GetCount(); j++) {

  0011e	33 f6		 xor	 esi, esi
; File C:\Program Files (x86)\Microsoft Visual Studio\2019\Community\VC\Tools\MSVC\14.29.30133\atlmfc\include\afxwin2.inl

; 763  : 	{ ASSERT(::IsWindow(m_hWnd)); return (int)::SendMessage(m_hWnd, CB_GETCOUNT, 0, 0); }

  00120	56		 push	 esi
  00121	56		 push	 esi
  00122	68 46 01 00 00	 push	 326			; 00000146H
  00127	ff b7 48 01 00
	00		 push	 DWORD PTR [edi+328]
  0012d	ff 15 00 00 00
	00		 call	 DWORD PTR __imp__SendMessageA@16
; File D:\git\src\IBK\IBK_DRFN\ProjSrc\SrcChartEx\ChartAddIn\ChartDesignPropertyAddIn\ChartDesignPropertyAddIn\DlgGraphSetting.cpp

; 334  : 	   for(int j = 0 ; j < m_pPacketComboBox.GetCount(); j++) {

  00133	85 c0		 test	 eax, eax
  00135	7e 52		 jle	 SHORT $LN35@CheckPacke
$LL7@CheckPacke:

; 335  : 		  m_pPacketComboBox.GetLBText( j, PacketName);

  00137	8d 45 e8	 lea	 eax, DWORD PTR _PacketName$[ebp]
  0013a	50		 push	 eax
  0013b	56		 push	 esi
  0013c	8d 8f 28 01 00
	00		 lea	 ecx, DWORD PTR [edi+296]
  00142	e8 00 00 00 00	 call	 ?GetLBText@CComboBox@@QBEXHAAV?$CStringT@DV?$StrTraitMFC_DLL@DV?$ChTraitsCRT@D@ATL@@@@@ATL@@@Z ; CComboBox::GetLBText

; 336  : 		  if(PacketName.CompareNoCase(szItemData) == 0) {

  00147	ff 75 ec	 push	 DWORD PTR _szItemData$4[ebp]
  0014a	8d 4d e8	 lea	 ecx, DWORD PTR _PacketName$[ebp]
  0014d	ff 15 00 00 00
	00		 call	 DWORD PTR __imp_?CompareNoCase@?$CStringT@DV?$StrTraitMFC_DLL@DV?$ChTraitsCRT@D@ATL@@@@@ATL@@QBEHPBD@Z
  00153	85 c0		 test	 eax, eax
  00155	75 15		 jne	 SHORT $LN5@CheckPacke

; 337  : 				m_bIsSelectedPacketData = true;
; 338  : 				m_pPacketComboBox.SetCheck( j, TRUE);

  00157	6a 01		 push	 1
  00159	56		 push	 esi
  0015a	8d 8f 28 01 00
	00		 lea	 ecx, DWORD PTR [edi+296]
  00160	c6 87 8c 02 00
	00 01		 mov	 BYTE PTR [edi+652], 1
  00167	e8 00 00 00 00	 call	 ?SetCheck@CCheckComboBox@@QAEHHH@Z ; CCheckComboBox::SetCheck
$LN5@CheckPacke:
; File C:\Program Files (x86)\Microsoft Visual Studio\2019\Community\VC\Tools\MSVC\14.29.30133\atlmfc\include\afxwin2.inl

; 763  : 	{ ASSERT(::IsWindow(m_hWnd)); return (int)::SendMessage(m_hWnd, CB_GETCOUNT, 0, 0); }

  0016c	6a 00		 push	 0
  0016e	6a 00		 push	 0
  00170	68 46 01 00 00	 push	 326			; 00000146H
  00175	ff b7 48 01 00
	00		 push	 DWORD PTR [edi+328]
; File D:\git\src\IBK\IBK_DRFN\ProjSrc\SrcChartEx\ChartAddIn\ChartDesignPropertyAddIn\ChartDesignPropertyAddIn\DlgGraphSetting.cpp

; 334  : 	   for(int j = 0 ; j < m_pPacketComboBox.GetCount(); j++) {

  0017b	46		 inc	 esi
; File C:\Program Files (x86)\Microsoft Visual Studio\2019\Community\VC\Tools\MSVC\14.29.30133\atlmfc\include\afxwin2.inl

; 763  : 	{ ASSERT(::IsWindow(m_hWnd)); return (int)::SendMessage(m_hWnd, CB_GETCOUNT, 0, 0); }

  0017c	ff 15 00 00 00
	00		 call	 DWORD PTR __imp__SendMessageA@16
; File D:\git\src\IBK\IBK_DRFN\ProjSrc\SrcChartEx\ChartAddIn\ChartDesignPropertyAddIn\ChartDesignPropertyAddIn\DlgGraphSetting.cpp

; 334  : 	   for(int j = 0 ; j < m_pPacketComboBox.GetCount(); j++) {

  00182	3b f0		 cmp	 esi, eax
  00184	7c b1		 jl	 SHORT $LL7@CheckPacke
  00186	8b 5d e0	 mov	 ebx, DWORD PTR _nCount$1$[ebp]
$LN35@CheckPacke:

; 339  : 		  }
; 340  : 	   }
; 341  : 	}

  00189	8d 4d ec	 lea	 ecx, DWORD PTR _szItemData$4[ebp]
  0018c	c6 45 fc 02	 mov	 BYTE PTR __$EHRec$[ebp+8], 2
  00190	ff 15 00 00 00
	00		 call	 DWORD PTR __imp_??1?$CStringT@DV?$StrTraitMFC_DLL@DV?$ChTraitsCRT@D@ATL@@@@@ATL@@QAE@XZ
  00196	83 eb 01	 sub	 ebx, 1
  00199	89 5d e0	 mov	 DWORD PTR _nCount$1$[ebp], ebx
  0019c	0f 85 3e ff ff
	ff		 jne	 $LL4@CheckPacke
$LN3@CheckPacke:

; 342  : 
; 343  : 	if(!m_strCheckedPacketItems.GetLength()){

  001a2	8b 87 44 02 00
	00		 mov	 eax, DWORD PTR [edi+580]
  001a8	83 78 f4 00	 cmp	 DWORD PTR [eax-12], 0
  001ac	75 19		 jne	 SHORT $LN10@CheckPacke

; 344  : 		m_pPacketComboBox.SetWindowText("");

  001ae	68 00 00 00 00	 push	 OFFSET ??_C@_00CNPNBAHC@@
  001b3	8d 8f 28 01 00
	00		 lea	 ecx, DWORD PTR [edi+296]
  001b9	e8 00 00 00 00	 call	 ?SetWindowTextA@CWnd@@QAEXPBD@Z ; CWnd::SetWindowTextA

; 345  : 		UpdateData(FALSE);

  001be	6a 00		 push	 0
  001c0	8b cf		 mov	 ecx, edi
  001c2	e8 00 00 00 00	 call	 ?UpdateData@CWnd@@QAEHH@Z ; CWnd::UpdateData
$LN10@CheckPacke:

; 346  : 	}
; 347  : }

  001c7	8d 4d e8	 lea	 ecx, DWORD PTR _PacketName$[ebp]
  001ca	ff 15 00 00 00
	00		 call	 DWORD PTR __imp_??1?$CStringT@DV?$StrTraitMFC_DLL@DV?$ChTraitsCRT@D@ATL@@@@@ATL@@QAE@XZ
  001d0	8d 4d f0	 lea	 ecx, DWORD PTR __szData$[ebp]
  001d3	ff 15 00 00 00
	00		 call	 DWORD PTR __imp_??1?$CStringT@DV?$StrTraitMFC_DLL@DV?$ChTraitsCRT@D@ATL@@@@@ATL@@QAE@XZ
  001d9	8b 4d f4	 mov	 ecx, DWORD PTR __$EHRec$[ebp]
  001dc	64 89 0d 00 00
	00 00		 mov	 DWORD PTR fs:0, ecx
  001e3	59		 pop	 ecx
  001e4	5f		 pop	 edi
  001e5	5e		 pop	 esi
  001e6	5b		 pop	 ebx
  001e7	8b e5		 mov	 esp, ebp
  001e9	5d		 pop	 ebp
  001ea	c3		 ret	 0
_TEXT	ENDS
;	COMDAT text$x
text$x	SEGMENT
__unwindfunclet$?CheckPacketbyCheckedPacketItems@CDlgGraphSetting@@AAEXXZ$0:
  00000	8d 4d f0	 lea	 ecx, DWORD PTR __szData$[ebp]
  00003	ff 25 00 00 00
	00		 jmp	 DWORD PTR __imp_??1?$CStringT@DV?$StrTraitMFC_DLL@DV?$ChTraitsCRT@D@ATL@@@@@ATL@@QAE@XZ
__unwindfunclet$?CheckPacketbyCheckedPacketItems@CDlgGraphSetting@@AAEXXZ$1:
  00009	8d 4d e0	 lea	 ecx, DWORD PTR $T2[ebp]
  0000c	ff 25 00 00 00
	00		 jmp	 DWORD PTR __imp_??1?$CStringT@DV?$StrTraitMFC_DLL@DV?$ChTraitsCRT@D@ATL@@@@@ATL@@QAE@XZ
__unwindfunclet$?CheckPacketbyCheckedPacketItems@CDlgGraphSetting@@AAEXXZ$2:
  00012	8d 4d e8	 lea	 ecx, DWORD PTR _PacketName$[ebp]
  00015	ff 25 00 00 00
	00		 jmp	 DWORD PTR __imp_??1?$CStringT@DV?$StrTraitMFC_DLL@DV?$ChTraitsCRT@D@ATL@@@@@ATL@@QAE@XZ
__unwindfunclet$?CheckPacketbyCheckedPacketItems@CDlgGraphSetting@@AAEXXZ$3:
  0001b	8d 4d ec	 lea	 ecx, DWORD PTR $T5[ebp]
  0001e	ff 25 00 00 00
	00		 jmp	 DWORD PTR __imp_??1?$CStringT@DV?$StrTraitMFC_DLL@DV?$ChTraitsCRT@D@ATL@@@@@ATL@@QAE@XZ
__unwindfunclet$?CheckPacketbyCheckedPacketItems@CDlgGraphSetting@@AAEXXZ$4:
  00024	8d 4d e4	 lea	 ecx, DWORD PTR $T3[ebp]
  00027	ff 25 00 00 00
	00		 jmp	 DWORD PTR __imp_??1?$CStringT@DV?$StrTraitMFC_DLL@DV?$ChTraitsCRT@D@ATL@@@@@ATL@@QAE@XZ
__unwindfunclet$?CheckPacketbyCheckedPacketItems@CDlgGraphSetting@@AAEXXZ$5:
  0002d	8d 4d ec	 lea	 ecx, DWORD PTR _szItemData$4[ebp]
  00030	ff 25 00 00 00
	00		 jmp	 DWORD PTR __imp_??1?$CStringT@DV?$StrTraitMFC_DLL@DV?$ChTraitsCRT@D@ATL@@@@@ATL@@QAE@XZ
  00036	cc		 int	 3
  00037	cc		 int	 3
  00038	cc		 int	 3
  00039	cc		 int	 3
  0003a	cc		 int	 3
__ehhandler$?CheckPacketbyCheckedPacketItems@CDlgGraphSetting@@AAEXXZ:
  0003b	90		 npad	 1
  0003c	90		 npad	 1
  0003d	8b 54 24 08	 mov	 edx, DWORD PTR [esp+8]
  00041	8d 42 0c	 lea	 eax, DWORD PTR [edx+12]
  00044	8b 4a dc	 mov	 ecx, DWORD PTR [edx-36]
  00047	33 c8		 xor	 ecx, eax
  00049	e8 00 00 00 00	 call	 @__security_check_cookie@4
  0004e	b8 00 00 00 00	 mov	 eax, OFFSET __ehfuncinfo$?CheckPacketbyCheckedPacketItems@CDlgGraphSetting@@AAEXXZ
  00053	e9 00 00 00 00	 jmp	 ___CxxFrameHandler3
text$x	ENDS
?CheckPacketbyCheckedPacketItems@CDlgGraphSetting@@AAEXXZ ENDP ; CDlgGraphSetting::CheckPacketbyCheckedPacketItems
; Function compile flags: /Ogtp
; File D:\git\src\IBK\IBK_DRFN\ProjSrc\SrcChartEx\ChartAddIn\ChartDesignPropertyAddIn\ChartDesignPropertyAddIn\DlgGraphSetting.cpp
; File C:\Program Files (x86)\Microsoft Visual Studio\2019\Community\VC\Tools\MSVC\14.29.30133\atlmfc\include\cstringt.h
; File C:\Program Files (x86)\Microsoft Visual Studio\2019\Community\VC\Tools\MSVC\14.29.30133\atlmfc\include\atlsimpstr.h
; File C:\Program Files (x86)\Microsoft Visual Studio\2019\Community\VC\Tools\MSVC\14.29.30133\atlmfc\include\cstringt.h
; File D:\git\src\IBK\IBK_DRFN\ProjSrc\SrcChartEx\ChartAddIn\ChartDesignPropertyAddIn\ChartDesignPropertyAddIn\DlgGraphSetting.cpp
; File C:\Program Files (x86)\Microsoft Visual Studio\2019\Community\VC\Tools\MSVC\14.29.30133\atlmfc\include\atlsimpstr.h
; File D:\git\src\IBK\IBK_DRFN\ProjSrc\SrcChartEx\ChartAddIn\ChartDesignPropertyAddIn\ChartDesignPropertyAddIn\DlgGraphSetting.cpp
; File C:\Program Files (x86)\Microsoft Visual Studio\2019\Community\VC\Tools\MSVC\14.29.30133\atlmfc\include\atltypes.h
; File D:\git\src\IBK\IBK_DRFN\ProjSrc\SrcChartEx\ChartAddIn\ChartDesignPropertyAddIn\ChartDesignPropertyAddIn\DlgGraphSetting.cpp
; File C:\Program Files (x86)\Microsoft Visual Studio\2019\Community\VC\Tools\MSVC\14.29.30133\atlmfc\include\afxwin2.inl
; File D:\git\src\IBK\IBK_DRFN\ProjSrc\SrcChartEx\ChartAddIn\ChartDesignPropertyAddIn\ChartDesignPropertyAddIn\DlgGraphSetting.cpp
; File C:\Program Files (x86)\Microsoft Visual Studio\2019\Community\VC\Tools\MSVC\14.29.30133\atlmfc\include\atltypes.h
; File D:\git\src\IBK\IBK_DRFN\ProjSrc\SrcChartEx\ChartAddIn\ChartDesignPropertyAddIn\ChartDesignPropertyAddIn\DlgGraphSetting.cpp
; File C:\Program Files (x86)\Microsoft Visual Studio\2019\Community\VC\Tools\MSVC\14.29.30133\atlmfc\include\afxwin2.inl
; File D:\git\src\IBK\IBK_DRFN\ProjSrc\SrcChartEx\ChartAddIn\ChartDesignPropertyAddIn\ChartDesignPropertyAddIn\DlgGraphSetting.cpp
; File C:\Program Files (x86)\Microsoft Visual Studio\2019\Community\VC\Tools\MSVC\14.29.30133\atlmfc\include\afxwin1.inl
; File D:\git\src\IBK\IBK_DRFN\ProjSrc\SrcChartEx\ChartAddIn\ChartDesignPropertyAddIn\Include_Chart\Dll_Load\IMetaTable.h
; File C:\Program Files (x86)\Microsoft Visual Studio\2019\Community\VC\Tools\MSVC\14.29.30133\atlmfc\include\afxwin1.inl
; File D:\git\src\IBK\IBK_DRFN\ProjSrc\SrcChartEx\ChartAddIn\ChartDesignPropertyAddIn\ChartDesignPropertyAddIn\DlgGraphSetting.cpp
; File D:\git\src\IBK\IBK_DRFN\ProjSrc\SrcChartEx\ChartAddIn\ChartDesignPropertyAddIn\Include_Chart\Dll_Load\IMetaTable.h
; File C:\Program Files (x86)\Microsoft Visual Studio\2019\Community\VC\Tools\MSVC\14.29.30133\atlmfc\include\afxwin1.inl
; File D:\git\src\IBK\IBK_DRFN\ProjSrc\SrcChartEx\ChartAddIn\ChartDesignPropertyAddIn\ChartDesignPropertyAddIn\DlgGraphSetting.cpp
;	COMDAT ?SetSubGraphDlgOnGraphSettingDlg@CDlgGraphSetting@@AAEXXZ
_TEXT	SEGMENT
___mlrs__$ = -60					; size = 4
$T2 = -56						; size = 4
$T3 = -52						; size = 4
_rect$ = -48						; size = 16
_buttonrect$ = -32					; size = 16
__$ArrayPad$ = -16					; size = 4
__$EHRec$ = -12						; size = 12
?SetSubGraphDlgOnGraphSettingDlg@CDlgGraphSetting@@AAEXXZ PROC ; CDlgGraphSetting::SetSubGraphDlgOnGraphSettingDlg, COMDAT
; _this$ = ecx

; 600  : {

  00000	55		 push	 ebp
  00001	8b ec		 mov	 ebp, esp
  00003	6a ff		 push	 -1
  00005	68 00 00 00 00	 push	 __ehhandler$?SetSubGraphDlgOnGraphSettingDlg@CDlgGraphSetting@@AAEXXZ
  0000a	64 a1 00 00 00
	00		 mov	 eax, DWORD PTR fs:0
  00010	50		 push	 eax
  00011	83 ec 30	 sub	 esp, 48			; 00000030H
  00014	a1 00 00 00 00	 mov	 eax, DWORD PTR ___security_cookie
  00019	33 c5		 xor	 eax, ebp
  0001b	89 45 f0	 mov	 DWORD PTR __$ArrayPad$[ebp], eax
  0001e	53		 push	 ebx
  0001f	56		 push	 esi
  00020	57		 push	 edi
  00021	50		 push	 eax
  00022	8d 45 f4	 lea	 eax, DWORD PTR __$EHRec$[ebp]
  00025	64 a3 00 00 00
	00		 mov	 DWORD PTR fs:0, eax
  0002b	8b d9		 mov	 ebx, ecx
; File C:\Program Files (x86)\Microsoft Visual Studio\2019\Community\VC\Tools\MSVC\14.29.30133\atlmfc\include\cstringt.h

; 2560 : 		return( str1.Compare( str2 ) != 0 );

  0002d	ff b3 40 02 00
	00		 push	 DWORD PTR [ebx+576]
; File C:\Program Files (x86)\Microsoft Visual Studio\2019\Community\VC\Tools\MSVC\14.29.30133\atlmfc\include\atlsimpstr.h

; 377  : 		return( m_pszData );

  00033	8d b3 40 02 00
	00		 lea	 esi, DWORD PTR [ebx+576]
; File C:\Program Files (x86)\Microsoft Visual Studio\2019\Community\VC\Tools\MSVC\14.29.30133\atlmfc\include\cstringt.h

; 2560 : 		return( str1.Compare( str2 ) != 0 );

  00039	8d 8b 80 02 00
	00		 lea	 ecx, DWORD PTR [ebx+640]
  0003f	ff 15 00 00 00
	00		 call	 DWORD PTR __imp_?Compare@?$CStringT@DV?$StrTraitMFC_DLL@DV?$ChTraitsCRT@D@ATL@@@@@ATL@@QBEHPBD@Z
  00045	85 c0		 test	 eax, eax
; File D:\git\src\IBK\IBK_DRFN\ProjSrc\SrcChartEx\ChartAddIn\ChartDesignPropertyAddIn\ChartDesignPropertyAddIn\DlgGraphSetting.cpp

; 601  : 	if(m_strOldIndicatorName != m_strIndicatorName)

  00047	74 11		 je	 SHORT $LN2@SetSubGrap

; 602  : 		m_strSubGraphDatas = "";

  00049	68 00 00 00 00	 push	 OFFSET ??_C@_00CNPNBAHC@@
  0004e	8d 8b 78 02 00
	00		 lea	 ecx, DWORD PTR [ebx+632]
  00054	ff 15 00 00 00
	00		 call	 DWORD PTR __imp_??4?$CStringT@DV?$StrTraitMFC_DLL@DV?$ChTraitsCRT@D@ATL@@@@@ATL@@QAEAAV01@PBD@Z
$LN2@SetSubGrap:

; 603  : 	m_strOldIndicatorName = m_strIndicatorName;

  0005a	56		 push	 esi
  0005b	8d 8b 80 02 00
	00		 lea	 ecx, DWORD PTR [ebx+640]
  00061	ff 15 00 00 00
	00		 call	 DWORD PTR __imp_??4?$CStringT@DV?$StrTraitMFC_DLL@DV?$ChTraitsCRT@D@ATL@@@@@ATL@@QAEAAV01@ABV01@@Z
; File C:\Program Files (x86)\Microsoft Visual Studio\2019\Community\VC\Tools\MSVC\14.29.30133\atlmfc\include\atlsimpstr.h

; 519  : 		return( GetData()->nDataLength );

  00067	8b 83 78 02 00
	00		 mov	 eax, DWORD PTR [ebx+632]

; 533  : 		return( GetLength() == 0 );

  0006d	83 78 f4 00	 cmp	 DWORD PTR [eax-12], 0
; File D:\git\src\IBK\IBK_DRFN\ProjSrc\SrcChartEx\ChartAddIn\ChartDesignPropertyAddIn\ChartDesignPropertyAddIn\DlgGraphSetting.cpp

; 605  : 	if(m_strSubGraphDatas.IsEmpty())

  00071	75 4f		 jne	 SHORT $LN18@SetSubGrap

; 620  : 	if( m_pIGraphInfoManager == NULL) return;

  00073	83 bb 84 03 00
	00 00		 cmp	 DWORD PTR [ebx+900], 0
  0007a	74 46		 je	 SHORT $LN18@SetSubGrap

; 621  : 	
; 622  : 	// (2006/11/23 - Seung-Won, Bae) Use User Indicator Info in Design Time.
; 623  : 	IGraphInfo * pIGraphInfo = m_pIGraphInfoManager->GetGraphInfo( IGraphInfoManager::IEILT_USER, _LTOM2( m_strIndicatorName), IGraphInfoManager::IEIIGT_WITH_DEFAULT_GET_AND_SET);

  0007c	8b b3 84 03 00
	00		 mov	 esi, DWORD PTR [ebx+900]
  00082	b9 00 00 00 00	 mov	 ecx, OFFSET ?g_iMetaTable@@3VIMetaTable@@A ; g_iMetaTable
  00087	6a 02		 push	 2
  00089	6a 00		 push	 0
  0008b	ff b3 40 02 00
	00		 push	 DWORD PTR [ebx+576]
  00091	8b 3e		 mov	 edi, DWORD PTR [esi]
  00093	6a 02		 push	 2
  00095	ff b3 88 03 00
	00		 push	 DWORD PTR [ebx+904]
  0009b	e8 00 00 00 00	 call	 ?GetMetaText@IMetaTable@@QAEPBDPAUHWND__@@W4E_CODEPAGE@1@PBDH@Z ; IMetaTable::GetMetaText
  000a0	50		 push	 eax
  000a1	6a 03		 push	 3
  000a3	8b ce		 mov	 ecx, esi
  000a5	ff 57 14	 call	 DWORD PTR [edi+20]
  000a8	8b f0		 mov	 esi, eax

; 624  : 	if( pIGraphInfo == NULL) return;

  000aa	85 f6		 test	 esi, esi
  000ac	74 14		 je	 SHORT $LN18@SetSubGrap

; 625  : 	pIGraphInfo->GetAllSubGraphDataForMaking( m_strSubGraphDatas);

  000ae	8b 16		 mov	 edx, DWORD PTR [esi]
  000b0	8d 83 78 02 00
	00		 lea	 eax, DWORD PTR [ebx+632]
  000b6	50		 push	 eax
  000b7	8b ce		 mov	 ecx, esi
  000b9	ff 52 38	 call	 DWORD PTR [edx+56]

; 626  : 	pIGraphInfo->Release();

  000bc	8b 0e		 mov	 ecx, DWORD PTR [esi]
  000be	56		 push	 esi
  000bf	ff 51 08	 call	 DWORD PTR [ecx+8]
$LN18@SetSubGrap:
  000c2	0f 57 c0	 xorps	 xmm0, xmm0

; 609  :     (GetDlgItem(IDC_SUBFORM_FRAME))->GetWindowRect( &rect); // get the position for the subforms

  000c5	8b cb		 mov	 ecx, ebx
  000c7	68 b4 1b 00 00	 push	 7092			; 00001bb4H
; File C:\Program Files (x86)\Microsoft Visual Studio\2019\Community\VC\Tools\MSVC\14.29.30133\atlmfc\include\atltypes.h

; 528  : 	left = 0;

  000cc	0f 11 45 d0	 movups	 XMMWORD PTR _rect$[ebp], xmm0
; File D:\git\src\IBK\IBK_DRFN\ProjSrc\SrcChartEx\ChartAddIn\ChartDesignPropertyAddIn\ChartDesignPropertyAddIn\DlgGraphSetting.cpp

; 609  :     (GetDlgItem(IDC_SUBFORM_FRAME))->GetWindowRect( &rect); // get the position for the subforms

  000d0	e8 00 00 00 00	 call	 ?GetDlgItem@CWnd@@QBEPAV1@H@Z ; CWnd::GetDlgItem
; File C:\Program Files (x86)\Microsoft Visual Studio\2019\Community\VC\Tools\MSVC\14.29.30133\atlmfc\include\afxwin2.inl

; 84   : 	{ ASSERT(::IsWindow(m_hWnd)); ::GetWindowRect(m_hWnd, lpRect); }

  000d5	8b 35 00 00 00
	00		 mov	 esi, DWORD PTR __imp__GetWindowRect@8
  000db	8d 4d d0	 lea	 ecx, DWORD PTR _rect$[ebp]
  000de	51		 push	 ecx
  000df	ff 70 20	 push	 DWORD PTR [eax+32]
  000e2	ff d6		 call	 esi
  000e4	0f 57 c0	 xorps	 xmm0, xmm0
; File D:\git\src\IBK\IBK_DRFN\ProjSrc\SrcChartEx\ChartAddIn\ChartDesignPropertyAddIn\ChartDesignPropertyAddIn\DlgGraphSetting.cpp

; 611  :     (GetDlgItem(IDC_BUTTON_FRAME))->GetWindowRect(&buttonrect); // get the position for the subforms

  000e7	8b cb		 mov	 ecx, ebx
  000e9	68 b5 1b 00 00	 push	 7093			; 00001bb5H
; File C:\Program Files (x86)\Microsoft Visual Studio\2019\Community\VC\Tools\MSVC\14.29.30133\atlmfc\include\atltypes.h

; 528  : 	left = 0;

  000ee	0f 11 45 e0	 movups	 XMMWORD PTR _buttonrect$[ebp], xmm0
; File D:\git\src\IBK\IBK_DRFN\ProjSrc\SrcChartEx\ChartAddIn\ChartDesignPropertyAddIn\ChartDesignPropertyAddIn\DlgGraphSetting.cpp

; 611  :     (GetDlgItem(IDC_BUTTON_FRAME))->GetWindowRect(&buttonrect); // get the position for the subforms

  000f2	e8 00 00 00 00	 call	 ?GetDlgItem@CWnd@@QBEPAV1@H@Z ; CWnd::GetDlgItem
; File C:\Program Files (x86)\Microsoft Visual Studio\2019\Community\VC\Tools\MSVC\14.29.30133\atlmfc\include\afxwin2.inl

; 84   : 	{ ASSERT(::IsWindow(m_hWnd)); ::GetWindowRect(m_hWnd, lpRect); }

  000f7	8d 4d e0	 lea	 ecx, DWORD PTR _buttonrect$[ebp]
  000fa	51		 push	 ecx
  000fb	ff 70 20	 push	 DWORD PTR [eax+32]
  000fe	ff d6		 call	 esi
; File D:\git\src\IBK\IBK_DRFN\ProjSrc\SrcChartEx\ChartAddIn\ChartDesignPropertyAddIn\ChartDesignPropertyAddIn\DlgGraphSetting.cpp

; 612  : 	ScreenToClient( buttonrect);

  00100	8d 45 e0	 lea	 eax, DWORD PTR _buttonrect$[ebp]
  00103	8b cb		 mov	 ecx, ebx
  00105	50		 push	 eax
  00106	e8 00 00 00 00	 call	 ?ScreenToClient@CWnd@@QBEXPAUtagRECT@@@Z ; CWnd::ScreenToClient

; 613  : 	ML_SET_LANGUAGE_RES();

  0010b	e8 00 00 00 00	 call	 ?AfxGetStaticModuleState@@YGPAVAFX_MODULE_STATE@@XZ ; AfxGetStaticModuleState
  00110	b9 00 00 00 00	 mov	 ecx, OFFSET ?g_iMetaTable@@3VIMetaTable@@A ; g_iMetaTable
  00115	8b 40 08	 mov	 eax, DWORD PTR [eax+8]
  00118	50		 push	 eax
  00119	ff b3 88 03 00
	00		 push	 DWORD PTR [ebx+904]
  0011f	e8 00 00 00 00	 call	 ?LoadResourceDLL@IMetaTable@@QAEPAUHINSTANCE__@@PAUHWND__@@PAU2@@Z ; IMetaTable::LoadResourceDLL
  00124	8b f8		 mov	 edi, eax
; File C:\Program Files (x86)\Microsoft Visual Studio\2019\Community\VC\Tools\MSVC\14.29.30133\atlmfc\include\afxwin1.inl

; 25   : 		return afxCurrentResourceHandle; }

  00126	e8 00 00 00 00	 call	 ?AfxGetModuleState@@YGPAVAFX_MODULE_STATE@@XZ ; AfxGetModuleState
; File D:\git\src\IBK\IBK_DRFN\ProjSrc\SrcChartEx\ChartAddIn\ChartDesignPropertyAddIn\Include_Chart\Dll_Load\IMetaTable.h

; 1032 : 		m_hInstance = AfxGetResourceHandle();

  0012b	8b 70 0c	 mov	 esi, DWORD PTR [eax+12]
  0012e	89 75 c4	 mov	 DWORD PTR ___mlrs__$[ebp], esi
; File C:\Program Files (x86)\Microsoft Visual Studio\2019\Community\VC\Tools\MSVC\14.29.30133\atlmfc\include\afxwin1.inl

; 27   : 	{ ASSERT(hInstResource != NULL); afxCurrentResourceHandle = hInstResource; }

  00131	e8 00 00 00 00	 call	 ?AfxGetModuleState@@YGPAVAFX_MODULE_STATE@@XZ ; AfxGetModuleState
  00136	89 78 0c	 mov	 DWORD PTR [eax+12], edi
; File D:\git\src\IBK\IBK_DRFN\ProjSrc\SrcChartEx\ChartAddIn\ChartDesignPropertyAddIn\ChartDesignPropertyAddIn\DlgGraphSetting.cpp

; 614  : 	m_GraphColorCollection->CreateSubGraphSettingDialogandButton( rect, buttonrect, _LTOM5( m_strIndicatorType), _LTOM2( m_strIndicatorName), m_strSubGraphDatas, m_pLineColor, m_pIGraphInfoManager, IDD_DIALOG_SUBGRAPHSETTING, (CWnd* )this);

  00139	6a 00		 push	 0
  0013b	ff b3 40 02 00
	00		 push	 DWORD PTR [ebx+576]
  00141	b9 00 00 00 00	 mov	 ecx, OFFSET ?g_iMetaTable@@3VIMetaTable@@A ; g_iMetaTable
  00146	c7 45 fc 00 00
	00 00		 mov	 DWORD PTR __$EHRec$[ebp+8], 0
  0014d	6a 02		 push	 2
  0014f	ff b3 88 03 00
	00		 push	 DWORD PTR [ebx+904]
  00155	e8 00 00 00 00	 call	 ?GetMetaText@IMetaTable@@QAEPBDPAUHWND__@@W4E_CODEPAGE@1@PBDH@Z ; IMetaTable::GetMetaText
  0015a	50		 push	 eax
  0015b	8d 4d c8	 lea	 ecx, DWORD PTR $T2[ebp]
  0015e	ff 15 00 00 00
	00		 call	 DWORD PTR __imp_??0?$CStringT@DV?$StrTraitMFC_DLL@DV?$ChTraitsCRT@D@ATL@@@@@ATL@@QAE@PBD@Z
  00164	6a 00		 push	 0
  00166	ff b3 74 02 00
	00		 push	 DWORD PTR [ebx+628]
  0016c	b9 00 00 00 00	 mov	 ecx, OFFSET ?g_iMetaTable@@3VIMetaTable@@A ; g_iMetaTable
  00171	c6 45 fc 01	 mov	 BYTE PTR __$EHRec$[ebp+8], 1
  00175	6a 05		 push	 5
  00177	ff b3 88 03 00
	00		 push	 DWORD PTR [ebx+904]
  0017d	e8 00 00 00 00	 call	 ?GetMetaText@IMetaTable@@QAEPBDPAUHWND__@@W4E_CODEPAGE@1@PBDH@Z ; IMetaTable::GetMetaText
  00182	50		 push	 eax
  00183	8d 4d cc	 lea	 ecx, DWORD PTR $T3[ebp]
  00186	ff 15 00 00 00
	00		 call	 DWORD PTR __imp_??0?$CStringT@DV?$StrTraitMFC_DLL@DV?$ChTraitsCRT@D@ATL@@@@@ATL@@QAE@PBD@Z
  0018c	8b 8b 90 02 00
	00		 mov	 ecx, DWORD PTR [ebx+656]
  00192	8d 83 78 02 00
	00		 lea	 eax, DWORD PTR [ebx+632]
  00198	53		 push	 ebx
  00199	68 7b 1b 00 00	 push	 7035			; 00001b7bH
  0019e	ff b3 84 03 00
	00		 push	 DWORD PTR [ebx+900]
  001a4	c6 45 fc 02	 mov	 BYTE PTR __$EHRec$[ebp+8], 2
  001a8	ff b3 70 02 00
	00		 push	 DWORD PTR [ebx+624]
  001ae	50		 push	 eax
  001af	8d 45 c8	 lea	 eax, DWORD PTR $T2[ebp]
  001b2	50		 push	 eax
  001b3	8d 45 cc	 lea	 eax, DWORD PTR $T3[ebp]
  001b6	50		 push	 eax
  001b7	8d 45 e0	 lea	 eax, DWORD PTR _buttonrect$[ebp]
  001ba	50		 push	 eax
  001bb	8d 45 d0	 lea	 eax, DWORD PTR _rect$[ebp]
  001be	50		 push	 eax
  001bf	e8 00 00 00 00	 call	 ?CreateSubGraphSettingDialogandButton@CGraphColorCollection@@QAEXAAVCRect@@0ABV?$CStringT@DV?$StrTraitMFC_DLL@DV?$ChTraitsCRT@D@ATL@@@@@ATL@@11PAVCLineColor@@PAUIGraphInfoManager134661@@HPAVCWnd@@@Z ; CGraphColorCollection::CreateSubGraphSettingDialogandButton
  001c4	8d 4d cc	 lea	 ecx, DWORD PTR $T3[ebp]
  001c7	ff 15 00 00 00
	00		 call	 DWORD PTR __imp_??1?$CStringT@DV?$StrTraitMFC_DLL@DV?$ChTraitsCRT@D@ATL@@@@@ATL@@QAE@XZ
  001cd	8d 4d c8	 lea	 ecx, DWORD PTR $T2[ebp]
  001d0	ff 15 00 00 00
	00		 call	 DWORD PTR __imp_??1?$CStringT@DV?$StrTraitMFC_DLL@DV?$ChTraitsCRT@D@ATL@@@@@ATL@@QAE@XZ
; File D:\git\src\IBK\IBK_DRFN\ProjSrc\SrcChartEx\ChartAddIn\ChartDesignPropertyAddIn\Include_Chart\Dll_Load\IMetaTable.h

; 1036 : 	{

  001d6	c7 45 fc 03 00
	00 00		 mov	 DWORD PTR __$EHRec$[ebp+8], 3
; File C:\Program Files (x86)\Microsoft Visual Studio\2019\Community\VC\Tools\MSVC\14.29.30133\atlmfc\include\afxwin1.inl

; 27   : 	{ ASSERT(hInstResource != NULL); afxCurrentResourceHandle = hInstResource; }

  001dd	e8 00 00 00 00	 call	 ?AfxGetModuleState@@YGPAVAFX_MODULE_STATE@@XZ ; AfxGetModuleState
  001e2	89 70 0c	 mov	 DWORD PTR [eax+12], esi
; File D:\git\src\IBK\IBK_DRFN\ProjSrc\SrcChartEx\ChartAddIn\ChartDesignPropertyAddIn\ChartDesignPropertyAddIn\DlgGraphSetting.cpp

; 615  : }

  001e5	8b 4d f4	 mov	 ecx, DWORD PTR __$EHRec$[ebp]
  001e8	64 89 0d 00 00
	00 00		 mov	 DWORD PTR fs:0, ecx
  001ef	59		 pop	 ecx
  001f0	5f		 pop	 edi
  001f1	5e		 pop	 esi
  001f2	5b		 pop	 ebx
  001f3	8b 4d f0	 mov	 ecx, DWORD PTR __$ArrayPad$[ebp]
  001f6	33 cd		 xor	 ecx, ebp
  001f8	e8 00 00 00 00	 call	 @__security_check_cookie@4
  001fd	8b e5		 mov	 esp, ebp
  001ff	5d		 pop	 ebp
  00200	c3		 ret	 0
_TEXT	ENDS
;	COMDAT text$x
text$x	SEGMENT
__unwindfunclet$?SetSubGraphDlgOnGraphSettingDlg@CDlgGraphSetting@@AAEXXZ$0:
  00000	8d 4d c4	 lea	 ecx, DWORD PTR ___mlrs__$[ebp]
  00003	e9 00 00 00 00	 jmp	 ??1CMultiLanguageResourceSetter@@QAE@XZ ; CMultiLanguageResourceSetter::~CMultiLanguageResourceSetter
__unwindfunclet$?SetSubGraphDlgOnGraphSettingDlg@CDlgGraphSetting@@AAEXXZ$1:
  00008	8d 4d c8	 lea	 ecx, DWORD PTR $T2[ebp]
  0000b	ff 25 00 00 00
	00		 jmp	 DWORD PTR __imp_??1?$CStringT@DV?$StrTraitMFC_DLL@DV?$ChTraitsCRT@D@ATL@@@@@ATL@@QAE@XZ
__unwindfunclet$?SetSubGraphDlgOnGraphSettingDlg@CDlgGraphSetting@@AAEXXZ$2:
  00011	8d 4d cc	 lea	 ecx, DWORD PTR $T3[ebp]
  00014	ff 25 00 00 00
	00		 jmp	 DWORD PTR __imp_??1?$CStringT@DV?$StrTraitMFC_DLL@DV?$ChTraitsCRT@D@ATL@@@@@ATL@@QAE@XZ
  0001a	cc		 int	 3
  0001b	cc		 int	 3
  0001c	cc		 int	 3
  0001d	cc		 int	 3
  0001e	cc		 int	 3
__ehhandler$?SetSubGraphDlgOnGraphSettingDlg@CDlgGraphSetting@@AAEXXZ:
  0001f	90		 npad	 1
  00020	90		 npad	 1
  00021	8b 54 24 08	 mov	 edx, DWORD PTR [esp+8]
  00025	8d 42 0c	 lea	 eax, DWORD PTR [edx+12]
  00028	8b 4a c0	 mov	 ecx, DWORD PTR [edx-64]
  0002b	33 c8		 xor	 ecx, eax
  0002d	e8 00 00 00 00	 call	 @__security_check_cookie@4
  00032	8b 4a fc	 mov	 ecx, DWORD PTR [edx-4]
  00035	33 c8		 xor	 ecx, eax
  00037	e8 00 00 00 00	 call	 @__security_check_cookie@4
  0003c	b8 00 00 00 00	 mov	 eax, OFFSET __ehfuncinfo$?SetSubGraphDlgOnGraphSettingDlg@CDlgGraphSetting@@AAEXXZ
  00041	e9 00 00 00 00	 jmp	 ___CxxFrameHandler3
text$x	ENDS
?SetSubGraphDlgOnGraphSettingDlg@CDlgGraphSetting@@AAEXXZ ENDP ; CDlgGraphSetting::SetSubGraphDlgOnGraphSettingDlg
; Function compile flags: /Ogtp
; File D:\git\src\IBK\IBK_DRFN\ProjSrc\SrcChartEx\ChartAddIn\ChartDesignPropertyAddIn\ChartDesignPropertyAddIn\DlgGraphSetting.cpp
;	COMDAT ?SetRadioDisableWindow@CDlgGraphSetting@@AAEXH@Z
_TEXT	SEGMENT
_bCheck$ = 8						; size = 4
?SetRadioDisableWindow@CDlgGraphSetting@@AAEXH@Z PROC	; CDlgGraphSetting::SetRadioDisableWindow, COMDAT
; _this$ = ecx

; 440  : {

  00000	55		 push	 ebp
  00001	8b ec		 mov	 ebp, esp
  00003	56		 push	 esi
  00004	57		 push	 edi

; 374  : 	CButton* pButton = (CButton*) GetDlgItem(nRadioButton);

  00005	68 74 1b 00 00	 push	 7028			; 00001b74H

; 440  : {

  0000a	8b f9		 mov	 edi, ecx

; 374  : 	CButton* pButton = (CButton*) GetDlgItem(nRadioButton);

  0000c	e8 00 00 00 00	 call	 ?GetDlgItem@CWnd@@QBEPAV1@H@Z ; CWnd::GetDlgItem

; 375  : 	pButton->EnableWindow(bCheck);

  00011	8b 75 08	 mov	 esi, DWORD PTR _bCheck$[ebp]
  00014	8b c8		 mov	 ecx, eax
  00016	56		 push	 esi
  00017	e8 00 00 00 00	 call	 ?EnableWindow@CWnd@@QAEHH@Z ; CWnd::EnableWindow

; 374  : 	CButton* pButton = (CButton*) GetDlgItem(nRadioButton);

  0001c	68 b8 1b 00 00	 push	 7096			; 00001bb8H
  00021	8b cf		 mov	 ecx, edi
  00023	e8 00 00 00 00	 call	 ?GetDlgItem@CWnd@@QBEPAV1@H@Z ; CWnd::GetDlgItem

; 375  : 	pButton->EnableWindow(bCheck);

  00028	56		 push	 esi
  00029	8b c8		 mov	 ecx, eax
  0002b	e8 00 00 00 00	 call	 ?EnableWindow@CWnd@@QAEHH@Z ; CWnd::EnableWindow

; 374  : 	CButton* pButton = (CButton*) GetDlgItem(nRadioButton);

  00030	68 b9 1b 00 00	 push	 7097			; 00001bb9H
  00035	8b cf		 mov	 ecx, edi
  00037	e8 00 00 00 00	 call	 ?GetDlgItem@CWnd@@QBEPAV1@H@Z ; CWnd::GetDlgItem

; 375  : 	pButton->EnableWindow(bCheck);

  0003c	56		 push	 esi
  0003d	8b c8		 mov	 ecx, eax
  0003f	e8 00 00 00 00	 call	 ?EnableWindow@CWnd@@QAEHH@Z ; CWnd::EnableWindow

; 374  : 	CButton* pButton = (CButton*) GetDlgItem(nRadioButton);

  00044	68 1b 27 00 00	 push	 10011			; 0000271bH
  00049	8b cf		 mov	 ecx, edi
  0004b	e8 00 00 00 00	 call	 ?GetDlgItem@CWnd@@QBEPAV1@H@Z ; CWnd::GetDlgItem

; 375  : 	pButton->EnableWindow(bCheck);

  00050	56		 push	 esi
  00051	8b c8		 mov	 ecx, eax
  00053	e8 00 00 00 00	 call	 ?EnableWindow@CWnd@@QAEHH@Z ; CWnd::EnableWindow
  00058	5f		 pop	 edi
  00059	5e		 pop	 esi

; 441  : 	SetDisableWindow(IDC_SCALEPOS, bCheck);
; 442  : 	SetDisableWindow(IDC_RADIO_RIGHT, bCheck);
; 443  : 	SetDisableWindow(IDC_RADIO_LEFT, bCheck);
; 444  : 	SetDisableWindow(IDC_RADIO_NOSCALE, bCheck);
; 445  : }

  0005a	5d		 pop	 ebp
  0005b	c2 04 00	 ret	 4
?SetRadioDisableWindow@CDlgGraphSetting@@AAEXH@Z ENDP	; CDlgGraphSetting::SetRadioDisableWindow
_TEXT	ENDS
; Function compile flags: /Ogtp
; File D:\git\src\IBK\IBK_DRFN\ProjSrc\SrcChartEx\ChartAddIn\ChartDesignPropertyAddIn\ChartDesignPropertyAddIn\DlgGraphSetting.cpp
;	COMDAT ?SetDisableWindow@CDlgGraphSetting@@AAEXIH@Z
_TEXT	SEGMENT
_nRadioButton$ = 8					; size = 4
_bCheck$ = 12						; size = 4
?SetDisableWindow@CDlgGraphSetting@@AAEXIH@Z PROC	; CDlgGraphSetting::SetDisableWindow, COMDAT
; _this$ = ecx

; 373  : {

  00000	55		 push	 ebp
  00001	8b ec		 mov	 ebp, esp

; 374  : 	CButton* pButton = (CButton*) GetDlgItem(nRadioButton);

  00003	ff 75 08	 push	 DWORD PTR _nRadioButton$[ebp]
  00006	e8 00 00 00 00	 call	 ?GetDlgItem@CWnd@@QBEPAV1@H@Z ; CWnd::GetDlgItem

; 375  : 	pButton->EnableWindow(bCheck);

  0000b	ff 75 0c	 push	 DWORD PTR _bCheck$[ebp]
  0000e	8b c8		 mov	 ecx, eax
  00010	e8 00 00 00 00	 call	 ?EnableWindow@CWnd@@QAEHH@Z ; CWnd::EnableWindow

; 376  : /*
; 377  : 	if(m_strIndicatorFunction.GetLength()) 
; 378  : 		m_pPacketComboBox.EnableWindow(FALSE);
; 379  : 
; 380  : 	bool bState = m_pPacketComboBox.GetCurState();	
; 381  : 	if(bState) 
; 382  : 		m_IndicatorFuctionComboBox.EnableWindow(FALSE);
; 383  : 	else if(!bState)
; 384  : 		m_IndicatorFuctionComboBox.EnableWindow(TRUE);*/
; 385  : }

  00015	5d		 pop	 ebp
  00016	c2 08 00	 ret	 8
?SetDisableWindow@CDlgGraphSetting@@AAEXIH@Z ENDP	; CDlgGraphSetting::SetDisableWindow
_TEXT	ENDS
; Function compile flags: /Ogtp
; File D:\git\src\IBK\IBK_DRFN\ProjSrc\SrcChartEx\ChartAddIn\ChartDesignPropertyAddIn\ChartDesignPropertyAddIn\DlgGraphSetting.cpp
; File C:\Program Files (x86)\Microsoft Visual Studio\2019\Community\VC\Tools\MSVC\14.29.30133\atlmfc\include\afxtempl.h
; File D:\git\src\IBK\IBK_DRFN\ProjSrc\SrcChartEx\ChartAddIn\ChartDesignPropertyAddIn\ChartDesignPropertyAddIn\DlgGraphSetting.cpp
; File C:\Program Files (x86)\Microsoft Visual Studio\2019\Community\VC\Tools\MSVC\14.29.30133\atlmfc\include\afxtempl.h
; File D:\git\src\IBK\IBK_DRFN\ProjSrc\SrcChartEx\ChartAddIn\ChartDesignPropertyAddIn\ChartDesignPropertyAddIn\DlgGraphSetting.cpp
; File C:\Program Files (x86)\Microsoft Visual Studio\2019\Community\VC\Tools\MSVC\14.29.30133\atlmfc\include\afxtempl.h
; File D:\git\src\IBK\IBK_DRFN\ProjSrc\SrcChartEx\ChartAddIn\ChartDesignPropertyAddIn\ChartDesignPropertyAddIn\DlgGraphSetting.cpp
; File C:\Program Files (x86)\Microsoft Visual Studio\2019\Community\VC\Tools\MSVC\14.29.30133\atlmfc\include\afxwin2.inl
; File D:\git\src\IBK\IBK_DRFN\ProjSrc\SrcChartEx\ChartAddIn\ChartDesignPropertyAddIn\ChartDesignPropertyAddIn\DlgGraphSetting.cpp
; File C:\Program Files (x86)\Microsoft Visual Studio\2019\Community\VC\Tools\MSVC\14.29.30133\atlmfc\include\afxtempl.h
; File D:\git\src\IBK\IBK_DRFN\ProjSrc\SrcChartEx\ChartAddIn\ChartDesignPropertyAddIn\ChartDesignPropertyAddIn\DlgGraphSetting.cpp
;	COMDAT ?AddStringToIndicatorFunctionComboWhenSpecialGraphType@CDlgGraphSetting@@AAEXXZ
_TEXT	SEGMENT
_specialIndiNameList$ = -40				; size = 28
__$EHRec$ = -12						; size = 12
?AddStringToIndicatorFunctionComboWhenSpecialGraphType@CDlgGraphSetting@@AAEXXZ PROC ; CDlgGraphSetting::AddStringToIndicatorFunctionComboWhenSpecialGraphType, COMDAT
; _this$ = ecx

; 631  : {

  00000	55		 push	 ebp
  00001	8b ec		 mov	 ebp, esp
  00003	6a ff		 push	 -1
  00005	68 00 00 00 00	 push	 __ehhandler$?AddStringToIndicatorFunctionComboWhenSpecialGraphType@CDlgGraphSetting@@AAEXXZ
  0000a	64 a1 00 00 00
	00		 mov	 eax, DWORD PTR fs:0
  00010	50		 push	 eax
  00011	83 ec 1c	 sub	 esp, 28			; 0000001cH
  00014	53		 push	 ebx
  00015	56		 push	 esi
  00016	57		 push	 edi
  00017	a1 00 00 00 00	 mov	 eax, DWORD PTR ___security_cookie
  0001c	33 c5		 xor	 eax, ebp
  0001e	50		 push	 eax
  0001f	8d 45 f4	 lea	 eax, DWORD PTR __$EHRec$[ebp]
  00022	64 a3 00 00 00
	00		 mov	 DWORD PTR fs:0, eax
  00028	8b f9		 mov	 edi, ecx

; 632  : 	// (2006/7/5 - Seung-Won, Bae) Use IGraphInfoManager
; 633  : 
; 634  : 	if(m_pIGraphInfoManager == NULL) return;

  0002a	8b 8f 84 03 00
	00		 mov	 ecx, DWORD PTR [edi+900]
  00030	85 c9		 test	 ecx, ecx
  00032	0f 84 cf 00 00
	00		 je	 $LN29@AddStringT
; File C:\Program Files (x86)\Microsoft Visual Studio\2019\Community\VC\Tools\MSVC\14.29.30133\atlmfc\include\afxtempl.h

; 851  : {

  00038	c7 45 d8 00 00
	00 00		 mov	 DWORD PTR _specialIndiNameList$[ebp], OFFSET ??_7?$CList@V?$CStringT@DV?$StrTraitMFC_DLL@DV?$ChTraitsCRT@D@ATL@@@@@ATL@@V12@@@6B@

; 852  : 	ASSERT(nBlockSize > 0);
; 853  : 
; 854  : 	m_nCount = 0;

  0003f	c7 45 e4 00 00
	00 00		 mov	 DWORD PTR _specialIndiNameList$[ebp+12], 0

; 855  : 	m_pNodeHead = m_pNodeTail = m_pNodeFree = NULL;

  00046	c7 45 e8 00 00
	00 00		 mov	 DWORD PTR _specialIndiNameList$[ebp+16], 0
  0004d	c7 45 e0 00 00
	00 00		 mov	 DWORD PTR _specialIndiNameList$[ebp+8], 0
  00054	c7 45 dc 00 00
	00 00		 mov	 DWORD PTR _specialIndiNameList$[ebp+4], 0

; 856  : 	m_pBlocks = NULL;

  0005b	c7 45 ec 00 00
	00 00		 mov	 DWORD PTR _specialIndiNameList$[ebp+20], 0

; 857  : 	m_nBlockSize = nBlockSize;

  00062	c7 45 f0 0a 00
	00 00		 mov	 DWORD PTR _specialIndiNameList$[ebp+24], 10 ; 0000000aH
; File D:\git\src\IBK\IBK_DRFN\ProjSrc\SrcChartEx\ChartAddIn\ChartDesignPropertyAddIn\ChartDesignPropertyAddIn\DlgGraphSetting.cpp

; 637  : 	if( !m_pIGraphInfoManager->GetIndicatorNameList( IGraphInfoManager::IEILT_SITE_DEFAULT, IGraphInfoManager::IEIIT_SPECIAL, specialIndiNameList)) return;

  00069	8b 01		 mov	 eax, DWORD PTR [ecx]
  0006b	8d 55 d8	 lea	 edx, DWORD PTR _specialIndiNameList$[ebp]
  0006e	52		 push	 edx
  0006f	6a 01		 push	 1
  00071	6a 00		 push	 0
  00073	c7 45 fc 00 00
	00 00		 mov	 DWORD PTR __$EHRec$[ebp+8], 0
  0007a	ff 50 30	 call	 DWORD PTR [eax+48]
  0007d	85 c0		 test	 eax, eax
  0007f	74 3e		 je	 SHORT $LN3@AddStringT

; 638  : 
; 639  : 	POSITION pos = specialIndiNameList.GetHeadPosition();

  00081	8b 75 dc	 mov	 esi, DWORD PTR _specialIndiNameList$[ebp+4]
  00084	85 f6		 test	 esi, esi

; 640  : 	while(pos != NULL) m_IndicatorFuctionComboBox.AddString( _MTOL2( specialIndiNameList.GetNext(pos)));

  00086	74 37		 je	 SHORT $LN3@AddStringT
  00088	8b 1d 00 00 00
	00		 mov	 ebx, DWORD PTR __imp__SendMessageA@16
  0008e	66 90		 npad	 2
$LL2@AddStringT:
  00090	6a 00		 push	 0
  00092	ff 76 08	 push	 DWORD PTR [esi+8]
; File C:\Program Files (x86)\Microsoft Visual Studio\2019\Community\VC\Tools\MSVC\14.29.30133\atlmfc\include\afxtempl.h

; 811  : 	{ CNode* pNode = (CNode*) rPosition;

  00095	8d 06		 lea	 eax, DWORD PTR [esi]
; File D:\git\src\IBK\IBK_DRFN\ProjSrc\SrcChartEx\ChartAddIn\ChartDesignPropertyAddIn\ChartDesignPropertyAddIn\DlgGraphSetting.cpp

; 640  : 	while(pos != NULL) m_IndicatorFuctionComboBox.AddString( _MTOL2( specialIndiNameList.GetNext(pos)));

  00097	b9 00 00 00 00	 mov	 ecx, OFFSET ?g_iMetaTable@@3VIMetaTable@@A ; g_iMetaTable
; File C:\Program Files (x86)\Microsoft Visual Studio\2019\Community\VC\Tools\MSVC\14.29.30133\atlmfc\include\afxtempl.h

; 813  : 		rPosition = (POSITION) pNode->pNext;

  0009c	8b 36		 mov	 esi, DWORD PTR [esi]
; File D:\git\src\IBK\IBK_DRFN\ProjSrc\SrcChartEx\ChartAddIn\ChartDesignPropertyAddIn\ChartDesignPropertyAddIn\DlgGraphSetting.cpp

; 640  : 	while(pos != NULL) m_IndicatorFuctionComboBox.AddString( _MTOL2( specialIndiNameList.GetNext(pos)));

  0009e	6a 02		 push	 2
  000a0	ff b7 88 03 00
	00		 push	 DWORD PTR [edi+904]
  000a6	e8 00 00 00 00	 call	 ?GetLanguageText@IMetaTable@@QAEPBDPAUHWND__@@W4E_CODEPAGE@1@PBDH@Z ; IMetaTable::GetLanguageText
; File C:\Program Files (x86)\Microsoft Visual Studio\2019\Community\VC\Tools\MSVC\14.29.30133\atlmfc\include\afxwin2.inl

; 795  : 	{ ASSERT(::IsWindow(m_hWnd)); return (int)::SendMessage(m_hWnd, CB_ADDSTRING, 0, (LPARAM)lpszString); }

  000ab	50		 push	 eax
  000ac	6a 00		 push	 0
  000ae	68 43 01 00 00	 push	 323			; 00000143H
  000b3	ff b7 e0 01 00
	00		 push	 DWORD PTR [edi+480]
  000b9	ff d3		 call	 ebx
; File D:\git\src\IBK\IBK_DRFN\ProjSrc\SrcChartEx\ChartAddIn\ChartDesignPropertyAddIn\ChartDesignPropertyAddIn\DlgGraphSetting.cpp

; 640  : 	while(pos != NULL) m_IndicatorFuctionComboBox.AddString( _MTOL2( specialIndiNameList.GetNext(pos)));

  000bb	85 f6		 test	 esi, esi
  000bd	75 d1		 jne	 SHORT $LL2@AddStringT
$LN3@AddStringT:
; File C:\Program Files (x86)\Microsoft Visual Studio\2019\Community\VC\Tools\MSVC\14.29.30133\atlmfc\include\afxtempl.h

; 867  : 	for (pNode = m_pNodeHead; pNode != NULL; pNode = pNode->pNext)

  000bf	8b 75 dc	 mov	 esi, DWORD PTR _specialIndiNameList$[ebp+4]

; 878  : {

  000c2	c7 45 fc 02 00
	00 00		 mov	 DWORD PTR __$EHRec$[ebp+8], 2
  000c9	c7 45 d8 00 00
	00 00		 mov	 DWORD PTR _specialIndiNameList$[ebp], OFFSET ??_7?$CList@V?$CStringT@DV?$StrTraitMFC_DLL@DV?$ChTraitsCRT@D@ATL@@@@@ATL@@V12@@@6B@

; 867  : 	for (pNode = m_pNodeHead; pNode != NULL; pNode = pNode->pNext)

  000d0	85 f6		 test	 esi, esi
  000d2	74 0f		 je	 SHORT $LN33@AddStringT
$LL34@AddStringT:

; 868  : 		pNode->data.~TYPE();

  000d4	8d 4e 08	 lea	 ecx, DWORD PTR [esi+8]
  000d7	ff 15 00 00 00
	00		 call	 DWORD PTR __imp_??1?$CStringT@DV?$StrTraitMFC_DLL@DV?$ChTraitsCRT@D@ATL@@@@@ATL@@QAE@XZ

; 867  : 	for (pNode = m_pNodeHead; pNode != NULL; pNode = pNode->pNext)

  000dd	8b 36		 mov	 esi, DWORD PTR [esi]
  000df	85 f6		 test	 esi, esi
  000e1	75 f1		 jne	 SHORT $LL34@AddStringT
$LN33@AddStringT:

; 869  : 
; 870  : 	m_nCount = 0;
; 871  : 	m_pNodeHead = m_pNodeTail = m_pNodeFree = NULL;
; 872  : 	m_pBlocks->FreeDataChain();

  000e3	8b 4d ec	 mov	 ecx, DWORD PTR _specialIndiNameList$[ebp+20]
  000e6	c7 45 e4 00 00
	00 00		 mov	 DWORD PTR _specialIndiNameList$[ebp+12], 0
  000ed	c7 45 e8 00 00
	00 00		 mov	 DWORD PTR _specialIndiNameList$[ebp+16], 0
  000f4	c7 45 e0 00 00
	00 00		 mov	 DWORD PTR _specialIndiNameList$[ebp+8], 0
  000fb	c7 45 dc 00 00
	00 00		 mov	 DWORD PTR _specialIndiNameList$[ebp+4], 0
  00102	e8 00 00 00 00	 call	 ?FreeDataChain@CPlex@@QAEXXZ ; CPlex::FreeDataChain
$LN29@AddStringT:
; File D:\git\src\IBK\IBK_DRFN\ProjSrc\SrcChartEx\ChartAddIn\ChartDesignPropertyAddIn\ChartDesignPropertyAddIn\DlgGraphSetting.cpp

; 641  : }

  00107	8b 4d f4	 mov	 ecx, DWORD PTR __$EHRec$[ebp]
  0010a	64 89 0d 00 00
	00 00		 mov	 DWORD PTR fs:0, ecx
  00111	59		 pop	 ecx
  00112	5f		 pop	 edi
  00113	5e		 pop	 esi
  00114	5b		 pop	 ebx
  00115	8b e5		 mov	 esp, ebp
  00117	5d		 pop	 ebp
  00118	c3		 ret	 0
_TEXT	ENDS
;	COMDAT text$x
text$x	SEGMENT
__unwindfunclet$?AddStringToIndicatorFunctionComboWhenSpecialGraphType@CDlgGraphSetting@@AAEXXZ$0:
  00000	8d 4d d8	 lea	 ecx, DWORD PTR _specialIndiNameList$[ebp]
  00003	e9 00 00 00 00	 jmp	 ??1?$CList@V?$CStringT@DV?$StrTraitMFC_DLL@DV?$ChTraitsCRT@D@ATL@@@@@ATL@@V12@@@UAE@XZ ; CList<ATL::CStringT<char,StrTraitMFC_DLL<char,ATL::ChTraitsCRT<char> > >,ATL::CStringT<char,StrTraitMFC_DLL<char,ATL::ChTraitsCRT<char> > > >::~CList<ATL::CStringT<char,StrTraitMFC_DLL<char,ATL::ChTraitsCRT<char> > >,ATL::CStringT<char,StrTraitMFC_DLL<char,ATL::ChTraitsCRT<char> > > >
  00008	cc		 int	 3
  00009	cc		 int	 3
  0000a	cc		 int	 3
  0000b	cc		 int	 3
  0000c	cc		 int	 3
__ehhandler$?AddStringToIndicatorFunctionComboWhenSpecialGraphType@CDlgGraphSetting@@AAEXXZ:
  0000d	90		 npad	 1
  0000e	90		 npad	 1
  0000f	8b 54 24 08	 mov	 edx, DWORD PTR [esp+8]
  00013	8d 42 0c	 lea	 eax, DWORD PTR [edx+12]
  00016	8b 4a d4	 mov	 ecx, DWORD PTR [edx-44]
  00019	33 c8		 xor	 ecx, eax
  0001b	e8 00 00 00 00	 call	 @__security_check_cookie@4
  00020	b8 00 00 00 00	 mov	 eax, OFFSET __ehfuncinfo$?AddStringToIndicatorFunctionComboWhenSpecialGraphType@CDlgGraphSetting@@AAEXXZ
  00025	e9 00 00 00 00	 jmp	 ___CxxFrameHandler3
text$x	ENDS
?AddStringToIndicatorFunctionComboWhenSpecialGraphType@CDlgGraphSetting@@AAEXXZ ENDP ; CDlgGraphSetting::AddStringToIndicatorFunctionComboWhenSpecialGraphType
; Function compile flags: /Ogtp
; File D:\git\src\IBK\IBK_DRFN\ProjSrc\SrcChartEx\ChartAddIn\ChartDesignPropertyAddIn\ChartDesignPropertyAddIn\DlgGraphSetting.cpp
; File C:\Program Files (x86)\Microsoft Visual Studio\2019\Community\VC\Tools\MSVC\14.29.30133\atlmfc\include\afxwin2.inl
; File D:\git\src\IBK\IBK_DRFN\ProjSrc\SrcChartEx\ChartAddIn\ChartDesignPropertyAddIn\ChartDesignPropertyAddIn\DlgGraphSetting.cpp
; File C:\Program Files (x86)\Microsoft Visual Studio\2019\Community\VC\Tools\MSVC\14.29.30133\atlmfc\include\cstringt.h
; File D:\git\src\IBK\IBK_DRFN\ProjSrc\SrcChartEx\ChartAddIn\ChartDesignPropertyAddIn\ChartDesignPropertyAddIn\DlgGraphSetting.cpp
; File C:\Program Files (x86)\Microsoft Visual Studio\2019\Community\VC\Tools\MSVC\14.29.30133\atlmfc\include\cstringt.h
; File D:\git\src\IBK\IBK_DRFN\ProjSrc\SrcChartEx\ChartAddIn\ChartDesignPropertyAddIn\ChartDesignPropertyAddIn\DlgGraphSetting.cpp
; File C:\Program Files (x86)\Microsoft Visual Studio\2019\Community\VC\Tools\MSVC\14.29.30133\atlmfc\include\cstringt.h
; File D:\git\src\IBK\IBK_DRFN\ProjSrc\SrcChartEx\ChartAddIn\ChartDesignPropertyAddIn\ChartDesignPropertyAddIn\DlgGraphSetting.cpp
; File C:\Program Files (x86)\Microsoft Visual Studio\2019\Community\VC\Tools\MSVC\14.29.30133\atlmfc\include\afxtempl.h
; File D:\git\src\IBK\IBK_DRFN\ProjSrc\SrcChartEx\ChartAddIn\ChartDesignPropertyAddIn\ChartDesignPropertyAddIn\DlgGraphSetting.cpp
; File C:\Program Files (x86)\Microsoft Visual Studio\2019\Community\VC\Tools\MSVC\14.29.30133\atlmfc\include\afxtempl.h
; File D:\git\src\IBK\IBK_DRFN\ProjSrc\SrcChartEx\ChartAddIn\ChartDesignPropertyAddIn\ChartDesignPropertyAddIn\DlgGraphSetting.cpp
; File C:\Program Files (x86)\Microsoft Visual Studio\2019\Community\VC\Tools\MSVC\14.29.30133\atlmfc\include\afxtempl.h
; File D:\git\src\IBK\IBK_DRFN\ProjSrc\SrcChartEx\ChartAddIn\ChartDesignPropertyAddIn\ChartDesignPropertyAddIn\DlgGraphSetting.cpp
; File C:\Program Files (x86)\Microsoft Visual Studio\2019\Community\VC\Tools\MSVC\14.29.30133\atlmfc\include\afxwin2.inl
; File D:\git\src\IBK\IBK_DRFN\ProjSrc\SrcChartEx\ChartAddIn\ChartDesignPropertyAddIn\ChartDesignPropertyAddIn\DlgGraphSetting.cpp
; File C:\Program Files (x86)\Microsoft Visual Studio\2019\Community\VC\Tools\MSVC\14.29.30133\atlmfc\include\afxtempl.h
; File D:\git\src\IBK\IBK_DRFN\ProjSrc\SrcChartEx\ChartAddIn\ChartDesignPropertyAddIn\ChartDesignPropertyAddIn\DlgGraphSetting.cpp
; File C:\Program Files (x86)\Microsoft Visual Studio\2019\Community\VC\Tools\MSVC\14.29.30133\atlmfc\include\cstringt.h
; File D:\git\src\IBK\IBK_DRFN\ProjSrc\SrcChartEx\ChartAddIn\ChartDesignPropertyAddIn\ChartDesignPropertyAddIn\DlgGraphSetting.cpp
; File C:\Program Files (x86)\Microsoft Visual Studio\2019\Community\VC\Tools\MSVC\14.29.30133\atlmfc\include\cstringt.h
; File D:\git\src\IBK\IBK_DRFN\ProjSrc\SrcChartEx\ChartAddIn\ChartDesignPropertyAddIn\ChartDesignPropertyAddIn\DlgGraphSetting.cpp
; File C:\Program Files (x86)\Microsoft Visual Studio\2019\Community\VC\Tools\MSVC\14.29.30133\atlmfc\include\cstringt.h
; File D:\git\src\IBK\IBK_DRFN\ProjSrc\SrcChartEx\ChartAddIn\ChartDesignPropertyAddIn\ChartDesignPropertyAddIn\DlgGraphSetting.cpp
; File C:\Program Files (x86)\Microsoft Visual Studio\2019\Community\VC\Tools\MSVC\14.29.30133\atlmfc\include\cstringt.h
; File D:\git\src\IBK\IBK_DRFN\ProjSrc\SrcChartEx\ChartAddIn\ChartDesignPropertyAddIn\ChartDesignPropertyAddIn\DlgGraphSetting.cpp
; File C:\Program Files (x86)\Microsoft Visual Studio\2019\Community\VC\Tools\MSVC\14.29.30133\atlmfc\include\cstringt.h
; File D:\git\src\IBK\IBK_DRFN\ProjSrc\SrcChartEx\ChartAddIn\ChartDesignPropertyAddIn\ChartDesignPropertyAddIn\DlgGraphSetting.cpp
; File C:\Program Files (x86)\Microsoft Visual Studio\2019\Community\VC\Tools\MSVC\14.29.30133\atlmfc\include\afxtempl.h
; File D:\git\src\IBK\IBK_DRFN\ProjSrc\SrcChartEx\ChartAddIn\ChartDesignPropertyAddIn\ChartDesignPropertyAddIn\DlgGraphSetting.cpp
; File C:\Program Files (x86)\Microsoft Visual Studio\2019\Community\VC\Tools\MSVC\14.29.30133\atlmfc\include\afxtempl.h
; File D:\git\src\IBK\IBK_DRFN\ProjSrc\SrcChartEx\ChartAddIn\ChartDesignPropertyAddIn\ChartDesignPropertyAddIn\DlgGraphSetting.cpp
; File C:\Program Files (x86)\Microsoft Visual Studio\2019\Community\VC\Tools\MSVC\14.29.30133\atlmfc\include\afxtempl.h
; File D:\git\src\IBK\IBK_DRFN\ProjSrc\SrcChartEx\ChartAddIn\ChartDesignPropertyAddIn\ChartDesignPropertyAddIn\DlgGraphSetting.cpp
; File C:\Program Files (x86)\Microsoft Visual Studio\2019\Community\VC\Tools\MSVC\14.29.30133\atlmfc\include\afxwin2.inl
; File D:\git\src\IBK\IBK_DRFN\ProjSrc\SrcChartEx\ChartAddIn\ChartDesignPropertyAddIn\ChartDesignPropertyAddIn\DlgGraphSetting.cpp
; File C:\Program Files (x86)\Microsoft Visual Studio\2019\Community\VC\Tools\MSVC\14.29.30133\atlmfc\include\afxtempl.h
; File D:\git\src\IBK\IBK_DRFN\ProjSrc\SrcChartEx\ChartAddIn\ChartDesignPropertyAddIn\ChartDesignPropertyAddIn\DlgGraphSetting.cpp
;	COMDAT ?AddStringToIndicatorFunctionComboWhenNoSpecialGraphType@CDlgGraphSetting@@AAEXXZ
_TEXT	SEGMENT
_indiNameList$2 = -40					; size = 28
_indiNameList$3 = -40					; size = 28
__$EHRec$ = -12						; size = 12
?AddStringToIndicatorFunctionComboWhenNoSpecialGraphType@CDlgGraphSetting@@AAEXXZ PROC ; CDlgGraphSetting::AddStringToIndicatorFunctionComboWhenNoSpecialGraphType, COMDAT
; _this$ = ecx

; 648  : {

  00000	55		 push	 ebp
  00001	8b ec		 mov	 ebp, esp
  00003	6a ff		 push	 -1
  00005	68 00 00 00 00	 push	 __ehhandler$?AddStringToIndicatorFunctionComboWhenNoSpecialGraphType@CDlgGraphSetting@@AAEXXZ
  0000a	64 a1 00 00 00
	00		 mov	 eax, DWORD PTR fs:0
  00010	50		 push	 eax
  00011	83 ec 1c	 sub	 esp, 28			; 0000001cH
  00014	53		 push	 ebx
  00015	56		 push	 esi
  00016	57		 push	 edi
  00017	a1 00 00 00 00	 mov	 eax, DWORD PTR ___security_cookie
  0001c	33 c5		 xor	 eax, ebp
  0001e	50		 push	 eax
  0001f	8d 45 f4	 lea	 eax, DWORD PTR __$EHRec$[ebp]
  00022	64 a3 00 00 00
	00		 mov	 DWORD PTR fs:0, eax
  00028	8b f9		 mov	 edi, ecx
; File C:\Program Files (x86)\Microsoft Visual Studio\2019\Community\VC\Tools\MSVC\14.29.30133\atlmfc\include\afxwin2.inl

; 795  : 	{ ASSERT(::IsWindow(m_hWnd)); return (int)::SendMessage(m_hWnd, CB_ADDSTRING, 0, (LPARAM)lpszString); }

  0002a	8b 1d 00 00 00
	00		 mov	 ebx, DWORD PTR __imp__SendMessageA@16
  00030	68 00 00 00 00	 push	 OFFSET ??_C@_00CNPNBAHC@@
  00035	6a 00		 push	 0
  00037	68 43 01 00 00	 push	 323			; 00000143H
  0003c	ff b7 e0 01 00
	00		 push	 DWORD PTR [edi+480]
  00042	ff d3		 call	 ebx
; File D:\git\src\IBK\IBK_DRFN\ProjSrc\SrcChartEx\ChartAddIn\ChartDesignPropertyAddIn\ChartDesignPropertyAddIn\DlgGraphSetting.cpp

; 651  : 	if( m_pIGraphInfoManager == NULL) return;

  00044	83 bf 84 03 00
	00 00		 cmp	 DWORD PTR [edi+900], 0
  0004b	0f 84 72 02 00
	00		 je	 $LN66@AddStringT

; 562  : 	return (m_strIndicatorType == _MTEXTN( pGraphTypeItem[0]) || 

  00051	8b 0d 54 00 00
	00		 mov	 ecx, DWORD PTR ?g_iMetaTable@@3VIMetaTable@@A+84
  00057	8d b7 74 02 00
	00		 lea	 esi, DWORD PTR [edi+628]
  0005d	a1 00 00 00 00	 mov	 eax, DWORD PTR ?pGraphTypeItem@@3PAW4E_METACODE@IMetaTable@@A
; File C:\Program Files (x86)\Microsoft Visual Studio\2019\Community\VC\Tools\MSVC\14.29.30133\atlmfc\include\cstringt.h

; 2486 : 		return(str1.Compare(psz2) == 0);

  00062	ff 34 81	 push	 DWORD PTR [ecx+eax*4]
  00065	8b ce		 mov	 ecx, esi
  00067	ff 15 00 00 00
	00		 call	 DWORD PTR __imp_?Compare@?$CStringT@DV?$StrTraitMFC_DLL@DV?$ChTraitsCRT@D@ATL@@@@@ATL@@QBEHPBD@Z
  0006d	85 c0		 test	 eax, eax
; File D:\git\src\IBK\IBK_DRFN\ProjSrc\SrcChartEx\ChartAddIn\ChartDesignPropertyAddIn\ChartDesignPropertyAddIn\DlgGraphSetting.cpp

; 562  : 	return (m_strIndicatorType == _MTEXTN( pGraphTypeItem[0]) || 

  0006f	74 38		 je	 SHORT $LN18@AddStringT
  00071	8b 0d 54 00 00
	00		 mov	 ecx, DWORD PTR ?g_iMetaTable@@3VIMetaTable@@A+84
  00077	a1 04 00 00 00	 mov	 eax, DWORD PTR ?pGraphTypeItem@@3PAW4E_METACODE@IMetaTable@@A+4
; File C:\Program Files (x86)\Microsoft Visual Studio\2019\Community\VC\Tools\MSVC\14.29.30133\atlmfc\include\cstringt.h

; 2486 : 		return(str1.Compare(psz2) == 0);

  0007c	ff 34 81	 push	 DWORD PTR [ecx+eax*4]
  0007f	8b ce		 mov	 ecx, esi
  00081	ff 15 00 00 00
	00		 call	 DWORD PTR __imp_?Compare@?$CStringT@DV?$StrTraitMFC_DLL@DV?$ChTraitsCRT@D@ATL@@@@@ATL@@QBEHPBD@Z
  00087	85 c0		 test	 eax, eax
; File D:\git\src\IBK\IBK_DRFN\ProjSrc\SrcChartEx\ChartAddIn\ChartDesignPropertyAddIn\ChartDesignPropertyAddIn\DlgGraphSetting.cpp

; 562  : 	return (m_strIndicatorType == _MTEXTN( pGraphTypeItem[0]) || 

  00089	74 1e		 je	 SHORT $LN18@AddStringT
  0008b	8b 0d 54 00 00
	00		 mov	 ecx, DWORD PTR ?g_iMetaTable@@3VIMetaTable@@A+84
  00091	a1 08 00 00 00	 mov	 eax, DWORD PTR ?pGraphTypeItem@@3PAW4E_METACODE@IMetaTable@@A+8
; File C:\Program Files (x86)\Microsoft Visual Studio\2019\Community\VC\Tools\MSVC\14.29.30133\atlmfc\include\cstringt.h

; 2486 : 		return(str1.Compare(psz2) == 0);

  00096	ff 34 81	 push	 DWORD PTR [ecx+eax*4]
  00099	8b ce		 mov	 ecx, esi
  0009b	ff 15 00 00 00
	00		 call	 DWORD PTR __imp_?Compare@?$CStringT@DV?$StrTraitMFC_DLL@DV?$ChTraitsCRT@D@ATL@@@@@ATL@@QBEHPBD@Z
  000a1	85 c0		 test	 eax, eax
; File D:\git\src\IBK\IBK_DRFN\ProjSrc\SrcChartEx\ChartAddIn\ChartDesignPropertyAddIn\ChartDesignPropertyAddIn\DlgGraphSetting.cpp

; 562  : 	return (m_strIndicatorType == _MTEXTN( pGraphTypeItem[0]) || 

  000a3	0f 85 db 00 00
	00		 jne	 $LN35@AddStringT
$LN18@AddStringT:
; File C:\Program Files (x86)\Microsoft Visual Studio\2019\Community\VC\Tools\MSVC\14.29.30133\atlmfc\include\afxtempl.h

; 851  : {

  000a9	c7 45 d8 00 00
	00 00		 mov	 DWORD PTR _indiNameList$3[ebp], OFFSET ??_7?$CList@V?$CStringT@DV?$StrTraitMFC_DLL@DV?$ChTraitsCRT@D@ATL@@@@@ATL@@V12@@@6B@

; 852  : 	ASSERT(nBlockSize > 0);
; 853  : 
; 854  : 	m_nCount = 0;

  000b0	c7 45 e4 00 00
	00 00		 mov	 DWORD PTR _indiNameList$3[ebp+12], 0

; 855  : 	m_pNodeHead = m_pNodeTail = m_pNodeFree = NULL;

  000b7	c7 45 e8 00 00
	00 00		 mov	 DWORD PTR _indiNameList$3[ebp+16], 0
  000be	c7 45 e0 00 00
	00 00		 mov	 DWORD PTR _indiNameList$3[ebp+8], 0
  000c5	c7 45 dc 00 00
	00 00		 mov	 DWORD PTR _indiNameList$3[ebp+4], 0

; 856  : 	m_pBlocks = NULL;

  000cc	c7 45 ec 00 00
	00 00		 mov	 DWORD PTR _indiNameList$3[ebp+20], 0

; 857  : 	m_nBlockSize = nBlockSize;

  000d3	c7 45 f0 0a 00
	00 00		 mov	 DWORD PTR _indiNameList$3[ebp+24], 10 ; 0000000aH
; File D:\git\src\IBK\IBK_DRFN\ProjSrc\SrcChartEx\ChartAddIn\ChartDesignPropertyAddIn\ChartDesignPropertyAddIn\DlgGraphSetting.cpp

; 657  : 		if( m_pIGraphInfoManager->GetIndicatorNameList( IGraphInfoManager::IEILT_SITE_DEFAULT, IGraphInfoManager::IEIIT_GENERAL, indiNameList))

  000da	8b 8f 84 03 00
	00		 mov	 ecx, DWORD PTR [edi+900]
  000e0	8d 55 d8	 lea	 edx, DWORD PTR _indiNameList$3[ebp]
  000e3	52		 push	 edx
  000e4	6a 00		 push	 0
  000e6	6a 00		 push	 0
  000e8	8b 01		 mov	 eax, DWORD PTR [ecx]
  000ea	c7 45 fc 00 00
	00 00		 mov	 DWORD PTR __$EHRec$[ebp+8], 0
  000f1	ff 50 30	 call	 DWORD PTR [eax+48]
  000f4	85 c0		 test	 eax, eax
  000f6	74 37		 je	 SHORT $LN3@AddStringT

; 658  : 		{
; 659  : 			POSITION pos = indiNameList.GetHeadPosition();

  000f8	8b 75 dc	 mov	 esi, DWORD PTR _indiNameList$3[ebp+4]
  000fb	85 f6		 test	 esi, esi

; 660  : 			while( pos != NULL) m_IndicatorFuctionComboBox.AddString( _MTOL2( indiNameList.GetNext( pos)));

  000fd	74 30		 je	 SHORT $LN3@AddStringT
  000ff	90		 npad	 1
$LL2@AddStringT:
  00100	6a 00		 push	 0
  00102	ff 76 08	 push	 DWORD PTR [esi+8]
; File C:\Program Files (x86)\Microsoft Visual Studio\2019\Community\VC\Tools\MSVC\14.29.30133\atlmfc\include\afxtempl.h

; 811  : 	{ CNode* pNode = (CNode*) rPosition;

  00105	8d 06		 lea	 eax, DWORD PTR [esi]
; File D:\git\src\IBK\IBK_DRFN\ProjSrc\SrcChartEx\ChartAddIn\ChartDesignPropertyAddIn\ChartDesignPropertyAddIn\DlgGraphSetting.cpp

; 660  : 			while( pos != NULL) m_IndicatorFuctionComboBox.AddString( _MTOL2( indiNameList.GetNext( pos)));

  00107	b9 00 00 00 00	 mov	 ecx, OFFSET ?g_iMetaTable@@3VIMetaTable@@A ; g_iMetaTable
; File C:\Program Files (x86)\Microsoft Visual Studio\2019\Community\VC\Tools\MSVC\14.29.30133\atlmfc\include\afxtempl.h

; 813  : 		rPosition = (POSITION) pNode->pNext;

  0010c	8b 36		 mov	 esi, DWORD PTR [esi]
; File D:\git\src\IBK\IBK_DRFN\ProjSrc\SrcChartEx\ChartAddIn\ChartDesignPropertyAddIn\ChartDesignPropertyAddIn\DlgGraphSetting.cpp

; 660  : 			while( pos != NULL) m_IndicatorFuctionComboBox.AddString( _MTOL2( indiNameList.GetNext( pos)));

  0010e	6a 02		 push	 2
  00110	ff b7 88 03 00
	00		 push	 DWORD PTR [edi+904]
  00116	e8 00 00 00 00	 call	 ?GetLanguageText@IMetaTable@@QAEPBDPAUHWND__@@W4E_CODEPAGE@1@PBDH@Z ; IMetaTable::GetLanguageText
; File C:\Program Files (x86)\Microsoft Visual Studio\2019\Community\VC\Tools\MSVC\14.29.30133\atlmfc\include\afxwin2.inl

; 795  : 	{ ASSERT(::IsWindow(m_hWnd)); return (int)::SendMessage(m_hWnd, CB_ADDSTRING, 0, (LPARAM)lpszString); }

  0011b	50		 push	 eax
  0011c	6a 00		 push	 0
  0011e	68 43 01 00 00	 push	 323			; 00000143H
  00123	ff b7 e0 01 00
	00		 push	 DWORD PTR [edi+480]
  00129	ff d3		 call	 ebx
; File D:\git\src\IBK\IBK_DRFN\ProjSrc\SrcChartEx\ChartAddIn\ChartDesignPropertyAddIn\ChartDesignPropertyAddIn\DlgGraphSetting.cpp

; 660  : 			while( pos != NULL) m_IndicatorFuctionComboBox.AddString( _MTOL2( indiNameList.GetNext( pos)));

  0012b	85 f6		 test	 esi, esi
  0012d	75 d1		 jne	 SHORT $LL2@AddStringT
$LN3@AddStringT:
; File C:\Program Files (x86)\Microsoft Visual Studio\2019\Community\VC\Tools\MSVC\14.29.30133\atlmfc\include\afxtempl.h

; 867  : 	for (pNode = m_pNodeHead; pNode != NULL; pNode = pNode->pNext)

  0012f	8b 75 dc	 mov	 esi, DWORD PTR _indiNameList$3[ebp+4]

; 878  : {

  00132	c7 45 fc 01 00
	00 00		 mov	 DWORD PTR __$EHRec$[ebp+8], 1
  00139	c7 45 d8 00 00
	00 00		 mov	 DWORD PTR _indiNameList$3[ebp], OFFSET ??_7?$CList@V?$CStringT@DV?$StrTraitMFC_DLL@DV?$ChTraitsCRT@D@ATL@@@@@ATL@@V12@@@6B@

; 867  : 	for (pNode = m_pNodeHead; pNode != NULL; pNode = pNode->pNext)

  00140	85 f6		 test	 esi, esi
  00142	74 0f		 je	 SHORT $LN39@AddStringT
$LL40@AddStringT:

; 868  : 		pNode->data.~TYPE();

  00144	8d 4e 08	 lea	 ecx, DWORD PTR [esi+8]
  00147	ff 15 00 00 00
	00		 call	 DWORD PTR __imp_??1?$CStringT@DV?$StrTraitMFC_DLL@DV?$ChTraitsCRT@D@ATL@@@@@ATL@@QAE@XZ

; 867  : 	for (pNode = m_pNodeHead; pNode != NULL; pNode = pNode->pNext)

  0014d	8b 36		 mov	 esi, DWORD PTR [esi]
  0014f	85 f6		 test	 esi, esi
  00151	75 f1		 jne	 SHORT $LL40@AddStringT
$LN39@AddStringT:

; 869  : 
; 870  : 	m_nCount = 0;
; 871  : 	m_pNodeHead = m_pNodeTail = m_pNodeFree = NULL;
; 872  : 	m_pBlocks->FreeDataChain();

  00153	8b 4d ec	 mov	 ecx, DWORD PTR _indiNameList$3[ebp+20]
  00156	c7 45 e4 00 00
	00 00		 mov	 DWORD PTR _indiNameList$3[ebp+12], 0
  0015d	c7 45 e8 00 00
	00 00		 mov	 DWORD PTR _indiNameList$3[ebp+16], 0
  00164	c7 45 e0 00 00
	00 00		 mov	 DWORD PTR _indiNameList$3[ebp+8], 0
  0016b	c7 45 dc 00 00
	00 00		 mov	 DWORD PTR _indiNameList$3[ebp+4], 0
  00172	e8 00 00 00 00	 call	 ?FreeDataChain@CPlex@@QAEXXZ ; CPlex::FreeDataChain

; 881  : }

  00177	c7 45 fc ff ff
	ff ff		 mov	 DWORD PTR __$EHRec$[ebp+8], -1
  0017e	8d b7 74 02 00
	00		 lea	 esi, DWORD PTR [edi+628]
$LN35@AddStringT:
; File D:\git\src\IBK\IBK_DRFN\ProjSrc\SrcChartEx\ChartAddIn\ChartDesignPropertyAddIn\ChartDesignPropertyAddIn\DlgGraphSetting.cpp

; 570  : 	return (m_strIndicatorType == _MTEXTN( pGraphTypeItem[1]) || 

  00184	8b 0d 54 00 00
	00		 mov	 ecx, DWORD PTR ?g_iMetaTable@@3VIMetaTable@@A+84
  0018a	a1 04 00 00 00	 mov	 eax, DWORD PTR ?pGraphTypeItem@@3PAW4E_METACODE@IMetaTable@@A+4
; File C:\Program Files (x86)\Microsoft Visual Studio\2019\Community\VC\Tools\MSVC\14.29.30133\atlmfc\include\cstringt.h

; 2486 : 		return(str1.Compare(psz2) == 0);

  0018f	ff 34 81	 push	 DWORD PTR [ecx+eax*4]
  00192	8b ce		 mov	 ecx, esi
  00194	ff 15 00 00 00
	00		 call	 DWORD PTR __imp_?Compare@?$CStringT@DV?$StrTraitMFC_DLL@DV?$ChTraitsCRT@D@ATL@@@@@ATL@@QBEHPBD@Z
  0019a	85 c0		 test	 eax, eax
; File D:\git\src\IBK\IBK_DRFN\ProjSrc\SrcChartEx\ChartAddIn\ChartDesignPropertyAddIn\ChartDesignPropertyAddIn\DlgGraphSetting.cpp

; 570  : 	return (m_strIndicatorType == _MTEXTN( pGraphTypeItem[1]) || 

  0019c	74 52		 je	 SHORT $LN47@AddStringT
  0019e	8b 0d 54 00 00
	00		 mov	 ecx, DWORD PTR ?g_iMetaTable@@3VIMetaTable@@A+84
  001a4	a1 08 00 00 00	 mov	 eax, DWORD PTR ?pGraphTypeItem@@3PAW4E_METACODE@IMetaTable@@A+8
; File C:\Program Files (x86)\Microsoft Visual Studio\2019\Community\VC\Tools\MSVC\14.29.30133\atlmfc\include\cstringt.h

; 2486 : 		return(str1.Compare(psz2) == 0);

  001a9	ff 34 81	 push	 DWORD PTR [ecx+eax*4]
  001ac	8b ce		 mov	 ecx, esi
  001ae	ff 15 00 00 00
	00		 call	 DWORD PTR __imp_?Compare@?$CStringT@DV?$StrTraitMFC_DLL@DV?$ChTraitsCRT@D@ATL@@@@@ATL@@QBEHPBD@Z
  001b4	85 c0		 test	 eax, eax
; File D:\git\src\IBK\IBK_DRFN\ProjSrc\SrcChartEx\ChartAddIn\ChartDesignPropertyAddIn\ChartDesignPropertyAddIn\DlgGraphSetting.cpp

; 570  : 	return (m_strIndicatorType == _MTEXTN( pGraphTypeItem[1]) || 

  001b6	74 38		 je	 SHORT $LN47@AddStringT
  001b8	8b 0d 54 00 00
	00		 mov	 ecx, DWORD PTR ?g_iMetaTable@@3VIMetaTable@@A+84
  001be	a1 18 00 00 00	 mov	 eax, DWORD PTR ?pGraphTypeItem@@3PAW4E_METACODE@IMetaTable@@A+24
; File C:\Program Files (x86)\Microsoft Visual Studio\2019\Community\VC\Tools\MSVC\14.29.30133\atlmfc\include\cstringt.h

; 2486 : 		return(str1.Compare(psz2) == 0);

  001c3	ff 34 81	 push	 DWORD PTR [ecx+eax*4]
  001c6	8b ce		 mov	 ecx, esi
  001c8	ff 15 00 00 00
	00		 call	 DWORD PTR __imp_?Compare@?$CStringT@DV?$StrTraitMFC_DLL@DV?$ChTraitsCRT@D@ATL@@@@@ATL@@QBEHPBD@Z
  001ce	85 c0		 test	 eax, eax
; File D:\git\src\IBK\IBK_DRFN\ProjSrc\SrcChartEx\ChartAddIn\ChartDesignPropertyAddIn\ChartDesignPropertyAddIn\DlgGraphSetting.cpp

; 570  : 	return (m_strIndicatorType == _MTEXTN( pGraphTypeItem[1]) || 

  001d0	74 1e		 je	 SHORT $LN47@AddStringT
  001d2	8b 15 54 00 00
	00		 mov	 edx, DWORD PTR ?g_iMetaTable@@3VIMetaTable@@A+84
; File C:\Program Files (x86)\Microsoft Visual Studio\2019\Community\VC\Tools\MSVC\14.29.30133\atlmfc\include\cstringt.h

; 2486 : 		return(str1.Compare(psz2) == 0);

  001d8	8b ce		 mov	 ecx, esi
; File D:\git\src\IBK\IBK_DRFN\ProjSrc\SrcChartEx\ChartAddIn\ChartDesignPropertyAddIn\ChartDesignPropertyAddIn\DlgGraphSetting.cpp

; 570  : 	return (m_strIndicatorType == _MTEXTN( pGraphTypeItem[1]) || 

  001da	a1 1c 00 00 00	 mov	 eax, DWORD PTR ?pGraphTypeItem@@3PAW4E_METACODE@IMetaTable@@A+28
; File C:\Program Files (x86)\Microsoft Visual Studio\2019\Community\VC\Tools\MSVC\14.29.30133\atlmfc\include\cstringt.h

; 2486 : 		return(str1.Compare(psz2) == 0);

  001df	ff 34 82	 push	 DWORD PTR [edx+eax*4]
  001e2	ff 15 00 00 00
	00		 call	 DWORD PTR __imp_?Compare@?$CStringT@DV?$StrTraitMFC_DLL@DV?$ChTraitsCRT@D@ATL@@@@@ATL@@QBEHPBD@Z
  001e8	85 c0		 test	 eax, eax
; File D:\git\src\IBK\IBK_DRFN\ProjSrc\SrcChartEx\ChartAddIn\ChartDesignPropertyAddIn\ChartDesignPropertyAddIn\DlgGraphSetting.cpp

; 570  : 	return (m_strIndicatorType == _MTEXTN( pGraphTypeItem[1]) || 

  001ea	0f 85 d3 00 00
	00		 jne	 $LN66@AddStringT
$LN47@AddStringT:
; File C:\Program Files (x86)\Microsoft Visual Studio\2019\Community\VC\Tools\MSVC\14.29.30133\atlmfc\include\afxtempl.h

; 851  : {

  001f0	c7 45 d8 00 00
	00 00		 mov	 DWORD PTR _indiNameList$2[ebp], OFFSET ??_7?$CList@V?$CStringT@DV?$StrTraitMFC_DLL@DV?$ChTraitsCRT@D@ATL@@@@@ATL@@V12@@@6B@

; 852  : 	ASSERT(nBlockSize > 0);
; 853  : 
; 854  : 	m_nCount = 0;

  001f7	c7 45 e4 00 00
	00 00		 mov	 DWORD PTR _indiNameList$2[ebp+12], 0

; 855  : 	m_pNodeHead = m_pNodeTail = m_pNodeFree = NULL;

  001fe	c7 45 e8 00 00
	00 00		 mov	 DWORD PTR _indiNameList$2[ebp+16], 0
  00205	c7 45 e0 00 00
	00 00		 mov	 DWORD PTR _indiNameList$2[ebp+8], 0
  0020c	c7 45 dc 00 00
	00 00		 mov	 DWORD PTR _indiNameList$2[ebp+4], 0

; 856  : 	m_pBlocks = NULL;

  00213	c7 45 ec 00 00
	00 00		 mov	 DWORD PTR _indiNameList$2[ebp+20], 0

; 857  : 	m_nBlockSize = nBlockSize;

  0021a	c7 45 f0 0a 00
	00 00		 mov	 DWORD PTR _indiNameList$2[ebp+24], 10 ; 0000000aH
; File D:\git\src\IBK\IBK_DRFN\ProjSrc\SrcChartEx\ChartAddIn\ChartDesignPropertyAddIn\ChartDesignPropertyAddIn\DlgGraphSetting.cpp

; 668  : 		if( m_pIGraphInfoManager->GetIndicatorNameList( IGraphInfoManager::IEILT_SITE_DEFAULT, IGraphInfoManager::IEIIT_NONE, indiNameList))

  00221	8b 8f 84 03 00
	00		 mov	 ecx, DWORD PTR [edi+900]
  00227	8d 55 d8	 lea	 edx, DWORD PTR _indiNameList$2[ebp]
  0022a	52		 push	 edx
  0022b	6a 02		 push	 2
  0022d	6a 00		 push	 0
  0022f	8b 01		 mov	 eax, DWORD PTR [ecx]
  00231	c7 45 fc 02 00
	00 00		 mov	 DWORD PTR __$EHRec$[ebp+8], 2
  00238	ff 50 30	 call	 DWORD PTR [eax+48]
  0023b	85 c0		 test	 eax, eax
  0023d	74 36		 je	 SHORT $LN5@AddStringT

; 669  : 		{
; 670  : 			POSITION pos = indiNameList.GetHeadPosition();

  0023f	8b 75 dc	 mov	 esi, DWORD PTR _indiNameList$2[ebp+4]
  00242	85 f6		 test	 esi, esi

; 671  : 			while( pos != NULL) m_IndicatorFuctionComboBox.AddString( _MTOL2( indiNameList.GetNext(pos)));

  00244	74 2f		 je	 SHORT $LN5@AddStringT
$LL4@AddStringT:
  00246	6a 00		 push	 0
  00248	ff 76 08	 push	 DWORD PTR [esi+8]
; File C:\Program Files (x86)\Microsoft Visual Studio\2019\Community\VC\Tools\MSVC\14.29.30133\atlmfc\include\afxtempl.h

; 811  : 	{ CNode* pNode = (CNode*) rPosition;

  0024b	8d 06		 lea	 eax, DWORD PTR [esi]
; File D:\git\src\IBK\IBK_DRFN\ProjSrc\SrcChartEx\ChartAddIn\ChartDesignPropertyAddIn\ChartDesignPropertyAddIn\DlgGraphSetting.cpp

; 671  : 			while( pos != NULL) m_IndicatorFuctionComboBox.AddString( _MTOL2( indiNameList.GetNext(pos)));

  0024d	b9 00 00 00 00	 mov	 ecx, OFFSET ?g_iMetaTable@@3VIMetaTable@@A ; g_iMetaTable
; File C:\Program Files (x86)\Microsoft Visual Studio\2019\Community\VC\Tools\MSVC\14.29.30133\atlmfc\include\afxtempl.h

; 813  : 		rPosition = (POSITION) pNode->pNext;

  00252	8b 36		 mov	 esi, DWORD PTR [esi]
; File D:\git\src\IBK\IBK_DRFN\ProjSrc\SrcChartEx\ChartAddIn\ChartDesignPropertyAddIn\ChartDesignPropertyAddIn\DlgGraphSetting.cpp

; 671  : 			while( pos != NULL) m_IndicatorFuctionComboBox.AddString( _MTOL2( indiNameList.GetNext(pos)));

  00254	6a 02		 push	 2
  00256	ff b7 88 03 00
	00		 push	 DWORD PTR [edi+904]
  0025c	e8 00 00 00 00	 call	 ?GetLanguageText@IMetaTable@@QAEPBDPAUHWND__@@W4E_CODEPAGE@1@PBDH@Z ; IMetaTable::GetLanguageText
; File C:\Program Files (x86)\Microsoft Visual Studio\2019\Community\VC\Tools\MSVC\14.29.30133\atlmfc\include\afxwin2.inl

; 795  : 	{ ASSERT(::IsWindow(m_hWnd)); return (int)::SendMessage(m_hWnd, CB_ADDSTRING, 0, (LPARAM)lpszString); }

  00261	50		 push	 eax
  00262	6a 00		 push	 0
  00264	68 43 01 00 00	 push	 323			; 00000143H
  00269	ff b7 e0 01 00
	00		 push	 DWORD PTR [edi+480]
  0026f	ff d3		 call	 ebx
; File D:\git\src\IBK\IBK_DRFN\ProjSrc\SrcChartEx\ChartAddIn\ChartDesignPropertyAddIn\ChartDesignPropertyAddIn\DlgGraphSetting.cpp

; 671  : 			while( pos != NULL) m_IndicatorFuctionComboBox.AddString( _MTOL2( indiNameList.GetNext(pos)));

  00271	85 f6		 test	 esi, esi
  00273	75 d1		 jne	 SHORT $LL4@AddStringT
$LN5@AddStringT:
; File C:\Program Files (x86)\Microsoft Visual Studio\2019\Community\VC\Tools\MSVC\14.29.30133\atlmfc\include\afxtempl.h

; 867  : 	for (pNode = m_pNodeHead; pNode != NULL; pNode = pNode->pNext)

  00275	8b 75 dc	 mov	 esi, DWORD PTR _indiNameList$2[ebp+4]

; 878  : {

  00278	c7 45 fc 03 00
	00 00		 mov	 DWORD PTR __$EHRec$[ebp+8], 3
  0027f	c7 45 d8 00 00
	00 00		 mov	 DWORD PTR _indiNameList$2[ebp], OFFSET ??_7?$CList@V?$CStringT@DV?$StrTraitMFC_DLL@DV?$ChTraitsCRT@D@ATL@@@@@ATL@@V12@@@6B@

; 867  : 	for (pNode = m_pNodeHead; pNode != NULL; pNode = pNode->pNext)

  00286	85 f6		 test	 esi, esi
  00288	74 15		 je	 SHORT $LN70@AddStringT
  0028a	66 0f 1f 44 00
	00		 npad	 6
$LL71@AddStringT:

; 868  : 		pNode->data.~TYPE();

  00290	8d 4e 08	 lea	 ecx, DWORD PTR [esi+8]
  00293	ff 15 00 00 00
	00		 call	 DWORD PTR __imp_??1?$CStringT@DV?$StrTraitMFC_DLL@DV?$ChTraitsCRT@D@ATL@@@@@ATL@@QAE@XZ

; 867  : 	for (pNode = m_pNodeHead; pNode != NULL; pNode = pNode->pNext)

  00299	8b 36		 mov	 esi, DWORD PTR [esi]
  0029b	85 f6		 test	 esi, esi
  0029d	75 f1		 jne	 SHORT $LL71@AddStringT
$LN70@AddStringT:

; 869  : 
; 870  : 	m_nCount = 0;
; 871  : 	m_pNodeHead = m_pNodeTail = m_pNodeFree = NULL;
; 872  : 	m_pBlocks->FreeDataChain();

  0029f	8b 4d ec	 mov	 ecx, DWORD PTR _indiNameList$2[ebp+20]
  002a2	c7 45 e4 00 00
	00 00		 mov	 DWORD PTR _indiNameList$2[ebp+12], 0
  002a9	c7 45 e8 00 00
	00 00		 mov	 DWORD PTR _indiNameList$2[ebp+16], 0
  002b0	c7 45 e0 00 00
	00 00		 mov	 DWORD PTR _indiNameList$2[ebp+8], 0
  002b7	c7 45 dc 00 00
	00 00		 mov	 DWORD PTR _indiNameList$2[ebp+4], 0
  002be	e8 00 00 00 00	 call	 ?FreeDataChain@CPlex@@QAEXXZ ; CPlex::FreeDataChain
$LN66@AddStringT:
; File D:\git\src\IBK\IBK_DRFN\ProjSrc\SrcChartEx\ChartAddIn\ChartDesignPropertyAddIn\ChartDesignPropertyAddIn\DlgGraphSetting.cpp

; 674  : }

  002c3	8b 4d f4	 mov	 ecx, DWORD PTR __$EHRec$[ebp]
  002c6	64 89 0d 00 00
	00 00		 mov	 DWORD PTR fs:0, ecx
  002cd	59		 pop	 ecx
  002ce	5f		 pop	 edi
  002cf	5e		 pop	 esi
  002d0	5b		 pop	 ebx
  002d1	8b e5		 mov	 esp, ebp
  002d3	5d		 pop	 ebp
  002d4	c3		 ret	 0
_TEXT	ENDS
;	COMDAT text$x
text$x	SEGMENT
__unwindfunclet$?AddStringToIndicatorFunctionComboWhenNoSpecialGraphType@CDlgGraphSetting@@AAEXXZ$0:
  00000	8d 4d d8	 lea	 ecx, DWORD PTR _indiNameList$3[ebp]
  00003	e9 00 00 00 00	 jmp	 ??1?$CList@V?$CStringT@DV?$StrTraitMFC_DLL@DV?$ChTraitsCRT@D@ATL@@@@@ATL@@V12@@@UAE@XZ ; CList<ATL::CStringT<char,StrTraitMFC_DLL<char,ATL::ChTraitsCRT<char> > >,ATL::CStringT<char,StrTraitMFC_DLL<char,ATL::ChTraitsCRT<char> > > >::~CList<ATL::CStringT<char,StrTraitMFC_DLL<char,ATL::ChTraitsCRT<char> > >,ATL::CStringT<char,StrTraitMFC_DLL<char,ATL::ChTraitsCRT<char> > > >
__unwindfunclet$?AddStringToIndicatorFunctionComboWhenNoSpecialGraphType@CDlgGraphSetting@@AAEXXZ$1:
  00008	8d 4d d8	 lea	 ecx, DWORD PTR _indiNameList$2[ebp]
  0000b	e9 00 00 00 00	 jmp	 ??1?$CList@V?$CStringT@DV?$StrTraitMFC_DLL@DV?$ChTraitsCRT@D@ATL@@@@@ATL@@V12@@@UAE@XZ ; CList<ATL::CStringT<char,StrTraitMFC_DLL<char,ATL::ChTraitsCRT<char> > >,ATL::CStringT<char,StrTraitMFC_DLL<char,ATL::ChTraitsCRT<char> > > >::~CList<ATL::CStringT<char,StrTraitMFC_DLL<char,ATL::ChTraitsCRT<char> > >,ATL::CStringT<char,StrTraitMFC_DLL<char,ATL::ChTraitsCRT<char> > > >
  00010	cc		 int	 3
  00011	cc		 int	 3
  00012	cc		 int	 3
  00013	cc		 int	 3
  00014	cc		 int	 3
__ehhandler$?AddStringToIndicatorFunctionComboWhenNoSpecialGraphType@CDlgGraphSetting@@AAEXXZ:
  00015	90		 npad	 1
  00016	90		 npad	 1
  00017	8b 54 24 08	 mov	 edx, DWORD PTR [esp+8]
  0001b	8d 42 0c	 lea	 eax, DWORD PTR [edx+12]
  0001e	8b 4a d4	 mov	 ecx, DWORD PTR [edx-44]
  00021	33 c8		 xor	 ecx, eax
  00023	e8 00 00 00 00	 call	 @__security_check_cookie@4
  00028	b8 00 00 00 00	 mov	 eax, OFFSET __ehfuncinfo$?AddStringToIndicatorFunctionComboWhenNoSpecialGraphType@CDlgGraphSetting@@AAEXXZ
  0002d	e9 00 00 00 00	 jmp	 ___CxxFrameHandler3
text$x	ENDS
?AddStringToIndicatorFunctionComboWhenNoSpecialGraphType@CDlgGraphSetting@@AAEXXZ ENDP ; CDlgGraphSetting::AddStringToIndicatorFunctionComboWhenNoSpecialGraphType
; Function compile flags: /Ogtp
; File D:\git\src\IBK\IBK_DRFN\ProjSrc\SrcChartEx\ChartAddIn\ChartDesignPropertyAddIn\ChartDesignPropertyAddIn\DlgGraphSetting.cpp
; File C:\Program Files (x86)\Microsoft Visual Studio\2019\Community\VC\Tools\MSVC\14.29.30133\atlmfc\include\afxtempl.h
; File D:\git\src\IBK\IBK_DRFN\ProjSrc\SrcChartEx\ChartAddIn\ChartDesignPropertyAddIn\ChartDesignPropertyAddIn\DlgGraphSetting.cpp
; File C:\Program Files (x86)\Microsoft Visual Studio\2019\Community\VC\Tools\MSVC\14.29.30133\atlmfc\include\afxtempl.h
; File D:\git\src\IBK\IBK_DRFN\ProjSrc\SrcChartEx\ChartAddIn\ChartDesignPropertyAddIn\ChartDesignPropertyAddIn\DlgGraphSetting.cpp
; File C:\Program Files (x86)\Microsoft Visual Studio\2019\Community\VC\Tools\MSVC\14.29.30133\atlmfc\include\afxtempl.h
; File D:\git\src\IBK\IBK_DRFN\ProjSrc\SrcChartEx\ChartAddIn\ChartDesignPropertyAddIn\ChartDesignPropertyAddIn\DlgGraphSetting.cpp
; File C:\Program Files (x86)\Microsoft Visual Studio\2019\Community\VC\Tools\MSVC\14.29.30133\atlmfc\include\afxtempl.h
; File D:\git\src\IBK\IBK_DRFN\ProjSrc\SrcChartEx\ChartAddIn\ChartDesignPropertyAddIn\ChartDesignPropertyAddIn\DlgGraphSetting.cpp
; File C:\Program Files (x86)\Microsoft Visual Studio\2019\Community\VC\Tools\MSVC\14.29.30133\atlmfc\include\afxwin2.inl
; File D:\git\src\IBK\IBK_DRFN\ProjSrc\SrcChartEx\ChartAddIn\ChartDesignPropertyAddIn\ChartDesignPropertyAddIn\DlgGraphSetting.cpp
; File C:\Program Files (x86)\Microsoft Visual Studio\2019\Community\VC\Tools\MSVC\14.29.30133\atlmfc\include\afxtempl.h
; File D:\git\src\IBK\IBK_DRFN\ProjSrc\SrcChartEx\ChartAddIn\ChartDesignPropertyAddIn\ChartDesignPropertyAddIn\DlgGraphSetting.cpp
; File C:\Program Files (x86)\Microsoft Visual Studio\2019\Community\VC\Tools\MSVC\14.29.30133\atlmfc\include\afxwin2.inl
; File D:\git\src\IBK\IBK_DRFN\ProjSrc\SrcChartEx\ChartAddIn\ChartDesignPropertyAddIn\ChartDesignPropertyAddIn\DlgGraphSetting.cpp
;	COMDAT ?AddStringToIndicatorFunctionCombo@CDlgGraphSetting@@AAEXXZ
_TEXT	SEGMENT
_specialIndiNameList$2 = -40				; size = 28
__$EHRec$ = -12						; size = 12
?AddStringToIndicatorFunctionCombo@CDlgGraphSetting@@AAEXXZ PROC ; CDlgGraphSetting::AddStringToIndicatorFunctionCombo, COMDAT
; _this$ = ecx

; 350  : {

  00000	55		 push	 ebp
  00001	8b ec		 mov	 ebp, esp
  00003	6a ff		 push	 -1
  00005	68 00 00 00 00	 push	 __ehhandler$?AddStringToIndicatorFunctionCombo@CDlgGraphSetting@@AAEXXZ
  0000a	64 a1 00 00 00
	00		 mov	 eax, DWORD PTR fs:0
  00010	50		 push	 eax
  00011	83 ec 1c	 sub	 esp, 28			; 0000001cH
  00014	53		 push	 ebx
  00015	56		 push	 esi
  00016	57		 push	 edi
  00017	a1 00 00 00 00	 mov	 eax, DWORD PTR ___security_cookie
  0001c	33 c5		 xor	 eax, ebp
  0001e	50		 push	 eax
  0001f	8d 45 f4	 lea	 eax, DWORD PTR __$EHRec$[ebp]
  00022	64 a3 00 00 00
	00		 mov	 DWORD PTR fs:0, eax
  00028	8b f9		 mov	 edi, ecx

; 351  : 
; 352  : 	if(m_strIndicatorType.Compare( _MTEXT( C5_SPECIAL_TYPE)) == 0)

  0002a	a1 54 00 00 00	 mov	 eax, DWORD PTR ?g_iMetaTable@@3VIMetaTable@@A+84
  0002f	8d 8f 74 02 00
	00		 lea	 ecx, DWORD PTR [edi+628]
  00035	ff b0 ec 07 00
	00		 push	 DWORD PTR [eax+2028]
  0003b	ff 15 00 00 00
	00		 call	 DWORD PTR __imp_?Compare@?$CStringT@DV?$StrTraitMFC_DLL@DV?$ChTraitsCRT@D@ATL@@@@@ATL@@QBEHPBD@Z
  00041	8b 1d 00 00 00
	00		 mov	 ebx, DWORD PTR __imp__SendMessageA@16
  00047	85 c0		 test	 eax, eax
  00049	0f 85 14 01 00
	00		 jne	 $LN2@AddStringT

; 634  : 	if(m_pIGraphInfoManager == NULL) return;

  0004f	8b 8f 84 03 00
	00		 mov	 ecx, DWORD PTR [edi+900]
  00055	85 c9		 test	 ecx, ecx
  00057	0f 84 0d 01 00
	00		 je	 $LN3@AddStringT
; File C:\Program Files (x86)\Microsoft Visual Studio\2019\Community\VC\Tools\MSVC\14.29.30133\atlmfc\include\afxtempl.h

; 851  : {

  0005d	c7 45 d8 00 00
	00 00		 mov	 DWORD PTR _specialIndiNameList$2[ebp], OFFSET ??_7?$CList@V?$CStringT@DV?$StrTraitMFC_DLL@DV?$ChTraitsCRT@D@ATL@@@@@ATL@@V12@@@6B@

; 852  : 	ASSERT(nBlockSize > 0);
; 853  : 
; 854  : 	m_nCount = 0;

  00064	c7 45 e4 00 00
	00 00		 mov	 DWORD PTR _specialIndiNameList$2[ebp+12], 0

; 855  : 	m_pNodeHead = m_pNodeTail = m_pNodeFree = NULL;

  0006b	c7 45 e8 00 00
	00 00		 mov	 DWORD PTR _specialIndiNameList$2[ebp+16], 0
  00072	c7 45 e0 00 00
	00 00		 mov	 DWORD PTR _specialIndiNameList$2[ebp+8], 0
  00079	c7 45 dc 00 00
	00 00		 mov	 DWORD PTR _specialIndiNameList$2[ebp+4], 0

; 856  : 	m_pBlocks = NULL;

  00080	c7 45 ec 00 00
	00 00		 mov	 DWORD PTR _specialIndiNameList$2[ebp+20], 0

; 857  : 	m_nBlockSize = nBlockSize;

  00087	c7 45 f0 0a 00
	00 00		 mov	 DWORD PTR _specialIndiNameList$2[ebp+24], 10 ; 0000000aH
; File D:\git\src\IBK\IBK_DRFN\ProjSrc\SrcChartEx\ChartAddIn\ChartDesignPropertyAddIn\ChartDesignPropertyAddIn\DlgGraphSetting.cpp

; 637  : 	if( !m_pIGraphInfoManager->GetIndicatorNameList( IGraphInfoManager::IEILT_SITE_DEFAULT, IGraphInfoManager::IEIIT_SPECIAL, specialIndiNameList)) return;

  0008e	8b 01		 mov	 eax, DWORD PTR [ecx]
  00090	8d 55 d8	 lea	 edx, DWORD PTR _specialIndiNameList$2[ebp]
  00093	52		 push	 edx
  00094	6a 01		 push	 1
  00096	6a 00		 push	 0
  00098	c7 45 fc 00 00
	00 00		 mov	 DWORD PTR __$EHRec$[ebp+8], 0
  0009f	ff 50 30	 call	 DWORD PTR [eax+48]
  000a2	85 c0		 test	 eax, eax
  000a4	75 2b		 jne	 SHORT $LN9@AddStringT
; File C:\Program Files (x86)\Microsoft Visual Studio\2019\Community\VC\Tools\MSVC\14.29.30133\atlmfc\include\afxtempl.h

; 867  : 	for (pNode = m_pNodeHead; pNode != NULL; pNode = pNode->pNext)

  000a6	8b 75 dc	 mov	 esi, DWORD PTR _specialIndiNameList$2[ebp+4]

; 878  : {

  000a9	c7 45 fc 01 00
	00 00		 mov	 DWORD PTR __$EHRec$[ebp+8], 1
  000b0	c7 45 d8 00 00
	00 00		 mov	 DWORD PTR _specialIndiNameList$2[ebp], OFFSET ??_7?$CList@V?$CStringT@DV?$StrTraitMFC_DLL@DV?$ChTraitsCRT@D@ATL@@@@@ATL@@V12@@@6B@

; 867  : 	for (pNode = m_pNodeHead; pNode != NULL; pNode = pNode->pNext)

  000b7	85 f6		 test	 esi, esi
  000b9	74 74		 je	 SHORT $LN36@AddStringT
  000bb	0f 1f 44 00 00	 npad	 5
$LL20@AddStringT:

; 868  : 		pNode->data.~TYPE();

  000c0	8d 4e 08	 lea	 ecx, DWORD PTR [esi+8]
  000c3	ff 15 00 00 00
	00		 call	 DWORD PTR __imp_??1?$CStringT@DV?$StrTraitMFC_DLL@DV?$ChTraitsCRT@D@ATL@@@@@ATL@@QAE@XZ

; 867  : 	for (pNode = m_pNodeHead; pNode != NULL; pNode = pNode->pNext)

  000c9	8b 36		 mov	 esi, DWORD PTR [esi]
  000cb	85 f6		 test	 esi, esi
  000cd	75 f1		 jne	 SHORT $LL20@AddStringT
; File D:\git\src\IBK\IBK_DRFN\ProjSrc\SrcChartEx\ChartAddIn\ChartDesignPropertyAddIn\ChartDesignPropertyAddIn\DlgGraphSetting.cpp

; 637  : 	if( !m_pIGraphInfoManager->GetIndicatorNameList( IGraphInfoManager::IEILT_SITE_DEFAULT, IGraphInfoManager::IEIIT_SPECIAL, specialIndiNameList)) return;

  000cf	eb 5e		 jmp	 SHORT $LN36@AddStringT
$LN9@AddStringT:

; 638  : 
; 639  : 	POSITION pos = specialIndiNameList.GetHeadPosition();

  000d1	8b 75 dc	 mov	 esi, DWORD PTR _specialIndiNameList$2[ebp+4]
  000d4	85 f6		 test	 esi, esi

; 640  : 	while(pos != NULL) m_IndicatorFuctionComboBox.AddString( _MTOL2( specialIndiNameList.GetNext(pos)));

  000d6	74 32		 je	 SHORT $LN7@AddStringT
$LL6@AddStringT:
  000d8	6a 00		 push	 0
  000da	ff 76 08	 push	 DWORD PTR [esi+8]
; File C:\Program Files (x86)\Microsoft Visual Studio\2019\Community\VC\Tools\MSVC\14.29.30133\atlmfc\include\afxtempl.h

; 811  : 	{ CNode* pNode = (CNode*) rPosition;

  000dd	8d 06		 lea	 eax, DWORD PTR [esi]
; File D:\git\src\IBK\IBK_DRFN\ProjSrc\SrcChartEx\ChartAddIn\ChartDesignPropertyAddIn\ChartDesignPropertyAddIn\DlgGraphSetting.cpp

; 640  : 	while(pos != NULL) m_IndicatorFuctionComboBox.AddString( _MTOL2( specialIndiNameList.GetNext(pos)));

  000df	b9 00 00 00 00	 mov	 ecx, OFFSET ?g_iMetaTable@@3VIMetaTable@@A ; g_iMetaTable
; File C:\Program Files (x86)\Microsoft Visual Studio\2019\Community\VC\Tools\MSVC\14.29.30133\atlmfc\include\afxtempl.h

; 813  : 		rPosition = (POSITION) pNode->pNext;

  000e4	8b 36		 mov	 esi, DWORD PTR [esi]
; File D:\git\src\IBK\IBK_DRFN\ProjSrc\SrcChartEx\ChartAddIn\ChartDesignPropertyAddIn\ChartDesignPropertyAddIn\DlgGraphSetting.cpp

; 640  : 	while(pos != NULL) m_IndicatorFuctionComboBox.AddString( _MTOL2( specialIndiNameList.GetNext(pos)));

  000e6	6a 02		 push	 2
  000e8	ff b7 88 03 00
	00		 push	 DWORD PTR [edi+904]
  000ee	e8 00 00 00 00	 call	 ?GetLanguageText@IMetaTable@@QAEPBDPAUHWND__@@W4E_CODEPAGE@1@PBDH@Z ; IMetaTable::GetLanguageText
; File C:\Program Files (x86)\Microsoft Visual Studio\2019\Community\VC\Tools\MSVC\14.29.30133\atlmfc\include\afxwin2.inl

; 795  : 	{ ASSERT(::IsWindow(m_hWnd)); return (int)::SendMessage(m_hWnd, CB_ADDSTRING, 0, (LPARAM)lpszString); }

  000f3	50		 push	 eax
  000f4	6a 00		 push	 0
  000f6	68 43 01 00 00	 push	 323			; 00000143H
  000fb	ff b7 e0 01 00
	00		 push	 DWORD PTR [edi+480]
  00101	ff d3		 call	 ebx
; File D:\git\src\IBK\IBK_DRFN\ProjSrc\SrcChartEx\ChartAddIn\ChartDesignPropertyAddIn\ChartDesignPropertyAddIn\DlgGraphSetting.cpp

; 640  : 	while(pos != NULL) m_IndicatorFuctionComboBox.AddString( _MTOL2( specialIndiNameList.GetNext(pos)));

  00103	85 f6		 test	 esi, esi
  00105	75 d1		 jne	 SHORT $LL6@AddStringT
  00107	8b 75 dc	 mov	 esi, DWORD PTR _specialIndiNameList$2[ebp+4]
$LN7@AddStringT:
; File C:\Program Files (x86)\Microsoft Visual Studio\2019\Community\VC\Tools\MSVC\14.29.30133\atlmfc\include\afxtempl.h

; 878  : {

  0010a	c7 45 fc 02 00
	00 00		 mov	 DWORD PTR __$EHRec$[ebp+8], 2
  00111	c7 45 d8 00 00
	00 00		 mov	 DWORD PTR _specialIndiNameList$2[ebp], OFFSET ??_7?$CList@V?$CStringT@DV?$StrTraitMFC_DLL@DV?$ChTraitsCRT@D@ATL@@@@@ATL@@V12@@@6B@

; 867  : 	for (pNode = m_pNodeHead; pNode != NULL; pNode = pNode->pNext)

  00118	85 f6		 test	 esi, esi
  0011a	74 13		 je	 SHORT $LN36@AddStringT
  0011c	0f 1f 40 00	 npad	 4
$LL37@AddStringT:

; 868  : 		pNode->data.~TYPE();

  00120	8d 4e 08	 lea	 ecx, DWORD PTR [esi+8]
  00123	ff 15 00 00 00
	00		 call	 DWORD PTR __imp_??1?$CStringT@DV?$StrTraitMFC_DLL@DV?$ChTraitsCRT@D@ATL@@@@@ATL@@QAE@XZ

; 867  : 	for (pNode = m_pNodeHead; pNode != NULL; pNode = pNode->pNext)

  00129	8b 36		 mov	 esi, DWORD PTR [esi]
  0012b	85 f6		 test	 esi, esi
  0012d	75 f1		 jne	 SHORT $LL37@AddStringT
$LN36@AddStringT:
; File D:\git\src\IBK\IBK_DRFN\ProjSrc\SrcChartEx\ChartAddIn\ChartDesignPropertyAddIn\ChartDesignPropertyAddIn\DlgGraphSetting.cpp

; 357  : 	int nIndex = m_IndicatorFuctionComboBox.FindString(0, _MTOL2( m_strIndicatorName));

  0012f	8b 4d ec	 mov	 ecx, DWORD PTR _specialIndiNameList$2[ebp+20]
  00132	c7 45 e4 00 00
	00 00		 mov	 DWORD PTR _specialIndiNameList$2[ebp+12], 0
  00139	c7 45 e8 00 00
	00 00		 mov	 DWORD PTR _specialIndiNameList$2[ebp+16], 0
  00140	c7 45 e0 00 00
	00 00		 mov	 DWORD PTR _specialIndiNameList$2[ebp+8], 0
  00147	c7 45 dc 00 00
	00 00		 mov	 DWORD PTR _specialIndiNameList$2[ebp+4], 0
  0014e	e8 00 00 00 00	 call	 ?FreeDataChain@CPlex@@QAEXXZ ; CPlex::FreeDataChain
  00153	c7 45 ec 00 00
	00 00		 mov	 DWORD PTR _specialIndiNameList$2[ebp+20], 0
  0015a	c7 45 fc ff ff
	ff ff		 mov	 DWORD PTR __$EHRec$[ebp+8], -1
  00161	eb 07		 jmp	 SHORT $LN3@AddStringT
$LN2@AddStringT:

; 353  : 		AddStringToIndicatorFunctionComboWhenSpecialGraphType();
; 354  : 	else
; 355  : 		AddStringToIndicatorFunctionComboWhenNoSpecialGraphType();

  00163	8b cf		 mov	 ecx, edi
  00165	e8 00 00 00 00	 call	 ?AddStringToIndicatorFunctionComboWhenNoSpecialGraphType@CDlgGraphSetting@@AAEXXZ ; CDlgGraphSetting::AddStringToIndicatorFunctionComboWhenNoSpecialGraphType
$LN3@AddStringT:

; 357  : 	int nIndex = m_IndicatorFuctionComboBox.FindString(0, _MTOL2( m_strIndicatorName));

  0016a	6a 00		 push	 0
  0016c	ff b7 40 02 00
	00		 push	 DWORD PTR [edi+576]
  00172	b9 00 00 00 00	 mov	 ecx, OFFSET ?g_iMetaTable@@3VIMetaTable@@A ; g_iMetaTable
  00177	6a 02		 push	 2
  00179	ff b7 88 03 00
	00		 push	 DWORD PTR [edi+904]
  0017f	e8 00 00 00 00	 call	 ?GetLanguageText@IMetaTable@@QAEPBDPAUHWND__@@W4E_CODEPAGE@1@PBDH@Z ; IMetaTable::GetLanguageText
; File C:\Program Files (x86)\Microsoft Visual Studio\2019\Community\VC\Tools\MSVC\14.29.30133\atlmfc\include\afxwin2.inl

; 805  : 	{ ASSERT(::IsWindow(m_hWnd)); return (int)::SendMessage(m_hWnd, CB_FINDSTRING, nStartAfter,

  00184	50		 push	 eax
  00185	6a 00		 push	 0
  00187	68 4c 01 00 00	 push	 332			; 0000014cH
  0018c	ff b7 e0 01 00
	00		 push	 DWORD PTR [edi+480]
  00192	ff d3		 call	 ebx

; 767  : 	{ ASSERT(::IsWindow(m_hWnd)); return (int)::SendMessage(m_hWnd, CB_SETCURSEL, nSelect, 0); }

  00194	6a 00		 push	 0
  00196	50		 push	 eax
  00197	68 4e 01 00 00	 push	 334			; 0000014eH
  0019c	ff b7 e0 01 00
	00		 push	 DWORD PTR [edi+480]
  001a2	ff d3		 call	 ebx
; File D:\git\src\IBK\IBK_DRFN\ProjSrc\SrcChartEx\ChartAddIn\ChartDesignPropertyAddIn\ChartDesignPropertyAddIn\DlgGraphSetting.cpp

; 359  : }

  001a4	8b 4d f4	 mov	 ecx, DWORD PTR __$EHRec$[ebp]
  001a7	64 89 0d 00 00
	00 00		 mov	 DWORD PTR fs:0, ecx
  001ae	59		 pop	 ecx
  001af	5f		 pop	 edi
  001b0	5e		 pop	 esi
  001b1	5b		 pop	 ebx
  001b2	8b e5		 mov	 esp, ebp
  001b4	5d		 pop	 ebp
  001b5	c3		 ret	 0
_TEXT	ENDS
;	COMDAT text$x
text$x	SEGMENT
__unwindfunclet$?AddStringToIndicatorFunctionCombo@CDlgGraphSetting@@AAEXXZ$0:
  00000	8d 4d d8	 lea	 ecx, DWORD PTR _specialIndiNameList$2[ebp]
  00003	e9 00 00 00 00	 jmp	 ??1?$CList@V?$CStringT@DV?$StrTraitMFC_DLL@DV?$ChTraitsCRT@D@ATL@@@@@ATL@@V12@@@UAE@XZ ; CList<ATL::CStringT<char,StrTraitMFC_DLL<char,ATL::ChTraitsCRT<char> > >,ATL::CStringT<char,StrTraitMFC_DLL<char,ATL::ChTraitsCRT<char> > > >::~CList<ATL::CStringT<char,StrTraitMFC_DLL<char,ATL::ChTraitsCRT<char> > >,ATL::CStringT<char,StrTraitMFC_DLL<char,ATL::ChTraitsCRT<char> > > >
  00008	cc		 int	 3
  00009	cc		 int	 3
  0000a	cc		 int	 3
  0000b	cc		 int	 3
  0000c	cc		 int	 3
__ehhandler$?AddStringToIndicatorFunctionCombo@CDlgGraphSetting@@AAEXXZ:
  0000d	90		 npad	 1
  0000e	90		 npad	 1
  0000f	8b 54 24 08	 mov	 edx, DWORD PTR [esp+8]
  00013	8d 42 0c	 lea	 eax, DWORD PTR [edx+12]
  00016	8b 4a d4	 mov	 ecx, DWORD PTR [edx-44]
  00019	33 c8		 xor	 ecx, eax
  0001b	e8 00 00 00 00	 call	 @__security_check_cookie@4
  00020	b8 00 00 00 00	 mov	 eax, OFFSET __ehfuncinfo$?AddStringToIndicatorFunctionCombo@CDlgGraphSetting@@AAEXXZ
  00025	e9 00 00 00 00	 jmp	 ___CxxFrameHandler3
text$x	ENDS
?AddStringToIndicatorFunctionCombo@CDlgGraphSetting@@AAEXXZ ENDP ; CDlgGraphSetting::AddStringToIndicatorFunctionCombo
; Function compile flags: /Ogtp
; File D:\git\src\IBK\IBK_DRFN\ProjSrc\SrcChartEx\ChartAddIn\ChartDesignPropertyAddIn\ChartDesignPropertyAddIn\DlgGraphSetting.cpp
; File C:\Program Files (x86)\Microsoft Visual Studio\2019\Community\VC\Tools\MSVC\14.29.30133\atlmfc\include\cstringt.h
; File D:\git\src\IBK\IBK_DRFN\ProjSrc\SrcChartEx\ChartAddIn\ChartDesignPropertyAddIn\ChartDesignPropertyAddIn\DlgGraphSetting.cpp
; File C:\Program Files (x86)\Microsoft Visual Studio\2019\Community\VC\Tools\MSVC\14.29.30133\atlmfc\include\cstringt.h
; File D:\git\src\IBK\IBK_DRFN\ProjSrc\SrcChartEx\ChartAddIn\ChartDesignPropertyAddIn\ChartDesignPropertyAddIn\DlgGraphSetting.cpp
; File C:\Program Files (x86)\Microsoft Visual Studio\2019\Community\VC\Tools\MSVC\14.29.30133\atlmfc\include\cstringt.h
; File D:\git\src\IBK\IBK_DRFN\ProjSrc\SrcChartEx\ChartAddIn\ChartDesignPropertyAddIn\ChartDesignPropertyAddIn\DlgGraphSetting.cpp
; File C:\Program Files (x86)\Microsoft Visual Studio\2019\Community\VC\Tools\MSVC\14.29.30133\atlmfc\include\afxwin2.inl
; File D:\git\src\IBK\IBK_DRFN\ProjSrc\SrcChartEx\ChartAddIn\ChartDesignPropertyAddIn\ChartDesignPropertyAddIn\DlgGraphSetting.cpp
;	COMDAT ?AddStringToPacketCombo@CDlgGraphSetting@@AAEXXZ
_TEXT	SEGMENT
$T2 = -40						; size = 4
_selectedData$3 = -36					; size = 4
$T4 = -36						; size = 4
$T5 = -32						; size = 4
$T6 = -28						; size = 4
$T7 = -24						; size = 4
_szItemData$8 = -20					; size = 4
$T9 = -20						; size = 4
__szData$ = -16						; size = 4
__$EHRec$ = -12						; size = 12
?AddStringToPacketCombo@CDlgGraphSetting@@AAEXXZ PROC	; CDlgGraphSetting::AddStringToPacketCombo, COMDAT
; _this$ = ecx

; 210  : {

  00000	55		 push	 ebp
  00001	8b ec		 mov	 ebp, esp
  00003	6a ff		 push	 -1
  00005	68 00 00 00 00	 push	 __ehhandler$?AddStringToPacketCombo@CDlgGraphSetting@@AAEXXZ
  0000a	64 a1 00 00 00
	00		 mov	 eax, DWORD PTR fs:0
  00010	50		 push	 eax
  00011	83 ec 1c	 sub	 esp, 28			; 0000001cH
  00014	53		 push	 ebx
  00015	56		 push	 esi
  00016	57		 push	 edi
  00017	a1 00 00 00 00	 mov	 eax, DWORD PTR ___security_cookie
  0001c	33 c5		 xor	 eax, ebp
  0001e	50		 push	 eax
  0001f	8d 45 f4	 lea	 eax, DWORD PTR __$EHRec$[ebp]
  00022	64 a3 00 00 00
	00		 mov	 DWORD PTR fs:0, eax
  00028	8b d9		 mov	 ebx, ecx

; 211  : 	CString _szData = m_strAllItemInfoOfPacketPage;

  0002a	8d 83 7c 02 00
	00		 lea	 eax, DWORD PTR [ebx+636]
  00030	50		 push	 eax
  00031	8d 4d f0	 lea	 ecx, DWORD PTR __szData$[ebp]
  00034	ff 15 00 00 00
	00		 call	 DWORD PTR __imp_??0?$CStringT@DV?$StrTraitMFC_DLL@DV?$ChTraitsCRT@D@ATL@@@@@ATL@@QAE@ABV01@@Z

; 213  : 	if(_szData.Right(2) != "\r\n")

  0003a	6a 02		 push	 2
  0003c	8d 45 dc	 lea	 eax, DWORD PTR $T4[ebp]
  0003f	c7 45 fc 00 00
	00 00		 mov	 DWORD PTR __$EHRec$[ebp+8], 0
  00046	50		 push	 eax
  00047	8d 4d f0	 lea	 ecx, DWORD PTR __szData$[ebp]
  0004a	ff 15 00 00 00
	00		 call	 DWORD PTR __imp_?Right@?$CStringT@DV?$StrTraitMFC_DLL@DV?$ChTraitsCRT@D@ATL@@@@@ATL@@QBE?AV12@H@Z
; File C:\Program Files (x86)\Microsoft Visual Studio\2019\Community\VC\Tools\MSVC\14.29.30133\atlmfc\include\cstringt.h

; 2567 : 		return( str1.Compare( psz2 ) != 0 );

  00050	68 00 00 00 00	 push	 OFFSET ??_C@_02PCIJFNDE@?$AN?6@
  00055	8b c8		 mov	 ecx, eax
; File D:\git\src\IBK\IBK_DRFN\ProjSrc\SrcChartEx\ChartAddIn\ChartDesignPropertyAddIn\ChartDesignPropertyAddIn\DlgGraphSetting.cpp

; 213  : 	if(_szData.Right(2) != "\r\n")

  00057	c6 45 fc 01	 mov	 BYTE PTR __$EHRec$[ebp+8], 1
; File C:\Program Files (x86)\Microsoft Visual Studio\2019\Community\VC\Tools\MSVC\14.29.30133\atlmfc\include\cstringt.h

; 2567 : 		return( str1.Compare( psz2 ) != 0 );

  0005b	ff 15 00 00 00
	00		 call	 DWORD PTR __imp_?Compare@?$CStringT@DV?$StrTraitMFC_DLL@DV?$ChTraitsCRT@D@ATL@@@@@ATL@@QBEHPBD@Z
; File D:\git\src\IBK\IBK_DRFN\ProjSrc\SrcChartEx\ChartAddIn\ChartDesignPropertyAddIn\ChartDesignPropertyAddIn\DlgGraphSetting.cpp

; 213  : 	if(_szData.Right(2) != "\r\n")

  00061	8d 4d dc	 lea	 ecx, DWORD PTR $T4[ebp]
  00064	c6 45 fc 00	 mov	 BYTE PTR __$EHRec$[ebp+8], 0
; File C:\Program Files (x86)\Microsoft Visual Studio\2019\Community\VC\Tools\MSVC\14.29.30133\atlmfc\include\cstringt.h

; 2567 : 		return( str1.Compare( psz2 ) != 0 );

  00068	8b f0		 mov	 esi, eax
; File D:\git\src\IBK\IBK_DRFN\ProjSrc\SrcChartEx\ChartAddIn\ChartDesignPropertyAddIn\ChartDesignPropertyAddIn\DlgGraphSetting.cpp

; 213  : 	if(_szData.Right(2) != "\r\n")

  0006a	ff 15 00 00 00
	00		 call	 DWORD PTR __imp_??1?$CStringT@DV?$StrTraitMFC_DLL@DV?$ChTraitsCRT@D@ATL@@@@@ATL@@QAE@XZ
  00070	85 f6		 test	 esi, esi
  00072	74 0e		 je	 SHORT $LN5@AddStringT

; 214  : 		_szData += "\r\n";

  00074	68 00 00 00 00	 push	 OFFSET ??_C@_02PCIJFNDE@?$AN?6@
  00079	8d 4d f0	 lea	 ecx, DWORD PTR __szData$[ebp]
  0007c	ff 15 00 00 00
	00		 call	 DWORD PTR __imp_??Y?$CStringT@DV?$StrTraitMFC_DLL@DV?$ChTraitsCRT@D@ATL@@@@@ATL@@QAEAAV01@PBD@Z
$LN5@AddStringT:

; 215  : 
; 216  : 	int nCount = CDataConversion::GetStringDataCount(_szData, "\r\n");

  00082	68 00 00 00 00	 push	 OFFSET ??_C@_02PCIJFNDE@?$AN?6@
  00087	8d 4d ec	 lea	 ecx, DWORD PTR $T9[ebp]
  0008a	ff 15 00 00 00
	00		 call	 DWORD PTR __imp_??0?$CStringT@DV?$StrTraitMFC_DLL@DV?$ChTraitsCRT@D@ATL@@@@@ATL@@QAE@PBD@Z
  00090	8d 45 ec	 lea	 eax, DWORD PTR $T9[ebp]
  00093	c6 45 fc 02	 mov	 BYTE PTR __$EHRec$[ebp+8], 2
  00097	50		 push	 eax
  00098	8d 45 f0	 lea	 eax, DWORD PTR __szData$[ebp]
  0009b	50		 push	 eax
  0009c	e8 00 00 00 00	 call	 ?GetStringDataCount@CDataConversion@@SAHABV?$CStringT@DV?$StrTraitMFC_DLL@DV?$ChTraitsCRT@D@ATL@@@@@ATL@@0@Z ; CDataConversion::GetStringDataCount
  000a1	83 c4 08	 add	 esp, 8
  000a4	c6 45 fc 00	 mov	 BYTE PTR __$EHRec$[ebp+8], 0
  000a8	8d 4d ec	 lea	 ecx, DWORD PTR $T9[ebp]
  000ab	8b f8		 mov	 edi, eax
  000ad	ff 15 00 00 00
	00		 call	 DWORD PTR __imp_??1?$CStringT@DV?$StrTraitMFC_DLL@DV?$ChTraitsCRT@D@ATL@@@@@ATL@@QAE@XZ

; 217  : 	for(int i =0 ; i< nCount; i++)

  000b3	85 ff		 test	 edi, edi
  000b5	0f 8e 05 01 00
	00		 jle	 $LN3@AddStringT
  000bb	0f 1f 44 00 00	 npad	 5
$LL4@AddStringT:

; 218  : 	{
; 219  : 		CString szItemData = CDataConversion::GetStringData(_szData, "\r\n");

  000c0	68 00 00 00 00	 push	 OFFSET ??_C@_02PCIJFNDE@?$AN?6@
  000c5	8d 4d e8	 lea	 ecx, DWORD PTR $T7[ebp]
  000c8	ff 15 00 00 00
	00		 call	 DWORD PTR __imp_??0?$CStringT@DV?$StrTraitMFC_DLL@DV?$ChTraitsCRT@D@ATL@@@@@ATL@@QAE@PBD@Z
  000ce	6a 01		 push	 1
  000d0	8d 45 e8	 lea	 eax, DWORD PTR $T7[ebp]
  000d3	c6 45 fc 03	 mov	 BYTE PTR __$EHRec$[ebp+8], 3
  000d7	50		 push	 eax
  000d8	8d 45 f0	 lea	 eax, DWORD PTR __szData$[ebp]
  000db	50		 push	 eax
  000dc	8d 45 ec	 lea	 eax, DWORD PTR _szItemData$8[ebp]
  000df	50		 push	 eax
  000e0	e8 00 00 00 00	 call	 ?GetStringData@CDataConversion@@SA?AV?$CStringT@DV?$StrTraitMFC_DLL@DV?$ChTraitsCRT@D@ATL@@@@@ATL@@AAV23@ABV23@_N@Z ; CDataConversion::GetStringData
  000e5	83 c4 10	 add	 esp, 16			; 00000010H
  000e8	8d 4d e8	 lea	 ecx, DWORD PTR $T7[ebp]
  000eb	c6 45 fc 05	 mov	 BYTE PTR __$EHRec$[ebp+8], 5
  000ef	ff 15 00 00 00
	00		 call	 DWORD PTR __imp_??1?$CStringT@DV?$StrTraitMFC_DLL@DV?$ChTraitsCRT@D@ATL@@@@@ATL@@QAE@XZ

; 220  :  		int nCheck= atoi(CDataConversion::GetStringData(szItemData, ";"));

  000f5	68 00 00 00 00	 push	 OFFSET ??_C@_01ICJEACDI@?$DL@
  000fa	8d 4d e4	 lea	 ecx, DWORD PTR $T6[ebp]
  000fd	ff 15 00 00 00
	00		 call	 DWORD PTR __imp_??0?$CStringT@DV?$StrTraitMFC_DLL@DV?$ChTraitsCRT@D@ATL@@@@@ATL@@QAE@PBD@Z
  00103	6a 01		 push	 1
  00105	8d 45 e4	 lea	 eax, DWORD PTR $T6[ebp]
  00108	c6 45 fc 06	 mov	 BYTE PTR __$EHRec$[ebp+8], 6
  0010c	50		 push	 eax
  0010d	8d 45 ec	 lea	 eax, DWORD PTR _szItemData$8[ebp]
  00110	50		 push	 eax
  00111	8d 45 d8	 lea	 eax, DWORD PTR $T2[ebp]
  00114	50		 push	 eax
  00115	e8 00 00 00 00	 call	 ?GetStringData@CDataConversion@@SA?AV?$CStringT@DV?$StrTraitMFC_DLL@DV?$ChTraitsCRT@D@ATL@@@@@ATL@@AAV23@ABV23@_N@Z ; CDataConversion::GetStringData
  0011a	ff 30		 push	 DWORD PTR [eax]
  0011c	ff 15 00 00 00
	00		 call	 DWORD PTR __imp__atoi
  00122	83 c4 14	 add	 esp, 20			; 00000014H
  00125	8d 4d d8	 lea	 ecx, DWORD PTR $T2[ebp]
  00128	8b f0		 mov	 esi, eax
  0012a	ff 15 00 00 00
	00		 call	 DWORD PTR __imp_??1?$CStringT@DV?$StrTraitMFC_DLL@DV?$ChTraitsCRT@D@ATL@@@@@ATL@@QAE@XZ
  00130	8d 4d e4	 lea	 ecx, DWORD PTR $T6[ebp]
  00133	c6 45 fc 05	 mov	 BYTE PTR __$EHRec$[ebp+8], 5
  00137	ff 15 00 00 00
	00		 call	 DWORD PTR __imp_??1?$CStringT@DV?$StrTraitMFC_DLL@DV?$ChTraitsCRT@D@ATL@@@@@ATL@@QAE@XZ

; 221  : 		if(nCheck)

  0013d	85 f6		 test	 esi, esi
  0013f	74 69		 je	 SHORT $LN6@AddStringT

; 222  : 		{
; 223  : 			CString selectedData = CDataConversion::GetStringData(szItemData, ";");

  00141	68 00 00 00 00	 push	 OFFSET ??_C@_01ICJEACDI@?$DL@
  00146	8d 4d e0	 lea	 ecx, DWORD PTR $T5[ebp]
  00149	ff 15 00 00 00
	00		 call	 DWORD PTR __imp_??0?$CStringT@DV?$StrTraitMFC_DLL@DV?$ChTraitsCRT@D@ATL@@@@@ATL@@QAE@PBD@Z
  0014f	6a 01		 push	 1
  00151	8d 45 e0	 lea	 eax, DWORD PTR $T5[ebp]
  00154	c6 45 fc 07	 mov	 BYTE PTR __$EHRec$[ebp+8], 7
  00158	50		 push	 eax
  00159	8d 45 ec	 lea	 eax, DWORD PTR _szItemData$8[ebp]
  0015c	50		 push	 eax
  0015d	8d 45 dc	 lea	 eax, DWORD PTR _selectedData$3[ebp]
  00160	50		 push	 eax
  00161	e8 00 00 00 00	 call	 ?GetStringData@CDataConversion@@SA?AV?$CStringT@DV?$StrTraitMFC_DLL@DV?$ChTraitsCRT@D@ATL@@@@@ATL@@AAV23@ABV23@_N@Z ; CDataConversion::GetStringData
  00166	83 c4 10	 add	 esp, 16			; 00000010H
  00169	8d 4d e0	 lea	 ecx, DWORD PTR $T5[ebp]
  0016c	c6 45 fc 09	 mov	 BYTE PTR __$EHRec$[ebp+8], 9
  00170	ff 15 00 00 00
	00		 call	 DWORD PTR __imp_??1?$CStringT@DV?$StrTraitMFC_DLL@DV?$ChTraitsCRT@D@ATL@@@@@ATL@@QAE@XZ

; 224  : 			m_pPacketComboBox.AddString( _MTOL0( selectedData));

  00176	6a 00		 push	 0
  00178	ff 75 dc	 push	 DWORD PTR _selectedData$3[ebp]
  0017b	b9 00 00 00 00	 mov	 ecx, OFFSET ?g_iMetaTable@@3VIMetaTable@@A ; g_iMetaTable
  00180	6a 00		 push	 0
  00182	ff b3 88 03 00
	00		 push	 DWORD PTR [ebx+904]
  00188	e8 00 00 00 00	 call	 ?GetLanguageText@IMetaTable@@QAEPBDPAUHWND__@@W4E_CODEPAGE@1@PBDH@Z ; IMetaTable::GetLanguageText
; File C:\Program Files (x86)\Microsoft Visual Studio\2019\Community\VC\Tools\MSVC\14.29.30133\atlmfc\include\afxwin2.inl

; 795  : 	{ ASSERT(::IsWindow(m_hWnd)); return (int)::SendMessage(m_hWnd, CB_ADDSTRING, 0, (LPARAM)lpszString); }

  0018d	50		 push	 eax
  0018e	6a 00		 push	 0
  00190	68 43 01 00 00	 push	 323			; 00000143H
  00195	ff b3 48 01 00
	00		 push	 DWORD PTR [ebx+328]
  0019b	ff 15 00 00 00
	00		 call	 DWORD PTR __imp__SendMessageA@16
; File D:\git\src\IBK\IBK_DRFN\ProjSrc\SrcChartEx\ChartAddIn\ChartDesignPropertyAddIn\ChartDesignPropertyAddIn\DlgGraphSetting.cpp

; 225  : 		}

  001a1	8d 4d dc	 lea	 ecx, DWORD PTR _selectedData$3[ebp]
  001a4	ff 15 00 00 00
	00		 call	 DWORD PTR __imp_??1?$CStringT@DV?$StrTraitMFC_DLL@DV?$ChTraitsCRT@D@ATL@@@@@ATL@@QAE@XZ
$LN6@AddStringT:

; 226  : 	}

  001aa	8d 4d ec	 lea	 ecx, DWORD PTR _szItemData$8[ebp]
  001ad	c6 45 fc 00	 mov	 BYTE PTR __$EHRec$[ebp+8], 0
  001b1	ff 15 00 00 00
	00		 call	 DWORD PTR __imp_??1?$CStringT@DV?$StrTraitMFC_DLL@DV?$ChTraitsCRT@D@ATL@@@@@ATL@@QAE@XZ
  001b7	83 ef 01	 sub	 edi, 1
  001ba	0f 85 00 ff ff
	ff		 jne	 $LL4@AddStringT
$LN3@AddStringT:

; 227  : 	CheckPacketbyCheckedPacketItems();

  001c0	8b cb		 mov	 ecx, ebx
  001c2	e8 00 00 00 00	 call	 ?CheckPacketbyCheckedPacketItems@CDlgGraphSetting@@AAEXXZ ; CDlgGraphSetting::CheckPacketbyCheckedPacketItems

; 228  : }

  001c7	8d 4d f0	 lea	 ecx, DWORD PTR __szData$[ebp]
  001ca	ff 15 00 00 00
	00		 call	 DWORD PTR __imp_??1?$CStringT@DV?$StrTraitMFC_DLL@DV?$ChTraitsCRT@D@ATL@@@@@ATL@@QAE@XZ
  001d0	8b 4d f4	 mov	 ecx, DWORD PTR __$EHRec$[ebp]
  001d3	64 89 0d 00 00
	00 00		 mov	 DWORD PTR fs:0, ecx
  001da	59		 pop	 ecx
  001db	5f		 pop	 edi
  001dc	5e		 pop	 esi
  001dd	5b		 pop	 ebx
  001de	8b e5		 mov	 esp, ebp
  001e0	5d		 pop	 ebp
  001e1	c3		 ret	 0
_TEXT	ENDS
;	COMDAT text$x
text$x	SEGMENT
__unwindfunclet$?AddStringToPacketCombo@CDlgGraphSetting@@AAEXXZ$0:
  00000	8d 4d f0	 lea	 ecx, DWORD PTR __szData$[ebp]
  00003	ff 25 00 00 00
	00		 jmp	 DWORD PTR __imp_??1?$CStringT@DV?$StrTraitMFC_DLL@DV?$ChTraitsCRT@D@ATL@@@@@ATL@@QAE@XZ
__unwindfunclet$?AddStringToPacketCombo@CDlgGraphSetting@@AAEXXZ$1:
  00009	8d 4d dc	 lea	 ecx, DWORD PTR $T4[ebp]
  0000c	ff 25 00 00 00
	00		 jmp	 DWORD PTR __imp_??1?$CStringT@DV?$StrTraitMFC_DLL@DV?$ChTraitsCRT@D@ATL@@@@@ATL@@QAE@XZ
__unwindfunclet$?AddStringToPacketCombo@CDlgGraphSetting@@AAEXXZ$2:
  00012	8d 4d ec	 lea	 ecx, DWORD PTR $T9[ebp]
  00015	ff 25 00 00 00
	00		 jmp	 DWORD PTR __imp_??1?$CStringT@DV?$StrTraitMFC_DLL@DV?$ChTraitsCRT@D@ATL@@@@@ATL@@QAE@XZ
__unwindfunclet$?AddStringToPacketCombo@CDlgGraphSetting@@AAEXXZ$3:
  0001b	8d 4d e8	 lea	 ecx, DWORD PTR $T7[ebp]
  0001e	ff 25 00 00 00
	00		 jmp	 DWORD PTR __imp_??1?$CStringT@DV?$StrTraitMFC_DLL@DV?$ChTraitsCRT@D@ATL@@@@@ATL@@QAE@XZ
__unwindfunclet$?AddStringToPacketCombo@CDlgGraphSetting@@AAEXXZ$4:
  00024	8d 4d ec	 lea	 ecx, DWORD PTR _szItemData$8[ebp]
  00027	ff 25 00 00 00
	00		 jmp	 DWORD PTR __imp_??1?$CStringT@DV?$StrTraitMFC_DLL@DV?$ChTraitsCRT@D@ATL@@@@@ATL@@QAE@XZ
__unwindfunclet$?AddStringToPacketCombo@CDlgGraphSetting@@AAEXXZ$5:
  0002d	8d 4d e4	 lea	 ecx, DWORD PTR $T6[ebp]
  00030	ff 25 00 00 00
	00		 jmp	 DWORD PTR __imp_??1?$CStringT@DV?$StrTraitMFC_DLL@DV?$ChTraitsCRT@D@ATL@@@@@ATL@@QAE@XZ
__unwindfunclet$?AddStringToPacketCombo@CDlgGraphSetting@@AAEXXZ$7:
  00036	8d 4d e0	 lea	 ecx, DWORD PTR $T5[ebp]
  00039	ff 25 00 00 00
	00		 jmp	 DWORD PTR __imp_??1?$CStringT@DV?$StrTraitMFC_DLL@DV?$ChTraitsCRT@D@ATL@@@@@ATL@@QAE@XZ
__unwindfunclet$?AddStringToPacketCombo@CDlgGraphSetting@@AAEXXZ$8:
  0003f	8d 4d dc	 lea	 ecx, DWORD PTR _selectedData$3[ebp]
  00042	ff 25 00 00 00
	00		 jmp	 DWORD PTR __imp_??1?$CStringT@DV?$StrTraitMFC_DLL@DV?$ChTraitsCRT@D@ATL@@@@@ATL@@QAE@XZ
  00048	cc		 int	 3
  00049	cc		 int	 3
  0004a	cc		 int	 3
  0004b	cc		 int	 3
  0004c	cc		 int	 3
__ehhandler$?AddStringToPacketCombo@CDlgGraphSetting@@AAEXXZ:
  0004d	90		 npad	 1
  0004e	90		 npad	 1
  0004f	8b 54 24 08	 mov	 edx, DWORD PTR [esp+8]
  00053	8d 42 0c	 lea	 eax, DWORD PTR [edx+12]
  00056	8b 4a d4	 mov	 ecx, DWORD PTR [edx-44]
  00059	33 c8		 xor	 ecx, eax
  0005b	e8 00 00 00 00	 call	 @__security_check_cookie@4
  00060	b8 00 00 00 00	 mov	 eax, OFFSET __ehfuncinfo$?AddStringToPacketCombo@CDlgGraphSetting@@AAEXXZ
  00065	e9 00 00 00 00	 jmp	 ___CxxFrameHandler3
text$x	ENDS
?AddStringToPacketCombo@CDlgGraphSetting@@AAEXXZ ENDP	; CDlgGraphSetting::AddStringToPacketCombo
; Function compile flags: /Ogtp
; File D:\git\src\IBK\IBK_DRFN\ProjSrc\SrcChartEx\ChartAddIn\ChartDesignPropertyAddIn\ChartDesignPropertyAddIn\DlgGraphSetting.cpp
; File C:\Program Files (x86)\Microsoft Visual Studio\2019\Community\VC\Tools\MSVC\14.29.30133\atlmfc\include\afxwin1.inl
; File D:\git\src\IBK\IBK_DRFN\ProjSrc\SrcChartEx\ChartAddIn\ChartDesignPropertyAddIn\Include_Chart\Dll_Load\IMetaTable.h
; File C:\Program Files (x86)\Microsoft Visual Studio\2019\Community\VC\Tools\MSVC\14.29.30133\atlmfc\include\afxwin1.inl
; File D:\git\src\IBK\IBK_DRFN\ProjSrc\SrcChartEx\ChartAddIn\ChartDesignPropertyAddIn\ChartDesignPropertyAddIn\DlgGraphSetting.cpp
; File C:\Program Files (x86)\Microsoft Visual Studio\2019\Community\VC\Tools\MSVC\14.29.30133\atlmfc\include\afxcoll.inl
; File D:\git\src\IBK\IBK_DRFN\ProjSrc\SrcChartEx\ChartAddIn\ChartDesignPropertyAddIn\ChartDesignPropertyAddIn\DlgGraphSetting.cpp
; File C:\Program Files (x86)\Microsoft Visual Studio\2019\Community\VC\Tools\MSVC\14.29.30133\atlmfc\include\afxcoll.inl
; File D:\git\src\IBK\IBK_DRFN\ProjSrc\SrcChartEx\ChartAddIn\ChartDesignPropertyAddIn\ChartDesignPropertyAddIn\DlgGraphSetting.cpp
; File C:\Program Files (x86)\Microsoft Visual Studio\2019\Community\VC\Tools\MSVC\14.29.30133\atlmfc\include\afxcoll.inl
; File D:\git\src\IBK\IBK_DRFN\ProjSrc\SrcChartEx\ChartAddIn\ChartDesignPropertyAddIn\ChartDesignPropertyAddIn\DlgGraphSetting.cpp
; File C:\Program Files (x86)\Microsoft Visual Studio\2019\Community\VC\Tools\MSVC\14.29.30133\atlmfc\include\afxcoll.inl
; File D:\git\src\IBK\IBK_DRFN\ProjSrc\SrcChartEx\ChartAddIn\ChartDesignPropertyAddIn\ChartDesignPropertyAddIn\DlgGraphSetting.cpp
; File C:\Program Files (x86)\Microsoft Visual Studio\2019\Community\VC\Tools\MSVC\14.29.30133\atlmfc\include\afxcoll.inl
; File D:\git\src\IBK\IBK_DRFN\ProjSrc\SrcChartEx\ChartAddIn\ChartDesignPropertyAddIn\ChartDesignPropertyAddIn\DlgGraphSetting.cpp
; File D:\git\src\IBK\IBK_DRFN\ProjSrc\SrcChartEx\ChartAddIn\ChartDesignPropertyAddIn\Include_Chart\Dll_Load\IMetaTable.h
; File C:\Program Files (x86)\Microsoft Visual Studio\2019\Community\VC\Tools\MSVC\14.29.30133\atlmfc\include\afxwin1.inl
; File D:\git\src\IBK\IBK_DRFN\ProjSrc\SrcChartEx\ChartAddIn\ChartDesignPropertyAddIn\ChartDesignPropertyAddIn\DlgGraphSetting.cpp
;	COMDAT ?CreateToolTip@CDlgGraphSetting@@AAEXXZ
_TEXT	SEGMENT
_dwaInfo$ = -36						; size = 20
___mlrs__$ = -16					; size = 4
__$EHRec$ = -12						; size = 12
?CreateToolTip@CDlgGraphSetting@@AAEXXZ PROC		; CDlgGraphSetting::CreateToolTip, COMDAT
; _this$ = ecx

; 232  : {

  00000	55		 push	 ebp
  00001	8b ec		 mov	 ebp, esp
  00003	6a ff		 push	 -1
  00005	68 00 00 00 00	 push	 __ehhandler$?CreateToolTip@CDlgGraphSetting@@AAEXXZ
  0000a	64 a1 00 00 00
	00		 mov	 eax, DWORD PTR fs:0
  00010	50		 push	 eax
  00011	83 ec 18	 sub	 esp, 24			; 00000018H
  00014	53		 push	 ebx
  00015	56		 push	 esi
  00016	57		 push	 edi
  00017	a1 00 00 00 00	 mov	 eax, DWORD PTR ___security_cookie
  0001c	33 c5		 xor	 eax, ebp
  0001e	50		 push	 eax
  0001f	8d 45 f4	 lea	 eax, DWORD PTR __$EHRec$[ebp]
  00022	64 a3 00 00 00
	00		 mov	 DWORD PTR fs:0, eax
  00028	8b d9		 mov	 ebx, ecx

; 233  : 	ML_SET_LANGUAGE_RES();

  0002a	e8 00 00 00 00	 call	 ?AfxGetStaticModuleState@@YGPAVAFX_MODULE_STATE@@XZ ; AfxGetStaticModuleState
  0002f	b9 00 00 00 00	 mov	 ecx, OFFSET ?g_iMetaTable@@3VIMetaTable@@A ; g_iMetaTable
  00034	8b 40 08	 mov	 eax, DWORD PTR [eax+8]
  00037	50		 push	 eax
  00038	ff b3 88 03 00
	00		 push	 DWORD PTR [ebx+904]
  0003e	e8 00 00 00 00	 call	 ?LoadResourceDLL@IMetaTable@@QAEPAUHINSTANCE__@@PAUHWND__@@PAU2@@Z ; IMetaTable::LoadResourceDLL
  00043	8b f8		 mov	 edi, eax
; File C:\Program Files (x86)\Microsoft Visual Studio\2019\Community\VC\Tools\MSVC\14.29.30133\atlmfc\include\afxwin1.inl

; 25   : 		return afxCurrentResourceHandle; }

  00045	e8 00 00 00 00	 call	 ?AfxGetModuleState@@YGPAVAFX_MODULE_STATE@@XZ ; AfxGetModuleState
; File D:\git\src\IBK\IBK_DRFN\ProjSrc\SrcChartEx\ChartAddIn\ChartDesignPropertyAddIn\Include_Chart\Dll_Load\IMetaTable.h

; 1032 : 		m_hInstance = AfxGetResourceHandle();

  0004a	8b 70 0c	 mov	 esi, DWORD PTR [eax+12]
  0004d	89 75 f0	 mov	 DWORD PTR ___mlrs__$[ebp], esi
; File C:\Program Files (x86)\Microsoft Visual Studio\2019\Community\VC\Tools\MSVC\14.29.30133\atlmfc\include\afxwin1.inl

; 27   : 	{ ASSERT(hInstResource != NULL); afxCurrentResourceHandle = hInstResource; }

  00050	e8 00 00 00 00	 call	 ?AfxGetModuleState@@YGPAVAFX_MODULE_STATE@@XZ ; AfxGetModuleState
  00055	89 78 0c	 mov	 DWORD PTR [eax+12], edi
; File D:\git\src\IBK\IBK_DRFN\ProjSrc\SrcChartEx\ChartAddIn\ChartDesignPropertyAddIn\ChartDesignPropertyAddIn\DlgGraphSetting.cpp

; 234  : 	m_toolTip.Create( this );

  00058	8d bb 98 02 00
	00		 lea	 edi, DWORD PTR [ebx+664]
  0005e	c7 45 fc 00 00
	00 00		 mov	 DWORD PTR __$EHRec$[ebp+8], 0
  00065	53		 push	 ebx
  00066	8b cf		 mov	 ecx, edi
  00068	e8 00 00 00 00	 call	 ?Create@CDlgToolTip@@QAEXPAVCWnd@@@Z ; CDlgToolTip::Create

; 235  : 	CDWordArray dwaInfo;

  0006d	8d 4d dc	 lea	 ecx, DWORD PTR _dwaInfo$[ebp]
  00070	e8 00 00 00 00	 call	 ??0CDWordArray@@QAE@XZ	; CDWordArray::CDWordArray
; File C:\Program Files (x86)\Microsoft Visual Studio\2019\Community\VC\Tools\MSVC\14.29.30133\atlmfc\include\afxcoll.inl

; 114  : 	{ SetSize(0); }

  00075	6a ff		 push	 -1
  00077	6a 00		 push	 0
  00079	8d 4d dc	 lea	 ecx, DWORD PTR _dwaInfo$[ebp]
; File D:\git\src\IBK\IBK_DRFN\ProjSrc\SrcChartEx\ChartAddIn\ChartDesignPropertyAddIn\ChartDesignPropertyAddIn\DlgGraphSetting.cpp

; 235  : 	CDWordArray dwaInfo;

  0007c	c6 45 fc 01	 mov	 BYTE PTR __$EHRec$[ebp+8], 1
; File C:\Program Files (x86)\Microsoft Visual Studio\2019\Community\VC\Tools\MSVC\14.29.30133\atlmfc\include\afxcoll.inl

; 114  : 	{ SetSize(0); }

  00080	e8 00 00 00 00	 call	 ?SetSize@CDWordArray@@QAEXHH@Z ; CDWordArray::SetSize

; 137  : 		SetAtGrow(nIndex, newElement);

  00085	68 26 04 00 00	 push	 1062			; 00000426H
  0008a	ff 75 e4	 push	 DWORD PTR _dwaInfo$[ebp+8]
  0008d	8d 4d dc	 lea	 ecx, DWORD PTR _dwaInfo$[ebp]
  00090	e8 00 00 00 00	 call	 ?SetAtGrow@CDWordArray@@QAEXHK@Z ; CDWordArray::SetAtGrow
; File D:\git\src\IBK\IBK_DRFN\ProjSrc\SrcChartEx\ChartAddIn\ChartDesignPropertyAddIn\ChartDesignPropertyAddIn\DlgGraphSetting.cpp

; 239  : 	m_toolTip.AddControlInfo( IDC_STATIC11, dwaInfo);

  00095	6a 00		 push	 0
  00097	68 ff ff dc 00	 push	 14483455		; 00dcffffH
  0009c	8d 45 dc	 lea	 eax, DWORD PTR _dwaInfo$[ebp]
  0009f	8b cf		 mov	 ecx, edi
  000a1	50		 push	 eax
  000a2	68 89 1b 00 00	 push	 7049			; 00001b89H
  000a7	e8 00 00 00 00	 call	 ?AddControlInfo@CDlgToolTip@@QAEHIAAVCDWordArray@@KK@Z ; CDlgToolTip::AddControlInfo

; 240  : 	m_toolTip.AddControlInfo( IDC_INDICATORFUNCTIONNAME, dwaInfo);

  000ac	6a 00		 push	 0
  000ae	68 ff ff dc 00	 push	 14483455		; 00dcffffH
  000b3	8d 45 dc	 lea	 eax, DWORD PTR _dwaInfo$[ebp]
  000b6	8b cf		 mov	 ecx, edi
  000b8	50		 push	 eax
  000b9	68 2d 27 00 00	 push	 10029			; 0000272dH
  000be	e8 00 00 00 00	 call	 ?AddControlInfo@CDlgToolTip@@QAEHIAAVCDWordArray@@KK@Z ; CDlgToolTip::AddControlInfo
; File C:\Program Files (x86)\Microsoft Visual Studio\2019\Community\VC\Tools\MSVC\14.29.30133\atlmfc\include\afxcoll.inl

; 114  : 	{ SetSize(0); }

  000c3	6a ff		 push	 -1
  000c5	6a 00		 push	 0
  000c7	8d 4d dc	 lea	 ecx, DWORD PTR _dwaInfo$[ebp]
  000ca	e8 00 00 00 00	 call	 ?SetSize@CDWordArray@@QAEXHH@Z ; CDWordArray::SetSize

; 137  : 		SetAtGrow(nIndex, newElement);

  000cf	68 27 04 00 00	 push	 1063			; 00000427H
  000d4	ff 75 e4	 push	 DWORD PTR _dwaInfo$[ebp+8]
  000d7	8d 4d dc	 lea	 ecx, DWORD PTR _dwaInfo$[ebp]
  000da	e8 00 00 00 00	 call	 ?SetAtGrow@CDWordArray@@QAEXHK@Z ; CDWordArray::SetAtGrow
; File D:\git\src\IBK\IBK_DRFN\ProjSrc\SrcChartEx\ChartAddIn\ChartDesignPropertyAddIn\ChartDesignPropertyAddIn\DlgGraphSetting.cpp

; 244  : 	m_toolTip.AddControlInfo( IDC_STATIC12, dwaInfo);

  000df	6a 00		 push	 0
  000e1	68 ff ff dc 00	 push	 14483455		; 00dcffffH
  000e6	8d 45 dc	 lea	 eax, DWORD PTR _dwaInfo$[ebp]
  000e9	8b cf		 mov	 ecx, edi
  000eb	50		 push	 eax
  000ec	68 8a 1b 00 00	 push	 7050			; 00001b8aH
  000f1	e8 00 00 00 00	 call	 ?AddControlInfo@CDlgToolTip@@QAEHIAAVCDWordArray@@KK@Z ; CDlgToolTip::AddControlInfo

; 245  : 	m_toolTip.AddControlInfo( IDC_COMBO_PACKETLIST, dwaInfo);

  000f6	6a 00		 push	 0
  000f8	68 ff ff dc 00	 push	 14483455		; 00dcffffH
  000fd	8d 45 dc	 lea	 eax, DWORD PTR _dwaInfo$[ebp]
  00100	8b cf		 mov	 ecx, edi
  00102	50		 push	 eax
  00103	68 2e 27 00 00	 push	 10030			; 0000272eH
  00108	e8 00 00 00 00	 call	 ?AddControlInfo@CDlgToolTip@@QAEHIAAVCDWordArray@@KK@Z ; CDlgToolTip::AddControlInfo
; File C:\Program Files (x86)\Microsoft Visual Studio\2019\Community\VC\Tools\MSVC\14.29.30133\atlmfc\include\afxcoll.inl

; 114  : 	{ SetSize(0); }

  0010d	6a ff		 push	 -1
  0010f	6a 00		 push	 0
  00111	8d 4d dc	 lea	 ecx, DWORD PTR _dwaInfo$[ebp]
  00114	e8 00 00 00 00	 call	 ?SetSize@CDWordArray@@QAEXHH@Z ; CDWordArray::SetSize

; 137  : 		SetAtGrow(nIndex, newElement);

  00119	68 28 04 00 00	 push	 1064			; 00000428H
  0011e	ff 75 e4	 push	 DWORD PTR _dwaInfo$[ebp+8]
  00121	8d 4d dc	 lea	 ecx, DWORD PTR _dwaInfo$[ebp]
  00124	e8 00 00 00 00	 call	 ?SetAtGrow@CDWordArray@@QAEXHK@Z ; CDWordArray::SetAtGrow
; File D:\git\src\IBK\IBK_DRFN\ProjSrc\SrcChartEx\ChartAddIn\ChartDesignPropertyAddIn\ChartDesignPropertyAddIn\DlgGraphSetting.cpp

; 249  : 	m_toolTip.AddControlInfo( IDC_STATIC20, dwaInfo);

  00129	6a 00		 push	 0
  0012b	68 ff ff dc 00	 push	 14483455		; 00dcffffH
  00130	8d 45 dc	 lea	 eax, DWORD PTR _dwaInfo$[ebp]
  00133	8b cf		 mov	 ecx, edi
  00135	50		 push	 eax
  00136	68 a6 1b 00 00	 push	 7078			; 00001ba6H
  0013b	e8 00 00 00 00	 call	 ?AddControlInfo@CDlgToolTip@@QAEHIAAVCDWordArray@@KK@Z ; CDlgToolTip::AddControlInfo

; 250  : 	m_toolTip.AddControlInfo( IDC_COMBO_SACLESTYLE, dwaInfo);

  00140	6a 00		 push	 0
  00142	68 ff ff dc 00	 push	 14483455		; 00dcffffH
  00147	8d 45 dc	 lea	 eax, DWORD PTR _dwaInfo$[ebp]
  0014a	8b cf		 mov	 ecx, edi
  0014c	50		 push	 eax
  0014d	68 a4 1b 00 00	 push	 7076			; 00001ba4H
  00152	e8 00 00 00 00	 call	 ?AddControlInfo@CDlgToolTip@@QAEHIAAVCDWordArray@@KK@Z ; CDlgToolTip::AddControlInfo
; File C:\Program Files (x86)\Microsoft Visual Studio\2019\Community\VC\Tools\MSVC\14.29.30133\atlmfc\include\afxcoll.inl

; 114  : 	{ SetSize(0); }

  00157	6a ff		 push	 -1
  00159	6a 00		 push	 0
  0015b	8d 4d dc	 lea	 ecx, DWORD PTR _dwaInfo$[ebp]
  0015e	e8 00 00 00 00	 call	 ?SetSize@CDWordArray@@QAEXHH@Z ; CDWordArray::SetSize

; 137  : 		SetAtGrow(nIndex, newElement);

  00163	68 29 04 00 00	 push	 1065			; 00000429H
  00168	ff 75 e4	 push	 DWORD PTR _dwaInfo$[ebp+8]
  0016b	8d 4d dc	 lea	 ecx, DWORD PTR _dwaInfo$[ebp]
  0016e	e8 00 00 00 00	 call	 ?SetAtGrow@CDWordArray@@QAEXHK@Z ; CDWordArray::SetAtGrow
  00173	68 2a 04 00 00	 push	 1066			; 0000042aH
  00178	ff 75 e4	 push	 DWORD PTR _dwaInfo$[ebp+8]
  0017b	8d 4d dc	 lea	 ecx, DWORD PTR _dwaInfo$[ebp]
  0017e	e8 00 00 00 00	 call	 ?SetAtGrow@CDWordArray@@QAEXHK@Z ; CDWordArray::SetAtGrow
; File D:\git\src\IBK\IBK_DRFN\ProjSrc\SrcChartEx\ChartAddIn\ChartDesignPropertyAddIn\ChartDesignPropertyAddIn\DlgGraphSetting.cpp

; 255  : 	m_toolTip.AddControlInfo( IDC_STATIC13, dwaInfo);

  00183	6a 00		 push	 0
  00185	68 ff ff dc 00	 push	 14483455		; 00dcffffH
  0018a	8d 45 dc	 lea	 eax, DWORD PTR _dwaInfo$[ebp]
  0018d	8b cf		 mov	 ecx, edi
  0018f	50		 push	 eax
  00190	68 8b 1b 00 00	 push	 7051			; 00001b8bH
  00195	e8 00 00 00 00	 call	 ?AddControlInfo@CDlgToolTip@@QAEHIAAVCDWordArray@@KK@Z ; CDlgToolTip::AddControlInfo

; 256  : }

  0019a	8d 4d dc	 lea	 ecx, DWORD PTR _dwaInfo$[ebp]
  0019d	e8 00 00 00 00	 call	 ??1CDWordArray@@UAE@XZ	; CDWordArray::~CDWordArray
; File D:\git\src\IBK\IBK_DRFN\ProjSrc\SrcChartEx\ChartAddIn\ChartDesignPropertyAddIn\Include_Chart\Dll_Load\IMetaTable.h

; 1036 : 	{

  001a2	c7 45 fc 02 00
	00 00		 mov	 DWORD PTR __$EHRec$[ebp+8], 2
; File C:\Program Files (x86)\Microsoft Visual Studio\2019\Community\VC\Tools\MSVC\14.29.30133\atlmfc\include\afxwin1.inl

; 27   : 	{ ASSERT(hInstResource != NULL); afxCurrentResourceHandle = hInstResource; }

  001a9	e8 00 00 00 00	 call	 ?AfxGetModuleState@@YGPAVAFX_MODULE_STATE@@XZ ; AfxGetModuleState
  001ae	89 70 0c	 mov	 DWORD PTR [eax+12], esi
; File D:\git\src\IBK\IBK_DRFN\ProjSrc\SrcChartEx\ChartAddIn\ChartDesignPropertyAddIn\ChartDesignPropertyAddIn\DlgGraphSetting.cpp

; 256  : }

  001b1	8b 4d f4	 mov	 ecx, DWORD PTR __$EHRec$[ebp]
  001b4	64 89 0d 00 00
	00 00		 mov	 DWORD PTR fs:0, ecx
  001bb	59		 pop	 ecx
  001bc	5f		 pop	 edi
  001bd	5e		 pop	 esi
  001be	5b		 pop	 ebx
  001bf	8b e5		 mov	 esp, ebp
  001c1	5d		 pop	 ebp
  001c2	c3		 ret	 0
_TEXT	ENDS
;	COMDAT text$x
text$x	SEGMENT
__unwindfunclet$?CreateToolTip@CDlgGraphSetting@@AAEXXZ$0:
  00000	8d 4d f0	 lea	 ecx, DWORD PTR ___mlrs__$[ebp]
  00003	e9 00 00 00 00	 jmp	 ??1CMultiLanguageResourceSetter@@QAE@XZ ; CMultiLanguageResourceSetter::~CMultiLanguageResourceSetter
__unwindfunclet$?CreateToolTip@CDlgGraphSetting@@AAEXXZ$1:
  00008	8d 4d dc	 lea	 ecx, DWORD PTR _dwaInfo$[ebp]
  0000b	e9 00 00 00 00	 jmp	 ??1CDWordArray@@UAE@XZ	; CDWordArray::~CDWordArray
  00010	cc		 int	 3
  00011	cc		 int	 3
  00012	cc		 int	 3
  00013	cc		 int	 3
  00014	cc		 int	 3
__ehhandler$?CreateToolTip@CDlgGraphSetting@@AAEXXZ:
  00015	90		 npad	 1
  00016	90		 npad	 1
  00017	8b 54 24 08	 mov	 edx, DWORD PTR [esp+8]
  0001b	8d 42 0c	 lea	 eax, DWORD PTR [edx+12]
  0001e	8b 4a d8	 mov	 ecx, DWORD PTR [edx-40]
  00021	33 c8		 xor	 ecx, eax
  00023	e8 00 00 00 00	 call	 @__security_check_cookie@4
  00028	b8 00 00 00 00	 mov	 eax, OFFSET __ehfuncinfo$?CreateToolTip@CDlgGraphSetting@@AAEXXZ
  0002d	e9 00 00 00 00	 jmp	 ___CxxFrameHandler3
text$x	ENDS
?CreateToolTip@CDlgGraphSetting@@AAEXXZ ENDP		; CDlgGraphSetting::CreateToolTip
; Function compile flags: /Ogtp
; File D:\git\src\IBK\IBK_DRFN\ProjSrc\SrcChartEx\ChartAddIn\ChartDesignPropertyAddIn\ChartDesignPropertyAddIn\DlgGraphSetting.cpp
; File C:\Program Files (x86)\Microsoft Visual Studio\2019\Community\VC\Tools\MSVC\14.29.30133\atlmfc\include\afxwin2.inl
; File D:\git\src\IBK\IBK_DRFN\ProjSrc\SrcChartEx\ChartAddIn\ChartDesignPropertyAddIn\ChartDesignPropertyAddIn\DlgGraphSetting.cpp
; File C:\Program Files (x86)\Microsoft Visual Studio\2019\Community\VC\Tools\MSVC\14.29.30133\atlmfc\include\afxwin2.inl
; File D:\git\src\IBK\IBK_DRFN\ProjSrc\SrcChartEx\ChartAddIn\ChartDesignPropertyAddIn\ChartDesignPropertyAddIn\DlgGraphSetting.cpp
; File C:\Program Files (x86)\Microsoft Visual Studio\2019\Community\VC\Tools\MSVC\14.29.30133\atlmfc\include\afxwin2.inl
; File D:\git\src\IBK\IBK_DRFN\ProjSrc\SrcChartEx\ChartAddIn\ChartDesignPropertyAddIn\ChartDesignPropertyAddIn\DlgGraphSetting.cpp
;	COMDAT ?UnCheckAllCheckedPacketItems@CDlgGraphSetting@@AAEXXZ
_TEXT	SEGMENT
?UnCheckAllCheckedPacketItems@CDlgGraphSetting@@AAEXXZ PROC ; CDlgGraphSetting::UnCheckAllCheckedPacketItems, COMDAT
; _this$ = ecx

; 454  : {

  00000	53		 push	 ebx
  00001	56		 push	 esi
  00002	57		 push	 edi
; File C:\Program Files (x86)\Microsoft Visual Studio\2019\Community\VC\Tools\MSVC\14.29.30133\atlmfc\include\afxwin2.inl

; 763  : 	{ ASSERT(::IsWindow(m_hWnd)); return (int)::SendMessage(m_hWnd, CB_GETCOUNT, 0, 0); }

  00003	6a 00		 push	 0
; File D:\git\src\IBK\IBK_DRFN\ProjSrc\SrcChartEx\ChartAddIn\ChartDesignPropertyAddIn\ChartDesignPropertyAddIn\DlgGraphSetting.cpp

; 454  : {

  00005	8b f9		 mov	 edi, ecx
; File C:\Program Files (x86)\Microsoft Visual Studio\2019\Community\VC\Tools\MSVC\14.29.30133\atlmfc\include\afxwin2.inl

; 763  : 	{ ASSERT(::IsWindow(m_hWnd)); return (int)::SendMessage(m_hWnd, CB_GETCOUNT, 0, 0); }

  00007	6a 00		 push	 0
  00009	68 46 01 00 00	 push	 326			; 00000146H
  0000e	ff b7 48 01 00
	00		 push	 DWORD PTR [edi+328]
  00014	ff 15 00 00 00
	00		 call	 DWORD PTR __imp__SendMessageA@16
; File D:\git\src\IBK\IBK_DRFN\ProjSrc\SrcChartEx\ChartAddIn\ChartDesignPropertyAddIn\ChartDesignPropertyAddIn\DlgGraphSetting.cpp

; 456  : 	int count = m_pPacketComboBox.GetCount();

  0001a	8b d8		 mov	 ebx, eax
; File C:\Program Files (x86)\Microsoft Visual Studio\2019\Community\VC\Tools\MSVC\14.29.30133\atlmfc\include\afxwin2.inl

; 763  : 	{ ASSERT(::IsWindow(m_hWnd)); return (int)::SendMessage(m_hWnd, CB_GETCOUNT, 0, 0); }

  0001c	33 f6		 xor	 esi, esi
; File D:\git\src\IBK\IBK_DRFN\ProjSrc\SrcChartEx\ChartAddIn\ChartDesignPropertyAddIn\ChartDesignPropertyAddIn\DlgGraphSetting.cpp

; 457  : 	for(int i = 0 ; i< count; i++) {

  0001e	85 db		 test	 ebx, ebx
  00020	7e 23		 jle	 SHORT $LN3@UnCheckAll
$LL4@UnCheckAll:

; 458  : 		if(m_pPacketComboBox.GetCheck(i))

  00022	56		 push	 esi
  00023	8d 8f 28 01 00
	00		 lea	 ecx, DWORD PTR [edi+296]
  00029	e8 00 00 00 00	 call	 ?GetCheck@CCheckComboBox@@QAEHH@Z ; CCheckComboBox::GetCheck
  0002e	85 c0		 test	 eax, eax
  00030	74 0e		 je	 SHORT $LN2@UnCheckAll

; 459  : 			m_pPacketComboBox.SetCheck(i,FALSE);

  00032	6a 00		 push	 0
  00034	56		 push	 esi
  00035	8d 8f 28 01 00
	00		 lea	 ecx, DWORD PTR [edi+296]
  0003b	e8 00 00 00 00	 call	 ?SetCheck@CCheckComboBox@@QAEHHH@Z ; CCheckComboBox::SetCheck
$LN2@UnCheckAll:

; 457  : 	for(int i = 0 ; i< count; i++) {

  00040	46		 inc	 esi
  00041	3b f3		 cmp	 esi, ebx
  00043	7c dd		 jl	 SHORT $LL4@UnCheckAll
$LN3@UnCheckAll:
  00045	5f		 pop	 edi

; 460  : 	}
; 461  : }

  00046	5e		 pop	 esi
  00047	5b		 pop	 ebx
  00048	c3		 ret	 0
?UnCheckAllCheckedPacketItems@CDlgGraphSetting@@AAEXXZ ENDP ; CDlgGraphSetting::UnCheckAllCheckedPacketItems
_TEXT	ENDS
; Function compile flags: /Ogtp
; File D:\git\src\IBK\IBK_DRFN\ProjSrc\SrcChartEx\ChartAddIn\ChartDesignPropertyAddIn\ChartDesignPropertyAddIn\DlgGraphSetting.cpp
;	COMDAT ?DoThisIndicatorNeedSignal@CDlgGraphSetting@@AAE_NABV?$CStringT@DV?$StrTraitMFC_DLL@DV?$ChTraitsCRT@D@ATL@@@@@ATL@@@Z
_TEXT	SEGMENT
_strIndicatorName$ = 8					; size = 4
?DoThisIndicatorNeedSignal@CDlgGraphSetting@@AAE_NABV?$CStringT@DV?$StrTraitMFC_DLL@DV?$ChTraitsCRT@D@ATL@@@@@ATL@@@Z PROC ; CDlgGraphSetting::DoThisIndicatorNeedSignal, COMDAT
; _this$ = ecx

; 516  : {

  00000	55		 push	 ebp
  00001	8b ec		 mov	 ebp, esp
  00003	56		 push	 esi
  00004	57		 push	 edi

; 517  : 	static IMetaTable::E_METACODE	eIndicators[] =
; 518  : 	{
; 519  : 		IMetaTable::C2_CCI,
; 520  : 		IMetaTable::C2_DISPARITY,
; 521  : 		IMetaTable::C2_PSYCHOLOGICAL_LINE,
; 522  : 		IMetaTable::C2_DMI,
; 523  : 		IMetaTable::C2_MFI,
; 524  : 		IMetaTable::C2_MOMENTUM,
; 525  : 		IMetaTable::C2_MASS_INDEX,
; 526  : 		IMetaTable::C2_RSI,
; 527  : 		IMetaTable::C2_PERCENT_R,
; 528  : 		IMetaTable::C2_VR,
; 529  : 		IMetaTable::C2_STOCHASTIC_FAST,
; 530  : 		IMetaTable::C2_STOCHASTIC_FAST2,
; 531  : 		IMetaTable::C2_STOCHASTIC_FAST3,
; 532  : 		IMetaTable::C2_STOCHASTIC_SLOW,
; 533  : 		IMetaTable::C2_STOCHASTIC_SLOW2,
; 534  : 		IMetaTable::C2_STOCHASTIC_SLOW3,
; 535  : 		IMetaTable::C2_ROC,
; 536  : 		IMetaTable::C2_AB_RATIO,
; 537  : 		IMetaTable::C2_ADR,
; 538  : 		IMetaTable::C2_BREADTH_THRUST,
; 539  : 		IMetaTable::C2_MCCLELLAN_OSCILLATOR,
; 540  : 		IMetaTable::C2_STIX,
; 541  : 		IMetaTable::C2_MACD
; 542  : 	};
; 543  : 
; 544  : 	for( int i = 0; i < sizeof( eIndicators) / sizeof( IMetaTable::E_METACODE) ; i++)

  00005	8b 7d 08	 mov	 edi, DWORD PTR _strIndicatorName$[ebp]
  00008	33 f6		 xor	 esi, esi
  0000a	66 0f 1f 44 00
	00		 npad	 6
$LL4@DoThisIndi:

; 545  : 	{
; 546  : 		if( strIndicatorName.CompareNoCase( _MTEXTN( eIndicators[ i])) == 0)

  00010	8b 8e 00 00 00
	00		 mov	 ecx, DWORD PTR ?eIndicators@?1??DoThisIndicatorNeedSignal@CDlgGraphSetting@@AAE_NABV?$CStringT@DV?$StrTraitMFC_DLL@DV?$ChTraitsCRT@D@ATL@@@@@ATL@@@Z@4PAW4E_METACODE@IMetaTable@@A[esi]
  00016	a1 54 00 00 00	 mov	 eax, DWORD PTR ?g_iMetaTable@@3VIMetaTable@@A+84
  0001b	ff 34 88	 push	 DWORD PTR [eax+ecx*4]
  0001e	8b cf		 mov	 ecx, edi
  00020	ff 15 00 00 00
	00		 call	 DWORD PTR __imp_?CompareNoCase@?$CStringT@DV?$StrTraitMFC_DLL@DV?$ChTraitsCRT@D@ATL@@@@@ATL@@QBEHPBD@Z
  00026	85 c0		 test	 eax, eax
  00028	74 10		 je	 SHORT $LN8@DoThisIndi

; 517  : 	static IMetaTable::E_METACODE	eIndicators[] =
; 518  : 	{
; 519  : 		IMetaTable::C2_CCI,
; 520  : 		IMetaTable::C2_DISPARITY,
; 521  : 		IMetaTable::C2_PSYCHOLOGICAL_LINE,
; 522  : 		IMetaTable::C2_DMI,
; 523  : 		IMetaTable::C2_MFI,
; 524  : 		IMetaTable::C2_MOMENTUM,
; 525  : 		IMetaTable::C2_MASS_INDEX,
; 526  : 		IMetaTable::C2_RSI,
; 527  : 		IMetaTable::C2_PERCENT_R,
; 528  : 		IMetaTable::C2_VR,
; 529  : 		IMetaTable::C2_STOCHASTIC_FAST,
; 530  : 		IMetaTable::C2_STOCHASTIC_FAST2,
; 531  : 		IMetaTable::C2_STOCHASTIC_FAST3,
; 532  : 		IMetaTable::C2_STOCHASTIC_SLOW,
; 533  : 		IMetaTable::C2_STOCHASTIC_SLOW2,
; 534  : 		IMetaTable::C2_STOCHASTIC_SLOW3,
; 535  : 		IMetaTable::C2_ROC,
; 536  : 		IMetaTable::C2_AB_RATIO,
; 537  : 		IMetaTable::C2_ADR,
; 538  : 		IMetaTable::C2_BREADTH_THRUST,
; 539  : 		IMetaTable::C2_MCCLELLAN_OSCILLATOR,
; 540  : 		IMetaTable::C2_STIX,
; 541  : 		IMetaTable::C2_MACD
; 542  : 	};
; 543  : 
; 544  : 	for( int i = 0; i < sizeof( eIndicators) / sizeof( IMetaTable::E_METACODE) ; i++)

  0002a	83 c6 04	 add	 esi, 4
  0002d	83 fe 5c	 cmp	 esi, 92			; 0000005cH
  00030	72 de		 jb	 SHORT $LL4@DoThisIndi

; 548  : 	}
; 549  : 	return false;

  00032	5f		 pop	 edi
  00033	32 c0		 xor	 al, al

; 550  : }

  00035	5e		 pop	 esi
  00036	5d		 pop	 ebp
  00037	c2 04 00	 ret	 4
$LN8@DoThisIndi:
  0003a	5f		 pop	 edi

; 547  : 			return true;

  0003b	b0 01		 mov	 al, 1

; 550  : }

  0003d	5e		 pop	 esi
  0003e	5d		 pop	 ebp
  0003f	c2 04 00	 ret	 4
?DoThisIndicatorNeedSignal@CDlgGraphSetting@@AAE_NABV?$CStringT@DV?$StrTraitMFC_DLL@DV?$ChTraitsCRT@D@ATL@@@@@ATL@@@Z ENDP ; CDlgGraphSetting::DoThisIndicatorNeedSignal
_TEXT	ENDS
; Function compile flags: /Ogtp
; File D:\git\src\IBK\IBK_DRFN\ProjSrc\SrcChartEx\ChartAddIn\ChartDesignPropertyAddIn\ChartDesignPropertyAddIn\DlgGraphSetting.cpp
;	COMDAT ?CheckDataViewItems@CDlgGraphSetting@@AAEXXZ
_TEXT	SEGMENT
?CheckDataViewItems@CDlgGraphSetting@@AAEXXZ PROC	; CDlgGraphSetting::CheckDataViewItems, COMDAT
; _this$ = ecx

; 553  : {

  00000	53		 push	 ebx
  00001	56		 push	 esi
  00002	57		 push	 edi

; 554  : 	// (2006/10/18 - Seung-Won, Bae) Enable ETC Data Setting in PriceChart
; 555  : 	GetDlgItem( IDC_ETCSET_BT)->EnableWindow( !strcmp( m_strIndicatorName, _MTEXT( C2_PRICE_CHART)) || !strcmp( m_strIndicatorName, _MTEXT( C2_VOLUME_CHART)));

  00003	8b 3d 54 00 00
	00		 mov	 edi, DWORD PTR ?g_iMetaTable@@3VIMetaTable@@A+84
  00009	8b d9		 mov	 ebx, ecx
  0000b	8b 93 40 02 00
	00		 mov	 edx, DWORD PTR [ebx+576]
  00011	8b c2		 mov	 eax, edx
  00013	8b b7 28 03 00
	00		 mov	 esi, DWORD PTR [edi+808]
  00019	0f 1f 80 00 00
	00 00		 npad	 7
$LL9@CheckDataV:
  00020	8a 08		 mov	 cl, BYTE PTR [eax]
  00022	3a 0e		 cmp	 cl, BYTE PTR [esi]
  00024	75 1a		 jne	 SHORT $LN10@CheckDataV
  00026	84 c9		 test	 cl, cl
  00028	74 12		 je	 SHORT $LN11@CheckDataV
  0002a	8a 48 01	 mov	 cl, BYTE PTR [eax+1]
  0002d	3a 4e 01	 cmp	 cl, BYTE PTR [esi+1]
  00030	75 0e		 jne	 SHORT $LN10@CheckDataV
  00032	83 c0 02	 add	 eax, 2
  00035	83 c6 02	 add	 esi, 2
  00038	84 c9		 test	 cl, cl
  0003a	75 e4		 jne	 SHORT $LL9@CheckDataV
$LN11@CheckDataV:
  0003c	33 c0		 xor	 eax, eax
  0003e	eb 05		 jmp	 SHORT $LN12@CheckDataV
$LN10@CheckDataV:
  00040	1b c0		 sbb	 eax, eax
