; Listing generated by Microsoft (R) Optimizing Compiler Version 19.29.30145.0 

	TITLE	D:\git\src\IBK\IBK_DRFN\#DRfn-CS\_Obj\ChartDesignPropertyAddIn\DlgLocalLanguageTable.obj
	.686P
	.XMM
	include listing.inc
	.model	flat

INCLUDELIB MSVCRT
INCLUDELIB OLDNAMES

PUBLIC	??_C@_0CB@EFDCECKM@RMSG_EDITABLELISTCTRL_CELLEDITE@ ; `string'
;	COMDAT ??_C@_0CB@EFDCECKM@RMSG_EDITABLELISTCTRL_CELLEDITE@
CONST	SEGMENT
??_C@_0CB@EFDCECKM@RMSG_EDITABLELISTCTRL_CELLEDITE@ DB 'RMSG_EDITABLELIST'
	DB	'CTRL_CELLEDITED', 00H			; `string'
CONST	ENDS
PUBLIC	?__empty_global_delete@@YAXPAX@Z		; __empty_global_delete
PUBLIC	?__empty_global_delete@@YAXPAXI@Z		; __empty_global_delete
PUBLIC	??3CObject@@SGXPAX@Z				; CObject::operator delete
PUBLIC	?Serialize@CObject@@UAEXAAVCArchive@@@Z		; CObject::Serialize
PUBLIC	?AssertValid@CObject@@UBEXXZ			; CObject::AssertValid
PUBLIC	?Dump@CObject@@UBEXAAVCDumpContext@@@Z		; CObject::Dump
PUBLIC	?DoDataExchange@CWnd@@MAEXPAVCDataExchange@@@Z	; CWnd::DoDataExchange
PUBLIC	?BeginModalState@CWnd@@UAEXXZ			; CWnd::BeginModalState
PUBLIC	?EndModalState@CWnd@@UAEXXZ			; CWnd::EndModalState
PUBLIC	?Create@CDialog@@UAEHIPAVCWnd@@@Z		; CDialog::Create
PUBLIC	??0CDlgLocalLanguageTable@@QAE@PAVCWnd@@@Z	; CDlgLocalLanguageTable::CDlgLocalLanguageTable
PUBLIC	?PreTranslateMessage@CDlgLocalLanguageTable@@UAEHPAUtagMSG@@@Z ; CDlgLocalLanguageTable::PreTranslateMessage
PUBLIC	?DoDataExchange@CDlgLocalLanguageTable@@MAEXPAVCDataExchange@@@Z ; CDlgLocalLanguageTable::DoDataExchange
PUBLIC	?OnOK@CDlgLocalLanguageTable@@MAEXXZ		; CDlgLocalLanguageTable::OnOK
PUBLIC	?OnInitDialog@CDlgLocalLanguageTable@@MAEHXZ	; CDlgLocalLanguageTable::OnInitDialog
PUBLIC	?OnDestroy@CDlgLocalLanguageTable@@IAEXXZ	; CDlgLocalLanguageTable::OnDestroy
PUBLIC	?OnBtnDelete@CDlgLocalLanguageTable@@IAEXXZ	; CDlgLocalLanguageTable::OnBtnDelete
PUBLIC	?OnBtnAdd@CDlgLocalLanguageTable@@IAEXXZ	; CDlgLocalLanguageTable::OnBtnAdd
PUBLIC	?OnSize@CDlgLocalLanguageTable@@IAEXIHH@Z	; CDlgLocalLanguageTable::OnSize
PUBLIC	?OnGetMinMaxInfo@CDlgLocalLanguageTable@@IAEXPAUtagMINMAXINFO@@@Z ; CDlgLocalLanguageTable::OnGetMinMaxInfo
PUBLIC	?OnBtnRedefineGlobal@CDlgLocalLanguageTable@@IAEXXZ ; CDlgLocalLanguageTable::OnBtnRedefineGlobal
PUBLIC	?OnSelendokCmbGlobal@CDlgLocalLanguageTable@@IAEXXZ ; CDlgLocalLanguageTable::OnSelendokCmbGlobal
PUBLIC	?GetThisMessageMap@CDlgLocalLanguageTable@@KGPBUAFX_MSGMAP@@XZ ; CDlgLocalLanguageTable::GetThisMessageMap
PUBLIC	?GetMessageMap@CDlgLocalLanguageTable@@MBEPBUAFX_MSGMAP@@XZ ; CDlgLocalLanguageTable::GetMessageMap
PUBLIC	?SetProperty@CDlgLocalLanguageTable@@QAEXPAUIPropertyMap@@@Z ; CDlgLocalLanguageTable::SetProperty
PUBLIC	??_GCDlgLocalLanguageTable@@UAEPAXI@Z		; CDlgLocalLanguageTable::`scalar deleting destructor'
PUBLIC	??_C@_00CNPNBAHC@@				; `string'
PUBLIC	??_R0?AVCObject@@@8				; CObject `RTTI Type Descriptor'
PUBLIC	??_R3CObject@@8					; CObject::`RTTI Class Hierarchy Descriptor'
PUBLIC	??_R2CObject@@8					; CObject::`RTTI Base Class Array'
PUBLIC	??_R1A@?0A@EA@CObject@@8			; CObject::`RTTI Base Class Descriptor at (0,-1,0,64)'
PUBLIC	??_R1A@?0A@EA@CWnd@@8				; CWnd::`RTTI Base Class Descriptor at (0,-1,0,64)'
PUBLIC	??_R0?AVCWnd@@@8				; CWnd `RTTI Type Descriptor'
PUBLIC	??_R3CWnd@@8					; CWnd::`RTTI Class Hierarchy Descriptor'
PUBLIC	??_R2CWnd@@8					; CWnd::`RTTI Base Class Array'
PUBLIC	??_R1A@?0A@EA@CCmdTarget@@8			; CCmdTarget::`RTTI Base Class Descriptor at (0,-1,0,64)'
PUBLIC	??_R0?AVCCmdTarget@@@8				; CCmdTarget `RTTI Type Descriptor'
PUBLIC	??_R3CCmdTarget@@8				; CCmdTarget::`RTTI Class Hierarchy Descriptor'
PUBLIC	??_R2CCmdTarget@@8				; CCmdTarget::`RTTI Base Class Array'
PUBLIC	??_R1A@?0A@EA@CDialog@@8			; CDialog::`RTTI Base Class Descriptor at (0,-1,0,64)'
PUBLIC	??_R0?AVCDialog@@@8				; CDialog `RTTI Type Descriptor'
PUBLIC	??_R3CDialog@@8					; CDialog::`RTTI Class Hierarchy Descriptor'
PUBLIC	??_R2CDialog@@8					; CDialog::`RTTI Base Class Array'
PUBLIC	??_C@_0BF@EGELCGDD@GetCurrentLanguageID@	; `string'
PUBLIC	??_C@_0BB@NBLJOLNL@GetMetaTextCount@		; `string'
PUBLIC	??_C@_0BA@BCPDFAJN@GetAllMetaTexts@		; `string'
PUBLIC	??_7CDlgLocalLanguageTable@@6B@			; CDlgLocalLanguageTable::`vftable'
PUBLIC	??_C@_09LDGIOJFP@Meta?5Text@			; `string'
PUBLIC	??_C@_07NEKHPBCG@English@			; `string'
PUBLIC	??_C@_06OALMOPCN@Korean@			; `string'
PUBLIC	??_C@_02PCIJFNDE@?$AN?6@			; `string'
PUBLIC	??_C@_0BG@JOCHGPMF@It?5was?5added?5already?$CB@	; `string'
PUBLIC	??_R4CDlgLocalLanguageTable@@6B@		; CDlgLocalLanguageTable::`RTTI Complete Object Locator'
PUBLIC	??_R0?AVCDlgLocalLanguageTable@@@8		; CDlgLocalLanguageTable `RTTI Type Descriptor'
PUBLIC	??_R3CDlgLocalLanguageTable@@8			; CDlgLocalLanguageTable::`RTTI Class Hierarchy Descriptor'
PUBLIC	??_R2CDlgLocalLanguageTable@@8			; CDlgLocalLanguageTable::`RTTI Base Class Array'
PUBLIC	??_R1A@?0A@EA@CDlgLocalLanguageTable@@8		; CDlgLocalLanguageTable::`RTTI Base Class Descriptor at (0,-1,0,64)'
EXTRN	??2@YAPAXI@Z:PROC				; operator new
EXTRN	??3@YAXPAX@Z:PROC				; operator delete
EXTRN	?__global_delete@@YAXPAXI@Z:PROC		; __global_delete
EXTRN	??_U@YAPAXI@Z:PROC				; operator new[]
EXTRN	??_V@YAXPAX@Z:PROC				; operator delete[]
EXTRN	_strchr:PROC
EXTRN	_strstr:PROC
EXTRN	__imp__GetProcAddress@8:PROC
EXTRN	__imp__RegisterWindowMessageA@4:PROC
EXTRN	__imp__SendMessageA@16:PROC
EXTRN	__imp__EnableWindow@8:PROC
EXTRN	__imp__InvalidateRect@12:PROC
EXTRN	__imp__GetWindowRect@8:PROC
EXTRN	__imp__OffsetRect@12:PROC
EXTRN	?AfxThrowInvalidArgException@@YGXXZ:PROC	; AfxThrowInvalidArgException
EXTRN	__imp_?Empty@?$CSimpleStringT@D$00@ATL@@QAEXXZ:PROC
EXTRN	__imp_?GetBuffer@?$CSimpleStringT@D$00@ATL@@QAEPADH@Z:PROC
EXTRN	__imp_?GetBufferSetLength@?$CSimpleStringT@D$00@ATL@@QAEPADH@Z:PROC
EXTRN	__imp_?ReleaseBuffer@?$CSimpleStringT@D$00@ATL@@QAEXH@Z:PROC
EXTRN	__imp_?Concatenate@?$CSimpleStringT@D$00@ATL@@KAXAAV12@PBDH1H@Z:PROC
EXTRN	__imp_??0?$CStringT@DV?$StrTraitMFC_DLL@DV?$ChTraitsCRT@D@ATL@@@@@ATL@@QAE@XZ:PROC
EXTRN	__imp_??0?$CStringT@DV?$StrTraitMFC_DLL@DV?$ChTraitsCRT@D@ATL@@@@@ATL@@QAE@PAUIAtlStringMgr@1@@Z:PROC
EXTRN	__imp_??0?$CStringT@DV?$StrTraitMFC_DLL@DV?$ChTraitsCRT@D@ATL@@@@@ATL@@QAE@DH@Z:PROC
EXTRN	__imp_??1?$CStringT@DV?$StrTraitMFC_DLL@DV?$ChTraitsCRT@D@ATL@@@@@ATL@@QAE@XZ:PROC
EXTRN	__imp_??4?$CStringT@DV?$StrTraitMFC_DLL@DV?$ChTraitsCRT@D@ATL@@@@@ATL@@QAEAAV01@ABV01@@Z:PROC
EXTRN	__imp_??4?$CStringT@DV?$StrTraitMFC_DLL@DV?$ChTraitsCRT@D@ATL@@@@@ATL@@QAEAAV01@PBD@Z:PROC
EXTRN	__imp_?GetManager@?$CStringT@DV?$StrTraitMFC_DLL@DV?$ChTraitsCRT@D@ATL@@@@@ATL@@QBEPAUIAtlStringMgr@2@XZ:PROC
EXTRN	__imp_?Compare@?$CStringT@DV?$StrTraitMFC_DLL@DV?$ChTraitsCRT@D@ATL@@@@@ATL@@QBEHPBD@Z:PROC
EXTRN	?SetAtGrow@CByteArray@@QAEXHE@Z:PROC		; CByteArray::SetAtGrow
EXTRN	??0CStringList@@QAE@H@Z:PROC			; CStringList::CStringList
EXTRN	?AddTail@CStringList@@QAEPAU__POSITION@@PBD@Z:PROC ; CStringList::AddTail
EXTRN	?AddTail@CStringList@@QAEPAU__POSITION@@ABV?$CStringT@DV?$StrTraitMFC_DLL@DV?$ChTraitsCRT@D@ATL@@@@@ATL@@@Z:PROC ; CStringList::AddTail
EXTRN	??1CStringList@@UAE@XZ:PROC			; CStringList::~CStringList
EXTRN	?DDX_Control@@YGXPAVCDataExchange@@HAAVCWnd@@@Z:PROC ; DDX_Control
EXTRN	?IsInvokeAllowed@CCmdTarget@@UAEHJ@Z:PROC	; CCmdTarget::IsInvokeAllowed
EXTRN	?GetDispatchIID@CCmdTarget@@UAEHPAU_GUID@@@Z:PROC ; CCmdTarget::GetDispatchIID
EXTRN	?GetTypeInfoCount@CCmdTarget@@UAEIXZ:PROC	; CCmdTarget::GetTypeInfoCount
EXTRN	?GetTypeLibCache@CCmdTarget@@UAEPAVCTypeLibCache@@XZ:PROC ; CCmdTarget::GetTypeLibCache
EXTRN	?GetTypeLib@CCmdTarget@@UAEJKPAPAUITypeLib@@@Z:PROC ; CCmdTarget::GetTypeLib
EXTRN	?GetCommandMap@CCmdTarget@@MBEPBUAFX_OLECMDMAP@@XZ:PROC ; CCmdTarget::GetCommandMap
EXTRN	?GetDispatchMap@CCmdTarget@@MBEPBUAFX_DISPMAP@@XZ:PROC ; CCmdTarget::GetDispatchMap
EXTRN	?GetConnectionMap@CCmdTarget@@MBEPBUAFX_CONNECTIONMAP@@XZ:PROC ; CCmdTarget::GetConnectionMap
EXTRN	?GetEventSinkMap@CCmdTarget@@MBEPBUAFX_EVENTSINKMAP@@XZ:PROC ; CCmdTarget::GetEventSinkMap
EXTRN	?OnCreateAggregates@CCmdTarget@@UAEHXZ:PROC	; CCmdTarget::OnCreateAggregates
EXTRN	?GetInterfaceHook@CCmdTarget@@UAEPAUIUnknown@@PBX@Z:PROC ; CCmdTarget::GetInterfaceHook
EXTRN	?GetExtraConnectionPoints@CCmdTarget@@MAEHPAVCPtrArray@@@Z:PROC ; CCmdTarget::GetExtraConnectionPoints
EXTRN	?GetConnectionHook@CCmdTarget@@MAEPAUIConnectionPoint@@ABU_GUID@@@Z:PROC ; CCmdTarget::GetConnectionHook
EXTRN	?PreSubclassWindow@CWnd@@UAEXXZ:PROC		; CWnd::PreSubclassWindow
EXTRN	?Create@CWnd@@UAEHPBD0KABUtagRECT@@PAV1@IPAUCCreateContext@@@Z:PROC ; CWnd::Create
EXTRN	?CreateEx@CWnd@@UAEHKPBD0KHHHHPAUHWND__@@PAUHMENU__@@PAX@Z:PROC ; CWnd::CreateEx
EXTRN	?CreateEx@CWnd@@UAEHKPBD0KABUtagRECT@@PAV1@IPAX@Z:PROC ; CWnd::CreateEx
EXTRN	?DestroyWindow@CWnd@@UAEHXZ:PROC		; CWnd::DestroyWindow
EXTRN	?PreCreateWindow@CWnd@@UAEHAAUtagCREATESTRUCTA@@@Z:PROC ; CWnd::PreCreateWindow
EXTRN	?CalcWindowRect@CWnd@@UAEXPAUtagRECT@@I@Z:PROC	; CWnd::CalcWindowRect
EXTRN	?GetDlgItem@CWnd@@QBEPAV1@H@Z:PROC		; CWnd::GetDlgItem
EXTRN	?SetWindowTextA@CWnd@@QAEXPBD@Z:PROC		; CWnd::SetWindowTextA
EXTRN	?GetWindowTextA@CWnd@@QBEXAAV?$CStringT@DV?$StrTraitMFC_DLL@DV?$ChTraitsCRT@D@ATL@@@@@ATL@@@Z:PROC ; CWnd::GetWindowTextA
EXTRN	?GetMenu@CWnd@@UBEPAVCMenu@@XZ:PROC		; CWnd::GetMenu
EXTRN	?SetMenu@CWnd@@UAEHPAVCMenu@@@Z:PROC		; CWnd::SetMenu
EXTRN	?MoveWindow@CWnd@@QAEXHHHHH@Z:PROC		; CWnd::MoveWindow
EXTRN	?ScreenToClient@CWnd@@QBEXPAUtagRECT@@@Z:PROC	; CWnd::ScreenToClient
EXTRN	?ShowWindow@CWnd@@QAEHH@Z:PROC			; CWnd::ShowWindow
EXTRN	?OnToolHitTest@CWnd@@UBEHVCPoint@@PAUtagTOOLINFOA@@@Z:PROC ; CWnd::OnToolHitTest
EXTRN	?SetFocus@CWnd@@QAEPAV1@XZ:PROC			; CWnd::SetFocus
EXTRN	?GetScrollBarCtrl@CWnd@@UBEPAVCScrollBar@@H@Z:PROC ; CWnd::GetScrollBarCtrl
EXTRN	?WinHelpA@CWnd@@UAEXKI@Z:PROC			; CWnd::WinHelpA
EXTRN	?HtmlHelpA@CWnd@@UAEXKI@Z:PROC			; CWnd::HtmlHelpA
EXTRN	?WinHelpInternal@CWnd@@UAEXKI@Z:PROC		; CWnd::WinHelpInternal
EXTRN	?ContinueModal@CWnd@@UAEHXZ:PROC		; CWnd::ContinueModal
EXTRN	?EndModalLoop@CWnd@@UAEXH@Z:PROC		; CWnd::EndModalLoop
EXTRN	?OnDrawIconicThumbnailOrLivePreview@CWnd@@UAEXAAVCDC@@VCRect@@VCSize@@HAAH@Z:PROC ; CWnd::OnDrawIconicThumbnailOrLivePreview
EXTRN	?GetInterfaceMap@CWnd@@MBEPBUAFX_INTERFACEMAP@@XZ:PROC ; CWnd::GetInterfaceMap
EXTRN	?EnsureStdObj@CWnd@@UAEJXZ:PROC			; CWnd::EnsureStdObj
EXTRN	?get_accParent@CWnd@@UAEJPAPAUIDispatch@@@Z:PROC ; CWnd::get_accParent
EXTRN	?get_accChildCount@CWnd@@UAEJPAJ@Z:PROC		; CWnd::get_accChildCount
EXTRN	?get_accChild@CWnd@@UAEJUtagVARIANT@@PAPAUIDispatch@@@Z:PROC ; CWnd::get_accChild
EXTRN	?get_accName@CWnd@@UAEJUtagVARIANT@@PAPA_W@Z:PROC ; CWnd::get_accName
EXTRN	?get_accValue@CWnd@@UAEJUtagVARIANT@@PAPA_W@Z:PROC ; CWnd::get_accValue
EXTRN	?get_accDescription@CWnd@@UAEJUtagVARIANT@@PAPA_W@Z:PROC ; CWnd::get_accDescription
EXTRN	?get_accRole@CWnd@@UAEJUtagVARIANT@@PAU2@@Z:PROC ; CWnd::get_accRole
EXTRN	?get_accState@CWnd@@UAEJUtagVARIANT@@PAU2@@Z:PROC ; CWnd::get_accState
EXTRN	?get_accHelp@CWnd@@UAEJUtagVARIANT@@PAPA_W@Z:PROC ; CWnd::get_accHelp
EXTRN	?get_accHelpTopic@CWnd@@UAEJPAPA_WUtagVARIANT@@PAJ@Z:PROC ; CWnd::get_accHelpTopic
EXTRN	?get_accKeyboardShortcut@CWnd@@UAEJUtagVARIANT@@PAPA_W@Z:PROC ; CWnd::get_accKeyboardShortcut
EXTRN	?get_accFocus@CWnd@@UAEJPAUtagVARIANT@@@Z:PROC	; CWnd::get_accFocus
EXTRN	?get_accSelection@CWnd@@UAEJPAUtagVARIANT@@@Z:PROC ; CWnd::get_accSelection
EXTRN	?get_accDefaultAction@CWnd@@UAEJUtagVARIANT@@PAPA_W@Z:PROC ; CWnd::get_accDefaultAction
EXTRN	?accSelect@CWnd@@UAEJJUtagVARIANT@@@Z:PROC	; CWnd::accSelect
EXTRN	?accLocation@CWnd@@UAEJPAJ000UtagVARIANT@@@Z:PROC ; CWnd::accLocation
EXTRN	?accNavigate@CWnd@@UAEJJUtagVARIANT@@PAU2@@Z:PROC ; CWnd::accNavigate
EXTRN	?accHitTest@CWnd@@UAEJJJPAUtagVARIANT@@@Z:PROC	; CWnd::accHitTest
EXTRN	?accDoDefaultAction@CWnd@@UAEJUtagVARIANT@@@Z:PROC ; CWnd::accDoDefaultAction
EXTRN	?put_accName@CWnd@@UAEJUtagVARIANT@@PA_W@Z:PROC	; CWnd::put_accName
EXTRN	?put_accValue@CWnd@@UAEJUtagVARIANT@@PA_W@Z:PROC ; CWnd::put_accValue
EXTRN	?SetProxy@CWnd@@UAEJPAUIAccessibleProxy@@@Z:PROC ; CWnd::SetProxy
EXTRN	?CreateAccessibleProxy@CWnd@@UAEJIJPAJ@Z:PROC	; CWnd::CreateAccessibleProxy
EXTRN	?OnCommand@CWnd@@MAEHIJ@Z:PROC			; CWnd::OnCommand
EXTRN	?OnNotify@CWnd@@MAEHIJPAJ@Z:PROC		; CWnd::OnNotify
EXTRN	?OnDestroy@CWnd@@IAEXXZ:PROC			; CWnd::OnDestroy
EXTRN	?GetSuperWndProcAddr@CWnd@@MAEPAP6GJPAUHWND__@@IIJ@ZXZ:PROC ; CWnd::GetSuperWndProcAddr
EXTRN	?OnAmbientProperty@CWnd@@UAEHPAVCOleControlSite@@JPAUtagVARIANT@@@Z:PROC ; CWnd::OnAmbientProperty
EXTRN	?WindowProc@CWnd@@MAEJIIJ@Z:PROC		; CWnd::WindowProc
EXTRN	?OnWndMsg@CWnd@@MAEHIIJPAJ@Z:PROC		; CWnd::OnWndMsg
EXTRN	?Default@CWnd@@IAEJXZ:PROC			; CWnd::Default
EXTRN	?DefWindowProcA@CWnd@@MAEJIIJ@Z:PROC		; CWnd::DefWindowProcA
EXTRN	?PostNcDestroy@CWnd@@MAEXXZ:PROC		; CWnd::PostNcDestroy
EXTRN	?OnChildNotify@CWnd@@MAEHIIJPAJ@Z:PROC		; CWnd::OnChildNotify
EXTRN	?OnTouchInputs@CWnd@@MAEHIPAUtagTOUCHINPUT@@@Z:PROC ; CWnd::OnTouchInputs
EXTRN	?OnTouchInput@CWnd@@MAEHVCPoint@@HHPAUtagTOUCHINPUT@@@Z:PROC ; CWnd::OnTouchInput
EXTRN	?GetGestureStatus@CWnd@@MAEKVCPoint@@@Z:PROC	; CWnd::GetGestureStatus
EXTRN	?OnGestureZoom@CWnd@@MAEHVCPoint@@J@Z:PROC	; CWnd::OnGestureZoom
EXTRN	?OnGesturePan@CWnd@@MAEHVCPoint@@0@Z:PROC	; CWnd::OnGesturePan
EXTRN	?OnGestureRotate@CWnd@@MAEHVCPoint@@N@Z:PROC	; CWnd::OnGestureRotate
EXTRN	?OnGestureTwoFingerTap@CWnd@@MAEHVCPoint@@@Z:PROC ; CWnd::OnGestureTwoFingerTap
EXTRN	?OnGesturePressAndTap@CWnd@@MAEHVCPoint@@J@Z:PROC ; CWnd::OnGesturePressAndTap
EXTRN	?ResizeDynamicLayout@CWnd@@MAEXXZ:PROC		; CWnd::ResizeDynamicLayout
EXTRN	?IsFrameWnd@CWnd@@UBEHXZ:PROC			; CWnd::IsFrameWnd
EXTRN	?OnFinalRelease@CWnd@@UAEXXZ:PROC		; CWnd::OnFinalRelease
EXTRN	?CreateControlContainer@CWnd@@MAEHPAPAVCOleControlContainer@@@Z:PROC ; CWnd::CreateControlContainer
EXTRN	?CreateControlSite@CWnd@@MAEHPAVCOleControlContainer@@PAPAVCOleControlSite@@IABU_GUID@@@Z:PROC ; CWnd::CreateControlSite
EXTRN	?GetRuntimeClass@CDialog@@UBEPAUCRuntimeClass@@XZ:PROC ; CDialog::GetRuntimeClass
EXTRN	?Create@CDialog@@UAEHPBDPAVCWnd@@@Z:PROC	; CDialog::Create
EXTRN	?CreateIndirect@CDialog@@UAEHPBUDLGTEMPLATE@@PAVCWnd@@PAX@Z:PROC ; CDialog::CreateIndirect
EXTRN	?CreateIndirect@CDialog@@UAEHPAXPAVCWnd@@@Z:PROC ; CDialog::CreateIndirect
EXTRN	??0CDialog@@QAE@IPAVCWnd@@@Z:PROC		; CDialog::CDialog
EXTRN	?DoModal@CDialog@@UAEHXZ:PROC			; CDialog::DoModal
EXTRN	?OnInitDialog@CDialog@@UAEHXZ:PROC		; CDialog::OnInitDialog
EXTRN	?OnSetFont@CDialog@@UAEXPAVCFont@@@Z:PROC	; CDialog::OnSetFont
EXTRN	?OnOK@CDialog@@MAEXXZ:PROC			; CDialog::OnOK
EXTRN	?OnCancel@CDialog@@MAEXXZ:PROC			; CDialog::OnCancel
EXTRN	??1CDialog@@UAE@XZ:PROC				; CDialog::~CDialog
EXTRN	?PreTranslateMessage@CDialog@@UAEHPAUtagMSG@@@Z:PROC ; CDialog::PreTranslateMessage
EXTRN	?OnCmdMsg@CDialog@@UAEHIHPAXPAUAFX_CMDHANDLERINFO@@@Z:PROC ; CDialog::OnCmdMsg
EXTRN	?CheckAutoCenter@CDialog@@UAEHXZ:PROC		; CDialog::CheckAutoCenter
EXTRN	?SetOccDialogInfo@CDialog@@MAEHPAU_AFX_OCC_DIALOG_INFO@@@Z:PROC ; CDialog::SetOccDialogInfo
EXTRN	?GetOccDialogInfo@CDialog@@MAEPAU_AFX_OCC_DIALOG_INFO@@XZ:PROC ; CDialog::GetOccDialogInfo
EXTRN	?PreInitDialog@CDialog@@MAEXXZ:PROC		; CDialog::PreInitDialog
EXTRN	?GetThisMessageMap@CDialog@@KGPBUAFX_MSGMAP@@XZ:PROC ; CDialog::GetThisMessageMap
EXTRN	?AfxMessageBox@@YGHPBDII@Z:PROC			; AfxMessageBox
EXTRN	?SetItem@CListCtrl@@QAEHHHIPBDHIIJ@Z:PROC	; CListCtrl::SetItem
EXTRN	?GetItemText@CListCtrl@@QBE?AV?$CStringT@DV?$StrTraitMFC_DLL@DV?$ChTraitsCRT@D@ATL@@@@@ATL@@HH@Z:PROC ; CListCtrl::GetItemText
EXTRN	?SetItemText@CListCtrl@@QAEHHHPBD@Z:PROC	; CListCtrl::SetItemText
EXTRN	?GetItemData@CListCtrl@@QBEKH@Z:PROC		; CListCtrl::GetItemData
EXTRN	?InsertColumn@CListCtrl@@QAEHHPBDHHH@Z:PROC	; CListCtrl::InsertColumn
EXTRN	?InsertItem@CListCtrl@@QAEHIHPBDIIHJ@Z:PROC	; CListCtrl::InsertItem
EXTRN	?GetLanguageTextDirectly@IMetaTable@@QAEPBDW4E_CODEPAGE@1@W4E_LANGUAGEID@1@PBD@Z:PROC ; IMetaTable::GetLanguageTextDirectly
EXTRN	??0CEditableListCtrl@@QAE@XZ:PROC		; CEditableListCtrl::CEditableListCtrl
EXTRN	??1CEditableListCtrl@@UAE@XZ:PROC		; CEditableListCtrl::~CEditableListCtrl
EXTRN	??_ECDlgLocalLanguageTable@@UAEPAXI@Z:PROC	; CDlgLocalLanguageTable::`vector deleting destructor'
EXTRN	@__security_check_cookie@4:PROC
EXTRN	___CxxFrameHandler3:PROC
EXTRN	??_7type_info@@6B@:QWORD			; type_info::`vftable'
EXTRN	?g_iMetaTable@@3VIMetaTable@@A:BYTE		; g_iMetaTable
EXTRN	?g_anPropertyShortKey@@3PAPADA:BYTE		; g_anPropertyShortKey
EXTRN	___security_cookie:DWORD
_BSS	SEGMENT
?RMSG_ELC_CELLEDITED@@3IB DD 01H DUP (?)		; RMSG_ELC_CELLEDITED
_BSS	ENDS
CRT$XCU	SEGMENT
?RMSG_ELC_CELLEDITED$initializer$@@3P6AXXZA DD FLAT:??__ERMSG_ELC_CELLEDITED@@YAXXZ ; RMSG_ELC_CELLEDITED$initializer$
CRT$XCU	ENDS
;	COMDAT ??_R1A@?0A@EA@CDlgLocalLanguageTable@@8
rdata$r	SEGMENT
??_R1A@?0A@EA@CDlgLocalLanguageTable@@8 DD FLAT:??_R0?AVCDlgLocalLanguageTable@@@8 ; CDlgLocalLanguageTable::`RTTI Base Class Descriptor at (0,-1,0,64)'
	DD	04H
	DD	00H
	DD	0ffffffffH
	DD	00H
	DD	040H
	DD	FLAT:??_R3CDlgLocalLanguageTable@@8
rdata$r	ENDS
;	COMDAT ??_R2CDlgLocalLanguageTable@@8
rdata$r	SEGMENT
??_R2CDlgLocalLanguageTable@@8 DD FLAT:??_R1A@?0A@EA@CDlgLocalLanguageTable@@8 ; CDlgLocalLanguageTable::`RTTI Base Class Array'
	DD	FLAT:??_R1A@?0A@EA@CDialog@@8
	DD	FLAT:??_R1A@?0A@EA@CWnd@@8
	DD	FLAT:??_R1A@?0A@EA@CCmdTarget@@8
	DD	FLAT:??_R1A@?0A@EA@CObject@@8
rdata$r	ENDS
;	COMDAT ??_R3CDlgLocalLanguageTable@@8
rdata$r	SEGMENT
??_R3CDlgLocalLanguageTable@@8 DD 00H			; CDlgLocalLanguageTable::`RTTI Class Hierarchy Descriptor'
	DD	00H
	DD	05H
	DD	FLAT:??_R2CDlgLocalLanguageTable@@8
rdata$r	ENDS
;	COMDAT ??_R0?AVCDlgLocalLanguageTable@@@8
data$rs	SEGMENT
??_R0?AVCDlgLocalLanguageTable@@@8 DD FLAT:??_7type_info@@6B@ ; CDlgLocalLanguageTable `RTTI Type Descriptor'
	DD	00H
	DB	'.?AVCDlgLocalLanguageTable@@', 00H
data$rs	ENDS
;	COMDAT ??_R4CDlgLocalLanguageTable@@6B@
rdata$r	SEGMENT
??_R4CDlgLocalLanguageTable@@6B@ DD 00H			; CDlgLocalLanguageTable::`RTTI Complete Object Locator'
	DD	00H
	DD	00H
	DD	FLAT:??_R0?AVCDlgLocalLanguageTable@@@8
	DD	FLAT:??_R3CDlgLocalLanguageTable@@8
rdata$r	ENDS
;	COMDAT ??_C@_0BG@JOCHGPMF@It?5was?5added?5already?$CB@
CONST	SEGMENT
??_C@_0BG@JOCHGPMF@It?5was?5added?5already?$CB@ DB 'It was added already!'
	DB	00H						; `string'
CONST	ENDS
;	COMDAT ??_C@_02PCIJFNDE@?$AN?6@
CONST	SEGMENT
??_C@_02PCIJFNDE@?$AN?6@ DB 0dH, 0aH, 00H		; `string'
CONST	ENDS
;	COMDAT ??_C@_06OALMOPCN@Korean@
CONST	SEGMENT
??_C@_06OALMOPCN@Korean@ DB 'Korean', 00H		; `string'
CONST	ENDS
;	COMDAT ??_C@_07NEKHPBCG@English@
CONST	SEGMENT
??_C@_07NEKHPBCG@English@ DB 'English', 00H		; `string'
CONST	ENDS
;	COMDAT ??_C@_09LDGIOJFP@Meta?5Text@
CONST	SEGMENT
??_C@_09LDGIOJFP@Meta?5Text@ DB 'Meta Text', 00H	; `string'
CONST	ENDS
;	COMDAT ?messageMap@?1??GetThisMessageMap@CDlgLocalLanguageTable@@KGPBUAFX_MSGMAP@@XZ@4U3@B
CONST	SEGMENT
?messageMap@?1??GetThisMessageMap@CDlgLocalLanguageTable@@KGPBUAFX_MSGMAP@@XZ@4U3@B DD FLAT:?GetThisMessageMap@CDialog@@KGPBUAFX_MSGMAP@@XZ ; `CDlgLocalLanguageTable::GetThisMessageMap'::`2'::messageMap
	DD	FLAT:?_messageEntries@?1??GetThisMessageMap@CDlgLocalLanguageTable@@KGPBUAFX_MSGMAP@@XZ@4QBUAFX_MSGMAP_ENTRY@@B
CONST	ENDS
;	COMDAT ?_messageEntries@?1??GetThisMessageMap@CDlgLocalLanguageTable@@KGPBUAFX_MSGMAP@@XZ@4QBUAFX_MSGMAP_ENTRY@@B
CONST	SEGMENT
?_messageEntries@?1??GetThisMessageMap@CDlgLocalLanguageTable@@KGPBUAFX_MSGMAP@@XZ@4QBUAFX_MSGMAP_ENTRY@@B DD 02H ; `CDlgLocalLanguageTable::GetThisMessageMap'::`2'::_messageEntries
	DD	00H
	DD	00H
	DD	00H
	DD	013H
	DD	FLAT:?OnDestroy@CDlgLocalLanguageTable@@IAEXXZ
	DD	0111H
	DD	00H
	DD	05H
	DD	05H
	DD	03aH
	DD	FLAT:?OnBtnDelete@CDlgLocalLanguageTable@@IAEXXZ
	DD	0111H
	DD	00H
	DD	0114H
	DD	0114H
	DD	03aH
	DD	FLAT:?OnBtnAdd@CDlgLocalLanguageTable@@IAEXXZ
	DD	05H
	DD	00H
	DD	00H
	DD	00H
	DD	01aH
	DD	FLAT:?OnSize@CDlgLocalLanguageTable@@IAEXIHH@Z
	DD	024H
	DD	00H
	DD	00H
	DD	00H
	DD	02dH
	DD	FLAT:?OnGetMinMaxInfo@CDlgLocalLanguageTable@@IAEXPAUtagMINMAXINFO@@@Z
	DD	0111H
	DD	00H
	DD	07e8H
	DD	07e8H
	DD	03aH
	DD	FLAT:?OnBtnRedefineGlobal@CDlgLocalLanguageTable@@IAEXXZ
	DD	0111H
	DD	09H
	DD	07e7H
	DD	07e7H
	DD	03aH
	DD	FLAT:?OnSelendokCmbGlobal@CDlgLocalLanguageTable@@IAEXXZ
	DD	00H
	DD	00H
	DD	00H
	DD	00H
	DD	00H
	DD	00H
CONST	ENDS
;	COMDAT ??_7CDlgLocalLanguageTable@@6B@
CONST	SEGMENT
??_7CDlgLocalLanguageTable@@6B@ DD FLAT:??_R4CDlgLocalLanguageTable@@6B@ ; CDlgLocalLanguageTable::`vftable'
	DD	FLAT:?GetRuntimeClass@CDialog@@UBEPAUCRuntimeClass@@XZ
	DD	FLAT:??_ECDlgLocalLanguageTable@@UAEPAXI@Z
	DD	FLAT:?Serialize@CObject@@UAEXAAVCArchive@@@Z
	DD	FLAT:?AssertValid@CObject@@UBEXXZ
	DD	FLAT:?Dump@CObject@@UBEXAAVCDumpContext@@@Z
	DD	FLAT:?OnCmdMsg@CDialog@@UAEHIHPAXPAUAFX_CMDHANDLERINFO@@@Z
	DD	FLAT:?OnFinalRelease@CWnd@@UAEXXZ
	DD	FLAT:?IsInvokeAllowed@CCmdTarget@@UAEHJ@Z
	DD	FLAT:?GetDispatchIID@CCmdTarget@@UAEHPAU_GUID@@@Z
	DD	FLAT:?GetTypeInfoCount@CCmdTarget@@UAEIXZ
	DD	FLAT:?GetTypeLibCache@CCmdTarget@@UAEPAVCTypeLibCache@@XZ
	DD	FLAT:?GetTypeLib@CCmdTarget@@UAEJKPAPAUITypeLib@@@Z
	DD	FLAT:?GetMessageMap@CDlgLocalLanguageTable@@MBEPBUAFX_MSGMAP@@XZ
	DD	FLAT:?GetCommandMap@CCmdTarget@@MBEPBUAFX_OLECMDMAP@@XZ
	DD	FLAT:?GetDispatchMap@CCmdTarget@@MBEPBUAFX_DISPMAP@@XZ
	DD	FLAT:?GetConnectionMap@CCmdTarget@@MBEPBUAFX_CONNECTIONMAP@@XZ
	DD	FLAT:?GetInterfaceMap@CWnd@@MBEPBUAFX_INTERFACEMAP@@XZ
	DD	FLAT:?GetEventSinkMap@CCmdTarget@@MBEPBUAFX_EVENTSINKMAP@@XZ
	DD	FLAT:?OnCreateAggregates@CCmdTarget@@UAEHXZ
	DD	FLAT:?GetInterfaceHook@CCmdTarget@@UAEPAUIUnknown@@PBX@Z
	DD	FLAT:?GetExtraConnectionPoints@CCmdTarget@@MAEHPAVCPtrArray@@@Z
	DD	FLAT:?GetConnectionHook@CCmdTarget@@MAEPAUIConnectionPoint@@ABU_GUID@@@Z
	DD	FLAT:?PreSubclassWindow@CWnd@@UAEXXZ
	DD	FLAT:?Create@CWnd@@UAEHPBD0KABUtagRECT@@PAV1@IPAUCCreateContext@@@Z
	DD	FLAT:?CreateEx@CWnd@@UAEHKPBD0KABUtagRECT@@PAV1@IPAX@Z
	DD	FLAT:?CreateEx@CWnd@@UAEHKPBD0KHHHHPAUHWND__@@PAUHMENU__@@PAX@Z
	DD	FLAT:?DestroyWindow@CWnd@@UAEHXZ
	DD	FLAT:?PreCreateWindow@CWnd@@UAEHAAUtagCREATESTRUCTA@@@Z
	DD	FLAT:?CalcWindowRect@CWnd@@UAEXPAUtagRECT@@I@Z
	DD	FLAT:?GetMenu@CWnd@@UBEPAVCMenu@@XZ
	DD	FLAT:?SetMenu@CWnd@@UAEHPAVCMenu@@@Z
	DD	FLAT:?OnToolHitTest@CWnd@@UBEHVCPoint@@PAUtagTOOLINFOA@@@Z
	DD	FLAT:?GetScrollBarCtrl@CWnd@@UBEPAVCScrollBar@@H@Z
	DD	FLAT:?WinHelpA@CWnd@@UAEXKI@Z
	DD	FLAT:?HtmlHelpA@CWnd@@UAEXKI@Z
	DD	FLAT:?WinHelpInternal@CWnd@@UAEXKI@Z
	DD	FLAT:?ContinueModal@CWnd@@UAEHXZ
	DD	FLAT:?EndModalLoop@CWnd@@UAEXH@Z
	DD	FLAT:?OnDrawIconicThumbnailOrLivePreview@CWnd@@UAEXAAVCDC@@VCRect@@VCSize@@HAAH@Z
	DD	FLAT:?EnsureStdObj@CWnd@@UAEJXZ
	DD	FLAT:?get_accParent@CWnd@@UAEJPAPAUIDispatch@@@Z
	DD	FLAT:?get_accChildCount@CWnd@@UAEJPAJ@Z
	DD	FLAT:?get_accChild@CWnd@@UAEJUtagVARIANT@@PAPAUIDispatch@@@Z
	DD	FLAT:?get_accName@CWnd@@UAEJUtagVARIANT@@PAPA_W@Z
	DD	FLAT:?get_accValue@CWnd@@UAEJUtagVARIANT@@PAPA_W@Z
	DD	FLAT:?get_accDescription@CWnd@@UAEJUtagVARIANT@@PAPA_W@Z
	DD	FLAT:?get_accRole@CWnd@@UAEJUtagVARIANT@@PAU2@@Z
	DD	FLAT:?get_accState@CWnd@@UAEJUtagVARIANT@@PAU2@@Z
	DD	FLAT:?get_accHelp@CWnd@@UAEJUtagVARIANT@@PAPA_W@Z
	DD	FLAT:?get_accHelpTopic@CWnd@@UAEJPAPA_WUtagVARIANT@@PAJ@Z
	DD	FLAT:?get_accKeyboardShortcut@CWnd@@UAEJUtagVARIANT@@PAPA_W@Z
	DD	FLAT:?get_accFocus@CWnd@@UAEJPAUtagVARIANT@@@Z
	DD	FLAT:?get_accSelection@CWnd@@UAEJPAUtagVARIANT@@@Z
	DD	FLAT:?get_accDefaultAction@CWnd@@UAEJUtagVARIANT@@PAPA_W@Z
	DD	FLAT:?accSelect@CWnd@@UAEJJUtagVARIANT@@@Z
	DD	FLAT:?accLocation@CWnd@@UAEJPAJ000UtagVARIANT@@@Z
	DD	FLAT:?accNavigate@CWnd@@UAEJJUtagVARIANT@@PAU2@@Z
	DD	FLAT:?accHitTest@CWnd@@UAEJJJPAUtagVARIANT@@@Z
	DD	FLAT:?accDoDefaultAction@CWnd@@UAEJUtagVARIANT@@@Z
	DD	FLAT:?put_accName@CWnd@@UAEJUtagVARIANT@@PA_W@Z
	DD	FLAT:?put_accValue@CWnd@@UAEJUtagVARIANT@@PA_W@Z
	DD	FLAT:?SetProxy@CWnd@@UAEJPAUIAccessibleProxy@@@Z
	DD	FLAT:?CreateAccessibleProxy@CWnd@@UAEJIJPAJ@Z
	DD	FLAT:?OnCommand@CWnd@@MAEHIJ@Z
	DD	FLAT:?OnNotify@CWnd@@MAEHIJPAJ@Z
	DD	FLAT:?GetSuperWndProcAddr@CWnd@@MAEPAP6GJPAUHWND__@@IIJ@ZXZ
	DD	FLAT:?DoDataExchange@CDlgLocalLanguageTable@@MAEXPAVCDataExchange@@@Z
	DD	FLAT:?BeginModalState@CWnd@@UAEXXZ
	DD	FLAT:?EndModalState@CWnd@@UAEXXZ
	DD	FLAT:?PreTranslateMessage@CDlgLocalLanguageTable@@UAEHPAUtagMSG@@@Z
	DD	FLAT:?OnAmbientProperty@CWnd@@UAEHPAVCOleControlSite@@JPAUtagVARIANT@@@Z
	DD	FLAT:?WindowProc@CWnd@@MAEJIIJ@Z
	DD	FLAT:?OnWndMsg@CWnd@@MAEHIIJPAJ@Z
	DD	FLAT:?DefWindowProcA@CWnd@@MAEJIIJ@Z
	DD	FLAT:?PostNcDestroy@CWnd@@MAEXXZ
	DD	FLAT:?OnChildNotify@CWnd@@MAEHIIJPAJ@Z
	DD	FLAT:?OnTouchInputs@CWnd@@MAEHIPAUtagTOUCHINPUT@@@Z
	DD	FLAT:?OnTouchInput@CWnd@@MAEHVCPoint@@HHPAUtagTOUCHINPUT@@@Z
	DD	FLAT:?GetGestureStatus@CWnd@@MAEKVCPoint@@@Z
	DD	FLAT:?OnGestureZoom@CWnd@@MAEHVCPoint@@J@Z
	DD	FLAT:?OnGesturePan@CWnd@@MAEHVCPoint@@0@Z
	DD	FLAT:?OnGestureRotate@CWnd@@MAEHVCPoint@@N@Z
	DD	FLAT:?OnGestureTwoFingerTap@CWnd@@MAEHVCPoint@@@Z
	DD	FLAT:?OnGesturePressAndTap@CWnd@@MAEHVCPoint@@J@Z
	DD	FLAT:?ResizeDynamicLayout@CWnd@@MAEXXZ
	DD	FLAT:?CheckAutoCenter@CDialog@@UAEHXZ
	DD	FLAT:?IsFrameWnd@CWnd@@UBEHXZ
	DD	FLAT:?CreateControlContainer@CWnd@@MAEHPAPAVCOleControlContainer@@@Z
	DD	FLAT:?CreateControlSite@CWnd@@MAEHPAVCOleControlContainer@@PAPAVCOleControlSite@@IABU_GUID@@@Z
	DD	FLAT:?SetOccDialogInfo@CDialog@@MAEHPAU_AFX_OCC_DIALOG_INFO@@@Z
	DD	FLAT:?GetOccDialogInfo@CDialog@@MAEPAU_AFX_OCC_DIALOG_INFO@@XZ
	DD	FLAT:?Create@CDialog@@UAEHIPAVCWnd@@@Z
	DD	FLAT:?Create@CDialog@@UAEHPBDPAVCWnd@@@Z
	DD	FLAT:?CreateIndirect@CDialog@@UAEHPAXPAVCWnd@@@Z
	DD	FLAT:?CreateIndirect@CDialog@@UAEHPBUDLGTEMPLATE@@PAVCWnd@@PAX@Z
	DD	FLAT:?DoModal@CDialog@@UAEHXZ
	DD	FLAT:?OnInitDialog@CDlgLocalLanguageTable@@MAEHXZ
	DD	FLAT:?OnSetFont@CDialog@@UAEXPAVCFont@@@Z
	DD	FLAT:?OnOK@CDlgLocalLanguageTable@@MAEXXZ
	DD	FLAT:?OnCancel@CDialog@@MAEXXZ
	DD	FLAT:?PreInitDialog@CDialog@@MAEXXZ
CONST	ENDS
;	COMDAT ??_C@_0BA@BCPDFAJN@GetAllMetaTexts@
CONST	SEGMENT
??_C@_0BA@BCPDFAJN@GetAllMetaTexts@ DB 'GetAllMetaTexts', 00H ; `string'
CONST	ENDS
;	COMDAT ??_C@_0BB@NBLJOLNL@GetMetaTextCount@
CONST	SEGMENT
??_C@_0BB@NBLJOLNL@GetMetaTextCount@ DB 'GetMetaTextCount', 00H ; `string'
CONST	ENDS
;	COMDAT ??_C@_0BF@EGELCGDD@GetCurrentLanguageID@
CONST	SEGMENT
??_C@_0BF@EGELCGDD@GetCurrentLanguageID@ DB 'GetCurrentLanguageID', 00H ; `string'
CONST	ENDS
;	COMDAT ??_R2CDialog@@8
rdata$r	SEGMENT
??_R2CDialog@@8 DD FLAT:??_R1A@?0A@EA@CDialog@@8	; CDialog::`RTTI Base Class Array'
	DD	FLAT:??_R1A@?0A@EA@CWnd@@8
	DD	FLAT:??_R1A@?0A@EA@CCmdTarget@@8
	DD	FLAT:??_R1A@?0A@EA@CObject@@8
rdata$r	ENDS
;	COMDAT ??_R3CDialog@@8
rdata$r	SEGMENT
??_R3CDialog@@8 DD 00H					; CDialog::`RTTI Class Hierarchy Descriptor'
	DD	00H
	DD	04H
	DD	FLAT:??_R2CDialog@@8
rdata$r	ENDS
;	COMDAT ??_R0?AVCDialog@@@8
data$rs	SEGMENT
??_R0?AVCDialog@@@8 DD FLAT:??_7type_info@@6B@		; CDialog `RTTI Type Descriptor'
	DD	00H
	DB	'.?AVCDialog@@', 00H
data$rs	ENDS
;	COMDAT ??_R1A@?0A@EA@CDialog@@8
rdata$r	SEGMENT
??_R1A@?0A@EA@CDialog@@8 DD FLAT:??_R0?AVCDialog@@@8	; CDialog::`RTTI Base Class Descriptor at (0,-1,0,64)'
	DD	03H
	DD	00H
	DD	0ffffffffH
	DD	00H
	DD	040H
	DD	FLAT:??_R3CDialog@@8
rdata$r	ENDS
;	COMDAT ??_R2CCmdTarget@@8
rdata$r	SEGMENT
??_R2CCmdTarget@@8 DD FLAT:??_R1A@?0A@EA@CCmdTarget@@8	; CCmdTarget::`RTTI Base Class Array'
	DD	FLAT:??_R1A@?0A@EA@CObject@@8
rdata$r	ENDS
;	COMDAT ??_R3CCmdTarget@@8
rdata$r	SEGMENT
??_R3CCmdTarget@@8 DD 00H				; CCmdTarget::`RTTI Class Hierarchy Descriptor'
	DD	00H
	DD	02H
	DD	FLAT:??_R2CCmdTarget@@8
rdata$r	ENDS
;	COMDAT ??_R0?AVCCmdTarget@@@8
data$rs	SEGMENT
??_R0?AVCCmdTarget@@@8 DD FLAT:??_7type_info@@6B@	; CCmdTarget `RTTI Type Descriptor'
	DD	00H
	DB	'.?AVCCmdTarget@@', 00H
data$rs	ENDS
;	COMDAT ??_R1A@?0A@EA@CCmdTarget@@8
rdata$r	SEGMENT
??_R1A@?0A@EA@CCmdTarget@@8 DD FLAT:??_R0?AVCCmdTarget@@@8 ; CCmdTarget::`RTTI Base Class Descriptor at (0,-1,0,64)'
	DD	01H
	DD	00H
	DD	0ffffffffH
	DD	00H
	DD	040H
	DD	FLAT:??_R3CCmdTarget@@8
rdata$r	ENDS
;	COMDAT ??_R2CWnd@@8
rdata$r	SEGMENT
??_R2CWnd@@8 DD	FLAT:??_R1A@?0A@EA@CWnd@@8		; CWnd::`RTTI Base Class Array'
	DD	FLAT:??_R1A@?0A@EA@CCmdTarget@@8
	DD	FLAT:??_R1A@?0A@EA@CObject@@8
rdata$r	ENDS
;	COMDAT ??_R3CWnd@@8
rdata$r	SEGMENT
??_R3CWnd@@8 DD	00H					; CWnd::`RTTI Class Hierarchy Descriptor'
	DD	00H
	DD	03H
	DD	FLAT:??_R2CWnd@@8
rdata$r	ENDS
;	COMDAT ??_R0?AVCWnd@@@8
data$rs	SEGMENT
??_R0?AVCWnd@@@8 DD FLAT:??_7type_info@@6B@		; CWnd `RTTI Type Descriptor'
	DD	00H
	DB	'.?AVCWnd@@', 00H
data$rs	ENDS
;	COMDAT ??_R1A@?0A@EA@CWnd@@8
rdata$r	SEGMENT
??_R1A@?0A@EA@CWnd@@8 DD FLAT:??_R0?AVCWnd@@@8		; CWnd::`RTTI Base Class Descriptor at (0,-1,0,64)'
	DD	02H
	DD	00H
	DD	0ffffffffH
	DD	00H
	DD	040H
	DD	FLAT:??_R3CWnd@@8
rdata$r	ENDS
;	COMDAT ??_R1A@?0A@EA@CObject@@8
rdata$r	SEGMENT
??_R1A@?0A@EA@CObject@@8 DD FLAT:??_R0?AVCObject@@@8	; CObject::`RTTI Base Class Descriptor at (0,-1,0,64)'
	DD	00H
	DD	00H
	DD	0ffffffffH
	DD	00H
	DD	040H
	DD	FLAT:??_R3CObject@@8
rdata$r	ENDS
;	COMDAT ??_R2CObject@@8
rdata$r	SEGMENT
??_R2CObject@@8 DD FLAT:??_R1A@?0A@EA@CObject@@8	; CObject::`RTTI Base Class Array'
rdata$r	ENDS
;	COMDAT ??_R3CObject@@8
rdata$r	SEGMENT
??_R3CObject@@8 DD 00H					; CObject::`RTTI Class Hierarchy Descriptor'
	DD	00H
	DD	01H
	DD	FLAT:??_R2CObject@@8
rdata$r	ENDS
;	COMDAT ??_R0?AVCObject@@@8
data$rs	SEGMENT
??_R0?AVCObject@@@8 DD FLAT:??_7type_info@@6B@		; CObject `RTTI Type Descriptor'
	DD	00H
	DB	'.?AVCObject@@', 00H
data$rs	ENDS
;	COMDAT ??_C@_00CNPNBAHC@@
CONST	SEGMENT
??_C@_00CNPNBAHC@@ DB 00H				; `string'
CONST	ENDS
;	COMDAT xdata$x
xdata$x	SEGMENT
__unwindtable$?OnSelendokCmbGlobal@CDlgLocalLanguageTable@@IAEXXZ DD 0ffffffffH
	DD	FLAT:__unwindfunclet$?OnSelendokCmbGlobal@CDlgLocalLanguageTable@@IAEXXZ$0
	DD	00H
	DD	FLAT:__unwindfunclet$?OnSelendokCmbGlobal@CDlgLocalLanguageTable@@IAEXXZ$1
	DD	01H
	DD	FLAT:__unwindfunclet$?OnSelendokCmbGlobal@CDlgLocalLanguageTable@@IAEXXZ$2
	DD	02H
	DD	FLAT:__unwindfunclet$?OnSelendokCmbGlobal@CDlgLocalLanguageTable@@IAEXXZ$3
__ehfuncinfo$?OnSelendokCmbGlobal@CDlgLocalLanguageTable@@IAEXXZ DD 019930522H
	DD	04H
	DD	FLAT:__unwindtable$?OnSelendokCmbGlobal@CDlgLocalLanguageTable@@IAEXXZ
	DD	2 DUP(00H)
	DD	2 DUP(00H)
	DD	00H
	DD	01H
xdata$x	ENDS
;	COMDAT xdata$x
xdata$x	SEGMENT
__ehfuncinfo$?OnInitDialog@CDlgLocalLanguageTable@@MAEHXZ DD 019930522H
	DD	06H
	DD	FLAT:__unwindtable$?OnInitDialog@CDlgLocalLanguageTable@@MAEHXZ
	DD	2 DUP(00H)
	DD	2 DUP(00H)
	DD	00H
	DD	01H
__unwindtable$?OnInitDialog@CDlgLocalLanguageTable@@MAEHXZ DD 0ffffffffH
	DD	FLAT:__unwindfunclet$?OnInitDialog@CDlgLocalLanguageTable@@MAEHXZ$0
	DD	00H
	DD	FLAT:__unwindfunclet$?OnInitDialog@CDlgLocalLanguageTable@@MAEHXZ$1
	DD	01H
	DD	FLAT:__unwindfunclet$?OnInitDialog@CDlgLocalLanguageTable@@MAEHXZ$2
	DD	02H
	DD	FLAT:__unwindfunclet$?OnInitDialog@CDlgLocalLanguageTable@@MAEHXZ$6
	DD	03H
	DD	FLAT:__unwindfunclet$?OnInitDialog@CDlgLocalLanguageTable@@MAEHXZ$7
	DD	01H
	DD	FLAT:__unwindfunclet$?OnInitDialog@CDlgLocalLanguageTable@@MAEHXZ$5
xdata$x	ENDS
;	COMDAT xdata$x
xdata$x	SEGMENT
__ehfuncinfo$?OnOK@CDlgLocalLanguageTable@@MAEXXZ DD 019930522H
	DD	08H
	DD	FLAT:__unwindtable$?OnOK@CDlgLocalLanguageTable@@MAEXXZ
	DD	2 DUP(00H)
	DD	2 DUP(00H)
	DD	00H
	DD	01H
__unwindtable$?OnOK@CDlgLocalLanguageTable@@MAEXXZ DD 0ffffffffH
	DD	FLAT:__unwindfunclet$?OnOK@CDlgLocalLanguageTable@@MAEXXZ$0
	DD	00H
	DD	FLAT:__unwindfunclet$?OnOK@CDlgLocalLanguageTable@@MAEXXZ$1
	DD	00H
	DD	FLAT:__unwindfunclet$?OnOK@CDlgLocalLanguageTable@@MAEXXZ$2
	DD	00H
	DD	FLAT:__unwindfunclet$?OnOK@CDlgLocalLanguageTable@@MAEXXZ$3
	DD	00H
	DD	FLAT:__unwindfunclet$?OnOK@CDlgLocalLanguageTable@@MAEXXZ$4
	DD	00H
	DD	FLAT:__unwindfunclet$?OnOK@CDlgLocalLanguageTable@@MAEXXZ$5
	DD	00H
	DD	FLAT:__unwindfunclet$?OnOK@CDlgLocalLanguageTable@@MAEXXZ$6
	DD	00H
	DD	FLAT:__unwindfunclet$?OnOK@CDlgLocalLanguageTable@@MAEXXZ$7
xdata$x	ENDS
;	COMDAT xdata$x
xdata$x	SEGMENT
__unwindtable$?PreTranslateMessage@CDlgLocalLanguageTable@@UAEHPAUtagMSG@@@Z DD 0ffffffffH
	DD	FLAT:__unwindfunclet$?PreTranslateMessage@CDlgLocalLanguageTable@@UAEHPAUtagMSG@@@Z$0
	DD	00H
	DD	FLAT:__unwindfunclet$?PreTranslateMessage@CDlgLocalLanguageTable@@UAEHPAUtagMSG@@@Z$1
	DD	01H
	DD	FLAT:__unwindfunclet$?PreTranslateMessage@CDlgLocalLanguageTable@@UAEHPAUtagMSG@@@Z$2
__ehfuncinfo$?PreTranslateMessage@CDlgLocalLanguageTable@@UAEHPAUtagMSG@@@Z DD 019930522H
	DD	03H
	DD	FLAT:__unwindtable$?PreTranslateMessage@CDlgLocalLanguageTable@@UAEHPAUtagMSG@@@Z
	DD	2 DUP(00H)
	DD	2 DUP(00H)
	DD	00H
	DD	01H
xdata$x	ENDS
;	COMDAT xdata$x
xdata$x	SEGMENT
__unwindtable$??0CDlgLocalLanguageTable@@QAE@PAVCWnd@@@Z DD 0ffffffffH
	DD	FLAT:__unwindfunclet$??0CDlgLocalLanguageTable@@QAE@PAVCWnd@@@Z$0
	DD	00H
	DD	FLAT:__unwindfunclet$??0CDlgLocalLanguageTable@@QAE@PAVCWnd@@@Z$1
	DD	01H
	DD	FLAT:__unwindfunclet$??0CDlgLocalLanguageTable@@QAE@PAVCWnd@@@Z$2
__ehfuncinfo$??0CDlgLocalLanguageTable@@QAE@PAVCWnd@@@Z DD 019930522H
	DD	03H
	DD	FLAT:__unwindtable$??0CDlgLocalLanguageTable@@QAE@PAVCWnd@@@Z
	DD	2 DUP(00H)
	DD	2 DUP(00H)
	DD	00H
	DD	01H
xdata$x	ENDS
;	COMDAT xdata$x
xdata$x	SEGMENT
__unwindtable$??HATL@@YA?AV?$CStringT@DV?$StrTraitMFC_DLL@DV?$ChTraitsCRT@D@ATL@@@@@0@ABV10@PBD@Z DD 0ffffffffH
	DD	FLAT:__unwindfunclet$??HATL@@YA?AV?$CStringT@DV?$StrTraitMFC_DLL@DV?$ChTraitsCRT@D@ATL@@@@@0@ABV10@PBD@Z$0
__ehfuncinfo$??HATL@@YA?AV?$CStringT@DV?$StrTraitMFC_DLL@DV?$ChTraitsCRT@D@ATL@@@@@0@ABV10@PBD@Z DD 019930522H
	DD	01H
	DD	FLAT:__unwindtable$??HATL@@YA?AV?$CStringT@DV?$StrTraitMFC_DLL@DV?$ChTraitsCRT@D@ATL@@@@@0@ABV10@PBD@Z
	DD	2 DUP(00H)
	DD	2 DUP(00H)
	DD	00H
	DD	01H
xdata$x	ENDS
; Function compile flags: /Ogtp
; File C:\Program Files (x86)\Microsoft Visual Studio\2019\Community\VC\Tools\MSVC\14.29.30133\atlmfc\include\afx.inl
;	COMDAT ??_GCDlgLocalLanguageTable@@UAEPAXI@Z
_TEXT	SEGMENT
___flags$ = 8						; size = 4
??_GCDlgLocalLanguageTable@@UAEPAXI@Z PROC		; CDlgLocalLanguageTable::`scalar deleting destructor', COMDAT
; _this$ = ecx
  00000	55		 push	 ebp
  00001	8b ec		 mov	 ebp, esp
  00003	56		 push	 esi
  00004	8b f1		 mov	 esi, ecx
  00006	8d 8e 48 01 00
	00		 lea	 ecx, DWORD PTR [esi+328]
  0000c	e8 00 00 00 00	 call	 ??1CStringList@@UAE@XZ	; CStringList::~CStringList
  00011	8d 8e 44 01 00
	00		 lea	 ecx, DWORD PTR [esi+324]
  00017	ff 15 00 00 00
	00		 call	 DWORD PTR __imp_??1?$CStringT@DV?$StrTraitMFC_DLL@DV?$ChTraitsCRT@D@ATL@@@@@ATL@@QAE@XZ
  0001d	8d 8e a8 00 00
	00		 lea	 ecx, DWORD PTR [esi+168]
  00023	e8 00 00 00 00	 call	 ??1CEditableListCtrl@@UAE@XZ ; CEditableListCtrl::~CEditableListCtrl
  00028	8b ce		 mov	 ecx, esi
  0002a	e8 00 00 00 00	 call	 ??1CDialog@@UAE@XZ	; CDialog::~CDialog
  0002f	8b 45 08	 mov	 eax, DWORD PTR ___flags$[ebp]
  00032	a8 01		 test	 al, 1
  00034	74 22		 je	 SHORT $LN12@scalar
  00036	a8 04		 test	 al, 4
  00038	75 10		 jne	 SHORT $LN3@scalar

; 112  : 	{ ::operator delete(p); }

  0003a	56		 push	 esi
  0003b	e8 00 00 00 00	 call	 ??3@YAXPAX@Z		; operator delete
  00040	83 c4 04	 add	 esp, 4
  00043	8b c6		 mov	 eax, esi
  00045	5e		 pop	 esi
  00046	5d		 pop	 ebp
  00047	c2 04 00	 ret	 4
$LN3@scalar:
  0004a	68 70 01 00 00	 push	 368			; 00000170H
  0004f	56		 push	 esi
  00050	e8 00 00 00 00	 call	 ?__global_delete@@YAXPAXI@Z ; __global_delete
  00055	83 c4 08	 add	 esp, 8
$LN12@scalar:
  00058	8b c6		 mov	 eax, esi
  0005a	5e		 pop	 esi
  0005b	5d		 pop	 ebp
  0005c	c2 04 00	 ret	 4
??_GCDlgLocalLanguageTable@@UAEPAXI@Z ENDP		; CDlgLocalLanguageTable::`scalar deleting destructor'
_TEXT	ENDS
; Function compile flags: /Ogtp
; File D:\git\src\IBK\IBK_DRFN\ProjSrc\SrcChartEx\ChartAddIn\ChartDesignPropertyAddIn\ChartDesignPropertyAddIn\DlgLocalLanguageTable.cpp
;	COMDAT ?SetProperty@CDlgLocalLanguageTable@@QAEXPAUIPropertyMap@@@Z
_TEXT	SEGMENT
_szTemp$ = -4						; size = 4
_p_pIPropertyMap$ = 8					; size = 4
?SetProperty@CDlgLocalLanguageTable@@QAEXPAUIPropertyMap@@@Z PROC ; CDlgLocalLanguageTable::SetProperty, COMDAT
; _this$ = ecx

; 63   : {

  00000	55		 push	 ebp
  00001	8b ec		 mov	 ebp, esp
  00003	51		 push	 ecx
  00004	53		 push	 ebx
  00005	56		 push	 esi

; 64   : 	// (2006/7/5 - Seung-Won, Bae) Use IPropertyMap
; 65   : 	CHART_CONVERT_BEGIN()
; 66   : 		CHART_CONVERT_STRING(		p_pIPropertyMap, g_anPropertyShortKey[	LOCALLANGUAGETABLE],	m_strLocalLanguageTable,	_DPV_LOCALLANGUAGETABLE);	

  00006	8b 75 08	 mov	 esi, DWORD PTR _p_pIPropertyMap$[ebp]
  00009	57		 push	 edi
  0000a	8b f9		 mov	 edi, ecx
  0000c	c7 45 fc 00 00
	00 00		 mov	 DWORD PTR _szTemp$[ebp], 0
  00013	8d 4d fc	 lea	 ecx, DWORD PTR _szTemp$[ebp]
  00016	8b 06		 mov	 eax, DWORD PTR [esi]
  00018	51		 push	 ecx
  00019	ff 35 2c 01 00
	00		 push	 DWORD PTR ?g_anPropertyShortKey@@3PAPADA+300
  0001f	8b ce		 mov	 ecx, esi
  00021	ff 50 0c	 call	 DWORD PTR [eax+12]
  00024	8d 8f 44 01 00
	00		 lea	 ecx, DWORD PTR [edi+324]
  0002a	83 f8 01	 cmp	 eax, 1
  0002d	75 05		 jne	 SHORT $LN2@SetPropert
  0002f	ff 75 fc	 push	 DWORD PTR _szTemp$[ebp]
  00032	eb 05		 jmp	 SHORT $LN5@SetPropert
$LN2@SetPropert:
  00034	68 00 00 00 00	 push	 OFFSET ??_C@_00CNPNBAHC@@
$LN5@SetPropert:

; 67   : 	CHART_CONVERT_END()
; 68   : 
; 69   : 	// (2006/7/5 - Seung-Won, Bae) Manage Property Map for Update
; 70   : 	m_pIPropertyMap = p_pIPropertyMap;
; 71   : }

  00039	ff 15 00 00 00
	00		 call	 DWORD PTR __imp_??4?$CStringT@DV?$StrTraitMFC_DLL@DV?$ChTraitsCRT@D@ATL@@@@@ATL@@QAEAAV01@PBD@Z
  0003f	89 b7 40 01 00
	00		 mov	 DWORD PTR [edi+320], esi
  00045	5f		 pop	 edi
  00046	5e		 pop	 esi
  00047	5b		 pop	 ebx
  00048	8b e5		 mov	 esp, ebp
  0004a	5d		 pop	 ebp
  0004b	c2 04 00	 ret	 4
?SetProperty@CDlgLocalLanguageTable@@QAEXPAUIPropertyMap@@@Z ENDP ; CDlgLocalLanguageTable::SetProperty
_TEXT	ENDS
; Function compile flags: /Ogtp
; File D:\git\src\IBK\IBK_DRFN\ProjSrc\SrcChartEx\ChartAddIn\ChartDesignPropertyAddIn\ChartDesignPropertyAddIn\DlgLocalLanguageTable.cpp
;	COMDAT ?GetMessageMap@CDlgLocalLanguageTable@@MBEPBUAFX_MSGMAP@@XZ
_TEXT	SEGMENT
?GetMessageMap@CDlgLocalLanguageTable@@MBEPBUAFX_MSGMAP@@XZ PROC ; CDlgLocalLanguageTable::GetMessageMap, COMDAT
; _this$ = ecx

; 46   : BEGIN_MESSAGE_MAP(CDlgLocalLanguageTable, CDialog)

  00000	b8 00 00 00 00	 mov	 eax, OFFSET ?messageMap@?1??GetThisMessageMap@CDlgLocalLanguageTable@@KGPBUAFX_MSGMAP@@XZ@4U3@B
  00005	c3		 ret	 0
?GetMessageMap@CDlgLocalLanguageTable@@MBEPBUAFX_MSGMAP@@XZ ENDP ; CDlgLocalLanguageTable::GetMessageMap
_TEXT	ENDS
; Function compile flags: /Ogtp
; File D:\git\src\IBK\IBK_DRFN\ProjSrc\SrcChartEx\ChartAddIn\ChartDesignPropertyAddIn\ChartDesignPropertyAddIn\DlgLocalLanguageTable.cpp
;	COMDAT ?GetThisMessageMap@CDlgLocalLanguageTable@@KGPBUAFX_MSGMAP@@XZ
_TEXT	SEGMENT
?GetThisMessageMap@CDlgLocalLanguageTable@@KGPBUAFX_MSGMAP@@XZ PROC ; CDlgLocalLanguageTable::GetThisMessageMap, COMDAT

; 47   : 	//{{AFX_MSG_MAP(CDlgLocalLanguageTable)
; 48   : 	ON_WM_DESTROY()
; 49   : 	ON_BN_CLICKED(IDC_BTN_DELETE, OnBtnDelete)
; 50   : 	ON_BN_CLICKED(IDC_BTN_ADD, OnBtnAdd)
; 51   : 	ON_WM_SIZE()
; 52   : 	ON_WM_GETMINMAXINFO()
; 53   : 	ON_BN_CLICKED(IDC_BTN_REDEFINE_GLOBAL, OnBtnRedefineGlobal)
; 54   : 	ON_CBN_SELENDOK(IDC_CMB_GLOBAL, OnSelendokCmbGlobal)
; 55   : 	//}}AFX_MSG_MAP
; 56   : END_MESSAGE_MAP()

  00000	b8 00 00 00 00	 mov	 eax, OFFSET ?messageMap@?1??GetThisMessageMap@CDlgLocalLanguageTable@@KGPBUAFX_MSGMAP@@XZ@4U3@B
  00005	c3		 ret	 0
?GetThisMessageMap@CDlgLocalLanguageTable@@KGPBUAFX_MSGMAP@@XZ ENDP ; CDlgLocalLanguageTable::GetThisMessageMap
_TEXT	ENDS
; Function compile flags: /Ogtp
; File D:\git\src\IBK\IBK_DRFN\ProjSrc\SrcChartEx\ChartAddIn\ChartDesignPropertyAddIn\ChartDesignPropertyAddIn\DlgLocalLanguageTable.cpp
; File C:\Program Files (x86)\Microsoft Visual Studio\2019\Community\VC\Tools\MSVC\14.29.30133\atlmfc\include\afxcmn.inl
; File D:\git\src\IBK\IBK_DRFN\ProjSrc\SrcChartEx\ChartAddIn\ChartDesignPropertyAddIn\ChartDesignPropertyAddIn\DlgLocalLanguageTable.cpp
; File C:\Program Files (x86)\Microsoft Visual Studio\2019\Community\VC\Tools\MSVC\14.29.30133\atlmfc\include\afxcmn.inl
; File D:\git\src\IBK\IBK_DRFN\ProjSrc\SrcChartEx\ChartAddIn\ChartDesignPropertyAddIn\ChartDesignPropertyAddIn\DlgLocalLanguageTable.cpp
; File C:\Program Files (x86)\Microsoft Visual Studio\2019\Community\VC\Tools\MSVC\14.29.30133\atlmfc\include\afx.inl
; File D:\git\src\IBK\IBK_DRFN\ProjSrc\SrcChartEx\ChartAddIn\ChartDesignPropertyAddIn\ChartDesignPropertyAddIn\DlgLocalLanguageTable.cpp
; File C:\Program Files (x86)\Microsoft Visual Studio\2019\Community\VC\Tools\MSVC\14.29.30133\atlmfc\include\afx.inl
; File D:\git\src\IBK\IBK_DRFN\ProjSrc\SrcChartEx\ChartAddIn\ChartDesignPropertyAddIn\ChartDesignPropertyAddIn\DlgLocalLanguageTable.cpp
; File C:\Program Files (x86)\Microsoft Visual Studio\2019\Community\VC\Tools\MSVC\14.29.30133\atlmfc\include\cstringt.h
; File D:\git\src\IBK\IBK_DRFN\ProjSrc\SrcChartEx\ChartAddIn\ChartDesignPropertyAddIn\ChartDesignPropertyAddIn\DlgLocalLanguageTable.cpp
; File C:\Program Files (x86)\Microsoft Visual Studio\2019\Community\VC\Tools\MSVC\14.29.30133\atlmfc\include\afxcmn.inl
; File D:\git\src\IBK\IBK_DRFN\ProjSrc\SrcChartEx\ChartAddIn\ChartDesignPropertyAddIn\ChartDesignPropertyAddIn\DlgLocalLanguageTable.cpp
; File C:\Program Files (x86)\Microsoft Visual Studio\2019\Community\VC\Tools\MSVC\14.29.30133\atlmfc\include\afxcmn.inl
; File D:\git\src\IBK\IBK_DRFN\ProjSrc\SrcChartEx\ChartAddIn\ChartDesignPropertyAddIn\ChartDesignPropertyAddIn\DlgLocalLanguageTable.cpp
;	COMDAT ?OnSelendokCmbGlobal@CDlgLocalLanguageTable@@IAEXXZ
_TEXT	SEGMENT
_info$ = -52						; size = 24
_strLanguageText$ = -28					; size = 4
_strEnglishText$ = -24					; size = 4
$T2 = -20						; size = 4
$T3 = -20						; size = 4
_strMetaText$ = -16					; size = 4
__$EHRec$ = -12						; size = 12
?OnSelendokCmbGlobal@CDlgLocalLanguageTable@@IAEXXZ PROC ; CDlgLocalLanguageTable::OnSelendokCmbGlobal, COMDAT
; _this$ = ecx

; 468  : {

  00000	55		 push	 ebp
  00001	8b ec		 mov	 ebp, esp
  00003	6a ff		 push	 -1
  00005	68 00 00 00 00	 push	 __ehhandler$?OnSelendokCmbGlobal@CDlgLocalLanguageTable@@IAEXXZ
  0000a	64 a1 00 00 00
	00		 mov	 eax, DWORD PTR fs:0
  00010	50		 push	 eax
  00011	83 ec 28	 sub	 esp, 40			; 00000028H
  00014	53		 push	 ebx
  00015	56		 push	 esi
  00016	57		 push	 edi
  00017	a1 00 00 00 00	 mov	 eax, DWORD PTR ___security_cookie
  0001c	33 c5		 xor	 eax, ebp
  0001e	50		 push	 eax
  0001f	8d 45 f4	 lea	 eax, DWORD PTR __$EHRec$[ebp]
  00022	64 a3 00 00 00
	00		 mov	 DWORD PTR fs:0, eax
  00028	8b d9		 mov	 ebx, ecx

; 469  : 	// TODO: Add your control notification handler code here
; 470  : 
; 471  : 	CString strMetaText;

  0002a	8d 4d f0	 lea	 ecx, DWORD PTR _strMetaText$[ebp]
  0002d	ff 15 00 00 00
	00		 call	 DWORD PTR __imp_??0?$CStringT@DV?$StrTraitMFC_DLL@DV?$ChTraitsCRT@D@ATL@@@@@ATL@@QAE@XZ

; 472  : 	GetDlgItem( IDC_CMB_GLOBAL)->GetWindowText( strMetaText);

  00033	8d 45 f0	 lea	 eax, DWORD PTR _strMetaText$[ebp]
  00036	c7 45 fc 00 00
	00 00		 mov	 DWORD PTR __$EHRec$[ebp+8], 0
  0003d	50		 push	 eax
  0003e	68 e7 07 00 00	 push	 2023			; 000007e7H
  00043	8b cb		 mov	 ecx, ebx
  00045	e8 00 00 00 00	 call	 ?GetDlgItem@CWnd@@QBEPAV1@H@Z ; CWnd::GetDlgItem
  0004a	8b c8		 mov	 ecx, eax
  0004c	e8 00 00 00 00	 call	 ?GetWindowTextA@CWnd@@QBEXAAV?$CStringT@DV?$StrTraitMFC_DLL@DV?$ChTraitsCRT@D@ATL@@@@@ATL@@@Z ; CWnd::GetWindowTextA

; 476  : 	info.psz = strMetaText;

  00051	8b 45 f0	 mov	 eax, DWORD PTR _strMetaText$[ebp]
  00054	89 45 d0	 mov	 DWORD PTR _info$[ebp+4], eax
; File C:\Program Files (x86)\Microsoft Visual Studio\2019\Community\VC\Tools\MSVC\14.29.30133\atlmfc\include\afxcmn.inl

; 183  : 	{ ASSERT(::IsWindow(m_hWnd)); return (int) ::SendMessage(m_hWnd, LVM_FINDITEM, nStart, (LPARAM)pFindInfo); }

  00057	8d 45 cc	 lea	 eax, DWORD PTR _info$[ebp]
  0005a	50		 push	 eax
  0005b	6a ff		 push	 -1
  0005d	68 0d 10 00 00	 push	 4109			; 0000100dH
  00062	ff b3 c8 00 00
	00		 push	 DWORD PTR [ebx+200]
; File D:\git\src\IBK\IBK_DRFN\ProjSrc\SrcChartEx\ChartAddIn\ChartDesignPropertyAddIn\ChartDesignPropertyAddIn\DlgLocalLanguageTable.cpp

; 475  : 	info.flags = LVFI_STRING;

  00068	c7 45 cc 02 00
	00 00		 mov	 DWORD PTR _info$[ebp], 2
; File C:\Program Files (x86)\Microsoft Visual Studio\2019\Community\VC\Tools\MSVC\14.29.30133\atlmfc\include\afxcmn.inl

; 183  : 	{ ASSERT(::IsWindow(m_hWnd)); return (int) ::SendMessage(m_hWnd, LVM_FINDITEM, nStart, (LPARAM)pFindInfo); }

  0006f	ff 15 00 00 00
	00		 call	 DWORD PTR __imp__SendMessageA@16
; File D:\git\src\IBK\IBK_DRFN\ProjSrc\SrcChartEx\ChartAddIn\ChartDesignPropertyAddIn\ChartDesignPropertyAddIn\DlgLocalLanguageTable.cpp

; 478  : 	if( 0 <= nIndex)

  00075	85 c0		 test	 eax, eax
  00077	78 4f		 js	 SHORT $LN5@OnSelendok

; 479  : 	{
; 480  : 		AfxMessageBox( "It was added already!");

  00079	6a 00		 push	 0
  0007b	6a 00		 push	 0
  0007d	68 00 00 00 00	 push	 OFFSET ??_C@_0BG@JOCHGPMF@It?5was?5added?5already?$CB@
  00082	e8 00 00 00 00	 call	 ?AfxMessageBox@@YGHPBDII@Z ; AfxMessageBox

; 481  : 
; 482  : 		GetDlgItem( IDC_BTN_REDEFINE_GLOBAL)->ShowWindow( SW_SHOW);

  00087	6a 05		 push	 5
  00089	68 e8 07 00 00	 push	 2024			; 000007e8H
  0008e	8b cb		 mov	 ecx, ebx
  00090	e8 00 00 00 00	 call	 ?GetDlgItem@CWnd@@QBEPAV1@H@Z ; CWnd::GetDlgItem
  00095	8b c8		 mov	 ecx, eax
  00097	e8 00 00 00 00	 call	 ?ShowWindow@CWnd@@QAEHH@Z ; CWnd::ShowWindow

; 483  : 		GetDlgItem( IDC_BTN_DELETE)->ShowWindow( SW_SHOW);

  0009c	6a 05		 push	 5
  0009e	6a 05		 push	 5
  000a0	8b cb		 mov	 ecx, ebx
  000a2	e8 00 00 00 00	 call	 ?GetDlgItem@CWnd@@QBEPAV1@H@Z ; CWnd::GetDlgItem
  000a7	8b c8		 mov	 ecx, eax
  000a9	e8 00 00 00 00	 call	 ?ShowWindow@CWnd@@QAEHH@Z ; CWnd::ShowWindow

; 484  : 		GetDlgItem( IDC_CMB_GLOBAL)->ShowWindow( SW_HIDE);

  000ae	6a 00		 push	 0
  000b0	68 e7 07 00 00	 push	 2023			; 000007e7H
  000b5	8b cb		 mov	 ecx, ebx
  000b7	e8 00 00 00 00	 call	 ?GetDlgItem@CWnd@@QBEPAV1@H@Z ; CWnd::GetDlgItem
  000bc	8b c8		 mov	 ecx, eax
  000be	e8 00 00 00 00	 call	 ?ShowWindow@CWnd@@QAEHH@Z ; CWnd::ShowWindow
  000c3	e9 61 01 00 00	 jmp	 $LN18@OnSelendok
$LN5@OnSelendok:

; 488  : 	CString strLanguageText, strEnglishText;

  000c8	8d 4d e4	 lea	 ecx, DWORD PTR _strLanguageText$[ebp]
  000cb	ff 15 00 00 00
	00		 call	 DWORD PTR __imp_??0?$CStringT@DV?$StrTraitMFC_DLL@DV?$ChTraitsCRT@D@ATL@@@@@ATL@@QAE@XZ
  000d1	8d 4d e8	 lea	 ecx, DWORD PTR _strEnglishText$[ebp]
  000d4	ff 15 00 00 00
	00		 call	 DWORD PTR __imp_??0?$CStringT@DV?$StrTraitMFC_DLL@DV?$ChTraitsCRT@D@ATL@@@@@ATL@@QAE@XZ
; File C:\Program Files (x86)\Microsoft Visual Studio\2019\Community\VC\Tools\MSVC\14.29.30133\atlmfc\include\afx.inl

; 116  : 	{ return ::operator new(nSize); }

  000da	6a 1c		 push	 28			; 0000001cH
; File D:\git\src\IBK\IBK_DRFN\ProjSrc\SrcChartEx\ChartAddIn\ChartDesignPropertyAddIn\ChartDesignPropertyAddIn\DlgLocalLanguageTable.cpp

; 488  : 	CString strLanguageText, strEnglishText;

  000dc	c6 45 fc 02	 mov	 BYTE PTR __$EHRec$[ebp+8], 2
; File C:\Program Files (x86)\Microsoft Visual Studio\2019\Community\VC\Tools\MSVC\14.29.30133\atlmfc\include\afx.inl

; 116  : 	{ return ::operator new(nSize); }

  000e0	e8 00 00 00 00	 call	 ??2@YAPAXI@Z		; operator new
  000e5	83 c4 04	 add	 esp, 4
; File D:\git\src\IBK\IBK_DRFN\ProjSrc\SrcChartEx\ChartAddIn\ChartDesignPropertyAddIn\ChartDesignPropertyAddIn\DlgLocalLanguageTable.cpp

; 489  : 	CStringList *pLanguageList = new CStringList;

  000e8	89 45 ec	 mov	 DWORD PTR $T3[ebp], eax
  000eb	c6 45 fc 03	 mov	 BYTE PTR __$EHRec$[ebp+8], 3
  000ef	85 c0		 test	 eax, eax
  000f1	74 0b		 je	 SHORT $LN12@OnSelendok
  000f3	6a 0a		 push	 10			; 0000000aH
  000f5	8b c8		 mov	 ecx, eax
  000f7	e8 00 00 00 00	 call	 ??0CStringList@@QAE@H@Z	; CStringList::CStringList
  000fc	eb 02		 jmp	 SHORT $LN46@OnSelendok
$LN12@OnSelendok:
  000fe	33 c0		 xor	 eax, eax
$LN46@OnSelendok:

; 490  : 	pLanguageList->AddTail( strMetaText);				// for Other MetaText

  00100	8d 4d f0	 lea	 ecx, DWORD PTR _strMetaText$[ebp]
  00103	89 45 ec	 mov	 DWORD PTR $T2[ebp], eax
  00106	51		 push	 ecx
  00107	8b c8		 mov	 ecx, eax
  00109	c6 45 fc 02	 mov	 BYTE PTR __$EHRec$[ebp+8], 2
  0010d	e8 00 00 00 00	 call	 ?AddTail@CStringList@@QAEPAU__POSITION@@ABV?$CStringT@DV?$StrTraitMFC_DLL@DV?$ChTraitsCRT@D@ATL@@@@@ATL@@@Z ; CStringList::AddTail
  00112	33 f6		 xor	 esi, esi
$LL4@OnSelendok:

; 492  : 	{
; 493  : 		const char *szLanguageText = _MTOLDN( IMetaTable::PACKET_NAME, nLanguageID, strMetaText);

  00114	ff 75 f0	 push	 DWORD PTR _strMetaText$[ebp]
  00117	b9 00 00 00 00	 mov	 ecx, OFFSET ?g_iMetaTable@@3VIMetaTable@@A ; g_iMetaTable
  0011c	56		 push	 esi
  0011d	6a 00		 push	 0
  0011f	e8 00 00 00 00	 call	 ?GetLanguageTextDirectly@IMetaTable@@QAEPBDW4E_CODEPAGE@1@W4E_LANGUAGEID@1@PBD@Z ; IMetaTable::GetLanguageTextDirectly
  00124	8b f8		 mov	 edi, eax

; 494  : 		if( !szLanguageText || strMetaText == szLanguageText)

  00126	85 ff		 test	 edi, edi
  00128	74 0e		 je	 SHORT $LN7@OnSelendok
; File C:\Program Files (x86)\Microsoft Visual Studio\2019\Community\VC\Tools\MSVC\14.29.30133\atlmfc\include\cstringt.h

; 2486 : 		return(str1.Compare(psz2) == 0);

  0012a	57		 push	 edi
  0012b	8d 4d f0	 lea	 ecx, DWORD PTR _strMetaText$[ebp]
  0012e	ff 15 00 00 00
	00		 call	 DWORD PTR __imp_?Compare@?$CStringT@DV?$StrTraitMFC_DLL@DV?$ChTraitsCRT@D@ATL@@@@@ATL@@QBEHPBD@Z
  00134	85 c0		 test	 eax, eax
; File D:\git\src\IBK\IBK_DRFN\ProjSrc\SrcChartEx\ChartAddIn\ChartDesignPropertyAddIn\ChartDesignPropertyAddIn\DlgLocalLanguageTable.cpp

; 494  : 		if( !szLanguageText || strMetaText == szLanguageText)

  00136	75 12		 jne	 SHORT $LN6@OnSelendok
$LN7@OnSelendok:

; 495  : 			szLanguageText = _MTOLDN( IMetaTable::GRAPH_TITLE, nLanguageID, strMetaText);

  00138	ff 75 f0	 push	 DWORD PTR _strMetaText$[ebp]
  0013b	b9 00 00 00 00	 mov	 ecx, OFFSET ?g_iMetaTable@@3VIMetaTable@@A ; g_iMetaTable
  00140	56		 push	 esi
  00141	6a 01		 push	 1
  00143	e8 00 00 00 00	 call	 ?GetLanguageTextDirectly@IMetaTable@@QAEPBDW4E_CODEPAGE@1@W4E_LANGUAGEID@1@PBD@Z ; IMetaTable::GetLanguageTextDirectly
  00148	8b f8		 mov	 edi, eax
$LN6@OnSelendok:

; 496  : 		pLanguageList->AddTail( szLanguageText);

  0014a	8b 4d ec	 mov	 ecx, DWORD PTR $T2[ebp]
  0014d	57		 push	 edi
  0014e	e8 00 00 00 00	 call	 ?AddTail@CStringList@@QAEPAU__POSITION@@PBD@Z ; CStringList::AddTail

; 497  : 
; 498  : 		if( m_eLanguageID == nLanguageID) strLanguageText = szLanguageText;

  00153	39 b3 6c 01 00
	00		 cmp	 DWORD PTR [ebx+364], esi
  00159	75 0a		 jne	 SHORT $LN8@OnSelendok
  0015b	57		 push	 edi
  0015c	8d 4d e4	 lea	 ecx, DWORD PTR _strLanguageText$[ebp]
  0015f	ff 15 00 00 00
	00		 call	 DWORD PTR __imp_??4?$CStringT@DV?$StrTraitMFC_DLL@DV?$ChTraitsCRT@D@ATL@@@@@ATL@@QAEAAV01@PBD@Z
$LN8@OnSelendok:

; 499  : 		if( IMetaTable::ENGLISH == nLanguageID) strEnglishText = szLanguageText;

  00165	85 f6		 test	 esi, esi
  00167	75 0a		 jne	 SHORT $LN2@OnSelendok
  00169	57		 push	 edi
  0016a	8d 4d e8	 lea	 ecx, DWORD PTR _strEnglishText$[ebp]
  0016d	ff 15 00 00 00
	00		 call	 DWORD PTR __imp_??4?$CStringT@DV?$StrTraitMFC_DLL@DV?$ChTraitsCRT@D@ATL@@@@@ATL@@QAEAAV01@PBD@Z
$LN2@OnSelendok:

; 491  : 	for( int nLanguageID = IMetaTable::ENGLISH; nLanguageID < IMetaTable::LANGUAGE_ID_END; nLanguageID++)

  00173	46		 inc	 esi
  00174	83 fe 02	 cmp	 esi, 2
  00177	7c 9b		 jl	 SHORT $LL4@OnSelendok
; File C:\Program Files (x86)\Microsoft Visual Studio\2019\Community\VC\Tools\MSVC\14.29.30133\atlmfc\include\afxcmn.inl

; 165  : 	{ ASSERT(::IsWindow(m_hWnd)); return InsertItem(LVIF_TEXT, nItem, lpszItem, 0, 0, 0, 0); }

  00179	6a 00		 push	 0
  0017b	6a 00		 push	 0
  0017d	6a 00		 push	 0
  0017f	6a 00		 push	 0
  00181	ff 75 f0	 push	 DWORD PTR _strMetaText$[ebp]
  00184	8d 8b a8 00 00
	00		 lea	 ecx, DWORD PTR [ebx+168]
  0018a	6a 00		 push	 0
  0018c	6a 01		 push	 1
  0018e	e8 00 00 00 00	 call	 ?InsertItem@CListCtrl@@QAEHIHPBDIIHJ@Z ; CListCtrl::InsertItem
; File D:\git\src\IBK\IBK_DRFN\ProjSrc\SrcChartEx\ChartAddIn\ChartDesignPropertyAddIn\ChartDesignPropertyAddIn\DlgLocalLanguageTable.cpp

; 503  : 	m_lstLanguageTable.SetItemText( nIndex, 1, strEnglishText);

  00193	ff 75 e8	 push	 DWORD PTR _strEnglishText$[ebp]
  00196	8b f8		 mov	 edi, eax
  00198	8d 8b a8 00 00
	00		 lea	 ecx, DWORD PTR [ebx+168]
  0019e	6a 01		 push	 1
  001a0	57		 push	 edi
  001a1	e8 00 00 00 00	 call	 ?SetItemText@CListCtrl@@QAEHHHPBD@Z ; CListCtrl::SetItemText

; 504  : 	if( m_eLanguageID != IMetaTable::ENGLISH)

  001a6	83 bb 6c 01 00
	00 00		 cmp	 DWORD PTR [ebx+364], 0
  001ad	74 11		 je	 SHORT $LN10@OnSelendok

; 505  : 		m_lstLanguageTable.SetItemText( nIndex, 2, strLanguageText);

  001af	ff 75 e4	 push	 DWORD PTR _strLanguageText$[ebp]
  001b2	8d 8b a8 00 00
	00		 lea	 ecx, DWORD PTR [ebx+168]
  001b8	6a 02		 push	 2
  001ba	57		 push	 edi
  001bb	e8 00 00 00 00	 call	 ?SetItemText@CListCtrl@@QAEHHHPBD@Z ; CListCtrl::SetItemText
$LN10@OnSelendok:
; File C:\Program Files (x86)\Microsoft Visual Studio\2019\Community\VC\Tools\MSVC\14.29.30133\atlmfc\include\afxcmn.inl

; 161  : 	{ ASSERT(::IsWindow(m_hWnd)); return SetItem(nItem, 0, LVIF_PARAM, NULL, 0, 0, 0, (LPARAM)dwData); }

  001c0	ff 75 ec	 push	 DWORD PTR $T2[ebp]
  001c3	8d 8b a8 00 00
	00		 lea	 ecx, DWORD PTR [ebx+168]
  001c9	6a 00		 push	 0
  001cb	6a 00		 push	 0
  001cd	6a 00		 push	 0
  001cf	6a 00		 push	 0
  001d1	6a 04		 push	 4
  001d3	6a 00		 push	 0
  001d5	57		 push	 edi
  001d6	e8 00 00 00 00	 call	 ?SetItem@CListCtrl@@QAEHHHIPBDHIIJ@Z ; CListCtrl::SetItem
; File D:\git\src\IBK\IBK_DRFN\ProjSrc\SrcChartEx\ChartAddIn\ChartDesignPropertyAddIn\ChartDesignPropertyAddIn\DlgLocalLanguageTable.cpp

; 508  : 	GetDlgItem( IDC_BTN_REDEFINE_GLOBAL)->ShowWindow( SW_SHOW);

  001db	6a 05		 push	 5
  001dd	68 e8 07 00 00	 push	 2024			; 000007e8H
  001e2	8b cb		 mov	 ecx, ebx
  001e4	e8 00 00 00 00	 call	 ?GetDlgItem@CWnd@@QBEPAV1@H@Z ; CWnd::GetDlgItem
  001e9	8b c8		 mov	 ecx, eax
  001eb	e8 00 00 00 00	 call	 ?ShowWindow@CWnd@@QAEHH@Z ; CWnd::ShowWindow

; 509  : 	GetDlgItem( IDC_BTN_DELETE)->ShowWindow( SW_SHOW);

  001f0	6a 05		 push	 5
  001f2	6a 05		 push	 5
  001f4	8b cb		 mov	 ecx, ebx
  001f6	e8 00 00 00 00	 call	 ?GetDlgItem@CWnd@@QBEPAV1@H@Z ; CWnd::GetDlgItem
  001fb	8b c8		 mov	 ecx, eax
  001fd	e8 00 00 00 00	 call	 ?ShowWindow@CWnd@@QAEHH@Z ; CWnd::ShowWindow

; 510  : 	GetDlgItem( IDC_CMB_GLOBAL)->ShowWindow( SW_HIDE);

  00202	6a 00		 push	 0
  00204	68 e7 07 00 00	 push	 2023			; 000007e7H
  00209	8b cb		 mov	 ecx, ebx
  0020b	e8 00 00 00 00	 call	 ?GetDlgItem@CWnd@@QBEPAV1@H@Z ; CWnd::GetDlgItem
  00210	8b c8		 mov	 ecx, eax
  00212	e8 00 00 00 00	 call	 ?ShowWindow@CWnd@@QAEHH@Z ; CWnd::ShowWindow

; 511  : }

  00217	8d 4d e8	 lea	 ecx, DWORD PTR _strEnglishText$[ebp]
  0021a	ff 15 00 00 00
	00		 call	 DWORD PTR __imp_??1?$CStringT@DV?$StrTraitMFC_DLL@DV?$ChTraitsCRT@D@ATL@@@@@ATL@@QAE@XZ
  00220	8d 4d e4	 lea	 ecx, DWORD PTR _strLanguageText$[ebp]
  00223	ff 15 00 00 00
	00		 call	 DWORD PTR __imp_??1?$CStringT@DV?$StrTraitMFC_DLL@DV?$ChTraitsCRT@D@ATL@@@@@ATL@@QAE@XZ
$LN18@OnSelendok:
  00229	8d 4d f0	 lea	 ecx, DWORD PTR _strMetaText$[ebp]
  0022c	ff 15 00 00 00
	00		 call	 DWORD PTR __imp_??1?$CStringT@DV?$StrTraitMFC_DLL@DV?$ChTraitsCRT@D@ATL@@@@@ATL@@QAE@XZ
  00232	8b 4d f4	 mov	 ecx, DWORD PTR __$EHRec$[ebp]
  00235	64 89 0d 00 00
	00 00		 mov	 DWORD PTR fs:0, ecx
  0023c	59		 pop	 ecx
  0023d	5f		 pop	 edi
  0023e	5e		 pop	 esi
  0023f	5b		 pop	 ebx
  00240	8b e5		 mov	 esp, ebp
  00242	5d		 pop	 ebp
  00243	c3		 ret	 0
_TEXT	ENDS
;	COMDAT text$x
text$x	SEGMENT
__unwindfunclet$?OnSelendokCmbGlobal@CDlgLocalLanguageTable@@IAEXXZ$0:
  00000	8d 4d f0	 lea	 ecx, DWORD PTR _strMetaText$[ebp]
  00003	ff 25 00 00 00
	00		 jmp	 DWORD PTR __imp_??1?$CStringT@DV?$StrTraitMFC_DLL@DV?$ChTraitsCRT@D@ATL@@@@@ATL@@QAE@XZ
__unwindfunclet$?OnSelendokCmbGlobal@CDlgLocalLanguageTable@@IAEXXZ$1:
  00009	8d 4d e4	 lea	 ecx, DWORD PTR _strLanguageText$[ebp]
  0000c	ff 25 00 00 00
	00		 jmp	 DWORD PTR __imp_??1?$CStringT@DV?$StrTraitMFC_DLL@DV?$ChTraitsCRT@D@ATL@@@@@ATL@@QAE@XZ
__unwindfunclet$?OnSelendokCmbGlobal@CDlgLocalLanguageTable@@IAEXXZ$2:
  00012	8d 4d e8	 lea	 ecx, DWORD PTR _strEnglishText$[ebp]
  00015	ff 25 00 00 00
	00		 jmp	 DWORD PTR __imp_??1?$CStringT@DV?$StrTraitMFC_DLL@DV?$ChTraitsCRT@D@ATL@@@@@ATL@@QAE@XZ
__unwindfunclet$?OnSelendokCmbGlobal@CDlgLocalLanguageTable@@IAEXXZ$3:
  0001b	8b 45 ec	 mov	 eax, DWORD PTR $T3[ebp]
  0001e	50		 push	 eax
  0001f	e8 00 00 00 00	 call	 ??3CObject@@SGXPAX@Z	; CObject::operator delete
  00024	c3		 ret	 0
  00025	cc		 int	 3
  00026	cc		 int	 3
  00027	cc		 int	 3
  00028	cc		 int	 3
  00029	cc		 int	 3
__ehhandler$?OnSelendokCmbGlobal@CDlgLocalLanguageTable@@IAEXXZ:
  0002a	90		 npad	 1
  0002b	90		 npad	 1
  0002c	8b 54 24 08	 mov	 edx, DWORD PTR [esp+8]
  00030	8d 42 0c	 lea	 eax, DWORD PTR [edx+12]
  00033	8b 4a c8	 mov	 ecx, DWORD PTR [edx-56]
  00036	33 c8		 xor	 ecx, eax
  00038	e8 00 00 00 00	 call	 @__security_check_cookie@4
  0003d	b8 00 00 00 00	 mov	 eax, OFFSET __ehfuncinfo$?OnSelendokCmbGlobal@CDlgLocalLanguageTable@@IAEXXZ
  00042	e9 00 00 00 00	 jmp	 ___CxxFrameHandler3
text$x	ENDS
?OnSelendokCmbGlobal@CDlgLocalLanguageTable@@IAEXXZ ENDP ; CDlgLocalLanguageTable::OnSelendokCmbGlobal
; Function compile flags: /Ogtp
; File D:\git\src\IBK\IBK_DRFN\ProjSrc\SrcChartEx\ChartAddIn\ChartDesignPropertyAddIn\ChartDesignPropertyAddIn\DlgLocalLanguageTable.cpp
;	COMDAT ?OnBtnRedefineGlobal@CDlgLocalLanguageTable@@IAEXXZ
_TEXT	SEGMENT
?OnBtnRedefineGlobal@CDlgLocalLanguageTable@@IAEXXZ PROC ; CDlgLocalLanguageTable::OnBtnRedefineGlobal, COMDAT
; _this$ = ecx

; 459  : {

  00000	56		 push	 esi

; 460  : 	// TODO: Add your control notification handler code here
; 461  : 	GetDlgItem( IDC_BTN_REDEFINE_GLOBAL)->ShowWindow( SW_HIDE);

  00001	6a 00		 push	 0
  00003	68 e8 07 00 00	 push	 2024			; 000007e8H
  00008	8b f1		 mov	 esi, ecx
  0000a	e8 00 00 00 00	 call	 ?GetDlgItem@CWnd@@QBEPAV1@H@Z ; CWnd::GetDlgItem
  0000f	8b c8		 mov	 ecx, eax
  00011	e8 00 00 00 00	 call	 ?ShowWindow@CWnd@@QAEHH@Z ; CWnd::ShowWindow

; 462  : 	GetDlgItem( IDC_BTN_DELETE)->ShowWindow( SW_HIDE);

  00016	6a 00		 push	 0
  00018	6a 05		 push	 5
  0001a	8b ce		 mov	 ecx, esi
  0001c	e8 00 00 00 00	 call	 ?GetDlgItem@CWnd@@QBEPAV1@H@Z ; CWnd::GetDlgItem
  00021	8b c8		 mov	 ecx, eax
  00023	e8 00 00 00 00	 call	 ?ShowWindow@CWnd@@QAEHH@Z ; CWnd::ShowWindow

; 463  : 	GetDlgItem( IDC_CMB_GLOBAL)->ShowWindow( SW_SHOW);

  00028	6a 05		 push	 5
  0002a	68 e7 07 00 00	 push	 2023			; 000007e7H
  0002f	8b ce		 mov	 ecx, esi
  00031	e8 00 00 00 00	 call	 ?GetDlgItem@CWnd@@QBEPAV1@H@Z ; CWnd::GetDlgItem
  00036	8b c8		 mov	 ecx, eax
  00038	e8 00 00 00 00	 call	 ?ShowWindow@CWnd@@QAEHH@Z ; CWnd::ShowWindow

; 464  : 	GetDlgItem( IDC_CMB_GLOBAL)->SetFocus();

  0003d	68 e7 07 00 00	 push	 2023			; 000007e7H
  00042	8b ce		 mov	 ecx, esi
  00044	e8 00 00 00 00	 call	 ?GetDlgItem@CWnd@@QBEPAV1@H@Z ; CWnd::GetDlgItem
  00049	8b c8		 mov	 ecx, eax
  0004b	5e		 pop	 esi
  0004c	e9 00 00 00 00	 jmp	 ?SetFocus@CWnd@@QAEPAV1@XZ ; CWnd::SetFocus
?OnBtnRedefineGlobal@CDlgLocalLanguageTable@@IAEXXZ ENDP ; CDlgLocalLanguageTable::OnBtnRedefineGlobal
_TEXT	ENDS
; Function compile flags: /Ogtp
; File D:\git\src\IBK\IBK_DRFN\ProjSrc\SrcChartEx\ChartAddIn\ChartDesignPropertyAddIn\ChartDesignPropertyAddIn\DlgLocalLanguageTable.cpp
; File C:\Program Files (x86)\Microsoft Visual Studio\2019\Community\VC\Tools\MSVC\14.29.30133\atlmfc\include\afxwin2.inl
; File D:\git\src\IBK\IBK_DRFN\ProjSrc\SrcChartEx\ChartAddIn\ChartDesignPropertyAddIn\ChartDesignPropertyAddIn\DlgLocalLanguageTable.cpp
;	COMDAT ?OnGetMinMaxInfo@CDlgLocalLanguageTable@@IAEXPAUtagMINMAXINFO@@@Z
_TEXT	SEGMENT
_lpMMI$ = 8						; size = 4
?OnGetMinMaxInfo@CDlgLocalLanguageTable@@IAEXPAUtagMINMAXINFO@@@Z PROC ; CDlgLocalLanguageTable::OnGetMinMaxInfo, COMDAT
; _this$ = ecx

; 388  : {

  00000	55		 push	 ebp
  00001	8b ec		 mov	 ebp, esp

; 389  : 	// TODO: Add your message handler code here and/or call default
; 390  : 	
; 391  : 	lpMMI->ptMinTrackSize = m_ptMinSize;

  00003	8b 45 08	 mov	 eax, DWORD PTR _lpMMI$[ebp]
  00006	8b 91 64 01 00
	00		 mov	 edx, DWORD PTR [ecx+356]
  0000c	56		 push	 esi
  0000d	8b b1 68 01 00
	00		 mov	 esi, DWORD PTR [ecx+360]
  00013	89 50 18	 mov	 DWORD PTR [eax+24], edx
  00016	89 70 1c	 mov	 DWORD PTR [eax+28], esi
; File C:\Program Files (x86)\Microsoft Visual Studio\2019\Community\VC\Tools\MSVC\14.29.30133\atlmfc\include\afxwin2.inl

; 304  : 	{ Default(); }

  00019	e8 00 00 00 00	 call	 ?Default@CWnd@@IAEJXZ	; CWnd::Default
  0001e	5e		 pop	 esi
; File D:\git\src\IBK\IBK_DRFN\ProjSrc\SrcChartEx\ChartAddIn\ChartDesignPropertyAddIn\ChartDesignPropertyAddIn\DlgLocalLanguageTable.cpp

; 393  : }

  0001f	5d		 pop	 ebp
  00020	c2 04 00	 ret	 4
?OnGetMinMaxInfo@CDlgLocalLanguageTable@@IAEXPAUtagMINMAXINFO@@@Z ENDP ; CDlgLocalLanguageTable::OnGetMinMaxInfo
_TEXT	ENDS
; Function compile flags: /Ogtp
; File D:\git\src\IBK\IBK_DRFN\ProjSrc\SrcChartEx\ChartAddIn\ChartDesignPropertyAddIn\ChartDesignPropertyAddIn\DlgLocalLanguageTable.cpp
; File C:\Program Files (x86)\Microsoft Visual Studio\2019\Community\VC\Tools\MSVC\14.29.30133\atlmfc\include\afxwin2.inl
; File D:\git\src\IBK\IBK_DRFN\ProjSrc\SrcChartEx\ChartAddIn\ChartDesignPropertyAddIn\ChartDesignPropertyAddIn\DlgLocalLanguageTable.cpp
; File C:\Program Files (x86)\Microsoft Visual Studio\2019\Community\VC\Tools\MSVC\14.29.30133\atlmfc\include\atltypes.h
; File D:\git\src\IBK\IBK_DRFN\ProjSrc\SrcChartEx\ChartAddIn\ChartDesignPropertyAddIn\ChartDesignPropertyAddIn\DlgLocalLanguageTable.cpp
; File C:\Program Files (x86)\Microsoft Visual Studio\2019\Community\VC\Tools\MSVC\14.29.30133\atlmfc\include\afxwin2.inl
; File D:\git\src\IBK\IBK_DRFN\ProjSrc\SrcChartEx\ChartAddIn\ChartDesignPropertyAddIn\ChartDesignPropertyAddIn\DlgLocalLanguageTable.cpp
; File C:\Program Files (x86)\Microsoft Visual Studio\2019\Community\VC\Tools\MSVC\14.29.30133\atlmfc\include\afxwin2.inl
; File D:\git\src\IBK\IBK_DRFN\ProjSrc\SrcChartEx\ChartAddIn\ChartDesignPropertyAddIn\ChartDesignPropertyAddIn\DlgLocalLanguageTable.cpp
; File C:\Program Files (x86)\Microsoft Visual Studio\2019\Community\VC\Tools\MSVC\14.29.30133\atlmfc\include\atltypes.h
; File D:\git\src\IBK\IBK_DRFN\ProjSrc\SrcChartEx\ChartAddIn\ChartDesignPropertyAddIn\ChartDesignPropertyAddIn\DlgLocalLanguageTable.cpp
; File C:\Program Files (x86)\Microsoft Visual Studio\2019\Community\VC\Tools\MSVC\14.29.30133\atlmfc\include\atltypes.h
; File D:\git\src\IBK\IBK_DRFN\ProjSrc\SrcChartEx\ChartAddIn\ChartDesignPropertyAddIn\ChartDesignPropertyAddIn\DlgLocalLanguageTable.cpp
; File C:\Program Files (x86)\Microsoft Visual Studio\2019\Community\VC\Tools\MSVC\14.29.30133\atlmfc\include\atltypes.h
; File C:\Program Files (x86)\Microsoft Visual Studio\2019\Community\VC\Tools\MSVC\14.29.30133\atlmfc\include\afxwin2.inl
; File D:\git\src\IBK\IBK_DRFN\ProjSrc\SrcChartEx\ChartAddIn\ChartDesignPropertyAddIn\ChartDesignPropertyAddIn\DlgLocalLanguageTable.cpp
; File C:\Program Files (x86)\Microsoft Visual Studio\2019\Community\VC\Tools\MSVC\14.29.30133\atlmfc\include\atltypes.h
; File D:\git\src\IBK\IBK_DRFN\ProjSrc\SrcChartEx\ChartAddIn\ChartDesignPropertyAddIn\ChartDesignPropertyAddIn\DlgLocalLanguageTable.cpp
; File C:\Program Files (x86)\Microsoft Visual Studio\2019\Community\VC\Tools\MSVC\14.29.30133\atlmfc\include\afxwin2.inl
; File D:\git\src\IBK\IBK_DRFN\ProjSrc\SrcChartEx\ChartAddIn\ChartDesignPropertyAddIn\ChartDesignPropertyAddIn\DlgLocalLanguageTable.cpp
; File C:\Program Files (x86)\Microsoft Visual Studio\2019\Community\VC\Tools\MSVC\14.29.30133\atlmfc\include\atltypes.h
; File D:\git\src\IBK\IBK_DRFN\ProjSrc\SrcChartEx\ChartAddIn\ChartDesignPropertyAddIn\ChartDesignPropertyAddIn\DlgLocalLanguageTable.cpp
; File C:\Program Files (x86)\Microsoft Visual Studio\2019\Community\VC\Tools\MSVC\14.29.30133\atlmfc\include\atltypes.h
; File D:\git\src\IBK\IBK_DRFN\ProjSrc\SrcChartEx\ChartAddIn\ChartDesignPropertyAddIn\ChartDesignPropertyAddIn\DlgLocalLanguageTable.cpp
; File C:\Program Files (x86)\Microsoft Visual Studio\2019\Community\VC\Tools\MSVC\14.29.30133\atlmfc\include\atltypes.h
; File D:\git\src\IBK\IBK_DRFN\ProjSrc\SrcChartEx\ChartAddIn\ChartDesignPropertyAddIn\ChartDesignPropertyAddIn\DlgLocalLanguageTable.cpp
; File C:\Program Files (x86)\Microsoft Visual Studio\2019\Community\VC\Tools\MSVC\14.29.30133\atlmfc\include\atltypes.h
; File D:\git\src\IBK\IBK_DRFN\ProjSrc\SrcChartEx\ChartAddIn\ChartDesignPropertyAddIn\ChartDesignPropertyAddIn\DlgLocalLanguageTable.cpp
; File C:\Program Files (x86)\Microsoft Visual Studio\2019\Community\VC\Tools\MSVC\14.29.30133\atlmfc\include\atltypes.h
; File C:\Program Files (x86)\Microsoft Visual Studio\2019\Community\VC\Tools\MSVC\14.29.30133\atlmfc\include\afxwin2.inl
; File D:\git\src\IBK\IBK_DRFN\ProjSrc\SrcChartEx\ChartAddIn\ChartDesignPropertyAddIn\ChartDesignPropertyAddIn\DlgLocalLanguageTable.cpp
; File C:\Program Files (x86)\Microsoft Visual Studio\2019\Community\VC\Tools\MSVC\14.29.30133\atlmfc\include\afxwin2.inl
; File D:\git\src\IBK\IBK_DRFN\ProjSrc\SrcChartEx\ChartAddIn\ChartDesignPropertyAddIn\ChartDesignPropertyAddIn\DlgLocalLanguageTable.cpp
; File C:\Program Files (x86)\Microsoft Visual Studio\2019\Community\VC\Tools\MSVC\14.29.30133\atlmfc\include\atltypes.h
; File D:\git\src\IBK\IBK_DRFN\ProjSrc\SrcChartEx\ChartAddIn\ChartDesignPropertyAddIn\ChartDesignPropertyAddIn\DlgLocalLanguageTable.cpp
; File C:\Program Files (x86)\Microsoft Visual Studio\2019\Community\VC\Tools\MSVC\14.29.30133\atlmfc\include\atltypes.h
; File C:\Program Files (x86)\Microsoft Visual Studio\2019\Community\VC\Tools\MSVC\14.29.30133\atlmfc\include\afxwin2.inl
; File D:\git\src\IBK\IBK_DRFN\ProjSrc\SrcChartEx\ChartAddIn\ChartDesignPropertyAddIn\ChartDesignPropertyAddIn\DlgLocalLanguageTable.cpp
; File C:\Program Files (x86)\Microsoft Visual Studio\2019\Community\VC\Tools\MSVC\14.29.30133\atlmfc\include\afxwin2.inl
; File D:\git\src\IBK\IBK_DRFN\ProjSrc\SrcChartEx\ChartAddIn\ChartDesignPropertyAddIn\ChartDesignPropertyAddIn\DlgLocalLanguageTable.cpp
; File C:\Program Files (x86)\Microsoft Visual Studio\2019\Community\VC\Tools\MSVC\14.29.30133\atlmfc\include\afxwin2.inl
; File D:\git\src\IBK\IBK_DRFN\ProjSrc\SrcChartEx\ChartAddIn\ChartDesignPropertyAddIn\ChartDesignPropertyAddIn\DlgLocalLanguageTable.cpp
; File C:\Program Files (x86)\Microsoft Visual Studio\2019\Community\VC\Tools\MSVC\14.29.30133\atlmfc\include\atltypes.h
; File D:\git\src\IBK\IBK_DRFN\ProjSrc\SrcChartEx\ChartAddIn\ChartDesignPropertyAddIn\ChartDesignPropertyAddIn\DlgLocalLanguageTable.cpp
; File C:\Program Files (x86)\Microsoft Visual Studio\2019\Community\VC\Tools\MSVC\14.29.30133\atlmfc\include\atltypes.h
; File C:\Program Files (x86)\Microsoft Visual Studio\2019\Community\VC\Tools\MSVC\14.29.30133\atlmfc\include\afxwin2.inl
; File D:\git\src\IBK\IBK_DRFN\ProjSrc\SrcChartEx\ChartAddIn\ChartDesignPropertyAddIn\ChartDesignPropertyAddIn\DlgLocalLanguageTable.cpp
; File C:\Program Files (x86)\Microsoft Visual Studio\2019\Community\VC\Tools\MSVC\14.29.30133\atlmfc\include\afxwin2.inl
; File D:\git\src\IBK\IBK_DRFN\ProjSrc\SrcChartEx\ChartAddIn\ChartDesignPropertyAddIn\ChartDesignPropertyAddIn\DlgLocalLanguageTable.cpp
; File C:\Program Files (x86)\Microsoft Visual Studio\2019\Community\VC\Tools\MSVC\14.29.30133\atlmfc\include\atltypes.h
; File D:\git\src\IBK\IBK_DRFN\ProjSrc\SrcChartEx\ChartAddIn\ChartDesignPropertyAddIn\ChartDesignPropertyAddIn\DlgLocalLanguageTable.cpp
; File C:\Program Files (x86)\Microsoft Visual Studio\2019\Community\VC\Tools\MSVC\14.29.30133\atlmfc\include\atltypes.h
; File D:\git\src\IBK\IBK_DRFN\ProjSrc\SrcChartEx\ChartAddIn\ChartDesignPropertyAddIn\ChartDesignPropertyAddIn\DlgLocalLanguageTable.cpp
; File C:\Program Files (x86)\Microsoft Visual Studio\2019\Community\VC\Tools\MSVC\14.29.30133\atlmfc\include\afxwin2.inl
; File D:\git\src\IBK\IBK_DRFN\ProjSrc\SrcChartEx\ChartAddIn\ChartDesignPropertyAddIn\ChartDesignPropertyAddIn\DlgLocalLanguageTable.cpp
; File C:\Program Files (x86)\Microsoft Visual Studio\2019\Community\VC\Tools\MSVC\14.29.30133\atlmfc\include\afxwin2.inl
; File D:\git\src\IBK\IBK_DRFN\ProjSrc\SrcChartEx\ChartAddIn\ChartDesignPropertyAddIn\ChartDesignPropertyAddIn\DlgLocalLanguageTable.cpp
; File C:\Program Files (x86)\Microsoft Visual Studio\2019\Community\VC\Tools\MSVC\14.29.30133\atlmfc\include\afxwin2.inl
; File D:\git\src\IBK\IBK_DRFN\ProjSrc\SrcChartEx\ChartAddIn\ChartDesignPropertyAddIn\ChartDesignPropertyAddIn\DlgLocalLanguageTable.cpp
; File C:\Program Files (x86)\Microsoft Visual Studio\2019\Community\VC\Tools\MSVC\14.29.30133\atlmfc\include\afxwin2.inl
; File D:\git\src\IBK\IBK_DRFN\ProjSrc\SrcChartEx\ChartAddIn\ChartDesignPropertyAddIn\ChartDesignPropertyAddIn\DlgLocalLanguageTable.cpp
; File C:\Program Files (x86)\Microsoft Visual Studio\2019\Community\VC\Tools\MSVC\14.29.30133\atlmfc\include\atltypes.h
; File D:\git\src\IBK\IBK_DRFN\ProjSrc\SrcChartEx\ChartAddIn\ChartDesignPropertyAddIn\ChartDesignPropertyAddIn\DlgLocalLanguageTable.cpp
; File C:\Program Files (x86)\Microsoft Visual Studio\2019\Community\VC\Tools\MSVC\14.29.30133\atlmfc\include\atltypes.h
; File C:\Program Files (x86)\Microsoft Visual Studio\2019\Community\VC\Tools\MSVC\14.29.30133\atlmfc\include\afxwin2.inl
; File D:\git\src\IBK\IBK_DRFN\ProjSrc\SrcChartEx\ChartAddIn\ChartDesignPropertyAddIn\ChartDesignPropertyAddIn\DlgLocalLanguageTable.cpp
; File C:\Program Files (x86)\Microsoft Visual Studio\2019\Community\VC\Tools\MSVC\14.29.30133\atlmfc\include\afxwin2.inl
; File D:\git\src\IBK\IBK_DRFN\ProjSrc\SrcChartEx\ChartAddIn\ChartDesignPropertyAddIn\ChartDesignPropertyAddIn\DlgLocalLanguageTable.cpp
; File C:\Program Files (x86)\Microsoft Visual Studio\2019\Community\VC\Tools\MSVC\14.29.30133\atlmfc\include\afxwin2.inl
; File D:\git\src\IBK\IBK_DRFN\ProjSrc\SrcChartEx\ChartAddIn\ChartDesignPropertyAddIn\ChartDesignPropertyAddIn\DlgLocalLanguageTable.cpp
; File C:\Program Files (x86)\Microsoft Visual Studio\2019\Community\VC\Tools\MSVC\14.29.30133\atlmfc\include\afxwin2.inl
; File D:\git\src\IBK\IBK_DRFN\ProjSrc\SrcChartEx\ChartAddIn\ChartDesignPropertyAddIn\ChartDesignPropertyAddIn\DlgLocalLanguageTable.cpp
; File C:\Program Files (x86)\Microsoft Visual Studio\2019\Community\VC\Tools\MSVC\14.29.30133\atlmfc\include\afxwin2.inl
; File D:\git\src\IBK\IBK_DRFN\ProjSrc\SrcChartEx\ChartAddIn\ChartDesignPropertyAddIn\ChartDesignPropertyAddIn\DlgLocalLanguageTable.cpp
; File C:\Program Files (x86)\Microsoft Visual Studio\2019\Community\VC\Tools\MSVC\14.29.30133\atlmfc\include\afxwin2.inl
; File D:\git\src\IBK\IBK_DRFN\ProjSrc\SrcChartEx\ChartAddIn\ChartDesignPropertyAddIn\ChartDesignPropertyAddIn\DlgLocalLanguageTable.cpp
; File C:\Program Files (x86)\Microsoft Visual Studio\2019\Community\VC\Tools\MSVC\14.29.30133\atlmfc\include\afxwin2.inl
; File D:\git\src\IBK\IBK_DRFN\ProjSrc\SrcChartEx\ChartAddIn\ChartDesignPropertyAddIn\ChartDesignPropertyAddIn\DlgLocalLanguageTable.cpp
;	COMDAT ?OnSize@CDlgLocalLanguageTable@@IAEXIHH@Z
_TEXT	SEGMENT
_nLeftGap$1$ = -48					; size = 4
_nTopGap$1$ = -44					; size = 4
_this$GSCopy$1$ = -40					; size = 4
_rctCtrl2$ = -36					; size = 16
_rctCtrl$ = -20						; size = 16
__$ArrayPad$ = -4					; size = 4
_nType$ = 8						; size = 4
_cx$ = 12						; size = 4
_cy$ = 16						; size = 4
?OnSize@CDlgLocalLanguageTable@@IAEXIHH@Z PROC		; CDlgLocalLanguageTable::OnSize, COMDAT
; _this$ = ecx

; 312  : {

  00000	55		 push	 ebp
  00001	8b ec		 mov	 ebp, esp
  00003	83 ec 30	 sub	 esp, 48			; 00000030H
  00006	a1 00 00 00 00	 mov	 eax, DWORD PTR ___security_cookie
  0000b	33 c5		 xor	 eax, ebp
  0000d	89 45 fc	 mov	 DWORD PTR __$ArrayPad$[ebp], eax
  00010	53		 push	 ebx
  00011	56		 push	 esi
  00012	8b f1		 mov	 esi, ecx
  00014	57		 push	 edi
  00015	89 75 d8	 mov	 DWORD PTR _this$GSCopy$1$[ebp], esi
; File C:\Program Files (x86)\Microsoft Visual Studio\2019\Community\VC\Tools\MSVC\14.29.30133\atlmfc\include\afxwin2.inl

; 330  : 	{ Default(); }

  00018	e8 00 00 00 00	 call	 ?Default@CWnd@@IAEJXZ	; CWnd::Default
  0001d	0f 57 c0	 xorps	 xmm0, xmm0
; File D:\git\src\IBK\IBK_DRFN\ProjSrc\SrcChartEx\ChartAddIn\ChartDesignPropertyAddIn\ChartDesignPropertyAddIn\DlgLocalLanguageTable.cpp

; 321  : 	pWnd = GetDlgItem( IDC_LST_LANGUAGE_TABLE);

  00020	8b ce		 mov	 ecx, esi
  00022	68 db 07 00 00	 push	 2011			; 000007dbH
; File C:\Program Files (x86)\Microsoft Visual Studio\2019\Community\VC\Tools\MSVC\14.29.30133\atlmfc\include\atltypes.h

; 528  : 	left = 0;

  00027	0f 11 45 ec	 movups	 XMMWORD PTR _rctCtrl$[ebp], xmm0
; File D:\git\src\IBK\IBK_DRFN\ProjSrc\SrcChartEx\ChartAddIn\ChartDesignPropertyAddIn\ChartDesignPropertyAddIn\DlgLocalLanguageTable.cpp

; 321  : 	pWnd = GetDlgItem( IDC_LST_LANGUAGE_TABLE);

  0002b	e8 00 00 00 00	 call	 ?GetDlgItem@CWnd@@QBEPAV1@H@Z ; CWnd::GetDlgItem
; File C:\Program Files (x86)\Microsoft Visual Studio\2019\Community\VC\Tools\MSVC\14.29.30133\atlmfc\include\afxwin2.inl

; 84   : 	{ ASSERT(::IsWindow(m_hWnd)); ::GetWindowRect(m_hWnd, lpRect); }

  00030	8b 1d 00 00 00
	00		 mov	 ebx, DWORD PTR __imp__GetWindowRect@8
  00036	8d 4d ec	 lea	 ecx, DWORD PTR _rctCtrl$[ebp]
  00039	51		 push	 ecx
  0003a	ff 70 20	 push	 DWORD PTR [eax+32]
  0003d	ff d3		 call	 ebx
; File D:\git\src\IBK\IBK_DRFN\ProjSrc\SrcChartEx\ChartAddIn\ChartDesignPropertyAddIn\ChartDesignPropertyAddIn\DlgLocalLanguageTable.cpp

; 323  : 	ScreenToClient( rctCtrl);

  0003f	8d 45 ec	 lea	 eax, DWORD PTR _rctCtrl$[ebp]
  00042	8b ce		 mov	 ecx, esi
  00044	50		 push	 eax
  00045	e8 00 00 00 00	 call	 ?ScreenToClient@CWnd@@QBEXPAUtagRECT@@@Z ; CWnd::ScreenToClient

; 324  : 	int nLeftGap = rctCtrl.left;

  0004a	8b 7d ec	 mov	 edi, DWORD PTR _rctCtrl$[ebp]

; 325  : 	int nTopGap = rctCtrl.top;
; 326  : 
; 327  : 	// 2. Set Cancel
; 328  : 	pWnd = GetDlgItem( IDCANCEL);

  0004d	8b ce		 mov	 ecx, esi
  0004f	8b 45 f0	 mov	 eax, DWORD PTR _rctCtrl$[ebp+4]
  00052	6a 02		 push	 2
  00054	89 7d d0	 mov	 DWORD PTR _nLeftGap$1$[ebp], edi
  00057	89 45 d4	 mov	 DWORD PTR _nTopGap$1$[ebp], eax
  0005a	e8 00 00 00 00	 call	 ?GetDlgItem@CWnd@@QBEPAV1@H@Z ; CWnd::GetDlgItem
  0005f	8b f0		 mov	 esi, eax
; File C:\Program Files (x86)\Microsoft Visual Studio\2019\Community\VC\Tools\MSVC\14.29.30133\atlmfc\include\afxwin2.inl

; 84   : 	{ ASSERT(::IsWindow(m_hWnd)); ::GetWindowRect(m_hWnd, lpRect); }

  00061	8d 45 ec	 lea	 eax, DWORD PTR _rctCtrl$[ebp]
  00064	50		 push	 eax
  00065	ff 76 20	 push	 DWORD PTR [esi+32]
  00068	ff d3		 call	 ebx
; File D:\git\src\IBK\IBK_DRFN\ProjSrc\SrcChartEx\ChartAddIn\ChartDesignPropertyAddIn\ChartDesignPropertyAddIn\DlgLocalLanguageTable.cpp

; 330  : 	ScreenToClient( rctCtrl);

  0006a	8b 4d d8	 mov	 ecx, DWORD PTR _this$GSCopy$1$[ebp]
  0006d	8d 45 ec	 lea	 eax, DWORD PTR _rctCtrl$[ebp]
  00070	50		 push	 eax
  00071	e8 00 00 00 00	 call	 ?ScreenToClient@CWnd@@QBEXPAUtagRECT@@@Z ; CWnd::ScreenToClient
; File C:\Program Files (x86)\Microsoft Visual Studio\2019\Community\VC\Tools\MSVC\14.29.30133\atlmfc\include\atltypes.h

; 710  : 	::OffsetRect(this, x, y);

  00076	8b 5d 10	 mov	 ebx, DWORD PTR _cy$[ebp]
  00079	8b c3		 mov	 eax, ebx
  0007b	2b 45 f8	 sub	 eax, DWORD PTR _rctCtrl$[ebp+12]
; File D:\git\src\IBK\IBK_DRFN\ProjSrc\SrcChartEx\ChartAddIn\ChartDesignPropertyAddIn\ChartDesignPropertyAddIn\DlgLocalLanguageTable.cpp

; 331  : 	rctCtrl.OffsetRect( cx - rctCtrl.Width() - nLeftGap - rctCtrl.left, cy - rctCtrl.Height() - nTopGap - rctCtrl.top);

  0007e	2b 45 d4	 sub	 eax, DWORD PTR _nTopGap$1$[ebp]
; File C:\Program Files (x86)\Microsoft Visual Studio\2019\Community\VC\Tools\MSVC\14.29.30133\atlmfc\include\atltypes.h

; 710  : 	::OffsetRect(this, x, y);

  00081	50		 push	 eax
  00082	8b 45 0c	 mov	 eax, DWORD PTR _cx$[ebp]
  00085	2b 45 f4	 sub	 eax, DWORD PTR _rctCtrl$[ebp+8]
; File D:\git\src\IBK\IBK_DRFN\ProjSrc\SrcChartEx\ChartAddIn\ChartDesignPropertyAddIn\ChartDesignPropertyAddIn\DlgLocalLanguageTable.cpp

; 331  : 	rctCtrl.OffsetRect( cx - rctCtrl.Width() - nLeftGap - rctCtrl.left, cy - rctCtrl.Height() - nTopGap - rctCtrl.top);

  00088	2b c7		 sub	 eax, edi
; File C:\Program Files (x86)\Microsoft Visual Studio\2019\Community\VC\Tools\MSVC\14.29.30133\atlmfc\include\atltypes.h

; 710  : 	::OffsetRect(this, x, y);

  0008a	8b 3d 00 00 00
	00		 mov	 edi, DWORD PTR __imp__OffsetRect@12
  00090	50		 push	 eax
  00091	8d 45 ec	 lea	 eax, DWORD PTR _rctCtrl$[ebp]
  00094	50		 push	 eax
  00095	ff d7		 call	 edi
; File C:\Program Files (x86)\Microsoft Visual Studio\2019\Community\VC\Tools\MSVC\14.29.30133\atlmfc\include\afxwin2.inl

; 73   : 	{ MoveWindow(lpRect->left, lpRect->top, lpRect->right - lpRect->left,

  00097	8b 45 f8	 mov	 eax, DWORD PTR _rctCtrl$[ebp+12]
  0009a	8b 55 f0	 mov	 edx, DWORD PTR _rctCtrl$[ebp+4]
  0009d	2b c2		 sub	 eax, edx
  0009f	8b 4d ec	 mov	 ecx, DWORD PTR _rctCtrl$[ebp]
  000a2	6a 01		 push	 1
  000a4	50		 push	 eax
  000a5	8b 45 f4	 mov	 eax, DWORD PTR _rctCtrl$[ebp+8]
  000a8	2b c1		 sub	 eax, ecx
  000aa	50		 push	 eax
  000ab	52		 push	 edx
  000ac	51		 push	 ecx
  000ad	8b ce		 mov	 ecx, esi
  000af	e8 00 00 00 00	 call	 ?MoveWindow@CWnd@@QAEXHHHHH@Z ; CWnd::MoveWindow
; File D:\git\src\IBK\IBK_DRFN\ProjSrc\SrcChartEx\ChartAddIn\ChartDesignPropertyAddIn\ChartDesignPropertyAddIn\DlgLocalLanguageTable.cpp

; 336  : 	pWnd = GetDlgItem( IDOK);

  000b4	8b 4d d8	 mov	 ecx, DWORD PTR _this$GSCopy$1$[ebp]
  000b7	0f 57 c0	 xorps	 xmm0, xmm0
  000ba	6a 01		 push	 1
; File C:\Program Files (x86)\Microsoft Visual Studio\2019\Community\VC\Tools\MSVC\14.29.30133\atlmfc\include\atltypes.h

; 528  : 	left = 0;

  000bc	0f 11 45 dc	 movups	 XMMWORD PTR _rctCtrl2$[ebp], xmm0
; File D:\git\src\IBK\IBK_DRFN\ProjSrc\SrcChartEx\ChartAddIn\ChartDesignPropertyAddIn\ChartDesignPropertyAddIn\DlgLocalLanguageTable.cpp

; 336  : 	pWnd = GetDlgItem( IDOK);

  000c0	e8 00 00 00 00	 call	 ?GetDlgItem@CWnd@@QBEPAV1@H@Z ; CWnd::GetDlgItem
  000c5	8b f0		 mov	 esi, eax
; File C:\Program Files (x86)\Microsoft Visual Studio\2019\Community\VC\Tools\MSVC\14.29.30133\atlmfc\include\afxwin2.inl

; 84   : 	{ ASSERT(::IsWindow(m_hWnd)); ::GetWindowRect(m_hWnd, lpRect); }

  000c7	8d 45 dc	 lea	 eax, DWORD PTR _rctCtrl2$[ebp]
  000ca	50		 push	 eax
  000cb	ff 76 20	 push	 DWORD PTR [esi+32]
  000ce	ff 15 00 00 00
	00		 call	 DWORD PTR __imp__GetWindowRect@8
; File D:\git\src\IBK\IBK_DRFN\ProjSrc\SrcChartEx\ChartAddIn\ChartDesignPropertyAddIn\ChartDesignPropertyAddIn\DlgLocalLanguageTable.cpp

; 338  : 	ScreenToClient( rctCtrl2);

  000d4	8b 4d d8	 mov	 ecx, DWORD PTR _this$GSCopy$1$[ebp]
  000d7	8d 45 dc	 lea	 eax, DWORD PTR _rctCtrl2$[ebp]
  000da	50		 push	 eax
  000db	e8 00 00 00 00	 call	 ?ScreenToClient@CWnd@@QBEXPAUtagRECT@@@Z ; CWnd::ScreenToClient
; File C:\Program Files (x86)\Microsoft Visual Studio\2019\Community\VC\Tools\MSVC\14.29.30133\atlmfc\include\atltypes.h

; 710  : 	::OffsetRect(this, x, y);

  000e0	8b c3		 mov	 eax, ebx
  000e2	2b 45 e8	 sub	 eax, DWORD PTR _rctCtrl2$[ebp+12]
; File D:\git\src\IBK\IBK_DRFN\ProjSrc\SrcChartEx\ChartAddIn\ChartDesignPropertyAddIn\ChartDesignPropertyAddIn\DlgLocalLanguageTable.cpp

; 339  : 	rctCtrl2.OffsetRect( cx - rctCtrl2.Width() - rctCtrl.Width() - nLeftGap * 2 - rctCtrl2.left, cy - rctCtrl2.Height() - nTopGap - rctCtrl2.top);

  000e5	2b 45 d4	 sub	 eax, DWORD PTR _nTopGap$1$[ebp]
; File C:\Program Files (x86)\Microsoft Visual Studio\2019\Community\VC\Tools\MSVC\14.29.30133\atlmfc\include\atltypes.h

; 710  : 	::OffsetRect(this, x, y);

  000e8	50		 push	 eax
; File D:\git\src\IBK\IBK_DRFN\ProjSrc\SrcChartEx\ChartAddIn\ChartDesignPropertyAddIn\ChartDesignPropertyAddIn\DlgLocalLanguageTable.cpp

; 339  : 	rctCtrl2.OffsetRect( cx - rctCtrl2.Width() - rctCtrl.Width() - nLeftGap * 2 - rctCtrl2.left, cy - rctCtrl2.Height() - nTopGap - rctCtrl2.top);

  000e9	8b 45 d0	 mov	 eax, DWORD PTR _nLeftGap$1$[ebp]
; File C:\Program Files (x86)\Microsoft Visual Studio\2019\Community\VC\Tools\MSVC\14.29.30133\atlmfc\include\atltypes.h

; 710  : 	::OffsetRect(this, x, y);

  000ec	8b 4d ec	 mov	 ecx, DWORD PTR _rctCtrl$[ebp]
; File D:\git\src\IBK\IBK_DRFN\ProjSrc\SrcChartEx\ChartAddIn\ChartDesignPropertyAddIn\ChartDesignPropertyAddIn\DlgLocalLanguageTable.cpp

; 339  : 	rctCtrl2.OffsetRect( cx - rctCtrl2.Width() - rctCtrl.Width() - nLeftGap * 2 - rctCtrl2.left, cy - rctCtrl2.Height() - nTopGap - rctCtrl2.top);

  000ef	03 c0		 add	 eax, eax
; File C:\Program Files (x86)\Microsoft Visual Studio\2019\Community\VC\Tools\MSVC\14.29.30133\atlmfc\include\atltypes.h

; 710  : 	::OffsetRect(this, x, y);

  000f1	2b c8		 sub	 ecx, eax
  000f3	8d 45 dc	 lea	 eax, DWORD PTR _rctCtrl2$[ebp]
  000f6	2b 4d f4	 sub	 ecx, DWORD PTR _rctCtrl$[ebp+8]
  000f9	2b 4d e4	 sub	 ecx, DWORD PTR _rctCtrl2$[ebp+8]
; File D:\git\src\IBK\IBK_DRFN\ProjSrc\SrcChartEx\ChartAddIn\ChartDesignPropertyAddIn\ChartDesignPropertyAddIn\DlgLocalLanguageTable.cpp

; 339  : 	rctCtrl2.OffsetRect( cx - rctCtrl2.Width() - rctCtrl.Width() - nLeftGap * 2 - rctCtrl2.left, cy - rctCtrl2.Height() - nTopGap - rctCtrl2.top);

  000fc	03 4d 0c	 add	 ecx, DWORD PTR _cx$[ebp]
; File C:\Program Files (x86)\Microsoft Visual Studio\2019\Community\VC\Tools\MSVC\14.29.30133\atlmfc\include\atltypes.h

; 710  : 	::OffsetRect(this, x, y);

  000ff	51		 push	 ecx
  00100	50		 push	 eax
  00101	ff d7		 call	 edi
; File C:\Program Files (x86)\Microsoft Visual Studio\2019\Community\VC\Tools\MSVC\14.29.30133\atlmfc\include\afxwin2.inl

; 73   : 	{ MoveWindow(lpRect->left, lpRect->top, lpRect->right - lpRect->left,

  00103	8b 45 e8	 mov	 eax, DWORD PTR _rctCtrl2$[ebp+12]
  00106	8b 55 e0	 mov	 edx, DWORD PTR _rctCtrl2$[ebp+4]
  00109	2b c2		 sub	 eax, edx
  0010b	8b 4d dc	 mov	 ecx, DWORD PTR _rctCtrl2$[ebp]
  0010e	6a 01		 push	 1
  00110	50		 push	 eax
  00111	8b 45 e4	 mov	 eax, DWORD PTR _rctCtrl2$[ebp+8]
  00114	2b c1		 sub	 eax, ecx
  00116	50		 push	 eax
  00117	52		 push	 edx
  00118	51		 push	 ecx
  00119	8b ce		 mov	 ecx, esi
  0011b	e8 00 00 00 00	 call	 ?MoveWindow@CWnd@@QAEXHHHHH@Z ; CWnd::MoveWindow
; File D:\git\src\IBK\IBK_DRFN\ProjSrc\SrcChartEx\ChartAddIn\ChartDesignPropertyAddIn\ChartDesignPropertyAddIn\DlgLocalLanguageTable.cpp

; 343  : 	pWnd = GetDlgItem( IDC_BTN_ADD);

  00120	8b 4d d8	 mov	 ecx, DWORD PTR _this$GSCopy$1$[ebp]
  00123	68 14 01 00 00	 push	 276			; 00000114H
  00128	e8 00 00 00 00	 call	 ?GetDlgItem@CWnd@@QBEPAV1@H@Z ; CWnd::GetDlgItem
  0012d	8b f0		 mov	 esi, eax
; File C:\Program Files (x86)\Microsoft Visual Studio\2019\Community\VC\Tools\MSVC\14.29.30133\atlmfc\include\afxwin2.inl

; 84   : 	{ ASSERT(::IsWindow(m_hWnd)); ::GetWindowRect(m_hWnd, lpRect); }

  0012f	8d 45 ec	 lea	 eax, DWORD PTR _rctCtrl$[ebp]
  00132	50		 push	 eax
  00133	ff 76 20	 push	 DWORD PTR [esi+32]
  00136	ff 15 00 00 00
	00		 call	 DWORD PTR __imp__GetWindowRect@8
; File D:\git\src\IBK\IBK_DRFN\ProjSrc\SrcChartEx\ChartAddIn\ChartDesignPropertyAddIn\ChartDesignPropertyAddIn\DlgLocalLanguageTable.cpp

; 345  : 	ScreenToClient( rctCtrl);

  0013c	8b 4d d8	 mov	 ecx, DWORD PTR _this$GSCopy$1$[ebp]
  0013f	8d 45 ec	 lea	 eax, DWORD PTR _rctCtrl$[ebp]
  00142	50		 push	 eax
  00143	e8 00 00 00 00	 call	 ?ScreenToClient@CWnd@@QBEXPAUtagRECT@@@Z ; CWnd::ScreenToClient
; File C:\Program Files (x86)\Microsoft Visual Studio\2019\Community\VC\Tools\MSVC\14.29.30133\atlmfc\include\atltypes.h

; 710  : 	::OffsetRect(this, x, y);

  00148	8b c3		 mov	 eax, ebx
  0014a	2b 45 f8	 sub	 eax, DWORD PTR _rctCtrl$[ebp+12]
; File D:\git\src\IBK\IBK_DRFN\ProjSrc\SrcChartEx\ChartAddIn\ChartDesignPropertyAddIn\ChartDesignPropertyAddIn\DlgLocalLanguageTable.cpp

; 346  : 	rctCtrl.OffsetRect( 0, cy - rctCtrl.Height() - nTopGap - rctCtrl.top);

  0014d	2b 45 d4	 sub	 eax, DWORD PTR _nTopGap$1$[ebp]
; File C:\Program Files (x86)\Microsoft Visual Studio\2019\Community\VC\Tools\MSVC\14.29.30133\atlmfc\include\atltypes.h

; 710  : 	::OffsetRect(this, x, y);

  00150	50		 push	 eax
  00151	6a 00		 push	 0
  00153	8d 45 ec	 lea	 eax, DWORD PTR _rctCtrl$[ebp]
  00156	50		 push	 eax
  00157	ff d7		 call	 edi
; File C:\Program Files (x86)\Microsoft Visual Studio\2019\Community\VC\Tools\MSVC\14.29.30133\atlmfc\include\afxwin2.inl

; 73   : 	{ MoveWindow(lpRect->left, lpRect->top, lpRect->right - lpRect->left,

  00159	8b 45 f8	 mov	 eax, DWORD PTR _rctCtrl$[ebp+12]
  0015c	8b 55 f0	 mov	 edx, DWORD PTR _rctCtrl$[ebp+4]
  0015f	2b c2		 sub	 eax, edx
  00161	8b 4d ec	 mov	 ecx, DWORD PTR _rctCtrl$[ebp]
  00164	6a 01		 push	 1
  00166	50		 push	 eax
  00167	8b 45 f4	 mov	 eax, DWORD PTR _rctCtrl$[ebp+8]
  0016a	2b c1		 sub	 eax, ecx
  0016c	50		 push	 eax
  0016d	52		 push	 edx
  0016e	51		 push	 ecx
  0016f	8b ce		 mov	 ecx, esi
  00171	e8 00 00 00 00	 call	 ?MoveWindow@CWnd@@QAEXHHHHH@Z ; CWnd::MoveWindow
; File D:\git\src\IBK\IBK_DRFN\ProjSrc\SrcChartEx\ChartAddIn\ChartDesignPropertyAddIn\ChartDesignPropertyAddIn\DlgLocalLanguageTable.cpp

; 350  : 	pWnd = GetDlgItem( IDC_EDT_LANGUAGE_TEXT);

  00176	8b 4d d8	 mov	 ecx, DWORD PTR _this$GSCopy$1$[ebp]
  00179	68 dd 07 00 00	 push	 2013			; 000007ddH
  0017e	e8 00 00 00 00	 call	 ?GetDlgItem@CWnd@@QBEPAV1@H@Z ; CWnd::GetDlgItem
; File C:\Program Files (x86)\Microsoft Visual Studio\2019\Community\VC\Tools\MSVC\14.29.30133\atlmfc\include\afxwin2.inl

; 73   : 	{ MoveWindow(lpRect->left, lpRect->top, lpRect->right - lpRect->left,

  00183	8b 4d f8	 mov	 ecx, DWORD PTR _rctCtrl$[ebp+12]
  00186	8b 75 f0	 mov	 esi, DWORD PTR _rctCtrl$[ebp+4]
  00189	2b ce		 sub	 ecx, esi
  0018b	8b 55 ec	 mov	 edx, DWORD PTR _rctCtrl$[ebp]
  0018e	6a 01		 push	 1
  00190	51		 push	 ecx
  00191	8b 4d f4	 mov	 ecx, DWORD PTR _rctCtrl$[ebp+8]
  00194	2b ca		 sub	 ecx, edx
  00196	51		 push	 ecx
  00197	56		 push	 esi
  00198	52		 push	 edx
  00199	8b c8		 mov	 ecx, eax
  0019b	e8 00 00 00 00	 call	 ?MoveWindow@CWnd@@QAEXHHHHH@Z ; CWnd::MoveWindow
; File D:\git\src\IBK\IBK_DRFN\ProjSrc\SrcChartEx\ChartAddIn\ChartDesignPropertyAddIn\ChartDesignPropertyAddIn\DlgLocalLanguageTable.cpp

; 354  : 	pWnd = GetDlgItem( IDC_BTN_REDEFINE_GLOBAL);

  001a0	8b 4d d8	 mov	 ecx, DWORD PTR _this$GSCopy$1$[ebp]
  001a3	68 e8 07 00 00	 push	 2024			; 000007e8H
  001a8	e8 00 00 00 00	 call	 ?GetDlgItem@CWnd@@QBEPAV1@H@Z ; CWnd::GetDlgItem
  001ad	8b f0		 mov	 esi, eax
; File C:\Program Files (x86)\Microsoft Visual Studio\2019\Community\VC\Tools\MSVC\14.29.30133\atlmfc\include\afxwin2.inl

; 84   : 	{ ASSERT(::IsWindow(m_hWnd)); ::GetWindowRect(m_hWnd, lpRect); }

  001af	8d 45 ec	 lea	 eax, DWORD PTR _rctCtrl$[ebp]
  001b2	50		 push	 eax
  001b3	ff 76 20	 push	 DWORD PTR [esi+32]
  001b6	ff 15 00 00 00
	00		 call	 DWORD PTR __imp__GetWindowRect@8
; File D:\git\src\IBK\IBK_DRFN\ProjSrc\SrcChartEx\ChartAddIn\ChartDesignPropertyAddIn\ChartDesignPropertyAddIn\DlgLocalLanguageTable.cpp

; 356  : 	ScreenToClient( rctCtrl);

  001bc	8d 45 ec	 lea	 eax, DWORD PTR _rctCtrl$[ebp]
  001bf	8b 4d d8	 mov	 ecx, DWORD PTR _this$GSCopy$1$[ebp]
  001c2	50		 push	 eax
  001c3	e8 00 00 00 00	 call	 ?ScreenToClient@CWnd@@QBEXPAUtagRECT@@@Z ; CWnd::ScreenToClient
; File C:\Program Files (x86)\Microsoft Visual Studio\2019\Community\VC\Tools\MSVC\14.29.30133\atlmfc\include\atltypes.h

; 710  : 	::OffsetRect(this, x, y);

  001c8	8b c3		 mov	 eax, ebx
  001ca	2b 45 f8	 sub	 eax, DWORD PTR _rctCtrl$[ebp+12]
; File D:\git\src\IBK\IBK_DRFN\ProjSrc\SrcChartEx\ChartAddIn\ChartDesignPropertyAddIn\ChartDesignPropertyAddIn\DlgLocalLanguageTable.cpp

; 357  : 	rctCtrl.OffsetRect( 0, cy - rctCtrl.Height() - nTopGap - rctCtrl.top);

  001cd	2b 45 d4	 sub	 eax, DWORD PTR _nTopGap$1$[ebp]
; File C:\Program Files (x86)\Microsoft Visual Studio\2019\Community\VC\Tools\MSVC\14.29.30133\atlmfc\include\atltypes.h

; 710  : 	::OffsetRect(this, x, y);

  001d0	50		 push	 eax
  001d1	6a 00		 push	 0
  001d3	8d 45 ec	 lea	 eax, DWORD PTR _rctCtrl$[ebp]
  001d6	50		 push	 eax
  001d7	ff d7		 call	 edi
; File C:\Program Files (x86)\Microsoft Visual Studio\2019\Community\VC\Tools\MSVC\14.29.30133\atlmfc\include\afxwin2.inl

; 73   : 	{ MoveWindow(lpRect->left, lpRect->top, lpRect->right - lpRect->left,

  001d9	8b 45 f8	 mov	 eax, DWORD PTR _rctCtrl$[ebp+12]
  001dc	8b 55 f0	 mov	 edx, DWORD PTR _rctCtrl$[ebp+4]
  001df	2b c2		 sub	 eax, edx
  001e1	8b 4d ec	 mov	 ecx, DWORD PTR _rctCtrl$[ebp]
  001e4	6a 01		 push	 1
  001e6	50		 push	 eax
  001e7	8b 45 f4	 mov	 eax, DWORD PTR _rctCtrl$[ebp+8]
  001ea	2b c1		 sub	 eax, ecx
  001ec	50		 push	 eax
  001ed	52		 push	 edx
  001ee	51		 push	 ecx
  001ef	8b ce		 mov	 ecx, esi
  001f1	e8 00 00 00 00	 call	 ?MoveWindow@CWnd@@QAEXHHHHH@Z ; CWnd::MoveWindow
; File D:\git\src\IBK\IBK_DRFN\ProjSrc\SrcChartEx\ChartAddIn\ChartDesignPropertyAddIn\ChartDesignPropertyAddIn\DlgLocalLanguageTable.cpp

; 361  : 	pWnd = GetDlgItem( IDC_CMB_GLOBAL);

  001f6	8b 4d d8	 mov	 ecx, DWORD PTR _this$GSCopy$1$[ebp]
  001f9	68 e7 07 00 00	 push	 2023			; 000007e7H
  001fe	e8 00 00 00 00	 call	 ?GetDlgItem@CWnd@@QBEPAV1@H@Z ; CWnd::GetDlgItem
  00203	8b f0		 mov	 esi, eax
; File C:\Program Files (x86)\Microsoft Visual Studio\2019\Community\VC\Tools\MSVC\14.29.30133\atlmfc\include\afxwin2.inl

; 84   : 	{ ASSERT(::IsWindow(m_hWnd)); ::GetWindowRect(m_hWnd, lpRect); }

  00205	8d 45 ec	 lea	 eax, DWORD PTR _rctCtrl$[ebp]
  00208	50		 push	 eax
  00209	ff 76 20	 push	 DWORD PTR [esi+32]
  0020c	ff 15 00 00 00
	00		 call	 DWORD PTR __imp__GetWindowRect@8
; File D:\git\src\IBK\IBK_DRFN\ProjSrc\SrcChartEx\ChartAddIn\ChartDesignPropertyAddIn\ChartDesignPropertyAddIn\DlgLocalLanguageTable.cpp

; 363  : 	ScreenToClient( rctCtrl);

  00212	8b 4d d8	 mov	 ecx, DWORD PTR _this$GSCopy$1$[ebp]
  00215	8d 45 ec	 lea	 eax, DWORD PTR _rctCtrl$[ebp]
  00218	50		 push	 eax
  00219	e8 00 00 00 00	 call	 ?ScreenToClient@CWnd@@QBEXPAUtagRECT@@@Z ; CWnd::ScreenToClient
; File C:\Program Files (x86)\Microsoft Visual Studio\2019\Community\VC\Tools\MSVC\14.29.30133\atlmfc\include\atltypes.h

; 710  : 	::OffsetRect(this, x, y);

  0021e	8b c3		 mov	 eax, ebx
  00220	2b 45 f8	 sub	 eax, DWORD PTR _rctCtrl$[ebp+12]
; File D:\git\src\IBK\IBK_DRFN\ProjSrc\SrcChartEx\ChartAddIn\ChartDesignPropertyAddIn\ChartDesignPropertyAddIn\DlgLocalLanguageTable.cpp

; 364  : 	rctCtrl.OffsetRect( 0, cy - rctCtrl.Height() - nTopGap - rctCtrl.top);

  00223	2b 45 d4	 sub	 eax, DWORD PTR _nTopGap$1$[ebp]
; File C:\Program Files (x86)\Microsoft Visual Studio\2019\Community\VC\Tools\MSVC\14.29.30133\atlmfc\include\atltypes.h

; 710  : 	::OffsetRect(this, x, y);

  00226	50		 push	 eax
  00227	6a 00		 push	 0
  00229	8d 45 ec	 lea	 eax, DWORD PTR _rctCtrl$[ebp]
  0022c	50		 push	 eax
  0022d	ff d7		 call	 edi
; File D:\git\src\IBK\IBK_DRFN\ProjSrc\SrcChartEx\ChartAddIn\ChartDesignPropertyAddIn\ChartDesignPropertyAddIn\DlgLocalLanguageTable.cpp

; 365  : 	rctCtrl.bottom += 100;

  0022f	8b 45 f8	 mov	 eax, DWORD PTR _rctCtrl$[ebp+12]
; File C:\Program Files (x86)\Microsoft Visual Studio\2019\Community\VC\Tools\MSVC\14.29.30133\atlmfc\include\afxwin2.inl

; 73   : 	{ MoveWindow(lpRect->left, lpRect->top, lpRect->right - lpRect->left,

  00232	8b 55 f0	 mov	 edx, DWORD PTR _rctCtrl$[ebp+4]
; File D:\git\src\IBK\IBK_DRFN\ProjSrc\SrcChartEx\ChartAddIn\ChartDesignPropertyAddIn\ChartDesignPropertyAddIn\DlgLocalLanguageTable.cpp

; 365  : 	rctCtrl.bottom += 100;

  00235	83 c0 64	 add	 eax, 100		; 00000064H
; File C:\Program Files (x86)\Microsoft Visual Studio\2019\Community\VC\Tools\MSVC\14.29.30133\atlmfc\include\afxwin2.inl

; 73   : 	{ MoveWindow(lpRect->left, lpRect->top, lpRect->right - lpRect->left,

  00238	8b 4d ec	 mov	 ecx, DWORD PTR _rctCtrl$[ebp]
; File D:\git\src\IBK\IBK_DRFN\ProjSrc\SrcChartEx\ChartAddIn\ChartDesignPropertyAddIn\ChartDesignPropertyAddIn\DlgLocalLanguageTable.cpp

; 365  : 	rctCtrl.bottom += 100;

  0023b	89 45 f8	 mov	 DWORD PTR _rctCtrl$[ebp+12], eax
; File C:\Program Files (x86)\Microsoft Visual Studio\2019\Community\VC\Tools\MSVC\14.29.30133\atlmfc\include\afxwin2.inl

; 73   : 	{ MoveWindow(lpRect->left, lpRect->top, lpRect->right - lpRect->left,

  0023e	2b c2		 sub	 eax, edx
  00240	6a 01		 push	 1
  00242	50		 push	 eax
  00243	8b 45 f4	 mov	 eax, DWORD PTR _rctCtrl$[ebp+8]
  00246	2b c1		 sub	 eax, ecx
  00248	50		 push	 eax
  00249	52		 push	 edx
  0024a	51		 push	 ecx
  0024b	8b ce		 mov	 ecx, esi
  0024d	e8 00 00 00 00	 call	 ?MoveWindow@CWnd@@QAEXHHHHH@Z ; CWnd::MoveWindow
; File D:\git\src\IBK\IBK_DRFN\ProjSrc\SrcChartEx\ChartAddIn\ChartDesignPropertyAddIn\ChartDesignPropertyAddIn\DlgLocalLanguageTable.cpp

; 369  : 	pWnd = GetDlgItem( IDC_BTN_DELETE);

  00252	8b 4d d8	 mov	 ecx, DWORD PTR _this$GSCopy$1$[ebp]
  00255	6a 05		 push	 5
  00257	e8 00 00 00 00	 call	 ?GetDlgItem@CWnd@@QBEPAV1@H@Z ; CWnd::GetDlgItem
  0025c	8b f0		 mov	 esi, eax
; File C:\Program Files (x86)\Microsoft Visual Studio\2019\Community\VC\Tools\MSVC\14.29.30133\atlmfc\include\afxwin2.inl

; 84   : 	{ ASSERT(::IsWindow(m_hWnd)); ::GetWindowRect(m_hWnd, lpRect); }

  0025e	8d 45 ec	 lea	 eax, DWORD PTR _rctCtrl$[ebp]
  00261	50		 push	 eax
  00262	ff 76 20	 push	 DWORD PTR [esi+32]
  00265	ff 15 00 00 00
	00		 call	 DWORD PTR __imp__GetWindowRect@8
; File D:\git\src\IBK\IBK_DRFN\ProjSrc\SrcChartEx\ChartAddIn\ChartDesignPropertyAddIn\ChartDesignPropertyAddIn\DlgLocalLanguageTable.cpp

; 371  : 	ScreenToClient( rctCtrl);

  0026b	8b 4d d8	 mov	 ecx, DWORD PTR _this$GSCopy$1$[ebp]
  0026e	8d 45 ec	 lea	 eax, DWORD PTR _rctCtrl$[ebp]
  00271	50		 push	 eax
  00272	e8 00 00 00 00	 call	 ?ScreenToClient@CWnd@@QBEXPAUtagRECT@@@Z ; CWnd::ScreenToClient
; File C:\Program Files (x86)\Microsoft Visual Studio\2019\Community\VC\Tools\MSVC\14.29.30133\atlmfc\include\atltypes.h

; 710  : 	::OffsetRect(this, x, y);

  00277	8b c3		 mov	 eax, ebx
  00279	2b 45 f8	 sub	 eax, DWORD PTR _rctCtrl$[ebp+12]
; File D:\git\src\IBK\IBK_DRFN\ProjSrc\SrcChartEx\ChartAddIn\ChartDesignPropertyAddIn\ChartDesignPropertyAddIn\DlgLocalLanguageTable.cpp

; 372  : 	rctCtrl.OffsetRect( 0, cy - rctCtrl.Height() - nTopGap - rctCtrl.top);

  0027c	2b 45 d4	 sub	 eax, DWORD PTR _nTopGap$1$[ebp]
; File C:\Program Files (x86)\Microsoft Visual Studio\2019\Community\VC\Tools\MSVC\14.29.30133\atlmfc\include\atltypes.h

; 710  : 	::OffsetRect(this, x, y);

  0027f	50		 push	 eax
  00280	6a 00		 push	 0
  00282	8d 45 ec	 lea	 eax, DWORD PTR _rctCtrl$[ebp]
  00285	50		 push	 eax
  00286	ff d7		 call	 edi
; File C:\Program Files (x86)\Microsoft Visual Studio\2019\Community\VC\Tools\MSVC\14.29.30133\atlmfc\include\afxwin2.inl

; 73   : 	{ MoveWindow(lpRect->left, lpRect->top, lpRect->right - lpRect->left,

  00288	8b 45 f8	 mov	 eax, DWORD PTR _rctCtrl$[ebp+12]
  0028b	6a 01		 push	 1
  0028d	8b 55 f0	 mov	 edx, DWORD PTR _rctCtrl$[ebp+4]
  00290	2b c2		 sub	 eax, edx
  00292	8b 4d ec	 mov	 ecx, DWORD PTR _rctCtrl$[ebp]
  00295	50		 push	 eax
  00296	8b 45 f4	 mov	 eax, DWORD PTR _rctCtrl$[ebp+8]
  00299	2b c1		 sub	 eax, ecx
  0029b	50		 push	 eax
  0029c	52		 push	 edx
  0029d	51		 push	 ecx
  0029e	8b ce		 mov	 ecx, esi
  002a0	e8 00 00 00 00	 call	 ?MoveWindow@CWnd@@QAEXHHHHH@Z ; CWnd::MoveWindow
; File D:\git\src\IBK\IBK_DRFN\ProjSrc\SrcChartEx\ChartAddIn\ChartDesignPropertyAddIn\ChartDesignPropertyAddIn\DlgLocalLanguageTable.cpp

; 376  : 	pWnd = GetDlgItem( IDC_LST_LANGUAGE_TABLE);

  002a5	8b 7d d8	 mov	 edi, DWORD PTR _this$GSCopy$1$[ebp]
  002a8	8b cf		 mov	 ecx, edi
  002aa	68 db 07 00 00	 push	 2011			; 000007dbH
  002af	e8 00 00 00 00	 call	 ?GetDlgItem@CWnd@@QBEPAV1@H@Z ; CWnd::GetDlgItem
  002b4	8b f0		 mov	 esi, eax
; File C:\Program Files (x86)\Microsoft Visual Studio\2019\Community\VC\Tools\MSVC\14.29.30133\atlmfc\include\afxwin2.inl

; 84   : 	{ ASSERT(::IsWindow(m_hWnd)); ::GetWindowRect(m_hWnd, lpRect); }

  002b6	8d 45 dc	 lea	 eax, DWORD PTR _rctCtrl2$[ebp]
  002b9	50		 push	 eax
  002ba	ff 76 20	 push	 DWORD PTR [esi+32]
  002bd	ff 15 00 00 00
	00		 call	 DWORD PTR __imp__GetWindowRect@8
; File D:\git\src\IBK\IBK_DRFN\ProjSrc\SrcChartEx\ChartAddIn\ChartDesignPropertyAddIn\ChartDesignPropertyAddIn\DlgLocalLanguageTable.cpp

; 378  : 	ScreenToClient( rctCtrl2);

  002c3	8d 45 dc	 lea	 eax, DWORD PTR _rctCtrl2$[ebp]
  002c6	8b cf		 mov	 ecx, edi
  002c8	50		 push	 eax
  002c9	e8 00 00 00 00	 call	 ?ScreenToClient@CWnd@@QBEXPAUtagRECT@@@Z ; CWnd::ScreenToClient

; 380  : 	rctCtrl2.bottom = cy - rctCtrl.Height() - nTopGap * 2;

  002ce	8b 45 d4	 mov	 eax, DWORD PTR _nTopGap$1$[ebp]
  002d1	8b 4d f0	 mov	 ecx, DWORD PTR _rctCtrl$[ebp+4]
  002d4	03 c0		 add	 eax, eax
  002d6	8b 55 0c	 mov	 edx, DWORD PTR _cx$[ebp]
  002d9	2b c8		 sub	 ecx, eax
  002db	2b 4d f8	 sub	 ecx, DWORD PTR _rctCtrl$[ebp+12]
  002de	2b 55 d0	 sub	 edx, DWORD PTR _nLeftGap$1$[ebp]
; File C:\Program Files (x86)\Microsoft Visual Studio\2019\Community\VC\Tools\MSVC\14.29.30133\atlmfc\include\afxwin2.inl

; 73   : 	{ MoveWindow(lpRect->left, lpRect->top, lpRect->right - lpRect->left,

  002e1	6a 01		 push	 1
; File D:\git\src\IBK\IBK_DRFN\ProjSrc\SrcChartEx\ChartAddIn\ChartDesignPropertyAddIn\ChartDesignPropertyAddIn\DlgLocalLanguageTable.cpp

; 379  : 	rctCtrl2.right = cx - nLeftGap;

  002e3	89 55 e4	 mov	 DWORD PTR _rctCtrl2$[ebp+8], edx

; 380  : 	rctCtrl2.bottom = cy - rctCtrl.Height() - nTopGap * 2;

  002e6	8d 04 19	 lea	 eax, DWORD PTR [ecx+ebx]
; File C:\Program Files (x86)\Microsoft Visual Studio\2019\Community\VC\Tools\MSVC\14.29.30133\atlmfc\include\afxwin2.inl

; 73   : 	{ MoveWindow(lpRect->left, lpRect->top, lpRect->right - lpRect->left,

  002e9	8b 4d e0	 mov	 ecx, DWORD PTR _rctCtrl2$[ebp+4]
; File D:\git\src\IBK\IBK_DRFN\ProjSrc\SrcChartEx\ChartAddIn\ChartDesignPropertyAddIn\ChartDesignPropertyAddIn\DlgLocalLanguageTable.cpp

; 380  : 	rctCtrl2.bottom = cy - rctCtrl.Height() - nTopGap * 2;

  002ec	89 45 e8	 mov	 DWORD PTR _rctCtrl2$[ebp+12], eax
; File C:\Program Files (x86)\Microsoft Visual Studio\2019\Community\VC\Tools\MSVC\14.29.30133\atlmfc\include\afxwin2.inl

; 73   : 	{ MoveWindow(lpRect->left, lpRect->top, lpRect->right - lpRect->left,

  002ef	2b c1		 sub	 eax, ecx
  002f1	50		 push	 eax
  002f2	8b 45 dc	 mov	 eax, DWORD PTR _rctCtrl2$[ebp]
  002f5	2b d0		 sub	 edx, eax
  002f7	52		 push	 edx
  002f8	51		 push	 ecx
  002f9	50		 push	 eax
  002fa	8b ce		 mov	 ecx, esi
  002fc	e8 00 00 00 00	 call	 ?MoveWindow@CWnd@@QAEXHHHHH@Z ; CWnd::MoveWindow

; 116  : 	{ ASSERT(::IsWindow(m_hWnd)); ::InvalidateRect(m_hWnd, lpRect, bErase); }

  00301	6a 01		 push	 1
  00303	6a 00		 push	 0
  00305	ff 77 20	 push	 DWORD PTR [edi+32]
  00308	ff 15 00 00 00
	00		 call	 DWORD PTR __imp__InvalidateRect@12
; File D:\git\src\IBK\IBK_DRFN\ProjSrc\SrcChartEx\ChartAddIn\ChartDesignPropertyAddIn\ChartDesignPropertyAddIn\DlgLocalLanguageTable.cpp

; 385  : }

  0030e	8b 4d fc	 mov	 ecx, DWORD PTR __$ArrayPad$[ebp]
; File C:\Program Files (x86)\Microsoft Visual Studio\2019\Community\VC\Tools\MSVC\14.29.30133\atlmfc\include\afxwin2.inl

; 116  : 	{ ASSERT(::IsWindow(m_hWnd)); ::InvalidateRect(m_hWnd, lpRect, bErase); }

  00311	5f		 pop	 edi
  00312	5e		 pop	 esi
; File D:\git\src\IBK\IBK_DRFN\ProjSrc\SrcChartEx\ChartAddIn\ChartDesignPropertyAddIn\ChartDesignPropertyAddIn\DlgLocalLanguageTable.cpp

; 385  : }

  00313	33 cd		 xor	 ecx, ebp
; File C:\Program Files (x86)\Microsoft Visual Studio\2019\Community\VC\Tools\MSVC\14.29.30133\atlmfc\include\afxwin2.inl

; 116  : 	{ ASSERT(::IsWindow(m_hWnd)); ::InvalidateRect(m_hWnd, lpRect, bErase); }

  00315	5b		 pop	 ebx
; File D:\git\src\IBK\IBK_DRFN\ProjSrc\SrcChartEx\ChartAddIn\ChartDesignPropertyAddIn\ChartDesignPropertyAddIn\DlgLocalLanguageTable.cpp

; 385  : }

  00316	e8 00 00 00 00	 call	 @__security_check_cookie@4
  0031b	8b e5		 mov	 esp, ebp
  0031d	5d		 pop	 ebp
  0031e	c2 0c 00	 ret	 12			; 0000000cH
?OnSize@CDlgLocalLanguageTable@@IAEXIHH@Z ENDP		; CDlgLocalLanguageTable::OnSize
_TEXT	ENDS
; Function compile flags: /Ogtp
; File D:\git\src\IBK\IBK_DRFN\ProjSrc\SrcChartEx\ChartAddIn\ChartDesignPropertyAddIn\ChartDesignPropertyAddIn\DlgLocalLanguageTable.cpp
;	COMDAT ?OnBtnAdd@CDlgLocalLanguageTable@@IAEXXZ
_TEXT	SEGMENT
?OnBtnAdd@CDlgLocalLanguageTable@@IAEXXZ PROC		; CDlgLocalLanguageTable::OnBtnAdd, COMDAT
; _this$ = ecx

; 286  : {

  00000	56		 push	 esi

; 287  : 	// TODO: Add your control notification handler code here
; 288  : 
; 289  : 	GetDlgItem( IDC_BTN_ADD)->ShowWindow( SW_HIDE);

  00001	6a 00		 push	 0
  00003	68 14 01 00 00	 push	 276			; 00000114H
  00008	8b f1		 mov	 esi, ecx
  0000a	e8 00 00 00 00	 call	 ?GetDlgItem@CWnd@@QBEPAV1@H@Z ; CWnd::GetDlgItem
  0000f	8b c8		 mov	 ecx, eax
  00011	e8 00 00 00 00	 call	 ?ShowWindow@CWnd@@QAEHH@Z ; CWnd::ShowWindow

; 290  : 	GetDlgItem( IDC_EDT_LANGUAGE_TEXT)->ShowWindow( SW_SHOW);

  00016	6a 05		 push	 5
  00018	68 dd 07 00 00	 push	 2013			; 000007ddH
  0001d	8b ce		 mov	 ecx, esi
  0001f	e8 00 00 00 00	 call	 ?GetDlgItem@CWnd@@QBEPAV1@H@Z ; CWnd::GetDlgItem
  00024	8b c8		 mov	 ecx, eax
  00026	e8 00 00 00 00	 call	 ?ShowWindow@CWnd@@QAEHH@Z ; CWnd::ShowWindow

; 291  : 	GetDlgItem( IDC_EDT_LANGUAGE_TEXT)->SetWindowText( "");

  0002b	68 00 00 00 00	 push	 OFFSET ??_C@_00CNPNBAHC@@
  00030	68 dd 07 00 00	 push	 2013			; 000007ddH
  00035	8b ce		 mov	 ecx, esi
  00037	e8 00 00 00 00	 call	 ?GetDlgItem@CWnd@@QBEPAV1@H@Z ; CWnd::GetDlgItem
  0003c	8b c8		 mov	 ecx, eax
  0003e	e8 00 00 00 00	 call	 ?SetWindowTextA@CWnd@@QAEXPBD@Z ; CWnd::SetWindowTextA

; 292  : 	GetDlgItem( IDC_EDT_LANGUAGE_TEXT)->SetFocus();

  00043	68 dd 07 00 00	 push	 2013			; 000007ddH
  00048	8b ce		 mov	 ecx, esi
  0004a	e8 00 00 00 00	 call	 ?GetDlgItem@CWnd@@QBEPAV1@H@Z ; CWnd::GetDlgItem
  0004f	8b c8		 mov	 ecx, eax
  00051	5e		 pop	 esi
  00052	e9 00 00 00 00	 jmp	 ?SetFocus@CWnd@@QAEPAV1@XZ ; CWnd::SetFocus
?OnBtnAdd@CDlgLocalLanguageTable@@IAEXXZ ENDP		; CDlgLocalLanguageTable::OnBtnAdd
_TEXT	ENDS
; Function compile flags: /Ogtp
; File D:\git\src\IBK\IBK_DRFN\ProjSrc\SrcChartEx\ChartAddIn\ChartDesignPropertyAddIn\ChartDesignPropertyAddIn\DlgLocalLanguageTable.cpp
; File C:\Program Files (x86)\Microsoft Visual Studio\2019\Community\VC\Tools\MSVC\14.29.30133\atlmfc\include\afxcmn.inl
; File D:\git\src\IBK\IBK_DRFN\ProjSrc\SrcChartEx\ChartAddIn\ChartDesignPropertyAddIn\ChartDesignPropertyAddIn\DlgLocalLanguageTable.cpp
; File C:\Program Files (x86)\Microsoft Visual Studio\2019\Community\VC\Tools\MSVC\14.29.30133\atlmfc\include\afxcmn.inl
; File D:\git\src\IBK\IBK_DRFN\ProjSrc\SrcChartEx\ChartAddIn\ChartDesignPropertyAddIn\ChartDesignPropertyAddIn\DlgLocalLanguageTable.cpp
; File C:\Program Files (x86)\Microsoft Visual Studio\2019\Community\VC\Tools\MSVC\14.29.30133\atlmfc\include\afxcmn.inl
; File D:\git\src\IBK\IBK_DRFN\ProjSrc\SrcChartEx\ChartAddIn\ChartDesignPropertyAddIn\ChartDesignPropertyAddIn\DlgLocalLanguageTable.cpp
; File C:\Program Files (x86)\Microsoft Visual Studio\2019\Community\VC\Tools\MSVC\14.29.30133\atlmfc\include\afxcmn.inl
; File D:\git\src\IBK\IBK_DRFN\ProjSrc\SrcChartEx\ChartAddIn\ChartDesignPropertyAddIn\ChartDesignPropertyAddIn\DlgLocalLanguageTable.cpp
; File C:\Program Files (x86)\Microsoft Visual Studio\2019\Community\VC\Tools\MSVC\14.29.30133\atlmfc\include\afxcmn.inl
; File D:\git\src\IBK\IBK_DRFN\ProjSrc\SrcChartEx\ChartAddIn\ChartDesignPropertyAddIn\ChartDesignPropertyAddIn\DlgLocalLanguageTable.cpp
; File C:\Program Files (x86)\Microsoft Visual Studio\2019\Community\VC\Tools\MSVC\14.29.30133\atlmfc\include\afxcmn2.inl
; File D:\git\src\IBK\IBK_DRFN\ProjSrc\SrcChartEx\ChartAddIn\ChartDesignPropertyAddIn\ChartDesignPropertyAddIn\DlgLocalLanguageTable.cpp
;	COMDAT ?OnBtnDelete@CDlgLocalLanguageTable@@IAEXXZ
_TEXT	SEGMENT
?OnBtnDelete@CDlgLocalLanguageTable@@IAEXXZ PROC	; CDlgLocalLanguageTable::OnBtnDelete, COMDAT
; _this$ = ecx

; 296  : {

  00000	53		 push	 ebx
; File C:\Program Files (x86)\Microsoft Visual Studio\2019\Community\VC\Tools\MSVC\14.29.30133\atlmfc\include\afxcmn.inl

; 177  : 	{ ASSERT(::IsWindow(m_hWnd)); return (int) ::SendMessage(m_hWnd, LVM_GETNEXTITEM, nItem, MAKELPARAM(nFlags, 0)); }

  00001	8b 1d 00 00 00
	00		 mov	 ebx, DWORD PTR __imp__SendMessageA@16
; File D:\git\src\IBK\IBK_DRFN\ProjSrc\SrcChartEx\ChartAddIn\ChartDesignPropertyAddIn\ChartDesignPropertyAddIn\DlgLocalLanguageTable.cpp

; 296  : {

  00007	57		 push	 edi
; File C:\Program Files (x86)\Microsoft Visual Studio\2019\Community\VC\Tools\MSVC\14.29.30133\atlmfc\include\afxcmn.inl

; 177  : 	{ ASSERT(::IsWindow(m_hWnd)); return (int) ::SendMessage(m_hWnd, LVM_GETNEXTITEM, nItem, MAKELPARAM(nFlags, 0)); }

  00008	6a 02		 push	 2
; File D:\git\src\IBK\IBK_DRFN\ProjSrc\SrcChartEx\ChartAddIn\ChartDesignPropertyAddIn\ChartDesignPropertyAddIn\DlgLocalLanguageTable.cpp

; 296  : {

  0000a	8b f9		 mov	 edi, ecx
; File C:\Program Files (x86)\Microsoft Visual Studio\2019\Community\VC\Tools\MSVC\14.29.30133\atlmfc\include\afxcmn.inl

; 177  : 	{ ASSERT(::IsWindow(m_hWnd)); return (int) ::SendMessage(m_hWnd, LVM_GETNEXTITEM, nItem, MAKELPARAM(nFlags, 0)); }

  0000c	6a ff		 push	 -1
  0000e	68 0c 10 00 00	 push	 4108			; 0000100cH
  00013	ff b7 c8 00 00
	00		 push	 DWORD PTR [edi+200]
  00019	ff d3		 call	 ebx

; 179  : 	{ ASSERT(::IsWindow(m_hWnd)); return (POSITION)(DWORD_PTR)(1+GetNextItem(-1, LVIS_SELECTED)); }

  0001b	83 c0 01	 add	 eax, 1
; File D:\git\src\IBK\IBK_DRFN\ProjSrc\SrcChartEx\ChartAddIn\ChartDesignPropertyAddIn\ChartDesignPropertyAddIn\DlgLocalLanguageTable.cpp

; 300  : 	if( !posSelection) return;

  0001e	74 68		 je	 SHORT $LN4@OnBtnDelet
; File C:\Program Files (x86)\Microsoft Visual Studio\2019\Community\VC\Tools\MSVC\14.29.30133\atlmfc\include\afxcmn.inl

; 181  : 	{ ASSERT(::IsWindow(m_hWnd)); DWORD_PTR nOldPos = (DWORD_PTR)pos-1; pos = (POSITION)(DWORD_PTR)(1+GetNextItem((UINT)nOldPos, LVIS_SELECTED)); return (UINT)nOldPos; }

  00020	56		 push	 esi

; 177  : 	{ ASSERT(::IsWindow(m_hWnd)); return (int) ::SendMessage(m_hWnd, LVM_GETNEXTITEM, nItem, MAKELPARAM(nFlags, 0)); }

  00021	6a 02		 push	 2

; 181  : 	{ ASSERT(::IsWindow(m_hWnd)); DWORD_PTR nOldPos = (DWORD_PTR)pos-1; pos = (POSITION)(DWORD_PTR)(1+GetNextItem((UINT)nOldPos, LVIS_SELECTED)); return (UINT)nOldPos; }

  00023	8d 70 ff	 lea	 esi, DWORD PTR [eax-1]

; 177  : 	{ ASSERT(::IsWindow(m_hWnd)); return (int) ::SendMessage(m_hWnd, LVM_GETNEXTITEM, nItem, MAKELPARAM(nFlags, 0)); }

  00026	56		 push	 esi
  00027	68 0c 10 00 00	 push	 4108			; 0000100cH
  0002c	ff b7 c8 00 00
	00		 push	 DWORD PTR [edi+200]
  00032	ff d3		 call	 ebx
; File D:\git\src\IBK\IBK_DRFN\ProjSrc\SrcChartEx\ChartAddIn\ChartDesignPropertyAddIn\ChartDesignPropertyAddIn\DlgLocalLanguageTable.cpp

; 304  : 	delete ( CStringList *)m_lstLanguageTable.GetItemData( nSelectedItem);

  00034	56		 push	 esi
  00035	8d 8f a8 00 00
	00		 lea	 ecx, DWORD PTR [edi+168]
  0003b	e8 00 00 00 00	 call	 ?GetItemData@CListCtrl@@QBEKH@Z ; CListCtrl::GetItemData
  00040	85 c0		 test	 eax, eax
  00042	74 09		 je	 SHORT $LN6@OnBtnDelet
  00044	8b 10		 mov	 edx, DWORD PTR [eax]
  00046	8b c8		 mov	 ecx, eax
  00048	6a 01		 push	 1
  0004a	ff 52 04	 call	 DWORD PTR [edx+4]
$LN6@OnBtnDelet:
; File C:\Program Files (x86)\Microsoft Visual Studio\2019\Community\VC\Tools\MSVC\14.29.30133\atlmfc\include\afxcmn.inl

; 169  : 	{ ASSERT(::IsWindow(m_hWnd)); return (BOOL) ::SendMessage(m_hWnd, LVM_DELETEITEM, nItem, 0L); }

  0004d	6a 00		 push	 0
  0004f	56		 push	 esi
  00050	68 08 10 00 00	 push	 4104			; 00001008H
  00055	ff b7 c8 00 00
	00		 push	 DWORD PTR [edi+200]
  0005b	ff d3		 call	 ebx

; 155  : 	{ ASSERT(::IsWindow(m_hWnd)); return (int) ::SendMessage(m_hWnd, LVM_GETITEMCOUNT, 0, 0L); }

  0005d	6a 00		 push	 0
  0005f	6a 00		 push	 0
  00061	68 04 10 00 00	 push	 4100			; 00001004H
  00066	ff b7 c8 00 00
	00		 push	 DWORD PTR [edi+200]
  0006c	ff d3		 call	 ebx
; File D:\git\src\IBK\IBK_DRFN\ProjSrc\SrcChartEx\ChartAddIn\ChartDesignPropertyAddIn\ChartDesignPropertyAddIn\DlgLocalLanguageTable.cpp

; 307  : 	if( m_lstLanguageTable.GetItemCount() <= nSelectedItem) nSelectedItem--;

  0006e	3b c6		 cmp	 eax, esi
  00070	7f 01		 jg	 SHORT $LN3@OnBtnDelet
  00072	4e		 dec	 esi
$LN3@OnBtnDelet:

; 308  : 	if( 0 <= nSelectedItem) m_lstLanguageTable.SetSelectionMark( nSelectedItem);

  00073	85 f6		 test	 esi, esi
  00075	78 10		 js	 SHORT $LN22@OnBtnDelet
; File C:\Program Files (x86)\Microsoft Visual Studio\2019\Community\VC\Tools\MSVC\14.29.30133\atlmfc\include\afxcmn2.inl

; 147  : 	{ ASSERT(::IsWindow(m_hWnd)); return (int) ::SendMessage(m_hWnd, LVM_SETSELECTIONMARK, 0, (LPARAM) iIndex); }

  00077	56		 push	 esi
  00078	6a 00		 push	 0
  0007a	68 43 10 00 00	 push	 4163			; 00001043H
  0007f	ff b7 c8 00 00
	00		 push	 DWORD PTR [edi+200]
  00085	ff d3		 call	 ebx
$LN22@OnBtnDelet:
  00087	5e		 pop	 esi
$LN4@OnBtnDelet:
  00088	5f		 pop	 edi
; File D:\git\src\IBK\IBK_DRFN\ProjSrc\SrcChartEx\ChartAddIn\ChartDesignPropertyAddIn\ChartDesignPropertyAddIn\DlgLocalLanguageTable.cpp

; 309  : }

  00089	5b		 pop	 ebx
  0008a	c3		 ret	 0
?OnBtnDelete@CDlgLocalLanguageTable@@IAEXXZ ENDP	; CDlgLocalLanguageTable::OnBtnDelete
_TEXT	ENDS
; Function compile flags: /Ogtp
; File D:\git\src\IBK\IBK_DRFN\ProjSrc\SrcChartEx\ChartAddIn\ChartDesignPropertyAddIn\ChartDesignPropertyAddIn\DlgLocalLanguageTable.cpp
; File C:\Program Files (x86)\Microsoft Visual Studio\2019\Community\VC\Tools\MSVC\14.29.30133\atlmfc\include\afxcmn.inl
; File D:\git\src\IBK\IBK_DRFN\ProjSrc\SrcChartEx\ChartAddIn\ChartDesignPropertyAddIn\ChartDesignPropertyAddIn\DlgLocalLanguageTable.cpp
;	COMDAT ?OnDestroy@CDlgLocalLanguageTable@@IAEXXZ
_TEXT	SEGMENT
?OnDestroy@CDlgLocalLanguageTable@@IAEXXZ PROC		; CDlgLocalLanguageTable::OnDestroy, COMDAT
; _this$ = ecx

; 276  : {

  00000	53		 push	 ebx
  00001	56		 push	 esi
  00002	57		 push	 edi
  00003	8b d9		 mov	 ebx, ecx

; 277  : 	CDialog::OnDestroy();

  00005	e8 00 00 00 00	 call	 ?OnDestroy@CWnd@@IAEXXZ	; CWnd::OnDestroy
; File C:\Program Files (x86)\Microsoft Visual Studio\2019\Community\VC\Tools\MSVC\14.29.30133\atlmfc\include\afxcmn.inl

; 155  : 	{ ASSERT(::IsWindow(m_hWnd)); return (int) ::SendMessage(m_hWnd, LVM_GETITEMCOUNT, 0, 0L); }

  0000a	6a 00		 push	 0
  0000c	6a 00		 push	 0
  0000e	68 04 10 00 00	 push	 4100			; 00001004H
  00013	ff b3 c8 00 00
	00		 push	 DWORD PTR [ebx+200]
  00019	ff 15 00 00 00
	00		 call	 DWORD PTR __imp__SendMessageA@16
; File D:\git\src\IBK\IBK_DRFN\ProjSrc\SrcChartEx\ChartAddIn\ChartDesignPropertyAddIn\ChartDesignPropertyAddIn\DlgLocalLanguageTable.cpp

; 281  : 	int nItemCount = m_lstLanguageTable.GetItemCount();

  0001f	8b f8		 mov	 edi, eax
  00021	33 f6		 xor	 esi, esi

; 282  : 	for( int i = 0; i < nItemCount; i++) delete ( CStringList *)m_lstLanguageTable.GetItemData( i);

  00023	85 ff		 test	 edi, edi
  00025	7e 27		 jle	 SHORT $LN3@OnDestroy
  00027	66 0f 1f 84 00
	00 00 00 00	 npad	 9
$LL4@OnDestroy:
  00030	56		 push	 esi
  00031	8d 8b a8 00 00
	00		 lea	 ecx, DWORD PTR [ebx+168]
  00037	e8 00 00 00 00	 call	 ?GetItemData@CListCtrl@@QBEKH@Z ; CListCtrl::GetItemData
  0003c	85 c0		 test	 eax, eax
  0003e	74 09		 je	 SHORT $LN2@OnDestroy
  00040	8b 10		 mov	 edx, DWORD PTR [eax]
  00042	8b c8		 mov	 ecx, eax
  00044	6a 01		 push	 1
  00046	ff 52 04	 call	 DWORD PTR [edx+4]
$LN2@OnDestroy:
  00049	46		 inc	 esi
  0004a	3b f7		 cmp	 esi, edi
  0004c	7c e2		 jl	 SHORT $LL4@OnDestroy
$LN3@OnDestroy:
  0004e	5f		 pop	 edi

; 283  : }

  0004f	5e		 pop	 esi
  00050	5b		 pop	 ebx
  00051	c3		 ret	 0
?OnDestroy@CDlgLocalLanguageTable@@IAEXXZ ENDP		; CDlgLocalLanguageTable::OnDestroy
_TEXT	ENDS
; Function compile flags: /Ogtp
; File D:\git\src\IBK\IBK_DRFN\ProjSrc\SrcChartEx\ChartAddIn\ChartDesignPropertyAddIn\ChartDesignPropertyAddIn\DlgLocalLanguageTable.cpp
; File C:\Program Files (x86)\Microsoft Visual Studio\2019\Community\VC\Tools\MSVC\14.29.30133\atlmfc\include\afxwin2.inl
; File C:\Program Files (x86)\Microsoft Visual Studio\2019\Community\VC\Tools\MSVC\14.29.30133\atlmfc\include\atltypes.h
; File C:\Program Files (x86)\Microsoft Visual Studio\2019\Community\VC\Tools\MSVC\14.29.30133\atlmfc\include\afxwin2.inl
; File D:\git\src\IBK\IBK_DRFN\ProjSrc\SrcChartEx\ChartAddIn\ChartDesignPropertyAddIn\ChartDesignPropertyAddIn\DlgLocalLanguageTable.cpp
; File C:\Program Files (x86)\Microsoft Visual Studio\2019\Community\VC\Tools\MSVC\14.29.30133\atlmfc\include\afxwin2.inl
; File D:\git\src\IBK\IBK_DRFN\ProjSrc\SrcChartEx\ChartAddIn\ChartDesignPropertyAddIn\ChartDesignPropertyAddIn\DlgLocalLanguageTable.cpp
; File C:\Program Files (x86)\Microsoft Visual Studio\2019\Community\VC\Tools\MSVC\14.29.30133\atlmfc\include\afxwin2.inl
; File D:\git\src\IBK\IBK_DRFN\ProjSrc\SrcChartEx\ChartAddIn\ChartDesignPropertyAddIn\ChartDesignPropertyAddIn\DlgLocalLanguageTable.cpp
; File C:\Program Files (x86)\Microsoft Visual Studio\2019\Community\VC\Tools\MSVC\14.29.30133\atlmfc\include\afxwin2.inl
; File C:\Program Files (x86)\Microsoft Visual Studio\2019\Community\VC\Tools\MSVC\14.29.30133\atlmfc\include\afxcmn2.inl
; File D:\git\src\IBK\IBK_DRFN\ProjSrc\SrcChartEx\ChartAddIn\ChartDesignPropertyAddIn\ChartDesignPropertyAddIn\DlgLocalLanguageTable.cpp
; File C:\Program Files (x86)\Microsoft Visual Studio\2019\Community\VC\Tools\MSVC\14.29.30133\atlmfc\include\afxcmn2.inl
; File D:\git\src\IBK\IBK_DRFN\ProjSrc\SrcChartEx\ChartAddIn\ChartDesignPropertyAddIn\ChartDesignPropertyAddIn\DlgLocalLanguageTable.cpp
; File C:\Program Files (x86)\Microsoft Visual Studio\2019\Community\VC\Tools\MSVC\14.29.30133\atlmfc\include\afxwin2.inl
; File D:\git\src\IBK\IBK_DRFN\ProjSrc\SrcChartEx\ChartAddIn\ChartDesignPropertyAddIn\Include_Chart\Dll_Load\IMetaTable.h
; File D:\git\src\IBK\IBK_DRFN\ProjSrc\SrcChartEx\ChartAddIn\ChartDesignPropertyAddIn\ChartDesignPropertyAddIn\DlgLocalLanguageTable.cpp
; File D:\git\src\IBK\IBK_DRFN\ProjSrc\SrcChartEx\ChartAddIn\ChartDesignPropertyAddIn\ChartDesignPropertyAddIn\EditableListCtrl.h
; File C:\Program Files (x86)\Microsoft Visual Studio\2019\Community\VC\Tools\MSVC\14.29.30133\atlmfc\include\afxcoll.inl
; File D:\git\src\IBK\IBK_DRFN\ProjSrc\SrcChartEx\ChartAddIn\ChartDesignPropertyAddIn\ChartDesignPropertyAddIn\EditableListCtrl.h
; File C:\Program Files (x86)\Microsoft Visual Studio\2019\Community\VC\Tools\MSVC\14.29.30133\atlmfc\include\afxcoll.inl
; File D:\git\src\IBK\IBK_DRFN\ProjSrc\SrcChartEx\ChartAddIn\ChartDesignPropertyAddIn\ChartDesignPropertyAddIn\EditableListCtrl.h
; File D:\git\src\IBK\IBK_DRFN\ProjSrc\SrcChartEx\ChartAddIn\ChartDesignPropertyAddIn\ChartDesignPropertyAddIn\DlgLocalLanguageTable.cpp
; File C:\Program Files (x86)\Microsoft Visual Studio\2019\Community\VC\Tools\MSVC\14.29.30133\atlmfc\include\atlsimpstr.h
; File D:\git\src\IBK\IBK_DRFN\ProjSrc\SrcChartEx\ChartAddIn\ChartDesignPropertyAddIn\ChartDesignPropertyAddIn\DlgLocalLanguageTable.cpp
; File D:\git\src\IBK\IBK_DRFN\ProjSrc\SrcChartEx\ChartAddIn\ChartDesignPropertyAddIn\ChartDesignPropertyAddIn\EditableListCtrl.h
; File C:\Program Files (x86)\Microsoft Visual Studio\2019\Community\VC\Tools\MSVC\14.29.30133\atlmfc\include\afxcoll.inl
; File D:\git\src\IBK\IBK_DRFN\ProjSrc\SrcChartEx\ChartAddIn\ChartDesignPropertyAddIn\ChartDesignPropertyAddIn\EditableListCtrl.h
; File C:\Program Files (x86)\Microsoft Visual Studio\2019\Community\VC\Tools\MSVC\14.29.30133\atlmfc\include\afxcoll.inl
; File D:\git\src\IBK\IBK_DRFN\ProjSrc\SrcChartEx\ChartAddIn\ChartDesignPropertyAddIn\ChartDesignPropertyAddIn\DlgLocalLanguageTable.cpp
; File C:\Program Files (x86)\Microsoft Visual Studio\2019\Community\VC\Tools\MSVC\14.29.30133\atlmfc\include\atlsimpstr.h
; File D:\git\src\IBK\IBK_DRFN\ProjSrc\SrcChartEx\ChartAddIn\ChartDesignPropertyAddIn\ChartDesignPropertyAddIn\DlgLocalLanguageTable.cpp
; File C:\Program Files (x86)\Microsoft Visual Studio\2019\Community\VC\Tools\MSVC\14.29.30133\atlmfc\include\atlsimpstr.h
; File D:\git\src\IBK\IBK_DRFN\ProjSrc\SrcChartEx\ChartAddIn\ChartDesignPropertyAddIn\ChartDesignPropertyAddIn\DlgLocalLanguageTable.cpp
; File C:\Program Files (x86)\Windows Kits\10\Include\10.0.22000.0\ucrt\string.h
; File D:\git\src\IBK\IBK_DRFN\ProjSrc\SrcChartEx\ChartAddIn\ChartDesignPropertyAddIn\ChartDesignPropertyAddIn\DlgLocalLanguageTable.cpp
; File C:\Program Files (x86)\Windows Kits\10\Include\10.0.22000.0\ucrt\string.h
; File D:\git\src\IBK\IBK_DRFN\ProjSrc\SrcChartEx\ChartAddIn\ChartDesignPropertyAddIn\ChartDesignPropertyAddIn\DlgLocalLanguageTable.cpp
; File C:\Program Files (x86)\Windows Kits\10\Include\10.0.22000.0\ucrt\string.h
; File D:\git\src\IBK\IBK_DRFN\ProjSrc\SrcChartEx\ChartAddIn\ChartDesignPropertyAddIn\ChartDesignPropertyAddIn\DlgLocalLanguageTable.cpp
; File C:\Program Files (x86)\Windows Kits\10\Include\10.0.22000.0\ucrt\string.h
; File D:\git\src\IBK\IBK_DRFN\ProjSrc\SrcChartEx\ChartAddIn\ChartDesignPropertyAddIn\ChartDesignPropertyAddIn\DlgLocalLanguageTable.cpp
; File C:\Program Files (x86)\Microsoft Visual Studio\2019\Community\VC\Tools\MSVC\14.29.30133\atlmfc\include\cstringt.h
; File D:\git\src\IBK\IBK_DRFN\ProjSrc\SrcChartEx\ChartAddIn\ChartDesignPropertyAddIn\ChartDesignPropertyAddIn\DlgLocalLanguageTable.cpp
; File C:\Program Files (x86)\Microsoft Visual Studio\2019\Community\VC\Tools\MSVC\14.29.30133\atlmfc\include\cstringt.h
; File C:\Program Files (x86)\Microsoft Visual Studio\2019\Community\VC\Tools\MSVC\14.29.30133\atlmfc\include\atlsimpstr.h
; File C:\Program Files (x86)\Microsoft Visual Studio\2019\Community\VC\Tools\MSVC\14.29.30133\atlmfc\include\cstringt.h
; File C:\Program Files (x86)\Microsoft Visual Studio\2019\Community\VC\Tools\MSVC\14.29.30133\atlmfc\include\atlsimpstr.h
; File C:\Program Files (x86)\Microsoft Visual Studio\2019\Community\VC\Tools\MSVC\14.29.30133\atlmfc\include\cstringt.h
; File C:\Program Files (x86)\Microsoft Visual Studio\2019\Community\VC\Tools\MSVC\14.29.30133\atlmfc\include\atlsimpstr.h
; File C:\Program Files (x86)\Microsoft Visual Studio\2019\Community\VC\Tools\MSVC\14.29.30133\atlmfc\include\cstringt.h
; File D:\git\src\IBK\IBK_DRFN\ProjSrc\SrcChartEx\ChartAddIn\ChartDesignPropertyAddIn\ChartDesignPropertyAddIn\DlgLocalLanguageTable.cpp
; File C:\Program Files (x86)\Microsoft Visual Studio\2019\Community\VC\Tools\MSVC\14.29.30133\atlmfc\include\cstringt.h
; File C:\Program Files (x86)\Microsoft Visual Studio\2019\Community\VC\Tools\MSVC\14.29.30133\atlmfc\include\atlsimpstr.h
; File C:\Program Files (x86)\Microsoft Visual Studio\2019\Community\VC\Tools\MSVC\14.29.30133\atlmfc\include\cstringt.h
; File D:\git\src\IBK\IBK_DRFN\ProjSrc\SrcChartEx\ChartAddIn\ChartDesignPropertyAddIn\ChartDesignPropertyAddIn\DlgLocalLanguageTable.cpp
; File C:\Program Files (x86)\Windows Kits\10\Include\10.0.22000.0\ucrt\string.h
; File D:\git\src\IBK\IBK_DRFN\ProjSrc\SrcChartEx\ChartAddIn\ChartDesignPropertyAddIn\ChartDesignPropertyAddIn\DlgLocalLanguageTable.cpp
; File C:\Program Files (x86)\Windows Kits\10\Include\10.0.22000.0\ucrt\string.h
; File D:\git\src\IBK\IBK_DRFN\ProjSrc\SrcChartEx\ChartAddIn\ChartDesignPropertyAddIn\ChartDesignPropertyAddIn\DlgLocalLanguageTable.cpp
; File C:\Program Files (x86)\Microsoft Visual Studio\2019\Community\VC\Tools\MSVC\14.29.30133\atlmfc\include\afx.inl
; File D:\git\src\IBK\IBK_DRFN\ProjSrc\SrcChartEx\ChartAddIn\ChartDesignPropertyAddIn\ChartDesignPropertyAddIn\DlgLocalLanguageTable.cpp
; File C:\Program Files (x86)\Windows Kits\10\Include\10.0.22000.0\ucrt\string.h
; File D:\git\src\IBK\IBK_DRFN\ProjSrc\SrcChartEx\ChartAddIn\ChartDesignPropertyAddIn\ChartDesignPropertyAddIn\DlgLocalLanguageTable.cpp
; File C:\Program Files (x86)\Windows Kits\10\Include\10.0.22000.0\ucrt\string.h
; File D:\git\src\IBK\IBK_DRFN\ProjSrc\SrcChartEx\ChartAddIn\ChartDesignPropertyAddIn\ChartDesignPropertyAddIn\DlgLocalLanguageTable.cpp
; File C:\Program Files (x86)\Microsoft Visual Studio\2019\Community\VC\Tools\MSVC\14.29.30133\atlmfc\include\afxcmn.inl
; File D:\git\src\IBK\IBK_DRFN\ProjSrc\SrcChartEx\ChartAddIn\ChartDesignPropertyAddIn\ChartDesignPropertyAddIn\DlgLocalLanguageTable.cpp
; File C:\Program Files (x86)\Microsoft Visual Studio\2019\Community\VC\Tools\MSVC\14.29.30133\atlmfc\include\afxcmn.inl
; File D:\git\src\IBK\IBK_DRFN\ProjSrc\SrcChartEx\ChartAddIn\ChartDesignPropertyAddIn\ChartDesignPropertyAddIn\DlgLocalLanguageTable.cpp
; File D:\git\src\IBK\IBK_DRFN\ProjSrc\SrcChartEx\ChartAddIn\ChartDesignPropertyAddIn\Include_Chart\Dll_Load\IMetaTable.h
; File D:\git\src\IBK\IBK_DRFN\ProjSrc\SrcChartEx\ChartAddIn\ChartDesignPropertyAddIn\ChartDesignPropertyAddIn\DlgLocalLanguageTable.cpp
; File D:\git\src\IBK\IBK_DRFN\ProjSrc\SrcChartEx\ChartAddIn\ChartDesignPropertyAddIn\Include_Chart\Dll_Load\IMetaTable.h
; File D:\git\src\IBK\IBK_DRFN\ProjSrc\SrcChartEx\ChartAddIn\ChartDesignPropertyAddIn\ChartDesignPropertyAddIn\DlgLocalLanguageTable.cpp
; File D:\git\src\IBK\IBK_DRFN\ProjSrc\SrcChartEx\ChartAddIn\ChartDesignPropertyAddIn\Include_Chart\Dll_Load\IMetaTable.h
; File D:\git\src\IBK\IBK_DRFN\ProjSrc\SrcChartEx\ChartAddIn\ChartDesignPropertyAddIn\ChartDesignPropertyAddIn\DlgLocalLanguageTable.cpp
; File D:\git\src\IBK\IBK_DRFN\ProjSrc\SrcChartEx\ChartAddIn\ChartDesignPropertyAddIn\Include_Chart\Dll_Load\IMetaTable.h
; File D:\git\src\IBK\IBK_DRFN\ProjSrc\SrcChartEx\ChartAddIn\ChartDesignPropertyAddIn\ChartDesignPropertyAddIn\DlgLocalLanguageTable.cpp
; File C:\Program Files (x86)\Microsoft Visual Studio\2019\Community\VC\Tools\MSVC\14.29.30133\atlmfc\include\afxwin2.inl
; File D:\git\src\IBK\IBK_DRFN\ProjSrc\SrcChartEx\ChartAddIn\ChartDesignPropertyAddIn\ChartDesignPropertyAddIn\DlgLocalLanguageTable.cpp
; File D:\git\src\IBK\IBK_DRFN\ProjSrc\SrcChartEx\ChartAddIn\ChartDesignPropertyAddIn\Include_Chart\Dll_Load\IMetaTable.h
; File D:\git\src\IBK\IBK_DRFN\ProjSrc\SrcChartEx\ChartAddIn\ChartDesignPropertyAddIn\ChartDesignPropertyAddIn\DlgLocalLanguageTable.cpp
; File D:\git\src\IBK\IBK_DRFN\ProjSrc\SrcChartEx\ChartAddIn\ChartDesignPropertyAddIn\Include_Chart\Dll_Load\IMetaTable.h
; File D:\git\src\IBK\IBK_DRFN\ProjSrc\SrcChartEx\ChartAddIn\ChartDesignPropertyAddIn\ChartDesignPropertyAddIn\DlgLocalLanguageTable.cpp
; File D:\git\src\IBK\IBK_DRFN\ProjSrc\SrcChartEx\ChartAddIn\ChartDesignPropertyAddIn\Include_Chart\Dll_Load\IMetaTable.h
; File D:\git\src\IBK\IBK_DRFN\ProjSrc\SrcChartEx\ChartAddIn\ChartDesignPropertyAddIn\ChartDesignPropertyAddIn\DlgLocalLanguageTable.cpp
; File D:\git\src\IBK\IBK_DRFN\ProjSrc\SrcChartEx\ChartAddIn\ChartDesignPropertyAddIn\Include_Chart\Dll_Load\IMetaTable.h
; File D:\git\src\IBK\IBK_DRFN\ProjSrc\SrcChartEx\ChartAddIn\ChartDesignPropertyAddIn\ChartDesignPropertyAddIn\DlgLocalLanguageTable.cpp
; File C:\Program Files (x86)\Microsoft Visual Studio\2019\Community\VC\Tools\MSVC\14.29.30133\atlmfc\include\afxwin2.inl
; File D:\git\src\IBK\IBK_DRFN\ProjSrc\SrcChartEx\ChartAddIn\ChartDesignPropertyAddIn\ChartDesignPropertyAddIn\DlgLocalLanguageTable.cpp
; File C:\Program Files (x86)\Microsoft Visual Studio\2019\Community\VC\Tools\MSVC\14.29.30133\atlmfc\include\afxwin2.inl
; File D:\git\src\IBK\IBK_DRFN\ProjSrc\SrcChartEx\ChartAddIn\ChartDesignPropertyAddIn\ChartDesignPropertyAddIn\DlgLocalLanguageTable.cpp
; File C:\Program Files (x86)\Microsoft Visual Studio\2019\Community\VC\Tools\MSVC\14.29.30133\atlmfc\include\afxcoll.inl
; File D:\git\src\IBK\IBK_DRFN\ProjSrc\SrcChartEx\ChartAddIn\ChartDesignPropertyAddIn\ChartDesignPropertyAddIn\DlgLocalLanguageTable.cpp
;	COMDAT ?OnInitDialog@CDlgLocalLanguageTable@@MAEHXZ
_TEXT	SEGMENT
$T2 = -108						; size = 4
_szMetaText$1$ = -104					; size = 4
tv1106 = -100						; size = 4
tv1105 = -96						; size = 4
tv1107 = -92						; size = 4
tv1103 = -88						; size = 4
tv1102 = -84						; size = 4
tv1104 = -80						; size = 4
$T3 = -76						; size = 4
_strLanguageTable$ = -72				; size = 4
_this$GSCopy$1$ = -68					; size = 4
_szNextLine$1$ = -64					; size = 4
_strHeader$ = -60					; size = 4
_szEnglishText$1$ = -56					; size = 4
$T4 = -52						; size = 4
$T5 = -48						; size = 4
_szLangaugeText$1$ = -48				; size = 4
$T6 = -44						; size = 4
_szMetaTexts$2$ = -40					; size = 4
$T7 = -40						; size = 4
_szMetaTexts$1$ = -36					; size = 4
$T8 = -36						; size = 4
$T9 = -36						; size = 4
_rctWindow$ = -32					; size = 16
__$ArrayPad$ = -16					; size = 4
__$EHRec$ = -12						; size = 12
?OnInitDialog@CDlgLocalLanguageTable@@MAEHXZ PROC	; CDlgLocalLanguageTable::OnInitDialog, COMDAT
; _this$ = ecx

; 75   : {

  00000	55		 push	 ebp
  00001	8b ec		 mov	 ebp, esp
  00003	6a ff		 push	 -1
  00005	68 00 00 00 00	 push	 __ehhandler$?OnInitDialog@CDlgLocalLanguageTable@@MAEHXZ
  0000a	64 a1 00 00 00
	00		 mov	 eax, DWORD PTR fs:0
  00010	50		 push	 eax
  00011	83 ec 60	 sub	 esp, 96			; 00000060H
  00014	a1 00 00 00 00	 mov	 eax, DWORD PTR ___security_cookie
  00019	33 c5		 xor	 eax, ebp
  0001b	89 45 f0	 mov	 DWORD PTR __$ArrayPad$[ebp], eax
  0001e	53		 push	 ebx
  0001f	56		 push	 esi
  00020	57		 push	 edi
  00021	50		 push	 eax
  00022	8d 45 f4	 lea	 eax, DWORD PTR __$EHRec$[ebp]
  00025	64 a3 00 00 00
	00		 mov	 DWORD PTR fs:0, eax
  0002b	8b f9		 mov	 edi, ecx
  0002d	89 7d bc	 mov	 DWORD PTR _this$GSCopy$1$[ebp], edi
  00030	33 c0		 xor	 eax, eax
  00032	89 45 d4	 mov	 DWORD PTR $T6[ebp], eax
  00035	89 45 dc	 mov	 DWORD PTR $T9[ebp], eax

; 76   : 	CDialog::OnInitDialog();

  00038	e8 00 00 00 00	 call	 ?OnInitDialog@CDialog@@UAEHXZ ; CDialog::OnInitDialog
; File C:\Program Files (x86)\Microsoft Visual Studio\2019\Community\VC\Tools\MSVC\14.29.30133\atlmfc\include\afxwin2.inl

; 84   : 	{ ASSERT(::IsWindow(m_hWnd)); ::GetWindowRect(m_hWnd, lpRect); }

  0003d	8d 45 e0	 lea	 eax, DWORD PTR _rctWindow$[ebp]
  00040	0f 57 c0	 xorps	 xmm0, xmm0
  00043	50		 push	 eax
  00044	ff 77 20	 push	 DWORD PTR [edi+32]
; File C:\Program Files (x86)\Microsoft Visual Studio\2019\Community\VC\Tools\MSVC\14.29.30133\atlmfc\include\atltypes.h

; 528  : 	left = 0;

  00047	0f 11 45 e0	 movups	 XMMWORD PTR _rctWindow$[ebp], xmm0
; File C:\Program Files (x86)\Microsoft Visual Studio\2019\Community\VC\Tools\MSVC\14.29.30133\atlmfc\include\afxwin2.inl

; 84   : 	{ ASSERT(::IsWindow(m_hWnd)); ::GetWindowRect(m_hWnd, lpRect); }

  0004b	ff 15 00 00 00
	00		 call	 DWORD PTR __imp__GetWindowRect@8
; File D:\git\src\IBK\IBK_DRFN\ProjSrc\SrcChartEx\ChartAddIn\ChartDesignPropertyAddIn\ChartDesignPropertyAddIn\DlgLocalLanguageTable.cpp

; 82   : 	rctWindow.right = rctWindow.left + m_ptMinSize.x + 1;

  00051	8b 75 e0	 mov	 esi, DWORD PTR _rctWindow$[ebp]

; 83   : 	rctWindow.bottom = rctWindow.top + m_ptMinSize.y + 1;

  00054	8b 87 68 01 00
	00		 mov	 eax, DWORD PTR [edi+360]
  0005a	8b 4d e4	 mov	 ecx, DWORD PTR _rctWindow$[ebp+4]
  0005d	40		 inc	 eax
  0005e	03 c1		 add	 eax, ecx
; File C:\Program Files (x86)\Microsoft Visual Studio\2019\Community\VC\Tools\MSVC\14.29.30133\atlmfc\include\afxwin2.inl

; 73   : 	{ MoveWindow(lpRect->left, lpRect->top, lpRect->right - lpRect->left,

  00060	6a 01		 push	 1
; File D:\git\src\IBK\IBK_DRFN\ProjSrc\SrcChartEx\ChartAddIn\ChartDesignPropertyAddIn\ChartDesignPropertyAddIn\DlgLocalLanguageTable.cpp

; 82   : 	rctWindow.right = rctWindow.left + m_ptMinSize.x + 1;

  00062	8d 56 01	 lea	 edx, DWORD PTR [esi+1]

; 83   : 	rctWindow.bottom = rctWindow.top + m_ptMinSize.y + 1;

  00065	89 45 ec	 mov	 DWORD PTR _rctWindow$[ebp+12], eax
  00068	03 97 64 01 00
	00		 add	 edx, DWORD PTR [edi+356]
; File C:\Program Files (x86)\Microsoft Visual Studio\2019\Community\VC\Tools\MSVC\14.29.30133\atlmfc\include\afxwin2.inl

; 73   : 	{ MoveWindow(lpRect->left, lpRect->top, lpRect->right - lpRect->left,

  0006e	2b c1		 sub	 eax, ecx
  00070	50		 push	 eax
; File D:\git\src\IBK\IBK_DRFN\ProjSrc\SrcChartEx\ChartAddIn\ChartDesignPropertyAddIn\ChartDesignPropertyAddIn\DlgLocalLanguageTable.cpp

; 82   : 	rctWindow.right = rctWindow.left + m_ptMinSize.x + 1;

  00071	89 55 e8	 mov	 DWORD PTR _rctWindow$[ebp+8], edx
; File C:\Program Files (x86)\Microsoft Visual Studio\2019\Community\VC\Tools\MSVC\14.29.30133\atlmfc\include\afxwin2.inl

; 73   : 	{ MoveWindow(lpRect->left, lpRect->top, lpRect->right - lpRect->left,

  00074	2b d6		 sub	 edx, esi
  00076	52		 push	 edx
  00077	51		 push	 ecx
  00078	56		 push	 esi
  00079	8b cf		 mov	 ecx, edi
  0007b	e8 00 00 00 00	 call	 ?MoveWindow@CWnd@@QAEXHHHHH@Z ; CWnd::MoveWindow
; File C:\Program Files (x86)\Microsoft Visual Studio\2019\Community\VC\Tools\MSVC\14.29.30133\atlmfc\include\afxcmn2.inl

; 131  : 	{ ASSERT(::IsWindow(m_hWnd)); return (DWORD) ::SendMessage(m_hWnd, LVM_GETEXTENDEDLISTVIEWSTYLE, 0, 0); }

  00080	8b 1d 00 00 00
	00		 mov	 ebx, DWORD PTR __imp__SendMessageA@16
  00086	6a 00		 push	 0
  00088	6a 00		 push	 0
  0008a	68 37 10 00 00	 push	 4151			; 00001037H
  0008f	ff b7 c8 00 00
	00		 push	 DWORD PTR [edi+200]
  00095	ff d3		 call	 ebx
; File D:\git\src\IBK\IBK_DRFN\ProjSrc\SrcChartEx\ChartAddIn\ChartDesignPropertyAddIn\ChartDesignPropertyAddIn\DlgLocalLanguageTable.cpp

; 86   : 	m_lstLanguageTable.SetExtendedStyle( m_lstLanguageTable.GetExtendedStyle() | LVS_EX_FULLROWSELECT);

  00097	83 c8 20	 or	 eax, 32			; 00000020H
; File C:\Program Files (x86)\Microsoft Visual Studio\2019\Community\VC\Tools\MSVC\14.29.30133\atlmfc\include\afxcmn2.inl

; 117  : 	{ ASSERT(::IsWindow(m_hWnd)); return (DWORD) ::SendMessage(m_hWnd, LVM_SETEXTENDEDLISTVIEWSTYLE, 0, (LPARAM) dwNewStyle); }

  0009a	50		 push	 eax
  0009b	6a 00		 push	 0
  0009d	68 36 10 00 00	 push	 4150			; 00001036H
  000a2	ff b7 c8 00 00
	00		 push	 DWORD PTR [edi+200]
  000a8	ff d3		 call	 ebx
; File D:\git\src\IBK\IBK_DRFN\ProjSrc\SrcChartEx\ChartAddIn\ChartDesignPropertyAddIn\ChartDesignPropertyAddIn\DlgLocalLanguageTable.cpp

; 88   : 	m_eLanguageID = g_iMetaTable.GetCurrentLanguageID( m_pParentWnd->GetSafeHwnd());

  000aa	8b b7 94 00 00
	00		 mov	 esi, DWORD PTR [edi+148]
; File C:\Program Files (x86)\Microsoft Visual Studio\2019\Community\VC\Tools\MSVC\14.29.30133\atlmfc\include\afxwin2.inl

; 25   : 	{ return this == NULL ? NULL : m_hWnd; }

  000b0	85 f6		 test	 esi, esi
  000b2	74 03		 je	 SHORT $LN50@OnInitDial
$LN49@OnInitDial:
  000b4	8b 76 20	 mov	 esi, DWORD PTR [esi+32]
$LN50@OnInitDial:
; File D:\git\src\IBK\IBK_DRFN\ProjSrc\SrcChartEx\ChartAddIn\ChartDesignPropertyAddIn\Include_Chart\Dll_Load\IMetaTable.h

; 935  : 	DECLARE_FUNCTION1(	GetCurrentLanguageID,			E_LANGUAGEID, ENGLISH, HWND);

  000b7	a1 04 00 00 00	 mov	 eax, DWORD PTR ?g_iMetaTable@@3VIMetaTable@@A+4
  000bc	bb 80 0d 00 00	 mov	 ebx, 3456		; 00000d80H
  000c1	85 c0		 test	 eax, eax
  000c3	74 3e		 je	 SHORT $LN54@OnInitDial
  000c5	66 3b 1d 8c 00
	00 00		 cmp	 bx, WORD PTR ?g_iMetaTable@@3VIMetaTable@@A+140
  000cc	74 24		 je	 SHORT $LN177@OnInitDial
  000ce	68 00 00 00 00	 push	 OFFSET ??_C@_0BF@EGELCGDD@GetCurrentLanguageID@
  000d3	50		 push	 eax
  000d4	c7 05 88 00 00
	00 00 00 00 00	 mov	 DWORD PTR ?g_iMetaTable@@3VIMetaTable@@A+136, 0
  000de	ff 15 00 00 00
	00		 call	 DWORD PTR __imp__GetProcAddress@8
  000e4	a3 88 00 00 00	 mov	 DWORD PTR ?g_iMetaTable@@3VIMetaTable@@A+136, eax
  000e9	66 89 1d 8c 00
	00 00		 mov	 WORD PTR ?g_iMetaTable@@3VIMetaTable@@A+140, bx
  000f0	eb 05		 jmp	 SHORT $LN53@OnInitDial
$LN177@OnInitDial:
  000f2	a1 88 00 00 00	 mov	 eax, DWORD PTR ?g_iMetaTable@@3VIMetaTable@@A+136
$LN53@OnInitDial:
  000f7	85 c0		 test	 eax, eax
  000f9	74 08		 je	 SHORT $LN54@OnInitDial
  000fb	56		 push	 esi
  000fc	ff d0		 call	 eax
  000fe	83 c4 04	 add	 esp, 4
  00101	eb 02		 jmp	 SHORT $LN51@OnInitDial
$LN54@OnInitDial:
  00103	33 c0		 xor	 eax, eax
$LN51@OnInitDial:
; File D:\git\src\IBK\IBK_DRFN\ProjSrc\SrcChartEx\ChartAddIn\ChartDesignPropertyAddIn\ChartDesignPropertyAddIn\DlgLocalLanguageTable.cpp

; 89   : 	m_lstLanguageTable.InsertColumn( 0, "Meta Text", LVCFMT_LEFT, 80);

  00105	8d 9f a8 00 00
	00		 lea	 ebx, DWORD PTR [edi+168]
  0010b	89 87 6c 01 00
	00		 mov	 DWORD PTR [edi+364], eax
; File D:\git\src\IBK\IBK_DRFN\ProjSrc\SrcChartEx\ChartAddIn\ChartDesignPropertyAddIn\ChartDesignPropertyAddIn\EditableListCtrl.h

; 130  : 			{	m_bEditableColumn.Add( 2);	return CListCtrl::InsertColumn( nCol, lpszColumnHeading, nFormat, nWidth, nSubItem);	}

  00111	8d 8b 80 00 00
	00		 lea	 ecx, DWORD PTR [ebx+128]
; File C:\Program Files (x86)\Microsoft Visual Studio\2019\Community\VC\Tools\MSVC\14.29.30133\atlmfc\include\afxcoll.inl

; 51   : 		SetAtGrow(nIndex, newElement);

  00117	6a 02		 push	 2
  00119	ff 71 08	 push	 DWORD PTR [ecx+8]
  0011c	e8 00 00 00 00	 call	 ?SetAtGrow@CByteArray@@QAEXHE@Z ; CByteArray::SetAtGrow
; File D:\git\src\IBK\IBK_DRFN\ProjSrc\SrcChartEx\ChartAddIn\ChartDesignPropertyAddIn\ChartDesignPropertyAddIn\EditableListCtrl.h

; 130  : 			{	m_bEditableColumn.Add( 2);	return CListCtrl::InsertColumn( nCol, lpszColumnHeading, nFormat, nWidth, nSubItem);	}

  00121	6a ff		 push	 -1
  00123	6a 50		 push	 80			; 00000050H
  00125	6a 00		 push	 0
  00127	68 00 00 00 00	 push	 OFFSET ??_C@_09LDGIOJFP@Meta?5Text@
  0012c	6a 00		 push	 0
  0012e	8b cb		 mov	 ecx, ebx
  00130	e8 00 00 00 00	 call	 ?InsertColumn@CListCtrl@@QAEHHPBDHHH@Z ; CListCtrl::InsertColumn
  00135	8d 8b 80 00 00
	00		 lea	 ecx, DWORD PTR [ebx+128]
; File C:\Program Files (x86)\Microsoft Visual Studio\2019\Community\VC\Tools\MSVC\14.29.30133\atlmfc\include\afxcoll.inl

; 51   : 		SetAtGrow(nIndex, newElement);

  0013b	6a 02		 push	 2
  0013d	ff 71 08	 push	 DWORD PTR [ecx+8]
  00140	e8 00 00 00 00	 call	 ?SetAtGrow@CByteArray@@QAEXHE@Z ; CByteArray::SetAtGrow
; File D:\git\src\IBK\IBK_DRFN\ProjSrc\SrcChartEx\ChartAddIn\ChartDesignPropertyAddIn\ChartDesignPropertyAddIn\EditableListCtrl.h

; 130  : 			{	m_bEditableColumn.Add( 2);	return CListCtrl::InsertColumn( nCol, lpszColumnHeading, nFormat, nWidth, nSubItem);	}

  00145	6a ff		 push	 -1
  00147	68 82 00 00 00	 push	 130			; 00000082H
  0014c	6a 00		 push	 0
  0014e	68 00 00 00 00	 push	 OFFSET ??_C@_07NEKHPBCG@English@
  00153	6a 01		 push	 1
  00155	8b cb		 mov	 ecx, ebx
  00157	e8 00 00 00 00	 call	 ?InsertColumn@CListCtrl@@QAEHHPBDHHH@Z ; CListCtrl::InsertColumn
; File D:\git\src\IBK\IBK_DRFN\ProjSrc\SrcChartEx\ChartAddIn\ChartDesignPropertyAddIn\ChartDesignPropertyAddIn\DlgLocalLanguageTable.cpp

; 91   : 	CString strHeader;

  0015c	8d 4d c4	 lea	 ecx, DWORD PTR _strHeader$[ebp]
  0015f	ff 15 00 00 00
	00		 call	 DWORD PTR __imp_??0?$CStringT@DV?$StrTraitMFC_DLL@DV?$ChTraitsCRT@D@ATL@@@@@ATL@@QAE@XZ

; 92   : 	switch( m_eLanguageID)

  00165	8b 87 6c 01 00
	00		 mov	 eax, DWORD PTR [edi+364]
  0016b	c7 45 fc 00 00
	00 00		 mov	 DWORD PTR __$EHRec$[ebp+8], 0
  00172	83 e8 01	 sub	 eax, 1
  00175	75 0e		 jne	 SHORT $LN2@OnInitDial

; 93   : 	{
; 94   : 		case IMetaTable::KOREAN:	strHeader = "Korean";

  00177	68 00 00 00 00	 push	 OFFSET ??_C@_06OALMOPCN@Korean@
  0017c	8d 4d c4	 lea	 ecx, DWORD PTR _strHeader$[ebp]
  0017f	ff 15 00 00 00
	00		 call	 DWORD PTR __imp_??4?$CStringT@DV?$StrTraitMFC_DLL@DV?$ChTraitsCRT@D@ATL@@@@@ATL@@QAEAAV01@PBD@Z
$LN2@OnInitDial:
; File C:\Program Files (x86)\Microsoft Visual Studio\2019\Community\VC\Tools\MSVC\14.29.30133\atlmfc\include\atlsimpstr.h

; 519  : 		return( GetData()->nDataLength );

  00185	8b 75 c4	 mov	 esi, DWORD PTR _strHeader$[ebp]

; 533  : 		return( GetLength() == 0 );

  00188	83 7e f4 00	 cmp	 DWORD PTR [esi-12], 0
; File D:\git\src\IBK\IBK_DRFN\ProjSrc\SrcChartEx\ChartAddIn\ChartDesignPropertyAddIn\ChartDesignPropertyAddIn\DlgLocalLanguageTable.cpp

; 97   : 	if( !strHeader.IsEmpty()) m_lstLanguageTable.InsertColumn( 2, strHeader, LVCFMT_LEFT, 130);

  0018c	74 23		 je	 SHORT $LN15@OnInitDial
; File D:\git\src\IBK\IBK_DRFN\ProjSrc\SrcChartEx\ChartAddIn\ChartDesignPropertyAddIn\ChartDesignPropertyAddIn\EditableListCtrl.h

; 130  : 			{	m_bEditableColumn.Add( 2);	return CListCtrl::InsertColumn( nCol, lpszColumnHeading, nFormat, nWidth, nSubItem);	}

  0018e	8d 8b 80 00 00
	00		 lea	 ecx, DWORD PTR [ebx+128]
; File C:\Program Files (x86)\Microsoft Visual Studio\2019\Community\VC\Tools\MSVC\14.29.30133\atlmfc\include\afxcoll.inl

; 51   : 		SetAtGrow(nIndex, newElement);

  00194	6a 02		 push	 2
  00196	ff 71 08	 push	 DWORD PTR [ecx+8]
  00199	e8 00 00 00 00	 call	 ?SetAtGrow@CByteArray@@QAEXHE@Z ; CByteArray::SetAtGrow
; File D:\git\src\IBK\IBK_DRFN\ProjSrc\SrcChartEx\ChartAddIn\ChartDesignPropertyAddIn\ChartDesignPropertyAddIn\EditableListCtrl.h

; 130  : 			{	m_bEditableColumn.Add( 2);	return CListCtrl::InsertColumn( nCol, lpszColumnHeading, nFormat, nWidth, nSubItem);	}

  0019e	6a ff		 push	 -1
  001a0	68 82 00 00 00	 push	 130			; 00000082H
  001a5	6a 00		 push	 0
  001a7	56		 push	 esi
  001a8	6a 02		 push	 2
  001aa	8b cb		 mov	 ecx, ebx
  001ac	e8 00 00 00 00	 call	 ?InsertColumn@CListCtrl@@QAEHHPBDHHH@Z ; CListCtrl::InsertColumn
$LN15@OnInitDial:
; File C:\Program Files (x86)\Microsoft Visual Studio\2019\Community\VC\Tools\MSVC\14.29.30133\atlmfc\include\afxcoll.inl

; 42   : 		if( nIndex < 0 || nIndex >= m_nSize )

  001b1	83 bf 30 01 00
	00 00		 cmp	 DWORD PTR [edi+304], 0
  001b8	0f 8e d6 04 00
	00		 jle	 $LN188@OnInitDial

; 57   : 	{ return ElementAt(nIndex); }

  001be	8b 87 2c 01 00
	00		 mov	 eax, DWORD PTR [edi+300]
; File D:\git\src\IBK\IBK_DRFN\ProjSrc\SrcChartEx\ChartAddIn\ChartDesignPropertyAddIn\ChartDesignPropertyAddIn\DlgLocalLanguageTable.cpp

; 100  : 	CString strLanguageTable;

  001c4	8d 4d b8	 lea	 ecx, DWORD PTR _strLanguageTable$[ebp]
  001c7	c6 00 01	 mov	 BYTE PTR [eax], 1
  001ca	ff 15 00 00 00
	00		 call	 DWORD PTR __imp_??0?$CStringT@DV?$StrTraitMFC_DLL@DV?$ChTraitsCRT@D@ATL@@@@@ATL@@QAE@XZ
; File C:\Program Files (x86)\Microsoft Visual Studio\2019\Community\VC\Tools\MSVC\14.29.30133\atlmfc\include\atlsimpstr.h

; 519  : 		return( GetData()->nDataLength );

  001d0	8b 87 44 01 00
	00		 mov	 eax, DWORD PTR [edi+324]
; File D:\git\src\IBK\IBK_DRFN\ProjSrc\SrcChartEx\ChartAddIn\ChartDesignPropertyAddIn\ChartDesignPropertyAddIn\DlgLocalLanguageTable.cpp

; 101  : 	char *szLanguageTable = strLanguageTable.GetBufferSetLength( m_strLocalLanguageTable.GetLength());

  001d6	8d 4d b8	 lea	 ecx, DWORD PTR _strLanguageTable$[ebp]
  001d9	c6 45 fc 01	 mov	 BYTE PTR __$EHRec$[ebp+8], 1
  001dd	ff 70 f4	 push	 DWORD PTR [eax-12]
  001e0	ff 15 00 00 00
	00		 call	 DWORD PTR __imp_?GetBufferSetLength@?$CSimpleStringT@D$00@ATL@@QAEPADH@Z
  001e6	8b f0		 mov	 esi, eax
; File C:\Program Files (x86)\Microsoft Visual Studio\2019\Community\VC\Tools\MSVC\14.29.30133\atlmfc\include\atlsimpstr.h

; 377  : 		return( m_pszData );

  001e8	8b 87 44 01 00
	00		 mov	 eax, DWORD PTR [edi+324]
; File D:\git\src\IBK\IBK_DRFN\ProjSrc\SrcChartEx\ChartAddIn\ChartDesignPropertyAddIn\ChartDesignPropertyAddIn\DlgLocalLanguageTable.cpp

; 102  : 	strcpy( szLanguageTable, m_strLocalLanguageTable);

  001ee	8b d6		 mov	 edx, esi
$LL28@OnInitDial:
  001f0	8a 08		 mov	 cl, BYTE PTR [eax]
  001f2	8d 40 01	 lea	 eax, DWORD PTR [eax+1]
  001f5	88 0a		 mov	 BYTE PTR [edx], cl
  001f7	8d 52 01	 lea	 edx, DWORD PTR [edx+1]
  001fa	84 c9		 test	 cl, cl
  001fc	75 f2		 jne	 SHORT $LL28@OnInitDial

; 103  : 
; 104  : 	char *szNext = szLanguageTable;
; 105  : 	char *szNextLine = NULL;
; 106  : 	char *szMetaText = NULL;
; 107  : 	char *szNextText = NULL;
; 108  : 	char *szEnglishText = NULL;
; 109  : 	char *szLangaugeText = NULL;
; 110  : 	int nLanguageID = 0;
; 111  : 	CStringList *pLanguageList = NULL;
; 112  : 	int nInsertIndex = 0;
; 113  : 	while( szNext)

  001fe	85 f6		 test	 esi, esi
  00200	0f 84 52 02 00
	00		 je	 $LN5@OnInitDial
  00206	66 66 0f 1f 84
	00 00 00 00 00	 npad	 10
$LL4@OnInitDial:
; File C:\Program Files (x86)\Windows Kits\10\Include\10.0.22000.0\ucrt\string.h

; 520  :         return const_cast<char*>(strstr(static_cast<char const*>(_String), _SubString));

  00210	68 00 00 00 00	 push	 OFFSET ??_C@_02PCIJFNDE@?$AN?6@
  00215	56		 push	 esi
  00216	e8 00 00 00 00	 call	 _strstr
; File D:\git\src\IBK\IBK_DRFN\ProjSrc\SrcChartEx\ChartAddIn\ChartDesignPropertyAddIn\ChartDesignPropertyAddIn\DlgLocalLanguageTable.cpp

; 115  : 		szNextLine = strstr( szNext, "\r\n");

  0021b	8b d8		 mov	 ebx, eax
  0021d	89 45 c0	 mov	 DWORD PTR _szNextLine$1$[ebp], eax
; File C:\Program Files (x86)\Windows Kits\10\Include\10.0.22000.0\ucrt\string.h

; 520  :         return const_cast<char*>(strstr(static_cast<char const*>(_String), _SubString));

  00220	83 c4 08	 add	 esp, 8
; File D:\git\src\IBK\IBK_DRFN\ProjSrc\SrcChartEx\ChartAddIn\ChartDesignPropertyAddIn\ChartDesignPropertyAddIn\DlgLocalLanguageTable.cpp

; 116  : 		if( szNextLine)

  00223	85 db		 test	 ebx, ebx
  00225	74 10		 je	 SHORT $LN17@OnInitDial

; 117  : 		{
; 118  : 			*szNextLine++ = '\0';

  00227	c6 03 00	 mov	 BYTE PTR [ebx], 0

; 119  : 			szNextLine++;
; 120  : 			if( !*szNextLine) szNextLine = NULL;

  0022a	33 c0		 xor	 eax, eax
  0022c	83 c3 02	 add	 ebx, 2
  0022f	38 03		 cmp	 BYTE PTR [ebx], al
  00231	0f 44 d8	 cmove	 ebx, eax
  00234	89 5d c0	 mov	 DWORD PTR _szNextLine$1$[ebp], ebx
$LN17@OnInitDial:
; File C:\Program Files (x86)\Windows Kits\10\Include\10.0.22000.0\ucrt\string.h

; 502  :         return const_cast<char*>(strchr(static_cast<char const*>(_String), _Ch));

  00237	6a 3b		 push	 59			; 0000003bH
  00239	56		 push	 esi
  0023a	e8 00 00 00 00	 call	 _strchr
; File D:\git\src\IBK\IBK_DRFN\ProjSrc\SrcChartEx\ChartAddIn\ChartDesignPropertyAddIn\ChartDesignPropertyAddIn\DlgLocalLanguageTable.cpp

; 124  : 		szMetaText = strchr( szNext, ';');

  0023f	8b f0		 mov	 esi, eax
; File C:\Program Files (x86)\Windows Kits\10\Include\10.0.22000.0\ucrt\string.h

; 502  :         return const_cast<char*>(strchr(static_cast<char const*>(_String), _Ch));

  00241	83 c4 08	 add	 esp, 8
; File D:\git\src\IBK\IBK_DRFN\ProjSrc\SrcChartEx\ChartAddIn\ChartDesignPropertyAddIn\ChartDesignPropertyAddIn\DlgLocalLanguageTable.cpp

; 125  : 		if( szMetaText)

  00244	85 f6		 test	 esi, esi
  00246	0f 84 02 02 00
	00		 je	 $LN21@OnInitDial

; 126  : 		{
; 127  : 			*szMetaText++ = '\0';

  0024c	c6 06 00	 mov	 BYTE PTR [esi], 0
  0024f	46		 inc	 esi
  00250	89 75 98	 mov	 DWORD PTR _szMetaText$1$[ebp], esi

; 128  : 
; 129  : 			if( '$' == *szMetaText)

  00253	80 3e 24	 cmp	 BYTE PTR [esi], 36	; 00000024H
  00256	0f 85 cf 00 00
	00		 jne	 $LN19@OnInitDial

; 132  : 				m_lstStaticMetaData.AddTail( CString( ';') + szMetaText + "\r\n");

  0025c	6a 01		 push	 1
  0025e	6a 3b		 push	 59			; 0000003bH
  00260	8d 4d b4	 lea	 ecx, DWORD PTR $T3[ebp]
  00263	ff 15 00 00 00
	00		 call	 DWORD PTR __imp_??0?$CStringT@DV?$StrTraitMFC_DLL@DV?$ChTraitsCRT@D@ATL@@@@@ATL@@QAE@DH@Z
  00269	89 45 d0	 mov	 DWORD PTR $T5[ebp], eax
; File C:\Program Files (x86)\Microsoft Visual Studio\2019\Community\VC\Tools\MSVC\14.29.30133\atlmfc\include\cstringt.h

; 2401 : 		CStringT strResult( str1.GetManager() );

  0026c	8b c8		 mov	 ecx, eax
; File D:\git\src\IBK\IBK_DRFN\ProjSrc\SrcChartEx\ChartAddIn\ChartDesignPropertyAddIn\ChartDesignPropertyAddIn\DlgLocalLanguageTable.cpp

; 132  : 				m_lstStaticMetaData.AddTail( CString( ';') + szMetaText + "\r\n");

  0026e	c6 45 fc 03	 mov	 BYTE PTR __$EHRec$[ebp+8], 3
; File C:\Program Files (x86)\Microsoft Visual Studio\2019\Community\VC\Tools\MSVC\14.29.30133\atlmfc\include\cstringt.h

; 2401 : 		CStringT strResult( str1.GetManager() );

  00272	ff 15 00 00 00
	00		 call	 DWORD PTR __imp_?GetManager@?$CStringT@DV?$StrTraitMFC_DLL@DV?$ChTraitsCRT@D@ATL@@@@@ATL@@QBEPAUIAtlStringMgr@2@XZ
  00278	50		 push	 eax
  00279	8d 4d d8	 lea	 ecx, DWORD PTR $T7[ebp]
  0027c	ff 15 00 00 00
	00		 call	 DWORD PTR __imp_??0?$CStringT@DV?$StrTraitMFC_DLL@DV?$ChTraitsCRT@D@ATL@@@@@ATL@@QAE@PAUIAtlStringMgr@1@@Z

; 2405 : 		return( strResult );

  00282	8b 45 d4	 mov	 eax, DWORD PTR $T6[ebp]
; File C:\Program Files (x86)\Microsoft Visual Studio\2019\Community\VC\Tools\MSVC\14.29.30133\atlmfc\include\atlsimpstr.h

; 726  : 		return( int( strlen( psz ) ) );

  00285	8b ce		 mov	 ecx, esi
; File C:\Program Files (x86)\Microsoft Visual Studio\2019\Community\VC\Tools\MSVC\14.29.30133\atlmfc\include\cstringt.h

; 2405 : 		return( strResult );

  00287	83 c8 01	 or	 eax, 1
  0028a	89 45 d4	 mov	 DWORD PTR $T6[ebp], eax
  0028d	89 45 dc	 mov	 DWORD PTR $T9[ebp], eax
; File C:\Program Files (x86)\Microsoft Visual Studio\2019\Community\VC\Tools\MSVC\14.29.30133\atlmfc\include\atlsimpstr.h

; 726  : 		return( int( strlen( psz ) ) );

  00290	8d 51 01	 lea	 edx, DWORD PTR [ecx+1]
$LL176@OnInitDial:
  00293	8a 01		 mov	 al, BYTE PTR [ecx]
  00295	41		 inc	 ecx
  00296	84 c0		 test	 al, al
  00298	75 f9		 jne	 SHORT $LL176@OnInitDial

; 519  : 		return( GetData()->nDataLength );

  0029a	8b 45 d0	 mov	 eax, DWORD PTR $T5[ebp]

; 726  : 		return( int( strlen( psz ) ) );

  0029d	2b ca		 sub	 ecx, edx
; File C:\Program Files (x86)\Microsoft Visual Studio\2019\Community\VC\Tools\MSVC\14.29.30133\atlmfc\include\cstringt.h

; 2403 : 		CThisSimpleString::Concatenate( strResult, str1, str1.GetLength(), psz2, CThisSimpleString::StringLength( psz2 ) );

  0029f	51		 push	 ecx
  002a0	56		 push	 esi
; File C:\Program Files (x86)\Microsoft Visual Studio\2019\Community\VC\Tools\MSVC\14.29.30133\atlmfc\include\atlsimpstr.h

; 519  : 		return( GetData()->nDataLength );

  002a1	8b 00		 mov	 eax, DWORD PTR [eax]
; File C:\Program Files (x86)\Microsoft Visual Studio\2019\Community\VC\Tools\MSVC\14.29.30133\atlmfc\include\cstringt.h

; 2403 : 		CThisSimpleString::Concatenate( strResult, str1, str1.GetLength(), psz2, CThisSimpleString::StringLength( psz2 ) );

  002a3	ff 70 f4	 push	 DWORD PTR [eax-12]
  002a6	50		 push	 eax
  002a7	8d 45 d8	 lea	 eax, DWORD PTR $T7[ebp]
  002aa	50		 push	 eax
  002ab	ff 15 00 00 00
	00		 call	 DWORD PTR __imp_?Concatenate@?$CSimpleStringT@D$00@ATL@@KAXAAV12@PBDH1H@Z
  002b1	83 c4 14	 add	 esp, 20			; 00000014H

; 2401 : 		CStringT strResult( str1.GetManager() );

  002b4	8d 4d d8	 lea	 ecx, DWORD PTR $T7[ebp]
; File D:\git\src\IBK\IBK_DRFN\ProjSrc\SrcChartEx\ChartAddIn\ChartDesignPropertyAddIn\ChartDesignPropertyAddIn\DlgLocalLanguageTable.cpp

; 132  : 				m_lstStaticMetaData.AddTail( CString( ';') + szMetaText + "\r\n");

  002b7	c6 45 fc 04	 mov	 BYTE PTR __$EHRec$[ebp+8], 4
; File C:\Program Files (x86)\Microsoft Visual Studio\2019\Community\VC\Tools\MSVC\14.29.30133\atlmfc\include\cstringt.h

; 2401 : 		CStringT strResult( str1.GetManager() );

  002bb	ff 15 00 00 00
	00		 call	 DWORD PTR __imp_?GetManager@?$CStringT@DV?$StrTraitMFC_DLL@DV?$ChTraitsCRT@D@ATL@@@@@ATL@@QBEPAUIAtlStringMgr@2@XZ
  002c1	50		 push	 eax
  002c2	8d 4d cc	 lea	 ecx, DWORD PTR $T4[ebp]
  002c5	ff 15 00 00 00
	00		 call	 DWORD PTR __imp_??0?$CStringT@DV?$StrTraitMFC_DLL@DV?$ChTraitsCRT@D@ATL@@@@@ATL@@QAE@PAUIAtlStringMgr@1@@Z
; File C:\Program Files (x86)\Microsoft Visual Studio\2019\Community\VC\Tools\MSVC\14.29.30133\atlmfc\include\atlsimpstr.h

; 519  : 		return( GetData()->nDataLength );

  002cb	8b 45 d8	 mov	 eax, DWORD PTR $T7[ebp]
; File C:\Program Files (x86)\Microsoft Visual Studio\2019\Community\VC\Tools\MSVC\14.29.30133\atlmfc\include\cstringt.h

; 2405 : 		return( strResult );

  002ce	8b 75 d4	 mov	 esi, DWORD PTR $T6[ebp]
  002d1	6a 02		 push	 2
  002d3	68 00 00 00 00	 push	 OFFSET ??_C@_02PCIJFNDE@?$AN?6@
  002d8	ff 70 f4	 push	 DWORD PTR [eax-12]
  002db	83 ce 02	 or	 esi, 2
  002de	50		 push	 eax
  002df	8d 45 cc	 lea	 eax, DWORD PTR $T4[ebp]
  002e2	89 75 dc	 mov	 DWORD PTR $T9[ebp], esi
  002e5	50		 push	 eax
  002e6	ff 15 00 00 00
	00		 call	 DWORD PTR __imp_?Concatenate@?$CSimpleStringT@D$00@ATL@@KAXAAV12@PBDH1H@Z
  002ec	83 c4 14	 add	 esp, 20			; 00000014H
; File D:\git\src\IBK\IBK_DRFN\ProjSrc\SrcChartEx\ChartAddIn\ChartDesignPropertyAddIn\ChartDesignPropertyAddIn\DlgLocalLanguageTable.cpp

; 132  : 				m_lstStaticMetaData.AddTail( CString( ';') + szMetaText + "\r\n");

  002ef	8d 45 cc	 lea	 eax, DWORD PTR $T4[ebp]
  002f2	8d 8f 48 01 00
	00		 lea	 ecx, DWORD PTR [edi+328]
  002f8	50		 push	 eax
  002f9	e8 00 00 00 00	 call	 ?AddTail@CStringList@@QAEPAU__POSITION@@ABV?$CStringT@DV?$StrTraitMFC_DLL@DV?$ChTraitsCRT@D@ATL@@@@@ATL@@@Z ; CStringList::AddTail
  002fe	8d 4d cc	 lea	 ecx, DWORD PTR $T4[ebp]
  00301	83 e6 fd	 and	 esi, -3			; fffffffdH
  00304	ff 15 00 00 00
	00		 call	 DWORD PTR __imp_??1?$CStringT@DV?$StrTraitMFC_DLL@DV?$ChTraitsCRT@D@ATL@@@@@ATL@@QAE@XZ
  0030a	83 e6 fe	 and	 esi, -2			; fffffffeH
  0030d	8d 4d d8	 lea	 ecx, DWORD PTR $T7[ebp]
  00310	89 75 d4	 mov	 DWORD PTR $T6[ebp], esi
  00313	ff 15 00 00 00
	00		 call	 DWORD PTR __imp_??1?$CStringT@DV?$StrTraitMFC_DLL@DV?$ChTraitsCRT@D@ATL@@@@@ATL@@QAE@XZ
  00319	8d 4d b4	 lea	 ecx, DWORD PTR $T3[ebp]
  0031c	c6 45 fc 01	 mov	 BYTE PTR __$EHRec$[ebp+8], 1
  00320	ff 15 00 00 00
	00		 call	 DWORD PTR __imp_??1?$CStringT@DV?$StrTraitMFC_DLL@DV?$ChTraitsCRT@D@ATL@@@@@ATL@@QAE@XZ

; 133  : 			}

  00326	e9 23 01 00 00	 jmp	 $LN21@OnInitDial
$LN19@OnInitDial:
; File C:\Program Files (x86)\Windows Kits\10\Include\10.0.22000.0\ucrt\string.h

; 502  :         return const_cast<char*>(strchr(static_cast<char const*>(_String), _Ch));

  0032b	6a 3b		 push	 59			; 0000003bH
  0032d	56		 push	 esi
  0032e	e8 00 00 00 00	 call	 _strchr
; File D:\git\src\IBK\IBK_DRFN\ProjSrc\SrcChartEx\ChartAddIn\ChartDesignPropertyAddIn\ChartDesignPropertyAddIn\DlgLocalLanguageTable.cpp

; 137  : 				szNextText = strchr( szMetaText, ';');

  00333	8b f0		 mov	 esi, eax
; File C:\Program Files (x86)\Windows Kits\10\Include\10.0.22000.0\ucrt\string.h

; 502  :         return const_cast<char*>(strchr(static_cast<char const*>(_String), _Ch));

  00335	83 c4 08	 add	 esp, 8
; File D:\git\src\IBK\IBK_DRFN\ProjSrc\SrcChartEx\ChartAddIn\ChartDesignPropertyAddIn\ChartDesignPropertyAddIn\DlgLocalLanguageTable.cpp

; 138  : 				if( szNextText)

  00338	85 f6		 test	 esi, esi
  0033a	0f 84 0e 01 00
	00		 je	 $LN21@OnInitDial

; 139  : 				{
; 140  : 					*szNextText++ = '\0';

  00340	c6 06 00	 mov	 BYTE PTR [esi], 0
  00343	46		 inc	 esi
; File C:\Program Files (x86)\Microsoft Visual Studio\2019\Community\VC\Tools\MSVC\14.29.30133\atlmfc\include\afx.inl

; 116  : 	{ return ::operator new(nSize); }

  00344	6a 1c		 push	 28			; 0000001cH
  00346	e8 00 00 00 00	 call	 ??2@YAPAXI@Z		; operator new
  0034b	83 c4 04	 add	 esp, 4
; File D:\git\src\IBK\IBK_DRFN\ProjSrc\SrcChartEx\ChartAddIn\ChartDesignPropertyAddIn\ChartDesignPropertyAddIn\DlgLocalLanguageTable.cpp

; 143  : 					pLanguageList = new CStringList;

  0034e	89 45 94	 mov	 DWORD PTR $T2[ebp], eax
  00351	c6 45 fc 05	 mov	 BYTE PTR __$EHRec$[ebp+8], 5
  00355	85 c0		 test	 eax, eax
  00357	74 0e		 je	 SHORT $LN29@OnInitDial
  00359	6a 0a		 push	 10			; 0000000aH
  0035b	8b c8		 mov	 ecx, eax
  0035d	e8 00 00 00 00	 call	 ??0CStringList@@QAE@H@Z	; CStringList::CStringList
  00362	89 45 dc	 mov	 DWORD PTR $T8[ebp], eax
  00365	eb 07		 jmp	 SHORT $LN30@OnInitDial
$LN29@OnInitDial:
  00367	c7 45 dc 00 00
	00 00		 mov	 DWORD PTR $T8[ebp], 0
$LN30@OnInitDial:

; 144  : 					nLanguageID = 0;
; 145  : 					szEnglishText = NULL;

  0036e	33 c9		 xor	 ecx, ecx
  00370	c6 45 fc 01	 mov	 BYTE PTR __$EHRec$[ebp+8], 1

; 146  : 					szLangaugeText = NULL;

  00374	33 c0		 xor	 eax, eax
  00376	89 4d c8	 mov	 DWORD PTR _szEnglishText$1$[ebp], ecx
  00379	89 45 d0	 mov	 DWORD PTR _szLangaugeText$1$[ebp], eax

; 147  : 					while( szNextText && nLanguageID < IMetaTable::LANGUAGE_ID_END + 1)		// +1 for Other MetaText

  0037c	85 f6		 test	 esi, esi
  0037e	74 6c		 je	 SHORT $LN161@OnInitDial

; 143  : 					pLanguageList = new CStringList;

  00380	83 cf ff	 or	 edi, -1
$LL6@OnInitDial:

; 147  : 					while( szNextText && nLanguageID < IMetaTable::LANGUAGE_ID_END + 1)		// +1 for Other MetaText

  00383	89 7d a0	 mov	 DWORD PTR tv1105[ebp], edi
  00386	89 7d ac	 mov	 DWORD PTR tv1102[ebp], edi
  00389	47		 inc	 edi
  0038a	89 75 a4	 mov	 DWORD PTR tv1107[ebp], esi
  0038d	89 45 9c	 mov	 DWORD PTR tv1106[ebp], eax
  00390	89 75 b0	 mov	 DWORD PTR tv1104[ebp], esi
  00393	89 4d a8	 mov	 DWORD PTR tv1103[ebp], ecx
  00396	83 ff 03	 cmp	 edi, 3
  00399	7d 4b		 jge	 SHORT $LN182@OnInitDial
; File C:\Program Files (x86)\Windows Kits\10\Include\10.0.22000.0\ucrt\string.h

; 502  :         return const_cast<char*>(strchr(static_cast<char const*>(_String), _Ch));

  0039b	6a 3b		 push	 59			; 0000003bH
  0039d	56		 push	 esi
  0039e	e8 00 00 00 00	 call	 _strchr
; File D:\git\src\IBK\IBK_DRFN\ProjSrc\SrcChartEx\ChartAddIn\ChartDesignPropertyAddIn\ChartDesignPropertyAddIn\DlgLocalLanguageTable.cpp

; 149  : 						szNext = strchr( szNextText, ';');

  003a3	8b d8		 mov	 ebx, eax
; File C:\Program Files (x86)\Windows Kits\10\Include\10.0.22000.0\ucrt\string.h

; 502  :         return const_cast<char*>(strchr(static_cast<char const*>(_String), _Ch));

  003a5	83 c4 08	 add	 esp, 8
; File D:\git\src\IBK\IBK_DRFN\ProjSrc\SrcChartEx\ChartAddIn\ChartDesignPropertyAddIn\ChartDesignPropertyAddIn\DlgLocalLanguageTable.cpp

; 150  : 						if( !szNext) break;

  003a8	85 db		 test	 ebx, ebx
  003aa	74 3a		 je	 SHORT $LN182@OnInitDial

; 151  : 
; 152  : 						*szNext++ = '\0';
; 153  : 						pLanguageList->AddTail( szNextText);

  003ac	8b 4d dc	 mov	 ecx, DWORD PTR $T8[ebp]
  003af	c6 03 00	 mov	 BYTE PTR [ebx], 0
  003b2	43		 inc	 ebx
  003b3	56		 push	 esi
  003b4	e8 00 00 00 00	 call	 ?AddTail@CStringList@@QAEPAU__POSITION@@PBD@Z ; CStringList::AddTail

; 154  : 						if( IMetaTable::ENGLISH == nLanguageID - 1)	szEnglishText = szNextText;		// -1 for Other MetaText
; 155  : 						if( m_eLanguageID == nLanguageID - 1)		szLangaugeText = szNextText;	// -1 for Other MetaText

  003b9	83 7d ac 00	 cmp	 DWORD PTR tv1102[ebp], 0

; 156  : 
; 157  : 						szNextText = szNext;

  003bd	8b f3		 mov	 esi, ebx
  003bf	8b 4d b0	 mov	 ecx, DWORD PTR tv1104[ebp]
  003c2	0f 45 4d a8	 cmovne	 ecx, DWORD PTR tv1103[ebp]
  003c6	8b 55 a0	 mov	 edx, DWORD PTR tv1105[ebp]
  003c9	8b 45 a4	 mov	 eax, DWORD PTR tv1107[ebp]
  003cc	89 4d c8	 mov	 DWORD PTR _szEnglishText$1$[ebp], ecx
  003cf	8b 4d bc	 mov	 ecx, DWORD PTR _this$GSCopy$1$[ebp]
  003d2	39 91 6c 01 00
	00		 cmp	 DWORD PTR [ecx+364], edx
  003d8	8b 4d c8	 mov	 ecx, DWORD PTR _szEnglishText$1$[ebp]
  003db	0f 45 45 9c	 cmovne	 eax, DWORD PTR tv1106[ebp]
  003df	89 45 d0	 mov	 DWORD PTR _szLangaugeText$1$[ebp], eax
  003e2	85 db		 test	 ebx, ebx
  003e4	75 9d		 jne	 SHORT $LL6@OnInitDial
$LN182@OnInitDial:
  003e6	8b 5d c0	 mov	 ebx, DWORD PTR _szNextLine$1$[ebp]
  003e9	8b 7d bc	 mov	 edi, DWORD PTR _this$GSCopy$1$[ebp]
$LN161@OnInitDial:
; File C:\Program Files (x86)\Microsoft Visual Studio\2019\Community\VC\Tools\MSVC\14.29.30133\atlmfc\include\afxcmn.inl

; 165  : 	{ ASSERT(::IsWindow(m_hWnd)); return InsertItem(LVIF_TEXT, nItem, lpszItem, 0, 0, 0, 0); }

  003ec	6a 00		 push	 0
  003ee	6a 00		 push	 0
  003f0	6a 00		 push	 0
  003f2	6a 00		 push	 0
  003f4	ff 75 98	 push	 DWORD PTR _szMetaText$1$[ebp]
  003f7	8d 8f a8 00 00
	00		 lea	 ecx, DWORD PTR [edi+168]
  003fd	6a 00		 push	 0
  003ff	6a 01		 push	 1
  00401	e8 00 00 00 00	 call	 ?InsertItem@CListCtrl@@QAEHIHPBDIIHJ@Z ; CListCtrl::InsertItem
; File D:\git\src\IBK\IBK_DRFN\ProjSrc\SrcChartEx\ChartAddIn\ChartDesignPropertyAddIn\ChartDesignPropertyAddIn\DlgLocalLanguageTable.cpp

; 162  : 					m_lstLanguageTable.SetItemText( nInsertIndex, 1, szEnglishText);

  00406	ff 75 c8	 push	 DWORD PTR _szEnglishText$1$[ebp]
  00409	8b f0		 mov	 esi, eax
  0040b	8d 8f a8 00 00
	00		 lea	 ecx, DWORD PTR [edi+168]
  00411	6a 01		 push	 1
  00413	56		 push	 esi
  00414	e8 00 00 00 00	 call	 ?SetItemText@CListCtrl@@QAEHHHPBD@Z ; CListCtrl::SetItemText

; 163  : 					if( m_eLanguageID != IMetaTable::ENGLISH)

  00419	83 bf 6c 01 00
	00 00		 cmp	 DWORD PTR [edi+364], 0
  00420	74 11		 je	 SHORT $LN25@OnInitDial

; 164  : 						m_lstLanguageTable.SetItemText( nInsertIndex, 2, szLangaugeText);

  00422	ff 75 d0	 push	 DWORD PTR _szLangaugeText$1$[ebp]
  00425	8d 8f a8 00 00
	00		 lea	 ecx, DWORD PTR [edi+168]
  0042b	6a 02		 push	 2
  0042d	56		 push	 esi
  0042e	e8 00 00 00 00	 call	 ?SetItemText@CListCtrl@@QAEHHHPBD@Z ; CListCtrl::SetItemText
$LN25@OnInitDial:
; File C:\Program Files (x86)\Microsoft Visual Studio\2019\Community\VC\Tools\MSVC\14.29.30133\atlmfc\include\afxcmn.inl

; 161  : 	{ ASSERT(::IsWindow(m_hWnd)); return SetItem(nItem, 0, LVIF_PARAM, NULL, 0, 0, 0, (LPARAM)dwData); }

  00433	ff 75 dc	 push	 DWORD PTR $T8[ebp]
  00436	8d 8f a8 00 00
	00		 lea	 ecx, DWORD PTR [edi+168]
  0043c	6a 00		 push	 0
  0043e	6a 00		 push	 0
  00440	6a 00		 push	 0
  00442	6a 00		 push	 0
  00444	6a 04		 push	 4
  00446	6a 00		 push	 0
  00448	56		 push	 esi
  00449	e8 00 00 00 00	 call	 ?SetItem@CListCtrl@@QAEHHHIPBDHIIJ@Z ; CListCtrl::SetItem
$LN21@OnInitDial:
; File D:\git\src\IBK\IBK_DRFN\ProjSrc\SrcChartEx\ChartAddIn\ChartDesignPropertyAddIn\ChartDesignPropertyAddIn\DlgLocalLanguageTable.cpp

; 170  : 		szNext = szNextLine;

  0044e	8b f3		 mov	 esi, ebx
  00450	85 db		 test	 ebx, ebx
  00452	0f 85 b8 fd ff
	ff		 jne	 $LL4@OnInitDial
$LN5@OnInitDial:

; 174  : 	CComboBox *pcmbGlobalMetas = ( CComboBox *)GetDlgItem( IDC_CMB_GLOBAL);

  00458	68 e7 07 00 00	 push	 2023			; 000007e7H
  0045d	8b cf		 mov	 ecx, edi
  0045f	e8 00 00 00 00	 call	 ?GetDlgItem@CWnd@@QBEPAV1@H@Z ; CWnd::GetDlgItem
; File D:\git\src\IBK\IBK_DRFN\ProjSrc\SrcChartEx\ChartAddIn\ChartDesignPropertyAddIn\Include_Chart\Dll_Load\IMetaTable.h

; 937  : 	DECLARE_FUNCTION1(	GetMetaTextCount,				int, 0, E_CODEPAGE);

  00464	8b 35 00 00 00
	00		 mov	 esi, DWORD PTR __imp__GetProcAddress@8
; File D:\git\src\IBK\IBK_DRFN\ProjSrc\SrcChartEx\ChartAddIn\ChartDesignPropertyAddIn\ChartDesignPropertyAddIn\DlgLocalLanguageTable.cpp

; 174  : 	CComboBox *pcmbGlobalMetas = ( CComboBox *)GetDlgItem( IDC_CMB_GLOBAL);

  0046a	8b f8		 mov	 edi, eax
; File D:\git\src\IBK\IBK_DRFN\ProjSrc\SrcChartEx\ChartAddIn\ChartDesignPropertyAddIn\Include_Chart\Dll_Load\IMetaTable.h

; 937  : 	DECLARE_FUNCTION1(	GetMetaTextCount,				int, 0, E_CODEPAGE);

  0046c	a1 04 00 00 00	 mov	 eax, DWORD PTR ?g_iMetaTable@@3VIMetaTable@@A+4
  00471	85 c0		 test	 eax, eax
  00473	74 42		 je	 SHORT $LN133@OnInitDial
  00475	bb 80 0d 00 00	 mov	 ebx, 3456		; 00000d80H
  0047a	66 3b 1d 9c 00
	00 00		 cmp	 bx, WORD PTR ?g_iMetaTable@@3VIMetaTable@@A+156
  00481	74 20		 je	 SHORT $LN178@OnInitDial
  00483	68 00 00 00 00	 push	 OFFSET ??_C@_0BB@NBLJOLNL@GetMetaTextCount@
  00488	50		 push	 eax
  00489	c7 05 98 00 00
	00 00 00 00 00	 mov	 DWORD PTR ?g_iMetaTable@@3VIMetaTable@@A+152, 0
  00493	ff d6		 call	 esi
  00495	a3 98 00 00 00	 mov	 DWORD PTR ?g_iMetaTable@@3VIMetaTable@@A+152, eax
  0049a	66 89 1d 9c 00
	00 00		 mov	 WORD PTR ?g_iMetaTable@@3VIMetaTable@@A+156, bx
  004a1	eb 05		 jmp	 SHORT $LN132@OnInitDial
$LN178@OnInitDial:
  004a3	a1 98 00 00 00	 mov	 eax, DWORD PTR ?g_iMetaTable@@3VIMetaTable@@A+152
$LN132@OnInitDial:
  004a8	85 c0		 test	 eax, eax
  004aa	74 0b		 je	 SHORT $LN133@OnInitDial
  004ac	6a 00		 push	 0
  004ae	ff d0		 call	 eax
  004b0	83 c4 04	 add	 esp, 4
  004b3	8b d8		 mov	 ebx, eax
  004b5	eb 02		 jmp	 SHORT $LN130@OnInitDial
$LN133@OnInitDial:
  004b7	33 db		 xor	 ebx, ebx
$LN130@OnInitDial:
; File D:\git\src\IBK\IBK_DRFN\ProjSrc\SrcChartEx\ChartAddIn\ChartDesignPropertyAddIn\ChartDesignPropertyAddIn\DlgLocalLanguageTable.cpp

; 177  : 	char **szMetaTexts = new char *[ nMetaTextCount];

  004b9	33 c9		 xor	 ecx, ecx
  004bb	8b c3		 mov	 eax, ebx
  004bd	ba 04 00 00 00	 mov	 edx, 4
  004c2	f7 e2		 mul	 edx
  004c4	0f 90 c1	 seto	 cl
  004c7	f7 d9		 neg	 ecx
  004c9	0b c8		 or	 ecx, eax
  004cb	51		 push	 ecx
  004cc	e8 00 00 00 00	 call	 ??_U@YAPAXI@Z		; operator new[]
; File D:\git\src\IBK\IBK_DRFN\ProjSrc\SrcChartEx\ChartAddIn\ChartDesignPropertyAddIn\Include_Chart\Dll_Load\IMetaTable.h

; 938  : 	DECLARE_FUNCTION2(	GetAllMetaTexts,				BOOL, FALSE, E_CODEPAGE, char **);

  004d1	8b 0d 04 00 00
	00		 mov	 ecx, DWORD PTR ?g_iMetaTable@@3VIMetaTable@@A+4
; File D:\git\src\IBK\IBK_DRFN\ProjSrc\SrcChartEx\ChartAddIn\ChartDesignPropertyAddIn\ChartDesignPropertyAddIn\DlgLocalLanguageTable.cpp

; 177  : 	char **szMetaTexts = new char *[ nMetaTextCount];

  004d7	83 c4 04	 add	 esp, 4
  004da	89 45 dc	 mov	 DWORD PTR _szMetaTexts$1$[ebp], eax
; File D:\git\src\IBK\IBK_DRFN\ProjSrc\SrcChartEx\ChartAddIn\ChartDesignPropertyAddIn\Include_Chart\Dll_Load\IMetaTable.h

; 938  : 	DECLARE_FUNCTION2(	GetAllMetaTexts,				BOOL, FALSE, E_CODEPAGE, char **);

  004dd	85 c9		 test	 ecx, ecx
  004df	74 4a		 je	 SHORT $LN138@OnInitDial
  004e1	ba 80 0d 00 00	 mov	 edx, 3456		; 00000d80H
  004e6	66 3b 15 a4 00
	00 00		 cmp	 dx, WORD PTR ?g_iMetaTable@@3VIMetaTable@@A+164
  004ed	74 2a		 je	 SHORT $LN179@OnInitDial
  004ef	68 00 00 00 00	 push	 OFFSET ??_C@_0BA@BCPDFAJN@GetAllMetaTexts@
  004f4	51		 push	 ecx
  004f5	c7 05 a0 00 00
	00 00 00 00 00	 mov	 DWORD PTR ?g_iMetaTable@@3VIMetaTable@@A+160, 0
  004ff	ff d6		 call	 esi
  00501	8b c8		 mov	 ecx, eax
  00503	b8 80 0d 00 00	 mov	 eax, 3456		; 00000d80H
  00508	66 a3 a4 00 00
	00		 mov	 WORD PTR ?g_iMetaTable@@3VIMetaTable@@A+164, ax
  0050e	8b 45 dc	 mov	 eax, DWORD PTR _szMetaTexts$1$[ebp]
  00511	89 0d a0 00 00
	00		 mov	 DWORD PTR ?g_iMetaTable@@3VIMetaTable@@A+160, ecx
  00517	eb 06		 jmp	 SHORT $LN137@OnInitDial
$LN179@OnInitDial:
  00519	8b 0d a0 00 00
	00		 mov	 ecx, DWORD PTR ?g_iMetaTable@@3VIMetaTable@@A+160
$LN137@OnInitDial:
  0051f	85 c9		 test	 ecx, ecx
  00521	74 08		 je	 SHORT $LN138@OnInitDial
  00523	50		 push	 eax
  00524	6a 00		 push	 0
  00526	ff d1		 call	 ecx
  00528	83 c4 08	 add	 esp, 8
$LN138@OnInitDial:
; File D:\git\src\IBK\IBK_DRFN\ProjSrc\SrcChartEx\ChartAddIn\ChartDesignPropertyAddIn\ChartDesignPropertyAddIn\DlgLocalLanguageTable.cpp

; 179  : 	for(  j = 0; j < nMetaTextCount; j++) pcmbGlobalMetas->AddString( szMetaTexts[ j]);

  0052b	33 f6		 xor	 esi, esi
  0052d	85 db		 test	 ebx, ebx
  0052f	7e 1b		 jle	 SHORT $LN9@OnInitDial
$LL10@OnInitDial:
; File C:\Program Files (x86)\Microsoft Visual Studio\2019\Community\VC\Tools\MSVC\14.29.30133\atlmfc\include\afxwin2.inl

; 795  : 	{ ASSERT(::IsWindow(m_hWnd)); return (int)::SendMessage(m_hWnd, CB_ADDSTRING, 0, (LPARAM)lpszString); }

  00531	8b 45 dc	 mov	 eax, DWORD PTR _szMetaTexts$1$[ebp]
  00534	ff 34 b0	 push	 DWORD PTR [eax+esi*4]
  00537	6a 00		 push	 0
  00539	68 43 01 00 00	 push	 323			; 00000143H
  0053e	ff 77 20	 push	 DWORD PTR [edi+32]
  00541	ff 15 00 00 00
	00		 call	 DWORD PTR __imp__SendMessageA@16
; File D:\git\src\IBK\IBK_DRFN\ProjSrc\SrcChartEx\ChartAddIn\ChartDesignPropertyAddIn\ChartDesignPropertyAddIn\DlgLocalLanguageTable.cpp

; 179  : 	for(  j = 0; j < nMetaTextCount; j++) pcmbGlobalMetas->AddString( szMetaTexts[ j]);

  00547	46		 inc	 esi
  00548	3b f3		 cmp	 esi, ebx
  0054a	7c e5		 jl	 SHORT $LL10@OnInitDial
$LN9@OnInitDial:

; 180  : 	delete [] szMetaTexts;

  0054c	ff 75 dc	 push	 DWORD PTR _szMetaTexts$1$[ebp]
  0054f	e8 00 00 00 00	 call	 ??_V@YAXPAX@Z		; operator delete[]
; File D:\git\src\IBK\IBK_DRFN\ProjSrc\SrcChartEx\ChartAddIn\ChartDesignPropertyAddIn\Include_Chart\Dll_Load\IMetaTable.h

; 937  : 	DECLARE_FUNCTION1(	GetMetaTextCount,				int, 0, E_CODEPAGE);

  00554	a1 04 00 00 00	 mov	 eax, DWORD PTR ?g_iMetaTable@@3VIMetaTable@@A+4
; File D:\git\src\IBK\IBK_DRFN\ProjSrc\SrcChartEx\ChartAddIn\ChartDesignPropertyAddIn\ChartDesignPropertyAddIn\DlgLocalLanguageTable.cpp

; 180  : 	delete [] szMetaTexts;

  00559	83 c4 04	 add	 esp, 4
; File D:\git\src\IBK\IBK_DRFN\ProjSrc\SrcChartEx\ChartAddIn\ChartDesignPropertyAddIn\Include_Chart\Dll_Load\IMetaTable.h

; 937  : 	DECLARE_FUNCTION1(	GetMetaTextCount,				int, 0, E_CODEPAGE);

  0055c	be 80 0d 00 00	 mov	 esi, 3456		; 00000d80H
  00561	85 c0		 test	 eax, eax
  00563	74 41		 je	 SHORT $LN145@OnInitDial
  00565	66 3b 35 9c 00
	00 00		 cmp	 si, WORD PTR ?g_iMetaTable@@3VIMetaTable@@A+156
  0056c	74 24		 je	 SHORT $LN180@OnInitDial
  0056e	68 00 00 00 00	 push	 OFFSET ??_C@_0BB@NBLJOLNL@GetMetaTextCount@
  00573	50		 push	 eax
  00574	c7 05 98 00 00
	00 00 00 00 00	 mov	 DWORD PTR ?g_iMetaTable@@3VIMetaTable@@A+152, 0
  0057e	ff 15 00 00 00
	00		 call	 DWORD PTR __imp__GetProcAddress@8
  00584	a3 98 00 00 00	 mov	 DWORD PTR ?g_iMetaTable@@3VIMetaTable@@A+152, eax
  00589	66 89 35 9c 00
	00 00		 mov	 WORD PTR ?g_iMetaTable@@3VIMetaTable@@A+156, si
  00590	eb 05		 jmp	 SHORT $LN144@OnInitDial
$LN180@OnInitDial:
  00592	a1 98 00 00 00	 mov	 eax, DWORD PTR ?g_iMetaTable@@3VIMetaTable@@A+152
$LN144@OnInitDial:
  00597	85 c0		 test	 eax, eax
  00599	74 0b		 je	 SHORT $LN145@OnInitDial
  0059b	6a 01		 push	 1
  0059d	ff d0		 call	 eax
  0059f	83 c4 04	 add	 esp, 4
  005a2	8b d8		 mov	 ebx, eax
  005a4	eb 02		 jmp	 SHORT $LN142@OnInitDial
$LN145@OnInitDial:
  005a6	33 db		 xor	 ebx, ebx
$LN142@OnInitDial:
; File D:\git\src\IBK\IBK_DRFN\ProjSrc\SrcChartEx\ChartAddIn\ChartDesignPropertyAddIn\ChartDesignPropertyAddIn\DlgLocalLanguageTable.cpp

; 182  : 	szMetaTexts = new char *[ nMetaTextCount];

  005a8	33 c9		 xor	 ecx, ecx
  005aa	8b c3		 mov	 eax, ebx
  005ac	ba 04 00 00 00	 mov	 edx, 4
  005b1	f7 e2		 mul	 edx
  005b3	0f 90 c1	 seto	 cl
  005b6	f7 d9		 neg	 ecx
  005b8	0b c8		 or	 ecx, eax
  005ba	51		 push	 ecx
  005bb	e8 00 00 00 00	 call	 ??_U@YAPAXI@Z		; operator new[]
; File D:\git\src\IBK\IBK_DRFN\ProjSrc\SrcChartEx\ChartAddIn\ChartDesignPropertyAddIn\Include_Chart\Dll_Load\IMetaTable.h

; 938  : 	DECLARE_FUNCTION2(	GetAllMetaTexts,				BOOL, FALSE, E_CODEPAGE, char **);

  005c0	8b 0d 04 00 00
	00		 mov	 ecx, DWORD PTR ?g_iMetaTable@@3VIMetaTable@@A+4
; File D:\git\src\IBK\IBK_DRFN\ProjSrc\SrcChartEx\ChartAddIn\ChartDesignPropertyAddIn\ChartDesignPropertyAddIn\DlgLocalLanguageTable.cpp

; 182  : 	szMetaTexts = new char *[ nMetaTextCount];

  005c6	83 c4 04	 add	 esp, 4
  005c9	89 45 d8	 mov	 DWORD PTR _szMetaTexts$2$[ebp], eax
; File D:\git\src\IBK\IBK_DRFN\ProjSrc\SrcChartEx\ChartAddIn\ChartDesignPropertyAddIn\Include_Chart\Dll_Load\IMetaTable.h

; 938  : 	DECLARE_FUNCTION2(	GetAllMetaTexts,				BOOL, FALSE, E_CODEPAGE, char **);

  005cc	85 c9		 test	 ecx, ecx
  005ce	74 45		 je	 SHORT $LN150@OnInitDial
  005d0	66 3b 35 a4 00
	00 00		 cmp	 si, WORD PTR ?g_iMetaTable@@3VIMetaTable@@A+164
  005d7	74 2a		 je	 SHORT $LN181@OnInitDial
  005d9	68 00 00 00 00	 push	 OFFSET ??_C@_0BA@BCPDFAJN@GetAllMetaTexts@
  005de	51		 push	 ecx
  005df	c7 05 a0 00 00
	00 00 00 00 00	 mov	 DWORD PTR ?g_iMetaTable@@3VIMetaTable@@A+160, 0
  005e9	ff 15 00 00 00
	00		 call	 DWORD PTR __imp__GetProcAddress@8
  005ef	8b c8		 mov	 ecx, eax
  005f1	66 89 35 a4 00
	00 00		 mov	 WORD PTR ?g_iMetaTable@@3VIMetaTable@@A+164, si
  005f8	8b 45 d8	 mov	 eax, DWORD PTR _szMetaTexts$2$[ebp]
  005fb	89 0d a0 00 00
	00		 mov	 DWORD PTR ?g_iMetaTable@@3VIMetaTable@@A+160, ecx
  00601	eb 06		 jmp	 SHORT $LN149@OnInitDial
$LN181@OnInitDial:
  00603	8b 0d a0 00 00
	00		 mov	 ecx, DWORD PTR ?g_iMetaTable@@3VIMetaTable@@A+160
$LN149@OnInitDial:
  00609	85 c9		 test	 ecx, ecx
  0060b	74 08		 je	 SHORT $LN150@OnInitDial
  0060d	50		 push	 eax
  0060e	6a 01		 push	 1
  00610	ff d1		 call	 ecx
  00612	83 c4 08	 add	 esp, 8
$LN150@OnInitDial:
; File D:\git\src\IBK\IBK_DRFN\ProjSrc\SrcChartEx\ChartAddIn\ChartDesignPropertyAddIn\ChartDesignPropertyAddIn\DlgLocalLanguageTable.cpp

; 184  : 	for( j = 0; j < nMetaTextCount; j++)

  00615	33 f6		 xor	 esi, esi
  00617	85 db		 test	 ebx, ebx
  00619	7e 3b		 jle	 SHORT $LN12@OnInitDial
  0061b	0f 1f 44 00 00	 npad	 5
$LL13@OnInitDial:
; File C:\Program Files (x86)\Microsoft Visual Studio\2019\Community\VC\Tools\MSVC\14.29.30133\atlmfc\include\afxwin2.inl

; 805  : 	{ ASSERT(::IsWindow(m_hWnd)); return (int)::SendMessage(m_hWnd, CB_FINDSTRING, nStartAfter,

  00620	8b 45 d8	 mov	 eax, DWORD PTR _szMetaTexts$2$[ebp]
  00623	ff 34 b0	 push	 DWORD PTR [eax+esi*4]
  00626	6a 00		 push	 0
  00628	68 4c 01 00 00	 push	 332			; 0000014cH
  0062d	ff 77 20	 push	 DWORD PTR [edi+32]
  00630	ff 15 00 00 00
	00		 call	 DWORD PTR __imp__SendMessageA@16
; File D:\git\src\IBK\IBK_DRFN\ProjSrc\SrcChartEx\ChartAddIn\ChartDesignPropertyAddIn\ChartDesignPropertyAddIn\DlgLocalLanguageTable.cpp

; 185  : 		if( pcmbGlobalMetas->FindString( 0, szMetaTexts[ j]) == CB_ERR)

  00636	83 f8 ff	 cmp	 eax, -1
  00639	75 16		 jne	 SHORT $LN11@OnInitDial
; File C:\Program Files (x86)\Microsoft Visual Studio\2019\Community\VC\Tools\MSVC\14.29.30133\atlmfc\include\afxwin2.inl

; 795  : 	{ ASSERT(::IsWindow(m_hWnd)); return (int)::SendMessage(m_hWnd, CB_ADDSTRING, 0, (LPARAM)lpszString); }

  0063b	8b 45 d8	 mov	 eax, DWORD PTR _szMetaTexts$2$[ebp]
  0063e	ff 34 b0	 push	 DWORD PTR [eax+esi*4]
  00641	6a 00		 push	 0
  00643	68 43 01 00 00	 push	 323			; 00000143H
  00648	ff 77 20	 push	 DWORD PTR [edi+32]
  0064b	ff 15 00 00 00
	00		 call	 DWORD PTR __imp__SendMessageA@16
$LN11@OnInitDial:
; File D:\git\src\IBK\IBK_DRFN\ProjSrc\SrcChartEx\ChartAddIn\ChartDesignPropertyAddIn\ChartDesignPropertyAddIn\DlgLocalLanguageTable.cpp

; 184  : 	for( j = 0; j < nMetaTextCount; j++)

  00651	46		 inc	 esi
  00652	3b f3		 cmp	 esi, ebx
  00654	7c ca		 jl	 SHORT $LL13@OnInitDial
$LN12@OnInitDial:

; 186  : 			pcmbGlobalMetas->AddString( szMetaTexts[ j]);
; 187  : 	delete [] szMetaTexts;

  00656	ff 75 d8	 push	 DWORD PTR _szMetaTexts$2$[ebp]
  00659	e8 00 00 00 00	 call	 ??_V@YAXPAX@Z		; operator delete[]
  0065e	83 c4 04	 add	 esp, 4

; 188  : 
; 189  : 	return TRUE;  // return TRUE unless you set the focus to a control

  00661	8d 4d b8	 lea	 ecx, DWORD PTR _strLanguageTable$[ebp]
  00664	ff 15 00 00 00
	00		 call	 DWORD PTR __imp_??1?$CStringT@DV?$StrTraitMFC_DLL@DV?$ChTraitsCRT@D@ATL@@@@@ATL@@QAE@XZ
  0066a	8d 4d c4	 lea	 ecx, DWORD PTR _strHeader$[ebp]
  0066d	ff 15 00 00 00
	00		 call	 DWORD PTR __imp_??1?$CStringT@DV?$StrTraitMFC_DLL@DV?$ChTraitsCRT@D@ATL@@@@@ATL@@QAE@XZ
  00673	b8 01 00 00 00	 mov	 eax, 1

; 191  : }

  00678	8b 4d f4	 mov	 ecx, DWORD PTR __$EHRec$[ebp]
  0067b	64 89 0d 00 00
	00 00		 mov	 DWORD PTR fs:0, ecx
  00682	59		 pop	 ecx
  00683	5f		 pop	 edi
  00684	5e		 pop	 esi
  00685	5b		 pop	 ebx
  00686	8b 4d f0	 mov	 ecx, DWORD PTR __$ArrayPad$[ebp]
  00689	33 cd		 xor	 ecx, ebp
  0068b	e8 00 00 00 00	 call	 @__security_check_cookie@4
  00690	8b e5		 mov	 esp, ebp
  00692	5d		 pop	 ebp
  00693	c3		 ret	 0
$LN188@OnInitDial:
; File C:\Program Files (x86)\Microsoft Visual Studio\2019\Community\VC\Tools\MSVC\14.29.30133\atlmfc\include\afxcoll.inl

; 43   : 			AfxThrowInvalidArgException();

  00694	e8 00 00 00 00	 call	 ?AfxThrowInvalidArgException@@YGXXZ ; AfxThrowInvalidArgException
$LN186@OnInitDial:
  00699	cc		 int	 3
_TEXT	ENDS
;	COMDAT text$x
text$x	SEGMENT
__unwindfunclet$?OnInitDialog@CDlgLocalLanguageTable@@MAEHXZ$0:
  00000	8d 4d c4	 lea	 ecx, DWORD PTR _strHeader$[ebp]
  00003	ff 25 00 00 00
	00		 jmp	 DWORD PTR __imp_??1?$CStringT@DV?$StrTraitMFC_DLL@DV?$ChTraitsCRT@D@ATL@@@@@ATL@@QAE@XZ
__unwindfunclet$?OnInitDialog@CDlgLocalLanguageTable@@MAEHXZ$1:
  00009	8d 4d b8	 lea	 ecx, DWORD PTR _strLanguageTable$[ebp]
  0000c	ff 25 00 00 00
	00		 jmp	 DWORD PTR __imp_??1?$CStringT@DV?$StrTraitMFC_DLL@DV?$ChTraitsCRT@D@ATL@@@@@ATL@@QAE@XZ
__unwindfunclet$?OnInitDialog@CDlgLocalLanguageTable@@MAEHXZ$2:
  00012	8d 4d b4	 lea	 ecx, DWORD PTR $T3[ebp]
  00015	ff 25 00 00 00
	00		 jmp	 DWORD PTR __imp_??1?$CStringT@DV?$StrTraitMFC_DLL@DV?$ChTraitsCRT@D@ATL@@@@@ATL@@QAE@XZ
__unwindfunclet$?OnInitDialog@CDlgLocalLanguageTable@@MAEHXZ$6:
  0001b	8b 45 dc	 mov	 eax, DWORD PTR $T9[ebp]
  0001e	83 e0 01	 and	 eax, 1
  00021	0f 84 0d 00 00
	00		 je	 $LN97@OnInitDial
  00027	83 65 dc fe	 and	 DWORD PTR $T9[ebp], -2	; fffffffeH
  0002b	8d 4d d8	 lea	 ecx, DWORD PTR $T7[ebp]
  0002e	ff 25 00 00 00
	00		 jmp	 DWORD PTR __imp_??1?$CStringT@DV?$StrTraitMFC_DLL@DV?$ChTraitsCRT@D@ATL@@@@@ATL@@QAE@XZ
$LN97@OnInitDial:
  00034	c3		 ret	 0
__unwindfunclet$?OnInitDialog@CDlgLocalLanguageTable@@MAEHXZ$7:
  00035	8b 45 dc	 mov	 eax, DWORD PTR $T9[ebp]
  00038	83 e0 02	 and	 eax, 2
  0003b	0f 84 0d 00 00
	00		 je	 $LN110@OnInitDial
  00041	83 65 dc fd	 and	 DWORD PTR $T9[ebp], -3	; fffffffdH
  00045	8d 4d cc	 lea	 ecx, DWORD PTR $T4[ebp]
  00048	ff 25 00 00 00
	00		 jmp	 DWORD PTR __imp_??1?$CStringT@DV?$StrTraitMFC_DLL@DV?$ChTraitsCRT@D@ATL@@@@@ATL@@QAE@XZ
$LN110@OnInitDial:
  0004e	c3		 ret	 0
__unwindfunclet$?OnInitDialog@CDlgLocalLanguageTable@@MAEHXZ$5:
  0004f	8b 45 94	 mov	 eax, DWORD PTR $T2[ebp]
  00052	50		 push	 eax
  00053	e8 00 00 00 00	 call	 ??3CObject@@SGXPAX@Z	; CObject::operator delete
  00058	c3		 ret	 0
  00059	cc		 int	 3
  0005a	cc		 int	 3
  0005b	cc		 int	 3
  0005c	cc		 int	 3
  0005d	cc		 int	 3
__ehhandler$?OnInitDialog@CDlgLocalLanguageTable@@MAEHXZ:
  0005e	90		 npad	 1
  0005f	90		 npad	 1
  00060	8b 54 24 08	 mov	 edx, DWORD PTR [esp+8]
  00064	8d 42 0c	 lea	 eax, DWORD PTR [edx+12]
  00067	8b 4a 90	 mov	 ecx, DWORD PTR [edx-112]
  0006a	33 c8		 xor	 ecx, eax
  0006c	e8 00 00 00 00	 call	 @__security_check_cookie@4
  00071	8b 4a fc	 mov	 ecx, DWORD PTR [edx-4]
  00074	33 c8		 xor	 ecx, eax
  00076	e8 00 00 00 00	 call	 @__security_check_cookie@4
  0007b	b8 00 00 00 00	 mov	 eax, OFFSET __ehfuncinfo$?OnInitDialog@CDlgLocalLanguageTable@@MAEHXZ
  00080	e9 00 00 00 00	 jmp	 ___CxxFrameHandler3
text$x	ENDS
?OnInitDialog@CDlgLocalLanguageTable@@MAEHXZ ENDP	; CDlgLocalLanguageTable::OnInitDialog
; Function compile flags: /Ogtp
; File D:\git\src\IBK\IBK_DRFN\ProjSrc\SrcChartEx\ChartAddIn\ChartDesignPropertyAddIn\ChartDesignPropertyAddIn\DlgLocalLanguageTable.cpp
; File C:\Program Files (x86)\Microsoft Visual Studio\2019\Community\VC\Tools\MSVC\14.29.30133\atlmfc\include\atlsimpstr.h
; File C:\Program Files (x86)\Microsoft Visual Studio\2019\Community\VC\Tools\MSVC\14.29.30133\atlmfc\include\afxcoll.inl
; File D:\git\src\IBK\IBK_DRFN\ProjSrc\SrcChartEx\ChartAddIn\ChartDesignPropertyAddIn\ChartDesignPropertyAddIn\DlgLocalLanguageTable.cpp
; File C:\Program Files (x86)\Microsoft Visual Studio\2019\Community\VC\Tools\MSVC\14.29.30133\atlmfc\include\afxcmn.inl
; File D:\git\src\IBK\IBK_DRFN\ProjSrc\SrcChartEx\ChartAddIn\ChartDesignPropertyAddIn\ChartDesignPropertyAddIn\DlgLocalLanguageTable.cpp
; File C:\Program Files (x86)\Microsoft Visual Studio\2019\Community\VC\Tools\MSVC\14.29.30133\atlmfc\include\afxcoll.inl
; File D:\git\src\IBK\IBK_DRFN\ProjSrc\SrcChartEx\ChartAddIn\ChartDesignPropertyAddIn\ChartDesignPropertyAddIn\DlgLocalLanguageTable.cpp
; File C:\Program Files (x86)\Microsoft Visual Studio\2019\Community\VC\Tools\MSVC\14.29.30133\atlmfc\include\afxcoll.inl
; File D:\git\src\IBK\IBK_DRFN\ProjSrc\SrcChartEx\ChartAddIn\ChartDesignPropertyAddIn\ChartDesignPropertyAddIn\DlgLocalLanguageTable.cpp
; File C:\Program Files (x86)\Microsoft Visual Studio\2019\Community\VC\Tools\MSVC\14.29.30133\atlmfc\include\atlsimpstr.h
; File D:\git\src\IBK\IBK_DRFN\ProjSrc\SrcChartEx\ChartAddIn\ChartDesignPropertyAddIn\ChartDesignPropertyAddIn\DlgLocalLanguageTable.cpp
; File C:\Program Files (x86)\Microsoft Visual Studio\2019\Community\VC\Tools\MSVC\14.29.30133\atlmfc\include\atlsimpstr.h
; File D:\git\src\IBK\IBK_DRFN\ProjSrc\SrcChartEx\ChartAddIn\ChartDesignPropertyAddIn\ChartDesignPropertyAddIn\DlgLocalLanguageTable.cpp
; File C:\Program Files (x86)\Microsoft Visual Studio\2019\Community\VC\Tools\MSVC\14.29.30133\atlmfc\include\afxcoll.inl
; File D:\git\src\IBK\IBK_DRFN\ProjSrc\SrcChartEx\ChartAddIn\ChartDesignPropertyAddIn\ChartDesignPropertyAddIn\DlgLocalLanguageTable.cpp
; File C:\Program Files (x86)\Microsoft Visual Studio\2019\Community\VC\Tools\MSVC\14.29.30133\atlmfc\include\atlsimpstr.h
; File D:\git\src\IBK\IBK_DRFN\ProjSrc\SrcChartEx\ChartAddIn\ChartDesignPropertyAddIn\ChartDesignPropertyAddIn\DlgLocalLanguageTable.cpp
; File C:\Program Files (x86)\Microsoft Visual Studio\2019\Community\VC\Tools\MSVC\14.29.30133\atlmfc\include\atlsimpstr.h
; File D:\git\src\IBK\IBK_DRFN\ProjSrc\SrcChartEx\ChartAddIn\ChartDesignPropertyAddIn\ChartDesignPropertyAddIn\DlgLocalLanguageTable.cpp
; File C:\Program Files (x86)\Microsoft Visual Studio\2019\Community\VC\Tools\MSVC\14.29.30133\atlmfc\include\atlsimpstr.h
; File D:\git\src\IBK\IBK_DRFN\ProjSrc\SrcChartEx\ChartAddIn\ChartDesignPropertyAddIn\ChartDesignPropertyAddIn\DlgLocalLanguageTable.cpp
; File C:\Program Files (x86)\Microsoft Visual Studio\2019\Community\VC\Tools\MSVC\14.29.30133\atlmfc\include\atlsimpstr.h
; File D:\git\src\IBK\IBK_DRFN\ProjSrc\SrcChartEx\ChartAddIn\ChartDesignPropertyAddIn\ChartDesignPropertyAddIn\DlgLocalLanguageTable.cpp
; File C:\Program Files (x86)\Microsoft Visual Studio\2019\Community\VC\Tools\MSVC\14.29.30133\atlmfc\include\afxcoll.inl
; File D:\git\src\IBK\IBK_DRFN\ProjSrc\SrcChartEx\ChartAddIn\ChartDesignPropertyAddIn\ChartDesignPropertyAddIn\DlgLocalLanguageTable.cpp
; File C:\Program Files (x86)\Microsoft Visual Studio\2019\Community\VC\Tools\MSVC\14.29.30133\atlmfc\include\afxcoll.inl
; File D:\git\src\IBK\IBK_DRFN\ProjSrc\SrcChartEx\ChartAddIn\ChartDesignPropertyAddIn\ChartDesignPropertyAddIn\DlgLocalLanguageTable.cpp
; File C:\Program Files (x86)\Microsoft Visual Studio\2019\Community\VC\Tools\MSVC\14.29.30133\atlmfc\include\atlsimpstr.h
; File D:\git\src\IBK\IBK_DRFN\ProjSrc\SrcChartEx\ChartAddIn\ChartDesignPropertyAddIn\ChartDesignPropertyAddIn\DlgLocalLanguageTable.cpp
; File C:\Program Files (x86)\Microsoft Visual Studio\2019\Community\VC\Tools\MSVC\14.29.30133\atlmfc\include\atlsimpstr.h
; File D:\git\src\IBK\IBK_DRFN\ProjSrc\SrcChartEx\ChartAddIn\ChartDesignPropertyAddIn\ChartDesignPropertyAddIn\DlgLocalLanguageTable.cpp
;	COMDAT ?OnOK@CDlgLocalLanguageTable@@MAEXXZ
_TEXT	SEGMENT
_strData$ = -48						; size = 4
$T2 = -44						; size = 4
$T3 = -44						; size = 4
$T4 = -40						; size = 4
$T5 = -40						; size = 4
$T6 = -36						; size = 4
$T7 = -36						; size = 4
tv740 = -32						; size = 4
tv739 = -32						; size = 4
_nItemCount$1$ = -28					; size = 4
_i$2$ = -24						; size = 4
_i$1$ = -24						; size = 4
_this$1$ = -20						; size = 4
_strLanguageText$ = -16					; size = 4
__$EHRec$ = -12						; size = 12
?OnOK@CDlgLocalLanguageTable@@MAEXXZ PROC		; CDlgLocalLanguageTable::OnOK, COMDAT
; _this$ = ecx

; 195  : {

  00000	55		 push	 ebp
  00001	8b ec		 mov	 ebp, esp
  00003	6a ff		 push	 -1
  00005	68 00 00 00 00	 push	 __ehhandler$?OnOK@CDlgLocalLanguageTable@@MAEXXZ
  0000a	64 a1 00 00 00
	00		 mov	 eax, DWORD PTR fs:0
  00010	50		 push	 eax
  00011	83 ec 24	 sub	 esp, 36			; 00000024H
  00014	53		 push	 ebx
  00015	56		 push	 esi
  00016	57		 push	 edi
  00017	a1 00 00 00 00	 mov	 eax, DWORD PTR ___security_cookie
  0001c	33 c5		 xor	 eax, ebp
  0001e	50		 push	 eax
  0001f	8d 45 f4	 lea	 eax, DWORD PTR __$EHRec$[ebp]
  00022	64 a3 00 00 00
	00		 mov	 DWORD PTR fs:0, eax
  00028	8b f9		 mov	 edi, ecx
  0002a	89 7d ec	 mov	 DWORD PTR _this$1$[ebp], edi

; 196  : 	m_strLocalLanguageTable.Empty();

  0002d	8d 8f 44 01 00
	00		 lea	 ecx, DWORD PTR [edi+324]
  00033	ff 15 00 00 00
	00		 call	 DWORD PTR __imp_?Empty@?$CSimpleStringT@D$00@ATL@@QAEXXZ

; 197  : 	
; 198  : 	long lTableTextLen = 0;
; 199  : 	POSITION psnStaticMeta = m_lstStaticMetaData.GetHeadPosition();

  00039	8b 97 4c 01 00
	00		 mov	 edx, DWORD PTR [edi+332]
  0003f	33 db		 xor	 ebx, ebx

; 200  : 	while( psnStaticMeta) lTableTextLen += m_lstStaticMetaData.GetNext( psnStaticMeta).GetLength();	// ;MetaText;LanguageText;\r\n

  00041	85 d2		 test	 edx, edx
  00043	74 0c		 je	 SHORT $LN3@OnOK
$LL2@OnOK:
; File C:\Program Files (x86)\Microsoft Visual Studio\2019\Community\VC\Tools\MSVC\14.29.30133\atlmfc\include\atlsimpstr.h

; 519  : 		return( GetData()->nDataLength );

  00045	8b 42 08	 mov	 eax, DWORD PTR [edx+8]
; File C:\Program Files (x86)\Microsoft Visual Studio\2019\Community\VC\Tools\MSVC\14.29.30133\atlmfc\include\afxcoll.inl

; 505  : 		rPosition = (POSITION) pNode->pNext;

  00048	8b 12		 mov	 edx, DWORD PTR [edx]
; File D:\git\src\IBK\IBK_DRFN\ProjSrc\SrcChartEx\ChartAddIn\ChartDesignPropertyAddIn\ChartDesignPropertyAddIn\DlgLocalLanguageTable.cpp

; 200  : 	while( psnStaticMeta) lTableTextLen += m_lstStaticMetaData.GetNext( psnStaticMeta).GetLength();	// ;MetaText;LanguageText;\r\n

  0004a	03 58 f4	 add	 ebx, DWORD PTR [eax-12]
  0004d	85 d2		 test	 edx, edx
  0004f	75 f4		 jne	 SHORT $LL2@OnOK
$LN3@OnOK:
; File C:\Program Files (x86)\Microsoft Visual Studio\2019\Community\VC\Tools\MSVC\14.29.30133\atlmfc\include\afxcmn.inl

; 155  : 	{ ASSERT(::IsWindow(m_hWnd)); return (int) ::SendMessage(m_hWnd, LVM_GETITEMCOUNT, 0, 0L); }

  00051	6a 00		 push	 0
  00053	6a 00		 push	 0
  00055	68 04 10 00 00	 push	 4100			; 00001004H
  0005a	ff b7 c8 00 00
	00		 push	 DWORD PTR [edi+200]
  00060	ff 15 00 00 00
	00		 call	 DWORD PTR __imp__SendMessageA@16
; File D:\git\src\IBK\IBK_DRFN\ProjSrc\SrcChartEx\ChartAddIn\ChartDesignPropertyAddIn\ChartDesignPropertyAddIn\DlgLocalLanguageTable.cpp

; 205  : 	CString strLanguageText;

  00066	8d 4d f0	 lea	 ecx, DWORD PTR _strLanguageText$[ebp]
  00069	89 45 e4	 mov	 DWORD PTR _nItemCount$1$[ebp], eax
  0006c	ff 15 00 00 00
	00		 call	 DWORD PTR __imp_??0?$CStringT@DV?$StrTraitMFC_DLL@DV?$ChTraitsCRT@D@ATL@@@@@ATL@@QAE@XZ

; 206  : 	int i = 0;
; 207  : 	for(  i = 0; i < nItemCount; i++)

  00072	33 f6		 xor	 esi, esi
  00074	c7 45 fc 00 00
	00 00		 mov	 DWORD PTR __$EHRec$[ebp+8], 0
  0007b	89 75 e8	 mov	 DWORD PTR _i$1$[ebp], esi
  0007e	39 75 e4	 cmp	 DWORD PTR _nItemCount$1$[ebp], esi
  00081	0f 8e f7 00 00
	00		 jle	 $LN5@OnOK
  00087	81 c7 a8 00 00
	00		 add	 edi, 168		; 000000a8H
  0008d	89 7d e0	 mov	 DWORD PTR tv740[ebp], edi
$LL6@OnOK:

; 208  : 	{
; 209  : 		lTableTextLen++;														// ';'
; 210  : 		strLanguageText = m_lstLanguageTable.GetItemText( i, 0);

  00090	6a 00		 push	 0
  00092	56		 push	 esi
  00093	8d 45 dc	 lea	 eax, DWORD PTR $T7[ebp]
  00096	8b cf		 mov	 ecx, edi
  00098	50		 push	 eax
  00099	e8 00 00 00 00	 call	 ?GetItemText@CListCtrl@@QBE?AV?$CStringT@DV?$StrTraitMFC_DLL@DV?$ChTraitsCRT@D@ATL@@@@@ATL@@HH@Z ; CListCtrl::GetItemText
  0009e	50		 push	 eax
  0009f	8d 4d f0	 lea	 ecx, DWORD PTR _strLanguageText$[ebp]
  000a2	c6 45 fc 01	 mov	 BYTE PTR __$EHRec$[ebp+8], 1
  000a6	ff 15 00 00 00
	00		 call	 DWORD PTR __imp_??4?$CStringT@DV?$StrTraitMFC_DLL@DV?$ChTraitsCRT@D@ATL@@@@@ATL@@QAEAAV01@ABV01@@Z
  000ac	8d 4d dc	 lea	 ecx, DWORD PTR $T7[ebp]
  000af	c6 45 fc 00	 mov	 BYTE PTR __$EHRec$[ebp+8], 0
  000b3	ff 15 00 00 00
	00		 call	 DWORD PTR __imp_??1?$CStringT@DV?$StrTraitMFC_DLL@DV?$ChTraitsCRT@D@ATL@@@@@ATL@@QAE@XZ

; 211  : 		lTableTextLen += strLanguageText.GetLength();							// MetaText
; 212  : 		lTableTextLen++;														// ';'

  000b9	8b 45 f0	 mov	 eax, DWORD PTR _strLanguageText$[ebp]

; 213  : 
; 214  : 		pLanguageTexts = ( CStringList *)m_lstLanguageTable.GetItemData( i);

  000bc	8b cf		 mov	 ecx, edi
  000be	56		 push	 esi
  000bf	8b 40 f4	 mov	 eax, DWORD PTR [eax-12]
  000c2	83 c0 02	 add	 eax, 2
  000c5	03 d8		 add	 ebx, eax
  000c7	e8 00 00 00 00	 call	 ?GetItemData@CListCtrl@@QBEKH@Z ; CListCtrl::GetItemData

; 216  : 		for( j = IMetaTable::ENGLISH; j < IMetaTable::LANGUAGE_ID_END + 1; j++)		// +1 for Other MetaText

  000cc	33 f6		 xor	 esi, esi
  000ce	8b 78 04	 mov	 edi, DWORD PTR [eax+4]
$LL9@OnOK:

; 217  : 		{
; 218  : 			strLanguageText.Empty();

  000d1	8d 4d f0	 lea	 ecx, DWORD PTR _strLanguageText$[ebp]
  000d4	ff 15 00 00 00
	00		 call	 DWORD PTR __imp_?Empty@?$CSimpleStringT@D$00@ATL@@QAEXXZ

; 219  : 			if( psnLanguageText) strLanguageText = pLanguageTexts->GetNext( psnLanguageText);

  000da	85 ff		 test	 edi, edi
  000dc	74 11		 je	 SHORT $LN18@OnOK
; File C:\Program Files (x86)\Microsoft Visual Studio\2019\Community\VC\Tools\MSVC\14.29.30133\atlmfc\include\afxcoll.inl

; 501  : 	{ CNode* pNode = (CNode*) rPosition;

  000de	8b c7		 mov	 eax, edi
; File D:\git\src\IBK\IBK_DRFN\ProjSrc\SrcChartEx\ChartAddIn\ChartDesignPropertyAddIn\ChartDesignPropertyAddIn\DlgLocalLanguageTable.cpp

; 219  : 			if( psnLanguageText) strLanguageText = pLanguageTexts->GetNext( psnLanguageText);

  000e0	8d 4d f0	 lea	 ecx, DWORD PTR _strLanguageText$[ebp]
; File C:\Program Files (x86)\Microsoft Visual Studio\2019\Community\VC\Tools\MSVC\14.29.30133\atlmfc\include\afxcoll.inl

; 505  : 		rPosition = (POSITION) pNode->pNext;

  000e3	8b 3f		 mov	 edi, DWORD PTR [edi]

; 506  : 		return pNode->data; }

  000e5	83 c0 08	 add	 eax, 8
; File D:\git\src\IBK\IBK_DRFN\ProjSrc\SrcChartEx\ChartAddIn\ChartDesignPropertyAddIn\ChartDesignPropertyAddIn\DlgLocalLanguageTable.cpp

; 219  : 			if( psnLanguageText) strLanguageText = pLanguageTexts->GetNext( psnLanguageText);

  000e8	50		 push	 eax
  000e9	ff 15 00 00 00
	00		 call	 DWORD PTR __imp_??4?$CStringT@DV?$StrTraitMFC_DLL@DV?$ChTraitsCRT@D@ATL@@@@@ATL@@QAEAAV01@ABV01@@Z
$LN18@OnOK:

; 220  : 			if( IMetaTable::ENGLISH == j - 1)

  000ef	8d 46 ff	 lea	 eax, DWORD PTR [esi-1]
  000f2	85 c0		 test	 eax, eax
  000f4	75 24		 jne	 SHORT $LN19@OnOK

; 221  : 				strLanguageText = m_lstLanguageTable.GetItemText( i, 1);		// +1 for Other MetaText

  000f6	8b 4d e0	 mov	 ecx, DWORD PTR tv740[ebp]
  000f9	8d 45 d8	 lea	 eax, DWORD PTR $T5[ebp]
  000fc	6a 01		 push	 1
  000fe	ff 75 e8	 push	 DWORD PTR _i$1$[ebp]
  00101	50		 push	 eax
  00102	e8 00 00 00 00	 call	 ?GetItemText@CListCtrl@@QBE?AV?$CStringT@DV?$StrTraitMFC_DLL@DV?$ChTraitsCRT@D@ATL@@@@@ATL@@HH@Z ; CListCtrl::GetItemText
  00107	50		 push	 eax
  00108	8d 4d f0	 lea	 ecx, DWORD PTR _strLanguageText$[ebp]
  0010b	c6 45 fc 02	 mov	 BYTE PTR __$EHRec$[ebp+8], 2
  0010f	ff 15 00 00 00
	00		 call	 DWORD PTR __imp_??4?$CStringT@DV?$StrTraitMFC_DLL@DV?$ChTraitsCRT@D@ATL@@@@@ATL@@QAEAAV01@ABV01@@Z
  00115	8d 4d d8	 lea	 ecx, DWORD PTR $T5[ebp]
  00118	eb 2e		 jmp	 SHORT $LN128@OnOK
$LN19@OnOK:

; 222  : 			else if( m_eLanguageID != IMetaTable::ENGLISH)

  0011a	8b 45 ec	 mov	 eax, DWORD PTR _this$1$[ebp]
  0011d	83 b8 6c 01 00
	00 00		 cmp	 DWORD PTR [eax+364], 0
  00124	74 2c		 je	 SHORT $LN21@OnOK

; 223  : 				strLanguageText = m_lstLanguageTable.GetItemText( i, 2);		// +1 for Other MetaText

  00126	8b 4d e0	 mov	 ecx, DWORD PTR tv740[ebp]
  00129	8d 45 d4	 lea	 eax, DWORD PTR $T3[ebp]
  0012c	6a 02		 push	 2
  0012e	ff 75 e8	 push	 DWORD PTR _i$1$[ebp]
  00131	50		 push	 eax
  00132	e8 00 00 00 00	 call	 ?GetItemText@CListCtrl@@QBE?AV?$CStringT@DV?$StrTraitMFC_DLL@DV?$ChTraitsCRT@D@ATL@@@@@ATL@@HH@Z ; CListCtrl::GetItemText
  00137	50		 push	 eax
  00138	8d 4d f0	 lea	 ecx, DWORD PTR _strLanguageText$[ebp]
  0013b	c6 45 fc 03	 mov	 BYTE PTR __$EHRec$[ebp+8], 3
  0013f	ff 15 00 00 00
	00		 call	 DWORD PTR __imp_??4?$CStringT@DV?$StrTraitMFC_DLL@DV?$ChTraitsCRT@D@ATL@@@@@ATL@@QAEAAV01@ABV01@@Z
  00145	8d 4d d4	 lea	 ecx, DWORD PTR $T3[ebp]
$LN128@OnOK:
; File C:\Program Files (x86)\Microsoft Visual Studio\2019\Community\VC\Tools\MSVC\14.29.30133\atlmfc\include\atlsimpstr.h

; 519  : 		return( GetData()->nDataLength );

  00148	c6 45 fc 00	 mov	 BYTE PTR __$EHRec$[ebp+8], 0
  0014c	ff 15 00 00 00
	00		 call	 DWORD PTR __imp_??1?$CStringT@DV?$StrTraitMFC_DLL@DV?$ChTraitsCRT@D@ATL@@@@@ATL@@QAE@XZ
$LN21@OnOK:
  00152	8b 45 f0	 mov	 eax, DWORD PTR _strLanguageText$[ebp]
; File D:\git\src\IBK\IBK_DRFN\ProjSrc\SrcChartEx\ChartAddIn\ChartDesignPropertyAddIn\ChartDesignPropertyAddIn\DlgLocalLanguageTable.cpp

; 216  : 		for( j = IMetaTable::ENGLISH; j < IMetaTable::LANGUAGE_ID_END + 1; j++)		// +1 for Other MetaText

  00155	46		 inc	 esi
; File C:\Program Files (x86)\Microsoft Visual Studio\2019\Community\VC\Tools\MSVC\14.29.30133\atlmfc\include\atlsimpstr.h

; 519  : 		return( GetData()->nDataLength );

  00156	8b 40 f4	 mov	 eax, DWORD PTR [eax-12]
; File D:\git\src\IBK\IBK_DRFN\ProjSrc\SrcChartEx\ChartAddIn\ChartDesignPropertyAddIn\ChartDesignPropertyAddIn\DlgLocalLanguageTable.cpp

; 226  : 			lTableTextLen++;													// ';'

  00159	40		 inc	 eax
  0015a	03 d8		 add	 ebx, eax
  0015c	83 fe 03	 cmp	 esi, 3
  0015f	0f 8c 6c ff ff
	ff		 jl	 $LL9@OnOK

; 227  : 		}
; 228  : 		lTableTextLen += 2;														// '\r\n'

  00165	8b 75 e8	 mov	 esi, DWORD PTR _i$1$[ebp]
  00168	83 c3 02	 add	 ebx, 2
  0016b	8b 7d e0	 mov	 edi, DWORD PTR tv740[ebp]
  0016e	46		 inc	 esi
  0016f	89 75 e8	 mov	 DWORD PTR _i$1$[ebp], esi
  00172	3b 75 e4	 cmp	 esi, DWORD PTR _nItemCount$1$[ebp]
  00175	0f 8c 15 ff ff
	ff		 jl	 $LL6@OnOK
  0017b	8b 7d ec	 mov	 edi, DWORD PTR _this$1$[ebp]
$LN5@OnOK:

; 229  : 	}
; 230  : 
; 231  : 	char *szLanguageTableText = m_strLocalLanguageTable.GetBufferSetLength( lTableTextLen);

  0017e	53		 push	 ebx
  0017f	8d 8f 44 01 00
	00		 lea	 ecx, DWORD PTR [edi+324]
  00185	ff 15 00 00 00
	00		 call	 DWORD PTR __imp_?GetBufferSetLength@?$CSimpleStringT@D$00@ATL@@QAEPADH@Z

; 232  : 	psnStaticMeta = m_lstStaticMetaData.GetHeadPosition();

  0018b	8b bf 4c 01 00
	00		 mov	 edi, DWORD PTR [edi+332]
  00191	8b f0		 mov	 esi, eax

; 233  : 	while( psnStaticMeta)

  00193	85 ff		 test	 edi, edi
  00195	74 31		 je	 SHORT $LN11@OnOK
$LL10@OnOK:
; File C:\Program Files (x86)\Microsoft Visual Studio\2019\Community\VC\Tools\MSVC\14.29.30133\atlmfc\include\afxcoll.inl

; 501  : 	{ CNode* pNode = (CNode*) rPosition;

  00197	8b cf		 mov	 ecx, edi

; 505  : 		rPosition = (POSITION) pNode->pNext;

  00199	8b 3f		 mov	 edi, DWORD PTR [edi]

; 506  : 		return pNode->data; }

  0019b	83 c1 08	 add	 ecx, 8
; File D:\git\src\IBK\IBK_DRFN\ProjSrc\SrcChartEx\ChartAddIn\ChartDesignPropertyAddIn\ChartDesignPropertyAddIn\DlgLocalLanguageTable.cpp

; 235  : 		strLanguageText = m_lstStaticMetaData.GetNext( psnStaticMeta);

  0019e	51		 push	 ecx
  0019f	8d 4d f0	 lea	 ecx, DWORD PTR _strLanguageText$[ebp]
  001a2	ff 15 00 00 00
	00		 call	 DWORD PTR __imp_??4?$CStringT@DV?$StrTraitMFC_DLL@DV?$ChTraitsCRT@D@ATL@@@@@ATL@@QAEAAV01@ABV01@@Z
; File C:\Program Files (x86)\Microsoft Visual Studio\2019\Community\VC\Tools\MSVC\14.29.30133\atlmfc\include\atlsimpstr.h

; 377  : 		return( m_pszData );

  001a8	8b 4d f0	 mov	 ecx, DWORD PTR _strLanguageText$[ebp]
; File D:\git\src\IBK\IBK_DRFN\ProjSrc\SrcChartEx\ChartAddIn\ChartDesignPropertyAddIn\ChartDesignPropertyAddIn\DlgLocalLanguageTable.cpp

; 236  : 		strcpy( szLanguageTableText, strLanguageText);							// MetaText;LanguageText;

  001ab	8b d6		 mov	 edx, esi
  001ad	0f 1f 00	 npad	 3
$LL29@OnOK:
  001b0	8a 01		 mov	 al, BYTE PTR [ecx]
  001b2	8d 49 01	 lea	 ecx, DWORD PTR [ecx+1]
  001b5	88 02		 mov	 BYTE PTR [edx], al
  001b7	8d 52 01	 lea	 edx, DWORD PTR [edx+1]
  001ba	84 c0		 test	 al, al
  001bc	75 f2		 jne	 SHORT $LL29@OnOK
; File C:\Program Files (x86)\Microsoft Visual Studio\2019\Community\VC\Tools\MSVC\14.29.30133\atlmfc\include\atlsimpstr.h

; 519  : 		return( GetData()->nDataLength );

  001be	8b 45 f0	 mov	 eax, DWORD PTR _strLanguageText$[ebp]
; File D:\git\src\IBK\IBK_DRFN\ProjSrc\SrcChartEx\ChartAddIn\ChartDesignPropertyAddIn\ChartDesignPropertyAddIn\DlgLocalLanguageTable.cpp

; 237  : 		szLanguageTableText += strLanguageText.GetLength();

  001c1	03 70 f4	 add	 esi, DWORD PTR [eax-12]
  001c4	85 ff		 test	 edi, edi
  001c6	75 cf		 jne	 SHORT $LL10@OnOK
$LN11@OnOK:

; 238  : 	}
; 239  : 	for( i = 0; i < nItemCount; i++)

  001c8	33 db		 xor	 ebx, ebx
  001ca	89 5d e8	 mov	 DWORD PTR _i$2$[ebp], ebx
  001cd	39 5d e4	 cmp	 DWORD PTR _nItemCount$1$[ebp], ebx
  001d0	0f 8e 2d 01 00
	00		 jle	 $LN13@OnOK
  001d6	8b 7d ec	 mov	 edi, DWORD PTR _this$1$[ebp]
  001d9	81 c7 a8 00 00
	00		 add	 edi, 168		; 000000a8H
  001df	89 7d e0	 mov	 DWORD PTR tv739[ebp], edi
$LL14@OnOK:

; 240  : 	{
; 241  : 		*szLanguageTableText++ = ';';											// ';'
; 242  : 		strLanguageText = m_lstLanguageTable.GetItemText( i, 0);

  001e2	6a 00		 push	 0
  001e4	53		 push	 ebx
  001e5	8d 45 d4	 lea	 eax, DWORD PTR $T2[ebp]
  001e8	c6 06 3b	 mov	 BYTE PTR [esi], 59	; 0000003bH
  001eb	50		 push	 eax
  001ec	8b cf		 mov	 ecx, edi
  001ee	46		 inc	 esi
  001ef	e8 00 00 00 00	 call	 ?GetItemText@CListCtrl@@QBE?AV?$CStringT@DV?$StrTraitMFC_DLL@DV?$ChTraitsCRT@D@ATL@@@@@ATL@@HH@Z ; CListCtrl::GetItemText
  001f4	50		 push	 eax
  001f5	8d 4d f0	 lea	 ecx, DWORD PTR _strLanguageText$[ebp]
  001f8	c6 45 fc 04	 mov	 BYTE PTR __$EHRec$[ebp+8], 4
  001fc	ff 15 00 00 00
	00		 call	 DWORD PTR __imp_??4?$CStringT@DV?$StrTraitMFC_DLL@DV?$ChTraitsCRT@D@ATL@@@@@ATL@@QAEAAV01@ABV01@@Z
  00202	8d 4d d4	 lea	 ecx, DWORD PTR $T2[ebp]
  00205	c6 45 fc 00	 mov	 BYTE PTR __$EHRec$[ebp+8], 0
  00209	ff 15 00 00 00
	00		 call	 DWORD PTR __imp_??1?$CStringT@DV?$StrTraitMFC_DLL@DV?$ChTraitsCRT@D@ATL@@@@@ATL@@QAE@XZ
; File C:\Program Files (x86)\Microsoft Visual Studio\2019\Community\VC\Tools\MSVC\14.29.30133\atlmfc\include\atlsimpstr.h

; 377  : 		return( m_pszData );

  0020f	8b 4d f0	 mov	 ecx, DWORD PTR _strLanguageText$[ebp]
; File D:\git\src\IBK\IBK_DRFN\ProjSrc\SrcChartEx\ChartAddIn\ChartDesignPropertyAddIn\ChartDesignPropertyAddIn\DlgLocalLanguageTable.cpp

; 243  : 		strcpy( szLanguageTableText, strLanguageText);							// MetaText

  00212	8b d6		 mov	 edx, esi
$LL30@OnOK:
  00214	8a 01		 mov	 al, BYTE PTR [ecx]
  00216	8d 49 01	 lea	 ecx, DWORD PTR [ecx+1]
  00219	88 02		 mov	 BYTE PTR [edx], al
  0021b	8d 52 01	 lea	 edx, DWORD PTR [edx+1]
  0021e	84 c0		 test	 al, al
  00220	75 f2		 jne	 SHORT $LL30@OnOK
; File C:\Program Files (x86)\Microsoft Visual Studio\2019\Community\VC\Tools\MSVC\14.29.30133\atlmfc\include\atlsimpstr.h

; 519  : 		return( GetData()->nDataLength );

  00222	8b 45 f0	 mov	 eax, DWORD PTR _strLanguageText$[ebp]
; File D:\git\src\IBK\IBK_DRFN\ProjSrc\SrcChartEx\ChartAddIn\ChartDesignPropertyAddIn\ChartDesignPropertyAddIn\DlgLocalLanguageTable.cpp

; 247  : 		pLanguageTexts = ( CStringList *)m_lstLanguageTable.GetItemData( i);

  00225	8b cf		 mov	 ecx, edi
  00227	53		 push	 ebx
  00228	03 70 f4	 add	 esi, DWORD PTR [eax-12]
  0022b	c6 06 3b	 mov	 BYTE PTR [esi], 59	; 0000003bH
  0022e	46		 inc	 esi
  0022f	e8 00 00 00 00	 call	 ?GetItemData@CListCtrl@@QBEKH@Z ; CListCtrl::GetItemData

; 249  : 		for( j = IMetaTable::ENGLISH; j < IMetaTable::LANGUAGE_ID_END + 1; j++)		// +1 for Other MetaText

  00234	33 ff		 xor	 edi, edi
  00236	8b 58 04	 mov	 ebx, DWORD PTR [eax+4]
  00239	0f 1f 80 00 00
	00 00		 npad	 7
$LL17@OnOK:

; 250  : 		{
; 251  : 			strLanguageText.Empty();

  00240	8d 4d f0	 lea	 ecx, DWORD PTR _strLanguageText$[ebp]
  00243	ff 15 00 00 00
	00		 call	 DWORD PTR __imp_?Empty@?$CSimpleStringT@D$00@ATL@@QAEXXZ

; 252  : 			if( psnLanguageText) strLanguageText = pLanguageTexts->GetNext( psnLanguageText);

  00249	85 db		 test	 ebx, ebx
  0024b	74 11		 je	 SHORT $LN22@OnOK
; File C:\Program Files (x86)\Microsoft Visual Studio\2019\Community\VC\Tools\MSVC\14.29.30133\atlmfc\include\afxcoll.inl

; 501  : 	{ CNode* pNode = (CNode*) rPosition;

  0024d	8b c3		 mov	 eax, ebx
; File D:\git\src\IBK\IBK_DRFN\ProjSrc\SrcChartEx\ChartAddIn\ChartDesignPropertyAddIn\ChartDesignPropertyAddIn\DlgLocalLanguageTable.cpp

; 252  : 			if( psnLanguageText) strLanguageText = pLanguageTexts->GetNext( psnLanguageText);

  0024f	8d 4d f0	 lea	 ecx, DWORD PTR _strLanguageText$[ebp]
; File C:\Program Files (x86)\Microsoft Visual Studio\2019\Community\VC\Tools\MSVC\14.29.30133\atlmfc\include\afxcoll.inl

; 505  : 		rPosition = (POSITION) pNode->pNext;

  00252	8b 1b		 mov	 ebx, DWORD PTR [ebx]

; 506  : 		return pNode->data; }

  00254	83 c0 08	 add	 eax, 8
; File D:\git\src\IBK\IBK_DRFN\ProjSrc\SrcChartEx\ChartAddIn\ChartDesignPropertyAddIn\ChartDesignPropertyAddIn\DlgLocalLanguageTable.cpp

; 252  : 			if( psnLanguageText) strLanguageText = pLanguageTexts->GetNext( psnLanguageText);

  00257	50		 push	 eax
  00258	ff 15 00 00 00
	00		 call	 DWORD PTR __imp_??4?$CStringT@DV?$StrTraitMFC_DLL@DV?$ChTraitsCRT@D@ATL@@@@@ATL@@QAEAAV01@ABV01@@Z
$LN22@OnOK:

; 253  : 			if( IMetaTable::ENGLISH == j - 1)

  0025e	8d 47 ff	 lea	 eax, DWORD PTR [edi-1]
  00261	85 c0		 test	 eax, eax
  00263	75 24		 jne	 SHORT $LN23@OnOK

; 254  : 				strLanguageText = m_lstLanguageTable.GetItemText( i, 1);		// +1 for Other MetaText

  00265	8b 4d e0	 mov	 ecx, DWORD PTR tv739[ebp]
  00268	8d 45 d8	 lea	 eax, DWORD PTR $T4[ebp]
  0026b	6a 01		 push	 1
  0026d	ff 75 e8	 push	 DWORD PTR _i$2$[ebp]
  00270	50		 push	 eax
  00271	e8 00 00 00 00	 call	 ?GetItemText@CListCtrl@@QBE?AV?$CStringT@DV?$StrTraitMFC_DLL@DV?$ChTraitsCRT@D@ATL@@@@@ATL@@HH@Z ; CListCtrl::GetItemText
  00276	50		 push	 eax
  00277	8d 4d f0	 lea	 ecx, DWORD PTR _strLanguageText$[ebp]
  0027a	c6 45 fc 05	 mov	 BYTE PTR __$EHRec$[ebp+8], 5
  0027e	ff 15 00 00 00
	00		 call	 DWORD PTR __imp_??4?$CStringT@DV?$StrTraitMFC_DLL@DV?$ChTraitsCRT@D@ATL@@@@@ATL@@QAEAAV01@ABV01@@Z
  00284	8d 4d d8	 lea	 ecx, DWORD PTR $T4[ebp]
  00287	eb 2e		 jmp	 SHORT $LN129@OnOK
$LN23@OnOK:

; 255  : 			else if( m_eLanguageID != IMetaTable::ENGLISH)

  00289	8b 45 ec	 mov	 eax, DWORD PTR _this$1$[ebp]
  0028c	83 b8 6c 01 00
	00 00		 cmp	 DWORD PTR [eax+364], 0
  00293	74 2c		 je	 SHORT $LN25@OnOK

; 256  : 				strLanguageText = m_lstLanguageTable.GetItemText( i, 2);		// +1 for Other MetaText

  00295	8b 4d e0	 mov	 ecx, DWORD PTR tv739[ebp]
  00298	8d 45 dc	 lea	 eax, DWORD PTR $T6[ebp]
  0029b	6a 02		 push	 2
  0029d	ff 75 e8	 push	 DWORD PTR _i$2$[ebp]
  002a0	50		 push	 eax
  002a1	e8 00 00 00 00	 call	 ?GetItemText@CListCtrl@@QBE?AV?$CStringT@DV?$StrTraitMFC_DLL@DV?$ChTraitsCRT@D@ATL@@@@@ATL@@HH@Z ; CListCtrl::GetItemText
  002a6	50		 push	 eax
  002a7	8d 4d f0	 lea	 ecx, DWORD PTR _strLanguageText$[ebp]
  002aa	c6 45 fc 06	 mov	 BYTE PTR __$EHRec$[ebp+8], 6
  002ae	ff 15 00 00 00
	00		 call	 DWORD PTR __imp_??4?$CStringT@DV?$StrTraitMFC_DLL@DV?$ChTraitsCRT@D@ATL@@@@@ATL@@QAEAAV01@ABV01@@Z
  002b4	8d 4d dc	 lea	 ecx, DWORD PTR $T6[ebp]
$LN129@OnOK:
; File C:\Program Files (x86)\Microsoft Visual Studio\2019\Community\VC\Tools\MSVC\14.29.30133\atlmfc\include\atlsimpstr.h

; 377  : 		return( m_pszData );

  002b7	c6 45 fc 00	 mov	 BYTE PTR __$EHRec$[ebp+8], 0
  002bb	ff 15 00 00 00
	00		 call	 DWORD PTR __imp_??1?$CStringT@DV?$StrTraitMFC_DLL@DV?$ChTraitsCRT@D@ATL@@@@@ATL@@QAE@XZ
$LN25@OnOK:
  002c1	8b 55 f0	 mov	 edx, DWORD PTR _strLanguageText$[ebp]
; File D:\git\src\IBK\IBK_DRFN\ProjSrc\SrcChartEx\ChartAddIn\ChartDesignPropertyAddIn\ChartDesignPropertyAddIn\DlgLocalLanguageTable.cpp

; 258  : 			strcpy( szLanguageTableText, strLanguageText);						// LanguageText

  002c4	8b c6		 mov	 eax, esi
$LL31@OnOK:
  002c6	8a 0a		 mov	 cl, BYTE PTR [edx]
  002c8	8d 52 01	 lea	 edx, DWORD PTR [edx+1]
  002cb	88 08		 mov	 BYTE PTR [eax], cl
  002cd	8d 40 01	 lea	 eax, DWORD PTR [eax+1]
  002d0	84 c9		 test	 cl, cl
  002d2	75 f2		 jne	 SHORT $LL31@OnOK
; File C:\Program Files (x86)\Microsoft Visual Studio\2019\Community\VC\Tools\MSVC\14.29.30133\atlmfc\include\atlsimpstr.h

; 519  : 		return( GetData()->nDataLength );

  002d4	8b 45 f0	 mov	 eax, DWORD PTR _strLanguageText$[ebp]
; File D:\git\src\IBK\IBK_DRFN\ProjSrc\SrcChartEx\ChartAddIn\ChartDesignPropertyAddIn\ChartDesignPropertyAddIn\DlgLocalLanguageTable.cpp

; 249  : 		for( j = IMetaTable::ENGLISH; j < IMetaTable::LANGUAGE_ID_END + 1; j++)		// +1 for Other MetaText

  002d7	47		 inc	 edi

; 259  : 			szLanguageTableText += strLanguageText.GetLength();

  002d8	03 70 f4	 add	 esi, DWORD PTR [eax-12]

; 260  : 			*szLanguageTableText++ = ';';										// ';'

  002db	c6 06 3b	 mov	 BYTE PTR [esi], 59	; 0000003bH
  002de	46		 inc	 esi
  002df	83 ff 03	 cmp	 edi, 3
  002e2	0f 8c 58 ff ff
	ff		 jl	 $LL17@OnOK

; 238  : 	}
; 239  : 	for( i = 0; i < nItemCount; i++)

  002e8	8b 5d e8	 mov	 ebx, DWORD PTR _i$2$[ebp]
  002eb	8b 7d e0	 mov	 edi, DWORD PTR tv739[ebp]
  002ee	43		 inc	 ebx

; 261  : 		}
; 262  : 		*szLanguageTableText++ = '\r';											// '\r'

  002ef	66 c7 06 0d 0a	 mov	 WORD PTR [esi], 2573	; 00000a0dH

; 263  : 		*szLanguageTableText++ = '\n';											// '\n'

  002f4	83 c6 02	 add	 esi, 2
  002f7	89 5d e8	 mov	 DWORD PTR _i$2$[ebp], ebx
  002fa	3b 5d e4	 cmp	 ebx, DWORD PTR _nItemCount$1$[ebp]
  002fd	0f 8c df fe ff
	ff		 jl	 $LL14@OnOK
$LN13@OnOK:

; 264  : 	}
; 265  : 	*szLanguageTableText = '\0';
; 266  : 
; 267  : 	// (2006/7/5 - Seung-Won, Bae) Use IPropertyMap
; 268  : 	CHART_ADDTOSTRLIST_START( TRUE)

  00303	8d 4d d0	 lea	 ecx, DWORD PTR _strData$[ebp]
  00306	c6 06 00	 mov	 BYTE PTR [esi], 0
  00309	ff 15 00 00 00
	00		 call	 DWORD PTR __imp_??0?$CStringT@DV?$StrTraitMFC_DLL@DV?$ChTraitsCRT@D@ATL@@@@@ATL@@QAE@XZ

; 269  : 		CHART_ADDTOSTRLIST_STRING(	m_pIPropertyMap, g_anPropertyShortKey[	LOCALLANGUAGETABLE],	m_strLocalLanguageTable,	_DPV_LOCALLANGUAGETABLE);

  0030f	8b 5d ec	 mov	 ebx, DWORD PTR _this$1$[ebp]
  00312	c6 45 fc 07	 mov	 BYTE PTR __$EHRec$[ebp+8], 7
  00316	8b 8b 40 01 00
	00		 mov	 ecx, DWORD PTR [ebx+320]
  0031c	ff b3 44 01 00
	00		 push	 DWORD PTR [ebx+324]
  00322	ff 35 2c 01 00
	00		 push	 DWORD PTR ?g_anPropertyShortKey@@3PAPADA+300
  00328	8b 01		 mov	 eax, DWORD PTR [ecx]
  0032a	ff 50 14	 call	 DWORD PTR [eax+20]

; 270  : 	CHART_ADDTOSTRLIST_END
; 271  : 
; 272  : 	CDialog::OnOK();

  0032d	8b cb		 mov	 ecx, ebx
  0032f	e8 00 00 00 00	 call	 ?OnOK@CDialog@@MAEXXZ	; CDialog::OnOK

; 273  : }

  00334	8d 4d d0	 lea	 ecx, DWORD PTR _strData$[ebp]
  00337	ff 15 00 00 00
	00		 call	 DWORD PTR __imp_??1?$CStringT@DV?$StrTraitMFC_DLL@DV?$ChTraitsCRT@D@ATL@@@@@ATL@@QAE@XZ
  0033d	8d 4d f0	 lea	 ecx, DWORD PTR _strLanguageText$[ebp]
  00340	ff 15 00 00 00
	00		 call	 DWORD PTR __imp_??1?$CStringT@DV?$StrTraitMFC_DLL@DV?$ChTraitsCRT@D@ATL@@@@@ATL@@QAE@XZ
  00346	8b 4d f4	 mov	 ecx, DWORD PTR __$EHRec$[ebp]
  00349	64 89 0d 00 00
	00 00		 mov	 DWORD PTR fs:0, ecx
  00350	59		 pop	 ecx
  00351	5f		 pop	 edi
  00352	5e		 pop	 esi
  00353	5b		 pop	 ebx
  00354	8b e5		 mov	 esp, ebp
  00356	5d		 pop	 ebp
  00357	c3		 ret	 0
_TEXT	ENDS
;	COMDAT text$x
text$x	SEGMENT
__unwindfunclet$?OnOK@CDlgLocalLanguageTable@@MAEXXZ$0:
  00000	8d 4d f0	 lea	 ecx, DWORD PTR _strLanguageText$[ebp]
  00003	ff 25 00 00 00
	00		 jmp	 DWORD PTR __imp_??1?$CStringT@DV?$StrTraitMFC_DLL@DV?$ChTraitsCRT@D@ATL@@@@@ATL@@QAE@XZ
__unwindfunclet$?OnOK@CDlgLocalLanguageTable@@MAEXXZ$1:
  00009	8d 4d dc	 lea	 ecx, DWORD PTR $T7[ebp]
  0000c	ff 25 00 00 00
	00		 jmp	 DWORD PTR __imp_??1?$CStringT@DV?$StrTraitMFC_DLL@DV?$ChTraitsCRT@D@ATL@@@@@ATL@@QAE@XZ
__unwindfunclet$?OnOK@CDlgLocalLanguageTable@@MAEXXZ$2:
  00012	8d 4d d8	 lea	 ecx, DWORD PTR $T5[ebp]
  00015	ff 25 00 00 00
	00		 jmp	 DWORD PTR __imp_??1?$CStringT@DV?$StrTraitMFC_DLL@DV?$ChTraitsCRT@D@ATL@@@@@ATL@@QAE@XZ
__unwindfunclet$?OnOK@CDlgLocalLanguageTable@@MAEXXZ$3:
  0001b	8d 4d d4	 lea	 ecx, DWORD PTR $T3[ebp]
  0001e	ff 25 00 00 00
	00		 jmp	 DWORD PTR __imp_??1?$CStringT@DV?$StrTraitMFC_DLL@DV?$ChTraitsCRT@D@ATL@@@@@ATL@@QAE@XZ
__unwindfunclet$?OnOK@CDlgLocalLanguageTable@@MAEXXZ$4:
  00024	8d 4d d4	 lea	 ecx, DWORD PTR $T2[ebp]
  00027	ff 25 00 00 00
	00		 jmp	 DWORD PTR __imp_??1?$CStringT@DV?$StrTraitMFC_DLL@DV?$ChTraitsCRT@D@ATL@@@@@ATL@@QAE@XZ
__unwindfunclet$?OnOK@CDlgLocalLanguageTable@@MAEXXZ$5:
  0002d	8d 4d d8	 lea	 ecx, DWORD PTR $T4[ebp]
  00030	ff 25 00 00 00
	00		 jmp	 DWORD PTR __imp_??1?$CStringT@DV?$StrTraitMFC_DLL@DV?$ChTraitsCRT@D@ATL@@@@@ATL@@QAE@XZ
__unwindfunclet$?OnOK@CDlgLocalLanguageTable@@MAEXXZ$6:
  00036	8d 4d dc	 lea	 ecx, DWORD PTR $T6[ebp]
  00039	ff 25 00 00 00
	00		 jmp	 DWORD PTR __imp_??1?$CStringT@DV?$StrTraitMFC_DLL@DV?$ChTraitsCRT@D@ATL@@@@@ATL@@QAE@XZ
__unwindfunclet$?OnOK@CDlgLocalLanguageTable@@MAEXXZ$7:
  0003f	8d 4d d0	 lea	 ecx, DWORD PTR _strData$[ebp]
  00042	ff 25 00 00 00
	00		 jmp	 DWORD PTR __imp_??1?$CStringT@DV?$StrTraitMFC_DLL@DV?$ChTraitsCRT@D@ATL@@@@@ATL@@QAE@XZ
  00048	cc		 int	 3
  00049	cc		 int	 3
  0004a	cc		 int	 3
  0004b	cc		 int	 3
  0004c	cc		 int	 3
__ehhandler$?OnOK@CDlgLocalLanguageTable@@MAEXXZ:
  0004d	90		 npad	 1
  0004e	90		 npad	 1
  0004f	8b 54 24 08	 mov	 edx, DWORD PTR [esp+8]
  00053	8d 42 0c	 lea	 eax, DWORD PTR [edx+12]
  00056	8b 4a cc	 mov	 ecx, DWORD PTR [edx-52]
  00059	33 c8		 xor	 ecx, eax
  0005b	e8 00 00 00 00	 call	 @__security_check_cookie@4
  00060	b8 00 00 00 00	 mov	 eax, OFFSET __ehfuncinfo$?OnOK@CDlgLocalLanguageTable@@MAEXXZ
  00065	e9 00 00 00 00	 jmp	 ___CxxFrameHandler3
text$x	ENDS
?OnOK@CDlgLocalLanguageTable@@MAEXXZ ENDP		; CDlgLocalLanguageTable::OnOK
; Function compile flags: /Ogtp
; File D:\git\src\IBK\IBK_DRFN\ProjSrc\SrcChartEx\ChartAddIn\ChartDesignPropertyAddIn\ChartDesignPropertyAddIn\DlgLocalLanguageTable.cpp
;	COMDAT ?DoDataExchange@CDlgLocalLanguageTable@@MAEXPAVCDataExchange@@@Z
_TEXT	SEGMENT
_pDX$ = 8						; size = 4
?DoDataExchange@CDlgLocalLanguageTable@@MAEXPAVCDataExchange@@@Z PROC ; CDlgLocalLanguageTable::DoDataExchange, COMDAT
; _this$ = ecx

; 38   : {

  00000	55		 push	 ebp
  00001	8b ec		 mov	 ebp, esp

; 39   : 	CDialog::DoDataExchange(pDX);
; 40   : 	//{{AFX_DATA_MAP(CDlgLocalLanguageTable)
; 41   : 	DDX_Control(pDX, IDC_LST_LANGUAGE_TABLE, m_lstLanguageTable);

  00003	8d 81 a8 00 00
	00		 lea	 eax, DWORD PTR [ecx+168]
  00009	50		 push	 eax
  0000a	68 db 07 00 00	 push	 2011			; 000007dbH
  0000f	ff 75 08	 push	 DWORD PTR _pDX$[ebp]
  00012	e8 00 00 00 00	 call	 ?DDX_Control@@YGXPAVCDataExchange@@HAAVCWnd@@@Z ; DDX_Control

; 42   : 	//}}AFX_DATA_MAP
; 43   : }

  00017	5d		 pop	 ebp
  00018	c2 04 00	 ret	 4
?DoDataExchange@CDlgLocalLanguageTable@@MAEXPAVCDataExchange@@@Z ENDP ; CDlgLocalLanguageTable::DoDataExchange
_TEXT	ENDS
; Function compile flags: /Ogtp
; File D:\git\src\IBK\IBK_DRFN\ProjSrc\SrcChartEx\ChartAddIn\ChartDesignPropertyAddIn\ChartDesignPropertyAddIn\DlgLocalLanguageTable.cpp
; File C:\Program Files (x86)\Microsoft Visual Studio\2019\Community\VC\Tools\MSVC\14.29.30133\atlmfc\include\afxwin2.inl
; File D:\git\src\IBK\IBK_DRFN\ProjSrc\SrcChartEx\ChartAddIn\ChartDesignPropertyAddIn\ChartDesignPropertyAddIn\DlgLocalLanguageTable.cpp
; File C:\Program Files (x86)\Microsoft Visual Studio\2019\Community\VC\Tools\MSVC\14.29.30133\atlmfc\include\atlsimpstr.h
; File D:\git\src\IBK\IBK_DRFN\ProjSrc\SrcChartEx\ChartAddIn\ChartDesignPropertyAddIn\ChartDesignPropertyAddIn\DlgLocalLanguageTable.cpp
; File C:\Program Files (x86)\Microsoft Visual Studio\2019\Community\VC\Tools\MSVC\14.29.30133\atlmfc\include\atlsimpstr.h
; File D:\git\src\IBK\IBK_DRFN\ProjSrc\SrcChartEx\ChartAddIn\ChartDesignPropertyAddIn\ChartDesignPropertyAddIn\DlgLocalLanguageTable.cpp
; File C:\Program Files (x86)\Microsoft Visual Studio\2019\Community\VC\Tools\MSVC\14.29.30133\atlmfc\include\afxcmn.inl
; File D:\git\src\IBK\IBK_DRFN\ProjSrc\SrcChartEx\ChartAddIn\ChartDesignPropertyAddIn\ChartDesignPropertyAddIn\DlgLocalLanguageTable.cpp
; File C:\Program Files (x86)\Microsoft Visual Studio\2019\Community\VC\Tools\MSVC\14.29.30133\atlmfc\include\afxcmn.inl
; File D:\git\src\IBK\IBK_DRFN\ProjSrc\SrcChartEx\ChartAddIn\ChartDesignPropertyAddIn\ChartDesignPropertyAddIn\DlgLocalLanguageTable.cpp
; File C:\Program Files (x86)\Microsoft Visual Studio\2019\Community\VC\Tools\MSVC\14.29.30133\atlmfc\include\afx.inl
; File D:\git\src\IBK\IBK_DRFN\ProjSrc\SrcChartEx\ChartAddIn\ChartDesignPropertyAddIn\ChartDesignPropertyAddIn\DlgLocalLanguageTable.cpp
; File C:\Program Files (x86)\Microsoft Visual Studio\2019\Community\VC\Tools\MSVC\14.29.30133\atlmfc\include\afxcmn.inl
; File D:\git\src\IBK\IBK_DRFN\ProjSrc\SrcChartEx\ChartAddIn\ChartDesignPropertyAddIn\ChartDesignPropertyAddIn\DlgLocalLanguageTable.cpp
; File C:\Program Files (x86)\Microsoft Visual Studio\2019\Community\VC\Tools\MSVC\14.29.30133\atlmfc\include\afxcmn.inl
; File D:\git\src\IBK\IBK_DRFN\ProjSrc\SrcChartEx\ChartAddIn\ChartDesignPropertyAddIn\ChartDesignPropertyAddIn\DlgLocalLanguageTable.cpp
; File C:\Program Files (x86)\Microsoft Visual Studio\2019\Community\VC\Tools\MSVC\14.29.30133\atlmfc\include\afxcmn.inl
; File D:\git\src\IBK\IBK_DRFN\ProjSrc\SrcChartEx\ChartAddIn\ChartDesignPropertyAddIn\ChartDesignPropertyAddIn\DlgLocalLanguageTable.cpp
;	COMDAT ?PreTranslateMessage@CDlgLocalLanguageTable@@UAEHPAUtagMSG@@@Z
_TEXT	SEGMENT
_info$2 = -56						; size = 24
_this$1$ = -32						; size = 4
$T3 = -32						; size = 4
_nIndex$2$ = -28					; size = 4
_i$1$ = -28						; size = 4
_szMetaText$1$ = -24					; size = 4
_szTempMetaText$1$ = -20				; size = 4
_strMetaText$4 = -16					; size = 4
__$EHRec$ = -12						; size = 12
_strLanguageText$5 = 8					; size = 4
_pMsg$ = 8						; size = 4
?PreTranslateMessage@CDlgLocalLanguageTable@@UAEHPAUtagMSG@@@Z PROC ; CDlgLocalLanguageTable::PreTranslateMessage, COMDAT
; _this$ = ecx

; 396  : {

  00000	55		 push	 ebp
  00001	8b ec		 mov	 ebp, esp
  00003	6a ff		 push	 -1
  00005	68 00 00 00 00	 push	 __ehhandler$?PreTranslateMessage@CDlgLocalLanguageTable@@UAEHPAUtagMSG@@@Z
  0000a	64 a1 00 00 00
	00		 mov	 eax, DWORD PTR fs:0
  00010	50		 push	 eax
  00011	83 ec 2c	 sub	 esp, 44			; 0000002cH
  00014	53		 push	 ebx
  00015	56		 push	 esi
  00016	57		 push	 edi
  00017	a1 00 00 00 00	 mov	 eax, DWORD PTR ___security_cookie
  0001c	33 c5		 xor	 eax, ebp
  0001e	50		 push	 eax
  0001f	8d 45 f4	 lea	 eax, DWORD PTR __$EHRec$[ebp]
  00022	64 a3 00 00 00
	00		 mov	 DWORD PTR fs:0, eax
  00028	8b d9		 mov	 ebx, ecx
  0002a	89 5d e0	 mov	 DWORD PTR _this$1$[ebp], ebx

; 397  : 	// TODO: Add your specialized code here and/or call the base class
; 398  : 
; 399  : 	if( pMsg->message == WM_KEYDOWN && pMsg->wParam == VK_RETURN)

  0002d	8b 75 08	 mov	 esi, DWORD PTR _pMsg$[ebp]
  00030	81 7e 04 00 01
	00 00		 cmp	 DWORD PTR [esi+4], 256	; 00000100H
  00037	0f 85 38 02 00
	00		 jne	 $LN9@PreTransla
  0003d	83 7e 08 0d	 cmp	 DWORD PTR [esi+8], 13	; 0000000dH
  00041	0f 85 2e 02 00
	00		 jne	 $LN9@PreTransla

; 400  : 		if( pMsg->hwnd == GetDlgItem( IDC_EDT_LANGUAGE_TEXT)->GetSafeHwnd())

  00047	68 dd 07 00 00	 push	 2013			; 000007ddH
  0004c	e8 00 00 00 00	 call	 ?GetDlgItem@CWnd@@QBEPAV1@H@Z ; CWnd::GetDlgItem
; File C:\Program Files (x86)\Microsoft Visual Studio\2019\Community\VC\Tools\MSVC\14.29.30133\atlmfc\include\afxwin2.inl

; 25   : 	{ return this == NULL ? NULL : m_hWnd; }

  00051	85 c0		 test	 eax, eax
  00053	74 03		 je	 SHORT $LN28@PreTransla
$LN27@PreTransla:
  00055	8b 40 20	 mov	 eax, DWORD PTR [eax+32]
$LN28@PreTransla:
; File D:\git\src\IBK\IBK_DRFN\ProjSrc\SrcChartEx\ChartAddIn\ChartDesignPropertyAddIn\ChartDesignPropertyAddIn\DlgLocalLanguageTable.cpp

; 400  : 		if( pMsg->hwnd == GetDlgItem( IDC_EDT_LANGUAGE_TEXT)->GetSafeHwnd())

  00058	39 06		 cmp	 DWORD PTR [esi], eax
  0005a	0f 85 15 02 00
	00		 jne	 $LN9@PreTransla

; 401  : 	{
; 402  : 		GetDlgItem( IDC_EDT_LANGUAGE_TEXT)->ShowWindow( SW_HIDE);

  00060	6a 00		 push	 0
  00062	68 dd 07 00 00	 push	 2013			; 000007ddH
  00067	8b cb		 mov	 ecx, ebx
  00069	e8 00 00 00 00	 call	 ?GetDlgItem@CWnd@@QBEPAV1@H@Z ; CWnd::GetDlgItem
  0006e	8b c8		 mov	 ecx, eax
  00070	e8 00 00 00 00	 call	 ?ShowWindow@CWnd@@QAEHH@Z ; CWnd::ShowWindow

; 403  : 		GetDlgItem( IDC_BTN_ADD)->ShowWindow( SW_SHOW);

  00075	6a 05		 push	 5
  00077	68 14 01 00 00	 push	 276			; 00000114H
  0007c	8b cb		 mov	 ecx, ebx
  0007e	e8 00 00 00 00	 call	 ?GetDlgItem@CWnd@@QBEPAV1@H@Z ; CWnd::GetDlgItem
  00083	8b c8		 mov	 ecx, eax
  00085	e8 00 00 00 00	 call	 ?ShowWindow@CWnd@@QAEHH@Z ; CWnd::ShowWindow

; 404  : 
; 405  : 		CString strLanguageText;

  0008a	8d 4d 08	 lea	 ecx, DWORD PTR _strLanguageText$5[ebp]
  0008d	ff 15 00 00 00
	00		 call	 DWORD PTR __imp_??0?$CStringT@DV?$StrTraitMFC_DLL@DV?$ChTraitsCRT@D@ATL@@@@@ATL@@QAE@XZ

; 406  : 		GetDlgItem( IDC_EDT_LANGUAGE_TEXT)->GetWindowText( strLanguageText);

  00093	8d 45 08	 lea	 eax, DWORD PTR _strLanguageText$5[ebp]
  00096	c7 45 fc 00 00
	00 00		 mov	 DWORD PTR __$EHRec$[ebp+8], 0
  0009d	50		 push	 eax
  0009e	68 dd 07 00 00	 push	 2013			; 000007ddH
  000a3	8b cb		 mov	 ecx, ebx
  000a5	e8 00 00 00 00	 call	 ?GetDlgItem@CWnd@@QBEPAV1@H@Z ; CWnd::GetDlgItem
  000aa	8b c8		 mov	 ecx, eax
  000ac	e8 00 00 00 00	 call	 ?GetWindowTextA@CWnd@@QBEXAAV?$CStringT@DV?$StrTraitMFC_DLL@DV?$ChTraitsCRT@D@ATL@@@@@ATL@@@Z ; CWnd::GetWindowTextA

; 408  : 		CString strMetaText;

  000b1	8d 4d f0	 lea	 ecx, DWORD PTR _strMetaText$4[ebp]
  000b4	ff 15 00 00 00
	00		 call	 DWORD PTR __imp_??0?$CStringT@DV?$StrTraitMFC_DLL@DV?$ChTraitsCRT@D@ATL@@@@@ATL@@QAE@XZ
; File C:\Program Files (x86)\Microsoft Visual Studio\2019\Community\VC\Tools\MSVC\14.29.30133\atlmfc\include\atlsimpstr.h

; 377  : 		return( m_pszData );

  000ba	8b 45 08	 mov	 eax, DWORD PTR _strLanguageText$5[ebp]
  000bd	8b f8		 mov	 edi, eax
; File D:\git\src\IBK\IBK_DRFN\ProjSrc\SrcChartEx\ChartAddIn\ChartDesignPropertyAddIn\ChartDesignPropertyAddIn\DlgLocalLanguageTable.cpp

; 408  : 		CString strMetaText;

  000bf	c6 45 fc 01	 mov	 BYTE PTR __$EHRec$[ebp+8], 1
; File C:\Program Files (x86)\Microsoft Visual Studio\2019\Community\VC\Tools\MSVC\14.29.30133\atlmfc\include\atlsimpstr.h

; 377  : 		return( m_pszData );

  000c3	89 45 e8	 mov	 DWORD PTR _szMetaText$1$[ebp], eax
  000c6	8d 4f 01	 lea	 ecx, DWORD PTR [edi+1]
  000c9	0f 1f 80 00 00
	00 00		 npad	 7
$LL55@PreTransla:
  000d0	8a 07		 mov	 al, BYTE PTR [edi]
  000d2	47		 inc	 edi
  000d3	84 c0		 test	 al, al
  000d5	75 f9		 jne	 SHORT $LL55@PreTransla
  000d7	2b f9		 sub	 edi, ecx
; File D:\git\src\IBK\IBK_DRFN\ProjSrc\SrcChartEx\ChartAddIn\ChartDesignPropertyAddIn\ChartDesignPropertyAddIn\DlgLocalLanguageTable.cpp

; 412  : 		char *szTempMetaText = strMetaText.GetBuffer( nLen * 2 + 3);

  000d9	8d 4d f0	 lea	 ecx, DWORD PTR _strMetaText$4[ebp]
  000dc	8d 04 7d 03 00
	00 00		 lea	 eax, DWORD PTR [edi*2+3]
  000e3	50		 push	 eax
  000e4	ff 15 00 00 00
	00		 call	 DWORD PTR __imp_?GetBuffer@?$CSimpleStringT@D$00@ATL@@QAEPADH@Z
  000ea	8b c8		 mov	 ecx, eax

; 413  : 		unsigned char c1 = 0, c2 = 0;
; 414  : 		szTempMetaText[ j++] = '_';
; 415  : 		szTempMetaText[ j++] = 'M';

  000ec	be 02 00 00 00	 mov	 esi, 2
  000f1	33 c0		 xor	 eax, eax
  000f3	89 4d ec	 mov	 DWORD PTR _szTempMetaText$1$[ebp], ecx
  000f6	89 45 e4	 mov	 DWORD PTR _i$1$[ebp], eax
  000f9	66 c7 01 5f 4d	 mov	 WORD PTR [ecx], 19807	; 00004d5fH

; 416  : 		for( int i = 0; i < nLen; i++)

  000fe	85 ff		 test	 edi, edi
  00100	7e 5f		 jle	 SHORT $LN3@PreTransla
  00102	8b 55 e8	 mov	 edx, DWORD PTR _szMetaText$1$[ebp]
$LL4@PreTransla:

; 417  : 		{
; 418  : 			c1 = szMetaText[ i];

  00105	8a 3c 10	 mov	 bh, BYTE PTR [eax+edx]

; 419  : 			if( c1 < 0x80) szTempMetaText[ j++]	= c1;

  00108	80 ff 80	 cmp	 bh, 128			; 00000080H
  0010b	73 05		 jae	 SHORT $LN10@PreTransla
  0010d	88 3c 31	 mov	 BYTE PTR [ecx+esi], bh
  00110	eb 43		 jmp	 SHORT $LN2@PreTransla
$LN10@PreTransla:

; 420  : 			else
; 421  : 			{
; 422  : 				c2						= '0' + ( c1 >> 4);

  00112	8a df		 mov	 bl, bh
  00114	c0 eb 04	 shr	 bl, 4
  00117	80 c3 30	 add	 bl, 48			; 00000030H
  0011a	0f b6 cb	 movzx	 ecx, bl

; 423  : 				szTempMetaText[ j++]	= ( '9' < c2 ? c2 - '9' - 1 + 'A' : c2);

  0011d	80 fb 39	 cmp	 bl, 57			; 00000039H
  00120	8d 41 07	 lea	 eax, DWORD PTR [ecx+7]
  00123	0f b6 d0	 movzx	 edx, al
  00126	8b c1		 mov	 eax, ecx
  00128	0f 46 d0	 cmovbe	 edx, eax
  0012b	8b 45 ec	 mov	 eax, DWORD PTR _szTempMetaText$1$[ebp]

; 424  : 				c2						= '0' + ( c1 & 0x0F);

  0012e	80 e7 0f	 and	 bh, 15			; 0000000fH
  00131	80 c7 30	 add	 bh, 48			; 00000030H
  00134	0f b6 cf	 movzx	 ecx, bh
  00137	88 14 30	 mov	 BYTE PTR [eax+esi], dl
  0013a	46		 inc	 esi

; 425  : 				szTempMetaText[ j++]	= ( '9' < c2 ? c2 - '9' - 1 + 'A' : c2);

  0013b	80 ff 39	 cmp	 bh, 57			; 00000039H
  0013e	8d 41 07	 lea	 eax, DWORD PTR [ecx+7]
  00141	0f b6 d0	 movzx	 edx, al
  00144	8b c1		 mov	 eax, ecx
  00146	8b 4d ec	 mov	 ecx, DWORD PTR _szTempMetaText$1$[ebp]
  00149	0f 46 d0	 cmovbe	 edx, eax
  0014c	8b 45 e4	 mov	 eax, DWORD PTR _i$1$[ebp]
  0014f	88 14 31	 mov	 BYTE PTR [ecx+esi], dl
  00152	8b 55 e8	 mov	 edx, DWORD PTR _szMetaText$1$[ebp]
$LN2@PreTransla:

; 416  : 		for( int i = 0; i < nLen; i++)

  00155	40		 inc	 eax
  00156	46		 inc	 esi
  00157	89 45 e4	 mov	 DWORD PTR _i$1$[ebp], eax
  0015a	3b c7		 cmp	 eax, edi
  0015c	7c a7		 jl	 SHORT $LL4@PreTransla
  0015e	8b 5d e0	 mov	 ebx, DWORD PTR _this$1$[ebp]
$LN3@PreTransla:

; 426  : 			}
; 427  : 		}
; 428  : 		szTempMetaText[ j++]		= '_';

  00161	66 c7 04 31 5f
	00		 mov	 WORD PTR [ecx+esi], 95	; 0000005fH

; 429  : 		szTempMetaText[ j++]		= '\0';
; 430  : 		strMetaText.ReleaseBuffer();

  00167	8d 4d f0	 lea	 ecx, DWORD PTR _strMetaText$4[ebp]
  0016a	6a ff		 push	 -1
  0016c	ff 15 00 00 00
	00		 call	 DWORD PTR __imp_?ReleaseBuffer@?$CSimpleStringT@D$00@ATL@@QAEXH@Z

; 434  : 		info.psz = strMetaText;

  00172	8b 45 f0	 mov	 eax, DWORD PTR _strMetaText$4[ebp]
  00175	89 45 cc	 mov	 DWORD PTR _info$2[ebp+4], eax
; File C:\Program Files (x86)\Microsoft Visual Studio\2019\Community\VC\Tools\MSVC\14.29.30133\atlmfc\include\afxcmn.inl

; 183  : 	{ ASSERT(::IsWindow(m_hWnd)); return (int) ::SendMessage(m_hWnd, LVM_FINDITEM, nStart, (LPARAM)pFindInfo); }

  00178	8d 45 c8	 lea	 eax, DWORD PTR _info$2[ebp]
  0017b	50		 push	 eax
  0017c	6a ff		 push	 -1
  0017e	68 0d 10 00 00	 push	 4109			; 0000100dH
  00183	ff b3 c8 00 00
	00		 push	 DWORD PTR [ebx+200]
; File D:\git\src\IBK\IBK_DRFN\ProjSrc\SrcChartEx\ChartAddIn\ChartDesignPropertyAddIn\ChartDesignPropertyAddIn\DlgLocalLanguageTable.cpp

; 433  : 		info.flags = LVFI_STRING;

  00189	c7 45 c8 02 00
	00 00		 mov	 DWORD PTR _info$2[ebp], 2
; File C:\Program Files (x86)\Microsoft Visual Studio\2019\Community\VC\Tools\MSVC\14.29.30133\atlmfc\include\afxcmn.inl

; 183  : 	{ ASSERT(::IsWindow(m_hWnd)); return (int) ::SendMessage(m_hWnd, LVM_FINDITEM, nStart, (LPARAM)pFindInfo); }

  00190	ff 15 00 00 00
	00		 call	 DWORD PTR __imp__SendMessageA@16
; File D:\git\src\IBK\IBK_DRFN\ProjSrc\SrcChartEx\ChartAddIn\ChartDesignPropertyAddIn\ChartDesignPropertyAddIn\DlgLocalLanguageTable.cpp

; 436  : 		if( 0 <= nIndex)

  00196	85 c0		 test	 eax, eax
  00198	78 13		 js	 SHORT $LN12@PreTransla

; 437  : 		{
; 438  : 			AfxMessageBox( "It was added already!");

  0019a	6a 00		 push	 0
  0019c	6a 00		 push	 0
  0019e	68 00 00 00 00	 push	 OFFSET ??_C@_0BG@JOCHGPMF@It?5was?5added?5already?$CB@
  001a3	e8 00 00 00 00	 call	 ?AfxMessageBox@@YGHPBDII@Z ; AfxMessageBox
  001a8	e9 9d 00 00 00	 jmp	 $LN24@PreTransla
$LN12@PreTransla:
; File C:\Program Files (x86)\Microsoft Visual Studio\2019\Community\VC\Tools\MSVC\14.29.30133\atlmfc\include\afx.inl

; 116  : 	{ return ::operator new(nSize); }

  001ad	6a 1c		 push	 28			; 0000001cH
  001af	e8 00 00 00 00	 call	 ??2@YAPAXI@Z		; operator new
  001b4	83 c4 04	 add	 esp, 4
; File D:\git\src\IBK\IBK_DRFN\ProjSrc\SrcChartEx\ChartAddIn\ChartDesignPropertyAddIn\ChartDesignPropertyAddIn\DlgLocalLanguageTable.cpp

; 442  : 		CStringList *pLanguageList = new CStringList;

  001b7	89 45 e0	 mov	 DWORD PTR $T3[ebp], eax
  001ba	c6 45 fc 02	 mov	 BYTE PTR __$EHRec$[ebp+8], 2
  001be	85 c0		 test	 eax, eax
  001c0	74 0d		 je	 SHORT $LN19@PreTransla
  001c2	6a 0a		 push	 10			; 0000000aH
  001c4	8b c8		 mov	 ecx, eax
  001c6	e8 00 00 00 00	 call	 ??0CStringList@@QAE@H@Z	; CStringList::CStringList
  001cb	8b f8		 mov	 edi, eax
  001cd	eb 02		 jmp	 SHORT $LN20@PreTransla
$LN19@PreTransla:
  001cf	33 ff		 xor	 edi, edi
$LN20@PreTransla:
  001d1	c6 45 fc 01	 mov	 BYTE PTR __$EHRec$[ebp+8], 1
  001d5	be 03 00 00 00	 mov	 esi, 3
  001da	66 0f 1f 44 00
	00		 npad	 6
$LL7@PreTransla:

; 443  : 		for( int nLanguageID = 0; nLanguageID < IMetaTable::LANGUAGE_ID_END + 1; nLanguageID++)	// +1 for Other MetaText
; 444  : 			pLanguageList->AddTail( strLanguageText);

  001e0	8d 45 08	 lea	 eax, DWORD PTR _strLanguageText$5[ebp]
  001e3	8b cf		 mov	 ecx, edi
  001e5	50		 push	 eax
  001e6	e8 00 00 00 00	 call	 ?AddTail@CStringList@@QAEPAU__POSITION@@ABV?$CStringT@DV?$StrTraitMFC_DLL@DV?$ChTraitsCRT@D@ATL@@@@@ATL@@@Z ; CStringList::AddTail
  001eb	83 ee 01	 sub	 esi, 1
  001ee	75 f0		 jne	 SHORT $LL7@PreTransla
; File C:\Program Files (x86)\Microsoft Visual Studio\2019\Community\VC\Tools\MSVC\14.29.30133\atlmfc\include\afxcmn.inl

; 165  : 	{ ASSERT(::IsWindow(m_hWnd)); return InsertItem(LVIF_TEXT, nItem, lpszItem, 0, 0, 0, 0); }

  001f0	6a 00		 push	 0
  001f2	6a 00		 push	 0
  001f4	6a 00		 push	 0
  001f6	6a 00		 push	 0
  001f8	ff 75 f0	 push	 DWORD PTR _strMetaText$4[ebp]
; File D:\git\src\IBK\IBK_DRFN\ProjSrc\SrcChartEx\ChartAddIn\ChartDesignPropertyAddIn\ChartDesignPropertyAddIn\DlgLocalLanguageTable.cpp

; 446  : 		nIndex = m_lstLanguageTable.InsertItem( 0, strMetaText);

  001fb	8d b3 a8 00 00
	00		 lea	 esi, DWORD PTR [ebx+168]
; File C:\Program Files (x86)\Microsoft Visual Studio\2019\Community\VC\Tools\MSVC\14.29.30133\atlmfc\include\afxcmn.inl

; 165  : 	{ ASSERT(::IsWindow(m_hWnd)); return InsertItem(LVIF_TEXT, nItem, lpszItem, 0, 0, 0, 0); }

  00201	6a 00		 push	 0
  00203	6a 01		 push	 1
  00205	8b ce		 mov	 ecx, esi
  00207	e8 00 00 00 00	 call	 ?InsertItem@CListCtrl@@QAEHIHPBDIIHJ@Z ; CListCtrl::InsertItem
; File D:\git\src\IBK\IBK_DRFN\ProjSrc\SrcChartEx\ChartAddIn\ChartDesignPropertyAddIn\ChartDesignPropertyAddIn\DlgLocalLanguageTable.cpp

; 447  : 		m_lstLanguageTable.SetItemText( nIndex, 1, strLanguageText);

  0020c	ff 75 08	 push	 DWORD PTR _strLanguageText$5[ebp]
  0020f	8b ce		 mov	 ecx, esi
  00211	89 45 e4	 mov	 DWORD PTR _nIndex$2$[ebp], eax
  00214	6a 01		 push	 1
  00216	50		 push	 eax
  00217	e8 00 00 00 00	 call	 ?SetItemText@CListCtrl@@QAEHHHPBD@Z ; CListCtrl::SetItemText

; 448  : 		if( m_eLanguageID != IMetaTable::ENGLISH)

  0021c	83 bb 6c 01 00
	00 00		 cmp	 DWORD PTR [ebx+364], 0
  00223	8b 5d e4	 mov	 ebx, DWORD PTR _nIndex$2$[ebp]
  00226	74 0d		 je	 SHORT $LN13@PreTransla

; 449  : 			m_lstLanguageTable.SetItemText( nIndex, 2, strLanguageText);

  00228	ff 75 08	 push	 DWORD PTR _strLanguageText$5[ebp]
  0022b	8b ce		 mov	 ecx, esi
  0022d	6a 02		 push	 2
  0022f	53		 push	 ebx
  00230	e8 00 00 00 00	 call	 ?SetItemText@CListCtrl@@QAEHHHPBD@Z ; CListCtrl::SetItemText
$LN13@PreTransla:
; File C:\Program Files (x86)\Microsoft Visual Studio\2019\Community\VC\Tools\MSVC\14.29.30133\atlmfc\include\afxcmn.inl

; 161  : 	{ ASSERT(::IsWindow(m_hWnd)); return SetItem(nItem, 0, LVIF_PARAM, NULL, 0, 0, 0, (LPARAM)dwData); }

  00235	57		 push	 edi
  00236	6a 00		 push	 0
  00238	6a 00		 push	 0
  0023a	6a 00		 push	 0
  0023c	6a 00		 push	 0
  0023e	6a 04		 push	 4
  00240	6a 00		 push	 0
  00242	53		 push	 ebx
  00243	8b ce		 mov	 ecx, esi
  00245	e8 00 00 00 00	 call	 ?SetItem@CListCtrl@@QAEHHHIPBDHIIJ@Z ; CListCtrl::SetItem
$LN24@PreTransla:
; File D:\git\src\IBK\IBK_DRFN\ProjSrc\SrcChartEx\ChartAddIn\ChartDesignPropertyAddIn\ChartDesignPropertyAddIn\DlgLocalLanguageTable.cpp

; 452  : 		return TRUE;

  0024a	8d 4d f0	 lea	 ecx, DWORD PTR _strMetaText$4[ebp]
  0024d	ff 15 00 00 00
	00		 call	 DWORD PTR __imp_??1?$CStringT@DV?$StrTraitMFC_DLL@DV?$ChTraitsCRT@D@ATL@@@@@ATL@@QAE@XZ
  00253	8d 4d 08	 lea	 ecx, DWORD PTR _strLanguageText$5[ebp]
  00256	ff 15 00 00 00
	00		 call	 DWORD PTR __imp_??1?$CStringT@DV?$StrTraitMFC_DLL@DV?$ChTraitsCRT@D@ATL@@@@@ATL@@QAE@XZ
  0025c	b8 01 00 00 00	 mov	 eax, 1

; 456  : }

  00261	8b 4d f4	 mov	 ecx, DWORD PTR __$EHRec$[ebp]
  00264	64 89 0d 00 00
	00 00		 mov	 DWORD PTR fs:0, ecx
  0026b	59		 pop	 ecx
  0026c	5f		 pop	 edi
  0026d	5e		 pop	 esi
  0026e	5b		 pop	 ebx
  0026f	8b e5		 mov	 esp, ebp
  00271	5d		 pop	 ebp
  00272	c2 04 00	 ret	 4
$LN9@PreTransla:

; 453  : 	}
; 454  : 	
; 455  : 	return CDialog::PreTranslateMessage(pMsg);

  00275	56		 push	 esi
  00276	8b cb		 mov	 ecx, ebx
  00278	e8 00 00 00 00	 call	 ?PreTranslateMessage@CDialog@@UAEHPAUtagMSG@@@Z ; CDialog::PreTranslateMessage

; 456  : }

  0027d	8b 4d f4	 mov	 ecx, DWORD PTR __$EHRec$[ebp]
  00280	64 89 0d 00 00
	00 00		 mov	 DWORD PTR fs:0, ecx
  00287	59		 pop	 ecx
  00288	5f		 pop	 edi
  00289	5e		 pop	 esi
  0028a	5b		 pop	 ebx
  0028b	8b e5		 mov	 esp, ebp
  0028d	5d		 pop	 ebp
  0028e	c2 04 00	 ret	 4
_TEXT	ENDS
;	COMDAT text$x
text$x	SEGMENT
__unwindfunclet$?PreTranslateMessage@CDlgLocalLanguageTable@@UAEHPAUtagMSG@@@Z$0:
  00000	8d 4d 08	 lea	 ecx, DWORD PTR _strLanguageText$5[ebp]
  00003	ff 25 00 00 00
	00		 jmp	 DWORD PTR __imp_??1?$CStringT@DV?$StrTraitMFC_DLL@DV?$ChTraitsCRT@D@ATL@@@@@ATL@@QAE@XZ
__unwindfunclet$?PreTranslateMessage@CDlgLocalLanguageTable@@UAEHPAUtagMSG@@@Z$1:
  00009	8d 4d f0	 lea	 ecx, DWORD PTR _strMetaText$4[ebp]
  0000c	ff 25 00 00 00
	00		 jmp	 DWORD PTR __imp_??1?$CStringT@DV?$StrTraitMFC_DLL@DV?$ChTraitsCRT@D@ATL@@@@@ATL@@QAE@XZ
__unwindfunclet$?PreTranslateMessage@CDlgLocalLanguageTable@@UAEHPAUtagMSG@@@Z$2:
  00012	8b 45 e0	 mov	 eax, DWORD PTR $T3[ebp]
  00015	50		 push	 eax
  00016	e8 00 00 00 00	 call	 ??3CObject@@SGXPAX@Z	; CObject::operator delete
  0001b	c3		 ret	 0
  0001c	cc		 int	 3
  0001d	cc		 int	 3
  0001e	cc		 int	 3
  0001f	cc		 int	 3
  00020	cc		 int	 3
__ehhandler$?PreTranslateMessage@CDlgLocalLanguageTable@@UAEHPAUtagMSG@@@Z:
  00021	90		 npad	 1
  00022	90		 npad	 1
  00023	8b 54 24 08	 mov	 edx, DWORD PTR [esp+8]
  00027	8d 42 0c	 lea	 eax, DWORD PTR [edx+12]
  0002a	8b 4a c4	 mov	 ecx, DWORD PTR [edx-60]
  0002d	33 c8		 xor	 ecx, eax
  0002f	e8 00 00 00 00	 call	 @__security_check_cookie@4
  00034	b8 00 00 00 00	 mov	 eax, OFFSET __ehfuncinfo$?PreTranslateMessage@CDlgLocalLanguageTable@@UAEHPAUtagMSG@@@Z
  00039	e9 00 00 00 00	 jmp	 ___CxxFrameHandler3
text$x	ENDS
?PreTranslateMessage@CDlgLocalLanguageTable@@UAEHPAUtagMSG@@@Z ENDP ; CDlgLocalLanguageTable::PreTranslateMessage
; Function compile flags: /Ogtp
; File D:\git\src\IBK\IBK_DRFN\ProjSrc\SrcChartEx\ChartAddIn\ChartDesignPropertyAddIn\ChartDesignPropertyAddIn\DlgLocalLanguageTable.cpp
; File C:\Program Files (x86)\Microsoft Visual Studio\2019\Community\VC\Tools\MSVC\14.29.30133\atlmfc\include\atltypes.h
; File D:\git\src\IBK\IBK_DRFN\ProjSrc\SrcChartEx\ChartAddIn\ChartDesignPropertyAddIn\ChartDesignPropertyAddIn\DlgLocalLanguageTable.cpp
; File C:\Program Files (x86)\Microsoft Visual Studio\2019\Community\VC\Tools\MSVC\14.29.30133\atlmfc\include\atltypes.h
; File D:\git\src\IBK\IBK_DRFN\ProjSrc\SrcChartEx\ChartAddIn\ChartDesignPropertyAddIn\ChartDesignPropertyAddIn\DlgLocalLanguageTable.cpp
;	COMDAT ??0CDlgLocalLanguageTable@@QAE@PAVCWnd@@@Z
_TEXT	SEGMENT
_this$ = -16						; size = 4
__$EHRec$ = -12						; size = 12
_pParent$ = 8						; size = 4
??0CDlgLocalLanguageTable@@QAE@PAVCWnd@@@Z PROC		; CDlgLocalLanguageTable::CDlgLocalLanguageTable, COMDAT
; _this$ = ecx

; 25   : {

  00000	55		 push	 ebp
  00001	8b ec		 mov	 ebp, esp
  00003	6a ff		 push	 -1
  00005	68 00 00 00 00	 push	 __ehhandler$??0CDlgLocalLanguageTable@@QAE@PAVCWnd@@@Z
  0000a	64 a1 00 00 00
	00		 mov	 eax, DWORD PTR fs:0
  00010	50		 push	 eax
  00011	51		 push	 ecx
  00012	56		 push	 esi
  00013	a1 00 00 00 00	 mov	 eax, DWORD PTR ___security_cookie
  00018	33 c5		 xor	 eax, ebp
  0001a	50		 push	 eax
  0001b	8d 45 f4	 lea	 eax, DWORD PTR __$EHRec$[ebp]
  0001e	64 a3 00 00 00
	00		 mov	 DWORD PTR fs:0, eax
  00024	8b f1		 mov	 esi, ecx
  00026	89 75 f0	 mov	 DWORD PTR _this$[ebp], esi

; 24   : 	: CDialog(CDlgLocalLanguageTable::IDD, pParent)

  00029	ff 75 08	 push	 DWORD PTR _pParent$[ebp]
  0002c	68 d0 07 00 00	 push	 2000			; 000007d0H
  00031	e8 00 00 00 00	 call	 ??0CDialog@@QAE@IPAVCWnd@@@Z ; CDialog::CDialog

; 25   : {

  00036	8d 8e a8 00 00
	00		 lea	 ecx, DWORD PTR [esi+168]
  0003c	c7 45 fc 00 00
	00 00		 mov	 DWORD PTR __$EHRec$[ebp+8], 0
  00043	c7 06 00 00 00
	00		 mov	 DWORD PTR [esi], OFFSET ??_7CDlgLocalLanguageTable@@6B@
  00049	e8 00 00 00 00	 call	 ??0CEditableListCtrl@@QAE@XZ ; CEditableListCtrl::CEditableListCtrl
  0004e	8d 8e 44 01 00
	00		 lea	 ecx, DWORD PTR [esi+324]
  00054	ff 15 00 00 00
	00		 call	 DWORD PTR __imp_??0?$CStringT@DV?$StrTraitMFC_DLL@DV?$ChTraitsCRT@D@ATL@@@@@ATL@@QAE@XZ
  0005a	6a 0a		 push	 10			; 0000000aH
  0005c	8d 8e 48 01 00
	00		 lea	 ecx, DWORD PTR [esi+328]
  00062	c6 45 fc 02	 mov	 BYTE PTR __$EHRec$[ebp+8], 2
  00066	e8 00 00 00 00	 call	 ??0CStringList@@QAE@H@Z	; CStringList::CStringList
; File C:\Program Files (x86)\Microsoft Visual Studio\2019\Community\VC\Tools\MSVC\14.29.30133\atlmfc\include\atltypes.h

; 400  : 	x = 0;

  0006b	c7 86 64 01 00
	00 00 00 00 00	 mov	 DWORD PTR [esi+356], 0
; File D:\git\src\IBK\IBK_DRFN\ProjSrc\SrcChartEx\ChartAddIn\ChartDesignPropertyAddIn\ChartDesignPropertyAddIn\DlgLocalLanguageTable.cpp

; 34   : }

  00075	8b c6		 mov	 eax, esi
; File C:\Program Files (x86)\Microsoft Visual Studio\2019\Community\VC\Tools\MSVC\14.29.30133\atlmfc\include\atltypes.h

; 401  : 	y = 0;

  00077	c7 86 68 01 00
	00 00 00 00 00	 mov	 DWORD PTR [esi+360], 0
; File D:\git\src\IBK\IBK_DRFN\ProjSrc\SrcChartEx\ChartAddIn\ChartDesignPropertyAddIn\ChartDesignPropertyAddIn\DlgLocalLanguageTable.cpp

; 30   : 	m_ptMinSize.x = 500;

  00081	c7 86 64 01 00
	00 f4 01 00 00	 mov	 DWORD PTR [esi+356], 500 ; 000001f4H

; 31   : 	m_ptMinSize.y = 350;

  0008b	c7 86 68 01 00
	00 5e 01 00 00	 mov	 DWORD PTR [esi+360], 350 ; 0000015eH

; 32   : 	
; 33   : 	m_eLanguageID = IMetaTable::ENGLISH;

  00095	c7 86 6c 01 00
	00 00 00 00 00	 mov	 DWORD PTR [esi+364], 0

; 34   : }

  0009f	8b 4d f4	 mov	 ecx, DWORD PTR __$EHRec$[ebp]
  000a2	64 89 0d 00 00
	00 00		 mov	 DWORD PTR fs:0, ecx
  000a9	59		 pop	 ecx
  000aa	5e		 pop	 esi
  000ab	8b e5		 mov	 esp, ebp
  000ad	5d		 pop	 ebp
  000ae	c2 04 00	 ret	 4
_TEXT	ENDS
;	COMDAT text$x
text$x	SEGMENT
__unwindfunclet$??0CDlgLocalLanguageTable@@QAE@PAVCWnd@@@Z$0:
  00000	8b 4d f0	 mov	 ecx, DWORD PTR _this$[ebp]
  00003	e9 00 00 00 00	 jmp	 ??1CDialog@@UAE@XZ	; CDialog::~CDialog
__unwindfunclet$??0CDlgLocalLanguageTable@@QAE@PAVCWnd@@@Z$1:
  00008	8b 4d f0	 mov	 ecx, DWORD PTR _this$[ebp]
  0000b	81 c1 a8 00 00
	00		 add	 ecx, 168		; 000000a8H
  00011	e9 00 00 00 00	 jmp	 ??1CEditableListCtrl@@UAE@XZ ; CEditableListCtrl::~CEditableListCtrl
__unwindfunclet$??0CDlgLocalLanguageTable@@QAE@PAVCWnd@@@Z$2:
  00016	8b 4d f0	 mov	 ecx, DWORD PTR _this$[ebp]
  00019	81 c1 44 01 00
	00		 add	 ecx, 324		; 00000144H
  0001f	ff 25 00 00 00
	00		 jmp	 DWORD PTR __imp_??1?$CStringT@DV?$StrTraitMFC_DLL@DV?$ChTraitsCRT@D@ATL@@@@@ATL@@QAE@XZ
  00025	cc		 int	 3
  00026	cc		 int	 3
  00027	cc		 int	 3
  00028	cc		 int	 3
  00029	cc		 int	 3
__ehhandler$??0CDlgLocalLanguageTable@@QAE@PAVCWnd@@@Z:
  0002a	90		 npad	 1
  0002b	90		 npad	 1
  0002c	8b 54 24 08	 mov	 edx, DWORD PTR [esp+8]
  00030	8d 42 0c	 lea	 eax, DWORD PTR [edx+12]
  00033	8b 4a f4	 mov	 ecx, DWORD PTR [edx-12]
  00036	33 c8		 xor	 ecx, eax
  00038	e8 00 00 00 00	 call	 @__security_check_cookie@4
  0003d	b8 00 00 00 00	 mov	 eax, OFFSET __ehfuncinfo$??0CDlgLocalLanguageTable@@QAE@PAVCWnd@@@Z
  00042	e9 00 00 00 00	 jmp	 ___CxxFrameHandler3
text$x	ENDS
??0CDlgLocalLanguageTable@@QAE@PAVCWnd@@@Z ENDP		; CDlgLocalLanguageTable::CDlgLocalLanguageTable
; Function compile flags: /Ogtp
; File D:\git\src\IBK\IBK_DRFN\ProjSrc\SrcChartEx\ChartAddIn\ChartDesignPropertyAddIn\ChartDesignPropertyAddIn\EditableListCtrl.h
;	COMDAT ??__ERMSG_ELC_CELLEDITED@@YAXXZ
text$di	SEGMENT
??__ERMSG_ELC_CELLEDITED@@YAXXZ PROC			; `dynamic initializer for 'RMSG_ELC_CELLEDITED'', COMDAT

; 27   : const UINT RMSG_ELC_CELLEDITED = ::RegisterWindowMessage(_T("RMSG_EDITABLELISTCTRL_CELLEDITED"));

  00000	68 00 00 00 00	 push	 OFFSET ??_C@_0CB@EFDCECKM@RMSG_EDITABLELISTCTRL_CELLEDITE@
  00005	ff 15 00 00 00
	00		 call	 DWORD PTR __imp__RegisterWindowMessageA@4
  0000b	a3 00 00 00 00	 mov	 DWORD PTR ?RMSG_ELC_CELLEDITED@@3IB, eax
  00010	c3		 ret	 0
??__ERMSG_ELC_CELLEDITED@@YAXXZ ENDP			; `dynamic initializer for 'RMSG_ELC_CELLEDITED''
text$di	ENDS
; Function compile flags: /Ogtp
; File C:\Program Files (x86)\Microsoft Visual Studio\2019\Community\VC\Tools\MSVC\14.29.30133\atlmfc\include\afxwin2.inl
;	COMDAT ?Create@CDialog@@UAEHIPAVCWnd@@@Z
_TEXT	SEGMENT
_nIDTemplate$ = 8					; size = 4
_pParentWnd$ = 12					; size = 4
?Create@CDialog@@UAEHIPAVCWnd@@@Z PROC			; CDialog::Create, COMDAT
; _this$ = ecx

; 585  : 	{ return CDialog::Create(ATL_MAKEINTRESOURCE(nIDTemplate), pParentWnd); }

  00000	55		 push	 ebp
  00001	8b ec		 mov	 ebp, esp
  00003	0f b7 45 08	 movzx	 eax, WORD PTR _nIDTemplate$[ebp]
  00007	89 45 08	 mov	 DWORD PTR _nIDTemplate$[ebp], eax
  0000a	5d		 pop	 ebp
  0000b	e9 00 00 00 00	 jmp	 ?Create@CDialog@@UAEHPBDPAVCWnd@@@Z ; CDialog::Create
?Create@CDialog@@UAEHIPAVCWnd@@@Z ENDP			; CDialog::Create
_TEXT	ENDS
; Function compile flags: /Ogtp
; File C:\Program Files (x86)\Microsoft Visual Studio\2019\Community\VC\Tools\MSVC\14.29.30133\atlmfc\include\afxwin2.inl
;	COMDAT ?EndModalState@CWnd@@UAEXXZ
_TEXT	SEGMENT
?EndModalState@CWnd@@UAEXXZ PROC			; CWnd::EndModalState, COMDAT
; _this$ = ecx

; 567  : 	{ ::EnableWindow(m_hWnd, TRUE); }

  00000	6a 01		 push	 1
  00002	ff 71 20	 push	 DWORD PTR [ecx+32]
  00005	ff 15 00 00 00
	00		 call	 DWORD PTR __imp__EnableWindow@8
  0000b	c3		 ret	 0
?EndModalState@CWnd@@UAEXXZ ENDP			; CWnd::EndModalState
_TEXT	ENDS
; Function compile flags: /Ogtp
; File C:\Program Files (x86)\Microsoft Visual Studio\2019\Community\VC\Tools\MSVC\14.29.30133\atlmfc\include\afxwin2.inl
;	COMDAT ?BeginModalState@CWnd@@UAEXXZ
_TEXT	SEGMENT
?BeginModalState@CWnd@@UAEXXZ PROC			; CWnd::BeginModalState, COMDAT
; _this$ = ecx

; 565  : 	{ ::EnableWindow(m_hWnd, FALSE); }

  00000	6a 00		 push	 0
  00002	ff 71 20	 push	 DWORD PTR [ecx+32]
  00005	ff 15 00 00 00
	00		 call	 DWORD PTR __imp__EnableWindow@8
  0000b	c3		 ret	 0
?BeginModalState@CWnd@@UAEXXZ ENDP			; CWnd::BeginModalState
_TEXT	ENDS
; Function compile flags: /Ogtp
; File C:\Program Files (x86)\Microsoft Visual Studio\2019\Community\VC\Tools\MSVC\14.29.30133\atlmfc\include\afxwin2.inl
;	COMDAT ?DoDataExchange@CWnd@@MAEXPAVCDataExchange@@@Z
_TEXT	SEGMENT
___formal$ = 8						; size = 4
?DoDataExchange@CWnd@@MAEXPAVCDataExchange@@@Z PROC	; CWnd::DoDataExchange, COMDAT
; _this$ = ecx

; 561  : 	{ } // default does nothing

  00000	c2 04 00	 ret	 4
?DoDataExchange@CWnd@@MAEXPAVCDataExchange@@@Z ENDP	; CWnd::DoDataExchange
_TEXT	ENDS
; Function compile flags: /Ogtp
; File C:\Program Files (x86)\Microsoft Visual Studio\2019\Community\VC\Tools\MSVC\14.29.30133\atlmfc\include\afx.inl
;	COMDAT ?Dump@CObject@@UBEXAAVCDumpContext@@@Z
_TEXT	SEGMENT
___formal$ = 8						; size = 4
?Dump@CObject@@UBEXAAVCDumpContext@@@Z PROC		; CObject::Dump, COMDAT
; _this$ = ecx

; 122  : 	{ /* no dumping in release builds */ }

  00000	c2 04 00	 ret	 4
?Dump@CObject@@UBEXAAVCDumpContext@@@Z ENDP		; CObject::Dump
_TEXT	ENDS
; Function compile flags: /Ogtp
; File C:\Program Files (x86)\Microsoft Visual Studio\2019\Community\VC\Tools\MSVC\14.29.30133\atlmfc\include\afx.inl
;	COMDAT ?AssertValid@CObject@@UBEXXZ
_TEXT	SEGMENT
?AssertValid@CObject@@UBEXXZ PROC			; CObject::AssertValid, COMDAT
; _this$ = ecx

; 120  : 	{ /* no asserts in release builds */ }

  00000	c2 00 00	 ret	 0
?AssertValid@CObject@@UBEXXZ ENDP			; CObject::AssertValid
_TEXT	ENDS
; Function compile flags: /Ogtp
; File C:\Program Files (x86)\Microsoft Visual Studio\2019\Community\VC\Tools\MSVC\14.29.30133\atlmfc\include\afx.inl
;	COMDAT ?Serialize@CObject@@UAEXAAVCArchive@@@Z
_TEXT	SEGMENT
___formal$ = 8						; size = 4
?Serialize@CObject@@UAEXAAVCArchive@@@Z PROC		; CObject::Serialize, COMDAT
; _this$ = ecx

; 106  : 	{ /* CObject does not serialize anything by default */ }

  00000	c2 04 00	 ret	 4
?Serialize@CObject@@UAEXAAVCArchive@@@Z ENDP		; CObject::Serialize
_TEXT	ENDS
; Function compile flags: /Ogtp
; File C:\Program Files (x86)\Microsoft Visual Studio\2019\Community\VC\Tools\MSVC\14.29.30133\atlmfc\include\afx.inl
;	COMDAT ??3CObject@@SGXPAX@Z
_TEXT	SEGMENT
_p$ = 8							; size = 4
??3CObject@@SGXPAX@Z PROC				; CObject::operator delete, COMDAT

; 112  : 	{ ::operator delete(p); }

  00000	55		 push	 ebp
  00001	8b ec		 mov	 ebp, esp
  00003	ff 75 08	 push	 DWORD PTR _p$[ebp]
  00006	e8 00 00 00 00	 call	 ??3@YAXPAX@Z		; operator delete
  0000b	83 c4 04	 add	 esp, 4
  0000e	5d		 pop	 ebp
  0000f	c2 04 00	 ret	 4
??3CObject@@SGXPAX@Z ENDP				; CObject::operator delete
_TEXT	ENDS
; Function compile flags: /Ogtp
; File D:\git\src\IBK\IBK_DRFN\ProjSrc\SrcChartEx\ChartAddIn\ChartDesignPropertyAddIn\ChartDesignPropertyAddIn\DlgLocalLanguageTable.cpp
;	COMDAT ?__empty_global_delete@@YAXPAXI@Z
_TEXT	SEGMENT
___formal$ = 8						; size = 4
___formal$ = 12						; size = 4
?__empty_global_delete@@YAXPAXI@Z PROC			; __empty_global_delete, COMDAT

  00000	c2 00 00	 ret	 0
?__empty_global_delete@@YAXPAXI@Z ENDP			; __empty_global_delete
_TEXT	ENDS
; Function compile flags: /Ogtp
; File D:\git\src\IBK\IBK_DRFN\ProjSrc\SrcChartEx\ChartAddIn\ChartDesignPropertyAddIn\ChartDesignPropertyAddIn\DlgLocalLanguageTable.cpp
;	COMDAT ?__empty_global_delete@@YAXPAX@Z
_TEXT	SEGMENT
___formal$ = 8						; size = 4
?__empty_global_delete@@YAXPAX@Z PROC			; __empty_global_delete, COMDAT

  00000	c2 00 00	 ret	 0
?__empty_global_delete@@YAXPAX@Z ENDP			; __empty_global_delete
_TEXT	ENDS
END
