; Listing generated by Microsoft (R) Optimizing Compiler Version 19.29.30145.0 

	TITLE	D:\git\src\IBK\IBK_DRFN\#DRfn-CS\_Obj\ChartDesignPropertyAddIn\DlgToolTip.obj
	.686P
	.XMM
	include listing.inc
	.model	flat

INCLUDELIB MSVCRT
INCLUDELIB OLDNAMES

PUBLIC	?__empty_global_delete@@YAXPAX@Z		; __empty_global_delete
PUBLIC	?__empty_global_delete@@YAXPAXI@Z		; __empty_global_delete
PUBLIC	??1CObject@@UAE@XZ				; CObject::~CObject
PUBLIC	??3CObject@@SGXPAX@Z				; CObject::operator delete
PUBLIC	?Serialize@CObject@@UAEXAAVCArchive@@@Z		; CObject::Serialize
PUBLIC	?AssertValid@CObject@@UBEXXZ			; CObject::AssertValid
PUBLIC	?Dump@CObject@@UBEXAAVCDumpContext@@@Z		; CObject::Dump
PUBLIC	??1CGdiObject@@UAE@XZ				; CGdiObject::~CGdiObject
PUBLIC	??_GCGdiObject@@UAEPAXI@Z			; CGdiObject::`scalar deleting destructor'
PUBLIC	??1CBrush@@UAE@XZ				; CBrush::~CBrush
PUBLIC	??_GCBrush@@UAEPAXI@Z				; CBrush::`scalar deleting destructor'
PUBLIC	??1CFont@@UAE@XZ				; CFont::~CFont
PUBLIC	??_GCFont@@UAEPAXI@Z				; CFont::`scalar deleting destructor'
PUBLIC	?DoDataExchange@CWnd@@MAEXPAVCDataExchange@@@Z	; CWnd::DoDataExchange
PUBLIC	?BeginModalState@CWnd@@UAEXXZ			; CWnd::BeginModalState
PUBLIC	?EndModalState@CWnd@@UAEXXZ			; CWnd::EndModalState
PUBLIC	??1CMultiLanguageResourceSetter@@QAE@XZ		; CMultiLanguageResourceSetter::~CMultiLanguageResourceSetter
PUBLIC	??_GToolTipInfo@@UAEPAXI@Z			; ToolTipInfo::`scalar deleting destructor'
PUBLIC	??0CDlgToolTip@@QAE@XZ				; CDlgToolTip::CDlgToolTip
PUBLIC	?HideToolTip@CDlgToolTip@@QAEXAAVCPoint@@@Z	; CDlgToolTip::HideToolTip
PUBLIC	??1CDlgToolTip@@UAE@XZ				; CDlgToolTip::~CDlgToolTip
PUBLIC	?Create@CDlgToolTip@@QAEXPAVCWnd@@@Z		; CDlgToolTip::Create
PUBLIC	?ErasePreviousToolTipDisplay@CDlgToolTip@@QAEXI@Z ; CDlgToolTip::ErasePreviousToolTipDisplay
PUBLIC	?ShowToolTip@CDlgToolTip@@QAEXIAAVCPoint@@@Z	; CDlgToolTip::ShowToolTip
PUBLIC	?ShowToolTip@CDlgToolTip@@QAEXAAVCPoint@@@Z	; CDlgToolTip::ShowToolTip
PUBLIC	?AddControlInfo@CDlgToolTip@@QAEHIAAVCDWordArray@@KK@Z ; CDlgToolTip::AddControlInfo
PUBLIC	?RemoveControlInfo@CDlgToolTip@@QAEHI@Z		; CDlgToolTip::RemoveControlInfo
PUBLIC	?CalculateInfoBoxRect@CDlgToolTip@@EAEXIPAVCRect@@AAVCPoint@@@Z ; CDlgToolTip::CalculateInfoBoxRect
PUBLIC	?CalculateHeightAndWidth@CDlgToolTip@@EAEXAAVCStringArray@@@Z ; CDlgToolTip::CalculateHeightAndWidth
PUBLIC	?IsControlIDExisting@CDlgToolTip@@AAEPAUToolTipInfo@@I@Z ; CDlgToolTip::IsControlIDExisting
PUBLIC	?DisplayInfo@CDlgToolTip@@AAEXPAUToolTipInfo@@AAVCPoint@@@Z ; CDlgToolTip::DisplayInfo
PUBLIC	??_GCDlgToolTip@@UAEPAXI@Z			; CDlgToolTip::`scalar deleting destructor'
PUBLIC	??_R0PAVCException@@@8				; CException * `RTTI Type Descriptor'
PUBLIC	??_7CGdiObject@@6B@				; CGdiObject::`vftable'
PUBLIC	??_7CBrush@@6B@					; CBrush::`vftable'
PUBLIC	??_7CFont@@6B@					; CFont::`vftable'
PUBLIC	??_C@_0HD@JJCHHHNK@C?3?2Program?5Files?5?$CIx86?$CJ?2Microsof@ ; `string'
PUBLIC	??_C@_0BP@OIEOKIDM@Exception?5thrown?5in?5destructor@ ; `string'
PUBLIC	??_C@_0BB@HBOOMJBF@?$CFTs?5?$CI?$CFTs?3?$CFd?$CJ?6?$CFTs@ ; `string'
PUBLIC	??_C@_0N@OMEMOKLE@?$CFTs?5?$CI?$CFTs?3?$CFd?$CJ@ ; `string'
PUBLIC	??_R0?AVCObject@@@8				; CObject `RTTI Type Descriptor'
PUBLIC	??_R3CObject@@8					; CObject::`RTTI Class Hierarchy Descriptor'
PUBLIC	??_R2CObject@@8					; CObject::`RTTI Base Class Array'
PUBLIC	??_R1A@?0A@EA@CObject@@8			; CObject::`RTTI Base Class Descriptor at (0,-1,0,64)'
PUBLIC	??_R4CGdiObject@@6B@				; CGdiObject::`RTTI Complete Object Locator'
PUBLIC	??_R0?AVCGdiObject@@@8				; CGdiObject `RTTI Type Descriptor'
PUBLIC	??_R3CGdiObject@@8				; CGdiObject::`RTTI Class Hierarchy Descriptor'
PUBLIC	??_R2CGdiObject@@8				; CGdiObject::`RTTI Base Class Array'
PUBLIC	??_R1A@?0A@EA@CGdiObject@@8			; CGdiObject::`RTTI Base Class Descriptor at (0,-1,0,64)'
PUBLIC	??_R4CBrush@@6B@				; CBrush::`RTTI Complete Object Locator'
PUBLIC	??_R0?AVCBrush@@@8				; CBrush `RTTI Type Descriptor'
PUBLIC	??_R3CBrush@@8					; CBrush::`RTTI Class Hierarchy Descriptor'
PUBLIC	??_R2CBrush@@8					; CBrush::`RTTI Base Class Array'
PUBLIC	??_R1A@?0A@EA@CBrush@@8				; CBrush::`RTTI Base Class Descriptor at (0,-1,0,64)'
PUBLIC	??_R4CFont@@6B@					; CFont::`RTTI Complete Object Locator'
PUBLIC	??_R0?AVCFont@@@8				; CFont `RTTI Type Descriptor'
PUBLIC	??_R3CFont@@8					; CFont::`RTTI Class Hierarchy Descriptor'
PUBLIC	??_R2CFont@@8					; CFont::`RTTI Base Class Array'
PUBLIC	??_R1A@?0A@EA@CFont@@8				; CFont::`RTTI Base Class Descriptor at (0,-1,0,64)'
PUBLIC	??_R1A@?0A@EA@CWnd@@8				; CWnd::`RTTI Base Class Descriptor at (0,-1,0,64)'
PUBLIC	??_R0?AVCWnd@@@8				; CWnd `RTTI Type Descriptor'
PUBLIC	??_R3CWnd@@8					; CWnd::`RTTI Class Hierarchy Descriptor'
PUBLIC	??_R2CWnd@@8					; CWnd::`RTTI Base Class Array'
PUBLIC	??_R1A@?0A@EA@CCmdTarget@@8			; CCmdTarget::`RTTI Base Class Descriptor at (0,-1,0,64)'
PUBLIC	??_R0?AVCCmdTarget@@@8				; CCmdTarget `RTTI Type Descriptor'
PUBLIC	??_R3CCmdTarget@@8				; CCmdTarget::`RTTI Class Hierarchy Descriptor'
PUBLIC	??_R2CCmdTarget@@8				; CCmdTarget::`RTTI Base Class Array'
PUBLIC	??_C@_0BA@ENJOCHIO@LoadResourceDLL@		; `string'
PUBLIC	??_7ToolTipInfo@@6B@				; ToolTipInfo::`vftable'
PUBLIC	??_7CDlgToolTip@@6B@				; CDlgToolTip::`vftable'
PUBLIC	??_C@_0BF@LKOMBMBF@Microsoft?5Sans?5Serif@	; `string'
PUBLIC	??_R4ToolTipInfo@@6B@				; ToolTipInfo::`RTTI Complete Object Locator'
PUBLIC	??_R0?AUToolTipInfo@@@8				; ToolTipInfo `RTTI Type Descriptor'
PUBLIC	??_R3ToolTipInfo@@8				; ToolTipInfo::`RTTI Class Hierarchy Descriptor'
PUBLIC	??_R2ToolTipInfo@@8				; ToolTipInfo::`RTTI Base Class Array'
PUBLIC	??_R1A@?0A@EA@ToolTipInfo@@8			; ToolTipInfo::`RTTI Base Class Descriptor at (0,-1,0,64)'
PUBLIC	??_R4CDlgToolTip@@6B@				; CDlgToolTip::`RTTI Complete Object Locator'
PUBLIC	??_R0?AVCDlgToolTip@@@8				; CDlgToolTip `RTTI Type Descriptor'
PUBLIC	??_R3CDlgToolTip@@8				; CDlgToolTip::`RTTI Class Hierarchy Descriptor'
PUBLIC	??_R2CDlgToolTip@@8				; CDlgToolTip::`RTTI Base Class Array'
PUBLIC	??_R1A@?0A@EA@CDlgToolTip@@8			; CDlgToolTip::`RTTI Base Class Descriptor at (0,-1,0,64)'
EXTRN	??2@YAPAXI@Z:PROC				; operator new
EXTRN	??3@YAXPAX@Z:PROC				; operator delete
EXTRN	?__global_delete@@YAXPAXI@Z:PROC		; __global_delete
EXTRN	___std_terminate:PROC
EXTRN	__imp__GetProcAddress@8:PROC
EXTRN	__imp__CreateFontIndirectA@4:PROC
EXTRN	__imp__CreateSolidBrush@4:PROC
EXTRN	__imp__GetTextMetricsA@8:PROC
EXTRN	__imp__DrawEdge@16:PROC
EXTRN	__imp__EnableWindow@8:PROC
EXTRN	__imp__UpdateWindow@4:PROC
EXTRN	__imp__GetDC@4:PROC
EXTRN	__imp__ReleaseDC@8:PROC
EXTRN	__imp__InvalidateRect@12:PROC
EXTRN	__imp__GetWindowRect@8:PROC
EXTRN	__imp__ChildWindowFromPoint@12:PROC
EXTRN	__imp__FillRect@12:PROC
EXTRN	?AfxThrowInvalidArgException@@YGXXZ:PROC	; AfxThrowInvalidArgException
EXTRN	?GetRuntimeClass@CObject@@UBEPAUCRuntimeClass@@XZ:PROC ; CObject::GetRuntimeClass
EXTRN	__imp_??0?$CStringT@DV?$StrTraitMFC_DLL@DV?$ChTraitsCRT@D@ATL@@@@@ATL@@QAE@XZ:PROC
EXTRN	__imp_??1?$CStringT@DV?$StrTraitMFC_DLL@DV?$ChTraitsCRT@D@ATL@@@@@ATL@@QAE@XZ:PROC
EXTRN	__imp_?Format@?$CStringT@DV?$StrTraitMFC_DLL@DV?$ChTraitsCRT@D@ATL@@@@@ATL@@QAAXPBDZZ:PROC
EXTRN	__imp_?LoadStringA@?$CStringT@DV?$StrTraitMFC_DLL@DV?$ChTraitsCRT@D@ATL@@@@@ATL@@QAEHI@Z:PROC
EXTRN	??0CObArray@@QAE@XZ:PROC			; CObArray::CObArray
EXTRN	?SetSize@CObArray@@QAEXHH@Z:PROC		; CObArray::SetSize
EXTRN	?SetAtGrow@CObArray@@QAEXHPAVCObject@@@Z:PROC	; CObArray::SetAtGrow
EXTRN	?RemoveAt@CObArray@@QAEXHH@Z:PROC		; CObArray::RemoveAt
EXTRN	??1CObArray@@UAE@XZ:PROC			; CObArray::~CObArray
EXTRN	??0CStringArray@@QAE@XZ:PROC			; CStringArray::CStringArray
EXTRN	?SetSize@CStringArray@@QAEXHH@Z:PROC		; CStringArray::SetSize
EXTRN	?SetAtGrow@CStringArray@@QAEXHABV?$CStringT@DV?$StrTraitMFC_DLL@DV?$ChTraitsCRT@D@ATL@@@@@ATL@@@Z:PROC ; CStringArray::SetAtGrow
EXTRN	??1CStringArray@@UAE@XZ:PROC			; CStringArray::~CStringArray
EXTRN	?AfxGetModuleState@@YGPAVAFX_MODULE_STATE@@XZ:PROC ; AfxGetModuleState
EXTRN	?AfxGetStaticModuleState@@YGPAVAFX_MODULE_STATE@@XZ:PROC ; AfxGetStaticModuleState
EXTRN	?GetRuntimeClass@CGdiObject@@UBEPAUCRuntimeClass@@XZ:PROC ; CGdiObject::GetRuntimeClass
EXTRN	?Attach@CGdiObject@@QAEHPAX@Z:PROC		; CGdiObject::Attach
EXTRN	?DeleteObject@CGdiObject@@QAEHXZ:PROC		; CGdiObject::DeleteObject
EXTRN	??_ECGdiObject@@UAEPAXI@Z:PROC			; CGdiObject::`vector deleting destructor'
EXTRN	?GetRuntimeClass@CBrush@@UBEPAUCRuntimeClass@@XZ:PROC ; CBrush::GetRuntimeClass
EXTRN	??_ECBrush@@UAEPAXI@Z:PROC			; CBrush::`vector deleting destructor'
EXTRN	?GetRuntimeClass@CFont@@UBEPAUCRuntimeClass@@XZ:PROC ; CFont::GetRuntimeClass
EXTRN	??_ECFont@@UAEPAXI@Z:PROC			; CFont::`vector deleting destructor'
EXTRN	?FromHandle@CDC@@SGPAV1@PAUHDC__@@@Z:PROC	; CDC::FromHandle
EXTRN	?SelectObject@CDC@@QAEPAVCBrush@@PAV2@@Z:PROC	; CDC::SelectObject
EXTRN	?SetBkMode@CDC@@QAEHH@Z:PROC			; CDC::SetBkMode
EXTRN	?SetTextAlign@CDC@@QAEII@Z:PROC			; CDC::SetTextAlign
EXTRN	?OnCmdMsg@CCmdTarget@@UAEHIHPAXPAUAFX_CMDHANDLERINFO@@@Z:PROC ; CCmdTarget::OnCmdMsg
EXTRN	?IsInvokeAllowed@CCmdTarget@@UAEHJ@Z:PROC	; CCmdTarget::IsInvokeAllowed
EXTRN	?GetDispatchIID@CCmdTarget@@UAEHPAU_GUID@@@Z:PROC ; CCmdTarget::GetDispatchIID
EXTRN	?GetTypeInfoCount@CCmdTarget@@UAEIXZ:PROC	; CCmdTarget::GetTypeInfoCount
EXTRN	?GetTypeLibCache@CCmdTarget@@UAEPAVCTypeLibCache@@XZ:PROC ; CCmdTarget::GetTypeLibCache
EXTRN	?GetTypeLib@CCmdTarget@@UAEJKPAPAUITypeLib@@@Z:PROC ; CCmdTarget::GetTypeLib
EXTRN	?GetCommandMap@CCmdTarget@@MBEPBUAFX_OLECMDMAP@@XZ:PROC ; CCmdTarget::GetCommandMap
EXTRN	?GetDispatchMap@CCmdTarget@@MBEPBUAFX_DISPMAP@@XZ:PROC ; CCmdTarget::GetDispatchMap
EXTRN	?GetConnectionMap@CCmdTarget@@MBEPBUAFX_CONNECTIONMAP@@XZ:PROC ; CCmdTarget::GetConnectionMap
EXTRN	?GetEventSinkMap@CCmdTarget@@MBEPBUAFX_EVENTSINKMAP@@XZ:PROC ; CCmdTarget::GetEventSinkMap
EXTRN	?OnCreateAggregates@CCmdTarget@@UAEHXZ:PROC	; CCmdTarget::OnCreateAggregates
EXTRN	?GetInterfaceHook@CCmdTarget@@UAEPAUIUnknown@@PBX@Z:PROC ; CCmdTarget::GetInterfaceHook
EXTRN	?GetExtraConnectionPoints@CCmdTarget@@MAEHPAVCPtrArray@@@Z:PROC ; CCmdTarget::GetExtraConnectionPoints
EXTRN	?GetConnectionHook@CCmdTarget@@MAEPAUIConnectionPoint@@ABU_GUID@@@Z:PROC ; CCmdTarget::GetConnectionHook
EXTRN	?GetRuntimeClass@CWnd@@UBEPAUCRuntimeClass@@XZ:PROC ; CWnd::GetRuntimeClass
EXTRN	??0CWnd@@QAE@XZ:PROC				; CWnd::CWnd
EXTRN	?FromHandle@CWnd@@SGPAV1@PAUHWND__@@@Z:PROC	; CWnd::FromHandle
EXTRN	?PreSubclassWindow@CWnd@@UAEXXZ:PROC		; CWnd::PreSubclassWindow
EXTRN	?Create@CWnd@@UAEHPBD0KABUtagRECT@@PAV1@IPAUCCreateContext@@@Z:PROC ; CWnd::Create
EXTRN	?CreateEx@CWnd@@UAEHKPBD0KHHHHPAUHWND__@@PAUHMENU__@@PAX@Z:PROC ; CWnd::CreateEx
EXTRN	?CreateEx@CWnd@@UAEHKPBD0KABUtagRECT@@PAV1@IPAX@Z:PROC ; CWnd::CreateEx
EXTRN	?DestroyWindow@CWnd@@UAEHXZ:PROC		; CWnd::DestroyWindow
EXTRN	?PreCreateWindow@CWnd@@UAEHAAUtagCREATESTRUCTA@@@Z:PROC ; CWnd::PreCreateWindow
EXTRN	?CalcWindowRect@CWnd@@UAEXPAUtagRECT@@I@Z:PROC	; CWnd::CalcWindowRect
EXTRN	?GetDlgCtrlID@CWnd@@QBEHXZ:PROC			; CWnd::GetDlgCtrlID
EXTRN	?GetDlgItem@CWnd@@QBEPAV1@H@Z:PROC		; CWnd::GetDlgItem
EXTRN	?GetMenu@CWnd@@UBEPAVCMenu@@XZ:PROC		; CWnd::GetMenu
EXTRN	?SetMenu@CWnd@@UAEHPAVCMenu@@@Z:PROC		; CWnd::SetMenu
EXTRN	?ScreenToClient@CWnd@@QBEXPAUtagRECT@@@Z:PROC	; CWnd::ScreenToClient
EXTRN	?OnToolHitTest@CWnd@@UBEHVCPoint@@PAUtagTOOLINFOA@@@Z:PROC ; CWnd::OnToolHitTest
EXTRN	?GetScrollBarCtrl@CWnd@@UBEPAVCScrollBar@@H@Z:PROC ; CWnd::GetScrollBarCtrl
EXTRN	?WinHelpA@CWnd@@UAEXKI@Z:PROC			; CWnd::WinHelpA
EXTRN	?HtmlHelpA@CWnd@@UAEXKI@Z:PROC			; CWnd::HtmlHelpA
EXTRN	?WinHelpInternal@CWnd@@UAEXKI@Z:PROC		; CWnd::WinHelpInternal
EXTRN	?ContinueModal@CWnd@@UAEHXZ:PROC		; CWnd::ContinueModal
EXTRN	?EndModalLoop@CWnd@@UAEXH@Z:PROC		; CWnd::EndModalLoop
EXTRN	?OnDrawIconicThumbnailOrLivePreview@CWnd@@UAEXAAVCDC@@VCRect@@VCSize@@HAAH@Z:PROC ; CWnd::OnDrawIconicThumbnailOrLivePreview
EXTRN	?GetInterfaceMap@CWnd@@MBEPBUAFX_INTERFACEMAP@@XZ:PROC ; CWnd::GetInterfaceMap
EXTRN	?EnsureStdObj@CWnd@@UAEJXZ:PROC			; CWnd::EnsureStdObj
EXTRN	?get_accParent@CWnd@@UAEJPAPAUIDispatch@@@Z:PROC ; CWnd::get_accParent
EXTRN	?get_accChildCount@CWnd@@UAEJPAJ@Z:PROC		; CWnd::get_accChildCount
EXTRN	?get_accChild@CWnd@@UAEJUtagVARIANT@@PAPAUIDispatch@@@Z:PROC ; CWnd::get_accChild
EXTRN	?get_accName@CWnd@@UAEJUtagVARIANT@@PAPA_W@Z:PROC ; CWnd::get_accName
EXTRN	?get_accValue@CWnd@@UAEJUtagVARIANT@@PAPA_W@Z:PROC ; CWnd::get_accValue
EXTRN	?get_accDescription@CWnd@@UAEJUtagVARIANT@@PAPA_W@Z:PROC ; CWnd::get_accDescription
EXTRN	?get_accRole@CWnd@@UAEJUtagVARIANT@@PAU2@@Z:PROC ; CWnd::get_accRole
EXTRN	?get_accState@CWnd@@UAEJUtagVARIANT@@PAU2@@Z:PROC ; CWnd::get_accState
EXTRN	?get_accHelp@CWnd@@UAEJUtagVARIANT@@PAPA_W@Z:PROC ; CWnd::get_accHelp
EXTRN	?get_accHelpTopic@CWnd@@UAEJPAPA_WUtagVARIANT@@PAJ@Z:PROC ; CWnd::get_accHelpTopic
EXTRN	?get_accKeyboardShortcut@CWnd@@UAEJUtagVARIANT@@PAPA_W@Z:PROC ; CWnd::get_accKeyboardShortcut
EXTRN	?get_accFocus@CWnd@@UAEJPAUtagVARIANT@@@Z:PROC	; CWnd::get_accFocus
EXTRN	?get_accSelection@CWnd@@UAEJPAUtagVARIANT@@@Z:PROC ; CWnd::get_accSelection
EXTRN	?get_accDefaultAction@CWnd@@UAEJUtagVARIANT@@PAPA_W@Z:PROC ; CWnd::get_accDefaultAction
EXTRN	?accSelect@CWnd@@UAEJJUtagVARIANT@@@Z:PROC	; CWnd::accSelect
EXTRN	?accLocation@CWnd@@UAEJPAJ000UtagVARIANT@@@Z:PROC ; CWnd::accLocation
EXTRN	?accNavigate@CWnd@@UAEJJUtagVARIANT@@PAU2@@Z:PROC ; CWnd::accNavigate
EXTRN	?accHitTest@CWnd@@UAEJJJPAUtagVARIANT@@@Z:PROC	; CWnd::accHitTest
EXTRN	?accDoDefaultAction@CWnd@@UAEJUtagVARIANT@@@Z:PROC ; CWnd::accDoDefaultAction
EXTRN	?put_accName@CWnd@@UAEJUtagVARIANT@@PA_W@Z:PROC	; CWnd::put_accName
EXTRN	?put_accValue@CWnd@@UAEJUtagVARIANT@@PA_W@Z:PROC ; CWnd::put_accValue
EXTRN	?SetProxy@CWnd@@UAEJPAUIAccessibleProxy@@@Z:PROC ; CWnd::SetProxy
EXTRN	?CreateAccessibleProxy@CWnd@@UAEJIJPAJ@Z:PROC	; CWnd::CreateAccessibleProxy
EXTRN	?OnCommand@CWnd@@MAEHIJ@Z:PROC			; CWnd::OnCommand
EXTRN	?OnNotify@CWnd@@MAEHIJPAJ@Z:PROC		; CWnd::OnNotify
EXTRN	?GetSuperWndProcAddr@CWnd@@MAEPAP6GJPAUHWND__@@IIJ@ZXZ:PROC ; CWnd::GetSuperWndProcAddr
EXTRN	?PreTranslateMessage@CWnd@@UAEHPAUtagMSG@@@Z:PROC ; CWnd::PreTranslateMessage
EXTRN	?OnAmbientProperty@CWnd@@UAEHPAVCOleControlSite@@JPAUtagVARIANT@@@Z:PROC ; CWnd::OnAmbientProperty
EXTRN	?WindowProc@CWnd@@MAEJIIJ@Z:PROC		; CWnd::WindowProc
EXTRN	?OnWndMsg@CWnd@@MAEHIIJPAJ@Z:PROC		; CWnd::OnWndMsg
EXTRN	?DefWindowProcA@CWnd@@MAEJIIJ@Z:PROC		; CWnd::DefWindowProcA
EXTRN	?PostNcDestroy@CWnd@@MAEXXZ:PROC		; CWnd::PostNcDestroy
EXTRN	?OnChildNotify@CWnd@@MAEHIIJPAJ@Z:PROC		; CWnd::OnChildNotify
EXTRN	?OnTouchInputs@CWnd@@MAEHIPAUtagTOUCHINPUT@@@Z:PROC ; CWnd::OnTouchInputs
EXTRN	?OnTouchInput@CWnd@@MAEHVCPoint@@HHPAUtagTOUCHINPUT@@@Z:PROC ; CWnd::OnTouchInput
EXTRN	?GetGestureStatus@CWnd@@MAEKVCPoint@@@Z:PROC	; CWnd::GetGestureStatus
EXTRN	?OnGestureZoom@CWnd@@MAEHVCPoint@@J@Z:PROC	; CWnd::OnGestureZoom
EXTRN	?OnGesturePan@CWnd@@MAEHVCPoint@@0@Z:PROC	; CWnd::OnGesturePan
EXTRN	?OnGestureRotate@CWnd@@MAEHVCPoint@@N@Z:PROC	; CWnd::OnGestureRotate
EXTRN	?OnGestureTwoFingerTap@CWnd@@MAEHVCPoint@@@Z:PROC ; CWnd::OnGestureTwoFingerTap
EXTRN	?OnGesturePressAndTap@CWnd@@MAEHVCPoint@@J@Z:PROC ; CWnd::OnGesturePressAndTap
EXTRN	?ResizeDynamicLayout@CWnd@@MAEXXZ:PROC		; CWnd::ResizeDynamicLayout
EXTRN	??1CWnd@@UAE@XZ:PROC				; CWnd::~CWnd
EXTRN	?CheckAutoCenter@CWnd@@UAEHXZ:PROC		; CWnd::CheckAutoCenter
EXTRN	?IsFrameWnd@CWnd@@UBEHXZ:PROC			; CWnd::IsFrameWnd
EXTRN	?OnFinalRelease@CWnd@@UAEXXZ:PROC		; CWnd::OnFinalRelease
EXTRN	?CreateControlContainer@CWnd@@MAEHPAPAVCOleControlContainer@@@Z:PROC ; CWnd::CreateControlContainer
EXTRN	?CreateControlSite@CWnd@@MAEHPAVCOleControlContainer@@PAPAVCOleControlSite@@IABU_GUID@@@Z:PROC ; CWnd::CreateControlSite
EXTRN	?SetOccDialogInfo@CWnd@@MAEHPAU_AFX_OCC_DIALOG_INFO@@@Z:PROC ; CWnd::SetOccDialogInfo
EXTRN	?GetOccDialogInfo@CWnd@@MAEPAU_AFX_OCC_DIALOG_INFO@@XZ:PROC ; CWnd::GetOccDialogInfo
EXTRN	?GetMessageMap@CWnd@@MBEPBUAFX_MSGMAP@@XZ:PROC	; CWnd::GetMessageMap
EXTRN	?AfxMessageBox@@YGHPBDII@Z:PROC			; AfxMessageBox
EXTRN	??_EToolTipInfo@@UAEPAXI@Z:PROC			; ToolTipInfo::`vector deleting destructor'
EXTRN	??_ECDlgToolTip@@UAEPAXI@Z:PROC			; CDlgToolTip::`vector deleting destructor'
EXTRN	@__security_check_cookie@4:PROC
EXTRN	___CxxFrameHandler3:PROC
EXTRN	_memset:PROC
EXTRN	??_7type_info@@6B@:QWORD			; type_info::`vftable'
EXTRN	?g_iMetaTable@@3VIMetaTable@@A:BYTE		; g_iMetaTable
EXTRN	___security_cookie:DWORD
;	COMDAT ??_R1A@?0A@EA@CDlgToolTip@@8
rdata$r	SEGMENT
??_R1A@?0A@EA@CDlgToolTip@@8 DD FLAT:??_R0?AVCDlgToolTip@@@8 ; CDlgToolTip::`RTTI Base Class Descriptor at (0,-1,0,64)'
	DD	03H
	DD	00H
	DD	0ffffffffH
	DD	00H
	DD	040H
	DD	FLAT:??_R3CDlgToolTip@@8
rdata$r	ENDS
;	COMDAT ??_R2CDlgToolTip@@8
rdata$r	SEGMENT
??_R2CDlgToolTip@@8 DD FLAT:??_R1A@?0A@EA@CDlgToolTip@@8 ; CDlgToolTip::`RTTI Base Class Array'
	DD	FLAT:??_R1A@?0A@EA@CWnd@@8
	DD	FLAT:??_R1A@?0A@EA@CCmdTarget@@8
	DD	FLAT:??_R1A@?0A@EA@CObject@@8
rdata$r	ENDS
;	COMDAT ??_R3CDlgToolTip@@8
rdata$r	SEGMENT
??_R3CDlgToolTip@@8 DD 00H				; CDlgToolTip::`RTTI Class Hierarchy Descriptor'
	DD	00H
	DD	04H
	DD	FLAT:??_R2CDlgToolTip@@8
rdata$r	ENDS
;	COMDAT ??_R0?AVCDlgToolTip@@@8
data$rs	SEGMENT
??_R0?AVCDlgToolTip@@@8 DD FLAT:??_7type_info@@6B@	; CDlgToolTip `RTTI Type Descriptor'
	DD	00H
	DB	'.?AVCDlgToolTip@@', 00H
data$rs	ENDS
;	COMDAT ??_R4CDlgToolTip@@6B@
rdata$r	SEGMENT
??_R4CDlgToolTip@@6B@ DD 00H				; CDlgToolTip::`RTTI Complete Object Locator'
	DD	00H
	DD	00H
	DD	FLAT:??_R0?AVCDlgToolTip@@@8
	DD	FLAT:??_R3CDlgToolTip@@8
rdata$r	ENDS
;	COMDAT ??_R1A@?0A@EA@ToolTipInfo@@8
rdata$r	SEGMENT
??_R1A@?0A@EA@ToolTipInfo@@8 DD FLAT:??_R0?AUToolTipInfo@@@8 ; ToolTipInfo::`RTTI Base Class Descriptor at (0,-1,0,64)'
	DD	01H
	DD	00H
	DD	0ffffffffH
	DD	00H
	DD	040H
	DD	FLAT:??_R3ToolTipInfo@@8
rdata$r	ENDS
;	COMDAT ??_R2ToolTipInfo@@8
rdata$r	SEGMENT
??_R2ToolTipInfo@@8 DD FLAT:??_R1A@?0A@EA@ToolTipInfo@@8 ; ToolTipInfo::`RTTI Base Class Array'
	DD	FLAT:??_R1A@?0A@EA@CObject@@8
rdata$r	ENDS
;	COMDAT ??_R3ToolTipInfo@@8
rdata$r	SEGMENT
??_R3ToolTipInfo@@8 DD 00H				; ToolTipInfo::`RTTI Class Hierarchy Descriptor'
	DD	00H
	DD	02H
	DD	FLAT:??_R2ToolTipInfo@@8
rdata$r	ENDS
;	COMDAT ??_R0?AUToolTipInfo@@@8
data$rs	SEGMENT
??_R0?AUToolTipInfo@@@8 DD FLAT:??_7type_info@@6B@	; ToolTipInfo `RTTI Type Descriptor'
	DD	00H
	DB	'.?AUToolTipInfo@@', 00H
data$rs	ENDS
;	COMDAT ??_R4ToolTipInfo@@6B@
rdata$r	SEGMENT
??_R4ToolTipInfo@@6B@ DD 00H				; ToolTipInfo::`RTTI Complete Object Locator'
	DD	00H
	DD	00H
	DD	FLAT:??_R0?AUToolTipInfo@@@8
	DD	FLAT:??_R3ToolTipInfo@@8
rdata$r	ENDS
;	COMDAT ??_C@_0BF@LKOMBMBF@Microsoft?5Sans?5Serif@
CONST	SEGMENT
??_C@_0BF@LKOMBMBF@Microsoft?5Sans?5Serif@ DB 'Microsoft Sans Serif', 00H ; `string'
CONST	ENDS
;	COMDAT ??_7CDlgToolTip@@6B@
CONST	SEGMENT
??_7CDlgToolTip@@6B@ DD FLAT:??_R4CDlgToolTip@@6B@	; CDlgToolTip::`vftable'
	DD	FLAT:?GetRuntimeClass@CWnd@@UBEPAUCRuntimeClass@@XZ
	DD	FLAT:??_ECDlgToolTip@@UAEPAXI@Z
	DD	FLAT:?Serialize@CObject@@UAEXAAVCArchive@@@Z
	DD	FLAT:?AssertValid@CObject@@UBEXXZ
	DD	FLAT:?Dump@CObject@@UBEXAAVCDumpContext@@@Z
	DD	FLAT:?OnCmdMsg@CCmdTarget@@UAEHIHPAXPAUAFX_CMDHANDLERINFO@@@Z
	DD	FLAT:?OnFinalRelease@CWnd@@UAEXXZ
	DD	FLAT:?IsInvokeAllowed@CCmdTarget@@UAEHJ@Z
	DD	FLAT:?GetDispatchIID@CCmdTarget@@UAEHPAU_GUID@@@Z
	DD	FLAT:?GetTypeInfoCount@CCmdTarget@@UAEIXZ
	DD	FLAT:?GetTypeLibCache@CCmdTarget@@UAEPAVCTypeLibCache@@XZ
	DD	FLAT:?GetTypeLib@CCmdTarget@@UAEJKPAPAUITypeLib@@@Z
	DD	FLAT:?GetMessageMap@CWnd@@MBEPBUAFX_MSGMAP@@XZ
	DD	FLAT:?GetCommandMap@CCmdTarget@@MBEPBUAFX_OLECMDMAP@@XZ
	DD	FLAT:?GetDispatchMap@CCmdTarget@@MBEPBUAFX_DISPMAP@@XZ
	DD	FLAT:?GetConnectionMap@CCmdTarget@@MBEPBUAFX_CONNECTIONMAP@@XZ
	DD	FLAT:?GetInterfaceMap@CWnd@@MBEPBUAFX_INTERFACEMAP@@XZ
	DD	FLAT:?GetEventSinkMap@CCmdTarget@@MBEPBUAFX_EVENTSINKMAP@@XZ
	DD	FLAT:?OnCreateAggregates@CCmdTarget@@UAEHXZ
	DD	FLAT:?GetInterfaceHook@CCmdTarget@@UAEPAUIUnknown@@PBX@Z
	DD	FLAT:?GetExtraConnectionPoints@CCmdTarget@@MAEHPAVCPtrArray@@@Z
	DD	FLAT:?GetConnectionHook@CCmdTarget@@MAEPAUIConnectionPoint@@ABU_GUID@@@Z
	DD	FLAT:?PreSubclassWindow@CWnd@@UAEXXZ
	DD	FLAT:?Create@CWnd@@UAEHPBD0KABUtagRECT@@PAV1@IPAUCCreateContext@@@Z
	DD	FLAT:?CreateEx@CWnd@@UAEHKPBD0KABUtagRECT@@PAV1@IPAX@Z
	DD	FLAT:?CreateEx@CWnd@@UAEHKPBD0KHHHHPAUHWND__@@PAUHMENU__@@PAX@Z
	DD	FLAT:?DestroyWindow@CWnd@@UAEHXZ
	DD	FLAT:?PreCreateWindow@CWnd@@UAEHAAUtagCREATESTRUCTA@@@Z
	DD	FLAT:?CalcWindowRect@CWnd@@UAEXPAUtagRECT@@I@Z
	DD	FLAT:?GetMenu@CWnd@@UBEPAVCMenu@@XZ
	DD	FLAT:?SetMenu@CWnd@@UAEHPAVCMenu@@@Z
	DD	FLAT:?OnToolHitTest@CWnd@@UBEHVCPoint@@PAUtagTOOLINFOA@@@Z
	DD	FLAT:?GetScrollBarCtrl@CWnd@@UBEPAVCScrollBar@@H@Z
	DD	FLAT:?WinHelpA@CWnd@@UAEXKI@Z
	DD	FLAT:?HtmlHelpA@CWnd@@UAEXKI@Z
	DD	FLAT:?WinHelpInternal@CWnd@@UAEXKI@Z
	DD	FLAT:?ContinueModal@CWnd@@UAEHXZ
	DD	FLAT:?EndModalLoop@CWnd@@UAEXH@Z
	DD	FLAT:?OnDrawIconicThumbnailOrLivePreview@CWnd@@UAEXAAVCDC@@VCRect@@VCSize@@HAAH@Z
	DD	FLAT:?EnsureStdObj@CWnd@@UAEJXZ
	DD	FLAT:?get_accParent@CWnd@@UAEJPAPAUIDispatch@@@Z
	DD	FLAT:?get_accChildCount@CWnd@@UAEJPAJ@Z
	DD	FLAT:?get_accChild@CWnd@@UAEJUtagVARIANT@@PAPAUIDispatch@@@Z
	DD	FLAT:?get_accName@CWnd@@UAEJUtagVARIANT@@PAPA_W@Z
	DD	FLAT:?get_accValue@CWnd@@UAEJUtagVARIANT@@PAPA_W@Z
	DD	FLAT:?get_accDescription@CWnd@@UAEJUtagVARIANT@@PAPA_W@Z
	DD	FLAT:?get_accRole@CWnd@@UAEJUtagVARIANT@@PAU2@@Z
	DD	FLAT:?get_accState@CWnd@@UAEJUtagVARIANT@@PAU2@@Z
	DD	FLAT:?get_accHelp@CWnd@@UAEJUtagVARIANT@@PAPA_W@Z
	DD	FLAT:?get_accHelpTopic@CWnd@@UAEJPAPA_WUtagVARIANT@@PAJ@Z
	DD	FLAT:?get_accKeyboardShortcut@CWnd@@UAEJUtagVARIANT@@PAPA_W@Z
	DD	FLAT:?get_accFocus@CWnd@@UAEJPAUtagVARIANT@@@Z
	DD	FLAT:?get_accSelection@CWnd@@UAEJPAUtagVARIANT@@@Z
	DD	FLAT:?get_accDefaultAction@CWnd@@UAEJUtagVARIANT@@PAPA_W@Z
	DD	FLAT:?accSelect@CWnd@@UAEJJUtagVARIANT@@@Z
	DD	FLAT:?accLocation@CWnd@@UAEJPAJ000UtagVARIANT@@@Z
	DD	FLAT:?accNavigate@CWnd@@UAEJJUtagVARIANT@@PAU2@@Z
	DD	FLAT:?accHitTest@CWnd@@UAEJJJPAUtagVARIANT@@@Z
	DD	FLAT:?accDoDefaultAction@CWnd@@UAEJUtagVARIANT@@@Z
	DD	FLAT:?put_accName@CWnd@@UAEJUtagVARIANT@@PA_W@Z
	DD	FLAT:?put_accValue@CWnd@@UAEJUtagVARIANT@@PA_W@Z
	DD	FLAT:?SetProxy@CWnd@@UAEJPAUIAccessibleProxy@@@Z
	DD	FLAT:?CreateAccessibleProxy@CWnd@@UAEJIJPAJ@Z
	DD	FLAT:?OnCommand@CWnd@@MAEHIJ@Z
	DD	FLAT:?OnNotify@CWnd@@MAEHIJPAJ@Z
	DD	FLAT:?GetSuperWndProcAddr@CWnd@@MAEPAP6GJPAUHWND__@@IIJ@ZXZ
	DD	FLAT:?DoDataExchange@CWnd@@MAEXPAVCDataExchange@@@Z
	DD	FLAT:?BeginModalState@CWnd@@UAEXXZ
	DD	FLAT:?EndModalState@CWnd@@UAEXXZ
	DD	FLAT:?PreTranslateMessage@CWnd@@UAEHPAUtagMSG@@@Z
	DD	FLAT:?OnAmbientProperty@CWnd@@UAEHPAVCOleControlSite@@JPAUtagVARIANT@@@Z
	DD	FLAT:?WindowProc@CWnd@@MAEJIIJ@Z
	DD	FLAT:?OnWndMsg@CWnd@@MAEHIIJPAJ@Z
	DD	FLAT:?DefWindowProcA@CWnd@@MAEJIIJ@Z
	DD	FLAT:?PostNcDestroy@CWnd@@MAEXXZ
	DD	FLAT:?OnChildNotify@CWnd@@MAEHIIJPAJ@Z
	DD	FLAT:?OnTouchInputs@CWnd@@MAEHIPAUtagTOUCHINPUT@@@Z
	DD	FLAT:?OnTouchInput@CWnd@@MAEHVCPoint@@HHPAUtagTOUCHINPUT@@@Z
	DD	FLAT:?GetGestureStatus@CWnd@@MAEKVCPoint@@@Z
	DD	FLAT:?OnGestureZoom@CWnd@@MAEHVCPoint@@J@Z
	DD	FLAT:?OnGesturePan@CWnd@@MAEHVCPoint@@0@Z
	DD	FLAT:?OnGestureRotate@CWnd@@MAEHVCPoint@@N@Z
	DD	FLAT:?OnGestureTwoFingerTap@CWnd@@MAEHVCPoint@@@Z
	DD	FLAT:?OnGesturePressAndTap@CWnd@@MAEHVCPoint@@J@Z
	DD	FLAT:?ResizeDynamicLayout@CWnd@@MAEXXZ
	DD	FLAT:?CheckAutoCenter@CWnd@@UAEHXZ
	DD	FLAT:?IsFrameWnd@CWnd@@UBEHXZ
	DD	FLAT:?CreateControlContainer@CWnd@@MAEHPAPAVCOleControlContainer@@@Z
	DD	FLAT:?CreateControlSite@CWnd@@MAEHPAVCOleControlContainer@@PAPAVCOleControlSite@@IABU_GUID@@@Z
	DD	FLAT:?SetOccDialogInfo@CWnd@@MAEHPAU_AFX_OCC_DIALOG_INFO@@@Z
	DD	FLAT:?GetOccDialogInfo@CWnd@@MAEPAU_AFX_OCC_DIALOG_INFO@@XZ
	DD	FLAT:?CalculateInfoBoxRect@CDlgToolTip@@EAEXIPAVCRect@@AAVCPoint@@@Z
	DD	FLAT:?CalculateHeightAndWidth@CDlgToolTip@@EAEXAAVCStringArray@@@Z
CONST	ENDS
;	COMDAT ??_7ToolTipInfo@@6B@
CONST	SEGMENT
??_7ToolTipInfo@@6B@ DD FLAT:??_R4ToolTipInfo@@6B@	; ToolTipInfo::`vftable'
	DD	FLAT:?GetRuntimeClass@CObject@@UBEPAUCRuntimeClass@@XZ
	DD	FLAT:??_EToolTipInfo@@UAEPAXI@Z
	DD	FLAT:?Serialize@CObject@@UAEXAAVCArchive@@@Z
	DD	FLAT:?AssertValid@CObject@@UBEXXZ
	DD	FLAT:?Dump@CObject@@UBEXAAVCDumpContext@@@Z
CONST	ENDS
;	COMDAT ??_C@_0BA@ENJOCHIO@LoadResourceDLL@
CONST	SEGMENT
??_C@_0BA@ENJOCHIO@LoadResourceDLL@ DB 'LoadResourceDLL', 00H ; `string'
CONST	ENDS
;	COMDAT ??_R2CCmdTarget@@8
rdata$r	SEGMENT
??_R2CCmdTarget@@8 DD FLAT:??_R1A@?0A@EA@CCmdTarget@@8	; CCmdTarget::`RTTI Base Class Array'
	DD	FLAT:??_R1A@?0A@EA@CObject@@8
rdata$r	ENDS
;	COMDAT ??_R3CCmdTarget@@8
rdata$r	SEGMENT
??_R3CCmdTarget@@8 DD 00H				; CCmdTarget::`RTTI Class Hierarchy Descriptor'
	DD	00H
	DD	02H
	DD	FLAT:??_R2CCmdTarget@@8
rdata$r	ENDS
;	COMDAT ??_R0?AVCCmdTarget@@@8
data$rs	SEGMENT
??_R0?AVCCmdTarget@@@8 DD FLAT:??_7type_info@@6B@	; CCmdTarget `RTTI Type Descriptor'
	DD	00H
	DB	'.?AVCCmdTarget@@', 00H
data$rs	ENDS
;	COMDAT ??_R1A@?0A@EA@CCmdTarget@@8
rdata$r	SEGMENT
??_R1A@?0A@EA@CCmdTarget@@8 DD FLAT:??_R0?AVCCmdTarget@@@8 ; CCmdTarget::`RTTI Base Class Descriptor at (0,-1,0,64)'
	DD	01H
	DD	00H
	DD	0ffffffffH
	DD	00H
	DD	040H
	DD	FLAT:??_R3CCmdTarget@@8
rdata$r	ENDS
;	COMDAT ??_R2CWnd@@8
rdata$r	SEGMENT
??_R2CWnd@@8 DD	FLAT:??_R1A@?0A@EA@CWnd@@8		; CWnd::`RTTI Base Class Array'
	DD	FLAT:??_R1A@?0A@EA@CCmdTarget@@8
	DD	FLAT:??_R1A@?0A@EA@CObject@@8
rdata$r	ENDS
;	COMDAT ??_R3CWnd@@8
rdata$r	SEGMENT
??_R3CWnd@@8 DD	00H					; CWnd::`RTTI Class Hierarchy Descriptor'
	DD	00H
	DD	03H
	DD	FLAT:??_R2CWnd@@8
rdata$r	ENDS
;	COMDAT ??_R0?AVCWnd@@@8
data$rs	SEGMENT
??_R0?AVCWnd@@@8 DD FLAT:??_7type_info@@6B@		; CWnd `RTTI Type Descriptor'
	DD	00H
	DB	'.?AVCWnd@@', 00H
data$rs	ENDS
;	COMDAT ??_R1A@?0A@EA@CWnd@@8
rdata$r	SEGMENT
??_R1A@?0A@EA@CWnd@@8 DD FLAT:??_R0?AVCWnd@@@8		; CWnd::`RTTI Base Class Descriptor at (0,-1,0,64)'
	DD	02H
	DD	00H
	DD	0ffffffffH
	DD	00H
	DD	040H
	DD	FLAT:??_R3CWnd@@8
rdata$r	ENDS
;	COMDAT ??_R1A@?0A@EA@CFont@@8
rdata$r	SEGMENT
??_R1A@?0A@EA@CFont@@8 DD FLAT:??_R0?AVCFont@@@8	; CFont::`RTTI Base Class Descriptor at (0,-1,0,64)'
	DD	02H
	DD	00H
	DD	0ffffffffH
	DD	00H
	DD	040H
	DD	FLAT:??_R3CFont@@8
rdata$r	ENDS
;	COMDAT ??_R2CFont@@8
rdata$r	SEGMENT
??_R2CFont@@8 DD FLAT:??_R1A@?0A@EA@CFont@@8		; CFont::`RTTI Base Class Array'
	DD	FLAT:??_R1A@?0A@EA@CGdiObject@@8
	DD	FLAT:??_R1A@?0A@EA@CObject@@8
rdata$r	ENDS
;	COMDAT ??_R3CFont@@8
rdata$r	SEGMENT
??_R3CFont@@8 DD 00H					; CFont::`RTTI Class Hierarchy Descriptor'
	DD	00H
	DD	03H
	DD	FLAT:??_R2CFont@@8
rdata$r	ENDS
;	COMDAT ??_R0?AVCFont@@@8
data$rs	SEGMENT
??_R0?AVCFont@@@8 DD FLAT:??_7type_info@@6B@		; CFont `RTTI Type Descriptor'
	DD	00H
	DB	'.?AVCFont@@', 00H
data$rs	ENDS
;	COMDAT ??_R4CFont@@6B@
rdata$r	SEGMENT
??_R4CFont@@6B@ DD 00H					; CFont::`RTTI Complete Object Locator'
	DD	00H
	DD	00H
	DD	FLAT:??_R0?AVCFont@@@8
	DD	FLAT:??_R3CFont@@8
rdata$r	ENDS
;	COMDAT ??_R1A@?0A@EA@CBrush@@8
rdata$r	SEGMENT
??_R1A@?0A@EA@CBrush@@8 DD FLAT:??_R0?AVCBrush@@@8	; CBrush::`RTTI Base Class Descriptor at (0,-1,0,64)'
	DD	02H
	DD	00H
	DD	0ffffffffH
	DD	00H
	DD	040H
	DD	FLAT:??_R3CBrush@@8
rdata$r	ENDS
;	COMDAT ??_R2CBrush@@8
rdata$r	SEGMENT
??_R2CBrush@@8 DD FLAT:??_R1A@?0A@EA@CBrush@@8		; CBrush::`RTTI Base Class Array'
	DD	FLAT:??_R1A@?0A@EA@CGdiObject@@8
	DD	FLAT:??_R1A@?0A@EA@CObject@@8
rdata$r	ENDS
;	COMDAT ??_R3CBrush@@8
rdata$r	SEGMENT
??_R3CBrush@@8 DD 00H					; CBrush::`RTTI Class Hierarchy Descriptor'
	DD	00H
	DD	03H
	DD	FLAT:??_R2CBrush@@8
rdata$r	ENDS
;	COMDAT ??_R0?AVCBrush@@@8
data$rs	SEGMENT
??_R0?AVCBrush@@@8 DD FLAT:??_7type_info@@6B@		; CBrush `RTTI Type Descriptor'
	DD	00H
	DB	'.?AVCBrush@@', 00H
data$rs	ENDS
;	COMDAT ??_R4CBrush@@6B@
rdata$r	SEGMENT
??_R4CBrush@@6B@ DD 00H					; CBrush::`RTTI Complete Object Locator'
	DD	00H
	DD	00H
	DD	FLAT:??_R0?AVCBrush@@@8
	DD	FLAT:??_R3CBrush@@8
rdata$r	ENDS
;	COMDAT ??_R1A@?0A@EA@CGdiObject@@8
rdata$r	SEGMENT
??_R1A@?0A@EA@CGdiObject@@8 DD FLAT:??_R0?AVCGdiObject@@@8 ; CGdiObject::`RTTI Base Class Descriptor at (0,-1,0,64)'
	DD	01H
	DD	00H
	DD	0ffffffffH
	DD	00H
	DD	040H
	DD	FLAT:??_R3CGdiObject@@8
rdata$r	ENDS
;	COMDAT ??_R2CGdiObject@@8
rdata$r	SEGMENT
??_R2CGdiObject@@8 DD FLAT:??_R1A@?0A@EA@CGdiObject@@8	; CGdiObject::`RTTI Base Class Array'
	DD	FLAT:??_R1A@?0A@EA@CObject@@8
rdata$r	ENDS
;	COMDAT ??_R3CGdiObject@@8
rdata$r	SEGMENT
??_R3CGdiObject@@8 DD 00H				; CGdiObject::`RTTI Class Hierarchy Descriptor'
	DD	00H
	DD	02H
	DD	FLAT:??_R2CGdiObject@@8
rdata$r	ENDS
;	COMDAT ??_R0?AVCGdiObject@@@8
data$rs	SEGMENT
??_R0?AVCGdiObject@@@8 DD FLAT:??_7type_info@@6B@	; CGdiObject `RTTI Type Descriptor'
	DD	00H
	DB	'.?AVCGdiObject@@', 00H
data$rs	ENDS
;	COMDAT ??_R4CGdiObject@@6B@
rdata$r	SEGMENT
??_R4CGdiObject@@6B@ DD 00H				; CGdiObject::`RTTI Complete Object Locator'
	DD	00H
	DD	00H
	DD	FLAT:??_R0?AVCGdiObject@@@8
	DD	FLAT:??_R3CGdiObject@@8
rdata$r	ENDS
;	COMDAT ??_R1A@?0A@EA@CObject@@8
rdata$r	SEGMENT
??_R1A@?0A@EA@CObject@@8 DD FLAT:??_R0?AVCObject@@@8	; CObject::`RTTI Base Class Descriptor at (0,-1,0,64)'
	DD	00H
	DD	00H
	DD	0ffffffffH
	DD	00H
	DD	040H
	DD	FLAT:??_R3CObject@@8
rdata$r	ENDS
;	COMDAT ??_R2CObject@@8
rdata$r	SEGMENT
??_R2CObject@@8 DD FLAT:??_R1A@?0A@EA@CObject@@8	; CObject::`RTTI Base Class Array'
rdata$r	ENDS
;	COMDAT ??_R3CObject@@8
rdata$r	SEGMENT
??_R3CObject@@8 DD 00H					; CObject::`RTTI Class Hierarchy Descriptor'
	DD	00H
	DD	01H
	DD	FLAT:??_R2CObject@@8
rdata$r	ENDS
;	COMDAT ??_R0?AVCObject@@@8
data$rs	SEGMENT
??_R0?AVCObject@@@8 DD FLAT:??_7type_info@@6B@		; CObject `RTTI Type Descriptor'
	DD	00H
	DB	'.?AVCObject@@', 00H
data$rs	ENDS
;	COMDAT ??_C@_0N@OMEMOKLE@?$CFTs?5?$CI?$CFTs?3?$CFd?$CJ@
CONST	SEGMENT
??_C@_0N@OMEMOKLE@?$CFTs?5?$CI?$CFTs?3?$CFd?$CJ@ DB '%Ts (%Ts:%d)', 00H ; `string'
CONST	ENDS
;	COMDAT ??_C@_0BB@HBOOMJBF@?$CFTs?5?$CI?$CFTs?3?$CFd?$CJ?6?$CFTs@
CONST	SEGMENT
??_C@_0BB@HBOOMJBF@?$CFTs?5?$CI?$CFTs?3?$CFd?$CJ?6?$CFTs@ DB '%Ts (%Ts:%d'
	DB	')', 0aH, '%Ts', 00H				; `string'
CONST	ENDS
;	COMDAT ??_C@_0BP@OIEOKIDM@Exception?5thrown?5in?5destructor@
CONST	SEGMENT
??_C@_0BP@OIEOKIDM@Exception?5thrown?5in?5destructor@ DB 'Exception throw'
	DB	'n in destructor', 00H			; `string'
CONST	ENDS
;	COMDAT ??_C@_0HD@JJCHHHNK@C?3?2Program?5Files?5?$CIx86?$CJ?2Microsof@
CONST	SEGMENT
??_C@_0HD@JJCHHHNK@C?3?2Program?5Files?5?$CIx86?$CJ?2Microsof@ DB 'C:\Pro'
	DB	'gram Files (x86)\Microsoft Visual Studio\2019\Community\VC\To'
	DB	'ols\MSVC\14.29.30133\atlmfc\include\afxwin1.inl', 00H ; `string'
CONST	ENDS
;	COMDAT ??_7CFont@@6B@
CONST	SEGMENT
??_7CFont@@6B@ DD FLAT:??_R4CFont@@6B@			; CFont::`vftable'
	DD	FLAT:?GetRuntimeClass@CFont@@UBEPAUCRuntimeClass@@XZ
	DD	FLAT:??_ECFont@@UAEPAXI@Z
	DD	FLAT:?Serialize@CObject@@UAEXAAVCArchive@@@Z
	DD	FLAT:?AssertValid@CObject@@UBEXXZ
	DD	FLAT:?Dump@CObject@@UBEXAAVCDumpContext@@@Z
CONST	ENDS
;	COMDAT ??_7CBrush@@6B@
CONST	SEGMENT
??_7CBrush@@6B@ DD FLAT:??_R4CBrush@@6B@		; CBrush::`vftable'
	DD	FLAT:?GetRuntimeClass@CBrush@@UBEPAUCRuntimeClass@@XZ
	DD	FLAT:??_ECBrush@@UAEPAXI@Z
	DD	FLAT:?Serialize@CObject@@UAEXAAVCArchive@@@Z
	DD	FLAT:?AssertValid@CObject@@UBEXXZ
	DD	FLAT:?Dump@CObject@@UBEXAAVCDumpContext@@@Z
CONST	ENDS
;	COMDAT ??_7CGdiObject@@6B@
CONST	SEGMENT
??_7CGdiObject@@6B@ DD FLAT:??_R4CGdiObject@@6B@	; CGdiObject::`vftable'
	DD	FLAT:?GetRuntimeClass@CGdiObject@@UBEPAUCRuntimeClass@@XZ
	DD	FLAT:??_ECGdiObject@@UAEPAXI@Z
	DD	FLAT:?Serialize@CObject@@UAEXAAVCArchive@@@Z
	DD	FLAT:?AssertValid@CObject@@UBEXXZ
	DD	FLAT:?Dump@CObject@@UBEXAAVCDumpContext@@@Z
CONST	ENDS
;	COMDAT ??_R0PAVCException@@@8
data$r	SEGMENT
??_R0PAVCException@@@8 DD FLAT:??_7type_info@@6B@	; CException * `RTTI Type Descriptor'
	DD	00H
	DB	'.PAVCException@@', 00H
data$r	ENDS
;	COMDAT xdata$x
xdata$x	SEGMENT
__unwindtable$??_GCDlgToolTip@@UAEPAXI@Z DD 0ffffffffH
	DD	FLAT:___std_terminate
__ehfuncinfo$??_GCDlgToolTip@@UAEPAXI@Z DD 019930522H
	DD	01H
	DD	FLAT:__unwindtable$??_GCDlgToolTip@@UAEPAXI@Z
	DD	2 DUP(00H)
	DD	2 DUP(00H)
	DD	00H
	DD	05H
xdata$x	ENDS
;	COMDAT xdata$x
xdata$x	SEGMENT
__unwindtable$?DisplayInfo@CDlgToolTip@@AAEXPAUToolTipInfo@@AAVCPoint@@@Z DD 0ffffffffH
	DD	FLAT:__unwindfunclet$?DisplayInfo@CDlgToolTip@@AAEXPAUToolTipInfo@@AAVCPoint@@@Z$0
	DD	00H
	DD	FLAT:__unwindfunclet$?DisplayInfo@CDlgToolTip@@AAEXPAUToolTipInfo@@AAVCPoint@@@Z$1
	DD	01H
	DD	FLAT:__unwindfunclet$?DisplayInfo@CDlgToolTip@@AAEXPAUToolTipInfo@@AAVCPoint@@@Z$2
__ehfuncinfo$?DisplayInfo@CDlgToolTip@@AAEXPAUToolTipInfo@@AAVCPoint@@@Z DD 019930522H
	DD	03H
	DD	FLAT:__unwindtable$?DisplayInfo@CDlgToolTip@@AAEXPAUToolTipInfo@@AAVCPoint@@@Z
	DD	2 DUP(00H)
	DD	2 DUP(00H)
	DD	00H
	DD	01H
xdata$x	ENDS
;	COMDAT xdata$x
xdata$x	SEGMENT
__unwindtable$?AddControlInfo@CDlgToolTip@@QAEHIAAVCDWordArray@@KK@Z DD 0ffffffffH
	DD	FLAT:__unwindfunclet$?AddControlInfo@CDlgToolTip@@QAEHIAAVCDWordArray@@KK@Z$0
	DD	0ffffffffH
	DD	FLAT:__unwindfunclet$?AddControlInfo@CDlgToolTip@@QAEHIAAVCDWordArray@@KK@Z$1
	DD	01H
	DD	FLAT:__unwindfunclet$?AddControlInfo@CDlgToolTip@@QAEHIAAVCDWordArray@@KK@Z$2
	DD	0ffffffffH
	DD	FLAT:___std_terminate
__ehfuncinfo$?AddControlInfo@CDlgToolTip@@QAEHIAAVCDWordArray@@KK@Z DD 019930522H
	DD	04H
	DD	FLAT:__unwindtable$?AddControlInfo@CDlgToolTip@@QAEHIAAVCDWordArray@@KK@Z
	DD	2 DUP(00H)
	DD	2 DUP(00H)
	DD	00H
	DD	01H
xdata$x	ENDS
;	COMDAT xdata$x
xdata$x	SEGMENT
__ehfuncinfo$??1CDlgToolTip@@UAE@XZ DD 019930522H
	DD	00H
	DD	00H
	DD	2 DUP(00H)
	DD	2 DUP(00H)
	DD	00H
	DD	05H
xdata$x	ENDS
;	COMDAT xdata$x
xdata$x	SEGMENT
__unwindtable$??0CDlgToolTip@@QAE@XZ DD 0ffffffffH
	DD	FLAT:__unwindfunclet$??0CDlgToolTip@@QAE@XZ$0
	DD	00H
	DD	FLAT:__unwindfunclet$??0CDlgToolTip@@QAE@XZ$1
__ehfuncinfo$??0CDlgToolTip@@QAE@XZ DD 019930522H
	DD	02H
	DD	FLAT:__unwindtable$??0CDlgToolTip@@QAE@XZ
	DD	2 DUP(00H)
	DD	2 DUP(00H)
	DD	00H
	DD	01H
xdata$x	ENDS
;	COMDAT xdata$x
xdata$x	SEGMENT
__ehfuncinfo$??1CMultiLanguageResourceSetter@@QAE@XZ DD 019930522H
	DD	00H
	DD	00H
	DD	2 DUP(00H)
	DD	2 DUP(00H)
	DD	00H
	DD	05H
xdata$x	ENDS
;	COMDAT xdata$x
xdata$x	SEGMENT
__catchsym$??1CGdiObject@@UAE@XZ$3 DD 00H
	DD	FLAT:??_R0PAVCException@@@8
	DD	0fffffde4H
	DD	FLAT:__catch$??1CGdiObject@@UAE@XZ$0
__tryblocktable$??1CGdiObject@@UAE@XZ DD 00H
	DD	00H
	DD	02H
	DD	01H
	DD	FLAT:__catchsym$??1CGdiObject@@UAE@XZ$3
__unwindtable$??1CGdiObject@@UAE@XZ DD 0ffffffffH
	DD	00H
	DD	0ffffffffH
	DD	00H
	DD	01H
	DD	FLAT:__unwindfunclet$??1CGdiObject@@UAE@XZ$2
__ehfuncinfo$??1CGdiObject@@UAE@XZ DD 019930522H
	DD	03H
	DD	FLAT:__unwindtable$??1CGdiObject@@UAE@XZ
	DD	01H
	DD	FLAT:__tryblocktable$??1CGdiObject@@UAE@XZ
	DD	2 DUP(00H)
	DD	00H
	DD	05H
xdata$x	ENDS
; Function compile flags: /Ogtp
; File D:\git\src\IBK\IBK_DRFN\ProjSrc\SrcChartEx\ChartAddIn\ChartDesignPropertyAddIn\ChartDesignPropertyAddIn\DlgToolTip.cpp
; File C:\Program Files (x86)\Microsoft Visual Studio\2019\Community\VC\Tools\MSVC\14.29.30133\atlmfc\include\afxcoll.inl
; File D:\git\src\IBK\IBK_DRFN\ProjSrc\SrcChartEx\ChartAddIn\ChartDesignPropertyAddIn\ChartDesignPropertyAddIn\DlgToolTip.cpp
; File C:\Program Files (x86)\Microsoft Visual Studio\2019\Community\VC\Tools\MSVC\14.29.30133\atlmfc\include\afxcoll.inl
; File D:\git\src\IBK\IBK_DRFN\ProjSrc\SrcChartEx\ChartAddIn\ChartDesignPropertyAddIn\ChartDesignPropertyAddIn\DlgToolTip.cpp
; File C:\Program Files (x86)\Microsoft Visual Studio\2019\Community\VC\Tools\MSVC\14.29.30133\atlmfc\include\afx.inl
; File C:\Program Files (x86)\Microsoft Visual Studio\2019\Community\VC\Tools\MSVC\14.29.30133\atlmfc\include\afxcoll.inl
;	COMDAT ??_GCDlgToolTip@@UAEPAXI@Z
_TEXT	SEGMENT
__$EHRec$ = -12						; size = 12
___flags$ = 8						; size = 4
??_GCDlgToolTip@@UAEPAXI@Z PROC				; CDlgToolTip::`scalar deleting destructor', COMDAT
; _this$ = ecx
  00000	55		 push	 ebp
  00001	8b ec		 mov	 ebp, esp
  00003	6a ff		 push	 -1
  00005	68 00 00 00 00	 push	 __ehhandler$??_GCDlgToolTip@@UAEPAXI@Z
  0000a	64 a1 00 00 00
	00		 mov	 eax, DWORD PTR fs:0
  00010	50		 push	 eax
  00011	53		 push	 ebx
  00012	56		 push	 esi
  00013	57		 push	 edi
  00014	a1 00 00 00 00	 mov	 eax, DWORD PTR ___security_cookie
  00019	33 c5		 xor	 eax, ebp
  0001b	50		 push	 eax
  0001c	8d 45 f4	 lea	 eax, DWORD PTR __$EHRec$[ebp]
  0001f	64 a3 00 00 00
	00		 mov	 DWORD PTR fs:0, eax
  00025	8b f9		 mov	 edi, ecx
; File D:\git\src\IBK\IBK_DRFN\ProjSrc\SrcChartEx\ChartAddIn\ChartDesignPropertyAddIn\ChartDesignPropertyAddIn\DlgToolTip.cpp

; 42   : 	int nSize = m_aControlInfo.GetSize();

  00027	8b 9f c8 00 00
	00		 mov	 ebx, DWORD PTR [edi+200]

; 43   : 	for( int i = 0; i < nSize; i++ )

  0002d	33 f6		 xor	 esi, esi
  0002f	c7 45 fc 00 00
	00 00		 mov	 DWORD PTR __$EHRec$[ebp+8], 0
  00036	c7 07 00 00 00
	00		 mov	 DWORD PTR [edi], OFFSET ??_7CDlgToolTip@@6B@
  0003c	85 db		 test	 ebx, ebx
  0003e	7e 25		 jle	 SHORT $LN29@scalar
$LL10@scalar:
; File C:\Program Files (x86)\Microsoft Visual Studio\2019\Community\VC\Tools\MSVC\14.29.30133\atlmfc\include\afxcoll.inl

; 246  : 		if( nIndex < 0 || nIndex >= m_nSize )

  00040	85 f6		 test	 esi, esi
  00042	78 7c		 js	 SHORT $LN26@scalar
  00044	3b b7 c8 00 00
	00		 cmp	 esi, DWORD PTR [edi+200]
  0004a	7d 74		 jge	 SHORT $LN26@scalar
; File D:\git\src\IBK\IBK_DRFN\ProjSrc\SrcChartEx\ChartAddIn\ChartDesignPropertyAddIn\ChartDesignPropertyAddIn\DlgToolTip.cpp

; 46   : 		delete pInfo;

  0004c	8b 87 c4 00 00
	00		 mov	 eax, DWORD PTR [edi+196]
  00052	8b 0c b0	 mov	 ecx, DWORD PTR [eax+esi*4]
  00055	85 c9		 test	 ecx, ecx
  00057	74 07		 je	 SHORT $LN8@scalar
  00059	8b 01		 mov	 eax, DWORD PTR [ecx]
  0005b	6a 01		 push	 1
  0005d	ff 50 04	 call	 DWORD PTR [eax+4]
$LN8@scalar:

; 43   : 	for( int i = 0; i < nSize; i++ )

  00060	46		 inc	 esi
  00061	3b f3		 cmp	 esi, ebx
  00063	7c db		 jl	 SHORT $LL10@scalar
$LN29@scalar:
; File C:\Program Files (x86)\Microsoft Visual Studio\2019\Community\VC\Tools\MSVC\14.29.30133\atlmfc\include\afxcoll.inl

; 243  : 	{ SetSize(0); }

  00065	6a ff		 push	 -1
  00067	6a 00		 push	 0
  00069	8d 8f c0 00 00
	00		 lea	 ecx, DWORD PTR [edi+192]
  0006f	e8 00 00 00 00	 call	 ?SetSize@CObArray@@QAEXHH@Z ; CObArray::SetSize
; File D:\git\src\IBK\IBK_DRFN\ProjSrc\SrcChartEx\ChartAddIn\ChartDesignPropertyAddIn\ChartDesignPropertyAddIn\DlgToolTip.cpp

; 50   : }

  00074	8d 8f c0 00 00
	00		 lea	 ecx, DWORD PTR [edi+192]
  0007a	e8 00 00 00 00	 call	 ??1CObArray@@UAE@XZ	; CObArray::~CObArray
  0007f	8b cf		 mov	 ecx, edi
  00081	e8 00 00 00 00	 call	 ??1CWnd@@UAE@XZ		; CWnd::~CWnd
  00086	8b 45 08	 mov	 eax, DWORD PTR ___flags$[ebp]
  00089	a8 01		 test	 al, 1
  0008b	74 1d		 je	 SHORT $LN4@scalar
  0008d	a8 04		 test	 al, 4
  0008f	75 0b		 jne	 SHORT $LN3@scalar
; File C:\Program Files (x86)\Microsoft Visual Studio\2019\Community\VC\Tools\MSVC\14.29.30133\atlmfc\include\afx.inl

; 112  : 	{ ::operator delete(p); }

  00091	57		 push	 edi
  00092	e8 00 00 00 00	 call	 ??3@YAXPAX@Z		; operator delete
  00097	83 c4 04	 add	 esp, 4
  0009a	eb 0e		 jmp	 SHORT $LN4@scalar
$LN3@scalar:
  0009c	68 e0 00 00 00	 push	 224			; 000000e0H
  000a1	57		 push	 edi
  000a2	e8 00 00 00 00	 call	 ?__global_delete@@YAXPAXI@Z ; __global_delete
  000a7	83 c4 08	 add	 esp, 8
$LN4@scalar:
  000aa	8b c7		 mov	 eax, edi
  000ac	8b 4d f4	 mov	 ecx, DWORD PTR __$EHRec$[ebp]
  000af	64 89 0d 00 00
	00 00		 mov	 DWORD PTR fs:0, ecx
  000b6	59		 pop	 ecx
  000b7	5f		 pop	 edi
  000b8	5e		 pop	 esi
  000b9	5b		 pop	 ebx
  000ba	8b e5		 mov	 esp, ebp
  000bc	5d		 pop	 ebp
  000bd	c2 04 00	 ret	 4
$LN26@scalar:
; File C:\Program Files (x86)\Microsoft Visual Studio\2019\Community\VC\Tools\MSVC\14.29.30133\atlmfc\include\afxcoll.inl

; 247  : 			AfxThrowInvalidArgException();

  000c0	e8 00 00 00 00	 call	 ?AfxThrowInvalidArgException@@YGXXZ ; AfxThrowInvalidArgException
$LN32@scalar:
  000c5	cc		 int	 3
  000c6	cc		 int	 3
  000c7	cc		 int	 3
  000c8	cc		 int	 3
  000c9	cc		 int	 3
  000ca	cc		 int	 3
_TEXT	ENDS
;	COMDAT text$x
text$x	SEGMENT
__ehhandler$??_GCDlgToolTip@@UAEPAXI@Z:
  00000	90		 npad	 1
  00001	90		 npad	 1
  00002	8b 54 24 08	 mov	 edx, DWORD PTR [esp+8]
  00006	8d 42 0c	 lea	 eax, DWORD PTR [edx+12]
  00009	8b 4a f0	 mov	 ecx, DWORD PTR [edx-16]
  0000c	33 c8		 xor	 ecx, eax
  0000e	e8 00 00 00 00	 call	 @__security_check_cookie@4
  00013	b8 00 00 00 00	 mov	 eax, OFFSET __ehfuncinfo$??_GCDlgToolTip@@UAEPAXI@Z
  00018	e9 00 00 00 00	 jmp	 ___CxxFrameHandler3
text$x	ENDS
??_GCDlgToolTip@@UAEPAXI@Z ENDP				; CDlgToolTip::`scalar deleting destructor'
; Function compile flags: /Ogtp
; File D:\git\src\IBK\IBK_DRFN\ProjSrc\SrcChartEx\ChartAddIn\ChartDesignPropertyAddIn\ChartDesignPropertyAddIn\DlgToolTip.cpp
; File C:\Program Files (x86)\Microsoft Visual Studio\2019\Community\VC\Tools\MSVC\14.29.30133\atlmfc\include\afxwin2.inl
; File D:\git\src\IBK\IBK_DRFN\ProjSrc\SrcChartEx\ChartAddIn\ChartDesignPropertyAddIn\ChartDesignPropertyAddIn\DlgToolTip.cpp
; File C:\Program Files (x86)\Microsoft Visual Studio\2019\Community\VC\Tools\MSVC\14.29.30133\atlmfc\include\atltypes.h
; File C:\Program Files (x86)\Microsoft Visual Studio\2019\Community\VC\Tools\MSVC\14.29.30133\atlmfc\include\afxwin1.inl
; File D:\git\src\IBK\IBK_DRFN\ProjSrc\SrcChartEx\ChartAddIn\ChartDesignPropertyAddIn\ChartDesignPropertyAddIn\DlgToolTip.cpp
; File C:\Program Files (x86)\Microsoft Visual Studio\2019\Community\VC\Tools\MSVC\14.29.30133\atlmfc\include\afxwin1.inl
; File D:\git\src\IBK\IBK_DRFN\ProjSrc\SrcChartEx\ChartAddIn\ChartDesignPropertyAddIn\ChartDesignPropertyAddIn\DlgToolTip.cpp
; File C:\Program Files (x86)\Microsoft Visual Studio\2019\Community\VC\Tools\MSVC\14.29.30133\atlmfc\include\afxwin1.inl
; File D:\git\src\IBK\IBK_DRFN\ProjSrc\SrcChartEx\ChartAddIn\ChartDesignPropertyAddIn\ChartDesignPropertyAddIn\DlgToolTip.cpp
; File C:\Program Files (x86)\Microsoft Visual Studio\2019\Community\VC\Tools\MSVC\14.29.30133\atlmfc\include\afxwin1.inl
; File D:\git\src\IBK\IBK_DRFN\ProjSrc\SrcChartEx\ChartAddIn\ChartDesignPropertyAddIn\ChartDesignPropertyAddIn\DlgToolTip.cpp
; File C:\Program Files (x86)\Microsoft Visual Studio\2019\Community\VC\Tools\MSVC\14.29.30133\atlmfc\include\afxwin1.inl
; File D:\git\src\IBK\IBK_DRFN\ProjSrc\SrcChartEx\ChartAddIn\ChartDesignPropertyAddIn\ChartDesignPropertyAddIn\DlgToolTip.cpp
; File C:\Program Files (x86)\Microsoft Visual Studio\2019\Community\VC\Tools\MSVC\14.29.30133\atlmfc\include\afxwin1.inl
; File D:\git\src\IBK\IBK_DRFN\ProjSrc\SrcChartEx\ChartAddIn\ChartDesignPropertyAddIn\ChartDesignPropertyAddIn\DlgToolTip.cpp
; File C:\Program Files (x86)\Microsoft Visual Studio\2019\Community\VC\Tools\MSVC\14.29.30133\atlmfc\include\afxwin1.inl
; File D:\git\src\IBK\IBK_DRFN\ProjSrc\SrcChartEx\ChartAddIn\ChartDesignPropertyAddIn\ChartDesignPropertyAddIn\DlgToolTip.cpp
; File C:\Program Files (x86)\Microsoft Visual Studio\2019\Community\VC\Tools\MSVC\14.29.30133\atlmfc\include\afxwin1.inl
; File D:\git\src\IBK\IBK_DRFN\ProjSrc\SrcChartEx\ChartAddIn\ChartDesignPropertyAddIn\ChartDesignPropertyAddIn\DlgToolTip.cpp
; File C:\Program Files (x86)\Microsoft Visual Studio\2019\Community\VC\Tools\MSVC\14.29.30133\atlmfc\include\afxwin1.inl
; File D:\git\src\IBK\IBK_DRFN\ProjSrc\SrcChartEx\ChartAddIn\ChartDesignPropertyAddIn\ChartDesignPropertyAddIn\DlgToolTip.cpp
; File C:\Program Files (x86)\Microsoft Visual Studio\2019\Community\VC\Tools\MSVC\14.29.30133\atlmfc\include\afxcoll.inl
; File C:\Program Files (x86)\Microsoft Visual Studio\2019\Community\VC\Tools\MSVC\14.29.30133\atlmfc\include\atlsimpstr.h
; File C:\Program Files (x86)\Microsoft Visual Studio\2019\Community\VC\Tools\MSVC\14.29.30133\atlmfc\include\afxwin1.inl
; File C:\Program Files (x86)\Microsoft Visual Studio\2019\Community\VC\Tools\MSVC\14.29.30133\atlmfc\include\atlsimpstr.h
; File C:\Program Files (x86)\Microsoft Visual Studio\2019\Community\VC\Tools\MSVC\14.29.30133\atlmfc\include\afxwin1.inl
; File D:\git\src\IBK\IBK_DRFN\ProjSrc\SrcChartEx\ChartAddIn\ChartDesignPropertyAddIn\ChartDesignPropertyAddIn\DlgToolTip.cpp
; File C:\Program Files (x86)\Microsoft Visual Studio\2019\Community\VC\Tools\MSVC\14.29.30133\atlmfc\include\afxwin2.inl
; File C:\Program Files (x86)\Microsoft Visual Studio\2019\Community\VC\Tools\MSVC\14.29.30133\atlmfc\include\afxwin1.inl
; File D:\git\src\IBK\IBK_DRFN\ProjSrc\SrcChartEx\ChartAddIn\ChartDesignPropertyAddIn\ChartDesignPropertyAddIn\DlgToolTip.cpp
; File C:\Program Files (x86)\Microsoft Visual Studio\2019\Community\VC\Tools\MSVC\14.29.30133\atlmfc\include\afxcoll.inl
; File D:\git\src\IBK\IBK_DRFN\ProjSrc\SrcChartEx\ChartAddIn\ChartDesignPropertyAddIn\ChartDesignPropertyAddIn\DlgToolTip.cpp
;	COMDAT ?DisplayInfo@CDlgToolTip@@AAEXPAUToolTipInfo@@AAVCPoint@@@Z
_TEXT	SEGMENT
_pOldBrush$2$ = -200					; size = 4
_pOldFont$1$ = -196					; size = 4
_nX$1$ = -192						; size = 4
_oBorderBrush$ = -188					; size = 8
_oFont$ = -180						; size = 8
_oBrush$ = -172						; size = 8
_point$GSCopy$1$ = -164					; size = 4
_nY$1$ = -164						; size = 4
_this$GSCopy$1$ = -160					; size = 4
_pToolTip$GSCopy$1$ = -156				; size = 4
_pDC$1$ = -152						; size = 4
_TM$ = -148						; size = 56
_lf$ = -92						; size = 60
_oInfoRect$ = -32					; size = 16
__$ArrayPad$ = -16					; size = 4
__$EHRec$ = -12						; size = 12
_pToolTip$ = 8						; size = 4
_point$ = 12						; size = 4
?DisplayInfo@CDlgToolTip@@AAEXPAUToolTipInfo@@AAVCPoint@@@Z PROC ; CDlgToolTip::DisplayInfo, COMDAT
; _this$ = ecx

; 246  : {

  00000	55		 push	 ebp
  00001	8b ec		 mov	 ebp, esp
  00003	6a ff		 push	 -1
  00005	68 00 00 00 00	 push	 __ehhandler$?DisplayInfo@CDlgToolTip@@AAEXPAUToolTipInfo@@AAVCPoint@@@Z
  0000a	64 a1 00 00 00
	00		 mov	 eax, DWORD PTR fs:0
  00010	50		 push	 eax
  00011	81 ec bc 00 00
	00		 sub	 esp, 188		; 000000bcH
  00017	a1 00 00 00 00	 mov	 eax, DWORD PTR ___security_cookie
  0001c	33 c5		 xor	 eax, ebp
  0001e	89 45 f0	 mov	 DWORD PTR __$ArrayPad$[ebp], eax
  00021	56		 push	 esi
  00022	57		 push	 edi
  00023	50		 push	 eax
  00024	8d 45 f4	 lea	 eax, DWORD PTR __$EHRec$[ebp]
  00027	64 a3 00 00 00
	00		 mov	 DWORD PTR fs:0, eax
  0002d	8b c1		 mov	 eax, ecx
  0002f	89 85 60 ff ff
	ff		 mov	 DWORD PTR _this$GSCopy$1$[ebp], eax
  00035	8b 75 08	 mov	 esi, DWORD PTR _pToolTip$[ebp]
  00038	8b 4d 0c	 mov	 ecx, DWORD PTR _point$[ebp]
  0003b	89 b5 64 ff ff
	ff		 mov	 DWORD PTR _pToolTip$GSCopy$1$[ebp], esi
  00041	89 8d 5c ff ff
	ff		 mov	 DWORD PTR _point$GSCopy$1$[ebp], ecx

; 247  : 	TRACE("DisplayINfo\n");
; 248  : 	if( pToolTip->nInfoSize <= 0 )

  00047	83 7e 08 00	 cmp	 DWORD PTR [esi+8], 0
  0004b	0f 86 15 03 00
	00		 jbe	 $LN65@DisplayInf

; 252  : 	CDC* pDC = m_pParentWnd->GetDC();

  00051	8b 80 a8 00 00
	00		 mov	 eax, DWORD PTR [eax+168]
; File C:\Program Files (x86)\Microsoft Visual Studio\2019\Community\VC\Tools\MSVC\14.29.30133\atlmfc\include\afxwin2.inl

; 100  : 	{ ASSERT(::IsWindow(m_hWnd)); return CDC::FromHandle(::GetDC(m_hWnd)); }

  00057	ff 70 20	 push	 DWORD PTR [eax+32]
  0005a	ff 15 00 00 00
	00		 call	 DWORD PTR __imp__GetDC@4
  00060	50		 push	 eax
  00061	e8 00 00 00 00	 call	 ?FromHandle@CDC@@SGPAV1@PAUHDC__@@@Z ; CDC::FromHandle
  00066	0f 57 c0	 xorps	 xmm0, xmm0
; File D:\git\src\IBK\IBK_DRFN\ProjSrc\SrcChartEx\ChartAddIn\ChartDesignPropertyAddIn\ChartDesignPropertyAddIn\DlgToolTip.cpp

; 252  : 	CDC* pDC = m_pParentWnd->GetDC();

  00069	89 85 68 ff ff
	ff		 mov	 DWORD PTR _pDC$1$[ebp], eax
; File C:\Program Files (x86)\Microsoft Visual Studio\2019\Community\VC\Tools\MSVC\14.29.30133\atlmfc\include\atltypes.h

; 528  : 	left = 0;

  0006f	0f 11 45 e0	 movups	 XMMWORD PTR _oInfoRect$[ebp], xmm0
; File C:\Program Files (x86)\Microsoft Visual Studio\2019\Community\VC\Tools\MSVC\14.29.30133\atlmfc\include\afxwin1.inl

; 70   : 	{ m_hObject = NULL; }

  00073	c7 85 58 ff ff
	ff 00 00 00 00	 mov	 DWORD PTR _oBrush$[ebp+4], 0

; 128  : 	{ }

  0007d	c7 85 54 ff ff
	ff 00 00 00 00	 mov	 DWORD PTR _oBrush$[ebp], OFFSET ??_7CBrush@@6B@
; File D:\git\src\IBK\IBK_DRFN\ProjSrc\SrcChartEx\ChartAddIn\ChartDesignPropertyAddIn\ChartDesignPropertyAddIn\DlgToolTip.cpp

; 255  : 	CBrush		oBrush, *pOldBrush, oBorderBrush;

  00087	c7 45 fc 00 00
	00 00		 mov	 DWORD PTR __$EHRec$[ebp+8], 0
; File C:\Program Files (x86)\Microsoft Visual Studio\2019\Community\VC\Tools\MSVC\14.29.30133\atlmfc\include\afxwin1.inl

; 70   : 	{ m_hObject = NULL; }

  0008e	c7 85 48 ff ff
	ff 00 00 00 00	 mov	 DWORD PTR _oBorderBrush$[ebp+4], 0

; 128  : 	{ }

  00098	c7 85 44 ff ff
	ff 00 00 00 00	 mov	 DWORD PTR _oBorderBrush$[ebp], OFFSET ??_7CBrush@@6B@

; 70   : 	{ m_hObject = NULL; }

  000a2	c7 85 50 ff ff
	ff 00 00 00 00	 mov	 DWORD PTR _oFont$[ebp+4], 0

; 153  : 	{ }

  000ac	c7 85 4c ff ff
	ff 00 00 00 00	 mov	 DWORD PTR _oFont$[ebp], OFFSET ??_7CFont@@6B@
; File D:\git\src\IBK\IBK_DRFN\ProjSrc\SrcChartEx\ChartAddIn\ChartDesignPropertyAddIn\ChartDesignPropertyAddIn\DlgToolTip.cpp

; 262  : 	pDC->SetBkMode(TRANSPARENT);

  000b6	6a 01		 push	 1
  000b8	8b c8		 mov	 ecx, eax
  000ba	c6 45 fc 02	 mov	 BYTE PTR __$EHRec$[ebp+8], 2
  000be	e8 00 00 00 00	 call	 ?SetBkMode@CDC@@QAEHH@Z	; CDC::SetBkMode
; File C:\Program Files (x86)\Microsoft Visual Studio\2019\Community\VC\Tools\MSVC\14.29.30133\atlmfc\include\afxwin1.inl

; 132  : 	{ return Attach(::CreateSolidBrush(crColor)); }

  000c3	ff 76 24	 push	 DWORD PTR [esi+36]
  000c6	8b 3d 00 00 00
	00		 mov	 edi, DWORD PTR __imp__CreateSolidBrush@4
  000cc	ff d7		 call	 edi
  000ce	50		 push	 eax
  000cf	8d 8d 54 ff ff
	ff		 lea	 ecx, DWORD PTR _oBrush$[ebp]
  000d5	e8 00 00 00 00	 call	 ?Attach@CGdiObject@@QAEHPAX@Z ; CGdiObject::Attach
; File D:\git\src\IBK\IBK_DRFN\ProjSrc\SrcChartEx\ChartAddIn\ChartDesignPropertyAddIn\ChartDesignPropertyAddIn\DlgToolTip.cpp

; 266  : 	pOldBrush = pDC->SelectObject( &oBrush );

  000da	8b 8d 68 ff ff
	ff		 mov	 ecx, DWORD PTR _pDC$1$[ebp]
  000e0	8d 85 54 ff ff
	ff		 lea	 eax, DWORD PTR _oBrush$[ebp]
  000e6	50		 push	 eax
  000e7	e8 00 00 00 00	 call	 ?SelectObject@CDC@@QAEPAVCBrush@@PAV2@@Z ; CDC::SelectObject

; 267  : 	pDC->SetTextColor( pToolTip->nTextColor );

  000ec	8b 8d 64 ff ff
	ff		 mov	 ecx, DWORD PTR _pToolTip$GSCopy$1$[ebp]
  000f2	8b f0		 mov	 esi, eax
  000f4	8b 85 68 ff ff
	ff		 mov	 eax, DWORD PTR _pDC$1$[ebp]
  000fa	ff 71 20	 push	 DWORD PTR [ecx+32]
  000fd	8b 10		 mov	 edx, DWORD PTR [eax]
  000ff	8b c8		 mov	 ecx, eax
  00101	ff 52 38	 call	 DWORD PTR [edx+56]

; 268  : 
; 269  : 	//calculate the width and height of the box dynamically
; 270  : 	CalculateHeightAndWidth( pToolTip->nControlInfo );

  00104	8b 85 60 ff ff
	ff		 mov	 eax, DWORD PTR _this$GSCopy$1$[ebp]
  0010a	8b 8d 64 ff ff
	ff		 mov	 ecx, DWORD PTR _pToolTip$GSCopy$1$[ebp]
  00110	83 c1 0c	 add	 ecx, 12			; 0000000cH
  00113	51		 push	 ecx
  00114	8b 10		 mov	 edx, DWORD PTR [eax]
  00116	8b c8		 mov	 ecx, eax
  00118	ff 92 70 01 00
	00		 call	 DWORD PTR [edx+368]

; 271  : 	CalculateInfoBoxRect( pToolTip->nControlID, &oInfoRect, point);

  0011e	ff b5 5c ff ff
	ff		 push	 DWORD PTR _point$GSCopy$1$[ebp]
  00124	8b 95 60 ff ff
	ff		 mov	 edx, DWORD PTR _this$GSCopy$1$[ebp]
  0012a	8d 4d e0	 lea	 ecx, DWORD PTR _oInfoRect$[ebp]
  0012d	51		 push	 ecx
  0012e	8b 8d 64 ff ff
	ff		 mov	 ecx, DWORD PTR _pToolTip$GSCopy$1$[ebp]
  00134	8b 02		 mov	 eax, DWORD PTR [edx]
  00136	ff 71 04	 push	 DWORD PTR [ecx+4]
  00139	8b ca		 mov	 ecx, edx
  0013b	ff 90 6c 01 00
	00		 call	 DWORD PTR [eax+364]

; 272  : 
; 273  : 	LOGFONT lf;
; 274  : 	memset(&lf, 0, sizeof(LOGFONT));

  00141	6a 3c		 push	 60			; 0000003cH
  00143	8d 45 a4	 lea	 eax, DWORD PTR _lf$[ebp]
  00146	6a 00		 push	 0
  00148	50		 push	 eax
  00149	e8 00 00 00 00	 call	 _memset

; 277  : 	strcpy(lf.lfFaceName, "Microsoft Sans Serif"); //  font setting

  0014e	a1 10 00 00 00	 mov	 eax, DWORD PTR ??_C@_0BF@LKOMBMBF@Microsoft?5Sans?5Serif@+16
  00153	83 c4 0c	 add	 esp, 12			; 0000000cH
  00156	0f 10 05 00 00
	00 00		 movups	 xmm0, XMMWORD PTR ??_C@_0BF@LKOMBMBF@Microsoft?5Sans?5Serif@
  0015d	89 45 d0	 mov	 DWORD PTR _lf$[ebp+44], eax
  00160	a0 14 00 00 00	 mov	 al, BYTE PTR ??_C@_0BF@LKOMBMBF@Microsoft?5Sans?5Serif@+20
  00165	88 45 d4	 mov	 BYTE PTR _lf$[ebp+48], al
; File C:\Program Files (x86)\Microsoft Visual Studio\2019\Community\VC\Tools\MSVC\14.29.30133\atlmfc\include\afxwin1.inl

; 157  : 	{ return Attach(::CreateFontIndirect(lpLogFont)); }

  00168	8d 45 a4	 lea	 eax, DWORD PTR _lf$[ebp]
  0016b	50		 push	 eax
; File D:\git\src\IBK\IBK_DRFN\ProjSrc\SrcChartEx\ChartAddIn\ChartDesignPropertyAddIn\ChartDesignPropertyAddIn\DlgToolTip.cpp

; 275  : 	lf.lfCharSet = 0x81; //  Character Set

  0016c	c6 45 bb 81	 mov	 BYTE PTR _lf$[ebp+23], 129 ; 00000081H

; 276  : 	lf.lfHeight = 12; // 20 point 

  00170	c7 45 a4 0c 00
	00 00		 mov	 DWORD PTR _lf$[ebp], 12	; 0000000cH

; 277  : 	strcpy(lf.lfFaceName, "Microsoft Sans Serif"); //  font setting

  00177	0f 11 45 c0	 movups	 XMMWORD PTR _lf$[ebp+28], xmm0
; File C:\Program Files (x86)\Microsoft Visual Studio\2019\Community\VC\Tools\MSVC\14.29.30133\atlmfc\include\afxwin1.inl

; 157  : 	{ return Attach(::CreateFontIndirect(lpLogFont)); }

  0017b	ff 15 00 00 00
	00		 call	 DWORD PTR __imp__CreateFontIndirectA@4
  00181	50		 push	 eax
  00182	8d 8d 4c ff ff
	ff		 lea	 ecx, DWORD PTR _oFont$[ebp]
  00188	e8 00 00 00 00	 call	 ?Attach@CGdiObject@@QAEHPAX@Z ; CGdiObject::Attach
; File D:\git\src\IBK\IBK_DRFN\ProjSrc\SrcChartEx\ChartAddIn\ChartDesignPropertyAddIn\ChartDesignPropertyAddIn\DlgToolTip.cpp

; 281  : 	pOldFont = pDC->SelectObject(&oFont);

  0018d	8b 8d 68 ff ff
	ff		 mov	 ecx, DWORD PTR _pDC$1$[ebp]
  00193	8d 95 4c ff ff
	ff		 lea	 edx, DWORD PTR _oFont$[ebp]
  00199	52		 push	 edx
  0019a	8b 01		 mov	 eax, DWORD PTR [ecx]
  0019c	8b 40 30	 mov	 eax, DWORD PTR [eax+48]
  0019f	ff d0		 call	 eax
; File C:\Program Files (x86)\Microsoft Visual Studio\2019\Community\VC\Tools\MSVC\14.29.30133\atlmfc\include\afxwin1.inl

; 476  : 	{ ASSERT(m_hDC != NULL); ::FillRect(m_hDC, lpRect, (HBRUSH)pBrush->GetSafeHandle()); }

  001a1	ff b5 58 ff ff
	ff		 push	 DWORD PTR _oBrush$[ebp+4]
  001a7	8b 95 68 ff ff
	ff		 mov	 edx, DWORD PTR _pDC$1$[ebp]
; File D:\git\src\IBK\IBK_DRFN\ProjSrc\SrcChartEx\ChartAddIn\ChartDesignPropertyAddIn\ChartDesignPropertyAddIn\DlgToolTip.cpp

; 281  : 	pOldFont = pDC->SelectObject(&oFont);

  001ad	89 85 3c ff ff
	ff		 mov	 DWORD PTR _pOldFont$1$[ebp], eax
; File C:\Program Files (x86)\Microsoft Visual Studio\2019\Community\VC\Tools\MSVC\14.29.30133\atlmfc\include\afxwin1.inl

; 476  : 	{ ASSERT(m_hDC != NULL); ::FillRect(m_hDC, lpRect, (HBRUSH)pBrush->GetSafeHandle()); }

  001b3	8d 45 e0	 lea	 eax, DWORD PTR _oInfoRect$[ebp]
  001b6	50		 push	 eax
  001b7	ff 72 04	 push	 DWORD PTR [edx+4]
  001ba	ff 15 00 00 00
	00		 call	 DWORD PTR __imp__FillRect@12
; File D:\git\src\IBK\IBK_DRFN\ProjSrc\SrcChartEx\ChartAddIn\ChartDesignPropertyAddIn\ChartDesignPropertyAddIn\DlgToolTip.cpp

; 284  : 	pDC->SelectObject(pOldBrush);

  001c0	56		 push	 esi
  001c1	8b b5 68 ff ff
	ff		 mov	 esi, DWORD PTR _pDC$1$[ebp]
  001c7	8b ce		 mov	 ecx, esi
  001c9	e8 00 00 00 00	 call	 ?SelectObject@CDC@@QAEPAVCBrush@@PAV2@@Z ; CDC::SelectObject

; 285  : 	oBrush.DeleteObject();

  001ce	8d 8d 54 ff ff
	ff		 lea	 ecx, DWORD PTR _oBrush$[ebp]
  001d4	e8 00 00 00 00	 call	 ?DeleteObject@CGdiObject@@QAEHXZ ; CGdiObject::DeleteObject
; File C:\Program Files (x86)\Microsoft Visual Studio\2019\Community\VC\Tools\MSVC\14.29.30133\atlmfc\include\afxwin1.inl

; 132  : 	{ return Attach(::CreateSolidBrush(crColor)); }

  001d9	8b 85 64 ff ff
	ff		 mov	 eax, DWORD PTR _pToolTip$GSCopy$1$[ebp]
  001df	ff 70 20	 push	 DWORD PTR [eax+32]
  001e2	ff d7		 call	 edi
  001e4	50		 push	 eax
  001e5	8d 8d 44 ff ff
	ff		 lea	 ecx, DWORD PTR _oBorderBrush$[ebp]
  001eb	e8 00 00 00 00	 call	 ?Attach@CGdiObject@@QAEHPAX@Z ; CGdiObject::Attach
; File D:\git\src\IBK\IBK_DRFN\ProjSrc\SrcChartEx\ChartAddIn\ChartDesignPropertyAddIn\ChartDesignPropertyAddIn\DlgToolTip.cpp

; 288  : 	pOldBrush = pDC->SelectObject(&oBorderBrush);

  001f0	8d 85 44 ff ff
	ff		 lea	 eax, DWORD PTR _oBorderBrush$[ebp]
  001f6	8b ce		 mov	 ecx, esi
  001f8	50		 push	 eax
  001f9	e8 00 00 00 00	 call	 ?SelectObject@CDC@@QAEPAVCBrush@@PAV2@@Z ; CDC::SelectObject

; 289  : 	DrawEdge(pDC->m_hDC, &oInfoRect, BDR_RAISEDINNER | BDR_SUNKENOUTER, BF_RECT);

  001fe	6a 0f		 push	 15			; 0000000fH
  00200	89 85 38 ff ff
	ff		 mov	 DWORD PTR _pOldBrush$2$[ebp], eax
  00206	8d 45 e0	 lea	 eax, DWORD PTR _oInfoRect$[ebp]
  00209	6a 06		 push	 6
  0020b	50		 push	 eax
  0020c	ff 76 04	 push	 DWORD PTR [esi+4]
  0020f	ff 15 00 00 00
	00		 call	 DWORD PTR __imp__DrawEdge@16

; 290  : 	
; 291  : 	pDC->SetTextAlign(TA_LEFT);

  00215	6a 00		 push	 0
  00217	8b ce		 mov	 ecx, esi
  00219	e8 00 00 00 00	 call	 ?SetTextAlign@CDC@@QAEII@Z ; CDC::SetTextAlign
; File C:\Program Files (x86)\Microsoft Visual Studio\2019\Community\VC\Tools\MSVC\14.29.30133\atlmfc\include\afxwin1.inl

; 689  : 	{ ASSERT(m_hAttribDC != NULL); return ::GetTextMetrics(m_hAttribDC, lpMetrics); }

  0021e	8d 85 6c ff ff
	ff		 lea	 eax, DWORD PTR _TM$[ebp]
  00224	50		 push	 eax
  00225	ff 76 08	 push	 DWORD PTR [esi+8]
  00228	ff 15 00 00 00
	00		 call	 DWORD PTR __imp__GetTextMetricsA@8
; File D:\git\src\IBK\IBK_DRFN\ProjSrc\SrcChartEx\ChartAddIn\ChartDesignPropertyAddIn\ChartDesignPropertyAddIn\DlgToolTip.cpp

; 297  : 	for( register UINT i = 0; i < pToolTip->nInfoSize; i++)

  0022e	8b bd 64 ff ff
	ff		 mov	 edi, DWORD PTR _pToolTip$GSCopy$1$[ebp]
  00234	33 f6		 xor	 esi, esi
  00236	8b 45 e0	 mov	 eax, DWORD PTR _oInfoRect$[ebp]
  00239	8b 4d e4	 mov	 ecx, DWORD PTR _oInfoRect$[ebp+4]
  0023c	83 c0 08	 add	 eax, 8
  0023f	83 c1 05	 add	 ecx, 5
  00242	89 85 40 ff ff
	ff		 mov	 DWORD PTR _nX$1$[ebp], eax
  00248	89 8d 5c ff ff
	ff		 mov	 DWORD PTR _nY$1$[ebp], ecx
  0024e	39 77 08	 cmp	 DWORD PTR [edi+8], esi
  00251	76 54		 jbe	 SHORT $LN73@DisplayInf
$LL4@DisplayInf:
; File C:\Program Files (x86)\Microsoft Visual Studio\2019\Community\VC\Tools\MSVC\14.29.30133\atlmfc\include\afxcoll.inl

; 306  : 		if( nIndex < 0 || nIndex >= m_nSize )

  00253	85 f6		 test	 esi, esi
  00255	0f 88 28 01 00
	00		 js	 $LN68@DisplayInf
  0025b	3b 77 14	 cmp	 esi, DWORD PTR [edi+20]
  0025e	0f 8d 1f 01 00
	00		 jge	 $LN68@DisplayInf
; File C:\Program Files (x86)\Microsoft Visual Studio\2019\Community\VC\Tools\MSVC\14.29.30133\atlmfc\include\atlsimpstr.h

; 519  : 		return( GetData()->nDataLength );

  00264	8b 47 10	 mov	 eax, DWORD PTR [edi+16]
; File C:\Program Files (x86)\Microsoft Visual Studio\2019\Community\VC\Tools\MSVC\14.29.30133\atlmfc\include\afxwin1.inl

; 574  : 	{ ASSERT(m_hDC != NULL); return TextOut(x, y, (LPCTSTR)str, (int)str.GetLength()); } // call virtual

  00267	8b 95 68 ff ff
	ff		 mov	 edx, DWORD PTR _pDC$1$[ebp]
; File C:\Program Files (x86)\Microsoft Visual Studio\2019\Community\VC\Tools\MSVC\14.29.30133\atlmfc\include\atlsimpstr.h

; 519  : 		return( GetData()->nDataLength );

  0026d	8b 04 b0	 mov	 eax, DWORD PTR [eax+esi*4]
; File C:\Program Files (x86)\Microsoft Visual Studio\2019\Community\VC\Tools\MSVC\14.29.30133\atlmfc\include\afxwin1.inl

; 574  : 	{ ASSERT(m_hDC != NULL); return TextOut(x, y, (LPCTSTR)str, (int)str.GetLength()); } // call virtual

  00270	8b 12		 mov	 edx, DWORD PTR [edx]
  00272	ff 70 f4	 push	 DWORD PTR [eax-12]
  00275	50		 push	 eax
  00276	51		 push	 ecx
  00277	ff b5 40 ff ff
	ff		 push	 DWORD PTR _nX$1$[ebp]
  0027d	8b 8d 68 ff ff
	ff		 mov	 ecx, DWORD PTR _pDC$1$[ebp]
  00283	ff 52 64	 call	 DWORD PTR [edx+100]
; File D:\git\src\IBK\IBK_DRFN\ProjSrc\SrcChartEx\ChartAddIn\ChartDesignPropertyAddIn\ChartDesignPropertyAddIn\DlgToolTip.cpp

; 300  : 		nY += m_nFontSize +1;  //-1

  00286	8b 8d 60 ff ff
	ff		 mov	 ecx, DWORD PTR _this$GSCopy$1$[ebp]
  0028c	46		 inc	 esi
  0028d	8b 81 b4 00 00
	00		 mov	 eax, DWORD PTR [ecx+180]
  00293	8b 8d 5c ff ff
	ff		 mov	 ecx, DWORD PTR _nY$1$[ebp]
  00299	41		 inc	 ecx
  0029a	03 c8		 add	 ecx, eax
  0029c	89 8d 5c ff ff
	ff		 mov	 DWORD PTR _nY$1$[ebp], ecx
  002a2	3b 77 08	 cmp	 esi, DWORD PTR [edi+8]
  002a5	72 ac		 jb	 SHORT $LL4@DisplayInf
$LN73@DisplayInf:

; 301  : 	}
; 302  : 
; 303  : /////////////
; 304  : 	//  .
; 305  : 	m_ptButtonSize.left = oInfoRect.right - (m_nFontSize*3);

  002a7	8b bd 60 ff ff
	ff		 mov	 edi, DWORD PTR _this$GSCopy$1$[ebp]
  002ad	8b 55 e8	 mov	 edx, DWORD PTR _oInfoRect$[ebp+8]

; 306  : 	m_ptButtonSize.top = nY+1;
; 307  : 	m_ptButtonSize.right = oInfoRect.right;
; 308  : 	m_ptButtonSize.bottom = oInfoRect.bottom;
; 309  : //	pDC->TextOut(m_ptButtonSize.left+1, m_ptButtonSize.top+1, "");
; 310  : //////////////
; 311  : 
; 312  : 	pDC->SelectObject(pOldFont);

  002b0	8b b5 68 ff ff
	ff		 mov	 esi, DWORD PTR _pDC$1$[ebp]
  002b6	ff b5 3c ff ff
	ff		 push	 DWORD PTR _pOldFont$1$[ebp]
  002bc	8b 87 b4 00 00
	00		 mov	 eax, DWORD PTR [edi+180]
  002c2	89 97 88 00 00
	00		 mov	 DWORD PTR [edi+136], edx
  002c8	8d 0c 40	 lea	 ecx, DWORD PTR [eax+eax*2]
  002cb	8b c2		 mov	 eax, edx
  002cd	2b c1		 sub	 eax, ecx
  002cf	8b ce		 mov	 ecx, esi
  002d1	89 87 80 00 00
	00		 mov	 DWORD PTR [edi+128], eax
  002d7	8b 85 5c ff ff
	ff		 mov	 eax, DWORD PTR _nY$1$[ebp]
  002dd	40		 inc	 eax
  002de	89 87 84 00 00
	00		 mov	 DWORD PTR [edi+132], eax
  002e4	8b 45 ec	 mov	 eax, DWORD PTR _oInfoRect$[ebp+12]
  002e7	89 87 8c 00 00
	00		 mov	 DWORD PTR [edi+140], eax
  002ed	8b 06		 mov	 eax, DWORD PTR [esi]
  002ef	ff 50 30	 call	 DWORD PTR [eax+48]

; 313  : 	oFont.DeleteObject();

  002f2	8d 8d 4c ff ff
	ff		 lea	 ecx, DWORD PTR _oFont$[ebp]
  002f8	e8 00 00 00 00	 call	 ?DeleteObject@CGdiObject@@QAEHXZ ; CGdiObject::DeleteObject

; 314  : 	pDC->SelectObject(pOldBrush);

  002fd	ff b5 38 ff ff
	ff		 push	 DWORD PTR _pOldBrush$2$[ebp]
  00303	8b ce		 mov	 ecx, esi
  00305	e8 00 00 00 00	 call	 ?SelectObject@CDC@@QAEPAVCBrush@@PAV2@@Z ; CDC::SelectObject

; 315  : 	oBorderBrush.DeleteObject();	

  0030a	8d 8d 44 ff ff
	ff		 lea	 ecx, DWORD PTR _oBorderBrush$[ebp]
  00310	e8 00 00 00 00	 call	 ?DeleteObject@CGdiObject@@QAEHXZ ; CGdiObject::DeleteObject
; File C:\Program Files (x86)\Microsoft Visual Studio\2019\Community\VC\Tools\MSVC\14.29.30133\atlmfc\include\afxwin2.inl

; 104  : 	{ ASSERT(::IsWindow(m_hWnd)); return ::ReleaseDC(m_hWnd, pDC->m_hDC); }

  00315	8b 87 a8 00 00
	00		 mov	 eax, DWORD PTR [edi+168]
  0031b	ff 76 04	 push	 DWORD PTR [esi+4]
  0031e	ff 70 20	 push	 DWORD PTR [eax+32]
  00321	ff 15 00 00 00
	00		 call	 DWORD PTR __imp__ReleaseDC@8
; File C:\Program Files (x86)\Microsoft Visual Studio\2019\Community\VC\Tools\MSVC\14.29.30133\atlmfc\include\afxwin1.inl

; 155  : 	{ }

  00327	8d 8d 4c ff ff
	ff		 lea	 ecx, DWORD PTR _oFont$[ebp]
  0032d	c7 85 4c ff ff
	ff 00 00 00 00	 mov	 DWORD PTR _oFont$[ebp], OFFSET ??_7CFont@@6B@
  00337	e8 00 00 00 00	 call	 ??1CGdiObject@@UAE@XZ	; CGdiObject::~CGdiObject

; 130  : 	{ }

  0033c	8d 8d 44 ff ff
	ff		 lea	 ecx, DWORD PTR _oBorderBrush$[ebp]
  00342	c7 85 44 ff ff
	ff 00 00 00 00	 mov	 DWORD PTR _oBorderBrush$[ebp], OFFSET ??_7CBrush@@6B@
  0034c	e8 00 00 00 00	 call	 ??1CGdiObject@@UAE@XZ	; CGdiObject::~CGdiObject
  00351	8d 8d 54 ff ff
	ff		 lea	 ecx, DWORD PTR _oBrush$[ebp]
  00357	c7 85 54 ff ff
	ff 00 00 00 00	 mov	 DWORD PTR _oBrush$[ebp], OFFSET ??_7CBrush@@6B@
  00361	e8 00 00 00 00	 call	 ??1CGdiObject@@UAE@XZ	; CGdiObject::~CGdiObject
$LN65@DisplayInf:
; File D:\git\src\IBK\IBK_DRFN\ProjSrc\SrcChartEx\ChartAddIn\ChartDesignPropertyAddIn\ChartDesignPropertyAddIn\DlgToolTip.cpp

; 317  : }	

  00366	8b 4d f4	 mov	 ecx, DWORD PTR __$EHRec$[ebp]
  00369	64 89 0d 00 00
	00 00		 mov	 DWORD PTR fs:0, ecx
  00370	59		 pop	 ecx
  00371	5f		 pop	 edi
  00372	5e		 pop	 esi
  00373	8b 4d f0	 mov	 ecx, DWORD PTR __$ArrayPad$[ebp]
  00376	33 cd		 xor	 ecx, ebp
  00378	e8 00 00 00 00	 call	 @__security_check_cookie@4
  0037d	8b e5		 mov	 esp, ebp
  0037f	5d		 pop	 ebp
  00380	c2 08 00	 ret	 8
$LN68@DisplayInf:
; File C:\Program Files (x86)\Microsoft Visual Studio\2019\Community\VC\Tools\MSVC\14.29.30133\atlmfc\include\afxcoll.inl

; 307  : 			AfxThrowInvalidArgException();

  00383	e8 00 00 00 00	 call	 ?AfxThrowInvalidArgException@@YGXXZ ; AfxThrowInvalidArgException
$LN75@DisplayInf:
  00388	cc		 int	 3
_TEXT	ENDS
;	COMDAT text$x
text$x	SEGMENT
__unwindfunclet$?DisplayInfo@CDlgToolTip@@AAEXPAUToolTipInfo@@AAVCPoint@@@Z$0:
  00000	8d 8d 54 ff ff
	ff		 lea	 ecx, DWORD PTR _oBrush$[ebp]
  00006	e9 00 00 00 00	 jmp	 ??1CBrush@@UAE@XZ	; CBrush::~CBrush
__unwindfunclet$?DisplayInfo@CDlgToolTip@@AAEXPAUToolTipInfo@@AAVCPoint@@@Z$1:
  0000b	8d 8d 44 ff ff
	ff		 lea	 ecx, DWORD PTR _oBorderBrush$[ebp]
  00011	e9 00 00 00 00	 jmp	 ??1CBrush@@UAE@XZ	; CBrush::~CBrush
__unwindfunclet$?DisplayInfo@CDlgToolTip@@AAEXPAUToolTipInfo@@AAVCPoint@@@Z$2:
  00016	8d 8d 4c ff ff
	ff		 lea	 ecx, DWORD PTR _oFont$[ebp]
  0001c	e9 00 00 00 00	 jmp	 ??1CFont@@UAE@XZ	; CFont::~CFont
  00021	cc		 int	 3
  00022	cc		 int	 3
  00023	cc		 int	 3
  00024	cc		 int	 3
  00025	cc		 int	 3
__ehhandler$?DisplayInfo@CDlgToolTip@@AAEXPAUToolTipInfo@@AAVCPoint@@@Z:
  00026	90		 npad	 1
  00027	90		 npad	 1
  00028	8b 54 24 08	 mov	 edx, DWORD PTR [esp+8]
  0002c	8d 42 0c	 lea	 eax, DWORD PTR [edx+12]
  0002f	8b 8a 38 ff ff
	ff		 mov	 ecx, DWORD PTR [edx-200]
  00035	33 c8		 xor	 ecx, eax
  00037	e8 00 00 00 00	 call	 @__security_check_cookie@4
  0003c	8b 4a fc	 mov	 ecx, DWORD PTR [edx-4]
  0003f	33 c8		 xor	 ecx, eax
  00041	e8 00 00 00 00	 call	 @__security_check_cookie@4
  00046	b8 00 00 00 00	 mov	 eax, OFFSET __ehfuncinfo$?DisplayInfo@CDlgToolTip@@AAEXPAUToolTipInfo@@AAVCPoint@@@Z
  0004b	e9 00 00 00 00	 jmp	 ___CxxFrameHandler3
text$x	ENDS
?DisplayInfo@CDlgToolTip@@AAEXPAUToolTipInfo@@AAVCPoint@@@Z ENDP ; CDlgToolTip::DisplayInfo
; Function compile flags: /Ogtp
; File D:\git\src\IBK\IBK_DRFN\ProjSrc\SrcChartEx\ChartAddIn\ChartDesignPropertyAddIn\ChartDesignPropertyAddIn\DlgToolTip.cpp
; File C:\Program Files (x86)\Microsoft Visual Studio\2019\Community\VC\Tools\MSVC\14.29.30133\atlmfc\include\afxcoll.inl
; File D:\git\src\IBK\IBK_DRFN\ProjSrc\SrcChartEx\ChartAddIn\ChartDesignPropertyAddIn\ChartDesignPropertyAddIn\DlgToolTip.cpp
; File C:\Program Files (x86)\Microsoft Visual Studio\2019\Community\VC\Tools\MSVC\14.29.30133\atlmfc\include\afxcoll.inl
; File D:\git\src\IBK\IBK_DRFN\ProjSrc\SrcChartEx\ChartAddIn\ChartDesignPropertyAddIn\ChartDesignPropertyAddIn\DlgToolTip.cpp
;	COMDAT ?IsControlIDExisting@CDlgToolTip@@AAEPAUToolTipInfo@@I@Z
_TEXT	SEGMENT
_controlID$ = 8						; size = 4
?IsControlIDExisting@CDlgToolTip@@AAEPAUToolTipInfo@@I@Z PROC ; CDlgToolTip::IsControlIDExisting, COMDAT
; _this$ = ecx

; 352  : {

  00000	55		 push	 ebp
  00001	8b ec		 mov	 ebp, esp
  00003	56		 push	 esi
  00004	8b f1		 mov	 esi, ecx

; 353  : 	ToolTipInfo *pToolTip = NULL;
; 354  : 	int nSize = m_aControlInfo.GetSize();
; 355  : 	for( register int i = 0; i < nSize; i++ )

  00006	33 c0		 xor	 eax, eax
  00008	57		 push	 edi
  00009	8b 96 c8 00 00
	00		 mov	 edx, DWORD PTR [esi+200]
  0000f	85 d2		 test	 edx, edx
  00011	7e 1e		 jle	 SHORT $LN3@IsControlI
  00013	8b 7d 08	 mov	 edi, DWORD PTR _controlID$[ebp]
$LL4@IsControlI:
; File C:\Program Files (x86)\Microsoft Visual Studio\2019\Community\VC\Tools\MSVC\14.29.30133\atlmfc\include\afxcoll.inl

; 246  : 		if( nIndex < 0 || nIndex >= m_nSize )

  00016	85 c0		 test	 eax, eax
  00018	78 37		 js	 SHORT $LN9@IsControlI
  0001a	3b c2		 cmp	 eax, edx
  0001c	7d 33		 jge	 SHORT $LN9@IsControlI

; 248  : 		return m_pData[nIndex]; }

  0001e	8b 8e c4 00 00
	00		 mov	 ecx, DWORD PTR [esi+196]
  00024	8b 0c 81	 mov	 ecx, DWORD PTR [ecx+eax*4]
; File D:\git\src\IBK\IBK_DRFN\ProjSrc\SrcChartEx\ChartAddIn\ChartDesignPropertyAddIn\ChartDesignPropertyAddIn\DlgToolTip.cpp

; 358  : 		if( pToolTip->nControlID == controlID )		// if found!

  00027	39 79 04	 cmp	 DWORD PTR [ecx+4], edi
  0002a	74 17		 je	 SHORT $LN14@IsControlI

; 353  : 	ToolTipInfo *pToolTip = NULL;
; 354  : 	int nSize = m_aControlInfo.GetSize();
; 355  : 	for( register int i = 0; i < nSize; i++ )

  0002c	40		 inc	 eax
  0002d	3b c2		 cmp	 eax, edx
  0002f	7c e5		 jl	 SHORT $LL4@IsControlI
$LN3@IsControlI:
  00031	5f		 pop	 edi

; 362  : 		}
; 363  : 	}
; 364  : 	m_currentControlID = 0;		// if not found, reset the current control ID to refresh the display

  00032	c7 86 d4 00 00
	00 00 00 00 00	 mov	 DWORD PTR [esi+212], 0

; 365  : 
; 366  : 	return NULL;

  0003c	33 c0		 xor	 eax, eax

; 367  : }

  0003e	5e		 pop	 esi
  0003f	5d		 pop	 ebp
  00040	c2 04 00	 ret	 4
$LN14@IsControlI:

; 359  : 		{
; 360  : 			m_currentControlID = controlID;

  00043	89 be d4 00 00
	00		 mov	 DWORD PTR [esi+212], edi

; 361  : 			return pToolTip;

  00049	8b c1		 mov	 eax, ecx
  0004b	5f		 pop	 edi

; 367  : }

  0004c	5e		 pop	 esi
  0004d	5d		 pop	 ebp
  0004e	c2 04 00	 ret	 4
$LN9@IsControlI:
; File C:\Program Files (x86)\Microsoft Visual Studio\2019\Community\VC\Tools\MSVC\14.29.30133\atlmfc\include\afxcoll.inl

; 247  : 			AfxThrowInvalidArgException();

  00051	e8 00 00 00 00	 call	 ?AfxThrowInvalidArgException@@YGXXZ ; AfxThrowInvalidArgException
$LN18@IsControlI:
  00056	cc		 int	 3
?IsControlIDExisting@CDlgToolTip@@AAEPAUToolTipInfo@@I@Z ENDP ; CDlgToolTip::IsControlIDExisting
_TEXT	ENDS
; Function compile flags: /Ogtp
; File D:\git\src\IBK\IBK_DRFN\ProjSrc\SrcChartEx\ChartAddIn\ChartDesignPropertyAddIn\ChartDesignPropertyAddIn\DlgToolTip.cpp
; File C:\Program Files (x86)\Microsoft Visual Studio\2019\Community\VC\Tools\MSVC\14.29.30133\atlmfc\include\afxcoll.inl
; File C:\Program Files (x86)\Microsoft Visual Studio\2019\Community\VC\Tools\MSVC\14.29.30133\atlmfc\include\atlsimpstr.h
; File D:\git\src\IBK\IBK_DRFN\ProjSrc\SrcChartEx\ChartAddIn\ChartDesignPropertyAddIn\ChartDesignPropertyAddIn\DlgToolTip.cpp
; File C:\Program Files (x86)\Microsoft Visual Studio\2019\Community\VC\Tools\MSVC\14.29.30133\atlmfc\include\afxcoll.inl
; File D:\git\src\IBK\IBK_DRFN\ProjSrc\SrcChartEx\ChartAddIn\ChartDesignPropertyAddIn\ChartDesignPropertyAddIn\DlgToolTip.cpp
;	COMDAT ?CalculateHeightAndWidth@CDlgToolTip@@EAEXAAVCStringArray@@@Z
_TEXT	SEGMENT
_straInfos$ = 8						; size = 4
?CalculateHeightAndWidth@CDlgToolTip@@EAEXAAVCStringArray@@@Z PROC ; CDlgToolTip::CalculateHeightAndWidth, COMDAT
; _this$ = ecx

; 82   : {

  00000	55		 push	 ebp
  00001	8b ec		 mov	 ebp, esp
  00003	53		 push	 ebx

; 83   : 	//This assertion fails because you did not call Create() first.
; 84   : 	//m_pParentWnd was not initialized.
; 85   : 	ASSERT(m_pParentWnd);
; 86   : 	m_nTotalLine = 0;
; 87   : 	int nMaxLength = 0;
; 88   : 	int nLength;
; 89   : 	int nLine = straInfos.GetSize();

  00004	8b 5d 08	 mov	 ebx, DWORD PTR _straInfos$[ebp]
  00007	33 d2		 xor	 edx, edx
  00009	56		 push	 esi
  0000a	57		 push	 edi
  0000b	8b f9		 mov	 edi, ecx

; 90   : 	for(int i=0; i<nLine; i++)

  0000d	33 c0		 xor	 eax, eax
  0000f	c7 87 b8 00 00
	00 00 00 00 00	 mov	 DWORD PTR [edi+184], 0
  00019	8b 73 08	 mov	 esi, DWORD PTR [ebx+8]
  0001c	85 f6		 test	 esi, esi
  0001e	7e 1d		 jle	 SHORT $LN3@CalculateH
$LL4@CalculateH:
; File C:\Program Files (x86)\Microsoft Visual Studio\2019\Community\VC\Tools\MSVC\14.29.30133\atlmfc\include\afxcoll.inl

; 306  : 		if( nIndex < 0 || nIndex >= m_nSize )

  00020	85 c0		 test	 eax, eax
  00022	78 52		 js	 SHORT $LN20@CalculateH
  00024	3b c6		 cmp	 eax, esi
  00026	7d 4e		 jge	 SHORT $LN20@CalculateH
; File C:\Program Files (x86)\Microsoft Visual Studio\2019\Community\VC\Tools\MSVC\14.29.30133\atlmfc\include\atlsimpstr.h

; 519  : 		return( GetData()->nDataLength );

  00028	8b 4b 04	 mov	 ecx, DWORD PTR [ebx+4]
  0002b	8b 0c 81	 mov	 ecx, DWORD PTR [ecx+eax*4]
  0002e	8b 49 f4	 mov	 ecx, DWORD PTR [ecx-12]
; File D:\git\src\IBK\IBK_DRFN\ProjSrc\SrcChartEx\ChartAddIn\ChartDesignPropertyAddIn\ChartDesignPropertyAddIn\DlgToolTip.cpp

; 90   : 	for(int i=0; i<nLine; i++)

  00031	3b ca		 cmp	 ecx, edx
  00033	0f 4e ca	 cmovle	 ecx, edx
  00036	40		 inc	 eax
  00037	8b d1		 mov	 edx, ecx
  00039	3b c6		 cmp	 eax, esi
  0003b	7c e3		 jl	 SHORT $LL4@CalculateH
$LN3@CalculateH:

; 91   : 	{
; 92   : 		nLength = (straInfos[i]).GetLength();
; 93   : 		if(nLength > nMaxLength)
; 94   : 			nMaxLength = nLength;
; 95   : 	}
; 96   : 
; 97   : 	//LOGFONT lFont;
; 98   : 	//GetObject(GetStockObject(ANSI_VAR_FONT), sizeof(lFont), &lFont);
; 99   : 
; 100  : //	nLine++;  //   ...
; 101  : 	m_nTotalLine = nLine;		// holder for maximum line of information
; 102  : 	m_maxCharInLine = (nMaxLength +1);		// holder for longest char info

  0003d	8d 42 01	 lea	 eax, DWORD PTR [edx+1]
  00040	89 b7 b8 00 00
	00		 mov	 DWORD PTR [edi+184], esi
  00046	89 87 bc 00 00
	00		 mov	 DWORD PTR [edi+188], eax

; 103  : 	m_nHeight = (12 + m_nTotalLine * (m_nFontSize +1)); // 12 + nLine * (m_nFontSize - 1);	//m_nFontSize is the font size

  0004c	8b 87 b4 00 00
	00		 mov	 eax, DWORD PTR [edi+180]
  00052	40		 inc	 eax
  00053	0f af c6	 imul	 eax, esi
  00056	83 c0 0c	 add	 eax, 12			; 0000000cH
  00059	89 87 ac 00 00
	00		 mov	 DWORD PTR [edi+172], eax

; 104  : 	m_nWidth = 10 + (int)(6 * (nMaxLength+1));	//aproximately 5 pixel per char ///7.5

  0005f	8d 04 52	 lea	 eax, DWORD PTR [edx+edx*2]
  00062	8d 04 45 10 00
	00 00		 lea	 eax, DWORD PTR [eax*2+16]
  00069	89 87 b0 00 00
	00		 mov	 DWORD PTR [edi+176], eax
  0006f	5f		 pop	 edi
  00070	5e		 pop	 esi
  00071	5b		 pop	 ebx

; 105  : }

  00072	5d		 pop	 ebp
  00073	c2 04 00	 ret	 4
$LN20@CalculateH:
; File C:\Program Files (x86)\Microsoft Visual Studio\2019\Community\VC\Tools\MSVC\14.29.30133\atlmfc\include\afxcoll.inl

; 307  : 			AfxThrowInvalidArgException();

  00076	e8 00 00 00 00	 call	 ?AfxThrowInvalidArgException@@YGXXZ ; AfxThrowInvalidArgException
$LN24@CalculateH:
  0007b	cc		 int	 3
?CalculateHeightAndWidth@CDlgToolTip@@EAEXAAVCStringArray@@@Z ENDP ; CDlgToolTip::CalculateHeightAndWidth
_TEXT	ENDS
; Function compile flags: /Ogtp
; File D:\git\src\IBK\IBK_DRFN\ProjSrc\SrcChartEx\ChartAddIn\ChartDesignPropertyAddIn\ChartDesignPropertyAddIn\DlgToolTip.cpp
; File C:\Program Files (x86)\Microsoft Visual Studio\2019\Community\VC\Tools\MSVC\14.29.30133\atlmfc\include\afxwin2.inl
; File D:\git\src\IBK\IBK_DRFN\ProjSrc\SrcChartEx\ChartAddIn\ChartDesignPropertyAddIn\ChartDesignPropertyAddIn\DlgToolTip.cpp
; File C:\Program Files (x86)\Microsoft Visual Studio\2019\Community\VC\Tools\MSVC\14.29.30133\atlmfc\include\afxwin2.inl
; File C:\Program Files (x86)\Microsoft Visual Studio\2019\Community\VC\Tools\MSVC\14.29.30133\atlmfc\include\atltypes.h
; File C:\Program Files (x86)\Microsoft Visual Studio\2019\Community\VC\Tools\MSVC\14.29.30133\atlmfc\include\afxwin2.inl
; File D:\git\src\IBK\IBK_DRFN\ProjSrc\SrcChartEx\ChartAddIn\ChartDesignPropertyAddIn\ChartDesignPropertyAddIn\DlgToolTip.cpp
; File C:\Program Files (x86)\Microsoft Visual Studio\2019\Community\VC\Tools\MSVC\14.29.30133\atlmfc\include\afxwin2.inl
; File D:\git\src\IBK\IBK_DRFN\ProjSrc\SrcChartEx\ChartAddIn\ChartDesignPropertyAddIn\ChartDesignPropertyAddIn\DlgToolTip.cpp
;	COMDAT ?CalculateInfoBoxRect@CDlgToolTip@@EAEXIPAVCRect@@AAVCPoint@@@Z
_TEXT	SEGMENT
$T1 = -44						; size = 4
_pInfoRect$GSCopy$1$ = -40				; size = 4
_oRect$ = -36						; size = 16
_oParentWindowRect$ = -20				; size = 16
__$ArrayPad$ = -4					; size = 4
_nControlID$ = 8					; size = 4
_pInfoRect$ = 12					; size = 4
_point$ = 16						; size = 4
?CalculateInfoBoxRect@CDlgToolTip@@EAEXIPAVCRect@@AAVCPoint@@@Z PROC ; CDlgToolTip::CalculateInfoBoxRect, COMDAT
; _this$ = ecx

; 108  : {

  00000	55		 push	 ebp
  00001	8b ec		 mov	 ebp, esp
  00003	83 ec 2c	 sub	 esp, 44			; 0000002cH
  00006	a1 00 00 00 00	 mov	 eax, DWORD PTR ___security_cookie
  0000b	33 c5		 xor	 eax, ebp
  0000d	89 45 fc	 mov	 DWORD PTR __$ArrayPad$[ebp], eax
  00010	8b 45 0c	 mov	 eax, DWORD PTR _pInfoRect$[ebp]
  00013	0f 57 c0	 xorps	 xmm0, xmm0
  00016	53		 push	 ebx
  00017	56		 push	 esi
; File C:\Program Files (x86)\Microsoft Visual Studio\2019\Community\VC\Tools\MSVC\14.29.30133\atlmfc\include\afxwin2.inl

; 84   : 	{ ASSERT(::IsWindow(m_hWnd)); ::GetWindowRect(m_hWnd, lpRect); }

  00018	8b 35 00 00 00
	00		 mov	 esi, DWORD PTR __imp__GetWindowRect@8
; File D:\git\src\IBK\IBK_DRFN\ProjSrc\SrcChartEx\ChartAddIn\ChartDesignPropertyAddIn\ChartDesignPropertyAddIn\DlgToolTip.cpp

; 108  : {

  0001e	8b d9		 mov	 ebx, ecx
  00020	57		 push	 edi
  00021	8b 7d 08	 mov	 edi, DWORD PTR _nControlID$[ebp]
  00024	89 45 d8	 mov	 DWORD PTR _pInfoRect$GSCopy$1$[ebp], eax
; File C:\Program Files (x86)\Microsoft Visual Studio\2019\Community\VC\Tools\MSVC\14.29.30133\atlmfc\include\afxwin2.inl

; 84   : 	{ ASSERT(::IsWindow(m_hWnd)); ::GetWindowRect(m_hWnd, lpRect); }

  00027	8d 45 ec	 lea	 eax, DWORD PTR _oParentWindowRect$[ebp]
  0002a	50		 push	 eax
  0002b	8b 83 a8 00 00
	00		 mov	 eax, DWORD PTR [ebx+168]
; File C:\Program Files (x86)\Microsoft Visual Studio\2019\Community\VC\Tools\MSVC\14.29.30133\atlmfc\include\atltypes.h

; 540  : 	left = l;

  00031	0f 11 45 dc	 movups	 XMMWORD PTR _oRect$[ebp], xmm0
  00035	0f 11 45 ec	 movups	 XMMWORD PTR _oParentWindowRect$[ebp], xmm0
; File C:\Program Files (x86)\Microsoft Visual Studio\2019\Community\VC\Tools\MSVC\14.29.30133\atlmfc\include\afxwin2.inl

; 84   : 	{ ASSERT(::IsWindow(m_hWnd)); ::GetWindowRect(m_hWnd, lpRect); }

  00039	ff 70 20	 push	 DWORD PTR [eax+32]
  0003c	ff d6		 call	 esi
; File D:\git\src\IBK\IBK_DRFN\ProjSrc\SrcChartEx\ChartAddIn\ChartDesignPropertyAddIn\ChartDesignPropertyAddIn\DlgToolTip.cpp

; 115  : 	m_pParentWnd->ScreenToClient(&oParentWindowRect);

  0003e	8b 8b a8 00 00
	00		 mov	 ecx, DWORD PTR [ebx+168]
  00044	8d 45 ec	 lea	 eax, DWORD PTR _oParentWindowRect$[ebp]
  00047	50		 push	 eax
  00048	e8 00 00 00 00	 call	 ?ScreenToClient@CWnd@@QBEXPAUtagRECT@@@Z ; CWnd::ScreenToClient

; 116  : 	
; 117  : 	CWnd* pWnd = m_pParentWnd->GetDlgItem(nControlID);

  0004d	8b 8b a8 00 00
	00		 mov	 ecx, DWORD PTR [ebx+168]
  00053	57		 push	 edi
  00054	e8 00 00 00 00	 call	 ?GetDlgItem@CWnd@@QBEPAV1@H@Z ; CWnd::GetDlgItem
; File C:\Program Files (x86)\Microsoft Visual Studio\2019\Community\VC\Tools\MSVC\14.29.30133\atlmfc\include\afxwin2.inl

; 84   : 	{ ASSERT(::IsWindow(m_hWnd)); ::GetWindowRect(m_hWnd, lpRect); }

  00059	8d 4d dc	 lea	 ecx, DWORD PTR _oRect$[ebp]
  0005c	51		 push	 ecx
  0005d	ff 70 20	 push	 DWORD PTR [eax+32]
  00060	ff d6		 call	 esi
; File D:\git\src\IBK\IBK_DRFN\ProjSrc\SrcChartEx\ChartAddIn\ChartDesignPropertyAddIn\ChartDesignPropertyAddIn\DlgToolTip.cpp

; 120  : 	m_pParentWnd->ScreenToClient(&oRect);

  00062	8b 8b a8 00 00
	00		 mov	 ecx, DWORD PTR [ebx+168]
  00068	8d 45 dc	 lea	 eax, DWORD PTR _oRect$[ebp]
  0006b	50		 push	 eax
  0006c	e8 00 00 00 00	 call	 ?ScreenToClient@CWnd@@QBEXPAUtagRECT@@@Z ; CWnd::ScreenToClient

; 121  : 
; 122  : 	//check if the box fit in the parent dialog 
; 123  : 	SetFontSize( 12 );  //14
; 124  : 	int nBottom = oRect.bottom - ((oRect.bottom - oRect.top)/2) + m_nHeight;

  00071	8b 83 ac 00 00
	00		 mov	 eax, DWORD PTR [ebx+172]
  00077	8b 7d e0	 mov	 edi, DWORD PTR _oRect$[ebp+4]
  0007a	89 45 d4	 mov	 DWORD PTR $T1[ebp], eax
  0007d	8b 45 e8	 mov	 eax, DWORD PTR _oRect$[ebp+12]
  00080	2b c7		 sub	 eax, edi
  00082	c7 83 b4 00 00
	00 0c 00 00 00	 mov	 DWORD PTR [ebx+180], 12	; 0000000cH
  0008c	99		 cdq
  0008d	2b c2		 sub	 eax, edx

; 125  : 	if(nBottom <= oParentWindowRect.bottom)

  0008f	8b 55 d4	 mov	 edx, DWORD PTR $T1[ebp]
  00092	d1 f8		 sar	 eax, 1
  00094	8b ca		 mov	 ecx, edx
  00096	2b c8		 sub	 ecx, eax
  00098	8b 45 f8	 mov	 eax, DWORD PTR _oParentWindowRect$[ebp+12]
  0009b	03 4d e8	 add	 ecx, DWORD PTR _oRect$[ebp+12]
  0009e	3b c8		 cmp	 ecx, eax
  000a0	8b 4d 10	 mov	 ecx, DWORD PTR _point$[ebp]
  000a3	7f 08		 jg	 SHORT $LN2@CalculateI

; 126  : 	{
; 127  : //		pInfoRect->top = oRect.bottom - (oRect.bottom - oRect.top)/2;
; 128  : //		pInfoRect->bottom = pInfoRect->top + m_nHeight;
; 129  : 
; 130  : //		if((oParentWindowRect.bottom - oRect.bottom) < m_nHeight)	{
; 131  : //			pInfoRect->top = oRect.top - m_nHeight ;
; 132  : 			pInfoRect->top = (point.y +10);

  000a5	8b 79 04	 mov	 edi, DWORD PTR [ecx+4]
  000a8	83 c7 0a	 add	 edi, 10			; 0000000aH

; 133  : 			pInfoRect->bottom = pInfoRect->top + m_nHeight;
; 134  : //		}
; 135  : //		else {
; 136  : //			pInfoRect->top = oRect.bottom ;
; 137  : //			pInfoRect->bottom = pInfoRect->top + m_nHeight;
; 138  : //		}
; 139  : 
; 140  : 	}

  000ab	eb 2f		 jmp	 SHORT $LN20@CalculateI
$LN2@CalculateI:

; 141  : 	else
; 142  : 	{
; 143  : 		// change the size of the font as well as the info box if all
; 144  : 		// info data cannot be viewed
; 145  : 		if( m_nHeight > (oParentWindowRect.bottom - oParentWindowRect.top) )

  000ad	2b 45 f0	 sub	 eax, DWORD PTR _oParentWindowRect$[ebp+4]
  000b0	3b d0		 cmp	 edx, eax
  000b2	7e 26		 jle	 SHORT $LN19@CalculateI

; 146  : 		{
; 147  : 			SetFontSize( 12 );  //12
; 148  : 			m_nHeight = (12 + m_nTotalLine * (m_nFontSize +1));	//m_nFontSize is the font size
; 149  : 			m_nWidth = 10 + (int)(6 * m_maxCharInLine);	//7

  000b4	8b 83 bc 00 00
	00		 mov	 eax, DWORD PTR [ebx+188]
  000ba	6b 93 b8 00 00
	00 0d		 imul	 edx, DWORD PTR [ebx+184], 13
  000c1	8d 04 40	 lea	 eax, DWORD PTR [eax+eax*2]
  000c4	8d 04 45 0a 00
	00 00		 lea	 eax, DWORD PTR [eax*2+10]
  000cb	83 c2 0c	 add	 edx, 12			; 0000000cH
  000ce	89 83 b0 00 00
	00		 mov	 DWORD PTR [ebx+176], eax
  000d4	89 93 ac 00 00
	00		 mov	 DWORD PTR [ebx+172], edx
$LN19@CalculateI:

; 150  : 		}
; 151  : 		// end
; 152  : 		pInfoRect->top = oRect.top - m_nHeight ;

  000da	2b fa		 sub	 edi, edx
$LN20@CalculateI:

; 153  : 		pInfoRect->bottom = pInfoRect->top + m_nHeight;
; 154  : 
; 155  : //		pInfoRect->bottom = oParentWindowRect.bottom - 1;
; 156  : //		pInfoRect->top = pInfoRect->bottom - m_nHeight;
; 157  : 	}
; 158  : 
; 159  : 	//check if the box fit in the parent dialog
; 160  : //	int nRight = (oRect.left + oRect.right)/2 + m_nWidth;
; 161  : 	int nRight = point.x;
; 162  : 	if((nRight+ m_nWidth) <= oParentWindowRect.right)

  000dc	8b 55 d8	 mov	 edx, DWORD PTR _pInfoRect$GSCopy$1$[ebp]
  000df	89 7a 04	 mov	 DWORD PTR [edx+4], edi
  000e2	8b 83 ac 00 00
	00		 mov	 eax, DWORD PTR [ebx+172]
  000e8	03 c7		 add	 eax, edi
  000ea	89 42 0c	 mov	 DWORD PTR [edx+12], eax
  000ed	8b b3 b0 00 00
	00		 mov	 esi, DWORD PTR [ebx+176]
  000f3	8b 09		 mov	 ecx, DWORD PTR [ecx]
  000f5	8d 04 31	 lea	 eax, DWORD PTR [ecx+esi]
  000f8	3b 45 f4	 cmp	 eax, DWORD PTR _oParentWindowRect$[ebp+8]
  000fb	7f 12		 jg	 SHORT $LN5@CalculateI

; 163  : 	{
; 164  : 		pInfoRect->left = point.x;
; 165  : 		pInfoRect->right = pInfoRect->left + m_nWidth;

  000fd	8b 7a 04	 mov	 edi, DWORD PTR [edx+4]
  00100	89 0a		 mov	 DWORD PTR [edx], ecx
  00102	8b 83 b0 00 00
	00		 mov	 eax, DWORD PTR [ebx+176]
  00108	03 c1		 add	 eax, ecx
  0010a	89 42 08	 mov	 DWORD PTR [edx+8], eax

; 166  : 
; 167  : //		pInfoRect->left = (oRect.left + oRect.right)/2;
; 168  : //		pInfoRect->right = pInfoRect->left + m_nWidth;
; 169  : 
; 170  : 	}

  0010d	eb 28		 jmp	 SHORT $LN8@CalculateI
$LN5@CalculateI:

; 171  : 	else
; 172  : 	{
; 173  : //		int nLeft = (oRect.left + oRect.right)/2 - m_nWidth;
; 174  : 		int nLeft = point.x;
; 175  : //		if(nLeft <= oParentWindowRect.left)
; 176  : 		if((nLeft-m_nWidth) <= oParentWindowRect.left)

  0010f	8b c1		 mov	 eax, ecx
  00111	2b c6		 sub	 eax, esi
  00113	8b 75 ec	 mov	 esi, DWORD PTR _oParentWindowRect$[ebp]
  00116	3b c6		 cmp	 eax, esi
  00118	7f 12		 jg	 SHORT $LN7@CalculateI

; 177  : 		{
; 178  : 			pInfoRect->left = oParentWindowRect.left + 1;

  0011a	8d 4e 01	 lea	 ecx, DWORD PTR [esi+1]
  0011d	89 0a		 mov	 DWORD PTR [edx], ecx

; 179  : 			pInfoRect->right = pInfoRect->left + m_nWidth;

  0011f	8b 83 b0 00 00
	00		 mov	 eax, DWORD PTR [ebx+176]
  00125	03 c1		 add	 eax, ecx
  00127	89 42 08	 mov	 DWORD PTR [edx+8], eax

; 180  : 		}

  0012a	eb 0b		 jmp	 SHORT $LN8@CalculateI
$LN7@CalculateI:

; 181  : 		else
; 182  : 		{
; 183  : 			pInfoRect->right = point.x;

  0012c	89 4a 08	 mov	 DWORD PTR [edx+8], ecx

; 184  : 			pInfoRect->left = pInfoRect->right - m_nWidth;

  0012f	2b 8b b0 00 00
	00		 sub	 ecx, DWORD PTR [ebx+176]
  00135	89 0a		 mov	 DWORD PTR [edx], ecx
$LN8@CalculateI:

; 185  : 
; 186  : //			pInfoRect->right = (oRect.left + oRect.right)/2;
; 187  : //			pInfoRect->left = pInfoRect->right - m_nWidth;
; 188  : 
; 189  : 		}
; 190  : 	}
; 191  : 
; 192  : 	m_rcToolTip.top = pInfoRect->top;
; 193  : 	m_rcToolTip.left = pInfoRect->left;
; 194  : 	m_rcToolTip.right = pInfoRect->right;
; 195  : 	m_rcToolTip.bottom = pInfoRect->bottom;
; 196  : 
; 197  : 	ASSERT(pInfoRect->top <= pInfoRect->bottom);
; 198  : 	ASSERT(pInfoRect->left <= pInfoRect->right);
; 199  : }

  00137	8b 4d fc	 mov	 ecx, DWORD PTR __$ArrayPad$[ebp]
  0013a	89 bb 9c 00 00
	00		 mov	 DWORD PTR [ebx+156], edi
  00140	33 cd		 xor	 ecx, ebp
  00142	8b 02		 mov	 eax, DWORD PTR [edx]
  00144	89 83 98 00 00
	00		 mov	 DWORD PTR [ebx+152], eax
  0014a	8b 42 08	 mov	 eax, DWORD PTR [edx+8]
  0014d	5f		 pop	 edi
  0014e	89 83 a0 00 00
	00		 mov	 DWORD PTR [ebx+160], eax
  00154	8b 42 0c	 mov	 eax, DWORD PTR [edx+12]
  00157	5e		 pop	 esi
  00158	89 83 a4 00 00
	00		 mov	 DWORD PTR [ebx+164], eax
  0015e	5b		 pop	 ebx
  0015f	e8 00 00 00 00	 call	 @__security_check_cookie@4
  00164	8b e5		 mov	 esp, ebp
  00166	5d		 pop	 ebp
  00167	c2 0c 00	 ret	 12			; 0000000cH
?CalculateInfoBoxRect@CDlgToolTip@@EAEXIPAVCRect@@AAVCPoint@@@Z ENDP ; CDlgToolTip::CalculateInfoBoxRect
_TEXT	ENDS
; Function compile flags: /Ogtp
; File D:\git\src\IBK\IBK_DRFN\ProjSrc\SrcChartEx\ChartAddIn\ChartDesignPropertyAddIn\ChartDesignPropertyAddIn\DlgToolTip.cpp
; File C:\Program Files (x86)\Microsoft Visual Studio\2019\Community\VC\Tools\MSVC\14.29.30133\atlmfc\include\afxcoll.inl
; File D:\git\src\IBK\IBK_DRFN\ProjSrc\SrcChartEx\ChartAddIn\ChartDesignPropertyAddIn\ChartDesignPropertyAddIn\DlgToolTip.cpp
; File C:\Program Files (x86)\Microsoft Visual Studio\2019\Community\VC\Tools\MSVC\14.29.30133\atlmfc\include\afxcoll.inl
; File D:\git\src\IBK\IBK_DRFN\ProjSrc\SrcChartEx\ChartAddIn\ChartDesignPropertyAddIn\ChartDesignPropertyAddIn\DlgToolTip.cpp
;	COMDAT ?RemoveControlInfo@CDlgToolTip@@QAEHI@Z
_TEXT	SEGMENT
tv261 = -4						; size = 4
_controlID$ = 8						; size = 4
?RemoveControlInfo@CDlgToolTip@@QAEHI@Z PROC		; CDlgToolTip::RemoveControlInfo, COMDAT
; _this$ = ecx

; 370  : {

  00000	55		 push	 ebp
  00001	8b ec		 mov	 ebp, esp
  00003	51		 push	 ecx

; 371  : 	ToolTipInfo *pToolTip = NULL;
; 372  : 	int nSize = m_aControlInfo.GetSize();

  00004	8b 91 c8 00 00
	00		 mov	 edx, DWORD PTR [ecx+200]
  0000a	56		 push	 esi

; 373  : 	for( register int i = 0; i < nSize; i++ )

  0000b	33 f6		 xor	 esi, esi
  0000d	85 d2		 test	 edx, edx
  0000f	7e 2c		 jle	 SHORT $LN3@RemoveCont
  00011	53		 push	 ebx
  00012	8b 5d 08	 mov	 ebx, DWORD PTR _controlID$[ebp]
  00015	8d 81 c0 00 00
	00		 lea	 eax, DWORD PTR [ecx+192]
  0001b	89 45 fc	 mov	 DWORD PTR tv261[ebp], eax
  0001e	57		 push	 edi
  0001f	90		 npad	 1
$LL4@RemoveCont:
; File C:\Program Files (x86)\Microsoft Visual Studio\2019\Community\VC\Tools\MSVC\14.29.30133\atlmfc\include\afxcoll.inl

; 246  : 		if( nIndex < 0 || nIndex >= m_nSize )

  00020	85 f6		 test	 esi, esi
  00022	78 57		 js	 SHORT $LN12@RemoveCont
  00024	3b f2		 cmp	 esi, edx
  00026	7d 53		 jge	 SHORT $LN12@RemoveCont

; 248  : 		return m_pData[nIndex]; }

  00028	8b 81 c4 00 00
	00		 mov	 eax, DWORD PTR [ecx+196]
  0002e	8b 3c b0	 mov	 edi, DWORD PTR [eax+esi*4]
; File D:\git\src\IBK\IBK_DRFN\ProjSrc\SrcChartEx\ChartAddIn\ChartDesignPropertyAddIn\ChartDesignPropertyAddIn\DlgToolTip.cpp

; 376  : 		if( pToolTip->nControlID == controlID )		// if found!

  00031	39 5f 04	 cmp	 DWORD PTR [edi+4], ebx
  00034	74 13		 je	 SHORT $LN17@RemoveCont

; 373  : 	for( register int i = 0; i < nSize; i++ )

  00036	46		 inc	 esi
  00037	3b f2		 cmp	 esi, edx
  00039	7c e5		 jl	 SHORT $LL4@RemoveCont
  0003b	5f		 pop	 edi
  0003c	5b		 pop	 ebx
$LN3@RemoveCont:

; 383  : 			break;		// break from the loop
; 384  : 		}
; 385  : 	}
; 386  : 
; 387  : 	return TRUE;

  0003d	b8 01 00 00 00	 mov	 eax, 1
  00042	5e		 pop	 esi

; 388  : }

  00043	8b e5		 mov	 esp, ebp
  00045	5d		 pop	 ebp
  00046	c2 04 00	 ret	 4
$LN17@RemoveCont:

; 377  : 		{				
; 378  : 			if( m_currentControlID == controlID )

  00049	8b 81 d4 00 00
	00		 mov	 eax, DWORD PTR [ecx+212]
  0004f	3b c3		 cmp	 eax, ebx
  00051	75 06		 jne	 SHORT $LN6@RemoveCont

; 379  : 				ErasePreviousToolTipDisplay( m_currentControlID );

  00053	50		 push	 eax
  00054	e8 00 00 00 00	 call	 ?ErasePreviousToolTipDisplay@CDlgToolTip@@QAEXI@Z ; CDlgToolTip::ErasePreviousToolTipDisplay
$LN6@RemoveCont:

; 380  : 
; 381  : 			m_aControlInfo.RemoveAt( i );	// remove the entry

  00059	8b 4d fc	 mov	 ecx, DWORD PTR tv261[ebp]
  0005c	6a 01		 push	 1
  0005e	56		 push	 esi
  0005f	e8 00 00 00 00	 call	 ?RemoveAt@CObArray@@QAEXHH@Z ; CObArray::RemoveAt

; 382  : 			delete pToolTip;

  00064	8b 07		 mov	 eax, DWORD PTR [edi]
  00066	8b cf		 mov	 ecx, edi
  00068	6a 01		 push	 1
  0006a	ff 50 04	 call	 DWORD PTR [eax+4]
  0006d	5f		 pop	 edi
  0006e	5b		 pop	 ebx

; 383  : 			break;		// break from the loop
; 384  : 		}
; 385  : 	}
; 386  : 
; 387  : 	return TRUE;

  0006f	b8 01 00 00 00	 mov	 eax, 1
  00074	5e		 pop	 esi

; 388  : }

  00075	8b e5		 mov	 esp, ebp
  00077	5d		 pop	 ebp
  00078	c2 04 00	 ret	 4
$LN12@RemoveCont:
; File C:\Program Files (x86)\Microsoft Visual Studio\2019\Community\VC\Tools\MSVC\14.29.30133\atlmfc\include\afxcoll.inl

; 247  : 			AfxThrowInvalidArgException();

  0007b	e8 00 00 00 00	 call	 ?AfxThrowInvalidArgException@@YGXXZ ; AfxThrowInvalidArgException
$LN23@RemoveCont:
  00080	cc		 int	 3
?RemoveControlInfo@CDlgToolTip@@QAEHI@Z ENDP		; CDlgToolTip::RemoveControlInfo
_TEXT	ENDS
; Function compile flags: /Ogtp
; File D:\git\src\IBK\IBK_DRFN\ProjSrc\SrcChartEx\ChartAddIn\ChartDesignPropertyAddIn\ChartDesignPropertyAddIn\DlgToolTip.cpp
; File C:\Program Files (x86)\Microsoft Visual Studio\2019\Community\VC\Tools\MSVC\14.29.30133\atlmfc\include\afx.inl
; File D:\git\src\IBK\IBK_DRFN\ProjSrc\SrcChartEx\ChartAddIn\ChartDesignPropertyAddIn\ChartDesignPropertyAddIn\DlgToolTip.cpp
; File C:\Program Files (x86)\Microsoft Visual Studio\2019\Community\VC\Tools\MSVC\14.29.30133\atlmfc\include\afx.inl
; File D:\git\src\IBK\IBK_DRFN\ProjSrc\SrcChartEx\ChartAddIn\ChartDesignPropertyAddIn\ChartDesignPropertyAddIn\DlgToolTip.cpp
; File D:\git\src\IBK\IBK_DRFN\ProjSrc\SrcChartEx\ChartAddIn\ChartDesignPropertyAddIn\Include_Chart\Dll_Load\IMetaTable.h
; File C:\Program Files (x86)\Microsoft Visual Studio\2019\Community\VC\Tools\MSVC\14.29.30133\atlmfc\include\afxwin1.inl
; File D:\git\src\IBK\IBK_DRFN\ProjSrc\SrcChartEx\ChartAddIn\ChartDesignPropertyAddIn\Include_Chart\Dll_Load\IMetaTable.h
; File C:\Program Files (x86)\Microsoft Visual Studio\2019\Community\VC\Tools\MSVC\14.29.30133\atlmfc\include\afxwin1.inl
; File D:\git\src\IBK\IBK_DRFN\ProjSrc\SrcChartEx\ChartAddIn\ChartDesignPropertyAddIn\ChartDesignPropertyAddIn\DlgToolTip.cpp
; File C:\Program Files (x86)\Microsoft Visual Studio\2019\Community\VC\Tools\MSVC\14.29.30133\atlmfc\include\afxcoll.inl
; File D:\git\src\IBK\IBK_DRFN\ProjSrc\SrcChartEx\ChartAddIn\ChartDesignPropertyAddIn\ChartDesignPropertyAddIn\DlgToolTip.cpp
; File C:\Program Files (x86)\Microsoft Visual Studio\2019\Community\VC\Tools\MSVC\14.29.30133\atlmfc\include\afxcoll.inl
; File D:\git\src\IBK\IBK_DRFN\ProjSrc\SrcChartEx\ChartAddIn\ChartDesignPropertyAddIn\ChartDesignPropertyAddIn\DlgToolTip.cpp
; File C:\Program Files (x86)\Microsoft Visual Studio\2019\Community\VC\Tools\MSVC\14.29.30133\atlmfc\include\afxcoll.inl
; File D:\git\src\IBK\IBK_DRFN\ProjSrc\SrcChartEx\ChartAddIn\ChartDesignPropertyAddIn\ChartDesignPropertyAddIn\DlgToolTip.cpp
; File C:\Program Files (x86)\Microsoft Visual Studio\2019\Community\VC\Tools\MSVC\14.29.30133\atlmfc\include\afxcoll.inl
; File D:\git\src\IBK\IBK_DRFN\ProjSrc\SrcChartEx\ChartAddIn\ChartDesignPropertyAddIn\ChartDesignPropertyAddIn\DlgToolTip.cpp
; File C:\Program Files (x86)\Microsoft Visual Studio\2019\Community\VC\Tools\MSVC\14.29.30133\atlmfc\include\afxcoll.inl
; File D:\git\src\IBK\IBK_DRFN\ProjSrc\SrcChartEx\ChartAddIn\ChartDesignPropertyAddIn\ChartDesignPropertyAddIn\DlgToolTip.cpp
; File C:\Program Files (x86)\Microsoft Visual Studio\2019\Community\VC\Tools\MSVC\14.29.30133\atlmfc\include\afxcoll.inl
; File D:\git\src\IBK\IBK_DRFN\ProjSrc\SrcChartEx\ChartAddIn\ChartDesignPropertyAddIn\ChartDesignPropertyAddIn\DlgToolTip.cpp
; File D:\git\src\IBK\IBK_DRFN\ProjSrc\SrcChartEx\ChartAddIn\ChartDesignPropertyAddIn\Include_Chart\Dll_Load\IMetaTable.h
; File C:\Program Files (x86)\Microsoft Visual Studio\2019\Community\VC\Tools\MSVC\14.29.30133\atlmfc\include\afxwin1.inl
; File D:\git\src\IBK\IBK_DRFN\ProjSrc\SrcChartEx\ChartAddIn\ChartDesignPropertyAddIn\ChartDesignPropertyAddIn\DlgToolTip.cpp
; File C:\Program Files (x86)\Microsoft Visual Studio\2019\Community\VC\Tools\MSVC\14.29.30133\atlmfc\include\afxcoll.inl
; File D:\git\src\IBK\IBK_DRFN\ProjSrc\SrcChartEx\ChartAddIn\ChartDesignPropertyAddIn\ChartDesignPropertyAddIn\DlgToolTip.cpp
;	COMDAT ?AddControlInfo@CDlgToolTip@@QAEHIAAVCDWordArray@@KK@Z
_TEXT	SEGMENT
___mlrs__$ = -28					; size = 4
_this$1$ = -24						; size = 4
_nSize$1$ = -20						; size = 4
$T2 = -20						; size = 4
_strTooltip$ = -16					; size = 4
__$EHRec$ = -12						; size = 12
_contolID$ = 8						; size = 4
_dwaInfo$ = 12						; size = 4
_back$ = 16						; size = 4
_text$ = 20						; size = 4
?AddControlInfo@CDlgToolTip@@QAEHIAAVCDWordArray@@KK@Z PROC ; CDlgToolTip::AddControlInfo, COMDAT
; _this$ = ecx

; 320  : {

  00000	55		 push	 ebp
  00001	8b ec		 mov	 ebp, esp
  00003	6a ff		 push	 -1
  00005	68 00 00 00 00	 push	 __ehhandler$?AddControlInfo@CDlgToolTip@@QAEHIAAVCDWordArray@@KK@Z
  0000a	64 a1 00 00 00
	00		 mov	 eax, DWORD PTR fs:0
  00010	50		 push	 eax
  00011	83 ec 10	 sub	 esp, 16			; 00000010H
  00014	53		 push	 ebx
  00015	56		 push	 esi
  00016	57		 push	 edi
  00017	a1 00 00 00 00	 mov	 eax, DWORD PTR ___security_cookie
  0001c	33 c5		 xor	 eax, ebp
  0001e	50		 push	 eax
  0001f	8d 45 f4	 lea	 eax, DWORD PTR __$EHRec$[ebp]
  00022	64 a3 00 00 00
	00		 mov	 DWORD PTR fs:0, eax
  00028	8b f9		 mov	 edi, ecx
  0002a	89 7d e8	 mov	 DWORD PTR _this$1$[ebp], edi
; File C:\Program Files (x86)\Microsoft Visual Studio\2019\Community\VC\Tools\MSVC\14.29.30133\atlmfc\include\afx.inl

; 116  : 	{ return ::operator new(nSize); }

  0002d	6a 28		 push	 40			; 00000028H
  0002f	e8 00 00 00 00	 call	 ??2@YAPAXI@Z		; operator new
; File D:\git\src\IBK\IBK_DRFN\ProjSrc\SrcChartEx\ChartAddIn\ChartDesignPropertyAddIn\ChartDesignPropertyAddIn\DlgToolTip.cpp

; 321  : 	ToolTipInfo *pToolTip = new ToolTipInfo;

  00034	8b d8		 mov	 ebx, eax
; File C:\Program Files (x86)\Microsoft Visual Studio\2019\Community\VC\Tools\MSVC\14.29.30133\atlmfc\include\afx.inl

; 116  : 	{ return ::operator new(nSize); }

  00036	83 c4 04	 add	 esp, 4
; File D:\git\src\IBK\IBK_DRFN\ProjSrc\SrcChartEx\ChartAddIn\ChartDesignPropertyAddIn\ChartDesignPropertyAddIn\DlgToolTip.cpp

; 321  : 	ToolTipInfo *pToolTip = new ToolTipInfo;

  00039	89 5d ec	 mov	 DWORD PTR $T2[ebp], ebx
  0003c	c7 45 fc 00 00
	00 00		 mov	 DWORD PTR __$EHRec$[ebp+8], 0
  00043	85 db		 test	 ebx, ebx
  00045	74 10		 je	 SHORT $LN7@AddControl
  00047	8d 4b 0c	 lea	 ecx, DWORD PTR [ebx+12]
  0004a	c7 03 00 00 00
	00		 mov	 DWORD PTR [ebx], OFFSET ??_7ToolTipInfo@@6B@
  00050	e8 00 00 00 00	 call	 ??0CStringArray@@QAE@XZ	; CStringArray::CStringArray
  00055	eb 02		 jmp	 SHORT $LN8@AddControl
$LN7@AddControl:
  00057	33 db		 xor	 ebx, ebx
$LN8@AddControl:

; 322  : 	ASSERT( pToolTip != NULL );
; 323  : 
; 324  : 	int nSize = dwaInfo.GetSize();

  00059	8b 45 0c	 mov	 eax, DWORD PTR _dwaInfo$[ebp]
  0005c	c7 45 fc ff ff
	ff ff		 mov	 DWORD PTR __$EHRec$[ebp+8], -1
  00063	8b 40 08	 mov	 eax, DWORD PTR [eax+8]
  00066	89 45 ec	 mov	 DWORD PTR _nSize$1$[ebp], eax

; 325  : 	if( pToolTip <= 0 )	// no information, don't add to the list and return FALSE

  00069	85 db		 test	 ebx, ebx
  0006b	75 16		 jne	 SHORT $LN5@AddControl

; 326  : 	{
; 327  : 		delete pToolTip;
; 328  : 		return FALSE;

  0006d	33 c0		 xor	 eax, eax

; 349  : }

  0006f	8b 4d f4	 mov	 ecx, DWORD PTR __$EHRec$[ebp]
  00072	64 89 0d 00 00
	00 00		 mov	 DWORD PTR fs:0, ecx
  00079	59		 pop	 ecx
  0007a	5f		 pop	 edi
  0007b	5e		 pop	 esi
  0007c	5b		 pop	 ebx
  0007d	8b e5		 mov	 esp, ebp
  0007f	5d		 pop	 ebp
  00080	c2 10 00	 ret	 16			; 00000010H
$LN5@AddControl:

; 329  : 	}
; 330  : 
; 331  : 	ML_SET_LANGUAGE_RES();

  00083	e8 00 00 00 00	 call	 ?AfxGetStaticModuleState@@YGPAVAFX_MODULE_STATE@@XZ ; AfxGetStaticModuleState
  00088	8b bf d8 00 00
	00		 mov	 edi, DWORD PTR [edi+216]
  0008e	8b 70 08	 mov	 esi, DWORD PTR [eax+8]
; File D:\git\src\IBK\IBK_DRFN\ProjSrc\SrcChartEx\ChartAddIn\ChartDesignPropertyAddIn\Include_Chart\Dll_Load\IMetaTable.h

; 936  : 	DECLARE_FUNCTION2(	LoadResourceDLL,				HMODULE, AfxGetStaticModuleState()->m_hCurrentInstanceHandle, HWND, HMODULE);

  00091	a1 04 00 00 00	 mov	 eax, DWORD PTR ?g_iMetaTable@@3VIMetaTable@@A+4
  00096	85 c0		 test	 eax, eax
  00098	74 4b		 je	 SHORT $LN22@AddControl
  0009a	b9 80 0d 00 00	 mov	 ecx, 3456		; 00000d80H
  0009f	66 3b 0d 94 00
	00 00		 cmp	 cx, WORD PTR ?g_iMetaTable@@3VIMetaTable@@A+148
  000a6	74 29		 je	 SHORT $LN54@AddControl
  000a8	68 00 00 00 00	 push	 OFFSET ??_C@_0BA@ENJOCHIO@LoadResourceDLL@
  000ad	50		 push	 eax
  000ae	c7 05 90 00 00
	00 00 00 00 00	 mov	 DWORD PTR ?g_iMetaTable@@3VIMetaTable@@A+144, 0
  000b8	ff 15 00 00 00
	00		 call	 DWORD PTR __imp__GetProcAddress@8
  000be	b9 80 0d 00 00	 mov	 ecx, 3456		; 00000d80H
  000c3	a3 90 00 00 00	 mov	 DWORD PTR ?g_iMetaTable@@3VIMetaTable@@A+144, eax
  000c8	66 89 0d 94 00
	00 00		 mov	 WORD PTR ?g_iMetaTable@@3VIMetaTable@@A+148, cx
  000cf	eb 05		 jmp	 SHORT $LN21@AddControl
$LN54@AddControl:
  000d1	a1 90 00 00 00	 mov	 eax, DWORD PTR ?g_iMetaTable@@3VIMetaTable@@A+144
$LN21@AddControl:
  000d6	85 c0		 test	 eax, eax
  000d8	74 0b		 je	 SHORT $LN22@AddControl
  000da	56		 push	 esi
  000db	57		 push	 edi
  000dc	ff d0		 call	 eax
  000de	83 c4 08	 add	 esp, 8
  000e1	8b f8		 mov	 edi, eax
  000e3	eb 08		 jmp	 SHORT $LN19@AddControl
$LN22@AddControl:
  000e5	e8 00 00 00 00	 call	 ?AfxGetStaticModuleState@@YGPAVAFX_MODULE_STATE@@XZ ; AfxGetStaticModuleState
  000ea	8b 78 08	 mov	 edi, DWORD PTR [eax+8]
$LN19@AddControl:
; File C:\Program Files (x86)\Microsoft Visual Studio\2019\Community\VC\Tools\MSVC\14.29.30133\atlmfc\include\afxwin1.inl

; 25   : 		return afxCurrentResourceHandle; }

  000ed	e8 00 00 00 00	 call	 ?AfxGetModuleState@@YGPAVAFX_MODULE_STATE@@XZ ; AfxGetModuleState
; File D:\git\src\IBK\IBK_DRFN\ProjSrc\SrcChartEx\ChartAddIn\ChartDesignPropertyAddIn\Include_Chart\Dll_Load\IMetaTable.h

; 1032 : 		m_hInstance = AfxGetResourceHandle();

  000f2	8b 70 0c	 mov	 esi, DWORD PTR [eax+12]
  000f5	89 75 e4	 mov	 DWORD PTR ___mlrs__$[ebp], esi
; File C:\Program Files (x86)\Microsoft Visual Studio\2019\Community\VC\Tools\MSVC\14.29.30133\atlmfc\include\afxwin1.inl

; 27   : 	{ ASSERT(hInstResource != NULL); afxCurrentResourceHandle = hInstResource; }

  000f8	e8 00 00 00 00	 call	 ?AfxGetModuleState@@YGPAVAFX_MODULE_STATE@@XZ ; AfxGetModuleState
  000fd	89 78 0c	 mov	 DWORD PTR [eax+12], edi
; File D:\git\src\IBK\IBK_DRFN\ProjSrc\SrcChartEx\ChartAddIn\ChartDesignPropertyAddIn\ChartDesignPropertyAddIn\DlgToolTip.cpp

; 332  : 	CString strTooltip;

  00100	8d 4d f0	 lea	 ecx, DWORD PTR _strTooltip$[ebp]
  00103	c7 45 fc 01 00
	00 00		 mov	 DWORD PTR __$EHRec$[ebp+8], 1
  0010a	ff 15 00 00 00
	00		 call	 DWORD PTR __imp_??0?$CStringT@DV?$StrTraitMFC_DLL@DV?$ChTraitsCRT@D@ATL@@@@@ATL@@QAE@XZ
; File C:\Program Files (x86)\Microsoft Visual Studio\2019\Community\VC\Tools\MSVC\14.29.30133\atlmfc\include\afxcoll.inl

; 286  : 	{ SetSize(0); }

  00110	6a ff		 push	 -1
; File D:\git\src\IBK\IBK_DRFN\ProjSrc\SrcChartEx\ChartAddIn\ChartDesignPropertyAddIn\ChartDesignPropertyAddIn\DlgToolTip.cpp

; 333  : 	pToolTip->nControlInfo.RemoveAll();

  00112	8d 4b 0c	 lea	 ecx, DWORD PTR [ebx+12]
  00115	c6 45 fc 02	 mov	 BYTE PTR __$EHRec$[ebp+8], 2
; File C:\Program Files (x86)\Microsoft Visual Studio\2019\Community\VC\Tools\MSVC\14.29.30133\atlmfc\include\afxcoll.inl

; 286  : 	{ SetSize(0); }

  00119	6a 00		 push	 0
  0011b	e8 00 00 00 00	 call	 ?SetSize@CStringArray@@QAEXHH@Z ; CStringArray::SetSize
; File D:\git\src\IBK\IBK_DRFN\ProjSrc\SrcChartEx\ChartAddIn\ChartDesignPropertyAddIn\ChartDesignPropertyAddIn\DlgToolTip.cpp

; 334  : 	pToolTip->nInfoSize  = nSize;

  00120	8b 4d ec	 mov	 ecx, DWORD PTR _nSize$1$[ebp]

; 336  : 	for( register int i = 0; i < nSize; i++ )

  00123	33 ff		 xor	 edi, edi
  00125	8b 45 08	 mov	 eax, DWORD PTR _contolID$[ebp]
  00128	89 4b 08	 mov	 DWORD PTR [ebx+8], ecx
  0012b	89 43 04	 mov	 DWORD PTR [ebx+4], eax
  0012e	85 c9		 test	 ecx, ecx
  00130	7e 30		 jle	 SHORT $LN3@AddControl
$LL4@AddControl:
; File C:\Program Files (x86)\Microsoft Visual Studio\2019\Community\VC\Tools\MSVC\14.29.30133\atlmfc\include\afxcoll.inl

; 128  : 		if( nIndex < 0 || nIndex >= m_nSize )

  00132	85 ff		 test	 edi, edi
  00134	78 7b		 js	 SHORT $LN50@AddControl
  00136	8b 45 0c	 mov	 eax, DWORD PTR _dwaInfo$[ebp]
  00139	3b 78 08	 cmp	 edi, DWORD PTR [eax+8]
  0013c	7d 73		 jge	 SHORT $LN50@AddControl

; 130  : 		return m_pData[nIndex]; }

  0013e	8b 40 04	 mov	 eax, DWORD PTR [eax+4]
; File D:\git\src\IBK\IBK_DRFN\ProjSrc\SrcChartEx\ChartAddIn\ChartDesignPropertyAddIn\ChartDesignPropertyAddIn\DlgToolTip.cpp

; 338  : 		strTooltip.LoadString( dwaInfo[i]);

  00141	8d 4d f0	 lea	 ecx, DWORD PTR _strTooltip$[ebp]
  00144	ff 34 b8	 push	 DWORD PTR [eax+edi*4]
  00147	ff 15 00 00 00
	00		 call	 DWORD PTR __imp_?LoadStringA@?$CStringT@DV?$StrTraitMFC_DLL@DV?$ChTraitsCRT@D@ATL@@@@@ATL@@QAEHI@Z
; File C:\Program Files (x86)\Microsoft Visual Studio\2019\Community\VC\Tools\MSVC\14.29.30133\atlmfc\include\afxcoll.inl

; 321  : 		SetAtGrow(nIndex, newElement);

  0014d	8d 45 f0	 lea	 eax, DWORD PTR _strTooltip$[ebp]
  00150	50		 push	 eax
  00151	ff 73 14	 push	 DWORD PTR [ebx+20]
  00154	8d 4b 0c	 lea	 ecx, DWORD PTR [ebx+12]
  00157	e8 00 00 00 00	 call	 ?SetAtGrow@CStringArray@@QAEXHABV?$CStringT@DV?$StrTraitMFC_DLL@DV?$ChTraitsCRT@D@ATL@@@@@ATL@@@Z ; CStringArray::SetAtGrow
; File D:\git\src\IBK\IBK_DRFN\ProjSrc\SrcChartEx\ChartAddIn\ChartDesignPropertyAddIn\ChartDesignPropertyAddIn\DlgToolTip.cpp

; 336  : 	for( register int i = 0; i < nSize; i++ )

  0015c	47		 inc	 edi
  0015d	3b 7d ec	 cmp	 edi, DWORD PTR _nSize$1$[ebp]
  00160	7c d0		 jl	 SHORT $LL4@AddControl
$LN3@AddControl:

; 344  : 
; 345  : 	// add to the list
; 346  : 	m_aControlInfo.Add( pToolTip );

  00162	8b 4d e8	 mov	 ecx, DWORD PTR _this$1$[ebp]
  00165	8b 45 10	 mov	 eax, DWORD PTR _back$[ebp]
  00168	81 c1 c0 00 00
	00		 add	 ecx, 192		; 000000c0H
  0016e	89 43 24	 mov	 DWORD PTR [ebx+36], eax
  00171	8b 45 14	 mov	 eax, DWORD PTR _text$[ebp]
; File C:\Program Files (x86)\Microsoft Visual Studio\2019\Community\VC\Tools\MSVC\14.29.30133\atlmfc\include\afxcoll.inl

; 266  : 		SetAtGrow(nIndex, newElement);

  00174	53		 push	 ebx
; File D:\git\src\IBK\IBK_DRFN\ProjSrc\SrcChartEx\ChartAddIn\ChartDesignPropertyAddIn\ChartDesignPropertyAddIn\DlgToolTip.cpp

; 343  : 	pToolTip->nTextColor = text;

  00175	89 43 20	 mov	 DWORD PTR [ebx+32], eax
; File C:\Program Files (x86)\Microsoft Visual Studio\2019\Community\VC\Tools\MSVC\14.29.30133\atlmfc\include\afxcoll.inl

; 266  : 		SetAtGrow(nIndex, newElement);

  00178	ff 71 08	 push	 DWORD PTR [ecx+8]
  0017b	e8 00 00 00 00	 call	 ?SetAtGrow@CObArray@@QAEXHPAVCObject@@@Z ; CObArray::SetAtGrow
; File D:\git\src\IBK\IBK_DRFN\ProjSrc\SrcChartEx\ChartAddIn\ChartDesignPropertyAddIn\ChartDesignPropertyAddIn\DlgToolTip.cpp

; 348  : 	return TRUE;

  00180	8d 4d f0	 lea	 ecx, DWORD PTR _strTooltip$[ebp]
  00183	ff 15 00 00 00
	00		 call	 DWORD PTR __imp_??1?$CStringT@DV?$StrTraitMFC_DLL@DV?$ChTraitsCRT@D@ATL@@@@@ATL@@QAE@XZ
; File D:\git\src\IBK\IBK_DRFN\ProjSrc\SrcChartEx\ChartAddIn\ChartDesignPropertyAddIn\Include_Chart\Dll_Load\IMetaTable.h

; 1036 : 	{

  00189	c7 45 fc 03 00
	00 00		 mov	 DWORD PTR __$EHRec$[ebp+8], 3
; File C:\Program Files (x86)\Microsoft Visual Studio\2019\Community\VC\Tools\MSVC\14.29.30133\atlmfc\include\afxwin1.inl

; 27   : 	{ ASSERT(hInstResource != NULL); afxCurrentResourceHandle = hInstResource; }

  00190	e8 00 00 00 00	 call	 ?AfxGetModuleState@@YGPAVAFX_MODULE_STATE@@XZ ; AfxGetModuleState
  00195	89 70 0c	 mov	 DWORD PTR [eax+12], esi
; File D:\git\src\IBK\IBK_DRFN\ProjSrc\SrcChartEx\ChartAddIn\ChartDesignPropertyAddIn\ChartDesignPropertyAddIn\DlgToolTip.cpp

; 348  : 	return TRUE;

  00198	b8 01 00 00 00	 mov	 eax, 1

; 349  : }

  0019d	8b 4d f4	 mov	 ecx, DWORD PTR __$EHRec$[ebp]
  001a0	64 89 0d 00 00
	00 00		 mov	 DWORD PTR fs:0, ecx
  001a7	59		 pop	 ecx
  001a8	5f		 pop	 edi
  001a9	5e		 pop	 esi
  001aa	5b		 pop	 ebx
  001ab	8b e5		 mov	 esp, ebp
  001ad	5d		 pop	 ebp
  001ae	c2 10 00	 ret	 16			; 00000010H
$LN50@AddControl:
; File C:\Program Files (x86)\Microsoft Visual Studio\2019\Community\VC\Tools\MSVC\14.29.30133\atlmfc\include\afxcoll.inl

; 129  : 			AfxThrowInvalidArgException();

  001b1	e8 00 00 00 00	 call	 ?AfxThrowInvalidArgException@@YGXXZ ; AfxThrowInvalidArgException
$LN56@AddControl:
  001b6	cc		 int	 3
_TEXT	ENDS
;	COMDAT text$x
text$x	SEGMENT
__unwindfunclet$?AddControlInfo@CDlgToolTip@@QAEHIAAVCDWordArray@@KK@Z$0:
  00000	8b 45 ec	 mov	 eax, DWORD PTR $T2[ebp]
  00003	50		 push	 eax
  00004	e8 00 00 00 00	 call	 ??3CObject@@SGXPAX@Z	; CObject::operator delete
  00009	c3		 ret	 0
__unwindfunclet$?AddControlInfo@CDlgToolTip@@QAEHIAAVCDWordArray@@KK@Z$1:
  0000a	8d 4d e4	 lea	 ecx, DWORD PTR ___mlrs__$[ebp]
  0000d	e9 00 00 00 00	 jmp	 ??1CMultiLanguageResourceSetter@@QAE@XZ ; CMultiLanguageResourceSetter::~CMultiLanguageResourceSetter
__unwindfunclet$?AddControlInfo@CDlgToolTip@@QAEHIAAVCDWordArray@@KK@Z$2:
  00012	8d 4d f0	 lea	 ecx, DWORD PTR _strTooltip$[ebp]
  00015	ff 25 00 00 00
	00		 jmp	 DWORD PTR __imp_??1?$CStringT@DV?$StrTraitMFC_DLL@DV?$ChTraitsCRT@D@ATL@@@@@ATL@@QAE@XZ
  0001b	cc		 int	 3
  0001c	cc		 int	 3
  0001d	cc		 int	 3
  0001e	cc		 int	 3
  0001f	cc		 int	 3
__ehhandler$?AddControlInfo@CDlgToolTip@@QAEHIAAVCDWordArray@@KK@Z:
  00020	90		 npad	 1
  00021	90		 npad	 1
  00022	8b 54 24 08	 mov	 edx, DWORD PTR [esp+8]
  00026	8d 42 0c	 lea	 eax, DWORD PTR [edx+12]
  00029	8b 4a e0	 mov	 ecx, DWORD PTR [edx-32]
  0002c	33 c8		 xor	 ecx, eax
  0002e	e8 00 00 00 00	 call	 @__security_check_cookie@4
  00033	b8 00 00 00 00	 mov	 eax, OFFSET __ehfuncinfo$?AddControlInfo@CDlgToolTip@@QAEHIAAVCDWordArray@@KK@Z
  00038	e9 00 00 00 00	 jmp	 ___CxxFrameHandler3
text$x	ENDS
?AddControlInfo@CDlgToolTip@@QAEHIAAVCDWordArray@@KK@Z ENDP ; CDlgToolTip::AddControlInfo
; Function compile flags: /Ogtp
; File D:\git\src\IBK\IBK_DRFN\ProjSrc\SrcChartEx\ChartAddIn\ChartDesignPropertyAddIn\ChartDesignPropertyAddIn\DlgToolTip.cpp
; File C:\Program Files (x86)\Microsoft Visual Studio\2019\Community\VC\Tools\MSVC\14.29.30133\atlmfc\include\afxwin2.inl
; File D:\git\src\IBK\IBK_DRFN\ProjSrc\SrcChartEx\ChartAddIn\ChartDesignPropertyAddIn\ChartDesignPropertyAddIn\DlgToolTip.cpp
; File C:\Program Files (x86)\Microsoft Visual Studio\2019\Community\VC\Tools\MSVC\14.29.30133\atlmfc\include\afxwin2.inl
; File D:\git\src\IBK\IBK_DRFN\ProjSrc\SrcChartEx\ChartAddIn\ChartDesignPropertyAddIn\ChartDesignPropertyAddIn\DlgToolTip.cpp
; File C:\Program Files (x86)\Microsoft Visual Studio\2019\Community\VC\Tools\MSVC\14.29.30133\atlmfc\include\afxcoll.inl
; File D:\git\src\IBK\IBK_DRFN\ProjSrc\SrcChartEx\ChartAddIn\ChartDesignPropertyAddIn\ChartDesignPropertyAddIn\DlgToolTip.cpp
; File C:\Program Files (x86)\Microsoft Visual Studio\2019\Community\VC\Tools\MSVC\14.29.30133\atlmfc\include\afxcoll.inl
; File D:\git\src\IBK\IBK_DRFN\ProjSrc\SrcChartEx\ChartAddIn\ChartDesignPropertyAddIn\ChartDesignPropertyAddIn\DlgToolTip.cpp
;	COMDAT ?ShowToolTip@CDlgToolTip@@QAEXAAVCPoint@@@Z
_TEXT	SEGMENT
$T1 = -12						; size = 8
$T2 = -4						; size = 4
$T3 = 8							; size = 4
_point$ = 8						; size = 4
?ShowToolTip@CDlgToolTip@@QAEXAAVCPoint@@@Z PROC	; CDlgToolTip::ShowToolTip, COMDAT
; _this$ = ecx

; 212  : {						

  00000	55		 push	 ebp
  00001	8b ec		 mov	 ebp, esp
  00003	83 ec 0c	 sub	 esp, 12			; 0000000cH
  00006	56		 push	 esi
  00007	57		 push	 edi

; 213  : 	CWnd* pWnd = m_pParentWnd->ChildWindowFromPoint(point);

  00008	8b 7d 08	 mov	 edi, DWORD PTR _point$[ebp]
  0000b	8b f1		 mov	 esi, ecx
; File C:\Program Files (x86)\Microsoft Visual Studio\2019\Community\VC\Tools\MSVC\14.29.30133\atlmfc\include\afxwin2.inl

; 194  : 	{ ASSERT(::IsWindow(m_hWnd)); return CWnd::FromHandle(::ChildWindowFromPoint(m_hWnd, point)); }

  0000d	ff 77 04	 push	 DWORD PTR [edi+4]
; File D:\git\src\IBK\IBK_DRFN\ProjSrc\SrcChartEx\ChartAddIn\ChartDesignPropertyAddIn\ChartDesignPropertyAddIn\DlgToolTip.cpp

; 213  : 	CWnd* pWnd = m_pParentWnd->ChildWindowFromPoint(point);

  00010	8b 86 a8 00 00
	00		 mov	 eax, DWORD PTR [esi+168]
; File C:\Program Files (x86)\Microsoft Visual Studio\2019\Community\VC\Tools\MSVC\14.29.30133\atlmfc\include\afxwin2.inl

; 194  : 	{ ASSERT(::IsWindow(m_hWnd)); return CWnd::FromHandle(::ChildWindowFromPoint(m_hWnd, point)); }

  00016	ff 37		 push	 DWORD PTR [edi]
  00018	ff 70 20	 push	 DWORD PTR [eax+32]
  0001b	ff 15 00 00 00
	00		 call	 DWORD PTR __imp__ChildWindowFromPoint@12
  00021	50		 push	 eax
  00022	e8 00 00 00 00	 call	 ?FromHandle@CWnd@@SGPAV1@PAUHWND__@@@Z ; CWnd::FromHandle
; File D:\git\src\IBK\IBK_DRFN\ProjSrc\SrcChartEx\ChartAddIn\ChartDesignPropertyAddIn\ChartDesignPropertyAddIn\DlgToolTip.cpp

; 214  : 	if( pWnd )

  00027	85 c0		 test	 eax, eax
  00029	74 6c		 je	 SHORT $LN2@ShowToolTi

; 215  : 	{
; 216  : 		UINT nControlID = (UINT)pWnd->GetDlgCtrlID();

  0002b	53		 push	 ebx
  0002c	8b c8		 mov	 ecx, eax
  0002e	e8 00 00 00 00	 call	 ?GetDlgCtrlID@CWnd@@QBEHXZ ; CWnd::GetDlgCtrlID

; 217  : //		if( m_currentControlID != nControlID )
; 218  : 		{
; 219  : 			ErasePreviousToolTipDisplay( m_currentControlID );

  00033	ff b6 d4 00 00
	00		 push	 DWORD PTR [esi+212]
  00039	8b ce		 mov	 ecx, esi
  0003b	8b d8		 mov	 ebx, eax
  0003d	e8 00 00 00 00	 call	 ?ErasePreviousToolTipDisplay@CDlgToolTip@@QAEXI@Z ; CDlgToolTip::ErasePreviousToolTipDisplay

; 220  : 			ShowToolTip( nControlID, (CPoint)point );

  00042	8b 07		 mov	 eax, DWORD PTR [edi]

; 354  : 	int nSize = m_aControlInfo.GetSize();

  00044	8b 96 c8 00 00
	00		 mov	 edx, DWORD PTR [esi+200]

; 220  : 			ShowToolTip( nControlID, (CPoint)point );

  0004a	89 45 08	 mov	 DWORD PTR $T3[ebp], eax
  0004d	8b 47 04	 mov	 eax, DWORD PTR [edi+4]
  00050	89 45 fc	 mov	 DWORD PTR $T2[ebp], eax

; 355  : 	for( register int i = 0; i < nSize; i++ )

  00053	33 c0		 xor	 eax, eax
  00055	85 d2		 test	 edx, edx
  00057	7e 22		 jle	 SHORT $LN11@ShowToolTi
  00059	0f 1f 80 00 00
	00 00		 npad	 7
$LL12@ShowToolTi:
; File C:\Program Files (x86)\Microsoft Visual Studio\2019\Community\VC\Tools\MSVC\14.29.30133\atlmfc\include\afxcoll.inl

; 246  : 		if( nIndex < 0 || nIndex >= m_nSize )

  00060	85 c0		 test	 eax, eax
  00062	78 5f		 js	 SHORT $LN17@ShowToolTi
  00064	3b c2		 cmp	 eax, edx
  00066	7d 5b		 jge	 SHORT $LN17@ShowToolTi

; 248  : 		return m_pData[nIndex]; }

  00068	8b 8e c4 00 00
	00		 mov	 ecx, DWORD PTR [esi+196]
  0006e	8b 0c 81	 mov	 ecx, DWORD PTR [ecx+eax*4]
; File D:\git\src\IBK\IBK_DRFN\ProjSrc\SrcChartEx\ChartAddIn\ChartDesignPropertyAddIn\ChartDesignPropertyAddIn\DlgToolTip.cpp

; 358  : 		if( pToolTip->nControlID == controlID )		// if found!

  00071	39 59 04	 cmp	 DWORD PTR [ecx+4], ebx
  00074	74 29		 je	 SHORT $LN24@ShowToolTi

; 355  : 	for( register int i = 0; i < nSize; i++ )

  00076	40		 inc	 eax
  00077	3b c2		 cmp	 eax, edx
  00079	7c e5		 jl	 SHORT $LL12@ShowToolTi
$LN11@ShowToolTi:

; 359  : 		{
; 360  : 			m_currentControlID = controlID;
; 361  : 			return pToolTip;
; 362  : 		}
; 363  : 	}
; 364  : 	m_currentControlID = 0;		// if not found, reset the current control ID to refresh the display
; 365  : 
; 366  : 	return NULL;

  0007b	c7 86 d4 00 00
	00 00 00 00 00	 mov	 DWORD PTR [esi+212], 0
$LN6@ShowToolTi:

; 221  : 			m_point.x = point.x;

  00085	8b 07		 mov	 eax, DWORD PTR [edi]
  00087	89 86 90 00 00
	00		 mov	 DWORD PTR [esi+144], eax

; 222  : 			m_point.y = point.y;

  0008d	8b 47 04	 mov	 eax, DWORD PTR [edi+4]
  00090	89 86 94 00 00
	00		 mov	 DWORD PTR [esi+148], eax
  00096	5b		 pop	 ebx
$LN2@ShowToolTi:

; 243  : }

  00097	5f		 pop	 edi
  00098	5e		 pop	 esi
  00099	8b e5		 mov	 esp, ebp
  0009b	5d		 pop	 ebp
  0009c	c2 04 00	 ret	 4
$LN24@ShowToolTi:

; 204  : 	if( pToolTip == NULL )

  0009f	89 9e d4 00 00
	00		 mov	 DWORD PTR [esi+212], ebx
  000a5	85 c9		 test	 ecx, ecx
  000a7	74 dc		 je	 SHORT $LN6@ShowToolTi

; 205  : 		return;
; 206  : 				
; 207  : 	DisplayInfo( pToolTip , (CPoint)point);

  000a9	8b 45 08	 mov	 eax, DWORD PTR $T3[ebp]
  000ac	89 45 f4	 mov	 DWORD PTR $T1[ebp], eax
  000af	8b 45 fc	 mov	 eax, DWORD PTR $T2[ebp]
  000b2	89 45 f8	 mov	 DWORD PTR $T1[ebp+4], eax
  000b5	8d 45 f4	 lea	 eax, DWORD PTR $T1[ebp]
  000b8	50		 push	 eax
  000b9	51		 push	 ecx
  000ba	8b ce		 mov	 ecx, esi
  000bc	e8 00 00 00 00	 call	 ?DisplayInfo@CDlgToolTip@@AAEXPAUToolTipInfo@@AAVCPoint@@@Z ; CDlgToolTip::DisplayInfo
  000c1	eb c2		 jmp	 SHORT $LN6@ShowToolTi
$LN17@ShowToolTi:
; File C:\Program Files (x86)\Microsoft Visual Studio\2019\Community\VC\Tools\MSVC\14.29.30133\atlmfc\include\afxcoll.inl

; 247  : 			AfxThrowInvalidArgException();

  000c3	e8 00 00 00 00	 call	 ?AfxThrowInvalidArgException@@YGXXZ ; AfxThrowInvalidArgException
$LN28@ShowToolTi:
  000c8	cc		 int	 3
?ShowToolTip@CDlgToolTip@@QAEXAAVCPoint@@@Z ENDP	; CDlgToolTip::ShowToolTip
_TEXT	ENDS
; Function compile flags: /Ogtp
; File D:\git\src\IBK\IBK_DRFN\ProjSrc\SrcChartEx\ChartAddIn\ChartDesignPropertyAddIn\ChartDesignPropertyAddIn\DlgToolTip.cpp
; File C:\Program Files (x86)\Microsoft Visual Studio\2019\Community\VC\Tools\MSVC\14.29.30133\atlmfc\include\afxcoll.inl
; File D:\git\src\IBK\IBK_DRFN\ProjSrc\SrcChartEx\ChartAddIn\ChartDesignPropertyAddIn\ChartDesignPropertyAddIn\DlgToolTip.cpp
; File C:\Program Files (x86)\Microsoft Visual Studio\2019\Community\VC\Tools\MSVC\14.29.30133\atlmfc\include\afxcoll.inl
; File D:\git\src\IBK\IBK_DRFN\ProjSrc\SrcChartEx\ChartAddIn\ChartDesignPropertyAddIn\ChartDesignPropertyAddIn\DlgToolTip.cpp
;	COMDAT ?ShowToolTip@CDlgToolTip@@QAEXIAAVCPoint@@@Z
_TEXT	SEGMENT
$T1 = -8						; size = 8
_nControlID$ = 8					; size = 4
_point$ = 12						; size = 4
?ShowToolTip@CDlgToolTip@@QAEXIAAVCPoint@@@Z PROC	; CDlgToolTip::ShowToolTip, COMDAT
; _this$ = ecx

; 202  : {		

  00000	55		 push	 ebp
  00001	8b ec		 mov	 ebp, esp
  00003	83 ec 08	 sub	 esp, 8

; 355  : 	for( register int i = 0; i < nSize; i++ )

  00006	33 c0		 xor	 eax, eax

; 202  : {		

  00008	53		 push	 ebx
  00009	56		 push	 esi
  0000a	57		 push	 edi
  0000b	8b f9		 mov	 edi, ecx

; 354  : 	int nSize = m_aControlInfo.GetSize();

  0000d	8b 97 c8 00 00
	00		 mov	 edx, DWORD PTR [edi+200]

; 355  : 	for( register int i = 0; i < nSize; i++ )

  00013	85 d2		 test	 edx, edx
  00015	7e 24		 jle	 SHORT $LN6@ShowToolTi
  00017	8b 5d 08	 mov	 ebx, DWORD PTR _nControlID$[ebp]
  0001a	66 0f 1f 44 00
	00		 npad	 6
$LL7@ShowToolTi:
; File C:\Program Files (x86)\Microsoft Visual Studio\2019\Community\VC\Tools\MSVC\14.29.30133\atlmfc\include\afxcoll.inl

; 246  : 		if( nIndex < 0 || nIndex >= m_nSize )

  00020	85 c0		 test	 eax, eax
  00022	78 57		 js	 SHORT $LN12@ShowToolTi
  00024	3b c2		 cmp	 eax, edx
  00026	7d 53		 jge	 SHORT $LN12@ShowToolTi

; 248  : 		return m_pData[nIndex]; }

  00028	8b 8f c4 00 00
	00		 mov	 ecx, DWORD PTR [edi+196]
  0002e	8b 34 81	 mov	 esi, DWORD PTR [ecx+eax*4]
; File D:\git\src\IBK\IBK_DRFN\ProjSrc\SrcChartEx\ChartAddIn\ChartDesignPropertyAddIn\ChartDesignPropertyAddIn\DlgToolTip.cpp

; 358  : 		if( pToolTip->nControlID == controlID )		// if found!

  00031	39 5e 04	 cmp	 DWORD PTR [esi+4], ebx
  00034	74 18		 je	 SHORT $LN18@ShowToolTi

; 355  : 	for( register int i = 0; i < nSize; i++ )

  00036	40		 inc	 eax
  00037	3b c2		 cmp	 eax, edx
  00039	7c e5		 jl	 SHORT $LL7@ShowToolTi
$LN6@ShowToolTi:

; 359  : 		{
; 360  : 			m_currentControlID = controlID;
; 361  : 			return pToolTip;
; 362  : 		}
; 363  : 	}
; 364  : 	m_currentControlID = 0;		// if not found, reset the current control ID to refresh the display
; 365  : 
; 366  : 	return NULL;

  0003b	c7 87 d4 00 00
	00 00 00 00 00	 mov	 DWORD PTR [edi+212], 0
$LN1@ShowToolTi:
  00045	5f		 pop	 edi

; 208  : }

  00046	5e		 pop	 esi
  00047	5b		 pop	 ebx
  00048	8b e5		 mov	 esp, ebp
  0004a	5d		 pop	 ebp
  0004b	c2 08 00	 ret	 8
$LN18@ShowToolTi:

; 203  : 	ToolTipInfo *pToolTip = IsControlIDExisting( nControlID );
; 204  : 	if( pToolTip == NULL )

  0004e	89 9f d4 00 00
	00		 mov	 DWORD PTR [edi+212], ebx
  00054	85 f6		 test	 esi, esi
  00056	74 ed		 je	 SHORT $LN1@ShowToolTi

; 205  : 		return;
; 206  : 				
; 207  : 	DisplayInfo( pToolTip , (CPoint)point);

  00058	8b 45 0c	 mov	 eax, DWORD PTR _point$[ebp]
  0005b	8b 08		 mov	 ecx, DWORD PTR [eax]
  0005d	8b 40 04	 mov	 eax, DWORD PTR [eax+4]
  00060	89 45 fc	 mov	 DWORD PTR $T1[ebp+4], eax
  00063	8d 45 f8	 lea	 eax, DWORD PTR $T1[ebp]
  00066	50		 push	 eax
  00067	89 4d f8	 mov	 DWORD PTR $T1[ebp], ecx
  0006a	8b cf		 mov	 ecx, edi
  0006c	56		 push	 esi
  0006d	e8 00 00 00 00	 call	 ?DisplayInfo@CDlgToolTip@@AAEXPAUToolTipInfo@@AAVCPoint@@@Z ; CDlgToolTip::DisplayInfo
  00072	5f		 pop	 edi

; 208  : }

  00073	5e		 pop	 esi
  00074	5b		 pop	 ebx
  00075	8b e5		 mov	 esp, ebp
  00077	5d		 pop	 ebp
  00078	c2 08 00	 ret	 8
$LN12@ShowToolTi:
; File C:\Program Files (x86)\Microsoft Visual Studio\2019\Community\VC\Tools\MSVC\14.29.30133\atlmfc\include\afxcoll.inl

; 247  : 			AfxThrowInvalidArgException();

  0007b	e8 00 00 00 00	 call	 ?AfxThrowInvalidArgException@@YGXXZ ; AfxThrowInvalidArgException
$LN22@ShowToolTi:
  00080	cc		 int	 3
?ShowToolTip@CDlgToolTip@@QAEXIAAVCPoint@@@Z ENDP	; CDlgToolTip::ShowToolTip
_TEXT	ENDS
; Function compile flags: /Ogtp
; File D:\git\src\IBK\IBK_DRFN\ProjSrc\SrcChartEx\ChartAddIn\ChartDesignPropertyAddIn\ChartDesignPropertyAddIn\DlgToolTip.cpp
; File C:\Program Files (x86)\Microsoft Visual Studio\2019\Community\VC\Tools\MSVC\14.29.30133\atlmfc\include\atltypes.h
; File D:\git\src\IBK\IBK_DRFN\ProjSrc\SrcChartEx\ChartAddIn\ChartDesignPropertyAddIn\ChartDesignPropertyAddIn\DlgToolTip.cpp
; File C:\Program Files (x86)\Microsoft Visual Studio\2019\Community\VC\Tools\MSVC\14.29.30133\atlmfc\include\atltypes.h
; File D:\git\src\IBK\IBK_DRFN\ProjSrc\SrcChartEx\ChartAddIn\ChartDesignPropertyAddIn\ChartDesignPropertyAddIn\DlgToolTip.cpp
; File C:\Program Files (x86)\Microsoft Visual Studio\2019\Community\VC\Tools\MSVC\14.29.30133\atlmfc\include\atltypes.h
; File D:\git\src\IBK\IBK_DRFN\ProjSrc\SrcChartEx\ChartAddIn\ChartDesignPropertyAddIn\ChartDesignPropertyAddIn\DlgToolTip.cpp
; File C:\Program Files (x86)\Microsoft Visual Studio\2019\Community\VC\Tools\MSVC\14.29.30133\atlmfc\include\atltypes.h
; File D:\git\src\IBK\IBK_DRFN\ProjSrc\SrcChartEx\ChartAddIn\ChartDesignPropertyAddIn\ChartDesignPropertyAddIn\DlgToolTip.cpp
; File C:\Program Files (x86)\Microsoft Visual Studio\2019\Community\VC\Tools\MSVC\14.29.30133\atlmfc\include\afxwin2.inl
; File D:\git\src\IBK\IBK_DRFN\ProjSrc\SrcChartEx\ChartAddIn\ChartDesignPropertyAddIn\ChartDesignPropertyAddIn\DlgToolTip.cpp
;	COMDAT ?ErasePreviousToolTipDisplay@CDlgToolTip@@QAEXI@Z
_TEXT	SEGMENT
_point$ = -28						; size = 8
_oInfoRect$ = -20					; size = 16
__$ArrayPad$ = -4					; size = 4
_nControlID$ = 8					; size = 4
?ErasePreviousToolTipDisplay@CDlgToolTip@@QAEXI@Z PROC	; CDlgToolTip::ErasePreviousToolTipDisplay, COMDAT
; _this$ = ecx

; 60   : {

  00000	55		 push	 ebp
  00001	8b ec		 mov	 ebp, esp
  00003	83 ec 1c	 sub	 esp, 28			; 0000001cH
  00006	a1 00 00 00 00	 mov	 eax, DWORD PTR ___security_cookie
  0000b	33 c5		 xor	 eax, ebp
  0000d	89 45 fc	 mov	 DWORD PTR __$ArrayPad$[ebp], eax
  00010	56		 push	 esi
  00011	8b f1		 mov	 esi, ecx

; 61   : 	//This assertion fails because you did not call Create() first.
; 62   : 	//m_pParentWnd was not initialized.
; 63   : 	ASSERT(m_pParentWnd);
; 64   : 
; 65   : 	//if erase already, do not do it again
; 66   : 	if((m_nHeight == 0) || (m_nWidth == 0))

  00013	83 be ac 00 00
	00 00		 cmp	 DWORD PTR [esi+172], 0
  0001a	74 6f		 je	 SHORT $LN3@ErasePrevi
  0001c	83 be b0 00 00
	00 00		 cmp	 DWORD PTR [esi+176], 0
  00023	74 66		 je	 SHORT $LN3@ErasePrevi
; File C:\Program Files (x86)\Microsoft Visual Studio\2019\Community\VC\Tools\MSVC\14.29.30133\atlmfc\include\atltypes.h

; 408  : 	x = initX;

  00025	8b 86 90 00 00
	00		 mov	 eax, DWORD PTR [esi+144]
; File D:\git\src\IBK\IBK_DRFN\ProjSrc\SrcChartEx\ChartAddIn\ChartDesignPropertyAddIn\ChartDesignPropertyAddIn\DlgToolTip.cpp

; 72   : 	CalculateInfoBoxRect(nControlID, &oInfoRect, point);

  0002b	8d 4d e4	 lea	 ecx, DWORD PTR _point$[ebp]
  0002e	51		 push	 ecx
; File C:\Program Files (x86)\Microsoft Visual Studio\2019\Community\VC\Tools\MSVC\14.29.30133\atlmfc\include\atltypes.h

; 408  : 	x = initX;

  0002f	89 45 e4	 mov	 DWORD PTR _point$[ebp], eax
; File D:\git\src\IBK\IBK_DRFN\ProjSrc\SrcChartEx\ChartAddIn\ChartDesignPropertyAddIn\ChartDesignPropertyAddIn\DlgToolTip.cpp

; 72   : 	CalculateInfoBoxRect(nControlID, &oInfoRect, point);

  00032	8d 4d ec	 lea	 ecx, DWORD PTR _oInfoRect$[ebp]
; File C:\Program Files (x86)\Microsoft Visual Studio\2019\Community\VC\Tools\MSVC\14.29.30133\atlmfc\include\atltypes.h

; 409  : 	y = initY;

  00035	8b 86 94 00 00
	00		 mov	 eax, DWORD PTR [esi+148]
  0003b	0f 57 c0	 xorps	 xmm0, xmm0
  0003e	89 45 e8	 mov	 DWORD PTR _point$[ebp+4], eax
; File D:\git\src\IBK\IBK_DRFN\ProjSrc\SrcChartEx\ChartAddIn\ChartDesignPropertyAddIn\ChartDesignPropertyAddIn\DlgToolTip.cpp

; 72   : 	CalculateInfoBoxRect(nControlID, &oInfoRect, point);

  00041	8b 06		 mov	 eax, DWORD PTR [esi]
  00043	51		 push	 ecx
  00044	ff 75 08	 push	 DWORD PTR _nControlID$[ebp]
  00047	8b ce		 mov	 ecx, esi
; File C:\Program Files (x86)\Microsoft Visual Studio\2019\Community\VC\Tools\MSVC\14.29.30133\atlmfc\include\atltypes.h

; 540  : 	left = l;

  00049	0f 11 45 ec	 movups	 XMMWORD PTR _oInfoRect$[ebp], xmm0
; File D:\git\src\IBK\IBK_DRFN\ProjSrc\SrcChartEx\ChartAddIn\ChartDesignPropertyAddIn\ChartDesignPropertyAddIn\DlgToolTip.cpp

; 72   : 	CalculateInfoBoxRect(nControlID, &oInfoRect, point);

  0004d	ff 90 6c 01 00
	00		 call	 DWORD PTR [eax+364]
; File C:\Program Files (x86)\Microsoft Visual Studio\2019\Community\VC\Tools\MSVC\14.29.30133\atlmfc\include\afxwin2.inl

; 116  : 	{ ASSERT(::IsWindow(m_hWnd)); ::InvalidateRect(m_hWnd, lpRect, bErase); }

  00053	6a 01		 push	 1
  00055	8d 45 ec	 lea	 eax, DWORD PTR _oInfoRect$[ebp]
  00058	50		 push	 eax
  00059	8b 86 a8 00 00
	00		 mov	 eax, DWORD PTR [esi+168]
  0005f	ff 70 20	 push	 DWORD PTR [eax+32]
  00062	ff 15 00 00 00
	00		 call	 DWORD PTR __imp__InvalidateRect@12

; 106  : 	{ ASSERT(::IsWindow(m_hWnd)); ::UpdateWindow(m_hWnd); }

  00068	8b 86 a8 00 00
	00		 mov	 eax, DWORD PTR [esi+168]
  0006e	ff 70 20	 push	 DWORD PTR [eax+32]
  00071	ff 15 00 00 00
	00		 call	 DWORD PTR __imp__UpdateWindow@4
; File D:\git\src\IBK\IBK_DRFN\ProjSrc\SrcChartEx\ChartAddIn\ChartDesignPropertyAddIn\ChartDesignPropertyAddIn\DlgToolTip.cpp

; 76   : 	m_nHeight = 0;

  00077	c7 86 ac 00 00
	00 00 00 00 00	 mov	 DWORD PTR [esi+172], 0

; 77   : 	m_nWidth = 0;

  00081	c7 86 b0 00 00
	00 00 00 00 00	 mov	 DWORD PTR [esi+176], 0
$LN3@ErasePrevi:

; 78   : }

  0008b	8b 4d fc	 mov	 ecx, DWORD PTR __$ArrayPad$[ebp]
  0008e	33 cd		 xor	 ecx, ebp
  00090	5e		 pop	 esi
  00091	e8 00 00 00 00	 call	 @__security_check_cookie@4
  00096	8b e5		 mov	 esp, ebp
  00098	5d		 pop	 ebp
  00099	c2 04 00	 ret	 4
?ErasePreviousToolTipDisplay@CDlgToolTip@@QAEXI@Z ENDP	; CDlgToolTip::ErasePreviousToolTipDisplay
_TEXT	ENDS
; Function compile flags: /Ogtp
; File D:\git\src\IBK\IBK_DRFN\ProjSrc\SrcChartEx\ChartAddIn\ChartDesignPropertyAddIn\ChartDesignPropertyAddIn\DlgToolTip.cpp
;	COMDAT ?Create@CDlgToolTip@@QAEXPAVCWnd@@@Z
_TEXT	SEGMENT
_pWnd$ = 8						; size = 4
?Create@CDlgToolTip@@QAEXPAVCWnd@@@Z PROC		; CDlgToolTip::Create, COMDAT
; _this$ = ecx

; 55   : {

  00000	55		 push	 ebp
  00001	8b ec		 mov	 ebp, esp

; 56   : 	m_pParentWnd = pWnd;

  00003	8b 45 08	 mov	 eax, DWORD PTR _pWnd$[ebp]
  00006	89 81 a8 00 00
	00		 mov	 DWORD PTR [ecx+168], eax

; 57   : }

  0000c	5d		 pop	 ebp
  0000d	c2 04 00	 ret	 4
?Create@CDlgToolTip@@QAEXPAVCWnd@@@Z ENDP		; CDlgToolTip::Create
_TEXT	ENDS
; Function compile flags: /Ogtp
; File D:\git\src\IBK\IBK_DRFN\ProjSrc\SrcChartEx\ChartAddIn\ChartDesignPropertyAddIn\ChartDesignPropertyAddIn\DlgToolTip.cpp
; File C:\Program Files (x86)\Microsoft Visual Studio\2019\Community\VC\Tools\MSVC\14.29.30133\atlmfc\include\afxcoll.inl
; File D:\git\src\IBK\IBK_DRFN\ProjSrc\SrcChartEx\ChartAddIn\ChartDesignPropertyAddIn\ChartDesignPropertyAddIn\DlgToolTip.cpp
; File C:\Program Files (x86)\Microsoft Visual Studio\2019\Community\VC\Tools\MSVC\14.29.30133\atlmfc\include\afxcoll.inl
; File D:\git\src\IBK\IBK_DRFN\ProjSrc\SrcChartEx\ChartAddIn\ChartDesignPropertyAddIn\ChartDesignPropertyAddIn\DlgToolTip.cpp
; File C:\Program Files (x86)\Microsoft Visual Studio\2019\Community\VC\Tools\MSVC\14.29.30133\atlmfc\include\afxcoll.inl
; File D:\git\src\IBK\IBK_DRFN\ProjSrc\SrcChartEx\ChartAddIn\ChartDesignPropertyAddIn\ChartDesignPropertyAddIn\DlgToolTip.cpp
;	COMDAT ??1CDlgToolTip@@UAE@XZ
_TEXT	SEGMENT
__$EHRec$ = -12						; size = 12
??1CDlgToolTip@@UAE@XZ PROC				; CDlgToolTip::~CDlgToolTip, COMDAT
; _this$ = ecx

; 40   : {

  00000	55		 push	 ebp
  00001	8b ec		 mov	 ebp, esp
  00003	6a ff		 push	 -1
  00005	68 00 00 00 00	 push	 __ehhandler$??1CDlgToolTip@@UAE@XZ
  0000a	64 a1 00 00 00
	00		 mov	 eax, DWORD PTR fs:0
  00010	50		 push	 eax
  00011	53		 push	 ebx
  00012	56		 push	 esi
  00013	57		 push	 edi
  00014	a1 00 00 00 00	 mov	 eax, DWORD PTR ___security_cookie
  00019	33 c5		 xor	 eax, ebp
  0001b	50		 push	 eax
  0001c	8d 45 f4	 lea	 eax, DWORD PTR __$EHRec$[ebp]
  0001f	64 a3 00 00 00
	00		 mov	 DWORD PTR fs:0, eax
  00025	8b f9		 mov	 edi, ecx

; 41   : 	ToolTipInfo *pInfo = NULL;
; 42   : 	int nSize = m_aControlInfo.GetSize();

  00027	8b 9f c8 00 00
	00		 mov	 ebx, DWORD PTR [edi+200]

; 43   : 	for( int i = 0; i < nSize; i++ )

  0002d	33 f6		 xor	 esi, esi
  0002f	c7 07 00 00 00
	00		 mov	 DWORD PTR [edi], OFFSET ??_7CDlgToolTip@@6B@
  00035	85 db		 test	 ebx, ebx
  00037	7e 2c		 jle	 SHORT $LN19@CDlgToolTi
  00039	0f 1f 80 00 00
	00 00		 npad	 7
$LL4@CDlgToolTi:
; File C:\Program Files (x86)\Microsoft Visual Studio\2019\Community\VC\Tools\MSVC\14.29.30133\atlmfc\include\afxcoll.inl

; 246  : 		if( nIndex < 0 || nIndex >= m_nSize )

  00040	85 f6		 test	 esi, esi
  00042	78 54		 js	 SHORT $LN16@CDlgToolTi
  00044	3b b7 c8 00 00
	00		 cmp	 esi, DWORD PTR [edi+200]
  0004a	7d 4c		 jge	 SHORT $LN16@CDlgToolTi
; File D:\git\src\IBK\IBK_DRFN\ProjSrc\SrcChartEx\ChartAddIn\ChartDesignPropertyAddIn\ChartDesignPropertyAddIn\DlgToolTip.cpp

; 46   : 		delete pInfo;

  0004c	8b 87 c4 00 00
	00		 mov	 eax, DWORD PTR [edi+196]
  00052	8b 0c b0	 mov	 ecx, DWORD PTR [eax+esi*4]
  00055	85 c9		 test	 ecx, ecx
  00057	74 07		 je	 SHORT $LN2@CDlgToolTi
  00059	8b 01		 mov	 eax, DWORD PTR [ecx]
  0005b	6a 01		 push	 1
  0005d	ff 50 04	 call	 DWORD PTR [eax+4]
$LN2@CDlgToolTi:

; 43   : 	for( int i = 0; i < nSize; i++ )

  00060	46		 inc	 esi
  00061	3b f3		 cmp	 esi, ebx
  00063	7c db		 jl	 SHORT $LL4@CDlgToolTi
$LN19@CDlgToolTi:
; File C:\Program Files (x86)\Microsoft Visual Studio\2019\Community\VC\Tools\MSVC\14.29.30133\atlmfc\include\afxcoll.inl

; 243  : 	{ SetSize(0); }

  00065	6a ff		 push	 -1
  00067	6a 00		 push	 0
  00069	8d 8f c0 00 00
	00		 lea	 ecx, DWORD PTR [edi+192]
  0006f	e8 00 00 00 00	 call	 ?SetSize@CObArray@@QAEXHH@Z ; CObArray::SetSize
; File D:\git\src\IBK\IBK_DRFN\ProjSrc\SrcChartEx\ChartAddIn\ChartDesignPropertyAddIn\ChartDesignPropertyAddIn\DlgToolTip.cpp

; 50   : }

  00074	8d 8f c0 00 00
	00		 lea	 ecx, DWORD PTR [edi+192]
  0007a	e8 00 00 00 00	 call	 ??1CObArray@@UAE@XZ	; CObArray::~CObArray
  0007f	8b cf		 mov	 ecx, edi
  00081	e8 00 00 00 00	 call	 ??1CWnd@@UAE@XZ		; CWnd::~CWnd
  00086	8b 4d f4	 mov	 ecx, DWORD PTR __$EHRec$[ebp]
  00089	64 89 0d 00 00
	00 00		 mov	 DWORD PTR fs:0, ecx
  00090	59		 pop	 ecx
  00091	5f		 pop	 edi
  00092	5e		 pop	 esi
  00093	5b		 pop	 ebx
  00094	8b e5		 mov	 esp, ebp
  00096	5d		 pop	 ebp
  00097	c3		 ret	 0
$LN16@CDlgToolTi:
; File C:\Program Files (x86)\Microsoft Visual Studio\2019\Community\VC\Tools\MSVC\14.29.30133\atlmfc\include\afxcoll.inl

; 247  : 			AfxThrowInvalidArgException();

  00098	e8 00 00 00 00	 call	 ?AfxThrowInvalidArgException@@YGXXZ ; AfxThrowInvalidArgException
$LN22@CDlgToolTi:
  0009d	cc		 int	 3
  0009e	cc		 int	 3
  0009f	cc		 int	 3
  000a0	cc		 int	 3
  000a1	cc		 int	 3
  000a2	cc		 int	 3
_TEXT	ENDS
;	COMDAT text$x
text$x	SEGMENT
__ehhandler$??1CDlgToolTip@@UAE@XZ:
  00000	90		 npad	 1
  00001	90		 npad	 1
  00002	8b 54 24 08	 mov	 edx, DWORD PTR [esp+8]
  00006	8d 42 0c	 lea	 eax, DWORD PTR [edx+12]
  00009	8b 4a f0	 mov	 ecx, DWORD PTR [edx-16]
  0000c	33 c8		 xor	 ecx, eax
  0000e	e8 00 00 00 00	 call	 @__security_check_cookie@4
  00013	b8 00 00 00 00	 mov	 eax, OFFSET __ehfuncinfo$??1CDlgToolTip@@UAE@XZ
  00018	e9 00 00 00 00	 jmp	 ___CxxFrameHandler3
text$x	ENDS
??1CDlgToolTip@@UAE@XZ ENDP				; CDlgToolTip::~CDlgToolTip
; Function compile flags: /Ogtp
; File D:\git\src\IBK\IBK_DRFN\ProjSrc\SrcChartEx\ChartAddIn\ChartDesignPropertyAddIn\ChartDesignPropertyAddIn\DlgToolTip.cpp
; File C:\Program Files (x86)\Microsoft Visual Studio\2019\Community\VC\Tools\MSVC\14.29.30133\atlmfc\include\afxwin2.inl
; File D:\git\src\IBK\IBK_DRFN\ProjSrc\SrcChartEx\ChartAddIn\ChartDesignPropertyAddIn\ChartDesignPropertyAddIn\DlgToolTip.cpp
; File C:\Program Files (x86)\Microsoft Visual Studio\2019\Community\VC\Tools\MSVC\14.29.30133\atlmfc\include\afxwin2.inl
; File D:\git\src\IBK\IBK_DRFN\ProjSrc\SrcChartEx\ChartAddIn\ChartDesignPropertyAddIn\ChartDesignPropertyAddIn\DlgToolTip.cpp
;	COMDAT ?HideToolTip@CDlgToolTip@@QAEXAAVCPoint@@@Z
_TEXT	SEGMENT
_point$ = 8						; size = 4
?HideToolTip@CDlgToolTip@@QAEXAAVCPoint@@@Z PROC	; CDlgToolTip::HideToolTip, COMDAT
; _this$ = ecx

; 391  : {

  00000	55		 push	 ebp
  00001	8b ec		 mov	 ebp, esp
  00003	53		 push	 ebx
  00004	56		 push	 esi
  00005	57		 push	 edi

; 392  : 	CWnd* pWnd = m_pParentWnd->ChildWindowFromPoint(point);

  00006	8b 7d 08	 mov	 edi, DWORD PTR _point$[ebp]
  00009	8b f1		 mov	 esi, ecx
; File C:\Program Files (x86)\Microsoft Visual Studio\2019\Community\VC\Tools\MSVC\14.29.30133\atlmfc\include\afxwin2.inl

; 194  : 	{ ASSERT(::IsWindow(m_hWnd)); return CWnd::FromHandle(::ChildWindowFromPoint(m_hWnd, point)); }

  0000b	ff 77 04	 push	 DWORD PTR [edi+4]
; File D:\git\src\IBK\IBK_DRFN\ProjSrc\SrcChartEx\ChartAddIn\ChartDesignPropertyAddIn\ChartDesignPropertyAddIn\DlgToolTip.cpp

; 392  : 	CWnd* pWnd = m_pParentWnd->ChildWindowFromPoint(point);

  0000e	8b 86 a8 00 00
	00		 mov	 eax, DWORD PTR [esi+168]
; File C:\Program Files (x86)\Microsoft Visual Studio\2019\Community\VC\Tools\MSVC\14.29.30133\atlmfc\include\afxwin2.inl

; 194  : 	{ ASSERT(::IsWindow(m_hWnd)); return CWnd::FromHandle(::ChildWindowFromPoint(m_hWnd, point)); }

  00014	ff 37		 push	 DWORD PTR [edi]
  00016	ff 70 20	 push	 DWORD PTR [eax+32]
  00019	ff 15 00 00 00
	00		 call	 DWORD PTR __imp__ChildWindowFromPoint@12
  0001f	50		 push	 eax
  00020	e8 00 00 00 00	 call	 ?FromHandle@CWnd@@SGPAV1@PAUHWND__@@@Z ; CWnd::FromHandle
; File D:\git\src\IBK\IBK_DRFN\ProjSrc\SrcChartEx\ChartAddIn\ChartDesignPropertyAddIn\ChartDesignPropertyAddIn\DlgToolTip.cpp

; 392  : 	CWnd* pWnd = m_pParentWnd->ChildWindowFromPoint(point);

  00025	8b d8		 mov	 ebx, eax

; 393  : 	if( pWnd )

  00027	85 db		 test	 ebx, ebx
  00029	74 4d		 je	 SHORT $LN3@HideToolTi

; 394  : 	{
; 395  : //		if(m_ptButtonSize.top <= point.y && m_ptButtonSize.left <= point.x && m_ptButtonSize.bottom >= point.y && m_ptButtonSize.right >= point.x) 
; 396  : 		if((m_point.x - 1) >= point.x || (m_point.x +1) <= point.x || (m_point.y - 1) >= point.y || (m_point.y + 1) <= point.y) 

  0002b	8b 86 90 00 00
	00		 mov	 eax, DWORD PTR [esi+144]
  00031	8b 17		 mov	 edx, DWORD PTR [edi]
  00033	8d 48 ff	 lea	 ecx, DWORD PTR [eax-1]
  00036	3b ca		 cmp	 ecx, edx
  00038	7d 19		 jge	 SHORT $LN4@HideToolTi
  0003a	40		 inc	 eax
  0003b	3b c2		 cmp	 eax, edx
  0003d	7e 14		 jle	 SHORT $LN4@HideToolTi
  0003f	8b 8e 94 00 00
	00		 mov	 ecx, DWORD PTR [esi+148]
  00045	8b 57 04	 mov	 edx, DWORD PTR [edi+4]
  00048	8d 41 ff	 lea	 eax, DWORD PTR [ecx-1]
  0004b	3b c2		 cmp	 eax, edx
  0004d	7d 04		 jge	 SHORT $LN4@HideToolTi
  0004f	3b ca		 cmp	 ecx, edx
  00051	7d 25		 jge	 SHORT $LN3@HideToolTi
$LN4@HideToolTi:

; 397  : 		{
; 398  : 			UINT nControlID = (UINT)pWnd->GetDlgCtrlID();

  00053	8b cb		 mov	 ecx, ebx
  00055	e8 00 00 00 00	 call	 ?GetDlgCtrlID@CWnd@@QBEHXZ ; CWnd::GetDlgCtrlID

; 399  : 	//		if( m_currentControlID == nControlID )
; 400  : 			{
; 401  : 				ErasePreviousToolTipDisplay( m_currentControlID );

  0005a	ff b6 d4 00 00
	00		 push	 DWORD PTR [esi+212]
  00060	8b ce		 mov	 ecx, esi
  00062	e8 00 00 00 00	 call	 ?ErasePreviousToolTipDisplay@CDlgToolTip@@QAEXI@Z ; CDlgToolTip::ErasePreviousToolTipDisplay

; 402  : 				m_point.x = point.x;

  00067	8b 07		 mov	 eax, DWORD PTR [edi]
  00069	89 86 90 00 00
	00		 mov	 DWORD PTR [esi+144], eax

; 403  : 				m_point.y = point.y;

  0006f	8b 47 04	 mov	 eax, DWORD PTR [edi+4]
  00072	89 86 94 00 00
	00		 mov	 DWORD PTR [esi+148], eax
$LN3@HideToolTi:

; 404  : 			}
; 405  : 		}
; 406  : 	}
; 407  : }

  00078	5f		 pop	 edi
  00079	5e		 pop	 esi
  0007a	5b		 pop	 ebx
  0007b	5d		 pop	 ebp
  0007c	c2 04 00	 ret	 4
?HideToolTip@CDlgToolTip@@QAEXAAVCPoint@@@Z ENDP	; CDlgToolTip::HideToolTip
_TEXT	ENDS
; Function compile flags: /Ogtp
; File D:\git\src\IBK\IBK_DRFN\ProjSrc\SrcChartEx\ChartAddIn\ChartDesignPropertyAddIn\ChartDesignPropertyAddIn\DlgToolTip.cpp
; File C:\Program Files (x86)\Microsoft Visual Studio\2019\Community\VC\Tools\MSVC\14.29.30133\atlmfc\include\atltypes.h
; File D:\git\src\IBK\IBK_DRFN\ProjSrc\SrcChartEx\ChartAddIn\ChartDesignPropertyAddIn\ChartDesignPropertyAddIn\DlgToolTip.cpp
; File C:\Program Files (x86)\Microsoft Visual Studio\2019\Community\VC\Tools\MSVC\14.29.30133\atlmfc\include\atltypes.h
; File D:\git\src\IBK\IBK_DRFN\ProjSrc\SrcChartEx\ChartAddIn\ChartDesignPropertyAddIn\ChartDesignPropertyAddIn\DlgToolTip.cpp
; File C:\Program Files (x86)\Microsoft Visual Studio\2019\Community\VC\Tools\MSVC\14.29.30133\atlmfc\include\afxcoll.inl
; File D:\git\src\IBK\IBK_DRFN\ProjSrc\SrcChartEx\ChartAddIn\ChartDesignPropertyAddIn\ChartDesignPropertyAddIn\DlgToolTip.cpp
; File C:\Program Files (x86)\Microsoft Visual Studio\2019\Community\VC\Tools\MSVC\14.29.30133\atlmfc\include\afxcoll.inl
; File D:\git\src\IBK\IBK_DRFN\ProjSrc\SrcChartEx\ChartAddIn\ChartDesignPropertyAddIn\ChartDesignPropertyAddIn\DlgToolTip.cpp
;	COMDAT ??0CDlgToolTip@@QAE@XZ
_TEXT	SEGMENT
_this$ = -16						; size = 4
__$EHRec$ = -12						; size = 12
??0CDlgToolTip@@QAE@XZ PROC				; CDlgToolTip::CDlgToolTip, COMDAT
; _this$ = ecx

; 20   : {

  00000	55		 push	 ebp
  00001	8b ec		 mov	 ebp, esp
  00003	6a ff		 push	 -1
  00005	68 00 00 00 00	 push	 __ehhandler$??0CDlgToolTip@@QAE@XZ
  0000a	64 a1 00 00 00
	00		 mov	 eax, DWORD PTR fs:0
  00010	50		 push	 eax
  00011	51		 push	 ecx
  00012	56		 push	 esi
  00013	57		 push	 edi
  00014	a1 00 00 00 00	 mov	 eax, DWORD PTR ___security_cookie
  00019	33 c5		 xor	 eax, ebp
  0001b	50		 push	 eax
  0001c	8d 45 f4	 lea	 eax, DWORD PTR __$EHRec$[ebp]
  0001f	64 a3 00 00 00
	00		 mov	 DWORD PTR fs:0, eax
  00025	8b f9		 mov	 edi, ecx
  00027	89 7d f0	 mov	 DWORD PTR _this$[ebp], edi
  0002a	e8 00 00 00 00	 call	 ??0CWnd@@QAE@XZ		; CWnd::CWnd
  0002f	c7 07 00 00 00
	00		 mov	 DWORD PTR [edi], OFFSET ??_7CDlgToolTip@@6B@
  00035	8d 8f c0 00 00
	00		 lea	 ecx, DWORD PTR [edi+192]
; File C:\Program Files (x86)\Microsoft Visual Studio\2019\Community\VC\Tools\MSVC\14.29.30133\atlmfc\include\atltypes.h

; 528  : 	left = 0;

  0003b	c7 87 80 00 00
	00 00 00 00 00	 mov	 DWORD PTR [edi+128], 0

; 529  : 	top = 0;

  00045	c7 87 84 00 00
	00 00 00 00 00	 mov	 DWORD PTR [edi+132], 0

; 530  : 	right = 0;

  0004f	c7 87 88 00 00
	00 00 00 00 00	 mov	 DWORD PTR [edi+136], 0

; 531  : 	bottom = 0;

  00059	c7 87 8c 00 00
	00 00 00 00 00	 mov	 DWORD PTR [edi+140], 0

; 400  : 	x = 0;

  00063	c7 87 90 00 00
	00 00 00 00 00	 mov	 DWORD PTR [edi+144], 0

; 401  : 	y = 0;

  0006d	c7 87 94 00 00
	00 00 00 00 00	 mov	 DWORD PTR [edi+148], 0
; File D:\git\src\IBK\IBK_DRFN\ProjSrc\SrcChartEx\ChartAddIn\ChartDesignPropertyAddIn\ChartDesignPropertyAddIn\DlgToolTip.cpp

; 20   : {

  00077	c7 45 fc 00 00
	00 00		 mov	 DWORD PTR __$EHRec$[ebp+8], 0
; File C:\Program Files (x86)\Microsoft Visual Studio\2019\Community\VC\Tools\MSVC\14.29.30133\atlmfc\include\atltypes.h

; 528  : 	left = 0;

  0007e	c7 87 98 00 00
	00 00 00 00 00	 mov	 DWORD PTR [edi+152], 0

; 529  : 	top = 0;

  00088	c7 87 9c 00 00
	00 00 00 00 00	 mov	 DWORD PTR [edi+156], 0

; 530  : 	right = 0;

  00092	c7 87 a0 00 00
	00 00 00 00 00	 mov	 DWORD PTR [edi+160], 0

; 531  : 	bottom = 0;

  0009c	c7 87 a4 00 00
	00 00 00 00 00	 mov	 DWORD PTR [edi+164], 0
; File D:\git\src\IBK\IBK_DRFN\ProjSrc\SrcChartEx\ChartAddIn\ChartDesignPropertyAddIn\ChartDesignPropertyAddIn\DlgToolTip.cpp

; 20   : {

  000a6	e8 00 00 00 00	 call	 ??0CObArray@@QAE@XZ	; CObArray::CObArray
; File C:\Program Files (x86)\Microsoft Visual Studio\2019\Community\VC\Tools\MSVC\14.29.30133\atlmfc\include\afxcoll.inl

; 243  : 	{ SetSize(0); }

  000ab	6a ff		 push	 -1
  000ad	6a 00		 push	 0
  000af	8d 8f c0 00 00
	00		 lea	 ecx, DWORD PTR [edi+192]
; File D:\git\src\IBK\IBK_DRFN\ProjSrc\SrcChartEx\ChartAddIn\ChartDesignPropertyAddIn\ChartDesignPropertyAddIn\DlgToolTip.cpp

; 20   : {

  000b5	c6 45 fc 01	 mov	 BYTE PTR __$EHRec$[ebp+8], 1

; 21   : 	m_nHeight				= 0;

  000b9	c7 87 ac 00 00
	00 00 00 00 00	 mov	 DWORD PTR [edi+172], 0

; 22   : 	m_nWidth				= 0;

  000c3	c7 87 b0 00 00
	00 00 00 00 00	 mov	 DWORD PTR [edi+176], 0

; 23   : 	m_nFontSize				= 12;	//14	// original size

  000cd	c7 87 b4 00 00
	00 0c 00 00 00	 mov	 DWORD PTR [edi+180], 12	; 0000000cH

; 24   : 	m_currentControlID		= 0;

  000d7	c7 87 d4 00 00
	00 00 00 00 00	 mov	 DWORD PTR [edi+212], 0

; 25   : 	m_pParentWnd			= NULL;

  000e1	c7 87 a8 00 00
	00 00 00 00 00	 mov	 DWORD PTR [edi+168], 0

; 26   : 
; 27   : 	m_point.x = 0;

  000eb	c7 87 90 00 00
	00 00 00 00 00	 mov	 DWORD PTR [edi+144], 0

; 28   : 	m_point.y = 0;

  000f5	c7 87 94 00 00
	00 00 00 00 00	 mov	 DWORD PTR [edi+148], 0
; File C:\Program Files (x86)\Microsoft Visual Studio\2019\Community\VC\Tools\MSVC\14.29.30133\atlmfc\include\afxcoll.inl

; 243  : 	{ SetSize(0); }

  000ff	e8 00 00 00 00	 call	 ?SetSize@CObArray@@QAEXHH@Z ; CObArray::SetSize
; File D:\git\src\IBK\IBK_DRFN\ProjSrc\SrcChartEx\ChartAddIn\ChartDesignPropertyAddIn\ChartDesignPropertyAddIn\DlgToolTip.cpp

; 36   : 	m_hOcxWnd = NULL;

  00104	c7 87 d8 00 00
	00 00 00 00 00	 mov	 DWORD PTR [edi+216], 0

; 37   : }

  0010e	8b c7		 mov	 eax, edi
  00110	8b 4d f4	 mov	 ecx, DWORD PTR __$EHRec$[ebp]
  00113	64 89 0d 00 00
	00 00		 mov	 DWORD PTR fs:0, ecx
  0011a	59		 pop	 ecx
  0011b	5f		 pop	 edi
  0011c	5e		 pop	 esi
  0011d	8b e5		 mov	 esp, ebp
  0011f	5d		 pop	 ebp
  00120	c3		 ret	 0
_TEXT	ENDS
;	COMDAT text$x
text$x	SEGMENT
__unwindfunclet$??0CDlgToolTip@@QAE@XZ$0:
  00000	8b 4d f0	 mov	 ecx, DWORD PTR _this$[ebp]
  00003	e9 00 00 00 00	 jmp	 ??1CWnd@@UAE@XZ		; CWnd::~CWnd
__unwindfunclet$??0CDlgToolTip@@QAE@XZ$1:
  00008	8b 4d f0	 mov	 ecx, DWORD PTR _this$[ebp]
  0000b	81 c1 c0 00 00
	00		 add	 ecx, 192		; 000000c0H
  00011	e9 00 00 00 00	 jmp	 ??1CObArray@@UAE@XZ	; CObArray::~CObArray
  00016	cc		 int	 3
  00017	cc		 int	 3
  00018	cc		 int	 3
  00019	cc		 int	 3
  0001a	cc		 int	 3
__ehhandler$??0CDlgToolTip@@QAE@XZ:
  0001b	90		 npad	 1
  0001c	90		 npad	 1
  0001d	8b 54 24 08	 mov	 edx, DWORD PTR [esp+8]
  00021	8d 42 0c	 lea	 eax, DWORD PTR [edx+12]
  00024	8b 4a f0	 mov	 ecx, DWORD PTR [edx-16]
  00027	33 c8		 xor	 ecx, eax
  00029	e8 00 00 00 00	 call	 @__security_check_cookie@4
  0002e	b8 00 00 00 00	 mov	 eax, OFFSET __ehfuncinfo$??0CDlgToolTip@@QAE@XZ
  00033	e9 00 00 00 00	 jmp	 ___CxxFrameHandler3
text$x	ENDS
??0CDlgToolTip@@QAE@XZ ENDP				; CDlgToolTip::CDlgToolTip
; Function compile flags: /Ogtp
; File C:\Program Files (x86)\Microsoft Visual Studio\2019\Community\VC\Tools\MSVC\14.29.30133\atlmfc\include\afx.inl
;	COMDAT ??_GToolTipInfo@@UAEPAXI@Z
_TEXT	SEGMENT
___flags$ = 8						; size = 4
??_GToolTipInfo@@UAEPAXI@Z PROC				; ToolTipInfo::`scalar deleting destructor', COMDAT
; _this$ = ecx
  00000	55		 push	 ebp
  00001	8b ec		 mov	 ebp, esp
  00003	56		 push	 esi
  00004	8b f1		 mov	 esi, ecx
  00006	8d 4e 0c	 lea	 ecx, DWORD PTR [esi+12]
  00009	e8 00 00 00 00	 call	 ??1CStringArray@@UAE@XZ	; CStringArray::~CStringArray
  0000e	8b 45 08	 mov	 eax, DWORD PTR ___flags$[ebp]
  00011	a8 01		 test	 al, 1
  00013	74 1f		 je	 SHORT $LN12@scalar
  00015	a8 04		 test	 al, 4
  00017	75 10		 jne	 SHORT $LN3@scalar

; 112  : 	{ ::operator delete(p); }

  00019	56		 push	 esi
  0001a	e8 00 00 00 00	 call	 ??3@YAXPAX@Z		; operator delete
  0001f	83 c4 04	 add	 esp, 4
  00022	8b c6		 mov	 eax, esi
  00024	5e		 pop	 esi
  00025	5d		 pop	 ebp
  00026	c2 04 00	 ret	 4
$LN3@scalar:
  00029	6a 28		 push	 40			; 00000028H
  0002b	56		 push	 esi
  0002c	e8 00 00 00 00	 call	 ?__global_delete@@YAXPAXI@Z ; __global_delete
  00031	83 c4 08	 add	 esp, 8
$LN12@scalar:
  00034	8b c6		 mov	 eax, esi
  00036	5e		 pop	 esi
  00037	5d		 pop	 ebp
  00038	c2 04 00	 ret	 4
??_GToolTipInfo@@UAEPAXI@Z ENDP				; ToolTipInfo::`scalar deleting destructor'
_TEXT	ENDS
; Function compile flags: /Ogtp
; File D:\git\src\IBK\IBK_DRFN\ProjSrc\SrcChartEx\ChartAddIn\ChartDesignPropertyAddIn\Include_Chart\Dll_Load\IMetaTable.h
; File C:\Program Files (x86)\Microsoft Visual Studio\2019\Community\VC\Tools\MSVC\14.29.30133\atlmfc\include\afxwin1.inl
; File D:\git\src\IBK\IBK_DRFN\ProjSrc\SrcChartEx\ChartAddIn\ChartDesignPropertyAddIn\Include_Chart\Dll_Load\IMetaTable.h
;	COMDAT ??1CMultiLanguageResourceSetter@@QAE@XZ
_TEXT	SEGMENT
__$EHRec$ = -12						; size = 12
??1CMultiLanguageResourceSetter@@QAE@XZ PROC		; CMultiLanguageResourceSetter::~CMultiLanguageResourceSetter, COMDAT
; _this$ = ecx

; 1036 : 	{

  00000	55		 push	 ebp
  00001	8b ec		 mov	 ebp, esp
  00003	6a ff		 push	 -1
  00005	68 00 00 00 00	 push	 __ehhandler$??1CMultiLanguageResourceSetter@@QAE@XZ
  0000a	64 a1 00 00 00
	00		 mov	 eax, DWORD PTR fs:0
  00010	50		 push	 eax
  00011	56		 push	 esi
  00012	a1 00 00 00 00	 mov	 eax, DWORD PTR ___security_cookie
  00017	33 c5		 xor	 eax, ebp
  00019	50		 push	 eax
  0001a	8d 45 f4	 lea	 eax, DWORD PTR __$EHRec$[ebp]
  0001d	64 a3 00 00 00
	00		 mov	 DWORD PTR fs:0, eax

; 1037 : 		AfxSetResourceHandle( m_hInstance);

  00023	8b 31		 mov	 esi, DWORD PTR [ecx]
; File C:\Program Files (x86)\Microsoft Visual Studio\2019\Community\VC\Tools\MSVC\14.29.30133\atlmfc\include\afxwin1.inl

; 27   : 	{ ASSERT(hInstResource != NULL); afxCurrentResourceHandle = hInstResource; }

  00025	e8 00 00 00 00	 call	 ?AfxGetModuleState@@YGPAVAFX_MODULE_STATE@@XZ ; AfxGetModuleState
  0002a	89 70 0c	 mov	 DWORD PTR [eax+12], esi
; File D:\git\src\IBK\IBK_DRFN\ProjSrc\SrcChartEx\ChartAddIn\ChartDesignPropertyAddIn\Include_Chart\Dll_Load\IMetaTable.h

; 1038 : 	}

  0002d	8b 4d f4	 mov	 ecx, DWORD PTR __$EHRec$[ebp]
  00030	64 89 0d 00 00
	00 00		 mov	 DWORD PTR fs:0, ecx
  00037	59		 pop	 ecx
  00038	5e		 pop	 esi
  00039	8b e5		 mov	 esp, ebp
  0003b	5d		 pop	 ebp
  0003c	c3		 ret	 0
  0003d	cc		 int	 3
  0003e	cc		 int	 3
  0003f	cc		 int	 3
  00040	cc		 int	 3
  00041	cc		 int	 3
_TEXT	ENDS
;	COMDAT text$x
text$x	SEGMENT
__ehhandler$??1CMultiLanguageResourceSetter@@QAE@XZ:
  00000	90		 npad	 1
  00001	90		 npad	 1
  00002	8b 54 24 08	 mov	 edx, DWORD PTR [esp+8]
  00006	8d 42 0c	 lea	 eax, DWORD PTR [edx+12]
  00009	8b 4a f8	 mov	 ecx, DWORD PTR [edx-8]
  0000c	33 c8		 xor	 ecx, eax
  0000e	e8 00 00 00 00	 call	 @__security_check_cookie@4
  00013	b8 00 00 00 00	 mov	 eax, OFFSET __ehfuncinfo$??1CMultiLanguageResourceSetter@@QAE@XZ
  00018	e9 00 00 00 00	 jmp	 ___CxxFrameHandler3
text$x	ENDS
??1CMultiLanguageResourceSetter@@QAE@XZ ENDP		; CMultiLanguageResourceSetter::~CMultiLanguageResourceSetter
; Function compile flags: /Ogtp
; File C:\Program Files (x86)\Microsoft Visual Studio\2019\Community\VC\Tools\MSVC\14.29.30133\atlmfc\include\afxwin2.inl
;	COMDAT ?EndModalState@CWnd@@UAEXXZ
_TEXT	SEGMENT
?EndModalState@CWnd@@UAEXXZ PROC			; CWnd::EndModalState, COMDAT
; _this$ = ecx

; 567  : 	{ ::EnableWindow(m_hWnd, TRUE); }

  00000	6a 01		 push	 1
  00002	ff 71 20	 push	 DWORD PTR [ecx+32]
  00005	ff 15 00 00 00
	00		 call	 DWORD PTR __imp__EnableWindow@8
  0000b	c3		 ret	 0
?EndModalState@CWnd@@UAEXXZ ENDP			; CWnd::EndModalState
_TEXT	ENDS
; Function compile flags: /Ogtp
; File C:\Program Files (x86)\Microsoft Visual Studio\2019\Community\VC\Tools\MSVC\14.29.30133\atlmfc\include\afxwin2.inl
;	COMDAT ?BeginModalState@CWnd@@UAEXXZ
_TEXT	SEGMENT
?BeginModalState@CWnd@@UAEXXZ PROC			; CWnd::BeginModalState, COMDAT
; _this$ = ecx

; 565  : 	{ ::EnableWindow(m_hWnd, FALSE); }

  00000	6a 00		 push	 0
  00002	ff 71 20	 push	 DWORD PTR [ecx+32]
  00005	ff 15 00 00 00
	00		 call	 DWORD PTR __imp__EnableWindow@8
  0000b	c3		 ret	 0
?BeginModalState@CWnd@@UAEXXZ ENDP			; CWnd::BeginModalState
_TEXT	ENDS
; Function compile flags: /Ogtp
; File C:\Program Files (x86)\Microsoft Visual Studio\2019\Community\VC\Tools\MSVC\14.29.30133\atlmfc\include\afxwin2.inl
;	COMDAT ?DoDataExchange@CWnd@@MAEXPAVCDataExchange@@@Z
_TEXT	SEGMENT
___formal$ = 8						; size = 4
?DoDataExchange@CWnd@@MAEXPAVCDataExchange@@@Z PROC	; CWnd::DoDataExchange, COMDAT
; _this$ = ecx

; 561  : 	{ } // default does nothing

  00000	c2 04 00	 ret	 4
?DoDataExchange@CWnd@@MAEXPAVCDataExchange@@@Z ENDP	; CWnd::DoDataExchange
_TEXT	ENDS
; Function compile flags: /Ogtp
; File C:\Program Files (x86)\Microsoft Visual Studio\2019\Community\VC\Tools\MSVC\14.29.30133\atlmfc\include\afxwin1.inl
; File C:\Program Files (x86)\Microsoft Visual Studio\2019\Community\VC\Tools\MSVC\14.29.30133\atlmfc\include\afx.inl
;	COMDAT ??_GCFont@@UAEPAXI@Z
_TEXT	SEGMENT
___flags$ = 8						; size = 4
??_GCFont@@UAEPAXI@Z PROC				; CFont::`scalar deleting destructor', COMDAT
; _this$ = ecx
  00000	55		 push	 ebp
  00001	8b ec		 mov	 ebp, esp
; File C:\Program Files (x86)\Microsoft Visual Studio\2019\Community\VC\Tools\MSVC\14.29.30133\atlmfc\include\afxwin1.inl

; 155  : 	{ }

  00003	56		 push	 esi
  00004	8b f1		 mov	 esi, ecx
  00006	c7 06 00 00 00
	00		 mov	 DWORD PTR [esi], OFFSET ??_7CFont@@6B@
  0000c	e8 00 00 00 00	 call	 ??1CGdiObject@@UAE@XZ	; CGdiObject::~CGdiObject
  00011	8b 45 08	 mov	 eax, DWORD PTR ___flags$[ebp]
  00014	a8 01		 test	 al, 1
  00016	74 1f		 je	 SHORT $LN12@scalar
  00018	a8 04		 test	 al, 4
  0001a	75 10		 jne	 SHORT $LN3@scalar
; File C:\Program Files (x86)\Microsoft Visual Studio\2019\Community\VC\Tools\MSVC\14.29.30133\atlmfc\include\afx.inl

; 112  : 	{ ::operator delete(p); }

  0001c	56		 push	 esi
  0001d	e8 00 00 00 00	 call	 ??3@YAXPAX@Z		; operator delete
  00022	83 c4 04	 add	 esp, 4
  00025	8b c6		 mov	 eax, esi
  00027	5e		 pop	 esi
  00028	5d		 pop	 ebp
  00029	c2 04 00	 ret	 4
$LN3@scalar:
  0002c	6a 08		 push	 8
  0002e	56		 push	 esi
  0002f	e8 00 00 00 00	 call	 ?__global_delete@@YAXPAXI@Z ; __global_delete
  00034	83 c4 08	 add	 esp, 8
$LN12@scalar:
  00037	8b c6		 mov	 eax, esi
  00039	5e		 pop	 esi
  0003a	5d		 pop	 ebp
  0003b	c2 04 00	 ret	 4
??_GCFont@@UAEPAXI@Z ENDP				; CFont::`scalar deleting destructor'
_TEXT	ENDS
; Function compile flags: /Ogtp
; File C:\Program Files (x86)\Microsoft Visual Studio\2019\Community\VC\Tools\MSVC\14.29.30133\atlmfc\include\afxwin1.inl
;	COMDAT ??1CFont@@UAE@XZ
_TEXT	SEGMENT
??1CFont@@UAE@XZ PROC					; CFont::~CFont, COMDAT
; _this$ = ecx

; 155  : 	{ }

  00000	c7 01 00 00 00
	00		 mov	 DWORD PTR [ecx], OFFSET ??_7CFont@@6B@
  00006	e9 00 00 00 00	 jmp	 ??1CGdiObject@@UAE@XZ	; CGdiObject::~CGdiObject
??1CFont@@UAE@XZ ENDP					; CFont::~CFont
_TEXT	ENDS
; Function compile flags: /Ogtp
; File C:\Program Files (x86)\Microsoft Visual Studio\2019\Community\VC\Tools\MSVC\14.29.30133\atlmfc\include\afxwin1.inl
; File C:\Program Files (x86)\Microsoft Visual Studio\2019\Community\VC\Tools\MSVC\14.29.30133\atlmfc\include\afx.inl
;	COMDAT ??_GCBrush@@UAEPAXI@Z
_TEXT	SEGMENT
___flags$ = 8						; size = 4
??_GCBrush@@UAEPAXI@Z PROC				; CBrush::`scalar deleting destructor', COMDAT
; _this$ = ecx
  00000	55		 push	 ebp
  00001	8b ec		 mov	 ebp, esp
; File C:\Program Files (x86)\Microsoft Visual Studio\2019\Community\VC\Tools\MSVC\14.29.30133\atlmfc\include\afxwin1.inl

; 130  : 	{ }

  00003	56		 push	 esi
  00004	8b f1		 mov	 esi, ecx
  00006	c7 06 00 00 00
	00		 mov	 DWORD PTR [esi], OFFSET ??_7CBrush@@6B@
  0000c	e8 00 00 00 00	 call	 ??1CGdiObject@@UAE@XZ	; CGdiObject::~CGdiObject
  00011	8b 45 08	 mov	 eax, DWORD PTR ___flags$[ebp]
  00014	a8 01		 test	 al, 1
  00016	74 1f		 je	 SHORT $LN12@scalar
  00018	a8 04		 test	 al, 4
  0001a	75 10		 jne	 SHORT $LN3@scalar
; File C:\Program Files (x86)\Microsoft Visual Studio\2019\Community\VC\Tools\MSVC\14.29.30133\atlmfc\include\afx.inl

; 112  : 	{ ::operator delete(p); }

  0001c	56		 push	 esi
  0001d	e8 00 00 00 00	 call	 ??3@YAXPAX@Z		; operator delete
  00022	83 c4 04	 add	 esp, 4
  00025	8b c6		 mov	 eax, esi
  00027	5e		 pop	 esi
  00028	5d		 pop	 ebp
  00029	c2 04 00	 ret	 4
$LN3@scalar:
  0002c	6a 08		 push	 8
  0002e	56		 push	 esi
  0002f	e8 00 00 00 00	 call	 ?__global_delete@@YAXPAXI@Z ; __global_delete
  00034	83 c4 08	 add	 esp, 8
$LN12@scalar:
  00037	8b c6		 mov	 eax, esi
  00039	5e		 pop	 esi
  0003a	5d		 pop	 ebp
  0003b	c2 04 00	 ret	 4
??_GCBrush@@UAEPAXI@Z ENDP				; CBrush::`scalar deleting destructor'
_TEXT	ENDS
; Function compile flags: /Ogtp
; File C:\Program Files (x86)\Microsoft Visual Studio\2019\Community\VC\Tools\MSVC\14.29.30133\atlmfc\include\afxwin1.inl
;	COMDAT ??1CBrush@@UAE@XZ
_TEXT	SEGMENT
??1CBrush@@UAE@XZ PROC					; CBrush::~CBrush, COMDAT
; _this$ = ecx

; 130  : 	{ }

  00000	c7 01 00 00 00
	00		 mov	 DWORD PTR [ecx], OFFSET ??_7CBrush@@6B@
  00006	e9 00 00 00 00	 jmp	 ??1CGdiObject@@UAE@XZ	; CGdiObject::~CGdiObject
??1CBrush@@UAE@XZ ENDP					; CBrush::~CBrush
_TEXT	ENDS
; Function compile flags: /Ogtp
; File C:\Program Files (x86)\Microsoft Visual Studio\2019\Community\VC\Tools\MSVC\14.29.30133\atlmfc\include\afx.inl
;	COMDAT ??_GCGdiObject@@UAEPAXI@Z
_TEXT	SEGMENT
___flags$ = 8						; size = 4
??_GCGdiObject@@UAEPAXI@Z PROC				; CGdiObject::`scalar deleting destructor', COMDAT
; _this$ = ecx
  00000	55		 push	 ebp
  00001	8b ec		 mov	 ebp, esp
  00003	56		 push	 esi
  00004	8b f1		 mov	 esi, ecx
  00006	e8 00 00 00 00	 call	 ??1CGdiObject@@UAE@XZ	; CGdiObject::~CGdiObject
  0000b	8b 45 08	 mov	 eax, DWORD PTR ___flags$[ebp]
  0000e	a8 01		 test	 al, 1
  00010	74 1f		 je	 SHORT $LN9@scalar
  00012	a8 04		 test	 al, 4
  00014	75 10		 jne	 SHORT $LN3@scalar

; 112  : 	{ ::operator delete(p); }

  00016	56		 push	 esi
  00017	e8 00 00 00 00	 call	 ??3@YAXPAX@Z		; operator delete
  0001c	83 c4 04	 add	 esp, 4
  0001f	8b c6		 mov	 eax, esi
  00021	5e		 pop	 esi
  00022	5d		 pop	 ebp
  00023	c2 04 00	 ret	 4
$LN3@scalar:
  00026	6a 08		 push	 8
  00028	56		 push	 esi
  00029	e8 00 00 00 00	 call	 ?__global_delete@@YAXPAXI@Z ; __global_delete
  0002e	83 c4 08	 add	 esp, 8
$LN9@scalar:
  00031	8b c6		 mov	 eax, esi
  00033	5e		 pop	 esi
  00034	5d		 pop	 ebp
  00035	c2 04 00	 ret	 4
??_GCGdiObject@@UAEPAXI@Z ENDP				; CGdiObject::`scalar deleting destructor'
_TEXT	ENDS
; Function compile flags: /Ogtp
; File C:\Program Files (x86)\Microsoft Visual Studio\2019\Community\VC\Tools\MSVC\14.29.30133\atlmfc\include\afxwin1.inl
;	COMDAT ??1CGdiObject@@UAE@XZ
_TEXT	SEGMENT
_pException$2 = -540					; size = 4
_strMsg$3 = -536					; size = 4
_szErrorMessage$4 = -532				; size = 512
__$ArrayPad$ = -20					; size = 4
__$EHRec$ = -16						; size = 16
??1CGdiObject@@UAE@XZ PROC				; CGdiObject::~CGdiObject, COMDAT
; _this$ = ecx

; 74   : {

  00000	55		 push	 ebp
  00001	8b ec		 mov	 ebp, esp
  00003	6a ff		 push	 -1
  00005	68 00 00 00 00	 push	 __ehhandler$??1CGdiObject@@UAE@XZ
  0000a	64 a1 00 00 00
	00		 mov	 eax, DWORD PTR fs:0
  00010	50		 push	 eax
  00011	81 ec 10 02 00
	00		 sub	 esp, 528		; 00000210H
  00017	a1 00 00 00 00	 mov	 eax, DWORD PTR ___security_cookie
  0001c	33 c5		 xor	 eax, ebp
  0001e	89 45 ec	 mov	 DWORD PTR __$ArrayPad$[ebp], eax
  00021	53		 push	 ebx
  00022	56		 push	 esi
  00023	57		 push	 edi
  00024	50		 push	 eax
  00025	8d 45 f4	 lea	 eax, DWORD PTR __$EHRec$[ebp+4]
  00028	64 a3 00 00 00
	00		 mov	 DWORD PTR fs:0, eax
  0002e	89 65 f0	 mov	 DWORD PTR __$EHRec$[ebp], esp
  00031	c7 01 00 00 00
	00		 mov	 DWORD PTR [ecx], OFFSET ??_7CGdiObject@@6B@

; 75   : 	AFX_BEGIN_DESTRUCTOR

  00037	c7 45 fc 00 00
	00 00		 mov	 DWORD PTR __$EHRec$[ebp+12], 0

; 76   : 	DeleteObject();

  0003e	e8 00 00 00 00	 call	 ?DeleteObject@CGdiObject@@QAEHXZ ; CGdiObject::DeleteObject
$LN18@CGdiObject:

; 78   : }

  00043	8b 4d f4	 mov	 ecx, DWORD PTR __$EHRec$[ebp+4]
  00046	64 89 0d 00 00
	00 00		 mov	 DWORD PTR fs:0, ecx
  0004d	59		 pop	 ecx
  0004e	5f		 pop	 edi
  0004f	5e		 pop	 esi
  00050	5b		 pop	 ebx
  00051	8b 4d ec	 mov	 ecx, DWORD PTR __$ArrayPad$[ebp]
  00054	33 cd		 xor	 ecx, ebp
  00056	e8 00 00 00 00	 call	 @__security_check_cookie@4
  0005b	8b e5		 mov	 esp, ebp
  0005d	5d		 pop	 ebp
  0005e	c3		 ret	 0
__catch$??1CGdiObject@@UAE@XZ$0:

; 77   : 	AFX_END_DESTRUCTOR

  0005f	8d 8d e8 fd ff
	ff		 lea	 ecx, DWORD PTR _strMsg$3[ebp]
  00065	ff 15 00 00 00
	00		 call	 DWORD PTR __imp_??0?$CStringT@DV?$StrTraitMFC_DLL@DV?$ChTraitsCRT@D@ATL@@@@@ATL@@QAE@XZ
  0006b	8b b5 e4 fd ff
	ff		 mov	 esi, DWORD PTR _pException$2[ebp]
  00071	8d 8d ec fd ff
	ff		 lea	 ecx, DWORD PTR _szErrorMessage$4[ebp]
  00077	6a 00		 push	 0
  00079	68 00 02 00 00	 push	 512			; 00000200H
  0007e	51		 push	 ecx
  0007f	8b 06		 mov	 eax, DWORD PTR [esi]
  00081	8b ce		 mov	 ecx, esi
  00083	c6 45 fc 02	 mov	 BYTE PTR __$EHRec$[ebp+12], 2
  00087	ff 50 14	 call	 DWORD PTR [eax+20]
  0008a	85 c0		 test	 eax, eax
  0008c	74 2a		 je	 SHORT $LN9@CGdiObject
  0008e	8d 85 ec fd ff
	ff		 lea	 eax, DWORD PTR _szErrorMessage$4[ebp]
  00094	50		 push	 eax
  00095	6a 4d		 push	 77			; 0000004dH
  00097	68 00 00 00 00	 push	 OFFSET ??_C@_0HD@JJCHHHNK@C?3?2Program?5Files?5?$CIx86?$CJ?2Microsof@
  0009c	68 00 00 00 00	 push	 OFFSET ??_C@_0BP@OIEOKIDM@Exception?5thrown?5in?5destructor@
  000a1	8d 85 e8 fd ff
	ff		 lea	 eax, DWORD PTR _strMsg$3[ebp]
  000a7	68 00 00 00 00	 push	 OFFSET ??_C@_0BB@HBOOMJBF@?$CFTs?5?$CI?$CFTs?3?$CFd?$CJ?6?$CFTs@
  000ac	50		 push	 eax
  000ad	ff 15 00 00 00
	00		 call	 DWORD PTR __imp_?Format@?$CStringT@DV?$StrTraitMFC_DLL@DV?$ChTraitsCRT@D@ATL@@@@@ATL@@QAAXPBDZZ
  000b3	83 c4 18	 add	 esp, 24			; 00000018H
  000b6	eb 21		 jmp	 SHORT $LN10@CGdiObject
$LN9@CGdiObject:
  000b8	6a 4d		 push	 77			; 0000004dH
  000ba	68 00 00 00 00	 push	 OFFSET ??_C@_0HD@JJCHHHNK@C?3?2Program?5Files?5?$CIx86?$CJ?2Microsof@
  000bf	68 00 00 00 00	 push	 OFFSET ??_C@_0BP@OIEOKIDM@Exception?5thrown?5in?5destructor@
  000c4	8d 85 e8 fd ff
	ff		 lea	 eax, DWORD PTR _strMsg$3[ebp]
  000ca	68 00 00 00 00	 push	 OFFSET ??_C@_0N@OMEMOKLE@?$CFTs?5?$CI?$CFTs?3?$CFd?$CJ@
  000cf	50		 push	 eax
  000d0	ff 15 00 00 00
	00		 call	 DWORD PTR __imp_?Format@?$CStringT@DV?$StrTraitMFC_DLL@DV?$ChTraitsCRT@D@ATL@@@@@ATL@@QAAXPBDZZ
  000d6	83 c4 14	 add	 esp, 20			; 00000014H
$LN10@CGdiObject:
  000d9	6a 00		 push	 0
  000db	6a 00		 push	 0
  000dd	ff b5 e8 fd ff
	ff		 push	 DWORD PTR _strMsg$3[ebp]
  000e3	e8 00 00 00 00	 call	 ?AfxMessageBox@@YGHPBDII@Z ; AfxMessageBox
  000e8	8d 8d e8 fd ff
	ff		 lea	 ecx, DWORD PTR _strMsg$3[ebp]
  000ee	ff 15 00 00 00
	00		 call	 DWORD PTR __imp_??1?$CStringT@DV?$StrTraitMFC_DLL@DV?$ChTraitsCRT@D@ATL@@@@@ATL@@QAE@XZ
  000f4	8b 06		 mov	 eax, DWORD PTR [esi]
  000f6	8b ce		 mov	 ecx, esi
  000f8	6a 01		 push	 1
  000fa	ff 50 04	 call	 DWORD PTR [eax+4]
  000fd	b8 00 00 00 00	 mov	 eax, $LN18@CGdiObject
  00102	c3		 ret	 0
_TEXT	ENDS
;	COMDAT text$x
text$x	SEGMENT
__unwindfunclet$??1CGdiObject@@UAE@XZ$2:
  00000	8d 8d e8 fd ff
	ff		 lea	 ecx, DWORD PTR _strMsg$3[ebp]
  00006	ff 25 00 00 00
	00		 jmp	 DWORD PTR __imp_??1?$CStringT@DV?$StrTraitMFC_DLL@DV?$ChTraitsCRT@D@ATL@@@@@ATL@@QAE@XZ
  0000c	cc		 int	 3
  0000d	cc		 int	 3
  0000e	cc		 int	 3
  0000f	cc		 int	 3
  00010	cc		 int	 3
__ehhandler$??1CGdiObject@@UAE@XZ:
  00011	90		 npad	 1
  00012	90		 npad	 1
  00013	8b 54 24 08	 mov	 edx, DWORD PTR [esp+8]
  00017	8d 42 0c	 lea	 eax, DWORD PTR [edx+12]
  0001a	8b 8a e0 fd ff
	ff		 mov	 ecx, DWORD PTR [edx-544]
  00020	33 c8		 xor	 ecx, eax
  00022	e8 00 00 00 00	 call	 @__security_check_cookie@4
  00027	8b 4a f8	 mov	 ecx, DWORD PTR [edx-8]
  0002a	33 c8		 xor	 ecx, eax
  0002c	e8 00 00 00 00	 call	 @__security_check_cookie@4
  00031	b8 00 00 00 00	 mov	 eax, OFFSET __ehfuncinfo$??1CGdiObject@@UAE@XZ
  00036	e9 00 00 00 00	 jmp	 ___CxxFrameHandler3
text$x	ENDS
??1CGdiObject@@UAE@XZ ENDP				; CGdiObject::~CGdiObject
; Function compile flags: /Ogtp
; File C:\Program Files (x86)\Microsoft Visual Studio\2019\Community\VC\Tools\MSVC\14.29.30133\atlmfc\include\afx.inl
;	COMDAT ?Dump@CObject@@UBEXAAVCDumpContext@@@Z
_TEXT	SEGMENT
___formal$ = 8						; size = 4
?Dump@CObject@@UBEXAAVCDumpContext@@@Z PROC		; CObject::Dump, COMDAT
; _this$ = ecx

; 122  : 	{ /* no dumping in release builds */ }

  00000	c2 04 00	 ret	 4
?Dump@CObject@@UBEXAAVCDumpContext@@@Z ENDP		; CObject::Dump
_TEXT	ENDS
; Function compile flags: /Ogtp
; File C:\Program Files (x86)\Microsoft Visual Studio\2019\Community\VC\Tools\MSVC\14.29.30133\atlmfc\include\afx.inl
;	COMDAT ?AssertValid@CObject@@UBEXXZ
_TEXT	SEGMENT
?AssertValid@CObject@@UBEXXZ PROC			; CObject::AssertValid, COMDAT
; _this$ = ecx

; 120  : 	{ /* no asserts in release builds */ }

  00000	c2 00 00	 ret	 0
?AssertValid@CObject@@UBEXXZ ENDP			; CObject::AssertValid
_TEXT	ENDS
; Function compile flags: /Ogtp
; File C:\Program Files (x86)\Microsoft Visual Studio\2019\Community\VC\Tools\MSVC\14.29.30133\atlmfc\include\afx.inl
;	COMDAT ?Serialize@CObject@@UAEXAAVCArchive@@@Z
_TEXT	SEGMENT
___formal$ = 8						; size = 4
?Serialize@CObject@@UAEXAAVCArchive@@@Z PROC		; CObject::Serialize, COMDAT
; _this$ = ecx

; 106  : 	{ /* CObject does not serialize anything by default */ }

  00000	c2 04 00	 ret	 4
?Serialize@CObject@@UAEXAAVCArchive@@@Z ENDP		; CObject::Serialize
_TEXT	ENDS
; Function compile flags: /Ogtp
; File C:\Program Files (x86)\Microsoft Visual Studio\2019\Community\VC\Tools\MSVC\14.29.30133\atlmfc\include\afx.inl
;	COMDAT ??3CObject@@SGXPAX@Z
_TEXT	SEGMENT
_p$ = 8							; size = 4
??3CObject@@SGXPAX@Z PROC				; CObject::operator delete, COMDAT

; 112  : 	{ ::operator delete(p); }

  00000	55		 push	 ebp
  00001	8b ec		 mov	 ebp, esp
  00003	ff 75 08	 push	 DWORD PTR _p$[ebp]
  00006	e8 00 00 00 00	 call	 ??3@YAXPAX@Z		; operator delete
  0000b	83 c4 04	 add	 esp, 4
  0000e	5d		 pop	 ebp
  0000f	c2 04 00	 ret	 4
??3CObject@@SGXPAX@Z ENDP				; CObject::operator delete
_TEXT	ENDS
; Function compile flags: /Ogtp
; File C:\Program Files (x86)\Microsoft Visual Studio\2019\Community\VC\Tools\MSVC\14.29.30133\atlmfc\include\afx.inl
;	COMDAT ??1CObject@@UAE@XZ
_TEXT	SEGMENT
??1CObject@@UAE@XZ PROC					; CObject::~CObject, COMDAT
; _this$ = ecx

; 104  : 	{ }

  00000	c2 00 00	 ret	 0
??1CObject@@UAE@XZ ENDP					; CObject::~CObject
_TEXT	ENDS
; Function compile flags: /Ogtp
; File D:\git\src\IBK\IBK_DRFN\ProjSrc\SrcChartEx\ChartAddIn\ChartDesignPropertyAddIn\ChartDesignPropertyAddIn\DlgToolTip.cpp
;	COMDAT ?__empty_global_delete@@YAXPAXI@Z
_TEXT	SEGMENT
___formal$ = 8						; size = 4
___formal$ = 12						; size = 4
?__empty_global_delete@@YAXPAXI@Z PROC			; __empty_global_delete, COMDAT

  00000	c2 00 00	 ret	 0
?__empty_global_delete@@YAXPAXI@Z ENDP			; __empty_global_delete
_TEXT	ENDS
; Function compile flags: /Ogtp
; File D:\git\src\IBK\IBK_DRFN\ProjSrc\SrcChartEx\ChartAddIn\ChartDesignPropertyAddIn\ChartDesignPropertyAddIn\DlgToolTip.cpp
;	COMDAT ?__empty_global_delete@@YAXPAX@Z
_TEXT	SEGMENT
___formal$ = 8						; size = 4
?__empty_global_delete@@YAXPAX@Z PROC			; __empty_global_delete, COMDAT

  00000	c2 00 00	 ret	 0
?__empty_global_delete@@YAXPAX@Z ENDP			; __empty_global_delete
_TEXT	ENDS
END
