; Listing generated by Microsoft (R) Optimizing Compiler Version 19.29.30145.0 

	TITLE	D:\git\src\IBK\IBK_DRFN\#DRfn-CS\_Obj\ChartDesignPropertyAddIn\EditableListCtrl.obj
	.686P
	.XMM
	include listing.inc
	.model	flat

INCLUDELIB MSVCRT
INCLUDELIB OLDNAMES

PUBLIC	??_C@_0CB@EFDCECKM@RMSG_EDITABLELISTCTRL_CELLEDITE@ ; `string'
;	COMDAT ??_C@_0CB@EFDCECKM@RMSG_EDITABLELISTCTRL_CELLEDITE@
CONST	SEGMENT
??_C@_0CB@EFDCECKM@RMSG_EDITABLELISTCTRL_CELLEDITE@ DB 'RMSG_EDITABLELIST'
	DB	'CTRL_CELLEDITED', 00H			; `string'
CONST	ENDS
PUBLIC	?__empty_global_delete@@YAXPAX@Z		; __empty_global_delete
PUBLIC	?__empty_global_delete@@YAXPAXI@Z		; __empty_global_delete
PUBLIC	??3CObject@@SGXPAX@Z				; CObject::operator delete
PUBLIC	?Serialize@CObject@@UAEXAAVCArchive@@@Z		; CObject::Serialize
PUBLIC	?AssertValid@CObject@@UBEXXZ			; CObject::AssertValid
PUBLIC	?Dump@CObject@@UBEXAAVCDumpContext@@@Z		; CObject::Dump
PUBLIC	?DoDataExchange@CWnd@@MAEXPAVCDataExchange@@@Z	; CWnd::DoDataExchange
PUBLIC	?BeginModalState@CWnd@@UAEXXZ			; CWnd::BeginModalState
PUBLIC	?EndModalState@CWnd@@UAEXXZ			; CWnd::EndModalState
PUBLIC	?Scroll@CListCtrl@@QAEHVCSize@@@Z		; CListCtrl::Scroll
PUBLIC	??_GCListCtrl@@UAEPAXI@Z			; CListCtrl::`scalar deleting destructor'
PUBLIC	??0CEditableListCtrl@@QAE@XZ			; CEditableListCtrl::CEditableListCtrl
PUBLIC	?PreTranslateMessage@CEditableListCtrl@@UAEHPAUtagMSG@@@Z ; CEditableListCtrl::PreTranslateMessage
PUBLIC	?PreSubclassWindow@CEditableListCtrl@@MAEXXZ	; CEditableListCtrl::PreSubclassWindow
PUBLIC	??1CEditableListCtrl@@UAE@XZ			; CEditableListCtrl::~CEditableListCtrl
PUBLIC	?OnLButtonDblClk@CEditableListCtrl@@IAEXIVCPoint@@@Z ; CEditableListCtrl::OnLButtonDblClk
PUBLIC	?OnBeginlabeledit@CEditableListCtrl@@IAEXPAUtagNMHDR@@PAJ@Z ; CEditableListCtrl::OnBeginlabeledit
PUBLIC	?OnKeyDown@CEditableListCtrl@@IAEXIII@Z		; CEditableListCtrl::OnKeyDown
PUBLIC	?OnVScroll@CEditableListCtrl@@IAEXIIPAVCScrollBar@@@Z ; CEditableListCtrl::OnVScroll
PUBLIC	?OnHScroll@CEditableListCtrl@@IAEXIIPAVCScrollBar@@@Z ; CEditableListCtrl::OnHScroll
PUBLIC	?OnMouseWheel@CEditableListCtrl@@IAEHIFVCPoint@@@Z ; CEditableListCtrl::OnMouseWheel
PUBLIC	?GetThisMessageMap@CEditableListCtrl@@KGPBUAFX_MSGMAP@@XZ ; CEditableListCtrl::GetThisMessageMap
PUBLIC	?GetMessageMap@CEditableListCtrl@@MBEPBUAFX_MSGMAP@@XZ ; CEditableListCtrl::GetMessageMap
PUBLIC	?EditSubItem@CEditableListCtrl@@QAEXVCPoint@@@Z	; CEditableListCtrl::EditSubItem
PUBLIC	?EditSubItem@CEditableListCtrl@@UAEHHH@Z	; CEditableListCtrl::EditSubItem
PUBLIC	?StartEditSubItem@CEditableListCtrl@@IAEXXZ	; CEditableListCtrl::StartEditSubItem
PUBLIC	?SetUpdateOnlyEnter@CEditableListCtrl@@QAEXH@Z	; CEditableListCtrl::SetUpdateOnlyEnter
PUBLIC	??_GCEditableListCtrl@@UAEPAXI@Z		; CEditableListCtrl::`scalar deleting destructor'
PUBLIC	??_7CListCtrl@@6B@				; CListCtrl::`vftable'
PUBLIC	??_R0?AVCObject@@@8				; CObject `RTTI Type Descriptor'
PUBLIC	??_R3CObject@@8					; CObject::`RTTI Class Hierarchy Descriptor'
PUBLIC	??_R2CObject@@8					; CObject::`RTTI Base Class Array'
PUBLIC	??_R1A@?0A@EA@CObject@@8			; CObject::`RTTI Base Class Descriptor at (0,-1,0,64)'
PUBLIC	??_R1A@?0A@EA@CWnd@@8				; CWnd::`RTTI Base Class Descriptor at (0,-1,0,64)'
PUBLIC	??_R0?AVCWnd@@@8				; CWnd `RTTI Type Descriptor'
PUBLIC	??_R3CWnd@@8					; CWnd::`RTTI Class Hierarchy Descriptor'
PUBLIC	??_R2CWnd@@8					; CWnd::`RTTI Base Class Array'
PUBLIC	??_R1A@?0A@EA@CCmdTarget@@8			; CCmdTarget::`RTTI Base Class Descriptor at (0,-1,0,64)'
PUBLIC	??_R0?AVCCmdTarget@@@8				; CCmdTarget `RTTI Type Descriptor'
PUBLIC	??_R3CCmdTarget@@8				; CCmdTarget::`RTTI Class Hierarchy Descriptor'
PUBLIC	??_R2CCmdTarget@@8				; CCmdTarget::`RTTI Base Class Array'
PUBLIC	??_R4CListCtrl@@6B@				; CListCtrl::`RTTI Complete Object Locator'
PUBLIC	??_R0?AVCListCtrl@@@8				; CListCtrl `RTTI Type Descriptor'
PUBLIC	??_R3CListCtrl@@8				; CListCtrl::`RTTI Class Hierarchy Descriptor'
PUBLIC	??_R2CListCtrl@@8				; CListCtrl::`RTTI Base Class Array'
PUBLIC	??_R1A@?0A@EA@CListCtrl@@8			; CListCtrl::`RTTI Base Class Descriptor at (0,-1,0,64)'
PUBLIC	??_7CEditableListCtrl@@6B@			; CEditableListCtrl::`vftable'
PUBLIC	??_R4CEditableListCtrl@@6B@			; CEditableListCtrl::`RTTI Complete Object Locator'
PUBLIC	??_R0?AVCEditableListCtrl@@@8			; CEditableListCtrl `RTTI Type Descriptor'
PUBLIC	??_R3CEditableListCtrl@@8			; CEditableListCtrl::`RTTI Class Hierarchy Descriptor'
PUBLIC	??_R2CEditableListCtrl@@8			; CEditableListCtrl::`RTTI Base Class Array'
PUBLIC	??_R1A@?0A@EA@CEditableListCtrl@@8		; CEditableListCtrl::`RTTI Base Class Descriptor at (0,-1,0,64)'
EXTRN	??2@YAPAXI@Z:PROC				; operator new
EXTRN	??3@YAXPAX@Z:PROC				; operator delete
EXTRN	?__global_delete@@YAXPAXI@Z:PROC		; __global_delete
EXTRN	__imp__RegisterWindowMessageA@4:PROC
EXTRN	__imp__SendMessageA@16:PROC
EXTRN	__imp__EnableWindow@8:PROC
EXTRN	__imp__InvalidateRect@12:PROC
EXTRN	__imp__GetClientRect@8:PROC
EXTRN	__imp__GetCursorPos@4:PROC
EXTRN	__imp__ScreenToClient@8:PROC
EXTRN	?AfxThrowInvalidArgException@@YGXXZ:PROC	; AfxThrowInvalidArgException
EXTRN	__imp_??1?$CStringT@DV?$StrTraitMFC_DLL@DV?$ChTraitsCRT@D@ATL@@@@@ATL@@QAE@XZ:PROC
EXTRN	??0CByteArray@@QAE@XZ:PROC			; CByteArray::CByteArray
EXTRN	??1CByteArray@@UAE@XZ:PROC			; CByteArray::~CByteArray
EXTRN	?FromHandle@CGdiObject@@SGPAV1@PAX@Z:PROC	; CGdiObject::FromHandle
EXTRN	?OnCmdMsg@CCmdTarget@@UAEHIHPAXPAUAFX_CMDHANDLERINFO@@@Z:PROC ; CCmdTarget::OnCmdMsg
EXTRN	?IsInvokeAllowed@CCmdTarget@@UAEHJ@Z:PROC	; CCmdTarget::IsInvokeAllowed
EXTRN	?GetDispatchIID@CCmdTarget@@UAEHPAU_GUID@@@Z:PROC ; CCmdTarget::GetDispatchIID
EXTRN	?GetTypeInfoCount@CCmdTarget@@UAEIXZ:PROC	; CCmdTarget::GetTypeInfoCount
EXTRN	?GetTypeLibCache@CCmdTarget@@UAEPAVCTypeLibCache@@XZ:PROC ; CCmdTarget::GetTypeLibCache
EXTRN	?GetTypeLib@CCmdTarget@@UAEJKPAPAUITypeLib@@@Z:PROC ; CCmdTarget::GetTypeLib
EXTRN	?GetCommandMap@CCmdTarget@@MBEPBUAFX_OLECMDMAP@@XZ:PROC ; CCmdTarget::GetCommandMap
EXTRN	?GetDispatchMap@CCmdTarget@@MBEPBUAFX_DISPMAP@@XZ:PROC ; CCmdTarget::GetDispatchMap
EXTRN	?GetConnectionMap@CCmdTarget@@MBEPBUAFX_CONNECTIONMAP@@XZ:PROC ; CCmdTarget::GetConnectionMap
EXTRN	?GetEventSinkMap@CCmdTarget@@MBEPBUAFX_EVENTSINKMAP@@XZ:PROC ; CCmdTarget::GetEventSinkMap
EXTRN	?OnCreateAggregates@CCmdTarget@@UAEHXZ:PROC	; CCmdTarget::OnCreateAggregates
EXTRN	?GetInterfaceHook@CCmdTarget@@UAEPAUIUnknown@@PBX@Z:PROC ; CCmdTarget::GetInterfaceHook
EXTRN	?GetExtraConnectionPoints@CCmdTarget@@MAEHPAVCPtrArray@@@Z:PROC ; CCmdTarget::GetExtraConnectionPoints
EXTRN	?GetConnectionHook@CCmdTarget@@MAEPAUIConnectionPoint@@ABU_GUID@@@Z:PROC ; CCmdTarget::GetConnectionHook
EXTRN	?ModifyStyle@CWnd@@QAEHKKI@Z:PROC		; CWnd::ModifyStyle
EXTRN	??0CWnd@@QAE@XZ:PROC				; CWnd::CWnd
EXTRN	?PreSubclassWindow@CWnd@@UAEXXZ:PROC		; CWnd::PreSubclassWindow
EXTRN	?Create@CWnd@@UAEHPBD0KABUtagRECT@@PAV1@IPAUCCreateContext@@@Z:PROC ; CWnd::Create
EXTRN	?CreateEx@CWnd@@UAEHKPBD0KHHHHPAUHWND__@@PAUHMENU__@@PAX@Z:PROC ; CWnd::CreateEx
EXTRN	?CreateEx@CWnd@@UAEHKPBD0KABUtagRECT@@PAV1@IPAX@Z:PROC ; CWnd::CreateEx
EXTRN	?DestroyWindow@CWnd@@UAEHXZ:PROC		; CWnd::DestroyWindow
EXTRN	?PreCreateWindow@CWnd@@UAEHAAUtagCREATESTRUCTA@@@Z:PROC ; CWnd::PreCreateWindow
EXTRN	?CalcWindowRect@CWnd@@UAEXPAUtagRECT@@I@Z:PROC	; CWnd::CalcWindowRect
EXTRN	?SetWindowTextA@CWnd@@QAEXPBD@Z:PROC		; CWnd::SetWindowTextA
EXTRN	?GetMenu@CWnd@@UBEPAVCMenu@@XZ:PROC		; CWnd::GetMenu
EXTRN	?SetMenu@CWnd@@UAEHPAVCMenu@@@Z:PROC		; CWnd::SetMenu
EXTRN	?MoveWindow@CWnd@@QAEXHHHHH@Z:PROC		; CWnd::MoveWindow
EXTRN	?ShowWindow@CWnd@@QAEHH@Z:PROC			; CWnd::ShowWindow
EXTRN	?OnToolHitTest@CWnd@@UBEHVCPoint@@PAUtagTOOLINFOA@@@Z:PROC ; CWnd::OnToolHitTest
EXTRN	?SetFocus@CWnd@@QAEPAV1@XZ:PROC			; CWnd::SetFocus
EXTRN	?GetScrollBarCtrl@CWnd@@UBEPAVCScrollBar@@H@Z:PROC ; CWnd::GetScrollBarCtrl
EXTRN	?WinHelpA@CWnd@@UAEXKI@Z:PROC			; CWnd::WinHelpA
EXTRN	?HtmlHelpA@CWnd@@UAEXKI@Z:PROC			; CWnd::HtmlHelpA
EXTRN	?WinHelpInternal@CWnd@@UAEXKI@Z:PROC		; CWnd::WinHelpInternal
EXTRN	?ContinueModal@CWnd@@UAEHXZ:PROC		; CWnd::ContinueModal
EXTRN	?EndModalLoop@CWnd@@UAEXH@Z:PROC		; CWnd::EndModalLoop
EXTRN	?OnDrawIconicThumbnailOrLivePreview@CWnd@@UAEXAAVCDC@@VCRect@@VCSize@@HAAH@Z:PROC ; CWnd::OnDrawIconicThumbnailOrLivePreview
EXTRN	?GetInterfaceMap@CWnd@@MBEPBUAFX_INTERFACEMAP@@XZ:PROC ; CWnd::GetInterfaceMap
EXTRN	?EnsureStdObj@CWnd@@UAEJXZ:PROC			; CWnd::EnsureStdObj
EXTRN	?get_accParent@CWnd@@UAEJPAPAUIDispatch@@@Z:PROC ; CWnd::get_accParent
EXTRN	?get_accChildCount@CWnd@@UAEJPAJ@Z:PROC		; CWnd::get_accChildCount
EXTRN	?get_accChild@CWnd@@UAEJUtagVARIANT@@PAPAUIDispatch@@@Z:PROC ; CWnd::get_accChild
EXTRN	?get_accName@CWnd@@UAEJUtagVARIANT@@PAPA_W@Z:PROC ; CWnd::get_accName
EXTRN	?get_accValue@CWnd@@UAEJUtagVARIANT@@PAPA_W@Z:PROC ; CWnd::get_accValue
EXTRN	?get_accDescription@CWnd@@UAEJUtagVARIANT@@PAPA_W@Z:PROC ; CWnd::get_accDescription
EXTRN	?get_accRole@CWnd@@UAEJUtagVARIANT@@PAU2@@Z:PROC ; CWnd::get_accRole
EXTRN	?get_accState@CWnd@@UAEJUtagVARIANT@@PAU2@@Z:PROC ; CWnd::get_accState
EXTRN	?get_accHelp@CWnd@@UAEJUtagVARIANT@@PAPA_W@Z:PROC ; CWnd::get_accHelp
EXTRN	?get_accHelpTopic@CWnd@@UAEJPAPA_WUtagVARIANT@@PAJ@Z:PROC ; CWnd::get_accHelpTopic
EXTRN	?get_accKeyboardShortcut@CWnd@@UAEJUtagVARIANT@@PAPA_W@Z:PROC ; CWnd::get_accKeyboardShortcut
EXTRN	?get_accFocus@CWnd@@UAEJPAUtagVARIANT@@@Z:PROC	; CWnd::get_accFocus
EXTRN	?get_accSelection@CWnd@@UAEJPAUtagVARIANT@@@Z:PROC ; CWnd::get_accSelection
EXTRN	?get_accDefaultAction@CWnd@@UAEJUtagVARIANT@@PAPA_W@Z:PROC ; CWnd::get_accDefaultAction
EXTRN	?accSelect@CWnd@@UAEJJUtagVARIANT@@@Z:PROC	; CWnd::accSelect
EXTRN	?accLocation@CWnd@@UAEJPAJ000UtagVARIANT@@@Z:PROC ; CWnd::accLocation
EXTRN	?accNavigate@CWnd@@UAEJJUtagVARIANT@@PAU2@@Z:PROC ; CWnd::accNavigate
EXTRN	?accHitTest@CWnd@@UAEJJJPAUtagVARIANT@@@Z:PROC	; CWnd::accHitTest
EXTRN	?accDoDefaultAction@CWnd@@UAEJUtagVARIANT@@@Z:PROC ; CWnd::accDoDefaultAction
EXTRN	?put_accName@CWnd@@UAEJUtagVARIANT@@PA_W@Z:PROC	; CWnd::put_accName
EXTRN	?put_accValue@CWnd@@UAEJUtagVARIANT@@PA_W@Z:PROC ; CWnd::put_accValue
EXTRN	?SetProxy@CWnd@@UAEJPAUIAccessibleProxy@@@Z:PROC ; CWnd::SetProxy
EXTRN	?CreateAccessibleProxy@CWnd@@UAEJIJPAJ@Z:PROC	; CWnd::CreateAccessibleProxy
EXTRN	?OnCommand@CWnd@@MAEHIJ@Z:PROC			; CWnd::OnCommand
EXTRN	?OnNotify@CWnd@@MAEHIJPAJ@Z:PROC		; CWnd::OnNotify
EXTRN	?OnHScroll@CWnd@@IAEXIIPAVCScrollBar@@@Z:PROC	; CWnd::OnHScroll
EXTRN	?OnVScroll@CWnd@@IAEXIIPAVCScrollBar@@@Z:PROC	; CWnd::OnVScroll
EXTRN	?GetSuperWndProcAddr@CWnd@@MAEPAP6GJPAUHWND__@@IIJ@ZXZ:PROC ; CWnd::GetSuperWndProcAddr
EXTRN	?PreTranslateMessage@CWnd@@UAEHPAUtagMSG@@@Z:PROC ; CWnd::PreTranslateMessage
EXTRN	?OnAmbientProperty@CWnd@@UAEHPAVCOleControlSite@@JPAUtagVARIANT@@@Z:PROC ; CWnd::OnAmbientProperty
EXTRN	?WindowProc@CWnd@@MAEJIIJ@Z:PROC		; CWnd::WindowProc
EXTRN	?OnWndMsg@CWnd@@MAEHIIJPAJ@Z:PROC		; CWnd::OnWndMsg
EXTRN	?Default@CWnd@@IAEJXZ:PROC			; CWnd::Default
EXTRN	?DefWindowProcA@CWnd@@MAEJIIJ@Z:PROC		; CWnd::DefWindowProcA
EXTRN	?PostNcDestroy@CWnd@@MAEXXZ:PROC		; CWnd::PostNcDestroy
EXTRN	?OnTouchInputs@CWnd@@MAEHIPAUtagTOUCHINPUT@@@Z:PROC ; CWnd::OnTouchInputs
EXTRN	?OnTouchInput@CWnd@@MAEHVCPoint@@HHPAUtagTOUCHINPUT@@@Z:PROC ; CWnd::OnTouchInput
EXTRN	?GetGestureStatus@CWnd@@MAEKVCPoint@@@Z:PROC	; CWnd::GetGestureStatus
EXTRN	?OnGestureZoom@CWnd@@MAEHVCPoint@@J@Z:PROC	; CWnd::OnGestureZoom
EXTRN	?OnGesturePan@CWnd@@MAEHVCPoint@@0@Z:PROC	; CWnd::OnGesturePan
EXTRN	?OnGestureRotate@CWnd@@MAEHVCPoint@@N@Z:PROC	; CWnd::OnGestureRotate
EXTRN	?OnGestureTwoFingerTap@CWnd@@MAEHVCPoint@@@Z:PROC ; CWnd::OnGestureTwoFingerTap
EXTRN	?OnGesturePressAndTap@CWnd@@MAEHVCPoint@@J@Z:PROC ; CWnd::OnGesturePressAndTap
EXTRN	?ResizeDynamicLayout@CWnd@@MAEXXZ:PROC		; CWnd::ResizeDynamicLayout
EXTRN	?CheckAutoCenter@CWnd@@UAEHXZ:PROC		; CWnd::CheckAutoCenter
EXTRN	?IsFrameWnd@CWnd@@UBEHXZ:PROC			; CWnd::IsFrameWnd
EXTRN	?OnFinalRelease@CWnd@@UAEXXZ:PROC		; CWnd::OnFinalRelease
EXTRN	?CreateControlContainer@CWnd@@MAEHPAPAVCOleControlContainer@@@Z:PROC ; CWnd::CreateControlContainer
EXTRN	?CreateControlSite@CWnd@@MAEHPAVCOleControlContainer@@PAPAVCOleControlSite@@IABU_GUID@@@Z:PROC ; CWnd::CreateControlSite
EXTRN	?SetOccDialogInfo@CWnd@@MAEHPAU_AFX_OCC_DIALOG_INFO@@@Z:PROC ; CWnd::SetOccDialogInfo
EXTRN	?GetOccDialogInfo@CWnd@@MAEPAU_AFX_OCC_DIALOG_INFO@@XZ:PROC ; CWnd::GetOccDialogInfo
EXTRN	?GetRuntimeClass@CListCtrl@@UBEPAUCRuntimeClass@@XZ:PROC ; CListCtrl::GetRuntimeClass
EXTRN	?GetItemText@CListCtrl@@QBE?AV?$CStringT@DV?$StrTraitMFC_DLL@DV?$ChTraitsCRT@D@ATL@@@@@ATL@@HH@Z:PROC ; CListCtrl::GetItemText
EXTRN	?GetSubItemRect@CListCtrl@@QBEHHHHAAVCRect@@@Z:PROC ; CListCtrl::GetSubItemRect
EXTRN	?DrawItem@CListCtrl@@UAEXPAUtagDRAWITEMSTRUCT@@@Z:PROC ; CListCtrl::DrawItem
EXTRN	??1CListCtrl@@UAE@XZ:PROC			; CListCtrl::~CListCtrl
EXTRN	?OnChildNotify@CListCtrl@@MAEHIIJPAJ@Z:PROC	; CListCtrl::OnChildNotify
EXTRN	?GetThisMessageMap@CListCtrl@@KGPBUAFX_MSGMAP@@XZ:PROC ; CListCtrl::GetThisMessageMap
EXTRN	?GetMessageMap@CListCtrl@@MBEPBUAFX_MSGMAP@@XZ:PROC ; CListCtrl::GetMessageMap
EXTRN	??_ECListCtrl@@UAEPAXI@Z:PROC			; CListCtrl::`vector deleting destructor'
EXTRN	??_ECEditableListCtrl@@UAEPAXI@Z:PROC		; CEditableListCtrl::`vector deleting destructor'
EXTRN	??0CLVEdit@@QAE@XZ:PROC				; CLVEdit::CLVEdit
EXTRN	@__security_check_cookie@4:PROC
EXTRN	___CxxFrameHandler3:PROC
EXTRN	??_7type_info@@6B@:QWORD			; type_info::`vftable'
EXTRN	___security_cookie:DWORD
_BSS	SEGMENT
?RMSG_ELC_CELLEDITED@@3IB DD 01H DUP (?)		; RMSG_ELC_CELLEDITED
_BSS	ENDS
CRT$XCU	SEGMENT
?RMSG_ELC_CELLEDITED$initializer$@@3P6AXXZA DD FLAT:??__ERMSG_ELC_CELLEDITED@@YAXXZ ; RMSG_ELC_CELLEDITED$initializer$
CRT$XCU	ENDS
;	COMDAT ??_R1A@?0A@EA@CEditableListCtrl@@8
rdata$r	SEGMENT
??_R1A@?0A@EA@CEditableListCtrl@@8 DD FLAT:??_R0?AVCEditableListCtrl@@@8 ; CEditableListCtrl::`RTTI Base Class Descriptor at (0,-1,0,64)'
	DD	04H
	DD	00H
	DD	0ffffffffH
	DD	00H
	DD	040H
	DD	FLAT:??_R3CEditableListCtrl@@8
rdata$r	ENDS
;	COMDAT ??_R2CEditableListCtrl@@8
rdata$r	SEGMENT
??_R2CEditableListCtrl@@8 DD FLAT:??_R1A@?0A@EA@CEditableListCtrl@@8 ; CEditableListCtrl::`RTTI Base Class Array'
	DD	FLAT:??_R1A@?0A@EA@CListCtrl@@8
	DD	FLAT:??_R1A@?0A@EA@CWnd@@8
	DD	FLAT:??_R1A@?0A@EA@CCmdTarget@@8
	DD	FLAT:??_R1A@?0A@EA@CObject@@8
rdata$r	ENDS
;	COMDAT ??_R3CEditableListCtrl@@8
rdata$r	SEGMENT
??_R3CEditableListCtrl@@8 DD 00H			; CEditableListCtrl::`RTTI Class Hierarchy Descriptor'
	DD	00H
	DD	05H
	DD	FLAT:??_R2CEditableListCtrl@@8
rdata$r	ENDS
;	COMDAT ??_R0?AVCEditableListCtrl@@@8
data$rs	SEGMENT
??_R0?AVCEditableListCtrl@@@8 DD FLAT:??_7type_info@@6B@ ; CEditableListCtrl `RTTI Type Descriptor'
	DD	00H
	DB	'.?AVCEditableListCtrl@@', 00H
data$rs	ENDS
;	COMDAT ??_R4CEditableListCtrl@@6B@
rdata$r	SEGMENT
??_R4CEditableListCtrl@@6B@ DD 00H			; CEditableListCtrl::`RTTI Complete Object Locator'
	DD	00H
	DD	00H
	DD	FLAT:??_R0?AVCEditableListCtrl@@@8
	DD	FLAT:??_R3CEditableListCtrl@@8
rdata$r	ENDS
;	COMDAT ?messageMap@?1??GetThisMessageMap@CEditableListCtrl@@KGPBUAFX_MSGMAP@@XZ@4U3@B
CONST	SEGMENT
?messageMap@?1??GetThisMessageMap@CEditableListCtrl@@KGPBUAFX_MSGMAP@@XZ@4U3@B DD FLAT:?GetThisMessageMap@CListCtrl@@KGPBUAFX_MSGMAP@@XZ ; `CEditableListCtrl::GetThisMessageMap'::`2'::messageMap
	DD	FLAT:?_messageEntries@?1??GetThisMessageMap@CEditableListCtrl@@KGPBUAFX_MSGMAP@@XZ@4QBUAFX_MSGMAP_ENTRY@@B
CONST	ENDS
;	COMDAT ?_messageEntries@?1??GetThisMessageMap@CEditableListCtrl@@KGPBUAFX_MSGMAP@@XZ@4QBUAFX_MSGMAP_ENTRY@@B
CONST	SEGMENT
?_messageEntries@?1??GetThisMessageMap@CEditableListCtrl@@KGPBUAFX_MSGMAP@@XZ@4QBUAFX_MSGMAP_ENTRY@@B DD 0203H ; `CEditableListCtrl::GetThisMessageMap'::`2'::_messageEntries
	DD	00H
	DD	00H
	DD	00H
	DD	036H
	DD	FLAT:?OnLButtonDblClk@CEditableListCtrl@@IAEXIVCPoint@@@Z
	DD	0bc4eH
	DD	0ff97H
	DD	00H
	DD	00H
	DD	03eH
	DD	FLAT:?OnBeginlabeledit@CEditableListCtrl@@IAEXPAUtagNMHDR@@PAJ@Z
	DD	0100H
	DD	00H
	DD	00H
	DD	00H
	DD	019H
	DD	FLAT:?OnKeyDown@CEditableListCtrl@@IAEXIII@Z
	DD	0115H
	DD	00H
	DD	00H
	DD	00H
	DD	02bH
	DD	FLAT:?OnVScroll@CEditableListCtrl@@IAEXIIPAVCScrollBar@@@Z
	DD	0114H
	DD	00H
	DD	00H
	DD	00H
	DD	02bH
	DD	FLAT:?OnHScroll@CEditableListCtrl@@IAEXIIPAVCScrollBar@@@Z
	DD	020aH
	DD	00H
	DD	00H
	DD	00H
	DD	038H
	DD	FLAT:?OnMouseWheel@CEditableListCtrl@@IAEHIFVCPoint@@@Z
	DD	00H
	DD	00H
	DD	00H
	DD	00H
	DD	00H
	DD	00H
CONST	ENDS
;	COMDAT ??_7CEditableListCtrl@@6B@
CONST	SEGMENT
??_7CEditableListCtrl@@6B@ DD FLAT:??_R4CEditableListCtrl@@6B@ ; CEditableListCtrl::`vftable'
	DD	FLAT:?GetRuntimeClass@CListCtrl@@UBEPAUCRuntimeClass@@XZ
	DD	FLAT:??_ECEditableListCtrl@@UAEPAXI@Z
	DD	FLAT:?Serialize@CObject@@UAEXAAVCArchive@@@Z
	DD	FLAT:?AssertValid@CObject@@UBEXXZ
	DD	FLAT:?Dump@CObject@@UBEXAAVCDumpContext@@@Z
	DD	FLAT:?OnCmdMsg@CCmdTarget@@UAEHIHPAXPAUAFX_CMDHANDLERINFO@@@Z
	DD	FLAT:?OnFinalRelease@CWnd@@UAEXXZ
	DD	FLAT:?IsInvokeAllowed@CCmdTarget@@UAEHJ@Z
	DD	FLAT:?GetDispatchIID@CCmdTarget@@UAEHPAU_GUID@@@Z
	DD	FLAT:?GetTypeInfoCount@CCmdTarget@@UAEIXZ
	DD	FLAT:?GetTypeLibCache@CCmdTarget@@UAEPAVCTypeLibCache@@XZ
	DD	FLAT:?GetTypeLib@CCmdTarget@@UAEJKPAPAUITypeLib@@@Z
	DD	FLAT:?GetMessageMap@CEditableListCtrl@@MBEPBUAFX_MSGMAP@@XZ
	DD	FLAT:?GetCommandMap@CCmdTarget@@MBEPBUAFX_OLECMDMAP@@XZ
	DD	FLAT:?GetDispatchMap@CCmdTarget@@MBEPBUAFX_DISPMAP@@XZ
	DD	FLAT:?GetConnectionMap@CCmdTarget@@MBEPBUAFX_CONNECTIONMAP@@XZ
	DD	FLAT:?GetInterfaceMap@CWnd@@MBEPBUAFX_INTERFACEMAP@@XZ
	DD	FLAT:?GetEventSinkMap@CCmdTarget@@MBEPBUAFX_EVENTSINKMAP@@XZ
	DD	FLAT:?OnCreateAggregates@CCmdTarget@@UAEHXZ
	DD	FLAT:?GetInterfaceHook@CCmdTarget@@UAEPAUIUnknown@@PBX@Z
	DD	FLAT:?GetExtraConnectionPoints@CCmdTarget@@MAEHPAVCPtrArray@@@Z
	DD	FLAT:?GetConnectionHook@CCmdTarget@@MAEPAUIConnectionPoint@@ABU_GUID@@@Z
	DD	FLAT:?PreSubclassWindow@CEditableListCtrl@@MAEXXZ
	DD	FLAT:?Create@CWnd@@UAEHPBD0KABUtagRECT@@PAV1@IPAUCCreateContext@@@Z
	DD	FLAT:?CreateEx@CWnd@@UAEHKPBD0KABUtagRECT@@PAV1@IPAX@Z
	DD	FLAT:?CreateEx@CWnd@@UAEHKPBD0KHHHHPAUHWND__@@PAUHMENU__@@PAX@Z
	DD	FLAT:?DestroyWindow@CWnd@@UAEHXZ
	DD	FLAT:?PreCreateWindow@CWnd@@UAEHAAUtagCREATESTRUCTA@@@Z
	DD	FLAT:?CalcWindowRect@CWnd@@UAEXPAUtagRECT@@I@Z
	DD	FLAT:?GetMenu@CWnd@@UBEPAVCMenu@@XZ
	DD	FLAT:?SetMenu@CWnd@@UAEHPAVCMenu@@@Z
	DD	FLAT:?OnToolHitTest@CWnd@@UBEHVCPoint@@PAUtagTOOLINFOA@@@Z
	DD	FLAT:?GetScrollBarCtrl@CWnd@@UBEPAVCScrollBar@@H@Z
	DD	FLAT:?WinHelpA@CWnd@@UAEXKI@Z
	DD	FLAT:?HtmlHelpA@CWnd@@UAEXKI@Z
	DD	FLAT:?WinHelpInternal@CWnd@@UAEXKI@Z
	DD	FLAT:?ContinueModal@CWnd@@UAEHXZ
	DD	FLAT:?EndModalLoop@CWnd@@UAEXH@Z
	DD	FLAT:?OnDrawIconicThumbnailOrLivePreview@CWnd@@UAEXAAVCDC@@VCRect@@VCSize@@HAAH@Z
	DD	FLAT:?EnsureStdObj@CWnd@@UAEJXZ
	DD	FLAT:?get_accParent@CWnd@@UAEJPAPAUIDispatch@@@Z
	DD	FLAT:?get_accChildCount@CWnd@@UAEJPAJ@Z
	DD	FLAT:?get_accChild@CWnd@@UAEJUtagVARIANT@@PAPAUIDispatch@@@Z
	DD	FLAT:?get_accName@CWnd@@UAEJUtagVARIANT@@PAPA_W@Z
	DD	FLAT:?get_accValue@CWnd@@UAEJUtagVARIANT@@PAPA_W@Z
	DD	FLAT:?get_accDescription@CWnd@@UAEJUtagVARIANT@@PAPA_W@Z
	DD	FLAT:?get_accRole@CWnd@@UAEJUtagVARIANT@@PAU2@@Z
	DD	FLAT:?get_accState@CWnd@@UAEJUtagVARIANT@@PAU2@@Z
	DD	FLAT:?get_accHelp@CWnd@@UAEJUtagVARIANT@@PAPA_W@Z
	DD	FLAT:?get_accHelpTopic@CWnd@@UAEJPAPA_WUtagVARIANT@@PAJ@Z
	DD	FLAT:?get_accKeyboardShortcut@CWnd@@UAEJUtagVARIANT@@PAPA_W@Z
	DD	FLAT:?get_accFocus@CWnd@@UAEJPAUtagVARIANT@@@Z
	DD	FLAT:?get_accSelection@CWnd@@UAEJPAUtagVARIANT@@@Z
	DD	FLAT:?get_accDefaultAction@CWnd@@UAEJUtagVARIANT@@PAPA_W@Z
	DD	FLAT:?accSelect@CWnd@@UAEJJUtagVARIANT@@@Z
	DD	FLAT:?accLocation@CWnd@@UAEJPAJ000UtagVARIANT@@@Z
	DD	FLAT:?accNavigate@CWnd@@UAEJJUtagVARIANT@@PAU2@@Z
	DD	FLAT:?accHitTest@CWnd@@UAEJJJPAUtagVARIANT@@@Z
	DD	FLAT:?accDoDefaultAction@CWnd@@UAEJUtagVARIANT@@@Z
	DD	FLAT:?put_accName@CWnd@@UAEJUtagVARIANT@@PA_W@Z
	DD	FLAT:?put_accValue@CWnd@@UAEJUtagVARIANT@@PA_W@Z
	DD	FLAT:?SetProxy@CWnd@@UAEJPAUIAccessibleProxy@@@Z
	DD	FLAT:?CreateAccessibleProxy@CWnd@@UAEJIJPAJ@Z
	DD	FLAT:?OnCommand@CWnd@@MAEHIJ@Z
	DD	FLAT:?OnNotify@CWnd@@MAEHIJPAJ@Z
	DD	FLAT:?GetSuperWndProcAddr@CWnd@@MAEPAP6GJPAUHWND__@@IIJ@ZXZ
	DD	FLAT:?DoDataExchange@CWnd@@MAEXPAVCDataExchange@@@Z
	DD	FLAT:?BeginModalState@CWnd@@UAEXXZ
	DD	FLAT:?EndModalState@CWnd@@UAEXXZ
	DD	FLAT:?PreTranslateMessage@CEditableListCtrl@@UAEHPAUtagMSG@@@Z
	DD	FLAT:?OnAmbientProperty@CWnd@@UAEHPAVCOleControlSite@@JPAUtagVARIANT@@@Z
	DD	FLAT:?WindowProc@CWnd@@MAEJIIJ@Z
	DD	FLAT:?OnWndMsg@CWnd@@MAEHIIJPAJ@Z
	DD	FLAT:?DefWindowProcA@CWnd@@MAEJIIJ@Z
	DD	FLAT:?PostNcDestroy@CWnd@@MAEXXZ
	DD	FLAT:?OnChildNotify@CListCtrl@@MAEHIIJPAJ@Z
	DD	FLAT:?OnTouchInputs@CWnd@@MAEHIPAUtagTOUCHINPUT@@@Z
	DD	FLAT:?OnTouchInput@CWnd@@MAEHVCPoint@@HHPAUtagTOUCHINPUT@@@Z
	DD	FLAT:?GetGestureStatus@CWnd@@MAEKVCPoint@@@Z
	DD	FLAT:?OnGestureZoom@CWnd@@MAEHVCPoint@@J@Z
	DD	FLAT:?OnGesturePan@CWnd@@MAEHVCPoint@@0@Z
	DD	FLAT:?OnGestureRotate@CWnd@@MAEHVCPoint@@N@Z
	DD	FLAT:?OnGestureTwoFingerTap@CWnd@@MAEHVCPoint@@@Z
	DD	FLAT:?OnGesturePressAndTap@CWnd@@MAEHVCPoint@@J@Z
	DD	FLAT:?ResizeDynamicLayout@CWnd@@MAEXXZ
	DD	FLAT:?CheckAutoCenter@CWnd@@UAEHXZ
	DD	FLAT:?IsFrameWnd@CWnd@@UBEHXZ
	DD	FLAT:?CreateControlContainer@CWnd@@MAEHPAPAVCOleControlContainer@@@Z
	DD	FLAT:?CreateControlSite@CWnd@@MAEHPAVCOleControlContainer@@PAPAVCOleControlSite@@IABU_GUID@@@Z
	DD	FLAT:?SetOccDialogInfo@CWnd@@MAEHPAU_AFX_OCC_DIALOG_INFO@@@Z
	DD	FLAT:?GetOccDialogInfo@CWnd@@MAEPAU_AFX_OCC_DIALOG_INFO@@XZ
	DD	FLAT:?DrawItem@CListCtrl@@UAEXPAUtagDRAWITEMSTRUCT@@@Z
	DD	FLAT:?EditSubItem@CEditableListCtrl@@UAEHHH@Z
CONST	ENDS
;	COMDAT ??_R1A@?0A@EA@CListCtrl@@8
rdata$r	SEGMENT
??_R1A@?0A@EA@CListCtrl@@8 DD FLAT:??_R0?AVCListCtrl@@@8 ; CListCtrl::`RTTI Base Class Descriptor at (0,-1,0,64)'
	DD	03H
	DD	00H
	DD	0ffffffffH
	DD	00H
	DD	040H
	DD	FLAT:??_R3CListCtrl@@8
rdata$r	ENDS
;	COMDAT ??_R2CListCtrl@@8
rdata$r	SEGMENT
??_R2CListCtrl@@8 DD FLAT:??_R1A@?0A@EA@CListCtrl@@8	; CListCtrl::`RTTI Base Class Array'
	DD	FLAT:??_R1A@?0A@EA@CWnd@@8
	DD	FLAT:??_R1A@?0A@EA@CCmdTarget@@8
	DD	FLAT:??_R1A@?0A@EA@CObject@@8
rdata$r	ENDS
;	COMDAT ??_R3CListCtrl@@8
rdata$r	SEGMENT
??_R3CListCtrl@@8 DD 00H				; CListCtrl::`RTTI Class Hierarchy Descriptor'
	DD	00H
	DD	04H
	DD	FLAT:??_R2CListCtrl@@8
rdata$r	ENDS
;	COMDAT ??_R0?AVCListCtrl@@@8
data$rs	SEGMENT
??_R0?AVCListCtrl@@@8 DD FLAT:??_7type_info@@6B@	; CListCtrl `RTTI Type Descriptor'
	DD	00H
	DB	'.?AVCListCtrl@@', 00H
data$rs	ENDS
;	COMDAT ??_R4CListCtrl@@6B@
rdata$r	SEGMENT
??_R4CListCtrl@@6B@ DD 00H				; CListCtrl::`RTTI Complete Object Locator'
	DD	00H
	DD	00H
	DD	FLAT:??_R0?AVCListCtrl@@@8
	DD	FLAT:??_R3CListCtrl@@8
rdata$r	ENDS
;	COMDAT ??_R2CCmdTarget@@8
rdata$r	SEGMENT
??_R2CCmdTarget@@8 DD FLAT:??_R1A@?0A@EA@CCmdTarget@@8	; CCmdTarget::`RTTI Base Class Array'
	DD	FLAT:??_R1A@?0A@EA@CObject@@8
rdata$r	ENDS
;	COMDAT ??_R3CCmdTarget@@8
rdata$r	SEGMENT
??_R3CCmdTarget@@8 DD 00H				; CCmdTarget::`RTTI Class Hierarchy Descriptor'
	DD	00H
	DD	02H
	DD	FLAT:??_R2CCmdTarget@@8
rdata$r	ENDS
;	COMDAT ??_R0?AVCCmdTarget@@@8
data$rs	SEGMENT
??_R0?AVCCmdTarget@@@8 DD FLAT:??_7type_info@@6B@	; CCmdTarget `RTTI Type Descriptor'
	DD	00H
	DB	'.?AVCCmdTarget@@', 00H
data$rs	ENDS
;	COMDAT ??_R1A@?0A@EA@CCmdTarget@@8
rdata$r	SEGMENT
??_R1A@?0A@EA@CCmdTarget@@8 DD FLAT:??_R0?AVCCmdTarget@@@8 ; CCmdTarget::`RTTI Base Class Descriptor at (0,-1,0,64)'
	DD	01H
	DD	00H
	DD	0ffffffffH
	DD	00H
	DD	040H
	DD	FLAT:??_R3CCmdTarget@@8
rdata$r	ENDS
;	COMDAT ??_R2CWnd@@8
rdata$r	SEGMENT
??_R2CWnd@@8 DD	FLAT:??_R1A@?0A@EA@CWnd@@8		; CWnd::`RTTI Base Class Array'
	DD	FLAT:??_R1A@?0A@EA@CCmdTarget@@8
	DD	FLAT:??_R1A@?0A@EA@CObject@@8
rdata$r	ENDS
;	COMDAT ??_R3CWnd@@8
rdata$r	SEGMENT
??_R3CWnd@@8 DD	00H					; CWnd::`RTTI Class Hierarchy Descriptor'
	DD	00H
	DD	03H
	DD	FLAT:??_R2CWnd@@8
rdata$r	ENDS
;	COMDAT ??_R0?AVCWnd@@@8
data$rs	SEGMENT
??_R0?AVCWnd@@@8 DD FLAT:??_7type_info@@6B@		; CWnd `RTTI Type Descriptor'
	DD	00H
	DB	'.?AVCWnd@@', 00H
data$rs	ENDS
;	COMDAT ??_R1A@?0A@EA@CWnd@@8
rdata$r	SEGMENT
??_R1A@?0A@EA@CWnd@@8 DD FLAT:??_R0?AVCWnd@@@8		; CWnd::`RTTI Base Class Descriptor at (0,-1,0,64)'
	DD	02H
	DD	00H
	DD	0ffffffffH
	DD	00H
	DD	040H
	DD	FLAT:??_R3CWnd@@8
rdata$r	ENDS
;	COMDAT ??_R1A@?0A@EA@CObject@@8
rdata$r	SEGMENT
??_R1A@?0A@EA@CObject@@8 DD FLAT:??_R0?AVCObject@@@8	; CObject::`RTTI Base Class Descriptor at (0,-1,0,64)'
	DD	00H
	DD	00H
	DD	0ffffffffH
	DD	00H
	DD	040H
	DD	FLAT:??_R3CObject@@8
rdata$r	ENDS
;	COMDAT ??_R2CObject@@8
rdata$r	SEGMENT
??_R2CObject@@8 DD FLAT:??_R1A@?0A@EA@CObject@@8	; CObject::`RTTI Base Class Array'
rdata$r	ENDS
;	COMDAT ??_R3CObject@@8
rdata$r	SEGMENT
??_R3CObject@@8 DD 00H					; CObject::`RTTI Class Hierarchy Descriptor'
	DD	00H
	DD	01H
	DD	FLAT:??_R2CObject@@8
rdata$r	ENDS
;	COMDAT ??_R0?AVCObject@@@8
data$rs	SEGMENT
??_R0?AVCObject@@@8 DD FLAT:??_7type_info@@6B@		; CObject `RTTI Type Descriptor'
	DD	00H
	DB	'.?AVCObject@@', 00H
data$rs	ENDS
;	COMDAT ??_7CListCtrl@@6B@
CONST	SEGMENT
??_7CListCtrl@@6B@ DD FLAT:??_R4CListCtrl@@6B@		; CListCtrl::`vftable'
	DD	FLAT:?GetRuntimeClass@CListCtrl@@UBEPAUCRuntimeClass@@XZ
	DD	FLAT:??_ECListCtrl@@UAEPAXI@Z
	DD	FLAT:?Serialize@CObject@@UAEXAAVCArchive@@@Z
	DD	FLAT:?AssertValid@CObject@@UBEXXZ
	DD	FLAT:?Dump@CObject@@UBEXAAVCDumpContext@@@Z
	DD	FLAT:?OnCmdMsg@CCmdTarget@@UAEHIHPAXPAUAFX_CMDHANDLERINFO@@@Z
	DD	FLAT:?OnFinalRelease@CWnd@@UAEXXZ
	DD	FLAT:?IsInvokeAllowed@CCmdTarget@@UAEHJ@Z
	DD	FLAT:?GetDispatchIID@CCmdTarget@@UAEHPAU_GUID@@@Z
	DD	FLAT:?GetTypeInfoCount@CCmdTarget@@UAEIXZ
	DD	FLAT:?GetTypeLibCache@CCmdTarget@@UAEPAVCTypeLibCache@@XZ
	DD	FLAT:?GetTypeLib@CCmdTarget@@UAEJKPAPAUITypeLib@@@Z
	DD	FLAT:?GetMessageMap@CListCtrl@@MBEPBUAFX_MSGMAP@@XZ
	DD	FLAT:?GetCommandMap@CCmdTarget@@MBEPBUAFX_OLECMDMAP@@XZ
	DD	FLAT:?GetDispatchMap@CCmdTarget@@MBEPBUAFX_DISPMAP@@XZ
	DD	FLAT:?GetConnectionMap@CCmdTarget@@MBEPBUAFX_CONNECTIONMAP@@XZ
	DD	FLAT:?GetInterfaceMap@CWnd@@MBEPBUAFX_INTERFACEMAP@@XZ
	DD	FLAT:?GetEventSinkMap@CCmdTarget@@MBEPBUAFX_EVENTSINKMAP@@XZ
	DD	FLAT:?OnCreateAggregates@CCmdTarget@@UAEHXZ
	DD	FLAT:?GetInterfaceHook@CCmdTarget@@UAEPAUIUnknown@@PBX@Z
	DD	FLAT:?GetExtraConnectionPoints@CCmdTarget@@MAEHPAVCPtrArray@@@Z
	DD	FLAT:?GetConnectionHook@CCmdTarget@@MAEPAUIConnectionPoint@@ABU_GUID@@@Z
	DD	FLAT:?PreSubclassWindow@CWnd@@UAEXXZ
	DD	FLAT:?Create@CWnd@@UAEHPBD0KABUtagRECT@@PAV1@IPAUCCreateContext@@@Z
	DD	FLAT:?CreateEx@CWnd@@UAEHKPBD0KABUtagRECT@@PAV1@IPAX@Z
	DD	FLAT:?CreateEx@CWnd@@UAEHKPBD0KHHHHPAUHWND__@@PAUHMENU__@@PAX@Z
	DD	FLAT:?DestroyWindow@CWnd@@UAEHXZ
	DD	FLAT:?PreCreateWindow@CWnd@@UAEHAAUtagCREATESTRUCTA@@@Z
	DD	FLAT:?CalcWindowRect@CWnd@@UAEXPAUtagRECT@@I@Z
	DD	FLAT:?GetMenu@CWnd@@UBEPAVCMenu@@XZ
	DD	FLAT:?SetMenu@CWnd@@UAEHPAVCMenu@@@Z
	DD	FLAT:?OnToolHitTest@CWnd@@UBEHVCPoint@@PAUtagTOOLINFOA@@@Z
	DD	FLAT:?GetScrollBarCtrl@CWnd@@UBEPAVCScrollBar@@H@Z
	DD	FLAT:?WinHelpA@CWnd@@UAEXKI@Z
	DD	FLAT:?HtmlHelpA@CWnd@@UAEXKI@Z
	DD	FLAT:?WinHelpInternal@CWnd@@UAEXKI@Z
	DD	FLAT:?ContinueModal@CWnd@@UAEHXZ
	DD	FLAT:?EndModalLoop@CWnd@@UAEXH@Z
	DD	FLAT:?OnDrawIconicThumbnailOrLivePreview@CWnd@@UAEXAAVCDC@@VCRect@@VCSize@@HAAH@Z
	DD	FLAT:?EnsureStdObj@CWnd@@UAEJXZ
	DD	FLAT:?get_accParent@CWnd@@UAEJPAPAUIDispatch@@@Z
	DD	FLAT:?get_accChildCount@CWnd@@UAEJPAJ@Z
	DD	FLAT:?get_accChild@CWnd@@UAEJUtagVARIANT@@PAPAUIDispatch@@@Z
	DD	FLAT:?get_accName@CWnd@@UAEJUtagVARIANT@@PAPA_W@Z
	DD	FLAT:?get_accValue@CWnd@@UAEJUtagVARIANT@@PAPA_W@Z
	DD	FLAT:?get_accDescription@CWnd@@UAEJUtagVARIANT@@PAPA_W@Z
	DD	FLAT:?get_accRole@CWnd@@UAEJUtagVARIANT@@PAU2@@Z
	DD	FLAT:?get_accState@CWnd@@UAEJUtagVARIANT@@PAU2@@Z
	DD	FLAT:?get_accHelp@CWnd@@UAEJUtagVARIANT@@PAPA_W@Z
	DD	FLAT:?get_accHelpTopic@CWnd@@UAEJPAPA_WUtagVARIANT@@PAJ@Z
	DD	FLAT:?get_accKeyboardShortcut@CWnd@@UAEJUtagVARIANT@@PAPA_W@Z
	DD	FLAT:?get_accFocus@CWnd@@UAEJPAUtagVARIANT@@@Z
	DD	FLAT:?get_accSelection@CWnd@@UAEJPAUtagVARIANT@@@Z
	DD	FLAT:?get_accDefaultAction@CWnd@@UAEJUtagVARIANT@@PAPA_W@Z
	DD	FLAT:?accSelect@CWnd@@UAEJJUtagVARIANT@@@Z
	DD	FLAT:?accLocation@CWnd@@UAEJPAJ000UtagVARIANT@@@Z
	DD	FLAT:?accNavigate@CWnd@@UAEJJUtagVARIANT@@PAU2@@Z
	DD	FLAT:?accHitTest@CWnd@@UAEJJJPAUtagVARIANT@@@Z
	DD	FLAT:?accDoDefaultAction@CWnd@@UAEJUtagVARIANT@@@Z
	DD	FLAT:?put_accName@CWnd@@UAEJUtagVARIANT@@PA_W@Z
	DD	FLAT:?put_accValue@CWnd@@UAEJUtagVARIANT@@PA_W@Z
	DD	FLAT:?SetProxy@CWnd@@UAEJPAUIAccessibleProxy@@@Z
	DD	FLAT:?CreateAccessibleProxy@CWnd@@UAEJIJPAJ@Z
	DD	FLAT:?OnCommand@CWnd@@MAEHIJ@Z
	DD	FLAT:?OnNotify@CWnd@@MAEHIJPAJ@Z
	DD	FLAT:?GetSuperWndProcAddr@CWnd@@MAEPAP6GJPAUHWND__@@IIJ@ZXZ
	DD	FLAT:?DoDataExchange@CWnd@@MAEXPAVCDataExchange@@@Z
	DD	FLAT:?BeginModalState@CWnd@@UAEXXZ
	DD	FLAT:?EndModalState@CWnd@@UAEXXZ
	DD	FLAT:?PreTranslateMessage@CWnd@@UAEHPAUtagMSG@@@Z
	DD	FLAT:?OnAmbientProperty@CWnd@@UAEHPAVCOleControlSite@@JPAUtagVARIANT@@@Z
	DD	FLAT:?WindowProc@CWnd@@MAEJIIJ@Z
	DD	FLAT:?OnWndMsg@CWnd@@MAEHIIJPAJ@Z
	DD	FLAT:?DefWindowProcA@CWnd@@MAEJIIJ@Z
	DD	FLAT:?PostNcDestroy@CWnd@@MAEXXZ
	DD	FLAT:?OnChildNotify@CListCtrl@@MAEHIIJPAJ@Z
	DD	FLAT:?OnTouchInputs@CWnd@@MAEHIPAUtagTOUCHINPUT@@@Z
	DD	FLAT:?OnTouchInput@CWnd@@MAEHVCPoint@@HHPAUtagTOUCHINPUT@@@Z
	DD	FLAT:?GetGestureStatus@CWnd@@MAEKVCPoint@@@Z
	DD	FLAT:?OnGestureZoom@CWnd@@MAEHVCPoint@@J@Z
	DD	FLAT:?OnGesturePan@CWnd@@MAEHVCPoint@@0@Z
	DD	FLAT:?OnGestureRotate@CWnd@@MAEHVCPoint@@N@Z
	DD	FLAT:?OnGestureTwoFingerTap@CWnd@@MAEHVCPoint@@@Z
	DD	FLAT:?OnGesturePressAndTap@CWnd@@MAEHVCPoint@@J@Z
	DD	FLAT:?ResizeDynamicLayout@CWnd@@MAEXXZ
	DD	FLAT:?CheckAutoCenter@CWnd@@UAEHXZ
	DD	FLAT:?IsFrameWnd@CWnd@@UBEHXZ
	DD	FLAT:?CreateControlContainer@CWnd@@MAEHPAPAVCOleControlContainer@@@Z
	DD	FLAT:?CreateControlSite@CWnd@@MAEHPAVCOleControlContainer@@PAPAVCOleControlSite@@IABU_GUID@@@Z
	DD	FLAT:?SetOccDialogInfo@CWnd@@MAEHPAU_AFX_OCC_DIALOG_INFO@@@Z
	DD	FLAT:?GetOccDialogInfo@CWnd@@MAEPAU_AFX_OCC_DIALOG_INFO@@XZ
	DD	FLAT:?DrawItem@CListCtrl@@UAEXPAUtagDRAWITEMSTRUCT@@@Z
CONST	ENDS
;	COMDAT xdata$x
xdata$x	SEGMENT
__unwindtable$?EditSubItem@CEditableListCtrl@@UAEHHH@Z DD 0ffffffffH
	DD	FLAT:__unwindfunclet$?EditSubItem@CEditableListCtrl@@UAEHHH@Z$0
__ehfuncinfo$?EditSubItem@CEditableListCtrl@@UAEHHH@Z DD 019930522H
	DD	01H
	DD	FLAT:__unwindtable$?EditSubItem@CEditableListCtrl@@UAEHHH@Z
	DD	2 DUP(00H)
	DD	2 DUP(00H)
	DD	00H
	DD	01H
xdata$x	ENDS
;	COMDAT xdata$x
xdata$x	SEGMENT
__unwindtable$??0CEditableListCtrl@@QAE@XZ DD 0ffffffffH
	DD	FLAT:__unwindfunclet$??0CEditableListCtrl@@QAE@XZ$0
	DD	00H
	DD	FLAT:__unwindfunclet$??0CEditableListCtrl@@QAE@XZ$1
	DD	01H
	DD	FLAT:__unwindfunclet$??0CEditableListCtrl@@QAE@XZ$2
__ehfuncinfo$??0CEditableListCtrl@@QAE@XZ DD 019930522H
	DD	03H
	DD	FLAT:__unwindtable$??0CEditableListCtrl@@QAE@XZ
	DD	2 DUP(00H)
	DD	2 DUP(00H)
	DD	00H
	DD	01H
xdata$x	ENDS
; Function compile flags: /Ogtp
; File D:\git\src\IBK\IBK_DRFN\ProjSrc\SrcChartEx\ChartAddIn\ChartDesignPropertyAddIn\ChartDesignPropertyAddIn\EditableListCtrl.cpp
; File C:\Program Files (x86)\Microsoft Visual Studio\2019\Community\VC\Tools\MSVC\14.29.30133\atlmfc\include\afx.inl
;	COMDAT ??_GCEditableListCtrl@@UAEPAXI@Z
_TEXT	SEGMENT
___flags$ = 8						; size = 4
??_GCEditableListCtrl@@UAEPAXI@Z PROC			; CEditableListCtrl::`scalar deleting destructor', COMDAT
; _this$ = ecx
  00000	55		 push	 ebp
  00001	8b ec		 mov	 ebp, esp
; File D:\git\src\IBK\IBK_DRFN\ProjSrc\SrcChartEx\ChartAddIn\ChartDesignPropertyAddIn\ChartDesignPropertyAddIn\EditableListCtrl.cpp

; 32   : {

  00003	56		 push	 esi
  00004	8b f1		 mov	 esi, ecx

; 33   : 
; 34   : ///////////////////////////////////////////////////////////////////////////////
; 35   : //	작업자	:	배승원(Seung-Won, Bae)
; 36   : //	E-Mail	:	radox@dooriic.co.kr
; 37   : //	일자	:	2003.01.08
; 38   : //
; 39   : //	목적	:	Label 편집시의 Edit Control을 관리한다.
; 40   : ///////////////////////////////////////////////////////////////////////////////
; 41   : 	delete m_pLabelEdit;

  00006	8b 8e 94 00 00
	00		 mov	 ecx, DWORD PTR [esi+148]
  0000c	c7 06 00 00 00
	00		 mov	 DWORD PTR [esi], OFFSET ??_7CEditableListCtrl@@6B@
  00012	85 c9		 test	 ecx, ecx
  00014	74 07		 je	 SHORT $LN9@scalar
  00016	8b 01		 mov	 eax, DWORD PTR [ecx]
  00018	6a 01		 push	 1
  0001a	ff 50 04	 call	 DWORD PTR [eax+4]
$LN9@scalar:

; 42   : }

  0001d	8d 8e 80 00 00
	00		 lea	 ecx, DWORD PTR [esi+128]
  00023	e8 00 00 00 00	 call	 ??1CByteArray@@UAE@XZ	; CByteArray::~CByteArray
  00028	8b ce		 mov	 ecx, esi
  0002a	e8 00 00 00 00	 call	 ??1CListCtrl@@UAE@XZ	; CListCtrl::~CListCtrl
  0002f	8b 45 08	 mov	 eax, DWORD PTR ___flags$[ebp]
  00032	a8 01		 test	 al, 1
  00034	74 22		 je	 SHORT $LN14@scalar
  00036	a8 04		 test	 al, 4
  00038	75 10		 jne	 SHORT $LN3@scalar
; File C:\Program Files (x86)\Microsoft Visual Studio\2019\Community\VC\Tools\MSVC\14.29.30133\atlmfc\include\afx.inl

; 112  : 	{ ::operator delete(p); }

  0003a	56		 push	 esi
  0003b	e8 00 00 00 00	 call	 ??3@YAXPAX@Z		; operator delete
  00040	83 c4 04	 add	 esp, 4
  00043	8b c6		 mov	 eax, esi
  00045	5e		 pop	 esi
  00046	5d		 pop	 ebp
  00047	c2 04 00	 ret	 4
$LN3@scalar:
  0004a	68 98 00 00 00	 push	 152			; 00000098H
  0004f	56		 push	 esi
  00050	e8 00 00 00 00	 call	 ?__global_delete@@YAXPAXI@Z ; __global_delete
  00055	83 c4 08	 add	 esp, 8
$LN14@scalar:
  00058	8b c6		 mov	 eax, esi
  0005a	5e		 pop	 esi
  0005b	5d		 pop	 ebp
  0005c	c2 04 00	 ret	 4
??_GCEditableListCtrl@@UAEPAXI@Z ENDP			; CEditableListCtrl::`scalar deleting destructor'
_TEXT	ENDS
; Function compile flags: /Ogtp
; File D:\git\src\IBK\IBK_DRFN\ProjSrc\SrcChartEx\ChartAddIn\ChartDesignPropertyAddIn\ChartDesignPropertyAddIn\EditableListCtrl.cpp
;	COMDAT ?SetUpdateOnlyEnter@CEditableListCtrl@@QAEXH@Z
_TEXT	SEGMENT
_p_bUpdateOnlyEnter$ = 8				; size = 4
?SetUpdateOnlyEnter@CEditableListCtrl@@QAEXH@Z PROC	; CEditableListCtrl::SetUpdateOnlyEnter, COMDAT
; _this$ = ecx

; 290  : {

  00000	55		 push	 ebp
  00001	8b ec		 mov	 ebp, esp

; 291  : 	m_pLabelEdit->m_bUpdateOnlyEnter = p_bUpdateOnlyEnter;

  00003	8b 89 94 00 00
	00		 mov	 ecx, DWORD PTR [ecx+148]
  00009	8b 45 08	 mov	 eax, DWORD PTR _p_bUpdateOnlyEnter$[ebp]
  0000c	89 81 8c 00 00
	00		 mov	 DWORD PTR [ecx+140], eax

; 292  : }

  00012	5d		 pop	 ebp
  00013	c2 04 00	 ret	 4
?SetUpdateOnlyEnter@CEditableListCtrl@@QAEXH@Z ENDP	; CEditableListCtrl::SetUpdateOnlyEnter
_TEXT	ENDS
; Function compile flags: /Ogtp
; File D:\git\src\IBK\IBK_DRFN\ProjSrc\SrcChartEx\ChartAddIn\ChartDesignPropertyAddIn\ChartDesignPropertyAddIn\EditableListCtrl.cpp
; File C:\Program Files (x86)\Microsoft Visual Studio\2019\Community\VC\Tools\MSVC\14.29.30133\atlmfc\include\afxcmn.inl
; File D:\git\src\IBK\IBK_DRFN\ProjSrc\SrcChartEx\ChartAddIn\ChartDesignPropertyAddIn\ChartDesignPropertyAddIn\EditableListCtrl.cpp
; File C:\Program Files (x86)\Microsoft Visual Studio\2019\Community\VC\Tools\MSVC\14.29.30133\atlmfc\include\afxcmn.inl
; File D:\git\src\IBK\IBK_DRFN\ProjSrc\SrcChartEx\ChartAddIn\ChartDesignPropertyAddIn\ChartDesignPropertyAddIn\EditableListCtrl.cpp
; File C:\Program Files (x86)\Microsoft Visual Studio\2019\Community\VC\Tools\MSVC\14.29.30133\atlmfc\include\afxcoll.inl
; File D:\git\src\IBK\IBK_DRFN\ProjSrc\SrcChartEx\ChartAddIn\ChartDesignPropertyAddIn\ChartDesignPropertyAddIn\EditableListCtrl.cpp
; File C:\Program Files (x86)\Microsoft Visual Studio\2019\Community\VC\Tools\MSVC\14.29.30133\atlmfc\include\afxcoll.inl
; File D:\git\src\IBK\IBK_DRFN\ProjSrc\SrcChartEx\ChartAddIn\ChartDesignPropertyAddIn\ChartDesignPropertyAddIn\EditableListCtrl.cpp
;	COMDAT ?StartEditSubItem@CEditableListCtrl@@IAEXXZ
_TEXT	SEGMENT
?StartEditSubItem@CEditableListCtrl@@IAEXXZ PROC	; CEditableListCtrl::StartEditSubItem, COMDAT
; _this$ = ecx

; 242  : {

  00000	56		 push	 esi
  00001	57		 push	 edi
; File C:\Program Files (x86)\Microsoft Visual Studio\2019\Community\VC\Tools\MSVC\14.29.30133\atlmfc\include\afxcmn.inl

; 177  : 	{ ASSERT(::IsWindow(m_hWnd)); return (int) ::SendMessage(m_hWnd, LVM_GETNEXTITEM, nItem, MAKELPARAM(nFlags, 0)); }

  00002	6a 02		 push	 2
; File D:\git\src\IBK\IBK_DRFN\ProjSrc\SrcChartEx\ChartAddIn\ChartDesignPropertyAddIn\ChartDesignPropertyAddIn\EditableListCtrl.cpp

; 242  : {

  00004	8b f1		 mov	 esi, ecx
; File C:\Program Files (x86)\Microsoft Visual Studio\2019\Community\VC\Tools\MSVC\14.29.30133\atlmfc\include\afxcmn.inl

; 177  : 	{ ASSERT(::IsWindow(m_hWnd)); return (int) ::SendMessage(m_hWnd, LVM_GETNEXTITEM, nItem, MAKELPARAM(nFlags, 0)); }

  00006	6a ff		 push	 -1
  00008	68 0c 10 00 00	 push	 4108			; 0000100cH
  0000d	ff 76 20	 push	 DWORD PTR [esi+32]
  00010	ff 15 00 00 00
	00		 call	 DWORD PTR __imp__SendMessageA@16
; File D:\git\src\IBK\IBK_DRFN\ProjSrc\SrcChartEx\ChartAddIn\ChartDesignPropertyAddIn\ChartDesignPropertyAddIn\EditableListCtrl.cpp

; 244  : 	int nSubItem, nColumnCount = m_bEditableColumn.GetSize();

  00016	8b 96 88 00 00
	00		 mov	 edx, DWORD PTR [esi+136]

; 245  : 	for( nSubItem = 0; nSubItem < nColumnCount; nSubItem++) if( m_bEditableColumn[ nSubItem]) break;

  0001c	33 c9		 xor	 ecx, ecx
  0001e	8b f8		 mov	 edi, eax
  00020	85 d2		 test	 edx, edx
  00022	7e 19		 jle	 SHORT $LN3@StartEditS
$LL4@StartEditS:
; File C:\Program Files (x86)\Microsoft Visual Studio\2019\Community\VC\Tools\MSVC\14.29.30133\atlmfc\include\afxcoll.inl

; 42   : 		if( nIndex < 0 || nIndex >= m_nSize )

  00024	85 c9		 test	 ecx, ecx
  00026	78 24		 js	 SHORT $LN13@StartEditS
  00028	3b ca		 cmp	 ecx, edx
  0002a	7d 20		 jge	 SHORT $LN13@StartEditS
; File D:\git\src\IBK\IBK_DRFN\ProjSrc\SrcChartEx\ChartAddIn\ChartDesignPropertyAddIn\ChartDesignPropertyAddIn\EditableListCtrl.cpp

; 245  : 	for( nSubItem = 0; nSubItem < nColumnCount; nSubItem++) if( m_bEditableColumn[ nSubItem]) break;

  0002c	8b 86 84 00 00
	00		 mov	 eax, DWORD PTR [esi+132]
  00032	80 3c 01 00	 cmp	 BYTE PTR [ecx+eax], 0
  00036	75 05		 jne	 SHORT $LN3@StartEditS
  00038	41		 inc	 ecx
  00039	3b ca		 cmp	 ecx, edx
  0003b	7c e7		 jl	 SHORT $LL4@StartEditS
$LN3@StartEditS:

; 246  : 	EditSubItem( nItem, nSubItem);

  0003d	8b 06		 mov	 eax, DWORD PTR [esi]
  0003f	51		 push	 ecx
  00040	57		 push	 edi
  00041	8b ce		 mov	 ecx, esi
  00043	ff 90 70 01 00
	00		 call	 DWORD PTR [eax+368]
  00049	5f		 pop	 edi
  0004a	5e		 pop	 esi

; 247  : }

  0004b	c3		 ret	 0
$LN13@StartEditS:
; File C:\Program Files (x86)\Microsoft Visual Studio\2019\Community\VC\Tools\MSVC\14.29.30133\atlmfc\include\afxcoll.inl

; 43   : 			AfxThrowInvalidArgException();

  0004c	e8 00 00 00 00	 call	 ?AfxThrowInvalidArgException@@YGXXZ ; AfxThrowInvalidArgException
$LN23@StartEditS:
  00051	cc		 int	 3
?StartEditSubItem@CEditableListCtrl@@IAEXXZ ENDP	; CEditableListCtrl::StartEditSubItem
_TEXT	ENDS
; Function compile flags: /Ogtp
; File D:\git\src\IBK\IBK_DRFN\ProjSrc\SrcChartEx\ChartAddIn\ChartDesignPropertyAddIn\ChartDesignPropertyAddIn\EditableListCtrl.cpp
; File C:\Program Files (x86)\Microsoft Visual Studio\2019\Community\VC\Tools\MSVC\14.29.30133\atlmfc\include\afxcmn.inl
; File D:\git\src\IBK\IBK_DRFN\ProjSrc\SrcChartEx\ChartAddIn\ChartDesignPropertyAddIn\ChartDesignPropertyAddIn\EditableListCtrl.cpp
; File C:\Program Files (x86)\Microsoft Visual Studio\2019\Community\VC\Tools\MSVC\14.29.30133\atlmfc\include\afxcoll.inl
; File D:\git\src\IBK\IBK_DRFN\ProjSrc\SrcChartEx\ChartAddIn\ChartDesignPropertyAddIn\ChartDesignPropertyAddIn\EditableListCtrl.cpp
; File C:\Program Files (x86)\Microsoft Visual Studio\2019\Community\VC\Tools\MSVC\14.29.30133\atlmfc\include\afxcmn.inl
; File D:\git\src\IBK\IBK_DRFN\ProjSrc\SrcChartEx\ChartAddIn\ChartDesignPropertyAddIn\ChartDesignPropertyAddIn\EditableListCtrl.cpp
; File C:\Program Files (x86)\Microsoft Visual Studio\2019\Community\VC\Tools\MSVC\14.29.30133\atlmfc\include\afxcmn.inl
; File D:\git\src\IBK\IBK_DRFN\ProjSrc\SrcChartEx\ChartAddIn\ChartDesignPropertyAddIn\ChartDesignPropertyAddIn\EditableListCtrl.cpp
; File C:\Program Files (x86)\Microsoft Visual Studio\2019\Community\VC\Tools\MSVC\14.29.30133\atlmfc\include\atltypes.h
; File D:\git\src\IBK\IBK_DRFN\ProjSrc\SrcChartEx\ChartAddIn\ChartDesignPropertyAddIn\ChartDesignPropertyAddIn\EditableListCtrl.cpp
; File C:\Program Files (x86)\Microsoft Visual Studio\2019\Community\VC\Tools\MSVC\14.29.30133\atlmfc\include\afxwin2.inl
; File D:\git\src\IBK\IBK_DRFN\ProjSrc\SrcChartEx\ChartAddIn\ChartDesignPropertyAddIn\ChartDesignPropertyAddIn\EditableListCtrl.cpp
; File C:\Program Files (x86)\Microsoft Visual Studio\2019\Community\VC\Tools\MSVC\14.29.30133\atlmfc\include\atltypes.h
; File C:\Program Files (x86)\Microsoft Visual Studio\2019\Community\VC\Tools\MSVC\14.29.30133\atlmfc\include\afxwin2.inl
; File C:\Program Files (x86)\Microsoft Visual Studio\2019\Community\VC\Tools\MSVC\14.29.30133\atlmfc\include\atltypes.h
; File C:\Program Files (x86)\Microsoft Visual Studio\2019\Community\VC\Tools\MSVC\14.29.30133\atlmfc\include\afxwin2.inl
; File D:\git\src\IBK\IBK_DRFN\ProjSrc\SrcChartEx\ChartAddIn\ChartDesignPropertyAddIn\ChartDesignPropertyAddIn\EditableListCtrl.cpp
; File C:\Program Files (x86)\Microsoft Visual Studio\2019\Community\VC\Tools\MSVC\14.29.30133\atlmfc\include\afxwin2.inl
; File D:\git\src\IBK\IBK_DRFN\ProjSrc\SrcChartEx\ChartAddIn\ChartDesignPropertyAddIn\ChartDesignPropertyAddIn\EditableListCtrl.cpp
; File C:\Program Files (x86)\Microsoft Visual Studio\2019\Community\VC\Tools\MSVC\14.29.30133\atlmfc\include\afxwin2.inl
; File D:\git\src\IBK\IBK_DRFN\ProjSrc\SrcChartEx\ChartAddIn\ChartDesignPropertyAddIn\ChartDesignPropertyAddIn\EditableListCtrl.cpp
; File C:\Program Files (x86)\Microsoft Visual Studio\2019\Community\VC\Tools\MSVC\14.29.30133\atlmfc\include\afxwin2.inl
; File D:\git\src\IBK\IBK_DRFN\ProjSrc\SrcChartEx\ChartAddIn\ChartDesignPropertyAddIn\ChartDesignPropertyAddIn\EditableListCtrl.cpp
; File C:\Program Files (x86)\Microsoft Visual Studio\2019\Community\VC\Tools\MSVC\14.29.30133\atlmfc\include\afxwin2.inl
; File D:\git\src\IBK\IBK_DRFN\ProjSrc\SrcChartEx\ChartAddIn\ChartDesignPropertyAddIn\ChartDesignPropertyAddIn\EditableListCtrl.cpp
; File C:\Program Files (x86)\Microsoft Visual Studio\2019\Community\VC\Tools\MSVC\14.29.30133\atlmfc\include\afxcoll.inl
; File D:\git\src\IBK\IBK_DRFN\ProjSrc\SrcChartEx\ChartAddIn\ChartDesignPropertyAddIn\ChartDesignPropertyAddIn\EditableListCtrl.cpp
;	COMDAT ?EditSubItem@CEditableListCtrl@@UAEHHH@Z
_TEXT	SEGMENT
_p_nSubItem$GSCopy$1$ = -52				; size = 4
$T2 = -52						; size = 4
_rctSubItem$ = -48					; size = 16
_rctClientRect$ = -32					; size = 16
__$ArrayPad$ = -16					; size = 4
__$EHRec$ = -12						; size = 12
_p_nItem$ = 8						; size = 4
_p_nSubItem$ = 12					; size = 4
?EditSubItem@CEditableListCtrl@@UAEHHH@Z PROC		; CEditableListCtrl::EditSubItem, COMDAT
; _this$ = ecx

; 144  : {

  00000	55		 push	 ebp
  00001	8b ec		 mov	 ebp, esp
  00003	6a ff		 push	 -1
  00005	68 00 00 00 00	 push	 __ehhandler$?EditSubItem@CEditableListCtrl@@UAEHHH@Z
  0000a	64 a1 00 00 00
	00		 mov	 eax, DWORD PTR fs:0
  00010	50		 push	 eax
  00011	83 ec 28	 sub	 esp, 40			; 00000028H
  00014	a1 00 00 00 00	 mov	 eax, DWORD PTR ___security_cookie
  00019	33 c5		 xor	 eax, ebp
  0001b	89 45 f0	 mov	 DWORD PTR __$ArrayPad$[ebp], eax
  0001e	53		 push	 ebx
  0001f	56		 push	 esi
  00020	57		 push	 edi
  00021	50		 push	 eax
  00022	8d 45 f4	 lea	 eax, DWORD PTR __$EHRec$[ebp]
  00025	64 a3 00 00 00
	00		 mov	 DWORD PTR fs:0, eax
  0002b	8b f9		 mov	 edi, ecx
  0002d	8b 5d 08	 mov	 ebx, DWORD PTR _p_nItem$[ebp]
  00030	8b 75 0c	 mov	 esi, DWORD PTR _p_nSubItem$[ebp]
  00033	89 75 cc	 mov	 DWORD PTR _p_nSubItem$GSCopy$1$[ebp], esi

; 146  : 	if( p_nItem < 0 || p_nItem >= GetItemCount() || !m_bEditableColumn[ p_nSubItem]) return FALSE;

  00036	85 db		 test	 ebx, ebx
  00038	0f 88 db 01 00
	00		 js	 $LN3@EditSubIte
; File C:\Program Files (x86)\Microsoft Visual Studio\2019\Community\VC\Tools\MSVC\14.29.30133\atlmfc\include\afxcmn.inl

; 155  : 	{ ASSERT(::IsWindow(m_hWnd)); return (int) ::SendMessage(m_hWnd, LVM_GETITEMCOUNT, 0, 0L); }

  0003e	6a 00		 push	 0
  00040	6a 00		 push	 0
  00042	68 04 10 00 00	 push	 4100			; 00001004H
  00047	ff 77 20	 push	 DWORD PTR [edi+32]
  0004a	ff 15 00 00 00
	00		 call	 DWORD PTR __imp__SendMessageA@16
; File D:\git\src\IBK\IBK_DRFN\ProjSrc\SrcChartEx\ChartAddIn\ChartDesignPropertyAddIn\ChartDesignPropertyAddIn\EditableListCtrl.cpp

; 146  : 	if( p_nItem < 0 || p_nItem >= GetItemCount() || !m_bEditableColumn[ p_nSubItem]) return FALSE;

  00050	3b d8		 cmp	 ebx, eax
  00052	0f 8d c1 01 00
	00		 jge	 $LN3@EditSubIte
; File C:\Program Files (x86)\Microsoft Visual Studio\2019\Community\VC\Tools\MSVC\14.29.30133\atlmfc\include\afxcoll.inl

; 42   : 		if( nIndex < 0 || nIndex >= m_nSize )

  00058	85 f6		 test	 esi, esi
  0005a	0f 88 d9 01 00
	00		 js	 $LN20@EditSubIte
  00060	3b b7 88 00 00
	00		 cmp	 esi, DWORD PTR [edi+136]
  00066	0f 8d cd 01 00
	00		 jge	 $LN20@EditSubIte

; 44   : 		return m_pData[nIndex]; }

  0006c	8b 87 84 00 00
	00		 mov	 eax, DWORD PTR [edi+132]
; File D:\git\src\IBK\IBK_DRFN\ProjSrc\SrcChartEx\ChartAddIn\ChartDesignPropertyAddIn\ChartDesignPropertyAddIn\EditableListCtrl.cpp

; 146  : 	if( p_nItem < 0 || p_nItem >= GetItemCount() || !m_bEditableColumn[ p_nSubItem]) return FALSE;

  00072	80 3c 30 00	 cmp	 BYTE PTR [eax+esi], 0
  00076	0f 84 9d 01 00
	00		 je	 $LN3@EditSubIte
; File C:\Program Files (x86)\Microsoft Visual Studio\2019\Community\VC\Tools\MSVC\14.29.30133\atlmfc\include\afxcmn.inl

; 237  : 	{ ASSERT(::IsWindow(m_hWnd)); return (UINT) ::SendMessage(m_hWnd, LVM_GETITEMSTATE, nItem, nMask); }

  0007c	6a 02		 push	 2
  0007e	53		 push	 ebx
  0007f	68 2c 10 00 00	 push	 4140			; 0000102cH
  00084	ff 77 20	 push	 DWORD PTR [edi+32]
  00087	ff 15 00 00 00
	00		 call	 DWORD PTR __imp__SendMessageA@16
; File D:\git\src\IBK\IBK_DRFN\ProjSrc\SrcChartEx\ChartAddIn\ChartDesignPropertyAddIn\ChartDesignPropertyAddIn\EditableListCtrl.cpp

; 149  : 	if( !GetItemState( p_nItem, LVIS_SELECTED)) return FALSE;

  0008d	85 c0		 test	 eax, eax
  0008f	0f 84 84 01 00
	00		 je	 $LN3@EditSubIte

; 150  : 
; 151  : 	// (2003.01.08) 편집창의 생성이 성공한 경우에는 List Control을 Scoll하여 볼 수 있도록 한다.
; 152  : 	// 2.5.1 Scroll시에 Edit의 잔영이 남지 않도록 우선 Hide시킨다.
; 153  : 	m_pLabelEdit->ShowWindow( SW_HIDE);

  00095	8b 8f 94 00 00
	00		 mov	 ecx, DWORD PTR [edi+148]
  0009b	6a 00		 push	 0
  0009d	e8 00 00 00 00	 call	 ?ShowWindow@CWnd@@QAEHH@Z ; CWnd::ShowWindow
; File C:\Program Files (x86)\Microsoft Visual Studio\2019\Community\VC\Tools\MSVC\14.29.30133\atlmfc\include\afxcmn.inl

; 193  : 	{ ASSERT(::IsWindow(m_hWnd)); return (BOOL) ::SendMessage(m_hWnd, LVM_ENSUREVISIBLE, nItem, MAKELPARAM(bPartialOK, 0)); }

  000a2	6a 00		 push	 0
  000a4	53		 push	 ebx
  000a5	68 13 10 00 00	 push	 4115			; 00001013H
  000aa	ff 77 20	 push	 DWORD PTR [edi+32]
  000ad	ff 15 00 00 00
	00		 call	 DWORD PTR __imp__SendMessageA@16
; File D:\git\src\IBK\IBK_DRFN\ProjSrc\SrcChartEx\ChartAddIn\ChartDesignPropertyAddIn\ChartDesignPropertyAddIn\EditableListCtrl.cpp

; 158  : 	GetSubItemRect( p_nItem, p_nSubItem, LVIR_LABEL, rctSubItem);

  000b3	8d 45 d0	 lea	 eax, DWORD PTR _rctSubItem$[ebp]
  000b6	0f 57 c0	 xorps	 xmm0, xmm0
  000b9	50		 push	 eax
  000ba	6a 02		 push	 2
  000bc	56		 push	 esi
  000bd	53		 push	 ebx
  000be	8b cf		 mov	 ecx, edi
; File C:\Program Files (x86)\Microsoft Visual Studio\2019\Community\VC\Tools\MSVC\14.29.30133\atlmfc\include\atltypes.h

; 528  : 	left = 0;

  000c0	0f 11 45 d0	 movups	 XMMWORD PTR _rctSubItem$[ebp], xmm0
  000c4	0f 11 45 e0	 movups	 XMMWORD PTR _rctClientRect$[ebp], xmm0
; File D:\git\src\IBK\IBK_DRFN\ProjSrc\SrcChartEx\ChartAddIn\ChartDesignPropertyAddIn\ChartDesignPropertyAddIn\EditableListCtrl.cpp

; 158  : 	GetSubItemRect( p_nItem, p_nSubItem, LVIR_LABEL, rctSubItem);

  000c8	e8 00 00 00 00	 call	 ?GetSubItemRect@CListCtrl@@QBEHHHHAAVCRect@@@Z ; CListCtrl::GetSubItemRect

; 159  : 	if( rctSubItem.left < 0) Scroll( CSize( rctSubItem.left, 0));

  000cd	8b 45 d0	 mov	 eax, DWORD PTR _rctSubItem$[ebp]
  000d0	85 c0		 test	 eax, eax
  000d2	79 05		 jns	 SHORT $LN5@EditSubIte
  000d4	6a 00		 push	 0
  000d6	50		 push	 eax
  000d7	eb 28		 jmp	 SHORT $LN55@EditSubIte
$LN5@EditSubIte:
; File C:\Program Files (x86)\Microsoft Visual Studio\2019\Community\VC\Tools\MSVC\14.29.30133\atlmfc\include\afxwin2.inl

; 86   : 	{ ASSERT(::IsWindow(m_hWnd)); ::GetClientRect(m_hWnd, lpRect); }

  000d9	8d 45 e0	 lea	 eax, DWORD PTR _rctClientRect$[ebp]
  000dc	50		 push	 eax
  000dd	ff 77 20	 push	 DWORD PTR [edi+32]
  000e0	ff 15 00 00 00
	00		 call	 DWORD PTR __imp__GetClientRect@8
; File D:\git\src\IBK\IBK_DRFN\ProjSrc\SrcChartEx\ChartAddIn\ChartDesignPropertyAddIn\ChartDesignPropertyAddIn\EditableListCtrl.cpp

; 164  : 		if( rctSubItem.right > rctClientRect.right)

  000e6	8b 4d d8	 mov	 ecx, DWORD PTR _rctSubItem$[ebp+8]
  000e9	8b 45 e8	 mov	 eax, DWORD PTR _rctClientRect$[ebp+8]
  000ec	3b c8		 cmp	 ecx, eax
  000ee	7e 18		 jle	 SHORT $LN9@EditSubIte

; 165  : 		{
; 166  : 			int nScroll = rctSubItem.right - rctClientRect.right;
; 167  : 			if( rctSubItem.left - nScroll < 0) Scroll( CSize( rctSubItem.left, 0));

  000f0	8b 55 d0	 mov	 edx, DWORD PTR _rctSubItem$[ebp]
  000f3	2b c8		 sub	 ecx, eax
  000f5	8b c2		 mov	 eax, edx
  000f7	2b c1		 sub	 eax, ecx
  000f9	6a 00		 push	 0
  000fb	79 03		 jns	 SHORT $LN8@EditSubIte
  000fd	52		 push	 edx
  000fe	eb 01		 jmp	 SHORT $LN55@EditSubIte
$LN8@EditSubIte:

; 168  : 			else Scroll( CSize( nScroll, 0));

  00100	51		 push	 ecx
$LN55@EditSubIte:

; 169  : 		}
; 170  : 	}
; 171  : 
; 172  : 	// 3. 해당 Item의 Sub Item 위치를 다시 구한다.
; 173  : 	GetSubItemRect( p_nItem, p_nSubItem, LVIR_LABEL, rctSubItem);

  00101	8b cf		 mov	 ecx, edi
  00103	e8 00 00 00 00	 call	 ?Scroll@CListCtrl@@QAEHVCSize@@@Z ; CListCtrl::Scroll
$LN9@EditSubIte:
  00108	8d 45 d0	 lea	 eax, DWORD PTR _rctSubItem$[ebp]
  0010b	8b cf		 mov	 ecx, edi
  0010d	50		 push	 eax
  0010e	6a 02		 push	 2
  00110	56		 push	 esi
  00111	53		 push	 ebx
  00112	e8 00 00 00 00	 call	 ?GetSubItemRect@CListCtrl@@QBEHHHHAAVCRect@@@Z ; CListCtrl::GetSubItemRect
; File C:\Program Files (x86)\Microsoft Visual Studio\2019\Community\VC\Tools\MSVC\14.29.30133\atlmfc\include\atltypes.h

; 913  : 	top -= t;

  00117	83 6d d4 02	 sub	 DWORD PTR _rctSubItem$[ebp+4], 2
; File C:\Program Files (x86)\Microsoft Visual Studio\2019\Community\VC\Tools\MSVC\14.29.30133\atlmfc\include\afxwin2.inl

; 86   : 	{ ASSERT(::IsWindow(m_hWnd)); ::GetClientRect(m_hWnd, lpRect); }

  0011b	8d 45 e0	 lea	 eax, DWORD PTR _rctClientRect$[ebp]
; File C:\Program Files (x86)\Microsoft Visual Studio\2019\Community\VC\Tools\MSVC\14.29.30133\atlmfc\include\atltypes.h

; 915  : 	bottom += b;

  0011e	ff 45 dc	 inc	 DWORD PTR _rctSubItem$[ebp+12]
; File C:\Program Files (x86)\Microsoft Visual Studio\2019\Community\VC\Tools\MSVC\14.29.30133\atlmfc\include\afxwin2.inl

; 86   : 	{ ASSERT(::IsWindow(m_hWnd)); ::GetClientRect(m_hWnd, lpRect); }

  00121	50		 push	 eax
  00122	ff 77 20	 push	 DWORD PTR [edi+32]
  00125	ff 15 00 00 00
	00		 call	 DWORD PTR __imp__GetClientRect@8
; File D:\git\src\IBK\IBK_DRFN\ProjSrc\SrcChartEx\ChartAddIn\ChartDesignPropertyAddIn\ChartDesignPropertyAddIn\EditableListCtrl.cpp

; 178  : 	if( rctSubItem.left < 0) rctSubItem.left = 0;

  0012b	8b 45 d0	 mov	 eax, DWORD PTR _rctSubItem$[ebp]
  0012e	33 c9		 xor	 ecx, ecx
  00130	85 c0		 test	 eax, eax
; File C:\Program Files (x86)\Microsoft Visual Studio\2019\Community\VC\Tools\MSVC\14.29.30133\atlmfc\include\afxwin2.inl

; 73   : 	{ MoveWindow(lpRect->left, lpRect->top, lpRect->right - lpRect->left,

  00132	6a 01		 push	 1
; File D:\git\src\IBK\IBK_DRFN\ProjSrc\SrcChartEx\ChartAddIn\ChartDesignPropertyAddIn\ChartDesignPropertyAddIn\EditableListCtrl.cpp

; 178  : 	if( rctSubItem.left < 0) rctSubItem.left = 0;

  00134	0f 48 c1	 cmovs	 eax, ecx

; 179  : 	if( rctSubItem.right > rctClientRect.right) rctSubItem.right = rctClientRect.right;

  00137	8b 4d d8	 mov	 ecx, DWORD PTR _rctSubItem$[ebp+8]
  0013a	3b 4d e8	 cmp	 ecx, DWORD PTR _rctClientRect$[ebp+8]
  0013d	89 45 d0	 mov	 DWORD PTR _rctSubItem$[ebp], eax
  00140	0f 4f 4d e8	 cmovg	 ecx, DWORD PTR _rctClientRect$[ebp+8]

; 180  : 
; 181  : 	// 5. 편집할 Sub Item의 위치에 Edit Control을 생성하여 보여준다.
; 182  : 	m_pLabelEdit->m_nItem = p_nItem;

  00144	8b 87 94 00 00
	00		 mov	 eax, DWORD PTR [edi+148]
  0014a	89 4d d8	 mov	 DWORD PTR _rctSubItem$[ebp+8], ecx
  0014d	89 98 80 00 00
	00		 mov	 DWORD PTR [eax+128], ebx

; 183  : 	m_pLabelEdit->m_nSubItem = p_nSubItem;

  00153	8b 87 94 00 00
	00		 mov	 eax, DWORD PTR [edi+148]
  00159	89 b0 84 00 00
	00		 mov	 DWORD PTR [eax+132], esi
; File C:\Program Files (x86)\Microsoft Visual Studio\2019\Community\VC\Tools\MSVC\14.29.30133\atlmfc\include\afxwin2.inl

; 73   : 	{ MoveWindow(lpRect->left, lpRect->top, lpRect->right - lpRect->left,

  0015f	8b 45 dc	 mov	 eax, DWORD PTR _rctSubItem$[ebp+12]
  00162	8b 75 d4	 mov	 esi, DWORD PTR _rctSubItem$[ebp+4]
  00165	2b c6		 sub	 eax, esi
  00167	8b 55 d0	 mov	 edx, DWORD PTR _rctSubItem$[ebp]
  0016a	8b 8f 94 00 00
	00		 mov	 ecx, DWORD PTR [edi+148]
  00170	50		 push	 eax
  00171	8b 45 d8	 mov	 eax, DWORD PTR _rctSubItem$[ebp+8]
  00174	2b c2		 sub	 eax, edx
  00176	50		 push	 eax
  00177	56		 push	 esi
  00178	52		 push	 edx
  00179	e8 00 00 00 00	 call	 ?MoveWindow@CWnd@@QAEXHHHHH@Z ; CWnd::MoveWindow
; File D:\git\src\IBK\IBK_DRFN\ProjSrc\SrcChartEx\ChartAddIn\ChartDesignPropertyAddIn\ChartDesignPropertyAddIn\EditableListCtrl.cpp

; 185  : 	m_pLabelEdit->ShowWindow( SW_SHOW);

  0017e	8b 8f 94 00 00
	00		 mov	 ecx, DWORD PTR [edi+148]
  00184	6a 05		 push	 5
  00186	e8 00 00 00 00	 call	 ?ShowWindow@CWnd@@QAEHH@Z ; CWnd::ShowWindow

; 186  : 
; 187  : 	// 6. 편집할 기본 Data를 보여준다.
; 188  : 	//	(특히 빠른 편집이 가능하도록 기본적으로 선택을 설정한다.)
; 189  : 	m_pLabelEdit->SetWindowText( GetItemText( p_nItem, p_nSubItem));

  0018b	ff 75 cc	 push	 DWORD PTR _p_nSubItem$GSCopy$1$[ebp]
  0018e	8d 45 cc	 lea	 eax, DWORD PTR $T2[ebp]
  00191	8b cf		 mov	 ecx, edi
  00193	53		 push	 ebx
  00194	50		 push	 eax
  00195	e8 00 00 00 00	 call	 ?GetItemText@CListCtrl@@QBE?AV?$CStringT@DV?$StrTraitMFC_DLL@DV?$ChTraitsCRT@D@ATL@@@@@ATL@@HH@Z ; CListCtrl::GetItemText
  0019a	ff 30		 push	 DWORD PTR [eax]
  0019c	8b 8f 94 00 00
	00		 mov	 ecx, DWORD PTR [edi+148]
  001a2	c7 45 fc 00 00
	00 00		 mov	 DWORD PTR __$EHRec$[ebp+8], 0
  001a9	e8 00 00 00 00	 call	 ?SetWindowTextA@CWnd@@QAEXPBD@Z ; CWnd::SetWindowTextA
  001ae	8d 4d cc	 lea	 ecx, DWORD PTR $T2[ebp]
  001b1	c7 45 fc ff ff
	ff ff		 mov	 DWORD PTR __$EHRec$[ebp+8], -1
  001b8	ff 15 00 00 00
	00		 call	 DWORD PTR __imp_??1?$CStringT@DV?$StrTraitMFC_DLL@DV?$ChTraitsCRT@D@ATL@@@@@ATL@@QAE@XZ

; 190  : 	m_pLabelEdit->SetFocus();

  001be	8b 8f 94 00 00
	00		 mov	 ecx, DWORD PTR [edi+148]
  001c4	e8 00 00 00 00	 call	 ?SetFocus@CWnd@@QAEPAV1@XZ ; CWnd::SetFocus

; 191  : 	m_pLabelEdit->SetSel( 0, -1);

  001c9	8b b7 94 00 00
	00		 mov	 esi, DWORD PTR [edi+148]
; File C:\Program Files (x86)\Microsoft Visual Studio\2019\Community\VC\Tools\MSVC\14.29.30133\atlmfc\include\afxwin2.inl

; 909  : 	{ ASSERT(::IsWindow(m_hWnd)); ::SendMessage(m_hWnd, EM_SETSEL, nStartChar, nEndChar);

  001cf	6a ff		 push	 -1
  001d1	6a 00		 push	 0
  001d3	68 b1 00 00 00	 push	 177			; 000000b1H
  001d8	ff 76 20	 push	 DWORD PTR [esi+32]
  001db	ff 15 00 00 00
	00		 call	 DWORD PTR __imp__SendMessageA@16

; 910  : 	  if (!bNoScroll)
; 911  : 		::SendMessage(m_hWnd, EM_SCROLLCARET, 0, 0); }

  001e1	6a 00		 push	 0
  001e3	6a 00		 push	 0
  001e5	68 b7 00 00 00	 push	 183			; 000000b7H
  001ea	ff 76 20	 push	 DWORD PTR [esi+32]
  001ed	ff 15 00 00 00
	00		 call	 DWORD PTR __imp__SendMessageA@16
; File D:\git\src\IBK\IBK_DRFN\ProjSrc\SrcChartEx\ChartAddIn\ChartDesignPropertyAddIn\ChartDesignPropertyAddIn\EditableListCtrl.cpp

; 195  : 	GetSubItemRect( p_nItem, 0, LVIR_LABEL, rctSubItem);

  001f3	8d 45 d0	 lea	 eax, DWORD PTR _rctSubItem$[ebp]
  001f6	8b cf		 mov	 ecx, edi
  001f8	50		 push	 eax
  001f9	6a 02		 push	 2
  001fb	6a 00		 push	 0
  001fd	53		 push	 ebx
  001fe	e8 00 00 00 00	 call	 ?GetSubItemRect@CListCtrl@@QBEHHHHAAVCRect@@@Z ; CListCtrl::GetSubItemRect
; File C:\Program Files (x86)\Microsoft Visual Studio\2019\Community\VC\Tools\MSVC\14.29.30133\atlmfc\include\afxwin2.inl

; 116  : 	{ ASSERT(::IsWindow(m_hWnd)); ::InvalidateRect(m_hWnd, lpRect, bErase); }

  00203	6a 01		 push	 1
  00205	8d 45 d0	 lea	 eax, DWORD PTR _rctSubItem$[ebp]
  00208	50		 push	 eax
  00209	ff 77 20	 push	 DWORD PTR [edi+32]
  0020c	ff 15 00 00 00
	00		 call	 DWORD PTR __imp__InvalidateRect@12
; File D:\git\src\IBK\IBK_DRFN\ProjSrc\SrcChartEx\ChartAddIn\ChartDesignPropertyAddIn\ChartDesignPropertyAddIn\EditableListCtrl.cpp

; 198  : 	return TRUE;

  00212	b8 01 00 00 00	 mov	 eax, 1
  00217	eb 02		 jmp	 SHORT $LN1@EditSubIte
$LN3@EditSubIte:

; 146  : 	if( p_nItem < 0 || p_nItem >= GetItemCount() || !m_bEditableColumn[ p_nSubItem]) return FALSE;

  00219	33 c0		 xor	 eax, eax
$LN1@EditSubIte:

; 199  : }

  0021b	8b 4d f4	 mov	 ecx, DWORD PTR __$EHRec$[ebp]
  0021e	64 89 0d 00 00
	00 00		 mov	 DWORD PTR fs:0, ecx
  00225	59		 pop	 ecx
  00226	5f		 pop	 edi
  00227	5e		 pop	 esi
  00228	5b		 pop	 ebx
  00229	8b 4d f0	 mov	 ecx, DWORD PTR __$ArrayPad$[ebp]
  0022c	33 cd		 xor	 ecx, ebp
  0022e	e8 00 00 00 00	 call	 @__security_check_cookie@4
  00233	8b e5		 mov	 esp, ebp
  00235	5d		 pop	 ebp
  00236	c2 08 00	 ret	 8
$LN20@EditSubIte:
; File C:\Program Files (x86)\Microsoft Visual Studio\2019\Community\VC\Tools\MSVC\14.29.30133\atlmfc\include\afxcoll.inl

; 43   : 			AfxThrowInvalidArgException();

  00239	e8 00 00 00 00	 call	 ?AfxThrowInvalidArgException@@YGXXZ ; AfxThrowInvalidArgException
$LN54@EditSubIte:
  0023e	cc		 int	 3
_TEXT	ENDS
;	COMDAT text$x
text$x	SEGMENT
__unwindfunclet$?EditSubItem@CEditableListCtrl@@UAEHHH@Z$0:
  00000	8d 4d cc	 lea	 ecx, DWORD PTR $T2[ebp]
  00003	ff 25 00 00 00
	00		 jmp	 DWORD PTR __imp_??1?$CStringT@DV?$StrTraitMFC_DLL@DV?$ChTraitsCRT@D@ATL@@@@@ATL@@QAE@XZ
  00009	cc		 int	 3
  0000a	cc		 int	 3
  0000b	cc		 int	 3
  0000c	cc		 int	 3
  0000d	cc		 int	 3
__ehhandler$?EditSubItem@CEditableListCtrl@@UAEHHH@Z:
  0000e	90		 npad	 1
  0000f	90		 npad	 1
  00010	8b 54 24 08	 mov	 edx, DWORD PTR [esp+8]
  00014	8d 42 0c	 lea	 eax, DWORD PTR [edx+12]
  00017	8b 4a c8	 mov	 ecx, DWORD PTR [edx-56]
  0001a	33 c8		 xor	 ecx, eax
  0001c	e8 00 00 00 00	 call	 @__security_check_cookie@4
  00021	8b 4a fc	 mov	 ecx, DWORD PTR [edx-4]
  00024	33 c8		 xor	 ecx, eax
  00026	e8 00 00 00 00	 call	 @__security_check_cookie@4
  0002b	b8 00 00 00 00	 mov	 eax, OFFSET __ehfuncinfo$?EditSubItem@CEditableListCtrl@@UAEHHH@Z
  00030	e9 00 00 00 00	 jmp	 ___CxxFrameHandler3
text$x	ENDS
?EditSubItem@CEditableListCtrl@@UAEHHH@Z ENDP		; CEditableListCtrl::EditSubItem
; Function compile flags: /Ogtp
; File D:\git\src\IBK\IBK_DRFN\ProjSrc\SrcChartEx\ChartAddIn\ChartDesignPropertyAddIn\ChartDesignPropertyAddIn\EditableListCtrl.cpp
; File C:\Program Files (x86)\Microsoft Visual Studio\2019\Community\VC\Tools\MSVC\14.29.30133\atlmfc\include\afxcmn2.inl
; File D:\git\src\IBK\IBK_DRFN\ProjSrc\SrcChartEx\ChartAddIn\ChartDesignPropertyAddIn\ChartDesignPropertyAddIn\EditableListCtrl.cpp
; File C:\Program Files (x86)\Microsoft Visual Studio\2019\Community\VC\Tools\MSVC\14.29.30133\atlmfc\include\afxcmn2.inl
; File D:\git\src\IBK\IBK_DRFN\ProjSrc\SrcChartEx\ChartAddIn\ChartDesignPropertyAddIn\ChartDesignPropertyAddIn\EditableListCtrl.cpp
;	COMDAT ?EditSubItem@CEditableListCtrl@@QAEXVCPoint@@@Z
_TEXT	SEGMENT
_lvInfo$ = -28						; size = 24
__$ArrayPad$ = -4					; size = 4
_point$ = 8						; size = 8
?EditSubItem@CEditableListCtrl@@QAEXVCPoint@@@Z PROC	; CEditableListCtrl::EditSubItem, COMDAT
; _this$ = ecx

; 122  : {

  00000	55		 push	 ebp
  00001	8b ec		 mov	 ebp, esp
  00003	83 ec 1c	 sub	 esp, 28			; 0000001cH
  00006	a1 00 00 00 00	 mov	 eax, DWORD PTR ___security_cookie
  0000b	33 c5		 xor	 eax, ebp
  0000d	89 45 fc	 mov	 DWORD PTR __$ArrayPad$[ebp], eax

; 126  : 	lvInfo.pt = point;

  00010	8b 45 08	 mov	 eax, DWORD PTR _point$[ebp]
  00013	56		 push	 esi
  00014	89 45 e4	 mov	 DWORD PTR _lvInfo$[ebp], eax
  00017	8b f1		 mov	 esi, ecx
  00019	8b 4d 0c	 mov	 ecx, DWORD PTR _point$[ebp+4]
; File C:\Program Files (x86)\Microsoft Visual Studio\2019\Community\VC\Tools\MSVC\14.29.30133\atlmfc\include\afxcmn2.inl

; 125  : 	{ ASSERT(::IsWindow(m_hWnd)); return (int) ::SendMessage(m_hWnd, LVM_SUBITEMHITTEST, 0, (LPARAM) pInfo); }

  0001c	8d 45 e4	 lea	 eax, DWORD PTR _lvInfo$[ebp]
  0001f	50		 push	 eax
  00020	6a 00		 push	 0
  00022	68 39 10 00 00	 push	 4153			; 00001039H
  00027	ff 76 20	 push	 DWORD PTR [esi+32]
; File D:\git\src\IBK\IBK_DRFN\ProjSrc\SrcChartEx\ChartAddIn\ChartDesignPropertyAddIn\ChartDesignPropertyAddIn\EditableListCtrl.cpp

; 126  : 	lvInfo.pt = point;

  0002a	89 4d e8	 mov	 DWORD PTR _lvInfo$[ebp+4], ecx
; File C:\Program Files (x86)\Microsoft Visual Studio\2019\Community\VC\Tools\MSVC\14.29.30133\atlmfc\include\afxcmn2.inl

; 125  : 	{ ASSERT(::IsWindow(m_hWnd)); return (int) ::SendMessage(m_hWnd, LVM_SUBITEMHITTEST, 0, (LPARAM) pInfo); }

  0002d	ff 15 00 00 00
	00		 call	 DWORD PTR __imp__SendMessageA@16
; File D:\git\src\IBK\IBK_DRFN\ProjSrc\SrcChartEx\ChartAddIn\ChartDesignPropertyAddIn\ChartDesignPropertyAddIn\EditableListCtrl.cpp

; 130  : 	EditSubItem( lvInfo.iItem, lvInfo.iSubItem);

  00033	ff 75 f4	 push	 DWORD PTR _lvInfo$[ebp+16]
  00036	8b 06		 mov	 eax, DWORD PTR [esi]
  00038	8b ce		 mov	 ecx, esi
  0003a	ff 75 f0	 push	 DWORD PTR _lvInfo$[ebp+12]
  0003d	ff 90 70 01 00
	00		 call	 DWORD PTR [eax+368]

; 131  : }

  00043	8b 4d fc	 mov	 ecx, DWORD PTR __$ArrayPad$[ebp]
  00046	33 cd		 xor	 ecx, ebp
  00048	5e		 pop	 esi
  00049	e8 00 00 00 00	 call	 @__security_check_cookie@4
  0004e	8b e5		 mov	 esp, ebp
  00050	5d		 pop	 ebp
  00051	c2 08 00	 ret	 8
?EditSubItem@CEditableListCtrl@@QAEXVCPoint@@@Z ENDP	; CEditableListCtrl::EditSubItem
_TEXT	ENDS
; Function compile flags: /Ogtp
; File D:\git\src\IBK\IBK_DRFN\ProjSrc\SrcChartEx\ChartAddIn\ChartDesignPropertyAddIn\ChartDesignPropertyAddIn\EditableListCtrl.cpp
;	COMDAT ?GetMessageMap@CEditableListCtrl@@MBEPBUAFX_MSGMAP@@XZ
_TEXT	SEGMENT
?GetMessageMap@CEditableListCtrl@@MBEPBUAFX_MSGMAP@@XZ PROC ; CEditableListCtrl::GetMessageMap, COMDAT
; _this$ = ecx

; 45   : BEGIN_MESSAGE_MAP(CEditableListCtrl, CListCtrl)

  00000	b8 00 00 00 00	 mov	 eax, OFFSET ?messageMap@?1??GetThisMessageMap@CEditableListCtrl@@KGPBUAFX_MSGMAP@@XZ@4U3@B
  00005	c3		 ret	 0
?GetMessageMap@CEditableListCtrl@@MBEPBUAFX_MSGMAP@@XZ ENDP ; CEditableListCtrl::GetMessageMap
_TEXT	ENDS
; Function compile flags: /Ogtp
; File D:\git\src\IBK\IBK_DRFN\ProjSrc\SrcChartEx\ChartAddIn\ChartDesignPropertyAddIn\ChartDesignPropertyAddIn\EditableListCtrl.cpp
;	COMDAT ?GetThisMessageMap@CEditableListCtrl@@KGPBUAFX_MSGMAP@@XZ
_TEXT	SEGMENT
?GetThisMessageMap@CEditableListCtrl@@KGPBUAFX_MSGMAP@@XZ PROC ; CEditableListCtrl::GetThisMessageMap, COMDAT

; 46   : 	//{{AFX_MSG_MAP(CEditableListCtrl)
; 47   : 	ON_WM_LBUTTONDBLCLK()
; 48   : 	ON_NOTIFY_REFLECT(LVN_BEGINLABELEDIT, OnBeginlabeledit)
; 49   : 	ON_WM_KEYDOWN()
; 50   : 	ON_WM_VSCROLL()
; 51   : 	ON_WM_HSCROLL()
; 52   : 	ON_WM_MOUSEWHEEL()
; 53   : 	//}}AFX_MSG_MAP
; 54   : END_MESSAGE_MAP()

  00000	b8 00 00 00 00	 mov	 eax, OFFSET ?messageMap@?1??GetThisMessageMap@CEditableListCtrl@@KGPBUAFX_MSGMAP@@XZ@4U3@B
  00005	c3		 ret	 0
?GetThisMessageMap@CEditableListCtrl@@KGPBUAFX_MSGMAP@@XZ ENDP ; CEditableListCtrl::GetThisMessageMap
_TEXT	ENDS
; Function compile flags: /Ogtp
; File D:\git\src\IBK\IBK_DRFN\ProjSrc\SrcChartEx\ChartAddIn\ChartDesignPropertyAddIn\ChartDesignPropertyAddIn\EditableListCtrl.cpp
; File C:\Program Files (x86)\Microsoft Visual Studio\2019\Community\VC\Tools\MSVC\14.29.30133\atlmfc\include\afxwin2.inl
; File D:\git\src\IBK\IBK_DRFN\ProjSrc\SrcChartEx\ChartAddIn\ChartDesignPropertyAddIn\ChartDesignPropertyAddIn\EditableListCtrl.cpp
;	COMDAT ?OnMouseWheel@CEditableListCtrl@@IAEHIFVCPoint@@@Z
_TEXT	SEGMENT
_nFlags$ = 8						; size = 4
_zDelta$ = 12						; size = 2
_pt$ = 16						; size = 8
?OnMouseWheel@CEditableListCtrl@@IAEHIFVCPoint@@@Z PROC	; CEditableListCtrl::OnMouseWheel, COMDAT
; _this$ = ecx

; 272  : {

  00000	56		 push	 esi
  00001	8b f1		 mov	 esi, ecx

; 273  : 	// TODO: Add your message handler code here and/or call default
; 274  : 	m_pLabelEdit->ShowWindow( SW_HIDE);

  00003	6a 00		 push	 0
  00005	8b 8e 94 00 00
	00		 mov	 ecx, DWORD PTR [esi+148]
  0000b	e8 00 00 00 00	 call	 ?ShowWindow@CWnd@@QAEHH@Z ; CWnd::ShowWindow
; File C:\Program Files (x86)\Microsoft Visual Studio\2019\Community\VC\Tools\MSVC\14.29.30133\atlmfc\include\afxwin2.inl

; 458  : 	{ return (BOOL)Default(); }

  00010	8b ce		 mov	 ecx, esi
  00012	e8 00 00 00 00	 call	 ?Default@CWnd@@IAEJXZ	; CWnd::Default
; File D:\git\src\IBK\IBK_DRFN\ProjSrc\SrcChartEx\ChartAddIn\ChartDesignPropertyAddIn\ChartDesignPropertyAddIn\EditableListCtrl.cpp

; 276  : 	return CListCtrl::OnMouseWheel(nFlags, zDelta, pt);

  00017	5e		 pop	 esi

; 277  : }

  00018	c2 10 00	 ret	 16			; 00000010H
?OnMouseWheel@CEditableListCtrl@@IAEHIFVCPoint@@@Z ENDP	; CEditableListCtrl::OnMouseWheel
_TEXT	ENDS
; Function compile flags: /Ogtp
; File D:\git\src\IBK\IBK_DRFN\ProjSrc\SrcChartEx\ChartAddIn\ChartDesignPropertyAddIn\ChartDesignPropertyAddIn\EditableListCtrl.cpp
;	COMDAT ?OnHScroll@CEditableListCtrl@@IAEXIIPAVCScrollBar@@@Z
_TEXT	SEGMENT
_nSBCode$ = 8						; size = 4
_nPos$ = 12						; size = 4
_pScrollBar$ = 16					; size = 4
?OnHScroll@CEditableListCtrl@@IAEXIIPAVCScrollBar@@@Z PROC ; CEditableListCtrl::OnHScroll, COMDAT
; _this$ = ecx

; 265  : {

  00000	55		 push	 ebp
  00001	8b ec		 mov	 ebp, esp
  00003	56		 push	 esi
  00004	8b f1		 mov	 esi, ecx

; 266  : 	// TODO: Add your message handler code here and/or call default
; 267  : 	m_pLabelEdit->ShowWindow( SW_HIDE);

  00006	6a 00		 push	 0
  00008	8b 8e 94 00 00
	00		 mov	 ecx, DWORD PTR [esi+148]
  0000e	e8 00 00 00 00	 call	 ?ShowWindow@CWnd@@QAEHH@Z ; CWnd::ShowWindow

; 268  : 	
; 269  : 	CListCtrl::OnHScroll(nSBCode, nPos, pScrollBar);

  00013	ff 75 10	 push	 DWORD PTR _pScrollBar$[ebp]
  00016	8b ce		 mov	 ecx, esi
  00018	ff 75 0c	 push	 DWORD PTR _nPos$[ebp]
  0001b	ff 75 08	 push	 DWORD PTR _nSBCode$[ebp]
  0001e	e8 00 00 00 00	 call	 ?OnHScroll@CWnd@@IAEXIIPAVCScrollBar@@@Z ; CWnd::OnHScroll
  00023	5e		 pop	 esi

; 270  : }

  00024	5d		 pop	 ebp
  00025	c2 0c 00	 ret	 12			; 0000000cH
?OnHScroll@CEditableListCtrl@@IAEXIIPAVCScrollBar@@@Z ENDP ; CEditableListCtrl::OnHScroll
_TEXT	ENDS
; Function compile flags: /Ogtp
; File D:\git\src\IBK\IBK_DRFN\ProjSrc\SrcChartEx\ChartAddIn\ChartDesignPropertyAddIn\ChartDesignPropertyAddIn\EditableListCtrl.cpp
;	COMDAT ?OnVScroll@CEditableListCtrl@@IAEXIIPAVCScrollBar@@@Z
_TEXT	SEGMENT
_nSBCode$ = 8						; size = 4
_nPos$ = 12						; size = 4
_pScrollBar$ = 16					; size = 4
?OnVScroll@CEditableListCtrl@@IAEXIIPAVCScrollBar@@@Z PROC ; CEditableListCtrl::OnVScroll, COMDAT
; _this$ = ecx

; 258  : {

  00000	55		 push	 ebp
  00001	8b ec		 mov	 ebp, esp
  00003	56		 push	 esi
  00004	8b f1		 mov	 esi, ecx

; 259  : 	// TODO: Add your message handler code here and/or call default
; 260  : 	m_pLabelEdit->ShowWindow( SW_HIDE);

  00006	6a 00		 push	 0
  00008	8b 8e 94 00 00
	00		 mov	 ecx, DWORD PTR [esi+148]
  0000e	e8 00 00 00 00	 call	 ?ShowWindow@CWnd@@QAEHH@Z ; CWnd::ShowWindow

; 261  : 	
; 262  : 	CListCtrl::OnVScroll(nSBCode, nPos, pScrollBar);

  00013	ff 75 10	 push	 DWORD PTR _pScrollBar$[ebp]
  00016	8b ce		 mov	 ecx, esi
  00018	ff 75 0c	 push	 DWORD PTR _nPos$[ebp]
  0001b	ff 75 08	 push	 DWORD PTR _nSBCode$[ebp]
  0001e	e8 00 00 00 00	 call	 ?OnVScroll@CWnd@@IAEXIIPAVCScrollBar@@@Z ; CWnd::OnVScroll
  00023	5e		 pop	 esi

; 263  : }

  00024	5d		 pop	 ebp
  00025	c2 0c 00	 ret	 12			; 0000000cH
?OnVScroll@CEditableListCtrl@@IAEXIIPAVCScrollBar@@@Z ENDP ; CEditableListCtrl::OnVScroll
_TEXT	ENDS
; Function compile flags: /Ogtp
; File D:\git\src\IBK\IBK_DRFN\ProjSrc\SrcChartEx\ChartAddIn\ChartDesignPropertyAddIn\ChartDesignPropertyAddIn\EditableListCtrl.cpp
; File C:\Program Files (x86)\Microsoft Visual Studio\2019\Community\VC\Tools\MSVC\14.29.30133\atlmfc\include\afxwin2.inl
; File D:\git\src\IBK\IBK_DRFN\ProjSrc\SrcChartEx\ChartAddIn\ChartDesignPropertyAddIn\ChartDesignPropertyAddIn\EditableListCtrl.cpp
;	COMDAT ?OnKeyDown@CEditableListCtrl@@IAEXIII@Z
_TEXT	SEGMENT
_nChar$ = 8						; size = 4
_nRepCnt$ = 12						; size = 4
_nFlags$ = 16						; size = 4
?OnKeyDown@CEditableListCtrl@@IAEXIII@Z PROC		; CEditableListCtrl::OnKeyDown, COMDAT
; _this$ = ecx

; 225  : {

  00000	55		 push	 ebp
  00001	8b ec		 mov	 ebp, esp

; 226  : 	// TODO: Add your message handler code here and/or call default
; 227  : 	
; 228  : 	if( nChar == VK_F2)	StartEditSubItem();

  00003	83 7d 08 71	 cmp	 DWORD PTR _nChar$[ebp], 113 ; 00000071H
  00007	56		 push	 esi
  00008	8b f1		 mov	 esi, ecx
  0000a	75 05		 jne	 SHORT $LN2@OnKeyDown
  0000c	e8 00 00 00 00	 call	 ?StartEditSubItem@CEditableListCtrl@@IAEXXZ ; CEditableListCtrl::StartEditSubItem
$LN2@OnKeyDown:
; File C:\Program Files (x86)\Microsoft Visual Studio\2019\Community\VC\Tools\MSVC\14.29.30133\atlmfc\include\afxwin2.inl

; 424  : 	{ Default(); }

  00011	8b ce		 mov	 ecx, esi
  00013	e8 00 00 00 00	 call	 ?Default@CWnd@@IAEJXZ	; CWnd::Default
  00018	5e		 pop	 esi
; File D:\git\src\IBK\IBK_DRFN\ProjSrc\SrcChartEx\ChartAddIn\ChartDesignPropertyAddIn\ChartDesignPropertyAddIn\EditableListCtrl.cpp

; 231  : }

  00019	5d		 pop	 ebp
  0001a	c2 0c 00	 ret	 12			; 0000000cH
?OnKeyDown@CEditableListCtrl@@IAEXIII@Z ENDP		; CEditableListCtrl::OnKeyDown
_TEXT	ENDS
; Function compile flags: /Ogtp
; File D:\git\src\IBK\IBK_DRFN\ProjSrc\SrcChartEx\ChartAddIn\ChartDesignPropertyAddIn\ChartDesignPropertyAddIn\EditableListCtrl.cpp
; File C:\Program Files (x86)\Microsoft Visual Studio\2019\Community\VC\Tools\MSVC\14.29.30133\atlmfc\include\atltypes.h
; File D:\git\src\IBK\IBK_DRFN\ProjSrc\SrcChartEx\ChartAddIn\ChartDesignPropertyAddIn\ChartDesignPropertyAddIn\EditableListCtrl.cpp
; File C:\Program Files (x86)\Microsoft Visual Studio\2019\Community\VC\Tools\MSVC\14.29.30133\atlmfc\include\afxwin2.inl
; File D:\git\src\IBK\IBK_DRFN\ProjSrc\SrcChartEx\ChartAddIn\ChartDesignPropertyAddIn\ChartDesignPropertyAddIn\EditableListCtrl.cpp
; File C:\Program Files (x86)\Microsoft Visual Studio\2019\Community\VC\Tools\MSVC\14.29.30133\atlmfc\include\afxcmn2.inl
; File D:\git\src\IBK\IBK_DRFN\ProjSrc\SrcChartEx\ChartAddIn\ChartDesignPropertyAddIn\ChartDesignPropertyAddIn\EditableListCtrl.cpp
; File C:\Program Files (x86)\Microsoft Visual Studio\2019\Community\VC\Tools\MSVC\14.29.30133\atlmfc\include\afxcmn2.inl
; File D:\git\src\IBK\IBK_DRFN\ProjSrc\SrcChartEx\ChartAddIn\ChartDesignPropertyAddIn\ChartDesignPropertyAddIn\EditableListCtrl.cpp
;	COMDAT ?OnBeginlabeledit@CEditableListCtrl@@IAEXPAUtagNMHDR@@PAJ@Z
_TEXT	SEGMENT
_point$ = -36						; size = 8
_lvInfo$1 = -28						; size = 24
__$ArrayPad$ = -4					; size = 4
_pNMHDR$ = 8						; size = 4
_pResult$ = 12						; size = 4
?OnBeginlabeledit@CEditableListCtrl@@IAEXPAUtagNMHDR@@PAJ@Z PROC ; CEditableListCtrl::OnBeginlabeledit, COMDAT
; _this$ = ecx

; 101  : {

  00000	55		 push	 ebp
  00001	8b ec		 mov	 ebp, esp
  00003	83 ec 24	 sub	 esp, 36			; 00000024H
  00006	a1 00 00 00 00	 mov	 eax, DWORD PTR ___security_cookie
  0000b	33 c5		 xor	 eax, ebp
  0000d	89 45 fc	 mov	 DWORD PTR __$ArrayPad$[ebp], eax
  00010	56		 push	 esi
  00011	57		 push	 edi
  00012	8b 7d 0c	 mov	 edi, DWORD PTR _pResult$[ebp]

; 106  : 	GetCursorPos(&point);

  00015	8d 45 dc	 lea	 eax, DWORD PTR _point$[ebp]
  00018	50		 push	 eax
  00019	8b f1		 mov	 esi, ecx
; File C:\Program Files (x86)\Microsoft Visual Studio\2019\Community\VC\Tools\MSVC\14.29.30133\atlmfc\include\atltypes.h

; 400  : 	x = 0;

  0001b	c7 45 dc 00 00
	00 00		 mov	 DWORD PTR _point$[ebp], 0

; 401  : 	y = 0;

  00022	c7 45 e0 00 00
	00 00		 mov	 DWORD PTR _point$[ebp+4], 0
; File D:\git\src\IBK\IBK_DRFN\ProjSrc\SrcChartEx\ChartAddIn\ChartDesignPropertyAddIn\ChartDesignPropertyAddIn\EditableListCtrl.cpp

; 106  : 	GetCursorPos(&point);

  00029	ff 15 00 00 00
	00		 call	 DWORD PTR __imp__GetCursorPos@4
; File C:\Program Files (x86)\Microsoft Visual Studio\2019\Community\VC\Tools\MSVC\14.29.30133\atlmfc\include\afxwin2.inl

; 94   : 	{ ASSERT(::IsWindow(m_hWnd)); ::ScreenToClient(m_hWnd, lpPoint); }

  0002f	8d 45 dc	 lea	 eax, DWORD PTR _point$[ebp]
  00032	50		 push	 eax
  00033	ff 76 20	 push	 DWORD PTR [esi+32]
  00036	ff 15 00 00 00
	00		 call	 DWORD PTR __imp__ScreenToClient@8
; File D:\git\src\IBK\IBK_DRFN\ProjSrc\SrcChartEx\ChartAddIn\ChartDesignPropertyAddIn\ChartDesignPropertyAddIn\EditableListCtrl.cpp

; 126  : 	lvInfo.pt = point;

  0003c	8b 45 dc	 mov	 eax, DWORD PTR _point$[ebp]
  0003f	8b 4d e0	 mov	 ecx, DWORD PTR _point$[ebp+4]
  00042	89 45 e4	 mov	 DWORD PTR _lvInfo$1[ebp], eax
; File C:\Program Files (x86)\Microsoft Visual Studio\2019\Community\VC\Tools\MSVC\14.29.30133\atlmfc\include\afxcmn2.inl

; 125  : 	{ ASSERT(::IsWindow(m_hWnd)); return (int) ::SendMessage(m_hWnd, LVM_SUBITEMHITTEST, 0, (LPARAM) pInfo); }

  00045	8d 45 e4	 lea	 eax, DWORD PTR _lvInfo$1[ebp]
  00048	50		 push	 eax
  00049	6a 00		 push	 0
  0004b	68 39 10 00 00	 push	 4153			; 00001039H
  00050	ff 76 20	 push	 DWORD PTR [esi+32]
; File D:\git\src\IBK\IBK_DRFN\ProjSrc\SrcChartEx\ChartAddIn\ChartDesignPropertyAddIn\ChartDesignPropertyAddIn\EditableListCtrl.cpp

; 126  : 	lvInfo.pt = point;

  00053	89 4d e8	 mov	 DWORD PTR _lvInfo$1[ebp+4], ecx
; File C:\Program Files (x86)\Microsoft Visual Studio\2019\Community\VC\Tools\MSVC\14.29.30133\atlmfc\include\afxcmn2.inl

; 125  : 	{ ASSERT(::IsWindow(m_hWnd)); return (int) ::SendMessage(m_hWnd, LVM_SUBITEMHITTEST, 0, (LPARAM) pInfo); }

  00056	ff 15 00 00 00
	00		 call	 DWORD PTR __imp__SendMessageA@16
; File D:\git\src\IBK\IBK_DRFN\ProjSrc\SrcChartEx\ChartAddIn\ChartDesignPropertyAddIn\ChartDesignPropertyAddIn\EditableListCtrl.cpp

; 130  : 	EditSubItem( lvInfo.iItem, lvInfo.iSubItem);

  0005c	ff 75 f4	 push	 DWORD PTR _lvInfo$1[ebp+16]
  0005f	8b 06		 mov	 eax, DWORD PTR [esi]
  00061	8b ce		 mov	 ecx, esi
  00063	ff 75 f0	 push	 DWORD PTR _lvInfo$1[ebp+12]
  00066	ff 90 70 01 00
	00		 call	 DWORD PTR [eax+368]

; 107  : 	ScreenToClient(&point);
; 108  : 
; 109  : 	EditSubItem( point);
; 110  : 
; 111  : 	*pResult = 1;
; 112  : }

  0006c	8b 4d fc	 mov	 ecx, DWORD PTR __$ArrayPad$[ebp]
  0006f	c7 07 01 00 00
	00		 mov	 DWORD PTR [edi], 1
  00075	33 cd		 xor	 ecx, ebp
  00077	5f		 pop	 edi
  00078	5e		 pop	 esi
  00079	e8 00 00 00 00	 call	 @__security_check_cookie@4
  0007e	8b e5		 mov	 esp, ebp
  00080	5d		 pop	 ebp
  00081	c2 08 00	 ret	 8
?OnBeginlabeledit@CEditableListCtrl@@IAEXPAUtagNMHDR@@PAJ@Z ENDP ; CEditableListCtrl::OnBeginlabeledit
_TEXT	ENDS
; Function compile flags: /Ogtp
; File D:\git\src\IBK\IBK_DRFN\ProjSrc\SrcChartEx\ChartAddIn\ChartDesignPropertyAddIn\ChartDesignPropertyAddIn\EditableListCtrl.cpp
; File C:\Program Files (x86)\Microsoft Visual Studio\2019\Community\VC\Tools\MSVC\14.29.30133\atlmfc\include\afxcmn2.inl
; File D:\git\src\IBK\IBK_DRFN\ProjSrc\SrcChartEx\ChartAddIn\ChartDesignPropertyAddIn\ChartDesignPropertyAddIn\EditableListCtrl.cpp
; File C:\Program Files (x86)\Microsoft Visual Studio\2019\Community\VC\Tools\MSVC\14.29.30133\atlmfc\include\afxcmn2.inl
; File D:\git\src\IBK\IBK_DRFN\ProjSrc\SrcChartEx\ChartAddIn\ChartDesignPropertyAddIn\ChartDesignPropertyAddIn\EditableListCtrl.cpp
; File C:\Program Files (x86)\Microsoft Visual Studio\2019\Community\VC\Tools\MSVC\14.29.30133\atlmfc\include\afxwin2.inl
; File D:\git\src\IBK\IBK_DRFN\ProjSrc\SrcChartEx\ChartAddIn\ChartDesignPropertyAddIn\ChartDesignPropertyAddIn\EditableListCtrl.cpp
; File C:\Program Files (x86)\Microsoft Visual Studio\2019\Community\VC\Tools\MSVC\14.29.30133\atlmfc\include\afxwin2.inl
; File D:\git\src\IBK\IBK_DRFN\ProjSrc\SrcChartEx\ChartAddIn\ChartDesignPropertyAddIn\ChartDesignPropertyAddIn\EditableListCtrl.cpp
;	COMDAT ?OnLButtonDblClk@CEditableListCtrl@@IAEXIVCPoint@@@Z
_TEXT	SEGMENT
_lvInfo$1 = -28						; size = 24
__$ArrayPad$ = -4					; size = 4
_nFlags$ = 8						; size = 4
_point$ = 12						; size = 8
?OnLButtonDblClk@CEditableListCtrl@@IAEXIVCPoint@@@Z PROC ; CEditableListCtrl::OnLButtonDblClk, COMDAT
; _this$ = ecx

; 114  : {

  00000	55		 push	 ebp
  00001	8b ec		 mov	 ebp, esp
  00003	83 ec 1c	 sub	 esp, 28			; 0000001cH
  00006	a1 00 00 00 00	 mov	 eax, DWORD PTR ___security_cookie
  0000b	33 c5		 xor	 eax, ebp
  0000d	89 45 fc	 mov	 DWORD PTR __$ArrayPad$[ebp], eax

; 126  : 	lvInfo.pt = point;

  00010	8b 45 0c	 mov	 eax, DWORD PTR _point$[ebp]

; 114  : {

  00013	56		 push	 esi

; 126  : 	lvInfo.pt = point;

  00014	89 45 e4	 mov	 DWORD PTR _lvInfo$1[ebp], eax

; 114  : {

  00017	8b f1		 mov	 esi, ecx

; 126  : 	lvInfo.pt = point;

  00019	8b 4d 10	 mov	 ecx, DWORD PTR _point$[ebp+4]
; File C:\Program Files (x86)\Microsoft Visual Studio\2019\Community\VC\Tools\MSVC\14.29.30133\atlmfc\include\afxcmn2.inl

; 125  : 	{ ASSERT(::IsWindow(m_hWnd)); return (int) ::SendMessage(m_hWnd, LVM_SUBITEMHITTEST, 0, (LPARAM) pInfo); }

  0001c	8d 45 e4	 lea	 eax, DWORD PTR _lvInfo$1[ebp]
  0001f	50		 push	 eax
  00020	6a 00		 push	 0
  00022	68 39 10 00 00	 push	 4153			; 00001039H
  00027	ff 76 20	 push	 DWORD PTR [esi+32]
; File D:\git\src\IBK\IBK_DRFN\ProjSrc\SrcChartEx\ChartAddIn\ChartDesignPropertyAddIn\ChartDesignPropertyAddIn\EditableListCtrl.cpp

; 126  : 	lvInfo.pt = point;

  0002a	89 4d e8	 mov	 DWORD PTR _lvInfo$1[ebp+4], ecx
; File C:\Program Files (x86)\Microsoft Visual Studio\2019\Community\VC\Tools\MSVC\14.29.30133\atlmfc\include\afxcmn2.inl

; 125  : 	{ ASSERT(::IsWindow(m_hWnd)); return (int) ::SendMessage(m_hWnd, LVM_SUBITEMHITTEST, 0, (LPARAM) pInfo); }

  0002d	ff 15 00 00 00
	00		 call	 DWORD PTR __imp__SendMessageA@16
; File D:\git\src\IBK\IBK_DRFN\ProjSrc\SrcChartEx\ChartAddIn\ChartDesignPropertyAddIn\ChartDesignPropertyAddIn\EditableListCtrl.cpp

; 130  : 	EditSubItem( lvInfo.iItem, lvInfo.iSubItem);

  00033	ff 75 f4	 push	 DWORD PTR _lvInfo$1[ebp+16]
  00036	8b 06		 mov	 eax, DWORD PTR [esi]
  00038	8b ce		 mov	 ecx, esi
  0003a	ff 75 f0	 push	 DWORD PTR _lvInfo$1[ebp+12]
  0003d	ff 90 70 01 00
	00		 call	 DWORD PTR [eax+368]
; File C:\Program Files (x86)\Microsoft Visual Studio\2019\Community\VC\Tools\MSVC\14.29.30133\atlmfc\include\afxwin2.inl

; 430  : 	{ Default(); }

  00043	8b ce		 mov	 ecx, esi
  00045	e8 00 00 00 00	 call	 ?Default@CWnd@@IAEJXZ	; CWnd::Default
; File D:\git\src\IBK\IBK_DRFN\ProjSrc\SrcChartEx\ChartAddIn\ChartDesignPropertyAddIn\ChartDesignPropertyAddIn\EditableListCtrl.cpp

; 120  : }

  0004a	8b 4d fc	 mov	 ecx, DWORD PTR __$ArrayPad$[ebp]
  0004d	33 cd		 xor	 ecx, ebp
; File C:\Program Files (x86)\Microsoft Visual Studio\2019\Community\VC\Tools\MSVC\14.29.30133\atlmfc\include\afxwin2.inl

; 430  : 	{ Default(); }

  0004f	5e		 pop	 esi
; File D:\git\src\IBK\IBK_DRFN\ProjSrc\SrcChartEx\ChartAddIn\ChartDesignPropertyAddIn\ChartDesignPropertyAddIn\EditableListCtrl.cpp

; 120  : }

  00050	e8 00 00 00 00	 call	 @__security_check_cookie@4
  00055	8b e5		 mov	 esp, ebp
  00057	5d		 pop	 ebp
  00058	c2 0c 00	 ret	 12			; 0000000cH
?OnLButtonDblClk@CEditableListCtrl@@IAEXIVCPoint@@@Z ENDP ; CEditableListCtrl::OnLButtonDblClk
_TEXT	ENDS
; Function compile flags: /Ogtp
; File D:\git\src\IBK\IBK_DRFN\ProjSrc\SrcChartEx\ChartAddIn\ChartDesignPropertyAddIn\ChartDesignPropertyAddIn\EditableListCtrl.cpp
;	COMDAT ??1CEditableListCtrl@@UAE@XZ
_TEXT	SEGMENT
??1CEditableListCtrl@@UAE@XZ PROC			; CEditableListCtrl::~CEditableListCtrl, COMDAT
; _this$ = ecx

; 32   : {

  00000	56		 push	 esi
  00001	8b f1		 mov	 esi, ecx

; 33   : 
; 34   : ///////////////////////////////////////////////////////////////////////////////
; 35   : //	작업자	:	배승원(Seung-Won, Bae)
; 36   : //	E-Mail	:	radox@dooriic.co.kr
; 37   : //	일자	:	2003.01.08
; 38   : //
; 39   : //	목적	:	Label 편집시의 Edit Control을 관리한다.
; 40   : ///////////////////////////////////////////////////////////////////////////////
; 41   : 	delete m_pLabelEdit;

  00003	8b 8e 94 00 00
	00		 mov	 ecx, DWORD PTR [esi+148]
  00009	c7 06 00 00 00
	00		 mov	 DWORD PTR [esi], OFFSET ??_7CEditableListCtrl@@6B@
  0000f	85 c9		 test	 ecx, ecx
  00011	74 07		 je	 SHORT $LN3@CEditableL
  00013	8b 01		 mov	 eax, DWORD PTR [ecx]
  00015	6a 01		 push	 1
  00017	ff 50 04	 call	 DWORD PTR [eax+4]
$LN3@CEditableL:

; 42   : }

  0001a	8d 8e 80 00 00
	00		 lea	 ecx, DWORD PTR [esi+128]
  00020	e8 00 00 00 00	 call	 ??1CByteArray@@UAE@XZ	; CByteArray::~CByteArray
  00025	8b ce		 mov	 ecx, esi
  00027	5e		 pop	 esi
  00028	e9 00 00 00 00	 jmp	 ??1CListCtrl@@UAE@XZ	; CListCtrl::~CListCtrl
??1CEditableListCtrl@@UAE@XZ ENDP			; CEditableListCtrl::~CEditableListCtrl
_TEXT	ENDS
; Function compile flags: /Ogtp
; File D:\git\src\IBK\IBK_DRFN\ProjSrc\SrcChartEx\ChartAddIn\ChartDesignPropertyAddIn\ChartDesignPropertyAddIn\EditableListCtrl.cpp
; File C:\Program Files (x86)\Microsoft Visual Studio\2019\Community\VC\Tools\MSVC\14.29.30133\atlmfc\include\afxcmn2.inl
; File D:\git\src\IBK\IBK_DRFN\ProjSrc\SrcChartEx\ChartAddIn\ChartDesignPropertyAddIn\ChartDesignPropertyAddIn\EditableListCtrl.cpp
; File C:\Program Files (x86)\Microsoft Visual Studio\2019\Community\VC\Tools\MSVC\14.29.30133\atlmfc\include\atltypes.h
; File D:\git\src\IBK\IBK_DRFN\ProjSrc\SrcChartEx\ChartAddIn\ChartDesignPropertyAddIn\ChartDesignPropertyAddIn\EditableListCtrl.cpp
; File C:\Program Files (x86)\Microsoft Visual Studio\2019\Community\VC\Tools\MSVC\14.29.30133\atlmfc\include\afxwin2.inl
; File C:\Program Files (x86)\Microsoft Visual Studio\2019\Community\VC\Tools\MSVC\14.29.30133\atlmfc\include\afxwin1.inl
; File D:\git\src\IBK\IBK_DRFN\ProjSrc\SrcChartEx\ChartAddIn\ChartDesignPropertyAddIn\ChartDesignPropertyAddIn\EditableListCtrl.cpp
; File C:\Program Files (x86)\Microsoft Visual Studio\2019\Community\VC\Tools\MSVC\14.29.30133\atlmfc\include\afxwin1.inl
; File C:\Program Files (x86)\Microsoft Visual Studio\2019\Community\VC\Tools\MSVC\14.29.30133\atlmfc\include\afxwin2.inl
; File D:\git\src\IBK\IBK_DRFN\ProjSrc\SrcChartEx\ChartAddIn\ChartDesignPropertyAddIn\ChartDesignPropertyAddIn\EditableListCtrl.cpp
;	COMDAT ?PreSubclassWindow@CEditableListCtrl@@MAEXXZ
_TEXT	SEGMENT
_rctLabelEdit$ = -20					; size = 16
__$ArrayPad$ = -4					; size = 4
?PreSubclassWindow@CEditableListCtrl@@MAEXXZ PROC	; CEditableListCtrl::PreSubclassWindow, COMDAT
; _this$ = ecx

; 70   : {

  00000	55		 push	 ebp
  00001	8b ec		 mov	 ebp, esp
  00003	83 ec 14	 sub	 esp, 20			; 00000014H
  00006	a1 00 00 00 00	 mov	 eax, DWORD PTR ___security_cookie
  0000b	33 c5		 xor	 eax, ebp
  0000d	89 45 fc	 mov	 DWORD PTR __$ArrayPad$[ebp], eax
  00010	56		 push	 esi
  00011	57		 push	 edi

; 71   : 	// TODO: Add your specialized code here and/or call the base class
; 72   : 
; 73   : 	ModifyStyle( LVS_ICON | LVS_SMALLICON | LVS_LIST, LVS_SINGLESEL | LVS_EDITLABELS | LVS_REPORT);

  00012	6a 00		 push	 0
  00014	68 05 02 00 00	 push	 517			; 00000205H
  00019	6a 03		 push	 3
  0001b	8b f1		 mov	 esi, ecx
  0001d	e8 00 00 00 00	 call	 ?ModifyStyle@CWnd@@QAEHKKI@Z ; CWnd::ModifyStyle
; File C:\Program Files (x86)\Microsoft Visual Studio\2019\Community\VC\Tools\MSVC\14.29.30133\atlmfc\include\afxcmn2.inl

; 117  : 	{ ASSERT(::IsWindow(m_hWnd)); return (DWORD) ::SendMessage(m_hWnd, LVM_SETEXTENDEDLISTVIEWSTYLE, 0, (LPARAM) dwNewStyle); }

  00022	8b 3d 00 00 00
	00		 mov	 edi, DWORD PTR __imp__SendMessageA@16
  00028	6a 20		 push	 32			; 00000020H
  0002a	6a 00		 push	 0
  0002c	68 36 10 00 00	 push	 4150			; 00001036H
  00031	ff 76 20	 push	 DWORD PTR [esi+32]
  00034	ff d7		 call	 edi
; File D:\git\src\IBK\IBK_DRFN\ProjSrc\SrcChartEx\ChartAddIn\ChartDesignPropertyAddIn\ChartDesignPropertyAddIn\EditableListCtrl.cpp

; 87   : 	m_pLabelEdit->Create( WS_BORDER | ES_AUTOHSCROLL, rctLabelEdit, this, 107);

  00036	8b 8e 94 00 00
	00		 mov	 ecx, DWORD PTR [esi+148]
  0003c	8d 55 ec	 lea	 edx, DWORD PTR _rctLabelEdit$[ebp]
  0003f	6a 6b		 push	 107			; 0000006bH
  00041	0f 57 c0	 xorps	 xmm0, xmm0
  00044	56		 push	 esi
; File C:\Program Files (x86)\Microsoft Visual Studio\2019\Community\VC\Tools\MSVC\14.29.30133\atlmfc\include\atltypes.h

; 540  : 	left = l;

  00045	0f 11 45 ec	 movups	 XMMWORD PTR _rctLabelEdit$[ebp], xmm0
; File D:\git\src\IBK\IBK_DRFN\ProjSrc\SrcChartEx\ChartAddIn\ChartDesignPropertyAddIn\ChartDesignPropertyAddIn\EditableListCtrl.cpp

; 87   : 	m_pLabelEdit->Create( WS_BORDER | ES_AUTOHSCROLL, rctLabelEdit, this, 107);

  00049	8b 01		 mov	 eax, DWORD PTR [ecx]
  0004b	52		 push	 edx
  0004c	68 80 00 80 00	 push	 8388736			; 00800080H
  00051	ff 90 6c 01 00
	00		 call	 DWORD PTR [eax+364]
; File C:\Program Files (x86)\Microsoft Visual Studio\2019\Community\VC\Tools\MSVC\14.29.30133\atlmfc\include\afxwin2.inl

; 45   : 	{ ASSERT(::IsWindow(m_hWnd)); return CFont::FromHandle(

  00057	6a 00		 push	 0
  00059	6a 00		 push	 0
  0005b	6a 31		 push	 49			; 00000031H
  0005d	ff 76 20	 push	 DWORD PTR [esi+32]
  00060	ff d7		 call	 edi
; File C:\Program Files (x86)\Microsoft Visual Studio\2019\Community\VC\Tools\MSVC\14.29.30133\atlmfc\include\afxwin1.inl

; 151  : 	{ return (CFont*) CGdiObject::FromHandle(hFont); }

  00062	50		 push	 eax
  00063	e8 00 00 00 00	 call	 ?FromHandle@CGdiObject@@SGPAV1@PAX@Z ; CGdiObject::FromHandle
; File D:\git\src\IBK\IBK_DRFN\ProjSrc\SrcChartEx\ChartAddIn\ChartDesignPropertyAddIn\ChartDesignPropertyAddIn\EditableListCtrl.cpp

; 88   : 	m_pLabelEdit->SetFont( GetFont());

  00068	8b 8e 94 00 00
	00		 mov	 ecx, DWORD PTR [esi+148]
; File C:\Program Files (x86)\Microsoft Visual Studio\2019\Community\VC\Tools\MSVC\14.29.30133\atlmfc\include\afxwin1.inl

; 68   : 	{ return this == NULL ? NULL : m_hObject; }

  0006e	85 c0		 test	 eax, eax
  00070	74 03		 je	 SHORT $LN16@PreSubclas
$LN15@PreSubclas:
  00072	8b 40 04	 mov	 eax, DWORD PTR [eax+4]
$LN16@PreSubclas:
; File C:\Program Files (x86)\Microsoft Visual Studio\2019\Community\VC\Tools\MSVC\14.29.30133\atlmfc\include\afxwin2.inl

; 43   : 	{ ASSERT(::IsWindow(m_hWnd)); ::SendMessage(m_hWnd, WM_SETFONT, (WPARAM)pFont->GetSafeHandle(), bRedraw); }

  00075	6a 01		 push	 1
  00077	50		 push	 eax
  00078	6a 30		 push	 48			; 00000030H
  0007a	ff 71 20	 push	 DWORD PTR [ecx+32]
  0007d	ff d7		 call	 edi
; File D:\git\src\IBK\IBK_DRFN\ProjSrc\SrcChartEx\ChartAddIn\ChartDesignPropertyAddIn\ChartDesignPropertyAddIn\EditableListCtrl.cpp

; 90   : 	CListCtrl::PreSubclassWindow();

  0007f	8b ce		 mov	 ecx, esi
  00081	e8 00 00 00 00	 call	 ?PreSubclassWindow@CWnd@@UAEXXZ ; CWnd::PreSubclassWindow

; 91   : }

  00086	8b 4d fc	 mov	 ecx, DWORD PTR __$ArrayPad$[ebp]
  00089	5f		 pop	 edi
  0008a	33 cd		 xor	 ecx, ebp
  0008c	5e		 pop	 esi
  0008d	e8 00 00 00 00	 call	 @__security_check_cookie@4
  00092	8b e5		 mov	 esp, ebp
  00094	5d		 pop	 ebp
  00095	c3		 ret	 0
?PreSubclassWindow@CEditableListCtrl@@MAEXXZ ENDP	; CEditableListCtrl::PreSubclassWindow
_TEXT	ENDS
; Function compile flags: /Ogtp
; File D:\git\src\IBK\IBK_DRFN\ProjSrc\SrcChartEx\ChartAddIn\ChartDesignPropertyAddIn\ChartDesignPropertyAddIn\EditableListCtrl.cpp
;	COMDAT ?PreTranslateMessage@CEditableListCtrl@@UAEHPAUtagMSG@@@Z
_TEXT	SEGMENT
_pMsg$ = 8						; size = 4
?PreTranslateMessage@CEditableListCtrl@@UAEHPAUtagMSG@@@Z PROC ; CEditableListCtrl::PreTranslateMessage, COMDAT
; _this$ = ecx

; 213  : {

  00000	55		 push	 ebp
  00001	8b ec		 mov	 ebp, esp

; 214  : 	// TODO: Add your specialized code here and/or call the base class
; 215  : 	
; 216  : 	if( pMsg->message == WM_KEYDOWN && pMsg->wParam == VK_RETURN)

  00003	8b 45 08	 mov	 eax, DWORD PTR _pMsg$[ebp]
  00006	81 78 04 00 01
	00 00		 cmp	 DWORD PTR [eax+4], 256	; 00000100H
  0000d	75 14		 jne	 SHORT $LN2@PreTransla
  0000f	83 78 08 0d	 cmp	 DWORD PTR [eax+8], 13	; 0000000dH
  00013	75 0e		 jne	 SHORT $LN2@PreTransla

; 217  : 	{
; 218  : 		StartEditSubItem();

  00015	e8 00 00 00 00	 call	 ?StartEditSubItem@CEditableListCtrl@@IAEXXZ ; CEditableListCtrl::StartEditSubItem

; 219  : 		return TRUE;

  0001a	b8 01 00 00 00	 mov	 eax, 1

; 223  : }

  0001f	5d		 pop	 ebp
  00020	c2 04 00	 ret	 4
$LN2@PreTransla:

; 220  : 	}
; 221  : 
; 222  : 	return CListCtrl::PreTranslateMessage(pMsg);

  00023	89 45 08	 mov	 DWORD PTR _pMsg$[ebp], eax

; 223  : }

  00026	5d		 pop	 ebp

; 220  : 	}
; 221  : 
; 222  : 	return CListCtrl::PreTranslateMessage(pMsg);

  00027	e9 00 00 00 00	 jmp	 ?PreTranslateMessage@CWnd@@UAEHPAUtagMSG@@@Z ; CWnd::PreTranslateMessage
?PreTranslateMessage@CEditableListCtrl@@UAEHPAUtagMSG@@@Z ENDP ; CEditableListCtrl::PreTranslateMessage
_TEXT	ENDS
; Function compile flags: /Ogtp
; File D:\git\src\IBK\IBK_DRFN\ProjSrc\SrcChartEx\ChartAddIn\ChartDesignPropertyAddIn\ChartDesignPropertyAddIn\EditableListCtrl.cpp
; File C:\Program Files (x86)\Microsoft Visual Studio\2019\Community\VC\Tools\MSVC\14.29.30133\atlmfc\include\afxcmn.inl
; File D:\git\src\IBK\IBK_DRFN\ProjSrc\SrcChartEx\ChartAddIn\ChartDesignPropertyAddIn\ChartDesignPropertyAddIn\EditableListCtrl.cpp
; File C:\Program Files (x86)\Microsoft Visual Studio\2019\Community\VC\Tools\MSVC\14.29.30133\atlmfc\include\afx.inl
; File D:\git\src\IBK\IBK_DRFN\ProjSrc\SrcChartEx\ChartAddIn\ChartDesignPropertyAddIn\ChartDesignPropertyAddIn\EditableListCtrl.cpp
; File C:\Program Files (x86)\Microsoft Visual Studio\2019\Community\VC\Tools\MSVC\14.29.30133\atlmfc\include\afx.inl
; File D:\git\src\IBK\IBK_DRFN\ProjSrc\SrcChartEx\ChartAddIn\ChartDesignPropertyAddIn\ChartDesignPropertyAddIn\EditableListCtrl.cpp
;	COMDAT ??0CEditableListCtrl@@QAE@XZ
_TEXT	SEGMENT
$T2 = -20						; size = 4
_this$ = -16						; size = 4
__$EHRec$ = -12						; size = 12
??0CEditableListCtrl@@QAE@XZ PROC			; CEditableListCtrl::CEditableListCtrl, COMDAT
; _this$ = ecx

; 19   : {

  00000	55		 push	 ebp
  00001	8b ec		 mov	 ebp, esp
  00003	6a ff		 push	 -1
  00005	68 00 00 00 00	 push	 __ehhandler$??0CEditableListCtrl@@QAE@XZ
  0000a	64 a1 00 00 00
	00		 mov	 eax, DWORD PTR fs:0
  00010	50		 push	 eax
  00011	83 ec 08	 sub	 esp, 8
  00014	56		 push	 esi
  00015	a1 00 00 00 00	 mov	 eax, DWORD PTR ___security_cookie
  0001a	33 c5		 xor	 eax, ebp
  0001c	50		 push	 eax
  0001d	8d 45 f4	 lea	 eax, DWORD PTR __$EHRec$[ebp]
  00020	64 a3 00 00 00
	00		 mov	 DWORD PTR fs:0, eax
  00026	8b f1		 mov	 esi, ecx
  00028	89 75 f0	 mov	 DWORD PTR _this$[ebp], esi
; File C:\Program Files (x86)\Microsoft Visual Studio\2019\Community\VC\Tools\MSVC\14.29.30133\atlmfc\include\afxcmn.inl

; 141  : 	{ }

  0002b	e8 00 00 00 00	 call	 ??0CWnd@@QAE@XZ		; CWnd::CWnd
; File D:\git\src\IBK\IBK_DRFN\ProjSrc\SrcChartEx\ChartAddIn\ChartDesignPropertyAddIn\ChartDesignPropertyAddIn\EditableListCtrl.cpp

; 19   : {

  00030	8d 8e 80 00 00
	00		 lea	 ecx, DWORD PTR [esi+128]
  00036	c7 45 fc 00 00
	00 00		 mov	 DWORD PTR __$EHRec$[ebp+8], 0
  0003d	c7 06 00 00 00
	00		 mov	 DWORD PTR [esi], OFFSET ??_7CEditableListCtrl@@6B@
  00043	e8 00 00 00 00	 call	 ??0CByteArray@@QAE@XZ	; CByteArray::CByteArray
; File C:\Program Files (x86)\Microsoft Visual Studio\2019\Community\VC\Tools\MSVC\14.29.30133\atlmfc\include\afx.inl

; 116  : 	{ return ::operator new(nSize); }

  00048	68 98 00 00 00	 push	 152			; 00000098H
; File D:\git\src\IBK\IBK_DRFN\ProjSrc\SrcChartEx\ChartAddIn\ChartDesignPropertyAddIn\ChartDesignPropertyAddIn\EditableListCtrl.cpp

; 19   : {

  0004d	c6 45 fc 01	 mov	 BYTE PTR __$EHRec$[ebp+8], 1
; File C:\Program Files (x86)\Microsoft Visual Studio\2019\Community\VC\Tools\MSVC\14.29.30133\atlmfc\include\afx.inl

; 116  : 	{ return ::operator new(nSize); }

  00051	e8 00 00 00 00	 call	 ??2@YAPAXI@Z		; operator new
  00056	83 c4 04	 add	 esp, 4
; File D:\git\src\IBK\IBK_DRFN\ProjSrc\SrcChartEx\ChartAddIn\ChartDesignPropertyAddIn\ChartDesignPropertyAddIn\EditableListCtrl.cpp

; 28   : 	m_pLabelEdit = new CLVEdit;

  00059	89 45 ec	 mov	 DWORD PTR $T2[ebp], eax
  0005c	c6 45 fc 02	 mov	 BYTE PTR __$EHRec$[ebp+8], 2
  00060	85 c0		 test	 eax, eax
  00062	74 1f		 je	 SHORT $LN3@CEditableL
  00064	8b c8		 mov	 ecx, eax
  00066	e8 00 00 00 00	 call	 ??0CLVEdit@@QAE@XZ	; CLVEdit::CLVEdit
  0006b	89 86 94 00 00
	00		 mov	 DWORD PTR [esi+148], eax

; 29   : }

  00071	8b c6		 mov	 eax, esi
  00073	8b 4d f4	 mov	 ecx, DWORD PTR __$EHRec$[ebp]
  00076	64 89 0d 00 00
	00 00		 mov	 DWORD PTR fs:0, ecx
  0007d	59		 pop	 ecx
  0007e	5e		 pop	 esi
  0007f	8b e5		 mov	 esp, ebp
  00081	5d		 pop	 ebp
  00082	c3		 ret	 0
$LN3@CEditableL:

; 28   : 	m_pLabelEdit = new CLVEdit;

  00083	c7 86 94 00 00
	00 00 00 00 00	 mov	 DWORD PTR [esi+148], 0

; 29   : }

  0008d	8b c6		 mov	 eax, esi
  0008f	8b 4d f4	 mov	 ecx, DWORD PTR __$EHRec$[ebp]
  00092	64 89 0d 00 00
	00 00		 mov	 DWORD PTR fs:0, ecx
  00099	59		 pop	 ecx
  0009a	5e		 pop	 esi
  0009b	8b e5		 mov	 esp, ebp
  0009d	5d		 pop	 ebp
  0009e	c3		 ret	 0
_TEXT	ENDS
;	COMDAT text$x
text$x	SEGMENT
__unwindfunclet$??0CEditableListCtrl@@QAE@XZ$0:
  00000	8b 4d f0	 mov	 ecx, DWORD PTR _this$[ebp]
  00003	e9 00 00 00 00	 jmp	 ??1CListCtrl@@UAE@XZ	; CListCtrl::~CListCtrl
__unwindfunclet$??0CEditableListCtrl@@QAE@XZ$1:
  00008	8b 4d f0	 mov	 ecx, DWORD PTR _this$[ebp]
  0000b	81 c1 80 00 00
	00		 add	 ecx, 128		; 00000080H
  00011	e9 00 00 00 00	 jmp	 ??1CByteArray@@UAE@XZ	; CByteArray::~CByteArray
__unwindfunclet$??0CEditableListCtrl@@QAE@XZ$2:
  00016	8b 45 ec	 mov	 eax, DWORD PTR $T2[ebp]
  00019	50		 push	 eax
  0001a	e8 00 00 00 00	 call	 ??3CObject@@SGXPAX@Z	; CObject::operator delete
  0001f	c3		 ret	 0
  00020	cc		 int	 3
  00021	cc		 int	 3
  00022	cc		 int	 3
  00023	cc		 int	 3
  00024	cc		 int	 3
__ehhandler$??0CEditableListCtrl@@QAE@XZ:
  00025	90		 npad	 1
  00026	90		 npad	 1
  00027	8b 54 24 08	 mov	 edx, DWORD PTR [esp+8]
  0002b	8d 42 0c	 lea	 eax, DWORD PTR [edx+12]
  0002e	8b 4a f0	 mov	 ecx, DWORD PTR [edx-16]
  00031	33 c8		 xor	 ecx, eax
  00033	e8 00 00 00 00	 call	 @__security_check_cookie@4
  00038	b8 00 00 00 00	 mov	 eax, OFFSET __ehfuncinfo$??0CEditableListCtrl@@QAE@XZ
  0003d	e9 00 00 00 00	 jmp	 ___CxxFrameHandler3
text$x	ENDS
??0CEditableListCtrl@@QAE@XZ ENDP			; CEditableListCtrl::CEditableListCtrl
; Function compile flags: /Ogtp
; File D:\git\src\IBK\IBK_DRFN\ProjSrc\SrcChartEx\ChartAddIn\ChartDesignPropertyAddIn\ChartDesignPropertyAddIn\EditableListCtrl.h
;	COMDAT ??__ERMSG_ELC_CELLEDITED@@YAXXZ
text$di	SEGMENT
??__ERMSG_ELC_CELLEDITED@@YAXXZ PROC			; `dynamic initializer for 'RMSG_ELC_CELLEDITED'', COMDAT

; 27   : const UINT RMSG_ELC_CELLEDITED = ::RegisterWindowMessage(_T("RMSG_EDITABLELISTCTRL_CELLEDITED"));

  00000	68 00 00 00 00	 push	 OFFSET ??_C@_0CB@EFDCECKM@RMSG_EDITABLELISTCTRL_CELLEDITE@
  00005	ff 15 00 00 00
	00		 call	 DWORD PTR __imp__RegisterWindowMessageA@4
  0000b	a3 00 00 00 00	 mov	 DWORD PTR ?RMSG_ELC_CELLEDITED@@3IB, eax
  00010	c3		 ret	 0
??__ERMSG_ELC_CELLEDITED@@YAXXZ ENDP			; `dynamic initializer for 'RMSG_ELC_CELLEDITED''
text$di	ENDS
; Function compile flags: /Ogtp
; File C:\Program Files (x86)\Microsoft Visual Studio\2019\Community\VC\Tools\MSVC\14.29.30133\atlmfc\include\afx.inl
;	COMDAT ??_GCListCtrl@@UAEPAXI@Z
_TEXT	SEGMENT
___flags$ = 8						; size = 4
??_GCListCtrl@@UAEPAXI@Z PROC				; CListCtrl::`scalar deleting destructor', COMDAT
; _this$ = ecx
  00000	55		 push	 ebp
  00001	8b ec		 mov	 ebp, esp
  00003	56		 push	 esi
  00004	8b f1		 mov	 esi, ecx
  00006	e8 00 00 00 00	 call	 ??1CListCtrl@@UAE@XZ	; CListCtrl::~CListCtrl
  0000b	8b 45 08	 mov	 eax, DWORD PTR ___flags$[ebp]
  0000e	a8 01		 test	 al, 1
  00010	74 22		 je	 SHORT $LN9@scalar
  00012	a8 04		 test	 al, 4
  00014	75 10		 jne	 SHORT $LN3@scalar

; 112  : 	{ ::operator delete(p); }

  00016	56		 push	 esi
  00017	e8 00 00 00 00	 call	 ??3@YAXPAX@Z		; operator delete
  0001c	83 c4 04	 add	 esp, 4
  0001f	8b c6		 mov	 eax, esi
  00021	5e		 pop	 esi
  00022	5d		 pop	 ebp
  00023	c2 04 00	 ret	 4
$LN3@scalar:
  00026	68 80 00 00 00	 push	 128			; 00000080H
  0002b	56		 push	 esi
  0002c	e8 00 00 00 00	 call	 ?__global_delete@@YAXPAXI@Z ; __global_delete
  00031	83 c4 08	 add	 esp, 8
$LN9@scalar:
  00034	8b c6		 mov	 eax, esi
  00036	5e		 pop	 esi
  00037	5d		 pop	 ebp
  00038	c2 04 00	 ret	 4
??_GCListCtrl@@UAEPAXI@Z ENDP				; CListCtrl::`scalar deleting destructor'
_TEXT	ENDS
; Function compile flags: /Ogtp
; File C:\Program Files (x86)\Microsoft Visual Studio\2019\Community\VC\Tools\MSVC\14.29.30133\atlmfc\include\afxcmn.inl
;	COMDAT ?Scroll@CListCtrl@@QAEHVCSize@@@Z
_TEXT	SEGMENT
_size$ = 8						; size = 8
?Scroll@CListCtrl@@QAEHVCSize@@@Z PROC			; CListCtrl::Scroll, COMDAT
; _this$ = ecx

; 195  : 	{ ASSERT(::IsWindow(m_hWnd)); return (BOOL) ::SendMessage(m_hWnd, LVM_SCROLL, size.cx, size.cy); }

  00000	55		 push	 ebp
  00001	8b ec		 mov	 ebp, esp
  00003	ff 75 0c	 push	 DWORD PTR _size$[ebp+4]
  00006	ff 75 08	 push	 DWORD PTR _size$[ebp]
  00009	68 14 10 00 00	 push	 4116			; 00001014H
  0000e	ff 71 20	 push	 DWORD PTR [ecx+32]
  00011	ff 15 00 00 00
	00		 call	 DWORD PTR __imp__SendMessageA@16
  00017	5d		 pop	 ebp
  00018	c2 08 00	 ret	 8
?Scroll@CListCtrl@@QAEHVCSize@@@Z ENDP			; CListCtrl::Scroll
_TEXT	ENDS
; Function compile flags: /Ogtp
; File C:\Program Files (x86)\Microsoft Visual Studio\2019\Community\VC\Tools\MSVC\14.29.30133\atlmfc\include\afxwin2.inl
;	COMDAT ?EndModalState@CWnd@@UAEXXZ
_TEXT	SEGMENT
?EndModalState@CWnd@@UAEXXZ PROC			; CWnd::EndModalState, COMDAT
; _this$ = ecx

; 567  : 	{ ::EnableWindow(m_hWnd, TRUE); }

  00000	6a 01		 push	 1
  00002	ff 71 20	 push	 DWORD PTR [ecx+32]
  00005	ff 15 00 00 00
	00		 call	 DWORD PTR __imp__EnableWindow@8
  0000b	c3		 ret	 0
?EndModalState@CWnd@@UAEXXZ ENDP			; CWnd::EndModalState
_TEXT	ENDS
; Function compile flags: /Ogtp
; File C:\Program Files (x86)\Microsoft Visual Studio\2019\Community\VC\Tools\MSVC\14.29.30133\atlmfc\include\afxwin2.inl
;	COMDAT ?BeginModalState@CWnd@@UAEXXZ
_TEXT	SEGMENT
?BeginModalState@CWnd@@UAEXXZ PROC			; CWnd::BeginModalState, COMDAT
; _this$ = ecx

; 565  : 	{ ::EnableWindow(m_hWnd, FALSE); }

  00000	6a 00		 push	 0
  00002	ff 71 20	 push	 DWORD PTR [ecx+32]
  00005	ff 15 00 00 00
	00		 call	 DWORD PTR __imp__EnableWindow@8
  0000b	c3		 ret	 0
?BeginModalState@CWnd@@UAEXXZ ENDP			; CWnd::BeginModalState
_TEXT	ENDS
; Function compile flags: /Ogtp
; File C:\Program Files (x86)\Microsoft Visual Studio\2019\Community\VC\Tools\MSVC\14.29.30133\atlmfc\include\afxwin2.inl
;	COMDAT ?DoDataExchange@CWnd@@MAEXPAVCDataExchange@@@Z
_TEXT	SEGMENT
___formal$ = 8						; size = 4
?DoDataExchange@CWnd@@MAEXPAVCDataExchange@@@Z PROC	; CWnd::DoDataExchange, COMDAT
; _this$ = ecx

; 561  : 	{ } // default does nothing

  00000	c2 04 00	 ret	 4
?DoDataExchange@CWnd@@MAEXPAVCDataExchange@@@Z ENDP	; CWnd::DoDataExchange
_TEXT	ENDS
; Function compile flags: /Ogtp
; File C:\Program Files (x86)\Microsoft Visual Studio\2019\Community\VC\Tools\MSVC\14.29.30133\atlmfc\include\afx.inl
;	COMDAT ?Dump@CObject@@UBEXAAVCDumpContext@@@Z
_TEXT	SEGMENT
___formal$ = 8						; size = 4
?Dump@CObject@@UBEXAAVCDumpContext@@@Z PROC		; CObject::Dump, COMDAT
; _this$ = ecx

; 122  : 	{ /* no dumping in release builds */ }

  00000	c2 04 00	 ret	 4
?Dump@CObject@@UBEXAAVCDumpContext@@@Z ENDP		; CObject::Dump
_TEXT	ENDS
; Function compile flags: /Ogtp
; File C:\Program Files (x86)\Microsoft Visual Studio\2019\Community\VC\Tools\MSVC\14.29.30133\atlmfc\include\afx.inl
;	COMDAT ?AssertValid@CObject@@UBEXXZ
_TEXT	SEGMENT
?AssertValid@CObject@@UBEXXZ PROC			; CObject::AssertValid, COMDAT
; _this$ = ecx

; 120  : 	{ /* no asserts in release builds */ }

  00000	c2 00 00	 ret	 0
?AssertValid@CObject@@UBEXXZ ENDP			; CObject::AssertValid
_TEXT	ENDS
; Function compile flags: /Ogtp
; File C:\Program Files (x86)\Microsoft Visual Studio\2019\Community\VC\Tools\MSVC\14.29.30133\atlmfc\include\afx.inl
;	COMDAT ?Serialize@CObject@@UAEXAAVCArchive@@@Z
_TEXT	SEGMENT
___formal$ = 8						; size = 4
?Serialize@CObject@@UAEXAAVCArchive@@@Z PROC		; CObject::Serialize, COMDAT
; _this$ = ecx

; 106  : 	{ /* CObject does not serialize anything by default */ }

  00000	c2 04 00	 ret	 4
?Serialize@CObject@@UAEXAAVCArchive@@@Z ENDP		; CObject::Serialize
_TEXT	ENDS
; Function compile flags: /Ogtp
; File C:\Program Files (x86)\Microsoft Visual Studio\2019\Community\VC\Tools\MSVC\14.29.30133\atlmfc\include\afx.inl
;	COMDAT ??3CObject@@SGXPAX@Z
_TEXT	SEGMENT
_p$ = 8							; size = 4
??3CObject@@SGXPAX@Z PROC				; CObject::operator delete, COMDAT

; 112  : 	{ ::operator delete(p); }

  00000	55		 push	 ebp
  00001	8b ec		 mov	 ebp, esp
  00003	ff 75 08	 push	 DWORD PTR _p$[ebp]
  00006	e8 00 00 00 00	 call	 ??3@YAXPAX@Z		; operator delete
  0000b	83 c4 04	 add	 esp, 4
  0000e	5d		 pop	 ebp
  0000f	c2 04 00	 ret	 4
??3CObject@@SGXPAX@Z ENDP				; CObject::operator delete
_TEXT	ENDS
; Function compile flags: /Ogtp
; File D:\git\src\IBK\IBK_DRFN\ProjSrc\SrcChartEx\ChartAddIn\ChartDesignPropertyAddIn\ChartDesignPropertyAddIn\EditableListCtrl.cpp
;	COMDAT ?__empty_global_delete@@YAXPAXI@Z
_TEXT	SEGMENT
___formal$ = 8						; size = 4
___formal$ = 12						; size = 4
?__empty_global_delete@@YAXPAXI@Z PROC			; __empty_global_delete, COMDAT

  00000	c2 00 00	 ret	 0
?__empty_global_delete@@YAXPAXI@Z ENDP			; __empty_global_delete
_TEXT	ENDS
; Function compile flags: /Ogtp
; File D:\git\src\IBK\IBK_DRFN\ProjSrc\SrcChartEx\ChartAddIn\ChartDesignPropertyAddIn\ChartDesignPropertyAddIn\EditableListCtrl.cpp
;	COMDAT ?__empty_global_delete@@YAXPAX@Z
_TEXT	SEGMENT
___formal$ = 8						; size = 4
?__empty_global_delete@@YAXPAX@Z PROC			; __empty_global_delete, COMDAT

  00000	c2 00 00	 ret	 0
?__empty_global_delete@@YAXPAX@Z ENDP			; __empty_global_delete
_TEXT	ENDS
END
