; Listing generated by Microsoft (R) Optimizing Compiler Version 19.29.30145.0 

	TITLE	D:\git\src\IBK\IBK_DRFN\#DRfn-CS\_Obj\ChartDesignPropertyAddIn\MyTreeCtrl.obj
	.686P
	.XMM
	include listing.inc
	.model	flat

INCLUDELIB MSVCRT
INCLUDELIB OLDNAMES

PUBLIC	?__empty_global_delete@@YAXPAX@Z		; __empty_global_delete
PUBLIC	?__empty_global_delete@@YAXPAXI@Z		; __empty_global_delete
PUBLIC	??1CObject@@UAE@XZ				; CObject::~CObject
PUBLIC	?Serialize@CObject@@UAEXAAVCArchive@@@Z		; CObject::Serialize
PUBLIC	?AssertValid@CObject@@UBEXXZ			; CObject::AssertValid
PUBLIC	?Dump@CObject@@UBEXAAVCDumpContext@@@Z		; CObject::Dump
PUBLIC	??1CMenu@@UAE@XZ				; CMenu::~CMenu
PUBLIC	??_GCMenu@@UAEPAXI@Z				; CMenu::`scalar deleting destructor'
PUBLIC	?DoDataExchange@CWnd@@MAEXPAVCDataExchange@@@Z	; CWnd::DoDataExchange
PUBLIC	?BeginModalState@CWnd@@UAEXXZ			; CWnd::BeginModalState
PUBLIC	?EndModalState@CWnd@@UAEXXZ			; CWnd::EndModalState
PUBLIC	?DeleteAllItems@CTreeCtrl@@QAEHXZ		; CTreeCtrl::DeleteAllItems
PUBLIC	?SelectDropTarget@CTreeCtrl@@QAEHPAU_TREEITEM@@@Z ; CTreeCtrl::SelectDropTarget
PUBLIC	??_GCTreeCtrl@@UAEPAXI@Z			; CTreeCtrl::`scalar deleting destructor'
PUBLIC	?LoadResourceDLL@IMetaTable@@QAEPAUHINSTANCE__@@PAUHWND__@@PAU2@@Z ; IMetaTable::LoadResourceDLL
PUBLIC	??1CMultiLanguageResourceSetter@@QAE@XZ		; CMultiLanguageResourceSetter::~CMultiLanguageResourceSetter
PUBLIC	??1CChartDrop@@UAE@XZ				; CChartDrop::~CChartDrop
PUBLIC	??1CDlgBlockHorizontalScale@@UAE@XZ		; CDlgBlockHorizontalScale::~CDlgBlockHorizontalScale
PUBLIC	??0CMyTreeCtrl@@QAE@XZ				; CMyTreeCtrl::CMyTreeCtrl
PUBLIC	?SetScaleCompartTypeToAllBlocks@CMyTreeCtrl@@QAEXH@Z ; CMyTreeCtrl::SetScaleCompartTypeToAllBlocks
PUBLIC	?SetAllItemInfoOfPacketPage@CMyTreeCtrl@@QAEXABV?$CStringT@DV?$StrTraitMFC_DLL@DV?$ChTraitsCRT@D@ATL@@@@@ATL@@@Z ; CMyTreeCtrl::SetAllItemInfoOfPacketPage
PUBLIC	?SetColorOfLine@CMyTreeCtrl@@QAEXHABV?$CStringT@DV?$StrTraitMFC_DLL@DV?$ChTraitsCRT@D@ATL@@@@@ATL@@@Z ; CMyTreeCtrl::SetColorOfLine
PUBLIC	?InitBlock@CMyTreeCtrl@@QAEXABV?$CStringT@DV?$StrTraitMFC_DLL@DV?$ChTraitsCRT@D@ATL@@@@@ATL@@HH@Z ; CMyTreeCtrl::InitBlock
PUBLIC	?AddBlock@CMyTreeCtrl@@QAEPAU_TREEITEM@@PAU2@PAD@Z ; CMyTreeCtrl::AddBlock
PUBLIC	?AddItem@CMyTreeCtrl@@QAEPAU_TREEITEM@@PAU2@PAD@Z ; CMyTreeCtrl::AddItem
PUBLIC	?ChangeBlockData@CMyTreeCtrl@@QAEXHABV?$CStringT@DV?$StrTraitMFC_DLL@DV?$ChTraitsCRT@D@ATL@@@@@ATL@@HH00HHH@Z ; CMyTreeCtrl::ChangeBlockData
PUBLIC	?AddVerticalScaleItem@CMyTreeCtrl@@QAEPAVCChartLink@@ABV?$CStringT@DV?$StrTraitMFC_DLL@DV?$ChTraitsCRT@D@ATL@@@@@ATL@@HHHHHNNHHNNHH@Z ; CMyTreeCtrl::AddVerticalScaleItem
PUBLIC	?AddItem@CMyTreeCtrl@@QAEXPAVCChartLink@@ABV?$CStringT@DV?$StrTraitMFC_DLL@DV?$ChTraitsCRT@D@ATL@@@@@ATL@@111_N222H221@Z ; CMyTreeCtrl::AddItem
PUBLIC	?GetBlockandGraphAllData@CMyTreeCtrl@@QAE?AV?$CStringT@DV?$StrTraitMFC_DLL@DV?$ChTraitsCRT@D@ATL@@@@@ATL@@XZ ; CMyTreeCtrl::GetBlockandGraphAllData
PUBLIC	?InitTreeView@CMyTreeCtrl@@QAEXXZ		; CMyTreeCtrl::InitTreeView
PUBLIC	?InitDropTarget@CMyTreeCtrl@@QAEXXZ		; CMyTreeCtrl::InitDropTarget
PUBLIC	??1CMyTreeCtrl@@UAE@XZ				; CMyTreeCtrl::~CMyTreeCtrl
PUBLIC	?OnBegindrag@CMyTreeCtrl@@IAEXPAUtagNMHDR@@PAJ@Z ; CMyTreeCtrl::OnBegindrag
PUBLIC	?OnRButtonDown@CMyTreeCtrl@@IAEXIVCPoint@@@Z	; CMyTreeCtrl::OnRButtonDown
PUBLIC	?OnTitlescalecolor@CMyTreeCtrl@@IAEXXZ		; CMyTreeCtrl::OnTitlescalecolor
PUBLIC	?OnDelete@CMyTreeCtrl@@IAEXXZ			; CMyTreeCtrl::OnDelete
PUBLIC	?OnHorizonscale@CMyTreeCtrl@@IAEXXZ		; CMyTreeCtrl::OnHorizonscale
PUBLIC	?OnVertScale@CMyTreeCtrl@@IAEXXZ		; CMyTreeCtrl::OnVertScale
PUBLIC	?OnVertDelete@CMyTreeCtrl@@IAEXXZ		; CMyTreeCtrl::OnVertDelete
PUBLIC	?OnCreate@CMyTreeCtrl@@IAEHPAUtagCREATESTRUCTA@@@Z ; CMyTreeCtrl::OnCreate
PUBLIC	?OnChartinvert@CMyTreeCtrl@@IAEXXZ		; CMyTreeCtrl::OnChartinvert
PUBLIC	?OnDragChartData@CMyTreeCtrl@@IAEJIJ@Z		; CMyTreeCtrl::OnDragChartData
PUBLIC	?OnDropChartData@CMyTreeCtrl@@IAEJIJ@Z		; CMyTreeCtrl::OnDropChartData
PUBLIC	?GetThisMessageMap@CMyTreeCtrl@@KGPBUAFX_MSGMAP@@XZ ; CMyTreeCtrl::GetThisMessageMap
PUBLIC	?GetMessageMap@CMyTreeCtrl@@MBEPBUAFX_MSGMAP@@XZ ; CMyTreeCtrl::GetMessageMap
PUBLIC	?OnDeleteVertScale@CMyTreeCtrl@@AAEXPAVCChartLink@@@Z ; CMyTreeCtrl::OnDeleteVertScale
PUBLIC	?AddVertScale@CMyTreeCtrl@@AAEPAU_TREEITEM@@PAU2@PAD@Z ; CMyTreeCtrl::AddVertScale
PUBLIC	?DeleteBLOCK_OnlyTreeItem@CMyTreeCtrl@@AAEXPAVCChartLink@@@Z ; CMyTreeCtrl::DeleteBLOCK_OnlyTreeItem
PUBLIC	?DeleteGRAPH_OnlyTreeItem@CMyTreeCtrl@@AAEXPAVCChartLink@@@Z ; CMyTreeCtrl::DeleteGRAPH_OnlyTreeItem
PUBLIC	?DeleteVERT_SCALE_OnlyTreeItem@CMyTreeCtrl@@AAEXPAVCChartLink@@@Z ; CMyTreeCtrl::DeleteVERT_SCALE_OnlyTreeItem
PUBLIC	?GetimageofIndicatorTypeIndex@CMyTreeCtrl@@AAEHPAD@Z ; CMyTreeCtrl::GetimageofIndicatorTypeIndex
PUBLIC	?GetTitle@CMyTreeCtrl@@AAE?AV?$CStringT@DV?$StrTraitMFC_DLL@DV?$ChTraitsCRT@D@ATL@@@@@ATL@@ABV23@@Z ; CMyTreeCtrl::GetTitle
PUBLIC	?SetDlgValueToCChartLinkClass@CMyTreeCtrl@@AAEXAAVCDlgBlockHorizontalScale@@PAVCChartLink@@@Z ; CMyTreeCtrl::SetDlgValueToCChartLinkClass
PUBLIC	?SetRootValueToAllBlocks@CMyTreeCtrl@@AAEXPAVCChartLink@@@Z ; CMyTreeCtrl::SetRootValueToAllBlocks
PUBLIC	?SetDlgBlockHorizontalScale@CMyTreeCtrl@@AAEXPAVCChartLink@@AAVCDlgBlockHorizontalScale@@@Z ; CMyTreeCtrl::SetDlgBlockHorizontalScale
PUBLIC	?SetIGraphInfoManager@CMyTreeCtrl@@QAEXPAUIGraphInfoManager134661@@@Z ; CMyTreeCtrl::SetIGraphInfoManager
PUBLIC	?GetFirstVScaleGridType@CMyTreeCtrl@@IAE?AW4SCALEGRIDTYPE@CScaleBaseData@@PAVCChartLink@@@Z ; CMyTreeCtrl::GetFirstVScaleGridType
PUBLIC	?SetOcxHwnd@CMyTreeCtrl@@QAEXPAUHWND__@@@Z	; CMyTreeCtrl::SetOcxHwnd
PUBLIC	??_GCMyTreeCtrl@@UAEPAXI@Z			; CMyTreeCtrl::`scalar deleting destructor'
PUBLIC	??1CDlgBlockVerticalScale@@UAE@XZ		; CDlgBlockVerticalScale::~CDlgBlockVerticalScale
PUBLIC	??1CDlgChartInvertSetting@@UAE@XZ		; CDlgChartInvertSetting::~CDlgChartInvertSetting
PUBLIC	??_7CMenu@@6B@					; CMenu::`vftable'
PUBLIC	??_7CTreeCtrl@@6B@				; CTreeCtrl::`vftable'
PUBLIC	??_R0?AVCObject@@@8				; CObject `RTTI Type Descriptor'
PUBLIC	??_R3CObject@@8					; CObject::`RTTI Class Hierarchy Descriptor'
PUBLIC	??_R2CObject@@8					; CObject::`RTTI Base Class Array'
PUBLIC	??_R1A@?0A@EA@CObject@@8			; CObject::`RTTI Base Class Descriptor at (0,-1,0,64)'
PUBLIC	??_R4CMenu@@6B@					; CMenu::`RTTI Complete Object Locator'
PUBLIC	??_R0?AVCMenu@@@8				; CMenu `RTTI Type Descriptor'
PUBLIC	??_R3CMenu@@8					; CMenu::`RTTI Class Hierarchy Descriptor'
PUBLIC	??_R2CMenu@@8					; CMenu::`RTTI Base Class Array'
PUBLIC	??_R1A@?0A@EA@CMenu@@8				; CMenu::`RTTI Base Class Descriptor at (0,-1,0,64)'
PUBLIC	??_R1A@?0A@EA@CWnd@@8				; CWnd::`RTTI Base Class Descriptor at (0,-1,0,64)'
PUBLIC	??_R0?AVCWnd@@@8				; CWnd `RTTI Type Descriptor'
PUBLIC	??_R3CWnd@@8					; CWnd::`RTTI Class Hierarchy Descriptor'
PUBLIC	??_R2CWnd@@8					; CWnd::`RTTI Base Class Array'
PUBLIC	??_R1A@?0A@EA@CCmdTarget@@8			; CCmdTarget::`RTTI Base Class Descriptor at (0,-1,0,64)'
PUBLIC	??_R0?AVCCmdTarget@@@8				; CCmdTarget `RTTI Type Descriptor'
PUBLIC	??_R3CCmdTarget@@8				; CCmdTarget::`RTTI Class Hierarchy Descriptor'
PUBLIC	??_R2CCmdTarget@@8				; CCmdTarget::`RTTI Base Class Array'
PUBLIC	??_R4CTreeCtrl@@6B@				; CTreeCtrl::`RTTI Complete Object Locator'
PUBLIC	??_R0?AVCTreeCtrl@@@8				; CTreeCtrl `RTTI Type Descriptor'
PUBLIC	??_R3CTreeCtrl@@8				; CTreeCtrl::`RTTI Class Hierarchy Descriptor'
PUBLIC	??_R2CTreeCtrl@@8				; CTreeCtrl::`RTTI Base Class Array'
PUBLIC	??_R1A@?0A@EA@CTreeCtrl@@8			; CTreeCtrl::`RTTI Base Class Descriptor at (0,-1,0,64)'
PUBLIC	??_C@_0BA@ENJOCHIO@LoadResourceDLL@		; `string'
PUBLIC	??_7CMyTreeCtrl@@6B@				; CMyTreeCtrl::`vftable'
PUBLIC	??_C@_0L@GFMNOAEH@Chart?5List@			; `string'
PUBLIC	??_C@_0P@ONCIBKJN@Vertical?5Scale@		; `string'
PUBLIC	??_C@_09FJGDFMJE@ChartInfo@			; `string'
PUBLIC	??_C@_05PPLCEPDH@Block@				; `string'
PUBLIC	??_C@_04BAJDEDPD@Root@				; `string'
PUBLIC	??_C@_0CD@IAJMFNPB@?$FLIndicatorName?$FN?3?5?$CFs?0?5?5?$FLTitle1?$FN?3@ ; `string'
PUBLIC	??_C@_0BC@DENBEKI@BlockColumnEnd?$DL?$AN?6@	; `string'
PUBLIC	??_C@_0P@GBPFOBGA@BlockColumn?$DL?$AN?6@	; `string'
PUBLIC	??_C@_09MABJODIH@?$CFs?$CI?$CFd?0?$CFd?$CJ@	; `string'
PUBLIC	??_C@_01ICJEACDI@?$DL@				; `string'
PUBLIC	??_R4CMyTreeCtrl@@6B@				; CMyTreeCtrl::`RTTI Complete Object Locator'
PUBLIC	??_R0?AVCMyTreeCtrl@@@8				; CMyTreeCtrl `RTTI Type Descriptor'
PUBLIC	??_R3CMyTreeCtrl@@8				; CMyTreeCtrl::`RTTI Class Hierarchy Descriptor'
PUBLIC	??_R2CMyTreeCtrl@@8				; CMyTreeCtrl::`RTTI Base Class Array'
PUBLIC	??_R1A@?0A@EA@CMyTreeCtrl@@8			; CMyTreeCtrl::`RTTI Base Class Descriptor at (0,-1,0,64)'
PUBLIC	__xmm@0000000000000000000000000000003c
EXTRN	??2@YAPAXI@Z:PROC				; operator new
EXTRN	??3@YAXPAX@Z:PROC				; operator delete
EXTRN	??3@YAXPAXI@Z:PROC				; operator delete
EXTRN	?__global_delete@@YAXPAXI@Z:PROC		; __global_delete
EXTRN	___std_terminate:PROC
EXTRN	__imp__GetProcAddress@8:PROC
EXTRN	__imp__GlobalAlloc@8:PROC
EXTRN	__imp__GlobalUnlock@4:PROC
EXTRN	__imp__GlobalLock@4:PROC
EXTRN	__imp__SendMessageA@16:PROC
EXTRN	__imp__EnableWindow@8:PROC
EXTRN	__imp__LoadMenuW@8:PROC
EXTRN	__imp__GetSubMenu@8:PROC
EXTRN	__imp__ClientToScreen@8:PROC
EXTRN	__imp__GetParent@4:PROC
EXTRN	__imp__atoi:PROC
EXTRN	__imp_?Empty@?$CSimpleStringT@D$00@ATL@@QAEXXZ:PROC
EXTRN	__imp_??0?$CStringT@DV?$StrTraitMFC_DLL@DV?$ChTraitsCRT@D@ATL@@@@@ATL@@QAE@XZ:PROC
EXTRN	__imp_??0?$CStringT@DV?$StrTraitMFC_DLL@DV?$ChTraitsCRT@D@ATL@@@@@ATL@@QAE@ABV01@@Z:PROC
EXTRN	__imp_??0?$CStringT@DV?$StrTraitMFC_DLL@DV?$ChTraitsCRT@D@ATL@@@@@ATL@@QAE@PBD@Z:PROC
EXTRN	__imp_??0?$CStringT@DV?$StrTraitMFC_DLL@DV?$ChTraitsCRT@D@ATL@@@@@ATL@@QAE@DH@Z:PROC
EXTRN	__imp_??1?$CStringT@DV?$StrTraitMFC_DLL@DV?$ChTraitsCRT@D@ATL@@@@@ATL@@QAE@XZ:PROC
EXTRN	__imp_??4?$CStringT@DV?$StrTraitMFC_DLL@DV?$ChTraitsCRT@D@ATL@@@@@ATL@@QAEAAV01@ABV01@@Z:PROC
EXTRN	__imp_??4?$CStringT@DV?$StrTraitMFC_DLL@DV?$ChTraitsCRT@D@ATL@@@@@ATL@@QAEAAV01@PBD@Z:PROC
EXTRN	__imp_?Compare@?$CStringT@DV?$StrTraitMFC_DLL@DV?$ChTraitsCRT@D@ATL@@@@@ATL@@QBEHPBD@Z:PROC
EXTRN	__imp_?Left@?$CStringT@DV?$StrTraitMFC_DLL@DV?$ChTraitsCRT@D@ATL@@@@@ATL@@QBE?AV12@H@Z:PROC
EXTRN	__imp_?Format@?$CStringT@DV?$StrTraitMFC_DLL@DV?$ChTraitsCRT@D@ATL@@@@@ATL@@QAAXPBDZZ:PROC
EXTRN	?AfxGetModuleState@@YGPAVAFX_MODULE_STATE@@XZ:PROC ; AfxGetModuleState
EXTRN	?AfxGetStaticModuleState@@YGPAVAFX_MODULE_STATE@@XZ:PROC ; AfxGetStaticModuleState
EXTRN	??0CImageList@@QAE@XZ:PROC			; CImageList::CImageList
EXTRN	?Create@CImageList@@QAEHIHHK@Z:PROC		; CImageList::Create
EXTRN	?FromHandle@CImageList@@SGPAV1@PAU_IMAGELIST@@@Z:PROC ; CImageList::FromHandle
EXTRN	??1CImageList@@UAE@XZ:PROC			; CImageList::~CImageList
EXTRN	?GetRuntimeClass@CMenu@@UBEPAUCRuntimeClass@@XZ:PROC ; CMenu::GetRuntimeClass
EXTRN	?DestroyMenu@CMenu@@QAEHXZ:PROC			; CMenu::DestroyMenu
EXTRN	?FromHandle@CMenu@@SGPAV1@PAUHMENU__@@@Z:PROC	; CMenu::FromHandle
EXTRN	?Attach@CMenu@@QAEHPAUHMENU__@@@Z:PROC		; CMenu::Attach
EXTRN	?TrackPopupMenu@CMenu@@QAEHIHHPAVCWnd@@PBUtagRECT@@@Z:PROC ; CMenu::TrackPopupMenu
EXTRN	?DrawItem@CMenu@@UAEXPAUtagDRAWITEMSTRUCT@@@Z:PROC ; CMenu::DrawItem
EXTRN	?MeasureItem@CMenu@@UAEXPAUtagMEASUREITEMSTRUCT@@@Z:PROC ; CMenu::MeasureItem
EXTRN	??_ECMenu@@UAEPAXI@Z:PROC			; CMenu::`vector deleting destructor'
EXTRN	?OnCmdMsg@CCmdTarget@@UAEHIHPAXPAUAFX_CMDHANDLERINFO@@@Z:PROC ; CCmdTarget::OnCmdMsg
EXTRN	?IsInvokeAllowed@CCmdTarget@@UAEHJ@Z:PROC	; CCmdTarget::IsInvokeAllowed
EXTRN	?GetDispatchIID@CCmdTarget@@UAEHPAU_GUID@@@Z:PROC ; CCmdTarget::GetDispatchIID
EXTRN	?GetTypeInfoCount@CCmdTarget@@UAEIXZ:PROC	; CCmdTarget::GetTypeInfoCount
EXTRN	?GetTypeLibCache@CCmdTarget@@UAEPAVCTypeLibCache@@XZ:PROC ; CCmdTarget::GetTypeLibCache
EXTRN	?GetTypeLib@CCmdTarget@@UAEJKPAPAUITypeLib@@@Z:PROC ; CCmdTarget::GetTypeLib
EXTRN	?GetCommandMap@CCmdTarget@@MBEPBUAFX_OLECMDMAP@@XZ:PROC ; CCmdTarget::GetCommandMap
EXTRN	?GetDispatchMap@CCmdTarget@@MBEPBUAFX_DISPMAP@@XZ:PROC ; CCmdTarget::GetDispatchMap
EXTRN	?GetConnectionMap@CCmdTarget@@MBEPBUAFX_CONNECTIONMAP@@XZ:PROC ; CCmdTarget::GetConnectionMap
EXTRN	?GetEventSinkMap@CCmdTarget@@MBEPBUAFX_EVENTSINKMAP@@XZ:PROC ; CCmdTarget::GetEventSinkMap
EXTRN	?OnCreateAggregates@CCmdTarget@@UAEHXZ:PROC	; CCmdTarget::OnCreateAggregates
EXTRN	?GetInterfaceHook@CCmdTarget@@UAEPAUIUnknown@@PBX@Z:PROC ; CCmdTarget::GetInterfaceHook
EXTRN	?GetExtraConnectionPoints@CCmdTarget@@MAEHPAVCPtrArray@@@Z:PROC ; CCmdTarget::GetExtraConnectionPoints
EXTRN	?GetConnectionHook@CCmdTarget@@MAEPAUIConnectionPoint@@ABU_GUID@@@Z:PROC ; CCmdTarget::GetConnectionHook
EXTRN	??0CWnd@@QAE@XZ:PROC				; CWnd::CWnd
EXTRN	?FromHandle@CWnd@@SGPAV1@PAUHWND__@@@Z:PROC	; CWnd::FromHandle
EXTRN	?PreSubclassWindow@CWnd@@UAEXXZ:PROC		; CWnd::PreSubclassWindow
EXTRN	?Create@CWnd@@UAEHPBD0KABUtagRECT@@PAV1@IPAUCCreateContext@@@Z:PROC ; CWnd::Create
EXTRN	?CreateEx@CWnd@@UAEHKPBD0KHHHHPAUHWND__@@PAUHMENU__@@PAX@Z:PROC ; CWnd::CreateEx
EXTRN	?CreateEx@CWnd@@UAEHKPBD0KABUtagRECT@@PAV1@IPAX@Z:PROC ; CWnd::CreateEx
EXTRN	?DestroyWindow@CWnd@@UAEHXZ:PROC		; CWnd::DestroyWindow
EXTRN	?PreCreateWindow@CWnd@@UAEHAAUtagCREATESTRUCTA@@@Z:PROC ; CWnd::PreCreateWindow
EXTRN	?CalcWindowRect@CWnd@@UAEXPAUtagRECT@@I@Z:PROC	; CWnd::CalcWindowRect
EXTRN	?GetMenu@CWnd@@UBEPAVCMenu@@XZ:PROC		; CWnd::GetMenu
EXTRN	?SetMenu@CWnd@@UAEHPAVCMenu@@@Z:PROC		; CWnd::SetMenu
EXTRN	?OnToolHitTest@CWnd@@UBEHVCPoint@@PAUtagTOOLINFOA@@@Z:PROC ; CWnd::OnToolHitTest
EXTRN	?GetScrollBarCtrl@CWnd@@UBEPAVCScrollBar@@H@Z:PROC ; CWnd::GetScrollBarCtrl
EXTRN	?WinHelpA@CWnd@@UAEXKI@Z:PROC			; CWnd::WinHelpA
EXTRN	?HtmlHelpA@CWnd@@UAEXKI@Z:PROC			; CWnd::HtmlHelpA
EXTRN	?WinHelpInternal@CWnd@@UAEXKI@Z:PROC		; CWnd::WinHelpInternal
EXTRN	?ContinueModal@CWnd@@UAEHXZ:PROC		; CWnd::ContinueModal
EXTRN	?EndModalLoop@CWnd@@UAEXH@Z:PROC		; CWnd::EndModalLoop
EXTRN	?OnDrawIconicThumbnailOrLivePreview@CWnd@@UAEXAAVCDC@@VCRect@@VCSize@@HAAH@Z:PROC ; CWnd::OnDrawIconicThumbnailOrLivePreview
EXTRN	?GetInterfaceMap@CWnd@@MBEPBUAFX_INTERFACEMAP@@XZ:PROC ; CWnd::GetInterfaceMap
EXTRN	?EnsureStdObj@CWnd@@UAEJXZ:PROC			; CWnd::EnsureStdObj
EXTRN	?get_accParent@CWnd@@UAEJPAPAUIDispatch@@@Z:PROC ; CWnd::get_accParent
EXTRN	?get_accChildCount@CWnd@@UAEJPAJ@Z:PROC		; CWnd::get_accChildCount
EXTRN	?get_accChild@CWnd@@UAEJUtagVARIANT@@PAPAUIDispatch@@@Z:PROC ; CWnd::get_accChild
EXTRN	?get_accName@CWnd@@UAEJUtagVARIANT@@PAPA_W@Z:PROC ; CWnd::get_accName
EXTRN	?get_accValue@CWnd@@UAEJUtagVARIANT@@PAPA_W@Z:PROC ; CWnd::get_accValue
EXTRN	?get_accDescription@CWnd@@UAEJUtagVARIANT@@PAPA_W@Z:PROC ; CWnd::get_accDescription
EXTRN	?get_accRole@CWnd@@UAEJUtagVARIANT@@PAU2@@Z:PROC ; CWnd::get_accRole
EXTRN	?get_accState@CWnd@@UAEJUtagVARIANT@@PAU2@@Z:PROC ; CWnd::get_accState
EXTRN	?get_accHelp@CWnd@@UAEJUtagVARIANT@@PAPA_W@Z:PROC ; CWnd::get_accHelp
EXTRN	?get_accHelpTopic@CWnd@@UAEJPAPA_WUtagVARIANT@@PAJ@Z:PROC ; CWnd::get_accHelpTopic
EXTRN	?get_accKeyboardShortcut@CWnd@@UAEJUtagVARIANT@@PAPA_W@Z:PROC ; CWnd::get_accKeyboardShortcut
EXTRN	?get_accFocus@CWnd@@UAEJPAUtagVARIANT@@@Z:PROC	; CWnd::get_accFocus
EXTRN	?get_accSelection@CWnd@@UAEJPAUtagVARIANT@@@Z:PROC ; CWnd::get_accSelection
EXTRN	?get_accDefaultAction@CWnd@@UAEJUtagVARIANT@@PAPA_W@Z:PROC ; CWnd::get_accDefaultAction
EXTRN	?accSelect@CWnd@@UAEJJUtagVARIANT@@@Z:PROC	; CWnd::accSelect
EXTRN	?accLocation@CWnd@@UAEJPAJ000UtagVARIANT@@@Z:PROC ; CWnd::accLocation
EXTRN	?accNavigate@CWnd@@UAEJJUtagVARIANT@@PAU2@@Z:PROC ; CWnd::accNavigate
EXTRN	?accHitTest@CWnd@@UAEJJJPAUtagVARIANT@@@Z:PROC	; CWnd::accHitTest
EXTRN	?accDoDefaultAction@CWnd@@UAEJUtagVARIANT@@@Z:PROC ; CWnd::accDoDefaultAction
EXTRN	?put_accName@CWnd@@UAEJUtagVARIANT@@PA_W@Z:PROC	; CWnd::put_accName
EXTRN	?put_accValue@CWnd@@UAEJUtagVARIANT@@PA_W@Z:PROC ; CWnd::put_accValue
EXTRN	?SetProxy@CWnd@@UAEJPAUIAccessibleProxy@@@Z:PROC ; CWnd::SetProxy
EXTRN	?CreateAccessibleProxy@CWnd@@UAEJIJPAJ@Z:PROC	; CWnd::CreateAccessibleProxy
EXTRN	?OnCommand@CWnd@@MAEHIJ@Z:PROC			; CWnd::OnCommand
EXTRN	?OnNotify@CWnd@@MAEHIJPAJ@Z:PROC		; CWnd::OnNotify
EXTRN	?GetSuperWndProcAddr@CWnd@@MAEPAP6GJPAUHWND__@@IIJ@ZXZ:PROC ; CWnd::GetSuperWndProcAddr
EXTRN	?PreTranslateMessage@CWnd@@UAEHPAUtagMSG@@@Z:PROC ; CWnd::PreTranslateMessage
EXTRN	?OnAmbientProperty@CWnd@@UAEHPAVCOleControlSite@@JPAUtagVARIANT@@@Z:PROC ; CWnd::OnAmbientProperty
EXTRN	?WindowProc@CWnd@@MAEJIIJ@Z:PROC		; CWnd::WindowProc
EXTRN	?OnWndMsg@CWnd@@MAEHIIJPAJ@Z:PROC		; CWnd::OnWndMsg
EXTRN	?Default@CWnd@@IAEJXZ:PROC			; CWnd::Default
EXTRN	?DefWindowProcA@CWnd@@MAEJIIJ@Z:PROC		; CWnd::DefWindowProcA
EXTRN	?PostNcDestroy@CWnd@@MAEXXZ:PROC		; CWnd::PostNcDestroy
EXTRN	?OnChildNotify@CWnd@@MAEHIIJPAJ@Z:PROC		; CWnd::OnChildNotify
EXTRN	?OnTouchInputs@CWnd@@MAEHIPAUtagTOUCHINPUT@@@Z:PROC ; CWnd::OnTouchInputs
EXTRN	?OnTouchInput@CWnd@@MAEHVCPoint@@HHPAUtagTOUCHINPUT@@@Z:PROC ; CWnd::OnTouchInput
EXTRN	?GetGestureStatus@CWnd@@MAEKVCPoint@@@Z:PROC	; CWnd::GetGestureStatus
EXTRN	?OnGestureZoom@CWnd@@MAEHVCPoint@@J@Z:PROC	; CWnd::OnGestureZoom
EXTRN	?OnGesturePan@CWnd@@MAEHVCPoint@@0@Z:PROC	; CWnd::OnGesturePan
EXTRN	?OnGestureRotate@CWnd@@MAEHVCPoint@@N@Z:PROC	; CWnd::OnGestureRotate
EXTRN	?OnGestureTwoFingerTap@CWnd@@MAEHVCPoint@@@Z:PROC ; CWnd::OnGestureTwoFingerTap
EXTRN	?OnGesturePressAndTap@CWnd@@MAEHVCPoint@@J@Z:PROC ; CWnd::OnGesturePressAndTap
EXTRN	?ResizeDynamicLayout@CWnd@@MAEXXZ:PROC		; CWnd::ResizeDynamicLayout
EXTRN	?CheckAutoCenter@CWnd@@UAEHXZ:PROC		; CWnd::CheckAutoCenter
EXTRN	?IsFrameWnd@CWnd@@UBEHXZ:PROC			; CWnd::IsFrameWnd
EXTRN	?OnFinalRelease@CWnd@@UAEXXZ:PROC		; CWnd::OnFinalRelease
EXTRN	?CreateControlContainer@CWnd@@MAEHPAPAVCOleControlContainer@@@Z:PROC ; CWnd::CreateControlContainer
EXTRN	?CreateControlSite@CWnd@@MAEHPAVCOleControlContainer@@PAPAVCOleControlSite@@IABU_GUID@@@Z:PROC ; CWnd::CreateControlSite
EXTRN	?SetOccDialogInfo@CWnd@@MAEHPAU_AFX_OCC_DIALOG_INFO@@@Z:PROC ; CWnd::SetOccDialogInfo
EXTRN	?GetOccDialogInfo@CWnd@@MAEPAU_AFX_OCC_DIALOG_INFO@@XZ:PROC ; CWnd::GetOccDialogInfo
EXTRN	?DoModal@CDialog@@UAEHXZ:PROC			; CDialog::DoModal
EXTRN	??1CDialog@@UAE@XZ:PROC				; CDialog::~CDialog
EXTRN	?AfxFindResourceHandle@@YGPAUHINSTANCE__@@PBD0@Z:PROC ; AfxFindResourceHandle
EXTRN	??0COleDataSource@@QAE@XZ:PROC			; COleDataSource::COleDataSource
EXTRN	?CacheGlobalData@COleDataSource@@QAEXGPAXPAUtagFORMATETC@@@Z:PROC ; COleDataSource::CacheGlobalData
EXTRN	?DoDragDrop@COleDataSource@@QAEKKPBUtagRECT@@PAVCOleDropSource@@@Z:PROC ; COleDataSource::DoDragDrop
EXTRN	??1COleDataSource@@UAE@XZ:PROC			; COleDataSource::~COleDataSource
EXTRN	?Register@COleDropTarget@@QAEHPAVCWnd@@@Z:PROC	; COleDropTarget::Register
EXTRN	??1COleDropTarget@@UAE@XZ:PROC			; COleDropTarget::~COleDropTarget
EXTRN	?GetRuntimeClass@CTreeCtrl@@UBEPAUCRuntimeClass@@XZ:PROC ; CTreeCtrl::GetRuntimeClass
EXTRN	?SetItem@CTreeCtrl@@QAEHPAU_TREEITEM@@IPBDHHIIJ@Z:PROC ; CTreeCtrl::SetItem
EXTRN	?HitTest@CTreeCtrl@@QBEPAU_TREEITEM@@VCPoint@@PAI@Z:PROC ; CTreeCtrl::HitTest
EXTRN	??1CTreeCtrl@@UAE@XZ:PROC			; CTreeCtrl::~CTreeCtrl
EXTRN	?GetThisMessageMap@CTreeCtrl@@KGPBUAFX_MSGMAP@@XZ:PROC ; CTreeCtrl::GetThisMessageMap
EXTRN	?GetMessageMap@CTreeCtrl@@MBEPBUAFX_MSGMAP@@XZ:PROC ; CTreeCtrl::GetMessageMap
EXTRN	??_ECTreeCtrl@@UAEPAXI@Z:PROC			; CTreeCtrl::`vector deleting destructor'
EXTRN	?GetMetaText@IMetaTable@@QAEPBDPAUHWND__@@W4E_CODEPAGE@1@PBDH@Z:PROC ; IMetaTable::GetMetaText
EXTRN	?GetLanguageText@IMetaTable@@QAEPBDPAUHWND__@@W4E_CODEPAGE@1@PBDH@Z:PROC ; IMetaTable::GetLanguageText
EXTRN	?GetMultipleLanguageText@IMetaTable@@QAE?AV?$CStringT@DV?$StrTraitMFC_DLL@DV?$ChTraitsCRT@D@ATL@@@@@ATL@@PAUHWND__@@V23@1HH@Z:PROC ; IMetaTable::GetMultipleLanguageText
EXTRN	??0CChartDrop@@QAE@XZ:PROC			; CChartDrop::CChartDrop
EXTRN	?SetParent@CChartDrop@@QAEXPAVCWnd@@@Z:PROC	; CChartDrop::SetParent
EXTRN	?SetName@CChartDrop@@QAEXPAD@Z:PROC		; CChartDrop::SetName
EXTRN	??0CChartLink@@QAE@PAV0@HPADPAUHWND__@@@Z:PROC	; CChartLink::CChartLink
EXTRN	?InsertAfterTarget@CChartLink@@QAEXPAV1@@Z:PROC	; CChartLink::InsertAfterTarget
EXTRN	?Cut@CChartLink@@QAEXXZ:PROC			; CChartLink::Cut
EXTRN	?InsertChild@CChartLink@@QAEHPAV1@@Z:PROC	; CChartLink::InsertChild
EXTRN	?AddChild@CChartLink@@QAEHPAV1@@Z:PROC		; CChartLink::AddChild
EXTRN	?Add@CChartLink@@QAEHPAV1@@Z:PROC		; CChartLink::Add
EXTRN	?Find@CChartLink@@QAEPAV1@PAU_TREEITEM@@@Z:PROC	; CChartLink::Find
EXTRN	??1CChartLink@@UAE@XZ:PROC			; CChartLink::~CChartLink
EXTRN	?SetOcxHwnd@CChartLink@@QAEXPAUHWND__@@@Z:PROC	; CChartLink::SetOcxHwnd
EXTRN	??1CCheckComboBox@@UAE@XZ:PROC			; CCheckComboBox::~CCheckComboBox
EXTRN	??1CDlgToolTip@@UAE@XZ:PROC			; CDlgToolTip::~CDlgToolTip
EXTRN	??1CNoSystemMenuCombo@@UAE@XZ:PROC		; CNoSystemMenuCombo::~CNoSystemMenuCombo
EXTRN	?SetLineColor@CLineColor@@QAEXHABV?$CStringT@DV?$StrTraitMFC_DLL@DV?$ChTraitsCRT@D@ATL@@@@@ATL@@@Z:PROC ; CLineColor::SetLineColor
EXTRN	??0CLineColor@@QAE@XZ:PROC			; CLineColor::CLineColor
EXTRN	??1CLineColor@@UAE@XZ:PROC			; CLineColor::~CLineColor
EXTRN	??0CDlgGraphSetting@@QAE@PAVCChartLink@@PAVCLineColor@@PAUIGraphInfoManager134661@@PAUHWND__@@PAVCWnd@@@Z:PROC ; CDlgGraphSetting::CDlgGraphSetting
EXTRN	??1CDlgGraphSetting@@UAE@XZ:PROC		; CDlgGraphSetting::~CDlgGraphSetting
EXTRN	?SetAllItemInfoOfPacketPage@CDlgGraphSetting@@QAEXABV?$CStringT@DV?$StrTraitMFC_DLL@DV?$ChTraitsCRT@D@ATL@@@@@ATL@@@Z:PROC ; CDlgGraphSetting::SetAllItemInfoOfPacketPage
EXTRN	?SetAllItemInfoOfPacketPage@CDlgBlockHorizontalScale@@QAEXABV?$CStringT@DV?$StrTraitMFC_DLL@DV?$ChTraitsCRT@D@ATL@@@@@ATL@@@Z:PROC ; CDlgBlockHorizontalScale::SetAllItemInfoOfPacketPage
EXTRN	??0CDlgBlockHorizontalScale@@QAE@PAVCChartLink@@PAUHWND__@@PAVCWnd@@@Z:PROC ; CDlgBlockHorizontalScale::CDlgBlockHorizontalScale
EXTRN	??_ECMyTreeCtrl@@UAEPAXI@Z:PROC			; CMyTreeCtrl::`vector deleting destructor'
EXTRN	?GetStringData@CDataConversion@@SA?AV?$CStringT@DV?$StrTraitMFC_DLL@DV?$ChTraitsCRT@D@ATL@@@@@ATL@@AAV23@ABV23@_N@Z:PROC ; CDataConversion::GetStringData
EXTRN	?GetStringData@CDataConversion@@SA?AV?$CStringT@DV?$StrTraitMFC_DLL@DV?$ChTraitsCRT@D@ATL@@@@@ATL@@AAV23@ABV23@1_N@Z:PROC ; CDataConversion::GetStringData
EXTRN	?SetToolTipInfo@CChartListPage@@QAEXAAPAU_TREEITEM@@ABV?$CStringT@DV?$StrTraitMFC_DLL@DV?$ChTraitsCRT@D@ATL@@@@@ATL@@@Z:PROC ; CChartListPage::SetToolTipInfo
EXTRN	?GetBlockandGraphAllData@CDataOfChartListPage@@QAE?AV?$CStringT@DV?$StrTraitMFC_DLL@DV?$ChTraitsCRT@D@ATL@@@@@ATL@@PAVCChartLink@@@Z:PROC ; CDataOfChartListPage::GetBlockandGraphAllData
EXTRN	??0CDataOfChartListPage@@QAE@PAUHWND__@@@Z:PROC	; CDataOfChartListPage::CDataOfChartListPage
EXTRN	??1CDataOfChartListPage@@UAE@XZ:PROC		; CDataOfChartListPage::~CDataOfChartListPage
EXTRN	??0CDlgBlockVerticalScale@@QAE@PAVCChartLink@@PAUHWND__@@PAVCWnd@@@Z:PROC ; CDlgBlockVerticalScale::CDlgBlockVerticalScale
EXTRN	?SetAllItemInfoOfPacketPage@CDlgBlockVerticalScale@@QAEXABV?$CStringT@DV?$StrTraitMFC_DLL@DV?$ChTraitsCRT@D@ATL@@@@@ATL@@@Z:PROC ; CDlgBlockVerticalScale::SetAllItemInfoOfPacketPage
EXTRN	??0CDlgChartInvertSetting@@QAE@PAVCChartLink@@PAVCWnd@@@Z:PROC ; CDlgChartInvertSetting::CDlgChartInvertSetting
EXTRN	@__security_check_cookie@4:PROC
EXTRN	___CxxFrameHandler3:PROC
EXTRN	??_7type_info@@6B@:QWORD			; type_info::`vftable'
EXTRN	?g_iMetaTable@@3VIMetaTable@@A:BYTE		; g_iMetaTable
EXTRN	___security_cookie:DWORD
EXTRN	__fltused:DWORD
;	COMDAT __xmm@0000000000000000000000000000003c
CONST	SEGMENT
__xmm@0000000000000000000000000000003c DB '<', 00H, 00H, 00H, 00H, 00H, 00H
	DB	00H, 00H, 00H, 00H, 00H, 00H, 00H, 00H, 00H
CONST	ENDS
;	COMDAT ??_R1A@?0A@EA@CMyTreeCtrl@@8
rdata$r	SEGMENT
??_R1A@?0A@EA@CMyTreeCtrl@@8 DD FLAT:??_R0?AVCMyTreeCtrl@@@8 ; CMyTreeCtrl::`RTTI Base Class Descriptor at (0,-1,0,64)'
	DD	04H
	DD	00H
	DD	0ffffffffH
	DD	00H
	DD	040H
	DD	FLAT:??_R3CMyTreeCtrl@@8
rdata$r	ENDS
;	COMDAT ??_R2CMyTreeCtrl@@8
rdata$r	SEGMENT
??_R2CMyTreeCtrl@@8 DD FLAT:??_R1A@?0A@EA@CMyTreeCtrl@@8 ; CMyTreeCtrl::`RTTI Base Class Array'
	DD	FLAT:??_R1A@?0A@EA@CTreeCtrl@@8
	DD	FLAT:??_R1A@?0A@EA@CWnd@@8
	DD	FLAT:??_R1A@?0A@EA@CCmdTarget@@8
	DD	FLAT:??_R1A@?0A@EA@CObject@@8
rdata$r	ENDS
;	COMDAT ??_R3CMyTreeCtrl@@8
rdata$r	SEGMENT
??_R3CMyTreeCtrl@@8 DD 00H				; CMyTreeCtrl::`RTTI Class Hierarchy Descriptor'
	DD	00H
	DD	05H
	DD	FLAT:??_R2CMyTreeCtrl@@8
rdata$r	ENDS
;	COMDAT ??_R0?AVCMyTreeCtrl@@@8
data$rs	SEGMENT
??_R0?AVCMyTreeCtrl@@@8 DD FLAT:??_7type_info@@6B@	; CMyTreeCtrl `RTTI Type Descriptor'
	DD	00H
	DB	'.?AVCMyTreeCtrl@@', 00H
data$rs	ENDS
;	COMDAT ??_R4CMyTreeCtrl@@6B@
rdata$r	SEGMENT
??_R4CMyTreeCtrl@@6B@ DD 00H				; CMyTreeCtrl::`RTTI Complete Object Locator'
	DD	00H
	DD	00H
	DD	FLAT:??_R0?AVCMyTreeCtrl@@@8
	DD	FLAT:??_R3CMyTreeCtrl@@8
rdata$r	ENDS
;	COMDAT ??_C@_01ICJEACDI@?$DL@
CONST	SEGMENT
??_C@_01ICJEACDI@?$DL@ DB ';', 00H			; `string'
CONST	ENDS
;	COMDAT ??_C@_09MABJODIH@?$CFs?$CI?$CFd?0?$CFd?$CJ@
CONST	SEGMENT
??_C@_09MABJODIH@?$CFs?$CI?$CFd?0?$CFd?$CJ@ DB '%s(%d,%d)', 00H ; `string'
CONST	ENDS
;	COMDAT ??_C@_0P@GBPFOBGA@BlockColumn?$DL?$AN?6@
CONST	SEGMENT
??_C@_0P@GBPFOBGA@BlockColumn?$DL?$AN?6@ DB 'BlockColumn;', 0dH, 0aH, 00H ; `string'
CONST	ENDS
;	COMDAT ??_C@_0BC@DENBEKI@BlockColumnEnd?$DL?$AN?6@
CONST	SEGMENT
??_C@_0BC@DENBEKI@BlockColumnEnd?$DL?$AN?6@ DB 'BlockColumnEnd;', 0dH, 0aH
	DB	00H						; `string'
CONST	ENDS
;	COMDAT ??_C@_0CD@IAJMFNPB@?$FLIndicatorName?$FN?3?5?$CFs?0?5?5?$FLTitle1?$FN?3@
CONST	SEGMENT
??_C@_0CD@IAJMFNPB@?$FLIndicatorName?$FN?3?5?$CFs?0?5?5?$FLTitle1?$FN?3@ DB '['
	DB	'IndicatorName]: %s,  [Title1]: %s', 00H	; `string'
CONST	ENDS
;	COMDAT ??_C@_04BAJDEDPD@Root@
CONST	SEGMENT
??_C@_04BAJDEDPD@Root@ DB 'Root', 00H			; `string'
CONST	ENDS
;	COMDAT ??_C@_05PPLCEPDH@Block@
CONST	SEGMENT
??_C@_05PPLCEPDH@Block@ DB 'Block', 00H			; `string'
CONST	ENDS
;	COMDAT ??_C@_09FJGDFMJE@ChartInfo@
CONST	SEGMENT
??_C@_09FJGDFMJE@ChartInfo@ DB 'ChartInfo', 00H		; `string'
CONST	ENDS
;	COMDAT ??_C@_0P@ONCIBKJN@Vertical?5Scale@
CONST	SEGMENT
??_C@_0P@ONCIBKJN@Vertical?5Scale@ DB 'Vertical Scale', 00H ; `string'
CONST	ENDS
;	COMDAT ?messageMap@?1??GetThisMessageMap@CMyTreeCtrl@@KGPBUAFX_MSGMAP@@XZ@4U3@B
CONST	SEGMENT
?messageMap@?1??GetThisMessageMap@CMyTreeCtrl@@KGPBUAFX_MSGMAP@@XZ@4U3@B DD FLAT:?GetThisMessageMap@CTreeCtrl@@KGPBUAFX_MSGMAP@@XZ ; `CMyTreeCtrl::GetThisMessageMap'::`2'::messageMap
	DD	FLAT:?_messageEntries@?1??GetThisMessageMap@CMyTreeCtrl@@KGPBUAFX_MSGMAP@@XZ@4QBUAFX_MSGMAP_ENTRY@@B
CONST	ENDS
;	COMDAT ?_messageEntries@?1??GetThisMessageMap@CMyTreeCtrl@@KGPBUAFX_MSGMAP@@XZ@4QBUAFX_MSGMAP_ENTRY@@B
CONST	SEGMENT
?_messageEntries@?1??GetThisMessageMap@CMyTreeCtrl@@KGPBUAFX_MSGMAP@@XZ@4QBUAFX_MSGMAP_ENTRY@@B DD 0bc4eH ; `CMyTreeCtrl::GetThisMessageMap'::`2'::_messageEntries
	DD	0fe69H
	DD	00H
	DD	00H
	DD	03eH
	DD	FLAT:?OnBegindrag@CMyTreeCtrl@@IAEXPAUtagNMHDR@@PAJ@Z
	DD	0204H
	DD	00H
	DD	00H
	DD	00H
	DD	036H
	DD	FLAT:?OnRButtonDown@CMyTreeCtrl@@IAEXIVCPoint@@@Z
	DD	0111H
	DD	00H
	DD	08003H
	DD	08003H
	DD	03aH
	DD	FLAT:?OnTitlescalecolor@CMyTreeCtrl@@IAEXXZ
	DD	0111H
	DD	00H
	DD	08004H
	DD	08004H
	DD	03aH
	DD	FLAT:?OnDelete@CMyTreeCtrl@@IAEXXZ
	DD	0111H
	DD	00H
	DD	08005H
	DD	08005H
	DD	03aH
	DD	FLAT:?OnHorizonscale@CMyTreeCtrl@@IAEXXZ
	DD	0111H
	DD	00H
	DD	08006H
	DD	08006H
	DD	03aH
	DD	FLAT:?OnVertScale@CMyTreeCtrl@@IAEXXZ
	DD	0111H
	DD	00H
	DD	08007H
	DD	08007H
	DD	03aH
	DD	FLAT:?OnVertDelete@CMyTreeCtrl@@IAEXXZ
	DD	01H
	DD	00H
	DD	00H
	DD	00H
	DD	0dH
	DD	FLAT:?OnCreate@CMyTreeCtrl@@IAEHPAUtagCREATESTRUCTA@@@Z
	DD	0111H
	DD	00H
	DD	0800cH
	DD	0800cH
	DD	03aH
	DD	FLAT:?OnChartinvert@CMyTreeCtrl@@IAEXXZ
	DD	0595H
	DD	00H
	DD	00H
	DD	00H
	DD	0eH
	DD	FLAT:?OnDragChartData@CMyTreeCtrl@@IAEJIJ@Z
	DD	0596H
	DD	00H
	DD	00H
	DD	00H
	DD	0eH
	DD	FLAT:?OnDropChartData@CMyTreeCtrl@@IAEJIJ@Z
	DD	00H
	DD	00H
	DD	00H
	DD	00H
	DD	00H
	DD	00H
CONST	ENDS
;	COMDAT ??_C@_0L@GFMNOAEH@Chart?5List@
CONST	SEGMENT
??_C@_0L@GFMNOAEH@Chart?5List@ DB 'Chart List', 00H	; `string'
CONST	ENDS
;	COMDAT ??_7CMyTreeCtrl@@6B@
CONST	SEGMENT
??_7CMyTreeCtrl@@6B@ DD FLAT:??_R4CMyTreeCtrl@@6B@	; CMyTreeCtrl::`vftable'
	DD	FLAT:?GetRuntimeClass@CTreeCtrl@@UBEPAUCRuntimeClass@@XZ
	DD	FLAT:??_ECMyTreeCtrl@@UAEPAXI@Z
	DD	FLAT:?Serialize@CObject@@UAEXAAVCArchive@@@Z
	DD	FLAT:?AssertValid@CObject@@UBEXXZ
	DD	FLAT:?Dump@CObject@@UBEXAAVCDumpContext@@@Z
	DD	FLAT:?OnCmdMsg@CCmdTarget@@UAEHIHPAXPAUAFX_CMDHANDLERINFO@@@Z
	DD	FLAT:?OnFinalRelease@CWnd@@UAEXXZ
	DD	FLAT:?IsInvokeAllowed@CCmdTarget@@UAEHJ@Z
	DD	FLAT:?GetDispatchIID@CCmdTarget@@UAEHPAU_GUID@@@Z
	DD	FLAT:?GetTypeInfoCount@CCmdTarget@@UAEIXZ
	DD	FLAT:?GetTypeLibCache@CCmdTarget@@UAEPAVCTypeLibCache@@XZ
	DD	FLAT:?GetTypeLib@CCmdTarget@@UAEJKPAPAUITypeLib@@@Z
	DD	FLAT:?GetMessageMap@CMyTreeCtrl@@MBEPBUAFX_MSGMAP@@XZ
	DD	FLAT:?GetCommandMap@CCmdTarget@@MBEPBUAFX_OLECMDMAP@@XZ
	DD	FLAT:?GetDispatchMap@CCmdTarget@@MBEPBUAFX_DISPMAP@@XZ
	DD	FLAT:?GetConnectionMap@CCmdTarget@@MBEPBUAFX_CONNECTIONMAP@@XZ
	DD	FLAT:?GetInterfaceMap@CWnd@@MBEPBUAFX_INTERFACEMAP@@XZ
	DD	FLAT:?GetEventSinkMap@CCmdTarget@@MBEPBUAFX_EVENTSINKMAP@@XZ
	DD	FLAT:?OnCreateAggregates@CCmdTarget@@UAEHXZ
	DD	FLAT:?GetInterfaceHook@CCmdTarget@@UAEPAUIUnknown@@PBX@Z
	DD	FLAT:?GetExtraConnectionPoints@CCmdTarget@@MAEHPAVCPtrArray@@@Z
	DD	FLAT:?GetConnectionHook@CCmdTarget@@MAEPAUIConnectionPoint@@ABU_GUID@@@Z
	DD	FLAT:?PreSubclassWindow@CWnd@@UAEXXZ
	DD	FLAT:?Create@CWnd@@UAEHPBD0KABUtagRECT@@PAV1@IPAUCCreateContext@@@Z
	DD	FLAT:?CreateEx@CWnd@@UAEHKPBD0KABUtagRECT@@PAV1@IPAX@Z
	DD	FLAT:?CreateEx@CWnd@@UAEHKPBD0KHHHHPAUHWND__@@PAUHMENU__@@PAX@Z
	DD	FLAT:?DestroyWindow@CWnd@@UAEHXZ
	DD	FLAT:?PreCreateWindow@CWnd@@UAEHAAUtagCREATESTRUCTA@@@Z
	DD	FLAT:?CalcWindowRect@CWnd@@UAEXPAUtagRECT@@I@Z
	DD	FLAT:?GetMenu@CWnd@@UBEPAVCMenu@@XZ
	DD	FLAT:?SetMenu@CWnd@@UAEHPAVCMenu@@@Z
	DD	FLAT:?OnToolHitTest@CWnd@@UBEHVCPoint@@PAUtagTOOLINFOA@@@Z
	DD	FLAT:?GetScrollBarCtrl@CWnd@@UBEPAVCScrollBar@@H@Z
	DD	FLAT:?WinHelpA@CWnd@@UAEXKI@Z
	DD	FLAT:?HtmlHelpA@CWnd@@UAEXKI@Z
	DD	FLAT:?WinHelpInternal@CWnd@@UAEXKI@Z
	DD	FLAT:?ContinueModal@CWnd@@UAEHXZ
	DD	FLAT:?EndModalLoop@CWnd@@UAEXH@Z
	DD	FLAT:?OnDrawIconicThumbnailOrLivePreview@CWnd@@UAEXAAVCDC@@VCRect@@VCSize@@HAAH@Z
	DD	FLAT:?EnsureStdObj@CWnd@@UAEJXZ
	DD	FLAT:?get_accParent@CWnd@@UAEJPAPAUIDispatch@@@Z
	DD	FLAT:?get_accChildCount@CWnd@@UAEJPAJ@Z
	DD	FLAT:?get_accChild@CWnd@@UAEJUtagVARIANT@@PAPAUIDispatch@@@Z
	DD	FLAT:?get_accName@CWnd@@UAEJUtagVARIANT@@PAPA_W@Z
	DD	FLAT:?get_accValue@CWnd@@UAEJUtagVARIANT@@PAPA_W@Z
	DD	FLAT:?get_accDescription@CWnd@@UAEJUtagVARIANT@@PAPA_W@Z
	DD	FLAT:?get_accRole@CWnd@@UAEJUtagVARIANT@@PAU2@@Z
	DD	FLAT:?get_accState@CWnd@@UAEJUtagVARIANT@@PAU2@@Z
	DD	FLAT:?get_accHelp@CWnd@@UAEJUtagVARIANT@@PAPA_W@Z
	DD	FLAT:?get_accHelpTopic@CWnd@@UAEJPAPA_WUtagVARIANT@@PAJ@Z
	DD	FLAT:?get_accKeyboardShortcut@CWnd@@UAEJUtagVARIANT@@PAPA_W@Z
	DD	FLAT:?get_accFocus@CWnd@@UAEJPAUtagVARIANT@@@Z
	DD	FLAT:?get_accSelection@CWnd@@UAEJPAUtagVARIANT@@@Z
	DD	FLAT:?get_accDefaultAction@CWnd@@UAEJUtagVARIANT@@PAPA_W@Z
	DD	FLAT:?accSelect@CWnd@@UAEJJUtagVARIANT@@@Z
	DD	FLAT:?accLocation@CWnd@@UAEJPAJ000UtagVARIANT@@@Z
	DD	FLAT:?accNavigate@CWnd@@UAEJJUtagVARIANT@@PAU2@@Z
	DD	FLAT:?accHitTest@CWnd@@UAEJJJPAUtagVARIANT@@@Z
	DD	FLAT:?accDoDefaultAction@CWnd@@UAEJUtagVARIANT@@@Z
	DD	FLAT:?put_accName@CWnd@@UAEJUtagVARIANT@@PA_W@Z
	DD	FLAT:?put_accValue@CWnd@@UAEJUtagVARIANT@@PA_W@Z
	DD	FLAT:?SetProxy@CWnd@@UAEJPAUIAccessibleProxy@@@Z
	DD	FLAT:?CreateAccessibleProxy@CWnd@@UAEJIJPAJ@Z
	DD	FLAT:?OnCommand@CWnd@@MAEHIJ@Z
	DD	FLAT:?OnNotify@CWnd@@MAEHIJPAJ@Z
	DD	FLAT:?GetSuperWndProcAddr@CWnd@@MAEPAP6GJPAUHWND__@@IIJ@ZXZ
	DD	FLAT:?DoDataExchange@CWnd@@MAEXPAVCDataExchange@@@Z
	DD	FLAT:?BeginModalState@CWnd@@UAEXXZ
	DD	FLAT:?EndModalState@CWnd@@UAEXXZ
	DD	FLAT:?PreTranslateMessage@CWnd@@UAEHPAUtagMSG@@@Z
	DD	FLAT:?OnAmbientProperty@CWnd@@UAEHPAVCOleControlSite@@JPAUtagVARIANT@@@Z
	DD	FLAT:?WindowProc@CWnd@@MAEJIIJ@Z
	DD	FLAT:?OnWndMsg@CWnd@@MAEHIIJPAJ@Z
	DD	FLAT:?DefWindowProcA@CWnd@@MAEJIIJ@Z
	DD	FLAT:?PostNcDestroy@CWnd@@MAEXXZ
	DD	FLAT:?OnChildNotify@CWnd@@MAEHIIJPAJ@Z
	DD	FLAT:?OnTouchInputs@CWnd@@MAEHIPAUtagTOUCHINPUT@@@Z
	DD	FLAT:?OnTouchInput@CWnd@@MAEHVCPoint@@HHPAUtagTOUCHINPUT@@@Z
	DD	FLAT:?GetGestureStatus@CWnd@@MAEKVCPoint@@@Z
	DD	FLAT:?OnGestureZoom@CWnd@@MAEHVCPoint@@J@Z
	DD	FLAT:?OnGesturePan@CWnd@@MAEHVCPoint@@0@Z
	DD	FLAT:?OnGestureRotate@CWnd@@MAEHVCPoint@@N@Z
	DD	FLAT:?OnGestureTwoFingerTap@CWnd@@MAEHVCPoint@@@Z
	DD	FLAT:?OnGesturePressAndTap@CWnd@@MAEHVCPoint@@J@Z
	DD	FLAT:?ResizeDynamicLayout@CWnd@@MAEXXZ
	DD	FLAT:?CheckAutoCenter@CWnd@@UAEHXZ
	DD	FLAT:?IsFrameWnd@CWnd@@UBEHXZ
	DD	FLAT:?CreateControlContainer@CWnd@@MAEHPAPAVCOleControlContainer@@@Z
	DD	FLAT:?CreateControlSite@CWnd@@MAEHPAVCOleControlContainer@@PAPAVCOleControlSite@@IABU_GUID@@@Z
	DD	FLAT:?SetOccDialogInfo@CWnd@@MAEHPAU_AFX_OCC_DIALOG_INFO@@@Z
	DD	FLAT:?GetOccDialogInfo@CWnd@@MAEPAU_AFX_OCC_DIALOG_INFO@@XZ
CONST	ENDS
_DATA	SEGMENT
?pGraphTypeItem@@3PAW4E_METACODE@IMetaTable@@A DD 01f7H	; pGraphTypeItem
	DD	01f8H
	DD	01f9H
	DD	01faH
	DD	01fbH
	DD	01fcH
	DD	01fdH
	DD	01feH
_DATA	ENDS
;	COMDAT ??_C@_0BA@ENJOCHIO@LoadResourceDLL@
CONST	SEGMENT
??_C@_0BA@ENJOCHIO@LoadResourceDLL@ DB 'LoadResourceDLL', 00H ; `string'
CONST	ENDS
;	COMDAT ??_R1A@?0A@EA@CTreeCtrl@@8
rdata$r	SEGMENT
??_R1A@?0A@EA@CTreeCtrl@@8 DD FLAT:??_R0?AVCTreeCtrl@@@8 ; CTreeCtrl::`RTTI Base Class Descriptor at (0,-1,0,64)'
	DD	03H
	DD	00H
	DD	0ffffffffH
	DD	00H
	DD	040H
	DD	FLAT:??_R3CTreeCtrl@@8
rdata$r	ENDS
;	COMDAT ??_R2CTreeCtrl@@8
rdata$r	SEGMENT
??_R2CTreeCtrl@@8 DD FLAT:??_R1A@?0A@EA@CTreeCtrl@@8	; CTreeCtrl::`RTTI Base Class Array'
	DD	FLAT:??_R1A@?0A@EA@CWnd@@8
	DD	FLAT:??_R1A@?0A@EA@CCmdTarget@@8
	DD	FLAT:??_R1A@?0A@EA@CObject@@8
rdata$r	ENDS
;	COMDAT ??_R3CTreeCtrl@@8
rdata$r	SEGMENT
??_R3CTreeCtrl@@8 DD 00H				; CTreeCtrl::`RTTI Class Hierarchy Descriptor'
	DD	00H
	DD	04H
	DD	FLAT:??_R2CTreeCtrl@@8
rdata$r	ENDS
;	COMDAT ??_R0?AVCTreeCtrl@@@8
data$rs	SEGMENT
??_R0?AVCTreeCtrl@@@8 DD FLAT:??_7type_info@@6B@	; CTreeCtrl `RTTI Type Descriptor'
	DD	00H
	DB	'.?AVCTreeCtrl@@', 00H
data$rs	ENDS
;	COMDAT ??_R4CTreeCtrl@@6B@
rdata$r	SEGMENT
??_R4CTreeCtrl@@6B@ DD 00H				; CTreeCtrl::`RTTI Complete Object Locator'
	DD	00H
	DD	00H
	DD	FLAT:??_R0?AVCTreeCtrl@@@8
	DD	FLAT:??_R3CTreeCtrl@@8
rdata$r	ENDS
;	COMDAT ??_R2CCmdTarget@@8
rdata$r	SEGMENT
??_R2CCmdTarget@@8 DD FLAT:??_R1A@?0A@EA@CCmdTarget@@8	; CCmdTarget::`RTTI Base Class Array'
	DD	FLAT:??_R1A@?0A@EA@CObject@@8
rdata$r	ENDS
;	COMDAT ??_R3CCmdTarget@@8
rdata$r	SEGMENT
??_R3CCmdTarget@@8 DD 00H				; CCmdTarget::`RTTI Class Hierarchy Descriptor'
	DD	00H
	DD	02H
	DD	FLAT:??_R2CCmdTarget@@8
rdata$r	ENDS
;	COMDAT ??_R0?AVCCmdTarget@@@8
data$rs	SEGMENT
??_R0?AVCCmdTarget@@@8 DD FLAT:??_7type_info@@6B@	; CCmdTarget `RTTI Type Descriptor'
	DD	00H
	DB	'.?AVCCmdTarget@@', 00H
data$rs	ENDS
;	COMDAT ??_R1A@?0A@EA@CCmdTarget@@8
rdata$r	SEGMENT
??_R1A@?0A@EA@CCmdTarget@@8 DD FLAT:??_R0?AVCCmdTarget@@@8 ; CCmdTarget::`RTTI Base Class Descriptor at (0,-1,0,64)'
	DD	01H
	DD	00H
	DD	0ffffffffH
	DD	00H
	DD	040H
	DD	FLAT:??_R3CCmdTarget@@8
rdata$r	ENDS
;	COMDAT ??_R2CWnd@@8
rdata$r	SEGMENT
??_R2CWnd@@8 DD	FLAT:??_R1A@?0A@EA@CWnd@@8		; CWnd::`RTTI Base Class Array'
	DD	FLAT:??_R1A@?0A@EA@CCmdTarget@@8
	DD	FLAT:??_R1A@?0A@EA@CObject@@8
rdata$r	ENDS
;	COMDAT ??_R3CWnd@@8
rdata$r	SEGMENT
??_R3CWnd@@8 DD	00H					; CWnd::`RTTI Class Hierarchy Descriptor'
	DD	00H
	DD	03H
	DD	FLAT:??_R2CWnd@@8
rdata$r	ENDS
;	COMDAT ??_R0?AVCWnd@@@8
data$rs	SEGMENT
??_R0?AVCWnd@@@8 DD FLAT:??_7type_info@@6B@		; CWnd `RTTI Type Descriptor'
	DD	00H
	DB	'.?AVCWnd@@', 00H
data$rs	ENDS
;	COMDAT ??_R1A@?0A@EA@CWnd@@8
rdata$r	SEGMENT
??_R1A@?0A@EA@CWnd@@8 DD FLAT:??_R0?AVCWnd@@@8		; CWnd::`RTTI Base Class Descriptor at (0,-1,0,64)'
	DD	02H
	DD	00H
	DD	0ffffffffH
	DD	00H
	DD	040H
	DD	FLAT:??_R3CWnd@@8
rdata$r	ENDS
;	COMDAT ??_R1A@?0A@EA@CMenu@@8
rdata$r	SEGMENT
??_R1A@?0A@EA@CMenu@@8 DD FLAT:??_R0?AVCMenu@@@8	; CMenu::`RTTI Base Class Descriptor at (0,-1,0,64)'
	DD	01H
	DD	00H
	DD	0ffffffffH
	DD	00H
	DD	040H
	DD	FLAT:??_R3CMenu@@8
rdata$r	ENDS
;	COMDAT ??_R2CMenu@@8
rdata$r	SEGMENT
??_R2CMenu@@8 DD FLAT:??_R1A@?0A@EA@CMenu@@8		; CMenu::`RTTI Base Class Array'
	DD	FLAT:??_R1A@?0A@EA@CObject@@8
rdata$r	ENDS
;	COMDAT ??_R3CMenu@@8
rdata$r	SEGMENT
??_R3CMenu@@8 DD 00H					; CMenu::`RTTI Class Hierarchy Descriptor'
	DD	00H
	DD	02H
	DD	FLAT:??_R2CMenu@@8
rdata$r	ENDS
;	COMDAT ??_R0?AVCMenu@@@8
data$rs	SEGMENT
??_R0?AVCMenu@@@8 DD FLAT:??_7type_info@@6B@		; CMenu `RTTI Type Descriptor'
	DD	00H
	DB	'.?AVCMenu@@', 00H
data$rs	ENDS
;	COMDAT ??_R4CMenu@@6B@
rdata$r	SEGMENT
??_R4CMenu@@6B@ DD 00H					; CMenu::`RTTI Complete Object Locator'
	DD	00H
	DD	00H
	DD	FLAT:??_R0?AVCMenu@@@8
	DD	FLAT:??_R3CMenu@@8
rdata$r	ENDS
;	COMDAT ??_R1A@?0A@EA@CObject@@8
rdata$r	SEGMENT
??_R1A@?0A@EA@CObject@@8 DD FLAT:??_R0?AVCObject@@@8	; CObject::`RTTI Base Class Descriptor at (0,-1,0,64)'
	DD	00H
	DD	00H
	DD	0ffffffffH
	DD	00H
	DD	040H
	DD	FLAT:??_R3CObject@@8
rdata$r	ENDS
;	COMDAT ??_R2CObject@@8
rdata$r	SEGMENT
??_R2CObject@@8 DD FLAT:??_R1A@?0A@EA@CObject@@8	; CObject::`RTTI Base Class Array'
rdata$r	ENDS
;	COMDAT ??_R3CObject@@8
rdata$r	SEGMENT
??_R3CObject@@8 DD 00H					; CObject::`RTTI Class Hierarchy Descriptor'
	DD	00H
	DD	01H
	DD	FLAT:??_R2CObject@@8
rdata$r	ENDS
;	COMDAT ??_R0?AVCObject@@@8
data$rs	SEGMENT
??_R0?AVCObject@@@8 DD FLAT:??_7type_info@@6B@		; CObject `RTTI Type Descriptor'
	DD	00H
	DB	'.?AVCObject@@', 00H
data$rs	ENDS
;	COMDAT ??_7CTreeCtrl@@6B@
CONST	SEGMENT
??_7CTreeCtrl@@6B@ DD FLAT:??_R4CTreeCtrl@@6B@		; CTreeCtrl::`vftable'
	DD	FLAT:?GetRuntimeClass@CTreeCtrl@@UBEPAUCRuntimeClass@@XZ
	DD	FLAT:??_ECTreeCtrl@@UAEPAXI@Z
	DD	FLAT:?Serialize@CObject@@UAEXAAVCArchive@@@Z
	DD	FLAT:?AssertValid@CObject@@UBEXXZ
	DD	FLAT:?Dump@CObject@@UBEXAAVCDumpContext@@@Z
	DD	FLAT:?OnCmdMsg@CCmdTarget@@UAEHIHPAXPAUAFX_CMDHANDLERINFO@@@Z
	DD	FLAT:?OnFinalRelease@CWnd@@UAEXXZ
	DD	FLAT:?IsInvokeAllowed@CCmdTarget@@UAEHJ@Z
	DD	FLAT:?GetDispatchIID@CCmdTarget@@UAEHPAU_GUID@@@Z
	DD	FLAT:?GetTypeInfoCount@CCmdTarget@@UAEIXZ
	DD	FLAT:?GetTypeLibCache@CCmdTarget@@UAEPAVCTypeLibCache@@XZ
	DD	FLAT:?GetTypeLib@CCmdTarget@@UAEJKPAPAUITypeLib@@@Z
	DD	FLAT:?GetMessageMap@CTreeCtrl@@MBEPBUAFX_MSGMAP@@XZ
	DD	FLAT:?GetCommandMap@CCmdTarget@@MBEPBUAFX_OLECMDMAP@@XZ
	DD	FLAT:?GetDispatchMap@CCmdTarget@@MBEPBUAFX_DISPMAP@@XZ
	DD	FLAT:?GetConnectionMap@CCmdTarget@@MBEPBUAFX_CONNECTIONMAP@@XZ
	DD	FLAT:?GetInterfaceMap@CWnd@@MBEPBUAFX_INTERFACEMAP@@XZ
	DD	FLAT:?GetEventSinkMap@CCmdTarget@@MBEPBUAFX_EVENTSINKMAP@@XZ
	DD	FLAT:?OnCreateAggregates@CCmdTarget@@UAEHXZ
	DD	FLAT:?GetInterfaceHook@CCmdTarget@@UAEPAUIUnknown@@PBX@Z
	DD	FLAT:?GetExtraConnectionPoints@CCmdTarget@@MAEHPAVCPtrArray@@@Z
	DD	FLAT:?GetConnectionHook@CCmdTarget@@MAEPAUIConnectionPoint@@ABU_GUID@@@Z
	DD	FLAT:?PreSubclassWindow@CWnd@@UAEXXZ
	DD	FLAT:?Create@CWnd@@UAEHPBD0KABUtagRECT@@PAV1@IPAUCCreateContext@@@Z
	DD	FLAT:?CreateEx@CWnd@@UAEHKPBD0KABUtagRECT@@PAV1@IPAX@Z
	DD	FLAT:?CreateEx@CWnd@@UAEHKPBD0KHHHHPAUHWND__@@PAUHMENU__@@PAX@Z
	DD	FLAT:?DestroyWindow@CWnd@@UAEHXZ
	DD	FLAT:?PreCreateWindow@CWnd@@UAEHAAUtagCREATESTRUCTA@@@Z
	DD	FLAT:?CalcWindowRect@CWnd@@UAEXPAUtagRECT@@I@Z
	DD	FLAT:?GetMenu@CWnd@@UBEPAVCMenu@@XZ
	DD	FLAT:?SetMenu@CWnd@@UAEHPAVCMenu@@@Z
	DD	FLAT:?OnToolHitTest@CWnd@@UBEHVCPoint@@PAUtagTOOLINFOA@@@Z
	DD	FLAT:?GetScrollBarCtrl@CWnd@@UBEPAVCScrollBar@@H@Z
	DD	FLAT:?WinHelpA@CWnd@@UAEXKI@Z
	DD	FLAT:?HtmlHelpA@CWnd@@UAEXKI@Z
	DD	FLAT:?WinHelpInternal@CWnd@@UAEXKI@Z
	DD	FLAT:?ContinueModal@CWnd@@UAEHXZ
	DD	FLAT:?EndModalLoop@CWnd@@UAEXH@Z
	DD	FLAT:?OnDrawIconicThumbnailOrLivePreview@CWnd@@UAEXAAVCDC@@VCRect@@VCSize@@HAAH@Z
	DD	FLAT:?EnsureStdObj@CWnd@@UAEJXZ
	DD	FLAT:?get_accParent@CWnd@@UAEJPAPAUIDispatch@@@Z
	DD	FLAT:?get_accChildCount@CWnd@@UAEJPAJ@Z
	DD	FLAT:?get_accChild@CWnd@@UAEJUtagVARIANT@@PAPAUIDispatch@@@Z
	DD	FLAT:?get_accName@CWnd@@UAEJUtagVARIANT@@PAPA_W@Z
	DD	FLAT:?get_accValue@CWnd@@UAEJUtagVARIANT@@PAPA_W@Z
	DD	FLAT:?get_accDescription@CWnd@@UAEJUtagVARIANT@@PAPA_W@Z
	DD	FLAT:?get_accRole@CWnd@@UAEJUtagVARIANT@@PAU2@@Z
	DD	FLAT:?get_accState@CWnd@@UAEJUtagVARIANT@@PAU2@@Z
	DD	FLAT:?get_accHelp@CWnd@@UAEJUtagVARIANT@@PAPA_W@Z
	DD	FLAT:?get_accHelpTopic@CWnd@@UAEJPAPA_WUtagVARIANT@@PAJ@Z
	DD	FLAT:?get_accKeyboardShortcut@CWnd@@UAEJUtagVARIANT@@PAPA_W@Z
	DD	FLAT:?get_accFocus@CWnd@@UAEJPAUtagVARIANT@@@Z
	DD	FLAT:?get_accSelection@CWnd@@UAEJPAUtagVARIANT@@@Z
	DD	FLAT:?get_accDefaultAction@CWnd@@UAEJUtagVARIANT@@PAPA_W@Z
	DD	FLAT:?accSelect@CWnd@@UAEJJUtagVARIANT@@@Z
	DD	FLAT:?accLocation@CWnd@@UAEJPAJ000UtagVARIANT@@@Z
	DD	FLAT:?accNavigate@CWnd@@UAEJJUtagVARIANT@@PAU2@@Z
	DD	FLAT:?accHitTest@CWnd@@UAEJJJPAUtagVARIANT@@@Z
	DD	FLAT:?accDoDefaultAction@CWnd@@UAEJUtagVARIANT@@@Z
	DD	FLAT:?put_accName@CWnd@@UAEJUtagVARIANT@@PA_W@Z
	DD	FLAT:?put_accValue@CWnd@@UAEJUtagVARIANT@@PA_W@Z
	DD	FLAT:?SetProxy@CWnd@@UAEJPAUIAccessibleProxy@@@Z
	DD	FLAT:?CreateAccessibleProxy@CWnd@@UAEJIJPAJ@Z
	DD	FLAT:?OnCommand@CWnd@@MAEHIJ@Z
	DD	FLAT:?OnNotify@CWnd@@MAEHIJPAJ@Z
	DD	FLAT:?GetSuperWndProcAddr@CWnd@@MAEPAP6GJPAUHWND__@@IIJ@ZXZ
	DD	FLAT:?DoDataExchange@CWnd@@MAEXPAVCDataExchange@@@Z
	DD	FLAT:?BeginModalState@CWnd@@UAEXXZ
	DD	FLAT:?EndModalState@CWnd@@UAEXXZ
	DD	FLAT:?PreTranslateMessage@CWnd@@UAEHPAUtagMSG@@@Z
	DD	FLAT:?OnAmbientProperty@CWnd@@UAEHPAVCOleControlSite@@JPAUtagVARIANT@@@Z
	DD	FLAT:?WindowProc@CWnd@@MAEJIIJ@Z
	DD	FLAT:?OnWndMsg@CWnd@@MAEHIIJPAJ@Z
	DD	FLAT:?DefWindowProcA@CWnd@@MAEJIIJ@Z
	DD	FLAT:?PostNcDestroy@CWnd@@MAEXXZ
	DD	FLAT:?OnChildNotify@CWnd@@MAEHIIJPAJ@Z
	DD	FLAT:?OnTouchInputs@CWnd@@MAEHIPAUtagTOUCHINPUT@@@Z
	DD	FLAT:?OnTouchInput@CWnd@@MAEHVCPoint@@HHPAUtagTOUCHINPUT@@@Z
	DD	FLAT:?GetGestureStatus@CWnd@@MAEKVCPoint@@@Z
	DD	FLAT:?OnGestureZoom@CWnd@@MAEHVCPoint@@J@Z
	DD	FLAT:?OnGesturePan@CWnd@@MAEHVCPoint@@0@Z
	DD	FLAT:?OnGestureRotate@CWnd@@MAEHVCPoint@@N@Z
	DD	FLAT:?OnGestureTwoFingerTap@CWnd@@MAEHVCPoint@@@Z
	DD	FLAT:?OnGesturePressAndTap@CWnd@@MAEHVCPoint@@J@Z
	DD	FLAT:?ResizeDynamicLayout@CWnd@@MAEXXZ
	DD	FLAT:?CheckAutoCenter@CWnd@@UAEHXZ
	DD	FLAT:?IsFrameWnd@CWnd@@UBEHXZ
	DD	FLAT:?CreateControlContainer@CWnd@@MAEHPAPAVCOleControlContainer@@@Z
	DD	FLAT:?CreateControlSite@CWnd@@MAEHPAVCOleControlContainer@@PAPAVCOleControlSite@@IABU_GUID@@@Z
	DD	FLAT:?SetOccDialogInfo@CWnd@@MAEHPAU_AFX_OCC_DIALOG_INFO@@@Z
	DD	FLAT:?GetOccDialogInfo@CWnd@@MAEPAU_AFX_OCC_DIALOG_INFO@@XZ
CONST	ENDS
;	COMDAT ??_7CMenu@@6B@
CONST	SEGMENT
??_7CMenu@@6B@ DD FLAT:??_R4CMenu@@6B@			; CMenu::`vftable'
	DD	FLAT:?GetRuntimeClass@CMenu@@UBEPAUCRuntimeClass@@XZ
	DD	FLAT:??_ECMenu@@UAEPAXI@Z
	DD	FLAT:?Serialize@CObject@@UAEXAAVCArchive@@@Z
	DD	FLAT:?AssertValid@CObject@@UBEXXZ
	DD	FLAT:?Dump@CObject@@UBEXAAVCDumpContext@@@Z
	DD	FLAT:?DrawItem@CMenu@@UAEXPAUtagDRAWITEMSTRUCT@@@Z
	DD	FLAT:?MeasureItem@CMenu@@UAEXPAUtagMEASUREITEMSTRUCT@@@Z
CONST	ENDS
;	COMDAT xdata$x
xdata$x	SEGMENT
__unwindtable$??_GCMyTreeCtrl@@UAEPAXI@Z DD 0ffffffffH
	DD	FLAT:___std_terminate
__ehfuncinfo$??_GCMyTreeCtrl@@UAEPAXI@Z DD 019930522H
	DD	01H
	DD	FLAT:__unwindtable$??_GCMyTreeCtrl@@UAEPAXI@Z
	DD	2 DUP(00H)
	DD	2 DUP(00H)
	DD	00H
	DD	05H
xdata$x	ENDS
;	COMDAT xdata$x
xdata$x	SEGMENT
__unwindtable$?GetTitle@CMyTreeCtrl@@AAE?AV?$CStringT@DV?$StrTraitMFC_DLL@DV?$ChTraitsCRT@D@ATL@@@@@ATL@@ABV23@@Z DD 0ffffffffH
	DD	FLAT:__unwindfunclet$?GetTitle@CMyTreeCtrl@@AAE?AV?$CStringT@DV?$StrTraitMFC_DLL@DV?$ChTraitsCRT@D@ATL@@@@@ATL@@ABV23@@Z$0
	DD	00H
	DD	FLAT:__unwindfunclet$?GetTitle@CMyTreeCtrl@@AAE?AV?$CStringT@DV?$StrTraitMFC_DLL@DV?$ChTraitsCRT@D@ATL@@@@@ATL@@ABV23@@Z$1
	DD	00H
	DD	FLAT:__unwindfunclet$?GetTitle@CMyTreeCtrl@@AAE?AV?$CStringT@DV?$StrTraitMFC_DLL@DV?$ChTraitsCRT@D@ATL@@@@@ATL@@ABV23@@Z$3
	DD	00H
	DD	FLAT:__unwindfunclet$?GetTitle@CMyTreeCtrl@@AAE?AV?$CStringT@DV?$StrTraitMFC_DLL@DV?$ChTraitsCRT@D@ATL@@@@@ATL@@ABV23@@Z$5
__ehfuncinfo$?GetTitle@CMyTreeCtrl@@AAE?AV?$CStringT@DV?$StrTraitMFC_DLL@DV?$ChTraitsCRT@D@ATL@@@@@ATL@@ABV23@@Z DD 019930522H
	DD	04H
	DD	FLAT:__unwindtable$?GetTitle@CMyTreeCtrl@@AAE?AV?$CStringT@DV?$StrTraitMFC_DLL@DV?$ChTraitsCRT@D@ATL@@@@@ATL@@ABV23@@Z
	DD	2 DUP(00H)
	DD	2 DUP(00H)
	DD	00H
	DD	01H
xdata$x	ENDS
;	COMDAT xdata$x
xdata$x	SEGMENT
__unwindtable$?AddVertScale@CMyTreeCtrl@@AAEPAU_TREEITEM@@PAU2@PAD@Z DD 0ffffffffH
	DD	FLAT:__unwindfunclet$?AddVertScale@CMyTreeCtrl@@AAEPAU_TREEITEM@@PAU2@PAD@Z$0
__ehfuncinfo$?AddVertScale@CMyTreeCtrl@@AAEPAU_TREEITEM@@PAU2@PAD@Z DD 019930522H
	DD	01H
	DD	FLAT:__unwindtable$?AddVertScale@CMyTreeCtrl@@AAEPAU_TREEITEM@@PAU2@PAD@Z
	DD	2 DUP(00H)
	DD	2 DUP(00H)
	DD	00H
	DD	01H
xdata$x	ENDS
;	COMDAT xdata$x
xdata$x	SEGMENT
__ehfuncinfo$?OnDropChartData@CMyTreeCtrl@@IAEJIJ@Z DD 019930522H
	DD	05H
	DD	FLAT:__unwindtable$?OnDropChartData@CMyTreeCtrl@@IAEJIJ@Z
	DD	2 DUP(00H)
	DD	2 DUP(00H)
	DD	00H
	DD	01H
__unwindtable$?OnDropChartData@CMyTreeCtrl@@IAEJIJ@Z DD 0ffffffffH
	DD	FLAT:__unwindfunclet$?OnDropChartData@CMyTreeCtrl@@IAEJIJ@Z$0
	DD	0ffffffffH
	DD	FLAT:__unwindfunclet$?OnDropChartData@CMyTreeCtrl@@IAEJIJ@Z$1
	DD	0ffffffffH
	DD	FLAT:__unwindfunclet$?OnDropChartData@CMyTreeCtrl@@IAEJIJ@Z$2
	DD	0ffffffffH
	DD	FLAT:__unwindfunclet$?OnDropChartData@CMyTreeCtrl@@IAEJIJ@Z$3
	DD	0ffffffffH
	DD	FLAT:__unwindfunclet$?OnDropChartData@CMyTreeCtrl@@IAEJIJ@Z$4
xdata$x	ENDS
;	COMDAT xdata$x
xdata$x	SEGMENT
__unwindtable$?OnChartinvert@CMyTreeCtrl@@IAEXXZ DD 0ffffffffH
	DD	FLAT:__unwindfunclet$?OnChartinvert@CMyTreeCtrl@@IAEXXZ$0
	DD	00H
	DD	FLAT:__unwindfunclet$?OnChartinvert@CMyTreeCtrl@@IAEXXZ$1
	DD	0ffffffffH
	DD	FLAT:___std_terminate
__ehfuncinfo$?OnChartinvert@CMyTreeCtrl@@IAEXXZ DD 019930522H
	DD	03H
	DD	FLAT:__unwindtable$?OnChartinvert@CMyTreeCtrl@@IAEXXZ
	DD	2 DUP(00H)
	DD	2 DUP(00H)
	DD	00H
	DD	01H
xdata$x	ENDS
;	COMDAT xdata$x
xdata$x	SEGMENT
__unwindtable$?OnVertScale@CMyTreeCtrl@@IAEXXZ DD 0ffffffffH
	DD	FLAT:__unwindfunclet$?OnVertScale@CMyTreeCtrl@@IAEXXZ$0
	DD	00H
	DD	FLAT:__unwindfunclet$?OnVertScale@CMyTreeCtrl@@IAEXXZ$1
	DD	0ffffffffH
	DD	FLAT:___std_terminate
__ehfuncinfo$?OnVertScale@CMyTreeCtrl@@IAEXXZ DD 019930522H
	DD	03H
	DD	FLAT:__unwindtable$?OnVertScale@CMyTreeCtrl@@IAEXXZ
	DD	2 DUP(00H)
	DD	2 DUP(00H)
	DD	00H
	DD	01H
xdata$x	ENDS
;	COMDAT xdata$x
xdata$x	SEGMENT
__unwindtable$?OnHorizonscale@CMyTreeCtrl@@IAEXXZ DD 0ffffffffH
	DD	FLAT:__unwindfunclet$?OnHorizonscale@CMyTreeCtrl@@IAEXXZ$0
	DD	00H
	DD	FLAT:__unwindfunclet$?OnHorizonscale@CMyTreeCtrl@@IAEXXZ$1
	DD	00H
	DD	FLAT:___std_terminate
__ehfuncinfo$?OnHorizonscale@CMyTreeCtrl@@IAEXXZ DD 019930522H
	DD	03H
	DD	FLAT:__unwindtable$?OnHorizonscale@CMyTreeCtrl@@IAEXXZ
	DD	2 DUP(00H)
	DD	2 DUP(00H)
	DD	00H
	DD	01H
xdata$x	ENDS
;	COMDAT xdata$x
xdata$x	SEGMENT
__ehfuncinfo$?OnTitlescalecolor@CMyTreeCtrl@@IAEXXZ DD 019930522H
	DD	06H
	DD	FLAT:__unwindtable$?OnTitlescalecolor@CMyTreeCtrl@@IAEXXZ
	DD	2 DUP(00H)
	DD	2 DUP(00H)
	DD	00H
	DD	01H
__unwindtable$?OnTitlescalecolor@CMyTreeCtrl@@IAEXXZ DD 0ffffffffH
	DD	FLAT:__unwindfunclet$?OnTitlescalecolor@CMyTreeCtrl@@IAEXXZ$0
	DD	00H
	DD	FLAT:__unwindfunclet$?OnTitlescalecolor@CMyTreeCtrl@@IAEXXZ$1
	DD	01H
	DD	FLAT:__unwindfunclet$?OnTitlescalecolor@CMyTreeCtrl@@IAEXXZ$3
	DD	02H
	DD	FLAT:__unwindfunclet$?OnTitlescalecolor@CMyTreeCtrl@@IAEXXZ$4
	DD	0ffffffffH
	DD	00H
	DD	0ffffffffH
	DD	FLAT:___std_terminate
xdata$x	ENDS
;	COMDAT xdata$x
xdata$x	SEGMENT
__unwindtable$?OnRButtonDown@CMyTreeCtrl@@IAEXIVCPoint@@@Z DD 0ffffffffH
	DD	FLAT:__unwindfunclet$?OnRButtonDown@CMyTreeCtrl@@IAEXIVCPoint@@@Z$0
	DD	00H
	DD	FLAT:__unwindfunclet$?OnRButtonDown@CMyTreeCtrl@@IAEXIVCPoint@@@Z$1
	DD	00H
	DD	FLAT:___std_terminate
	DD	0ffffffffH
	DD	FLAT:___std_terminate
__ehfuncinfo$?OnRButtonDown@CMyTreeCtrl@@IAEXIVCPoint@@@Z DD 019930522H
	DD	04H
	DD	FLAT:__unwindtable$?OnRButtonDown@CMyTreeCtrl@@IAEXIVCPoint@@@Z
	DD	2 DUP(00H)
	DD	2 DUP(00H)
	DD	00H
	DD	01H
xdata$x	ENDS
;	COMDAT xdata$x
xdata$x	SEGMENT
__ehfuncinfo$??1CMyTreeCtrl@@UAE@XZ DD 019930522H
	DD	00H
	DD	00H
	DD	2 DUP(00H)
	DD	2 DUP(00H)
	DD	00H
	DD	05H
xdata$x	ENDS
;	COMDAT xdata$x
xdata$x	SEGMENT
__ehfuncinfo$?InitTreeView@CMyTreeCtrl@@QAEXXZ DD 019930522H
	DD	0bH
	DD	FLAT:__unwindtable$?InitTreeView@CMyTreeCtrl@@QAEXXZ
	DD	2 DUP(00H)
	DD	2 DUP(00H)
	DD	00H
	DD	01H
__unwindtable$?InitTreeView@CMyTreeCtrl@@QAEXXZ DD 0ffffffffH
	DD	FLAT:__unwindfunclet$?InitTreeView@CMyTreeCtrl@@QAEXXZ$0
	DD	0ffffffffH
	DD	FLAT:___std_terminate
	DD	0ffffffffH
	DD	FLAT:__unwindfunclet$?InitTreeView@CMyTreeCtrl@@QAEXXZ$1
	DD	0ffffffffH
	DD	FLAT:__unwindfunclet$?InitTreeView@CMyTreeCtrl@@QAEXXZ$5
	DD	0ffffffffH
	DD	FLAT:__unwindfunclet$?InitTreeView@CMyTreeCtrl@@QAEXXZ$6
	DD	0ffffffffH
	DD	FLAT:__unwindfunclet$?InitTreeView@CMyTreeCtrl@@QAEXXZ$2
	DD	05H
	DD	FLAT:__unwindfunclet$?InitTreeView@CMyTreeCtrl@@QAEXXZ$7
	DD	06H
	DD	FLAT:__unwindfunclet$?InitTreeView@CMyTreeCtrl@@QAEXXZ$8
	DD	06H
	DD	FLAT:__unwindfunclet$?InitTreeView@CMyTreeCtrl@@QAEXXZ$10
	DD	06H
	DD	FLAT:__unwindfunclet$?InitTreeView@CMyTreeCtrl@@QAEXXZ$12
	DD	05H
	DD	FLAT:__unwindfunclet$?InitTreeView@CMyTreeCtrl@@QAEXXZ$3
xdata$x	ENDS
;	COMDAT xdata$x
xdata$x	SEGMENT
__unwindtable$?GetBlockandGraphAllData@CMyTreeCtrl@@QAE?AV?$CStringT@DV?$StrTraitMFC_DLL@DV?$ChTraitsCRT@D@ATL@@@@@ATL@@XZ DD 0ffffffffH
	DD	FLAT:__unwindfunclet$?GetBlockandGraphAllData@CMyTreeCtrl@@QAE?AV?$CStringT@DV?$StrTraitMFC_DLL@DV?$ChTraitsCRT@D@ATL@@@@@ATL@@XZ$0
__ehfuncinfo$?GetBlockandGraphAllData@CMyTreeCtrl@@QAE?AV?$CStringT@DV?$StrTraitMFC_DLL@DV?$ChTraitsCRT@D@ATL@@@@@ATL@@XZ DD 019930522H
	DD	01H
	DD	FLAT:__unwindtable$?GetBlockandGraphAllData@CMyTreeCtrl@@QAE?AV?$CStringT@DV?$StrTraitMFC_DLL@DV?$ChTraitsCRT@D@ATL@@@@@ATL@@XZ
	DD	2 DUP(00H)
	DD	2 DUP(00H)
	DD	00H
	DD	01H
xdata$x	ENDS
;	COMDAT xdata$x
xdata$x	SEGMENT
__unwindtable$?AddItem@CMyTreeCtrl@@QAEXPAVCChartLink@@ABV?$CStringT@DV?$StrTraitMFC_DLL@DV?$ChTraitsCRT@D@ATL@@@@@ATL@@111_N222H221@Z DD 0ffffffffH
	DD	FLAT:__unwindfunclet$?AddItem@CMyTreeCtrl@@QAEXPAVCChartLink@@ABV?$CStringT@DV?$StrTraitMFC_DLL@DV?$ChTraitsCRT@D@ATL@@@@@ATL@@111_N222H221@Z$0
__ehfuncinfo$?AddItem@CMyTreeCtrl@@QAEXPAVCChartLink@@ABV?$CStringT@DV?$StrTraitMFC_DLL@DV?$ChTraitsCRT@D@ATL@@@@@ATL@@111_N222H221@Z DD 019930522H
	DD	01H
	DD	FLAT:__unwindtable$?AddItem@CMyTreeCtrl@@QAEXPAVCChartLink@@ABV?$CStringT@DV?$StrTraitMFC_DLL@DV?$ChTraitsCRT@D@ATL@@@@@ATL@@111_N222H221@Z
	DD	2 DUP(00H)
	DD	2 DUP(00H)
	DD	00H
	DD	01H
xdata$x	ENDS
;	COMDAT xdata$x
xdata$x	SEGMENT
__unwindtable$?AddVerticalScaleItem@CMyTreeCtrl@@QAEPAVCChartLink@@ABV?$CStringT@DV?$StrTraitMFC_DLL@DV?$ChTraitsCRT@D@ATL@@@@@ATL@@HHHHHNNHHNNHH@Z DD 0ffffffffH
	DD	FLAT:__unwindfunclet$?AddVerticalScaleItem@CMyTreeCtrl@@QAEPAVCChartLink@@ABV?$CStringT@DV?$StrTraitMFC_DLL@DV?$ChTraitsCRT@D@ATL@@@@@ATL@@HHHHHNNHHNNHH@Z$0
	DD	0ffffffffH
	DD	FLAT:__unwindfunclet$?AddVerticalScaleItem@CMyTreeCtrl@@QAEPAVCChartLink@@ABV?$CStringT@DV?$StrTraitMFC_DLL@DV?$ChTraitsCRT@D@ATL@@@@@ATL@@HHHHHNNHHNNHH@Z$1
	DD	0ffffffffH
	DD	FLAT:__unwindfunclet$?AddVerticalScaleItem@CMyTreeCtrl@@QAEPAVCChartLink@@ABV?$CStringT@DV?$StrTraitMFC_DLL@DV?$ChTraitsCRT@D@ATL@@@@@ATL@@HHHHHNNHHNNHH@Z$3
__ehfuncinfo$?AddVerticalScaleItem@CMyTreeCtrl@@QAEPAVCChartLink@@ABV?$CStringT@DV?$StrTraitMFC_DLL@DV?$ChTraitsCRT@D@ATL@@@@@ATL@@HHHHHNNHHNNHH@Z DD 019930522H
	DD	03H
	DD	FLAT:__unwindtable$?AddVerticalScaleItem@CMyTreeCtrl@@QAEPAVCChartLink@@ABV?$CStringT@DV?$StrTraitMFC_DLL@DV?$ChTraitsCRT@D@ATL@@@@@ATL@@HHHHHNNHHNNHH@Z
	DD	2 DUP(00H)
	DD	2 DUP(00H)
	DD	00H
	DD	01H
xdata$x	ENDS
;	COMDAT xdata$x
xdata$x	SEGMENT
__unwindtable$?AddBlock@CMyTreeCtrl@@QAEPAU_TREEITEM@@PAU2@PAD@Z DD 0ffffffffH
	DD	FLAT:__unwindfunclet$?AddBlock@CMyTreeCtrl@@QAEPAU_TREEITEM@@PAU2@PAD@Z$0
__ehfuncinfo$?AddBlock@CMyTreeCtrl@@QAEPAU_TREEITEM@@PAU2@PAD@Z DD 019930522H
	DD	01H
	DD	FLAT:__unwindtable$?AddBlock@CMyTreeCtrl@@QAEPAU_TREEITEM@@PAU2@PAD@Z
	DD	2 DUP(00H)
	DD	2 DUP(00H)
	DD	00H
	DD	01H
xdata$x	ENDS
;	COMDAT xdata$x
xdata$x	SEGMENT
__ehfuncinfo$?InitBlock@CMyTreeCtrl@@QAEXABV?$CStringT@DV?$StrTraitMFC_DLL@DV?$ChTraitsCRT@D@ATL@@@@@ATL@@HH@Z DD 019930522H
	DD	08H
	DD	FLAT:__unwindtable$?InitBlock@CMyTreeCtrl@@QAEXABV?$CStringT@DV?$StrTraitMFC_DLL@DV?$ChTraitsCRT@D@ATL@@@@@ATL@@HH@Z
	DD	2 DUP(00H)
	DD	2 DUP(00H)
	DD	00H
	DD	01H
__unwindtable$?InitBlock@CMyTreeCtrl@@QAEXABV?$CStringT@DV?$StrTraitMFC_DLL@DV?$ChTraitsCRT@D@ATL@@@@@ATL@@HH@Z DD 0ffffffffH
	DD	FLAT:__unwindfunclet$?InitBlock@CMyTreeCtrl@@QAEXABV?$CStringT@DV?$StrTraitMFC_DLL@DV?$ChTraitsCRT@D@ATL@@@@@ATL@@HH@Z$0
	DD	00H
	DD	FLAT:__unwindfunclet$?InitBlock@CMyTreeCtrl@@QAEXABV?$CStringT@DV?$StrTraitMFC_DLL@DV?$ChTraitsCRT@D@ATL@@@@@ATL@@HH@Z$1
	DD	01H
	DD	FLAT:__unwindfunclet$?InitBlock@CMyTreeCtrl@@QAEXABV?$CStringT@DV?$StrTraitMFC_DLL@DV?$ChTraitsCRT@D@ATL@@@@@ATL@@HH@Z$2
	DD	02H
	DD	FLAT:__unwindfunclet$?InitBlock@CMyTreeCtrl@@QAEXABV?$CStringT@DV?$StrTraitMFC_DLL@DV?$ChTraitsCRT@D@ATL@@@@@ATL@@HH@Z$3
	DD	01H
	DD	FLAT:__unwindfunclet$?InitBlock@CMyTreeCtrl@@QAEXABV?$CStringT@DV?$StrTraitMFC_DLL@DV?$ChTraitsCRT@D@ATL@@@@@ATL@@HH@Z$3
	DD	00H
	DD	FLAT:__unwindfunclet$?InitBlock@CMyTreeCtrl@@QAEXABV?$CStringT@DV?$StrTraitMFC_DLL@DV?$ChTraitsCRT@D@ATL@@@@@ATL@@HH@Z$3
	DD	05H
	DD	FLAT:__unwindfunclet$?InitBlock@CMyTreeCtrl@@QAEXABV?$CStringT@DV?$StrTraitMFC_DLL@DV?$ChTraitsCRT@D@ATL@@@@@ATL@@HH@Z$4
	DD	06H
	DD	FLAT:__unwindfunclet$?InitBlock@CMyTreeCtrl@@QAEXABV?$CStringT@DV?$StrTraitMFC_DLL@DV?$ChTraitsCRT@D@ATL@@@@@ATL@@HH@Z$5
xdata$x	ENDS
;	COMDAT xdata$x
xdata$x	SEGMENT
__ehfuncinfo$??0CMyTreeCtrl@@QAE@XZ DD 019930522H
	DD	06H
	DD	FLAT:__unwindtable$??0CMyTreeCtrl@@QAE@XZ
	DD	2 DUP(00H)
	DD	2 DUP(00H)
	DD	00H
	DD	01H
__unwindtable$??0CMyTreeCtrl@@QAE@XZ DD 0ffffffffH
	DD	FLAT:__unwindfunclet$??0CMyTreeCtrl@@QAE@XZ$0
	DD	00H
	DD	FLAT:__unwindfunclet$??0CMyTreeCtrl@@QAE@XZ$1
	DD	01H
	DD	FLAT:__unwindfunclet$??0CMyTreeCtrl@@QAE@XZ$2
	DD	02H
	DD	FLAT:__unwindfunclet$??0CMyTreeCtrl@@QAE@XZ$3
	DD	03H
	DD	FLAT:__unwindfunclet$??0CMyTreeCtrl@@QAE@XZ$4
	DD	04H
	DD	FLAT:__unwindfunclet$??0CMyTreeCtrl@@QAE@XZ$5
xdata$x	ENDS
;	COMDAT xdata$x
xdata$x	SEGMENT
__ehfuncinfo$??1CMultiLanguageResourceSetter@@QAE@XZ DD 019930522H
	DD	00H
	DD	00H
	DD	2 DUP(00H)
	DD	2 DUP(00H)
	DD	00H
	DD	05H
xdata$x	ENDS
;	COMDAT xdata$x
xdata$x	SEGMENT
__unwindtable$??_GCMenu@@UAEPAXI@Z DD 0ffffffffH
	DD	FLAT:___std_terminate
__ehfuncinfo$??_GCMenu@@UAEPAXI@Z DD 019930522H
	DD	01H
	DD	FLAT:__unwindtable$??_GCMenu@@UAEPAXI@Z
	DD	2 DUP(00H)
	DD	2 DUP(00H)
	DD	00H
	DD	05H
xdata$x	ENDS
;	COMDAT xdata$x
xdata$x	SEGMENT
__ehfuncinfo$??1CMenu@@UAE@XZ DD 019930522H
	DD	00H
	DD	00H
	DD	2 DUP(00H)
	DD	2 DUP(00H)
	DD	00H
	DD	05H
xdata$x	ENDS
; Function compile flags: /Ogtp
;	COMDAT ??1CDlgChartInvertSetting@@UAE@XZ
_TEXT	SEGMENT
??1CDlgChartInvertSetting@@UAE@XZ PROC			; CDlgChartInvertSetting::~CDlgChartInvertSetting, COMDAT
; _this$ = ecx
  00000	e9 00 00 00 00	 jmp	 ??1CDialog@@UAE@XZ	; CDialog::~CDialog
??1CDlgChartInvertSetting@@UAE@XZ ENDP			; CDlgChartInvertSetting::~CDlgChartInvertSetting
_TEXT	ENDS
; Function compile flags: /Ogtp
;	COMDAT ??1CDlgBlockVerticalScale@@UAE@XZ
_TEXT	SEGMENT
??1CDlgBlockVerticalScale@@UAE@XZ PROC			; CDlgBlockVerticalScale::~CDlgBlockVerticalScale, COMDAT
; _this$ = ecx
  00000	56		 push	 esi
  00001	8b f1		 mov	 esi, ecx
  00003	8d 8e 94 01 00
	00		 lea	 ecx, DWORD PTR [esi+404]
  00009	ff 15 00 00 00
	00		 call	 DWORD PTR __imp_??1?$CStringT@DV?$StrTraitMFC_DLL@DV?$ChTraitsCRT@D@ATL@@@@@ATL@@QAE@XZ
  0000f	8d 8e 44 01 00
	00		 lea	 ecx, DWORD PTR [esi+324]
  00015	ff 15 00 00 00
	00		 call	 DWORD PTR __imp_??1?$CStringT@DV?$StrTraitMFC_DLL@DV?$ChTraitsCRT@D@ATL@@@@@ATL@@QAE@XZ
  0001b	8d 8e a8 00 00
	00		 lea	 ecx, DWORD PTR [esi+168]
  00021	e8 00 00 00 00	 call	 ??1CCheckComboBox@@UAE@XZ ; CCheckComboBox::~CCheckComboBox
  00026	8b ce		 mov	 ecx, esi
  00028	5e		 pop	 esi
  00029	e9 00 00 00 00	 jmp	 ??1CDialog@@UAE@XZ	; CDialog::~CDialog
??1CDlgBlockVerticalScale@@UAE@XZ ENDP			; CDlgBlockVerticalScale::~CDlgBlockVerticalScale
_TEXT	ENDS
; Function compile flags: /Ogtp
; File D:\git\src\IBK\IBK_DRFN\ProjSrc\SrcChartEx\ChartAddIn\ChartDesignPropertyAddIn\ChartDesignPropertyAddIn\MyTreeCtrl.cpp
; File C:\Program Files (x86)\Microsoft Visual Studio\2019\Community\VC\Tools\MSVC\14.29.30133\atlmfc\include\afx.inl
;	COMDAT ??_GCMyTreeCtrl@@UAEPAXI@Z
_TEXT	SEGMENT
__$EHRec$ = -12						; size = 12
___flags$ = 8						; size = 4
??_GCMyTreeCtrl@@UAEPAXI@Z PROC				; CMyTreeCtrl::`scalar deleting destructor', COMDAT
; _this$ = ecx
  00000	55		 push	 ebp
  00001	8b ec		 mov	 ebp, esp
  00003	6a ff		 push	 -1
  00005	68 00 00 00 00	 push	 __ehhandler$??_GCMyTreeCtrl@@UAEPAXI@Z
  0000a	64 a1 00 00 00
	00		 mov	 eax, DWORD PTR fs:0
  00010	50		 push	 eax
  00011	56		 push	 esi
  00012	57		 push	 edi
  00013	a1 00 00 00 00	 mov	 eax, DWORD PTR ___security_cookie
  00018	33 c5		 xor	 eax, ebp
  0001a	50		 push	 eax
  0001b	8d 45 f4	 lea	 eax, DWORD PTR __$EHRec$[ebp]
  0001e	64 a3 00 00 00
	00		 mov	 DWORD PTR fs:0, eax
  00024	8b f9		 mov	 edi, ecx
; File D:\git\src\IBK\IBK_DRFN\ProjSrc\SrcChartEx\ChartAddIn\ChartDesignPropertyAddIn\ChartDesignPropertyAddIn\MyTreeCtrl.cpp

; 47   : 	if( m_pIGraphInfoManager) m_pIGraphInfoManager->Release();

  00026	8b 8f 00 02 00
	00		 mov	 ecx, DWORD PTR [edi+512]
  0002c	c7 45 fc 00 00
	00 00		 mov	 DWORD PTR __$EHRec$[ebp+8], 0
  00033	c7 07 00 00 00
	00		 mov	 DWORD PTR [edi], OFFSET ??_7CMyTreeCtrl@@6B@
  00039	85 c9		 test	 ecx, ecx
  0003b	74 06		 je	 SHORT $LN8@scalar
  0003d	8b 01		 mov	 eax, DWORD PTR [ecx]
  0003f	51		 push	 ecx
  00040	ff 50 08	 call	 DWORD PTR [eax+8]
$LN8@scalar:

; 48   : }

  00043	8d 8f f4 01 00
	00		 lea	 ecx, DWORD PTR [edi+500]
  00049	e8 00 00 00 00	 call	 ??1CImageList@@UAE@XZ	; CImageList::~CImageList
  0004e	8d 8f ec 01 00
	00		 lea	 ecx, DWORD PTR [edi+492]
  00054	ff 15 00 00 00
	00		 call	 DWORD PTR __imp_??1?$CStringT@DV?$StrTraitMFC_DLL@DV?$ChTraitsCRT@D@ATL@@@@@ATL@@QAE@XZ
  0005a	8d 8f b0 01 00
	00		 lea	 ecx, DWORD PTR [edi+432]
  00060	e8 00 00 00 00	 call	 ??1CLineColor@@UAE@XZ	; CLineColor::~CLineColor
  00065	8d 8f 00 01 00
	00		 lea	 ecx, DWORD PTR [edi+256]
  0006b	e8 00 00 00 00	 call	 ??1CChartLink@@UAE@XZ	; CChartLink::~CChartLink
  00070	8d 8f c8 00 00
	00		 lea	 ecx, DWORD PTR [edi+200]
  00076	e8 00 00 00 00	 call	 ??1COleDataSource@@UAE@XZ ; COleDataSource::~COleDataSource
  0007b	8d 8f bc 00 00
	00		 lea	 ecx, DWORD PTR [edi+188]
  00081	ff 15 00 00 00
	00		 call	 DWORD PTR __imp_??1?$CStringT@DV?$StrTraitMFC_DLL@DV?$ChTraitsCRT@D@ATL@@@@@ATL@@QAE@XZ
  00087	8d 8f 84 00 00
	00		 lea	 ecx, DWORD PTR [edi+132]
  0008d	e8 00 00 00 00	 call	 ??1COleDropTarget@@UAE@XZ ; COleDropTarget::~COleDropTarget
  00092	8b cf		 mov	 ecx, edi
  00094	e8 00 00 00 00	 call	 ??1CTreeCtrl@@UAE@XZ	; CTreeCtrl::~CTreeCtrl
  00099	8b 45 08	 mov	 eax, DWORD PTR ___flags$[ebp]
  0009c	a8 01		 test	 al, 1
  0009e	74 1d		 je	 SHORT $LN16@scalar
  000a0	a8 04		 test	 al, 4
  000a2	75 0b		 jne	 SHORT $LN3@scalar
; File C:\Program Files (x86)\Microsoft Visual Studio\2019\Community\VC\Tools\MSVC\14.29.30133\atlmfc\include\afx.inl

; 112  : 	{ ::operator delete(p); }

  000a4	57		 push	 edi
  000a5	e8 00 00 00 00	 call	 ??3@YAXPAX@Z		; operator delete
  000aa	83 c4 04	 add	 esp, 4
  000ad	eb 0e		 jmp	 SHORT $LN16@scalar
$LN3@scalar:
  000af	68 08 02 00 00	 push	 520			; 00000208H
  000b4	57		 push	 edi
  000b5	e8 00 00 00 00	 call	 ?__global_delete@@YAXPAXI@Z ; __global_delete
  000ba	83 c4 08	 add	 esp, 8
$LN16@scalar:
  000bd	8b c7		 mov	 eax, edi
  000bf	8b 4d f4	 mov	 ecx, DWORD PTR __$EHRec$[ebp]
  000c2	64 89 0d 00 00
	00 00		 mov	 DWORD PTR fs:0, ecx
  000c9	59		 pop	 ecx
  000ca	5f		 pop	 edi
  000cb	5e		 pop	 esi
  000cc	8b e5		 mov	 esp, ebp
  000ce	5d		 pop	 ebp
  000cf	c2 04 00	 ret	 4
  000d2	cc		 int	 3
  000d3	cc		 int	 3
  000d4	cc		 int	 3
  000d5	cc		 int	 3
  000d6	cc		 int	 3
_TEXT	ENDS
;	COMDAT text$x
text$x	SEGMENT
__ehhandler$??_GCMyTreeCtrl@@UAEPAXI@Z:
  00000	90		 npad	 1
  00001	90		 npad	 1
  00002	8b 54 24 08	 mov	 edx, DWORD PTR [esp+8]
  00006	8d 42 0c	 lea	 eax, DWORD PTR [edx+12]
  00009	8b 4a f4	 mov	 ecx, DWORD PTR [edx-12]
  0000c	33 c8		 xor	 ecx, eax
  0000e	e8 00 00 00 00	 call	 @__security_check_cookie@4
  00013	b8 00 00 00 00	 mov	 eax, OFFSET __ehfuncinfo$??_GCMyTreeCtrl@@UAEPAXI@Z
  00018	e9 00 00 00 00	 jmp	 ___CxxFrameHandler3
text$x	ENDS
??_GCMyTreeCtrl@@UAEPAXI@Z ENDP				; CMyTreeCtrl::`scalar deleting destructor'
; Function compile flags: /Ogtp
; File D:\git\src\IBK\IBK_DRFN\ProjSrc\SrcChartEx\ChartAddIn\ChartDesignPropertyAddIn\ChartDesignPropertyAddIn\MyTreeCtrl.cpp
;	COMDAT ?SetOcxHwnd@CMyTreeCtrl@@QAEXPAUHWND__@@@Z
_TEXT	SEGMENT
_p_hOcxWnd$ = 8						; size = 4
?SetOcxHwnd@CMyTreeCtrl@@QAEXPAUHWND__@@@Z PROC		; CMyTreeCtrl::SetOcxHwnd, COMDAT
; _this$ = ecx

; 921  : {

  00000	55		 push	 ebp
  00001	8b ec		 mov	 ebp, esp

; 922  : 	m_hOcxWnd = p_hOcxWnd;

  00003	8b 45 08	 mov	 eax, DWORD PTR _p_hOcxWnd$[ebp]
  00006	89 81 04 02 00
	00		 mov	 DWORD PTR [ecx+516], eax

; 923  : 	m_clChartRoot.SetOcxHwnd( m_hOcxWnd);

  0000c	89 45 08	 mov	 DWORD PTR _p_hOcxWnd$[ebp], eax
  0000f	81 c1 00 01 00
	00		 add	 ecx, 256		; 00000100H

; 924  : }

  00015	5d		 pop	 ebp

; 923  : 	m_clChartRoot.SetOcxHwnd( m_hOcxWnd);

  00016	e9 00 00 00 00	 jmp	 ?SetOcxHwnd@CChartLink@@QAEXPAUHWND__@@@Z ; CChartLink::SetOcxHwnd
?SetOcxHwnd@CMyTreeCtrl@@QAEXPAUHWND__@@@Z ENDP		; CMyTreeCtrl::SetOcxHwnd
_TEXT	ENDS
; Function compile flags: /Ogtp
; File D:\git\src\IBK\IBK_DRFN\ProjSrc\SrcChartEx\ChartAddIn\ChartDesignPropertyAddIn\ChartDesignPropertyAddIn\MyTreeCtrl.cpp
;	COMDAT ?GetFirstVScaleGridType@CMyTreeCtrl@@IAE?AW4SCALEGRIDTYPE@CScaleBaseData@@PAVCChartLink@@@Z
_TEXT	SEGMENT
_p_pLink$ = 8						; size = 4
?GetFirstVScaleGridType@CMyTreeCtrl@@IAE?AW4SCALEGRIDTYPE@CScaleBaseData@@PAVCChartLink@@@Z PROC ; CMyTreeCtrl::GetFirstVScaleGridType, COMDAT
; _this$ = ecx

; 911  : {

  00000	55		 push	 ebp
  00001	8b ec		 mov	 ebp, esp

; 912  : 	if( !p_pLink) return CScaleBaseData::LONGDOTTEDLINE;

  00003	8b 45 08	 mov	 eax, DWORD PTR _p_pLink$[ebp]
  00006	85 c0		 test	 eax, eax
  00008	74 13		 je	 SHORT $LN8@GetFirstVS
  0000a	66 0f 1f 44 00
	00		 npad	 6
$LL5@GetFirstVS:

; 913  : 
; 914  : 	if( p_pLink->m_iType == VERT_SCALE) return ( CScaleBaseData::SCALEGRIDTYPE)p_pLink->m_nScaleCompartType;

  00010	83 78 10 02	 cmp	 DWORD PTR [eax+16], 2
  00014	74 10		 je	 SHORT $LN9@GetFirstVS

; 915  : 	
; 916  : 	return GetFirstVScaleGridType( p_pLink->m_Child);

  00016	8b 40 60	 mov	 eax, DWORD PTR [eax+96]
  00019	85 c0		 test	 eax, eax
  0001b	75 f3		 jne	 SHORT $LL5@GetFirstVS
$LN8@GetFirstVS:

; 912  : 	if( !p_pLink) return CScaleBaseData::LONGDOTTEDLINE;

  0001d	b8 01 00 00 00	 mov	 eax, 1

; 917  : }

  00022	5d		 pop	 ebp
  00023	c2 04 00	 ret	 4
$LN9@GetFirstVS:

; 913  : 
; 914  : 	if( p_pLink->m_iType == VERT_SCALE) return ( CScaleBaseData::SCALEGRIDTYPE)p_pLink->m_nScaleCompartType;

  00026	8b 40 50	 mov	 eax, DWORD PTR [eax+80]

; 917  : }

  00029	5d		 pop	 ebp
  0002a	c2 04 00	 ret	 4
?GetFirstVScaleGridType@CMyTreeCtrl@@IAE?AW4SCALEGRIDTYPE@CScaleBaseData@@PAVCChartLink@@@Z ENDP ; CMyTreeCtrl::GetFirstVScaleGridType
_TEXT	ENDS
; Function compile flags: /Ogtp
; File D:\git\src\IBK\IBK_DRFN\ProjSrc\SrcChartEx\ChartAddIn\ChartDesignPropertyAddIn\ChartDesignPropertyAddIn\MyTreeCtrl.cpp
;	COMDAT ?SetIGraphInfoManager@CMyTreeCtrl@@QAEXPAUIGraphInfoManager134661@@@Z
_TEXT	SEGMENT
_p_pIGraphInfoManager$ = 8				; size = 4
?SetIGraphInfoManager@CMyTreeCtrl@@QAEXPAUIGraphInfoManager134661@@@Z PROC ; CMyTreeCtrl::SetIGraphInfoManager, COMDAT
; _this$ = ecx

; 881  : {

  00000	55		 push	 ebp
  00001	8b ec		 mov	 ebp, esp
  00003	56		 push	 esi
  00004	8b f1		 mov	 esi, ecx

; 882  : 	if( m_pIGraphInfoManager) m_pIGraphInfoManager->Release();

  00006	8b 96 00 02 00
	00		 mov	 edx, DWORD PTR [esi+512]
  0000c	85 d2		 test	 edx, edx
  0000e	74 06		 je	 SHORT $LN2@SetIGraphI
  00010	8b 02		 mov	 eax, DWORD PTR [edx]
  00012	52		 push	 edx
  00013	ff 50 08	 call	 DWORD PTR [eax+8]
$LN2@SetIGraphI:

; 883  : 	m_pIGraphInfoManager = p_pIGraphInfoManager;

  00016	8b 4d 08	 mov	 ecx, DWORD PTR _p_pIGraphInfoManager$[ebp]
  00019	89 8e 00 02 00
	00		 mov	 DWORD PTR [esi+512], ecx
  0001f	5e		 pop	 esi

; 884  : 	if( m_pIGraphInfoManager) m_pIGraphInfoManager->AddRef();

  00020	85 c9		 test	 ecx, ecx
  00022	74 09		 je	 SHORT $LN3@SetIGraphI
  00024	8b 01		 mov	 eax, DWORD PTR [ecx]
  00026	89 4d 08	 mov	 DWORD PTR _p_pIGraphInfoManager$[ebp], ecx

; 885  : }

  00029	5d		 pop	 ebp

; 884  : 	if( m_pIGraphInfoManager) m_pIGraphInfoManager->AddRef();

  0002a	ff 60 04	 jmp	 DWORD PTR [eax+4]
$LN3@SetIGraphI:

; 885  : }

  0002d	5d		 pop	 ebp
  0002e	c2 04 00	 ret	 4
?SetIGraphInfoManager@CMyTreeCtrl@@QAEXPAUIGraphInfoManager134661@@@Z ENDP ; CMyTreeCtrl::SetIGraphInfoManager
_TEXT	ENDS
; Function compile flags: /Ogtp
; File D:\git\src\IBK\IBK_DRFN\ProjSrc\SrcChartEx\ChartAddIn\ChartDesignPropertyAddIn\ChartDesignPropertyAddIn\MyTreeCtrl.cpp
;	COMDAT ?SetDlgBlockHorizontalScale@CMyTreeCtrl@@AAEXPAVCChartLink@@AAVCDlgBlockHorizontalScale@@@Z
_TEXT	SEGMENT
_pItem$ = 8						; size = 4
_dlgBlockHorizonScale$ = 12				; size = 4
?SetDlgBlockHorizontalScale@CMyTreeCtrl@@AAEXPAVCChartLink@@AAVCDlgBlockHorizontalScale@@@Z PROC ; CMyTreeCtrl::SetDlgBlockHorizontalScale, COMDAT
; _this$ = ecx

; 587  : {

  00000	55		 push	 ebp
  00001	8b ec		 mov	 ebp, esp

; 588  : 	if((pItem->m_strScaleStyle).Compare( _LTEXT0( C0_VOLUME)) == 0) //   String  .

  00003	a1 54 00 00 00	 mov	 eax, DWORD PTR ?g_iMetaTable@@3VIMetaTable@@A+84
  00008	53		 push	 ebx
  00009	56		 push	 esi
  0000a	57		 push	 edi
  0000b	8b 7d 08	 mov	 edi, DWORD PTR _pItem$[ebp]
  0000e	8b d9		 mov	 ebx, ecx
  00010	6a 00		 push	 0
  00012	ff 70 1c	 push	 DWORD PTR [eax+28]
  00015	b9 00 00 00 00	 mov	 ecx, OFFSET ?g_iMetaTable@@3VIMetaTable@@A ; g_iMetaTable
  0001a	6a 00		 push	 0
  0001c	ff b3 04 02 00
	00		 push	 DWORD PTR [ebx+516]
  00022	8d 77 58	 lea	 esi, DWORD PTR [edi+88]
  00025	e8 00 00 00 00	 call	 ?GetLanguageText@IMetaTable@@QAEPBDPAUHWND__@@W4E_CODEPAGE@1@PBDH@Z ; IMetaTable::GetLanguageText
  0002a	50		 push	 eax
  0002b	8b ce		 mov	 ecx, esi
  0002d	ff 15 00 00 00
	00		 call	 DWORD PTR __imp_?Compare@?$CStringT@DV?$StrTraitMFC_DLL@DV?$ChTraitsCRT@D@ATL@@@@@ATL@@QBEHPBD@Z
  00033	85 c0		 test	 eax, eax
  00035	75 24		 jne	 SHORT $LN2@SetDlgBloc

; 589  : 		pItem->m_strScaleStyle = _LTEXT6( C0_INVERSETIMELINE_VOLUME);

  00037	50		 push	 eax
  00038	a1 54 00 00 00	 mov	 eax, DWORD PTR ?g_iMetaTable@@3VIMetaTable@@A+84
  0003d	b9 00 00 00 00	 mov	 ecx, OFFSET ?g_iMetaTable@@3VIMetaTable@@A ; g_iMetaTable
  00042	ff 70 60	 push	 DWORD PTR [eax+96]
  00045	6a 06		 push	 6
  00047	ff b3 04 02 00
	00		 push	 DWORD PTR [ebx+516]
  0004d	e8 00 00 00 00	 call	 ?GetLanguageText@IMetaTable@@QAEPBDPAUHWND__@@W4E_CODEPAGE@1@PBDH@Z ; IMetaTable::GetLanguageText
  00052	50		 push	 eax
  00053	8b ce		 mov	 ecx, esi
  00055	ff 15 00 00 00
	00		 call	 DWORD PTR __imp_??4?$CStringT@DV?$StrTraitMFC_DLL@DV?$ChTraitsCRT@D@ATL@@@@@ATL@@QAEAAV01@PBD@Z
$LN2@SetDlgBloc:

; 590  : 
; 591  : 	dlgBlockHorizonScale.m_strScaleData = pItem->m_strScaleStyle;

  0005b	56		 push	 esi
  0005c	8b 75 0c	 mov	 esi, DWORD PTR _dlgBlockHorizonScale$[ebp]
  0005f	8d 8e b8 02 00
	00		 lea	 ecx, DWORD PTR [esi+696]
  00065	ff 15 00 00 00
	00		 call	 DWORD PTR __imp_??4?$CStringT@DV?$StrTraitMFC_DLL@DV?$ChTraitsCRT@D@ATL@@@@@ATL@@QAEAAV01@ABV01@@Z

; 592  : 	dlgBlockHorizonScale.m_nHorizonScalePos = pItem->m_nHorizonpos;

  0006b	8b 47 40	 mov	 eax, DWORD PTR [edi+64]

; 593  : 	dlgBlockHorizonScale.m_strDateCompartType = pItem->m_strDateScaleCompart;

  0006e	8d 8e ac 02 00
	00		 lea	 ecx, DWORD PTR [esi+684]
  00074	89 86 a8 02 00
	00		 mov	 DWORD PTR [esi+680], eax
  0007a	8d 47 38	 lea	 eax, DWORD PTR [edi+56]
  0007d	50		 push	 eax
  0007e	ff 15 00 00 00
	00		 call	 DWORD PTR __imp_??4?$CStringT@DV?$StrTraitMFC_DLL@DV?$ChTraitsCRT@D@ATL@@@@@ATL@@QAEAAV01@ABV01@@Z

; 594  : 	dlgBlockHorizonScale.m_StrTypeTimeCompartType = pItem->m_strTimeScaleCompart;

  00084	8d 47 3c	 lea	 eax, DWORD PTR [edi+60]
  00087	50		 push	 eax
  00088	8d 8e b0 02 00
	00		 lea	 ecx, DWORD PTR [esi+688]
  0008e	ff 15 00 00 00
	00		 call	 DWORD PTR __imp_??4?$CStringT@DV?$StrTraitMFC_DLL@DV?$ChTraitsCRT@D@ATL@@@@@ATL@@QAEAAV01@ABV01@@Z

; 595  : 	dlgBlockHorizonScale.m_nStyleHorizonScale = pItem->m_nHorizonStyle;

  00094	8b 47 44	 mov	 eax, DWORD PTR [edi+68]

; 596  : 	dlgBlockHorizonScale.m_nScaleCompartType = pItem->m_nScaleCompartType;
; 597  : 	dlgBlockHorizonScale.SetAllItemInfoOfPacketPage(m_strAllItemInfoOfPacketPage);

  00097	8b ce		 mov	 ecx, esi
  00099	89 86 b4 02 00
	00		 mov	 DWORD PTR [esi+692], eax
  0009f	8b 47 50	 mov	 eax, DWORD PTR [edi+80]
  000a2	89 86 bc 02 00
	00		 mov	 DWORD PTR [esi+700], eax
  000a8	8d 83 ec 01 00
	00		 lea	 eax, DWORD PTR [ebx+492]
  000ae	50		 push	 eax
  000af	e8 00 00 00 00	 call	 ?SetAllItemInfoOfPacketPage@CDlgBlockHorizontalScale@@QAEXABV?$CStringT@DV?$StrTraitMFC_DLL@DV?$ChTraitsCRT@D@ATL@@@@@ATL@@@Z ; CDlgBlockHorizontalScale::SetAllItemInfoOfPacketPage
  000b4	5f		 pop	 edi
  000b5	5e		 pop	 esi
  000b6	5b		 pop	 ebx

; 598  : }

  000b7	5d		 pop	 ebp
  000b8	c2 08 00	 ret	 8
?SetDlgBlockHorizontalScale@CMyTreeCtrl@@AAEXPAVCChartLink@@AAVCDlgBlockHorizontalScale@@@Z ENDP ; CMyTreeCtrl::SetDlgBlockHorizontalScale
_TEXT	ENDS
; Function compile flags: /Ogtp
; File D:\git\src\IBK\IBK_DRFN\ProjSrc\SrcChartEx\ChartAddIn\ChartDesignPropertyAddIn\ChartDesignPropertyAddIn\MyTreeCtrl.cpp
;	COMDAT ?SetRootValueToAllBlocks@CMyTreeCtrl@@AAEXPAVCChartLink@@@Z
_TEXT	SEGMENT
_pItem$ = 8						; size = 4
?SetRootValueToAllBlocks@CMyTreeCtrl@@AAEXPAVCChartLink@@@Z PROC ; CMyTreeCtrl::SetRootValueToAllBlocks, COMDAT
; _this$ = ecx

; 601  : {

  00000	55		 push	 ebp
  00001	8b ec		 mov	 ebp, esp
  00003	56		 push	 esi

; 602  : 	CChartLink* pLink = m_clChartRoot.m_Child ;

  00004	8b b1 60 01 00
	00		 mov	 esi, DWORD PTR [ecx+352]

; 603  : 	while(pLink)

  0000a	85 f6		 test	 esi, esi
  0000c	74 47		 je	 SHORT $LN3@SetRootVal
  0000e	53		 push	 ebx
  0000f	57		 push	 edi
  00010	8b 7d 08	 mov	 edi, DWORD PTR _pItem$[ebp]
  00013	8d 5f 58	 lea	 ebx, DWORD PTR [edi+88]
$LL2@SetRootVal:

; 604  : 	{
; 605  : 		pLink->m_strScaleStyle = pItem->m_strScaleStyle;

  00016	53		 push	 ebx
  00017	8d 4e 58	 lea	 ecx, DWORD PTR [esi+88]
  0001a	ff 15 00 00 00
	00		 call	 DWORD PTR __imp_??4?$CStringT@DV?$StrTraitMFC_DLL@DV?$ChTraitsCRT@D@ATL@@@@@ATL@@QAEAAV01@ABV01@@Z

; 606  : 		pLink->m_nHorizonpos = pItem->m_nHorizonpos;

  00020	8b 47 40	 mov	 eax, DWORD PTR [edi+64]

; 607  : 		pLink->m_strDateScaleCompart = pItem->m_strDateScaleCompart;

  00023	8d 4e 38	 lea	 ecx, DWORD PTR [esi+56]
  00026	89 46 40	 mov	 DWORD PTR [esi+64], eax
  00029	8d 47 38	 lea	 eax, DWORD PTR [edi+56]
  0002c	50		 push	 eax
  0002d	ff 15 00 00 00
	00		 call	 DWORD PTR __imp_??4?$CStringT@DV?$StrTraitMFC_DLL@DV?$ChTraitsCRT@D@ATL@@@@@ATL@@QAEAAV01@ABV01@@Z

; 608  : 		pLink->m_strTimeScaleCompart = pItem->m_strTimeScaleCompart;

  00033	8d 47 3c	 lea	 eax, DWORD PTR [edi+60]
  00036	50		 push	 eax
  00037	8d 4e 3c	 lea	 ecx, DWORD PTR [esi+60]
  0003a	ff 15 00 00 00
	00		 call	 DWORD PTR __imp_??4?$CStringT@DV?$StrTraitMFC_DLL@DV?$ChTraitsCRT@D@ATL@@@@@ATL@@QAEAAV01@ABV01@@Z

; 609  : 		pLink->m_nHorizonStyle = pItem->m_nHorizonStyle;

  00040	8b 47 44	 mov	 eax, DWORD PTR [edi+68]
  00043	89 46 44	 mov	 DWORD PTR [esi+68], eax

; 610  : 		pLink->m_nScaleCompartType = pItem->m_nScaleCompartType;

  00046	8b 47 50	 mov	 eax, DWORD PTR [edi+80]
  00049	89 46 50	 mov	 DWORD PTR [esi+80], eax

; 611  : 		pLink = pLink->m_Next ;

  0004c	8b 76 68	 mov	 esi, DWORD PTR [esi+104]
  0004f	85 f6		 test	 esi, esi
  00051	75 c3		 jne	 SHORT $LL2@SetRootVal
  00053	5f		 pop	 edi
  00054	5b		 pop	 ebx
$LN3@SetRootVal:
  00055	5e		 pop	 esi

; 612  : 	}
; 613  : }

  00056	5d		 pop	 ebp
  00057	c2 04 00	 ret	 4
?SetRootValueToAllBlocks@CMyTreeCtrl@@AAEXPAVCChartLink@@@Z ENDP ; CMyTreeCtrl::SetRootValueToAllBlocks
_TEXT	ENDS
; Function compile flags: /Ogtp
; File D:\git\src\IBK\IBK_DRFN\ProjSrc\SrcChartEx\ChartAddIn\ChartDesignPropertyAddIn\ChartDesignPropertyAddIn\MyTreeCtrl.cpp
;	COMDAT ?SetDlgValueToCChartLinkClass@CMyTreeCtrl@@AAEXAAVCDlgBlockHorizontalScale@@PAVCChartLink@@@Z
_TEXT	SEGMENT
_dlgBlockHorizonScale$ = 8				; size = 4
_pItem$ = 12						; size = 4
?SetDlgValueToCChartLinkClass@CMyTreeCtrl@@AAEXAAVCDlgBlockHorizontalScale@@PAVCChartLink@@@Z PROC ; CMyTreeCtrl::SetDlgValueToCChartLinkClass, COMDAT
; _this$ = ecx

; 616  : {

  00000	55		 push	 ebp
  00001	8b ec		 mov	 ebp, esp
  00003	56		 push	 esi

; 617  : 	pItem->m_strScaleStyle = dlgBlockHorizonScale.m_strScaleData;

  00004	8b 75 0c	 mov	 esi, DWORD PTR _pItem$[ebp]
  00007	57		 push	 edi
  00008	8b 7d 08	 mov	 edi, DWORD PTR _dlgBlockHorizonScale$[ebp]
  0000b	8d 4e 58	 lea	 ecx, DWORD PTR [esi+88]
  0000e	8d 87 b8 02 00
	00		 lea	 eax, DWORD PTR [edi+696]
  00014	50		 push	 eax
  00015	ff 15 00 00 00
	00		 call	 DWORD PTR __imp_??4?$CStringT@DV?$StrTraitMFC_DLL@DV?$ChTraitsCRT@D@ATL@@@@@ATL@@QAEAAV01@ABV01@@Z

; 618  : 	pItem->m_nHorizonpos = dlgBlockHorizonScale.m_nHorizonScalePos;

  0001b	8b 87 a8 02 00
	00		 mov	 eax, DWORD PTR [edi+680]

; 619  : 	pItem->m_strDateScaleCompart = dlgBlockHorizonScale.m_strDateCompartType;

  00021	8d 4e 38	 lea	 ecx, DWORD PTR [esi+56]
  00024	89 46 40	 mov	 DWORD PTR [esi+64], eax
  00027	8d 87 ac 02 00
	00		 lea	 eax, DWORD PTR [edi+684]
  0002d	50		 push	 eax
  0002e	ff 15 00 00 00
	00		 call	 DWORD PTR __imp_??4?$CStringT@DV?$StrTraitMFC_DLL@DV?$ChTraitsCRT@D@ATL@@@@@ATL@@QAEAAV01@ABV01@@Z

; 620  : 	pItem->m_strTimeScaleCompart = dlgBlockHorizonScale.m_StrTypeTimeCompartType;

  00034	8d 87 b0 02 00
	00		 lea	 eax, DWORD PTR [edi+688]
  0003a	50		 push	 eax
  0003b	8d 4e 3c	 lea	 ecx, DWORD PTR [esi+60]
  0003e	ff 15 00 00 00
	00		 call	 DWORD PTR __imp_??4?$CStringT@DV?$StrTraitMFC_DLL@DV?$ChTraitsCRT@D@ATL@@@@@ATL@@QAEAAV01@ABV01@@Z

; 621  : 	pItem->m_nHorizonStyle = dlgBlockHorizonScale.m_nStyleHorizonScale;

  00044	8b 87 b4 02 00
	00		 mov	 eax, DWORD PTR [edi+692]
  0004a	89 46 44	 mov	 DWORD PTR [esi+68], eax

; 622  : 	pItem->m_nScaleCompartType = dlgBlockHorizonScale.m_nScaleCompartType;

  0004d	8b 87 bc 02 00
	00		 mov	 eax, DWORD PTR [edi+700]
  00053	5f		 pop	 edi
  00054	89 46 50	 mov	 DWORD PTR [esi+80], eax
  00057	5e		 pop	 esi

; 623  : }

  00058	5d		 pop	 ebp
  00059	c2 08 00	 ret	 8
?SetDlgValueToCChartLinkClass@CMyTreeCtrl@@AAEXAAVCDlgBlockHorizontalScale@@PAVCChartLink@@@Z ENDP ; CMyTreeCtrl::SetDlgValueToCChartLinkClass
_TEXT	ENDS
; Function compile flags: /Ogtp
; File D:\git\src\IBK\IBK_DRFN\ProjSrc\SrcChartEx\ChartAddIn\ChartDesignPropertyAddIn\ChartDesignPropertyAddIn\MyTreeCtrl.cpp
;	COMDAT ?GetTitle@CMyTreeCtrl@@AAE?AV?$CStringT@DV?$StrTraitMFC_DLL@DV?$ChTraitsCRT@D@ATL@@@@@ATL@@ABV23@@Z
_TEXT	SEGMENT
$T2 = -20						; size = 4
$T3 = -20						; size = 4
$T4 = -16						; size = 4
$T5 = -16						; size = 4
$T6 = -16						; size = 4
__$EHRec$ = -12						; size = 12
___$ReturnUdt$ = 8					; size = 4
_strData$ = 12						; size = 4
_strTitle$ = 12						; size = 4
?GetTitle@CMyTreeCtrl@@AAE?AV?$CStringT@DV?$StrTraitMFC_DLL@DV?$ChTraitsCRT@D@ATL@@@@@ATL@@ABV23@@Z PROC ; CMyTreeCtrl::GetTitle, COMDAT
; _this$ = ecx

; 675  : {

  00000	55		 push	 ebp
  00001	8b ec		 mov	 ebp, esp
  00003	6a ff		 push	 -1
  00005	68 00 00 00 00	 push	 __ehhandler$?GetTitle@CMyTreeCtrl@@AAE?AV?$CStringT@DV?$StrTraitMFC_DLL@DV?$ChTraitsCRT@D@ATL@@@@@ATL@@ABV23@@Z
  0000a	64 a1 00 00 00
	00		 mov	 eax, DWORD PTR fs:0
  00010	50		 push	 eax
  00011	83 ec 08	 sub	 esp, 8
  00014	a1 00 00 00 00	 mov	 eax, DWORD PTR ___security_cookie
  00019	33 c5		 xor	 eax, ebp
  0001b	50		 push	 eax
  0001c	8d 45 f4	 lea	 eax, DWORD PTR __$EHRec$[ebp]
  0001f	64 a3 00 00 00
	00		 mov	 DWORD PTR fs:0, eax

; 676  : 	CString strData = strTitle;

  00025	ff 75 0c	 push	 DWORD PTR _strTitle$[ebp]
  00028	8d 4d 0c	 lea	 ecx, DWORD PTR _strData$[ebp]
  0002b	ff 15 00 00 00
	00		 call	 DWORD PTR __imp_??0?$CStringT@DV?$StrTraitMFC_DLL@DV?$ChTraitsCRT@D@ATL@@@@@ATL@@QAE@ABV01@@Z

; 677  : 	CDataConversion::GetStringData(strData, ";");

  00031	68 00 00 00 00	 push	 OFFSET ??_C@_01ICJEACDI@?$DL@
  00036	8d 4d f0	 lea	 ecx, DWORD PTR $T6[ebp]
  00039	c7 45 fc 00 00
	00 00		 mov	 DWORD PTR __$EHRec$[ebp+8], 0
  00040	ff 15 00 00 00
	00		 call	 DWORD PTR __imp_??0?$CStringT@DV?$StrTraitMFC_DLL@DV?$ChTraitsCRT@D@ATL@@@@@ATL@@QAE@PBD@Z
  00046	6a 01		 push	 1
  00048	8d 45 f0	 lea	 eax, DWORD PTR $T6[ebp]
  0004b	c6 45 fc 01	 mov	 BYTE PTR __$EHRec$[ebp+8], 1
  0004f	50		 push	 eax
  00050	8d 45 0c	 lea	 eax, DWORD PTR _strData$[ebp]
  00053	50		 push	 eax
  00054	8d 45 ec	 lea	 eax, DWORD PTR $T3[ebp]
  00057	50		 push	 eax
  00058	e8 00 00 00 00	 call	 ?GetStringData@CDataConversion@@SA?AV?$CStringT@DV?$StrTraitMFC_DLL@DV?$ChTraitsCRT@D@ATL@@@@@ATL@@AAV23@ABV23@_N@Z ; CDataConversion::GetStringData
  0005d	83 c4 10	 add	 esp, 16			; 00000010H
  00060	8d 4d ec	 lea	 ecx, DWORD PTR $T3[ebp]
  00063	ff 15 00 00 00
	00		 call	 DWORD PTR __imp_??1?$CStringT@DV?$StrTraitMFC_DLL@DV?$ChTraitsCRT@D@ATL@@@@@ATL@@QAE@XZ
  00069	8d 4d f0	 lea	 ecx, DWORD PTR $T6[ebp]
  0006c	c6 45 fc 00	 mov	 BYTE PTR __$EHRec$[ebp+8], 0
  00070	ff 15 00 00 00
	00		 call	 DWORD PTR __imp_??1?$CStringT@DV?$StrTraitMFC_DLL@DV?$ChTraitsCRT@D@ATL@@@@@ATL@@QAE@XZ

; 678  : 	CDataConversion::GetStringData(strData, ";");

  00076	68 00 00 00 00	 push	 OFFSET ??_C@_01ICJEACDI@?$DL@
  0007b	8d 4d f0	 lea	 ecx, DWORD PTR $T5[ebp]
  0007e	ff 15 00 00 00
	00		 call	 DWORD PTR __imp_??0?$CStringT@DV?$StrTraitMFC_DLL@DV?$ChTraitsCRT@D@ATL@@@@@ATL@@QAE@PBD@Z
  00084	6a 01		 push	 1
  00086	8d 45 f0	 lea	 eax, DWORD PTR $T5[ebp]
  00089	c6 45 fc 02	 mov	 BYTE PTR __$EHRec$[ebp+8], 2
  0008d	50		 push	 eax
  0008e	8d 45 0c	 lea	 eax, DWORD PTR _strData$[ebp]
  00091	50		 push	 eax
  00092	8d 45 ec	 lea	 eax, DWORD PTR $T2[ebp]
  00095	50		 push	 eax
  00096	e8 00 00 00 00	 call	 ?GetStringData@CDataConversion@@SA?AV?$CStringT@DV?$StrTraitMFC_DLL@DV?$ChTraitsCRT@D@ATL@@@@@ATL@@AAV23@ABV23@_N@Z ; CDataConversion::GetStringData
  0009b	83 c4 10	 add	 esp, 16			; 00000010H
  0009e	8d 4d ec	 lea	 ecx, DWORD PTR $T2[ebp]
  000a1	ff 15 00 00 00
	00		 call	 DWORD PTR __imp_??1?$CStringT@DV?$StrTraitMFC_DLL@DV?$ChTraitsCRT@D@ATL@@@@@ATL@@QAE@XZ
  000a7	8d 4d f0	 lea	 ecx, DWORD PTR $T5[ebp]
  000aa	c6 45 fc 00	 mov	 BYTE PTR __$EHRec$[ebp+8], 0
  000ae	ff 15 00 00 00
	00		 call	 DWORD PTR __imp_??1?$CStringT@DV?$StrTraitMFC_DLL@DV?$ChTraitsCRT@D@ATL@@@@@ATL@@QAE@XZ

; 679  : 	return CDataConversion::GetStringData(strData, ";");

  000b4	68 00 00 00 00	 push	 OFFSET ??_C@_01ICJEACDI@?$DL@
  000b9	8d 4d f0	 lea	 ecx, DWORD PTR $T4[ebp]
  000bc	ff 15 00 00 00
	00		 call	 DWORD PTR __imp_??0?$CStringT@DV?$StrTraitMFC_DLL@DV?$ChTraitsCRT@D@ATL@@@@@ATL@@QAE@PBD@Z
  000c2	6a 01		 push	 1
  000c4	8d 45 f0	 lea	 eax, DWORD PTR $T4[ebp]
  000c7	c6 45 fc 03	 mov	 BYTE PTR __$EHRec$[ebp+8], 3
  000cb	50		 push	 eax
  000cc	8d 45 0c	 lea	 eax, DWORD PTR _strData$[ebp]
  000cf	50		 push	 eax
  000d0	ff 75 08	 push	 DWORD PTR ___$ReturnUdt$[ebp]
  000d3	e8 00 00 00 00	 call	 ?GetStringData@CDataConversion@@SA?AV?$CStringT@DV?$StrTraitMFC_DLL@DV?$ChTraitsCRT@D@ATL@@@@@ATL@@AAV23@ABV23@_N@Z ; CDataConversion::GetStringData
  000d8	83 c4 10	 add	 esp, 16			; 00000010H
  000db	8d 4d f0	 lea	 ecx, DWORD PTR $T4[ebp]
  000de	ff 15 00 00 00
	00		 call	 DWORD PTR __imp_??1?$CStringT@DV?$StrTraitMFC_DLL@DV?$ChTraitsCRT@D@ATL@@@@@ATL@@QAE@XZ
  000e4	8d 4d 0c	 lea	 ecx, DWORD PTR _strData$[ebp]
  000e7	ff 15 00 00 00
	00		 call	 DWORD PTR __imp_??1?$CStringT@DV?$StrTraitMFC_DLL@DV?$ChTraitsCRT@D@ATL@@@@@ATL@@QAE@XZ
  000ed	8b 45 08	 mov	 eax, DWORD PTR ___$ReturnUdt$[ebp]

; 680  : }

  000f0	8b 4d f4	 mov	 ecx, DWORD PTR __$EHRec$[ebp]
  000f3	64 89 0d 00 00
	00 00		 mov	 DWORD PTR fs:0, ecx
  000fa	59		 pop	 ecx
  000fb	8b e5		 mov	 esp, ebp
  000fd	5d		 pop	 ebp
  000fe	c2 08 00	 ret	 8
_TEXT	ENDS
;	COMDAT text$x
text$x	SEGMENT
__unwindfunclet$?GetTitle@CMyTreeCtrl@@AAE?AV?$CStringT@DV?$StrTraitMFC_DLL@DV?$ChTraitsCRT@D@ATL@@@@@ATL@@ABV23@@Z$0:
  00000	8d 4d 0c	 lea	 ecx, DWORD PTR _strData$[ebp]
  00003	ff 25 00 00 00
	00		 jmp	 DWORD PTR __imp_??1?$CStringT@DV?$StrTraitMFC_DLL@DV?$ChTraitsCRT@D@ATL@@@@@ATL@@QAE@XZ
__unwindfunclet$?GetTitle@CMyTreeCtrl@@AAE?AV?$CStringT@DV?$StrTraitMFC_DLL@DV?$ChTraitsCRT@D@ATL@@@@@ATL@@ABV23@@Z$1:
  00009	8d 4d f0	 lea	 ecx, DWORD PTR $T6[ebp]
  0000c	ff 25 00 00 00
	00		 jmp	 DWORD PTR __imp_??1?$CStringT@DV?$StrTraitMFC_DLL@DV?$ChTraitsCRT@D@ATL@@@@@ATL@@QAE@XZ
__unwindfunclet$?GetTitle@CMyTreeCtrl@@AAE?AV?$CStringT@DV?$StrTraitMFC_DLL@DV?$ChTraitsCRT@D@ATL@@@@@ATL@@ABV23@@Z$3:
  00012	8d 4d f0	 lea	 ecx, DWORD PTR $T5[ebp]
  00015	ff 25 00 00 00
	00		 jmp	 DWORD PTR __imp_??1?$CStringT@DV?$StrTraitMFC_DLL@DV?$ChTraitsCRT@D@ATL@@@@@ATL@@QAE@XZ
__unwindfunclet$?GetTitle@CMyTreeCtrl@@AAE?AV?$CStringT@DV?$StrTraitMFC_DLL@DV?$ChTraitsCRT@D@ATL@@@@@ATL@@ABV23@@Z$5:
  0001b	8d 4d f0	 lea	 ecx, DWORD PTR $T4[ebp]
  0001e	ff 25 00 00 00
	00		 jmp	 DWORD PTR __imp_??1?$CStringT@DV?$StrTraitMFC_DLL@DV?$ChTraitsCRT@D@ATL@@@@@ATL@@QAE@XZ
  00024	cc		 int	 3
  00025	cc		 int	 3
  00026	cc		 int	 3
  00027	cc		 int	 3
  00028	cc		 int	 3
__ehhandler$?GetTitle@CMyTreeCtrl@@AAE?AV?$CStringT@DV?$StrTraitMFC_DLL@DV?$ChTraitsCRT@D@ATL@@@@@ATL@@ABV23@@Z:
  00029	90		 npad	 1
  0002a	90		 npad	 1
  0002b	8b 54 24 08	 mov	 edx, DWORD PTR [esp+8]
  0002f	8d 42 0c	 lea	 eax, DWORD PTR [edx+12]
  00032	8b 4a f4	 mov	 ecx, DWORD PTR [edx-12]
  00035	33 c8		 xor	 ecx, eax
  00037	e8 00 00 00 00	 call	 @__security_check_cookie@4
  0003c	b8 00 00 00 00	 mov	 eax, OFFSET __ehfuncinfo$?GetTitle@CMyTreeCtrl@@AAE?AV?$CStringT@DV?$StrTraitMFC_DLL@DV?$ChTraitsCRT@D@ATL@@@@@ATL@@ABV23@@Z
  00041	e9 00 00 00 00	 jmp	 ___CxxFrameHandler3
text$x	ENDS
?GetTitle@CMyTreeCtrl@@AAE?AV?$CStringT@DV?$StrTraitMFC_DLL@DV?$ChTraitsCRT@D@ATL@@@@@ATL@@ABV23@@Z ENDP ; CMyTreeCtrl::GetTitle
; Function compile flags: /Ogtp
; File D:\git\src\IBK\IBK_DRFN\ProjSrc\SrcChartEx\ChartAddIn\ChartDesignPropertyAddIn\ChartDesignPropertyAddIn\MyTreeCtrl.cpp
;	COMDAT ?GetimageofIndicatorTypeIndex@CMyTreeCtrl@@AAEHPAD@Z
_TEXT	SEGMENT
_strGraphType$ = 8					; size = 4
?GetimageofIndicatorTypeIndex@CMyTreeCtrl@@AAEHPAD@Z PROC ; CMyTreeCtrl::GetimageofIndicatorTypeIndex, COMDAT
; _this$ = ecx

; 345  : {

  00000	55		 push	 ebp
  00001	8b ec		 mov	 ebp, esp
  00003	53		 push	 ebx

; 346  : 	for(int i = 0 ; i < GRAPHTYPE_ITEM ; i++) {

  00004	8b 1d 54 00 00
	00		 mov	 ebx, DWORD PTR ?g_iMetaTable@@3VIMetaTable@@A+84
  0000a	56		 push	 esi
  0000b	57		 push	 edi
  0000c	8b 7d 08	 mov	 edi, DWORD PTR _strGraphType$[ebp]
  0000f	33 f6		 xor	 esi, esi
$LL4@Getimageof:

; 347  : 		if(strcmp( strGraphType, _MTEXTN( pGraphTypeItem[ i])) == 0)

  00011	8b 04 b5 00 00
	00 00		 mov	 eax, DWORD PTR ?pGraphTypeItem@@3PAW4E_METACODE@IMetaTable@@A[esi*4]
  00018	8b cf		 mov	 ecx, edi
  0001a	8b 04 83	 mov	 eax, DWORD PTR [ebx+eax*4]
  0001d	0f 1f 00	 npad	 3
$LL12@Getimageof:
  00020	8a 11		 mov	 dl, BYTE PTR [ecx]
  00022	3a 10		 cmp	 dl, BYTE PTR [eax]
  00024	75 1a		 jne	 SHORT $LN13@Getimageof
  00026	84 d2		 test	 dl, dl
  00028	74 12		 je	 SHORT $LN14@Getimageof
  0002a	8a 51 01	 mov	 dl, BYTE PTR [ecx+1]
  0002d	3a 50 01	 cmp	 dl, BYTE PTR [eax+1]
  00030	75 0e		 jne	 SHORT $LN13@Getimageof
  00032	83 c1 02	 add	 ecx, 2
  00035	83 c0 02	 add	 eax, 2
  00038	84 d2		 test	 dl, dl
  0003a	75 e4		 jne	 SHORT $LL12@Getimageof
$LN14@Getimageof:
  0003c	33 c0		 xor	 eax, eax
  0003e	eb 05		 jmp	 SHORT $LN15@Getimageof
$LN13@Getimageof:
  00040	1b c0		 sbb	 eax, eax
  00042	83 c8 01	 or	 eax, 1
$LN15@Getimageof:
  00045	46		 inc	 esi
  00046	85 c0		 test	 eax, eax
  00048	74 0e		 je	 SHORT $LN8@Getimageof

; 346  : 	for(int i = 0 ; i < GRAPHTYPE_ITEM ; i++) {

  0004a	83 fe 08	 cmp	 esi, 8
  0004d	7c c2		 jl	 SHORT $LL4@Getimageof

; 349  : 	}
; 350  : 	return 0 ;
; 351  : }

  0004f	5f		 pop	 edi
  00050	5e		 pop	 esi
  00051	33 c0		 xor	 eax, eax
  00053	5b		 pop	 ebx
  00054	5d		 pop	 ebp
  00055	c2 04 00	 ret	 4
$LN8@Getimageof:
  00058	5f		 pop	 edi

; 348  : 			return i + 1 ;

  00059	8b c6		 mov	 eax, esi

; 349  : 	}
; 350  : 	return 0 ;
; 351  : }

  0005b	5e		 pop	 esi
  0005c	5b		 pop	 ebx
  0005d	5d		 pop	 ebp
  0005e	c2 04 00	 ret	 4
?GetimageofIndicatorTypeIndex@CMyTreeCtrl@@AAEHPAD@Z ENDP ; CMyTreeCtrl::GetimageofIndicatorTypeIndex
_TEXT	ENDS
; Function compile flags: /Ogtp
; File D:\git\src\IBK\IBK_DRFN\ProjSrc\SrcChartEx\ChartAddIn\ChartDesignPropertyAddIn\ChartDesignPropertyAddIn\MyTreeCtrl.cpp
; File C:\Program Files (x86)\Microsoft Visual Studio\2019\Community\VC\Tools\MSVC\14.29.30133\atlmfc\include\afxcmn.inl
; File D:\git\src\IBK\IBK_DRFN\ProjSrc\SrcChartEx\ChartAddIn\ChartDesignPropertyAddIn\ChartDesignPropertyAddIn\MyTreeCtrl.cpp
; File C:\Program Files (x86)\Microsoft Visual Studio\2019\Community\VC\Tools\MSVC\14.29.30133\atlmfc\include\afxcmn.inl
; File D:\git\src\IBK\IBK_DRFN\ProjSrc\SrcChartEx\ChartAddIn\ChartDesignPropertyAddIn\ChartDesignPropertyAddIn\MyTreeCtrl.cpp
;	COMDAT ?DeleteVERT_SCALE_OnlyTreeItem@CMyTreeCtrl@@AAEXPAVCChartLink@@@Z
_TEXT	SEGMENT
_pLink$ = 8						; size = 4
?DeleteVERT_SCALE_OnlyTreeItem@CMyTreeCtrl@@AAEXPAVCChartLink@@@Z PROC ; CMyTreeCtrl::DeleteVERT_SCALE_OnlyTreeItem, COMDAT
; _this$ = ecx

; 659  : {

  00000	55		 push	 ebp
  00001	8b ec		 mov	 ebp, esp
  00003	53		 push	 ebx

; 660  : 	CChartLink* pGraph = pLink->m_Child;
; 661  : 	while(pGraph)

  00004	8b 1d 00 00 00
	00		 mov	 ebx, DWORD PTR __imp__SendMessageA@16
  0000a	56		 push	 esi
  0000b	8b 75 08	 mov	 esi, DWORD PTR _pLink$[ebp]
  0000e	57		 push	 edi
  0000f	8b f9		 mov	 edi, ecx
  00011	8b 76 60	 mov	 esi, DWORD PTR [esi+96]
  00014	85 f6		 test	 esi, esi
  00016	74 22		 je	 SHORT $LN3@DeleteVERT
$LL2@DeleteVERT:

; 662  : 	{
; 663  : 		if(pGraph->m_hItem != (HTREEITEM)0)

  00018	8b 46 08	 mov	 eax, DWORD PTR [esi+8]
  0001b	85 c0		 test	 eax, eax
  0001d	74 14		 je	 SHORT $LN15@DeleteVERT
; File C:\Program Files (x86)\Microsoft Visual Studio\2019\Community\VC\Tools\MSVC\14.29.30133\atlmfc\include\afxcmn.inl

; 273  : 	{ ASSERT(::IsWindow(m_hWnd)); return (BOOL)::SendMessage(m_hWnd, TVM_DELETEITEM, 0, (LPARAM)hItem); }

  0001f	50		 push	 eax
  00020	6a 00		 push	 0
  00022	68 01 11 00 00	 push	 4353			; 00001101H
  00027	ff 77 20	 push	 DWORD PTR [edi+32]
  0002a	ff d3		 call	 ebx
; File D:\git\src\IBK\IBK_DRFN\ProjSrc\SrcChartEx\ChartAddIn\ChartDesignPropertyAddIn\ChartDesignPropertyAddIn\MyTreeCtrl.cpp

; 666  : 			pGraph->m_hItem = (HTREEITEM)0;				

  0002c	c7 46 08 00 00
	00 00		 mov	 DWORD PTR [esi+8], 0
$LN15@DeleteVERT:

; 667  : 		}
; 668  : 		pGraph = pGraph->m_Next;

  00033	8b 76 68	 mov	 esi, DWORD PTR [esi+104]
  00036	85 f6		 test	 esi, esi
  00038	75 de		 jne	 SHORT $LL2@DeleteVERT
$LN3@DeleteVERT:
; File C:\Program Files (x86)\Microsoft Visual Studio\2019\Community\VC\Tools\MSVC\14.29.30133\atlmfc\include\afxcmn.inl

; 273  : 	{ ASSERT(::IsWindow(m_hWnd)); return (BOOL)::SendMessage(m_hWnd, TVM_DELETEITEM, 0, (LPARAM)hItem); }

  0003a	8b 75 08	 mov	 esi, DWORD PTR _pLink$[ebp]
  0003d	ff 76 08	 push	 DWORD PTR [esi+8]
  00040	6a 00		 push	 0
  00042	68 01 11 00 00	 push	 4353			; 00001101H
  00047	ff 77 20	 push	 DWORD PTR [edi+32]
  0004a	ff d3		 call	 ebx
; File D:\git\src\IBK\IBK_DRFN\ProjSrc\SrcChartEx\ChartAddIn\ChartDesignPropertyAddIn\ChartDesignPropertyAddIn\MyTreeCtrl.cpp

; 671  : 	pLink->m_hItem = (HTREEITEM)0;

  0004c	5f		 pop	 edi
  0004d	c7 46 08 00 00
	00 00		 mov	 DWORD PTR [esi+8], 0
  00054	5e		 pop	 esi
  00055	5b		 pop	 ebx

; 672  : }

  00056	5d		 pop	 ebp
  00057	c2 04 00	 ret	 4
?DeleteVERT_SCALE_OnlyTreeItem@CMyTreeCtrl@@AAEXPAVCChartLink@@@Z ENDP ; CMyTreeCtrl::DeleteVERT_SCALE_OnlyTreeItem
_TEXT	ENDS
; Function compile flags: /Ogtp
; File D:\git\src\IBK\IBK_DRFN\ProjSrc\SrcChartEx\ChartAddIn\ChartDesignPropertyAddIn\ChartDesignPropertyAddIn\MyTreeCtrl.cpp
; File C:\Program Files (x86)\Microsoft Visual Studio\2019\Community\VC\Tools\MSVC\14.29.30133\atlmfc\include\afxcmn.inl
; File D:\git\src\IBK\IBK_DRFN\ProjSrc\SrcChartEx\ChartAddIn\ChartDesignPropertyAddIn\ChartDesignPropertyAddIn\MyTreeCtrl.cpp
;	COMDAT ?DeleteGRAPH_OnlyTreeItem@CMyTreeCtrl@@AAEXPAVCChartLink@@@Z
_TEXT	SEGMENT
_pLink$ = 8						; size = 4
?DeleteGRAPH_OnlyTreeItem@CMyTreeCtrl@@AAEXPAVCChartLink@@@Z PROC ; CMyTreeCtrl::DeleteGRAPH_OnlyTreeItem, COMDAT
; _this$ = ecx

; 626  : {

  00000	55		 push	 ebp
  00001	8b ec		 mov	 ebp, esp
  00003	56		 push	 esi

; 627  : 	DeleteItem(pLink->m_hItem);

  00004	8b 75 08	 mov	 esi, DWORD PTR _pLink$[ebp]
; File C:\Program Files (x86)\Microsoft Visual Studio\2019\Community\VC\Tools\MSVC\14.29.30133\atlmfc\include\afxcmn.inl

; 273  : 	{ ASSERT(::IsWindow(m_hWnd)); return (BOOL)::SendMessage(m_hWnd, TVM_DELETEITEM, 0, (LPARAM)hItem); }

  00007	ff 76 08	 push	 DWORD PTR [esi+8]
  0000a	6a 00		 push	 0
  0000c	68 01 11 00 00	 push	 4353			; 00001101H
  00011	ff 71 20	 push	 DWORD PTR [ecx+32]
  00014	ff 15 00 00 00
	00		 call	 DWORD PTR __imp__SendMessageA@16
; File D:\git\src\IBK\IBK_DRFN\ProjSrc\SrcChartEx\ChartAddIn\ChartDesignPropertyAddIn\ChartDesignPropertyAddIn\MyTreeCtrl.cpp

; 628  : 	pLink->m_hItem = (HTREEITEM)0;		

  0001a	c7 46 08 00 00
	00 00		 mov	 DWORD PTR [esi+8], 0
  00021	5e		 pop	 esi

; 629  : }

  00022	5d		 pop	 ebp
  00023	c2 04 00	 ret	 4
?DeleteGRAPH_OnlyTreeItem@CMyTreeCtrl@@AAEXPAVCChartLink@@@Z ENDP ; CMyTreeCtrl::DeleteGRAPH_OnlyTreeItem
_TEXT	ENDS
; Function compile flags: /Ogtp
; File D:\git\src\IBK\IBK_DRFN\ProjSrc\SrcChartEx\ChartAddIn\ChartDesignPropertyAddIn\ChartDesignPropertyAddIn\MyTreeCtrl.cpp
; File C:\Program Files (x86)\Microsoft Visual Studio\2019\Community\VC\Tools\MSVC\14.29.30133\atlmfc\include\afxcmn.inl
; File D:\git\src\IBK\IBK_DRFN\ProjSrc\SrcChartEx\ChartAddIn\ChartDesignPropertyAddIn\ChartDesignPropertyAddIn\MyTreeCtrl.cpp
; File C:\Program Files (x86)\Microsoft Visual Studio\2019\Community\VC\Tools\MSVC\14.29.30133\atlmfc\include\afxcmn.inl
; File D:\git\src\IBK\IBK_DRFN\ProjSrc\SrcChartEx\ChartAddIn\ChartDesignPropertyAddIn\ChartDesignPropertyAddIn\MyTreeCtrl.cpp
; File C:\Program Files (x86)\Microsoft Visual Studio\2019\Community\VC\Tools\MSVC\14.29.30133\atlmfc\include\afxcmn.inl
; File D:\git\src\IBK\IBK_DRFN\ProjSrc\SrcChartEx\ChartAddIn\ChartDesignPropertyAddIn\ChartDesignPropertyAddIn\MyTreeCtrl.cpp
;	COMDAT ?DeleteBLOCK_OnlyTreeItem@CMyTreeCtrl@@AAEXPAVCChartLink@@@Z
_TEXT	SEGMENT
_pLink$ = 8						; size = 4
?DeleteBLOCK_OnlyTreeItem@CMyTreeCtrl@@AAEXPAVCChartLink@@@Z PROC ; CMyTreeCtrl::DeleteBLOCK_OnlyTreeItem, COMDAT
; _this$ = ecx

; 632  : {

  00000	55		 push	 ebp
  00001	8b ec		 mov	 ebp, esp
  00003	53		 push	 ebx
  00004	56		 push	 esi

; 633  : 	CChartLink* pVerScale = pLink->m_Child;

  00005	8b 75 08	 mov	 esi, DWORD PTR _pLink$[ebp]
  00008	8b d9		 mov	 ebx, ecx

; 634  : 	while(pVerScale)

  0000a	8b 0d 00 00 00
	00		 mov	 ecx, DWORD PTR __imp__SendMessageA@16
  00010	57		 push	 edi
  00011	8b 7e 60	 mov	 edi, DWORD PTR [esi+96]
  00014	85 ff		 test	 edi, edi
  00016	74 5b		 je	 SHORT $LN3@DeleteBLOC
$LL2@DeleteBLOC:

; 635  : 	{
; 636  : 		CChartLink* pGraph = pVerScale->m_Child;

  00018	8b 77 60	 mov	 esi, DWORD PTR [edi+96]

; 637  : 		while(pGraph)

  0001b	85 f6		 test	 esi, esi
  0001d	74 29		 je	 SHORT $LN5@DeleteBLOC
  0001f	90		 npad	 1
$LL4@DeleteBLOC:

; 638  : 		{
; 639  : 			if(pGraph->m_hItem != (HTREEITEM)0)

  00020	8b 46 08	 mov	 eax, DWORD PTR [esi+8]
  00023	85 c0		 test	 eax, eax
  00025	74 1a		 je	 SHORT $LN25@DeleteBLOC
; File C:\Program Files (x86)\Microsoft Visual Studio\2019\Community\VC\Tools\MSVC\14.29.30133\atlmfc\include\afxcmn.inl

; 273  : 	{ ASSERT(::IsWindow(m_hWnd)); return (BOOL)::SendMessage(m_hWnd, TVM_DELETEITEM, 0, (LPARAM)hItem); }

  00027	50		 push	 eax
  00028	6a 00		 push	 0
  0002a	68 01 11 00 00	 push	 4353			; 00001101H
  0002f	ff 73 20	 push	 DWORD PTR [ebx+32]
  00032	ff d1		 call	 ecx
; File D:\git\src\IBK\IBK_DRFN\ProjSrc\SrcChartEx\ChartAddIn\ChartDesignPropertyAddIn\ChartDesignPropertyAddIn\MyTreeCtrl.cpp

; 642  : 				pGraph->m_hItem = (HTREEITEM)0;				

  00034	8b 0d 00 00 00
	00		 mov	 ecx, DWORD PTR __imp__SendMessageA@16
  0003a	c7 46 08 00 00
	00 00		 mov	 DWORD PTR [esi+8], 0
$LN25@DeleteBLOC:

; 643  : 			}
; 644  : 			pGraph = pGraph->m_Next;

  00041	8b 76 68	 mov	 esi, DWORD PTR [esi+104]
  00044	85 f6		 test	 esi, esi
  00046	75 d8		 jne	 SHORT $LL4@DeleteBLOC
$LN5@DeleteBLOC:

; 645  : 		}
; 646  : 		if(pVerScale->m_hItem != (HTREEITEM)0)

  00048	8b 47 08	 mov	 eax, DWORD PTR [edi+8]
  0004b	85 c0		 test	 eax, eax
  0004d	74 14		 je	 SHORT $LN26@DeleteBLOC
; File C:\Program Files (x86)\Microsoft Visual Studio\2019\Community\VC\Tools\MSVC\14.29.30133\atlmfc\include\afxcmn.inl

; 273  : 	{ ASSERT(::IsWindow(m_hWnd)); return (BOOL)::SendMessage(m_hWnd, TVM_DELETEITEM, 0, (LPARAM)hItem); }

  0004f	50		 push	 eax
  00050	6a 00		 push	 0
  00052	68 01 11 00 00	 push	 4353			; 00001101H
  00057	ff 73 20	 push	 DWORD PTR [ebx+32]
  0005a	ff d1		 call	 ecx
; File D:\git\src\IBK\IBK_DRFN\ProjSrc\SrcChartEx\ChartAddIn\ChartDesignPropertyAddIn\ChartDesignPropertyAddIn\MyTreeCtrl.cpp

; 649  : 			pVerScale->m_hItem = (HTREEITEM)0;				

  0005c	c7 47 08 00 00
	00 00		 mov	 DWORD PTR [edi+8], 0
$LN26@DeleteBLOC:

; 650  : 		}
; 651  : 		pVerScale = pVerScale->m_Next;

  00063	8b 7f 68	 mov	 edi, DWORD PTR [edi+104]
  00066	8b 0d 00 00 00
	00		 mov	 ecx, DWORD PTR __imp__SendMessageA@16
  0006c	85 ff		 test	 edi, edi
  0006e	75 a8		 jne	 SHORT $LL2@DeleteBLOC
  00070	8b 75 08	 mov	 esi, DWORD PTR _pLink$[ebp]
$LN3@DeleteBLOC:
; File C:\Program Files (x86)\Microsoft Visual Studio\2019\Community\VC\Tools\MSVC\14.29.30133\atlmfc\include\afxcmn.inl

; 273  : 	{ ASSERT(::IsWindow(m_hWnd)); return (BOOL)::SendMessage(m_hWnd, TVM_DELETEITEM, 0, (LPARAM)hItem); }

  00073	ff 76 08	 push	 DWORD PTR [esi+8]
  00076	6a 00		 push	 0
  00078	68 01 11 00 00	 push	 4353			; 00001101H
  0007d	ff 73 20	 push	 DWORD PTR [ebx+32]
  00080	ff d1		 call	 ecx
; File D:\git\src\IBK\IBK_DRFN\ProjSrc\SrcChartEx\ChartAddIn\ChartDesignPropertyAddIn\ChartDesignPropertyAddIn\MyTreeCtrl.cpp

; 654  : 	pLink->m_hItem = (HTREEITEM)0;

  00082	5f		 pop	 edi
  00083	c7 46 08 00 00
	00 00		 mov	 DWORD PTR [esi+8], 0
  0008a	5e		 pop	 esi
  0008b	5b		 pop	 ebx

; 655  : }

  0008c	5d		 pop	 ebp
  0008d	c2 04 00	 ret	 4
?DeleteBLOCK_OnlyTreeItem@CMyTreeCtrl@@AAEXPAVCChartLink@@@Z ENDP ; CMyTreeCtrl::DeleteBLOCK_OnlyTreeItem
_TEXT	ENDS
; Function compile flags: /Ogtp
; File D:\git\src\IBK\IBK_DRFN\ProjSrc\SrcChartEx\ChartAddIn\ChartDesignPropertyAddIn\ChartDesignPropertyAddIn\MyTreeCtrl.cpp
; File C:\Program Files (x86)\Microsoft Visual Studio\2019\Community\VC\Tools\MSVC\14.29.30133\atlmfc\include\afxcmn.inl
; File D:\git\src\IBK\IBK_DRFN\ProjSrc\SrcChartEx\ChartAddIn\ChartDesignPropertyAddIn\ChartDesignPropertyAddIn\MyTreeCtrl.cpp
; File C:\Program Files (x86)\Microsoft Visual Studio\2019\Community\VC\Tools\MSVC\14.29.30133\atlmfc\include\afxcmn.inl
; File D:\git\src\IBK\IBK_DRFN\ProjSrc\SrcChartEx\ChartAddIn\ChartDesignPropertyAddIn\ChartDesignPropertyAddIn\MyTreeCtrl.cpp
; File C:\Program Files (x86)\Microsoft Visual Studio\2019\Community\VC\Tools\MSVC\14.29.30133\atlmfc\include\afxcmn.inl
; File D:\git\src\IBK\IBK_DRFN\ProjSrc\SrcChartEx\ChartAddIn\ChartDesignPropertyAddIn\ChartDesignPropertyAddIn\MyTreeCtrl.cpp
; File C:\Program Files (x86)\Microsoft Visual Studio\2019\Community\VC\Tools\MSVC\14.29.30133\atlmfc\include\afxwin2.inl
; File D:\git\src\IBK\IBK_DRFN\ProjSrc\SrcChartEx\ChartAddIn\ChartDesignPropertyAddIn\ChartDesignPropertyAddIn\MyTreeCtrl.cpp
;	COMDAT ?AddVertScale@CMyTreeCtrl@@AAEPAU_TREEITEM@@PAU2@PAD@Z
_TEXT	SEGMENT
_tvstruct$ = -80					; size = 68
__$EHRec$ = -12						; size = 12
$T2 = 8							; size = 4
_hItem$ = 8						; size = 4
_nhItem$ = 12						; size = 4
_name$ = 12						; size = 4
?AddVertScale@CMyTreeCtrl@@AAEPAU_TREEITEM@@PAU2@PAD@Z PROC ; CMyTreeCtrl::AddVertScale, COMDAT
; _this$ = ecx

; 693  : {

  00000	55		 push	 ebp
  00001	8b ec		 mov	 ebp, esp
  00003	6a ff		 push	 -1
  00005	68 00 00 00 00	 push	 __ehhandler$?AddVertScale@CMyTreeCtrl@@AAEPAU_TREEITEM@@PAU2@PAD@Z
  0000a	64 a1 00 00 00
	00		 mov	 eax, DWORD PTR fs:0
  00010	50		 push	 eax
  00011	83 ec 44	 sub	 esp, 68			; 00000044H
  00014	57		 push	 edi
  00015	a1 00 00 00 00	 mov	 eax, DWORD PTR ___security_cookie
  0001a	33 c5		 xor	 eax, ebp
  0001c	50		 push	 eax
  0001d	8d 45 f4	 lea	 eax, DWORD PTR __$EHRec$[ebp]
  00020	64 a3 00 00 00
	00		 mov	 DWORD PTR fs:0, eax
  00026	8b f9		 mov	 edi, ecx

; 694  : 	if(hItem == NULL) return (HTREEITEM)0;

  00028	8b 45 08	 mov	 eax, DWORD PTR _hItem$[ebp]
  0002b	85 c0		 test	 eax, eax
  0002d	75 12		 jne	 SHORT $LN2@AddVertSca

; 710  : }

  0002f	8b 4d f4	 mov	 ecx, DWORD PTR __$EHRec$[ebp]
  00032	64 89 0d 00 00
	00 00		 mov	 DWORD PTR fs:0, ecx
  00039	59		 pop	 ecx
  0003a	5f		 pop	 edi
  0003b	8b e5		 mov	 esp, ebp
  0003d	5d		 pop	 ebp
  0003e	c2 08 00	 ret	 8
$LN2@AddVertSca:

; 695  : 	HTREEITEM nhItem = 0;
; 696  : 
; 697  : 	TV_INSERTSTRUCT	tvstruct;
; 698  : 	tvstruct.hParent = hItem;

  00041	89 45 b0	 mov	 DWORD PTR _tvstruct$[ebp], eax

; 702  : 	tvstruct.item.pszText = name;

  00044	8b 45 0c	 mov	 eax, DWORD PTR _name$[ebp]
  00047	89 45 c8	 mov	 DWORD PTR _tvstruct$[ebp+24], eax
; File C:\Program Files (x86)\Microsoft Visual Studio\2019\Community\VC\Tools\MSVC\14.29.30133\atlmfc\include\afxcmn.inl

; 266  : 	{ ASSERT(::IsWindow(m_hWnd));  return (HTREEITEM)::SendMessage(m_hWnd, TVM_INSERTITEM, 0, (LPARAM)lpInsertStruct); }

  0004a	8d 45 b0	 lea	 eax, DWORD PTR _tvstruct$[ebp]
  0004d	50		 push	 eax
  0004e	6a 00		 push	 0
  00050	68 00 11 00 00	 push	 4352			; 00001100H
  00055	ff 77 20	 push	 DWORD PTR [edi+32]
; File D:\git\src\IBK\IBK_DRFN\ProjSrc\SrcChartEx\ChartAddIn\ChartDesignPropertyAddIn\ChartDesignPropertyAddIn\MyTreeCtrl.cpp

; 699  : 	tvstruct.hInsertAfter = TVI_LAST;

  00058	c7 45 b4 02 00
	ff ff		 mov	 DWORD PTR _tvstruct$[ebp+4], -65534 ; ffff0002H

; 700  : 	tvstruct.item.iImage = ROOT;

  0005f	c7 45 d0 00 00
	00 00		 mov	 DWORD PTR _tvstruct$[ebp+32], 0

; 701  : 	tvstruct.item.iSelectedImage = tvstruct.item.iImage;

  00066	c7 45 d4 00 00
	00 00		 mov	 DWORD PTR _tvstruct$[ebp+36], 0

; 703  : 	tvstruct.item.mask = TVIF_IMAGE | TVIF_SELECTEDIMAGE | TVIF_TEXT;

  0006d	c7 45 b8 23 00
	00 00		 mov	 DWORD PTR _tvstruct$[ebp+8], 35 ; 00000023H
; File C:\Program Files (x86)\Microsoft Visual Studio\2019\Community\VC\Tools\MSVC\14.29.30133\atlmfc\include\afxcmn.inl

; 266  : 	{ ASSERT(::IsWindow(m_hWnd));  return (HTREEITEM)::SendMessage(m_hWnd, TVM_INSERTITEM, 0, (LPARAM)lpInsertStruct); }

  00074	ff 15 00 00 00
	00		 call	 DWORD PTR __imp__SendMessageA@16

; 354  : 	{ ASSERT(::IsWindow(m_hWnd)); return (BOOL)::SendMessage(m_hWnd, TVM_ENSUREVISIBLE, 0, (LPARAM)hItem); }

  0007a	50		 push	 eax
  0007b	6a 00		 push	 0
  0007d	68 14 11 00 00	 push	 4372			; 00001114H
  00082	ff 77 20	 push	 DWORD PTR [edi+32]
; File D:\git\src\IBK\IBK_DRFN\ProjSrc\SrcChartEx\ChartAddIn\ChartDesignPropertyAddIn\ChartDesignPropertyAddIn\MyTreeCtrl.cpp

; 704  : 	nhItem = InsertItem(&tvstruct);

  00085	89 45 0c	 mov	 DWORD PTR _nhItem$[ebp], eax
; File C:\Program Files (x86)\Microsoft Visual Studio\2019\Community\VC\Tools\MSVC\14.29.30133\atlmfc\include\afxcmn.inl

; 354  : 	{ ASSERT(::IsWindow(m_hWnd)); return (BOOL)::SendMessage(m_hWnd, TVM_ENSUREVISIBLE, 0, (LPARAM)hItem); }

  00088	ff 15 00 00 00
	00		 call	 DWORD PTR __imp__SendMessageA@16
; File D:\git\src\IBK\IBK_DRFN\ProjSrc\SrcChartEx\ChartAddIn\ChartDesignPropertyAddIn\ChartDesignPropertyAddIn\MyTreeCtrl.cpp

; 707  : 	((CChartListPage* )GetParent())->SetToolTipInfo(nhItem, "Vertical Scale");

  0008e	68 00 00 00 00	 push	 OFFSET ??_C@_0P@ONCIBKJN@Vertical?5Scale@
  00093	8d 4d 08	 lea	 ecx, DWORD PTR $T2[ebp]
  00096	ff 15 00 00 00
	00		 call	 DWORD PTR __imp_??0?$CStringT@DV?$StrTraitMFC_DLL@DV?$ChTraitsCRT@D@ATL@@@@@ATL@@QAE@PBD@Z
  0009c	8d 45 08	 lea	 eax, DWORD PTR $T2[ebp]
  0009f	c7 45 fc 00 00
	00 00		 mov	 DWORD PTR __$EHRec$[ebp+8], 0
  000a6	50		 push	 eax
  000a7	8d 45 0c	 lea	 eax, DWORD PTR _nhItem$[ebp]
  000aa	50		 push	 eax
; File C:\Program Files (x86)\Microsoft Visual Studio\2019\Community\VC\Tools\MSVC\14.29.30133\atlmfc\include\afxwin2.inl

; 213  : 	{ ASSERT(::IsWindow(m_hWnd)); return CWnd::FromHandle(::GetParent(m_hWnd)); }

  000ab	ff 77 20	 push	 DWORD PTR [edi+32]
  000ae	ff 15 00 00 00
	00		 call	 DWORD PTR __imp__GetParent@4
  000b4	50		 push	 eax
  000b5	e8 00 00 00 00	 call	 ?FromHandle@CWnd@@SGPAV1@PAUHWND__@@@Z ; CWnd::FromHandle
; File D:\git\src\IBK\IBK_DRFN\ProjSrc\SrcChartEx\ChartAddIn\ChartDesignPropertyAddIn\ChartDesignPropertyAddIn\MyTreeCtrl.cpp

; 707  : 	((CChartListPage* )GetParent())->SetToolTipInfo(nhItem, "Vertical Scale");

  000ba	8b c8		 mov	 ecx, eax
  000bc	e8 00 00 00 00	 call	 ?SetToolTipInfo@CChartListPage@@QAEXAAPAU_TREEITEM@@ABV?$CStringT@DV?$StrTraitMFC_DLL@DV?$ChTraitsCRT@D@ATL@@@@@ATL@@@Z ; CChartListPage::SetToolTipInfo
  000c1	8d 4d 08	 lea	 ecx, DWORD PTR $T2[ebp]
  000c4	ff 15 00 00 00
	00		 call	 DWORD PTR __imp_??1?$CStringT@DV?$StrTraitMFC_DLL@DV?$ChTraitsCRT@D@ATL@@@@@ATL@@QAE@XZ

; 708  : 
; 709  : 	return nhItem;

  000ca	8b 45 0c	 mov	 eax, DWORD PTR _nhItem$[ebp]

; 710  : }

  000cd	8b 4d f4	 mov	 ecx, DWORD PTR __$EHRec$[ebp]
  000d0	64 89 0d 00 00
	00 00		 mov	 DWORD PTR fs:0, ecx
  000d7	59		 pop	 ecx
  000d8	5f		 pop	 edi
  000d9	8b e5		 mov	 esp, ebp
  000db	5d		 pop	 ebp
  000dc	c2 08 00	 ret	 8
_TEXT	ENDS
;	COMDAT text$x
text$x	SEGMENT
__unwindfunclet$?AddVertScale@CMyTreeCtrl@@AAEPAU_TREEITEM@@PAU2@PAD@Z$0:
  00000	8d 4d 08	 lea	 ecx, DWORD PTR $T2[ebp]
  00003	ff 25 00 00 00
	00		 jmp	 DWORD PTR __imp_??1?$CStringT@DV?$StrTraitMFC_DLL@DV?$ChTraitsCRT@D@ATL@@@@@ATL@@QAE@XZ
  00009	cc		 int	 3
  0000a	cc		 int	 3
  0000b	cc		 int	 3
  0000c	cc		 int	 3
  0000d	cc		 int	 3
__ehhandler$?AddVertScale@CMyTreeCtrl@@AAEPAU_TREEITEM@@PAU2@PAD@Z:
  0000e	90		 npad	 1
  0000f	90		 npad	 1
  00010	8b 54 24 08	 mov	 edx, DWORD PTR [esp+8]
  00014	8d 42 0c	 lea	 eax, DWORD PTR [edx+12]
  00017	8b 4a b4	 mov	 ecx, DWORD PTR [edx-76]
  0001a	33 c8		 xor	 ecx, eax
  0001c	e8 00 00 00 00	 call	 @__security_check_cookie@4
  00021	b8 00 00 00 00	 mov	 eax, OFFSET __ehfuncinfo$?AddVertScale@CMyTreeCtrl@@AAEPAU_TREEITEM@@PAU2@PAD@Z
  00026	e9 00 00 00 00	 jmp	 ___CxxFrameHandler3
text$x	ENDS
?AddVertScale@CMyTreeCtrl@@AAEPAU_TREEITEM@@PAU2@PAD@Z ENDP ; CMyTreeCtrl::AddVertScale
; Function compile flags: /Ogtp
; File D:\git\src\IBK\IBK_DRFN\ProjSrc\SrcChartEx\ChartAddIn\ChartDesignPropertyAddIn\ChartDesignPropertyAddIn\MyTreeCtrl.cpp
; File C:\Program Files (x86)\Microsoft Visual Studio\2019\Community\VC\Tools\MSVC\14.29.30133\atlmfc\include\afxcmn.inl
; File D:\git\src\IBK\IBK_DRFN\ProjSrc\SrcChartEx\ChartAddIn\ChartDesignPropertyAddIn\ChartDesignPropertyAddIn\MyTreeCtrl.cpp
; File C:\Program Files (x86)\Microsoft Visual Studio\2019\Community\VC\Tools\MSVC\14.29.30133\atlmfc\include\afxcmn.inl
; File D:\git\src\IBK\IBK_DRFN\ProjSrc\SrcChartEx\ChartAddIn\ChartDesignPropertyAddIn\ChartDesignPropertyAddIn\MyTreeCtrl.cpp
;	COMDAT ?OnDeleteVertScale@CMyTreeCtrl@@AAEXPAVCChartLink@@@Z
_TEXT	SEGMENT
_pVertScale$ = 8					; size = 4
?OnDeleteVertScale@CMyTreeCtrl@@AAEXPAVCChartLink@@@Z PROC ; CMyTreeCtrl::OnDeleteVertScale, COMDAT
; _this$ = ecx

; 818  : {

  00000	55		 push	 ebp
  00001	8b ec		 mov	 ebp, esp
  00003	53		 push	 ebx

; 819  : 	CChartLink* pGraph = pVertScale->m_Child;
; 820  : 	while(pGraph)

  00004	8b 1d 00 00 00
	00		 mov	 ebx, DWORD PTR __imp__SendMessageA@16
  0000a	56		 push	 esi
  0000b	8b 75 08	 mov	 esi, DWORD PTR _pVertScale$[ebp]
  0000e	57		 push	 edi
  0000f	8b f9		 mov	 edi, ecx
  00011	8b 76 60	 mov	 esi, DWORD PTR [esi+96]
  00014	85 f6		 test	 esi, esi
  00016	74 36		 je	 SHORT $LN3@OnDeleteVe
$LL2@OnDeleteVe:

; 821  : 	{
; 822  : 		if(pGraph->m_hItem != (HTREEITEM)0)

  00018	83 7e 08 00	 cmp	 DWORD PTR [esi+8], 0
  0001c	74 1d		 je	 SHORT $LN18@OnDeleteVe

; 823  : 		{
; 824  : 			pGraph->Cut();

  0001e	8b ce		 mov	 ecx, esi
  00020	e8 00 00 00 00	 call	 ?Cut@CChartLink@@QAEXXZ	; CChartLink::Cut
; File C:\Program Files (x86)\Microsoft Visual Studio\2019\Community\VC\Tools\MSVC\14.29.30133\atlmfc\include\afxcmn.inl

; 273  : 	{ ASSERT(::IsWindow(m_hWnd)); return (BOOL)::SendMessage(m_hWnd, TVM_DELETEITEM, 0, (LPARAM)hItem); }

  00025	ff 76 08	 push	 DWORD PTR [esi+8]
  00028	6a 00		 push	 0
  0002a	68 01 11 00 00	 push	 4353			; 00001101H
  0002f	ff 77 20	 push	 DWORD PTR [edi+32]
  00032	ff d3		 call	 ebx
; File D:\git\src\IBK\IBK_DRFN\ProjSrc\SrcChartEx\ChartAddIn\ChartDesignPropertyAddIn\ChartDesignPropertyAddIn\MyTreeCtrl.cpp

; 826  : 			pGraph->m_hItem = (HTREEITEM)0;	

  00034	c7 46 08 00 00
	00 00		 mov	 DWORD PTR [esi+8], 0
$LN18@OnDeleteVe:

; 827  : 		}
; 828  : 		CChartLink* pOld = pGraph;

  0003b	8b ce		 mov	 ecx, esi

; 829  : 		pGraph = pGraph->m_Next;

  0003d	8b 76 68	 mov	 esi, DWORD PTR [esi+104]

; 830  : 		delete pOld;

  00040	85 c9		 test	 ecx, ecx
  00042	74 06		 je	 SHORT $LN6@OnDeleteVe
  00044	8b 01		 mov	 eax, DWORD PTR [ecx]
  00046	6a 01		 push	 1
  00048	ff 10		 call	 DWORD PTR [eax]
$LN6@OnDeleteVe:

; 819  : 	CChartLink* pGraph = pVertScale->m_Child;
; 820  : 	while(pGraph)

  0004a	85 f6		 test	 esi, esi
  0004c	75 ca		 jne	 SHORT $LL2@OnDeleteVe
$LN3@OnDeleteVe:

; 831  : 	}
; 832  : 	pVertScale->Cut();

  0004e	8b 75 08	 mov	 esi, DWORD PTR _pVertScale$[ebp]
  00051	8b ce		 mov	 ecx, esi
  00053	e8 00 00 00 00	 call	 ?Cut@CChartLink@@QAEXXZ	; CChartLink::Cut
; File C:\Program Files (x86)\Microsoft Visual Studio\2019\Community\VC\Tools\MSVC\14.29.30133\atlmfc\include\afxcmn.inl

; 273  : 	{ ASSERT(::IsWindow(m_hWnd)); return (BOOL)::SendMessage(m_hWnd, TVM_DELETEITEM, 0, (LPARAM)hItem); }

  00058	ff 76 08	 push	 DWORD PTR [esi+8]
  0005b	6a 00		 push	 0
  0005d	68 01 11 00 00	 push	 4353			; 00001101H
  00062	ff 77 20	 push	 DWORD PTR [edi+32]
  00065	ff d3		 call	 ebx
; File D:\git\src\IBK\IBK_DRFN\ProjSrc\SrcChartEx\ChartAddIn\ChartDesignPropertyAddIn\ChartDesignPropertyAddIn\MyTreeCtrl.cpp

; 835  : 	delete pVertScale;

  00067	8b 06		 mov	 eax, DWORD PTR [esi]
  00069	8b ce		 mov	 ecx, esi
  0006b	6a 01		 push	 1
  0006d	c7 46 08 00 00
	00 00		 mov	 DWORD PTR [esi+8], 0
  00074	ff 10		 call	 DWORD PTR [eax]
  00076	5f		 pop	 edi
  00077	5e		 pop	 esi
  00078	5b		 pop	 ebx

; 836  : }

  00079	5d		 pop	 ebp
  0007a	c2 04 00	 ret	 4
?OnDeleteVertScale@CMyTreeCtrl@@AAEXPAVCChartLink@@@Z ENDP ; CMyTreeCtrl::OnDeleteVertScale
_TEXT	ENDS
; Function compile flags: /Ogtp
; File D:\git\src\IBK\IBK_DRFN\ProjSrc\SrcChartEx\ChartAddIn\ChartDesignPropertyAddIn\ChartDesignPropertyAddIn\MyTreeCtrl.cpp
;	COMDAT ?GetMessageMap@CMyTreeCtrl@@MBEPBUAFX_MSGMAP@@XZ
_TEXT	SEGMENT
?GetMessageMap@CMyTreeCtrl@@MBEPBUAFX_MSGMAP@@XZ PROC	; CMyTreeCtrl::GetMessageMap, COMDAT
; _this$ = ecx

; 51   : BEGIN_MESSAGE_MAP(CMyTreeCtrl, CTreeCtrl)

  00000	b8 00 00 00 00	 mov	 eax, OFFSET ?messageMap@?1??GetThisMessageMap@CMyTreeCtrl@@KGPBUAFX_MSGMAP@@XZ@4U3@B
  00005	c3		 ret	 0
?GetMessageMap@CMyTreeCtrl@@MBEPBUAFX_MSGMAP@@XZ ENDP	; CMyTreeCtrl::GetMessageMap
_TEXT	ENDS
; Function compile flags: /Ogtp
; File D:\git\src\IBK\IBK_DRFN\ProjSrc\SrcChartEx\ChartAddIn\ChartDesignPropertyAddIn\ChartDesignPropertyAddIn\MyTreeCtrl.cpp
;	COMDAT ?GetThisMessageMap@CMyTreeCtrl@@KGPBUAFX_MSGMAP@@XZ
_TEXT	SEGMENT
?GetThisMessageMap@CMyTreeCtrl@@KGPBUAFX_MSGMAP@@XZ PROC ; CMyTreeCtrl::GetThisMessageMap, COMDAT

; 52   : 	//{{AFX_MSG_MAP(CMyTreeCtrl)
; 53   : 	ON_NOTIFY_REFLECT(TVN_BEGINDRAG, OnBegindrag)
; 54   : 	ON_WM_RBUTTONDOWN()
; 55   : 	ON_COMMAND(IDR_TITLESCALECOLOR, OnTitlescalecolor)
; 56   : 	ON_COMMAND(IDR_DELETE, OnDelete)
; 57   : 	ON_COMMAND(IDR_HORIZONSCALE, OnHorizonscale)
; 58   : 	ON_COMMAND(IDR_VERT_SCALE, OnVertScale)
; 59   : 	ON_COMMAND(IDR_VERT_DELETE, OnVertDelete)
; 60   : 	ON_WM_CREATE()
; 61   : 	ON_COMMAND(IDR_CHARTINVERT, OnChartinvert)
; 62   : 	//}}AFX_MSG_MAP
; 63   : 	ON_MESSAGE(WM_DRAGCHARTDATA, OnDragChartData)
; 64   : 	ON_MESSAGE(WM_DROPCHARTDATA, OnDropChartData)
; 65   : END_MESSAGE_MAP()

  00000	b8 00 00 00 00	 mov	 eax, OFFSET ?messageMap@?1??GetThisMessageMap@CMyTreeCtrl@@KGPBUAFX_MSGMAP@@XZ@4U3@B
  00005	c3		 ret	 0
?GetThisMessageMap@CMyTreeCtrl@@KGPBUAFX_MSGMAP@@XZ ENDP ; CMyTreeCtrl::GetThisMessageMap
_TEXT	ENDS
; Function compile flags: /Ogtp
; File D:\git\src\IBK\IBK_DRFN\ProjSrc\SrcChartEx\ChartAddIn\ChartDesignPropertyAddIn\ChartDesignPropertyAddIn\MyTreeCtrl.cpp
; File C:\Program Files (x86)\Microsoft Visual Studio\2019\Community\VC\Tools\MSVC\14.29.30133\atlmfc\include\afxcmn.inl
; File D:\git\src\IBK\IBK_DRFN\ProjSrc\SrcChartEx\ChartAddIn\ChartDesignPropertyAddIn\ChartDesignPropertyAddIn\MyTreeCtrl.cpp
; File C:\Program Files (x86)\Microsoft Visual Studio\2019\Community\VC\Tools\MSVC\14.29.30133\atlmfc\include\afxcmn.inl
; File D:\git\src\IBK\IBK_DRFN\ProjSrc\SrcChartEx\ChartAddIn\ChartDesignPropertyAddIn\ChartDesignPropertyAddIn\MyTreeCtrl.cpp
; File C:\Program Files (x86)\Microsoft Visual Studio\2019\Community\VC\Tools\MSVC\14.29.30133\atlmfc\include\afxcmn.inl
; File D:\git\src\IBK\IBK_DRFN\ProjSrc\SrcChartEx\ChartAddIn\ChartDesignPropertyAddIn\ChartDesignPropertyAddIn\MyTreeCtrl.cpp
; File C:\Program Files (x86)\Microsoft Visual Studio\2019\Community\VC\Tools\MSVC\14.29.30133\atlmfc\include\afxcmn.inl
; File D:\git\src\IBK\IBK_DRFN\ProjSrc\SrcChartEx\ChartAddIn\ChartDesignPropertyAddIn\ChartDesignPropertyAddIn\MyTreeCtrl.cpp
;	COMDAT ?OnDropChartData@CMyTreeCtrl@@IAEJIJ@Z
_TEXT	SEGMENT
_pTarget$3$ = -16					; size = 4
$T2 = -16						; size = 4
$T3 = -16						; size = 4
$T4 = -16						; size = 4
$T5 = -16						; size = 4
__$EHRec$ = -12						; size = 12
_wParam$ = 8						; size = 4
$T6 = 12						; size = 4
_pSource$1$ = 12					; size = 4
_pTarget$2$ = 12					; size = 4
$T7 = 12						; size = 4
_lParam$ = 12						; size = 4
?OnDropChartData@CMyTreeCtrl@@IAEJIJ@Z PROC		; CMyTreeCtrl::OnDropChartData, COMDAT
; _this$ = ecx

; 153  : {

  00000	55		 push	 ebp
  00001	8b ec		 mov	 ebp, esp
  00003	6a ff		 push	 -1
  00005	68 00 00 00 00	 push	 __ehhandler$?OnDropChartData@CMyTreeCtrl@@IAEJIJ@Z
  0000a	64 a1 00 00 00
	00		 mov	 eax, DWORD PTR fs:0
  00010	50		 push	 eax
  00011	51		 push	 ecx
  00012	53		 push	 ebx
  00013	56		 push	 esi
  00014	57		 push	 edi
  00015	a1 00 00 00 00	 mov	 eax, DWORD PTR ___security_cookie
  0001a	33 c5		 xor	 eax, ebp
  0001c	50		 push	 eax
  0001d	8d 45 f4	 lea	 eax, DWORD PTR __$EHRec$[ebp]
  00020	64 a3 00 00 00
	00		 mov	 DWORD PTR fs:0, eax
  00026	8b f9		 mov	 edi, ecx

; 154  : 	// 0. Drop  , Tree  Source Item Clear.
; 155  : 	//		(m_pSelectItem Dragging  Tree  Source Type   .)
; 156  : 	m_pSelectItem = NULL;
; 157  : 
; 158  : 	// 0.  ChartItem Data .
; 159  : 	ChartItem *pData = (ChartItem *)lParam;
; 160  : 	if( !pData) return 0L;

  00028	83 7d 0c 00	 cmp	 DWORD PTR _lParam$[ebp], 0
  0002c	c7 87 fc 01 00
	00 00 00 00 00	 mov	 DWORD PTR [edi+508], 0
  00036	0f 84 6d 04 00
	00		 je	 $LN43@OnDropChar

; 161  : 
; 162  : 	// 1. Drop  Node Item   Target Item Handle Clear.
; 163  : 	if( !m_hTarget) return 0L;

  0003c	8b 87 80 00 00
	00		 mov	 eax, DWORD PTR [edi+128]
  00042	85 c0		 test	 eax, eax
  00044	0f 84 5f 04 00
	00		 je	 $LN43@OnDropChar

; 164  : 	CChartLink *pTarget = m_clChartRoot.Find( m_hTarget);

  0004a	50		 push	 eax
  0004b	8d 8f 00 01 00
	00		 lea	 ecx, DWORD PTR [edi+256]
  00051	e8 00 00 00 00	 call	 ?Find@CChartLink@@QAEPAV1@PAU_TREEITEM@@@Z ; CChartLink::Find
  00056	8b d8		 mov	 ebx, eax

; 165  : 	m_hTarget = NULL;

  00058	c7 87 80 00 00
	00 00 00 00 00	 mov	 DWORD PTR [edi+128], 0
  00062	89 5d f0	 mov	 DWORD PTR _pTarget$3$[ebp], ebx

; 166  : 	if(pTarget == NULL) return 0L;

  00065	85 db		 test	 ebx, ebx
  00067	0f 84 3c 04 00
	00		 je	 $LN43@OnDropChar

; 167  : 
; 168  : 	// 2. SubGraph Item  . (List Dragging   .)
; 169  : 	CChartLink *pSource;
; 170  : 	if( m_DoDrag == TRUE)

  0006d	83 bf fc 00 00
	00 01		 cmp	 DWORD PTR [edi+252], 1
  00074	0f 85 6e 02 00
	00		 jne	 $LN9@OnDropChar

; 171  : 	{
; 172  : 		// 2.1 Tree   .
; 173  : 		//	(Graph   Target   OnDragChartData() .)
; 174  : 		// 2.1.1 Tree Drag Item  .
; 175  : 		pSource = m_clChartRoot.Find( pData->hItem);

  0007a	8b 45 0c	 mov	 eax, DWORD PTR _lParam$[ebp]
  0007d	8d 8f 00 01 00
	00		 lea	 ecx, DWORD PTR [edi+256]
  00083	ff 30		 push	 DWORD PTR [eax]
  00085	e8 00 00 00 00	 call	 ?Find@CChartLink@@QAEPAV1@PAU_TREEITEM@@@Z ; CChartLink::Find
  0008a	8b f0		 mov	 esi, eax
  0008c	89 75 0c	 mov	 DWORD PTR _pSource$1$[ebp], esi

; 176  : 		if( !pSource) return 0L;

  0008f	85 f6		 test	 esi, esi
  00091	0f 84 12 04 00
	00		 je	 $LN43@OnDropChar

; 177  : 		// 2.1.2  Drop    .
; 178  : 		if( pTarget == pSource) return 0L;

  00097	3b de		 cmp	 ebx, esi
  00099	0f 84 0a 04 00
	00		 je	 $LN43@OnDropChar

; 179  : 		// 2.1.3 Source Item  .
; 180  : 		switch( pSource->m_iType)

  0009f	8b 4e 10	 mov	 ecx, DWORD PTR [esi+16]
  000a2	83 e9 01	 sub	 ecx, 1
  000a5	74 7d		 je	 SHORT $LN16@OnDropChar
  000a7	83 e9 01	 sub	 ecx, 1
  000aa	74 64		 je	 SHORT $LN15@OnDropChar
  000ac	83 e9 01	 sub	 ecx, 1
  000af	0f 85 fb 00 00
	00		 jne	 $LN2@OnDropChar

; 181  : 		{
; 182  : 			case GRAPH:
; 183  : 			{
; 184  : 				// 2.1.3 Graph  ,  Parent Vertical Scale     .
; 185  : 				CChartLink *pVertScale = pSource->m_Parent;

  000b5	8b 76 5c	 mov	 esi, DWORD PTR [esi+92]

; 186  : 				pSource->Cut();

  000b8	8b c8		 mov	 ecx, eax
  000ba	e8 00 00 00 00	 call	 ?Cut@CChartLink@@QAEXXZ	; CChartLink::Cut
; File C:\Program Files (x86)\Microsoft Visual Studio\2019\Community\VC\Tools\MSVC\14.29.30133\atlmfc\include\afxcmn.inl

; 273  : 	{ ASSERT(::IsWindow(m_hWnd)); return (BOOL)::SendMessage(m_hWnd, TVM_DELETEITEM, 0, (LPARAM)hItem); }

  000bf	8b 45 0c	 mov	 eax, DWORD PTR _pSource$1$[ebp]
  000c2	ff 70 08	 push	 DWORD PTR [eax+8]
  000c5	6a 00		 push	 0
  000c7	68 01 11 00 00	 push	 4353			; 00001101H
  000cc	ff 77 20	 push	 DWORD PTR [edi+32]
  000cf	ff 15 00 00 00
	00		 call	 DWORD PTR __imp__SendMessageA@16
; File D:\git\src\IBK\IBK_DRFN\ProjSrc\SrcChartEx\ChartAddIn\ChartDesignPropertyAddIn\ChartDesignPropertyAddIn\MyTreeCtrl.cpp

; 628  : 	pLink->m_hItem = (HTREEITEM)0;		

  000d5	8b 45 0c	 mov	 eax, DWORD PTR _pSource$1$[ebp]
  000d8	c7 40 08 00 00
	00 00		 mov	 DWORD PTR [eax+8], 0

; 187  : 				DeleteGRAPH_OnlyTreeItem( pSource);
; 188  : 				// 2.1.3.1  Target   Vertical Scale   (  Drop?)
; 189  : 				if( !pVertScale->m_Child && pVertScale != pTarget)

  000df	83 7e 60 00	 cmp	 DWORD PTR [esi+96], 0
  000e3	0f 85 c5 00 00
	00		 jne	 $LN101@OnDropChar
  000e9	3b f3		 cmp	 esi, ebx
  000eb	0f 84 bd 00 00
	00		 je	 $LN101@OnDropChar

; 190  : 				{
; 191  : 					pVertScale->Cut();

  000f1	8b ce		 mov	 ecx, esi
  000f3	e8 00 00 00 00	 call	 ?Cut@CChartLink@@QAEXXZ	; CChartLink::Cut

; 192  : 					DeleteVERT_SCALE_OnlyTreeItem( pVertScale);

  000f8	56		 push	 esi
  000f9	8b cf		 mov	 ecx, edi
  000fb	e8 00 00 00 00	 call	 ?DeleteVERT_SCALE_OnlyTreeItem@CMyTreeCtrl@@AAEXPAVCChartLink@@@Z ; CMyTreeCtrl::DeleteVERT_SCALE_OnlyTreeItem

; 193  : 					delete pVertScale;

  00100	8b 06		 mov	 eax, DWORD PTR [esi]
  00102	8b ce		 mov	 ecx, esi
  00104	6a 01		 push	 1
  00106	ff 10		 call	 DWORD PTR [eax]

; 194  : 				}
; 195  : 				break;

  00108	8b 75 0c	 mov	 esi, DWORD PTR _pSource$1$[ebp]
  0010b	e9 a0 00 00 00	 jmp	 $LN2@OnDropChar
$LN15@OnDropChar:

; 196  : 			}
; 197  : 			case VERT_SCALE:	pSource->Cut();

  00110	8b ce		 mov	 ecx, esi
  00112	e8 00 00 00 00	 call	 ?Cut@CChartLink@@QAEXXZ	; CChartLink::Cut

; 198  : 								DeleteVERT_SCALE_OnlyTreeItem( pSource);

  00117	56		 push	 esi
  00118	8b cf		 mov	 ecx, edi
  0011a	e8 00 00 00 00	 call	 ?DeleteVERT_SCALE_OnlyTreeItem@CMyTreeCtrl@@AAEXPAVCChartLink@@@Z ; CMyTreeCtrl::DeleteVERT_SCALE_OnlyTreeItem

; 199  : 								break;

  0011f	e9 8c 00 00 00	 jmp	 $LN2@OnDropChar
$LN16@OnDropChar:

; 200  : 			case BLOCK:	pSource->Cut();

  00124	8b ce		 mov	 ecx, esi
  00126	e8 00 00 00 00	 call	 ?Cut@CChartLink@@QAEXXZ	; CChartLink::Cut

; 633  : 	CChartLink* pVerScale = pLink->m_Child;

  0012b	8b 5e 60	 mov	 ebx, DWORD PTR [esi+96]

; 634  : 	while(pVerScale)

  0012e	8b 0d 00 00 00
	00		 mov	 ecx, DWORD PTR __imp__SendMessageA@16
  00134	85 db		 test	 ebx, ebx
  00136	74 5b		 je	 SHORT $LN56@OnDropChar
$LL55@OnDropChar:

; 635  : 	{
; 636  : 		CChartLink* pGraph = pVerScale->m_Child;

  00138	8b 73 60	 mov	 esi, DWORD PTR [ebx+96]

; 637  : 		while(pGraph)

  0013b	85 f6		 test	 esi, esi
  0013d	74 29		 je	 SHORT $LN58@OnDropChar
  0013f	90		 npad	 1
$LL57@OnDropChar:

; 638  : 		{
; 639  : 			if(pGraph->m_hItem != (HTREEITEM)0)

  00140	8b 46 08	 mov	 eax, DWORD PTR [esi+8]
  00143	85 c0		 test	 eax, eax
  00145	74 1a		 je	 SHORT $LN97@OnDropChar
; File C:\Program Files (x86)\Microsoft Visual Studio\2019\Community\VC\Tools\MSVC\14.29.30133\atlmfc\include\afxcmn.inl

; 273  : 	{ ASSERT(::IsWindow(m_hWnd)); return (BOOL)::SendMessage(m_hWnd, TVM_DELETEITEM, 0, (LPARAM)hItem); }

  00147	50		 push	 eax
  00148	6a 00		 push	 0
  0014a	68 01 11 00 00	 push	 4353			; 00001101H
  0014f	ff 77 20	 push	 DWORD PTR [edi+32]
  00152	ff d1		 call	 ecx
; File D:\git\src\IBK\IBK_DRFN\ProjSrc\SrcChartEx\ChartAddIn\ChartDesignPropertyAddIn\ChartDesignPropertyAddIn\MyTreeCtrl.cpp

; 642  : 				pGraph->m_hItem = (HTREEITEM)0;				

  00154	8b 0d 00 00 00
	00		 mov	 ecx, DWORD PTR __imp__SendMessageA@16
  0015a	c7 46 08 00 00
	00 00		 mov	 DWORD PTR [esi+8], 0
$LN97@OnDropChar:

; 643  : 			}
; 644  : 			pGraph = pGraph->m_Next;

  00161	8b 76 68	 mov	 esi, DWORD PTR [esi+104]
  00164	85 f6		 test	 esi, esi
  00166	75 d8		 jne	 SHORT $LL57@OnDropChar
$LN58@OnDropChar:

; 645  : 		}
; 646  : 		if(pVerScale->m_hItem != (HTREEITEM)0)

  00168	8b 43 08	 mov	 eax, DWORD PTR [ebx+8]
  0016b	85 c0		 test	 eax, eax
  0016d	74 14		 je	 SHORT $LN98@OnDropChar
; File C:\Program Files (x86)\Microsoft Visual Studio\2019\Community\VC\Tools\MSVC\14.29.30133\atlmfc\include\afxcmn.inl

; 273  : 	{ ASSERT(::IsWindow(m_hWnd)); return (BOOL)::SendMessage(m_hWnd, TVM_DELETEITEM, 0, (LPARAM)hItem); }

  0016f	50		 push	 eax
  00170	6a 00		 push	 0
  00172	68 01 11 00 00	 push	 4353			; 00001101H
  00177	ff 77 20	 push	 DWORD PTR [edi+32]
  0017a	ff d1		 call	 ecx
; File D:\git\src\IBK\IBK_DRFN\ProjSrc\SrcChartEx\ChartAddIn\ChartDesignPropertyAddIn\ChartDesignPropertyAddIn\MyTreeCtrl.cpp

; 649  : 			pVerScale->m_hItem = (HTREEITEM)0;				

  0017c	c7 43 08 00 00
	00 00		 mov	 DWORD PTR [ebx+8], 0
$LN98@OnDropChar:

; 650  : 		}
; 651  : 		pVerScale = pVerScale->m_Next;

  00183	8b 5b 68	 mov	 ebx, DWORD PTR [ebx+104]
  00186	8b 0d 00 00 00
	00		 mov	 ecx, DWORD PTR __imp__SendMessageA@16
  0018c	85 db		 test	 ebx, ebx
  0018e	75 a8		 jne	 SHORT $LL55@OnDropChar
  00190	8b 75 0c	 mov	 esi, DWORD PTR _pSource$1$[ebp]
$LN56@OnDropChar:
; File C:\Program Files (x86)\Microsoft Visual Studio\2019\Community\VC\Tools\MSVC\14.29.30133\atlmfc\include\afxcmn.inl

; 273  : 	{ ASSERT(::IsWindow(m_hWnd)); return (BOOL)::SendMessage(m_hWnd, TVM_DELETEITEM, 0, (LPARAM)hItem); }

  00193	ff 76 08	 push	 DWORD PTR [esi+8]
  00196	6a 00		 push	 0
  00198	68 01 11 00 00	 push	 4353			; 00001101H
  0019d	ff 77 20	 push	 DWORD PTR [edi+32]
  001a0	ff d1		 call	 ecx
  001a2	8b 5d f0	 mov	 ebx, DWORD PTR _pTarget$3$[ebp]
; File D:\git\src\IBK\IBK_DRFN\ProjSrc\SrcChartEx\ChartAddIn\ChartDesignPropertyAddIn\ChartDesignPropertyAddIn\MyTreeCtrl.cpp

; 654  : 	pLink->m_hItem = (HTREEITEM)0;

  001a5	c7 46 08 00 00
	00 00		 mov	 DWORD PTR [esi+8], 0

; 187  : 				DeleteGRAPH_OnlyTreeItem( pSource);
; 188  : 				// 2.1.3.1  Target   Vertical Scale   (  Drop?)
; 189  : 				if( !pVertScale->m_Child && pVertScale != pTarget)

  001ac	eb 02		 jmp	 SHORT $LN2@OnDropChar
$LN101@OnDropChar:

; 201  : 						DeleteBLOCK_OnlyTreeItem( pSource);
; 202  : 						break;
; 203  : 		}
; 204  : 		// 2.1.4 Drop .
; 205  : 		//	(Root    , VertScale Block  .
; 206  : 		//	 ,  Type    .)
; 207  : 		// 2.1.4.0 Graph Root   .
; 208  : 		//	(m_pChartBlock  Vertical Scale  .)
; 209  : 		if( pSource->m_iType == GRAPH && pTarget->m_iType == ROOT)

  001ae	8b f0		 mov	 esi, eax
$LN2@OnDropChar:
  001b0	83 7e 10 03	 cmp	 DWORD PTR [esi+16], 3
  001b4	0f 85 0e 01 00
	00		 jne	 $LN21@OnDropChar
  001ba	8b 43 10	 mov	 eax, DWORD PTR [ebx+16]
  001bd	85 c0		 test	 eax, eax
  001bf	75 1f		 jne	 SHORT $LN96@OnDropChar

; 210  : 		{
; 211  : 			pTarget = m_pChartBlock;

  001c1	8b 9f f0 01 00
	00		 mov	 ebx, DWORD PTR [edi+496]

; 212  : 			CChartLink *pVertScale = new CChartLink(NULL, VERT_SCALE, "Vertical Scale", m_hOcxWnd);

  001c7	68 b0 00 00 00	 push	 176			; 000000b0H
  001cc	e8 00 00 00 00	 call	 ??2@YAPAXI@Z		; operator new
  001d1	83 c4 04	 add	 esp, 4
  001d4	89 45 f0	 mov	 DWORD PTR $T5[ebp], eax
  001d7	c7 45 fc 00 00
	00 00		 mov	 DWORD PTR __$EHRec$[ebp+8], 0
  001de	eb 20		 jmp	 SHORT $LN106@OnDropChar
$LN96@OnDropChar:

; 213  : 			// (2007/7/2 - Seung-Won, Bae) Do not Support Main Grid Type.
; 214  : 			pVertScale->m_nScaleCompartType = GetFirstVScaleGridType( &m_clChartRoot);
; 215  : 			pTarget->AddChild(pVertScale);
; 216  : 			pVertScale->AddChild(pSource);
; 217  : 		}
; 218  : 		// 2.1.4.1 Graph Block   .
; 219  : 		//	( Vertical Scale  .)
; 220  : 		else if( pSource->m_iType == GRAPH && pTarget->m_iType == BLOCK)

  001e0	83 f8 01	 cmp	 eax, 1
  001e3	0f 85 d8 00 00
	00		 jne	 $LN93@OnDropChar

; 221  : 		{
; 222  : 			CChartLink *pVertScale;
; 223  : 			pVertScale = new CChartLink(NULL, VERT_SCALE, "Vertical Scale", m_hOcxWnd);

  001e9	68 b0 00 00 00	 push	 176			; 000000b0H
  001ee	e8 00 00 00 00	 call	 ??2@YAPAXI@Z		; operator new
  001f3	83 c4 04	 add	 esp, 4
  001f6	89 45 f0	 mov	 DWORD PTR $T4[ebp], eax
  001f9	c7 45 fc 01 00
	00 00		 mov	 DWORD PTR __$EHRec$[ebp+8], 1
$LN106@OnDropChar:

; 236  : 	}

  00200	85 c0		 test	 eax, eax
  00202	74 1a		 je	 SHORT $LN35@OnDropChar
  00204	ff b7 04 02 00
	00		 push	 DWORD PTR [edi+516]
  0020a	8b c8		 mov	 ecx, eax
  0020c	68 00 00 00 00	 push	 OFFSET ??_C@_0P@ONCIBKJN@Vertical?5Scale@
  00211	6a 02		 push	 2
  00213	6a 00		 push	 0
  00215	e8 00 00 00 00	 call	 ??0CChartLink@@QAE@PAV0@HPADPAUHWND__@@@Z ; CChartLink::CChartLink
  0021a	8b f0		 mov	 esi, eax
  0021c	eb 02		 jmp	 SHORT $LN36@OnDropChar
$LN35@OnDropChar:
  0021e	33 f6		 xor	 esi, esi
$LN36@OnDropChar:
  00220	8d 87 00 01 00
	00		 lea	 eax, DWORD PTR [edi+256]
  00226	c7 45 fc ff ff
	ff ff		 mov	 DWORD PTR __$EHRec$[ebp+8], -1
  0022d	85 c0		 test	 eax, eax
  0022f	75 2d		 jne	 SHORT $LN73@OnDropChar
  00231	b8 01 00 00 00	 mov	 eax, 1
  00236	8b cb		 mov	 ecx, ebx
  00238	56		 push	 esi
  00239	89 46 50	 mov	 DWORD PTR [esi+80], eax
  0023c	e8 00 00 00 00	 call	 ?AddChild@CChartLink@@QAEHPAV1@@Z ; CChartLink::AddChild
  00241	ff 75 0c	 push	 DWORD PTR _pSource$1$[ebp]
  00244	8b ce		 mov	 ecx, esi
  00246	e8 00 00 00 00	 call	 ?AddChild@CChartLink@@QAEHPAV1@@Z ; CChartLink::AddChild

; 284  : 						return 0;
; 285  : 		}
; 286  : 	}
; 287  : 
; 288  : 	// 3.  Item Tree .
; 289  : 	DeleteAllItems();

  0024b	8b cf		 mov	 ecx, edi
  0024d	e8 00 00 00 00	 call	 ?DeleteAllItems@CTreeCtrl@@QAEHXZ ; CTreeCtrl::DeleteAllItems

; 290  : 	InitTreeView();

  00252	8b cf		 mov	 ecx, edi
  00254	e8 00 00 00 00	 call	 ?InitTreeView@CMyTreeCtrl@@QAEXXZ ; CMyTreeCtrl::InitTreeView

; 291  : 
; 292  : 	return 0L;

  00259	e9 4b 02 00 00	 jmp	 $LN43@OnDropChar
$LN73@OnDropChar:

; 236  : 	}

  0025e	83 78 10 02	 cmp	 DWORD PTR [eax+16], 2
  00262	75 2b		 jne	 SHORT $LN74@OnDropChar
  00264	8b 40 50	 mov	 eax, DWORD PTR [eax+80]
  00267	8b cb		 mov	 ecx, ebx
  00269	56		 push	 esi
  0026a	89 46 50	 mov	 DWORD PTR [esi+80], eax
  0026d	e8 00 00 00 00	 call	 ?AddChild@CChartLink@@QAEHPAV1@@Z ; CChartLink::AddChild
  00272	ff 75 0c	 push	 DWORD PTR _pSource$1$[ebp]
  00275	8b ce		 mov	 ecx, esi
  00277	e8 00 00 00 00	 call	 ?AddChild@CChartLink@@QAEHPAV1@@Z ; CChartLink::AddChild

; 284  : 						return 0;
; 285  : 		}
; 286  : 	}
; 287  : 
; 288  : 	// 3.  Item Tree .
; 289  : 	DeleteAllItems();

  0027c	8b cf		 mov	 ecx, edi
  0027e	e8 00 00 00 00	 call	 ?DeleteAllItems@CTreeCtrl@@QAEHXZ ; CTreeCtrl::DeleteAllItems

; 290  : 	InitTreeView();

  00283	8b cf		 mov	 ecx, edi
  00285	e8 00 00 00 00	 call	 ?InitTreeView@CMyTreeCtrl@@QAEXXZ ; CMyTreeCtrl::InitTreeView

; 291  : 
; 292  : 	return 0L;

  0028a	e9 1a 02 00 00	 jmp	 $LN43@OnDropChar
$LN74@OnDropChar:

; 236  : 	}

  0028f	ff 70 60	 push	 DWORD PTR [eax+96]
  00292	8b cf		 mov	 ecx, edi
  00294	e8 00 00 00 00	 call	 ?GetFirstVScaleGridType@CMyTreeCtrl@@IAE?AW4SCALEGRIDTYPE@CScaleBaseData@@PAVCChartLink@@@Z ; CMyTreeCtrl::GetFirstVScaleGridType
  00299	56		 push	 esi
  0029a	8b cb		 mov	 ecx, ebx
  0029c	89 46 50	 mov	 DWORD PTR [esi+80], eax
  0029f	e8 00 00 00 00	 call	 ?AddChild@CChartLink@@QAEHPAV1@@Z ; CChartLink::AddChild
  002a4	ff 75 0c	 push	 DWORD PTR _pSource$1$[ebp]
  002a7	8b ce		 mov	 ecx, esi
  002a9	e8 00 00 00 00	 call	 ?AddChild@CChartLink@@QAEHPAV1@@Z ; CChartLink::AddChild

; 284  : 						return 0;
; 285  : 		}
; 286  : 	}
; 287  : 
; 288  : 	// 3.  Item Tree .
; 289  : 	DeleteAllItems();

  002ae	8b cf		 mov	 ecx, edi
  002b0	e8 00 00 00 00	 call	 ?DeleteAllItems@CTreeCtrl@@QAEHXZ ; CTreeCtrl::DeleteAllItems

; 290  : 	InitTreeView();

  002b5	8b cf		 mov	 ecx, edi
  002b7	e8 00 00 00 00	 call	 ?InitTreeView@CMyTreeCtrl@@QAEXXZ ; CMyTreeCtrl::InitTreeView

; 291  : 
; 292  : 	return 0L;

  002bc	e9 e8 01 00 00	 jmp	 $LN43@OnDropChar
$LN93@OnDropChar:

; 224  : 			// (2007/7/2 - Seung-Won, Bae) Do not Support Main Grid Type.
; 225  : 			pVertScale->m_nScaleCompartType = GetFirstVScaleGridType( &m_clChartRoot);
; 226  : 			pTarget->AddChild(pVertScale);
; 227  : 			pVertScale->AddChild(pSource);
; 228  : 		}
; 229  : 		// 2.1.4.2 Graph Vertical Scale   .
; 230  : 		//	( Child .)
; 231  : 		else if(pSource->m_iType == GRAPH && pTarget->m_iType == VERT_SCALE)
; 232  : 			pTarget->AddChild(pSource);

  002c1	8b f3		 mov	 esi, ebx
  002c3	83 f8 02	 cmp	 eax, 2
  002c6	74 03		 je	 SHORT $LN22@OnDropChar
$LN21@OnDropChar:

; 233  : 		// 2.1.4.3   .
; 234  : 		//	(Target Parent Child . )
; 235  : 		else pTarget->m_Parent->AddChild(pSource);

  002c8	8b 73 5c	 mov	 esi, DWORD PTR [ebx+92]
$LN22@OnDropChar:

; 236  : 	}

  002cb	ff 75 0c	 push	 DWORD PTR _pSource$1$[ebp]
  002ce	8b ce		 mov	 ecx, esi
  002d0	e8 00 00 00 00	 call	 ?AddChild@CChartLink@@QAEHPAV1@@Z ; CChartLink::AddChild

; 284  : 						return 0;
; 285  : 		}
; 286  : 	}
; 287  : 
; 288  : 	// 3.  Item Tree .
; 289  : 	DeleteAllItems();

  002d5	8b cf		 mov	 ecx, edi
  002d7	e8 00 00 00 00	 call	 ?DeleteAllItems@CTreeCtrl@@QAEHXZ ; CTreeCtrl::DeleteAllItems

; 290  : 	InitTreeView();

  002dc	8b cf		 mov	 ecx, edi
  002de	e8 00 00 00 00	 call	 ?InitTreeView@CMyTreeCtrl@@QAEXXZ ; CMyTreeCtrl::InitTreeView

; 291  : 
; 292  : 	return 0L;

  002e3	e9 c1 01 00 00	 jmp	 $LN43@OnDropChar
$LN9@OnDropChar:

; 237  : 	else
; 238  : 	{
; 239  : 		// 2.2 Graph Type List Graph   .
; 240  : 		// 2.2.1  Graph ChartLink Object .
; 241  : 		pSource = new CChartLink(NULL, GRAPH, pData->ChartName, m_hOcxWnd);

  002e8	68 b0 00 00 00	 push	 176			; 000000b0H
  002ed	e8 00 00 00 00	 call	 ??2@YAPAXI@Z		; operator new
  002f2	8b d0		 mov	 edx, eax
  002f4	83 c4 04	 add	 esp, 4
  002f7	89 55 f0	 mov	 DWORD PTR $T3[ebp], edx
  002fa	c7 45 fc 02 00
	00 00		 mov	 DWORD PTR __$EHRec$[ebp+8], 2
  00301	85 d2		 test	 edx, edx
  00303	74 1c		 je	 SHORT $LN37@OnDropChar
  00305	ff b7 04 02 00
	00		 push	 DWORD PTR [edi+516]
  0030b	8b 4d 0c	 mov	 ecx, DWORD PTR _lParam$[ebp]
  0030e	83 c1 04	 add	 ecx, 4
  00311	51		 push	 ecx
  00312	6a 03		 push	 3
  00314	6a 00		 push	 0
  00316	8b ca		 mov	 ecx, edx
  00318	e8 00 00 00 00	 call	 ??0CChartLink@@QAE@PAV0@HPADPAUHWND__@@@Z ; CChartLink::CChartLink
  0031d	8b f0		 mov	 esi, eax
  0031f	eb 02		 jmp	 SHORT $LN38@OnDropChar
$LN37@OnDropChar:
  00321	33 f6		 xor	 esi, esi
$LN38@OnDropChar:

; 242  : 		// 2.2.2 Target Item  Type Graph .
; 243  : 		switch( pTarget->m_iType)

  00323	8b 43 10	 mov	 eax, DWORD PTR [ebx+16]
  00326	c7 45 fc ff ff
	ff ff		 mov	 DWORD PTR __$EHRec$[ebp+8], -1
  0032d	83 f8 03	 cmp	 eax, 3
  00330	0f 87 67 01 00
	00		 ja	 $LN29@OnDropChar
  00336	ff 24 85 00 00
	00 00		 jmp	 DWORD PTR $LN99@OnDropChar[eax*4]
$LN23@OnDropChar:

; 244  : 		{
; 245  : 			case ROOT:
; 246  : 			{
; 247  : 				pTarget = m_pChartBlock;

  0033d	8b 87 f0 01 00
	00		 mov	 eax, DWORD PTR [edi+496]

; 248  : 				CChartLink *pVertScale = new CChartLink(NULL, VERT_SCALE, "Vertical Scale", m_hOcxWnd);

  00343	68 b0 00 00 00	 push	 176			; 000000b0H
  00348	89 45 0c	 mov	 DWORD PTR _pTarget$2$[ebp], eax
  0034b	e8 00 00 00 00	 call	 ??2@YAPAXI@Z		; operator new
  00350	83 c4 04	 add	 esp, 4
  00353	89 45 f0	 mov	 DWORD PTR $T2[ebp], eax
  00356	c7 45 fc 03 00
	00 00		 mov	 DWORD PTR __$EHRec$[ebp+8], 3
  0035d	85 c0		 test	 eax, eax
  0035f	74 1a		 je	 SHORT $LN39@OnDropChar
  00361	ff b7 04 02 00
	00		 push	 DWORD PTR [edi+516]
  00367	8b c8		 mov	 ecx, eax
  00369	68 00 00 00 00	 push	 OFFSET ??_C@_0P@ONCIBKJN@Vertical?5Scale@
  0036e	6a 02		 push	 2
  00370	6a 00		 push	 0
  00372	e8 00 00 00 00	 call	 ??0CChartLink@@QAE@PAV0@HPADPAUHWND__@@@Z ; CChartLink::CChartLink
  00377	8b d8		 mov	 ebx, eax
  00379	eb 02		 jmp	 SHORT $LN40@OnDropChar
$LN39@OnDropChar:
  0037b	33 db		 xor	 ebx, ebx
$LN40@OnDropChar:

; 912  : 	if( !p_pLink) return CScaleBaseData::LONGDOTTEDLINE;

  0037d	8d 87 00 01 00
	00		 lea	 eax, DWORD PTR [edi+256]

; 248  : 				CChartLink *pVertScale = new CChartLink(NULL, VERT_SCALE, "Vertical Scale", m_hOcxWnd);

  00383	c7 45 fc ff ff
	ff ff		 mov	 DWORD PTR __$EHRec$[ebp+8], -1

; 912  : 	if( !p_pLink) return CScaleBaseData::LONGDOTTEDLINE;

  0038a	85 c0		 test	 eax, eax
  0038c	75 07		 jne	 SHORT $LN77@OnDropChar
  0038e	b8 01 00 00 00	 mov	 eax, 1
  00393	eb 15		 jmp	 SHORT $LN76@OnDropChar
$LN77@OnDropChar:

; 913  : 
; 914  : 	if( p_pLink->m_iType == VERT_SCALE) return ( CScaleBaseData::SCALEGRIDTYPE)p_pLink->m_nScaleCompartType;

  00395	83 78 10 02	 cmp	 DWORD PTR [eax+16], 2
  00399	75 05		 jne	 SHORT $LN78@OnDropChar
  0039b	8b 40 50	 mov	 eax, DWORD PTR [eax+80]
  0039e	eb 0a		 jmp	 SHORT $LN76@OnDropChar
$LN78@OnDropChar:

; 915  : 	
; 916  : 	return GetFirstVScaleGridType( p_pLink->m_Child);

  003a0	ff 70 60	 push	 DWORD PTR [eax+96]
  003a3	8b cf		 mov	 ecx, edi
  003a5	e8 00 00 00 00	 call	 ?GetFirstVScaleGridType@CMyTreeCtrl@@IAE?AW4SCALEGRIDTYPE@CScaleBaseData@@PAVCChartLink@@@Z ; CMyTreeCtrl::GetFirstVScaleGridType
$LN76@OnDropChar:

; 249  : 				// (2007/7/2 - Seung-Won, Bae) Do not Support Main Grid Type.
; 250  : 				pVertScale->m_nScaleCompartType = GetFirstVScaleGridType( &m_clChartRoot);
; 251  : 				pTarget->AddChild(pVertScale);

  003aa	8b 4d 0c	 mov	 ecx, DWORD PTR _pTarget$2$[ebp]
  003ad	53		 push	 ebx
  003ae	89 43 50	 mov	 DWORD PTR [ebx+80], eax
  003b1	e8 00 00 00 00	 call	 ?AddChild@CChartLink@@QAEHPAV1@@Z ; CChartLink::AddChild

; 252  : 				pVertScale->AddChild(pSource);

  003b6	56		 push	 esi
  003b7	8b cb		 mov	 ecx, ebx
  003b9	e8 00 00 00 00	 call	 ?AddChild@CChartLink@@QAEHPAV1@@Z ; CChartLink::AddChild

; 284  : 						return 0;
; 285  : 		}
; 286  : 	}
; 287  : 
; 288  : 	// 3.  Item Tree .
; 289  : 	DeleteAllItems();

  003be	8b cf		 mov	 ecx, edi
  003c0	e8 00 00 00 00	 call	 ?DeleteAllItems@CTreeCtrl@@QAEHXZ ; CTreeCtrl::DeleteAllItems

; 290  : 	InitTreeView();

  003c5	8b cf		 mov	 ecx, edi
  003c7	e8 00 00 00 00	 call	 ?InitTreeView@CMyTreeCtrl@@QAEXXZ ; CMyTreeCtrl::InitTreeView

; 291  : 
; 292  : 	return 0L;

  003cc	e9 d8 00 00 00	 jmp	 $LN43@OnDropChar
$LN24@OnDropChar:

; 253  : 				break;
; 254  : 			}
; 255  : 			// 2.2.2.2 Block  Vertical Scale , Vertical Scale  .
; 256  : 			case BLOCK:
; 257  : 			{
; 258  : 				CChartLink *pVertScale = new CChartLink(NULL, VERT_SCALE, "Vertical Scale", m_hOcxWnd);

  003d1	68 b0 00 00 00	 push	 176			; 000000b0H
  003d6	e8 00 00 00 00	 call	 ??2@YAPAXI@Z		; operator new
  003db	83 c4 04	 add	 esp, 4
  003de	89 45 0c	 mov	 DWORD PTR $T7[ebp], eax
  003e1	c7 45 fc 04 00
	00 00		 mov	 DWORD PTR __$EHRec$[ebp+8], 4
  003e8	85 c0		 test	 eax, eax
  003ea	74 18		 je	 SHORT $LN41@OnDropChar
  003ec	ff b7 04 02 00
	00		 push	 DWORD PTR [edi+516]
  003f2	8b c8		 mov	 ecx, eax
  003f4	68 00 00 00 00	 push	 OFFSET ??_C@_0P@ONCIBKJN@Vertical?5Scale@
  003f9	6a 02		 push	 2
  003fb	6a 00		 push	 0
  003fd	e8 00 00 00 00	 call	 ??0CChartLink@@QAE@PAV0@HPADPAUHWND__@@@Z ; CChartLink::CChartLink
  00402	eb 02		 jmp	 SHORT $LN103@OnDropChar
$LN41@OnDropChar:
  00404	33 c0		 xor	 eax, eax
$LN103@OnDropChar:
  00406	89 45 0c	 mov	 DWORD PTR $T6[ebp], eax

; 912  : 	if( !p_pLink) return CScaleBaseData::LONGDOTTEDLINE;

  00409	8d 87 00 01 00
	00		 lea	 eax, DWORD PTR [edi+256]

; 253  : 				break;
; 254  : 			}
; 255  : 			// 2.2.2.2 Block  Vertical Scale , Vertical Scale  .
; 256  : 			case BLOCK:
; 257  : 			{
; 258  : 				CChartLink *pVertScale = new CChartLink(NULL, VERT_SCALE, "Vertical Scale", m_hOcxWnd);

  0040f	c7 45 fc ff ff
	ff ff		 mov	 DWORD PTR __$EHRec$[ebp+8], -1

; 912  : 	if( !p_pLink) return CScaleBaseData::LONGDOTTEDLINE;

  00416	85 c0		 test	 eax, eax
  00418	75 05		 jne	 SHORT $LN81@OnDropChar
  0041a	8d 48 01	 lea	 ecx, DWORD PTR [eax+1]
  0041d	eb 17		 jmp	 SHORT $LN80@OnDropChar
$LN81@OnDropChar:

; 913  : 
; 914  : 	if( p_pLink->m_iType == VERT_SCALE) return ( CScaleBaseData::SCALEGRIDTYPE)p_pLink->m_nScaleCompartType;

  0041f	83 78 10 02	 cmp	 DWORD PTR [eax+16], 2
  00423	75 05		 jne	 SHORT $LN82@OnDropChar
  00425	8b 48 50	 mov	 ecx, DWORD PTR [eax+80]
  00428	eb 0c		 jmp	 SHORT $LN80@OnDropChar
$LN82@OnDropChar:

; 915  : 	
; 916  : 	return GetFirstVScaleGridType( p_pLink->m_Child);

  0042a	ff 70 60	 push	 DWORD PTR [eax+96]
  0042d	8b cf		 mov	 ecx, edi
  0042f	e8 00 00 00 00	 call	 ?GetFirstVScaleGridType@CMyTreeCtrl@@IAE?AW4SCALEGRIDTYPE@CScaleBaseData@@PAVCChartLink@@@Z ; CMyTreeCtrl::GetFirstVScaleGridType
  00434	8b c8		 mov	 ecx, eax
$LN80@OnDropChar:

; 259  : 				// (2007/7/2 - Seung-Won, Bae) Do not Support Main Grid Type.
; 260  : 				pVertScale->m_nScaleCompartType = GetFirstVScaleGridType( &m_clChartRoot);

  00436	8b 45 0c	 mov	 eax, DWORD PTR $T6[ebp]

; 261  : 				pTarget->AddChild(pVertScale);

  00439	50		 push	 eax
  0043a	89 48 50	 mov	 DWORD PTR [eax+80], ecx
  0043d	8b cb		 mov	 ecx, ebx
  0043f	e8 00 00 00 00	 call	 ?AddChild@CChartLink@@QAEHPAV1@@Z ; CChartLink::AddChild

; 262  : 				pTarget = pVertScale;

  00444	8b 5d 0c	 mov	 ebx, DWORD PTR $T6[ebp]
$LN25@OnDropChar:

; 263  : 				// () NO BREAK
; 264  : 			}
; 265  : 			case VERT_SCALE:
; 266  : 			{
; 267  : 				if( pTarget->m_Child == NULL)

  00447	83 7b 60 00	 cmp	 DWORD PTR [ebx+96], 0
  0044b	75 16		 jne	 SHORT $LN26@OnDropChar

; 268  : 				{
; 269  : 					pTarget->m_Child = pSource;

  0044d	89 73 60	 mov	 DWORD PTR [ebx+96], esi

; 284  : 						return 0;
; 285  : 		}
; 286  : 	}
; 287  : 
; 288  : 	// 3.  Item Tree .
; 289  : 	DeleteAllItems();

  00450	8b cf		 mov	 ecx, edi
  00452	89 5e 5c	 mov	 DWORD PTR [esi+92], ebx
  00455	e8 00 00 00 00	 call	 ?DeleteAllItems@CTreeCtrl@@QAEHXZ ; CTreeCtrl::DeleteAllItems

; 290  : 	InitTreeView();

  0045a	8b cf		 mov	 ecx, edi
  0045c	e8 00 00 00 00	 call	 ?InitTreeView@CMyTreeCtrl@@QAEXXZ ; CMyTreeCtrl::InitTreeView

; 291  : 
; 292  : 	return 0L;

  00461	eb 46		 jmp	 SHORT $LN43@OnDropChar
$LN26@OnDropChar:

; 270  : 					pSource->m_Parent = pTarget;
; 271  : 				}
; 272  : 				else
; 273  : 				{
; 274  : 					pSource->m_Parent = pTarget;

  00463	89 5e 5c	 mov	 DWORD PTR [esi+92], ebx

; 284  : 						return 0;
; 285  : 		}
; 286  : 	}
; 287  : 
; 288  : 	// 3.  Item Tree .
; 289  : 	DeleteAllItems();

  00466	8b cf		 mov	 ecx, edi
  00468	8b 43 60	 mov	 eax, DWORD PTR [ebx+96]
  0046b	89 46 68	 mov	 DWORD PTR [esi+104], eax
  0046e	8b 43 60	 mov	 eax, DWORD PTR [ebx+96]
  00471	89 70 64	 mov	 DWORD PTR [eax+100], esi
  00474	89 73 60	 mov	 DWORD PTR [ebx+96], esi
  00477	e8 00 00 00 00	 call	 ?DeleteAllItems@CTreeCtrl@@QAEHXZ ; CTreeCtrl::DeleteAllItems

; 290  : 	InitTreeView();

  0047c	8b cf		 mov	 ecx, edi
  0047e	e8 00 00 00 00	 call	 ?InitTreeView@CMyTreeCtrl@@QAEXXZ ; CMyTreeCtrl::InitTreeView

; 291  : 
; 292  : 	return 0L;

  00483	eb 24		 jmp	 SHORT $LN43@OnDropChar
$LN28@OnDropChar:

; 275  : 					pSource->m_Next = pTarget->m_Child;
; 276  : 					pTarget->m_Child->m_Prev = pSource;
; 277  : 					pTarget->m_Child = pSource;
; 278  : 				}
; 279  : 				break;
; 280  : 			}
; 281  : 			case GRAPH:	pTarget->InsertAfterTarget(pSource);

  00485	56		 push	 esi
  00486	8b cb		 mov	 ecx, ebx
  00488	e8 00 00 00 00	 call	 ?InsertAfterTarget@CChartLink@@QAEXPAV1@@Z ; CChartLink::InsertAfterTarget

; 284  : 						return 0;
; 285  : 		}
; 286  : 	}
; 287  : 
; 288  : 	// 3.  Item Tree .
; 289  : 	DeleteAllItems();

  0048d	8b cf		 mov	 ecx, edi
  0048f	e8 00 00 00 00	 call	 ?DeleteAllItems@CTreeCtrl@@QAEHXZ ; CTreeCtrl::DeleteAllItems

; 290  : 	InitTreeView();

  00494	8b cf		 mov	 ecx, edi
  00496	e8 00 00 00 00	 call	 ?InitTreeView@CMyTreeCtrl@@QAEXXZ ; CMyTreeCtrl::InitTreeView

; 291  : 
; 292  : 	return 0L;

  0049b	eb 0c		 jmp	 SHORT $LN43@OnDropChar
$LN29@OnDropChar:

; 282  : 						break;
; 283  : 			default:	delete pSource;

  0049d	85 f6		 test	 esi, esi
  0049f	74 08		 je	 SHORT $LN43@OnDropChar
  004a1	8b 06		 mov	 eax, DWORD PTR [esi]
  004a3	8b ce		 mov	 ecx, esi
  004a5	6a 01		 push	 1
  004a7	ff 10		 call	 DWORD PTR [eax]
$LN43@OnDropChar:

; 293  : }

  004a9	33 c0		 xor	 eax, eax
  004ab	8b 4d f4	 mov	 ecx, DWORD PTR __$EHRec$[ebp]
  004ae	64 89 0d 00 00
	00 00		 mov	 DWORD PTR fs:0, ecx
  004b5	59		 pop	 ecx
  004b6	5f		 pop	 edi
  004b7	5e		 pop	 esi
  004b8	5b		 pop	 ebx
  004b9	8b e5		 mov	 esp, ebp
  004bb	5d		 pop	 ebp
  004bc	c2 08 00	 ret	 8
  004bf	90		 npad	 1
$LN99@OnDropChar:
  004c0	00 00 00 00	 DD	 $LN23@OnDropChar
  004c4	00 00 00 00	 DD	 $LN24@OnDropChar
  004c8	00 00 00 00	 DD	 $LN25@OnDropChar
  004cc	00 00 00 00	 DD	 $LN28@OnDropChar
_TEXT	ENDS
;	COMDAT text$x
text$x	SEGMENT
__unwindfunclet$?OnDropChartData@CMyTreeCtrl@@IAEJIJ@Z$0:
  00000	68 b0 00 00 00	 push	 176			; 000000b0H
  00005	8b 45 f0	 mov	 eax, DWORD PTR $T5[ebp]
  00008	50		 push	 eax
  00009	e8 00 00 00 00	 call	 ??3@YAXPAXI@Z		; operator delete
  0000e	83 c4 08	 add	 esp, 8
  00011	c3		 ret	 0
__unwindfunclet$?OnDropChartData@CMyTreeCtrl@@IAEJIJ@Z$1:
  00012	68 b0 00 00 00	 push	 176			; 000000b0H
  00017	8b 45 f0	 mov	 eax, DWORD PTR $T4[ebp]
  0001a	50		 push	 eax
  0001b	e8 00 00 00 00	 call	 ??3@YAXPAXI@Z		; operator delete
  00020	83 c4 08	 add	 esp, 8
  00023	c3		 ret	 0
__unwindfunclet$?OnDropChartData@CMyTreeCtrl@@IAEJIJ@Z$2:
  00024	68 b0 00 00 00	 push	 176			; 000000b0H
  00029	8b 45 f0	 mov	 eax, DWORD PTR $T3[ebp]
  0002c	50		 push	 eax
  0002d	e8 00 00 00 00	 call	 ??3@YAXPAXI@Z		; operator delete
  00032	83 c4 08	 add	 esp, 8
  00035	c3		 ret	 0
__unwindfunclet$?OnDropChartData@CMyTreeCtrl@@IAEJIJ@Z$3:
  00036	68 b0 00 00 00	 push	 176			; 000000b0H
  0003b	8b 45 f0	 mov	 eax, DWORD PTR $T2[ebp]
  0003e	50		 push	 eax
  0003f	e8 00 00 00 00	 call	 ??3@YAXPAXI@Z		; operator delete
  00044	83 c4 08	 add	 esp, 8
  00047	c3		 ret	 0
__unwindfunclet$?OnDropChartData@CMyTreeCtrl@@IAEJIJ@Z$4:
  00048	68 b0 00 00 00	 push	 176			; 000000b0H
  0004d	8b 45 0c	 mov	 eax, DWORD PTR $T7[ebp]
  00050	50		 push	 eax
  00051	e8 00 00 00 00	 call	 ??3@YAXPAXI@Z		; operator delete
  00056	83 c4 08	 add	 esp, 8
  00059	c3		 ret	 0
  0005a	cc		 int	 3
  0005b	cc		 int	 3
  0005c	cc		 int	 3
  0005d	cc		 int	 3
  0005e	cc		 int	 3
__ehhandler$?OnDropChartData@CMyTreeCtrl@@IAEJIJ@Z:
  0005f	90		 npad	 1
  00060	90		 npad	 1
  00061	8b 54 24 08	 mov	 edx, DWORD PTR [esp+8]
  00065	8d 42 0c	 lea	 eax, DWORD PTR [edx+12]
  00068	8b 4a ec	 mov	 ecx, DWORD PTR [edx-20]
  0006b	33 c8		 xor	 ecx, eax
  0006d	e8 00 00 00 00	 call	 @__security_check_cookie@4
  00072	b8 00 00 00 00	 mov	 eax, OFFSET __ehfuncinfo$?OnDropChartData@CMyTreeCtrl@@IAEJIJ@Z
  00077	e9 00 00 00 00	 jmp	 ___CxxFrameHandler3
text$x	ENDS
?OnDropChartData@CMyTreeCtrl@@IAEJIJ@Z ENDP		; CMyTreeCtrl::OnDropChartData
; Function compile flags: /Ogtp
; File D:\git\src\IBK\IBK_DRFN\ProjSrc\SrcChartEx\ChartAddIn\ChartDesignPropertyAddIn\ChartDesignPropertyAddIn\MyTreeCtrl.cpp
; File C:\Program Files (x86)\Microsoft Visual Studio\2019\Community\VC\Tools\MSVC\14.29.30133\atlmfc\include\afxcmn.inl
; File D:\git\src\IBK\IBK_DRFN\ProjSrc\SrcChartEx\ChartAddIn\ChartDesignPropertyAddIn\ChartDesignPropertyAddIn\MyTreeCtrl.cpp
;	COMDAT ?OnDragChartData@CMyTreeCtrl@@IAEJIJ@Z
_TEXT	SEGMENT
_wParam$ = 8						; size = 4
_uHitTest$ = 12						; size = 4
_lParam$ = 12						; size = 4
?OnDragChartData@CMyTreeCtrl@@IAEJIJ@Z PROC		; CMyTreeCtrl::OnDragChartData, COMDAT
; _this$ = ecx

; 115  : {

  00000	55		 push	 ebp
  00001	8b ec		 mov	 ebp, esp

; 116  : 	// 1. Dragging   Point .
; 117  : 	CPoint point;
; 118  : 	point.x = LOWORD((DWORD)lParam);

  00003	8b 45 0c	 mov	 eax, DWORD PTR _lParam$[ebp]
  00006	56		 push	 esi
  00007	8b f1		 mov	 esi, ecx
  00009	0f b7 d0	 movzx	 edx, ax

; 119  : 	point.y = HIWORD((DWORD)lParam);
; 120  : 
; 121  : 	// 2. Terget Item .
; 122  : 	UINT uHitTest = TVHT_ONITEM;
; 123  : 	m_hTarget = HitTest( point, &uHitTest );

  0000c	8d 4d 0c	 lea	 ecx, DWORD PTR _uHitTest$[ebp]
  0000f	c1 e8 10	 shr	 eax, 16			; 00000010H
  00012	51		 push	 ecx
  00013	50		 push	 eax
  00014	52		 push	 edx
  00015	8b ce		 mov	 ecx, esi
  00017	c7 45 0c 46 00
	00 00		 mov	 DWORD PTR _uHitTest$[ebp], 70 ; 00000046H
  0001e	e8 00 00 00 00	 call	 ?HitTest@CTreeCtrl@@QBEPAU_TREEITEM@@VCPoint@@PAI@Z ; CTreeCtrl::HitTest
  00023	89 86 80 00 00
	00		 mov	 DWORD PTR [esi+128], eax

; 124  : 	if( !m_hTarget) return 0;

  00029	85 c0		 test	 eax, eax
  0002b	74 70		 je	 SHORT $LN15@OnDragChar

; 125  : 
; 126  : 	// 3. Target Item Object .
; 127  : 	CChartLink* pDragItem = m_clChartRoot.Find( m_hTarget);

  0002d	50		 push	 eax
  0002e	8d 8e 00 01 00
	00		 lea	 ecx, DWORD PTR [esi+256]
  00034	e8 00 00 00 00	 call	 ?Find@CChartLink@@QAEPAV1@PAU_TREEITEM@@@Z ; CChartLink::Find
  00039	8b d0		 mov	 edx, eax

; 128  : 	if( !pDragItem) return 0L;

  0003b	85 d2		 test	 edx, edx
  0003d	74 5e		 je	 SHORT $LN15@OnDragChar

; 129  : 
; 130  : 	// 4. Graph Type List Tree Graph Dragging ,
; 131  : 	//		Graph  Target .
; 132  : 	if( !m_pSelectItem || m_pSelectItem->m_iType == GRAPH) SelectDropTarget( m_hTarget);

  0003f	8b 8e fc 01 00
	00		 mov	 ecx, DWORD PTR [esi+508]
  00045	57		 push	 edi
  00046	85 c9		 test	 ecx, ecx
  00048	74 3c		 je	 SHORT $LN6@OnDragChar
  0004a	8b 79 10	 mov	 edi, DWORD PTR [ecx+16]
  0004d	83 ff 03	 cmp	 edi, 3
  00050	74 34		 je	 SHORT $LN6@OnDragChar

; 133  : 
; 134  : 	// 5.   ,  Graph    Type  Group   Target .
; 135  : 	else if( pDragItem->m_Parent == m_pSelectItem->m_Parent && pDragItem->m_iType == m_pSelectItem->m_iType)

  00052	8b 42 5c	 mov	 eax, DWORD PTR [edx+92]
  00055	3b 41 5c	 cmp	 eax, DWORD PTR [ecx+92]
  00058	75 1a		 jne	 SHORT $LN7@OnDragChar
  0005a	39 7a 10	 cmp	 DWORD PTR [edx+16], edi
  0005d	75 15		 jne	 SHORT $LN7@OnDragChar

; 136  : 		SelectDropTarget( m_hTarget);

  0005f	ff b6 80 00 00
	00		 push	 DWORD PTR [esi+128]
  00065	8b ce		 mov	 ecx, esi
  00067	e8 00 00 00 00	 call	 ?SelectDropTarget@CTreeCtrl@@QAEHPAU_TREEITEM@@@Z ; CTreeCtrl::SelectDropTarget
  0006c	5f		 pop	 edi

; 142  : }

  0006d	33 c0		 xor	 eax, eax
  0006f	5e		 pop	 esi
  00070	5d		 pop	 ebp
  00071	c2 08 00	 ret	 8
$LN7@OnDragChar:
  00074	5f		 pop	 edi

; 137  : 
; 138  : 	// 6. Terget    Target Handle Clear.
; 139  : 	else m_hTarget = NULL;

  00075	c7 86 80 00 00
	00 00 00 00 00	 mov	 DWORD PTR [esi+128], 0

; 142  : }

  0007f	33 c0		 xor	 eax, eax
  00081	5e		 pop	 esi
  00082	5d		 pop	 ebp
  00083	c2 08 00	 ret	 8
$LN6@OnDragChar:
; File C:\Program Files (x86)\Microsoft Visual Studio\2019\Community\VC\Tools\MSVC\14.29.30133\atlmfc\include\afxcmn.inl

; 328  : 	{ ASSERT(::IsWindow(m_hWnd)); return (BOOL) ::SendMessage(m_hWnd, TVM_SELECTITEM, TVGN_DROPHILITE, (LPARAM)hItem); }

  00086	ff b6 80 00 00
	00		 push	 DWORD PTR [esi+128]
  0008c	6a 08		 push	 8
  0008e	68 0b 11 00 00	 push	 4363			; 0000110bH
  00093	ff 76 20	 push	 DWORD PTR [esi+32]
  00096	ff 15 00 00 00
	00		 call	 DWORD PTR __imp__SendMessageA@16
  0009c	5f		 pop	 edi
$LN15@OnDragChar:
; File D:\git\src\IBK\IBK_DRFN\ProjSrc\SrcChartEx\ChartAddIn\ChartDesignPropertyAddIn\ChartDesignPropertyAddIn\MyTreeCtrl.cpp

; 142  : }

  0009d	33 c0		 xor	 eax, eax
  0009f	5e		 pop	 esi
  000a0	5d		 pop	 ebp
  000a1	c2 08 00	 ret	 8
?OnDragChartData@CMyTreeCtrl@@IAEJIJ@Z ENDP		; CMyTreeCtrl::OnDragChartData
_TEXT	ENDS
; Function compile flags: /Ogtp
; File D:\git\src\IBK\IBK_DRFN\ProjSrc\SrcChartEx\ChartAddIn\ChartDesignPropertyAddIn\ChartDesignPropertyAddIn\MyTreeCtrl.cpp
; File C:\Program Files (x86)\Microsoft Visual Studio\2019\Community\VC\Tools\MSVC\14.29.30133\atlmfc\include\afxcmn.inl
; File D:\git\src\IBK\IBK_DRFN\ProjSrc\SrcChartEx\ChartAddIn\ChartDesignPropertyAddIn\ChartDesignPropertyAddIn\MyTreeCtrl.cpp
; File C:\Program Files (x86)\Microsoft Visual Studio\2019\Community\VC\Tools\MSVC\14.29.30133\atlmfc\include\afxwin1.inl
; File D:\git\src\IBK\IBK_DRFN\ProjSrc\SrcChartEx\ChartAddIn\ChartDesignPropertyAddIn\Include_Chart\Dll_Load\IMetaTable.h
; File C:\Program Files (x86)\Microsoft Visual Studio\2019\Community\VC\Tools\MSVC\14.29.30133\atlmfc\include\afxwin1.inl
; File D:\git\src\IBK\IBK_DRFN\ProjSrc\SrcChartEx\ChartAddIn\ChartDesignPropertyAddIn\ChartDesignPropertyAddIn\MyTreeCtrl.cpp
; File D:\git\src\IBK\IBK_DRFN\ProjSrc\SrcChartEx\ChartAddIn\ChartDesignPropertyAddIn\Include_Chart\Dll_Load\IMetaTable.h
; File C:\Program Files (x86)\Microsoft Visual Studio\2019\Community\VC\Tools\MSVC\14.29.30133\atlmfc\include\afxwin1.inl
; File D:\git\src\IBK\IBK_DRFN\ProjSrc\SrcChartEx\ChartAddIn\ChartDesignPropertyAddIn\ChartDesignPropertyAddIn\MyTreeCtrl.cpp
;	COMDAT ?OnChartinvert@CMyTreeCtrl@@IAEXXZ
_TEXT	SEGMENT
_dlg$ = -192						; size = 176
___mlrs__$ = -16					; size = 4
__$EHRec$ = -12						; size = 12
?OnChartinvert@CMyTreeCtrl@@IAEXXZ PROC			; CMyTreeCtrl::OnChartinvert, COMDAT
; _this$ = ecx

; 867  : {

  00000	55		 push	 ebp
  00001	8b ec		 mov	 ebp, esp
  00003	6a ff		 push	 -1
  00005	68 00 00 00 00	 push	 __ehhandler$?OnChartinvert@CMyTreeCtrl@@IAEXXZ
  0000a	64 a1 00 00 00
	00		 mov	 eax, DWORD PTR fs:0
  00010	50		 push	 eax
  00011	81 ec b4 00 00
	00		 sub	 esp, 180		; 000000b4H
  00017	53		 push	 ebx
  00018	56		 push	 esi
  00019	57		 push	 edi
  0001a	a1 00 00 00 00	 mov	 eax, DWORD PTR ___security_cookie
  0001f	33 c5		 xor	 eax, ebp
  00021	50		 push	 eax
  00022	8d 45 f4	 lea	 eax, DWORD PTR __$EHRec$[ebp]
  00025	64 a3 00 00 00
	00		 mov	 DWORD PTR fs:0, eax
  0002b	8b f1		 mov	 esi, ecx
; File C:\Program Files (x86)\Microsoft Visual Studio\2019\Community\VC\Tools\MSVC\14.29.30133\atlmfc\include\afxcmn.inl

; 316  : 	{ ASSERT(::IsWindow(m_hWnd)); return (HTREEITEM)::SendMessage(m_hWnd, TVM_GETNEXTITEM, TVGN_CARET, 0); }

  0002d	6a 00		 push	 0
  0002f	6a 09		 push	 9
  00031	68 0a 11 00 00	 push	 4362			; 0000110aH
  00036	ff 76 20	 push	 DWORD PTR [esi+32]
  00039	ff 15 00 00 00
	00		 call	 DWORD PTR __imp__SendMessageA@16
; File D:\git\src\IBK\IBK_DRFN\ProjSrc\SrcChartEx\ChartAddIn\ChartDesignPropertyAddIn\ChartDesignPropertyAddIn\MyTreeCtrl.cpp

; 869  : 	if(hItem == NULL) return;

  0003f	85 c0		 test	 eax, eax
  00041	74 7e		 je	 SHORT $LN19@OnChartinv

; 870  : 
; 871  : 	CChartLink *pItem = m_clChartRoot.Find(hItem);

  00043	50		 push	 eax
  00044	8d 8e 00 01 00
	00		 lea	 ecx, DWORD PTR [esi+256]
  0004a	e8 00 00 00 00	 call	 ?Find@CChartLink@@QAEPAV1@PAU_TREEITEM@@@Z ; CChartLink::Find
  0004f	8b d8		 mov	 ebx, eax

; 872  : 	if(pItem == NULL) return;

  00051	85 db		 test	 ebx, ebx
  00053	74 6c		 je	 SHORT $LN19@OnChartinv

; 873  : 
; 874  : 	ML_SET_LANGUAGE_RES();

  00055	e8 00 00 00 00	 call	 ?AfxGetStaticModuleState@@YGPAVAFX_MODULE_STATE@@XZ ; AfxGetStaticModuleState
  0005a	8b 48 08	 mov	 ecx, DWORD PTR [eax+8]
  0005d	51		 push	 ecx
  0005e	ff b6 04 02 00
	00		 push	 DWORD PTR [esi+516]
  00064	b9 00 00 00 00	 mov	 ecx, OFFSET ?g_iMetaTable@@3VIMetaTable@@A ; g_iMetaTable
  00069	e8 00 00 00 00	 call	 ?LoadResourceDLL@IMetaTable@@QAEPAUHINSTANCE__@@PAUHWND__@@PAU2@@Z ; IMetaTable::LoadResourceDLL
  0006e	8b f8		 mov	 edi, eax
; File C:\Program Files (x86)\Microsoft Visual Studio\2019\Community\VC\Tools\MSVC\14.29.30133\atlmfc\include\afxwin1.inl

; 25   : 		return afxCurrentResourceHandle; }

  00070	e8 00 00 00 00	 call	 ?AfxGetModuleState@@YGPAVAFX_MODULE_STATE@@XZ ; AfxGetModuleState
; File D:\git\src\IBK\IBK_DRFN\ProjSrc\SrcChartEx\ChartAddIn\ChartDesignPropertyAddIn\Include_Chart\Dll_Load\IMetaTable.h

; 1032 : 		m_hInstance = AfxGetResourceHandle();

  00075	8b 70 0c	 mov	 esi, DWORD PTR [eax+12]
  00078	89 75 f0	 mov	 DWORD PTR ___mlrs__$[ebp], esi
; File C:\Program Files (x86)\Microsoft Visual Studio\2019\Community\VC\Tools\MSVC\14.29.30133\atlmfc\include\afxwin1.inl

; 27   : 	{ ASSERT(hInstResource != NULL); afxCurrentResourceHandle = hInstResource; }

  0007b	e8 00 00 00 00	 call	 ?AfxGetModuleState@@YGPAVAFX_MODULE_STATE@@XZ ; AfxGetModuleState
  00080	89 78 0c	 mov	 DWORD PTR [eax+12], edi
; File D:\git\src\IBK\IBK_DRFN\ProjSrc\SrcChartEx\ChartAddIn\ChartDesignPropertyAddIn\ChartDesignPropertyAddIn\MyTreeCtrl.cpp

; 875  : 	CDlgChartInvertSetting dlg( pItem);

  00083	6a 00		 push	 0
  00085	53		 push	 ebx
  00086	8d 8d 40 ff ff
	ff		 lea	 ecx, DWORD PTR _dlg$[ebp]
  0008c	c7 45 fc 00 00
	00 00		 mov	 DWORD PTR __$EHRec$[ebp+8], 0
  00093	e8 00 00 00 00	 call	 ??0CDlgChartInvertSetting@@QAE@PAVCChartLink@@PAVCWnd@@@Z ; CDlgChartInvertSetting::CDlgChartInvertSetting

; 876  : 	dlg.DoModal();

  00098	8d 8d 40 ff ff
	ff		 lea	 ecx, DWORD PTR _dlg$[ebp]
  0009e	c6 45 fc 01	 mov	 BYTE PTR __$EHRec$[ebp+8], 1
  000a2	e8 00 00 00 00	 call	 ?DoModal@CDialog@@UAEHXZ ; CDialog::DoModal
  000a7	8d 8d 40 ff ff
	ff		 lea	 ecx, DWORD PTR _dlg$[ebp]
  000ad	e8 00 00 00 00	 call	 ??1CDialog@@UAE@XZ	; CDialog::~CDialog
; File D:\git\src\IBK\IBK_DRFN\ProjSrc\SrcChartEx\ChartAddIn\ChartDesignPropertyAddIn\Include_Chart\Dll_Load\IMetaTable.h

; 1036 : 	{

  000b2	c7 45 fc 02 00
	00 00		 mov	 DWORD PTR __$EHRec$[ebp+8], 2
; File C:\Program Files (x86)\Microsoft Visual Studio\2019\Community\VC\Tools\MSVC\14.29.30133\atlmfc\include\afxwin1.inl

; 27   : 	{ ASSERT(hInstResource != NULL); afxCurrentResourceHandle = hInstResource; }

  000b9	e8 00 00 00 00	 call	 ?AfxGetModuleState@@YGPAVAFX_MODULE_STATE@@XZ ; AfxGetModuleState
  000be	89 70 0c	 mov	 DWORD PTR [eax+12], esi
$LN19@OnChartinv:
; File D:\git\src\IBK\IBK_DRFN\ProjSrc\SrcChartEx\ChartAddIn\ChartDesignPropertyAddIn\ChartDesignPropertyAddIn\MyTreeCtrl.cpp

; 877  : }

  000c1	8b 4d f4	 mov	 ecx, DWORD PTR __$EHRec$[ebp]
  000c4	64 89 0d 00 00
	00 00		 mov	 DWORD PTR fs:0, ecx
  000cb	59		 pop	 ecx
  000cc	5f		 pop	 edi
  000cd	5e		 pop	 esi
  000ce	5b		 pop	 ebx
  000cf	8b e5		 mov	 esp, ebp
  000d1	5d		 pop	 ebp
  000d2	c3		 ret	 0
_TEXT	ENDS
;	COMDAT text$x
text$x	SEGMENT
__unwindfunclet$?OnChartinvert@CMyTreeCtrl@@IAEXXZ$0:
  00000	8d 4d f0	 lea	 ecx, DWORD PTR ___mlrs__$[ebp]
  00003	e9 00 00 00 00	 jmp	 ??1CMultiLanguageResourceSetter@@QAE@XZ ; CMultiLanguageResourceSetter::~CMultiLanguageResourceSetter
__unwindfunclet$?OnChartinvert@CMyTreeCtrl@@IAEXXZ$1:
  00008	8d 8d 40 ff ff
	ff		 lea	 ecx, DWORD PTR _dlg$[ebp]
  0000e	e9 00 00 00 00	 jmp	 ??1CDlgChartInvertSetting@@UAE@XZ
  00013	cc		 int	 3
  00014	cc		 int	 3
  00015	cc		 int	 3
  00016	cc		 int	 3
  00017	cc		 int	 3
__ehhandler$?OnChartinvert@CMyTreeCtrl@@IAEXXZ:
  00018	90		 npad	 1
  00019	90		 npad	 1
  0001a	8b 54 24 08	 mov	 edx, DWORD PTR [esp+8]
  0001e	8d 42 0c	 lea	 eax, DWORD PTR [edx+12]
  00021	8b 8a 3c ff ff
	ff		 mov	 ecx, DWORD PTR [edx-196]
  00027	33 c8		 xor	 ecx, eax
  00029	e8 00 00 00 00	 call	 @__security_check_cookie@4
  0002e	b8 00 00 00 00	 mov	 eax, OFFSET __ehfuncinfo$?OnChartinvert@CMyTreeCtrl@@IAEXXZ
  00033	e9 00 00 00 00	 jmp	 ___CxxFrameHandler3
text$x	ENDS
?OnChartinvert@CMyTreeCtrl@@IAEXXZ ENDP			; CMyTreeCtrl::OnChartinvert
; Function compile flags: /Ogtp
; File D:\git\src\IBK\IBK_DRFN\ProjSrc\SrcChartEx\ChartAddIn\ChartDesignPropertyAddIn\ChartDesignPropertyAddIn\MyTreeCtrl.cpp
; File C:\Program Files (x86)\Microsoft Visual Studio\2019\Community\VC\Tools\MSVC\14.29.30133\atlmfc\include\afxwin2.inl
; File D:\git\src\IBK\IBK_DRFN\ProjSrc\SrcChartEx\ChartAddIn\ChartDesignPropertyAddIn\ChartDesignPropertyAddIn\MyTreeCtrl.cpp
; File C:\Program Files (x86)\Microsoft Visual Studio\2019\Community\VC\Tools\MSVC\14.29.30133\atlmfc\include\afxcmn.inl
; File D:\git\src\IBK\IBK_DRFN\ProjSrc\SrcChartEx\ChartAddIn\ChartDesignPropertyAddIn\ChartDesignPropertyAddIn\MyTreeCtrl.cpp
;	COMDAT ?OnCreate@CMyTreeCtrl@@IAEHPAUtagCREATESTRUCTA@@@Z
_TEXT	SEGMENT
_lpCreateStruct$ = 8					; size = 4
?OnCreate@CMyTreeCtrl@@IAEHPAUtagCREATESTRUCTA@@@Z PROC	; CMyTreeCtrl::OnCreate, COMDAT
; _this$ = ecx

; 855  : {

  00000	56		 push	 esi
  00001	8b f1		 mov	 esi, ecx
; File C:\Program Files (x86)\Microsoft Visual Studio\2019\Community\VC\Tools\MSVC\14.29.30133\atlmfc\include\afxwin2.inl

; 296  : 	{ return (int)Default(); }

  00003	e8 00 00 00 00	 call	 ?Default@CWnd@@IAEJXZ	; CWnd::Default
; File D:\git\src\IBK\IBK_DRFN\ProjSrc\SrcChartEx\ChartAddIn\ChartDesignPropertyAddIn\ChartDesignPropertyAddIn\MyTreeCtrl.cpp

; 856  : 	if (CTreeCtrl::OnCreate(lpCreateStruct) == -1)

  00008	83 f8 ff	 cmp	 eax, -1
  0000b	75 06		 jne	 SHORT $LN2@OnCreate

; 857  : 		return -1;

  0000d	0b c0		 or	 eax, eax
  0000f	5e		 pop	 esi

; 863  : }

  00010	c2 04 00	 ret	 4
$LN2@OnCreate:
; File C:\Program Files (x86)\Microsoft Visual Studio\2019\Community\VC\Tools\MSVC\14.29.30133\atlmfc\include\afxcmn.inl

; 277  : 	{ ASSERT(::IsWindow(m_hWnd)); return (BOOL)::SendMessage(m_hWnd, TVM_DELETEITEM, 0, (LPARAM)TVI_ROOT); }

  00013	68 00 00 ff ff	 push	 -65536			; ffff0000H
  00018	6a 00		 push	 0
  0001a	68 01 11 00 00	 push	 4353			; 00001101H
  0001f	ff 76 20	 push	 DWORD PTR [esi+32]
  00022	ff 15 00 00 00
	00		 call	 DWORD PTR __imp__SendMessageA@16
; File D:\git\src\IBK\IBK_DRFN\ProjSrc\SrcChartEx\ChartAddIn\ChartDesignPropertyAddIn\ChartDesignPropertyAddIn\MyTreeCtrl.cpp

; 860  : 	InitTreeView();	

  00028	8b ce		 mov	 ecx, esi
  0002a	e8 00 00 00 00	 call	 ?InitTreeView@CMyTreeCtrl@@QAEXXZ ; CMyTreeCtrl::InitTreeView

; 861  : 	
; 862  : 	return 0;

  0002f	33 c0		 xor	 eax, eax
  00031	5e		 pop	 esi

; 863  : }

  00032	c2 04 00	 ret	 4
?OnCreate@CMyTreeCtrl@@IAEHPAUtagCREATESTRUCTA@@@Z ENDP	; CMyTreeCtrl::OnCreate
_TEXT	ENDS
; Function compile flags: /Ogtp
; File D:\git\src\IBK\IBK_DRFN\ProjSrc\SrcChartEx\ChartAddIn\ChartDesignPropertyAddIn\ChartDesignPropertyAddIn\MyTreeCtrl.cpp
; File C:\Program Files (x86)\Microsoft Visual Studio\2019\Community\VC\Tools\MSVC\14.29.30133\atlmfc\include\afxcmn.inl
; File D:\git\src\IBK\IBK_DRFN\ProjSrc\SrcChartEx\ChartAddIn\ChartDesignPropertyAddIn\ChartDesignPropertyAddIn\MyTreeCtrl.cpp
; File C:\Program Files (x86)\Microsoft Visual Studio\2019\Community\VC\Tools\MSVC\14.29.30133\atlmfc\include\afxcmn.inl
; File D:\git\src\IBK\IBK_DRFN\ProjSrc\SrcChartEx\ChartAddIn\ChartDesignPropertyAddIn\ChartDesignPropertyAddIn\MyTreeCtrl.cpp
;	COMDAT ?OnVertDelete@CMyTreeCtrl@@IAEXXZ
_TEXT	SEGMENT
?OnVertDelete@CMyTreeCtrl@@IAEXXZ PROC			; CMyTreeCtrl::OnVertDelete, COMDAT
; _this$ = ecx

; 806  : {

  00000	56		 push	 esi
; File C:\Program Files (x86)\Microsoft Visual Studio\2019\Community\VC\Tools\MSVC\14.29.30133\atlmfc\include\afxcmn.inl

; 316  : 	{ ASSERT(::IsWindow(m_hWnd)); return (HTREEITEM)::SendMessage(m_hWnd, TVM_GETNEXTITEM, TVGN_CARET, 0); }

  00001	6a 00		 push	 0
; File D:\git\src\IBK\IBK_DRFN\ProjSrc\SrcChartEx\ChartAddIn\ChartDesignPropertyAddIn\ChartDesignPropertyAddIn\MyTreeCtrl.cpp

; 806  : {

  00003	8b f1		 mov	 esi, ecx
; File C:\Program Files (x86)\Microsoft Visual Studio\2019\Community\VC\Tools\MSVC\14.29.30133\atlmfc\include\afxcmn.inl

; 316  : 	{ ASSERT(::IsWindow(m_hWnd)); return (HTREEITEM)::SendMessage(m_hWnd, TVM_GETNEXTITEM, TVGN_CARET, 0); }

  00005	6a 09		 push	 9
  00007	68 0a 11 00 00	 push	 4362			; 0000110aH
  0000c	ff 76 20	 push	 DWORD PTR [esi+32]
  0000f	ff 15 00 00 00
	00		 call	 DWORD PTR __imp__SendMessageA@16
; File D:\git\src\IBK\IBK_DRFN\ProjSrc\SrcChartEx\ChartAddIn\ChartDesignPropertyAddIn\ChartDesignPropertyAddIn\MyTreeCtrl.cpp

; 808  : 	if(hItem == NULL) return;

  00015	85 c0		 test	 eax, eax
  00017	74 1e		 je	 SHORT $LN1@OnVertDele

; 809  : 	CChartLink *pItem = m_clChartRoot.Find(hItem);

  00019	50		 push	 eax
  0001a	8d 8e 00 01 00
	00		 lea	 ecx, DWORD PTR [esi+256]
  00020	e8 00 00 00 00	 call	 ?Find@CChartLink@@QAEPAV1@PAU_TREEITEM@@@Z ; CChartLink::Find

; 810  : 	if(pItem == NULL) return;

  00025	85 c0		 test	 eax, eax
  00027	74 0e		 je	 SHORT $LN1@OnVertDele

; 811  : 	if(pItem->m_iType == ROOT) return;

  00029	83 78 10 00	 cmp	 DWORD PTR [eax+16], 0
  0002d	74 08		 je	 SHORT $LN1@OnVertDele

; 812  : 
; 813  : 	//child  delete
; 814  : 	OnDeleteVertScale(pItem);

  0002f	50		 push	 eax
  00030	8b ce		 mov	 ecx, esi
  00032	e8 00 00 00 00	 call	 ?OnDeleteVertScale@CMyTreeCtrl@@AAEXPAVCChartLink@@@Z ; CMyTreeCtrl::OnDeleteVertScale
$LN1@OnVertDele:

; 815  : }

  00037	5e		 pop	 esi
  00038	c3		 ret	 0
?OnVertDelete@CMyTreeCtrl@@IAEXXZ ENDP			; CMyTreeCtrl::OnVertDelete
_TEXT	ENDS
; Function compile flags: /Ogtp
; File D:\git\src\IBK\IBK_DRFN\ProjSrc\SrcChartEx\ChartAddIn\ChartDesignPropertyAddIn\ChartDesignPropertyAddIn\MyTreeCtrl.cpp
; File C:\Program Files (x86)\Microsoft Visual Studio\2019\Community\VC\Tools\MSVC\14.29.30133\atlmfc\include\afxcmn.inl
; File D:\git\src\IBK\IBK_DRFN\ProjSrc\SrcChartEx\ChartAddIn\ChartDesignPropertyAddIn\ChartDesignPropertyAddIn\MyTreeCtrl.cpp
; File C:\Program Files (x86)\Microsoft Visual Studio\2019\Community\VC\Tools\MSVC\14.29.30133\atlmfc\include\afxwin1.inl
; File D:\git\src\IBK\IBK_DRFN\ProjSrc\SrcChartEx\ChartAddIn\ChartDesignPropertyAddIn\Include_Chart\Dll_Load\IMetaTable.h
; File C:\Program Files (x86)\Microsoft Visual Studio\2019\Community\VC\Tools\MSVC\14.29.30133\atlmfc\include\afxwin1.inl
; File D:\git\src\IBK\IBK_DRFN\ProjSrc\SrcChartEx\ChartAddIn\ChartDesignPropertyAddIn\ChartDesignPropertyAddIn\MyTreeCtrl.cpp
; File D:\git\src\IBK\IBK_DRFN\ProjSrc\SrcChartEx\ChartAddIn\ChartDesignPropertyAddIn\Include_Chart\Dll_Load\IMetaTable.h
; File C:\Program Files (x86)\Microsoft Visual Studio\2019\Community\VC\Tools\MSVC\14.29.30133\atlmfc\include\afxwin1.inl
; File D:\git\src\IBK\IBK_DRFN\ProjSrc\SrcChartEx\ChartAddIn\ChartDesignPropertyAddIn\ChartDesignPropertyAddIn\MyTreeCtrl.cpp
;	COMDAT ?OnVertScale@CMyTreeCtrl@@IAEXXZ
_TEXT	SEGMENT
_dlgBlockVerticalScale$ = -436				; size = 416
___mlrs__$ = -20					; size = 4
_this$1$ = -16						; size = 4
__$EHRec$ = -12						; size = 12
?OnVertScale@CMyTreeCtrl@@IAEXXZ PROC			; CMyTreeCtrl::OnVertScale, COMDAT
; _this$ = ecx

; 713  : {

  00000	55		 push	 ebp
  00001	8b ec		 mov	 ebp, esp
  00003	6a ff		 push	 -1
  00005	68 00 00 00 00	 push	 __ehhandler$?OnVertScale@CMyTreeCtrl@@IAEXXZ
  0000a	64 a1 00 00 00
	00		 mov	 eax, DWORD PTR fs:0
  00010	50		 push	 eax
  00011	81 ec a8 01 00
	00		 sub	 esp, 424		; 000001a8H
  00017	53		 push	 ebx
  00018	56		 push	 esi
  00019	57		 push	 edi
  0001a	a1 00 00 00 00	 mov	 eax, DWORD PTR ___security_cookie
  0001f	33 c5		 xor	 eax, ebp
  00021	50		 push	 eax
  00022	8d 45 f4	 lea	 eax, DWORD PTR __$EHRec$[ebp]
  00025	64 a3 00 00 00
	00		 mov	 DWORD PTR fs:0, eax
  0002b	8b f1		 mov	 esi, ecx
  0002d	89 75 f0	 mov	 DWORD PTR _this$1$[ebp], esi
; File C:\Program Files (x86)\Microsoft Visual Studio\2019\Community\VC\Tools\MSVC\14.29.30133\atlmfc\include\afxcmn.inl

; 316  : 	{ ASSERT(::IsWindow(m_hWnd)); return (HTREEITEM)::SendMessage(m_hWnd, TVM_GETNEXTITEM, TVGN_CARET, 0); }

  00030	6a 00		 push	 0
  00032	6a 09		 push	 9
  00034	68 0a 11 00 00	 push	 4362			; 0000110aH
  00039	ff 76 20	 push	 DWORD PTR [esi+32]
  0003c	ff 15 00 00 00
	00		 call	 DWORD PTR __imp__SendMessageA@16
; File D:\git\src\IBK\IBK_DRFN\ProjSrc\SrcChartEx\ChartAddIn\ChartDesignPropertyAddIn\ChartDesignPropertyAddIn\MyTreeCtrl.cpp

; 715  : 	if(hItem == NULL) return;

  00042	85 c0		 test	 eax, eax
  00044	0f 84 43 01 00
	00		 je	 $LN20@OnVertScal

; 716  : 	CChartLink *pItem = m_clChartRoot.Find(hItem);

  0004a	50		 push	 eax
  0004b	8d 8e 00 01 00
	00		 lea	 ecx, DWORD PTR [esi+256]
  00051	e8 00 00 00 00	 call	 ?Find@CChartLink@@QAEPAV1@PAU_TREEITEM@@@Z ; CChartLink::Find
  00056	8b d8		 mov	 ebx, eax

; 717  : 	if(pItem == NULL) return;

  00058	85 db		 test	 ebx, ebx
  0005a	0f 84 2d 01 00
	00		 je	 $LN20@OnVertScal

; 718  : 
; 719  : 	ML_SET_LANGUAGE_RES();

  00060	e8 00 00 00 00	 call	 ?AfxGetStaticModuleState@@YGPAVAFX_MODULE_STATE@@XZ ; AfxGetStaticModuleState
  00065	8b 48 08	 mov	 ecx, DWORD PTR [eax+8]
  00068	51		 push	 ecx
  00069	ff b6 04 02 00
	00		 push	 DWORD PTR [esi+516]
  0006f	b9 00 00 00 00	 mov	 ecx, OFFSET ?g_iMetaTable@@3VIMetaTable@@A ; g_iMetaTable
  00074	e8 00 00 00 00	 call	 ?LoadResourceDLL@IMetaTable@@QAEPAUHINSTANCE__@@PAUHWND__@@PAU2@@Z ; IMetaTable::LoadResourceDLL
  00079	8b f8		 mov	 edi, eax
; File C:\Program Files (x86)\Microsoft Visual Studio\2019\Community\VC\Tools\MSVC\14.29.30133\atlmfc\include\afxwin1.inl

; 25   : 		return afxCurrentResourceHandle; }

  0007b	e8 00 00 00 00	 call	 ?AfxGetModuleState@@YGPAVAFX_MODULE_STATE@@XZ ; AfxGetModuleState
; File D:\git\src\IBK\IBK_DRFN\ProjSrc\SrcChartEx\ChartAddIn\ChartDesignPropertyAddIn\Include_Chart\Dll_Load\IMetaTable.h

; 1032 : 		m_hInstance = AfxGetResourceHandle();

  00080	8b 70 0c	 mov	 esi, DWORD PTR [eax+12]
  00083	89 75 ec	 mov	 DWORD PTR ___mlrs__$[ebp], esi
; File C:\Program Files (x86)\Microsoft Visual Studio\2019\Community\VC\Tools\MSVC\14.29.30133\atlmfc\include\afxwin1.inl

; 27   : 	{ ASSERT(hInstResource != NULL); afxCurrentResourceHandle = hInstResource; }

  00086	e8 00 00 00 00	 call	 ?AfxGetModuleState@@YGPAVAFX_MODULE_STATE@@XZ ; AfxGetModuleState
  0008b	89 78 0c	 mov	 DWORD PTR [eax+12], edi
; File D:\git\src\IBK\IBK_DRFN\ProjSrc\SrcChartEx\ChartAddIn\ChartDesignPropertyAddIn\ChartDesignPropertyAddIn\MyTreeCtrl.cpp

; 720  : 	CDlgBlockVerticalScale dlgBlockVerticalScale(pItem, m_hOcxWnd);

  0008e	8b 7d f0	 mov	 edi, DWORD PTR _this$1$[ebp]
  00091	8d 8d 4c fe ff
	ff		 lea	 ecx, DWORD PTR _dlgBlockVerticalScale$[ebp]
  00097	6a 00		 push	 0
  00099	c7 45 fc 00 00
	00 00		 mov	 DWORD PTR __$EHRec$[ebp+8], 0
  000a0	ff b7 04 02 00
	00		 push	 DWORD PTR [edi+516]
  000a6	53		 push	 ebx
  000a7	e8 00 00 00 00	 call	 ??0CDlgBlockVerticalScale@@QAE@PAVCChartLink@@PAUHWND__@@PAVCWnd@@@Z ; CDlgBlockVerticalScale::CDlgBlockVerticalScale

; 721  : 	dlgBlockVerticalScale.SetAllItemInfoOfPacketPage(m_strAllItemInfoOfPacketPage);

  000ac	8d 87 ec 01 00
	00		 lea	 eax, DWORD PTR [edi+492]
  000b2	c6 45 fc 01	 mov	 BYTE PTR __$EHRec$[ebp+8], 1
  000b6	50		 push	 eax
  000b7	8d 8d 4c fe ff
	ff		 lea	 ecx, DWORD PTR _dlgBlockVerticalScale$[ebp]
  000bd	e8 00 00 00 00	 call	 ?SetAllItemInfoOfPacketPage@CDlgBlockVerticalScale@@QAEXABV?$CStringT@DV?$StrTraitMFC_DLL@DV?$ChTraitsCRT@D@ATL@@@@@ATL@@@Z ; CDlgBlockVerticalScale::SetAllItemInfoOfPacketPage

; 722  : 
; 723  : 	if(dlgBlockVerticalScale.DoModal() == IDOK)

  000c2	8d 8d 4c fe ff
	ff		 lea	 ecx, DWORD PTR _dlgBlockVerticalScale$[ebp]
  000c8	e8 00 00 00 00	 call	 ?DoModal@CDialog@@UAEHXZ ; CDialog::DoModal
  000cd	83 f8 01	 cmp	 eax, 1
  000d0	0f 85 80 00 00
	00		 jne	 $LN4@OnVertScal

; 724  : 	{
; 725  : 		pItem->m_nScalePosition = dlgBlockVerticalScale.m_nScalePosition;

  000d6	8b 45 8c	 mov	 eax, DWORD PTR _dlgBlockVerticalScale$[ebp+320]

; 726  : 		pItem->m_strScaleStyle = dlgBlockVerticalScale.m_strScaleData; 

  000d9	8d 4b 58	 lea	 ecx, DWORD PTR [ebx+88]
  000dc	89 43 20	 mov	 DWORD PTR [ebx+32], eax
  000df	8d 45 90	 lea	 eax, DWORD PTR _dlgBlockVerticalScale$[ebp+324]
  000e2	50		 push	 eax
  000e3	ff 15 00 00 00
	00		 call	 DWORD PTR __imp_??4?$CStringT@DV?$StrTraitMFC_DLL@DV?$ChTraitsCRT@D@ATL@@@@@ATL@@QAEAAV01@ABV01@@Z

; 727  : 		pItem->m_nScaleCompartType = dlgBlockVerticalScale.m_nScaleCompartType;

  000e9	8b 45 94	 mov	 eax, DWORD PTR _dlgBlockVerticalScale$[ebp+328]
  000ec	89 43 50	 mov	 DWORD PTR [ebx+80], eax

; 728  : 		pItem->m_nScaleExpressionType = dlgBlockVerticalScale.m_nScaleExpressionType;

  000ef	8b 45 98	 mov	 eax, DWORD PTR _dlgBlockVerticalScale$[ebp+332]
  000f2	89 43 54	 mov	 DWORD PTR [ebx+84], eax

; 729  : 
; 730  : 		// (2006/11/11 - Seung-Won, Bae) Min/Max Setting
; 731  : 		pItem->m_bMinMaxLock	= dlgBlockVerticalScale.m_bMinMaxLock;

  000f5	8b 45 b4	 mov	 eax, DWORD PTR _dlgBlockVerticalScale$[ebp+360]
  000f8	89 43 6c	 mov	 DWORD PTR [ebx+108], eax

; 732  : 		pItem->m_eMinMaxType	= ( CScaleBaseData::VERTMINMAXTYPE)dlgBlockVerticalScale.m_nMinMaxType;

  000fb	8b 45 9c	 mov	 eax, DWORD PTR _dlgBlockVerticalScale$[ebp+336]
  000fe	89 43 70	 mov	 DWORD PTR [ebx+112], eax

; 733  : 		pItem->m_dMax			= dlgBlockVerticalScale.m_dMax;

  00101	f2 0f 10 45 a4	 movsd	 xmm0, QWORD PTR _dlgBlockVerticalScale$[ebp+344]
  00106	f2 0f 11 43 78	 movsd	 QWORD PTR [ebx+120], xmm0

; 734  : 		pItem->m_dMin			= dlgBlockVerticalScale.m_dMin;

  0010b	f2 0f 10 45 ac	 movsd	 xmm0, QWORD PTR _dlgBlockVerticalScale$[ebp+352]
  00110	f2 0f 11 83 80
	00 00 00	 movsd	 QWORD PTR [ebx+128], xmm0

; 735  : 
; 736  : 		// (2007/7/19 - Seung-Won, Bae) Support Up/Down Space
; 737  : 		pItem->m_nUpSpace	= dlgBlockVerticalScale.m_nUpSpace;

  00118	8b 45 bc	 mov	 eax, DWORD PTR _dlgBlockVerticalScale$[ebp+368]
  0011b	89 83 88 00 00
	00		 mov	 DWORD PTR [ebx+136], eax

; 738  : 		pItem->m_nDownSpace	= dlgBlockVerticalScale.m_nDownSpace;

  00121	8b 45 b8	 mov	 eax, DWORD PTR _dlgBlockVerticalScale$[ebp+364]
  00124	89 83 8c 00 00
	00		 mov	 DWORD PTR [ebx+140], eax

; 739  : 
; 740  : 		//2007.01.22 Scale ,
; 741  : 		pItem->m_dHogaNumber	= dlgBlockVerticalScale.m_dHogaNumber;

  0012a	f2 0f 10 45 c4	 movsd	 xmm0, QWORD PTR _dlgBlockVerticalScale$[ebp+376]
  0012f	f2 0f 11 83 90
	00 00 00	 movsd	 QWORD PTR [ebx+144], xmm0

; 742  : 		pItem->m_dUserNumber	= dlgBlockVerticalScale.m_dUserNumber;

  00137	f2 0f 10 45 cc	 movsd	 xmm0, QWORD PTR _dlgBlockVerticalScale$[ebp+384]
  0013c	f2 0f 11 83 98
	00 00 00	 movsd	 QWORD PTR [ebx+152], xmm0

; 743  : 		pItem->m_nUserHogaType	= dlgBlockVerticalScale.m_nUserHogaType;

  00144	8b 45 d4	 mov	 eax, DWORD PTR _dlgBlockVerticalScale$[ebp+392]
  00147	89 83 a0 00 00
	00		 mov	 DWORD PTR [ebx+160], eax

; 744  : 	
; 745  : 		//   - ojtaso (20071023)
; 746  : 		pItem->m_bIsInvert		= dlgBlockVerticalScale.m_bIsInvert;

  0014d	8b 45 d8	 mov	 eax, DWORD PTR _dlgBlockVerticalScale$[ebp+396]
  00150	89 83 a4 00 00
	00		 mov	 DWORD PTR [ebx+164], eax
$LN4@OnVertScal:
  00156	8d 4d e0	 lea	 ecx, DWORD PTR _dlgBlockVerticalScale$[ebp+404]
  00159	ff 15 00 00 00
	00		 call	 DWORD PTR __imp_??1?$CStringT@DV?$StrTraitMFC_DLL@DV?$ChTraitsCRT@D@ATL@@@@@ATL@@QAE@XZ
  0015f	8d 4d 90	 lea	 ecx, DWORD PTR _dlgBlockVerticalScale$[ebp+324]
  00162	ff 15 00 00 00
	00		 call	 DWORD PTR __imp_??1?$CStringT@DV?$StrTraitMFC_DLL@DV?$ChTraitsCRT@D@ATL@@@@@ATL@@QAE@XZ
  00168	8d 8d f4 fe ff
	ff		 lea	 ecx, DWORD PTR _dlgBlockVerticalScale$[ebp+168]
  0016e	e8 00 00 00 00	 call	 ??1CCheckComboBox@@UAE@XZ ; CCheckComboBox::~CCheckComboBox
  00173	8d 8d 4c fe ff
	ff		 lea	 ecx, DWORD PTR _dlgBlockVerticalScale$[ebp]
  00179	e8 00 00 00 00	 call	 ??1CDialog@@UAE@XZ	; CDialog::~CDialog
; File D:\git\src\IBK\IBK_DRFN\ProjSrc\SrcChartEx\ChartAddIn\ChartDesignPropertyAddIn\Include_Chart\Dll_Load\IMetaTable.h

; 1036 : 	{

  0017e	c7 45 fc 02 00
	00 00		 mov	 DWORD PTR __$EHRec$[ebp+8], 2
; File C:\Program Files (x86)\Microsoft Visual Studio\2019\Community\VC\Tools\MSVC\14.29.30133\atlmfc\include\afxwin1.inl

; 27   : 	{ ASSERT(hInstResource != NULL); afxCurrentResourceHandle = hInstResource; }

  00185	e8 00 00 00 00	 call	 ?AfxGetModuleState@@YGPAVAFX_MODULE_STATE@@XZ ; AfxGetModuleState
  0018a	89 70 0c	 mov	 DWORD PTR [eax+12], esi
$LN20@OnVertScal:
; File D:\git\src\IBK\IBK_DRFN\ProjSrc\SrcChartEx\ChartAddIn\ChartDesignPropertyAddIn\ChartDesignPropertyAddIn\MyTreeCtrl.cpp

; 748  : }

  0018d	8b 4d f4	 mov	 ecx, DWORD PTR __$EHRec$[ebp]
  00190	64 89 0d 00 00
	00 00		 mov	 DWORD PTR fs:0, ecx
  00197	59		 pop	 ecx
  00198	5f		 pop	 edi
  00199	5e		 pop	 esi
  0019a	5b		 pop	 ebx
  0019b	8b e5		 mov	 esp, ebp
  0019d	5d		 pop	 ebp
  0019e	c3		 ret	 0
_TEXT	ENDS
;	COMDAT text$x
text$x	SEGMENT
__unwindfunclet$?OnVertScale@CMyTreeCtrl@@IAEXXZ$0:
  00000	8d 4d ec	 lea	 ecx, DWORD PTR ___mlrs__$[ebp]
  00003	e9 00 00 00 00	 jmp	 ??1CMultiLanguageResourceSetter@@QAE@XZ ; CMultiLanguageResourceSetter::~CMultiLanguageResourceSetter
__unwindfunclet$?OnVertScale@CMyTreeCtrl@@IAEXXZ$1:
  00008	8d 8d 4c fe ff
	ff		 lea	 ecx, DWORD PTR _dlgBlockVerticalScale$[ebp]
  0000e	e9 00 00 00 00	 jmp	 ??1CDlgBlockVerticalScale@@UAE@XZ
  00013	cc		 int	 3
  00014	cc		 int	 3
  00015	cc		 int	 3
  00016	cc		 int	 3
  00017	cc		 int	 3
__ehhandler$?OnVertScale@CMyTreeCtrl@@IAEXXZ:
  00018	90		 npad	 1
  00019	90		 npad	 1
  0001a	8b 54 24 08	 mov	 edx, DWORD PTR [esp+8]
  0001e	8d 42 0c	 lea	 eax, DWORD PTR [edx+12]
  00021	8b 8a 48 fe ff
	ff		 mov	 ecx, DWORD PTR [edx-440]
  00027	33 c8		 xor	 ecx, eax
  00029	e8 00 00 00 00	 call	 @__security_check_cookie@4
  0002e	b8 00 00 00 00	 mov	 eax, OFFSET __ehfuncinfo$?OnVertScale@CMyTreeCtrl@@IAEXXZ
  00033	e9 00 00 00 00	 jmp	 ___CxxFrameHandler3
text$x	ENDS
?OnVertScale@CMyTreeCtrl@@IAEXXZ ENDP			; CMyTreeCtrl::OnVertScale
; Function compile flags: /Ogtp
; File D:\git\src\IBK\IBK_DRFN\ProjSrc\SrcChartEx\ChartAddIn\ChartDesignPropertyAddIn\ChartDesignPropertyAddIn\MyTreeCtrl.cpp
; File C:\Program Files (x86)\Microsoft Visual Studio\2019\Community\VC\Tools\MSVC\14.29.30133\atlmfc\include\afxcmn.inl
; File D:\git\src\IBK\IBK_DRFN\ProjSrc\SrcChartEx\ChartAddIn\ChartDesignPropertyAddIn\ChartDesignPropertyAddIn\MyTreeCtrl.cpp
; File C:\Program Files (x86)\Microsoft Visual Studio\2019\Community\VC\Tools\MSVC\14.29.30133\atlmfc\include\afxwin1.inl
; File D:\git\src\IBK\IBK_DRFN\ProjSrc\SrcChartEx\ChartAddIn\ChartDesignPropertyAddIn\Include_Chart\Dll_Load\IMetaTable.h
; File C:\Program Files (x86)\Microsoft Visual Studio\2019\Community\VC\Tools\MSVC\14.29.30133\atlmfc\include\afxwin1.inl
; File D:\git\src\IBK\IBK_DRFN\ProjSrc\SrcChartEx\ChartAddIn\ChartDesignPropertyAddIn\ChartDesignPropertyAddIn\MyTreeCtrl.cpp
; File D:\git\src\IBK\IBK_DRFN\ProjSrc\SrcChartEx\ChartAddIn\ChartDesignPropertyAddIn\Include_Chart\Dll_Load\IMetaTable.h
; File C:\Program Files (x86)\Microsoft Visual Studio\2019\Community\VC\Tools\MSVC\14.29.30133\atlmfc\include\afxwin1.inl
; File D:\git\src\IBK\IBK_DRFN\ProjSrc\SrcChartEx\ChartAddIn\ChartDesignPropertyAddIn\ChartDesignPropertyAddIn\MyTreeCtrl.cpp
;	COMDAT ?OnHorizonscale@CMyTreeCtrl@@IAEXXZ
_TEXT	SEGMENT
___mlrs__$ = -976					; size = 4
___mlrs__$1$ = -972					; size = 4
_hItem$1$ = -968					; size = 4
_this$GSCopy$1$ = -964					; size = 4
_dlgBlockHorizonScale$ = -960				; size = 944
__$ArrayPad$ = -16					; size = 4
__$EHRec$ = -12						; size = 12
?OnHorizonscale@CMyTreeCtrl@@IAEXXZ PROC		; CMyTreeCtrl::OnHorizonscale, COMDAT
; _this$ = ecx

; 532  : {

  00000	55		 push	 ebp
  00001	8b ec		 mov	 ebp, esp
  00003	6a ff		 push	 -1
  00005	68 00 00 00 00	 push	 __ehhandler$?OnHorizonscale@CMyTreeCtrl@@IAEXXZ
  0000a	64 a1 00 00 00
	00		 mov	 eax, DWORD PTR fs:0
  00010	50		 push	 eax
  00011	81 ec c4 03 00
	00		 sub	 esp, 964		; 000003c4H
  00017	a1 00 00 00 00	 mov	 eax, DWORD PTR ___security_cookie
  0001c	33 c5		 xor	 eax, ebp
  0001e	89 45 f0	 mov	 DWORD PTR __$ArrayPad$[ebp], eax
  00021	53		 push	 ebx
  00022	56		 push	 esi
  00023	57		 push	 edi
  00024	50		 push	 eax
  00025	8d 45 f4	 lea	 eax, DWORD PTR __$EHRec$[ebp]
  00028	64 a3 00 00 00
	00		 mov	 DWORD PTR fs:0, eax
  0002e	8b f1		 mov	 esi, ecx
  00030	89 b5 3c fc ff
	ff		 mov	 DWORD PTR _this$GSCopy$1$[ebp], esi
; File C:\Program Files (x86)\Microsoft Visual Studio\2019\Community\VC\Tools\MSVC\14.29.30133\atlmfc\include\afxcmn.inl

; 316  : 	{ ASSERT(::IsWindow(m_hWnd)); return (HTREEITEM)::SendMessage(m_hWnd, TVM_GETNEXTITEM, TVGN_CARET, 0); }

  00036	6a 00		 push	 0
  00038	6a 09		 push	 9
  0003a	68 0a 11 00 00	 push	 4362			; 0000110aH
  0003f	ff 76 20	 push	 DWORD PTR [esi+32]
  00042	ff 15 00 00 00
	00		 call	 DWORD PTR __imp__SendMessageA@16
; File D:\git\src\IBK\IBK_DRFN\ProjSrc\SrcChartEx\ChartAddIn\ChartDesignPropertyAddIn\ChartDesignPropertyAddIn\MyTreeCtrl.cpp

; 533  : 	HTREEITEM hItem = GetSelectedItem();

  00048	8b f8		 mov	 edi, eax
  0004a	89 bd 38 fc ff
	ff		 mov	 DWORD PTR _hItem$1$[ebp], edi

; 534  : 	if(hItem == NULL) return;

  00050	85 ff		 test	 edi, edi
  00052	0f 84 a9 01 00
	00		 je	 $LN31@OnHorizons

; 535  : 	CChartLink *pItem = m_clChartRoot.Find(hItem);

  00058	57		 push	 edi
  00059	8d 8e 00 01 00
	00		 lea	 ecx, DWORD PTR [esi+256]
  0005f	e8 00 00 00 00	 call	 ?Find@CChartLink@@QAEPAV1@PAU_TREEITEM@@@Z ; CChartLink::Find
  00064	8b d8		 mov	 ebx, eax

; 536  : 	if(pItem == NULL) return;

  00066	85 db		 test	 ebx, ebx
  00068	0f 84 93 01 00
	00		 je	 $LN31@OnHorizons

; 537  : 
; 538  : 	CDlgBlockHorizontalScale dlgBlockHorizonScale( pItem, m_hOcxWnd);

  0006e	6a 00		 push	 0
  00070	ff b6 04 02 00
	00		 push	 DWORD PTR [esi+516]
  00076	8d 8d 40 fc ff
	ff		 lea	 ecx, DWORD PTR _dlgBlockHorizonScale$[ebp]
  0007c	53		 push	 ebx
  0007d	e8 00 00 00 00	 call	 ??0CDlgBlockHorizontalScale@@QAE@PAVCChartLink@@PAUHWND__@@PAVCWnd@@@Z ; CDlgBlockHorizontalScale::CDlgBlockHorizontalScale
  00082	c7 45 fc 00 00
	00 00		 mov	 DWORD PTR __$EHRec$[ebp+8], 0

; 539  : 	if(m_clChartRoot.m_hItem == hItem) 

  00089	39 be 08 01 00
	00		 cmp	 DWORD PTR [esi+264], edi
  0008f	75 08		 jne	 SHORT $LN4@OnHorizons

; 540  : 		SetDlgBlockHorizontalScale(m_pChartBlock, dlgBlockHorizonScale);

  00091	8b 86 f0 01 00
	00		 mov	 eax, DWORD PTR [esi+496]
  00097	eb 02		 jmp	 SHORT $LN5@OnHorizons
$LN4@OnHorizons:

; 541  : 	else  
; 542  : 		SetDlgBlockHorizontalScale(pItem, dlgBlockHorizonScale);

  00099	8b c3		 mov	 eax, ebx
$LN5@OnHorizons:

; 543  : 
; 544  : 	ML_SET_LANGUAGE_RES();

  0009b	8d 8d 40 fc ff
	ff		 lea	 ecx, DWORD PTR _dlgBlockHorizonScale$[ebp]
  000a1	51		 push	 ecx
  000a2	50		 push	 eax
  000a3	8b ce		 mov	 ecx, esi
  000a5	e8 00 00 00 00	 call	 ?SetDlgBlockHorizontalScale@CMyTreeCtrl@@AAEXPAVCChartLink@@AAVCDlgBlockHorizontalScale@@@Z ; CMyTreeCtrl::SetDlgBlockHorizontalScale
  000aa	e8 00 00 00 00	 call	 ?AfxGetStaticModuleState@@YGPAVAFX_MODULE_STATE@@XZ ; AfxGetStaticModuleState
  000af	b9 00 00 00 00	 mov	 ecx, OFFSET ?g_iMetaTable@@3VIMetaTable@@A ; g_iMetaTable
  000b4	8b 40 08	 mov	 eax, DWORD PTR [eax+8]
  000b7	50		 push	 eax
  000b8	ff b6 04 02 00
	00		 push	 DWORD PTR [esi+516]
  000be	e8 00 00 00 00	 call	 ?LoadResourceDLL@IMetaTable@@QAEPAUHINSTANCE__@@PAUHWND__@@PAU2@@Z ; IMetaTable::LoadResourceDLL
  000c3	8b f8		 mov	 edi, eax
; File C:\Program Files (x86)\Microsoft Visual Studio\2019\Community\VC\Tools\MSVC\14.29.30133\atlmfc\include\afxwin1.inl

; 25   : 		return afxCurrentResourceHandle; }

  000c5	e8 00 00 00 00	 call	 ?AfxGetModuleState@@YGPAVAFX_MODULE_STATE@@XZ ; AfxGetModuleState
; File D:\git\src\IBK\IBK_DRFN\ProjSrc\SrcChartEx\ChartAddIn\ChartDesignPropertyAddIn\Include_Chart\Dll_Load\IMetaTable.h

; 1032 : 		m_hInstance = AfxGetResourceHandle();

  000ca	8b 70 0c	 mov	 esi, DWORD PTR [eax+12]
  000cd	89 b5 34 fc ff
	ff		 mov	 DWORD PTR ___mlrs__$1$[ebp], esi
  000d3	89 b5 30 fc ff
	ff		 mov	 DWORD PTR ___mlrs__$[ebp], esi
; File C:\Program Files (x86)\Microsoft Visual Studio\2019\Community\VC\Tools\MSVC\14.29.30133\atlmfc\include\afxwin1.inl

; 27   : 	{ ASSERT(hInstResource != NULL); afxCurrentResourceHandle = hInstResource; }

  000d9	e8 00 00 00 00	 call	 ?AfxGetModuleState@@YGPAVAFX_MODULE_STATE@@XZ ; AfxGetModuleState
  000de	89 78 0c	 mov	 DWORD PTR [eax+12], edi
; File D:\git\src\IBK\IBK_DRFN\ProjSrc\SrcChartEx\ChartAddIn\ChartDesignPropertyAddIn\ChartDesignPropertyAddIn\MyTreeCtrl.cpp

; 546  : 	if(m_clChartRoot.m_hItem == hItem) {

  000e1	8b bd 3c fc ff
	ff		 mov	 edi, DWORD PTR _this$GSCopy$1$[ebp]
  000e7	8d 8d 40 fc ff
	ff		 lea	 ecx, DWORD PTR _dlgBlockHorizonScale$[ebp]
  000ed	8b 85 38 fc ff
	ff		 mov	 eax, DWORD PTR _hItem$1$[ebp]
  000f3	c6 45 fc 01	 mov	 BYTE PTR __$EHRec$[ebp+8], 1
  000f7	39 87 08 01 00
	00		 cmp	 DWORD PTR [edi+264], eax
  000fd	75 6b		 jne	 SHORT $LN6@OnHorizons

; 547  : 		if(dlgBlockHorizonScale.DoModal() == IDOK) {

  000ff	e8 00 00 00 00	 call	 ?DoModal@CDialog@@UAEHXZ ; CDialog::DoModal
  00104	83 f8 01	 cmp	 eax, 1
  00107	75 7a		 jne	 SHORT $LN9@OnHorizons

; 548  : 			SetDlgValueToCChartLinkClass(dlgBlockHorizonScale, pItem);

  00109	53		 push	 ebx
  0010a	8d 85 40 fc ff
	ff		 lea	 eax, DWORD PTR _dlgBlockHorizonScale$[ebp]
  00110	8b cf		 mov	 ecx, edi
  00112	50		 push	 eax
  00113	e8 00 00 00 00	 call	 ?SetDlgValueToCChartLinkClass@CMyTreeCtrl@@AAEXAAVCDlgBlockHorizontalScale@@PAVCChartLink@@@Z ; CMyTreeCtrl::SetDlgValueToCChartLinkClass

; 602  : 	CChartLink* pLink = m_clChartRoot.m_Child ;

  00118	8b bf 60 01 00
	00		 mov	 edi, DWORD PTR [edi+352]

; 603  : 	while(pLink)

  0011e	85 ff		 test	 edi, edi
  00120	74 61		 je	 SHORT $LN9@OnHorizons
  00122	8d 73 58	 lea	 esi, DWORD PTR [ebx+88]
$LL22@OnHorizons:

; 604  : 	{
; 605  : 		pLink->m_strScaleStyle = pItem->m_strScaleStyle;

  00125	56		 push	 esi
  00126	8d 4f 58	 lea	 ecx, DWORD PTR [edi+88]
  00129	ff 15 00 00 00
	00		 call	 DWORD PTR __imp_??4?$CStringT@DV?$StrTraitMFC_DLL@DV?$ChTraitsCRT@D@ATL@@@@@ATL@@QAEAAV01@ABV01@@Z

; 606  : 		pLink->m_nHorizonpos = pItem->m_nHorizonpos;

  0012f	8b 43 40	 mov	 eax, DWORD PTR [ebx+64]

; 607  : 		pLink->m_strDateScaleCompart = pItem->m_strDateScaleCompart;

  00132	8d 4f 38	 lea	 ecx, DWORD PTR [edi+56]
  00135	89 47 40	 mov	 DWORD PTR [edi+64], eax
  00138	8d 43 38	 lea	 eax, DWORD PTR [ebx+56]
  0013b	50		 push	 eax
  0013c	ff 15 00 00 00
	00		 call	 DWORD PTR __imp_??4?$CStringT@DV?$StrTraitMFC_DLL@DV?$ChTraitsCRT@D@ATL@@@@@ATL@@QAEAAV01@ABV01@@Z

; 608  : 		pLink->m_strTimeScaleCompart = pItem->m_strTimeScaleCompart;

  00142	8d 43 3c	 lea	 eax, DWORD PTR [ebx+60]
  00145	50		 push	 eax
  00146	8d 4f 3c	 lea	 ecx, DWORD PTR [edi+60]
  00149	ff 15 00 00 00
	00		 call	 DWORD PTR __imp_??4?$CStringT@DV?$StrTraitMFC_DLL@DV?$ChTraitsCRT@D@ATL@@@@@ATL@@QAEAAV01@ABV01@@Z

; 609  : 		pLink->m_nHorizonStyle = pItem->m_nHorizonStyle;

  0014f	8b 43 44	 mov	 eax, DWORD PTR [ebx+68]
  00152	89 47 44	 mov	 DWORD PTR [edi+68], eax

; 610  : 		pLink->m_nScaleCompartType = pItem->m_nScaleCompartType;

  00155	8b 43 50	 mov	 eax, DWORD PTR [ebx+80]
  00158	89 47 50	 mov	 DWORD PTR [edi+80], eax

; 611  : 		pLink = pLink->m_Next ;

  0015b	8b 7f 68	 mov	 edi, DWORD PTR [edi+104]
  0015e	85 ff		 test	 edi, edi
  00160	75 c3		 jne	 SHORT $LL22@OnHorizons

; 549  : 			SetRootValueToAllBlocks(pItem);
; 550  : 		}
; 551  : 	}

  00162	8b b5 34 fc ff
	ff		 mov	 esi, DWORD PTR ___mlrs__$1$[ebp]
  00168	eb 19		 jmp	 SHORT $LN9@OnHorizons
$LN6@OnHorizons:

; 552  : 	else { //   .
; 553  : 		if(dlgBlockHorizonScale.DoModal() == IDOK)

  0016a	e8 00 00 00 00	 call	 ?DoModal@CDialog@@UAEHXZ ; CDialog::DoModal
  0016f	83 f8 01	 cmp	 eax, 1
  00172	75 0f		 jne	 SHORT $LN9@OnHorizons

; 554  : 			SetDlgValueToCChartLinkClass(dlgBlockHorizonScale, pItem);

  00174	53		 push	 ebx
  00175	8d 85 40 fc ff
	ff		 lea	 eax, DWORD PTR _dlgBlockHorizonScale$[ebp]
  0017b	8b cf		 mov	 ecx, edi
  0017d	50		 push	 eax
  0017e	e8 00 00 00 00	 call	 ?SetDlgValueToCChartLinkClass@CMyTreeCtrl@@AAEXAAVCDlgBlockHorizontalScale@@PAVCChartLink@@@Z ; CMyTreeCtrl::SetDlgValueToCChartLinkClass
$LN9@OnHorizons:
; File D:\git\src\IBK\IBK_DRFN\ProjSrc\SrcChartEx\ChartAddIn\ChartDesignPropertyAddIn\Include_Chart\Dll_Load\IMetaTable.h

; 1036 : 	{

  00183	c6 45 fc 02	 mov	 BYTE PTR __$EHRec$[ebp+8], 2
; File C:\Program Files (x86)\Microsoft Visual Studio\2019\Community\VC\Tools\MSVC\14.29.30133\atlmfc\include\afxwin1.inl

; 27   : 	{ ASSERT(hInstResource != NULL); afxCurrentResourceHandle = hInstResource; }

  00187	e8 00 00 00 00	 call	 ?AfxGetModuleState@@YGPAVAFX_MODULE_STATE@@XZ ; AfxGetModuleState
  0018c	8d 8d 08 ff ff
	ff		 lea	 ecx, DWORD PTR _dlgBlockHorizonScale$[ebp+712]
  00192	89 70 0c	 mov	 DWORD PTR [eax+12], esi
  00195	e8 00 00 00 00	 call	 ??1CDlgToolTip@@UAE@XZ	; CDlgToolTip::~CDlgToolTip
  0019a	8d 8d 00 ff ff
	ff		 lea	 ecx, DWORD PTR _dlgBlockHorizonScale$[ebp+704]
  001a0	ff 15 00 00 00
	00		 call	 DWORD PTR __imp_??1?$CStringT@DV?$StrTraitMFC_DLL@DV?$ChTraitsCRT@D@ATL@@@@@ATL@@QAE@XZ
  001a6	8d 8d f8 fe ff
	ff		 lea	 ecx, DWORD PTR _dlgBlockHorizonScale$[ebp+696]
  001ac	ff 15 00 00 00
	00		 call	 DWORD PTR __imp_??1?$CStringT@DV?$StrTraitMFC_DLL@DV?$ChTraitsCRT@D@ATL@@@@@ATL@@QAE@XZ
  001b2	8d 8d f0 fe ff
	ff		 lea	 ecx, DWORD PTR _dlgBlockHorizonScale$[ebp+688]
  001b8	ff 15 00 00 00
	00		 call	 DWORD PTR __imp_??1?$CStringT@DV?$StrTraitMFC_DLL@DV?$ChTraitsCRT@D@ATL@@@@@ATL@@QAE@XZ
  001be	8d 8d ec fe ff
	ff		 lea	 ecx, DWORD PTR _dlgBlockHorizonScale$[ebp+684]
  001c4	ff 15 00 00 00
	00		 call	 DWORD PTR __imp_??1?$CStringT@DV?$StrTraitMFC_DLL@DV?$ChTraitsCRT@D@ATL@@@@@ATL@@QAE@XZ
  001ca	8d 8d 68 fe ff
	ff		 lea	 ecx, DWORD PTR _dlgBlockHorizonScale$[ebp+552]
  001d0	e8 00 00 00 00	 call	 ??1CNoSystemMenuCombo@@UAE@XZ ; CNoSystemMenuCombo::~CNoSystemMenuCombo
  001d5	8d 8d e8 fd ff
	ff		 lea	 ecx, DWORD PTR _dlgBlockHorizonScale$[ebp+424]
  001db	e8 00 00 00 00	 call	 ??1CNoSystemMenuCombo@@UAE@XZ ; CNoSystemMenuCombo::~CNoSystemMenuCombo
  001e0	8d 8d 68 fd ff
	ff		 lea	 ecx, DWORD PTR _dlgBlockHorizonScale$[ebp+296]
  001e6	e8 00 00 00 00	 call	 ??1CNoSystemMenuCombo@@UAE@XZ ; CNoSystemMenuCombo::~CNoSystemMenuCombo
  001eb	8d 8d e8 fc ff
	ff		 lea	 ecx, DWORD PTR _dlgBlockHorizonScale$[ebp+168]
  001f1	e8 00 00 00 00	 call	 ??1CNoSystemMenuCombo@@UAE@XZ ; CNoSystemMenuCombo::~CNoSystemMenuCombo
  001f6	8d 8d 40 fc ff
	ff		 lea	 ecx, DWORD PTR _dlgBlockHorizonScale$[ebp]
  001fc	e8 00 00 00 00	 call	 ??1CDialog@@UAE@XZ	; CDialog::~CDialog
$LN31@OnHorizons:
; File D:\git\src\IBK\IBK_DRFN\ProjSrc\SrcChartEx\ChartAddIn\ChartDesignPropertyAddIn\ChartDesignPropertyAddIn\MyTreeCtrl.cpp

; 556  : }

  00201	8b 4d f4	 mov	 ecx, DWORD PTR __$EHRec$[ebp]
  00204	64 89 0d 00 00
	00 00		 mov	 DWORD PTR fs:0, ecx
  0020b	59		 pop	 ecx
  0020c	5f		 pop	 edi
  0020d	5e		 pop	 esi
  0020e	5b		 pop	 ebx
  0020f	8b 4d f0	 mov	 ecx, DWORD PTR __$ArrayPad$[ebp]
  00212	33 cd		 xor	 ecx, ebp
  00214	e8 00 00 00 00	 call	 @__security_check_cookie@4
  00219	8b e5		 mov	 esp, ebp
  0021b	5d		 pop	 ebp
  0021c	c3		 ret	 0
_TEXT	ENDS
;	COMDAT text$x
text$x	SEGMENT
__unwindfunclet$?OnHorizonscale@CMyTreeCtrl@@IAEXXZ$0:
  00000	8d 8d 40 fc ff
	ff		 lea	 ecx, DWORD PTR _dlgBlockHorizonScale$[ebp]
  00006	e9 00 00 00 00	 jmp	 ??1CDlgBlockHorizontalScale@@UAE@XZ
__unwindfunclet$?OnHorizonscale@CMyTreeCtrl@@IAEXXZ$1:
  0000b	8d 8d 30 fc ff
	ff		 lea	 ecx, DWORD PTR ___mlrs__$[ebp]
  00011	e9 00 00 00 00	 jmp	 ??1CMultiLanguageResourceSetter@@QAE@XZ ; CMultiLanguageResourceSetter::~CMultiLanguageResourceSetter
  00016	cc		 int	 3
  00017	cc		 int	 3
  00018	cc		 int	 3
  00019	cc		 int	 3
  0001a	cc		 int	 3
__ehhandler$?OnHorizonscale@CMyTreeCtrl@@IAEXXZ:
  0001b	90		 npad	 1
  0001c	90		 npad	 1
  0001d	8b 54 24 08	 mov	 edx, DWORD PTR [esp+8]
  00021	8d 42 0c	 lea	 eax, DWORD PTR [edx+12]
  00024	8b 8a 2c fc ff
	ff		 mov	 ecx, DWORD PTR [edx-980]
  0002a	33 c8		 xor	 ecx, eax
  0002c	e8 00 00 00 00	 call	 @__security_check_cookie@4
  00031	8b 4a fc	 mov	 ecx, DWORD PTR [edx-4]
  00034	33 c8		 xor	 ecx, eax
  00036	e8 00 00 00 00	 call	 @__security_check_cookie@4
  0003b	b8 00 00 00 00	 mov	 eax, OFFSET __ehfuncinfo$?OnHorizonscale@CMyTreeCtrl@@IAEXXZ
  00040	e9 00 00 00 00	 jmp	 ___CxxFrameHandler3
text$x	ENDS
?OnHorizonscale@CMyTreeCtrl@@IAEXXZ ENDP		; CMyTreeCtrl::OnHorizonscale
; Function compile flags: /Ogtp
; File D:\git\src\IBK\IBK_DRFN\ProjSrc\SrcChartEx\ChartAddIn\ChartDesignPropertyAddIn\ChartDesignPropertyAddIn\MyTreeCtrl.cpp
; File C:\Program Files (x86)\Microsoft Visual Studio\2019\Community\VC\Tools\MSVC\14.29.30133\atlmfc\include\afxcmn.inl
; File D:\git\src\IBK\IBK_DRFN\ProjSrc\SrcChartEx\ChartAddIn\ChartDesignPropertyAddIn\ChartDesignPropertyAddIn\MyTreeCtrl.cpp
; File C:\Program Files (x86)\Microsoft Visual Studio\2019\Community\VC\Tools\MSVC\14.29.30133\atlmfc\include\afxcmn.inl
; File D:\git\src\IBK\IBK_DRFN\ProjSrc\SrcChartEx\ChartAddIn\ChartDesignPropertyAddIn\ChartDesignPropertyAddIn\MyTreeCtrl.cpp
; File C:\Program Files (x86)\Microsoft Visual Studio\2019\Community\VC\Tools\MSVC\14.29.30133\atlmfc\include\afxcmn.inl
; File D:\git\src\IBK\IBK_DRFN\ProjSrc\SrcChartEx\ChartAddIn\ChartDesignPropertyAddIn\ChartDesignPropertyAddIn\MyTreeCtrl.cpp
;	COMDAT ?OnDelete@CMyTreeCtrl@@IAEXXZ
_TEXT	SEGMENT
?OnDelete@CMyTreeCtrl@@IAEXXZ PROC			; CMyTreeCtrl::OnDelete, COMDAT
; _this$ = ecx

; 441  : {

  00000	57		 push	 edi
; File C:\Program Files (x86)\Microsoft Visual Studio\2019\Community\VC\Tools\MSVC\14.29.30133\atlmfc\include\afxcmn.inl

; 316  : 	{ ASSERT(::IsWindow(m_hWnd)); return (HTREEITEM)::SendMessage(m_hWnd, TVM_GETNEXTITEM, TVGN_CARET, 0); }

  00001	6a 00		 push	 0
; File D:\git\src\IBK\IBK_DRFN\ProjSrc\SrcChartEx\ChartAddIn\ChartDesignPropertyAddIn\ChartDesignPropertyAddIn\MyTreeCtrl.cpp

; 441  : {

  00003	8b f9		 mov	 edi, ecx
; File C:\Program Files (x86)\Microsoft Visual Studio\2019\Community\VC\Tools\MSVC\14.29.30133\atlmfc\include\afxcmn.inl

; 316  : 	{ ASSERT(::IsWindow(m_hWnd)); return (HTREEITEM)::SendMessage(m_hWnd, TVM_GETNEXTITEM, TVGN_CARET, 0); }

  00005	6a 09		 push	 9
  00007	68 0a 11 00 00	 push	 4362			; 0000110aH
  0000c	ff 77 20	 push	 DWORD PTR [edi+32]
  0000f	ff 15 00 00 00
	00		 call	 DWORD PTR __imp__SendMessageA@16
; File D:\git\src\IBK\IBK_DRFN\ProjSrc\SrcChartEx\ChartAddIn\ChartDesignPropertyAddIn\ChartDesignPropertyAddIn\MyTreeCtrl.cpp

; 443  : 	if(hItem == NULL) return;

  00015	85 c0		 test	 eax, eax
  00017	74 55		 je	 SHORT $LN8@OnDelete

; 444  : 	CChartLink *pItem = m_clChartRoot.Find(hItem);

  00019	56		 push	 esi
  0001a	50		 push	 eax
  0001b	8d 8f 00 01 00
	00		 lea	 ecx, DWORD PTR [edi+256]
  00021	e8 00 00 00 00	 call	 ?Find@CChartLink@@QAEPAV1@PAU_TREEITEM@@@Z ; CChartLink::Find
  00026	8b f0		 mov	 esi, eax

; 445  : 	if(pItem == NULL) return;

  00028	85 f6		 test	 esi, esi
  0002a	74 41		 je	 SHORT $LN14@OnDelete

; 446  : 	if(pItem->m_iType == ROOT) return;

  0002c	83 7e 10 00	 cmp	 DWORD PTR [esi+16], 0
  00030	74 3b		 je	 SHORT $LN14@OnDelete

; 447  : 
; 448  : 
; 449  : 	CChartLink* pParent = pItem->m_Parent;
; 450  : 	if(pItem->m_Prev == NULL && pItem->m_Next == NULL) 

  00032	83 7e 64 00	 cmp	 DWORD PTR [esi+100], 0
  00036	75 13		 jne	 SHORT $LN5@OnDelete
  00038	83 7e 68 00	 cmp	 DWORD PTR [esi+104], 0
  0003c	75 0d		 jne	 SHORT $LN5@OnDelete

; 451  : 		OnDeleteVertScale(pParent);

  0003e	ff 76 5c	 push	 DWORD PTR [esi+92]
  00041	8b cf		 mov	 ecx, edi
  00043	e8 00 00 00 00	 call	 ?OnDeleteVertScale@CMyTreeCtrl@@AAEXPAVCChartLink@@@Z ; CMyTreeCtrl::OnDeleteVertScale
  00048	5e		 pop	 esi
  00049	5f		 pop	 edi

; 456  : 	}
; 457  : }

  0004a	c3		 ret	 0
$LN5@OnDelete:

; 452  : 	else {
; 453  : 		pItem->Cut();

  0004b	8b ce		 mov	 ecx, esi
  0004d	e8 00 00 00 00	 call	 ?Cut@CChartLink@@QAEXXZ	; CChartLink::Cut
; File C:\Program Files (x86)\Microsoft Visual Studio\2019\Community\VC\Tools\MSVC\14.29.30133\atlmfc\include\afxcmn.inl

; 273  : 	{ ASSERT(::IsWindow(m_hWnd)); return (BOOL)::SendMessage(m_hWnd, TVM_DELETEITEM, 0, (LPARAM)hItem); }

  00052	ff 76 08	 push	 DWORD PTR [esi+8]
  00055	6a 00		 push	 0
  00057	68 01 11 00 00	 push	 4353			; 00001101H
  0005c	ff 77 20	 push	 DWORD PTR [edi+32]
  0005f	ff 15 00 00 00
	00		 call	 DWORD PTR __imp__SendMessageA@16
; File D:\git\src\IBK\IBK_DRFN\ProjSrc\SrcChartEx\ChartAddIn\ChartDesignPropertyAddIn\ChartDesignPropertyAddIn\MyTreeCtrl.cpp

; 455  : 		delete pItem;

  00065	8b 06		 mov	 eax, DWORD PTR [esi]
  00067	8b ce		 mov	 ecx, esi
  00069	6a 01		 push	 1
  0006b	ff 10		 call	 DWORD PTR [eax]
$LN14@OnDelete:
  0006d	5e		 pop	 esi
$LN8@OnDelete:
  0006e	5f		 pop	 edi

; 456  : 	}
; 457  : }

  0006f	c3		 ret	 0
?OnDelete@CMyTreeCtrl@@IAEXXZ ENDP			; CMyTreeCtrl::OnDelete
_TEXT	ENDS
; Function compile flags: /Ogtp
; File D:\git\src\IBK\IBK_DRFN\ProjSrc\SrcChartEx\ChartAddIn\ChartDesignPropertyAddIn\ChartDesignPropertyAddIn\MyTreeCtrl.cpp
; File C:\Program Files (x86)\Microsoft Visual Studio\2019\Community\VC\Tools\MSVC\14.29.30133\atlmfc\include\afxcmn.inl
; File D:\git\src\IBK\IBK_DRFN\ProjSrc\SrcChartEx\ChartAddIn\ChartDesignPropertyAddIn\ChartDesignPropertyAddIn\MyTreeCtrl.cpp
; File C:\Program Files (x86)\Microsoft Visual Studio\2019\Community\VC\Tools\MSVC\14.29.30133\atlmfc\include\afxwin1.inl
; File D:\git\src\IBK\IBK_DRFN\ProjSrc\SrcChartEx\ChartAddIn\ChartDesignPropertyAddIn\Include_Chart\Dll_Load\IMetaTable.h
; File C:\Program Files (x86)\Microsoft Visual Studio\2019\Community\VC\Tools\MSVC\14.29.30133\atlmfc\include\afxwin1.inl
; File D:\git\src\IBK\IBK_DRFN\ProjSrc\SrcChartEx\ChartAddIn\ChartDesignPropertyAddIn\ChartDesignPropertyAddIn\MyTreeCtrl.cpp
; File C:\Program Files (x86)\Microsoft Visual Studio\2019\Community\VC\Tools\MSVC\14.29.30133\atlmfc\include\afxcmn.inl
; File D:\git\src\IBK\IBK_DRFN\ProjSrc\SrcChartEx\ChartAddIn\ChartDesignPropertyAddIn\ChartDesignPropertyAddIn\MyTreeCtrl.cpp
; File D:\git\src\IBK\IBK_DRFN\ProjSrc\SrcChartEx\ChartAddIn\ChartDesignPropertyAddIn\Include_Chart\Dll_Load\IMetaTable.h
; File C:\Program Files (x86)\Microsoft Visual Studio\2019\Community\VC\Tools\MSVC\14.29.30133\atlmfc\include\afxwin1.inl
; File D:\git\src\IBK\IBK_DRFN\ProjSrc\SrcChartEx\ChartAddIn\ChartDesignPropertyAddIn\ChartDesignPropertyAddIn\MyTreeCtrl.cpp
;	COMDAT ?OnTitlescalecolor@CMyTreeCtrl@@IAEXXZ
_TEXT	SEGMENT
___mlrs__$ = -948					; size = 4
_hItem$1$ = -944					; size = 4
_strStyleData$ = -940					; size = 4
_pItem$1$ = -936					; size = 4
$T2 = -936						; size = 4
_strTypeData$ = -932					; size = 4
_dlgGraph$ = -928					; size = 912
__$ArrayPad$ = -16					; size = 4
__$EHRec$ = -12						; size = 12
?OnTitlescalecolor@CMyTreeCtrl@@IAEXXZ PROC		; CMyTreeCtrl::OnTitlescalecolor, COMDAT
; _this$ = ecx

; 889  : {

  00000	55		 push	 ebp
  00001	8b ec		 mov	 ebp, esp
  00003	6a ff		 push	 -1
  00005	68 00 00 00 00	 push	 __ehhandler$?OnTitlescalecolor@CMyTreeCtrl@@IAEXXZ
  0000a	64 a1 00 00 00
	00		 mov	 eax, DWORD PTR fs:0
  00010	50		 push	 eax
  00011	81 ec a8 03 00
	00		 sub	 esp, 936		; 000003a8H
  00017	a1 00 00 00 00	 mov	 eax, DWORD PTR ___security_cookie
  0001c	33 c5		 xor	 eax, ebp
  0001e	89 45 f0	 mov	 DWORD PTR __$ArrayPad$[ebp], eax
  00021	53		 push	 ebx
  00022	56		 push	 esi
  00023	57		 push	 edi
  00024	50		 push	 eax
  00025	8d 45 f4	 lea	 eax, DWORD PTR __$EHRec$[ebp]
  00028	64 a3 00 00 00
	00		 mov	 DWORD PTR fs:0, eax
  0002e	8b d9		 mov	 ebx, ecx
; File C:\Program Files (x86)\Microsoft Visual Studio\2019\Community\VC\Tools\MSVC\14.29.30133\atlmfc\include\afxcmn.inl

; 316  : 	{ ASSERT(::IsWindow(m_hWnd)); return (HTREEITEM)::SendMessage(m_hWnd, TVM_GETNEXTITEM, TVGN_CARET, 0); }

  00030	6a 00		 push	 0
  00032	6a 09		 push	 9
  00034	68 0a 11 00 00	 push	 4362			; 0000110aH
  00039	ff 73 20	 push	 DWORD PTR [ebx+32]
  0003c	ff 15 00 00 00
	00		 call	 DWORD PTR __imp__SendMessageA@16
; File D:\git\src\IBK\IBK_DRFN\ProjSrc\SrcChartEx\ChartAddIn\ChartDesignPropertyAddIn\ChartDesignPropertyAddIn\MyTreeCtrl.cpp

; 890  : 	HTREEITEM hItem = GetSelectedItem();

  00042	89 85 50 fc ff
	ff		 mov	 DWORD PTR _hItem$1$[ebp], eax

; 891  : 	if(hItem == NULL) return;

  00048	85 c0		 test	 eax, eax
  0004a	0f 84 70 01 00
	00		 je	 $LN33@OnTitlesca

; 892  : 	CChartLink *pItem = m_clChartRoot.Find(hItem);

  00050	50		 push	 eax
  00051	8d 8b 00 01 00
	00		 lea	 ecx, DWORD PTR [ebx+256]
  00057	e8 00 00 00 00	 call	 ?Find@CChartLink@@QAEPAV1@PAU_TREEITEM@@@Z ; CChartLink::Find
  0005c	89 85 58 fc ff
	ff		 mov	 DWORD PTR _pItem$1$[ebp], eax

; 893  : 	if(pItem == NULL) return;

  00062	85 c0		 test	 eax, eax
  00064	0f 84 56 01 00
	00		 je	 $LN33@OnTitlesca

; 894  : 	if(pItem->m_iType == ROOT) return;

  0006a	83 78 10 00	 cmp	 DWORD PTR [eax+16], 0
  0006e	0f 84 4c 01 00
	00		 je	 $LN33@OnTitlesca

; 895  : 
; 896  : 	ML_SET_LANGUAGE_RES();

  00074	e8 00 00 00 00	 call	 ?AfxGetStaticModuleState@@YGPAVAFX_MODULE_STATE@@XZ ; AfxGetStaticModuleState
  00079	8b 48 08	 mov	 ecx, DWORD PTR [eax+8]
  0007c	51		 push	 ecx
  0007d	ff b3 04 02 00
	00		 push	 DWORD PTR [ebx+516]
  00083	b9 00 00 00 00	 mov	 ecx, OFFSET ?g_iMetaTable@@3VIMetaTable@@A ; g_iMetaTable
  00088	e8 00 00 00 00	 call	 ?LoadResourceDLL@IMetaTable@@QAEPAUHINSTANCE__@@PAUHWND__@@PAU2@@Z ; IMetaTable::LoadResourceDLL
  0008d	8b f8		 mov	 edi, eax
; File C:\Program Files (x86)\Microsoft Visual Studio\2019\Community\VC\Tools\MSVC\14.29.30133\atlmfc\include\afxwin1.inl

; 25   : 		return afxCurrentResourceHandle; }

  0008f	e8 00 00 00 00	 call	 ?AfxGetModuleState@@YGPAVAFX_MODULE_STATE@@XZ ; AfxGetModuleState
; File D:\git\src\IBK\IBK_DRFN\ProjSrc\SrcChartEx\ChartAddIn\ChartDesignPropertyAddIn\Include_Chart\Dll_Load\IMetaTable.h

; 1032 : 		m_hInstance = AfxGetResourceHandle();

  00094	8b 70 0c	 mov	 esi, DWORD PTR [eax+12]
  00097	89 b5 4c fc ff
	ff		 mov	 DWORD PTR ___mlrs__$[ebp], esi
; File C:\Program Files (x86)\Microsoft Visual Studio\2019\Community\VC\Tools\MSVC\14.29.30133\atlmfc\include\afxwin1.inl

; 27   : 	{ ASSERT(hInstResource != NULL); afxCurrentResourceHandle = hInstResource; }

  0009d	e8 00 00 00 00	 call	 ?AfxGetModuleState@@YGPAVAFX_MODULE_STATE@@XZ ; AfxGetModuleState
  000a2	89 78 0c	 mov	 DWORD PTR [eax+12], edi
; File D:\git\src\IBK\IBK_DRFN\ProjSrc\SrcChartEx\ChartAddIn\ChartDesignPropertyAddIn\ChartDesignPropertyAddIn\MyTreeCtrl.cpp

; 897  : 	CDlgGraphSetting dlgGraph(pItem, &m_LineColor, m_pIGraphInfoManager, m_hOcxWnd, this);

  000a5	8b bd 58 fc ff
	ff		 mov	 edi, DWORD PTR _pItem$1$[ebp]
  000ab	8d 83 b0 01 00
	00		 lea	 eax, DWORD PTR [ebx+432]
  000b1	53		 push	 ebx
  000b2	ff b3 04 02 00
	00		 push	 DWORD PTR [ebx+516]
  000b8	8d 8d 60 fc ff
	ff		 lea	 ecx, DWORD PTR _dlgGraph$[ebp]
  000be	c7 45 fc 00 00
	00 00		 mov	 DWORD PTR __$EHRec$[ebp+8], 0
  000c5	ff b3 00 02 00
	00		 push	 DWORD PTR [ebx+512]
  000cb	50		 push	 eax
  000cc	57		 push	 edi
  000cd	e8 00 00 00 00	 call	 ??0CDlgGraphSetting@@QAE@PAVCChartLink@@PAVCLineColor@@PAUIGraphInfoManager134661@@PAUHWND__@@PAVCWnd@@@Z ; CDlgGraphSetting::CDlgGraphSetting

; 898  :     dlgGraph.SetAllItemInfoOfPacketPage(m_strAllItemInfoOfPacketPage);

  000d2	8d 83 ec 01 00
	00		 lea	 eax, DWORD PTR [ebx+492]
  000d8	c6 45 fc 01	 mov	 BYTE PTR __$EHRec$[ebp+8], 1
  000dc	50		 push	 eax
  000dd	8d 8d 60 fc ff
	ff		 lea	 ecx, DWORD PTR _dlgGraph$[ebp]
  000e3	e8 00 00 00 00	 call	 ?SetAllItemInfoOfPacketPage@CDlgGraphSetting@@QAEXABV?$CStringT@DV?$StrTraitMFC_DLL@DV?$ChTraitsCRT@D@ATL@@@@@ATL@@@Z ; CDlgGraphSetting::SetAllItemInfoOfPacketPage

; 899  : 	dlgGraph.DoModal();

  000e8	8d 8d 60 fc ff
	ff		 lea	 ecx, DWORD PTR _dlgGraph$[ebp]
  000ee	e8 00 00 00 00	 call	 ?DoModal@CDialog@@UAEHXZ ; CDialog::DoModal

; 900  : 
; 901  : 	// (2006/10/25 - Seung-Won, Bae) Set Item Title with First SubGraph Type.
; 902  : 	int nGraphType = atoi( pItem->m_strSubGraphDatas.Left( 1));

  000f3	6a 01		 push	 1
  000f5	8d 85 58 fc ff
	ff		 lea	 eax, DWORD PTR $T2[ebp]
  000fb	50		 push	 eax
  000fc	8d 4f 28	 lea	 ecx, DWORD PTR [edi+40]
  000ff	ff 15 00 00 00
	00		 call	 DWORD PTR __imp_?Left@?$CStringT@DV?$StrTraitMFC_DLL@DV?$ChTraitsCRT@D@ATL@@@@@ATL@@QBE?AV12@H@Z
  00105	ff 30		 push	 DWORD PTR [eax]
  00107	ff 15 00 00 00
	00		 call	 DWORD PTR __imp__atoi
  0010d	83 c4 04	 add	 esp, 4
  00110	8d 8d 58 fc ff
	ff		 lea	 ecx, DWORD PTR $T2[ebp]
  00116	8b f8		 mov	 edi, eax
  00118	ff 15 00 00 00
	00		 call	 DWORD PTR __imp_??1?$CStringT@DV?$StrTraitMFC_DLL@DV?$ChTraitsCRT@D@ATL@@@@@ATL@@QAE@XZ

; 903  : 	CString strTypeData, strStyleData;

  0011e	8d 8d 5c fc ff
	ff		 lea	 ecx, DWORD PTR _strTypeData$[ebp]
  00124	ff 15 00 00 00
	00		 call	 DWORD PTR __imp_??0?$CStringT@DV?$StrTraitMFC_DLL@DV?$ChTraitsCRT@D@ATL@@@@@ATL@@QAE@XZ
  0012a	8d 8d 54 fc ff
	ff		 lea	 ecx, DWORD PTR _strStyleData$[ebp]
  00130	ff 15 00 00 00
	00		 call	 DWORD PTR __imp_??0?$CStringT@DV?$StrTraitMFC_DLL@DV?$ChTraitsCRT@D@ATL@@@@@ATL@@QAE@XZ

; 904  : 	if( !m_pIGraphInfoManager->GetGraphTypeAndStyle( nGraphType, 0, strTypeData, strStyleData)) return;

  00136	8b 8b 00 02 00
	00		 mov	 ecx, DWORD PTR [ebx+512]
  0013c	8d 95 54 fc ff
	ff		 lea	 edx, DWORD PTR _strStyleData$[ebp]
  00142	52		 push	 edx
  00143	8d 95 5c fc ff
	ff		 lea	 edx, DWORD PTR _strTypeData$[ebp]
  00149	c6 45 fc 03	 mov	 BYTE PTR __$EHRec$[ebp+8], 3
  0014d	52		 push	 edx
  0014e	8b 01		 mov	 eax, DWORD PTR [ecx]
  00150	6a 00		 push	 0
  00152	57		 push	 edi
  00153	ff 50 24	 call	 DWORD PTR [eax+36]
  00156	85 c0		 test	 eax, eax
  00158	74 34		 je	 SHORT $LN12@OnTitlesca

; 905  : 	SetItemText( hItem, _MTOL5( strTypeData));

  0015a	6a 00		 push	 0
  0015c	ff b5 5c fc ff
	ff		 push	 DWORD PTR _strTypeData$[ebp]
  00162	b9 00 00 00 00	 mov	 ecx, OFFSET ?g_iMetaTable@@3VIMetaTable@@A ; g_iMetaTable
  00167	6a 05		 push	 5
  00169	ff b3 04 02 00
	00		 push	 DWORD PTR [ebx+516]
  0016f	e8 00 00 00 00	 call	 ?GetLanguageText@IMetaTable@@QAEPBDPAUHWND__@@W4E_CODEPAGE@1@PBDH@Z ; IMetaTable::GetLanguageText
; File C:\Program Files (x86)\Microsoft Visual Studio\2019\Community\VC\Tools\MSVC\14.29.30133\atlmfc\include\afxcmn.inl

; 336  : 	{ ASSERT(::IsWindow(m_hWnd)); return SetItem(hItem, TVIF_TEXT, lpszItem, 0, 0, 0, 0, NULL); }

  00174	6a 00		 push	 0
  00176	6a 00		 push	 0
  00178	6a 00		 push	 0
  0017a	6a 00		 push	 0
  0017c	6a 00		 push	 0
  0017e	50		 push	 eax
  0017f	6a 01		 push	 1
  00181	ff b5 50 fc ff
	ff		 push	 DWORD PTR _hItem$1$[ebp]
  00187	8b cb		 mov	 ecx, ebx
  00189	e8 00 00 00 00	 call	 ?SetItem@CTreeCtrl@@QAEHPAU_TREEITEM@@IPBDHHIIJ@Z ; CTreeCtrl::SetItem
$LN12@OnTitlesca:
; File D:\git\src\IBK\IBK_DRFN\ProjSrc\SrcChartEx\ChartAddIn\ChartDesignPropertyAddIn\ChartDesignPropertyAddIn\MyTreeCtrl.cpp

; 906  : }

  0018e	8d 8d 54 fc ff
	ff		 lea	 ecx, DWORD PTR _strStyleData$[ebp]
  00194	ff 15 00 00 00
	00		 call	 DWORD PTR __imp_??1?$CStringT@DV?$StrTraitMFC_DLL@DV?$ChTraitsCRT@D@ATL@@@@@ATL@@QAE@XZ
  0019a	8d 8d 5c fc ff
	ff		 lea	 ecx, DWORD PTR _strTypeData$[ebp]
  001a0	ff 15 00 00 00
	00		 call	 DWORD PTR __imp_??1?$CStringT@DV?$StrTraitMFC_DLL@DV?$ChTraitsCRT@D@ATL@@@@@ATL@@QAE@XZ
  001a6	8d 8d 60 fc ff
	ff		 lea	 ecx, DWORD PTR _dlgGraph$[ebp]
  001ac	e8 00 00 00 00	 call	 ??1CDlgGraphSetting@@UAE@XZ ; CDlgGraphSetting::~CDlgGraphSetting
; File D:\git\src\IBK\IBK_DRFN\ProjSrc\SrcChartEx\ChartAddIn\ChartDesignPropertyAddIn\Include_Chart\Dll_Load\IMetaTable.h

; 1036 : 	{

  001b1	c7 45 fc 05 00
	00 00		 mov	 DWORD PTR __$EHRec$[ebp+8], 5
; File C:\Program Files (x86)\Microsoft Visual Studio\2019\Community\VC\Tools\MSVC\14.29.30133\atlmfc\include\afxwin1.inl

; 27   : 	{ ASSERT(hInstResource != NULL); afxCurrentResourceHandle = hInstResource; }

  001b8	e8 00 00 00 00	 call	 ?AfxGetModuleState@@YGPAVAFX_MODULE_STATE@@XZ ; AfxGetModuleState
  001bd	89 70 0c	 mov	 DWORD PTR [eax+12], esi
$LN33@OnTitlesca:
; File D:\git\src\IBK\IBK_DRFN\ProjSrc\SrcChartEx\ChartAddIn\ChartDesignPropertyAddIn\ChartDesignPropertyAddIn\MyTreeCtrl.cpp

; 906  : }

  001c0	8b 4d f4	 mov	 ecx, DWORD PTR __$EHRec$[ebp]
  001c3	64 89 0d 00 00
	00 00		 mov	 DWORD PTR fs:0, ecx
  001ca	59		 pop	 ecx
  001cb	5f		 pop	 edi
  001cc	5e		 pop	 esi
  001cd	5b		 pop	 ebx
  001ce	8b 4d f0	 mov	 ecx, DWORD PTR __$ArrayPad$[ebp]
  001d1	33 cd		 xor	 ecx, ebp
  001d3	e8 00 00 00 00	 call	 @__security_check_cookie@4
  001d8	8b e5		 mov	 esp, ebp
  001da	5d		 pop	 ebp
  001db	c3		 ret	 0
_TEXT	ENDS
;	COMDAT text$x
text$x	SEGMENT
__unwindfunclet$?OnTitlescalecolor@CMyTreeCtrl@@IAEXXZ$0:
  00000	8d 8d 4c fc ff
	ff		 lea	 ecx, DWORD PTR ___mlrs__$[ebp]
  00006	e9 00 00 00 00	 jmp	 ??1CMultiLanguageResourceSetter@@QAE@XZ ; CMultiLanguageResourceSetter::~CMultiLanguageResourceSetter
__unwindfunclet$?OnTitlescalecolor@CMyTreeCtrl@@IAEXXZ$1:
  0000b	8d 8d 60 fc ff
	ff		 lea	 ecx, DWORD PTR _dlgGraph$[ebp]
  00011	e9 00 00 00 00	 jmp	 ??1CDlgGraphSetting@@UAE@XZ ; CDlgGraphSetting::~CDlgGraphSetting
__unwindfunclet$?OnTitlescalecolor@CMyTreeCtrl@@IAEXXZ$3:
  00016	8d 8d 5c fc ff
	ff		 lea	 ecx, DWORD PTR _strTypeData$[ebp]
  0001c	ff 25 00 00 00
	00		 jmp	 DWORD PTR __imp_??1?$CStringT@DV?$StrTraitMFC_DLL@DV?$ChTraitsCRT@D@ATL@@@@@ATL@@QAE@XZ
__unwindfunclet$?OnTitlescalecolor@CMyTreeCtrl@@IAEXXZ$4:
  00022	8d 8d 54 fc ff
	ff		 lea	 ecx, DWORD PTR _strStyleData$[ebp]
  00028	ff 25 00 00 00
	00		 jmp	 DWORD PTR __imp_??1?$CStringT@DV?$StrTraitMFC_DLL@DV?$ChTraitsCRT@D@ATL@@@@@ATL@@QAE@XZ
  0002e	cc		 int	 3
  0002f	cc		 int	 3
  00030	cc		 int	 3
  00031	cc		 int	 3
  00032	cc		 int	 3
__ehhandler$?OnTitlescalecolor@CMyTreeCtrl@@IAEXXZ:
  00033	90		 npad	 1
  00034	90		 npad	 1
  00035	8b 54 24 08	 mov	 edx, DWORD PTR [esp+8]
  00039	8d 42 0c	 lea	 eax, DWORD PTR [edx+12]
  0003c	8b 8a 48 fc ff
	ff		 mov	 ecx, DWORD PTR [edx-952]
  00042	33 c8		 xor	 ecx, eax
  00044	e8 00 00 00 00	 call	 @__security_check_cookie@4
  00049	8b 4a fc	 mov	 ecx, DWORD PTR [edx-4]
  0004c	33 c8		 xor	 ecx, eax
  0004e	e8 00 00 00 00	 call	 @__security_check_cookie@4
  00053	b8 00 00 00 00	 mov	 eax, OFFSET __ehfuncinfo$?OnTitlescalecolor@CMyTreeCtrl@@IAEXXZ
  00058	e9 00 00 00 00	 jmp	 ___CxxFrameHandler3
text$x	ENDS
?OnTitlescalecolor@CMyTreeCtrl@@IAEXXZ ENDP		; CMyTreeCtrl::OnTitlescalecolor
; Function compile flags: /Ogtp
; File D:\git\src\IBK\IBK_DRFN\ProjSrc\SrcChartEx\ChartAddIn\ChartDesignPropertyAddIn\ChartDesignPropertyAddIn\MyTreeCtrl.cpp
; File C:\Program Files (x86)\Microsoft Visual Studio\2019\Community\VC\Tools\MSVC\14.29.30133\atlmfc\include\afxwin2.inl
; File D:\git\src\IBK\IBK_DRFN\ProjSrc\SrcChartEx\ChartAddIn\ChartDesignPropertyAddIn\ChartDesignPropertyAddIn\MyTreeCtrl.cpp
; File C:\Program Files (x86)\Microsoft Visual Studio\2019\Community\VC\Tools\MSVC\14.29.30133\atlmfc\include\afxcmn.inl
; File D:\git\src\IBK\IBK_DRFN\ProjSrc\SrcChartEx\ChartAddIn\ChartDesignPropertyAddIn\ChartDesignPropertyAddIn\MyTreeCtrl.cpp
; File C:\Program Files (x86)\Microsoft Visual Studio\2019\Community\VC\Tools\MSVC\14.29.30133\atlmfc\include\afxwin1.inl
; File D:\git\src\IBK\IBK_DRFN\ProjSrc\SrcChartEx\ChartAddIn\ChartDesignPropertyAddIn\ChartDesignPropertyAddIn\MyTreeCtrl.cpp
; File C:\Program Files (x86)\Microsoft Visual Studio\2019\Community\VC\Tools\MSVC\14.29.30133\atlmfc\include\afxwin1.inl
; File D:\git\src\IBK\IBK_DRFN\ProjSrc\SrcChartEx\ChartAddIn\ChartDesignPropertyAddIn\Include_Chart\Dll_Load\IMetaTable.h
; File C:\Program Files (x86)\Microsoft Visual Studio\2019\Community\VC\Tools\MSVC\14.29.30133\atlmfc\include\afxwin1.inl
; File D:\git\src\IBK\IBK_DRFN\ProjSrc\SrcChartEx\ChartAddIn\ChartDesignPropertyAddIn\ChartDesignPropertyAddIn\MyTreeCtrl.cpp
; File C:\Program Files (x86)\Microsoft Visual Studio\2019\Community\VC\Tools\MSVC\14.29.30133\atlmfc\include\afxwin1.inl
; File D:\git\src\IBK\IBK_DRFN\ProjSrc\SrcChartEx\ChartAddIn\ChartDesignPropertyAddIn\ChartDesignPropertyAddIn\MyTreeCtrl.cpp
; File C:\Program Files (x86)\Microsoft Visual Studio\2019\Community\VC\Tools\MSVC\14.29.30133\atlmfc\include\afxwin1.inl
; File D:\git\src\IBK\IBK_DRFN\ProjSrc\SrcChartEx\ChartAddIn\ChartDesignPropertyAddIn\ChartDesignPropertyAddIn\MyTreeCtrl.cpp
; File C:\Program Files (x86)\Microsoft Visual Studio\2019\Community\VC\Tools\MSVC\14.29.30133\atlmfc\include\afxwin1.inl
; File D:\git\src\IBK\IBK_DRFN\ProjSrc\SrcChartEx\ChartAddIn\ChartDesignPropertyAddIn\ChartDesignPropertyAddIn\MyTreeCtrl.cpp
; File C:\Program Files (x86)\Microsoft Visual Studio\2019\Community\VC\Tools\MSVC\14.29.30133\atlmfc\include\afxwin1.inl
; File D:\git\src\IBK\IBK_DRFN\ProjSrc\SrcChartEx\ChartAddIn\ChartDesignPropertyAddIn\ChartDesignPropertyAddIn\MyTreeCtrl.cpp
; File C:\Program Files (x86)\Microsoft Visual Studio\2019\Community\VC\Tools\MSVC\14.29.30133\atlmfc\include\afxwin1.inl
; File D:\git\src\IBK\IBK_DRFN\ProjSrc\SrcChartEx\ChartAddIn\ChartDesignPropertyAddIn\ChartDesignPropertyAddIn\MyTreeCtrl.cpp
; File C:\Program Files (x86)\Microsoft Visual Studio\2019\Community\VC\Tools\MSVC\14.29.30133\atlmfc\include\afxwin2.inl
; File D:\git\src\IBK\IBK_DRFN\ProjSrc\SrcChartEx\ChartAddIn\ChartDesignPropertyAddIn\ChartDesignPropertyAddIn\MyTreeCtrl.cpp
; File D:\git\src\IBK\IBK_DRFN\ProjSrc\SrcChartEx\ChartAddIn\ChartDesignPropertyAddIn\Include_Chart\Dll_Load\IMetaTable.h
; File C:\Program Files (x86)\Microsoft Visual Studio\2019\Community\VC\Tools\MSVC\14.29.30133\atlmfc\include\afxwin1.inl
; File D:\git\src\IBK\IBK_DRFN\ProjSrc\SrcChartEx\ChartAddIn\ChartDesignPropertyAddIn\ChartDesignPropertyAddIn\MyTreeCtrl.cpp
;	COMDAT ?OnRButtonDown@CMyTreeCtrl@@IAEXIVCPoint@@@Z
_TEXT	SEGMENT
_Context$ = -32						; size = 8
___mlrs__$ = -24					; size = 4
_pItem$1$ = -20						; size = 4
_uHitTest$ = -16					; size = 4
__$EHRec$ = -12						; size = 12
_nFlags$ = 8						; size = 4
_point$ = 12						; size = 8
?OnRButtonDown@CMyTreeCtrl@@IAEXIVCPoint@@@Z PROC	; CMyTreeCtrl::OnRButtonDown, COMDAT
; _this$ = ecx

; 408  : {

  00000	55		 push	 ebp
  00001	8b ec		 mov	 ebp, esp
  00003	6a ff		 push	 -1
  00005	68 00 00 00 00	 push	 __ehhandler$?OnRButtonDown@CMyTreeCtrl@@IAEXIVCPoint@@@Z
  0000a	64 a1 00 00 00
	00		 mov	 eax, DWORD PTR fs:0
  00010	50		 push	 eax
  00011	83 ec 14	 sub	 esp, 20			; 00000014H
  00014	53		 push	 ebx
  00015	56		 push	 esi
  00016	57		 push	 edi
  00017	a1 00 00 00 00	 mov	 eax, DWORD PTR ___security_cookie
  0001c	33 c5		 xor	 eax, ebp
  0001e	50		 push	 eax
  0001f	8d 45 f4	 lea	 eax, DWORD PTR __$EHRec$[ebp]
  00022	64 a3 00 00 00
	00		 mov	 DWORD PTR fs:0, eax
  00028	8b d9		 mov	 ebx, ecx
; File C:\Program Files (x86)\Microsoft Visual Studio\2019\Community\VC\Tools\MSVC\14.29.30133\atlmfc\include\afxwin2.inl

; 462  : 	{ Default(); }

  0002a	e8 00 00 00 00	 call	 ?Default@CWnd@@IAEJXZ	; CWnd::Default
; File D:\git\src\IBK\IBK_DRFN\ProjSrc\SrcChartEx\ChartAddIn\ChartDesignPropertyAddIn\ChartDesignPropertyAddIn\MyTreeCtrl.cpp

; 411  : 	HTREEITEM hItem = HitTest( point, &uHitTest );

  0002f	8d 45 f0	 lea	 eax, DWORD PTR _uHitTest$[ebp]
  00032	c7 45 f0 46 00
	00 00		 mov	 DWORD PTR _uHitTest$[ebp], 70 ; 00000046H
  00039	50		 push	 eax
  0003a	ff 75 10	 push	 DWORD PTR _point$[ebp+4]
  0003d	8b cb		 mov	 ecx, ebx
  0003f	ff 75 0c	 push	 DWORD PTR _point$[ebp]
  00042	e8 00 00 00 00	 call	 ?HitTest@CTreeCtrl@@QBEPAU_TREEITEM@@VCPoint@@PAI@Z ; CTreeCtrl::HitTest
  00047	8b f0		 mov	 esi, eax

; 412  : 	if(hItem == NULL) return;

  00049	85 f6		 test	 esi, esi
  0004b	0f 84 33 01 00
	00		 je	 $LN44@OnRButtonD
; File C:\Program Files (x86)\Microsoft Visual Studio\2019\Community\VC\Tools\MSVC\14.29.30133\atlmfc\include\afxcmn.inl

; 326  : 	{ ASSERT(::IsWindow(m_hWnd)); return (BOOL) ::SendMessage(m_hWnd, TVM_SELECTITEM, TVGN_CARET, (LPARAM)hItem); }

  00051	56		 push	 esi
  00052	6a 09		 push	 9
  00054	68 0b 11 00 00	 push	 4363			; 0000110bH
  00059	ff 73 20	 push	 DWORD PTR [ebx+32]
  0005c	ff 15 00 00 00
	00		 call	 DWORD PTR __imp__SendMessageA@16
; File D:\git\src\IBK\IBK_DRFN\ProjSrc\SrcChartEx\ChartAddIn\ChartDesignPropertyAddIn\ChartDesignPropertyAddIn\MyTreeCtrl.cpp

; 415  : 	CChartLink *pItem	= m_clChartRoot.Find(hItem);

  00062	56		 push	 esi
  00063	8d 8b 00 01 00
	00		 lea	 ecx, DWORD PTR [ebx+256]
  00069	e8 00 00 00 00	 call	 ?Find@CChartLink@@QAEPAV1@PAU_TREEITEM@@@Z ; CChartLink::Find
  0006e	89 45 ec	 mov	 DWORD PTR _pItem$1$[ebp], eax
; File C:\Program Files (x86)\Microsoft Visual Studio\2019\Community\VC\Tools\MSVC\14.29.30133\atlmfc\include\afxwin1.inl

; 903  : 	{ m_hMenu = NULL; }

  00071	c7 45 e0 00 00
	00 00		 mov	 DWORD PTR _Context$[ebp], OFFSET ??_7CMenu@@6B@
  00078	c7 45 e4 00 00
	00 00		 mov	 DWORD PTR _Context$[ebp+4], 0
; File D:\git\src\IBK\IBK_DRFN\ProjSrc\SrcChartEx\ChartAddIn\ChartDesignPropertyAddIn\ChartDesignPropertyAddIn\MyTreeCtrl.cpp

; 418  : 	CMenu Context, *Popup = NULL ;

  0007f	c7 45 fc 00 00
	00 00		 mov	 DWORD PTR __$EHRec$[ebp+8], 0

; 419  : 
; 420  : 	ML_SET_LANGUAGE_RES();

  00086	e8 00 00 00 00	 call	 ?AfxGetStaticModuleState@@YGPAVAFX_MODULE_STATE@@XZ ; AfxGetStaticModuleState
  0008b	8b 48 08	 mov	 ecx, DWORD PTR [eax+8]
  0008e	51		 push	 ecx
  0008f	ff b3 04 02 00
	00		 push	 DWORD PTR [ebx+516]
  00095	b9 00 00 00 00	 mov	 ecx, OFFSET ?g_iMetaTable@@3VIMetaTable@@A ; g_iMetaTable
  0009a	e8 00 00 00 00	 call	 ?LoadResourceDLL@IMetaTable@@QAEPAUHINSTANCE__@@PAUHWND__@@PAU2@@Z ; IMetaTable::LoadResourceDLL
  0009f	8b f8		 mov	 edi, eax
; File C:\Program Files (x86)\Microsoft Visual Studio\2019\Community\VC\Tools\MSVC\14.29.30133\atlmfc\include\afxwin1.inl

; 25   : 		return afxCurrentResourceHandle; }

  000a1	e8 00 00 00 00	 call	 ?AfxGetModuleState@@YGPAVAFX_MODULE_STATE@@XZ ; AfxGetModuleState
; File D:\git\src\IBK\IBK_DRFN\ProjSrc\SrcChartEx\ChartAddIn\ChartDesignPropertyAddIn\Include_Chart\Dll_Load\IMetaTable.h

; 1032 : 		m_hInstance = AfxGetResourceHandle();

  000a6	8b 70 0c	 mov	 esi, DWORD PTR [eax+12]
  000a9	89 75 e8	 mov	 DWORD PTR ___mlrs__$[ebp], esi
; File C:\Program Files (x86)\Microsoft Visual Studio\2019\Community\VC\Tools\MSVC\14.29.30133\atlmfc\include\afxwin1.inl

; 27   : 	{ ASSERT(hInstResource != NULL); afxCurrentResourceHandle = hInstResource; }

  000ac	e8 00 00 00 00	 call	 ?AfxGetModuleState@@YGPAVAFX_MODULE_STATE@@XZ ; AfxGetModuleState
  000b1	89 78 0c	 mov	 DWORD PTR [eax+12], edi
; File D:\git\src\IBK\IBK_DRFN\ProjSrc\SrcChartEx\ChartAddIn\ChartDesignPropertyAddIn\ChartDesignPropertyAddIn\MyTreeCtrl.cpp

; 421  : 	if(pItem != NULL && pItem->m_iType == ROOT)

  000b4	8b 45 ec	 mov	 eax, DWORD PTR _pItem$1$[ebp]
  000b7	c6 45 fc 01	 mov	 BYTE PTR __$EHRec$[ebp+8], 1
  000bb	85 c0		 test	 eax, eax
  000bd	0f 84 9f 00 00
	00		 je	 $LN10@OnRButtonD
  000c3	8b 40 10	 mov	 eax, DWORD PTR [eax+16]
  000c6	85 c0		 test	 eax, eax
  000c8	75 0e		 jne	 SHORT $LN46@OnRButtonD
; File C:\Program Files (x86)\Microsoft Visual Studio\2019\Community\VC\Tools\MSVC\14.29.30133\atlmfc\include\afxwin1.inl

; 977  : 	{ return Attach(::LoadMenuW(AfxFindResourceHandle(

  000ca	68 7a 1b 00 00	 push	 7034			; 00001b7aH
  000cf	6a 04		 push	 4
  000d1	68 7a 1b 00 00	 push	 7034			; 00001b7aH
; File D:\git\src\IBK\IBK_DRFN\ProjSrc\SrcChartEx\ChartAddIn\ChartDesignPropertyAddIn\ChartDesignPropertyAddIn\MyTreeCtrl.cpp

; 422  : 		bResult	= Context.LoadMenu(IDR_BLOCKMENU);

  000d6	eb 37		 jmp	 SHORT $LN50@OnRButtonD
$LN46@OnRButtonD:

; 423  : 	else if(pItem != NULL && pItem->m_iType == BLOCK)

  000d8	83 f8 01	 cmp	 eax, 1
  000db	75 0e		 jne	 SHORT $LN47@OnRButtonD
; File C:\Program Files (x86)\Microsoft Visual Studio\2019\Community\VC\Tools\MSVC\14.29.30133\atlmfc\include\afxwin1.inl

; 977  : 	{ return Attach(::LoadMenuW(AfxFindResourceHandle(

  000dd	68 7a 1b 00 00	 push	 7034			; 00001b7aH
  000e2	6a 04		 push	 4
  000e4	68 7a 1b 00 00	 push	 7034			; 00001b7aH
; File D:\git\src\IBK\IBK_DRFN\ProjSrc\SrcChartEx\ChartAddIn\ChartDesignPropertyAddIn\ChartDesignPropertyAddIn\MyTreeCtrl.cpp

; 424  : 		bResult	= Context.LoadMenu(IDR_BLOCKMENU);

  000e9	eb 24		 jmp	 SHORT $LN50@OnRButtonD
$LN47@OnRButtonD:

; 425  : 	else if(pItem != NULL && pItem->m_iType == VERT_SCALE)

  000eb	83 f8 02	 cmp	 eax, 2
  000ee	75 0e		 jne	 SHORT $LN48@OnRButtonD
; File C:\Program Files (x86)\Microsoft Visual Studio\2019\Community\VC\Tools\MSVC\14.29.30133\atlmfc\include\afxwin1.inl

; 977  : 	{ return Attach(::LoadMenuW(AfxFindResourceHandle(

  000f0	68 85 1b 00 00	 push	 7045			; 00001b85H
  000f5	6a 04		 push	 4
  000f7	68 85 1b 00 00	 push	 7045			; 00001b85H
; File D:\git\src\IBK\IBK_DRFN\ProjSrc\SrcChartEx\ChartAddIn\ChartDesignPropertyAddIn\ChartDesignPropertyAddIn\MyTreeCtrl.cpp

; 426  : 		bResult	= Context.LoadMenu(IDR_VERT_SCALE_MENU);

  000fc	eb 11		 jmp	 SHORT $LN50@OnRButtonD
$LN48@OnRButtonD:

; 427  : 	else if(pItem != NULL && pItem->m_iType == GRAPH)

  000fe	83 f8 03	 cmp	 eax, 3
  00101	75 5f		 jne	 SHORT $LN10@OnRButtonD
; File C:\Program Files (x86)\Microsoft Visual Studio\2019\Community\VC\Tools\MSVC\14.29.30133\atlmfc\include\afxwin1.inl

; 977  : 	{ return Attach(::LoadMenuW(AfxFindResourceHandle(

  00103	68 6f 1b 00 00	 push	 7023			; 00001b6fH
  00108	6a 04		 push	 4
  0010a	68 6f 1b 00 00	 push	 7023			; 00001b6fH
$LN50@OnRButtonD:
; File D:\git\src\IBK\IBK_DRFN\ProjSrc\SrcChartEx\ChartAddIn\ChartDesignPropertyAddIn\ChartDesignPropertyAddIn\MyTreeCtrl.cpp

; 430  : 	if(bResult)

  0010f	e8 00 00 00 00	 call	 ?AfxFindResourceHandle@@YGPAUHINSTANCE__@@PBD0@Z ; AfxFindResourceHandle
  00114	50		 push	 eax
  00115	ff 15 00 00 00
	00		 call	 DWORD PTR __imp__LoadMenuW@8
  0011b	50		 push	 eax
  0011c	8d 4d e0	 lea	 ecx, DWORD PTR _Context$[ebp]
  0011f	e8 00 00 00 00	 call	 ?Attach@CMenu@@QAEHPAUHMENU__@@@Z ; CMenu::Attach
  00124	85 c0		 test	 eax, eax
  00126	74 3a		 je	 SHORT $LN10@OnRButtonD
; File C:\Program Files (x86)\Microsoft Visual Studio\2019\Community\VC\Tools\MSVC\14.29.30133\atlmfc\include\afxwin1.inl

; 951  : 	{ ASSERT(::IsMenu(m_hMenu)); return CMenu::FromHandle(::GetSubMenu(m_hMenu, nPos)); }

  00128	6a 00		 push	 0
  0012a	ff 75 e4	 push	 DWORD PTR _Context$[ebp+4]
  0012d	ff 15 00 00 00
	00		 call	 DWORD PTR __imp__GetSubMenu@8
  00133	50		 push	 eax
  00134	e8 00 00 00 00	 call	 ?FromHandle@CMenu@@SGPAV1@PAUHMENU__@@@Z ; CMenu::FromHandle
; File D:\git\src\IBK\IBK_DRFN\ProjSrc\SrcChartEx\ChartAddIn\ChartDesignPropertyAddIn\ChartDesignPropertyAddIn\MyTreeCtrl.cpp

; 432  : 		Popup = Context.GetSubMenu(0);		

  00139	8b f8		 mov	 edi, eax
; File C:\Program Files (x86)\Microsoft Visual Studio\2019\Community\VC\Tools\MSVC\14.29.30133\atlmfc\include\afxwin2.inl

; 92   : 	{ ASSERT(::IsWindow(m_hWnd)); ::ClientToScreen(m_hWnd, lpPoint); }

  0013b	8d 45 0c	 lea	 eax, DWORD PTR _point$[ebp]
  0013e	50		 push	 eax
  0013f	ff 73 20	 push	 DWORD PTR [ebx+32]
  00142	ff 15 00 00 00
	00		 call	 DWORD PTR __imp__ClientToScreen@8
; File D:\git\src\IBK\IBK_DRFN\ProjSrc\SrcChartEx\ChartAddIn\ChartDesignPropertyAddIn\ChartDesignPropertyAddIn\MyTreeCtrl.cpp

; 434  : 		BOOL brack = Popup->TrackPopupMenu(TPM_LEFTALIGN|TPM_RIGHTBUTTON,

  00148	6a 00		 push	 0
  0014a	53		 push	 ebx
  0014b	ff 75 10	 push	 DWORD PTR _point$[ebp+4]
  0014e	8b cf		 mov	 ecx, edi
  00150	ff 75 0c	 push	 DWORD PTR _point$[ebp]
  00153	6a 02		 push	 2
  00155	e8 00 00 00 00	 call	 ?TrackPopupMenu@CMenu@@QAEHIHHPAVCWnd@@PBUtagRECT@@@Z ; CMenu::TrackPopupMenu

; 435  : 					point.x, point.y, this, NULL);
; 436  : 		Context.DestroyMenu();

  0015a	8d 4d e0	 lea	 ecx, DWORD PTR _Context$[ebp]
  0015d	e8 00 00 00 00	 call	 ?DestroyMenu@CMenu@@QAEHXZ ; CMenu::DestroyMenu
$LN10@OnRButtonD:
; File D:\git\src\IBK\IBK_DRFN\ProjSrc\SrcChartEx\ChartAddIn\ChartDesignPropertyAddIn\Include_Chart\Dll_Load\IMetaTable.h

; 1036 : 	{

  00162	c6 45 fc 02	 mov	 BYTE PTR __$EHRec$[ebp+8], 2
; File C:\Program Files (x86)\Microsoft Visual Studio\2019\Community\VC\Tools\MSVC\14.29.30133\atlmfc\include\afxwin1.inl

; 27   : 	{ ASSERT(hInstResource != NULL); afxCurrentResourceHandle = hInstResource; }

  00166	e8 00 00 00 00	 call	 ?AfxGetModuleState@@YGPAVAFX_MODULE_STATE@@XZ ; AfxGetModuleState
  0016b	89 70 0c	 mov	 DWORD PTR [eax+12], esi

; 905  : 	{ DestroyMenu(); }

  0016e	8d 4d e0	 lea	 ecx, DWORD PTR _Context$[ebp]
  00171	c7 45 fc 03 00
	00 00		 mov	 DWORD PTR __$EHRec$[ebp+8], 3
  00178	c7 45 e0 00 00
	00 00		 mov	 DWORD PTR _Context$[ebp], OFFSET ??_7CMenu@@6B@
  0017f	e8 00 00 00 00	 call	 ?DestroyMenu@CMenu@@QAEHXZ ; CMenu::DestroyMenu
$LN44@OnRButtonD:
; File D:\git\src\IBK\IBK_DRFN\ProjSrc\SrcChartEx\ChartAddIn\ChartDesignPropertyAddIn\ChartDesignPropertyAddIn\MyTreeCtrl.cpp

; 438  : }

  00184	8b 4d f4	 mov	 ecx, DWORD PTR __$EHRec$[ebp]
  00187	64 89 0d 00 00
	00 00		 mov	 DWORD PTR fs:0, ecx
  0018e	59		 pop	 ecx
  0018f	5f		 pop	 edi
  00190	5e		 pop	 esi
  00191	5b		 pop	 ebx
  00192	8b e5		 mov	 esp, ebp
  00194	5d		 pop	 ebp
  00195	c2 0c 00	 ret	 12			; 0000000cH
_TEXT	ENDS
;	COMDAT text$x
text$x	SEGMENT
__unwindfunclet$?OnRButtonDown@CMyTreeCtrl@@IAEXIVCPoint@@@Z$0:
  00000	8d 4d e0	 lea	 ecx, DWORD PTR _Context$[ebp]
  00003	e9 00 00 00 00	 jmp	 ??1CMenu@@UAE@XZ	; CMenu::~CMenu
__unwindfunclet$?OnRButtonDown@CMyTreeCtrl@@IAEXIVCPoint@@@Z$1:
  00008	8d 4d e8	 lea	 ecx, DWORD PTR ___mlrs__$[ebp]
  0000b	e9 00 00 00 00	 jmp	 ??1CMultiLanguageResourceSetter@@QAE@XZ ; CMultiLanguageResourceSetter::~CMultiLanguageResourceSetter
  00010	cc		 int	 3
  00011	cc		 int	 3
  00012	cc		 int	 3
  00013	cc		 int	 3
  00014	cc		 int	 3
__ehhandler$?OnRButtonDown@CMyTreeCtrl@@IAEXIVCPoint@@@Z:
  00015	90		 npad	 1
  00016	90		 npad	 1
  00017	8b 54 24 08	 mov	 edx, DWORD PTR [esp+8]
  0001b	8d 42 0c	 lea	 eax, DWORD PTR [edx+12]
  0001e	8b 4a dc	 mov	 ecx, DWORD PTR [edx-36]
  00021	33 c8		 xor	 ecx, eax
  00023	e8 00 00 00 00	 call	 @__security_check_cookie@4
  00028	b8 00 00 00 00	 mov	 eax, OFFSET __ehfuncinfo$?OnRButtonDown@CMyTreeCtrl@@IAEXIVCPoint@@@Z
  0002d	e9 00 00 00 00	 jmp	 ___CxxFrameHandler3
text$x	ENDS
?OnRButtonDown@CMyTreeCtrl@@IAEXIVCPoint@@@Z ENDP	; CMyTreeCtrl::OnRButtonDown
; Function compile flags: /Ogtp
; File D:\git\src\IBK\IBK_DRFN\ProjSrc\SrcChartEx\ChartAddIn\ChartDesignPropertyAddIn\ChartDesignPropertyAddIn\MyTreeCtrl.cpp
; File C:\Program Files (x86)\Microsoft Visual Studio\2019\Community\VC\Tools\MSVC\14.29.30133\atlmfc\include\atlsimpstr.h
; File D:\git\src\IBK\IBK_DRFN\ProjSrc\SrcChartEx\ChartAddIn\ChartDesignPropertyAddIn\ChartDesignPropertyAddIn\MyTreeCtrl.cpp
;	COMDAT ?OnBegindrag@CMyTreeCtrl@@IAEXPAUtagNMHDR@@PAJ@Z
_TEXT	SEGMENT
_pNMHDR$ = 8						; size = 4
_pResult$ = 12						; size = 4
?OnBegindrag@CMyTreeCtrl@@IAEXPAUtagNMHDR@@PAJ@Z PROC	; CMyTreeCtrl::OnBegindrag, COMDAT
; _this$ = ecx

; 71   : {

  00000	55		 push	 ebp
  00001	8b ec		 mov	 ebp, esp

; 72   : 	NM_TREEVIEW* pNMTreeView = (NM_TREEVIEW*)pNMHDR;
; 73   : 	// TODO: Add your control notification handler code here
; 74   : 	
; 75   : 	*pResult = 0;

  00003	8b 45 0c	 mov	 eax, DWORD PTR _pResult$[ebp]
  00006	56		 push	 esi
  00007	57		 push	 edi
  00008	8b f9		 mov	 edi, ecx
  0000a	c7 00 00 00 00
	00		 mov	 DWORD PTR [eax], 0

; 76   : 
; 77   : 	HTREEITEM hDragItem = pNMTreeView->itemNew.hItem;

  00010	8b 45 08	 mov	 eax, DWORD PTR _pNMHDR$[ebp]
  00013	8b 70 3c	 mov	 esi, DWORD PTR [eax+60]

; 78   : 	if( !hDragItem) return;

  00016	85 f6		 test	 esi, esi
  00018	0f 84 24 01 00
	00		 je	 $LN6@OnBegindra

; 79   : 
; 80   : 	m_pSelectItem = m_clChartRoot.Find(hDragItem);

  0001e	56		 push	 esi
  0001f	8d 8f 00 01 00
	00		 lea	 ecx, DWORD PTR [edi+256]
  00025	e8 00 00 00 00	 call	 ?Find@CChartLink@@QAEPAV1@PAU_TREEITEM@@@Z ; CChartLink::Find
  0002a	89 87 fc 01 00
	00		 mov	 DWORD PTR [edi+508], eax

; 81   : 	if( m_pSelectItem == NULL) return;

  00030	85 c0		 test	 eax, eax
  00032	0f 84 0a 01 00
	00		 je	 $LN6@OnBegindra

; 82   : 
; 83   : 	if( m_pSelectItem->m_iType == GRAPH || m_pSelectItem->m_iType == BLOCK || m_pSelectItem->m_iType == VERT_SCALE) 

  00038	8b 40 10	 mov	 eax, DWORD PTR [eax+16]
  0003b	83 f8 03	 cmp	 eax, 3
  0003e	74 0e		 je	 SHORT $LN5@OnBegindra
  00040	83 f8 01	 cmp	 eax, 1
  00043	74 09		 je	 SHORT $LN5@OnBegindra
  00045	83 f8 02	 cmp	 eax, 2
  00048	0f 85 f4 00 00
	00		 jne	 $LN6@OnBegindra
$LN5@OnBegindra:
  0004e	53		 push	 ebx

; 84   : 	{
; 85   : 		HGLOBAL hGlobal = NULL;
; 86   : 		ChartItem *pszGlobal = NULL;
; 87   : 		hGlobal = GlobalAlloc( GMEM_SHARE, sizeof(ChartItem));

  0004f	6a 44		 push	 68			; 00000044H
  00051	68 00 20 00 00	 push	 8192			; 00002000H
  00056	ff 15 00 00 00
	00		 call	 DWORD PTR __imp__GlobalAlloc@8
  0005c	8b d8		 mov	 ebx, eax

; 88   : 		pszGlobal = (ChartItem *)((LPSTR)GlobalLock( hGlobal ));

  0005e	53		 push	 ebx
  0005f	ff 15 00 00 00
	00		 call	 DWORD PTR __imp__GlobalLock@4
  00065	8b c8		 mov	 ecx, eax

; 89   : 		ASSERT( pszGlobal );
; 90   : 		memset(pszGlobal, 0, sizeof(ChartItem));

  00067	c7 41 04 00 00
	00 00		 mov	 DWORD PTR [ecx+4], 0
  0006e	c7 41 08 00 00
	00 00		 mov	 DWORD PTR [ecx+8], 0
  00075	c7 41 0c 00 00
	00 00		 mov	 DWORD PTR [ecx+12], 0
  0007c	c7 41 10 00 00
	00 00		 mov	 DWORD PTR [ecx+16], 0
  00083	c7 41 14 00 00
	00 00		 mov	 DWORD PTR [ecx+20], 0
  0008a	c7 41 18 00 00
	00 00		 mov	 DWORD PTR [ecx+24], 0
  00091	c7 41 1c 00 00
	00 00		 mov	 DWORD PTR [ecx+28], 0
  00098	c7 41 20 00 00
	00 00		 mov	 DWORD PTR [ecx+32], 0
  0009f	c7 41 24 00 00
	00 00		 mov	 DWORD PTR [ecx+36], 0
  000a6	c7 41 28 00 00
	00 00		 mov	 DWORD PTR [ecx+40], 0
  000ad	c7 41 2c 00 00
	00 00		 mov	 DWORD PTR [ecx+44], 0
  000b4	c7 41 30 00 00
	00 00		 mov	 DWORD PTR [ecx+48], 0
  000bb	c7 41 34 00 00
	00 00		 mov	 DWORD PTR [ecx+52], 0
  000c2	c7 41 38 00 00
	00 00		 mov	 DWORD PTR [ecx+56], 0
  000c9	c7 41 3c 00 00
	00 00		 mov	 DWORD PTR [ecx+60], 0
  000d0	c7 41 40 00 00
	00 00		 mov	 DWORD PTR [ecx+64], 0

; 91   : 		pszGlobal->hItem = hDragItem;

  000d7	89 31		 mov	 DWORD PTR [ecx], esi

; 92   : 		strcpy(pszGlobal->ChartName, (LPSTR)(LPCTSTR)m_pSelectItem->m_strName);

  000d9	8d 71 04	 lea	 esi, DWORD PTR [ecx+4]
; File C:\Program Files (x86)\Microsoft Visual Studio\2019\Community\VC\Tools\MSVC\14.29.30133\atlmfc\include\atlsimpstr.h

; 377  : 		return( m_pszData );

  000dc	8b 87 fc 01 00
	00		 mov	 eax, DWORD PTR [edi+508]
  000e2	8b 50 0c	 mov	 edx, DWORD PTR [eax+12]
; File D:\git\src\IBK\IBK_DRFN\ProjSrc\SrcChartEx\ChartAddIn\ChartDesignPropertyAddIn\ChartDesignPropertyAddIn\MyTreeCtrl.cpp

; 92   : 		strcpy(pszGlobal->ChartName, (LPSTR)(LPCTSTR)m_pSelectItem->m_strName);

  000e5	8b c6		 mov	 eax, esi
$LL8@OnBegindra:
  000e7	8a 0a		 mov	 cl, BYTE PTR [edx]
  000e9	8d 52 01	 lea	 edx, DWORD PTR [edx+1]
  000ec	88 08		 mov	 BYTE PTR [eax], cl
  000ee	8d 40 01	 lea	 eax, DWORD PTR [eax+1]
  000f1	84 c9		 test	 cl, cl
  000f3	75 f2		 jne	 SHORT $LL8@OnBegindra

; 93   : 		m_dropTarget.SetName( pszGlobal->ChartName);

  000f5	56		 push	 esi
  000f6	8d 8f 84 00 00
	00		 lea	 ecx, DWORD PTR [edi+132]
  000fc	e8 00 00 00 00	 call	 ?SetName@CChartDrop@@QAEXPAD@Z ; CChartDrop::SetName

; 94   : 		GlobalUnlock( hGlobal );

  00101	53		 push	 ebx
  00102	ff 15 00 00 00
	00		 call	 DWORD PTR __imp__GlobalUnlock@4

; 95   : 		if(hGlobal)

  00108	85 db		 test	 ebx, ebx
  0010a	74 35		 je	 SHORT $LN14@OnBegindra

; 96   : 		{
; 97   : 			m_DoDrag = TRUE;
; 98   : 			m_dragSource.CacheGlobalData( CF_TEXT, hGlobal );

  0010c	6a 00		 push	 0
  0010e	53		 push	 ebx
  0010f	6a 01		 push	 1
  00111	8d 8f c8 00 00
	00		 lea	 ecx, DWORD PTR [edi+200]
  00117	c7 87 fc 00 00
	00 01 00 00 00	 mov	 DWORD PTR [edi+252], 1
  00121	e8 00 00 00 00	 call	 ?CacheGlobalData@COleDataSource@@QAEXGPAXPAUtagFORMATETC@@@Z ; COleDataSource::CacheGlobalData

; 99   : 			DROPEFFECT  de;
; 100  : 			de = m_dragSource.DoDragDrop( DROPEFFECT_MOVE);

  00126	6a 00		 push	 0
  00128	6a 00		 push	 0
  0012a	6a 02		 push	 2
  0012c	8d 8f c8 00 00
	00		 lea	 ecx, DWORD PTR [edi+200]
  00132	e8 00 00 00 00	 call	 ?DoDragDrop@COleDataSource@@QAEKKPBUtagRECT@@PAVCOleDropSource@@@Z ; COleDataSource::DoDragDrop

; 101  : 			m_DoDrag = FALSE;

  00137	c7 87 fc 00 00
	00 00 00 00 00	 mov	 DWORD PTR [edi+252], 0
$LN14@OnBegindra:
  00141	5b		 pop	 ebx
$LN6@OnBegindra:
  00142	5f		 pop	 edi

; 102  : 		}
; 103  : 	}
; 104  : }

  00143	5e		 pop	 esi
  00144	5d		 pop	 ebp
  00145	c2 08 00	 ret	 8
?OnBegindrag@CMyTreeCtrl@@IAEXPAUtagNMHDR@@PAJ@Z ENDP	; CMyTreeCtrl::OnBegindrag
_TEXT	ENDS
; Function compile flags: /Ogtp
; File D:\git\src\IBK\IBK_DRFN\ProjSrc\SrcChartEx\ChartAddIn\ChartDesignPropertyAddIn\ChartDesignPropertyAddIn\MyTreeCtrl.cpp
;	COMDAT ??1CMyTreeCtrl@@UAE@XZ
_TEXT	SEGMENT
__$EHRec$ = -12						; size = 12
??1CMyTreeCtrl@@UAE@XZ PROC				; CMyTreeCtrl::~CMyTreeCtrl, COMDAT
; _this$ = ecx

; 45   : {

  00000	55		 push	 ebp
  00001	8b ec		 mov	 ebp, esp
  00003	6a ff		 push	 -1
  00005	68 00 00 00 00	 push	 __ehhandler$??1CMyTreeCtrl@@UAE@XZ
  0000a	64 a1 00 00 00
	00		 mov	 eax, DWORD PTR fs:0
  00010	50		 push	 eax
  00011	56		 push	 esi
  00012	57		 push	 edi
  00013	a1 00 00 00 00	 mov	 eax, DWORD PTR ___security_cookie
  00018	33 c5		 xor	 eax, ebp
  0001a	50		 push	 eax
  0001b	8d 45 f4	 lea	 eax, DWORD PTR __$EHRec$[ebp]
  0001e	64 a3 00 00 00
	00		 mov	 DWORD PTR fs:0, eax
  00024	8b f9		 mov	 edi, ecx

; 46   : 	// (2006/7/5 - Seung-Won, Bae) Use IGraphInfoManager
; 47   : 	if( m_pIGraphInfoManager) m_pIGraphInfoManager->Release();

  00026	8b 8f 00 02 00
	00		 mov	 ecx, DWORD PTR [edi+512]
  0002c	c7 07 00 00 00
	00		 mov	 DWORD PTR [edi], OFFSET ??_7CMyTreeCtrl@@6B@
  00032	85 c9		 test	 ecx, ecx
  00034	74 06		 je	 SHORT $LN2@CMyTreeCtr
  00036	8b 01		 mov	 eax, DWORD PTR [ecx]
  00038	51		 push	 ecx
  00039	ff 50 08	 call	 DWORD PTR [eax+8]
$LN2@CMyTreeCtr:

; 48   : }

  0003c	8d 8f f4 01 00
	00		 lea	 ecx, DWORD PTR [edi+500]
  00042	e8 00 00 00 00	 call	 ??1CImageList@@UAE@XZ	; CImageList::~CImageList
  00047	8d 8f ec 01 00
	00		 lea	 ecx, DWORD PTR [edi+492]
  0004d	ff 15 00 00 00
	00		 call	 DWORD PTR __imp_??1?$CStringT@DV?$StrTraitMFC_DLL@DV?$ChTraitsCRT@D@ATL@@@@@ATL@@QAE@XZ
  00053	8d 8f b0 01 00
	00		 lea	 ecx, DWORD PTR [edi+432]
  00059	e8 00 00 00 00	 call	 ??1CLineColor@@UAE@XZ	; CLineColor::~CLineColor
  0005e	8d 8f 00 01 00
	00		 lea	 ecx, DWORD PTR [edi+256]
  00064	e8 00 00 00 00	 call	 ??1CChartLink@@UAE@XZ	; CChartLink::~CChartLink
  00069	8d 8f c8 00 00
	00		 lea	 ecx, DWORD PTR [edi+200]
  0006f	e8 00 00 00 00	 call	 ??1COleDataSource@@UAE@XZ ; COleDataSource::~COleDataSource
  00074	8d 8f bc 00 00
	00		 lea	 ecx, DWORD PTR [edi+188]
  0007a	ff 15 00 00 00
	00		 call	 DWORD PTR __imp_??1?$CStringT@DV?$StrTraitMFC_DLL@DV?$ChTraitsCRT@D@ATL@@@@@ATL@@QAE@XZ
  00080	8d 8f 84 00 00
	00		 lea	 ecx, DWORD PTR [edi+132]
  00086	e8 00 00 00 00	 call	 ??1COleDropTarget@@UAE@XZ ; COleDropTarget::~COleDropTarget
  0008b	8b cf		 mov	 ecx, edi
  0008d	e8 00 00 00 00	 call	 ??1CTreeCtrl@@UAE@XZ	; CTreeCtrl::~CTreeCtrl
  00092	8b 4d f4	 mov	 ecx, DWORD PTR __$EHRec$[ebp]
  00095	64 89 0d 00 00
	00 00		 mov	 DWORD PTR fs:0, ecx
  0009c	59		 pop	 ecx
  0009d	5f		 pop	 edi
  0009e	5e		 pop	 esi
  0009f	8b e5		 mov	 esp, ebp
  000a1	5d		 pop	 ebp
  000a2	c3		 ret	 0
  000a3	cc		 int	 3
  000a4	cc		 int	 3
  000a5	cc		 int	 3
  000a6	cc		 int	 3
  000a7	cc		 int	 3
_TEXT	ENDS
;	COMDAT text$x
text$x	SEGMENT
__ehhandler$??1CMyTreeCtrl@@UAE@XZ:
  00000	90		 npad	 1
  00001	90		 npad	 1
  00002	8b 54 24 08	 mov	 edx, DWORD PTR [esp+8]
  00006	8d 42 0c	 lea	 eax, DWORD PTR [edx+12]
  00009	8b 4a f4	 mov	 ecx, DWORD PTR [edx-12]
  0000c	33 c8		 xor	 ecx, eax
  0000e	e8 00 00 00 00	 call	 @__security_check_cookie@4
  00013	b8 00 00 00 00	 mov	 eax, OFFSET __ehfuncinfo$??1CMyTreeCtrl@@UAE@XZ
  00018	e9 00 00 00 00	 jmp	 ___CxxFrameHandler3
text$x	ENDS
??1CMyTreeCtrl@@UAE@XZ ENDP				; CMyTreeCtrl::~CMyTreeCtrl
; Function compile flags: /Ogtp
; File D:\git\src\IBK\IBK_DRFN\ProjSrc\SrcChartEx\ChartAddIn\ChartDesignPropertyAddIn\ChartDesignPropertyAddIn\MyTreeCtrl.cpp
;	COMDAT ?InitDropTarget@CMyTreeCtrl@@QAEXXZ
_TEXT	SEGMENT
?InitDropTarget@CMyTreeCtrl@@QAEXXZ PROC		; CMyTreeCtrl::InitDropTarget, COMDAT
; _this$ = ecx

; 296  : {

  00000	56		 push	 esi
  00001	57		 push	 edi
  00002	8b f9		 mov	 edi, ecx

; 297  : 	m_dropTarget.SetName("ChartInfo");

  00004	68 00 00 00 00	 push	 OFFSET ??_C@_09FJGDFMJE@ChartInfo@
  00009	8d 8f 84 00 00
	00		 lea	 ecx, DWORD PTR [edi+132]
  0000f	e8 00 00 00 00	 call	 ?SetName@CChartDrop@@QAEXPAD@Z ; CChartDrop::SetName

; 298  : 	m_dropTarget.Register(this);

  00014	57		 push	 edi
  00015	8d 8f 84 00 00
	00		 lea	 ecx, DWORD PTR [edi+132]
  0001b	e8 00 00 00 00	 call	 ?Register@COleDropTarget@@QAEHPAVCWnd@@@Z ; COleDropTarget::Register

; 299  : 	m_dropTarget.SetParent(this);

  00020	57		 push	 edi
  00021	8d 8f 84 00 00
	00		 lea	 ecx, DWORD PTR [edi+132]
  00027	e8 00 00 00 00	 call	 ?SetParent@CChartDrop@@QAEXPAVCWnd@@@Z ; CChartDrop::SetParent
  0002c	5f		 pop	 edi
  0002d	5e		 pop	 esi

; 300  : }

  0002e	c3		 ret	 0
?InitDropTarget@CMyTreeCtrl@@QAEXXZ ENDP		; CMyTreeCtrl::InitDropTarget
_TEXT	ENDS
; Function compile flags: /Ogtp
; File D:\git\src\IBK\IBK_DRFN\ProjSrc\SrcChartEx\ChartAddIn\ChartDesignPropertyAddIn\ChartDesignPropertyAddIn\MyTreeCtrl.cpp
; File C:\Program Files (x86)\Microsoft Visual Studio\2019\Community\VC\Tools\MSVC\14.29.30133\atlmfc\include\afxwin1.inl
; File D:\git\src\IBK\IBK_DRFN\ProjSrc\SrcChartEx\ChartAddIn\ChartDesignPropertyAddIn\Include_Chart\Dll_Load\IMetaTable.h
; File C:\Program Files (x86)\Microsoft Visual Studio\2019\Community\VC\Tools\MSVC\14.29.30133\atlmfc\include\afxwin1.inl
; File D:\git\src\IBK\IBK_DRFN\ProjSrc\SrcChartEx\ChartAddIn\ChartDesignPropertyAddIn\ChartDesignPropertyAddIn\MyTreeCtrl.cpp
; File D:\git\src\IBK\IBK_DRFN\ProjSrc\SrcChartEx\ChartAddIn\ChartDesignPropertyAddIn\Include_Chart\Dll_Load\IMetaTable.h
; File C:\Program Files (x86)\Microsoft Visual Studio\2019\Community\VC\Tools\MSVC\14.29.30133\atlmfc\include\afxwin1.inl
; File D:\git\src\IBK\IBK_DRFN\ProjSrc\SrcChartEx\ChartAddIn\ChartDesignPropertyAddIn\Include_Chart\Dll_Load\IMetaTable.h
; File C:\Program Files (x86)\Microsoft Visual Studio\2019\Community\VC\Tools\MSVC\14.29.30133\atlmfc\include\afxwin1.inl
; File D:\git\src\IBK\IBK_DRFN\ProjSrc\SrcChartEx\ChartAddIn\ChartDesignPropertyAddIn\ChartDesignPropertyAddIn\MyTreeCtrl.cpp
; File C:\Program Files (x86)\Microsoft Visual Studio\2019\Community\VC\Tools\MSVC\14.29.30133\atlmfc\include\afxwin1.inl
; File C:\Program Files (x86)\Microsoft Visual Studio\2019\Community\VC\Tools\MSVC\14.29.30133\atlmfc\include\afxcmn.inl
; File D:\git\src\IBK\IBK_DRFN\ProjSrc\SrcChartEx\ChartAddIn\ChartDesignPropertyAddIn\ChartDesignPropertyAddIn\MyTreeCtrl.cpp
; File C:\Program Files (x86)\Microsoft Visual Studio\2019\Community\VC\Tools\MSVC\14.29.30133\atlmfc\include\afxcmn.inl
; File D:\git\src\IBK\IBK_DRFN\ProjSrc\SrcChartEx\ChartAddIn\ChartDesignPropertyAddIn\ChartDesignPropertyAddIn\MyTreeCtrl.cpp
; File C:\Program Files (x86)\Microsoft Visual Studio\2019\Community\VC\Tools\MSVC\14.29.30133\atlmfc\include\afxcmn.inl
; File D:\git\src\IBK\IBK_DRFN\ProjSrc\SrcChartEx\ChartAddIn\ChartDesignPropertyAddIn\ChartDesignPropertyAddIn\MyTreeCtrl.cpp
; File C:\Program Files (x86)\Microsoft Visual Studio\2019\Community\VC\Tools\MSVC\14.29.30133\atlmfc\include\afxwin2.inl
; File D:\git\src\IBK\IBK_DRFN\ProjSrc\SrcChartEx\ChartAddIn\ChartDesignPropertyAddIn\ChartDesignPropertyAddIn\MyTreeCtrl.cpp
; File C:\Program Files (x86)\Microsoft Visual Studio\2019\Community\VC\Tools\MSVC\14.29.30133\atlmfc\include\afxwin2.inl
; File D:\git\src\IBK\IBK_DRFN\ProjSrc\SrcChartEx\ChartAddIn\ChartDesignPropertyAddIn\ChartDesignPropertyAddIn\MyTreeCtrl.cpp
; File C:\Program Files (x86)\Microsoft Visual Studio\2019\Community\VC\Tools\MSVC\14.29.30133\atlmfc\include\atlsimpstr.h
; File D:\git\src\IBK\IBK_DRFN\ProjSrc\SrcChartEx\ChartAddIn\ChartDesignPropertyAddIn\ChartDesignPropertyAddIn\MyTreeCtrl.cpp
; File C:\Program Files (x86)\Microsoft Visual Studio\2019\Community\VC\Tools\MSVC\14.29.30133\atlmfc\include\afxcmn.inl
; File D:\git\src\IBK\IBK_DRFN\ProjSrc\SrcChartEx\ChartAddIn\ChartDesignPropertyAddIn\ChartDesignPropertyAddIn\MyTreeCtrl.cpp
; File C:\Program Files (x86)\Microsoft Visual Studio\2019\Community\VC\Tools\MSVC\14.29.30133\atlmfc\include\afxcmn.inl
; File D:\git\src\IBK\IBK_DRFN\ProjSrc\SrcChartEx\ChartAddIn\ChartDesignPropertyAddIn\ChartDesignPropertyAddIn\MyTreeCtrl.cpp
; File C:\Program Files (x86)\Microsoft Visual Studio\2019\Community\VC\Tools\MSVC\14.29.30133\atlmfc\include\afxcmn.inl
; File D:\git\src\IBK\IBK_DRFN\ProjSrc\SrcChartEx\ChartAddIn\ChartDesignPropertyAddIn\ChartDesignPropertyAddIn\MyTreeCtrl.cpp
; File C:\Program Files (x86)\Microsoft Visual Studio\2019\Community\VC\Tools\MSVC\14.29.30133\atlmfc\include\afxwin2.inl
; File D:\git\src\IBK\IBK_DRFN\ProjSrc\SrcChartEx\ChartAddIn\ChartDesignPropertyAddIn\ChartDesignPropertyAddIn\MyTreeCtrl.cpp
; File C:\Program Files (x86)\Microsoft Visual Studio\2019\Community\VC\Tools\MSVC\14.29.30133\atlmfc\include\atlsimpstr.h
; File D:\git\src\IBK\IBK_DRFN\ProjSrc\SrcChartEx\ChartAddIn\ChartDesignPropertyAddIn\ChartDesignPropertyAddIn\MyTreeCtrl.cpp
; File C:\Program Files (x86)\Microsoft Visual Studio\2019\Community\VC\Tools\MSVC\14.29.30133\atlmfc\include\afxcmn.inl
; File D:\git\src\IBK\IBK_DRFN\ProjSrc\SrcChartEx\ChartAddIn\ChartDesignPropertyAddIn\ChartDesignPropertyAddIn\MyTreeCtrl.cpp
; File C:\Program Files (x86)\Microsoft Visual Studio\2019\Community\VC\Tools\MSVC\14.29.30133\atlmfc\include\afxcmn.inl
; File D:\git\src\IBK\IBK_DRFN\ProjSrc\SrcChartEx\ChartAddIn\ChartDesignPropertyAddIn\ChartDesignPropertyAddIn\MyTreeCtrl.cpp
; File C:\Program Files (x86)\Microsoft Visual Studio\2019\Community\VC\Tools\MSVC\14.29.30133\atlmfc\include\afxcmn.inl
; File D:\git\src\IBK\IBK_DRFN\ProjSrc\SrcChartEx\ChartAddIn\ChartDesignPropertyAddIn\ChartDesignPropertyAddIn\MyTreeCtrl.cpp
; File C:\Program Files (x86)\Microsoft Visual Studio\2019\Community\VC\Tools\MSVC\14.29.30133\atlmfc\include\afxwin2.inl
; File D:\git\src\IBK\IBK_DRFN\ProjSrc\SrcChartEx\ChartAddIn\ChartDesignPropertyAddIn\ChartDesignPropertyAddIn\MyTreeCtrl.cpp
; File C:\Program Files (x86)\Microsoft Visual Studio\2019\Community\VC\Tools\MSVC\14.29.30133\atlmfc\include\atlsimpstr.h
; File D:\git\src\IBK\IBK_DRFN\ProjSrc\SrcChartEx\ChartAddIn\ChartDesignPropertyAddIn\ChartDesignPropertyAddIn\MyTreeCtrl.cpp
; File C:\Program Files (x86)\Microsoft Visual Studio\2019\Community\VC\Tools\MSVC\14.29.30133\atlmfc\include\afxcmn.inl
; File D:\git\src\IBK\IBK_DRFN\ProjSrc\SrcChartEx\ChartAddIn\ChartDesignPropertyAddIn\ChartDesignPropertyAddIn\MyTreeCtrl.cpp
; File C:\Program Files (x86)\Microsoft Visual Studio\2019\Community\VC\Tools\MSVC\14.29.30133\atlmfc\include\afxcmn.inl
; File D:\git\src\IBK\IBK_DRFN\ProjSrc\SrcChartEx\ChartAddIn\ChartDesignPropertyAddIn\ChartDesignPropertyAddIn\MyTreeCtrl.cpp
; File C:\Program Files (x86)\Microsoft Visual Studio\2019\Community\VC\Tools\MSVC\14.29.30133\atlmfc\include\afxcmn.inl
; File D:\git\src\IBK\IBK_DRFN\ProjSrc\SrcChartEx\ChartAddIn\ChartDesignPropertyAddIn\ChartDesignPropertyAddIn\MyTreeCtrl.cpp
; File C:\Program Files (x86)\Microsoft Visual Studio\2019\Community\VC\Tools\MSVC\14.29.30133\atlmfc\include\afxcmn.inl
; File D:\git\src\IBK\IBK_DRFN\ProjSrc\SrcChartEx\ChartAddIn\ChartDesignPropertyAddIn\ChartDesignPropertyAddIn\MyTreeCtrl.cpp
; File C:\Program Files (x86)\Microsoft Visual Studio\2019\Community\VC\Tools\MSVC\14.29.30133\atlmfc\include\afxcmn.inl
; File D:\git\src\IBK\IBK_DRFN\ProjSrc\SrcChartEx\ChartAddIn\ChartDesignPropertyAddIn\ChartDesignPropertyAddIn\MyTreeCtrl.cpp
; File C:\Program Files (x86)\Microsoft Visual Studio\2019\Community\VC\Tools\MSVC\14.29.30133\atlmfc\include\afxwin2.inl
; File D:\git\src\IBK\IBK_DRFN\ProjSrc\SrcChartEx\ChartAddIn\ChartDesignPropertyAddIn\ChartDesignPropertyAddIn\MyTreeCtrl.cpp
;	COMDAT ?InitTreeView@CMyTreeCtrl@@QAEXXZ
_TEXT	SEGMENT
_tvinsert$ = -224					; size = 68
_tvstruct$2 = -156					; size = 68
_tvstruct$3 = -156					; size = 68
_tvstruct$4 = -156					; size = 68
$T5 = -88						; size = 4
$T6 = -84						; size = 4
_this$1$ = -80						; size = 4
_hRoot$ = -76						; size = 4
$T7 = -72						; size = 4
___mlrs__$8 = -72					; size = 4
$T9 = -68						; size = 4
$T10 = -64						; size = 4
$T11 = -60						; size = 4
$T12 = -56						; size = 4
$T13 = -52						; size = 4
_nhItem$14 = -48					; size = 4
$T15 = -44						; size = 4
_nhItem$16 = -40					; size = 4
$T17 = -36						; size = 4
_str$18 = -32						; size = 4
_pGraph$1$ = -28					; size = 4
_pBlock$1$ = -24					; size = 4
_strData$19 = -20					; size = 4
_pVertScale$1$ = -16					; size = 4
$T20 = -16						; size = 4
__$EHRec$ = -12						; size = 12
?InitTreeView@CMyTreeCtrl@@QAEXXZ PROC			; CMyTreeCtrl::InitTreeView, COMDAT
; _this$ = ecx

; 354  : {

  00000	55		 push	 ebp
  00001	8b ec		 mov	 ebp, esp
  00003	6a ff		 push	 -1
  00005	68 00 00 00 00	 push	 __ehhandler$?InitTreeView@CMyTreeCtrl@@QAEXXZ
  0000a	64 a1 00 00 00
	00		 mov	 eax, DWORD PTR fs:0
  00010	50		 push	 eax
  00011	81 ec d4 00 00
	00		 sub	 esp, 212		; 000000d4H
  00017	53		 push	 ebx
  00018	56		 push	 esi
  00019	57		 push	 edi
  0001a	a1 00 00 00 00	 mov	 eax, DWORD PTR ___security_cookie
  0001f	33 c5		 xor	 eax, ebp
  00021	50		 push	 eax
  00022	8d 45 f4	 lea	 eax, DWORD PTR __$EHRec$[ebp]
  00025	64 a3 00 00 00
	00		 mov	 DWORD PTR fs:0, eax
  0002b	8b d9		 mov	 ebx, ecx
  0002d	89 5d b0	 mov	 DWORD PTR _this$1$[ebp], ebx

; 355  : 	if(m_ImageList == NULL)

  00030	83 bb f8 01 00
	00 00		 cmp	 DWORD PTR [ebx+504], 0
  00037	c7 45 c4 00 00
	00 00		 mov	 DWORD PTR $T11[ebp], 0
  0003e	75 51		 jne	 SHORT $LN22@InitTreeVi

; 356  : 	{
; 357  : 		ML_SET_DEFAULT_RES();

  00040	e8 00 00 00 00	 call	 ?AfxGetStaticModuleState@@YGPAVAFX_MODULE_STATE@@XZ ; AfxGetStaticModuleState
  00045	8b 78 08	 mov	 edi, DWORD PTR [eax+8]
; File C:\Program Files (x86)\Microsoft Visual Studio\2019\Community\VC\Tools\MSVC\14.29.30133\atlmfc\include\afxwin1.inl

; 25   : 		return afxCurrentResourceHandle; }

  00048	e8 00 00 00 00	 call	 ?AfxGetModuleState@@YGPAVAFX_MODULE_STATE@@XZ ; AfxGetModuleState
; File D:\git\src\IBK\IBK_DRFN\ProjSrc\SrcChartEx\ChartAddIn\ChartDesignPropertyAddIn\Include_Chart\Dll_Load\IMetaTable.h

; 1032 : 		m_hInstance = AfxGetResourceHandle();

  0004d	8b 70 0c	 mov	 esi, DWORD PTR [eax+12]
  00050	89 75 b8	 mov	 DWORD PTR ___mlrs__$8[ebp], esi
; File C:\Program Files (x86)\Microsoft Visual Studio\2019\Community\VC\Tools\MSVC\14.29.30133\atlmfc\include\afxwin1.inl

; 27   : 	{ ASSERT(hInstResource != NULL); afxCurrentResourceHandle = hInstResource; }

  00053	e8 00 00 00 00	 call	 ?AfxGetModuleState@@YGPAVAFX_MODULE_STATE@@XZ ; AfxGetModuleState
  00058	89 78 0c	 mov	 DWORD PTR [eax+12], edi
; File D:\git\src\IBK\IBK_DRFN\ProjSrc\SrcChartEx\ChartAddIn\ChartDesignPropertyAddIn\ChartDesignPropertyAddIn\MyTreeCtrl.cpp

; 358  : 		m_ImageList.Create(IDB_LIST, 16, 1, RGB(172, 172, 172));

  0005b	68 ac ac ac 00	 push	 11316396		; 00acacacH
  00060	6a 01		 push	 1
  00062	6a 10		 push	 16			; 00000010H
  00064	68 59 1b 00 00	 push	 7001			; 00001b59H
  00069	8d 8b f4 01 00
	00		 lea	 ecx, DWORD PTR [ebx+500]
  0006f	c7 45 fc 00 00
	00 00		 mov	 DWORD PTR __$EHRec$[ebp+8], 0
  00076	e8 00 00 00 00	 call	 ?Create@CImageList@@QAEHIHHK@Z ; CImageList::Create
; File D:\git\src\IBK\IBK_DRFN\ProjSrc\SrcChartEx\ChartAddIn\ChartDesignPropertyAddIn\Include_Chart\Dll_Load\IMetaTable.h

; 1036 : 	{

  0007b	c7 45 fc 01 00
	00 00		 mov	 DWORD PTR __$EHRec$[ebp+8], 1
; File C:\Program Files (x86)\Microsoft Visual Studio\2019\Community\VC\Tools\MSVC\14.29.30133\atlmfc\include\afxwin1.inl

; 27   : 	{ ASSERT(hInstResource != NULL); afxCurrentResourceHandle = hInstResource; }

  00082	e8 00 00 00 00	 call	 ?AfxGetModuleState@@YGPAVAFX_MODULE_STATE@@XZ ; AfxGetModuleState
; File D:\git\src\IBK\IBK_DRFN\ProjSrc\SrcChartEx\ChartAddIn\ChartDesignPropertyAddIn\Include_Chart\Dll_Load\IMetaTable.h

; 1038 : 	}

  00087	c7 45 fc ff ff
	ff ff		 mov	 DWORD PTR __$EHRec$[ebp+8], -1
; File C:\Program Files (x86)\Microsoft Visual Studio\2019\Community\VC\Tools\MSVC\14.29.30133\atlmfc\include\afxwin1.inl

; 27   : 	{ ASSERT(hInstResource != NULL); afxCurrentResourceHandle = hInstResource; }

  0008e	89 70 0c	 mov	 DWORD PTR [eax+12], esi
$LN22@InitTreeVi:
; File D:\git\src\IBK\IBK_DRFN\ProjSrc\SrcChartEx\ChartAddIn\ChartDesignPropertyAddIn\ChartDesignPropertyAddIn\MyTreeCtrl.cpp

; 360  : 	SetImageList(&m_ImageList, TVSIL_NORMAL);

  00091	8d 83 f4 01 00
	00		 lea	 eax, DWORD PTR [ebx+500]
; File C:\Program Files (x86)\Microsoft Visual Studio\2019\Community\VC\Tools\MSVC\14.29.30133\atlmfc\include\afxwin1.inl

; 853  : 	{ return (this == NULL) ? NULL : m_hImageList; }

  00097	85 c0		 test	 eax, eax
  00099	74 03		 je	 SHORT $LN31@InitTreeVi
$LN30@InitTreeVi:
  0009b	8b 40 04	 mov	 eax, DWORD PTR [eax+4]
$LN31@InitTreeVi:
; File C:\Program Files (x86)\Microsoft Visual Studio\2019\Community\VC\Tools\MSVC\14.29.30133\atlmfc\include\afxcmn.inl

; 293  : 	return CImageList::FromHandle((HIMAGELIST)::SendMessage(m_hWnd, TVM_SETIMAGELIST, (WPARAM)nImageList, (LPARAM)pImageList->GetSafeHandle()));

  0009e	8b 3d 00 00 00
	00		 mov	 edi, DWORD PTR __imp__SendMessageA@16
  000a4	50		 push	 eax
  000a5	6a 00		 push	 0
  000a7	68 09 11 00 00	 push	 4361			; 00001109H
  000ac	ff 73 20	 push	 DWORD PTR [ebx+32]
  000af	ff d7		 call	 edi
  000b1	50		 push	 eax
  000b2	e8 00 00 00 00	 call	 ?FromHandle@CImageList@@SGPAV1@PAU_IMAGELIST@@@Z ; CImageList::FromHandle
; File D:\git\src\IBK\IBK_DRFN\ProjSrc\SrcChartEx\ChartAddIn\ChartDesignPropertyAddIn\ChartDesignPropertyAddIn\MyTreeCtrl.cpp

; 370  : 	tvinsert.item.cchTextMax = 60 ;

  000b7	0f 28 05 00 00
	00 00		 movaps	 xmm0, XMMWORD PTR __xmm@0000000000000000000000000000003c
; File C:\Program Files (x86)\Microsoft Visual Studio\2019\Community\VC\Tools\MSVC\14.29.30133\atlmfc\include\afxcmn.inl

; 266  : 	{ ASSERT(::IsWindow(m_hWnd));  return (HTREEITEM)::SendMessage(m_hWnd, TVM_INSERTITEM, 0, (LPARAM)lpInsertStruct); }

  000be	8d 85 20 ff ff
	ff		 lea	 eax, DWORD PTR _tvinsert$[ebp]
  000c4	50		 push	 eax
  000c5	6a 00		 push	 0
  000c7	68 00 11 00 00	 push	 4352			; 00001100H
  000cc	ff 73 20	 push	 DWORD PTR [ebx+32]
; File D:\git\src\IBK\IBK_DRFN\ProjSrc\SrcChartEx\ChartAddIn\ChartDesignPropertyAddIn\ChartDesignPropertyAddIn\MyTreeCtrl.cpp

; 365  : 	tvinsert.hParent = (HTREEITEM)0 ;

  000cf	c7 85 20 ff ff
	ff 00 00 00 00	 mov	 DWORD PTR _tvinsert$[ebp], 0

; 366  : 	tvinsert.hInsertAfter = TVI_LAST ;

  000d9	c7 85 24 ff ff
	ff 02 00 ff ff	 mov	 DWORD PTR _tvinsert$[ebp+4], -65534 ; ffff0002H

; 367  : 	tvinsert.item.mask = TVIF_IMAGE | TVIF_SELECTEDIMAGE | TVIF_TEXT ;

  000e3	c7 85 28 ff ff
	ff 23 00 00 00	 mov	 DWORD PTR _tvinsert$[ebp+8], 35 ; 00000023H

; 368  : 	tvinsert.item.state = 0 ;

  000ed	c7 85 30 ff ff
	ff 00 00 00 00	 mov	 DWORD PTR _tvinsert$[ebp+16], 0

; 369  : 	tvinsert.item.stateMask = 0 ;

  000f7	c7 85 34 ff ff
	ff 00 00 00 00	 mov	 DWORD PTR _tvinsert$[ebp+20], 0

; 370  : 	tvinsert.item.cchTextMax = 60 ;

  00101	0f 11 85 3c ff
	ff ff		 movups	 XMMWORD PTR _tvinsert$[ebp+28], xmm0

; 371  : 	tvinsert.item.iImage= ROOT;
; 372  : 	tvinsert.item.iSelectedImage = ROOT;
; 373  : 	tvinsert.item.cChildren = 0 ;
; 374  : 	tvinsert.item.pszText = _T("Chart List") ;

  00108	c7 85 38 ff ff
	ff 00 00 00 00	 mov	 DWORD PTR _tvinsert$[ebp+24], OFFSET ??_C@_0L@GFMNOAEH@Chart?5List@
; File C:\Program Files (x86)\Microsoft Visual Studio\2019\Community\VC\Tools\MSVC\14.29.30133\atlmfc\include\afxcmn.inl

; 266  : 	{ ASSERT(::IsWindow(m_hWnd));  return (HTREEITEM)::SendMessage(m_hWnd, TVM_INSERTITEM, 0, (LPARAM)lpInsertStruct); }

  00112	ff d7		 call	 edi
; File D:\git\src\IBK\IBK_DRFN\ProjSrc\SrcChartEx\ChartAddIn\ChartDesignPropertyAddIn\ChartDesignPropertyAddIn\MyTreeCtrl.cpp

; 378  : 	((CChartListPage* )GetParent())->SetToolTipInfo(hRoot, "Root");

  00114	68 00 00 00 00	 push	 OFFSET ??_C@_04BAJDEDPD@Root@
  00119	8d 4d f0	 lea	 ecx, DWORD PTR $T20[ebp]
  0011c	89 45 b4	 mov	 DWORD PTR _hRoot$[ebp], eax
  0011f	89 83 08 01 00
	00		 mov	 DWORD PTR [ebx+264], eax
  00125	ff 15 00 00 00
	00		 call	 DWORD PTR __imp_??0?$CStringT@DV?$StrTraitMFC_DLL@DV?$ChTraitsCRT@D@ATL@@@@@ATL@@QAE@PBD@Z
; File C:\Program Files (x86)\Microsoft Visual Studio\2019\Community\VC\Tools\MSVC\14.29.30133\atlmfc\include\afxwin2.inl

; 213  : 	{ ASSERT(::IsWindow(m_hWnd)); return CWnd::FromHandle(::GetParent(m_hWnd)); }

  0012b	8b 35 00 00 00
	00		 mov	 esi, DWORD PTR __imp__GetParent@4
; File D:\git\src\IBK\IBK_DRFN\ProjSrc\SrcChartEx\ChartAddIn\ChartDesignPropertyAddIn\ChartDesignPropertyAddIn\MyTreeCtrl.cpp

; 378  : 	((CChartListPage* )GetParent())->SetToolTipInfo(hRoot, "Root");

  00131	8d 45 f0	 lea	 eax, DWORD PTR $T20[ebp]
  00134	50		 push	 eax
  00135	8d 45 b4	 lea	 eax, DWORD PTR _hRoot$[ebp]
  00138	c7 45 fc 02 00
	00 00		 mov	 DWORD PTR __$EHRec$[ebp+8], 2
  0013f	50		 push	 eax
; File C:\Program Files (x86)\Microsoft Visual Studio\2019\Community\VC\Tools\MSVC\14.29.30133\atlmfc\include\afxwin2.inl

; 213  : 	{ ASSERT(::IsWindow(m_hWnd)); return CWnd::FromHandle(::GetParent(m_hWnd)); }

  00140	ff 73 20	 push	 DWORD PTR [ebx+32]
  00143	ff d6		 call	 esi
  00145	50		 push	 eax
  00146	e8 00 00 00 00	 call	 ?FromHandle@CWnd@@SGPAV1@PAUHWND__@@@Z ; CWnd::FromHandle
; File D:\git\src\IBK\IBK_DRFN\ProjSrc\SrcChartEx\ChartAddIn\ChartDesignPropertyAddIn\ChartDesignPropertyAddIn\MyTreeCtrl.cpp

; 378  : 	((CChartListPage* )GetParent())->SetToolTipInfo(hRoot, "Root");

  0014b	8b c8		 mov	 ecx, eax
  0014d	e8 00 00 00 00	 call	 ?SetToolTipInfo@CChartListPage@@QAEXAAPAU_TREEITEM@@ABV?$CStringT@DV?$StrTraitMFC_DLL@DV?$ChTraitsCRT@D@ATL@@@@@ATL@@@Z ; CChartListPage::SetToolTipInfo
  00152	8d 4d f0	 lea	 ecx, DWORD PTR $T20[ebp]
  00155	c7 45 fc ff ff
	ff ff		 mov	 DWORD PTR __$EHRec$[ebp+8], -1
  0015c	ff 15 00 00 00
	00		 call	 DWORD PTR __imp_??1?$CStringT@DV?$StrTraitMFC_DLL@DV?$ChTraitsCRT@D@ATL@@@@@ATL@@QAE@XZ

; 379  : 
; 380  : 	// Tree Chart Init List
; 381  : 	CChartLink* pBlock = m_clChartRoot.m_Child ;

  00162	8b 93 60 01 00
	00		 mov	 edx, DWORD PTR [ebx+352]
  00168	89 55 e8	 mov	 DWORD PTR _pBlock$1$[ebp], edx

; 382  : 	while(pBlock) {//Block

  0016b	85 d2		 test	 edx, edx
  0016d	0f 84 b8 03 00
	00		 je	 $LN92@InitTreeVi
$LL2@InitTreeVi:

; 383  : 		pBlock->m_hItem = AddBlock(m_clChartRoot.m_hItem, (LPSTR)(LPCTSTR)pBlock->m_strName) ;

  00173	8b 83 08 01 00
	00		 mov	 eax, DWORD PTR [ebx+264]
; File C:\Program Files (x86)\Microsoft Visual Studio\2019\Community\VC\Tools\MSVC\14.29.30133\atlmfc\include\atlsimpstr.h

; 377  : 		return( m_pszData );

  00179	8b 4a 0c	 mov	 ecx, DWORD PTR [edx+12]
; File D:\git\src\IBK\IBK_DRFN\ProjSrc\SrcChartEx\ChartAddIn\ChartDesignPropertyAddIn\ChartDesignPropertyAddIn\MyTreeCtrl.cpp

; 325  : 	if(hItem == NULL) return (HTREEITEM)0;

  0017c	85 c0		 test	 eax, eax
  0017e	0f 84 96 00 00
	00		 je	 $LN38@InitTreeVi
$LN39@InitTreeVi:

; 326  : 	HTREEITEM nhItem = 0;
; 327  : 
; 328  : 	TV_INSERTSTRUCT	tvstruct;
; 329  : 	tvstruct.hParent = hItem;

  00184	89 85 64 ff ff
	ff		 mov	 DWORD PTR _tvstruct$4[ebp], eax
; File C:\Program Files (x86)\Microsoft Visual Studio\2019\Community\VC\Tools\MSVC\14.29.30133\atlmfc\include\afxcmn.inl

; 266  : 	{ ASSERT(::IsWindow(m_hWnd));  return (HTREEITEM)::SendMessage(m_hWnd, TVM_INSERTITEM, 0, (LPARAM)lpInsertStruct); }

  0018a	8d 85 64 ff ff
	ff		 lea	 eax, DWORD PTR _tvstruct$4[ebp]
  00190	50		 push	 eax
  00191	6a 00		 push	 0
  00193	68 00 11 00 00	 push	 4352			; 00001100H
  00198	ff 73 20	 push	 DWORD PTR [ebx+32]
; File D:\git\src\IBK\IBK_DRFN\ProjSrc\SrcChartEx\ChartAddIn\ChartDesignPropertyAddIn\ChartDesignPropertyAddIn\MyTreeCtrl.cpp

; 330  : 	tvstruct.hInsertAfter = TVI_LAST ;

  0019b	c7 85 68 ff ff
	ff 02 00 ff ff	 mov	 DWORD PTR _tvstruct$4[ebp+4], -65534 ; ffff0002H

; 331  : 	tvstruct.item.iImage = ROOT ;

  001a5	c7 45 84 00 00
	00 00		 mov	 DWORD PTR _tvstruct$4[ebp+32], 0

; 332  : 	tvstruct.item.iSelectedImage = tvstruct.item.iImage;

  001ac	c7 45 88 00 00
	00 00		 mov	 DWORD PTR _tvstruct$4[ebp+36], 0

; 333  : 	tvstruct.item.pszText = name;

  001b3	89 8d 7c ff ff
	ff		 mov	 DWORD PTR _tvstruct$4[ebp+24], ecx

; 334  : 	tvstruct.item.mask = TVIF_IMAGE | TVIF_SELECTEDIMAGE | TVIF_TEXT;

  001b9	c7 85 6c ff ff
	ff 23 00 00 00	 mov	 DWORD PTR _tvstruct$4[ebp+8], 35 ; 00000023H
; File C:\Program Files (x86)\Microsoft Visual Studio\2019\Community\VC\Tools\MSVC\14.29.30133\atlmfc\include\afxcmn.inl

; 266  : 	{ ASSERT(::IsWindow(m_hWnd));  return (HTREEITEM)::SendMessage(m_hWnd, TVM_INSERTITEM, 0, (LPARAM)lpInsertStruct); }

  001c3	ff d7		 call	 edi

; 354  : 	{ ASSERT(::IsWindow(m_hWnd)); return (BOOL)::SendMessage(m_hWnd, TVM_ENSUREVISIBLE, 0, (LPARAM)hItem); }

  001c5	50		 push	 eax
  001c6	6a 00		 push	 0
  001c8	68 14 11 00 00	 push	 4372			; 00001114H
  001cd	ff 73 20	 push	 DWORD PTR [ebx+32]
; File D:\git\src\IBK\IBK_DRFN\ProjSrc\SrcChartEx\ChartAddIn\ChartDesignPropertyAddIn\ChartDesignPropertyAddIn\MyTreeCtrl.cpp

; 335  : 	nhItem = InsertItem(&tvstruct);

  001d0	89 45 d8	 mov	 DWORD PTR _nhItem$16[ebp], eax
; File C:\Program Files (x86)\Microsoft Visual Studio\2019\Community\VC\Tools\MSVC\14.29.30133\atlmfc\include\afxcmn.inl

; 354  : 	{ ASSERT(::IsWindow(m_hWnd)); return (BOOL)::SendMessage(m_hWnd, TVM_ENSUREVISIBLE, 0, (LPARAM)hItem); }

  001d3	ff d7		 call	 edi
; File D:\git\src\IBK\IBK_DRFN\ProjSrc\SrcChartEx\ChartAddIn\ChartDesignPropertyAddIn\ChartDesignPropertyAddIn\MyTreeCtrl.cpp

; 338  : 	((CChartListPage* )GetParent())->SetToolTipInfo(nhItem, "Block");

  001d5	68 00 00 00 00	 push	 OFFSET ??_C@_05PPLCEPDH@Block@
  001da	8d 4d dc	 lea	 ecx, DWORD PTR $T17[ebp]
  001dd	ff 15 00 00 00
	00		 call	 DWORD PTR __imp_??0?$CStringT@DV?$StrTraitMFC_DLL@DV?$ChTraitsCRT@D@ATL@@@@@ATL@@QAE@PBD@Z
  001e3	8d 45 dc	 lea	 eax, DWORD PTR $T17[ebp]
  001e6	c7 45 fc 03 00
	00 00		 mov	 DWORD PTR __$EHRec$[ebp+8], 3
  001ed	50		 push	 eax
  001ee	8d 45 d8	 lea	 eax, DWORD PTR _nhItem$16[ebp]
  001f1	50		 push	 eax
; File C:\Program Files (x86)\Microsoft Visual Studio\2019\Community\VC\Tools\MSVC\14.29.30133\atlmfc\include\afxwin2.inl

; 213  : 	{ ASSERT(::IsWindow(m_hWnd)); return CWnd::FromHandle(::GetParent(m_hWnd)); }

  001f2	ff 73 20	 push	 DWORD PTR [ebx+32]
  001f5	ff d6		 call	 esi
  001f7	50		 push	 eax
  001f8	e8 00 00 00 00	 call	 ?FromHandle@CWnd@@SGPAV1@PAUHWND__@@@Z ; CWnd::FromHandle
; File D:\git\src\IBK\IBK_DRFN\ProjSrc\SrcChartEx\ChartAddIn\ChartDesignPropertyAddIn\ChartDesignPropertyAddIn\MyTreeCtrl.cpp

; 338  : 	((CChartListPage* )GetParent())->SetToolTipInfo(nhItem, "Block");

  001fd	8b c8		 mov	 ecx, eax
  001ff	e8 00 00 00 00	 call	 ?SetToolTipInfo@CChartListPage@@QAEXAAPAU_TREEITEM@@ABV?$CStringT@DV?$StrTraitMFC_DLL@DV?$ChTraitsCRT@D@ATL@@@@@ATL@@@Z ; CChartListPage::SetToolTipInfo
  00204	8d 4d dc	 lea	 ecx, DWORD PTR $T17[ebp]
  00207	c7 45 fc ff ff
	ff ff		 mov	 DWORD PTR __$EHRec$[ebp+8], -1
  0020e	ff 15 00 00 00
	00		 call	 DWORD PTR __imp_??1?$CStringT@DV?$StrTraitMFC_DLL@DV?$ChTraitsCRT@D@ATL@@@@@ATL@@QAE@XZ

; 339  : 
; 340  : 	return nhItem;

  00214	8b 45 d8	 mov	 eax, DWORD PTR _nhItem$16[ebp]
  00217	8b 55 e8	 mov	 edx, DWORD PTR _pBlock$1$[ebp]
$LN38@InitTreeVi:

; 384  : 		CChartLink* pVertScale = pBlock->m_Child;

  0021a	8b 72 60	 mov	 esi, DWORD PTR [edx+96]
  0021d	89 42 08	 mov	 DWORD PTR [edx+8], eax
  00220	89 75 f0	 mov	 DWORD PTR _pVertScale$1$[ebp], esi

; 385  : 		while(pVertScale) { //vert Scale

  00223	85 f6		 test	 esi, esi
  00225	0f 84 ec 02 00
	00		 je	 $LN5@InitTreeVi
  0022b	0f 1f 44 00 00	 npad	 5
$LL4@InitTreeVi:

; 386  : 			pVertScale->m_hItem = AddVertScale(pBlock->m_hItem, (LPSTR)(LPCTSTR)pVertScale->m_strName) ;

  00230	8b 42 08	 mov	 eax, DWORD PTR [edx+8]
; File C:\Program Files (x86)\Microsoft Visual Studio\2019\Community\VC\Tools\MSVC\14.29.30133\atlmfc\include\atlsimpstr.h

; 377  : 		return( m_pszData );

  00233	8b 4e 0c	 mov	 ecx, DWORD PTR [esi+12]
; File D:\git\src\IBK\IBK_DRFN\ProjSrc\SrcChartEx\ChartAddIn\ChartDesignPropertyAddIn\ChartDesignPropertyAddIn\MyTreeCtrl.cpp

; 694  : 	if(hItem == NULL) return (HTREEITEM)0;

  00236	85 c0		 test	 eax, eax
  00238	0f 84 97 00 00
	00		 je	 $LN50@InitTreeVi
$LN51@InitTreeVi:

; 695  : 	HTREEITEM nhItem = 0;
; 696  : 
; 697  : 	TV_INSERTSTRUCT	tvstruct;
; 698  : 	tvstruct.hParent = hItem;

  0023e	89 85 64 ff ff
	ff		 mov	 DWORD PTR _tvstruct$3[ebp], eax
; File C:\Program Files (x86)\Microsoft Visual Studio\2019\Community\VC\Tools\MSVC\14.29.30133\atlmfc\include\afxcmn.inl

; 266  : 	{ ASSERT(::IsWindow(m_hWnd));  return (HTREEITEM)::SendMessage(m_hWnd, TVM_INSERTITEM, 0, (LPARAM)lpInsertStruct); }

  00244	8d 85 64 ff ff
	ff		 lea	 eax, DWORD PTR _tvstruct$3[ebp]
  0024a	50		 push	 eax
  0024b	6a 00		 push	 0
  0024d	68 00 11 00 00	 push	 4352			; 00001100H
  00252	ff 73 20	 push	 DWORD PTR [ebx+32]
; File D:\git\src\IBK\IBK_DRFN\ProjSrc\SrcChartEx\ChartAddIn\ChartDesignPropertyAddIn\ChartDesignPropertyAddIn\MyTreeCtrl.cpp

; 699  : 	tvstruct.hInsertAfter = TVI_LAST;

  00255	c7 85 68 ff ff
	ff 02 00 ff ff	 mov	 DWORD PTR _tvstruct$3[ebp+4], -65534 ; ffff0002H

; 700  : 	tvstruct.item.iImage = ROOT;

  0025f	c7 45 84 00 00
	00 00		 mov	 DWORD PTR _tvstruct$3[ebp+32], 0

; 701  : 	tvstruct.item.iSelectedImage = tvstruct.item.iImage;

  00266	c7 45 88 00 00
	00 00		 mov	 DWORD PTR _tvstruct$3[ebp+36], 0

; 702  : 	tvstruct.item.pszText = name;

  0026d	89 8d 7c ff ff
	ff		 mov	 DWORD PTR _tvstruct$3[ebp+24], ecx

; 703  : 	tvstruct.item.mask = TVIF_IMAGE | TVIF_SELECTEDIMAGE | TVIF_TEXT;

  00273	c7 85 6c ff ff
	ff 23 00 00 00	 mov	 DWORD PTR _tvstruct$3[ebp+8], 35 ; 00000023H
; File C:\Program Files (x86)\Microsoft Visual Studio\2019\Community\VC\Tools\MSVC\14.29.30133\atlmfc\include\afxcmn.inl

; 266  : 	{ ASSERT(::IsWindow(m_hWnd));  return (HTREEITEM)::SendMessage(m_hWnd, TVM_INSERTITEM, 0, (LPARAM)lpInsertStruct); }

  0027d	ff d7		 call	 edi

; 354  : 	{ ASSERT(::IsWindow(m_hWnd)); return (BOOL)::SendMessage(m_hWnd, TVM_ENSUREVISIBLE, 0, (LPARAM)hItem); }

  0027f	50		 push	 eax
  00280	6a 00		 push	 0
  00282	68 14 11 00 00	 push	 4372			; 00001114H
  00287	ff 73 20	 push	 DWORD PTR [ebx+32]
; File D:\git\src\IBK\IBK_DRFN\ProjSrc\SrcChartEx\ChartAddIn\ChartDesignPropertyAddIn\ChartDesignPropertyAddIn\MyTreeCtrl.cpp

; 704  : 	nhItem = InsertItem(&tvstruct);

  0028a	89 45 d0	 mov	 DWORD PTR _nhItem$14[ebp], eax
; File C:\Program Files (x86)\Microsoft Visual Studio\2019\Community\VC\Tools\MSVC\14.29.30133\atlmfc\include\afxcmn.inl

; 354  : 	{ ASSERT(::IsWindow(m_hWnd)); return (BOOL)::SendMessage(m_hWnd, TVM_ENSUREVISIBLE, 0, (LPARAM)hItem); }

  0028d	ff d7		 call	 edi
; File D:\git\src\IBK\IBK_DRFN\ProjSrc\SrcChartEx\ChartAddIn\ChartDesignPropertyAddIn\ChartDesignPropertyAddIn\MyTreeCtrl.cpp

; 707  : 	((CChartListPage* )GetParent())->SetToolTipInfo(nhItem, "Vertical Scale");

  0028f	68 00 00 00 00	 push	 OFFSET ??_C@_0P@ONCIBKJN@Vertical?5Scale@
  00294	8d 4d d4	 lea	 ecx, DWORD PTR $T15[ebp]
  00297	ff 15 00 00 00
	00		 call	 DWORD PTR __imp_??0?$CStringT@DV?$StrTraitMFC_DLL@DV?$ChTraitsCRT@D@ATL@@@@@ATL@@QAE@PBD@Z
  0029d	8d 45 d4	 lea	 eax, DWORD PTR $T15[ebp]
  002a0	c7 45 fc 04 00
	00 00		 mov	 DWORD PTR __$EHRec$[ebp+8], 4
  002a7	50		 push	 eax
  002a8	8d 45 d0	 lea	 eax, DWORD PTR _nhItem$14[ebp]
  002ab	50		 push	 eax
; File C:\Program Files (x86)\Microsoft Visual Studio\2019\Community\VC\Tools\MSVC\14.29.30133\atlmfc\include\afxwin2.inl

; 213  : 	{ ASSERT(::IsWindow(m_hWnd)); return CWnd::FromHandle(::GetParent(m_hWnd)); }

  002ac	ff 73 20	 push	 DWORD PTR [ebx+32]
  002af	ff 15 00 00 00
	00		 call	 DWORD PTR __imp__GetParent@4
  002b5	50		 push	 eax
  002b6	e8 00 00 00 00	 call	 ?FromHandle@CWnd@@SGPAV1@PAUHWND__@@@Z ; CWnd::FromHandle
; File D:\git\src\IBK\IBK_DRFN\ProjSrc\SrcChartEx\ChartAddIn\ChartDesignPropertyAddIn\ChartDesignPropertyAddIn\MyTreeCtrl.cpp

; 707  : 	((CChartListPage* )GetParent())->SetToolTipInfo(nhItem, "Vertical Scale");

  002bb	8b c8		 mov	 ecx, eax
  002bd	e8 00 00 00 00	 call	 ?SetToolTipInfo@CChartListPage@@QAEXAAPAU_TREEITEM@@ABV?$CStringT@DV?$StrTraitMFC_DLL@DV?$ChTraitsCRT@D@ATL@@@@@ATL@@@Z ; CChartListPage::SetToolTipInfo
  002c2	8d 4d d4	 lea	 ecx, DWORD PTR $T15[ebp]
  002c5	c7 45 fc ff ff
	ff ff		 mov	 DWORD PTR __$EHRec$[ebp+8], -1
  002cc	ff 15 00 00 00
	00		 call	 DWORD PTR __imp_??1?$CStringT@DV?$StrTraitMFC_DLL@DV?$ChTraitsCRT@D@ATL@@@@@ATL@@QAE@XZ

; 708  : 
; 709  : 	return nhItem;

  002d2	8b 45 d0	 mov	 eax, DWORD PTR _nhItem$14[ebp]
$LN50@InitTreeVi:

; 387  : 			CChartLink* pGraph = pVertScale->m_Child;

  002d5	8b 7e 60	 mov	 edi, DWORD PTR [esi+96]
  002d8	89 46 08	 mov	 DWORD PTR [esi+8], eax
  002db	89 7d e4	 mov	 DWORD PTR _pGraph$1$[ebp], edi

; 388  : 			while(pGraph) {//Graph

  002de	85 ff		 test	 edi, edi
  002e0	0f 84 1a 02 00
	00		 je	 $LN7@InitTreeVi
$LL6@InitTreeVi:

; 389  : 				pGraph->m_hItem = AddItem(pVertScale->m_hItem, (LPSTR)(LPCTSTR)pGraph->m_strName) ;

  002e6	8b 46 08	 mov	 eax, DWORD PTR [esi+8]
; File C:\Program Files (x86)\Microsoft Visual Studio\2019\Community\VC\Tools\MSVC\14.29.30133\atlmfc\include\atlsimpstr.h

; 377  : 		return( m_pszData );

  002e9	8b 4f 0c	 mov	 ecx, DWORD PTR [edi+12]
  002ec	89 4d b8	 mov	 DWORD PTR $T7[ebp], ecx
; File D:\git\src\IBK\IBK_DRFN\ProjSrc\SrcChartEx\ChartAddIn\ChartDesignPropertyAddIn\ChartDesignPropertyAddIn\MyTreeCtrl.cpp

; 307  : 	if(hItem == NULL) return (HTREEITEM)0;

  002ef	85 c0		 test	 eax, eax
  002f1	75 07		 jne	 SHORT $LN63@InitTreeVi
  002f3	33 ff		 xor	 edi, edi
  002f5	e9 bb 00 00 00	 jmp	 $LN62@InitTreeVi
$LN63@InitTreeVi:

; 313  : 	tvstruct.item.iImage = GetimageofIndicatorTypeIndex( ( char *)_LTOM5( name)) ;

  002fa	6a 00		 push	 0
  002fc	51		 push	 ecx
  002fd	6a 05		 push	 5
  002ff	ff b3 04 02 00
	00		 push	 DWORD PTR [ebx+516]
  00305	b9 00 00 00 00	 mov	 ecx, OFFSET ?g_iMetaTable@@3VIMetaTable@@A ; g_iMetaTable
  0030a	89 85 64 ff ff
	ff		 mov	 DWORD PTR _tvstruct$2[ebp], eax
  00310	c7 85 68 ff ff
	ff 02 00 ff ff	 mov	 DWORD PTR _tvstruct$2[ebp+4], -65534 ; ffff0002H
  0031a	e8 00 00 00 00	 call	 ?GetMetaText@IMetaTable@@QAEPBDPAUHWND__@@W4E_CODEPAGE@1@PBDH@Z ; IMetaTable::GetMetaText

; 346  : 	for(int i = 0 ; i < GRAPHTYPE_ITEM ; i++) {

  0031f	8b 1d 54 00 00
	00		 mov	 ebx, DWORD PTR ?g_iMetaTable@@3VIMetaTable@@A+84

; 313  : 	tvstruct.item.iImage = GetimageofIndicatorTypeIndex( ( char *)_LTOM5( name)) ;

  00325	8b f8		 mov	 edi, eax

; 346  : 	for(int i = 0 ; i < GRAPHTYPE_ITEM ; i++) {

  00327	33 f6		 xor	 esi, esi
  00329	0f 1f 80 00 00
	00 00		 npad	 7
$LL68@InitTreeVi:

; 347  : 		if(strcmp( strGraphType, _MTEXTN( pGraphTypeItem[ i])) == 0)

  00330	8b 0c b5 00 00
	00 00		 mov	 ecx, DWORD PTR ?pGraphTypeItem@@3PAW4E_METACODE@IMetaTable@@A[esi*4]
  00337	8b d7		 mov	 edx, edi
  00339	8b 0c 8b	 mov	 ecx, DWORD PTR [ebx+ecx*4]
  0033c	0f 1f 40 00	 npad	 4
$LL105@InitTreeVi:
  00340	8a 02		 mov	 al, BYTE PTR [edx]
  00342	3a 01		 cmp	 al, BYTE PTR [ecx]
  00344	75 1a		 jne	 SHORT $LN106@InitTreeVi
  00346	84 c0		 test	 al, al
  00348	74 12		 je	 SHORT $LN107@InitTreeVi
  0034a	8a 42 01	 mov	 al, BYTE PTR [edx+1]
  0034d	3a 41 01	 cmp	 al, BYTE PTR [ecx+1]
  00350	75 0e		 jne	 SHORT $LN106@InitTreeVi
  00352	83 c2 02	 add	 edx, 2
  00355	83 c1 02	 add	 ecx, 2
  00358	84 c0		 test	 al, al
  0035a	75 e4		 jne	 SHORT $LL105@InitTreeVi
$LN107@InitTreeVi:
  0035c	33 c0		 xor	 eax, eax
  0035e	eb 05		 jmp	 SHORT $LN108@InitTreeVi
$LN106@InitTreeVi:
  00360	1b c0		 sbb	 eax, eax
  00362	83 c8 01	 or	 eax, 1
$LN108@InitTreeVi:
  00365	46		 inc	 esi
  00366	85 c0		 test	 eax, eax
  00368	74 07		 je	 SHORT $LN65@InitTreeVi

; 341  : }
; 342  : 
; 343  : 
; 344  : int CMyTreeCtrl::GetimageofIndicatorTypeIndex( LPSTR strGraphType)
; 345  : {
; 346  : 	for(int i = 0 ; i < GRAPHTYPE_ITEM ; i++) {

  0036a	83 fe 08	 cmp	 esi, 8
  0036d	7c c1		 jl	 SHORT $LL68@InitTreeVi

; 348  : 			return i + 1 ;
; 349  : 	}
; 350  : 	return 0 ;

  0036f	33 f6		 xor	 esi, esi
$LN65@InitTreeVi:

; 315  : 	tvstruct.item.pszText = name;

  00371	8b 45 b8	 mov	 eax, DWORD PTR $T7[ebp]
; File C:\Program Files (x86)\Microsoft Visual Studio\2019\Community\VC\Tools\MSVC\14.29.30133\atlmfc\include\afxcmn.inl

; 266  : 	{ ASSERT(::IsWindow(m_hWnd));  return (HTREEITEM)::SendMessage(m_hWnd, TVM_INSERTITEM, 0, (LPARAM)lpInsertStruct); }

  00374	8b 5d b0	 mov	 ebx, DWORD PTR _this$1$[ebp]
; File D:\git\src\IBK\IBK_DRFN\ProjSrc\SrcChartEx\ChartAddIn\ChartDesignPropertyAddIn\ChartDesignPropertyAddIn\MyTreeCtrl.cpp

; 315  : 	tvstruct.item.pszText = name;

  00377	89 85 7c ff ff
	ff		 mov	 DWORD PTR _tvstruct$2[ebp+24], eax
; File C:\Program Files (x86)\Microsoft Visual Studio\2019\Community\VC\Tools\MSVC\14.29.30133\atlmfc\include\afxcmn.inl

; 266  : 	{ ASSERT(::IsWindow(m_hWnd));  return (HTREEITEM)::SendMessage(m_hWnd, TVM_INSERTITEM, 0, (LPARAM)lpInsertStruct); }

  0037d	8d 85 64 ff ff
	ff		 lea	 eax, DWORD PTR _tvstruct$2[ebp]
  00383	50		 push	 eax
  00384	6a 00		 push	 0
  00386	68 00 11 00 00	 push	 4352			; 00001100H
  0038b	ff 73 20	 push	 DWORD PTR [ebx+32]
; File D:\git\src\IBK\IBK_DRFN\ProjSrc\SrcChartEx\ChartAddIn\ChartDesignPropertyAddIn\ChartDesignPropertyAddIn\MyTreeCtrl.cpp

; 313  : 	tvstruct.item.iImage = GetimageofIndicatorTypeIndex( ( char *)_LTOM5( name)) ;

  0038e	89 75 84	 mov	 DWORD PTR _tvstruct$2[ebp+32], esi

; 314  : 	tvstruct.item.iSelectedImage = tvstruct.item.iImage;

  00391	89 75 88	 mov	 DWORD PTR _tvstruct$2[ebp+36], esi
; File C:\Program Files (x86)\Microsoft Visual Studio\2019\Community\VC\Tools\MSVC\14.29.30133\atlmfc\include\afxcmn.inl

; 266  : 	{ ASSERT(::IsWindow(m_hWnd));  return (HTREEITEM)::SendMessage(m_hWnd, TVM_INSERTITEM, 0, (LPARAM)lpInsertStruct); }

  00394	8b 35 00 00 00
	00		 mov	 esi, DWORD PTR __imp__SendMessageA@16
; File D:\git\src\IBK\IBK_DRFN\ProjSrc\SrcChartEx\ChartAddIn\ChartDesignPropertyAddIn\ChartDesignPropertyAddIn\MyTreeCtrl.cpp

; 316  : 	tvstruct.item.mask = TVIF_IMAGE | TVIF_SELECTEDIMAGE | TVIF_TEXT;

  0039a	c7 85 6c ff ff
	ff 23 00 00 00	 mov	 DWORD PTR _tvstruct$2[ebp+8], 35 ; 00000023H
; File C:\Program Files (x86)\Microsoft Visual Studio\2019\Community\VC\Tools\MSVC\14.29.30133\atlmfc\include\afxcmn.inl

; 266  : 	{ ASSERT(::IsWindow(m_hWnd));  return (HTREEITEM)::SendMessage(m_hWnd, TVM_INSERTITEM, 0, (LPARAM)lpInsertStruct); }

  003a4	ff d6		 call	 esi
; File D:\git\src\IBK\IBK_DRFN\ProjSrc\SrcChartEx\ChartAddIn\ChartDesignPropertyAddIn\ChartDesignPropertyAddIn\MyTreeCtrl.cpp

; 317  : 	nhItem = InsertItem(&tvstruct);

  003a6	8b f8		 mov	 edi, eax
; File C:\Program Files (x86)\Microsoft Visual Studio\2019\Community\VC\Tools\MSVC\14.29.30133\atlmfc\include\afxcmn.inl

; 354  : 	{ ASSERT(::IsWindow(m_hWnd)); return (BOOL)::SendMessage(m_hWnd, TVM_ENSUREVISIBLE, 0, (LPARAM)hItem); }

  003a8	57		 push	 edi
  003a9	6a 00		 push	 0
  003ab	68 14 11 00 00	 push	 4372			; 00001114H
  003b0	ff 73 20	 push	 DWORD PTR [ebx+32]
  003b3	ff d6		 call	 esi
$LN62@InitTreeVi:
; File D:\git\src\IBK\IBK_DRFN\ProjSrc\SrcChartEx\ChartAddIn\ChartDesignPropertyAddIn\ChartDesignPropertyAddIn\MyTreeCtrl.cpp

; 389  : 				pGraph->m_hItem = AddItem(pVertScale->m_hItem, (LPSTR)(LPCTSTR)pGraph->m_strName) ;

  003b5	8b 75 e4	 mov	 esi, DWORD PTR _pGraph$1$[ebp]

; 390  : 				//nami//tooltip
; 391  : 				if(pGraph == NULL) return;
; 392  : 				CString str;

  003b8	8d 4d e0	 lea	 ecx, DWORD PTR _str$18[ebp]
  003bb	83 c6 08	 add	 esi, 8
  003be	89 3e		 mov	 DWORD PTR [esi], edi
  003c0	ff 15 00 00 00
	00		 call	 DWORD PTR __imp_??0?$CStringT@DV?$StrTraitMFC_DLL@DV?$ChTraitsCRT@D@ATL@@@@@ATL@@QAE@XZ

; 393  : 				str.Format("[IndicatorName]: %s,  [Title1]: %s", pGraph->m_strIndicatorName, GetTitle(pGraph->m_strSubGraphDatas));

  003c6	8b 7d e4	 mov	 edi, DWORD PTR _pGraph$1$[ebp]

; 676  : 	CString strData = strTitle;

  003c9	8d 4d ec	 lea	 ecx, DWORD PTR _strData$19[ebp]

; 390  : 				//nami//tooltip
; 391  : 				if(pGraph == NULL) return;
; 392  : 				CString str;

  003cc	c7 45 fc 05 00
	00 00		 mov	 DWORD PTR __$EHRec$[ebp+8], 5

; 393  : 				str.Format("[IndicatorName]: %s,  [Title1]: %s", pGraph->m_strIndicatorName, GetTitle(pGraph->m_strSubGraphDatas));

  003d3	8d 47 28	 lea	 eax, DWORD PTR [edi+40]

; 676  : 	CString strData = strTitle;

  003d6	50		 push	 eax
  003d7	ff 15 00 00 00
	00		 call	 DWORD PTR __imp_??0?$CStringT@DV?$StrTraitMFC_DLL@DV?$ChTraitsCRT@D@ATL@@@@@ATL@@QAE@ABV01@@Z

; 677  : 	CDataConversion::GetStringData(strData, ";");

  003dd	68 00 00 00 00	 push	 OFFSET ??_C@_01ICJEACDI@?$DL@
  003e2	8d 4d cc	 lea	 ecx, DWORD PTR $T13[ebp]
  003e5	c6 45 fc 06	 mov	 BYTE PTR __$EHRec$[ebp+8], 6
  003e9	ff 15 00 00 00
	00		 call	 DWORD PTR __imp_??0?$CStringT@DV?$StrTraitMFC_DLL@DV?$ChTraitsCRT@D@ATL@@@@@ATL@@QAE@PBD@Z
  003ef	6a 01		 push	 1
  003f1	8d 45 cc	 lea	 eax, DWORD PTR $T13[ebp]
  003f4	c6 45 fc 07	 mov	 BYTE PTR __$EHRec$[ebp+8], 7
  003f8	50		 push	 eax
  003f9	8d 45 ec	 lea	 eax, DWORD PTR _strData$19[ebp]
  003fc	50		 push	 eax
  003fd	8d 45 ac	 lea	 eax, DWORD PTR $T6[ebp]
  00400	50		 push	 eax
  00401	e8 00 00 00 00	 call	 ?GetStringData@CDataConversion@@SA?AV?$CStringT@DV?$StrTraitMFC_DLL@DV?$ChTraitsCRT@D@ATL@@@@@ATL@@AAV23@ABV23@_N@Z ; CDataConversion::GetStringData
  00406	83 c4 10	 add	 esp, 16			; 00000010H
  00409	8d 4d ac	 lea	 ecx, DWORD PTR $T6[ebp]
  0040c	ff 15 00 00 00
	00		 call	 DWORD PTR __imp_??1?$CStringT@DV?$StrTraitMFC_DLL@DV?$ChTraitsCRT@D@ATL@@@@@ATL@@QAE@XZ
  00412	8d 4d cc	 lea	 ecx, DWORD PTR $T13[ebp]
  00415	c6 45 fc 06	 mov	 BYTE PTR __$EHRec$[ebp+8], 6
  00419	ff 15 00 00 00
	00		 call	 DWORD PTR __imp_??1?$CStringT@DV?$StrTraitMFC_DLL@DV?$ChTraitsCRT@D@ATL@@@@@ATL@@QAE@XZ

; 678  : 	CDataConversion::GetStringData(strData, ";");

  0041f	68 00 00 00 00	 push	 OFFSET ??_C@_01ICJEACDI@?$DL@
  00424	8d 4d c8	 lea	 ecx, DWORD PTR $T12[ebp]
  00427	ff 15 00 00 00
	00		 call	 DWORD PTR __imp_??0?$CStringT@DV?$StrTraitMFC_DLL@DV?$ChTraitsCRT@D@ATL@@@@@ATL@@QAE@PBD@Z
  0042d	6a 01		 push	 1
  0042f	8d 45 c8	 lea	 eax, DWORD PTR $T12[ebp]
  00432	c6 45 fc 08	 mov	 BYTE PTR __$EHRec$[ebp+8], 8
  00436	50		 push	 eax
  00437	8d 45 ec	 lea	 eax, DWORD PTR _strData$19[ebp]
  0043a	50		 push	 eax
  0043b	8d 45 a8	 lea	 eax, DWORD PTR $T5[ebp]
  0043e	50		 push	 eax
  0043f	e8 00 00 00 00	 call	 ?GetStringData@CDataConversion@@SA?AV?$CStringT@DV?$StrTraitMFC_DLL@DV?$ChTraitsCRT@D@ATL@@@@@ATL@@AAV23@ABV23@_N@Z ; CDataConversion::GetStringData
  00444	83 c4 10	 add	 esp, 16			; 00000010H
  00447	8d 4d a8	 lea	 ecx, DWORD PTR $T5[ebp]
  0044a	ff 15 00 00 00
	00		 call	 DWORD PTR __imp_??1?$CStringT@DV?$StrTraitMFC_DLL@DV?$ChTraitsCRT@D@ATL@@@@@ATL@@QAE@XZ
  00450	8d 4d c8	 lea	 ecx, DWORD PTR $T12[ebp]
  00453	c6 45 fc 06	 mov	 BYTE PTR __$EHRec$[ebp+8], 6
  00457	ff 15 00 00 00
	00		 call	 DWORD PTR __imp_??1?$CStringT@DV?$StrTraitMFC_DLL@DV?$ChTraitsCRT@D@ATL@@@@@ATL@@QAE@XZ

; 679  : 	return CDataConversion::GetStringData(strData, ";");

  0045d	68 00 00 00 00	 push	 OFFSET ??_C@_01ICJEACDI@?$DL@
  00462	8d 4d c0	 lea	 ecx, DWORD PTR $T10[ebp]
  00465	ff 15 00 00 00
	00		 call	 DWORD PTR __imp_??0?$CStringT@DV?$StrTraitMFC_DLL@DV?$ChTraitsCRT@D@ATL@@@@@ATL@@QAE@PBD@Z
  0046b	6a 01		 push	 1
  0046d	8d 45 c0	 lea	 eax, DWORD PTR $T10[ebp]
  00470	c6 45 fc 09	 mov	 BYTE PTR __$EHRec$[ebp+8], 9
  00474	50		 push	 eax
  00475	8d 45 ec	 lea	 eax, DWORD PTR _strData$19[ebp]
  00478	50		 push	 eax
  00479	8d 45 bc	 lea	 eax, DWORD PTR $T9[ebp]
  0047c	50		 push	 eax
  0047d	e8 00 00 00 00	 call	 ?GetStringData@CDataConversion@@SA?AV?$CStringT@DV?$StrTraitMFC_DLL@DV?$ChTraitsCRT@D@ATL@@@@@ATL@@AAV23@ABV23@_N@Z ; CDataConversion::GetStringData
  00482	83 4d c4 01	 or	 DWORD PTR $T11[ebp], 1
  00486	8d 4d c0	 lea	 ecx, DWORD PTR $T10[ebp]
  00489	83 c4 10	 add	 esp, 16			; 00000010H
  0048c	ff 15 00 00 00
	00		 call	 DWORD PTR __imp_??1?$CStringT@DV?$StrTraitMFC_DLL@DV?$ChTraitsCRT@D@ATL@@@@@ATL@@QAE@XZ
  00492	8d 4d ec	 lea	 ecx, DWORD PTR _strData$19[ebp]
  00495	ff 15 00 00 00
	00		 call	 DWORD PTR __imp_??1?$CStringT@DV?$StrTraitMFC_DLL@DV?$ChTraitsCRT@D@ATL@@@@@ATL@@QAE@XZ

; 393  : 				str.Format("[IndicatorName]: %s,  [Title1]: %s", pGraph->m_strIndicatorName, GetTitle(pGraph->m_strSubGraphDatas));

  0049b	ff 75 bc	 push	 DWORD PTR $T9[ebp]
  0049e	8d 45 e0	 lea	 eax, DWORD PTR _str$18[ebp]
  004a1	c6 45 fc 0a	 mov	 BYTE PTR __$EHRec$[ebp+8], 10 ; 0000000aH
  004a5	ff 77 14	 push	 DWORD PTR [edi+20]
  004a8	68 00 00 00 00	 push	 OFFSET ??_C@_0CD@IAJMFNPB@?$FLIndicatorName?$FN?3?5?$CFs?0?5?5?$FLTitle1?$FN?3@
  004ad	50		 push	 eax
  004ae	ff 15 00 00 00
	00		 call	 DWORD PTR __imp_?Format@?$CStringT@DV?$StrTraitMFC_DLL@DV?$ChTraitsCRT@D@ATL@@@@@ATL@@QAAXPBDZZ
  004b4	83 c4 10	 add	 esp, 16			; 00000010H
  004b7	c6 45 fc 05	 mov	 BYTE PTR __$EHRec$[ebp+8], 5
  004bb	8d 4d bc	 lea	 ecx, DWORD PTR $T9[ebp]
  004be	ff 15 00 00 00
	00		 call	 DWORD PTR __imp_??1?$CStringT@DV?$StrTraitMFC_DLL@DV?$ChTraitsCRT@D@ATL@@@@@ATL@@QAE@XZ

; 394  : 				((CChartListPage* )GetParent())->SetToolTipInfo(pGraph->m_hItem, str);

  004c4	8d 45 e0	 lea	 eax, DWORD PTR _str$18[ebp]
  004c7	50		 push	 eax
  004c8	56		 push	 esi
; File C:\Program Files (x86)\Microsoft Visual Studio\2019\Community\VC\Tools\MSVC\14.29.30133\atlmfc\include\afxwin2.inl

; 213  : 	{ ASSERT(::IsWindow(m_hWnd)); return CWnd::FromHandle(::GetParent(m_hWnd)); }

  004c9	ff 73 20	 push	 DWORD PTR [ebx+32]
  004cc	ff 15 00 00 00
	00		 call	 DWORD PTR __imp__GetParent@4
  004d2	50		 push	 eax
  004d3	e8 00 00 00 00	 call	 ?FromHandle@CWnd@@SGPAV1@PAUHWND__@@@Z ; CWnd::FromHandle
; File D:\git\src\IBK\IBK_DRFN\ProjSrc\SrcChartEx\ChartAddIn\ChartDesignPropertyAddIn\ChartDesignPropertyAddIn\MyTreeCtrl.cpp

; 394  : 				((CChartListPage* )GetParent())->SetToolTipInfo(pGraph->m_hItem, str);

  004d8	8b c8		 mov	 ecx, eax
  004da	e8 00 00 00 00	 call	 ?SetToolTipInfo@CChartListPage@@QAEXAAPAU_TREEITEM@@ABV?$CStringT@DV?$StrTraitMFC_DLL@DV?$ChTraitsCRT@D@ATL@@@@@ATL@@@Z ; CChartListPage::SetToolTipInfo

; 395  : 				//nami End
; 396  : 				pGraph = pGraph->m_Next; //next Graph

  004df	8b 7f 68	 mov	 edi, DWORD PTR [edi+104]

; 397  : 			}

  004e2	8d 4d e0	 lea	 ecx, DWORD PTR _str$18[ebp]
  004e5	89 7d e4	 mov	 DWORD PTR _pGraph$1$[ebp], edi
  004e8	c7 45 fc ff ff
	ff ff		 mov	 DWORD PTR __$EHRec$[ebp+8], -1
  004ef	ff 15 00 00 00
	00		 call	 DWORD PTR __imp_??1?$CStringT@DV?$StrTraitMFC_DLL@DV?$ChTraitsCRT@D@ATL@@@@@ATL@@QAE@XZ
  004f5	8b 75 f0	 mov	 esi, DWORD PTR _pVertScale$1$[ebp]
  004f8	85 ff		 test	 edi, edi
  004fa	0f 85 e6 fd ff
	ff		 jne	 $LL6@InitTreeVi
$LN7@InitTreeVi:

; 398  : 			pVertScale = pVertScale->m_Next ; //next VertScale

  00500	8b 76 68	 mov	 esi, DWORD PTR [esi+104]
  00503	8b 3d 00 00 00
	00		 mov	 edi, DWORD PTR __imp__SendMessageA@16
  00509	8b 55 e8	 mov	 edx, DWORD PTR _pBlock$1$[ebp]
  0050c	89 75 f0	 mov	 DWORD PTR _pVertScale$1$[ebp], esi
  0050f	85 f6		 test	 esi, esi
  00511	0f 85 19 fd ff
	ff		 jne	 $LL4@InitTreeVi
$LN5@InitTreeVi:

; 399  : 		}
; 400  : 		pBlock = pBlock->m_Next ; //next Block

  00517	8b 52 68	 mov	 edx, DWORD PTR [edx+104]
  0051a	8b 35 00 00 00
	00		 mov	 esi, DWORD PTR __imp__GetParent@4
  00520	89 55 e8	 mov	 DWORD PTR _pBlock$1$[ebp], edx
  00523	85 d2		 test	 edx, edx
  00525	0f 85 48 fc ff
	ff		 jne	 $LL2@InitTreeVi
$LN92@InitTreeVi:

; 401  : 	}
; 402  : }

  0052b	8b 4d f4	 mov	 ecx, DWORD PTR __$EHRec$[ebp]
  0052e	64 89 0d 00 00
	00 00		 mov	 DWORD PTR fs:0, ecx
  00535	59		 pop	 ecx
  00536	5f		 pop	 edi
  00537	5e		 pop	 esi
  00538	5b		 pop	 ebx
  00539	8b e5		 mov	 esp, ebp
  0053b	5d		 pop	 ebp
  0053c	c3		 ret	 0
_TEXT	ENDS
;	COMDAT text$x
text$x	SEGMENT
__unwindfunclet$?InitTreeView@CMyTreeCtrl@@QAEXXZ$0:
  00000	8d 4d b8	 lea	 ecx, DWORD PTR ___mlrs__$8[ebp]
  00003	e9 00 00 00 00	 jmp	 ??1CMultiLanguageResourceSetter@@QAE@XZ ; CMultiLanguageResourceSetter::~CMultiLanguageResourceSetter
__unwindfunclet$?InitTreeView@CMyTreeCtrl@@QAEXXZ$1:
  00008	8d 4d f0	 lea	 ecx, DWORD PTR $T20[ebp]
  0000b	ff 25 00 00 00
	00		 jmp	 DWORD PTR __imp_??1?$CStringT@DV?$StrTraitMFC_DLL@DV?$ChTraitsCRT@D@ATL@@@@@ATL@@QAE@XZ
__unwindfunclet$?InitTreeView@CMyTreeCtrl@@QAEXXZ$5:
  00011	8d 4d dc	 lea	 ecx, DWORD PTR $T17[ebp]
  00014	ff 25 00 00 00
	00		 jmp	 DWORD PTR __imp_??1?$CStringT@DV?$StrTraitMFC_DLL@DV?$ChTraitsCRT@D@ATL@@@@@ATL@@QAE@XZ
__unwindfunclet$?InitTreeView@CMyTreeCtrl@@QAEXXZ$6:
  0001a	8d 4d d4	 lea	 ecx, DWORD PTR $T15[ebp]
  0001d	ff 25 00 00 00
	00		 jmp	 DWORD PTR __imp_??1?$CStringT@DV?$StrTraitMFC_DLL@DV?$ChTraitsCRT@D@ATL@@@@@ATL@@QAE@XZ
__unwindfunclet$?InitTreeView@CMyTreeCtrl@@QAEXXZ$2:
  00023	8d 4d e0	 lea	 ecx, DWORD PTR _str$18[ebp]
  00026	ff 25 00 00 00
	00		 jmp	 DWORD PTR __imp_??1?$CStringT@DV?$StrTraitMFC_DLL@DV?$ChTraitsCRT@D@ATL@@@@@ATL@@QAE@XZ
__unwindfunclet$?InitTreeView@CMyTreeCtrl@@QAEXXZ$7:
  0002c	8d 4d ec	 lea	 ecx, DWORD PTR _strData$19[ebp]
  0002f	ff 25 00 00 00
	00		 jmp	 DWORD PTR __imp_??1?$CStringT@DV?$StrTraitMFC_DLL@DV?$ChTraitsCRT@D@ATL@@@@@ATL@@QAE@XZ
__unwindfunclet$?InitTreeView@CMyTreeCtrl@@QAEXXZ$8:
  00035	8d 4d cc	 lea	 ecx, DWORD PTR $T13[ebp]
  00038	ff 25 00 00 00
	00		 jmp	 DWORD PTR __imp_??1?$CStringT@DV?$StrTraitMFC_DLL@DV?$ChTraitsCRT@D@ATL@@@@@ATL@@QAE@XZ
__unwindfunclet$?InitTreeView@CMyTreeCtrl@@QAEXXZ$10:
  0003e	8d 4d c8	 lea	 ecx, DWORD PTR $T12[ebp]
  00041	ff 25 00 00 00
	00		 jmp	 DWORD PTR __imp_??1?$CStringT@DV?$StrTraitMFC_DLL@DV?$ChTraitsCRT@D@ATL@@@@@ATL@@QAE@XZ
__unwindfunclet$?InitTreeView@CMyTreeCtrl@@QAEXXZ$12:
  00047	8d 4d c0	 lea	 ecx, DWORD PTR $T10[ebp]
  0004a	ff 25 00 00 00
	00		 jmp	 DWORD PTR __imp_??1?$CStringT@DV?$StrTraitMFC_DLL@DV?$ChTraitsCRT@D@ATL@@@@@ATL@@QAE@XZ
__unwindfunclet$?InitTreeView@CMyTreeCtrl@@QAEXXZ$3:
  00050	8d 4d bc	 lea	 ecx, DWORD PTR $T9[ebp]
  00053	ff 25 00 00 00
	00		 jmp	 DWORD PTR __imp_??1?$CStringT@DV?$StrTraitMFC_DLL@DV?$ChTraitsCRT@D@ATL@@@@@ATL@@QAE@XZ
  00059	cc		 int	 3
  0005a	cc		 int	 3
  0005b	cc		 int	 3
  0005c	cc		 int	 3
  0005d	cc		 int	 3
__ehhandler$?InitTreeView@CMyTreeCtrl@@QAEXXZ:
  0005e	90		 npad	 1
  0005f	90		 npad	 1
  00060	8b 54 24 08	 mov	 edx, DWORD PTR [esp+8]
  00064	8d 42 0c	 lea	 eax, DWORD PTR [edx+12]
  00067	8b 8a 1c ff ff
	ff		 mov	 ecx, DWORD PTR [edx-228]
  0006d	33 c8		 xor	 ecx, eax
  0006f	e8 00 00 00 00	 call	 @__security_check_cookie@4
  00074	b8 00 00 00 00	 mov	 eax, OFFSET __ehfuncinfo$?InitTreeView@CMyTreeCtrl@@QAEXXZ
  00079	e9 00 00 00 00	 jmp	 ___CxxFrameHandler3
text$x	ENDS
?InitTreeView@CMyTreeCtrl@@QAEXXZ ENDP			; CMyTreeCtrl::InitTreeView
; Function compile flags: /Ogtp
; File D:\git\src\IBK\IBK_DRFN\ProjSrc\SrcChartEx\ChartAddIn\ChartDesignPropertyAddIn\ChartDesignPropertyAddIn\MyTreeCtrl.cpp
;	COMDAT ?GetBlockandGraphAllData@CMyTreeCtrl@@QAE?AV?$CStringT@DV?$StrTraitMFC_DLL@DV?$ChTraitsCRT@D@ATL@@@@@ATL@@XZ
_TEXT	SEGMENT
_data$ = -32						; size = 20
__$EHRec$ = -12						; size = 12
___$ReturnUdt$ = 8					; size = 4
?GetBlockandGraphAllData@CMyTreeCtrl@@QAE?AV?$CStringT@DV?$StrTraitMFC_DLL@DV?$ChTraitsCRT@D@ATL@@@@@ATL@@XZ PROC ; CMyTreeCtrl::GetBlockandGraphAllData, COMDAT
; _this$ = ecx

; 460  : {

  00000	55		 push	 ebp
  00001	8b ec		 mov	 ebp, esp
  00003	6a ff		 push	 -1
  00005	68 00 00 00 00	 push	 __ehhandler$?GetBlockandGraphAllData@CMyTreeCtrl@@QAE?AV?$CStringT@DV?$StrTraitMFC_DLL@DV?$ChTraitsCRT@D@ATL@@@@@ATL@@XZ
  0000a	64 a1 00 00 00
	00		 mov	 eax, DWORD PTR fs:0
  00010	50		 push	 eax
  00011	83 ec 14	 sub	 esp, 20			; 00000014H
  00014	56		 push	 esi
  00015	a1 00 00 00 00	 mov	 eax, DWORD PTR ___security_cookie
  0001a	33 c5		 xor	 eax, ebp
  0001c	50		 push	 eax
  0001d	8d 45 f4	 lea	 eax, DWORD PTR __$EHRec$[ebp]
  00020	64 a3 00 00 00
	00		 mov	 DWORD PTR fs:0, eax
  00026	8b f1		 mov	 esi, ecx

; 461  : 	CDataOfChartListPage data( m_hOcxWnd);

  00028	ff b6 04 02 00
	00		 push	 DWORD PTR [esi+516]
  0002e	8d 4d e0	 lea	 ecx, DWORD PTR _data$[ebp]
  00031	e8 00 00 00 00	 call	 ??0CDataOfChartListPage@@QAE@PAUHWND__@@@Z ; CDataOfChartListPage::CDataOfChartListPage

; 462  : 	return data.GetBlockandGraphAllData( &m_clChartRoot);

  00036	8d 86 00 01 00
	00		 lea	 eax, DWORD PTR [esi+256]
  0003c	c7 45 fc 00 00
	00 00		 mov	 DWORD PTR __$EHRec$[ebp+8], 0
  00043	8b 75 08	 mov	 esi, DWORD PTR ___$ReturnUdt$[ebp]
  00046	8d 4d e0	 lea	 ecx, DWORD PTR _data$[ebp]
  00049	50		 push	 eax
  0004a	56		 push	 esi
  0004b	e8 00 00 00 00	 call	 ?GetBlockandGraphAllData@CDataOfChartListPage@@QAE?AV?$CStringT@DV?$StrTraitMFC_DLL@DV?$ChTraitsCRT@D@ATL@@@@@ATL@@PAVCChartLink@@@Z ; CDataOfChartListPage::GetBlockandGraphAllData
  00050	8d 4d e0	 lea	 ecx, DWORD PTR _data$[ebp]
  00053	e8 00 00 00 00	 call	 ??1CDataOfChartListPage@@UAE@XZ ; CDataOfChartListPage::~CDataOfChartListPage
  00058	8b c6		 mov	 eax, esi

; 463  : }

  0005a	8b 4d f4	 mov	 ecx, DWORD PTR __$EHRec$[ebp]
  0005d	64 89 0d 00 00
	00 00		 mov	 DWORD PTR fs:0, ecx
  00064	59		 pop	 ecx
  00065	5e		 pop	 esi
  00066	8b e5		 mov	 esp, ebp
  00068	5d		 pop	 ebp
  00069	c2 04 00	 ret	 4
_TEXT	ENDS
;	COMDAT text$x
text$x	SEGMENT
__unwindfunclet$?GetBlockandGraphAllData@CMyTreeCtrl@@QAE?AV?$CStringT@DV?$StrTraitMFC_DLL@DV?$ChTraitsCRT@D@ATL@@@@@ATL@@XZ$0:
  00000	8d 4d e0	 lea	 ecx, DWORD PTR _data$[ebp]
  00003	e9 00 00 00 00	 jmp	 ??1CDataOfChartListPage@@UAE@XZ ; CDataOfChartListPage::~CDataOfChartListPage
  00008	cc		 int	 3
  00009	cc		 int	 3
  0000a	cc		 int	 3
  0000b	cc		 int	 3
  0000c	cc		 int	 3
__ehhandler$?GetBlockandGraphAllData@CMyTreeCtrl@@QAE?AV?$CStringT@DV?$StrTraitMFC_DLL@DV?$ChTraitsCRT@D@ATL@@@@@ATL@@XZ:
  0000d	90		 npad	 1
  0000e	90		 npad	 1
  0000f	8b 54 24 08	 mov	 edx, DWORD PTR [esp+8]
  00013	8d 42 0c	 lea	 eax, DWORD PTR [edx+12]
  00016	8b 4a e4	 mov	 ecx, DWORD PTR [edx-28]
  00019	33 c8		 xor	 ecx, eax
  0001b	e8 00 00 00 00	 call	 @__security_check_cookie@4
  00020	b8 00 00 00 00	 mov	 eax, OFFSET __ehfuncinfo$?GetBlockandGraphAllData@CMyTreeCtrl@@QAE?AV?$CStringT@DV?$StrTraitMFC_DLL@DV?$ChTraitsCRT@D@ATL@@@@@ATL@@XZ
  00025	e9 00 00 00 00	 jmp	 ___CxxFrameHandler3
text$x	ENDS
?GetBlockandGraphAllData@CMyTreeCtrl@@QAE?AV?$CStringT@DV?$StrTraitMFC_DLL@DV?$ChTraitsCRT@D@ATL@@@@@ATL@@XZ ENDP ; CMyTreeCtrl::GetBlockandGraphAllData
; Function compile flags: /Ogtp
; File D:\git\src\IBK\IBK_DRFN\ProjSrc\SrcChartEx\ChartAddIn\ChartDesignPropertyAddIn\ChartDesignPropertyAddIn\MyTreeCtrl.cpp
;	COMDAT ?AddItem@CMyTreeCtrl@@QAEXPAVCChartLink@@ABV?$CStringT@DV?$StrTraitMFC_DLL@DV?$ChTraitsCRT@D@ATL@@@@@ATL@@111_N222H221@Z
_TEXT	SEGMENT
$T2 = -16						; size = 4
__$EHRec$ = -12						; size = 12
_pVertiScale$ = 8					; size = 4
_strName$ = 12						; size = 4
_p_strIndicatorName$ = 16				; size = 4
_p_strGraphName$ = 20					; size = 4
_strPacket$ = 24					; size = 4
_bLowHighUpDown$ = 28					; size = 1
_bLowNowUpDown$ = 32					; size = 1
_bHighNowUpDown$ = 36					; size = 1
_bPreNowContrast$ = 40					; size = 1
_nCurData$ = 44						; size = 4
_bSignalUse$ = 48					; size = 1
_bSignalShow$ = 52					; size = 1
_strColorValue$ = 56					; size = 4
?AddItem@CMyTreeCtrl@@QAEXPAVCChartLink@@ABV?$CStringT@DV?$StrTraitMFC_DLL@DV?$ChTraitsCRT@D@ATL@@@@@ATL@@111_N222H221@Z PROC ; CMyTreeCtrl::AddItem, COMDAT
; _this$ = ecx

; 480  : {

  00000	55		 push	 ebp
  00001	8b ec		 mov	 ebp, esp
  00003	6a ff		 push	 -1
  00005	68 00 00 00 00	 push	 __ehhandler$?AddItem@CMyTreeCtrl@@QAEXPAVCChartLink@@ABV?$CStringT@DV?$StrTraitMFC_DLL@DV?$ChTraitsCRT@D@ATL@@@@@ATL@@111_N222H221@Z
  0000a	64 a1 00 00 00
	00		 mov	 eax, DWORD PTR fs:0
  00010	50		 push	 eax
  00011	51		 push	 ecx
  00012	56		 push	 esi
  00013	57		 push	 edi
  00014	a1 00 00 00 00	 mov	 eax, DWORD PTR ___security_cookie
  00019	33 c5		 xor	 eax, ebp
  0001b	50		 push	 eax
  0001c	8d 45 f4	 lea	 eax, DWORD PTR __$EHRec$[ebp]
  0001f	64 a3 00 00 00
	00		 mov	 DWORD PTR fs:0, eax
  00025	8b f1		 mov	 esi, ecx

; 481  : 	CChartLink* pSource = new CChartLink(NULL, GRAPH, (LPSTR)(LPCTSTR)strName, m_hOcxWnd);

  00027	68 b0 00 00 00	 push	 176			; 000000b0H
  0002c	e8 00 00 00 00	 call	 ??2@YAPAXI@Z		; operator new
  00031	83 c4 04	 add	 esp, 4
  00034	89 45 f0	 mov	 DWORD PTR $T2[ebp], eax
  00037	8b 7d 0c	 mov	 edi, DWORD PTR _strName$[ebp]
  0003a	c7 45 fc 00 00
	00 00		 mov	 DWORD PTR __$EHRec$[ebp+8], 0
  00041	85 c0		 test	 eax, eax
  00043	74 17		 je	 SHORT $LN5@AddItem
  00045	ff b6 04 02 00
	00		 push	 DWORD PTR [esi+516]
  0004b	8b c8		 mov	 ecx, eax
  0004d	ff 37		 push	 DWORD PTR [edi]
  0004f	6a 03		 push	 3
  00051	6a 00		 push	 0
  00053	e8 00 00 00 00	 call	 ??0CChartLink@@QAE@PAV0@HPADPAUHWND__@@@Z ; CChartLink::CChartLink
  00058	8b f0		 mov	 esi, eax
  0005a	eb 02		 jmp	 SHORT $LN6@AddItem
$LN5@AddItem:
  0005c	33 f6		 xor	 esi, esi
$LN6@AddItem:

; 482  : 	pSource->m_strName = strName;

  0005e	57		 push	 edi
  0005f	8d 4e 0c	 lea	 ecx, DWORD PTR [esi+12]
  00062	c7 45 fc ff ff
	ff ff		 mov	 DWORD PTR __$EHRec$[ebp+8], -1
  00069	ff 15 00 00 00
	00		 call	 DWORD PTR __imp_??4?$CStringT@DV?$StrTraitMFC_DLL@DV?$ChTraitsCRT@D@ATL@@@@@ATL@@QAEAAV01@ABV01@@Z

; 483  : 	pSource->m_strIndicatorName = p_strIndicatorName;

  0006f	ff 75 10	 push	 DWORD PTR _p_strIndicatorName$[ebp]
  00072	8d 4e 14	 lea	 ecx, DWORD PTR [esi+20]
  00075	ff 15 00 00 00
	00		 call	 DWORD PTR __imp_??4?$CStringT@DV?$StrTraitMFC_DLL@DV?$ChTraitsCRT@D@ATL@@@@@ATL@@QAEAAV01@ABV01@@Z

; 484  : 	pSource->m_strGraphName = p_strGraphName;

  0007b	ff 75 14	 push	 DWORD PTR _p_strGraphName$[ebp]
  0007e	8d 4e 18	 lea	 ecx, DWORD PTR [esi+24]
  00081	ff 15 00 00 00
	00		 call	 DWORD PTR __imp_??4?$CStringT@DV?$StrTraitMFC_DLL@DV?$ChTraitsCRT@D@ATL@@@@@ATL@@QAEAAV01@ABV01@@Z

; 485  : 	pSource->m_strCheckedPacketItems = strPacket;

  00087	ff 75 18	 push	 DWORD PTR _strPacket$[ebp]
  0008a	8d 4e 24	 lea	 ecx, DWORD PTR [esi+36]
  0008d	ff 15 00 00 00
	00		 call	 DWORD PTR __imp_??4?$CStringT@DV?$StrTraitMFC_DLL@DV?$ChTraitsCRT@D@ATL@@@@@ATL@@QAEAAV01@ABV01@@Z

; 486  : 
; 487  : 	pSource->m_bLowHighUpDown = bLowHighUpDown; //   

  00093	8a 45 1c	 mov	 al, BYTE PTR _bLowHighUpDown$[ebp]

; 488  : 	pSource->m_bLowNowUpDown = bLowNowUpDown; //
; 489  : 	pSource->m_bHighNowUpDown = bHighNowUpDown; //
; 490  : 	pSource->m_bPreNowContrast = bPreNowContrast; //
; 491  : 	pSource->m_nCurData = nCurData; //
; 492  : 
; 493  : 	//sy 2006.04.17.
; 494  : 	pSource->m_bSignalUse = bSignalUse;
; 495  : 	pSource->m_bSignalShow = bSignalShow;
; 496  : 	//sy end
; 497  : 	pSource->m_strSubGraphDatas = strColorValue;

  00096	8d 4e 28	 lea	 ecx, DWORD PTR [esi+40]
  00099	ff 75 38	 push	 DWORD PTR _strColorValue$[ebp]
  0009c	88 46 2e	 mov	 BYTE PTR [esi+46], al
  0009f	8a 45 20	 mov	 al, BYTE PTR _bLowNowUpDown$[ebp]
  000a2	88 46 2f	 mov	 BYTE PTR [esi+47], al
  000a5	8a 45 24	 mov	 al, BYTE PTR _bHighNowUpDown$[ebp]
  000a8	88 46 30	 mov	 BYTE PTR [esi+48], al
  000ab	8a 45 28	 mov	 al, BYTE PTR _bPreNowContrast$[ebp]
  000ae	88 46 31	 mov	 BYTE PTR [esi+49], al
  000b1	8b 45 2c	 mov	 eax, DWORD PTR _nCurData$[ebp]
  000b4	89 46 34	 mov	 DWORD PTR [esi+52], eax
  000b7	8a 45 30	 mov	 al, BYTE PTR _bSignalUse$[ebp]
  000ba	88 46 2c	 mov	 BYTE PTR [esi+44], al
  000bd	8a 45 34	 mov	 al, BYTE PTR _bSignalShow$[ebp]
  000c0	88 46 2d	 mov	 BYTE PTR [esi+45], al
  000c3	ff 15 00 00 00
	00		 call	 DWORD PTR __imp_??4?$CStringT@DV?$StrTraitMFC_DLL@DV?$ChTraitsCRT@D@ATL@@@@@ATL@@QAEAAV01@ABV01@@Z

; 498  : 
; 499  : 	if(pVertiScale->m_Child == NULL) {

  000c9	8b 4d 08	 mov	 ecx, DWORD PTR _pVertiScale$[ebp]
  000cc	83 79 60 00	 cmp	 DWORD PTR [ecx+96], 0
  000d0	75 19		 jne	 SHORT $LN2@AddItem

; 500  : 		pVertiScale->m_Child = pSource;

  000d2	89 71 60	 mov	 DWORD PTR [ecx+96], esi

; 501  : 		pSource->m_Parent = pVertiScale;

  000d5	89 4e 5c	 mov	 DWORD PTR [esi+92], ecx

; 506  : 	}
; 507  : }

  000d8	8b 4d f4	 mov	 ecx, DWORD PTR __$EHRec$[ebp]
  000db	64 89 0d 00 00
	00 00		 mov	 DWORD PTR fs:0, ecx
  000e2	59		 pop	 ecx
  000e3	5f		 pop	 edi
  000e4	5e		 pop	 esi
  000e5	8b e5		 mov	 esp, ebp
  000e7	5d		 pop	 ebp
  000e8	c2 34 00	 ret	 52			; 00000034H
$LN2@AddItem:

; 502  : 	}
; 503  : 	else {
; 504  : 		pSource->m_Parent = pVertiScale;

  000eb	89 4e 5c	 mov	 DWORD PTR [esi+92], ecx

; 505  : 		pVertiScale->m_Child->Add(pSource);

  000ee	8b 49 60	 mov	 ecx, DWORD PTR [ecx+96]
  000f1	56		 push	 esi
  000f2	e8 00 00 00 00	 call	 ?Add@CChartLink@@QAEHPAV1@@Z ; CChartLink::Add

; 506  : 	}
; 507  : }

  000f7	8b 4d f4	 mov	 ecx, DWORD PTR __$EHRec$[ebp]
  000fa	64 89 0d 00 00
	00 00		 mov	 DWORD PTR fs:0, ecx
  00101	59		 pop	 ecx
  00102	5f		 pop	 edi
  00103	5e		 pop	 esi
  00104	8b e5		 mov	 esp, ebp
  00106	5d		 pop	 ebp
  00107	c2 34 00	 ret	 52			; 00000034H
_TEXT	ENDS
;	COMDAT text$x
text$x	SEGMENT
__unwindfunclet$?AddItem@CMyTreeCtrl@@QAEXPAVCChartLink@@ABV?$CStringT@DV?$StrTraitMFC_DLL@DV?$ChTraitsCRT@D@ATL@@@@@ATL@@111_N222H221@Z$0:
  00000	68 b0 00 00 00	 push	 176			; 000000b0H
  00005	8b 45 f0	 mov	 eax, DWORD PTR $T2[ebp]
  00008	50		 push	 eax
  00009	e8 00 00 00 00	 call	 ??3@YAXPAXI@Z		; operator delete
  0000e	83 c4 08	 add	 esp, 8
  00011	c3		 ret	 0
  00012	cc		 int	 3
  00013	cc		 int	 3
  00014	cc		 int	 3
  00015	cc		 int	 3
  00016	cc		 int	 3
__ehhandler$?AddItem@CMyTreeCtrl@@QAEXPAVCChartLink@@ABV?$CStringT@DV?$StrTraitMFC_DLL@DV?$ChTraitsCRT@D@ATL@@@@@ATL@@111_N222H221@Z:
  00017	90		 npad	 1
  00018	90		 npad	 1
  00019	8b 54 24 08	 mov	 edx, DWORD PTR [esp+8]
  0001d	8d 42 0c	 lea	 eax, DWORD PTR [edx+12]
  00020	8b 4a f0	 mov	 ecx, DWORD PTR [edx-16]
  00023	33 c8		 xor	 ecx, eax
  00025	e8 00 00 00 00	 call	 @__security_check_cookie@4
  0002a	b8 00 00 00 00	 mov	 eax, OFFSET __ehfuncinfo$?AddItem@CMyTreeCtrl@@QAEXPAVCChartLink@@ABV?$CStringT@DV?$StrTraitMFC_DLL@DV?$ChTraitsCRT@D@ATL@@@@@ATL@@111_N222H221@Z
  0002f	e9 00 00 00 00	 jmp	 ___CxxFrameHandler3
text$x	ENDS
?AddItem@CMyTreeCtrl@@QAEXPAVCChartLink@@ABV?$CStringT@DV?$StrTraitMFC_DLL@DV?$ChTraitsCRT@D@ATL@@@@@ATL@@111_N222H221@Z ENDP ; CMyTreeCtrl::AddItem
; Function compile flags: /Ogtp
; File D:\git\src\IBK\IBK_DRFN\ProjSrc\SrcChartEx\ChartAddIn\ChartDesignPropertyAddIn\ChartDesignPropertyAddIn\MyTreeCtrl.cpp
;	COMDAT ?AddVerticalScaleItem@CMyTreeCtrl@@QAEPAVCChartLink@@ABV?$CStringT@DV?$StrTraitMFC_DLL@DV?$ChTraitsCRT@D@ATL@@@@@ATL@@HHHHHNNHHNNHH@Z
_TEXT	SEGMENT
$T2 = -20						; size = 4
$T3 = -16						; size = 4
$T4 = -16						; size = 4
__$EHRec$ = -12						; size = 12
_p_strScaleData$ = 8					; size = 4
_p_nScalePos$ = 12					; size = 4
_p_nScaleCompart$ = 16					; size = 4
_p_nScaleExpressionType$ = 20				; size = 4
_p_bMinMaxLock$ = 24					; size = 4
_p_nMinMaxType$ = 28					; size = 4
_p_dMin$ = 32						; size = 8
_p_dMax$ = 40						; size = 8
_p_nUpSpace$ = 48					; size = 4
_p_nDownSpace$ = 52					; size = 4
_p_dHogaNumber$ = 56					; size = 8
_p_dUserNumber$ = 64					; size = 8
_p_nUserHogaType$ = 72					; size = 4
_p_bIsInvert$ = 76					; size = 4
?AddVerticalScaleItem@CMyTreeCtrl@@QAEPAVCChartLink@@ABV?$CStringT@DV?$StrTraitMFC_DLL@DV?$ChTraitsCRT@D@ATL@@@@@ATL@@HHHHHNNHHNNHH@Z PROC ; CMyTreeCtrl::AddVerticalScaleItem, COMDAT
; _this$ = ecx

; 765  : {

  00000	55		 push	 ebp
  00001	8b ec		 mov	 ebp, esp
  00003	6a ff		 push	 -1
  00005	68 00 00 00 00	 push	 __ehhandler$?AddVerticalScaleItem@CMyTreeCtrl@@QAEPAVCChartLink@@ABV?$CStringT@DV?$StrTraitMFC_DLL@DV?$ChTraitsCRT@D@ATL@@@@@ATL@@HHHHHNNHHNNHH@Z
  0000a	64 a1 00 00 00
	00		 mov	 eax, DWORD PTR fs:0
  00010	50		 push	 eax
  00011	83 ec 0c	 sub	 esp, 12			; 0000000cH
  00014	56		 push	 esi
  00015	57		 push	 edi
  00016	a1 00 00 00 00	 mov	 eax, DWORD PTR ___security_cookie
  0001b	33 c5		 xor	 eax, ebp
  0001d	50		 push	 eax
  0001e	8d 45 f4	 lea	 eax, DWORD PTR __$EHRec$[ebp]
  00021	64 a3 00 00 00
	00		 mov	 DWORD PTR fs:0, eax
  00027	8b f9		 mov	 edi, ecx

; 766  : 	if(m_pChartBlock == NULL)

  00029	83 bf f0 01 00
	00 00		 cmp	 DWORD PTR [edi+496], 0
  00030	75 15		 jne	 SHORT $LN2@AddVertica

; 767  : 		return NULL;

  00032	33 c0		 xor	 eax, eax

; 803  : }

  00034	8b 4d f4	 mov	 ecx, DWORD PTR __$EHRec$[ebp]
  00037	64 89 0d 00 00
	00 00		 mov	 DWORD PTR fs:0, ecx
  0003e	59		 pop	 ecx
  0003f	5f		 pop	 edi
  00040	5e		 pop	 esi
  00041	8b e5		 mov	 esp, ebp
  00043	5d		 pop	 ebp
  00044	c2 48 00	 ret	 72			; 00000048H
$LN2@AddVertica:

; 768  : 
; 769  : 	CChartLink* pSource = new CChartLink(NULL, VERT_SCALE, "Vertical Scale", m_hOcxWnd);

  00047	68 b0 00 00 00	 push	 176			; 000000b0H
  0004c	e8 00 00 00 00	 call	 ??2@YAPAXI@Z		; operator new
  00051	83 c4 04	 add	 esp, 4
  00054	89 45 f0	 mov	 DWORD PTR $T4[ebp], eax
  00057	c7 45 fc 00 00
	00 00		 mov	 DWORD PTR __$EHRec$[ebp+8], 0
  0005e	85 c0		 test	 eax, eax
  00060	74 1a		 je	 SHORT $LN6@AddVertica
  00062	ff b7 04 02 00
	00		 push	 DWORD PTR [edi+516]
  00068	8b c8		 mov	 ecx, eax
  0006a	68 00 00 00 00	 push	 OFFSET ??_C@_0P@ONCIBKJN@Vertical?5Scale@
  0006f	6a 02		 push	 2
  00071	6a 00		 push	 0
  00073	e8 00 00 00 00	 call	 ??0CChartLink@@QAE@PAV0@HPADPAUHWND__@@@Z ; CChartLink::CChartLink
  00078	8b f0		 mov	 esi, eax
  0007a	eb 02		 jmp	 SHORT $LN7@AddVertica
$LN6@AddVertica:
  0007c	33 f6		 xor	 esi, esi
$LN7@AddVertica:

; 770  : 	
; 771  : 	pSource->m_strScaleStyle = _MTOLS2( p_strScaleData, ',', 6, 0);

  0007e	6a 00		 push	 0
  00080	6a 06		 push	 6
  00082	51		 push	 ecx
  00083	8b cc		 mov	 ecx, esp
  00085	89 65 ec	 mov	 DWORD PTR $T2[ebp], esp
  00088	6a 01		 push	 1
  0008a	6a 2c		 push	 44			; 0000002cH
  0008c	c7 45 fc ff ff
	ff ff		 mov	 DWORD PTR __$EHRec$[ebp+8], -1
  00093	ff 15 00 00 00
	00		 call	 DWORD PTR __imp_??0?$CStringT@DV?$StrTraitMFC_DLL@DV?$ChTraitsCRT@D@ATL@@@@@ATL@@QAE@DH@Z
  00099	51		 push	 ecx
  0009a	8b cc		 mov	 ecx, esp
  0009c	c7 45 fc 01 00
	00 00		 mov	 DWORD PTR __$EHRec$[ebp+8], 1
  000a3	ff 75 08	 push	 DWORD PTR _p_strScaleData$[ebp]
  000a6	ff 15 00 00 00
	00		 call	 DWORD PTR __imp_??0?$CStringT@DV?$StrTraitMFC_DLL@DV?$ChTraitsCRT@D@ATL@@@@@ATL@@QAE@ABV01@@Z
  000ac	ff b7 04 02 00
	00		 push	 DWORD PTR [edi+516]
  000b2	8d 45 f0	 lea	 eax, DWORD PTR $T3[ebp]
  000b5	c7 45 fc ff ff
	ff ff		 mov	 DWORD PTR __$EHRec$[ebp+8], -1
  000bc	50		 push	 eax
  000bd	b9 00 00 00 00	 mov	 ecx, OFFSET ?g_iMetaTable@@3VIMetaTable@@A ; g_iMetaTable
  000c2	e8 00 00 00 00	 call	 ?GetMultipleLanguageText@IMetaTable@@QAE?AV?$CStringT@DV?$StrTraitMFC_DLL@DV?$ChTraitsCRT@D@ATL@@@@@ATL@@PAUHWND__@@V23@1HH@Z ; IMetaTable::GetMultipleLanguageText
  000c7	50		 push	 eax
  000c8	8d 4e 58	 lea	 ecx, DWORD PTR [esi+88]
  000cb	c7 45 fc 02 00
	00 00		 mov	 DWORD PTR __$EHRec$[ebp+8], 2
  000d2	ff 15 00 00 00
	00		 call	 DWORD PTR __imp_??4?$CStringT@DV?$StrTraitMFC_DLL@DV?$ChTraitsCRT@D@ATL@@@@@ATL@@QAEAAV01@ABV01@@Z
  000d8	8d 4d f0	 lea	 ecx, DWORD PTR $T3[ebp]
  000db	c7 45 fc ff ff
	ff ff		 mov	 DWORD PTR __$EHRec$[ebp+8], -1
  000e2	ff 15 00 00 00
	00		 call	 DWORD PTR __imp_??1?$CStringT@DV?$StrTraitMFC_DLL@DV?$ChTraitsCRT@D@ATL@@@@@ATL@@QAE@XZ

; 772  : 	pSource->m_nScalePosition = p_nScalePos;

  000e8	8b 45 0c	 mov	 eax, DWORD PTR _p_nScalePos$[ebp]

; 773  : 	pSource->m_nScaleCompartType = p_nScaleCompart;
; 774  : 	pSource->m_nScaleExpressionType = p_nScaleExpressionType;
; 775  : 
; 776  : 	// (2006/11/11 - Seung-Won, Bae) Min/Max Setting
; 777  : 	pSource->m_bMinMaxLock	= p_bMinMaxLock;
; 778  : 	pSource->m_eMinMaxType	= ( CScaleBaseData::VERTMINMAXTYPE)p_nMinMaxType;
; 779  : 	pSource->m_dMin			= p_dMin;

  000eb	f2 0f 10 45 20	 movsd	 xmm0, QWORD PTR _p_dMin$[ebp]
  000f0	89 46 20	 mov	 DWORD PTR [esi+32], eax
  000f3	8b 45 10	 mov	 eax, DWORD PTR _p_nScaleCompart$[ebp]
  000f6	89 46 50	 mov	 DWORD PTR [esi+80], eax
  000f9	8b 45 14	 mov	 eax, DWORD PTR _p_nScaleExpressionType$[ebp]
  000fc	89 46 54	 mov	 DWORD PTR [esi+84], eax
  000ff	8b 45 18	 mov	 eax, DWORD PTR _p_bMinMaxLock$[ebp]
  00102	89 46 6c	 mov	 DWORD PTR [esi+108], eax
  00105	8b 45 1c	 mov	 eax, DWORD PTR _p_nMinMaxType$[ebp]
  00108	f2 0f 11 86 80
	00 00 00	 movsd	 QWORD PTR [esi+128], xmm0

; 780  : 	pSource->m_dMax			= p_dMax;

  00110	f2 0f 10 45 28	 movsd	 xmm0, QWORD PTR _p_dMax$[ebp]
  00115	89 46 70	 mov	 DWORD PTR [esi+112], eax

; 781  : 
; 782  : 	// (2007/7/19 - Seung-Won, Bae) Support Up/Down Space
; 783  : 	pSource->m_nUpSpace			= p_nUpSpace;
; 784  : 	pSource->m_nUpSpace			= p_nDownSpace;

  00118	8b 45 34	 mov	 eax, DWORD PTR _p_nDownSpace$[ebp]
  0011b	f2 0f 11 46 78	 movsd	 QWORD PTR [esi+120], xmm0

; 785  : 
; 786  : 	//2007.01.22 Scale ,
; 787  : 	pSource->m_dHogaNumber		= p_dHogaNumber;

  00120	f2 0f 10 45 38	 movsd	 xmm0, QWORD PTR _p_dHogaNumber$[ebp]
  00125	89 86 88 00 00
	00		 mov	 DWORD PTR [esi+136], eax

; 788  : 	pSource->m_dUserNumber		= p_dUserNumber;
; 789  : 	pSource->m_nUserHogaType	= p_nUserHogaType;

  0012b	8b 45 48	 mov	 eax, DWORD PTR _p_nUserHogaType$[ebp]
  0012e	f2 0f 11 86 90
	00 00 00	 movsd	 QWORD PTR [esi+144], xmm0
  00136	f2 0f 10 45 40	 movsd	 xmm0, QWORD PTR _p_dUserNumber$[ebp]
  0013b	89 86 a0 00 00
	00		 mov	 DWORD PTR [esi+160], eax

; 790  : 	
; 791  : 	//   - ojtaso (20071023)
; 792  : 	pSource->m_bIsInvert		= p_bIsInvert;

  00141	8b 45 4c	 mov	 eax, DWORD PTR _p_bIsInvert$[ebp]
  00144	f2 0f 11 86 98
	00 00 00	 movsd	 QWORD PTR [esi+152], xmm0
  0014c	89 86 a4 00 00
	00		 mov	 DWORD PTR [esi+164], eax

; 793  : 
; 794  : 	if(m_pChartBlock->m_Child == NULL) {

  00152	8b 87 f0 01 00
	00		 mov	 eax, DWORD PTR [edi+496]
  00158	83 78 60 00	 cmp	 DWORD PTR [eax+96], 0
  0015c	75 0e		 jne	 SHORT $LN3@AddVertica

; 795  : 		m_pChartBlock->m_Child = pSource;

  0015e	89 70 60	 mov	 DWORD PTR [eax+96], esi

; 796  : 		pSource->m_Parent = m_pChartBlock;

  00161	8b 87 f0 01 00
	00		 mov	 eax, DWORD PTR [edi+496]
  00167	89 46 5c	 mov	 DWORD PTR [esi+92], eax

; 797  : 	}

  0016a	eb 12		 jmp	 SHORT $LN4@AddVertica
$LN3@AddVertica:

; 798  : 	else {
; 799  : 		pSource->m_Parent = m_pChartBlock;

  0016c	89 46 5c	 mov	 DWORD PTR [esi+92], eax

; 800  : 		m_pChartBlock->m_Child->Add(pSource);

  0016f	8b 8f f0 01 00
	00		 mov	 ecx, DWORD PTR [edi+496]
  00175	56		 push	 esi
  00176	8b 49 60	 mov	 ecx, DWORD PTR [ecx+96]
  00179	e8 00 00 00 00	 call	 ?Add@CChartLink@@QAEHPAV1@@Z ; CChartLink::Add
$LN4@AddVertica:

; 801  : 	}
; 802  : 	return pSource;

  0017e	8b c6		 mov	 eax, esi

; 803  : }

  00180	8b 4d f4	 mov	 ecx, DWORD PTR __$EHRec$[ebp]
  00183	64 89 0d 00 00
	00 00		 mov	 DWORD PTR fs:0, ecx
  0018a	59		 pop	 ecx
  0018b	5f		 pop	 edi
  0018c	5e		 pop	 esi
  0018d	8b e5		 mov	 esp, ebp
  0018f	5d		 pop	 ebp
  00190	c2 48 00	 ret	 72			; 00000048H
_TEXT	ENDS
;	COMDAT text$x
text$x	SEGMENT
__unwindfunclet$?AddVerticalScaleItem@CMyTreeCtrl@@QAEPAVCChartLink@@ABV?$CStringT@DV?$StrTraitMFC_DLL@DV?$ChTraitsCRT@D@ATL@@@@@ATL@@HHHHHNNHHNNHH@Z$0:
  00000	68 b0 00 00 00	 push	 176			; 000000b0H
  00005	8b 45 f0	 mov	 eax, DWORD PTR $T4[ebp]
  00008	50		 push	 eax
  00009	e8 00 00 00 00	 call	 ??3@YAXPAXI@Z		; operator delete
  0000e	83 c4 08	 add	 esp, 8
  00011	c3		 ret	 0
__unwindfunclet$?AddVerticalScaleItem@CMyTreeCtrl@@QAEPAVCChartLink@@ABV?$CStringT@DV?$StrTraitMFC_DLL@DV?$ChTraitsCRT@D@ATL@@@@@ATL@@HHHHHNNHHNNHH@Z$1:
  00012	8b 4d ec	 mov	 ecx, DWORD PTR $T2[ebp]
  00015	ff 25 00 00 00
	00		 jmp	 DWORD PTR __imp_??1?$CStringT@DV?$StrTraitMFC_DLL@DV?$ChTraitsCRT@D@ATL@@@@@ATL@@QAE@XZ
__unwindfunclet$?AddVerticalScaleItem@CMyTreeCtrl@@QAEPAVCChartLink@@ABV?$CStringT@DV?$StrTraitMFC_DLL@DV?$ChTraitsCRT@D@ATL@@@@@ATL@@HHHHHNNHHNNHH@Z$3:
  0001b	8d 4d f0	 lea	 ecx, DWORD PTR $T3[ebp]
  0001e	ff 25 00 00 00
	00		 jmp	 DWORD PTR __imp_??1?$CStringT@DV?$StrTraitMFC_DLL@DV?$ChTraitsCRT@D@ATL@@@@@ATL@@QAE@XZ
  00024	cc		 int	 3
  00025	cc		 int	 3
  00026	cc		 int	 3
  00027	cc		 int	 3
  00028	cc		 int	 3
__ehhandler$?AddVerticalScaleItem@CMyTreeCtrl@@QAEPAVCChartLink@@ABV?$CStringT@DV?$StrTraitMFC_DLL@DV?$ChTraitsCRT@D@ATL@@@@@ATL@@HHHHHNNHHNNHH@Z:
  00029	90		 npad	 1
  0002a	90		 npad	 1
  0002b	8b 54 24 08	 mov	 edx, DWORD PTR [esp+8]
  0002f	8d 42 0c	 lea	 eax, DWORD PTR [edx+12]
  00032	8b 4a e8	 mov	 ecx, DWORD PTR [edx-24]
  00035	33 c8		 xor	 ecx, eax
  00037	e8 00 00 00 00	 call	 @__security_check_cookie@4
  0003c	b8 00 00 00 00	 mov	 eax, OFFSET __ehfuncinfo$?AddVerticalScaleItem@CMyTreeCtrl@@QAEPAVCChartLink@@ABV?$CStringT@DV?$StrTraitMFC_DLL@DV?$ChTraitsCRT@D@ATL@@@@@ATL@@HHHHHNNHHNNHH@Z
  00041	e9 00 00 00 00	 jmp	 ___CxxFrameHandler3
text$x	ENDS
?AddVerticalScaleItem@CMyTreeCtrl@@QAEPAVCChartLink@@ABV?$CStringT@DV?$StrTraitMFC_DLL@DV?$ChTraitsCRT@D@ATL@@@@@ATL@@HHHHHNNHHNNHH@Z ENDP ; CMyTreeCtrl::AddVerticalScaleItem
; Function compile flags: /Ogtp
; File D:\git\src\IBK\IBK_DRFN\ProjSrc\SrcChartEx\ChartAddIn\ChartDesignPropertyAddIn\ChartDesignPropertyAddIn\MyTreeCtrl.cpp
;	COMDAT ?ChangeBlockData@CMyTreeCtrl@@QAEXHABV?$CStringT@DV?$StrTraitMFC_DLL@DV?$ChTraitsCRT@D@ATL@@@@@ATL@@HH00HHH@Z
_TEXT	SEGMENT
_nBlock$ = 8						; size = 4
_szScaleData$ = 12					; size = 4
_nHorizonPos$ = 16					; size = 4
_nScaleCompart$ = 20					; size = 4
_szDate$ = 24						; size = 4
_time$ = 28						; size = 4
_nHorizonStyle$ = 32					; size = 4
_nLog$ = 36						; size = 4
_nOverTurn$ = 40					; size = 4
?ChangeBlockData@CMyTreeCtrl@@QAEXHABV?$CStringT@DV?$StrTraitMFC_DLL@DV?$ChTraitsCRT@D@ATL@@@@@ATL@@HH00HHH@Z PROC ; CMyTreeCtrl::ChangeBlockData, COMDAT
; _this$ = ecx

; 561  : {

  00000	55		 push	 ebp
  00001	8b ec		 mov	 ebp, esp
  00003	56		 push	 esi
  00004	8b f1		 mov	 esi, ecx

; 562  : 	if(m_pChartBlock == NULL)

  00006	8b 8e f0 01 00
	00		 mov	 ecx, DWORD PTR [esi+496]
  0000c	85 c9		 test	 ecx, ecx
  0000e	0f 84 87 00 00
	00		 je	 $LN1@ChangeBloc

; 563  : 		return;
; 564  : 
; 565  : 	int i =0;
; 566  : 	CChartLink* pLink = m_clChartRoot.m_Child ;

  00014	8b 86 60 01 00
	00		 mov	 eax, DWORD PTR [esi+352]
  0001a	33 d2		 xor	 edx, edx

; 567  : 	while(pLink) {

  0001c	85 c0		 test	 eax, eax
  0001e	74 1b		 je	 SHORT $LN3@ChangeBloc
  00020	57		 push	 edi
  00021	8b 7d 08	 mov	 edi, DWORD PTR _nBlock$[ebp]
$LL2@ChangeBloc:

; 568  : 		if(i == nBlock)	{

  00024	3b d7		 cmp	 edx, edi
  00026	74 0a		 je	 SHORT $LN8@ChangeBloc

; 570  : 			break;
; 571  : 		}
; 572  : 		i++;
; 573  : 		pLink = pLink->m_Next ;

  00028	8b 40 68	 mov	 eax, DWORD PTR [eax+104]
  0002b	42		 inc	 edx
  0002c	85 c0		 test	 eax, eax
  0002e	75 f4		 jne	 SHORT $LL2@ChangeBloc

; 568  : 		if(i == nBlock)	{

  00030	eb 08		 jmp	 SHORT $LN12@ChangeBloc
$LN8@ChangeBloc:

; 569  : 			m_pChartBlock = pLink;

  00032	89 86 f0 01 00
	00		 mov	 DWORD PTR [esi+496], eax
  00038	8b c8		 mov	 ecx, eax
$LN12@ChangeBloc:
  0003a	5f		 pop	 edi
$LN3@ChangeBloc:

; 574  : 	}
; 575  : 
; 576  : 	m_pChartBlock->m_strScaleStyle = szScaleData;

  0003b	ff 75 0c	 push	 DWORD PTR _szScaleData$[ebp]
  0003e	83 c1 58	 add	 ecx, 88			; 00000058H
  00041	ff 15 00 00 00
	00		 call	 DWORD PTR __imp_??4?$CStringT@DV?$StrTraitMFC_DLL@DV?$ChTraitsCRT@D@ATL@@@@@ATL@@QAEAAV01@ABV01@@Z

; 577  : 	m_pChartBlock->m_nHorizonpos = nHorizonPos;

  00047	8b 8e f0 01 00
	00		 mov	 ecx, DWORD PTR [esi+496]
  0004d	8b 45 10	 mov	 eax, DWORD PTR _nHorizonPos$[ebp]

; 578  : 	m_pChartBlock->m_nScaleCompartType = nScaleCompart;
; 579  : 	m_pChartBlock->m_strDateScaleCompart = szDate;

  00050	ff 75 18	 push	 DWORD PTR _szDate$[ebp]
  00053	89 41 40	 mov	 DWORD PTR [ecx+64], eax
  00056	8b 8e f0 01 00
	00		 mov	 ecx, DWORD PTR [esi+496]
  0005c	8b 45 14	 mov	 eax, DWORD PTR _nScaleCompart$[ebp]
  0005f	89 41 50	 mov	 DWORD PTR [ecx+80], eax
  00062	8b 8e f0 01 00
	00		 mov	 ecx, DWORD PTR [esi+496]
  00068	83 c1 38	 add	 ecx, 56			; 00000038H
  0006b	ff 15 00 00 00
	00		 call	 DWORD PTR __imp_??4?$CStringT@DV?$StrTraitMFC_DLL@DV?$ChTraitsCRT@D@ATL@@@@@ATL@@QAEAAV01@ABV01@@Z

; 580  : 	m_pChartBlock->m_strTimeScaleCompart = time;

  00071	8b 8e f0 01 00
	00		 mov	 ecx, DWORD PTR [esi+496]
  00077	ff 75 1c	 push	 DWORD PTR _time$[ebp]
  0007a	83 c1 3c	 add	 ecx, 60			; 0000003cH
  0007d	ff 15 00 00 00
	00		 call	 DWORD PTR __imp_??4?$CStringT@DV?$StrTraitMFC_DLL@DV?$ChTraitsCRT@D@ATL@@@@@ATL@@QAEAAV01@ABV01@@Z

; 581  : 	m_pChartBlock->m_nHorizonStyle = nHorizonStyle;

  00083	8b 8e f0 01 00
	00		 mov	 ecx, DWORD PTR [esi+496]
  00089	8b 45 20	 mov	 eax, DWORD PTR _nHorizonStyle$[ebp]
  0008c	89 41 44	 mov	 DWORD PTR [ecx+68], eax

; 582  : 	m_pChartBlock->m_nLog = nLog;

  0008f	8b 8e f0 01 00
	00		 mov	 ecx, DWORD PTR [esi+496]
  00095	8b 45 24	 mov	 eax, DWORD PTR _nLog$[ebp]
  00098	89 41 4c	 mov	 DWORD PTR [ecx+76], eax
$LN1@ChangeBloc:
  0009b	5e		 pop	 esi

; 583  : }

  0009c	5d		 pop	 ebp
  0009d	c2 24 00	 ret	 36			; 00000024H
?ChangeBlockData@CMyTreeCtrl@@QAEXHABV?$CStringT@DV?$StrTraitMFC_DLL@DV?$ChTraitsCRT@D@ATL@@@@@ATL@@HH00HHH@Z ENDP ; CMyTreeCtrl::ChangeBlockData
_TEXT	ENDS
; Function compile flags: /Ogtp
; File D:\git\src\IBK\IBK_DRFN\ProjSrc\SrcChartEx\ChartAddIn\ChartDesignPropertyAddIn\ChartDesignPropertyAddIn\MyTreeCtrl.cpp
; File C:\Program Files (x86)\Microsoft Visual Studio\2019\Community\VC\Tools\MSVC\14.29.30133\atlmfc\include\afxcmn.inl
; File D:\git\src\IBK\IBK_DRFN\ProjSrc\SrcChartEx\ChartAddIn\ChartDesignPropertyAddIn\ChartDesignPropertyAddIn\MyTreeCtrl.cpp
; File C:\Program Files (x86)\Microsoft Visual Studio\2019\Community\VC\Tools\MSVC\14.29.30133\atlmfc\include\afxcmn.inl
; File D:\git\src\IBK\IBK_DRFN\ProjSrc\SrcChartEx\ChartAddIn\ChartDesignPropertyAddIn\ChartDesignPropertyAddIn\MyTreeCtrl.cpp
; File C:\Program Files (x86)\Microsoft Visual Studio\2019\Community\VC\Tools\MSVC\14.29.30133\atlmfc\include\afxcmn.inl
; File D:\git\src\IBK\IBK_DRFN\ProjSrc\SrcChartEx\ChartAddIn\ChartDesignPropertyAddIn\ChartDesignPropertyAddIn\MyTreeCtrl.cpp
; File C:\Program Files (x86)\Microsoft Visual Studio\2019\Community\VC\Tools\MSVC\14.29.30133\atlmfc\include\afxcmn.inl
; File D:\git\src\IBK\IBK_DRFN\ProjSrc\SrcChartEx\ChartAddIn\ChartDesignPropertyAddIn\ChartDesignPropertyAddIn\MyTreeCtrl.cpp
;	COMDAT ?AddItem@CMyTreeCtrl@@QAEPAU_TREEITEM@@PAU2@PAD@Z
_TEXT	SEGMENT
_tvstruct$ = -72					; size = 68
_this$1$ = -4						; size = 4
_hItem$ = 8						; size = 4
_name$ = 12						; size = 4
?AddItem@CMyTreeCtrl@@QAEPAU_TREEITEM@@PAU2@PAD@Z PROC	; CMyTreeCtrl::AddItem, COMDAT
; _this$ = ecx

; 306  : {

  00000	55		 push	 ebp
  00001	8b ec		 mov	 ebp, esp
  00003	83 ec 48	 sub	 esp, 72			; 00000048H

; 307  : 	if(hItem == NULL) return (HTREEITEM)0;

  00006	8b 45 08	 mov	 eax, DWORD PTR _hItem$[ebp]
  00009	89 4d fc	 mov	 DWORD PTR _this$1$[ebp], ecx
  0000c	85 c0		 test	 eax, eax
  0000e	75 06		 jne	 SHORT $LN2@AddItem

; 321  : }

  00010	8b e5		 mov	 esp, ebp
  00012	5d		 pop	 ebp
  00013	c2 08 00	 ret	 8
$LN2@AddItem:
  00016	53		 push	 ebx
  00017	56		 push	 esi
  00018	57		 push	 edi

; 313  : 	tvstruct.item.iImage = GetimageofIndicatorTypeIndex( ( char *)_LTOM5( name)) ;

  00019	6a 00		 push	 0
  0001b	ff 75 0c	 push	 DWORD PTR _name$[ebp]
  0001e	89 45 b8	 mov	 DWORD PTR _tvstruct$[ebp], eax
  00021	6a 05		 push	 5
  00023	ff b1 04 02 00
	00		 push	 DWORD PTR [ecx+516]
  00029	b9 00 00 00 00	 mov	 ecx, OFFSET ?g_iMetaTable@@3VIMetaTable@@A ; g_iMetaTable
  0002e	c7 45 bc 02 00
	ff ff		 mov	 DWORD PTR _tvstruct$[ebp+4], -65534 ; ffff0002H
  00035	e8 00 00 00 00	 call	 ?GetMetaText@IMetaTable@@QAEPBDPAUHWND__@@W4E_CODEPAGE@1@PBDH@Z ; IMetaTable::GetMetaText

; 346  : 	for(int i = 0 ; i < GRAPHTYPE_ITEM ; i++) {

  0003a	8b 1d 54 00 00
	00		 mov	 ebx, DWORD PTR ?g_iMetaTable@@3VIMetaTable@@A+84

; 313  : 	tvstruct.item.iImage = GetimageofIndicatorTypeIndex( ( char *)_LTOM5( name)) ;

  00040	8b f8		 mov	 edi, eax

; 346  : 	for(int i = 0 ; i < GRAPHTYPE_ITEM ; i++) {

  00042	33 f6		 xor	 esi, esi
$LL7@AddItem:

; 347  : 		if(strcmp( strGraphType, _MTEXTN( pGraphTypeItem[ i])) == 0)

  00044	8b 0c b5 00 00
	00 00		 mov	 ecx, DWORD PTR ?pGraphTypeItem@@3PAW4E_METACODE@IMetaTable@@A[esi*4]
  0004b	8b d7		 mov	 edx, edi
  0004d	8b 0c 8b	 mov	 ecx, DWORD PTR [ebx+ecx*4]
$LL19@AddItem:
  00050	8a 02		 mov	 al, BYTE PTR [edx]
  00052	3a 01		 cmp	 al, BYTE PTR [ecx]
  00054	75 1a		 jne	 SHORT $LN20@AddItem
  00056	84 c0		 test	 al, al
  00058	74 12		 je	 SHORT $LN21@AddItem
  0005a	8a 42 01	 mov	 al, BYTE PTR [edx+1]
  0005d	3a 41 01	 cmp	 al, BYTE PTR [ecx+1]
  00060	75 0e		 jne	 SHORT $LN20@AddItem
  00062	83 c2 02	 add	 edx, 2
  00065	83 c1 02	 add	 ecx, 2
  00068	84 c0		 test	 al, al
  0006a	75 e4		 jne	 SHORT $LL19@AddItem
$LN21@AddItem:
  0006c	33 c0		 xor	 eax, eax
  0006e	eb 05		 jmp	 SHORT $LN22@AddItem
$LN20@AddItem:
  00070	1b c0		 sbb	 eax, eax
  00072	83 c8 01	 or	 eax, 1
$LN22@AddItem:
  00075	46		 inc	 esi
  00076	85 c0		 test	 eax, eax
  00078	74 07		 je	 SHORT $LN15@AddItem

; 322  : 
; 323  : HTREEITEM CMyTreeCtrl::AddBlock(HTREEITEM hItem, LPSTR name)
; 324  : {
; 325  : 	if(hItem == NULL) return (HTREEITEM)0;
; 326  : 	HTREEITEM nhItem = 0;
; 327  : 
; 328  : 	TV_INSERTSTRUCT	tvstruct;
; 329  : 	tvstruct.hParent = hItem;
; 330  : 	tvstruct.hInsertAfter = TVI_LAST ;
; 331  : 	tvstruct.item.iImage = ROOT ;
; 332  : 	tvstruct.item.iSelectedImage = tvstruct.item.iImage;
; 333  : 	tvstruct.item.pszText = name;
; 334  : 	tvstruct.item.mask = TVIF_IMAGE | TVIF_SELECTEDIMAGE | TVIF_TEXT;
; 335  : 	nhItem = InsertItem(&tvstruct);
; 336  : 	EnsureVisible( nhItem );
; 337  : 
; 338  : 	((CChartListPage* )GetParent())->SetToolTipInfo(nhItem, "Block");
; 339  : 
; 340  : 	return nhItem;
; 341  : }
; 342  : 
; 343  : 
; 344  : int CMyTreeCtrl::GetimageofIndicatorTypeIndex( LPSTR strGraphType)
; 345  : {
; 346  : 	for(int i = 0 ; i < GRAPHTYPE_ITEM ; i++) {

  0007a	83 fe 08	 cmp	 esi, 8
  0007d	7c c5		 jl	 SHORT $LL7@AddItem

; 348  : 			return i + 1 ;
; 349  : 	}
; 350  : 	return 0 ;

  0007f	33 f6		 xor	 esi, esi
$LN15@AddItem:

; 315  : 	tvstruct.item.pszText = name;

  00081	8b 45 0c	 mov	 eax, DWORD PTR _name$[ebp]
; File C:\Program Files (x86)\Microsoft Visual Studio\2019\Community\VC\Tools\MSVC\14.29.30133\atlmfc\include\afxcmn.inl

; 266  : 	{ ASSERT(::IsWindow(m_hWnd));  return (HTREEITEM)::SendMessage(m_hWnd, TVM_INSERTITEM, 0, (LPARAM)lpInsertStruct); }

  00084	8b 5d fc	 mov	 ebx, DWORD PTR _this$1$[ebp]
  00087	8b 3d 00 00 00
	00		 mov	 edi, DWORD PTR __imp__SendMessageA@16
; File D:\git\src\IBK\IBK_DRFN\ProjSrc\SrcChartEx\ChartAddIn\ChartDesignPropertyAddIn\ChartDesignPropertyAddIn\MyTreeCtrl.cpp

; 315  : 	tvstruct.item.pszText = name;

  0008d	89 45 d0	 mov	 DWORD PTR _tvstruct$[ebp+24], eax
; File C:\Program Files (x86)\Microsoft Visual Studio\2019\Community\VC\Tools\MSVC\14.29.30133\atlmfc\include\afxcmn.inl

; 266  : 	{ ASSERT(::IsWindow(m_hWnd));  return (HTREEITEM)::SendMessage(m_hWnd, TVM_INSERTITEM, 0, (LPARAM)lpInsertStruct); }

  00090	8d 45 b8	 lea	 eax, DWORD PTR _tvstruct$[ebp]
  00093	50		 push	 eax
  00094	6a 00		 push	 0
  00096	68 00 11 00 00	 push	 4352			; 00001100H
  0009b	ff 73 20	 push	 DWORD PTR [ebx+32]
; File D:\git\src\IBK\IBK_DRFN\ProjSrc\SrcChartEx\ChartAddIn\ChartDesignPropertyAddIn\ChartDesignPropertyAddIn\MyTreeCtrl.cpp

; 313  : 	tvstruct.item.iImage = GetimageofIndicatorTypeIndex( ( char *)_LTOM5( name)) ;

  0009e	89 75 d8	 mov	 DWORD PTR _tvstruct$[ebp+32], esi

; 314  : 	tvstruct.item.iSelectedImage = tvstruct.item.iImage;

  000a1	89 75 dc	 mov	 DWORD PTR _tvstruct$[ebp+36], esi

; 316  : 	tvstruct.item.mask = TVIF_IMAGE | TVIF_SELECTEDIMAGE | TVIF_TEXT;

  000a4	c7 45 c0 23 00
	00 00		 mov	 DWORD PTR _tvstruct$[ebp+8], 35 ; 00000023H
; File C:\Program Files (x86)\Microsoft Visual Studio\2019\Community\VC\Tools\MSVC\14.29.30133\atlmfc\include\afxcmn.inl

; 266  : 	{ ASSERT(::IsWindow(m_hWnd));  return (HTREEITEM)::SendMessage(m_hWnd, TVM_INSERTITEM, 0, (LPARAM)lpInsertStruct); }

  000ab	ff d7		 call	 edi
; File D:\git\src\IBK\IBK_DRFN\ProjSrc\SrcChartEx\ChartAddIn\ChartDesignPropertyAddIn\ChartDesignPropertyAddIn\MyTreeCtrl.cpp

; 317  : 	nhItem = InsertItem(&tvstruct);

  000ad	8b f0		 mov	 esi, eax
; File C:\Program Files (x86)\Microsoft Visual Studio\2019\Community\VC\Tools\MSVC\14.29.30133\atlmfc\include\afxcmn.inl

; 354  : 	{ ASSERT(::IsWindow(m_hWnd)); return (BOOL)::SendMessage(m_hWnd, TVM_ENSUREVISIBLE, 0, (LPARAM)hItem); }

  000af	56		 push	 esi
  000b0	6a 00		 push	 0
  000b2	68 14 11 00 00	 push	 4372			; 00001114H
  000b7	ff 73 20	 push	 DWORD PTR [ebx+32]
  000ba	ff d7		 call	 edi
; File D:\git\src\IBK\IBK_DRFN\ProjSrc\SrcChartEx\ChartAddIn\ChartDesignPropertyAddIn\ChartDesignPropertyAddIn\MyTreeCtrl.cpp

; 320  : 	return nhItem;

  000bc	5f		 pop	 edi
  000bd	8b c6		 mov	 eax, esi
  000bf	5e		 pop	 esi
  000c0	5b		 pop	 ebx

; 321  : }

  000c1	8b e5		 mov	 esp, ebp
  000c3	5d		 pop	 ebp
  000c4	c2 08 00	 ret	 8
?AddItem@CMyTreeCtrl@@QAEPAU_TREEITEM@@PAU2@PAD@Z ENDP	; CMyTreeCtrl::AddItem
_TEXT	ENDS
; Function compile flags: /Ogtp
; File D:\git\src\IBK\IBK_DRFN\ProjSrc\SrcChartEx\ChartAddIn\ChartDesignPropertyAddIn\ChartDesignPropertyAddIn\MyTreeCtrl.cpp
; File C:\Program Files (x86)\Microsoft Visual Studio\2019\Community\VC\Tools\MSVC\14.29.30133\atlmfc\include\afxcmn.inl
; File D:\git\src\IBK\IBK_DRFN\ProjSrc\SrcChartEx\ChartAddIn\ChartDesignPropertyAddIn\ChartDesignPropertyAddIn\MyTreeCtrl.cpp
; File C:\Program Files (x86)\Microsoft Visual Studio\2019\Community\VC\Tools\MSVC\14.29.30133\atlmfc\include\afxcmn.inl
; File D:\git\src\IBK\IBK_DRFN\ProjSrc\SrcChartEx\ChartAddIn\ChartDesignPropertyAddIn\ChartDesignPropertyAddIn\MyTreeCtrl.cpp
; File C:\Program Files (x86)\Microsoft Visual Studio\2019\Community\VC\Tools\MSVC\14.29.30133\atlmfc\include\afxcmn.inl
; File D:\git\src\IBK\IBK_DRFN\ProjSrc\SrcChartEx\ChartAddIn\ChartDesignPropertyAddIn\ChartDesignPropertyAddIn\MyTreeCtrl.cpp
; File C:\Program Files (x86)\Microsoft Visual Studio\2019\Community\VC\Tools\MSVC\14.29.30133\atlmfc\include\afxwin2.inl
; File D:\git\src\IBK\IBK_DRFN\ProjSrc\SrcChartEx\ChartAddIn\ChartDesignPropertyAddIn\ChartDesignPropertyAddIn\MyTreeCtrl.cpp
;	COMDAT ?AddBlock@CMyTreeCtrl@@QAEPAU_TREEITEM@@PAU2@PAD@Z
_TEXT	SEGMENT
_tvstruct$ = -80					; size = 68
__$EHRec$ = -12						; size = 12
$T2 = 8							; size = 4
_hItem$ = 8						; size = 4
_nhItem$ = 12						; size = 4
_name$ = 12						; size = 4
?AddBlock@CMyTreeCtrl@@QAEPAU_TREEITEM@@PAU2@PAD@Z PROC	; CMyTreeCtrl::AddBlock, COMDAT
; _this$ = ecx

; 324  : {

  00000	55		 push	 ebp
  00001	8b ec		 mov	 ebp, esp
  00003	6a ff		 push	 -1
  00005	68 00 00 00 00	 push	 __ehhandler$?AddBlock@CMyTreeCtrl@@QAEPAU_TREEITEM@@PAU2@PAD@Z
  0000a	64 a1 00 00 00
	00		 mov	 eax, DWORD PTR fs:0
  00010	50		 push	 eax
  00011	83 ec 44	 sub	 esp, 68			; 00000044H
  00014	57		 push	 edi
  00015	a1 00 00 00 00	 mov	 eax, DWORD PTR ___security_cookie
  0001a	33 c5		 xor	 eax, ebp
  0001c	50		 push	 eax
  0001d	8d 45 f4	 lea	 eax, DWORD PTR __$EHRec$[ebp]
  00020	64 a3 00 00 00
	00		 mov	 DWORD PTR fs:0, eax
  00026	8b f9		 mov	 edi, ecx

; 325  : 	if(hItem == NULL) return (HTREEITEM)0;

  00028	8b 45 08	 mov	 eax, DWORD PTR _hItem$[ebp]
  0002b	85 c0		 test	 eax, eax
  0002d	75 12		 jne	 SHORT $LN2@AddBlock

; 341  : }

  0002f	8b 4d f4	 mov	 ecx, DWORD PTR __$EHRec$[ebp]
  00032	64 89 0d 00 00
	00 00		 mov	 DWORD PTR fs:0, ecx
  00039	59		 pop	 ecx
  0003a	5f		 pop	 edi
  0003b	8b e5		 mov	 esp, ebp
  0003d	5d		 pop	 ebp
  0003e	c2 08 00	 ret	 8
$LN2@AddBlock:

; 326  : 	HTREEITEM nhItem = 0;
; 327  : 
; 328  : 	TV_INSERTSTRUCT	tvstruct;
; 329  : 	tvstruct.hParent = hItem;

  00041	89 45 b0	 mov	 DWORD PTR _tvstruct$[ebp], eax

; 333  : 	tvstruct.item.pszText = name;

  00044	8b 45 0c	 mov	 eax, DWORD PTR _name$[ebp]
  00047	89 45 c8	 mov	 DWORD PTR _tvstruct$[ebp+24], eax
; File C:\Program Files (x86)\Microsoft Visual Studio\2019\Community\VC\Tools\MSVC\14.29.30133\atlmfc\include\afxcmn.inl

; 266  : 	{ ASSERT(::IsWindow(m_hWnd));  return (HTREEITEM)::SendMessage(m_hWnd, TVM_INSERTITEM, 0, (LPARAM)lpInsertStruct); }

  0004a	8d 45 b0	 lea	 eax, DWORD PTR _tvstruct$[ebp]
  0004d	50		 push	 eax
  0004e	6a 00		 push	 0
  00050	68 00 11 00 00	 push	 4352			; 00001100H
  00055	ff 77 20	 push	 DWORD PTR [edi+32]
; File D:\git\src\IBK\IBK_DRFN\ProjSrc\SrcChartEx\ChartAddIn\ChartDesignPropertyAddIn\ChartDesignPropertyAddIn\MyTreeCtrl.cpp

; 330  : 	tvstruct.hInsertAfter = TVI_LAST ;

  00058	c7 45 b4 02 00
	ff ff		 mov	 DWORD PTR _tvstruct$[ebp+4], -65534 ; ffff0002H

; 331  : 	tvstruct.item.iImage = ROOT ;

  0005f	c7 45 d0 00 00
	00 00		 mov	 DWORD PTR _tvstruct$[ebp+32], 0

; 332  : 	tvstruct.item.iSelectedImage = tvstruct.item.iImage;

  00066	c7 45 d4 00 00
	00 00		 mov	 DWORD PTR _tvstruct$[ebp+36], 0

; 334  : 	tvstruct.item.mask = TVIF_IMAGE | TVIF_SELECTEDIMAGE | TVIF_TEXT;

  0006d	c7 45 b8 23 00
	00 00		 mov	 DWORD PTR _tvstruct$[ebp+8], 35 ; 00000023H
; File C:\Program Files (x86)\Microsoft Visual Studio\2019\Community\VC\Tools\MSVC\14.29.30133\atlmfc\include\afxcmn.inl

; 266  : 	{ ASSERT(::IsWindow(m_hWnd));  return (HTREEITEM)::SendMessage(m_hWnd, TVM_INSERTITEM, 0, (LPARAM)lpInsertStruct); }

  00074	ff 15 00 00 00
	00		 call	 DWORD PTR __imp__SendMessageA@16

; 354  : 	{ ASSERT(::IsWindow(m_hWnd)); return (BOOL)::SendMessage(m_hWnd, TVM_ENSUREVISIBLE, 0, (LPARAM)hItem); }

  0007a	50		 push	 eax
  0007b	6a 00		 push	 0
  0007d	68 14 11 00 00	 push	 4372			; 00001114H
  00082	ff 77 20	 push	 DWORD PTR [edi+32]
; File D:\git\src\IBK\IBK_DRFN\ProjSrc\SrcChartEx\ChartAddIn\ChartDesignPropertyAddIn\ChartDesignPropertyAddIn\MyTreeCtrl.cpp

; 335  : 	nhItem = InsertItem(&tvstruct);

  00085	89 45 0c	 mov	 DWORD PTR _nhItem$[ebp], eax
; File C:\Program Files (x86)\Microsoft Visual Studio\2019\Community\VC\Tools\MSVC\14.29.30133\atlmfc\include\afxcmn.inl

; 354  : 	{ ASSERT(::IsWindow(m_hWnd)); return (BOOL)::SendMessage(m_hWnd, TVM_ENSUREVISIBLE, 0, (LPARAM)hItem); }

  00088	ff 15 00 00 00
	00		 call	 DWORD PTR __imp__SendMessageA@16
; File D:\git\src\IBK\IBK_DRFN\ProjSrc\SrcChartEx\ChartAddIn\ChartDesignPropertyAddIn\ChartDesignPropertyAddIn\MyTreeCtrl.cpp

; 338  : 	((CChartListPage* )GetParent())->SetToolTipInfo(nhItem, "Block");

  0008e	68 00 00 00 00	 push	 OFFSET ??_C@_05PPLCEPDH@Block@
  00093	8d 4d 08	 lea	 ecx, DWORD PTR $T2[ebp]
  00096	ff 15 00 00 00
	00		 call	 DWORD PTR __imp_??0?$CStringT@DV?$StrTraitMFC_DLL@DV?$ChTraitsCRT@D@ATL@@@@@ATL@@QAE@PBD@Z
  0009c	8d 45 08	 lea	 eax, DWORD PTR $T2[ebp]
  0009f	c7 45 fc 00 00
	00 00		 mov	 DWORD PTR __$EHRec$[ebp+8], 0
  000a6	50		 push	 eax
  000a7	8d 45 0c	 lea	 eax, DWORD PTR _nhItem$[ebp]
  000aa	50		 push	 eax
; File C:\Program Files (x86)\Microsoft Visual Studio\2019\Community\VC\Tools\MSVC\14.29.30133\atlmfc\include\afxwin2.inl

; 213  : 	{ ASSERT(::IsWindow(m_hWnd)); return CWnd::FromHandle(::GetParent(m_hWnd)); }

  000ab	ff 77 20	 push	 DWORD PTR [edi+32]
  000ae	ff 15 00 00 00
	00		 call	 DWORD PTR __imp__GetParent@4
  000b4	50		 push	 eax
  000b5	e8 00 00 00 00	 call	 ?FromHandle@CWnd@@SGPAV1@PAUHWND__@@@Z ; CWnd::FromHandle
; File D:\git\src\IBK\IBK_DRFN\ProjSrc\SrcChartEx\ChartAddIn\ChartDesignPropertyAddIn\ChartDesignPropertyAddIn\MyTreeCtrl.cpp

; 338  : 	((CChartListPage* )GetParent())->SetToolTipInfo(nhItem, "Block");

  000ba	8b c8		 mov	 ecx, eax
  000bc	e8 00 00 00 00	 call	 ?SetToolTipInfo@CChartListPage@@QAEXAAPAU_TREEITEM@@ABV?$CStringT@DV?$StrTraitMFC_DLL@DV?$ChTraitsCRT@D@ATL@@@@@ATL@@@Z ; CChartListPage::SetToolTipInfo
  000c1	8d 4d 08	 lea	 ecx, DWORD PTR $T2[ebp]
  000c4	ff 15 00 00 00
	00		 call	 DWORD PTR __imp_??1?$CStringT@DV?$StrTraitMFC_DLL@DV?$ChTraitsCRT@D@ATL@@@@@ATL@@QAE@XZ

; 339  : 
; 340  : 	return nhItem;

  000ca	8b 45 0c	 mov	 eax, DWORD PTR _nhItem$[ebp]

; 341  : }

  000cd	8b 4d f4	 mov	 ecx, DWORD PTR __$EHRec$[ebp]
  000d0	64 89 0d 00 00
	00 00		 mov	 DWORD PTR fs:0, ecx
  000d7	59		 pop	 ecx
  000d8	5f		 pop	 edi
  000d9	8b e5		 mov	 esp, ebp
  000db	5d		 pop	 ebp
  000dc	c2 08 00	 ret	 8
_TEXT	ENDS
;	COMDAT text$x
text$x	SEGMENT
__unwindfunclet$?AddBlock@CMyTreeCtrl@@QAEPAU_TREEITEM@@PAU2@PAD@Z$0:
  00000	8d 4d 08	 lea	 ecx, DWORD PTR $T2[ebp]
  00003	ff 25 00 00 00
	00		 jmp	 DWORD PTR __imp_??1?$CStringT@DV?$StrTraitMFC_DLL@DV?$ChTraitsCRT@D@ATL@@@@@ATL@@QAE@XZ
  00009	cc		 int	 3
  0000a	cc		 int	 3
  0000b	cc		 int	 3
  0000c	cc		 int	 3
  0000d	cc		 int	 3
__ehhandler$?AddBlock@CMyTreeCtrl@@QAEPAU_TREEITEM@@PAU2@PAD@Z:
  0000e	90		 npad	 1
  0000f	90		 npad	 1
  00010	8b 54 24 08	 mov	 edx, DWORD PTR [esp+8]
  00014	8d 42 0c	 lea	 eax, DWORD PTR [edx+12]
  00017	8b 4a b4	 mov	 ecx, DWORD PTR [edx-76]
  0001a	33 c8		 xor	 ecx, eax
  0001c	e8 00 00 00 00	 call	 @__security_check_cookie@4
  00021	b8 00 00 00 00	 mov	 eax, OFFSET __ehfuncinfo$?AddBlock@CMyTreeCtrl@@QAEPAU_TREEITEM@@PAU2@PAD@Z
  00026	e9 00 00 00 00	 jmp	 ___CxxFrameHandler3
text$x	ENDS
?AddBlock@CMyTreeCtrl@@QAEPAU_TREEITEM@@PAU2@PAD@Z ENDP	; CMyTreeCtrl::AddBlock
; Function compile flags: /Ogtp
; File D:\git\src\IBK\IBK_DRFN\ProjSrc\SrcChartEx\ChartAddIn\ChartDesignPropertyAddIn\ChartDesignPropertyAddIn\MyTreeCtrl.cpp
; File C:\Program Files (x86)\Microsoft Visual Studio\2019\Community\VC\Tools\MSVC\14.29.30133\atlmfc\include\atlsimpstr.h
; File D:\git\src\IBK\IBK_DRFN\ProjSrc\SrcChartEx\ChartAddIn\ChartDesignPropertyAddIn\ChartDesignPropertyAddIn\MyTreeCtrl.cpp
;	COMDAT ?InitBlock@CMyTreeCtrl@@QAEXABV?$CStringT@DV?$StrTraitMFC_DLL@DV?$ChTraitsCRT@D@ATL@@@@@ATL@@HH@Z
_TEXT	SEGMENT
$T2 = -36						; size = 4
tv326 = -32						; size = 4
tv328 = -28						; size = 4
$T3 = -24						; size = 4
$T4 = -20						; size = 4
_strColumnData$5 = -16					; size = 4
__$EHRec$ = -12						; size = 12
_allData$ = 8						; size = 4
_strData$ = 8						; size = 4
_nRow$ = 12						; size = 4
_BlockName$6 = 16					; size = 4
_nColumn$ = 16						; size = 4
?InitBlock@CMyTreeCtrl@@QAEXABV?$CStringT@DV?$StrTraitMFC_DLL@DV?$ChTraitsCRT@D@ATL@@@@@ATL@@HH@Z PROC ; CMyTreeCtrl::InitBlock, COMDAT
; _this$ = ecx

; 510  : {

  00000	55		 push	 ebp
  00001	8b ec		 mov	 ebp, esp
  00003	6a ff		 push	 -1
  00005	68 00 00 00 00	 push	 __ehhandler$?InitBlock@CMyTreeCtrl@@QAEXABV?$CStringT@DV?$StrTraitMFC_DLL@DV?$ChTraitsCRT@D@ATL@@@@@ATL@@HH@Z
  0000a	64 a1 00 00 00
	00		 mov	 eax, DWORD PTR fs:0
  00010	50		 push	 eax
  00011	83 ec 18	 sub	 esp, 24			; 00000018H
  00014	53		 push	 ebx
  00015	56		 push	 esi
  00016	57		 push	 edi
  00017	a1 00 00 00 00	 mov	 eax, DWORD PTR ___security_cookie
  0001c	33 c5		 xor	 eax, ebp
  0001e	50		 push	 eax
  0001f	8d 45 f4	 lea	 eax, DWORD PTR __$EHRec$[ebp]
  00022	64 a3 00 00 00
	00		 mov	 DWORD PTR fs:0, eax
  00028	8b d9		 mov	 ebx, ecx

; 511  : 	CString allData = strData;

  0002a	ff 75 08	 push	 DWORD PTR _strData$[ebp]
  0002d	8d 4d 08	 lea	 ecx, DWORD PTR _allData$[ebp]
  00030	ff 15 00 00 00
	00		 call	 DWORD PTR __imp_??0?$CStringT@DV?$StrTraitMFC_DLL@DV?$ChTraitsCRT@D@ATL@@@@@ATL@@QAE@ABV01@@Z

; 512  : 	for(int i = 0; i< nColumn; i++)

  00036	8b 7d 10	 mov	 edi, DWORD PTR _nColumn$[ebp]
  00039	c7 45 fc 00 00
	00 00		 mov	 DWORD PTR __$EHRec$[ebp+8], 0
  00040	85 ff		 test	 edi, edi
  00042	0f 8e 32 01 00
	00		 jle	 $LN3@InitBlock

; 511  : 	CString allData = strData;

  00048	8b f7		 mov	 esi, edi
  0004a	89 7d e0	 mov	 DWORD PTR tv326[ebp], edi
  0004d	0f 1f 00	 npad	 3
$LL4@InitBlock:

; 513  : 	{
; 514  : 		CString strColumnData = CDataConversion::GetStringData(allData, "BlockColumn;\r\n", "BlockColumnEnd;\r\n", true);

  00050	68 00 00 00 00	 push	 OFFSET ??_C@_0BC@DENBEKI@BlockColumnEnd?$DL?$AN?6@
  00055	8d 4d e8	 lea	 ecx, DWORD PTR $T3[ebp]
  00058	ff 15 00 00 00
	00		 call	 DWORD PTR __imp_??0?$CStringT@DV?$StrTraitMFC_DLL@DV?$ChTraitsCRT@D@ATL@@@@@ATL@@QAE@PBD@Z
  0005e	68 00 00 00 00	 push	 OFFSET ??_C@_0P@GBPFOBGA@BlockColumn?$DL?$AN?6@
  00063	8d 4d ec	 lea	 ecx, DWORD PTR $T4[ebp]
  00066	c6 45 fc 01	 mov	 BYTE PTR __$EHRec$[ebp+8], 1
  0006a	ff 15 00 00 00
	00		 call	 DWORD PTR __imp_??0?$CStringT@DV?$StrTraitMFC_DLL@DV?$ChTraitsCRT@D@ATL@@@@@ATL@@QAE@PBD@Z
  00070	6a 01		 push	 1
  00072	8d 45 e8	 lea	 eax, DWORD PTR $T3[ebp]
  00075	c6 45 fc 02	 mov	 BYTE PTR __$EHRec$[ebp+8], 2
  00079	50		 push	 eax
  0007a	8d 45 ec	 lea	 eax, DWORD PTR $T4[ebp]
  0007d	50		 push	 eax
  0007e	8d 45 08	 lea	 eax, DWORD PTR _allData$[ebp]
  00081	50		 push	 eax
  00082	8d 45 f0	 lea	 eax, DWORD PTR _strColumnData$5[ebp]
  00085	50		 push	 eax
  00086	e8 00 00 00 00	 call	 ?GetStringData@CDataConversion@@SA?AV?$CStringT@DV?$StrTraitMFC_DLL@DV?$ChTraitsCRT@D@ATL@@@@@ATL@@AAV23@ABV23@1_N@Z ; CDataConversion::GetStringData
  0008b	83 c4 14	 add	 esp, 20			; 00000014H
  0008e	8d 4d ec	 lea	 ecx, DWORD PTR $T4[ebp]
  00091	ff 15 00 00 00
	00		 call	 DWORD PTR __imp_??1?$CStringT@DV?$StrTraitMFC_DLL@DV?$ChTraitsCRT@D@ATL@@@@@ATL@@QAE@XZ
  00097	8d 4d e8	 lea	 ecx, DWORD PTR $T3[ebp]
  0009a	c6 45 fc 05	 mov	 BYTE PTR __$EHRec$[ebp+8], 5
  0009e	ff 15 00 00 00
	00		 call	 DWORD PTR __imp_??1?$CStringT@DV?$StrTraitMFC_DLL@DV?$ChTraitsCRT@D@ATL@@@@@ATL@@QAE@XZ
; File C:\Program Files (x86)\Microsoft Visual Studio\2019\Community\VC\Tools\MSVC\14.29.30133\atlmfc\include\atlsimpstr.h

; 519  : 		return( GetData()->nDataLength );

  000a4	8b 45 f0	 mov	 eax, DWORD PTR _strColumnData$5[ebp]

; 533  : 		return( GetLength() == 0 );

  000a7	83 78 f4 00	 cmp	 DWORD PTR [eax-12], 0
; File D:\git\src\IBK\IBK_DRFN\ProjSrc\SrcChartEx\ChartAddIn\ChartDesignPropertyAddIn\ChartDesignPropertyAddIn\MyTreeCtrl.cpp

; 515  : 		if(strColumnData.IsEmpty()){

  000ab	75 16		 jne	 SHORT $LN8@InitBlock

; 516  : 			strColumnData = allData;

  000ad	8d 45 08	 lea	 eax, DWORD PTR _allData$[ebp]
  000b0	50		 push	 eax
  000b1	8d 4d f0	 lea	 ecx, DWORD PTR _strColumnData$5[ebp]
  000b4	ff 15 00 00 00
	00		 call	 DWORD PTR __imp_??4?$CStringT@DV?$StrTraitMFC_DLL@DV?$ChTraitsCRT@D@ATL@@@@@ATL@@QAEAAV01@ABV01@@Z

; 517  : 			allData.Empty();

  000ba	8d 4d 08	 lea	 ecx, DWORD PTR _allData$[ebp]
  000bd	ff 15 00 00 00
	00		 call	 DWORD PTR __imp_?Empty@?$CSimpleStringT@D$00@ATL@@QAEXXZ
$LN8@InitBlock:

; 518  : 		}
; 519  : 
; 520  : 		for(int j =0; j< nRow;j++)

  000c3	8b 4d 0c	 mov	 ecx, DWORD PTR _nRow$[ebp]
  000c6	85 c9		 test	 ecx, ecx
  000c8	0f 8e 92 00 00
	00		 jle	 $LN6@InitBlock
  000ce	8b f1		 mov	 esi, ecx
  000d0	89 4d e4	 mov	 DWORD PTR tv328[ebp], ecx
$LL7@InitBlock:

; 521  : 		{
; 522  : 			CString BlockName;

  000d3	8d 4d 10	 lea	 ecx, DWORD PTR _BlockName$6[ebp]
  000d6	ff 15 00 00 00
	00		 call	 DWORD PTR __imp_??0?$CStringT@DV?$StrTraitMFC_DLL@DV?$ChTraitsCRT@D@ATL@@@@@ATL@@QAE@XZ

; 523  : 			BlockName.Format("%s(%d,%d)", "Block", (nRow-j), (nColumn-i));

  000dc	57		 push	 edi
  000dd	56		 push	 esi
  000de	68 00 00 00 00	 push	 OFFSET ??_C@_05PPLCEPDH@Block@
  000e3	8d 45 10	 lea	 eax, DWORD PTR _BlockName$6[ebp]
  000e6	c6 45 fc 06	 mov	 BYTE PTR __$EHRec$[ebp+8], 6
  000ea	68 00 00 00 00	 push	 OFFSET ??_C@_09MABJODIH@?$CFs?$CI?$CFd?0?$CFd?$CJ@
  000ef	50		 push	 eax
  000f0	ff 15 00 00 00
	00		 call	 DWORD PTR __imp_?Format@?$CStringT@DV?$StrTraitMFC_DLL@DV?$ChTraitsCRT@D@ATL@@@@@ATL@@QAAXPBDZZ

; 524  : 			m_pChartBlock = new CChartLink( &m_clChartRoot, BLOCK, ( LPSTR)( LPCTSTR)BlockName, m_hOcxWnd);	

  000f6	68 b0 00 00 00	 push	 176			; 000000b0H
  000fb	e8 00 00 00 00	 call	 ??2@YAPAXI@Z		; operator new
  00100	83 c4 18	 add	 esp, 24			; 00000018H
  00103	89 45 dc	 mov	 DWORD PTR $T2[ebp], eax
  00106	c6 45 fc 07	 mov	 BYTE PTR __$EHRec$[ebp+8], 7
  0010a	85 c0		 test	 eax, eax
  0010c	74 1b		 je	 SHORT $LN10@InitBlock
  0010e	ff b3 04 02 00
	00		 push	 DWORD PTR [ebx+516]
  00114	8d 8b 00 01 00
	00		 lea	 ecx, DWORD PTR [ebx+256]
  0011a	ff 75 10	 push	 DWORD PTR _BlockName$6[ebp]
  0011d	6a 01		 push	 1
  0011f	51		 push	 ecx
  00120	8b c8		 mov	 ecx, eax
  00122	e8 00 00 00 00	 call	 ??0CChartLink@@QAE@PAV0@HPADPAUHWND__@@@Z ; CChartLink::CChartLink
  00127	eb 02		 jmp	 SHORT $LN11@InitBlock
$LN10@InitBlock:
  00129	33 c0		 xor	 eax, eax
$LN11@InitBlock:
  0012b	89 83 f0 01 00
	00		 mov	 DWORD PTR [ebx+496], eax

; 525  : 			m_pChartBlock->m_nColumnIndex = (nColumn-i);
; 526  : 			m_clChartRoot.InsertChild( m_pChartBlock);

  00131	8d 8b 00 01 00
	00		 lea	 ecx, DWORD PTR [ebx+256]
  00137	89 78 48	 mov	 DWORD PTR [eax+72], edi
  0013a	ff b3 f0 01 00
	00		 push	 DWORD PTR [ebx+496]
  00140	c6 45 fc 06	 mov	 BYTE PTR __$EHRec$[ebp+8], 6
  00144	e8 00 00 00 00	 call	 ?InsertChild@CChartLink@@QAEHPAV1@@Z ; CChartLink::InsertChild

; 527  : 		}

  00149	8d 4d 10	 lea	 ecx, DWORD PTR _BlockName$6[ebp]
  0014c	ff 15 00 00 00
	00		 call	 DWORD PTR __imp_??1?$CStringT@DV?$StrTraitMFC_DLL@DV?$ChTraitsCRT@D@ATL@@@@@ATL@@QAE@XZ
  00152	4e		 dec	 esi
  00153	83 6d e4 01	 sub	 DWORD PTR tv328[ebp], 1
  00157	0f 85 76 ff ff
	ff		 jne	 $LL7@InitBlock
  0015d	8b 75 e0	 mov	 esi, DWORD PTR tv326[ebp]
$LN6@InitBlock:

; 528  : 	}

  00160	8d 4d f0	 lea	 ecx, DWORD PTR _strColumnData$5[ebp]
  00163	c6 45 fc 00	 mov	 BYTE PTR __$EHRec$[ebp+8], 0
  00167	ff 15 00 00 00
	00		 call	 DWORD PTR __imp_??1?$CStringT@DV?$StrTraitMFC_DLL@DV?$ChTraitsCRT@D@ATL@@@@@ATL@@QAE@XZ
  0016d	4f		 dec	 edi
  0016e	83 ee 01	 sub	 esi, 1
  00171	89 75 e0	 mov	 DWORD PTR tv326[ebp], esi
  00174	0f 85 d6 fe ff
	ff		 jne	 $LL4@InitBlock
$LN3@InitBlock:

; 529  : }

  0017a	8d 4d 08	 lea	 ecx, DWORD PTR _allData$[ebp]
  0017d	ff 15 00 00 00
	00		 call	 DWORD PTR __imp_??1?$CStringT@DV?$StrTraitMFC_DLL@DV?$ChTraitsCRT@D@ATL@@@@@ATL@@QAE@XZ
  00183	8b 4d f4	 mov	 ecx, DWORD PTR __$EHRec$[ebp]
  00186	64 89 0d 00 00
	00 00		 mov	 DWORD PTR fs:0, ecx
  0018d	59		 pop	 ecx
  0018e	5f		 pop	 edi
  0018f	5e		 pop	 esi
  00190	5b		 pop	 ebx
  00191	8b e5		 mov	 esp, ebp
  00193	5d		 pop	 ebp
  00194	c2 0c 00	 ret	 12			; 0000000cH
_TEXT	ENDS
;	COMDAT text$x
text$x	SEGMENT
__unwindfunclet$?InitBlock@CMyTreeCtrl@@QAEXABV?$CStringT@DV?$StrTraitMFC_DLL@DV?$ChTraitsCRT@D@ATL@@@@@ATL@@HH@Z$0:
  00000	8d 4d 08	 lea	 ecx, DWORD PTR _allData$[ebp]
  00003	ff 25 00 00 00
	00		 jmp	 DWORD PTR __imp_??1?$CStringT@DV?$StrTraitMFC_DLL@DV?$ChTraitsCRT@D@ATL@@@@@ATL@@QAE@XZ
__unwindfunclet$?InitBlock@CMyTreeCtrl@@QAEXABV?$CStringT@DV?$StrTraitMFC_DLL@DV?$ChTraitsCRT@D@ATL@@@@@ATL@@HH@Z$1:
  00009	8d 4d e8	 lea	 ecx, DWORD PTR $T3[ebp]
  0000c	ff 25 00 00 00
	00		 jmp	 DWORD PTR __imp_??1?$CStringT@DV?$StrTraitMFC_DLL@DV?$ChTraitsCRT@D@ATL@@@@@ATL@@QAE@XZ
__unwindfunclet$?InitBlock@CMyTreeCtrl@@QAEXABV?$CStringT@DV?$StrTraitMFC_DLL@DV?$ChTraitsCRT@D@ATL@@@@@ATL@@HH@Z$2:
  00012	8d 4d ec	 lea	 ecx, DWORD PTR $T4[ebp]
  00015	ff 25 00 00 00
	00		 jmp	 DWORD PTR __imp_??1?$CStringT@DV?$StrTraitMFC_DLL@DV?$ChTraitsCRT@D@ATL@@@@@ATL@@QAE@XZ
__unwindfunclet$?InitBlock@CMyTreeCtrl@@QAEXABV?$CStringT@DV?$StrTraitMFC_DLL@DV?$ChTraitsCRT@D@ATL@@@@@ATL@@HH@Z$3:
  0001b	8d 4d f0	 lea	 ecx, DWORD PTR _strColumnData$5[ebp]
  0001e	ff 25 00 00 00
	00		 jmp	 DWORD PTR __imp_??1?$CStringT@DV?$StrTraitMFC_DLL@DV?$ChTraitsCRT@D@ATL@@@@@ATL@@QAE@XZ
__unwindfunclet$?InitBlock@CMyTreeCtrl@@QAEXABV?$CStringT@DV?$StrTraitMFC_DLL@DV?$ChTraitsCRT@D@ATL@@@@@ATL@@HH@Z$4:
  00024	8d 4d 10	 lea	 ecx, DWORD PTR _BlockName$6[ebp]
  00027	ff 25 00 00 00
	00		 jmp	 DWORD PTR __imp_??1?$CStringT@DV?$StrTraitMFC_DLL@DV?$ChTraitsCRT@D@ATL@@@@@ATL@@QAE@XZ
__unwindfunclet$?InitBlock@CMyTreeCtrl@@QAEXABV?$CStringT@DV?$StrTraitMFC_DLL@DV?$ChTraitsCRT@D@ATL@@@@@ATL@@HH@Z$5:
  0002d	68 b0 00 00 00	 push	 176			; 000000b0H
  00032	8b 45 dc	 mov	 eax, DWORD PTR $T2[ebp]
  00035	50		 push	 eax
  00036	e8 00 00 00 00	 call	 ??3@YAXPAXI@Z		; operator delete
  0003b	83 c4 08	 add	 esp, 8
  0003e	c3		 ret	 0
  0003f	cc		 int	 3
  00040	cc		 int	 3
  00041	cc		 int	 3
  00042	cc		 int	 3
  00043	cc		 int	 3
__ehhandler$?InitBlock@CMyTreeCtrl@@QAEXABV?$CStringT@DV?$StrTraitMFC_DLL@DV?$ChTraitsCRT@D@ATL@@@@@ATL@@HH@Z:
  00044	90		 npad	 1
  00045	90		 npad	 1
  00046	8b 54 24 08	 mov	 edx, DWORD PTR [esp+8]
  0004a	8d 42 0c	 lea	 eax, DWORD PTR [edx+12]
  0004d	8b 4a d8	 mov	 ecx, DWORD PTR [edx-40]
  00050	33 c8		 xor	 ecx, eax
  00052	e8 00 00 00 00	 call	 @__security_check_cookie@4
  00057	b8 00 00 00 00	 mov	 eax, OFFSET __ehfuncinfo$?InitBlock@CMyTreeCtrl@@QAEXABV?$CStringT@DV?$StrTraitMFC_DLL@DV?$ChTraitsCRT@D@ATL@@@@@ATL@@HH@Z
  0005c	e9 00 00 00 00	 jmp	 ___CxxFrameHandler3
text$x	ENDS
?InitBlock@CMyTreeCtrl@@QAEXABV?$CStringT@DV?$StrTraitMFC_DLL@DV?$ChTraitsCRT@D@ATL@@@@@ATL@@HH@Z ENDP ; CMyTreeCtrl::InitBlock
; Function compile flags: /Ogtp
; File D:\git\src\IBK\IBK_DRFN\ProjSrc\SrcChartEx\ChartAddIn\ChartDesignPropertyAddIn\ChartDesignPropertyAddIn\MyTreeCtrl.cpp
;	COMDAT ?SetColorOfLine@CMyTreeCtrl@@QAEXHABV?$CStringT@DV?$StrTraitMFC_DLL@DV?$ChTraitsCRT@D@ATL@@@@@ATL@@@Z
_TEXT	SEGMENT
_nLineIndex$ = 8					; size = 4
_strItemValue$ = 12					; size = 4
?SetColorOfLine@CMyTreeCtrl@@QAEXHABV?$CStringT@DV?$StrTraitMFC_DLL@DV?$ChTraitsCRT@D@ATL@@@@@ATL@@@Z PROC ; CMyTreeCtrl::SetColorOfLine, COMDAT
; _this$ = ecx

; 683  : {

  00000	55		 push	 ebp
  00001	8b ec		 mov	 ebp, esp

; 684  : 	m_LineColor.SetLineColor(nLineIndex, strItemValue);

  00003	81 c1 b0 01 00
	00		 add	 ecx, 432		; 000001b0H

; 685  : }

  00009	5d		 pop	 ebp

; 684  : 	m_LineColor.SetLineColor(nLineIndex, strItemValue);

  0000a	e9 00 00 00 00	 jmp	 ?SetLineColor@CLineColor@@QAEXHABV?$CStringT@DV?$StrTraitMFC_DLL@DV?$ChTraitsCRT@D@ATL@@@@@ATL@@@Z ; CLineColor::SetLineColor
?SetColorOfLine@CMyTreeCtrl@@QAEXHABV?$CStringT@DV?$StrTraitMFC_DLL@DV?$ChTraitsCRT@D@ATL@@@@@ATL@@@Z ENDP ; CMyTreeCtrl::SetColorOfLine
_TEXT	ENDS
; Function compile flags: /Ogtp
; File D:\git\src\IBK\IBK_DRFN\ProjSrc\SrcChartEx\ChartAddIn\ChartDesignPropertyAddIn\ChartDesignPropertyAddIn\MyTreeCtrl.cpp
;	COMDAT ?SetAllItemInfoOfPacketPage@CMyTreeCtrl@@QAEXABV?$CStringT@DV?$StrTraitMFC_DLL@DV?$ChTraitsCRT@D@ATL@@@@@ATL@@@Z
_TEXT	SEGMENT
_strAllItemInfoOfPacketPage$ = 8			; size = 4
?SetAllItemInfoOfPacketPage@CMyTreeCtrl@@QAEXABV?$CStringT@DV?$StrTraitMFC_DLL@DV?$ChTraitsCRT@D@ATL@@@@@ATL@@@Z PROC ; CMyTreeCtrl::SetAllItemInfoOfPacketPage, COMDAT
; _this$ = ecx

; 688  : {

  00000	55		 push	 ebp
  00001	8b ec		 mov	 ebp, esp

; 689  : 	m_strAllItemInfoOfPacketPage = strAllItemInfoOfPacketPage;

  00003	81 c1 ec 01 00
	00		 add	 ecx, 492		; 000001ecH

; 690  : }

  00009	5d		 pop	 ebp

; 689  : 	m_strAllItemInfoOfPacketPage = strAllItemInfoOfPacketPage;

  0000a	ff 25 00 00 00
	00		 jmp	 DWORD PTR __imp_??4?$CStringT@DV?$StrTraitMFC_DLL@DV?$ChTraitsCRT@D@ATL@@@@@ATL@@QAEAAV01@ABV01@@Z
?SetAllItemInfoOfPacketPage@CMyTreeCtrl@@QAEXABV?$CStringT@DV?$StrTraitMFC_DLL@DV?$ChTraitsCRT@D@ATL@@@@@ATL@@@Z ENDP ; CMyTreeCtrl::SetAllItemInfoOfPacketPage
_TEXT	ENDS
; Function compile flags: /Ogtp
; File D:\git\src\IBK\IBK_DRFN\ProjSrc\SrcChartEx\ChartAddIn\ChartDesignPropertyAddIn\ChartDesignPropertyAddIn\MyTreeCtrl.cpp
;	COMDAT ?SetScaleCompartTypeToAllBlocks@CMyTreeCtrl@@QAEXH@Z
_TEXT	SEGMENT
_nScaleCompartType$ = 8					; size = 4
?SetScaleCompartTypeToAllBlocks@CMyTreeCtrl@@QAEXH@Z PROC ; CMyTreeCtrl::SetScaleCompartTypeToAllBlocks, COMDAT
; _this$ = ecx

; 839  : {

  00000	55		 push	 ebp
  00001	8b ec		 mov	 ebp, esp

; 840  : 	m_clChartRoot.m_nScaleCompartType = nScaleCompartType;

  00003	8b 55 08	 mov	 edx, DWORD PTR _nScaleCompartType$[ebp]
  00006	89 91 50 01 00
	00		 mov	 DWORD PTR [ecx+336], edx

; 841  : 	CChartLink* pBlock = m_clChartRoot.m_Child;

  0000c	8b 89 60 01 00
	00		 mov	 ecx, DWORD PTR [ecx+352]

; 842  : 	while(pBlock)

  00012	85 c9		 test	 ecx, ecx
  00014	74 1b		 je	 SHORT $LN3@SetScaleCo
$LL2@SetScaleCo:

; 843  : 	{
; 844  : 		pBlock->m_nScaleCompartType = nScaleCompartType;
; 845  : 		CChartLink* pVertical = pBlock->m_Child;

  00016	8b 41 60	 mov	 eax, DWORD PTR [ecx+96]
  00019	89 51 50	 mov	 DWORD PTR [ecx+80], edx

; 846  : 		while(pVertical) {

  0001c	85 c0		 test	 eax, eax
  0001e	74 0a		 je	 SHORT $LN5@SetScaleCo
$LL4@SetScaleCo:

; 847  : 			pVertical->m_nScaleCompartType = nScaleCompartType;

  00020	89 50 50	 mov	 DWORD PTR [eax+80], edx

; 848  : 			pVertical = pVertical->m_Next;

  00023	8b 40 68	 mov	 eax, DWORD PTR [eax+104]
  00026	85 c0		 test	 eax, eax
  00028	75 f6		 jne	 SHORT $LL4@SetScaleCo
$LN5@SetScaleCo:

; 849  : 		}
; 850  : 		pBlock = pBlock->m_Next;

  0002a	8b 49 68	 mov	 ecx, DWORD PTR [ecx+104]
  0002d	85 c9		 test	 ecx, ecx
  0002f	75 e5		 jne	 SHORT $LL2@SetScaleCo
$LN3@SetScaleCo:

; 851  : 	}
; 852  : }

  00031	5d		 pop	 ebp
  00032	c2 04 00	 ret	 4
?SetScaleCompartTypeToAllBlocks@CMyTreeCtrl@@QAEXH@Z ENDP ; CMyTreeCtrl::SetScaleCompartTypeToAllBlocks
_TEXT	ENDS
; Function compile flags: /Ogtp
; File D:\git\src\IBK\IBK_DRFN\ProjSrc\SrcChartEx\ChartAddIn\ChartDesignPropertyAddIn\ChartDesignPropertyAddIn\MyTreeCtrl.cpp
; File C:\Program Files (x86)\Microsoft Visual Studio\2019\Community\VC\Tools\MSVC\14.29.30133\atlmfc\include\afxcmn.inl
; File D:\git\src\IBK\IBK_DRFN\ProjSrc\SrcChartEx\ChartAddIn\ChartDesignPropertyAddIn\ChartDesignPropertyAddIn\MyTreeCtrl.cpp
;	COMDAT ??0CMyTreeCtrl@@QAE@XZ
_TEXT	SEGMENT
_this$ = -16						; size = 4
__$EHRec$ = -12						; size = 12
??0CMyTreeCtrl@@QAE@XZ PROC				; CMyTreeCtrl::CMyTreeCtrl, COMDAT
; _this$ = ecx

; 29   : {

  00000	55		 push	 ebp
  00001	8b ec		 mov	 ebp, esp
  00003	6a ff		 push	 -1
  00005	68 00 00 00 00	 push	 __ehhandler$??0CMyTreeCtrl@@QAE@XZ
  0000a	64 a1 00 00 00
	00		 mov	 eax, DWORD PTR fs:0
  00010	50		 push	 eax
  00011	51		 push	 ecx
  00012	56		 push	 esi
  00013	a1 00 00 00 00	 mov	 eax, DWORD PTR ___security_cookie
  00018	33 c5		 xor	 eax, ebp
  0001a	50		 push	 eax
  0001b	8d 45 f4	 lea	 eax, DWORD PTR __$EHRec$[ebp]
  0001e	64 a3 00 00 00
	00		 mov	 DWORD PTR fs:0, eax
  00024	8b f1		 mov	 esi, ecx
  00026	89 75 f0	 mov	 DWORD PTR _this$[ebp], esi
; File C:\Program Files (x86)\Microsoft Visual Studio\2019\Community\VC\Tools\MSVC\14.29.30133\atlmfc\include\afxcmn.inl

; 264  : 	{ }

  00029	e8 00 00 00 00	 call	 ??0CWnd@@QAE@XZ		; CWnd::CWnd
; File D:\git\src\IBK\IBK_DRFN\ProjSrc\SrcChartEx\ChartAddIn\ChartDesignPropertyAddIn\ChartDesignPropertyAddIn\MyTreeCtrl.cpp

; 29   : {

  0002e	8d 8e 84 00 00
	00		 lea	 ecx, DWORD PTR [esi+132]
  00034	c7 45 fc 00 00
	00 00		 mov	 DWORD PTR __$EHRec$[ebp+8], 0
  0003b	c7 06 00 00 00
	00		 mov	 DWORD PTR [esi], OFFSET ??_7CMyTreeCtrl@@6B@
  00041	e8 00 00 00 00	 call	 ??0CChartDrop@@QAE@XZ	; CChartDrop::CChartDrop
  00046	8d 8e c8 00 00
	00		 lea	 ecx, DWORD PTR [esi+200]
  0004c	c6 45 fc 01	 mov	 BYTE PTR __$EHRec$[ebp+8], 1
  00050	e8 00 00 00 00	 call	 ??0COleDataSource@@QAE@XZ ; COleDataSource::COleDataSource

; 28   : CMyTreeCtrl::CMyTreeCtrl() : m_clChartRoot(NULL, ROOT, "Chart List", NULL)

  00055	6a 00		 push	 0
  00057	68 00 00 00 00	 push	 OFFSET ??_C@_0L@GFMNOAEH@Chart?5List@
  0005c	6a 00		 push	 0
  0005e	6a 00		 push	 0
  00060	8d 8e 00 01 00
	00		 lea	 ecx, DWORD PTR [esi+256]
  00066	c6 45 fc 02	 mov	 BYTE PTR __$EHRec$[ebp+8], 2
  0006a	e8 00 00 00 00	 call	 ??0CChartLink@@QAE@PAV0@HPADPAUHWND__@@@Z ; CChartLink::CChartLink

; 29   : {

  0006f	8d 8e b0 01 00
	00		 lea	 ecx, DWORD PTR [esi+432]
  00075	c6 45 fc 03	 mov	 BYTE PTR __$EHRec$[ebp+8], 3
  00079	e8 00 00 00 00	 call	 ??0CLineColor@@QAE@XZ	; CLineColor::CLineColor
  0007e	8d 8e ec 01 00
	00		 lea	 ecx, DWORD PTR [esi+492]
  00084	ff 15 00 00 00
	00		 call	 DWORD PTR __imp_??0?$CStringT@DV?$StrTraitMFC_DLL@DV?$ChTraitsCRT@D@ATL@@@@@ATL@@QAE@XZ
  0008a	8d 8e f4 01 00
	00		 lea	 ecx, DWORD PTR [esi+500]
  00090	c6 45 fc 05	 mov	 BYTE PTR __$EHRec$[ebp+8], 5
  00094	e8 00 00 00 00	 call	 ??0CImageList@@QAE@XZ	; CImageList::CImageList

; 30   : 	m_pChartBlock = NULL;

  00099	c7 86 f0 01 00
	00 00 00 00 00	 mov	 DWORD PTR [esi+496], 0

; 31   : 	m_hTarget = NULL ;
; 32   : 	m_pSelectItem = NULL;
; 33   : 
; 34   : 	// (2006/7/5 - Seung-Won, Bae) Use IGraphInfoManager
; 35   : 	m_pIGraphInfoManager = NULL;
; 36   : 
; 37   : 	// (2006/11/28 - Seung-Won, Bae) Initializing the Drag&Drop Flag.
; 38   : 	m_DoDrag = FALSE;
; 39   : 
; 40   : 	// (2008/1/14 - Seung-Won, Bae) for MultiLanguage.
; 41   : 	m_hOcxWnd = NULL;
; 42   : }

  000a3	8b c6		 mov	 eax, esi
  000a5	c7 86 80 00 00
	00 00 00 00 00	 mov	 DWORD PTR [esi+128], 0
  000af	c7 86 fc 01 00
	00 00 00 00 00	 mov	 DWORD PTR [esi+508], 0
  000b9	c7 86 00 02 00
	00 00 00 00 00	 mov	 DWORD PTR [esi+512], 0
  000c3	c7 86 fc 00 00
	00 00 00 00 00	 mov	 DWORD PTR [esi+252], 0
  000cd	c7 86 04 02 00
	00 00 00 00 00	 mov	 DWORD PTR [esi+516], 0
  000d7	8b 4d f4	 mov	 ecx, DWORD PTR __$EHRec$[ebp]
  000da	64 89 0d 00 00
	00 00		 mov	 DWORD PTR fs:0, ecx
  000e1	59		 pop	 ecx
  000e2	5e		 pop	 esi
  000e3	8b e5		 mov	 esp, ebp
  000e5	5d		 pop	 ebp
  000e6	c3		 ret	 0
_TEXT	ENDS
;	COMDAT text$x
text$x	SEGMENT
__unwindfunclet$??0CMyTreeCtrl@@QAE@XZ$0:
  00000	8b 4d f0	 mov	 ecx, DWORD PTR _this$[ebp]
  00003	e9 00 00 00 00	 jmp	 ??1CTreeCtrl@@UAE@XZ	; CTreeCtrl::~CTreeCtrl
__unwindfunclet$??0CMyTreeCtrl@@QAE@XZ$1:
  00008	8b 4d f0	 mov	 ecx, DWORD PTR _this$[ebp]
  0000b	81 c1 84 00 00
	00		 add	 ecx, 132		; 00000084H
  00011	e9 00 00 00 00	 jmp	 ??1CChartDrop@@UAE@XZ
__unwindfunclet$??0CMyTreeCtrl@@QAE@XZ$2:
  00016	8b 4d f0	 mov	 ecx, DWORD PTR _this$[ebp]
  00019	81 c1 c8 00 00
	00		 add	 ecx, 200		; 000000c8H
  0001f	e9 00 00 00 00	 jmp	 ??1COleDataSource@@UAE@XZ ; COleDataSource::~COleDataSource
__unwindfunclet$??0CMyTreeCtrl@@QAE@XZ$3:
  00024	8b 4d f0	 mov	 ecx, DWORD PTR _this$[ebp]
  00027	81 c1 00 01 00
	00		 add	 ecx, 256		; 00000100H
  0002d	e9 00 00 00 00	 jmp	 ??1CChartLink@@UAE@XZ	; CChartLink::~CChartLink
__unwindfunclet$??0CMyTreeCtrl@@QAE@XZ$4:
  00032	8b 4d f0	 mov	 ecx, DWORD PTR _this$[ebp]
  00035	81 c1 b0 01 00
	00		 add	 ecx, 432		; 000001b0H
  0003b	e9 00 00 00 00	 jmp	 ??1CLineColor@@UAE@XZ	; CLineColor::~CLineColor
__unwindfunclet$??0CMyTreeCtrl@@QAE@XZ$5:
  00040	8b 4d f0	 mov	 ecx, DWORD PTR _this$[ebp]
  00043	81 c1 ec 01 00
	00		 add	 ecx, 492		; 000001ecH
  00049	ff 25 00 00 00
	00		 jmp	 DWORD PTR __imp_??1?$CStringT@DV?$StrTraitMFC_DLL@DV?$ChTraitsCRT@D@ATL@@@@@ATL@@QAE@XZ
  0004f	cc		 int	 3
  00050	cc		 int	 3
  00051	cc		 int	 3
  00052	cc		 int	 3
  00053	cc		 int	 3
__ehhandler$??0CMyTreeCtrl@@QAE@XZ:
  00054	90		 npad	 1
  00055	90		 npad	 1
  00056	8b 54 24 08	 mov	 edx, DWORD PTR [esp+8]
  0005a	8d 42 0c	 lea	 eax, DWORD PTR [edx+12]
  0005d	8b 4a f4	 mov	 ecx, DWORD PTR [edx-12]
  00060	33 c8		 xor	 ecx, eax
  00062	e8 00 00 00 00	 call	 @__security_check_cookie@4
  00067	b8 00 00 00 00	 mov	 eax, OFFSET __ehfuncinfo$??0CMyTreeCtrl@@QAE@XZ
  0006c	e9 00 00 00 00	 jmp	 ___CxxFrameHandler3
text$x	ENDS
??0CMyTreeCtrl@@QAE@XZ ENDP				; CMyTreeCtrl::CMyTreeCtrl
; Function compile flags: /Ogtp
;	COMDAT ??1CDlgBlockHorizontalScale@@UAE@XZ
_TEXT	SEGMENT
??1CDlgBlockHorizontalScale@@UAE@XZ PROC		; CDlgBlockHorizontalScale::~CDlgBlockHorizontalScale, COMDAT
; _this$ = ecx
  00000	56		 push	 esi
  00001	8b f1		 mov	 esi, ecx
  00003	8d 8e c8 02 00
	00		 lea	 ecx, DWORD PTR [esi+712]
  00009	e8 00 00 00 00	 call	 ??1CDlgToolTip@@UAE@XZ	; CDlgToolTip::~CDlgToolTip
  0000e	8d 8e c0 02 00
	00		 lea	 ecx, DWORD PTR [esi+704]
  00014	ff 15 00 00 00
	00		 call	 DWORD PTR __imp_??1?$CStringT@DV?$StrTraitMFC_DLL@DV?$ChTraitsCRT@D@ATL@@@@@ATL@@QAE@XZ
  0001a	8d 8e b8 02 00
	00		 lea	 ecx, DWORD PTR [esi+696]
  00020	ff 15 00 00 00
	00		 call	 DWORD PTR __imp_??1?$CStringT@DV?$StrTraitMFC_DLL@DV?$ChTraitsCRT@D@ATL@@@@@ATL@@QAE@XZ
  00026	8d 8e b0 02 00
	00		 lea	 ecx, DWORD PTR [esi+688]
  0002c	ff 15 00 00 00
	00		 call	 DWORD PTR __imp_??1?$CStringT@DV?$StrTraitMFC_DLL@DV?$ChTraitsCRT@D@ATL@@@@@ATL@@QAE@XZ
  00032	8d 8e ac 02 00
	00		 lea	 ecx, DWORD PTR [esi+684]
  00038	ff 15 00 00 00
	00		 call	 DWORD PTR __imp_??1?$CStringT@DV?$StrTraitMFC_DLL@DV?$ChTraitsCRT@D@ATL@@@@@ATL@@QAE@XZ
  0003e	8d 8e 28 02 00
	00		 lea	 ecx, DWORD PTR [esi+552]
  00044	e8 00 00 00 00	 call	 ??1CNoSystemMenuCombo@@UAE@XZ ; CNoSystemMenuCombo::~CNoSystemMenuCombo
  00049	8d 8e a8 01 00
	00		 lea	 ecx, DWORD PTR [esi+424]
  0004f	e8 00 00 00 00	 call	 ??1CNoSystemMenuCombo@@UAE@XZ ; CNoSystemMenuCombo::~CNoSystemMenuCombo
  00054	8d 8e 28 01 00
	00		 lea	 ecx, DWORD PTR [esi+296]
  0005a	e8 00 00 00 00	 call	 ??1CNoSystemMenuCombo@@UAE@XZ ; CNoSystemMenuCombo::~CNoSystemMenuCombo
  0005f	8d 8e a8 00 00
	00		 lea	 ecx, DWORD PTR [esi+168]
  00065	e8 00 00 00 00	 call	 ??1CNoSystemMenuCombo@@UAE@XZ ; CNoSystemMenuCombo::~CNoSystemMenuCombo
  0006a	8b ce		 mov	 ecx, esi
  0006c	5e		 pop	 esi
  0006d	e9 00 00 00 00	 jmp	 ??1CDialog@@UAE@XZ	; CDialog::~CDialog
??1CDlgBlockHorizontalScale@@UAE@XZ ENDP		; CDlgBlockHorizontalScale::~CDlgBlockHorizontalScale
_TEXT	ENDS
; Function compile flags: /Ogtp
;	COMDAT ??1CChartDrop@@UAE@XZ
_TEXT	SEGMENT
??1CChartDrop@@UAE@XZ PROC				; CChartDrop::~CChartDrop, COMDAT
; _this$ = ecx
  00000	56		 push	 esi
  00001	8b f1		 mov	 esi, ecx
  00003	8d 4e 38	 lea	 ecx, DWORD PTR [esi+56]
  00006	ff 15 00 00 00
	00		 call	 DWORD PTR __imp_??1?$CStringT@DV?$StrTraitMFC_DLL@DV?$ChTraitsCRT@D@ATL@@@@@ATL@@QAE@XZ
  0000c	8b ce		 mov	 ecx, esi
  0000e	5e		 pop	 esi
  0000f	e9 00 00 00 00	 jmp	 ??1COleDropTarget@@UAE@XZ ; COleDropTarget::~COleDropTarget
??1CChartDrop@@UAE@XZ ENDP				; CChartDrop::~CChartDrop
_TEXT	ENDS
; Function compile flags: /Ogtp
; File D:\git\src\IBK\IBK_DRFN\ProjSrc\SrcChartEx\ChartAddIn\ChartDesignPropertyAddIn\Include_Chart\Dll_Load\IMetaTable.h
; File C:\Program Files (x86)\Microsoft Visual Studio\2019\Community\VC\Tools\MSVC\14.29.30133\atlmfc\include\afxwin1.inl
; File D:\git\src\IBK\IBK_DRFN\ProjSrc\SrcChartEx\ChartAddIn\ChartDesignPropertyAddIn\Include_Chart\Dll_Load\IMetaTable.h
;	COMDAT ??1CMultiLanguageResourceSetter@@QAE@XZ
_TEXT	SEGMENT
__$EHRec$ = -12						; size = 12
??1CMultiLanguageResourceSetter@@QAE@XZ PROC		; CMultiLanguageResourceSetter::~CMultiLanguageResourceSetter, COMDAT
; _this$ = ecx

; 1036 : 	{

  00000	55		 push	 ebp
  00001	8b ec		 mov	 ebp, esp
  00003	6a ff		 push	 -1
  00005	68 00 00 00 00	 push	 __ehhandler$??1CMultiLanguageResourceSetter@@QAE@XZ
  0000a	64 a1 00 00 00
	00		 mov	 eax, DWORD PTR fs:0
  00010	50		 push	 eax
  00011	56		 push	 esi
  00012	a1 00 00 00 00	 mov	 eax, DWORD PTR ___security_cookie
  00017	33 c5		 xor	 eax, ebp
  00019	50		 push	 eax
  0001a	8d 45 f4	 lea	 eax, DWORD PTR __$EHRec$[ebp]
  0001d	64 a3 00 00 00
	00		 mov	 DWORD PTR fs:0, eax

; 1037 : 		AfxSetResourceHandle( m_hInstance);

  00023	8b 31		 mov	 esi, DWORD PTR [ecx]
; File C:\Program Files (x86)\Microsoft Visual Studio\2019\Community\VC\Tools\MSVC\14.29.30133\atlmfc\include\afxwin1.inl

; 27   : 	{ ASSERT(hInstResource != NULL); afxCurrentResourceHandle = hInstResource; }

  00025	e8 00 00 00 00	 call	 ?AfxGetModuleState@@YGPAVAFX_MODULE_STATE@@XZ ; AfxGetModuleState
  0002a	89 70 0c	 mov	 DWORD PTR [eax+12], esi
; File D:\git\src\IBK\IBK_DRFN\ProjSrc\SrcChartEx\ChartAddIn\ChartDesignPropertyAddIn\Include_Chart\Dll_Load\IMetaTable.h

; 1038 : 	}

  0002d	8b 4d f4	 mov	 ecx, DWORD PTR __$EHRec$[ebp]
  00030	64 89 0d 00 00
	00 00		 mov	 DWORD PTR fs:0, ecx
  00037	59		 pop	 ecx
  00038	5e		 pop	 esi
  00039	8b e5		 mov	 esp, ebp
  0003b	5d		 pop	 ebp
  0003c	c3		 ret	 0
  0003d	cc		 int	 3
  0003e	cc		 int	 3
  0003f	cc		 int	 3
  00040	cc		 int	 3
  00041	cc		 int	 3
_TEXT	ENDS
;	COMDAT text$x
text$x	SEGMENT
__ehhandler$??1CMultiLanguageResourceSetter@@QAE@XZ:
  00000	90		 npad	 1
  00001	90		 npad	 1
  00002	8b 54 24 08	 mov	 edx, DWORD PTR [esp+8]
  00006	8d 42 0c	 lea	 eax, DWORD PTR [edx+12]
  00009	8b 4a f8	 mov	 ecx, DWORD PTR [edx-8]
  0000c	33 c8		 xor	 ecx, eax
  0000e	e8 00 00 00 00	 call	 @__security_check_cookie@4
  00013	b8 00 00 00 00	 mov	 eax, OFFSET __ehfuncinfo$??1CMultiLanguageResourceSetter@@QAE@XZ
  00018	e9 00 00 00 00	 jmp	 ___CxxFrameHandler3
text$x	ENDS
??1CMultiLanguageResourceSetter@@QAE@XZ ENDP		; CMultiLanguageResourceSetter::~CMultiLanguageResourceSetter
; Function compile flags: /Ogtp
; File D:\git\src\IBK\IBK_DRFN\ProjSrc\SrcChartEx\ChartAddIn\ChartDesignPropertyAddIn\Include_Chart\Dll_Load\IMetaTable.h
;	COMDAT ?LoadResourceDLL@IMetaTable@@QAEPAUHINSTANCE__@@PAUHWND__@@PAU2@@Z
_TEXT	SEGMENT
_p1$ = 8						; size = 4
_p2$ = 12						; size = 4
?LoadResourceDLL@IMetaTable@@QAEPAUHINSTANCE__@@PAUHWND__@@PAU2@@Z PROC ; IMetaTable::LoadResourceDLL, COMDAT
; _this$ = ecx

; 936  : 	DECLARE_FUNCTION2(	LoadResourceDLL,				HMODULE, AfxGetStaticModuleState()->m_hCurrentInstanceHandle, HWND, HMODULE);

  00000	55		 push	 ebp
  00001	8b ec		 mov	 ebp, esp
  00003	56		 push	 esi
  00004	8b f1		 mov	 esi, ecx
  00006	8b 46 04	 mov	 eax, DWORD PTR [esi+4]
  00009	85 c0		 test	 eax, eax
  0000b	74 4d		 je	 SHORT $LN4@LoadResour
  0000d	57		 push	 edi
  0000e	bf 80 0d 00 00	 mov	 edi, 3456		; 00000d80H
  00013	66 3b be 94 00
	00 00		 cmp	 di, WORD PTR [esi+148]
  0001a	74 23		 je	 SHORT $LN3@LoadResour
  0001c	68 00 00 00 00	 push	 OFFSET ??_C@_0BA@ENJOCHIO@LoadResourceDLL@
  00021	50		 push	 eax
  00022	c7 86 90 00 00
	00 00 00 00 00	 mov	 DWORD PTR [esi+144], 0
  0002c	ff 15 00 00 00
	00		 call	 DWORD PTR __imp__GetProcAddress@8
  00032	89 86 90 00 00
	00		 mov	 DWORD PTR [esi+144], eax
  00038	66 89 be 94 00
	00 00		 mov	 WORD PTR [esi+148], di
$LN3@LoadResour:
  0003f	8b 86 90 00 00
	00		 mov	 eax, DWORD PTR [esi+144]
  00045	5f		 pop	 edi
  00046	85 c0		 test	 eax, eax
  00048	74 10		 je	 SHORT $LN4@LoadResour
  0004a	ff 75 0c	 push	 DWORD PTR _p2$[ebp]
  0004d	ff 75 08	 push	 DWORD PTR _p1$[ebp]
  00050	ff d0		 call	 eax
  00052	83 c4 08	 add	 esp, 8
  00055	5e		 pop	 esi
  00056	5d		 pop	 ebp
  00057	c2 08 00	 ret	 8
$LN4@LoadResour:
  0005a	e8 00 00 00 00	 call	 ?AfxGetStaticModuleState@@YGPAVAFX_MODULE_STATE@@XZ ; AfxGetStaticModuleState
  0005f	5e		 pop	 esi
  00060	8b 40 08	 mov	 eax, DWORD PTR [eax+8]
  00063	5d		 pop	 ebp
  00064	c2 08 00	 ret	 8
?LoadResourceDLL@IMetaTable@@QAEPAUHINSTANCE__@@PAUHWND__@@PAU2@@Z ENDP ; IMetaTable::LoadResourceDLL
_TEXT	ENDS
; Function compile flags: /Ogtp
; File C:\Program Files (x86)\Microsoft Visual Studio\2019\Community\VC\Tools\MSVC\14.29.30133\atlmfc\include\afx.inl
;	COMDAT ??_GCTreeCtrl@@UAEPAXI@Z
_TEXT	SEGMENT
___flags$ = 8						; size = 4
??_GCTreeCtrl@@UAEPAXI@Z PROC				; CTreeCtrl::`scalar deleting destructor', COMDAT
; _this$ = ecx
  00000	55		 push	 ebp
  00001	8b ec		 mov	 ebp, esp
  00003	56		 push	 esi
  00004	8b f1		 mov	 esi, ecx
  00006	e8 00 00 00 00	 call	 ??1CTreeCtrl@@UAE@XZ	; CTreeCtrl::~CTreeCtrl
  0000b	8b 45 08	 mov	 eax, DWORD PTR ___flags$[ebp]
  0000e	a8 01		 test	 al, 1
  00010	74 22		 je	 SHORT $LN9@scalar
  00012	a8 04		 test	 al, 4
  00014	75 10		 jne	 SHORT $LN3@scalar

; 112  : 	{ ::operator delete(p); }

  00016	56		 push	 esi
  00017	e8 00 00 00 00	 call	 ??3@YAXPAX@Z		; operator delete
  0001c	83 c4 04	 add	 esp, 4
  0001f	8b c6		 mov	 eax, esi
  00021	5e		 pop	 esi
  00022	5d		 pop	 ebp
  00023	c2 04 00	 ret	 4
$LN3@scalar:
  00026	68 80 00 00 00	 push	 128			; 00000080H
  0002b	56		 push	 esi
  0002c	e8 00 00 00 00	 call	 ?__global_delete@@YAXPAXI@Z ; __global_delete
  00031	83 c4 08	 add	 esp, 8
$LN9@scalar:
  00034	8b c6		 mov	 eax, esi
  00036	5e		 pop	 esi
  00037	5d		 pop	 ebp
  00038	c2 04 00	 ret	 4
??_GCTreeCtrl@@UAEPAXI@Z ENDP				; CTreeCtrl::`scalar deleting destructor'
_TEXT	ENDS
; Function compile flags: /Ogtp
; File C:\Program Files (x86)\Microsoft Visual Studio\2019\Community\VC\Tools\MSVC\14.29.30133\atlmfc\include\afxcmn.inl
;	COMDAT ?SelectDropTarget@CTreeCtrl@@QAEHPAU_TREEITEM@@@Z
_TEXT	SEGMENT
_hItem$ = 8						; size = 4
?SelectDropTarget@CTreeCtrl@@QAEHPAU_TREEITEM@@@Z PROC	; CTreeCtrl::SelectDropTarget, COMDAT
; _this$ = ecx

; 328  : 	{ ASSERT(::IsWindow(m_hWnd)); return (BOOL) ::SendMessage(m_hWnd, TVM_SELECTITEM, TVGN_DROPHILITE, (LPARAM)hItem); }

  00000	55		 push	 ebp
  00001	8b ec		 mov	 ebp, esp
  00003	ff 75 08	 push	 DWORD PTR _hItem$[ebp]
  00006	6a 08		 push	 8
  00008	68 0b 11 00 00	 push	 4363			; 0000110bH
  0000d	ff 71 20	 push	 DWORD PTR [ecx+32]
  00010	ff 15 00 00 00
	00		 call	 DWORD PTR __imp__SendMessageA@16
  00016	5d		 pop	 ebp
  00017	c2 04 00	 ret	 4
?SelectDropTarget@CTreeCtrl@@QAEHPAU_TREEITEM@@@Z ENDP	; CTreeCtrl::SelectDropTarget
_TEXT	ENDS
; Function compile flags: /Ogtp
; File C:\Program Files (x86)\Microsoft Visual Studio\2019\Community\VC\Tools\MSVC\14.29.30133\atlmfc\include\afxcmn.inl
;	COMDAT ?DeleteAllItems@CTreeCtrl@@QAEHXZ
_TEXT	SEGMENT
?DeleteAllItems@CTreeCtrl@@QAEHXZ PROC			; CTreeCtrl::DeleteAllItems, COMDAT
; _this$ = ecx

; 277  : 	{ ASSERT(::IsWindow(m_hWnd)); return (BOOL)::SendMessage(m_hWnd, TVM_DELETEITEM, 0, (LPARAM)TVI_ROOT); }

  00000	68 00 00 ff ff	 push	 -65536			; ffff0000H
  00005	6a 00		 push	 0
  00007	68 01 11 00 00	 push	 4353			; 00001101H
  0000c	ff 71 20	 push	 DWORD PTR [ecx+32]
  0000f	ff 15 00 00 00
	00		 call	 DWORD PTR __imp__SendMessageA@16
  00015	c3		 ret	 0
?DeleteAllItems@CTreeCtrl@@QAEHXZ ENDP			; CTreeCtrl::DeleteAllItems
_TEXT	ENDS
; Function compile flags: /Ogtp
; File C:\Program Files (x86)\Microsoft Visual Studio\2019\Community\VC\Tools\MSVC\14.29.30133\atlmfc\include\afxwin2.inl
;	COMDAT ?EndModalState@CWnd@@UAEXXZ
_TEXT	SEGMENT
?EndModalState@CWnd@@UAEXXZ PROC			; CWnd::EndModalState, COMDAT
; _this$ = ecx

; 567  : 	{ ::EnableWindow(m_hWnd, TRUE); }

  00000	6a 01		 push	 1
  00002	ff 71 20	 push	 DWORD PTR [ecx+32]
  00005	ff 15 00 00 00
	00		 call	 DWORD PTR __imp__EnableWindow@8
  0000b	c3		 ret	 0
?EndModalState@CWnd@@UAEXXZ ENDP			; CWnd::EndModalState
_TEXT	ENDS
; Function compile flags: /Ogtp
; File C:\Program Files (x86)\Microsoft Visual Studio\2019\Community\VC\Tools\MSVC\14.29.30133\atlmfc\include\afxwin2.inl
;	COMDAT ?BeginModalState@CWnd@@UAEXXZ
_TEXT	SEGMENT
?BeginModalState@CWnd@@UAEXXZ PROC			; CWnd::BeginModalState, COMDAT
; _this$ = ecx

; 565  : 	{ ::EnableWindow(m_hWnd, FALSE); }

  00000	6a 00		 push	 0
  00002	ff 71 20	 push	 DWORD PTR [ecx+32]
  00005	ff 15 00 00 00
	00		 call	 DWORD PTR __imp__EnableWindow@8
  0000b	c3		 ret	 0
?BeginModalState@CWnd@@UAEXXZ ENDP			; CWnd::BeginModalState
_TEXT	ENDS
; Function compile flags: /Ogtp
; File C:\Program Files (x86)\Microsoft Visual Studio\2019\Community\VC\Tools\MSVC\14.29.30133\atlmfc\include\afxwin2.inl
;	COMDAT ?DoDataExchange@CWnd@@MAEXPAVCDataExchange@@@Z
_TEXT	SEGMENT
___formal$ = 8						; size = 4
?DoDataExchange@CWnd@@MAEXPAVCDataExchange@@@Z PROC	; CWnd::DoDataExchange, COMDAT
; _this$ = ecx

; 561  : 	{ } // default does nothing

  00000	c2 04 00	 ret	 4
?DoDataExchange@CWnd@@MAEXPAVCDataExchange@@@Z ENDP	; CWnd::DoDataExchange
_TEXT	ENDS
; Function compile flags: /Ogtp
; File C:\Program Files (x86)\Microsoft Visual Studio\2019\Community\VC\Tools\MSVC\14.29.30133\atlmfc\include\afxwin1.inl
; File C:\Program Files (x86)\Microsoft Visual Studio\2019\Community\VC\Tools\MSVC\14.29.30133\atlmfc\include\afx.inl
;	COMDAT ??_GCMenu@@UAEPAXI@Z
_TEXT	SEGMENT
__$EHRec$ = -12						; size = 12
___flags$ = 8						; size = 4
??_GCMenu@@UAEPAXI@Z PROC				; CMenu::`scalar deleting destructor', COMDAT
; _this$ = ecx
  00000	55		 push	 ebp
  00001	8b ec		 mov	 ebp, esp
  00003	6a ff		 push	 -1
  00005	68 00 00 00 00	 push	 __ehhandler$??_GCMenu@@UAEPAXI@Z
  0000a	64 a1 00 00 00
	00		 mov	 eax, DWORD PTR fs:0
  00010	50		 push	 eax
  00011	56		 push	 esi
  00012	a1 00 00 00 00	 mov	 eax, DWORD PTR ___security_cookie
  00017	33 c5		 xor	 eax, ebp
  00019	50		 push	 eax
  0001a	8d 45 f4	 lea	 eax, DWORD PTR __$EHRec$[ebp]
  0001d	64 a3 00 00 00
	00		 mov	 DWORD PTR fs:0, eax
  00023	8b f1		 mov	 esi, ecx
; File C:\Program Files (x86)\Microsoft Visual Studio\2019\Community\VC\Tools\MSVC\14.29.30133\atlmfc\include\afxwin1.inl

; 905  : 	{ DestroyMenu(); }

  00025	c7 45 fc 00 00
	00 00		 mov	 DWORD PTR __$EHRec$[ebp+8], 0
  0002c	c7 06 00 00 00
	00		 mov	 DWORD PTR [esi], OFFSET ??_7CMenu@@6B@
  00032	e8 00 00 00 00	 call	 ?DestroyMenu@CMenu@@QAEHXZ ; CMenu::DestroyMenu
  00037	8b 45 08	 mov	 eax, DWORD PTR ___flags$[ebp]
  0003a	a8 01		 test	 al, 1
  0003c	74 2c		 je	 SHORT $LN12@scalar
  0003e	a8 04		 test	 al, 4
  00040	75 1d		 jne	 SHORT $LN3@scalar
; File C:\Program Files (x86)\Microsoft Visual Studio\2019\Community\VC\Tools\MSVC\14.29.30133\atlmfc\include\afx.inl

; 112  : 	{ ::operator delete(p); }

  00042	56		 push	 esi
  00043	e8 00 00 00 00	 call	 ??3@YAXPAX@Z		; operator delete
  00048	83 c4 04	 add	 esp, 4
  0004b	8b c6		 mov	 eax, esi
  0004d	8b 4d f4	 mov	 ecx, DWORD PTR __$EHRec$[ebp]
  00050	64 89 0d 00 00
	00 00		 mov	 DWORD PTR fs:0, ecx
  00057	59		 pop	 ecx
  00058	5e		 pop	 esi
  00059	8b e5		 mov	 esp, ebp
  0005b	5d		 pop	 ebp
  0005c	c2 04 00	 ret	 4
$LN3@scalar:
  0005f	6a 08		 push	 8
  00061	56		 push	 esi
  00062	e8 00 00 00 00	 call	 ?__global_delete@@YAXPAXI@Z ; __global_delete
  00067	83 c4 08	 add	 esp, 8
$LN12@scalar:
  0006a	8b c6		 mov	 eax, esi
  0006c	8b 4d f4	 mov	 ecx, DWORD PTR __$EHRec$[ebp]
  0006f	64 89 0d 00 00
	00 00		 mov	 DWORD PTR fs:0, ecx
  00076	59		 pop	 ecx
  00077	5e		 pop	 esi
  00078	8b e5		 mov	 esp, ebp
  0007a	5d		 pop	 ebp
  0007b	c2 04 00	 ret	 4
  0007e	cc		 int	 3
  0007f	cc		 int	 3
  00080	cc		 int	 3
  00081	cc		 int	 3
  00082	cc		 int	 3
_TEXT	ENDS
;	COMDAT text$x
text$x	SEGMENT
__ehhandler$??_GCMenu@@UAEPAXI@Z:
  00000	90		 npad	 1
  00001	90		 npad	 1
  00002	8b 54 24 08	 mov	 edx, DWORD PTR [esp+8]
  00006	8d 42 0c	 lea	 eax, DWORD PTR [edx+12]
  00009	8b 4a f8	 mov	 ecx, DWORD PTR [edx-8]
  0000c	33 c8		 xor	 ecx, eax
  0000e	e8 00 00 00 00	 call	 @__security_check_cookie@4
  00013	b8 00 00 00 00	 mov	 eax, OFFSET __ehfuncinfo$??_GCMenu@@UAEPAXI@Z
  00018	e9 00 00 00 00	 jmp	 ___CxxFrameHandler3
text$x	ENDS
??_GCMenu@@UAEPAXI@Z ENDP				; CMenu::`scalar deleting destructor'
; Function compile flags: /Ogtp
; File C:\Program Files (x86)\Microsoft Visual Studio\2019\Community\VC\Tools\MSVC\14.29.30133\atlmfc\include\afxwin1.inl
;	COMDAT ??1CMenu@@UAE@XZ
_TEXT	SEGMENT
__$EHRec$ = -12						; size = 12
??1CMenu@@UAE@XZ PROC					; CMenu::~CMenu, COMDAT
; _this$ = ecx

; 905  : 	{ DestroyMenu(); }

  00000	55		 push	 ebp
  00001	8b ec		 mov	 ebp, esp
  00003	6a ff		 push	 -1
  00005	68 00 00 00 00	 push	 __ehhandler$??1CMenu@@UAE@XZ
  0000a	64 a1 00 00 00
	00		 mov	 eax, DWORD PTR fs:0
  00010	50		 push	 eax
  00011	a1 00 00 00 00	 mov	 eax, DWORD PTR ___security_cookie
  00016	33 c5		 xor	 eax, ebp
  00018	50		 push	 eax
  00019	8d 45 f4	 lea	 eax, DWORD PTR __$EHRec$[ebp]
  0001c	64 a3 00 00 00
	00		 mov	 DWORD PTR fs:0, eax
  00022	c7 01 00 00 00
	00		 mov	 DWORD PTR [ecx], OFFSET ??_7CMenu@@6B@
  00028	e8 00 00 00 00	 call	 ?DestroyMenu@CMenu@@QAEHXZ ; CMenu::DestroyMenu
  0002d	8b 4d f4	 mov	 ecx, DWORD PTR __$EHRec$[ebp]
  00030	64 89 0d 00 00
	00 00		 mov	 DWORD PTR fs:0, ecx
  00037	59		 pop	 ecx
  00038	8b e5		 mov	 esp, ebp
  0003a	5d		 pop	 ebp
  0003b	c3		 ret	 0
  0003c	cc		 int	 3
  0003d	cc		 int	 3
  0003e	cc		 int	 3
  0003f	cc		 int	 3
  00040	cc		 int	 3
_TEXT	ENDS
;	COMDAT text$x
text$x	SEGMENT
__ehhandler$??1CMenu@@UAE@XZ:
  00000	90		 npad	 1
  00001	90		 npad	 1
  00002	8b 54 24 08	 mov	 edx, DWORD PTR [esp+8]
  00006	8d 42 0c	 lea	 eax, DWORD PTR [edx+12]
  00009	8b 4a fc	 mov	 ecx, DWORD PTR [edx-4]
  0000c	33 c8		 xor	 ecx, eax
  0000e	e8 00 00 00 00	 call	 @__security_check_cookie@4
  00013	b8 00 00 00 00	 mov	 eax, OFFSET __ehfuncinfo$??1CMenu@@UAE@XZ
  00018	e9 00 00 00 00	 jmp	 ___CxxFrameHandler3
text$x	ENDS
??1CMenu@@UAE@XZ ENDP					; CMenu::~CMenu
; Function compile flags: /Ogtp
; File C:\Program Files (x86)\Microsoft Visual Studio\2019\Community\VC\Tools\MSVC\14.29.30133\atlmfc\include\afx.inl
;	COMDAT ?Dump@CObject@@UBEXAAVCDumpContext@@@Z
_TEXT	SEGMENT
___formal$ = 8						; size = 4
?Dump@CObject@@UBEXAAVCDumpContext@@@Z PROC		; CObject::Dump, COMDAT
; _this$ = ecx

; 122  : 	{ /* no dumping in release builds */ }

  00000	c2 04 00	 ret	 4
?Dump@CObject@@UBEXAAVCDumpContext@@@Z ENDP		; CObject::Dump
_TEXT	ENDS
; Function compile flags: /Ogtp
; File C:\Program Files (x86)\Microsoft Visual Studio\2019\Community\VC\Tools\MSVC\14.29.30133\atlmfc\include\afx.inl
;	COMDAT ?AssertValid@CObject@@UBEXXZ
_TEXT	SEGMENT
?AssertValid@CObject@@UBEXXZ PROC			; CObject::AssertValid, COMDAT
; _this$ = ecx

; 120  : 	{ /* no asserts in release builds */ }

  00000	c2 00 00	 ret	 0
?AssertValid@CObject@@UBEXXZ ENDP			; CObject::AssertValid
_TEXT	ENDS
; Function compile flags: /Ogtp
; File C:\Program Files (x86)\Microsoft Visual Studio\2019\Community\VC\Tools\MSVC\14.29.30133\atlmfc\include\afx.inl
;	COMDAT ?Serialize@CObject@@UAEXAAVCArchive@@@Z
_TEXT	SEGMENT
___formal$ = 8						; size = 4
?Serialize@CObject@@UAEXAAVCArchive@@@Z PROC		; CObject::Serialize, COMDAT
; _this$ = ecx

; 106  : 	{ /* CObject does not serialize anything by default */ }

  00000	c2 04 00	 ret	 4
?Serialize@CObject@@UAEXAAVCArchive@@@Z ENDP		; CObject::Serialize
_TEXT	ENDS
; Function compile flags: /Ogtp
; File C:\Program Files (x86)\Microsoft Visual Studio\2019\Community\VC\Tools\MSVC\14.29.30133\atlmfc\include\afx.inl
;	COMDAT ??1CObject@@UAE@XZ
_TEXT	SEGMENT
??1CObject@@UAE@XZ PROC					; CObject::~CObject, COMDAT
; _this$ = ecx

; 104  : 	{ }

  00000	c2 00 00	 ret	 0
??1CObject@@UAE@XZ ENDP					; CObject::~CObject
_TEXT	ENDS
; Function compile flags: /Ogtp
; File D:\git\src\IBK\IBK_DRFN\ProjSrc\SrcChartEx\ChartAddIn\ChartDesignPropertyAddIn\ChartDesignPropertyAddIn\MyTreeCtrl.cpp
;	COMDAT ?__empty_global_delete@@YAXPAXI@Z
_TEXT	SEGMENT
___formal$ = 8						; size = 4
___formal$ = 12						; size = 4
?__empty_global_delete@@YAXPAXI@Z PROC			; __empty_global_delete, COMDAT

  00000	c2 00 00	 ret	 0
?__empty_global_delete@@YAXPAXI@Z ENDP			; __empty_global_delete
_TEXT	ENDS
; Function compile flags: /Ogtp
; File D:\git\src\IBK\IBK_DRFN\ProjSrc\SrcChartEx\ChartAddIn\ChartDesignPropertyAddIn\ChartDesignPropertyAddIn\MyTreeCtrl.cpp
;	COMDAT ?__empty_global_delete@@YAXPAX@Z
_TEXT	SEGMENT
___formal$ = 8						; size = 4
?__empty_global_delete@@YAXPAX@Z PROC			; __empty_global_delete, COMDAT

  00000	c2 00 00	 ret	 0
?__empty_global_delete@@YAXPAX@Z ENDP			; __empty_global_delete
_TEXT	ENDS
END
