; Listing generated by Microsoft (R) Optimizing Compiler Version 19.29.30145.0 

	TITLE	D:\git\src\IBK\IBK_DRFN\#DRfn-CS\_Obj\ChartDesignPropertyAddIn\NeoColorTable.obj
	.686P
	.XMM
	include listing.inc
	.model	flat

INCLUDELIB MSVCRT
INCLUDELIB OLDNAMES

PUBLIC	?RGB_Color_Table@@3PAKA				; RGB_Color_Table
_DATA	SEGMENT
?RGB_Color_Table@@3PAKA DD 0eeeeeeH			; RGB_Color_Table
	DD	0ddddddH
	DD	0ccccccH
	DD	0bbbbbbH
	DD	0aaaaaaH
	DD	0999999H
	DD	0888888H
	DD	0777777H
	DD	0666666H
	DD	0555555H
	DD	0444444H
	DD	0333333H
	DD	0222222H
	DD	0111111H
	DD	00H
	DD	0ffH
	DD	0eeH
	DD	0ddH
	DD	0ccH
	DD	0bbH
	DD	0aaH
	DD	099H
	DD	088H
	DD	077H
	DD	066H
	DD	055H
	DD	044H
	DD	033H
	DD	022H
	DD	011H
	DD	0ffffffH
	DD	0ccffffH
	DD	099ffffH
	DD	066ffffH
	DD	033ffffH
	DD	0ffffH
	DD	0ffffccH
	DD	0ccffccH
	DD	099ffccH
	DD	066ffccH
	DD	033ffccH
	DD	0ffccH
	DD	0ffff99H
	DD	0ccff99H
	DD	099ff99H
	DD	066ff99H
	DD	033ff99H
	DD	0ff99H
	DD	0ffff66H
	DD	0ccff66H
	DD	099ff66H
	DD	066ff66H
	DD	033ff66H
	DD	0ff66H
	DD	0ffff33H
	DD	0ccff33H
	DD	099ff33H
	DD	066ff33H
	DD	033ff33H
	DD	0ff33H
	DD	0ffff00H
	DD	0ccff00H
	DD	099ff00H
	DD	066ff00H
	DD	033ff00H
	DD	0ffccffH
	DD	0ccccffH
	DD	099ccffH
	DD	066ccffH
	DD	033ccffH
	DD	0ccffH
	DD	0ffccccH
	DD	099ccccH
	DD	066ccccH
	DD	033ccccH
	DD	0ccccH
	DD	0ffcc99H
	DD	0cccc99H
	DD	099cc99H
	DD	066cc99H
	DD	033cc99H
	DD	0cc99H
	DD	0ffcc66H
	DD	0cccc66H
	DD	099cc66H
	DD	066cc66H
	DD	033cc66H
	DD	0cc66H
	DD	0ffcc33H
	DD	0cccc33H
	DD	099cc33H
	DD	066cc33H
	DD	033cc33H
	DD	0cc33H
	DD	0ffcc00H
	DD	0cccc00H
	DD	099cc00H
	DD	066cc00H
	DD	033cc00H
	DD	0ff99ffH
	DD	0cc99ffH
	DD	09999ffH
	DD	06699ffH
	DD	03399ffH
	DD	099ffH
	DD	0ff99ccH
	DD	0cc99ccH
	DD	09999ccH
	DD	06699ccH
	DD	03399ccH
	DD	099ccH
	DD	0ff9999H
	DD	0cc9999H
	DD	0669999H
	DD	0339999H
	DD	09999H
	DD	0ff9966H
	DD	0cc9966H
	DD	0999966H
	DD	0669966H
	DD	0339966H
	DD	09966H
	DD	0ff9933H
	DD	0cc9933H
	DD	0999933H
	DD	0669933H
	DD	0339933H
	DD	09933H
	DD	0ff9900H
	DD	0cc9900H
	DD	0999900H
	DD	0669900H
	DD	0339900H
	DD	0ff66ffH
	DD	0cc66ffH
	DD	09966ffH
	DD	06666ffH
	DD	03366ffH
	DD	066ffH
	DD	0ff66ccH
	DD	0cc66ccH
	DD	09966ccH
	DD	06666ccH
	DD	03366ccH
	DD	066ccH
	DD	0ff6699H
	DD	0cc6699H
	DD	0996699H
	DD	0666699H
	DD	0336699H
	DD	06699H
	DD	0ff6666H
	DD	0cc6666H
	DD	0996666H
	DD	0336666H
	DD	06666H
	DD	0ff6633H
	DD	0cc6633H
	DD	0996633H
	DD	0666633H
	DD	0336633H
	DD	06633H
	DD	0ff6600H
	DD	0cc6600H
	DD	0996600H
	DD	0666600H
	DD	0336600H
	DD	0ff33ffH
	DD	0cc33ffH
	DD	09933ffH
	DD	06633ffH
	DD	03333ffH
	DD	033ffH
	DD	0ff33ccH
	DD	0cc33ccH
	DD	09933ccH
	DD	06633ccH
	DD	03333ccH
	DD	033ccH
	DD	0ff3399H
	DD	0cc3399H
	DD	0993399H
	DD	0663399H
	DD	0333399H
	DD	03399H
	DD	0ff3366H
	DD	0cc3366H
	DD	0993366H
	DD	0663366H
	DD	0333366H
	DD	03366H
	DD	0ff3333H
	DD	0cc3333H
	DD	0993333H
	DD	0663333H
	DD	03333H
	DD	0ff3300H
	DD	0cc3300H
	DD	0993300H
	DD	0663300H
	DD	0333300H
	DD	0ff00ffH
	DD	0cc00ffH
	DD	09900ffH
	DD	06600ffH
	DD	03300ffH
	DD	0ff00ccH
	DD	0cc00ccH
	DD	09900ccH
	DD	06600ccH
	DD	03300ccH
	DD	0ff0099H
	DD	0cc0099H
	DD	0990099H
	DD	0660099H
	DD	0330099H
	DD	0ff0066H
	DD	0cc0066H
	DD	0990066H
	DD	0660066H
	DD	0330066H
	DD	0ff0033H
	DD	0cc0033H
	DD	0990033H
	DD	0660033H
	DD	0330033H
	DD	0ff00H
	DD	0ee00H
	DD	0dd00H
	DD	0cc00H
	DD	0bb00H
	DD	0aa00H
	DD	09900H
	DD	08800H
	DD	07700H
	DD	06600H
	DD	05500H
	DD	04100H
	DD	03300H
	DD	02200H
	DD	01100H
	DD	0ff0000H
	DD	0f80000H
	DD	0dd0000H
	DD	0cc0000H
	DD	0bb0000H
	DD	0aa0000H
	DD	0990000H
	DD	0880000H
	DD	0770000H
	DD	0660000H
	DD	0550000H
	DD	0410000H
	DD	0330000H
	DD	0220000H
	DD	0b0000H
_DATA	ENDS
PUBLIC	?__empty_global_delete@@YAXPAX@Z		; __empty_global_delete
PUBLIC	?__empty_global_delete@@YAXPAXI@Z		; __empty_global_delete
PUBLIC	??0CColorTableMgr@@QAE@XZ			; CColorTableMgr::CColorTableMgr
PUBLIC	??1CColorTableMgr@@QAE@XZ			; CColorTableMgr::~CColorTableMgr
PUBLIC	?GetColor@CColorTableMgr@@SAKH@Z		; CColorTableMgr::GetColor
PUBLIC	?GetColorIndex@CColorTableMgr@@SAHK@Z		; CColorTableMgr::GetColorIndex
PUBLIC	?GetColorText@CColorTableMgr@@SA?AV?$CStringT@DV?$StrTraitMFC_DLL@DV?$ChTraitsCRT@D@ATL@@@@@ATL@@H@Z ; CColorTableMgr::GetColorText
PUBLIC	??_C@_0L@OBNONGCJ@RGB?$CI0?00?00?$CJ@		; `string'
PUBLIC	??_C@_0O@FIFPAMEK@RGB?$CI?$CFd?0?$CFd?0?$CFd?$CJ@ ; `string'
EXTRN	__imp_??0?$CStringT@DV?$StrTraitMFC_DLL@DV?$ChTraitsCRT@D@ATL@@@@@ATL@@QAE@ABV01@@Z:PROC
EXTRN	__imp_??0?$CStringT@DV?$StrTraitMFC_DLL@DV?$ChTraitsCRT@D@ATL@@@@@ATL@@QAE@PBD@Z:PROC
EXTRN	__imp_??1?$CStringT@DV?$StrTraitMFC_DLL@DV?$ChTraitsCRT@D@ATL@@@@@ATL@@QAE@XZ:PROC
EXTRN	__imp_?Format@?$CStringT@DV?$StrTraitMFC_DLL@DV?$ChTraitsCRT@D@ATL@@@@@ATL@@QAAXPBDZZ:PROC
EXTRN	@__security_check_cookie@4:PROC
EXTRN	___CxxFrameHandler3:PROC
EXTRN	___security_cookie:DWORD
;	COMDAT ??_C@_0O@FIFPAMEK@RGB?$CI?$CFd?0?$CFd?0?$CFd?$CJ@
CONST	SEGMENT
??_C@_0O@FIFPAMEK@RGB?$CI?$CFd?0?$CFd?0?$CFd?$CJ@ DB 'RGB(%d,%d,%d)', 00H ; `string'
CONST	ENDS
;	COMDAT ??_C@_0L@OBNONGCJ@RGB?$CI0?00?00?$CJ@
CONST	SEGMENT
??_C@_0L@OBNONGCJ@RGB?$CI0?00?00?$CJ@ DB 'RGB(0,0,0)', 00H ; `string'
CONST	ENDS
;	COMDAT xdata$x
xdata$x	SEGMENT
__unwindtable$?GetColorText@CColorTableMgr@@SA?AV?$CStringT@DV?$StrTraitMFC_DLL@DV?$ChTraitsCRT@D@ATL@@@@@ATL@@H@Z DD 0ffffffffH
	DD	FLAT:__unwindfunclet$?GetColorText@CColorTableMgr@@SA?AV?$CStringT@DV?$StrTraitMFC_DLL@DV?$ChTraitsCRT@D@ATL@@@@@ATL@@H@Z$0
__ehfuncinfo$?GetColorText@CColorTableMgr@@SA?AV?$CStringT@DV?$StrTraitMFC_DLL@DV?$ChTraitsCRT@D@ATL@@@@@ATL@@H@Z DD 019930522H
	DD	01H
	DD	FLAT:__unwindtable$?GetColorText@CColorTableMgr@@SA?AV?$CStringT@DV?$StrTraitMFC_DLL@DV?$ChTraitsCRT@D@ATL@@@@@ATL@@H@Z
	DD	2 DUP(00H)
	DD	2 DUP(00H)
	DD	00H
	DD	01H
xdata$x	ENDS
; Function compile flags: /Ogtp
; File D:\git\src\IBK\IBK_DRFN\ProjSrc\SrcChartEx\ChartAddIn\ChartDesignPropertyAddIn\ChartDesignPropertyAddIn\NeoColorTable.cpp
;	COMDAT ?GetColorText@CColorTableMgr@@SA?AV?$CStringT@DV?$StrTraitMFC_DLL@DV?$ChTraitsCRT@D@ATL@@@@@ATL@@H@Z
_TEXT	SEGMENT
_szReturn$ = -16					; size = 4
__$EHRec$ = -12						; size = 12
___$ReturnUdt$ = 8					; size = 4
_nIndex$ = 12						; size = 4
?GetColorText@CColorTableMgr@@SA?AV?$CStringT@DV?$StrTraitMFC_DLL@DV?$ChTraitsCRT@D@ATL@@@@@ATL@@H@Z PROC ; CColorTableMgr::GetColorText, COMDAT

; 110  : {

  00000	55		 push	 ebp
  00001	8b ec		 mov	 ebp, esp
  00003	6a ff		 push	 -1
  00005	68 00 00 00 00	 push	 __ehhandler$?GetColorText@CColorTableMgr@@SA?AV?$CStringT@DV?$StrTraitMFC_DLL@DV?$ChTraitsCRT@D@ATL@@@@@ATL@@H@Z
  0000a	64 a1 00 00 00
	00		 mov	 eax, DWORD PTR fs:0
  00010	50		 push	 eax
  00011	51		 push	 ecx
  00012	56		 push	 esi
  00013	a1 00 00 00 00	 mov	 eax, DWORD PTR ___security_cookie
  00018	33 c5		 xor	 eax, ebp
  0001a	50		 push	 eax
  0001b	8d 45 f4	 lea	 eax, DWORD PTR __$EHRec$[ebp]
  0001e	64 a3 00 00 00
	00		 mov	 DWORD PTR fs:0, eax

; 111  : 	CString szReturn("RGB(0,0,0)");

  00024	68 00 00 00 00	 push	 OFFSET ??_C@_0L@OBNONGCJ@RGB?$CI0?00?00?$CJ@
  00029	8d 4d f0	 lea	 ecx, DWORD PTR _szReturn$[ebp]
  0002c	ff 15 00 00 00
	00		 call	 DWORD PTR __imp_??0?$CStringT@DV?$StrTraitMFC_DLL@DV?$ChTraitsCRT@D@ATL@@@@@ATL@@QAE@PBD@Z

; 112  : 	if(nIndex >= 255 || nIndex <0) return szReturn;

  00032	8b 4d 0c	 mov	 ecx, DWORD PTR _nIndex$[ebp]
  00035	c7 45 fc 00 00
	00 00		 mov	 DWORD PTR __$EHRec$[ebp+8], 0
  0003c	81 f9 fe 00 00
	00		 cmp	 ecx, 254		; 000000feH
  00042	77 2d		 ja	 SHORT $LN3@GetColorTe

; 113  : 
; 114  : 	COLORREF color = RGB_Color_Table[nIndex];

  00044	8b 0c 8d 00 00
	00 00		 mov	 ecx, DWORD PTR ?RGB_Color_Table@@3PAKA[ecx*4]

; 115  : 	szReturn.Format("RGB(%d,%d,%d)",GetRValue(color),GetGValue(color), GetBValue(color));

  0004b	8b c1		 mov	 eax, ecx
  0004d	c1 e8 10	 shr	 eax, 16			; 00000010H
  00050	0f b6 c0	 movzx	 eax, al
  00053	50		 push	 eax
  00054	0f b7 c1	 movzx	 eax, cx
  00057	c1 e8 08	 shr	 eax, 8
  0005a	50		 push	 eax
  0005b	0f b6 c1	 movzx	 eax, cl
  0005e	50		 push	 eax
  0005f	8d 45 f0	 lea	 eax, DWORD PTR _szReturn$[ebp]
  00062	68 00 00 00 00	 push	 OFFSET ??_C@_0O@FIFPAMEK@RGB?$CI?$CFd?0?$CFd?0?$CFd?$CJ@
  00067	50		 push	 eax
  00068	ff 15 00 00 00
	00		 call	 DWORD PTR __imp_?Format@?$CStringT@DV?$StrTraitMFC_DLL@DV?$ChTraitsCRT@D@ATL@@@@@ATL@@QAAXPBDZZ
  0006e	83 c4 14	 add	 esp, 20			; 00000014H
$LN3@GetColorTe:

; 116  : 	return szReturn;
; 117  : }

  00071	8b 4d 08	 mov	 ecx, DWORD PTR ___$ReturnUdt$[ebp]
  00074	8d 45 f0	 lea	 eax, DWORD PTR _szReturn$[ebp]
  00077	50		 push	 eax
  00078	ff 15 00 00 00
	00		 call	 DWORD PTR __imp_??0?$CStringT@DV?$StrTraitMFC_DLL@DV?$ChTraitsCRT@D@ATL@@@@@ATL@@QAE@ABV01@@Z
  0007e	8d 4d f0	 lea	 ecx, DWORD PTR _szReturn$[ebp]
  00081	ff 15 00 00 00
	00		 call	 DWORD PTR __imp_??1?$CStringT@DV?$StrTraitMFC_DLL@DV?$ChTraitsCRT@D@ATL@@@@@ATL@@QAE@XZ
  00087	8b 45 08	 mov	 eax, DWORD PTR ___$ReturnUdt$[ebp]
  0008a	8b 4d f4	 mov	 ecx, DWORD PTR __$EHRec$[ebp]
  0008d	64 89 0d 00 00
	00 00		 mov	 DWORD PTR fs:0, ecx
  00094	59		 pop	 ecx
  00095	5e		 pop	 esi
  00096	8b e5		 mov	 esp, ebp
  00098	5d		 pop	 ebp
  00099	c3		 ret	 0
_TEXT	ENDS
;	COMDAT text$x
text$x	SEGMENT
__unwindfunclet$?GetColorText@CColorTableMgr@@SA?AV?$CStringT@DV?$StrTraitMFC_DLL@DV?$ChTraitsCRT@D@ATL@@@@@ATL@@H@Z$0:
  00000	8d 4d f0	 lea	 ecx, DWORD PTR _szReturn$[ebp]
  00003	ff 25 00 00 00
	00		 jmp	 DWORD PTR __imp_??1?$CStringT@DV?$StrTraitMFC_DLL@DV?$ChTraitsCRT@D@ATL@@@@@ATL@@QAE@XZ
  00009	cc		 int	 3
  0000a	cc		 int	 3
  0000b	cc		 int	 3
  0000c	cc		 int	 3
  0000d	cc		 int	 3
__ehhandler$?GetColorText@CColorTableMgr@@SA?AV?$CStringT@DV?$StrTraitMFC_DLL@DV?$ChTraitsCRT@D@ATL@@@@@ATL@@H@Z:
  0000e	90		 npad	 1
  0000f	90		 npad	 1
  00010	8b 54 24 08	 mov	 edx, DWORD PTR [esp+8]
  00014	8d 42 0c	 lea	 eax, DWORD PTR [edx+12]
  00017	8b 4a f4	 mov	 ecx, DWORD PTR [edx-12]
  0001a	33 c8		 xor	 ecx, eax
  0001c	e8 00 00 00 00	 call	 @__security_check_cookie@4
  00021	b8 00 00 00 00	 mov	 eax, OFFSET __ehfuncinfo$?GetColorText@CColorTableMgr@@SA?AV?$CStringT@DV?$StrTraitMFC_DLL@DV?$ChTraitsCRT@D@ATL@@@@@ATL@@H@Z
  00026	e9 00 00 00 00	 jmp	 ___CxxFrameHandler3
text$x	ENDS
?GetColorText@CColorTableMgr@@SA?AV?$CStringT@DV?$StrTraitMFC_DLL@DV?$ChTraitsCRT@D@ATL@@@@@ATL@@H@Z ENDP ; CColorTableMgr::GetColorText
; Function compile flags: /Ogtp
; File D:\git\src\IBK\IBK_DRFN\ProjSrc\SrcChartEx\ChartAddIn\ChartDesignPropertyAddIn\ChartDesignPropertyAddIn\NeoColorTable.cpp
;	COMDAT ?GetColorIndex@CColorTableMgr@@SAHK@Z
_TEXT	SEGMENT
_color$ = 8						; size = 4
?GetColorIndex@CColorTableMgr@@SAHK@Z PROC		; CColorTableMgr::GetColorIndex, COMDAT

; 101  : {

  00000	55		 push	 ebp
  00001	8b ec		 mov	 ebp, esp

; 102  : 	for(int i = 0;i<256;i++)

  00003	8b 4d 08	 mov	 ecx, DWORD PTR _color$[ebp]
  00006	33 c0		 xor	 eax, eax
  00008	0f 1f 84 00 00
	00 00 00	 npad	 8
$LL4@GetColorIn:

; 103  : 	{
; 104  : 		if(color == RGB_Color_Table[i]) return i;

  00010	3b 0c 85 00 00
	00 00		 cmp	 ecx, DWORD PTR ?RGB_Color_Table@@3PAKA[eax*4]
  00017	74 0b		 je	 SHORT $LN1@GetColorIn

; 102  : 	for(int i = 0;i<256;i++)

  00019	40		 inc	 eax
  0001a	3d 00 01 00 00	 cmp	 eax, 256		; 00000100H
  0001f	7c ef		 jl	 SHORT $LL4@GetColorIn

; 105  : 	}
; 106  : 	return -1;

  00021	83 c8 ff	 or	 eax, -1
$LN1@GetColorIn:

; 107  : }

  00024	5d		 pop	 ebp
  00025	c3		 ret	 0
?GetColorIndex@CColorTableMgr@@SAHK@Z ENDP		; CColorTableMgr::GetColorIndex
_TEXT	ENDS
; Function compile flags: /Ogtp
; File D:\git\src\IBK\IBK_DRFN\ProjSrc\SrcChartEx\ChartAddIn\ChartDesignPropertyAddIn\ChartDesignPropertyAddIn\NeoColorTable.cpp
;	COMDAT ?GetColor@CColorTableMgr@@SAKH@Z
_TEXT	SEGMENT
_nIndex$ = 8						; size = 4
?GetColor@CColorTableMgr@@SAKH@Z PROC			; CColorTableMgr::GetColor, COMDAT

; 95   : {

  00000	55		 push	 ebp
  00001	8b ec		 mov	 ebp, esp

; 96   : 	if(nIndex >=255 || nIndex <0) return RGB(0,0,0);

  00003	8b 45 08	 mov	 eax, DWORD PTR _nIndex$[ebp]
  00006	3d fe 00 00 00	 cmp	 eax, 254		; 000000feH
  0000b	77 09		 ja	 SHORT $LN3@GetColor

; 97   : 		return RGB_Color_Table[nIndex];

  0000d	8b 04 85 00 00
	00 00		 mov	 eax, DWORD PTR ?RGB_Color_Table@@3PAKA[eax*4]

; 98   : }

  00014	5d		 pop	 ebp
  00015	c3		 ret	 0
$LN3@GetColor:

; 96   : 	if(nIndex >=255 || nIndex <0) return RGB(0,0,0);

  00016	33 c0		 xor	 eax, eax

; 98   : }

  00018	5d		 pop	 ebp
  00019	c3		 ret	 0
?GetColor@CColorTableMgr@@SAKH@Z ENDP			; CColorTableMgr::GetColor
_TEXT	ENDS
; Function compile flags: /Ogtp
; File D:\git\src\IBK\IBK_DRFN\ProjSrc\SrcChartEx\ChartAddIn\ChartDesignPropertyAddIn\ChartDesignPropertyAddIn\NeoColorTable.cpp
;	COMDAT ??1CColorTableMgr@@QAE@XZ
_TEXT	SEGMENT
??1CColorTableMgr@@QAE@XZ PROC				; CColorTableMgr::~CColorTableMgr, COMDAT
; _this$ = ecx

; 90   : }

  00000	c2 00 00	 ret	 0
??1CColorTableMgr@@QAE@XZ ENDP				; CColorTableMgr::~CColorTableMgr
_TEXT	ENDS
; Function compile flags: /Ogtp
; File D:\git\src\IBK\IBK_DRFN\ProjSrc\SrcChartEx\ChartAddIn\ChartDesignPropertyAddIn\ChartDesignPropertyAddIn\NeoColorTable.cpp
;	COMDAT ??0CColorTableMgr@@QAE@XZ
_TEXT	SEGMENT
??0CColorTableMgr@@QAE@XZ PROC				; CColorTableMgr::CColorTableMgr, COMDAT
; _this$ = ecx

; 86   : }

  00000	8b c1		 mov	 eax, ecx
  00002	c3		 ret	 0
??0CColorTableMgr@@QAE@XZ ENDP				; CColorTableMgr::CColorTableMgr
_TEXT	ENDS
; Function compile flags: /Ogtp
; File D:\git\src\IBK\IBK_DRFN\ProjSrc\SrcChartEx\ChartAddIn\ChartDesignPropertyAddIn\ChartDesignPropertyAddIn\NeoColorTable.cpp
;	COMDAT ?__empty_global_delete@@YAXPAXI@Z
_TEXT	SEGMENT
___formal$ = 8						; size = 4
___formal$ = 12						; size = 4
?__empty_global_delete@@YAXPAXI@Z PROC			; __empty_global_delete, COMDAT

  00000	c2 00 00	 ret	 0
?__empty_global_delete@@YAXPAXI@Z ENDP			; __empty_global_delete
_TEXT	ENDS
; Function compile flags: /Ogtp
; File D:\git\src\IBK\IBK_DRFN\ProjSrc\SrcChartEx\ChartAddIn\ChartDesignPropertyAddIn\ChartDesignPropertyAddIn\NeoColorTable.cpp
;	COMDAT ?__empty_global_delete@@YAXPAX@Z
_TEXT	SEGMENT
___formal$ = 8						; size = 4
?__empty_global_delete@@YAXPAX@Z PROC			; __empty_global_delete, COMDAT

  00000	c2 00 00	 ret	 0
?__empty_global_delete@@YAXPAX@Z ENDP			; __empty_global_delete
_TEXT	ENDS
END
