; Listing generated by Microsoft (R) Optimizing Compiler Version 19.29.30145.0 

	TITLE	D:\git\src\IBK\IBK_DRFN\#DRfn-CS\_Obj\ChartDesignPropertyAddIn\NumericalInquiryOptionDlg.obj
	.686P
	.XMM
	include listing.inc
	.model	flat

INCLUDELIB MSVCRT
INCLUDELIB OLDNAMES

PUBLIC	?__empty_global_delete@@YAXPAX@Z		; __empty_global_delete
PUBLIC	?__empty_global_delete@@YAXPAXI@Z		; __empty_global_delete
PUBLIC	?Serialize@CObject@@UAEXAAVCArchive@@@Z		; CObject::Serialize
PUBLIC	?AssertValid@CObject@@UBEXXZ			; CObject::AssertValid
PUBLIC	?Dump@CObject@@UBEXAAVCDumpContext@@@Z		; CObject::Dump
PUBLIC	?DoDataExchange@CWnd@@MAEXPAVCDataExchange@@@Z	; CWnd::DoDataExchange
PUBLIC	?BeginModalState@CWnd@@UAEXXZ			; CWnd::BeginModalState
PUBLIC	?EndModalState@CWnd@@UAEXXZ			; CWnd::EndModalState
PUBLIC	?Create@CDialog@@UAEHIPAVCWnd@@@Z		; CDialog::Create
PUBLIC	??0CNumericalInquiryOptionDlg@@QAE@PAVCWnd@@@Z	; CNumericalInquiryOptionDlg::CNumericalInquiryOptionDlg
PUBLIC	?DoDataExchange@CNumericalInquiryOptionDlg@@MAEXPAVCDataExchange@@@Z ; CNumericalInquiryOptionDlg::DoDataExchange
PUBLIC	?OnOK@CNumericalInquiryOptionDlg@@MAEXXZ	; CNumericalInquiryOptionDlg::OnOK
PUBLIC	?OnCancel@CNumericalInquiryOptionDlg@@MAEXXZ	; CNumericalInquiryOptionDlg::OnCancel
PUBLIC	?OnShowWindow@CNumericalInquiryOptionDlg@@IAEXHI@Z ; CNumericalInquiryOptionDlg::OnShowWindow
PUBLIC	?OnCheckTooltip@CNumericalInquiryOptionDlg@@IAEXXZ ; CNumericalInquiryOptionDlg::OnCheckTooltip
PUBLIC	?OnCheckCrosslineview@CNumericalInquiryOptionDlg@@IAEXXZ ; CNumericalInquiryOptionDlg::OnCheckCrosslineview
PUBLIC	?OnRdoNumericalinquiry@CNumericalInquiryOptionDlg@@IAEXXZ ; CNumericalInquiryOptionDlg::OnRdoNumericalinquiry
PUBLIC	?OnRdoDragzoom@CNumericalInquiryOptionDlg@@IAEXXZ ; CNumericalInquiryOptionDlg::OnRdoDragzoom
PUBLIC	?GetThisMessageMap@CNumericalInquiryOptionDlg@@KGPBUAFX_MSGMAP@@XZ ; CNumericalInquiryOptionDlg::GetThisMessageMap
PUBLIC	?GetMessageMap@CNumericalInquiryOptionDlg@@MBEPBUAFX_MSGMAP@@XZ ; CNumericalInquiryOptionDlg::GetMessageMap
PUBLIC	?GetNumericalInquiryOption@CNumericalInquiryOptionDlg@@QAEHXZ ; CNumericalInquiryOptionDlg::GetNumericalInquiryOption
PUBLIC	?AddNumericalInquiryOption@CNumericalInquiryOptionDlg@@QAEXH@Z ; CNumericalInquiryOptionDlg::AddNumericalInquiryOption
PUBLIC	?SubNumericalInquiryOption@CNumericalInquiryOptionDlg@@QAEXH@Z ; CNumericalInquiryOptionDlg::SubNumericalInquiryOption
PUBLIC	??_GCNumericalInquiryOptionDlg@@UAEPAXI@Z	; CNumericalInquiryOptionDlg::`scalar deleting destructor'
PUBLIC	??_R0?AVCObject@@@8				; CObject `RTTI Type Descriptor'
PUBLIC	??_R3CObject@@8					; CObject::`RTTI Class Hierarchy Descriptor'
PUBLIC	??_R2CObject@@8					; CObject::`RTTI Base Class Array'
PUBLIC	??_R1A@?0A@EA@CObject@@8			; CObject::`RTTI Base Class Descriptor at (0,-1,0,64)'
PUBLIC	??_R1A@?0A@EA@CWnd@@8				; CWnd::`RTTI Base Class Descriptor at (0,-1,0,64)'
PUBLIC	??_R0?AVCWnd@@@8				; CWnd `RTTI Type Descriptor'
PUBLIC	??_R3CWnd@@8					; CWnd::`RTTI Class Hierarchy Descriptor'
PUBLIC	??_R2CWnd@@8					; CWnd::`RTTI Base Class Array'
PUBLIC	??_R1A@?0A@EA@CCmdTarget@@8			; CCmdTarget::`RTTI Base Class Descriptor at (0,-1,0,64)'
PUBLIC	??_R0?AVCCmdTarget@@@8				; CCmdTarget `RTTI Type Descriptor'
PUBLIC	??_R3CCmdTarget@@8				; CCmdTarget::`RTTI Class Hierarchy Descriptor'
PUBLIC	??_R2CCmdTarget@@8				; CCmdTarget::`RTTI Base Class Array'
PUBLIC	??_R1A@?0A@EA@CDialog@@8			; CDialog::`RTTI Base Class Descriptor at (0,-1,0,64)'
PUBLIC	??_R0?AVCDialog@@@8				; CDialog `RTTI Type Descriptor'
PUBLIC	??_R3CDialog@@8					; CDialog::`RTTI Class Hierarchy Descriptor'
PUBLIC	??_R2CDialog@@8					; CDialog::`RTTI Base Class Array'
PUBLIC	??_7CNumericalInquiryOptionDlg@@6B@		; CNumericalInquiryOptionDlg::`vftable'
PUBLIC	??_R4CNumericalInquiryOptionDlg@@6B@		; CNumericalInquiryOptionDlg::`RTTI Complete Object Locator'
PUBLIC	??_R0?AVCNumericalInquiryOptionDlg@@@8		; CNumericalInquiryOptionDlg `RTTI Type Descriptor'
PUBLIC	??_R3CNumericalInquiryOptionDlg@@8		; CNumericalInquiryOptionDlg::`RTTI Class Hierarchy Descriptor'
PUBLIC	??_R2CNumericalInquiryOptionDlg@@8		; CNumericalInquiryOptionDlg::`RTTI Base Class Array'
PUBLIC	??_R1A@?0A@EA@CNumericalInquiryOptionDlg@@8	; CNumericalInquiryOptionDlg::`RTTI Base Class Descriptor at (0,-1,0,64)'
EXTRN	??3@YAXPAX@Z:PROC				; operator delete
EXTRN	?__global_delete@@YAXPAXI@Z:PROC		; __global_delete
EXTRN	__imp__SendMessageA@16:PROC
EXTRN	__imp__EnableWindow@8:PROC
EXTRN	?IsInvokeAllowed@CCmdTarget@@UAEHJ@Z:PROC	; CCmdTarget::IsInvokeAllowed
EXTRN	?GetDispatchIID@CCmdTarget@@UAEHPAU_GUID@@@Z:PROC ; CCmdTarget::GetDispatchIID
EXTRN	?GetTypeInfoCount@CCmdTarget@@UAEIXZ:PROC	; CCmdTarget::GetTypeInfoCount
EXTRN	?GetTypeLibCache@CCmdTarget@@UAEPAVCTypeLibCache@@XZ:PROC ; CCmdTarget::GetTypeLibCache
EXTRN	?GetTypeLib@CCmdTarget@@UAEJKPAPAUITypeLib@@@Z:PROC ; CCmdTarget::GetTypeLib
EXTRN	?GetCommandMap@CCmdTarget@@MBEPBUAFX_OLECMDMAP@@XZ:PROC ; CCmdTarget::GetCommandMap
EXTRN	?GetDispatchMap@CCmdTarget@@MBEPBUAFX_DISPMAP@@XZ:PROC ; CCmdTarget::GetDispatchMap
EXTRN	?GetConnectionMap@CCmdTarget@@MBEPBUAFX_CONNECTIONMAP@@XZ:PROC ; CCmdTarget::GetConnectionMap
EXTRN	?GetEventSinkMap@CCmdTarget@@MBEPBUAFX_EVENTSINKMAP@@XZ:PROC ; CCmdTarget::GetEventSinkMap
EXTRN	?OnCreateAggregates@CCmdTarget@@UAEHXZ:PROC	; CCmdTarget::OnCreateAggregates
EXTRN	?GetInterfaceHook@CCmdTarget@@UAEPAUIUnknown@@PBX@Z:PROC ; CCmdTarget::GetInterfaceHook
EXTRN	?GetExtraConnectionPoints@CCmdTarget@@MAEHPAVCPtrArray@@@Z:PROC ; CCmdTarget::GetExtraConnectionPoints
EXTRN	?GetConnectionHook@CCmdTarget@@MAEPAUIConnectionPoint@@ABU_GUID@@@Z:PROC ; CCmdTarget::GetConnectionHook
EXTRN	?PreSubclassWindow@CWnd@@UAEXXZ:PROC		; CWnd::PreSubclassWindow
EXTRN	?Create@CWnd@@UAEHPBD0KABUtagRECT@@PAV1@IPAUCCreateContext@@@Z:PROC ; CWnd::Create
EXTRN	?CreateEx@CWnd@@UAEHKPBD0KHHHHPAUHWND__@@PAUHMENU__@@PAX@Z:PROC ; CWnd::CreateEx
EXTRN	?CreateEx@CWnd@@UAEHKPBD0KABUtagRECT@@PAV1@IPAX@Z:PROC ; CWnd::CreateEx
EXTRN	?DestroyWindow@CWnd@@UAEHXZ:PROC		; CWnd::DestroyWindow
EXTRN	?PreCreateWindow@CWnd@@UAEHAAUtagCREATESTRUCTA@@@Z:PROC ; CWnd::PreCreateWindow
EXTRN	?CalcWindowRect@CWnd@@UAEXPAUtagRECT@@I@Z:PROC	; CWnd::CalcWindowRect
EXTRN	?GetDlgItem@CWnd@@QBEPAV1@H@Z:PROC		; CWnd::GetDlgItem
EXTRN	?GetMenu@CWnd@@UBEPAVCMenu@@XZ:PROC		; CWnd::GetMenu
EXTRN	?SetMenu@CWnd@@UAEHPAVCMenu@@@Z:PROC		; CWnd::SetMenu
EXTRN	?OnToolHitTest@CWnd@@UBEHVCPoint@@PAUtagTOOLINFOA@@@Z:PROC ; CWnd::OnToolHitTest
EXTRN	?EnableWindow@CWnd@@QAEHH@Z:PROC		; CWnd::EnableWindow
EXTRN	?GetScrollBarCtrl@CWnd@@UBEPAVCScrollBar@@H@Z:PROC ; CWnd::GetScrollBarCtrl
EXTRN	?WinHelpA@CWnd@@UAEXKI@Z:PROC			; CWnd::WinHelpA
EXTRN	?HtmlHelpA@CWnd@@UAEXKI@Z:PROC			; CWnd::HtmlHelpA
EXTRN	?WinHelpInternal@CWnd@@UAEXKI@Z:PROC		; CWnd::WinHelpInternal
EXTRN	?ContinueModal@CWnd@@UAEHXZ:PROC		; CWnd::ContinueModal
EXTRN	?EndModalLoop@CWnd@@UAEXH@Z:PROC		; CWnd::EndModalLoop
EXTRN	?OnDrawIconicThumbnailOrLivePreview@CWnd@@UAEXAAVCDC@@VCRect@@VCSize@@HAAH@Z:PROC ; CWnd::OnDrawIconicThumbnailOrLivePreview
EXTRN	?GetInterfaceMap@CWnd@@MBEPBUAFX_INTERFACEMAP@@XZ:PROC ; CWnd::GetInterfaceMap
EXTRN	?EnsureStdObj@CWnd@@UAEJXZ:PROC			; CWnd::EnsureStdObj
EXTRN	?get_accParent@CWnd@@UAEJPAPAUIDispatch@@@Z:PROC ; CWnd::get_accParent
EXTRN	?get_accChildCount@CWnd@@UAEJPAJ@Z:PROC		; CWnd::get_accChildCount
EXTRN	?get_accChild@CWnd@@UAEJUtagVARIANT@@PAPAUIDispatch@@@Z:PROC ; CWnd::get_accChild
EXTRN	?get_accName@CWnd@@UAEJUtagVARIANT@@PAPA_W@Z:PROC ; CWnd::get_accName
EXTRN	?get_accValue@CWnd@@UAEJUtagVARIANT@@PAPA_W@Z:PROC ; CWnd::get_accValue
EXTRN	?get_accDescription@CWnd@@UAEJUtagVARIANT@@PAPA_W@Z:PROC ; CWnd::get_accDescription
EXTRN	?get_accRole@CWnd@@UAEJUtagVARIANT@@PAU2@@Z:PROC ; CWnd::get_accRole
EXTRN	?get_accState@CWnd@@UAEJUtagVARIANT@@PAU2@@Z:PROC ; CWnd::get_accState
EXTRN	?get_accHelp@CWnd@@UAEJUtagVARIANT@@PAPA_W@Z:PROC ; CWnd::get_accHelp
EXTRN	?get_accHelpTopic@CWnd@@UAEJPAPA_WUtagVARIANT@@PAJ@Z:PROC ; CWnd::get_accHelpTopic
EXTRN	?get_accKeyboardShortcut@CWnd@@UAEJUtagVARIANT@@PAPA_W@Z:PROC ; CWnd::get_accKeyboardShortcut
EXTRN	?get_accFocus@CWnd@@UAEJPAUtagVARIANT@@@Z:PROC	; CWnd::get_accFocus
EXTRN	?get_accSelection@CWnd@@UAEJPAUtagVARIANT@@@Z:PROC ; CWnd::get_accSelection
EXTRN	?get_accDefaultAction@CWnd@@UAEJUtagVARIANT@@PAPA_W@Z:PROC ; CWnd::get_accDefaultAction
EXTRN	?accSelect@CWnd@@UAEJJUtagVARIANT@@@Z:PROC	; CWnd::accSelect
EXTRN	?accLocation@CWnd@@UAEJPAJ000UtagVARIANT@@@Z:PROC ; CWnd::accLocation
EXTRN	?accNavigate@CWnd@@UAEJJUtagVARIANT@@PAU2@@Z:PROC ; CWnd::accNavigate
EXTRN	?accHitTest@CWnd@@UAEJJJPAUtagVARIANT@@@Z:PROC	; CWnd::accHitTest
EXTRN	?accDoDefaultAction@CWnd@@UAEJUtagVARIANT@@@Z:PROC ; CWnd::accDoDefaultAction
EXTRN	?put_accName@CWnd@@UAEJUtagVARIANT@@PA_W@Z:PROC	; CWnd::put_accName
EXTRN	?put_accValue@CWnd@@UAEJUtagVARIANT@@PA_W@Z:PROC ; CWnd::put_accValue
EXTRN	?SetProxy@CWnd@@UAEJPAUIAccessibleProxy@@@Z:PROC ; CWnd::SetProxy
EXTRN	?CreateAccessibleProxy@CWnd@@UAEJIJPAJ@Z:PROC	; CWnd::CreateAccessibleProxy
EXTRN	?OnCommand@CWnd@@MAEHIJ@Z:PROC			; CWnd::OnCommand
EXTRN	?OnNotify@CWnd@@MAEHIJPAJ@Z:PROC		; CWnd::OnNotify
EXTRN	?GetSuperWndProcAddr@CWnd@@MAEPAP6GJPAUHWND__@@IIJ@ZXZ:PROC ; CWnd::GetSuperWndProcAddr
EXTRN	?OnAmbientProperty@CWnd@@UAEHPAVCOleControlSite@@JPAUtagVARIANT@@@Z:PROC ; CWnd::OnAmbientProperty
EXTRN	?WindowProc@CWnd@@MAEJIIJ@Z:PROC		; CWnd::WindowProc
EXTRN	?OnWndMsg@CWnd@@MAEHIIJPAJ@Z:PROC		; CWnd::OnWndMsg
EXTRN	?Default@CWnd@@IAEJXZ:PROC			; CWnd::Default
EXTRN	?DefWindowProcA@CWnd@@MAEJIIJ@Z:PROC		; CWnd::DefWindowProcA
EXTRN	?PostNcDestroy@CWnd@@MAEXXZ:PROC		; CWnd::PostNcDestroy
EXTRN	?OnChildNotify@CWnd@@MAEHIIJPAJ@Z:PROC		; CWnd::OnChildNotify
EXTRN	?OnTouchInputs@CWnd@@MAEHIPAUtagTOUCHINPUT@@@Z:PROC ; CWnd::OnTouchInputs
EXTRN	?OnTouchInput@CWnd@@MAEHVCPoint@@HHPAUtagTOUCHINPUT@@@Z:PROC ; CWnd::OnTouchInput
EXTRN	?GetGestureStatus@CWnd@@MAEKVCPoint@@@Z:PROC	; CWnd::GetGestureStatus
EXTRN	?OnGestureZoom@CWnd@@MAEHVCPoint@@J@Z:PROC	; CWnd::OnGestureZoom
EXTRN	?OnGesturePan@CWnd@@MAEHVCPoint@@0@Z:PROC	; CWnd::OnGesturePan
EXTRN	?OnGestureRotate@CWnd@@MAEHVCPoint@@N@Z:PROC	; CWnd::OnGestureRotate
EXTRN	?OnGestureTwoFingerTap@CWnd@@MAEHVCPoint@@@Z:PROC ; CWnd::OnGestureTwoFingerTap
EXTRN	?OnGesturePressAndTap@CWnd@@MAEHVCPoint@@J@Z:PROC ; CWnd::OnGesturePressAndTap
EXTRN	?ResizeDynamicLayout@CWnd@@MAEXXZ:PROC		; CWnd::ResizeDynamicLayout
EXTRN	?IsFrameWnd@CWnd@@UBEHXZ:PROC			; CWnd::IsFrameWnd
EXTRN	?OnFinalRelease@CWnd@@UAEXXZ:PROC		; CWnd::OnFinalRelease
EXTRN	?CreateControlContainer@CWnd@@MAEHPAPAVCOleControlContainer@@@Z:PROC ; CWnd::CreateControlContainer
EXTRN	?CreateControlSite@CWnd@@MAEHPAVCOleControlContainer@@PAPAVCOleControlSite@@IABU_GUID@@@Z:PROC ; CWnd::CreateControlSite
EXTRN	?GetRuntimeClass@CDialog@@UBEPAUCRuntimeClass@@XZ:PROC ; CDialog::GetRuntimeClass
EXTRN	?Create@CDialog@@UAEHPBDPAVCWnd@@@Z:PROC	; CDialog::Create
EXTRN	?CreateIndirect@CDialog@@UAEHPBUDLGTEMPLATE@@PAVCWnd@@PAX@Z:PROC ; CDialog::CreateIndirect
EXTRN	?CreateIndirect@CDialog@@UAEHPAXPAVCWnd@@@Z:PROC ; CDialog::CreateIndirect
EXTRN	??0CDialog@@QAE@IPAVCWnd@@@Z:PROC		; CDialog::CDialog
EXTRN	?DoModal@CDialog@@UAEHXZ:PROC			; CDialog::DoModal
EXTRN	?OnInitDialog@CDialog@@UAEHXZ:PROC		; CDialog::OnInitDialog
EXTRN	?OnSetFont@CDialog@@UAEXPAVCFont@@@Z:PROC	; CDialog::OnSetFont
EXTRN	??1CDialog@@UAE@XZ:PROC				; CDialog::~CDialog
EXTRN	?PreTranslateMessage@CDialog@@UAEHPAUtagMSG@@@Z:PROC ; CDialog::PreTranslateMessage
EXTRN	?OnCmdMsg@CDialog@@UAEHIHPAXPAUAFX_CMDHANDLERINFO@@@Z:PROC ; CDialog::OnCmdMsg
EXTRN	?CheckAutoCenter@CDialog@@UAEHXZ:PROC		; CDialog::CheckAutoCenter
EXTRN	?SetOccDialogInfo@CDialog@@MAEHPAU_AFX_OCC_DIALOG_INFO@@@Z:PROC ; CDialog::SetOccDialogInfo
EXTRN	?GetOccDialogInfo@CDialog@@MAEPAU_AFX_OCC_DIALOG_INFO@@XZ:PROC ; CDialog::GetOccDialogInfo
EXTRN	?PreInitDialog@CDialog@@MAEXXZ:PROC		; CDialog::PreInitDialog
EXTRN	?GetThisMessageMap@CDialog@@KGPBUAFX_MSGMAP@@XZ:PROC ; CDialog::GetThisMessageMap
EXTRN	??_ECNumericalInquiryOptionDlg@@UAEPAXI@Z:PROC	; CNumericalInquiryOptionDlg::`vector deleting destructor'
EXTRN	??_7type_info@@6B@:QWORD			; type_info::`vftable'
;	COMDAT ??_R1A@?0A@EA@CNumericalInquiryOptionDlg@@8
rdata$r	SEGMENT
??_R1A@?0A@EA@CNumericalInquiryOptionDlg@@8 DD FLAT:??_R0?AVCNumericalInquiryOptionDlg@@@8 ; CNumericalInquiryOptionDlg::`RTTI Base Class Descriptor at (0,-1,0,64)'
	DD	04H
	DD	00H
	DD	0ffffffffH
	DD	00H
	DD	040H
	DD	FLAT:??_R3CNumericalInquiryOptionDlg@@8
rdata$r	ENDS
;	COMDAT ??_R2CNumericalInquiryOptionDlg@@8
rdata$r	SEGMENT
??_R2CNumericalInquiryOptionDlg@@8 DD FLAT:??_R1A@?0A@EA@CNumericalInquiryOptionDlg@@8 ; CNumericalInquiryOptionDlg::`RTTI Base Class Array'
	DD	FLAT:??_R1A@?0A@EA@CDialog@@8
	DD	FLAT:??_R1A@?0A@EA@CWnd@@8
	DD	FLAT:??_R1A@?0A@EA@CCmdTarget@@8
	DD	FLAT:??_R1A@?0A@EA@CObject@@8
rdata$r	ENDS
;	COMDAT ??_R3CNumericalInquiryOptionDlg@@8
rdata$r	SEGMENT
??_R3CNumericalInquiryOptionDlg@@8 DD 00H		; CNumericalInquiryOptionDlg::`RTTI Class Hierarchy Descriptor'
	DD	00H
	DD	05H
	DD	FLAT:??_R2CNumericalInquiryOptionDlg@@8
rdata$r	ENDS
;	COMDAT ??_R0?AVCNumericalInquiryOptionDlg@@@8
data$rs	SEGMENT
??_R0?AVCNumericalInquiryOptionDlg@@@8 DD FLAT:??_7type_info@@6B@ ; CNumericalInquiryOptionDlg `RTTI Type Descriptor'
	DD	00H
	DB	'.?AVCNumericalInquiryOptionDlg@@', 00H
data$rs	ENDS
;	COMDAT ??_R4CNumericalInquiryOptionDlg@@6B@
rdata$r	SEGMENT
??_R4CNumericalInquiryOptionDlg@@6B@ DD 00H		; CNumericalInquiryOptionDlg::`RTTI Complete Object Locator'
	DD	00H
	DD	00H
	DD	FLAT:??_R0?AVCNumericalInquiryOptionDlg@@@8
	DD	FLAT:??_R3CNumericalInquiryOptionDlg@@8
rdata$r	ENDS
;	COMDAT ?messageMap@?1??GetThisMessageMap@CNumericalInquiryOptionDlg@@KGPBUAFX_MSGMAP@@XZ@4U3@B
CONST	SEGMENT
?messageMap@?1??GetThisMessageMap@CNumericalInquiryOptionDlg@@KGPBUAFX_MSGMAP@@XZ@4U3@B DD FLAT:?GetThisMessageMap@CDialog@@KGPBUAFX_MSGMAP@@XZ ; `CNumericalInquiryOptionDlg::GetThisMessageMap'::`2'::messageMap
	DD	FLAT:?_messageEntries@?1??GetThisMessageMap@CNumericalInquiryOptionDlg@@KGPBUAFX_MSGMAP@@XZ@4QBUAFX_MSGMAP_ENTRY@@B
CONST	ENDS
;	COMDAT ?_messageEntries@?1??GetThisMessageMap@CNumericalInquiryOptionDlg@@KGPBUAFX_MSGMAP@@XZ@4QBUAFX_MSGMAP_ENTRY@@B
CONST	SEGMENT
?_messageEntries@?1??GetThisMessageMap@CNumericalInquiryOptionDlg@@KGPBUAFX_MSGMAP@@XZ@4QBUAFX_MSGMAP_ENTRY@@B DD 018H ; `CNumericalInquiryOptionDlg::GetThisMessageMap'::`2'::_messageEntries
	DD	00H
	DD	00H
	DD	00H
	DD	016H
	DD	FLAT:?OnShowWindow@CNumericalInquiryOptionDlg@@IAEXHI@Z
	DD	0111H
	DD	00H
	DD	02722H
	DD	02722H
	DD	03aH
	DD	FLAT:?OnCheckTooltip@CNumericalInquiryOptionDlg@@IAEXXZ
	DD	0111H
	DD	00H
	DD	01bd6H
	DD	01bd6H
	DD	03aH
	DD	FLAT:?OnCheckCrosslineview@CNumericalInquiryOptionDlg@@IAEXXZ
	DD	0111H
	DD	00H
	DD	01bd9H
	DD	01bd9H
	DD	03aH
	DD	FLAT:?OnRdoNumericalinquiry@CNumericalInquiryOptionDlg@@IAEXXZ
	DD	0111H
	DD	00H
	DD	01bdaH
	DD	01bdaH
	DD	03aH
	DD	FLAT:?OnRdoDragzoom@CNumericalInquiryOptionDlg@@IAEXXZ
	DD	00H
	DD	00H
	DD	00H
	DD	00H
	DD	00H
	DD	00H
CONST	ENDS
;	COMDAT ??_7CNumericalInquiryOptionDlg@@6B@
CONST	SEGMENT
??_7CNumericalInquiryOptionDlg@@6B@ DD FLAT:??_R4CNumericalInquiryOptionDlg@@6B@ ; CNumericalInquiryOptionDlg::`vftable'
	DD	FLAT:?GetRuntimeClass@CDialog@@UBEPAUCRuntimeClass@@XZ
	DD	FLAT:??_ECNumericalInquiryOptionDlg@@UAEPAXI@Z
	DD	FLAT:?Serialize@CObject@@UAEXAAVCArchive@@@Z
	DD	FLAT:?AssertValid@CObject@@UBEXXZ
	DD	FLAT:?Dump@CObject@@UBEXAAVCDumpContext@@@Z
	DD	FLAT:?OnCmdMsg@CDialog@@UAEHIHPAXPAUAFX_CMDHANDLERINFO@@@Z
	DD	FLAT:?OnFinalRelease@CWnd@@UAEXXZ
	DD	FLAT:?IsInvokeAllowed@CCmdTarget@@UAEHJ@Z
	DD	FLAT:?GetDispatchIID@CCmdTarget@@UAEHPAU_GUID@@@Z
	DD	FLAT:?GetTypeInfoCount@CCmdTarget@@UAEIXZ
	DD	FLAT:?GetTypeLibCache@CCmdTarget@@UAEPAVCTypeLibCache@@XZ
	DD	FLAT:?GetTypeLib@CCmdTarget@@UAEJKPAPAUITypeLib@@@Z
	DD	FLAT:?GetMessageMap@CNumericalInquiryOptionDlg@@MBEPBUAFX_MSGMAP@@XZ
	DD	FLAT:?GetCommandMap@CCmdTarget@@MBEPBUAFX_OLECMDMAP@@XZ
	DD	FLAT:?GetDispatchMap@CCmdTarget@@MBEPBUAFX_DISPMAP@@XZ
	DD	FLAT:?GetConnectionMap@CCmdTarget@@MBEPBUAFX_CONNECTIONMAP@@XZ
	DD	FLAT:?GetInterfaceMap@CWnd@@MBEPBUAFX_INTERFACEMAP@@XZ
	DD	FLAT:?GetEventSinkMap@CCmdTarget@@MBEPBUAFX_EVENTSINKMAP@@XZ
	DD	FLAT:?OnCreateAggregates@CCmdTarget@@UAEHXZ
	DD	FLAT:?GetInterfaceHook@CCmdTarget@@UAEPAUIUnknown@@PBX@Z
	DD	FLAT:?GetExtraConnectionPoints@CCmdTarget@@MAEHPAVCPtrArray@@@Z
	DD	FLAT:?GetConnectionHook@CCmdTarget@@MAEPAUIConnectionPoint@@ABU_GUID@@@Z
	DD	FLAT:?PreSubclassWindow@CWnd@@UAEXXZ
	DD	FLAT:?Create@CWnd@@UAEHPBD0KABUtagRECT@@PAV1@IPAUCCreateContext@@@Z
	DD	FLAT:?CreateEx@CWnd@@UAEHKPBD0KABUtagRECT@@PAV1@IPAX@Z
	DD	FLAT:?CreateEx@CWnd@@UAEHKPBD0KHHHHPAUHWND__@@PAUHMENU__@@PAX@Z
	DD	FLAT:?DestroyWindow@CWnd@@UAEHXZ
	DD	FLAT:?PreCreateWindow@CWnd@@UAEHAAUtagCREATESTRUCTA@@@Z
	DD	FLAT:?CalcWindowRect@CWnd@@UAEXPAUtagRECT@@I@Z
	DD	FLAT:?GetMenu@CWnd@@UBEPAVCMenu@@XZ
	DD	FLAT:?SetMenu@CWnd@@UAEHPAVCMenu@@@Z
	DD	FLAT:?OnToolHitTest@CWnd@@UBEHVCPoint@@PAUtagTOOLINFOA@@@Z
	DD	FLAT:?GetScrollBarCtrl@CWnd@@UBEPAVCScrollBar@@H@Z
	DD	FLAT:?WinHelpA@CWnd@@UAEXKI@Z
	DD	FLAT:?HtmlHelpA@CWnd@@UAEXKI@Z
	DD	FLAT:?WinHelpInternal@CWnd@@UAEXKI@Z
	DD	FLAT:?ContinueModal@CWnd@@UAEHXZ
	DD	FLAT:?EndModalLoop@CWnd@@UAEXH@Z
	DD	FLAT:?OnDrawIconicThumbnailOrLivePreview@CWnd@@UAEXAAVCDC@@VCRect@@VCSize@@HAAH@Z
	DD	FLAT:?EnsureStdObj@CWnd@@UAEJXZ
	DD	FLAT:?get_accParent@CWnd@@UAEJPAPAUIDispatch@@@Z
	DD	FLAT:?get_accChildCount@CWnd@@UAEJPAJ@Z
	DD	FLAT:?get_accChild@CWnd@@UAEJUtagVARIANT@@PAPAUIDispatch@@@Z
	DD	FLAT:?get_accName@CWnd@@UAEJUtagVARIANT@@PAPA_W@Z
	DD	FLAT:?get_accValue@CWnd@@UAEJUtagVARIANT@@PAPA_W@Z
	DD	FLAT:?get_accDescription@CWnd@@UAEJUtagVARIANT@@PAPA_W@Z
	DD	FLAT:?get_accRole@CWnd@@UAEJUtagVARIANT@@PAU2@@Z
	DD	FLAT:?get_accState@CWnd@@UAEJUtagVARIANT@@PAU2@@Z
	DD	FLAT:?get_accHelp@CWnd@@UAEJUtagVARIANT@@PAPA_W@Z
	DD	FLAT:?get_accHelpTopic@CWnd@@UAEJPAPA_WUtagVARIANT@@PAJ@Z
	DD	FLAT:?get_accKeyboardShortcut@CWnd@@UAEJUtagVARIANT@@PAPA_W@Z
	DD	FLAT:?get_accFocus@CWnd@@UAEJPAUtagVARIANT@@@Z
	DD	FLAT:?get_accSelection@CWnd@@UAEJPAUtagVARIANT@@@Z
	DD	FLAT:?get_accDefaultAction@CWnd@@UAEJUtagVARIANT@@PAPA_W@Z
	DD	FLAT:?accSelect@CWnd@@UAEJJUtagVARIANT@@@Z
	DD	FLAT:?accLocation@CWnd@@UAEJPAJ000UtagVARIANT@@@Z
	DD	FLAT:?accNavigate@CWnd@@UAEJJUtagVARIANT@@PAU2@@Z
	DD	FLAT:?accHitTest@CWnd@@UAEJJJPAUtagVARIANT@@@Z
	DD	FLAT:?accDoDefaultAction@CWnd@@UAEJUtagVARIANT@@@Z
	DD	FLAT:?put_accName@CWnd@@UAEJUtagVARIANT@@PA_W@Z
	DD	FLAT:?put_accValue@CWnd@@UAEJUtagVARIANT@@PA_W@Z
	DD	FLAT:?SetProxy@CWnd@@UAEJPAUIAccessibleProxy@@@Z
	DD	FLAT:?CreateAccessibleProxy@CWnd@@UAEJIJPAJ@Z
	DD	FLAT:?OnCommand@CWnd@@MAEHIJ@Z
	DD	FLAT:?OnNotify@CWnd@@MAEHIJPAJ@Z
	DD	FLAT:?GetSuperWndProcAddr@CWnd@@MAEPAP6GJPAUHWND__@@IIJ@ZXZ
	DD	FLAT:?DoDataExchange@CNumericalInquiryOptionDlg@@MAEXPAVCDataExchange@@@Z
	DD	FLAT:?BeginModalState@CWnd@@UAEXXZ
	DD	FLAT:?EndModalState@CWnd@@UAEXXZ
	DD	FLAT:?PreTranslateMessage@CDialog@@UAEHPAUtagMSG@@@Z
	DD	FLAT:?OnAmbientProperty@CWnd@@UAEHPAVCOleControlSite@@JPAUtagVARIANT@@@Z
	DD	FLAT:?WindowProc@CWnd@@MAEJIIJ@Z
	DD	FLAT:?OnWndMsg@CWnd@@MAEHIIJPAJ@Z
	DD	FLAT:?DefWindowProcA@CWnd@@MAEJIIJ@Z
	DD	FLAT:?PostNcDestroy@CWnd@@MAEXXZ
	DD	FLAT:?OnChildNotify@CWnd@@MAEHIIJPAJ@Z
	DD	FLAT:?OnTouchInputs@CWnd@@MAEHIPAUtagTOUCHINPUT@@@Z
	DD	FLAT:?OnTouchInput@CWnd@@MAEHVCPoint@@HHPAUtagTOUCHINPUT@@@Z
	DD	FLAT:?GetGestureStatus@CWnd@@MAEKVCPoint@@@Z
	DD	FLAT:?OnGestureZoom@CWnd@@MAEHVCPoint@@J@Z
	DD	FLAT:?OnGesturePan@CWnd@@MAEHVCPoint@@0@Z
	DD	FLAT:?OnGestureRotate@CWnd@@MAEHVCPoint@@N@Z
	DD	FLAT:?OnGestureTwoFingerTap@CWnd@@MAEHVCPoint@@@Z
	DD	FLAT:?OnGesturePressAndTap@CWnd@@MAEHVCPoint@@J@Z
	DD	FLAT:?ResizeDynamicLayout@CWnd@@MAEXXZ
	DD	FLAT:?CheckAutoCenter@CDialog@@UAEHXZ
	DD	FLAT:?IsFrameWnd@CWnd@@UBEHXZ
	DD	FLAT:?CreateControlContainer@CWnd@@MAEHPAPAVCOleControlContainer@@@Z
	DD	FLAT:?CreateControlSite@CWnd@@MAEHPAVCOleControlContainer@@PAPAVCOleControlSite@@IABU_GUID@@@Z
	DD	FLAT:?SetOccDialogInfo@CDialog@@MAEHPAU_AFX_OCC_DIALOG_INFO@@@Z
	DD	FLAT:?GetOccDialogInfo@CDialog@@MAEPAU_AFX_OCC_DIALOG_INFO@@XZ
	DD	FLAT:?Create@CDialog@@UAEHIPAVCWnd@@@Z
	DD	FLAT:?Create@CDialog@@UAEHPBDPAVCWnd@@@Z
	DD	FLAT:?CreateIndirect@CDialog@@UAEHPAXPAVCWnd@@@Z
	DD	FLAT:?CreateIndirect@CDialog@@UAEHPBUDLGTEMPLATE@@PAVCWnd@@PAX@Z
	DD	FLAT:?DoModal@CDialog@@UAEHXZ
	DD	FLAT:?OnInitDialog@CDialog@@UAEHXZ
	DD	FLAT:?OnSetFont@CDialog@@UAEXPAVCFont@@@Z
	DD	FLAT:?OnOK@CNumericalInquiryOptionDlg@@MAEXXZ
	DD	FLAT:?OnCancel@CNumericalInquiryOptionDlg@@MAEXXZ
	DD	FLAT:?PreInitDialog@CDialog@@MAEXXZ
CONST	ENDS
;	COMDAT ??_R2CDialog@@8
rdata$r	SEGMENT
??_R2CDialog@@8 DD FLAT:??_R1A@?0A@EA@CDialog@@8	; CDialog::`RTTI Base Class Array'
	DD	FLAT:??_R1A@?0A@EA@CWnd@@8
	DD	FLAT:??_R1A@?0A@EA@CCmdTarget@@8
	DD	FLAT:??_R1A@?0A@EA@CObject@@8
rdata$r	ENDS
;	COMDAT ??_R3CDialog@@8
rdata$r	SEGMENT
??_R3CDialog@@8 DD 00H					; CDialog::`RTTI Class Hierarchy Descriptor'
	DD	00H
	DD	04H
	DD	FLAT:??_R2CDialog@@8
rdata$r	ENDS
;	COMDAT ??_R0?AVCDialog@@@8
data$rs	SEGMENT
??_R0?AVCDialog@@@8 DD FLAT:??_7type_info@@6B@		; CDialog `RTTI Type Descriptor'
	DD	00H
	DB	'.?AVCDialog@@', 00H
data$rs	ENDS
;	COMDAT ??_R1A@?0A@EA@CDialog@@8
rdata$r	SEGMENT
??_R1A@?0A@EA@CDialog@@8 DD FLAT:??_R0?AVCDialog@@@8	; CDialog::`RTTI Base Class Descriptor at (0,-1,0,64)'
	DD	03H
	DD	00H
	DD	0ffffffffH
	DD	00H
	DD	040H
	DD	FLAT:??_R3CDialog@@8
rdata$r	ENDS
;	COMDAT ??_R2CCmdTarget@@8
rdata$r	SEGMENT
??_R2CCmdTarget@@8 DD FLAT:??_R1A@?0A@EA@CCmdTarget@@8	; CCmdTarget::`RTTI Base Class Array'
	DD	FLAT:??_R1A@?0A@EA@CObject@@8
rdata$r	ENDS
;	COMDAT ??_R3CCmdTarget@@8
rdata$r	SEGMENT
??_R3CCmdTarget@@8 DD 00H				; CCmdTarget::`RTTI Class Hierarchy Descriptor'
	DD	00H
	DD	02H
	DD	FLAT:??_R2CCmdTarget@@8
rdata$r	ENDS
;	COMDAT ??_R0?AVCCmdTarget@@@8
data$rs	SEGMENT
??_R0?AVCCmdTarget@@@8 DD FLAT:??_7type_info@@6B@	; CCmdTarget `RTTI Type Descriptor'
	DD	00H
	DB	'.?AVCCmdTarget@@', 00H
data$rs	ENDS
;	COMDAT ??_R1A@?0A@EA@CCmdTarget@@8
rdata$r	SEGMENT
??_R1A@?0A@EA@CCmdTarget@@8 DD FLAT:??_R0?AVCCmdTarget@@@8 ; CCmdTarget::`RTTI Base Class Descriptor at (0,-1,0,64)'
	DD	01H
	DD	00H
	DD	0ffffffffH
	DD	00H
	DD	040H
	DD	FLAT:??_R3CCmdTarget@@8
rdata$r	ENDS
;	COMDAT ??_R2CWnd@@8
rdata$r	SEGMENT
??_R2CWnd@@8 DD	FLAT:??_R1A@?0A@EA@CWnd@@8		; CWnd::`RTTI Base Class Array'
	DD	FLAT:??_R1A@?0A@EA@CCmdTarget@@8
	DD	FLAT:??_R1A@?0A@EA@CObject@@8
rdata$r	ENDS
;	COMDAT ??_R3CWnd@@8
rdata$r	SEGMENT
??_R3CWnd@@8 DD	00H					; CWnd::`RTTI Class Hierarchy Descriptor'
	DD	00H
	DD	03H
	DD	FLAT:??_R2CWnd@@8
rdata$r	ENDS
;	COMDAT ??_R0?AVCWnd@@@8
data$rs	SEGMENT
??_R0?AVCWnd@@@8 DD FLAT:??_7type_info@@6B@		; CWnd `RTTI Type Descriptor'
	DD	00H
	DB	'.?AVCWnd@@', 00H
data$rs	ENDS
;	COMDAT ??_R1A@?0A@EA@CWnd@@8
rdata$r	SEGMENT
??_R1A@?0A@EA@CWnd@@8 DD FLAT:??_R0?AVCWnd@@@8		; CWnd::`RTTI Base Class Descriptor at (0,-1,0,64)'
	DD	02H
	DD	00H
	DD	0ffffffffH
	DD	00H
	DD	040H
	DD	FLAT:??_R3CWnd@@8
rdata$r	ENDS
;	COMDAT ??_R1A@?0A@EA@CObject@@8
rdata$r	SEGMENT
??_R1A@?0A@EA@CObject@@8 DD FLAT:??_R0?AVCObject@@@8	; CObject::`RTTI Base Class Descriptor at (0,-1,0,64)'
	DD	00H
	DD	00H
	DD	0ffffffffH
	DD	00H
	DD	040H
	DD	FLAT:??_R3CObject@@8
rdata$r	ENDS
;	COMDAT ??_R2CObject@@8
rdata$r	SEGMENT
??_R2CObject@@8 DD FLAT:??_R1A@?0A@EA@CObject@@8	; CObject::`RTTI Base Class Array'
rdata$r	ENDS
;	COMDAT ??_R3CObject@@8
rdata$r	SEGMENT
??_R3CObject@@8 DD 00H					; CObject::`RTTI Class Hierarchy Descriptor'
	DD	00H
	DD	01H
	DD	FLAT:??_R2CObject@@8
rdata$r	ENDS
;	COMDAT ??_R0?AVCObject@@@8
data$rs	SEGMENT
??_R0?AVCObject@@@8 DD FLAT:??_7type_info@@6B@		; CObject `RTTI Type Descriptor'
	DD	00H
	DB	'.?AVCObject@@', 00H
data$rs	ENDS
; Function compile flags: /Ogtp
; File C:\Program Files (x86)\Microsoft Visual Studio\2019\Community\VC\Tools\MSVC\14.29.30133\atlmfc\include\afx.inl
;	COMDAT ??_GCNumericalInquiryOptionDlg@@UAEPAXI@Z
_TEXT	SEGMENT
___flags$ = 8						; size = 4
??_GCNumericalInquiryOptionDlg@@UAEPAXI@Z PROC		; CNumericalInquiryOptionDlg::`scalar deleting destructor', COMDAT
; _this$ = ecx
  00000	55		 push	 ebp
  00001	8b ec		 mov	 ebp, esp
  00003	56		 push	 esi
  00004	8b f1		 mov	 esi, ecx
  00006	e8 00 00 00 00	 call	 ??1CDialog@@UAE@XZ	; CDialog::~CDialog
  0000b	8b 45 08	 mov	 eax, DWORD PTR ___flags$[ebp]
  0000e	a8 01		 test	 al, 1
  00010	74 22		 je	 SHORT $LN12@scalar
  00012	a8 04		 test	 al, 4
  00014	75 10		 jne	 SHORT $LN3@scalar

; 112  : 	{ ::operator delete(p); }

  00016	56		 push	 esi
  00017	e8 00 00 00 00	 call	 ??3@YAXPAX@Z		; operator delete
  0001c	83 c4 04	 add	 esp, 4
  0001f	8b c6		 mov	 eax, esi
  00021	5e		 pop	 esi
  00022	5d		 pop	 ebp
  00023	c2 04 00	 ret	 4
$LN3@scalar:
  00026	68 b0 00 00 00	 push	 176			; 000000b0H
  0002b	56		 push	 esi
  0002c	e8 00 00 00 00	 call	 ?__global_delete@@YAXPAXI@Z ; __global_delete
  00031	83 c4 08	 add	 esp, 8
$LN12@scalar:
  00034	8b c6		 mov	 eax, esi
  00036	5e		 pop	 esi
  00037	5d		 pop	 ebp
  00038	c2 04 00	 ret	 4
??_GCNumericalInquiryOptionDlg@@UAEPAXI@Z ENDP		; CNumericalInquiryOptionDlg::`scalar deleting destructor'
_TEXT	ENDS
; Function compile flags: /Ogtp
; File D:\git\src\IBK\IBK_DRFN\ProjSrc\SrcChartEx\ChartAddIn\ChartDesignPropertyAddIn\ChartDesignPropertyAddIn\NumericalInquiryOptionDlg.cpp
;	COMDAT ?SubNumericalInquiryOption@CNumericalInquiryOptionDlg@@QAEXH@Z
_TEXT	SEGMENT
_nOption$ = 8						; size = 4
?SubNumericalInquiryOption@CNumericalInquiryOptionDlg@@QAEXH@Z PROC ; CNumericalInquiryOptionDlg::SubNumericalInquiryOption, COMDAT
; _this$ = ecx

; 95   : {

  00000	55		 push	 ebp
  00001	8b ec		 mov	 ebp, esp

; 96   : 	// (2005/11/17 - Seung-Won, Bae) Subtract Option
; 97   : 	m_nOption &= ~nOption;

  00003	8b 45 08	 mov	 eax, DWORD PTR _nOption$[ebp]
  00006	f7 d0		 not	 eax
  00008	21 81 a8 00 00
	00		 and	 DWORD PTR [ecx+168], eax

; 98   : 	// 수치조회창이 Disabled되면 자동으로 십자선보기도 Disabled가 된다.
; 99   : 	// (2005/11/17 - Seung-Won, Bae) It is processed in CNumericalInquiryOptionDlg::OnRdoDragzoom()
; 100  : }

  0000e	5d		 pop	 ebp
  0000f	c2 04 00	 ret	 4
?SubNumericalInquiryOption@CNumericalInquiryOptionDlg@@QAEXH@Z ENDP ; CNumericalInquiryOptionDlg::SubNumericalInquiryOption
_TEXT	ENDS
; Function compile flags: /Ogtp
; File D:\git\src\IBK\IBK_DRFN\ProjSrc\SrcChartEx\ChartAddIn\ChartDesignPropertyAddIn\ChartDesignPropertyAddIn\NumericalInquiryOptionDlg.cpp
;	COMDAT ?AddNumericalInquiryOption@CNumericalInquiryOptionDlg@@QAEXH@Z
_TEXT	SEGMENT
_nOption$ = 8						; size = 4
?AddNumericalInquiryOption@CNumericalInquiryOptionDlg@@QAEXH@Z PROC ; CNumericalInquiryOptionDlg::AddNumericalInquiryOption, COMDAT
; _this$ = ecx

; 81   : {

  00000	55		 push	 ebp
  00001	8b ec		 mov	 ebp, esp

; 82   : 	m_nOption |= nOption;

  00003	8b 45 08	 mov	 eax, DWORD PTR _nOption$[ebp]
  00006	09 81 a8 00 00
	00		 or	 DWORD PTR [ecx+168], eax

; 83   : }

  0000c	5d		 pop	 ebp
  0000d	c2 04 00	 ret	 4
?AddNumericalInquiryOption@CNumericalInquiryOptionDlg@@QAEXH@Z ENDP ; CNumericalInquiryOptionDlg::AddNumericalInquiryOption
_TEXT	ENDS
; Function compile flags: /Ogtp
; File D:\git\src\IBK\IBK_DRFN\ProjSrc\SrcChartEx\ChartAddIn\ChartDesignPropertyAddIn\ChartDesignPropertyAddIn\NumericalInquiryOptionDlg.cpp
;	COMDAT ?GetNumericalInquiryOption@CNumericalInquiryOptionDlg@@QAEHXZ
_TEXT	SEGMENT
?GetNumericalInquiryOption@CNumericalInquiryOptionDlg@@QAEHXZ PROC ; CNumericalInquiryOptionDlg::GetNumericalInquiryOption, COMDAT
; _this$ = ecx

; 68   : 	return m_nOption;

  00000	8b 81 a8 00 00
	00		 mov	 eax, DWORD PTR [ecx+168]

; 69   : }

  00006	c3		 ret	 0
?GetNumericalInquiryOption@CNumericalInquiryOptionDlg@@QAEHXZ ENDP ; CNumericalInquiryOptionDlg::GetNumericalInquiryOption
_TEXT	ENDS
; Function compile flags: /Ogtp
; File D:\git\src\IBK\IBK_DRFN\ProjSrc\SrcChartEx\ChartAddIn\ChartDesignPropertyAddIn\ChartDesignPropertyAddIn\NumericalInquiryOptionDlg.cpp
;	COMDAT ?GetMessageMap@CNumericalInquiryOptionDlg@@MBEPBUAFX_MSGMAP@@XZ
_TEXT	SEGMENT
?GetMessageMap@CNumericalInquiryOptionDlg@@MBEPBUAFX_MSGMAP@@XZ PROC ; CNumericalInquiryOptionDlg::GetMessageMap, COMDAT
; _this$ = ecx

; 44   : BEGIN_MESSAGE_MAP(CNumericalInquiryOptionDlg, CDialog)

  00000	b8 00 00 00 00	 mov	 eax, OFFSET ?messageMap@?1??GetThisMessageMap@CNumericalInquiryOptionDlg@@KGPBUAFX_MSGMAP@@XZ@4U3@B
  00005	c3		 ret	 0
?GetMessageMap@CNumericalInquiryOptionDlg@@MBEPBUAFX_MSGMAP@@XZ ENDP ; CNumericalInquiryOptionDlg::GetMessageMap
_TEXT	ENDS
; Function compile flags: /Ogtp
; File D:\git\src\IBK\IBK_DRFN\ProjSrc\SrcChartEx\ChartAddIn\ChartDesignPropertyAddIn\ChartDesignPropertyAddIn\NumericalInquiryOptionDlg.cpp
;	COMDAT ?GetThisMessageMap@CNumericalInquiryOptionDlg@@KGPBUAFX_MSGMAP@@XZ
_TEXT	SEGMENT
?GetThisMessageMap@CNumericalInquiryOptionDlg@@KGPBUAFX_MSGMAP@@XZ PROC ; CNumericalInquiryOptionDlg::GetThisMessageMap, COMDAT

; 45   : 	//{{AFX_MSG_MAP(CNumericalInquiryOptionDlg)
; 46   : 	ON_WM_SHOWWINDOW()
; 47   : 	ON_BN_CLICKED(IDC_CHECK_TOOLTIP, OnCheckTooltip)
; 48   : 	ON_BN_CLICKED(IDC_CHECK_CROSSLINEVIEW, OnCheckCrosslineview)
; 49   : 	ON_BN_CLICKED(IDC_RDO_NUMERICALINQUIRY, OnRdoNumericalinquiry)
; 50   : 	ON_BN_CLICKED(IDC_RDO_DRAGZOOM, OnRdoDragzoom)
; 51   : 	//}}AFX_MSG_MAP
; 52   : END_MESSAGE_MAP()

  00000	b8 00 00 00 00	 mov	 eax, OFFSET ?messageMap@?1??GetThisMessageMap@CNumericalInquiryOptionDlg@@KGPBUAFX_MSGMAP@@XZ@4U3@B
  00005	c3		 ret	 0
?GetThisMessageMap@CNumericalInquiryOptionDlg@@KGPBUAFX_MSGMAP@@XZ ENDP ; CNumericalInquiryOptionDlg::GetThisMessageMap
_TEXT	ENDS
; Function compile flags: /Ogtp
; File D:\git\src\IBK\IBK_DRFN\ProjSrc\SrcChartEx\ChartAddIn\ChartDesignPropertyAddIn\ChartDesignPropertyAddIn\NumericalInquiryOptionDlg.cpp
; File C:\Program Files (x86)\Microsoft Visual Studio\2019\Community\VC\Tools\MSVC\14.29.30133\atlmfc\include\afxwin2.inl
; File D:\git\src\IBK\IBK_DRFN\ProjSrc\SrcChartEx\ChartAddIn\ChartDesignPropertyAddIn\ChartDesignPropertyAddIn\NumericalInquiryOptionDlg.cpp
; File C:\Program Files (x86)\Microsoft Visual Studio\2019\Community\VC\Tools\MSVC\14.29.30133\atlmfc\include\afxwin2.inl
; File D:\git\src\IBK\IBK_DRFN\ProjSrc\SrcChartEx\ChartAddIn\ChartDesignPropertyAddIn\ChartDesignPropertyAddIn\NumericalInquiryOptionDlg.cpp
;	COMDAT ?OnRdoDragzoom@CNumericalInquiryOptionDlg@@IAEXXZ
_TEXT	SEGMENT
?OnRdoDragzoom@CNumericalInquiryOptionDlg@@IAEXXZ PROC	; CNumericalInquiryOptionDlg::OnRdoDragzoom, COMDAT
; _this$ = ecx

; 201  : {

  00000	56		 push	 esi
  00001	57		 push	 edi
  00002	8b f9		 mov	 edi, ecx

; 204  : 	CButton *pCrossLine = ( CButton *)GetDlgItem( IDC_CHECK_CROSSLINEVIEW);

  00004	68 d6 1b 00 00	 push	 7126			; 00001bd6H

; 97   : 	m_nOption &= ~nOption;

  00009	83 a7 a8 00 00
	00 fe		 and	 DWORD PTR [edi+168], -2	; fffffffeH

; 204  : 	CButton *pCrossLine = ( CButton *)GetDlgItem( IDC_CHECK_CROSSLINEVIEW);

  00010	e8 00 00 00 00	 call	 ?GetDlgItem@CWnd@@QBEPAV1@H@Z ; CWnd::GetDlgItem
; File C:\Program Files (x86)\Microsoft Visual Studio\2019\Community\VC\Tools\MSVC\14.29.30133\atlmfc\include\afxwin2.inl

; 630  : 	{ ASSERT(::IsWindow(m_hWnd)); ::SendMessage(m_hWnd, BM_SETCHECK, nCheck, 0); }

  00015	6a 00		 push	 0
; File D:\git\src\IBK\IBK_DRFN\ProjSrc\SrcChartEx\ChartAddIn\ChartDesignPropertyAddIn\ChartDesignPropertyAddIn\NumericalInquiryOptionDlg.cpp

; 204  : 	CButton *pCrossLine = ( CButton *)GetDlgItem( IDC_CHECK_CROSSLINEVIEW);

  00017	8b f0		 mov	 esi, eax
; File C:\Program Files (x86)\Microsoft Visual Studio\2019\Community\VC\Tools\MSVC\14.29.30133\atlmfc\include\afxwin2.inl

; 630  : 	{ ASSERT(::IsWindow(m_hWnd)); ::SendMessage(m_hWnd, BM_SETCHECK, nCheck, 0); }

  00019	6a 00		 push	 0
  0001b	68 f1 00 00 00	 push	 241			; 000000f1H
  00020	ff 76 20	 push	 DWORD PTR [esi+32]
  00023	ff 15 00 00 00
	00		 call	 DWORD PTR __imp__SendMessageA@16
; File D:\git\src\IBK\IBK_DRFN\ProjSrc\SrcChartEx\ChartAddIn\ChartDesignPropertyAddIn\ChartDesignPropertyAddIn\NumericalInquiryOptionDlg.cpp

; 206  : 	pCrossLine->EnableWindow( FALSE);

  00029	6a 00		 push	 0
  0002b	8b ce		 mov	 ecx, esi
  0002d	e8 00 00 00 00	 call	 ?EnableWindow@CWnd@@QAEHH@Z ; CWnd::EnableWindow

; 97   : 	m_nOption &= ~nOption;

  00032	83 a7 a8 00 00
	00 fd		 and	 DWORD PTR [edi+168], -3	; fffffffdH
  00039	5f		 pop	 edi
  0003a	5e		 pop	 esi

; 207  : 	SubNumericalInquiryOption( CROSSLINEVIEW);
; 208  : }

  0003b	c3		 ret	 0
?OnRdoDragzoom@CNumericalInquiryOptionDlg@@IAEXXZ ENDP	; CNumericalInquiryOptionDlg::OnRdoDragzoom
_TEXT	ENDS
; Function compile flags: /Ogtp
; File D:\git\src\IBK\IBK_DRFN\ProjSrc\SrcChartEx\ChartAddIn\ChartDesignPropertyAddIn\ChartDesignPropertyAddIn\NumericalInquiryOptionDlg.cpp
; File C:\Program Files (x86)\Microsoft Visual Studio\2019\Community\VC\Tools\MSVC\14.29.30133\atlmfc\include\afxwin2.inl
; File D:\git\src\IBK\IBK_DRFN\ProjSrc\SrcChartEx\ChartAddIn\ChartDesignPropertyAddIn\ChartDesignPropertyAddIn\NumericalInquiryOptionDlg.cpp
;	COMDAT ?OnRdoNumericalinquiry@CNumericalInquiryOptionDlg@@IAEXXZ
_TEXT	SEGMENT
?OnRdoNumericalinquiry@CNumericalInquiryOptionDlg@@IAEXXZ PROC ; CNumericalInquiryOptionDlg::OnRdoNumericalinquiry, COMDAT
; _this$ = ecx

; 191  : {

  00000	56		 push	 esi
  00001	57		 push	 edi
  00002	8b f9		 mov	 edi, ecx

; 192  : 	// TODO: Add your control notification handler code here
; 193  : 	AddNumericalInquiryOption( NUMERICALINQUIRYDLG);
; 194  : 	CButton *pCrossLine = ( CButton *)GetDlgItem( IDC_CHECK_CROSSLINEVIEW);

  00004	68 d6 1b 00 00	 push	 7126			; 00001bd6H

; 82   : 	m_nOption |= nOption;

  00009	83 8f a8 00 00
	00 01		 or	 DWORD PTR [edi+168], 1

; 192  : 	// TODO: Add your control notification handler code here
; 193  : 	AddNumericalInquiryOption( NUMERICALINQUIRYDLG);
; 194  : 	CButton *pCrossLine = ( CButton *)GetDlgItem( IDC_CHECK_CROSSLINEVIEW);

  00010	e8 00 00 00 00	 call	 ?GetDlgItem@CWnd@@QBEPAV1@H@Z ; CWnd::GetDlgItem
  00015	8b f0		 mov	 esi, eax

; 195  : 	pCrossLine->EnableWindow();

  00017	6a 01		 push	 1
  00019	8b ce		 mov	 ecx, esi
  0001b	e8 00 00 00 00	 call	 ?EnableWindow@CWnd@@QAEHH@Z ; CWnd::EnableWindow
; File C:\Program Files (x86)\Microsoft Visual Studio\2019\Community\VC\Tools\MSVC\14.29.30133\atlmfc\include\afxwin2.inl

; 630  : 	{ ASSERT(::IsWindow(m_hWnd)); ::SendMessage(m_hWnd, BM_SETCHECK, nCheck, 0); }

  00020	6a 00		 push	 0
  00022	6a 01		 push	 1
  00024	68 f1 00 00 00	 push	 241			; 000000f1H
  00029	ff 76 20	 push	 DWORD PTR [esi+32]
  0002c	ff 15 00 00 00
	00		 call	 DWORD PTR __imp__SendMessageA@16
; File D:\git\src\IBK\IBK_DRFN\ProjSrc\SrcChartEx\ChartAddIn\ChartDesignPropertyAddIn\ChartDesignPropertyAddIn\NumericalInquiryOptionDlg.cpp

; 82   : 	m_nOption |= nOption;

  00032	83 8f a8 00 00
	00 02		 or	 DWORD PTR [edi+168], 2
  00039	5f		 pop	 edi
  0003a	5e		 pop	 esi

; 196  : 	pCrossLine->SetCheck( TRUE);
; 197  : 	AddNumericalInquiryOption( CROSSLINEVIEW);
; 198  : }

  0003b	c3		 ret	 0
?OnRdoNumericalinquiry@CNumericalInquiryOptionDlg@@IAEXXZ ENDP ; CNumericalInquiryOptionDlg::OnRdoNumericalinquiry
_TEXT	ENDS
; Function compile flags: /Ogtp
; File D:\git\src\IBK\IBK_DRFN\ProjSrc\SrcChartEx\ChartAddIn\ChartDesignPropertyAddIn\ChartDesignPropertyAddIn\NumericalInquiryOptionDlg.cpp
; File C:\Program Files (x86)\Microsoft Visual Studio\2019\Community\VC\Tools\MSVC\14.29.30133\atlmfc\include\afxwin2.inl
; File D:\git\src\IBK\IBK_DRFN\ProjSrc\SrcChartEx\ChartAddIn\ChartDesignPropertyAddIn\ChartDesignPropertyAddIn\NumericalInquiryOptionDlg.cpp
;	COMDAT ?OnCheckCrosslineview@CNumericalInquiryOptionDlg@@IAEXXZ
_TEXT	SEGMENT
?OnCheckCrosslineview@CNumericalInquiryOptionDlg@@IAEXXZ PROC ; CNumericalInquiryOptionDlg::OnCheckCrosslineview, COMDAT
; _this$ = ecx

; 161  : {

  00000	56		 push	 esi

; 162  : 	CButton* pButton = NULL; //임시변수
; 163  : 
; 164  : 	pButton = (CButton*)GetDlgItem(IDC_CHECK_CROSSLINEVIEW);

  00001	68 d6 1b 00 00	 push	 7126			; 00001bd6H
  00006	8b f1		 mov	 esi, ecx
  00008	e8 00 00 00 00	 call	 ?GetDlgItem@CWnd@@QBEPAV1@H@Z ; CWnd::GetDlgItem
; File C:\Program Files (x86)\Microsoft Visual Studio\2019\Community\VC\Tools\MSVC\14.29.30133\atlmfc\include\afxwin2.inl

; 628  : 	{ ASSERT(::IsWindow(m_hWnd)); return (int)::SendMessage(m_hWnd, BM_GETCHECK, 0, 0); }

  0000d	6a 00		 push	 0
  0000f	6a 00		 push	 0
  00011	68 f0 00 00 00	 push	 240			; 000000f0H
  00016	ff 70 20	 push	 DWORD PTR [eax+32]
  00019	ff 15 00 00 00
	00		 call	 DWORD PTR __imp__SendMessageA@16
  0001f	8b 96 a8 00 00
	00		 mov	 edx, DWORD PTR [esi+168]
; File D:\git\src\IBK\IBK_DRFN\ProjSrc\SrcChartEx\ChartAddIn\ChartDesignPropertyAddIn\ChartDesignPropertyAddIn\NumericalInquiryOptionDlg.cpp

; 82   : 	m_nOption |= nOption;

  00025	8b ca		 mov	 ecx, edx
  00027	83 c9 02	 or	 ecx, 2

; 97   : 	m_nOption &= ~nOption;

  0002a	83 e2 fd	 and	 edx, -3			; fffffffdH

; 165  : 	
; 166  : 	if(1 == pButton->GetCheck())

  0002d	83 f8 01	 cmp	 eax, 1
  00030	0f 44 d1	 cmove	 edx, ecx

; 167  : 		AddNumericalInquiryOption(CROSSLINEVIEW);
; 168  : 	else
; 169  : 		SubNumericalInquiryOption(CROSSLINEVIEW);
; 170  : }

  00033	89 96 a8 00 00
	00		 mov	 DWORD PTR [esi+168], edx
  00039	5e		 pop	 esi
  0003a	c3		 ret	 0
?OnCheckCrosslineview@CNumericalInquiryOptionDlg@@IAEXXZ ENDP ; CNumericalInquiryOptionDlg::OnCheckCrosslineview
_TEXT	ENDS
; Function compile flags: /Ogtp
; File D:\git\src\IBK\IBK_DRFN\ProjSrc\SrcChartEx\ChartAddIn\ChartDesignPropertyAddIn\ChartDesignPropertyAddIn\NumericalInquiryOptionDlg.cpp
; File C:\Program Files (x86)\Microsoft Visual Studio\2019\Community\VC\Tools\MSVC\14.29.30133\atlmfc\include\afxwin2.inl
; File D:\git\src\IBK\IBK_DRFN\ProjSrc\SrcChartEx\ChartAddIn\ChartDesignPropertyAddIn\ChartDesignPropertyAddIn\NumericalInquiryOptionDlg.cpp
;	COMDAT ?OnCheckTooltip@CNumericalInquiryOptionDlg@@IAEXXZ
_TEXT	SEGMENT
?OnCheckTooltip@CNumericalInquiryOptionDlg@@IAEXXZ PROC	; CNumericalInquiryOptionDlg::OnCheckTooltip, COMDAT
; _this$ = ecx

; 142  : {

  00000	56		 push	 esi

; 143  : 	CButton* pButton = NULL; //임시변수
; 144  : 
; 145  : 	pButton = (CButton*)GetDlgItem(IDC_CHECK_TOOLTIP);

  00001	68 22 27 00 00	 push	 10018			; 00002722H
  00006	8b f1		 mov	 esi, ecx
  00008	e8 00 00 00 00	 call	 ?GetDlgItem@CWnd@@QBEPAV1@H@Z ; CWnd::GetDlgItem
; File C:\Program Files (x86)\Microsoft Visual Studio\2019\Community\VC\Tools\MSVC\14.29.30133\atlmfc\include\afxwin2.inl

; 628  : 	{ ASSERT(::IsWindow(m_hWnd)); return (int)::SendMessage(m_hWnd, BM_GETCHECK, 0, 0); }

  0000d	6a 00		 push	 0
  0000f	6a 00		 push	 0
  00011	68 f0 00 00 00	 push	 240			; 000000f0H
  00016	ff 70 20	 push	 DWORD PTR [eax+32]
  00019	ff 15 00 00 00
	00		 call	 DWORD PTR __imp__SendMessageA@16
  0001f	8b 96 a8 00 00
	00		 mov	 edx, DWORD PTR [esi+168]
; File D:\git\src\IBK\IBK_DRFN\ProjSrc\SrcChartEx\ChartAddIn\ChartDesignPropertyAddIn\ChartDesignPropertyAddIn\NumericalInquiryOptionDlg.cpp

; 82   : 	m_nOption |= nOption;

  00025	8b ca		 mov	 ecx, edx
  00027	83 c9 04	 or	 ecx, 4

; 97   : 	m_nOption &= ~nOption;

  0002a	83 e2 fb	 and	 edx, -5			; fffffffbH

; 146  : 	
; 147  : 	if(1 == pButton->GetCheck())

  0002d	83 f8 01	 cmp	 eax, 1
  00030	0f 44 d1	 cmove	 edx, ecx

; 148  : 		AddNumericalInquiryOption(TOOLTIPVIEW);
; 149  : 	else
; 150  : 		SubNumericalInquiryOption(TOOLTIPVIEW);
; 151  : }

  00033	89 96 a8 00 00
	00		 mov	 DWORD PTR [esi+168], edx
  00039	5e		 pop	 esi
  0003a	c3		 ret	 0
?OnCheckTooltip@CNumericalInquiryOptionDlg@@IAEXXZ ENDP	; CNumericalInquiryOptionDlg::OnCheckTooltip
_TEXT	ENDS
; Function compile flags: /Ogtp
; File D:\git\src\IBK\IBK_DRFN\ProjSrc\SrcChartEx\ChartAddIn\ChartDesignPropertyAddIn\ChartDesignPropertyAddIn\NumericalInquiryOptionDlg.cpp
; File C:\Program Files (x86)\Microsoft Visual Studio\2019\Community\VC\Tools\MSVC\14.29.30133\atlmfc\include\afxwin2.inl
; File D:\git\src\IBK\IBK_DRFN\ProjSrc\SrcChartEx\ChartAddIn\ChartDesignPropertyAddIn\ChartDesignPropertyAddIn\NumericalInquiryOptionDlg.cpp
; File C:\Program Files (x86)\Microsoft Visual Studio\2019\Community\VC\Tools\MSVC\14.29.30133\atlmfc\include\afxwin2.inl
; File D:\git\src\IBK\IBK_DRFN\ProjSrc\SrcChartEx\ChartAddIn\ChartDesignPropertyAddIn\ChartDesignPropertyAddIn\NumericalInquiryOptionDlg.cpp
; File C:\Program Files (x86)\Microsoft Visual Studio\2019\Community\VC\Tools\MSVC\14.29.30133\atlmfc\include\afxwin2.inl
; File D:\git\src\IBK\IBK_DRFN\ProjSrc\SrcChartEx\ChartAddIn\ChartDesignPropertyAddIn\ChartDesignPropertyAddIn\NumericalInquiryOptionDlg.cpp
; File C:\Program Files (x86)\Microsoft Visual Studio\2019\Community\VC\Tools\MSVC\14.29.30133\atlmfc\include\afxwin2.inl
; File D:\git\src\IBK\IBK_DRFN\ProjSrc\SrcChartEx\ChartAddIn\ChartDesignPropertyAddIn\ChartDesignPropertyAddIn\NumericalInquiryOptionDlg.cpp
; File C:\Program Files (x86)\Microsoft Visual Studio\2019\Community\VC\Tools\MSVC\14.29.30133\atlmfc\include\afxwin2.inl
; File D:\git\src\IBK\IBK_DRFN\ProjSrc\SrcChartEx\ChartAddIn\ChartDesignPropertyAddIn\ChartDesignPropertyAddIn\NumericalInquiryOptionDlg.cpp
; File C:\Program Files (x86)\Microsoft Visual Studio\2019\Community\VC\Tools\MSVC\14.29.30133\atlmfc\include\afxwin2.inl
; File D:\git\src\IBK\IBK_DRFN\ProjSrc\SrcChartEx\ChartAddIn\ChartDesignPropertyAddIn\ChartDesignPropertyAddIn\NumericalInquiryOptionDlg.cpp
; File C:\Program Files (x86)\Microsoft Visual Studio\2019\Community\VC\Tools\MSVC\14.29.30133\atlmfc\include\afxwin2.inl
; File D:\git\src\IBK\IBK_DRFN\ProjSrc\SrcChartEx\ChartAddIn\ChartDesignPropertyAddIn\ChartDesignPropertyAddIn\NumericalInquiryOptionDlg.cpp
; File C:\Program Files (x86)\Microsoft Visual Studio\2019\Community\VC\Tools\MSVC\14.29.30133\atlmfc\include\afxwin2.inl
; File D:\git\src\IBK\IBK_DRFN\ProjSrc\SrcChartEx\ChartAddIn\ChartDesignPropertyAddIn\ChartDesignPropertyAddIn\NumericalInquiryOptionDlg.cpp
; File C:\Program Files (x86)\Microsoft Visual Studio\2019\Community\VC\Tools\MSVC\14.29.30133\atlmfc\include\afxwin2.inl
; File D:\git\src\IBK\IBK_DRFN\ProjSrc\SrcChartEx\ChartAddIn\ChartDesignPropertyAddIn\ChartDesignPropertyAddIn\NumericalInquiryOptionDlg.cpp
;	COMDAT ?OnShowWindow@CNumericalInquiryOptionDlg@@IAEXHI@Z
_TEXT	SEGMENT
_bShow$ = 8						; size = 4
_nStatus$ = 12						; size = 4
?OnShowWindow@CNumericalInquiryOptionDlg@@IAEXHI@Z PROC	; CNumericalInquiryOptionDlg::OnShowWindow, COMDAT
; _this$ = ecx

; 110  : {

  00000	55		 push	 ebp
  00001	8b ec		 mov	 ebp, esp
  00003	57		 push	 edi
  00004	8b f9		 mov	 edi, ecx
; File C:\Program Files (x86)\Microsoft Visual Studio\2019\Community\VC\Tools\MSVC\14.29.30133\atlmfc\include\afxwin2.inl

; 328  : 	{ Default(); }

  00006	e8 00 00 00 00	 call	 ?Default@CWnd@@IAEJXZ	; CWnd::Default
; File D:\git\src\IBK\IBK_DRFN\ProjSrc\SrcChartEx\ChartAddIn\ChartDesignPropertyAddIn\ChartDesignPropertyAddIn\NumericalInquiryOptionDlg.cpp

; 113  : 	if( !bShow) return;

  0000b	83 7d 08 00	 cmp	 DWORD PTR _bShow$[ebp], 0
  0000f	0f 84 f7 00 00
	00		 je	 $LN1@OnShowWind

; 114  : 
; 115  : 	// 수치조회창사용 옵션
; 116  : 	if( m_nOption & NUMERICALINQUIRYDLG)

  00015	f6 87 a8 00 00
	00 01		 test	 BYTE PTR [edi+168], 1
  0001c	8b cf		 mov	 ecx, edi
  0001e	53		 push	 ebx
  0001f	56		 push	 esi
  00020	74 53		 je	 SHORT $LN3@OnShowWind

; 117  : 	{
; 118  : 		( ( CButton *)GetDlgItem( IDC_RDO_NUMERICALINQUIRY))->SetCheck( 1);

  00022	68 d9 1b 00 00	 push	 7129			; 00001bd9H
  00027	e8 00 00 00 00	 call	 ?GetDlgItem@CWnd@@QBEPAV1@H@Z ; CWnd::GetDlgItem
; File C:\Program Files (x86)\Microsoft Visual Studio\2019\Community\VC\Tools\MSVC\14.29.30133\atlmfc\include\afxwin2.inl

; 630  : 	{ ASSERT(::IsWindow(m_hWnd)); ::SendMessage(m_hWnd, BM_SETCHECK, nCheck, 0); }

  0002c	8b 1d 00 00 00
	00		 mov	 ebx, DWORD PTR __imp__SendMessageA@16
  00032	6a 00		 push	 0
  00034	6a 01		 push	 1
  00036	68 f1 00 00 00	 push	 241			; 000000f1H
  0003b	ff 70 20	 push	 DWORD PTR [eax+32]
  0003e	ff d3		 call	 ebx
; File D:\git\src\IBK\IBK_DRFN\ProjSrc\SrcChartEx\ChartAddIn\ChartDesignPropertyAddIn\ChartDesignPropertyAddIn\NumericalInquiryOptionDlg.cpp

; 82   : 	m_nOption |= nOption;

  00040	83 8f a8 00 00
	00 01		 or	 DWORD PTR [edi+168], 1

; 194  : 	CButton *pCrossLine = ( CButton *)GetDlgItem( IDC_CHECK_CROSSLINEVIEW);

  00047	8b cf		 mov	 ecx, edi
  00049	68 d6 1b 00 00	 push	 7126			; 00001bd6H
  0004e	e8 00 00 00 00	 call	 ?GetDlgItem@CWnd@@QBEPAV1@H@Z ; CWnd::GetDlgItem
  00053	8b f0		 mov	 esi, eax

; 195  : 	pCrossLine->EnableWindow();

  00055	6a 01		 push	 1
  00057	8b ce		 mov	 ecx, esi
  00059	e8 00 00 00 00	 call	 ?EnableWindow@CWnd@@QAEHH@Z ; CWnd::EnableWindow
; File C:\Program Files (x86)\Microsoft Visual Studio\2019\Community\VC\Tools\MSVC\14.29.30133\atlmfc\include\afxwin2.inl

; 630  : 	{ ASSERT(::IsWindow(m_hWnd)); ::SendMessage(m_hWnd, BM_SETCHECK, nCheck, 0); }

  0005e	6a 00		 push	 0
  00060	6a 01		 push	 1
  00062	68 f1 00 00 00	 push	 241			; 000000f1H
  00067	ff 76 20	 push	 DWORD PTR [esi+32]
  0006a	ff d3		 call	 ebx
; File D:\git\src\IBK\IBK_DRFN\ProjSrc\SrcChartEx\ChartAddIn\ChartDesignPropertyAddIn\ChartDesignPropertyAddIn\NumericalInquiryOptionDlg.cpp

; 82   : 	m_nOption |= nOption;

  0006c	83 8f a8 00 00
	00 02		 or	 DWORD PTR [edi+168], 2

; 119  : 		// 수치조회창사용 옵션이 체크되어 있으면 십자선사용체크박스를 활성화시킴.
; 120  : 		OnRdoNumericalinquiry();	
; 121  : 	}

  00073	eb 51		 jmp	 SHORT $LN32@OnShowWind
$LN3@OnShowWind:

; 122  : 	else
; 123  : 	{
; 124  : 		( ( CButton *)GetDlgItem( IDC_RDO_DRAGZOOM))->SetCheck( 1);

  00075	68 da 1b 00 00	 push	 7130			; 00001bdaH
  0007a	e8 00 00 00 00	 call	 ?GetDlgItem@CWnd@@QBEPAV1@H@Z ; CWnd::GetDlgItem
; File C:\Program Files (x86)\Microsoft Visual Studio\2019\Community\VC\Tools\MSVC\14.29.30133\atlmfc\include\afxwin2.inl

; 630  : 	{ ASSERT(::IsWindow(m_hWnd)); ::SendMessage(m_hWnd, BM_SETCHECK, nCheck, 0); }

  0007f	8b 1d 00 00 00
	00		 mov	 ebx, DWORD PTR __imp__SendMessageA@16
  00085	6a 00		 push	 0
  00087	6a 01		 push	 1
  00089	68 f1 00 00 00	 push	 241			; 000000f1H
  0008e	ff 70 20	 push	 DWORD PTR [eax+32]
  00091	ff d3		 call	 ebx
; File D:\git\src\IBK\IBK_DRFN\ProjSrc\SrcChartEx\ChartAddIn\ChartDesignPropertyAddIn\ChartDesignPropertyAddIn\NumericalInquiryOptionDlg.cpp

; 97   : 	m_nOption &= ~nOption;

  00093	83 a7 a8 00 00
	00 fe		 and	 DWORD PTR [edi+168], -2	; fffffffeH

; 204  : 	CButton *pCrossLine = ( CButton *)GetDlgItem( IDC_CHECK_CROSSLINEVIEW);

  0009a	8b cf		 mov	 ecx, edi
  0009c	68 d6 1b 00 00	 push	 7126			; 00001bd6H
  000a1	e8 00 00 00 00	 call	 ?GetDlgItem@CWnd@@QBEPAV1@H@Z ; CWnd::GetDlgItem
; File C:\Program Files (x86)\Microsoft Visual Studio\2019\Community\VC\Tools\MSVC\14.29.30133\atlmfc\include\afxwin2.inl

; 630  : 	{ ASSERT(::IsWindow(m_hWnd)); ::SendMessage(m_hWnd, BM_SETCHECK, nCheck, 0); }

  000a6	6a 00		 push	 0
; File D:\git\src\IBK\IBK_DRFN\ProjSrc\SrcChartEx\ChartAddIn\ChartDesignPropertyAddIn\ChartDesignPropertyAddIn\NumericalInquiryOptionDlg.cpp

; 204  : 	CButton *pCrossLine = ( CButton *)GetDlgItem( IDC_CHECK_CROSSLINEVIEW);

  000a8	8b f0		 mov	 esi, eax
; File C:\Program Files (x86)\Microsoft Visual Studio\2019\Community\VC\Tools\MSVC\14.29.30133\atlmfc\include\afxwin2.inl

; 630  : 	{ ASSERT(::IsWindow(m_hWnd)); ::SendMessage(m_hWnd, BM_SETCHECK, nCheck, 0); }

  000aa	6a 00		 push	 0
  000ac	68 f1 00 00 00	 push	 241			; 000000f1H
  000b1	ff 76 20	 push	 DWORD PTR [esi+32]
  000b4	ff d3		 call	 ebx
; File D:\git\src\IBK\IBK_DRFN\ProjSrc\SrcChartEx\ChartAddIn\ChartDesignPropertyAddIn\ChartDesignPropertyAddIn\NumericalInquiryOptionDlg.cpp

; 206  : 	pCrossLine->EnableWindow( FALSE);

  000b6	6a 00		 push	 0
  000b8	8b ce		 mov	 ecx, esi
  000ba	e8 00 00 00 00	 call	 ?EnableWindow@CWnd@@QAEHH@Z ; CWnd::EnableWindow

; 97   : 	m_nOption &= ~nOption;

  000bf	83 a7 a8 00 00
	00 fd		 and	 DWORD PTR [edi+168], -3	; fffffffdH
$LN32@OnShowWind:

; 129  : 	( ( CButton *)GetDlgItem( IDC_CHECK_CROSSLINEVIEW))->SetCheck( m_nOption & CROSSLINEVIEW);

  000c6	8b b7 a8 00 00
	00		 mov	 esi, DWORD PTR [edi+168]
  000cc	8b cf		 mov	 ecx, edi
  000ce	68 d6 1b 00 00	 push	 7126			; 00001bd6H
  000d3	e8 00 00 00 00	 call	 ?GetDlgItem@CWnd@@QBEPAV1@H@Z ; CWnd::GetDlgItem
; File C:\Program Files (x86)\Microsoft Visual Studio\2019\Community\VC\Tools\MSVC\14.29.30133\atlmfc\include\afxwin2.inl

; 630  : 	{ ASSERT(::IsWindow(m_hWnd)); ::SendMessage(m_hWnd, BM_SETCHECK, nCheck, 0); }

  000d8	6a 00		 push	 0
; File D:\git\src\IBK\IBK_DRFN\ProjSrc\SrcChartEx\ChartAddIn\ChartDesignPropertyAddIn\ChartDesignPropertyAddIn\NumericalInquiryOptionDlg.cpp

; 129  : 	( ( CButton *)GetDlgItem( IDC_CHECK_CROSSLINEVIEW))->SetCheck( m_nOption & CROSSLINEVIEW);

  000da	83 e6 02	 and	 esi, 2
; File C:\Program Files (x86)\Microsoft Visual Studio\2019\Community\VC\Tools\MSVC\14.29.30133\atlmfc\include\afxwin2.inl

; 630  : 	{ ASSERT(::IsWindow(m_hWnd)); ::SendMessage(m_hWnd, BM_SETCHECK, nCheck, 0); }

  000dd	56		 push	 esi
  000de	68 f1 00 00 00	 push	 241			; 000000f1H
  000e3	ff 70 20	 push	 DWORD PTR [eax+32]
  000e6	ff d3		 call	 ebx
; File D:\git\src\IBK\IBK_DRFN\ProjSrc\SrcChartEx\ChartAddIn\ChartDesignPropertyAddIn\ChartDesignPropertyAddIn\NumericalInquiryOptionDlg.cpp

; 131  : 	( ( CButton *)GetDlgItem( IDC_CHECK_TOOLTIP))->SetCheck( m_nOption & TOOLTIPVIEW);

  000e8	8b b7 a8 00 00
	00		 mov	 esi, DWORD PTR [edi+168]
  000ee	8b cf		 mov	 ecx, edi
  000f0	68 22 27 00 00	 push	 10018			; 00002722H
  000f5	83 e6 04	 and	 esi, 4
  000f8	e8 00 00 00 00	 call	 ?GetDlgItem@CWnd@@QBEPAV1@H@Z ; CWnd::GetDlgItem
; File C:\Program Files (x86)\Microsoft Visual Studio\2019\Community\VC\Tools\MSVC\14.29.30133\atlmfc\include\afxwin2.inl

; 630  : 	{ ASSERT(::IsWindow(m_hWnd)); ::SendMessage(m_hWnd, BM_SETCHECK, nCheck, 0); }

  000fd	6a 00		 push	 0
  000ff	56		 push	 esi
  00100	68 f1 00 00 00	 push	 241			; 000000f1H
  00105	ff 70 20	 push	 DWORD PTR [eax+32]
  00108	ff d3		 call	 ebx
  0010a	5e		 pop	 esi
  0010b	5b		 pop	 ebx
$LN1@OnShowWind:
  0010c	5f		 pop	 edi
; File D:\git\src\IBK\IBK_DRFN\ProjSrc\SrcChartEx\ChartAddIn\ChartDesignPropertyAddIn\ChartDesignPropertyAddIn\NumericalInquiryOptionDlg.cpp

; 132  : }

  0010d	5d		 pop	 ebp
  0010e	c2 08 00	 ret	 8
?OnShowWindow@CNumericalInquiryOptionDlg@@IAEXHI@Z ENDP	; CNumericalInquiryOptionDlg::OnShowWindow
_TEXT	ENDS
; Function compile flags: /Ogtp
; File D:\git\src\IBK\IBK_DRFN\ProjSrc\SrcChartEx\ChartAddIn\ChartDesignPropertyAddIn\ChartDesignPropertyAddIn\NumericalInquiryOptionDlg.cpp
;	COMDAT ?OnCancel@CNumericalInquiryOptionDlg@@MAEXXZ
_TEXT	SEGMENT
?OnCancel@CNumericalInquiryOptionDlg@@MAEXXZ PROC	; CNumericalInquiryOptionDlg::OnCancel, COMDAT
; _this$ = ecx

; 179  : 	return;
; 180  : }

  00000	c2 00 00	 ret	 0
?OnCancel@CNumericalInquiryOptionDlg@@MAEXXZ ENDP	; CNumericalInquiryOptionDlg::OnCancel
_TEXT	ENDS
; Function compile flags: /Ogtp
; File D:\git\src\IBK\IBK_DRFN\ProjSrc\SrcChartEx\ChartAddIn\ChartDesignPropertyAddIn\ChartDesignPropertyAddIn\NumericalInquiryOptionDlg.cpp
;	COMDAT ?OnOK@CNumericalInquiryOptionDlg@@MAEXXZ
_TEXT	SEGMENT
?OnOK@CNumericalInquiryOptionDlg@@MAEXXZ PROC		; CNumericalInquiryOptionDlg::OnOK, COMDAT
; _this$ = ecx

; 175  : 	return;
; 176  : }

  00000	c2 00 00	 ret	 0
?OnOK@CNumericalInquiryOptionDlg@@MAEXXZ ENDP		; CNumericalInquiryOptionDlg::OnOK
_TEXT	ENDS
; Function compile flags: /Ogtp
; File D:\git\src\IBK\IBK_DRFN\ProjSrc\SrcChartEx\ChartAddIn\ChartDesignPropertyAddIn\ChartDesignPropertyAddIn\NumericalInquiryOptionDlg.cpp
;	COMDAT ?DoDataExchange@CNumericalInquiryOptionDlg@@MAEXPAVCDataExchange@@@Z
_TEXT	SEGMENT
_pDX$ = 8						; size = 4
?DoDataExchange@CNumericalInquiryOptionDlg@@MAEXPAVCDataExchange@@@Z PROC ; CNumericalInquiryOptionDlg::DoDataExchange, COMDAT
; _this$ = ecx

; 37   : 	CDialog::DoDataExchange(pDX);
; 38   : 	//{{AFX_DATA_MAP(CNumericalInquiryOptionDlg)
; 39   : 		// NOTE: the ClassWizard will add DDX and DDV calls here
; 40   : 	//}}AFX_DATA_MAP
; 41   : }

  00000	c2 04 00	 ret	 4
?DoDataExchange@CNumericalInquiryOptionDlg@@MAEXPAVCDataExchange@@@Z ENDP ; CNumericalInquiryOptionDlg::DoDataExchange
_TEXT	ENDS
; Function compile flags: /Ogtp
; File D:\git\src\IBK\IBK_DRFN\ProjSrc\SrcChartEx\ChartAddIn\ChartDesignPropertyAddIn\ChartDesignPropertyAddIn\NumericalInquiryOptionDlg.cpp
;	COMDAT ??0CNumericalInquiryOptionDlg@@QAE@PAVCWnd@@@Z
_TEXT	SEGMENT
_this$ = -4						; size = 4
_pParent$ = 8						; size = 4
??0CNumericalInquiryOptionDlg@@QAE@PAVCWnd@@@Z PROC	; CNumericalInquiryOptionDlg::CNumericalInquiryOptionDlg, COMDAT
; _this$ = ecx

; 27   : {

  00000	55		 push	 ebp
  00001	8b ec		 mov	 ebp, esp
  00003	51		 push	 ecx
  00004	56		 push	 esi
  00005	ff 75 08	 push	 DWORD PTR _pParent$[ebp]
  00008	8b f1		 mov	 esi, ecx
  0000a	68 8b 1b 00 00	 push	 7051			; 00001b8bH
  0000f	89 75 fc	 mov	 DWORD PTR _this$[ebp], esi
  00012	e8 00 00 00 00	 call	 ??0CDialog@@QAE@IPAVCWnd@@@Z ; CDialog::CDialog
  00017	c7 06 00 00 00
	00		 mov	 DWORD PTR [esi], OFFSET ??_7CNumericalInquiryOptionDlg@@6B@

; 28   : 	//{{AFX_DATA_INIT(CNumericalInquiryOptionDlg)
; 29   : 		// NOTE: the ClassWizard will add member initialization here
; 30   : 	//}}AFX_DATA_INIT
; 31   : 	m_nOption = 0;
; 32   : }

  0001d	8b c6		 mov	 eax, esi
  0001f	c7 86 a8 00 00
	00 00 00 00 00	 mov	 DWORD PTR [esi+168], 0
  00029	5e		 pop	 esi
  0002a	8b e5		 mov	 esp, ebp
  0002c	5d		 pop	 ebp
  0002d	c2 04 00	 ret	 4
??0CNumericalInquiryOptionDlg@@QAE@PAVCWnd@@@Z ENDP	; CNumericalInquiryOptionDlg::CNumericalInquiryOptionDlg
_TEXT	ENDS
; Function compile flags: /Ogtp
; File C:\Program Files (x86)\Microsoft Visual Studio\2019\Community\VC\Tools\MSVC\14.29.30133\atlmfc\include\afxwin2.inl
;	COMDAT ?Create@CDialog@@UAEHIPAVCWnd@@@Z
_TEXT	SEGMENT
_nIDTemplate$ = 8					; size = 4
_pParentWnd$ = 12					; size = 4
?Create@CDialog@@UAEHIPAVCWnd@@@Z PROC			; CDialog::Create, COMDAT
; _this$ = ecx

; 585  : 	{ return CDialog::Create(ATL_MAKEINTRESOURCE(nIDTemplate), pParentWnd); }

  00000	55		 push	 ebp
  00001	8b ec		 mov	 ebp, esp
  00003	0f b7 45 08	 movzx	 eax, WORD PTR _nIDTemplate$[ebp]
  00007	89 45 08	 mov	 DWORD PTR _nIDTemplate$[ebp], eax
  0000a	5d		 pop	 ebp
  0000b	e9 00 00 00 00	 jmp	 ?Create@CDialog@@UAEHPBDPAVCWnd@@@Z ; CDialog::Create
?Create@CDialog@@UAEHIPAVCWnd@@@Z ENDP			; CDialog::Create
_TEXT	ENDS
; Function compile flags: /Ogtp
; File C:\Program Files (x86)\Microsoft Visual Studio\2019\Community\VC\Tools\MSVC\14.29.30133\atlmfc\include\afxwin2.inl
;	COMDAT ?EndModalState@CWnd@@UAEXXZ
_TEXT	SEGMENT
?EndModalState@CWnd@@UAEXXZ PROC			; CWnd::EndModalState, COMDAT
; _this$ = ecx

; 567  : 	{ ::EnableWindow(m_hWnd, TRUE); }

  00000	6a 01		 push	 1
  00002	ff 71 20	 push	 DWORD PTR [ecx+32]
  00005	ff 15 00 00 00
	00		 call	 DWORD PTR __imp__EnableWindow@8
  0000b	c3		 ret	 0
?EndModalState@CWnd@@UAEXXZ ENDP			; CWnd::EndModalState
_TEXT	ENDS
; Function compile flags: /Ogtp
; File C:\Program Files (x86)\Microsoft Visual Studio\2019\Community\VC\Tools\MSVC\14.29.30133\atlmfc\include\afxwin2.inl
;	COMDAT ?BeginModalState@CWnd@@UAEXXZ
_TEXT	SEGMENT
?BeginModalState@CWnd@@UAEXXZ PROC			; CWnd::BeginModalState, COMDAT
; _this$ = ecx

; 565  : 	{ ::EnableWindow(m_hWnd, FALSE); }

  00000	6a 00		 push	 0
  00002	ff 71 20	 push	 DWORD PTR [ecx+32]
  00005	ff 15 00 00 00
	00		 call	 DWORD PTR __imp__EnableWindow@8
  0000b	c3		 ret	 0
?BeginModalState@CWnd@@UAEXXZ ENDP			; CWnd::BeginModalState
_TEXT	ENDS
; Function compile flags: /Ogtp
; File C:\Program Files (x86)\Microsoft Visual Studio\2019\Community\VC\Tools\MSVC\14.29.30133\atlmfc\include\afxwin2.inl
;	COMDAT ?DoDataExchange@CWnd@@MAEXPAVCDataExchange@@@Z
_TEXT	SEGMENT
___formal$ = 8						; size = 4
?DoDataExchange@CWnd@@MAEXPAVCDataExchange@@@Z PROC	; CWnd::DoDataExchange, COMDAT
; _this$ = ecx

; 561  : 	{ } // default does nothing

  00000	c2 04 00	 ret	 4
?DoDataExchange@CWnd@@MAEXPAVCDataExchange@@@Z ENDP	; CWnd::DoDataExchange
_TEXT	ENDS
; Function compile flags: /Ogtp
; File C:\Program Files (x86)\Microsoft Visual Studio\2019\Community\VC\Tools\MSVC\14.29.30133\atlmfc\include\afx.inl
;	COMDAT ?Dump@CObject@@UBEXAAVCDumpContext@@@Z
_TEXT	SEGMENT
___formal$ = 8						; size = 4
?Dump@CObject@@UBEXAAVCDumpContext@@@Z PROC		; CObject::Dump, COMDAT
; _this$ = ecx

; 122  : 	{ /* no dumping in release builds */ }

  00000	c2 04 00	 ret	 4
?Dump@CObject@@UBEXAAVCDumpContext@@@Z ENDP		; CObject::Dump
_TEXT	ENDS
; Function compile flags: /Ogtp
; File C:\Program Files (x86)\Microsoft Visual Studio\2019\Community\VC\Tools\MSVC\14.29.30133\atlmfc\include\afx.inl
;	COMDAT ?AssertValid@CObject@@UBEXXZ
_TEXT	SEGMENT
?AssertValid@CObject@@UBEXXZ PROC			; CObject::AssertValid, COMDAT
; _this$ = ecx

; 120  : 	{ /* no asserts in release builds */ }

  00000	c2 00 00	 ret	 0
?AssertValid@CObject@@UBEXXZ ENDP			; CObject::AssertValid
_TEXT	ENDS
; Function compile flags: /Ogtp
; File C:\Program Files (x86)\Microsoft Visual Studio\2019\Community\VC\Tools\MSVC\14.29.30133\atlmfc\include\afx.inl
;	COMDAT ?Serialize@CObject@@UAEXAAVCArchive@@@Z
_TEXT	SEGMENT
___formal$ = 8						; size = 4
?Serialize@CObject@@UAEXAAVCArchive@@@Z PROC		; CObject::Serialize, COMDAT
; _this$ = ecx

; 106  : 	{ /* CObject does not serialize anything by default */ }

  00000	c2 04 00	 ret	 4
?Serialize@CObject@@UAEXAAVCArchive@@@Z ENDP		; CObject::Serialize
_TEXT	ENDS
; Function compile flags: /Ogtp
; File D:\git\src\IBK\IBK_DRFN\ProjSrc\SrcChartEx\ChartAddIn\ChartDesignPropertyAddIn\ChartDesignPropertyAddIn\NumericalInquiryOptionDlg.cpp
;	COMDAT ?__empty_global_delete@@YAXPAXI@Z
_TEXT	SEGMENT
___formal$ = 8						; size = 4
___formal$ = 12						; size = 4
?__empty_global_delete@@YAXPAXI@Z PROC			; __empty_global_delete, COMDAT

  00000	c2 00 00	 ret	 0
?__empty_global_delete@@YAXPAXI@Z ENDP			; __empty_global_delete
_TEXT	ENDS
; Function compile flags: /Ogtp
; File D:\git\src\IBK\IBK_DRFN\ProjSrc\SrcChartEx\ChartAddIn\ChartDesignPropertyAddIn\ChartDesignPropertyAddIn\NumericalInquiryOptionDlg.cpp
;	COMDAT ?__empty_global_delete@@YAXPAX@Z
_TEXT	SEGMENT
___formal$ = 8						; size = 4
?__empty_global_delete@@YAXPAX@Z PROC			; __empty_global_delete, COMDAT

  00000	c2 00 00	 ret	 0
?__empty_global_delete@@YAXPAX@Z ENDP			; __empty_global_delete
_TEXT	ENDS
END
