; Listing generated by Microsoft (R) Optimizing Compiler Version 19.29.30145.0 

	TITLE	D:\git\src\IBK\IBK_DRFN\#DRfn-CS\_Obj\ChartDesignPropertyAddIn\PacketSuperGrid.obj
	.686P
	.XMM
	include listing.inc
	.model	flat

INCLUDELIB MSVCRT
INCLUDELIB OLDNAMES

PUBLIC	?__empty_global_delete@@YAXPAX@Z		; __empty_global_delete
PUBLIC	?__empty_global_delete@@YAXPAXI@Z		; __empty_global_delete
PUBLIC	??1CObject@@UAE@XZ				; CObject::~CObject
PUBLIC	??3CObject@@SGXPAX@Z				; CObject::operator delete
PUBLIC	?Serialize@CObject@@UAEXAAVCArchive@@@Z		; CObject::Serialize
PUBLIC	?AssertValid@CObject@@UBEXXZ			; CObject::AssertValid
PUBLIC	?Dump@CObject@@UBEXAAVCDumpContext@@@Z		; CObject::Dump
PUBLIC	?DoDataExchange@CWnd@@MAEXPAVCDataExchange@@@Z	; CWnd::DoDataExchange
PUBLIC	?BeginModalState@CWnd@@UAEXXZ			; CWnd::BeginModalState
PUBLIC	?EndModalState@CWnd@@UAEXXZ			; CWnd::EndModalState
PUBLIC	??0CItemInfo@@QAE@XZ				; CItemInfo::CItemInfo
PUBLIC	?GetControlType@CItemInfo@@QBEHHAAW4CONTROLTYPE@1@@Z ; CItemInfo::GetControlType
PUBLIC	?GetListData@CItemInfo@@QBEHHAAPAVCStringList@@@Z ; CItemInfo::GetListData
PUBLIC	?CopyColors@CItemInfo@@QAEXPAV1@@Z		; CItemInfo::CopyColors
PUBLIC	??1CItemInfo@@UAE@XZ				; CItemInfo::~CItemInfo
PUBLIC	??0?$CMap@HHW4CONTROLTYPE@CItemInfo@@AAW412@@@QAE@H@Z ; CMap<int,int,enum CItemInfo::CONTROLTYPE,enum CItemInfo::CONTROLTYPE &>::CMap<int,int,enum CItemInfo::CONTROLTYPE,enum CItemInfo::CONTROLTYPE &>
PUBLIC	?Lookup@?$CMap@HHW4CONTROLTYPE@CItemInfo@@AAW412@@@QBEHHAAW4CONTROLTYPE@CItemInfo@@@Z ; CMap<int,int,enum CItemInfo::CONTROLTYPE,enum CItemInfo::CONTROLTYPE &>::Lookup
PUBLIC	??A?$CMap@HHW4CONTROLTYPE@CItemInfo@@AAW412@@@QAEAAW4CONTROLTYPE@CItemInfo@@H@Z ; CMap<int,int,enum CItemInfo::CONTROLTYPE,enum CItemInfo::CONTROLTYPE &>::operator[]
PUBLIC	?SetAt@?$CMap@HHW4CONTROLTYPE@CItemInfo@@AAW412@@@QAEXHAAW4CONTROLTYPE@CItemInfo@@@Z ; CMap<int,int,enum CItemInfo::CONTROLTYPE,enum CItemInfo::CONTROLTYPE &>::SetAt
PUBLIC	?RemoveAll@?$CMap@HHW4CONTROLTYPE@CItemInfo@@AAW412@@@QAEXXZ ; CMap<int,int,enum CItemInfo::CONTROLTYPE,enum CItemInfo::CONTROLTYPE &>::RemoveAll
PUBLIC	?InitHashTable@?$CMap@HHW4CONTROLTYPE@CItemInfo@@AAW412@@@QAEXIH@Z ; CMap<int,int,enum CItemInfo::CONTROLTYPE,enum CItemInfo::CONTROLTYPE &>::InitHashTable
PUBLIC	?NewAssoc@?$CMap@HHW4CONTROLTYPE@CItemInfo@@AAW412@@@IAEPAVCAssoc@1@H@Z ; CMap<int,int,enum CItemInfo::CONTROLTYPE,enum CItemInfo::CONTROLTYPE &>::NewAssoc
PUBLIC	?GetAssocAt@?$CMap@HHW4CONTROLTYPE@CItemInfo@@AAW412@@@IBEPAVCAssoc@1@HAAI0@Z ; CMap<int,int,enum CItemInfo::CONTROLTYPE,enum CItemInfo::CONTROLTYPE &>::GetAssocAt
PUBLIC	??1?$CMap@HHW4CONTROLTYPE@CItemInfo@@AAW412@@@UAE@XZ ; CMap<int,int,enum CItemInfo::CONTROLTYPE,enum CItemInfo::CONTROLTYPE &>::~CMap<int,int,enum CItemInfo::CONTROLTYPE,enum CItemInfo::CONTROLTYPE &>
PUBLIC	?Serialize@?$CMap@HHW4CONTROLTYPE@CItemInfo@@AAW412@@@UAEXAAVCArchive@@@Z ; CMap<int,int,enum CItemInfo::CONTROLTYPE,enum CItemInfo::CONTROLTYPE &>::Serialize
PUBLIC	??_G?$CMap@HHW4CONTROLTYPE@CItemInfo@@AAW412@@@UAEPAXI@Z ; CMap<int,int,enum CItemInfo::CONTROLTYPE,enum CItemInfo::CONTROLTYPE &>::`scalar deleting destructor'
PUBLIC	??0?$CMap@HHKAAK@@QAE@H@Z			; CMap<int,int,unsigned long,unsigned long &>::CMap<int,int,unsigned long,unsigned long &>
PUBLIC	?Lookup@?$CMap@HHKAAK@@QBEHHAAK@Z		; CMap<int,int,unsigned long,unsigned long &>::Lookup
PUBLIC	??A?$CMap@HHKAAK@@QAEAAKH@Z			; CMap<int,int,unsigned long,unsigned long &>::operator[]
PUBLIC	?RemoveAll@?$CMap@HHKAAK@@QAEXXZ		; CMap<int,int,unsigned long,unsigned long &>::RemoveAll
PUBLIC	?InitHashTable@?$CMap@HHKAAK@@QAEXIH@Z		; CMap<int,int,unsigned long,unsigned long &>::InitHashTable
PUBLIC	?NewAssoc@?$CMap@HHKAAK@@IAEPAVCAssoc@1@H@Z	; CMap<int,int,unsigned long,unsigned long &>::NewAssoc
PUBLIC	?GetAssocAt@?$CMap@HHKAAK@@IBEPAVCAssoc@1@HAAI0@Z ; CMap<int,int,unsigned long,unsigned long &>::GetAssocAt
PUBLIC	??1?$CMap@HHKAAK@@UAE@XZ			; CMap<int,int,unsigned long,unsigned long &>::~CMap<int,int,unsigned long,unsigned long &>
PUBLIC	?Serialize@?$CMap@HHKAAK@@UAEXAAVCArchive@@@Z	; CMap<int,int,unsigned long,unsigned long &>::Serialize
PUBLIC	??_G?$CMap@HHKAAK@@UAEPAXI@Z			; CMap<int,int,unsigned long,unsigned long &>::`scalar deleting destructor'
PUBLIC	??0?$CMap@HHPAVCStringList@@PAV1@@@QAE@H@Z	; CMap<int,int,CStringList *,CStringList *>::CMap<int,int,CStringList *,CStringList *>
PUBLIC	?Lookup@?$CMap@HHPAVCStringList@@PAV1@@@QBEHHAAPAVCStringList@@@Z ; CMap<int,int,CStringList *,CStringList *>::Lookup
PUBLIC	??A?$CMap@HHPAVCStringList@@PAV1@@@QAEAAPAVCStringList@@H@Z ; CMap<int,int,CStringList *,CStringList *>::operator[]
PUBLIC	?SetAt@?$CMap@HHPAVCStringList@@PAV1@@@QAEXHPAVCStringList@@@Z ; CMap<int,int,CStringList *,CStringList *>::SetAt
PUBLIC	?RemoveAll@?$CMap@HHPAVCStringList@@PAV1@@@QAEXXZ ; CMap<int,int,CStringList *,CStringList *>::RemoveAll
PUBLIC	?GetNextAssoc@?$CMap@HHPAVCStringList@@PAV1@@@QBEXAAPAU__POSITION@@AAHAAPAVCStringList@@@Z ; CMap<int,int,CStringList *,CStringList *>::GetNextAssoc
PUBLIC	?InitHashTable@?$CMap@HHPAVCStringList@@PAV1@@@QAEXIH@Z ; CMap<int,int,CStringList *,CStringList *>::InitHashTable
PUBLIC	?NewAssoc@?$CMap@HHPAVCStringList@@PAV1@@@IAEPAVCAssoc@1@H@Z ; CMap<int,int,CStringList *,CStringList *>::NewAssoc
PUBLIC	?GetAssocAt@?$CMap@HHPAVCStringList@@PAV1@@@IBEPAVCAssoc@1@HAAI0@Z ; CMap<int,int,CStringList *,CStringList *>::GetAssocAt
PUBLIC	??1?$CMap@HHPAVCStringList@@PAV1@@@UAE@XZ	; CMap<int,int,CStringList *,CStringList *>::~CMap<int,int,CStringList *,CStringList *>
PUBLIC	?Serialize@?$CMap@HHPAVCStringList@@PAV1@@@UAEXAAVCArchive@@@Z ; CMap<int,int,CStringList *,CStringList *>::Serialize
PUBLIC	??_G?$CMap@HHPAVCStringList@@PAV1@@@UAEPAXI@Z	; CMap<int,int,CStringList *,CStringList *>::`scalar deleting destructor'
PUBLIC	??_GCItemInfo@@UAEPAXI@Z			; CItemInfo::`scalar deleting destructor'
PUBLIC	??1CPacketUserDefine@@UAE@XZ			; CPacketUserDefine::~CPacketUserDefine
PUBLIC	??0CPacketSuperGrid@@QAE@XZ			; CPacketSuperGrid::CPacketSuperGrid
PUBLIC	?InitializeGrid@CPacketSuperGrid@@QAEXXZ	; CPacketSuperGrid::InitializeGrid
PUBLIC	?HowToInsertItemsAfterTheGridHasBeenInitialized@CPacketSuperGrid@@QAEXHHABV?$CStringT@DV?$StrTraitMFC_DLL@DV?$ChTraitsCRT@D@ATL@@@@@ATL@@0000@Z ; CPacketSuperGrid::HowToInsertItemsAfterTheGridHasBeenInitialized
PUBLIC	?CreateDragImageEx@CPacketSuperGrid@@UAEPAVCImageList@@H@Z ; CPacketSuperGrid::CreateDragImageEx
PUBLIC	?OnControlLButtonDown@CPacketSuperGrid@@UAEXIVCPoint@@AAUtagLVHITTESTINFO@@@Z ; CPacketSuperGrid::OnControlLButtonDown
PUBLIC	?OnUpdateListViewItem@CPacketSuperGrid@@UAEXPAVCTreeItem@CSuperGridCtrl@@PAUtagLVITEMA@@@Z ; CPacketSuperGrid::OnUpdateListViewItem
PUBLIC	?CopyData@CPacketSuperGrid@@UAEPAVCItemInfo@@PAV2@@Z ; CPacketSuperGrid::CopyData
PUBLIC	?GetIcon@CPacketSuperGrid@@UAEHPBVCTreeItem@CSuperGridCtrl@@@Z ; CPacketSuperGrid::GetIcon
PUBLIC	?GetCellRGB@CPacketSuperGrid@@UAEKXZ		; CPacketSuperGrid::GetCellRGB
PUBLIC	?OnItemExpanding@CPacketSuperGrid@@UAEHPAVCTreeItem@CSuperGridCtrl@@H@Z ; CPacketSuperGrid::OnItemExpanding
PUBLIC	?OnItemExpanded@CPacketSuperGrid@@UAEHPAVCTreeItem@CSuperGridCtrl@@H@Z ; CPacketSuperGrid::OnItemExpanded
PUBLIC	?OnCollapsing@CPacketSuperGrid@@UAEHPAVCTreeItem@CSuperGridCtrl@@@Z ; CPacketSuperGrid::OnCollapsing
PUBLIC	?OnItemCollapsed@CPacketSuperGrid@@UAEHPAVCTreeItem@CSuperGridCtrl@@@Z ; CPacketSuperGrid::OnItemCollapsed
PUBLIC	?OnDeleteItem@CPacketSuperGrid@@UAEHPAVCTreeItem@CSuperGridCtrl@@H@Z ; CPacketSuperGrid::OnDeleteItem
PUBLIC	?OnVkReturn@CPacketSuperGrid@@UAEHXZ		; CPacketSuperGrid::OnVkReturn
PUBLIC	?OnItemLButtonDown@CPacketSuperGrid@@UAEHAAUtagLVHITTESTINFO@@@Z ; CPacketSuperGrid::OnItemLButtonDown
PUBLIC	?AddItem@CPacketSuperGrid@@QAEXHABV?$CStringT@DV?$StrTraitMFC_DLL@DV?$ChTraitsCRT@D@ATL@@@@@ATL@@0000@Z ; CPacketSuperGrid::AddItem
PUBLIC	??1CPacketSuperGrid@@UAE@XZ			; CPacketSuperGrid::~CPacketSuperGrid
PUBLIC	?ShowList@CPacketSuperGrid@@IAEPAVCComboBox@@HHPAVCStringList@@@Z ; CPacketSuperGrid::ShowList
PUBLIC	?CalcHorzExtent@CPacketSuperGrid@@IAEHPAVCWnd@@PAVCStringList@@@Z ; CPacketSuperGrid::CalcHorzExtent
PUBLIC	?OnCreate@CPacketSuperGrid@@IAEHPAUtagCREATESTRUCTA@@@Z ; CPacketSuperGrid::OnCreate
PUBLIC	?OnDblclk@CPacketSuperGrid@@IAEXPAUtagNMHDR@@PAJ@Z ; CPacketSuperGrid::OnDblclk
PUBLIC	?GetThisMessageMap@CPacketSuperGrid@@KGPBUAFX_MSGMAP@@XZ ; CPacketSuperGrid::GetThisMessageMap
PUBLIC	?GetMessageMap@CPacketSuperGrid@@MBEPBUAFX_MSGMAP@@XZ ; CPacketSuperGrid::GetMessageMap
PUBLIC	?SetUserDefineRootInit@CPacketSuperGrid@@AAEXXZ	; CPacketSuperGrid::SetUserDefineRootInit
PUBLIC	?SetPacketRootInit@CPacketSuperGrid@@AAEXXZ	; CPacketSuperGrid::SetPacketRootInit
PUBLIC	?GetItemIndex@CPacketSuperGrid@@AAEHABV?$CStringT@DV?$StrTraitMFC_DLL@DV?$ChTraitsCRT@D@ATL@@@@@ATL@@@Z ; CPacketSuperGrid::GetItemIndex
PUBLIC	?SetColumnHeader@CPacketSuperGrid@@AAEXXZ	; CPacketSuperGrid::SetColumnHeader
PUBLIC	?SetRootItem@CPacketSuperGrid@@AAEXABV?$CStringT@DV?$StrTraitMFC_DLL@DV?$ChTraitsCRT@D@ATL@@@@@ATL@@PAVCItemInfo@@@Z ; CPacketSuperGrid::SetRootItem
PUBLIC	?SetSubItem@CPacketSuperGrid@@AAEXHABV?$CStringT@DV?$StrTraitMFC_DLL@DV?$ChTraitsCRT@D@ATL@@@@@ATL@@PAVCItemInfo@@@Z ; CPacketSuperGrid::SetSubItem
PUBLIC	?SetThirdSubItem@CPacketSuperGrid@@AAEXHABV?$CStringT@DV?$StrTraitMFC_DLL@DV?$ChTraitsCRT@D@ATL@@@@@ATL@@0PAVCItemInfo@@@Z ; CPacketSuperGrid::SetThirdSubItem
PUBLIC	?SetThirdEXCHANGERATEItem@CPacketSuperGrid@@AAEXABV?$CStringT@DV?$StrTraitMFC_DLL@DV?$ChTraitsCRT@D@ATL@@@@@ATL@@PAVCItemInfo@@@Z ; CPacketSuperGrid::SetThirdEXCHANGERATEItem
PUBLIC	?SetThirdSTOCKMULTIPLEItem@CPacketSuperGrid@@AAEXABV?$CStringT@DV?$StrTraitMFC_DLL@DV?$ChTraitsCRT@D@ATL@@@@@ATL@@PAVCItemInfo@@@Z ; CPacketSuperGrid::SetThirdSTOCKMULTIPLEItem
PUBLIC	?SetThirdVOLUMEItem@CPacketSuperGrid@@AAEXABV?$CStringT@DV?$StrTraitMFC_DLL@DV?$ChTraitsCRT@D@ATL@@@@@ATL@@0PAVCItemInfo@@@Z ; CPacketSuperGrid::SetThirdVOLUMEItem
PUBLIC	?SetThirdPRICEItem@CPacketSuperGrid@@AAEXABV?$CStringT@DV?$StrTraitMFC_DLL@DV?$ChTraitsCRT@D@ATL@@@@@ATL@@PAVCItemInfo@@@Z ; CPacketSuperGrid::SetThirdPRICEItem
PUBLIC	?SetThirdTEXTItem@CPacketSuperGrid@@AAEXABV?$CStringT@DV?$StrTraitMFC_DLL@DV?$ChTraitsCRT@D@ATL@@@@@ATL@@PAVCItemInfo@@@Z ; CPacketSuperGrid::SetThirdTEXTItem
PUBLIC	?SetThirdDATEItem@CPacketSuperGrid@@AAEXABV?$CStringT@DV?$StrTraitMFC_DLL@DV?$ChTraitsCRT@D@ATL@@@@@ATL@@PAVCItemInfo@@@Z ; CPacketSuperGrid::SetThirdDATEItem
PUBLIC	?SetFourSubItem@CPacketSuperGrid@@AAEXABV?$CStringT@DV?$StrTraitMFC_DLL@DV?$ChTraitsCRT@D@ATL@@@@@ATL@@PAVCItemInfo@@@Z ; CPacketSuperGrid::SetFourSubItem
PUBLIC	?GetDataType@CPacketSuperGrid@@AAE?AW4DATATYPE@1@H@Z ; CPacketSuperGrid::GetDataType
PUBLIC	??_GCPacketSuperGrid@@UAEPAXI@Z			; CPacketSuperGrid::`scalar deleting destructor'
PUBLIC	?LoadResourceDLL@IMetaTable@@QAEPAUHINSTANCE__@@PAUHWND__@@PAU2@@Z ; IMetaTable::LoadResourceDLL
PUBLIC	??1CMultiLanguageResourceSetter@@QAE@XZ		; CMultiLanguageResourceSetter::~CMultiLanguageResourceSetter
PUBLIC	??$SerializeElements@H@@YGXAAVCArchive@@PAHH@Z	; SerializeElements<int>
PUBLIC	??$SerializeElements@W4CONTROLTYPE@CItemInfo@@@@YGXAAVCArchive@@PAW4CONTROLTYPE@CItemInfo@@H@Z ; SerializeElements<enum CItemInfo::CONTROLTYPE>
PUBLIC	??$SerializeElements@K@@YGXAAVCArchive@@PAKH@Z	; SerializeElements<unsigned long>
PUBLIC	??$SerializeElements@PAVCStringList@@@@YGXAAVCArchive@@PAPAVCStringList@@H@Z ; SerializeElements<CStringList *>
PUBLIC	??$CompareElements@HH@@YGHPBH0@Z		; CompareElements<int,int>
PUBLIC	??_C@_00CNPNBAHC@@				; `string'
PUBLIC	??_R0?AVCObject@@@8				; CObject `RTTI Type Descriptor'
PUBLIC	??_R3CObject@@8					; CObject::`RTTI Class Hierarchy Descriptor'
PUBLIC	??_R2CObject@@8					; CObject::`RTTI Base Class Array'
PUBLIC	??_R1A@?0A@EA@CObject@@8			; CObject::`RTTI Base Class Descriptor at (0,-1,0,64)'
PUBLIC	??_R1A@?0A@EA@CWnd@@8				; CWnd::`RTTI Base Class Descriptor at (0,-1,0,64)'
PUBLIC	??_R0?AVCWnd@@@8				; CWnd `RTTI Type Descriptor'
PUBLIC	??_R3CWnd@@8					; CWnd::`RTTI Class Hierarchy Descriptor'
PUBLIC	??_R2CWnd@@8					; CWnd::`RTTI Base Class Array'
PUBLIC	??_R1A@?0A@EA@CCmdTarget@@8			; CCmdTarget::`RTTI Base Class Descriptor at (0,-1,0,64)'
PUBLIC	??_R0?AVCCmdTarget@@@8				; CCmdTarget `RTTI Type Descriptor'
PUBLIC	??_R3CCmdTarget@@8				; CCmdTarget::`RTTI Class Hierarchy Descriptor'
PUBLIC	??_R2CCmdTarget@@8				; CCmdTarget::`RTTI Base Class Array'
PUBLIC	??_R0?AVCListCtrl@@@8				; CListCtrl `RTTI Type Descriptor'
PUBLIC	??_R3CListCtrl@@8				; CListCtrl::`RTTI Class Hierarchy Descriptor'
PUBLIC	??_R2CListCtrl@@8				; CListCtrl::`RTTI Base Class Array'
PUBLIC	??_R1A@?0A@EA@CListCtrl@@8			; CListCtrl::`RTTI Base Class Descriptor at (0,-1,0,64)'
PUBLIC	??_7?$CMap@HHW4CONTROLTYPE@CItemInfo@@AAW412@@@6B@ ; CMap<int,int,enum CItemInfo::CONTROLTYPE,enum CItemInfo::CONTROLTYPE &>::`vftable'
PUBLIC	??_7?$CMap@HHKAAK@@6B@				; CMap<int,int,unsigned long,unsigned long &>::`vftable'
PUBLIC	??_7?$CMap@HHPAVCStringList@@PAV1@@@6B@		; CMap<int,int,CStringList *,CStringList *>::`vftable'
PUBLIC	??_7CItemInfo@@6B@				; CItemInfo::`vftable'
PUBLIC	??_7CPacketSuperGrid@@6B@			; CPacketSuperGrid::`vftable'
PUBLIC	??_C@_0BA@ENJOCHIO@LoadResourceDLL@		; `string'
PUBLIC	??_C@_08DKDJLCMP@YYYYMMDD@			; `string'
PUBLIC	??_C@_06NFMEGGNP@YYMMDD@			; `string'
PUBLIC	??_C@_06EBMMBHJD@YYYYMM@			; `string'
PUBLIC	??_C@_04IHEOMKKL@YYMM@				; `string'
PUBLIC	??_C@_04BDEGLLOH@MMDD@				; `string'
PUBLIC	??_C@_06LKFAFBM@MMDDHH@				; `string'
PUBLIC	??_C@_08KLIIINKM@MMDDHHMM@			; `string'
PUBLIC	??_C@_04MGPBCAHE@DDHH@				; `string'
PUBLIC	??_C@_06ENKIHFBA@DDHHMM@			; `string'
PUBLIC	??_C@_08JFMBEEDE@DDHHMMSS@			; `string'
PUBLIC	??_C@_06MAANBBPI@HHMMSS@			; `string'
PUBLIC	??_C@_03IOCAOJMC@x?51@				; `string'
PUBLIC	??_C@_06CNPPABAP@x?51000@			; `string'
PUBLIC	??_C@_05GMCIGKAN@x?50?41@			; `string'
PUBLIC	??_C@_06LJECDJFC@x?50?401@			; `string'
PUBLIC	??_C@_07ECEDBPGE@x?50?4001@			; `string'
PUBLIC	??_C@_08INACILNL@x?50?40001@			; `string'
PUBLIC	??_C@_0L@ECCMEODJ@x?50?4000001@			; `string'
PUBLIC	??_C@_05NLDHLCFD@x?5100@			; `string'
PUBLIC	??_C@_08LLCNCMF@x?5100000@			; `string'
PUBLIC	??_C@_0M@KADAKFP@x?5100000000@			; `string'
PUBLIC	??_C@_04JNBHFDJC@x?51?$CF@			; `string'
PUBLIC	??_C@_07GNCPKCAG@x?50?401?$CF@			; `string'
PUBLIC	??_C@_06JGCOIEDA@x?50?41?$CF@			; `string'
PUBLIC	??_C@_01EPMOAMKG@$@				; `string'
PUBLIC	??_C@_02KGFALILJ@?$KB?M@			; `string'
PUBLIC	??_C@_02LPELIJPI@?$KB?L@			; `string'
PUBLIC	??_C@_06LFBENNGP@Packet@			; `string'
PUBLIC	??_R4CItemInfo@@6B@				; CItemInfo::`RTTI Complete Object Locator'
PUBLIC	??_R0?AVCItemInfo@@@8				; CItemInfo `RTTI Type Descriptor'
PUBLIC	??_R3CItemInfo@@8				; CItemInfo::`RTTI Class Hierarchy Descriptor'
PUBLIC	??_R2CItemInfo@@8				; CItemInfo::`RTTI Base Class Array'
PUBLIC	??_R1A@?0A@EA@CItemInfo@@8			; CItemInfo::`RTTI Base Class Descriptor at (0,-1,0,64)'
PUBLIC	??_R4?$CMap@HHW4CONTROLTYPE@CItemInfo@@AAW412@@@6B@ ; CMap<int,int,enum CItemInfo::CONTROLTYPE,enum CItemInfo::CONTROLTYPE &>::`RTTI Complete Object Locator'
PUBLIC	??_R0?AV?$CMap@HHW4CONTROLTYPE@CItemInfo@@AAW412@@@@8 ; CMap<int,int,enum CItemInfo::CONTROLTYPE,enum CItemInfo::CONTROLTYPE &> `RTTI Type Descriptor'
PUBLIC	??_R3?$CMap@HHW4CONTROLTYPE@CItemInfo@@AAW412@@@8 ; CMap<int,int,enum CItemInfo::CONTROLTYPE,enum CItemInfo::CONTROLTYPE &>::`RTTI Class Hierarchy Descriptor'
PUBLIC	??_R2?$CMap@HHW4CONTROLTYPE@CItemInfo@@AAW412@@@8 ; CMap<int,int,enum CItemInfo::CONTROLTYPE,enum CItemInfo::CONTROLTYPE &>::`RTTI Base Class Array'
PUBLIC	??_R1A@?0A@EA@?$CMap@HHW4CONTROLTYPE@CItemInfo@@AAW412@@@8 ; CMap<int,int,enum CItemInfo::CONTROLTYPE,enum CItemInfo::CONTROLTYPE &>::`RTTI Base Class Descriptor at (0,-1,0,64)'
PUBLIC	??_R4?$CMap@HHKAAK@@6B@				; CMap<int,int,unsigned long,unsigned long &>::`RTTI Complete Object Locator'
PUBLIC	??_R0?AV?$CMap@HHKAAK@@@8			; CMap<int,int,unsigned long,unsigned long &> `RTTI Type Descriptor'
PUBLIC	??_R3?$CMap@HHKAAK@@8				; CMap<int,int,unsigned long,unsigned long &>::`RTTI Class Hierarchy Descriptor'
PUBLIC	??_R2?$CMap@HHKAAK@@8				; CMap<int,int,unsigned long,unsigned long &>::`RTTI Base Class Array'
PUBLIC	??_R1A@?0A@EA@?$CMap@HHKAAK@@8			; CMap<int,int,unsigned long,unsigned long &>::`RTTI Base Class Descriptor at (0,-1,0,64)'
PUBLIC	??_R4?$CMap@HHPAVCStringList@@PAV1@@@6B@	; CMap<int,int,CStringList *,CStringList *>::`RTTI Complete Object Locator'
PUBLIC	??_R0?AV?$CMap@HHPAVCStringList@@PAV1@@@@8	; CMap<int,int,CStringList *,CStringList *> `RTTI Type Descriptor'
PUBLIC	??_R3?$CMap@HHPAVCStringList@@PAV1@@@8		; CMap<int,int,CStringList *,CStringList *>::`RTTI Class Hierarchy Descriptor'
PUBLIC	??_R2?$CMap@HHPAVCStringList@@PAV1@@@8		; CMap<int,int,CStringList *,CStringList *>::`RTTI Base Class Array'
PUBLIC	??_R1A@?0A@EA@?$CMap@HHPAVCStringList@@PAV1@@@8	; CMap<int,int,CStringList *,CStringList *>::`RTTI Base Class Descriptor at (0,-1,0,64)'
PUBLIC	??_R4CPacketSuperGrid@@6B@			; CPacketSuperGrid::`RTTI Complete Object Locator'
PUBLIC	??_R0?AVCPacketSuperGrid@@@8			; CPacketSuperGrid `RTTI Type Descriptor'
PUBLIC	??_R3CPacketSuperGrid@@8			; CPacketSuperGrid::`RTTI Class Hierarchy Descriptor'
PUBLIC	??_R2CPacketSuperGrid@@8			; CPacketSuperGrid::`RTTI Base Class Array'
PUBLIC	??_R1A@?0A@EA@CPacketSuperGrid@@8		; CPacketSuperGrid::`RTTI Base Class Descriptor at (0,-1,0,64)'
PUBLIC	??_R1A@?0A@EA@CSuperGridCtrl@@8			; CSuperGridCtrl::`RTTI Base Class Descriptor at (0,-1,0,64)'
PUBLIC	??_R0?AVCSuperGridCtrl@@@8			; CSuperGridCtrl `RTTI Type Descriptor'
PUBLIC	??_R3CSuperGridCtrl@@8				; CSuperGridCtrl::`RTTI Class Hierarchy Descriptor'
PUBLIC	??_R2CSuperGridCtrl@@8				; CSuperGridCtrl::`RTTI Base Class Array'
PUBLIC	__xmm@00000064000000320000005a00000096
EXTRN	??2@YAPAXI@Z:PROC				; operator new
EXTRN	??3@YAXPAX@Z:PROC				; operator delete
EXTRN	?__global_delete@@YAXPAXI@Z:PROC		; __global_delete
EXTRN	??_U@YAPAXI@Z:PROC				; operator new[]
EXTRN	??_V@YAXPAX@Z:PROC				; operator delete[]
EXTRN	___std_terminate:PROC
EXTRN	__imp__GetProcAddress@8:PROC
EXTRN	__imp__GetTextExtentPoint32A@16:PROC
EXTRN	__imp__SendMessageA@16:PROC
EXTRN	__imp__PostMessageA@16:PROC
EXTRN	__imp__EnableWindow@8:PROC
EXTRN	__imp__UpdateWindow@4:PROC
EXTRN	__imp__GetDC@4:PROC
EXTRN	__imp__ReleaseDC@8:PROC
EXTRN	__imp__InvalidateRect@12:PROC
EXTRN	__imp__GetClientRect@8:PROC
EXTRN	__imp__GetParent@4:PROC
EXTRN	__imp__ImageList_GetIconSize@12:PROC
EXTRN	?AfxThrowInvalidArgException@@YGXXZ:PROC	; AfxThrowInvalidArgException
EXTRN	?AfxThrowArchiveException@@YGXHPBD@Z:PROC	; AfxThrowArchiveException
EXTRN	?GetRuntimeClass@CObject@@UBEPAUCRuntimeClass@@XZ:PROC ; CObject::GetRuntimeClass
EXTRN	__imp_?GetBuffer@?$CSimpleStringT@D$00@ATL@@QAEPADH@Z:PROC
EXTRN	__imp_??0?$CStringT@DV?$StrTraitMFC_DLL@DV?$ChTraitsCRT@D@ATL@@@@@ATL@@QAE@XZ:PROC
EXTRN	__imp_??0?$CStringT@DV?$StrTraitMFC_DLL@DV?$ChTraitsCRT@D@ATL@@@@@ATL@@QAE@ABV01@@Z:PROC
EXTRN	__imp_??0?$CStringT@DV?$StrTraitMFC_DLL@DV?$ChTraitsCRT@D@ATL@@@@@ATL@@QAE@PBD@Z:PROC
EXTRN	__imp_??1?$CStringT@DV?$StrTraitMFC_DLL@DV?$ChTraitsCRT@D@ATL@@@@@ATL@@QAE@XZ:PROC
EXTRN	__imp_??4?$CStringT@DV?$StrTraitMFC_DLL@DV?$ChTraitsCRT@D@ATL@@@@@ATL@@QAEAAV01@ABV01@@Z:PROC
EXTRN	__imp_??4?$CStringT@DV?$StrTraitMFC_DLL@DV?$ChTraitsCRT@D@ATL@@@@@ATL@@QAEAAV01@PBD@Z:PROC
EXTRN	__imp_?Compare@?$CStringT@DV?$StrTraitMFC_DLL@DV?$ChTraitsCRT@D@ATL@@@@@ATL@@QBEHPBD@Z:PROC
EXTRN	__imp_?CompareNoCase@?$CStringT@DV?$StrTraitMFC_DLL@DV?$ChTraitsCRT@D@ATL@@@@@ATL@@QBEHPBD@Z:PROC
EXTRN	__imp_?LoadStringA@?$CStringT@DV?$StrTraitMFC_DLL@DV?$ChTraitsCRT@D@ATL@@@@@ATL@@QAEHI@Z:PROC
EXTRN	?Read@CArchive@@QAEIPAXI@Z:PROC			; CArchive::Read
EXTRN	?Write@CArchive@@QAEXPBXI@Z:PROC		; CArchive::Write
EXTRN	?ReadCount@CArchive@@QAEKXZ:PROC		; CArchive::ReadCount
EXTRN	?WriteCount@CArchive@@QAEXK@Z:PROC		; CArchive::WriteCount
EXTRN	??0CStringArray@@QAE@XZ:PROC			; CStringArray::CStringArray
EXTRN	?SetAtGrow@CStringArray@@QAEXHABV?$CStringT@DV?$StrTraitMFC_DLL@DV?$ChTraitsCRT@D@ATL@@@@@ATL@@@Z:PROC ; CStringArray::SetAtGrow
EXTRN	?Copy@CStringArray@@QAEXABV1@@Z:PROC		; CStringArray::Copy
EXTRN	??1CStringArray@@UAE@XZ:PROC			; CStringArray::~CStringArray
EXTRN	??0CStringList@@QAE@H@Z:PROC			; CStringList::CStringList
EXTRN	?AddTail@CStringList@@QAEPAU__POSITION@@PBD@Z:PROC ; CStringList::AddTail
EXTRN	?AddTail@CStringList@@QAEXPAV1@@Z:PROC		; CStringList::AddTail
EXTRN	?RemoveAll@CStringList@@QAEXXZ:PROC		; CStringList::RemoveAll
EXTRN	??1CStringList@@UAE@XZ:PROC			; CStringList::~CStringList
EXTRN	?AfxGetModuleState@@YGPAVAFX_MODULE_STATE@@XZ:PROC ; AfxGetModuleState
EXTRN	?AfxGetStaticModuleState@@YGPAVAFX_MODULE_STATE@@XZ:PROC ; AfxGetStaticModuleState
EXTRN	?Create@CPlex@@SGPAU1@AAPAU1@II@Z:PROC		; CPlex::Create
EXTRN	?FreeDataChain@CPlex@@QAEXXZ:PROC		; CPlex::FreeDataChain
EXTRN	?FromHandle@CGdiObject@@SGPAV1@PAX@Z:PROC	; CGdiObject::FromHandle
EXTRN	?FromHandle@CDC@@SGPAV1@PAUHDC__@@@Z:PROC	; CDC::FromHandle
EXTRN	??0CImageList@@QAE@XZ:PROC			; CImageList::CImageList
EXTRN	?Create@CImageList@@QAEHIHHK@Z:PROC		; CImageList::Create
EXTRN	?FromHandle@CImageList@@SGPAV1@PAU_IMAGELIST@@@Z:PROC ; CImageList::FromHandle
EXTRN	??1CImageList@@UAE@XZ:PROC			; CImageList::~CImageList
EXTRN	?OnCmdMsg@CCmdTarget@@UAEHIHPAXPAUAFX_CMDHANDLERINFO@@@Z:PROC ; CCmdTarget::OnCmdMsg
EXTRN	?IsInvokeAllowed@CCmdTarget@@UAEHJ@Z:PROC	; CCmdTarget::IsInvokeAllowed
EXTRN	?GetDispatchIID@CCmdTarget@@UAEHPAU_GUID@@@Z:PROC ; CCmdTarget::GetDispatchIID
EXTRN	?GetTypeInfoCount@CCmdTarget@@UAEIXZ:PROC	; CCmdTarget::GetTypeInfoCount
EXTRN	?GetTypeLibCache@CCmdTarget@@UAEPAVCTypeLibCache@@XZ:PROC ; CCmdTarget::GetTypeLibCache
EXTRN	?GetTypeLib@CCmdTarget@@UAEJKPAPAUITypeLib@@@Z:PROC ; CCmdTarget::GetTypeLib
EXTRN	?GetCommandMap@CCmdTarget@@MBEPBUAFX_OLECMDMAP@@XZ:PROC ; CCmdTarget::GetCommandMap
EXTRN	?GetDispatchMap@CCmdTarget@@MBEPBUAFX_DISPMAP@@XZ:PROC ; CCmdTarget::GetDispatchMap
EXTRN	?GetConnectionMap@CCmdTarget@@MBEPBUAFX_CONNECTIONMAP@@XZ:PROC ; CCmdTarget::GetConnectionMap
EXTRN	?GetEventSinkMap@CCmdTarget@@MBEPBUAFX_EVENTSINKMAP@@XZ:PROC ; CCmdTarget::GetEventSinkMap
EXTRN	?OnCreateAggregates@CCmdTarget@@UAEHXZ:PROC	; CCmdTarget::OnCreateAggregates
EXTRN	?GetInterfaceHook@CCmdTarget@@UAEPAUIUnknown@@PBX@Z:PROC ; CCmdTarget::GetInterfaceHook
EXTRN	?GetExtraConnectionPoints@CCmdTarget@@MAEHPAVCPtrArray@@@Z:PROC ; CCmdTarget::GetExtraConnectionPoints
EXTRN	?GetConnectionHook@CCmdTarget@@MAEPAUIConnectionPoint@@ABU_GUID@@@Z:PROC ; CCmdTarget::GetConnectionHook
EXTRN	?ModifyStyleEx@CWnd@@QAEHKKI@Z:PROC		; CWnd::ModifyStyleEx
EXTRN	?FromHandle@CWnd@@SGPAV1@PAUHWND__@@@Z:PROC	; CWnd::FromHandle
EXTRN	?PreSubclassWindow@CWnd@@UAEXXZ:PROC		; CWnd::PreSubclassWindow
EXTRN	?Create@CWnd@@UAEHPBD0KABUtagRECT@@PAV1@IPAUCCreateContext@@@Z:PROC ; CWnd::Create
EXTRN	?CreateEx@CWnd@@UAEHKPBD0KHHHHPAUHWND__@@PAUHMENU__@@PAX@Z:PROC ; CWnd::CreateEx
EXTRN	?CreateEx@CWnd@@UAEHKPBD0KABUtagRECT@@PAV1@IPAX@Z:PROC ; CWnd::CreateEx
EXTRN	?DestroyWindow@CWnd@@UAEHXZ:PROC		; CWnd::DestroyWindow
EXTRN	?CalcWindowRect@CWnd@@UAEXPAUtagRECT@@I@Z:PROC	; CWnd::CalcWindowRect
EXTRN	?GetDlgItem@CWnd@@QBEPAV1@H@Z:PROC		; CWnd::GetDlgItem
EXTRN	?GetMenu@CWnd@@UBEPAVCMenu@@XZ:PROC		; CWnd::GetMenu
EXTRN	?SetMenu@CWnd@@UAEHPAVCMenu@@@Z:PROC		; CWnd::SetMenu
EXTRN	?OnToolHitTest@CWnd@@UBEHVCPoint@@PAUtagTOOLINFOA@@@Z:PROC ; CWnd::OnToolHitTest
EXTRN	?GetScrollBarCtrl@CWnd@@UBEPAVCScrollBar@@H@Z:PROC ; CWnd::GetScrollBarCtrl
EXTRN	?WinHelpA@CWnd@@UAEXKI@Z:PROC			; CWnd::WinHelpA
EXTRN	?HtmlHelpA@CWnd@@UAEXKI@Z:PROC			; CWnd::HtmlHelpA
EXTRN	?WinHelpInternal@CWnd@@UAEXKI@Z:PROC		; CWnd::WinHelpInternal
EXTRN	?ContinueModal@CWnd@@UAEHXZ:PROC		; CWnd::ContinueModal
EXTRN	?EndModalLoop@CWnd@@UAEXH@Z:PROC		; CWnd::EndModalLoop
EXTRN	?OnDrawIconicThumbnailOrLivePreview@CWnd@@UAEXAAVCDC@@VCRect@@VCSize@@HAAH@Z:PROC ; CWnd::OnDrawIconicThumbnailOrLivePreview
EXTRN	?GetInterfaceMap@CWnd@@MBEPBUAFX_INTERFACEMAP@@XZ:PROC ; CWnd::GetInterfaceMap
EXTRN	?EnsureStdObj@CWnd@@UAEJXZ:PROC			; CWnd::EnsureStdObj
EXTRN	?get_accParent@CWnd@@UAEJPAPAUIDispatch@@@Z:PROC ; CWnd::get_accParent
EXTRN	?get_accChildCount@CWnd@@UAEJPAJ@Z:PROC		; CWnd::get_accChildCount
EXTRN	?get_accChild@CWnd@@UAEJUtagVARIANT@@PAPAUIDispatch@@@Z:PROC ; CWnd::get_accChild
EXTRN	?get_accName@CWnd@@UAEJUtagVARIANT@@PAPA_W@Z:PROC ; CWnd::get_accName
EXTRN	?get_accValue@CWnd@@UAEJUtagVARIANT@@PAPA_W@Z:PROC ; CWnd::get_accValue
EXTRN	?get_accDescription@CWnd@@UAEJUtagVARIANT@@PAPA_W@Z:PROC ; CWnd::get_accDescription
EXTRN	?get_accRole@CWnd@@UAEJUtagVARIANT@@PAU2@@Z:PROC ; CWnd::get_accRole
EXTRN	?get_accState@CWnd@@UAEJUtagVARIANT@@PAU2@@Z:PROC ; CWnd::get_accState
EXTRN	?get_accHelp@CWnd@@UAEJUtagVARIANT@@PAPA_W@Z:PROC ; CWnd::get_accHelp
EXTRN	?get_accHelpTopic@CWnd@@UAEJPAPA_WUtagVARIANT@@PAJ@Z:PROC ; CWnd::get_accHelpTopic
EXTRN	?get_accKeyboardShortcut@CWnd@@UAEJUtagVARIANT@@PAPA_W@Z:PROC ; CWnd::get_accKeyboardShortcut
EXTRN	?get_accFocus@CWnd@@UAEJPAUtagVARIANT@@@Z:PROC	; CWnd::get_accFocus
EXTRN	?get_accSelection@CWnd@@UAEJPAUtagVARIANT@@@Z:PROC ; CWnd::get_accSelection
EXTRN	?get_accDefaultAction@CWnd@@UAEJUtagVARIANT@@PAPA_W@Z:PROC ; CWnd::get_accDefaultAction
EXTRN	?accSelect@CWnd@@UAEJJUtagVARIANT@@@Z:PROC	; CWnd::accSelect
EXTRN	?accLocation@CWnd@@UAEJPAJ000UtagVARIANT@@@Z:PROC ; CWnd::accLocation
EXTRN	?accNavigate@CWnd@@UAEJJUtagVARIANT@@PAU2@@Z:PROC ; CWnd::accNavigate
EXTRN	?accHitTest@CWnd@@UAEJJJPAUtagVARIANT@@@Z:PROC	; CWnd::accHitTest
EXTRN	?accDoDefaultAction@CWnd@@UAEJUtagVARIANT@@@Z:PROC ; CWnd::accDoDefaultAction
EXTRN	?put_accName@CWnd@@UAEJUtagVARIANT@@PA_W@Z:PROC	; CWnd::put_accName
EXTRN	?put_accValue@CWnd@@UAEJUtagVARIANT@@PA_W@Z:PROC ; CWnd::put_accValue
EXTRN	?SetProxy@CWnd@@UAEJPAUIAccessibleProxy@@@Z:PROC ; CWnd::SetProxy
EXTRN	?CreateAccessibleProxy@CWnd@@UAEJIJPAJ@Z:PROC	; CWnd::CreateAccessibleProxy
EXTRN	?OnCommand@CWnd@@MAEHIJ@Z:PROC			; CWnd::OnCommand
EXTRN	?OnNotify@CWnd@@MAEHIJPAJ@Z:PROC		; CWnd::OnNotify
EXTRN	?GetSuperWndProcAddr@CWnd@@MAEPAP6GJPAUHWND__@@IIJ@ZXZ:PROC ; CWnd::GetSuperWndProcAddr
EXTRN	?OnAmbientProperty@CWnd@@UAEHPAVCOleControlSite@@JPAUtagVARIANT@@@Z:PROC ; CWnd::OnAmbientProperty
EXTRN	?WindowProc@CWnd@@MAEJIIJ@Z:PROC		; CWnd::WindowProc
EXTRN	?OnWndMsg@CWnd@@MAEHIIJPAJ@Z:PROC		; CWnd::OnWndMsg
EXTRN	?DefWindowProcA@CWnd@@MAEJIIJ@Z:PROC		; CWnd::DefWindowProcA
EXTRN	?PostNcDestroy@CWnd@@MAEXXZ:PROC		; CWnd::PostNcDestroy
EXTRN	?OnTouchInputs@CWnd@@MAEHIPAUtagTOUCHINPUT@@@Z:PROC ; CWnd::OnTouchInputs
EXTRN	?OnTouchInput@CWnd@@MAEHVCPoint@@HHPAUtagTOUCHINPUT@@@Z:PROC ; CWnd::OnTouchInput
EXTRN	?GetGestureStatus@CWnd@@MAEKVCPoint@@@Z:PROC	; CWnd::GetGestureStatus
EXTRN	?OnGestureZoom@CWnd@@MAEHVCPoint@@J@Z:PROC	; CWnd::OnGestureZoom
EXTRN	?OnGesturePan@CWnd@@MAEHVCPoint@@0@Z:PROC	; CWnd::OnGesturePan
EXTRN	?OnGestureRotate@CWnd@@MAEHVCPoint@@N@Z:PROC	; CWnd::OnGestureRotate
EXTRN	?OnGestureTwoFingerTap@CWnd@@MAEHVCPoint@@@Z:PROC ; CWnd::OnGestureTwoFingerTap
EXTRN	?OnGesturePressAndTap@CWnd@@MAEHVCPoint@@J@Z:PROC ; CWnd::OnGesturePressAndTap
EXTRN	?ResizeDynamicLayout@CWnd@@MAEXXZ:PROC		; CWnd::ResizeDynamicLayout
EXTRN	?CheckAutoCenter@CWnd@@UAEHXZ:PROC		; CWnd::CheckAutoCenter
EXTRN	?IsFrameWnd@CWnd@@UBEHXZ:PROC			; CWnd::IsFrameWnd
EXTRN	?OnFinalRelease@CWnd@@UAEXXZ:PROC		; CWnd::OnFinalRelease
EXTRN	?CreateControlContainer@CWnd@@MAEHPAPAVCOleControlContainer@@@Z:PROC ; CWnd::CreateControlContainer
EXTRN	?CreateControlSite@CWnd@@MAEHPAVCOleControlContainer@@PAPAVCOleControlSite@@IABU_GUID@@@Z:PROC ; CWnd::CreateControlSite
EXTRN	?SetOccDialogInfo@CWnd@@MAEHPAU_AFX_OCC_DIALOG_INFO@@@Z:PROC ; CWnd::SetOccDialogInfo
EXTRN	?GetOccDialogInfo@CWnd@@MAEPAU_AFX_OCC_DIALOG_INFO@@XZ:PROC ; CWnd::GetOccDialogInfo
EXTRN	?DoModal@CDialog@@UAEHXZ:PROC			; CDialog::DoModal
EXTRN	??1CDialog@@UAE@XZ:PROC				; CDialog::~CDialog
EXTRN	??1CComboBox@@UAE@XZ:PROC			; CComboBox::~CComboBox
EXTRN	?GetRuntimeClass@CListCtrl@@UBEPAUCRuntimeClass@@XZ:PROC ; CListCtrl::GetRuntimeClass
EXTRN	?SetItemState@CListCtrl@@QAEHHII@Z:PROC		; CListCtrl::SetItemState
EXTRN	?GetItemText@CListCtrl@@QBE?AV?$CStringT@DV?$StrTraitMFC_DLL@DV?$ChTraitsCRT@D@ATL@@@@@ATL@@HH@Z:PROC ; CListCtrl::GetItemText
EXTRN	?GetSubItemRect@CListCtrl@@QBEHHHHAAVCRect@@@Z:PROC ; CListCtrl::GetSubItemRect
EXTRN	?OnChildNotify@CListCtrl@@MAEHIIJPAJ@Z:PROC	; CListCtrl::OnChildNotify
EXTRN	??_E?$CMap@HHW4CONTROLTYPE@CItemInfo@@AAW412@@@UAEPAXI@Z:PROC ; CMap<int,int,enum CItemInfo::CONTROLTYPE,enum CItemInfo::CONTROLTYPE &>::`vector deleting destructor'
EXTRN	??_E?$CMap@HHKAAK@@UAEPAXI@Z:PROC		; CMap<int,int,unsigned long,unsigned long &>::`vector deleting destructor'
EXTRN	??_E?$CMap@HHPAVCStringList@@PAV1@@@UAEPAXI@Z:PROC ; CMap<int,int,CStringList *,CStringList *>::`vector deleting destructor'
EXTRN	??_ECItemInfo@@UAEPAXI@Z:PROC			; CItemInfo::`vector deleting destructor'
EXTRN	??0CSuperGridCtrl@@QAE@XZ:PROC			; CSuperGridCtrl::CSuperGridCtrl
EXTRN	?OnUpdateListViewItem@CSuperGridCtrl@@UAEXPAVCTreeItem@1@PAUtagLVITEMA@@@Z:PROC ; CSuperGridCtrl::OnUpdateListViewItem
EXTRN	?CreateDragImageEx@CSuperGridCtrl@@UAEPAVCImageList@@H@Z:PROC ; CSuperGridCtrl::CreateDragImageEx
EXTRN	?OnVKMultiply@CSuperGridCtrl@@UAEHPAVCTreeItem@1@H@Z:PROC ; CSuperGridCtrl::OnVKMultiply
EXTRN	?OnVkSubTract@CSuperGridCtrl@@UAEHPAVCTreeItem@1@H@Z:PROC ; CSuperGridCtrl::OnVkSubTract
EXTRN	?OnVKAdd@CSuperGridCtrl@@UAEHPAVCTreeItem@1@H@Z:PROC ; CSuperGridCtrl::OnVKAdd
EXTRN	?InsertRootItem@CSuperGridCtrl@@QAEPAVCTreeItem@1@PAVCItemInfo@@@Z:PROC ; CSuperGridCtrl::InsertRootItem
EXTRN	?GetSelectedItem@CSuperGridCtrl@@QBEHXZ:PROC	; CSuperGridCtrl::GetSelectedItem
EXTRN	?GetTreeItem@CSuperGridCtrl@@QAEPAVCTreeItem@1@H@Z:PROC ; CSuperGridCtrl::GetTreeItem
EXTRN	?ItemHasChildren@CSuperGridCtrl@@QBEHPBVCTreeItem@1@@Z:PROC ; CSuperGridCtrl::ItemHasChildren
EXTRN	?IsCollapsed@CSuperGridCtrl@@QBEHPBVCTreeItem@1@@Z:PROC ; CSuperGridCtrl::IsCollapsed
EXTRN	?GetData@CSuperGridCtrl@@QAEPAVCItemInfo@@PBVCTreeItem@1@@Z:PROC ; CSuperGridCtrl::GetData
EXTRN	?InsertItem@CSuperGridCtrl@@QAEPAVCTreeItem@1@PAV21@PAVCItemInfo@@H@Z:PROC ; CSuperGridCtrl::InsertItem
EXTRN	?Expand@CSuperGridCtrl@@QAEHPAVCTreeItem@1@H@Z:PROC ; CSuperGridCtrl::Expand
EXTRN	?GetNumCol@CSuperGridCtrl@@QAEHXZ:PROC		; CSuperGridCtrl::GetNumCol
EXTRN	?PreTranslateMessage@CSuperGridCtrl@@UAEHPAUtagMSG@@@Z:PROC ; CSuperGridCtrl::PreTranslateMessage
EXTRN	?PreCreateWindow@CSuperGridCtrl@@MAEHAAUtagCREATESTRUCTA@@@Z:PROC ; CSuperGridCtrl::PreCreateWindow
EXTRN	?InsertItemToListCtrl@CSuperGridCtrl@@QAEXPAVCTreeItem@1@0PAVCItemInfo@@H@Z:PROC ; CSuperGridCtrl::InsertItemToListCtrl
EXTRN	?InsertRootItemToListCtrl@CSuperGridCtrl@@QAEXPAVCTreeItem@1@@Z:PROC ; CSuperGridCtrl::InsertRootItemToListCtrl
EXTRN	??1CSuperGridCtrl@@UAE@XZ:PROC			; CSuperGridCtrl::~CSuperGridCtrl
EXTRN	?NodeToIndex@CSuperGridCtrl@@IAEHPAVCTreeItem@1@@Z:PROC ; CSuperGridCtrl::NodeToIndex
EXTRN	?OnDblclk@CSuperGridCtrl@@IAEXPAUtagNMHDR@@PAJ@Z:PROC ; CSuperGridCtrl::OnDblclk
EXTRN	?OnCreate@CSuperGridCtrl@@IAEHPAUtagCREATESTRUCTA@@@Z:PROC ; CSuperGridCtrl::OnCreate
EXTRN	?DrawItem@CSuperGridCtrl@@MAEXPAUtagDRAWITEMSTRUCT@@@Z:PROC ; CSuperGridCtrl::DrawItem
EXTRN	?GetThisMessageMap@CSuperGridCtrl@@KGPBUAFX_MSGMAP@@XZ:PROC ; CSuperGridCtrl::GetThisMessageMap
EXTRN	??0CPacketUserDefine@@QAE@PAUHWND__@@PAVCWnd@@@Z:PROC ; CPacketUserDefine::CPacketUserDefine
EXTRN	??_ECPacketSuperGrid@@UAEPAXI@Z:PROC		; CPacketSuperGrid::`vector deleting destructor'
EXTRN	??0CComboInListView@@QAE@HHPAVCStringList@@@Z:PROC ; CComboInListView::CComboInListView
EXTRN	?GetReceivedAllDataFromOcx@CPacketPage@@QAE?AV?$CStringT@DV?$StrTraitMFC_DLL@DV?$ChTraitsCRT@D@ATL@@@@@ATL@@XZ:PROC ; CPacketPage::GetReceivedAllDataFromOcx
EXTRN	?GetLanguageText@IMetaTable@@QAEPBDPAUHWND__@@W4E_CODEPAGE@1@PBDH@Z:PROC ; IMetaTable::GetLanguageText
EXTRN	@__security_check_cookie@4:PROC
EXTRN	___CxxFrameHandler3:PROC
EXTRN	_memset:PROC
EXTRN	??_7type_info@@6B@:QWORD			; type_info::`vftable'
EXTRN	?g_iMetaTable@@3VIMetaTable@@A:BYTE		; g_iMetaTable
EXTRN	?NUM_PACKETNAMEITEM@@3HB:DWORD			; NUM_PACKETNAMEITEM
EXTRN	?ePacketNameItem@@3PAW4E_METACODE@IMetaTable@@A:BYTE ; ePacketNameItem
EXTRN	___security_cookie:DWORD
;	COMDAT __xmm@00000064000000320000005a00000096
CONST	SEGMENT
__xmm@00000064000000320000005a00000096 DB 096H, 00H, 00H, 00H, 'Z', 00H, 00H
	DB	00H, '2', 00H, 00H, 00H, 'd', 00H, 00H, 00H
CONST	ENDS
;	COMDAT ??_R2CSuperGridCtrl@@8
rdata$r	SEGMENT
??_R2CSuperGridCtrl@@8 DD FLAT:??_R1A@?0A@EA@CSuperGridCtrl@@8 ; CSuperGridCtrl::`RTTI Base Class Array'
	DD	FLAT:??_R1A@?0A@EA@CListCtrl@@8
	DD	FLAT:??_R1A@?0A@EA@CWnd@@8
	DD	FLAT:??_R1A@?0A@EA@CCmdTarget@@8
	DD	FLAT:??_R1A@?0A@EA@CObject@@8
rdata$r	ENDS
;	COMDAT ??_R3CSuperGridCtrl@@8
rdata$r	SEGMENT
??_R3CSuperGridCtrl@@8 DD 00H				; CSuperGridCtrl::`RTTI Class Hierarchy Descriptor'
	DD	00H
	DD	05H
	DD	FLAT:??_R2CSuperGridCtrl@@8
rdata$r	ENDS
;	COMDAT ??_R0?AVCSuperGridCtrl@@@8
data$rs	SEGMENT
??_R0?AVCSuperGridCtrl@@@8 DD FLAT:??_7type_info@@6B@	; CSuperGridCtrl `RTTI Type Descriptor'
	DD	00H
	DB	'.?AVCSuperGridCtrl@@', 00H
data$rs	ENDS
;	COMDAT ??_R1A@?0A@EA@CSuperGridCtrl@@8
rdata$r	SEGMENT
??_R1A@?0A@EA@CSuperGridCtrl@@8 DD FLAT:??_R0?AVCSuperGridCtrl@@@8 ; CSuperGridCtrl::`RTTI Base Class Descriptor at (0,-1,0,64)'
	DD	04H
	DD	00H
	DD	0ffffffffH
	DD	00H
	DD	040H
	DD	FLAT:??_R3CSuperGridCtrl@@8
rdata$r	ENDS
;	COMDAT ??_R1A@?0A@EA@CPacketSuperGrid@@8
rdata$r	SEGMENT
??_R1A@?0A@EA@CPacketSuperGrid@@8 DD FLAT:??_R0?AVCPacketSuperGrid@@@8 ; CPacketSuperGrid::`RTTI Base Class Descriptor at (0,-1,0,64)'
	DD	05H
	DD	00H
	DD	0ffffffffH
	DD	00H
	DD	040H
	DD	FLAT:??_R3CPacketSuperGrid@@8
rdata$r	ENDS
;	COMDAT ??_R2CPacketSuperGrid@@8
rdata$r	SEGMENT
??_R2CPacketSuperGrid@@8 DD FLAT:??_R1A@?0A@EA@CPacketSuperGrid@@8 ; CPacketSuperGrid::`RTTI Base Class Array'
	DD	FLAT:??_R1A@?0A@EA@CSuperGridCtrl@@8
	DD	FLAT:??_R1A@?0A@EA@CListCtrl@@8
	DD	FLAT:??_R1A@?0A@EA@CWnd@@8
	DD	FLAT:??_R1A@?0A@EA@CCmdTarget@@8
	DD	FLAT:??_R1A@?0A@EA@CObject@@8
rdata$r	ENDS
;	COMDAT ??_R3CPacketSuperGrid@@8
rdata$r	SEGMENT
??_R3CPacketSuperGrid@@8 DD 00H				; CPacketSuperGrid::`RTTI Class Hierarchy Descriptor'
	DD	00H
	DD	06H
	DD	FLAT:??_R2CPacketSuperGrid@@8
rdata$r	ENDS
;	COMDAT ??_R0?AVCPacketSuperGrid@@@8
data$rs	SEGMENT
??_R0?AVCPacketSuperGrid@@@8 DD FLAT:??_7type_info@@6B@	; CPacketSuperGrid `RTTI Type Descriptor'
	DD	00H
	DB	'.?AVCPacketSuperGrid@@', 00H
data$rs	ENDS
;	COMDAT ??_R4CPacketSuperGrid@@6B@
rdata$r	SEGMENT
??_R4CPacketSuperGrid@@6B@ DD 00H			; CPacketSuperGrid::`RTTI Complete Object Locator'
	DD	00H
	DD	00H
	DD	FLAT:??_R0?AVCPacketSuperGrid@@@8
	DD	FLAT:??_R3CPacketSuperGrid@@8
rdata$r	ENDS
;	COMDAT ??_R1A@?0A@EA@?$CMap@HHPAVCStringList@@PAV1@@@8
rdata$r	SEGMENT
??_R1A@?0A@EA@?$CMap@HHPAVCStringList@@PAV1@@@8 DD FLAT:??_R0?AV?$CMap@HHPAVCStringList@@PAV1@@@@8 ; CMap<int,int,CStringList *,CStringList *>::`RTTI Base Class Descriptor at (0,-1,0,64)'
	DD	01H
	DD	00H
	DD	0ffffffffH
	DD	00H
	DD	040H
	DD	FLAT:??_R3?$CMap@HHPAVCStringList@@PAV1@@@8
rdata$r	ENDS
;	COMDAT ??_R2?$CMap@HHPAVCStringList@@PAV1@@@8
rdata$r	SEGMENT
??_R2?$CMap@HHPAVCStringList@@PAV1@@@8 DD FLAT:??_R1A@?0A@EA@?$CMap@HHPAVCStringList@@PAV1@@@8 ; CMap<int,int,CStringList *,CStringList *>::`RTTI Base Class Array'
	DD	FLAT:??_R1A@?0A@EA@CObject@@8
rdata$r	ENDS
;	COMDAT ??_R3?$CMap@HHPAVCStringList@@PAV1@@@8
rdata$r	SEGMENT
??_R3?$CMap@HHPAVCStringList@@PAV1@@@8 DD 00H		; CMap<int,int,CStringList *,CStringList *>::`RTTI Class Hierarchy Descriptor'
	DD	00H
	DD	02H
	DD	FLAT:??_R2?$CMap@HHPAVCStringList@@PAV1@@@8
rdata$r	ENDS
;	COMDAT ??_R0?AV?$CMap@HHPAVCStringList@@PAV1@@@@8
data$rs	SEGMENT
??_R0?AV?$CMap@HHPAVCStringList@@PAV1@@@@8 DD FLAT:??_7type_info@@6B@ ; CMap<int,int,CStringList *,CStringList *> `RTTI Type Descriptor'
	DD	00H
	DB	'.?AV?$CMap@HHPAVCStringList@@PAV1@@@', 00H
data$rs	ENDS
;	COMDAT ??_R4?$CMap@HHPAVCStringList@@PAV1@@@6B@
rdata$r	SEGMENT
??_R4?$CMap@HHPAVCStringList@@PAV1@@@6B@ DD 00H		; CMap<int,int,CStringList *,CStringList *>::`RTTI Complete Object Locator'
	DD	00H
	DD	00H
	DD	FLAT:??_R0?AV?$CMap@HHPAVCStringList@@PAV1@@@@8
	DD	FLAT:??_R3?$CMap@HHPAVCStringList@@PAV1@@@8
rdata$r	ENDS
;	COMDAT ??_R1A@?0A@EA@?$CMap@HHKAAK@@8
rdata$r	SEGMENT
??_R1A@?0A@EA@?$CMap@HHKAAK@@8 DD FLAT:??_R0?AV?$CMap@HHKAAK@@@8 ; CMap<int,int,unsigned long,unsigned long &>::`RTTI Base Class Descriptor at (0,-1,0,64)'
	DD	01H
	DD	00H
	DD	0ffffffffH
	DD	00H
	DD	040H
	DD	FLAT:??_R3?$CMap@HHKAAK@@8
rdata$r	ENDS
;	COMDAT ??_R2?$CMap@HHKAAK@@8
rdata$r	SEGMENT
??_R2?$CMap@HHKAAK@@8 DD FLAT:??_R1A@?0A@EA@?$CMap@HHKAAK@@8 ; CMap<int,int,unsigned long,unsigned long &>::`RTTI Base Class Array'
	DD	FLAT:??_R1A@?0A@EA@CObject@@8
rdata$r	ENDS
;	COMDAT ??_R3?$CMap@HHKAAK@@8
rdata$r	SEGMENT
??_R3?$CMap@HHKAAK@@8 DD 00H				; CMap<int,int,unsigned long,unsigned long &>::`RTTI Class Hierarchy Descriptor'
	DD	00H
	DD	02H
	DD	FLAT:??_R2?$CMap@HHKAAK@@8
rdata$r	ENDS
;	COMDAT ??_R0?AV?$CMap@HHKAAK@@@8
data$rs	SEGMENT
??_R0?AV?$CMap@HHKAAK@@@8 DD FLAT:??_7type_info@@6B@	; CMap<int,int,unsigned long,unsigned long &> `RTTI Type Descriptor'
	DD	00H
	DB	'.?AV?$CMap@HHKAAK@@', 00H
data$rs	ENDS
;	COMDAT ??_R4?$CMap@HHKAAK@@6B@
rdata$r	SEGMENT
??_R4?$CMap@HHKAAK@@6B@ DD 00H				; CMap<int,int,unsigned long,unsigned long &>::`RTTI Complete Object Locator'
	DD	00H
	DD	00H
	DD	FLAT:??_R0?AV?$CMap@HHKAAK@@@8
	DD	FLAT:??_R3?$CMap@HHKAAK@@8
rdata$r	ENDS
;	COMDAT ??_R1A@?0A@EA@?$CMap@HHW4CONTROLTYPE@CItemInfo@@AAW412@@@8
rdata$r	SEGMENT
??_R1A@?0A@EA@?$CMap@HHW4CONTROLTYPE@CItemInfo@@AAW412@@@8 DD FLAT:??_R0?AV?$CMap@HHW4CONTROLTYPE@CItemInfo@@AAW412@@@@8 ; CMap<int,int,enum CItemInfo::CONTROLTYPE,enum CItemInfo::CONTROLTYPE &>::`RTTI Base Class Descriptor at (0,-1,0,64)'
	DD	01H
	DD	00H
	DD	0ffffffffH
	DD	00H
	DD	040H
	DD	FLAT:??_R3?$CMap@HHW4CONTROLTYPE@CItemInfo@@AAW412@@@8
rdata$r	ENDS
;	COMDAT ??_R2?$CMap@HHW4CONTROLTYPE@CItemInfo@@AAW412@@@8
rdata$r	SEGMENT
??_R2?$CMap@HHW4CONTROLTYPE@CItemInfo@@AAW412@@@8 DD FLAT:??_R1A@?0A@EA@?$CMap@HHW4CONTROLTYPE@CItemInfo@@AAW412@@@8 ; CMap<int,int,enum CItemInfo::CONTROLTYPE,enum CItemInfo::CONTROLTYPE &>::`RTTI Base Class Array'
	DD	FLAT:??_R1A@?0A@EA@CObject@@8
rdata$r	ENDS
;	COMDAT ??_R3?$CMap@HHW4CONTROLTYPE@CItemInfo@@AAW412@@@8
rdata$r	SEGMENT
??_R3?$CMap@HHW4CONTROLTYPE@CItemInfo@@AAW412@@@8 DD 00H ; CMap<int,int,enum CItemInfo::CONTROLTYPE,enum CItemInfo::CONTROLTYPE &>::`RTTI Class Hierarchy Descriptor'
	DD	00H
	DD	02H
	DD	FLAT:??_R2?$CMap@HHW4CONTROLTYPE@CItemInfo@@AAW412@@@8
rdata$r	ENDS
;	COMDAT ??_R0?AV?$CMap@HHW4CONTROLTYPE@CItemInfo@@AAW412@@@@8
data$rs	SEGMENT
??_R0?AV?$CMap@HHW4CONTROLTYPE@CItemInfo@@AAW412@@@@8 DD FLAT:??_7type_info@@6B@ ; CMap<int,int,enum CItemInfo::CONTROLTYPE,enum CItemInfo::CONTROLTYPE &> `RTTI Type Descriptor'
	DD	00H
	DB	'.?AV?$CMap@HHW4CONTROLTYPE@CItemInfo@@AAW412@@@', 00H
data$rs	ENDS
;	COMDAT ??_R4?$CMap@HHW4CONTROLTYPE@CItemInfo@@AAW412@@@6B@
rdata$r	SEGMENT
??_R4?$CMap@HHW4CONTROLTYPE@CItemInfo@@AAW412@@@6B@ DD 00H ; CMap<int,int,enum CItemInfo::CONTROLTYPE,enum CItemInfo::CONTROLTYPE &>::`RTTI Complete Object Locator'
	DD	00H
	DD	00H
	DD	FLAT:??_R0?AV?$CMap@HHW4CONTROLTYPE@CItemInfo@@AAW412@@@@8
	DD	FLAT:??_R3?$CMap@HHW4CONTROLTYPE@CItemInfo@@AAW412@@@8
rdata$r	ENDS
;	COMDAT ??_R1A@?0A@EA@CItemInfo@@8
rdata$r	SEGMENT
??_R1A@?0A@EA@CItemInfo@@8 DD FLAT:??_R0?AVCItemInfo@@@8 ; CItemInfo::`RTTI Base Class Descriptor at (0,-1,0,64)'
	DD	01H
	DD	00H
	DD	0ffffffffH
	DD	00H
	DD	040H
	DD	FLAT:??_R3CItemInfo@@8
rdata$r	ENDS
;	COMDAT ??_R2CItemInfo@@8
rdata$r	SEGMENT
??_R2CItemInfo@@8 DD FLAT:??_R1A@?0A@EA@CItemInfo@@8	; CItemInfo::`RTTI Base Class Array'
	DD	FLAT:??_R1A@?0A@EA@CObject@@8
rdata$r	ENDS
;	COMDAT ??_R3CItemInfo@@8
rdata$r	SEGMENT
??_R3CItemInfo@@8 DD 00H				; CItemInfo::`RTTI Class Hierarchy Descriptor'
	DD	00H
	DD	02H
	DD	FLAT:??_R2CItemInfo@@8
rdata$r	ENDS
;	COMDAT ??_R0?AVCItemInfo@@@8
data$rs	SEGMENT
??_R0?AVCItemInfo@@@8 DD FLAT:??_7type_info@@6B@	; CItemInfo `RTTI Type Descriptor'
	DD	00H
	DB	'.?AVCItemInfo@@', 00H
data$rs	ENDS
;	COMDAT ??_R4CItemInfo@@6B@
rdata$r	SEGMENT
??_R4CItemInfo@@6B@ DD 00H				; CItemInfo::`RTTI Complete Object Locator'
	DD	00H
	DD	00H
	DD	FLAT:??_R0?AVCItemInfo@@@8
	DD	FLAT:??_R3CItemInfo@@8
rdata$r	ENDS
;	COMDAT ??_C@_06LFBENNGP@Packet@
CONST	SEGMENT
??_C@_06LFBENNGP@Packet@ DB 'Packet', 00H		; `string'
CONST	ENDS
;	COMDAT ??_C@_02LPELIJPI@?$KB?L@
CONST	SEGMENT
??_C@_02LPELIJPI@?$KB?L@ DB 0a1H, 0ccH, 00H		; `string'
CONST	ENDS
;	COMDAT ??_C@_02KGFALILJ@?$KB?M@
CONST	SEGMENT
??_C@_02KGFALILJ@?$KB?M@ DB 0a1H, 0cdH, 00H		; `string'
CONST	ENDS
;	COMDAT ??_C@_01EPMOAMKG@$@
CONST	SEGMENT
??_C@_01EPMOAMKG@$@ DB '$', 00H				; `string'
CONST	ENDS
;	COMDAT ??_C@_06JGCOIEDA@x?50?41?$CF@
CONST	SEGMENT
??_C@_06JGCOIEDA@x?50?41?$CF@ DB 'x 0.1%', 00H		; `string'
CONST	ENDS
;	COMDAT ??_C@_07GNCPKCAG@x?50?401?$CF@
CONST	SEGMENT
??_C@_07GNCPKCAG@x?50?401?$CF@ DB 'x 0.01%', 00H	; `string'
CONST	ENDS
;	COMDAT ??_C@_04JNBHFDJC@x?51?$CF@
CONST	SEGMENT
??_C@_04JNBHFDJC@x?51?$CF@ DB 'x 1%', 00H		; `string'
CONST	ENDS
;	COMDAT ??_C@_0M@KADAKFP@x?5100000000@
CONST	SEGMENT
??_C@_0M@KADAKFP@x?5100000000@ DB 'x 100000000', 00H	; `string'
CONST	ENDS
;	COMDAT ??_C@_08LLCNCMF@x?5100000@
CONST	SEGMENT
??_C@_08LLCNCMF@x?5100000@ DB 'x 100000', 00H		; `string'
CONST	ENDS
;	COMDAT ??_C@_05NLDHLCFD@x?5100@
CONST	SEGMENT
??_C@_05NLDHLCFD@x?5100@ DB 'x 100', 00H		; `string'
CONST	ENDS
;	COMDAT ??_C@_0L@ECCMEODJ@x?50?4000001@
CONST	SEGMENT
??_C@_0L@ECCMEODJ@x?50?4000001@ DB 'x 0.000001', 00H	; `string'
CONST	ENDS
;	COMDAT ??_C@_08INACILNL@x?50?40001@
CONST	SEGMENT
??_C@_08INACILNL@x?50?40001@ DB 'x 0.0001', 00H		; `string'
CONST	ENDS
;	COMDAT ??_C@_07ECEDBPGE@x?50?4001@
CONST	SEGMENT
??_C@_07ECEDBPGE@x?50?4001@ DB 'x 0.001', 00H		; `string'
CONST	ENDS
;	COMDAT ??_C@_06LJECDJFC@x?50?401@
CONST	SEGMENT
??_C@_06LJECDJFC@x?50?401@ DB 'x 0.01', 00H		; `string'
CONST	ENDS
;	COMDAT ??_C@_05GMCIGKAN@x?50?41@
CONST	SEGMENT
??_C@_05GMCIGKAN@x?50?41@ DB 'x 0.1', 00H		; `string'
CONST	ENDS
;	COMDAT ??_C@_06CNPPABAP@x?51000@
CONST	SEGMENT
??_C@_06CNPPABAP@x?51000@ DB 'x 1000', 00H		; `string'
CONST	ENDS
;	COMDAT ??_C@_03IOCAOJMC@x?51@
CONST	SEGMENT
??_C@_03IOCAOJMC@x?51@ DB 'x 1', 00H			; `string'
CONST	ENDS
;	COMDAT ??_C@_06MAANBBPI@HHMMSS@
CONST	SEGMENT
??_C@_06MAANBBPI@HHMMSS@ DB 'HHMMSS', 00H		; `string'
CONST	ENDS
;	COMDAT ??_C@_08JFMBEEDE@DDHHMMSS@
CONST	SEGMENT
??_C@_08JFMBEEDE@DDHHMMSS@ DB 'DDHHMMSS', 00H		; `string'
CONST	ENDS
;	COMDAT ??_C@_06ENKIHFBA@DDHHMM@
CONST	SEGMENT
??_C@_06ENKIHFBA@DDHHMM@ DB 'DDHHMM', 00H		; `string'
CONST	ENDS
;	COMDAT ??_C@_04MGPBCAHE@DDHH@
CONST	SEGMENT
??_C@_04MGPBCAHE@DDHH@ DB 'DDHH', 00H			; `string'
CONST	ENDS
;	COMDAT ??_C@_08KLIIINKM@MMDDHHMM@
CONST	SEGMENT
??_C@_08KLIIINKM@MMDDHHMM@ DB 'MMDDHHMM', 00H		; `string'
CONST	ENDS
;	COMDAT ??_C@_06LKFAFBM@MMDDHH@
CONST	SEGMENT
??_C@_06LKFAFBM@MMDDHH@ DB 'MMDDHH', 00H		; `string'
CONST	ENDS
;	COMDAT ??_C@_04BDEGLLOH@MMDD@
CONST	SEGMENT
??_C@_04BDEGLLOH@MMDD@ DB 'MMDD', 00H			; `string'
CONST	ENDS
;	COMDAT ??_C@_04IHEOMKKL@YYMM@
CONST	SEGMENT
??_C@_04IHEOMKKL@YYMM@ DB 'YYMM', 00H			; `string'
CONST	ENDS
;	COMDAT ??_C@_06EBMMBHJD@YYYYMM@
CONST	SEGMENT
??_C@_06EBMMBHJD@YYYYMM@ DB 'YYYYMM', 00H		; `string'
CONST	ENDS
;	COMDAT ??_C@_06NFMEGGNP@YYMMDD@
CONST	SEGMENT
??_C@_06NFMEGGNP@YYMMDD@ DB 'YYMMDD', 00H		; `string'
CONST	ENDS
;	COMDAT ??_C@_08DKDJLCMP@YYYYMMDD@
CONST	SEGMENT
??_C@_08DKDJLCMP@YYYYMMDD@ DB 'YYYYMMDD', 00H		; `string'
CONST	ENDS
;	COMDAT ?messageMap@?1??GetThisMessageMap@CPacketSuperGrid@@KGPBUAFX_MSGMAP@@XZ@4U3@B
CONST	SEGMENT
?messageMap@?1??GetThisMessageMap@CPacketSuperGrid@@KGPBUAFX_MSGMAP@@XZ@4U3@B DD FLAT:?GetThisMessageMap@CSuperGridCtrl@@KGPBUAFX_MSGMAP@@XZ ; `CPacketSuperGrid::GetThisMessageMap'::`2'::messageMap
	DD	FLAT:?_messageEntries@?1??GetThisMessageMap@CPacketSuperGrid@@KGPBUAFX_MSGMAP@@XZ@4QBUAFX_MSGMAP_ENTRY@@B
CONST	ENDS
;	COMDAT ?_messageEntries@?1??GetThisMessageMap@CPacketSuperGrid@@KGPBUAFX_MSGMAP@@XZ@4QBUAFX_MSGMAP_ENTRY@@B
CONST	SEGMENT
?_messageEntries@?1??GetThisMessageMap@CPacketSuperGrid@@KGPBUAFX_MSGMAP@@XZ@4QBUAFX_MSGMAP_ENTRY@@B DD 01H ; `CPacketSuperGrid::GetThisMessageMap'::`2'::_messageEntries
	DD	00H
	DD	00H
	DD	00H
	DD	0dH
	DD	FLAT:?OnCreate@CPacketSuperGrid@@IAEHPAUtagCREATESTRUCTA@@@Z
	DD	0bc4eH
	DD	0fffdH
	DD	00H
	DD	00H
	DD	03eH
	DD	FLAT:?OnDblclk@CPacketSuperGrid@@IAEXPAUtagNMHDR@@PAJ@Z
	DD	00H
	DD	00H
	DD	00H
	DD	00H
	DD	00H
	DD	00H
CONST	ENDS
;	COMDAT ??_C@_0BA@ENJOCHIO@LoadResourceDLL@
CONST	SEGMENT
??_C@_0BA@ENJOCHIO@LoadResourceDLL@ DB 'LoadResourceDLL', 00H ; `string'
CONST	ENDS
;	COMDAT ??_7CPacketSuperGrid@@6B@
CONST	SEGMENT
??_7CPacketSuperGrid@@6B@ DD FLAT:??_R4CPacketSuperGrid@@6B@ ; CPacketSuperGrid::`vftable'
	DD	FLAT:?GetRuntimeClass@CListCtrl@@UBEPAUCRuntimeClass@@XZ
	DD	FLAT:??_ECPacketSuperGrid@@UAEPAXI@Z
	DD	FLAT:?Serialize@CObject@@UAEXAAVCArchive@@@Z
	DD	FLAT:?AssertValid@CObject@@UBEXXZ
	DD	FLAT:?Dump@CObject@@UBEXAAVCDumpContext@@@Z
	DD	FLAT:?OnCmdMsg@CCmdTarget@@UAEHIHPAXPAUAFX_CMDHANDLERINFO@@@Z
	DD	FLAT:?OnFinalRelease@CWnd@@UAEXXZ
	DD	FLAT:?IsInvokeAllowed@CCmdTarget@@UAEHJ@Z
	DD	FLAT:?GetDispatchIID@CCmdTarget@@UAEHPAU_GUID@@@Z
	DD	FLAT:?GetTypeInfoCount@CCmdTarget@@UAEIXZ
	DD	FLAT:?GetTypeLibCache@CCmdTarget@@UAEPAVCTypeLibCache@@XZ
	DD	FLAT:?GetTypeLib@CCmdTarget@@UAEJKPAPAUITypeLib@@@Z
	DD	FLAT:?GetMessageMap@CPacketSuperGrid@@MBEPBUAFX_MSGMAP@@XZ
	DD	FLAT:?GetCommandMap@CCmdTarget@@MBEPBUAFX_OLECMDMAP@@XZ
	DD	FLAT:?GetDispatchMap@CCmdTarget@@MBEPBUAFX_DISPMAP@@XZ
	DD	FLAT:?GetConnectionMap@CCmdTarget@@MBEPBUAFX_CONNECTIONMAP@@XZ
	DD	FLAT:?GetInterfaceMap@CWnd@@MBEPBUAFX_INTERFACEMAP@@XZ
	DD	FLAT:?GetEventSinkMap@CCmdTarget@@MBEPBUAFX_EVENTSINKMAP@@XZ
	DD	FLAT:?OnCreateAggregates@CCmdTarget@@UAEHXZ
	DD	FLAT:?GetInterfaceHook@CCmdTarget@@UAEPAUIUnknown@@PBX@Z
	DD	FLAT:?GetExtraConnectionPoints@CCmdTarget@@MAEHPAVCPtrArray@@@Z
	DD	FLAT:?GetConnectionHook@CCmdTarget@@MAEPAUIConnectionPoint@@ABU_GUID@@@Z
	DD	FLAT:?PreSubclassWindow@CWnd@@UAEXXZ
	DD	FLAT:?Create@CWnd@@UAEHPBD0KABUtagRECT@@PAV1@IPAUCCreateContext@@@Z
	DD	FLAT:?CreateEx@CWnd@@UAEHKPBD0KABUtagRECT@@PAV1@IPAX@Z
	DD	FLAT:?CreateEx@CWnd@@UAEHKPBD0KHHHHPAUHWND__@@PAUHMENU__@@PAX@Z
	DD	FLAT:?DestroyWindow@CWnd@@UAEHXZ
	DD	FLAT:?PreCreateWindow@CSuperGridCtrl@@MAEHAAUtagCREATESTRUCTA@@@Z
	DD	FLAT:?CalcWindowRect@CWnd@@UAEXPAUtagRECT@@I@Z
	DD	FLAT:?GetMenu@CWnd@@UBEPAVCMenu@@XZ
	DD	FLAT:?SetMenu@CWnd@@UAEHPAVCMenu@@@Z
	DD	FLAT:?OnToolHitTest@CWnd@@UBEHVCPoint@@PAUtagTOOLINFOA@@@Z
	DD	FLAT:?GetScrollBarCtrl@CWnd@@UBEPAVCScrollBar@@H@Z
	DD	FLAT:?WinHelpA@CWnd@@UAEXKI@Z
	DD	FLAT:?HtmlHelpA@CWnd@@UAEXKI@Z
	DD	FLAT:?WinHelpInternal@CWnd@@UAEXKI@Z
	DD	FLAT:?ContinueModal@CWnd@@UAEHXZ
	DD	FLAT:?EndModalLoop@CWnd@@UAEXH@Z
	DD	FLAT:?OnDrawIconicThumbnailOrLivePreview@CWnd@@UAEXAAVCDC@@VCRect@@VCSize@@HAAH@Z
	DD	FLAT:?EnsureStdObj@CWnd@@UAEJXZ
	DD	FLAT:?get_accParent@CWnd@@UAEJPAPAUIDispatch@@@Z
	DD	FLAT:?get_accChildCount@CWnd@@UAEJPAJ@Z
	DD	FLAT:?get_accChild@CWnd@@UAEJUtagVARIANT@@PAPAUIDispatch@@@Z
	DD	FLAT:?get_accName@CWnd@@UAEJUtagVARIANT@@PAPA_W@Z
	DD	FLAT:?get_accValue@CWnd@@UAEJUtagVARIANT@@PAPA_W@Z
	DD	FLAT:?get_accDescription@CWnd@@UAEJUtagVARIANT@@PAPA_W@Z
	DD	FLAT:?get_accRole@CWnd@@UAEJUtagVARIANT@@PAU2@@Z
	DD	FLAT:?get_accState@CWnd@@UAEJUtagVARIANT@@PAU2@@Z
	DD	FLAT:?get_accHelp@CWnd@@UAEJUtagVARIANT@@PAPA_W@Z
	DD	FLAT:?get_accHelpTopic@CWnd@@UAEJPAPA_WUtagVARIANT@@PAJ@Z
	DD	FLAT:?get_accKeyboardShortcut@CWnd@@UAEJUtagVARIANT@@PAPA_W@Z
	DD	FLAT:?get_accFocus@CWnd@@UAEJPAUtagVARIANT@@@Z
	DD	FLAT:?get_accSelection@CWnd@@UAEJPAUtagVARIANT@@@Z
	DD	FLAT:?get_accDefaultAction@CWnd@@UAEJUtagVARIANT@@PAPA_W@Z
	DD	FLAT:?accSelect@CWnd@@UAEJJUtagVARIANT@@@Z
	DD	FLAT:?accLocation@CWnd@@UAEJPAJ000UtagVARIANT@@@Z
	DD	FLAT:?accNavigate@CWnd@@UAEJJUtagVARIANT@@PAU2@@Z
	DD	FLAT:?accHitTest@CWnd@@UAEJJJPAUtagVARIANT@@@Z
	DD	FLAT:?accDoDefaultAction@CWnd@@UAEJUtagVARIANT@@@Z
	DD	FLAT:?put_accName@CWnd@@UAEJUtagVARIANT@@PA_W@Z
	DD	FLAT:?put_accValue@CWnd@@UAEJUtagVARIANT@@PA_W@Z
	DD	FLAT:?SetProxy@CWnd@@UAEJPAUIAccessibleProxy@@@Z
	DD	FLAT:?CreateAccessibleProxy@CWnd@@UAEJIJPAJ@Z
	DD	FLAT:?OnCommand@CWnd@@MAEHIJ@Z
	DD	FLAT:?OnNotify@CWnd@@MAEHIJPAJ@Z
	DD	FLAT:?GetSuperWndProcAddr@CWnd@@MAEPAP6GJPAUHWND__@@IIJ@ZXZ
	DD	FLAT:?DoDataExchange@CWnd@@MAEXPAVCDataExchange@@@Z
	DD	FLAT:?BeginModalState@CWnd@@UAEXXZ
	DD	FLAT:?EndModalState@CWnd@@UAEXXZ
	DD	FLAT:?PreTranslateMessage@CSuperGridCtrl@@UAEHPAUtagMSG@@@Z
	DD	FLAT:?OnAmbientProperty@CWnd@@UAEHPAVCOleControlSite@@JPAUtagVARIANT@@@Z
	DD	FLAT:?WindowProc@CWnd@@MAEJIIJ@Z
	DD	FLAT:?OnWndMsg@CWnd@@MAEHIIJPAJ@Z
	DD	FLAT:?DefWindowProcA@CWnd@@MAEJIIJ@Z
	DD	FLAT:?PostNcDestroy@CWnd@@MAEXXZ
	DD	FLAT:?OnChildNotify@CListCtrl@@MAEHIIJPAJ@Z
	DD	FLAT:?OnTouchInputs@CWnd@@MAEHIPAUtagTOUCHINPUT@@@Z
	DD	FLAT:?OnTouchInput@CWnd@@MAEHVCPoint@@HHPAUtagTOUCHINPUT@@@Z
	DD	FLAT:?GetGestureStatus@CWnd@@MAEKVCPoint@@@Z
	DD	FLAT:?OnGestureZoom@CWnd@@MAEHVCPoint@@J@Z
	DD	FLAT:?OnGesturePan@CWnd@@MAEHVCPoint@@0@Z
	DD	FLAT:?OnGestureRotate@CWnd@@MAEHVCPoint@@N@Z
	DD	FLAT:?OnGestureTwoFingerTap@CWnd@@MAEHVCPoint@@@Z
	DD	FLAT:?OnGesturePressAndTap@CWnd@@MAEHVCPoint@@J@Z
	DD	FLAT:?ResizeDynamicLayout@CWnd@@MAEXXZ
	DD	FLAT:?CheckAutoCenter@CWnd@@UAEHXZ
	DD	FLAT:?IsFrameWnd@CWnd@@UBEHXZ
	DD	FLAT:?CreateControlContainer@CWnd@@MAEHPAPAVCOleControlContainer@@@Z
	DD	FLAT:?CreateControlSite@CWnd@@MAEHPAVCOleControlContainer@@PAPAVCOleControlSite@@IABU_GUID@@@Z
	DD	FLAT:?SetOccDialogInfo@CWnd@@MAEHPAU_AFX_OCC_DIALOG_INFO@@@Z
	DD	FLAT:?GetOccDialogInfo@CWnd@@MAEPAU_AFX_OCC_DIALOG_INFO@@XZ
	DD	FLAT:?DrawItem@CSuperGridCtrl@@MAEXPAUtagDRAWITEMSTRUCT@@@Z
	DD	FLAT:?CopyData@CPacketSuperGrid@@UAEPAVCItemInfo@@PAV2@@Z
	DD	FLAT:?GetIcon@CPacketSuperGrid@@UAEHPBVCTreeItem@CSuperGridCtrl@@@Z
	DD	FLAT:?GetCellRGB@CPacketSuperGrid@@UAEKXZ
	DD	FLAT:?OnUpdateListViewItem@CPacketSuperGrid@@UAEXPAVCTreeItem@CSuperGridCtrl@@PAUtagLVITEMA@@@Z
	DD	FLAT:?OnControlLButtonDown@CPacketSuperGrid@@UAEXIVCPoint@@AAUtagLVHITTESTINFO@@@Z
	DD	FLAT:?CreateDragImageEx@CPacketSuperGrid@@UAEPAVCImageList@@H@Z
	DD	FLAT:?OnItemExpanding@CPacketSuperGrid@@UAEHPAVCTreeItem@CSuperGridCtrl@@H@Z
	DD	FLAT:?OnItemExpanded@CPacketSuperGrid@@UAEHPAVCTreeItem@CSuperGridCtrl@@H@Z
	DD	FLAT:?OnCollapsing@CPacketSuperGrid@@UAEHPAVCTreeItem@CSuperGridCtrl@@@Z
	DD	FLAT:?OnItemCollapsed@CPacketSuperGrid@@UAEHPAVCTreeItem@CSuperGridCtrl@@@Z
	DD	FLAT:?OnDeleteItem@CPacketSuperGrid@@UAEHPAVCTreeItem@CSuperGridCtrl@@H@Z
	DD	FLAT:?OnVKMultiply@CSuperGridCtrl@@UAEHPAVCTreeItem@1@H@Z
	DD	FLAT:?OnVkSubTract@CSuperGridCtrl@@UAEHPAVCTreeItem@1@H@Z
	DD	FLAT:?OnVKAdd@CSuperGridCtrl@@UAEHPAVCTreeItem@1@H@Z
	DD	FLAT:?OnVkReturn@CPacketSuperGrid@@UAEHXZ
	DD	FLAT:?OnItemLButtonDown@CPacketSuperGrid@@UAEHAAUtagLVHITTESTINFO@@@Z
CONST	ENDS
;	COMDAT ??_7CItemInfo@@6B@
CONST	SEGMENT
??_7CItemInfo@@6B@ DD FLAT:??_R4CItemInfo@@6B@		; CItemInfo::`vftable'
	DD	FLAT:?GetRuntimeClass@CObject@@UBEPAUCRuntimeClass@@XZ
	DD	FLAT:??_ECItemInfo@@UAEPAXI@Z
	DD	FLAT:?Serialize@CObject@@UAEXAAVCArchive@@@Z
	DD	FLAT:?AssertValid@CObject@@UBEXXZ
	DD	FLAT:?Dump@CObject@@UBEXAAVCDumpContext@@@Z
CONST	ENDS
;	COMDAT ??_7?$CMap@HHPAVCStringList@@PAV1@@@6B@
CONST	SEGMENT
??_7?$CMap@HHPAVCStringList@@PAV1@@@6B@ DD FLAT:??_R4?$CMap@HHPAVCStringList@@PAV1@@@6B@ ; CMap<int,int,CStringList *,CStringList *>::`vftable'
	DD	FLAT:?GetRuntimeClass@CObject@@UBEPAUCRuntimeClass@@XZ
	DD	FLAT:??_E?$CMap@HHPAVCStringList@@PAV1@@@UAEPAXI@Z
	DD	FLAT:?Serialize@?$CMap@HHPAVCStringList@@PAV1@@@UAEXAAVCArchive@@@Z
	DD	FLAT:?AssertValid@CObject@@UBEXXZ
	DD	FLAT:?Dump@CObject@@UBEXAAVCDumpContext@@@Z
CONST	ENDS
;	COMDAT ??_7?$CMap@HHKAAK@@6B@
CONST	SEGMENT
??_7?$CMap@HHKAAK@@6B@ DD FLAT:??_R4?$CMap@HHKAAK@@6B@	; CMap<int,int,unsigned long,unsigned long &>::`vftable'
	DD	FLAT:?GetRuntimeClass@CObject@@UBEPAUCRuntimeClass@@XZ
	DD	FLAT:??_E?$CMap@HHKAAK@@UAEPAXI@Z
	DD	FLAT:?Serialize@?$CMap@HHKAAK@@UAEXAAVCArchive@@@Z
	DD	FLAT:?AssertValid@CObject@@UBEXXZ
	DD	FLAT:?Dump@CObject@@UBEXAAVCDumpContext@@@Z
CONST	ENDS
;	COMDAT ??_7?$CMap@HHW4CONTROLTYPE@CItemInfo@@AAW412@@@6B@
CONST	SEGMENT
??_7?$CMap@HHW4CONTROLTYPE@CItemInfo@@AAW412@@@6B@ DD FLAT:??_R4?$CMap@HHW4CONTROLTYPE@CItemInfo@@AAW412@@@6B@ ; CMap<int,int,enum CItemInfo::CONTROLTYPE,enum CItemInfo::CONTROLTYPE &>::`vftable'
	DD	FLAT:?GetRuntimeClass@CObject@@UBEPAUCRuntimeClass@@XZ
	DD	FLAT:??_E?$CMap@HHW4CONTROLTYPE@CItemInfo@@AAW412@@@UAEPAXI@Z
	DD	FLAT:?Serialize@?$CMap@HHW4CONTROLTYPE@CItemInfo@@AAW412@@@UAEXAAVCArchive@@@Z
	DD	FLAT:?AssertValid@CObject@@UBEXXZ
	DD	FLAT:?Dump@CObject@@UBEXAAVCDumpContext@@@Z
CONST	ENDS
;	COMDAT ??_R1A@?0A@EA@CListCtrl@@8
rdata$r	SEGMENT
??_R1A@?0A@EA@CListCtrl@@8 DD FLAT:??_R0?AVCListCtrl@@@8 ; CListCtrl::`RTTI Base Class Descriptor at (0,-1,0,64)'
	DD	03H
	DD	00H
	DD	0ffffffffH
	DD	00H
	DD	040H
	DD	FLAT:??_R3CListCtrl@@8
rdata$r	ENDS
;	COMDAT ??_R2CListCtrl@@8
rdata$r	SEGMENT
??_R2CListCtrl@@8 DD FLAT:??_R1A@?0A@EA@CListCtrl@@8	; CListCtrl::`RTTI Base Class Array'
	DD	FLAT:??_R1A@?0A@EA@CWnd@@8
	DD	FLAT:??_R1A@?0A@EA@CCmdTarget@@8
	DD	FLAT:??_R1A@?0A@EA@CObject@@8
rdata$r	ENDS
;	COMDAT ??_R3CListCtrl@@8
rdata$r	SEGMENT
??_R3CListCtrl@@8 DD 00H				; CListCtrl::`RTTI Class Hierarchy Descriptor'
	DD	00H
	DD	04H
	DD	FLAT:??_R2CListCtrl@@8
rdata$r	ENDS
;	COMDAT ??_R0?AVCListCtrl@@@8
data$rs	SEGMENT
??_R0?AVCListCtrl@@@8 DD FLAT:??_7type_info@@6B@	; CListCtrl `RTTI Type Descriptor'
	DD	00H
	DB	'.?AVCListCtrl@@', 00H
data$rs	ENDS
;	COMDAT ??_R2CCmdTarget@@8
rdata$r	SEGMENT
??_R2CCmdTarget@@8 DD FLAT:??_R1A@?0A@EA@CCmdTarget@@8	; CCmdTarget::`RTTI Base Class Array'
	DD	FLAT:??_R1A@?0A@EA@CObject@@8
rdata$r	ENDS
;	COMDAT ??_R3CCmdTarget@@8
rdata$r	SEGMENT
??_R3CCmdTarget@@8 DD 00H				; CCmdTarget::`RTTI Class Hierarchy Descriptor'
	DD	00H
	DD	02H
	DD	FLAT:??_R2CCmdTarget@@8
rdata$r	ENDS
;	COMDAT ??_R0?AVCCmdTarget@@@8
data$rs	SEGMENT
??_R0?AVCCmdTarget@@@8 DD FLAT:??_7type_info@@6B@	; CCmdTarget `RTTI Type Descriptor'
	DD	00H
	DB	'.?AVCCmdTarget@@', 00H
data$rs	ENDS
;	COMDAT ??_R1A@?0A@EA@CCmdTarget@@8
rdata$r	SEGMENT
??_R1A@?0A@EA@CCmdTarget@@8 DD FLAT:??_R0?AVCCmdTarget@@@8 ; CCmdTarget::`RTTI Base Class Descriptor at (0,-1,0,64)'
	DD	01H
	DD	00H
	DD	0ffffffffH
	DD	00H
	DD	040H
	DD	FLAT:??_R3CCmdTarget@@8
rdata$r	ENDS
;	COMDAT ??_R2CWnd@@8
rdata$r	SEGMENT
??_R2CWnd@@8 DD	FLAT:??_R1A@?0A@EA@CWnd@@8		; CWnd::`RTTI Base Class Array'
	DD	FLAT:??_R1A@?0A@EA@CCmdTarget@@8
	DD	FLAT:??_R1A@?0A@EA@CObject@@8
rdata$r	ENDS
;	COMDAT ??_R3CWnd@@8
rdata$r	SEGMENT
??_R3CWnd@@8 DD	00H					; CWnd::`RTTI Class Hierarchy Descriptor'
	DD	00H
	DD	03H
	DD	FLAT:??_R2CWnd@@8
rdata$r	ENDS
;	COMDAT ??_R0?AVCWnd@@@8
data$rs	SEGMENT
??_R0?AVCWnd@@@8 DD FLAT:??_7type_info@@6B@		; CWnd `RTTI Type Descriptor'
	DD	00H
	DB	'.?AVCWnd@@', 00H
data$rs	ENDS
;	COMDAT ??_R1A@?0A@EA@CWnd@@8
rdata$r	SEGMENT
??_R1A@?0A@EA@CWnd@@8 DD FLAT:??_R0?AVCWnd@@@8		; CWnd::`RTTI Base Class Descriptor at (0,-1,0,64)'
	DD	02H
	DD	00H
	DD	0ffffffffH
	DD	00H
	DD	040H
	DD	FLAT:??_R3CWnd@@8
rdata$r	ENDS
;	COMDAT ??_R1A@?0A@EA@CObject@@8
rdata$r	SEGMENT
??_R1A@?0A@EA@CObject@@8 DD FLAT:??_R0?AVCObject@@@8	; CObject::`RTTI Base Class Descriptor at (0,-1,0,64)'
	DD	00H
	DD	00H
	DD	0ffffffffH
	DD	00H
	DD	040H
	DD	FLAT:??_R3CObject@@8
rdata$r	ENDS
;	COMDAT ??_R2CObject@@8
rdata$r	SEGMENT
??_R2CObject@@8 DD FLAT:??_R1A@?0A@EA@CObject@@8	; CObject::`RTTI Base Class Array'
rdata$r	ENDS
;	COMDAT ??_R3CObject@@8
rdata$r	SEGMENT
??_R3CObject@@8 DD 00H					; CObject::`RTTI Class Hierarchy Descriptor'
	DD	00H
	DD	01H
	DD	FLAT:??_R2CObject@@8
rdata$r	ENDS
;	COMDAT ??_R0?AVCObject@@@8
data$rs	SEGMENT
??_R0?AVCObject@@@8 DD FLAT:??_7type_info@@6B@		; CObject `RTTI Type Descriptor'
	DD	00H
	DB	'.?AVCObject@@', 00H
data$rs	ENDS
;	COMDAT ??_C@_00CNPNBAHC@@
CONST	SEGMENT
??_C@_00CNPNBAHC@@ DB 00H				; `string'
CONST	ENDS
;	COMDAT xdata$x
xdata$x	SEGMENT
__ehfuncinfo$??1CMultiLanguageResourceSetter@@QAE@XZ DD 019930522H
	DD	00H
	DD	00H
	DD	2 DUP(00H)
	DD	2 DUP(00H)
	DD	00H
	DD	05H
xdata$x	ENDS
;	COMDAT xdata$x
xdata$x	SEGMENT
__unwindtable$?SetFourSubItem@CPacketSuperGrid@@AAEXABV?$CStringT@DV?$StrTraitMFC_DLL@DV?$ChTraitsCRT@D@ATL@@@@@ATL@@PAVCItemInfo@@@Z DD 0ffffffffH
	DD	FLAT:__unwindfunclet$?SetFourSubItem@CPacketSuperGrid@@AAEXABV?$CStringT@DV?$StrTraitMFC_DLL@DV?$ChTraitsCRT@D@ATL@@@@@ATL@@PAVCItemInfo@@@Z$0
	DD	00H
	DD	FLAT:__unwindfunclet$?SetFourSubItem@CPacketSuperGrid@@AAEXABV?$CStringT@DV?$StrTraitMFC_DLL@DV?$ChTraitsCRT@D@ATL@@@@@ATL@@PAVCItemInfo@@@Z$1
__ehfuncinfo$?SetFourSubItem@CPacketSuperGrid@@AAEXABV?$CStringT@DV?$StrTraitMFC_DLL@DV?$ChTraitsCRT@D@ATL@@@@@ATL@@PAVCItemInfo@@@Z DD 019930522H
	DD	02H
	DD	FLAT:__unwindtable$?SetFourSubItem@CPacketSuperGrid@@AAEXABV?$CStringT@DV?$StrTraitMFC_DLL@DV?$ChTraitsCRT@D@ATL@@@@@ATL@@PAVCItemInfo@@@Z
	DD	2 DUP(00H)
	DD	2 DUP(00H)
	DD	00H
	DD	01H
xdata$x	ENDS
;	COMDAT xdata$x
xdata$x	SEGMENT
__unwindtable$?SetThirdDATEItem@CPacketSuperGrid@@AAEXABV?$CStringT@DV?$StrTraitMFC_DLL@DV?$ChTraitsCRT@D@ATL@@@@@ATL@@PAVCItemInfo@@@Z DD 0ffffffffH
	DD	FLAT:__unwindfunclet$?SetThirdDATEItem@CPacketSuperGrid@@AAEXABV?$CStringT@DV?$StrTraitMFC_DLL@DV?$ChTraitsCRT@D@ATL@@@@@ATL@@PAVCItemInfo@@@Z$0
	DD	0ffffffffH
	DD	FLAT:__unwindfunclet$?SetThirdDATEItem@CPacketSuperGrid@@AAEXABV?$CStringT@DV?$StrTraitMFC_DLL@DV?$ChTraitsCRT@D@ATL@@@@@ATL@@PAVCItemInfo@@@Z$1
	DD	01H
	DD	FLAT:__unwindfunclet$?SetThirdDATEItem@CPacketSuperGrid@@AAEXABV?$CStringT@DV?$StrTraitMFC_DLL@DV?$ChTraitsCRT@D@ATL@@@@@ATL@@PAVCItemInfo@@@Z$2
__ehfuncinfo$?SetThirdDATEItem@CPacketSuperGrid@@AAEXABV?$CStringT@DV?$StrTraitMFC_DLL@DV?$ChTraitsCRT@D@ATL@@@@@ATL@@PAVCItemInfo@@@Z DD 019930522H
	DD	03H
	DD	FLAT:__unwindtable$?SetThirdDATEItem@CPacketSuperGrid@@AAEXABV?$CStringT@DV?$StrTraitMFC_DLL@DV?$ChTraitsCRT@D@ATL@@@@@ATL@@PAVCItemInfo@@@Z
	DD	2 DUP(00H)
	DD	2 DUP(00H)
	DD	00H
	DD	01H
xdata$x	ENDS
;	COMDAT xdata$x
xdata$x	SEGMENT
__unwindtable$?SetThirdTEXTItem@CPacketSuperGrid@@AAEXABV?$CStringT@DV?$StrTraitMFC_DLL@DV?$ChTraitsCRT@D@ATL@@@@@ATL@@PAVCItemInfo@@@Z DD 0ffffffffH
	DD	FLAT:__unwindfunclet$?SetThirdTEXTItem@CPacketSuperGrid@@AAEXABV?$CStringT@DV?$StrTraitMFC_DLL@DV?$ChTraitsCRT@D@ATL@@@@@ATL@@PAVCItemInfo@@@Z$0
__ehfuncinfo$?SetThirdTEXTItem@CPacketSuperGrid@@AAEXABV?$CStringT@DV?$StrTraitMFC_DLL@DV?$ChTraitsCRT@D@ATL@@@@@ATL@@PAVCItemInfo@@@Z DD 019930522H
	DD	01H
	DD	FLAT:__unwindtable$?SetThirdTEXTItem@CPacketSuperGrid@@AAEXABV?$CStringT@DV?$StrTraitMFC_DLL@DV?$ChTraitsCRT@D@ATL@@@@@ATL@@PAVCItemInfo@@@Z
	DD	2 DUP(00H)
	DD	2 DUP(00H)
	DD	00H
	DD	01H
xdata$x	ENDS
;	COMDAT xdata$x
xdata$x	SEGMENT
__unwindtable$?SetThirdPRICEItem@CPacketSuperGrid@@AAEXABV?$CStringT@DV?$StrTraitMFC_DLL@DV?$ChTraitsCRT@D@ATL@@@@@ATL@@PAVCItemInfo@@@Z DD 0ffffffffH
	DD	FLAT:__unwindfunclet$?SetThirdPRICEItem@CPacketSuperGrid@@AAEXABV?$CStringT@DV?$StrTraitMFC_DLL@DV?$ChTraitsCRT@D@ATL@@@@@ATL@@PAVCItemInfo@@@Z$0
	DD	0ffffffffH
	DD	FLAT:__unwindfunclet$?SetThirdPRICEItem@CPacketSuperGrid@@AAEXABV?$CStringT@DV?$StrTraitMFC_DLL@DV?$ChTraitsCRT@D@ATL@@@@@ATL@@PAVCItemInfo@@@Z$1
	DD	01H
	DD	FLAT:__unwindfunclet$?SetThirdPRICEItem@CPacketSuperGrid@@AAEXABV?$CStringT@DV?$StrTraitMFC_DLL@DV?$ChTraitsCRT@D@ATL@@@@@ATL@@PAVCItemInfo@@@Z$2
__ehfuncinfo$?SetThirdPRICEItem@CPacketSuperGrid@@AAEXABV?$CStringT@DV?$StrTraitMFC_DLL@DV?$ChTraitsCRT@D@ATL@@@@@ATL@@PAVCItemInfo@@@Z DD 019930522H
	DD	03H
	DD	FLAT:__unwindtable$?SetThirdPRICEItem@CPacketSuperGrid@@AAEXABV?$CStringT@DV?$StrTraitMFC_DLL@DV?$ChTraitsCRT@D@ATL@@@@@ATL@@PAVCItemInfo@@@Z
	DD	2 DUP(00H)
	DD	2 DUP(00H)
	DD	00H
	DD	01H
xdata$x	ENDS
;	COMDAT xdata$x
xdata$x	SEGMENT
__unwindtable$?SetThirdVOLUMEItem@CPacketSuperGrid@@AAEXABV?$CStringT@DV?$StrTraitMFC_DLL@DV?$ChTraitsCRT@D@ATL@@@@@ATL@@0PAVCItemInfo@@@Z DD 0ffffffffH
	DD	FLAT:__unwindfunclet$?SetThirdVOLUMEItem@CPacketSuperGrid@@AAEXABV?$CStringT@DV?$StrTraitMFC_DLL@DV?$ChTraitsCRT@D@ATL@@@@@ATL@@0PAVCItemInfo@@@Z$0
	DD	0ffffffffH
	DD	FLAT:__unwindfunclet$?SetThirdVOLUMEItem@CPacketSuperGrid@@AAEXABV?$CStringT@DV?$StrTraitMFC_DLL@DV?$ChTraitsCRT@D@ATL@@@@@ATL@@0PAVCItemInfo@@@Z$1
	DD	0ffffffffH
	DD	FLAT:__unwindfunclet$?SetThirdVOLUMEItem@CPacketSuperGrid@@AAEXABV?$CStringT@DV?$StrTraitMFC_DLL@DV?$ChTraitsCRT@D@ATL@@@@@ATL@@0PAVCItemInfo@@@Z$2
	DD	02H
	DD	FLAT:__unwindfunclet$?SetThirdVOLUMEItem@CPacketSuperGrid@@AAEXABV?$CStringT@DV?$StrTraitMFC_DLL@DV?$ChTraitsCRT@D@ATL@@@@@ATL@@0PAVCItemInfo@@@Z$3
__ehfuncinfo$?SetThirdVOLUMEItem@CPacketSuperGrid@@AAEXABV?$CStringT@DV?$StrTraitMFC_DLL@DV?$ChTraitsCRT@D@ATL@@@@@ATL@@0PAVCItemInfo@@@Z DD 019930522H
	DD	04H
	DD	FLAT:__unwindtable$?SetThirdVOLUMEItem@CPacketSuperGrid@@AAEXABV?$CStringT@DV?$StrTraitMFC_DLL@DV?$ChTraitsCRT@D@ATL@@@@@ATL@@0PAVCItemInfo@@@Z
	DD	2 DUP(00H)
	DD	2 DUP(00H)
	DD	00H
	DD	01H
xdata$x	ENDS
;	COMDAT xdata$x
xdata$x	SEGMENT
__unwindtable$?SetThirdSTOCKMULTIPLEItem@CPacketSuperGrid@@AAEXABV?$CStringT@DV?$StrTraitMFC_DLL@DV?$ChTraitsCRT@D@ATL@@@@@ATL@@PAVCItemInfo@@@Z DD 0ffffffffH
	DD	FLAT:__unwindfunclet$?SetThirdSTOCKMULTIPLEItem@CPacketSuperGrid@@AAEXABV?$CStringT@DV?$StrTraitMFC_DLL@DV?$ChTraitsCRT@D@ATL@@@@@ATL@@PAVCItemInfo@@@Z$0
	DD	0ffffffffH
	DD	FLAT:__unwindfunclet$?SetThirdSTOCKMULTIPLEItem@CPacketSuperGrid@@AAEXABV?$CStringT@DV?$StrTraitMFC_DLL@DV?$ChTraitsCRT@D@ATL@@@@@ATL@@PAVCItemInfo@@@Z$1
	DD	01H
	DD	FLAT:__unwindfunclet$?SetThirdSTOCKMULTIPLEItem@CPacketSuperGrid@@AAEXABV?$CStringT@DV?$StrTraitMFC_DLL@DV?$ChTraitsCRT@D@ATL@@@@@ATL@@PAVCItemInfo@@@Z$2
__ehfuncinfo$?SetThirdSTOCKMULTIPLEItem@CPacketSuperGrid@@AAEXABV?$CStringT@DV?$StrTraitMFC_DLL@DV?$ChTraitsCRT@D@ATL@@@@@ATL@@PAVCItemInfo@@@Z DD 019930522H
	DD	03H
	DD	FLAT:__unwindtable$?SetThirdSTOCKMULTIPLEItem@CPacketSuperGrid@@AAEXABV?$CStringT@DV?$StrTraitMFC_DLL@DV?$ChTraitsCRT@D@ATL@@@@@ATL@@PAVCItemInfo@@@Z
	DD	2 DUP(00H)
	DD	2 DUP(00H)
	DD	00H
	DD	01H
xdata$x	ENDS
;	COMDAT xdata$x
xdata$x	SEGMENT
__unwindtable$?SetThirdEXCHANGERATEItem@CPacketSuperGrid@@AAEXABV?$CStringT@DV?$StrTraitMFC_DLL@DV?$ChTraitsCRT@D@ATL@@@@@ATL@@PAVCItemInfo@@@Z DD 0ffffffffH
	DD	FLAT:__unwindfunclet$?SetThirdEXCHANGERATEItem@CPacketSuperGrid@@AAEXABV?$CStringT@DV?$StrTraitMFC_DLL@DV?$ChTraitsCRT@D@ATL@@@@@ATL@@PAVCItemInfo@@@Z$0
	DD	0ffffffffH
	DD	FLAT:__unwindfunclet$?SetThirdEXCHANGERATEItem@CPacketSuperGrid@@AAEXABV?$CStringT@DV?$StrTraitMFC_DLL@DV?$ChTraitsCRT@D@ATL@@@@@ATL@@PAVCItemInfo@@@Z$1
	DD	01H
	DD	FLAT:__unwindfunclet$?SetThirdEXCHANGERATEItem@CPacketSuperGrid@@AAEXABV?$CStringT@DV?$StrTraitMFC_DLL@DV?$ChTraitsCRT@D@ATL@@@@@ATL@@PAVCItemInfo@@@Z$2
__ehfuncinfo$?SetThirdEXCHANGERATEItem@CPacketSuperGrid@@AAEXABV?$CStringT@DV?$StrTraitMFC_DLL@DV?$ChTraitsCRT@D@ATL@@@@@ATL@@PAVCItemInfo@@@Z DD 019930522H
	DD	03H
	DD	FLAT:__unwindtable$?SetThirdEXCHANGERATEItem@CPacketSuperGrid@@AAEXABV?$CStringT@DV?$StrTraitMFC_DLL@DV?$ChTraitsCRT@D@ATL@@@@@ATL@@PAVCItemInfo@@@Z
	DD	2 DUP(00H)
	DD	2 DUP(00H)
	DD	00H
	DD	01H
xdata$x	ENDS
;	COMDAT xdata$x
xdata$x	SEGMENT
__ehfuncinfo$?SetThirdSubItem@CPacketSuperGrid@@AAEXHABV?$CStringT@DV?$StrTraitMFC_DLL@DV?$ChTraitsCRT@D@ATL@@@@@ATL@@0PAVCItemInfo@@@Z DD 019930522H
	DD	0dH
	DD	FLAT:__unwindtable$?SetThirdSubItem@CPacketSuperGrid@@AAEXHABV?$CStringT@DV?$StrTraitMFC_DLL@DV?$ChTraitsCRT@D@ATL@@@@@ATL@@0PAVCItemInfo@@@Z
	DD	2 DUP(00H)
	DD	2 DUP(00H)
	DD	00H
	DD	01H
__unwindtable$?SetThirdSubItem@CPacketSuperGrid@@AAEXHABV?$CStringT@DV?$StrTraitMFC_DLL@DV?$ChTraitsCRT@D@ATL@@@@@ATL@@0PAVCItemInfo@@@Z DD 0ffffffffH
	DD	FLAT:__unwindfunclet$?SetThirdSubItem@CPacketSuperGrid@@AAEXHABV?$CStringT@DV?$StrTraitMFC_DLL@DV?$ChTraitsCRT@D@ATL@@@@@ATL@@0PAVCItemInfo@@@Z$0
	DD	0ffffffffH
	DD	FLAT:__unwindfunclet$?SetThirdSubItem@CPacketSuperGrid@@AAEXHABV?$CStringT@DV?$StrTraitMFC_DLL@DV?$ChTraitsCRT@D@ATL@@@@@ATL@@0PAVCItemInfo@@@Z$1
	DD	01H
	DD	FLAT:__unwindfunclet$?SetThirdSubItem@CPacketSuperGrid@@AAEXHABV?$CStringT@DV?$StrTraitMFC_DLL@DV?$ChTraitsCRT@D@ATL@@@@@ATL@@0PAVCItemInfo@@@Z$2
	DD	0ffffffffH
	DD	FLAT:__unwindfunclet$?SetThirdSubItem@CPacketSuperGrid@@AAEXHABV?$CStringT@DV?$StrTraitMFC_DLL@DV?$ChTraitsCRT@D@ATL@@@@@ATL@@0PAVCItemInfo@@@Z$3
	DD	0ffffffffH
	DD	FLAT:__unwindfunclet$?SetThirdSubItem@CPacketSuperGrid@@AAEXHABV?$CStringT@DV?$StrTraitMFC_DLL@DV?$ChTraitsCRT@D@ATL@@@@@ATL@@0PAVCItemInfo@@@Z$4
	DD	0ffffffffH
	DD	FLAT:__unwindfunclet$?SetThirdSubItem@CPacketSuperGrid@@AAEXHABV?$CStringT@DV?$StrTraitMFC_DLL@DV?$ChTraitsCRT@D@ATL@@@@@ATL@@0PAVCItemInfo@@@Z$5
	DD	05H
	DD	FLAT:__unwindfunclet$?SetThirdSubItem@CPacketSuperGrid@@AAEXHABV?$CStringT@DV?$StrTraitMFC_DLL@DV?$ChTraitsCRT@D@ATL@@@@@ATL@@0PAVCItemInfo@@@Z$6
	DD	0ffffffffH
	DD	FLAT:__unwindfunclet$?SetThirdSubItem@CPacketSuperGrid@@AAEXHABV?$CStringT@DV?$StrTraitMFC_DLL@DV?$ChTraitsCRT@D@ATL@@@@@ATL@@0PAVCItemInfo@@@Z$7
	DD	0ffffffffH
	DD	FLAT:__unwindfunclet$?SetThirdSubItem@CPacketSuperGrid@@AAEXHABV?$CStringT@DV?$StrTraitMFC_DLL@DV?$ChTraitsCRT@D@ATL@@@@@ATL@@0PAVCItemInfo@@@Z$8
	DD	08H
	DD	FLAT:__unwindfunclet$?SetThirdSubItem@CPacketSuperGrid@@AAEXHABV?$CStringT@DV?$StrTraitMFC_DLL@DV?$ChTraitsCRT@D@ATL@@@@@ATL@@0PAVCItemInfo@@@Z$9
	DD	0ffffffffH
	DD	FLAT:__unwindfunclet$?SetThirdSubItem@CPacketSuperGrid@@AAEXHABV?$CStringT@DV?$StrTraitMFC_DLL@DV?$ChTraitsCRT@D@ATL@@@@@ATL@@0PAVCItemInfo@@@Z$10
	DD	0ffffffffH
	DD	FLAT:__unwindfunclet$?SetThirdSubItem@CPacketSuperGrid@@AAEXHABV?$CStringT@DV?$StrTraitMFC_DLL@DV?$ChTraitsCRT@D@ATL@@@@@ATL@@0PAVCItemInfo@@@Z$11
	DD	0bH
	DD	FLAT:__unwindfunclet$?SetThirdSubItem@CPacketSuperGrid@@AAEXHABV?$CStringT@DV?$StrTraitMFC_DLL@DV?$ChTraitsCRT@D@ATL@@@@@ATL@@0PAVCItemInfo@@@Z$12
xdata$x	ENDS
;	COMDAT xdata$x
xdata$x	SEGMENT
__unwindtable$?SetSubItem@CPacketSuperGrid@@AAEXHABV?$CStringT@DV?$StrTraitMFC_DLL@DV?$ChTraitsCRT@D@ATL@@@@@ATL@@PAVCItemInfo@@@Z DD 0ffffffffH
	DD	FLAT:__unwindfunclet$?SetSubItem@CPacketSuperGrid@@AAEXHABV?$CStringT@DV?$StrTraitMFC_DLL@DV?$ChTraitsCRT@D@ATL@@@@@ATL@@PAVCItemInfo@@@Z$0
	DD	0ffffffffH
	DD	FLAT:__unwindfunclet$?SetSubItem@CPacketSuperGrid@@AAEXHABV?$CStringT@DV?$StrTraitMFC_DLL@DV?$ChTraitsCRT@D@ATL@@@@@ATL@@PAVCItemInfo@@@Z$1
	DD	0ffffffffH
	DD	FLAT:__unwindfunclet$?SetSubItem@CPacketSuperGrid@@AAEXHABV?$CStringT@DV?$StrTraitMFC_DLL@DV?$ChTraitsCRT@D@ATL@@@@@ATL@@PAVCItemInfo@@@Z$2
__ehfuncinfo$?SetSubItem@CPacketSuperGrid@@AAEXHABV?$CStringT@DV?$StrTraitMFC_DLL@DV?$ChTraitsCRT@D@ATL@@@@@ATL@@PAVCItemInfo@@@Z DD 019930522H
	DD	03H
	DD	FLAT:__unwindtable$?SetSubItem@CPacketSuperGrid@@AAEXHABV?$CStringT@DV?$StrTraitMFC_DLL@DV?$ChTraitsCRT@D@ATL@@@@@ATL@@PAVCItemInfo@@@Z
	DD	2 DUP(00H)
	DD	2 DUP(00H)
	DD	00H
	DD	01H
xdata$x	ENDS
;	COMDAT xdata$x
xdata$x	SEGMENT
__unwindtable$?SetRootItem@CPacketSuperGrid@@AAEXABV?$CStringT@DV?$StrTraitMFC_DLL@DV?$ChTraitsCRT@D@ATL@@@@@ATL@@PAVCItemInfo@@@Z DD 0ffffffffH
	DD	FLAT:__unwindfunclet$?SetRootItem@CPacketSuperGrid@@AAEXABV?$CStringT@DV?$StrTraitMFC_DLL@DV?$ChTraitsCRT@D@ATL@@@@@ATL@@PAVCItemInfo@@@Z$0
	DD	0ffffffffH
	DD	FLAT:__unwindfunclet$?SetRootItem@CPacketSuperGrid@@AAEXABV?$CStringT@DV?$StrTraitMFC_DLL@DV?$ChTraitsCRT@D@ATL@@@@@ATL@@PAVCItemInfo@@@Z$1
	DD	0ffffffffH
	DD	FLAT:__unwindfunclet$?SetRootItem@CPacketSuperGrid@@AAEXABV?$CStringT@DV?$StrTraitMFC_DLL@DV?$ChTraitsCRT@D@ATL@@@@@ATL@@PAVCItemInfo@@@Z$2
	DD	0ffffffffH
	DD	FLAT:__unwindfunclet$?SetRootItem@CPacketSuperGrid@@AAEXABV?$CStringT@DV?$StrTraitMFC_DLL@DV?$ChTraitsCRT@D@ATL@@@@@ATL@@PAVCItemInfo@@@Z$3
__ehfuncinfo$?SetRootItem@CPacketSuperGrid@@AAEXABV?$CStringT@DV?$StrTraitMFC_DLL@DV?$ChTraitsCRT@D@ATL@@@@@ATL@@PAVCItemInfo@@@Z DD 019930522H
	DD	04H
	DD	FLAT:__unwindtable$?SetRootItem@CPacketSuperGrid@@AAEXABV?$CStringT@DV?$StrTraitMFC_DLL@DV?$ChTraitsCRT@D@ATL@@@@@ATL@@PAVCItemInfo@@@Z
	DD	2 DUP(00H)
	DD	2 DUP(00H)
	DD	00H
	DD	01H
xdata$x	ENDS
;	COMDAT xdata$x
xdata$x	SEGMENT
__unwindtable$?SetColumnHeader@CPacketSuperGrid@@AAEXXZ DD 0ffffffffH
	DD	FLAT:__unwindfunclet$?SetColumnHeader@CPacketSuperGrid@@AAEXXZ$0
	DD	00H
	DD	FLAT:__unwindfunclet$?SetColumnHeader@CPacketSuperGrid@@AAEXXZ$1
	DD	0ffffffffH
	DD	FLAT:___std_terminate
__ehfuncinfo$?SetColumnHeader@CPacketSuperGrid@@AAEXXZ DD 019930522H
	DD	03H
	DD	FLAT:__unwindtable$?SetColumnHeader@CPacketSuperGrid@@AAEXXZ
	DD	2 DUP(00H)
	DD	2 DUP(00H)
	DD	00H
	DD	01H
xdata$x	ENDS
;	COMDAT xdata$x
xdata$x	SEGMENT
__ehfuncinfo$?SetPacketRootInit@CPacketSuperGrid@@AAEXXZ DD 019930522H
	DD	08H
	DD	FLAT:__unwindtable$?SetPacketRootInit@CPacketSuperGrid@@AAEXXZ
	DD	2 DUP(00H)
	DD	2 DUP(00H)
	DD	00H
	DD	01H
__unwindtable$?SetPacketRootInit@CPacketSuperGrid@@AAEXXZ DD 0ffffffffH
	DD	FLAT:__unwindfunclet$?SetPacketRootInit@CPacketSuperGrid@@AAEXXZ$0
	DD	0ffffffffH
	DD	FLAT:__unwindfunclet$?SetPacketRootInit@CPacketSuperGrid@@AAEXXZ$1
	DD	0ffffffffH
	DD	FLAT:__unwindfunclet$?SetPacketRootInit@CPacketSuperGrid@@AAEXXZ$3
	DD	0ffffffffH
	DD	FLAT:__unwindfunclet$?SetPacketRootInit@CPacketSuperGrid@@AAEXXZ$4
	DD	0ffffffffH
	DD	FLAT:__unwindfunclet$?SetPacketRootInit@CPacketSuperGrid@@AAEXXZ$5
	DD	04H
	DD	FLAT:__unwindfunclet$?SetPacketRootInit@CPacketSuperGrid@@AAEXXZ$6
	DD	04H
	DD	FLAT:__unwindfunclet$?SetPacketRootInit@CPacketSuperGrid@@AAEXXZ$7
	DD	04H
	DD	FLAT:__unwindfunclet$?SetPacketRootInit@CPacketSuperGrid@@AAEXXZ$8
xdata$x	ENDS
;	COMDAT xdata$x
xdata$x	SEGMENT
__unwindtable$?SetUserDefineRootInit@CPacketSuperGrid@@AAEXXZ DD 0ffffffffH
	DD	FLAT:__unwindfunclet$?SetUserDefineRootInit@CPacketSuperGrid@@AAEXXZ$0
	DD	0ffffffffH
	DD	FLAT:__unwindfunclet$?SetUserDefineRootInit@CPacketSuperGrid@@AAEXXZ$1
	DD	0ffffffffH
	DD	FLAT:__unwindfunclet$?SetUserDefineRootInit@CPacketSuperGrid@@AAEXXZ$2
	DD	0ffffffffH
	DD	FLAT:__unwindfunclet$?SetUserDefineRootInit@CPacketSuperGrid@@AAEXXZ$3
__ehfuncinfo$?SetUserDefineRootInit@CPacketSuperGrid@@AAEXXZ DD 019930522H
	DD	04H
	DD	FLAT:__unwindtable$?SetUserDefineRootInit@CPacketSuperGrid@@AAEXXZ
	DD	2 DUP(00H)
	DD	2 DUP(00H)
	DD	00H
	DD	01H
xdata$x	ENDS
;	COMDAT xdata$x
xdata$x	SEGMENT
__ehfuncinfo$?OnDblclk@CPacketSuperGrid@@IAEXPAUtagNMHDR@@PAJ@Z DD 019930522H
	DD	05H
	DD	FLAT:__unwindtable$?OnDblclk@CPacketSuperGrid@@IAEXPAUtagNMHDR@@PAJ@Z
	DD	2 DUP(00H)
	DD	2 DUP(00H)
	DD	00H
	DD	01H
__unwindtable$?OnDblclk@CPacketSuperGrid@@IAEXPAUtagNMHDR@@PAJ@Z DD 0ffffffffH
	DD	FLAT:__unwindfunclet$?OnDblclk@CPacketSuperGrid@@IAEXPAUtagNMHDR@@PAJ@Z$0
	DD	00H
	DD	FLAT:__unwindfunclet$?OnDblclk@CPacketSuperGrid@@IAEXPAUtagNMHDR@@PAJ@Z$1
	DD	01H
	DD	FLAT:__unwindfunclet$?OnDblclk@CPacketSuperGrid@@IAEXPAUtagNMHDR@@PAJ@Z$2
	DD	02H
	DD	FLAT:__unwindfunclet$?OnDblclk@CPacketSuperGrid@@IAEXPAUtagNMHDR@@PAJ@Z$3
	DD	00H
	DD	FLAT:___std_terminate
xdata$x	ENDS
;	COMDAT xdata$x
xdata$x	SEGMENT
__unwindtable$?OnCreate@CPacketSuperGrid@@IAEHPAUtagCREATESTRUCTA@@@Z DD 0ffffffffH
	DD	FLAT:__unwindfunclet$?OnCreate@CPacketSuperGrid@@IAEHPAUtagCREATESTRUCTA@@@Z$0
	DD	0ffffffffH
	DD	FLAT:___std_terminate
	DD	0ffffffffH
	DD	FLAT:___std_terminate
__ehfuncinfo$?OnCreate@CPacketSuperGrid@@IAEHPAUtagCREATESTRUCTA@@@Z DD 019930522H
	DD	03H
	DD	FLAT:__unwindtable$?OnCreate@CPacketSuperGrid@@IAEHPAUtagCREATESTRUCTA@@@Z
	DD	2 DUP(00H)
	DD	2 DUP(00H)
	DD	00H
	DD	01H
xdata$x	ENDS
;	COMDAT xdata$x
xdata$x	SEGMENT
__unwindtable$?ShowList@CPacketSuperGrid@@IAEPAVCComboBox@@HHPAVCStringList@@@Z DD 0ffffffffH
	DD	FLAT:__unwindfunclet$?ShowList@CPacketSuperGrid@@IAEPAVCComboBox@@HHPAVCStringList@@@Z$0
	DD	00H
	DD	FLAT:__unwindfunclet$?ShowList@CPacketSuperGrid@@IAEPAVCComboBox@@HHPAVCStringList@@@Z$1
__ehfuncinfo$?ShowList@CPacketSuperGrid@@IAEPAVCComboBox@@HHPAVCStringList@@@Z DD 019930522H
	DD	02H
	DD	FLAT:__unwindtable$?ShowList@CPacketSuperGrid@@IAEPAVCComboBox@@HHPAVCStringList@@@Z
	DD	2 DUP(00H)
	DD	2 DUP(00H)
	DD	00H
	DD	01H
xdata$x	ENDS
;	COMDAT xdata$x
xdata$x	SEGMENT
__unwindtable$?CopyData@CPacketSuperGrid@@UAEPAVCItemInfo@@PAV2@@Z DD 0ffffffffH
	DD	FLAT:__unwindfunclet$?CopyData@CPacketSuperGrid@@UAEPAVCItemInfo@@PAV2@@Z$0
	DD	0ffffffffH
	DD	FLAT:__unwindfunclet$?CopyData@CPacketSuperGrid@@UAEPAVCItemInfo@@PAV2@@Z$1
__ehfuncinfo$?CopyData@CPacketSuperGrid@@UAEPAVCItemInfo@@PAV2@@Z DD 019930522H
	DD	02H
	DD	FLAT:__unwindtable$?CopyData@CPacketSuperGrid@@UAEPAVCItemInfo@@PAV2@@Z
	DD	2 DUP(00H)
	DD	2 DUP(00H)
	DD	00H
	DD	01H
xdata$x	ENDS
;	COMDAT xdata$x
xdata$x	SEGMENT
__unwindtable$?OnUpdateListViewItem@CPacketSuperGrid@@UAEXPAVCTreeItem@CSuperGridCtrl@@PAUtagLVITEMA@@@Z DD 0ffffffffH
	DD	FLAT:__unwindfunclet$?OnUpdateListViewItem@CPacketSuperGrid@@UAEXPAVCTreeItem@CSuperGridCtrl@@PAUtagLVITEMA@@@Z$0
__ehfuncinfo$?OnUpdateListViewItem@CPacketSuperGrid@@UAEXPAVCTreeItem@CSuperGridCtrl@@PAUtagLVITEMA@@@Z DD 019930522H
	DD	01H
	DD	FLAT:__unwindtable$?OnUpdateListViewItem@CPacketSuperGrid@@UAEXPAVCTreeItem@CSuperGridCtrl@@PAUtagLVITEMA@@@Z
	DD	2 DUP(00H)
	DD	2 DUP(00H)
	DD	00H
	DD	01H
xdata$x	ENDS
;	COMDAT xdata$x
xdata$x	SEGMENT
__unwindtable$?HowToInsertItemsAfterTheGridHasBeenInitialized@CPacketSuperGrid@@QAEXHHABV?$CStringT@DV?$StrTraitMFC_DLL@DV?$ChTraitsCRT@D@ATL@@@@@ATL@@0000@Z DD 0ffffffffH
	DD	FLAT:__unwindfunclet$?HowToInsertItemsAfterTheGridHasBeenInitialized@CPacketSuperGrid@@QAEXHHABV?$CStringT@DV?$StrTraitMFC_DLL@DV?$ChTraitsCRT@D@ATL@@@@@ATL@@0000@Z$0
__ehfuncinfo$?HowToInsertItemsAfterTheGridHasBeenInitialized@CPacketSuperGrid@@QAEXHHABV?$CStringT@DV?$StrTraitMFC_DLL@DV?$ChTraitsCRT@D@ATL@@@@@ATL@@0000@Z DD 019930522H
	DD	01H
	DD	FLAT:__unwindtable$?HowToInsertItemsAfterTheGridHasBeenInitialized@CPacketSuperGrid@@QAEXHHABV?$CStringT@DV?$StrTraitMFC_DLL@DV?$ChTraitsCRT@D@ATL@@@@@ATL@@0000@Z
	DD	2 DUP(00H)
	DD	2 DUP(00H)
	DD	00H
	DD	01H
xdata$x	ENDS
;	COMDAT xdata$x
xdata$x	SEGMENT
__ehfuncinfo$?InitializeGrid@CPacketSuperGrid@@QAEXXZ DD 019930522H
	DD	07H
	DD	FLAT:__unwindtable$?InitializeGrid@CPacketSuperGrid@@QAEXXZ
	DD	2 DUP(00H)
	DD	2 DUP(00H)
	DD	00H
	DD	01H
__unwindtable$?InitializeGrid@CPacketSuperGrid@@QAEXXZ DD 0ffffffffH
	DD	FLAT:__unwindfunclet$?InitializeGrid@CPacketSuperGrid@@QAEXXZ$0
	DD	00H
	DD	FLAT:__unwindfunclet$?InitializeGrid@CPacketSuperGrid@@QAEXXZ$1
	DD	0ffffffffH
	DD	FLAT:___std_terminate
	DD	0ffffffffH
	DD	FLAT:__unwindfunclet$?InitializeGrid@CPacketSuperGrid@@QAEXXZ$3
	DD	0ffffffffH
	DD	FLAT:__unwindfunclet$?InitializeGrid@CPacketSuperGrid@@QAEXXZ$4
	DD	0ffffffffH
	DD	FLAT:__unwindfunclet$?InitializeGrid@CPacketSuperGrid@@QAEXXZ$5
	DD	0ffffffffH
	DD	FLAT:__unwindfunclet$?InitializeGrid@CPacketSuperGrid@@QAEXXZ$6
xdata$x	ENDS
;	COMDAT xdata$x
xdata$x	SEGMENT
__unwindtable$??0CPacketSuperGrid@@QAE@XZ DD 0ffffffffH
	DD	FLAT:__unwindfunclet$??0CPacketSuperGrid@@QAE@XZ$0
__ehfuncinfo$??0CPacketSuperGrid@@QAE@XZ DD 019930522H
	DD	01H
	DD	FLAT:__unwindtable$??0CPacketSuperGrid@@QAE@XZ
	DD	2 DUP(00H)
	DD	2 DUP(00H)
	DD	00H
	DD	01H
xdata$x	ENDS
;	COMDAT xdata$x
xdata$x	SEGMENT
__unwindtable$??_G?$CMap@HHPAVCStringList@@PAV1@@@UAEPAXI@Z DD 0ffffffffH
	DD	FLAT:___std_terminate
__ehfuncinfo$??_G?$CMap@HHPAVCStringList@@PAV1@@@UAEPAXI@Z DD 019930522H
	DD	01H
	DD	FLAT:__unwindtable$??_G?$CMap@HHPAVCStringList@@PAV1@@@UAEPAXI@Z
	DD	2 DUP(00H)
	DD	2 DUP(00H)
	DD	00H
	DD	05H
xdata$x	ENDS
;	COMDAT xdata$x
xdata$x	SEGMENT
__ehfuncinfo$??1?$CMap@HHPAVCStringList@@PAV1@@@UAE@XZ DD 019930522H
	DD	00H
	DD	00H
	DD	2 DUP(00H)
	DD	2 DUP(00H)
	DD	00H
	DD	05H
xdata$x	ENDS
;	COMDAT xdata$x
xdata$x	SEGMENT
__unwindtable$??_G?$CMap@HHKAAK@@UAEPAXI@Z DD 0ffffffffH
	DD	FLAT:___std_terminate
__ehfuncinfo$??_G?$CMap@HHKAAK@@UAEPAXI@Z DD 019930522H
	DD	01H
	DD	FLAT:__unwindtable$??_G?$CMap@HHKAAK@@UAEPAXI@Z
	DD	2 DUP(00H)
	DD	2 DUP(00H)
	DD	00H
	DD	05H
xdata$x	ENDS
;	COMDAT xdata$x
xdata$x	SEGMENT
__ehfuncinfo$??1?$CMap@HHKAAK@@UAE@XZ DD 019930522H
	DD	00H
	DD	00H
	DD	2 DUP(00H)
	DD	2 DUP(00H)
	DD	00H
	DD	05H
xdata$x	ENDS
;	COMDAT xdata$x
xdata$x	SEGMENT
__unwindtable$??_G?$CMap@HHW4CONTROLTYPE@CItemInfo@@AAW412@@@UAEPAXI@Z DD 0ffffffffH
	DD	FLAT:___std_terminate
__ehfuncinfo$??_G?$CMap@HHW4CONTROLTYPE@CItemInfo@@AAW412@@@UAEPAXI@Z DD 019930522H
	DD	01H
	DD	FLAT:__unwindtable$??_G?$CMap@HHW4CONTROLTYPE@CItemInfo@@AAW412@@@UAEPAXI@Z
	DD	2 DUP(00H)
	DD	2 DUP(00H)
	DD	00H
	DD	05H
xdata$x	ENDS
;	COMDAT xdata$x
xdata$x	SEGMENT
__ehfuncinfo$??1?$CMap@HHW4CONTROLTYPE@CItemInfo@@AAW412@@@UAE@XZ DD 019930522H
	DD	00H
	DD	00H
	DD	2 DUP(00H)
	DD	2 DUP(00H)
	DD	00H
	DD	05H
xdata$x	ENDS
;	COMDAT xdata$x
xdata$x	SEGMENT
__unwindtable$??1CItemInfo@@UAE@XZ DD 0ffffffffH
	DD	FLAT:___std_terminate
	DD	0ffffffffH
	DD	FLAT:___std_terminate
	DD	0ffffffffH
	DD	FLAT:___std_terminate
__ehfuncinfo$??1CItemInfo@@UAE@XZ DD 019930522H
	DD	03H
	DD	FLAT:__unwindtable$??1CItemInfo@@UAE@XZ
	DD	2 DUP(00H)
	DD	2 DUP(00H)
	DD	00H
	DD	05H
xdata$x	ENDS
;	COMDAT xdata$x
xdata$x	SEGMENT
__unwindtable$?CopyControls@CItemInfo@@QAEXPAV1@@Z DD 0ffffffffH
	DD	FLAT:__unwindfunclet$?CopyControls@CItemInfo@@QAEXPAV1@@Z$0
__ehfuncinfo$?CopyControls@CItemInfo@@QAEXPAV1@@Z DD 019930522H
	DD	01H
	DD	FLAT:__unwindtable$?CopyControls@CItemInfo@@QAEXPAV1@@Z
	DD	2 DUP(00H)
	DD	2 DUP(00H)
	DD	00H
	DD	01H
xdata$x	ENDS
;	COMDAT xdata$x
xdata$x	SEGMENT
__unwindtable$?CopyObjects@CItemInfo@@QAEXPAV1@@Z DD 0ffffffffH
	DD	FLAT:__unwindfunclet$?CopyObjects@CItemInfo@@QAEXPAV1@@Z$0
__ehfuncinfo$?CopyObjects@CItemInfo@@QAEXPAV1@@Z DD 019930522H
	DD	01H
	DD	FLAT:__unwindtable$?CopyObjects@CItemInfo@@QAEXPAV1@@Z
	DD	2 DUP(00H)
	DD	2 DUP(00H)
	DD	00H
	DD	01H
xdata$x	ENDS
;	COMDAT xdata$x
xdata$x	SEGMENT
__unwindtable$?SetListData@CItemInfo@@QAEXHPAVCStringList@@@Z DD 0ffffffffH
	DD	FLAT:__unwindfunclet$?SetListData@CItemInfo@@QAEXHPAVCStringList@@@Z$0
__ehfuncinfo$?SetListData@CItemInfo@@QAEXHPAVCStringList@@@Z DD 019930522H
	DD	01H
	DD	FLAT:__unwindtable$?SetListData@CItemInfo@@QAEXHPAVCStringList@@@Z
	DD	2 DUP(00H)
	DD	2 DUP(00H)
	DD	00H
	DD	01H
xdata$x	ENDS
;	COMDAT xdata$x
xdata$x	SEGMENT
__unwindtable$??0CItemInfo@@QAE@XZ DD 0ffffffffH
	DD	FLAT:__unwindfunclet$??0CItemInfo@@QAE@XZ$0
	DD	00H
	DD	FLAT:__unwindfunclet$??0CItemInfo@@QAE@XZ$1
	DD	01H
	DD	FLAT:__unwindfunclet$??0CItemInfo@@QAE@XZ$2
	DD	02H
	DD	FLAT:__unwindfunclet$??0CItemInfo@@QAE@XZ$3
__ehfuncinfo$??0CItemInfo@@QAE@XZ DD 019930522H
	DD	04H
	DD	FLAT:__unwindtable$??0CItemInfo@@QAE@XZ
	DD	2 DUP(00H)
	DD	2 DUP(00H)
	DD	00H
	DD	01H
xdata$x	ENDS
; Function compile flags: /Ogtp
; File C:\Program Files (x86)\Microsoft Visual Studio\2019\Community\VC\Tools\MSVC\14.29.30133\atlmfc\include\afxtempl.h
;	COMDAT ??$CompareElements@HH@@YGHPBH0@Z
_TEXT	SEGMENT
_pElement1$ = 8						; size = 4
_pElement2$ = 12					; size = 4
??$CompareElements@HH@@YGHPBH0@Z PROC			; CompareElements<int,int>, COMDAT

; 151  : {

  00000	55		 push	 ebp
  00001	8b ec		 mov	 ebp, esp

; 152  : 	ENSURE(pElement1 != NULL && pElement2 != NULL);

  00003	8b 4d 08	 mov	 ecx, DWORD PTR _pElement1$[ebp]
  00006	85 c9		 test	 ecx, ecx
  00008	74 14		 je	 SHORT $LN7@CompareEle
  0000a	8b 55 0c	 mov	 edx, DWORD PTR _pElement2$[ebp]
  0000d	85 d2		 test	 edx, edx
  0000f	74 0d		 je	 SHORT $LN7@CompareEle

; 153  : 	ASSERT(AfxIsValidAddress(pElement1, sizeof(TYPE), FALSE));
; 154  : 	ASSERT(AfxIsValidAddress(pElement2, sizeof(ARG_TYPE), FALSE));
; 155  : 
; 156  : 	return *pElement1 == *pElement2;

  00011	8b 09		 mov	 ecx, DWORD PTR [ecx]
  00013	33 c0		 xor	 eax, eax
  00015	3b 0a		 cmp	 ecx, DWORD PTR [edx]
  00017	0f 94 c0	 sete	 al

; 157  : }

  0001a	5d		 pop	 ebp
  0001b	c2 08 00	 ret	 8
$LN7@CompareEle:

; 152  : 	ENSURE(pElement1 != NULL && pElement2 != NULL);

  0001e	e8 00 00 00 00	 call	 ?AfxThrowInvalidArgException@@YGXXZ ; AfxThrowInvalidArgException
$LN10@CompareEle:
  00023	cc		 int	 3
??$CompareElements@HH@@YGHPBH0@Z ENDP			; CompareElements<int,int>
_TEXT	ENDS
; Function compile flags: /Ogtp
; File C:\Program Files (x86)\Microsoft Visual Studio\2019\Community\VC\Tools\MSVC\14.29.30133\atlmfc\include\afxtempl.h
; File C:\Program Files (x86)\Microsoft Visual Studio\2019\Community\VC\Tools\MSVC\14.29.30133\atlmfc\include\afx.inl
; File C:\Program Files (x86)\Microsoft Visual Studio\2019\Community\VC\Tools\MSVC\14.29.30133\atlmfc\include\afxtempl.h
; File C:\Program Files (x86)\Microsoft Visual Studio\2019\Community\VC\Tools\MSVC\14.29.30133\atlmfc\include\afx.inl
; File C:\Program Files (x86)\Microsoft Visual Studio\2019\Community\VC\Tools\MSVC\14.29.30133\atlmfc\include\afxtempl.h
; File C:\Program Files (x86)\Microsoft Visual Studio\2019\Community\VC\Tools\MSVC\14.29.30133\atlmfc\include\afx.inl
; File C:\Program Files (x86)\Microsoft Visual Studio\2019\Community\VC\Tools\MSVC\14.29.30133\atlmfc\include\afxtempl.h
;	COMDAT ??$SerializeElements@PAVCStringList@@@@YGXAAVCArchive@@PAPAVCStringList@@H@Z
_TEXT	SEGMENT
_ar$ = 8						; size = 4
_pElements$ = 12					; size = 4
_nCount$ = 16						; size = 4
??$SerializeElements@PAVCStringList@@@@YGXAAVCArchive@@PAPAVCStringList@@H@Z PROC ; SerializeElements<CStringList *>, COMDAT

; 67   : {

  00000	55		 push	 ebp
  00001	8b ec		 mov	 ebp, esp

; 68   : 	ENSURE(nCount == 0 || pElements != NULL);

  00003	8b 4d 0c	 mov	 ecx, DWORD PTR _pElements$[ebp]
  00006	53		 push	 ebx
  00007	56		 push	 esi
  00008	8b 75 10	 mov	 esi, DWORD PTR _nCount$[ebp]
  0000b	57		 push	 edi
  0000c	85 f6		 test	 esi, esi
  0000e	74 08		 je	 SHORT $LN2@SerializeE
  00010	85 c9		 test	 ecx, ecx
  00012	0f 84 89 00 00
	00		 je	 $LN34@SerializeE
$LN2@SerializeE:
; File C:\Program Files (x86)\Microsoft Visual Studio\2019\Community\VC\Tools\MSVC\14.29.30133\atlmfc\include\afx.inl

; 212  : 	{ return (m_nMode & CArchive::load) == 0; }

  00018	8b 55 08	 mov	 edx, DWORD PTR _ar$[ebp]
  0001b	8b 42 18	 mov	 eax, DWORD PTR [edx+24]
  0001e	f7 d0		 not	 eax
  00020	a8 01		 test	 al, 1
; File C:\Program Files (x86)\Microsoft Visual Studio\2019\Community\VC\Tools\MSVC\14.29.30133\atlmfc\include\afxtempl.h

; 73   : 	if (ar.IsStoring())

  00022	74 3c		 je	 SHORT $LN10@SerializeE

; 74   : 	{
; 75   : 		TYPE* pData;
; 76   : 		UINT_PTR nElementsLeft;
; 77   : 
; 78   : 		nElementsLeft = nCount;
; 79   : 		pData = pElements;
; 80   : 		while( nElementsLeft > 0 )

  00024	85 f6		 test	 esi, esi
  00026	74 31		 je	 SHORT $LN8@SerializeE
  00028	0f 1f 84 00 00
	00 00 00	 npad	 8
$LL5@SerializeE:

; 81   : 		{
; 82   : 			UINT nElementsToWrite;
; 83   : 
; 84   : 			nElementsToWrite = UINT(__min(nElementsLeft, INT_MAX/sizeof(TYPE)));

  00030	bb ff ff ff 1f	 mov	 ebx, 536870911		; 1fffffffH
  00035	3b f3		 cmp	 esi, ebx
  00037	0f 42 de	 cmovb	 ebx, esi

; 85   : 			ar.Write(pData, nElementsToWrite*sizeof(TYPE));

  0003a	8d 3c 9d 00 00
	00 00		 lea	 edi, DWORD PTR [ebx*4]
  00041	57		 push	 edi
  00042	51		 push	 ecx
  00043	8b ca		 mov	 ecx, edx
  00045	e8 00 00 00 00	 call	 ?Write@CArchive@@QAEXPBXI@Z ; CArchive::Write

; 86   : 			nElementsLeft -= nElementsToWrite;
; 87   : 			pData += nElementsToWrite;

  0004a	8b 4d 0c	 mov	 ecx, DWORD PTR _pElements$[ebp]
  0004d	8b 55 08	 mov	 edx, DWORD PTR _ar$[ebp]
  00050	03 cf		 add	 ecx, edi
  00052	89 4d 0c	 mov	 DWORD PTR _pElements$[ebp], ecx
  00055	2b f3		 sub	 esi, ebx
  00057	75 d7		 jne	 SHORT $LL5@SerializeE
$LN8@SerializeE:
  00059	5f		 pop	 edi

; 105  : 		}
; 106  : 	}
; 107  : }

  0005a	5e		 pop	 esi
  0005b	5b		 pop	 ebx
  0005c	5d		 pop	 ebp
  0005d	c2 0c 00	 ret	 12			; 0000000cH
$LN10@SerializeE:

; 97   : 		while( nElementsLeft > 0 )

  00060	85 f6		 test	 esi, esi
  00062	74 f5		 je	 SHORT $LN8@SerializeE
$LL7@SerializeE:

; 98   : 		{
; 99   : 			UINT nElementsToRead;
; 100  : 
; 101  : 			nElementsToRead = UINT(__min(nElementsLeft, INT_MAX/sizeof(TYPE)));

  00064	bf ff ff ff 1f	 mov	 edi, 536870911		; 1fffffffH
  00069	3b f7		 cmp	 esi, edi
  0006b	0f 42 fe	 cmovb	 edi, esi

; 102  : 			ar.EnsureRead(pData, nElementsToRead*sizeof(TYPE));

  0006e	8d 1c bd 00 00
	00 00		 lea	 ebx, DWORD PTR [edi*4]
; File C:\Program Files (x86)\Microsoft Visual Studio\2019\Community\VC\Tools\MSVC\14.29.30133\atlmfc\include\afx.inl

; 399  : 	UINT nRead=Read(lpBuf, nCount);

  00075	53		 push	 ebx
  00076	51		 push	 ecx
  00077	8b ca		 mov	 ecx, edx
  00079	e8 00 00 00 00	 call	 ?Read@CArchive@@QAEIPAXI@Z ; CArchive::Read

; 400  : 	if(nRead!=nCount)

  0007e	3b c3		 cmp	 eax, ebx
  00080	75 16		 jne	 SHORT $LN23@SerializeE
; File C:\Program Files (x86)\Microsoft Visual Studio\2019\Community\VC\Tools\MSVC\14.29.30133\atlmfc\include\afxtempl.h

; 97   : 		while( nElementsLeft > 0 )

  00082	8b 4d 0c	 mov	 ecx, DWORD PTR _pElements$[ebp]
  00085	8b 55 08	 mov	 edx, DWORD PTR _ar$[ebp]

; 103  : 			nElementsLeft -= nElementsToRead;
; 104  : 			pData += nElementsToRead;

  00088	03 cb		 add	 ecx, ebx
  0008a	89 4d 0c	 mov	 DWORD PTR _pElements$[ebp], ecx
  0008d	2b f7		 sub	 esi, edi
  0008f	75 d3		 jne	 SHORT $LL7@SerializeE

; 105  : 		}
; 106  : 	}
; 107  : }

  00091	5f		 pop	 edi
  00092	5e		 pop	 esi
  00093	5b		 pop	 ebx
  00094	5d		 pop	 ebp
  00095	c2 0c 00	 ret	 12			; 0000000cH
$LN23@SerializeE:
; File C:\Program Files (x86)\Microsoft Visual Studio\2019\Community\VC\Tools\MSVC\14.29.30133\atlmfc\include\afx.inl

; 402  : 		AfxThrowArchiveException(CArchiveException::endOfFile);

  00098	6a 00		 push	 0
  0009a	6a 03		 push	 3
  0009c	e8 00 00 00 00	 call	 ?AfxThrowArchiveException@@YGXHPBD@Z ; AfxThrowArchiveException
$LN34@SerializeE:
; File C:\Program Files (x86)\Microsoft Visual Studio\2019\Community\VC\Tools\MSVC\14.29.30133\atlmfc\include\afxtempl.h

; 68   : 	ENSURE(nCount == 0 || pElements != NULL);

  000a1	e8 00 00 00 00	 call	 ?AfxThrowInvalidArgException@@YGXXZ ; AfxThrowInvalidArgException
$LN32@SerializeE:
  000a6	cc		 int	 3
??$SerializeElements@PAVCStringList@@@@YGXAAVCArchive@@PAPAVCStringList@@H@Z ENDP ; SerializeElements<CStringList *>
_TEXT	ENDS
; Function compile flags: /Ogtp
; File C:\Program Files (x86)\Microsoft Visual Studio\2019\Community\VC\Tools\MSVC\14.29.30133\atlmfc\include\afxtempl.h
; File C:\Program Files (x86)\Microsoft Visual Studio\2019\Community\VC\Tools\MSVC\14.29.30133\atlmfc\include\afx.inl
; File C:\Program Files (x86)\Microsoft Visual Studio\2019\Community\VC\Tools\MSVC\14.29.30133\atlmfc\include\afxtempl.h
; File C:\Program Files (x86)\Microsoft Visual Studio\2019\Community\VC\Tools\MSVC\14.29.30133\atlmfc\include\afx.inl
; File C:\Program Files (x86)\Microsoft Visual Studio\2019\Community\VC\Tools\MSVC\14.29.30133\atlmfc\include\afxtempl.h
; File C:\Program Files (x86)\Microsoft Visual Studio\2019\Community\VC\Tools\MSVC\14.29.30133\atlmfc\include\afx.inl
; File C:\Program Files (x86)\Microsoft Visual Studio\2019\Community\VC\Tools\MSVC\14.29.30133\atlmfc\include\afxtempl.h
;	COMDAT ??$SerializeElements@K@@YGXAAVCArchive@@PAKH@Z
_TEXT	SEGMENT
_ar$ = 8						; size = 4
_pElements$ = 12					; size = 4
_nCount$ = 16						; size = 4
??$SerializeElements@K@@YGXAAVCArchive@@PAKH@Z PROC	; SerializeElements<unsigned long>, COMDAT

; 67   : {

  00000	55		 push	 ebp
  00001	8b ec		 mov	 ebp, esp

; 68   : 	ENSURE(nCount == 0 || pElements != NULL);

  00003	8b 4d 0c	 mov	 ecx, DWORD PTR _pElements$[ebp]
  00006	53		 push	 ebx
  00007	56		 push	 esi
  00008	8b 75 10	 mov	 esi, DWORD PTR _nCount$[ebp]
  0000b	57		 push	 edi
  0000c	85 f6		 test	 esi, esi
  0000e	74 08		 je	 SHORT $LN2@SerializeE
  00010	85 c9		 test	 ecx, ecx
  00012	0f 84 89 00 00
	00		 je	 $LN34@SerializeE
$LN2@SerializeE:
; File C:\Program Files (x86)\Microsoft Visual Studio\2019\Community\VC\Tools\MSVC\14.29.30133\atlmfc\include\afx.inl

; 212  : 	{ return (m_nMode & CArchive::load) == 0; }

  00018	8b 55 08	 mov	 edx, DWORD PTR _ar$[ebp]
  0001b	8b 42 18	 mov	 eax, DWORD PTR [edx+24]
  0001e	f7 d0		 not	 eax
  00020	a8 01		 test	 al, 1
; File C:\Program Files (x86)\Microsoft Visual Studio\2019\Community\VC\Tools\MSVC\14.29.30133\atlmfc\include\afxtempl.h

; 73   : 	if (ar.IsStoring())

  00022	74 3c		 je	 SHORT $LN10@SerializeE

; 74   : 	{
; 75   : 		TYPE* pData;
; 76   : 		UINT_PTR nElementsLeft;
; 77   : 
; 78   : 		nElementsLeft = nCount;
; 79   : 		pData = pElements;
; 80   : 		while( nElementsLeft > 0 )

  00024	85 f6		 test	 esi, esi
  00026	74 31		 je	 SHORT $LN8@SerializeE
  00028	0f 1f 84 00 00
	00 00 00	 npad	 8
$LL5@SerializeE:

; 81   : 		{
; 82   : 			UINT nElementsToWrite;
; 83   : 
; 84   : 			nElementsToWrite = UINT(__min(nElementsLeft, INT_MAX/sizeof(TYPE)));

  00030	bb ff ff ff 1f	 mov	 ebx, 536870911		; 1fffffffH
  00035	3b f3		 cmp	 esi, ebx
  00037	0f 42 de	 cmovb	 ebx, esi

; 85   : 			ar.Write(pData, nElementsToWrite*sizeof(TYPE));

  0003a	8d 3c 9d 00 00
	00 00		 lea	 edi, DWORD PTR [ebx*4]
  00041	57		 push	 edi
  00042	51		 push	 ecx
  00043	8b ca		 mov	 ecx, edx
  00045	e8 00 00 00 00	 call	 ?Write@CArchive@@QAEXPBXI@Z ; CArchive::Write

; 86   : 			nElementsLeft -= nElementsToWrite;
; 87   : 			pData += nElementsToWrite;

  0004a	8b 4d 0c	 mov	 ecx, DWORD PTR _pElements$[ebp]
  0004d	8b 55 08	 mov	 edx, DWORD PTR _ar$[ebp]
  00050	03 cf		 add	 ecx, edi
  00052	89 4d 0c	 mov	 DWORD PTR _pElements$[ebp], ecx
  00055	2b f3		 sub	 esi, ebx
  00057	75 d7		 jne	 SHORT $LL5@SerializeE
$LN8@SerializeE:
  00059	5f		 pop	 edi

; 105  : 		}
; 106  : 	}
; 107  : }

  0005a	5e		 pop	 esi
  0005b	5b		 pop	 ebx
  0005c	5d		 pop	 ebp
  0005d	c2 0c 00	 ret	 12			; 0000000cH
$LN10@SerializeE:

; 97   : 		while( nElementsLeft > 0 )

  00060	85 f6		 test	 esi, esi
  00062	74 f5		 je	 SHORT $LN8@SerializeE
$LL7@SerializeE:

; 98   : 		{
; 99   : 			UINT nElementsToRead;
; 100  : 
; 101  : 			nElementsToRead = UINT(__min(nElementsLeft, INT_MAX/sizeof(TYPE)));

  00064	bf ff ff ff 1f	 mov	 edi, 536870911		; 1fffffffH
  00069	3b f7		 cmp	 esi, edi
  0006b	0f 42 fe	 cmovb	 edi, esi

; 102  : 			ar.EnsureRead(pData, nElementsToRead*sizeof(TYPE));

  0006e	8d 1c bd 00 00
	00 00		 lea	 ebx, DWORD PTR [edi*4]
; File C:\Program Files (x86)\Microsoft Visual Studio\2019\Community\VC\Tools\MSVC\14.29.30133\atlmfc\include\afx.inl

; 399  : 	UINT nRead=Read(lpBuf, nCount);

  00075	53		 push	 ebx
  00076	51		 push	 ecx
  00077	8b ca		 mov	 ecx, edx
  00079	e8 00 00 00 00	 call	 ?Read@CArchive@@QAEIPAXI@Z ; CArchive::Read

; 400  : 	if(nRead!=nCount)

  0007e	3b c3		 cmp	 eax, ebx
  00080	75 16		 jne	 SHORT $LN23@SerializeE
; File C:\Program Files (x86)\Microsoft Visual Studio\2019\Community\VC\Tools\MSVC\14.29.30133\atlmfc\include\afxtempl.h

; 97   : 		while( nElementsLeft > 0 )

  00082	8b 4d 0c	 mov	 ecx, DWORD PTR _pElements$[ebp]
  00085	8b 55 08	 mov	 edx, DWORD PTR _ar$[ebp]

; 103  : 			nElementsLeft -= nElementsToRead;
; 104  : 			pData += nElementsToRead;

  00088	03 cb		 add	 ecx, ebx
  0008a	89 4d 0c	 mov	 DWORD PTR _pElements$[ebp], ecx
  0008d	2b f7		 sub	 esi, edi
  0008f	75 d3		 jne	 SHORT $LL7@SerializeE

; 105  : 		}
; 106  : 	}
; 107  : }

  00091	5f		 pop	 edi
  00092	5e		 pop	 esi
  00093	5b		 pop	 ebx
  00094	5d		 pop	 ebp
  00095	c2 0c 00	 ret	 12			; 0000000cH
$LN23@SerializeE:
; File C:\Program Files (x86)\Microsoft Visual Studio\2019\Community\VC\Tools\MSVC\14.29.30133\atlmfc\include\afx.inl

; 402  : 		AfxThrowArchiveException(CArchiveException::endOfFile);

  00098	6a 00		 push	 0
  0009a	6a 03		 push	 3
  0009c	e8 00 00 00 00	 call	 ?AfxThrowArchiveException@@YGXHPBD@Z ; AfxThrowArchiveException
$LN34@SerializeE:
; File C:\Program Files (x86)\Microsoft Visual Studio\2019\Community\VC\Tools\MSVC\14.29.30133\atlmfc\include\afxtempl.h

; 68   : 	ENSURE(nCount == 0 || pElements != NULL);

  000a1	e8 00 00 00 00	 call	 ?AfxThrowInvalidArgException@@YGXXZ ; AfxThrowInvalidArgException
$LN32@SerializeE:
  000a6	cc		 int	 3
??$SerializeElements@K@@YGXAAVCArchive@@PAKH@Z ENDP	; SerializeElements<unsigned long>
_TEXT	ENDS
; Function compile flags: /Ogtp
; File C:\Program Files (x86)\Microsoft Visual Studio\2019\Community\VC\Tools\MSVC\14.29.30133\atlmfc\include\afxtempl.h
; File C:\Program Files (x86)\Microsoft Visual Studio\2019\Community\VC\Tools\MSVC\14.29.30133\atlmfc\include\afx.inl
; File C:\Program Files (x86)\Microsoft Visual Studio\2019\Community\VC\Tools\MSVC\14.29.30133\atlmfc\include\afxtempl.h
; File C:\Program Files (x86)\Microsoft Visual Studio\2019\Community\VC\Tools\MSVC\14.29.30133\atlmfc\include\afx.inl
; File C:\Program Files (x86)\Microsoft Visual Studio\2019\Community\VC\Tools\MSVC\14.29.30133\atlmfc\include\afxtempl.h
; File C:\Program Files (x86)\Microsoft Visual Studio\2019\Community\VC\Tools\MSVC\14.29.30133\atlmfc\include\afx.inl
; File C:\Program Files (x86)\Microsoft Visual Studio\2019\Community\VC\Tools\MSVC\14.29.30133\atlmfc\include\afxtempl.h
;	COMDAT ??$SerializeElements@W4CONTROLTYPE@CItemInfo@@@@YGXAAVCArchive@@PAW4CONTROLTYPE@CItemInfo@@H@Z
_TEXT	SEGMENT
_ar$ = 8						; size = 4
_pElements$ = 12					; size = 4
_nCount$ = 16						; size = 4
??$SerializeElements@W4CONTROLTYPE@CItemInfo@@@@YGXAAVCArchive@@PAW4CONTROLTYPE@CItemInfo@@H@Z PROC ; SerializeElements<enum CItemInfo::CONTROLTYPE>, COMDAT

; 67   : {

  00000	55		 push	 ebp
  00001	8b ec		 mov	 ebp, esp

; 68   : 	ENSURE(nCount == 0 || pElements != NULL);

  00003	8b 4d 0c	 mov	 ecx, DWORD PTR _pElements$[ebp]
  00006	53		 push	 ebx
  00007	56		 push	 esi
  00008	8b 75 10	 mov	 esi, DWORD PTR _nCount$[ebp]
  0000b	57		 push	 edi
  0000c	85 f6		 test	 esi, esi
  0000e	74 08		 je	 SHORT $LN2@SerializeE
  00010	85 c9		 test	 ecx, ecx
  00012	0f 84 89 00 00
	00		 je	 $LN34@SerializeE
$LN2@SerializeE:
; File C:\Program Files (x86)\Microsoft Visual Studio\2019\Community\VC\Tools\MSVC\14.29.30133\atlmfc\include\afx.inl

; 212  : 	{ return (m_nMode & CArchive::load) == 0; }

  00018	8b 55 08	 mov	 edx, DWORD PTR _ar$[ebp]
  0001b	8b 42 18	 mov	 eax, DWORD PTR [edx+24]
  0001e	f7 d0		 not	 eax
  00020	a8 01		 test	 al, 1
; File C:\Program Files (x86)\Microsoft Visual Studio\2019\Community\VC\Tools\MSVC\14.29.30133\atlmfc\include\afxtempl.h

; 73   : 	if (ar.IsStoring())

  00022	74 3c		 je	 SHORT $LN10@SerializeE

; 74   : 	{
; 75   : 		TYPE* pData;
; 76   : 		UINT_PTR nElementsLeft;
; 77   : 
; 78   : 		nElementsLeft = nCount;
; 79   : 		pData = pElements;
; 80   : 		while( nElementsLeft > 0 )

  00024	85 f6		 test	 esi, esi
  00026	74 31		 je	 SHORT $LN8@SerializeE
  00028	0f 1f 84 00 00
	00 00 00	 npad	 8
$LL5@SerializeE:

; 81   : 		{
; 82   : 			UINT nElementsToWrite;
; 83   : 
; 84   : 			nElementsToWrite = UINT(__min(nElementsLeft, INT_MAX/sizeof(TYPE)));

  00030	bb ff ff ff 1f	 mov	 ebx, 536870911		; 1fffffffH
  00035	3b f3		 cmp	 esi, ebx
  00037	0f 42 de	 cmovb	 ebx, esi

; 85   : 			ar.Write(pData, nElementsToWrite*sizeof(TYPE));

  0003a	8d 3c 9d 00 00
	00 00		 lea	 edi, DWORD PTR [ebx*4]
  00041	57		 push	 edi
  00042	51		 push	 ecx
  00043	8b ca		 mov	 ecx, edx
  00045	e8 00 00 00 00	 call	 ?Write@CArchive@@QAEXPBXI@Z ; CArchive::Write

; 86   : 			nElementsLeft -= nElementsToWrite;
; 87   : 			pData += nElementsToWrite;

  0004a	8b 4d 0c	 mov	 ecx, DWORD PTR _pElements$[ebp]
  0004d	8b 55 08	 mov	 edx, DWORD PTR _ar$[ebp]
  00050	03 cf		 add	 ecx, edi
  00052	89 4d 0c	 mov	 DWORD PTR _pElements$[ebp], ecx
  00055	2b f3		 sub	 esi, ebx
  00057	75 d7		 jne	 SHORT $LL5@SerializeE
$LN8@SerializeE:
  00059	5f		 pop	 edi

; 105  : 		}
; 106  : 	}
; 107  : }

  0005a	5e		 pop	 esi
  0005b	5b		 pop	 ebx
  0005c	5d		 pop	 ebp
  0005d	c2 0c 00	 ret	 12			; 0000000cH
$LN10@SerializeE:

; 97   : 		while( nElementsLeft > 0 )

  00060	85 f6		 test	 esi, esi
  00062	74 f5		 je	 SHORT $LN8@SerializeE
$LL7@SerializeE:

; 98   : 		{
; 99   : 			UINT nElementsToRead;
; 100  : 
; 101  : 			nElementsToRead = UINT(__min(nElementsLeft, INT_MAX/sizeof(TYPE)));

  00064	bf ff ff ff 1f	 mov	 edi, 536870911		; 1fffffffH
  00069	3b f7		 cmp	 esi, edi
  0006b	0f 42 fe	 cmovb	 edi, esi

; 102  : 			ar.EnsureRead(pData, nElementsToRead*sizeof(TYPE));

  0006e	8d 1c bd 00 00
	00 00		 lea	 ebx, DWORD PTR [edi*4]
; File C:\Program Files (x86)\Microsoft Visual Studio\2019\Community\VC\Tools\MSVC\14.29.30133\atlmfc\include\afx.inl

; 399  : 	UINT nRead=Read(lpBuf, nCount);

  00075	53		 push	 ebx
  00076	51		 push	 ecx
  00077	8b ca		 mov	 ecx, edx
  00079	e8 00 00 00 00	 call	 ?Read@CArchive@@QAEIPAXI@Z ; CArchive::Read

; 400  : 	if(nRead!=nCount)

  0007e	3b c3		 cmp	 eax, ebx
  00080	75 16		 jne	 SHORT $LN23@SerializeE
; File C:\Program Files (x86)\Microsoft Visual Studio\2019\Community\VC\Tools\MSVC\14.29.30133\atlmfc\include\afxtempl.h

; 97   : 		while( nElementsLeft > 0 )

  00082	8b 4d 0c	 mov	 ecx, DWORD PTR _pElements$[ebp]
  00085	8b 55 08	 mov	 edx, DWORD PTR _ar$[ebp]

; 103  : 			nElementsLeft -= nElementsToRead;
; 104  : 			pData += nElementsToRead;

  00088	03 cb		 add	 ecx, ebx
  0008a	89 4d 0c	 mov	 DWORD PTR _pElements$[ebp], ecx
  0008d	2b f7		 sub	 esi, edi
  0008f	75 d3		 jne	 SHORT $LL7@SerializeE

; 105  : 		}
; 106  : 	}
; 107  : }

  00091	5f		 pop	 edi
  00092	5e		 pop	 esi
  00093	5b		 pop	 ebx
  00094	5d		 pop	 ebp
  00095	c2 0c 00	 ret	 12			; 0000000cH
$LN23@SerializeE:
; File C:\Program Files (x86)\Microsoft Visual Studio\2019\Community\VC\Tools\MSVC\14.29.30133\atlmfc\include\afx.inl

; 402  : 		AfxThrowArchiveException(CArchiveException::endOfFile);

  00098	6a 00		 push	 0
  0009a	6a 03		 push	 3
  0009c	e8 00 00 00 00	 call	 ?AfxThrowArchiveException@@YGXHPBD@Z ; AfxThrowArchiveException
$LN34@SerializeE:
; File C:\Program Files (x86)\Microsoft Visual Studio\2019\Community\VC\Tools\MSVC\14.29.30133\atlmfc\include\afxtempl.h

; 68   : 	ENSURE(nCount == 0 || pElements != NULL);

  000a1	e8 00 00 00 00	 call	 ?AfxThrowInvalidArgException@@YGXXZ ; AfxThrowInvalidArgException
$LN32@SerializeE:
  000a6	cc		 int	 3
??$SerializeElements@W4CONTROLTYPE@CItemInfo@@@@YGXAAVCArchive@@PAW4CONTROLTYPE@CItemInfo@@H@Z ENDP ; SerializeElements<enum CItemInfo::CONTROLTYPE>
_TEXT	ENDS
; Function compile flags: /Ogtp
; File C:\Program Files (x86)\Microsoft Visual Studio\2019\Community\VC\Tools\MSVC\14.29.30133\atlmfc\include\afxtempl.h
; File C:\Program Files (x86)\Microsoft Visual Studio\2019\Community\VC\Tools\MSVC\14.29.30133\atlmfc\include\afx.inl
; File C:\Program Files (x86)\Microsoft Visual Studio\2019\Community\VC\Tools\MSVC\14.29.30133\atlmfc\include\afxtempl.h
; File C:\Program Files (x86)\Microsoft Visual Studio\2019\Community\VC\Tools\MSVC\14.29.30133\atlmfc\include\afx.inl
; File C:\Program Files (x86)\Microsoft Visual Studio\2019\Community\VC\Tools\MSVC\14.29.30133\atlmfc\include\afxtempl.h
; File C:\Program Files (x86)\Microsoft Visual Studio\2019\Community\VC\Tools\MSVC\14.29.30133\atlmfc\include\afx.inl
; File C:\Program Files (x86)\Microsoft Visual Studio\2019\Community\VC\Tools\MSVC\14.29.30133\atlmfc\include\afxtempl.h
;	COMDAT ??$SerializeElements@H@@YGXAAVCArchive@@PAHH@Z
_TEXT	SEGMENT
_ar$ = 8						; size = 4
_pElements$ = 12					; size = 4
_nCount$ = 16						; size = 4
??$SerializeElements@H@@YGXAAVCArchive@@PAHH@Z PROC	; SerializeElements<int>, COMDAT

; 67   : {

  00000	55		 push	 ebp
  00001	8b ec		 mov	 ebp, esp

; 68   : 	ENSURE(nCount == 0 || pElements != NULL);

  00003	8b 4d 0c	 mov	 ecx, DWORD PTR _pElements$[ebp]
  00006	53		 push	 ebx
  00007	56		 push	 esi
  00008	8b 75 10	 mov	 esi, DWORD PTR _nCount$[ebp]
  0000b	57		 push	 edi
  0000c	85 f6		 test	 esi, esi
  0000e	74 08		 je	 SHORT $LN2@SerializeE
  00010	85 c9		 test	 ecx, ecx
  00012	0f 84 89 00 00
	00		 je	 $LN34@SerializeE
$LN2@SerializeE:
; File C:\Program Files (x86)\Microsoft Visual Studio\2019\Community\VC\Tools\MSVC\14.29.30133\atlmfc\include\afx.inl

; 212  : 	{ return (m_nMode & CArchive::load) == 0; }

  00018	8b 55 08	 mov	 edx, DWORD PTR _ar$[ebp]
  0001b	8b 42 18	 mov	 eax, DWORD PTR [edx+24]
  0001e	f7 d0		 not	 eax
  00020	a8 01		 test	 al, 1
; File C:\Program Files (x86)\Microsoft Visual Studio\2019\Community\VC\Tools\MSVC\14.29.30133\atlmfc\include\afxtempl.h

; 73   : 	if (ar.IsStoring())

  00022	74 3c		 je	 SHORT $LN10@SerializeE

; 74   : 	{
; 75   : 		TYPE* pData;
; 76   : 		UINT_PTR nElementsLeft;
; 77   : 
; 78   : 		nElementsLeft = nCount;
; 79   : 		pData = pElements;
; 80   : 		while( nElementsLeft > 0 )

  00024	85 f6		 test	 esi, esi
  00026	74 31		 je	 SHORT $LN8@SerializeE
  00028	0f 1f 84 00 00
	00 00 00	 npad	 8
$LL5@SerializeE:

; 81   : 		{
; 82   : 			UINT nElementsToWrite;
; 83   : 
; 84   : 			nElementsToWrite = UINT(__min(nElementsLeft, INT_MAX/sizeof(TYPE)));

  00030	bb ff ff ff 1f	 mov	 ebx, 536870911		; 1fffffffH
  00035	3b f3		 cmp	 esi, ebx
  00037	0f 42 de	 cmovb	 ebx, esi

; 85   : 			ar.Write(pData, nElementsToWrite*sizeof(TYPE));

  0003a	8d 3c 9d 00 00
	00 00		 lea	 edi, DWORD PTR [ebx*4]
  00041	57		 push	 edi
  00042	51		 push	 ecx
  00043	8b ca		 mov	 ecx, edx
  00045	e8 00 00 00 00	 call	 ?Write@CArchive@@QAEXPBXI@Z ; CArchive::Write

; 86   : 			nElementsLeft -= nElementsToWrite;
; 87   : 			pData += nElementsToWrite;

  0004a	8b 4d 0c	 mov	 ecx, DWORD PTR _pElements$[ebp]
  0004d	8b 55 08	 mov	 edx, DWORD PTR _ar$[ebp]
  00050	03 cf		 add	 ecx, edi
  00052	89 4d 0c	 mov	 DWORD PTR _pElements$[ebp], ecx
  00055	2b f3		 sub	 esi, ebx
  00057	75 d7		 jne	 SHORT $LL5@SerializeE
$LN8@SerializeE:
  00059	5f		 pop	 edi

; 105  : 		}
; 106  : 	}
; 107  : }

  0005a	5e		 pop	 esi
  0005b	5b		 pop	 ebx
  0005c	5d		 pop	 ebp
  0005d	c2 0c 00	 ret	 12			; 0000000cH
$LN10@SerializeE:

; 97   : 		while( nElementsLeft > 0 )

  00060	85 f6		 test	 esi, esi
  00062	74 f5		 je	 SHORT $LN8@SerializeE
$LL7@SerializeE:

; 98   : 		{
; 99   : 			UINT nElementsToRead;
; 100  : 
; 101  : 			nElementsToRead = UINT(__min(nElementsLeft, INT_MAX/sizeof(TYPE)));

  00064	bf ff ff ff 1f	 mov	 edi, 536870911		; 1fffffffH
  00069	3b f7		 cmp	 esi, edi
  0006b	0f 42 fe	 cmovb	 edi, esi

; 102  : 			ar.EnsureRead(pData, nElementsToRead*sizeof(TYPE));

  0006e	8d 1c bd 00 00
	00 00		 lea	 ebx, DWORD PTR [edi*4]
; File C:\Program Files (x86)\Microsoft Visual Studio\2019\Community\VC\Tools\MSVC\14.29.30133\atlmfc\include\afx.inl

; 399  : 	UINT nRead=Read(lpBuf, nCount);

  00075	53		 push	 ebx
  00076	51		 push	 ecx
  00077	8b ca		 mov	 ecx, edx
  00079	e8 00 00 00 00	 call	 ?Read@CArchive@@QAEIPAXI@Z ; CArchive::Read

; 400  : 	if(nRead!=nCount)

  0007e	3b c3		 cmp	 eax, ebx
  00080	75 16		 jne	 SHORT $LN23@SerializeE
; File C:\Program Files (x86)\Microsoft Visual Studio\2019\Community\VC\Tools\MSVC\14.29.30133\atlmfc\include\afxtempl.h

; 97   : 		while( nElementsLeft > 0 )

  00082	8b 4d 0c	 mov	 ecx, DWORD PTR _pElements$[ebp]
  00085	8b 55 08	 mov	 edx, DWORD PTR _ar$[ebp]

; 103  : 			nElementsLeft -= nElementsToRead;
; 104  : 			pData += nElementsToRead;

  00088	03 cb		 add	 ecx, ebx
  0008a	89 4d 0c	 mov	 DWORD PTR _pElements$[ebp], ecx
  0008d	2b f7		 sub	 esi, edi
  0008f	75 d3		 jne	 SHORT $LL7@SerializeE

; 105  : 		}
; 106  : 	}
; 107  : }

  00091	5f		 pop	 edi
  00092	5e		 pop	 esi
  00093	5b		 pop	 ebx
  00094	5d		 pop	 ebp
  00095	c2 0c 00	 ret	 12			; 0000000cH
$LN23@SerializeE:
; File C:\Program Files (x86)\Microsoft Visual Studio\2019\Community\VC\Tools\MSVC\14.29.30133\atlmfc\include\afx.inl

; 402  : 		AfxThrowArchiveException(CArchiveException::endOfFile);

  00098	6a 00		 push	 0
  0009a	6a 03		 push	 3
  0009c	e8 00 00 00 00	 call	 ?AfxThrowArchiveException@@YGXHPBD@Z ; AfxThrowArchiveException
$LN34@SerializeE:
; File C:\Program Files (x86)\Microsoft Visual Studio\2019\Community\VC\Tools\MSVC\14.29.30133\atlmfc\include\afxtempl.h

; 68   : 	ENSURE(nCount == 0 || pElements != NULL);

  000a1	e8 00 00 00 00	 call	 ?AfxThrowInvalidArgException@@YGXXZ ; AfxThrowInvalidArgException
$LN32@SerializeE:
  000a6	cc		 int	 3
??$SerializeElements@H@@YGXAAVCArchive@@PAHH@Z ENDP	; SerializeElements<int>
_TEXT	ENDS
; Function compile flags: /Ogtp
; File D:\git\src\IBK\IBK_DRFN\ProjSrc\SrcChartEx\ChartAddIn\ChartDesignPropertyAddIn\Include_Chart\Dll_Load\IMetaTable.h
; File C:\Program Files (x86)\Microsoft Visual Studio\2019\Community\VC\Tools\MSVC\14.29.30133\atlmfc\include\afxwin1.inl
; File D:\git\src\IBK\IBK_DRFN\ProjSrc\SrcChartEx\ChartAddIn\ChartDesignPropertyAddIn\Include_Chart\Dll_Load\IMetaTable.h
;	COMDAT ??1CMultiLanguageResourceSetter@@QAE@XZ
_TEXT	SEGMENT
__$EHRec$ = -12						; size = 12
??1CMultiLanguageResourceSetter@@QAE@XZ PROC		; CMultiLanguageResourceSetter::~CMultiLanguageResourceSetter, COMDAT
; _this$ = ecx

; 1036 : 	{

  00000	55		 push	 ebp
  00001	8b ec		 mov	 ebp, esp
  00003	6a ff		 push	 -1
  00005	68 00 00 00 00	 push	 __ehhandler$??1CMultiLanguageResourceSetter@@QAE@XZ
  0000a	64 a1 00 00 00
	00		 mov	 eax, DWORD PTR fs:0
  00010	50		 push	 eax
  00011	56		 push	 esi
  00012	a1 00 00 00 00	 mov	 eax, DWORD PTR ___security_cookie
  00017	33 c5		 xor	 eax, ebp
  00019	50		 push	 eax
  0001a	8d 45 f4	 lea	 eax, DWORD PTR __$EHRec$[ebp]
  0001d	64 a3 00 00 00
	00		 mov	 DWORD PTR fs:0, eax

; 1037 : 		AfxSetResourceHandle( m_hInstance);

  00023	8b 31		 mov	 esi, DWORD PTR [ecx]
; File C:\Program Files (x86)\Microsoft Visual Studio\2019\Community\VC\Tools\MSVC\14.29.30133\atlmfc\include\afxwin1.inl

; 27   : 	{ ASSERT(hInstResource != NULL); afxCurrentResourceHandle = hInstResource; }

  00025	e8 00 00 00 00	 call	 ?AfxGetModuleState@@YGPAVAFX_MODULE_STATE@@XZ ; AfxGetModuleState
  0002a	89 70 0c	 mov	 DWORD PTR [eax+12], esi
; File D:\git\src\IBK\IBK_DRFN\ProjSrc\SrcChartEx\ChartAddIn\ChartDesignPropertyAddIn\Include_Chart\Dll_Load\IMetaTable.h

; 1038 : 	}

  0002d	8b 4d f4	 mov	 ecx, DWORD PTR __$EHRec$[ebp]
  00030	64 89 0d 00 00
	00 00		 mov	 DWORD PTR fs:0, ecx
  00037	59		 pop	 ecx
  00038	5e		 pop	 esi
  00039	8b e5		 mov	 esp, ebp
  0003b	5d		 pop	 ebp
  0003c	c3		 ret	 0
  0003d	cc		 int	 3
  0003e	cc		 int	 3
  0003f	cc		 int	 3
  00040	cc		 int	 3
  00041	cc		 int	 3
_TEXT	ENDS
;	COMDAT text$x
text$x	SEGMENT
__ehhandler$??1CMultiLanguageResourceSetter@@QAE@XZ:
  00000	90		 npad	 1
  00001	90		 npad	 1
  00002	8b 54 24 08	 mov	 edx, DWORD PTR [esp+8]
  00006	8d 42 0c	 lea	 eax, DWORD PTR [edx+12]
  00009	8b 4a f8	 mov	 ecx, DWORD PTR [edx-8]
  0000c	33 c8		 xor	 ecx, eax
  0000e	e8 00 00 00 00	 call	 @__security_check_cookie@4
  00013	b8 00 00 00 00	 mov	 eax, OFFSET __ehfuncinfo$??1CMultiLanguageResourceSetter@@QAE@XZ
  00018	e9 00 00 00 00	 jmp	 ___CxxFrameHandler3
text$x	ENDS
??1CMultiLanguageResourceSetter@@QAE@XZ ENDP		; CMultiLanguageResourceSetter::~CMultiLanguageResourceSetter
; Function compile flags: /Ogtp
; File D:\git\src\IBK\IBK_DRFN\ProjSrc\SrcChartEx\ChartAddIn\ChartDesignPropertyAddIn\Include_Chart\Dll_Load\IMetaTable.h
;	COMDAT ?LoadResourceDLL@IMetaTable@@QAEPAUHINSTANCE__@@PAUHWND__@@PAU2@@Z
_TEXT	SEGMENT
_p1$ = 8						; size = 4
_p2$ = 12						; size = 4
?LoadResourceDLL@IMetaTable@@QAEPAUHINSTANCE__@@PAUHWND__@@PAU2@@Z PROC ; IMetaTable::LoadResourceDLL, COMDAT
; _this$ = ecx

; 936  : 	DECLARE_FUNCTION2(	LoadResourceDLL,				HMODULE, AfxGetStaticModuleState()->m_hCurrentInstanceHandle, HWND, HMODULE);

  00000	55		 push	 ebp
  00001	8b ec		 mov	 ebp, esp
  00003	56		 push	 esi
  00004	8b f1		 mov	 esi, ecx
  00006	8b 46 04	 mov	 eax, DWORD PTR [esi+4]
  00009	85 c0		 test	 eax, eax
  0000b	74 4d		 je	 SHORT $LN4@LoadResour
  0000d	57		 push	 edi
  0000e	bf 80 0d 00 00	 mov	 edi, 3456		; 00000d80H
  00013	66 3b be 94 00
	00 00		 cmp	 di, WORD PTR [esi+148]
  0001a	74 23		 je	 SHORT $LN3@LoadResour
  0001c	68 00 00 00 00	 push	 OFFSET ??_C@_0BA@ENJOCHIO@LoadResourceDLL@
  00021	50		 push	 eax
  00022	c7 86 90 00 00
	00 00 00 00 00	 mov	 DWORD PTR [esi+144], 0
  0002c	ff 15 00 00 00
	00		 call	 DWORD PTR __imp__GetProcAddress@8
  00032	89 86 90 00 00
	00		 mov	 DWORD PTR [esi+144], eax
  00038	66 89 be 94 00
	00 00		 mov	 WORD PTR [esi+148], di
$LN3@LoadResour:
  0003f	8b 86 90 00 00
	00		 mov	 eax, DWORD PTR [esi+144]
  00045	5f		 pop	 edi
  00046	85 c0		 test	 eax, eax
  00048	74 10		 je	 SHORT $LN4@LoadResour
  0004a	ff 75 0c	 push	 DWORD PTR _p2$[ebp]
  0004d	ff 75 08	 push	 DWORD PTR _p1$[ebp]
  00050	ff d0		 call	 eax
  00052	83 c4 08	 add	 esp, 8
  00055	5e		 pop	 esi
  00056	5d		 pop	 ebp
  00057	c2 08 00	 ret	 8
$LN4@LoadResour:
  0005a	e8 00 00 00 00	 call	 ?AfxGetStaticModuleState@@YGPAVAFX_MODULE_STATE@@XZ ; AfxGetStaticModuleState
  0005f	5e		 pop	 esi
  00060	8b 40 08	 mov	 eax, DWORD PTR [eax+8]
  00063	5d		 pop	 ebp
  00064	c2 08 00	 ret	 8
?LoadResourceDLL@IMetaTable@@QAEPAUHINSTANCE__@@PAUHWND__@@PAU2@@Z ENDP ; IMetaTable::LoadResourceDLL
_TEXT	ENDS
; Function compile flags: /Ogtp
; File D:\git\src\IBK\IBK_DRFN\ProjSrc\SrcChartEx\ChartAddIn\ChartDesignPropertyAddIn\ChartDesignPropertyAddIn\PacketSuperGrid.cpp
; File C:\Program Files (x86)\Microsoft Visual Studio\2019\Community\VC\Tools\MSVC\14.29.30133\atlmfc\include\afx.inl
;	COMDAT ??_GCPacketSuperGrid@@UAEPAXI@Z
_TEXT	SEGMENT
___flags$ = 8						; size = 4
??_GCPacketSuperGrid@@UAEPAXI@Z PROC			; CPacketSuperGrid::`scalar deleting destructor', COMDAT
; _this$ = ecx
  00000	55		 push	 ebp
  00001	8b ec		 mov	 ebp, esp
; File D:\git\src\IBK\IBK_DRFN\ProjSrc\SrcChartEx\ChartAddIn\ChartDesignPropertyAddIn\ChartDesignPropertyAddIn\PacketSuperGrid.cpp

; 28   : {

  00003	56		 push	 esi
  00004	8b f1		 mov	 esi, ecx

; 29   : }

  00006	8d 8e ec 00 00
	00		 lea	 ecx, DWORD PTR [esi+236]
  0000c	c7 06 00 00 00
	00		 mov	 DWORD PTR [esi], OFFSET ??_7CPacketSuperGrid@@6B@
  00012	e8 00 00 00 00	 call	 ??1CImageList@@UAE@XZ	; CImageList::~CImageList
  00017	8b ce		 mov	 ecx, esi
  00019	e8 00 00 00 00	 call	 ??1CSuperGridCtrl@@UAE@XZ ; CSuperGridCtrl::~CSuperGridCtrl
  0001e	8b 45 08	 mov	 eax, DWORD PTR ___flags$[ebp]
  00021	a8 01		 test	 al, 1
  00023	74 22		 je	 SHORT $LN12@scalar
  00025	a8 04		 test	 al, 4
  00027	75 10		 jne	 SHORT $LN3@scalar
; File C:\Program Files (x86)\Microsoft Visual Studio\2019\Community\VC\Tools\MSVC\14.29.30133\atlmfc\include\afx.inl

; 112  : 	{ ::operator delete(p); }

  00029	56		 push	 esi
  0002a	e8 00 00 00 00	 call	 ??3@YAXPAX@Z		; operator delete
  0002f	83 c4 04	 add	 esp, 4
  00032	8b c6		 mov	 eax, esi
  00034	5e		 pop	 esi
  00035	5d		 pop	 ebp
  00036	c2 04 00	 ret	 4
$LN3@scalar:
  00039	68 f8 00 00 00	 push	 248			; 000000f8H
  0003e	56		 push	 esi
  0003f	e8 00 00 00 00	 call	 ?__global_delete@@YAXPAXI@Z ; __global_delete
  00044	83 c4 08	 add	 esp, 8
$LN12@scalar:
  00047	8b c6		 mov	 eax, esi
  00049	5e		 pop	 esi
  0004a	5d		 pop	 ebp
  0004b	c2 04 00	 ret	 4
??_GCPacketSuperGrid@@UAEPAXI@Z ENDP			; CPacketSuperGrid::`scalar deleting destructor'
_TEXT	ENDS
; Function compile flags: /Ogtp
; File D:\git\src\IBK\IBK_DRFN\ProjSrc\SrcChartEx\ChartAddIn\ChartDesignPropertyAddIn\ChartDesignPropertyAddIn\PacketSuperGrid.cpp
;	COMDAT ?GetDataType@CPacketSuperGrid@@AAE?AW4DATATYPE@1@H@Z
_TEXT	SEGMENT
_nDataType$ = 8						; size = 4
?GetDataType@CPacketSuperGrid@@AAE?AW4DATATYPE@1@H@Z PROC ; CPacketSuperGrid::GetDataType, COMDAT
; _this$ = ecx

; 435  : {

  00000	55		 push	 ebp
  00001	8b ec		 mov	 ebp, esp

; 436  : 	switch(nDataType)

  00003	8b 45 08	 mov	 eax, DWORD PTR _nDataType$[ebp]
  00006	83 f8 13	 cmp	 eax, 19			; 00000013H
  00009	77 41		 ja	 SHORT $LN18@GetDataTyp
  0000b	0f b6 80 00 00
	00 00		 movzx	 eax, BYTE PTR $LN20@GetDataTyp[eax]
  00012	ff 24 85 00 00
	00 00		 jmp	 DWORD PTR $LN21@GetDataTyp[eax*4]
$LN4@GetDataTyp:

; 437  : 	{
; 438  : 		case CPacketSuperGrid::SECONDDATE_ITEM:		// (2007/3/14 - Seung-Won, Bae) Dummy Packet for Date FID in Koscom
; 439  : 		case CPacketSuperGrid::INFODATE_ITEM:
; 440  : 			return CPacketSuperGrid::DATE;

  00019	33 c0		 xor	 eax, eax

; 460  : 	}
; 461  : 	return ANOTHER;
; 462  : }

  0001b	5d		 pop	 ebp
  0001c	c2 04 00	 ret	 4
$LN6@GetDataTyp:

; 441  : 		case CPacketSuperGrid::TEXT_ITEM:
; 442  : 			return CPacketSuperGrid::TEXT;

  0001f	b8 01 00 00 00	 mov	 eax, 1

; 460  : 	}
; 461  : 	return ANOTHER;
; 462  : }

  00024	5d		 pop	 ebp
  00025	c2 04 00	 ret	 4
$LN7@GetDataTyp:

; 443  : 		case CPacketSuperGrid::STARTPRICE_ITEM:
; 444  : 		case CPacketSuperGrid::TOPPRICE_ITEM:
; 445  : 		case CPacketSuperGrid::BOTTOMPRICE_ITEM:
; 446  : 		case CPacketSuperGrid::ENDPRICE_ITEM:
; 447  : 			return CPacketSuperGrid::PRICE;

  00028	b8 02 00 00 00	 mov	 eax, 2

; 460  : 	}
; 461  : 	return ANOTHER;
; 462  : }

  0002d	5d		 pop	 ebp
  0002e	c2 04 00	 ret	 4
$LN11@GetDataTyp:

; 448  : 		case CPacketSuperGrid::VOLUME_ITEM:
; 449  : 		case CPacketSuperGrid::ACCUMULATEVOLUME_ITEM:
; 450  : 		case CPacketSuperGrid::UP_ITEMVOLUME_ITEM:
; 451  : 		case CPacketSuperGrid::DOWN_ITEMVOLUME_ITEM:
; 452  : 		case CPacketSuperGrid::LEAD_ITEMVOLUME_ITEM:
; 453  : 			return CPacketSuperGrid::VOLUME;

  00031	b8 03 00 00 00	 mov	 eax, 3

; 460  : 	}
; 461  : 	return ANOTHER;
; 462  : }

  00036	5d		 pop	 ebp
  00037	c2 04 00	 ret	 4
$LN16@GetDataTyp:

; 454  : 		case CPacketSuperGrid::STOCKMULTIPLE_ITEM:
; 455  : 			return CPacketSuperGrid::STOCKMULTIPLE;

  0003a	b8 04 00 00 00	 mov	 eax, 4

; 460  : 	}
; 461  : 	return ANOTHER;
; 462  : }

  0003f	5d		 pop	 ebp
  00040	c2 04 00	 ret	 4
$LN17@GetDataTyp:

; 456  : 		case CPacketSuperGrid::EXCHANGERATE_ITEM:
; 457  : 			return CPacketSuperGrid::EXCHANGERATE;

  00043	b8 05 00 00 00	 mov	 eax, 5

; 460  : 	}
; 461  : 	return ANOTHER;
; 462  : }

  00048	5d		 pop	 ebp
  00049	c2 04 00	 ret	 4
$LN18@GetDataTyp:

; 458  : 		default :
; 459  : 			return CPacketSuperGrid::ANOTHER;

  0004c	b8 06 00 00 00	 mov	 eax, 6

; 460  : 	}
; 461  : 	return ANOTHER;
; 462  : }

  00051	5d		 pop	 ebp
  00052	c2 04 00	 ret	 4
  00055	0f 1f 00	 npad	 3
$LN21@GetDataTyp:
  00058	00 00 00 00	 DD	 $LN4@GetDataTyp
  0005c	00 00 00 00	 DD	 $LN6@GetDataTyp
  00060	00 00 00 00	 DD	 $LN7@GetDataTyp
  00064	00 00 00 00	 DD	 $LN11@GetDataTyp
  00068	00 00 00 00	 DD	 $LN16@GetDataTyp
  0006c	00 00 00 00	 DD	 $LN17@GetDataTyp
  00070	00 00 00 00	 DD	 $LN18@GetDataTyp
$LN20@GetDataTyp:
  00074	00		 DB	 0
  00075	00		 DB	 0
  00076	01		 DB	 1
  00077	02		 DB	 2
  00078	02		 DB	 2
  00079	02		 DB	 2
  0007a	02		 DB	 2
  0007b	03		 DB	 3
  0007c	03		 DB	 3
  0007d	06		 DB	 6
  0007e	04		 DB	 4
  0007f	05		 DB	 5
  00080	06		 DB	 6
  00081	06		 DB	 6
  00082	06		 DB	 6
  00083	06		 DB	 6
  00084	06		 DB	 6
  00085	03		 DB	 3
  00086	03		 DB	 3
  00087	03		 DB	 3
?GetDataType@CPacketSuperGrid@@AAE?AW4DATATYPE@1@H@Z ENDP ; CPacketSuperGrid::GetDataType
_TEXT	ENDS
; Function compile flags: /Ogtp
; File D:\git\src\IBK\IBK_DRFN\ProjSrc\SrcChartEx\ChartAddIn\ChartDesignPropertyAddIn\ChartDesignPropertyAddIn\PacketSuperGrid.cpp
; File D:\git\src\IBK\IBK_DRFN\ProjSrc\SrcChartEx\ChartAddIn\ChartDesignPropertyAddIn\ChartDesignPropertyAddIn\SuperGridCtrl.h
; File C:\Program Files (x86)\Microsoft Visual Studio\2019\Community\VC\Tools\MSVC\14.29.30133\atlmfc\include\afxcoll.inl
; File D:\git\src\IBK\IBK_DRFN\ProjSrc\SrcChartEx\ChartAddIn\ChartDesignPropertyAddIn\ChartDesignPropertyAddIn\SuperGridCtrl.h
; File C:\Program Files (x86)\Microsoft Visual Studio\2019\Community\VC\Tools\MSVC\14.29.30133\atlmfc\include\afxcoll.inl
; File D:\git\src\IBK\IBK_DRFN\ProjSrc\SrcChartEx\ChartAddIn\ChartDesignPropertyAddIn\ChartDesignPropertyAddIn\SuperGridCtrl.h
; File D:\git\src\IBK\IBK_DRFN\ProjSrc\SrcChartEx\ChartAddIn\ChartDesignPropertyAddIn\ChartDesignPropertyAddIn\PacketSuperGrid.cpp
; File D:\git\src\IBK\IBK_DRFN\ProjSrc\SrcChartEx\ChartAddIn\ChartDesignPropertyAddIn\ChartDesignPropertyAddIn\SuperGridCtrl.h
; File D:\git\src\IBK\IBK_DRFN\ProjSrc\SrcChartEx\ChartAddIn\ChartDesignPropertyAddIn\ChartDesignPropertyAddIn\PacketSuperGrid.cpp
; File C:\Program Files (x86)\Microsoft Visual Studio\2019\Community\VC\Tools\MSVC\14.29.30133\atlmfc\include\afx.inl
; File D:\git\src\IBK\IBK_DRFN\ProjSrc\SrcChartEx\ChartAddIn\ChartDesignPropertyAddIn\ChartDesignPropertyAddIn\SuperGridCtrl.h
; File D:\git\src\IBK\IBK_DRFN\ProjSrc\SrcChartEx\ChartAddIn\ChartDesignPropertyAddIn\ChartDesignPropertyAddIn\PacketSuperGrid.cpp
;	COMDAT ?SetFourSubItem@CPacketSuperGrid@@AAEXABV?$CStringT@DV?$StrTraitMFC_DLL@DV?$ChTraitsCRT@D@ATL@@@@@ATL@@PAVCItemInfo@@@Z
_TEXT	SEGMENT
_list$ = -40						; size = 28
__$EHRec$ = -12						; size = 12
_szReal$ = 8						; size = 4
$T2 = 12						; size = 4
_enumCtrlType$ = 12					; size = 4
_lpItemInfo$ = 12					; size = 4
?SetFourSubItem@CPacketSuperGrid@@AAEXABV?$CStringT@DV?$StrTraitMFC_DLL@DV?$ChTraitsCRT@D@ATL@@@@@ATL@@PAVCItemInfo@@@Z PROC ; CPacketSuperGrid::SetFourSubItem, COMDAT
; _this$ = ecx

; 583  : {

  00000	55		 push	 ebp
  00001	8b ec		 mov	 ebp, esp
  00003	6a ff		 push	 -1
  00005	68 00 00 00 00	 push	 __ehhandler$?SetFourSubItem@CPacketSuperGrid@@AAEXABV?$CStringT@DV?$StrTraitMFC_DLL@DV?$ChTraitsCRT@D@ATL@@@@@ATL@@PAVCItemInfo@@@Z
  0000a	64 a1 00 00 00
	00		 mov	 eax, DWORD PTR fs:0
  00010	50		 push	 eax
  00011	83 ec 1c	 sub	 esp, 28			; 0000001cH
  00014	56		 push	 esi
  00015	57		 push	 edi
  00016	a1 00 00 00 00	 mov	 eax, DWORD PTR ___security_cookie
  0001b	33 c5		 xor	 eax, ebp
  0001d	50		 push	 eax
  0001e	8d 45 f4	 lea	 eax, DWORD PTR __$EHRec$[ebp]
  00021	64 a3 00 00 00
	00		 mov	 DWORD PTR fs:0, eax
  00027	8b f1		 mov	 esi, ecx
; File D:\git\src\IBK\IBK_DRFN\ProjSrc\SrcChartEx\ChartAddIn\ChartDesignPropertyAddIn\ChartDesignPropertyAddIn\SuperGridCtrl.h

; 17   : 	void AddSubItemText(const CString& strSubItem){ m_SubItems.Add(strSubItem); }

  00029	8b 7d 0c	 mov	 edi, DWORD PTR _lpItemInfo$[ebp]
; File C:\Program Files (x86)\Microsoft Visual Studio\2019\Community\VC\Tools\MSVC\14.29.30133\atlmfc\include\afxcoll.inl

; 321  : 		SetAtGrow(nIndex, newElement);

  0002c	ff 75 08	 push	 DWORD PTR _szReal$[ebp]
; File D:\git\src\IBK\IBK_DRFN\ProjSrc\SrcChartEx\ChartAddIn\ChartDesignPropertyAddIn\ChartDesignPropertyAddIn\SuperGridCtrl.h

; 17   : 	void AddSubItemText(const CString& strSubItem){ m_SubItems.Add(strSubItem); }

  0002f	8d 4f 64	 lea	 ecx, DWORD PTR [edi+100]
; File C:\Program Files (x86)\Microsoft Visual Studio\2019\Community\VC\Tools\MSVC\14.29.30133\atlmfc\include\afxcoll.inl

; 321  : 		SetAtGrow(nIndex, newElement);

  00032	ff 71 08	 push	 DWORD PTR [ecx+8]
  00035	e8 00 00 00 00	 call	 ?SetAtGrow@CStringArray@@QAEXHABV?$CStringT@DV?$StrTraitMFC_DLL@DV?$ChTraitsCRT@D@ATL@@@@@ATL@@@Z ; CStringArray::SetAtGrow
; File D:\git\src\IBK\IBK_DRFN\ProjSrc\SrcChartEx\ChartAddIn\ChartDesignPropertyAddIn\ChartDesignPropertyAddIn\SuperGridCtrl.h

; 36   : 	void SetControlType(CONTROLTYPE enumCtrlType, int nCol=-1){ m_controlType.SetAt(nCol, enumCtrlType); }

  0003a	8d 45 0c	 lea	 eax, DWORD PTR _enumCtrlType$[ebp]
; File D:\git\src\IBK\IBK_DRFN\ProjSrc\SrcChartEx\ChartAddIn\ChartDesignPropertyAddIn\ChartDesignPropertyAddIn\PacketSuperGrid.cpp

; 585  : 	lpItemInfo->SetControlType(lpItemInfo->CONTROLTYPE::combobox, 3);

  0003d	c7 45 0c 01 00
	00 00		 mov	 DWORD PTR _enumCtrlType$[ebp], 1
; File D:\git\src\IBK\IBK_DRFN\ProjSrc\SrcChartEx\ChartAddIn\ChartDesignPropertyAddIn\ChartDesignPropertyAddIn\SuperGridCtrl.h

; 36   : 	void SetControlType(CONTROLTYPE enumCtrlType, int nCol=-1){ m_controlType.SetAt(nCol, enumCtrlType); }

  00044	50		 push	 eax
  00045	6a 03		 push	 3
  00047	8d 4f 0c	 lea	 ecx, DWORD PTR [edi+12]
  0004a	e8 00 00 00 00	 call	 ?SetAt@?$CMap@HHW4CONTROLTYPE@CItemInfo@@AAW412@@@QAEXHAAW4CONTROLTYPE@CItemInfo@@@Z ; CMap<int,int,enum CItemInfo::CONTROLTYPE,enum CItemInfo::CONTROLTYPE &>::SetAt
; File D:\git\src\IBK\IBK_DRFN\ProjSrc\SrcChartEx\ChartAddIn\ChartDesignPropertyAddIn\ChartDesignPropertyAddIn\PacketSuperGrid.cpp

; 587  : 	CStringList list;

  0004f	6a 0a		 push	 10			; 0000000aH
  00051	8d 4d d8	 lea	 ecx, DWORD PTR _list$[ebp]
  00054	e8 00 00 00 00	 call	 ??0CStringList@@QAE@H@Z	; CStringList::CStringList

; 588  : 	list.AddTail( _LTEXT6( C6_NO));

  00059	a1 54 00 00 00	 mov	 eax, DWORD PTR ?g_iMetaTable@@3VIMetaTable@@A+84
  0005e	b9 00 00 00 00	 mov	 ecx, OFFSET ?g_iMetaTable@@3VIMetaTable@@A ; g_iMetaTable
  00063	6a 00		 push	 0
  00065	c7 45 fc 00 00
	00 00		 mov	 DWORD PTR __$EHRec$[ebp+8], 0
  0006c	ff b0 68 09 00
	00		 push	 DWORD PTR [eax+2408]
  00072	6a 06		 push	 6
  00074	ff b6 f4 00 00
	00		 push	 DWORD PTR [esi+244]
  0007a	e8 00 00 00 00	 call	 ?GetLanguageText@IMetaTable@@QAEPBDPAUHWND__@@W4E_CODEPAGE@1@PBDH@Z ; IMetaTable::GetLanguageText
  0007f	50		 push	 eax
  00080	8d 4d d8	 lea	 ecx, DWORD PTR _list$[ebp]
  00083	e8 00 00 00 00	 call	 ?AddTail@CStringList@@QAEPAU__POSITION@@PBD@Z ; CStringList::AddTail

; 589  : 	list.AddTail( _LTEXT6( C6_YES));

  00088	a1 54 00 00 00	 mov	 eax, DWORD PTR ?g_iMetaTable@@3VIMetaTable@@A+84
  0008d	b9 00 00 00 00	 mov	 ecx, OFFSET ?g_iMetaTable@@3VIMetaTable@@A ; g_iMetaTable
  00092	6a 00		 push	 0
  00094	ff b0 64 09 00
	00		 push	 DWORD PTR [eax+2404]
  0009a	6a 06		 push	 6
  0009c	ff b6 f4 00 00
	00		 push	 DWORD PTR [esi+244]
  000a2	e8 00 00 00 00	 call	 ?GetLanguageText@IMetaTable@@QAEPBDPAUHWND__@@W4E_CODEPAGE@1@PBDH@Z ; IMetaTable::GetLanguageText
  000a7	50		 push	 eax
  000a8	8d 4d d8	 lea	 ecx, DWORD PTR _list$[ebp]
  000ab	e8 00 00 00 00	 call	 ?AddTail@CStringList@@QAEPAU__POSITION@@PBD@Z ; CStringList::AddTail

; 590  : 	list.AddTail("");

  000b0	68 00 00 00 00	 push	 OFFSET ??_C@_00CNPNBAHC@@
  000b5	8d 4d d8	 lea	 ecx, DWORD PTR _list$[ebp]
  000b8	e8 00 00 00 00	 call	 ?AddTail@CStringList@@QAEPAU__POSITION@@PBD@Z ; CStringList::AddTail

; 591  : 	list.AddTail("");

  000bd	68 00 00 00 00	 push	 OFFSET ??_C@_00CNPNBAHC@@
  000c2	8d 4d d8	 lea	 ecx, DWORD PTR _list$[ebp]
  000c5	e8 00 00 00 00	 call	 ?AddTail@CStringList@@QAEPAU__POSITION@@PBD@Z ; CStringList::AddTail
; File C:\Program Files (x86)\Microsoft Visual Studio\2019\Community\VC\Tools\MSVC\14.29.30133\atlmfc\include\afx.inl

; 116  : 	{ return ::operator new(nSize); }

  000ca	6a 1c		 push	 28			; 0000001cH
  000cc	e8 00 00 00 00	 call	 ??2@YAPAXI@Z		; operator new
  000d1	83 c4 04	 add	 esp, 4
; File D:\git\src\IBK\IBK_DRFN\ProjSrc\SrcChartEx\ChartAddIn\ChartDesignPropertyAddIn\ChartDesignPropertyAddIn\SuperGridCtrl.h

; 51   : 		list = new CStringList;//will be deleted in destructor

  000d4	89 45 0c	 mov	 DWORD PTR $T2[ebp], eax
  000d7	c6 45 fc 01	 mov	 BYTE PTR __$EHRec$[ebp+8], 1
  000db	85 c0		 test	 eax, eax
  000dd	74 0d		 je	 SHORT $LN12@SetFourSub
  000df	6a 0a		 push	 10			; 0000000aH
  000e1	8b c8		 mov	 ecx, eax
  000e3	e8 00 00 00 00	 call	 ??0CStringList@@QAE@H@Z	; CStringList::CStringList
  000e8	8b f0		 mov	 esi, eax
  000ea	eb 02		 jmp	 SHORT $LN13@SetFourSub
$LN12@SetFourSub:
  000ec	33 f6		 xor	 esi, esi
$LN13@SetFourSub:

; 52   : 		list->AddTail(strInitArr);

  000ee	8d 45 d8	 lea	 eax, DWORD PTR _list$[ebp]
  000f1	c6 45 fc 00	 mov	 BYTE PTR __$EHRec$[ebp+8], 0
  000f5	50		 push	 eax
  000f6	8b ce		 mov	 ecx, esi
  000f8	e8 00 00 00 00	 call	 ?AddTail@CStringList@@QAEXPAV1@@Z ; CStringList::AddTail

; 53   : 		m_listdata.SetAt(iSubItem, list);

  000fd	56		 push	 esi
  000fe	6a 03		 push	 3
  00100	8d 4f 44	 lea	 ecx, DWORD PTR [edi+68]
  00103	e8 00 00 00 00	 call	 ?SetAt@?$CMap@HHPAVCStringList@@PAV1@@@QAEXHPAVCStringList@@@Z ; CMap<int,int,CStringList *,CStringList *>::SetAt
; File D:\git\src\IBK\IBK_DRFN\ProjSrc\SrcChartEx\ChartAddIn\ChartDesignPropertyAddIn\ChartDesignPropertyAddIn\PacketSuperGrid.cpp

; 593  : }

  00108	8d 4d d8	 lea	 ecx, DWORD PTR _list$[ebp]
  0010b	e8 00 00 00 00	 call	 ??1CStringList@@UAE@XZ	; CStringList::~CStringList
  00110	8b 4d f4	 mov	 ecx, DWORD PTR __$EHRec$[ebp]
  00113	64 89 0d 00 00
	00 00		 mov	 DWORD PTR fs:0, ecx
  0011a	59		 pop	 ecx
  0011b	5f		 pop	 edi
  0011c	5e		 pop	 esi
  0011d	8b e5		 mov	 esp, ebp
  0011f	5d		 pop	 ebp
  00120	c2 08 00	 ret	 8
_TEXT	ENDS
;	COMDAT text$x
text$x	SEGMENT
__unwindfunclet$?SetFourSubItem@CPacketSuperGrid@@AAEXABV?$CStringT@DV?$StrTraitMFC_DLL@DV?$ChTraitsCRT@D@ATL@@@@@ATL@@PAVCItemInfo@@@Z$0:
  00000	8d 4d d8	 lea	 ecx, DWORD PTR _list$[ebp]
  00003	e9 00 00 00 00	 jmp	 ??1CStringList@@UAE@XZ	; CStringList::~CStringList
__unwindfunclet$?SetFourSubItem@CPacketSuperGrid@@AAEXABV?$CStringT@DV?$StrTraitMFC_DLL@DV?$ChTraitsCRT@D@ATL@@@@@ATL@@PAVCItemInfo@@@Z$1:
  00008	8b 45 0c	 mov	 eax, DWORD PTR $T2[ebp]
  0000b	50		 push	 eax
  0000c	e8 00 00 00 00	 call	 ??3CObject@@SGXPAX@Z	; CObject::operator delete
  00011	c3		 ret	 0
  00012	cc		 int	 3
  00013	cc		 int	 3
  00014	cc		 int	 3
  00015	cc		 int	 3
  00016	cc		 int	 3
__ehhandler$?SetFourSubItem@CPacketSuperGrid@@AAEXABV?$CStringT@DV?$StrTraitMFC_DLL@DV?$ChTraitsCRT@D@ATL@@@@@ATL@@PAVCItemInfo@@@Z:
  00017	90		 npad	 1
  00018	90		 npad	 1
  00019	8b 54 24 08	 mov	 edx, DWORD PTR [esp+8]
  0001d	8d 42 0c	 lea	 eax, DWORD PTR [edx+12]
  00020	8b 4a d8	 mov	 ecx, DWORD PTR [edx-40]
  00023	33 c8		 xor	 ecx, eax
  00025	e8 00 00 00 00	 call	 @__security_check_cookie@4
  0002a	b8 00 00 00 00	 mov	 eax, OFFSET __ehfuncinfo$?SetFourSubItem@CPacketSuperGrid@@AAEXABV?$CStringT@DV?$StrTraitMFC_DLL@DV?$ChTraitsCRT@D@ATL@@@@@ATL@@PAVCItemInfo@@@Z
  0002f	e9 00 00 00 00	 jmp	 ___CxxFrameHandler3
text$x	ENDS
?SetFourSubItem@CPacketSuperGrid@@AAEXABV?$CStringT@DV?$StrTraitMFC_DLL@DV?$ChTraitsCRT@D@ATL@@@@@ATL@@PAVCItemInfo@@@Z ENDP ; CPacketSuperGrid::SetFourSubItem
; Function compile flags: /Ogtp
; File D:\git\src\IBK\IBK_DRFN\ProjSrc\SrcChartEx\ChartAddIn\ChartDesignPropertyAddIn\ChartDesignPropertyAddIn\PacketSuperGrid.cpp
; File C:\Program Files (x86)\Microsoft Visual Studio\2019\Community\VC\Tools\MSVC\14.29.30133\atlmfc\include\atlsimpstr.h
; File D:\git\src\IBK\IBK_DRFN\ProjSrc\SrcChartEx\ChartAddIn\ChartDesignPropertyAddIn\ChartDesignPropertyAddIn\PacketSuperGrid.cpp
; File C:\Program Files (x86)\Microsoft Visual Studio\2019\Community\VC\Tools\MSVC\14.29.30133\atlmfc\include\afxcoll.inl
; File D:\git\src\IBK\IBK_DRFN\ProjSrc\SrcChartEx\ChartAddIn\ChartDesignPropertyAddIn\ChartDesignPropertyAddIn\PacketSuperGrid.cpp
; File C:\Program Files (x86)\Microsoft Visual Studio\2019\Community\VC\Tools\MSVC\14.29.30133\atlmfc\include\afxcoll.inl
; File D:\git\src\IBK\IBK_DRFN\ProjSrc\SrcChartEx\ChartAddIn\ChartDesignPropertyAddIn\ChartDesignPropertyAddIn\PacketSuperGrid.cpp
; File C:\Program Files (x86)\Microsoft Visual Studio\2019\Community\VC\Tools\MSVC\14.29.30133\atlmfc\include\afxcoll.inl
; File D:\git\src\IBK\IBK_DRFN\ProjSrc\SrcChartEx\ChartAddIn\ChartDesignPropertyAddIn\ChartDesignPropertyAddIn\SuperGridCtrl.h
; File D:\git\src\IBK\IBK_DRFN\ProjSrc\SrcChartEx\ChartAddIn\ChartDesignPropertyAddIn\ChartDesignPropertyAddIn\PacketSuperGrid.cpp
; File D:\git\src\IBK\IBK_DRFN\ProjSrc\SrcChartEx\ChartAddIn\ChartDesignPropertyAddIn\ChartDesignPropertyAddIn\SuperGridCtrl.h
; File D:\git\src\IBK\IBK_DRFN\ProjSrc\SrcChartEx\ChartAddIn\ChartDesignPropertyAddIn\ChartDesignPropertyAddIn\PacketSuperGrid.cpp
; File C:\Program Files (x86)\Microsoft Visual Studio\2019\Community\VC\Tools\MSVC\14.29.30133\atlmfc\include\afx.inl
; File D:\git\src\IBK\IBK_DRFN\ProjSrc\SrcChartEx\ChartAddIn\ChartDesignPropertyAddIn\ChartDesignPropertyAddIn\SuperGridCtrl.h
; File D:\git\src\IBK\IBK_DRFN\ProjSrc\SrcChartEx\ChartAddIn\ChartDesignPropertyAddIn\ChartDesignPropertyAddIn\PacketSuperGrid.cpp
;	COMDAT ?SetThirdDATEItem@CPacketSuperGrid@@AAEXABV?$CStringT@DV?$StrTraitMFC_DLL@DV?$ChTraitsCRT@D@ATL@@@@@ATL@@PAVCItemInfo@@@Z
_TEXT	SEGMENT
_list$ = -40						; size = 28
__$EHRec$ = -12						; size = 12
$T2 = 8							; size = 4
_enumCtrlType$ = 8					; size = 4
$T3 = 8							; size = 4
_szDefaultItemofCombo$ = 8				; size = 4
_lpItemInfo$ = 12					; size = 4
?SetThirdDATEItem@CPacketSuperGrid@@AAEXABV?$CStringT@DV?$StrTraitMFC_DLL@DV?$ChTraitsCRT@D@ATL@@@@@ATL@@PAVCItemInfo@@@Z PROC ; CPacketSuperGrid::SetThirdDATEItem, COMDAT
; _this$ = ecx

; 465  : {

  00000	55		 push	 ebp
  00001	8b ec		 mov	 ebp, esp
  00003	6a ff		 push	 -1
  00005	68 00 00 00 00	 push	 __ehhandler$?SetThirdDATEItem@CPacketSuperGrid@@AAEXABV?$CStringT@DV?$StrTraitMFC_DLL@DV?$ChTraitsCRT@D@ATL@@@@@ATL@@PAVCItemInfo@@@Z
  0000a	64 a1 00 00 00
	00		 mov	 eax, DWORD PTR fs:0
  00010	50		 push	 eax
  00011	83 ec 1c	 sub	 esp, 28			; 0000001cH
  00014	56		 push	 esi
  00015	57		 push	 edi
  00016	a1 00 00 00 00	 mov	 eax, DWORD PTR ___security_cookie
  0001b	33 c5		 xor	 eax, ebp
  0001d	50		 push	 eax
  0001e	8d 45 f4	 lea	 eax, DWORD PTR __$EHRec$[ebp]
  00021	64 a3 00 00 00
	00		 mov	 DWORD PTR fs:0, eax
; File C:\Program Files (x86)\Microsoft Visual Studio\2019\Community\VC\Tools\MSVC\14.29.30133\atlmfc\include\atlsimpstr.h

; 519  : 		return( GetData()->nDataLength );

  00027	8b 4d 08	 mov	 ecx, DWORD PTR _szDefaultItemofCombo$[ebp]
  0002a	8b 7d 0c	 mov	 edi, DWORD PTR _lpItemInfo$[ebp]
  0002d	8b 01		 mov	 eax, DWORD PTR [ecx]
; File D:\git\src\IBK\IBK_DRFN\ProjSrc\SrcChartEx\ChartAddIn\ChartDesignPropertyAddIn\ChartDesignPropertyAddIn\PacketSuperGrid.cpp

; 466  : 	if(szDefaultItemofCombo.GetLength() == 0)

  0002f	83 78 f4 00	 cmp	 DWORD PTR [eax-12], 0
  00033	75 36		 jne	 SHORT $LN2@SetThirdDA

; 467  : 		lpItemInfo->AddSubItemText(_T("YYYYMMDD"));      // 2 zero based subitems..

  00035	68 00 00 00 00	 push	 OFFSET ??_C@_08DKDJLCMP@YYYYMMDD@
  0003a	8d 4d 08	 lea	 ecx, DWORD PTR $T3[ebp]
  0003d	ff 15 00 00 00
	00		 call	 DWORD PTR __imp_??0?$CStringT@DV?$StrTraitMFC_DLL@DV?$ChTraitsCRT@D@ATL@@@@@ATL@@QAE@PBD@Z
; File C:\Program Files (x86)\Microsoft Visual Studio\2019\Community\VC\Tools\MSVC\14.29.30133\atlmfc\include\afxcoll.inl

; 321  : 		SetAtGrow(nIndex, newElement);

  00043	8d 45 08	 lea	 eax, DWORD PTR $T3[ebp]
; File D:\git\src\IBK\IBK_DRFN\ProjSrc\SrcChartEx\ChartAddIn\ChartDesignPropertyAddIn\ChartDesignPropertyAddIn\PacketSuperGrid.cpp

; 467  : 		lpItemInfo->AddSubItemText(_T("YYYYMMDD"));      // 2 zero based subitems..

  00046	c7 45 fc 00 00
	00 00		 mov	 DWORD PTR __$EHRec$[ebp+8], 0
; File C:\Program Files (x86)\Microsoft Visual Studio\2019\Community\VC\Tools\MSVC\14.29.30133\atlmfc\include\afxcoll.inl

; 321  : 		SetAtGrow(nIndex, newElement);

  0004d	50		 push	 eax
  0004e	ff 77 6c	 push	 DWORD PTR [edi+108]
  00051	8d 4f 64	 lea	 ecx, DWORD PTR [edi+100]
  00054	e8 00 00 00 00	 call	 ?SetAtGrow@CStringArray@@QAEXHABV?$CStringT@DV?$StrTraitMFC_DLL@DV?$ChTraitsCRT@D@ATL@@@@@ATL@@@Z ; CStringArray::SetAtGrow
; File D:\git\src\IBK\IBK_DRFN\ProjSrc\SrcChartEx\ChartAddIn\ChartDesignPropertyAddIn\ChartDesignPropertyAddIn\PacketSuperGrid.cpp

; 467  : 		lpItemInfo->AddSubItemText(_T("YYYYMMDD"));      // 2 zero based subitems..

  00059	8d 4d 08	 lea	 ecx, DWORD PTR $T3[ebp]
  0005c	c7 45 fc ff ff
	ff ff		 mov	 DWORD PTR __$EHRec$[ebp+8], -1
  00063	ff 15 00 00 00
	00		 call	 DWORD PTR __imp_??1?$CStringT@DV?$StrTraitMFC_DLL@DV?$ChTraitsCRT@D@ATL@@@@@ATL@@QAE@XZ
  00069	eb 0c		 jmp	 SHORT $LN3@SetThirdDA
$LN2@SetThirdDA:
; File C:\Program Files (x86)\Microsoft Visual Studio\2019\Community\VC\Tools\MSVC\14.29.30133\atlmfc\include\afxcoll.inl

; 321  : 		SetAtGrow(nIndex, newElement);

  0006b	51		 push	 ecx
  0006c	ff 77 6c	 push	 DWORD PTR [edi+108]
  0006f	8d 4f 64	 lea	 ecx, DWORD PTR [edi+100]
  00072	e8 00 00 00 00	 call	 ?SetAtGrow@CStringArray@@QAEXHABV?$CStringT@DV?$StrTraitMFC_DLL@DV?$ChTraitsCRT@D@ATL@@@@@ATL@@@Z ; CStringArray::SetAtGrow
$LN3@SetThirdDA:
; File D:\git\src\IBK\IBK_DRFN\ProjSrc\SrcChartEx\ChartAddIn\ChartDesignPropertyAddIn\ChartDesignPropertyAddIn\SuperGridCtrl.h

; 36   : 	void SetControlType(CONTROLTYPE enumCtrlType, int nCol=-1){ m_controlType.SetAt(nCol, enumCtrlType); }

  00077	8d 45 08	 lea	 eax, DWORD PTR _enumCtrlType$[ebp]
; File D:\git\src\IBK\IBK_DRFN\ProjSrc\SrcChartEx\ChartAddIn\ChartDesignPropertyAddIn\ChartDesignPropertyAddIn\PacketSuperGrid.cpp

; 470  : 	lpItemInfo->SetControlType(lpItemInfo->CONTROLTYPE::combobox, 2);

  0007a	c7 45 08 01 00
	00 00		 mov	 DWORD PTR _enumCtrlType$[ebp], 1
; File D:\git\src\IBK\IBK_DRFN\ProjSrc\SrcChartEx\ChartAddIn\ChartDesignPropertyAddIn\ChartDesignPropertyAddIn\SuperGridCtrl.h

; 36   : 	void SetControlType(CONTROLTYPE enumCtrlType, int nCol=-1){ m_controlType.SetAt(nCol, enumCtrlType); }

  00081	50		 push	 eax
  00082	6a 02		 push	 2
  00084	8d 4f 0c	 lea	 ecx, DWORD PTR [edi+12]
  00087	e8 00 00 00 00	 call	 ?SetAt@?$CMap@HHW4CONTROLTYPE@CItemInfo@@AAW412@@@QAEXHAAW4CONTROLTYPE@CItemInfo@@@Z ; CMap<int,int,enum CItemInfo::CONTROLTYPE,enum CItemInfo::CONTROLTYPE &>::SetAt
; File D:\git\src\IBK\IBK_DRFN\ProjSrc\SrcChartEx\ChartAddIn\ChartDesignPropertyAddIn\ChartDesignPropertyAddIn\PacketSuperGrid.cpp

; 472  : 	CStringList list;

  0008c	6a 0a		 push	 10			; 0000000aH
  0008e	8d 4d d8	 lea	 ecx, DWORD PTR _list$[ebp]
  00091	e8 00 00 00 00	 call	 ??0CStringList@@QAE@H@Z	; CStringList::CStringList

; 473  : 	list.AddTail("YYYYMMDD");

  00096	68 00 00 00 00	 push	 OFFSET ??_C@_08DKDJLCMP@YYYYMMDD@
  0009b	8d 4d d8	 lea	 ecx, DWORD PTR _list$[ebp]
  0009e	c7 45 fc 01 00
	00 00		 mov	 DWORD PTR __$EHRec$[ebp+8], 1
  000a5	e8 00 00 00 00	 call	 ?AddTail@CStringList@@QAEPAU__POSITION@@PBD@Z ; CStringList::AddTail

; 474  : 	list.AddTail("YYMMDD");

  000aa	68 00 00 00 00	 push	 OFFSET ??_C@_06NFMEGGNP@YYMMDD@
  000af	8d 4d d8	 lea	 ecx, DWORD PTR _list$[ebp]
  000b2	e8 00 00 00 00	 call	 ?AddTail@CStringList@@QAEPAU__POSITION@@PBD@Z ; CStringList::AddTail

; 475  : 	list.AddTail("YYYYMM");

  000b7	68 00 00 00 00	 push	 OFFSET ??_C@_06EBMMBHJD@YYYYMM@
  000bc	8d 4d d8	 lea	 ecx, DWORD PTR _list$[ebp]
  000bf	e8 00 00 00 00	 call	 ?AddTail@CStringList@@QAEPAU__POSITION@@PBD@Z ; CStringList::AddTail

; 476  : 	list.AddTail("YYMM");

  000c4	68 00 00 00 00	 push	 OFFSET ??_C@_04IHEOMKKL@YYMM@
  000c9	8d 4d d8	 lea	 ecx, DWORD PTR _list$[ebp]
  000cc	e8 00 00 00 00	 call	 ?AddTail@CStringList@@QAEPAU__POSITION@@PBD@Z ; CStringList::AddTail

; 477  : 	list.AddTail("MMDD");

  000d1	68 00 00 00 00	 push	 OFFSET ??_C@_04BDEGLLOH@MMDD@
  000d6	8d 4d d8	 lea	 ecx, DWORD PTR _list$[ebp]
  000d9	e8 00 00 00 00	 call	 ?AddTail@CStringList@@QAEPAU__POSITION@@PBD@Z ; CStringList::AddTail

; 478  : 	list.AddTail("MMDDHH");

  000de	68 00 00 00 00	 push	 OFFSET ??_C@_06LKFAFBM@MMDDHH@
  000e3	8d 4d d8	 lea	 ecx, DWORD PTR _list$[ebp]
  000e6	e8 00 00 00 00	 call	 ?AddTail@CStringList@@QAEPAU__POSITION@@PBD@Z ; CStringList::AddTail

; 479  : 	list.AddTail("MMDDHHMM");

  000eb	68 00 00 00 00	 push	 OFFSET ??_C@_08KLIIINKM@MMDDHHMM@
  000f0	8d 4d d8	 lea	 ecx, DWORD PTR _list$[ebp]
  000f3	e8 00 00 00 00	 call	 ?AddTail@CStringList@@QAEPAU__POSITION@@PBD@Z ; CStringList::AddTail

; 480  : 	list.AddTail("DDHH");

  000f8	68 00 00 00 00	 push	 OFFSET ??_C@_04MGPBCAHE@DDHH@
  000fd	8d 4d d8	 lea	 ecx, DWORD PTR _list$[ebp]
  00100	e8 00 00 00 00	 call	 ?AddTail@CStringList@@QAEPAU__POSITION@@PBD@Z ; CStringList::AddTail

; 481  : 	list.AddTail("DDHHMM");

  00105	68 00 00 00 00	 push	 OFFSET ??_C@_06ENKIHFBA@DDHHMM@
  0010a	8d 4d d8	 lea	 ecx, DWORD PTR _list$[ebp]
  0010d	e8 00 00 00 00	 call	 ?AddTail@CStringList@@QAEPAU__POSITION@@PBD@Z ; CStringList::AddTail

; 482  : 	list.AddTail("DDHHMMSS");

  00112	68 00 00 00 00	 push	 OFFSET ??_C@_08JFMBEEDE@DDHHMMSS@
  00117	8d 4d d8	 lea	 ecx, DWORD PTR _list$[ebp]
  0011a	e8 00 00 00 00	 call	 ?AddTail@CStringList@@QAEPAU__POSITION@@PBD@Z ; CStringList::AddTail

; 483  : 	list.AddTail("HHMMSS");

  0011f	68 00 00 00 00	 push	 OFFSET ??_C@_06MAANBBPI@HHMMSS@
  00124	8d 4d d8	 lea	 ecx, DWORD PTR _list$[ebp]
  00127	e8 00 00 00 00	 call	 ?AddTail@CStringList@@QAEPAU__POSITION@@PBD@Z ; CStringList::AddTail

; 484  : //	list.AddTail("HHMMSSNN");
; 485  : 	list.AddTail("");

  0012c	68 00 00 00 00	 push	 OFFSET ??_C@_00CNPNBAHC@@
  00131	8d 4d d8	 lea	 ecx, DWORD PTR _list$[ebp]
  00134	e8 00 00 00 00	 call	 ?AddTail@CStringList@@QAEPAU__POSITION@@PBD@Z ; CStringList::AddTail

; 486  : 	list.AddTail("");

  00139	68 00 00 00 00	 push	 OFFSET ??_C@_00CNPNBAHC@@
  0013e	8d 4d d8	 lea	 ecx, DWORD PTR _list$[ebp]
  00141	e8 00 00 00 00	 call	 ?AddTail@CStringList@@QAEPAU__POSITION@@PBD@Z ; CStringList::AddTail
; File C:\Program Files (x86)\Microsoft Visual Studio\2019\Community\VC\Tools\MSVC\14.29.30133\atlmfc\include\afx.inl

; 116  : 	{ return ::operator new(nSize); }

  00146	6a 1c		 push	 28			; 0000001cH
  00148	e8 00 00 00 00	 call	 ??2@YAPAXI@Z		; operator new
  0014d	83 c4 04	 add	 esp, 4
; File D:\git\src\IBK\IBK_DRFN\ProjSrc\SrcChartEx\ChartAddIn\ChartDesignPropertyAddIn\ChartDesignPropertyAddIn\SuperGridCtrl.h

; 51   : 		list = new CStringList;//will be deleted in destructor

  00150	89 45 08	 mov	 DWORD PTR $T2[ebp], eax
  00153	c6 45 fc 02	 mov	 BYTE PTR __$EHRec$[ebp+8], 2
  00157	85 c0		 test	 eax, eax
  00159	74 0d		 je	 SHORT $LN23@SetThirdDA
  0015b	6a 0a		 push	 10			; 0000000aH
  0015d	8b c8		 mov	 ecx, eax
  0015f	e8 00 00 00 00	 call	 ??0CStringList@@QAE@H@Z	; CStringList::CStringList
  00164	8b f0		 mov	 esi, eax
  00166	eb 02		 jmp	 SHORT $LN24@SetThirdDA
$LN23@SetThirdDA:
  00168	33 f6		 xor	 esi, esi
$LN24@SetThirdDA:

; 52   : 		list->AddTail(strInitArr);

  0016a	8d 45 d8	 lea	 eax, DWORD PTR _list$[ebp]
  0016d	c6 45 fc 01	 mov	 BYTE PTR __$EHRec$[ebp+8], 1
  00171	50		 push	 eax
  00172	8b ce		 mov	 ecx, esi
  00174	e8 00 00 00 00	 call	 ?AddTail@CStringList@@QAEXPAV1@@Z ; CStringList::AddTail

; 53   : 		m_listdata.SetAt(iSubItem, list);

  00179	56		 push	 esi
  0017a	6a 02		 push	 2
  0017c	8d 4f 44	 lea	 ecx, DWORD PTR [edi+68]
  0017f	e8 00 00 00 00	 call	 ?SetAt@?$CMap@HHPAVCStringList@@PAV1@@@QAEXHPAVCStringList@@@Z ; CMap<int,int,CStringList *,CStringList *>::SetAt
; File D:\git\src\IBK\IBK_DRFN\ProjSrc\SrcChartEx\ChartAddIn\ChartDesignPropertyAddIn\ChartDesignPropertyAddIn\PacketSuperGrid.cpp

; 488  : }

  00184	8d 4d d8	 lea	 ecx, DWORD PTR _list$[ebp]
  00187	e8 00 00 00 00	 call	 ??1CStringList@@UAE@XZ	; CStringList::~CStringList
  0018c	8b 4d f4	 mov	 ecx, DWORD PTR __$EHRec$[ebp]
  0018f	64 89 0d 00 00
	00 00		 mov	 DWORD PTR fs:0, ecx
  00196	59		 pop	 ecx
  00197	5f		 pop	 edi
  00198	5e		 pop	 esi
  00199	8b e5		 mov	 esp, ebp
  0019b	5d		 pop	 ebp
  0019c	c2 08 00	 ret	 8
_TEXT	ENDS
;	COMDAT text$x
text$x	SEGMENT
__unwindfunclet$?SetThirdDATEItem@CPacketSuperGrid@@AAEXABV?$CStringT@DV?$StrTraitMFC_DLL@DV?$ChTraitsCRT@D@ATL@@@@@ATL@@PAVCItemInfo@@@Z$0:
  00000	8d 4d 08	 lea	 ecx, DWORD PTR $T3[ebp]
  00003	ff 25 00 00 00
	00		 jmp	 DWORD PTR __imp_??1?$CStringT@DV?$StrTraitMFC_DLL@DV?$ChTraitsCRT@D@ATL@@@@@ATL@@QAE@XZ
__unwindfunclet$?SetThirdDATEItem@CPacketSuperGrid@@AAEXABV?$CStringT@DV?$StrTraitMFC_DLL@DV?$ChTraitsCRT@D@ATL@@@@@ATL@@PAVCItemInfo@@@Z$1:
  00009	8d 4d d8	 lea	 ecx, DWORD PTR _list$[ebp]
  0000c	e9 00 00 00 00	 jmp	 ??1CStringList@@UAE@XZ	; CStringList::~CStringList
__unwindfunclet$?SetThirdDATEItem@CPacketSuperGrid@@AAEXABV?$CStringT@DV?$StrTraitMFC_DLL@DV?$ChTraitsCRT@D@ATL@@@@@ATL@@PAVCItemInfo@@@Z$2:
  00011	8b 45 08	 mov	 eax, DWORD PTR $T2[ebp]
  00014	50		 push	 eax
  00015	e8 00 00 00 00	 call	 ??3CObject@@SGXPAX@Z	; CObject::operator delete
  0001a	c3		 ret	 0
  0001b	cc		 int	 3
  0001c	cc		 int	 3
  0001d	cc		 int	 3
  0001e	cc		 int	 3
  0001f	cc		 int	 3
__ehhandler$?SetThirdDATEItem@CPacketSuperGrid@@AAEXABV?$CStringT@DV?$StrTraitMFC_DLL@DV?$ChTraitsCRT@D@ATL@@@@@ATL@@PAVCItemInfo@@@Z:
  00020	90		 npad	 1
  00021	90		 npad	 1
  00022	8b 54 24 08	 mov	 edx, DWORD PTR [esp+8]
  00026	8d 42 0c	 lea	 eax, DWORD PTR [edx+12]
  00029	8b 4a d8	 mov	 ecx, DWORD PTR [edx-40]
  0002c	33 c8		 xor	 ecx, eax
  0002e	e8 00 00 00 00	 call	 @__security_check_cookie@4
  00033	b8 00 00 00 00	 mov	 eax, OFFSET __ehfuncinfo$?SetThirdDATEItem@CPacketSuperGrid@@AAEXABV?$CStringT@DV?$StrTraitMFC_DLL@DV?$ChTraitsCRT@D@ATL@@@@@ATL@@PAVCItemInfo@@@Z
  00038	e9 00 00 00 00	 jmp	 ___CxxFrameHandler3
text$x	ENDS
?SetThirdDATEItem@CPacketSuperGrid@@AAEXABV?$CStringT@DV?$StrTraitMFC_DLL@DV?$ChTraitsCRT@D@ATL@@@@@ATL@@PAVCItemInfo@@@Z ENDP ; CPacketSuperGrid::SetThirdDATEItem
; Function compile flags: /Ogtp
; File D:\git\src\IBK\IBK_DRFN\ProjSrc\SrcChartEx\ChartAddIn\ChartDesignPropertyAddIn\ChartDesignPropertyAddIn\PacketSuperGrid.cpp
; File C:\Program Files (x86)\Microsoft Visual Studio\2019\Community\VC\Tools\MSVC\14.29.30133\atlmfc\include\atlsimpstr.h
; File D:\git\src\IBK\IBK_DRFN\ProjSrc\SrcChartEx\ChartAddIn\ChartDesignPropertyAddIn\ChartDesignPropertyAddIn\PacketSuperGrid.cpp
; File C:\Program Files (x86)\Microsoft Visual Studio\2019\Community\VC\Tools\MSVC\14.29.30133\atlmfc\include\afxcoll.inl
; File D:\git\src\IBK\IBK_DRFN\ProjSrc\SrcChartEx\ChartAddIn\ChartDesignPropertyAddIn\ChartDesignPropertyAddIn\PacketSuperGrid.cpp
; File C:\Program Files (x86)\Microsoft Visual Studio\2019\Community\VC\Tools\MSVC\14.29.30133\atlmfc\include\afxcoll.inl
; File D:\git\src\IBK\IBK_DRFN\ProjSrc\SrcChartEx\ChartAddIn\ChartDesignPropertyAddIn\ChartDesignPropertyAddIn\PacketSuperGrid.cpp
; File C:\Program Files (x86)\Microsoft Visual Studio\2019\Community\VC\Tools\MSVC\14.29.30133\atlmfc\include\afxcoll.inl
; File D:\git\src\IBK\IBK_DRFN\ProjSrc\SrcChartEx\ChartAddIn\ChartDesignPropertyAddIn\ChartDesignPropertyAddIn\PacketSuperGrid.cpp
;	COMDAT ?SetThirdTEXTItem@CPacketSuperGrid@@AAEXABV?$CStringT@DV?$StrTraitMFC_DLL@DV?$ChTraitsCRT@D@ATL@@@@@ATL@@PAVCItemInfo@@@Z
_TEXT	SEGMENT
__$EHRec$ = -12						; size = 12
$T2 = 8							; size = 4
_szDefaultItemofCombo$ = 8				; size = 4
_lpItemInfo$ = 12					; size = 4
?SetThirdTEXTItem@CPacketSuperGrid@@AAEXABV?$CStringT@DV?$StrTraitMFC_DLL@DV?$ChTraitsCRT@D@ATL@@@@@ATL@@PAVCItemInfo@@@Z PROC ; CPacketSuperGrid::SetThirdTEXTItem, COMDAT
; _this$ = ecx

; 491  : {

  00000	55		 push	 ebp
  00001	8b ec		 mov	 ebp, esp
  00003	6a ff		 push	 -1
  00005	68 00 00 00 00	 push	 __ehhandler$?SetThirdTEXTItem@CPacketSuperGrid@@AAEXABV?$CStringT@DV?$StrTraitMFC_DLL@DV?$ChTraitsCRT@D@ATL@@@@@ATL@@PAVCItemInfo@@@Z
  0000a	64 a1 00 00 00
	00		 mov	 eax, DWORD PTR fs:0
  00010	50		 push	 eax
  00011	56		 push	 esi
  00012	57		 push	 edi
  00013	a1 00 00 00 00	 mov	 eax, DWORD PTR ___security_cookie
  00018	33 c5		 xor	 eax, ebp
  0001a	50		 push	 eax
  0001b	8d 45 f4	 lea	 eax, DWORD PTR __$EHRec$[ebp]
  0001e	64 a3 00 00 00
	00		 mov	 DWORD PTR fs:0, eax
; File C:\Program Files (x86)\Microsoft Visual Studio\2019\Community\VC\Tools\MSVC\14.29.30133\atlmfc\include\atlsimpstr.h

; 519  : 		return( GetData()->nDataLength );

  00024	8b 7d 08	 mov	 edi, DWORD PTR _szDefaultItemofCombo$[ebp]
  00027	8b 75 0c	 mov	 esi, DWORD PTR _lpItemInfo$[ebp]
  0002a	8b 07		 mov	 eax, DWORD PTR [edi]
; File D:\git\src\IBK\IBK_DRFN\ProjSrc\SrcChartEx\ChartAddIn\ChartDesignPropertyAddIn\ChartDesignPropertyAddIn\PacketSuperGrid.cpp

; 492  : 	if(szDefaultItemofCombo.GetLength() == 0)

  0002c	83 78 f4 00	 cmp	 DWORD PTR [eax-12], 0
  00030	75 5b		 jne	 SHORT $LN2@SetThirdTE

; 493  : 		lpItemInfo->AddSubItemText( _LTEXT6( C6_CHARACTER));      // 2 zero based subitems..

  00032	a1 54 00 00 00	 mov	 eax, DWORD PTR ?g_iMetaTable@@3VIMetaTable@@A+84
  00037	6a 00		 push	 0
  00039	ff b0 60 09 00
	00		 push	 DWORD PTR [eax+2400]
  0003f	6a 06		 push	 6
  00041	ff b1 f4 00 00
	00		 push	 DWORD PTR [ecx+244]
  00047	b9 00 00 00 00	 mov	 ecx, OFFSET ?g_iMetaTable@@3VIMetaTable@@A ; g_iMetaTable
  0004c	e8 00 00 00 00	 call	 ?GetLanguageText@IMetaTable@@QAEPBDPAUHWND__@@W4E_CODEPAGE@1@PBDH@Z ; IMetaTable::GetLanguageText
  00051	50		 push	 eax
  00052	8d 4d 08	 lea	 ecx, DWORD PTR $T2[ebp]
  00055	ff 15 00 00 00
	00		 call	 DWORD PTR __imp_??0?$CStringT@DV?$StrTraitMFC_DLL@DV?$ChTraitsCRT@D@ATL@@@@@ATL@@QAE@PBD@Z
; File C:\Program Files (x86)\Microsoft Visual Studio\2019\Community\VC\Tools\MSVC\14.29.30133\atlmfc\include\afxcoll.inl

; 321  : 		SetAtGrow(nIndex, newElement);

  0005b	8d 45 08	 lea	 eax, DWORD PTR $T2[ebp]
; File D:\git\src\IBK\IBK_DRFN\ProjSrc\SrcChartEx\ChartAddIn\ChartDesignPropertyAddIn\ChartDesignPropertyAddIn\PacketSuperGrid.cpp

; 493  : 		lpItemInfo->AddSubItemText( _LTEXT6( C6_CHARACTER));      // 2 zero based subitems..

  0005e	c7 45 fc 00 00
	00 00		 mov	 DWORD PTR __$EHRec$[ebp+8], 0
; File C:\Program Files (x86)\Microsoft Visual Studio\2019\Community\VC\Tools\MSVC\14.29.30133\atlmfc\include\afxcoll.inl

; 321  : 		SetAtGrow(nIndex, newElement);

  00065	50		 push	 eax
  00066	ff 76 6c	 push	 DWORD PTR [esi+108]
  00069	8d 4e 64	 lea	 ecx, DWORD PTR [esi+100]
  0006c	e8 00 00 00 00	 call	 ?SetAtGrow@CStringArray@@QAEXHABV?$CStringT@DV?$StrTraitMFC_DLL@DV?$ChTraitsCRT@D@ATL@@@@@ATL@@@Z ; CStringArray::SetAtGrow
; File D:\git\src\IBK\IBK_DRFN\ProjSrc\SrcChartEx\ChartAddIn\ChartDesignPropertyAddIn\ChartDesignPropertyAddIn\PacketSuperGrid.cpp

; 493  : 		lpItemInfo->AddSubItemText( _LTEXT6( C6_CHARACTER));      // 2 zero based subitems..

  00071	8d 4d 08	 lea	 ecx, DWORD PTR $T2[ebp]
  00074	ff 15 00 00 00
	00		 call	 DWORD PTR __imp_??1?$CStringT@DV?$StrTraitMFC_DLL@DV?$ChTraitsCRT@D@ATL@@@@@ATL@@QAE@XZ

; 496  : }

  0007a	8b 4d f4	 mov	 ecx, DWORD PTR __$EHRec$[ebp]
  0007d	64 89 0d 00 00
	00 00		 mov	 DWORD PTR fs:0, ecx
  00084	59		 pop	 ecx
  00085	5f		 pop	 edi
  00086	5e		 pop	 esi
  00087	8b e5		 mov	 esp, ebp
  00089	5d		 pop	 ebp
  0008a	c2 08 00	 ret	 8
$LN2@SetThirdTE:
; File C:\Program Files (x86)\Microsoft Visual Studio\2019\Community\VC\Tools\MSVC\14.29.30133\atlmfc\include\afxcoll.inl

; 321  : 		SetAtGrow(nIndex, newElement);

  0008d	57		 push	 edi
  0008e	ff 76 6c	 push	 DWORD PTR [esi+108]
  00091	8d 4e 64	 lea	 ecx, DWORD PTR [esi+100]
  00094	e8 00 00 00 00	 call	 ?SetAtGrow@CStringArray@@QAEXHABV?$CStringT@DV?$StrTraitMFC_DLL@DV?$ChTraitsCRT@D@ATL@@@@@ATL@@@Z ; CStringArray::SetAtGrow
; File D:\git\src\IBK\IBK_DRFN\ProjSrc\SrcChartEx\ChartAddIn\ChartDesignPropertyAddIn\ChartDesignPropertyAddIn\PacketSuperGrid.cpp

; 496  : }

  00099	8b 4d f4	 mov	 ecx, DWORD PTR __$EHRec$[ebp]
  0009c	64 89 0d 00 00
	00 00		 mov	 DWORD PTR fs:0, ecx
  000a3	59		 pop	 ecx
  000a4	5f		 pop	 edi
  000a5	5e		 pop	 esi
  000a6	8b e5		 mov	 esp, ebp
  000a8	5d		 pop	 ebp
  000a9	c2 08 00	 ret	 8
_TEXT	ENDS
;	COMDAT text$x
text$x	SEGMENT
__unwindfunclet$?SetThirdTEXTItem@CPacketSuperGrid@@AAEXABV?$CStringT@DV?$StrTraitMFC_DLL@DV?$ChTraitsCRT@D@ATL@@@@@ATL@@PAVCItemInfo@@@Z$0:
  00000	8d 4d 08	 lea	 ecx, DWORD PTR $T2[ebp]
  00003	ff 25 00 00 00
	00		 jmp	 DWORD PTR __imp_??1?$CStringT@DV?$StrTraitMFC_DLL@DV?$ChTraitsCRT@D@ATL@@@@@ATL@@QAE@XZ
  00009	cc		 int	 3
  0000a	cc		 int	 3
  0000b	cc		 int	 3
  0000c	cc		 int	 3
  0000d	cc		 int	 3
__ehhandler$?SetThirdTEXTItem@CPacketSuperGrid@@AAEXABV?$CStringT@DV?$StrTraitMFC_DLL@DV?$ChTraitsCRT@D@ATL@@@@@ATL@@PAVCItemInfo@@@Z:
  0000e	90		 npad	 1
  0000f	90		 npad	 1
  00010	8b 54 24 08	 mov	 edx, DWORD PTR [esp+8]
  00014	8d 42 0c	 lea	 eax, DWORD PTR [edx+12]
  00017	8b 4a f4	 mov	 ecx, DWORD PTR [edx-12]
  0001a	33 c8		 xor	 ecx, eax
  0001c	e8 00 00 00 00	 call	 @__security_check_cookie@4
  00021	b8 00 00 00 00	 mov	 eax, OFFSET __ehfuncinfo$?SetThirdTEXTItem@CPacketSuperGrid@@AAEXABV?$CStringT@DV?$StrTraitMFC_DLL@DV?$ChTraitsCRT@D@ATL@@@@@ATL@@PAVCItemInfo@@@Z
  00026	e9 00 00 00 00	 jmp	 ___CxxFrameHandler3
text$x	ENDS
?SetThirdTEXTItem@CPacketSuperGrid@@AAEXABV?$CStringT@DV?$StrTraitMFC_DLL@DV?$ChTraitsCRT@D@ATL@@@@@ATL@@PAVCItemInfo@@@Z ENDP ; CPacketSuperGrid::SetThirdTEXTItem
; Function compile flags: /Ogtp
; File D:\git\src\IBK\IBK_DRFN\ProjSrc\SrcChartEx\ChartAddIn\ChartDesignPropertyAddIn\ChartDesignPropertyAddIn\PacketSuperGrid.cpp
; File C:\Program Files (x86)\Microsoft Visual Studio\2019\Community\VC\Tools\MSVC\14.29.30133\atlmfc\include\atlsimpstr.h
; File D:\git\src\IBK\IBK_DRFN\ProjSrc\SrcChartEx\ChartAddIn\ChartDesignPropertyAddIn\ChartDesignPropertyAddIn\PacketSuperGrid.cpp
; File C:\Program Files (x86)\Microsoft Visual Studio\2019\Community\VC\Tools\MSVC\14.29.30133\atlmfc\include\afxcoll.inl
; File D:\git\src\IBK\IBK_DRFN\ProjSrc\SrcChartEx\ChartAddIn\ChartDesignPropertyAddIn\ChartDesignPropertyAddIn\PacketSuperGrid.cpp
; File C:\Program Files (x86)\Microsoft Visual Studio\2019\Community\VC\Tools\MSVC\14.29.30133\atlmfc\include\afxcoll.inl
; File D:\git\src\IBK\IBK_DRFN\ProjSrc\SrcChartEx\ChartAddIn\ChartDesignPropertyAddIn\ChartDesignPropertyAddIn\PacketSuperGrid.cpp
; File C:\Program Files (x86)\Microsoft Visual Studio\2019\Community\VC\Tools\MSVC\14.29.30133\atlmfc\include\afxcoll.inl
; File D:\git\src\IBK\IBK_DRFN\ProjSrc\SrcChartEx\ChartAddIn\ChartDesignPropertyAddIn\ChartDesignPropertyAddIn\SuperGridCtrl.h
; File D:\git\src\IBK\IBK_DRFN\ProjSrc\SrcChartEx\ChartAddIn\ChartDesignPropertyAddIn\ChartDesignPropertyAddIn\PacketSuperGrid.cpp
; File D:\git\src\IBK\IBK_DRFN\ProjSrc\SrcChartEx\ChartAddIn\ChartDesignPropertyAddIn\ChartDesignPropertyAddIn\SuperGridCtrl.h
; File D:\git\src\IBK\IBK_DRFN\ProjSrc\SrcChartEx\ChartAddIn\ChartDesignPropertyAddIn\ChartDesignPropertyAddIn\PacketSuperGrid.cpp
; File C:\Program Files (x86)\Microsoft Visual Studio\2019\Community\VC\Tools\MSVC\14.29.30133\atlmfc\include\afx.inl
; File D:\git\src\IBK\IBK_DRFN\ProjSrc\SrcChartEx\ChartAddIn\ChartDesignPropertyAddIn\ChartDesignPropertyAddIn\SuperGridCtrl.h
; File D:\git\src\IBK\IBK_DRFN\ProjSrc\SrcChartEx\ChartAddIn\ChartDesignPropertyAddIn\ChartDesignPropertyAddIn\PacketSuperGrid.cpp
;	COMDAT ?SetThirdPRICEItem@CPacketSuperGrid@@AAEXABV?$CStringT@DV?$StrTraitMFC_DLL@DV?$ChTraitsCRT@D@ATL@@@@@ATL@@PAVCItemInfo@@@Z
_TEXT	SEGMENT
_list$ = -40						; size = 28
__$EHRec$ = -12						; size = 12
$T2 = 8							; size = 4
_enumCtrlType$ = 8					; size = 4
$T3 = 8							; size = 4
_szDefaultItemofCombo$ = 8				; size = 4
_lpItemInfo$ = 12					; size = 4
?SetThirdPRICEItem@CPacketSuperGrid@@AAEXABV?$CStringT@DV?$StrTraitMFC_DLL@DV?$ChTraitsCRT@D@ATL@@@@@ATL@@PAVCItemInfo@@@Z PROC ; CPacketSuperGrid::SetThirdPRICEItem, COMDAT
; _this$ = ecx

; 499  : {

  00000	55		 push	 ebp
  00001	8b ec		 mov	 ebp, esp
  00003	6a ff		 push	 -1
  00005	68 00 00 00 00	 push	 __ehhandler$?SetThirdPRICEItem@CPacketSuperGrid@@AAEXABV?$CStringT@DV?$StrTraitMFC_DLL@DV?$ChTraitsCRT@D@ATL@@@@@ATL@@PAVCItemInfo@@@Z
  0000a	64 a1 00 00 00
	00		 mov	 eax, DWORD PTR fs:0
  00010	50		 push	 eax
  00011	83 ec 1c	 sub	 esp, 28			; 0000001cH
  00014	56		 push	 esi
  00015	57		 push	 edi
  00016	a1 00 00 00 00	 mov	 eax, DWORD PTR ___security_cookie
  0001b	33 c5		 xor	 eax, ebp
  0001d	50		 push	 eax
  0001e	8d 45 f4	 lea	 eax, DWORD PTR __$EHRec$[ebp]
  00021	64 a3 00 00 00
	00		 mov	 DWORD PTR fs:0, eax
; File C:\Program Files (x86)\Microsoft Visual Studio\2019\Community\VC\Tools\MSVC\14.29.30133\atlmfc\include\atlsimpstr.h

; 519  : 		return( GetData()->nDataLength );

  00027	8b 4d 08	 mov	 ecx, DWORD PTR _szDefaultItemofCombo$[ebp]
  0002a	8b 7d 0c	 mov	 edi, DWORD PTR _lpItemInfo$[ebp]
  0002d	8b 01		 mov	 eax, DWORD PTR [ecx]
; File D:\git\src\IBK\IBK_DRFN\ProjSrc\SrcChartEx\ChartAddIn\ChartDesignPropertyAddIn\ChartDesignPropertyAddIn\PacketSuperGrid.cpp

; 500  : 	if(szDefaultItemofCombo.GetLength() == 0)

  0002f	83 78 f4 00	 cmp	 DWORD PTR [eax-12], 0
  00033	75 36		 jne	 SHORT $LN2@SetThirdPR

; 501  : 		lpItemInfo->AddSubItemText(_T("x 1"));      // 2 zero based subitems..

  00035	68 00 00 00 00	 push	 OFFSET ??_C@_03IOCAOJMC@x?51@
  0003a	8d 4d 08	 lea	 ecx, DWORD PTR $T3[ebp]
  0003d	ff 15 00 00 00
	00		 call	 DWORD PTR __imp_??0?$CStringT@DV?$StrTraitMFC_DLL@DV?$ChTraitsCRT@D@ATL@@@@@ATL@@QAE@PBD@Z
; File C:\Program Files (x86)\Microsoft Visual Studio\2019\Community\VC\Tools\MSVC\14.29.30133\atlmfc\include\afxcoll.inl

; 321  : 		SetAtGrow(nIndex, newElement);

  00043	8d 45 08	 lea	 eax, DWORD PTR $T3[ebp]
; File D:\git\src\IBK\IBK_DRFN\ProjSrc\SrcChartEx\ChartAddIn\ChartDesignPropertyAddIn\ChartDesignPropertyAddIn\PacketSuperGrid.cpp

; 501  : 		lpItemInfo->AddSubItemText(_T("x 1"));      // 2 zero based subitems..

  00046	c7 45 fc 00 00
	00 00		 mov	 DWORD PTR __$EHRec$[ebp+8], 0
; File C:\Program Files (x86)\Microsoft Visual Studio\2019\Community\VC\Tools\MSVC\14.29.30133\atlmfc\include\afxcoll.inl

; 321  : 		SetAtGrow(nIndex, newElement);

  0004d	50		 push	 eax
  0004e	ff 77 6c	 push	 DWORD PTR [edi+108]
  00051	8d 4f 64	 lea	 ecx, DWORD PTR [edi+100]
  00054	e8 00 00 00 00	 call	 ?SetAtGrow@CStringArray@@QAEXHABV?$CStringT@DV?$StrTraitMFC_DLL@DV?$ChTraitsCRT@D@ATL@@@@@ATL@@@Z ; CStringArray::SetAtGrow
; File D:\git\src\IBK\IBK_DRFN\ProjSrc\SrcChartEx\ChartAddIn\ChartDesignPropertyAddIn\ChartDesignPropertyAddIn\PacketSuperGrid.cpp

; 501  : 		lpItemInfo->AddSubItemText(_T("x 1"));      // 2 zero based subitems..

  00059	8d 4d 08	 lea	 ecx, DWORD PTR $T3[ebp]
  0005c	c7 45 fc ff ff
	ff ff		 mov	 DWORD PTR __$EHRec$[ebp+8], -1
  00063	ff 15 00 00 00
	00		 call	 DWORD PTR __imp_??1?$CStringT@DV?$StrTraitMFC_DLL@DV?$ChTraitsCRT@D@ATL@@@@@ATL@@QAE@XZ
  00069	eb 0c		 jmp	 SHORT $LN3@SetThirdPR
$LN2@SetThirdPR:
; File C:\Program Files (x86)\Microsoft Visual Studio\2019\Community\VC\Tools\MSVC\14.29.30133\atlmfc\include\afxcoll.inl

; 321  : 		SetAtGrow(nIndex, newElement);

  0006b	51		 push	 ecx
  0006c	ff 77 6c	 push	 DWORD PTR [edi+108]
  0006f	8d 4f 64	 lea	 ecx, DWORD PTR [edi+100]
  00072	e8 00 00 00 00	 call	 ?SetAtGrow@CStringArray@@QAEXHABV?$CStringT@DV?$StrTraitMFC_DLL@DV?$ChTraitsCRT@D@ATL@@@@@ATL@@@Z ; CStringArray::SetAtGrow
$LN3@SetThirdPR:
; File D:\git\src\IBK\IBK_DRFN\ProjSrc\SrcChartEx\ChartAddIn\ChartDesignPropertyAddIn\ChartDesignPropertyAddIn\SuperGridCtrl.h

; 36   : 	void SetControlType(CONTROLTYPE enumCtrlType, int nCol=-1){ m_controlType.SetAt(nCol, enumCtrlType); }

  00077	8d 45 08	 lea	 eax, DWORD PTR _enumCtrlType$[ebp]
; File D:\git\src\IBK\IBK_DRFN\ProjSrc\SrcChartEx\ChartAddIn\ChartDesignPropertyAddIn\ChartDesignPropertyAddIn\PacketSuperGrid.cpp

; 505  : 	lpItemInfo->SetControlType(lpItemInfo->CONTROLTYPE::combobox, 2);

  0007a	c7 45 08 01 00
	00 00		 mov	 DWORD PTR _enumCtrlType$[ebp], 1
; File D:\git\src\IBK\IBK_DRFN\ProjSrc\SrcChartEx\ChartAddIn\ChartDesignPropertyAddIn\ChartDesignPropertyAddIn\SuperGridCtrl.h

; 36   : 	void SetControlType(CONTROLTYPE enumCtrlType, int nCol=-1){ m_controlType.SetAt(nCol, enumCtrlType); }

  00081	50		 push	 eax
  00082	6a 02		 push	 2
  00084	8d 4f 0c	 lea	 ecx, DWORD PTR [edi+12]
  00087	e8 00 00 00 00	 call	 ?SetAt@?$CMap@HHW4CONTROLTYPE@CItemInfo@@AAW412@@@QAEXHAAW4CONTROLTYPE@CItemInfo@@@Z ; CMap<int,int,enum CItemInfo::CONTROLTYPE,enum CItemInfo::CONTROLTYPE &>::SetAt
; File D:\git\src\IBK\IBK_DRFN\ProjSrc\SrcChartEx\ChartAddIn\ChartDesignPropertyAddIn\ChartDesignPropertyAddIn\PacketSuperGrid.cpp

; 506  : 	CStringList list;

  0008c	6a 0a		 push	 10			; 0000000aH
  0008e	8d 4d d8	 lea	 ecx, DWORD PTR _list$[ebp]
  00091	e8 00 00 00 00	 call	 ??0CStringList@@QAE@H@Z	; CStringList::CStringList

; 507  : 	//initalized list for the edit
; 508  : 	list.AddTail("x 1000");

  00096	68 00 00 00 00	 push	 OFFSET ??_C@_06CNPPABAP@x?51000@
  0009b	8d 4d d8	 lea	 ecx, DWORD PTR _list$[ebp]
  0009e	c7 45 fc 01 00
	00 00		 mov	 DWORD PTR __$EHRec$[ebp+8], 1
  000a5	e8 00 00 00 00	 call	 ?AddTail@CStringList@@QAEPAU__POSITION@@PBD@Z ; CStringList::AddTail

; 509  : 	list.AddTail("x 1");

  000aa	68 00 00 00 00	 push	 OFFSET ??_C@_03IOCAOJMC@x?51@
  000af	8d 4d d8	 lea	 ecx, DWORD PTR _list$[ebp]
  000b2	e8 00 00 00 00	 call	 ?AddTail@CStringList@@QAEPAU__POSITION@@PBD@Z ; CStringList::AddTail

; 510  : 	list.AddTail("x 0.1");

  000b7	68 00 00 00 00	 push	 OFFSET ??_C@_05GMCIGKAN@x?50?41@
  000bc	8d 4d d8	 lea	 ecx, DWORD PTR _list$[ebp]
  000bf	e8 00 00 00 00	 call	 ?AddTail@CStringList@@QAEPAU__POSITION@@PBD@Z ; CStringList::AddTail

; 511  : 	list.AddTail("x 0.01");

  000c4	68 00 00 00 00	 push	 OFFSET ??_C@_06LJECDJFC@x?50?401@
  000c9	8d 4d d8	 lea	 ecx, DWORD PTR _list$[ebp]
  000cc	e8 00 00 00 00	 call	 ?AddTail@CStringList@@QAEPAU__POSITION@@PBD@Z ; CStringList::AddTail

; 512  : 	list.AddTail("x 0.001");

  000d1	68 00 00 00 00	 push	 OFFSET ??_C@_07ECEDBPGE@x?50?4001@
  000d6	8d 4d d8	 lea	 ecx, DWORD PTR _list$[ebp]
  000d9	e8 00 00 00 00	 call	 ?AddTail@CStringList@@QAEPAU__POSITION@@PBD@Z ; CStringList::AddTail

; 513  : 	list.AddTail("x 0.0001");

  000de	68 00 00 00 00	 push	 OFFSET ??_C@_08INACILNL@x?50?40001@
  000e3	8d 4d d8	 lea	 ecx, DWORD PTR _list$[ebp]
  000e6	e8 00 00 00 00	 call	 ?AddTail@CStringList@@QAEPAU__POSITION@@PBD@Z ; CStringList::AddTail

; 514  : 	list.AddTail("x 0.000001");

  000eb	68 00 00 00 00	 push	 OFFSET ??_C@_0L@ECCMEODJ@x?50?4000001@
  000f0	8d 4d d8	 lea	 ecx, DWORD PTR _list$[ebp]
  000f3	e8 00 00 00 00	 call	 ?AddTail@CStringList@@QAEPAU__POSITION@@PBD@Z ; CStringList::AddTail

; 515  : 	list.AddTail("");

  000f8	68 00 00 00 00	 push	 OFFSET ??_C@_00CNPNBAHC@@
  000fd	8d 4d d8	 lea	 ecx, DWORD PTR _list$[ebp]
  00100	e8 00 00 00 00	 call	 ?AddTail@CStringList@@QAEPAU__POSITION@@PBD@Z ; CStringList::AddTail
; File C:\Program Files (x86)\Microsoft Visual Studio\2019\Community\VC\Tools\MSVC\14.29.30133\atlmfc\include\afx.inl

; 116  : 	{ return ::operator new(nSize); }

  00105	6a 1c		 push	 28			; 0000001cH
  00107	e8 00 00 00 00	 call	 ??2@YAPAXI@Z		; operator new
  0010c	83 c4 04	 add	 esp, 4
; File D:\git\src\IBK\IBK_DRFN\ProjSrc\SrcChartEx\ChartAddIn\ChartDesignPropertyAddIn\ChartDesignPropertyAddIn\SuperGridCtrl.h

; 51   : 		list = new CStringList;//will be deleted in destructor

  0010f	89 45 08	 mov	 DWORD PTR $T2[ebp], eax
  00112	c6 45 fc 02	 mov	 BYTE PTR __$EHRec$[ebp+8], 2
  00116	85 c0		 test	 eax, eax
  00118	74 0d		 je	 SHORT $LN23@SetThirdPR
  0011a	6a 0a		 push	 10			; 0000000aH
  0011c	8b c8		 mov	 ecx, eax
  0011e	e8 00 00 00 00	 call	 ??0CStringList@@QAE@H@Z	; CStringList::CStringList
  00123	8b f0		 mov	 esi, eax
  00125	eb 02		 jmp	 SHORT $LN24@SetThirdPR
$LN23@SetThirdPR:
  00127	33 f6		 xor	 esi, esi
$LN24@SetThirdPR:

; 52   : 		list->AddTail(strInitArr);

  00129	8d 45 d8	 lea	 eax, DWORD PTR _list$[ebp]
  0012c	c6 45 fc 01	 mov	 BYTE PTR __$EHRec$[ebp+8], 1
  00130	50		 push	 eax
  00131	8b ce		 mov	 ecx, esi
  00133	e8 00 00 00 00	 call	 ?AddTail@CStringList@@QAEXPAV1@@Z ; CStringList::AddTail

; 53   : 		m_listdata.SetAt(iSubItem, list);

  00138	56		 push	 esi
  00139	6a 02		 push	 2
  0013b	8d 4f 44	 lea	 ecx, DWORD PTR [edi+68]
  0013e	e8 00 00 00 00	 call	 ?SetAt@?$CMap@HHPAVCStringList@@PAV1@@@QAEXHPAVCStringList@@@Z ; CMap<int,int,CStringList *,CStringList *>::SetAt
; File D:\git\src\IBK\IBK_DRFN\ProjSrc\SrcChartEx\ChartAddIn\ChartDesignPropertyAddIn\ChartDesignPropertyAddIn\PacketSuperGrid.cpp

; 517  : }

  00143	8d 4d d8	 lea	 ecx, DWORD PTR _list$[ebp]
  00146	e8 00 00 00 00	 call	 ??1CStringList@@UAE@XZ	; CStringList::~CStringList
  0014b	8b 4d f4	 mov	 ecx, DWORD PTR __$EHRec$[ebp]
  0014e	64 89 0d 00 00
	00 00		 mov	 DWORD PTR fs:0, ecx
  00155	59		 pop	 ecx
  00156	5f		 pop	 edi
  00157	5e		 pop	 esi
  00158	8b e5		 mov	 esp, ebp
  0015a	5d		 pop	 ebp
  0015b	c2 08 00	 ret	 8
_TEXT	ENDS
;	COMDAT text$x
text$x	SEGMENT
__unwindfunclet$?SetThirdPRICEItem@CPacketSuperGrid@@AAEXABV?$CStringT@DV?$StrTraitMFC_DLL@DV?$ChTraitsCRT@D@ATL@@@@@ATL@@PAVCItemInfo@@@Z$0:
  00000	8d 4d 08	 lea	 ecx, DWORD PTR $T3[ebp]
  00003	ff 25 00 00 00
	00		 jmp	 DWORD PTR __imp_??1?$CStringT@DV?$StrTraitMFC_DLL@DV?$ChTraitsCRT@D@ATL@@@@@ATL@@QAE@XZ
__unwindfunclet$?SetThirdPRICEItem@CPacketSuperGrid@@AAEXABV?$CStringT@DV?$StrTraitMFC_DLL@DV?$ChTraitsCRT@D@ATL@@@@@ATL@@PAVCItemInfo@@@Z$1:
  00009	8d 4d d8	 lea	 ecx, DWORD PTR _list$[ebp]
  0000c	e9 00 00 00 00	 jmp	 ??1CStringList@@UAE@XZ	; CStringList::~CStringList
__unwindfunclet$?SetThirdPRICEItem@CPacketSuperGrid@@AAEXABV?$CStringT@DV?$StrTraitMFC_DLL@DV?$ChTraitsCRT@D@ATL@@@@@ATL@@PAVCItemInfo@@@Z$2:
  00011	8b 45 08	 mov	 eax, DWORD PTR $T2[ebp]
  00014	50		 push	 eax
  00015	e8 00 00 00 00	 call	 ??3CObject@@SGXPAX@Z	; CObject::operator delete
  0001a	c3		 ret	 0
  0001b	cc		 int	 3
  0001c	cc		 int	 3
  0001d	cc		 int	 3
  0001e	cc		 int	 3
  0001f	cc		 int	 3
__ehhandler$?SetThirdPRICEItem@CPacketSuperGrid@@AAEXABV?$CStringT@DV?$StrTraitMFC_DLL@DV?$ChTraitsCRT@D@ATL@@@@@ATL@@PAVCItemInfo@@@Z:
  00020	90		 npad	 1
  00021	90		 npad	 1
  00022	8b 54 24 08	 mov	 edx, DWORD PTR [esp+8]
  00026	8d 42 0c	 lea	 eax, DWORD PTR [edx+12]
  00029	8b 4a d8	 mov	 ecx, DWORD PTR [edx-40]
  0002c	33 c8		 xor	 ecx, eax
  0002e	e8 00 00 00 00	 call	 @__security_check_cookie@4
  00033	b8 00 00 00 00	 mov	 eax, OFFSET __ehfuncinfo$?SetThirdPRICEItem@CPacketSuperGrid@@AAEXABV?$CStringT@DV?$StrTraitMFC_DLL@DV?$ChTraitsCRT@D@ATL@@@@@ATL@@PAVCItemInfo@@@Z
  00038	e9 00 00 00 00	 jmp	 ___CxxFrameHandler3
text$x	ENDS
?SetThirdPRICEItem@CPacketSuperGrid@@AAEXABV?$CStringT@DV?$StrTraitMFC_DLL@DV?$ChTraitsCRT@D@ATL@@@@@ATL@@PAVCItemInfo@@@Z ENDP ; CPacketSuperGrid::SetThirdPRICEItem
; Function compile flags: /Ogtp
; File D:\git\src\IBK\IBK_DRFN\ProjSrc\SrcChartEx\ChartAddIn\ChartDesignPropertyAddIn\ChartDesignPropertyAddIn\PacketSuperGrid.cpp
; File C:\Program Files (x86)\Microsoft Visual Studio\2019\Community\VC\Tools\MSVC\14.29.30133\atlmfc\include\atlsimpstr.h
; File D:\git\src\IBK\IBK_DRFN\ProjSrc\SrcChartEx\ChartAddIn\ChartDesignPropertyAddIn\ChartDesignPropertyAddIn\PacketSuperGrid.cpp
; File C:\Program Files (x86)\Microsoft Visual Studio\2019\Community\VC\Tools\MSVC\14.29.30133\atlmfc\include\afxcoll.inl
; File D:\git\src\IBK\IBK_DRFN\ProjSrc\SrcChartEx\ChartAddIn\ChartDesignPropertyAddIn\ChartDesignPropertyAddIn\SuperGridCtrl.h
; File D:\git\src\IBK\IBK_DRFN\ProjSrc\SrcChartEx\ChartAddIn\ChartDesignPropertyAddIn\ChartDesignPropertyAddIn\PacketSuperGrid.cpp
; File D:\git\src\IBK\IBK_DRFN\ProjSrc\SrcChartEx\ChartAddIn\ChartDesignPropertyAddIn\ChartDesignPropertyAddIn\SuperGridCtrl.h
; File D:\git\src\IBK\IBK_DRFN\ProjSrc\SrcChartEx\ChartAddIn\ChartDesignPropertyAddIn\ChartDesignPropertyAddIn\PacketSuperGrid.cpp
; File C:\Program Files (x86)\Microsoft Visual Studio\2019\Community\VC\Tools\MSVC\14.29.30133\atlmfc\include\afx.inl
; File D:\git\src\IBK\IBK_DRFN\ProjSrc\SrcChartEx\ChartAddIn\ChartDesignPropertyAddIn\ChartDesignPropertyAddIn\SuperGridCtrl.h
; File D:\git\src\IBK\IBK_DRFN\ProjSrc\SrcChartEx\ChartAddIn\ChartDesignPropertyAddIn\ChartDesignPropertyAddIn\PacketSuperGrid.cpp
;	COMDAT ?SetThirdVOLUMEItem@CPacketSuperGrid@@AAEXABV?$CStringT@DV?$StrTraitMFC_DLL@DV?$ChTraitsCRT@D@ATL@@@@@ATL@@0PAVCItemInfo@@@Z
_TEXT	SEGMENT
_list$ = -40						; size = 28
__$EHRec$ = -12						; size = 12
_szPacketName$ = 8					; size = 4
$T2 = 12						; size = 4
_enumCtrlType$ = 12					; size = 4
$T3 = 12						; size = 4
$T4 = 12						; size = 4
_szDefaultItemofCombo$ = 12				; size = 4
_lpItemInfo$ = 16					; size = 4
?SetThirdVOLUMEItem@CPacketSuperGrid@@AAEXABV?$CStringT@DV?$StrTraitMFC_DLL@DV?$ChTraitsCRT@D@ATL@@@@@ATL@@0PAVCItemInfo@@@Z PROC ; CPacketSuperGrid::SetThirdVOLUMEItem, COMDAT
; _this$ = ecx

; 520  : {

  00000	55		 push	 ebp
  00001	8b ec		 mov	 ebp, esp
  00003	6a ff		 push	 -1
  00005	68 00 00 00 00	 push	 __ehhandler$?SetThirdVOLUMEItem@CPacketSuperGrid@@AAEXABV?$CStringT@DV?$StrTraitMFC_DLL@DV?$ChTraitsCRT@D@ATL@@@@@ATL@@0PAVCItemInfo@@@Z
  0000a	64 a1 00 00 00
	00		 mov	 eax, DWORD PTR fs:0
  00010	50		 push	 eax
  00011	83 ec 1c	 sub	 esp, 28			; 0000001cH
  00014	56		 push	 esi
  00015	57		 push	 edi
  00016	a1 00 00 00 00	 mov	 eax, DWORD PTR ___security_cookie
  0001b	33 c5		 xor	 eax, ebp
  0001d	50		 push	 eax
  0001e	8d 45 f4	 lea	 eax, DWORD PTR __$EHRec$[ebp]
  00021	64 a3 00 00 00
	00		 mov	 DWORD PTR fs:0, eax
; File C:\Program Files (x86)\Microsoft Visual Studio\2019\Community\VC\Tools\MSVC\14.29.30133\atlmfc\include\atlsimpstr.h

; 519  : 		return( GetData()->nDataLength );

  00027	8b 4d 0c	 mov	 ecx, DWORD PTR _szDefaultItemofCombo$[ebp]
  0002a	8b 7d 10	 mov	 edi, DWORD PTR _lpItemInfo$[ebp]
  0002d	8b 01		 mov	 eax, DWORD PTR [ecx]
; File D:\git\src\IBK\IBK_DRFN\ProjSrc\SrcChartEx\ChartAddIn\ChartDesignPropertyAddIn\ChartDesignPropertyAddIn\PacketSuperGrid.cpp

; 521  : 	if(szDefaultItemofCombo.GetLength() == 0)	{

  0002f	83 78 f4 00	 cmp	 DWORD PTR [eax-12], 0
  00033	75 5f		 jne	 SHORT $LN2@SetThirdVO

; 522  : 		if(szPacketName.Compare( _MTEXT( C0_VOLUME)) == 0)

  00035	a1 54 00 00 00	 mov	 eax, DWORD PTR ?g_iMetaTable@@3VIMetaTable@@A+84
  0003a	8b 4d 08	 mov	 ecx, DWORD PTR _szPacketName$[ebp]
  0003d	ff 70 1c	 push	 DWORD PTR [eax+28]
  00040	ff 15 00 00 00
	00		 call	 DWORD PTR __imp_?Compare@?$CStringT@DV?$StrTraitMFC_DLL@DV?$ChTraitsCRT@D@ATL@@@@@ATL@@QBEHPBD@Z
  00046	8d 4d 0c	 lea	 ecx, DWORD PTR $T4[ebp]
  00049	85 c0		 test	 eax, eax
  0004b	75 14		 jne	 SHORT $LN4@SetThirdVO

; 523  : 			lpItemInfo->AddSubItemText(_T("x 1"));      // 2 zero based subitems..

  0004d	68 00 00 00 00	 push	 OFFSET ??_C@_03IOCAOJMC@x?51@
  00052	ff 15 00 00 00
	00		 call	 DWORD PTR __imp_??0?$CStringT@DV?$StrTraitMFC_DLL@DV?$ChTraitsCRT@D@ATL@@@@@ATL@@QAE@PBD@Z
  00058	c7 45 fc 00 00
	00 00		 mov	 DWORD PTR __$EHRec$[ebp+8], 0
  0005f	eb 12		 jmp	 SHORT $LN36@SetThirdVO
$LN4@SetThirdVO:

; 524  : 		else 
; 525  : 			lpItemInfo->AddSubItemText(_T("x 1000"));      // 2 zero based subitems..

  00061	68 00 00 00 00	 push	 OFFSET ??_C@_06CNPPABAP@x?51000@
  00066	ff 15 00 00 00
	00		 call	 DWORD PTR __imp_??0?$CStringT@DV?$StrTraitMFC_DLL@DV?$ChTraitsCRT@D@ATL@@@@@ATL@@QAE@PBD@Z
  0006c	c7 45 fc 01 00
	00 00		 mov	 DWORD PTR __$EHRec$[ebp+8], 1
$LN36@SetThirdVO:

; 530  : 	lpItemInfo->SetControlType(lpItemInfo->CONTROLTYPE::combobox, 2);

  00073	8d 45 0c	 lea	 eax, DWORD PTR $T3[ebp]
  00076	50		 push	 eax
  00077	ff 77 6c	 push	 DWORD PTR [edi+108]
  0007a	8d 4f 64	 lea	 ecx, DWORD PTR [edi+100]
  0007d	e8 00 00 00 00	 call	 ?SetAtGrow@CStringArray@@QAEXHABV?$CStringT@DV?$StrTraitMFC_DLL@DV?$ChTraitsCRT@D@ATL@@@@@ATL@@@Z ; CStringArray::SetAtGrow
  00082	8d 4d 0c	 lea	 ecx, DWORD PTR $T3[ebp]
  00085	c7 45 fc ff ff
	ff ff		 mov	 DWORD PTR __$EHRec$[ebp+8], -1
  0008c	ff 15 00 00 00
	00		 call	 DWORD PTR __imp_??1?$CStringT@DV?$StrTraitMFC_DLL@DV?$ChTraitsCRT@D@ATL@@@@@ATL@@QAE@XZ
  00092	eb 0c		 jmp	 SHORT $LN3@SetThirdVO
$LN2@SetThirdVO:
; File C:\Program Files (x86)\Microsoft Visual Studio\2019\Community\VC\Tools\MSVC\14.29.30133\atlmfc\include\afxcoll.inl

; 321  : 		SetAtGrow(nIndex, newElement);

  00094	51		 push	 ecx
  00095	ff 77 6c	 push	 DWORD PTR [edi+108]
  00098	8d 4f 64	 lea	 ecx, DWORD PTR [edi+100]
  0009b	e8 00 00 00 00	 call	 ?SetAtGrow@CStringArray@@QAEXHABV?$CStringT@DV?$StrTraitMFC_DLL@DV?$ChTraitsCRT@D@ATL@@@@@ATL@@@Z ; CStringArray::SetAtGrow
$LN3@SetThirdVO:
; File D:\git\src\IBK\IBK_DRFN\ProjSrc\SrcChartEx\ChartAddIn\ChartDesignPropertyAddIn\ChartDesignPropertyAddIn\SuperGridCtrl.h

; 36   : 	void SetControlType(CONTROLTYPE enumCtrlType, int nCol=-1){ m_controlType.SetAt(nCol, enumCtrlType); }

  000a0	8d 45 0c	 lea	 eax, DWORD PTR _enumCtrlType$[ebp]
; File D:\git\src\IBK\IBK_DRFN\ProjSrc\SrcChartEx\ChartAddIn\ChartDesignPropertyAddIn\ChartDesignPropertyAddIn\PacketSuperGrid.cpp

; 530  : 	lpItemInfo->SetControlType(lpItemInfo->CONTROLTYPE::combobox, 2);

  000a3	c7 45 0c 01 00
	00 00		 mov	 DWORD PTR _enumCtrlType$[ebp], 1
; File D:\git\src\IBK\IBK_DRFN\ProjSrc\SrcChartEx\ChartAddIn\ChartDesignPropertyAddIn\ChartDesignPropertyAddIn\SuperGridCtrl.h

; 36   : 	void SetControlType(CONTROLTYPE enumCtrlType, int nCol=-1){ m_controlType.SetAt(nCol, enumCtrlType); }

  000aa	50		 push	 eax
  000ab	6a 02		 push	 2
  000ad	8d 4f 0c	 lea	 ecx, DWORD PTR [edi+12]
  000b0	e8 00 00 00 00	 call	 ?SetAt@?$CMap@HHW4CONTROLTYPE@CItemInfo@@AAW412@@@QAEXHAAW4CONTROLTYPE@CItemInfo@@@Z ; CMap<int,int,enum CItemInfo::CONTROLTYPE,enum CItemInfo::CONTROLTYPE &>::SetAt
; File D:\git\src\IBK\IBK_DRFN\ProjSrc\SrcChartEx\ChartAddIn\ChartDesignPropertyAddIn\ChartDesignPropertyAddIn\PacketSuperGrid.cpp

; 531  : 	CStringList list;

  000b5	6a 0a		 push	 10			; 0000000aH
  000b7	8d 4d d8	 lea	 ecx, DWORD PTR _list$[ebp]
  000ba	e8 00 00 00 00	 call	 ??0CStringList@@QAE@H@Z	; CStringList::CStringList

; 532  : 	//initalized list for the edit
; 533  : 	list.AddTail("x 1");

  000bf	68 00 00 00 00	 push	 OFFSET ??_C@_03IOCAOJMC@x?51@
  000c4	8d 4d d8	 lea	 ecx, DWORD PTR _list$[ebp]
  000c7	c7 45 fc 02 00
	00 00		 mov	 DWORD PTR __$EHRec$[ebp+8], 2
  000ce	e8 00 00 00 00	 call	 ?AddTail@CStringList@@QAEPAU__POSITION@@PBD@Z ; CStringList::AddTail

; 534  : 	list.AddTail("x 100");

  000d3	68 00 00 00 00	 push	 OFFSET ??_C@_05NLDHLCFD@x?5100@
  000d8	8d 4d d8	 lea	 ecx, DWORD PTR _list$[ebp]
  000db	e8 00 00 00 00	 call	 ?AddTail@CStringList@@QAEPAU__POSITION@@PBD@Z ; CStringList::AddTail

; 535  : 	list.AddTail("x 1000");

  000e0	68 00 00 00 00	 push	 OFFSET ??_C@_06CNPPABAP@x?51000@
  000e5	8d 4d d8	 lea	 ecx, DWORD PTR _list$[ebp]
  000e8	e8 00 00 00 00	 call	 ?AddTail@CStringList@@QAEPAU__POSITION@@PBD@Z ; CStringList::AddTail

; 536  : 	list.AddTail("x 100000");

  000ed	68 00 00 00 00	 push	 OFFSET ??_C@_08LLCNCMF@x?5100000@
  000f2	8d 4d d8	 lea	 ecx, DWORD PTR _list$[ebp]
  000f5	e8 00 00 00 00	 call	 ?AddTail@CStringList@@QAEPAU__POSITION@@PBD@Z ; CStringList::AddTail

; 537  : 	list.AddTail("x 100000000");

  000fa	68 00 00 00 00	 push	 OFFSET ??_C@_0M@KADAKFP@x?5100000000@
  000ff	8d 4d d8	 lea	 ecx, DWORD PTR _list$[ebp]
  00102	e8 00 00 00 00	 call	 ?AddTail@CStringList@@QAEPAU__POSITION@@PBD@Z ; CStringList::AddTail

; 538  : 	list.AddTail("");

  00107	68 00 00 00 00	 push	 OFFSET ??_C@_00CNPNBAHC@@
  0010c	8d 4d d8	 lea	 ecx, DWORD PTR _list$[ebp]
  0010f	e8 00 00 00 00	 call	 ?AddTail@CStringList@@QAEPAU__POSITION@@PBD@Z ; CStringList::AddTail

; 539  : 	list.AddTail("");

  00114	68 00 00 00 00	 push	 OFFSET ??_C@_00CNPNBAHC@@
  00119	8d 4d d8	 lea	 ecx, DWORD PTR _list$[ebp]
  0011c	e8 00 00 00 00	 call	 ?AddTail@CStringList@@QAEPAU__POSITION@@PBD@Z ; CStringList::AddTail
; File C:\Program Files (x86)\Microsoft Visual Studio\2019\Community\VC\Tools\MSVC\14.29.30133\atlmfc\include\afx.inl

; 116  : 	{ return ::operator new(nSize); }

  00121	6a 1c		 push	 28			; 0000001cH
  00123	e8 00 00 00 00	 call	 ??2@YAPAXI@Z		; operator new
  00128	83 c4 04	 add	 esp, 4
; File D:\git\src\IBK\IBK_DRFN\ProjSrc\SrcChartEx\ChartAddIn\ChartDesignPropertyAddIn\ChartDesignPropertyAddIn\SuperGridCtrl.h

; 51   : 		list = new CStringList;//will be deleted in destructor

  0012b	89 45 0c	 mov	 DWORD PTR $T2[ebp], eax
  0012e	c6 45 fc 03	 mov	 BYTE PTR __$EHRec$[ebp+8], 3
  00132	85 c0		 test	 eax, eax
  00134	74 0d		 je	 SHORT $LN30@SetThirdVO
  00136	6a 0a		 push	 10			; 0000000aH
  00138	8b c8		 mov	 ecx, eax
  0013a	e8 00 00 00 00	 call	 ??0CStringList@@QAE@H@Z	; CStringList::CStringList
  0013f	8b f0		 mov	 esi, eax
  00141	eb 02		 jmp	 SHORT $LN31@SetThirdVO
$LN30@SetThirdVO:
  00143	33 f6		 xor	 esi, esi
$LN31@SetThirdVO:

; 52   : 		list->AddTail(strInitArr);

  00145	8d 45 d8	 lea	 eax, DWORD PTR _list$[ebp]
  00148	c6 45 fc 02	 mov	 BYTE PTR __$EHRec$[ebp+8], 2
  0014c	50		 push	 eax
  0014d	8b ce		 mov	 ecx, esi
  0014f	e8 00 00 00 00	 call	 ?AddTail@CStringList@@QAEXPAV1@@Z ; CStringList::AddTail

; 53   : 		m_listdata.SetAt(iSubItem, list);

  00154	56		 push	 esi
  00155	6a 02		 push	 2
  00157	8d 4f 44	 lea	 ecx, DWORD PTR [edi+68]
  0015a	e8 00 00 00 00	 call	 ?SetAt@?$CMap@HHPAVCStringList@@PAV1@@@QAEXHPAVCStringList@@@Z ; CMap<int,int,CStringList *,CStringList *>::SetAt
; File D:\git\src\IBK\IBK_DRFN\ProjSrc\SrcChartEx\ChartAddIn\ChartDesignPropertyAddIn\ChartDesignPropertyAddIn\PacketSuperGrid.cpp

; 541  : }

  0015f	8d 4d d8	 lea	 ecx, DWORD PTR _list$[ebp]
  00162	e8 00 00 00 00	 call	 ??1CStringList@@UAE@XZ	; CStringList::~CStringList
  00167	8b 4d f4	 mov	 ecx, DWORD PTR __$EHRec$[ebp]
  0016a	64 89 0d 00 00
	00 00		 mov	 DWORD PTR fs:0, ecx
  00171	59		 pop	 ecx
  00172	5f		 pop	 edi
  00173	5e		 pop	 esi
  00174	8b e5		 mov	 esp, ebp
  00176	5d		 pop	 ebp
  00177	c2 0c 00	 ret	 12			; 0000000cH
_TEXT	ENDS
;	COMDAT text$x
text$x	SEGMENT
__unwindfunclet$?SetThirdVOLUMEItem@CPacketSuperGrid@@AAEXABV?$CStringT@DV?$StrTraitMFC_DLL@DV?$ChTraitsCRT@D@ATL@@@@@ATL@@0PAVCItemInfo@@@Z$0:
  00000	8d 4d 0c	 lea	 ecx, DWORD PTR $T4[ebp]
  00003	ff 25 00 00 00
	00		 jmp	 DWORD PTR __imp_??1?$CStringT@DV?$StrTraitMFC_DLL@DV?$ChTraitsCRT@D@ATL@@@@@ATL@@QAE@XZ
__unwindfunclet$?SetThirdVOLUMEItem@CPacketSuperGrid@@AAEXABV?$CStringT@DV?$StrTraitMFC_DLL@DV?$ChTraitsCRT@D@ATL@@@@@ATL@@0PAVCItemInfo@@@Z$1:
  00009	8d 4d 0c	 lea	 ecx, DWORD PTR $T3[ebp]
  0000c	ff 25 00 00 00
	00		 jmp	 DWORD PTR __imp_??1?$CStringT@DV?$StrTraitMFC_DLL@DV?$ChTraitsCRT@D@ATL@@@@@ATL@@QAE@XZ
__unwindfunclet$?SetThirdVOLUMEItem@CPacketSuperGrid@@AAEXABV?$CStringT@DV?$StrTraitMFC_DLL@DV?$ChTraitsCRT@D@ATL@@@@@ATL@@0PAVCItemInfo@@@Z$2:
  00012	8d 4d d8	 lea	 ecx, DWORD PTR _list$[ebp]
  00015	e9 00 00 00 00	 jmp	 ??1CStringList@@UAE@XZ	; CStringList::~CStringList
__unwindfunclet$?SetThirdVOLUMEItem@CPacketSuperGrid@@AAEXABV?$CStringT@DV?$StrTraitMFC_DLL@DV?$ChTraitsCRT@D@ATL@@@@@ATL@@0PAVCItemInfo@@@Z$3:
  0001a	8b 45 0c	 mov	 eax, DWORD PTR $T2[ebp]
  0001d	50		 push	 eax
  0001e	e8 00 00 00 00	 call	 ??3CObject@@SGXPAX@Z	; CObject::operator delete
  00023	c3		 ret	 0
  00024	cc		 int	 3
  00025	cc		 int	 3
  00026	cc		 int	 3
  00027	cc		 int	 3
  00028	cc		 int	 3
__ehhandler$?SetThirdVOLUMEItem@CPacketSuperGrid@@AAEXABV?$CStringT@DV?$StrTraitMFC_DLL@DV?$ChTraitsCRT@D@ATL@@@@@ATL@@0PAVCItemInfo@@@Z:
  00029	90		 npad	 1
  0002a	90		 npad	 1
  0002b	8b 54 24 08	 mov	 edx, DWORD PTR [esp+8]
  0002f	8d 42 0c	 lea	 eax, DWORD PTR [edx+12]
  00032	8b 4a d8	 mov	 ecx, DWORD PTR [edx-40]
  00035	33 c8		 xor	 ecx, eax
  00037	e8 00 00 00 00	 call	 @__security_check_cookie@4
  0003c	b8 00 00 00 00	 mov	 eax, OFFSET __ehfuncinfo$?SetThirdVOLUMEItem@CPacketSuperGrid@@AAEXABV?$CStringT@DV?$StrTraitMFC_DLL@DV?$ChTraitsCRT@D@ATL@@@@@ATL@@0PAVCItemInfo@@@Z
  00041	e9 00 00 00 00	 jmp	 ___CxxFrameHandler3
text$x	ENDS
?SetThirdVOLUMEItem@CPacketSuperGrid@@AAEXABV?$CStringT@DV?$StrTraitMFC_DLL@DV?$ChTraitsCRT@D@ATL@@@@@ATL@@0PAVCItemInfo@@@Z ENDP ; CPacketSuperGrid::SetThirdVOLUMEItem
; Function compile flags: /Ogtp
; File D:\git\src\IBK\IBK_DRFN\ProjSrc\SrcChartEx\ChartAddIn\ChartDesignPropertyAddIn\ChartDesignPropertyAddIn\PacketSuperGrid.cpp
; File C:\Program Files (x86)\Microsoft Visual Studio\2019\Community\VC\Tools\MSVC\14.29.30133\atlmfc\include\atlsimpstr.h
; File D:\git\src\IBK\IBK_DRFN\ProjSrc\SrcChartEx\ChartAddIn\ChartDesignPropertyAddIn\ChartDesignPropertyAddIn\PacketSuperGrid.cpp
; File C:\Program Files (x86)\Microsoft Visual Studio\2019\Community\VC\Tools\MSVC\14.29.30133\atlmfc\include\afxcoll.inl
; File D:\git\src\IBK\IBK_DRFN\ProjSrc\SrcChartEx\ChartAddIn\ChartDesignPropertyAddIn\ChartDesignPropertyAddIn\PacketSuperGrid.cpp
; File C:\Program Files (x86)\Microsoft Visual Studio\2019\Community\VC\Tools\MSVC\14.29.30133\atlmfc\include\afxcoll.inl
; File D:\git\src\IBK\IBK_DRFN\ProjSrc\SrcChartEx\ChartAddIn\ChartDesignPropertyAddIn\ChartDesignPropertyAddIn\PacketSuperGrid.cpp
; File C:\Program Files (x86)\Microsoft Visual Studio\2019\Community\VC\Tools\MSVC\14.29.30133\atlmfc\include\afxcoll.inl
; File D:\git\src\IBK\IBK_DRFN\ProjSrc\SrcChartEx\ChartAddIn\ChartDesignPropertyAddIn\ChartDesignPropertyAddIn\SuperGridCtrl.h
; File D:\git\src\IBK\IBK_DRFN\ProjSrc\SrcChartEx\ChartAddIn\ChartDesignPropertyAddIn\ChartDesignPropertyAddIn\PacketSuperGrid.cpp
; File D:\git\src\IBK\IBK_DRFN\ProjSrc\SrcChartEx\ChartAddIn\ChartDesignPropertyAddIn\ChartDesignPropertyAddIn\SuperGridCtrl.h
; File D:\git\src\IBK\IBK_DRFN\ProjSrc\SrcChartEx\ChartAddIn\ChartDesignPropertyAddIn\ChartDesignPropertyAddIn\PacketSuperGrid.cpp
; File C:\Program Files (x86)\Microsoft Visual Studio\2019\Community\VC\Tools\MSVC\14.29.30133\atlmfc\include\afx.inl
; File D:\git\src\IBK\IBK_DRFN\ProjSrc\SrcChartEx\ChartAddIn\ChartDesignPropertyAddIn\ChartDesignPropertyAddIn\SuperGridCtrl.h
; File D:\git\src\IBK\IBK_DRFN\ProjSrc\SrcChartEx\ChartAddIn\ChartDesignPropertyAddIn\ChartDesignPropertyAddIn\PacketSuperGrid.cpp
;	COMDAT ?SetThirdSTOCKMULTIPLEItem@CPacketSuperGrid@@AAEXABV?$CStringT@DV?$StrTraitMFC_DLL@DV?$ChTraitsCRT@D@ATL@@@@@ATL@@PAVCItemInfo@@@Z
_TEXT	SEGMENT
_list$ = -40						; size = 28
__$EHRec$ = -12						; size = 12
$T2 = 8							; size = 4
_enumCtrlType$ = 8					; size = 4
$T3 = 8							; size = 4
_szDefaultItemofCombo$ = 8				; size = 4
_lpItemInfo$ = 12					; size = 4
?SetThirdSTOCKMULTIPLEItem@CPacketSuperGrid@@AAEXABV?$CStringT@DV?$StrTraitMFC_DLL@DV?$ChTraitsCRT@D@ATL@@@@@ATL@@PAVCItemInfo@@@Z PROC ; CPacketSuperGrid::SetThirdSTOCKMULTIPLEItem, COMDAT
; _this$ = ecx

; 544  : {

  00000	55		 push	 ebp
  00001	8b ec		 mov	 ebp, esp
  00003	6a ff		 push	 -1
  00005	68 00 00 00 00	 push	 __ehhandler$?SetThirdSTOCKMULTIPLEItem@CPacketSuperGrid@@AAEXABV?$CStringT@DV?$StrTraitMFC_DLL@DV?$ChTraitsCRT@D@ATL@@@@@ATL@@PAVCItemInfo@@@Z
  0000a	64 a1 00 00 00
	00		 mov	 eax, DWORD PTR fs:0
  00010	50		 push	 eax
  00011	83 ec 1c	 sub	 esp, 28			; 0000001cH
  00014	53		 push	 ebx
  00015	56		 push	 esi
  00016	57		 push	 edi
  00017	a1 00 00 00 00	 mov	 eax, DWORD PTR ___security_cookie
  0001c	33 c5		 xor	 eax, ebp
  0001e	50		 push	 eax
  0001f	8d 45 f4	 lea	 eax, DWORD PTR __$EHRec$[ebp]
  00022	64 a3 00 00 00
	00		 mov	 DWORD PTR fs:0, eax
  00028	8b d9		 mov	 ebx, ecx
; File C:\Program Files (x86)\Microsoft Visual Studio\2019\Community\VC\Tools\MSVC\14.29.30133\atlmfc\include\atlsimpstr.h

; 519  : 		return( GetData()->nDataLength );

  0002a	8b 55 08	 mov	 edx, DWORD PTR _szDefaultItemofCombo$[ebp]
  0002d	8b 7d 0c	 mov	 edi, DWORD PTR _lpItemInfo$[ebp]
  00030	8b 02		 mov	 eax, DWORD PTR [edx]
; File D:\git\src\IBK\IBK_DRFN\ProjSrc\SrcChartEx\ChartAddIn\ChartDesignPropertyAddIn\ChartDesignPropertyAddIn\PacketSuperGrid.cpp

; 545  : 	if(szDefaultItemofCombo.GetLength() == 0)

  00032	83 78 f4 00	 cmp	 DWORD PTR [eax-12], 0
  00036	75 36		 jne	 SHORT $LN2@SetThirdST

; 546  : 		lpItemInfo->AddSubItemText(_T("x 1%"));      // 2 zero based subitems..

  00038	68 00 00 00 00	 push	 OFFSET ??_C@_04JNBHFDJC@x?51?$CF@
  0003d	8d 4d 08	 lea	 ecx, DWORD PTR $T3[ebp]
  00040	ff 15 00 00 00
	00		 call	 DWORD PTR __imp_??0?$CStringT@DV?$StrTraitMFC_DLL@DV?$ChTraitsCRT@D@ATL@@@@@ATL@@QAE@PBD@Z
; File C:\Program Files (x86)\Microsoft Visual Studio\2019\Community\VC\Tools\MSVC\14.29.30133\atlmfc\include\afxcoll.inl

; 321  : 		SetAtGrow(nIndex, newElement);

  00046	8d 45 08	 lea	 eax, DWORD PTR $T3[ebp]
; File D:\git\src\IBK\IBK_DRFN\ProjSrc\SrcChartEx\ChartAddIn\ChartDesignPropertyAddIn\ChartDesignPropertyAddIn\PacketSuperGrid.cpp

; 546  : 		lpItemInfo->AddSubItemText(_T("x 1%"));      // 2 zero based subitems..

  00049	c7 45 fc 00 00
	00 00		 mov	 DWORD PTR __$EHRec$[ebp+8], 0
; File C:\Program Files (x86)\Microsoft Visual Studio\2019\Community\VC\Tools\MSVC\14.29.30133\atlmfc\include\afxcoll.inl

; 321  : 		SetAtGrow(nIndex, newElement);

  00050	50		 push	 eax
  00051	ff 77 6c	 push	 DWORD PTR [edi+108]
  00054	8d 4f 64	 lea	 ecx, DWORD PTR [edi+100]
  00057	e8 00 00 00 00	 call	 ?SetAtGrow@CStringArray@@QAEXHABV?$CStringT@DV?$StrTraitMFC_DLL@DV?$ChTraitsCRT@D@ATL@@@@@ATL@@@Z ; CStringArray::SetAtGrow
; File D:\git\src\IBK\IBK_DRFN\ProjSrc\SrcChartEx\ChartAddIn\ChartDesignPropertyAddIn\ChartDesignPropertyAddIn\PacketSuperGrid.cpp

; 546  : 		lpItemInfo->AddSubItemText(_T("x 1%"));      // 2 zero based subitems..

  0005c	8d 4d 08	 lea	 ecx, DWORD PTR $T3[ebp]
  0005f	c7 45 fc ff ff
	ff ff		 mov	 DWORD PTR __$EHRec$[ebp+8], -1
  00066	ff 15 00 00 00
	00		 call	 DWORD PTR __imp_??1?$CStringT@DV?$StrTraitMFC_DLL@DV?$ChTraitsCRT@D@ATL@@@@@ATL@@QAE@XZ
  0006c	eb 0c		 jmp	 SHORT $LN3@SetThirdST
$LN2@SetThirdST:
; File C:\Program Files (x86)\Microsoft Visual Studio\2019\Community\VC\Tools\MSVC\14.29.30133\atlmfc\include\afxcoll.inl

; 321  : 		SetAtGrow(nIndex, newElement);

  0006e	52		 push	 edx
  0006f	ff 77 6c	 push	 DWORD PTR [edi+108]
  00072	8d 4f 64	 lea	 ecx, DWORD PTR [edi+100]
  00075	e8 00 00 00 00	 call	 ?SetAtGrow@CStringArray@@QAEXHABV?$CStringT@DV?$StrTraitMFC_DLL@DV?$ChTraitsCRT@D@ATL@@@@@ATL@@@Z ; CStringArray::SetAtGrow
$LN3@SetThirdST:
; File D:\git\src\IBK\IBK_DRFN\ProjSrc\SrcChartEx\ChartAddIn\ChartDesignPropertyAddIn\ChartDesignPropertyAddIn\SuperGridCtrl.h

; 36   : 	void SetControlType(CONTROLTYPE enumCtrlType, int nCol=-1){ m_controlType.SetAt(nCol, enumCtrlType); }

  0007a	8d 45 08	 lea	 eax, DWORD PTR _enumCtrlType$[ebp]
; File D:\git\src\IBK\IBK_DRFN\ProjSrc\SrcChartEx\ChartAddIn\ChartDesignPropertyAddIn\ChartDesignPropertyAddIn\PacketSuperGrid.cpp

; 550  : 	lpItemInfo->SetControlType(lpItemInfo->CONTROLTYPE::combobox, 2);

  0007d	c7 45 08 01 00
	00 00		 mov	 DWORD PTR _enumCtrlType$[ebp], 1
; File D:\git\src\IBK\IBK_DRFN\ProjSrc\SrcChartEx\ChartAddIn\ChartDesignPropertyAddIn\ChartDesignPropertyAddIn\SuperGridCtrl.h

; 36   : 	void SetControlType(CONTROLTYPE enumCtrlType, int nCol=-1){ m_controlType.SetAt(nCol, enumCtrlType); }

  00084	50		 push	 eax
  00085	6a 02		 push	 2
  00087	8d 4f 0c	 lea	 ecx, DWORD PTR [edi+12]
  0008a	e8 00 00 00 00	 call	 ?SetAt@?$CMap@HHW4CONTROLTYPE@CItemInfo@@AAW412@@@QAEXHAAW4CONTROLTYPE@CItemInfo@@@Z ; CMap<int,int,enum CItemInfo::CONTROLTYPE,enum CItemInfo::CONTROLTYPE &>::SetAt
; File D:\git\src\IBK\IBK_DRFN\ProjSrc\SrcChartEx\ChartAddIn\ChartDesignPropertyAddIn\ChartDesignPropertyAddIn\PacketSuperGrid.cpp

; 552  : 	CStringList list;

  0008f	6a 0a		 push	 10			; 0000000aH
  00091	8d 4d d8	 lea	 ecx, DWORD PTR _list$[ebp]
  00094	e8 00 00 00 00	 call	 ??0CStringList@@QAE@H@Z	; CStringList::CStringList

; 553  : 	//initalized list for the edit
; 554  : 	list.AddTail("x 0.01%");

  00099	68 00 00 00 00	 push	 OFFSET ??_C@_07GNCPKCAG@x?50?401?$CF@
  0009e	8d 4d d8	 lea	 ecx, DWORD PTR _list$[ebp]
  000a1	c7 45 fc 01 00
	00 00		 mov	 DWORD PTR __$EHRec$[ebp+8], 1
  000a8	e8 00 00 00 00	 call	 ?AddTail@CStringList@@QAEPAU__POSITION@@PBD@Z ; CStringList::AddTail

; 555  : 	list.AddTail("x 0.1%");

  000ad	68 00 00 00 00	 push	 OFFSET ??_C@_06JGCOIEDA@x?50?41?$CF@
  000b2	8d 4d d8	 lea	 ecx, DWORD PTR _list$[ebp]
  000b5	e8 00 00 00 00	 call	 ?AddTail@CStringList@@QAEPAU__POSITION@@PBD@Z ; CStringList::AddTail

; 556  : 	list.AddTail("x 1%");

  000ba	68 00 00 00 00	 push	 OFFSET ??_C@_04JNBHFDJC@x?51?$CF@
  000bf	8d 4d d8	 lea	 ecx, DWORD PTR _list$[ebp]
  000c2	e8 00 00 00 00	 call	 ?AddTail@CStringList@@QAEPAU__POSITION@@PBD@Z ; CStringList::AddTail

; 557  : 	list.AddTail( _LTEXT6( C6_POINT));

  000c7	a1 54 00 00 00	 mov	 eax, DWORD PTR ?g_iMetaTable@@3VIMetaTable@@A+84
  000cc	b9 00 00 00 00	 mov	 ecx, OFFSET ?g_iMetaTable@@3VIMetaTable@@A ; g_iMetaTable
  000d1	6a 00		 push	 0
  000d3	ff b0 6c 09 00
	00		 push	 DWORD PTR [eax+2412]
  000d9	6a 06		 push	 6
  000db	ff b3 f4 00 00
	00		 push	 DWORD PTR [ebx+244]
  000e1	e8 00 00 00 00	 call	 ?GetLanguageText@IMetaTable@@QAEPBDPAUHWND__@@W4E_CODEPAGE@1@PBDH@Z ; IMetaTable::GetLanguageText
  000e6	50		 push	 eax
  000e7	8d 4d d8	 lea	 ecx, DWORD PTR _list$[ebp]
  000ea	e8 00 00 00 00	 call	 ?AddTail@CStringList@@QAEPAU__POSITION@@PBD@Z ; CStringList::AddTail

; 558  : 	list.AddTail("");

  000ef	68 00 00 00 00	 push	 OFFSET ??_C@_00CNPNBAHC@@
  000f4	8d 4d d8	 lea	 ecx, DWORD PTR _list$[ebp]
  000f7	e8 00 00 00 00	 call	 ?AddTail@CStringList@@QAEPAU__POSITION@@PBD@Z ; CStringList::AddTail

; 559  : 	list.AddTail("");

  000fc	68 00 00 00 00	 push	 OFFSET ??_C@_00CNPNBAHC@@
  00101	8d 4d d8	 lea	 ecx, DWORD PTR _list$[ebp]
  00104	e8 00 00 00 00	 call	 ?AddTail@CStringList@@QAEPAU__POSITION@@PBD@Z ; CStringList::AddTail
; File C:\Program Files (x86)\Microsoft Visual Studio\2019\Community\VC\Tools\MSVC\14.29.30133\atlmfc\include\afx.inl

; 116  : 	{ return ::operator new(nSize); }

  00109	6a 1c		 push	 28			; 0000001cH
  0010b	e8 00 00 00 00	 call	 ??2@YAPAXI@Z		; operator new
  00110	83 c4 04	 add	 esp, 4
; File D:\git\src\IBK\IBK_DRFN\ProjSrc\SrcChartEx\ChartAddIn\ChartDesignPropertyAddIn\ChartDesignPropertyAddIn\SuperGridCtrl.h

; 51   : 		list = new CStringList;//will be deleted in destructor

  00113	89 45 08	 mov	 DWORD PTR $T2[ebp], eax
  00116	c6 45 fc 02	 mov	 BYTE PTR __$EHRec$[ebp+8], 2
  0011a	85 c0		 test	 eax, eax
  0011c	74 0d		 je	 SHORT $LN23@SetThirdST
  0011e	6a 0a		 push	 10			; 0000000aH
  00120	8b c8		 mov	 ecx, eax
  00122	e8 00 00 00 00	 call	 ??0CStringList@@QAE@H@Z	; CStringList::CStringList
  00127	8b f0		 mov	 esi, eax
  00129	eb 02		 jmp	 SHORT $LN24@SetThirdST
$LN23@SetThirdST:
  0012b	33 f6		 xor	 esi, esi
$LN24@SetThirdST:

; 52   : 		list->AddTail(strInitArr);

  0012d	8d 45 d8	 lea	 eax, DWORD PTR _list$[ebp]
  00130	c6 45 fc 01	 mov	 BYTE PTR __$EHRec$[ebp+8], 1
  00134	50		 push	 eax
  00135	8b ce		 mov	 ecx, esi
  00137	e8 00 00 00 00	 call	 ?AddTail@CStringList@@QAEXPAV1@@Z ; CStringList::AddTail

; 53   : 		m_listdata.SetAt(iSubItem, list);

  0013c	56		 push	 esi
  0013d	6a 02		 push	 2
  0013f	8d 4f 44	 lea	 ecx, DWORD PTR [edi+68]
  00142	e8 00 00 00 00	 call	 ?SetAt@?$CMap@HHPAVCStringList@@PAV1@@@QAEXHPAVCStringList@@@Z ; CMap<int,int,CStringList *,CStringList *>::SetAt
; File D:\git\src\IBK\IBK_DRFN\ProjSrc\SrcChartEx\ChartAddIn\ChartDesignPropertyAddIn\ChartDesignPropertyAddIn\PacketSuperGrid.cpp

; 562  : }

  00147	8d 4d d8	 lea	 ecx, DWORD PTR _list$[ebp]
  0014a	e8 00 00 00 00	 call	 ??1CStringList@@UAE@XZ	; CStringList::~CStringList
  0014f	8b 4d f4	 mov	 ecx, DWORD PTR __$EHRec$[ebp]
  00152	64 89 0d 00 00
	00 00		 mov	 DWORD PTR fs:0, ecx
  00159	59		 pop	 ecx
  0015a	5f		 pop	 edi
  0015b	5e		 pop	 esi
  0015c	5b		 pop	 ebx
  0015d	8b e5		 mov	 esp, ebp
  0015f	5d		 pop	 ebp
  00160	c2 08 00	 ret	 8
_TEXT	ENDS
;	COMDAT text$x
text$x	SEGMENT
__unwindfunclet$?SetThirdSTOCKMULTIPLEItem@CPacketSuperGrid@@AAEXABV?$CStringT@DV?$StrTraitMFC_DLL@DV?$ChTraitsCRT@D@ATL@@@@@ATL@@PAVCItemInfo@@@Z$0:
  00000	8d 4d 08	 lea	 ecx, DWORD PTR $T3[ebp]
  00003	ff 25 00 00 00
	00		 jmp	 DWORD PTR __imp_??1?$CStringT@DV?$StrTraitMFC_DLL@DV?$ChTraitsCRT@D@ATL@@@@@ATL@@QAE@XZ
__unwindfunclet$?SetThirdSTOCKMULTIPLEItem@CPacketSuperGrid@@AAEXABV?$CStringT@DV?$StrTraitMFC_DLL@DV?$ChTraitsCRT@D@ATL@@@@@ATL@@PAVCItemInfo@@@Z$1:
  00009	8d 4d d8	 lea	 ecx, DWORD PTR _list$[ebp]
  0000c	e9 00 00 00 00	 jmp	 ??1CStringList@@UAE@XZ	; CStringList::~CStringList
__unwindfunclet$?SetThirdSTOCKMULTIPLEItem@CPacketSuperGrid@@AAEXABV?$CStringT@DV?$StrTraitMFC_DLL@DV?$ChTraitsCRT@D@ATL@@@@@ATL@@PAVCItemInfo@@@Z$2:
  00011	8b 45 08	 mov	 eax, DWORD PTR $T2[ebp]
  00014	50		 push	 eax
  00015	e8 00 00 00 00	 call	 ??3CObject@@SGXPAX@Z	; CObject::operator delete
  0001a	c3		 ret	 0
  0001b	cc		 int	 3
  0001c	cc		 int	 3
  0001d	cc		 int	 3
  0001e	cc		 int	 3
  0001f	cc		 int	 3
__ehhandler$?SetThirdSTOCKMULTIPLEItem@CPacketSuperGrid@@AAEXABV?$CStringT@DV?$StrTraitMFC_DLL@DV?$ChTraitsCRT@D@ATL@@@@@ATL@@PAVCItemInfo@@@Z:
  00020	90		 npad	 1
  00021	90		 npad	 1
  00022	8b 54 24 08	 mov	 edx, DWORD PTR [esp+8]
  00026	8d 42 0c	 lea	 eax, DWORD PTR [edx+12]
  00029	8b 4a d4	 mov	 ecx, DWORD PTR [edx-44]
  0002c	33 c8		 xor	 ecx, eax
  0002e	e8 00 00 00 00	 call	 @__security_check_cookie@4
  00033	b8 00 00 00 00	 mov	 eax, OFFSET __ehfuncinfo$?SetThirdSTOCKMULTIPLEItem@CPacketSuperGrid@@AAEXABV?$CStringT@DV?$StrTraitMFC_DLL@DV?$ChTraitsCRT@D@ATL@@@@@ATL@@PAVCItemInfo@@@Z
  00038	e9 00 00 00 00	 jmp	 ___CxxFrameHandler3
text$x	ENDS
?SetThirdSTOCKMULTIPLEItem@CPacketSuperGrid@@AAEXABV?$CStringT@DV?$StrTraitMFC_DLL@DV?$ChTraitsCRT@D@ATL@@@@@ATL@@PAVCItemInfo@@@Z ENDP ; CPacketSuperGrid::SetThirdSTOCKMULTIPLEItem
; Function compile flags: /Ogtp
; File D:\git\src\IBK\IBK_DRFN\ProjSrc\SrcChartEx\ChartAddIn\ChartDesignPropertyAddIn\ChartDesignPropertyAddIn\PacketSuperGrid.cpp
; File C:\Program Files (x86)\Microsoft Visual Studio\2019\Community\VC\Tools\MSVC\14.29.30133\atlmfc\include\atlsimpstr.h
; File D:\git\src\IBK\IBK_DRFN\ProjSrc\SrcChartEx\ChartAddIn\ChartDesignPropertyAddIn\ChartDesignPropertyAddIn\PacketSuperGrid.cpp
; File C:\Program Files (x86)\Microsoft Visual Studio\2019\Community\VC\Tools\MSVC\14.29.30133\atlmfc\include\afxcoll.inl
; File D:\git\src\IBK\IBK_DRFN\ProjSrc\SrcChartEx\ChartAddIn\ChartDesignPropertyAddIn\ChartDesignPropertyAddIn\PacketSuperGrid.cpp
; File C:\Program Files (x86)\Microsoft Visual Studio\2019\Community\VC\Tools\MSVC\14.29.30133\atlmfc\include\afxcoll.inl
; File D:\git\src\IBK\IBK_DRFN\ProjSrc\SrcChartEx\ChartAddIn\ChartDesignPropertyAddIn\ChartDesignPropertyAddIn\PacketSuperGrid.cpp
; File C:\Program Files (x86)\Microsoft Visual Studio\2019\Community\VC\Tools\MSVC\14.29.30133\atlmfc\include\afxcoll.inl
; File D:\git\src\IBK\IBK_DRFN\ProjSrc\SrcChartEx\ChartAddIn\ChartDesignPropertyAddIn\ChartDesignPropertyAddIn\SuperGridCtrl.h
; File D:\git\src\IBK\IBK_DRFN\ProjSrc\SrcChartEx\ChartAddIn\ChartDesignPropertyAddIn\ChartDesignPropertyAddIn\PacketSuperGrid.cpp
; File D:\git\src\IBK\IBK_DRFN\ProjSrc\SrcChartEx\ChartAddIn\ChartDesignPropertyAddIn\ChartDesignPropertyAddIn\SuperGridCtrl.h
; File D:\git\src\IBK\IBK_DRFN\ProjSrc\SrcChartEx\ChartAddIn\ChartDesignPropertyAddIn\ChartDesignPropertyAddIn\PacketSuperGrid.cpp
; File C:\Program Files (x86)\Microsoft Visual Studio\2019\Community\VC\Tools\MSVC\14.29.30133\atlmfc\include\afx.inl
; File D:\git\src\IBK\IBK_DRFN\ProjSrc\SrcChartEx\ChartAddIn\ChartDesignPropertyAddIn\ChartDesignPropertyAddIn\SuperGridCtrl.h
; File D:\git\src\IBK\IBK_DRFN\ProjSrc\SrcChartEx\ChartAddIn\ChartDesignPropertyAddIn\ChartDesignPropertyAddIn\PacketSuperGrid.cpp
;	COMDAT ?SetThirdEXCHANGERATEItem@CPacketSuperGrid@@AAEXABV?$CStringT@DV?$StrTraitMFC_DLL@DV?$ChTraitsCRT@D@ATL@@@@@ATL@@PAVCItemInfo@@@Z
_TEXT	SEGMENT
_list$ = -40						; size = 28
__$EHRec$ = -12						; size = 12
$T2 = 8							; size = 4
_enumCtrlType$ = 8					; size = 4
$T3 = 8							; size = 4
_szDefaultItemofCombo$ = 8				; size = 4
_lpItemInfo$ = 12					; size = 4
?SetThirdEXCHANGERATEItem@CPacketSuperGrid@@AAEXABV?$CStringT@DV?$StrTraitMFC_DLL@DV?$ChTraitsCRT@D@ATL@@@@@ATL@@PAVCItemInfo@@@Z PROC ; CPacketSuperGrid::SetThirdEXCHANGERATEItem, COMDAT
; _this$ = ecx

; 565  : {

  00000	55		 push	 ebp
  00001	8b ec		 mov	 ebp, esp
  00003	6a ff		 push	 -1
  00005	68 00 00 00 00	 push	 __ehhandler$?SetThirdEXCHANGERATEItem@CPacketSuperGrid@@AAEXABV?$CStringT@DV?$StrTraitMFC_DLL@DV?$ChTraitsCRT@D@ATL@@@@@ATL@@PAVCItemInfo@@@Z
  0000a	64 a1 00 00 00
	00		 mov	 eax, DWORD PTR fs:0
  00010	50		 push	 eax
  00011	83 ec 1c	 sub	 esp, 28			; 0000001cH
  00014	56		 push	 esi
  00015	57		 push	 edi
  00016	a1 00 00 00 00	 mov	 eax, DWORD PTR ___security_cookie
  0001b	33 c5		 xor	 eax, ebp
  0001d	50		 push	 eax
  0001e	8d 45 f4	 lea	 eax, DWORD PTR __$EHRec$[ebp]
  00021	64 a3 00 00 00
	00		 mov	 DWORD PTR fs:0, eax
; File C:\Program Files (x86)\Microsoft Visual Studio\2019\Community\VC\Tools\MSVC\14.29.30133\atlmfc\include\atlsimpstr.h

; 519  : 		return( GetData()->nDataLength );

  00027	8b 4d 08	 mov	 ecx, DWORD PTR _szDefaultItemofCombo$[ebp]
  0002a	8b 7d 0c	 mov	 edi, DWORD PTR _lpItemInfo$[ebp]
  0002d	8b 01		 mov	 eax, DWORD PTR [ecx]
; File D:\git\src\IBK\IBK_DRFN\ProjSrc\SrcChartEx\ChartAddIn\ChartDesignPropertyAddIn\ChartDesignPropertyAddIn\PacketSuperGrid.cpp

; 566  : 	if(szDefaultItemofCombo.GetLength() == 0)

  0002f	83 78 f4 00	 cmp	 DWORD PTR [eax-12], 0
  00033	75 36		 jne	 SHORT $LN2@SetThirdEX

; 567  : 		lpItemInfo->AddSubItemText(_T("$"));      // 2 zero based subitems..

  00035	68 00 00 00 00	 push	 OFFSET ??_C@_01EPMOAMKG@$@
  0003a	8d 4d 08	 lea	 ecx, DWORD PTR $T3[ebp]
  0003d	ff 15 00 00 00
	00		 call	 DWORD PTR __imp_??0?$CStringT@DV?$StrTraitMFC_DLL@DV?$ChTraitsCRT@D@ATL@@@@@ATL@@QAE@PBD@Z
; File C:\Program Files (x86)\Microsoft Visual Studio\2019\Community\VC\Tools\MSVC\14.29.30133\atlmfc\include\afxcoll.inl

; 321  : 		SetAtGrow(nIndex, newElement);

  00043	8d 45 08	 lea	 eax, DWORD PTR $T3[ebp]
; File D:\git\src\IBK\IBK_DRFN\ProjSrc\SrcChartEx\ChartAddIn\ChartDesignPropertyAddIn\ChartDesignPropertyAddIn\PacketSuperGrid.cpp

; 567  : 		lpItemInfo->AddSubItemText(_T("$"));      // 2 zero based subitems..

  00046	c7 45 fc 00 00
	00 00		 mov	 DWORD PTR __$EHRec$[ebp+8], 0
; File C:\Program Files (x86)\Microsoft Visual Studio\2019\Community\VC\Tools\MSVC\14.29.30133\atlmfc\include\afxcoll.inl

; 321  : 		SetAtGrow(nIndex, newElement);

  0004d	50		 push	 eax
  0004e	ff 77 6c	 push	 DWORD PTR [edi+108]
  00051	8d 4f 64	 lea	 ecx, DWORD PTR [edi+100]
  00054	e8 00 00 00 00	 call	 ?SetAtGrow@CStringArray@@QAEXHABV?$CStringT@DV?$StrTraitMFC_DLL@DV?$ChTraitsCRT@D@ATL@@@@@ATL@@@Z ; CStringArray::SetAtGrow
; File D:\git\src\IBK\IBK_DRFN\ProjSrc\SrcChartEx\ChartAddIn\ChartDesignPropertyAddIn\ChartDesignPropertyAddIn\PacketSuperGrid.cpp

; 567  : 		lpItemInfo->AddSubItemText(_T("$"));      // 2 zero based subitems..

  00059	8d 4d 08	 lea	 ecx, DWORD PTR $T3[ebp]
  0005c	c7 45 fc ff ff
	ff ff		 mov	 DWORD PTR __$EHRec$[ebp+8], -1
  00063	ff 15 00 00 00
	00		 call	 DWORD PTR __imp_??1?$CStringT@DV?$StrTraitMFC_DLL@DV?$ChTraitsCRT@D@ATL@@@@@ATL@@QAE@XZ
  00069	eb 0c		 jmp	 SHORT $LN3@SetThirdEX
$LN2@SetThirdEX:
; File C:\Program Files (x86)\Microsoft Visual Studio\2019\Community\VC\Tools\MSVC\14.29.30133\atlmfc\include\afxcoll.inl

; 321  : 		SetAtGrow(nIndex, newElement);

  0006b	51		 push	 ecx
  0006c	ff 77 6c	 push	 DWORD PTR [edi+108]
  0006f	8d 4f 64	 lea	 ecx, DWORD PTR [edi+100]
  00072	e8 00 00 00 00	 call	 ?SetAtGrow@CStringArray@@QAEXHABV?$CStringT@DV?$StrTraitMFC_DLL@DV?$ChTraitsCRT@D@ATL@@@@@ATL@@@Z ; CStringArray::SetAtGrow
$LN3@SetThirdEX:
; File D:\git\src\IBK\IBK_DRFN\ProjSrc\SrcChartEx\ChartAddIn\ChartDesignPropertyAddIn\ChartDesignPropertyAddIn\SuperGridCtrl.h

; 36   : 	void SetControlType(CONTROLTYPE enumCtrlType, int nCol=-1){ m_controlType.SetAt(nCol, enumCtrlType); }

  00077	8d 45 08	 lea	 eax, DWORD PTR _enumCtrlType$[ebp]
; File D:\git\src\IBK\IBK_DRFN\ProjSrc\SrcChartEx\ChartAddIn\ChartDesignPropertyAddIn\ChartDesignPropertyAddIn\PacketSuperGrid.cpp

; 571  : 	lpItemInfo->SetControlType(lpItemInfo->CONTROLTYPE::combobox, 2);

  0007a	c7 45 08 01 00
	00 00		 mov	 DWORD PTR _enumCtrlType$[ebp], 1
; File D:\git\src\IBK\IBK_DRFN\ProjSrc\SrcChartEx\ChartAddIn\ChartDesignPropertyAddIn\ChartDesignPropertyAddIn\SuperGridCtrl.h

; 36   : 	void SetControlType(CONTROLTYPE enumCtrlType, int nCol=-1){ m_controlType.SetAt(nCol, enumCtrlType); }

  00081	50		 push	 eax
  00082	6a 02		 push	 2
  00084	8d 4f 0c	 lea	 ecx, DWORD PTR [edi+12]
  00087	e8 00 00 00 00	 call	 ?SetAt@?$CMap@HHW4CONTROLTYPE@CItemInfo@@AAW412@@@QAEXHAAW4CONTROLTYPE@CItemInfo@@@Z ; CMap<int,int,enum CItemInfo::CONTROLTYPE,enum CItemInfo::CONTROLTYPE &>::SetAt
; File D:\git\src\IBK\IBK_DRFN\ProjSrc\SrcChartEx\ChartAddIn\ChartDesignPropertyAddIn\ChartDesignPropertyAddIn\PacketSuperGrid.cpp

; 572  : 	CStringList list;

  0008c	6a 0a		 push	 10			; 0000000aH
  0008e	8d 4d d8	 lea	 ecx, DWORD PTR _list$[ebp]
  00091	e8 00 00 00 00	 call	 ??0CStringList@@QAE@H@Z	; CStringList::CStringList

; 573  : 	//initalized list for the edit
; 574  : 	list.AddTail("$");

  00096	68 00 00 00 00	 push	 OFFSET ??_C@_01EPMOAMKG@$@
  0009b	8d 4d d8	 lea	 ecx, DWORD PTR _list$[ebp]
  0009e	c7 45 fc 01 00
	00 00		 mov	 DWORD PTR __$EHRec$[ebp+8], 1
  000a5	e8 00 00 00 00	 call	 ?AddTail@CStringList@@QAEPAU__POSITION@@PBD@Z ; CStringList::AddTail

; 575  : 	list.AddTail("");

  000aa	68 00 00 00 00	 push	 OFFSET ??_C@_02KGFALILJ@?$KB?M@
  000af	8d 4d d8	 lea	 ecx, DWORD PTR _list$[ebp]
  000b2	e8 00 00 00 00	 call	 ?AddTail@CStringList@@QAEPAU__POSITION@@PBD@Z ; CStringList::AddTail

; 576  : 	list.AddTail("");

  000b7	68 00 00 00 00	 push	 OFFSET ??_C@_02LPELIJPI@?$KB?L@
  000bc	8d 4d d8	 lea	 ecx, DWORD PTR _list$[ebp]
  000bf	e8 00 00 00 00	 call	 ?AddTail@CStringList@@QAEPAU__POSITION@@PBD@Z ; CStringList::AddTail

; 577  : 	list.AddTail("");

  000c4	68 00 00 00 00	 push	 OFFSET ??_C@_00CNPNBAHC@@
  000c9	8d 4d d8	 lea	 ecx, DWORD PTR _list$[ebp]
  000cc	e8 00 00 00 00	 call	 ?AddTail@CStringList@@QAEPAU__POSITION@@PBD@Z ; CStringList::AddTail

; 578  : 	list.AddTail("");

  000d1	68 00 00 00 00	 push	 OFFSET ??_C@_00CNPNBAHC@@
  000d6	8d 4d d8	 lea	 ecx, DWORD PTR _list$[ebp]
  000d9	e8 00 00 00 00	 call	 ?AddTail@CStringList@@QAEPAU__POSITION@@PBD@Z ; CStringList::AddTail
; File C:\Program Files (x86)\Microsoft Visual Studio\2019\Community\VC\Tools\MSVC\14.29.30133\atlmfc\include\afx.inl

; 116  : 	{ return ::operator new(nSize); }

  000de	6a 1c		 push	 28			; 0000001cH
  000e0	e8 00 00 00 00	 call	 ??2@YAPAXI@Z		; operator new
  000e5	83 c4 04	 add	 esp, 4
; File D:\git\src\IBK\IBK_DRFN\ProjSrc\SrcChartEx\ChartAddIn\ChartDesignPropertyAddIn\ChartDesignPropertyAddIn\SuperGridCtrl.h

; 51   : 		list = new CStringList;//will be deleted in destructor

  000e8	89 45 08	 mov	 DWORD PTR $T2[ebp], eax
  000eb	c6 45 fc 02	 mov	 BYTE PTR __$EHRec$[ebp+8], 2
  000ef	85 c0		 test	 eax, eax
  000f1	74 0d		 je	 SHORT $LN23@SetThirdEX
  000f3	6a 0a		 push	 10			; 0000000aH
  000f5	8b c8		 mov	 ecx, eax
  000f7	e8 00 00 00 00	 call	 ??0CStringList@@QAE@H@Z	; CStringList::CStringList
  000fc	8b f0		 mov	 esi, eax
  000fe	eb 02		 jmp	 SHORT $LN24@SetThirdEX
$LN23@SetThirdEX:
  00100	33 f6		 xor	 esi, esi
$LN24@SetThirdEX:

; 52   : 		list->AddTail(strInitArr);

  00102	8d 45 d8	 lea	 eax, DWORD PTR _list$[ebp]
  00105	c6 45 fc 01	 mov	 BYTE PTR __$EHRec$[ebp+8], 1
  00109	50		 push	 eax
  0010a	8b ce		 mov	 ecx, esi
  0010c	e8 00 00 00 00	 call	 ?AddTail@CStringList@@QAEXPAV1@@Z ; CStringList::AddTail

; 53   : 		m_listdata.SetAt(iSubItem, list);

  00111	56		 push	 esi
  00112	6a 02		 push	 2
  00114	8d 4f 44	 lea	 ecx, DWORD PTR [edi+68]
  00117	e8 00 00 00 00	 call	 ?SetAt@?$CMap@HHPAVCStringList@@PAV1@@@QAEXHPAVCStringList@@@Z ; CMap<int,int,CStringList *,CStringList *>::SetAt
; File D:\git\src\IBK\IBK_DRFN\ProjSrc\SrcChartEx\ChartAddIn\ChartDesignPropertyAddIn\ChartDesignPropertyAddIn\PacketSuperGrid.cpp

; 580  : }

  0011c	8d 4d d8	 lea	 ecx, DWORD PTR _list$[ebp]
  0011f	e8 00 00 00 00	 call	 ??1CStringList@@UAE@XZ	; CStringList::~CStringList
  00124	8b 4d f4	 mov	 ecx, DWORD PTR __$EHRec$[ebp]
  00127	64 89 0d 00 00
	00 00		 mov	 DWORD PTR fs:0, ecx
  0012e	59		 pop	 ecx
  0012f	5f		 pop	 edi
  00130	5e		 pop	 esi
  00131	8b e5		 mov	 esp, ebp
  00133	5d		 pop	 ebp
  00134	c2 08 00	 ret	 8
_TEXT	ENDS
;	COMDAT text$x
text$x	SEGMENT
__unwindfunclet$?SetThirdEXCHANGERATEItem@CPacketSuperGrid@@AAEXABV?$CStringT@DV?$StrTraitMFC_DLL@DV?$ChTraitsCRT@D@ATL@@@@@ATL@@PAVCItemInfo@@@Z$0:
  00000	8d 4d 08	 lea	 ecx, DWORD PTR $T3[ebp]
  00003	ff 25 00 00 00
	00		 jmp	 DWORD PTR __imp_??1?$CStringT@DV?$StrTraitMFC_DLL@DV?$ChTraitsCRT@D@ATL@@@@@ATL@@QAE@XZ
__unwindfunclet$?SetThirdEXCHANGERATEItem@CPacketSuperGrid@@AAEXABV?$CStringT@DV?$StrTraitMFC_DLL@DV?$ChTraitsCRT@D@ATL@@@@@ATL@@PAVCItemInfo@@@Z$1:
  00009	8d 4d d8	 lea	 ecx, DWORD PTR _list$[ebp]
  0000c	e9 00 00 00 00	 jmp	 ??1CStringList@@UAE@XZ	; CStringList::~CStringList
__unwindfunclet$?SetThirdEXCHANGERATEItem@CPacketSuperGrid@@AAEXABV?$CStringT@DV?$StrTraitMFC_DLL@DV?$ChTraitsCRT@D@ATL@@@@@ATL@@PAVCItemInfo@@@Z$2:
  00011	8b 45 08	 mov	 eax, DWORD PTR $T2[ebp]
  00014	50		 push	 eax
  00015	e8 00 00 00 00	 call	 ??3CObject@@SGXPAX@Z	; CObject::operator delete
  0001a	c3		 ret	 0
  0001b	cc		 int	 3
  0001c	cc		 int	 3
  0001d	cc		 int	 3
  0001e	cc		 int	 3
  0001f	cc		 int	 3
__ehhandler$?SetThirdEXCHANGERATEItem@CPacketSuperGrid@@AAEXABV?$CStringT@DV?$StrTraitMFC_DLL@DV?$ChTraitsCRT@D@ATL@@@@@ATL@@PAVCItemInfo@@@Z:
  00020	90		 npad	 1
  00021	90		 npad	 1
  00022	8b 54 24 08	 mov	 edx, DWORD PTR [esp+8]
  00026	8d 42 0c	 lea	 eax, DWORD PTR [edx+12]
  00029	8b 4a d8	 mov	 ecx, DWORD PTR [edx-40]
  0002c	33 c8		 xor	 ecx, eax
  0002e	e8 00 00 00 00	 call	 @__security_check_cookie@4
  00033	b8 00 00 00 00	 mov	 eax, OFFSET __ehfuncinfo$?SetThirdEXCHANGERATEItem@CPacketSuperGrid@@AAEXABV?$CStringT@DV?$StrTraitMFC_DLL@DV?$ChTraitsCRT@D@ATL@@@@@ATL@@PAVCItemInfo@@@Z
  00038	e9 00 00 00 00	 jmp	 ___CxxFrameHandler3
text$x	ENDS
?SetThirdEXCHANGERATEItem@CPacketSuperGrid@@AAEXABV?$CStringT@DV?$StrTraitMFC_DLL@DV?$ChTraitsCRT@D@ATL@@@@@ATL@@PAVCItemInfo@@@Z ENDP ; CPacketSuperGrid::SetThirdEXCHANGERATEItem
; Function compile flags: /Ogtp
; File D:\git\src\IBK\IBK_DRFN\ProjSrc\SrcChartEx\ChartAddIn\ChartDesignPropertyAddIn\ChartDesignPropertyAddIn\PacketSuperGrid.cpp
; File C:\Program Files (x86)\Microsoft Visual Studio\2019\Community\VC\Tools\MSVC\14.29.30133\atlmfc\include\atlsimpstr.h
; File D:\git\src\IBK\IBK_DRFN\ProjSrc\SrcChartEx\ChartAddIn\ChartDesignPropertyAddIn\ChartDesignPropertyAddIn\PacketSuperGrid.cpp
; File C:\Program Files (x86)\Microsoft Visual Studio\2019\Community\VC\Tools\MSVC\14.29.30133\atlmfc\include\atlsimpstr.h
; File D:\git\src\IBK\IBK_DRFN\ProjSrc\SrcChartEx\ChartAddIn\ChartDesignPropertyAddIn\ChartDesignPropertyAddIn\PacketSuperGrid.cpp
; File C:\Program Files (x86)\Microsoft Visual Studio\2019\Community\VC\Tools\MSVC\14.29.30133\atlmfc\include\afxcoll.inl
; File D:\git\src\IBK\IBK_DRFN\ProjSrc\SrcChartEx\ChartAddIn\ChartDesignPropertyAddIn\ChartDesignPropertyAddIn\PacketSuperGrid.cpp
; File C:\Program Files (x86)\Microsoft Visual Studio\2019\Community\VC\Tools\MSVC\14.29.30133\atlmfc\include\afxcoll.inl
; File D:\git\src\IBK\IBK_DRFN\ProjSrc\SrcChartEx\ChartAddIn\ChartDesignPropertyAddIn\ChartDesignPropertyAddIn\PacketSuperGrid.cpp
; File C:\Program Files (x86)\Microsoft Visual Studio\2019\Community\VC\Tools\MSVC\14.29.30133\atlmfc\include\afxcoll.inl
; File D:\git\src\IBK\IBK_DRFN\ProjSrc\SrcChartEx\ChartAddIn\ChartDesignPropertyAddIn\ChartDesignPropertyAddIn\SuperGridCtrl.h
; File D:\git\src\IBK\IBK_DRFN\ProjSrc\SrcChartEx\ChartAddIn\ChartDesignPropertyAddIn\ChartDesignPropertyAddIn\PacketSuperGrid.cpp
; File D:\git\src\IBK\IBK_DRFN\ProjSrc\SrcChartEx\ChartAddIn\ChartDesignPropertyAddIn\ChartDesignPropertyAddIn\SuperGridCtrl.h
; File D:\git\src\IBK\IBK_DRFN\ProjSrc\SrcChartEx\ChartAddIn\ChartDesignPropertyAddIn\ChartDesignPropertyAddIn\PacketSuperGrid.cpp
; File C:\Program Files (x86)\Microsoft Visual Studio\2019\Community\VC\Tools\MSVC\14.29.30133\atlmfc\include\afx.inl
; File D:\git\src\IBK\IBK_DRFN\ProjSrc\SrcChartEx\ChartAddIn\ChartDesignPropertyAddIn\ChartDesignPropertyAddIn\SuperGridCtrl.h
; File D:\git\src\IBK\IBK_DRFN\ProjSrc\SrcChartEx\ChartAddIn\ChartDesignPropertyAddIn\ChartDesignPropertyAddIn\PacketSuperGrid.cpp
; File C:\Program Files (x86)\Microsoft Visual Studio\2019\Community\VC\Tools\MSVC\14.29.30133\atlmfc\include\atlsimpstr.h
; File D:\git\src\IBK\IBK_DRFN\ProjSrc\SrcChartEx\ChartAddIn\ChartDesignPropertyAddIn\ChartDesignPropertyAddIn\PacketSuperGrid.cpp
; File C:\Program Files (x86)\Microsoft Visual Studio\2019\Community\VC\Tools\MSVC\14.29.30133\atlmfc\include\atlsimpstr.h
; File D:\git\src\IBK\IBK_DRFN\ProjSrc\SrcChartEx\ChartAddIn\ChartDesignPropertyAddIn\ChartDesignPropertyAddIn\PacketSuperGrid.cpp
; File C:\Program Files (x86)\Microsoft Visual Studio\2019\Community\VC\Tools\MSVC\14.29.30133\atlmfc\include\afxcoll.inl
; File D:\git\src\IBK\IBK_DRFN\ProjSrc\SrcChartEx\ChartAddIn\ChartDesignPropertyAddIn\ChartDesignPropertyAddIn\PacketSuperGrid.cpp
; File C:\Program Files (x86)\Microsoft Visual Studio\2019\Community\VC\Tools\MSVC\14.29.30133\atlmfc\include\afxcoll.inl
; File D:\git\src\IBK\IBK_DRFN\ProjSrc\SrcChartEx\ChartAddIn\ChartDesignPropertyAddIn\ChartDesignPropertyAddIn\PacketSuperGrid.cpp
; File C:\Program Files (x86)\Microsoft Visual Studio\2019\Community\VC\Tools\MSVC\14.29.30133\atlmfc\include\afxcoll.inl
; File D:\git\src\IBK\IBK_DRFN\ProjSrc\SrcChartEx\ChartAddIn\ChartDesignPropertyAddIn\ChartDesignPropertyAddIn\SuperGridCtrl.h
; File D:\git\src\IBK\IBK_DRFN\ProjSrc\SrcChartEx\ChartAddIn\ChartDesignPropertyAddIn\ChartDesignPropertyAddIn\PacketSuperGrid.cpp
; File D:\git\src\IBK\IBK_DRFN\ProjSrc\SrcChartEx\ChartAddIn\ChartDesignPropertyAddIn\ChartDesignPropertyAddIn\SuperGridCtrl.h
; File D:\git\src\IBK\IBK_DRFN\ProjSrc\SrcChartEx\ChartAddIn\ChartDesignPropertyAddIn\ChartDesignPropertyAddIn\PacketSuperGrid.cpp
; File C:\Program Files (x86)\Microsoft Visual Studio\2019\Community\VC\Tools\MSVC\14.29.30133\atlmfc\include\afx.inl
; File D:\git\src\IBK\IBK_DRFN\ProjSrc\SrcChartEx\ChartAddIn\ChartDesignPropertyAddIn\ChartDesignPropertyAddIn\SuperGridCtrl.h
; File D:\git\src\IBK\IBK_DRFN\ProjSrc\SrcChartEx\ChartAddIn\ChartDesignPropertyAddIn\ChartDesignPropertyAddIn\PacketSuperGrid.cpp
; File C:\Program Files (x86)\Microsoft Visual Studio\2019\Community\VC\Tools\MSVC\14.29.30133\atlmfc\include\atlsimpstr.h
; File D:\git\src\IBK\IBK_DRFN\ProjSrc\SrcChartEx\ChartAddIn\ChartDesignPropertyAddIn\ChartDesignPropertyAddIn\PacketSuperGrid.cpp
; File C:\Program Files (x86)\Microsoft Visual Studio\2019\Community\VC\Tools\MSVC\14.29.30133\atlmfc\include\afxcoll.inl
; File D:\git\src\IBK\IBK_DRFN\ProjSrc\SrcChartEx\ChartAddIn\ChartDesignPropertyAddIn\ChartDesignPropertyAddIn\PacketSuperGrid.cpp
; File C:\Program Files (x86)\Microsoft Visual Studio\2019\Community\VC\Tools\MSVC\14.29.30133\atlmfc\include\afxcoll.inl
; File D:\git\src\IBK\IBK_DRFN\ProjSrc\SrcChartEx\ChartAddIn\ChartDesignPropertyAddIn\ChartDesignPropertyAddIn\PacketSuperGrid.cpp
; File C:\Program Files (x86)\Microsoft Visual Studio\2019\Community\VC\Tools\MSVC\14.29.30133\atlmfc\include\afxcoll.inl
; File D:\git\src\IBK\IBK_DRFN\ProjSrc\SrcChartEx\ChartAddIn\ChartDesignPropertyAddIn\ChartDesignPropertyAddIn\SuperGridCtrl.h
; File D:\git\src\IBK\IBK_DRFN\ProjSrc\SrcChartEx\ChartAddIn\ChartDesignPropertyAddIn\ChartDesignPropertyAddIn\PacketSuperGrid.cpp
; File D:\git\src\IBK\IBK_DRFN\ProjSrc\SrcChartEx\ChartAddIn\ChartDesignPropertyAddIn\ChartDesignPropertyAddIn\SuperGridCtrl.h
; File D:\git\src\IBK\IBK_DRFN\ProjSrc\SrcChartEx\ChartAddIn\ChartDesignPropertyAddIn\ChartDesignPropertyAddIn\PacketSuperGrid.cpp
; File C:\Program Files (x86)\Microsoft Visual Studio\2019\Community\VC\Tools\MSVC\14.29.30133\atlmfc\include\afx.inl
; File D:\git\src\IBK\IBK_DRFN\ProjSrc\SrcChartEx\ChartAddIn\ChartDesignPropertyAddIn\ChartDesignPropertyAddIn\SuperGridCtrl.h
; File D:\git\src\IBK\IBK_DRFN\ProjSrc\SrcChartEx\ChartAddIn\ChartDesignPropertyAddIn\ChartDesignPropertyAddIn\PacketSuperGrid.cpp
; File D:\git\src\IBK\IBK_DRFN\ProjSrc\SrcChartEx\ChartAddIn\ChartDesignPropertyAddIn\ChartDesignPropertyAddIn\SuperGridCtrl.h
; File D:\git\src\IBK\IBK_DRFN\ProjSrc\SrcChartEx\ChartAddIn\ChartDesignPropertyAddIn\ChartDesignPropertyAddIn\PacketSuperGrid.cpp
; File C:\Program Files (x86)\Microsoft Visual Studio\2019\Community\VC\Tools\MSVC\14.29.30133\atlmfc\include\atlsimpstr.h
; File D:\git\src\IBK\IBK_DRFN\ProjSrc\SrcChartEx\ChartAddIn\ChartDesignPropertyAddIn\ChartDesignPropertyAddIn\PacketSuperGrid.cpp
; File C:\Program Files (x86)\Microsoft Visual Studio\2019\Community\VC\Tools\MSVC\14.29.30133\atlmfc\include\afxcoll.inl
; File D:\git\src\IBK\IBK_DRFN\ProjSrc\SrcChartEx\ChartAddIn\ChartDesignPropertyAddIn\ChartDesignPropertyAddIn\PacketSuperGrid.cpp
; File C:\Program Files (x86)\Microsoft Visual Studio\2019\Community\VC\Tools\MSVC\14.29.30133\atlmfc\include\afxcoll.inl
; File D:\git\src\IBK\IBK_DRFN\ProjSrc\SrcChartEx\ChartAddIn\ChartDesignPropertyAddIn\ChartDesignPropertyAddIn\PacketSuperGrid.cpp
; File C:\Program Files (x86)\Microsoft Visual Studio\2019\Community\VC\Tools\MSVC\14.29.30133\atlmfc\include\afxcoll.inl
; File D:\git\src\IBK\IBK_DRFN\ProjSrc\SrcChartEx\ChartAddIn\ChartDesignPropertyAddIn\ChartDesignPropertyAddIn\PacketSuperGrid.cpp
; File C:\Program Files (x86)\Microsoft Visual Studio\2019\Community\VC\Tools\MSVC\14.29.30133\atlmfc\include\atlsimpstr.h
; File D:\git\src\IBK\IBK_DRFN\ProjSrc\SrcChartEx\ChartAddIn\ChartDesignPropertyAddIn\ChartDesignPropertyAddIn\PacketSuperGrid.cpp
; File C:\Program Files (x86)\Microsoft Visual Studio\2019\Community\VC\Tools\MSVC\14.29.30133\atlmfc\include\afxcoll.inl
; File D:\git\src\IBK\IBK_DRFN\ProjSrc\SrcChartEx\ChartAddIn\ChartDesignPropertyAddIn\ChartDesignPropertyAddIn\PacketSuperGrid.cpp
; File C:\Program Files (x86)\Microsoft Visual Studio\2019\Community\VC\Tools\MSVC\14.29.30133\atlmfc\include\afxcoll.inl
; File D:\git\src\IBK\IBK_DRFN\ProjSrc\SrcChartEx\ChartAddIn\ChartDesignPropertyAddIn\ChartDesignPropertyAddIn\PacketSuperGrid.cpp
; File C:\Program Files (x86)\Microsoft Visual Studio\2019\Community\VC\Tools\MSVC\14.29.30133\atlmfc\include\afxcoll.inl
; File D:\git\src\IBK\IBK_DRFN\ProjSrc\SrcChartEx\ChartAddIn\ChartDesignPropertyAddIn\ChartDesignPropertyAddIn\SuperGridCtrl.h
; File D:\git\src\IBK\IBK_DRFN\ProjSrc\SrcChartEx\ChartAddIn\ChartDesignPropertyAddIn\ChartDesignPropertyAddIn\PacketSuperGrid.cpp
; File D:\git\src\IBK\IBK_DRFN\ProjSrc\SrcChartEx\ChartAddIn\ChartDesignPropertyAddIn\ChartDesignPropertyAddIn\SuperGridCtrl.h
; File D:\git\src\IBK\IBK_DRFN\ProjSrc\SrcChartEx\ChartAddIn\ChartDesignPropertyAddIn\ChartDesignPropertyAddIn\PacketSuperGrid.cpp
; File C:\Program Files (x86)\Microsoft Visual Studio\2019\Community\VC\Tools\MSVC\14.29.30133\atlmfc\include\afx.inl
; File D:\git\src\IBK\IBK_DRFN\ProjSrc\SrcChartEx\ChartAddIn\ChartDesignPropertyAddIn\ChartDesignPropertyAddIn\SuperGridCtrl.h
; File D:\git\src\IBK\IBK_DRFN\ProjSrc\SrcChartEx\ChartAddIn\ChartDesignPropertyAddIn\ChartDesignPropertyAddIn\PacketSuperGrid.cpp
; File D:\git\src\IBK\IBK_DRFN\ProjSrc\SrcChartEx\ChartAddIn\ChartDesignPropertyAddIn\ChartDesignPropertyAddIn\SuperGridCtrl.h
; File D:\git\src\IBK\IBK_DRFN\ProjSrc\SrcChartEx\ChartAddIn\ChartDesignPropertyAddIn\ChartDesignPropertyAddIn\PacketSuperGrid.cpp
; File C:\Program Files (x86)\Microsoft Visual Studio\2019\Community\VC\Tools\MSVC\14.29.30133\atlmfc\include\afxcoll.inl
; File D:\git\src\IBK\IBK_DRFN\ProjSrc\SrcChartEx\ChartAddIn\ChartDesignPropertyAddIn\ChartDesignPropertyAddIn\PacketSuperGrid.cpp
; File C:\Program Files (x86)\Microsoft Visual Studio\2019\Community\VC\Tools\MSVC\14.29.30133\atlmfc\include\afxcoll.inl
; File D:\git\src\IBK\IBK_DRFN\ProjSrc\SrcChartEx\ChartAddIn\ChartDesignPropertyAddIn\ChartDesignPropertyAddIn\PacketSuperGrid.cpp
;	COMDAT ?SetThirdSubItem@CPacketSuperGrid@@AAEXHABV?$CStringT@DV?$StrTraitMFC_DLL@DV?$ChTraitsCRT@D@ATL@@@@@ATL@@0PAVCItemInfo@@@Z
_TEXT	SEGMENT
_list$2 = -68						; size = 28
_list$3 = -40						; size = 28
_list$4 = -40						; size = 28
_list$5 = -40						; size = 28
__$EHRec$ = -12						; size = 12
_nItemIndex$ = 8					; size = 4
_szDefaultItemofCombo$ = 12				; size = 4
_szPacketName$ = 16					; size = 4
$T6 = 20						; size = 4
_enumCtrlType$ = 20					; size = 4
$T7 = 20						; size = 4
_enumCtrlType$ = 20					; size = 4
$T8 = 20						; size = 4
$T9 = 20						; size = 4
_enumCtrlType$ = 20					; size = 4
$T10 = 20						; size = 4
$T11 = 20						; size = 4
_enumCtrlType$ = 20					; size = 4
$T12 = 20						; size = 4
$T13 = 20						; size = 4
$T14 = 20						; size = 4
_lpItemInfo$ = 20					; size = 4
?SetThirdSubItem@CPacketSuperGrid@@AAEXHABV?$CStringT@DV?$StrTraitMFC_DLL@DV?$ChTraitsCRT@D@ATL@@@@@ATL@@0PAVCItemInfo@@@Z PROC ; CPacketSuperGrid::SetThirdSubItem, COMDAT
; _this$ = ecx

; 596  : {

  00000	55		 push	 ebp
  00001	8b ec		 mov	 ebp, esp
  00003	6a ff		 push	 -1
  00005	68 00 00 00 00	 push	 __ehhandler$?SetThirdSubItem@CPacketSuperGrid@@AAEXHABV?$CStringT@DV?$StrTraitMFC_DLL@DV?$ChTraitsCRT@D@ATL@@@@@ATL@@0PAVCItemInfo@@@Z
  0000a	64 a1 00 00 00
	00		 mov	 eax, DWORD PTR fs:0
  00010	50		 push	 eax
  00011	83 ec 38	 sub	 esp, 56			; 00000038H
  00014	53		 push	 ebx
  00015	56		 push	 esi
  00016	57		 push	 edi
  00017	a1 00 00 00 00	 mov	 eax, DWORD PTR ___security_cookie
  0001c	33 c5		 xor	 eax, ebp
  0001e	50		 push	 eax
  0001f	8d 45 f4	 lea	 eax, DWORD PTR __$EHRec$[ebp]
  00022	64 a3 00 00 00
	00		 mov	 DWORD PTR fs:0, eax
  00028	8b d9		 mov	 ebx, ecx

; 436  : 	switch(nDataType)

  0002a	8b 45 08	 mov	 eax, DWORD PTR _nItemIndex$[ebp]
  0002d	83 f8 13	 cmp	 eax, 19			; 00000013H
  00030	0f 87 55 05 00
	00		 ja	 $LN8@SetThirdSu
  00036	0f b6 80 00 00
	00 00		 movzx	 eax, BYTE PTR $LN169@SetThirdSu[eax]
  0003d	ff 24 85 00 00
	00 00		 jmp	 DWORD PTR $LN170@SetThirdSu[eax*4]
$LN30@SetThirdSu:
; File C:\Program Files (x86)\Microsoft Visual Studio\2019\Community\VC\Tools\MSVC\14.29.30133\atlmfc\include\atlsimpstr.h

; 519  : 		return( GetData()->nDataLength );

  00044	8b 4d 0c	 mov	 ecx, DWORD PTR _szDefaultItemofCombo$[ebp]
; File D:\git\src\IBK\IBK_DRFN\ProjSrc\SrcChartEx\ChartAddIn\ChartDesignPropertyAddIn\ChartDesignPropertyAddIn\PacketSuperGrid.cpp

; 606  : 	else if(type == CPacketSuperGrid::STOCKMULTIPLE)

  00047	8b 7d 14	 mov	 edi, DWORD PTR _lpItemInfo$[ebp]
; File C:\Program Files (x86)\Microsoft Visual Studio\2019\Community\VC\Tools\MSVC\14.29.30133\atlmfc\include\atlsimpstr.h

; 519  : 		return( GetData()->nDataLength );

  0004a	8b 01		 mov	 eax, DWORD PTR [ecx]
; File D:\git\src\IBK\IBK_DRFN\ProjSrc\SrcChartEx\ChartAddIn\ChartDesignPropertyAddIn\ChartDesignPropertyAddIn\PacketSuperGrid.cpp

; 545  : 	if(szDefaultItemofCombo.GetLength() == 0)

  0004c	83 78 f4 00	 cmp	 DWORD PTR [eax-12], 0
  00050	75 36		 jne	 SHORT $LN106@SetThirdSu

; 546  : 		lpItemInfo->AddSubItemText(_T("x 1%"));      // 2 zero based subitems..

  00052	68 00 00 00 00	 push	 OFFSET ??_C@_04JNBHFDJC@x?51?$CF@
  00057	8d 4d 14	 lea	 ecx, DWORD PTR $T10[ebp]
  0005a	ff 15 00 00 00
	00		 call	 DWORD PTR __imp_??0?$CStringT@DV?$StrTraitMFC_DLL@DV?$ChTraitsCRT@D@ATL@@@@@ATL@@QAE@PBD@Z
; File C:\Program Files (x86)\Microsoft Visual Studio\2019\Community\VC\Tools\MSVC\14.29.30133\atlmfc\include\afxcoll.inl

; 321  : 		SetAtGrow(nIndex, newElement);

  00060	8d 45 14	 lea	 eax, DWORD PTR $T10[ebp]
; File D:\git\src\IBK\IBK_DRFN\ProjSrc\SrcChartEx\ChartAddIn\ChartDesignPropertyAddIn\ChartDesignPropertyAddIn\PacketSuperGrid.cpp

; 546  : 		lpItemInfo->AddSubItemText(_T("x 1%"));      // 2 zero based subitems..

  00063	c7 45 fc 07 00
	00 00		 mov	 DWORD PTR __$EHRec$[ebp+8], 7
; File C:\Program Files (x86)\Microsoft Visual Studio\2019\Community\VC\Tools\MSVC\14.29.30133\atlmfc\include\afxcoll.inl

; 321  : 		SetAtGrow(nIndex, newElement);

  0006a	50		 push	 eax
  0006b	ff 77 6c	 push	 DWORD PTR [edi+108]
  0006e	8d 4f 64	 lea	 ecx, DWORD PTR [edi+100]
  00071	e8 00 00 00 00	 call	 ?SetAtGrow@CStringArray@@QAEXHABV?$CStringT@DV?$StrTraitMFC_DLL@DV?$ChTraitsCRT@D@ATL@@@@@ATL@@@Z ; CStringArray::SetAtGrow
; File D:\git\src\IBK\IBK_DRFN\ProjSrc\SrcChartEx\ChartAddIn\ChartDesignPropertyAddIn\ChartDesignPropertyAddIn\PacketSuperGrid.cpp

; 546  : 		lpItemInfo->AddSubItemText(_T("x 1%"));      // 2 zero based subitems..

  00076	8d 4d 14	 lea	 ecx, DWORD PTR $T10[ebp]
  00079	c7 45 fc ff ff
	ff ff		 mov	 DWORD PTR __$EHRec$[ebp+8], -1
  00080	ff 15 00 00 00
	00		 call	 DWORD PTR __imp_??1?$CStringT@DV?$StrTraitMFC_DLL@DV?$ChTraitsCRT@D@ATL@@@@@ATL@@QAE@XZ
  00086	eb 0c		 jmp	 SHORT $LN107@SetThirdSu
$LN106@SetThirdSu:
; File C:\Program Files (x86)\Microsoft Visual Studio\2019\Community\VC\Tools\MSVC\14.29.30133\atlmfc\include\afxcoll.inl

; 321  : 		SetAtGrow(nIndex, newElement);

  00088	51		 push	 ecx
  00089	ff 77 6c	 push	 DWORD PTR [edi+108]
  0008c	8d 4f 64	 lea	 ecx, DWORD PTR [edi+100]
  0008f	e8 00 00 00 00	 call	 ?SetAtGrow@CStringArray@@QAEXHABV?$CStringT@DV?$StrTraitMFC_DLL@DV?$ChTraitsCRT@D@ATL@@@@@ATL@@@Z ; CStringArray::SetAtGrow
$LN107@SetThirdSu:
; File D:\git\src\IBK\IBK_DRFN\ProjSrc\SrcChartEx\ChartAddIn\ChartDesignPropertyAddIn\ChartDesignPropertyAddIn\SuperGridCtrl.h

; 36   : 	void SetControlType(CONTROLTYPE enumCtrlType, int nCol=-1){ m_controlType.SetAt(nCol, enumCtrlType); }

  00094	8d 45 14	 lea	 eax, DWORD PTR _enumCtrlType$[ebp]
; File D:\git\src\IBK\IBK_DRFN\ProjSrc\SrcChartEx\ChartAddIn\ChartDesignPropertyAddIn\ChartDesignPropertyAddIn\PacketSuperGrid.cpp

; 550  : 	lpItemInfo->SetControlType(lpItemInfo->CONTROLTYPE::combobox, 2);

  00097	c7 45 14 01 00
	00 00		 mov	 DWORD PTR _enumCtrlType$[ebp], 1
; File D:\git\src\IBK\IBK_DRFN\ProjSrc\SrcChartEx\ChartAddIn\ChartDesignPropertyAddIn\ChartDesignPropertyAddIn\SuperGridCtrl.h

; 36   : 	void SetControlType(CONTROLTYPE enumCtrlType, int nCol=-1){ m_controlType.SetAt(nCol, enumCtrlType); }

  0009e	50		 push	 eax
  0009f	6a 02		 push	 2
  000a1	8d 4f 0c	 lea	 ecx, DWORD PTR [edi+12]
  000a4	e8 00 00 00 00	 call	 ?SetAt@?$CMap@HHW4CONTROLTYPE@CItemInfo@@AAW412@@@QAEXHAAW4CONTROLTYPE@CItemInfo@@@Z ; CMap<int,int,enum CItemInfo::CONTROLTYPE,enum CItemInfo::CONTROLTYPE &>::SetAt
; File D:\git\src\IBK\IBK_DRFN\ProjSrc\SrcChartEx\ChartAddIn\ChartDesignPropertyAddIn\ChartDesignPropertyAddIn\PacketSuperGrid.cpp

; 552  : 	CStringList list;

  000a9	6a 0a		 push	 10			; 0000000aH
  000ab	8d 4d d8	 lea	 ecx, DWORD PTR _list$3[ebp]
  000ae	e8 00 00 00 00	 call	 ??0CStringList@@QAE@H@Z	; CStringList::CStringList

; 553  : 	//initalized list for the edit
; 554  : 	list.AddTail("x 0.01%");

  000b3	68 00 00 00 00	 push	 OFFSET ??_C@_07GNCPKCAG@x?50?401?$CF@
  000b8	8d 4d d8	 lea	 ecx, DWORD PTR _list$3[ebp]
  000bb	c7 45 fc 08 00
	00 00		 mov	 DWORD PTR __$EHRec$[ebp+8], 8
  000c2	e8 00 00 00 00	 call	 ?AddTail@CStringList@@QAEPAU__POSITION@@PBD@Z ; CStringList::AddTail

; 555  : 	list.AddTail("x 0.1%");

  000c7	68 00 00 00 00	 push	 OFFSET ??_C@_06JGCOIEDA@x?50?41?$CF@
  000cc	8d 4d d8	 lea	 ecx, DWORD PTR _list$3[ebp]
  000cf	e8 00 00 00 00	 call	 ?AddTail@CStringList@@QAEPAU__POSITION@@PBD@Z ; CStringList::AddTail

; 556  : 	list.AddTail("x 1%");

  000d4	68 00 00 00 00	 push	 OFFSET ??_C@_04JNBHFDJC@x?51?$CF@
  000d9	8d 4d d8	 lea	 ecx, DWORD PTR _list$3[ebp]
  000dc	e8 00 00 00 00	 call	 ?AddTail@CStringList@@QAEPAU__POSITION@@PBD@Z ; CStringList::AddTail

; 557  : 	list.AddTail( _LTEXT6( C6_POINT));

  000e1	a1 54 00 00 00	 mov	 eax, DWORD PTR ?g_iMetaTable@@3VIMetaTable@@A+84
  000e6	b9 00 00 00 00	 mov	 ecx, OFFSET ?g_iMetaTable@@3VIMetaTable@@A ; g_iMetaTable
  000eb	6a 00		 push	 0
  000ed	ff b0 6c 09 00
	00		 push	 DWORD PTR [eax+2412]
  000f3	6a 06		 push	 6
  000f5	ff b3 f4 00 00
	00		 push	 DWORD PTR [ebx+244]
  000fb	e8 00 00 00 00	 call	 ?GetLanguageText@IMetaTable@@QAEPBDPAUHWND__@@W4E_CODEPAGE@1@PBDH@Z ; IMetaTable::GetLanguageText
  00100	50		 push	 eax
  00101	8d 4d d8	 lea	 ecx, DWORD PTR _list$3[ebp]
  00104	e8 00 00 00 00	 call	 ?AddTail@CStringList@@QAEPAU__POSITION@@PBD@Z ; CStringList::AddTail

; 558  : 	list.AddTail("");

  00109	68 00 00 00 00	 push	 OFFSET ??_C@_00CNPNBAHC@@
  0010e	8d 4d d8	 lea	 ecx, DWORD PTR _list$3[ebp]
  00111	e8 00 00 00 00	 call	 ?AddTail@CStringList@@QAEPAU__POSITION@@PBD@Z ; CStringList::AddTail

; 559  : 	list.AddTail("");

  00116	68 00 00 00 00	 push	 OFFSET ??_C@_00CNPNBAHC@@
  0011b	8d 4d d8	 lea	 ecx, DWORD PTR _list$3[ebp]
  0011e	e8 00 00 00 00	 call	 ?AddTail@CStringList@@QAEPAU__POSITION@@PBD@Z ; CStringList::AddTail
; File C:\Program Files (x86)\Microsoft Visual Studio\2019\Community\VC\Tools\MSVC\14.29.30133\atlmfc\include\afx.inl

; 116  : 	{ return ::operator new(nSize); }

  00123	6a 1c		 push	 28			; 0000001cH
  00125	e8 00 00 00 00	 call	 ??2@YAPAXI@Z		; operator new
  0012a	83 c4 04	 add	 esp, 4
; File D:\git\src\IBK\IBK_DRFN\ProjSrc\SrcChartEx\ChartAddIn\ChartDesignPropertyAddIn\ChartDesignPropertyAddIn\SuperGridCtrl.h

; 51   : 		list = new CStringList;//will be deleted in destructor

  0012d	89 45 14	 mov	 DWORD PTR $T7[ebp], eax
  00130	c6 45 fc 09	 mov	 BYTE PTR __$EHRec$[ebp+8], 9
  00134	85 c0		 test	 eax, eax
  00136	74 0d		 je	 SHORT $LN127@SetThirdSu
  00138	6a 0a		 push	 10			; 0000000aH
  0013a	8b c8		 mov	 ecx, eax
  0013c	e8 00 00 00 00	 call	 ??0CStringList@@QAE@H@Z	; CStringList::CStringList
  00141	8b f0		 mov	 esi, eax
  00143	eb 02		 jmp	 SHORT $LN128@SetThirdSu
$LN127@SetThirdSu:
  00145	33 f6		 xor	 esi, esi
$LN128@SetThirdSu:
  00147	c6 45 fc 08	 mov	 BYTE PTR __$EHRec$[ebp+8], 8
$LN173@SetThirdSu:
; File D:\git\src\IBK\IBK_DRFN\ProjSrc\SrcChartEx\ChartAddIn\ChartDesignPropertyAddIn\ChartDesignPropertyAddIn\PacketSuperGrid.cpp

; 638  : }

  0014b	8d 45 d8	 lea	 eax, DWORD PTR _list$3[ebp]
  0014e	8b ce		 mov	 ecx, esi
  00150	50		 push	 eax
  00151	e8 00 00 00 00	 call	 ?AddTail@CStringList@@QAEXPAV1@@Z ; CStringList::AddTail
  00156	56		 push	 esi
  00157	6a 02		 push	 2
  00159	8d 4f 44	 lea	 ecx, DWORD PTR [edi+68]
  0015c	e8 00 00 00 00	 call	 ?SetAt@?$CMap@HHPAVCStringList@@PAV1@@@QAEXHPAVCStringList@@@Z ; CMap<int,int,CStringList *,CStringList *>::SetAt
  00161	8d 4d d8	 lea	 ecx, DWORD PTR _list$3[ebp]
  00164	e8 00 00 00 00	 call	 ??1CStringList@@UAE@XZ	; CStringList::~CStringList
  00169	8b 4d f4	 mov	 ecx, DWORD PTR __$EHRec$[ebp]
  0016c	64 89 0d 00 00
	00 00		 mov	 DWORD PTR fs:0, ecx
  00173	59		 pop	 ecx
  00174	5f		 pop	 edi
  00175	5e		 pop	 esi
  00176	5b		 pop	 ebx
  00177	8b e5		 mov	 esp, ebp
  00179	5d		 pop	 ebp
  0017a	c2 10 00	 ret	 16			; 00000010H
$LN31@SetThirdSu:
; File C:\Program Files (x86)\Microsoft Visual Studio\2019\Community\VC\Tools\MSVC\14.29.30133\atlmfc\include\atlsimpstr.h

; 519  : 		return( GetData()->nDataLength );

  0017d	8b 4d 0c	 mov	 ecx, DWORD PTR _szDefaultItemofCombo$[ebp]
; File D:\git\src\IBK\IBK_DRFN\ProjSrc\SrcChartEx\ChartAddIn\ChartDesignPropertyAddIn\ChartDesignPropertyAddIn\PacketSuperGrid.cpp

; 606  : 	else if(type == CPacketSuperGrid::STOCKMULTIPLE)

  00180	8b 7d 14	 mov	 edi, DWORD PTR _lpItemInfo$[ebp]
; File C:\Program Files (x86)\Microsoft Visual Studio\2019\Community\VC\Tools\MSVC\14.29.30133\atlmfc\include\atlsimpstr.h

; 519  : 		return( GetData()->nDataLength );

  00183	8b 01		 mov	 eax, DWORD PTR [ecx]
; File D:\git\src\IBK\IBK_DRFN\ProjSrc\SrcChartEx\ChartAddIn\ChartDesignPropertyAddIn\ChartDesignPropertyAddIn\PacketSuperGrid.cpp

; 566  : 	if(szDefaultItemofCombo.GetLength() == 0)

  00185	83 78 f4 00	 cmp	 DWORD PTR [eax-12], 0
  00189	75 36		 jne	 SHORT $LN133@SetThirdSu

; 567  : 		lpItemInfo->AddSubItemText(_T("$"));      // 2 zero based subitems..

  0018b	68 00 00 00 00	 push	 OFFSET ??_C@_01EPMOAMKG@$@
  00190	8d 4d 14	 lea	 ecx, DWORD PTR $T8[ebp]
  00193	ff 15 00 00 00
	00		 call	 DWORD PTR __imp_??0?$CStringT@DV?$StrTraitMFC_DLL@DV?$ChTraitsCRT@D@ATL@@@@@ATL@@QAE@PBD@Z
; File C:\Program Files (x86)\Microsoft Visual Studio\2019\Community\VC\Tools\MSVC\14.29.30133\atlmfc\include\afxcoll.inl

; 321  : 		SetAtGrow(nIndex, newElement);

  00199	8d 45 14	 lea	 eax, DWORD PTR $T8[ebp]
; File D:\git\src\IBK\IBK_DRFN\ProjSrc\SrcChartEx\ChartAddIn\ChartDesignPropertyAddIn\ChartDesignPropertyAddIn\PacketSuperGrid.cpp

; 567  : 		lpItemInfo->AddSubItemText(_T("$"));      // 2 zero based subitems..

  0019c	c7 45 fc 0a 00
	00 00		 mov	 DWORD PTR __$EHRec$[ebp+8], 10 ; 0000000aH
; File C:\Program Files (x86)\Microsoft Visual Studio\2019\Community\VC\Tools\MSVC\14.29.30133\atlmfc\include\afxcoll.inl

; 321  : 		SetAtGrow(nIndex, newElement);

  001a3	50		 push	 eax
  001a4	ff 77 6c	 push	 DWORD PTR [edi+108]
  001a7	8d 4f 64	 lea	 ecx, DWORD PTR [edi+100]
  001aa	e8 00 00 00 00	 call	 ?SetAtGrow@CStringArray@@QAEXHABV?$CStringT@DV?$StrTraitMFC_DLL@DV?$ChTraitsCRT@D@ATL@@@@@ATL@@@Z ; CStringArray::SetAtGrow
; File D:\git\src\IBK\IBK_DRFN\ProjSrc\SrcChartEx\ChartAddIn\ChartDesignPropertyAddIn\ChartDesignPropertyAddIn\PacketSuperGrid.cpp

; 567  : 		lpItemInfo->AddSubItemText(_T("$"));      // 2 zero based subitems..

  001af	8d 4d 14	 lea	 ecx, DWORD PTR $T8[ebp]
  001b2	c7 45 fc ff ff
	ff ff		 mov	 DWORD PTR __$EHRec$[ebp+8], -1
  001b9	ff 15 00 00 00
	00		 call	 DWORD PTR __imp_??1?$CStringT@DV?$StrTraitMFC_DLL@DV?$ChTraitsCRT@D@ATL@@@@@ATL@@QAE@XZ
  001bf	eb 0c		 jmp	 SHORT $LN134@SetThirdSu
$LN133@SetThirdSu:
; File C:\Program Files (x86)\Microsoft Visual Studio\2019\Community\VC\Tools\MSVC\14.29.30133\atlmfc\include\afxcoll.inl

; 321  : 		SetAtGrow(nIndex, newElement);

  001c1	51		 push	 ecx
  001c2	ff 77 6c	 push	 DWORD PTR [edi+108]
  001c5	8d 4f 64	 lea	 ecx, DWORD PTR [edi+100]
  001c8	e8 00 00 00 00	 call	 ?SetAtGrow@CStringArray@@QAEXHABV?$CStringT@DV?$StrTraitMFC_DLL@DV?$ChTraitsCRT@D@ATL@@@@@ATL@@@Z ; CStringArray::SetAtGrow
$LN134@SetThirdSu:
; File D:\git\src\IBK\IBK_DRFN\ProjSrc\SrcChartEx\ChartAddIn\ChartDesignPropertyAddIn\ChartDesignPropertyAddIn\SuperGridCtrl.h

; 36   : 	void SetControlType(CONTROLTYPE enumCtrlType, int nCol=-1){ m_controlType.SetAt(nCol, enumCtrlType); }

  001cd	8d 45 14	 lea	 eax, DWORD PTR _enumCtrlType$[ebp]
; File D:\git\src\IBK\IBK_DRFN\ProjSrc\SrcChartEx\ChartAddIn\ChartDesignPropertyAddIn\ChartDesignPropertyAddIn\PacketSuperGrid.cpp

; 571  : 	lpItemInfo->SetControlType(lpItemInfo->CONTROLTYPE::combobox, 2);

  001d0	c7 45 14 01 00
	00 00		 mov	 DWORD PTR _enumCtrlType$[ebp], 1
; File D:\git\src\IBK\IBK_DRFN\ProjSrc\SrcChartEx\ChartAddIn\ChartDesignPropertyAddIn\ChartDesignPropertyAddIn\SuperGridCtrl.h

; 36   : 	void SetControlType(CONTROLTYPE enumCtrlType, int nCol=-1){ m_controlType.SetAt(nCol, enumCtrlType); }

  001d7	50		 push	 eax
  001d8	6a 02		 push	 2
  001da	8d 4f 0c	 lea	 ecx, DWORD PTR [edi+12]
  001dd	e8 00 00 00 00	 call	 ?SetAt@?$CMap@HHW4CONTROLTYPE@CItemInfo@@AAW412@@@QAEXHAAW4CONTROLTYPE@CItemInfo@@@Z ; CMap<int,int,enum CItemInfo::CONTROLTYPE,enum CItemInfo::CONTROLTYPE &>::SetAt
; File D:\git\src\IBK\IBK_DRFN\ProjSrc\SrcChartEx\ChartAddIn\ChartDesignPropertyAddIn\ChartDesignPropertyAddIn\PacketSuperGrid.cpp

; 572  : 	CStringList list;

  001e2	6a 0a		 push	 10			; 0000000aH
  001e4	8d 4d bc	 lea	 ecx, DWORD PTR _list$2[ebp]
  001e7	e8 00 00 00 00	 call	 ??0CStringList@@QAE@H@Z	; CStringList::CStringList

; 573  : 	//initalized list for the edit
; 574  : 	list.AddTail("$");

  001ec	68 00 00 00 00	 push	 OFFSET ??_C@_01EPMOAMKG@$@
  001f1	8d 4d bc	 lea	 ecx, DWORD PTR _list$2[ebp]
  001f4	c7 45 fc 0b 00
	00 00		 mov	 DWORD PTR __$EHRec$[ebp+8], 11 ; 0000000bH
  001fb	e8 00 00 00 00	 call	 ?AddTail@CStringList@@QAEPAU__POSITION@@PBD@Z ; CStringList::AddTail

; 575  : 	list.AddTail("");

  00200	68 00 00 00 00	 push	 OFFSET ??_C@_02KGFALILJ@?$KB?M@
  00205	8d 4d bc	 lea	 ecx, DWORD PTR _list$2[ebp]
  00208	e8 00 00 00 00	 call	 ?AddTail@CStringList@@QAEPAU__POSITION@@PBD@Z ; CStringList::AddTail

; 576  : 	list.AddTail("");

  0020d	68 00 00 00 00	 push	 OFFSET ??_C@_02LPELIJPI@?$KB?L@
  00212	8d 4d bc	 lea	 ecx, DWORD PTR _list$2[ebp]
  00215	e8 00 00 00 00	 call	 ?AddTail@CStringList@@QAEPAU__POSITION@@PBD@Z ; CStringList::AddTail

; 577  : 	list.AddTail("");

  0021a	68 00 00 00 00	 push	 OFFSET ??_C@_00CNPNBAHC@@
  0021f	8d 4d bc	 lea	 ecx, DWORD PTR _list$2[ebp]
  00222	e8 00 00 00 00	 call	 ?AddTail@CStringList@@QAEPAU__POSITION@@PBD@Z ; CStringList::AddTail

; 578  : 	list.AddTail("");

  00227	68 00 00 00 00	 push	 OFFSET ??_C@_00CNPNBAHC@@
  0022c	8d 4d bc	 lea	 ecx, DWORD PTR _list$2[ebp]
  0022f	e8 00 00 00 00	 call	 ?AddTail@CStringList@@QAEPAU__POSITION@@PBD@Z ; CStringList::AddTail
; File C:\Program Files (x86)\Microsoft Visual Studio\2019\Community\VC\Tools\MSVC\14.29.30133\atlmfc\include\afx.inl

; 116  : 	{ return ::operator new(nSize); }

  00234	6a 1c		 push	 28			; 0000001cH
  00236	e8 00 00 00 00	 call	 ??2@YAPAXI@Z		; operator new
  0023b	83 c4 04	 add	 esp, 4
; File D:\git\src\IBK\IBK_DRFN\ProjSrc\SrcChartEx\ChartAddIn\ChartDesignPropertyAddIn\ChartDesignPropertyAddIn\SuperGridCtrl.h

; 51   : 		list = new CStringList;//will be deleted in destructor

  0023e	89 45 14	 mov	 DWORD PTR $T6[ebp], eax
  00241	c6 45 fc 0c	 mov	 BYTE PTR __$EHRec$[ebp+8], 12 ; 0000000cH
  00245	85 c0		 test	 eax, eax
  00247	74 0d		 je	 SHORT $LN154@SetThirdSu
  00249	6a 0a		 push	 10			; 0000000aH
  0024b	8b c8		 mov	 ecx, eax
  0024d	e8 00 00 00 00	 call	 ??0CStringList@@QAE@H@Z	; CStringList::CStringList
  00252	8b f0		 mov	 esi, eax
  00254	eb 02		 jmp	 SHORT $LN155@SetThirdSu
$LN154@SetThirdSu:
  00256	33 f6		 xor	 esi, esi
$LN155@SetThirdSu:

; 52   : 		list->AddTail(strInitArr);

  00258	8d 45 bc	 lea	 eax, DWORD PTR _list$2[ebp]
  0025b	c6 45 fc 0b	 mov	 BYTE PTR __$EHRec$[ebp+8], 11 ; 0000000bH
  0025f	50		 push	 eax
  00260	8b ce		 mov	 ecx, esi
  00262	e8 00 00 00 00	 call	 ?AddTail@CStringList@@QAEXPAV1@@Z ; CStringList::AddTail

; 53   : 		m_listdata.SetAt(iSubItem, list);

  00267	56		 push	 esi
  00268	6a 02		 push	 2
  0026a	8d 4f 44	 lea	 ecx, DWORD PTR [edi+68]
  0026d	e8 00 00 00 00	 call	 ?SetAt@?$CMap@HHPAVCStringList@@PAV1@@@QAEXHPAVCStringList@@@Z ; CMap<int,int,CStringList *,CStringList *>::SetAt
; File D:\git\src\IBK\IBK_DRFN\ProjSrc\SrcChartEx\ChartAddIn\ChartDesignPropertyAddIn\ChartDesignPropertyAddIn\PacketSuperGrid.cpp

; 580  : }

  00272	8d 4d bc	 lea	 ecx, DWORD PTR _list$2[ebp]
  00275	e8 00 00 00 00	 call	 ??1CStringList@@UAE@XZ	; CStringList::~CStringList

; 638  : }

  0027a	8b 4d f4	 mov	 ecx, DWORD PTR __$EHRec$[ebp]
  0027d	64 89 0d 00 00
	00 00		 mov	 DWORD PTR fs:0, ecx
  00284	59		 pop	 ecx
  00285	5f		 pop	 edi
  00286	5e		 pop	 esi
  00287	5b		 pop	 ebx
  00288	8b e5		 mov	 esp, ebp
  0028a	5d		 pop	 ebp
  0028b	c2 10 00	 ret	 16			; 00000010H
$LN163@SetThirdSu:
; File C:\Program Files (x86)\Microsoft Visual Studio\2019\Community\VC\Tools\MSVC\14.29.30133\atlmfc\include\atlsimpstr.h

; 519  : 		return( GetData()->nDataLength );

  0028e	8b 4d 0c	 mov	 ecx, DWORD PTR _szDefaultItemofCombo$[ebp]
  00291	8b 7d 14	 mov	 edi, DWORD PTR _lpItemInfo$[ebp]
  00294	8b 01		 mov	 eax, DWORD PTR [ecx]
; File D:\git\src\IBK\IBK_DRFN\ProjSrc\SrcChartEx\ChartAddIn\ChartDesignPropertyAddIn\ChartDesignPropertyAddIn\PacketSuperGrid.cpp

; 466  : 	if(szDefaultItemofCombo.GetLength() == 0)

  00296	83 78 f4 00	 cmp	 DWORD PTR [eax-12], 0
  0029a	75 36		 jne	 SHORT $LN35@SetThirdSu

; 467  : 		lpItemInfo->AddSubItemText(_T("YYYYMMDD"));      // 2 zero based subitems..

  0029c	68 00 00 00 00	 push	 OFFSET ??_C@_08DKDJLCMP@YYYYMMDD@
  002a1	8d 4d 14	 lea	 ecx, DWORD PTR $T14[ebp]
  002a4	ff 15 00 00 00
	00		 call	 DWORD PTR __imp_??0?$CStringT@DV?$StrTraitMFC_DLL@DV?$ChTraitsCRT@D@ATL@@@@@ATL@@QAE@PBD@Z
; File C:\Program Files (x86)\Microsoft Visual Studio\2019\Community\VC\Tools\MSVC\14.29.30133\atlmfc\include\afxcoll.inl

; 321  : 		SetAtGrow(nIndex, newElement);

  002aa	8d 45 14	 lea	 eax, DWORD PTR $T14[ebp]
; File D:\git\src\IBK\IBK_DRFN\ProjSrc\SrcChartEx\ChartAddIn\ChartDesignPropertyAddIn\ChartDesignPropertyAddIn\PacketSuperGrid.cpp

; 467  : 		lpItemInfo->AddSubItemText(_T("YYYYMMDD"));      // 2 zero based subitems..

  002ad	c7 45 fc 00 00
	00 00		 mov	 DWORD PTR __$EHRec$[ebp+8], 0
; File C:\Program Files (x86)\Microsoft Visual Studio\2019\Community\VC\Tools\MSVC\14.29.30133\atlmfc\include\afxcoll.inl

; 321  : 		SetAtGrow(nIndex, newElement);

  002b4	50		 push	 eax
  002b5	ff 77 6c	 push	 DWORD PTR [edi+108]
  002b8	8d 4f 64	 lea	 ecx, DWORD PTR [edi+100]
  002bb	e8 00 00 00 00	 call	 ?SetAtGrow@CStringArray@@QAEXHABV?$CStringT@DV?$StrTraitMFC_DLL@DV?$ChTraitsCRT@D@ATL@@@@@ATL@@@Z ; CStringArray::SetAtGrow
; File D:\git\src\IBK\IBK_DRFN\ProjSrc\SrcChartEx\ChartAddIn\ChartDesignPropertyAddIn\ChartDesignPropertyAddIn\PacketSuperGrid.cpp

; 467  : 		lpItemInfo->AddSubItemText(_T("YYYYMMDD"));      // 2 zero based subitems..

  002c0	8d 4d 14	 lea	 ecx, DWORD PTR $T14[ebp]
  002c3	c7 45 fc ff ff
	ff ff		 mov	 DWORD PTR __$EHRec$[ebp+8], -1
  002ca	ff 15 00 00 00
	00		 call	 DWORD PTR __imp_??1?$CStringT@DV?$StrTraitMFC_DLL@DV?$ChTraitsCRT@D@ATL@@@@@ATL@@QAE@XZ
  002d0	eb 0c		 jmp	 SHORT $LN36@SetThirdSu
$LN35@SetThirdSu:
; File C:\Program Files (x86)\Microsoft Visual Studio\2019\Community\VC\Tools\MSVC\14.29.30133\atlmfc\include\afxcoll.inl

; 321  : 		SetAtGrow(nIndex, newElement);

  002d2	51		 push	 ecx
  002d3	ff 77 6c	 push	 DWORD PTR [edi+108]
  002d6	8d 4f 64	 lea	 ecx, DWORD PTR [edi+100]
  002d9	e8 00 00 00 00	 call	 ?SetAtGrow@CStringArray@@QAEXHABV?$CStringT@DV?$StrTraitMFC_DLL@DV?$ChTraitsCRT@D@ATL@@@@@ATL@@@Z ; CStringArray::SetAtGrow
$LN36@SetThirdSu:
; File D:\git\src\IBK\IBK_DRFN\ProjSrc\SrcChartEx\ChartAddIn\ChartDesignPropertyAddIn\ChartDesignPropertyAddIn\SuperGridCtrl.h

; 36   : 	void SetControlType(CONTROLTYPE enumCtrlType, int nCol=-1){ m_controlType.SetAt(nCol, enumCtrlType); }

  002de	8d 45 14	 lea	 eax, DWORD PTR _enumCtrlType$[ebp]
; File D:\git\src\IBK\IBK_DRFN\ProjSrc\SrcChartEx\ChartAddIn\ChartDesignPropertyAddIn\ChartDesignPropertyAddIn\PacketSuperGrid.cpp

; 470  : 	lpItemInfo->SetControlType(lpItemInfo->CONTROLTYPE::combobox, 2);

  002e1	c7 45 14 01 00
	00 00		 mov	 DWORD PTR _enumCtrlType$[ebp], 1
; File D:\git\src\IBK\IBK_DRFN\ProjSrc\SrcChartEx\ChartAddIn\ChartDesignPropertyAddIn\ChartDesignPropertyAddIn\SuperGridCtrl.h

; 36   : 	void SetControlType(CONTROLTYPE enumCtrlType, int nCol=-1){ m_controlType.SetAt(nCol, enumCtrlType); }

  002e8	50		 push	 eax
  002e9	6a 02		 push	 2
  002eb	8d 4f 0c	 lea	 ecx, DWORD PTR [edi+12]
  002ee	e8 00 00 00 00	 call	 ?SetAt@?$CMap@HHW4CONTROLTYPE@CItemInfo@@AAW412@@@QAEXHAAW4CONTROLTYPE@CItemInfo@@@Z ; CMap<int,int,enum CItemInfo::CONTROLTYPE,enum CItemInfo::CONTROLTYPE &>::SetAt
; File D:\git\src\IBK\IBK_DRFN\ProjSrc\SrcChartEx\ChartAddIn\ChartDesignPropertyAddIn\ChartDesignPropertyAddIn\PacketSuperGrid.cpp

; 472  : 	CStringList list;

  002f3	6a 0a		 push	 10			; 0000000aH
  002f5	8d 4d d8	 lea	 ecx, DWORD PTR _list$5[ebp]
  002f8	e8 00 00 00 00	 call	 ??0CStringList@@QAE@H@Z	; CStringList::CStringList

; 473  : 	list.AddTail("YYYYMMDD");

  002fd	68 00 00 00 00	 push	 OFFSET ??_C@_08DKDJLCMP@YYYYMMDD@
  00302	8d 4d d8	 lea	 ecx, DWORD PTR _list$5[ebp]
  00305	c7 45 fc 01 00
	00 00		 mov	 DWORD PTR __$EHRec$[ebp+8], 1
  0030c	e8 00 00 00 00	 call	 ?AddTail@CStringList@@QAEPAU__POSITION@@PBD@Z ; CStringList::AddTail

; 474  : 	list.AddTail("YYMMDD");

  00311	68 00 00 00 00	 push	 OFFSET ??_C@_06NFMEGGNP@YYMMDD@
  00316	8d 4d d8	 lea	 ecx, DWORD PTR _list$5[ebp]
  00319	e8 00 00 00 00	 call	 ?AddTail@CStringList@@QAEPAU__POSITION@@PBD@Z ; CStringList::AddTail

; 475  : 	list.AddTail("YYYYMM");

  0031e	68 00 00 00 00	 push	 OFFSET ??_C@_06EBMMBHJD@YYYYMM@
  00323	8d 4d d8	 lea	 ecx, DWORD PTR _list$5[ebp]
  00326	e8 00 00 00 00	 call	 ?AddTail@CStringList@@QAEPAU__POSITION@@PBD@Z ; CStringList::AddTail

; 476  : 	list.AddTail("YYMM");

  0032b	68 00 00 00 00	 push	 OFFSET ??_C@_04IHEOMKKL@YYMM@
  00330	8d 4d d8	 lea	 ecx, DWORD PTR _list$5[ebp]
  00333	e8 00 00 00 00	 call	 ?AddTail@CStringList@@QAEPAU__POSITION@@PBD@Z ; CStringList::AddTail

; 477  : 	list.AddTail("MMDD");

  00338	68 00 00 00 00	 push	 OFFSET ??_C@_04BDEGLLOH@MMDD@
  0033d	8d 4d d8	 lea	 ecx, DWORD PTR _list$5[ebp]
  00340	e8 00 00 00 00	 call	 ?AddTail@CStringList@@QAEPAU__POSITION@@PBD@Z ; CStringList::AddTail

; 478  : 	list.AddTail("MMDDHH");

  00345	68 00 00 00 00	 push	 OFFSET ??_C@_06LKFAFBM@MMDDHH@
  0034a	8d 4d d8	 lea	 ecx, DWORD PTR _list$5[ebp]
  0034d	e8 00 00 00 00	 call	 ?AddTail@CStringList@@QAEPAU__POSITION@@PBD@Z ; CStringList::AddTail

; 479  : 	list.AddTail("MMDDHHMM");

  00352	68 00 00 00 00	 push	 OFFSET ??_C@_08KLIIINKM@MMDDHHMM@
  00357	8d 4d d8	 lea	 ecx, DWORD PTR _list$5[ebp]
  0035a	e8 00 00 00 00	 call	 ?AddTail@CStringList@@QAEPAU__POSITION@@PBD@Z ; CStringList::AddTail

; 480  : 	list.AddTail("DDHH");

  0035f	68 00 00 00 00	 push	 OFFSET ??_C@_04MGPBCAHE@DDHH@
  00364	8d 4d d8	 lea	 ecx, DWORD PTR _list$5[ebp]
  00367	e8 00 00 00 00	 call	 ?AddTail@CStringList@@QAEPAU__POSITION@@PBD@Z ; CStringList::AddTail

; 481  : 	list.AddTail("DDHHMM");

  0036c	68 00 00 00 00	 push	 OFFSET ??_C@_06ENKIHFBA@DDHHMM@
  00371	8d 4d d8	 lea	 ecx, DWORD PTR _list$5[ebp]
  00374	e8 00 00 00 00	 call	 ?AddTail@CStringList@@QAEPAU__POSITION@@PBD@Z ; CStringList::AddTail

; 482  : 	list.AddTail("DDHHMMSS");

  00379	68 00 00 00 00	 push	 OFFSET ??_C@_08JFMBEEDE@DDHHMMSS@
  0037e	8d 4d d8	 lea	 ecx, DWORD PTR _list$5[ebp]
  00381	e8 00 00 00 00	 call	 ?AddTail@CStringList@@QAEPAU__POSITION@@PBD@Z ; CStringList::AddTail

; 483  : 	list.AddTail("HHMMSS");

  00386	68 00 00 00 00	 push	 OFFSET ??_C@_06MAANBBPI@HHMMSS@
  0038b	8d 4d d8	 lea	 ecx, DWORD PTR _list$5[ebp]
  0038e	e8 00 00 00 00	 call	 ?AddTail@CStringList@@QAEPAU__POSITION@@PBD@Z ; CStringList::AddTail

; 484  : //	list.AddTail("HHMMSSNN");
; 485  : 	list.AddTail("");

  00393	68 00 00 00 00	 push	 OFFSET ??_C@_00CNPNBAHC@@
  00398	8d 4d d8	 lea	 ecx, DWORD PTR _list$5[ebp]
  0039b	e8 00 00 00 00	 call	 ?AddTail@CStringList@@QAEPAU__POSITION@@PBD@Z ; CStringList::AddTail

; 486  : 	list.AddTail("");

  003a0	68 00 00 00 00	 push	 OFFSET ??_C@_00CNPNBAHC@@
  003a5	8d 4d d8	 lea	 ecx, DWORD PTR _list$5[ebp]
  003a8	e8 00 00 00 00	 call	 ?AddTail@CStringList@@QAEPAU__POSITION@@PBD@Z ; CStringList::AddTail
; File C:\Program Files (x86)\Microsoft Visual Studio\2019\Community\VC\Tools\MSVC\14.29.30133\atlmfc\include\afx.inl

; 116  : 	{ return ::operator new(nSize); }

  003ad	6a 1c		 push	 28			; 0000001cH
  003af	e8 00 00 00 00	 call	 ??2@YAPAXI@Z		; operator new
  003b4	83 c4 04	 add	 esp, 4
; File D:\git\src\IBK\IBK_DRFN\ProjSrc\SrcChartEx\ChartAddIn\ChartDesignPropertyAddIn\ChartDesignPropertyAddIn\SuperGridCtrl.h

; 51   : 		list = new CStringList;//will be deleted in destructor

  003b7	89 45 14	 mov	 DWORD PTR $T11[ebp], eax
  003ba	c6 45 fc 02	 mov	 BYTE PTR __$EHRec$[ebp+8], 2
  003be	85 c0		 test	 eax, eax
  003c0	74 14		 je	 SHORT $LN56@SetThirdSu
  003c2	6a 0a		 push	 10			; 0000000aH
  003c4	8b c8		 mov	 ecx, eax
  003c6	e8 00 00 00 00	 call	 ??0CStringList@@QAE@H@Z	; CStringList::CStringList
  003cb	8b f0		 mov	 esi, eax
  003cd	c6 45 fc 01	 mov	 BYTE PTR __$EHRec$[ebp+8], 1
; File D:\git\src\IBK\IBK_DRFN\ProjSrc\SrcChartEx\ChartAddIn\ChartDesignPropertyAddIn\ChartDesignPropertyAddIn\PacketSuperGrid.cpp

; 599  : 		SetThirdDATEItem(szDefaultItemofCombo, lpItemInfo);

  003d1	e9 75 fd ff ff	 jmp	 $LN173@SetThirdSu
$LN56@SetThirdSu:
; File D:\git\src\IBK\IBK_DRFN\ProjSrc\SrcChartEx\ChartAddIn\ChartDesignPropertyAddIn\ChartDesignPropertyAddIn\SuperGridCtrl.h

; 51   : 		list = new CStringList;//will be deleted in destructor

  003d6	33 f6		 xor	 esi, esi
  003d8	c6 45 fc 01	 mov	 BYTE PTR __$EHRec$[ebp+8], 1
; File D:\git\src\IBK\IBK_DRFN\ProjSrc\SrcChartEx\ChartAddIn\ChartDesignPropertyAddIn\ChartDesignPropertyAddIn\PacketSuperGrid.cpp

; 599  : 		SetThirdDATEItem(szDefaultItemofCombo, lpItemInfo);

  003dc	e9 6a fd ff ff	 jmp	 $LN173@SetThirdSu
$LN164@SetThirdSu:
; File C:\Program Files (x86)\Microsoft Visual Studio\2019\Community\VC\Tools\MSVC\14.29.30133\atlmfc\include\atlsimpstr.h

; 519  : 		return( GetData()->nDataLength );

  003e1	8b 55 0c	 mov	 edx, DWORD PTR _szDefaultItemofCombo$[ebp]
  003e4	8b 75 14	 mov	 esi, DWORD PTR _lpItemInfo$[ebp]
  003e7	8b 02		 mov	 eax, DWORD PTR [edx]
; File D:\git\src\IBK\IBK_DRFN\ProjSrc\SrcChartEx\ChartAddIn\ChartDesignPropertyAddIn\ChartDesignPropertyAddIn\PacketSuperGrid.cpp

; 492  : 	if(szDefaultItemofCombo.GetLength() == 0)

  003e9	83 78 f4 00	 cmp	 DWORD PTR [eax-12], 0
  003ed	75 5c		 jne	 SHORT $LN62@SetThirdSu

; 493  : 		lpItemInfo->AddSubItemText( _LTEXT6( C6_CHARACTER));      // 2 zero based subitems..

  003ef	a1 54 00 00 00	 mov	 eax, DWORD PTR ?g_iMetaTable@@3VIMetaTable@@A+84
  003f4	b9 00 00 00 00	 mov	 ecx, OFFSET ?g_iMetaTable@@3VIMetaTable@@A ; g_iMetaTable
  003f9	6a 00		 push	 0
  003fb	ff b0 60 09 00
	00		 push	 DWORD PTR [eax+2400]
  00401	6a 06		 push	 6
  00403	ff b3 f4 00 00
	00		 push	 DWORD PTR [ebx+244]
  00409	e8 00 00 00 00	 call	 ?GetLanguageText@IMetaTable@@QAEPBDPAUHWND__@@W4E_CODEPAGE@1@PBDH@Z ; IMetaTable::GetLanguageText
  0040e	50		 push	 eax
  0040f	8d 4d 14	 lea	 ecx, DWORD PTR $T13[ebp]
  00412	ff 15 00 00 00
	00		 call	 DWORD PTR __imp_??0?$CStringT@DV?$StrTraitMFC_DLL@DV?$ChTraitsCRT@D@ATL@@@@@ATL@@QAE@PBD@Z
; File C:\Program Files (x86)\Microsoft Visual Studio\2019\Community\VC\Tools\MSVC\14.29.30133\atlmfc\include\afxcoll.inl

; 321  : 		SetAtGrow(nIndex, newElement);

  00418	8d 45 14	 lea	 eax, DWORD PTR $T13[ebp]
; File D:\git\src\IBK\IBK_DRFN\ProjSrc\SrcChartEx\ChartAddIn\ChartDesignPropertyAddIn\ChartDesignPropertyAddIn\PacketSuperGrid.cpp

; 493  : 		lpItemInfo->AddSubItemText( _LTEXT6( C6_CHARACTER));      // 2 zero based subitems..

  0041b	c7 45 fc 03 00
	00 00		 mov	 DWORD PTR __$EHRec$[ebp+8], 3
; File C:\Program Files (x86)\Microsoft Visual Studio\2019\Community\VC\Tools\MSVC\14.29.30133\atlmfc\include\afxcoll.inl

; 321  : 		SetAtGrow(nIndex, newElement);

  00422	50		 push	 eax
  00423	ff 76 6c	 push	 DWORD PTR [esi+108]
  00426	8d 4e 64	 lea	 ecx, DWORD PTR [esi+100]
  00429	e8 00 00 00 00	 call	 ?SetAtGrow@CStringArray@@QAEXHABV?$CStringT@DV?$StrTraitMFC_DLL@DV?$ChTraitsCRT@D@ATL@@@@@ATL@@@Z ; CStringArray::SetAtGrow
; File D:\git\src\IBK\IBK_DRFN\ProjSrc\SrcChartEx\ChartAddIn\ChartDesignPropertyAddIn\ChartDesignPropertyAddIn\PacketSuperGrid.cpp

; 493  : 		lpItemInfo->AddSubItemText( _LTEXT6( C6_CHARACTER));      // 2 zero based subitems..

  0042e	8d 4d 14	 lea	 ecx, DWORD PTR $T13[ebp]
  00431	ff 15 00 00 00
	00		 call	 DWORD PTR __imp_??1?$CStringT@DV?$StrTraitMFC_DLL@DV?$ChTraitsCRT@D@ATL@@@@@ATL@@QAE@XZ

; 638  : }

  00437	8b 4d f4	 mov	 ecx, DWORD PTR __$EHRec$[ebp]
  0043a	64 89 0d 00 00
	00 00		 mov	 DWORD PTR fs:0, ecx
  00441	59		 pop	 ecx
  00442	5f		 pop	 edi
  00443	5e		 pop	 esi
  00444	5b		 pop	 ebx
  00445	8b e5		 mov	 esp, ebp
  00447	5d		 pop	 ebp
  00448	c2 10 00	 ret	 16			; 00000010H
$LN62@SetThirdSu:
; File C:\Program Files (x86)\Microsoft Visual Studio\2019\Community\VC\Tools\MSVC\14.29.30133\atlmfc\include\afxcoll.inl

; 321  : 		SetAtGrow(nIndex, newElement);

  0044b	52		 push	 edx
  0044c	ff 76 6c	 push	 DWORD PTR [esi+108]
  0044f	8d 4e 64	 lea	 ecx, DWORD PTR [esi+100]
; File D:\git\src\IBK\IBK_DRFN\ProjSrc\SrcChartEx\ChartAddIn\ChartDesignPropertyAddIn\ChartDesignPropertyAddIn\PacketSuperGrid.cpp

; 601  : 		SetThirdTEXTItem(szDefaultItemofCombo,lpItemInfo);

  00452	e9 40 01 00 00	 jmp	 $LN172@SetThirdSu
$LN165@SetThirdSu:
; File C:\Program Files (x86)\Microsoft Visual Studio\2019\Community\VC\Tools\MSVC\14.29.30133\atlmfc\include\atlsimpstr.h

; 519  : 		return( GetData()->nDataLength );

  00457	8b 4d 0c	 mov	 ecx, DWORD PTR _szDefaultItemofCombo$[ebp]
  0045a	8b 7d 14	 mov	 edi, DWORD PTR _lpItemInfo$[ebp]
  0045d	8b 01		 mov	 eax, DWORD PTR [ecx]
; File D:\git\src\IBK\IBK_DRFN\ProjSrc\SrcChartEx\ChartAddIn\ChartDesignPropertyAddIn\ChartDesignPropertyAddIn\PacketSuperGrid.cpp

; 500  : 	if(szDefaultItemofCombo.GetLength() == 0)

  0045f	83 78 f4 00	 cmp	 DWORD PTR [eax-12], 0
  00463	75 36		 jne	 SHORT $LN79@SetThirdSu

; 501  : 		lpItemInfo->AddSubItemText(_T("x 1"));      // 2 zero based subitems..

  00465	68 00 00 00 00	 push	 OFFSET ??_C@_03IOCAOJMC@x?51@
  0046a	8d 4d 14	 lea	 ecx, DWORD PTR $T12[ebp]
  0046d	ff 15 00 00 00
	00		 call	 DWORD PTR __imp_??0?$CStringT@DV?$StrTraitMFC_DLL@DV?$ChTraitsCRT@D@ATL@@@@@ATL@@QAE@PBD@Z
; File C:\Program Files (x86)\Microsoft Visual Studio\2019\Community\VC\Tools\MSVC\14.29.30133\atlmfc\include\afxcoll.inl

; 321  : 		SetAtGrow(nIndex, newElement);

  00473	8d 45 14	 lea	 eax, DWORD PTR $T12[ebp]
; File D:\git\src\IBK\IBK_DRFN\ProjSrc\SrcChartEx\ChartAddIn\ChartDesignPropertyAddIn\ChartDesignPropertyAddIn\PacketSuperGrid.cpp

; 501  : 		lpItemInfo->AddSubItemText(_T("x 1"));      // 2 zero based subitems..

  00476	c7 45 fc 04 00
	00 00		 mov	 DWORD PTR __$EHRec$[ebp+8], 4
; File C:\Program Files (x86)\Microsoft Visual Studio\2019\Community\VC\Tools\MSVC\14.29.30133\atlmfc\include\afxcoll.inl

; 321  : 		SetAtGrow(nIndex, newElement);

  0047d	50		 push	 eax
  0047e	ff 77 6c	 push	 DWORD PTR [edi+108]
  00481	8d 4f 64	 lea	 ecx, DWORD PTR [edi+100]
  00484	e8 00 00 00 00	 call	 ?SetAtGrow@CStringArray@@QAEXHABV?$CStringT@DV?$StrTraitMFC_DLL@DV?$ChTraitsCRT@D@ATL@@@@@ATL@@@Z ; CStringArray::SetAtGrow
; File D:\git\src\IBK\IBK_DRFN\ProjSrc\SrcChartEx\ChartAddIn\ChartDesignPropertyAddIn\ChartDesignPropertyAddIn\PacketSuperGrid.cpp

; 501  : 		lpItemInfo->AddSubItemText(_T("x 1"));      // 2 zero based subitems..

  00489	8d 4d 14	 lea	 ecx, DWORD PTR $T12[ebp]
  0048c	c7 45 fc ff ff
	ff ff		 mov	 DWORD PTR __$EHRec$[ebp+8], -1
  00493	ff 15 00 00 00
	00		 call	 DWORD PTR __imp_??1?$CStringT@DV?$StrTraitMFC_DLL@DV?$ChTraitsCRT@D@ATL@@@@@ATL@@QAE@XZ
  00499	eb 0c		 jmp	 SHORT $LN80@SetThirdSu
$LN79@SetThirdSu:
; File C:\Program Files (x86)\Microsoft Visual Studio\2019\Community\VC\Tools\MSVC\14.29.30133\atlmfc\include\afxcoll.inl

; 321  : 		SetAtGrow(nIndex, newElement);

  0049b	51		 push	 ecx
  0049c	ff 77 6c	 push	 DWORD PTR [edi+108]
  0049f	8d 4f 64	 lea	 ecx, DWORD PTR [edi+100]
  004a2	e8 00 00 00 00	 call	 ?SetAtGrow@CStringArray@@QAEXHABV?$CStringT@DV?$StrTraitMFC_DLL@DV?$ChTraitsCRT@D@ATL@@@@@ATL@@@Z ; CStringArray::SetAtGrow
$LN80@SetThirdSu:
; File D:\git\src\IBK\IBK_DRFN\ProjSrc\SrcChartEx\ChartAddIn\ChartDesignPropertyAddIn\ChartDesignPropertyAddIn\SuperGridCtrl.h

; 36   : 	void SetControlType(CONTROLTYPE enumCtrlType, int nCol=-1){ m_controlType.SetAt(nCol, enumCtrlType); }

  004a7	8d 45 14	 lea	 eax, DWORD PTR _enumCtrlType$[ebp]
; File D:\git\src\IBK\IBK_DRFN\ProjSrc\SrcChartEx\ChartAddIn\ChartDesignPropertyAddIn\ChartDesignPropertyAddIn\PacketSuperGrid.cpp

; 505  : 	lpItemInfo->SetControlType(lpItemInfo->CONTROLTYPE::combobox, 2);

  004aa	c7 45 14 01 00
	00 00		 mov	 DWORD PTR _enumCtrlType$[ebp], 1
; File D:\git\src\IBK\IBK_DRFN\ProjSrc\SrcChartEx\ChartAddIn\ChartDesignPropertyAddIn\ChartDesignPropertyAddIn\SuperGridCtrl.h

; 36   : 	void SetControlType(CONTROLTYPE enumCtrlType, int nCol=-1){ m_controlType.SetAt(nCol, enumCtrlType); }

  004b1	50		 push	 eax
  004b2	6a 02		 push	 2
  004b4	8d 4f 0c	 lea	 ecx, DWORD PTR [edi+12]
  004b7	e8 00 00 00 00	 call	 ?SetAt@?$CMap@HHW4CONTROLTYPE@CItemInfo@@AAW412@@@QAEXHAAW4CONTROLTYPE@CItemInfo@@@Z ; CMap<int,int,enum CItemInfo::CONTROLTYPE,enum CItemInfo::CONTROLTYPE &>::SetAt
; File D:\git\src\IBK\IBK_DRFN\ProjSrc\SrcChartEx\ChartAddIn\ChartDesignPropertyAddIn\ChartDesignPropertyAddIn\PacketSuperGrid.cpp

; 506  : 	CStringList list;

  004bc	6a 0a		 push	 10			; 0000000aH
  004be	8d 4d d8	 lea	 ecx, DWORD PTR _list$4[ebp]
  004c1	e8 00 00 00 00	 call	 ??0CStringList@@QAE@H@Z	; CStringList::CStringList

; 507  : 	//initalized list for the edit
; 508  : 	list.AddTail("x 1000");

  004c6	68 00 00 00 00	 push	 OFFSET ??_C@_06CNPPABAP@x?51000@
  004cb	8d 4d d8	 lea	 ecx, DWORD PTR _list$4[ebp]
  004ce	c7 45 fc 05 00
	00 00		 mov	 DWORD PTR __$EHRec$[ebp+8], 5
  004d5	e8 00 00 00 00	 call	 ?AddTail@CStringList@@QAEPAU__POSITION@@PBD@Z ; CStringList::AddTail

; 509  : 	list.AddTail("x 1");

  004da	68 00 00 00 00	 push	 OFFSET ??_C@_03IOCAOJMC@x?51@
  004df	8d 4d d8	 lea	 ecx, DWORD PTR _list$4[ebp]
  004e2	e8 00 00 00 00	 call	 ?AddTail@CStringList@@QAEPAU__POSITION@@PBD@Z ; CStringList::AddTail

; 510  : 	list.AddTail("x 0.1");

  004e7	68 00 00 00 00	 push	 OFFSET ??_C@_05GMCIGKAN@x?50?41@
  004ec	8d 4d d8	 lea	 ecx, DWORD PTR _list$4[ebp]
  004ef	e8 00 00 00 00	 call	 ?AddTail@CStringList@@QAEPAU__POSITION@@PBD@Z ; CStringList::AddTail

; 511  : 	list.AddTail("x 0.01");

  004f4	68 00 00 00 00	 push	 OFFSET ??_C@_06LJECDJFC@x?50?401@
  004f9	8d 4d d8	 lea	 ecx, DWORD PTR _list$4[ebp]
  004fc	e8 00 00 00 00	 call	 ?AddTail@CStringList@@QAEPAU__POSITION@@PBD@Z ; CStringList::AddTail

; 512  : 	list.AddTail("x 0.001");

  00501	68 00 00 00 00	 push	 OFFSET ??_C@_07ECEDBPGE@x?50?4001@
  00506	8d 4d d8	 lea	 ecx, DWORD PTR _list$4[ebp]
  00509	e8 00 00 00 00	 call	 ?AddTail@CStringList@@QAEPAU__POSITION@@PBD@Z ; CStringList::AddTail

; 513  : 	list.AddTail("x 0.0001");

  0050e	68 00 00 00 00	 push	 OFFSET ??_C@_08INACILNL@x?50?40001@
  00513	8d 4d d8	 lea	 ecx, DWORD PTR _list$4[ebp]
  00516	e8 00 00 00 00	 call	 ?AddTail@CStringList@@QAEPAU__POSITION@@PBD@Z ; CStringList::AddTail

; 514  : 	list.AddTail("x 0.000001");

  0051b	68 00 00 00 00	 push	 OFFSET ??_C@_0L@ECCMEODJ@x?50?4000001@
  00520	8d 4d d8	 lea	 ecx, DWORD PTR _list$4[ebp]
  00523	e8 00 00 00 00	 call	 ?AddTail@CStringList@@QAEPAU__POSITION@@PBD@Z ; CStringList::AddTail

; 515  : 	list.AddTail("");

  00528	68 00 00 00 00	 push	 OFFSET ??_C@_00CNPNBAHC@@
  0052d	8d 4d d8	 lea	 ecx, DWORD PTR _list$4[ebp]
  00530	e8 00 00 00 00	 call	 ?AddTail@CStringList@@QAEPAU__POSITION@@PBD@Z ; CStringList::AddTail
; File C:\Program Files (x86)\Microsoft Visual Studio\2019\Community\VC\Tools\MSVC\14.29.30133\atlmfc\include\afx.inl

; 116  : 	{ return ::operator new(nSize); }

  00535	6a 1c		 push	 28			; 0000001cH
  00537	e8 00 00 00 00	 call	 ??2@YAPAXI@Z		; operator new
  0053c	83 c4 04	 add	 esp, 4
; File D:\git\src\IBK\IBK_DRFN\ProjSrc\SrcChartEx\ChartAddIn\ChartDesignPropertyAddIn\ChartDesignPropertyAddIn\SuperGridCtrl.h

; 51   : 		list = new CStringList;//will be deleted in destructor

  0053f	89 45 14	 mov	 DWORD PTR $T9[ebp], eax
  00542	c6 45 fc 06	 mov	 BYTE PTR __$EHRec$[ebp+8], 6
  00546	85 c0		 test	 eax, eax
  00548	74 14		 je	 SHORT $LN100@SetThirdSu
  0054a	6a 0a		 push	 10			; 0000000aH
  0054c	8b c8		 mov	 ecx, eax
  0054e	e8 00 00 00 00	 call	 ??0CStringList@@QAE@H@Z	; CStringList::CStringList
  00553	8b f0		 mov	 esi, eax
  00555	c6 45 fc 05	 mov	 BYTE PTR __$EHRec$[ebp+8], 5
; File D:\git\src\IBK\IBK_DRFN\ProjSrc\SrcChartEx\ChartAddIn\ChartDesignPropertyAddIn\ChartDesignPropertyAddIn\PacketSuperGrid.cpp

; 603  : 		SetThirdPRICEItem(szDefaultItemofCombo,lpItemInfo);

  00559	e9 ed fb ff ff	 jmp	 $LN173@SetThirdSu
$LN100@SetThirdSu:
; File D:\git\src\IBK\IBK_DRFN\ProjSrc\SrcChartEx\ChartAddIn\ChartDesignPropertyAddIn\ChartDesignPropertyAddIn\SuperGridCtrl.h

; 51   : 		list = new CStringList;//will be deleted in destructor

  0055e	33 f6		 xor	 esi, esi
  00560	c6 45 fc 05	 mov	 BYTE PTR __$EHRec$[ebp+8], 5
; File D:\git\src\IBK\IBK_DRFN\ProjSrc\SrcChartEx\ChartAddIn\ChartDesignPropertyAddIn\ChartDesignPropertyAddIn\PacketSuperGrid.cpp

; 603  : 		SetThirdPRICEItem(szDefaultItemofCombo,lpItemInfo);

  00564	e9 e2 fb ff ff	 jmp	 $LN173@SetThirdSu
$LN166@SetThirdSu:

; 604  : 	else if(type == CPacketSuperGrid::VOLUME)
; 605  : 		SetThirdVOLUMEItem(szPacketName,szDefaultItemofCombo, lpItemInfo);

  00569	ff 75 14	 push	 DWORD PTR _lpItemInfo$[ebp]
  0056c	ff 75 0c	 push	 DWORD PTR _szDefaultItemofCombo$[ebp]
  0056f	ff 75 10	 push	 DWORD PTR _szPacketName$[ebp]
  00572	e8 00 00 00 00	 call	 ?SetThirdVOLUMEItem@CPacketSuperGrid@@AAEXABV?$CStringT@DV?$StrTraitMFC_DLL@DV?$ChTraitsCRT@D@ATL@@@@@ATL@@0PAVCItemInfo@@@Z ; CPacketSuperGrid::SetThirdVOLUMEItem

; 638  : }

  00577	8b 4d f4	 mov	 ecx, DWORD PTR __$EHRec$[ebp]
  0057a	64 89 0d 00 00
	00 00		 mov	 DWORD PTR fs:0, ecx
  00581	59		 pop	 ecx
  00582	5f		 pop	 edi
  00583	5e		 pop	 esi
  00584	5b		 pop	 ebx
  00585	8b e5		 mov	 esp, ebp
  00587	5d		 pop	 ebp
  00588	c2 10 00	 ret	 16			; 00000010H
$LN8@SetThirdSu:

; 606  : 	else if(type == CPacketSuperGrid::STOCKMULTIPLE)

  0058b	8b 4d 14	 mov	 ecx, DWORD PTR _lpItemInfo$[ebp]
; File C:\Program Files (x86)\Microsoft Visual Studio\2019\Community\VC\Tools\MSVC\14.29.30133\atlmfc\include\afxcoll.inl

; 321  : 		SetAtGrow(nIndex, newElement);

  0058e	ff 75 0c	 push	 DWORD PTR _szDefaultItemofCombo$[ebp]
; File D:\git\src\IBK\IBK_DRFN\ProjSrc\SrcChartEx\ChartAddIn\ChartDesignPropertyAddIn\ChartDesignPropertyAddIn\PacketSuperGrid.cpp

; 606  : 	else if(type == CPacketSuperGrid::STOCKMULTIPLE)

  00591	83 c1 64	 add	 ecx, 100		; 00000064H
; File C:\Program Files (x86)\Microsoft Visual Studio\2019\Community\VC\Tools\MSVC\14.29.30133\atlmfc\include\afxcoll.inl

; 321  : 		SetAtGrow(nIndex, newElement);

  00594	ff 71 08	 push	 DWORD PTR [ecx+8]
$LN172@SetThirdSu:
; File D:\git\src\IBK\IBK_DRFN\ProjSrc\SrcChartEx\ChartAddIn\ChartDesignPropertyAddIn\ChartDesignPropertyAddIn\PacketSuperGrid.cpp

; 638  : }

  00597	e8 00 00 00 00	 call	 ?SetAtGrow@CStringArray@@QAEXHABV?$CStringT@DV?$StrTraitMFC_DLL@DV?$ChTraitsCRT@D@ATL@@@@@ATL@@@Z ; CStringArray::SetAtGrow
  0059c	8b 4d f4	 mov	 ecx, DWORD PTR __$EHRec$[ebp]
  0059f	64 89 0d 00 00
	00 00		 mov	 DWORD PTR fs:0, ecx
  005a6	59		 pop	 ecx
  005a7	5f		 pop	 edi
  005a8	5e		 pop	 esi
  005a9	5b		 pop	 ebx
  005aa	8b e5		 mov	 esp, ebp
  005ac	5d		 pop	 ebp
  005ad	c2 10 00	 ret	 16			; 00000010H
$LN170@SetThirdSu:
  005b0	00 00 00 00	 DD	 $LN163@SetThirdSu
  005b4	00 00 00 00	 DD	 $LN164@SetThirdSu
  005b8	00 00 00 00	 DD	 $LN165@SetThirdSu
  005bc	00 00 00 00	 DD	 $LN166@SetThirdSu
  005c0	00 00 00 00	 DD	 $LN30@SetThirdSu
  005c4	00 00 00 00	 DD	 $LN31@SetThirdSu
  005c8	00 00 00 00	 DD	 $LN8@SetThirdSu
$LN169@SetThirdSu:
  005cc	00		 DB	 0
  005cd	00		 DB	 0
  005ce	01		 DB	 1
  005cf	02		 DB	 2
  005d0	02		 DB	 2
  005d1	02		 DB	 2
  005d2	02		 DB	 2
  005d3	03		 DB	 3
  005d4	03		 DB	 3
  005d5	06		 DB	 6
  005d6	04		 DB	 4
  005d7	05		 DB	 5
  005d8	06		 DB	 6
  005d9	06		 DB	 6
  005da	06		 DB	 6
  005db	06		 DB	 6
  005dc	06		 DB	 6
  005dd	03		 DB	 3
  005de	03		 DB	 3
  005df	03		 DB	 3
_TEXT	ENDS
;	COMDAT text$x
text$x	SEGMENT
__unwindfunclet$?SetThirdSubItem@CPacketSuperGrid@@AAEXHABV?$CStringT@DV?$StrTraitMFC_DLL@DV?$ChTraitsCRT@D@ATL@@@@@ATL@@0PAVCItemInfo@@@Z$7:
  00000	8d 4d 14	 lea	 ecx, DWORD PTR $T10[ebp]
  00003	ff 25 00 00 00
	00		 jmp	 DWORD PTR __imp_??1?$CStringT@DV?$StrTraitMFC_DLL@DV?$ChTraitsCRT@D@ATL@@@@@ATL@@QAE@XZ
__unwindfunclet$?SetThirdSubItem@CPacketSuperGrid@@AAEXHABV?$CStringT@DV?$StrTraitMFC_DLL@DV?$ChTraitsCRT@D@ATL@@@@@ATL@@0PAVCItemInfo@@@Z$8:
  00009	8d 4d d8	 lea	 ecx, DWORD PTR _list$3[ebp]
  0000c	e9 00 00 00 00	 jmp	 ??1CStringList@@UAE@XZ	; CStringList::~CStringList
__unwindfunclet$?SetThirdSubItem@CPacketSuperGrid@@AAEXHABV?$CStringT@DV?$StrTraitMFC_DLL@DV?$ChTraitsCRT@D@ATL@@@@@ATL@@0PAVCItemInfo@@@Z$9:
  00011	8b 45 14	 mov	 eax, DWORD PTR $T7[ebp]
  00014	50		 push	 eax
  00015	e8 00 00 00 00	 call	 ??3CObject@@SGXPAX@Z	; CObject::operator delete
  0001a	c3		 ret	 0
__unwindfunclet$?SetThirdSubItem@CPacketSuperGrid@@AAEXHABV?$CStringT@DV?$StrTraitMFC_DLL@DV?$ChTraitsCRT@D@ATL@@@@@ATL@@0PAVCItemInfo@@@Z$10:
  0001b	8d 4d 14	 lea	 ecx, DWORD PTR $T8[ebp]
  0001e	ff 25 00 00 00
	00		 jmp	 DWORD PTR __imp_??1?$CStringT@DV?$StrTraitMFC_DLL@DV?$ChTraitsCRT@D@ATL@@@@@ATL@@QAE@XZ
__unwindfunclet$?SetThirdSubItem@CPacketSuperGrid@@AAEXHABV?$CStringT@DV?$StrTraitMFC_DLL@DV?$ChTraitsCRT@D@ATL@@@@@ATL@@0PAVCItemInfo@@@Z$11:
  00024	8d 4d bc	 lea	 ecx, DWORD PTR _list$2[ebp]
  00027	e9 00 00 00 00	 jmp	 ??1CStringList@@UAE@XZ	; CStringList::~CStringList
__unwindfunclet$?SetThirdSubItem@CPacketSuperGrid@@AAEXHABV?$CStringT@DV?$StrTraitMFC_DLL@DV?$ChTraitsCRT@D@ATL@@@@@ATL@@0PAVCItemInfo@@@Z$12:
  0002c	8b 45 14	 mov	 eax, DWORD PTR $T6[ebp]
  0002f	50		 push	 eax
  00030	e8 00 00 00 00	 call	 ??3CObject@@SGXPAX@Z	; CObject::operator delete
  00035	c3		 ret	 0
__unwindfunclet$?SetThirdSubItem@CPacketSuperGrid@@AAEXHABV?$CStringT@DV?$StrTraitMFC_DLL@DV?$ChTraitsCRT@D@ATL@@@@@ATL@@0PAVCItemInfo@@@Z$0:
  00036	8d 4d 14	 lea	 ecx, DWORD PTR $T14[ebp]
  00039	ff 25 00 00 00
	00		 jmp	 DWORD PTR __imp_??1?$CStringT@DV?$StrTraitMFC_DLL@DV?$ChTraitsCRT@D@ATL@@@@@ATL@@QAE@XZ
__unwindfunclet$?SetThirdSubItem@CPacketSuperGrid@@AAEXHABV?$CStringT@DV?$StrTraitMFC_DLL@DV?$ChTraitsCRT@D@ATL@@@@@ATL@@0PAVCItemInfo@@@Z$1:
  0003f	8d 4d d8	 lea	 ecx, DWORD PTR _list$5[ebp]
  00042	e9 00 00 00 00	 jmp	 ??1CStringList@@UAE@XZ	; CStringList::~CStringList
__unwindfunclet$?SetThirdSubItem@CPacketSuperGrid@@AAEXHABV?$CStringT@DV?$StrTraitMFC_DLL@DV?$ChTraitsCRT@D@ATL@@@@@ATL@@0PAVCItemInfo@@@Z$2:
  00047	8b 45 14	 mov	 eax, DWORD PTR $T11[ebp]
  0004a	50		 push	 eax
  0004b	e8 00 00 00 00	 call	 ??3CObject@@SGXPAX@Z	; CObject::operator delete
  00050	c3		 ret	 0
__unwindfunclet$?SetThirdSubItem@CPacketSuperGrid@@AAEXHABV?$CStringT@DV?$StrTraitMFC_DLL@DV?$ChTraitsCRT@D@ATL@@@@@ATL@@0PAVCItemInfo@@@Z$3:
  00051	8d 4d 14	 lea	 ecx, DWORD PTR $T13[ebp]
  00054	ff 25 00 00 00
	00		 jmp	 DWORD PTR __imp_??1?$CStringT@DV?$StrTraitMFC_DLL@DV?$ChTraitsCRT@D@ATL@@@@@ATL@@QAE@XZ
__unwindfunclet$?SetThirdSubItem@CPacketSuperGrid@@AAEXHABV?$CStringT@DV?$StrTraitMFC_DLL@DV?$ChTraitsCRT@D@ATL@@@@@ATL@@0PAVCItemInfo@@@Z$4:
  0005a	8d 4d 14	 lea	 ecx, DWORD PTR $T12[ebp]
  0005d	ff 25 00 00 00
	00		 jmp	 DWORD PTR __imp_??1?$CStringT@DV?$StrTraitMFC_DLL@DV?$ChTraitsCRT@D@ATL@@@@@ATL@@QAE@XZ
__unwindfunclet$?SetThirdSubItem@CPacketSuperGrid@@AAEXHABV?$CStringT@DV?$StrTraitMFC_DLL@DV?$ChTraitsCRT@D@ATL@@@@@ATL@@0PAVCItemInfo@@@Z$5:
  00063	8d 4d d8	 lea	 ecx, DWORD PTR _list$4[ebp]
  00066	e9 00 00 00 00	 jmp	 ??1CStringList@@UAE@XZ	; CStringList::~CStringList
__unwindfunclet$?SetThirdSubItem@CPacketSuperGrid@@AAEXHABV?$CStringT@DV?$StrTraitMFC_DLL@DV?$ChTraitsCRT@D@ATL@@@@@ATL@@0PAVCItemInfo@@@Z$6:
  0006b	8b 45 14	 mov	 eax, DWORD PTR $T9[ebp]
  0006e	50		 push	 eax
  0006f	e8 00 00 00 00	 call	 ??3CObject@@SGXPAX@Z	; CObject::operator delete
  00074	c3		 ret	 0
  00075	cc		 int	 3
  00076	cc		 int	 3
  00077	cc		 int	 3
  00078	cc		 int	 3
  00079	cc		 int	 3
__ehhandler$?SetThirdSubItem@CPacketSuperGrid@@AAEXHABV?$CStringT@DV?$StrTraitMFC_DLL@DV?$ChTraitsCRT@D@ATL@@@@@ATL@@0PAVCItemInfo@@@Z:
  0007a	90		 npad	 1
  0007b	90		 npad	 1
  0007c	8b 54 24 08	 mov	 edx, DWORD PTR [esp+8]
  00080	8d 42 0c	 lea	 eax, DWORD PTR [edx+12]
  00083	8b 4a b8	 mov	 ecx, DWORD PTR [edx-72]
  00086	33 c8		 xor	 ecx, eax
  00088	e8 00 00 00 00	 call	 @__security_check_cookie@4
  0008d	b8 00 00 00 00	 mov	 eax, OFFSET __ehfuncinfo$?SetThirdSubItem@CPacketSuperGrid@@AAEXHABV?$CStringT@DV?$StrTraitMFC_DLL@DV?$ChTraitsCRT@D@ATL@@@@@ATL@@0PAVCItemInfo@@@Z
  00092	e9 00 00 00 00	 jmp	 ___CxxFrameHandler3
text$x	ENDS
?SetThirdSubItem@CPacketSuperGrid@@AAEXHABV?$CStringT@DV?$StrTraitMFC_DLL@DV?$ChTraitsCRT@D@ATL@@@@@ATL@@0PAVCItemInfo@@@Z ENDP ; CPacketSuperGrid::SetThirdSubItem
; Function compile flags: /Ogtp
; File D:\git\src\IBK\IBK_DRFN\ProjSrc\SrcChartEx\ChartAddIn\ChartDesignPropertyAddIn\ChartDesignPropertyAddIn\PacketSuperGrid.cpp
; File D:\git\src\IBK\IBK_DRFN\ProjSrc\SrcChartEx\ChartAddIn\ChartDesignPropertyAddIn\ChartDesignPropertyAddIn\SuperGridCtrl.h
; File C:\Program Files (x86)\Microsoft Visual Studio\2019\Community\VC\Tools\MSVC\14.29.30133\atlmfc\include\afxcoll.inl
; File D:\git\src\IBK\IBK_DRFN\ProjSrc\SrcChartEx\ChartAddIn\ChartDesignPropertyAddIn\ChartDesignPropertyAddIn\SuperGridCtrl.h
; File D:\git\src\IBK\IBK_DRFN\ProjSrc\SrcChartEx\ChartAddIn\ChartDesignPropertyAddIn\ChartDesignPropertyAddIn\PacketSuperGrid.cpp
; File C:\Program Files (x86)\Microsoft Visual Studio\2019\Community\VC\Tools\MSVC\14.29.30133\atlmfc\include\afxcoll.inl
; File D:\git\src\IBK\IBK_DRFN\ProjSrc\SrcChartEx\ChartAddIn\ChartDesignPropertyAddIn\ChartDesignPropertyAddIn\PacketSuperGrid.cpp
;	COMDAT ?SetSubItem@CPacketSuperGrid@@AAEXHABV?$CStringT@DV?$StrTraitMFC_DLL@DV?$ChTraitsCRT@D@ATL@@@@@ATL@@PAVCItemInfo@@@Z
_TEXT	SEGMENT
$T2 = -24						; size = 4
$T3 = -20						; size = 4
$T4 = -16						; size = 4
__$EHRec$ = -12						; size = 12
_nItemIndex$ = 8					; size = 4
_szPacketName$ = 12					; size = 4
_lpItemInfo$ = 16					; size = 4
?SetSubItem@CPacketSuperGrid@@AAEXHABV?$CStringT@DV?$StrTraitMFC_DLL@DV?$ChTraitsCRT@D@ATL@@@@@ATL@@PAVCItemInfo@@@Z PROC ; CPacketSuperGrid::SetSubItem, COMDAT
; _this$ = ecx

; 416  : {

  00000	55		 push	 ebp
  00001	8b ec		 mov	 ebp, esp
  00003	6a ff		 push	 -1
  00005	68 00 00 00 00	 push	 __ehhandler$?SetSubItem@CPacketSuperGrid@@AAEXHABV?$CStringT@DV?$StrTraitMFC_DLL@DV?$ChTraitsCRT@D@ATL@@@@@ATL@@PAVCItemInfo@@@Z
  0000a	64 a1 00 00 00
	00		 mov	 eax, DWORD PTR fs:0
  00010	50		 push	 eax
  00011	83 ec 0c	 sub	 esp, 12			; 0000000cH
  00014	53		 push	 ebx
  00015	56		 push	 esi
  00016	57		 push	 edi
  00017	a1 00 00 00 00	 mov	 eax, DWORD PTR ___security_cookie
  0001c	33 c5		 xor	 eax, ebp
  0001e	50		 push	 eax
  0001f	8d 45 f4	 lea	 eax, DWORD PTR __$EHRec$[ebp]
  00022	64 a3 00 00 00
	00		 mov	 DWORD PTR fs:0, eax
  00028	8b d9		 mov	 ebx, ecx

; 417  : 	int nCol = GetNumCol();

  0002a	e8 00 00 00 00	 call	 ?GetNumCol@CSuperGridCtrl@@QAEHXZ ; CSuperGridCtrl::GetNumCol
  0002f	8b f8		 mov	 edi, eax

; 418  : 	for(int y=0 ;  y < nCol ; y++) {

  00031	33 f6		 xor	 esi, esi
  00033	85 ff		 test	 edi, edi
  00035	0f 8e c6 00 00
	00		 jle	 $LN3@SetSubItem
  0003b	0f 1f 44 00 00	 npad	 5
$LL4@SetSubItem:

; 419  : 		switch(y) {

  00040	83 fe 03	 cmp	 esi, 3
  00043	0f 87 af 00 00
	00		 ja	 $LN2@SetSubItem
  00049	ff 24 b5 00 00
	00 00		 jmp	 DWORD PTR $LN23@SetSubItem[esi*4]
$LN7@SetSubItem:

; 422  : 				lpItemInfo->AddSubItemText(_T(""));     // 1 zero based subitems...

  00050	68 00 00 00 00	 push	 OFFSET ??_C@_00CNPNBAHC@@
  00055	8d 4d f0	 lea	 ecx, DWORD PTR $T4[ebp]
  00058	ff 15 00 00 00
	00		 call	 DWORD PTR __imp_??0?$CStringT@DV?$StrTraitMFC_DLL@DV?$ChTraitsCRT@D@ATL@@@@@ATL@@QAE@PBD@Z
; File D:\git\src\IBK\IBK_DRFN\ProjSrc\SrcChartEx\ChartAddIn\ChartDesignPropertyAddIn\ChartDesignPropertyAddIn\SuperGridCtrl.h

; 17   : 	void AddSubItemText(const CString& strSubItem){ m_SubItems.Add(strSubItem); }

  0005e	8b 4d 10	 mov	 ecx, DWORD PTR _lpItemInfo$[ebp]
; File C:\Program Files (x86)\Microsoft Visual Studio\2019\Community\VC\Tools\MSVC\14.29.30133\atlmfc\include\afxcoll.inl

; 321  : 		SetAtGrow(nIndex, newElement);

  00061	8d 45 f0	 lea	 eax, DWORD PTR $T4[ebp]
; File D:\git\src\IBK\IBK_DRFN\ProjSrc\SrcChartEx\ChartAddIn\ChartDesignPropertyAddIn\ChartDesignPropertyAddIn\SuperGridCtrl.h

; 17   : 	void AddSubItemText(const CString& strSubItem){ m_SubItems.Add(strSubItem); }

  00064	83 c1 64	 add	 ecx, 100		; 00000064H
; File D:\git\src\IBK\IBK_DRFN\ProjSrc\SrcChartEx\ChartAddIn\ChartDesignPropertyAddIn\ChartDesignPropertyAddIn\PacketSuperGrid.cpp

; 422  : 				lpItemInfo->AddSubItemText(_T(""));     // 1 zero based subitems...

  00067	c7 45 fc 00 00
	00 00		 mov	 DWORD PTR __$EHRec$[ebp+8], 0
; File C:\Program Files (x86)\Microsoft Visual Studio\2019\Community\VC\Tools\MSVC\14.29.30133\atlmfc\include\afxcoll.inl

; 321  : 		SetAtGrow(nIndex, newElement);

  0006e	50		 push	 eax
  0006f	ff 71 08	 push	 DWORD PTR [ecx+8]
  00072	e8 00 00 00 00	 call	 ?SetAtGrow@CStringArray@@QAEXHABV?$CStringT@DV?$StrTraitMFC_DLL@DV?$ChTraitsCRT@D@ATL@@@@@ATL@@@Z ; CStringArray::SetAtGrow
; File D:\git\src\IBK\IBK_DRFN\ProjSrc\SrcChartEx\ChartAddIn\ChartDesignPropertyAddIn\ChartDesignPropertyAddIn\PacketSuperGrid.cpp

; 422  : 				lpItemInfo->AddSubItemText(_T(""));     // 1 zero based subitems...

  00077	8d 4d f0	 lea	 ecx, DWORD PTR $T4[ebp]

; 423  : 				break;

  0007a	eb 6f		 jmp	 SHORT $LN25@SetSubItem
$LN9@SetSubItem:

; 424  : 			case 2:
; 425  : 				SetThirdSubItem(nItemIndex,"",szPacketName, lpItemInfo);

  0007c	68 00 00 00 00	 push	 OFFSET ??_C@_00CNPNBAHC@@
  00081	8d 4d ec	 lea	 ecx, DWORD PTR $T3[ebp]
  00084	ff 15 00 00 00
	00		 call	 DWORD PTR __imp_??0?$CStringT@DV?$StrTraitMFC_DLL@DV?$ChTraitsCRT@D@ATL@@@@@ATL@@QAE@PBD@Z
  0008a	ff 75 10	 push	 DWORD PTR _lpItemInfo$[ebp]
  0008d	8d 45 ec	 lea	 eax, DWORD PTR $T3[ebp]
  00090	c7 45 fc 01 00
	00 00		 mov	 DWORD PTR __$EHRec$[ebp+8], 1
  00097	ff 75 0c	 push	 DWORD PTR _szPacketName$[ebp]
  0009a	8b cb		 mov	 ecx, ebx
  0009c	50		 push	 eax
  0009d	ff 75 08	 push	 DWORD PTR _nItemIndex$[ebp]
  000a0	e8 00 00 00 00	 call	 ?SetThirdSubItem@CPacketSuperGrid@@AAEXHABV?$CStringT@DV?$StrTraitMFC_DLL@DV?$ChTraitsCRT@D@ATL@@@@@ATL@@0PAVCItemInfo@@@Z ; CPacketSuperGrid::SetThirdSubItem
  000a5	8d 4d ec	 lea	 ecx, DWORD PTR $T3[ebp]

; 426  : 				break;

  000a8	eb 41		 jmp	 SHORT $LN25@SetSubItem
$LN10@SetSubItem:

; 427  : 			case 3:
; 428  : 				SetFourSubItem( _LTEXT6( C6_NO), lpItemInfo);

  000aa	a1 54 00 00 00	 mov	 eax, DWORD PTR ?g_iMetaTable@@3VIMetaTable@@A+84
  000af	b9 00 00 00 00	 mov	 ecx, OFFSET ?g_iMetaTable@@3VIMetaTable@@A ; g_iMetaTable
  000b4	6a 00		 push	 0
  000b6	ff b0 68 09 00
	00		 push	 DWORD PTR [eax+2408]
  000bc	6a 06		 push	 6
  000be	ff b3 f4 00 00
	00		 push	 DWORD PTR [ebx+244]
  000c4	e8 00 00 00 00	 call	 ?GetLanguageText@IMetaTable@@QAEPBDPAUHWND__@@W4E_CODEPAGE@1@PBDH@Z ; IMetaTable::GetLanguageText
  000c9	50		 push	 eax
  000ca	8d 4d e8	 lea	 ecx, DWORD PTR $T2[ebp]
  000cd	ff 15 00 00 00
	00		 call	 DWORD PTR __imp_??0?$CStringT@DV?$StrTraitMFC_DLL@DV?$ChTraitsCRT@D@ATL@@@@@ATL@@QAE@PBD@Z
  000d3	ff 75 10	 push	 DWORD PTR _lpItemInfo$[ebp]
  000d6	8d 45 e8	 lea	 eax, DWORD PTR $T2[ebp]
  000d9	c7 45 fc 02 00
	00 00		 mov	 DWORD PTR __$EHRec$[ebp+8], 2
  000e0	50		 push	 eax
  000e1	8b cb		 mov	 ecx, ebx
  000e3	e8 00 00 00 00	 call	 ?SetFourSubItem@CPacketSuperGrid@@AAEXABV?$CStringT@DV?$StrTraitMFC_DLL@DV?$ChTraitsCRT@D@ATL@@@@@ATL@@PAVCItemInfo@@@Z ; CPacketSuperGrid::SetFourSubItem
  000e8	8d 4d e8	 lea	 ecx, DWORD PTR $T2[ebp]
$LN25@SetSubItem:

; 418  : 	for(int y=0 ;  y < nCol ; y++) {

  000eb	c7 45 fc ff ff
	ff ff		 mov	 DWORD PTR __$EHRec$[ebp+8], -1
  000f2	ff 15 00 00 00
	00		 call	 DWORD PTR __imp_??1?$CStringT@DV?$StrTraitMFC_DLL@DV?$ChTraitsCRT@D@ATL@@@@@ATL@@QAE@XZ
$LN2@SetSubItem:
  000f8	46		 inc	 esi
  000f9	3b f7		 cmp	 esi, edi
  000fb	0f 8c 3f ff ff
	ff		 jl	 $LL4@SetSubItem
$LN3@SetSubItem:

; 429  : 				break;
; 430  : 		}
; 431  : 	}
; 432  : }

  00101	8b 4d f4	 mov	 ecx, DWORD PTR __$EHRec$[ebp]
  00104	64 89 0d 00 00
	00 00		 mov	 DWORD PTR fs:0, ecx
  0010b	59		 pop	 ecx
  0010c	5f		 pop	 edi
  0010d	5e		 pop	 esi
  0010e	5b		 pop	 ebx
  0010f	8b e5		 mov	 esp, ebp
  00111	5d		 pop	 ebp
  00112	c2 0c 00	 ret	 12			; 0000000cH
  00115	0f 1f 00	 npad	 3
$LN23@SetSubItem:
  00118	00 00 00 00	 DD	 $LN7@SetSubItem
  0011c	00 00 00 00	 DD	 $LN7@SetSubItem
  00120	00 00 00 00	 DD	 $LN9@SetSubItem
  00124	00 00 00 00	 DD	 $LN10@SetSubItem
_TEXT	ENDS
;	COMDAT text$x
text$x	SEGMENT
__unwindfunclet$?SetSubItem@CPacketSuperGrid@@AAEXHABV?$CStringT@DV?$StrTraitMFC_DLL@DV?$ChTraitsCRT@D@ATL@@@@@ATL@@PAVCItemInfo@@@Z$0:
  00000	8d 4d f0	 lea	 ecx, DWORD PTR $T4[ebp]
  00003	ff 25 00 00 00
	00		 jmp	 DWORD PTR __imp_??1?$CStringT@DV?$StrTraitMFC_DLL@DV?$ChTraitsCRT@D@ATL@@@@@ATL@@QAE@XZ
__unwindfunclet$?SetSubItem@CPacketSuperGrid@@AAEXHABV?$CStringT@DV?$StrTraitMFC_DLL@DV?$ChTraitsCRT@D@ATL@@@@@ATL@@PAVCItemInfo@@@Z$1:
  00009	8d 4d ec	 lea	 ecx, DWORD PTR $T3[ebp]
  0000c	ff 25 00 00 00
	00		 jmp	 DWORD PTR __imp_??1?$CStringT@DV?$StrTraitMFC_DLL@DV?$ChTraitsCRT@D@ATL@@@@@ATL@@QAE@XZ
__unwindfunclet$?SetSubItem@CPacketSuperGrid@@AAEXHABV?$CStringT@DV?$StrTraitMFC_DLL@DV?$ChTraitsCRT@D@ATL@@@@@ATL@@PAVCItemInfo@@@Z$2:
  00012	8d 4d e8	 lea	 ecx, DWORD PTR $T2[ebp]
  00015	ff 25 00 00 00
	00		 jmp	 DWORD PTR __imp_??1?$CStringT@DV?$StrTraitMFC_DLL@DV?$ChTraitsCRT@D@ATL@@@@@ATL@@QAE@XZ
  0001b	cc		 int	 3
  0001c	cc		 int	 3
  0001d	cc		 int	 3
  0001e	cc		 int	 3
  0001f	cc		 int	 3
__ehhandler$?SetSubItem@CPacketSuperGrid@@AAEXHABV?$CStringT@DV?$StrTraitMFC_DLL@DV?$ChTraitsCRT@D@ATL@@@@@ATL@@PAVCItemInfo@@@Z:
  00020	90		 npad	 1
  00021	90		 npad	 1
  00022	8b 54 24 08	 mov	 edx, DWORD PTR [esp+8]
  00026	8d 42 0c	 lea	 eax, DWORD PTR [edx+12]
  00029	8b 4a e4	 mov	 ecx, DWORD PTR [edx-28]
  0002c	33 c8		 xor	 ecx, eax
  0002e	e8 00 00 00 00	 call	 @__security_check_cookie@4
  00033	b8 00 00 00 00	 mov	 eax, OFFSET __ehfuncinfo$?SetSubItem@CPacketSuperGrid@@AAEXHABV?$CStringT@DV?$StrTraitMFC_DLL@DV?$ChTraitsCRT@D@ATL@@@@@ATL@@PAVCItemInfo@@@Z
  00038	e9 00 00 00 00	 jmp	 ___CxxFrameHandler3
text$x	ENDS
?SetSubItem@CPacketSuperGrid@@AAEXHABV?$CStringT@DV?$StrTraitMFC_DLL@DV?$ChTraitsCRT@D@ATL@@@@@ATL@@PAVCItemInfo@@@Z ENDP ; CPacketSuperGrid::SetSubItem
; Function compile flags: /Ogtp
; File D:\git\src\IBK\IBK_DRFN\ProjSrc\SrcChartEx\ChartAddIn\ChartDesignPropertyAddIn\ChartDesignPropertyAddIn\PacketSuperGrid.cpp
; File D:\git\src\IBK\IBK_DRFN\ProjSrc\SrcChartEx\ChartAddIn\ChartDesignPropertyAddIn\ChartDesignPropertyAddIn\SuperGridCtrl.h
; File D:\git\src\IBK\IBK_DRFN\ProjSrc\SrcChartEx\ChartAddIn\ChartDesignPropertyAddIn\ChartDesignPropertyAddIn\PacketSuperGrid.cpp
; File D:\git\src\IBK\IBK_DRFN\ProjSrc\SrcChartEx\ChartAddIn\ChartDesignPropertyAddIn\ChartDesignPropertyAddIn\SuperGridCtrl.h
; File D:\git\src\IBK\IBK_DRFN\ProjSrc\SrcChartEx\ChartAddIn\ChartDesignPropertyAddIn\ChartDesignPropertyAddIn\PacketSuperGrid.cpp
; File C:\Program Files (x86)\Microsoft Visual Studio\2019\Community\VC\Tools\MSVC\14.29.30133\atlmfc\include\afxcoll.inl
; File D:\git\src\IBK\IBK_DRFN\ProjSrc\SrcChartEx\ChartAddIn\ChartDesignPropertyAddIn\ChartDesignPropertyAddIn\PacketSuperGrid.cpp
; File C:\Program Files (x86)\Microsoft Visual Studio\2019\Community\VC\Tools\MSVC\14.29.30133\atlmfc\include\afxcoll.inl
; File D:\git\src\IBK\IBK_DRFN\ProjSrc\SrcChartEx\ChartAddIn\ChartDesignPropertyAddIn\ChartDesignPropertyAddIn\PacketSuperGrid.cpp
; File C:\Program Files (x86)\Microsoft Visual Studio\2019\Community\VC\Tools\MSVC\14.29.30133\atlmfc\include\afxcoll.inl
; File D:\git\src\IBK\IBK_DRFN\ProjSrc\SrcChartEx\ChartAddIn\ChartDesignPropertyAddIn\ChartDesignPropertyAddIn\PacketSuperGrid.cpp
; File C:\Program Files (x86)\Microsoft Visual Studio\2019\Community\VC\Tools\MSVC\14.29.30133\atlmfc\include\afxcoll.inl
; File D:\git\src\IBK\IBK_DRFN\ProjSrc\SrcChartEx\ChartAddIn\ChartDesignPropertyAddIn\ChartDesignPropertyAddIn\PacketSuperGrid.cpp
; File C:\Program Files (x86)\Microsoft Visual Studio\2019\Community\VC\Tools\MSVC\14.29.30133\atlmfc\include\afxcoll.inl
; File D:\git\src\IBK\IBK_DRFN\ProjSrc\SrcChartEx\ChartAddIn\ChartDesignPropertyAddIn\ChartDesignPropertyAddIn\PacketSuperGrid.cpp
; File C:\Program Files (x86)\Microsoft Visual Studio\2019\Community\VC\Tools\MSVC\14.29.30133\atlmfc\include\afxcoll.inl
; File D:\git\src\IBK\IBK_DRFN\ProjSrc\SrcChartEx\ChartAddIn\ChartDesignPropertyAddIn\ChartDesignPropertyAddIn\PacketSuperGrid.cpp
; File C:\Program Files (x86)\Microsoft Visual Studio\2019\Community\VC\Tools\MSVC\14.29.30133\atlmfc\include\afxcoll.inl
; File D:\git\src\IBK\IBK_DRFN\ProjSrc\SrcChartEx\ChartAddIn\ChartDesignPropertyAddIn\ChartDesignPropertyAddIn\PacketSuperGrid.cpp
;	COMDAT ?SetRootItem@CPacketSuperGrid@@AAEXABV?$CStringT@DV?$StrTraitMFC_DLL@DV?$ChTraitsCRT@D@ATL@@@@@ATL@@PAVCItemInfo@@@Z
_TEXT	SEGMENT
__$EHRec$ = -12						; size = 12
$T2 = 8							; size = 4
$T3 = 8							; size = 4
$T4 = 8							; size = 4
_szItemName$ = 8					; size = 4
$T5 = 12						; size = 4
_lpItemInfo$ = 12					; size = 4
?SetRootItem@CPacketSuperGrid@@AAEXABV?$CStringT@DV?$StrTraitMFC_DLL@DV?$ChTraitsCRT@D@ATL@@@@@ATL@@PAVCItemInfo@@@Z PROC ; CPacketSuperGrid::SetRootItem, COMDAT
; _this$ = ecx

; 652  : {

  00000	55		 push	 ebp
  00001	8b ec		 mov	 ebp, esp
  00003	6a ff		 push	 -1
  00005	68 00 00 00 00	 push	 __ehhandler$?SetRootItem@CPacketSuperGrid@@AAEXABV?$CStringT@DV?$StrTraitMFC_DLL@DV?$ChTraitsCRT@D@ATL@@@@@ATL@@PAVCItemInfo@@@Z
  0000a	64 a1 00 00 00
	00		 mov	 eax, DWORD PTR fs:0
  00010	50		 push	 eax
  00011	56		 push	 esi
  00012	a1 00 00 00 00	 mov	 eax, DWORD PTR ___security_cookie
  00017	33 c5		 xor	 eax, ebp
  00019	50		 push	 eax
  0001a	8d 45 f4	 lea	 eax, DWORD PTR __$EHRec$[ebp]
  0001d	64 a3 00 00 00
	00		 mov	 DWORD PTR fs:0, eax
; File D:\git\src\IBK\IBK_DRFN\ProjSrc\SrcChartEx\ChartAddIn\ChartDesignPropertyAddIn\ChartDesignPropertyAddIn\SuperGridCtrl.h

; 15   : 	void SetItemText(const CString& strItem){ m_strItemName = strItem; }

  00023	8b 75 0c	 mov	 esi, DWORD PTR _lpItemInfo$[ebp]
  00026	ff 75 08	 push	 DWORD PTR _szItemName$[ebp]
  00029	8d 4e 60	 lea	 ecx, DWORD PTR [esi+96]
  0002c	ff 15 00 00 00
	00		 call	 DWORD PTR __imp_??4?$CStringT@DV?$StrTraitMFC_DLL@DV?$ChTraitsCRT@D@ATL@@@@@ATL@@QAEAAV01@ABV01@@Z
; File D:\git\src\IBK\IBK_DRFN\ProjSrc\SrcChartEx\ChartAddIn\ChartDesignPropertyAddIn\ChartDesignPropertyAddIn\PacketSuperGrid.cpp

; 656  : 	lpItemInfo->AddSubItemText(_T(""));      // 0 zero based subitems...

  00032	68 00 00 00 00	 push	 OFFSET ??_C@_00CNPNBAHC@@
  00037	8d 4d 08	 lea	 ecx, DWORD PTR $T4[ebp]
  0003a	ff 15 00 00 00
	00		 call	 DWORD PTR __imp_??0?$CStringT@DV?$StrTraitMFC_DLL@DV?$ChTraitsCRT@D@ATL@@@@@ATL@@QAE@PBD@Z
; File D:\git\src\IBK\IBK_DRFN\ProjSrc\SrcChartEx\ChartAddIn\ChartDesignPropertyAddIn\ChartDesignPropertyAddIn\SuperGridCtrl.h

; 17   : 	void AddSubItemText(const CString& strSubItem){ m_SubItems.Add(strSubItem); }

  00040	83 c6 64	 add	 esi, 100		; 00000064H
; File D:\git\src\IBK\IBK_DRFN\ProjSrc\SrcChartEx\ChartAddIn\ChartDesignPropertyAddIn\ChartDesignPropertyAddIn\PacketSuperGrid.cpp

; 656  : 	lpItemInfo->AddSubItemText(_T(""));      // 0 zero based subitems...

  00043	c7 45 fc 00 00
	00 00		 mov	 DWORD PTR __$EHRec$[ebp+8], 0
; File C:\Program Files (x86)\Microsoft Visual Studio\2019\Community\VC\Tools\MSVC\14.29.30133\atlmfc\include\afxcoll.inl

; 321  : 		SetAtGrow(nIndex, newElement);

  0004a	8d 45 08	 lea	 eax, DWORD PTR $T4[ebp]
  0004d	8b ce		 mov	 ecx, esi
  0004f	50		 push	 eax
  00050	ff 76 08	 push	 DWORD PTR [esi+8]
  00053	e8 00 00 00 00	 call	 ?SetAtGrow@CStringArray@@QAEXHABV?$CStringT@DV?$StrTraitMFC_DLL@DV?$ChTraitsCRT@D@ATL@@@@@ATL@@@Z ; CStringArray::SetAtGrow
; File D:\git\src\IBK\IBK_DRFN\ProjSrc\SrcChartEx\ChartAddIn\ChartDesignPropertyAddIn\ChartDesignPropertyAddIn\PacketSuperGrid.cpp

; 656  : 	lpItemInfo->AddSubItemText(_T(""));      // 0 zero based subitems...

  00058	8d 4d 08	 lea	 ecx, DWORD PTR $T4[ebp]
  0005b	c7 45 fc ff ff
	ff ff		 mov	 DWORD PTR __$EHRec$[ebp+8], -1
  00062	ff 15 00 00 00
	00		 call	 DWORD PTR __imp_??1?$CStringT@DV?$StrTraitMFC_DLL@DV?$ChTraitsCRT@D@ATL@@@@@ATL@@QAE@XZ

; 657  : 	lpItemInfo->AddSubItemText(_T(""));      // 1 zero based subitems...

  00068	68 00 00 00 00	 push	 OFFSET ??_C@_00CNPNBAHC@@
  0006d	8d 4d 08	 lea	 ecx, DWORD PTR $T3[ebp]
  00070	ff 15 00 00 00
	00		 call	 DWORD PTR __imp_??0?$CStringT@DV?$StrTraitMFC_DLL@DV?$ChTraitsCRT@D@ATL@@@@@ATL@@QAE@PBD@Z
; File C:\Program Files (x86)\Microsoft Visual Studio\2019\Community\VC\Tools\MSVC\14.29.30133\atlmfc\include\afxcoll.inl

; 321  : 		SetAtGrow(nIndex, newElement);

  00076	8d 45 08	 lea	 eax, DWORD PTR $T3[ebp]
; File D:\git\src\IBK\IBK_DRFN\ProjSrc\SrcChartEx\ChartAddIn\ChartDesignPropertyAddIn\ChartDesignPropertyAddIn\PacketSuperGrid.cpp

; 657  : 	lpItemInfo->AddSubItemText(_T(""));      // 1 zero based subitems...

  00079	c7 45 fc 01 00
	00 00		 mov	 DWORD PTR __$EHRec$[ebp+8], 1
; File C:\Program Files (x86)\Microsoft Visual Studio\2019\Community\VC\Tools\MSVC\14.29.30133\atlmfc\include\afxcoll.inl

; 321  : 		SetAtGrow(nIndex, newElement);

  00080	50		 push	 eax
  00081	ff 76 08	 push	 DWORD PTR [esi+8]
  00084	8b ce		 mov	 ecx, esi
  00086	e8 00 00 00 00	 call	 ?SetAtGrow@CStringArray@@QAEXHABV?$CStringT@DV?$StrTraitMFC_DLL@DV?$ChTraitsCRT@D@ATL@@@@@ATL@@@Z ; CStringArray::SetAtGrow
; File D:\git\src\IBK\IBK_DRFN\ProjSrc\SrcChartEx\ChartAddIn\ChartDesignPropertyAddIn\ChartDesignPropertyAddIn\PacketSuperGrid.cpp

; 657  : 	lpItemInfo->AddSubItemText(_T(""));      // 1 zero based subitems...

  0008b	8d 4d 08	 lea	 ecx, DWORD PTR $T3[ebp]
  0008e	c7 45 fc ff ff
	ff ff		 mov	 DWORD PTR __$EHRec$[ebp+8], -1
  00095	ff 15 00 00 00
	00		 call	 DWORD PTR __imp_??1?$CStringT@DV?$StrTraitMFC_DLL@DV?$ChTraitsCRT@D@ATL@@@@@ATL@@QAE@XZ

; 658  : 	lpItemInfo->AddSubItemText(_T(""));      // 2 zero based subitems...

  0009b	68 00 00 00 00	 push	 OFFSET ??_C@_00CNPNBAHC@@
  000a0	8d 4d 08	 lea	 ecx, DWORD PTR $T2[ebp]
  000a3	ff 15 00 00 00
	00		 call	 DWORD PTR __imp_??0?$CStringT@DV?$StrTraitMFC_DLL@DV?$ChTraitsCRT@D@ATL@@@@@ATL@@QAE@PBD@Z
; File C:\Program Files (x86)\Microsoft Visual Studio\2019\Community\VC\Tools\MSVC\14.29.30133\atlmfc\include\afxcoll.inl

; 321  : 		SetAtGrow(nIndex, newElement);

  000a9	8d 45 08	 lea	 eax, DWORD PTR $T2[ebp]
; File D:\git\src\IBK\IBK_DRFN\ProjSrc\SrcChartEx\ChartAddIn\ChartDesignPropertyAddIn\ChartDesignPropertyAddIn\PacketSuperGrid.cpp

; 658  : 	lpItemInfo->AddSubItemText(_T(""));      // 2 zero based subitems...

  000ac	c7 45 fc 02 00
	00 00		 mov	 DWORD PTR __$EHRec$[ebp+8], 2
; File C:\Program Files (x86)\Microsoft Visual Studio\2019\Community\VC\Tools\MSVC\14.29.30133\atlmfc\include\afxcoll.inl

; 321  : 		SetAtGrow(nIndex, newElement);

  000b3	50		 push	 eax
  000b4	ff 76 08	 push	 DWORD PTR [esi+8]
  000b7	8b ce		 mov	 ecx, esi
  000b9	e8 00 00 00 00	 call	 ?SetAtGrow@CStringArray@@QAEXHABV?$CStringT@DV?$StrTraitMFC_DLL@DV?$ChTraitsCRT@D@ATL@@@@@ATL@@@Z ; CStringArray::SetAtGrow
; File D:\git\src\IBK\IBK_DRFN\ProjSrc\SrcChartEx\ChartAddIn\ChartDesignPropertyAddIn\ChartDesignPropertyAddIn\PacketSuperGrid.cpp

; 658  : 	lpItemInfo->AddSubItemText(_T(""));      // 2 zero based subitems...

  000be	8d 4d 08	 lea	 ecx, DWORD PTR $T2[ebp]
  000c1	c7 45 fc ff ff
	ff ff		 mov	 DWORD PTR __$EHRec$[ebp+8], -1
  000c8	ff 15 00 00 00
	00		 call	 DWORD PTR __imp_??1?$CStringT@DV?$StrTraitMFC_DLL@DV?$ChTraitsCRT@D@ATL@@@@@ATL@@QAE@XZ

; 659  : 	lpItemInfo->AddSubItemText(_T(""));      // 3 zero based subitems...

  000ce	68 00 00 00 00	 push	 OFFSET ??_C@_00CNPNBAHC@@
  000d3	8d 4d 0c	 lea	 ecx, DWORD PTR $T5[ebp]
  000d6	ff 15 00 00 00
	00		 call	 DWORD PTR __imp_??0?$CStringT@DV?$StrTraitMFC_DLL@DV?$ChTraitsCRT@D@ATL@@@@@ATL@@QAE@PBD@Z
; File C:\Program Files (x86)\Microsoft Visual Studio\2019\Community\VC\Tools\MSVC\14.29.30133\atlmfc\include\afxcoll.inl

; 321  : 		SetAtGrow(nIndex, newElement);

  000dc	8d 45 0c	 lea	 eax, DWORD PTR $T5[ebp]
; File D:\git\src\IBK\IBK_DRFN\ProjSrc\SrcChartEx\ChartAddIn\ChartDesignPropertyAddIn\ChartDesignPropertyAddIn\PacketSuperGrid.cpp

; 659  : 	lpItemInfo->AddSubItemText(_T(""));      // 3 zero based subitems...

  000df	c7 45 fc 03 00
	00 00		 mov	 DWORD PTR __$EHRec$[ebp+8], 3
; File C:\Program Files (x86)\Microsoft Visual Studio\2019\Community\VC\Tools\MSVC\14.29.30133\atlmfc\include\afxcoll.inl

; 321  : 		SetAtGrow(nIndex, newElement);

  000e6	50		 push	 eax
  000e7	ff 76 08	 push	 DWORD PTR [esi+8]
  000ea	8b ce		 mov	 ecx, esi
  000ec	e8 00 00 00 00	 call	 ?SetAtGrow@CStringArray@@QAEXHABV?$CStringT@DV?$StrTraitMFC_DLL@DV?$ChTraitsCRT@D@ATL@@@@@ATL@@@Z ; CStringArray::SetAtGrow
; File D:\git\src\IBK\IBK_DRFN\ProjSrc\SrcChartEx\ChartAddIn\ChartDesignPropertyAddIn\ChartDesignPropertyAddIn\PacketSuperGrid.cpp

; 659  : 	lpItemInfo->AddSubItemText(_T(""));      // 3 zero based subitems...

  000f1	8d 4d 0c	 lea	 ecx, DWORD PTR $T5[ebp]
  000f4	ff 15 00 00 00
	00		 call	 DWORD PTR __imp_??1?$CStringT@DV?$StrTraitMFC_DLL@DV?$ChTraitsCRT@D@ATL@@@@@ATL@@QAE@XZ

; 660  : }

  000fa	8b 4d f4	 mov	 ecx, DWORD PTR __$EHRec$[ebp]
  000fd	64 89 0d 00 00
	00 00		 mov	 DWORD PTR fs:0, ecx
  00104	59		 pop	 ecx
  00105	5e		 pop	 esi
  00106	8b e5		 mov	 esp, ebp
  00108	5d		 pop	 ebp
  00109	c2 08 00	 ret	 8
_TEXT	ENDS
;	COMDAT text$x
text$x	SEGMENT
__unwindfunclet$?SetRootItem@CPacketSuperGrid@@AAEXABV?$CStringT@DV?$StrTraitMFC_DLL@DV?$ChTraitsCRT@D@ATL@@@@@ATL@@PAVCItemInfo@@@Z$0:
  00000	8d 4d 08	 lea	 ecx, DWORD PTR $T4[ebp]
  00003	ff 25 00 00 00
	00		 jmp	 DWORD PTR __imp_??1?$CStringT@DV?$StrTraitMFC_DLL@DV?$ChTraitsCRT@D@ATL@@@@@ATL@@QAE@XZ
__unwindfunclet$?SetRootItem@CPacketSuperGrid@@AAEXABV?$CStringT@DV?$StrTraitMFC_DLL@DV?$ChTraitsCRT@D@ATL@@@@@ATL@@PAVCItemInfo@@@Z$1:
  00009	8d 4d 08	 lea	 ecx, DWORD PTR $T3[ebp]
  0000c	ff 25 00 00 00
	00		 jmp	 DWORD PTR __imp_??1?$CStringT@DV?$StrTraitMFC_DLL@DV?$ChTraitsCRT@D@ATL@@@@@ATL@@QAE@XZ
__unwindfunclet$?SetRootItem@CPacketSuperGrid@@AAEXABV?$CStringT@DV?$StrTraitMFC_DLL@DV?$ChTraitsCRT@D@ATL@@@@@ATL@@PAVCItemInfo@@@Z$2:
  00012	8d 4d 08	 lea	 ecx, DWORD PTR $T2[ebp]
  00015	ff 25 00 00 00
	00		 jmp	 DWORD PTR __imp_??1?$CStringT@DV?$StrTraitMFC_DLL@DV?$ChTraitsCRT@D@ATL@@@@@ATL@@QAE@XZ
__unwindfunclet$?SetRootItem@CPacketSuperGrid@@AAEXABV?$CStringT@DV?$StrTraitMFC_DLL@DV?$ChTraitsCRT@D@ATL@@@@@ATL@@PAVCItemInfo@@@Z$3:
  0001b	8d 4d 0c	 lea	 ecx, DWORD PTR $T5[ebp]
  0001e	ff 25 00 00 00
	00		 jmp	 DWORD PTR __imp_??1?$CStringT@DV?$StrTraitMFC_DLL@DV?$ChTraitsCRT@D@ATL@@@@@ATL@@QAE@XZ
  00024	cc		 int	 3
  00025	cc		 int	 3
  00026	cc		 int	 3
  00027	cc		 int	 3
  00028	cc		 int	 3
__ehhandler$?SetRootItem@CPacketSuperGrid@@AAEXABV?$CStringT@DV?$StrTraitMFC_DLL@DV?$ChTraitsCRT@D@ATL@@@@@ATL@@PAVCItemInfo@@@Z:
  00029	90		 npad	 1
  0002a	90		 npad	 1
  0002b	8b 54 24 08	 mov	 edx, DWORD PTR [esp+8]
  0002f	8d 42 0c	 lea	 eax, DWORD PTR [edx+12]
  00032	8b 4a f8	 mov	 ecx, DWORD PTR [edx-8]
  00035	33 c8		 xor	 ecx, eax
  00037	e8 00 00 00 00	 call	 @__security_check_cookie@4
  0003c	b8 00 00 00 00	 mov	 eax, OFFSET __ehfuncinfo$?SetRootItem@CPacketSuperGrid@@AAEXABV?$CStringT@DV?$StrTraitMFC_DLL@DV?$ChTraitsCRT@D@ATL@@@@@ATL@@PAVCItemInfo@@@Z
  00041	e9 00 00 00 00	 jmp	 ___CxxFrameHandler3
text$x	ENDS
?SetRootItem@CPacketSuperGrid@@AAEXABV?$CStringT@DV?$StrTraitMFC_DLL@DV?$ChTraitsCRT@D@ATL@@@@@ATL@@PAVCItemInfo@@@Z ENDP ; CPacketSuperGrid::SetRootItem
; Function compile flags: /Ogtp
; File D:\git\src\IBK\IBK_DRFN\ProjSrc\SrcChartEx\ChartAddIn\ChartDesignPropertyAddIn\ChartDesignPropertyAddIn\PacketSuperGrid.cpp
; File C:\Program Files (x86)\Microsoft Visual Studio\2019\Community\VC\Tools\MSVC\14.29.30133\atlmfc\include\afxcmn2.inl
; File D:\git\src\IBK\IBK_DRFN\ProjSrc\SrcChartEx\ChartAddIn\ChartDesignPropertyAddIn\ChartDesignPropertyAddIn\PacketSuperGrid.cpp
; File C:\Program Files (x86)\Microsoft Visual Studio\2019\Community\VC\Tools\MSVC\14.29.30133\atlmfc\include\afxwin1.inl
; File D:\git\src\IBK\IBK_DRFN\ProjSrc\SrcChartEx\ChartAddIn\ChartDesignPropertyAddIn\Include_Chart\Dll_Load\IMetaTable.h
; File C:\Program Files (x86)\Microsoft Visual Studio\2019\Community\VC\Tools\MSVC\14.29.30133\atlmfc\include\afxwin1.inl
; File D:\git\src\IBK\IBK_DRFN\ProjSrc\SrcChartEx\ChartAddIn\ChartDesignPropertyAddIn\ChartDesignPropertyAddIn\PacketSuperGrid.cpp
; File C:\Program Files (x86)\Microsoft Visual Studio\2019\Community\VC\Tools\MSVC\14.29.30133\atlmfc\include\afxcmn.inl
; File D:\git\src\IBK\IBK_DRFN\ProjSrc\SrcChartEx\ChartAddIn\ChartDesignPropertyAddIn\ChartDesignPropertyAddIn\PacketSuperGrid.cpp
; File D:\git\src\IBK\IBK_DRFN\ProjSrc\SrcChartEx\ChartAddIn\ChartDesignPropertyAddIn\Include_Chart\Dll_Load\IMetaTable.h
; File C:\Program Files (x86)\Microsoft Visual Studio\2019\Community\VC\Tools\MSVC\14.29.30133\atlmfc\include\afxwin1.inl
; File D:\git\src\IBK\IBK_DRFN\ProjSrc\SrcChartEx\ChartAddIn\ChartDesignPropertyAddIn\ChartDesignPropertyAddIn\PacketSuperGrid.cpp
;	COMDAT ?SetColumnHeader@CPacketSuperGrid@@AAEXXZ
_TEXT	SEGMENT
_lvColumn$ = -108					; size = 44
___mlrs__$ = -64					; size = 4
_strCols$ = -60						; size = 4
_Size$ = -56						; size = 20
_uCols$ = -36						; size = 20
__$ArrayPad$ = -16					; size = 4
__$EHRec$ = -12						; size = 12
?SetColumnHeader@CPacketSuperGrid@@AAEXXZ PROC		; CPacketSuperGrid::SetColumnHeader, COMDAT
; _this$ = ecx

; 663  : {

  00000	55		 push	 ebp
  00001	8b ec		 mov	 ebp, esp
  00003	6a ff		 push	 -1
  00005	68 00 00 00 00	 push	 __ehhandler$?SetColumnHeader@CPacketSuperGrid@@AAEXXZ
  0000a	64 a1 00 00 00
	00		 mov	 eax, DWORD PTR fs:0
  00010	50		 push	 eax
  00011	83 ec 60	 sub	 esp, 96			; 00000060H
  00014	a1 00 00 00 00	 mov	 eax, DWORD PTR ___security_cookie
  00019	33 c5		 xor	 eax, ebp
  0001b	89 45 f0	 mov	 DWORD PTR __$ArrayPad$[ebp], eax
  0001e	53		 push	 ebx
  0001f	56		 push	 esi
  00020	57		 push	 edi
  00021	50		 push	 eax
  00022	8d 45 f4	 lea	 eax, DWORD PTR __$EHRec$[ebp]
  00025	64 a3 00 00 00
	00		 mov	 DWORD PTR fs:0, eax
  0002b	8b d9		 mov	 ebx, ecx
; File C:\Program Files (x86)\Microsoft Visual Studio\2019\Community\VC\Tools\MSVC\14.29.30133\atlmfc\include\afxcmn2.inl

; 117  : 	{ ASSERT(::IsWindow(m_hWnd)); return (DWORD) ::SendMessage(m_hWnd, LVM_SETEXTENDEDLISTVIEWSTYLE, 0, (LPARAM) dwNewStyle); }

  0002d	6a 05		 push	 5
  0002f	6a 00		 push	 0
  00031	68 36 10 00 00	 push	 4150			; 00001036H
  00036	ff 73 20	 push	 DWORD PTR [ebx+32]
  00039	ff 15 00 00 00
	00		 call	 DWORD PTR __imp__SendMessageA@16
; File D:\git\src\IBK\IBK_DRFN\ProjSrc\SrcChartEx\ChartAddIn\ChartDesignPropertyAddIn\ChartDesignPropertyAddIn\PacketSuperGrid.cpp

; 674  : 	int Size[] = { 150, 90, 50, 100, 60 };

  0003f	0f 28 05 00 00
	00 00		 movaps	 xmm0, XMMWORD PTR __xmm@00000064000000320000005a00000096
  00046	c7 45 dc 61 04
	00 00		 mov	 DWORD PTR _uCols$[ebp], 1121 ; 00000461H
  0004d	c7 45 e0 62 04
	00 00		 mov	 DWORD PTR _uCols$[ebp+4], 1122 ; 00000462H
  00054	c7 45 e4 63 04
	00 00		 mov	 DWORD PTR _uCols$[ebp+8], 1123 ; 00000463H
  0005b	c7 45 e8 64 04
	00 00		 mov	 DWORD PTR _uCols$[ebp+12], 1124 ; 00000464H
  00062	c7 45 ec 65 04
	00 00		 mov	 DWORD PTR _uCols$[ebp+16], 1125 ; 00000465H
  00069	0f 11 45 c8	 movups	 XMMWORD PTR _Size$[ebp], xmm0
  0006d	c7 45 d8 3c 00
	00 00		 mov	 DWORD PTR _Size$[ebp+16], 60 ; 0000003cH

; 675  : 
; 676  : 	ML_SET_LANGUAGE_RES();

  00074	e8 00 00 00 00	 call	 ?AfxGetStaticModuleState@@YGPAVAFX_MODULE_STATE@@XZ ; AfxGetStaticModuleState
  00079	b9 00 00 00 00	 mov	 ecx, OFFSET ?g_iMetaTable@@3VIMetaTable@@A ; g_iMetaTable
  0007e	8b 40 08	 mov	 eax, DWORD PTR [eax+8]
  00081	50		 push	 eax
  00082	ff b3 f4 00 00
	00		 push	 DWORD PTR [ebx+244]
  00088	e8 00 00 00 00	 call	 ?LoadResourceDLL@IMetaTable@@QAEPAUHINSTANCE__@@PAUHWND__@@PAU2@@Z ; IMetaTable::LoadResourceDLL
  0008d	8b f8		 mov	 edi, eax
; File C:\Program Files (x86)\Microsoft Visual Studio\2019\Community\VC\Tools\MSVC\14.29.30133\atlmfc\include\afxwin1.inl

; 25   : 		return afxCurrentResourceHandle; }

  0008f	e8 00 00 00 00	 call	 ?AfxGetModuleState@@YGPAVAFX_MODULE_STATE@@XZ ; AfxGetModuleState
; File D:\git\src\IBK\IBK_DRFN\ProjSrc\SrcChartEx\ChartAddIn\ChartDesignPropertyAddIn\Include_Chart\Dll_Load\IMetaTable.h

; 1032 : 		m_hInstance = AfxGetResourceHandle();

  00094	8b 70 0c	 mov	 esi, DWORD PTR [eax+12]
  00097	89 75 c0	 mov	 DWORD PTR ___mlrs__$[ebp], esi
; File C:\Program Files (x86)\Microsoft Visual Studio\2019\Community\VC\Tools\MSVC\14.29.30133\atlmfc\include\afxwin1.inl

; 27   : 	{ ASSERT(hInstResource != NULL); afxCurrentResourceHandle = hInstResource; }

  0009a	e8 00 00 00 00	 call	 ?AfxGetModuleState@@YGPAVAFX_MODULE_STATE@@XZ ; AfxGetModuleState
  0009f	89 78 0c	 mov	 DWORD PTR [eax+12], edi
; File D:\git\src\IBK\IBK_DRFN\ProjSrc\SrcChartEx\ChartAddIn\ChartDesignPropertyAddIn\ChartDesignPropertyAddIn\PacketSuperGrid.cpp

; 677  : 	CString strCols;

  000a2	8d 4d c4	 lea	 ecx, DWORD PTR _strCols$[ebp]
  000a5	c7 45 fc 00 00
	00 00		 mov	 DWORD PTR __$EHRec$[ebp+8], 0
  000ac	ff 15 00 00 00
	00		 call	 DWORD PTR __imp_??0?$CStringT@DV?$StrTraitMFC_DLL@DV?$ChTraitsCRT@D@ATL@@@@@ATL@@QAE@XZ
  000b2	c6 45 fc 01	 mov	 BYTE PTR __$EHRec$[ebp+8], 1
  000b6	33 ff		 xor	 edi, edi

; 678  : 	LV_COLUMN   lvColumn;
; 679  : 	//initialize the columns
; 680  : 	lvColumn.mask = LVCF_FMT | LVCF_WIDTH | LVCF_TEXT | LVCF_SUBITEM;

  000b8	c7 45 94 0f 00
	00 00		 mov	 DWORD PTR _lvColumn$[ebp], 15 ; 0000000fH

; 681  : 	lvColumn.fmt = LVCFMT_LEFT;

  000bf	c7 45 98 00 00
	00 00		 mov	 DWORD PTR _lvColumn$[ebp+4], 0
  000c6	66 66 0f 1f 84
	00 00 00 00 00	 npad	 10
$LL4@SetColumnH:

; 684  : 	{
; 685  : 		lvColumn.cx = Size[x];

  000d0	8b 44 bd c8	 mov	 eax, DWORD PTR _Size$[ebp+edi*4]

; 686  : 		strCols.LoadString( uCols[ x]);

  000d4	8d 4d c4	 lea	 ecx, DWORD PTR _strCols$[ebp]
  000d7	ff 74 bd dc	 push	 DWORD PTR _uCols$[ebp+edi*4]
  000db	89 45 9c	 mov	 DWORD PTR _lvColumn$[ebp+8], eax
  000de	ff 15 00 00 00
	00		 call	 DWORD PTR __imp_?LoadStringA@?$CStringT@DV?$StrTraitMFC_DLL@DV?$ChTraitsCRT@D@ATL@@@@@ATL@@QAEHI@Z

; 687  : 		lvColumn.pszText = ( char *)( const char *)strCols;

  000e4	8b 45 c4	 mov	 eax, DWORD PTR _strCols$[ebp]
  000e7	89 45 a0	 mov	 DWORD PTR _lvColumn$[ebp+12], eax
; File C:\Program Files (x86)\Microsoft Visual Studio\2019\Community\VC\Tools\MSVC\14.29.30133\atlmfc\include\afxcmn.inl

; 209  : 	{ ASSERT(::IsWindow(m_hWnd)); return (int) ::SendMessage(m_hWnd, LVM_INSERTCOLUMN, nCol, (LPARAM)pColumn); }

  000ea	8d 45 94	 lea	 eax, DWORD PTR _lvColumn$[ebp]
  000ed	50		 push	 eax
  000ee	57		 push	 edi
  000ef	68 1b 10 00 00	 push	 4123			; 0000101bH
  000f4	ff 73 20	 push	 DWORD PTR [ebx+32]
  000f7	ff 15 00 00 00
	00		 call	 DWORD PTR __imp__SendMessageA@16
; File D:\git\src\IBK\IBK_DRFN\ProjSrc\SrcChartEx\ChartAddIn\ChartDesignPropertyAddIn\ChartDesignPropertyAddIn\PacketSuperGrid.cpp

; 683  : 	for(int x = 0; x < sizeof( uCols) / sizeof( UINT); x++)

  000fd	47		 inc	 edi
  000fe	83 ff 05	 cmp	 edi, 5
  00101	72 cd		 jb	 SHORT $LL4@SetColumnH

; 690  : }

  00103	8d 4d c4	 lea	 ecx, DWORD PTR _strCols$[ebp]
  00106	ff 15 00 00 00
	00		 call	 DWORD PTR __imp_??1?$CStringT@DV?$StrTraitMFC_DLL@DV?$ChTraitsCRT@D@ATL@@@@@ATL@@QAE@XZ
; File D:\git\src\IBK\IBK_DRFN\ProjSrc\SrcChartEx\ChartAddIn\ChartDesignPropertyAddIn\Include_Chart\Dll_Load\IMetaTable.h

; 1036 : 	{

  0010c	c7 45 fc 02 00
	00 00		 mov	 DWORD PTR __$EHRec$[ebp+8], 2
; File C:\Program Files (x86)\Microsoft Visual Studio\2019\Community\VC\Tools\MSVC\14.29.30133\atlmfc\include\afxwin1.inl

; 27   : 	{ ASSERT(hInstResource != NULL); afxCurrentResourceHandle = hInstResource; }

  00113	e8 00 00 00 00	 call	 ?AfxGetModuleState@@YGPAVAFX_MODULE_STATE@@XZ ; AfxGetModuleState
  00118	89 70 0c	 mov	 DWORD PTR [eax+12], esi
; File D:\git\src\IBK\IBK_DRFN\ProjSrc\SrcChartEx\ChartAddIn\ChartDesignPropertyAddIn\ChartDesignPropertyAddIn\PacketSuperGrid.cpp

; 690  : }

  0011b	8b 4d f4	 mov	 ecx, DWORD PTR __$EHRec$[ebp]
  0011e	64 89 0d 00 00
	00 00		 mov	 DWORD PTR fs:0, ecx
  00125	59		 pop	 ecx
  00126	5f		 pop	 edi
  00127	5e		 pop	 esi
  00128	5b		 pop	 ebx
  00129	8b 4d f0	 mov	 ecx, DWORD PTR __$ArrayPad$[ebp]
  0012c	33 cd		 xor	 ecx, ebp
  0012e	e8 00 00 00 00	 call	 @__security_check_cookie@4
  00133	8b e5		 mov	 esp, ebp
  00135	5d		 pop	 ebp
  00136	c3		 ret	 0
_TEXT	ENDS
;	COMDAT text$x
text$x	SEGMENT
__unwindfunclet$?SetColumnHeader@CPacketSuperGrid@@AAEXXZ$0:
  00000	8d 4d c0	 lea	 ecx, DWORD PTR ___mlrs__$[ebp]
  00003	e9 00 00 00 00	 jmp	 ??1CMultiLanguageResourceSetter@@QAE@XZ ; CMultiLanguageResourceSetter::~CMultiLanguageResourceSetter
__unwindfunclet$?SetColumnHeader@CPacketSuperGrid@@AAEXXZ$1:
  00008	8d 4d c4	 lea	 ecx, DWORD PTR _strCols$[ebp]
  0000b	ff 25 00 00 00
	00		 jmp	 DWORD PTR __imp_??1?$CStringT@DV?$StrTraitMFC_DLL@DV?$ChTraitsCRT@D@ATL@@@@@ATL@@QAE@XZ
  00011	cc		 int	 3
  00012	cc		 int	 3
  00013	cc		 int	 3
  00014	cc		 int	 3
  00015	cc		 int	 3
__ehhandler$?SetColumnHeader@CPacketSuperGrid@@AAEXXZ:
  00016	90		 npad	 1
  00017	90		 npad	 1
  00018	8b 54 24 08	 mov	 edx, DWORD PTR [esp+8]
  0001c	8d 42 0c	 lea	 eax, DWORD PTR [edx+12]
  0001f	8b 4a 90	 mov	 ecx, DWORD PTR [edx-112]
  00022	33 c8		 xor	 ecx, eax
  00024	e8 00 00 00 00	 call	 @__security_check_cookie@4
  00029	8b 4a fc	 mov	 ecx, DWORD PTR [edx-4]
  0002c	33 c8		 xor	 ecx, eax
  0002e	e8 00 00 00 00	 call	 @__security_check_cookie@4
  00033	b8 00 00 00 00	 mov	 eax, OFFSET __ehfuncinfo$?SetColumnHeader@CPacketSuperGrid@@AAEXXZ
  00038	e9 00 00 00 00	 jmp	 ___CxxFrameHandler3
text$x	ENDS
?SetColumnHeader@CPacketSuperGrid@@AAEXXZ ENDP		; CPacketSuperGrid::SetColumnHeader
; Function compile flags: /Ogtp
; File D:\git\src\IBK\IBK_DRFN\ProjSrc\SrcChartEx\ChartAddIn\ChartDesignPropertyAddIn\ChartDesignPropertyAddIn\PacketSuperGrid.cpp
;	COMDAT ?GetItemIndex@CPacketSuperGrid@@AAEHABV?$CStringT@DV?$StrTraitMFC_DLL@DV?$ChTraitsCRT@D@ATL@@@@@ATL@@@Z
_TEXT	SEGMENT
_szPacketName$ = 8					; size = 4
?GetItemIndex@CPacketSuperGrid@@AAEHABV?$CStringT@DV?$StrTraitMFC_DLL@DV?$ChTraitsCRT@D@ATL@@@@@ATL@@@Z PROC ; CPacketSuperGrid::GetItemIndex, COMDAT
; _this$ = ecx

; 641  : {

  00000	55		 push	 ebp
  00001	8b ec		 mov	 ebp, esp
  00003	53		 push	 ebx
  00004	56		 push	 esi

; 642  : 	for(int i=0; i < NUM_PACKETNAMEITEM; i++)

  00005	33 f6		 xor	 esi, esi
  00007	57		 push	 edi
  00008	8b f9		 mov	 edi, ecx
  0000a	39 35 00 00 00
	00		 cmp	 DWORD PTR ?NUM_PACKETNAMEITEM@@3HB, esi ; NUM_PACKETNAMEITEM
  00010	7e 47		 jle	 SHORT $LN3@GetItemInd
  00012	8b 5d 08	 mov	 ebx, DWORD PTR _szPacketName$[ebp]
  00015	66 66 66 0f 1f
	84 00 00 00 00
	00		 npad	 11
$LL4@GetItemInd:

; 643  : 	{
; 644  : 		if(szPacketName.CompareNoCase( _LTEXTN( PACKET_NAME, ePacketNameItem[i])) == 0){

  00020	8b 0c b5 00 00
	00 00		 mov	 ecx, DWORD PTR ?ePacketNameItem@@3PAW4E_METACODE@IMetaTable@@A[esi*4]
  00027	a1 54 00 00 00	 mov	 eax, DWORD PTR ?g_iMetaTable@@3VIMetaTable@@A+84
  0002c	6a 00		 push	 0
  0002e	ff 34 88	 push	 DWORD PTR [eax+ecx*4]
  00031	b9 00 00 00 00	 mov	 ecx, OFFSET ?g_iMetaTable@@3VIMetaTable@@A ; g_iMetaTable
  00036	6a 00		 push	 0
  00038	ff b7 f4 00 00
	00		 push	 DWORD PTR [edi+244]
  0003e	e8 00 00 00 00	 call	 ?GetLanguageText@IMetaTable@@QAEPBDPAUHWND__@@W4E_CODEPAGE@1@PBDH@Z ; IMetaTable::GetLanguageText
  00043	50		 push	 eax
  00044	8b cb		 mov	 ecx, ebx
  00046	ff 15 00 00 00
	00		 call	 DWORD PTR __imp_?CompareNoCase@?$CStringT@DV?$StrTraitMFC_DLL@DV?$ChTraitsCRT@D@ATL@@@@@ATL@@QBEHPBD@Z
  0004c	85 c0		 test	 eax, eax
  0004e	74 13		 je	 SHORT $LN8@GetItemInd

; 642  : 	for(int i=0; i < NUM_PACKETNAMEITEM; i++)

  00050	46		 inc	 esi
  00051	3b 35 00 00 00
	00		 cmp	 esi, DWORD PTR ?NUM_PACKETNAMEITEM@@3HB ; NUM_PACKETNAMEITEM
  00057	7c c7		 jl	 SHORT $LL4@GetItemInd
$LN3@GetItemInd:
  00059	5f		 pop	 edi

; 646  : 		}
; 647  : 	}
; 648  : 	return -1;
; 649  : }

  0005a	5e		 pop	 esi
  0005b	83 c8 ff	 or	 eax, -1
  0005e	5b		 pop	 ebx
  0005f	5d		 pop	 ebp
  00060	c2 04 00	 ret	 4
$LN8@GetItemInd:
  00063	5f		 pop	 edi

; 645  : 			return i;		

  00064	8b c6		 mov	 eax, esi

; 646  : 		}
; 647  : 	}
; 648  : 	return -1;
; 649  : }

  00066	5e		 pop	 esi
  00067	5b		 pop	 ebx
  00068	5d		 pop	 ebp
  00069	c2 04 00	 ret	 4
?GetItemIndex@CPacketSuperGrid@@AAEHABV?$CStringT@DV?$StrTraitMFC_DLL@DV?$ChTraitsCRT@D@ATL@@@@@ATL@@@Z ENDP ; CPacketSuperGrid::GetItemIndex
_TEXT	ENDS
; Function compile flags: /Ogtp
; File D:\git\src\IBK\IBK_DRFN\ProjSrc\SrcChartEx\ChartAddIn\ChartDesignPropertyAddIn\ChartDesignPropertyAddIn\PacketSuperGrid.cpp
; File C:\Program Files (x86)\Microsoft Visual Studio\2019\Community\VC\Tools\MSVC\14.29.30133\atlmfc\include\afx.inl
; File D:\git\src\IBK\IBK_DRFN\ProjSrc\SrcChartEx\ChartAddIn\ChartDesignPropertyAddIn\ChartDesignPropertyAddIn\PacketSuperGrid.cpp
; File C:\Program Files (x86)\Microsoft Visual Studio\2019\Community\VC\Tools\MSVC\14.29.30133\atlmfc\include\afxwin2.inl
; File D:\git\src\IBK\IBK_DRFN\ProjSrc\SrcChartEx\ChartAddIn\ChartDesignPropertyAddIn\ChartDesignPropertyAddIn\PacketSuperGrid.cpp
; File C:\Program Files (x86)\Microsoft Visual Studio\2019\Community\VC\Tools\MSVC\14.29.30133\atlmfc\include\atlsimpstr.h
; File D:\git\src\IBK\IBK_DRFN\ProjSrc\SrcChartEx\ChartAddIn\ChartDesignPropertyAddIn\ChartDesignPropertyAddIn\PacketSuperGrid.cpp
; File C:\Program Files (x86)\Microsoft Visual Studio\2019\Community\VC\Tools\MSVC\14.29.30133\atlmfc\include\afx.inl
; File D:\git\src\IBK\IBK_DRFN\ProjSrc\SrcChartEx\ChartAddIn\ChartDesignPropertyAddIn\ChartDesignPropertyAddIn\PacketSuperGrid.cpp
; File D:\git\src\IBK\IBK_DRFN\ProjSrc\SrcChartEx\ChartAddIn\ChartDesignPropertyAddIn\ChartDesignPropertyAddIn\SuperGridCtrl.h
; File D:\git\src\IBK\IBK_DRFN\ProjSrc\SrcChartEx\ChartAddIn\ChartDesignPropertyAddIn\ChartDesignPropertyAddIn\PacketSuperGrid.cpp
; File D:\git\src\IBK\IBK_DRFN\ProjSrc\SrcChartEx\ChartAddIn\ChartDesignPropertyAddIn\ChartDesignPropertyAddIn\SuperGridCtrl.h
; File D:\git\src\IBK\IBK_DRFN\ProjSrc\SrcChartEx\ChartAddIn\ChartDesignPropertyAddIn\ChartDesignPropertyAddIn\PacketSuperGrid.cpp
; File C:\Program Files (x86)\Microsoft Visual Studio\2019\Community\VC\Tools\MSVC\14.29.30133\atlmfc\include\afxcoll.inl
; File D:\git\src\IBK\IBK_DRFN\ProjSrc\SrcChartEx\ChartAddIn\ChartDesignPropertyAddIn\ChartDesignPropertyAddIn\PacketSuperGrid.cpp
; File D:\git\src\IBK\IBK_DRFN\ProjSrc\SrcChartEx\ChartAddIn\ChartDesignPropertyAddIn\ChartDesignPropertyAddIn\SuperGridCtrl.h
; File C:\Program Files (x86)\Microsoft Visual Studio\2019\Community\VC\Tools\MSVC\14.29.30133\atlmfc\include\afxcoll.inl
; File D:\git\src\IBK\IBK_DRFN\ProjSrc\SrcChartEx\ChartAddIn\ChartDesignPropertyAddIn\ChartDesignPropertyAddIn\PacketSuperGrid.cpp
;	COMDAT ?SetPacketRootInit@CPacketSuperGrid@@AAEXXZ
_TEXT	SEGMENT
$T2 = -48						; size = 4
_pRoot$1$ = -44						; size = 4
$T3 = -44						; size = 4
$T4 = -40						; size = 4
$T5 = -36						; size = 4
$T6 = -32						; size = 4
$T7 = -32						; size = 4
$T8 = -28						; size = 4
$T9 = -24						; size = 4
_i$1$ = -20						; size = 4
$T10 = -20						; size = 4
_nCol$1$ = -16						; size = 4
__$EHRec$ = -12						; size = 12
?SetPacketRootInit@CPacketSuperGrid@@AAEXXZ PROC	; CPacketSuperGrid::SetPacketRootInit, COMDAT
; _this$ = ecx

; 693  : {

  00000	55		 push	 ebp
  00001	8b ec		 mov	 ebp, esp
  00003	6a ff		 push	 -1
  00005	68 00 00 00 00	 push	 __ehhandler$?SetPacketRootInit@CPacketSuperGrid@@AAEXXZ
  0000a	64 a1 00 00 00
	00		 mov	 eax, DWORD PTR fs:0
  00010	50		 push	 eax
  00011	83 ec 24	 sub	 esp, 36			; 00000024H
  00014	53		 push	 ebx
  00015	56		 push	 esi
  00016	57		 push	 edi
  00017	a1 00 00 00 00	 mov	 eax, DWORD PTR ___security_cookie
  0001c	33 c5		 xor	 eax, ebp
  0001e	50		 push	 eax
  0001f	8d 45 f4	 lea	 eax, DWORD PTR __$EHRec$[ebp]
  00022	64 a3 00 00 00
	00		 mov	 DWORD PTR fs:0, eax
  00028	8b d9		 mov	 ebx, ecx
; File C:\Program Files (x86)\Microsoft Visual Studio\2019\Community\VC\Tools\MSVC\14.29.30133\atlmfc\include\afx.inl

; 116  : 	{ return ::operator new(nSize); }

  0002a	68 84 00 00 00	 push	 132			; 00000084H
  0002f	e8 00 00 00 00	 call	 ??2@YAPAXI@Z		; operator new
  00034	83 c4 04	 add	 esp, 4
; File D:\git\src\IBK\IBK_DRFN\ProjSrc\SrcChartEx\ChartAddIn\ChartDesignPropertyAddIn\ChartDesignPropertyAddIn\PacketSuperGrid.cpp

; 695  : 	CItemInfo* lp = new CItemInfo();

  00037	89 45 d4	 mov	 DWORD PTR $T3[ebp], eax
  0003a	c7 45 fc 00 00
	00 00		 mov	 DWORD PTR __$EHRec$[ebp+8], 0
  00041	85 c0		 test	 eax, eax
  00043	74 0b		 je	 SHORT $LN8@SetPacketR
  00045	8b c8		 mov	 ecx, eax
  00047	e8 00 00 00 00	 call	 ??0CItemInfo@@QAE@XZ	; CItemInfo::CItemInfo
  0004c	8b f0		 mov	 esi, eax
  0004e	eb 02		 jmp	 SHORT $LN9@SetPacketR
$LN8@SetPacketR:
  00050	33 f6		 xor	 esi, esi
$LN9@SetPacketR:

; 696  : 	SetRootItem("Packet", lp);

  00052	68 00 00 00 00	 push	 OFFSET ??_C@_06LFBENNGP@Packet@
  00057	8d 4d ec	 lea	 ecx, DWORD PTR $T10[ebp]
  0005a	c7 45 fc ff ff
	ff ff		 mov	 DWORD PTR __$EHRec$[ebp+8], -1
  00061	ff 15 00 00 00
	00		 call	 DWORD PTR __imp_??0?$CStringT@DV?$StrTraitMFC_DLL@DV?$ChTraitsCRT@D@ATL@@@@@ATL@@QAE@PBD@Z
  00067	56		 push	 esi
  00068	8d 45 ec	 lea	 eax, DWORD PTR $T10[ebp]
  0006b	c7 45 fc 01 00
	00 00		 mov	 DWORD PTR __$EHRec$[ebp+8], 1
  00072	50		 push	 eax
  00073	8b cb		 mov	 ecx, ebx
  00075	e8 00 00 00 00	 call	 ?SetRootItem@CPacketSuperGrid@@AAEXABV?$CStringT@DV?$StrTraitMFC_DLL@DV?$ChTraitsCRT@D@ATL@@@@@ATL@@PAVCItemInfo@@@Z ; CPacketSuperGrid::SetRootItem
  0007a	8d 4d ec	 lea	 ecx, DWORD PTR $T10[ebp]
  0007d	c7 45 fc ff ff
	ff ff		 mov	 DWORD PTR __$EHRec$[ebp+8], -1
  00084	ff 15 00 00 00
	00		 call	 DWORD PTR __imp_??1?$CStringT@DV?$StrTraitMFC_DLL@DV?$ChTraitsCRT@D@ATL@@@@@ATL@@QAE@XZ

; 697  :   //Create root item
; 698  : 	CTreeItem * pRoot = InsertRootItem(lp);//previous on N.Y.P.D we call it CreateTreeCtrl(lp)

  0008a	56		 push	 esi
  0008b	8b cb		 mov	 ecx, ebx
  0008d	e8 00 00 00 00	 call	 ?InsertRootItem@CSuperGridCtrl@@QAEPAVCTreeItem@1@PAVCItemInfo@@@Z ; CSuperGridCtrl::InsertRootItem
  00092	8b f8		 mov	 edi, eax

; 699  : 	InsertRootItemToListCtrl(pRoot);

  00094	8b cb		 mov	 ecx, ebx
  00096	57		 push	 edi
  00097	89 7d d4	 mov	 DWORD PTR _pRoot$1$[ebp], edi
  0009a	e8 00 00 00 00	 call	 ?InsertRootItemToListCtrl@CSuperGridCtrl@@QAEXPAVCTreeItem@1@@Z ; CSuperGridCtrl::InsertRootItemToListCtrl

; 700  : 
; 701  : 	if( pRoot == NULL ) return;

  0009f	85 ff		 test	 edi, edi
  000a1	0f 84 02 02 00
	00		 je	 $LN1@SetPacketR
; File C:\Program Files (x86)\Microsoft Visual Studio\2019\Community\VC\Tools\MSVC\14.29.30133\atlmfc\include\afxwin2.inl

; 213  : 	{ ASSERT(::IsWindow(m_hWnd)); return CWnd::FromHandle(::GetParent(m_hWnd)); }

  000a7	ff 73 20	 push	 DWORD PTR [ebx+32]
  000aa	ff 15 00 00 00
	00		 call	 DWORD PTR __imp__GetParent@4
  000b0	50		 push	 eax
  000b1	e8 00 00 00 00	 call	 ?FromHandle@CWnd@@SGPAV1@PAUHWND__@@@Z ; CWnd::FromHandle
; File D:\git\src\IBK\IBK_DRFN\ProjSrc\SrcChartEx\ChartAddIn\ChartDesignPropertyAddIn\ChartDesignPropertyAddIn\PacketSuperGrid.cpp

; 703  : 	if((((CPacketPage *)GetParent())->GetReceivedAllDataFromOcx()).GetLength() == 0)

  000b6	8d 4d e0	 lea	 ecx, DWORD PTR $T7[ebp]
  000b9	51		 push	 ecx
  000ba	8b c8		 mov	 ecx, eax
  000bc	e8 00 00 00 00	 call	 ?GetReceivedAllDataFromOcx@CPacketPage@@QAE?AV?$CStringT@DV?$StrTraitMFC_DLL@DV?$ChTraitsCRT@D@ATL@@@@@ATL@@XZ ; CPacketPage::GetReceivedAllDataFromOcx
  000c1	8d 4d e0	 lea	 ecx, DWORD PTR $T7[ebp]
; File C:\Program Files (x86)\Microsoft Visual Studio\2019\Community\VC\Tools\MSVC\14.29.30133\atlmfc\include\atlsimpstr.h

; 519  : 		return( GetData()->nDataLength );

  000c4	8b 00		 mov	 eax, DWORD PTR [eax]
  000c6	8b 70 f4	 mov	 esi, DWORD PTR [eax-12]
; File D:\git\src\IBK\IBK_DRFN\ProjSrc\SrcChartEx\ChartAddIn\ChartDesignPropertyAddIn\ChartDesignPropertyAddIn\PacketSuperGrid.cpp

; 703  : 	if((((CPacketPage *)GetParent())->GetReceivedAllDataFromOcx()).GetLength() == 0)

  000c9	ff 15 00 00 00
	00		 call	 DWORD PTR __imp_??1?$CStringT@DV?$StrTraitMFC_DLL@DV?$ChTraitsCRT@D@ATL@@@@@ATL@@QAE@XZ
  000cf	85 f6		 test	 esi, esi
  000d1	0f 85 bb 01 00
	00		 jne	 $LN3@SetPacketR

; 704  : 	{
; 705  : 		for(int i=0; i < NUM_PACKETNAMEITEM; i++)

  000d7	89 75 ec	 mov	 DWORD PTR _i$1$[ebp], esi
  000da	39 35 00 00 00
	00		 cmp	 DWORD PTR ?NUM_PACKETNAMEITEM@@3HB, esi ; NUM_PACKETNAMEITEM
  000e0	0f 8e ac 01 00
	00		 jle	 $LN3@SetPacketR
$LL4@SetPacketR:
; File C:\Program Files (x86)\Microsoft Visual Studio\2019\Community\VC\Tools\MSVC\14.29.30133\atlmfc\include\afx.inl

; 116  : 	{ return ::operator new(nSize); }

  000e6	68 84 00 00 00	 push	 132			; 00000084H
  000eb	e8 00 00 00 00	 call	 ??2@YAPAXI@Z		; operator new
  000f0	83 c4 04	 add	 esp, 4
; File D:\git\src\IBK\IBK_DRFN\ProjSrc\SrcChartEx\ChartAddIn\ChartDesignPropertyAddIn\ChartDesignPropertyAddIn\PacketSuperGrid.cpp

; 707  : 			CItemInfo* lpItemInfo = new CItemInfo();

  000f3	89 45 d0	 mov	 DWORD PTR $T2[ebp], eax
  000f6	c7 45 fc 02 00
	00 00		 mov	 DWORD PTR __$EHRec$[ebp+8], 2
  000fd	85 c0		 test	 eax, eax
  000ff	74 0b		 je	 SHORT $LN10@SetPacketR
  00101	8b c8		 mov	 ecx, eax
  00103	e8 00 00 00 00	 call	 ??0CItemInfo@@QAE@XZ	; CItemInfo::CItemInfo
  00108	8b f8		 mov	 edi, eax
  0010a	eb 02		 jmp	 SHORT $LN11@SetPacketR
$LN10@SetPacketR:
  0010c	33 ff		 xor	 edi, edi
$LN11@SetPacketR:

; 708  : 			lpItemInfo->SetItemText( _LTEXTN( PACKET_NAME, ePacketNameItem[i]));  //add items text

  0010e	8b 0c b5 00 00
	00 00		 mov	 ecx, DWORD PTR ?ePacketNameItem@@3PAW4E_METACODE@IMetaTable@@A[esi*4]
  00115	a1 54 00 00 00	 mov	 eax, DWORD PTR ?g_iMetaTable@@3VIMetaTable@@A+84
  0011a	6a 00		 push	 0
  0011c	c7 45 fc ff ff
	ff ff		 mov	 DWORD PTR __$EHRec$[ebp+8], -1
  00123	ff 34 88	 push	 DWORD PTR [eax+ecx*4]
  00126	b9 00 00 00 00	 mov	 ecx, OFFSET ?g_iMetaTable@@3VIMetaTable@@A ; g_iMetaTable
  0012b	6a 00		 push	 0
  0012d	ff b3 f4 00 00
	00		 push	 DWORD PTR [ebx+244]
  00133	e8 00 00 00 00	 call	 ?GetLanguageText@IMetaTable@@QAEPBDPAUHWND__@@W4E_CODEPAGE@1@PBDH@Z ; IMetaTable::GetLanguageText
  00138	50		 push	 eax
  00139	8d 4d e8	 lea	 ecx, DWORD PTR $T9[ebp]
  0013c	ff 15 00 00 00
	00		 call	 DWORD PTR __imp_??0?$CStringT@DV?$StrTraitMFC_DLL@DV?$ChTraitsCRT@D@ATL@@@@@ATL@@QAE@PBD@Z
; File D:\git\src\IBK\IBK_DRFN\ProjSrc\SrcChartEx\ChartAddIn\ChartDesignPropertyAddIn\ChartDesignPropertyAddIn\SuperGridCtrl.h

; 15   : 	void SetItemText(const CString& strItem){ m_strItemName = strItem; }

  00142	8d 45 e8	 lea	 eax, DWORD PTR $T9[ebp]
; File D:\git\src\IBK\IBK_DRFN\ProjSrc\SrcChartEx\ChartAddIn\ChartDesignPropertyAddIn\ChartDesignPropertyAddIn\PacketSuperGrid.cpp

; 708  : 			lpItemInfo->SetItemText( _LTEXTN( PACKET_NAME, ePacketNameItem[i]));  //add items text

  00145	c7 45 fc 03 00
	00 00		 mov	 DWORD PTR __$EHRec$[ebp+8], 3
; File D:\git\src\IBK\IBK_DRFN\ProjSrc\SrcChartEx\ChartAddIn\ChartDesignPropertyAddIn\ChartDesignPropertyAddIn\SuperGridCtrl.h

; 15   : 	void SetItemText(const CString& strItem){ m_strItemName = strItem; }

  0014c	50		 push	 eax
  0014d	8d 4f 60	 lea	 ecx, DWORD PTR [edi+96]
  00150	ff 15 00 00 00
	00		 call	 DWORD PTR __imp_??4?$CStringT@DV?$StrTraitMFC_DLL@DV?$ChTraitsCRT@D@ATL@@@@@ATL@@QAEAAV01@ABV01@@Z
; File D:\git\src\IBK\IBK_DRFN\ProjSrc\SrcChartEx\ChartAddIn\ChartDesignPropertyAddIn\ChartDesignPropertyAddIn\PacketSuperGrid.cpp

; 708  : 			lpItemInfo->SetItemText( _LTEXTN( PACKET_NAME, ePacketNameItem[i]));  //add items text

  00156	8d 4d e8	 lea	 ecx, DWORD PTR $T9[ebp]
  00159	c7 45 fc ff ff
	ff ff		 mov	 DWORD PTR __$EHRec$[ebp+8], -1
  00160	ff 15 00 00 00
	00		 call	 DWORD PTR __imp_??1?$CStringT@DV?$StrTraitMFC_DLL@DV?$ChTraitsCRT@D@ATL@@@@@ATL@@QAE@XZ

; 709  : 			SetSubItem(i, _MTEXTN( ePacketNameItem[i]), lpItemInfo); //add subitem text

  00166	8b 0c b5 00 00
	00 00		 mov	 ecx, DWORD PTR ?ePacketNameItem@@3PAW4E_METACODE@IMetaTable@@A[esi*4]
  0016d	a1 54 00 00 00	 mov	 eax, DWORD PTR ?g_iMetaTable@@3VIMetaTable@@A+84
  00172	ff 34 88	 push	 DWORD PTR [eax+ecx*4]
  00175	8d 4d d8	 lea	 ecx, DWORD PTR $T4[ebp]
  00178	ff 15 00 00 00
	00		 call	 DWORD PTR __imp_??0?$CStringT@DV?$StrTraitMFC_DLL@DV?$ChTraitsCRT@D@ATL@@@@@ATL@@QAE@PBD@Z

; 417  : 	int nCol = GetNumCol();

  0017e	8b cb		 mov	 ecx, ebx

; 709  : 			SetSubItem(i, _MTEXTN( ePacketNameItem[i]), lpItemInfo); //add subitem text

  00180	c7 45 fc 04 00
	00 00		 mov	 DWORD PTR __$EHRec$[ebp+8], 4

; 417  : 	int nCol = GetNumCol();

  00187	e8 00 00 00 00	 call	 ?GetNumCol@CSuperGridCtrl@@QAEHXZ ; CSuperGridCtrl::GetNumCol

; 418  : 	for(int y=0 ;  y < nCol ; y++) {

  0018c	33 f6		 xor	 esi, esi
  0018e	89 45 f0	 mov	 DWORD PTR _nCol$1$[ebp], eax
  00191	85 c0		 test	 eax, eax
  00193	0f 8e b9 00 00
	00		 jle	 $LN32@SetPacketR
  00199	0f 1f 80 00 00
	00 00		 npad	 7
$LL33@SetPacketR:

; 419  : 		switch(y) {

  001a0	83 fe 03	 cmp	 esi, 3
  001a3	0f 87 a0 00 00
	00		 ja	 $LN31@SetPacketR
  001a9	ff 24 b5 00 00
	00 00		 jmp	 DWORD PTR $LN56@SetPacketR[esi*4]
$LN36@SetPacketR:

; 422  : 				lpItemInfo->AddSubItemText(_T(""));     // 1 zero based subitems...

  001b0	68 00 00 00 00	 push	 OFFSET ??_C@_00CNPNBAHC@@
  001b5	8d 4d e4	 lea	 ecx, DWORD PTR $T8[ebp]
  001b8	ff 15 00 00 00
	00		 call	 DWORD PTR __imp_??0?$CStringT@DV?$StrTraitMFC_DLL@DV?$ChTraitsCRT@D@ATL@@@@@ATL@@QAE@PBD@Z
; File C:\Program Files (x86)\Microsoft Visual Studio\2019\Community\VC\Tools\MSVC\14.29.30133\atlmfc\include\afxcoll.inl

; 321  : 		SetAtGrow(nIndex, newElement);

  001be	8d 45 e4	 lea	 eax, DWORD PTR $T8[ebp]
; File D:\git\src\IBK\IBK_DRFN\ProjSrc\SrcChartEx\ChartAddIn\ChartDesignPropertyAddIn\ChartDesignPropertyAddIn\PacketSuperGrid.cpp

; 422  : 				lpItemInfo->AddSubItemText(_T(""));     // 1 zero based subitems...

  001c1	c6 45 fc 05	 mov	 BYTE PTR __$EHRec$[ebp+8], 5
; File D:\git\src\IBK\IBK_DRFN\ProjSrc\SrcChartEx\ChartAddIn\ChartDesignPropertyAddIn\ChartDesignPropertyAddIn\SuperGridCtrl.h

; 17   : 	void AddSubItemText(const CString& strSubItem){ m_SubItems.Add(strSubItem); }

  001c5	8d 4f 64	 lea	 ecx, DWORD PTR [edi+100]
; File C:\Program Files (x86)\Microsoft Visual Studio\2019\Community\VC\Tools\MSVC\14.29.30133\atlmfc\include\afxcoll.inl

; 321  : 		SetAtGrow(nIndex, newElement);

  001c8	50		 push	 eax
  001c9	ff 71 08	 push	 DWORD PTR [ecx+8]
  001cc	e8 00 00 00 00	 call	 ?SetAtGrow@CStringArray@@QAEXHABV?$CStringT@DV?$StrTraitMFC_DLL@DV?$ChTraitsCRT@D@ATL@@@@@ATL@@@Z ; CStringArray::SetAtGrow
; File D:\git\src\IBK\IBK_DRFN\ProjSrc\SrcChartEx\ChartAddIn\ChartDesignPropertyAddIn\ChartDesignPropertyAddIn\PacketSuperGrid.cpp

; 422  : 				lpItemInfo->AddSubItemText(_T(""));     // 1 zero based subitems...

  001d1	8d 4d e4	 lea	 ecx, DWORD PTR $T8[ebp]

; 423  : 				break;

  001d4	eb 66		 jmp	 SHORT $LN58@SetPacketR
$LN38@SetPacketR:

; 424  : 			case 2:
; 425  : 				SetThirdSubItem(nItemIndex,"",szPacketName, lpItemInfo);

  001d6	68 00 00 00 00	 push	 OFFSET ??_C@_00CNPNBAHC@@
  001db	8d 4d e0	 lea	 ecx, DWORD PTR $T6[ebp]
  001de	ff 15 00 00 00
	00		 call	 DWORD PTR __imp_??0?$CStringT@DV?$StrTraitMFC_DLL@DV?$ChTraitsCRT@D@ATL@@@@@ATL@@QAE@PBD@Z
  001e4	57		 push	 edi
  001e5	8d 45 d8	 lea	 eax, DWORD PTR $T4[ebp]
  001e8	c6 45 fc 06	 mov	 BYTE PTR __$EHRec$[ebp+8], 6
  001ec	50		 push	 eax
  001ed	8d 45 e0	 lea	 eax, DWORD PTR $T6[ebp]
  001f0	8b cb		 mov	 ecx, ebx
  001f2	50		 push	 eax
  001f3	ff 75 ec	 push	 DWORD PTR _i$1$[ebp]
  001f6	e8 00 00 00 00	 call	 ?SetThirdSubItem@CPacketSuperGrid@@AAEXHABV?$CStringT@DV?$StrTraitMFC_DLL@DV?$ChTraitsCRT@D@ATL@@@@@ATL@@0PAVCItemInfo@@@Z ; CPacketSuperGrid::SetThirdSubItem
  001fb	8d 4d e0	 lea	 ecx, DWORD PTR $T6[ebp]

; 426  : 				break;

  001fe	eb 3c		 jmp	 SHORT $LN58@SetPacketR
$LN39@SetPacketR:

; 427  : 			case 3:
; 428  : 				SetFourSubItem( _LTEXT6( C6_NO), lpItemInfo);

  00200	a1 54 00 00 00	 mov	 eax, DWORD PTR ?g_iMetaTable@@3VIMetaTable@@A+84
  00205	b9 00 00 00 00	 mov	 ecx, OFFSET ?g_iMetaTable@@3VIMetaTable@@A ; g_iMetaTable
  0020a	6a 00		 push	 0
  0020c	ff b0 68 09 00
	00		 push	 DWORD PTR [eax+2408]
  00212	6a 06		 push	 6
  00214	ff b3 f4 00 00
	00		 push	 DWORD PTR [ebx+244]
  0021a	e8 00 00 00 00	 call	 ?GetLanguageText@IMetaTable@@QAEPBDPAUHWND__@@W4E_CODEPAGE@1@PBDH@Z ; IMetaTable::GetLanguageText
  0021f	50		 push	 eax
  00220	8d 4d dc	 lea	 ecx, DWORD PTR $T5[ebp]
  00223	ff 15 00 00 00
	00		 call	 DWORD PTR __imp_??0?$CStringT@DV?$StrTraitMFC_DLL@DV?$ChTraitsCRT@D@ATL@@@@@ATL@@QAE@PBD@Z
  00229	57		 push	 edi
  0022a	8d 45 dc	 lea	 eax, DWORD PTR $T5[ebp]
  0022d	c6 45 fc 07	 mov	 BYTE PTR __$EHRec$[ebp+8], 7
  00231	50		 push	 eax
  00232	8b cb		 mov	 ecx, ebx
  00234	e8 00 00 00 00	 call	 ?SetFourSubItem@CPacketSuperGrid@@AAEXABV?$CStringT@DV?$StrTraitMFC_DLL@DV?$ChTraitsCRT@D@ATL@@@@@ATL@@PAVCItemInfo@@@Z ; CPacketSuperGrid::SetFourSubItem
  00239	8d 4d dc	 lea	 ecx, DWORD PTR $T5[ebp]
$LN58@SetPacketR:

; 418  : 	for(int y=0 ;  y < nCol ; y++) {

  0023c	c6 45 fc 04	 mov	 BYTE PTR __$EHRec$[ebp+8], 4
  00240	ff 15 00 00 00
	00		 call	 DWORD PTR __imp_??1?$CStringT@DV?$StrTraitMFC_DLL@DV?$ChTraitsCRT@D@ATL@@@@@ATL@@QAE@XZ
  00246	8b 45 f0	 mov	 eax, DWORD PTR _nCol$1$[ebp]
$LN31@SetPacketR:
  00249	46		 inc	 esi
  0024a	3b f0		 cmp	 esi, eax
  0024c	0f 8c 4e ff ff
	ff		 jl	 $LL33@SetPacketR
$LN32@SetPacketR:

; 709  : 			SetSubItem(i, _MTEXTN( ePacketNameItem[i]), lpItemInfo); //add subitem text

  00252	8d 4d d8	 lea	 ecx, DWORD PTR $T4[ebp]
  00255	c7 45 fc ff ff
	ff ff		 mov	 DWORD PTR __$EHRec$[ebp+8], -1
  0025c	ff 15 00 00 00
	00		 call	 DWORD PTR __imp_??1?$CStringT@DV?$StrTraitMFC_DLL@DV?$ChTraitsCRT@D@ATL@@@@@ATL@@QAE@XZ

; 710  : 			CTreeItem* pParent = InsertItem(pRoot, lpItemInfo);  			//insert the iteminfo with ParentPtr

  00262	8b 75 d4	 mov	 esi, DWORD PTR _pRoot$1$[ebp]
  00265	8b cb		 mov	 ecx, ebx
  00267	6a 00		 push	 0
  00269	57		 push	 edi
  0026a	56		 push	 esi
  0026b	e8 00 00 00 00	 call	 ?InsertItem@CSuperGridCtrl@@QAEPAVCTreeItem@1@PAV21@PAVCItemInfo@@H@Z ; CSuperGridCtrl::InsertItem

; 711  : 			InsertItemToListCtrl(pRoot, pParent, lpItemInfo);

  00270	6a 00		 push	 0
  00272	57		 push	 edi
  00273	50		 push	 eax
  00274	56		 push	 esi
  00275	8b cb		 mov	 ecx, ebx
  00277	e8 00 00 00 00	 call	 ?InsertItemToListCtrl@CSuperGridCtrl@@QAEXPAVCTreeItem@1@0PAVCItemInfo@@H@Z ; CSuperGridCtrl::InsertItemToListCtrl
  0027c	8b 75 ec	 mov	 esi, DWORD PTR _i$1$[ebp]
  0027f	46		 inc	 esi
  00280	89 75 ec	 mov	 DWORD PTR _i$1$[ebp], esi
  00283	3b 35 00 00 00
	00		 cmp	 esi, DWORD PTR ?NUM_PACKETNAMEITEM@@3HB ; NUM_PACKETNAMEITEM
  00289	0f 8c 57 fe ff
	ff		 jl	 $LL4@SetPacketR
  0028f	8b 7d d4	 mov	 edi, DWORD PTR _pRoot$1$[ebp]
$LN3@SetPacketR:

; 712  : 		}
; 713  : 	}
; 714  : 	//could now expand one level
; 715  : 	Expand(pRoot, 0 /*listview index 0*/); 

  00292	6a 00		 push	 0
  00294	57		 push	 edi
  00295	8b cb		 mov	 ecx, ebx
  00297	e8 00 00 00 00	 call	 ?Expand@CSuperGridCtrl@@QAEHPAVCTreeItem@1@H@Z ; CSuperGridCtrl::Expand

; 716  : 	UINT uflag = LVIS_SELECTED | LVIS_FOCUSED;
; 717  : 	SetItemState(0, uflag, uflag);

  0029c	6a 03		 push	 3
  0029e	6a 03		 push	 3
  002a0	6a 00		 push	 0
  002a2	8b cb		 mov	 ecx, ebx
  002a4	e8 00 00 00 00	 call	 ?SetItemState@CListCtrl@@QAEHHII@Z ; CListCtrl::SetItemState
$LN1@SetPacketR:

; 718  : }

  002a9	8b 4d f4	 mov	 ecx, DWORD PTR __$EHRec$[ebp]
  002ac	64 89 0d 00 00
	00 00		 mov	 DWORD PTR fs:0, ecx
  002b3	59		 pop	 ecx
  002b4	5f		 pop	 edi
  002b5	5e		 pop	 esi
  002b6	5b		 pop	 ebx
  002b7	8b e5		 mov	 esp, ebp
  002b9	5d		 pop	 ebp
  002ba	c3		 ret	 0
  002bb	90		 npad	 1
$LN56@SetPacketR:
  002bc	00 00 00 00	 DD	 $LN36@SetPacketR
  002c0	00 00 00 00	 DD	 $LN36@SetPacketR
  002c4	00 00 00 00	 DD	 $LN38@SetPacketR
  002c8	00 00 00 00	 DD	 $LN39@SetPacketR
_TEXT	ENDS
;	COMDAT text$x
text$x	SEGMENT
__unwindfunclet$?SetPacketRootInit@CPacketSuperGrid@@AAEXXZ$0:
  00000	8b 45 d4	 mov	 eax, DWORD PTR $T3[ebp]
  00003	50		 push	 eax
  00004	e8 00 00 00 00	 call	 ??3CObject@@SGXPAX@Z	; CObject::operator delete
  00009	c3		 ret	 0
__unwindfunclet$?SetPacketRootInit@CPacketSuperGrid@@AAEXXZ$1:
  0000a	8d 4d ec	 lea	 ecx, DWORD PTR $T10[ebp]
  0000d	ff 25 00 00 00
	00		 jmp	 DWORD PTR __imp_??1?$CStringT@DV?$StrTraitMFC_DLL@DV?$ChTraitsCRT@D@ATL@@@@@ATL@@QAE@XZ
__unwindfunclet$?SetPacketRootInit@CPacketSuperGrid@@AAEXXZ$3:
  00013	8b 45 d0	 mov	 eax, DWORD PTR $T2[ebp]
  00016	50		 push	 eax
  00017	e8 00 00 00 00	 call	 ??3CObject@@SGXPAX@Z	; CObject::operator delete
  0001c	c3		 ret	 0
__unwindfunclet$?SetPacketRootInit@CPacketSuperGrid@@AAEXXZ$4:
  0001d	8d 4d e8	 lea	 ecx, DWORD PTR $T9[ebp]
  00020	ff 25 00 00 00
	00		 jmp	 DWORD PTR __imp_??1?$CStringT@DV?$StrTraitMFC_DLL@DV?$ChTraitsCRT@D@ATL@@@@@ATL@@QAE@XZ
__unwindfunclet$?SetPacketRootInit@CPacketSuperGrid@@AAEXXZ$5:
  00026	8d 4d d8	 lea	 ecx, DWORD PTR $T4[ebp]
  00029	ff 25 00 00 00
	00		 jmp	 DWORD PTR __imp_??1?$CStringT@DV?$StrTraitMFC_DLL@DV?$ChTraitsCRT@D@ATL@@@@@ATL@@QAE@XZ
__unwindfunclet$?SetPacketRootInit@CPacketSuperGrid@@AAEXXZ$6:
  0002f	8d 4d e4	 lea	 ecx, DWORD PTR $T8[ebp]
  00032	ff 25 00 00 00
	00		 jmp	 DWORD PTR __imp_??1?$CStringT@DV?$StrTraitMFC_DLL@DV?$ChTraitsCRT@D@ATL@@@@@ATL@@QAE@XZ
__unwindfunclet$?SetPacketRootInit@CPacketSuperGrid@@AAEXXZ$7:
  00038	8d 4d e0	 lea	 ecx, DWORD PTR $T6[ebp]
  0003b	ff 25 00 00 00
	00		 jmp	 DWORD PTR __imp_??1?$CStringT@DV?$StrTraitMFC_DLL@DV?$ChTraitsCRT@D@ATL@@@@@ATL@@QAE@XZ
__unwindfunclet$?SetPacketRootInit@CPacketSuperGrid@@AAEXXZ$8:
  00041	8d 4d dc	 lea	 ecx, DWORD PTR $T5[ebp]
  00044	ff 25 00 00 00
	00		 jmp	 DWORD PTR __imp_??1?$CStringT@DV?$StrTraitMFC_DLL@DV?$ChTraitsCRT@D@ATL@@@@@ATL@@QAE@XZ
  0004a	cc		 int	 3
  0004b	cc		 int	 3
  0004c	cc		 int	 3
  0004d	cc		 int	 3
  0004e	cc		 int	 3
__ehhandler$?SetPacketRootInit@CPacketSuperGrid@@AAEXXZ:
  0004f	90		 npad	 1
  00050	90		 npad	 1
  00051	8b 54 24 08	 mov	 edx, DWORD PTR [esp+8]
  00055	8d 42 0c	 lea	 eax, DWORD PTR [edx+12]
  00058	8b 4a cc	 mov	 ecx, DWORD PTR [edx-52]
  0005b	33 c8		 xor	 ecx, eax
  0005d	e8 00 00 00 00	 call	 @__security_check_cookie@4
  00062	b8 00 00 00 00	 mov	 eax, OFFSET __ehfuncinfo$?SetPacketRootInit@CPacketSuperGrid@@AAEXXZ
  00067	e9 00 00 00 00	 jmp	 ___CxxFrameHandler3
text$x	ENDS
?SetPacketRootInit@CPacketSuperGrid@@AAEXXZ ENDP	; CPacketSuperGrid::SetPacketRootInit
; Function compile flags: /Ogtp
; File D:\git\src\IBK\IBK_DRFN\ProjSrc\SrcChartEx\ChartAddIn\ChartDesignPropertyAddIn\ChartDesignPropertyAddIn\PacketSuperGrid.cpp
; File C:\Program Files (x86)\Microsoft Visual Studio\2019\Community\VC\Tools\MSVC\14.29.30133\atlmfc\include\afx.inl
; File D:\git\src\IBK\IBK_DRFN\ProjSrc\SrcChartEx\ChartAddIn\ChartDesignPropertyAddIn\ChartDesignPropertyAddIn\PacketSuperGrid.cpp
; File C:\Program Files (x86)\Microsoft Visual Studio\2019\Community\VC\Tools\MSVC\14.29.30133\atlmfc\include\afx.inl
; File D:\git\src\IBK\IBK_DRFN\ProjSrc\SrcChartEx\ChartAddIn\ChartDesignPropertyAddIn\ChartDesignPropertyAddIn\PacketSuperGrid.cpp
;	COMDAT ?SetUserDefineRootInit@CPacketSuperGrid@@AAEXXZ
_TEXT	SEGMENT
$T2 = -20						; size = 4
$T3 = -20						; size = 4
$T4 = -20						; size = 4
$T5 = -16						; size = 4
__$EHRec$ = -12						; size = 12
?SetUserDefineRootInit@CPacketSuperGrid@@AAEXXZ PROC	; CPacketSuperGrid::SetUserDefineRootInit, COMDAT
; _this$ = ecx

; 721  : {

  00000	55		 push	 ebp
  00001	8b ec		 mov	 ebp, esp
  00003	6a ff		 push	 -1
  00005	68 00 00 00 00	 push	 __ehhandler$?SetUserDefineRootInit@CPacketSuperGrid@@AAEXXZ
  0000a	64 a1 00 00 00
	00		 mov	 eax, DWORD PTR fs:0
  00010	50		 push	 eax
  00011	83 ec 08	 sub	 esp, 8
  00014	53		 push	 ebx
  00015	56		 push	 esi
  00016	57		 push	 edi
  00017	a1 00 00 00 00	 mov	 eax, DWORD PTR ___security_cookie
  0001c	33 c5		 xor	 eax, ebp
  0001e	50		 push	 eax
  0001f	8d 45 f4	 lea	 eax, DWORD PTR __$EHRec$[ebp]
  00022	64 a3 00 00 00
	00		 mov	 DWORD PTR fs:0, eax
  00028	8b f1		 mov	 esi, ecx
; File C:\Program Files (x86)\Microsoft Visual Studio\2019\Community\VC\Tools\MSVC\14.29.30133\atlmfc\include\afx.inl

; 116  : 	{ return ::operator new(nSize); }

  0002a	68 84 00 00 00	 push	 132			; 00000084H
  0002f	e8 00 00 00 00	 call	 ??2@YAPAXI@Z		; operator new
  00034	83 c4 04	 add	 esp, 4
; File D:\git\src\IBK\IBK_DRFN\ProjSrc\SrcChartEx\ChartAddIn\ChartDesignPropertyAddIn\ChartDesignPropertyAddIn\PacketSuperGrid.cpp

; 724  : 		CItemInfo* lpuser = new CItemInfo();

  00037	89 45 ec	 mov	 DWORD PTR $T4[ebp], eax
  0003a	c7 45 fc 00 00
	00 00		 mov	 DWORD PTR __$EHRec$[ebp+8], 0
  00041	85 c0		 test	 eax, eax
  00043	74 0b		 je	 SHORT $LN4@SetUserDef
  00045	8b c8		 mov	 ecx, eax
  00047	e8 00 00 00 00	 call	 ??0CItemInfo@@QAE@XZ	; CItemInfo::CItemInfo
  0004c	8b f8		 mov	 edi, eax
  0004e	eb 02		 jmp	 SHORT $LN5@SetUserDef
$LN4@SetUserDef:
  00050	33 ff		 xor	 edi, edi
$LN5@SetUserDef:

; 725  : 		SetRootItem( _LTEXT6( C6_USER_DEFINE), lpuser);

  00052	a1 54 00 00 00	 mov	 eax, DWORD PTR ?g_iMetaTable@@3VIMetaTable@@A+84
  00057	b9 00 00 00 00	 mov	 ecx, OFFSET ?g_iMetaTable@@3VIMetaTable@@A ; g_iMetaTable
  0005c	6a 00		 push	 0
  0005e	c7 45 fc ff ff
	ff ff		 mov	 DWORD PTR __$EHRec$[ebp+8], -1
  00065	ff b0 1c 0a 00
	00		 push	 DWORD PTR [eax+2588]
  0006b	6a 06		 push	 6
  0006d	ff b6 f4 00 00
	00		 push	 DWORD PTR [esi+244]
  00073	e8 00 00 00 00	 call	 ?GetLanguageText@IMetaTable@@QAEPBDPAUHWND__@@W4E_CODEPAGE@1@PBDH@Z ; IMetaTable::GetLanguageText
  00078	50		 push	 eax
  00079	8d 4d f0	 lea	 ecx, DWORD PTR $T5[ebp]
  0007c	ff 15 00 00 00
	00		 call	 DWORD PTR __imp_??0?$CStringT@DV?$StrTraitMFC_DLL@DV?$ChTraitsCRT@D@ATL@@@@@ATL@@QAE@PBD@Z
  00082	57		 push	 edi
  00083	8d 45 f0	 lea	 eax, DWORD PTR $T5[ebp]
  00086	c7 45 fc 01 00
	00 00		 mov	 DWORD PTR __$EHRec$[ebp+8], 1
  0008d	50		 push	 eax
  0008e	8b ce		 mov	 ecx, esi
  00090	e8 00 00 00 00	 call	 ?SetRootItem@CPacketSuperGrid@@AAEXABV?$CStringT@DV?$StrTraitMFC_DLL@DV?$ChTraitsCRT@D@ATL@@@@@ATL@@PAVCItemInfo@@@Z ; CPacketSuperGrid::SetRootItem
  00095	8d 4d f0	 lea	 ecx, DWORD PTR $T5[ebp]
  00098	c7 45 fc ff ff
	ff ff		 mov	 DWORD PTR __$EHRec$[ebp+8], -1
  0009f	ff 15 00 00 00
	00		 call	 DWORD PTR __imp_??1?$CStringT@DV?$StrTraitMFC_DLL@DV?$ChTraitsCRT@D@ATL@@@@@ATL@@QAE@XZ

; 726  : 		CTreeItem * pRoot2 = InsertRootItem(lpuser);

  000a5	57		 push	 edi
  000a6	8b ce		 mov	 ecx, esi
  000a8	e8 00 00 00 00	 call	 ?InsertRootItem@CSuperGridCtrl@@QAEPAVCTreeItem@1@PAVCItemInfo@@@Z ; CSuperGridCtrl::InsertRootItem
  000ad	8b d8		 mov	 ebx, eax

; 727  : 		InsertRootItemToListCtrl(pRoot2);

  000af	8b ce		 mov	 ecx, esi
  000b1	53		 push	 ebx
  000b2	e8 00 00 00 00	 call	 ?InsertRootItemToListCtrl@CSuperGridCtrl@@QAEXPAVCTreeItem@1@@Z ; CSuperGridCtrl::InsertRootItemToListCtrl

; 728  : 
; 729  : 		if( pRoot2 == NULL )

  000b7	85 db		 test	 ebx, ebx
  000b9	0f 84 b0 00 00
	00		 je	 $LN1@SetUserDef
; File C:\Program Files (x86)\Microsoft Visual Studio\2019\Community\VC\Tools\MSVC\14.29.30133\atlmfc\include\afx.inl

; 116  : 	{ return ::operator new(nSize); }

  000bf	68 84 00 00 00	 push	 132			; 00000084H
  000c4	e8 00 00 00 00	 call	 ??2@YAPAXI@Z		; operator new
  000c9	83 c4 04	 add	 esp, 4
; File D:\git\src\IBK\IBK_DRFN\ProjSrc\SrcChartEx\ChartAddIn\ChartDesignPropertyAddIn\ChartDesignPropertyAddIn\PacketSuperGrid.cpp

; 732  : 		CItemInfo* lpItemInfo = new CItemInfo();

  000cc	89 45 ec	 mov	 DWORD PTR $T3[ebp], eax
  000cf	c7 45 fc 02 00
	00 00		 mov	 DWORD PTR __$EHRec$[ebp+8], 2
  000d6	85 c0		 test	 eax, eax
  000d8	74 0b		 je	 SHORT $LN6@SetUserDef
  000da	8b c8		 mov	 ecx, eax
  000dc	e8 00 00 00 00	 call	 ??0CItemInfo@@QAE@XZ	; CItemInfo::CItemInfo
  000e1	8b f8		 mov	 edi, eax
  000e3	eb 02		 jmp	 SHORT $LN7@SetUserDef
$LN6@SetUserDef:
  000e5	33 ff		 xor	 edi, edi
$LN7@SetUserDef:

; 733  : 		SetRootItem( _LTEXT6( C6_INPUT_ITEM), lpItemInfo);

  000e7	a1 54 00 00 00	 mov	 eax, DWORD PTR ?g_iMetaTable@@3VIMetaTable@@A+84
  000ec	b9 00 00 00 00	 mov	 ecx, OFFSET ?g_iMetaTable@@3VIMetaTable@@A ; g_iMetaTable
  000f1	6a 00		 push	 0
  000f3	c7 45 fc ff ff
	ff ff		 mov	 DWORD PTR __$EHRec$[ebp+8], -1
  000fa	ff b0 20 0a 00
	00		 push	 DWORD PTR [eax+2592]
  00100	6a 06		 push	 6
  00102	ff b6 f4 00 00
	00		 push	 DWORD PTR [esi+244]
  00108	e8 00 00 00 00	 call	 ?GetLanguageText@IMetaTable@@QAEPBDPAUHWND__@@W4E_CODEPAGE@1@PBDH@Z ; IMetaTable::GetLanguageText
  0010d	50		 push	 eax
  0010e	8d 4d ec	 lea	 ecx, DWORD PTR $T2[ebp]
  00111	ff 15 00 00 00
	00		 call	 DWORD PTR __imp_??0?$CStringT@DV?$StrTraitMFC_DLL@DV?$ChTraitsCRT@D@ATL@@@@@ATL@@QAE@PBD@Z
  00117	57		 push	 edi
  00118	8d 45 ec	 lea	 eax, DWORD PTR $T2[ebp]
  0011b	c7 45 fc 03 00
	00 00		 mov	 DWORD PTR __$EHRec$[ebp+8], 3
  00122	50		 push	 eax
  00123	8b ce		 mov	 ecx, esi
  00125	e8 00 00 00 00	 call	 ?SetRootItem@CPacketSuperGrid@@AAEXABV?$CStringT@DV?$StrTraitMFC_DLL@DV?$ChTraitsCRT@D@ATL@@@@@ATL@@PAVCItemInfo@@@Z ; CPacketSuperGrid::SetRootItem
  0012a	8d 4d ec	 lea	 ecx, DWORD PTR $T2[ebp]
  0012d	c7 45 fc ff ff
	ff ff		 mov	 DWORD PTR __$EHRec$[ebp+8], -1
  00134	ff 15 00 00 00
	00		 call	 DWORD PTR __imp_??1?$CStringT@DV?$StrTraitMFC_DLL@DV?$ChTraitsCRT@D@ATL@@@@@ATL@@QAE@XZ

; 734  : 		CTreeItem* pParent = InsertItem(pRoot2, lpItemInfo);

  0013a	6a 00		 push	 0
  0013c	57		 push	 edi
  0013d	53		 push	 ebx
  0013e	8b ce		 mov	 ecx, esi
  00140	e8 00 00 00 00	 call	 ?InsertItem@CSuperGridCtrl@@QAEPAVCTreeItem@1@PAV21@PAVCItemInfo@@H@Z ; CSuperGridCtrl::InsertItem

; 735  : 		InsertItemToListCtrl(pRoot2, pParent, lpItemInfo);

  00145	6a 00		 push	 0
  00147	57		 push	 edi
  00148	50		 push	 eax
  00149	53		 push	 ebx
  0014a	8b ce		 mov	 ecx, esi
  0014c	e8 00 00 00 00	 call	 ?InsertItemToListCtrl@CSuperGridCtrl@@QAEXPAVCTreeItem@1@0PAVCItemInfo@@H@Z ; CSuperGridCtrl::InsertItemToListCtrl

; 736  : 
; 737  : 		//could now expand one level
; 738  : 		Expand(pRoot2, NodeToIndex(pRoot2) ); 

  00151	53		 push	 ebx
  00152	8b ce		 mov	 ecx, esi
  00154	e8 00 00 00 00	 call	 ?NodeToIndex@CSuperGridCtrl@@IAEHPAVCTreeItem@1@@Z ; CSuperGridCtrl::NodeToIndex
  00159	50		 push	 eax
  0015a	53		 push	 ebx
  0015b	8b ce		 mov	 ecx, esi
  0015d	e8 00 00 00 00	 call	 ?Expand@CSuperGridCtrl@@QAEHPAVCTreeItem@1@H@Z ; CSuperGridCtrl::Expand

; 739  : 		UINT uflag = LVIS_SELECTED | LVIS_FOCUSED;
; 740  : 		SetItemState(0, uflag, uflag);

  00162	6a 03		 push	 3
  00164	6a 03		 push	 3
  00166	6a 00		 push	 0
  00168	8b ce		 mov	 ecx, esi
  0016a	e8 00 00 00 00	 call	 ?SetItemState@CListCtrl@@QAEHHII@Z ; CListCtrl::SetItemState
$LN1@SetUserDef:

; 741  : 	}
; 742  : }

  0016f	8b 4d f4	 mov	 ecx, DWORD PTR __$EHRec$[ebp]
  00172	64 89 0d 00 00
	00 00		 mov	 DWORD PTR fs:0, ecx
  00179	59		 pop	 ecx
  0017a	5f		 pop	 edi
  0017b	5e		 pop	 esi
  0017c	5b		 pop	 ebx
  0017d	8b e5		 mov	 esp, ebp
  0017f	5d		 pop	 ebp
  00180	c3		 ret	 0
_TEXT	ENDS
;	COMDAT text$x
text$x	SEGMENT
__unwindfunclet$?SetUserDefineRootInit@CPacketSuperGrid@@AAEXXZ$0:
  00000	8b 45 ec	 mov	 eax, DWORD PTR $T4[ebp]
  00003	50		 push	 eax
  00004	e8 00 00 00 00	 call	 ??3CObject@@SGXPAX@Z	; CObject::operator delete
  00009	c3		 ret	 0
__unwindfunclet$?SetUserDefineRootInit@CPacketSuperGrid@@AAEXXZ$1:
  0000a	8d 4d f0	 lea	 ecx, DWORD PTR $T5[ebp]
  0000d	ff 25 00 00 00
	00		 jmp	 DWORD PTR __imp_??1?$CStringT@DV?$StrTraitMFC_DLL@DV?$ChTraitsCRT@D@ATL@@@@@ATL@@QAE@XZ
__unwindfunclet$?SetUserDefineRootInit@CPacketSuperGrid@@AAEXXZ$2:
  00013	8b 45 ec	 mov	 eax, DWORD PTR $T3[ebp]
  00016	50		 push	 eax
  00017	e8 00 00 00 00	 call	 ??3CObject@@SGXPAX@Z	; CObject::operator delete
  0001c	c3		 ret	 0
__unwindfunclet$?SetUserDefineRootInit@CPacketSuperGrid@@AAEXXZ$3:
  0001d	8d 4d ec	 lea	 ecx, DWORD PTR $T2[ebp]
  00020	ff 25 00 00 00
	00		 jmp	 DWORD PTR __imp_??1?$CStringT@DV?$StrTraitMFC_DLL@DV?$ChTraitsCRT@D@ATL@@@@@ATL@@QAE@XZ
  00026	cc		 int	 3
  00027	cc		 int	 3
  00028	cc		 int	 3
  00029	cc		 int	 3
  0002a	cc		 int	 3
__ehhandler$?SetUserDefineRootInit@CPacketSuperGrid@@AAEXXZ:
  0002b	90		 npad	 1
  0002c	90		 npad	 1
  0002d	8b 54 24 08	 mov	 edx, DWORD PTR [esp+8]
  00031	8d 42 0c	 lea	 eax, DWORD PTR [edx+12]
  00034	8b 4a e8	 mov	 ecx, DWORD PTR [edx-24]
  00037	33 c8		 xor	 ecx, eax
  00039	e8 00 00 00 00	 call	 @__security_check_cookie@4
  0003e	b8 00 00 00 00	 mov	 eax, OFFSET __ehfuncinfo$?SetUserDefineRootInit@CPacketSuperGrid@@AAEXXZ
  00043	e9 00 00 00 00	 jmp	 ___CxxFrameHandler3
text$x	ENDS
?SetUserDefineRootInit@CPacketSuperGrid@@AAEXXZ ENDP	; CPacketSuperGrid::SetUserDefineRootInit
; Function compile flags: /Ogtp
; File D:\git\src\IBK\IBK_DRFN\ProjSrc\SrcChartEx\ChartAddIn\ChartDesignPropertyAddIn\ChartDesignPropertyAddIn\PacketSuperGrid.cpp
;	COMDAT ?GetMessageMap@CPacketSuperGrid@@MBEPBUAFX_MSGMAP@@XZ
_TEXT	SEGMENT
?GetMessageMap@CPacketSuperGrid@@MBEPBUAFX_MSGMAP@@XZ PROC ; CPacketSuperGrid::GetMessageMap, COMDAT
; _this$ = ecx

; 32   : BEGIN_MESSAGE_MAP(CPacketSuperGrid, CSuperGridCtrl)

  00000	b8 00 00 00 00	 mov	 eax, OFFSET ?messageMap@?1??GetThisMessageMap@CPacketSuperGrid@@KGPBUAFX_MSGMAP@@XZ@4U3@B
  00005	c3		 ret	 0
?GetMessageMap@CPacketSuperGrid@@MBEPBUAFX_MSGMAP@@XZ ENDP ; CPacketSuperGrid::GetMessageMap
_TEXT	ENDS
; Function compile flags: /Ogtp
; File D:\git\src\IBK\IBK_DRFN\ProjSrc\SrcChartEx\ChartAddIn\ChartDesignPropertyAddIn\ChartDesignPropertyAddIn\PacketSuperGrid.cpp
;	COMDAT ?GetThisMessageMap@CPacketSuperGrid@@KGPBUAFX_MSGMAP@@XZ
_TEXT	SEGMENT
?GetThisMessageMap@CPacketSuperGrid@@KGPBUAFX_MSGMAP@@XZ PROC ; CPacketSuperGrid::GetThisMessageMap, COMDAT

; 33   : 	//{{AFX_MSG_MAP(CPacketSuperGrid)
; 34   : 	ON_WM_CREATE()
; 35   : 	ON_NOTIFY_REFLECT(NM_DBLCLK, OnDblclk)
; 36   : 	//}}AFX_MSG_MAP
; 37   : END_MESSAGE_MAP()

  00000	b8 00 00 00 00	 mov	 eax, OFFSET ?messageMap@?1??GetThisMessageMap@CPacketSuperGrid@@KGPBUAFX_MSGMAP@@XZ@4U3@B
  00005	c3		 ret	 0
?GetThisMessageMap@CPacketSuperGrid@@KGPBUAFX_MSGMAP@@XZ ENDP ; CPacketSuperGrid::GetThisMessageMap
_TEXT	ENDS
; Function compile flags: /Ogtp
; File D:\git\src\IBK\IBK_DRFN\ProjSrc\SrcChartEx\ChartAddIn\ChartDesignPropertyAddIn\ChartDesignPropertyAddIn\PacketSuperGrid.cpp
; File C:\Program Files (x86)\Microsoft Visual Studio\2019\Community\VC\Tools\MSVC\14.29.30133\atlmfc\include\cstringt.h
; File D:\git\src\IBK\IBK_DRFN\ProjSrc\SrcChartEx\ChartAddIn\ChartDesignPropertyAddIn\ChartDesignPropertyAddIn\PacketSuperGrid.cpp
; File C:\Program Files (x86)\Microsoft Visual Studio\2019\Community\VC\Tools\MSVC\14.29.30133\atlmfc\include\afxwin1.inl
; File D:\git\src\IBK\IBK_DRFN\ProjSrc\SrcChartEx\ChartAddIn\ChartDesignPropertyAddIn\Include_Chart\Dll_Load\IMetaTable.h
; File C:\Program Files (x86)\Microsoft Visual Studio\2019\Community\VC\Tools\MSVC\14.29.30133\atlmfc\include\afxwin1.inl
; File D:\git\src\IBK\IBK_DRFN\ProjSrc\SrcChartEx\ChartAddIn\ChartDesignPropertyAddIn\ChartDesignPropertyAddIn\PacketSuperGrid.cpp
; File D:\git\src\IBK\IBK_DRFN\ProjSrc\SrcChartEx\ChartAddIn\ChartDesignPropertyAddIn\Include_Chart\Dll_Load\IMetaTable.h
; File C:\Program Files (x86)\Microsoft Visual Studio\2019\Community\VC\Tools\MSVC\14.29.30133\atlmfc\include\afxwin1.inl
; File D:\git\src\IBK\IBK_DRFN\ProjSrc\SrcChartEx\ChartAddIn\ChartDesignPropertyAddIn\ChartDesignPropertyAddIn\PacketSuperGrid.cpp
; File C:\Program Files (x86)\Microsoft Visual Studio\2019\Community\VC\Tools\MSVC\14.29.30133\atlmfc\include\afxwin2.inl
; File D:\git\src\IBK\IBK_DRFN\ProjSrc\SrcChartEx\ChartAddIn\ChartDesignPropertyAddIn\ChartDesignPropertyAddIn\PacketSuperGrid.cpp
;	COMDAT ?OnDblclk@CPacketSuperGrid@@IAEXPAUtagNMHDR@@PAJ@Z
_TEXT	SEGMENT
_dlg$2 = -352						; size = 328
___mlrs__$3 = -24					; size = 4
_nIndex$1$ = -20					; size = 4
_strItem$ = -16						; size = 4
__$EHRec$ = -12						; size = 12
_szReal$4 = 8						; size = 4
_pNMHDR$ = 8						; size = 4
_pResult$ = 12						; size = 4
?OnDblclk@CPacketSuperGrid@@IAEXPAUtagNMHDR@@PAJ@Z PROC	; CPacketSuperGrid::OnDblclk, COMDAT
; _this$ = ecx

; 373  : {

  00000	55		 push	 ebp
  00001	8b ec		 mov	 ebp, esp
  00003	6a ff		 push	 -1
  00005	68 00 00 00 00	 push	 __ehhandler$?OnDblclk@CPacketSuperGrid@@IAEXPAUtagNMHDR@@PAJ@Z
  0000a	64 a1 00 00 00
	00		 mov	 eax, DWORD PTR fs:0
  00010	50		 push	 eax
  00011	81 ec 54 01 00
	00		 sub	 esp, 340		; 00000154H
  00017	53		 push	 ebx
  00018	56		 push	 esi
  00019	57		 push	 edi
  0001a	a1 00 00 00 00	 mov	 eax, DWORD PTR ___security_cookie
  0001f	33 c5		 xor	 eax, ebp
  00021	50		 push	 eax
  00022	8d 45 f4	 lea	 eax, DWORD PTR __$EHRec$[ebp]
  00025	64 a3 00 00 00
	00		 mov	 DWORD PTR fs:0, eax
  0002b	8b d9		 mov	 ebx, ecx

; 374  : 	CSuperGridCtrl::OnDblclk(pNMHDR, pResult);

  0002d	ff 75 0c	 push	 DWORD PTR _pResult$[ebp]
  00030	8b 75 08	 mov	 esi, DWORD PTR _pNMHDR$[ebp]
  00033	56		 push	 esi
  00034	e8 00 00 00 00	 call	 ?OnDblclk@CSuperGridCtrl@@IAEXPAUtagNMHDR@@PAJ@Z ; CSuperGridCtrl::OnDblclk

; 375  :     NM_LISTVIEW* pNMListView = (NM_LISTVIEW*)pNMHDR;
; 376  :     int itemindex = pNMListView->iItem;
; 377  : 
; 378  : 	CString strItem = GetItemText(itemindex, 0);

  00039	6a 00		 push	 0
  0003b	ff 76 0c	 push	 DWORD PTR [esi+12]
  0003e	8d 45 f0	 lea	 eax, DWORD PTR _strItem$[ebp]
  00041	8b cb		 mov	 ecx, ebx
  00043	50		 push	 eax
  00044	e8 00 00 00 00	 call	 ?GetItemText@CListCtrl@@QBE?AV?$CStringT@DV?$StrTraitMFC_DLL@DV?$ChTraitsCRT@D@ATL@@@@@ATL@@HH@Z ; CListCtrl::GetItemText

; 380  : 	if(strItem == _LTEXT6( C6_INPUT_ITEM))

  00049	a1 54 00 00 00	 mov	 eax, DWORD PTR ?g_iMetaTable@@3VIMetaTable@@A+84
  0004e	b9 00 00 00 00	 mov	 ecx, OFFSET ?g_iMetaTable@@3VIMetaTable@@A ; g_iMetaTable
  00053	6a 00		 push	 0
  00055	c7 45 fc 00 00
	00 00		 mov	 DWORD PTR __$EHRec$[ebp+8], 0
  0005c	ff b0 20 0a 00
	00		 push	 DWORD PTR [eax+2592]
  00062	6a 06		 push	 6
  00064	ff b3 f4 00 00
	00		 push	 DWORD PTR [ebx+244]
  0006a	e8 00 00 00 00	 call	 ?GetLanguageText@IMetaTable@@QAEPBDPAUHWND__@@W4E_CODEPAGE@1@PBDH@Z ; IMetaTable::GetLanguageText
; File C:\Program Files (x86)\Microsoft Visual Studio\2019\Community\VC\Tools\MSVC\14.29.30133\atlmfc\include\cstringt.h

; 2486 : 		return(str1.Compare(psz2) == 0);

  0006f	50		 push	 eax
  00070	8d 4d f0	 lea	 ecx, DWORD PTR _strItem$[ebp]
  00073	ff 15 00 00 00
	00		 call	 DWORD PTR __imp_?Compare@?$CStringT@DV?$StrTraitMFC_DLL@DV?$ChTraitsCRT@D@ATL@@@@@ATL@@QBEHPBD@Z
  00079	85 c0		 test	 eax, eax
; File D:\git\src\IBK\IBK_DRFN\ProjSrc\SrcChartEx\ChartAddIn\ChartDesignPropertyAddIn\ChartDesignPropertyAddIn\PacketSuperGrid.cpp

; 380  : 	if(strItem == _LTEXT6( C6_INPUT_ITEM))

  0007b	0f 85 21 01 00
	00		 jne	 $LN3@OnDblclk

; 381  : 		input = true;
; 382  : 
; 383  : 	if(input)
; 384  : 	{
; 385  : 		int nIndex = GetSelectedItem();

  00081	8b cb		 mov	 ecx, ebx
  00083	e8 00 00 00 00	 call	 ?GetSelectedItem@CSuperGridCtrl@@QBEHXZ ; CSuperGridCtrl::GetSelectedItem
  00088	89 45 ec	 mov	 DWORD PTR _nIndex$1$[ebp], eax

; 386  : 		if(nIndex != -1)

  0008b	83 f8 ff	 cmp	 eax, -1
  0008e	0f 84 20 01 00
	00		 je	 $LN4@OnDblclk

; 387  : 		{
; 388  : 			ML_SET_LANGUAGE_RES();

  00094	e8 00 00 00 00	 call	 ?AfxGetStaticModuleState@@YGPAVAFX_MODULE_STATE@@XZ ; AfxGetStaticModuleState
  00099	8b 48 08	 mov	 ecx, DWORD PTR [eax+8]
  0009c	51		 push	 ecx
  0009d	ff b3 f4 00 00
	00		 push	 DWORD PTR [ebx+244]
  000a3	b9 00 00 00 00	 mov	 ecx, OFFSET ?g_iMetaTable@@3VIMetaTable@@A ; g_iMetaTable
  000a8	e8 00 00 00 00	 call	 ?LoadResourceDLL@IMetaTable@@QAEPAUHINSTANCE__@@PAUHWND__@@PAU2@@Z ; IMetaTable::LoadResourceDLL
  000ad	8b f8		 mov	 edi, eax
; File C:\Program Files (x86)\Microsoft Visual Studio\2019\Community\VC\Tools\MSVC\14.29.30133\atlmfc\include\afxwin1.inl

; 25   : 		return afxCurrentResourceHandle; }

  000af	e8 00 00 00 00	 call	 ?AfxGetModuleState@@YGPAVAFX_MODULE_STATE@@XZ ; AfxGetModuleState
; File D:\git\src\IBK\IBK_DRFN\ProjSrc\SrcChartEx\ChartAddIn\ChartDesignPropertyAddIn\Include_Chart\Dll_Load\IMetaTable.h

; 1032 : 		m_hInstance = AfxGetResourceHandle();

  000b4	8b 70 0c	 mov	 esi, DWORD PTR [eax+12]
  000b7	89 75 e8	 mov	 DWORD PTR ___mlrs__$3[ebp], esi
; File C:\Program Files (x86)\Microsoft Visual Studio\2019\Community\VC\Tools\MSVC\14.29.30133\atlmfc\include\afxwin1.inl

; 27   : 	{ ASSERT(hInstResource != NULL); afxCurrentResourceHandle = hInstResource; }

  000ba	e8 00 00 00 00	 call	 ?AfxGetModuleState@@YGPAVAFX_MODULE_STATE@@XZ ; AfxGetModuleState
  000bf	89 78 0c	 mov	 DWORD PTR [eax+12], edi
; File D:\git\src\IBK\IBK_DRFN\ProjSrc\SrcChartEx\ChartAddIn\ChartDesignPropertyAddIn\ChartDesignPropertyAddIn\PacketSuperGrid.cpp

; 389  : 			CPacketUserDefine dlg( m_hOcxWnd);

  000c2	6a 00		 push	 0
  000c4	ff b3 f4 00 00
	00		 push	 DWORD PTR [ebx+244]
  000ca	8d 8d a0 fe ff
	ff		 lea	 ecx, DWORD PTR _dlg$2[ebp]
  000d0	c6 45 fc 01	 mov	 BYTE PTR __$EHRec$[ebp+8], 1
  000d4	e8 00 00 00 00	 call	 ??0CPacketUserDefine@@QAE@PAUHWND__@@PAVCWnd@@@Z ; CPacketUserDefine::CPacketUserDefine

; 390  : 			if(dlg.DoModal()==IDOK)

  000d9	8d 8d a0 fe ff
	ff		 lea	 ecx, DWORD PTR _dlg$2[ebp]
  000df	c6 45 fc 02	 mov	 BYTE PTR __$EHRec$[ebp+8], 2
  000e3	e8 00 00 00 00	 call	 ?DoModal@CDialog@@UAEHXZ ; CDialog::DoModal
  000e8	83 f8 01	 cmp	 eax, 1
  000eb	75 6d		 jne	 SHORT $LN6@OnDblclk

; 391  : 			{
; 392  : 				CString szReal;

  000ed	8d 4d 08	 lea	 ecx, DWORD PTR _szReal$4[ebp]
  000f0	ff 15 00 00 00
	00		 call	 DWORD PTR __imp_??0?$CStringT@DV?$StrTraitMFC_DLL@DV?$ChTraitsCRT@D@ATL@@@@@ATL@@QAE@XZ

; 393  : 				if(dlg.m_bCheckReal == 0)

  000f6	83 7d d0 00	 cmp	 DWORD PTR _dlg$2[ebp+304], 0
  000fa	b9 00 00 00 00	 mov	 ecx, OFFSET ?g_iMetaTable@@3VIMetaTable@@A ; g_iMetaTable
  000ff	a1 54 00 00 00	 mov	 eax, DWORD PTR ?g_iMetaTable@@3VIMetaTable@@A+84
  00104	c6 45 fc 03	 mov	 BYTE PTR __$EHRec$[ebp+8], 3
  00108	6a 00		 push	 0
  0010a	75 08		 jne	 SHORT $LN7@OnDblclk

; 394  : 					szReal = _LTEXT6( C6_NO);

  0010c	ff b0 68 09 00
	00		 push	 DWORD PTR [eax+2408]
  00112	eb 06		 jmp	 SHORT $LN34@OnDblclk
$LN7@OnDblclk:

; 395  : 				else
; 396  : 					szReal = _LTEXT6( C6_YES);

  00114	ff b0 64 09 00
	00		 push	 DWORD PTR [eax+2404]
$LN34@OnDblclk:

; 397  : 				//nami
; 398  : 	//			HowToInsertItemsAfterTheGridHasBeenInitialized(nIndex, 1, dlg.m_strPacketName ,dlg.m_strFieldName ,dlg.m_strLength , dlg.m_strType, szReal);
; 399  : 				HowToInsertItemsAfterTheGridHasBeenInitialized(nIndex, 1, dlg.m_strPacketName ,dlg.m_strFieldName ,dlg.m_strLength , dlg.m_strDetailPacketType, szReal);

  0011a	6a 06		 push	 6
  0011c	ff b3 f4 00 00
	00		 push	 DWORD PTR [ebx+244]
  00122	e8 00 00 00 00	 call	 ?GetLanguageText@IMetaTable@@QAEPBDPAUHWND__@@W4E_CODEPAGE@1@PBDH@Z ; IMetaTable::GetLanguageText
  00127	50		 push	 eax
  00128	8d 4d 08	 lea	 ecx, DWORD PTR _szReal$4[ebp]
  0012b	ff 15 00 00 00
	00		 call	 DWORD PTR __imp_??4?$CStringT@DV?$StrTraitMFC_DLL@DV?$ChTraitsCRT@D@ATL@@@@@ATL@@QAEAAV01@PBD@Z
  00131	8d 45 08	 lea	 eax, DWORD PTR _szReal$4[ebp]
  00134	8b cb		 mov	 ecx, ebx
  00136	50		 push	 eax
  00137	8d 45 dc	 lea	 eax, DWORD PTR _dlg$2[ebp+316]
  0013a	50		 push	 eax
  0013b	8d 45 d4	 lea	 eax, DWORD PTR _dlg$2[ebp+308]
  0013e	50		 push	 eax
  0013f	8d 45 cc	 lea	 eax, DWORD PTR _dlg$2[ebp+300]
  00142	50		 push	 eax
  00143	8d 45 c8	 lea	 eax, DWORD PTR _dlg$2[ebp+296]
  00146	50		 push	 eax
  00147	6a 01		 push	 1
  00149	ff 75 ec	 push	 DWORD PTR _nIndex$1$[ebp]
  0014c	e8 00 00 00 00	 call	 ?HowToInsertItemsAfterTheGridHasBeenInitialized@CPacketSuperGrid@@QAEXHHABV?$CStringT@DV?$StrTraitMFC_DLL@DV?$ChTraitsCRT@D@ATL@@@@@ATL@@0000@Z ; CPacketSuperGrid::HowToInsertItemsAfterTheGridHasBeenInitialized

; 400  : 			}

  00151	8d 4d 08	 lea	 ecx, DWORD PTR _szReal$4[ebp]
  00154	ff 15 00 00 00
	00		 call	 DWORD PTR __imp_??1?$CStringT@DV?$StrTraitMFC_DLL@DV?$ChTraitsCRT@D@ATL@@@@@ATL@@QAE@XZ
$LN6@OnDblclk:
  0015a	8d 4d dc	 lea	 ecx, DWORD PTR _dlg$2[ebp+316]
  0015d	ff 15 00 00 00
	00		 call	 DWORD PTR __imp_??1?$CStringT@DV?$StrTraitMFC_DLL@DV?$ChTraitsCRT@D@ATL@@@@@ATL@@QAE@XZ
  00163	8d 4d d4	 lea	 ecx, DWORD PTR _dlg$2[ebp+308]
  00166	ff 15 00 00 00
	00		 call	 DWORD PTR __imp_??1?$CStringT@DV?$StrTraitMFC_DLL@DV?$ChTraitsCRT@D@ATL@@@@@ATL@@QAE@XZ
  0016c	8d 4d cc	 lea	 ecx, DWORD PTR _dlg$2[ebp+300]
  0016f	ff 15 00 00 00
	00		 call	 DWORD PTR __imp_??1?$CStringT@DV?$StrTraitMFC_DLL@DV?$ChTraitsCRT@D@ATL@@@@@ATL@@QAE@XZ
  00175	8d 4d c8	 lea	 ecx, DWORD PTR _dlg$2[ebp+296]
  00178	ff 15 00 00 00
	00		 call	 DWORD PTR __imp_??1?$CStringT@DV?$StrTraitMFC_DLL@DV?$ChTraitsCRT@D@ATL@@@@@ATL@@QAE@XZ
  0017e	8d 8d 48 ff ff
	ff		 lea	 ecx, DWORD PTR _dlg$2[ebp+168]
  00184	e8 00 00 00 00	 call	 ??1CComboBox@@UAE@XZ	; CComboBox::~CComboBox
  00189	8d 8d a0 fe ff
	ff		 lea	 ecx, DWORD PTR _dlg$2[ebp]
  0018f	e8 00 00 00 00	 call	 ??1CDialog@@UAE@XZ	; CDialog::~CDialog
; File D:\git\src\IBK\IBK_DRFN\ProjSrc\SrcChartEx\ChartAddIn\ChartDesignPropertyAddIn\Include_Chart\Dll_Load\IMetaTable.h

; 1036 : 	{

  00194	c6 45 fc 04	 mov	 BYTE PTR __$EHRec$[ebp+8], 4
; File C:\Program Files (x86)\Microsoft Visual Studio\2019\Community\VC\Tools\MSVC\14.29.30133\atlmfc\include\afxwin1.inl

; 27   : 	{ ASSERT(hInstResource != NULL); afxCurrentResourceHandle = hInstResource; }

  00198	e8 00 00 00 00	 call	 ?AfxGetModuleState@@YGPAVAFX_MODULE_STATE@@XZ ; AfxGetModuleState
  0019d	89 70 0c	 mov	 DWORD PTR [eax+12], esi
; File D:\git\src\IBK\IBK_DRFN\ProjSrc\SrcChartEx\ChartAddIn\ChartDesignPropertyAddIn\ChartDesignPropertyAddIn\PacketSuperGrid.cpp

; 402  : 	}

  001a0	eb 12		 jmp	 SHORT $LN4@OnDblclk
$LN3@OnDblclk:
; File C:\Program Files (x86)\Microsoft Visual Studio\2019\Community\VC\Tools\MSVC\14.29.30133\atlmfc\include\afxwin2.inl

; 39   : 	{ ASSERT(::IsWindow(m_hWnd)); return ::PostMessage(m_hWnd, message, wParam, lParam); }

  001a2	6a 00		 push	 0
  001a4	6a 0d		 push	 13			; 0000000dH
  001a6	68 00 01 00 00	 push	 256			; 00000100H
  001ab	ff 73 20	 push	 DWORD PTR [ebx+32]
  001ae	ff 15 00 00 00
	00		 call	 DWORD PTR __imp__PostMessageA@16
$LN4@OnDblclk:
; File D:\git\src\IBK\IBK_DRFN\ProjSrc\SrcChartEx\ChartAddIn\ChartDesignPropertyAddIn\ChartDesignPropertyAddIn\PacketSuperGrid.cpp

; 405  : 	*pResult = 0;

  001b4	8b 45 0c	 mov	 eax, DWORD PTR _pResult$[ebp]

; 406  : }

  001b7	8d 4d f0	 lea	 ecx, DWORD PTR _strItem$[ebp]
  001ba	c7 00 00 00 00
	00		 mov	 DWORD PTR [eax], 0
  001c0	ff 15 00 00 00
	00		 call	 DWORD PTR __imp_??1?$CStringT@DV?$StrTraitMFC_DLL@DV?$ChTraitsCRT@D@ATL@@@@@ATL@@QAE@XZ
  001c6	8b 4d f4	 mov	 ecx, DWORD PTR __$EHRec$[ebp]
  001c9	64 89 0d 00 00
	00 00		 mov	 DWORD PTR fs:0, ecx
  001d0	59		 pop	 ecx
  001d1	5f		 pop	 edi
  001d2	5e		 pop	 esi
  001d3	5b		 pop	 ebx
  001d4	8b e5		 mov	 esp, ebp
  001d6	5d		 pop	 ebp
  001d7	c2 08 00	 ret	 8
_TEXT	ENDS
;	COMDAT text$x
text$x	SEGMENT
__unwindfunclet$?OnDblclk@CPacketSuperGrid@@IAEXPAUtagNMHDR@@PAJ@Z$0:
  00000	8d 4d f0	 lea	 ecx, DWORD PTR _strItem$[ebp]
  00003	ff 25 00 00 00
	00		 jmp	 DWORD PTR __imp_??1?$CStringT@DV?$StrTraitMFC_DLL@DV?$ChTraitsCRT@D@ATL@@@@@ATL@@QAE@XZ
__unwindfunclet$?OnDblclk@CPacketSuperGrid@@IAEXPAUtagNMHDR@@PAJ@Z$1:
  00009	8d 4d e8	 lea	 ecx, DWORD PTR ___mlrs__$3[ebp]
  0000c	e9 00 00 00 00	 jmp	 ??1CMultiLanguageResourceSetter@@QAE@XZ ; CMultiLanguageResourceSetter::~CMultiLanguageResourceSetter
__unwindfunclet$?OnDblclk@CPacketSuperGrid@@IAEXPAUtagNMHDR@@PAJ@Z$2:
  00011	8d 8d a0 fe ff
	ff		 lea	 ecx, DWORD PTR _dlg$2[ebp]
  00017	e9 00 00 00 00	 jmp	 ??1CPacketUserDefine@@UAE@XZ
__unwindfunclet$?OnDblclk@CPacketSuperGrid@@IAEXPAUtagNMHDR@@PAJ@Z$3:
  0001c	8d 4d 08	 lea	 ecx, DWORD PTR _szReal$4[ebp]
  0001f	ff 25 00 00 00
	00		 jmp	 DWORD PTR __imp_??1?$CStringT@DV?$StrTraitMFC_DLL@DV?$ChTraitsCRT@D@ATL@@@@@ATL@@QAE@XZ
  00025	cc		 int	 3
  00026	cc		 int	 3
  00027	cc		 int	 3
  00028	cc		 int	 3
  00029	cc		 int	 3
__ehhandler$?OnDblclk@CPacketSuperGrid@@IAEXPAUtagNMHDR@@PAJ@Z:
  0002a	90		 npad	 1
  0002b	90		 npad	 1
  0002c	8b 54 24 08	 mov	 edx, DWORD PTR [esp+8]
  00030	8d 42 0c	 lea	 eax, DWORD PTR [edx+12]
  00033	8b 8a 9c fe ff
	ff		 mov	 ecx, DWORD PTR [edx-356]
  00039	33 c8		 xor	 ecx, eax
  0003b	e8 00 00 00 00	 call	 @__security_check_cookie@4
  00040	b8 00 00 00 00	 mov	 eax, OFFSET __ehfuncinfo$?OnDblclk@CPacketSuperGrid@@IAEXPAUtagNMHDR@@PAJ@Z
  00045	e9 00 00 00 00	 jmp	 ___CxxFrameHandler3
text$x	ENDS
?OnDblclk@CPacketSuperGrid@@IAEXPAUtagNMHDR@@PAJ@Z ENDP	; CPacketSuperGrid::OnDblclk
; Function compile flags: /Ogtp
; File D:\git\src\IBK\IBK_DRFN\ProjSrc\SrcChartEx\ChartAddIn\ChartDesignPropertyAddIn\ChartDesignPropertyAddIn\PacketSuperGrid.cpp
; File C:\Program Files (x86)\Microsoft Visual Studio\2019\Community\VC\Tools\MSVC\14.29.30133\atlmfc\include\afxwin1.inl
; File D:\git\src\IBK\IBK_DRFN\ProjSrc\SrcChartEx\ChartAddIn\ChartDesignPropertyAddIn\Include_Chart\Dll_Load\IMetaTable.h
; File C:\Program Files (x86)\Microsoft Visual Studio\2019\Community\VC\Tools\MSVC\14.29.30133\atlmfc\include\afxwin1.inl
; File D:\git\src\IBK\IBK_DRFN\ProjSrc\SrcChartEx\ChartAddIn\ChartDesignPropertyAddIn\ChartDesignPropertyAddIn\PacketSuperGrid.cpp
; File D:\git\src\IBK\IBK_DRFN\ProjSrc\SrcChartEx\ChartAddIn\ChartDesignPropertyAddIn\Include_Chart\Dll_Load\IMetaTable.h
; File C:\Program Files (x86)\Microsoft Visual Studio\2019\Community\VC\Tools\MSVC\14.29.30133\atlmfc\include\afxwin1.inl
; File D:\git\src\IBK\IBK_DRFN\ProjSrc\SrcChartEx\ChartAddIn\ChartDesignPropertyAddIn\ChartDesignPropertyAddIn\PacketSuperGrid.cpp
; File D:\git\src\IBK\IBK_DRFN\ProjSrc\SrcChartEx\ChartAddIn\ChartDesignPropertyAddIn\Include_Chart\Dll_Load\IMetaTable.h
; File C:\Program Files (x86)\Microsoft Visual Studio\2019\Community\VC\Tools\MSVC\14.29.30133\atlmfc\include\afxwin1.inl
; File D:\git\src\IBK\IBK_DRFN\ProjSrc\SrcChartEx\ChartAddIn\ChartDesignPropertyAddIn\Include_Chart\Dll_Load\IMetaTable.h
; File C:\Program Files (x86)\Microsoft Visual Studio\2019\Community\VC\Tools\MSVC\14.29.30133\atlmfc\include\afxwin1.inl
; File D:\git\src\IBK\IBK_DRFN\ProjSrc\SrcChartEx\ChartAddIn\ChartDesignPropertyAddIn\ChartDesignPropertyAddIn\PacketSuperGrid.cpp
; File C:\Program Files (x86)\Microsoft Visual Studio\2019\Community\VC\Tools\MSVC\14.29.30133\atlmfc\include\afxwin1.inl
; File C:\Program Files (x86)\Microsoft Visual Studio\2019\Community\VC\Tools\MSVC\14.29.30133\atlmfc\include\afxcmn.inl
; File D:\git\src\IBK\IBK_DRFN\ProjSrc\SrcChartEx\ChartAddIn\ChartDesignPropertyAddIn\ChartDesignPropertyAddIn\PacketSuperGrid.cpp
;	COMDAT ?OnCreate@CPacketSuperGrid@@IAEHPAUtagCREATESTRUCTA@@@Z
_TEXT	SEGMENT
__$EHRec$ = -12						; size = 12
___mlrs__$2 = 8						; size = 4
_lpCreateStruct$ = 8					; size = 4
?OnCreate@CPacketSuperGrid@@IAEHPAUtagCREATESTRUCTA@@@Z PROC ; CPacketSuperGrid::OnCreate, COMDAT
; _this$ = ecx

; 43   : {

  00000	55		 push	 ebp
  00001	8b ec		 mov	 ebp, esp
  00003	6a ff		 push	 -1
  00005	68 00 00 00 00	 push	 __ehhandler$?OnCreate@CPacketSuperGrid@@IAEHPAUtagCREATESTRUCTA@@@Z
  0000a	64 a1 00 00 00
	00		 mov	 eax, DWORD PTR fs:0
  00010	50		 push	 eax
  00011	53		 push	 ebx
  00012	56		 push	 esi
  00013	57		 push	 edi
  00014	a1 00 00 00 00	 mov	 eax, DWORD PTR ___security_cookie
  00019	33 c5		 xor	 eax, ebp
  0001b	50		 push	 eax
  0001c	8d 45 f4	 lea	 eax, DWORD PTR __$EHRec$[ebp]
  0001f	64 a3 00 00 00
	00		 mov	 DWORD PTR fs:0, eax
  00025	8b d9		 mov	 ebx, ecx

; 44   : 	if (CSuperGridCtrl::OnCreate(lpCreateStruct) == -1)

  00027	ff 75 08	 push	 DWORD PTR _lpCreateStruct$[ebp]
  0002a	e8 00 00 00 00	 call	 ?OnCreate@CSuperGridCtrl@@IAEHPAUtagCREATESTRUCTA@@@Z ; CSuperGridCtrl::OnCreate
  0002f	83 f8 ff	 cmp	 eax, -1
  00032	74 57		 je	 SHORT $LN5@OnCreate

; 45   : 		return -1;
; 46   : 	/////////////////////
; 47   : 	//remember this	
; 48   : 	///////////////////
; 49   : 	//associate imagelist with listviewctrl	
; 50   : 
; 51   : 	if(m_image.m_hImageList == NULL)

  00034	83 bb f0 00 00
	00 00		 cmp	 DWORD PTR [ebx+240], 0
  0003b	75 7b		 jne	 SHORT $LN21@OnCreate

; 52   : 	{
; 53   : 		ML_SET_DEFAULT_RES();

  0003d	e8 00 00 00 00	 call	 ?AfxGetStaticModuleState@@YGPAVAFX_MODULE_STATE@@XZ ; AfxGetStaticModuleState
  00042	8b 78 08	 mov	 edi, DWORD PTR [eax+8]
; File C:\Program Files (x86)\Microsoft Visual Studio\2019\Community\VC\Tools\MSVC\14.29.30133\atlmfc\include\afxwin1.inl

; 25   : 		return afxCurrentResourceHandle; }

  00045	e8 00 00 00 00	 call	 ?AfxGetModuleState@@YGPAVAFX_MODULE_STATE@@XZ ; AfxGetModuleState
; File D:\git\src\IBK\IBK_DRFN\ProjSrc\SrcChartEx\ChartAddIn\ChartDesignPropertyAddIn\Include_Chart\Dll_Load\IMetaTable.h

; 1032 : 		m_hInstance = AfxGetResourceHandle();

  0004a	8b 70 0c	 mov	 esi, DWORD PTR [eax+12]
  0004d	89 75 08	 mov	 DWORD PTR ___mlrs__$2[ebp], esi
; File C:\Program Files (x86)\Microsoft Visual Studio\2019\Community\VC\Tools\MSVC\14.29.30133\atlmfc\include\afxwin1.inl

; 27   : 	{ ASSERT(hInstResource != NULL); afxCurrentResourceHandle = hInstResource; }

  00050	e8 00 00 00 00	 call	 ?AfxGetModuleState@@YGPAVAFX_MODULE_STATE@@XZ ; AfxGetModuleState
  00055	89 78 0c	 mov	 DWORD PTR [eax+12], edi
; File D:\git\src\IBK\IBK_DRFN\ProjSrc\SrcChartEx\ChartAddIn\ChartDesignPropertyAddIn\ChartDesignPropertyAddIn\PacketSuperGrid.cpp

; 54   : 		if(!m_image.Create(IDB_FOLDERS,16,1,RGB(0, 255, 255)))

  00058	68 00 ff ff 00	 push	 16776960		; 00ffff00H
  0005d	6a 01		 push	 1
  0005f	6a 10		 push	 16			; 00000010H
  00061	68 58 1b 00 00	 push	 7000			; 00001b58H
  00066	8d 8b ec 00 00
	00		 lea	 ecx, DWORD PTR [ebx+236]
  0006c	c7 45 fc 00 00
	00 00		 mov	 DWORD PTR __$EHRec$[ebp+8], 0
  00073	e8 00 00 00 00	 call	 ?Create@CImageList@@QAEHIHHK@Z ; CImageList::Create
  00078	85 c0		 test	 eax, eax
  0007a	75 26		 jne	 SHORT $LN4@OnCreate
; File D:\git\src\IBK\IBK_DRFN\ProjSrc\SrcChartEx\ChartAddIn\ChartDesignPropertyAddIn\Include_Chart\Dll_Load\IMetaTable.h

; 1036 : 	{

  0007c	c7 45 fc 01 00
	00 00		 mov	 DWORD PTR __$EHRec$[ebp+8], 1
; File C:\Program Files (x86)\Microsoft Visual Studio\2019\Community\VC\Tools\MSVC\14.29.30133\atlmfc\include\afxwin1.inl

; 27   : 	{ ASSERT(hInstResource != NULL); afxCurrentResourceHandle = hInstResource; }

  00083	e8 00 00 00 00	 call	 ?AfxGetModuleState@@YGPAVAFX_MODULE_STATE@@XZ ; AfxGetModuleState
  00088	89 70 0c	 mov	 DWORD PTR [eax+12], esi
$LN5@OnCreate:
; File D:\git\src\IBK\IBK_DRFN\ProjSrc\SrcChartEx\ChartAddIn\ChartDesignPropertyAddIn\ChartDesignPropertyAddIn\PacketSuperGrid.cpp

; 66   : }

  0008b	83 c8 ff	 or	 eax, -1
  0008e	8b 4d f4	 mov	 ecx, DWORD PTR __$EHRec$[ebp]
  00091	64 89 0d 00 00
	00 00		 mov	 DWORD PTR fs:0, ecx
  00098	59		 pop	 ecx
  00099	5f		 pop	 edi
  0009a	5e		 pop	 esi
  0009b	5b		 pop	 ebx
  0009c	8b e5		 mov	 esp, ebp
  0009e	5d		 pop	 ebp
  0009f	c2 04 00	 ret	 4
$LN4@OnCreate:
; File D:\git\src\IBK\IBK_DRFN\ProjSrc\SrcChartEx\ChartAddIn\ChartDesignPropertyAddIn\Include_Chart\Dll_Load\IMetaTable.h

; 1036 : 	{

  000a2	c7 45 fc 02 00
	00 00		 mov	 DWORD PTR __$EHRec$[ebp+8], 2
; File C:\Program Files (x86)\Microsoft Visual Studio\2019\Community\VC\Tools\MSVC\14.29.30133\atlmfc\include\afxwin1.inl

; 27   : 	{ ASSERT(hInstResource != NULL); afxCurrentResourceHandle = hInstResource; }

  000a9	e8 00 00 00 00	 call	 ?AfxGetModuleState@@YGPAVAFX_MODULE_STATE@@XZ ; AfxGetModuleState
; File D:\git\src\IBK\IBK_DRFN\ProjSrc\SrcChartEx\ChartAddIn\ChartDesignPropertyAddIn\Include_Chart\Dll_Load\IMetaTable.h

; 1038 : 	}

  000ae	c7 45 fc ff ff
	ff ff		 mov	 DWORD PTR __$EHRec$[ebp+8], -1
; File C:\Program Files (x86)\Microsoft Visual Studio\2019\Community\VC\Tools\MSVC\14.29.30133\atlmfc\include\afxwin1.inl

; 27   : 	{ ASSERT(hInstResource != NULL); afxCurrentResourceHandle = hInstResource; }

  000b5	89 70 0c	 mov	 DWORD PTR [eax+12], esi
$LN21@OnCreate:
; File D:\git\src\IBK\IBK_DRFN\ProjSrc\SrcChartEx\ChartAddIn\ChartDesignPropertyAddIn\ChartDesignPropertyAddIn\PacketSuperGrid.cpp

; 58   : 	SetImageList(&m_image, LVSIL_SMALL);

  000b8	8d 83 ec 00 00
	00		 lea	 eax, DWORD PTR [ebx+236]
; File C:\Program Files (x86)\Microsoft Visual Studio\2019\Community\VC\Tools\MSVC\14.29.30133\atlmfc\include\afxwin1.inl

; 853  : 	{ return (this == NULL) ? NULL : m_hImageList; }

  000be	85 c0		 test	 eax, eax
  000c0	74 03		 je	 SHORT $LN30@OnCreate
$LN29@OnCreate:
  000c2	8b 40 04	 mov	 eax, DWORD PTR [eax+4]
$LN30@OnCreate:
; File C:\Program Files (x86)\Microsoft Visual Studio\2019\Community\VC\Tools\MSVC\14.29.30133\atlmfc\include\afxcmn.inl

; 153  : 	{ ASSERT(::IsWindow(m_hWnd)); return CImageList::FromHandle((HIMAGELIST) ::SendMessage(m_hWnd, LVM_SETIMAGELIST, nImageList, (LPARAM)pImageList->GetSafeHandle())); }

  000c5	8b 35 00 00 00
	00		 mov	 esi, DWORD PTR __imp__SendMessageA@16
  000cb	50		 push	 eax
  000cc	6a 01		 push	 1
  000ce	68 03 10 00 00	 push	 4099			; 00001003H
  000d3	ff 73 20	 push	 DWORD PTR [ebx+32]
  000d6	ff d6		 call	 esi
  000d8	50		 push	 eax
  000d9	e8 00 00 00 00	 call	 ?FromHandle@CImageList@@SGPAV1@PAU_IMAGELIST@@@Z ; CImageList::FromHandle

; 151  : 	{ ASSERT(::IsWindow(m_hWnd)); return CImageList::FromHandle((HIMAGELIST) ::SendMessage(m_hWnd, LVM_GETIMAGELIST, nImageList, 0L)); }

  000de	6a 00		 push	 0
  000e0	6a 01		 push	 1
  000e2	68 02 10 00 00	 push	 4098			; 00001002H
  000e7	ff 73 20	 push	 DWORD PTR [ebx+32]
  000ea	ff d6		 call	 esi
  000ec	50		 push	 eax
  000ed	e8 00 00 00 00	 call	 ?FromHandle@CImageList@@SGPAV1@PAU_IMAGELIST@@@Z ; CImageList::FromHandle
; File D:\git\src\IBK\IBK_DRFN\ProjSrc\SrcChartEx\ChartAddIn\ChartDesignPropertyAddIn\ChartDesignPropertyAddIn\PacketSuperGrid.cpp

; 60   : 	if(pImageList)

  000f2	85 c0		 test	 eax, eax
  000f4	74 95		 je	 SHORT $LN5@OnCreate

; 61   : 		ImageList_GetIconSize(pImageList->m_hImageList, &m_cxImage, &m_cyImage);

  000f6	8d 8b 90 00 00
	00		 lea	 ecx, DWORD PTR [ebx+144]
  000fc	51		 push	 ecx
  000fd	8d 8b 8c 00 00
	00		 lea	 ecx, DWORD PTR [ebx+140]
  00103	51		 push	 ecx
  00104	ff 70 04	 push	 DWORD PTR [eax+4]
  00107	ff 15 00 00 00
	00		 call	 DWORD PTR __imp__ImageList_GetIconSize@12

; 62   : 	else
; 63   : 		return -1;
; 64   : 	
; 65   : 	return 0;

  0010d	33 c0		 xor	 eax, eax

; 66   : }

  0010f	8b 4d f4	 mov	 ecx, DWORD PTR __$EHRec$[ebp]
  00112	64 89 0d 00 00
	00 00		 mov	 DWORD PTR fs:0, ecx
  00119	59		 pop	 ecx
  0011a	5f		 pop	 edi
  0011b	5e		 pop	 esi
  0011c	5b		 pop	 ebx
  0011d	8b e5		 mov	 esp, ebp
  0011f	5d		 pop	 ebp
  00120	c2 04 00	 ret	 4
_TEXT	ENDS
;	COMDAT text$x
text$x	SEGMENT
__unwindfunclet$?OnCreate@CPacketSuperGrid@@IAEHPAUtagCREATESTRUCTA@@@Z$0:
  00000	8d 4d 08	 lea	 ecx, DWORD PTR ___mlrs__$2[ebp]
  00003	e9 00 00 00 00	 jmp	 ??1CMultiLanguageResourceSetter@@QAE@XZ ; CMultiLanguageResourceSetter::~CMultiLanguageResourceSetter
  00008	cc		 int	 3
  00009	cc		 int	 3
  0000a	cc		 int	 3
  0000b	cc		 int	 3
  0000c	cc		 int	 3
__ehhandler$?OnCreate@CPacketSuperGrid@@IAEHPAUtagCREATESTRUCTA@@@Z:
  0000d	90		 npad	 1
  0000e	90		 npad	 1
  0000f	8b 54 24 08	 mov	 edx, DWORD PTR [esp+8]
  00013	8d 42 0c	 lea	 eax, DWORD PTR [edx+12]
  00016	8b 4a f0	 mov	 ecx, DWORD PTR [edx-16]
  00019	33 c8		 xor	 ecx, eax
  0001b	e8 00 00 00 00	 call	 @__security_check_cookie@4
  00020	b8 00 00 00 00	 mov	 eax, OFFSET __ehfuncinfo$?OnCreate@CPacketSuperGrid@@IAEHPAUtagCREATESTRUCTA@@@Z
  00025	e9 00 00 00 00	 jmp	 ___CxxFrameHandler3
text$x	ENDS
?OnCreate@CPacketSuperGrid@@IAEHPAUtagCREATESTRUCTA@@@Z ENDP ; CPacketSuperGrid::OnCreate
; Function compile flags: /Ogtp
; File D:\git\src\IBK\IBK_DRFN\ProjSrc\SrcChartEx\ChartAddIn\ChartDesignPropertyAddIn\ChartDesignPropertyAddIn\PacketSuperGrid.cpp
; File C:\Program Files (x86)\Microsoft Visual Studio\2019\Community\VC\Tools\MSVC\14.29.30133\atlmfc\include\afxwin2.inl
; File D:\git\src\IBK\IBK_DRFN\ProjSrc\SrcChartEx\ChartAddIn\ChartDesignPropertyAddIn\ChartDesignPropertyAddIn\PacketSuperGrid.cpp
; File C:\Program Files (x86)\Microsoft Visual Studio\2019\Community\VC\Tools\MSVC\14.29.30133\atlmfc\include\afxwin2.inl
; File C:\Program Files (x86)\Microsoft Visual Studio\2019\Community\VC\Tools\MSVC\14.29.30133\atlmfc\include\afxwin1.inl
; File D:\git\src\IBK\IBK_DRFN\ProjSrc\SrcChartEx\ChartAddIn\ChartDesignPropertyAddIn\ChartDesignPropertyAddIn\PacketSuperGrid.cpp
; File C:\Program Files (x86)\Microsoft Visual Studio\2019\Community\VC\Tools\MSVC\14.29.30133\atlmfc\include\afxcoll.inl
; File D:\git\src\IBK\IBK_DRFN\ProjSrc\SrcChartEx\ChartAddIn\ChartDesignPropertyAddIn\ChartDesignPropertyAddIn\PacketSuperGrid.cpp
; File C:\Program Files (x86)\Microsoft Visual Studio\2019\Community\VC\Tools\MSVC\14.29.30133\atlmfc\include\afxcoll.inl
; File D:\git\src\IBK\IBK_DRFN\ProjSrc\SrcChartEx\ChartAddIn\ChartDesignPropertyAddIn\ChartDesignPropertyAddIn\PacketSuperGrid.cpp
; File C:\Program Files (x86)\Microsoft Visual Studio\2019\Community\VC\Tools\MSVC\14.29.30133\atlmfc\include\afxwin1.inl
; File D:\git\src\IBK\IBK_DRFN\ProjSrc\SrcChartEx\ChartAddIn\ChartDesignPropertyAddIn\ChartDesignPropertyAddIn\PacketSuperGrid.cpp
; File C:\Program Files (x86)\Microsoft Visual Studio\2019\Community\VC\Tools\MSVC\14.29.30133\atlmfc\include\afxwin2.inl
; File D:\git\src\IBK\IBK_DRFN\ProjSrc\SrcChartEx\ChartAddIn\ChartDesignPropertyAddIn\ChartDesignPropertyAddIn\PacketSuperGrid.cpp
;	COMDAT ?CalcHorzExtent@CPacketSuperGrid@@IAEHPAVCWnd@@PAVCStringList@@@Z
_TEXT	SEGMENT
_size$1 = -12						; size = 8
_pOldFont$1$ = -4					; size = 4
_pWnd$ = 8						; size = 4
_str$2 = 12						; size = 4
_pList$ = 12						; size = 4
?CalcHorzExtent@CPacketSuperGrid@@IAEHPAVCWnd@@PAVCStringList@@@Z PROC ; CPacketSuperGrid::CalcHorzExtent, COMDAT
; _this$ = ecx

; 266  : {

  00000	55		 push	 ebp
  00001	8b ec		 mov	 ebp, esp
  00003	83 ec 0c	 sub	 esp, 12			; 0000000cH
  00006	53		 push	 ebx

; 267  : 	int nExtent=0;
; 268  : 	if(pWnd!=NULL)

  00007	8b 5d 08	 mov	 ebx, DWORD PTR _pWnd$[ebp]
  0000a	56		 push	 esi
  0000b	33 f6		 xor	 esi, esi
  0000d	85 db		 test	 ebx, ebx
  0000f	0f 84 99 00 00
	00		 je	 $LN38@CalcHorzEx
; File C:\Program Files (x86)\Microsoft Visual Studio\2019\Community\VC\Tools\MSVC\14.29.30133\atlmfc\include\afxwin2.inl

; 100  : 	{ ASSERT(::IsWindow(m_hWnd)); return CDC::FromHandle(::GetDC(m_hWnd)); }

  00015	57		 push	 edi
  00016	ff 73 20	 push	 DWORD PTR [ebx+32]
  00019	ff 15 00 00 00
	00		 call	 DWORD PTR __imp__GetDC@4
  0001f	50		 push	 eax
  00020	e8 00 00 00 00	 call	 ?FromHandle@CDC@@SGPAV1@PAUHDC__@@@Z ; CDC::FromHandle

; 32   : 	{ ASSERT(::IsWindow(m_hWnd)); return ::SendMessage(m_hWnd, message, wParam, lParam); }

  00025	56		 push	 esi
  00026	56		 push	 esi
  00027	6a 31		 push	 49			; 00000031H
  00029	ff 73 20	 push	 DWORD PTR [ebx+32]
; File D:\git\src\IBK\IBK_DRFN\ProjSrc\SrcChartEx\ChartAddIn\ChartDesignPropertyAddIn\ChartDesignPropertyAddIn\PacketSuperGrid.cpp

; 270  : 		CDC* pDC = pWnd->GetDC();

  0002c	8b f8		 mov	 edi, eax
; File C:\Program Files (x86)\Microsoft Visual Studio\2019\Community\VC\Tools\MSVC\14.29.30133\atlmfc\include\afxwin2.inl

; 32   : 	{ ASSERT(::IsWindow(m_hWnd)); return ::SendMessage(m_hWnd, message, wParam, lParam); }

  0002e	ff 15 00 00 00
	00		 call	 DWORD PTR __imp__SendMessageA@16
; File C:\Program Files (x86)\Microsoft Visual Studio\2019\Community\VC\Tools\MSVC\14.29.30133\atlmfc\include\afxwin1.inl

; 151  : 	{ return (CFont*) CGdiObject::FromHandle(hFont); }

  00034	50		 push	 eax
  00035	e8 00 00 00 00	 call	 ?FromHandle@CGdiObject@@SGPAV1@PAX@Z ; CGdiObject::FromHandle
; File D:\git\src\IBK\IBK_DRFN\ProjSrc\SrcChartEx\ChartAddIn\ChartDesignPropertyAddIn\ChartDesignPropertyAddIn\PacketSuperGrid.cpp

; 272  : 		CFont *pFont = CFont::FromHandle(hFont);			//this way I get to use this function..cool :)

  0003a	8b c8		 mov	 ecx, eax

; 273  : 		if(pFont!=NULL)										//ya what ever makes me happy,.right :}

  0003c	85 c9		 test	 ecx, ecx
  0003e	74 61		 je	 SHORT $LN5@CalcHorzEx

; 274  : 		{
; 275  : 			CFont* pOldFont = pDC->SelectObject(pFont);

  00040	8b 07		 mov	 eax, DWORD PTR [edi]
  00042	51		 push	 ecx
  00043	8b cf		 mov	 ecx, edi
  00045	ff 50 30	 call	 DWORD PTR [eax+48]
  00048	89 45 fc	 mov	 DWORD PTR _pOldFont$1$[ebp], eax

; 276  : 			CSize newExtent;
; 277  : 			POSITION pos = pList->GetHeadPosition();

  0004b	8b 45 0c	 mov	 eax, DWORD PTR _pList$[ebp]
  0004e	8b 58 04	 mov	 ebx, DWORD PTR [eax+4]

; 278  : 			while(pos != NULL)

  00051	85 db		 test	 ebx, ebx
  00053	74 3f		 je	 SHORT $LN3@CalcHorzEx
$LL2@CalcHorzEx:
; File C:\Program Files (x86)\Microsoft Visual Studio\2019\Community\VC\Tools\MSVC\14.29.30133\atlmfc\include\afxcoll.inl

; 501  : 	{ CNode* pNode = (CNode*) rPosition;

  00055	8b c3		 mov	 eax, ebx
; File D:\git\src\IBK\IBK_DRFN\ProjSrc\SrcChartEx\ChartAddIn\ChartDesignPropertyAddIn\ChartDesignPropertyAddIn\PacketSuperGrid.cpp

; 280  : 				CString str(pList->GetNext(pos));

  00057	8d 4d 0c	 lea	 ecx, DWORD PTR _str$2[ebp]
; File C:\Program Files (x86)\Microsoft Visual Studio\2019\Community\VC\Tools\MSVC\14.29.30133\atlmfc\include\afxcoll.inl

; 505  : 		rPosition = (POSITION) pNode->pNext;

  0005a	8b 1b		 mov	 ebx, DWORD PTR [ebx]

; 506  : 		return pNode->data; }

  0005c	83 c0 08	 add	 eax, 8
; File D:\git\src\IBK\IBK_DRFN\ProjSrc\SrcChartEx\ChartAddIn\ChartDesignPropertyAddIn\ChartDesignPropertyAddIn\PacketSuperGrid.cpp

; 280  : 				CString str(pList->GetNext(pos));

  0005f	50		 push	 eax
  00060	ff 15 00 00 00
	00		 call	 DWORD PTR __imp_??0?$CStringT@DV?$StrTraitMFC_DLL@DV?$ChTraitsCRT@D@ATL@@@@@ATL@@QAE@ABV01@@Z
; File C:\Program Files (x86)\Microsoft Visual Studio\2019\Community\VC\Tools\MSVC\14.29.30133\atlmfc\include\afxwin1.inl

; 639  : 		VERIFY(::GetTextExtentPoint32(m_hAttribDC, str, (int)str.GetLength(), &size));

  00066	8d 45 f4	 lea	 eax, DWORD PTR _size$1[ebp]
  00069	50		 push	 eax
  0006a	8b 45 0c	 mov	 eax, DWORD PTR _str$2[ebp]
  0006d	ff 70 f4	 push	 DWORD PTR [eax-12]
  00070	50		 push	 eax
  00071	ff 77 08	 push	 DWORD PTR [edi+8]
  00074	ff 15 00 00 00
	00		 call	 DWORD PTR __imp__GetTextExtentPoint32A@16
; File D:\git\src\IBK\IBK_DRFN\ProjSrc\SrcChartEx\ChartAddIn\ChartDesignPropertyAddIn\ChartDesignPropertyAddIn\PacketSuperGrid.cpp

; 281  : 				newExtent = pDC->GetTextExtent(str);

  0007a	8b 45 f4	 mov	 eax, DWORD PTR _size$1[ebp]

; 282  : 				newExtent.cx += 6;
; 283  : 				if (newExtent.cx > nExtent)
; 284  : 				{
; 285  : 					nExtent = newExtent.cx;
; 286  : 				}
; 287  : 			}

  0007d	8d 4d 0c	 lea	 ecx, DWORD PTR _str$2[ebp]
  00080	83 c0 06	 add	 eax, 6
  00083	3b c6		 cmp	 eax, esi
  00085	0f 4e c6	 cmovle	 eax, esi
  00088	8b f0		 mov	 esi, eax
  0008a	ff 15 00 00 00
	00		 call	 DWORD PTR __imp_??1?$CStringT@DV?$StrTraitMFC_DLL@DV?$ChTraitsCRT@D@ATL@@@@@ATL@@QAE@XZ
  00090	85 db		 test	 ebx, ebx
  00092	75 c1		 jne	 SHORT $LL2@CalcHorzEx
$LN3@CalcHorzEx:

; 288  : 			pDC->SelectObject(pOldFont);

  00094	8b 17		 mov	 edx, DWORD PTR [edi]
  00096	8b cf		 mov	 ecx, edi
  00098	ff 75 fc	 push	 DWORD PTR _pOldFont$1$[ebp]
  0009b	ff 52 30	 call	 DWORD PTR [edx+48]
  0009e	8b 5d 08	 mov	 ebx, DWORD PTR _pWnd$[ebp]
$LN5@CalcHorzEx:
; File C:\Program Files (x86)\Microsoft Visual Studio\2019\Community\VC\Tools\MSVC\14.29.30133\atlmfc\include\afxwin2.inl

; 104  : 	{ ASSERT(::IsWindow(m_hWnd)); return ::ReleaseDC(m_hWnd, pDC->m_hDC); }

  000a1	ff 77 04	 push	 DWORD PTR [edi+4]
  000a4	ff 73 20	 push	 DWORD PTR [ebx+32]
  000a7	ff 15 00 00 00
	00		 call	 DWORD PTR __imp__ReleaseDC@8
; File D:\git\src\IBK\IBK_DRFN\ProjSrc\SrcChartEx\ChartAddIn\ChartDesignPropertyAddIn\ChartDesignPropertyAddIn\PacketSuperGrid.cpp

; 292  : 	return nExtent;

  000ad	5f		 pop	 edi
$LN38@CalcHorzEx:

; 293  : }

  000ae	8b c6		 mov	 eax, esi
  000b0	5e		 pop	 esi
  000b1	5b		 pop	 ebx
  000b2	8b e5		 mov	 esp, ebp
  000b4	5d		 pop	 ebp
  000b5	c2 08 00	 ret	 8
?CalcHorzExtent@CPacketSuperGrid@@IAEHPAVCWnd@@PAVCStringList@@@Z ENDP ; CPacketSuperGrid::CalcHorzExtent
_TEXT	ENDS
; Function compile flags: /Ogtp
; File D:\git\src\IBK\IBK_DRFN\ProjSrc\SrcChartEx\ChartAddIn\ChartDesignPropertyAddIn\ChartDesignPropertyAddIn\PacketSuperGrid.cpp
; File C:\Program Files (x86)\Microsoft Visual Studio\2019\Community\VC\Tools\MSVC\14.29.30133\atlmfc\include\afxcmn.inl
; File D:\git\src\IBK\IBK_DRFN\ProjSrc\SrcChartEx\ChartAddIn\ChartDesignPropertyAddIn\ChartDesignPropertyAddIn\PacketSuperGrid.cpp
; File C:\Program Files (x86)\Microsoft Visual Studio\2019\Community\VC\Tools\MSVC\14.29.30133\atlmfc\include\atltypes.h
; File C:\Program Files (x86)\Microsoft Visual Studio\2019\Community\VC\Tools\MSVC\14.29.30133\atlmfc\include\afxcmn.inl
; File D:\git\src\IBK\IBK_DRFN\ProjSrc\SrcChartEx\ChartAddIn\ChartDesignPropertyAddIn\ChartDesignPropertyAddIn\PacketSuperGrid.cpp
; File C:\Program Files (x86)\Microsoft Visual Studio\2019\Community\VC\Tools\MSVC\14.29.30133\atlmfc\include\afxwin2.inl
; File C:\Program Files (x86)\Microsoft Visual Studio\2019\Community\VC\Tools\MSVC\14.29.30133\atlmfc\include\atltypes.h
; File C:\Program Files (x86)\Microsoft Visual Studio\2019\Community\VC\Tools\MSVC\14.29.30133\atlmfc\include\afxwin2.inl
; File D:\git\src\IBK\IBK_DRFN\ProjSrc\SrcChartEx\ChartAddIn\ChartDesignPropertyAddIn\ChartDesignPropertyAddIn\PacketSuperGrid.cpp
; File C:\Program Files (x86)\Microsoft Visual Studio\2019\Community\VC\Tools\MSVC\14.29.30133\atlmfc\include\afxcmn.inl
; File D:\git\src\IBK\IBK_DRFN\ProjSrc\SrcChartEx\ChartAddIn\ChartDesignPropertyAddIn\ChartDesignPropertyAddIn\PacketSuperGrid.cpp
; File C:\Program Files (x86)\Microsoft Visual Studio\2019\Community\VC\Tools\MSVC\14.29.30133\atlmfc\include\afxcmn.inl
; File D:\git\src\IBK\IBK_DRFN\ProjSrc\SrcChartEx\ChartAddIn\ChartDesignPropertyAddIn\ChartDesignPropertyAddIn\PacketSuperGrid.cpp
; File C:\Program Files (x86)\Microsoft Visual Studio\2019\Community\VC\Tools\MSVC\14.29.30133\atlmfc\include\afx.inl
; File D:\git\src\IBK\IBK_DRFN\ProjSrc\SrcChartEx\ChartAddIn\ChartDesignPropertyAddIn\ChartDesignPropertyAddIn\PacketSuperGrid.cpp
; File C:\Program Files (x86)\Microsoft Visual Studio\2019\Community\VC\Tools\MSVC\14.29.30133\atlmfc\include\afx.inl
; File D:\git\src\IBK\IBK_DRFN\ProjSrc\SrcChartEx\ChartAddIn\ChartDesignPropertyAddIn\ChartDesignPropertyAddIn\PacketSuperGrid.cpp
; File C:\Program Files (x86)\Microsoft Visual Studio\2019\Community\VC\Tools\MSVC\14.29.30133\atlmfc\include\afxwin2.inl
; File D:\git\src\IBK\IBK_DRFN\ProjSrc\SrcChartEx\ChartAddIn\ChartDesignPropertyAddIn\ChartDesignPropertyAddIn\PacketSuperGrid.cpp
; File C:\Program Files (x86)\Microsoft Visual Studio\2019\Community\VC\Tools\MSVC\14.29.30133\atlmfc\include\afxwin2.inl
; File D:\git\src\IBK\IBK_DRFN\ProjSrc\SrcChartEx\ChartAddIn\ChartDesignPropertyAddIn\ChartDesignPropertyAddIn\PacketSuperGrid.cpp
; File C:\Program Files (x86)\Microsoft Visual Studio\2019\Community\VC\Tools\MSVC\14.29.30133\atlmfc\include\afxwin2.inl
; File C:\Program Files (x86)\Microsoft Visual Studio\2019\Community\VC\Tools\MSVC\14.29.30133\atlmfc\include\afxwin1.inl
; File D:\git\src\IBK\IBK_DRFN\ProjSrc\SrcChartEx\ChartAddIn\ChartDesignPropertyAddIn\ChartDesignPropertyAddIn\PacketSuperGrid.cpp
; File C:\Program Files (x86)\Microsoft Visual Studio\2019\Community\VC\Tools\MSVC\14.29.30133\atlmfc\include\afxcoll.inl
; File D:\git\src\IBK\IBK_DRFN\ProjSrc\SrcChartEx\ChartAddIn\ChartDesignPropertyAddIn\ChartDesignPropertyAddIn\PacketSuperGrid.cpp
; File C:\Program Files (x86)\Microsoft Visual Studio\2019\Community\VC\Tools\MSVC\14.29.30133\atlmfc\include\afxcoll.inl
; File D:\git\src\IBK\IBK_DRFN\ProjSrc\SrcChartEx\ChartAddIn\ChartDesignPropertyAddIn\ChartDesignPropertyAddIn\PacketSuperGrid.cpp
; File C:\Program Files (x86)\Microsoft Visual Studio\2019\Community\VC\Tools\MSVC\14.29.30133\atlmfc\include\afxwin1.inl
; File D:\git\src\IBK\IBK_DRFN\ProjSrc\SrcChartEx\ChartAddIn\ChartDesignPropertyAddIn\ChartDesignPropertyAddIn\PacketSuperGrid.cpp
; File C:\Program Files (x86)\Microsoft Visual Studio\2019\Community\VC\Tools\MSVC\14.29.30133\atlmfc\include\afxwin2.inl
; File D:\git\src\IBK\IBK_DRFN\ProjSrc\SrcChartEx\ChartAddIn\ChartDesignPropertyAddIn\ChartDesignPropertyAddIn\PacketSuperGrid.cpp
; File C:\Program Files (x86)\Microsoft Visual Studio\2019\Community\VC\Tools\MSVC\14.29.30133\atlmfc\include\afxwin2.inl
; File D:\git\src\IBK\IBK_DRFN\ProjSrc\SrcChartEx\ChartAddIn\ChartDesignPropertyAddIn\ChartDesignPropertyAddIn\PacketSuperGrid.cpp
;	COMDAT ?ShowList@CPacketSuperGrid@@IAEPAVCComboBox@@HHPAVCStringList@@@Z
_TEXT	SEGMENT
_size$3 = -80						; size = 8
_pOldFont$1$ = -72					; size = 4
$T4 = -72						; size = 4
_strFind$ = -68						; size = 4
_str$5 = -64						; size = 4
_lstItems$GSCopy$1$ = -60				; size = 4
_nItem$GSCopy$1$ = -56					; size = 4
_nCol$GSCopy$1$ = -52					; size = 4
$T6 = -52						; size = 4
_rcClient$ = -48					; size = 16
_rect$ = -32						; size = 16
__$ArrayPad$ = -16					; size = 4
__$EHRec$ = -12						; size = 12
_nItem$ = 8						; size = 4
_nCol$ = 12						; size = 4
_lstItems$ = 16						; size = 4
?ShowList@CPacketSuperGrid@@IAEPAVCComboBox@@HHPAVCStringList@@@Z PROC ; CPacketSuperGrid::ShowList, COMDAT
; _this$ = ecx

; 223  : {

  00000	55		 push	 ebp
  00001	8b ec		 mov	 ebp, esp
  00003	6a ff		 push	 -1
  00005	68 00 00 00 00	 push	 __ehhandler$?ShowList@CPacketSuperGrid@@IAEPAVCComboBox@@HHPAVCStringList@@@Z
  0000a	64 a1 00 00 00
	00		 mov	 eax, DWORD PTR fs:0
  00010	50		 push	 eax
  00011	83 ec 44	 sub	 esp, 68			; 00000044H
  00014	a1 00 00 00 00	 mov	 eax, DWORD PTR ___security_cookie
  00019	33 c5		 xor	 eax, ebp
  0001b	89 45 f0	 mov	 DWORD PTR __$ArrayPad$[ebp], eax
  0001e	53		 push	 ebx
  0001f	56		 push	 esi
  00020	57		 push	 edi
  00021	50		 push	 eax
  00022	8d 45 f4	 lea	 eax, DWORD PTR __$EHRec$[ebp]
  00025	64 a3 00 00 00
	00		 mov	 DWORD PTR fs:0, eax
  0002b	8b f9		 mov	 edi, ecx
  0002d	8b 45 0c	 mov	 eax, DWORD PTR _nCol$[ebp]
  00030	8b 75 08	 mov	 esi, DWORD PTR _nItem$[ebp]
  00033	8b 4d 10	 mov	 ecx, DWORD PTR _lstItems$[ebp]

; 224  : 	CString strFind = GetItemText(nItem, nCol);

  00036	50		 push	 eax
  00037	89 45 cc	 mov	 DWORD PTR _nCol$GSCopy$1$[ebp], eax
  0003a	8d 45 bc	 lea	 eax, DWORD PTR _strFind$[ebp]
  0003d	56		 push	 esi
  0003e	89 4d c4	 mov	 DWORD PTR _lstItems$GSCopy$1$[ebp], ecx
  00041	8b cf		 mov	 ecx, edi
  00043	50		 push	 eax
  00044	89 75 c8	 mov	 DWORD PTR _nItem$GSCopy$1$[ebp], esi
  00047	e8 00 00 00 00	 call	 ?GetItemText@CListCtrl@@QBE?AV?$CStringT@DV?$StrTraitMFC_DLL@DV?$ChTraitsCRT@D@ATL@@@@@ATL@@HH@Z ; CListCtrl::GetItemText
; File C:\Program Files (x86)\Microsoft Visual Studio\2019\Community\VC\Tools\MSVC\14.29.30133\atlmfc\include\afxcmn.inl

; 193  : 	{ ASSERT(::IsWindow(m_hWnd)); return (BOOL) ::SendMessage(m_hWnd, LVM_ENSUREVISIBLE, nItem, MAKELPARAM(bPartialOK, 0)); }

  0004c	8b 1d 00 00 00
	00		 mov	 ebx, DWORD PTR __imp__SendMessageA@16
  00052	0f 57 c0	 xorps	 xmm0, xmm0
  00055	6a 01		 push	 1
  00057	56		 push	 esi
  00058	68 13 10 00 00	 push	 4115			; 00001013H
  0005d	ff 77 20	 push	 DWORD PTR [edi+32]
; File D:\git\src\IBK\IBK_DRFN\ProjSrc\SrcChartEx\ChartAddIn\ChartDesignPropertyAddIn\ChartDesignPropertyAddIn\PacketSuperGrid.cpp

; 224  : 	CString strFind = GetItemText(nItem, nCol);

  00060	c7 45 fc 00 00
	00 00		 mov	 DWORD PTR __$EHRec$[ebp+8], 0
; File C:\Program Files (x86)\Microsoft Visual Studio\2019\Community\VC\Tools\MSVC\14.29.30133\atlmfc\include\atltypes.h

; 528  : 	left = 0;

  00067	0f 11 45 e0	 movups	 XMMWORD PTR _rect$[ebp], xmm0
; File C:\Program Files (x86)\Microsoft Visual Studio\2019\Community\VC\Tools\MSVC\14.29.30133\atlmfc\include\afxcmn.inl

; 193  : 	{ ASSERT(::IsWindow(m_hWnd)); return (BOOL) ::SendMessage(m_hWnd, LVM_ENSUREVISIBLE, nItem, MAKELPARAM(bPartialOK, 0)); }

  0006b	ff d3		 call	 ebx
; File D:\git\src\IBK\IBK_DRFN\ProjSrc\SrcChartEx\ChartAddIn\ChartDesignPropertyAddIn\ChartDesignPropertyAddIn\PacketSuperGrid.cpp

; 230  : 	if( !EnsureVisible(nItem, TRUE)) return NULL;

  0006d	85 c0		 test	 eax, eax
  0006f	75 07		 jne	 SHORT $LN2@ShowList
  00071	33 f6		 xor	 esi, esi
  00073	e9 a9 01 00 00	 jmp	 $LN11@ShowList
$LN2@ShowList:

; 231  : 	GetSubItemRect(nItem, nCol, LVIR_BOUNDS, rect);

  00078	8d 45 e0	 lea	 eax, DWORD PTR _rect$[ebp]
  0007b	8b cf		 mov	 ecx, edi
  0007d	50		 push	 eax
  0007e	6a 00		 push	 0
  00080	ff 75 cc	 push	 DWORD PTR _nCol$GSCopy$1$[ebp]
  00083	56		 push	 esi
  00084	e8 00 00 00 00	 call	 ?GetSubItemRect@CListCtrl@@QBEHHHHAAVCRect@@@Z ; CListCtrl::GetSubItemRect
; File C:\Program Files (x86)\Microsoft Visual Studio\2019\Community\VC\Tools\MSVC\14.29.30133\atlmfc\include\afxwin2.inl

; 86   : 	{ ASSERT(::IsWindow(m_hWnd)); ::GetClientRect(m_hWnd, lpRect); }

  00089	8d 45 d0	 lea	 eax, DWORD PTR _rcClient$[ebp]
  0008c	0f 57 c0	 xorps	 xmm0, xmm0
  0008f	50		 push	 eax
  00090	ff 77 20	 push	 DWORD PTR [edi+32]
; File C:\Program Files (x86)\Microsoft Visual Studio\2019\Community\VC\Tools\MSVC\14.29.30133\atlmfc\include\atltypes.h

; 528  : 	left = 0;

  00093	0f 11 45 d0	 movups	 XMMWORD PTR _rcClient$[ebp], xmm0
; File C:\Program Files (x86)\Microsoft Visual Studio\2019\Community\VC\Tools\MSVC\14.29.30133\atlmfc\include\afxwin2.inl

; 86   : 	{ ASSERT(::IsWindow(m_hWnd)); ::GetClientRect(m_hWnd, lpRect); }

  00097	ff 15 00 00 00
	00		 call	 DWORD PTR __imp__GetClientRect@8
; File D:\git\src\IBK\IBK_DRFN\ProjSrc\SrcChartEx\ChartAddIn\ChartDesignPropertyAddIn\ChartDesignPropertyAddIn\PacketSuperGrid.cpp

; 235  : 	if( offset + rect.left < 0 || offset + rect.left > rcClient.right )

  0009d	8b 75 e0	 mov	 esi, DWORD PTR _rect$[ebp]
  000a0	85 f6		 test	 esi, esi
  000a2	78 05		 js	 SHORT $LN4@ShowList
  000a4	3b 75 d8	 cmp	 esi, DWORD PTR _rcClient$[ebp+8]
  000a7	7e 10		 jle	 SHORT $LN3@ShowList
$LN4@ShowList:
; File C:\Program Files (x86)\Microsoft Visual Studio\2019\Community\VC\Tools\MSVC\14.29.30133\atlmfc\include\afxcmn.inl

; 195  : 	{ ASSERT(::IsWindow(m_hWnd)); return (BOOL) ::SendMessage(m_hWnd, LVM_SCROLL, size.cx, size.cy); }

  000a9	6a 00		 push	 0
  000ab	56		 push	 esi
  000ac	68 14 10 00 00	 push	 4116			; 00001014H
  000b1	ff 77 20	 push	 DWORD PTR [edi+32]
  000b4	ff d3		 call	 ebx
; File D:\git\src\IBK\IBK_DRFN\ProjSrc\SrcChartEx\ChartAddIn\ChartDesignPropertyAddIn\ChartDesignPropertyAddIn\PacketSuperGrid.cpp

; 241  : 		rect.left -= size.cx;

  000b6	29 75 e0	 sub	 DWORD PTR _rect$[ebp], esi
$LN3@ShowList:
; File C:\Program Files (x86)\Microsoft Visual Studio\2019\Community\VC\Tools\MSVC\14.29.30133\atlmfc\include\afxcmn.inl

; 213  : 	{ ASSERT(::IsWindow(m_hWnd)); return (int) ::SendMessage(m_hWnd, LVM_GETCOLUMNWIDTH, nCol, 0); }

  000b9	8b 75 cc	 mov	 esi, DWORD PTR _nCol$GSCopy$1$[ebp]
  000bc	6a 00		 push	 0
  000be	56		 push	 esi
  000bf	68 1d 10 00 00	 push	 4125			; 0000101dH
  000c4	ff 77 20	 push	 DWORD PTR [edi+32]
  000c7	ff d3		 call	 ebx
  000c9	8b c8		 mov	 ecx, eax
; File D:\git\src\IBK\IBK_DRFN\ProjSrc\SrcChartEx\ChartAddIn\ChartDesignPropertyAddIn\ChartDesignPropertyAddIn\PacketSuperGrid.cpp

; 250  : 	rect.bottom += 10 * rect.Height();//dropdown area

  000cb	8b 45 e4	 mov	 eax, DWORD PTR _rect$[ebp+4]
  000ce	03 4d e0	 add	 ecx, DWORD PTR _rect$[ebp]
  000d1	3b 4d d8	 cmp	 ecx, DWORD PTR _rcClient$[ebp+8]
; File C:\Program Files (x86)\Microsoft Visual Studio\2019\Community\VC\Tools\MSVC\14.29.30133\atlmfc\include\afx.inl

; 116  : 	{ return ::operator new(nSize); }

  000d4	68 a8 00 00 00	 push	 168			; 000000a8H
; File D:\git\src\IBK\IBK_DRFN\ProjSrc\SrcChartEx\ChartAddIn\ChartDesignPropertyAddIn\ChartDesignPropertyAddIn\PacketSuperGrid.cpp

; 246  : 	if(rect.right > rcClient.right) 

  000d9	0f 4f 4d d8	 cmovg	 ecx, DWORD PTR _rcClient$[ebp+8]
  000dd	89 4d e8	 mov	 DWORD PTR _rect$[ebp+8], ecx

; 250  : 	rect.bottom += 10 * rect.Height();//dropdown area

  000e0	8d 0c 80	 lea	 ecx, DWORD PTR [eax+eax*4]
  000e3	6b 45 ec 0b	 imul	 eax, DWORD PTR _rect$[ebp+12], 11
  000e7	03 c9		 add	 ecx, ecx
  000e9	2b c1		 sub	 eax, ecx
  000eb	89 45 ec	 mov	 DWORD PTR _rect$[ebp+12], eax
; File C:\Program Files (x86)\Microsoft Visual Studio\2019\Community\VC\Tools\MSVC\14.29.30133\atlmfc\include\afx.inl

; 116  : 	{ return ::operator new(nSize); }

  000ee	e8 00 00 00 00	 call	 ??2@YAPAXI@Z		; operator new
  000f3	83 c4 04	 add	 esp, 4
; File D:\git\src\IBK\IBK_DRFN\ProjSrc\SrcChartEx\ChartAddIn\ChartDesignPropertyAddIn\ChartDesignPropertyAddIn\PacketSuperGrid.cpp

; 253  : 	CComboBox *pList = new CComboInListView(nItem, nCol, lstItems);

  000f6	89 45 b8	 mov	 DWORD PTR $T4[ebp], eax
  000f9	c6 45 fc 01	 mov	 BYTE PTR __$EHRec$[ebp+8], 1
  000fd	85 c0		 test	 eax, eax
  000ff	74 15		 je	 SHORT $LN7@ShowList
  00101	ff 75 c4	 push	 DWORD PTR _lstItems$GSCopy$1$[ebp]
  00104	8b c8		 mov	 ecx, eax
  00106	56		 push	 esi
  00107	ff 75 c8	 push	 DWORD PTR _nItem$GSCopy$1$[ebp]
  0010a	e8 00 00 00 00	 call	 ??0CComboInListView@@QAE@HHPAVCStringList@@@Z ; CComboInListView::CComboInListView
  0010f	8b f0		 mov	 esi, eax
  00111	89 45 cc	 mov	 DWORD PTR $T6[ebp], eax
  00114	eb 05		 jmp	 SHORT $LN8@ShowList
$LN7@ShowList:
  00116	33 f6		 xor	 esi, esi
  00118	89 75 cc	 mov	 DWORD PTR $T6[ebp], esi
$LN8@ShowList:

; 254  : 	pList->Create(dwStyle, rect, this, IDC_COMBOBOXINLISTVIEW);

  0011b	8b 06		 mov	 eax, DWORD PTR [esi]
  0011d	8d 4d e0	 lea	 ecx, DWORD PTR _rect$[ebp]
  00120	68 35 12 00 00	 push	 4661			; 00001235H
  00125	57		 push	 edi
  00126	51		 push	 ecx
  00127	68 03 08 30 50	 push	 1345325059		; 50300803H
  0012c	8b ce		 mov	 ecx, esi
  0012e	c6 45 fc 00	 mov	 BYTE PTR __$EHRec$[ebp+8], 0
  00132	ff 90 6c 01 00
	00		 call	 DWORD PTR [eax+364]

; 255  : 	pList->ModifyStyleEx(0,WS_EX_CLIENTEDGE);//can we tell at all

  00138	6a 00		 push	 0
  0013a	68 00 02 00 00	 push	 512			; 00000200H
  0013f	6a 00		 push	 0
  00141	8b ce		 mov	 ecx, esi
  00143	e8 00 00 00 00	 call	 ?ModifyStyleEx@CWnd@@QAEHKKI@Z ; CWnd::ModifyStyleEx
; File C:\Program Files (x86)\Microsoft Visual Studio\2019\Community\VC\Tools\MSVC\14.29.30133\atlmfc\include\afxwin2.inl

; 100  : 	{ ASSERT(::IsWindow(m_hWnd)); return CDC::FromHandle(::GetDC(m_hWnd)); }

  00148	ff 76 20	 push	 DWORD PTR [esi+32]
; File D:\git\src\IBK\IBK_DRFN\ProjSrc\SrcChartEx\ChartAddIn\ChartDesignPropertyAddIn\ChartDesignPropertyAddIn\PacketSuperGrid.cpp

; 267  : 	int nExtent=0;

  0014b	33 ff		 xor	 edi, edi
; File C:\Program Files (x86)\Microsoft Visual Studio\2019\Community\VC\Tools\MSVC\14.29.30133\atlmfc\include\afxwin2.inl

; 100  : 	{ ASSERT(::IsWindow(m_hWnd)); return CDC::FromHandle(::GetDC(m_hWnd)); }

  0014d	ff 15 00 00 00
	00		 call	 DWORD PTR __imp__GetDC@4
  00153	50		 push	 eax
  00154	e8 00 00 00 00	 call	 ?FromHandle@CDC@@SGPAV1@PAUHDC__@@@Z ; CDC::FromHandle

; 32   : 	{ ASSERT(::IsWindow(m_hWnd)); return ::SendMessage(m_hWnd, message, wParam, lParam); }

  00159	57		 push	 edi
  0015a	57		 push	 edi
  0015b	6a 31		 push	 49			; 00000031H
  0015d	ff 76 20	 push	 DWORD PTR [esi+32]
; File D:\git\src\IBK\IBK_DRFN\ProjSrc\SrcChartEx\ChartAddIn\ChartDesignPropertyAddIn\ChartDesignPropertyAddIn\PacketSuperGrid.cpp

; 270  : 		CDC* pDC = pWnd->GetDC();

  00160	8b d8		 mov	 ebx, eax
; File C:\Program Files (x86)\Microsoft Visual Studio\2019\Community\VC\Tools\MSVC\14.29.30133\atlmfc\include\afxwin2.inl

; 32   : 	{ ASSERT(::IsWindow(m_hWnd)); return ::SendMessage(m_hWnd, message, wParam, lParam); }

  00162	ff 15 00 00 00
	00		 call	 DWORD PTR __imp__SendMessageA@16
; File C:\Program Files (x86)\Microsoft Visual Studio\2019\Community\VC\Tools\MSVC\14.29.30133\atlmfc\include\afxwin1.inl

; 151  : 	{ return (CFont*) CGdiObject::FromHandle(hFont); }

  00168	50		 push	 eax
  00169	e8 00 00 00 00	 call	 ?FromHandle@CGdiObject@@SGPAV1@PAX@Z ; CGdiObject::FromHandle
; File D:\git\src\IBK\IBK_DRFN\ProjSrc\SrcChartEx\ChartAddIn\ChartDesignPropertyAddIn\ChartDesignPropertyAddIn\PacketSuperGrid.cpp

; 273  : 		if(pFont!=NULL)										//ya what ever makes me happy,.right :}

  0016e	85 c0		 test	 eax, eax
  00170	74 6a		 je	 SHORT $LN34@ShowList

; 274  : 		{
; 275  : 			CFont* pOldFont = pDC->SelectObject(pFont);

  00172	8b 13		 mov	 edx, DWORD PTR [ebx]
  00174	8b cb		 mov	 ecx, ebx
  00176	50		 push	 eax
  00177	ff 52 30	 call	 DWORD PTR [edx+48]
  0017a	89 45 b8	 mov	 DWORD PTR _pOldFont$1$[ebp], eax

; 276  : 			CSize newExtent;
; 277  : 			POSITION pos = pList->GetHeadPosition();

  0017d	8b 45 c4	 mov	 eax, DWORD PTR _lstItems$GSCopy$1$[ebp]
  00180	8b 48 04	 mov	 ecx, DWORD PTR [eax+4]

; 278  : 			while(pos != NULL)

  00183	85 c9		 test	 ecx, ecx
  00185	74 4b		 je	 SHORT $LN32@ShowList
  00187	8b f1		 mov	 esi, ecx
  00189	0f 1f 80 00 00
	00 00		 npad	 7
$LL31@ShowList:
; File C:\Program Files (x86)\Microsoft Visual Studio\2019\Community\VC\Tools\MSVC\14.29.30133\atlmfc\include\afxcoll.inl

; 501  : 	{ CNode* pNode = (CNode*) rPosition;

  00190	8b c6		 mov	 eax, esi
; File D:\git\src\IBK\IBK_DRFN\ProjSrc\SrcChartEx\ChartAddIn\ChartDesignPropertyAddIn\ChartDesignPropertyAddIn\PacketSuperGrid.cpp

; 280  : 				CString str(pList->GetNext(pos));

  00192	8d 4d c0	 lea	 ecx, DWORD PTR _str$5[ebp]
; File C:\Program Files (x86)\Microsoft Visual Studio\2019\Community\VC\Tools\MSVC\14.29.30133\atlmfc\include\afxcoll.inl

; 505  : 		rPosition = (POSITION) pNode->pNext;

  00195	8b 36		 mov	 esi, DWORD PTR [esi]

; 506  : 		return pNode->data; }

  00197	83 c0 08	 add	 eax, 8
; File D:\git\src\IBK\IBK_DRFN\ProjSrc\SrcChartEx\ChartAddIn\ChartDesignPropertyAddIn\ChartDesignPropertyAddIn\PacketSuperGrid.cpp

; 280  : 				CString str(pList->GetNext(pos));

  0019a	50		 push	 eax
  0019b	ff 15 00 00 00
	00		 call	 DWORD PTR __imp_??0?$CStringT@DV?$StrTraitMFC_DLL@DV?$ChTraitsCRT@D@ATL@@@@@ATL@@QAE@ABV01@@Z
; File C:\Program Files (x86)\Microsoft Visual Studio\2019\Community\VC\Tools\MSVC\14.29.30133\atlmfc\include\afxwin1.inl

; 639  : 		VERIFY(::GetTextExtentPoint32(m_hAttribDC, str, (int)str.GetLength(), &size));

  001a1	8d 45 b0	 lea	 eax, DWORD PTR _size$3[ebp]
  001a4	50		 push	 eax
  001a5	8b 45 c0	 mov	 eax, DWORD PTR _str$5[ebp]
  001a8	ff 70 f4	 push	 DWORD PTR [eax-12]
  001ab	50		 push	 eax
  001ac	ff 73 08	 push	 DWORD PTR [ebx+8]
  001af	ff 15 00 00 00
	00		 call	 DWORD PTR __imp__GetTextExtentPoint32A@16
; File D:\git\src\IBK\IBK_DRFN\ProjSrc\SrcChartEx\ChartAddIn\ChartDesignPropertyAddIn\ChartDesignPropertyAddIn\PacketSuperGrid.cpp

; 281  : 				newExtent = pDC->GetTextExtent(str);

  001b5	8b 45 b0	 mov	 eax, DWORD PTR _size$3[ebp]

; 282  : 				newExtent.cx += 6;
; 283  : 				if (newExtent.cx > nExtent)
; 284  : 				{
; 285  : 					nExtent = newExtent.cx;
; 286  : 				}
; 287  : 			}

  001b8	8d 4d c0	 lea	 ecx, DWORD PTR _str$5[ebp]
  001bb	83 c0 06	 add	 eax, 6
  001be	3b c7		 cmp	 eax, edi
  001c0	0f 4e c7	 cmovle	 eax, edi
  001c3	8b f8		 mov	 edi, eax
  001c5	ff 15 00 00 00
	00		 call	 DWORD PTR __imp_??1?$CStringT@DV?$StrTraitMFC_DLL@DV?$ChTraitsCRT@D@ATL@@@@@ATL@@QAE@XZ
  001cb	85 f6		 test	 esi, esi
  001cd	75 c1		 jne	 SHORT $LL31@ShowList
  001cf	8b 75 cc	 mov	 esi, DWORD PTR $T6[ebp]
$LN32@ShowList:

; 288  : 			pDC->SelectObject(pOldFont);

  001d2	8b 03		 mov	 eax, DWORD PTR [ebx]
  001d4	8b cb		 mov	 ecx, ebx
  001d6	ff 75 b8	 push	 DWORD PTR _pOldFont$1$[ebp]
  001d9	ff 50 30	 call	 DWORD PTR [eax+48]
$LN34@ShowList:
; File C:\Program Files (x86)\Microsoft Visual Studio\2019\Community\VC\Tools\MSVC\14.29.30133\atlmfc\include\afxwin2.inl

; 104  : 	{ ASSERT(::IsWindow(m_hWnd)); return ::ReleaseDC(m_hWnd, pDC->m_hDC); }

  001dc	ff 73 04	 push	 DWORD PTR [ebx+4]
  001df	ff 76 20	 push	 DWORD PTR [esi+32]
  001e2	ff 15 00 00 00
	00		 call	 DWORD PTR __imp__ReleaseDC@8

; 843  : 	{ ASSERT(::IsWindow(m_hWnd)); ::SendMessage(m_hWnd, CB_SETHORIZONTALEXTENT, nExtent, 0); }

  001e8	8b 1d 00 00 00
	00		 mov	 ebx, DWORD PTR __imp__SendMessageA@16
  001ee	6a 00		 push	 0
  001f0	57		 push	 edi
  001f1	68 5e 01 00 00	 push	 350			; 0000015eH
  001f6	ff 76 20	 push	 DWORD PTR [esi+32]
  001f9	ff d3		 call	 ebx

; 793  : 	{ ASSERT(::IsWindow(m_hWnd)); ::SendMessage(m_hWnd, CB_SHOWDROPDOWN, bShowIt, 0); }

  001fb	6a 00		 push	 0
  001fd	6a 01		 push	 1
  001ff	68 4f 01 00 00	 push	 335			; 0000014fH
  00204	ff 76 20	 push	 DWORD PTR [esi+32]
  00207	ff d3		 call	 ebx
; File D:\git\src\IBK\IBK_DRFN\ProjSrc\SrcChartEx\ChartAddIn\ChartDesignPropertyAddIn\ChartDesignPropertyAddIn\PacketSuperGrid.cpp

; 258  : 	pList->SelectString(-1, strFind.GetBuffer(1));

  00209	6a 01		 push	 1
  0020b	8d 4d bc	 lea	 ecx, DWORD PTR _strFind$[ebp]
  0020e	ff 15 00 00 00
	00		 call	 DWORD PTR __imp_?GetBuffer@?$CSimpleStringT@D$00@ATL@@QAEPADH@Z
; File C:\Program Files (x86)\Microsoft Visual Studio\2019\Community\VC\Tools\MSVC\14.29.30133\atlmfc\include\afxwin2.inl

; 808  : 	{ ASSERT(::IsWindow(m_hWnd)); return (int)::SendMessage(m_hWnd, CB_SELECTSTRING,

  00214	50		 push	 eax
  00215	6a ff		 push	 -1
  00217	68 4d 01 00 00	 push	 333			; 0000014dH
  0021c	ff 76 20	 push	 DWORD PTR [esi+32]
  0021f	ff d3		 call	 ebx
$LN11@ShowList:
; File D:\git\src\IBK\IBK_DRFN\ProjSrc\SrcChartEx\ChartAddIn\ChartDesignPropertyAddIn\ChartDesignPropertyAddIn\PacketSuperGrid.cpp

; 260  : 	return pList;

  00221	8d 4d bc	 lea	 ecx, DWORD PTR _strFind$[ebp]
  00224	ff 15 00 00 00
	00		 call	 DWORD PTR __imp_??1?$CStringT@DV?$StrTraitMFC_DLL@DV?$ChTraitsCRT@D@ATL@@@@@ATL@@QAE@XZ
  0022a	8b c6		 mov	 eax, esi

; 261  : }

  0022c	8b 4d f4	 mov	 ecx, DWORD PTR __$EHRec$[ebp]
  0022f	64 89 0d 00 00
	00 00		 mov	 DWORD PTR fs:0, ecx
  00236	59		 pop	 ecx
  00237	5f		 pop	 edi
  00238	5e		 pop	 esi
  00239	5b		 pop	 ebx
  0023a	8b 4d f0	 mov	 ecx, DWORD PTR __$ArrayPad$[ebp]
  0023d	33 cd		 xor	 ecx, ebp
  0023f	e8 00 00 00 00	 call	 @__security_check_cookie@4
  00244	8b e5		 mov	 esp, ebp
  00246	5d		 pop	 ebp
  00247	c2 0c 00	 ret	 12			; 0000000cH
_TEXT	ENDS
;	COMDAT text$x
text$x	SEGMENT
__unwindfunclet$?ShowList@CPacketSuperGrid@@IAEPAVCComboBox@@HHPAVCStringList@@@Z$0:
  00000	8d 4d bc	 lea	 ecx, DWORD PTR _strFind$[ebp]
  00003	ff 25 00 00 00
	00		 jmp	 DWORD PTR __imp_??1?$CStringT@DV?$StrTraitMFC_DLL@DV?$ChTraitsCRT@D@ATL@@@@@ATL@@QAE@XZ
__unwindfunclet$?ShowList@CPacketSuperGrid@@IAEPAVCComboBox@@HHPAVCStringList@@@Z$1:
  00009	8b 45 b8	 mov	 eax, DWORD PTR $T4[ebp]
  0000c	50		 push	 eax
  0000d	e8 00 00 00 00	 call	 ??3CObject@@SGXPAX@Z	; CObject::operator delete
  00012	c3		 ret	 0
  00013	cc		 int	 3
  00014	cc		 int	 3
  00015	cc		 int	 3
  00016	cc		 int	 3
  00017	cc		 int	 3
__ehhandler$?ShowList@CPacketSuperGrid@@IAEPAVCComboBox@@HHPAVCStringList@@@Z:
  00018	90		 npad	 1
  00019	90		 npad	 1
  0001a	8b 54 24 08	 mov	 edx, DWORD PTR [esp+8]
  0001e	8d 42 0c	 lea	 eax, DWORD PTR [edx+12]
  00021	8b 4a ac	 mov	 ecx, DWORD PTR [edx-84]
  00024	33 c8		 xor	 ecx, eax
  00026	e8 00 00 00 00	 call	 @__security_check_cookie@4
  0002b	8b 4a fc	 mov	 ecx, DWORD PTR [edx-4]
  0002e	33 c8		 xor	 ecx, eax
  00030	e8 00 00 00 00	 call	 @__security_check_cookie@4
  00035	b8 00 00 00 00	 mov	 eax, OFFSET __ehfuncinfo$?ShowList@CPacketSuperGrid@@IAEPAVCComboBox@@HHPAVCStringList@@@Z
  0003a	e9 00 00 00 00	 jmp	 ___CxxFrameHandler3
text$x	ENDS
?ShowList@CPacketSuperGrid@@IAEPAVCComboBox@@HHPAVCStringList@@@Z ENDP ; CPacketSuperGrid::ShowList
; Function compile flags: /Ogtp
; File D:\git\src\IBK\IBK_DRFN\ProjSrc\SrcChartEx\ChartAddIn\ChartDesignPropertyAddIn\ChartDesignPropertyAddIn\PacketSuperGrid.cpp
;	COMDAT ??1CPacketSuperGrid@@UAE@XZ
_TEXT	SEGMENT
??1CPacketSuperGrid@@UAE@XZ PROC			; CPacketSuperGrid::~CPacketSuperGrid, COMDAT
; _this$ = ecx

; 28   : {

  00000	56		 push	 esi
  00001	8b f1		 mov	 esi, ecx

; 29   : }

  00003	8d 8e ec 00 00
	00		 lea	 ecx, DWORD PTR [esi+236]
  00009	c7 06 00 00 00
	00		 mov	 DWORD PTR [esi], OFFSET ??_7CPacketSuperGrid@@6B@
  0000f	e8 00 00 00 00	 call	 ??1CImageList@@UAE@XZ	; CImageList::~CImageList
  00014	8b ce		 mov	 ecx, esi
  00016	5e		 pop	 esi
  00017	e9 00 00 00 00	 jmp	 ??1CSuperGridCtrl@@UAE@XZ ; CSuperGridCtrl::~CSuperGridCtrl
??1CPacketSuperGrid@@UAE@XZ ENDP			; CPacketSuperGrid::~CPacketSuperGrid
_TEXT	ENDS
; Function compile flags: /Ogtp
; File D:\git\src\IBK\IBK_DRFN\ProjSrc\SrcChartEx\ChartAddIn\ChartDesignPropertyAddIn\ChartDesignPropertyAddIn\PacketSuperGrid.cpp
;	COMDAT ?AddItem@CPacketSuperGrid@@QAEXHABV?$CStringT@DV?$StrTraitMFC_DLL@DV?$ChTraitsCRT@D@ATL@@@@@ATL@@0000@Z
_TEXT	SEGMENT
_nCheck$ = 8						; size = 4
_szpacket$ = 12						; size = 4
_szField$ = 16						; size = 4
_szLength$ = 20						; size = 4
_szType$ = 24						; size = 4
_szReal$ = 28						; size = 4
?AddItem@CPacketSuperGrid@@QAEXHABV?$CStringT@DV?$StrTraitMFC_DLL@DV?$ChTraitsCRT@D@ATL@@@@@ATL@@0000@Z PROC ; CPacketSuperGrid::AddItem, COMDAT
; _this$ = ecx

; 410  : {

  00000	55		 push	 ebp
  00001	8b ec		 mov	 ebp, esp

; 411  : 	HowToInsertItemsAfterTheGridHasBeenInitialized(0, nCheck, szpacket, szField,  szLength, szType, szReal);

  00003	ff 75 1c	 push	 DWORD PTR _szReal$[ebp]
  00006	ff 75 18	 push	 DWORD PTR _szType$[ebp]
  00009	ff 75 14	 push	 DWORD PTR _szLength$[ebp]
  0000c	ff 75 10	 push	 DWORD PTR _szField$[ebp]
  0000f	ff 75 0c	 push	 DWORD PTR _szpacket$[ebp]
  00012	ff 75 08	 push	 DWORD PTR _nCheck$[ebp]
  00015	6a 00		 push	 0
  00017	e8 00 00 00 00	 call	 ?HowToInsertItemsAfterTheGridHasBeenInitialized@CPacketSuperGrid@@QAEXHHABV?$CStringT@DV?$StrTraitMFC_DLL@DV?$ChTraitsCRT@D@ATL@@@@@ATL@@0000@Z ; CPacketSuperGrid::HowToInsertItemsAfterTheGridHasBeenInitialized

; 412  : }

  0001c	5d		 pop	 ebp
  0001d	c2 18 00	 ret	 24			; 00000018H
?AddItem@CPacketSuperGrid@@QAEXHABV?$CStringT@DV?$StrTraitMFC_DLL@DV?$ChTraitsCRT@D@ATL@@@@@ATL@@0000@Z ENDP ; CPacketSuperGrid::AddItem
_TEXT	ENDS
; Function compile flags: /Ogtp
; File D:\git\src\IBK\IBK_DRFN\ProjSrc\SrcChartEx\ChartAddIn\ChartDesignPropertyAddIn\ChartDesignPropertyAddIn\PacketSuperGrid.cpp
;	COMDAT ?OnItemLButtonDown@CPacketSuperGrid@@UAEHAAUtagLVHITTESTINFO@@@Z
_TEXT	SEGMENT
_ht$ = 8						; size = 4
?OnItemLButtonDown@CPacketSuperGrid@@UAEHAAUtagLVHITTESTINFO@@@Z PROC ; CPacketSuperGrid::OnItemLButtonDown, COMDAT
; _this$ = ecx

; 156  : 	return 1;

  00000	b8 01 00 00 00	 mov	 eax, 1

; 157  : }

  00005	c2 04 00	 ret	 4
?OnItemLButtonDown@CPacketSuperGrid@@UAEHAAUtagLVHITTESTINFO@@@Z ENDP ; CPacketSuperGrid::OnItemLButtonDown
_TEXT	ENDS
; Function compile flags: /Ogtp
; File D:\git\src\IBK\IBK_DRFN\ProjSrc\SrcChartEx\ChartAddIn\ChartDesignPropertyAddIn\ChartDesignPropertyAddIn\PacketSuperGrid.cpp
; File C:\Program Files (x86)\Microsoft Visual Studio\2019\Community\VC\Tools\MSVC\14.29.30133\atlmfc\include\afxcmn.inl
; File D:\git\src\IBK\IBK_DRFN\ProjSrc\SrcChartEx\ChartAddIn\ChartDesignPropertyAddIn\ChartDesignPropertyAddIn\PacketSuperGrid.cpp
; File C:\Program Files (x86)\Microsoft Visual Studio\2019\Community\VC\Tools\MSVC\14.29.30133\atlmfc\include\afxcmn.inl
; File D:\git\src\IBK\IBK_DRFN\ProjSrc\SrcChartEx\ChartAddIn\ChartDesignPropertyAddIn\ChartDesignPropertyAddIn\PacketSuperGrid.cpp
;	COMDAT ?OnVkReturn@CPacketSuperGrid@@UAEHXZ
_TEXT	SEGMENT
_pInfo$1$ = -8						; size = 4
_iSubItem$1$ = -4					; size = 4
_list$1 = -4						; size = 4
_ctrlType$2 = -4					; size = 4
?OnVkReturn@CPacketSuperGrid@@UAEHXZ PROC		; CPacketSuperGrid::OnVkReturn, COMDAT
; _this$ = ecx

; 185  : {

  00000	55		 push	 ebp
  00001	8b ec		 mov	 ebp, esp
  00003	83 ec 08	 sub	 esp, 8
  00006	56		 push	 esi
  00007	57		 push	 edi
; File C:\Program Files (x86)\Microsoft Visual Studio\2019\Community\VC\Tools\MSVC\14.29.30133\atlmfc\include\afxcmn.inl

; 177  : 	{ ASSERT(::IsWindow(m_hWnd)); return (int) ::SendMessage(m_hWnd, LVM_GETNEXTITEM, nItem, MAKELPARAM(nFlags, 0)); }

  00008	6a 02		 push	 2
; File D:\git\src\IBK\IBK_DRFN\ProjSrc\SrcChartEx\ChartAddIn\ChartDesignPropertyAddIn\ChartDesignPropertyAddIn\PacketSuperGrid.cpp

; 185  : {

  0000a	8b f1		 mov	 esi, ecx
; File C:\Program Files (x86)\Microsoft Visual Studio\2019\Community\VC\Tools\MSVC\14.29.30133\atlmfc\include\afxcmn.inl

; 177  : 	{ ASSERT(::IsWindow(m_hWnd)); return (int) ::SendMessage(m_hWnd, LVM_GETNEXTITEM, nItem, MAKELPARAM(nFlags, 0)); }

  0000c	6a ff		 push	 -1
  0000e	68 0c 10 00 00	 push	 4108			; 0000100cH
  00013	ff 76 20	 push	 DWORD PTR [esi+32]
  00016	ff 15 00 00 00
	00		 call	 DWORD PTR __imp__SendMessageA@16
; File D:\git\src\IBK\IBK_DRFN\ProjSrc\SrcChartEx\ChartAddIn\ChartDesignPropertyAddIn\ChartDesignPropertyAddIn\PacketSuperGrid.cpp

; 188  : 	if( GetCurSubItem() != -1 && iItem != -1)

  0001c	83 be b0 00 00
	00 ff		 cmp	 DWORD PTR [esi+176], -1
  00023	8b f8		 mov	 edi, eax
  00025	0f 84 97 00 00
	00		 je	 $LN18@OnVkReturn
  0002b	83 ff ff	 cmp	 edi, -1
  0002e	0f 84 8e 00 00
	00		 je	 $LN18@OnVkReturn

; 189  : 	{
; 190  : 		CTreeItem*pSelItem = GetTreeItem(iItem);

  00034	53		 push	 ebx
  00035	57		 push	 edi
  00036	8b ce		 mov	 ecx, esi
  00038	e8 00 00 00 00	 call	 ?GetTreeItem@CSuperGridCtrl@@QAEPAVCTreeItem@1@H@Z ; CSuperGridCtrl::GetTreeItem
  0003d	8b d8		 mov	 ebx, eax

; 191  : 		if(pSelItem!=NULL)

  0003f	85 db		 test	 ebx, ebx
  00041	74 76		 je	 SHORT $LN19@OnVkReturn

; 192  : 		{	
; 193  : 			CHeaderCtrl* pHeader = (CHeaderCtrl*)GetDlgItem(0);

  00043	6a 00		 push	 0
  00045	8b ce		 mov	 ecx, esi
  00047	e8 00 00 00 00	 call	 ?GetDlgItem@CWnd@@QBEPAV1@H@Z ; CWnd::GetDlgItem

; 194  : 			int iSubItem = Header_OrderToIndex(pHeader->m_hWnd, GetCurSubItem());

  0004c	6a 00		 push	 0
  0004e	ff b6 b0 00 00
	00		 push	 DWORD PTR [esi+176]
  00054	68 0f 12 00 00	 push	 4623			; 0000120fH
  00059	ff 70 20	 push	 DWORD PTR [eax+32]
  0005c	ff 15 00 00 00
	00		 call	 DWORD PTR __imp__SendMessageA@16

; 195  : 			CItemInfo* pInfo = GetData(pSelItem);

  00062	53		 push	 ebx
  00063	8b ce		 mov	 ecx, esi
  00065	89 45 fc	 mov	 DWORD PTR _iSubItem$1$[ebp], eax
  00068	e8 00 00 00 00	 call	 ?GetData@CSuperGridCtrl@@QAEPAVCItemInfo@@PBVCTreeItem@1@@Z ; CSuperGridCtrl::GetData

; 196  : 			CItemInfo::CONTROLTYPE ctrlType;
; 197  : 			if(pInfo->GetControlType(iSubItem-1, ctrlType))

  0006d	8b 5d fc	 mov	 ebx, DWORD PTR _iSubItem$1$[ebp]
  00070	8d 55 fc	 lea	 edx, DWORD PTR _ctrlType$2[ebp]
  00073	52		 push	 edx
  00074	89 45 f8	 mov	 DWORD PTR _pInfo$1$[ebp], eax
  00077	8d 4b ff	 lea	 ecx, DWORD PTR [ebx-1]
  0007a	51		 push	 ecx
  0007b	8b c8		 mov	 ecx, eax
  0007d	e8 00 00 00 00	 call	 ?GetControlType@CItemInfo@@QBEHHAAW4CONTROLTYPE@1@@Z ; CItemInfo::GetControlType
  00082	85 c0		 test	 eax, eax
  00084	74 33		 je	 SHORT $LN19@OnVkReturn

; 198  : 			{	
; 199  : 				switch(ctrlType)

  00086	8b 45 fc	 mov	 eax, DWORD PTR _ctrlType$2[ebp]
  00089	83 e8 01	 sub	 eax, 1
  0008c	75 2b		 jne	 SHORT $LN19@OnVkReturn

; 200  : 				{
; 201  : 					/*put in your own control here*/
; 202  : 					case pInfo->CONTROLTYPE::datecontrol:break;
; 203  : 					case pInfo->CONTROLTYPE::spinbutton:break;
; 204  : 					case pInfo->CONTROLTYPE::dropdownlistviewwhatevercontrol:break;
; 205  : 					case pInfo->CONTROLTYPE::combobox: 
; 206  : 						{
; 207  : 
; 208  : 							CStringList* list=NULL;
; 209  : 							pInfo->GetListData(iSubItem-1, list);

  0008e	8b 4d f8	 mov	 ecx, DWORD PTR _pInfo$1$[ebp]
  00091	89 45 fc	 mov	 DWORD PTR _list$1[ebp], eax
  00094	8d 45 fc	 lea	 eax, DWORD PTR _list$1[ebp]
  00097	50		 push	 eax
  00098	8d 43 ff	 lea	 eax, DWORD PTR [ebx-1]
  0009b	50		 push	 eax
  0009c	e8 00 00 00 00	 call	 ?GetListData@CItemInfo@@QBEHHAAPAVCStringList@@@Z ; CItemInfo::GetListData

; 210  : 							CComboBox * pList = ShowList(iItem, iSubItem, list);

  000a1	ff 75 fc	 push	 DWORD PTR _list$1[ebp]
  000a4	8b ce		 mov	 ecx, esi
  000a6	53		 push	 ebx
  000a7	57		 push	 edi
  000a8	e8 00 00 00 00	 call	 ?ShowList@CPacketSuperGrid@@IAEPAVCComboBox@@HHPAVCStringList@@@Z ; CPacketSuperGrid::ShowList
  000ad	5b		 pop	 ebx
  000ae	5f		 pop	 edi

; 211  : 							bResult=TRUE; //I'll handle it from here
; 212  : 						}break;
; 213  : 					default:break;
; 214  : 				}
; 215  : 			}
; 216  : 		}
; 217  : 	}
; 218  : 	return bResult;

  000af	b8 01 00 00 00	 mov	 eax, 1

; 219  : }

  000b4	5e		 pop	 esi
  000b5	8b e5		 mov	 esp, ebp
  000b7	5d		 pop	 ebp
  000b8	c3		 ret	 0
$LN19@OnVkReturn:
  000b9	5b		 pop	 ebx
  000ba	5f		 pop	 edi

; 211  : 							bResult=TRUE; //I'll handle it from here
; 212  : 						}break;
; 213  : 					default:break;
; 214  : 				}
; 215  : 			}
; 216  : 		}
; 217  : 	}
; 218  : 	return bResult;

  000bb	33 c0		 xor	 eax, eax

; 219  : }

  000bd	5e		 pop	 esi
  000be	8b e5		 mov	 esp, ebp
  000c0	5d		 pop	 ebp
  000c1	c3		 ret	 0
$LN18@OnVkReturn:
  000c2	5f		 pop	 edi
  000c3	33 c0		 xor	 eax, eax
  000c5	5e		 pop	 esi
  000c6	8b e5		 mov	 esp, ebp
  000c8	5d		 pop	 ebp
  000c9	c3		 ret	 0
?OnVkReturn@CPacketSuperGrid@@UAEHXZ ENDP		; CPacketSuperGrid::OnVkReturn
_TEXT	ENDS
; Function compile flags: /Ogtp
; File D:\git\src\IBK\IBK_DRFN\ProjSrc\SrcChartEx\ChartAddIn\ChartDesignPropertyAddIn\ChartDesignPropertyAddIn\PacketSuperGrid.cpp
;	COMDAT ?OnDeleteItem@CPacketSuperGrid@@UAEHPAVCTreeItem@CSuperGridCtrl@@H@Z
_TEXT	SEGMENT
_pItem$ = 8						; size = 4
_nIndex$ = 12						; size = 4
?OnDeleteItem@CPacketSuperGrid@@UAEHPAVCTreeItem@CSuperGridCtrl@@H@Z PROC ; CPacketSuperGrid::OnDeleteItem, COMDAT
; _this$ = ecx

; 334  : 	return 1;

  00000	b8 01 00 00 00	 mov	 eax, 1

; 335  : }

  00005	c2 08 00	 ret	 8
?OnDeleteItem@CPacketSuperGrid@@UAEHPAVCTreeItem@CSuperGridCtrl@@H@Z ENDP ; CPacketSuperGrid::OnDeleteItem
_TEXT	ENDS
; Function compile flags: /Ogtp
; File D:\git\src\IBK\IBK_DRFN\ProjSrc\SrcChartEx\ChartAddIn\ChartDesignPropertyAddIn\ChartDesignPropertyAddIn\PacketSuperGrid.cpp
;	COMDAT ?OnItemCollapsed@CPacketSuperGrid@@UAEHPAVCTreeItem@CSuperGridCtrl@@@Z
_TEXT	SEGMENT
_pItem$ = 8						; size = 4
?OnItemCollapsed@CPacketSuperGrid@@UAEHPAVCTreeItem@CSuperGridCtrl@@@Z PROC ; CPacketSuperGrid::OnItemCollapsed, COMDAT
; _this$ = ecx

; 360  : 	return 1;

  00000	b8 01 00 00 00	 mov	 eax, 1

; 361  : }

  00005	c2 04 00	 ret	 4
?OnItemCollapsed@CPacketSuperGrid@@UAEHPAVCTreeItem@CSuperGridCtrl@@@Z ENDP ; CPacketSuperGrid::OnItemCollapsed
_TEXT	ENDS
; Function compile flags: /Ogtp
; File D:\git\src\IBK\IBK_DRFN\ProjSrc\SrcChartEx\ChartAddIn\ChartDesignPropertyAddIn\ChartDesignPropertyAddIn\PacketSuperGrid.cpp
;	COMDAT ?OnCollapsing@CPacketSuperGrid@@UAEHPAVCTreeItem@CSuperGridCtrl@@@Z
_TEXT	SEGMENT
_pItem$ = 8						; size = 4
?OnCollapsing@CPacketSuperGrid@@UAEHPAVCTreeItem@CSuperGridCtrl@@@Z PROC ; CPacketSuperGrid::OnCollapsing, COMDAT
; _this$ = ecx

; 353  : 	return 1;

  00000	b8 01 00 00 00	 mov	 eax, 1

; 354  : }

  00005	c2 04 00	 ret	 4
?OnCollapsing@CPacketSuperGrid@@UAEHPAVCTreeItem@CSuperGridCtrl@@@Z ENDP ; CPacketSuperGrid::OnCollapsing
_TEXT	ENDS
; Function compile flags: /Ogtp
; File D:\git\src\IBK\IBK_DRFN\ProjSrc\SrcChartEx\ChartAddIn\ChartDesignPropertyAddIn\ChartDesignPropertyAddIn\PacketSuperGrid.cpp
;	COMDAT ?OnItemExpanded@CPacketSuperGrid@@UAEHPAVCTreeItem@CSuperGridCtrl@@H@Z
_TEXT	SEGMENT
_pItem$ = 8						; size = 4
_iItem$ = 12						; size = 4
?OnItemExpanded@CPacketSuperGrid@@UAEHPAVCTreeItem@CSuperGridCtrl@@H@Z PROC ; CPacketSuperGrid::OnItemExpanded, COMDAT
; _this$ = ecx

; 347  : 	return 1;

  00000	b8 01 00 00 00	 mov	 eax, 1

; 348  : }

  00005	c2 08 00	 ret	 8
?OnItemExpanded@CPacketSuperGrid@@UAEHPAVCTreeItem@CSuperGridCtrl@@H@Z ENDP ; CPacketSuperGrid::OnItemExpanded
_TEXT	ENDS
; Function compile flags: /Ogtp
; File D:\git\src\IBK\IBK_DRFN\ProjSrc\SrcChartEx\ChartAddIn\ChartDesignPropertyAddIn\ChartDesignPropertyAddIn\PacketSuperGrid.cpp
;	COMDAT ?OnItemExpanding@CPacketSuperGrid@@UAEHPAVCTreeItem@CSuperGridCtrl@@H@Z
_TEXT	SEGMENT
_pItem$ = 8						; size = 4
_iItem$ = 12						; size = 4
?OnItemExpanding@CPacketSuperGrid@@UAEHPAVCTreeItem@CSuperGridCtrl@@H@Z PROC ; CPacketSuperGrid::OnItemExpanding, COMDAT
; _this$ = ecx

; 341  : 	return 1;

  00000	b8 01 00 00 00	 mov	 eax, 1

; 342  : }

  00005	c2 08 00	 ret	 8
?OnItemExpanding@CPacketSuperGrid@@UAEHPAVCTreeItem@CSuperGridCtrl@@H@Z ENDP ; CPacketSuperGrid::OnItemExpanding
_TEXT	ENDS
; Function compile flags: /Ogtp
; File D:\git\src\IBK\IBK_DRFN\ProjSrc\SrcChartEx\ChartAddIn\ChartDesignPropertyAddIn\ChartDesignPropertyAddIn\PacketSuperGrid.cpp
;	COMDAT ?GetCellRGB@CPacketSuperGrid@@UAEKXZ
_TEXT	SEGMENT
?GetCellRGB@CPacketSuperGrid@@UAEKXZ PROC		; CPacketSuperGrid::GetCellRGB, COMDAT
; _this$ = ecx

; 90   : 	return RGB(192,0,0);

  00000	b8 c0 00 00 00	 mov	 eax, 192		; 000000c0H

; 91   : }

  00005	c3		 ret	 0
?GetCellRGB@CPacketSuperGrid@@UAEKXZ ENDP		; CPacketSuperGrid::GetCellRGB
_TEXT	ENDS
; Function compile flags: /Ogtp
; File D:\git\src\IBK\IBK_DRFN\ProjSrc\SrcChartEx\ChartAddIn\ChartDesignPropertyAddIn\ChartDesignPropertyAddIn\PacketSuperGrid.cpp
;	COMDAT ?GetIcon@CPacketSuperGrid@@UAEHPBVCTreeItem@CSuperGridCtrl@@@Z
_TEXT	SEGMENT
_pItem$ = 8						; size = 4
?GetIcon@CPacketSuperGrid@@UAEHPBVCTreeItem@CSuperGridCtrl@@@Z PROC ; CPacketSuperGrid::GetIcon, COMDAT
; _this$ = ecx

; 96   : {

  00000	55		 push	 ebp
  00001	8b ec		 mov	 ebp, esp
  00003	56		 push	 esi

; 97   : 	if(pItem!=NULL)

  00004	8b 75 08	 mov	 esi, DWORD PTR _pItem$[ebp]
  00007	57		 push	 edi
  00008	8b f9		 mov	 edi, ecx
  0000a	85 f6		 test	 esi, esi
  0000c	74 39		 je	 SHORT $LN2@GetIcon

; 98   : 	{
; 99   : 		int n = GetData(pItem)->GetImage();

  0000e	56		 push	 esi
  0000f	e8 00 00 00 00	 call	 ?GetData@CSuperGridCtrl@@QAEPAVCItemInfo@@PBVCTreeItem@1@@Z ; CSuperGridCtrl::GetData
  00014	8b 40 7c	 mov	 eax, DWORD PTR [eax+124]

; 100  : 		if(n!=-1)

  00017	83 f8 ff	 cmp	 eax, -1
  0001a	75 2d		 jne	 SHORT $LN1@GetIcon

; 101  : 			return n;
; 102  : 		
; 103  : 		int iImage = 0;
; 104  : 		if(ItemHasChildren(pItem))

  0001c	56		 push	 esi
  0001d	8b cf		 mov	 ecx, edi
  0001f	e8 00 00 00 00	 call	 ?ItemHasChildren@CSuperGridCtrl@@QBEHPBVCTreeItem@1@@Z ; CSuperGridCtrl::ItemHasChildren
  00024	85 c0		 test	 eax, eax
  00026	74 14		 je	 SHORT $LN4@GetIcon

; 105  : 		{
; 106  : 			IsCollapsed(pItem) ? iImage = 1/*close icon*/:iImage = 0;/*open icon*/

  00028	56		 push	 esi
  00029	8b cf		 mov	 ecx, edi
  0002b	e8 00 00 00 00	 call	 ?IsCollapsed@CSuperGridCtrl@@QBEHPBVCTreeItem@1@@Z ; CSuperGridCtrl::IsCollapsed
  00030	f7 d8		 neg	 eax
  00032	5f		 pop	 edi
  00033	1b c0		 sbb	 eax, eax
  00035	f7 d8		 neg	 eax

; 113  : }

  00037	5e		 pop	 esi
  00038	5d		 pop	 ebp
  00039	c2 04 00	 ret	 4
$LN4@GetIcon:
  0003c	5f		 pop	 edi

; 107  : 		}
; 108  : 		else
; 109  : 			iImage = 2;//doc icon

  0003d	b8 02 00 00 00	 mov	 eax, 2

; 113  : }

  00042	5e		 pop	 esi
  00043	5d		 pop	 ebp
  00044	c2 04 00	 ret	 4
$LN2@GetIcon:

; 110  : 		return iImage;
; 111  : 	}
; 112  : 	return 0;

  00047	33 c0		 xor	 eax, eax
$LN1@GetIcon:
  00049	5f		 pop	 edi

; 113  : }

  0004a	5e		 pop	 esi
  0004b	5d		 pop	 ebp
  0004c	c2 04 00	 ret	 4
?GetIcon@CPacketSuperGrid@@UAEHPBVCTreeItem@CSuperGridCtrl@@@Z ENDP ; CPacketSuperGrid::GetIcon
_TEXT	ENDS
; Function compile flags: /Ogtp
; File D:\git\src\IBK\IBK_DRFN\ProjSrc\SrcChartEx\ChartAddIn\ChartDesignPropertyAddIn\ChartDesignPropertyAddIn\PacketSuperGrid.cpp
; File C:\Program Files (x86)\Microsoft Visual Studio\2019\Community\VC\Tools\MSVC\14.29.30133\atlmfc\include\afx.inl
; File D:\git\src\IBK\IBK_DRFN\ProjSrc\SrcChartEx\ChartAddIn\ChartDesignPropertyAddIn\ChartDesignPropertyAddIn\PacketSuperGrid.cpp
; File D:\git\src\IBK\IBK_DRFN\ProjSrc\SrcChartEx\ChartAddIn\ChartDesignPropertyAddIn\ChartDesignPropertyAddIn\SuperGridCtrl.h
; File D:\git\src\IBK\IBK_DRFN\ProjSrc\SrcChartEx\ChartAddIn\ChartDesignPropertyAddIn\ChartDesignPropertyAddIn\PacketSuperGrid.cpp
; File D:\git\src\IBK\IBK_DRFN\ProjSrc\SrcChartEx\ChartAddIn\ChartDesignPropertyAddIn\ChartDesignPropertyAddIn\SuperGridCtrl.h
; File C:\Program Files (x86)\Microsoft Visual Studio\2019\Community\VC\Tools\MSVC\14.29.30133\atlmfc\include\afxtempl.h
; File D:\git\src\IBK\IBK_DRFN\ProjSrc\SrcChartEx\ChartAddIn\ChartDesignPropertyAddIn\ChartDesignPropertyAddIn\SuperGridCtrl.h
; File D:\git\src\IBK\IBK_DRFN\ProjSrc\SrcChartEx\ChartAddIn\ChartDesignPropertyAddIn\ChartDesignPropertyAddIn\PacketSuperGrid.cpp
; File D:\git\src\IBK\IBK_DRFN\ProjSrc\SrcChartEx\ChartAddIn\ChartDesignPropertyAddIn\ChartDesignPropertyAddIn\SuperGridCtrl.h
; File C:\Program Files (x86)\Microsoft Visual Studio\2019\Community\VC\Tools\MSVC\14.29.30133\atlmfc\include\afxtempl.h
; File D:\git\src\IBK\IBK_DRFN\ProjSrc\SrcChartEx\ChartAddIn\ChartDesignPropertyAddIn\ChartDesignPropertyAddIn\SuperGridCtrl.h
; File C:\Program Files (x86)\Microsoft Visual Studio\2019\Community\VC\Tools\MSVC\14.29.30133\atlmfc\include\afxtempl.h
; File D:\git\src\IBK\IBK_DRFN\ProjSrc\SrcChartEx\ChartAddIn\ChartDesignPropertyAddIn\ChartDesignPropertyAddIn\SuperGridCtrl.h
; File C:\Program Files (x86)\Microsoft Visual Studio\2019\Community\VC\Tools\MSVC\14.29.30133\atlmfc\include\afx.inl
; File D:\git\src\IBK\IBK_DRFN\ProjSrc\SrcChartEx\ChartAddIn\ChartDesignPropertyAddIn\ChartDesignPropertyAddIn\SuperGridCtrl.h
; File C:\Program Files (x86)\Microsoft Visual Studio\2019\Community\VC\Tools\MSVC\14.29.30133\atlmfc\include\afxtempl.h
; File D:\git\src\IBK\IBK_DRFN\ProjSrc\SrcChartEx\ChartAddIn\ChartDesignPropertyAddIn\ChartDesignPropertyAddIn\PacketSuperGrid.cpp
;	COMDAT ?CopyData@CPacketSuperGrid@@UAEPAVCItemInfo@@PAV2@@Z
_TEXT	SEGMENT
$T4 = -28						; size = 4
_nHashBucket$5 = -24					; size = 4
_nHashValue$6 = -20					; size = 4
$T7 = -16						; size = 4
$T8 = -16						; size = 4
__$EHRec$ = -12						; size = 12
_list$1$ = 8						; size = 4
_enumCtrlType$9 = 8					; size = 4
_lpSrc$ = 8						; size = 4
?CopyData@CPacketSuperGrid@@UAEPAVCItemInfo@@PAV2@@Z PROC ; CPacketSuperGrid::CopyData, COMDAT
; _this$ = ecx

; 77   : {

  00000	55		 push	 ebp
  00001	8b ec		 mov	 ebp, esp
  00003	6a ff		 push	 -1
  00005	68 00 00 00 00	 push	 __ehhandler$?CopyData@CPacketSuperGrid@@UAEPAVCItemInfo@@PAV2@@Z
  0000a	64 a1 00 00 00
	00		 mov	 eax, DWORD PTR fs:0
  00010	50		 push	 eax
  00011	83 ec 10	 sub	 esp, 16			; 00000010H
  00014	53		 push	 ebx
  00015	56		 push	 esi
  00016	57		 push	 edi
  00017	a1 00 00 00 00	 mov	 eax, DWORD PTR ___security_cookie
  0001c	33 c5		 xor	 eax, ebp
  0001e	50		 push	 eax
  0001f	8d 45 f4	 lea	 eax, DWORD PTR __$EHRec$[ebp]
  00022	64 a3 00 00 00
	00		 mov	 DWORD PTR fs:0, eax
; File C:\Program Files (x86)\Microsoft Visual Studio\2019\Community\VC\Tools\MSVC\14.29.30133\atlmfc\include\afx.inl

; 116  : 	{ return ::operator new(nSize); }

  00028	68 84 00 00 00	 push	 132			; 00000084H
  0002d	e8 00 00 00 00	 call	 ??2@YAPAXI@Z		; operator new
  00032	83 c4 04	 add	 esp, 4
; File D:\git\src\IBK\IBK_DRFN\ProjSrc\SrcChartEx\ChartAddIn\ChartDesignPropertyAddIn\ChartDesignPropertyAddIn\PacketSuperGrid.cpp

; 79   : 	CItemInfo* lpDest = new CItemInfo;

  00035	89 45 f0	 mov	 DWORD PTR $T8[ebp], eax
  00038	c7 45 fc 00 00
	00 00		 mov	 DWORD PTR __$EHRec$[ebp+8], 0
  0003f	85 c0		 test	 eax, eax
  00041	74 0e		 je	 SHORT $LN3@CopyData
  00043	8b c8		 mov	 ecx, eax
  00045	e8 00 00 00 00	 call	 ??0CItemInfo@@QAE@XZ	; CItemInfo::CItemInfo
  0004a	8b f8		 mov	 edi, eax
  0004c	89 45 f0	 mov	 DWORD PTR $T7[ebp], eax
  0004f	eb 05		 jmp	 SHORT $LN4@CopyData
$LN3@CopyData:
  00051	33 ff		 xor	 edi, edi
  00053	89 7d f0	 mov	 DWORD PTR $T7[ebp], edi
$LN4@CopyData:
; File D:\git\src\IBK\IBK_DRFN\ProjSrc\SrcChartEx\ChartAddIn\ChartDesignPropertyAddIn\ChartDesignPropertyAddIn\SuperGridCtrl.h

; 83   : 		SetItemText(pItemInfo->GetItemText());

  00056	8b 5d 08	 mov	 ebx, DWORD PTR _lpSrc$[ebp]

; 15   : 	void SetItemText(const CString& strItem){ m_strItemName = strItem; }

  00059	8d 4f 60	 lea	 ecx, DWORD PTR [edi+96]
; File D:\git\src\IBK\IBK_DRFN\ProjSrc\SrcChartEx\ChartAddIn\ChartDesignPropertyAddIn\ChartDesignPropertyAddIn\PacketSuperGrid.cpp

; 79   : 	CItemInfo* lpDest = new CItemInfo;

  0005c	c7 45 fc ff ff
	ff ff		 mov	 DWORD PTR __$EHRec$[ebp+8], -1
; File D:\git\src\IBK\IBK_DRFN\ProjSrc\SrcChartEx\ChartAddIn\ChartDesignPropertyAddIn\ChartDesignPropertyAddIn\SuperGridCtrl.h

; 83   : 		SetItemText(pItemInfo->GetItemText());

  00063	8d 43 60	 lea	 eax, DWORD PTR [ebx+96]

; 15   : 	void SetItemText(const CString& strItem){ m_strItemName = strItem; }

  00066	50		 push	 eax
  00067	ff 15 00 00 00
	00		 call	 DWORD PTR __imp_??4?$CStringT@DV?$StrTraitMFC_DLL@DV?$ChTraitsCRT@D@ATL@@@@@ATL@@QAEAAV01@ABV01@@Z

; 84   : 		m_SubItems.Copy(pItemInfo->m_SubItems);

  0006d	8d 43 64	 lea	 eax, DWORD PTR [ebx+100]
  00070	50		 push	 eax
  00071	8d 4f 64	 lea	 ecx, DWORD PTR [edi+100]
  00074	e8 00 00 00 00	 call	 ?Copy@CStringArray@@QAEXABV1@@Z ; CStringArray::Copy

; 95   : 		for(int nCol=0; nCol < pItemInfo->GetItemCount(); nCol++)

  00079	33 f6		 xor	 esi, esi
  0007b	39 73 6c	 cmp	 DWORD PTR [ebx+108], esi
  0007e	7e 54		 jle	 SHORT $LN14@CopyData
  00080	b9 1d f3 01 00	 mov	 ecx, 127773		; 0001f31dH
$LL15@CopyData:
; File C:\Program Files (x86)\Microsoft Visual Studio\2019\Community\VC\Tools\MSVC\14.29.30133\atlmfc\include\afxtempl.h

; 165  : 	ldiv_t HashVal = ldiv((long)(ARG_KEY)key, 127773);

  00085	8b c6		 mov	 eax, esi
  00087	99		 cdq
  00088	f7 f9		 idiv	 ecx

; 166  : 	HashVal.rem = 16807 * HashVal.rem - 2836 * HashVal.quot;

  0008a	69 c0 14 0b 00
	00		 imul	 eax, eax, 2836
  00090	69 ca a7 41 00
	00		 imul	 ecx, edx, 16807
  00096	2b c8		 sub	 ecx, eax

; 1534 : 	nHashBucket = nHashValue % m_nHashTableSize;

  00098	8d b9 ff ff ff
	7f		 lea	 edi, DWORD PTR [ecx+2147483647]
  0009e	0f 49 f9	 cmovns	 edi, ecx
  000a1	33 d2		 xor	 edx, edx
  000a3	8b c7		 mov	 eax, edi
  000a5	f7 73 14	 div	 DWORD PTR [ebx+20]

; 1535 : 
; 1536 : 	if (m_pHashTable == NULL)

  000a8	8b 43 10	 mov	 eax, DWORD PTR [ebx+16]
  000ab	85 c0		 test	 eax, eax
  000ad	74 17		 je	 SHORT $LN79@CopyData

; 1541 : 	for (pAssoc = m_pHashTable[nHashBucket]; pAssoc != NULL; pAssoc = pAssoc->pNext)

  000af	8b 04 90	 mov	 eax, DWORD PTR [eax+edx*4]
  000b2	85 c0		 test	 eax, eax
  000b4	74 10		 je	 SHORT $LN79@CopyData
$LL28@CopyData:

; 1542 : 	{
; 1543 : 		if (pAssoc->nHashValue == nHashValue && CompareElements(&pAssoc->key, &key))

  000b6	39 78 0c	 cmp	 DWORD PTR [eax+12], edi
  000b9	75 04		 jne	 SHORT $LN26@CopyData
  000bb	39 30		 cmp	 DWORD PTR [eax], esi
  000bd	74 51		 je	 SHORT $LN23@CopyData
$LN26@CopyData:

; 1541 : 	for (pAssoc = m_pHashTable[nHashBucket]; pAssoc != NULL; pAssoc = pAssoc->pNext)

  000bf	8b 40 08	 mov	 eax, DWORD PTR [eax+8]
  000c2	85 c0		 test	 eax, eax
  000c4	75 f0		 jne	 SHORT $LL28@CopyData
$LN79@CopyData:
; File D:\git\src\IBK\IBK_DRFN\ProjSrc\SrcChartEx\ChartAddIn\ChartDesignPropertyAddIn\ChartDesignPropertyAddIn\SuperGridCtrl.h

; 95   : 		for(int nCol=0; nCol < pItemInfo->GetItemCount(); nCol++)

  000c6	8b 7d f0	 mov	 edi, DWORD PTR $T7[ebp]
$LN13@CopyData:
  000c9	46		 inc	 esi
  000ca	b9 1d f3 01 00	 mov	 ecx, 127773		; 0001f31dH
  000cf	3b 73 6c	 cmp	 esi, DWORD PTR [ebx+108]
  000d2	7c b1		 jl	 SHORT $LL15@CopyData
$LN14@CopyData:

; 86   : 		CopyColors(pItemInfo);

  000d4	53		 push	 ebx
  000d5	8b cf		 mov	 ecx, edi
  000d7	e8 00 00 00 00	 call	 ?CopyColors@CItemInfo@@QAEXPAV1@@Z ; CItemInfo::CopyColors

; 87   : 		SetCheck(pItemInfo->GetCheck());

  000dc	8b 43 78	 mov	 eax, DWORD PTR [ebx+120]
  000df	89 47 78	 mov	 DWORD PTR [edi+120], eax

; 88   : 		SetImage(pItemInfo->GetImage());

  000e2	8b 43 7c	 mov	 eax, DWORD PTR [ebx+124]
  000e5	89 47 7c	 mov	 DWORD PTR [edi+124], eax

; 89   : 		m_lParam = pItemInfo->m_lParam;

  000e8	8b 43 04	 mov	 eax, DWORD PTR [ebx+4]
  000eb	89 47 04	 mov	 DWORD PTR [edi+4], eax

; 90   : 		m_clf=pItemInfo->m_clf;

  000ee	8b 83 80 00 00
	00		 mov	 eax, DWORD PTR [ebx+128]
  000f4	89 87 80 00 00
	00		 mov	 DWORD PTR [edi+128], eax
; File D:\git\src\IBK\IBK_DRFN\ProjSrc\SrcChartEx\ChartAddIn\ChartDesignPropertyAddIn\ChartDesignPropertyAddIn\PacketSuperGrid.cpp

; 83   : 	return lpDest;

  000fa	8b c7		 mov	 eax, edi

; 84   : }

  000fc	8b 4d f4	 mov	 ecx, DWORD PTR __$EHRec$[ebp]
  000ff	64 89 0d 00 00
	00 00		 mov	 DWORD PTR fs:0, ecx
  00106	59		 pop	 ecx
  00107	5f		 pop	 edi
  00108	5e		 pop	 esi
  00109	5b		 pop	 ebx
  0010a	8b e5		 mov	 esp, ebp
  0010c	5d		 pop	 ebp
  0010d	c2 04 00	 ret	 4
$LN23@CopyData:
; File D:\git\src\IBK\IBK_DRFN\ProjSrc\SrcChartEx\ChartAddIn\ChartDesignPropertyAddIn\ChartDesignPropertyAddIn\SuperGridCtrl.h

; 100  : 				SetControlType(ctrlType, nCol);

  00110	8b 40 04	 mov	 eax, DWORD PTR [eax+4]

; 36   : 	void SetControlType(CONTROLTYPE enumCtrlType, int nCol=-1){ m_controlType.SetAt(nCol, enumCtrlType); }

  00113	8b 7d f0	 mov	 edi, DWORD PTR $T7[ebp]

; 100  : 				SetControlType(ctrlType, nCol);

  00116	89 45 08	 mov	 DWORD PTR _enumCtrlType$9[ebp], eax

; 36   : 	void SetControlType(CONTROLTYPE enumCtrlType, int nCol=-1){ m_controlType.SetAt(nCol, enumCtrlType); }

  00119	8d 45 08	 lea	 eax, DWORD PTR _enumCtrlType$9[ebp]
  0011c	50		 push	 eax
  0011d	56		 push	 esi
  0011e	8d 4f 0c	 lea	 ecx, DWORD PTR [edi+12]
  00121	e8 00 00 00 00	 call	 ?SetAt@?$CMap@HHW4CONTROLTYPE@CItemInfo@@AAW412@@@QAEXHAAW4CONTROLTYPE@CItemInfo@@@Z ; CMap<int,int,enum CItemInfo::CONTROLTYPE,enum CItemInfo::CONTROLTYPE &>::SetAt
; File C:\Program Files (x86)\Microsoft Visual Studio\2019\Community\VC\Tools\MSVC\14.29.30133\atlmfc\include\afxtempl.h

; 1555 : 	CAssoc* pAssoc = GetAssocAt(key, nHashBucket, nHashValue);

  00126	8d 45 ec	 lea	 eax, DWORD PTR _nHashValue$6[ebp]
  00129	50		 push	 eax
  0012a	8d 45 e8	 lea	 eax, DWORD PTR _nHashBucket$5[ebp]
  0012d	50		 push	 eax
  0012e	56		 push	 esi
; File D:\git\src\IBK\IBK_DRFN\ProjSrc\SrcChartEx\ChartAddIn\ChartDesignPropertyAddIn\ChartDesignPropertyAddIn\SuperGridCtrl.h

; 58   : 		return m_listdata.Lookup(iSubItem, pList);

  0012f	8d 4b 44	 lea	 ecx, DWORD PTR [ebx+68]
; File C:\Program Files (x86)\Microsoft Visual Studio\2019\Community\VC\Tools\MSVC\14.29.30133\atlmfc\include\afxtempl.h

; 1555 : 	CAssoc* pAssoc = GetAssocAt(key, nHashBucket, nHashValue);

  00132	e8 00 00 00 00	 call	 ?GetAssocAt@?$CMap@HHPAVCStringList@@PAV1@@@IBEPAVCAssoc@1@HAAI0@Z ; CMap<int,int,CStringList *,CStringList *>::GetAssocAt

; 1556 : 	if (pAssoc == NULL)

  00137	85 c0		 test	 eax, eax
  00139	74 8e		 je	 SHORT $LN13@CopyData

; 1557 : 		return FALSE;  // not in map
; 1558 : 
; 1559 : 	rValue = pAssoc->value;

  0013b	8b 40 04	 mov	 eax, DWORD PTR [eax+4]
  0013e	89 45 08	 mov	 DWORD PTR _list$1$[ebp], eax
; File D:\git\src\IBK\IBK_DRFN\ProjSrc\SrcChartEx\ChartAddIn\ChartDesignPropertyAddIn\ChartDesignPropertyAddIn\SuperGridCtrl.h

; 104  : 				if(list!=NULL)

  00141	85 c0		 test	 eax, eax
  00143	74 84		 je	 SHORT $LN13@CopyData
; File C:\Program Files (x86)\Microsoft Visual Studio\2019\Community\VC\Tools\MSVC\14.29.30133\atlmfc\include\afx.inl

; 116  : 	{ return ::operator new(nSize); }

  00145	6a 1c		 push	 28			; 0000001cH
  00147	e8 00 00 00 00	 call	 ??2@YAPAXI@Z		; operator new
  0014c	83 c4 04	 add	 esp, 4
; File D:\git\src\IBK\IBK_DRFN\ProjSrc\SrcChartEx\ChartAddIn\ChartDesignPropertyAddIn\ChartDesignPropertyAddIn\SuperGridCtrl.h

; 51   : 		list = new CStringList;//will be deleted in destructor

  0014f	89 45 e4	 mov	 DWORD PTR $T4[ebp], eax
  00152	c7 45 fc 01 00
	00 00		 mov	 DWORD PTR __$EHRec$[ebp+8], 1
  00159	85 c0		 test	 eax, eax
  0015b	74 0d		 je	 SHORT $LN56@CopyData
  0015d	6a 0a		 push	 10			; 0000000aH
  0015f	8b c8		 mov	 ecx, eax
  00161	e8 00 00 00 00	 call	 ??0CStringList@@QAE@H@Z	; CStringList::CStringList
  00166	8b f8		 mov	 edi, eax
  00168	eb 02		 jmp	 SHORT $LN57@CopyData
$LN56@CopyData:
  0016a	33 ff		 xor	 edi, edi
$LN57@CopyData:

; 52   : 		list->AddTail(strInitArr);

  0016c	ff 75 08	 push	 DWORD PTR _list$1$[ebp]
  0016f	8b cf		 mov	 ecx, edi
  00171	c7 45 fc ff ff
	ff ff		 mov	 DWORD PTR __$EHRec$[ebp+8], -1
  00178	e8 00 00 00 00	 call	 ?AddTail@CStringList@@QAEXPAV1@@Z ; CStringList::AddTail

; 53   : 		m_listdata.SetAt(iSubItem, list);

  0017d	57		 push	 edi
  0017e	8b 7d f0	 mov	 edi, DWORD PTR $T7[ebp]
  00181	56		 push	 esi
  00182	8d 4f 44	 lea	 ecx, DWORD PTR [edi+68]
  00185	e8 00 00 00 00	 call	 ?SetAt@?$CMap@HHPAVCStringList@@PAV1@@@QAEXHPAVCStringList@@@Z ; CMap<int,int,CStringList *,CStringList *>::SetAt
; File C:\Program Files (x86)\Microsoft Visual Studio\2019\Community\VC\Tools\MSVC\14.29.30133\atlmfc\include\afxtempl.h

; 1541 : 	for (pAssoc = m_pHashTable[nHashBucket]; pAssoc != NULL; pAssoc = pAssoc->pNext)

  0018a	e9 3a ff ff ff	 jmp	 $LN13@CopyData
_TEXT	ENDS
;	COMDAT text$x
text$x	SEGMENT
__unwindfunclet$?CopyData@CPacketSuperGrid@@UAEPAVCItemInfo@@PAV2@@Z$0:
  00000	8b 45 f0	 mov	 eax, DWORD PTR $T8[ebp]
  00003	50		 push	 eax
  00004	e8 00 00 00 00	 call	 ??3CObject@@SGXPAX@Z	; CObject::operator delete
  00009	c3		 ret	 0
__unwindfunclet$?CopyData@CPacketSuperGrid@@UAEPAVCItemInfo@@PAV2@@Z$1:
  0000a	8b 45 e4	 mov	 eax, DWORD PTR $T4[ebp]
  0000d	50		 push	 eax
  0000e	e8 00 00 00 00	 call	 ??3CObject@@SGXPAX@Z	; CObject::operator delete
  00013	c3		 ret	 0
  00014	cc		 int	 3
  00015	cc		 int	 3
  00016	cc		 int	 3
  00017	cc		 int	 3
  00018	cc		 int	 3
__ehhandler$?CopyData@CPacketSuperGrid@@UAEPAVCItemInfo@@PAV2@@Z:
  00019	90		 npad	 1
  0001a	90		 npad	 1
  0001b	8b 54 24 08	 mov	 edx, DWORD PTR [esp+8]
  0001f	8d 42 0c	 lea	 eax, DWORD PTR [edx+12]
  00022	8b 4a e0	 mov	 ecx, DWORD PTR [edx-32]
  00025	33 c8		 xor	 ecx, eax
  00027	e8 00 00 00 00	 call	 @__security_check_cookie@4
  0002c	b8 00 00 00 00	 mov	 eax, OFFSET __ehfuncinfo$?CopyData@CPacketSuperGrid@@UAEPAVCItemInfo@@PAV2@@Z
  00031	e9 00 00 00 00	 jmp	 ___CxxFrameHandler3
text$x	ENDS
?CopyData@CPacketSuperGrid@@UAEPAVCItemInfo@@PAV2@@Z ENDP ; CPacketSuperGrid::CopyData
; Function compile flags: /Ogtp
; File D:\git\src\IBK\IBK_DRFN\ProjSrc\SrcChartEx\ChartAddIn\ChartDesignPropertyAddIn\ChartDesignPropertyAddIn\PacketSuperGrid.cpp
;	COMDAT ?OnUpdateListViewItem@CPacketSuperGrid@@UAEXPAVCTreeItem@CSuperGridCtrl@@PAUtagLVITEMA@@@Z
_TEXT	SEGMENT
__$EHRec$ = -12						; size = 12
_lpItem$ = 8						; size = 4
_str$ = 12						; size = 4
_plvItem$ = 12						; size = 4
?OnUpdateListViewItem@CPacketSuperGrid@@UAEXPAVCTreeItem@CSuperGridCtrl@@PAUtagLVITEMA@@@Z PROC ; CPacketSuperGrid::OnUpdateListViewItem, COMDAT
; _this$ = ecx

; 119  : {

  00000	55		 push	 ebp
  00001	8b ec		 mov	 ebp, esp
  00003	6a ff		 push	 -1
  00005	68 00 00 00 00	 push	 __ehhandler$?OnUpdateListViewItem@CPacketSuperGrid@@UAEXPAVCTreeItem@CSuperGridCtrl@@PAUtagLVITEMA@@@Z
  0000a	64 a1 00 00 00
	00		 mov	 eax, DWORD PTR fs:0
  00010	50		 push	 eax
  00011	56		 push	 esi
  00012	57		 push	 edi
  00013	a1 00 00 00 00	 mov	 eax, DWORD PTR ___security_cookie
  00018	33 c5		 xor	 eax, ebp
  0001a	50		 push	 eax
  0001b	8d 45 f4	 lea	 eax, DWORD PTR __$EHRec$[ebp]
  0001e	64 a3 00 00 00
	00		 mov	 DWORD PTR fs:0, eax
  00024	8b f9		 mov	 edi, ecx

; 120  : 	//put some extra validation here 
; 121  : 	CString str = (CString)plvItem->pszText;

  00026	8b 75 0c	 mov	 esi, DWORD PTR _plvItem$[ebp]
  00029	8d 4d 0c	 lea	 ecx, DWORD PTR _str$[ebp]
  0002c	ff 76 14	 push	 DWORD PTR [esi+20]
  0002f	ff 15 00 00 00
	00		 call	 DWORD PTR __imp_??0?$CStringT@DV?$StrTraitMFC_DLL@DV?$ChTraitsCRT@D@ATL@@@@@ATL@@QAE@PBD@Z

; 122  : /*
; 123  : 	CItemInfo *lp = GetData(lpItem);
; 124  : 	if(plvItem->iSubItem == 3 && plvItem->iItem == 1 || plvItem->iItem == 2 ) {
; 125  : 		CString strLength;
; 126  : 		strLength.Format("%d", str.GetLength());
; 127  : 		lp->SetSubItemText(plvItem->iSubItem-2, strLength);
; 128  : 	    UpdateData(lpItem, lp);
; 129  : 	}*/
; 130  : /*
; 131  : 	if(!str.Compare(_T("Bugs: Impossible")))
; 132  : 	{
; 133  : 		str+=_T(" (selfconfidence allright)");//that's valid enough	:)
; 134  : 		CItemInfo *lp = GetData(lpItem);
; 135  : 		if(lp!=NULL)
; 136  : 		{
; 137  : 			if(plvItem->iSubItem==0)
; 138  : 				lp->SetItemText(str);
; 139  : 			else //subitem data 
; 140  : 				lp->SetSubItemText(plvItem->iSubItem-1, str);
; 141  : 		   UpdateData(lpItem, lp); //update internal nodes
; 142  : 		}
; 143  : 		SetItemText(plvItem->iItem, plvItem->iSubItem, str.GetBuffer(1));
; 144  : 	}
; 145  : 	else
; 146  : 		CSuperGridCtrl::OnUpdateListViewItem(lpItem, plvItem);
; 147  : */
; 148  : 		CSuperGridCtrl::OnUpdateListViewItem(lpItem, plvItem);

  00035	56		 push	 esi
  00036	ff 75 08	 push	 DWORD PTR _lpItem$[ebp]
  00039	8b cf		 mov	 ecx, edi
  0003b	c7 45 fc 00 00
	00 00		 mov	 DWORD PTR __$EHRec$[ebp+8], 0
  00042	e8 00 00 00 00	 call	 ?OnUpdateListViewItem@CSuperGridCtrl@@UAEXPAVCTreeItem@1@PAUtagLVITEMA@@@Z ; CSuperGridCtrl::OnUpdateListViewItem

; 149  : }

  00047	8d 4d 0c	 lea	 ecx, DWORD PTR _str$[ebp]
  0004a	ff 15 00 00 00
	00		 call	 DWORD PTR __imp_??1?$CStringT@DV?$StrTraitMFC_DLL@DV?$ChTraitsCRT@D@ATL@@@@@ATL@@QAE@XZ
  00050	8b 4d f4	 mov	 ecx, DWORD PTR __$EHRec$[ebp]
  00053	64 89 0d 00 00
	00 00		 mov	 DWORD PTR fs:0, ecx
  0005a	59		 pop	 ecx
  0005b	5f		 pop	 edi
  0005c	5e		 pop	 esi
  0005d	8b e5		 mov	 esp, ebp
  0005f	5d		 pop	 ebp
  00060	c2 08 00	 ret	 8
_TEXT	ENDS
;	COMDAT text$x
text$x	SEGMENT
__unwindfunclet$?OnUpdateListViewItem@CPacketSuperGrid@@UAEXPAVCTreeItem@CSuperGridCtrl@@PAUtagLVITEMA@@@Z$0:
  00000	8d 4d 0c	 lea	 ecx, DWORD PTR _str$[ebp]
  00003	ff 25 00 00 00
	00		 jmp	 DWORD PTR __imp_??1?$CStringT@DV?$StrTraitMFC_DLL@DV?$ChTraitsCRT@D@ATL@@@@@ATL@@QAE@XZ
  00009	cc		 int	 3
  0000a	cc		 int	 3
  0000b	cc		 int	 3
  0000c	cc		 int	 3
  0000d	cc		 int	 3
__ehhandler$?OnUpdateListViewItem@CPacketSuperGrid@@UAEXPAVCTreeItem@CSuperGridCtrl@@PAUtagLVITEMA@@@Z:
  0000e	90		 npad	 1
  0000f	90		 npad	 1
  00010	8b 54 24 08	 mov	 edx, DWORD PTR [esp+8]
  00014	8d 42 0c	 lea	 eax, DWORD PTR [edx+12]
  00017	8b 4a f4	 mov	 ecx, DWORD PTR [edx-12]
  0001a	33 c8		 xor	 ecx, eax
  0001c	e8 00 00 00 00	 call	 @__security_check_cookie@4
  00021	b8 00 00 00 00	 mov	 eax, OFFSET __ehfuncinfo$?OnUpdateListViewItem@CPacketSuperGrid@@UAEXPAVCTreeItem@CSuperGridCtrl@@PAUtagLVITEMA@@@Z
  00026	e9 00 00 00 00	 jmp	 ___CxxFrameHandler3
text$x	ENDS
?OnUpdateListViewItem@CPacketSuperGrid@@UAEXPAVCTreeItem@CSuperGridCtrl@@PAUtagLVITEMA@@@Z ENDP ; CPacketSuperGrid::OnUpdateListViewItem
; Function compile flags: /Ogtp
; File D:\git\src\IBK\IBK_DRFN\ProjSrc\SrcChartEx\ChartAddIn\ChartDesignPropertyAddIn\ChartDesignPropertyAddIn\PacketSuperGrid.cpp
; File C:\Program Files (x86)\Microsoft Visual Studio\2019\Community\VC\Tools\MSVC\14.29.30133\atlmfc\include\afxtempl.h
; File D:\git\src\IBK\IBK_DRFN\ProjSrc\SrcChartEx\ChartAddIn\ChartDesignPropertyAddIn\ChartDesignPropertyAddIn\PacketSuperGrid.cpp
; File C:\Program Files (x86)\Microsoft Visual Studio\2019\Community\VC\Tools\MSVC\14.29.30133\atlmfc\include\afxtempl.h
; File D:\git\src\IBK\IBK_DRFN\ProjSrc\SrcChartEx\ChartAddIn\ChartDesignPropertyAddIn\ChartDesignPropertyAddIn\SuperGridCtrl.h
; File C:\Program Files (x86)\Microsoft Visual Studio\2019\Community\VC\Tools\MSVC\14.29.30133\atlmfc\include\afxtempl.h
; File D:\git\src\IBK\IBK_DRFN\ProjSrc\SrcChartEx\ChartAddIn\ChartDesignPropertyAddIn\ChartDesignPropertyAddIn\PacketSuperGrid.cpp
; File C:\Program Files (x86)\Microsoft Visual Studio\2019\Community\VC\Tools\MSVC\14.29.30133\atlmfc\include\afxtempl.h
; File D:\git\src\IBK\IBK_DRFN\ProjSrc\SrcChartEx\ChartAddIn\ChartDesignPropertyAddIn\ChartDesignPropertyAddIn\PacketSuperGrid.cpp
; File C:\Program Files (x86)\Microsoft Visual Studio\2019\Community\VC\Tools\MSVC\14.29.30133\atlmfc\include\afxtempl.h
; File D:\git\src\IBK\IBK_DRFN\ProjSrc\SrcChartEx\ChartAddIn\ChartDesignPropertyAddIn\ChartDesignPropertyAddIn\PacketSuperGrid.cpp
; File C:\Program Files (x86)\Microsoft Visual Studio\2019\Community\VC\Tools\MSVC\14.29.30133\atlmfc\include\afxtempl.h
; File D:\git\src\IBK\IBK_DRFN\ProjSrc\SrcChartEx\ChartAddIn\ChartDesignPropertyAddIn\ChartDesignPropertyAddIn\SuperGridCtrl.h
; File D:\git\src\IBK\IBK_DRFN\ProjSrc\SrcChartEx\ChartAddIn\ChartDesignPropertyAddIn\ChartDesignPropertyAddIn\PacketSuperGrid.cpp
; File C:\Program Files (x86)\Microsoft Visual Studio\2019\Community\VC\Tools\MSVC\14.29.30133\atlmfc\include\afxtempl.h
; File D:\git\src\IBK\IBK_DRFN\ProjSrc\SrcChartEx\ChartAddIn\ChartDesignPropertyAddIn\ChartDesignPropertyAddIn\SuperGridCtrl.h
; File C:\Program Files (x86)\Microsoft Visual Studio\2019\Community\VC\Tools\MSVC\14.29.30133\atlmfc\include\afxtempl.h
; File D:\git\src\IBK\IBK_DRFN\ProjSrc\SrcChartEx\ChartAddIn\ChartDesignPropertyAddIn\ChartDesignPropertyAddIn\PacketSuperGrid.cpp
;	COMDAT ?OnControlLButtonDown@CPacketSuperGrid@@UAEXIVCPoint@@AAUtagLVHITTESTINFO@@@Z
_TEXT	SEGMENT
_nHashValue$1 = -8					; size = 4
_nHashBucket$2 = -8					; size = 4
_nHashBucket$3 = -4					; size = 4
_nHashValue$4 = -4					; size = 4
_nFlags$ = 8						; size = 4
_point$ = 12						; size = 8
_pInfo$1$ = 20						; size = 4
_ht$ = 20						; size = 4
?OnControlLButtonDown@CPacketSuperGrid@@UAEXIVCPoint@@AAUtagLVHITTESTINFO@@@Z PROC ; CPacketSuperGrid::OnControlLButtonDown, COMDAT
; _this$ = ecx

; 161  : {

  00000	55		 push	 ebp
  00001	8b ec		 mov	 ebp, esp
  00003	83 ec 08	 sub	 esp, 8
  00006	56		 push	 esi

; 162  : 	//now I am sure I added a combobox some where, so check for this control
; 163  : 	CTreeItem* pSelItem = GetTreeItem(ht.iItem);

  00007	8b 75 14	 mov	 esi, DWORD PTR _ht$[ebp]
  0000a	57		 push	 edi
  0000b	8b f9		 mov	 edi, ecx
  0000d	ff 76 0c	 push	 DWORD PTR [esi+12]
  00010	e8 00 00 00 00	 call	 ?GetTreeItem@CSuperGridCtrl@@QAEPAVCTreeItem@1@H@Z ; CSuperGridCtrl::GetTreeItem

; 164  : 	if(pSelItem!=NULL)

  00015	85 c0		 test	 eax, eax
  00017	74 5b		 je	 SHORT $LN4@OnControlL

; 166  : 		CItemInfo* pInfo = GetData(pSelItem);

  00019	50		 push	 eax
  0001a	8b cf		 mov	 ecx, edi
  0001c	e8 00 00 00 00	 call	 ?GetData@CSuperGridCtrl@@QAEPAVCItemInfo@@PBVCTreeItem@1@@Z ; CSuperGridCtrl::GetData

; 167  : 		CItemInfo::CONTROLTYPE ctrlType;
; 168  : 		if(pInfo->GetControlType(ht.iSubItem-1, ctrlType)) {	

  00021	8b 4e 10	 mov	 ecx, DWORD PTR [esi+16]
; File C:\Program Files (x86)\Microsoft Visual Studio\2019\Community\VC\Tools\MSVC\14.29.30133\atlmfc\include\afxtempl.h

; 1555 : 	CAssoc* pAssoc = GetAssocAt(key, nHashBucket, nHashValue);

  00024	8d 55 fc	 lea	 edx, DWORD PTR _nHashValue$4[ebp]
  00027	52		 push	 edx
  00028	8d 55 f8	 lea	 edx, DWORD PTR _nHashBucket$2[ebp]
; File D:\git\src\IBK\IBK_DRFN\ProjSrc\SrcChartEx\ChartAddIn\ChartDesignPropertyAddIn\ChartDesignPropertyAddIn\PacketSuperGrid.cpp

; 166  : 		CItemInfo* pInfo = GetData(pSelItem);

  0002b	89 45 14	 mov	 DWORD PTR _pInfo$1$[ebp], eax

; 167  : 		CItemInfo::CONTROLTYPE ctrlType;
; 168  : 		if(pInfo->GetControlType(ht.iSubItem-1, ctrlType)) {	

  0002e	49		 dec	 ecx
; File C:\Program Files (x86)\Microsoft Visual Studio\2019\Community\VC\Tools\MSVC\14.29.30133\atlmfc\include\afxtempl.h

; 1555 : 	CAssoc* pAssoc = GetAssocAt(key, nHashBucket, nHashValue);

  0002f	52		 push	 edx
  00030	51		 push	 ecx
; File D:\git\src\IBK\IBK_DRFN\ProjSrc\SrcChartEx\ChartAddIn\ChartDesignPropertyAddIn\ChartDesignPropertyAddIn\SuperGridCtrl.h

; 40   : 		if(!m_controlType.Lookup(nCol, controlType))

  00031	8d 48 0c	 lea	 ecx, DWORD PTR [eax+12]
; File C:\Program Files (x86)\Microsoft Visual Studio\2019\Community\VC\Tools\MSVC\14.29.30133\atlmfc\include\afxtempl.h

; 1555 : 	CAssoc* pAssoc = GetAssocAt(key, nHashBucket, nHashValue);

  00034	e8 00 00 00 00	 call	 ?GetAssocAt@?$CMap@HHW4CONTROLTYPE@CItemInfo@@AAW412@@@IBEPAVCAssoc@1@HAAI0@Z ; CMap<int,int,enum CItemInfo::CONTROLTYPE,enum CItemInfo::CONTROLTYPE &>::GetAssocAt

; 1556 : 	if (pAssoc == NULL)

  00039	85 c0		 test	 eax, eax
  0003b	74 37		 je	 SHORT $LN4@OnControlL
; File D:\git\src\IBK\IBK_DRFN\ProjSrc\SrcChartEx\ChartAddIn\ChartDesignPropertyAddIn\ChartDesignPropertyAddIn\PacketSuperGrid.cpp

; 169  : 			if(ctrlType==pInfo->CONTROLTYPE::combobox) {

  0003d	83 78 04 01	 cmp	 DWORD PTR [eax+4], 1
  00041	75 31		 jne	 SHORT $LN4@OnControlL

; 171  : 				pInfo->GetListData(ht.iSubItem-1, list);

  00043	8b 46 10	 mov	 eax, DWORD PTR [esi+16]
; File C:\Program Files (x86)\Microsoft Visual Studio\2019\Community\VC\Tools\MSVC\14.29.30133\atlmfc\include\afxtempl.h

; 1555 : 	CAssoc* pAssoc = GetAssocAt(key, nHashBucket, nHashValue);

  00046	8d 4d f8	 lea	 ecx, DWORD PTR _nHashValue$1[ebp]
; File D:\git\src\IBK\IBK_DRFN\ProjSrc\SrcChartEx\ChartAddIn\ChartDesignPropertyAddIn\ChartDesignPropertyAddIn\PacketSuperGrid.cpp

; 170  : 				CStringList* list=NULL;

  00049	53		 push	 ebx
; File C:\Program Files (x86)\Microsoft Visual Studio\2019\Community\VC\Tools\MSVC\14.29.30133\atlmfc\include\afxtempl.h

; 1555 : 	CAssoc* pAssoc = GetAssocAt(key, nHashBucket, nHashValue);

  0004a	51		 push	 ecx
  0004b	8d 4d fc	 lea	 ecx, DWORD PTR _nHashBucket$3[ebp]
; File D:\git\src\IBK\IBK_DRFN\ProjSrc\SrcChartEx\ChartAddIn\ChartDesignPropertyAddIn\ChartDesignPropertyAddIn\PacketSuperGrid.cpp

; 171  : 				pInfo->GetListData(ht.iSubItem-1, list);

  0004e	48		 dec	 eax
; File C:\Program Files (x86)\Microsoft Visual Studio\2019\Community\VC\Tools\MSVC\14.29.30133\atlmfc\include\afxtempl.h

; 1555 : 	CAssoc* pAssoc = GetAssocAt(key, nHashBucket, nHashValue);

  0004f	51		 push	 ecx
; File D:\git\src\IBK\IBK_DRFN\ProjSrc\SrcChartEx\ChartAddIn\ChartDesignPropertyAddIn\ChartDesignPropertyAddIn\SuperGridCtrl.h

; 58   : 		return m_listdata.Lookup(iSubItem, pList);

  00050	8b 4d 14	 mov	 ecx, DWORD PTR _pInfo$1$[ebp]
; File D:\git\src\IBK\IBK_DRFN\ProjSrc\SrcChartEx\ChartAddIn\ChartDesignPropertyAddIn\ChartDesignPropertyAddIn\PacketSuperGrid.cpp

; 170  : 				CStringList* list=NULL;

  00053	33 db		 xor	 ebx, ebx
; File C:\Program Files (x86)\Microsoft Visual Studio\2019\Community\VC\Tools\MSVC\14.29.30133\atlmfc\include\afxtempl.h

; 1555 : 	CAssoc* pAssoc = GetAssocAt(key, nHashBucket, nHashValue);

  00055	50		 push	 eax
; File D:\git\src\IBK\IBK_DRFN\ProjSrc\SrcChartEx\ChartAddIn\ChartDesignPropertyAddIn\ChartDesignPropertyAddIn\SuperGridCtrl.h

; 58   : 		return m_listdata.Lookup(iSubItem, pList);

  00056	83 c1 44	 add	 ecx, 68			; 00000044H
; File C:\Program Files (x86)\Microsoft Visual Studio\2019\Community\VC\Tools\MSVC\14.29.30133\atlmfc\include\afxtempl.h

; 1555 : 	CAssoc* pAssoc = GetAssocAt(key, nHashBucket, nHashValue);

  00059	e8 00 00 00 00	 call	 ?GetAssocAt@?$CMap@HHPAVCStringList@@PAV1@@@IBEPAVCAssoc@1@HAAI0@Z ; CMap<int,int,CStringList *,CStringList *>::GetAssocAt

; 1556 : 	if (pAssoc == NULL)

  0005e	85 c0		 test	 eax, eax
  00060	74 03		 je	 SHORT $LN14@OnControlL

; 1557 : 		return FALSE;  // not in map
; 1558 : 
; 1559 : 	rValue = pAssoc->value;

  00062	8b 58 04	 mov	 ebx, DWORD PTR [eax+4]
$LN14@OnControlL:
; File D:\git\src\IBK\IBK_DRFN\ProjSrc\SrcChartEx\ChartAddIn\ChartDesignPropertyAddIn\ChartDesignPropertyAddIn\PacketSuperGrid.cpp

; 172  : 				CComboBox * pList = ShowList(ht.iItem, ht.iSubItem, list);

  00065	53		 push	 ebx
  00066	ff 76 10	 push	 DWORD PTR [esi+16]
  00069	8b cf		 mov	 ecx, edi
  0006b	ff 76 0c	 push	 DWORD PTR [esi+12]
  0006e	e8 00 00 00 00	 call	 ?ShowList@CPacketSuperGrid@@IAEPAVCComboBox@@HHPAVCStringList@@@Z ; CPacketSuperGrid::ShowList
  00073	5b		 pop	 ebx
$LN4@OnControlL:

; 173  : 			}
; 174  : 		}								
; 175  : 		/*
; 176  : 		else //activate default edit control
; 177  : 			CSuperGridCtrl::OnControlLButtonDown(nFlags, point, ht);
; 178  : 		*/
; 179  : 	}
; 180  : }

  00074	5f		 pop	 edi
  00075	5e		 pop	 esi
  00076	8b e5		 mov	 esp, ebp
  00078	5d		 pop	 ebp
  00079	c2 10 00	 ret	 16			; 00000010H
?OnControlLButtonDown@CPacketSuperGrid@@UAEXIVCPoint@@AAUtagLVHITTESTINFO@@@Z ENDP ; CPacketSuperGrid::OnControlLButtonDown
_TEXT	ENDS
; Function compile flags: /Ogtp
; File D:\git\src\IBK\IBK_DRFN\ProjSrc\SrcChartEx\ChartAddIn\ChartDesignPropertyAddIn\ChartDesignPropertyAddIn\PacketSuperGrid.cpp
;	COMDAT ?CreateDragImageEx@CPacketSuperGrid@@UAEPAVCImageList@@H@Z
_TEXT	SEGMENT
_nItem$ = 8						; size = 4
?CreateDragImageEx@CPacketSuperGrid@@UAEPAVCImageList@@H@Z PROC ; CPacketSuperGrid::CreateDragImageEx, COMDAT
; _this$ = ecx

; 366  : 		if(m_bDrag)

  00000	83 b9 e8 00 00
	00 00		 cmp	 DWORD PTR [ecx+232], 0
  00007	74 0e		 je	 SHORT $LN2@CreateDrag

; 367  : 			return CSuperGridCtrl::CreateDragImageEx(GetDragItem());

  00009	ff b1 b4 00 00
	00		 push	 DWORD PTR [ecx+180]
  0000f	e8 00 00 00 00	 call	 ?CreateDragImageEx@CSuperGridCtrl@@UAEPAVCImageList@@H@Z ; CSuperGridCtrl::CreateDragImageEx

; 370  : }

  00014	c2 04 00	 ret	 4
$LN2@CreateDrag:

; 368  : 		else
; 369  : 			return NULL;

  00017	33 c0		 xor	 eax, eax

; 370  : }

  00019	c2 04 00	 ret	 4
?CreateDragImageEx@CPacketSuperGrid@@UAEPAVCImageList@@H@Z ENDP ; CPacketSuperGrid::CreateDragImageEx
_TEXT	ENDS
; Function compile flags: /Ogtp
; File D:\git\src\IBK\IBK_DRFN\ProjSrc\SrcChartEx\ChartAddIn\ChartDesignPropertyAddIn\ChartDesignPropertyAddIn\PacketSuperGrid.cpp
; File C:\Program Files (x86)\Microsoft Visual Studio\2019\Community\VC\Tools\MSVC\14.29.30133\atlmfc\include\afxcmn.inl
; File D:\git\src\IBK\IBK_DRFN\ProjSrc\SrcChartEx\ChartAddIn\ChartDesignPropertyAddIn\ChartDesignPropertyAddIn\PacketSuperGrid.cpp
; File C:\Program Files (x86)\Microsoft Visual Studio\2019\Community\VC\Tools\MSVC\14.29.30133\atlmfc\include\afxcmn.inl
; File D:\git\src\IBK\IBK_DRFN\ProjSrc\SrcChartEx\ChartAddIn\ChartDesignPropertyAddIn\ChartDesignPropertyAddIn\PacketSuperGrid.cpp
; File C:\Program Files (x86)\Microsoft Visual Studio\2019\Community\VC\Tools\MSVC\14.29.30133\atlmfc\include\afxcmn.inl
; File D:\git\src\IBK\IBK_DRFN\ProjSrc\SrcChartEx\ChartAddIn\ChartDesignPropertyAddIn\ChartDesignPropertyAddIn\PacketSuperGrid.cpp
; File C:\Program Files (x86)\Microsoft Visual Studio\2019\Community\VC\Tools\MSVC\14.29.30133\atlmfc\include\afxcmn.inl
; File D:\git\src\IBK\IBK_DRFN\ProjSrc\SrcChartEx\ChartAddIn\ChartDesignPropertyAddIn\ChartDesignPropertyAddIn\PacketSuperGrid.cpp
; File C:\Program Files (x86)\Microsoft Visual Studio\2019\Community\VC\Tools\MSVC\14.29.30133\atlmfc\include\afxwin2.inl
; File D:\git\src\IBK\IBK_DRFN\ProjSrc\SrcChartEx\ChartAddIn\ChartDesignPropertyAddIn\ChartDesignPropertyAddIn\PacketSuperGrid.cpp
; File C:\Program Files (x86)\Microsoft Visual Studio\2019\Community\VC\Tools\MSVC\14.29.30133\atlmfc\include\afx.inl
; File D:\git\src\IBK\IBK_DRFN\ProjSrc\SrcChartEx\ChartAddIn\ChartDesignPropertyAddIn\ChartDesignPropertyAddIn\PacketSuperGrid.cpp
; File C:\Program Files (x86)\Microsoft Visual Studio\2019\Community\VC\Tools\MSVC\14.29.30133\atlmfc\include\afx.inl
; File D:\git\src\IBK\IBK_DRFN\ProjSrc\SrcChartEx\ChartAddIn\ChartDesignPropertyAddIn\ChartDesignPropertyAddIn\PacketSuperGrid.cpp
; File D:\git\src\IBK\IBK_DRFN\ProjSrc\SrcChartEx\ChartAddIn\ChartDesignPropertyAddIn\ChartDesignPropertyAddIn\SuperGridCtrl.h
; File D:\git\src\IBK\IBK_DRFN\ProjSrc\SrcChartEx\ChartAddIn\ChartDesignPropertyAddIn\ChartDesignPropertyAddIn\PacketSuperGrid.cpp
; File D:\git\src\IBK\IBK_DRFN\ProjSrc\SrcChartEx\ChartAddIn\ChartDesignPropertyAddIn\ChartDesignPropertyAddIn\SuperGridCtrl.h
; File C:\Program Files (x86)\Microsoft Visual Studio\2019\Community\VC\Tools\MSVC\14.29.30133\atlmfc\include\afxcoll.inl
; File D:\git\src\IBK\IBK_DRFN\ProjSrc\SrcChartEx\ChartAddIn\ChartDesignPropertyAddIn\ChartDesignPropertyAddIn\PacketSuperGrid.cpp
; File C:\Program Files (x86)\Microsoft Visual Studio\2019\Community\VC\Tools\MSVC\14.29.30133\atlmfc\include\afxwin2.inl
; File D:\git\src\IBK\IBK_DRFN\ProjSrc\SrcChartEx\ChartAddIn\ChartDesignPropertyAddIn\ChartDesignPropertyAddIn\PacketSuperGrid.cpp
;	COMDAT ?HowToInsertItemsAfterTheGridHasBeenInitialized@CPacketSuperGrid@@QAEXHHABV?$CStringT@DV?$StrTraitMFC_DLL@DV?$ChTraitsCRT@D@ATL@@@@@ATL@@0000@Z
_TEXT	SEGMENT
_pSelItem$1$ = -20					; size = 4
_bUpdate$2$ = -16					; size = 4
__$EHRec$ = -12						; size = 12
$T2 = 8							; size = 4
$T3 = 8							; size = 4
_nIndex$ = 8						; size = 4
_nCheck$ = 12						; size = 4
_str$ = 16						; size = 4
_szField$ = 20						; size = 4
_szLength$ = 24						; size = 4
_szType$ = 28						; size = 4
_szReal$ = 32						; size = 4
?HowToInsertItemsAfterTheGridHasBeenInitialized@CPacketSuperGrid@@QAEXHHABV?$CStringT@DV?$StrTraitMFC_DLL@DV?$ChTraitsCRT@D@ATL@@@@@ATL@@0000@Z PROC ; CPacketSuperGrid::HowToInsertItemsAfterTheGridHasBeenInitialized, COMDAT
; _this$ = ecx

; 297  : {

  00000	55		 push	 ebp
  00001	8b ec		 mov	 ebp, esp
  00003	6a ff		 push	 -1
  00005	68 00 00 00 00	 push	 __ehhandler$?HowToInsertItemsAfterTheGridHasBeenInitialized@CPacketSuperGrid@@QAEXHHABV?$CStringT@DV?$StrTraitMFC_DLL@DV?$ChTraitsCRT@D@ATL@@@@@ATL@@0000@Z
  0000a	64 a1 00 00 00
	00		 mov	 eax, DWORD PTR fs:0
  00010	50		 push	 eax
  00011	83 ec 08	 sub	 esp, 8
  00014	53		 push	 ebx
  00015	56		 push	 esi
  00016	57		 push	 edi
  00017	a1 00 00 00 00	 mov	 eax, DWORD PTR ___security_cookie
  0001c	33 c5		 xor	 eax, ebp
  0001e	50		 push	 eax
  0001f	8d 45 f4	 lea	 eax, DWORD PTR __$EHRec$[ebp]
  00022	64 a3 00 00 00
	00		 mov	 DWORD PTR fs:0, eax
  00028	8b f9		 mov	 edi, ecx
; File C:\Program Files (x86)\Microsoft Visual Studio\2019\Community\VC\Tools\MSVC\14.29.30133\atlmfc\include\afxcmn.inl

; 155  : 	{ ASSERT(::IsWindow(m_hWnd)); return (int) ::SendMessage(m_hWnd, LVM_GETITEMCOUNT, 0, 0L); }

  0002a	8b 1d 00 00 00
	00		 mov	 ebx, DWORD PTR __imp__SendMessageA@16
; File D:\git\src\IBK\IBK_DRFN\ProjSrc\SrcChartEx\ChartAddIn\ChartDesignPropertyAddIn\ChartDesignPropertyAddIn\PacketSuperGrid.cpp

; 299  : 	for(int i = 0; i < GetItemCount() ; i++) {

  00030	33 f6		 xor	 esi, esi
; File C:\Program Files (x86)\Microsoft Visual Studio\2019\Community\VC\Tools\MSVC\14.29.30133\atlmfc\include\afxcmn.inl

; 155  : 	{ ASSERT(::IsWindow(m_hWnd)); return (int) ::SendMessage(m_hWnd, LVM_GETITEMCOUNT, 0, 0L); }

  00032	56		 push	 esi
  00033	56		 push	 esi
  00034	68 04 10 00 00	 push	 4100			; 00001004H
  00039	ff 77 20	 push	 DWORD PTR [edi+32]
  0003c	ff d3		 call	 ebx
; File D:\git\src\IBK\IBK_DRFN\ProjSrc\SrcChartEx\ChartAddIn\ChartDesignPropertyAddIn\ChartDesignPropertyAddIn\PacketSuperGrid.cpp

; 299  : 	for(int i = 0; i < GetItemCount() ; i++) {

  0003e	85 c0		 test	 eax, eax
  00040	7e 39		 jle	 SHORT $LN3@HowToInser
$LL4@HowToInser:

; 300  : 		CTreeItem *pItem = GetTreeItem(i);

  00042	56		 push	 esi
  00043	8b cf		 mov	 ecx, edi
  00045	e8 00 00 00 00	 call	 ?GetTreeItem@CSuperGridCtrl@@QAEPAVCTreeItem@1@H@Z ; CSuperGridCtrl::GetTreeItem

; 301  : 		if((GetData(pItem)->GetItemText()).CompareNoCase(str) == 0)

  0004a	8b 4d 10	 mov	 ecx, DWORD PTR _str$[ebp]
  0004d	ff 31		 push	 DWORD PTR [ecx]
  0004f	8b cf		 mov	 ecx, edi
  00051	50		 push	 eax
  00052	e8 00 00 00 00	 call	 ?GetData@CSuperGridCtrl@@QAEPAVCItemInfo@@PBVCTreeItem@1@@Z ; CSuperGridCtrl::GetData
  00057	8d 48 60	 lea	 ecx, DWORD PTR [eax+96]
  0005a	ff 15 00 00 00
	00		 call	 DWORD PTR __imp_?CompareNoCase@?$CStringT@DV?$StrTraitMFC_DLL@DV?$ChTraitsCRT@D@ATL@@@@@ATL@@QBEHPBD@Z
  00060	85 c0		 test	 eax, eax
  00062	0f 84 62 01 00
	00		 je	 $LN6@HowToInser
; File C:\Program Files (x86)\Microsoft Visual Studio\2019\Community\VC\Tools\MSVC\14.29.30133\atlmfc\include\afxcmn.inl

; 155  : 	{ ASSERT(::IsWindow(m_hWnd)); return (int) ::SendMessage(m_hWnd, LVM_GETITEMCOUNT, 0, 0L); }

  00068	6a 00		 push	 0
  0006a	6a 00		 push	 0
  0006c	68 04 10 00 00	 push	 4100			; 00001004H
  00071	ff 77 20	 push	 DWORD PTR [edi+32]
; File D:\git\src\IBK\IBK_DRFN\ProjSrc\SrcChartEx\ChartAddIn\ChartDesignPropertyAddIn\ChartDesignPropertyAddIn\PacketSuperGrid.cpp

; 299  : 	for(int i = 0; i < GetItemCount() ; i++) {

  00074	46		 inc	 esi
; File C:\Program Files (x86)\Microsoft Visual Studio\2019\Community\VC\Tools\MSVC\14.29.30133\atlmfc\include\afxcmn.inl

; 155  : 	{ ASSERT(::IsWindow(m_hWnd)); return (int) ::SendMessage(m_hWnd, LVM_GETITEMCOUNT, 0, 0L); }

  00075	ff d3		 call	 ebx
; File D:\git\src\IBK\IBK_DRFN\ProjSrc\SrcChartEx\ChartAddIn\ChartDesignPropertyAddIn\ChartDesignPropertyAddIn\PacketSuperGrid.cpp

; 299  : 	for(int i = 0; i < GetItemCount() ; i++) {

  00077	3b f0		 cmp	 esi, eax
  00079	7c c7		 jl	 SHORT $LL4@HowToInser
$LN3@HowToInser:

; 302  : 			return;
; 303  : 	}
; 304  : 
; 305  : 	CTreeItem *pSelItem = GetTreeItem(nIndex);

  0007b	ff 75 08	 push	 DWORD PTR _nIndex$[ebp]
  0007e	8b cf		 mov	 ecx, edi
  00080	e8 00 00 00 00	 call	 ?GetTreeItem@CSuperGridCtrl@@QAEPAVCTreeItem@1@H@Z ; CSuperGridCtrl::GetTreeItem
  00085	8b f0		 mov	 esi, eax
  00087	89 75 ec	 mov	 DWORD PTR _pSelItem$1$[ebp], esi

; 306  : 	if(pSelItem != NULL) {

  0008a	85 f6		 test	 esi, esi
  0008c	0f 84 38 01 00
	00		 je	 $LN6@HowToInser
; File C:\Program Files (x86)\Microsoft Visual Studio\2019\Community\VC\Tools\MSVC\14.29.30133\atlmfc\include\afxwin2.inl

; 108  : 	{ ASSERT(::IsWindow(m_hWnd)); ::SendMessage(m_hWnd, WM_SETREDRAW, bRedraw, 0); }

  00092	6a 00		 push	 0
  00094	6a 00		 push	 0
  00096	6a 0b		 push	 11			; 0000000bH
  00098	ff 77 20	 push	 DWORD PTR [edi+32]
  0009b	ff d3		 call	 ebx
; File D:\git\src\IBK\IBK_DRFN\ProjSrc\SrcChartEx\ChartAddIn\ChartDesignPropertyAddIn\ChartDesignPropertyAddIn\PacketSuperGrid.cpp

; 309  : 		if(!IsCollapsed(pSelItem))

  0009d	56		 push	 esi
  0009e	8b cf		 mov	 ecx, edi
  000a0	e8 00 00 00 00	 call	 ?IsCollapsed@CSuperGridCtrl@@QBEHPBVCTreeItem@1@@Z ; CSuperGridCtrl::IsCollapsed
  000a5	85 c0		 test	 eax, eax
  000a7	b9 01 00 00 00	 mov	 ecx, 1
  000ac	b8 00 00 00 00	 mov	 eax, 0
  000b1	0f 44 c1	 cmove	 eax, ecx
; File C:\Program Files (x86)\Microsoft Visual Studio\2019\Community\VC\Tools\MSVC\14.29.30133\atlmfc\include\afx.inl

; 116  : 	{ return ::operator new(nSize); }

  000b4	68 84 00 00 00	 push	 132			; 00000084H
; File D:\git\src\IBK\IBK_DRFN\ProjSrc\SrcChartEx\ChartAddIn\ChartDesignPropertyAddIn\ChartDesignPropertyAddIn\PacketSuperGrid.cpp

; 309  : 		if(!IsCollapsed(pSelItem))

  000b9	89 45 f0	 mov	 DWORD PTR _bUpdate$2$[ebp], eax
; File C:\Program Files (x86)\Microsoft Visual Studio\2019\Community\VC\Tools\MSVC\14.29.30133\atlmfc\include\afx.inl

; 116  : 	{ return ::operator new(nSize); }

  000bc	e8 00 00 00 00	 call	 ??2@YAPAXI@Z		; operator new
  000c1	83 c4 04	 add	 esp, 4
; File D:\git\src\IBK\IBK_DRFN\ProjSrc\SrcChartEx\ChartAddIn\ChartDesignPropertyAddIn\ChartDesignPropertyAddIn\PacketSuperGrid.cpp

; 312  : 		CItemInfo* lpRelative = new CItemInfo();

  000c4	89 45 08	 mov	 DWORD PTR $T3[ebp], eax
  000c7	c7 45 fc 00 00
	00 00		 mov	 DWORD PTR __$EHRec$[ebp+8], 0
  000ce	85 c0		 test	 eax, eax
  000d0	74 0e		 je	 SHORT $LN9@HowToInser
  000d2	8b c8		 mov	 ecx, eax
  000d4	e8 00 00 00 00	 call	 ??0CItemInfo@@QAE@XZ	; CItemInfo::CItemInfo
  000d9	8b f0		 mov	 esi, eax
  000db	89 45 08	 mov	 DWORD PTR $T2[ebp], eax
  000de	eb 05		 jmp	 SHORT $LN10@HowToInser
$LN9@HowToInser:
  000e0	33 f6		 xor	 esi, esi
  000e2	89 75 08	 mov	 DWORD PTR $T2[ebp], esi
$LN10@HowToInser:

; 313  : 
; 314  : 		lpRelative->SetCheck(nCheck);

  000e5	8b 45 0c	 mov	 eax, DWORD PTR _nCheck$[ebp]
; File D:\git\src\IBK\IBK_DRFN\ProjSrc\SrcChartEx\ChartAddIn\ChartDesignPropertyAddIn\ChartDesignPropertyAddIn\SuperGridCtrl.h

; 15   : 	void SetItemText(const CString& strItem){ m_strItemName = strItem; }

  000e8	8d 4e 60	 lea	 ecx, DWORD PTR [esi+96]
  000eb	ff 75 10	 push	 DWORD PTR _str$[ebp]
; File D:\git\src\IBK\IBK_DRFN\ProjSrc\SrcChartEx\ChartAddIn\ChartDesignPropertyAddIn\ChartDesignPropertyAddIn\PacketSuperGrid.cpp

; 312  : 		CItemInfo* lpRelative = new CItemInfo();

  000ee	c7 45 fc ff ff
	ff ff		 mov	 DWORD PTR __$EHRec$[ebp+8], -1

; 313  : 
; 314  : 		lpRelative->SetCheck(nCheck);

  000f5	89 46 78	 mov	 DWORD PTR [esi+120], eax
; File D:\git\src\IBK\IBK_DRFN\ProjSrc\SrcChartEx\ChartAddIn\ChartDesignPropertyAddIn\ChartDesignPropertyAddIn\SuperGridCtrl.h

; 15   : 	void SetItemText(const CString& strItem){ m_strItemName = strItem; }

  000f8	ff 15 00 00 00
	00		 call	 DWORD PTR __imp_??4?$CStringT@DV?$StrTraitMFC_DLL@DV?$ChTraitsCRT@D@ATL@@@@@ATL@@QAEAAV01@ABV01@@Z
; File C:\Program Files (x86)\Microsoft Visual Studio\2019\Community\VC\Tools\MSVC\14.29.30133\atlmfc\include\afxcoll.inl

; 321  : 		SetAtGrow(nIndex, newElement);

  000fe	ff 75 14	 push	 DWORD PTR _szField$[ebp]
  00101	8d 4e 64	 lea	 ecx, DWORD PTR [esi+100]
  00104	ff 76 6c	 push	 DWORD PTR [esi+108]
  00107	e8 00 00 00 00	 call	 ?SetAtGrow@CStringArray@@QAEXHABV?$CStringT@DV?$StrTraitMFC_DLL@DV?$ChTraitsCRT@D@ATL@@@@@ATL@@@Z ; CStringArray::SetAtGrow
  0010c	ff 75 18	 push	 DWORD PTR _szLength$[ebp]
  0010f	8d 4e 64	 lea	 ecx, DWORD PTR [esi+100]
  00112	ff 76 6c	 push	 DWORD PTR [esi+108]
  00115	e8 00 00 00 00	 call	 ?SetAtGrow@CStringArray@@QAEXHABV?$CStringT@DV?$StrTraitMFC_DLL@DV?$ChTraitsCRT@D@ATL@@@@@ATL@@@Z ; CStringArray::SetAtGrow
; File D:\git\src\IBK\IBK_DRFN\ProjSrc\SrcChartEx\ChartAddIn\ChartDesignPropertyAddIn\ChartDesignPropertyAddIn\PacketSuperGrid.cpp

; 642  : 	for(int i=0; i < NUM_PACKETNAMEITEM; i++)

  0011a	33 f6		 xor	 esi, esi
  0011c	39 35 00 00 00
	00		 cmp	 DWORD PTR ?NUM_PACKETNAMEITEM@@3HB, esi ; NUM_PACKETNAMEITEM
  00122	7e 46		 jle	 SHORT $LN32@HowToInser
  00124	0f 1f 40 00 0f
	1f 84 00 00 00
	00 00		 npad	 12
$LL33@HowToInser:

; 643  : 	{
; 644  : 		if(szPacketName.CompareNoCase( _LTEXTN( PACKET_NAME, ePacketNameItem[i])) == 0){

  00130	8b 0c b5 00 00
	00 00		 mov	 ecx, DWORD PTR ?ePacketNameItem@@3PAW4E_METACODE@IMetaTable@@A[esi*4]
  00137	a1 54 00 00 00	 mov	 eax, DWORD PTR ?g_iMetaTable@@3VIMetaTable@@A+84
  0013c	6a 00		 push	 0
  0013e	ff 34 88	 push	 DWORD PTR [eax+ecx*4]
  00141	b9 00 00 00 00	 mov	 ecx, OFFSET ?g_iMetaTable@@3VIMetaTable@@A ; g_iMetaTable
  00146	6a 00		 push	 0
  00148	ff b7 f4 00 00
	00		 push	 DWORD PTR [edi+244]
  0014e	e8 00 00 00 00	 call	 ?GetLanguageText@IMetaTable@@QAEPBDPAUHWND__@@W4E_CODEPAGE@1@PBDH@Z ; IMetaTable::GetLanguageText
  00153	8b 4d 10	 mov	 ecx, DWORD PTR _str$[ebp]
  00156	50		 push	 eax
  00157	ff 15 00 00 00
	00		 call	 DWORD PTR __imp_?CompareNoCase@?$CStringT@DV?$StrTraitMFC_DLL@DV?$ChTraitsCRT@D@ATL@@@@@ATL@@QBEHPBD@Z
  0015d	85 c0		 test	 eax, eax
  0015f	74 0c		 je	 SHORT $LN30@HowToInser

; 642  : 	for(int i=0; i < NUM_PACKETNAMEITEM; i++)

  00161	46		 inc	 esi
  00162	3b 35 00 00 00
	00		 cmp	 esi, DWORD PTR ?NUM_PACKETNAMEITEM@@3HB ; NUM_PACKETNAMEITEM
  00168	7c c6		 jl	 SHORT $LL33@HowToInser
$LN32@HowToInser:

; 645  : 			return i;		
; 646  : 		}
; 647  : 	}
; 648  : 	return -1;

  0016a	83 ce ff	 or	 esi, -1
$LN30@HowToInser:

; 315  : 		lpRelative->SetItemText(str);
; 316  : 		lpRelative->AddSubItemText(szField);
; 317  : 		lpRelative->AddSubItemText(szLength);
; 318  : 		int index = GetItemIndex(str);
; 319  : 		SetThirdSubItem(index, szType, str, lpRelative);

  0016d	ff 75 08	 push	 DWORD PTR $T2[ebp]
  00170	8b cf		 mov	 ecx, edi
  00172	ff 75 10	 push	 DWORD PTR _str$[ebp]
  00175	ff 75 1c	 push	 DWORD PTR _szType$[ebp]
  00178	56		 push	 esi
  00179	e8 00 00 00 00	 call	 ?SetThirdSubItem@CPacketSuperGrid@@AAEXHABV?$CStringT@DV?$StrTraitMFC_DLL@DV?$ChTraitsCRT@D@ATL@@@@@ATL@@0PAVCItemInfo@@@Z ; CPacketSuperGrid::SetThirdSubItem

; 320  : 		SetFourSubItem(szReal, lpRelative);

  0017e	8b 75 08	 mov	 esi, DWORD PTR $T2[ebp]
  00181	8b cf		 mov	 ecx, edi
  00183	56		 push	 esi
  00184	ff 75 20	 push	 DWORD PTR _szReal$[ebp]
  00187	e8 00 00 00 00	 call	 ?SetFourSubItem@CPacketSuperGrid@@AAEXABV?$CStringT@DV?$StrTraitMFC_DLL@DV?$ChTraitsCRT@D@ATL@@@@@ATL@@PAVCItemInfo@@@Z ; CPacketSuperGrid::SetFourSubItem

; 321  : 
; 322  : 		CTreeItem* pParent = InsertItem(pSelItem, lpRelative, bUpdate);

  0018c	ff 75 f0	 push	 DWORD PTR _bUpdate$2$[ebp]
  0018f	8b cf		 mov	 ecx, edi
  00191	56		 push	 esi
  00192	ff 75 ec	 push	 DWORD PTR _pSelItem$1$[ebp]
  00195	e8 00 00 00 00	 call	 ?InsertItem@CSuperGridCtrl@@QAEPAVCTreeItem@1@PAV21@PAVCItemInfo@@H@Z ; CSuperGridCtrl::InsertItem

; 323  : 		InsertItemToListCtrl(pSelItem, pParent, lpRelative, bUpdate);

  0019a	ff 75 f0	 push	 DWORD PTR _bUpdate$2$[ebp]
  0019d	8b cf		 mov	 ecx, edi
  0019f	56		 push	 esi
  001a0	50		 push	 eax
  001a1	ff 75 ec	 push	 DWORD PTR _pSelItem$1$[ebp]
  001a4	e8 00 00 00 00	 call	 ?InsertItemToListCtrl@CSuperGridCtrl@@QAEXPAVCTreeItem@1@0PAVCItemInfo@@H@Z ; CSuperGridCtrl::InsertItemToListCtrl
; File C:\Program Files (x86)\Microsoft Visual Studio\2019\Community\VC\Tools\MSVC\14.29.30133\atlmfc\include\afxwin2.inl

; 108  : 	{ ASSERT(::IsWindow(m_hWnd)); ::SendMessage(m_hWnd, WM_SETREDRAW, bRedraw, 0); }

  001a9	6a 00		 push	 0
  001ab	6a 01		 push	 1
  001ad	6a 0b		 push	 11			; 0000000bH
  001af	ff 77 20	 push	 DWORD PTR [edi+32]
  001b2	ff d3		 call	 ebx

; 116  : 	{ ASSERT(::IsWindow(m_hWnd)); ::InvalidateRect(m_hWnd, lpRect, bErase); }

  001b4	6a 01		 push	 1
  001b6	6a 00		 push	 0
  001b8	ff 77 20	 push	 DWORD PTR [edi+32]
  001bb	ff 15 00 00 00
	00		 call	 DWORD PTR __imp__InvalidateRect@12

; 106  : 	{ ASSERT(::IsWindow(m_hWnd)); ::UpdateWindow(m_hWnd); }

  001c1	ff 77 20	 push	 DWORD PTR [edi+32]
  001c4	ff 15 00 00 00
	00		 call	 DWORD PTR __imp__UpdateWindow@4
$LN6@HowToInser:
; File D:\git\src\IBK\IBK_DRFN\ProjSrc\SrcChartEx\ChartAddIn\ChartDesignPropertyAddIn\ChartDesignPropertyAddIn\PacketSuperGrid.cpp

; 330  : }

  001ca	8b 4d f4	 mov	 ecx, DWORD PTR __$EHRec$[ebp]
  001cd	64 89 0d 00 00
	00 00		 mov	 DWORD PTR fs:0, ecx
  001d4	59		 pop	 ecx
  001d5	5f		 pop	 edi
  001d6	5e		 pop	 esi
  001d7	5b		 pop	 ebx
  001d8	8b e5		 mov	 esp, ebp
  001da	5d		 pop	 ebp
  001db	c2 1c 00	 ret	 28			; 0000001cH
_TEXT	ENDS
;	COMDAT text$x
text$x	SEGMENT
__unwindfunclet$?HowToInsertItemsAfterTheGridHasBeenInitialized@CPacketSuperGrid@@QAEXHHABV?$CStringT@DV?$StrTraitMFC_DLL@DV?$ChTraitsCRT@D@ATL@@@@@ATL@@0000@Z$0:
  00000	8b 45 08	 mov	 eax, DWORD PTR $T3[ebp]
  00003	50		 push	 eax
  00004	e8 00 00 00 00	 call	 ??3CObject@@SGXPAX@Z	; CObject::operator delete
  00009	c3		 ret	 0
  0000a	cc		 int	 3
  0000b	cc		 int	 3
  0000c	cc		 int	 3
  0000d	cc		 int	 3
  0000e	cc		 int	 3
__ehhandler$?HowToInsertItemsAfterTheGridHasBeenInitialized@CPacketSuperGrid@@QAEXHHABV?$CStringT@DV?$StrTraitMFC_DLL@DV?$ChTraitsCRT@D@ATL@@@@@ATL@@0000@Z:
  0000f	90		 npad	 1
  00010	90		 npad	 1
  00011	8b 54 24 08	 mov	 edx, DWORD PTR [esp+8]
  00015	8d 42 0c	 lea	 eax, DWORD PTR [edx+12]
  00018	8b 4a e8	 mov	 ecx, DWORD PTR [edx-24]
  0001b	33 c8		 xor	 ecx, eax
  0001d	e8 00 00 00 00	 call	 @__security_check_cookie@4
  00022	b8 00 00 00 00	 mov	 eax, OFFSET __ehfuncinfo$?HowToInsertItemsAfterTheGridHasBeenInitialized@CPacketSuperGrid@@QAEXHHABV?$CStringT@DV?$StrTraitMFC_DLL@DV?$ChTraitsCRT@D@ATL@@@@@ATL@@0000@Z
  00027	e9 00 00 00 00	 jmp	 ___CxxFrameHandler3
text$x	ENDS
?HowToInsertItemsAfterTheGridHasBeenInitialized@CPacketSuperGrid@@QAEXHHABV?$CStringT@DV?$StrTraitMFC_DLL@DV?$ChTraitsCRT@D@ATL@@@@@ATL@@0000@Z ENDP ; CPacketSuperGrid::HowToInsertItemsAfterTheGridHasBeenInitialized
; Function compile flags: /Ogtp
; File D:\git\src\IBK\IBK_DRFN\ProjSrc\SrcChartEx\ChartAddIn\ChartDesignPropertyAddIn\ChartDesignPropertyAddIn\PacketSuperGrid.cpp
; File C:\Program Files (x86)\Microsoft Visual Studio\2019\Community\VC\Tools\MSVC\14.29.30133\atlmfc\include\afxcmn2.inl
; File D:\git\src\IBK\IBK_DRFN\ProjSrc\SrcChartEx\ChartAddIn\ChartDesignPropertyAddIn\ChartDesignPropertyAddIn\PacketSuperGrid.cpp
; File C:\Program Files (x86)\Microsoft Visual Studio\2019\Community\VC\Tools\MSVC\14.29.30133\atlmfc\include\afxwin1.inl
; File D:\git\src\IBK\IBK_DRFN\ProjSrc\SrcChartEx\ChartAddIn\ChartDesignPropertyAddIn\Include_Chart\Dll_Load\IMetaTable.h
; File C:\Program Files (x86)\Microsoft Visual Studio\2019\Community\VC\Tools\MSVC\14.29.30133\atlmfc\include\afxwin1.inl
; File D:\git\src\IBK\IBK_DRFN\ProjSrc\SrcChartEx\ChartAddIn\ChartDesignPropertyAddIn\ChartDesignPropertyAddIn\PacketSuperGrid.cpp
; File C:\Program Files (x86)\Microsoft Visual Studio\2019\Community\VC\Tools\MSVC\14.29.30133\atlmfc\include\afxcmn.inl
; File D:\git\src\IBK\IBK_DRFN\ProjSrc\SrcChartEx\ChartAddIn\ChartDesignPropertyAddIn\ChartDesignPropertyAddIn\PacketSuperGrid.cpp
; File D:\git\src\IBK\IBK_DRFN\ProjSrc\SrcChartEx\ChartAddIn\ChartDesignPropertyAddIn\Include_Chart\Dll_Load\IMetaTable.h
; File C:\Program Files (x86)\Microsoft Visual Studio\2019\Community\VC\Tools\MSVC\14.29.30133\atlmfc\include\afxwin1.inl
; File D:\git\src\IBK\IBK_DRFN\ProjSrc\SrcChartEx\ChartAddIn\ChartDesignPropertyAddIn\ChartDesignPropertyAddIn\PacketSuperGrid.cpp
; File D:\git\src\IBK\IBK_DRFN\ProjSrc\SrcChartEx\ChartAddIn\ChartDesignPropertyAddIn\Include_Chart\Dll_Load\IMetaTable.h
; File C:\Program Files (x86)\Microsoft Visual Studio\2019\Community\VC\Tools\MSVC\14.29.30133\atlmfc\include\afxwin1.inl
; File D:\git\src\IBK\IBK_DRFN\ProjSrc\SrcChartEx\ChartAddIn\ChartDesignPropertyAddIn\ChartDesignPropertyAddIn\PacketSuperGrid.cpp
; File C:\Program Files (x86)\Microsoft Visual Studio\2019\Community\VC\Tools\MSVC\14.29.30133\atlmfc\include\afx.inl
; File D:\git\src\IBK\IBK_DRFN\ProjSrc\SrcChartEx\ChartAddIn\ChartDesignPropertyAddIn\ChartDesignPropertyAddIn\PacketSuperGrid.cpp
; File C:\Program Files (x86)\Microsoft Visual Studio\2019\Community\VC\Tools\MSVC\14.29.30133\atlmfc\include\afx.inl
; File D:\git\src\IBK\IBK_DRFN\ProjSrc\SrcChartEx\ChartAddIn\ChartDesignPropertyAddIn\ChartDesignPropertyAddIn\PacketSuperGrid.cpp
;	COMDAT ?InitializeGrid@CPacketSuperGrid@@QAEXXZ
_TEXT	SEGMENT
_lvColumn$2 = -112					; size = 44
$T3 = -68						; size = 4
$T4 = -68						; size = 4
___mlrs__$5 = -68					; size = 4
$T6 = -64						; size = 4
$T7 = -60						; size = 4
_strCols$8 = -60					; size = 4
_Size$9 = -56						; size = 20
_uCols$10 = -36						; size = 20
__$ArrayPad$ = -16					; size = 4
__$EHRec$ = -12						; size = 12
?InitializeGrid@CPacketSuperGrid@@QAEXXZ PROC		; CPacketSuperGrid::InitializeGrid, COMDAT
; _this$ = ecx

; 69   : {

  00000	55		 push	 ebp
  00001	8b ec		 mov	 ebp, esp
  00003	6a ff		 push	 -1
  00005	68 00 00 00 00	 push	 __ehhandler$?InitializeGrid@CPacketSuperGrid@@QAEXXZ
  0000a	64 a1 00 00 00
	00		 mov	 eax, DWORD PTR fs:0
  00010	50		 push	 eax
  00011	83 ec 64	 sub	 esp, 100		; 00000064H
  00014	a1 00 00 00 00	 mov	 eax, DWORD PTR ___security_cookie
  00019	33 c5		 xor	 eax, ebp
  0001b	89 45 f0	 mov	 DWORD PTR __$ArrayPad$[ebp], eax
  0001e	53		 push	 ebx
  0001f	56		 push	 esi
  00020	57		 push	 edi
  00021	50		 push	 eax
  00022	8d 45 f4	 lea	 eax, DWORD PTR __$EHRec$[ebp]
  00025	64 a3 00 00 00
	00		 mov	 DWORD PTR fs:0, eax
  0002b	8b d9		 mov	 ebx, ecx
; File C:\Program Files (x86)\Microsoft Visual Studio\2019\Community\VC\Tools\MSVC\14.29.30133\atlmfc\include\afxcmn2.inl

; 117  : 	{ ASSERT(::IsWindow(m_hWnd)); return (DWORD) ::SendMessage(m_hWnd, LVM_SETEXTENDEDLISTVIEWSTYLE, 0, (LPARAM) dwNewStyle); }

  0002d	6a 05		 push	 5
  0002f	6a 00		 push	 0
  00031	68 36 10 00 00	 push	 4150			; 00001036H
  00036	ff 73 20	 push	 DWORD PTR [ebx+32]
  00039	ff 15 00 00 00
	00		 call	 DWORD PTR __imp__SendMessageA@16
; File D:\git\src\IBK\IBK_DRFN\ProjSrc\SrcChartEx\ChartAddIn\ChartDesignPropertyAddIn\ChartDesignPropertyAddIn\PacketSuperGrid.cpp

; 674  : 	int Size[] = { 150, 90, 50, 100, 60 };

  0003f	0f 28 05 00 00
	00 00		 movaps	 xmm0, XMMWORD PTR __xmm@00000064000000320000005a00000096
  00046	c7 45 dc 61 04
	00 00		 mov	 DWORD PTR _uCols$10[ebp], 1121 ; 00000461H
  0004d	c7 45 e0 62 04
	00 00		 mov	 DWORD PTR _uCols$10[ebp+4], 1122 ; 00000462H
  00054	c7 45 e4 63 04
	00 00		 mov	 DWORD PTR _uCols$10[ebp+8], 1123 ; 00000463H
  0005b	c7 45 e8 64 04
	00 00		 mov	 DWORD PTR _uCols$10[ebp+12], 1124 ; 00000464H
  00062	c7 45 ec 65 04
	00 00		 mov	 DWORD PTR _uCols$10[ebp+16], 1125 ; 00000465H
  00069	0f 11 45 c8	 movups	 XMMWORD PTR _Size$9[ebp], xmm0
  0006d	c7 45 d8 3c 00
	00 00		 mov	 DWORD PTR _Size$9[ebp+16], 60 ; 0000003cH

; 675  : 
; 676  : 	ML_SET_LANGUAGE_RES();

  00074	e8 00 00 00 00	 call	 ?AfxGetStaticModuleState@@YGPAVAFX_MODULE_STATE@@XZ ; AfxGetStaticModuleState
  00079	b9 00 00 00 00	 mov	 ecx, OFFSET ?g_iMetaTable@@3VIMetaTable@@A ; g_iMetaTable
  0007e	8b 40 08	 mov	 eax, DWORD PTR [eax+8]
  00081	50		 push	 eax
  00082	ff b3 f4 00 00
	00		 push	 DWORD PTR [ebx+244]
  00088	e8 00 00 00 00	 call	 ?LoadResourceDLL@IMetaTable@@QAEPAUHINSTANCE__@@PAUHWND__@@PAU2@@Z ; IMetaTable::LoadResourceDLL
  0008d	8b f8		 mov	 edi, eax
; File C:\Program Files (x86)\Microsoft Visual Studio\2019\Community\VC\Tools\MSVC\14.29.30133\atlmfc\include\afxwin1.inl

; 25   : 		return afxCurrentResourceHandle; }

  0008f	e8 00 00 00 00	 call	 ?AfxGetModuleState@@YGPAVAFX_MODULE_STATE@@XZ ; AfxGetModuleState
; File D:\git\src\IBK\IBK_DRFN\ProjSrc\SrcChartEx\ChartAddIn\ChartDesignPropertyAddIn\Include_Chart\Dll_Load\IMetaTable.h

; 1032 : 		m_hInstance = AfxGetResourceHandle();

  00094	8b 70 0c	 mov	 esi, DWORD PTR [eax+12]
  00097	89 75 bc	 mov	 DWORD PTR ___mlrs__$5[ebp], esi
; File C:\Program Files (x86)\Microsoft Visual Studio\2019\Community\VC\Tools\MSVC\14.29.30133\atlmfc\include\afxwin1.inl

; 27   : 	{ ASSERT(hInstResource != NULL); afxCurrentResourceHandle = hInstResource; }

  0009a	e8 00 00 00 00	 call	 ?AfxGetModuleState@@YGPAVAFX_MODULE_STATE@@XZ ; AfxGetModuleState
  0009f	89 78 0c	 mov	 DWORD PTR [eax+12], edi
; File D:\git\src\IBK\IBK_DRFN\ProjSrc\SrcChartEx\ChartAddIn\ChartDesignPropertyAddIn\ChartDesignPropertyAddIn\PacketSuperGrid.cpp

; 677  : 	CString strCols;

  000a2	8d 4d c4	 lea	 ecx, DWORD PTR _strCols$8[ebp]
  000a5	c7 45 fc 00 00
	00 00		 mov	 DWORD PTR __$EHRec$[ebp+8], 0
  000ac	ff 15 00 00 00
	00		 call	 DWORD PTR __imp_??0?$CStringT@DV?$StrTraitMFC_DLL@DV?$ChTraitsCRT@D@ATL@@@@@ATL@@QAE@XZ
  000b2	c6 45 fc 01	 mov	 BYTE PTR __$EHRec$[ebp+8], 1

; 69   : {

  000b6	33 ff		 xor	 edi, edi

; 680  : 	lvColumn.mask = LVCF_FMT | LVCF_WIDTH | LVCF_TEXT | LVCF_SUBITEM;

  000b8	c7 45 90 0f 00
	00 00		 mov	 DWORD PTR _lvColumn$2[ebp], 15 ; 0000000fH

; 681  : 	lvColumn.fmt = LVCFMT_LEFT;

  000bf	c7 45 94 00 00
	00 00		 mov	 DWORD PTR _lvColumn$2[ebp+4], 0
  000c6	66 66 0f 1f 84
	00 00 00 00 00	 npad	 10
$LL6@Initialize:

; 684  : 	{
; 685  : 		lvColumn.cx = Size[x];

  000d0	8b 44 bd c8	 mov	 eax, DWORD PTR _Size$9[ebp+edi*4]

; 686  : 		strCols.LoadString( uCols[ x]);

  000d4	8d 4d c4	 lea	 ecx, DWORD PTR _strCols$8[ebp]
  000d7	ff 74 bd dc	 push	 DWORD PTR _uCols$10[ebp+edi*4]
  000db	89 45 98	 mov	 DWORD PTR _lvColumn$2[ebp+8], eax
  000de	ff 15 00 00 00
	00		 call	 DWORD PTR __imp_?LoadStringA@?$CStringT@DV?$StrTraitMFC_DLL@DV?$ChTraitsCRT@D@ATL@@@@@ATL@@QAEHI@Z

; 687  : 		lvColumn.pszText = ( char *)( const char *)strCols;

  000e4	8b 45 c4	 mov	 eax, DWORD PTR _strCols$8[ebp]
  000e7	89 45 9c	 mov	 DWORD PTR _lvColumn$2[ebp+12], eax
; File C:\Program Files (x86)\Microsoft Visual Studio\2019\Community\VC\Tools\MSVC\14.29.30133\atlmfc\include\afxcmn.inl

; 209  : 	{ ASSERT(::IsWindow(m_hWnd)); return (int) ::SendMessage(m_hWnd, LVM_INSERTCOLUMN, nCol, (LPARAM)pColumn); }

  000ea	8d 45 90	 lea	 eax, DWORD PTR _lvColumn$2[ebp]
  000ed	50		 push	 eax
  000ee	57		 push	 edi
  000ef	68 1b 10 00 00	 push	 4123			; 0000101bH
  000f4	ff 73 20	 push	 DWORD PTR [ebx+32]
  000f7	ff 15 00 00 00
	00		 call	 DWORD PTR __imp__SendMessageA@16
; File D:\git\src\IBK\IBK_DRFN\ProjSrc\SrcChartEx\ChartAddIn\ChartDesignPropertyAddIn\ChartDesignPropertyAddIn\PacketSuperGrid.cpp

; 683  : 	for(int x = 0; x < sizeof( uCols) / sizeof( UINT); x++)

  000fd	47		 inc	 edi
  000fe	83 ff 05	 cmp	 edi, 5
  00101	72 cd		 jb	 SHORT $LL6@Initialize

; 688  : 		InsertColumn(x,&lvColumn);
; 689  :     }
; 690  : }

  00103	8d 4d c4	 lea	 ecx, DWORD PTR _strCols$8[ebp]
  00106	ff 15 00 00 00
	00		 call	 DWORD PTR __imp_??1?$CStringT@DV?$StrTraitMFC_DLL@DV?$ChTraitsCRT@D@ATL@@@@@ATL@@QAE@XZ
; File D:\git\src\IBK\IBK_DRFN\ProjSrc\SrcChartEx\ChartAddIn\ChartDesignPropertyAddIn\Include_Chart\Dll_Load\IMetaTable.h

; 1036 : 	{

  0010c	c7 45 fc 02 00
	00 00		 mov	 DWORD PTR __$EHRec$[ebp+8], 2
; File C:\Program Files (x86)\Microsoft Visual Studio\2019\Community\VC\Tools\MSVC\14.29.30133\atlmfc\include\afxwin1.inl

; 27   : 	{ ASSERT(hInstResource != NULL); afxCurrentResourceHandle = hInstResource; }

  00113	e8 00 00 00 00	 call	 ?AfxGetModuleState@@YGPAVAFX_MODULE_STATE@@XZ ; AfxGetModuleState
; File D:\git\src\IBK\IBK_DRFN\ProjSrc\SrcChartEx\ChartAddIn\ChartDesignPropertyAddIn\ChartDesignPropertyAddIn\PacketSuperGrid.cpp

; 71   : 	SetPacketRootInit();

  00118	8b cb		 mov	 ecx, ebx
; File D:\git\src\IBK\IBK_DRFN\ProjSrc\SrcChartEx\ChartAddIn\ChartDesignPropertyAddIn\Include_Chart\Dll_Load\IMetaTable.h

; 1038 : 	}

  0011a	c7 45 fc ff ff
	ff ff		 mov	 DWORD PTR __$EHRec$[ebp+8], -1
; File C:\Program Files (x86)\Microsoft Visual Studio\2019\Community\VC\Tools\MSVC\14.29.30133\atlmfc\include\afxwin1.inl

; 27   : 	{ ASSERT(hInstResource != NULL); afxCurrentResourceHandle = hInstResource; }

  00121	89 70 0c	 mov	 DWORD PTR [eax+12], esi
; File D:\git\src\IBK\IBK_DRFN\ProjSrc\SrcChartEx\ChartAddIn\ChartDesignPropertyAddIn\ChartDesignPropertyAddIn\PacketSuperGrid.cpp

; 71   : 	SetPacketRootInit();

  00124	e8 00 00 00 00	 call	 ?SetPacketRootInit@CPacketSuperGrid@@AAEXXZ ; CPacketSuperGrid::SetPacketRootInit
; File C:\Program Files (x86)\Microsoft Visual Studio\2019\Community\VC\Tools\MSVC\14.29.30133\atlmfc\include\afx.inl

; 116  : 	{ return ::operator new(nSize); }

  00129	68 84 00 00 00	 push	 132			; 00000084H
  0012e	e8 00 00 00 00	 call	 ??2@YAPAXI@Z		; operator new
  00133	83 c4 04	 add	 esp, 4
; File D:\git\src\IBK\IBK_DRFN\ProjSrc\SrcChartEx\ChartAddIn\ChartDesignPropertyAddIn\ChartDesignPropertyAddIn\PacketSuperGrid.cpp

; 724  : 		CItemInfo* lpuser = new CItemInfo();

  00136	89 45 bc	 mov	 DWORD PTR $T4[ebp], eax
  00139	c7 45 fc 03 00
	00 00		 mov	 DWORD PTR __$EHRec$[ebp+8], 3
  00140	85 c0		 test	 eax, eax
  00142	74 0b		 je	 SHORT $LN30@Initialize
  00144	8b c8		 mov	 ecx, eax
  00146	e8 00 00 00 00	 call	 ??0CItemInfo@@QAE@XZ	; CItemInfo::CItemInfo
  0014b	8b f0		 mov	 esi, eax
  0014d	eb 02		 jmp	 SHORT $LN31@Initialize
$LN30@Initialize:
  0014f	33 f6		 xor	 esi, esi
$LN31@Initialize:

; 725  : 		SetRootItem( _LTEXT6( C6_USER_DEFINE), lpuser);

  00151	a1 54 00 00 00	 mov	 eax, DWORD PTR ?g_iMetaTable@@3VIMetaTable@@A+84
  00156	b9 00 00 00 00	 mov	 ecx, OFFSET ?g_iMetaTable@@3VIMetaTable@@A ; g_iMetaTable
  0015b	6a 00		 push	 0
  0015d	c7 45 fc ff ff
	ff ff		 mov	 DWORD PTR __$EHRec$[ebp+8], -1
  00164	ff b0 1c 0a 00
	00		 push	 DWORD PTR [eax+2588]
  0016a	6a 06		 push	 6
  0016c	ff b3 f4 00 00
	00		 push	 DWORD PTR [ebx+244]
  00172	e8 00 00 00 00	 call	 ?GetLanguageText@IMetaTable@@QAEPBDPAUHWND__@@W4E_CODEPAGE@1@PBDH@Z ; IMetaTable::GetLanguageText
  00177	50		 push	 eax
  00178	8d 4d c4	 lea	 ecx, DWORD PTR $T7[ebp]
  0017b	ff 15 00 00 00
	00		 call	 DWORD PTR __imp_??0?$CStringT@DV?$StrTraitMFC_DLL@DV?$ChTraitsCRT@D@ATL@@@@@ATL@@QAE@PBD@Z
  00181	56		 push	 esi
  00182	8d 45 c4	 lea	 eax, DWORD PTR $T7[ebp]
  00185	c7 45 fc 04 00
	00 00		 mov	 DWORD PTR __$EHRec$[ebp+8], 4
  0018c	50		 push	 eax
  0018d	8b cb		 mov	 ecx, ebx
  0018f	e8 00 00 00 00	 call	 ?SetRootItem@CPacketSuperGrid@@AAEXABV?$CStringT@DV?$StrTraitMFC_DLL@DV?$ChTraitsCRT@D@ATL@@@@@ATL@@PAVCItemInfo@@@Z ; CPacketSuperGrid::SetRootItem
  00194	8d 4d c4	 lea	 ecx, DWORD PTR $T7[ebp]
  00197	c7 45 fc ff ff
	ff ff		 mov	 DWORD PTR __$EHRec$[ebp+8], -1
  0019e	ff 15 00 00 00
	00		 call	 DWORD PTR __imp_??1?$CStringT@DV?$StrTraitMFC_DLL@DV?$ChTraitsCRT@D@ATL@@@@@ATL@@QAE@XZ

; 726  : 		CTreeItem * pRoot2 = InsertRootItem(lpuser);

  001a4	56		 push	 esi
  001a5	8b cb		 mov	 ecx, ebx
  001a7	e8 00 00 00 00	 call	 ?InsertRootItem@CSuperGridCtrl@@QAEPAVCTreeItem@1@PAVCItemInfo@@@Z ; CSuperGridCtrl::InsertRootItem
  001ac	8b f8		 mov	 edi, eax

; 727  : 		InsertRootItemToListCtrl(pRoot2);

  001ae	8b cb		 mov	 ecx, ebx
  001b0	57		 push	 edi
  001b1	e8 00 00 00 00	 call	 ?InsertRootItemToListCtrl@CSuperGridCtrl@@QAEXPAVCTreeItem@1@@Z ; CSuperGridCtrl::InsertRootItemToListCtrl

; 728  : 
; 729  : 		if( pRoot2 == NULL )

  001b6	85 ff		 test	 edi, edi
  001b8	0f 84 b0 00 00
	00		 je	 $LN27@Initialize
; File C:\Program Files (x86)\Microsoft Visual Studio\2019\Community\VC\Tools\MSVC\14.29.30133\atlmfc\include\afx.inl

; 116  : 	{ return ::operator new(nSize); }

  001be	68 84 00 00 00	 push	 132			; 00000084H
  001c3	e8 00 00 00 00	 call	 ??2@YAPAXI@Z		; operator new
  001c8	83 c4 04	 add	 esp, 4
; File D:\git\src\IBK\IBK_DRFN\ProjSrc\SrcChartEx\ChartAddIn\ChartDesignPropertyAddIn\ChartDesignPropertyAddIn\PacketSuperGrid.cpp

; 732  : 		CItemInfo* lpItemInfo = new CItemInfo();

  001cb	89 45 bc	 mov	 DWORD PTR $T3[ebp], eax
  001ce	c7 45 fc 05 00
	00 00		 mov	 DWORD PTR __$EHRec$[ebp+8], 5
  001d5	85 c0		 test	 eax, eax
  001d7	74 0b		 je	 SHORT $LN32@Initialize
  001d9	8b c8		 mov	 ecx, eax
  001db	e8 00 00 00 00	 call	 ??0CItemInfo@@QAE@XZ	; CItemInfo::CItemInfo
  001e0	8b f0		 mov	 esi, eax
  001e2	eb 02		 jmp	 SHORT $LN33@Initialize
$LN32@Initialize:
  001e4	33 f6		 xor	 esi, esi
$LN33@Initialize:

; 733  : 		SetRootItem( _LTEXT6( C6_INPUT_ITEM), lpItemInfo);

  001e6	a1 54 00 00 00	 mov	 eax, DWORD PTR ?g_iMetaTable@@3VIMetaTable@@A+84
  001eb	b9 00 00 00 00	 mov	 ecx, OFFSET ?g_iMetaTable@@3VIMetaTable@@A ; g_iMetaTable
  001f0	6a 00		 push	 0
  001f2	c7 45 fc ff ff
	ff ff		 mov	 DWORD PTR __$EHRec$[ebp+8], -1
  001f9	ff b0 20 0a 00
	00		 push	 DWORD PTR [eax+2592]
  001ff	6a 06		 push	 6
  00201	ff b3 f4 00 00
	00		 push	 DWORD PTR [ebx+244]
  00207	e8 00 00 00 00	 call	 ?GetLanguageText@IMetaTable@@QAEPBDPAUHWND__@@W4E_CODEPAGE@1@PBDH@Z ; IMetaTable::GetLanguageText
  0020c	50		 push	 eax
  0020d	8d 4d c0	 lea	 ecx, DWORD PTR $T6[ebp]
  00210	ff 15 00 00 00
	00		 call	 DWORD PTR __imp_??0?$CStringT@DV?$StrTraitMFC_DLL@DV?$ChTraitsCRT@D@ATL@@@@@ATL@@QAE@PBD@Z
  00216	56		 push	 esi
  00217	8d 45 c0	 lea	 eax, DWORD PTR $T6[ebp]
  0021a	c7 45 fc 06 00
	00 00		 mov	 DWORD PTR __$EHRec$[ebp+8], 6
  00221	50		 push	 eax
  00222	8b cb		 mov	 ecx, ebx
  00224	e8 00 00 00 00	 call	 ?SetRootItem@CPacketSuperGrid@@AAEXABV?$CStringT@DV?$StrTraitMFC_DLL@DV?$ChTraitsCRT@D@ATL@@@@@ATL@@PAVCItemInfo@@@Z ; CPacketSuperGrid::SetRootItem
  00229	8d 4d c0	 lea	 ecx, DWORD PTR $T6[ebp]
  0022c	c7 45 fc ff ff
	ff ff		 mov	 DWORD PTR __$EHRec$[ebp+8], -1
  00233	ff 15 00 00 00
	00		 call	 DWORD PTR __imp_??1?$CStringT@DV?$StrTraitMFC_DLL@DV?$ChTraitsCRT@D@ATL@@@@@ATL@@QAE@XZ

; 734  : 		CTreeItem* pParent = InsertItem(pRoot2, lpItemInfo);

  00239	6a 00		 push	 0
  0023b	56		 push	 esi
  0023c	57		 push	 edi
  0023d	8b cb		 mov	 ecx, ebx
  0023f	e8 00 00 00 00	 call	 ?InsertItem@CSuperGridCtrl@@QAEPAVCTreeItem@1@PAV21@PAVCItemInfo@@H@Z ; CSuperGridCtrl::InsertItem

; 735  : 		InsertItemToListCtrl(pRoot2, pParent, lpItemInfo);

  00244	6a 00		 push	 0
  00246	56		 push	 esi
  00247	50		 push	 eax
  00248	57		 push	 edi
  00249	8b cb		 mov	 ecx, ebx
  0024b	e8 00 00 00 00	 call	 ?InsertItemToListCtrl@CSuperGridCtrl@@QAEXPAVCTreeItem@1@0PAVCItemInfo@@H@Z ; CSuperGridCtrl::InsertItemToListCtrl

; 736  : 
; 737  : 		//could now expand one level
; 738  : 		Expand(pRoot2, NodeToIndex(pRoot2) ); 

  00250	57		 push	 edi
  00251	8b cb		 mov	 ecx, ebx
  00253	e8 00 00 00 00	 call	 ?NodeToIndex@CSuperGridCtrl@@IAEHPAVCTreeItem@1@@Z ; CSuperGridCtrl::NodeToIndex
  00258	50		 push	 eax
  00259	57		 push	 edi
  0025a	8b cb		 mov	 ecx, ebx
  0025c	e8 00 00 00 00	 call	 ?Expand@CSuperGridCtrl@@QAEHPAVCTreeItem@1@H@Z ; CSuperGridCtrl::Expand

; 739  : 		UINT uflag = LVIS_SELECTED | LVIS_FOCUSED;
; 740  : 		SetItemState(0, uflag, uflag);

  00261	6a 03		 push	 3
  00263	6a 03		 push	 3
  00265	6a 00		 push	 0
  00267	8b cb		 mov	 ecx, ebx
  00269	e8 00 00 00 00	 call	 ?SetItemState@CListCtrl@@QAEHHII@Z ; CListCtrl::SetItemState
$LN27@Initialize:

; 72   : 	SetUserDefineRootInit();
; 73   : }

  0026e	8b 4d f4	 mov	 ecx, DWORD PTR __$EHRec$[ebp]
  00271	64 89 0d 00 00
	00 00		 mov	 DWORD PTR fs:0, ecx
  00278	59		 pop	 ecx
  00279	5f		 pop	 edi
  0027a	5e		 pop	 esi
  0027b	5b		 pop	 ebx
  0027c	8b 4d f0	 mov	 ecx, DWORD PTR __$ArrayPad$[ebp]
  0027f	33 cd		 xor	 ecx, ebp
  00281	e8 00 00 00 00	 call	 @__security_check_cookie@4
  00286	8b e5		 mov	 esp, ebp
  00288	5d		 pop	 ebp
  00289	c3		 ret	 0
_TEXT	ENDS
;	COMDAT text$x
text$x	SEGMENT
__unwindfunclet$?InitializeGrid@CPacketSuperGrid@@QAEXXZ$0:
  00000	8d 4d bc	 lea	 ecx, DWORD PTR ___mlrs__$5[ebp]
  00003	e9 00 00 00 00	 jmp	 ??1CMultiLanguageResourceSetter@@QAE@XZ ; CMultiLanguageResourceSetter::~CMultiLanguageResourceSetter
__unwindfunclet$?InitializeGrid@CPacketSuperGrid@@QAEXXZ$1:
  00008	8d 4d c4	 lea	 ecx, DWORD PTR _strCols$8[ebp]
  0000b	ff 25 00 00 00
	00		 jmp	 DWORD PTR __imp_??1?$CStringT@DV?$StrTraitMFC_DLL@DV?$ChTraitsCRT@D@ATL@@@@@ATL@@QAE@XZ
__unwindfunclet$?InitializeGrid@CPacketSuperGrid@@QAEXXZ$3:
  00011	8b 45 bc	 mov	 eax, DWORD PTR $T4[ebp]
  00014	50		 push	 eax
  00015	e8 00 00 00 00	 call	 ??3CObject@@SGXPAX@Z	; CObject::operator delete
  0001a	c3		 ret	 0
__unwindfunclet$?InitializeGrid@CPacketSuperGrid@@QAEXXZ$4:
  0001b	8d 4d c4	 lea	 ecx, DWORD PTR $T7[ebp]
  0001e	ff 25 00 00 00
	00		 jmp	 DWORD PTR __imp_??1?$CStringT@DV?$StrTraitMFC_DLL@DV?$ChTraitsCRT@D@ATL@@@@@ATL@@QAE@XZ
__unwindfunclet$?InitializeGrid@CPacketSuperGrid@@QAEXXZ$5:
  00024	8b 45 bc	 mov	 eax, DWORD PTR $T3[ebp]
  00027	50		 push	 eax
  00028	e8 00 00 00 00	 call	 ??3CObject@@SGXPAX@Z	; CObject::operator delete
  0002d	c3		 ret	 0
__unwindfunclet$?InitializeGrid@CPacketSuperGrid@@QAEXXZ$6:
  0002e	8d 4d c0	 lea	 ecx, DWORD PTR $T6[ebp]
  00031	ff 25 00 00 00
	00		 jmp	 DWORD PTR __imp_??1?$CStringT@DV?$StrTraitMFC_DLL@DV?$ChTraitsCRT@D@ATL@@@@@ATL@@QAE@XZ
  00037	cc		 int	 3
  00038	cc		 int	 3
  00039	cc		 int	 3
  0003a	cc		 int	 3
  0003b	cc		 int	 3
__ehhandler$?InitializeGrid@CPacketSuperGrid@@QAEXXZ:
  0003c	90		 npad	 1
  0003d	90		 npad	 1
  0003e	8b 54 24 08	 mov	 edx, DWORD PTR [esp+8]
  00042	8d 42 0c	 lea	 eax, DWORD PTR [edx+12]
  00045	8b 4a 8c	 mov	 ecx, DWORD PTR [edx-116]
  00048	33 c8		 xor	 ecx, eax
  0004a	e8 00 00 00 00	 call	 @__security_check_cookie@4
  0004f	8b 4a fc	 mov	 ecx, DWORD PTR [edx-4]
  00052	33 c8		 xor	 ecx, eax
  00054	e8 00 00 00 00	 call	 @__security_check_cookie@4
  00059	b8 00 00 00 00	 mov	 eax, OFFSET __ehfuncinfo$?InitializeGrid@CPacketSuperGrid@@QAEXXZ
  0005e	e9 00 00 00 00	 jmp	 ___CxxFrameHandler3
text$x	ENDS
?InitializeGrid@CPacketSuperGrid@@QAEXXZ ENDP		; CPacketSuperGrid::InitializeGrid
; Function compile flags: /Ogtp
; File D:\git\src\IBK\IBK_DRFN\ProjSrc\SrcChartEx\ChartAddIn\ChartDesignPropertyAddIn\ChartDesignPropertyAddIn\PacketSuperGrid.cpp
;	COMDAT ??0CPacketSuperGrid@@QAE@XZ
_TEXT	SEGMENT
_this$ = -16						; size = 4
__$EHRec$ = -12						; size = 12
??0CPacketSuperGrid@@QAE@XZ PROC			; CPacketSuperGrid::CPacketSuperGrid, COMDAT
; _this$ = ecx

; 23   : {

  00000	55		 push	 ebp
  00001	8b ec		 mov	 ebp, esp
  00003	6a ff		 push	 -1
  00005	68 00 00 00 00	 push	 __ehhandler$??0CPacketSuperGrid@@QAE@XZ
  0000a	64 a1 00 00 00
	00		 mov	 eax, DWORD PTR fs:0
  00010	50		 push	 eax
  00011	51		 push	 ecx
  00012	56		 push	 esi
  00013	a1 00 00 00 00	 mov	 eax, DWORD PTR ___security_cookie
  00018	33 c5		 xor	 eax, ebp
  0001a	50		 push	 eax
  0001b	8d 45 f4	 lea	 eax, DWORD PTR __$EHRec$[ebp]
  0001e	64 a3 00 00 00
	00		 mov	 DWORD PTR fs:0, eax
  00024	8b f1		 mov	 esi, ecx
  00026	89 75 f0	 mov	 DWORD PTR _this$[ebp], esi
  00029	e8 00 00 00 00	 call	 ??0CSuperGridCtrl@@QAE@XZ ; CSuperGridCtrl::CSuperGridCtrl
  0002e	8d 8e ec 00 00
	00		 lea	 ecx, DWORD PTR [esi+236]
  00034	c7 45 fc 00 00
	00 00		 mov	 DWORD PTR __$EHRec$[ebp+8], 0
  0003b	c7 06 00 00 00
	00		 mov	 DWORD PTR [esi], OFFSET ??_7CPacketSuperGrid@@6B@
  00041	e8 00 00 00 00	 call	 ??0CImageList@@QAE@XZ	; CImageList::CImageList

; 24   : 	m_bDrag = TRUE;

  00046	c7 86 e8 00 00
	00 01 00 00 00	 mov	 DWORD PTR [esi+232], 1

; 25   : }

  00050	8b c6		 mov	 eax, esi
  00052	8b 4d f4	 mov	 ecx, DWORD PTR __$EHRec$[ebp]
  00055	64 89 0d 00 00
	00 00		 mov	 DWORD PTR fs:0, ecx
  0005c	59		 pop	 ecx
  0005d	5e		 pop	 esi
  0005e	8b e5		 mov	 esp, ebp
  00060	5d		 pop	 ebp
  00061	c3		 ret	 0
_TEXT	ENDS
;	COMDAT text$x
text$x	SEGMENT
__unwindfunclet$??0CPacketSuperGrid@@QAE@XZ$0:
  00000	8b 4d f0	 mov	 ecx, DWORD PTR _this$[ebp]
  00003	e9 00 00 00 00	 jmp	 ??1CSuperGridCtrl@@UAE@XZ ; CSuperGridCtrl::~CSuperGridCtrl
  00008	cc		 int	 3
  00009	cc		 int	 3
  0000a	cc		 int	 3
  0000b	cc		 int	 3
  0000c	cc		 int	 3
__ehhandler$??0CPacketSuperGrid@@QAE@XZ:
  0000d	90		 npad	 1
  0000e	90		 npad	 1
  0000f	8b 54 24 08	 mov	 edx, DWORD PTR [esp+8]
  00013	8d 42 0c	 lea	 eax, DWORD PTR [edx+12]
  00016	8b 4a f4	 mov	 ecx, DWORD PTR [edx-12]
  00019	33 c8		 xor	 ecx, eax
  0001b	e8 00 00 00 00	 call	 @__security_check_cookie@4
  00020	b8 00 00 00 00	 mov	 eax, OFFSET __ehfuncinfo$??0CPacketSuperGrid@@QAE@XZ
  00025	e9 00 00 00 00	 jmp	 ___CxxFrameHandler3
text$x	ENDS
??0CPacketSuperGrid@@QAE@XZ ENDP			; CPacketSuperGrid::CPacketSuperGrid
; Function compile flags: /Ogtp
;	COMDAT ??1CPacketUserDefine@@UAE@XZ
_TEXT	SEGMENT
??1CPacketUserDefine@@UAE@XZ PROC			; CPacketUserDefine::~CPacketUserDefine, COMDAT
; _this$ = ecx
  00000	56		 push	 esi
  00001	8b f1		 mov	 esi, ecx
  00003	8d 8e 3c 01 00
	00		 lea	 ecx, DWORD PTR [esi+316]
  00009	ff 15 00 00 00
	00		 call	 DWORD PTR __imp_??1?$CStringT@DV?$StrTraitMFC_DLL@DV?$ChTraitsCRT@D@ATL@@@@@ATL@@QAE@XZ
  0000f	8d 8e 34 01 00
	00		 lea	 ecx, DWORD PTR [esi+308]
  00015	ff 15 00 00 00
	00		 call	 DWORD PTR __imp_??1?$CStringT@DV?$StrTraitMFC_DLL@DV?$ChTraitsCRT@D@ATL@@@@@ATL@@QAE@XZ
  0001b	8d 8e 2c 01 00
	00		 lea	 ecx, DWORD PTR [esi+300]
  00021	ff 15 00 00 00
	00		 call	 DWORD PTR __imp_??1?$CStringT@DV?$StrTraitMFC_DLL@DV?$ChTraitsCRT@D@ATL@@@@@ATL@@QAE@XZ
  00027	8d 8e 28 01 00
	00		 lea	 ecx, DWORD PTR [esi+296]
  0002d	ff 15 00 00 00
	00		 call	 DWORD PTR __imp_??1?$CStringT@DV?$StrTraitMFC_DLL@DV?$ChTraitsCRT@D@ATL@@@@@ATL@@QAE@XZ
  00033	8d 8e a8 00 00
	00		 lea	 ecx, DWORD PTR [esi+168]
  00039	e8 00 00 00 00	 call	 ??1CComboBox@@UAE@XZ	; CComboBox::~CComboBox
  0003e	8b ce		 mov	 ecx, esi
  00040	5e		 pop	 esi
  00041	e9 00 00 00 00	 jmp	 ??1CDialog@@UAE@XZ	; CDialog::~CDialog
??1CPacketUserDefine@@UAE@XZ ENDP			; CPacketUserDefine::~CPacketUserDefine
_TEXT	ENDS
; Function compile flags: /Ogtp
; File C:\Program Files (x86)\Microsoft Visual Studio\2019\Community\VC\Tools\MSVC\14.29.30133\atlmfc\include\afx.inl
;	COMDAT ??_GCItemInfo@@UAEPAXI@Z
_TEXT	SEGMENT
___flags$ = 8						; size = 4
??_GCItemInfo@@UAEPAXI@Z PROC				; CItemInfo::`scalar deleting destructor', COMDAT
; _this$ = ecx
  00000	55		 push	 ebp
  00001	8b ec		 mov	 ebp, esp
  00003	56		 push	 esi
  00004	8b f1		 mov	 esi, ecx
  00006	e8 00 00 00 00	 call	 ??1CItemInfo@@UAE@XZ	; CItemInfo::~CItemInfo
  0000b	8b 45 08	 mov	 eax, DWORD PTR ___flags$[ebp]
  0000e	a8 01		 test	 al, 1
  00010	74 22		 je	 SHORT $LN9@scalar
  00012	a8 04		 test	 al, 4
  00014	75 10		 jne	 SHORT $LN3@scalar

; 112  : 	{ ::operator delete(p); }

  00016	56		 push	 esi
  00017	e8 00 00 00 00	 call	 ??3@YAXPAX@Z		; operator delete
  0001c	83 c4 04	 add	 esp, 4
  0001f	8b c6		 mov	 eax, esi
  00021	5e		 pop	 esi
  00022	5d		 pop	 ebp
  00023	c2 04 00	 ret	 4
$LN3@scalar:
  00026	68 84 00 00 00	 push	 132			; 00000084H
  0002b	56		 push	 esi
  0002c	e8 00 00 00 00	 call	 ?__global_delete@@YAXPAXI@Z ; __global_delete
  00031	83 c4 08	 add	 esp, 8
$LN9@scalar:
  00034	8b c6		 mov	 eax, esi
  00036	5e		 pop	 esi
  00037	5d		 pop	 ebp
  00038	c2 04 00	 ret	 4
??_GCItemInfo@@UAEPAXI@Z ENDP				; CItemInfo::`scalar deleting destructor'
_TEXT	ENDS
; Function compile flags: /Ogtp
; File C:\Program Files (x86)\Microsoft Visual Studio\2019\Community\VC\Tools\MSVC\14.29.30133\atlmfc\include\afxtempl.h
; File C:\Program Files (x86)\Microsoft Visual Studio\2019\Community\VC\Tools\MSVC\14.29.30133\atlmfc\include\afx.inl
;	COMDAT ??_G?$CMap@HHPAVCStringList@@PAV1@@@UAEPAXI@Z
_TEXT	SEGMENT
__$EHRec$ = -12						; size = 12
___flags$ = 8						; size = 4
??_G?$CMap@HHPAVCStringList@@PAV1@@@UAEPAXI@Z PROC	; CMap<int,int,CStringList *,CStringList *>::`scalar deleting destructor', COMDAT
; _this$ = ecx
  00000	55		 push	 ebp
  00001	8b ec		 mov	 ebp, esp
  00003	6a ff		 push	 -1
  00005	68 00 00 00 00	 push	 __ehhandler$??_G?$CMap@HHPAVCStringList@@PAV1@@@UAEPAXI@Z
  0000a	64 a1 00 00 00
	00		 mov	 eax, DWORD PTR fs:0
  00010	50		 push	 eax
  00011	56		 push	 esi
  00012	a1 00 00 00 00	 mov	 eax, DWORD PTR ___security_cookie
  00017	33 c5		 xor	 eax, ebp
  00019	50		 push	 eax
  0001a	8d 45 f4	 lea	 eax, DWORD PTR __$EHRec$[ebp]
  0001d	64 a3 00 00 00
	00		 mov	 DWORD PTR fs:0, eax
  00023	8b f1		 mov	 esi, ecx
; File C:\Program Files (x86)\Microsoft Visual Studio\2019\Community\VC\Tools\MSVC\14.29.30133\atlmfc\include\afxtempl.h

; 1446 : 	if (m_pHashTable != NULL)

  00025	8b 46 04	 mov	 eax, DWORD PTR [esi+4]

; 1472 : {

  00028	c7 45 fc 00 00
	00 00		 mov	 DWORD PTR __$EHRec$[ebp+8], 0
  0002f	c7 06 00 00 00
	00		 mov	 DWORD PTR [esi], OFFSET ??_7?$CMap@HHPAVCStringList@@PAV1@@@6B@

; 1446 : 	if (m_pHashTable != NULL)

  00035	85 c0		 test	 eax, eax
  00037	74 10		 je	 SHORT $LN17@scalar

; 1447 : 	{
; 1448 : 		// destroy elements (values and keys)
; 1449 : 		for (UINT nHash = 0; nHash < m_nHashTableSize; nHash++)
; 1450 : 		{
; 1451 : 			CAssoc* pAssoc;
; 1452 : 			for (pAssoc = m_pHashTable[nHash]; pAssoc != NULL;
; 1453 : 			  pAssoc = pAssoc->pNext)
; 1454 : 			{
; 1455 : 				pAssoc->CAssoc::~CAssoc();
; 1456 : 			}
; 1457 : 		}
; 1458 : 
; 1459 : 		// free hash table
; 1460 : 		delete[] m_pHashTable;

  00039	50		 push	 eax
  0003a	e8 00 00 00 00	 call	 ??_V@YAXPAX@Z		; operator delete[]
  0003f	83 c4 04	 add	 esp, 4

; 1461 : 		m_pHashTable = NULL;

  00042	c7 46 04 00 00
	00 00		 mov	 DWORD PTR [esi+4], 0
$LN17@scalar:

; 1462 : 	}
; 1463 : 
; 1464 : 	m_nCount = 0;
; 1465 : 	m_pFreeList = NULL;
; 1466 : 	m_pBlocks->FreeDataChain();

  00049	8b 4e 14	 mov	 ecx, DWORD PTR [esi+20]
  0004c	c7 46 0c 00 00
	00 00		 mov	 DWORD PTR [esi+12], 0
  00053	c7 46 10 00 00
	00 00		 mov	 DWORD PTR [esi+16], 0
  0005a	e8 00 00 00 00	 call	 ?FreeDataChain@CPlex@@QAEXXZ ; CPlex::FreeDataChain

; 1467 : 	m_pBlocks = NULL;

  0005f	8b 45 08	 mov	 eax, DWORD PTR ___flags$[ebp]
  00062	c7 46 14 00 00
	00 00		 mov	 DWORD PTR [esi+20], 0
  00069	a8 01		 test	 al, 1
  0006b	74 2c		 je	 SHORT $LN31@scalar
  0006d	a8 04		 test	 al, 4
  0006f	75 1d		 jne	 SHORT $LN3@scalar
; File C:\Program Files (x86)\Microsoft Visual Studio\2019\Community\VC\Tools\MSVC\14.29.30133\atlmfc\include\afx.inl

; 112  : 	{ ::operator delete(p); }

  00071	56		 push	 esi
  00072	e8 00 00 00 00	 call	 ??3@YAXPAX@Z		; operator delete
  00077	83 c4 04	 add	 esp, 4
  0007a	8b c6		 mov	 eax, esi
  0007c	8b 4d f4	 mov	 ecx, DWORD PTR __$EHRec$[ebp]
  0007f	64 89 0d 00 00
	00 00		 mov	 DWORD PTR fs:0, ecx
  00086	59		 pop	 ecx
  00087	5e		 pop	 esi
  00088	8b e5		 mov	 esp, ebp
  0008a	5d		 pop	 ebp
  0008b	c2 04 00	 ret	 4
$LN3@scalar:
  0008e	6a 1c		 push	 28			; 0000001cH
  00090	56		 push	 esi
  00091	e8 00 00 00 00	 call	 ?__global_delete@@YAXPAXI@Z ; __global_delete
  00096	83 c4 08	 add	 esp, 8
$LN31@scalar:
  00099	8b c6		 mov	 eax, esi
  0009b	8b 4d f4	 mov	 ecx, DWORD PTR __$EHRec$[ebp]
  0009e	64 89 0d 00 00
	00 00		 mov	 DWORD PTR fs:0, ecx
  000a5	59		 pop	 ecx
  000a6	5e		 pop	 esi
  000a7	8b e5		 mov	 esp, ebp
  000a9	5d		 pop	 ebp
  000aa	c2 04 00	 ret	 4
  000ad	cc		 int	 3
  000ae	cc		 int	 3
  000af	cc		 int	 3
  000b0	cc		 int	 3
  000b1	cc		 int	 3
_TEXT	ENDS
;	COMDAT text$x
text$x	SEGMENT
__ehhandler$??_G?$CMap@HHPAVCStringList@@PAV1@@@UAEPAXI@Z:
  00000	90		 npad	 1
  00001	90		 npad	 1
  00002	8b 54 24 08	 mov	 edx, DWORD PTR [esp+8]
  00006	8d 42 0c	 lea	 eax, DWORD PTR [edx+12]
  00009	8b 4a f8	 mov	 ecx, DWORD PTR [edx-8]
  0000c	33 c8		 xor	 ecx, eax
  0000e	e8 00 00 00 00	 call	 @__security_check_cookie@4
  00013	b8 00 00 00 00	 mov	 eax, OFFSET __ehfuncinfo$??_G?$CMap@HHPAVCStringList@@PAV1@@@UAEPAXI@Z
  00018	e9 00 00 00 00	 jmp	 ___CxxFrameHandler3
text$x	ENDS
??_G?$CMap@HHPAVCStringList@@PAV1@@@UAEPAXI@Z ENDP	; CMap<int,int,CStringList *,CStringList *>::`scalar deleting destructor'
; Function compile flags: /Ogtp
; File C:\Program Files (x86)\Microsoft Visual Studio\2019\Community\VC\Tools\MSVC\14.29.30133\atlmfc\include\afxtempl.h
; File C:\Program Files (x86)\Microsoft Visual Studio\2019\Community\VC\Tools\MSVC\14.29.30133\atlmfc\include\afx.inl
; File C:\Program Files (x86)\Microsoft Visual Studio\2019\Community\VC\Tools\MSVC\14.29.30133\atlmfc\include\afxtempl.h
; File C:\Program Files (x86)\Microsoft Visual Studio\2019\Community\VC\Tools\MSVC\14.29.30133\atlmfc\include\afx.inl
; File C:\Program Files (x86)\Microsoft Visual Studio\2019\Community\VC\Tools\MSVC\14.29.30133\atlmfc\include\afxtempl.h
; File C:\Program Files (x86)\Microsoft Visual Studio\2019\Community\VC\Tools\MSVC\14.29.30133\atlmfc\include\afx.inl
; File C:\Program Files (x86)\Microsoft Visual Studio\2019\Community\VC\Tools\MSVC\14.29.30133\atlmfc\include\afxtempl.h
; File C:\Program Files (x86)\Microsoft Visual Studio\2019\Community\VC\Tools\MSVC\14.29.30133\atlmfc\include\afx.inl
; File C:\Program Files (x86)\Microsoft Visual Studio\2019\Community\VC\Tools\MSVC\14.29.30133\atlmfc\include\afxtempl.h
; File C:\Program Files (x86)\Microsoft Visual Studio\2019\Community\VC\Tools\MSVC\14.29.30133\atlmfc\include\afx.inl
; File C:\Program Files (x86)\Microsoft Visual Studio\2019\Community\VC\Tools\MSVC\14.29.30133\atlmfc\include\afxtempl.h
; File C:\Program Files (x86)\Microsoft Visual Studio\2019\Community\VC\Tools\MSVC\14.29.30133\atlmfc\include\afx.inl
; File C:\Program Files (x86)\Microsoft Visual Studio\2019\Community\VC\Tools\MSVC\14.29.30133\atlmfc\include\afxtempl.h
; File C:\Program Files (x86)\Microsoft Visual Studio\2019\Community\VC\Tools\MSVC\14.29.30133\atlmfc\include\afx.inl
; File C:\Program Files (x86)\Microsoft Visual Studio\2019\Community\VC\Tools\MSVC\14.29.30133\atlmfc\include\afxtempl.h
; File C:\Program Files (x86)\Microsoft Visual Studio\2019\Community\VC\Tools\MSVC\14.29.30133\atlmfc\include\afx.inl
; File C:\Program Files (x86)\Microsoft Visual Studio\2019\Community\VC\Tools\MSVC\14.29.30133\atlmfc\include\afxtempl.h
; File C:\Program Files (x86)\Microsoft Visual Studio\2019\Community\VC\Tools\MSVC\14.29.30133\atlmfc\include\afx.inl
; File C:\Program Files (x86)\Microsoft Visual Studio\2019\Community\VC\Tools\MSVC\14.29.30133\atlmfc\include\afxtempl.h
; File C:\Program Files (x86)\Microsoft Visual Studio\2019\Community\VC\Tools\MSVC\14.29.30133\atlmfc\include\afx.inl
; File C:\Program Files (x86)\Microsoft Visual Studio\2019\Community\VC\Tools\MSVC\14.29.30133\atlmfc\include\afxtempl.h
; File C:\Program Files (x86)\Microsoft Visual Studio\2019\Community\VC\Tools\MSVC\14.29.30133\atlmfc\include\afx.inl
; File C:\Program Files (x86)\Microsoft Visual Studio\2019\Community\VC\Tools\MSVC\14.29.30133\atlmfc\include\afxtempl.h
; File C:\Program Files (x86)\Microsoft Visual Studio\2019\Community\VC\Tools\MSVC\14.29.30133\atlmfc\include\afx.inl
; File C:\Program Files (x86)\Microsoft Visual Studio\2019\Community\VC\Tools\MSVC\14.29.30133\atlmfc\include\afxtempl.h
; File C:\Program Files (x86)\Microsoft Visual Studio\2019\Community\VC\Tools\MSVC\14.29.30133\atlmfc\include\afx.inl
; File C:\Program Files (x86)\Microsoft Visual Studio\2019\Community\VC\Tools\MSVC\14.29.30133\atlmfc\include\afxtempl.h
; File C:\Program Files (x86)\Microsoft Visual Studio\2019\Community\VC\Tools\MSVC\14.29.30133\atlmfc\include\afx.inl
; File C:\Program Files (x86)\Microsoft Visual Studio\2019\Community\VC\Tools\MSVC\14.29.30133\atlmfc\include\afxtempl.h
; File C:\Program Files (x86)\Microsoft Visual Studio\2019\Community\VC\Tools\MSVC\14.29.30133\atlmfc\include\afx.inl
; File C:\Program Files (x86)\Microsoft Visual Studio\2019\Community\VC\Tools\MSVC\14.29.30133\atlmfc\include\afxtempl.h
; File C:\Program Files (x86)\Microsoft Visual Studio\2019\Community\VC\Tools\MSVC\14.29.30133\atlmfc\include\afx.inl
; File C:\Program Files (x86)\Microsoft Visual Studio\2019\Community\VC\Tools\MSVC\14.29.30133\atlmfc\include\afxtempl.h
; File C:\Program Files (x86)\Microsoft Visual Studio\2019\Community\VC\Tools\MSVC\14.29.30133\atlmfc\include\afx.inl
; File C:\Program Files (x86)\Microsoft Visual Studio\2019\Community\VC\Tools\MSVC\14.29.30133\atlmfc\include\afxtempl.h
; File C:\Program Files (x86)\Microsoft Visual Studio\2019\Community\VC\Tools\MSVC\14.29.30133\atlmfc\include\afx.inl
; File C:\Program Files (x86)\Microsoft Visual Studio\2019\Community\VC\Tools\MSVC\14.29.30133\atlmfc\include\afxtempl.h
; File C:\Program Files (x86)\Microsoft Visual Studio\2019\Community\VC\Tools\MSVC\14.29.30133\atlmfc\include\afx.inl
; File C:\Program Files (x86)\Microsoft Visual Studio\2019\Community\VC\Tools\MSVC\14.29.30133\atlmfc\include\afxtempl.h
;	COMDAT ?Serialize@?$CMap@HHPAVCStringList@@PAV1@@@UAEXAAVCArchive@@@Z
_TEXT	SEGMENT
_nHashBucket$1$ = -32					; size = 4
_nCount$1$ = -32					; size = 4
_nElementsToRead$1$ = -32				; size = 4
_nElementsToRead$1$ = -28				; size = 4
_pData$1$ = -28						; size = 4
_nCount$1$ = -28					; size = 4
_newValue$1$ = -28					; size = 4
_this$1$ = -24						; size = 4
_newKey$3 = -20						; size = 4
_newValue$4 = -16					; size = 4
_pData$1$ = -12						; size = 4
_pData$1$ = -12						; size = 4
_key$1$ = -12						; size = 4
_nHash$1$ = -12						; size = 4
_nNewCount$1$ = -8					; size = 4
_pAssoc$1$ = -8						; size = 4
_nElementsLeft$1$ = -4					; size = 4
_pData$1$ = -4						; size = 4
_pData$1$ = -4						; size = 4
_nHashSize$1$ = 8					; size = 4
_pData$1$ = 8						; size = 4
_nElementsLeft$1$ = 8					; size = 4
_pData$1$ = 8						; size = 4
_nElementsLeft$1$ = 8					; size = 4
_ar$ = 8						; size = 4
?Serialize@?$CMap@HHPAVCStringList@@PAV1@@@UAEXAAVCArchive@@@Z PROC ; CMap<int,int,CStringList *,CStringList *>::Serialize, COMDAT
; _this$ = ecx

; 1743 : {

  00000	55		 push	 ebp
  00001	8b ec		 mov	 ebp, esp
  00003	83 ec 20	 sub	 esp, 32			; 00000020H
  00006	53		 push	 ebx
; File C:\Program Files (x86)\Microsoft Visual Studio\2019\Community\VC\Tools\MSVC\14.29.30133\atlmfc\include\afx.inl

; 212  : 	{ return (m_nMode & CArchive::load) == 0; }

  00007	8b 5d 08	 mov	 ebx, DWORD PTR _ar$[ebp]
; File C:\Program Files (x86)\Microsoft Visual Studio\2019\Community\VC\Tools\MSVC\14.29.30133\atlmfc\include\afxtempl.h

; 1743 : {

  0000a	56		 push	 esi
  0000b	8b f1		 mov	 esi, ecx

; 1748 : 	if (ar.IsStoring())

  0000d	8b cb		 mov	 ecx, ebx
  0000f	57		 push	 edi
; File C:\Program Files (x86)\Microsoft Visual Studio\2019\Community\VC\Tools\MSVC\14.29.30133\atlmfc\include\afx.inl

; 212  : 	{ return (m_nMode & CArchive::load) == 0; }

  00010	8b 43 18	 mov	 eax, DWORD PTR [ebx+24]
  00013	f7 d0		 not	 eax
; File C:\Program Files (x86)\Microsoft Visual Studio\2019\Community\VC\Tools\MSVC\14.29.30133\atlmfc\include\afxtempl.h

; 1743 : {

  00015	89 75 e8	 mov	 DWORD PTR _this$1$[ebp], esi
; File C:\Program Files (x86)\Microsoft Visual Studio\2019\Community\VC\Tools\MSVC\14.29.30133\atlmfc\include\afx.inl

; 212  : 	{ return (m_nMode & CArchive::load) == 0; }

  00018	a8 01		 test	 al, 1
; File C:\Program Files (x86)\Microsoft Visual Studio\2019\Community\VC\Tools\MSVC\14.29.30133\atlmfc\include\afxtempl.h

; 1748 : 	if (ar.IsStoring())

  0001a	0f 84 71 01 00
	00		 je	 $LN10@Serialize

; 1749 : 	{
; 1750 : 		ar.WriteCount(m_nCount);

  00020	ff 76 0c	 push	 DWORD PTR [esi+12]
  00023	e8 00 00 00 00	 call	 ?WriteCount@CArchive@@QAEXK@Z ; CArchive::WriteCount

; 1751 : 		if (m_nCount == 0)

  00028	83 7e 0c 00	 cmp	 DWORD PTR [esi+12], 0
  0002c	0f 84 c9 03 00
	00		 je	 $LN189@Serialize

; 1752 : 			return;  // nothing more to do
; 1753 : 
; 1754 : 		ASSERT(m_pHashTable != NULL);
; 1755 : 		if (m_pHashTable != NULL)

  00032	83 7e 04 00	 cmp	 DWORD PTR [esi+4], 0
  00036	0f 84 bf 03 00
	00		 je	 $LN189@Serialize

; 1756 : 		{
; 1757 : 			for (UINT nHash = 0; nHash < m_nHashTableSize; nHash++)

  0003c	33 c9		 xor	 ecx, ecx
  0003e	89 4d f4	 mov	 DWORD PTR _nHash$1$[ebp], ecx
  00041	39 4e 08	 cmp	 DWORD PTR [esi+8], ecx
  00044	0f 86 b1 03 00
	00		 jbe	 $LN189@Serialize
  0004a	66 0f 1f 44 00
	00		 npad	 6
$LL4@Serialize:

; 1758 : 			{
; 1759 : 				CAssoc* pAssoc;
; 1760 : 				for (pAssoc = m_pHashTable[nHash]; pAssoc != NULL; pAssoc = pAssoc->pNext)

  00050	8b 46 04	 mov	 eax, DWORD PTR [esi+4]
  00053	8b 0c 88	 mov	 ecx, DWORD PTR [eax+ecx*4]
  00056	89 4d f8	 mov	 DWORD PTR _pAssoc$1$[ebp], ecx
  00059	85 c9		 test	 ecx, ecx
  0005b	0f 84 17 01 00
	00		 je	 $LN2@Serialize
$LL7@Serialize:
; File C:\Program Files (x86)\Microsoft Visual Studio\2019\Community\VC\Tools\MSVC\14.29.30133\atlmfc\include\afx.inl

; 212  : 	{ return (m_nMode & CArchive::load) == 0; }

  00061	8b 43 18	 mov	 eax, DWORD PTR [ebx+24]
; File C:\Program Files (x86)\Microsoft Visual Studio\2019\Community\VC\Tools\MSVC\14.29.30133\atlmfc\include\afxtempl.h

; 1770 : 					pValue = reinterpret_cast< VALUE* >( &reinterpret_cast< int& >( static_cast< VALUE& >( pAssoc->value ) ) );

  00064	8d 71 04	 lea	 esi, DWORD PTR [ecx+4]
; File C:\Program Files (x86)\Microsoft Visual Studio\2019\Community\VC\Tools\MSVC\14.29.30133\atlmfc\include\afx.inl

; 212  : 	{ return (m_nMode & CArchive::load) == 0; }

  00067	f7 d0		 not	 eax
; File C:\Program Files (x86)\Microsoft Visual Studio\2019\Community\VC\Tools\MSVC\14.29.30133\atlmfc\include\afxtempl.h

; 1770 : 					pValue = reinterpret_cast< VALUE* >( &reinterpret_cast< int& >( static_cast< VALUE& >( pAssoc->value ) ) );

  00069	89 75 e4	 mov	 DWORD PTR _pData$1$[ebp], esi

; 73   : 	if (ar.IsStoring())

  0006c	89 4d fc	 mov	 DWORD PTR _pData$1$[ebp], ecx
; File C:\Program Files (x86)\Microsoft Visual Studio\2019\Community\VC\Tools\MSVC\14.29.30133\atlmfc\include\afx.inl

; 212  : 	{ return (m_nMode & CArchive::load) == 0; }

  0006f	a8 01		 test	 al, 1
; File C:\Program Files (x86)\Microsoft Visual Studio\2019\Community\VC\Tools\MSVC\14.29.30133\atlmfc\include\afxtempl.h

; 73   : 	if (ar.IsStoring())

  00071	74 3c		 je	 SHORT $LN26@Serialize

; 74   : 	{
; 75   : 		TYPE* pData;
; 76   : 		UINT_PTR nElementsLeft;
; 77   : 
; 78   : 		nElementsLeft = nCount;

  00073	be 01 00 00 00	 mov	 esi, 1

; 79   : 		pData = pElements;

  00078	8b c1		 mov	 eax, ecx
  0007a	66 0f 1f 44 00
	00		 npad	 6
$LL21@Serialize:

; 85   : 			ar.Write(pData, nElementsToWrite*sizeof(TYPE));

  00080	8b 4d 08	 mov	 ecx, DWORD PTR _ar$[ebp]
  00083	bb ff ff ff 1f	 mov	 ebx, 536870911		; 1fffffffH
  00088	3b f3		 cmp	 esi, ebx
  0008a	0f 42 de	 cmovb	 ebx, esi
  0008d	8d 3c 9d 00 00
	00 00		 lea	 edi, DWORD PTR [ebx*4]
  00094	57		 push	 edi
  00095	50		 push	 eax
  00096	e8 00 00 00 00	 call	 ?Write@CArchive@@QAEXPBXI@Z ; CArchive::Write

; 87   : 			pData += nElementsToWrite;

  0009b	8b 45 fc	 mov	 eax, DWORD PTR _pData$1$[ebp]
  0009e	03 c7		 add	 eax, edi
  000a0	89 45 fc	 mov	 DWORD PTR _pData$1$[ebp], eax
  000a3	2b f3		 sub	 esi, ebx
  000a5	75 d9		 jne	 SHORT $LL21@Serialize
  000a7	8b 75 e4	 mov	 esi, DWORD PTR _pData$1$[ebp]

; 88   : 		}
; 89   : 	}

  000aa	8b 5d 08	 mov	 ebx, DWORD PTR _ar$[ebp]
  000ad	eb 3b		 jmp	 SHORT $LN41@Serialize
$LN26@Serialize:

; 90   : 	else
; 91   : 	{
; 92   : 		TYPE* pData;
; 93   : 		UINT_PTR nElementsLeft;
; 94   : 
; 95   : 		nElementsLeft = nCount;

  000af	bf 01 00 00 00	 mov	 edi, 1

; 96   : 		pData = pElements;

  000b4	8b d1		 mov	 edx, ecx
$LL23@Serialize:

; 101  : 			nElementsToRead = UINT(__min(nElementsLeft, INT_MAX/sizeof(TYPE)));

  000b6	b8 ff ff ff 1f	 mov	 eax, 536870911		; 1fffffffH
; File C:\Program Files (x86)\Microsoft Visual Studio\2019\Community\VC\Tools\MSVC\14.29.30133\atlmfc\include\afx.inl

; 399  : 	UINT nRead=Read(lpBuf, nCount);

  000bb	8b cb		 mov	 ecx, ebx
; File C:\Program Files (x86)\Microsoft Visual Studio\2019\Community\VC\Tools\MSVC\14.29.30133\atlmfc\include\afxtempl.h

; 101  : 			nElementsToRead = UINT(__min(nElementsLeft, INT_MAX/sizeof(TYPE)));

  000bd	3b f8		 cmp	 edi, eax
  000bf	0f 42 c7	 cmovb	 eax, edi
  000c2	89 45 e0	 mov	 DWORD PTR _nElementsToRead$1$[ebp], eax

; 102  : 			ar.EnsureRead(pData, nElementsToRead*sizeof(TYPE));

  000c5	c1 e0 02	 shl	 eax, 2
; File C:\Program Files (x86)\Microsoft Visual Studio\2019\Community\VC\Tools\MSVC\14.29.30133\atlmfc\include\afx.inl

; 399  : 	UINT nRead=Read(lpBuf, nCount);

  000c8	50		 push	 eax
  000c9	52		 push	 edx
; File C:\Program Files (x86)\Microsoft Visual Studio\2019\Community\VC\Tools\MSVC\14.29.30133\atlmfc\include\afxtempl.h

; 102  : 			ar.EnsureRead(pData, nElementsToRead*sizeof(TYPE));

  000ca	89 45 e4	 mov	 DWORD PTR _nCount$1$[ebp], eax
; File C:\Program Files (x86)\Microsoft Visual Studio\2019\Community\VC\Tools\MSVC\14.29.30133\atlmfc\include\afx.inl

; 399  : 	UINT nRead=Read(lpBuf, nCount);

  000cd	e8 00 00 00 00	 call	 ?Read@CArchive@@QAEIPAXI@Z ; CArchive::Read

; 400  : 	if(nRead!=nCount)

  000d2	8b 4d e4	 mov	 ecx, DWORD PTR _nCount$1$[ebp]
  000d5	3b c1		 cmp	 eax, ecx
  000d7	0f 85 2c 03 00
	00		 jne	 $LN165@Serialize
; File C:\Program Files (x86)\Microsoft Visual Studio\2019\Community\VC\Tools\MSVC\14.29.30133\atlmfc\include\afxtempl.h

; 104  : 			pData += nElementsToRead;

  000dd	8b 55 fc	 mov	 edx, DWORD PTR _pData$1$[ebp]
  000e0	03 d1		 add	 edx, ecx
  000e2	89 55 fc	 mov	 DWORD PTR _pData$1$[ebp], edx
  000e5	2b 7d e0	 sub	 edi, DWORD PTR _nElementsToRead$1$[ebp]
  000e8	75 cc		 jne	 SHORT $LL23@Serialize
$LN41@Serialize:

; 68   : 	ENSURE(nCount == 0 || pElements != NULL);

  000ea	85 f6		 test	 esi, esi
  000ec	0f 84 12 03 00
	00		 je	 $LN167@Serialize
; File C:\Program Files (x86)\Microsoft Visual Studio\2019\Community\VC\Tools\MSVC\14.29.30133\atlmfc\include\afx.inl

; 212  : 	{ return (m_nMode & CArchive::load) == 0; }

  000f2	8b 43 18	 mov	 eax, DWORD PTR [ebx+24]
  000f5	f7 d0		 not	 eax
  000f7	a8 01		 test	 al, 1
; File C:\Program Files (x86)\Microsoft Visual Studio\2019\Community\VC\Tools\MSVC\14.29.30133\atlmfc\include\afxtempl.h

; 73   : 	if (ar.IsStoring())

  000f9	74 36		 je	 SHORT $LN47@Serialize

; 74   : 	{
; 75   : 		TYPE* pData;
; 76   : 		UINT_PTR nElementsLeft;
; 77   : 
; 78   : 		nElementsLeft = nCount;

  000fb	b8 01 00 00 00	 mov	 eax, 1
  00100	89 45 fc	 mov	 DWORD PTR _nElementsLeft$1$[ebp], eax
$LL42@Serialize:

; 85   : 			ar.Write(pData, nElementsToWrite*sizeof(TYPE));

  00103	8b 4d 08	 mov	 ecx, DWORD PTR _ar$[ebp]
  00106	bb ff ff ff 1f	 mov	 ebx, 536870911		; 1fffffffH
  0010b	3b c3		 cmp	 eax, ebx
  0010d	0f 42 d8	 cmovb	 ebx, eax
  00110	8d 3c 9d 00 00
	00 00		 lea	 edi, DWORD PTR [ebx*4]
  00117	57		 push	 edi
  00118	56		 push	 esi
  00119	e8 00 00 00 00	 call	 ?Write@CArchive@@QAEXPBXI@Z ; CArchive::Write

; 86   : 			nElementsLeft -= nElementsToWrite;

  0011e	8b 45 fc	 mov	 eax, DWORD PTR _nElementsLeft$1$[ebp]

; 87   : 			pData += nElementsToWrite;

  00121	03 f7		 add	 esi, edi
  00123	2b c3		 sub	 eax, ebx
  00125	89 45 fc	 mov	 DWORD PTR _nElementsLeft$1$[ebp], eax
  00128	85 c0		 test	 eax, eax
  0012a	75 d7		 jne	 SHORT $LL42@Serialize

; 88   : 		}
; 89   : 	}

  0012c	8b 5d 08	 mov	 ebx, DWORD PTR _ar$[ebp]
  0012f	eb 33		 jmp	 SHORT $LN5@Serialize
$LN47@Serialize:

; 90   : 	else
; 91   : 	{
; 92   : 		TYPE* pData;
; 93   : 		UINT_PTR nElementsLeft;
; 94   : 
; 95   : 		nElementsLeft = nCount;

  00131	bf 01 00 00 00	 mov	 edi, 1
$LL44@Serialize:

; 101  : 			nElementsToRead = UINT(__min(nElementsLeft, INT_MAX/sizeof(TYPE)));

  00136	b8 ff ff ff 1f	 mov	 eax, 536870911		; 1fffffffH
; File C:\Program Files (x86)\Microsoft Visual Studio\2019\Community\VC\Tools\MSVC\14.29.30133\atlmfc\include\afx.inl

; 399  : 	UINT nRead=Read(lpBuf, nCount);

  0013b	8b cb		 mov	 ecx, ebx
; File C:\Program Files (x86)\Microsoft Visual Studio\2019\Community\VC\Tools\MSVC\14.29.30133\atlmfc\include\afxtempl.h

; 101  : 			nElementsToRead = UINT(__min(nElementsLeft, INT_MAX/sizeof(TYPE)));

  0013d	3b f8		 cmp	 edi, eax
  0013f	0f 42 c7	 cmovb	 eax, edi
  00142	89 45 e4	 mov	 DWORD PTR _nElementsToRead$1$[ebp], eax

; 102  : 			ar.EnsureRead(pData, nElementsToRead*sizeof(TYPE));

  00145	c1 e0 02	 shl	 eax, 2
; File C:\Program Files (x86)\Microsoft Visual Studio\2019\Community\VC\Tools\MSVC\14.29.30133\atlmfc\include\afx.inl

; 399  : 	UINT nRead=Read(lpBuf, nCount);

  00148	50		 push	 eax
  00149	56		 push	 esi
; File C:\Program Files (x86)\Microsoft Visual Studio\2019\Community\VC\Tools\MSVC\14.29.30133\atlmfc\include\afxtempl.h

; 102  : 			ar.EnsureRead(pData, nElementsToRead*sizeof(TYPE));

  0014a	89 45 e0	 mov	 DWORD PTR _nCount$1$[ebp], eax
; File C:\Program Files (x86)\Microsoft Visual Studio\2019\Community\VC\Tools\MSVC\14.29.30133\atlmfc\include\afx.inl

; 399  : 	UINT nRead=Read(lpBuf, nCount);

  0014d	e8 00 00 00 00	 call	 ?Read@CArchive@@QAEIPAXI@Z ; CArchive::Read

; 400  : 	if(nRead!=nCount)

  00152	8b 4d e0	 mov	 ecx, DWORD PTR _nCount$1$[ebp]
  00155	3b c1		 cmp	 eax, ecx
  00157	0f 85 ac 02 00
	00		 jne	 $LN165@Serialize
; File C:\Program Files (x86)\Microsoft Visual Studio\2019\Community\VC\Tools\MSVC\14.29.30133\atlmfc\include\afxtempl.h

; 103  : 			nElementsLeft -= nElementsToRead;

  0015d	03 f1		 add	 esi, ecx
  0015f	2b 7d e4	 sub	 edi, DWORD PTR _nElementsToRead$1$[ebp]
  00162	75 d2		 jne	 SHORT $LL44@Serialize
$LN5@Serialize:

; 1758 : 			{
; 1759 : 				CAssoc* pAssoc;
; 1760 : 				for (pAssoc = m_pHashTable[nHash]; pAssoc != NULL; pAssoc = pAssoc->pNext)

  00164	8b 4d f8	 mov	 ecx, DWORD PTR _pAssoc$1$[ebp]
  00167	8b 49 08	 mov	 ecx, DWORD PTR [ecx+8]
  0016a	89 4d f8	 mov	 DWORD PTR _pAssoc$1$[ebp], ecx
  0016d	85 c9		 test	 ecx, ecx
  0016f	0f 85 ec fe ff
	ff		 jne	 $LL7@Serialize
  00175	8b 75 e8	 mov	 esi, DWORD PTR _this$1$[ebp]
$LN2@Serialize:

; 1756 : 		{
; 1757 : 			for (UINT nHash = 0; nHash < m_nHashTableSize; nHash++)

  00178	8b 4d f4	 mov	 ecx, DWORD PTR _nHash$1$[ebp]
  0017b	41		 inc	 ecx
  0017c	89 4d f4	 mov	 DWORD PTR _nHash$1$[ebp], ecx
  0017f	3b 4e 08	 cmp	 ecx, DWORD PTR [esi+8]
  00182	0f 82 c8 fe ff
	ff		 jb	 $LL4@Serialize

; 1787 : 		}
; 1788 : 	}
; 1789 : }

  00188	5f		 pop	 edi
  00189	5e		 pop	 esi
  0018a	5b		 pop	 ebx
  0018b	8b e5		 mov	 esp, ebp
  0018d	5d		 pop	 ebp
  0018e	c2 04 00	 ret	 4
$LN10@Serialize:

; 1771 : 					SerializeElements<KEY>(ar, pKey, 1);
; 1772 : 					SerializeElements<VALUE>(ar, pValue, 1);
; 1773 : 				}
; 1774 : 			}
; 1775 : 		}
; 1776 : 	}
; 1777 : 	else
; 1778 : 	{
; 1779 : 		DWORD_PTR nNewCount = ar.ReadCount();

  00191	e8 00 00 00 00	 call	 ?ReadCount@CArchive@@QAEKXZ ; CArchive::ReadCount

; 1780 : 		while (nNewCount--)

  00196	85 c0		 test	 eax, eax
  00198	0f 84 5d 02 00
	00		 je	 $LN189@Serialize
  0019e	66 90		 npad	 2
$LL8@Serialize:
  001a0	48		 dec	 eax
  001a1	89 45 f8	 mov	 DWORD PTR _nNewCount$1$[ebp], eax
; File C:\Program Files (x86)\Microsoft Visual Studio\2019\Community\VC\Tools\MSVC\14.29.30133\atlmfc\include\afx.inl

; 212  : 	{ return (m_nMode & CArchive::load) == 0; }

  001a4	8b 43 18	 mov	 eax, DWORD PTR [ebx+24]
  001a7	f7 d0		 not	 eax
  001a9	a8 01		 test	 al, 1
; File C:\Program Files (x86)\Microsoft Visual Studio\2019\Community\VC\Tools\MSVC\14.29.30133\atlmfc\include\afxtempl.h

; 73   : 	if (ar.IsStoring())

  001ab	74 43		 je	 SHORT $LN67@Serialize

; 74   : 	{
; 75   : 		TYPE* pData;
; 76   : 		UINT_PTR nElementsLeft;
; 77   : 
; 78   : 		nElementsLeft = nCount;

  001ad	b8 01 00 00 00	 mov	 eax, 1

; 79   : 		pData = pElements;

  001b2	8d 4d ec	 lea	 ecx, DWORD PTR _newKey$3[ebp]
  001b5	89 45 08	 mov	 DWORD PTR _nElementsLeft$1$[ebp], eax
  001b8	89 4d f4	 mov	 DWORD PTR _pData$1$[ebp], ecx
  001bb	0f 1f 44 00 00	 npad	 5
$LL62@Serialize:

; 80   : 		while( nElementsLeft > 0 )
; 81   : 		{
; 82   : 			UINT nElementsToWrite;
; 83   : 
; 84   : 			nElementsToWrite = UINT(__min(nElementsLeft, INT_MAX/sizeof(TYPE)));

  001c0	bf ff ff ff 1f	 mov	 edi, 536870911		; 1fffffffH
  001c5	3b c7		 cmp	 eax, edi
  001c7	0f 42 f8	 cmovb	 edi, eax

; 85   : 			ar.Write(pData, nElementsToWrite*sizeof(TYPE));

  001ca	8d 34 bd 00 00
	00 00		 lea	 esi, DWORD PTR [edi*4]
  001d1	56		 push	 esi
  001d2	51		 push	 ecx
  001d3	8b cb		 mov	 ecx, ebx
  001d5	e8 00 00 00 00	 call	 ?Write@CArchive@@QAEXPBXI@Z ; CArchive::Write

; 86   : 			nElementsLeft -= nElementsToWrite;

  001da	8b 45 08	 mov	 eax, DWORD PTR _nElementsLeft$1$[ebp]

; 87   : 			pData += nElementsToWrite;

  001dd	8b 4d f4	 mov	 ecx, DWORD PTR _pData$1$[ebp]
  001e0	2b c7		 sub	 eax, edi
  001e2	03 ce		 add	 ecx, esi
  001e4	89 45 08	 mov	 DWORD PTR _nElementsLeft$1$[ebp], eax
  001e7	89 4d f4	 mov	 DWORD PTR _pData$1$[ebp], ecx
  001ea	85 c0		 test	 eax, eax
  001ec	75 d2		 jne	 SHORT $LL62@Serialize

; 88   : 		}
; 89   : 	}

  001ee	eb 45		 jmp	 SHORT $LN81@Serialize
$LN67@Serialize:

; 96   : 		pData = pElements;

  001f0	8d 55 ec	 lea	 edx, DWORD PTR _newKey$3[ebp]
  001f3	be 01 00 00 00	 mov	 esi, 1
  001f8	89 55 08	 mov	 DWORD PTR _pData$1$[ebp], edx
  001fb	0f 1f 44 00 00	 npad	 5
$LL64@Serialize:

; 101  : 			nElementsToRead = UINT(__min(nElementsLeft, INT_MAX/sizeof(TYPE)));

  00200	bf ff ff ff 1f	 mov	 edi, 536870911		; 1fffffffH
; File C:\Program Files (x86)\Microsoft Visual Studio\2019\Community\VC\Tools\MSVC\14.29.30133\atlmfc\include\afx.inl

; 399  : 	UINT nRead=Read(lpBuf, nCount);

  00205	8b cb		 mov	 ecx, ebx
; File C:\Program Files (x86)\Microsoft Visual Studio\2019\Community\VC\Tools\MSVC\14.29.30133\atlmfc\include\afxtempl.h

; 101  : 			nElementsToRead = UINT(__min(nElementsLeft, INT_MAX/sizeof(TYPE)));

  00207	3b f7		 cmp	 esi, edi
  00209	0f 42 fe	 cmovb	 edi, esi

; 102  : 			ar.EnsureRead(pData, nElementsToRead*sizeof(TYPE));

  0020c	8d 04 bd 00 00
	00 00		 lea	 eax, DWORD PTR [edi*4]
; File C:\Program Files (x86)\Microsoft Visual Studio\2019\Community\VC\Tools\MSVC\14.29.30133\atlmfc\include\afx.inl

; 399  : 	UINT nRead=Read(lpBuf, nCount);

  00213	50		 push	 eax
  00214	52		 push	 edx
  00215	e8 00 00 00 00	 call	 ?Read@CArchive@@QAEIPAXI@Z ; CArchive::Read

; 400  : 	if(nRead!=nCount)

  0021a	8d 0c bd 00 00
	00 00		 lea	 ecx, DWORD PTR [edi*4]
  00221	3b c1		 cmp	 eax, ecx
  00223	0f 85 e0 01 00
	00		 jne	 $LN165@Serialize
; File C:\Program Files (x86)\Microsoft Visual Studio\2019\Community\VC\Tools\MSVC\14.29.30133\atlmfc\include\afxtempl.h

; 104  : 			pData += nElementsToRead;

  00229	8b 55 08	 mov	 edx, DWORD PTR _pData$1$[ebp]
  0022c	03 d1		 add	 edx, ecx
  0022e	89 55 08	 mov	 DWORD PTR _pData$1$[ebp], edx
  00231	2b f7		 sub	 esi, edi
  00233	75 cb		 jne	 SHORT $LL64@Serialize
$LN81@Serialize:
; File C:\Program Files (x86)\Microsoft Visual Studio\2019\Community\VC\Tools\MSVC\14.29.30133\atlmfc\include\afx.inl

; 212  : 	{ return (m_nMode & CArchive::load) == 0; }

  00235	8b 43 18	 mov	 eax, DWORD PTR [ebx+24]
  00238	f7 d0		 not	 eax
  0023a	a8 01		 test	 al, 1
; File C:\Program Files (x86)\Microsoft Visual Studio\2019\Community\VC\Tools\MSVC\14.29.30133\atlmfc\include\afxtempl.h

; 73   : 	if (ar.IsStoring())

  0023c	74 42		 je	 SHORT $LN87@Serialize

; 74   : 	{
; 75   : 		TYPE* pData;
; 76   : 		UINT_PTR nElementsLeft;
; 77   : 
; 78   : 		nElementsLeft = nCount;

  0023e	b8 01 00 00 00	 mov	 eax, 1

; 79   : 		pData = pElements;

  00243	8d 4d f0	 lea	 ecx, DWORD PTR _newValue$4[ebp]
  00246	89 45 08	 mov	 DWORD PTR _nElementsLeft$1$[ebp], eax
  00249	89 4d f4	 mov	 DWORD PTR _pData$1$[ebp], ecx
  0024c	0f 1f 40 00	 npad	 4
$LL82@Serialize:

; 80   : 		while( nElementsLeft > 0 )
; 81   : 		{
; 82   : 			UINT nElementsToWrite;
; 83   : 
; 84   : 			nElementsToWrite = UINT(__min(nElementsLeft, INT_MAX/sizeof(TYPE)));

  00250	bf ff ff ff 1f	 mov	 edi, 536870911		; 1fffffffH
  00255	3b c7		 cmp	 eax, edi
  00257	0f 42 f8	 cmovb	 edi, eax

; 85   : 			ar.Write(pData, nElementsToWrite*sizeof(TYPE));

  0025a	8d 34 bd 00 00
	00 00		 lea	 esi, DWORD PTR [edi*4]
  00261	56		 push	 esi
  00262	51		 push	 ecx
  00263	8b cb		 mov	 ecx, ebx
  00265	e8 00 00 00 00	 call	 ?Write@CArchive@@QAEXPBXI@Z ; CArchive::Write

; 86   : 			nElementsLeft -= nElementsToWrite;

  0026a	8b 45 08	 mov	 eax, DWORD PTR _nElementsLeft$1$[ebp]

; 87   : 			pData += nElementsToWrite;

  0026d	8b 4d f4	 mov	 ecx, DWORD PTR _pData$1$[ebp]
  00270	2b c7		 sub	 eax, edi
  00272	03 ce		 add	 ecx, esi
  00274	89 45 08	 mov	 DWORD PTR _nElementsLeft$1$[ebp], eax
  00277	89 4d f4	 mov	 DWORD PTR _pData$1$[ebp], ecx
  0027a	85 c0		 test	 eax, eax
  0027c	75 d2		 jne	 SHORT $LL82@Serialize

; 88   : 		}
; 89   : 	}

  0027e	eb 45		 jmp	 SHORT $LN85@Serialize
$LN87@Serialize:

; 96   : 		pData = pElements;

  00280	8d 55 f0	 lea	 edx, DWORD PTR _newValue$4[ebp]
  00283	be 01 00 00 00	 mov	 esi, 1
  00288	89 55 08	 mov	 DWORD PTR _pData$1$[ebp], edx
  0028b	0f 1f 44 00 00	 npad	 5
$LL84@Serialize:

; 101  : 			nElementsToRead = UINT(__min(nElementsLeft, INT_MAX/sizeof(TYPE)));

  00290	bf ff ff ff 1f	 mov	 edi, 536870911		; 1fffffffH
; File C:\Program Files (x86)\Microsoft Visual Studio\2019\Community\VC\Tools\MSVC\14.29.30133\atlmfc\include\afx.inl

; 399  : 	UINT nRead=Read(lpBuf, nCount);

  00295	8b cb		 mov	 ecx, ebx
; File C:\Program Files (x86)\Microsoft Visual Studio\2019\Community\VC\Tools\MSVC\14.29.30133\atlmfc\include\afxtempl.h

; 101  : 			nElementsToRead = UINT(__min(nElementsLeft, INT_MAX/sizeof(TYPE)));

  00297	3b f7		 cmp	 esi, edi
  00299	0f 42 fe	 cmovb	 edi, esi

; 102  : 			ar.EnsureRead(pData, nElementsToRead*sizeof(TYPE));

  0029c	8d 04 bd 00 00
	00 00		 lea	 eax, DWORD PTR [edi*4]
; File C:\Program Files (x86)\Microsoft Visual Studio\2019\Community\VC\Tools\MSVC\14.29.30133\atlmfc\include\afx.inl

; 399  : 	UINT nRead=Read(lpBuf, nCount);

  002a3	50		 push	 eax
  002a4	52		 push	 edx
  002a5	e8 00 00 00 00	 call	 ?Read@CArchive@@QAEIPAXI@Z ; CArchive::Read

; 400  : 	if(nRead!=nCount)

  002aa	8d 0c bd 00 00
	00 00		 lea	 ecx, DWORD PTR [edi*4]
  002b1	3b c1		 cmp	 eax, ecx
  002b3	0f 85 50 01 00
	00		 jne	 $LN165@Serialize
; File C:\Program Files (x86)\Microsoft Visual Studio\2019\Community\VC\Tools\MSVC\14.29.30133\atlmfc\include\afxtempl.h

; 104  : 			pData += nElementsToRead;

  002b9	8b 55 08	 mov	 edx, DWORD PTR _pData$1$[ebp]
  002bc	03 d1		 add	 edx, ecx
  002be	89 55 08	 mov	 DWORD PTR _pData$1$[ebp], edx
  002c1	2b f7		 sub	 esi, edi
  002c3	75 cb		 jne	 SHORT $LL84@Serialize
$LN85@Serialize:

; 1781 : 		{
; 1782 : 			KEY newKey[1];
; 1783 : 			VALUE newValue[1];
; 1784 : 			SerializeElements<KEY>(ar, newKey, 1);
; 1785 : 			SerializeElements<VALUE>(ar, newValue, 1);
; 1786 : 			SetAt(newKey[0], newValue[0]);

  002c5	8b 45 f0	 mov	 eax, DWORD PTR _newValue$4[ebp]
  002c8	b9 1d f3 01 00	 mov	 ecx, 127773		; 0001f31dH
  002cd	89 45 e4	 mov	 DWORD PTR _newValue$1$[ebp], eax
  002d0	8b 45 ec	 mov	 eax, DWORD PTR _newKey$3[ebp]
  002d3	89 45 f4	 mov	 DWORD PTR _key$1$[ebp], eax
  002d6	99		 cdq
  002d7	f7 f9		 idiv	 ecx

; 1534 : 	nHashBucket = nHashValue % m_nHashTableSize;

  002d9	8b 75 e8	 mov	 esi, DWORD PTR _this$1$[ebp]

; 166  : 	HashVal.rem = 16807 * HashVal.rem - 2836 * HashVal.quot;

  002dc	69 c0 14 0b 00
	00		 imul	 eax, eax, 2836
  002e2	69 ca a7 41 00
	00		 imul	 ecx, edx, 16807
  002e8	2b c8		 sub	 ecx, eax

; 1534 : 	nHashBucket = nHashValue % m_nHashTableSize;

  002ea	8d b9 ff ff ff
	7f		 lea	 edi, DWORD PTR [ecx+2147483647]
  002f0	0f 49 f9	 cmovns	 edi, ecx
  002f3	8b 4e 08	 mov	 ecx, DWORD PTR [esi+8]
  002f6	33 d2		 xor	 edx, edx
  002f8	89 4d 08	 mov	 DWORD PTR _nHashSize$1$[ebp], ecx
  002fb	8b c7		 mov	 eax, edi
  002fd	f7 f1		 div	 ecx

; 1535 : 
; 1536 : 	if (m_pHashTable == NULL)

  002ff	8b 4e 04	 mov	 ecx, DWORD PTR [esi+4]
  00302	8b c2		 mov	 eax, edx
  00304	89 45 e0	 mov	 DWORD PTR _nHashBucket$1$[ebp], eax
  00307	85 c9		 test	 ecx, ecx
  00309	75 49		 jne	 SHORT $LN112@Serialize

; 1434 : 		m_pHashTable = new CAssoc* [nHashSize];

  0030b	8b 45 08	 mov	 eax, DWORD PTR _nHashSize$1$[ebp]
  0030e	ba 04 00 00 00	 mov	 edx, 4
  00313	f7 e2		 mul	 edx
  00315	0f 90 c1	 seto	 cl
  00318	f7 d9		 neg	 ecx
  0031a	0b c8		 or	 ecx, eax
  0031c	51		 push	 ecx
  0031d	e8 00 00 00 00	 call	 ??_U@YAPAXI@Z		; operator new[]
  00322	83 c4 04	 add	 esp, 4
  00325	89 46 04	 mov	 DWORD PTR [esi+4], eax

; 1435 : 		ENSURE(m_pHashTable != NULL);

  00328	85 c0		 test	 eax, eax
  0032a	0f 84 d4 00 00
	00		 je	 $LN167@Serialize

; 1436 : 		memset(m_pHashTable, 0, sizeof(CAssoc*) * nHashSize);

  00330	8b 4d 08	 mov	 ecx, DWORD PTR _nHashSize$1$[ebp]
  00333	c1 e1 02	 shl	 ecx, 2
  00336	51		 push	 ecx
  00337	6a 00		 push	 0
  00339	50		 push	 eax
  0033a	e8 00 00 00 00	 call	 _memset

; 1437 : 	}
; 1438 : 	m_nHashTableSize = nHashSize;

  0033f	8b 45 08	 mov	 eax, DWORD PTR _nHashSize$1$[ebp]
  00342	83 c4 0c	 add	 esp, 12			; 0000000cH

; 1595 : 		ENSURE(m_pHashTable);

  00345	83 7e 04 00	 cmp	 DWORD PTR [esi+4], 0

; 1438 : 	m_nHashTableSize = nHashSize;

  00349	89 46 08	 mov	 DWORD PTR [esi+8], eax

; 1595 : 		ENSURE(m_pHashTable);

  0034c	0f 84 b2 00 00
	00		 je	 $LN167@Serialize
  00352	eb 20		 jmp	 SHORT $LN225@Serialize
$LN112@Serialize:

; 1541 : 	for (pAssoc = m_pHashTable[nHashBucket]; pAssoc != NULL; pAssoc = pAssoc->pNext)

  00354	8b 0c 81	 mov	 ecx, DWORD PTR [ecx+eax*4]
  00357	85 c9		 test	 ecx, ecx
  00359	74 19		 je	 SHORT $LN225@Serialize
  0035b	8b 45 f4	 mov	 eax, DWORD PTR _key$1$[ebp]
  0035e	66 90		 npad	 2
$LL111@Serialize:

; 1542 : 	{
; 1543 : 		if (pAssoc->nHashValue == nHashValue && CompareElements(&pAssoc->key, &key))

  00360	39 79 0c	 cmp	 DWORD PTR [ecx+12], edi
  00363	75 08		 jne	 SHORT $LN109@Serialize

; 156  : 	return *pElement1 == *pElement2;

  00365	39 01		 cmp	 DWORD PTR [ecx], eax

; 1543 : 		if (pAssoc->nHashValue == nHashValue && CompareElements(&pAssoc->key, &key))

  00367	0f 84 7d 00 00
	00		 je	 $LN104@Serialize
$LN109@Serialize:

; 1537 : 		return NULL;
; 1538 : 
; 1539 : 	// see if it exists
; 1540 : 	CAssoc* pAssoc;
; 1541 : 	for (pAssoc = m_pHashTable[nHashBucket]; pAssoc != NULL; pAssoc = pAssoc->pNext)

  0036d	8b 49 08	 mov	 ecx, DWORD PTR [ecx+8]
  00370	85 c9		 test	 ecx, ecx
  00372	75 ec		 jne	 SHORT $LL111@Serialize
$LN225@Serialize:

; 1481 : 	if (m_pFreeList == NULL)

  00374	83 7e 10 00	 cmp	 DWORD PTR [esi+16], 0
  00378	75 37		 jne	 SHORT $LN142@Serialize

; 1482 : 	{
; 1483 : 		// add another block
; 1484 : 		CPlex* newBlock = CPlex::Create(m_pBlocks, m_nBlockSize, sizeof(CMap::CAssoc));

  0037a	6a 10		 push	 16			; 00000010H
  0037c	ff 76 18	 push	 DWORD PTR [esi+24]
  0037f	8d 46 14	 lea	 eax, DWORD PTR [esi+20]
  00382	50		 push	 eax
  00383	e8 00 00 00 00	 call	 ?Create@CPlex@@SGPAU1@AAPAU1@II@Z ; CPlex::Create

; 1485 : 		// chain them into free list
; 1486 : 		CMap::CAssoc* pAssoc = (CMap::CAssoc*) newBlock->data();
; 1487 : 		// free in reverse order to make it easier to debug
; 1488 : 		pAssoc += m_nBlockSize - 1;

  00388	8b 56 18	 mov	 edx, DWORD PTR [esi+24]
  0038b	83 c0 08	 add	 eax, 8
  0038e	8b ca		 mov	 ecx, edx
  00390	c1 e1 04	 shl	 ecx, 4
  00393	83 c1 f0	 add	 ecx, -16		; fffffff0H
  00396	03 c8		 add	 ecx, eax

; 1489 : 		for (INT_PTR i = m_nBlockSize-1; i >= 0; i--, pAssoc--)

  00398	83 c2 ff	 add	 edx, -1
  0039b	78 14		 js	 SHORT $LN142@Serialize
  0039d	0f 1f 00	 npad	 3
$LL139@Serialize:

; 1490 : 		{
; 1491 : 			pAssoc->pNext = m_pFreeList;

  003a0	8b 46 10	 mov	 eax, DWORD PTR [esi+16]
  003a3	89 41 08	 mov	 DWORD PTR [ecx+8], eax

; 1492 : 			m_pFreeList = pAssoc;

  003a6	89 4e 10	 mov	 DWORD PTR [esi+16], ecx
  003a9	83 e9 10	 sub	 ecx, 16			; 00000010H
  003ac	83 ea 01	 sub	 edx, 1
  003af	79 ef		 jns	 SHORT $LL139@Serialize
$LN142@Serialize:

; 1493 : 		}
; 1494 : 	}
; 1495 : 	ENSURE(m_pFreeList != NULL);  // we must have something

  003b1	8b 4e 10	 mov	 ecx, DWORD PTR [esi+16]
  003b4	85 c9		 test	 ecx, ecx
  003b6	74 4c		 je	 SHORT $LN167@Serialize

; 1496 : 
; 1497 : 	CMap::CAssoc* pAssoc = m_pFreeList;
; 1498 : 
; 1499 : 	// zero the memory
; 1500 : 	CMap::CAssoc* pTemp = pAssoc->pNext;

  003b8	8b 41 08	 mov	 eax, DWORD PTR [ecx+8]
  003bb	0f 57 c0	 xorps	 xmm0, xmm0

; 1602 : 		pAssoc->pNext = m_pHashTable[nHashBucket];

  003be	8b 55 e0	 mov	 edx, DWORD PTR _nHashBucket$1$[ebp]

; 1501 : 	memset( pAssoc, 0, sizeof(CMap::CAssoc) );

  003c1	0f 11 01	 movups	 XMMWORD PTR [ecx], xmm0

; 1502 : 	pAssoc->pNext = pTemp;

  003c4	89 41 08	 mov	 DWORD PTR [ecx+8], eax

; 1503 : 
; 1504 : 	m_pFreeList = m_pFreeList->pNext;

  003c7	8b 46 10	 mov	 eax, DWORD PTR [esi+16]
  003ca	8b 40 08	 mov	 eax, DWORD PTR [eax+8]

; 1505 : 	m_nCount++;

  003cd	ff 46 0c	 inc	 DWORD PTR [esi+12]
  003d0	89 46 10	 mov	 DWORD PTR [esi+16], eax

; 1256 : 		CPair( ARG_KEY keyval ) : key( keyval )	{}

  003d3	8b 45 f4	 mov	 eax, DWORD PTR _key$1$[ebp]
  003d6	89 01		 mov	 DWORD PTR [ecx], eax

; 1598 : 		pAssoc->nHashValue = nHashValue;

  003d8	89 79 0c	 mov	 DWORD PTR [ecx+12], edi

; 1599 : 		//'pAssoc->value' is a constructed object, nothing more
; 1600 : 
; 1601 : 		// put into hash table
; 1602 : 		pAssoc->pNext = m_pHashTable[nHashBucket];

  003db	8b 46 04	 mov	 eax, DWORD PTR [esi+4]
  003de	8b 04 90	 mov	 eax, DWORD PTR [eax+edx*4]
  003e1	89 41 08	 mov	 DWORD PTR [ecx+8], eax

; 1603 : 		m_pHashTable[nHashBucket] = pAssoc;

  003e4	8b 46 04	 mov	 eax, DWORD PTR [esi+4]
  003e7	89 0c 90	 mov	 DWORD PTR [eax+edx*4], ecx
$LN104@Serialize:

; 1350 : 	{ (*this)[key] = newValue; }

  003ea	8b 45 e4	 mov	 eax, DWORD PTR _newValue$1$[ebp]
  003ed	89 41 04	 mov	 DWORD PTR [ecx+4], eax

; 1780 : 		while (nNewCount--)

  003f0	8b 45 f8	 mov	 eax, DWORD PTR _nNewCount$1$[ebp]
  003f3	85 c0		 test	 eax, eax
  003f5	0f 85 a5 fd ff
	ff		 jne	 $LL8@Serialize
$LN189@Serialize:
  003fb	5f		 pop	 edi

; 1787 : 		}
; 1788 : 	}
; 1789 : }

  003fc	5e		 pop	 esi
  003fd	5b		 pop	 ebx
  003fe	8b e5		 mov	 esp, ebp
  00400	5d		 pop	 ebp
  00401	c2 04 00	 ret	 4
$LN167@Serialize:
  00404	e8 00 00 00 00	 call	 ?AfxThrowInvalidArgException@@YGXXZ ; AfxThrowInvalidArgException
$LN165@Serialize:
  00409	6a 00		 push	 0
  0040b	6a 03		 push	 3
  0040d	e8 00 00 00 00	 call	 ?AfxThrowArchiveException@@YGXHPBD@Z ; AfxThrowArchiveException
$LN226@Serialize:
  00412	cc		 int	 3
?Serialize@?$CMap@HHPAVCStringList@@PAV1@@@UAEXAAVCArchive@@@Z ENDP ; CMap<int,int,CStringList *,CStringList *>::Serialize
_TEXT	ENDS
; Function compile flags: /Ogtp
; File C:\Program Files (x86)\Microsoft Visual Studio\2019\Community\VC\Tools\MSVC\14.29.30133\atlmfc\include\afxtempl.h
;	COMDAT ??1?$CMap@HHPAVCStringList@@PAV1@@@UAE@XZ
_TEXT	SEGMENT
__$EHRec$ = -12						; size = 12
??1?$CMap@HHPAVCStringList@@PAV1@@@UAE@XZ PROC		; CMap<int,int,CStringList *,CStringList *>::~CMap<int,int,CStringList *,CStringList *>, COMDAT
; _this$ = ecx

; 1472 : {

  00000	55		 push	 ebp
  00001	8b ec		 mov	 ebp, esp
  00003	6a ff		 push	 -1
  00005	68 00 00 00 00	 push	 __ehhandler$??1?$CMap@HHPAVCStringList@@PAV1@@@UAE@XZ
  0000a	64 a1 00 00 00
	00		 mov	 eax, DWORD PTR fs:0
  00010	50		 push	 eax
  00011	56		 push	 esi
  00012	a1 00 00 00 00	 mov	 eax, DWORD PTR ___security_cookie
  00017	33 c5		 xor	 eax, ebp
  00019	50		 push	 eax
  0001a	8d 45 f4	 lea	 eax, DWORD PTR __$EHRec$[ebp]
  0001d	64 a3 00 00 00
	00		 mov	 DWORD PTR fs:0, eax
  00023	8b f1		 mov	 esi, ecx

; 1446 : 	if (m_pHashTable != NULL)

  00025	8b 46 04	 mov	 eax, DWORD PTR [esi+4]

; 1472 : {

  00028	c7 06 00 00 00
	00		 mov	 DWORD PTR [esi], OFFSET ??_7?$CMap@HHPAVCStringList@@PAV1@@@6B@

; 1446 : 	if (m_pHashTable != NULL)

  0002e	85 c0		 test	 eax, eax
  00030	74 10		 je	 SHORT $LN10@CMap

; 1447 : 	{
; 1448 : 		// destroy elements (values and keys)
; 1449 : 		for (UINT nHash = 0; nHash < m_nHashTableSize; nHash++)
; 1450 : 		{
; 1451 : 			CAssoc* pAssoc;
; 1452 : 			for (pAssoc = m_pHashTable[nHash]; pAssoc != NULL;
; 1453 : 			  pAssoc = pAssoc->pNext)
; 1454 : 			{
; 1455 : 				pAssoc->CAssoc::~CAssoc();
; 1456 : 			}
; 1457 : 		}
; 1458 : 
; 1459 : 		// free hash table
; 1460 : 		delete[] m_pHashTable;

  00032	50		 push	 eax
  00033	e8 00 00 00 00	 call	 ??_V@YAXPAX@Z		; operator delete[]
  00038	83 c4 04	 add	 esp, 4

; 1461 : 		m_pHashTable = NULL;

  0003b	c7 46 04 00 00
	00 00		 mov	 DWORD PTR [esi+4], 0
$LN10@CMap:

; 1462 : 	}
; 1463 : 
; 1464 : 	m_nCount = 0;
; 1465 : 	m_pFreeList = NULL;
; 1466 : 	m_pBlocks->FreeDataChain();

  00042	8b 4e 14	 mov	 ecx, DWORD PTR [esi+20]
  00045	c7 46 0c 00 00
	00 00		 mov	 DWORD PTR [esi+12], 0
  0004c	c7 46 10 00 00
	00 00		 mov	 DWORD PTR [esi+16], 0
  00053	e8 00 00 00 00	 call	 ?FreeDataChain@CPlex@@QAEXXZ ; CPlex::FreeDataChain

; 1467 : 	m_pBlocks = NULL;

  00058	c7 46 14 00 00
	00 00		 mov	 DWORD PTR [esi+20], 0

; 1473 : 	RemoveAll();
; 1474 : 	ASSERT(m_nCount == 0);
; 1475 : }

  0005f	8b 4d f4	 mov	 ecx, DWORD PTR __$EHRec$[ebp]
  00062	64 89 0d 00 00
	00 00		 mov	 DWORD PTR fs:0, ecx
  00069	59		 pop	 ecx
  0006a	5e		 pop	 esi
  0006b	8b e5		 mov	 esp, ebp
  0006d	5d		 pop	 ebp
  0006e	c3		 ret	 0
  0006f	cc		 int	 3
  00070	cc		 int	 3
  00071	cc		 int	 3
  00072	cc		 int	 3
  00073	cc		 int	 3
_TEXT	ENDS
;	COMDAT text$x
text$x	SEGMENT
__ehhandler$??1?$CMap@HHPAVCStringList@@PAV1@@@UAE@XZ:
  00000	90		 npad	 1
  00001	90		 npad	 1
  00002	8b 54 24 08	 mov	 edx, DWORD PTR [esp+8]
  00006	8d 42 0c	 lea	 eax, DWORD PTR [edx+12]
  00009	8b 4a f8	 mov	 ecx, DWORD PTR [edx-8]
  0000c	33 c8		 xor	 ecx, eax
  0000e	e8 00 00 00 00	 call	 @__security_check_cookie@4
  00013	b8 00 00 00 00	 mov	 eax, OFFSET __ehfuncinfo$??1?$CMap@HHPAVCStringList@@PAV1@@@UAE@XZ
  00018	e9 00 00 00 00	 jmp	 ___CxxFrameHandler3
text$x	ENDS
??1?$CMap@HHPAVCStringList@@PAV1@@@UAE@XZ ENDP		; CMap<int,int,CStringList *,CStringList *>::~CMap<int,int,CStringList *,CStringList *>
; Function compile flags: /Ogtp
; File C:\Program Files (x86)\Microsoft Visual Studio\2019\Community\VC\Tools\MSVC\14.29.30133\atlmfc\include\afxtempl.h
;	COMDAT ?GetAssocAt@?$CMap@HHPAVCStringList@@PAV1@@@IBEPAVCAssoc@1@HAAI0@Z
_TEXT	SEGMENT
_key$ = 8						; size = 4
_nHashBucket$ = 12					; size = 4
_nHashValue$ = 16					; size = 4
?GetAssocAt@?$CMap@HHPAVCStringList@@PAV1@@@IBEPAVCAssoc@1@HAAI0@Z PROC ; CMap<int,int,CStringList *,CStringList *>::GetAssocAt, COMDAT
; _this$ = ecx

; 1532 : {

  00000	55		 push	 ebp
  00001	8b ec		 mov	 ebp, esp
  00003	56		 push	 esi
  00004	8b f1		 mov	 esi, ecx

; 165  : 	ldiv_t HashVal = ldiv((long)(ARG_KEY)key, 127773);

  00006	b9 1d f3 01 00	 mov	 ecx, 127773		; 0001f31dH

; 1532 : {

  0000b	57		 push	 edi

; 165  : 	ldiv_t HashVal = ldiv((long)(ARG_KEY)key, 127773);

  0000c	8b 7d 08	 mov	 edi, DWORD PTR _key$[ebp]
  0000f	8b c7		 mov	 eax, edi
  00011	99		 cdq
  00012	f7 f9		 idiv	 ecx

; 166  : 	HashVal.rem = 16807 * HashVal.rem - 2836 * HashVal.quot;

  00014	69 c0 14 0b 00
	00		 imul	 eax, eax, 2836
  0001a	69 ca a7 41 00
	00		 imul	 ecx, edx, 16807
  00020	2b c8		 sub	 ecx, eax

; 1533 : 	nHashValue = HashKey<ARG_KEY>(key);

  00022	8d 81 ff ff ff
	7f		 lea	 eax, DWORD PTR [ecx+2147483647]
  00028	0f 49 c1	 cmovns	 eax, ecx
  0002b	8b 4d 10	 mov	 ecx, DWORD PTR _nHashValue$[ebp]

; 1534 : 	nHashBucket = nHashValue % m_nHashTableSize;

  0002e	33 d2		 xor	 edx, edx
  00030	89 01		 mov	 DWORD PTR [ecx], eax
  00032	f7 76 08	 div	 DWORD PTR [esi+8]
  00035	8b 45 0c	 mov	 eax, DWORD PTR _nHashBucket$[ebp]
  00038	89 10		 mov	 DWORD PTR [eax], edx

; 1535 : 
; 1536 : 	if (m_pHashTable == NULL)

  0003a	8b 46 04	 mov	 eax, DWORD PTR [esi+4]
  0003d	85 c0		 test	 eax, eax
  0003f	74 1f		 je	 SHORT $LN26@GetAssocAt

; 1537 : 		return NULL;
; 1538 : 
; 1539 : 	// see if it exists
; 1540 : 	CAssoc* pAssoc;
; 1541 : 	for (pAssoc = m_pHashTable[nHashBucket]; pAssoc != NULL; pAssoc = pAssoc->pNext)

  00041	8b 04 90	 mov	 eax, DWORD PTR [eax+edx*4]
  00044	85 c0		 test	 eax, eax
  00046	74 18		 je	 SHORT $LN26@GetAssocAt

; 1542 : 	{
; 1543 : 		if (pAssoc->nHashValue == nHashValue && CompareElements(&pAssoc->key, &key))

  00048	8b 09		 mov	 ecx, DWORD PTR [ecx]
  0004a	66 0f 1f 44 00
	00		 npad	 6
$LL4@GetAssocAt:
  00050	39 48 0c	 cmp	 DWORD PTR [eax+12], ecx
  00053	75 04		 jne	 SHORT $LN2@GetAssocAt

; 156  : 	return *pElement1 == *pElement2;

  00055	39 38		 cmp	 DWORD PTR [eax], edi

; 1542 : 	{
; 1543 : 		if (pAssoc->nHashValue == nHashValue && CompareElements(&pAssoc->key, &key))

  00057	74 09		 je	 SHORT $LN1@GetAssocAt
$LN2@GetAssocAt:

; 1537 : 		return NULL;
; 1538 : 
; 1539 : 	// see if it exists
; 1540 : 	CAssoc* pAssoc;
; 1541 : 	for (pAssoc = m_pHashTable[nHashBucket]; pAssoc != NULL; pAssoc = pAssoc->pNext)

  00059	8b 40 08	 mov	 eax, DWORD PTR [eax+8]
  0005c	85 c0		 test	 eax, eax
  0005e	75 f0		 jne	 SHORT $LL4@GetAssocAt
$LN26@GetAssocAt:

; 1544 : 			return pAssoc;
; 1545 : 	}
; 1546 : 	return NULL;

  00060	33 c0		 xor	 eax, eax
$LN1@GetAssocAt:
  00062	5f		 pop	 edi

; 1547 : }

  00063	5e		 pop	 esi
  00064	5d		 pop	 ebp
  00065	c2 0c 00	 ret	 12			; 0000000cH
?GetAssocAt@?$CMap@HHPAVCStringList@@PAV1@@@IBEPAVCAssoc@1@HAAI0@Z ENDP ; CMap<int,int,CStringList *,CStringList *>::GetAssocAt
_TEXT	ENDS
; Function compile flags: /Ogtp
; File C:\Program Files (x86)\Microsoft Visual Studio\2019\Community\VC\Tools\MSVC\14.29.30133\atlmfc\include\afxtempl.h
;	COMDAT ?NewAssoc@?$CMap@HHPAVCStringList@@PAV1@@@IAEPAVCAssoc@1@H@Z
_TEXT	SEGMENT
_key$ = 8						; size = 4
?NewAssoc@?$CMap@HHPAVCStringList@@PAV1@@@IAEPAVCAssoc@1@H@Z PROC ; CMap<int,int,CStringList *,CStringList *>::NewAssoc, COMDAT
; _this$ = ecx

; 1480 : {

  00000	55		 push	 ebp
  00001	8b ec		 mov	 ebp, esp
  00003	56		 push	 esi
  00004	8b f1		 mov	 esi, ecx

; 1481 : 	if (m_pFreeList == NULL)

  00006	83 7e 10 00	 cmp	 DWORD PTR [esi+16], 0
  0000a	75 35		 jne	 SHORT $LN7@NewAssoc

; 1482 : 	{
; 1483 : 		// add another block
; 1484 : 		CPlex* newBlock = CPlex::Create(m_pBlocks, m_nBlockSize, sizeof(CMap::CAssoc));

  0000c	6a 10		 push	 16			; 00000010H
  0000e	ff 76 18	 push	 DWORD PTR [esi+24]
  00011	8d 46 14	 lea	 eax, DWORD PTR [esi+20]
  00014	50		 push	 eax
  00015	e8 00 00 00 00	 call	 ?Create@CPlex@@SGPAU1@AAPAU1@II@Z ; CPlex::Create

; 1485 : 		// chain them into free list
; 1486 : 		CMap::CAssoc* pAssoc = (CMap::CAssoc*) newBlock->data();
; 1487 : 		// free in reverse order to make it easier to debug
; 1488 : 		pAssoc += m_nBlockSize - 1;

  0001a	8b 56 18	 mov	 edx, DWORD PTR [esi+24]
  0001d	83 c0 08	 add	 eax, 8
  00020	8b ca		 mov	 ecx, edx
  00022	c1 e1 04	 shl	 ecx, 4
  00025	83 c1 f0	 add	 ecx, -16		; fffffff0H
  00028	03 c1		 add	 eax, ecx

; 1489 : 		for (INT_PTR i = m_nBlockSize-1; i >= 0; i--, pAssoc--)

  0002a	83 c2 ff	 add	 edx, -1
  0002d	78 12		 js	 SHORT $LN7@NewAssoc
  0002f	90		 npad	 1
$LL4@NewAssoc:

; 1490 : 		{
; 1491 : 			pAssoc->pNext = m_pFreeList;

  00030	8b 4e 10	 mov	 ecx, DWORD PTR [esi+16]
  00033	89 48 08	 mov	 DWORD PTR [eax+8], ecx

; 1492 : 			m_pFreeList = pAssoc;

  00036	89 46 10	 mov	 DWORD PTR [esi+16], eax
  00039	83 e8 10	 sub	 eax, 16			; 00000010H
  0003c	83 ea 01	 sub	 edx, 1
  0003f	79 ef		 jns	 SHORT $LL4@NewAssoc
$LN7@NewAssoc:

; 1493 : 		}
; 1494 : 	}
; 1495 : 	ENSURE(m_pFreeList != NULL);  // we must have something

  00041	8b 46 10	 mov	 eax, DWORD PTR [esi+16]
  00044	85 c0		 test	 eax, eax
  00046	74 22		 je	 SHORT $LN21@NewAssoc

; 1496 : 
; 1497 : 	CMap::CAssoc* pAssoc = m_pFreeList;
; 1498 : 
; 1499 : 	// zero the memory
; 1500 : 	CMap::CAssoc* pTemp = pAssoc->pNext;

  00048	8b 48 08	 mov	 ecx, DWORD PTR [eax+8]
  0004b	0f 57 c0	 xorps	 xmm0, xmm0

; 1501 : 	memset( pAssoc, 0, sizeof(CMap::CAssoc) );

  0004e	0f 11 00	 movups	 XMMWORD PTR [eax], xmm0

; 1502 : 	pAssoc->pNext = pTemp;

  00051	89 48 08	 mov	 DWORD PTR [eax+8], ecx

; 1503 : 
; 1504 : 	m_pFreeList = m_pFreeList->pNext;

  00054	8b 4e 10	 mov	 ecx, DWORD PTR [esi+16]
  00057	8b 49 08	 mov	 ecx, DWORD PTR [ecx+8]

; 1505 : 	m_nCount++;

  0005a	ff 46 0c	 inc	 DWORD PTR [esi+12]
  0005d	89 4e 10	 mov	 DWORD PTR [esi+16], ecx

; 1256 : 		CPair( ARG_KEY keyval ) : key( keyval )	{}

  00060	8b 4d 08	 mov	 ecx, DWORD PTR _key$[ebp]
  00063	89 08		 mov	 DWORD PTR [eax], ecx

; 1506 : 	ASSERT(m_nCount > 0);  // make sure we don't overflow
; 1507 : #pragma push_macro("new")
; 1508 : #undef new
; 1509 : 	::new(pAssoc) CMap::CAssoc(key);
; 1510 : #pragma pop_macro("new")
; 1511 : 	return pAssoc;

  00065	5e		 pop	 esi

; 1512 : }

  00066	5d		 pop	 ebp
  00067	c2 04 00	 ret	 4
$LN21@NewAssoc:

; 1493 : 		}
; 1494 : 	}
; 1495 : 	ENSURE(m_pFreeList != NULL);  // we must have something

  0006a	e8 00 00 00 00	 call	 ?AfxThrowInvalidArgException@@YGXXZ ; AfxThrowInvalidArgException
$LN19@NewAssoc:
  0006f	cc		 int	 3
?NewAssoc@?$CMap@HHPAVCStringList@@PAV1@@@IAEPAVCAssoc@1@H@Z ENDP ; CMap<int,int,CStringList *,CStringList *>::NewAssoc
_TEXT	ENDS
; Function compile flags: /Ogtp
; File C:\Program Files (x86)\Microsoft Visual Studio\2019\Community\VC\Tools\MSVC\14.29.30133\atlmfc\include\afxtempl.h
;	COMDAT ?InitHashTable@?$CMap@HHPAVCStringList@@PAV1@@@QAEXIH@Z
_TEXT	SEGMENT
_nHashSize$ = 8						; size = 4
_bAllocNow$ = 12					; size = 4
?InitHashTable@?$CMap@HHPAVCStringList@@PAV1@@@QAEXIH@Z PROC ; CMap<int,int,CStringList *,CStringList *>::InitHashTable, COMDAT
; _this$ = ecx

; 1420 : {

  00000	55		 push	 ebp
  00001	8b ec		 mov	 ebp, esp
  00003	56		 push	 esi
  00004	8b f1		 mov	 esi, ecx
  00006	57		 push	 edi

; 1421 : 	ASSERT_VALID(this);
; 1422 : 	ASSERT(m_nCount == 0);
; 1423 : 	ASSERT(nHashSize > 0);
; 1424 : 
; 1425 : 	if (m_pHashTable != NULL)

  00007	8b 46 04	 mov	 eax, DWORD PTR [esi+4]
  0000a	85 c0		 test	 eax, eax
  0000c	74 10		 je	 SHORT $LN5@InitHashTa

; 1426 : 	{
; 1427 : 		// free hash table
; 1428 : 		delete[] m_pHashTable;

  0000e	50		 push	 eax
  0000f	e8 00 00 00 00	 call	 ??_V@YAXPAX@Z		; operator delete[]
  00014	83 c4 04	 add	 esp, 4

; 1429 : 		m_pHashTable = NULL;

  00017	c7 46 04 00 00
	00 00		 mov	 DWORD PTR [esi+4], 0
$LN5@InitHashTa:

; 1430 : 	}
; 1431 : 
; 1432 : 	if (bAllocNow)

  0001e	83 7d 0c 00	 cmp	 DWORD PTR _bAllocNow$[ebp], 0
  00022	8b 7d 08	 mov	 edi, DWORD PTR _nHashSize$[ebp]
  00025	74 37		 je	 SHORT $LN6@InitHashTa

; 1433 : 	{
; 1434 : 		m_pHashTable = new CAssoc* [nHashSize];

  00027	33 c9		 xor	 ecx, ecx
  00029	8b c7		 mov	 eax, edi
  0002b	ba 04 00 00 00	 mov	 edx, 4
  00030	f7 e2		 mul	 edx
  00032	0f 90 c1	 seto	 cl
  00035	f7 d9		 neg	 ecx
  00037	0b c8		 or	 ecx, eax
  00039	51		 push	 ecx
  0003a	e8 00 00 00 00	 call	 ??_U@YAPAXI@Z		; operator new[]
  0003f	8b c8		 mov	 ecx, eax
  00041	83 c4 04	 add	 esp, 4
  00044	89 4e 04	 mov	 DWORD PTR [esi+4], ecx

; 1435 : 		ENSURE(m_pHashTable != NULL);

  00047	85 c9		 test	 ecx, ecx
  00049	74 1c		 je	 SHORT $LN11@InitHashTa

; 1436 : 		memset(m_pHashTable, 0, sizeof(CAssoc*) * nHashSize);

  0004b	8d 04 bd 00 00
	00 00		 lea	 eax, DWORD PTR [edi*4]
  00052	50		 push	 eax
  00053	6a 00		 push	 0
  00055	51		 push	 ecx
  00056	e8 00 00 00 00	 call	 _memset
  0005b	83 c4 0c	 add	 esp, 12			; 0000000cH
$LN6@InitHashTa:

; 1437 : 	}
; 1438 : 	m_nHashTableSize = nHashSize;

  0005e	89 7e 08	 mov	 DWORD PTR [esi+8], edi
  00061	5f		 pop	 edi
  00062	5e		 pop	 esi

; 1439 : }

  00063	5d		 pop	 ebp
  00064	c2 08 00	 ret	 8
$LN11@InitHashTa:

; 1435 : 		ENSURE(m_pHashTable != NULL);

  00067	e8 00 00 00 00	 call	 ?AfxThrowInvalidArgException@@YGXXZ ; AfxThrowInvalidArgException
$LN9@InitHashTa:
  0006c	cc		 int	 3
?InitHashTable@?$CMap@HHPAVCStringList@@PAV1@@@QAEXIH@Z ENDP ; CMap<int,int,CStringList *,CStringList *>::InitHashTable
_TEXT	ENDS
; Function compile flags: /Ogtp
; File C:\Program Files (x86)\Microsoft Visual Studio\2019\Community\VC\Tools\MSVC\14.29.30133\atlmfc\include\afxtempl.h
;	COMDAT ?GetNextAssoc@?$CMap@HHPAVCStringList@@PAV1@@@QBEXAAPAU__POSITION@@AAHAAPAVCStringList@@@Z
_TEXT	SEGMENT
_rNextPosition$ = 8					; size = 4
_rKey$ = 12						; size = 4
_rValue$ = 16						; size = 4
?GetNextAssoc@?$CMap@HHPAVCStringList@@PAV1@@@QBEXAAPAU__POSITION@@AAHAAPAVCStringList@@@Z PROC ; CMap<int,int,CStringList *,CStringList *>::GetNextAssoc, COMDAT
; _this$ = ecx

; 1640 : {

  00000	55		 push	 ebp
  00001	8b ec		 mov	 ebp, esp
  00003	53		 push	 ebx
  00004	56		 push	 esi
  00005	57		 push	 edi
  00006	8b f9		 mov	 edi, ecx

; 1641 : 	ASSERT_VALID(this);
; 1642 : 	ENSURE(m_pHashTable != NULL);  // never call on empty map

  00008	8b 5f 04	 mov	 ebx, DWORD PTR [edi+4]
  0000b	85 db		 test	 ebx, ebx
  0000d	74 6b		 je	 SHORT $LN37@GetNextAss

; 1643 : 
; 1644 : 	CAssoc* pAssocRet = (CAssoc*)rNextPosition;

  0000f	8b 75 08	 mov	 esi, DWORD PTR _rNextPosition$[ebp]
  00012	8b 36		 mov	 esi, DWORD PTR [esi]

; 1645 : 	ENSURE(pAssocRet != NULL);

  00014	85 f6		 test	 esi, esi
  00016	74 62		 je	 SHORT $LN37@GetNextAss

; 1646 : 
; 1647 : 	if (pAssocRet == (CAssoc*) BEFORE_START_POSITION)

  00018	83 fe ff	 cmp	 esi, -1
  0001b	75 1b		 jne	 SHORT $LN12@GetNextAss

; 1648 : 	{
; 1649 : 		// find the first association
; 1650 : 		for (UINT nBucket = 0; nBucket < m_nHashTableSize; nBucket++)

  0001d	8b 57 08	 mov	 edx, DWORD PTR [edi+8]
  00020	33 c9		 xor	 ecx, ecx
  00022	85 d2		 test	 edx, edx
  00024	74 12		 je	 SHORT $LN12@GetNextAss
  00026	8b c3		 mov	 eax, ebx
$LL10@GetNextAss:

; 1651 : 		{
; 1652 : 			if ((pAssocRet = m_pHashTable[nBucket]) != NULL)

  00028	8b 30		 mov	 esi, DWORD PTR [eax]
  0002a	85 f6		 test	 esi, esi
  0002c	75 0a		 jne	 SHORT $LN12@GetNextAss

; 1648 : 	{
; 1649 : 		// find the first association
; 1650 : 		for (UINT nBucket = 0; nBucket < m_nHashTableSize; nBucket++)

  0002e	41		 inc	 ecx
  0002f	83 c0 04	 add	 eax, 4
  00032	3b ca		 cmp	 ecx, edx
  00034	73 44		 jae	 SHORT $LN37@GetNextAss
  00036	eb f0		 jmp	 SHORT $LL10@GetNextAss
$LN12@GetNextAss:

; 1658 : 	}
; 1659 : 
; 1660 : 	// find next association
; 1661 : 	ASSERT(AfxIsValidAddress(pAssocRet, sizeof(CAssoc)));
; 1662 : 	CAssoc* pAssocNext;
; 1663 : 	if ((pAssocNext = pAssocRet->pNext) == NULL)

  00038	8b 4e 08	 mov	 ecx, DWORD PTR [esi+8]
  0003b	85 c9		 test	 ecx, ecx
  0003d	75 20		 jne	 SHORT $LN38@GetNextAss

; 1664 : 	{
; 1665 : 		// go to next bucket
; 1666 : 		for (UINT nBucket = (pAssocRet->nHashValue % m_nHashTableSize) + 1;

  0003f	8b 7f 08	 mov	 edi, DWORD PTR [edi+8]
  00042	33 d2		 xor	 edx, edx
  00044	8b 46 0c	 mov	 eax, DWORD PTR [esi+12]
  00047	f7 f7		 div	 edi
  00049	42		 inc	 edx

; 1667 : 		  nBucket < m_nHashTableSize; nBucket++)

  0004a	3b d7		 cmp	 edx, edi
  0004c	73 11		 jae	 SHORT $LN38@GetNextAss

; 1668 : 			if ((pAssocNext = m_pHashTable[nBucket]) != NULL)

  0004e	8d 04 93	 lea	 eax, DWORD PTR [ebx+edx*4]
$LL16@GetNextAss:
  00051	8b 08		 mov	 ecx, DWORD PTR [eax]
  00053	85 c9		 test	 ecx, ecx
  00055	75 08		 jne	 SHORT $LN38@GetNextAss

; 1667 : 		  nBucket < m_nHashTableSize; nBucket++)

  00057	42		 inc	 edx
  00058	83 c0 04	 add	 eax, 4
  0005b	3b d7		 cmp	 edx, edi
  0005d	72 f2		 jb	 SHORT $LL16@GetNextAss
$LN38@GetNextAss:

; 1669 : 				break;
; 1670 : 	}
; 1671 : 
; 1672 : 	rNextPosition = (POSITION) pAssocNext;

  0005f	8b 45 08	 mov	 eax, DWORD PTR _rNextPosition$[ebp]

; 1673 : 
; 1674 : 	// fill in return data
; 1675 : 	rKey = pAssocRet->key;
; 1676 : 	rValue = pAssocRet->value;
; 1677 : }

  00062	5f		 pop	 edi
  00063	89 08		 mov	 DWORD PTR [eax], ecx
  00065	8b 45 0c	 mov	 eax, DWORD PTR _rKey$[ebp]
  00068	8b 0e		 mov	 ecx, DWORD PTR [esi]
  0006a	89 08		 mov	 DWORD PTR [eax], ecx
  0006c	8b 45 10	 mov	 eax, DWORD PTR _rValue$[ebp]
  0006f	8b 4e 04	 mov	 ecx, DWORD PTR [esi+4]
  00072	5e		 pop	 esi
  00073	5b		 pop	 ebx
  00074	89 08		 mov	 DWORD PTR [eax], ecx
  00076	5d		 pop	 ebp
  00077	c2 0c 00	 ret	 12			; 0000000cH
$LN37@GetNextAss:

; 1653 : 			{
; 1654 : 				break;
; 1655 : 			}
; 1656 : 		}
; 1657 : 		ENSURE(pAssocRet != NULL);  // must find something

  0007a	e8 00 00 00 00	 call	 ?AfxThrowInvalidArgException@@YGXXZ ; AfxThrowInvalidArgException
$LN39@GetNextAss:
  0007f	cc		 int	 3
?GetNextAssoc@?$CMap@HHPAVCStringList@@PAV1@@@QBEXAAPAU__POSITION@@AAHAAPAVCStringList@@@Z ENDP ; CMap<int,int,CStringList *,CStringList *>::GetNextAssoc
_TEXT	ENDS
; Function compile flags: /Ogtp
; File C:\Program Files (x86)\Microsoft Visual Studio\2019\Community\VC\Tools\MSVC\14.29.30133\atlmfc\include\afxtempl.h
;	COMDAT ?RemoveAll@?$CMap@HHPAVCStringList@@PAV1@@@QAEXXZ
_TEXT	SEGMENT
?RemoveAll@?$CMap@HHPAVCStringList@@PAV1@@@QAEXXZ PROC	; CMap<int,int,CStringList *,CStringList *>::RemoveAll, COMDAT
; _this$ = ecx

; 1443 : {

  00000	56		 push	 esi
  00001	8b f1		 mov	 esi, ecx

; 1444 : 	ASSERT_VALID(this);
; 1445 : 
; 1446 : 	if (m_pHashTable != NULL)

  00003	8b 46 04	 mov	 eax, DWORD PTR [esi+4]
  00006	85 c0		 test	 eax, eax
  00008	74 10		 je	 SHORT $LN8@RemoveAll

; 1447 : 	{
; 1448 : 		// destroy elements (values and keys)
; 1449 : 		for (UINT nHash = 0; nHash < m_nHashTableSize; nHash++)
; 1450 : 		{
; 1451 : 			CAssoc* pAssoc;
; 1452 : 			for (pAssoc = m_pHashTable[nHash]; pAssoc != NULL;
; 1453 : 			  pAssoc = pAssoc->pNext)
; 1454 : 			{
; 1455 : 				pAssoc->CAssoc::~CAssoc();
; 1456 : 			}
; 1457 : 		}
; 1458 : 
; 1459 : 		// free hash table
; 1460 : 		delete[] m_pHashTable;

  0000a	50		 push	 eax
  0000b	e8 00 00 00 00	 call	 ??_V@YAXPAX@Z		; operator delete[]
  00010	83 c4 04	 add	 esp, 4

; 1461 : 		m_pHashTable = NULL;

  00013	c7 46 04 00 00
	00 00		 mov	 DWORD PTR [esi+4], 0
$LN8@RemoveAll:

; 1462 : 	}
; 1463 : 
; 1464 : 	m_nCount = 0;
; 1465 : 	m_pFreeList = NULL;
; 1466 : 	m_pBlocks->FreeDataChain();

  0001a	8b 4e 14	 mov	 ecx, DWORD PTR [esi+20]
  0001d	c7 46 0c 00 00
	00 00		 mov	 DWORD PTR [esi+12], 0
  00024	c7 46 10 00 00
	00 00		 mov	 DWORD PTR [esi+16], 0
  0002b	e8 00 00 00 00	 call	 ?FreeDataChain@CPlex@@QAEXXZ ; CPlex::FreeDataChain

; 1467 : 	m_pBlocks = NULL;

  00030	c7 46 14 00 00
	00 00		 mov	 DWORD PTR [esi+20], 0
  00037	5e		 pop	 esi

; 1468 : }

  00038	c3		 ret	 0
?RemoveAll@?$CMap@HHPAVCStringList@@PAV1@@@QAEXXZ ENDP	; CMap<int,int,CStringList *,CStringList *>::RemoveAll
_TEXT	ENDS
; Function compile flags: /Ogtp
; File C:\Program Files (x86)\Microsoft Visual Studio\2019\Community\VC\Tools\MSVC\14.29.30133\atlmfc\include\afxtempl.h
;	COMDAT ?SetAt@?$CMap@HHPAVCStringList@@PAV1@@@QAEXHPAVCStringList@@@Z
_TEXT	SEGMENT
_nHashBucket$1 = -8					; size = 4
_nHashValue$2 = -4					; size = 4
_key$ = 8						; size = 4
_newValue$ = 12						; size = 4
?SetAt@?$CMap@HHPAVCStringList@@PAV1@@@QAEXHPAVCStringList@@@Z PROC ; CMap<int,int,CStringList *,CStringList *>::SetAt, COMDAT
; _this$ = ecx

; 1350 : 	{ (*this)[key] = newValue; }

  00000	55		 push	 ebp
  00001	8b ec		 mov	 ebp, esp
  00003	83 ec 08	 sub	 esp, 8

; 1590 : 	if ((pAssoc = GetAssocAt(key, nHashBucket, nHashValue)) == NULL)

  00006	8d 45 fc	 lea	 eax, DWORD PTR _nHashValue$2[ebp]

; 1350 : 	{ (*this)[key] = newValue; }

  00009	53		 push	 ebx

; 1590 : 	if ((pAssoc = GetAssocAt(key, nHashBucket, nHashValue)) == NULL)

  0000a	8b 5d 08	 mov	 ebx, DWORD PTR _key$[ebp]

; 1350 : 	{ (*this)[key] = newValue; }

  0000d	56		 push	 esi

; 1590 : 	if ((pAssoc = GetAssocAt(key, nHashBucket, nHashValue)) == NULL)

  0000e	50		 push	 eax
  0000f	8d 45 f8	 lea	 eax, DWORD PTR _nHashBucket$1[ebp]

; 1350 : 	{ (*this)[key] = newValue; }

  00012	8b f1		 mov	 esi, ecx

; 1590 : 	if ((pAssoc = GetAssocAt(key, nHashBucket, nHashValue)) == NULL)

  00014	50		 push	 eax
  00015	53		 push	 ebx
  00016	e8 00 00 00 00	 call	 ?GetAssocAt@?$CMap@HHPAVCStringList@@PAV1@@@IBEPAVCAssoc@1@HAAI0@Z ; CMap<int,int,CStringList *,CStringList *>::GetAssocAt
  0001b	8b d0		 mov	 edx, eax
  0001d	85 d2		 test	 edx, edx
  0001f	0f 85 cd 00 00
	00		 jne	 $LN7@SetAt

; 1591 : 	{
; 1592 : 		if (m_pHashTable == NULL)

  00025	8b 46 04	 mov	 eax, DWORD PTR [esi+4]
  00028	85 c0		 test	 eax, eax
  0002a	75 4c		 jne	 SHORT $LN42@SetAt

; 1593 : 			InitHashTable(m_nHashTableSize);

  0002c	57		 push	 edi
  0002d	8b 7e 08	 mov	 edi, DWORD PTR [esi+8]

; 1434 : 		m_pHashTable = new CAssoc* [nHashSize];

  00030	33 c9		 xor	 ecx, ecx
  00032	8b c7		 mov	 eax, edi
  00034	ba 04 00 00 00	 mov	 edx, 4
  00039	f7 e2		 mul	 edx
  0003b	0f 90 c1	 seto	 cl
  0003e	f7 d9		 neg	 ecx
  00040	0b c8		 or	 ecx, eax
  00042	51		 push	 ecx
  00043	e8 00 00 00 00	 call	 ??_U@YAPAXI@Z		; operator new[]
  00048	83 c4 04	 add	 esp, 4
  0004b	89 46 04	 mov	 DWORD PTR [esi+4], eax

; 1435 : 		ENSURE(m_pHashTable != NULL);

  0004e	85 c0		 test	 eax, eax
  00050	0f 84 aa 00 00
	00		 je	 $LN39@SetAt

; 1436 : 		memset(m_pHashTable, 0, sizeof(CAssoc*) * nHashSize);

  00056	8d 0c bd 00 00
	00 00		 lea	 ecx, DWORD PTR [edi*4]
  0005d	51		 push	 ecx
  0005e	6a 00		 push	 0
  00060	50		 push	 eax
  00061	e8 00 00 00 00	 call	 _memset

; 1437 : 	}
; 1438 : 	m_nHashTableSize = nHashSize;

  00066	8b 46 04	 mov	 eax, DWORD PTR [esi+4]
  00069	83 c4 0c	 add	 esp, 12			; 0000000cH
  0006c	89 7e 08	 mov	 DWORD PTR [esi+8], edi
  0006f	5f		 pop	 edi

; 1595 : 		ENSURE(m_pHashTable);

  00070	85 c0		 test	 eax, eax
  00072	0f 84 88 00 00
	00		 je	 $LN39@SetAt
$LN42@SetAt:

; 1481 : 	if (m_pFreeList == NULL)

  00078	83 7e 10 00	 cmp	 DWORD PTR [esi+16], 0
  0007c	75 34		 jne	 SHORT $LN26@SetAt

; 1482 : 	{
; 1483 : 		// add another block
; 1484 : 		CPlex* newBlock = CPlex::Create(m_pBlocks, m_nBlockSize, sizeof(CMap::CAssoc));

  0007e	6a 10		 push	 16			; 00000010H
  00080	ff 76 18	 push	 DWORD PTR [esi+24]
  00083	8d 46 14	 lea	 eax, DWORD PTR [esi+20]
  00086	50		 push	 eax
  00087	e8 00 00 00 00	 call	 ?Create@CPlex@@SGPAU1@AAPAU1@II@Z ; CPlex::Create

; 1485 : 		// chain them into free list
; 1486 : 		CMap::CAssoc* pAssoc = (CMap::CAssoc*) newBlock->data();
; 1487 : 		// free in reverse order to make it easier to debug
; 1488 : 		pAssoc += m_nBlockSize - 1;

  0008c	8b 56 18	 mov	 edx, DWORD PTR [esi+24]
  0008f	83 c0 08	 add	 eax, 8
  00092	8b ca		 mov	 ecx, edx
  00094	c1 e1 04	 shl	 ecx, 4
  00097	83 c1 f0	 add	 ecx, -16		; fffffff0H
  0009a	03 c8		 add	 ecx, eax

; 1489 : 		for (INT_PTR i = m_nBlockSize-1; i >= 0; i--, pAssoc--)

  0009c	83 c2 ff	 add	 edx, -1
  0009f	78 11		 js	 SHORT $LN26@SetAt
$LL23@SetAt:

; 1490 : 		{
; 1491 : 			pAssoc->pNext = m_pFreeList;

  000a1	8b 46 10	 mov	 eax, DWORD PTR [esi+16]
  000a4	89 41 08	 mov	 DWORD PTR [ecx+8], eax

; 1492 : 			m_pFreeList = pAssoc;

  000a7	89 4e 10	 mov	 DWORD PTR [esi+16], ecx
  000aa	83 e9 10	 sub	 ecx, 16			; 00000010H
  000ad	83 ea 01	 sub	 edx, 1
  000b0	79 ef		 jns	 SHORT $LL23@SetAt
$LN26@SetAt:

; 1493 : 		}
; 1494 : 	}
; 1495 : 	ENSURE(m_pFreeList != NULL);  // we must have something

  000b2	8b 56 10	 mov	 edx, DWORD PTR [esi+16]
  000b5	85 d2		 test	 edx, edx
  000b7	74 47		 je	 SHORT $LN39@SetAt

; 1496 : 
; 1497 : 	CMap::CAssoc* pAssoc = m_pFreeList;
; 1498 : 
; 1499 : 	// zero the memory
; 1500 : 	CMap::CAssoc* pTemp = pAssoc->pNext;

  000b9	8b 42 08	 mov	 eax, DWORD PTR [edx+8]
  000bc	0f 57 c0	 xorps	 xmm0, xmm0

; 1501 : 	memset( pAssoc, 0, sizeof(CMap::CAssoc) );

  000bf	0f 11 02	 movups	 XMMWORD PTR [edx], xmm0

; 1502 : 	pAssoc->pNext = pTemp;

  000c2	89 42 08	 mov	 DWORD PTR [edx+8], eax

; 1503 : 
; 1504 : 	m_pFreeList = m_pFreeList->pNext;

  000c5	8b 46 10	 mov	 eax, DWORD PTR [esi+16]
  000c8	8b 40 08	 mov	 eax, DWORD PTR [eax+8]

; 1505 : 	m_nCount++;

  000cb	ff 46 0c	 inc	 DWORD PTR [esi+12]
  000ce	89 46 10	 mov	 DWORD PTR [esi+16], eax

; 1598 : 		pAssoc->nHashValue = nHashValue;

  000d1	8b 45 fc	 mov	 eax, DWORD PTR _nHashValue$2[ebp]
  000d4	89 42 0c	 mov	 DWORD PTR [edx+12], eax

; 1599 : 		//'pAssoc->value' is a constructed object, nothing more
; 1600 : 
; 1601 : 		// put into hash table
; 1602 : 		pAssoc->pNext = m_pHashTable[nHashBucket];

  000d7	8b 45 f8	 mov	 eax, DWORD PTR _nHashBucket$1[ebp]

; 1256 : 		CPair( ARG_KEY keyval ) : key( keyval )	{}

  000da	89 1a		 mov	 DWORD PTR [edx], ebx

; 1602 : 		pAssoc->pNext = m_pHashTable[nHashBucket];

  000dc	8d 0c 85 00 00
	00 00		 lea	 ecx, DWORD PTR [eax*4]
  000e3	8b 46 04	 mov	 eax, DWORD PTR [esi+4]
  000e6	8b 04 01	 mov	 eax, DWORD PTR [ecx+eax]
  000e9	89 42 08	 mov	 DWORD PTR [edx+8], eax

; 1603 : 		m_pHashTable[nHashBucket] = pAssoc;

  000ec	8b 46 04	 mov	 eax, DWORD PTR [esi+4]
  000ef	89 14 01	 mov	 DWORD PTR [ecx+eax], edx
$LN7@SetAt:

; 1350 : 	{ (*this)[key] = newValue; }

  000f2	8b 45 0c	 mov	 eax, DWORD PTR _newValue$[ebp]
  000f5	5e		 pop	 esi
  000f6	89 42 04	 mov	 DWORD PTR [edx+4], eax
  000f9	5b		 pop	 ebx
  000fa	8b e5		 mov	 esp, ebp
  000fc	5d		 pop	 ebp
  000fd	c2 08 00	 ret	 8
$LN39@SetAt:

; 1495 : 	ENSURE(m_pFreeList != NULL);  // we must have something

  00100	e8 00 00 00 00	 call	 ?AfxThrowInvalidArgException@@YGXXZ ; AfxThrowInvalidArgException
$LN40@SetAt:
  00105	cc		 int	 3
?SetAt@?$CMap@HHPAVCStringList@@PAV1@@@QAEXHPAVCStringList@@@Z ENDP ; CMap<int,int,CStringList *,CStringList *>::SetAt
_TEXT	ENDS
; Function compile flags: /Ogtp
; File C:\Program Files (x86)\Microsoft Visual Studio\2019\Community\VC\Tools\MSVC\14.29.30133\atlmfc\include\afxtempl.h
;	COMDAT ??A?$CMap@HHPAVCStringList@@PAV1@@@QAEAAPAVCStringList@@H@Z
_TEXT	SEGMENT
_nHashBucket$ = -8					; size = 4
_nHashValue$ = -4					; size = 4
_key$ = 8						; size = 4
??A?$CMap@HHPAVCStringList@@PAV1@@@QAEAAPAVCStringList@@H@Z PROC ; CMap<int,int,CStringList *,CStringList *>::operator[], COMDAT
; _this$ = ecx

; 1585 : {

  00000	55		 push	 ebp
  00001	8b ec		 mov	 ebp, esp
  00003	83 ec 08	 sub	 esp, 8

; 1586 : 	ASSERT_VALID(this);
; 1587 : 
; 1588 : 	UINT nHashBucket, nHashValue;
; 1589 : 	CAssoc* pAssoc;
; 1590 : 	if ((pAssoc = GetAssocAt(key, nHashBucket, nHashValue)) == NULL)

  00006	8d 45 fc	 lea	 eax, DWORD PTR _nHashValue$[ebp]
  00009	53		 push	 ebx
  0000a	8b 5d 08	 mov	 ebx, DWORD PTR _key$[ebp]
  0000d	56		 push	 esi
  0000e	50		 push	 eax
  0000f	8d 45 f8	 lea	 eax, DWORD PTR _nHashBucket$[ebp]
  00012	8b f1		 mov	 esi, ecx
  00014	50		 push	 eax
  00015	53		 push	 ebx
  00016	e8 00 00 00 00	 call	 ?GetAssocAt@?$CMap@HHPAVCStringList@@PAV1@@@IBEPAVCAssoc@1@HAAI0@Z ; CMap<int,int,CStringList *,CStringList *>::GetAssocAt
  0001b	8b d0		 mov	 edx, eax
  0001d	85 d2		 test	 edx, edx
  0001f	0f 85 cd 00 00
	00		 jne	 $LN5@operator

; 1591 : 	{
; 1592 : 		if (m_pHashTable == NULL)

  00025	8b 46 04	 mov	 eax, DWORD PTR [esi+4]
  00028	85 c0		 test	 eax, eax
  0002a	75 4c		 jne	 SHORT $LN39@operator

; 1593 : 			InitHashTable(m_nHashTableSize);

  0002c	57		 push	 edi
  0002d	8b 7e 08	 mov	 edi, DWORD PTR [esi+8]

; 1434 : 		m_pHashTable = new CAssoc* [nHashSize];

  00030	33 c9		 xor	 ecx, ecx
  00032	8b c7		 mov	 eax, edi
  00034	ba 04 00 00 00	 mov	 edx, 4
  00039	f7 e2		 mul	 edx
  0003b	0f 90 c1	 seto	 cl
  0003e	f7 d9		 neg	 ecx
  00040	0b c8		 or	 ecx, eax
  00042	51		 push	 ecx
  00043	e8 00 00 00 00	 call	 ??_U@YAPAXI@Z		; operator new[]
  00048	83 c4 04	 add	 esp, 4
  0004b	89 46 04	 mov	 DWORD PTR [esi+4], eax

; 1435 : 		ENSURE(m_pHashTable != NULL);

  0004e	85 c0		 test	 eax, eax
  00050	0f 84 a7 00 00
	00		 je	 $LN36@operator

; 1436 : 		memset(m_pHashTable, 0, sizeof(CAssoc*) * nHashSize);

  00056	8d 0c bd 00 00
	00 00		 lea	 ecx, DWORD PTR [edi*4]
  0005d	51		 push	 ecx
  0005e	6a 00		 push	 0
  00060	50		 push	 eax
  00061	e8 00 00 00 00	 call	 _memset

; 1437 : 	}
; 1438 : 	m_nHashTableSize = nHashSize;

  00066	8b 46 04	 mov	 eax, DWORD PTR [esi+4]
  00069	83 c4 0c	 add	 esp, 12			; 0000000cH
  0006c	89 7e 08	 mov	 DWORD PTR [esi+8], edi
  0006f	5f		 pop	 edi

; 1594 : 
; 1595 : 		ENSURE(m_pHashTable);

  00070	85 c0		 test	 eax, eax
  00072	0f 84 85 00 00
	00		 je	 $LN36@operator
$LN39@operator:

; 1481 : 	if (m_pFreeList == NULL)

  00078	83 7e 10 00	 cmp	 DWORD PTR [esi+16], 0
  0007c	75 34		 jne	 SHORT $LN24@operator

; 1482 : 	{
; 1483 : 		// add another block
; 1484 : 		CPlex* newBlock = CPlex::Create(m_pBlocks, m_nBlockSize, sizeof(CMap::CAssoc));

  0007e	6a 10		 push	 16			; 00000010H
  00080	ff 76 18	 push	 DWORD PTR [esi+24]
  00083	8d 46 14	 lea	 eax, DWORD PTR [esi+20]
  00086	50		 push	 eax
  00087	e8 00 00 00 00	 call	 ?Create@CPlex@@SGPAU1@AAPAU1@II@Z ; CPlex::Create

; 1485 : 		// chain them into free list
; 1486 : 		CMap::CAssoc* pAssoc = (CMap::CAssoc*) newBlock->data();
; 1487 : 		// free in reverse order to make it easier to debug
; 1488 : 		pAssoc += m_nBlockSize - 1;

  0008c	8b 56 18	 mov	 edx, DWORD PTR [esi+24]
  0008f	83 c0 08	 add	 eax, 8
  00092	8b ca		 mov	 ecx, edx
  00094	c1 e1 04	 shl	 ecx, 4
  00097	83 c1 f0	 add	 ecx, -16		; fffffff0H
  0009a	03 c8		 add	 ecx, eax

; 1489 : 		for (INT_PTR i = m_nBlockSize-1; i >= 0; i--, pAssoc--)

  0009c	83 c2 ff	 add	 edx, -1
  0009f	78 11		 js	 SHORT $LN24@operator
$LL21@operator:

; 1490 : 		{
; 1491 : 			pAssoc->pNext = m_pFreeList;

  000a1	8b 46 10	 mov	 eax, DWORD PTR [esi+16]
  000a4	89 41 08	 mov	 DWORD PTR [ecx+8], eax

; 1492 : 			m_pFreeList = pAssoc;

  000a7	89 4e 10	 mov	 DWORD PTR [esi+16], ecx
  000aa	83 e9 10	 sub	 ecx, 16			; 00000010H
  000ad	83 ea 01	 sub	 edx, 1
  000b0	79 ef		 jns	 SHORT $LL21@operator
$LN24@operator:

; 1493 : 		}
; 1494 : 	}
; 1495 : 	ENSURE(m_pFreeList != NULL);  // we must have something

  000b2	8b 56 10	 mov	 edx, DWORD PTR [esi+16]
  000b5	85 d2		 test	 edx, edx
  000b7	74 44		 je	 SHORT $LN36@operator

; 1496 : 
; 1497 : 	CMap::CAssoc* pAssoc = m_pFreeList;
; 1498 : 
; 1499 : 	// zero the memory
; 1500 : 	CMap::CAssoc* pTemp = pAssoc->pNext;

  000b9	8b 42 08	 mov	 eax, DWORD PTR [edx+8]
  000bc	0f 57 c0	 xorps	 xmm0, xmm0

; 1501 : 	memset( pAssoc, 0, sizeof(CMap::CAssoc) );

  000bf	0f 11 02	 movups	 XMMWORD PTR [edx], xmm0

; 1502 : 	pAssoc->pNext = pTemp;

  000c2	89 42 08	 mov	 DWORD PTR [edx+8], eax

; 1503 : 
; 1504 : 	m_pFreeList = m_pFreeList->pNext;

  000c5	8b 46 10	 mov	 eax, DWORD PTR [esi+16]
  000c8	8b 40 08	 mov	 eax, DWORD PTR [eax+8]

; 1505 : 	m_nCount++;

  000cb	ff 46 0c	 inc	 DWORD PTR [esi+12]
  000ce	89 46 10	 mov	 DWORD PTR [esi+16], eax

; 1596 : 		// it doesn't exist, add a new Association
; 1597 : 		pAssoc = NewAssoc(key);
; 1598 : 		pAssoc->nHashValue = nHashValue;

  000d1	8b 45 fc	 mov	 eax, DWORD PTR _nHashValue$[ebp]
  000d4	89 42 0c	 mov	 DWORD PTR [edx+12], eax

; 1599 : 		//'pAssoc->value' is a constructed object, nothing more
; 1600 : 
; 1601 : 		// put into hash table
; 1602 : 		pAssoc->pNext = m_pHashTable[nHashBucket];

  000d7	8b 45 f8	 mov	 eax, DWORD PTR _nHashBucket$[ebp]

; 1256 : 		CPair( ARG_KEY keyval ) : key( keyval )	{}

  000da	89 1a		 mov	 DWORD PTR [edx], ebx

; 1599 : 		//'pAssoc->value' is a constructed object, nothing more
; 1600 : 
; 1601 : 		// put into hash table
; 1602 : 		pAssoc->pNext = m_pHashTable[nHashBucket];

  000dc	8d 0c 85 00 00
	00 00		 lea	 ecx, DWORD PTR [eax*4]
  000e3	8b 46 04	 mov	 eax, DWORD PTR [esi+4]
  000e6	8b 04 01	 mov	 eax, DWORD PTR [ecx+eax]
  000e9	89 42 08	 mov	 DWORD PTR [edx+8], eax

; 1603 : 		m_pHashTable[nHashBucket] = pAssoc;

  000ec	8b 46 04	 mov	 eax, DWORD PTR [esi+4]
  000ef	89 14 01	 mov	 DWORD PTR [ecx+eax], edx
$LN5@operator:

; 1604 : 	}
; 1605 : 	return pAssoc->value;  // return new reference

  000f2	5e		 pop	 esi
  000f3	8d 42 04	 lea	 eax, DWORD PTR [edx+4]
  000f6	5b		 pop	 ebx

; 1606 : }

  000f7	8b e5		 mov	 esp, ebp
  000f9	5d		 pop	 ebp
  000fa	c2 04 00	 ret	 4
$LN36@operator:

; 1495 : 	ENSURE(m_pFreeList != NULL);  // we must have something

  000fd	e8 00 00 00 00	 call	 ?AfxThrowInvalidArgException@@YGXXZ ; AfxThrowInvalidArgException
$LN37@operator:
  00102	cc		 int	 3
??A?$CMap@HHPAVCStringList@@PAV1@@@QAEAAPAVCStringList@@H@Z ENDP ; CMap<int,int,CStringList *,CStringList *>::operator[]
_TEXT	ENDS
; Function compile flags: /Ogtp
; File C:\Program Files (x86)\Microsoft Visual Studio\2019\Community\VC\Tools\MSVC\14.29.30133\atlmfc\include\afxtempl.h
;	COMDAT ?Lookup@?$CMap@HHPAVCStringList@@PAV1@@@QBEHHAAPAVCStringList@@@Z
_TEXT	SEGMENT
_nHashBucket$ = -8					; size = 4
_nHashValue$ = -4					; size = 4
_key$ = 8						; size = 4
_rValue$ = 12						; size = 4
?Lookup@?$CMap@HHPAVCStringList@@PAV1@@@QBEHHAAPAVCStringList@@@Z PROC ; CMap<int,int,CStringList *,CStringList *>::Lookup, COMDAT
; _this$ = ecx

; 1551 : {

  00000	55		 push	 ebp
  00001	8b ec		 mov	 ebp, esp
  00003	83 ec 08	 sub	 esp, 8

; 1552 : 	ASSERT_VALID(this);
; 1553 : 
; 1554 : 	UINT nHashBucket, nHashValue;
; 1555 : 	CAssoc* pAssoc = GetAssocAt(key, nHashBucket, nHashValue);

  00006	8d 45 fc	 lea	 eax, DWORD PTR _nHashValue$[ebp]
  00009	50		 push	 eax
  0000a	8d 45 f8	 lea	 eax, DWORD PTR _nHashBucket$[ebp]
  0000d	50		 push	 eax
  0000e	ff 75 08	 push	 DWORD PTR _key$[ebp]
  00011	e8 00 00 00 00	 call	 ?GetAssocAt@?$CMap@HHPAVCStringList@@PAV1@@@IBEPAVCAssoc@1@HAAI0@Z ; CMap<int,int,CStringList *,CStringList *>::GetAssocAt

; 1556 : 	if (pAssoc == NULL)

  00016	85 c0		 test	 eax, eax
  00018	75 06		 jne	 SHORT $LN2@Lookup

; 1561 : }

  0001a	8b e5		 mov	 esp, ebp
  0001c	5d		 pop	 ebp
  0001d	c2 08 00	 ret	 8
$LN2@Lookup:

; 1557 : 		return FALSE;  // not in map
; 1558 : 
; 1559 : 	rValue = pAssoc->value;

  00020	8b 48 04	 mov	 ecx, DWORD PTR [eax+4]
  00023	8b 45 0c	 mov	 eax, DWORD PTR _rValue$[ebp]
  00026	89 08		 mov	 DWORD PTR [eax], ecx

; 1560 : 	return TRUE;

  00028	b8 01 00 00 00	 mov	 eax, 1

; 1561 : }

  0002d	8b e5		 mov	 esp, ebp
  0002f	5d		 pop	 ebp
  00030	c2 08 00	 ret	 8
?Lookup@?$CMap@HHPAVCStringList@@PAV1@@@QBEHHAAPAVCStringList@@@Z ENDP ; CMap<int,int,CStringList *,CStringList *>::Lookup
_TEXT	ENDS
; Function compile flags: /Ogtp
; File C:\Program Files (x86)\Microsoft Visual Studio\2019\Community\VC\Tools\MSVC\14.29.30133\atlmfc\include\afxtempl.h
;	COMDAT ??0?$CMap@HHPAVCStringList@@PAV1@@@QAE@H@Z
_TEXT	SEGMENT
_nBlockSize$ = 8					; size = 4
??0?$CMap@HHPAVCStringList@@PAV1@@@QAE@H@Z PROC		; CMap<int,int,CStringList *,CStringList *>::CMap<int,int,CStringList *,CStringList *>, COMDAT
; _this$ = ecx

; 1403 : {

  00000	55		 push	 ebp
  00001	8b ec		 mov	 ebp, esp

; 1404 : 	ASSERT(nBlockSize > 0);
; 1405 : 
; 1406 : 	m_pHashTable = NULL;
; 1407 : 	m_nHashTableSize = 17;  // default size
; 1408 : 	m_nCount = 0;
; 1409 : 	m_pFreeList = NULL;
; 1410 : 	m_pBlocks = NULL;
; 1411 : 	m_nBlockSize = nBlockSize;

  00003	8b 45 08	 mov	 eax, DWORD PTR _nBlockSize$[ebp]
  00006	89 41 18	 mov	 DWORD PTR [ecx+24], eax

; 1412 : }

  00009	8b c1		 mov	 eax, ecx
  0000b	c7 01 00 00 00
	00		 mov	 DWORD PTR [ecx], OFFSET ??_7?$CMap@HHPAVCStringList@@PAV1@@@6B@
  00011	c7 41 04 00 00
	00 00		 mov	 DWORD PTR [ecx+4], 0
  00018	c7 41 08 11 00
	00 00		 mov	 DWORD PTR [ecx+8], 17	; 00000011H
  0001f	c7 41 0c 00 00
	00 00		 mov	 DWORD PTR [ecx+12], 0
  00026	c7 41 10 00 00
	00 00		 mov	 DWORD PTR [ecx+16], 0
  0002d	c7 41 14 00 00
	00 00		 mov	 DWORD PTR [ecx+20], 0
  00034	5d		 pop	 ebp
  00035	c2 04 00	 ret	 4
??0?$CMap@HHPAVCStringList@@PAV1@@@QAE@H@Z ENDP		; CMap<int,int,CStringList *,CStringList *>::CMap<int,int,CStringList *,CStringList *>
_TEXT	ENDS
; Function compile flags: /Ogtp
; File C:\Program Files (x86)\Microsoft Visual Studio\2019\Community\VC\Tools\MSVC\14.29.30133\atlmfc\include\afxtempl.h
; File C:\Program Files (x86)\Microsoft Visual Studio\2019\Community\VC\Tools\MSVC\14.29.30133\atlmfc\include\afx.inl
;	COMDAT ??_G?$CMap@HHKAAK@@UAEPAXI@Z
_TEXT	SEGMENT
__$EHRec$ = -12						; size = 12
___flags$ = 8						; size = 4
??_G?$CMap@HHKAAK@@UAEPAXI@Z PROC			; CMap<int,int,unsigned long,unsigned long &>::`scalar deleting destructor', COMDAT
; _this$ = ecx
  00000	55		 push	 ebp
  00001	8b ec		 mov	 ebp, esp
  00003	6a ff		 push	 -1
  00005	68 00 00 00 00	 push	 __ehhandler$??_G?$CMap@HHKAAK@@UAEPAXI@Z
  0000a	64 a1 00 00 00
	00		 mov	 eax, DWORD PTR fs:0
  00010	50		 push	 eax
  00011	56		 push	 esi
  00012	a1 00 00 00 00	 mov	 eax, DWORD PTR ___security_cookie
  00017	33 c5		 xor	 eax, ebp
  00019	50		 push	 eax
  0001a	8d 45 f4	 lea	 eax, DWORD PTR __$EHRec$[ebp]
  0001d	64 a3 00 00 00
	00		 mov	 DWORD PTR fs:0, eax
  00023	8b f1		 mov	 esi, ecx
; File C:\Program Files (x86)\Microsoft Visual Studio\2019\Community\VC\Tools\MSVC\14.29.30133\atlmfc\include\afxtempl.h

; 1446 : 	if (m_pHashTable != NULL)

  00025	8b 46 04	 mov	 eax, DWORD PTR [esi+4]

; 1472 : {

  00028	c7 45 fc 00 00
	00 00		 mov	 DWORD PTR __$EHRec$[ebp+8], 0
  0002f	c7 06 00 00 00
	00		 mov	 DWORD PTR [esi], OFFSET ??_7?$CMap@HHKAAK@@6B@

; 1446 : 	if (m_pHashTable != NULL)

  00035	85 c0		 test	 eax, eax
  00037	74 10		 je	 SHORT $LN17@scalar

; 1447 : 	{
; 1448 : 		// destroy elements (values and keys)
; 1449 : 		for (UINT nHash = 0; nHash < m_nHashTableSize; nHash++)
; 1450 : 		{
; 1451 : 			CAssoc* pAssoc;
; 1452 : 			for (pAssoc = m_pHashTable[nHash]; pAssoc != NULL;
; 1453 : 			  pAssoc = pAssoc->pNext)
; 1454 : 			{
; 1455 : 				pAssoc->CAssoc::~CAssoc();
; 1456 : 			}
; 1457 : 		}
; 1458 : 
; 1459 : 		// free hash table
; 1460 : 		delete[] m_pHashTable;

  00039	50		 push	 eax
  0003a	e8 00 00 00 00	 call	 ??_V@YAXPAX@Z		; operator delete[]
  0003f	83 c4 04	 add	 esp, 4

; 1461 : 		m_pHashTable = NULL;

  00042	c7 46 04 00 00
	00 00		 mov	 DWORD PTR [esi+4], 0
$LN17@scalar:

; 1462 : 	}
; 1463 : 
; 1464 : 	m_nCount = 0;
; 1465 : 	m_pFreeList = NULL;
; 1466 : 	m_pBlocks->FreeDataChain();

  00049	8b 4e 14	 mov	 ecx, DWORD PTR [esi+20]
  0004c	c7 46 0c 00 00
	00 00		 mov	 DWORD PTR [esi+12], 0
  00053	c7 46 10 00 00
	00 00		 mov	 DWORD PTR [esi+16], 0
  0005a	e8 00 00 00 00	 call	 ?FreeDataChain@CPlex@@QAEXXZ ; CPlex::FreeDataChain

; 1467 : 	m_pBlocks = NULL;

  0005f	8b 45 08	 mov	 eax, DWORD PTR ___flags$[ebp]
  00062	c7 46 14 00 00
	00 00		 mov	 DWORD PTR [esi+20], 0
  00069	a8 01		 test	 al, 1
  0006b	74 2c		 je	 SHORT $LN31@scalar
  0006d	a8 04		 test	 al, 4
  0006f	75 1d		 jne	 SHORT $LN3@scalar
; File C:\Program Files (x86)\Microsoft Visual Studio\2019\Community\VC\Tools\MSVC\14.29.30133\atlmfc\include\afx.inl

; 112  : 	{ ::operator delete(p); }

  00071	56		 push	 esi
  00072	e8 00 00 00 00	 call	 ??3@YAXPAX@Z		; operator delete
  00077	83 c4 04	 add	 esp, 4
  0007a	8b c6		 mov	 eax, esi
  0007c	8b 4d f4	 mov	 ecx, DWORD PTR __$EHRec$[ebp]
  0007f	64 89 0d 00 00
	00 00		 mov	 DWORD PTR fs:0, ecx
  00086	59		 pop	 ecx
  00087	5e		 pop	 esi
  00088	8b e5		 mov	 esp, ebp
  0008a	5d		 pop	 ebp
  0008b	c2 04 00	 ret	 4
$LN3@scalar:
  0008e	6a 1c		 push	 28			; 0000001cH
  00090	56		 push	 esi
  00091	e8 00 00 00 00	 call	 ?__global_delete@@YAXPAXI@Z ; __global_delete
  00096	83 c4 08	 add	 esp, 8
$LN31@scalar:
  00099	8b c6		 mov	 eax, esi
  0009b	8b 4d f4	 mov	 ecx, DWORD PTR __$EHRec$[ebp]
  0009e	64 89 0d 00 00
	00 00		 mov	 DWORD PTR fs:0, ecx
  000a5	59		 pop	 ecx
  000a6	5e		 pop	 esi
  000a7	8b e5		 mov	 esp, ebp
  000a9	5d		 pop	 ebp
  000aa	c2 04 00	 ret	 4
  000ad	cc		 int	 3
  000ae	cc		 int	 3
  000af	cc		 int	 3
  000b0	cc		 int	 3
  000b1	cc		 int	 3
_TEXT	ENDS
;	COMDAT text$x
text$x	SEGMENT
__ehhandler$??_G?$CMap@HHKAAK@@UAEPAXI@Z:
  00000	90		 npad	 1
  00001	90		 npad	 1
  00002	8b 54 24 08	 mov	 edx, DWORD PTR [esp+8]
  00006	8d 42 0c	 lea	 eax, DWORD PTR [edx+12]
  00009	8b 4a f8	 mov	 ecx, DWORD PTR [edx-8]
  0000c	33 c8		 xor	 ecx, eax
  0000e	e8 00 00 00 00	 call	 @__security_check_cookie@4
  00013	b8 00 00 00 00	 mov	 eax, OFFSET __ehfuncinfo$??_G?$CMap@HHKAAK@@UAEPAXI@Z
  00018	e9 00 00 00 00	 jmp	 ___CxxFrameHandler3
text$x	ENDS
??_G?$CMap@HHKAAK@@UAEPAXI@Z ENDP			; CMap<int,int,unsigned long,unsigned long &>::`scalar deleting destructor'
; Function compile flags: /Ogtp
; File C:\Program Files (x86)\Microsoft Visual Studio\2019\Community\VC\Tools\MSVC\14.29.30133\atlmfc\include\afxtempl.h
; File C:\Program Files (x86)\Microsoft Visual Studio\2019\Community\VC\Tools\MSVC\14.29.30133\atlmfc\include\afx.inl
; File C:\Program Files (x86)\Microsoft Visual Studio\2019\Community\VC\Tools\MSVC\14.29.30133\atlmfc\include\afxtempl.h
; File C:\Program Files (x86)\Microsoft Visual Studio\2019\Community\VC\Tools\MSVC\14.29.30133\atlmfc\include\afx.inl
; File C:\Program Files (x86)\Microsoft Visual Studio\2019\Community\VC\Tools\MSVC\14.29.30133\atlmfc\include\afxtempl.h
; File C:\Program Files (x86)\Microsoft Visual Studio\2019\Community\VC\Tools\MSVC\14.29.30133\atlmfc\include\afx.inl
; File C:\Program Files (x86)\Microsoft Visual Studio\2019\Community\VC\Tools\MSVC\14.29.30133\atlmfc\include\afxtempl.h
; File C:\Program Files (x86)\Microsoft Visual Studio\2019\Community\VC\Tools\MSVC\14.29.30133\atlmfc\include\afx.inl
; File C:\Program Files (x86)\Microsoft Visual Studio\2019\Community\VC\Tools\MSVC\14.29.30133\atlmfc\include\afxtempl.h
; File C:\Program Files (x86)\Microsoft Visual Studio\2019\Community\VC\Tools\MSVC\14.29.30133\atlmfc\include\afx.inl
; File C:\Program Files (x86)\Microsoft Visual Studio\2019\Community\VC\Tools\MSVC\14.29.30133\atlmfc\include\afxtempl.h
; File C:\Program Files (x86)\Microsoft Visual Studio\2019\Community\VC\Tools\MSVC\14.29.30133\atlmfc\include\afx.inl
; File C:\Program Files (x86)\Microsoft Visual Studio\2019\Community\VC\Tools\MSVC\14.29.30133\atlmfc\include\afxtempl.h
; File C:\Program Files (x86)\Microsoft Visual Studio\2019\Community\VC\Tools\MSVC\14.29.30133\atlmfc\include\afx.inl
; File C:\Program Files (x86)\Microsoft Visual Studio\2019\Community\VC\Tools\MSVC\14.29.30133\atlmfc\include\afxtempl.h
; File C:\Program Files (x86)\Microsoft Visual Studio\2019\Community\VC\Tools\MSVC\14.29.30133\atlmfc\include\afx.inl
; File C:\Program Files (x86)\Microsoft Visual Studio\2019\Community\VC\Tools\MSVC\14.29.30133\atlmfc\include\afxtempl.h
; File C:\Program Files (x86)\Microsoft Visual Studio\2019\Community\VC\Tools\MSVC\14.29.30133\atlmfc\include\afx.inl
; File C:\Program Files (x86)\Microsoft Visual Studio\2019\Community\VC\Tools\MSVC\14.29.30133\atlmfc\include\afxtempl.h
; File C:\Program Files (x86)\Microsoft Visual Studio\2019\Community\VC\Tools\MSVC\14.29.30133\atlmfc\include\afx.inl
; File C:\Program Files (x86)\Microsoft Visual Studio\2019\Community\VC\Tools\MSVC\14.29.30133\atlmfc\include\afxtempl.h
; File C:\Program Files (x86)\Microsoft Visual Studio\2019\Community\VC\Tools\MSVC\14.29.30133\atlmfc\include\afx.inl
; File C:\Program Files (x86)\Microsoft Visual Studio\2019\Community\VC\Tools\MSVC\14.29.30133\atlmfc\include\afxtempl.h
; File C:\Program Files (x86)\Microsoft Visual Studio\2019\Community\VC\Tools\MSVC\14.29.30133\atlmfc\include\afx.inl
; File C:\Program Files (x86)\Microsoft Visual Studio\2019\Community\VC\Tools\MSVC\14.29.30133\atlmfc\include\afxtempl.h
; File C:\Program Files (x86)\Microsoft Visual Studio\2019\Community\VC\Tools\MSVC\14.29.30133\atlmfc\include\afx.inl
; File C:\Program Files (x86)\Microsoft Visual Studio\2019\Community\VC\Tools\MSVC\14.29.30133\atlmfc\include\afxtempl.h
; File C:\Program Files (x86)\Microsoft Visual Studio\2019\Community\VC\Tools\MSVC\14.29.30133\atlmfc\include\afx.inl
; File C:\Program Files (x86)\Microsoft Visual Studio\2019\Community\VC\Tools\MSVC\14.29.30133\atlmfc\include\afxtempl.h
; File C:\Program Files (x86)\Microsoft Visual Studio\2019\Community\VC\Tools\MSVC\14.29.30133\atlmfc\include\afx.inl
; File C:\Program Files (x86)\Microsoft Visual Studio\2019\Community\VC\Tools\MSVC\14.29.30133\atlmfc\include\afxtempl.h
; File C:\Program Files (x86)\Microsoft Visual Studio\2019\Community\VC\Tools\MSVC\14.29.30133\atlmfc\include\afx.inl
; File C:\Program Files (x86)\Microsoft Visual Studio\2019\Community\VC\Tools\MSVC\14.29.30133\atlmfc\include\afxtempl.h
; File C:\Program Files (x86)\Microsoft Visual Studio\2019\Community\VC\Tools\MSVC\14.29.30133\atlmfc\include\afx.inl
; File C:\Program Files (x86)\Microsoft Visual Studio\2019\Community\VC\Tools\MSVC\14.29.30133\atlmfc\include\afxtempl.h
; File C:\Program Files (x86)\Microsoft Visual Studio\2019\Community\VC\Tools\MSVC\14.29.30133\atlmfc\include\afx.inl
; File C:\Program Files (x86)\Microsoft Visual Studio\2019\Community\VC\Tools\MSVC\14.29.30133\atlmfc\include\afxtempl.h
; File C:\Program Files (x86)\Microsoft Visual Studio\2019\Community\VC\Tools\MSVC\14.29.30133\atlmfc\include\afx.inl
; File C:\Program Files (x86)\Microsoft Visual Studio\2019\Community\VC\Tools\MSVC\14.29.30133\atlmfc\include\afxtempl.h
;	COMDAT ?Serialize@?$CMap@HHKAAK@@UAEXAAVCArchive@@@Z
_TEXT	SEGMENT
_nHashBucket$1$ = -32					; size = 4
_nCount$1$ = -32					; size = 4
_nElementsToRead$1$ = -32				; size = 4
_nElementsToRead$1$ = -28				; size = 4
_pData$1$ = -28						; size = 4
_nCount$1$ = -28					; size = 4
_nNewCount$1$ = -28					; size = 4
_newValue$3 = -24					; size = 4
_this$1$ = -20						; size = 4
_newKey$4 = -16						; size = 4
_pData$1$ = -12						; size = 4
_pData$1$ = -12						; size = 4
_key$1$ = -12						; size = 4
_nHash$1$ = -12						; size = 4
_pAssoc$1$ = -8						; size = 4
_nElementsLeft$1$ = -4					; size = 4
_pData$1$ = -4						; size = 4
_pData$1$ = -4						; size = 4
_nHashSize$1$ = 8					; size = 4
_pData$1$ = 8						; size = 4
_nElementsLeft$1$ = 8					; size = 4
_pData$1$ = 8						; size = 4
_nElementsLeft$1$ = 8					; size = 4
_ar$ = 8						; size = 4
?Serialize@?$CMap@HHKAAK@@UAEXAAVCArchive@@@Z PROC	; CMap<int,int,unsigned long,unsigned long &>::Serialize, COMDAT
; _this$ = ecx

; 1743 : {

  00000	55		 push	 ebp
  00001	8b ec		 mov	 ebp, esp
  00003	83 ec 20	 sub	 esp, 32			; 00000020H
  00006	53		 push	 ebx
; File C:\Program Files (x86)\Microsoft Visual Studio\2019\Community\VC\Tools\MSVC\14.29.30133\atlmfc\include\afx.inl

; 212  : 	{ return (m_nMode & CArchive::load) == 0; }

  00007	8b 5d 08	 mov	 ebx, DWORD PTR _ar$[ebp]
; File C:\Program Files (x86)\Microsoft Visual Studio\2019\Community\VC\Tools\MSVC\14.29.30133\atlmfc\include\afxtempl.h

; 1743 : {

  0000a	56		 push	 esi
  0000b	8b f1		 mov	 esi, ecx

; 1748 : 	if (ar.IsStoring())

  0000d	8b cb		 mov	 ecx, ebx
  0000f	57		 push	 edi
; File C:\Program Files (x86)\Microsoft Visual Studio\2019\Community\VC\Tools\MSVC\14.29.30133\atlmfc\include\afx.inl

; 212  : 	{ return (m_nMode & CArchive::load) == 0; }

  00010	8b 43 18	 mov	 eax, DWORD PTR [ebx+24]
  00013	f7 d0		 not	 eax
; File C:\Program Files (x86)\Microsoft Visual Studio\2019\Community\VC\Tools\MSVC\14.29.30133\atlmfc\include\afxtempl.h

; 1743 : {

  00015	89 75 ec	 mov	 DWORD PTR _this$1$[ebp], esi
; File C:\Program Files (x86)\Microsoft Visual Studio\2019\Community\VC\Tools\MSVC\14.29.30133\atlmfc\include\afx.inl

; 212  : 	{ return (m_nMode & CArchive::load) == 0; }

  00018	a8 01		 test	 al, 1
; File C:\Program Files (x86)\Microsoft Visual Studio\2019\Community\VC\Tools\MSVC\14.29.30133\atlmfc\include\afxtempl.h

; 1748 : 	if (ar.IsStoring())

  0001a	0f 84 71 01 00
	00		 je	 $LN10@Serialize

; 1749 : 	{
; 1750 : 		ar.WriteCount(m_nCount);

  00020	ff 76 0c	 push	 DWORD PTR [esi+12]
  00023	e8 00 00 00 00	 call	 ?WriteCount@CArchive@@QAEXK@Z ; CArchive::WriteCount

; 1751 : 		if (m_nCount == 0)

  00028	83 7e 0c 00	 cmp	 DWORD PTR [esi+12], 0
  0002c	0f 84 be 03 00
	00		 je	 $LN189@Serialize

; 1752 : 			return;  // nothing more to do
; 1753 : 
; 1754 : 		ASSERT(m_pHashTable != NULL);
; 1755 : 		if (m_pHashTable != NULL)

  00032	83 7e 04 00	 cmp	 DWORD PTR [esi+4], 0
  00036	0f 84 b4 03 00
	00		 je	 $LN189@Serialize

; 1756 : 		{
; 1757 : 			for (UINT nHash = 0; nHash < m_nHashTableSize; nHash++)

  0003c	33 c9		 xor	 ecx, ecx
  0003e	89 4d f4	 mov	 DWORD PTR _nHash$1$[ebp], ecx
  00041	39 4e 08	 cmp	 DWORD PTR [esi+8], ecx
  00044	0f 86 a6 03 00
	00		 jbe	 $LN189@Serialize
  0004a	66 0f 1f 44 00
	00		 npad	 6
$LL4@Serialize:

; 1758 : 			{
; 1759 : 				CAssoc* pAssoc;
; 1760 : 				for (pAssoc = m_pHashTable[nHash]; pAssoc != NULL; pAssoc = pAssoc->pNext)

  00050	8b 46 04	 mov	 eax, DWORD PTR [esi+4]
  00053	8b 0c 88	 mov	 ecx, DWORD PTR [eax+ecx*4]
  00056	89 4d f8	 mov	 DWORD PTR _pAssoc$1$[ebp], ecx
  00059	85 c9		 test	 ecx, ecx
  0005b	0f 84 17 01 00
	00		 je	 $LN2@Serialize
$LL7@Serialize:
; File C:\Program Files (x86)\Microsoft Visual Studio\2019\Community\VC\Tools\MSVC\14.29.30133\atlmfc\include\afx.inl

; 212  : 	{ return (m_nMode & CArchive::load) == 0; }

  00061	8b 43 18	 mov	 eax, DWORD PTR [ebx+24]
; File C:\Program Files (x86)\Microsoft Visual Studio\2019\Community\VC\Tools\MSVC\14.29.30133\atlmfc\include\afxtempl.h

; 1770 : 					pValue = reinterpret_cast< VALUE* >( &reinterpret_cast< int& >( static_cast< VALUE& >( pAssoc->value ) ) );

  00064	8d 71 04	 lea	 esi, DWORD PTR [ecx+4]
; File C:\Program Files (x86)\Microsoft Visual Studio\2019\Community\VC\Tools\MSVC\14.29.30133\atlmfc\include\afx.inl

; 212  : 	{ return (m_nMode & CArchive::load) == 0; }

  00067	f7 d0		 not	 eax
; File C:\Program Files (x86)\Microsoft Visual Studio\2019\Community\VC\Tools\MSVC\14.29.30133\atlmfc\include\afxtempl.h

; 1770 : 					pValue = reinterpret_cast< VALUE* >( &reinterpret_cast< int& >( static_cast< VALUE& >( pAssoc->value ) ) );

  00069	89 75 e4	 mov	 DWORD PTR _pData$1$[ebp], esi

; 73   : 	if (ar.IsStoring())

  0006c	89 4d fc	 mov	 DWORD PTR _pData$1$[ebp], ecx
; File C:\Program Files (x86)\Microsoft Visual Studio\2019\Community\VC\Tools\MSVC\14.29.30133\atlmfc\include\afx.inl

; 212  : 	{ return (m_nMode & CArchive::load) == 0; }

  0006f	a8 01		 test	 al, 1
; File C:\Program Files (x86)\Microsoft Visual Studio\2019\Community\VC\Tools\MSVC\14.29.30133\atlmfc\include\afxtempl.h

; 73   : 	if (ar.IsStoring())

  00071	74 3c		 je	 SHORT $LN26@Serialize

; 74   : 	{
; 75   : 		TYPE* pData;
; 76   : 		UINT_PTR nElementsLeft;
; 77   : 
; 78   : 		nElementsLeft = nCount;

  00073	be 01 00 00 00	 mov	 esi, 1

; 79   : 		pData = pElements;

  00078	8b c1		 mov	 eax, ecx
  0007a	66 0f 1f 44 00
	00		 npad	 6
$LL21@Serialize:

; 85   : 			ar.Write(pData, nElementsToWrite*sizeof(TYPE));

  00080	8b 4d 08	 mov	 ecx, DWORD PTR _ar$[ebp]
  00083	bb ff ff ff 1f	 mov	 ebx, 536870911		; 1fffffffH
  00088	3b f3		 cmp	 esi, ebx
  0008a	0f 42 de	 cmovb	 ebx, esi
  0008d	8d 3c 9d 00 00
	00 00		 lea	 edi, DWORD PTR [ebx*4]
  00094	57		 push	 edi
  00095	50		 push	 eax
  00096	e8 00 00 00 00	 call	 ?Write@CArchive@@QAEXPBXI@Z ; CArchive::Write

; 87   : 			pData += nElementsToWrite;

  0009b	8b 45 fc	 mov	 eax, DWORD PTR _pData$1$[ebp]
  0009e	03 c7		 add	 eax, edi
  000a0	89 45 fc	 mov	 DWORD PTR _pData$1$[ebp], eax
  000a3	2b f3		 sub	 esi, ebx
  000a5	75 d9		 jne	 SHORT $LL21@Serialize
  000a7	8b 75 e4	 mov	 esi, DWORD PTR _pData$1$[ebp]

; 88   : 		}
; 89   : 	}

  000aa	8b 5d 08	 mov	 ebx, DWORD PTR _ar$[ebp]
  000ad	eb 3b		 jmp	 SHORT $LN41@Serialize
$LN26@Serialize:

; 90   : 	else
; 91   : 	{
; 92   : 		TYPE* pData;
; 93   : 		UINT_PTR nElementsLeft;
; 94   : 
; 95   : 		nElementsLeft = nCount;

  000af	bf 01 00 00 00	 mov	 edi, 1

; 96   : 		pData = pElements;

  000b4	8b d1		 mov	 edx, ecx
$LL23@Serialize:

; 101  : 			nElementsToRead = UINT(__min(nElementsLeft, INT_MAX/sizeof(TYPE)));

  000b6	b8 ff ff ff 1f	 mov	 eax, 536870911		; 1fffffffH
; File C:\Program Files (x86)\Microsoft Visual Studio\2019\Community\VC\Tools\MSVC\14.29.30133\atlmfc\include\afx.inl

; 399  : 	UINT nRead=Read(lpBuf, nCount);

  000bb	8b cb		 mov	 ecx, ebx
; File C:\Program Files (x86)\Microsoft Visual Studio\2019\Community\VC\Tools\MSVC\14.29.30133\atlmfc\include\afxtempl.h

; 101  : 			nElementsToRead = UINT(__min(nElementsLeft, INT_MAX/sizeof(TYPE)));

  000bd	3b f8		 cmp	 edi, eax
  000bf	0f 42 c7	 cmovb	 eax, edi
  000c2	89 45 e0	 mov	 DWORD PTR _nElementsToRead$1$[ebp], eax

; 102  : 			ar.EnsureRead(pData, nElementsToRead*sizeof(TYPE));

  000c5	c1 e0 02	 shl	 eax, 2
; File C:\Program Files (x86)\Microsoft Visual Studio\2019\Community\VC\Tools\MSVC\14.29.30133\atlmfc\include\afx.inl

; 399  : 	UINT nRead=Read(lpBuf, nCount);

  000c8	50		 push	 eax
  000c9	52		 push	 edx
; File C:\Program Files (x86)\Microsoft Visual Studio\2019\Community\VC\Tools\MSVC\14.29.30133\atlmfc\include\afxtempl.h

; 102  : 			ar.EnsureRead(pData, nElementsToRead*sizeof(TYPE));

  000ca	89 45 e4	 mov	 DWORD PTR _nCount$1$[ebp], eax
; File C:\Program Files (x86)\Microsoft Visual Studio\2019\Community\VC\Tools\MSVC\14.29.30133\atlmfc\include\afx.inl

; 399  : 	UINT nRead=Read(lpBuf, nCount);

  000cd	e8 00 00 00 00	 call	 ?Read@CArchive@@QAEIPAXI@Z ; CArchive::Read

; 400  : 	if(nRead!=nCount)

  000d2	8b 4d e4	 mov	 ecx, DWORD PTR _nCount$1$[ebp]
  000d5	3b c1		 cmp	 eax, ecx
  000d7	0f 85 21 03 00
	00		 jne	 $LN165@Serialize
; File C:\Program Files (x86)\Microsoft Visual Studio\2019\Community\VC\Tools\MSVC\14.29.30133\atlmfc\include\afxtempl.h

; 104  : 			pData += nElementsToRead;

  000dd	8b 55 fc	 mov	 edx, DWORD PTR _pData$1$[ebp]
  000e0	03 d1		 add	 edx, ecx
  000e2	89 55 fc	 mov	 DWORD PTR _pData$1$[ebp], edx
  000e5	2b 7d e0	 sub	 edi, DWORD PTR _nElementsToRead$1$[ebp]
  000e8	75 cc		 jne	 SHORT $LL23@Serialize
$LN41@Serialize:

; 68   : 	ENSURE(nCount == 0 || pElements != NULL);

  000ea	85 f6		 test	 esi, esi
  000ec	0f 84 07 03 00
	00		 je	 $LN167@Serialize
; File C:\Program Files (x86)\Microsoft Visual Studio\2019\Community\VC\Tools\MSVC\14.29.30133\atlmfc\include\afx.inl

; 212  : 	{ return (m_nMode & CArchive::load) == 0; }

  000f2	8b 43 18	 mov	 eax, DWORD PTR [ebx+24]
  000f5	f7 d0		 not	 eax
  000f7	a8 01		 test	 al, 1
; File C:\Program Files (x86)\Microsoft Visual Studio\2019\Community\VC\Tools\MSVC\14.29.30133\atlmfc\include\afxtempl.h

; 73   : 	if (ar.IsStoring())

  000f9	74 36		 je	 SHORT $LN47@Serialize

; 74   : 	{
; 75   : 		TYPE* pData;
; 76   : 		UINT_PTR nElementsLeft;
; 77   : 
; 78   : 		nElementsLeft = nCount;

  000fb	b8 01 00 00 00	 mov	 eax, 1
  00100	89 45 fc	 mov	 DWORD PTR _nElementsLeft$1$[ebp], eax
$LL42@Serialize:

; 85   : 			ar.Write(pData, nElementsToWrite*sizeof(TYPE));

  00103	8b 4d 08	 mov	 ecx, DWORD PTR _ar$[ebp]
  00106	bb ff ff ff 1f	 mov	 ebx, 536870911		; 1fffffffH
  0010b	3b c3		 cmp	 eax, ebx
  0010d	0f 42 d8	 cmovb	 ebx, eax
  00110	8d 3c 9d 00 00
	00 00		 lea	 edi, DWORD PTR [ebx*4]
  00117	57		 push	 edi
  00118	56		 push	 esi
  00119	e8 00 00 00 00	 call	 ?Write@CArchive@@QAEXPBXI@Z ; CArchive::Write

; 86   : 			nElementsLeft -= nElementsToWrite;

  0011e	8b 45 fc	 mov	 eax, DWORD PTR _nElementsLeft$1$[ebp]

; 87   : 			pData += nElementsToWrite;

  00121	03 f7		 add	 esi, edi
  00123	2b c3		 sub	 eax, ebx
  00125	89 45 fc	 mov	 DWORD PTR _nElementsLeft$1$[ebp], eax
  00128	85 c0		 test	 eax, eax
  0012a	75 d7		 jne	 SHORT $LL42@Serialize

; 88   : 		}
; 89   : 	}

  0012c	8b 5d 08	 mov	 ebx, DWORD PTR _ar$[ebp]
  0012f	eb 33		 jmp	 SHORT $LN5@Serialize
$LN47@Serialize:

; 90   : 	else
; 91   : 	{
; 92   : 		TYPE* pData;
; 93   : 		UINT_PTR nElementsLeft;
; 94   : 
; 95   : 		nElementsLeft = nCount;

  00131	bf 01 00 00 00	 mov	 edi, 1
$LL44@Serialize:

; 101  : 			nElementsToRead = UINT(__min(nElementsLeft, INT_MAX/sizeof(TYPE)));

  00136	b8 ff ff ff 1f	 mov	 eax, 536870911		; 1fffffffH
; File C:\Program Files (x86)\Microsoft Visual Studio\2019\Community\VC\Tools\MSVC\14.29.30133\atlmfc\include\afx.inl

; 399  : 	UINT nRead=Read(lpBuf, nCount);

  0013b	8b cb		 mov	 ecx, ebx
; File C:\Program Files (x86)\Microsoft Visual Studio\2019\Community\VC\Tools\MSVC\14.29.30133\atlmfc\include\afxtempl.h

; 101  : 			nElementsToRead = UINT(__min(nElementsLeft, INT_MAX/sizeof(TYPE)));

  0013d	3b f8		 cmp	 edi, eax
  0013f	0f 42 c7	 cmovb	 eax, edi
  00142	89 45 e4	 mov	 DWORD PTR _nElementsToRead$1$[ebp], eax

; 102  : 			ar.EnsureRead(pData, nElementsToRead*sizeof(TYPE));

  00145	c1 e0 02	 shl	 eax, 2
; File C:\Program Files (x86)\Microsoft Visual Studio\2019\Community\VC\Tools\MSVC\14.29.30133\atlmfc\include\afx.inl

; 399  : 	UINT nRead=Read(lpBuf, nCount);

  00148	50		 push	 eax
  00149	56		 push	 esi
; File C:\Program Files (x86)\Microsoft Visual Studio\2019\Community\VC\Tools\MSVC\14.29.30133\atlmfc\include\afxtempl.h

; 102  : 			ar.EnsureRead(pData, nElementsToRead*sizeof(TYPE));

  0014a	89 45 e0	 mov	 DWORD PTR _nCount$1$[ebp], eax
; File C:\Program Files (x86)\Microsoft Visual Studio\2019\Community\VC\Tools\MSVC\14.29.30133\atlmfc\include\afx.inl

; 399  : 	UINT nRead=Read(lpBuf, nCount);

  0014d	e8 00 00 00 00	 call	 ?Read@CArchive@@QAEIPAXI@Z ; CArchive::Read

; 400  : 	if(nRead!=nCount)

  00152	8b 4d e0	 mov	 ecx, DWORD PTR _nCount$1$[ebp]
  00155	3b c1		 cmp	 eax, ecx
  00157	0f 85 a1 02 00
	00		 jne	 $LN165@Serialize
; File C:\Program Files (x86)\Microsoft Visual Studio\2019\Community\VC\Tools\MSVC\14.29.30133\atlmfc\include\afxtempl.h

; 103  : 			nElementsLeft -= nElementsToRead;

  0015d	03 f1		 add	 esi, ecx
  0015f	2b 7d e4	 sub	 edi, DWORD PTR _nElementsToRead$1$[ebp]
  00162	75 d2		 jne	 SHORT $LL44@Serialize
$LN5@Serialize:

; 1758 : 			{
; 1759 : 				CAssoc* pAssoc;
; 1760 : 				for (pAssoc = m_pHashTable[nHash]; pAssoc != NULL; pAssoc = pAssoc->pNext)

  00164	8b 4d f8	 mov	 ecx, DWORD PTR _pAssoc$1$[ebp]
  00167	8b 49 08	 mov	 ecx, DWORD PTR [ecx+8]
  0016a	89 4d f8	 mov	 DWORD PTR _pAssoc$1$[ebp], ecx
  0016d	85 c9		 test	 ecx, ecx
  0016f	0f 85 ec fe ff
	ff		 jne	 $LL7@Serialize
  00175	8b 75 ec	 mov	 esi, DWORD PTR _this$1$[ebp]
$LN2@Serialize:

; 1756 : 		{
; 1757 : 			for (UINT nHash = 0; nHash < m_nHashTableSize; nHash++)

  00178	8b 4d f4	 mov	 ecx, DWORD PTR _nHash$1$[ebp]
  0017b	41		 inc	 ecx
  0017c	89 4d f4	 mov	 DWORD PTR _nHash$1$[ebp], ecx
  0017f	3b 4e 08	 cmp	 ecx, DWORD PTR [esi+8]
  00182	0f 82 c8 fe ff
	ff		 jb	 $LL4@Serialize

; 1787 : 		}
; 1788 : 	}
; 1789 : }

  00188	5f		 pop	 edi
  00189	5e		 pop	 esi
  0018a	5b		 pop	 ebx
  0018b	8b e5		 mov	 esp, ebp
  0018d	5d		 pop	 ebp
  0018e	c2 04 00	 ret	 4
$LN10@Serialize:

; 1771 : 					SerializeElements<KEY>(ar, pKey, 1);
; 1772 : 					SerializeElements<VALUE>(ar, pValue, 1);
; 1773 : 				}
; 1774 : 			}
; 1775 : 		}
; 1776 : 	}
; 1777 : 	else
; 1778 : 	{
; 1779 : 		DWORD_PTR nNewCount = ar.ReadCount();

  00191	e8 00 00 00 00	 call	 ?ReadCount@CArchive@@QAEKXZ ; CArchive::ReadCount

; 1780 : 		while (nNewCount--)

  00196	85 c0		 test	 eax, eax
  00198	0f 84 52 02 00
	00		 je	 $LN189@Serialize
  0019e	66 90		 npad	 2
$LL8@Serialize:
  001a0	48		 dec	 eax
  001a1	89 45 e4	 mov	 DWORD PTR _nNewCount$1$[ebp], eax
; File C:\Program Files (x86)\Microsoft Visual Studio\2019\Community\VC\Tools\MSVC\14.29.30133\atlmfc\include\afx.inl

; 212  : 	{ return (m_nMode & CArchive::load) == 0; }

  001a4	8b 43 18	 mov	 eax, DWORD PTR [ebx+24]
  001a7	f7 d0		 not	 eax
  001a9	a8 01		 test	 al, 1
; File C:\Program Files (x86)\Microsoft Visual Studio\2019\Community\VC\Tools\MSVC\14.29.30133\atlmfc\include\afxtempl.h

; 73   : 	if (ar.IsStoring())

  001ab	74 43		 je	 SHORT $LN67@Serialize

; 74   : 	{
; 75   : 		TYPE* pData;
; 76   : 		UINT_PTR nElementsLeft;
; 77   : 
; 78   : 		nElementsLeft = nCount;

  001ad	b8 01 00 00 00	 mov	 eax, 1

; 79   : 		pData = pElements;

  001b2	8d 4d f0	 lea	 ecx, DWORD PTR _newKey$4[ebp]
  001b5	89 45 08	 mov	 DWORD PTR _nElementsLeft$1$[ebp], eax
  001b8	89 4d f4	 mov	 DWORD PTR _pData$1$[ebp], ecx
  001bb	0f 1f 44 00 00	 npad	 5
$LL62@Serialize:

; 80   : 		while( nElementsLeft > 0 )
; 81   : 		{
; 82   : 			UINT nElementsToWrite;
; 83   : 
; 84   : 			nElementsToWrite = UINT(__min(nElementsLeft, INT_MAX/sizeof(TYPE)));

  001c0	bf ff ff ff 1f	 mov	 edi, 536870911		; 1fffffffH
  001c5	3b c7		 cmp	 eax, edi
  001c7	0f 42 f8	 cmovb	 edi, eax

; 85   : 			ar.Write(pData, nElementsToWrite*sizeof(TYPE));

  001ca	8d 34 bd 00 00
	00 00		 lea	 esi, DWORD PTR [edi*4]
  001d1	56		 push	 esi
  001d2	51		 push	 ecx
  001d3	8b cb		 mov	 ecx, ebx
  001d5	e8 00 00 00 00	 call	 ?Write@CArchive@@QAEXPBXI@Z ; CArchive::Write

; 86   : 			nElementsLeft -= nElementsToWrite;

  001da	8b 45 08	 mov	 eax, DWORD PTR _nElementsLeft$1$[ebp]

; 87   : 			pData += nElementsToWrite;

  001dd	8b 4d f4	 mov	 ecx, DWORD PTR _pData$1$[ebp]
  001e0	2b c7		 sub	 eax, edi
  001e2	03 ce		 add	 ecx, esi
  001e4	89 45 08	 mov	 DWORD PTR _nElementsLeft$1$[ebp], eax
  001e7	89 4d f4	 mov	 DWORD PTR _pData$1$[ebp], ecx
  001ea	85 c0		 test	 eax, eax
  001ec	75 d2		 jne	 SHORT $LL62@Serialize

; 88   : 		}
; 89   : 	}

  001ee	eb 45		 jmp	 SHORT $LN81@Serialize
$LN67@Serialize:

; 96   : 		pData = pElements;

  001f0	8d 55 f0	 lea	 edx, DWORD PTR _newKey$4[ebp]
  001f3	be 01 00 00 00	 mov	 esi, 1
  001f8	89 55 08	 mov	 DWORD PTR _pData$1$[ebp], edx
  001fb	0f 1f 44 00 00	 npad	 5
$LL64@Serialize:

; 101  : 			nElementsToRead = UINT(__min(nElementsLeft, INT_MAX/sizeof(TYPE)));

  00200	bf ff ff ff 1f	 mov	 edi, 536870911		; 1fffffffH
; File C:\Program Files (x86)\Microsoft Visual Studio\2019\Community\VC\Tools\MSVC\14.29.30133\atlmfc\include\afx.inl

; 399  : 	UINT nRead=Read(lpBuf, nCount);

  00205	8b cb		 mov	 ecx, ebx
; File C:\Program Files (x86)\Microsoft Visual Studio\2019\Community\VC\Tools\MSVC\14.29.30133\atlmfc\include\afxtempl.h

; 101  : 			nElementsToRead = UINT(__min(nElementsLeft, INT_MAX/sizeof(TYPE)));

  00207	3b f7		 cmp	 esi, edi
  00209	0f 42 fe	 cmovb	 edi, esi

; 102  : 			ar.EnsureRead(pData, nElementsToRead*sizeof(TYPE));

  0020c	8d 04 bd 00 00
	00 00		 lea	 eax, DWORD PTR [edi*4]
; File C:\Program Files (x86)\Microsoft Visual Studio\2019\Community\VC\Tools\MSVC\14.29.30133\atlmfc\include\afx.inl

; 399  : 	UINT nRead=Read(lpBuf, nCount);

  00213	50		 push	 eax
  00214	52		 push	 edx
  00215	e8 00 00 00 00	 call	 ?Read@CArchive@@QAEIPAXI@Z ; CArchive::Read

; 400  : 	if(nRead!=nCount)

  0021a	8d 0c bd 00 00
	00 00		 lea	 ecx, DWORD PTR [edi*4]
  00221	3b c1		 cmp	 eax, ecx
  00223	0f 85 d5 01 00
	00		 jne	 $LN165@Serialize
; File C:\Program Files (x86)\Microsoft Visual Studio\2019\Community\VC\Tools\MSVC\14.29.30133\atlmfc\include\afxtempl.h

; 104  : 			pData += nElementsToRead;

  00229	8b 55 08	 mov	 edx, DWORD PTR _pData$1$[ebp]
  0022c	03 d1		 add	 edx, ecx
  0022e	89 55 08	 mov	 DWORD PTR _pData$1$[ebp], edx
  00231	2b f7		 sub	 esi, edi
  00233	75 cb		 jne	 SHORT $LL64@Serialize
$LN81@Serialize:
; File C:\Program Files (x86)\Microsoft Visual Studio\2019\Community\VC\Tools\MSVC\14.29.30133\atlmfc\include\afx.inl

; 212  : 	{ return (m_nMode & CArchive::load) == 0; }

  00235	8b 43 18	 mov	 eax, DWORD PTR [ebx+24]
  00238	f7 d0		 not	 eax
  0023a	a8 01		 test	 al, 1
; File C:\Program Files (x86)\Microsoft Visual Studio\2019\Community\VC\Tools\MSVC\14.29.30133\atlmfc\include\afxtempl.h

; 73   : 	if (ar.IsStoring())

  0023c	74 42		 je	 SHORT $LN87@Serialize

; 74   : 	{
; 75   : 		TYPE* pData;
; 76   : 		UINT_PTR nElementsLeft;
; 77   : 
; 78   : 		nElementsLeft = nCount;

  0023e	b8 01 00 00 00	 mov	 eax, 1

; 79   : 		pData = pElements;

  00243	8d 4d e8	 lea	 ecx, DWORD PTR _newValue$3[ebp]
  00246	89 45 08	 mov	 DWORD PTR _nElementsLeft$1$[ebp], eax
  00249	89 4d f4	 mov	 DWORD PTR _pData$1$[ebp], ecx
  0024c	0f 1f 40 00	 npad	 4
$LL82@Serialize:

; 80   : 		while( nElementsLeft > 0 )
; 81   : 		{
; 82   : 			UINT nElementsToWrite;
; 83   : 
; 84   : 			nElementsToWrite = UINT(__min(nElementsLeft, INT_MAX/sizeof(TYPE)));

  00250	bf ff ff ff 1f	 mov	 edi, 536870911		; 1fffffffH
  00255	3b c7		 cmp	 eax, edi
  00257	0f 42 f8	 cmovb	 edi, eax

; 85   : 			ar.Write(pData, nElementsToWrite*sizeof(TYPE));

  0025a	8d 34 bd 00 00
	00 00		 lea	 esi, DWORD PTR [edi*4]
  00261	56		 push	 esi
  00262	51		 push	 ecx
  00263	8b cb		 mov	 ecx, ebx
  00265	e8 00 00 00 00	 call	 ?Write@CArchive@@QAEXPBXI@Z ; CArchive::Write

; 86   : 			nElementsLeft -= nElementsToWrite;

  0026a	8b 45 08	 mov	 eax, DWORD PTR _nElementsLeft$1$[ebp]

; 87   : 			pData += nElementsToWrite;

  0026d	8b 4d f4	 mov	 ecx, DWORD PTR _pData$1$[ebp]
  00270	2b c7		 sub	 eax, edi
  00272	03 ce		 add	 ecx, esi
  00274	89 45 08	 mov	 DWORD PTR _nElementsLeft$1$[ebp], eax
  00277	89 4d f4	 mov	 DWORD PTR _pData$1$[ebp], ecx
  0027a	85 c0		 test	 eax, eax
  0027c	75 d2		 jne	 SHORT $LL82@Serialize

; 88   : 		}
; 89   : 	}

  0027e	eb 45		 jmp	 SHORT $LN85@Serialize
$LN87@Serialize:

; 96   : 		pData = pElements;

  00280	8d 55 e8	 lea	 edx, DWORD PTR _newValue$3[ebp]
  00283	be 01 00 00 00	 mov	 esi, 1
  00288	89 55 08	 mov	 DWORD PTR _pData$1$[ebp], edx
  0028b	0f 1f 44 00 00	 npad	 5
$LL84@Serialize:

; 101  : 			nElementsToRead = UINT(__min(nElementsLeft, INT_MAX/sizeof(TYPE)));

  00290	bf ff ff ff 1f	 mov	 edi, 536870911		; 1fffffffH
; File C:\Program Files (x86)\Microsoft Visual Studio\2019\Community\VC\Tools\MSVC\14.29.30133\atlmfc\include\afx.inl

; 399  : 	UINT nRead=Read(lpBuf, nCount);

  00295	8b cb		 mov	 ecx, ebx
; File C:\Program Files (x86)\Microsoft Visual Studio\2019\Community\VC\Tools\MSVC\14.29.30133\atlmfc\include\afxtempl.h

; 101  : 			nElementsToRead = UINT(__min(nElementsLeft, INT_MAX/sizeof(TYPE)));

  00297	3b f7		 cmp	 esi, edi
  00299	0f 42 fe	 cmovb	 edi, esi

; 102  : 			ar.EnsureRead(pData, nElementsToRead*sizeof(TYPE));

  0029c	8d 04 bd 00 00
	00 00		 lea	 eax, DWORD PTR [edi*4]
; File C:\Program Files (x86)\Microsoft Visual Studio\2019\Community\VC\Tools\MSVC\14.29.30133\atlmfc\include\afx.inl

; 399  : 	UINT nRead=Read(lpBuf, nCount);

  002a3	50		 push	 eax
  002a4	52		 push	 edx
  002a5	e8 00 00 00 00	 call	 ?Read@CArchive@@QAEIPAXI@Z ; CArchive::Read

; 400  : 	if(nRead!=nCount)

  002aa	8d 0c bd 00 00
	00 00		 lea	 ecx, DWORD PTR [edi*4]
  002b1	3b c1		 cmp	 eax, ecx
  002b3	0f 85 45 01 00
	00		 jne	 $LN165@Serialize
; File C:\Program Files (x86)\Microsoft Visual Studio\2019\Community\VC\Tools\MSVC\14.29.30133\atlmfc\include\afxtempl.h

; 104  : 			pData += nElementsToRead;

  002b9	8b 55 08	 mov	 edx, DWORD PTR _pData$1$[ebp]
  002bc	03 d1		 add	 edx, ecx
  002be	89 55 08	 mov	 DWORD PTR _pData$1$[ebp], edx
  002c1	2b f7		 sub	 esi, edi
  002c3	75 cb		 jne	 SHORT $LL84@Serialize
$LN85@Serialize:

; 1781 : 		{
; 1782 : 			KEY newKey[1];
; 1783 : 			VALUE newValue[1];
; 1784 : 			SerializeElements<KEY>(ar, newKey, 1);
; 1785 : 			SerializeElements<VALUE>(ar, newValue, 1);
; 1786 : 			SetAt(newKey[0], newValue[0]);

  002c5	8b 45 f0	 mov	 eax, DWORD PTR _newKey$4[ebp]
  002c8	b9 1d f3 01 00	 mov	 ecx, 127773		; 0001f31dH
  002cd	89 45 f4	 mov	 DWORD PTR _key$1$[ebp], eax
  002d0	99		 cdq
  002d1	f7 f9		 idiv	 ecx

; 1534 : 	nHashBucket = nHashValue % m_nHashTableSize;

  002d3	8b 75 ec	 mov	 esi, DWORD PTR _this$1$[ebp]

; 166  : 	HashVal.rem = 16807 * HashVal.rem - 2836 * HashVal.quot;

  002d6	69 c0 14 0b 00
	00		 imul	 eax, eax, 2836
  002dc	69 ca a7 41 00
	00		 imul	 ecx, edx, 16807
  002e2	2b c8		 sub	 ecx, eax

; 1534 : 	nHashBucket = nHashValue % m_nHashTableSize;

  002e4	8d b9 ff ff ff
	7f		 lea	 edi, DWORD PTR [ecx+2147483647]
  002ea	0f 49 f9	 cmovns	 edi, ecx
  002ed	8b 4e 08	 mov	 ecx, DWORD PTR [esi+8]
  002f0	33 d2		 xor	 edx, edx
  002f2	89 4d 08	 mov	 DWORD PTR _nHashSize$1$[ebp], ecx
  002f5	8b c7		 mov	 eax, edi
  002f7	f7 f1		 div	 ecx

; 1535 : 
; 1536 : 	if (m_pHashTable == NULL)

  002f9	8b 4e 04	 mov	 ecx, DWORD PTR [esi+4]
  002fc	8b c2		 mov	 eax, edx
  002fe	89 45 e0	 mov	 DWORD PTR _nHashBucket$1$[ebp], eax
  00301	85 c9		 test	 ecx, ecx
  00303	75 49		 jne	 SHORT $LN112@Serialize

; 1434 : 		m_pHashTable = new CAssoc* [nHashSize];

  00305	8b 45 08	 mov	 eax, DWORD PTR _nHashSize$1$[ebp]
  00308	ba 04 00 00 00	 mov	 edx, 4
  0030d	f7 e2		 mul	 edx
  0030f	0f 90 c1	 seto	 cl
  00312	f7 d9		 neg	 ecx
  00314	0b c8		 or	 ecx, eax
  00316	51		 push	 ecx
  00317	e8 00 00 00 00	 call	 ??_U@YAPAXI@Z		; operator new[]
  0031c	83 c4 04	 add	 esp, 4
  0031f	89 46 04	 mov	 DWORD PTR [esi+4], eax

; 1435 : 		ENSURE(m_pHashTable != NULL);

  00322	85 c0		 test	 eax, eax
  00324	0f 84 cf 00 00
	00		 je	 $LN167@Serialize

; 1436 : 		memset(m_pHashTable, 0, sizeof(CAssoc*) * nHashSize);

  0032a	8b 4d 08	 mov	 ecx, DWORD PTR _nHashSize$1$[ebp]
  0032d	c1 e1 02	 shl	 ecx, 2
  00330	51		 push	 ecx
  00331	6a 00		 push	 0
  00333	50		 push	 eax
  00334	e8 00 00 00 00	 call	 _memset

; 1437 : 	}
; 1438 : 	m_nHashTableSize = nHashSize;

  00339	8b 45 08	 mov	 eax, DWORD PTR _nHashSize$1$[ebp]
  0033c	83 c4 0c	 add	 esp, 12			; 0000000cH

; 1595 : 		ENSURE(m_pHashTable);

  0033f	83 7e 04 00	 cmp	 DWORD PTR [esi+4], 0

; 1438 : 	m_nHashTableSize = nHashSize;

  00343	89 46 08	 mov	 DWORD PTR [esi+8], eax

; 1595 : 		ENSURE(m_pHashTable);

  00346	0f 84 ad 00 00
	00		 je	 $LN167@Serialize
  0034c	eb 1e		 jmp	 SHORT $LN225@Serialize
$LN112@Serialize:

; 1541 : 	for (pAssoc = m_pHashTable[nHashBucket]; pAssoc != NULL; pAssoc = pAssoc->pNext)

  0034e	8b 0c 81	 mov	 ecx, DWORD PTR [ecx+eax*4]
  00351	85 c9		 test	 ecx, ecx
  00353	74 17		 je	 SHORT $LN225@Serialize
  00355	8b 45 f4	 mov	 eax, DWORD PTR _key$1$[ebp]
$LL111@Serialize:

; 1542 : 	{
; 1543 : 		if (pAssoc->nHashValue == nHashValue && CompareElements(&pAssoc->key, &key))

  00358	39 79 0c	 cmp	 DWORD PTR [ecx+12], edi
  0035b	75 08		 jne	 SHORT $LN109@Serialize

; 156  : 	return *pElement1 == *pElement2;

  0035d	39 01		 cmp	 DWORD PTR [ecx], eax

; 1543 : 		if (pAssoc->nHashValue == nHashValue && CompareElements(&pAssoc->key, &key))

  0035f	0f 84 7a 00 00
	00		 je	 $LN104@Serialize
$LN109@Serialize:

; 1537 : 		return NULL;
; 1538 : 
; 1539 : 	// see if it exists
; 1540 : 	CAssoc* pAssoc;
; 1541 : 	for (pAssoc = m_pHashTable[nHashBucket]; pAssoc != NULL; pAssoc = pAssoc->pNext)

  00365	8b 49 08	 mov	 ecx, DWORD PTR [ecx+8]
  00368	85 c9		 test	 ecx, ecx
  0036a	75 ec		 jne	 SHORT $LL111@Serialize
$LN225@Serialize:

; 1481 : 	if (m_pFreeList == NULL)

  0036c	83 7e 10 00	 cmp	 DWORD PTR [esi+16], 0
  00370	75 34		 jne	 SHORT $LN142@Serialize

; 1482 : 	{
; 1483 : 		// add another block
; 1484 : 		CPlex* newBlock = CPlex::Create(m_pBlocks, m_nBlockSize, sizeof(CMap::CAssoc));

  00372	6a 10		 push	 16			; 00000010H
  00374	ff 76 18	 push	 DWORD PTR [esi+24]
  00377	8d 46 14	 lea	 eax, DWORD PTR [esi+20]
  0037a	50		 push	 eax
  0037b	e8 00 00 00 00	 call	 ?Create@CPlex@@SGPAU1@AAPAU1@II@Z ; CPlex::Create

; 1485 : 		// chain them into free list
; 1486 : 		CMap::CAssoc* pAssoc = (CMap::CAssoc*) newBlock->data();
; 1487 : 		// free in reverse order to make it easier to debug
; 1488 : 		pAssoc += m_nBlockSize - 1;

  00380	8b 56 18	 mov	 edx, DWORD PTR [esi+24]
  00383	83 c0 08	 add	 eax, 8
  00386	8b ca		 mov	 ecx, edx
  00388	c1 e1 04	 shl	 ecx, 4
  0038b	83 c1 f0	 add	 ecx, -16		; fffffff0H
  0038e	03 c8		 add	 ecx, eax

; 1489 : 		for (INT_PTR i = m_nBlockSize-1; i >= 0; i--, pAssoc--)

  00390	83 c2 ff	 add	 edx, -1
  00393	78 11		 js	 SHORT $LN142@Serialize
$LL139@Serialize:

; 1490 : 		{
; 1491 : 			pAssoc->pNext = m_pFreeList;

  00395	8b 46 10	 mov	 eax, DWORD PTR [esi+16]
  00398	89 41 08	 mov	 DWORD PTR [ecx+8], eax

; 1492 : 			m_pFreeList = pAssoc;

  0039b	89 4e 10	 mov	 DWORD PTR [esi+16], ecx
  0039e	83 e9 10	 sub	 ecx, 16			; 00000010H
  003a1	83 ea 01	 sub	 edx, 1
  003a4	79 ef		 jns	 SHORT $LL139@Serialize
$LN142@Serialize:

; 1493 : 		}
; 1494 : 	}
; 1495 : 	ENSURE(m_pFreeList != NULL);  // we must have something

  003a6	8b 4e 10	 mov	 ecx, DWORD PTR [esi+16]
  003a9	85 c9		 test	 ecx, ecx
  003ab	74 4c		 je	 SHORT $LN167@Serialize

; 1496 : 
; 1497 : 	CMap::CAssoc* pAssoc = m_pFreeList;
; 1498 : 
; 1499 : 	// zero the memory
; 1500 : 	CMap::CAssoc* pTemp = pAssoc->pNext;

  003ad	8b 41 08	 mov	 eax, DWORD PTR [ecx+8]
  003b0	0f 57 c0	 xorps	 xmm0, xmm0

; 1602 : 		pAssoc->pNext = m_pHashTable[nHashBucket];

  003b3	8b 55 e0	 mov	 edx, DWORD PTR _nHashBucket$1$[ebp]

; 1501 : 	memset( pAssoc, 0, sizeof(CMap::CAssoc) );

  003b6	0f 11 01	 movups	 XMMWORD PTR [ecx], xmm0

; 1502 : 	pAssoc->pNext = pTemp;

  003b9	89 41 08	 mov	 DWORD PTR [ecx+8], eax

; 1503 : 
; 1504 : 	m_pFreeList = m_pFreeList->pNext;

  003bc	8b 46 10	 mov	 eax, DWORD PTR [esi+16]
  003bf	8b 40 08	 mov	 eax, DWORD PTR [eax+8]

; 1505 : 	m_nCount++;

  003c2	ff 46 0c	 inc	 DWORD PTR [esi+12]
  003c5	89 46 10	 mov	 DWORD PTR [esi+16], eax

; 1256 : 		CPair( ARG_KEY keyval ) : key( keyval )	{}

  003c8	8b 45 f4	 mov	 eax, DWORD PTR _key$1$[ebp]
  003cb	89 01		 mov	 DWORD PTR [ecx], eax

; 1598 : 		pAssoc->nHashValue = nHashValue;

  003cd	89 79 0c	 mov	 DWORD PTR [ecx+12], edi

; 1599 : 		//'pAssoc->value' is a constructed object, nothing more
; 1600 : 
; 1601 : 		// put into hash table
; 1602 : 		pAssoc->pNext = m_pHashTable[nHashBucket];

  003d0	8b 46 04	 mov	 eax, DWORD PTR [esi+4]
  003d3	8b 04 90	 mov	 eax, DWORD PTR [eax+edx*4]
  003d6	89 41 08	 mov	 DWORD PTR [ecx+8], eax

; 1603 : 		m_pHashTable[nHashBucket] = pAssoc;

  003d9	8b 46 04	 mov	 eax, DWORD PTR [esi+4]
  003dc	89 0c 90	 mov	 DWORD PTR [eax+edx*4], ecx
$LN104@Serialize:

; 1350 : 	{ (*this)[key] = newValue; }

  003df	8b 45 e8	 mov	 eax, DWORD PTR _newValue$3[ebp]
  003e2	89 41 04	 mov	 DWORD PTR [ecx+4], eax

; 1780 : 		while (nNewCount--)

  003e5	8b 45 e4	 mov	 eax, DWORD PTR _nNewCount$1$[ebp]
  003e8	85 c0		 test	 eax, eax
  003ea	0f 85 b0 fd ff
	ff		 jne	 $LL8@Serialize
$LN189@Serialize:
  003f0	5f		 pop	 edi

; 1787 : 		}
; 1788 : 	}
; 1789 : }

  003f1	5e		 pop	 esi
  003f2	5b		 pop	 ebx
  003f3	8b e5		 mov	 esp, ebp
  003f5	5d		 pop	 ebp
  003f6	c2 04 00	 ret	 4
$LN167@Serialize:
  003f9	e8 00 00 00 00	 call	 ?AfxThrowInvalidArgException@@YGXXZ ; AfxThrowInvalidArgException
$LN165@Serialize:
  003fe	6a 00		 push	 0
  00400	6a 03		 push	 3
  00402	e8 00 00 00 00	 call	 ?AfxThrowArchiveException@@YGXHPBD@Z ; AfxThrowArchiveException
$LN226@Serialize:
  00407	cc		 int	 3
?Serialize@?$CMap@HHKAAK@@UAEXAAVCArchive@@@Z ENDP	; CMap<int,int,unsigned long,unsigned long &>::Serialize
_TEXT	ENDS
; Function compile flags: /Ogtp
; File C:\Program Files (x86)\Microsoft Visual Studio\2019\Community\VC\Tools\MSVC\14.29.30133\atlmfc\include\afxtempl.h
;	COMDAT ??1?$CMap@HHKAAK@@UAE@XZ
_TEXT	SEGMENT
__$EHRec$ = -12						; size = 12
??1?$CMap@HHKAAK@@UAE@XZ PROC				; CMap<int,int,unsigned long,unsigned long &>::~CMap<int,int,unsigned long,unsigned long &>, COMDAT
; _this$ = ecx

; 1472 : {

  00000	55		 push	 ebp
  00001	8b ec		 mov	 ebp, esp
  00003	6a ff		 push	 -1
  00005	68 00 00 00 00	 push	 __ehhandler$??1?$CMap@HHKAAK@@UAE@XZ
  0000a	64 a1 00 00 00
	00		 mov	 eax, DWORD PTR fs:0
  00010	50		 push	 eax
  00011	56		 push	 esi
  00012	a1 00 00 00 00	 mov	 eax, DWORD PTR ___security_cookie
  00017	33 c5		 xor	 eax, ebp
  00019	50		 push	 eax
  0001a	8d 45 f4	 lea	 eax, DWORD PTR __$EHRec$[ebp]
  0001d	64 a3 00 00 00
	00		 mov	 DWORD PTR fs:0, eax
  00023	8b f1		 mov	 esi, ecx

; 1446 : 	if (m_pHashTable != NULL)

  00025	8b 46 04	 mov	 eax, DWORD PTR [esi+4]

; 1472 : {

  00028	c7 06 00 00 00
	00		 mov	 DWORD PTR [esi], OFFSET ??_7?$CMap@HHKAAK@@6B@

; 1446 : 	if (m_pHashTable != NULL)

  0002e	85 c0		 test	 eax, eax
  00030	74 10		 je	 SHORT $LN10@CMap

; 1447 : 	{
; 1448 : 		// destroy elements (values and keys)
; 1449 : 		for (UINT nHash = 0; nHash < m_nHashTableSize; nHash++)
; 1450 : 		{
; 1451 : 			CAssoc* pAssoc;
; 1452 : 			for (pAssoc = m_pHashTable[nHash]; pAssoc != NULL;
; 1453 : 			  pAssoc = pAssoc->pNext)
; 1454 : 			{
; 1455 : 				pAssoc->CAssoc::~CAssoc();
; 1456 : 			}
; 1457 : 		}
; 1458 : 
; 1459 : 		// free hash table
; 1460 : 		delete[] m_pHashTable;

  00032	50		 push	 eax
  00033	e8 00 00 00 00	 call	 ??_V@YAXPAX@Z		; operator delete[]
  00038	83 c4 04	 add	 esp, 4

; 1461 : 		m_pHashTable = NULL;

  0003b	c7 46 04 00 00
	00 00		 mov	 DWORD PTR [esi+4], 0
$LN10@CMap:

; 1462 : 	}
; 1463 : 
; 1464 : 	m_nCount = 0;
; 1465 : 	m_pFreeList = NULL;
; 1466 : 	m_pBlocks->FreeDataChain();

  00042	8b 4e 14	 mov	 ecx, DWORD PTR [esi+20]
  00045	c7 46 0c 00 00
	00 00		 mov	 DWORD PTR [esi+12], 0
  0004c	c7 46 10 00 00
	00 00		 mov	 DWORD PTR [esi+16], 0
  00053	e8 00 00 00 00	 call	 ?FreeDataChain@CPlex@@QAEXXZ ; CPlex::FreeDataChain

; 1467 : 	m_pBlocks = NULL;

  00058	c7 46 14 00 00
	00 00		 mov	 DWORD PTR [esi+20], 0

; 1473 : 	RemoveAll();
; 1474 : 	ASSERT(m_nCount == 0);
; 1475 : }

  0005f	8b 4d f4	 mov	 ecx, DWORD PTR __$EHRec$[ebp]
  00062	64 89 0d 00 00
	00 00		 mov	 DWORD PTR fs:0, ecx
  00069	59		 pop	 ecx
  0006a	5e		 pop	 esi
  0006b	8b e5		 mov	 esp, ebp
  0006d	5d		 pop	 ebp
  0006e	c3		 ret	 0
  0006f	cc		 int	 3
  00070	cc		 int	 3
  00071	cc		 int	 3
  00072	cc		 int	 3
  00073	cc		 int	 3
_TEXT	ENDS
;	COMDAT text$x
text$x	SEGMENT
__ehhandler$??1?$CMap@HHKAAK@@UAE@XZ:
  00000	90		 npad	 1
  00001	90		 npad	 1
  00002	8b 54 24 08	 mov	 edx, DWORD PTR [esp+8]
  00006	8d 42 0c	 lea	 eax, DWORD PTR [edx+12]
  00009	8b 4a f8	 mov	 ecx, DWORD PTR [edx-8]
  0000c	33 c8		 xor	 ecx, eax
  0000e	e8 00 00 00 00	 call	 @__security_check_cookie@4
  00013	b8 00 00 00 00	 mov	 eax, OFFSET __ehfuncinfo$??1?$CMap@HHKAAK@@UAE@XZ
  00018	e9 00 00 00 00	 jmp	 ___CxxFrameHandler3
text$x	ENDS
??1?$CMap@HHKAAK@@UAE@XZ ENDP				; CMap<int,int,unsigned long,unsigned long &>::~CMap<int,int,unsigned long,unsigned long &>
; Function compile flags: /Ogtp
; File C:\Program Files (x86)\Microsoft Visual Studio\2019\Community\VC\Tools\MSVC\14.29.30133\atlmfc\include\afxtempl.h
;	COMDAT ?GetAssocAt@?$CMap@HHKAAK@@IBEPAVCAssoc@1@HAAI0@Z
_TEXT	SEGMENT
_key$ = 8						; size = 4
_nHashBucket$ = 12					; size = 4
_nHashValue$ = 16					; size = 4
?GetAssocAt@?$CMap@HHKAAK@@IBEPAVCAssoc@1@HAAI0@Z PROC	; CMap<int,int,unsigned long,unsigned long &>::GetAssocAt, COMDAT
; _this$ = ecx

; 1532 : {

  00000	55		 push	 ebp
  00001	8b ec		 mov	 ebp, esp
  00003	56		 push	 esi
  00004	8b f1		 mov	 esi, ecx

; 165  : 	ldiv_t HashVal = ldiv((long)(ARG_KEY)key, 127773);

  00006	b9 1d f3 01 00	 mov	 ecx, 127773		; 0001f31dH

; 1532 : {

  0000b	57		 push	 edi

; 165  : 	ldiv_t HashVal = ldiv((long)(ARG_KEY)key, 127773);

  0000c	8b 7d 08	 mov	 edi, DWORD PTR _key$[ebp]
  0000f	8b c7		 mov	 eax, edi
  00011	99		 cdq
  00012	f7 f9		 idiv	 ecx

; 166  : 	HashVal.rem = 16807 * HashVal.rem - 2836 * HashVal.quot;

  00014	69 c0 14 0b 00
	00		 imul	 eax, eax, 2836
  0001a	69 ca a7 41 00
	00		 imul	 ecx, edx, 16807
  00020	2b c8		 sub	 ecx, eax

; 1533 : 	nHashValue = HashKey<ARG_KEY>(key);

  00022	8d 81 ff ff ff
	7f		 lea	 eax, DWORD PTR [ecx+2147483647]
  00028	0f 49 c1	 cmovns	 eax, ecx
  0002b	8b 4d 10	 mov	 ecx, DWORD PTR _nHashValue$[ebp]

; 1534 : 	nHashBucket = nHashValue % m_nHashTableSize;

  0002e	33 d2		 xor	 edx, edx
  00030	89 01		 mov	 DWORD PTR [ecx], eax
  00032	f7 76 08	 div	 DWORD PTR [esi+8]
  00035	8b 45 0c	 mov	 eax, DWORD PTR _nHashBucket$[ebp]
  00038	89 10		 mov	 DWORD PTR [eax], edx

; 1535 : 
; 1536 : 	if (m_pHashTable == NULL)

  0003a	8b 46 04	 mov	 eax, DWORD PTR [esi+4]
  0003d	85 c0		 test	 eax, eax
  0003f	74 1f		 je	 SHORT $LN26@GetAssocAt

; 1537 : 		return NULL;
; 1538 : 
; 1539 : 	// see if it exists
; 1540 : 	CAssoc* pAssoc;
; 1541 : 	for (pAssoc = m_pHashTable[nHashBucket]; pAssoc != NULL; pAssoc = pAssoc->pNext)

  00041	8b 04 90	 mov	 eax, DWORD PTR [eax+edx*4]
  00044	85 c0		 test	 eax, eax
  00046	74 18		 je	 SHORT $LN26@GetAssocAt

; 1542 : 	{
; 1543 : 		if (pAssoc->nHashValue == nHashValue && CompareElements(&pAssoc->key, &key))

  00048	8b 09		 mov	 ecx, DWORD PTR [ecx]
  0004a	66 0f 1f 44 00
	00		 npad	 6
$LL4@GetAssocAt:
  00050	39 48 0c	 cmp	 DWORD PTR [eax+12], ecx
  00053	75 04		 jne	 SHORT $LN2@GetAssocAt

; 156  : 	return *pElement1 == *pElement2;

  00055	39 38		 cmp	 DWORD PTR [eax], edi

; 1542 : 	{
; 1543 : 		if (pAssoc->nHashValue == nHashValue && CompareElements(&pAssoc->key, &key))

  00057	74 09		 je	 SHORT $LN1@GetAssocAt
$LN2@GetAssocAt:

; 1537 : 		return NULL;
; 1538 : 
; 1539 : 	// see if it exists
; 1540 : 	CAssoc* pAssoc;
; 1541 : 	for (pAssoc = m_pHashTable[nHashBucket]; pAssoc != NULL; pAssoc = pAssoc->pNext)

  00059	8b 40 08	 mov	 eax, DWORD PTR [eax+8]
  0005c	85 c0		 test	 eax, eax
  0005e	75 f0		 jne	 SHORT $LL4@GetAssocAt
$LN26@GetAssocAt:

; 1544 : 			return pAssoc;
; 1545 : 	}
; 1546 : 	return NULL;

  00060	33 c0		 xor	 eax, eax
$LN1@GetAssocAt:
  00062	5f		 pop	 edi

; 1547 : }

  00063	5e		 pop	 esi
  00064	5d		 pop	 ebp
  00065	c2 0c 00	 ret	 12			; 0000000cH
?GetAssocAt@?$CMap@HHKAAK@@IBEPAVCAssoc@1@HAAI0@Z ENDP	; CMap<int,int,unsigned long,unsigned long &>::GetAssocAt
_TEXT	ENDS
; Function compile flags: /Ogtp
; File C:\Program Files (x86)\Microsoft Visual Studio\2019\Community\VC\Tools\MSVC\14.29.30133\atlmfc\include\afxtempl.h
;	COMDAT ?NewAssoc@?$CMap@HHKAAK@@IAEPAVCAssoc@1@H@Z
_TEXT	SEGMENT
_key$ = 8						; size = 4
?NewAssoc@?$CMap@HHKAAK@@IAEPAVCAssoc@1@H@Z PROC	; CMap<int,int,unsigned long,unsigned long &>::NewAssoc, COMDAT
; _this$ = ecx

; 1480 : {

  00000	55		 push	 ebp
  00001	8b ec		 mov	 ebp, esp
  00003	56		 push	 esi
  00004	8b f1		 mov	 esi, ecx

; 1481 : 	if (m_pFreeList == NULL)

  00006	83 7e 10 00	 cmp	 DWORD PTR [esi+16], 0
  0000a	75 35		 jne	 SHORT $LN7@NewAssoc

; 1482 : 	{
; 1483 : 		// add another block
; 1484 : 		CPlex* newBlock = CPlex::Create(m_pBlocks, m_nBlockSize, sizeof(CMap::CAssoc));

  0000c	6a 10		 push	 16			; 00000010H
  0000e	ff 76 18	 push	 DWORD PTR [esi+24]
  00011	8d 46 14	 lea	 eax, DWORD PTR [esi+20]
  00014	50		 push	 eax
  00015	e8 00 00 00 00	 call	 ?Create@CPlex@@SGPAU1@AAPAU1@II@Z ; CPlex::Create

; 1485 : 		// chain them into free list
; 1486 : 		CMap::CAssoc* pAssoc = (CMap::CAssoc*) newBlock->data();
; 1487 : 		// free in reverse order to make it easier to debug
; 1488 : 		pAssoc += m_nBlockSize - 1;

  0001a	8b 56 18	 mov	 edx, DWORD PTR [esi+24]
  0001d	83 c0 08	 add	 eax, 8
  00020	8b ca		 mov	 ecx, edx
  00022	c1 e1 04	 shl	 ecx, 4
  00025	83 c1 f0	 add	 ecx, -16		; fffffff0H
  00028	03 c1		 add	 eax, ecx

; 1489 : 		for (INT_PTR i = m_nBlockSize-1; i >= 0; i--, pAssoc--)

  0002a	83 c2 ff	 add	 edx, -1
  0002d	78 12		 js	 SHORT $LN7@NewAssoc
  0002f	90		 npad	 1
$LL4@NewAssoc:

; 1490 : 		{
; 1491 : 			pAssoc->pNext = m_pFreeList;

  00030	8b 4e 10	 mov	 ecx, DWORD PTR [esi+16]
  00033	89 48 08	 mov	 DWORD PTR [eax+8], ecx

; 1492 : 			m_pFreeList = pAssoc;

  00036	89 46 10	 mov	 DWORD PTR [esi+16], eax
  00039	83 e8 10	 sub	 eax, 16			; 00000010H
  0003c	83 ea 01	 sub	 edx, 1
  0003f	79 ef		 jns	 SHORT $LL4@NewAssoc
$LN7@NewAssoc:

; 1493 : 		}
; 1494 : 	}
; 1495 : 	ENSURE(m_pFreeList != NULL);  // we must have something

  00041	8b 46 10	 mov	 eax, DWORD PTR [esi+16]
  00044	85 c0		 test	 eax, eax
  00046	74 22		 je	 SHORT $LN21@NewAssoc

; 1496 : 
; 1497 : 	CMap::CAssoc* pAssoc = m_pFreeList;
; 1498 : 
; 1499 : 	// zero the memory
; 1500 : 	CMap::CAssoc* pTemp = pAssoc->pNext;

  00048	8b 48 08	 mov	 ecx, DWORD PTR [eax+8]
  0004b	0f 57 c0	 xorps	 xmm0, xmm0

; 1501 : 	memset( pAssoc, 0, sizeof(CMap::CAssoc) );

  0004e	0f 11 00	 movups	 XMMWORD PTR [eax], xmm0

; 1502 : 	pAssoc->pNext = pTemp;

  00051	89 48 08	 mov	 DWORD PTR [eax+8], ecx

; 1503 : 
; 1504 : 	m_pFreeList = m_pFreeList->pNext;

  00054	8b 4e 10	 mov	 ecx, DWORD PTR [esi+16]
  00057	8b 49 08	 mov	 ecx, DWORD PTR [ecx+8]

; 1505 : 	m_nCount++;

  0005a	ff 46 0c	 inc	 DWORD PTR [esi+12]
  0005d	89 4e 10	 mov	 DWORD PTR [esi+16], ecx

; 1256 : 		CPair( ARG_KEY keyval ) : key( keyval )	{}

  00060	8b 4d 08	 mov	 ecx, DWORD PTR _key$[ebp]
  00063	89 08		 mov	 DWORD PTR [eax], ecx

; 1506 : 	ASSERT(m_nCount > 0);  // make sure we don't overflow
; 1507 : #pragma push_macro("new")
; 1508 : #undef new
; 1509 : 	::new(pAssoc) CMap::CAssoc(key);
; 1510 : #pragma pop_macro("new")
; 1511 : 	return pAssoc;

  00065	5e		 pop	 esi

; 1512 : }

  00066	5d		 pop	 ebp
  00067	c2 04 00	 ret	 4
$LN21@NewAssoc:

; 1493 : 		}
; 1494 : 	}
; 1495 : 	ENSURE(m_pFreeList != NULL);  // we must have something

  0006a	e8 00 00 00 00	 call	 ?AfxThrowInvalidArgException@@YGXXZ ; AfxThrowInvalidArgException
$LN19@NewAssoc:
  0006f	cc		 int	 3
?NewAssoc@?$CMap@HHKAAK@@IAEPAVCAssoc@1@H@Z ENDP	; CMap<int,int,unsigned long,unsigned long &>::NewAssoc
_TEXT	ENDS
; Function compile flags: /Ogtp
; File C:\Program Files (x86)\Microsoft Visual Studio\2019\Community\VC\Tools\MSVC\14.29.30133\atlmfc\include\afxtempl.h
;	COMDAT ?InitHashTable@?$CMap@HHKAAK@@QAEXIH@Z
_TEXT	SEGMENT
_nHashSize$ = 8						; size = 4
_bAllocNow$ = 12					; size = 4
?InitHashTable@?$CMap@HHKAAK@@QAEXIH@Z PROC		; CMap<int,int,unsigned long,unsigned long &>::InitHashTable, COMDAT
; _this$ = ecx

; 1420 : {

  00000	55		 push	 ebp
  00001	8b ec		 mov	 ebp, esp
  00003	56		 push	 esi
  00004	8b f1		 mov	 esi, ecx
  00006	57		 push	 edi

; 1421 : 	ASSERT_VALID(this);
; 1422 : 	ASSERT(m_nCount == 0);
; 1423 : 	ASSERT(nHashSize > 0);
; 1424 : 
; 1425 : 	if (m_pHashTable != NULL)

  00007	8b 46 04	 mov	 eax, DWORD PTR [esi+4]
  0000a	85 c0		 test	 eax, eax
  0000c	74 10		 je	 SHORT $LN5@InitHashTa

; 1426 : 	{
; 1427 : 		// free hash table
; 1428 : 		delete[] m_pHashTable;

  0000e	50		 push	 eax
  0000f	e8 00 00 00 00	 call	 ??_V@YAXPAX@Z		; operator delete[]
  00014	83 c4 04	 add	 esp, 4

; 1429 : 		m_pHashTable = NULL;

  00017	c7 46 04 00 00
	00 00		 mov	 DWORD PTR [esi+4], 0
$LN5@InitHashTa:

; 1430 : 	}
; 1431 : 
; 1432 : 	if (bAllocNow)

  0001e	83 7d 0c 00	 cmp	 DWORD PTR _bAllocNow$[ebp], 0
  00022	8b 7d 08	 mov	 edi, DWORD PTR _nHashSize$[ebp]
  00025	74 37		 je	 SHORT $LN6@InitHashTa

; 1433 : 	{
; 1434 : 		m_pHashTable = new CAssoc* [nHashSize];

  00027	33 c9		 xor	 ecx, ecx
  00029	8b c7		 mov	 eax, edi
  0002b	ba 04 00 00 00	 mov	 edx, 4
  00030	f7 e2		 mul	 edx
  00032	0f 90 c1	 seto	 cl
  00035	f7 d9		 neg	 ecx
  00037	0b c8		 or	 ecx, eax
  00039	51		 push	 ecx
  0003a	e8 00 00 00 00	 call	 ??_U@YAPAXI@Z		; operator new[]
  0003f	8b c8		 mov	 ecx, eax
  00041	83 c4 04	 add	 esp, 4
  00044	89 4e 04	 mov	 DWORD PTR [esi+4], ecx

; 1435 : 		ENSURE(m_pHashTable != NULL);

  00047	85 c9		 test	 ecx, ecx
  00049	74 1c		 je	 SHORT $LN11@InitHashTa

; 1436 : 		memset(m_pHashTable, 0, sizeof(CAssoc*) * nHashSize);

  0004b	8d 04 bd 00 00
	00 00		 lea	 eax, DWORD PTR [edi*4]
  00052	50		 push	 eax
  00053	6a 00		 push	 0
  00055	51		 push	 ecx
  00056	e8 00 00 00 00	 call	 _memset
  0005b	83 c4 0c	 add	 esp, 12			; 0000000cH
$LN6@InitHashTa:

; 1437 : 	}
; 1438 : 	m_nHashTableSize = nHashSize;

  0005e	89 7e 08	 mov	 DWORD PTR [esi+8], edi
  00061	5f		 pop	 edi
  00062	5e		 pop	 esi

; 1439 : }

  00063	5d		 pop	 ebp
  00064	c2 08 00	 ret	 8
$LN11@InitHashTa:

; 1435 : 		ENSURE(m_pHashTable != NULL);

  00067	e8 00 00 00 00	 call	 ?AfxThrowInvalidArgException@@YGXXZ ; AfxThrowInvalidArgException
$LN9@InitHashTa:
  0006c	cc		 int	 3
?InitHashTable@?$CMap@HHKAAK@@QAEXIH@Z ENDP		; CMap<int,int,unsigned long,unsigned long &>::InitHashTable
_TEXT	ENDS
; Function compile flags: /Ogtp
; File C:\Program Files (x86)\Microsoft Visual Studio\2019\Community\VC\Tools\MSVC\14.29.30133\atlmfc\include\afxtempl.h
;	COMDAT ?RemoveAll@?$CMap@HHKAAK@@QAEXXZ
_TEXT	SEGMENT
?RemoveAll@?$CMap@HHKAAK@@QAEXXZ PROC			; CMap<int,int,unsigned long,unsigned long &>::RemoveAll, COMDAT
; _this$ = ecx

; 1443 : {

  00000	56		 push	 esi
  00001	8b f1		 mov	 esi, ecx

; 1444 : 	ASSERT_VALID(this);
; 1445 : 
; 1446 : 	if (m_pHashTable != NULL)

  00003	8b 46 04	 mov	 eax, DWORD PTR [esi+4]
  00006	85 c0		 test	 eax, eax
  00008	74 10		 je	 SHORT $LN8@RemoveAll

; 1447 : 	{
; 1448 : 		// destroy elements (values and keys)
; 1449 : 		for (UINT nHash = 0; nHash < m_nHashTableSize; nHash++)
; 1450 : 		{
; 1451 : 			CAssoc* pAssoc;
; 1452 : 			for (pAssoc = m_pHashTable[nHash]; pAssoc != NULL;
; 1453 : 			  pAssoc = pAssoc->pNext)
; 1454 : 			{
; 1455 : 				pAssoc->CAssoc::~CAssoc();
; 1456 : 			}
; 1457 : 		}
; 1458 : 
; 1459 : 		// free hash table
; 1460 : 		delete[] m_pHashTable;

  0000a	50		 push	 eax
  0000b	e8 00 00 00 00	 call	 ??_V@YAXPAX@Z		; operator delete[]
  00010	83 c4 04	 add	 esp, 4

; 1461 : 		m_pHashTable = NULL;

  00013	c7 46 04 00 00
	00 00		 mov	 DWORD PTR [esi+4], 0
$LN8@RemoveAll:

; 1462 : 	}
; 1463 : 
; 1464 : 	m_nCount = 0;
; 1465 : 	m_pFreeList = NULL;
; 1466 : 	m_pBlocks->FreeDataChain();

  0001a	8b 4e 14	 mov	 ecx, DWORD PTR [esi+20]
  0001d	c7 46 0c 00 00
	00 00		 mov	 DWORD PTR [esi+12], 0
  00024	c7 46 10 00 00
	00 00		 mov	 DWORD PTR [esi+16], 0
  0002b	e8 00 00 00 00	 call	 ?FreeDataChain@CPlex@@QAEXXZ ; CPlex::FreeDataChain

; 1467 : 	m_pBlocks = NULL;

  00030	c7 46 14 00 00
	00 00		 mov	 DWORD PTR [esi+20], 0
  00037	5e		 pop	 esi

; 1468 : }

  00038	c3		 ret	 0
?RemoveAll@?$CMap@HHKAAK@@QAEXXZ ENDP			; CMap<int,int,unsigned long,unsigned long &>::RemoveAll
_TEXT	ENDS
; Function compile flags: /Ogtp
; File C:\Program Files (x86)\Microsoft Visual Studio\2019\Community\VC\Tools\MSVC\14.29.30133\atlmfc\include\afxtempl.h
;	COMDAT ??A?$CMap@HHKAAK@@QAEAAKH@Z
_TEXT	SEGMENT
_nHashBucket$ = -8					; size = 4
_nHashValue$ = -4					; size = 4
_key$ = 8						; size = 4
??A?$CMap@HHKAAK@@QAEAAKH@Z PROC			; CMap<int,int,unsigned long,unsigned long &>::operator[], COMDAT
; _this$ = ecx

; 1585 : {

  00000	55		 push	 ebp
  00001	8b ec		 mov	 ebp, esp
  00003	83 ec 08	 sub	 esp, 8

; 1586 : 	ASSERT_VALID(this);
; 1587 : 
; 1588 : 	UINT nHashBucket, nHashValue;
; 1589 : 	CAssoc* pAssoc;
; 1590 : 	if ((pAssoc = GetAssocAt(key, nHashBucket, nHashValue)) == NULL)

  00006	8d 45 fc	 lea	 eax, DWORD PTR _nHashValue$[ebp]
  00009	53		 push	 ebx
  0000a	8b 5d 08	 mov	 ebx, DWORD PTR _key$[ebp]
  0000d	56		 push	 esi
  0000e	50		 push	 eax
  0000f	8d 45 f8	 lea	 eax, DWORD PTR _nHashBucket$[ebp]
  00012	8b f1		 mov	 esi, ecx
  00014	50		 push	 eax
  00015	53		 push	 ebx
  00016	e8 00 00 00 00	 call	 ?GetAssocAt@?$CMap@HHKAAK@@IBEPAVCAssoc@1@HAAI0@Z ; CMap<int,int,unsigned long,unsigned long &>::GetAssocAt
  0001b	8b d0		 mov	 edx, eax
  0001d	85 d2		 test	 edx, edx
  0001f	0f 85 cd 00 00
	00		 jne	 $LN5@operator

; 1591 : 	{
; 1592 : 		if (m_pHashTable == NULL)

  00025	8b 46 04	 mov	 eax, DWORD PTR [esi+4]
  00028	85 c0		 test	 eax, eax
  0002a	75 4c		 jne	 SHORT $LN39@operator

; 1593 : 			InitHashTable(m_nHashTableSize);

  0002c	57		 push	 edi
  0002d	8b 7e 08	 mov	 edi, DWORD PTR [esi+8]

; 1434 : 		m_pHashTable = new CAssoc* [nHashSize];

  00030	33 c9		 xor	 ecx, ecx
  00032	8b c7		 mov	 eax, edi
  00034	ba 04 00 00 00	 mov	 edx, 4
  00039	f7 e2		 mul	 edx
  0003b	0f 90 c1	 seto	 cl
  0003e	f7 d9		 neg	 ecx
  00040	0b c8		 or	 ecx, eax
  00042	51		 push	 ecx
  00043	e8 00 00 00 00	 call	 ??_U@YAPAXI@Z		; operator new[]
  00048	83 c4 04	 add	 esp, 4
  0004b	89 46 04	 mov	 DWORD PTR [esi+4], eax

; 1435 : 		ENSURE(m_pHashTable != NULL);

  0004e	85 c0		 test	 eax, eax
  00050	0f 84 a7 00 00
	00		 je	 $LN36@operator

; 1436 : 		memset(m_pHashTable, 0, sizeof(CAssoc*) * nHashSize);

  00056	8d 0c bd 00 00
	00 00		 lea	 ecx, DWORD PTR [edi*4]
  0005d	51		 push	 ecx
  0005e	6a 00		 push	 0
  00060	50		 push	 eax
  00061	e8 00 00 00 00	 call	 _memset

; 1437 : 	}
; 1438 : 	m_nHashTableSize = nHashSize;

  00066	8b 46 04	 mov	 eax, DWORD PTR [esi+4]
  00069	83 c4 0c	 add	 esp, 12			; 0000000cH
  0006c	89 7e 08	 mov	 DWORD PTR [esi+8], edi
  0006f	5f		 pop	 edi

; 1594 : 
; 1595 : 		ENSURE(m_pHashTable);

  00070	85 c0		 test	 eax, eax
  00072	0f 84 85 00 00
	00		 je	 $LN36@operator
$LN39@operator:

; 1481 : 	if (m_pFreeList == NULL)

  00078	83 7e 10 00	 cmp	 DWORD PTR [esi+16], 0
  0007c	75 34		 jne	 SHORT $LN24@operator

; 1482 : 	{
; 1483 : 		// add another block
; 1484 : 		CPlex* newBlock = CPlex::Create(m_pBlocks, m_nBlockSize, sizeof(CMap::CAssoc));

  0007e	6a 10		 push	 16			; 00000010H
  00080	ff 76 18	 push	 DWORD PTR [esi+24]
  00083	8d 46 14	 lea	 eax, DWORD PTR [esi+20]
  00086	50		 push	 eax
  00087	e8 00 00 00 00	 call	 ?Create@CPlex@@SGPAU1@AAPAU1@II@Z ; CPlex::Create

; 1485 : 		// chain them into free list
; 1486 : 		CMap::CAssoc* pAssoc = (CMap::CAssoc*) newBlock->data();
; 1487 : 		// free in reverse order to make it easier to debug
; 1488 : 		pAssoc += m_nBlockSize - 1;

  0008c	8b 56 18	 mov	 edx, DWORD PTR [esi+24]
  0008f	83 c0 08	 add	 eax, 8
  00092	8b ca		 mov	 ecx, edx
  00094	c1 e1 04	 shl	 ecx, 4
  00097	83 c1 f0	 add	 ecx, -16		; fffffff0H
  0009a	03 c8		 add	 ecx, eax

; 1489 : 		for (INT_PTR i = m_nBlockSize-1; i >= 0; i--, pAssoc--)

  0009c	83 c2 ff	 add	 edx, -1
  0009f	78 11		 js	 SHORT $LN24@operator
$LL21@operator:

; 1490 : 		{
; 1491 : 			pAssoc->pNext = m_pFreeList;

  000a1	8b 46 10	 mov	 eax, DWORD PTR [esi+16]
  000a4	89 41 08	 mov	 DWORD PTR [ecx+8], eax

; 1492 : 			m_pFreeList = pAssoc;

  000a7	89 4e 10	 mov	 DWORD PTR [esi+16], ecx
  000aa	83 e9 10	 sub	 ecx, 16			; 00000010H
  000ad	83 ea 01	 sub	 edx, 1
  000b0	79 ef		 jns	 SHORT $LL21@operator
$LN24@operator:

; 1493 : 		}
; 1494 : 	}
; 1495 : 	ENSURE(m_pFreeList != NULL);  // we must have something

  000b2	8b 56 10	 mov	 edx, DWORD PTR [esi+16]
  000b5	85 d2		 test	 edx, edx
  000b7	74 44		 je	 SHORT $LN36@operator

; 1496 : 
; 1497 : 	CMap::CAssoc* pAssoc = m_pFreeList;
; 1498 : 
; 1499 : 	// zero the memory
; 1500 : 	CMap::CAssoc* pTemp = pAssoc->pNext;

  000b9	8b 42 08	 mov	 eax, DWORD PTR [edx+8]
  000bc	0f 57 c0	 xorps	 xmm0, xmm0

; 1501 : 	memset( pAssoc, 0, sizeof(CMap::CAssoc) );

  000bf	0f 11 02	 movups	 XMMWORD PTR [edx], xmm0

; 1502 : 	pAssoc->pNext = pTemp;

  000c2	89 42 08	 mov	 DWORD PTR [edx+8], eax

; 1503 : 
; 1504 : 	m_pFreeList = m_pFreeList->pNext;

  000c5	8b 46 10	 mov	 eax, DWORD PTR [esi+16]
  000c8	8b 40 08	 mov	 eax, DWORD PTR [eax+8]

; 1505 : 	m_nCount++;

  000cb	ff 46 0c	 inc	 DWORD PTR [esi+12]
  000ce	89 46 10	 mov	 DWORD PTR [esi+16], eax

; 1596 : 		// it doesn't exist, add a new Association
; 1597 : 		pAssoc = NewAssoc(key);
; 1598 : 		pAssoc->nHashValue = nHashValue;

  000d1	8b 45 fc	 mov	 eax, DWORD PTR _nHashValue$[ebp]
  000d4	89 42 0c	 mov	 DWORD PTR [edx+12], eax

; 1599 : 		//'pAssoc->value' is a constructed object, nothing more
; 1600 : 
; 1601 : 		// put into hash table
; 1602 : 		pAssoc->pNext = m_pHashTable[nHashBucket];

  000d7	8b 45 f8	 mov	 eax, DWORD PTR _nHashBucket$[ebp]

; 1256 : 		CPair( ARG_KEY keyval ) : key( keyval )	{}

  000da	89 1a		 mov	 DWORD PTR [edx], ebx

; 1599 : 		//'pAssoc->value' is a constructed object, nothing more
; 1600 : 
; 1601 : 		// put into hash table
; 1602 : 		pAssoc->pNext = m_pHashTable[nHashBucket];

  000dc	8d 0c 85 00 00
	00 00		 lea	 ecx, DWORD PTR [eax*4]
  000e3	8b 46 04	 mov	 eax, DWORD PTR [esi+4]
  000e6	8b 04 01	 mov	 eax, DWORD PTR [ecx+eax]
  000e9	89 42 08	 mov	 DWORD PTR [edx+8], eax

; 1603 : 		m_pHashTable[nHashBucket] = pAssoc;

  000ec	8b 46 04	 mov	 eax, DWORD PTR [esi+4]
  000ef	89 14 01	 mov	 DWORD PTR [ecx+eax], edx
$LN5@operator:

; 1604 : 	}
; 1605 : 	return pAssoc->value;  // return new reference

  000f2	5e		 pop	 esi
  000f3	8d 42 04	 lea	 eax, DWORD PTR [edx+4]
  000f6	5b		 pop	 ebx

; 1606 : }

  000f7	8b e5		 mov	 esp, ebp
  000f9	5d		 pop	 ebp
  000fa	c2 04 00	 ret	 4
$LN36@operator:

; 1495 : 	ENSURE(m_pFreeList != NULL);  // we must have something

  000fd	e8 00 00 00 00	 call	 ?AfxThrowInvalidArgException@@YGXXZ ; AfxThrowInvalidArgException
$LN37@operator:
  00102	cc		 int	 3
??A?$CMap@HHKAAK@@QAEAAKH@Z ENDP			; CMap<int,int,unsigned long,unsigned long &>::operator[]
_TEXT	ENDS
; Function compile flags: /Ogtp
; File C:\Program Files (x86)\Microsoft Visual Studio\2019\Community\VC\Tools\MSVC\14.29.30133\atlmfc\include\afxtempl.h
;	COMDAT ?Lookup@?$CMap@HHKAAK@@QBEHHAAK@Z
_TEXT	SEGMENT
_nHashBucket$ = -8					; size = 4
_nHashValue$ = -4					; size = 4
_key$ = 8						; size = 4
_rValue$ = 12						; size = 4
?Lookup@?$CMap@HHKAAK@@QBEHHAAK@Z PROC			; CMap<int,int,unsigned long,unsigned long &>::Lookup, COMDAT
; _this$ = ecx

; 1551 : {

  00000	55		 push	 ebp
  00001	8b ec		 mov	 ebp, esp
  00003	83 ec 08	 sub	 esp, 8

; 1552 : 	ASSERT_VALID(this);
; 1553 : 
; 1554 : 	UINT nHashBucket, nHashValue;
; 1555 : 	CAssoc* pAssoc = GetAssocAt(key, nHashBucket, nHashValue);

  00006	8d 45 fc	 lea	 eax, DWORD PTR _nHashValue$[ebp]
  00009	50		 push	 eax
  0000a	8d 45 f8	 lea	 eax, DWORD PTR _nHashBucket$[ebp]
  0000d	50		 push	 eax
  0000e	ff 75 08	 push	 DWORD PTR _key$[ebp]
  00011	e8 00 00 00 00	 call	 ?GetAssocAt@?$CMap@HHKAAK@@IBEPAVCAssoc@1@HAAI0@Z ; CMap<int,int,unsigned long,unsigned long &>::GetAssocAt

; 1556 : 	if (pAssoc == NULL)

  00016	85 c0		 test	 eax, eax
  00018	75 06		 jne	 SHORT $LN2@Lookup

; 1561 : }

  0001a	8b e5		 mov	 esp, ebp
  0001c	5d		 pop	 ebp
  0001d	c2 08 00	 ret	 8
$LN2@Lookup:

; 1557 : 		return FALSE;  // not in map
; 1558 : 
; 1559 : 	rValue = pAssoc->value;

  00020	8b 48 04	 mov	 ecx, DWORD PTR [eax+4]
  00023	8b 45 0c	 mov	 eax, DWORD PTR _rValue$[ebp]
  00026	89 08		 mov	 DWORD PTR [eax], ecx

; 1560 : 	return TRUE;

  00028	b8 01 00 00 00	 mov	 eax, 1

; 1561 : }

  0002d	8b e5		 mov	 esp, ebp
  0002f	5d		 pop	 ebp
  00030	c2 08 00	 ret	 8
?Lookup@?$CMap@HHKAAK@@QBEHHAAK@Z ENDP			; CMap<int,int,unsigned long,unsigned long &>::Lookup
_TEXT	ENDS
; Function compile flags: /Ogtp
; File C:\Program Files (x86)\Microsoft Visual Studio\2019\Community\VC\Tools\MSVC\14.29.30133\atlmfc\include\afxtempl.h
;	COMDAT ??0?$CMap@HHKAAK@@QAE@H@Z
_TEXT	SEGMENT
_nBlockSize$ = 8					; size = 4
??0?$CMap@HHKAAK@@QAE@H@Z PROC				; CMap<int,int,unsigned long,unsigned long &>::CMap<int,int,unsigned long,unsigned long &>, COMDAT
; _this$ = ecx

; 1403 : {

  00000	55		 push	 ebp
  00001	8b ec		 mov	 ebp, esp

; 1404 : 	ASSERT(nBlockSize > 0);
; 1405 : 
; 1406 : 	m_pHashTable = NULL;
; 1407 : 	m_nHashTableSize = 17;  // default size
; 1408 : 	m_nCount = 0;
; 1409 : 	m_pFreeList = NULL;
; 1410 : 	m_pBlocks = NULL;
; 1411 : 	m_nBlockSize = nBlockSize;

  00003	8b 45 08	 mov	 eax, DWORD PTR _nBlockSize$[ebp]
  00006	89 41 18	 mov	 DWORD PTR [ecx+24], eax

; 1412 : }

  00009	8b c1		 mov	 eax, ecx
  0000b	c7 01 00 00 00
	00		 mov	 DWORD PTR [ecx], OFFSET ??_7?$CMap@HHKAAK@@6B@
  00011	c7 41 04 00 00
	00 00		 mov	 DWORD PTR [ecx+4], 0
  00018	c7 41 08 11 00
	00 00		 mov	 DWORD PTR [ecx+8], 17	; 00000011H
  0001f	c7 41 0c 00 00
	00 00		 mov	 DWORD PTR [ecx+12], 0
  00026	c7 41 10 00 00
	00 00		 mov	 DWORD PTR [ecx+16], 0
  0002d	c7 41 14 00 00
	00 00		 mov	 DWORD PTR [ecx+20], 0
  00034	5d		 pop	 ebp
  00035	c2 04 00	 ret	 4
??0?$CMap@HHKAAK@@QAE@H@Z ENDP				; CMap<int,int,unsigned long,unsigned long &>::CMap<int,int,unsigned long,unsigned long &>
_TEXT	ENDS
; Function compile flags: /Ogtp
; File C:\Program Files (x86)\Microsoft Visual Studio\2019\Community\VC\Tools\MSVC\14.29.30133\atlmfc\include\afxtempl.h
; File C:\Program Files (x86)\Microsoft Visual Studio\2019\Community\VC\Tools\MSVC\14.29.30133\atlmfc\include\afx.inl
;	COMDAT ??_G?$CMap@HHW4CONTROLTYPE@CItemInfo@@AAW412@@@UAEPAXI@Z
_TEXT	SEGMENT
__$EHRec$ = -12						; size = 12
___flags$ = 8						; size = 4
??_G?$CMap@HHW4CONTROLTYPE@CItemInfo@@AAW412@@@UAEPAXI@Z PROC ; CMap<int,int,enum CItemInfo::CONTROLTYPE,enum CItemInfo::CONTROLTYPE &>::`scalar deleting destructor', COMDAT
; _this$ = ecx
  00000	55		 push	 ebp
  00001	8b ec		 mov	 ebp, esp
  00003	6a ff		 push	 -1
  00005	68 00 00 00 00	 push	 __ehhandler$??_G?$CMap@HHW4CONTROLTYPE@CItemInfo@@AAW412@@@UAEPAXI@Z
  0000a	64 a1 00 00 00
	00		 mov	 eax, DWORD PTR fs:0
  00010	50		 push	 eax
  00011	56		 push	 esi
  00012	a1 00 00 00 00	 mov	 eax, DWORD PTR ___security_cookie
  00017	33 c5		 xor	 eax, ebp
  00019	50		 push	 eax
  0001a	8d 45 f4	 lea	 eax, DWORD PTR __$EHRec$[ebp]
  0001d	64 a3 00 00 00
	00		 mov	 DWORD PTR fs:0, eax
  00023	8b f1		 mov	 esi, ecx
; File C:\Program Files (x86)\Microsoft Visual Studio\2019\Community\VC\Tools\MSVC\14.29.30133\atlmfc\include\afxtempl.h

; 1446 : 	if (m_pHashTable != NULL)

  00025	8b 46 04	 mov	 eax, DWORD PTR [esi+4]

; 1472 : {

  00028	c7 45 fc 00 00
	00 00		 mov	 DWORD PTR __$EHRec$[ebp+8], 0
  0002f	c7 06 00 00 00
	00		 mov	 DWORD PTR [esi], OFFSET ??_7?$CMap@HHW4CONTROLTYPE@CItemInfo@@AAW412@@@6B@

; 1446 : 	if (m_pHashTable != NULL)

  00035	85 c0		 test	 eax, eax
  00037	74 10		 je	 SHORT $LN17@scalar

; 1447 : 	{
; 1448 : 		// destroy elements (values and keys)
; 1449 : 		for (UINT nHash = 0; nHash < m_nHashTableSize; nHash++)
; 1450 : 		{
; 1451 : 			CAssoc* pAssoc;
; 1452 : 			for (pAssoc = m_pHashTable[nHash]; pAssoc != NULL;
; 1453 : 			  pAssoc = pAssoc->pNext)
; 1454 : 			{
; 1455 : 				pAssoc->CAssoc::~CAssoc();
; 1456 : 			}
; 1457 : 		}
; 1458 : 
; 1459 : 		// free hash table
; 1460 : 		delete[] m_pHashTable;

  00039	50		 push	 eax
  0003a	e8 00 00 00 00	 call	 ??_V@YAXPAX@Z		; operator delete[]
  0003f	83 c4 04	 add	 esp, 4

; 1461 : 		m_pHashTable = NULL;

  00042	c7 46 04 00 00
	00 00		 mov	 DWORD PTR [esi+4], 0
$LN17@scalar:

; 1462 : 	}
; 1463 : 
; 1464 : 	m_nCount = 0;
; 1465 : 	m_pFreeList = NULL;
; 1466 : 	m_pBlocks->FreeDataChain();

  00049	8b 4e 14	 mov	 ecx, DWORD PTR [esi+20]
  0004c	c7 46 0c 00 00
	00 00		 mov	 DWORD PTR [esi+12], 0
  00053	c7 46 10 00 00
	00 00		 mov	 DWORD PTR [esi+16], 0
  0005a	e8 00 00 00 00	 call	 ?FreeDataChain@CPlex@@QAEXXZ ; CPlex::FreeDataChain

; 1467 : 	m_pBlocks = NULL;

  0005f	8b 45 08	 mov	 eax, DWORD PTR ___flags$[ebp]
  00062	c7 46 14 00 00
	00 00		 mov	 DWORD PTR [esi+20], 0
  00069	a8 01		 test	 al, 1
  0006b	74 2c		 je	 SHORT $LN31@scalar
  0006d	a8 04		 test	 al, 4
  0006f	75 1d		 jne	 SHORT $LN3@scalar
; File C:\Program Files (x86)\Microsoft Visual Studio\2019\Community\VC\Tools\MSVC\14.29.30133\atlmfc\include\afx.inl

; 112  : 	{ ::operator delete(p); }

  00071	56		 push	 esi
  00072	e8 00 00 00 00	 call	 ??3@YAXPAX@Z		; operator delete
  00077	83 c4 04	 add	 esp, 4
  0007a	8b c6		 mov	 eax, esi
  0007c	8b 4d f4	 mov	 ecx, DWORD PTR __$EHRec$[ebp]
  0007f	64 89 0d 00 00
	00 00		 mov	 DWORD PTR fs:0, ecx
  00086	59		 pop	 ecx
  00087	5e		 pop	 esi
  00088	8b e5		 mov	 esp, ebp
  0008a	5d		 pop	 ebp
  0008b	c2 04 00	 ret	 4
$LN3@scalar:
  0008e	6a 1c		 push	 28			; 0000001cH
  00090	56		 push	 esi
  00091	e8 00 00 00 00	 call	 ?__global_delete@@YAXPAXI@Z ; __global_delete
  00096	83 c4 08	 add	 esp, 8
$LN31@scalar:
  00099	8b c6		 mov	 eax, esi
  0009b	8b 4d f4	 mov	 ecx, DWORD PTR __$EHRec$[ebp]
  0009e	64 89 0d 00 00
	00 00		 mov	 DWORD PTR fs:0, ecx
  000a5	59		 pop	 ecx
  000a6	5e		 pop	 esi
  000a7	8b e5		 mov	 esp, ebp
  000a9	5d		 pop	 ebp
  000aa	c2 04 00	 ret	 4
  000ad	cc		 int	 3
  000ae	cc		 int	 3
  000af	cc		 int	 3
  000b0	cc		 int	 3
  000b1	cc		 int	 3
_TEXT	ENDS
;	COMDAT text$x
text$x	SEGMENT
__ehhandler$??_G?$CMap@HHW4CONTROLTYPE@CItemInfo@@AAW412@@@UAEPAXI@Z:
  00000	90		 npad	 1
  00001	90		 npad	 1
  00002	8b 54 24 08	 mov	 edx, DWORD PTR [esp+8]
  00006	8d 42 0c	 lea	 eax, DWORD PTR [edx+12]
  00009	8b 4a f8	 mov	 ecx, DWORD PTR [edx-8]
  0000c	33 c8		 xor	 ecx, eax
  0000e	e8 00 00 00 00	 call	 @__security_check_cookie@4
  00013	b8 00 00 00 00	 mov	 eax, OFFSET __ehfuncinfo$??_G?$CMap@HHW4CONTROLTYPE@CItemInfo@@AAW412@@@UAEPAXI@Z
  00018	e9 00 00 00 00	 jmp	 ___CxxFrameHandler3
text$x	ENDS
??_G?$CMap@HHW4CONTROLTYPE@CItemInfo@@AAW412@@@UAEPAXI@Z ENDP ; CMap<int,int,enum CItemInfo::CONTROLTYPE,enum CItemInfo::CONTROLTYPE &>::`scalar deleting destructor'
; Function compile flags: /Ogtp
; File C:\Program Files (x86)\Microsoft Visual Studio\2019\Community\VC\Tools\MSVC\14.29.30133\atlmfc\include\afxtempl.h
; File C:\Program Files (x86)\Microsoft Visual Studio\2019\Community\VC\Tools\MSVC\14.29.30133\atlmfc\include\afx.inl
; File C:\Program Files (x86)\Microsoft Visual Studio\2019\Community\VC\Tools\MSVC\14.29.30133\atlmfc\include\afxtempl.h
; File C:\Program Files (x86)\Microsoft Visual Studio\2019\Community\VC\Tools\MSVC\14.29.30133\atlmfc\include\afx.inl
; File C:\Program Files (x86)\Microsoft Visual Studio\2019\Community\VC\Tools\MSVC\14.29.30133\atlmfc\include\afxtempl.h
; File C:\Program Files (x86)\Microsoft Visual Studio\2019\Community\VC\Tools\MSVC\14.29.30133\atlmfc\include\afx.inl
; File C:\Program Files (x86)\Microsoft Visual Studio\2019\Community\VC\Tools\MSVC\14.29.30133\atlmfc\include\afxtempl.h
; File C:\Program Files (x86)\Microsoft Visual Studio\2019\Community\VC\Tools\MSVC\14.29.30133\atlmfc\include\afx.inl
; File C:\Program Files (x86)\Microsoft Visual Studio\2019\Community\VC\Tools\MSVC\14.29.30133\atlmfc\include\afxtempl.h
; File C:\Program Files (x86)\Microsoft Visual Studio\2019\Community\VC\Tools\MSVC\14.29.30133\atlmfc\include\afx.inl
; File C:\Program Files (x86)\Microsoft Visual Studio\2019\Community\VC\Tools\MSVC\14.29.30133\atlmfc\include\afxtempl.h
; File C:\Program Files (x86)\Microsoft Visual Studio\2019\Community\VC\Tools\MSVC\14.29.30133\atlmfc\include\afx.inl
; File C:\Program Files (x86)\Microsoft Visual Studio\2019\Community\VC\Tools\MSVC\14.29.30133\atlmfc\include\afxtempl.h
; File C:\Program Files (x86)\Microsoft Visual Studio\2019\Community\VC\Tools\MSVC\14.29.30133\atlmfc\include\afx.inl
; File C:\Program Files (x86)\Microsoft Visual Studio\2019\Community\VC\Tools\MSVC\14.29.30133\atlmfc\include\afxtempl.h
; File C:\Program Files (x86)\Microsoft Visual Studio\2019\Community\VC\Tools\MSVC\14.29.30133\atlmfc\include\afx.inl
; File C:\Program Files (x86)\Microsoft Visual Studio\2019\Community\VC\Tools\MSVC\14.29.30133\atlmfc\include\afxtempl.h
; File C:\Program Files (x86)\Microsoft Visual Studio\2019\Community\VC\Tools\MSVC\14.29.30133\atlmfc\include\afx.inl
; File C:\Program Files (x86)\Microsoft Visual Studio\2019\Community\VC\Tools\MSVC\14.29.30133\atlmfc\include\afxtempl.h
; File C:\Program Files (x86)\Microsoft Visual Studio\2019\Community\VC\Tools\MSVC\14.29.30133\atlmfc\include\afx.inl
; File C:\Program Files (x86)\Microsoft Visual Studio\2019\Community\VC\Tools\MSVC\14.29.30133\atlmfc\include\afxtempl.h
; File C:\Program Files (x86)\Microsoft Visual Studio\2019\Community\VC\Tools\MSVC\14.29.30133\atlmfc\include\afx.inl
; File C:\Program Files (x86)\Microsoft Visual Studio\2019\Community\VC\Tools\MSVC\14.29.30133\atlmfc\include\afxtempl.h
; File C:\Program Files (x86)\Microsoft Visual Studio\2019\Community\VC\Tools\MSVC\14.29.30133\atlmfc\include\afx.inl
; File C:\Program Files (x86)\Microsoft Visual Studio\2019\Community\VC\Tools\MSVC\14.29.30133\atlmfc\include\afxtempl.h
; File C:\Program Files (x86)\Microsoft Visual Studio\2019\Community\VC\Tools\MSVC\14.29.30133\atlmfc\include\afx.inl
; File C:\Program Files (x86)\Microsoft Visual Studio\2019\Community\VC\Tools\MSVC\14.29.30133\atlmfc\include\afxtempl.h
; File C:\Program Files (x86)\Microsoft Visual Studio\2019\Community\VC\Tools\MSVC\14.29.30133\atlmfc\include\afx.inl
; File C:\Program Files (x86)\Microsoft Visual Studio\2019\Community\VC\Tools\MSVC\14.29.30133\atlmfc\include\afxtempl.h
; File C:\Program Files (x86)\Microsoft Visual Studio\2019\Community\VC\Tools\MSVC\14.29.30133\atlmfc\include\afx.inl
; File C:\Program Files (x86)\Microsoft Visual Studio\2019\Community\VC\Tools\MSVC\14.29.30133\atlmfc\include\afxtempl.h
; File C:\Program Files (x86)\Microsoft Visual Studio\2019\Community\VC\Tools\MSVC\14.29.30133\atlmfc\include\afx.inl
; File C:\Program Files (x86)\Microsoft Visual Studio\2019\Community\VC\Tools\MSVC\14.29.30133\atlmfc\include\afxtempl.h
; File C:\Program Files (x86)\Microsoft Visual Studio\2019\Community\VC\Tools\MSVC\14.29.30133\atlmfc\include\afx.inl
; File C:\Program Files (x86)\Microsoft Visual Studio\2019\Community\VC\Tools\MSVC\14.29.30133\atlmfc\include\afxtempl.h
; File C:\Program Files (x86)\Microsoft Visual Studio\2019\Community\VC\Tools\MSVC\14.29.30133\atlmfc\include\afx.inl
; File C:\Program Files (x86)\Microsoft Visual Studio\2019\Community\VC\Tools\MSVC\14.29.30133\atlmfc\include\afxtempl.h
; File C:\Program Files (x86)\Microsoft Visual Studio\2019\Community\VC\Tools\MSVC\14.29.30133\atlmfc\include\afx.inl
; File C:\Program Files (x86)\Microsoft Visual Studio\2019\Community\VC\Tools\MSVC\14.29.30133\atlmfc\include\afxtempl.h
;	COMDAT ?Serialize@?$CMap@HHW4CONTROLTYPE@CItemInfo@@AAW412@@@UAEXAAVCArchive@@@Z
_TEXT	SEGMENT
_nHashBucket$1$ = -32					; size = 4
_nCount$1$ = -32					; size = 4
_nElementsToRead$1$ = -32				; size = 4
_nElementsToRead$1$ = -28				; size = 4
_pData$1$ = -28						; size = 4
_nCount$1$ = -28					; size = 4
_nNewCount$1$ = -28					; size = 4
_newValue$3 = -24					; size = 4
_this$1$ = -20						; size = 4
_newKey$4 = -16						; size = 4
_pData$1$ = -12						; size = 4
_pData$1$ = -12						; size = 4
_key$1$ = -12						; size = 4
_nHash$1$ = -12						; size = 4
_pAssoc$1$ = -8						; size = 4
_nElementsLeft$1$ = -4					; size = 4
_pData$1$ = -4						; size = 4
_pData$1$ = -4						; size = 4
_nHashSize$1$ = 8					; size = 4
_pData$1$ = 8						; size = 4
_nElementsLeft$1$ = 8					; size = 4
_pData$1$ = 8						; size = 4
_nElementsLeft$1$ = 8					; size = 4
_ar$ = 8						; size = 4
?Serialize@?$CMap@HHW4CONTROLTYPE@CItemInfo@@AAW412@@@UAEXAAVCArchive@@@Z PROC ; CMap<int,int,enum CItemInfo::CONTROLTYPE,enum CItemInfo::CONTROLTYPE &>::Serialize, COMDAT
; _this$ = ecx

; 1743 : {

  00000	55		 push	 ebp
  00001	8b ec		 mov	 ebp, esp
  00003	83 ec 20	 sub	 esp, 32			; 00000020H
  00006	53		 push	 ebx
; File C:\Program Files (x86)\Microsoft Visual Studio\2019\Community\VC\Tools\MSVC\14.29.30133\atlmfc\include\afx.inl

; 212  : 	{ return (m_nMode & CArchive::load) == 0; }

  00007	8b 5d 08	 mov	 ebx, DWORD PTR _ar$[ebp]
; File C:\Program Files (x86)\Microsoft Visual Studio\2019\Community\VC\Tools\MSVC\14.29.30133\atlmfc\include\afxtempl.h

; 1743 : {

  0000a	56		 push	 esi
  0000b	8b f1		 mov	 esi, ecx

; 1748 : 	if (ar.IsStoring())

  0000d	8b cb		 mov	 ecx, ebx
  0000f	57		 push	 edi
; File C:\Program Files (x86)\Microsoft Visual Studio\2019\Community\VC\Tools\MSVC\14.29.30133\atlmfc\include\afx.inl

; 212  : 	{ return (m_nMode & CArchive::load) == 0; }

  00010	8b 43 18	 mov	 eax, DWORD PTR [ebx+24]
  00013	f7 d0		 not	 eax
; File C:\Program Files (x86)\Microsoft Visual Studio\2019\Community\VC\Tools\MSVC\14.29.30133\atlmfc\include\afxtempl.h

; 1743 : {

  00015	89 75 ec	 mov	 DWORD PTR _this$1$[ebp], esi
; File C:\Program Files (x86)\Microsoft Visual Studio\2019\Community\VC\Tools\MSVC\14.29.30133\atlmfc\include\afx.inl

; 212  : 	{ return (m_nMode & CArchive::load) == 0; }

  00018	a8 01		 test	 al, 1
; File C:\Program Files (x86)\Microsoft Visual Studio\2019\Community\VC\Tools\MSVC\14.29.30133\atlmfc\include\afxtempl.h

; 1748 : 	if (ar.IsStoring())

  0001a	0f 84 71 01 00
	00		 je	 $LN10@Serialize

; 1749 : 	{
; 1750 : 		ar.WriteCount(m_nCount);

  00020	ff 76 0c	 push	 DWORD PTR [esi+12]
  00023	e8 00 00 00 00	 call	 ?WriteCount@CArchive@@QAEXK@Z ; CArchive::WriteCount

; 1751 : 		if (m_nCount == 0)

  00028	83 7e 0c 00	 cmp	 DWORD PTR [esi+12], 0
  0002c	0f 84 be 03 00
	00		 je	 $LN189@Serialize

; 1752 : 			return;  // nothing more to do
; 1753 : 
; 1754 : 		ASSERT(m_pHashTable != NULL);
; 1755 : 		if (m_pHashTable != NULL)

  00032	83 7e 04 00	 cmp	 DWORD PTR [esi+4], 0
  00036	0f 84 b4 03 00
	00		 je	 $LN189@Serialize

; 1756 : 		{
; 1757 : 			for (UINT nHash = 0; nHash < m_nHashTableSize; nHash++)

  0003c	33 c9		 xor	 ecx, ecx
  0003e	89 4d f4	 mov	 DWORD PTR _nHash$1$[ebp], ecx
  00041	39 4e 08	 cmp	 DWORD PTR [esi+8], ecx
  00044	0f 86 a6 03 00
	00		 jbe	 $LN189@Serialize
  0004a	66 0f 1f 44 00
	00		 npad	 6
$LL4@Serialize:

; 1758 : 			{
; 1759 : 				CAssoc* pAssoc;
; 1760 : 				for (pAssoc = m_pHashTable[nHash]; pAssoc != NULL; pAssoc = pAssoc->pNext)

  00050	8b 46 04	 mov	 eax, DWORD PTR [esi+4]
  00053	8b 0c 88	 mov	 ecx, DWORD PTR [eax+ecx*4]
  00056	89 4d f8	 mov	 DWORD PTR _pAssoc$1$[ebp], ecx
  00059	85 c9		 test	 ecx, ecx
  0005b	0f 84 17 01 00
	00		 je	 $LN2@Serialize
$LL7@Serialize:
; File C:\Program Files (x86)\Microsoft Visual Studio\2019\Community\VC\Tools\MSVC\14.29.30133\atlmfc\include\afx.inl

; 212  : 	{ return (m_nMode & CArchive::load) == 0; }

  00061	8b 43 18	 mov	 eax, DWORD PTR [ebx+24]
; File C:\Program Files (x86)\Microsoft Visual Studio\2019\Community\VC\Tools\MSVC\14.29.30133\atlmfc\include\afxtempl.h

; 1770 : 					pValue = reinterpret_cast< VALUE* >( &reinterpret_cast< int& >( static_cast< VALUE& >( pAssoc->value ) ) );

  00064	8d 71 04	 lea	 esi, DWORD PTR [ecx+4]
; File C:\Program Files (x86)\Microsoft Visual Studio\2019\Community\VC\Tools\MSVC\14.29.30133\atlmfc\include\afx.inl

; 212  : 	{ return (m_nMode & CArchive::load) == 0; }

  00067	f7 d0		 not	 eax
; File C:\Program Files (x86)\Microsoft Visual Studio\2019\Community\VC\Tools\MSVC\14.29.30133\atlmfc\include\afxtempl.h

; 1770 : 					pValue = reinterpret_cast< VALUE* >( &reinterpret_cast< int& >( static_cast< VALUE& >( pAssoc->value ) ) );

  00069	89 75 e4	 mov	 DWORD PTR _pData$1$[ebp], esi

; 73   : 	if (ar.IsStoring())

  0006c	89 4d fc	 mov	 DWORD PTR _pData$1$[ebp], ecx
; File C:\Program Files (x86)\Microsoft Visual Studio\2019\Community\VC\Tools\MSVC\14.29.30133\atlmfc\include\afx.inl

; 212  : 	{ return (m_nMode & CArchive::load) == 0; }

  0006f	a8 01		 test	 al, 1
; File C:\Program Files (x86)\Microsoft Visual Studio\2019\Community\VC\Tools\MSVC\14.29.30133\atlmfc\include\afxtempl.h

; 73   : 	if (ar.IsStoring())

  00071	74 3c		 je	 SHORT $LN26@Serialize

; 74   : 	{
; 75   : 		TYPE* pData;
; 76   : 		UINT_PTR nElementsLeft;
; 77   : 
; 78   : 		nElementsLeft = nCount;

  00073	be 01 00 00 00	 mov	 esi, 1

; 79   : 		pData = pElements;

  00078	8b c1		 mov	 eax, ecx
  0007a	66 0f 1f 44 00
	00		 npad	 6
$LL21@Serialize:

; 85   : 			ar.Write(pData, nElementsToWrite*sizeof(TYPE));

  00080	8b 4d 08	 mov	 ecx, DWORD PTR _ar$[ebp]
  00083	bb ff ff ff 1f	 mov	 ebx, 536870911		; 1fffffffH
  00088	3b f3		 cmp	 esi, ebx
  0008a	0f 42 de	 cmovb	 ebx, esi
  0008d	8d 3c 9d 00 00
	00 00		 lea	 edi, DWORD PTR [ebx*4]
  00094	57		 push	 edi
  00095	50		 push	 eax
  00096	e8 00 00 00 00	 call	 ?Write@CArchive@@QAEXPBXI@Z ; CArchive::Write

; 87   : 			pData += nElementsToWrite;

  0009b	8b 45 fc	 mov	 eax, DWORD PTR _pData$1$[ebp]
  0009e	03 c7		 add	 eax, edi
  000a0	89 45 fc	 mov	 DWORD PTR _pData$1$[ebp], eax
  000a3	2b f3		 sub	 esi, ebx
  000a5	75 d9		 jne	 SHORT $LL21@Serialize
  000a7	8b 75 e4	 mov	 esi, DWORD PTR _pData$1$[ebp]

; 88   : 		}
; 89   : 	}

  000aa	8b 5d 08	 mov	 ebx, DWORD PTR _ar$[ebp]
  000ad	eb 3b		 jmp	 SHORT $LN41@Serialize
$LN26@Serialize:

; 90   : 	else
; 91   : 	{
; 92   : 		TYPE* pData;
; 93   : 		UINT_PTR nElementsLeft;
; 94   : 
; 95   : 		nElementsLeft = nCount;

  000af	bf 01 00 00 00	 mov	 edi, 1

; 96   : 		pData = pElements;

  000b4	8b d1		 mov	 edx, ecx
$LL23@Serialize:

; 101  : 			nElementsToRead = UINT(__min(nElementsLeft, INT_MAX/sizeof(TYPE)));

  000b6	b8 ff ff ff 1f	 mov	 eax, 536870911		; 1fffffffH
; File C:\Program Files (x86)\Microsoft Visual Studio\2019\Community\VC\Tools\MSVC\14.29.30133\atlmfc\include\afx.inl

; 399  : 	UINT nRead=Read(lpBuf, nCount);

  000bb	8b cb		 mov	 ecx, ebx
; File C:\Program Files (x86)\Microsoft Visual Studio\2019\Community\VC\Tools\MSVC\14.29.30133\atlmfc\include\afxtempl.h

; 101  : 			nElementsToRead = UINT(__min(nElementsLeft, INT_MAX/sizeof(TYPE)));

  000bd	3b f8		 cmp	 edi, eax
  000bf	0f 42 c7	 cmovb	 eax, edi
  000c2	89 45 e0	 mov	 DWORD PTR _nElementsToRead$1$[ebp], eax

; 102  : 			ar.EnsureRead(pData, nElementsToRead*sizeof(TYPE));

  000c5	c1 e0 02	 shl	 eax, 2
; File C:\Program Files (x86)\Microsoft Visual Studio\2019\Community\VC\Tools\MSVC\14.29.30133\atlmfc\include\afx.inl

; 399  : 	UINT nRead=Read(lpBuf, nCount);

  000c8	50		 push	 eax
  000c9	52		 push	 edx
; File C:\Program Files (x86)\Microsoft Visual Studio\2019\Community\VC\Tools\MSVC\14.29.30133\atlmfc\include\afxtempl.h

; 102  : 			ar.EnsureRead(pData, nElementsToRead*sizeof(TYPE));

  000ca	89 45 e4	 mov	 DWORD PTR _nCount$1$[ebp], eax
; File C:\Program Files (x86)\Microsoft Visual Studio\2019\Community\VC\Tools\MSVC\14.29.30133\atlmfc\include\afx.inl

; 399  : 	UINT nRead=Read(lpBuf, nCount);

  000cd	e8 00 00 00 00	 call	 ?Read@CArchive@@QAEIPAXI@Z ; CArchive::Read

; 400  : 	if(nRead!=nCount)

  000d2	8b 4d e4	 mov	 ecx, DWORD PTR _nCount$1$[ebp]
  000d5	3b c1		 cmp	 eax, ecx
  000d7	0f 85 21 03 00
	00		 jne	 $LN165@Serialize
; File C:\Program Files (x86)\Microsoft Visual Studio\2019\Community\VC\Tools\MSVC\14.29.30133\atlmfc\include\afxtempl.h

; 104  : 			pData += nElementsToRead;

  000dd	8b 55 fc	 mov	 edx, DWORD PTR _pData$1$[ebp]
  000e0	03 d1		 add	 edx, ecx
  000e2	89 55 fc	 mov	 DWORD PTR _pData$1$[ebp], edx
  000e5	2b 7d e0	 sub	 edi, DWORD PTR _nElementsToRead$1$[ebp]
  000e8	75 cc		 jne	 SHORT $LL23@Serialize
$LN41@Serialize:

; 68   : 	ENSURE(nCount == 0 || pElements != NULL);

  000ea	85 f6		 test	 esi, esi
  000ec	0f 84 07 03 00
	00		 je	 $LN167@Serialize
; File C:\Program Files (x86)\Microsoft Visual Studio\2019\Community\VC\Tools\MSVC\14.29.30133\atlmfc\include\afx.inl

; 212  : 	{ return (m_nMode & CArchive::load) == 0; }

  000f2	8b 43 18	 mov	 eax, DWORD PTR [ebx+24]
  000f5	f7 d0		 not	 eax
  000f7	a8 01		 test	 al, 1
; File C:\Program Files (x86)\Microsoft Visual Studio\2019\Community\VC\Tools\MSVC\14.29.30133\atlmfc\include\afxtempl.h

; 73   : 	if (ar.IsStoring())

  000f9	74 36		 je	 SHORT $LN47@Serialize

; 74   : 	{
; 75   : 		TYPE* pData;
; 76   : 		UINT_PTR nElementsLeft;
; 77   : 
; 78   : 		nElementsLeft = nCount;

  000fb	b8 01 00 00 00	 mov	 eax, 1
  00100	89 45 fc	 mov	 DWORD PTR _nElementsLeft$1$[ebp], eax
$LL42@Serialize:

; 85   : 			ar.Write(pData, nElementsToWrite*sizeof(TYPE));

  00103	8b 4d 08	 mov	 ecx, DWORD PTR _ar$[ebp]
  00106	bb ff ff ff 1f	 mov	 ebx, 536870911		; 1fffffffH
  0010b	3b c3		 cmp	 eax, ebx
  0010d	0f 42 d8	 cmovb	 ebx, eax
  00110	8d 3c 9d 00 00
	00 00		 lea	 edi, DWORD PTR [ebx*4]
  00117	57		 push	 edi
  00118	56		 push	 esi
  00119	e8 00 00 00 00	 call	 ?Write@CArchive@@QAEXPBXI@Z ; CArchive::Write

; 86   : 			nElementsLeft -= nElementsToWrite;

  0011e	8b 45 fc	 mov	 eax, DWORD PTR _nElementsLeft$1$[ebp]

; 87   : 			pData += nElementsToWrite;

  00121	03 f7		 add	 esi, edi
  00123	2b c3		 sub	 eax, ebx
  00125	89 45 fc	 mov	 DWORD PTR _nElementsLeft$1$[ebp], eax
  00128	85 c0		 test	 eax, eax
  0012a	75 d7		 jne	 SHORT $LL42@Serialize

; 88   : 		}
; 89   : 	}

  0012c	8b 5d 08	 mov	 ebx, DWORD PTR _ar$[ebp]
  0012f	eb 33		 jmp	 SHORT $LN5@Serialize
$LN47@Serialize:

; 90   : 	else
; 91   : 	{
; 92   : 		TYPE* pData;
; 93   : 		UINT_PTR nElementsLeft;
; 94   : 
; 95   : 		nElementsLeft = nCount;

  00131	bf 01 00 00 00	 mov	 edi, 1
$LL44@Serialize:

; 101  : 			nElementsToRead = UINT(__min(nElementsLeft, INT_MAX/sizeof(TYPE)));

  00136	b8 ff ff ff 1f	 mov	 eax, 536870911		; 1fffffffH
; File C:\Program Files (x86)\Microsoft Visual Studio\2019\Community\VC\Tools\MSVC\14.29.30133\atlmfc\include\afx.inl

; 399  : 	UINT nRead=Read(lpBuf, nCount);

  0013b	8b cb		 mov	 ecx, ebx
; File C:\Program Files (x86)\Microsoft Visual Studio\2019\Community\VC\Tools\MSVC\14.29.30133\atlmfc\include\afxtempl.h

; 101  : 			nElementsToRead = UINT(__min(nElementsLeft, INT_MAX/sizeof(TYPE)));

  0013d	3b f8		 cmp	 edi, eax
  0013f	0f 42 c7	 cmovb	 eax, edi
  00142	89 45 e4	 mov	 DWORD PTR _nElementsToRead$1$[ebp], eax

; 102  : 			ar.EnsureRead(pData, nElementsToRead*sizeof(TYPE));

  00145	c1 e0 02	 shl	 eax, 2
; File C:\Program Files (x86)\Microsoft Visual Studio\2019\Community\VC\Tools\MSVC\14.29.30133\atlmfc\include\afx.inl

; 399  : 	UINT nRead=Read(lpBuf, nCount);

  00148	50		 push	 eax
  00149	56		 push	 esi
; File C:\Program Files (x86)\Microsoft Visual Studio\2019\Community\VC\Tools\MSVC\14.29.30133\atlmfc\include\afxtempl.h

; 102  : 			ar.EnsureRead(pData, nElementsToRead*sizeof(TYPE));

  0014a	89 45 e0	 mov	 DWORD PTR _nCount$1$[ebp], eax
; File C:\Program Files (x86)\Microsoft Visual Studio\2019\Community\VC\Tools\MSVC\14.29.30133\atlmfc\include\afx.inl

; 399  : 	UINT nRead=Read(lpBuf, nCount);

  0014d	e8 00 00 00 00	 call	 ?Read@CArchive@@QAEIPAXI@Z ; CArchive::Read

; 400  : 	if(nRead!=nCount)

  00152	8b 4d e0	 mov	 ecx, DWORD PTR _nCount$1$[ebp]
  00155	3b c1		 cmp	 eax, ecx
  00157	0f 85 a1 02 00
	00		 jne	 $LN165@Serialize
; File C:\Program Files (x86)\Microsoft Visual Studio\2019\Community\VC\Tools\MSVC\14.29.30133\atlmfc\include\afxtempl.h

; 103  : 			nElementsLeft -= nElementsToRead;

  0015d	03 f1		 add	 esi, ecx
  0015f	2b 7d e4	 sub	 edi, DWORD PTR _nElementsToRead$1$[ebp]
  00162	75 d2		 jne	 SHORT $LL44@Serialize
$LN5@Serialize:

; 1758 : 			{
; 1759 : 				CAssoc* pAssoc;
; 1760 : 				for (pAssoc = m_pHashTable[nHash]; pAssoc != NULL; pAssoc = pAssoc->pNext)

  00164	8b 4d f8	 mov	 ecx, DWORD PTR _pAssoc$1$[ebp]
  00167	8b 49 08	 mov	 ecx, DWORD PTR [ecx+8]
  0016a	89 4d f8	 mov	 DWORD PTR _pAssoc$1$[ebp], ecx
  0016d	85 c9		 test	 ecx, ecx
  0016f	0f 85 ec fe ff
	ff		 jne	 $LL7@Serialize
  00175	8b 75 ec	 mov	 esi, DWORD PTR _this$1$[ebp]
$LN2@Serialize:

; 1756 : 		{
; 1757 : 			for (UINT nHash = 0; nHash < m_nHashTableSize; nHash++)

  00178	8b 4d f4	 mov	 ecx, DWORD PTR _nHash$1$[ebp]
  0017b	41		 inc	 ecx
  0017c	89 4d f4	 mov	 DWORD PTR _nHash$1$[ebp], ecx
  0017f	3b 4e 08	 cmp	 ecx, DWORD PTR [esi+8]
  00182	0f 82 c8 fe ff
	ff		 jb	 $LL4@Serialize

; 1787 : 		}
; 1788 : 	}
; 1789 : }

  00188	5f		 pop	 edi
  00189	5e		 pop	 esi
  0018a	5b		 pop	 ebx
  0018b	8b e5		 mov	 esp, ebp
  0018d	5d		 pop	 ebp
  0018e	c2 04 00	 ret	 4
$LN10@Serialize:

; 1771 : 					SerializeElements<KEY>(ar, pKey, 1);
; 1772 : 					SerializeElements<VALUE>(ar, pValue, 1);
; 1773 : 				}
; 1774 : 			}
; 1775 : 		}
; 1776 : 	}
; 1777 : 	else
; 1778 : 	{
; 1779 : 		DWORD_PTR nNewCount = ar.ReadCount();

  00191	e8 00 00 00 00	 call	 ?ReadCount@CArchive@@QAEKXZ ; CArchive::ReadCount

; 1780 : 		while (nNewCount--)

  00196	85 c0		 test	 eax, eax
  00198	0f 84 52 02 00
	00		 je	 $LN189@Serialize
  0019e	66 90		 npad	 2
$LL8@Serialize:
  001a0	48		 dec	 eax
  001a1	89 45 e4	 mov	 DWORD PTR _nNewCount$1$[ebp], eax
; File C:\Program Files (x86)\Microsoft Visual Studio\2019\Community\VC\Tools\MSVC\14.29.30133\atlmfc\include\afx.inl

; 212  : 	{ return (m_nMode & CArchive::load) == 0; }

  001a4	8b 43 18	 mov	 eax, DWORD PTR [ebx+24]
  001a7	f7 d0		 not	 eax
  001a9	a8 01		 test	 al, 1
; File C:\Program Files (x86)\Microsoft Visual Studio\2019\Community\VC\Tools\MSVC\14.29.30133\atlmfc\include\afxtempl.h

; 73   : 	if (ar.IsStoring())

  001ab	74 43		 je	 SHORT $LN67@Serialize

; 74   : 	{
; 75   : 		TYPE* pData;
; 76   : 		UINT_PTR nElementsLeft;
; 77   : 
; 78   : 		nElementsLeft = nCount;

  001ad	b8 01 00 00 00	 mov	 eax, 1

; 79   : 		pData = pElements;

  001b2	8d 4d f0	 lea	 ecx, DWORD PTR _newKey$4[ebp]
  001b5	89 45 08	 mov	 DWORD PTR _nElementsLeft$1$[ebp], eax
  001b8	89 4d f4	 mov	 DWORD PTR _pData$1$[ebp], ecx
  001bb	0f 1f 44 00 00	 npad	 5
$LL62@Serialize:

; 80   : 		while( nElementsLeft > 0 )
; 81   : 		{
; 82   : 			UINT nElementsToWrite;
; 83   : 
; 84   : 			nElementsToWrite = UINT(__min(nElementsLeft, INT_MAX/sizeof(TYPE)));

  001c0	bf ff ff ff 1f	 mov	 edi, 536870911		; 1fffffffH
  001c5	3b c7		 cmp	 eax, edi
  001c7	0f 42 f8	 cmovb	 edi, eax

; 85   : 			ar.Write(pData, nElementsToWrite*sizeof(TYPE));

  001ca	8d 34 bd 00 00
	00 00		 lea	 esi, DWORD PTR [edi*4]
  001d1	56		 push	 esi
  001d2	51		 push	 ecx
  001d3	8b cb		 mov	 ecx, ebx
  001d5	e8 00 00 00 00	 call	 ?Write@CArchive@@QAEXPBXI@Z ; CArchive::Write

; 86   : 			nElementsLeft -= nElementsToWrite;

  001da	8b 45 08	 mov	 eax, DWORD PTR _nElementsLeft$1$[ebp]

; 87   : 			pData += nElementsToWrite;

  001dd	8b 4d f4	 mov	 ecx, DWORD PTR _pData$1$[ebp]
  001e0	2b c7		 sub	 eax, edi
  001e2	03 ce		 add	 ecx, esi
  001e4	89 45 08	 mov	 DWORD PTR _nElementsLeft$1$[ebp], eax
  001e7	89 4d f4	 mov	 DWORD PTR _pData$1$[ebp], ecx
  001ea	85 c0		 test	 eax, eax
  001ec	75 d2		 jne	 SHORT $LL62@Serialize

; 88   : 		}
; 89   : 	}

  001ee	eb 45		 jmp	 SHORT $LN81@Serialize
$LN67@Serialize:

; 96   : 		pData = pElements;

  001f0	8d 55 f0	 lea	 edx, DWORD PTR _newKey$4[ebp]
  001f3	be 01 00 00 00	 mov	 esi, 1
  001f8	89 55 08	 mov	 DWORD PTR _pData$1$[ebp], edx
  001fb	0f 1f 44 00 00	 npad	 5
$LL64@Serialize:

; 101  : 			nElementsToRead = UINT(__min(nElementsLeft, INT_MAX/sizeof(TYPE)));

  00200	bf ff ff ff 1f	 mov	 edi, 536870911		; 1fffffffH
; File C:\Program Files (x86)\Microsoft Visual Studio\2019\Community\VC\Tools\MSVC\14.29.30133\atlmfc\include\afx.inl

; 399  : 	UINT nRead=Read(lpBuf, nCount);

  00205	8b cb		 mov	 ecx, ebx
; File C:\Program Files (x86)\Microsoft Visual Studio\2019\Community\VC\Tools\MSVC\14.29.30133\atlmfc\include\afxtempl.h

; 101  : 			nElementsToRead = UINT(__min(nElementsLeft, INT_MAX/sizeof(TYPE)));

  00207	3b f7		 cmp	 esi, edi
  00209	0f 42 fe	 cmovb	 edi, esi

; 102  : 			ar.EnsureRead(pData, nElementsToRead*sizeof(TYPE));

  0020c	8d 04 bd 00 00
	00 00		 lea	 eax, DWORD PTR [edi*4]
; File C:\Program Files (x86)\Microsoft Visual Studio\2019\Community\VC\Tools\MSVC\14.29.30133\atlmfc\include\afx.inl

; 399  : 	UINT nRead=Read(lpBuf, nCount);

  00213	50		 push	 eax
  00214	52		 push	 edx
  00215	e8 00 00 00 00	 call	 ?Read@CArchive@@QAEIPAXI@Z ; CArchive::Read

; 400  : 	if(nRead!=nCount)

  0021a	8d 0c bd 00 00
	00 00		 lea	 ecx, DWORD PTR [edi*4]
  00221	3b c1		 cmp	 eax, ecx
  00223	0f 85 d5 01 00
	00		 jne	 $LN165@Serialize
; File C:\Program Files (x86)\Microsoft Visual Studio\2019\Community\VC\Tools\MSVC\14.29.30133\atlmfc\include\afxtempl.h

; 104  : 			pData += nElementsToRead;

  00229	8b 55 08	 mov	 edx, DWORD PTR _pData$1$[ebp]
  0022c	03 d1		 add	 edx, ecx
  0022e	89 55 08	 mov	 DWORD PTR _pData$1$[ebp], edx
  00231	2b f7		 sub	 esi, edi
  00233	75 cb		 jne	 SHORT $LL64@Serialize
$LN81@Serialize:
; File C:\Program Files (x86)\Microsoft Visual Studio\2019\Community\VC\Tools\MSVC\14.29.30133\atlmfc\include\afx.inl

; 212  : 	{ return (m_nMode & CArchive::load) == 0; }

  00235	8b 43 18	 mov	 eax, DWORD PTR [ebx+24]
  00238	f7 d0		 not	 eax
  0023a	a8 01		 test	 al, 1
; File C:\Program Files (x86)\Microsoft Visual Studio\2019\Community\VC\Tools\MSVC\14.29.30133\atlmfc\include\afxtempl.h

; 73   : 	if (ar.IsStoring())

  0023c	74 42		 je	 SHORT $LN87@Serialize

; 74   : 	{
; 75   : 		TYPE* pData;
; 76   : 		UINT_PTR nElementsLeft;
; 77   : 
; 78   : 		nElementsLeft = nCount;

  0023e	b8 01 00 00 00	 mov	 eax, 1

; 79   : 		pData = pElements;

  00243	8d 4d e8	 lea	 ecx, DWORD PTR _newValue$3[ebp]
  00246	89 45 08	 mov	 DWORD PTR _nElementsLeft$1$[ebp], eax
  00249	89 4d f4	 mov	 DWORD PTR _pData$1$[ebp], ecx
  0024c	0f 1f 40 00	 npad	 4
$LL82@Serialize:

; 80   : 		while( nElementsLeft > 0 )
; 81   : 		{
; 82   : 			UINT nElementsToWrite;
; 83   : 
; 84   : 			nElementsToWrite = UINT(__min(nElementsLeft, INT_MAX/sizeof(TYPE)));

  00250	bf ff ff ff 1f	 mov	 edi, 536870911		; 1fffffffH
  00255	3b c7		 cmp	 eax, edi
  00257	0f 42 f8	 cmovb	 edi, eax

; 85   : 			ar.Write(pData, nElementsToWrite*sizeof(TYPE));

  0025a	8d 34 bd 00 00
	00 00		 lea	 esi, DWORD PTR [edi*4]
  00261	56		 push	 esi
  00262	51		 push	 ecx
  00263	8b cb		 mov	 ecx, ebx
  00265	e8 00 00 00 00	 call	 ?Write@CArchive@@QAEXPBXI@Z ; CArchive::Write

; 86   : 			nElementsLeft -= nElementsToWrite;

  0026a	8b 45 08	 mov	 eax, DWORD PTR _nElementsLeft$1$[ebp]

; 87   : 			pData += nElementsToWrite;

  0026d	8b 4d f4	 mov	 ecx, DWORD PTR _pData$1$[ebp]
  00270	2b c7		 sub	 eax, edi
  00272	03 ce		 add	 ecx, esi
  00274	89 45 08	 mov	 DWORD PTR _nElementsLeft$1$[ebp], eax
  00277	89 4d f4	 mov	 DWORD PTR _pData$1$[ebp], ecx
  0027a	85 c0		 test	 eax, eax
  0027c	75 d2		 jne	 SHORT $LL82@Serialize

; 88   : 		}
; 89   : 	}

  0027e	eb 45		 jmp	 SHORT $LN85@Serialize
$LN87@Serialize:

; 96   : 		pData = pElements;

  00280	8d 55 e8	 lea	 edx, DWORD PTR _newValue$3[ebp]
  00283	be 01 00 00 00	 mov	 esi, 1
  00288	89 55 08	 mov	 DWORD PTR _pData$1$[ebp], edx
  0028b	0f 1f 44 00 00	 npad	 5
$LL84@Serialize:

; 101  : 			nElementsToRead = UINT(__min(nElementsLeft, INT_MAX/sizeof(TYPE)));

  00290	bf ff ff ff 1f	 mov	 edi, 536870911		; 1fffffffH
; File C:\Program Files (x86)\Microsoft Visual Studio\2019\Community\VC\Tools\MSVC\14.29.30133\atlmfc\include\afx.inl

; 399  : 	UINT nRead=Read(lpBuf, nCount);

  00295	8b cb		 mov	 ecx, ebx
; File C:\Program Files (x86)\Microsoft Visual Studio\2019\Community\VC\Tools\MSVC\14.29.30133\atlmfc\include\afxtempl.h

; 101  : 			nElementsToRead = UINT(__min(nElementsLeft, INT_MAX/sizeof(TYPE)));

  00297	3b f7		 cmp	 esi, edi
  00299	0f 42 fe	 cmovb	 edi, esi

; 102  : 			ar.EnsureRead(pData, nElementsToRead*sizeof(TYPE));

  0029c	8d 04 bd 00 00
	00 00		 lea	 eax, DWORD PTR [edi*4]
; File C:\Program Files (x86)\Microsoft Visual Studio\2019\Community\VC\Tools\MSVC\14.29.30133\atlmfc\include\afx.inl

; 399  : 	UINT nRead=Read(lpBuf, nCount);

  002a3	50		 push	 eax
  002a4	52		 push	 edx
  002a5	e8 00 00 00 00	 call	 ?Read@CArchive@@QAEIPAXI@Z ; CArchive::Read

; 400  : 	if(nRead!=nCount)

  002aa	8d 0c bd 00 00
	00 00		 lea	 ecx, DWORD PTR [edi*4]
  002b1	3b c1		 cmp	 eax, ecx
  002b3	0f 85 45 01 00
	00		 jne	 $LN165@Serialize
; File C:\Program Files (x86)\Microsoft Visual Studio\2019\Community\VC\Tools\MSVC\14.29.30133\atlmfc\include\afxtempl.h

; 104  : 			pData += nElementsToRead;

  002b9	8b 55 08	 mov	 edx, DWORD PTR _pData$1$[ebp]
  002bc	03 d1		 add	 edx, ecx
  002be	89 55 08	 mov	 DWORD PTR _pData$1$[ebp], edx
  002c1	2b f7		 sub	 esi, edi
  002c3	75 cb		 jne	 SHORT $LL84@Serialize
$LN85@Serialize:

; 1781 : 		{
; 1782 : 			KEY newKey[1];
; 1783 : 			VALUE newValue[1];
; 1784 : 			SerializeElements<KEY>(ar, newKey, 1);
; 1785 : 			SerializeElements<VALUE>(ar, newValue, 1);
; 1786 : 			SetAt(newKey[0], newValue[0]);

  002c5	8b 45 f0	 mov	 eax, DWORD PTR _newKey$4[ebp]
  002c8	b9 1d f3 01 00	 mov	 ecx, 127773		; 0001f31dH
  002cd	89 45 f4	 mov	 DWORD PTR _key$1$[ebp], eax
  002d0	99		 cdq
  002d1	f7 f9		 idiv	 ecx

; 1534 : 	nHashBucket = nHashValue % m_nHashTableSize;

  002d3	8b 75 ec	 mov	 esi, DWORD PTR _this$1$[ebp]

; 166  : 	HashVal.rem = 16807 * HashVal.rem - 2836 * HashVal.quot;

  002d6	69 c0 14 0b 00
	00		 imul	 eax, eax, 2836
  002dc	69 ca a7 41 00
	00		 imul	 ecx, edx, 16807
  002e2	2b c8		 sub	 ecx, eax

; 1534 : 	nHashBucket = nHashValue % m_nHashTableSize;

  002e4	8d b9 ff ff ff
	7f		 lea	 edi, DWORD PTR [ecx+2147483647]
  002ea	0f 49 f9	 cmovns	 edi, ecx
  002ed	8b 4e 08	 mov	 ecx, DWORD PTR [esi+8]
  002f0	33 d2		 xor	 edx, edx
  002f2	89 4d 08	 mov	 DWORD PTR _nHashSize$1$[ebp], ecx
  002f5	8b c7		 mov	 eax, edi
  002f7	f7 f1		 div	 ecx

; 1535 : 
; 1536 : 	if (m_pHashTable == NULL)

  002f9	8b 4e 04	 mov	 ecx, DWORD PTR [esi+4]
  002fc	8b c2		 mov	 eax, edx
  002fe	89 45 e0	 mov	 DWORD PTR _nHashBucket$1$[ebp], eax
  00301	85 c9		 test	 ecx, ecx
  00303	75 49		 jne	 SHORT $LN112@Serialize

; 1434 : 		m_pHashTable = new CAssoc* [nHashSize];

  00305	8b 45 08	 mov	 eax, DWORD PTR _nHashSize$1$[ebp]
  00308	ba 04 00 00 00	 mov	 edx, 4
  0030d	f7 e2		 mul	 edx
  0030f	0f 90 c1	 seto	 cl
  00312	f7 d9		 neg	 ecx
  00314	0b c8		 or	 ecx, eax
  00316	51		 push	 ecx
  00317	e8 00 00 00 00	 call	 ??_U@YAPAXI@Z		; operator new[]
  0031c	83 c4 04	 add	 esp, 4
  0031f	89 46 04	 mov	 DWORD PTR [esi+4], eax

; 1435 : 		ENSURE(m_pHashTable != NULL);

  00322	85 c0		 test	 eax, eax
  00324	0f 84 cf 00 00
	00		 je	 $LN167@Serialize

; 1436 : 		memset(m_pHashTable, 0, sizeof(CAssoc*) * nHashSize);

  0032a	8b 4d 08	 mov	 ecx, DWORD PTR _nHashSize$1$[ebp]
  0032d	c1 e1 02	 shl	 ecx, 2
  00330	51		 push	 ecx
  00331	6a 00		 push	 0
  00333	50		 push	 eax
  00334	e8 00 00 00 00	 call	 _memset

; 1437 : 	}
; 1438 : 	m_nHashTableSize = nHashSize;

  00339	8b 45 08	 mov	 eax, DWORD PTR _nHashSize$1$[ebp]
  0033c	83 c4 0c	 add	 esp, 12			; 0000000cH

; 1595 : 		ENSURE(m_pHashTable);

  0033f	83 7e 04 00	 cmp	 DWORD PTR [esi+4], 0

; 1438 : 	m_nHashTableSize = nHashSize;

  00343	89 46 08	 mov	 DWORD PTR [esi+8], eax

; 1595 : 		ENSURE(m_pHashTable);

  00346	0f 84 ad 00 00
	00		 je	 $LN167@Serialize
  0034c	eb 1e		 jmp	 SHORT $LN225@Serialize
$LN112@Serialize:

; 1541 : 	for (pAssoc = m_pHashTable[nHashBucket]; pAssoc != NULL; pAssoc = pAssoc->pNext)

  0034e	8b 0c 81	 mov	 ecx, DWORD PTR [ecx+eax*4]
  00351	85 c9		 test	 ecx, ecx
  00353	74 17		 je	 SHORT $LN225@Serialize
  00355	8b 45 f4	 mov	 eax, DWORD PTR _key$1$[ebp]
$LL111@Serialize:

; 1542 : 	{
; 1543 : 		if (pAssoc->nHashValue == nHashValue && CompareElements(&pAssoc->key, &key))

  00358	39 79 0c	 cmp	 DWORD PTR [ecx+12], edi
  0035b	75 08		 jne	 SHORT $LN109@Serialize

; 156  : 	return *pElement1 == *pElement2;

  0035d	39 01		 cmp	 DWORD PTR [ecx], eax

; 1543 : 		if (pAssoc->nHashValue == nHashValue && CompareElements(&pAssoc->key, &key))

  0035f	0f 84 7a 00 00
	00		 je	 $LN104@Serialize
$LN109@Serialize:

; 1537 : 		return NULL;
; 1538 : 
; 1539 : 	// see if it exists
; 1540 : 	CAssoc* pAssoc;
; 1541 : 	for (pAssoc = m_pHashTable[nHashBucket]; pAssoc != NULL; pAssoc = pAssoc->pNext)

  00365	8b 49 08	 mov	 ecx, DWORD PTR [ecx+8]
  00368	85 c9		 test	 ecx, ecx
  0036a	75 ec		 jne	 SHORT $LL111@Serialize
$LN225@Serialize:

; 1481 : 	if (m_pFreeList == NULL)

  0036c	83 7e 10 00	 cmp	 DWORD PTR [esi+16], 0
  00370	75 34		 jne	 SHORT $LN142@Serialize

; 1482 : 	{
; 1483 : 		// add another block
; 1484 : 		CPlex* newBlock = CPlex::Create(m_pBlocks, m_nBlockSize, sizeof(CMap::CAssoc));

  00372	6a 10		 push	 16			; 00000010H
  00374	ff 76 18	 push	 DWORD PTR [esi+24]
  00377	8d 46 14	 lea	 eax, DWORD PTR [esi+20]
  0037a	50		 push	 eax
  0037b	e8 00 00 00 00	 call	 ?Create@CPlex@@SGPAU1@AAPAU1@II@Z ; CPlex::Create

; 1485 : 		// chain them into free list
; 1486 : 		CMap::CAssoc* pAssoc = (CMap::CAssoc*) newBlock->data();
; 1487 : 		// free in reverse order to make it easier to debug
; 1488 : 		pAssoc += m_nBlockSize - 1;

  00380	8b 56 18	 mov	 edx, DWORD PTR [esi+24]
  00383	83 c0 08	 add	 eax, 8
  00386	8b ca		 mov	 ecx, edx
  00388	c1 e1 04	 shl	 ecx, 4
  0038b	83 c1 f0	 add	 ecx, -16		; fffffff0H
  0038e	03 c8		 add	 ecx, eax

; 1489 : 		for (INT_PTR i = m_nBlockSize-1; i >= 0; i--, pAssoc--)

  00390	83 c2 ff	 add	 edx, -1
  00393	78 11		 js	 SHORT $LN142@Serialize
$LL139@Serialize:

; 1490 : 		{
; 1491 : 			pAssoc->pNext = m_pFreeList;

  00395	8b 46 10	 mov	 eax, DWORD PTR [esi+16]
  00398	89 41 08	 mov	 DWORD PTR [ecx+8], eax

; 1492 : 			m_pFreeList = pAssoc;

  0039b	89 4e 10	 mov	 DWORD PTR [esi+16], ecx
  0039e	83 e9 10	 sub	 ecx, 16			; 00000010H
  003a1	83 ea 01	 sub	 edx, 1
  003a4	79 ef		 jns	 SHORT $LL139@Serialize
$LN142@Serialize:

; 1493 : 		}
; 1494 : 	}
; 1495 : 	ENSURE(m_pFreeList != NULL);  // we must have something

  003a6	8b 4e 10	 mov	 ecx, DWORD PTR [esi+16]
  003a9	85 c9		 test	 ecx, ecx
  003ab	74 4c		 je	 SHORT $LN167@Serialize

; 1496 : 
; 1497 : 	CMap::CAssoc* pAssoc = m_pFreeList;
; 1498 : 
; 1499 : 	// zero the memory
; 1500 : 	CMap::CAssoc* pTemp = pAssoc->pNext;

  003ad	8b 41 08	 mov	 eax, DWORD PTR [ecx+8]
  003b0	0f 57 c0	 xorps	 xmm0, xmm0

; 1602 : 		pAssoc->pNext = m_pHashTable[nHashBucket];

  003b3	8b 55 e0	 mov	 edx, DWORD PTR _nHashBucket$1$[ebp]

; 1501 : 	memset( pAssoc, 0, sizeof(CMap::CAssoc) );

  003b6	0f 11 01	 movups	 XMMWORD PTR [ecx], xmm0

; 1502 : 	pAssoc->pNext = pTemp;

  003b9	89 41 08	 mov	 DWORD PTR [ecx+8], eax

; 1503 : 
; 1504 : 	m_pFreeList = m_pFreeList->pNext;

  003bc	8b 46 10	 mov	 eax, DWORD PTR [esi+16]
  003bf	8b 40 08	 mov	 eax, DWORD PTR [eax+8]

; 1505 : 	m_nCount++;

  003c2	ff 46 0c	 inc	 DWORD PTR [esi+12]
  003c5	89 46 10	 mov	 DWORD PTR [esi+16], eax

; 1256 : 		CPair( ARG_KEY keyval ) : key( keyval )	{}

  003c8	8b 45 f4	 mov	 eax, DWORD PTR _key$1$[ebp]
  003cb	89 01		 mov	 DWORD PTR [ecx], eax

; 1598 : 		pAssoc->nHashValue = nHashValue;

  003cd	89 79 0c	 mov	 DWORD PTR [ecx+12], edi

; 1599 : 		//'pAssoc->value' is a constructed object, nothing more
; 1600 : 
; 1601 : 		// put into hash table
; 1602 : 		pAssoc->pNext = m_pHashTable[nHashBucket];

  003d0	8b 46 04	 mov	 eax, DWORD PTR [esi+4]
  003d3	8b 04 90	 mov	 eax, DWORD PTR [eax+edx*4]
  003d6	89 41 08	 mov	 DWORD PTR [ecx+8], eax

; 1603 : 		m_pHashTable[nHashBucket] = pAssoc;

  003d9	8b 46 04	 mov	 eax, DWORD PTR [esi+4]
  003dc	89 0c 90	 mov	 DWORD PTR [eax+edx*4], ecx
$LN104@Serialize:

; 1350 : 	{ (*this)[key] = newValue; }

  003df	8b 45 e8	 mov	 eax, DWORD PTR _newValue$3[ebp]
  003e2	89 41 04	 mov	 DWORD PTR [ecx+4], eax

; 1780 : 		while (nNewCount--)

  003e5	8b 45 e4	 mov	 eax, DWORD PTR _nNewCount$1$[ebp]
  003e8	85 c0		 test	 eax, eax
  003ea	0f 85 b0 fd ff
	ff		 jne	 $LL8@Serialize
$LN189@Serialize:
  003f0	5f		 pop	 edi

; 1787 : 		}
; 1788 : 	}
; 1789 : }

  003f1	5e		 pop	 esi
  003f2	5b		 pop	 ebx
  003f3	8b e5		 mov	 esp, ebp
  003f5	5d		 pop	 ebp
  003f6	c2 04 00	 ret	 4
$LN167@Serialize:
  003f9	e8 00 00 00 00	 call	 ?AfxThrowInvalidArgException@@YGXXZ ; AfxThrowInvalidArgException
$LN165@Serialize:
  003fe	6a 00		 push	 0
  00400	6a 03		 push	 3
  00402	e8 00 00 00 00	 call	 ?AfxThrowArchiveException@@YGXHPBD@Z ; AfxThrowArchiveException
$LN226@Serialize:
  00407	cc		 int	 3
?Serialize@?$CMap@HHW4CONTROLTYPE@CItemInfo@@AAW412@@@UAEXAAVCArchive@@@Z ENDP ; CMap<int,int,enum CItemInfo::CONTROLTYPE,enum CItemInfo::CONTROLTYPE &>::Serialize
_TEXT	ENDS
; Function compile flags: /Ogtp
; File C:\Program Files (x86)\Microsoft Visual Studio\2019\Community\VC\Tools\MSVC\14.29.30133\atlmfc\include\afxtempl.h
;	COMDAT ??1?$CMap@HHW4CONTROLTYPE@CItemInfo@@AAW412@@@UAE@XZ
_TEXT	SEGMENT
__$EHRec$ = -12						; size = 12
??1?$CMap@HHW4CONTROLTYPE@CItemInfo@@AAW412@@@UAE@XZ PROC ; CMap<int,int,enum CItemInfo::CONTROLTYPE,enum CItemInfo::CONTROLTYPE &>::~CMap<int,int,enum CItemInfo::CONTROLTYPE,enum CItemInfo::CONTROLTYPE &>, COMDAT
; _this$ = ecx

; 1472 : {

  00000	55		 push	 ebp
  00001	8b ec		 mov	 ebp, esp
  00003	6a ff		 push	 -1
  00005	68 00 00 00 00	 push	 __ehhandler$??1?$CMap@HHW4CONTROLTYPE@CItemInfo@@AAW412@@@UAE@XZ
  0000a	64 a1 00 00 00
	00		 mov	 eax, DWORD PTR fs:0
  00010	50		 push	 eax
  00011	56		 push	 esi
  00012	a1 00 00 00 00	 mov	 eax, DWORD PTR ___security_cookie
  00017	33 c5		 xor	 eax, ebp
  00019	50		 push	 eax
  0001a	8d 45 f4	 lea	 eax, DWORD PTR __$EHRec$[ebp]
  0001d	64 a3 00 00 00
	00		 mov	 DWORD PTR fs:0, eax
  00023	8b f1		 mov	 esi, ecx

; 1446 : 	if (m_pHashTable != NULL)

  00025	8b 46 04	 mov	 eax, DWORD PTR [esi+4]

; 1472 : {

  00028	c7 06 00 00 00
	00		 mov	 DWORD PTR [esi], OFFSET ??_7?$CMap@HHW4CONTROLTYPE@CItemInfo@@AAW412@@@6B@

; 1446 : 	if (m_pHashTable != NULL)

  0002e	85 c0		 test	 eax, eax
  00030	74 10		 je	 SHORT $LN10@CMap

; 1447 : 	{
; 1448 : 		// destroy elements (values and keys)
; 1449 : 		for (UINT nHash = 0; nHash < m_nHashTableSize; nHash++)
; 1450 : 		{
; 1451 : 			CAssoc* pAssoc;
; 1452 : 			for (pAssoc = m_pHashTable[nHash]; pAssoc != NULL;
; 1453 : 			  pAssoc = pAssoc->pNext)
; 1454 : 			{
; 1455 : 				pAssoc->CAssoc::~CAssoc();
; 1456 : 			}
; 1457 : 		}
; 1458 : 
; 1459 : 		// free hash table
; 1460 : 		delete[] m_pHashTable;

  00032	50		 push	 eax
  00033	e8 00 00 00 00	 call	 ??_V@YAXPAX@Z		; operator delete[]
  00038	83 c4 04	 add	 esp, 4

; 1461 : 		m_pHashTable = NULL;

  0003b	c7 46 04 00 00
	00 00		 mov	 DWORD PTR [esi+4], 0
$LN10@CMap:

; 1462 : 	}
; 1463 : 
; 1464 : 	m_nCount = 0;
; 1465 : 	m_pFreeList = NULL;
; 1466 : 	m_pBlocks->FreeDataChain();

  00042	8b 4e 14	 mov	 ecx, DWORD PTR [esi+20]
  00045	c7 46 0c 00 00
	00 00		 mov	 DWORD PTR [esi+12], 0
  0004c	c7 46 10 00 00
	00 00		 mov	 DWORD PTR [esi+16], 0
  00053	e8 00 00 00 00	 call	 ?FreeDataChain@CPlex@@QAEXXZ ; CPlex::FreeDataChain

; 1467 : 	m_pBlocks = NULL;

  00058	c7 46 14 00 00
	00 00		 mov	 DWORD PTR [esi+20], 0

; 1473 : 	RemoveAll();
; 1474 : 	ASSERT(m_nCount == 0);
; 1475 : }

  0005f	8b 4d f4	 mov	 ecx, DWORD PTR __$EHRec$[ebp]
  00062	64 89 0d 00 00
	00 00		 mov	 DWORD PTR fs:0, ecx
  00069	59		 pop	 ecx
  0006a	5e		 pop	 esi
  0006b	8b e5		 mov	 esp, ebp
  0006d	5d		 pop	 ebp
  0006e	c3		 ret	 0
  0006f	cc		 int	 3
  00070	cc		 int	 3
  00071	cc		 int	 3
  00072	cc		 int	 3
  00073	cc		 int	 3
_TEXT	ENDS
;	COMDAT text$x
text$x	SEGMENT
__ehhandler$??1?$CMap@HHW4CONTROLTYPE@CItemInfo@@AAW412@@@UAE@XZ:
  00000	90		 npad	 1
  00001	90		 npad	 1
  00002	8b 54 24 08	 mov	 edx, DWORD PTR [esp+8]
  00006	8d 42 0c	 lea	 eax, DWORD PTR [edx+12]
  00009	8b 4a f8	 mov	 ecx, DWORD PTR [edx-8]
  0000c	33 c8		 xor	 ecx, eax
  0000e	e8 00 00 00 00	 call	 @__security_check_cookie@4
  00013	b8 00 00 00 00	 mov	 eax, OFFSET __ehfuncinfo$??1?$CMap@HHW4CONTROLTYPE@CItemInfo@@AAW412@@@UAE@XZ
  00018	e9 00 00 00 00	 jmp	 ___CxxFrameHandler3
text$x	ENDS
??1?$CMap@HHW4CONTROLTYPE@CItemInfo@@AAW412@@@UAE@XZ ENDP ; CMap<int,int,enum CItemInfo::CONTROLTYPE,enum CItemInfo::CONTROLTYPE &>::~CMap<int,int,enum CItemInfo::CONTROLTYPE,enum CItemInfo::CONTROLTYPE &>
; Function compile flags: /Ogtp
; File C:\Program Files (x86)\Microsoft Visual Studio\2019\Community\VC\Tools\MSVC\14.29.30133\atlmfc\include\afxtempl.h
;	COMDAT ?GetAssocAt@?$CMap@HHW4CONTROLTYPE@CItemInfo@@AAW412@@@IBEPAVCAssoc@1@HAAI0@Z
_TEXT	SEGMENT
_key$ = 8						; size = 4
_nHashBucket$ = 12					; size = 4
_nHashValue$ = 16					; size = 4
?GetAssocAt@?$CMap@HHW4CONTROLTYPE@CItemInfo@@AAW412@@@IBEPAVCAssoc@1@HAAI0@Z PROC ; CMap<int,int,enum CItemInfo::CONTROLTYPE,enum CItemInfo::CONTROLTYPE &>::GetAssocAt, COMDAT
; _this$ = ecx

; 1532 : {

  00000	55		 push	 ebp
  00001	8b ec		 mov	 ebp, esp
  00003	56		 push	 esi
  00004	8b f1		 mov	 esi, ecx

; 165  : 	ldiv_t HashVal = ldiv((long)(ARG_KEY)key, 127773);

  00006	b9 1d f3 01 00	 mov	 ecx, 127773		; 0001f31dH

; 1532 : {

  0000b	57		 push	 edi

; 165  : 	ldiv_t HashVal = ldiv((long)(ARG_KEY)key, 127773);

  0000c	8b 7d 08	 mov	 edi, DWORD PTR _key$[ebp]
  0000f	8b c7		 mov	 eax, edi
  00011	99		 cdq
  00012	f7 f9		 idiv	 ecx

; 166  : 	HashVal.rem = 16807 * HashVal.rem - 2836 * HashVal.quot;

  00014	69 c0 14 0b 00
	00		 imul	 eax, eax, 2836
  0001a	69 ca a7 41 00
	00		 imul	 ecx, edx, 16807
  00020	2b c8		 sub	 ecx, eax

; 1533 : 	nHashValue = HashKey<ARG_KEY>(key);

  00022	8d 81 ff ff ff
	7f		 lea	 eax, DWORD PTR [ecx+2147483647]
  00028	0f 49 c1	 cmovns	 eax, ecx
  0002b	8b 4d 10	 mov	 ecx, DWORD PTR _nHashValue$[ebp]

; 1534 : 	nHashBucket = nHashValue % m_nHashTableSize;

  0002e	33 d2		 xor	 edx, edx
  00030	89 01		 mov	 DWORD PTR [ecx], eax
  00032	f7 76 08	 div	 DWORD PTR [esi+8]
  00035	8b 45 0c	 mov	 eax, DWORD PTR _nHashBucket$[ebp]
  00038	89 10		 mov	 DWORD PTR [eax], edx

; 1535 : 
; 1536 : 	if (m_pHashTable == NULL)

  0003a	8b 46 04	 mov	 eax, DWORD PTR [esi+4]
  0003d	85 c0		 test	 eax, eax
  0003f	74 1f		 je	 SHORT $LN26@GetAssocAt

; 1537 : 		return NULL;
; 1538 : 
; 1539 : 	// see if it exists
; 1540 : 	CAssoc* pAssoc;
; 1541 : 	for (pAssoc = m_pHashTable[nHashBucket]; pAssoc != NULL; pAssoc = pAssoc->pNext)

  00041	8b 04 90	 mov	 eax, DWORD PTR [eax+edx*4]
  00044	85 c0		 test	 eax, eax
  00046	74 18		 je	 SHORT $LN26@GetAssocAt

; 1542 : 	{
; 1543 : 		if (pAssoc->nHashValue == nHashValue && CompareElements(&pAssoc->key, &key))

  00048	8b 09		 mov	 ecx, DWORD PTR [ecx]
  0004a	66 0f 1f 44 00
	00		 npad	 6
$LL4@GetAssocAt:
  00050	39 48 0c	 cmp	 DWORD PTR [eax+12], ecx
  00053	75 04		 jne	 SHORT $LN2@GetAssocAt

; 156  : 	return *pElement1 == *pElement2;

  00055	39 38		 cmp	 DWORD PTR [eax], edi

; 1542 : 	{
; 1543 : 		if (pAssoc->nHashValue == nHashValue && CompareElements(&pAssoc->key, &key))

  00057	74 09		 je	 SHORT $LN1@GetAssocAt
$LN2@GetAssocAt:

; 1537 : 		return NULL;
; 1538 : 
; 1539 : 	// see if it exists
; 1540 : 	CAssoc* pAssoc;
; 1541 : 	for (pAssoc = m_pHashTable[nHashBucket]; pAssoc != NULL; pAssoc = pAssoc->pNext)

  00059	8b 40 08	 mov	 eax, DWORD PTR [eax+8]
  0005c	85 c0		 test	 eax, eax
  0005e	75 f0		 jne	 SHORT $LL4@GetAssocAt
$LN26@GetAssocAt:

; 1544 : 			return pAssoc;
; 1545 : 	}
; 1546 : 	return NULL;

  00060	33 c0		 xor	 eax, eax
$LN1@GetAssocAt:
  00062	5f		 pop	 edi

; 1547 : }

  00063	5e		 pop	 esi
  00064	5d		 pop	 ebp
  00065	c2 0c 00	 ret	 12			; 0000000cH
?GetAssocAt@?$CMap@HHW4CONTROLTYPE@CItemInfo@@AAW412@@@IBEPAVCAssoc@1@HAAI0@Z ENDP ; CMap<int,int,enum CItemInfo::CONTROLTYPE,enum CItemInfo::CONTROLTYPE &>::GetAssocAt
_TEXT	ENDS
; Function compile flags: /Ogtp
; File C:\Program Files (x86)\Microsoft Visual Studio\2019\Community\VC\Tools\MSVC\14.29.30133\atlmfc\include\afxtempl.h
;	COMDAT ?NewAssoc@?$CMap@HHW4CONTROLTYPE@CItemInfo@@AAW412@@@IAEPAVCAssoc@1@H@Z
_TEXT	SEGMENT
_key$ = 8						; size = 4
?NewAssoc@?$CMap@HHW4CONTROLTYPE@CItemInfo@@AAW412@@@IAEPAVCAssoc@1@H@Z PROC ; CMap<int,int,enum CItemInfo::CONTROLTYPE,enum CItemInfo::CONTROLTYPE &>::NewAssoc, COMDAT
; _this$ = ecx

; 1480 : {

  00000	55		 push	 ebp
  00001	8b ec		 mov	 ebp, esp
  00003	56		 push	 esi
  00004	8b f1		 mov	 esi, ecx

; 1481 : 	if (m_pFreeList == NULL)

  00006	83 7e 10 00	 cmp	 DWORD PTR [esi+16], 0
  0000a	75 35		 jne	 SHORT $LN7@NewAssoc

; 1482 : 	{
; 1483 : 		// add another block
; 1484 : 		CPlex* newBlock = CPlex::Create(m_pBlocks, m_nBlockSize, sizeof(CMap::CAssoc));

  0000c	6a 10		 push	 16			; 00000010H
  0000e	ff 76 18	 push	 DWORD PTR [esi+24]
  00011	8d 46 14	 lea	 eax, DWORD PTR [esi+20]
  00014	50		 push	 eax
  00015	e8 00 00 00 00	 call	 ?Create@CPlex@@SGPAU1@AAPAU1@II@Z ; CPlex::Create

; 1485 : 		// chain them into free list
; 1486 : 		CMap::CAssoc* pAssoc = (CMap::CAssoc*) newBlock->data();
; 1487 : 		// free in reverse order to make it easier to debug
; 1488 : 		pAssoc += m_nBlockSize - 1;

  0001a	8b 56 18	 mov	 edx, DWORD PTR [esi+24]
  0001d	83 c0 08	 add	 eax, 8
  00020	8b ca		 mov	 ecx, edx
  00022	c1 e1 04	 shl	 ecx, 4
  00025	83 c1 f0	 add	 ecx, -16		; fffffff0H
  00028	03 c1		 add	 eax, ecx

; 1489 : 		for (INT_PTR i = m_nBlockSize-1; i >= 0; i--, pAssoc--)

  0002a	83 c2 ff	 add	 edx, -1
  0002d	78 12		 js	 SHORT $LN7@NewAssoc
  0002f	90		 npad	 1
$LL4@NewAssoc:

; 1490 : 		{
; 1491 : 			pAssoc->pNext = m_pFreeList;

  00030	8b 4e 10	 mov	 ecx, DWORD PTR [esi+16]
  00033	89 48 08	 mov	 DWORD PTR [eax+8], ecx

; 1492 : 			m_pFreeList = pAssoc;

  00036	89 46 10	 mov	 DWORD PTR [esi+16], eax
  00039	83 e8 10	 sub	 eax, 16			; 00000010H
  0003c	83 ea 01	 sub	 edx, 1
  0003f	79 ef		 jns	 SHORT $LL4@NewAssoc
$LN7@NewAssoc:

; 1493 : 		}
; 1494 : 	}
; 1495 : 	ENSURE(m_pFreeList != NULL);  // we must have something

  00041	8b 46 10	 mov	 eax, DWORD PTR [esi+16]
  00044	85 c0		 test	 eax, eax
  00046	74 22		 je	 SHORT $LN21@NewAssoc

; 1496 : 
; 1497 : 	CMap::CAssoc* pAssoc = m_pFreeList;
; 1498 : 
; 1499 : 	// zero the memory
; 1500 : 	CMap::CAssoc* pTemp = pAssoc->pNext;

  00048	8b 48 08	 mov	 ecx, DWORD PTR [eax+8]
  0004b	0f 57 c0	 xorps	 xmm0, xmm0

; 1501 : 	memset( pAssoc, 0, sizeof(CMap::CAssoc) );

  0004e	0f 11 00	 movups	 XMMWORD PTR [eax], xmm0

; 1502 : 	pAssoc->pNext = pTemp;

  00051	89 48 08	 mov	 DWORD PTR [eax+8], ecx

; 1503 : 
; 1504 : 	m_pFreeList = m_pFreeList->pNext;

  00054	8b 4e 10	 mov	 ecx, DWORD PTR [esi+16]
  00057	8b 49 08	 mov	 ecx, DWORD PTR [ecx+8]

; 1505 : 	m_nCount++;

  0005a	ff 46 0c	 inc	 DWORD PTR [esi+12]
  0005d	89 4e 10	 mov	 DWORD PTR [esi+16], ecx

; 1256 : 		CPair( ARG_KEY keyval ) : key( keyval )	{}

  00060	8b 4d 08	 mov	 ecx, DWORD PTR _key$[ebp]
  00063	89 08		 mov	 DWORD PTR [eax], ecx

; 1506 : 	ASSERT(m_nCount > 0);  // make sure we don't overflow
; 1507 : #pragma push_macro("new")
; 1508 : #undef new
; 1509 : 	::new(pAssoc) CMap::CAssoc(key);
; 1510 : #pragma pop_macro("new")
; 1511 : 	return pAssoc;

  00065	5e		 pop	 esi

; 1512 : }

  00066	5d		 pop	 ebp
  00067	c2 04 00	 ret	 4
$LN21@NewAssoc:

; 1493 : 		}
; 1494 : 	}
; 1495 : 	ENSURE(m_pFreeList != NULL);  // we must have something

  0006a	e8 00 00 00 00	 call	 ?AfxThrowInvalidArgException@@YGXXZ ; AfxThrowInvalidArgException
$LN19@NewAssoc:
  0006f	cc		 int	 3
?NewAssoc@?$CMap@HHW4CONTROLTYPE@CItemInfo@@AAW412@@@IAEPAVCAssoc@1@H@Z ENDP ; CMap<int,int,enum CItemInfo::CONTROLTYPE,enum CItemInfo::CONTROLTYPE &>::NewAssoc
_TEXT	ENDS
; Function compile flags: /Ogtp
; File C:\Program Files (x86)\Microsoft Visual Studio\2019\Community\VC\Tools\MSVC\14.29.30133\atlmfc\include\afxtempl.h
;	COMDAT ?InitHashTable@?$CMap@HHW4CONTROLTYPE@CItemInfo@@AAW412@@@QAEXIH@Z
_TEXT	SEGMENT
_nHashSize$ = 8						; size = 4
_bAllocNow$ = 12					; size = 4
?InitHashTable@?$CMap@HHW4CONTROLTYPE@CItemInfo@@AAW412@@@QAEXIH@Z PROC ; CMap<int,int,enum CItemInfo::CONTROLTYPE,enum CItemInfo::CONTROLTYPE &>::InitHashTable, COMDAT
; _this$ = ecx

; 1420 : {

  00000	55		 push	 ebp
  00001	8b ec		 mov	 ebp, esp
  00003	56		 push	 esi
  00004	8b f1		 mov	 esi, ecx
  00006	57		 push	 edi

; 1421 : 	ASSERT_VALID(this);
; 1422 : 	ASSERT(m_nCount == 0);
; 1423 : 	ASSERT(nHashSize > 0);
; 1424 : 
; 1425 : 	if (m_pHashTable != NULL)

  00007	8b 46 04	 mov	 eax, DWORD PTR [esi+4]
  0000a	85 c0		 test	 eax, eax
  0000c	74 10		 je	 SHORT $LN5@InitHashTa

; 1426 : 	{
; 1427 : 		// free hash table
; 1428 : 		delete[] m_pHashTable;

  0000e	50		 push	 eax
  0000f	e8 00 00 00 00	 call	 ??_V@YAXPAX@Z		; operator delete[]
  00014	83 c4 04	 add	 esp, 4

; 1429 : 		m_pHashTable = NULL;

  00017	c7 46 04 00 00
	00 00		 mov	 DWORD PTR [esi+4], 0
$LN5@InitHashTa:

; 1430 : 	}
; 1431 : 
; 1432 : 	if (bAllocNow)

  0001e	83 7d 0c 00	 cmp	 DWORD PTR _bAllocNow$[ebp], 0
  00022	8b 7d 08	 mov	 edi, DWORD PTR _nHashSize$[ebp]
  00025	74 37		 je	 SHORT $LN6@InitHashTa

; 1433 : 	{
; 1434 : 		m_pHashTable = new CAssoc* [nHashSize];

  00027	33 c9		 xor	 ecx, ecx
  00029	8b c7		 mov	 eax, edi
  0002b	ba 04 00 00 00	 mov	 edx, 4
  00030	f7 e2		 mul	 edx
  00032	0f 90 c1	 seto	 cl
  00035	f7 d9		 neg	 ecx
  00037	0b c8		 or	 ecx, eax
  00039	51		 push	 ecx
  0003a	e8 00 00 00 00	 call	 ??_U@YAPAXI@Z		; operator new[]
  0003f	8b c8		 mov	 ecx, eax
  00041	83 c4 04	 add	 esp, 4
  00044	89 4e 04	 mov	 DWORD PTR [esi+4], ecx

; 1435 : 		ENSURE(m_pHashTable != NULL);

  00047	85 c9		 test	 ecx, ecx
  00049	74 1c		 je	 SHORT $LN11@InitHashTa

; 1436 : 		memset(m_pHashTable, 0, sizeof(CAssoc*) * nHashSize);

  0004b	8d 04 bd 00 00
	00 00		 lea	 eax, DWORD PTR [edi*4]
  00052	50		 push	 eax
  00053	6a 00		 push	 0
  00055	51		 push	 ecx
  00056	e8 00 00 00 00	 call	 _memset
  0005b	83 c4 0c	 add	 esp, 12			; 0000000cH
$LN6@InitHashTa:

; 1437 : 	}
; 1438 : 	m_nHashTableSize = nHashSize;

  0005e	89 7e 08	 mov	 DWORD PTR [esi+8], edi
  00061	5f		 pop	 edi
  00062	5e		 pop	 esi

; 1439 : }

  00063	5d		 pop	 ebp
  00064	c2 08 00	 ret	 8
$LN11@InitHashTa:

; 1435 : 		ENSURE(m_pHashTable != NULL);

  00067	e8 00 00 00 00	 call	 ?AfxThrowInvalidArgException@@YGXXZ ; AfxThrowInvalidArgException
$LN9@InitHashTa:
  0006c	cc		 int	 3
?InitHashTable@?$CMap@HHW4CONTROLTYPE@CItemInfo@@AAW412@@@QAEXIH@Z ENDP ; CMap<int,int,enum CItemInfo::CONTROLTYPE,enum CItemInfo::CONTROLTYPE &>::InitHashTable
_TEXT	ENDS
; Function compile flags: /Ogtp
; File C:\Program Files (x86)\Microsoft Visual Studio\2019\Community\VC\Tools\MSVC\14.29.30133\atlmfc\include\afxtempl.h
;	COMDAT ?RemoveAll@?$CMap@HHW4CONTROLTYPE@CItemInfo@@AAW412@@@QAEXXZ
_TEXT	SEGMENT
?RemoveAll@?$CMap@HHW4CONTROLTYPE@CItemInfo@@AAW412@@@QAEXXZ PROC ; CMap<int,int,enum CItemInfo::CONTROLTYPE,enum CItemInfo::CONTROLTYPE &>::RemoveAll, COMDAT
; _this$ = ecx

; 1443 : {

  00000	56		 push	 esi
  00001	8b f1		 mov	 esi, ecx

; 1444 : 	ASSERT_VALID(this);
; 1445 : 
; 1446 : 	if (m_pHashTable != NULL)

  00003	8b 46 04	 mov	 eax, DWORD PTR [esi+4]
  00006	85 c0		 test	 eax, eax
  00008	74 10		 je	 SHORT $LN8@RemoveAll

; 1447 : 	{
; 1448 : 		// destroy elements (values and keys)
; 1449 : 		for (UINT nHash = 0; nHash < m_nHashTableSize; nHash++)
; 1450 : 		{
; 1451 : 			CAssoc* pAssoc;
; 1452 : 			for (pAssoc = m_pHashTable[nHash]; pAssoc != NULL;
; 1453 : 			  pAssoc = pAssoc->pNext)
; 1454 : 			{
; 1455 : 				pAssoc->CAssoc::~CAssoc();
; 1456 : 			}
; 1457 : 		}
; 1458 : 
; 1459 : 		// free hash table
; 1460 : 		delete[] m_pHashTable;

  0000a	50		 push	 eax
  0000b	e8 00 00 00 00	 call	 ??_V@YAXPAX@Z		; operator delete[]
  00010	83 c4 04	 add	 esp, 4

; 1461 : 		m_pHashTable = NULL;

  00013	c7 46 04 00 00
	00 00		 mov	 DWORD PTR [esi+4], 0
$LN8@RemoveAll:

; 1462 : 	}
; 1463 : 
; 1464 : 	m_nCount = 0;
; 1465 : 	m_pFreeList = NULL;
; 1466 : 	m_pBlocks->FreeDataChain();

  0001a	8b 4e 14	 mov	 ecx, DWORD PTR [esi+20]
  0001d	c7 46 0c 00 00
	00 00		 mov	 DWORD PTR [esi+12], 0
  00024	c7 46 10 00 00
	00 00		 mov	 DWORD PTR [esi+16], 0
  0002b	e8 00 00 00 00	 call	 ?FreeDataChain@CPlex@@QAEXXZ ; CPlex::FreeDataChain

; 1467 : 	m_pBlocks = NULL;

  00030	c7 46 14 00 00
	00 00		 mov	 DWORD PTR [esi+20], 0
  00037	5e		 pop	 esi

; 1468 : }

  00038	c3		 ret	 0
?RemoveAll@?$CMap@HHW4CONTROLTYPE@CItemInfo@@AAW412@@@QAEXXZ ENDP ; CMap<int,int,enum CItemInfo::CONTROLTYPE,enum CItemInfo::CONTROLTYPE &>::RemoveAll
_TEXT	ENDS
; Function compile flags: /Ogtp
; File C:\Program Files (x86)\Microsoft Visual Studio\2019\Community\VC\Tools\MSVC\14.29.30133\atlmfc\include\afxtempl.h
;	COMDAT ?SetAt@?$CMap@HHW4CONTROLTYPE@CItemInfo@@AAW412@@@QAEXHAAW4CONTROLTYPE@CItemInfo@@@Z
_TEXT	SEGMENT
_nHashBucket$1 = -8					; size = 4
_nHashValue$2 = -4					; size = 4
_key$ = 8						; size = 4
_newValue$ = 12						; size = 4
?SetAt@?$CMap@HHW4CONTROLTYPE@CItemInfo@@AAW412@@@QAEXHAAW4CONTROLTYPE@CItemInfo@@@Z PROC ; CMap<int,int,enum CItemInfo::CONTROLTYPE,enum CItemInfo::CONTROLTYPE &>::SetAt, COMDAT
; _this$ = ecx

; 1350 : 	{ (*this)[key] = newValue; }

  00000	55		 push	 ebp
  00001	8b ec		 mov	 ebp, esp
  00003	83 ec 08	 sub	 esp, 8

; 1590 : 	if ((pAssoc = GetAssocAt(key, nHashBucket, nHashValue)) == NULL)

  00006	8d 45 fc	 lea	 eax, DWORD PTR _nHashValue$2[ebp]

; 1350 : 	{ (*this)[key] = newValue; }

  00009	53		 push	 ebx

; 1590 : 	if ((pAssoc = GetAssocAt(key, nHashBucket, nHashValue)) == NULL)

  0000a	8b 5d 08	 mov	 ebx, DWORD PTR _key$[ebp]

; 1350 : 	{ (*this)[key] = newValue; }

  0000d	56		 push	 esi

; 1590 : 	if ((pAssoc = GetAssocAt(key, nHashBucket, nHashValue)) == NULL)

  0000e	50		 push	 eax
  0000f	8d 45 f8	 lea	 eax, DWORD PTR _nHashBucket$1[ebp]

; 1350 : 	{ (*this)[key] = newValue; }

  00012	8b f1		 mov	 esi, ecx

; 1590 : 	if ((pAssoc = GetAssocAt(key, nHashBucket, nHashValue)) == NULL)

  00014	50		 push	 eax
  00015	53		 push	 ebx
  00016	e8 00 00 00 00	 call	 ?GetAssocAt@?$CMap@HHW4CONTROLTYPE@CItemInfo@@AAW412@@@IBEPAVCAssoc@1@HAAI0@Z ; CMap<int,int,enum CItemInfo::CONTROLTYPE,enum CItemInfo::CONTROLTYPE &>::GetAssocAt
  0001b	8b d0		 mov	 edx, eax
  0001d	85 d2		 test	 edx, edx
  0001f	0f 85 cd 00 00
	00		 jne	 $LN7@SetAt

; 1591 : 	{
; 1592 : 		if (m_pHashTable == NULL)

  00025	8b 46 04	 mov	 eax, DWORD PTR [esi+4]
  00028	85 c0		 test	 eax, eax
  0002a	75 4c		 jne	 SHORT $LN42@SetAt

; 1593 : 			InitHashTable(m_nHashTableSize);

  0002c	57		 push	 edi
  0002d	8b 7e 08	 mov	 edi, DWORD PTR [esi+8]

; 1434 : 		m_pHashTable = new CAssoc* [nHashSize];

  00030	33 c9		 xor	 ecx, ecx
  00032	8b c7		 mov	 eax, edi
  00034	ba 04 00 00 00	 mov	 edx, 4
  00039	f7 e2		 mul	 edx
  0003b	0f 90 c1	 seto	 cl
  0003e	f7 d9		 neg	 ecx
  00040	0b c8		 or	 ecx, eax
  00042	51		 push	 ecx
  00043	e8 00 00 00 00	 call	 ??_U@YAPAXI@Z		; operator new[]
  00048	83 c4 04	 add	 esp, 4
  0004b	89 46 04	 mov	 DWORD PTR [esi+4], eax

; 1435 : 		ENSURE(m_pHashTable != NULL);

  0004e	85 c0		 test	 eax, eax
  00050	0f 84 ac 00 00
	00		 je	 $LN39@SetAt

; 1436 : 		memset(m_pHashTable, 0, sizeof(CAssoc*) * nHashSize);

  00056	8d 0c bd 00 00
	00 00		 lea	 ecx, DWORD PTR [edi*4]
  0005d	51		 push	 ecx
  0005e	6a 00		 push	 0
  00060	50		 push	 eax
  00061	e8 00 00 00 00	 call	 _memset

; 1437 : 	}
; 1438 : 	m_nHashTableSize = nHashSize;

  00066	8b 46 04	 mov	 eax, DWORD PTR [esi+4]
  00069	83 c4 0c	 add	 esp, 12			; 0000000cH
  0006c	89 7e 08	 mov	 DWORD PTR [esi+8], edi
  0006f	5f		 pop	 edi

; 1595 : 		ENSURE(m_pHashTable);

  00070	85 c0		 test	 eax, eax
  00072	0f 84 8a 00 00
	00		 je	 $LN39@SetAt
$LN42@SetAt:

; 1481 : 	if (m_pFreeList == NULL)

  00078	83 7e 10 00	 cmp	 DWORD PTR [esi+16], 0
  0007c	75 34		 jne	 SHORT $LN26@SetAt

; 1482 : 	{
; 1483 : 		// add another block
; 1484 : 		CPlex* newBlock = CPlex::Create(m_pBlocks, m_nBlockSize, sizeof(CMap::CAssoc));

  0007e	6a 10		 push	 16			; 00000010H
  00080	ff 76 18	 push	 DWORD PTR [esi+24]
  00083	8d 46 14	 lea	 eax, DWORD PTR [esi+20]
  00086	50		 push	 eax
  00087	e8 00 00 00 00	 call	 ?Create@CPlex@@SGPAU1@AAPAU1@II@Z ; CPlex::Create

; 1485 : 		// chain them into free list
; 1486 : 		CMap::CAssoc* pAssoc = (CMap::CAssoc*) newBlock->data();
; 1487 : 		// free in reverse order to make it easier to debug
; 1488 : 		pAssoc += m_nBlockSize - 1;

  0008c	8b 56 18	 mov	 edx, DWORD PTR [esi+24]
  0008f	83 c0 08	 add	 eax, 8
  00092	8b ca		 mov	 ecx, edx
  00094	c1 e1 04	 shl	 ecx, 4
  00097	83 c1 f0	 add	 ecx, -16		; fffffff0H
  0009a	03 c8		 add	 ecx, eax

; 1489 : 		for (INT_PTR i = m_nBlockSize-1; i >= 0; i--, pAssoc--)

  0009c	83 c2 ff	 add	 edx, -1
  0009f	78 11		 js	 SHORT $LN26@SetAt
$LL23@SetAt:

; 1490 : 		{
; 1491 : 			pAssoc->pNext = m_pFreeList;

  000a1	8b 46 10	 mov	 eax, DWORD PTR [esi+16]
  000a4	89 41 08	 mov	 DWORD PTR [ecx+8], eax

; 1492 : 			m_pFreeList = pAssoc;

  000a7	89 4e 10	 mov	 DWORD PTR [esi+16], ecx
  000aa	83 e9 10	 sub	 ecx, 16			; 00000010H
  000ad	83 ea 01	 sub	 edx, 1
  000b0	79 ef		 jns	 SHORT $LL23@SetAt
$LN26@SetAt:

; 1493 : 		}
; 1494 : 	}
; 1495 : 	ENSURE(m_pFreeList != NULL);  // we must have something

  000b2	8b 56 10	 mov	 edx, DWORD PTR [esi+16]
  000b5	85 d2		 test	 edx, edx
  000b7	74 49		 je	 SHORT $LN39@SetAt

; 1496 : 
; 1497 : 	CMap::CAssoc* pAssoc = m_pFreeList;
; 1498 : 
; 1499 : 	// zero the memory
; 1500 : 	CMap::CAssoc* pTemp = pAssoc->pNext;

  000b9	8b 42 08	 mov	 eax, DWORD PTR [edx+8]
  000bc	0f 57 c0	 xorps	 xmm0, xmm0

; 1501 : 	memset( pAssoc, 0, sizeof(CMap::CAssoc) );

  000bf	0f 11 02	 movups	 XMMWORD PTR [edx], xmm0

; 1502 : 	pAssoc->pNext = pTemp;

  000c2	89 42 08	 mov	 DWORD PTR [edx+8], eax

; 1503 : 
; 1504 : 	m_pFreeList = m_pFreeList->pNext;

  000c5	8b 46 10	 mov	 eax, DWORD PTR [esi+16]
  000c8	8b 40 08	 mov	 eax, DWORD PTR [eax+8]

; 1505 : 	m_nCount++;

  000cb	ff 46 0c	 inc	 DWORD PTR [esi+12]
  000ce	89 46 10	 mov	 DWORD PTR [esi+16], eax

; 1598 : 		pAssoc->nHashValue = nHashValue;

  000d1	8b 45 fc	 mov	 eax, DWORD PTR _nHashValue$2[ebp]
  000d4	89 42 0c	 mov	 DWORD PTR [edx+12], eax

; 1599 : 		//'pAssoc->value' is a constructed object, nothing more
; 1600 : 
; 1601 : 		// put into hash table
; 1602 : 		pAssoc->pNext = m_pHashTable[nHashBucket];

  000d7	8b 45 f8	 mov	 eax, DWORD PTR _nHashBucket$1[ebp]

; 1256 : 		CPair( ARG_KEY keyval ) : key( keyval )	{}

  000da	89 1a		 mov	 DWORD PTR [edx], ebx

; 1602 : 		pAssoc->pNext = m_pHashTable[nHashBucket];

  000dc	8d 0c 85 00 00
	00 00		 lea	 ecx, DWORD PTR [eax*4]
  000e3	8b 46 04	 mov	 eax, DWORD PTR [esi+4]
  000e6	8b 04 01	 mov	 eax, DWORD PTR [ecx+eax]
  000e9	89 42 08	 mov	 DWORD PTR [edx+8], eax

; 1603 : 		m_pHashTable[nHashBucket] = pAssoc;

  000ec	8b 46 04	 mov	 eax, DWORD PTR [esi+4]
  000ef	89 14 01	 mov	 DWORD PTR [ecx+eax], edx
$LN7@SetAt:

; 1350 : 	{ (*this)[key] = newValue; }

  000f2	8b 45 0c	 mov	 eax, DWORD PTR _newValue$[ebp]
  000f5	5e		 pop	 esi
  000f6	5b		 pop	 ebx
  000f7	8b 00		 mov	 eax, DWORD PTR [eax]
  000f9	89 42 04	 mov	 DWORD PTR [edx+4], eax
  000fc	8b e5		 mov	 esp, ebp
  000fe	5d		 pop	 ebp
  000ff	c2 08 00	 ret	 8
$LN39@SetAt:

; 1495 : 	ENSURE(m_pFreeList != NULL);  // we must have something

  00102	e8 00 00 00 00	 call	 ?AfxThrowInvalidArgException@@YGXXZ ; AfxThrowInvalidArgException
$LN40@SetAt:
  00107	cc		 int	 3
?SetAt@?$CMap@HHW4CONTROLTYPE@CItemInfo@@AAW412@@@QAEXHAAW4CONTROLTYPE@CItemInfo@@@Z ENDP ; CMap<int,int,enum CItemInfo::CONTROLTYPE,enum CItemInfo::CONTROLTYPE &>::SetAt
_TEXT	ENDS
; Function compile flags: /Ogtp
; File C:\Program Files (x86)\Microsoft Visual Studio\2019\Community\VC\Tools\MSVC\14.29.30133\atlmfc\include\afxtempl.h
;	COMDAT ??A?$CMap@HHW4CONTROLTYPE@CItemInfo@@AAW412@@@QAEAAW4CONTROLTYPE@CItemInfo@@H@Z
_TEXT	SEGMENT
_nHashBucket$ = -8					; size = 4
_nHashValue$ = -4					; size = 4
_key$ = 8						; size = 4
??A?$CMap@HHW4CONTROLTYPE@CItemInfo@@AAW412@@@QAEAAW4CONTROLTYPE@CItemInfo@@H@Z PROC ; CMap<int,int,enum CItemInfo::CONTROLTYPE,enum CItemInfo::CONTROLTYPE &>::operator[], COMDAT
; _this$ = ecx

; 1585 : {

  00000	55		 push	 ebp
  00001	8b ec		 mov	 ebp, esp
  00003	83 ec 08	 sub	 esp, 8

; 1586 : 	ASSERT_VALID(this);
; 1587 : 
; 1588 : 	UINT nHashBucket, nHashValue;
; 1589 : 	CAssoc* pAssoc;
; 1590 : 	if ((pAssoc = GetAssocAt(key, nHashBucket, nHashValue)) == NULL)

  00006	8d 45 fc	 lea	 eax, DWORD PTR _nHashValue$[ebp]
  00009	53		 push	 ebx
  0000a	8b 5d 08	 mov	 ebx, DWORD PTR _key$[ebp]
  0000d	56		 push	 esi
  0000e	50		 push	 eax
  0000f	8d 45 f8	 lea	 eax, DWORD PTR _nHashBucket$[ebp]
  00012	8b f1		 mov	 esi, ecx
  00014	50		 push	 eax
  00015	53		 push	 ebx
  00016	e8 00 00 00 00	 call	 ?GetAssocAt@?$CMap@HHW4CONTROLTYPE@CItemInfo@@AAW412@@@IBEPAVCAssoc@1@HAAI0@Z ; CMap<int,int,enum CItemInfo::CONTROLTYPE,enum CItemInfo::CONTROLTYPE &>::GetAssocAt
  0001b	8b d0		 mov	 edx, eax
  0001d	85 d2		 test	 edx, edx
  0001f	0f 85 cd 00 00
	00		 jne	 $LN5@operator

; 1591 : 	{
; 1592 : 		if (m_pHashTable == NULL)

  00025	8b 46 04	 mov	 eax, DWORD PTR [esi+4]
  00028	85 c0		 test	 eax, eax
  0002a	75 4c		 jne	 SHORT $LN39@operator

; 1593 : 			InitHashTable(m_nHashTableSize);

  0002c	57		 push	 edi
  0002d	8b 7e 08	 mov	 edi, DWORD PTR [esi+8]

; 1434 : 		m_pHashTable = new CAssoc* [nHashSize];

  00030	33 c9		 xor	 ecx, ecx
  00032	8b c7		 mov	 eax, edi
  00034	ba 04 00 00 00	 mov	 edx, 4
  00039	f7 e2		 mul	 edx
  0003b	0f 90 c1	 seto	 cl
  0003e	f7 d9		 neg	 ecx
  00040	0b c8		 or	 ecx, eax
  00042	51		 push	 ecx
  00043	e8 00 00 00 00	 call	 ??_U@YAPAXI@Z		; operator new[]
  00048	83 c4 04	 add	 esp, 4
  0004b	89 46 04	 mov	 DWORD PTR [esi+4], eax

; 1435 : 		ENSURE(m_pHashTable != NULL);

  0004e	85 c0		 test	 eax, eax
  00050	0f 84 a7 00 00
	00		 je	 $LN36@operator

; 1436 : 		memset(m_pHashTable, 0, sizeof(CAssoc*) * nHashSize);

  00056	8d 0c bd 00 00
	00 00		 lea	 ecx, DWORD PTR [edi*4]
  0005d	51		 push	 ecx
  0005e	6a 00		 push	 0
  00060	50		 push	 eax
  00061	e8 00 00 00 00	 call	 _memset

; 1437 : 	}
; 1438 : 	m_nHashTableSize = nHashSize;

  00066	8b 46 04	 mov	 eax, DWORD PTR [esi+4]
  00069	83 c4 0c	 add	 esp, 12			; 0000000cH
  0006c	89 7e 08	 mov	 DWORD PTR [esi+8], edi
  0006f	5f		 pop	 edi

; 1594 : 
; 1595 : 		ENSURE(m_pHashTable);

  00070	85 c0		 test	 eax, eax
  00072	0f 84 85 00 00
	00		 je	 $LN36@operator
$LN39@operator:

; 1481 : 	if (m_pFreeList == NULL)

  00078	83 7e 10 00	 cmp	 DWORD PTR [esi+16], 0
  0007c	75 34		 jne	 SHORT $LN24@operator

; 1482 : 	{
; 1483 : 		// add another block
; 1484 : 		CPlex* newBlock = CPlex::Create(m_pBlocks, m_nBlockSize, sizeof(CMap::CAssoc));

  0007e	6a 10		 push	 16			; 00000010H
  00080	ff 76 18	 push	 DWORD PTR [esi+24]
  00083	8d 46 14	 lea	 eax, DWORD PTR [esi+20]
  00086	50		 push	 eax
  00087	e8 00 00 00 00	 call	 ?Create@CPlex@@SGPAU1@AAPAU1@II@Z ; CPlex::Create

; 1485 : 		// chain them into free list
; 1486 : 		CMap::CAssoc* pAssoc = (CMap::CAssoc*) newBlock->data();
; 1487 : 		// free in reverse order to make it easier to debug
; 1488 : 		pAssoc += m_nBlockSize - 1;

  0008c	8b 56 18	 mov	 edx, DWORD PTR [esi+24]
  0008f	83 c0 08	 add	 eax, 8
  00092	8b ca		 mov	 ecx, edx
  00094	c1 e1 04	 shl	 ecx, 4
  00097	83 c1 f0	 add	 ecx, -16		; fffffff0H
  0009a	03 c8		 add	 ecx, eax

; 1489 : 		for (INT_PTR i = m_nBlockSize-1; i >= 0; i--, pAssoc--)

  0009c	83 c2 ff	 add	 edx, -1
  0009f	78 11		 js	 SHORT $LN24@operator
$LL21@operator:

; 1490 : 		{
; 1491 : 			pAssoc->pNext = m_pFreeList;

  000a1	8b 46 10	 mov	 eax, DWORD PTR [esi+16]
  000a4	89 41 08	 mov	 DWORD PTR [ecx+8], eax

; 1492 : 			m_pFreeList = pAssoc;

  000a7	89 4e 10	 mov	 DWORD PTR [esi+16], ecx
  000aa	83 e9 10	 sub	 ecx, 16			; 00000010H
  000ad	83 ea 01	 sub	 edx, 1
  000b0	79 ef		 jns	 SHORT $LL21@operator
$LN24@operator:

; 1493 : 		}
; 1494 : 	}
; 1495 : 	ENSURE(m_pFreeList != NULL);  // we must have something

  000b2	8b 56 10	 mov	 edx, DWORD PTR [esi+16]
  000b5	85 d2		 test	 edx, edx
  000b7	74 44		 je	 SHORT $LN36@operator

; 1496 : 
; 1497 : 	CMap::CAssoc* pAssoc = m_pFreeList;
; 1498 : 
; 1499 : 	// zero the memory
; 1500 : 	CMap::CAssoc* pTemp = pAssoc->pNext;

  000b9	8b 42 08	 mov	 eax, DWORD PTR [edx+8]
  000bc	0f 57 c0	 xorps	 xmm0, xmm0

; 1501 : 	memset( pAssoc, 0, sizeof(CMap::CAssoc) );

  000bf	0f 11 02	 movups	 XMMWORD PTR [edx], xmm0

; 1502 : 	pAssoc->pNext = pTemp;

  000c2	89 42 08	 mov	 DWORD PTR [edx+8], eax

; 1503 : 
; 1504 : 	m_pFreeList = m_pFreeList->pNext;

  000c5	8b 46 10	 mov	 eax, DWORD PTR [esi+16]
  000c8	8b 40 08	 mov	 eax, DWORD PTR [eax+8]

; 1505 : 	m_nCount++;

  000cb	ff 46 0c	 inc	 DWORD PTR [esi+12]
  000ce	89 46 10	 mov	 DWORD PTR [esi+16], eax

; 1596 : 		// it doesn't exist, add a new Association
; 1597 : 		pAssoc = NewAssoc(key);
; 1598 : 		pAssoc->nHashValue = nHashValue;

  000d1	8b 45 fc	 mov	 eax, DWORD PTR _nHashValue$[ebp]
  000d4	89 42 0c	 mov	 DWORD PTR [edx+12], eax

; 1599 : 		//'pAssoc->value' is a constructed object, nothing more
; 1600 : 
; 1601 : 		// put into hash table
; 1602 : 		pAssoc->pNext = m_pHashTable[nHashBucket];

  000d7	8b 45 f8	 mov	 eax, DWORD PTR _nHashBucket$[ebp]

; 1256 : 		CPair( ARG_KEY keyval ) : key( keyval )	{}

  000da	89 1a		 mov	 DWORD PTR [edx], ebx

; 1599 : 		//'pAssoc->value' is a constructed object, nothing more
; 1600 : 
; 1601 : 		// put into hash table
; 1602 : 		pAssoc->pNext = m_pHashTable[nHashBucket];

  000dc	8d 0c 85 00 00
	00 00		 lea	 ecx, DWORD PTR [eax*4]
  000e3	8b 46 04	 mov	 eax, DWORD PTR [esi+4]
  000e6	8b 04 01	 mov	 eax, DWORD PTR [ecx+eax]
  000e9	89 42 08	 mov	 DWORD PTR [edx+8], eax

; 1603 : 		m_pHashTable[nHashBucket] = pAssoc;

  000ec	8b 46 04	 mov	 eax, DWORD PTR [esi+4]
  000ef	89 14 01	 mov	 DWORD PTR [ecx+eax], edx
$LN5@operator:

; 1604 : 	}
; 1605 : 	return pAssoc->value;  // return new reference

  000f2	5e		 pop	 esi
  000f3	8d 42 04	 lea	 eax, DWORD PTR [edx+4]
  000f6	5b		 pop	 ebx

; 1606 : }

  000f7	8b e5		 mov	 esp, ebp
  000f9	5d		 pop	 ebp
  000fa	c2 04 00	 ret	 4
$LN36@operator:

; 1495 : 	ENSURE(m_pFreeList != NULL);  // we must have something

  000fd	e8 00 00 00 00	 call	 ?AfxThrowInvalidArgException@@YGXXZ ; AfxThrowInvalidArgException
$LN37@operator:
  00102	cc		 int	 3
??A?$CMap@HHW4CONTROLTYPE@CItemInfo@@AAW412@@@QAEAAW4CONTROLTYPE@CItemInfo@@H@Z ENDP ; CMap<int,int,enum CItemInfo::CONTROLTYPE,enum CItemInfo::CONTROLTYPE &>::operator[]
_TEXT	ENDS
; Function compile flags: /Ogtp
; File C:\Program Files (x86)\Microsoft Visual Studio\2019\Community\VC\Tools\MSVC\14.29.30133\atlmfc\include\afxtempl.h
;	COMDAT ?Lookup@?$CMap@HHW4CONTROLTYPE@CItemInfo@@AAW412@@@QBEHHAAW4CONTROLTYPE@CItemInfo@@@Z
_TEXT	SEGMENT
_nHashBucket$ = -8					; size = 4
_nHashValue$ = -4					; size = 4
_key$ = 8						; size = 4
_rValue$ = 12						; size = 4
?Lookup@?$CMap@HHW4CONTROLTYPE@CItemInfo@@AAW412@@@QBEHHAAW4CONTROLTYPE@CItemInfo@@@Z PROC ; CMap<int,int,enum CItemInfo::CONTROLTYPE,enum CItemInfo::CONTROLTYPE &>::Lookup, COMDAT
; _this$ = ecx

; 1551 : {

  00000	55		 push	 ebp
  00001	8b ec		 mov	 ebp, esp
  00003	83 ec 08	 sub	 esp, 8

; 1552 : 	ASSERT_VALID(this);
; 1553 : 
; 1554 : 	UINT nHashBucket, nHashValue;
; 1555 : 	CAssoc* pAssoc = GetAssocAt(key, nHashBucket, nHashValue);

  00006	8d 45 fc	 lea	 eax, DWORD PTR _nHashValue$[ebp]
  00009	50		 push	 eax
  0000a	8d 45 f8	 lea	 eax, DWORD PTR _nHashBucket$[ebp]
  0000d	50		 push	 eax
  0000e	ff 75 08	 push	 DWORD PTR _key$[ebp]
  00011	e8 00 00 00 00	 call	 ?GetAssocAt@?$CMap@HHW4CONTROLTYPE@CItemInfo@@AAW412@@@IBEPAVCAssoc@1@HAAI0@Z ; CMap<int,int,enum CItemInfo::CONTROLTYPE,enum CItemInfo::CONTROLTYPE &>::GetAssocAt

; 1556 : 	if (pAssoc == NULL)

  00016	85 c0		 test	 eax, eax
  00018	75 06		 jne	 SHORT $LN2@Lookup

; 1561 : }

  0001a	8b e5		 mov	 esp, ebp
  0001c	5d		 pop	 ebp
  0001d	c2 08 00	 ret	 8
$LN2@Lookup:

; 1557 : 		return FALSE;  // not in map
; 1558 : 
; 1559 : 	rValue = pAssoc->value;

  00020	8b 48 04	 mov	 ecx, DWORD PTR [eax+4]
  00023	8b 45 0c	 mov	 eax, DWORD PTR _rValue$[ebp]
  00026	89 08		 mov	 DWORD PTR [eax], ecx

; 1560 : 	return TRUE;

  00028	b8 01 00 00 00	 mov	 eax, 1

; 1561 : }

  0002d	8b e5		 mov	 esp, ebp
  0002f	5d		 pop	 ebp
  00030	c2 08 00	 ret	 8
?Lookup@?$CMap@HHW4CONTROLTYPE@CItemInfo@@AAW412@@@QBEHHAAW4CONTROLTYPE@CItemInfo@@@Z ENDP ; CMap<int,int,enum CItemInfo::CONTROLTYPE,enum CItemInfo::CONTROLTYPE &>::Lookup
_TEXT	ENDS
; Function compile flags: /Ogtp
; File C:\Program Files (x86)\Microsoft Visual Studio\2019\Community\VC\Tools\MSVC\14.29.30133\atlmfc\include\afxtempl.h
;	COMDAT ??0?$CMap@HHW4CONTROLTYPE@CItemInfo@@AAW412@@@QAE@H@Z
_TEXT	SEGMENT
_nBlockSize$ = 8					; size = 4
??0?$CMap@HHW4CONTROLTYPE@CItemInfo@@AAW412@@@QAE@H@Z PROC ; CMap<int,int,enum CItemInfo::CONTROLTYPE,enum CItemInfo::CONTROLTYPE &>::CMap<int,int,enum CItemInfo::CONTROLTYPE,enum CItemInfo::CONTROLTYPE &>, COMDAT
; _this$ = ecx

; 1403 : {

  00000	55		 push	 ebp
  00001	8b ec		 mov	 ebp, esp

; 1404 : 	ASSERT(nBlockSize > 0);
; 1405 : 
; 1406 : 	m_pHashTable = NULL;
; 1407 : 	m_nHashTableSize = 17;  // default size
; 1408 : 	m_nCount = 0;
; 1409 : 	m_pFreeList = NULL;
; 1410 : 	m_pBlocks = NULL;
; 1411 : 	m_nBlockSize = nBlockSize;

  00003	8b 45 08	 mov	 eax, DWORD PTR _nBlockSize$[ebp]
  00006	89 41 18	 mov	 DWORD PTR [ecx+24], eax

; 1412 : }

  00009	8b c1		 mov	 eax, ecx
  0000b	c7 01 00 00 00
	00		 mov	 DWORD PTR [ecx], OFFSET ??_7?$CMap@HHW4CONTROLTYPE@CItemInfo@@AAW412@@@6B@
  00011	c7 41 04 00 00
	00 00		 mov	 DWORD PTR [ecx+4], 0
  00018	c7 41 08 11 00
	00 00		 mov	 DWORD PTR [ecx+8], 17	; 00000011H
  0001f	c7 41 0c 00 00
	00 00		 mov	 DWORD PTR [ecx+12], 0
  00026	c7 41 10 00 00
	00 00		 mov	 DWORD PTR [ecx+16], 0
  0002d	c7 41 14 00 00
	00 00		 mov	 DWORD PTR [ecx+20], 0
  00034	5d		 pop	 ebp
  00035	c2 04 00	 ret	 4
??0?$CMap@HHW4CONTROLTYPE@CItemInfo@@AAW412@@@QAE@H@Z ENDP ; CMap<int,int,enum CItemInfo::CONTROLTYPE,enum CItemInfo::CONTROLTYPE &>::CMap<int,int,enum CItemInfo::CONTROLTYPE,enum CItemInfo::CONTROLTYPE &>
_TEXT	ENDS
; Function compile flags: /Ogtp
; File D:\git\src\IBK\IBK_DRFN\ProjSrc\SrcChartEx\ChartAddIn\ChartDesignPropertyAddIn\ChartDesignPropertyAddIn\SuperGridCtrl.h
; File C:\Program Files (x86)\Microsoft Visual Studio\2019\Community\VC\Tools\MSVC\14.29.30133\atlmfc\include\afxtempl.h
; File D:\git\src\IBK\IBK_DRFN\ProjSrc\SrcChartEx\ChartAddIn\ChartDesignPropertyAddIn\ChartDesignPropertyAddIn\SuperGridCtrl.h
; File C:\Program Files (x86)\Microsoft Visual Studio\2019\Community\VC\Tools\MSVC\14.29.30133\atlmfc\include\afxtempl.h
; File D:\git\src\IBK\IBK_DRFN\ProjSrc\SrcChartEx\ChartAddIn\ChartDesignPropertyAddIn\ChartDesignPropertyAddIn\SuperGridCtrl.h
; File C:\Program Files (x86)\Microsoft Visual Studio\2019\Community\VC\Tools\MSVC\14.29.30133\atlmfc\include\afxtempl.h
; File D:\git\src\IBK\IBK_DRFN\ProjSrc\SrcChartEx\ChartAddIn\ChartDesignPropertyAddIn\ChartDesignPropertyAddIn\SuperGridCtrl.h
; File C:\Program Files (x86)\Microsoft Visual Studio\2019\Community\VC\Tools\MSVC\14.29.30133\atlmfc\include\afxtempl.h
; File D:\git\src\IBK\IBK_DRFN\ProjSrc\SrcChartEx\ChartAddIn\ChartDesignPropertyAddIn\ChartDesignPropertyAddIn\SuperGridCtrl.h
; File C:\Program Files (x86)\Microsoft Visual Studio\2019\Community\VC\Tools\MSVC\14.29.30133\atlmfc\include\afxtempl.h
; File D:\git\src\IBK\IBK_DRFN\ProjSrc\SrcChartEx\ChartAddIn\ChartDesignPropertyAddIn\ChartDesignPropertyAddIn\SuperGridCtrl.h
; File C:\Program Files (x86)\Microsoft Visual Studio\2019\Community\VC\Tools\MSVC\14.29.30133\atlmfc\include\afxtempl.h
; File D:\git\src\IBK\IBK_DRFN\ProjSrc\SrcChartEx\ChartAddIn\ChartDesignPropertyAddIn\ChartDesignPropertyAddIn\SuperGridCtrl.h
; File C:\Program Files (x86)\Microsoft Visual Studio\2019\Community\VC\Tools\MSVC\14.29.30133\atlmfc\include\afxtempl.h
; File D:\git\src\IBK\IBK_DRFN\ProjSrc\SrcChartEx\ChartAddIn\ChartDesignPropertyAddIn\ChartDesignPropertyAddIn\SuperGridCtrl.h
;	COMDAT ??1CItemInfo@@UAE@XZ
_TEXT	SEGMENT
__$EHRec$ = -12						; size = 12
??1CItemInfo@@UAE@XZ PROC				; CItemInfo::~CItemInfo, COMDAT
; _this$ = ecx

; 121  : 	{

  00000	55		 push	 ebp
  00001	8b ec		 mov	 ebp, esp
  00003	6a ff		 push	 -1
  00005	68 00 00 00 00	 push	 __ehhandler$??1CItemInfo@@UAE@XZ
  0000a	64 a1 00 00 00
	00		 mov	 eax, DWORD PTR fs:0
  00010	50		 push	 eax
  00011	53		 push	 ebx
  00012	56		 push	 esi
  00013	57		 push	 edi
  00014	a1 00 00 00 00	 mov	 eax, DWORD PTR ___security_cookie
  00019	33 c5		 xor	 eax, ebp
  0001b	50		 push	 eax
  0001c	8d 45 f4	 lea	 eax, DWORD PTR __$EHRec$[ebp]
  0001f	64 a3 00 00 00
	00		 mov	 DWORD PTR fs:0, eax
  00025	8b d9		 mov	 ebx, ecx
; File C:\Program Files (x86)\Microsoft Visual Studio\2019\Community\VC\Tools\MSVC\14.29.30133\atlmfc\include\afxtempl.h

; 1354 : 	{ return (m_nCount == 0) ? NULL : BEFORE_START_POSITION; }

  00027	8b 43 50	 mov	 eax, DWORD PTR [ebx+80]
  0002a	8b f0		 mov	 esi, eax
  0002c	f7 de		 neg	 esi
; File D:\git\src\IBK\IBK_DRFN\ProjSrc\SrcChartEx\ChartAddIn\ChartDesignPropertyAddIn\ChartDesignPropertyAddIn\SuperGridCtrl.h

; 121  : 	{

  0002e	c7 03 00 00 00
	00		 mov	 DWORD PTR [ebx], OFFSET ??_7CItemInfo@@6B@
; File C:\Program Files (x86)\Microsoft Visual Studio\2019\Community\VC\Tools\MSVC\14.29.30133\atlmfc\include\afxtempl.h

; 1354 : 	{ return (m_nCount == 0) ? NULL : BEFORE_START_POSITION; }

  00034	1b f6		 sbb	 esi, esi
; File D:\git\src\IBK\IBK_DRFN\ProjSrc\SrcChartEx\ChartAddIn\ChartDesignPropertyAddIn\ChartDesignPropertyAddIn\SuperGridCtrl.h

; 123  : 		while(pos != NULL)

  00036	85 c0		 test	 eax, eax
  00038	0f 84 7e 00 00
	00		 je	 $LN3@CItemInfo
  0003e	66 90		 npad	 2
$LL2@CItemInfo:
; File C:\Program Files (x86)\Microsoft Visual Studio\2019\Community\VC\Tools\MSVC\14.29.30133\atlmfc\include\afxtempl.h

; 1642 : 	ENSURE(m_pHashTable != NULL);  // never call on empty map

  00040	8b 43 48	 mov	 eax, DWORD PTR [ebx+72]
  00043	85 c0		 test	 eax, eax
  00045	0f 84 8e 01 00
	00		 je	 $LN95@CItemInfo

; 1643 : 
; 1644 : 	CAssoc* pAssocRet = (CAssoc*)rNextPosition;

  0004b	8b fe		 mov	 edi, esi

; 1645 : 	ENSURE(pAssocRet != NULL);

  0004d	85 f6		 test	 esi, esi
  0004f	0f 84 84 01 00
	00		 je	 $LN95@CItemInfo

; 1646 : 
; 1647 : 	if (pAssocRet == (CAssoc*) BEFORE_START_POSITION)

  00055	83 fe ff	 cmp	 esi, -1
  00058	75 1d		 jne	 SHORT $LN21@CItemInfo

; 1648 : 	{
; 1649 : 		// find the first association
; 1650 : 		for (UINT nBucket = 0; nBucket < m_nHashTableSize; nBucket++)

  0005a	8b 53 4c	 mov	 edx, DWORD PTR [ebx+76]
  0005d	33 c9		 xor	 ecx, ecx
  0005f	85 d2		 test	 edx, edx
  00061	74 14		 je	 SHORT $LN21@CItemInfo
$LL19@CItemInfo:

; 1651 : 		{
; 1652 : 			if ((pAssocRet = m_pHashTable[nBucket]) != NULL)

  00063	8b 38		 mov	 edi, DWORD PTR [eax]
  00065	85 ff		 test	 edi, edi
  00067	75 0e		 jne	 SHORT $LN21@CItemInfo

; 1648 : 	{
; 1649 : 		// find the first association
; 1650 : 		for (UINT nBucket = 0; nBucket < m_nHashTableSize; nBucket++)

  00069	41		 inc	 ecx
  0006a	83 c0 04	 add	 eax, 4
  0006d	3b ca		 cmp	 ecx, edx
  0006f	0f 83 64 01 00
	00		 jae	 $LN95@CItemInfo
  00075	eb ec		 jmp	 SHORT $LL19@CItemInfo
$LN21@CItemInfo:

; 1658 : 	}
; 1659 : 
; 1660 : 	// find next association
; 1661 : 	ASSERT(AfxIsValidAddress(pAssocRet, sizeof(CAssoc)));
; 1662 : 	CAssoc* pAssocNext;
; 1663 : 	if ((pAssocNext = pAssocRet->pNext) == NULL)

  00077	8b 77 08	 mov	 esi, DWORD PTR [edi+8]
  0007a	85 f6		 test	 esi, esi
  0007c	75 23		 jne	 SHORT $LN92@CItemInfo

; 1664 : 	{
; 1665 : 		// go to next bucket
; 1666 : 		for (UINT nBucket = (pAssocRet->nHashValue % m_nHashTableSize) + 1;

  0007e	8b 4b 4c	 mov	 ecx, DWORD PTR [ebx+76]
  00081	33 d2		 xor	 edx, edx
  00083	8b 47 0c	 mov	 eax, DWORD PTR [edi+12]
  00086	f7 f1		 div	 ecx
  00088	42		 inc	 edx

; 1667 : 		  nBucket < m_nHashTableSize; nBucket++)

  00089	3b d1		 cmp	 edx, ecx
  0008b	73 14		 jae	 SHORT $LN92@CItemInfo

; 1668 : 			if ((pAssocNext = m_pHashTable[nBucket]) != NULL)

  0008d	8b 43 48	 mov	 eax, DWORD PTR [ebx+72]
  00090	8d 04 90	 lea	 eax, DWORD PTR [eax+edx*4]
$LL25@CItemInfo:
  00093	8b 30		 mov	 esi, DWORD PTR [eax]
  00095	85 f6		 test	 esi, esi
  00097	75 08		 jne	 SHORT $LN92@CItemInfo

; 1667 : 		  nBucket < m_nHashTableSize; nBucket++)

  00099	42		 inc	 edx
  0009a	83 c0 04	 add	 eax, 4
  0009d	3b d1		 cmp	 edx, ecx
  0009f	72 f2		 jb	 SHORT $LL25@CItemInfo
$LN92@CItemInfo:

; 1669 : 				break;
; 1670 : 	}
; 1671 : 
; 1672 : 	rNextPosition = (POSITION) pAssocNext;
; 1673 : 
; 1674 : 	// fill in return data
; 1675 : 	rKey = pAssocRet->key;
; 1676 : 	rValue = pAssocRet->value;

  000a1	8b 7f 04	 mov	 edi, DWORD PTR [edi+4]
; File D:\git\src\IBK\IBK_DRFN\ProjSrc\SrcChartEx\ChartAddIn\ChartDesignPropertyAddIn\ChartDesignPropertyAddIn\SuperGridCtrl.h

; 128  : 			if(b!=NULL)

  000a4	85 ff		 test	 edi, edi
  000a6	74 10		 je	 SHORT $LN6@CItemInfo

; 129  : 			{
; 130  : 				b->RemoveAll();

  000a8	8b cf		 mov	 ecx, edi
  000aa	e8 00 00 00 00	 call	 ?RemoveAll@CStringList@@QAEXXZ ; CStringList::RemoveAll

; 131  : 				delete b;

  000af	8b 07		 mov	 eax, DWORD PTR [edi]
  000b1	8b cf		 mov	 ecx, edi
  000b3	6a 01		 push	 1
  000b5	ff 50 04	 call	 DWORD PTR [eax+4]
$LN6@CItemInfo:

; 123  : 		while(pos != NULL)

  000b8	85 f6		 test	 esi, esi
  000ba	75 84		 jne	 SHORT $LL2@CItemInfo
$LN3@CItemInfo:
; File C:\Program Files (x86)\Microsoft Visual Studio\2019\Community\VC\Tools\MSVC\14.29.30133\atlmfc\include\afxtempl.h

; 1446 : 	if (m_pHashTable != NULL)

  000bc	8b 43 48	 mov	 eax, DWORD PTR [ebx+72]
  000bf	85 c0		 test	 eax, eax
  000c1	74 10		 je	 SHORT $LN42@CItemInfo

; 1447 : 	{
; 1448 : 		// destroy elements (values and keys)
; 1449 : 		for (UINT nHash = 0; nHash < m_nHashTableSize; nHash++)
; 1450 : 		{
; 1451 : 			CAssoc* pAssoc;
; 1452 : 			for (pAssoc = m_pHashTable[nHash]; pAssoc != NULL;
; 1453 : 			  pAssoc = pAssoc->pNext)
; 1454 : 			{
; 1455 : 				pAssoc->CAssoc::~CAssoc();
; 1456 : 			}
; 1457 : 		}
; 1458 : 
; 1459 : 		// free hash table
; 1460 : 		delete[] m_pHashTable;

  000c3	50		 push	 eax
  000c4	e8 00 00 00 00	 call	 ??_V@YAXPAX@Z		; operator delete[]
  000c9	83 c4 04	 add	 esp, 4

; 1461 : 		m_pHashTable = NULL;

  000cc	c7 43 48 00 00
	00 00		 mov	 DWORD PTR [ebx+72], 0
$LN42@CItemInfo:

; 1462 : 	}
; 1463 : 
; 1464 : 	m_nCount = 0;
; 1465 : 	m_pFreeList = NULL;
; 1466 : 	m_pBlocks->FreeDataChain();

  000d3	8b 4b 58	 mov	 ecx, DWORD PTR [ebx+88]
  000d6	c7 43 50 00 00
	00 00		 mov	 DWORD PTR [ebx+80], 0
  000dd	c7 43 54 00 00
	00 00		 mov	 DWORD PTR [ebx+84], 0
  000e4	e8 00 00 00 00	 call	 ?FreeDataChain@CPlex@@QAEXXZ ; CPlex::FreeDataChain
; File D:\git\src\IBK\IBK_DRFN\ProjSrc\SrcChartEx\ChartAddIn\ChartDesignPropertyAddIn\ChartDesignPropertyAddIn\SuperGridCtrl.h

; 135  : 	}

  000e9	8d 4b 64	 lea	 ecx, DWORD PTR [ebx+100]
; File C:\Program Files (x86)\Microsoft Visual Studio\2019\Community\VC\Tools\MSVC\14.29.30133\atlmfc\include\afxtempl.h

; 1467 : 	m_pBlocks = NULL;

  000ec	c7 43 58 00 00
	00 00		 mov	 DWORD PTR [ebx+88], 0
; File D:\git\src\IBK\IBK_DRFN\ProjSrc\SrcChartEx\ChartAddIn\ChartDesignPropertyAddIn\ChartDesignPropertyAddIn\SuperGridCtrl.h

; 135  : 	}

  000f3	e8 00 00 00 00	 call	 ??1CStringArray@@UAE@XZ	; CStringArray::~CStringArray
  000f8	8d 4b 60	 lea	 ecx, DWORD PTR [ebx+96]
  000fb	ff 15 00 00 00
	00		 call	 DWORD PTR __imp_??1?$CStringT@DV?$StrTraitMFC_DLL@DV?$ChTraitsCRT@D@ATL@@@@@ATL@@QAE@XZ
; File C:\Program Files (x86)\Microsoft Visual Studio\2019\Community\VC\Tools\MSVC\14.29.30133\atlmfc\include\afxtempl.h

; 1446 : 	if (m_pHashTable != NULL)

  00101	8b 43 48	 mov	 eax, DWORD PTR [ebx+72]

; 1472 : {

  00104	c7 45 fc 00 00
	00 00		 mov	 DWORD PTR __$EHRec$[ebp+8], 0
  0010b	c7 43 44 00 00
	00 00		 mov	 DWORD PTR [ebx+68], OFFSET ??_7?$CMap@HHPAVCStringList@@PAV1@@@6B@

; 1446 : 	if (m_pHashTable != NULL)

  00112	85 c0		 test	 eax, eax
  00114	74 10		 je	 SHORT $LN54@CItemInfo

; 1447 : 	{
; 1448 : 		// destroy elements (values and keys)
; 1449 : 		for (UINT nHash = 0; nHash < m_nHashTableSize; nHash++)
; 1450 : 		{
; 1451 : 			CAssoc* pAssoc;
; 1452 : 			for (pAssoc = m_pHashTable[nHash]; pAssoc != NULL;
; 1453 : 			  pAssoc = pAssoc->pNext)
; 1454 : 			{
; 1455 : 				pAssoc->CAssoc::~CAssoc();
; 1456 : 			}
; 1457 : 		}
; 1458 : 
; 1459 : 		// free hash table
; 1460 : 		delete[] m_pHashTable;

  00116	50		 push	 eax
  00117	e8 00 00 00 00	 call	 ??_V@YAXPAX@Z		; operator delete[]
  0011c	83 c4 04	 add	 esp, 4

; 1461 : 		m_pHashTable = NULL;

  0011f	c7 43 48 00 00
	00 00		 mov	 DWORD PTR [ebx+72], 0
$LN54@CItemInfo:

; 1462 : 	}
; 1463 : 
; 1464 : 	m_nCount = 0;
; 1465 : 	m_pFreeList = NULL;
; 1466 : 	m_pBlocks->FreeDataChain();

  00126	8b 4b 58	 mov	 ecx, DWORD PTR [ebx+88]
  00129	c7 43 50 00 00
	00 00		 mov	 DWORD PTR [ebx+80], 0
  00130	c7 43 54 00 00
	00 00		 mov	 DWORD PTR [ebx+84], 0
  00137	e8 00 00 00 00	 call	 ?FreeDataChain@CPlex@@QAEXXZ ; CPlex::FreeDataChain

; 1467 : 	m_pBlocks = NULL;

  0013c	c7 43 58 00 00
	00 00		 mov	 DWORD PTR [ebx+88], 0

; 1446 : 	if (m_pHashTable != NULL)

  00143	8b 43 2c	 mov	 eax, DWORD PTR [ebx+44]

; 1472 : {

  00146	c7 45 fc 01 00
	00 00		 mov	 DWORD PTR __$EHRec$[ebp+8], 1
  0014d	c7 43 28 00 00
	00 00		 mov	 DWORD PTR [ebx+40], OFFSET ??_7?$CMap@HHKAAK@@6B@

; 1446 : 	if (m_pHashTable != NULL)

  00154	85 c0		 test	 eax, eax
  00156	74 10		 je	 SHORT $LN66@CItemInfo

; 1447 : 	{
; 1448 : 		// destroy elements (values and keys)
; 1449 : 		for (UINT nHash = 0; nHash < m_nHashTableSize; nHash++)
; 1450 : 		{
; 1451 : 			CAssoc* pAssoc;
; 1452 : 			for (pAssoc = m_pHashTable[nHash]; pAssoc != NULL;
; 1453 : 			  pAssoc = pAssoc->pNext)
; 1454 : 			{
; 1455 : 				pAssoc->CAssoc::~CAssoc();
; 1456 : 			}
; 1457 : 		}
; 1458 : 
; 1459 : 		// free hash table
; 1460 : 		delete[] m_pHashTable;

  00158	50		 push	 eax
  00159	e8 00 00 00 00	 call	 ??_V@YAXPAX@Z		; operator delete[]
  0015e	83 c4 04	 add	 esp, 4

; 1461 : 		m_pHashTable = NULL;

  00161	c7 43 2c 00 00
	00 00		 mov	 DWORD PTR [ebx+44], 0
$LN66@CItemInfo:

; 1462 : 	}
; 1463 : 
; 1464 : 	m_nCount = 0;
; 1465 : 	m_pFreeList = NULL;
; 1466 : 	m_pBlocks->FreeDataChain();

  00168	8b 4b 3c	 mov	 ecx, DWORD PTR [ebx+60]
  0016b	c7 43 34 00 00
	00 00		 mov	 DWORD PTR [ebx+52], 0
  00172	c7 43 38 00 00
	00 00		 mov	 DWORD PTR [ebx+56], 0
  00179	e8 00 00 00 00	 call	 ?FreeDataChain@CPlex@@QAEXXZ ; CPlex::FreeDataChain

; 1467 : 	m_pBlocks = NULL;

  0017e	c7 43 3c 00 00
	00 00		 mov	 DWORD PTR [ebx+60], 0

; 1446 : 	if (m_pHashTable != NULL)

  00185	8b 43 10	 mov	 eax, DWORD PTR [ebx+16]

; 1472 : {

  00188	c7 45 fc 02 00
	00 00		 mov	 DWORD PTR __$EHRec$[ebp+8], 2
  0018f	c7 43 0c 00 00
	00 00		 mov	 DWORD PTR [ebx+12], OFFSET ??_7?$CMap@HHW4CONTROLTYPE@CItemInfo@@AAW412@@@6B@

; 1446 : 	if (m_pHashTable != NULL)

  00196	85 c0		 test	 eax, eax
  00198	74 10		 je	 SHORT $LN78@CItemInfo

; 1447 : 	{
; 1448 : 		// destroy elements (values and keys)
; 1449 : 		for (UINT nHash = 0; nHash < m_nHashTableSize; nHash++)
; 1450 : 		{
; 1451 : 			CAssoc* pAssoc;
; 1452 : 			for (pAssoc = m_pHashTable[nHash]; pAssoc != NULL;
; 1453 : 			  pAssoc = pAssoc->pNext)
; 1454 : 			{
; 1455 : 				pAssoc->CAssoc::~CAssoc();
; 1456 : 			}
; 1457 : 		}
; 1458 : 
; 1459 : 		// free hash table
; 1460 : 		delete[] m_pHashTable;

  0019a	50		 push	 eax
  0019b	e8 00 00 00 00	 call	 ??_V@YAXPAX@Z		; operator delete[]
  001a0	83 c4 04	 add	 esp, 4

; 1461 : 		m_pHashTable = NULL;

  001a3	c7 43 10 00 00
	00 00		 mov	 DWORD PTR [ebx+16], 0
$LN78@CItemInfo:

; 1462 : 	}
; 1463 : 
; 1464 : 	m_nCount = 0;
; 1465 : 	m_pFreeList = NULL;
; 1466 : 	m_pBlocks->FreeDataChain();

  001aa	8b 4b 20	 mov	 ecx, DWORD PTR [ebx+32]
  001ad	c7 43 18 00 00
	00 00		 mov	 DWORD PTR [ebx+24], 0
  001b4	c7 43 1c 00 00
	00 00		 mov	 DWORD PTR [ebx+28], 0
  001bb	e8 00 00 00 00	 call	 ?FreeDataChain@CPlex@@QAEXXZ ; CPlex::FreeDataChain

; 1467 : 	m_pBlocks = NULL;

  001c0	c7 43 20 00 00
	00 00		 mov	 DWORD PTR [ebx+32], 0
; File D:\git\src\IBK\IBK_DRFN\ProjSrc\SrcChartEx\ChartAddIn\ChartDesignPropertyAddIn\ChartDesignPropertyAddIn\SuperGridCtrl.h

; 135  : 	}

  001c7	8b 4d f4	 mov	 ecx, DWORD PTR __$EHRec$[ebp]
  001ca	64 89 0d 00 00
	00 00		 mov	 DWORD PTR fs:0, ecx
  001d1	59		 pop	 ecx
  001d2	5f		 pop	 edi
  001d3	5e		 pop	 esi
  001d4	5b		 pop	 ebx
  001d5	8b e5		 mov	 esp, ebp
  001d7	5d		 pop	 ebp
  001d8	c3		 ret	 0
$LN95@CItemInfo:
; File C:\Program Files (x86)\Microsoft Visual Studio\2019\Community\VC\Tools\MSVC\14.29.30133\atlmfc\include\afxtempl.h

; 1657 : 		ENSURE(pAssocRet != NULL);  // must find something

  001d9	e8 00 00 00 00	 call	 ?AfxThrowInvalidArgException@@YGXXZ ; AfxThrowInvalidArgException
$LN140@CItemInfo:
  001de	cc		 int	 3
  001df	cc		 int	 3
  001e0	cc		 int	 3
  001e1	cc		 int	 3
  001e2	cc		 int	 3
  001e3	cc		 int	 3
_TEXT	ENDS
;	COMDAT text$x
text$x	SEGMENT
__ehhandler$??1CItemInfo@@UAE@XZ:
  00000	90		 npad	 1
  00001	90		 npad	 1
  00002	8b 54 24 08	 mov	 edx, DWORD PTR [esp+8]
  00006	8d 42 0c	 lea	 eax, DWORD PTR [edx+12]
  00009	8b 4a f0	 mov	 ecx, DWORD PTR [edx-16]
  0000c	33 c8		 xor	 ecx, eax
  0000e	e8 00 00 00 00	 call	 @__security_check_cookie@4
  00013	b8 00 00 00 00	 mov	 eax, OFFSET __ehfuncinfo$??1CItemInfo@@UAE@XZ
  00018	e9 00 00 00 00	 jmp	 ___CxxFrameHandler3
text$x	ENDS
??1CItemInfo@@UAE@XZ ENDP				; CItemInfo::~CItemInfo
; Function compile flags: /Ogtp
; File D:\git\src\IBK\IBK_DRFN\ProjSrc\SrcChartEx\ChartAddIn\ChartDesignPropertyAddIn\ChartDesignPropertyAddIn\SuperGridCtrl.h
; File C:\Program Files (x86)\Microsoft Visual Studio\2019\Community\VC\Tools\MSVC\14.29.30133\atlmfc\include\afxtempl.h
; File D:\git\src\IBK\IBK_DRFN\ProjSrc\SrcChartEx\ChartAddIn\ChartDesignPropertyAddIn\ChartDesignPropertyAddIn\SuperGridCtrl.h
; File C:\Program Files (x86)\Microsoft Visual Studio\2019\Community\VC\Tools\MSVC\14.29.30133\atlmfc\include\afxtempl.h
; File D:\git\src\IBK\IBK_DRFN\ProjSrc\SrcChartEx\ChartAddIn\ChartDesignPropertyAddIn\ChartDesignPropertyAddIn\SuperGridCtrl.h
; File C:\Program Files (x86)\Microsoft Visual Studio\2019\Community\VC\Tools\MSVC\14.29.30133\atlmfc\include\afxtempl.h
; File D:\git\src\IBK\IBK_DRFN\ProjSrc\SrcChartEx\ChartAddIn\ChartDesignPropertyAddIn\ChartDesignPropertyAddIn\SuperGridCtrl.h
;	COMDAT ?CopyColors@CItemInfo@@QAEXPAV1@@Z
_TEXT	SEGMENT
_clref$1$ = -16						; size = 4
_nHashBucket$3 = -12					; size = 4
_nHashValue$4 = -8					; size = 4
_this$1$ = -4						; size = 4
_pItemInfo$ = 8						; size = 4
?CopyColors@CItemInfo@@QAEXPAV1@@Z PROC			; CItemInfo::CopyColors, COMDAT
; _this$ = ecx

; 111  : 	{

  00000	55		 push	 ebp
  00001	8b ec		 mov	 ebp, esp
  00003	83 ec 10	 sub	 esp, 16			; 00000010H
  00006	53		 push	 ebx

; 112  : 		for(int nCol=0; nCol < pItemInfo->GetItemCount(); nCol++)

  00007	8b 5d 08	 mov	 ebx, DWORD PTR _pItemInfo$[ebp]
  0000a	57		 push	 edi
  0000b	33 ff		 xor	 edi, edi
  0000d	89 4d fc	 mov	 DWORD PTR _this$1$[ebp], ecx
  00010	39 7b 6c	 cmp	 DWORD PTR [ebx+108], edi
  00013	0f 8e 59 01 00
	00		 jle	 $LN85@CopyColors
  00019	56		 push	 esi
$LN90@CopyColors:
; File C:\Program Files (x86)\Microsoft Visual Studio\2019\Community\VC\Tools\MSVC\14.29.30133\atlmfc\include\afxtempl.h

; 165  : 	ldiv_t HashVal = ldiv((long)(ARG_KEY)key, 127773);

  0001a	8b c7		 mov	 eax, edi
  0001c	b9 1d f3 01 00	 mov	 ecx, 127773		; 0001f31dH
  00021	99		 cdq
  00022	f7 f9		 idiv	 ecx

; 166  : 	HashVal.rem = 16807 * HashVal.rem - 2836 * HashVal.quot;

  00024	69 ca a7 41 00
	00		 imul	 ecx, edx, 16807
  0002a	69 c0 14 0b 00
	00		 imul	 eax, eax, 2836
  00030	2b c8		 sub	 ecx, eax

; 1536 : 	if (m_pHashTable == NULL)

  00032	8d b1 ff ff ff
	7f		 lea	 esi, DWORD PTR [ecx+2147483647]
  00038	0f 49 f1	 cmovns	 esi, ecx
  0003b	8b 4b 2c	 mov	 ecx, DWORD PTR [ebx+44]
  0003e	85 c9		 test	 ecx, ecx
  00040	0f 84 21 01 00
	00		 je	 $LN2@CopyColors

; 1506 : 	ASSERT(m_nCount > 0);  // make sure we don't overflow
; 1507 : #pragma push_macro("new")
; 1508 : #undef new
; 1509 : 	::new(pAssoc) CMap::CAssoc(key);
; 1510 : #pragma pop_macro("new")
; 1511 : 	return pAssoc;
; 1512 : }
; 1513 : 
; 1514 : template<class KEY, class ARG_KEY, class VALUE, class ARG_VALUE>
; 1515 : void CMap<KEY, ARG_KEY, VALUE, ARG_VALUE>::FreeAssoc(CAssoc* pAssoc)
; 1516 : {
; 1517 : 	pAssoc->CAssoc::~CAssoc();
; 1518 : 	pAssoc->pNext = m_pFreeList;
; 1519 : 	m_pFreeList = pAssoc;
; 1520 : 	m_nCount--;
; 1521 : 	ASSERT(m_nCount >= 0);  // make sure we don't underflow
; 1522 : 
; 1523 : 	// if no more elements, cleanup completely
; 1524 : 	if (m_nCount == 0)
; 1525 : 		RemoveAll();
; 1526 : }
; 1527 : 
; 1528 : template<class KEY, class ARG_KEY, class VALUE, class ARG_VALUE>
; 1529 : typename CMap<KEY, ARG_KEY, VALUE, ARG_VALUE>::CAssoc*
; 1530 : CMap<KEY, ARG_KEY, VALUE, ARG_VALUE>::GetAssocAt(ARG_KEY key, UINT& nHashBucket, UINT& nHashValue) const
; 1531 : // find association (or return NULL)
; 1532 : {
; 1533 : 	nHashValue = HashKey<ARG_KEY>(key);
; 1534 : 	nHashBucket = nHashValue % m_nHashTableSize;

  00046	33 d2		 xor	 edx, edx
  00048	8b c6		 mov	 eax, esi
  0004a	f7 73 30	 div	 DWORD PTR [ebx+48]

; 1537 : 		return NULL;
; 1538 : 
; 1539 : 	// see if it exists
; 1540 : 	CAssoc* pAssoc;
; 1541 : 	for (pAssoc = m_pHashTable[nHashBucket]; pAssoc != NULL; pAssoc = pAssoc->pNext)

  0004d	8b 04 91	 mov	 eax, DWORD PTR [ecx+edx*4]
  00050	85 c0		 test	 eax, eax
  00052	0f 84 0f 01 00
	00		 je	 $LN2@CopyColors
$LL13@CopyColors:

; 1542 : 	{
; 1543 : 		if (pAssoc->nHashValue == nHashValue && CompareElements(&pAssoc->key, &key))

  00058	39 70 0c	 cmp	 DWORD PTR [eax+12], esi
  0005b	75 04		 jne	 SHORT $LN11@CopyColors

; 156  : 	return *pElement1 == *pElement2;

  0005d	39 38		 cmp	 DWORD PTR [eax], edi

; 1543 : 		if (pAssoc->nHashValue == nHashValue && CompareElements(&pAssoc->key, &key))

  0005f	74 0c		 je	 SHORT $LN8@CopyColors
$LN11@CopyColors:

; 1537 : 		return NULL;
; 1538 : 
; 1539 : 	// see if it exists
; 1540 : 	CAssoc* pAssoc;
; 1541 : 	for (pAssoc = m_pHashTable[nHashBucket]; pAssoc != NULL; pAssoc = pAssoc->pNext)

  00061	8b 40 08	 mov	 eax, DWORD PTR [eax+8]
  00064	85 c0		 test	 eax, eax
  00066	75 f0		 jne	 SHORT $LL13@CopyColors
  00068	e9 fa 00 00 00	 jmp	 $LN2@CopyColors
$LN8@CopyColors:

; 1559 : 	rValue = pAssoc->value;

  0006d	8b 40 04	 mov	 eax, DWORD PTR [eax+4]
; File D:\git\src\IBK\IBK_DRFN\ProjSrc\SrcChartEx\ChartAddIn\ChartDesignPropertyAddIn\ChartDesignPropertyAddIn\SuperGridCtrl.h

; 116  : 				m_mapClf.SetAt(nCol, clref);

  00070	8b 75 fc	 mov	 esi, DWORD PTR _this$1$[ebp]
; File C:\Program Files (x86)\Microsoft Visual Studio\2019\Community\VC\Tools\MSVC\14.29.30133\atlmfc\include\afxtempl.h

; 1559 : 	rValue = pAssoc->value;

  00073	89 45 f0	 mov	 DWORD PTR _clref$1$[ebp], eax

; 1590 : 	if ((pAssoc = GetAssocAt(key, nHashBucket, nHashValue)) == NULL)

  00076	8d 45 f8	 lea	 eax, DWORD PTR _nHashValue$4[ebp]
  00079	50		 push	 eax
  0007a	8d 45 f4	 lea	 eax, DWORD PTR _nHashBucket$3[ebp]
  0007d	50		 push	 eax
  0007e	57		 push	 edi
  0007f	8d 4e 28	 lea	 ecx, DWORD PTR [esi+40]
  00082	e8 00 00 00 00	 call	 ?GetAssocAt@?$CMap@HHKAAK@@IBEPAVCAssoc@1@HAAI0@Z ; CMap<int,int,unsigned long,unsigned long &>::GetAssocAt
  00087	8b d0		 mov	 edx, eax
  00089	85 d2		 test	 edx, edx
  0008b	0f 85 d0 00 00
	00		 jne	 $LN37@CopyColors

; 1591 : 	{
; 1592 : 		if (m_pHashTable == NULL)

  00091	8b 46 2c	 mov	 eax, DWORD PTR [esi+44]
  00094	85 c0		 test	 eax, eax
  00096	75 4d		 jne	 SHORT $LN89@CopyColors

; 1593 : 			InitHashTable(m_nHashTableSize);

  00098	8b 5e 30	 mov	 ebx, DWORD PTR [esi+48]

; 1434 : 		m_pHashTable = new CAssoc* [nHashSize];

  0009b	33 c9		 xor	 ecx, ecx
  0009d	8b c3		 mov	 eax, ebx
  0009f	ba 04 00 00 00	 mov	 edx, 4
  000a4	f7 e2		 mul	 edx
  000a6	0f 90 c1	 seto	 cl
  000a9	f7 d9		 neg	 ecx
  000ab	0b c8		 or	 ecx, eax
  000ad	51		 push	 ecx
  000ae	e8 00 00 00 00	 call	 ??_U@YAPAXI@Z		; operator new[]
  000b3	83 c4 04	 add	 esp, 4
  000b6	89 46 2c	 mov	 DWORD PTR [esi+44], eax

; 1435 : 		ENSURE(m_pHashTable != NULL);

  000b9	85 c0		 test	 eax, eax
  000bb	0f 84 b9 00 00
	00		 je	 $LN72@CopyColors

; 1436 : 		memset(m_pHashTable, 0, sizeof(CAssoc*) * nHashSize);

  000c1	8d 0c 9d 00 00
	00 00		 lea	 ecx, DWORD PTR [ebx*4]
  000c8	51		 push	 ecx
  000c9	6a 00		 push	 0
  000cb	50		 push	 eax
  000cc	e8 00 00 00 00	 call	 _memset

; 1437 : 	}
; 1438 : 	m_nHashTableSize = nHashSize;

  000d1	8b 46 2c	 mov	 eax, DWORD PTR [esi+44]
  000d4	83 c4 0c	 add	 esp, 12			; 0000000cH
  000d7	89 5e 30	 mov	 DWORD PTR [esi+48], ebx
  000da	8b 5d 08	 mov	 ebx, DWORD PTR _pItemInfo$[ebp]

; 1595 : 		ENSURE(m_pHashTable);

  000dd	85 c0		 test	 eax, eax
  000df	0f 84 95 00 00
	00		 je	 $LN72@CopyColors
$LN89@CopyColors:

; 1481 : 	if (m_pFreeList == NULL)

  000e5	83 7e 38 00	 cmp	 DWORD PTR [esi+56], 0
  000e9	75 36		 jne	 SHORT $LN56@CopyColors

; 1482 : 	{
; 1483 : 		// add another block
; 1484 : 		CPlex* newBlock = CPlex::Create(m_pBlocks, m_nBlockSize, sizeof(CMap::CAssoc));

  000eb	6a 10		 push	 16			; 00000010H
  000ed	ff 76 40	 push	 DWORD PTR [esi+64]
  000f0	8d 46 3c	 lea	 eax, DWORD PTR [esi+60]
  000f3	50		 push	 eax
  000f4	e8 00 00 00 00	 call	 ?Create@CPlex@@SGPAU1@AAPAU1@II@Z ; CPlex::Create

; 1485 : 		// chain them into free list
; 1486 : 		CMap::CAssoc* pAssoc = (CMap::CAssoc*) newBlock->data();
; 1487 : 		// free in reverse order to make it easier to debug
; 1488 : 		pAssoc += m_nBlockSize - 1;

  000f9	8b 56 40	 mov	 edx, DWORD PTR [esi+64]
  000fc	83 c0 08	 add	 eax, 8
  000ff	8b ca		 mov	 ecx, edx
  00101	c1 e1 04	 shl	 ecx, 4
  00104	83 c1 f0	 add	 ecx, -16		; fffffff0H
  00107	03 c8		 add	 ecx, eax

; 1489 : 		for (INT_PTR i = m_nBlockSize-1; i >= 0; i--, pAssoc--)

  00109	83 c2 ff	 add	 edx, -1
  0010c	78 13		 js	 SHORT $LN56@CopyColors
  0010e	66 90		 npad	 2
$LL53@CopyColors:

; 1490 : 		{
; 1491 : 			pAssoc->pNext = m_pFreeList;

  00110	8b 46 38	 mov	 eax, DWORD PTR [esi+56]
  00113	89 41 08	 mov	 DWORD PTR [ecx+8], eax

; 1492 : 			m_pFreeList = pAssoc;

  00116	89 4e 38	 mov	 DWORD PTR [esi+56], ecx
  00119	83 e9 10	 sub	 ecx, 16			; 00000010H
  0011c	83 ea 01	 sub	 edx, 1
  0011f	79 ef		 jns	 SHORT $LL53@CopyColors
$LN56@CopyColors:

; 1495 : 	ENSURE(m_pFreeList != NULL);  // we must have something

  00121	8b 56 38	 mov	 edx, DWORD PTR [esi+56]
  00124	85 d2		 test	 edx, edx
  00126	74 52		 je	 SHORT $LN72@CopyColors

; 1496 : 
; 1497 : 	CMap::CAssoc* pAssoc = m_pFreeList;
; 1498 : 
; 1499 : 	// zero the memory
; 1500 : 	CMap::CAssoc* pTemp = pAssoc->pNext;

  00128	8b 42 08	 mov	 eax, DWORD PTR [edx+8]
  0012b	0f 57 c0	 xorps	 xmm0, xmm0

; 1501 : 	memset( pAssoc, 0, sizeof(CMap::CAssoc) );

  0012e	0f 11 02	 movups	 XMMWORD PTR [edx], xmm0

; 1502 : 	pAssoc->pNext = pTemp;

  00131	89 42 08	 mov	 DWORD PTR [edx+8], eax

; 1503 : 
; 1504 : 	m_pFreeList = m_pFreeList->pNext;

  00134	8b 46 38	 mov	 eax, DWORD PTR [esi+56]
  00137	8b 40 08	 mov	 eax, DWORD PTR [eax+8]

; 1505 : 	m_nCount++;

  0013a	ff 46 34	 inc	 DWORD PTR [esi+52]
  0013d	89 46 38	 mov	 DWORD PTR [esi+56], eax

; 1598 : 		pAssoc->nHashValue = nHashValue;

  00140	8b 45 f8	 mov	 eax, DWORD PTR _nHashValue$4[ebp]
  00143	89 42 0c	 mov	 DWORD PTR [edx+12], eax

; 1599 : 		//'pAssoc->value' is a constructed object, nothing more
; 1600 : 
; 1601 : 		// put into hash table
; 1602 : 		pAssoc->pNext = m_pHashTable[nHashBucket];

  00146	8b 45 f4	 mov	 eax, DWORD PTR _nHashBucket$3[ebp]

; 1256 : 		CPair( ARG_KEY keyval ) : key( keyval )	{}

  00149	89 3a		 mov	 DWORD PTR [edx], edi

; 1602 : 		pAssoc->pNext = m_pHashTable[nHashBucket];

  0014b	8d 0c 85 00 00
	00 00		 lea	 ecx, DWORD PTR [eax*4]
  00152	8b 46 2c	 mov	 eax, DWORD PTR [esi+44]
  00155	8b 04 01	 mov	 eax, DWORD PTR [ecx+eax]
  00158	89 42 08	 mov	 DWORD PTR [edx+8], eax

; 1603 : 		m_pHashTable[nHashBucket] = pAssoc;

  0015b	8b 46 2c	 mov	 eax, DWORD PTR [esi+44]
  0015e	89 14 01	 mov	 DWORD PTR [ecx+eax], edx
$LN37@CopyColors:

; 1350 : 	{ (*this)[key] = newValue; }

  00161	8b 45 f0	 mov	 eax, DWORD PTR _clref$1$[ebp]
  00164	89 42 04	 mov	 DWORD PTR [edx+4], eax
$LN2@CopyColors:
; File D:\git\src\IBK\IBK_DRFN\ProjSrc\SrcChartEx\ChartAddIn\ChartDesignPropertyAddIn\ChartDesignPropertyAddIn\SuperGridCtrl.h

; 112  : 		for(int nCol=0; nCol < pItemInfo->GetItemCount(); nCol++)

  00167	47		 inc	 edi
  00168	3b 7b 6c	 cmp	 edi, DWORD PTR [ebx+108]
  0016b	0f 8c a9 fe ff
	ff		 jl	 $LN90@CopyColors
  00171	5e		 pop	 esi
$LN85@CopyColors:
  00172	5f		 pop	 edi

; 118  : 	}

  00173	5b		 pop	 ebx
  00174	8b e5		 mov	 esp, ebp
  00176	5d		 pop	 ebp
  00177	c2 04 00	 ret	 4
$LN72@CopyColors:
; File C:\Program Files (x86)\Microsoft Visual Studio\2019\Community\VC\Tools\MSVC\14.29.30133\atlmfc\include\afxtempl.h

; 1495 : 	ENSURE(m_pFreeList != NULL);  // we must have something

  0017a	e8 00 00 00 00	 call	 ?AfxThrowInvalidArgException@@YGXXZ ; AfxThrowInvalidArgException
$LN87@CopyColors:
  0017f	cc		 int	 3
?CopyColors@CItemInfo@@QAEXPAV1@@Z ENDP			; CItemInfo::CopyColors
_TEXT	ENDS
; Function compile flags: /Ogtp
; File D:\git\src\IBK\IBK_DRFN\ProjSrc\SrcChartEx\ChartAddIn\ChartDesignPropertyAddIn\ChartDesignPropertyAddIn\SuperGridCtrl.h
; File C:\Program Files (x86)\Microsoft Visual Studio\2019\Community\VC\Tools\MSVC\14.29.30133\atlmfc\include\afxtempl.h
; File D:\git\src\IBK\IBK_DRFN\ProjSrc\SrcChartEx\ChartAddIn\ChartDesignPropertyAddIn\ChartDesignPropertyAddIn\SuperGridCtrl.h
; File C:\Program Files (x86)\Microsoft Visual Studio\2019\Community\VC\Tools\MSVC\14.29.30133\atlmfc\include\afxtempl.h
; File D:\git\src\IBK\IBK_DRFN\ProjSrc\SrcChartEx\ChartAddIn\ChartDesignPropertyAddIn\ChartDesignPropertyAddIn\SuperGridCtrl.h
; File C:\Program Files (x86)\Microsoft Visual Studio\2019\Community\VC\Tools\MSVC\14.29.30133\atlmfc\include\afxtempl.h
; File D:\git\src\IBK\IBK_DRFN\ProjSrc\SrcChartEx\ChartAddIn\ChartDesignPropertyAddIn\ChartDesignPropertyAddIn\SuperGridCtrl.h
;	COMDAT ?GetListData@CItemInfo@@QBEHHAAPAVCStringList@@@Z
_TEXT	SEGMENT
_nHashBucket$1 = -8					; size = 4
_nHashValue$2 = -4					; size = 4
_iSubItem$ = 8						; size = 4
_pList$ = 12						; size = 4
?GetListData@CItemInfo@@QBEHHAAPAVCStringList@@@Z PROC	; CItemInfo::GetListData, COMDAT
; _this$ = ecx

; 57   : 	{	

  00000	55		 push	 ebp
  00001	8b ec		 mov	 ebp, esp
  00003	83 ec 08	 sub	 esp, 8
; File C:\Program Files (x86)\Microsoft Visual Studio\2019\Community\VC\Tools\MSVC\14.29.30133\atlmfc\include\afxtempl.h

; 1555 : 	CAssoc* pAssoc = GetAssocAt(key, nHashBucket, nHashValue);

  00006	8d 45 fc	 lea	 eax, DWORD PTR _nHashValue$2[ebp]
; File D:\git\src\IBK\IBK_DRFN\ProjSrc\SrcChartEx\ChartAddIn\ChartDesignPropertyAddIn\ChartDesignPropertyAddIn\SuperGridCtrl.h

; 58   : 		return m_listdata.Lookup(iSubItem, pList);

  00009	83 c1 44	 add	 ecx, 68			; 00000044H
; File C:\Program Files (x86)\Microsoft Visual Studio\2019\Community\VC\Tools\MSVC\14.29.30133\atlmfc\include\afxtempl.h

; 1555 : 	CAssoc* pAssoc = GetAssocAt(key, nHashBucket, nHashValue);

  0000c	50		 push	 eax
  0000d	8d 45 f8	 lea	 eax, DWORD PTR _nHashBucket$1[ebp]
  00010	50		 push	 eax
  00011	ff 75 08	 push	 DWORD PTR _iSubItem$[ebp]
  00014	e8 00 00 00 00	 call	 ?GetAssocAt@?$CMap@HHPAVCStringList@@PAV1@@@IBEPAVCAssoc@1@HAAI0@Z ; CMap<int,int,CStringList *,CStringList *>::GetAssocAt

; 1556 : 	if (pAssoc == NULL)

  00019	85 c0		 test	 eax, eax
  0001b	75 06		 jne	 SHORT $LN4@GetListDat
; File D:\git\src\IBK\IBK_DRFN\ProjSrc\SrcChartEx\ChartAddIn\ChartDesignPropertyAddIn\ChartDesignPropertyAddIn\SuperGridCtrl.h

; 59   : 	}

  0001d	8b e5		 mov	 esp, ebp
  0001f	5d		 pop	 ebp
  00020	c2 08 00	 ret	 8
$LN4@GetListDat:
; File C:\Program Files (x86)\Microsoft Visual Studio\2019\Community\VC\Tools\MSVC\14.29.30133\atlmfc\include\afxtempl.h

; 1559 : 	rValue = pAssoc->value;

  00023	8b 48 04	 mov	 ecx, DWORD PTR [eax+4]
  00026	8b 45 0c	 mov	 eax, DWORD PTR _pList$[ebp]
  00029	89 08		 mov	 DWORD PTR [eax], ecx
; File D:\git\src\IBK\IBK_DRFN\ProjSrc\SrcChartEx\ChartAddIn\ChartDesignPropertyAddIn\ChartDesignPropertyAddIn\SuperGridCtrl.h

; 58   : 		return m_listdata.Lookup(iSubItem, pList);

  0002b	b8 01 00 00 00	 mov	 eax, 1

; 59   : 	}

  00030	8b e5		 mov	 esp, ebp
  00032	5d		 pop	 ebp
  00033	c2 08 00	 ret	 8
?GetListData@CItemInfo@@QBEHHAAPAVCStringList@@@Z ENDP	; CItemInfo::GetListData
_TEXT	ENDS
; Function compile flags: /Ogtp
; File D:\git\src\IBK\IBK_DRFN\ProjSrc\SrcChartEx\ChartAddIn\ChartDesignPropertyAddIn\ChartDesignPropertyAddIn\SuperGridCtrl.h
; File C:\Program Files (x86)\Microsoft Visual Studio\2019\Community\VC\Tools\MSVC\14.29.30133\atlmfc\include\afxtempl.h
; File D:\git\src\IBK\IBK_DRFN\ProjSrc\SrcChartEx\ChartAddIn\ChartDesignPropertyAddIn\ChartDesignPropertyAddIn\SuperGridCtrl.h
; File C:\Program Files (x86)\Microsoft Visual Studio\2019\Community\VC\Tools\MSVC\14.29.30133\atlmfc\include\afxtempl.h
; File D:\git\src\IBK\IBK_DRFN\ProjSrc\SrcChartEx\ChartAddIn\ChartDesignPropertyAddIn\ChartDesignPropertyAddIn\SuperGridCtrl.h
;	COMDAT ?GetControlType@CItemInfo@@QBEHHAAW4CONTROLTYPE@1@@Z
_TEXT	SEGMENT
_nHashBucket$1 = -8					; size = 4
_nHashValue$2 = -4					; size = 4
_nCol$ = 8						; size = 4
_controlType$ = 12					; size = 4
?GetControlType@CItemInfo@@QBEHHAAW4CONTROLTYPE@1@@Z PROC ; CItemInfo::GetControlType, COMDAT
; _this$ = ecx

; 39   : 	{

  00000	55		 push	 ebp
  00001	8b ec		 mov	 ebp, esp
  00003	83 ec 08	 sub	 esp, 8
; File C:\Program Files (x86)\Microsoft Visual Studio\2019\Community\VC\Tools\MSVC\14.29.30133\atlmfc\include\afxtempl.h

; 1555 : 	CAssoc* pAssoc = GetAssocAt(key, nHashBucket, nHashValue);

  00006	8d 45 fc	 lea	 eax, DWORD PTR _nHashValue$2[ebp]
; File D:\git\src\IBK\IBK_DRFN\ProjSrc\SrcChartEx\ChartAddIn\ChartDesignPropertyAddIn\ChartDesignPropertyAddIn\SuperGridCtrl.h

; 40   : 		if(!m_controlType.Lookup(nCol, controlType))

  00009	83 c1 0c	 add	 ecx, 12			; 0000000cH
; File C:\Program Files (x86)\Microsoft Visual Studio\2019\Community\VC\Tools\MSVC\14.29.30133\atlmfc\include\afxtempl.h

; 1555 : 	CAssoc* pAssoc = GetAssocAt(key, nHashBucket, nHashValue);

  0000c	50		 push	 eax
  0000d	8d 45 f8	 lea	 eax, DWORD PTR _nHashBucket$1[ebp]
  00010	50		 push	 eax
  00011	ff 75 08	 push	 DWORD PTR _nCol$[ebp]
  00014	e8 00 00 00 00	 call	 ?GetAssocAt@?$CMap@HHW4CONTROLTYPE@CItemInfo@@AAW412@@@IBEPAVCAssoc@1@HAAI0@Z ; CMap<int,int,enum CItemInfo::CONTROLTYPE,enum CItemInfo::CONTROLTYPE &>::GetAssocAt

; 1556 : 	if (pAssoc == NULL)

  00019	85 c0		 test	 eax, eax
  0001b	74 13		 je	 SHORT $LN7@GetControl

; 1557 : 		return FALSE;  // not in map
; 1558 : 
; 1559 : 	rValue = pAssoc->value;

  0001d	8b 48 04	 mov	 ecx, DWORD PTR [eax+4]
  00020	8b 45 0c	 mov	 eax, DWORD PTR _controlType$[ebp]
  00023	89 08		 mov	 DWORD PTR [eax], ecx
; File D:\git\src\IBK\IBK_DRFN\ProjSrc\SrcChartEx\ChartAddIn\ChartDesignPropertyAddIn\ChartDesignPropertyAddIn\SuperGridCtrl.h

; 45   : 		return 1;

  00025	b8 01 00 00 00	 mov	 eax, 1

; 46   : 	}

  0002a	8b e5		 mov	 esp, ebp
  0002c	5d		 pop	 ebp
  0002d	c2 08 00	 ret	 8
$LN7@GetControl:

; 41   : 		{
; 42   : 			controlType = edit;//default;

  00030	8b 45 0c	 mov	 eax, DWORD PTR _controlType$[ebp]
  00033	c7 00 00 00 00
	00		 mov	 DWORD PTR [eax], 0

; 43   : 			return 0;

  00039	33 c0		 xor	 eax, eax

; 46   : 	}

  0003b	8b e5		 mov	 esp, ebp
  0003d	5d		 pop	 ebp
  0003e	c2 08 00	 ret	 8
?GetControlType@CItemInfo@@QBEHHAAW4CONTROLTYPE@1@@Z ENDP ; CItemInfo::GetControlType
_TEXT	ENDS
; Function compile flags: /Ogtp
; File D:\git\src\IBK\IBK_DRFN\ProjSrc\SrcChartEx\ChartAddIn\ChartDesignPropertyAddIn\ChartDesignPropertyAddIn\SuperGridCtrl.h
; File C:\Program Files (x86)\Microsoft Visual Studio\2019\Community\VC\Tools\MSVC\14.29.30133\atlmfc\include\afxtempl.h
; File D:\git\src\IBK\IBK_DRFN\ProjSrc\SrcChartEx\ChartAddIn\ChartDesignPropertyAddIn\ChartDesignPropertyAddIn\SuperGridCtrl.h
; File C:\Program Files (x86)\Microsoft Visual Studio\2019\Community\VC\Tools\MSVC\14.29.30133\atlmfc\include\afxtempl.h
; File D:\git\src\IBK\IBK_DRFN\ProjSrc\SrcChartEx\ChartAddIn\ChartDesignPropertyAddIn\ChartDesignPropertyAddIn\SuperGridCtrl.h
;	COMDAT ??0CItemInfo@@QAE@XZ
_TEXT	SEGMENT
_this$ = -16						; size = 4
__$EHRec$ = -12						; size = 12
??0CItemInfo@@QAE@XZ PROC				; CItemInfo::CItemInfo, COMDAT
; _this$ = ecx

; 14   : 	CItemInfo():m_bCheck(0),m_iImage((const int)-1),m_lParam(NULL),m_clf((COLORREF)-1){};

  00000	55		 push	 ebp
  00001	8b ec		 mov	 ebp, esp
  00003	6a ff		 push	 -1
  00005	68 00 00 00 00	 push	 __ehhandler$??0CItemInfo@@QAE@XZ
  0000a	64 a1 00 00 00
	00		 mov	 eax, DWORD PTR fs:0
  00010	50		 push	 eax
  00011	51		 push	 ecx
  00012	56		 push	 esi
  00013	a1 00 00 00 00	 mov	 eax, DWORD PTR ___security_cookie
  00018	33 c5		 xor	 eax, ebp
  0001a	50		 push	 eax
  0001b	8d 45 f4	 lea	 eax, DWORD PTR __$EHRec$[ebp]
  0001e	64 a3 00 00 00
	00		 mov	 DWORD PTR fs:0, eax
  00024	8b f1		 mov	 esi, ecx
  00026	89 75 f0	 mov	 DWORD PTR _this$[ebp], esi
  00029	c7 06 00 00 00
	00		 mov	 DWORD PTR [esi], OFFSET ??_7CItemInfo@@6B@
  0002f	c7 46 04 00 00
	00 00		 mov	 DWORD PTR [esi+4], 0
; File C:\Program Files (x86)\Microsoft Visual Studio\2019\Community\VC\Tools\MSVC\14.29.30133\atlmfc\include\afxtempl.h

; 1403 : {

  00036	c7 46 0c 00 00
	00 00		 mov	 DWORD PTR [esi+12], OFFSET ??_7?$CMap@HHW4CONTROLTYPE@CItemInfo@@AAW412@@@6B@

; 1404 : 	ASSERT(nBlockSize > 0);
; 1405 : 
; 1406 : 	m_pHashTable = NULL;

  0003d	c7 46 10 00 00
	00 00		 mov	 DWORD PTR [esi+16], 0

; 1407 : 	m_nHashTableSize = 17;  // default size

  00044	c7 46 14 11 00
	00 00		 mov	 DWORD PTR [esi+20], 17	; 00000011H

; 1408 : 	m_nCount = 0;

  0004b	c7 46 18 00 00
	00 00		 mov	 DWORD PTR [esi+24], 0

; 1409 : 	m_pFreeList = NULL;

  00052	c7 46 1c 00 00
	00 00		 mov	 DWORD PTR [esi+28], 0

; 1410 : 	m_pBlocks = NULL;

  00059	c7 46 20 00 00
	00 00		 mov	 DWORD PTR [esi+32], 0

; 1411 : 	m_nBlockSize = nBlockSize;

  00060	c7 46 24 0a 00
	00 00		 mov	 DWORD PTR [esi+36], 10	; 0000000aH
; File D:\git\src\IBK\IBK_DRFN\ProjSrc\SrcChartEx\ChartAddIn\ChartDesignPropertyAddIn\ChartDesignPropertyAddIn\SuperGridCtrl.h

; 14   : 	CItemInfo():m_bCheck(0),m_iImage((const int)-1),m_lParam(NULL),m_clf((COLORREF)-1){};

  00067	c7 45 fc 00 00
	00 00		 mov	 DWORD PTR __$EHRec$[ebp+8], 0
; File C:\Program Files (x86)\Microsoft Visual Studio\2019\Community\VC\Tools\MSVC\14.29.30133\atlmfc\include\afxtempl.h

; 1403 : {

  0006e	c7 46 28 00 00
	00 00		 mov	 DWORD PTR [esi+40], OFFSET ??_7?$CMap@HHKAAK@@6B@

; 1404 : 	ASSERT(nBlockSize > 0);
; 1405 : 
; 1406 : 	m_pHashTable = NULL;

  00075	c7 46 2c 00 00
	00 00		 mov	 DWORD PTR [esi+44], 0

; 1407 : 	m_nHashTableSize = 17;  // default size

  0007c	c7 46 30 11 00
	00 00		 mov	 DWORD PTR [esi+48], 17	; 00000011H

; 1408 : 	m_nCount = 0;

  00083	c7 46 34 00 00
	00 00		 mov	 DWORD PTR [esi+52], 0

; 1409 : 	m_pFreeList = NULL;

  0008a	c7 46 38 00 00
	00 00		 mov	 DWORD PTR [esi+56], 0

; 1410 : 	m_pBlocks = NULL;

  00091	c7 46 3c 00 00
	00 00		 mov	 DWORD PTR [esi+60], 0

; 1411 : 	m_nBlockSize = nBlockSize;

  00098	c7 46 40 0a 00
	00 00		 mov	 DWORD PTR [esi+64], 10	; 0000000aH

; 1403 : {

  0009f	c7 46 44 00 00
	00 00		 mov	 DWORD PTR [esi+68], OFFSET ??_7?$CMap@HHPAVCStringList@@PAV1@@@6B@

; 1404 : 	ASSERT(nBlockSize > 0);
; 1405 : 
; 1406 : 	m_pHashTable = NULL;

  000a6	c7 46 48 00 00
	00 00		 mov	 DWORD PTR [esi+72], 0

; 1407 : 	m_nHashTableSize = 17;  // default size

  000ad	c7 46 4c 11 00
	00 00		 mov	 DWORD PTR [esi+76], 17	; 00000011H

; 1408 : 	m_nCount = 0;

  000b4	c7 46 50 00 00
	00 00		 mov	 DWORD PTR [esi+80], 0

; 1409 : 	m_pFreeList = NULL;

  000bb	c7 46 54 00 00
	00 00		 mov	 DWORD PTR [esi+84], 0

; 1410 : 	m_pBlocks = NULL;

  000c2	c7 46 58 00 00
	00 00		 mov	 DWORD PTR [esi+88], 0

; 1411 : 	m_nBlockSize = nBlockSize;

  000c9	c7 46 5c 0a 00
	00 00		 mov	 DWORD PTR [esi+92], 10	; 0000000aH
; File D:\git\src\IBK\IBK_DRFN\ProjSrc\SrcChartEx\ChartAddIn\ChartDesignPropertyAddIn\ChartDesignPropertyAddIn\SuperGridCtrl.h

; 14   : 	CItemInfo():m_bCheck(0),m_iImage((const int)-1),m_lParam(NULL),m_clf((COLORREF)-1){};

  000d0	8d 4e 60	 lea	 ecx, DWORD PTR [esi+96]
  000d3	ff 15 00 00 00
	00		 call	 DWORD PTR __imp_??0?$CStringT@DV?$StrTraitMFC_DLL@DV?$ChTraitsCRT@D@ATL@@@@@ATL@@QAE@XZ
  000d9	8d 4e 64	 lea	 ecx, DWORD PTR [esi+100]
  000dc	c6 45 fc 03	 mov	 BYTE PTR __$EHRec$[ebp+8], 3
  000e0	e8 00 00 00 00	 call	 ??0CStringArray@@QAE@XZ	; CStringArray::CStringArray
  000e5	c7 46 78 00 00
	00 00		 mov	 DWORD PTR [esi+120], 0
  000ec	8b c6		 mov	 eax, esi
  000ee	c7 46 7c ff ff
	ff ff		 mov	 DWORD PTR [esi+124], -1
  000f5	c7 86 80 00 00
	00 ff ff ff ff	 mov	 DWORD PTR [esi+128], -1
  000ff	8b 4d f4	 mov	 ecx, DWORD PTR __$EHRec$[ebp]
  00102	64 89 0d 00 00
	00 00		 mov	 DWORD PTR fs:0, ecx
  00109	59		 pop	 ecx
  0010a	5e		 pop	 esi
  0010b	8b e5		 mov	 esp, ebp
  0010d	5d		 pop	 ebp
  0010e	c3		 ret	 0
_TEXT	ENDS
;	COMDAT text$x
text$x	SEGMENT
__unwindfunclet$??0CItemInfo@@QAE@XZ$0:
  00000	8b 4d f0	 mov	 ecx, DWORD PTR _this$[ebp]
  00003	83 c1 0c	 add	 ecx, 12			; 0000000cH
  00006	e9 00 00 00 00	 jmp	 ??1?$CMap@HHW4CONTROLTYPE@CItemInfo@@AAW412@@@UAE@XZ ; CMap<int,int,enum CItemInfo::CONTROLTYPE,enum CItemInfo::CONTROLTYPE &>::~CMap<int,int,enum CItemInfo::CONTROLTYPE,enum CItemInfo::CONTROLTYPE &>
__unwindfunclet$??0CItemInfo@@QAE@XZ$1:
  0000b	8b 4d f0	 mov	 ecx, DWORD PTR _this$[ebp]
  0000e	83 c1 28	 add	 ecx, 40			; 00000028H
  00011	e9 00 00 00 00	 jmp	 ??1?$CMap@HHKAAK@@UAE@XZ ; CMap<int,int,unsigned long,unsigned long &>::~CMap<int,int,unsigned long,unsigned long &>
__unwindfunclet$??0CItemInfo@@QAE@XZ$2:
  00016	8b 4d f0	 mov	 ecx, DWORD PTR _this$[ebp]
  00019	83 c1 44	 add	 ecx, 68			; 00000044H
  0001c	e9 00 00 00 00	 jmp	 ??1?$CMap@HHPAVCStringList@@PAV1@@@UAE@XZ ; CMap<int,int,CStringList *,CStringList *>::~CMap<int,int,CStringList *,CStringList *>
__unwindfunclet$??0CItemInfo@@QAE@XZ$3:
  00021	8b 4d f0	 mov	 ecx, DWORD PTR _this$[ebp]
  00024	83 c1 60	 add	 ecx, 96			; 00000060H
  00027	ff 25 00 00 00
	00		 jmp	 DWORD PTR __imp_??1?$CStringT@DV?$StrTraitMFC_DLL@DV?$ChTraitsCRT@D@ATL@@@@@ATL@@QAE@XZ
  0002d	cc		 int	 3
  0002e	cc		 int	 3
  0002f	cc		 int	 3
  00030	cc		 int	 3
  00031	cc		 int	 3
__ehhandler$??0CItemInfo@@QAE@XZ:
  00032	90		 npad	 1
  00033	90		 npad	 1
  00034	8b 54 24 08	 mov	 edx, DWORD PTR [esp+8]
  00038	8d 42 0c	 lea	 eax, DWORD PTR [edx+12]
  0003b	8b 4a f4	 mov	 ecx, DWORD PTR [edx-12]
  0003e	33 c8		 xor	 ecx, eax
  00040	e8 00 00 00 00	 call	 @__security_check_cookie@4
  00045	b8 00 00 00 00	 mov	 eax, OFFSET __ehfuncinfo$??0CItemInfo@@QAE@XZ
  0004a	e9 00 00 00 00	 jmp	 ___CxxFrameHandler3
text$x	ENDS
??0CItemInfo@@QAE@XZ ENDP				; CItemInfo::CItemInfo
; Function compile flags: /Ogtp
; File C:\Program Files (x86)\Microsoft Visual Studio\2019\Community\VC\Tools\MSVC\14.29.30133\atlmfc\include\afxwin2.inl
;	COMDAT ?EndModalState@CWnd@@UAEXXZ
_TEXT	SEGMENT
?EndModalState@CWnd@@UAEXXZ PROC			; CWnd::EndModalState, COMDAT
; _this$ = ecx

; 567  : 	{ ::EnableWindow(m_hWnd, TRUE); }

  00000	6a 01		 push	 1
  00002	ff 71 20	 push	 DWORD PTR [ecx+32]
  00005	ff 15 00 00 00
	00		 call	 DWORD PTR __imp__EnableWindow@8
  0000b	c3		 ret	 0
?EndModalState@CWnd@@UAEXXZ ENDP			; CWnd::EndModalState
_TEXT	ENDS
; Function compile flags: /Ogtp
; File C:\Program Files (x86)\Microsoft Visual Studio\2019\Community\VC\Tools\MSVC\14.29.30133\atlmfc\include\afxwin2.inl
;	COMDAT ?BeginModalState@CWnd@@UAEXXZ
_TEXT	SEGMENT
?BeginModalState@CWnd@@UAEXXZ PROC			; CWnd::BeginModalState, COMDAT
; _this$ = ecx

; 565  : 	{ ::EnableWindow(m_hWnd, FALSE); }

  00000	6a 00		 push	 0
  00002	ff 71 20	 push	 DWORD PTR [ecx+32]
  00005	ff 15 00 00 00
	00		 call	 DWORD PTR __imp__EnableWindow@8
  0000b	c3		 ret	 0
?BeginModalState@CWnd@@UAEXXZ ENDP			; CWnd::BeginModalState
_TEXT	ENDS
; Function compile flags: /Ogtp
; File C:\Program Files (x86)\Microsoft Visual Studio\2019\Community\VC\Tools\MSVC\14.29.30133\atlmfc\include\afxwin2.inl
;	COMDAT ?DoDataExchange@CWnd@@MAEXPAVCDataExchange@@@Z
_TEXT	SEGMENT
___formal$ = 8						; size = 4
?DoDataExchange@CWnd@@MAEXPAVCDataExchange@@@Z PROC	; CWnd::DoDataExchange, COMDAT
; _this$ = ecx

; 561  : 	{ } // default does nothing

  00000	c2 04 00	 ret	 4
?DoDataExchange@CWnd@@MAEXPAVCDataExchange@@@Z ENDP	; CWnd::DoDataExchange
_TEXT	ENDS
; Function compile flags: /Ogtp
; File C:\Program Files (x86)\Microsoft Visual Studio\2019\Community\VC\Tools\MSVC\14.29.30133\atlmfc\include\afx.inl
;	COMDAT ?Dump@CObject@@UBEXAAVCDumpContext@@@Z
_TEXT	SEGMENT
___formal$ = 8						; size = 4
?Dump@CObject@@UBEXAAVCDumpContext@@@Z PROC		; CObject::Dump, COMDAT
; _this$ = ecx

; 122  : 	{ /* no dumping in release builds */ }

  00000	c2 04 00	 ret	 4
?Dump@CObject@@UBEXAAVCDumpContext@@@Z ENDP		; CObject::Dump
_TEXT	ENDS
; Function compile flags: /Ogtp
; File C:\Program Files (x86)\Microsoft Visual Studio\2019\Community\VC\Tools\MSVC\14.29.30133\atlmfc\include\afx.inl
;	COMDAT ?AssertValid@CObject@@UBEXXZ
_TEXT	SEGMENT
?AssertValid@CObject@@UBEXXZ PROC			; CObject::AssertValid, COMDAT
; _this$ = ecx

; 120  : 	{ /* no asserts in release builds */ }

  00000	c2 00 00	 ret	 0
?AssertValid@CObject@@UBEXXZ ENDP			; CObject::AssertValid
_TEXT	ENDS
; Function compile flags: /Ogtp
; File C:\Program Files (x86)\Microsoft Visual Studio\2019\Community\VC\Tools\MSVC\14.29.30133\atlmfc\include\afx.inl
;	COMDAT ?Serialize@CObject@@UAEXAAVCArchive@@@Z
_TEXT	SEGMENT
___formal$ = 8						; size = 4
?Serialize@CObject@@UAEXAAVCArchive@@@Z PROC		; CObject::Serialize, COMDAT
; _this$ = ecx

; 106  : 	{ /* CObject does not serialize anything by default */ }

  00000	c2 04 00	 ret	 4
?Serialize@CObject@@UAEXAAVCArchive@@@Z ENDP		; CObject::Serialize
_TEXT	ENDS
; Function compile flags: /Ogtp
; File C:\Program Files (x86)\Microsoft Visual Studio\2019\Community\VC\Tools\MSVC\14.29.30133\atlmfc\include\afx.inl
;	COMDAT ??3CObject@@SGXPAX@Z
_TEXT	SEGMENT
_p$ = 8							; size = 4
??3CObject@@SGXPAX@Z PROC				; CObject::operator delete, COMDAT

; 112  : 	{ ::operator delete(p); }

  00000	55		 push	 ebp
  00001	8b ec		 mov	 ebp, esp
  00003	ff 75 08	 push	 DWORD PTR _p$[ebp]
  00006	e8 00 00 00 00	 call	 ??3@YAXPAX@Z		; operator delete
  0000b	83 c4 04	 add	 esp, 4
  0000e	5d		 pop	 ebp
  0000f	c2 04 00	 ret	 4
??3CObject@@SGXPAX@Z ENDP				; CObject::operator delete
_TEXT	ENDS
; Function compile flags: /Ogtp
; File C:\Program Files (x86)\Microsoft Visual Studio\2019\Community\VC\Tools\MSVC\14.29.30133\atlmfc\include\afx.inl
;	COMDAT ??1CObject@@UAE@XZ
_TEXT	SEGMENT
??1CObject@@UAE@XZ PROC					; CObject::~CObject, COMDAT
; _this$ = ecx

; 104  : 	{ }

  00000	c2 00 00	 ret	 0
??1CObject@@UAE@XZ ENDP					; CObject::~CObject
_TEXT	ENDS
; Function compile flags: /Ogtp
; File D:\git\src\IBK\IBK_DRFN\ProjSrc\SrcChartEx\ChartAddIn\ChartDesignPropertyAddIn\ChartDesignPropertyAddIn\PacketSuperGrid.cpp
;	COMDAT ?__empty_global_delete@@YAXPAXI@Z
_TEXT	SEGMENT
___formal$ = 8						; size = 4
___formal$ = 12						; size = 4
?__empty_global_delete@@YAXPAXI@Z PROC			; __empty_global_delete, COMDAT

  00000	c2 00 00	 ret	 0
?__empty_global_delete@@YAXPAXI@Z ENDP			; __empty_global_delete
_TEXT	ENDS
; Function compile flags: /Ogtp
; File D:\git\src\IBK\IBK_DRFN\ProjSrc\SrcChartEx\ChartAddIn\ChartDesignPropertyAddIn\ChartDesignPropertyAddIn\PacketSuperGrid.cpp
;	COMDAT ?__empty_global_delete@@YAXPAX@Z
_TEXT	SEGMENT
___formal$ = 8						; size = 4
?__empty_global_delete@@YAXPAX@Z PROC			; __empty_global_delete, COMDAT

  00000	c2 00 00	 ret	 0
?__empty_global_delete@@YAXPAX@Z ENDP			; __empty_global_delete
_TEXT	ENDS
END
