; Listing generated by Microsoft (R) Optimizing Compiler Version 19.29.30145.0 

	TITLE	D:\git\src\IBK\IBK_DRFN\#DRfn-CS\_Obj\ChartDesignPropertyAddIn\PacketUserDefine.obj
	.686P
	.XMM
	include listing.inc
	.model	flat

INCLUDELIB MSVCRT
INCLUDELIB OLDNAMES

PUBLIC	?__empty_global_delete@@YAXPAX@Z		; __empty_global_delete
PUBLIC	?__empty_global_delete@@YAXPAXI@Z		; __empty_global_delete
PUBLIC	?Serialize@CObject@@UAEXAAVCArchive@@@Z		; CObject::Serialize
PUBLIC	?AssertValid@CObject@@UBEXXZ			; CObject::AssertValid
PUBLIC	?Dump@CObject@@UBEXAAVCDumpContext@@@Z		; CObject::Dump
PUBLIC	?DoDataExchange@CWnd@@MAEXPAVCDataExchange@@@Z	; CWnd::DoDataExchange
PUBLIC	?BeginModalState@CWnd@@UAEXXZ			; CWnd::BeginModalState
PUBLIC	?EndModalState@CWnd@@UAEXXZ			; CWnd::EndModalState
PUBLIC	?Create@CDialog@@UAEHIPAVCWnd@@@Z		; CDialog::Create
PUBLIC	??_GCComboBox@@UAEPAXI@Z			; CComboBox::`scalar deleting destructor'
PUBLIC	??0CPacketUserDefine@@QAE@PAUHWND__@@PAVCWnd@@@Z ; CPacketUserDefine::CPacketUserDefine
PUBLIC	?DoDataExchange@CPacketUserDefine@@MAEXPAVCDataExchange@@@Z ; CPacketUserDefine::DoDataExchange
PUBLIC	?OnSelchangePackettype@CPacketUserDefine@@IAEXXZ ; CPacketUserDefine::OnSelchangePackettype
PUBLIC	?GetThisMessageMap@CPacketUserDefine@@KGPBUAFX_MSGMAP@@XZ ; CPacketUserDefine::GetThisMessageMap
PUBLIC	?GetMessageMap@CPacketUserDefine@@MBEPBUAFX_MSGMAP@@XZ ; CPacketUserDefine::GetMessageMap
PUBLIC	?WhenPacketTypeisEtc@CPacketUserDefine@@AAEXXZ	; CPacketUserDefine::WhenPacketTypeisEtc
PUBLIC	?WhenPacketTypeisNumeral@CPacketUserDefine@@AAEXXZ ; CPacketUserDefine::WhenPacketTypeisNumeral
PUBLIC	?WhenPacketTypeisDataDate@CPacketUserDefine@@AAEXXZ ; CPacketUserDefine::WhenPacketTypeisDataDate
PUBLIC	??_GCPacketUserDefine@@UAEPAXI@Z		; CPacketUserDefine::`scalar deleting destructor'
PUBLIC	??_C@_00CNPNBAHC@@				; `string'
PUBLIC	??_7CComboBox@@6B@				; CComboBox::`vftable'
PUBLIC	??_R0?AVCObject@@@8				; CObject `RTTI Type Descriptor'
PUBLIC	??_R3CObject@@8					; CObject::`RTTI Class Hierarchy Descriptor'
PUBLIC	??_R2CObject@@8					; CObject::`RTTI Base Class Array'
PUBLIC	??_R1A@?0A@EA@CObject@@8			; CObject::`RTTI Base Class Descriptor at (0,-1,0,64)'
PUBLIC	??_R1A@?0A@EA@CWnd@@8				; CWnd::`RTTI Base Class Descriptor at (0,-1,0,64)'
PUBLIC	??_R0?AVCWnd@@@8				; CWnd `RTTI Type Descriptor'
PUBLIC	??_R3CWnd@@8					; CWnd::`RTTI Class Hierarchy Descriptor'
PUBLIC	??_R2CWnd@@8					; CWnd::`RTTI Base Class Array'
PUBLIC	??_R1A@?0A@EA@CCmdTarget@@8			; CCmdTarget::`RTTI Base Class Descriptor at (0,-1,0,64)'
PUBLIC	??_R0?AVCCmdTarget@@@8				; CCmdTarget `RTTI Type Descriptor'
PUBLIC	??_R3CCmdTarget@@8				; CCmdTarget::`RTTI Class Hierarchy Descriptor'
PUBLIC	??_R2CCmdTarget@@8				; CCmdTarget::`RTTI Base Class Array'
PUBLIC	??_R4CComboBox@@6B@				; CComboBox::`RTTI Complete Object Locator'
PUBLIC	??_R0?AVCComboBox@@@8				; CComboBox `RTTI Type Descriptor'
PUBLIC	??_R3CComboBox@@8				; CComboBox::`RTTI Class Hierarchy Descriptor'
PUBLIC	??_R2CComboBox@@8				; CComboBox::`RTTI Base Class Array'
PUBLIC	??_R1A@?0A@EA@CComboBox@@8			; CComboBox::`RTTI Base Class Descriptor at (0,-1,0,64)'
PUBLIC	??_R1A@?0A@EA@CDialog@@8			; CDialog::`RTTI Base Class Descriptor at (0,-1,0,64)'
PUBLIC	??_R0?AVCDialog@@@8				; CDialog `RTTI Type Descriptor'
PUBLIC	??_R3CDialog@@8					; CDialog::`RTTI Class Hierarchy Descriptor'
PUBLIC	??_R2CDialog@@8					; CDialog::`RTTI Base Class Array'
PUBLIC	??_7CPacketUserDefine@@6B@			; CPacketUserDefine::`vftable'
PUBLIC	??_C@_08DKDJLCMP@YYYYMMDD@			; `string'
PUBLIC	??_C@_06NFMEGGNP@YYMMDD@			; `string'
PUBLIC	??_C@_06EBMMBHJD@YYYYMM@			; `string'
PUBLIC	??_C@_04IHEOMKKL@YYMM@				; `string'
PUBLIC	??_C@_04BDEGLLOH@MMDD@				; `string'
PUBLIC	??_C@_06LKFAFBM@MMDDHH@				; `string'
PUBLIC	??_C@_08KLIIINKM@MMDDHHMM@			; `string'
PUBLIC	??_C@_04MGPBCAHE@DDHH@				; `string'
PUBLIC	??_C@_06ENKIHFBA@DDHHMM@			; `string'
PUBLIC	??_C@_06MAANBBPI@HHMMSS@			; `string'
PUBLIC	??_C@_08INACILNL@x?50?40001@			; `string'
PUBLIC	??_C@_07ECEDBPGE@x?50?4001@			; `string'
PUBLIC	??_C@_06LJECDJFC@x?50?401@			; `string'
PUBLIC	??_C@_05GMCIGKAN@x?50?41@			; `string'
PUBLIC	??_C@_03IOCAOJMC@x?51@				; `string'
PUBLIC	??_C@_05NLDHLCFD@x?5100@			; `string'
PUBLIC	??_C@_06CNPPABAP@x?51000@			; `string'
PUBLIC	??_C@_08LLCNCMF@x?5100000@			; `string'
PUBLIC	??_C@_0M@KADAKFP@x?5100000000@			; `string'
PUBLIC	??_C@_07GNCPKCAG@x?50?401?$CF@			; `string'
PUBLIC	??_C@_06JGCOIEDA@x?50?41?$CF@			; `string'
PUBLIC	??_C@_04JNBHFDJC@x?51?$CF@			; `string'
PUBLIC	??_C@_01EPMOAMKG@$@				; `string'
PUBLIC	??_C@_02KGFALILJ@?$KB?M@			; `string'
PUBLIC	??_C@_02LPELIJPI@?$KB?L@			; `string'
PUBLIC	??_R4CPacketUserDefine@@6B@			; CPacketUserDefine::`RTTI Complete Object Locator'
PUBLIC	??_R0?AVCPacketUserDefine@@@8			; CPacketUserDefine `RTTI Type Descriptor'
PUBLIC	??_R3CPacketUserDefine@@8			; CPacketUserDefine::`RTTI Class Hierarchy Descriptor'
PUBLIC	??_R2CPacketUserDefine@@8			; CPacketUserDefine::`RTTI Base Class Array'
PUBLIC	??_R1A@?0A@EA@CPacketUserDefine@@8		; CPacketUserDefine::`RTTI Base Class Descriptor at (0,-1,0,64)'
EXTRN	??3@YAXPAX@Z:PROC				; operator delete
EXTRN	?__global_delete@@YAXPAXI@Z:PROC		; __global_delete
EXTRN	__imp__SendMessageA@16:PROC
EXTRN	__imp__EnableWindow@8:PROC
EXTRN	__imp_??0?$CStringT@DV?$StrTraitMFC_DLL@DV?$ChTraitsCRT@D@ATL@@@@@ATL@@QAE@XZ:PROC
EXTRN	__imp_??1?$CStringT@DV?$StrTraitMFC_DLL@DV?$ChTraitsCRT@D@ATL@@@@@ATL@@QAE@XZ:PROC
EXTRN	__imp_??4?$CStringT@DV?$StrTraitMFC_DLL@DV?$ChTraitsCRT@D@ATL@@@@@ATL@@QAEAAV01@PBD@Z:PROC
EXTRN	?DDX_Text@@YGXPAVCDataExchange@@HAAV?$CStringT@DV?$StrTraitMFC_DLL@DV?$ChTraitsCRT@D@ATL@@@@@ATL@@@Z:PROC ; DDX_Text
EXTRN	?DDX_Check@@YGXPAVCDataExchange@@HAAH@Z:PROC	; DDX_Check
EXTRN	?DDX_CBString@@YGXPAVCDataExchange@@HAAV?$CStringT@DV?$StrTraitMFC_DLL@DV?$ChTraitsCRT@D@ATL@@@@@ATL@@@Z:PROC ; DDX_CBString
EXTRN	?DDX_CBIndex@@YGXPAVCDataExchange@@HAAH@Z:PROC	; DDX_CBIndex
EXTRN	?DDX_Control@@YGXPAVCDataExchange@@HAAVCWnd@@@Z:PROC ; DDX_Control
EXTRN	?OnCmdMsg@CCmdTarget@@UAEHIHPAXPAUAFX_CMDHANDLERINFO@@@Z:PROC ; CCmdTarget::OnCmdMsg
EXTRN	?IsInvokeAllowed@CCmdTarget@@UAEHJ@Z:PROC	; CCmdTarget::IsInvokeAllowed
EXTRN	?GetDispatchIID@CCmdTarget@@UAEHPAU_GUID@@@Z:PROC ; CCmdTarget::GetDispatchIID
EXTRN	?GetTypeInfoCount@CCmdTarget@@UAEIXZ:PROC	; CCmdTarget::GetTypeInfoCount
EXTRN	?GetTypeLibCache@CCmdTarget@@UAEPAVCTypeLibCache@@XZ:PROC ; CCmdTarget::GetTypeLibCache
EXTRN	?GetTypeLib@CCmdTarget@@UAEJKPAPAUITypeLib@@@Z:PROC ; CCmdTarget::GetTypeLib
EXTRN	?GetCommandMap@CCmdTarget@@MBEPBUAFX_OLECMDMAP@@XZ:PROC ; CCmdTarget::GetCommandMap
EXTRN	?GetDispatchMap@CCmdTarget@@MBEPBUAFX_DISPMAP@@XZ:PROC ; CCmdTarget::GetDispatchMap
EXTRN	?GetConnectionMap@CCmdTarget@@MBEPBUAFX_CONNECTIONMAP@@XZ:PROC ; CCmdTarget::GetConnectionMap
EXTRN	?GetEventSinkMap@CCmdTarget@@MBEPBUAFX_EVENTSINKMAP@@XZ:PROC ; CCmdTarget::GetEventSinkMap
EXTRN	?OnCreateAggregates@CCmdTarget@@UAEHXZ:PROC	; CCmdTarget::OnCreateAggregates
EXTRN	?GetInterfaceHook@CCmdTarget@@UAEPAUIUnknown@@PBX@Z:PROC ; CCmdTarget::GetInterfaceHook
EXTRN	?GetExtraConnectionPoints@CCmdTarget@@MAEHPAVCPtrArray@@@Z:PROC ; CCmdTarget::GetExtraConnectionPoints
EXTRN	?GetConnectionHook@CCmdTarget@@MAEPAUIConnectionPoint@@ABU_GUID@@@Z:PROC ; CCmdTarget::GetConnectionHook
EXTRN	??0CWnd@@QAE@XZ:PROC				; CWnd::CWnd
EXTRN	?PreSubclassWindow@CWnd@@UAEXXZ:PROC		; CWnd::PreSubclassWindow
EXTRN	?Create@CWnd@@UAEHPBD0KABUtagRECT@@PAV1@IPAUCCreateContext@@@Z:PROC ; CWnd::Create
EXTRN	?CreateEx@CWnd@@UAEHKPBD0KHHHHPAUHWND__@@PAUHMENU__@@PAX@Z:PROC ; CWnd::CreateEx
EXTRN	?CreateEx@CWnd@@UAEHKPBD0KABUtagRECT@@PAV1@IPAX@Z:PROC ; CWnd::CreateEx
EXTRN	?DestroyWindow@CWnd@@UAEHXZ:PROC		; CWnd::DestroyWindow
EXTRN	?PreCreateWindow@CWnd@@UAEHAAUtagCREATESTRUCTA@@@Z:PROC ; CWnd::PreCreateWindow
EXTRN	?CalcWindowRect@CWnd@@UAEXPAUtagRECT@@I@Z:PROC	; CWnd::CalcWindowRect
EXTRN	?GetDlgItem@CWnd@@QBEPAV1@H@Z:PROC		; CWnd::GetDlgItem
EXTRN	?GetMenu@CWnd@@UBEPAVCMenu@@XZ:PROC		; CWnd::GetMenu
EXTRN	?SetMenu@CWnd@@UAEHPAVCMenu@@@Z:PROC		; CWnd::SetMenu
EXTRN	?OnToolHitTest@CWnd@@UBEHVCPoint@@PAUtagTOOLINFOA@@@Z:PROC ; CWnd::OnToolHitTest
EXTRN	?GetScrollBarCtrl@CWnd@@UBEPAVCScrollBar@@H@Z:PROC ; CWnd::GetScrollBarCtrl
EXTRN	?WinHelpA@CWnd@@UAEXKI@Z:PROC			; CWnd::WinHelpA
EXTRN	?HtmlHelpA@CWnd@@UAEXKI@Z:PROC			; CWnd::HtmlHelpA
EXTRN	?WinHelpInternal@CWnd@@UAEXKI@Z:PROC		; CWnd::WinHelpInternal
EXTRN	?ContinueModal@CWnd@@UAEHXZ:PROC		; CWnd::ContinueModal
EXTRN	?EndModalLoop@CWnd@@UAEXH@Z:PROC		; CWnd::EndModalLoop
EXTRN	?OnDrawIconicThumbnailOrLivePreview@CWnd@@UAEXAAVCDC@@VCRect@@VCSize@@HAAH@Z:PROC ; CWnd::OnDrawIconicThumbnailOrLivePreview
EXTRN	?GetInterfaceMap@CWnd@@MBEPBUAFX_INTERFACEMAP@@XZ:PROC ; CWnd::GetInterfaceMap
EXTRN	?EnsureStdObj@CWnd@@UAEJXZ:PROC			; CWnd::EnsureStdObj
EXTRN	?get_accParent@CWnd@@UAEJPAPAUIDispatch@@@Z:PROC ; CWnd::get_accParent
EXTRN	?get_accChildCount@CWnd@@UAEJPAJ@Z:PROC		; CWnd::get_accChildCount
EXTRN	?get_accChild@CWnd@@UAEJUtagVARIANT@@PAPAUIDispatch@@@Z:PROC ; CWnd::get_accChild
EXTRN	?get_accName@CWnd@@UAEJUtagVARIANT@@PAPA_W@Z:PROC ; CWnd::get_accName
EXTRN	?get_accValue@CWnd@@UAEJUtagVARIANT@@PAPA_W@Z:PROC ; CWnd::get_accValue
EXTRN	?get_accDescription@CWnd@@UAEJUtagVARIANT@@PAPA_W@Z:PROC ; CWnd::get_accDescription
EXTRN	?get_accRole@CWnd@@UAEJUtagVARIANT@@PAU2@@Z:PROC ; CWnd::get_accRole
EXTRN	?get_accState@CWnd@@UAEJUtagVARIANT@@PAU2@@Z:PROC ; CWnd::get_accState
EXTRN	?get_accHelp@CWnd@@UAEJUtagVARIANT@@PAPA_W@Z:PROC ; CWnd::get_accHelp
EXTRN	?get_accHelpTopic@CWnd@@UAEJPAPA_WUtagVARIANT@@PAJ@Z:PROC ; CWnd::get_accHelpTopic
EXTRN	?get_accKeyboardShortcut@CWnd@@UAEJUtagVARIANT@@PAPA_W@Z:PROC ; CWnd::get_accKeyboardShortcut
EXTRN	?get_accFocus@CWnd@@UAEJPAUtagVARIANT@@@Z:PROC	; CWnd::get_accFocus
EXTRN	?get_accSelection@CWnd@@UAEJPAUtagVARIANT@@@Z:PROC ; CWnd::get_accSelection
EXTRN	?get_accDefaultAction@CWnd@@UAEJUtagVARIANT@@PAPA_W@Z:PROC ; CWnd::get_accDefaultAction
EXTRN	?accSelect@CWnd@@UAEJJUtagVARIANT@@@Z:PROC	; CWnd::accSelect
EXTRN	?accLocation@CWnd@@UAEJPAJ000UtagVARIANT@@@Z:PROC ; CWnd::accLocation
EXTRN	?accNavigate@CWnd@@UAEJJUtagVARIANT@@PAU2@@Z:PROC ; CWnd::accNavigate
EXTRN	?accHitTest@CWnd@@UAEJJJPAUtagVARIANT@@@Z:PROC	; CWnd::accHitTest
EXTRN	?accDoDefaultAction@CWnd@@UAEJUtagVARIANT@@@Z:PROC ; CWnd::accDoDefaultAction
EXTRN	?put_accName@CWnd@@UAEJUtagVARIANT@@PA_W@Z:PROC	; CWnd::put_accName
EXTRN	?put_accValue@CWnd@@UAEJUtagVARIANT@@PA_W@Z:PROC ; CWnd::put_accValue
EXTRN	?SetProxy@CWnd@@UAEJPAUIAccessibleProxy@@@Z:PROC ; CWnd::SetProxy
EXTRN	?CreateAccessibleProxy@CWnd@@UAEJIJPAJ@Z:PROC	; CWnd::CreateAccessibleProxy
EXTRN	?OnCommand@CWnd@@MAEHIJ@Z:PROC			; CWnd::OnCommand
EXTRN	?OnNotify@CWnd@@MAEHIJPAJ@Z:PROC		; CWnd::OnNotify
EXTRN	?GetSuperWndProcAddr@CWnd@@MAEPAP6GJPAUHWND__@@IIJ@ZXZ:PROC ; CWnd::GetSuperWndProcAddr
EXTRN	?PreTranslateMessage@CWnd@@UAEHPAUtagMSG@@@Z:PROC ; CWnd::PreTranslateMessage
EXTRN	?OnAmbientProperty@CWnd@@UAEHPAVCOleControlSite@@JPAUtagVARIANT@@@Z:PROC ; CWnd::OnAmbientProperty
EXTRN	?WindowProc@CWnd@@MAEJIIJ@Z:PROC		; CWnd::WindowProc
EXTRN	?OnWndMsg@CWnd@@MAEHIIJPAJ@Z:PROC		; CWnd::OnWndMsg
EXTRN	?DefWindowProcA@CWnd@@MAEJIIJ@Z:PROC		; CWnd::DefWindowProcA
EXTRN	?PostNcDestroy@CWnd@@MAEXXZ:PROC		; CWnd::PostNcDestroy
EXTRN	?OnChildNotify@CWnd@@MAEHIIJPAJ@Z:PROC		; CWnd::OnChildNotify
EXTRN	?OnTouchInputs@CWnd@@MAEHIPAUtagTOUCHINPUT@@@Z:PROC ; CWnd::OnTouchInputs
EXTRN	?OnTouchInput@CWnd@@MAEHVCPoint@@HHPAUtagTOUCHINPUT@@@Z:PROC ; CWnd::OnTouchInput
EXTRN	?GetGestureStatus@CWnd@@MAEKVCPoint@@@Z:PROC	; CWnd::GetGestureStatus
EXTRN	?OnGestureZoom@CWnd@@MAEHVCPoint@@J@Z:PROC	; CWnd::OnGestureZoom
EXTRN	?OnGesturePan@CWnd@@MAEHVCPoint@@0@Z:PROC	; CWnd::OnGesturePan
EXTRN	?OnGestureRotate@CWnd@@MAEHVCPoint@@N@Z:PROC	; CWnd::OnGestureRotate
EXTRN	?OnGestureTwoFingerTap@CWnd@@MAEHVCPoint@@@Z:PROC ; CWnd::OnGestureTwoFingerTap
EXTRN	?OnGesturePressAndTap@CWnd@@MAEHVCPoint@@J@Z:PROC ; CWnd::OnGesturePressAndTap
EXTRN	?ResizeDynamicLayout@CWnd@@MAEXXZ:PROC		; CWnd::ResizeDynamicLayout
EXTRN	?CheckAutoCenter@CWnd@@UAEHXZ:PROC		; CWnd::CheckAutoCenter
EXTRN	?IsFrameWnd@CWnd@@UBEHXZ:PROC			; CWnd::IsFrameWnd
EXTRN	?OnFinalRelease@CWnd@@UAEXXZ:PROC		; CWnd::OnFinalRelease
EXTRN	?CreateControlContainer@CWnd@@MAEHPAPAVCOleControlContainer@@@Z:PROC ; CWnd::CreateControlContainer
EXTRN	?CreateControlSite@CWnd@@MAEHPAVCOleControlContainer@@PAPAVCOleControlSite@@IABU_GUID@@@Z:PROC ; CWnd::CreateControlSite
EXTRN	?SetOccDialogInfo@CWnd@@MAEHPAU_AFX_OCC_DIALOG_INFO@@@Z:PROC ; CWnd::SetOccDialogInfo
EXTRN	?GetOccDialogInfo@CWnd@@MAEPAU_AFX_OCC_DIALOG_INFO@@XZ:PROC ; CWnd::GetOccDialogInfo
EXTRN	?GetMessageMap@CWnd@@MBEPBUAFX_MSGMAP@@XZ:PROC	; CWnd::GetMessageMap
EXTRN	?GetRuntimeClass@CDialog@@UBEPAUCRuntimeClass@@XZ:PROC ; CDialog::GetRuntimeClass
EXTRN	?Create@CDialog@@UAEHPBDPAVCWnd@@@Z:PROC	; CDialog::Create
EXTRN	?CreateIndirect@CDialog@@UAEHPBUDLGTEMPLATE@@PAVCWnd@@PAX@Z:PROC ; CDialog::CreateIndirect
EXTRN	?CreateIndirect@CDialog@@UAEHPAXPAVCWnd@@@Z:PROC ; CDialog::CreateIndirect
EXTRN	??0CDialog@@QAE@IPAVCWnd@@@Z:PROC		; CDialog::CDialog
EXTRN	?DoModal@CDialog@@UAEHXZ:PROC			; CDialog::DoModal
EXTRN	?OnInitDialog@CDialog@@UAEHXZ:PROC		; CDialog::OnInitDialog
EXTRN	?OnSetFont@CDialog@@UAEXPAVCFont@@@Z:PROC	; CDialog::OnSetFont
EXTRN	?OnOK@CDialog@@MAEXXZ:PROC			; CDialog::OnOK
EXTRN	?OnCancel@CDialog@@MAEXXZ:PROC			; CDialog::OnCancel
EXTRN	??1CDialog@@UAE@XZ:PROC				; CDialog::~CDialog
EXTRN	?PreTranslateMessage@CDialog@@UAEHPAUtagMSG@@@Z:PROC ; CDialog::PreTranslateMessage
EXTRN	?OnCmdMsg@CDialog@@UAEHIHPAXPAUAFX_CMDHANDLERINFO@@@Z:PROC ; CDialog::OnCmdMsg
EXTRN	?CheckAutoCenter@CDialog@@UAEHXZ:PROC		; CDialog::CheckAutoCenter
EXTRN	?SetOccDialogInfo@CDialog@@MAEHPAU_AFX_OCC_DIALOG_INFO@@@Z:PROC ; CDialog::SetOccDialogInfo
EXTRN	?GetOccDialogInfo@CDialog@@MAEPAU_AFX_OCC_DIALOG_INFO@@XZ:PROC ; CDialog::GetOccDialogInfo
EXTRN	?PreInitDialog@CDialog@@MAEXXZ:PROC		; CDialog::PreInitDialog
EXTRN	?GetThisMessageMap@CDialog@@KGPBUAFX_MSGMAP@@XZ:PROC ; CDialog::GetThisMessageMap
EXTRN	?GetRuntimeClass@CComboBox@@UBEPAUCRuntimeClass@@XZ:PROC ; CComboBox::GetRuntimeClass
EXTRN	?Create@CComboBox@@UAEHKABUtagRECT@@PAVCWnd@@I@Z:PROC ; CComboBox::Create
EXTRN	?DrawItem@CComboBox@@UAEXPAUtagDRAWITEMSTRUCT@@@Z:PROC ; CComboBox::DrawItem
EXTRN	?MeasureItem@CComboBox@@UAEXPAUtagMEASUREITEMSTRUCT@@@Z:PROC ; CComboBox::MeasureItem
EXTRN	?CompareItem@CComboBox@@UAEHPAUtagCOMPAREITEMSTRUCT@@@Z:PROC ; CComboBox::CompareItem
EXTRN	?DeleteItem@CComboBox@@UAEXPAUtagDELETEITEMSTRUCT@@@Z:PROC ; CComboBox::DeleteItem
EXTRN	??1CComboBox@@UAE@XZ:PROC			; CComboBox::~CComboBox
EXTRN	?OnChildNotify@CComboBox@@MAEHIIJPAJ@Z:PROC	; CComboBox::OnChildNotify
EXTRN	??_ECComboBox@@UAEPAXI@Z:PROC			; CComboBox::`vector deleting destructor'
EXTRN	?GetLanguageText@IMetaTable@@QAEPBDPAUHWND__@@W4E_CODEPAGE@1@PBDH@Z:PROC ; IMetaTable::GetLanguageText
EXTRN	??_ECPacketUserDefine@@UAEPAXI@Z:PROC		; CPacketUserDefine::`vector deleting destructor'
EXTRN	@__security_check_cookie@4:PROC
EXTRN	___CxxFrameHandler3:PROC
EXTRN	??_7type_info@@6B@:QWORD			; type_info::`vftable'
EXTRN	?g_iMetaTable@@3VIMetaTable@@A:BYTE		; g_iMetaTable
EXTRN	___security_cookie:DWORD
;	COMDAT ??_R1A@?0A@EA@CPacketUserDefine@@8
rdata$r	SEGMENT
??_R1A@?0A@EA@CPacketUserDefine@@8 DD FLAT:??_R0?AVCPacketUserDefine@@@8 ; CPacketUserDefine::`RTTI Base Class Descriptor at (0,-1,0,64)'
	DD	04H
	DD	00H
	DD	0ffffffffH
	DD	00H
	DD	040H
	DD	FLAT:??_R3CPacketUserDefine@@8
rdata$r	ENDS
;	COMDAT ??_R2CPacketUserDefine@@8
rdata$r	SEGMENT
??_R2CPacketUserDefine@@8 DD FLAT:??_R1A@?0A@EA@CPacketUserDefine@@8 ; CPacketUserDefine::`RTTI Base Class Array'
	DD	FLAT:??_R1A@?0A@EA@CDialog@@8
	DD	FLAT:??_R1A@?0A@EA@CWnd@@8
	DD	FLAT:??_R1A@?0A@EA@CCmdTarget@@8
	DD	FLAT:??_R1A@?0A@EA@CObject@@8
rdata$r	ENDS
;	COMDAT ??_R3CPacketUserDefine@@8
rdata$r	SEGMENT
??_R3CPacketUserDefine@@8 DD 00H			; CPacketUserDefine::`RTTI Class Hierarchy Descriptor'
	DD	00H
	DD	05H
	DD	FLAT:??_R2CPacketUserDefine@@8
rdata$r	ENDS
;	COMDAT ??_R0?AVCPacketUserDefine@@@8
data$rs	SEGMENT
??_R0?AVCPacketUserDefine@@@8 DD FLAT:??_7type_info@@6B@ ; CPacketUserDefine `RTTI Type Descriptor'
	DD	00H
	DB	'.?AVCPacketUserDefine@@', 00H
data$rs	ENDS
;	COMDAT ??_R4CPacketUserDefine@@6B@
rdata$r	SEGMENT
??_R4CPacketUserDefine@@6B@ DD 00H			; CPacketUserDefine::`RTTI Complete Object Locator'
	DD	00H
	DD	00H
	DD	FLAT:??_R0?AVCPacketUserDefine@@@8
	DD	FLAT:??_R3CPacketUserDefine@@8
rdata$r	ENDS
;	COMDAT ??_C@_02LPELIJPI@?$KB?L@
CONST	SEGMENT
??_C@_02LPELIJPI@?$KB?L@ DB 0a1H, 0ccH, 00H		; `string'
CONST	ENDS
;	COMDAT ??_C@_02KGFALILJ@?$KB?M@
CONST	SEGMENT
??_C@_02KGFALILJ@?$KB?M@ DB 0a1H, 0cdH, 00H		; `string'
CONST	ENDS
;	COMDAT ??_C@_01EPMOAMKG@$@
CONST	SEGMENT
??_C@_01EPMOAMKG@$@ DB '$', 00H				; `string'
CONST	ENDS
;	COMDAT ??_C@_04JNBHFDJC@x?51?$CF@
CONST	SEGMENT
??_C@_04JNBHFDJC@x?51?$CF@ DB 'x 1%', 00H		; `string'
CONST	ENDS
;	COMDAT ??_C@_06JGCOIEDA@x?50?41?$CF@
CONST	SEGMENT
??_C@_06JGCOIEDA@x?50?41?$CF@ DB 'x 0.1%', 00H		; `string'
CONST	ENDS
;	COMDAT ??_C@_07GNCPKCAG@x?50?401?$CF@
CONST	SEGMENT
??_C@_07GNCPKCAG@x?50?401?$CF@ DB 'x 0.01%', 00H	; `string'
CONST	ENDS
;	COMDAT ??_C@_0M@KADAKFP@x?5100000000@
CONST	SEGMENT
??_C@_0M@KADAKFP@x?5100000000@ DB 'x 100000000', 00H	; `string'
CONST	ENDS
;	COMDAT ??_C@_08LLCNCMF@x?5100000@
CONST	SEGMENT
??_C@_08LLCNCMF@x?5100000@ DB 'x 100000', 00H		; `string'
CONST	ENDS
;	COMDAT ??_C@_06CNPPABAP@x?51000@
CONST	SEGMENT
??_C@_06CNPPABAP@x?51000@ DB 'x 1000', 00H		; `string'
CONST	ENDS
;	COMDAT ??_C@_05NLDHLCFD@x?5100@
CONST	SEGMENT
??_C@_05NLDHLCFD@x?5100@ DB 'x 100', 00H		; `string'
CONST	ENDS
;	COMDAT ??_C@_03IOCAOJMC@x?51@
CONST	SEGMENT
??_C@_03IOCAOJMC@x?51@ DB 'x 1', 00H			; `string'
CONST	ENDS
;	COMDAT ??_C@_05GMCIGKAN@x?50?41@
CONST	SEGMENT
??_C@_05GMCIGKAN@x?50?41@ DB 'x 0.1', 00H		; `string'
CONST	ENDS
;	COMDAT ??_C@_06LJECDJFC@x?50?401@
CONST	SEGMENT
??_C@_06LJECDJFC@x?50?401@ DB 'x 0.01', 00H		; `string'
CONST	ENDS
;	COMDAT ??_C@_07ECEDBPGE@x?50?4001@
CONST	SEGMENT
??_C@_07ECEDBPGE@x?50?4001@ DB 'x 0.001', 00H		; `string'
CONST	ENDS
;	COMDAT ??_C@_08INACILNL@x?50?40001@
CONST	SEGMENT
??_C@_08INACILNL@x?50?40001@ DB 'x 0.0001', 00H		; `string'
CONST	ENDS
;	COMDAT ??_C@_06MAANBBPI@HHMMSS@
CONST	SEGMENT
??_C@_06MAANBBPI@HHMMSS@ DB 'HHMMSS', 00H		; `string'
CONST	ENDS
;	COMDAT ??_C@_06ENKIHFBA@DDHHMM@
CONST	SEGMENT
??_C@_06ENKIHFBA@DDHHMM@ DB 'DDHHMM', 00H		; `string'
CONST	ENDS
;	COMDAT ??_C@_04MGPBCAHE@DDHH@
CONST	SEGMENT
??_C@_04MGPBCAHE@DDHH@ DB 'DDHH', 00H			; `string'
CONST	ENDS
;	COMDAT ??_C@_08KLIIINKM@MMDDHHMM@
CONST	SEGMENT
??_C@_08KLIIINKM@MMDDHHMM@ DB 'MMDDHHMM', 00H		; `string'
CONST	ENDS
;	COMDAT ??_C@_06LKFAFBM@MMDDHH@
CONST	SEGMENT
??_C@_06LKFAFBM@MMDDHH@ DB 'MMDDHH', 00H		; `string'
CONST	ENDS
;	COMDAT ??_C@_04BDEGLLOH@MMDD@
CONST	SEGMENT
??_C@_04BDEGLLOH@MMDD@ DB 'MMDD', 00H			; `string'
CONST	ENDS
;	COMDAT ??_C@_04IHEOMKKL@YYMM@
CONST	SEGMENT
??_C@_04IHEOMKKL@YYMM@ DB 'YYMM', 00H			; `string'
CONST	ENDS
;	COMDAT ??_C@_06EBMMBHJD@YYYYMM@
CONST	SEGMENT
??_C@_06EBMMBHJD@YYYYMM@ DB 'YYYYMM', 00H		; `string'
CONST	ENDS
;	COMDAT ??_C@_06NFMEGGNP@YYMMDD@
CONST	SEGMENT
??_C@_06NFMEGGNP@YYMMDD@ DB 'YYMMDD', 00H		; `string'
CONST	ENDS
;	COMDAT ??_C@_08DKDJLCMP@YYYYMMDD@
CONST	SEGMENT
??_C@_08DKDJLCMP@YYYYMMDD@ DB 'YYYYMMDD', 00H		; `string'
CONST	ENDS
;	COMDAT ?messageMap@?1??GetThisMessageMap@CPacketUserDefine@@KGPBUAFX_MSGMAP@@XZ@4U3@B
CONST	SEGMENT
?messageMap@?1??GetThisMessageMap@CPacketUserDefine@@KGPBUAFX_MSGMAP@@XZ@4U3@B DD FLAT:?GetThisMessageMap@CDialog@@KGPBUAFX_MSGMAP@@XZ ; `CPacketUserDefine::GetThisMessageMap'::`2'::messageMap
	DD	FLAT:?_messageEntries@?1??GetThisMessageMap@CPacketUserDefine@@KGPBUAFX_MSGMAP@@XZ@4QBUAFX_MSGMAP_ENTRY@@B
CONST	ENDS
;	COMDAT ?_messageEntries@?1??GetThisMessageMap@CPacketUserDefine@@KGPBUAFX_MSGMAP@@XZ@4QBUAFX_MSGMAP_ENTRY@@B
CONST	SEGMENT
?_messageEntries@?1??GetThisMessageMap@CPacketUserDefine@@KGPBUAFX_MSGMAP@@XZ@4QBUAFX_MSGMAP_ENTRY@@B DD 0111H ; `CPacketUserDefine::GetThisMessageMap'::`2'::_messageEntries
	DD	01H
	DD	0272eH
	DD	0272eH
	DD	03aH
	DD	FLAT:?OnSelchangePackettype@CPacketUserDefine@@IAEXXZ
	DD	00H
	DD	00H
	DD	00H
	DD	00H
	DD	00H
	DD	00H
CONST	ENDS
;	COMDAT ??_7CPacketUserDefine@@6B@
CONST	SEGMENT
??_7CPacketUserDefine@@6B@ DD FLAT:??_R4CPacketUserDefine@@6B@ ; CPacketUserDefine::`vftable'
	DD	FLAT:?GetRuntimeClass@CDialog@@UBEPAUCRuntimeClass@@XZ
	DD	FLAT:??_ECPacketUserDefine@@UAEPAXI@Z
	DD	FLAT:?Serialize@CObject@@UAEXAAVCArchive@@@Z
	DD	FLAT:?AssertValid@CObject@@UBEXXZ
	DD	FLAT:?Dump@CObject@@UBEXAAVCDumpContext@@@Z
	DD	FLAT:?OnCmdMsg@CDialog@@UAEHIHPAXPAUAFX_CMDHANDLERINFO@@@Z
	DD	FLAT:?OnFinalRelease@CWnd@@UAEXXZ
	DD	FLAT:?IsInvokeAllowed@CCmdTarget@@UAEHJ@Z
	DD	FLAT:?GetDispatchIID@CCmdTarget@@UAEHPAU_GUID@@@Z
	DD	FLAT:?GetTypeInfoCount@CCmdTarget@@UAEIXZ
	DD	FLAT:?GetTypeLibCache@CCmdTarget@@UAEPAVCTypeLibCache@@XZ
	DD	FLAT:?GetTypeLib@CCmdTarget@@UAEJKPAPAUITypeLib@@@Z
	DD	FLAT:?GetMessageMap@CPacketUserDefine@@MBEPBUAFX_MSGMAP@@XZ
	DD	FLAT:?GetCommandMap@CCmdTarget@@MBEPBUAFX_OLECMDMAP@@XZ
	DD	FLAT:?GetDispatchMap@CCmdTarget@@MBEPBUAFX_DISPMAP@@XZ
	DD	FLAT:?GetConnectionMap@CCmdTarget@@MBEPBUAFX_CONNECTIONMAP@@XZ
	DD	FLAT:?GetInterfaceMap@CWnd@@MBEPBUAFX_INTERFACEMAP@@XZ
	DD	FLAT:?GetEventSinkMap@CCmdTarget@@MBEPBUAFX_EVENTSINKMAP@@XZ
	DD	FLAT:?OnCreateAggregates@CCmdTarget@@UAEHXZ
	DD	FLAT:?GetInterfaceHook@CCmdTarget@@UAEPAUIUnknown@@PBX@Z
	DD	FLAT:?GetExtraConnectionPoints@CCmdTarget@@MAEHPAVCPtrArray@@@Z
	DD	FLAT:?GetConnectionHook@CCmdTarget@@MAEPAUIConnectionPoint@@ABU_GUID@@@Z
	DD	FLAT:?PreSubclassWindow@CWnd@@UAEXXZ
	DD	FLAT:?Create@CWnd@@UAEHPBD0KABUtagRECT@@PAV1@IPAUCCreateContext@@@Z
	DD	FLAT:?CreateEx@CWnd@@UAEHKPBD0KABUtagRECT@@PAV1@IPAX@Z
	DD	FLAT:?CreateEx@CWnd@@UAEHKPBD0KHHHHPAUHWND__@@PAUHMENU__@@PAX@Z
	DD	FLAT:?DestroyWindow@CWnd@@UAEHXZ
	DD	FLAT:?PreCreateWindow@CWnd@@UAEHAAUtagCREATESTRUCTA@@@Z
	DD	FLAT:?CalcWindowRect@CWnd@@UAEXPAUtagRECT@@I@Z
	DD	FLAT:?GetMenu@CWnd@@UBEPAVCMenu@@XZ
	DD	FLAT:?SetMenu@CWnd@@UAEHPAVCMenu@@@Z
	DD	FLAT:?OnToolHitTest@CWnd@@UBEHVCPoint@@PAUtagTOOLINFOA@@@Z
	DD	FLAT:?GetScrollBarCtrl@CWnd@@UBEPAVCScrollBar@@H@Z
	DD	FLAT:?WinHelpA@CWnd@@UAEXKI@Z
	DD	FLAT:?HtmlHelpA@CWnd@@UAEXKI@Z
	DD	FLAT:?WinHelpInternal@CWnd@@UAEXKI@Z
	DD	FLAT:?ContinueModal@CWnd@@UAEHXZ
	DD	FLAT:?EndModalLoop@CWnd@@UAEXH@Z
	DD	FLAT:?OnDrawIconicThumbnailOrLivePreview@CWnd@@UAEXAAVCDC@@VCRect@@VCSize@@HAAH@Z
	DD	FLAT:?EnsureStdObj@CWnd@@UAEJXZ
	DD	FLAT:?get_accParent@CWnd@@UAEJPAPAUIDispatch@@@Z
	DD	FLAT:?get_accChildCount@CWnd@@UAEJPAJ@Z
	DD	FLAT:?get_accChild@CWnd@@UAEJUtagVARIANT@@PAPAUIDispatch@@@Z
	DD	FLAT:?get_accName@CWnd@@UAEJUtagVARIANT@@PAPA_W@Z
	DD	FLAT:?get_accValue@CWnd@@UAEJUtagVARIANT@@PAPA_W@Z
	DD	FLAT:?get_accDescription@CWnd@@UAEJUtagVARIANT@@PAPA_W@Z
	DD	FLAT:?get_accRole@CWnd@@UAEJUtagVARIANT@@PAU2@@Z
	DD	FLAT:?get_accState@CWnd@@UAEJUtagVARIANT@@PAU2@@Z
	DD	FLAT:?get_accHelp@CWnd@@UAEJUtagVARIANT@@PAPA_W@Z
	DD	FLAT:?get_accHelpTopic@CWnd@@UAEJPAPA_WUtagVARIANT@@PAJ@Z
	DD	FLAT:?get_accKeyboardShortcut@CWnd@@UAEJUtagVARIANT@@PAPA_W@Z
	DD	FLAT:?get_accFocus@CWnd@@UAEJPAUtagVARIANT@@@Z
	DD	FLAT:?get_accSelection@CWnd@@UAEJPAUtagVARIANT@@@Z
	DD	FLAT:?get_accDefaultAction@CWnd@@UAEJUtagVARIANT@@PAPA_W@Z
	DD	FLAT:?accSelect@CWnd@@UAEJJUtagVARIANT@@@Z
	DD	FLAT:?accLocation@CWnd@@UAEJPAJ000UtagVARIANT@@@Z
	DD	FLAT:?accNavigate@CWnd@@UAEJJUtagVARIANT@@PAU2@@Z
	DD	FLAT:?accHitTest@CWnd@@UAEJJJPAUtagVARIANT@@@Z
	DD	FLAT:?accDoDefaultAction@CWnd@@UAEJUtagVARIANT@@@Z
	DD	FLAT:?put_accName@CWnd@@UAEJUtagVARIANT@@PA_W@Z
	DD	FLAT:?put_accValue@CWnd@@UAEJUtagVARIANT@@PA_W@Z
	DD	FLAT:?SetProxy@CWnd@@UAEJPAUIAccessibleProxy@@@Z
	DD	FLAT:?CreateAccessibleProxy@CWnd@@UAEJIJPAJ@Z
	DD	FLAT:?OnCommand@CWnd@@MAEHIJ@Z
	DD	FLAT:?OnNotify@CWnd@@MAEHIJPAJ@Z
	DD	FLAT:?GetSuperWndProcAddr@CWnd@@MAEPAP6GJPAUHWND__@@IIJ@ZXZ
	DD	FLAT:?DoDataExchange@CPacketUserDefine@@MAEXPAVCDataExchange@@@Z
	DD	FLAT:?BeginModalState@CWnd@@UAEXXZ
	DD	FLAT:?EndModalState@CWnd@@UAEXXZ
	DD	FLAT:?PreTranslateMessage@CDialog@@UAEHPAUtagMSG@@@Z
	DD	FLAT:?OnAmbientProperty@CWnd@@UAEHPAVCOleControlSite@@JPAUtagVARIANT@@@Z
	DD	FLAT:?WindowProc@CWnd@@MAEJIIJ@Z
	DD	FLAT:?OnWndMsg@CWnd@@MAEHIIJPAJ@Z
	DD	FLAT:?DefWindowProcA@CWnd@@MAEJIIJ@Z
	DD	FLAT:?PostNcDestroy@CWnd@@MAEXXZ
	DD	FLAT:?OnChildNotify@CWnd@@MAEHIIJPAJ@Z
	DD	FLAT:?OnTouchInputs@CWnd@@MAEHIPAUtagTOUCHINPUT@@@Z
	DD	FLAT:?OnTouchInput@CWnd@@MAEHVCPoint@@HHPAUtagTOUCHINPUT@@@Z
	DD	FLAT:?GetGestureStatus@CWnd@@MAEKVCPoint@@@Z
	DD	FLAT:?OnGestureZoom@CWnd@@MAEHVCPoint@@J@Z
	DD	FLAT:?OnGesturePan@CWnd@@MAEHVCPoint@@0@Z
	DD	FLAT:?OnGestureRotate@CWnd@@MAEHVCPoint@@N@Z
	DD	FLAT:?OnGestureTwoFingerTap@CWnd@@MAEHVCPoint@@@Z
	DD	FLAT:?OnGesturePressAndTap@CWnd@@MAEHVCPoint@@J@Z
	DD	FLAT:?ResizeDynamicLayout@CWnd@@MAEXXZ
	DD	FLAT:?CheckAutoCenter@CDialog@@UAEHXZ
	DD	FLAT:?IsFrameWnd@CWnd@@UBEHXZ
	DD	FLAT:?CreateControlContainer@CWnd@@MAEHPAPAVCOleControlContainer@@@Z
	DD	FLAT:?CreateControlSite@CWnd@@MAEHPAVCOleControlContainer@@PAPAVCOleControlSite@@IABU_GUID@@@Z
	DD	FLAT:?SetOccDialogInfo@CDialog@@MAEHPAU_AFX_OCC_DIALOG_INFO@@@Z
	DD	FLAT:?GetOccDialogInfo@CDialog@@MAEPAU_AFX_OCC_DIALOG_INFO@@XZ
	DD	FLAT:?Create@CDialog@@UAEHIPAVCWnd@@@Z
	DD	FLAT:?Create@CDialog@@UAEHPBDPAVCWnd@@@Z
	DD	FLAT:?CreateIndirect@CDialog@@UAEHPAXPAVCWnd@@@Z
	DD	FLAT:?CreateIndirect@CDialog@@UAEHPBUDLGTEMPLATE@@PAVCWnd@@PAX@Z
	DD	FLAT:?DoModal@CDialog@@UAEHXZ
	DD	FLAT:?OnInitDialog@CDialog@@UAEHXZ
	DD	FLAT:?OnSetFont@CDialog@@UAEXPAVCFont@@@Z
	DD	FLAT:?OnOK@CDialog@@MAEXXZ
	DD	FLAT:?OnCancel@CDialog@@MAEXXZ
	DD	FLAT:?PreInitDialog@CDialog@@MAEXXZ
CONST	ENDS
;	COMDAT ??_R2CDialog@@8
rdata$r	SEGMENT
??_R2CDialog@@8 DD FLAT:??_R1A@?0A@EA@CDialog@@8	; CDialog::`RTTI Base Class Array'
	DD	FLAT:??_R1A@?0A@EA@CWnd@@8
	DD	FLAT:??_R1A@?0A@EA@CCmdTarget@@8
	DD	FLAT:??_R1A@?0A@EA@CObject@@8
rdata$r	ENDS
;	COMDAT ??_R3CDialog@@8
rdata$r	SEGMENT
??_R3CDialog@@8 DD 00H					; CDialog::`RTTI Class Hierarchy Descriptor'
	DD	00H
	DD	04H
	DD	FLAT:??_R2CDialog@@8
rdata$r	ENDS
;	COMDAT ??_R0?AVCDialog@@@8
data$rs	SEGMENT
??_R0?AVCDialog@@@8 DD FLAT:??_7type_info@@6B@		; CDialog `RTTI Type Descriptor'
	DD	00H
	DB	'.?AVCDialog@@', 00H
data$rs	ENDS
;	COMDAT ??_R1A@?0A@EA@CDialog@@8
rdata$r	SEGMENT
??_R1A@?0A@EA@CDialog@@8 DD FLAT:??_R0?AVCDialog@@@8	; CDialog::`RTTI Base Class Descriptor at (0,-1,0,64)'
	DD	03H
	DD	00H
	DD	0ffffffffH
	DD	00H
	DD	040H
	DD	FLAT:??_R3CDialog@@8
rdata$r	ENDS
;	COMDAT ??_R1A@?0A@EA@CComboBox@@8
rdata$r	SEGMENT
??_R1A@?0A@EA@CComboBox@@8 DD FLAT:??_R0?AVCComboBox@@@8 ; CComboBox::`RTTI Base Class Descriptor at (0,-1,0,64)'
	DD	03H
	DD	00H
	DD	0ffffffffH
	DD	00H
	DD	040H
	DD	FLAT:??_R3CComboBox@@8
rdata$r	ENDS
;	COMDAT ??_R2CComboBox@@8
rdata$r	SEGMENT
??_R2CComboBox@@8 DD FLAT:??_R1A@?0A@EA@CComboBox@@8	; CComboBox::`RTTI Base Class Array'
	DD	FLAT:??_R1A@?0A@EA@CWnd@@8
	DD	FLAT:??_R1A@?0A@EA@CCmdTarget@@8
	DD	FLAT:??_R1A@?0A@EA@CObject@@8
rdata$r	ENDS
;	COMDAT ??_R3CComboBox@@8
rdata$r	SEGMENT
??_R3CComboBox@@8 DD 00H				; CComboBox::`RTTI Class Hierarchy Descriptor'
	DD	00H
	DD	04H
	DD	FLAT:??_R2CComboBox@@8
rdata$r	ENDS
;	COMDAT ??_R0?AVCComboBox@@@8
data$rs	SEGMENT
??_R0?AVCComboBox@@@8 DD FLAT:??_7type_info@@6B@	; CComboBox `RTTI Type Descriptor'
	DD	00H
	DB	'.?AVCComboBox@@', 00H
data$rs	ENDS
;	COMDAT ??_R4CComboBox@@6B@
rdata$r	SEGMENT
??_R4CComboBox@@6B@ DD 00H				; CComboBox::`RTTI Complete Object Locator'
	DD	00H
	DD	00H
	DD	FLAT:??_R0?AVCComboBox@@@8
	DD	FLAT:??_R3CComboBox@@8
rdata$r	ENDS
;	COMDAT ??_R2CCmdTarget@@8
rdata$r	SEGMENT
??_R2CCmdTarget@@8 DD FLAT:??_R1A@?0A@EA@CCmdTarget@@8	; CCmdTarget::`RTTI Base Class Array'
	DD	FLAT:??_R1A@?0A@EA@CObject@@8
rdata$r	ENDS
;	COMDAT ??_R3CCmdTarget@@8
rdata$r	SEGMENT
??_R3CCmdTarget@@8 DD 00H				; CCmdTarget::`RTTI Class Hierarchy Descriptor'
	DD	00H
	DD	02H
	DD	FLAT:??_R2CCmdTarget@@8
rdata$r	ENDS
;	COMDAT ??_R0?AVCCmdTarget@@@8
data$rs	SEGMENT
??_R0?AVCCmdTarget@@@8 DD FLAT:??_7type_info@@6B@	; CCmdTarget `RTTI Type Descriptor'
	DD	00H
	DB	'.?AVCCmdTarget@@', 00H
data$rs	ENDS
;	COMDAT ??_R1A@?0A@EA@CCmdTarget@@8
rdata$r	SEGMENT
??_R1A@?0A@EA@CCmdTarget@@8 DD FLAT:??_R0?AVCCmdTarget@@@8 ; CCmdTarget::`RTTI Base Class Descriptor at (0,-1,0,64)'
	DD	01H
	DD	00H
	DD	0ffffffffH
	DD	00H
	DD	040H
	DD	FLAT:??_R3CCmdTarget@@8
rdata$r	ENDS
;	COMDAT ??_R2CWnd@@8
rdata$r	SEGMENT
??_R2CWnd@@8 DD	FLAT:??_R1A@?0A@EA@CWnd@@8		; CWnd::`RTTI Base Class Array'
	DD	FLAT:??_R1A@?0A@EA@CCmdTarget@@8
	DD	FLAT:??_R1A@?0A@EA@CObject@@8
rdata$r	ENDS
;	COMDAT ??_R3CWnd@@8
rdata$r	SEGMENT
??_R3CWnd@@8 DD	00H					; CWnd::`RTTI Class Hierarchy Descriptor'
	DD	00H
	DD	03H
	DD	FLAT:??_R2CWnd@@8
rdata$r	ENDS
;	COMDAT ??_R0?AVCWnd@@@8
data$rs	SEGMENT
??_R0?AVCWnd@@@8 DD FLAT:??_7type_info@@6B@		; CWnd `RTTI Type Descriptor'
	DD	00H
	DB	'.?AVCWnd@@', 00H
data$rs	ENDS
;	COMDAT ??_R1A@?0A@EA@CWnd@@8
rdata$r	SEGMENT
??_R1A@?0A@EA@CWnd@@8 DD FLAT:??_R0?AVCWnd@@@8		; CWnd::`RTTI Base Class Descriptor at (0,-1,0,64)'
	DD	02H
	DD	00H
	DD	0ffffffffH
	DD	00H
	DD	040H
	DD	FLAT:??_R3CWnd@@8
rdata$r	ENDS
;	COMDAT ??_R1A@?0A@EA@CObject@@8
rdata$r	SEGMENT
??_R1A@?0A@EA@CObject@@8 DD FLAT:??_R0?AVCObject@@@8	; CObject::`RTTI Base Class Descriptor at (0,-1,0,64)'
	DD	00H
	DD	00H
	DD	0ffffffffH
	DD	00H
	DD	040H
	DD	FLAT:??_R3CObject@@8
rdata$r	ENDS
;	COMDAT ??_R2CObject@@8
rdata$r	SEGMENT
??_R2CObject@@8 DD FLAT:??_R1A@?0A@EA@CObject@@8	; CObject::`RTTI Base Class Array'
rdata$r	ENDS
;	COMDAT ??_R3CObject@@8
rdata$r	SEGMENT
??_R3CObject@@8 DD 00H					; CObject::`RTTI Class Hierarchy Descriptor'
	DD	00H
	DD	01H
	DD	FLAT:??_R2CObject@@8
rdata$r	ENDS
;	COMDAT ??_R0?AVCObject@@@8
data$rs	SEGMENT
??_R0?AVCObject@@@8 DD FLAT:??_7type_info@@6B@		; CObject `RTTI Type Descriptor'
	DD	00H
	DB	'.?AVCObject@@', 00H
data$rs	ENDS
;	COMDAT ??_7CComboBox@@6B@
CONST	SEGMENT
??_7CComboBox@@6B@ DD FLAT:??_R4CComboBox@@6B@		; CComboBox::`vftable'
	DD	FLAT:?GetRuntimeClass@CComboBox@@UBEPAUCRuntimeClass@@XZ
	DD	FLAT:??_ECComboBox@@UAEPAXI@Z
	DD	FLAT:?Serialize@CObject@@UAEXAAVCArchive@@@Z
	DD	FLAT:?AssertValid@CObject@@UBEXXZ
	DD	FLAT:?Dump@CObject@@UBEXAAVCDumpContext@@@Z
	DD	FLAT:?OnCmdMsg@CCmdTarget@@UAEHIHPAXPAUAFX_CMDHANDLERINFO@@@Z
	DD	FLAT:?OnFinalRelease@CWnd@@UAEXXZ
	DD	FLAT:?IsInvokeAllowed@CCmdTarget@@UAEHJ@Z
	DD	FLAT:?GetDispatchIID@CCmdTarget@@UAEHPAU_GUID@@@Z
	DD	FLAT:?GetTypeInfoCount@CCmdTarget@@UAEIXZ
	DD	FLAT:?GetTypeLibCache@CCmdTarget@@UAEPAVCTypeLibCache@@XZ
	DD	FLAT:?GetTypeLib@CCmdTarget@@UAEJKPAPAUITypeLib@@@Z
	DD	FLAT:?GetMessageMap@CWnd@@MBEPBUAFX_MSGMAP@@XZ
	DD	FLAT:?GetCommandMap@CCmdTarget@@MBEPBUAFX_OLECMDMAP@@XZ
	DD	FLAT:?GetDispatchMap@CCmdTarget@@MBEPBUAFX_DISPMAP@@XZ
	DD	FLAT:?GetConnectionMap@CCmdTarget@@MBEPBUAFX_CONNECTIONMAP@@XZ
	DD	FLAT:?GetInterfaceMap@CWnd@@MBEPBUAFX_INTERFACEMAP@@XZ
	DD	FLAT:?GetEventSinkMap@CCmdTarget@@MBEPBUAFX_EVENTSINKMAP@@XZ
	DD	FLAT:?OnCreateAggregates@CCmdTarget@@UAEHXZ
	DD	FLAT:?GetInterfaceHook@CCmdTarget@@UAEPAUIUnknown@@PBX@Z
	DD	FLAT:?GetExtraConnectionPoints@CCmdTarget@@MAEHPAVCPtrArray@@@Z
	DD	FLAT:?GetConnectionHook@CCmdTarget@@MAEPAUIConnectionPoint@@ABU_GUID@@@Z
	DD	FLAT:?PreSubclassWindow@CWnd@@UAEXXZ
	DD	FLAT:?Create@CWnd@@UAEHPBD0KABUtagRECT@@PAV1@IPAUCCreateContext@@@Z
	DD	FLAT:?CreateEx@CWnd@@UAEHKPBD0KABUtagRECT@@PAV1@IPAX@Z
	DD	FLAT:?CreateEx@CWnd@@UAEHKPBD0KHHHHPAUHWND__@@PAUHMENU__@@PAX@Z
	DD	FLAT:?DestroyWindow@CWnd@@UAEHXZ
	DD	FLAT:?PreCreateWindow@CWnd@@UAEHAAUtagCREATESTRUCTA@@@Z
	DD	FLAT:?CalcWindowRect@CWnd@@UAEXPAUtagRECT@@I@Z
	DD	FLAT:?GetMenu@CWnd@@UBEPAVCMenu@@XZ
	DD	FLAT:?SetMenu@CWnd@@UAEHPAVCMenu@@@Z
	DD	FLAT:?OnToolHitTest@CWnd@@UBEHVCPoint@@PAUtagTOOLINFOA@@@Z
	DD	FLAT:?GetScrollBarCtrl@CWnd@@UBEPAVCScrollBar@@H@Z
	DD	FLAT:?WinHelpA@CWnd@@UAEXKI@Z
	DD	FLAT:?HtmlHelpA@CWnd@@UAEXKI@Z
	DD	FLAT:?WinHelpInternal@CWnd@@UAEXKI@Z
	DD	FLAT:?ContinueModal@CWnd@@UAEHXZ
	DD	FLAT:?EndModalLoop@CWnd@@UAEXH@Z
	DD	FLAT:?OnDrawIconicThumbnailOrLivePreview@CWnd@@UAEXAAVCDC@@VCRect@@VCSize@@HAAH@Z
	DD	FLAT:?EnsureStdObj@CWnd@@UAEJXZ
	DD	FLAT:?get_accParent@CWnd@@UAEJPAPAUIDispatch@@@Z
	DD	FLAT:?get_accChildCount@CWnd@@UAEJPAJ@Z
	DD	FLAT:?get_accChild@CWnd@@UAEJUtagVARIANT@@PAPAUIDispatch@@@Z
	DD	FLAT:?get_accName@CWnd@@UAEJUtagVARIANT@@PAPA_W@Z
	DD	FLAT:?get_accValue@CWnd@@UAEJUtagVARIANT@@PAPA_W@Z
	DD	FLAT:?get_accDescription@CWnd@@UAEJUtagVARIANT@@PAPA_W@Z
	DD	FLAT:?get_accRole@CWnd@@UAEJUtagVARIANT@@PAU2@@Z
	DD	FLAT:?get_accState@CWnd@@UAEJUtagVARIANT@@PAU2@@Z
	DD	FLAT:?get_accHelp@CWnd@@UAEJUtagVARIANT@@PAPA_W@Z
	DD	FLAT:?get_accHelpTopic@CWnd@@UAEJPAPA_WUtagVARIANT@@PAJ@Z
	DD	FLAT:?get_accKeyboardShortcut@CWnd@@UAEJUtagVARIANT@@PAPA_W@Z
	DD	FLAT:?get_accFocus@CWnd@@UAEJPAUtagVARIANT@@@Z
	DD	FLAT:?get_accSelection@CWnd@@UAEJPAUtagVARIANT@@@Z
	DD	FLAT:?get_accDefaultAction@CWnd@@UAEJUtagVARIANT@@PAPA_W@Z
	DD	FLAT:?accSelect@CWnd@@UAEJJUtagVARIANT@@@Z
	DD	FLAT:?accLocation@CWnd@@UAEJPAJ000UtagVARIANT@@@Z
	DD	FLAT:?accNavigate@CWnd@@UAEJJUtagVARIANT@@PAU2@@Z
	DD	FLAT:?accHitTest@CWnd@@UAEJJJPAUtagVARIANT@@@Z
	DD	FLAT:?accDoDefaultAction@CWnd@@UAEJUtagVARIANT@@@Z
	DD	FLAT:?put_accName@CWnd@@UAEJUtagVARIANT@@PA_W@Z
	DD	FLAT:?put_accValue@CWnd@@UAEJUtagVARIANT@@PA_W@Z
	DD	FLAT:?SetProxy@CWnd@@UAEJPAUIAccessibleProxy@@@Z
	DD	FLAT:?CreateAccessibleProxy@CWnd@@UAEJIJPAJ@Z
	DD	FLAT:?OnCommand@CWnd@@MAEHIJ@Z
	DD	FLAT:?OnNotify@CWnd@@MAEHIJPAJ@Z
	DD	FLAT:?GetSuperWndProcAddr@CWnd@@MAEPAP6GJPAUHWND__@@IIJ@ZXZ
	DD	FLAT:?DoDataExchange@CWnd@@MAEXPAVCDataExchange@@@Z
	DD	FLAT:?BeginModalState@CWnd@@UAEXXZ
	DD	FLAT:?EndModalState@CWnd@@UAEXXZ
	DD	FLAT:?PreTranslateMessage@CWnd@@UAEHPAUtagMSG@@@Z
	DD	FLAT:?OnAmbientProperty@CWnd@@UAEHPAVCOleControlSite@@JPAUtagVARIANT@@@Z
	DD	FLAT:?WindowProc@CWnd@@MAEJIIJ@Z
	DD	FLAT:?OnWndMsg@CWnd@@MAEHIIJPAJ@Z
	DD	FLAT:?DefWindowProcA@CWnd@@MAEJIIJ@Z
	DD	FLAT:?PostNcDestroy@CWnd@@MAEXXZ
	DD	FLAT:?OnChildNotify@CComboBox@@MAEHIIJPAJ@Z
	DD	FLAT:?OnTouchInputs@CWnd@@MAEHIPAUtagTOUCHINPUT@@@Z
	DD	FLAT:?OnTouchInput@CWnd@@MAEHVCPoint@@HHPAUtagTOUCHINPUT@@@Z
	DD	FLAT:?GetGestureStatus@CWnd@@MAEKVCPoint@@@Z
	DD	FLAT:?OnGestureZoom@CWnd@@MAEHVCPoint@@J@Z
	DD	FLAT:?OnGesturePan@CWnd@@MAEHVCPoint@@0@Z
	DD	FLAT:?OnGestureRotate@CWnd@@MAEHVCPoint@@N@Z
	DD	FLAT:?OnGestureTwoFingerTap@CWnd@@MAEHVCPoint@@@Z
	DD	FLAT:?OnGesturePressAndTap@CWnd@@MAEHVCPoint@@J@Z
	DD	FLAT:?ResizeDynamicLayout@CWnd@@MAEXXZ
	DD	FLAT:?CheckAutoCenter@CWnd@@UAEHXZ
	DD	FLAT:?IsFrameWnd@CWnd@@UBEHXZ
	DD	FLAT:?CreateControlContainer@CWnd@@MAEHPAPAVCOleControlContainer@@@Z
	DD	FLAT:?CreateControlSite@CWnd@@MAEHPAVCOleControlContainer@@PAPAVCOleControlSite@@IABU_GUID@@@Z
	DD	FLAT:?SetOccDialogInfo@CWnd@@MAEHPAU_AFX_OCC_DIALOG_INFO@@@Z
	DD	FLAT:?GetOccDialogInfo@CWnd@@MAEPAU_AFX_OCC_DIALOG_INFO@@XZ
	DD	FLAT:?Create@CComboBox@@UAEHKABUtagRECT@@PAVCWnd@@I@Z
	DD	FLAT:?DrawItem@CComboBox@@UAEXPAUtagDRAWITEMSTRUCT@@@Z
	DD	FLAT:?MeasureItem@CComboBox@@UAEXPAUtagMEASUREITEMSTRUCT@@@Z
	DD	FLAT:?CompareItem@CComboBox@@UAEHPAUtagCOMPAREITEMSTRUCT@@@Z
	DD	FLAT:?DeleteItem@CComboBox@@UAEXPAUtagDELETEITEMSTRUCT@@@Z
CONST	ENDS
;	COMDAT ??_C@_00CNPNBAHC@@
CONST	SEGMENT
??_C@_00CNPNBAHC@@ DB 00H				; `string'
CONST	ENDS
;	COMDAT xdata$x
xdata$x	SEGMENT
__ehfuncinfo$??0CPacketUserDefine@@QAE@PAUHWND__@@PAVCWnd@@@Z DD 019930522H
	DD	06H
	DD	FLAT:__unwindtable$??0CPacketUserDefine@@QAE@PAUHWND__@@PAVCWnd@@@Z
	DD	2 DUP(00H)
	DD	2 DUP(00H)
	DD	00H
	DD	01H
__unwindtable$??0CPacketUserDefine@@QAE@PAUHWND__@@PAVCWnd@@@Z DD 0ffffffffH
	DD	FLAT:__unwindfunclet$??0CPacketUserDefine@@QAE@PAUHWND__@@PAVCWnd@@@Z$0
	DD	00H
	DD	FLAT:__unwindfunclet$??0CPacketUserDefine@@QAE@PAUHWND__@@PAVCWnd@@@Z$1
	DD	01H
	DD	FLAT:__unwindfunclet$??0CPacketUserDefine@@QAE@PAUHWND__@@PAVCWnd@@@Z$2
	DD	02H
	DD	FLAT:__unwindfunclet$??0CPacketUserDefine@@QAE@PAUHWND__@@PAVCWnd@@@Z$3
	DD	03H
	DD	FLAT:__unwindfunclet$??0CPacketUserDefine@@QAE@PAUHWND__@@PAVCWnd@@@Z$4
	DD	04H
	DD	FLAT:__unwindfunclet$??0CPacketUserDefine@@QAE@PAUHWND__@@PAVCWnd@@@Z$5
xdata$x	ENDS
; Function compile flags: /Ogtp
; File C:\Program Files (x86)\Microsoft Visual Studio\2019\Community\VC\Tools\MSVC\14.29.30133\atlmfc\include\afx.inl
;	COMDAT ??_GCPacketUserDefine@@UAEPAXI@Z
_TEXT	SEGMENT
___flags$ = 8						; size = 4
??_GCPacketUserDefine@@UAEPAXI@Z PROC			; CPacketUserDefine::`scalar deleting destructor', COMDAT
; _this$ = ecx
  00000	55		 push	 ebp
  00001	8b ec		 mov	 ebp, esp
  00003	56		 push	 esi
  00004	8b f1		 mov	 esi, ecx
  00006	8d 8e 3c 01 00
	00		 lea	 ecx, DWORD PTR [esi+316]
  0000c	ff 15 00 00 00
	00		 call	 DWORD PTR __imp_??1?$CStringT@DV?$StrTraitMFC_DLL@DV?$ChTraitsCRT@D@ATL@@@@@ATL@@QAE@XZ
  00012	8d 8e 34 01 00
	00		 lea	 ecx, DWORD PTR [esi+308]
  00018	ff 15 00 00 00
	00		 call	 DWORD PTR __imp_??1?$CStringT@DV?$StrTraitMFC_DLL@DV?$ChTraitsCRT@D@ATL@@@@@ATL@@QAE@XZ
  0001e	8d 8e 2c 01 00
	00		 lea	 ecx, DWORD PTR [esi+300]
  00024	ff 15 00 00 00
	00		 call	 DWORD PTR __imp_??1?$CStringT@DV?$StrTraitMFC_DLL@DV?$ChTraitsCRT@D@ATL@@@@@ATL@@QAE@XZ
  0002a	8d 8e 28 01 00
	00		 lea	 ecx, DWORD PTR [esi+296]
  00030	ff 15 00 00 00
	00		 call	 DWORD PTR __imp_??1?$CStringT@DV?$StrTraitMFC_DLL@DV?$ChTraitsCRT@D@ATL@@@@@ATL@@QAE@XZ
  00036	8d 8e a8 00 00
	00		 lea	 ecx, DWORD PTR [esi+168]
  0003c	e8 00 00 00 00	 call	 ??1CComboBox@@UAE@XZ	; CComboBox::~CComboBox
  00041	8b ce		 mov	 ecx, esi
  00043	e8 00 00 00 00	 call	 ??1CDialog@@UAE@XZ	; CDialog::~CDialog
  00048	8b 45 08	 mov	 eax, DWORD PTR ___flags$[ebp]
  0004b	a8 01		 test	 al, 1
  0004d	74 22		 je	 SHORT $LN12@scalar
  0004f	a8 04		 test	 al, 4
  00051	75 10		 jne	 SHORT $LN3@scalar

; 112  : 	{ ::operator delete(p); }

  00053	56		 push	 esi
  00054	e8 00 00 00 00	 call	 ??3@YAXPAX@Z		; operator delete
  00059	83 c4 04	 add	 esp, 4
  0005c	8b c6		 mov	 eax, esi
  0005e	5e		 pop	 esi
  0005f	5d		 pop	 ebp
  00060	c2 04 00	 ret	 4
$LN3@scalar:
  00063	68 48 01 00 00	 push	 328			; 00000148H
  00068	56		 push	 esi
  00069	e8 00 00 00 00	 call	 ?__global_delete@@YAXPAXI@Z ; __global_delete
  0006e	83 c4 08	 add	 esp, 8
$LN12@scalar:
  00071	8b c6		 mov	 eax, esi
  00073	5e		 pop	 esi
  00074	5d		 pop	 ebp
  00075	c2 04 00	 ret	 4
??_GCPacketUserDefine@@UAEPAXI@Z ENDP			; CPacketUserDefine::`scalar deleting destructor'
_TEXT	ENDS
; Function compile flags: /Ogtp
; File D:\git\src\IBK\IBK_DRFN\ProjSrc\SrcChartEx\ChartAddIn\ChartDesignPropertyAddIn\ChartDesignPropertyAddIn\PacketUserDefine.cpp
; File C:\Program Files (x86)\Microsoft Visual Studio\2019\Community\VC\Tools\MSVC\14.29.30133\atlmfc\include\afxwin2.inl
; File D:\git\src\IBK\IBK_DRFN\ProjSrc\SrcChartEx\ChartAddIn\ChartDesignPropertyAddIn\ChartDesignPropertyAddIn\PacketUserDefine.cpp
; File C:\Program Files (x86)\Microsoft Visual Studio\2019\Community\VC\Tools\MSVC\14.29.30133\atlmfc\include\afxwin2.inl
; File D:\git\src\IBK\IBK_DRFN\ProjSrc\SrcChartEx\ChartAddIn\ChartDesignPropertyAddIn\ChartDesignPropertyAddIn\PacketUserDefine.cpp
; File C:\Program Files (x86)\Microsoft Visual Studio\2019\Community\VC\Tools\MSVC\14.29.30133\atlmfc\include\afxwin2.inl
; File D:\git\src\IBK\IBK_DRFN\ProjSrc\SrcChartEx\ChartAddIn\ChartDesignPropertyAddIn\ChartDesignPropertyAddIn\PacketUserDefine.cpp
;	COMDAT ?WhenPacketTypeisDataDate@CPacketUserDefine@@AAEXXZ
_TEXT	SEGMENT
?WhenPacketTypeisDataDate@CPacketUserDefine@@AAEXXZ PROC ; CPacketUserDefine::WhenPacketTypeisDataDate, COMDAT
; _this$ = ecx

; 76   : {

  00000	56		 push	 esi
; File C:\Program Files (x86)\Microsoft Visual Studio\2019\Community\VC\Tools\MSVC\14.29.30133\atlmfc\include\afxwin2.inl

; 795  : 	{ ASSERT(::IsWindow(m_hWnd)); return (int)::SendMessage(m_hWnd, CB_ADDSTRING, 0, (LPARAM)lpszString); }

  00001	8b 35 00 00 00
	00		 mov	 esi, DWORD PTR __imp__SendMessageA@16
; File D:\git\src\IBK\IBK_DRFN\ProjSrc\SrcChartEx\ChartAddIn\ChartDesignPropertyAddIn\ChartDesignPropertyAddIn\PacketUserDefine.cpp

; 76   : {

  00007	57		 push	 edi
; File C:\Program Files (x86)\Microsoft Visual Studio\2019\Community\VC\Tools\MSVC\14.29.30133\atlmfc\include\afxwin2.inl

; 795  : 	{ ASSERT(::IsWindow(m_hWnd)); return (int)::SendMessage(m_hWnd, CB_ADDSTRING, 0, (LPARAM)lpszString); }

  00008	68 00 00 00 00	 push	 OFFSET ??_C@_08DKDJLCMP@YYYYMMDD@
; File D:\git\src\IBK\IBK_DRFN\ProjSrc\SrcChartEx\ChartAddIn\ChartDesignPropertyAddIn\ChartDesignPropertyAddIn\PacketUserDefine.cpp

; 76   : {

  0000d	8b f9		 mov	 edi, ecx
; File C:\Program Files (x86)\Microsoft Visual Studio\2019\Community\VC\Tools\MSVC\14.29.30133\atlmfc\include\afxwin2.inl

; 795  : 	{ ASSERT(::IsWindow(m_hWnd)); return (int)::SendMessage(m_hWnd, CB_ADDSTRING, 0, (LPARAM)lpszString); }

  0000f	6a 00		 push	 0
  00011	68 43 01 00 00	 push	 323			; 00000143H
  00016	ff b7 c8 00 00
	00		 push	 DWORD PTR [edi+200]
  0001c	ff d6		 call	 esi
  0001e	68 00 00 00 00	 push	 OFFSET ??_C@_06NFMEGGNP@YYMMDD@
  00023	6a 00		 push	 0
  00025	68 43 01 00 00	 push	 323			; 00000143H
  0002a	ff b7 c8 00 00
	00		 push	 DWORD PTR [edi+200]
  00030	ff d6		 call	 esi
  00032	68 00 00 00 00	 push	 OFFSET ??_C@_06EBMMBHJD@YYYYMM@
  00037	6a 00		 push	 0
  00039	68 43 01 00 00	 push	 323			; 00000143H
  0003e	ff b7 c8 00 00
	00		 push	 DWORD PTR [edi+200]
  00044	ff d6		 call	 esi
  00046	68 00 00 00 00	 push	 OFFSET ??_C@_04IHEOMKKL@YYMM@
  0004b	6a 00		 push	 0
  0004d	68 43 01 00 00	 push	 323			; 00000143H
  00052	ff b7 c8 00 00
	00		 push	 DWORD PTR [edi+200]
  00058	ff d6		 call	 esi
  0005a	68 00 00 00 00	 push	 OFFSET ??_C@_04BDEGLLOH@MMDD@
  0005f	6a 00		 push	 0
  00061	68 43 01 00 00	 push	 323			; 00000143H
  00066	ff b7 c8 00 00
	00		 push	 DWORD PTR [edi+200]
  0006c	ff d6		 call	 esi
  0006e	68 00 00 00 00	 push	 OFFSET ??_C@_06LKFAFBM@MMDDHH@
  00073	6a 00		 push	 0
  00075	68 43 01 00 00	 push	 323			; 00000143H
  0007a	ff b7 c8 00 00
	00		 push	 DWORD PTR [edi+200]
  00080	ff d6		 call	 esi
  00082	68 00 00 00 00	 push	 OFFSET ??_C@_08KLIIINKM@MMDDHHMM@
  00087	6a 00		 push	 0
  00089	68 43 01 00 00	 push	 323			; 00000143H
  0008e	ff b7 c8 00 00
	00		 push	 DWORD PTR [edi+200]
  00094	ff d6		 call	 esi
  00096	68 00 00 00 00	 push	 OFFSET ??_C@_04MGPBCAHE@DDHH@
  0009b	6a 00		 push	 0
  0009d	68 43 01 00 00	 push	 323			; 00000143H
  000a2	ff b7 c8 00 00
	00		 push	 DWORD PTR [edi+200]
  000a8	ff d6		 call	 esi
  000aa	68 00 00 00 00	 push	 OFFSET ??_C@_06ENKIHFBA@DDHHMM@
  000af	6a 00		 push	 0
  000b1	68 43 01 00 00	 push	 323			; 00000143H
  000b6	ff b7 c8 00 00
	00		 push	 DWORD PTR [edi+200]
  000bc	ff d6		 call	 esi
  000be	68 00 00 00 00	 push	 OFFSET ??_C@_06MAANBBPI@HHMMSS@
  000c3	6a 00		 push	 0
  000c5	68 43 01 00 00	 push	 323			; 00000143H
  000ca	ff b7 c8 00 00
	00		 push	 DWORD PTR [edi+200]
  000d0	ff d6		 call	 esi

; 767  : 	{ ASSERT(::IsWindow(m_hWnd)); return (int)::SendMessage(m_hWnd, CB_SETCURSEL, nSelect, 0); }

  000d2	6a 00		 push	 0
  000d4	6a 00		 push	 0
  000d6	68 4e 01 00 00	 push	 334			; 0000014eH
  000db	ff b7 c8 00 00
	00		 push	 DWORD PTR [edi+200]
  000e1	ff d6		 call	 esi
  000e3	5f		 pop	 edi
  000e4	5e		 pop	 esi
; File D:\git\src\IBK\IBK_DRFN\ProjSrc\SrcChartEx\ChartAddIn\ChartDesignPropertyAddIn\ChartDesignPropertyAddIn\PacketUserDefine.cpp

; 89   : }

  000e5	c3		 ret	 0
?WhenPacketTypeisDataDate@CPacketUserDefine@@AAEXXZ ENDP ; CPacketUserDefine::WhenPacketTypeisDataDate
_TEXT	ENDS
; Function compile flags: /Ogtp
; File D:\git\src\IBK\IBK_DRFN\ProjSrc\SrcChartEx\ChartAddIn\ChartDesignPropertyAddIn\ChartDesignPropertyAddIn\PacketUserDefine.cpp
; File C:\Program Files (x86)\Microsoft Visual Studio\2019\Community\VC\Tools\MSVC\14.29.30133\atlmfc\include\afxwin2.inl
; File D:\git\src\IBK\IBK_DRFN\ProjSrc\SrcChartEx\ChartAddIn\ChartDesignPropertyAddIn\ChartDesignPropertyAddIn\PacketUserDefine.cpp
; File C:\Program Files (x86)\Microsoft Visual Studio\2019\Community\VC\Tools\MSVC\14.29.30133\atlmfc\include\afxwin2.inl
; File D:\git\src\IBK\IBK_DRFN\ProjSrc\SrcChartEx\ChartAddIn\ChartDesignPropertyAddIn\ChartDesignPropertyAddIn\PacketUserDefine.cpp
; File C:\Program Files (x86)\Microsoft Visual Studio\2019\Community\VC\Tools\MSVC\14.29.30133\atlmfc\include\afxwin2.inl
; File D:\git\src\IBK\IBK_DRFN\ProjSrc\SrcChartEx\ChartAddIn\ChartDesignPropertyAddIn\ChartDesignPropertyAddIn\PacketUserDefine.cpp
;	COMDAT ?WhenPacketTypeisNumeral@CPacketUserDefine@@AAEXXZ
_TEXT	SEGMENT
?WhenPacketTypeisNumeral@CPacketUserDefine@@AAEXXZ PROC	; CPacketUserDefine::WhenPacketTypeisNumeral, COMDAT
; _this$ = ecx

; 92   : {

  00000	56		 push	 esi
; File C:\Program Files (x86)\Microsoft Visual Studio\2019\Community\VC\Tools\MSVC\14.29.30133\atlmfc\include\afxwin2.inl

; 795  : 	{ ASSERT(::IsWindow(m_hWnd)); return (int)::SendMessage(m_hWnd, CB_ADDSTRING, 0, (LPARAM)lpszString); }

  00001	8b 35 00 00 00
	00		 mov	 esi, DWORD PTR __imp__SendMessageA@16
; File D:\git\src\IBK\IBK_DRFN\ProjSrc\SrcChartEx\ChartAddIn\ChartDesignPropertyAddIn\ChartDesignPropertyAddIn\PacketUserDefine.cpp

; 92   : {

  00007	57		 push	 edi
; File C:\Program Files (x86)\Microsoft Visual Studio\2019\Community\VC\Tools\MSVC\14.29.30133\atlmfc\include\afxwin2.inl

; 795  : 	{ ASSERT(::IsWindow(m_hWnd)); return (int)::SendMessage(m_hWnd, CB_ADDSTRING, 0, (LPARAM)lpszString); }

  00008	68 00 00 00 00	 push	 OFFSET ??_C@_08INACILNL@x?50?40001@
; File D:\git\src\IBK\IBK_DRFN\ProjSrc\SrcChartEx\ChartAddIn\ChartDesignPropertyAddIn\ChartDesignPropertyAddIn\PacketUserDefine.cpp

; 92   : {

  0000d	8b f9		 mov	 edi, ecx
; File C:\Program Files (x86)\Microsoft Visual Studio\2019\Community\VC\Tools\MSVC\14.29.30133\atlmfc\include\afxwin2.inl

; 795  : 	{ ASSERT(::IsWindow(m_hWnd)); return (int)::SendMessage(m_hWnd, CB_ADDSTRING, 0, (LPARAM)lpszString); }

  0000f	6a 00		 push	 0
  00011	68 43 01 00 00	 push	 323			; 00000143H
  00016	ff b7 c8 00 00
	00		 push	 DWORD PTR [edi+200]
  0001c	ff d6		 call	 esi
  0001e	68 00 00 00 00	 push	 OFFSET ??_C@_07ECEDBPGE@x?50?4001@
  00023	6a 00		 push	 0
  00025	68 43 01 00 00	 push	 323			; 00000143H
  0002a	ff b7 c8 00 00
	00		 push	 DWORD PTR [edi+200]
  00030	ff d6		 call	 esi
  00032	68 00 00 00 00	 push	 OFFSET ??_C@_06LJECDJFC@x?50?401@
  00037	6a 00		 push	 0
  00039	68 43 01 00 00	 push	 323			; 00000143H
  0003e	ff b7 c8 00 00
	00		 push	 DWORD PTR [edi+200]
  00044	ff d6		 call	 esi
  00046	68 00 00 00 00	 push	 OFFSET ??_C@_05GMCIGKAN@x?50?41@
  0004b	6a 00		 push	 0
  0004d	68 43 01 00 00	 push	 323			; 00000143H
  00052	ff b7 c8 00 00
	00		 push	 DWORD PTR [edi+200]
  00058	ff d6		 call	 esi
  0005a	68 00 00 00 00	 push	 OFFSET ??_C@_03IOCAOJMC@x?51@
  0005f	6a 00		 push	 0
  00061	68 43 01 00 00	 push	 323			; 00000143H
  00066	ff b7 c8 00 00
	00		 push	 DWORD PTR [edi+200]
  0006c	ff d6		 call	 esi
  0006e	68 00 00 00 00	 push	 OFFSET ??_C@_05NLDHLCFD@x?5100@
  00073	6a 00		 push	 0
  00075	68 43 01 00 00	 push	 323			; 00000143H
  0007a	ff b7 c8 00 00
	00		 push	 DWORD PTR [edi+200]
  00080	ff d6		 call	 esi
  00082	68 00 00 00 00	 push	 OFFSET ??_C@_06CNPPABAP@x?51000@
  00087	6a 00		 push	 0
  00089	68 43 01 00 00	 push	 323			; 00000143H
  0008e	ff b7 c8 00 00
	00		 push	 DWORD PTR [edi+200]
  00094	ff d6		 call	 esi
  00096	68 00 00 00 00	 push	 OFFSET ??_C@_08LLCNCMF@x?5100000@
  0009b	6a 00		 push	 0
  0009d	68 43 01 00 00	 push	 323			; 00000143H
  000a2	ff b7 c8 00 00
	00		 push	 DWORD PTR [edi+200]
  000a8	ff d6		 call	 esi
  000aa	68 00 00 00 00	 push	 OFFSET ??_C@_0M@KADAKFP@x?5100000000@
  000af	6a 00		 push	 0
  000b1	68 43 01 00 00	 push	 323			; 00000143H
  000b6	ff b7 c8 00 00
	00		 push	 DWORD PTR [edi+200]
  000bc	ff d6		 call	 esi

; 767  : 	{ ASSERT(::IsWindow(m_hWnd)); return (int)::SendMessage(m_hWnd, CB_SETCURSEL, nSelect, 0); }

  000be	6a 00		 push	 0
  000c0	6a 04		 push	 4
  000c2	68 4e 01 00 00	 push	 334			; 0000014eH
  000c7	ff b7 c8 00 00
	00		 push	 DWORD PTR [edi+200]
  000cd	ff d6		 call	 esi
  000cf	5f		 pop	 edi
  000d0	5e		 pop	 esi
; File D:\git\src\IBK\IBK_DRFN\ProjSrc\SrcChartEx\ChartAddIn\ChartDesignPropertyAddIn\ChartDesignPropertyAddIn\PacketUserDefine.cpp

; 103  : }

  000d1	c3		 ret	 0
?WhenPacketTypeisNumeral@CPacketUserDefine@@AAEXXZ ENDP	; CPacketUserDefine::WhenPacketTypeisNumeral
_TEXT	ENDS
; Function compile flags: /Ogtp
; File D:\git\src\IBK\IBK_DRFN\ProjSrc\SrcChartEx\ChartAddIn\ChartDesignPropertyAddIn\ChartDesignPropertyAddIn\PacketUserDefine.cpp
; File C:\Program Files (x86)\Microsoft Visual Studio\2019\Community\VC\Tools\MSVC\14.29.30133\atlmfc\include\afxwin2.inl
; File D:\git\src\IBK\IBK_DRFN\ProjSrc\SrcChartEx\ChartAddIn\ChartDesignPropertyAddIn\ChartDesignPropertyAddIn\PacketUserDefine.cpp
; File C:\Program Files (x86)\Microsoft Visual Studio\2019\Community\VC\Tools\MSVC\14.29.30133\atlmfc\include\afxwin2.inl
; File D:\git\src\IBK\IBK_DRFN\ProjSrc\SrcChartEx\ChartAddIn\ChartDesignPropertyAddIn\ChartDesignPropertyAddIn\PacketUserDefine.cpp
;	COMDAT ?WhenPacketTypeisEtc@CPacketUserDefine@@AAEXXZ
_TEXT	SEGMENT
?WhenPacketTypeisEtc@CPacketUserDefine@@AAEXXZ PROC	; CPacketUserDefine::WhenPacketTypeisEtc, COMDAT
; _this$ = ecx

; 107  : 	m_ComboDetailPacketType.AddString( _LTEXT6( C6_CHARACTER));

  00000	a1 54 00 00 00	 mov	 eax, DWORD PTR ?g_iMetaTable@@3VIMetaTable@@A+84
  00005	56		 push	 esi
  00006	57		 push	 edi
  00007	6a 00		 push	 0
  00009	ff b0 60 09 00
	00		 push	 DWORD PTR [eax+2400]
  0000f	8b f9		 mov	 edi, ecx
  00011	b9 00 00 00 00	 mov	 ecx, OFFSET ?g_iMetaTable@@3VIMetaTable@@A ; g_iMetaTable
  00016	6a 06		 push	 6
  00018	ff b7 40 01 00
	00		 push	 DWORD PTR [edi+320]
  0001e	e8 00 00 00 00	 call	 ?GetLanguageText@IMetaTable@@QAEPBDPAUHWND__@@W4E_CODEPAGE@1@PBDH@Z ; IMetaTable::GetLanguageText
; File C:\Program Files (x86)\Microsoft Visual Studio\2019\Community\VC\Tools\MSVC\14.29.30133\atlmfc\include\afxwin2.inl

; 795  : 	{ ASSERT(::IsWindow(m_hWnd)); return (int)::SendMessage(m_hWnd, CB_ADDSTRING, 0, (LPARAM)lpszString); }

  00023	8b 35 00 00 00
	00		 mov	 esi, DWORD PTR __imp__SendMessageA@16
  00029	50		 push	 eax
  0002a	6a 00		 push	 0
  0002c	68 43 01 00 00	 push	 323			; 00000143H
  00031	ff b7 c8 00 00
	00		 push	 DWORD PTR [edi+200]
  00037	ff d6		 call	 esi
  00039	68 00 00 00 00	 push	 OFFSET ??_C@_07GNCPKCAG@x?50?401?$CF@
  0003e	6a 00		 push	 0
  00040	68 43 01 00 00	 push	 323			; 00000143H
  00045	ff b7 c8 00 00
	00		 push	 DWORD PTR [edi+200]
  0004b	ff d6		 call	 esi
  0004d	68 00 00 00 00	 push	 OFFSET ??_C@_06JGCOIEDA@x?50?41?$CF@
  00052	6a 00		 push	 0
  00054	68 43 01 00 00	 push	 323			; 00000143H
  00059	ff b7 c8 00 00
	00		 push	 DWORD PTR [edi+200]
  0005f	ff d6		 call	 esi
  00061	68 00 00 00 00	 push	 OFFSET ??_C@_04JNBHFDJC@x?51?$CF@
  00066	6a 00		 push	 0
  00068	68 43 01 00 00	 push	 323			; 00000143H
  0006d	ff b7 c8 00 00
	00		 push	 DWORD PTR [edi+200]
  00073	ff d6		 call	 esi
; File D:\git\src\IBK\IBK_DRFN\ProjSrc\SrcChartEx\ChartAddIn\ChartDesignPropertyAddIn\ChartDesignPropertyAddIn\PacketUserDefine.cpp

; 111  : 	m_ComboDetailPacketType.AddString( _LTEXT6( C6_POINT));

  00075	a1 54 00 00 00	 mov	 eax, DWORD PTR ?g_iMetaTable@@3VIMetaTable@@A+84
  0007a	b9 00 00 00 00	 mov	 ecx, OFFSET ?g_iMetaTable@@3VIMetaTable@@A ; g_iMetaTable
  0007f	6a 00		 push	 0
  00081	ff b0 6c 09 00
	00		 push	 DWORD PTR [eax+2412]
  00087	6a 06		 push	 6
  00089	ff b7 40 01 00
	00		 push	 DWORD PTR [edi+320]
  0008f	e8 00 00 00 00	 call	 ?GetLanguageText@IMetaTable@@QAEPBDPAUHWND__@@W4E_CODEPAGE@1@PBDH@Z ; IMetaTable::GetLanguageText
; File C:\Program Files (x86)\Microsoft Visual Studio\2019\Community\VC\Tools\MSVC\14.29.30133\atlmfc\include\afxwin2.inl

; 795  : 	{ ASSERT(::IsWindow(m_hWnd)); return (int)::SendMessage(m_hWnd, CB_ADDSTRING, 0, (LPARAM)lpszString); }

  00094	50		 push	 eax
  00095	6a 00		 push	 0
  00097	68 43 01 00 00	 push	 323			; 00000143H
  0009c	ff b7 c8 00 00
	00		 push	 DWORD PTR [edi+200]
  000a2	ff d6		 call	 esi
  000a4	68 00 00 00 00	 push	 OFFSET ??_C@_01EPMOAMKG@$@
  000a9	6a 00		 push	 0
  000ab	68 43 01 00 00	 push	 323			; 00000143H
  000b0	ff b7 c8 00 00
	00		 push	 DWORD PTR [edi+200]
  000b6	ff d6		 call	 esi
  000b8	68 00 00 00 00	 push	 OFFSET ??_C@_02KGFALILJ@?$KB?M@
  000bd	6a 00		 push	 0
  000bf	68 43 01 00 00	 push	 323			; 00000143H
  000c4	ff b7 c8 00 00
	00		 push	 DWORD PTR [edi+200]
  000ca	ff d6		 call	 esi
  000cc	68 00 00 00 00	 push	 OFFSET ??_C@_02LPELIJPI@?$KB?L@
  000d1	6a 00		 push	 0
  000d3	68 43 01 00 00	 push	 323			; 00000143H
  000d8	ff b7 c8 00 00
	00		 push	 DWORD PTR [edi+200]
  000de	ff d6		 call	 esi

; 767  : 	{ ASSERT(::IsWindow(m_hWnd)); return (int)::SendMessage(m_hWnd, CB_SETCURSEL, nSelect, 0); }

  000e0	6a 00		 push	 0
  000e2	6a 01		 push	 1
  000e4	68 4e 01 00 00	 push	 334			; 0000014eH
  000e9	ff b7 c8 00 00
	00		 push	 DWORD PTR [edi+200]
  000ef	ff d6		 call	 esi
  000f1	5f		 pop	 edi
  000f2	5e		 pop	 esi
; File D:\git\src\IBK\IBK_DRFN\ProjSrc\SrcChartEx\ChartAddIn\ChartDesignPropertyAddIn\ChartDesignPropertyAddIn\PacketUserDefine.cpp

; 116  : }

  000f3	c3		 ret	 0
?WhenPacketTypeisEtc@CPacketUserDefine@@AAEXXZ ENDP	; CPacketUserDefine::WhenPacketTypeisEtc
_TEXT	ENDS
; Function compile flags: /Ogtp
; File D:\git\src\IBK\IBK_DRFN\ProjSrc\SrcChartEx\ChartAddIn\ChartDesignPropertyAddIn\ChartDesignPropertyAddIn\PacketUserDefine.cpp
;	COMDAT ?GetMessageMap@CPacketUserDefine@@MBEPBUAFX_MSGMAP@@XZ
_TEXT	SEGMENT
?GetMessageMap@CPacketUserDefine@@MBEPBUAFX_MSGMAP@@XZ PROC ; CPacketUserDefine::GetMessageMap, COMDAT
; _this$ = ecx

; 52   : BEGIN_MESSAGE_MAP(CPacketUserDefine, CDialog)

  00000	b8 00 00 00 00	 mov	 eax, OFFSET ?messageMap@?1??GetThisMessageMap@CPacketUserDefine@@KGPBUAFX_MSGMAP@@XZ@4U3@B
  00005	c3		 ret	 0
?GetMessageMap@CPacketUserDefine@@MBEPBUAFX_MSGMAP@@XZ ENDP ; CPacketUserDefine::GetMessageMap
_TEXT	ENDS
; Function compile flags: /Ogtp
; File D:\git\src\IBK\IBK_DRFN\ProjSrc\SrcChartEx\ChartAddIn\ChartDesignPropertyAddIn\ChartDesignPropertyAddIn\PacketUserDefine.cpp
;	COMDAT ?GetThisMessageMap@CPacketUserDefine@@KGPBUAFX_MSGMAP@@XZ
_TEXT	SEGMENT
?GetThisMessageMap@CPacketUserDefine@@KGPBUAFX_MSGMAP@@XZ PROC ; CPacketUserDefine::GetThisMessageMap, COMDAT

; 53   : 	//{{AFX_MSG_MAP(CPacketUserDefine)
; 54   : 	ON_CBN_SELCHANGE(IDC_PACKETTYPE, OnSelchangePackettype)
; 55   : 	//}}AFX_MSG_MAP
; 56   : END_MESSAGE_MAP()

  00000	b8 00 00 00 00	 mov	 eax, OFFSET ?messageMap@?1??GetThisMessageMap@CPacketUserDefine@@KGPBUAFX_MSGMAP@@XZ@4U3@B
  00005	c3		 ret	 0
?GetThisMessageMap@CPacketUserDefine@@KGPBUAFX_MSGMAP@@XZ ENDP ; CPacketUserDefine::GetThisMessageMap
_TEXT	ENDS
; Function compile flags: /Ogtp
; File D:\git\src\IBK\IBK_DRFN\ProjSrc\SrcChartEx\ChartAddIn\ChartDesignPropertyAddIn\ChartDesignPropertyAddIn\PacketUserDefine.cpp
; File C:\Program Files (x86)\Microsoft Visual Studio\2019\Community\VC\Tools\MSVC\14.29.30133\atlmfc\include\afxwin2.inl
; File D:\git\src\IBK\IBK_DRFN\ProjSrc\SrcChartEx\ChartAddIn\ChartDesignPropertyAddIn\ChartDesignPropertyAddIn\PacketUserDefine.cpp
; File C:\Program Files (x86)\Microsoft Visual Studio\2019\Community\VC\Tools\MSVC\14.29.30133\atlmfc\include\afxwin2.inl
; File D:\git\src\IBK\IBK_DRFN\ProjSrc\SrcChartEx\ChartAddIn\ChartDesignPropertyAddIn\ChartDesignPropertyAddIn\PacketUserDefine.cpp
; File C:\Program Files (x86)\Microsoft Visual Studio\2019\Community\VC\Tools\MSVC\14.29.30133\atlmfc\include\afxwin2.inl
; File D:\git\src\IBK\IBK_DRFN\ProjSrc\SrcChartEx\ChartAddIn\ChartDesignPropertyAddIn\ChartDesignPropertyAddIn\PacketUserDefine.cpp
; File C:\Program Files (x86)\Microsoft Visual Studio\2019\Community\VC\Tools\MSVC\14.29.30133\atlmfc\include\afxwin2.inl
; File D:\git\src\IBK\IBK_DRFN\ProjSrc\SrcChartEx\ChartAddIn\ChartDesignPropertyAddIn\ChartDesignPropertyAddIn\PacketUserDefine.cpp
; File C:\Program Files (x86)\Microsoft Visual Studio\2019\Community\VC\Tools\MSVC\14.29.30133\atlmfc\include\afxwin2.inl
; File D:\git\src\IBK\IBK_DRFN\ProjSrc\SrcChartEx\ChartAddIn\ChartDesignPropertyAddIn\ChartDesignPropertyAddIn\PacketUserDefine.cpp
; File C:\Program Files (x86)\Microsoft Visual Studio\2019\Community\VC\Tools\MSVC\14.29.30133\atlmfc\include\afxwin2.inl
; File D:\git\src\IBK\IBK_DRFN\ProjSrc\SrcChartEx\ChartAddIn\ChartDesignPropertyAddIn\ChartDesignPropertyAddIn\PacketUserDefine.cpp
; File C:\Program Files (x86)\Microsoft Visual Studio\2019\Community\VC\Tools\MSVC\14.29.30133\atlmfc\include\afxwin2.inl
; File D:\git\src\IBK\IBK_DRFN\ProjSrc\SrcChartEx\ChartAddIn\ChartDesignPropertyAddIn\ChartDesignPropertyAddIn\PacketUserDefine.cpp
; File C:\Program Files (x86)\Microsoft Visual Studio\2019\Community\VC\Tools\MSVC\14.29.30133\atlmfc\include\afxwin2.inl
; File D:\git\src\IBK\IBK_DRFN\ProjSrc\SrcChartEx\ChartAddIn\ChartDesignPropertyAddIn\ChartDesignPropertyAddIn\PacketUserDefine.cpp
;	COMDAT ?OnSelchangePackettype@CPacketUserDefine@@IAEXXZ
_TEXT	SEGMENT
?OnSelchangePackettype@CPacketUserDefine@@IAEXXZ PROC	; CPacketUserDefine::OnSelchangePackettype, COMDAT
; _this$ = ecx

; 62   : {

  00000	56		 push	 esi
  00001	57		 push	 edi
; File C:\Program Files (x86)\Microsoft Visual Studio\2019\Community\VC\Tools\MSVC\14.29.30133\atlmfc\include\afxwin2.inl

; 763  : 	{ ASSERT(::IsWindow(m_hWnd)); return (int)::SendMessage(m_hWnd, CB_GETCOUNT, 0, 0); }

  00002	8b 3d 00 00 00
	00		 mov	 edi, DWORD PTR __imp__SendMessageA@16
; File D:\git\src\IBK\IBK_DRFN\ProjSrc\SrcChartEx\ChartAddIn\ChartDesignPropertyAddIn\ChartDesignPropertyAddIn\PacketUserDefine.cpp

; 62   : {

  00008	8b f1		 mov	 esi, ecx
; File C:\Program Files (x86)\Microsoft Visual Studio\2019\Community\VC\Tools\MSVC\14.29.30133\atlmfc\include\afxwin2.inl

; 763  : 	{ ASSERT(::IsWindow(m_hWnd)); return (int)::SendMessage(m_hWnd, CB_GETCOUNT, 0, 0); }

  0000a	6a 00		 push	 0
  0000c	6a 00		 push	 0
  0000e	68 46 01 00 00	 push	 326			; 00000146H
  00013	ff b6 c8 00 00
	00		 push	 DWORD PTR [esi+200]
  00019	ff d7		 call	 edi
; File D:\git\src\IBK\IBK_DRFN\ProjSrc\SrcChartEx\ChartAddIn\ChartDesignPropertyAddIn\ChartDesignPropertyAddIn\PacketUserDefine.cpp

; 63   : 	for(int i=0 ;i < m_ComboDetailPacketType.GetCount();)

  0001b	85 c0		 test	 eax, eax
  0001d	7e 27		 jle	 SHORT $LN3@OnSelchang
  0001f	90		 npad	 1
$LL2@OnSelchang:
; File C:\Program Files (x86)\Microsoft Visual Studio\2019\Community\VC\Tools\MSVC\14.29.30133\atlmfc\include\afxwin2.inl

; 797  : 	{ ASSERT(::IsWindow(m_hWnd)); return (int)::SendMessage(m_hWnd, CB_DELETESTRING, nIndex, 0);}

  00020	6a 00		 push	 0
  00022	6a 00		 push	 0
  00024	68 44 01 00 00	 push	 324			; 00000144H
  00029	ff b6 c8 00 00
	00		 push	 DWORD PTR [esi+200]
  0002f	ff d7		 call	 edi

; 763  : 	{ ASSERT(::IsWindow(m_hWnd)); return (int)::SendMessage(m_hWnd, CB_GETCOUNT, 0, 0); }

  00031	6a 00		 push	 0
  00033	6a 00		 push	 0
  00035	68 46 01 00 00	 push	 326			; 00000146H
  0003a	ff b6 c8 00 00
	00		 push	 DWORD PTR [esi+200]
  00040	ff d7		 call	 edi
; File D:\git\src\IBK\IBK_DRFN\ProjSrc\SrcChartEx\ChartAddIn\ChartDesignPropertyAddIn\ChartDesignPropertyAddIn\PacketUserDefine.cpp

; 63   : 	for(int i=0 ;i < m_ComboDetailPacketType.GetCount();)

  00042	85 c0		 test	 eax, eax
  00044	7f da		 jg	 SHORT $LL2@OnSelchang
$LN3@OnSelchang:

; 64   : 	   m_ComboDetailPacketType.DeleteString(i);
; 65   : 
; 66   : 	int nIndex = ((CComboBox* )GetDlgItem(IDC_PACKETTYPE))->GetCurSel();

  00046	68 2e 27 00 00	 push	 10030			; 0000272eH
  0004b	8b ce		 mov	 ecx, esi
  0004d	e8 00 00 00 00	 call	 ?GetDlgItem@CWnd@@QBEPAV1@H@Z ; CWnd::GetDlgItem
; File C:\Program Files (x86)\Microsoft Visual Studio\2019\Community\VC\Tools\MSVC\14.29.30133\atlmfc\include\afxwin2.inl

; 765  : 	{ ASSERT(::IsWindow(m_hWnd)); return (int)::SendMessage(m_hWnd, CB_GETCURSEL, 0, 0); }

  00052	6a 00		 push	 0
  00054	6a 00		 push	 0
  00056	68 47 01 00 00	 push	 327			; 00000147H
  0005b	ff 70 20	 push	 DWORD PTR [eax+32]
  0005e	ff d7		 call	 edi
; File D:\git\src\IBK\IBK_DRFN\ProjSrc\SrcChartEx\ChartAddIn\ChartDesignPropertyAddIn\ChartDesignPropertyAddIn\PacketUserDefine.cpp

; 67   : 	if(nIndex == 0) 

  00060	85 c0		 test	 eax, eax
  00062	0f 85 db 00 00
	00		 jne	 $LN5@OnSelchang
; File C:\Program Files (x86)\Microsoft Visual Studio\2019\Community\VC\Tools\MSVC\14.29.30133\atlmfc\include\afxwin2.inl

; 795  : 	{ ASSERT(::IsWindow(m_hWnd)); return (int)::SendMessage(m_hWnd, CB_ADDSTRING, 0, (LPARAM)lpszString); }

  00068	68 00 00 00 00	 push	 OFFSET ??_C@_08DKDJLCMP@YYYYMMDD@
  0006d	50		 push	 eax
  0006e	68 43 01 00 00	 push	 323			; 00000143H
  00073	ff b6 c8 00 00
	00		 push	 DWORD PTR [esi+200]
  00079	ff d7		 call	 edi
  0007b	68 00 00 00 00	 push	 OFFSET ??_C@_06NFMEGGNP@YYMMDD@
  00080	6a 00		 push	 0
  00082	68 43 01 00 00	 push	 323			; 00000143H
  00087	ff b6 c8 00 00
	00		 push	 DWORD PTR [esi+200]
  0008d	ff d7		 call	 edi
  0008f	68 00 00 00 00	 push	 OFFSET ??_C@_06EBMMBHJD@YYYYMM@
  00094	6a 00		 push	 0
  00096	68 43 01 00 00	 push	 323			; 00000143H
  0009b	ff b6 c8 00 00
	00		 push	 DWORD PTR [esi+200]
  000a1	ff d7		 call	 edi
  000a3	68 00 00 00 00	 push	 OFFSET ??_C@_04IHEOMKKL@YYMM@
  000a8	6a 00		 push	 0
  000aa	68 43 01 00 00	 push	 323			; 00000143H
  000af	ff b6 c8 00 00
	00		 push	 DWORD PTR [esi+200]
  000b5	ff d7		 call	 edi
  000b7	68 00 00 00 00	 push	 OFFSET ??_C@_04BDEGLLOH@MMDD@
  000bc	6a 00		 push	 0
  000be	68 43 01 00 00	 push	 323			; 00000143H
  000c3	ff b6 c8 00 00
	00		 push	 DWORD PTR [esi+200]
  000c9	ff d7		 call	 edi
  000cb	68 00 00 00 00	 push	 OFFSET ??_C@_06LKFAFBM@MMDDHH@
  000d0	6a 00		 push	 0
  000d2	68 43 01 00 00	 push	 323			; 00000143H
  000d7	ff b6 c8 00 00
	00		 push	 DWORD PTR [esi+200]
  000dd	ff d7		 call	 edi
  000df	68 00 00 00 00	 push	 OFFSET ??_C@_08KLIIINKM@MMDDHHMM@
  000e4	6a 00		 push	 0
  000e6	68 43 01 00 00	 push	 323			; 00000143H
  000eb	ff b6 c8 00 00
	00		 push	 DWORD PTR [esi+200]
  000f1	ff d7		 call	 edi
  000f3	68 00 00 00 00	 push	 OFFSET ??_C@_04MGPBCAHE@DDHH@
  000f8	6a 00		 push	 0
  000fa	68 43 01 00 00	 push	 323			; 00000143H
  000ff	ff b6 c8 00 00
	00		 push	 DWORD PTR [esi+200]
  00105	ff d7		 call	 edi
  00107	68 00 00 00 00	 push	 OFFSET ??_C@_06ENKIHFBA@DDHHMM@
  0010c	6a 00		 push	 0
  0010e	68 43 01 00 00	 push	 323			; 00000143H
  00113	ff b6 c8 00 00
	00		 push	 DWORD PTR [esi+200]
  00119	ff d7		 call	 edi
  0011b	68 00 00 00 00	 push	 OFFSET ??_C@_06MAANBBPI@HHMMSS@
  00120	6a 00		 push	 0
  00122	68 43 01 00 00	 push	 323			; 00000143H
  00127	ff b6 c8 00 00
	00		 push	 DWORD PTR [esi+200]
  0012d	ff d7		 call	 edi

; 767  : 	{ ASSERT(::IsWindow(m_hWnd)); return (int)::SendMessage(m_hWnd, CB_SETCURSEL, nSelect, 0); }

  0012f	6a 00		 push	 0
  00131	6a 00		 push	 0
; File D:\git\src\IBK\IBK_DRFN\ProjSrc\SrcChartEx\ChartAddIn\ChartDesignPropertyAddIn\ChartDesignPropertyAddIn\PacketUserDefine.cpp

; 73   : }

  00133	68 4e 01 00 00	 push	 334			; 0000014eH
  00138	ff b6 c8 00 00
	00		 push	 DWORD PTR [esi+200]
  0013e	ff d7		 call	 edi
  00140	5f		 pop	 edi
  00141	5e		 pop	 esi
  00142	c3		 ret	 0
$LN5@OnSelchang:

; 68   : 		WhenPacketTypeisDataDate();
; 69   : 	else if(nIndex == 1) 

  00143	83 f8 01	 cmp	 eax, 1
  00146	0f 85 c8 00 00
	00		 jne	 $LN7@OnSelchang
; File C:\Program Files (x86)\Microsoft Visual Studio\2019\Community\VC\Tools\MSVC\14.29.30133\atlmfc\include\afxwin2.inl

; 795  : 	{ ASSERT(::IsWindow(m_hWnd)); return (int)::SendMessage(m_hWnd, CB_ADDSTRING, 0, (LPARAM)lpszString); }

  0014c	68 00 00 00 00	 push	 OFFSET ??_C@_08INACILNL@x?50?40001@
  00151	6a 00		 push	 0
  00153	68 43 01 00 00	 push	 323			; 00000143H
  00158	ff b6 c8 00 00
	00		 push	 DWORD PTR [esi+200]
  0015e	ff d7		 call	 edi
  00160	68 00 00 00 00	 push	 OFFSET ??_C@_07ECEDBPGE@x?50?4001@
  00165	6a 00		 push	 0
  00167	68 43 01 00 00	 push	 323			; 00000143H
  0016c	ff b6 c8 00 00
	00		 push	 DWORD PTR [esi+200]
  00172	ff d7		 call	 edi
  00174	68 00 00 00 00	 push	 OFFSET ??_C@_06LJECDJFC@x?50?401@
  00179	6a 00		 push	 0
  0017b	68 43 01 00 00	 push	 323			; 00000143H
  00180	ff b6 c8 00 00
	00		 push	 DWORD PTR [esi+200]
  00186	ff d7		 call	 edi
  00188	68 00 00 00 00	 push	 OFFSET ??_C@_05GMCIGKAN@x?50?41@
  0018d	6a 00		 push	 0
  0018f	68 43 01 00 00	 push	 323			; 00000143H
  00194	ff b6 c8 00 00
	00		 push	 DWORD PTR [esi+200]
  0019a	ff d7		 call	 edi
  0019c	68 00 00 00 00	 push	 OFFSET ??_C@_03IOCAOJMC@x?51@
  001a1	6a 00		 push	 0
  001a3	68 43 01 00 00	 push	 323			; 00000143H
  001a8	ff b6 c8 00 00
	00		 push	 DWORD PTR [esi+200]
  001ae	ff d7		 call	 edi
  001b0	68 00 00 00 00	 push	 OFFSET ??_C@_05NLDHLCFD@x?5100@
  001b5	6a 00		 push	 0
  001b7	68 43 01 00 00	 push	 323			; 00000143H
  001bc	ff b6 c8 00 00
	00		 push	 DWORD PTR [esi+200]
  001c2	ff d7		 call	 edi
  001c4	68 00 00 00 00	 push	 OFFSET ??_C@_06CNPPABAP@x?51000@
  001c9	6a 00		 push	 0
  001cb	68 43 01 00 00	 push	 323			; 00000143H
  001d0	ff b6 c8 00 00
	00		 push	 DWORD PTR [esi+200]
  001d6	ff d7		 call	 edi
  001d8	68 00 00 00 00	 push	 OFFSET ??_C@_08LLCNCMF@x?5100000@
  001dd	6a 00		 push	 0
  001df	68 43 01 00 00	 push	 323			; 00000143H
  001e4	ff b6 c8 00 00
	00		 push	 DWORD PTR [esi+200]
  001ea	ff d7		 call	 edi
  001ec	68 00 00 00 00	 push	 OFFSET ??_C@_0M@KADAKFP@x?5100000000@
  001f1	6a 00		 push	 0
  001f3	68 43 01 00 00	 push	 323			; 00000143H
  001f8	ff b6 c8 00 00
	00		 push	 DWORD PTR [esi+200]
  001fe	ff d7		 call	 edi

; 767  : 	{ ASSERT(::IsWindow(m_hWnd)); return (int)::SendMessage(m_hWnd, CB_SETCURSEL, nSelect, 0); }

  00200	6a 00		 push	 0
  00202	6a 04		 push	 4
; File D:\git\src\IBK\IBK_DRFN\ProjSrc\SrcChartEx\ChartAddIn\ChartDesignPropertyAddIn\ChartDesignPropertyAddIn\PacketUserDefine.cpp

; 73   : }

  00204	68 4e 01 00 00	 push	 334			; 0000014eH
  00209	ff b6 c8 00 00
	00		 push	 DWORD PTR [esi+200]
  0020f	ff d7		 call	 edi
  00211	5f		 pop	 edi
  00212	5e		 pop	 esi
  00213	c3		 ret	 0
$LN7@OnSelchang:

; 70   : 		WhenPacketTypeisNumeral();
; 71   : 	else if(nIndex == 2) 

  00214	83 f8 02	 cmp	 eax, 2
  00217	0f 85 e7 00 00
	00		 jne	 $LN9@OnSelchang

; 107  : 	m_ComboDetailPacketType.AddString( _LTEXT6( C6_CHARACTER));

  0021d	a1 54 00 00 00	 mov	 eax, DWORD PTR ?g_iMetaTable@@3VIMetaTable@@A+84
  00222	b9 00 00 00 00	 mov	 ecx, OFFSET ?g_iMetaTable@@3VIMetaTable@@A ; g_iMetaTable
  00227	6a 00		 push	 0
  00229	ff b0 60 09 00
	00		 push	 DWORD PTR [eax+2400]
  0022f	6a 06		 push	 6
  00231	ff b6 40 01 00
	00		 push	 DWORD PTR [esi+320]
  00237	e8 00 00 00 00	 call	 ?GetLanguageText@IMetaTable@@QAEPBDPAUHWND__@@W4E_CODEPAGE@1@PBDH@Z ; IMetaTable::GetLanguageText
; File C:\Program Files (x86)\Microsoft Visual Studio\2019\Community\VC\Tools\MSVC\14.29.30133\atlmfc\include\afxwin2.inl

; 795  : 	{ ASSERT(::IsWindow(m_hWnd)); return (int)::SendMessage(m_hWnd, CB_ADDSTRING, 0, (LPARAM)lpszString); }

  0023c	50		 push	 eax
  0023d	6a 00		 push	 0
  0023f	68 43 01 00 00	 push	 323			; 00000143H
  00244	ff b6 c8 00 00
	00		 push	 DWORD PTR [esi+200]
  0024a	ff d7		 call	 edi
  0024c	68 00 00 00 00	 push	 OFFSET ??_C@_07GNCPKCAG@x?50?401?$CF@
  00251	6a 00		 push	 0
  00253	68 43 01 00 00	 push	 323			; 00000143H
  00258	ff b6 c8 00 00
	00		 push	 DWORD PTR [esi+200]
  0025e	ff d7		 call	 edi
  00260	68 00 00 00 00	 push	 OFFSET ??_C@_06JGCOIEDA@x?50?41?$CF@
  00265	6a 00		 push	 0
  00267	68 43 01 00 00	 push	 323			; 00000143H
  0026c	ff b6 c8 00 00
	00		 push	 DWORD PTR [esi+200]
  00272	ff d7		 call	 edi
  00274	68 00 00 00 00	 push	 OFFSET ??_C@_04JNBHFDJC@x?51?$CF@
  00279	6a 00		 push	 0
  0027b	68 43 01 00 00	 push	 323			; 00000143H
  00280	ff b6 c8 00 00
	00		 push	 DWORD PTR [esi+200]
  00286	ff d7		 call	 edi
; File D:\git\src\IBK\IBK_DRFN\ProjSrc\SrcChartEx\ChartAddIn\ChartDesignPropertyAddIn\ChartDesignPropertyAddIn\PacketUserDefine.cpp

; 111  : 	m_ComboDetailPacketType.AddString( _LTEXT6( C6_POINT));

  00288	a1 54 00 00 00	 mov	 eax, DWORD PTR ?g_iMetaTable@@3VIMetaTable@@A+84
  0028d	b9 00 00 00 00	 mov	 ecx, OFFSET ?g_iMetaTable@@3VIMetaTable@@A ; g_iMetaTable
  00292	6a 00		 push	 0
  00294	ff b0 6c 09 00
	00		 push	 DWORD PTR [eax+2412]
  0029a	6a 06		 push	 6
  0029c	ff b6 40 01 00
	00		 push	 DWORD PTR [esi+320]
  002a2	e8 00 00 00 00	 call	 ?GetLanguageText@IMetaTable@@QAEPBDPAUHWND__@@W4E_CODEPAGE@1@PBDH@Z ; IMetaTable::GetLanguageText
; File C:\Program Files (x86)\Microsoft Visual Studio\2019\Community\VC\Tools\MSVC\14.29.30133\atlmfc\include\afxwin2.inl

; 795  : 	{ ASSERT(::IsWindow(m_hWnd)); return (int)::SendMessage(m_hWnd, CB_ADDSTRING, 0, (LPARAM)lpszString); }

  002a7	50		 push	 eax
  002a8	6a 00		 push	 0
  002aa	68 43 01 00 00	 push	 323			; 00000143H
  002af	ff b6 c8 00 00
	00		 push	 DWORD PTR [esi+200]
  002b5	ff d7		 call	 edi
  002b7	68 00 00 00 00	 push	 OFFSET ??_C@_01EPMOAMKG@$@
  002bc	6a 00		 push	 0
  002be	68 43 01 00 00	 push	 323			; 00000143H
  002c3	ff b6 c8 00 00
	00		 push	 DWORD PTR [esi+200]
  002c9	ff d7		 call	 edi
  002cb	68 00 00 00 00	 push	 OFFSET ??_C@_02KGFALILJ@?$KB?M@
  002d0	6a 00		 push	 0
  002d2	68 43 01 00 00	 push	 323			; 00000143H
  002d7	ff b6 c8 00 00
	00		 push	 DWORD PTR [esi+200]
  002dd	ff d7		 call	 edi
  002df	68 00 00 00 00	 push	 OFFSET ??_C@_02LPELIJPI@?$KB?L@
  002e4	6a 00		 push	 0
  002e6	68 43 01 00 00	 push	 323			; 00000143H
  002eb	ff b6 c8 00 00
	00		 push	 DWORD PTR [esi+200]
  002f1	ff d7		 call	 edi

; 767  : 	{ ASSERT(::IsWindow(m_hWnd)); return (int)::SendMessage(m_hWnd, CB_SETCURSEL, nSelect, 0); }

  002f3	6a 00		 push	 0
  002f5	6a 01		 push	 1
; File D:\git\src\IBK\IBK_DRFN\ProjSrc\SrcChartEx\ChartAddIn\ChartDesignPropertyAddIn\ChartDesignPropertyAddIn\PacketUserDefine.cpp

; 73   : }

  002f7	68 4e 01 00 00	 push	 334			; 0000014eH
  002fc	ff b6 c8 00 00
	00		 push	 DWORD PTR [esi+200]
  00302	ff d7		 call	 edi
$LN9@OnSelchang:
  00304	5f		 pop	 edi
  00305	5e		 pop	 esi
  00306	c3		 ret	 0
?OnSelchangePackettype@CPacketUserDefine@@IAEXXZ ENDP	; CPacketUserDefine::OnSelchangePackettype
_TEXT	ENDS
; Function compile flags: /Ogtp
; File D:\git\src\IBK\IBK_DRFN\ProjSrc\SrcChartEx\ChartAddIn\ChartDesignPropertyAddIn\ChartDesignPropertyAddIn\PacketUserDefine.cpp
;	COMDAT ?DoDataExchange@CPacketUserDefine@@MAEXPAVCDataExchange@@@Z
_TEXT	SEGMENT
_pDX$ = 8						; size = 4
?DoDataExchange@CPacketUserDefine@@MAEXPAVCDataExchange@@@Z PROC ; CPacketUserDefine::DoDataExchange, COMDAT
; _this$ = ecx

; 38   : {

  00000	55		 push	 ebp
  00001	8b ec		 mov	 ebp, esp
  00003	56		 push	 esi

; 39   : 	CDialog::DoDataExchange(pDX);
; 40   : 	//{{AFX_DATA_MAP(CPacketUserDefine)
; 41   : 	DDX_Control(pDX, IDC_DETAIL_PACKETTYPE, m_ComboDetailPacketType);

  00004	8b 75 08	 mov	 esi, DWORD PTR _pDX$[ebp]
  00007	57		 push	 edi
  00008	8b f9		 mov	 edi, ecx
  0000a	8d 87 a8 00 00
	00		 lea	 eax, DWORD PTR [edi+168]
  00010	50		 push	 eax
  00011	68 2f 27 00 00	 push	 10031			; 0000272fH
  00016	56		 push	 esi
  00017	e8 00 00 00 00	 call	 ?DDX_Control@@YGXPAVCDataExchange@@HAAVCWnd@@@Z ; DDX_Control

; 42   : 	DDX_Text(pDX, IDC_EDIT1, m_strPacketName);

  0001c	8d 87 28 01 00
	00		 lea	 eax, DWORD PTR [edi+296]
  00022	50		 push	 eax
  00023	68 10 27 00 00	 push	 10000			; 00002710H
  00028	56		 push	 esi
  00029	e8 00 00 00 00	 call	 ?DDX_Text@@YGXPAVCDataExchange@@HAAV?$CStringT@DV?$StrTraitMFC_DLL@DV?$ChTraitsCRT@D@ATL@@@@@ATL@@@Z ; DDX_Text

; 43   : 	DDX_Text(pDX, IDC_EDIT7, m_strFieldName);

  0002e	8d 87 2c 01 00
	00		 lea	 eax, DWORD PTR [edi+300]
  00034	50		 push	 eax
  00035	68 11 27 00 00	 push	 10001			; 00002711H
  0003a	56		 push	 esi
  0003b	e8 00 00 00 00	 call	 ?DDX_Text@@YGXPAVCDataExchange@@HAAV?$CStringT@DV?$StrTraitMFC_DLL@DV?$ChTraitsCRT@D@ATL@@@@@ATL@@@Z ; DDX_Text

; 44   : 	DDX_Check(pDX, IDC_CHECK1, m_bCheckReal);

  00040	8d 87 30 01 00
	00		 lea	 eax, DWORD PTR [edi+304]
  00046	50		 push	 eax
  00047	68 1f 27 00 00	 push	 10015			; 0000271fH
  0004c	56		 push	 esi
  0004d	e8 00 00 00 00	 call	 ?DDX_Check@@YGXPAVCDataExchange@@HAAH@Z ; DDX_Check

; 45   : 	DDX_Text(pDX, IDC_EDIT10, m_strLength);

  00052	8d 87 34 01 00
	00		 lea	 eax, DWORD PTR [edi+308]
  00058	50		 push	 eax
  00059	68 12 27 00 00	 push	 10002			; 00002712H
  0005e	56		 push	 esi
  0005f	e8 00 00 00 00	 call	 ?DDX_Text@@YGXPAVCDataExchange@@HAAV?$CStringT@DV?$StrTraitMFC_DLL@DV?$ChTraitsCRT@D@ATL@@@@@ATL@@@Z ; DDX_Text

; 46   : 	DDX_CBIndex(pDX, IDC_PACKETTYPE, m_nPacketType);

  00064	8d 87 38 01 00
	00		 lea	 eax, DWORD PTR [edi+312]
  0006a	50		 push	 eax
  0006b	68 2e 27 00 00	 push	 10030			; 0000272eH
  00070	56		 push	 esi
  00071	e8 00 00 00 00	 call	 ?DDX_CBIndex@@YGXPAVCDataExchange@@HAAH@Z ; DDX_CBIndex

; 47   : 	DDX_CBString(pDX, IDC_DETAIL_PACKETTYPE, m_strDetailPacketType);

  00076	8d 87 3c 01 00
	00		 lea	 eax, DWORD PTR [edi+316]
  0007c	50		 push	 eax
  0007d	68 2f 27 00 00	 push	 10031			; 0000272fH
  00082	56		 push	 esi
  00083	e8 00 00 00 00	 call	 ?DDX_CBString@@YGXPAVCDataExchange@@HAAV?$CStringT@DV?$StrTraitMFC_DLL@DV?$ChTraitsCRT@D@ATL@@@@@ATL@@@Z ; DDX_CBString
  00088	5f		 pop	 edi
  00089	5e		 pop	 esi

; 48   : 	//}}AFX_DATA_MAP
; 49   : }

  0008a	5d		 pop	 ebp
  0008b	c2 04 00	 ret	 4
?DoDataExchange@CPacketUserDefine@@MAEXPAVCDataExchange@@@Z ENDP ; CPacketUserDefine::DoDataExchange
_TEXT	ENDS
; Function compile flags: /Ogtp
; File D:\git\src\IBK\IBK_DRFN\ProjSrc\SrcChartEx\ChartAddIn\ChartDesignPropertyAddIn\ChartDesignPropertyAddIn\PacketUserDefine.cpp
; File C:\Program Files (x86)\Microsoft Visual Studio\2019\Community\VC\Tools\MSVC\14.29.30133\atlmfc\include\afxwin2.inl
; File D:\git\src\IBK\IBK_DRFN\ProjSrc\SrcChartEx\ChartAddIn\ChartDesignPropertyAddIn\ChartDesignPropertyAddIn\PacketUserDefine.cpp
; File C:\Program Files (x86)\Microsoft Visual Studio\2019\Community\VC\Tools\MSVC\14.29.30133\atlmfc\include\afxwin2.inl
; File D:\git\src\IBK\IBK_DRFN\ProjSrc\SrcChartEx\ChartAddIn\ChartDesignPropertyAddIn\ChartDesignPropertyAddIn\PacketUserDefine.cpp
;	COMDAT ??0CPacketUserDefine@@QAE@PAUHWND__@@PAVCWnd@@@Z
_TEXT	SEGMENT
_this$ = -16						; size = 4
__$EHRec$ = -12						; size = 12
_p_hOcxWnd$ = 8						; size = 4
_this$ = 12						; size = 4
_pParent$ = 12						; size = 4
??0CPacketUserDefine@@QAE@PAUHWND__@@PAVCWnd@@@Z PROC	; CPacketUserDefine::CPacketUserDefine, COMDAT
; _this$ = ecx

; 22   : {

  00000	55		 push	 ebp
  00001	8b ec		 mov	 ebp, esp
  00003	6a ff		 push	 -1
  00005	68 00 00 00 00	 push	 __ehhandler$??0CPacketUserDefine@@QAE@PAUHWND__@@PAVCWnd@@@Z
  0000a	64 a1 00 00 00
	00		 mov	 eax, DWORD PTR fs:0
  00010	50		 push	 eax
  00011	51		 push	 ecx
  00012	53		 push	 ebx
  00013	56		 push	 esi
  00014	57		 push	 edi
  00015	a1 00 00 00 00	 mov	 eax, DWORD PTR ___security_cookie
  0001a	33 c5		 xor	 eax, ebp
  0001c	50		 push	 eax
  0001d	8d 45 f4	 lea	 eax, DWORD PTR __$EHRec$[ebp]
  00020	64 a3 00 00 00
	00		 mov	 DWORD PTR fs:0, eax
  00026	8b d9		 mov	 ebx, ecx
  00028	89 5d f0	 mov	 DWORD PTR _this$[ebp], ebx

; 21   : 	: CDialog(CPacketUserDefine::IDD, pParent)

  0002b	ff 75 0c	 push	 DWORD PTR _pParent$[ebp]
  0002e	68 5c 1b 00 00	 push	 7004			; 00001b5cH
  00033	e8 00 00 00 00	 call	 ??0CDialog@@QAE@IPAVCWnd@@@Z ; CDialog::CDialog

; 22   : {

  00038	8d b3 a8 00 00
	00		 lea	 esi, DWORD PTR [ebx+168]
  0003e	c7 45 fc 00 00
	00 00		 mov	 DWORD PTR __$EHRec$[ebp+8], 0
; File C:\Program Files (x86)\Microsoft Visual Studio\2019\Community\VC\Tools\MSVC\14.29.30133\atlmfc\include\afxwin2.inl

; 761  : 	{ }

  00045	8b ce		 mov	 ecx, esi
; File D:\git\src\IBK\IBK_DRFN\ProjSrc\SrcChartEx\ChartAddIn\ChartDesignPropertyAddIn\ChartDesignPropertyAddIn\PacketUserDefine.cpp

; 22   : {

  00047	c7 03 00 00 00
	00		 mov	 DWORD PTR [ebx], OFFSET ??_7CPacketUserDefine@@6B@
  0004d	89 75 0c	 mov	 DWORD PTR _this$[ebp], esi
; File C:\Program Files (x86)\Microsoft Visual Studio\2019\Community\VC\Tools\MSVC\14.29.30133\atlmfc\include\afxwin2.inl

; 761  : 	{ }

  00050	e8 00 00 00 00	 call	 ??0CWnd@@QAE@XZ		; CWnd::CWnd
  00055	c7 06 00 00 00
	00		 mov	 DWORD PTR [esi], OFFSET ??_7CComboBox@@6B@
; File D:\git\src\IBK\IBK_DRFN\ProjSrc\SrcChartEx\ChartAddIn\ChartDesignPropertyAddIn\ChartDesignPropertyAddIn\PacketUserDefine.cpp

; 22   : {

  0005b	8d 8b 28 01 00
	00		 lea	 ecx, DWORD PTR [ebx+296]
  00061	ff 15 00 00 00
	00		 call	 DWORD PTR __imp_??0?$CStringT@DV?$StrTraitMFC_DLL@DV?$ChTraitsCRT@D@ATL@@@@@ATL@@QAE@XZ
  00067	8d 8b 2c 01 00
	00		 lea	 ecx, DWORD PTR [ebx+300]
  0006d	ff 15 00 00 00
	00		 call	 DWORD PTR __imp_??0?$CStringT@DV?$StrTraitMFC_DLL@DV?$ChTraitsCRT@D@ATL@@@@@ATL@@QAE@XZ
  00073	8d 8b 34 01 00
	00		 lea	 ecx, DWORD PTR [ebx+308]
  00079	ff 15 00 00 00
	00		 call	 DWORD PTR __imp_??0?$CStringT@DV?$StrTraitMFC_DLL@DV?$ChTraitsCRT@D@ATL@@@@@ATL@@QAE@XZ
  0007f	8d 8b 3c 01 00
	00		 lea	 ecx, DWORD PTR [ebx+316]
  00085	ff 15 00 00 00
	00		 call	 DWORD PTR __imp_??0?$CStringT@DV?$StrTraitMFC_DLL@DV?$ChTraitsCRT@D@ATL@@@@@ATL@@QAE@XZ

; 23   : 	// (2008/1/14 - Seung-Won, Bae) for MultiLanguage.
; 24   : 	m_hOcxWnd = p_hOcxWnd;

  0008b	8b 45 08	 mov	 eax, DWORD PTR _p_hOcxWnd$[ebp]
  0008e	8b d3		 mov	 edx, ebx

; 25   : 
; 26   : 	//{{AFX_DATA_INIT(CPacketUserDefine)
; 27   : 	m_strPacketName = _T("");

  00090	68 00 00 00 00	 push	 OFFSET ??_C@_00CNPNBAHC@@
  00095	c6 45 fc 05	 mov	 BYTE PTR __$EHRec$[ebp+8], 5
  00099	8d 8a 28 01 00
	00		 lea	 ecx, DWORD PTR [edx+296]
  0009f	89 82 40 01 00
	00		 mov	 DWORD PTR [edx+320], eax
  000a5	ff 15 00 00 00
	00		 call	 DWORD PTR __imp_??4?$CStringT@DV?$StrTraitMFC_DLL@DV?$ChTraitsCRT@D@ATL@@@@@ATL@@QAEAAV01@PBD@Z

; 28   : 	m_strFieldName = _T("");

  000ab	68 00 00 00 00	 push	 OFFSET ??_C@_00CNPNBAHC@@
  000b0	8d 8b 2c 01 00
	00		 lea	 ecx, DWORD PTR [ebx+300]
  000b6	ff 15 00 00 00
	00		 call	 DWORD PTR __imp_??4?$CStringT@DV?$StrTraitMFC_DLL@DV?$ChTraitsCRT@D@ATL@@@@@ATL@@QAEAAV01@PBD@Z

; 29   : 	m_bCheckReal = FALSE;

  000bc	8b f3		 mov	 esi, ebx

; 30   : 	m_strLength = _T("");

  000be	8d 8b 34 01 00
	00		 lea	 ecx, DWORD PTR [ebx+308]
  000c4	68 00 00 00 00	 push	 OFFSET ??_C@_00CNPNBAHC@@
  000c9	c7 86 30 01 00
	00 00 00 00 00	 mov	 DWORD PTR [esi+304], 0
  000d3	ff 15 00 00 00
	00		 call	 DWORD PTR __imp_??4?$CStringT@DV?$StrTraitMFC_DLL@DV?$ChTraitsCRT@D@ATL@@@@@ATL@@QAEAAV01@PBD@Z

; 31   : 	m_nPacketType = -1;
; 32   : 	m_strDetailPacketType = _T("");

  000d9	68 00 00 00 00	 push	 OFFSET ??_C@_00CNPNBAHC@@
  000de	8d 8b 3c 01 00
	00		 lea	 ecx, DWORD PTR [ebx+316]
  000e4	c7 86 38 01 00
	00 ff ff ff ff	 mov	 DWORD PTR [esi+312], -1
  000ee	ff 15 00 00 00
	00		 call	 DWORD PTR __imp_??4?$CStringT@DV?$StrTraitMFC_DLL@DV?$ChTraitsCRT@D@ATL@@@@@ATL@@QAEAAV01@PBD@Z

; 33   : 	//}}AFX_DATA_INIT
; 34   : }

  000f4	8b c6		 mov	 eax, esi
  000f6	8b 4d f4	 mov	 ecx, DWORD PTR __$EHRec$[ebp]
  000f9	64 89 0d 00 00
	00 00		 mov	 DWORD PTR fs:0, ecx
  00100	59		 pop	 ecx
  00101	5f		 pop	 edi
  00102	5e		 pop	 esi
  00103	5b		 pop	 ebx
  00104	8b e5		 mov	 esp, ebp
  00106	5d		 pop	 ebp
  00107	c2 08 00	 ret	 8
_TEXT	ENDS
;	COMDAT text$x
text$x	SEGMENT
__unwindfunclet$??0CPacketUserDefine@@QAE@PAUHWND__@@PAVCWnd@@@Z$0:
  00000	8b 4d f0	 mov	 ecx, DWORD PTR _this$[ebp]
  00003	e9 00 00 00 00	 jmp	 ??1CDialog@@UAE@XZ	; CDialog::~CDialog
__unwindfunclet$??0CPacketUserDefine@@QAE@PAUHWND__@@PAVCWnd@@@Z$1:
  00008	8b 4d f0	 mov	 ecx, DWORD PTR _this$[ebp]
  0000b	81 c1 a8 00 00
	00		 add	 ecx, 168		; 000000a8H
  00011	e9 00 00 00 00	 jmp	 ??1CComboBox@@UAE@XZ	; CComboBox::~CComboBox
__unwindfunclet$??0CPacketUserDefine@@QAE@PAUHWND__@@PAVCWnd@@@Z$2:
  00016	8b 4d f0	 mov	 ecx, DWORD PTR _this$[ebp]
  00019	81 c1 28 01 00
	00		 add	 ecx, 296		; 00000128H
  0001f	ff 25 00 00 00
	00		 jmp	 DWORD PTR __imp_??1?$CStringT@DV?$StrTraitMFC_DLL@DV?$ChTraitsCRT@D@ATL@@@@@ATL@@QAE@XZ
__unwindfunclet$??0CPacketUserDefine@@QAE@PAUHWND__@@PAVCWnd@@@Z$3:
  00025	8b 4d f0	 mov	 ecx, DWORD PTR _this$[ebp]
  00028	81 c1 2c 01 00
	00		 add	 ecx, 300		; 0000012cH
  0002e	ff 25 00 00 00
	00		 jmp	 DWORD PTR __imp_??1?$CStringT@DV?$StrTraitMFC_DLL@DV?$ChTraitsCRT@D@ATL@@@@@ATL@@QAE@XZ
__unwindfunclet$??0CPacketUserDefine@@QAE@PAUHWND__@@PAVCWnd@@@Z$4:
  00034	8b 4d f0	 mov	 ecx, DWORD PTR _this$[ebp]
  00037	81 c1 34 01 00
	00		 add	 ecx, 308		; 00000134H
  0003d	ff 25 00 00 00
	00		 jmp	 DWORD PTR __imp_??1?$CStringT@DV?$StrTraitMFC_DLL@DV?$ChTraitsCRT@D@ATL@@@@@ATL@@QAE@XZ
__unwindfunclet$??0CPacketUserDefine@@QAE@PAUHWND__@@PAVCWnd@@@Z$5:
  00043	8b 4d f0	 mov	 ecx, DWORD PTR _this$[ebp]
  00046	81 c1 3c 01 00
	00		 add	 ecx, 316		; 0000013cH
  0004c	ff 25 00 00 00
	00		 jmp	 DWORD PTR __imp_??1?$CStringT@DV?$StrTraitMFC_DLL@DV?$ChTraitsCRT@D@ATL@@@@@ATL@@QAE@XZ
  00052	cc		 int	 3
  00053	cc		 int	 3
  00054	cc		 int	 3
  00055	cc		 int	 3
  00056	cc		 int	 3
__ehhandler$??0CPacketUserDefine@@QAE@PAUHWND__@@PAVCWnd@@@Z:
  00057	90		 npad	 1
  00058	90		 npad	 1
  00059	8b 54 24 08	 mov	 edx, DWORD PTR [esp+8]
  0005d	8d 42 0c	 lea	 eax, DWORD PTR [edx+12]
  00060	8b 4a ec	 mov	 ecx, DWORD PTR [edx-20]
  00063	33 c8		 xor	 ecx, eax
  00065	e8 00 00 00 00	 call	 @__security_check_cookie@4
  0006a	b8 00 00 00 00	 mov	 eax, OFFSET __ehfuncinfo$??0CPacketUserDefine@@QAE@PAUHWND__@@PAVCWnd@@@Z
  0006f	e9 00 00 00 00	 jmp	 ___CxxFrameHandler3
text$x	ENDS
??0CPacketUserDefine@@QAE@PAUHWND__@@PAVCWnd@@@Z ENDP	; CPacketUserDefine::CPacketUserDefine
; Function compile flags: /Ogtp
; File C:\Program Files (x86)\Microsoft Visual Studio\2019\Community\VC\Tools\MSVC\14.29.30133\atlmfc\include\afx.inl
;	COMDAT ??_GCComboBox@@UAEPAXI@Z
_TEXT	SEGMENT
___flags$ = 8						; size = 4
??_GCComboBox@@UAEPAXI@Z PROC				; CComboBox::`scalar deleting destructor', COMDAT
; _this$ = ecx
  00000	55		 push	 ebp
  00001	8b ec		 mov	 ebp, esp
  00003	56		 push	 esi
  00004	8b f1		 mov	 esi, ecx
  00006	e8 00 00 00 00	 call	 ??1CComboBox@@UAE@XZ	; CComboBox::~CComboBox
  0000b	8b 45 08	 mov	 eax, DWORD PTR ___flags$[ebp]
  0000e	a8 01		 test	 al, 1
  00010	74 22		 je	 SHORT $LN9@scalar
  00012	a8 04		 test	 al, 4
  00014	75 10		 jne	 SHORT $LN3@scalar

; 112  : 	{ ::operator delete(p); }

  00016	56		 push	 esi
  00017	e8 00 00 00 00	 call	 ??3@YAXPAX@Z		; operator delete
  0001c	83 c4 04	 add	 esp, 4
  0001f	8b c6		 mov	 eax, esi
  00021	5e		 pop	 esi
  00022	5d		 pop	 ebp
  00023	c2 04 00	 ret	 4
$LN3@scalar:
  00026	68 80 00 00 00	 push	 128			; 00000080H
  0002b	56		 push	 esi
  0002c	e8 00 00 00 00	 call	 ?__global_delete@@YAXPAXI@Z ; __global_delete
  00031	83 c4 08	 add	 esp, 8
$LN9@scalar:
  00034	8b c6		 mov	 eax, esi
  00036	5e		 pop	 esi
  00037	5d		 pop	 ebp
  00038	c2 04 00	 ret	 4
??_GCComboBox@@UAEPAXI@Z ENDP				; CComboBox::`scalar deleting destructor'
_TEXT	ENDS
; Function compile flags: /Ogtp
; File C:\Program Files (x86)\Microsoft Visual Studio\2019\Community\VC\Tools\MSVC\14.29.30133\atlmfc\include\afxwin2.inl
;	COMDAT ?Create@CDialog@@UAEHIPAVCWnd@@@Z
_TEXT	SEGMENT
_nIDTemplate$ = 8					; size = 4
_pParentWnd$ = 12					; size = 4
?Create@CDialog@@UAEHIPAVCWnd@@@Z PROC			; CDialog::Create, COMDAT
; _this$ = ecx

; 585  : 	{ return CDialog::Create(ATL_MAKEINTRESOURCE(nIDTemplate), pParentWnd); }

  00000	55		 push	 ebp
  00001	8b ec		 mov	 ebp, esp
  00003	0f b7 45 08	 movzx	 eax, WORD PTR _nIDTemplate$[ebp]
  00007	89 45 08	 mov	 DWORD PTR _nIDTemplate$[ebp], eax
  0000a	5d		 pop	 ebp
  0000b	e9 00 00 00 00	 jmp	 ?Create@CDialog@@UAEHPBDPAVCWnd@@@Z ; CDialog::Create
?Create@CDialog@@UAEHIPAVCWnd@@@Z ENDP			; CDialog::Create
_TEXT	ENDS
; Function compile flags: /Ogtp
; File C:\Program Files (x86)\Microsoft Visual Studio\2019\Community\VC\Tools\MSVC\14.29.30133\atlmfc\include\afxwin2.inl
;	COMDAT ?EndModalState@CWnd@@UAEXXZ
_TEXT	SEGMENT
?EndModalState@CWnd@@UAEXXZ PROC			; CWnd::EndModalState, COMDAT
; _this$ = ecx

; 567  : 	{ ::EnableWindow(m_hWnd, TRUE); }

  00000	6a 01		 push	 1
  00002	ff 71 20	 push	 DWORD PTR [ecx+32]
  00005	ff 15 00 00 00
	00		 call	 DWORD PTR __imp__EnableWindow@8
  0000b	c3		 ret	 0
?EndModalState@CWnd@@UAEXXZ ENDP			; CWnd::EndModalState
_TEXT	ENDS
; Function compile flags: /Ogtp
; File C:\Program Files (x86)\Microsoft Visual Studio\2019\Community\VC\Tools\MSVC\14.29.30133\atlmfc\include\afxwin2.inl
;	COMDAT ?BeginModalState@CWnd@@UAEXXZ
_TEXT	SEGMENT
?BeginModalState@CWnd@@UAEXXZ PROC			; CWnd::BeginModalState, COMDAT
; _this$ = ecx

; 565  : 	{ ::EnableWindow(m_hWnd, FALSE); }

  00000	6a 00		 push	 0
  00002	ff 71 20	 push	 DWORD PTR [ecx+32]
  00005	ff 15 00 00 00
	00		 call	 DWORD PTR __imp__EnableWindow@8
  0000b	c3		 ret	 0
?BeginModalState@CWnd@@UAEXXZ ENDP			; CWnd::BeginModalState
_TEXT	ENDS
; Function compile flags: /Ogtp
; File C:\Program Files (x86)\Microsoft Visual Studio\2019\Community\VC\Tools\MSVC\14.29.30133\atlmfc\include\afxwin2.inl
;	COMDAT ?DoDataExchange@CWnd@@MAEXPAVCDataExchange@@@Z
_TEXT	SEGMENT
___formal$ = 8						; size = 4
?DoDataExchange@CWnd@@MAEXPAVCDataExchange@@@Z PROC	; CWnd::DoDataExchange, COMDAT
; _this$ = ecx

; 561  : 	{ } // default does nothing

  00000	c2 04 00	 ret	 4
?DoDataExchange@CWnd@@MAEXPAVCDataExchange@@@Z ENDP	; CWnd::DoDataExchange
_TEXT	ENDS
; Function compile flags: /Ogtp
; File C:\Program Files (x86)\Microsoft Visual Studio\2019\Community\VC\Tools\MSVC\14.29.30133\atlmfc\include\afx.inl
;	COMDAT ?Dump@CObject@@UBEXAAVCDumpContext@@@Z
_TEXT	SEGMENT
___formal$ = 8						; size = 4
?Dump@CObject@@UBEXAAVCDumpContext@@@Z PROC		; CObject::Dump, COMDAT
; _this$ = ecx

; 122  : 	{ /* no dumping in release builds */ }

  00000	c2 04 00	 ret	 4
?Dump@CObject@@UBEXAAVCDumpContext@@@Z ENDP		; CObject::Dump
_TEXT	ENDS
; Function compile flags: /Ogtp
; File C:\Program Files (x86)\Microsoft Visual Studio\2019\Community\VC\Tools\MSVC\14.29.30133\atlmfc\include\afx.inl
;	COMDAT ?AssertValid@CObject@@UBEXXZ
_TEXT	SEGMENT
?AssertValid@CObject@@UBEXXZ PROC			; CObject::AssertValid, COMDAT
; _this$ = ecx

; 120  : 	{ /* no asserts in release builds */ }

  00000	c2 00 00	 ret	 0
?AssertValid@CObject@@UBEXXZ ENDP			; CObject::AssertValid
_TEXT	ENDS
; Function compile flags: /Ogtp
; File C:\Program Files (x86)\Microsoft Visual Studio\2019\Community\VC\Tools\MSVC\14.29.30133\atlmfc\include\afx.inl
;	COMDAT ?Serialize@CObject@@UAEXAAVCArchive@@@Z
_TEXT	SEGMENT
___formal$ = 8						; size = 4
?Serialize@CObject@@UAEXAAVCArchive@@@Z PROC		; CObject::Serialize, COMDAT
; _this$ = ecx

; 106  : 	{ /* CObject does not serialize anything by default */ }

  00000	c2 04 00	 ret	 4
?Serialize@CObject@@UAEXAAVCArchive@@@Z ENDP		; CObject::Serialize
_TEXT	ENDS
; Function compile flags: /Ogtp
; File D:\git\src\IBK\IBK_DRFN\ProjSrc\SrcChartEx\ChartAddIn\ChartDesignPropertyAddIn\ChartDesignPropertyAddIn\PacketUserDefine.cpp
;	COMDAT ?__empty_global_delete@@YAXPAXI@Z
_TEXT	SEGMENT
___formal$ = 8						; size = 4
___formal$ = 12						; size = 4
?__empty_global_delete@@YAXPAXI@Z PROC			; __empty_global_delete, COMDAT

  00000	c2 00 00	 ret	 0
?__empty_global_delete@@YAXPAXI@Z ENDP			; __empty_global_delete
_TEXT	ENDS
; Function compile flags: /Ogtp
; File D:\git\src\IBK\IBK_DRFN\ProjSrc\SrcChartEx\ChartAddIn\ChartDesignPropertyAddIn\ChartDesignPropertyAddIn\PacketUserDefine.cpp
;	COMDAT ?__empty_global_delete@@YAXPAX@Z
_TEXT	SEGMENT
___formal$ = 8						; size = 4
?__empty_global_delete@@YAXPAX@Z PROC			; __empty_global_delete, COMDAT

  00000	c2 00 00	 ret	 0
?__empty_global_delete@@YAXPAX@Z ENDP			; __empty_global_delete
_TEXT	ENDS
END
