; Listing generated by Microsoft (R) Optimizing Compiler Version 19.29.30145.0 

	TITLE	D:\git\src\IBK\IBK_DRFN\#DRfn-CS\_Obj\ChartDesignPropertyAddIn\RealPacketPage.obj
	.686P
	.XMM
	include listing.inc
	.model	flat

INCLUDELIB MSVCRT
INCLUDELIB OLDNAMES

PUBLIC	?__empty_global_delete@@YAXPAX@Z		; __empty_global_delete
PUBLIC	?__empty_global_delete@@YAXPAXI@Z		; __empty_global_delete
PUBLIC	??3CObject@@SGXPAX@Z				; CObject::operator delete
PUBLIC	?Serialize@CObject@@UAEXAAVCArchive@@@Z		; CObject::Serialize
PUBLIC	?AssertValid@CObject@@UBEXXZ			; CObject::AssertValid
PUBLIC	?Dump@CObject@@UBEXAAVCDumpContext@@@Z		; CObject::Dump
PUBLIC	?DoDataExchange@CWnd@@MAEXPAVCDataExchange@@@Z	; CWnd::DoDataExchange
PUBLIC	?BeginModalState@CWnd@@UAEXXZ			; CWnd::BeginModalState
PUBLIC	?EndModalState@CWnd@@UAEXXZ			; CWnd::EndModalState
PUBLIC	?Create@CDialog@@UAEHIPAVCWnd@@@Z		; CDialog::Create
PUBLIC	??_GCComboBox@@UAEPAXI@Z			; CComboBox::`scalar deleting destructor'
PUBLIC	??_GCListCtrl@@UAEPAXI@Z			; CListCtrl::`scalar deleting destructor'
PUBLIC	??1CMultiLanguageResourceSetter@@QAE@XZ		; CMultiLanguageResourceSetter::~CMultiLanguageResourceSetter
PUBLIC	?_GetBaseClass@CRealPacketPage@@KGPAUCRuntimeClass@@XZ ; CRealPacketPage::_GetBaseClass
PUBLIC	?GetThisClass@CRealPacketPage@@SGPAUCRuntimeClass@@XZ ; CRealPacketPage::GetThisClass
PUBLIC	?GetRuntimeClass@CRealPacketPage@@UBEPAUCRuntimeClass@@XZ ; CRealPacketPage::GetRuntimeClass
PUBLIC	?CreateObject@CRealPacketPage@@SGPAVCObject@@XZ	; CRealPacketPage::CreateObject
PUBLIC	??0CRealPacketPage@@QAE@XZ			; CRealPacketPage::CRealPacketPage
PUBLIC	??1CRealPacketPage@@UAE@XZ			; CRealPacketPage::~CRealPacketPage
PUBLIC	?SetRealPacketInfo@CRealPacketPage@@QAEXV?$CStringT@DV?$StrTraitMFC_DLL@DV?$ChTraitsCRT@D@ATL@@@@@ATL@@@Z ; CRealPacketPage::SetRealPacketInfo
PUBLIC	?GetSavedRealPacketInfo@CRealPacketPage@@QAE?AV?$CStringT@DV?$StrTraitMFC_DLL@DV?$ChTraitsCRT@D@ATL@@@@@ATL@@XZ ; CRealPacketPage::GetSavedRealPacketInfo
PUBLIC	?SetProperty@CRealPacketPage@@QAEXPAUIPropertyMap@@@Z ; CRealPacketPage::SetProperty
PUBLIC	?SetKeyName@CRealPacketPage@@QAEXV?$CStringT@DV?$StrTraitMFC_DLL@DV?$ChTraitsCRT@D@ATL@@@@@ATL@@@Z ; CRealPacketPage::SetKeyName
PUBLIC	?OnSetActive@CRealPacketPage@@UAEHXZ		; CRealPacketPage::OnSetActive
PUBLIC	?OnApply@CRealPacketPage@@UAEHXZ		; CRealPacketPage::OnApply
PUBLIC	?OnKillActive@CRealPacketPage@@UAEHXZ		; CRealPacketPage::OnKillActive
PUBLIC	?DoDataExchange@CRealPacketPage@@MAEXPAVCDataExchange@@@Z ; CRealPacketPage::DoDataExchange
PUBLIC	?OnInitDialog@CRealPacketPage@@MAEHXZ		; CRealPacketPage::OnInitDialog
PUBLIC	?OnBtnAdd@CRealPacketPage@@IAEXXZ		; CRealPacketPage::OnBtnAdd
PUBLIC	?OnBtnDel@CRealPacketPage@@IAEXXZ		; CRealPacketPage::OnBtnDel
PUBLIC	?OnSelchangeCmbSharedname@CRealPacketPage@@IAEXXZ ; CRealPacketPage::OnSelchangeCmbSharedname
PUBLIC	?OnSelchangePacketTree@CRealPacketPage@@IAEXXZ	; CRealPacketPage::OnSelchangePacketTree
PUBLIC	?OnSelendokPacketTree@CRealPacketPage@@IAEXXZ	; CRealPacketPage::OnSelendokPacketTree
PUBLIC	?OnSelchangeComboBasepacket@CRealPacketPage@@IAEXXZ ; CRealPacketPage::OnSelchangeComboBasepacket
PUBLIC	?OnBtnEdit@CRealPacketPage@@IAEXXZ		; CRealPacketPage::OnBtnEdit
PUBLIC	?GetThisMessageMap@CRealPacketPage@@KGPBUAFX_MSGMAP@@XZ ; CRealPacketPage::GetThisMessageMap
PUBLIC	?GetMessageMap@CRealPacketPage@@MBEPBUAFX_MSGMAP@@XZ ; CRealPacketPage::GetMessageMap
PUBLIC	?MakeRealList@CRealPacketPage@@AAEXXZ		; CRealPacketPage::MakeRealList
PUBLIC	?InitSharedListCombo@CRealPacketPage@@AAEHPAVCComboBox@@V?$CStringT@DV?$StrTraitMFC_DLL@DV?$ChTraitsCRT@D@ATL@@@@@ATL@@@Z ; CRealPacketPage::InitSharedListCombo
PUBLIC	?GetSelectItem@CRealPacketPage@@AAEHXZ		; CRealPacketPage::GetSelectItem
PUBLIC	?InitList@CRealPacketPage@@AAEXXZ		; CRealPacketPage::InitList
PUBLIC	?AddData@CRealPacketPage@@AAEHV?$CStringT@DV?$StrTraitMFC_DLL@DV?$ChTraitsCRT@D@ATL@@@@@ATL@@000@Z ; CRealPacketPage::AddData
PUBLIC	?InitBasePacketCombo@CRealPacketPage@@AAEXXZ	; CRealPacketPage::InitBasePacketCombo
PUBLIC	?InitPacketListCombo@CRealPacketPage@@AAEXXZ	; CRealPacketPage::InitPacketListCombo
PUBLIC	?Init_AdviseList@CRealPacketPage@@AAEXXZ	; CRealPacketPage::Init_AdviseList
PUBLIC	?SetOcxHwnd@CRealPacketPage@@QAEXPAUHWND__@@@Z	; CRealPacketPage::SetOcxHwnd
PUBLIC	??_GCRealPacketPage@@UAEPAXI@Z			; CRealPacketPage::`scalar deleting destructor'
PUBLIC	??_C@_02DPKJAMEF@?$CFd@				; `string'
PUBLIC	??_C@_00CNPNBAHC@@				; `string'
PUBLIC	??_7CComboBox@@6B@				; CComboBox::`vftable'
PUBLIC	??_7CListCtrl@@6B@				; CListCtrl::`vftable'
PUBLIC	??_R0?AVCObject@@@8				; CObject `RTTI Type Descriptor'
PUBLIC	??_R3CObject@@8					; CObject::`RTTI Class Hierarchy Descriptor'
PUBLIC	??_R2CObject@@8					; CObject::`RTTI Base Class Array'
PUBLIC	??_R1A@?0A@EA@CObject@@8			; CObject::`RTTI Base Class Descriptor at (0,-1,0,64)'
PUBLIC	??_R1A@?0A@EA@CWnd@@8				; CWnd::`RTTI Base Class Descriptor at (0,-1,0,64)'
PUBLIC	??_R0?AVCWnd@@@8				; CWnd `RTTI Type Descriptor'
PUBLIC	??_R3CWnd@@8					; CWnd::`RTTI Class Hierarchy Descriptor'
PUBLIC	??_R2CWnd@@8					; CWnd::`RTTI Base Class Array'
PUBLIC	??_R1A@?0A@EA@CCmdTarget@@8			; CCmdTarget::`RTTI Base Class Descriptor at (0,-1,0,64)'
PUBLIC	??_R0?AVCCmdTarget@@@8				; CCmdTarget `RTTI Type Descriptor'
PUBLIC	??_R3CCmdTarget@@8				; CCmdTarget::`RTTI Class Hierarchy Descriptor'
PUBLIC	??_R2CCmdTarget@@8				; CCmdTarget::`RTTI Base Class Array'
PUBLIC	??_R4CComboBox@@6B@				; CComboBox::`RTTI Complete Object Locator'
PUBLIC	??_R0?AVCComboBox@@@8				; CComboBox `RTTI Type Descriptor'
PUBLIC	??_R3CComboBox@@8				; CComboBox::`RTTI Class Hierarchy Descriptor'
PUBLIC	??_R2CComboBox@@8				; CComboBox::`RTTI Base Class Array'
PUBLIC	??_R1A@?0A@EA@CComboBox@@8			; CComboBox::`RTTI Base Class Descriptor at (0,-1,0,64)'
PUBLIC	??_R1A@?0A@EA@CDialog@@8			; CDialog::`RTTI Base Class Descriptor at (0,-1,0,64)'
PUBLIC	??_R0?AVCDialog@@@8				; CDialog `RTTI Type Descriptor'
PUBLIC	??_R3CDialog@@8					; CDialog::`RTTI Class Hierarchy Descriptor'
PUBLIC	??_R2CDialog@@8					; CDialog::`RTTI Base Class Array'
PUBLIC	??_R4CListCtrl@@6B@				; CListCtrl::`RTTI Complete Object Locator'
PUBLIC	??_R0?AVCListCtrl@@@8				; CListCtrl `RTTI Type Descriptor'
PUBLIC	??_R3CListCtrl@@8				; CListCtrl::`RTTI Class Hierarchy Descriptor'
PUBLIC	??_R2CListCtrl@@8				; CListCtrl::`RTTI Base Class Array'
PUBLIC	??_R1A@?0A@EA@CListCtrl@@8			; CListCtrl::`RTTI Base Class Descriptor at (0,-1,0,64)'
PUBLIC	??_C@_0BA@ENJOCHIO@LoadResourceDLL@		; `string'
PUBLIC	?classCRealPacketPage@CRealPacketPage@@2UCRuntimeClass@@B ; CRealPacketPage::classCRealPacketPage
PUBLIC	??_7CRealPacketPage@@6B@			; CRealPacketPage::`vftable'
PUBLIC	??_C@_01HIHLOKLC@1@				; `string'
PUBLIC	??_C@_0BA@MNPMOCIO@CRealPacketPage@		; `string'
PUBLIC	??_C@_0L@CMKEAEB@Hanaro?4ini@			; `string'
PUBLIC	??_C@_04MCMDPEC@WORK@				; `string'
PUBLIC	??_C@_07EHKOIGEK@CURRENT@			; `string'
PUBLIC	??_C@_04HBHDLLBA@PATH@				; `string'
PUBLIC	??_C@_07DJGOODKM@CFGNAME@			; `string'
PUBLIC	??_C@_09NADJJCNC@?$CFs?2bin?2?$CFs@		; `string'
PUBLIC	??_C@_05MEOKPOAG@?2bin?2@			; `string'
PUBLIC	??_C@_0N@DOMKEPNC@Chart?5Packet@		; `string'
PUBLIC	??_C@_0N@NIEAPEJO@Packet?5Name?5@		; `string'
PUBLIC	??_C@_0L@FCEOBPAF@Field?5Name@			; `string'
PUBLIC	??_C@_08JPLKPJEF@Key?5Name@			; `string'
PUBLIC	??_C@_01ICJEACDI@?$DL@				; `string'
PUBLIC	??_C@_01LFCBOECM@?4@				; `string'
PUBLIC	??_C@_0N@MGGJGPKC@?$CFs?4?$CFs?4?$CFs?4?$CFs?$DL@ ; `string'
PUBLIC	??_C@_0L@JMBPGHHJ@?$CDDateTime?$CD@		; `string'
PUBLIC	??_C@_01GBGANLPD@0@				; `string'
PUBLIC	??_R4CRealPacketPage@@6B@			; CRealPacketPage::`RTTI Complete Object Locator'
PUBLIC	??_R0?AVCRealPacketPage@@@8			; CRealPacketPage `RTTI Type Descriptor'
PUBLIC	??_R3CRealPacketPage@@8				; CRealPacketPage::`RTTI Class Hierarchy Descriptor'
PUBLIC	??_R2CRealPacketPage@@8				; CRealPacketPage::`RTTI Base Class Array'
PUBLIC	??_R1A@?0A@EA@CRealPacketPage@@8		; CRealPacketPage::`RTTI Base Class Descriptor at (0,-1,0,64)'
PUBLIC	??_R1A@?0A@EA@CPropertyPage@@8			; CPropertyPage::`RTTI Base Class Descriptor at (0,-1,0,64)'
PUBLIC	??_R0?AVCPropertyPage@@@8			; CPropertyPage `RTTI Type Descriptor'
PUBLIC	??_R3CPropertyPage@@8				; CPropertyPage::`RTTI Class Hierarchy Descriptor'
PUBLIC	??_R2CPropertyPage@@8				; CPropertyPage::`RTTI Base Class Array'
EXTRN	??2@YAPAXI@Z:PROC				; operator new
EXTRN	??3@YAXPAX@Z:PROC				; operator delete
EXTRN	?__global_delete@@YAXPAXI@Z:PROC		; __global_delete
EXTRN	___std_terminate:PROC
EXTRN	__imp__GetProcAddress@8:PROC
EXTRN	__imp__GetPrivateProfileStringA@24:PROC
EXTRN	__imp__SendMessageA@16:PROC
EXTRN	__imp__EnableWindow@8:PROC
EXTRN	__imp__GetWindowRect@8:PROC
EXTRN	__imp__atoi:PROC
EXTRN	__imp_??A?$CSimpleStringT@D$00@ATL@@QBEDH@Z:PROC
EXTRN	__imp_??0?$CStringT@DV?$StrTraitMFC_DLL@DV?$ChTraitsCRT@D@ATL@@@@@ATL@@QAE@XZ:PROC
EXTRN	__imp_??0?$CStringT@DV?$StrTraitMFC_DLL@DV?$ChTraitsCRT@D@ATL@@@@@ATL@@QAE@ABV01@@Z:PROC
EXTRN	__imp_??0?$CStringT@DV?$StrTraitMFC_DLL@DV?$ChTraitsCRT@D@ATL@@@@@ATL@@QAE@PBD@Z:PROC
EXTRN	__imp_??1?$CStringT@DV?$StrTraitMFC_DLL@DV?$ChTraitsCRT@D@ATL@@@@@ATL@@QAE@XZ:PROC
EXTRN	__imp_??4?$CStringT@DV?$StrTraitMFC_DLL@DV?$ChTraitsCRT@D@ATL@@@@@ATL@@QAEAAV01@ABV01@@Z:PROC
EXTRN	__imp_??4?$CStringT@DV?$StrTraitMFC_DLL@DV?$ChTraitsCRT@D@ATL@@@@@ATL@@QAEAAV01@PBD@Z:PROC
EXTRN	__imp_??Y?$CStringT@DV?$StrTraitMFC_DLL@DV?$ChTraitsCRT@D@ATL@@@@@ATL@@QAEAAV01@ABV?$CSimpleStringT@D$00@1@@Z:PROC
EXTRN	__imp_??Y?$CStringT@DV?$StrTraitMFC_DLL@DV?$ChTraitsCRT@D@ATL@@@@@ATL@@QAEAAV01@PBD@Z:PROC
EXTRN	__imp_?Compare@?$CStringT@DV?$StrTraitMFC_DLL@DV?$ChTraitsCRT@D@ATL@@@@@ATL@@QBEHPBD@Z:PROC
EXTRN	__imp_?Find@?$CStringT@DV?$StrTraitMFC_DLL@DV?$ChTraitsCRT@D@ATL@@@@@ATL@@QBEHPBDH@Z:PROC
EXTRN	__imp_?TrimRight@?$CStringT@DV?$StrTraitMFC_DLL@DV?$ChTraitsCRT@D@ATL@@@@@ATL@@QAEAAV12@XZ:PROC
EXTRN	__imp_?Mid@?$CStringT@DV?$StrTraitMFC_DLL@DV?$ChTraitsCRT@D@ATL@@@@@ATL@@QBE?AV12@H@Z:PROC
EXTRN	__imp_?Left@?$CStringT@DV?$StrTraitMFC_DLL@DV?$ChTraitsCRT@D@ATL@@@@@ATL@@QBE?AV12@H@Z:PROC
EXTRN	__imp_?Format@?$CStringT@DV?$StrTraitMFC_DLL@DV?$ChTraitsCRT@D@ATL@@@@@ATL@@QAAXPBDZZ:PROC
EXTRN	__imp_?LoadStringA@?$CStringT@DV?$StrTraitMFC_DLL@DV?$ChTraitsCRT@D@ATL@@@@@ATL@@QAEHI@Z:PROC
EXTRN	?AfxGetModuleState@@YGPAVAFX_MODULE_STATE@@XZ:PROC ; AfxGetModuleState
EXTRN	?AfxGetStaticModuleState@@YGPAVAFX_MODULE_STATE@@XZ:PROC ; AfxGetStaticModuleState
EXTRN	?DDX_Text@@YGXPAVCDataExchange@@HAAH@Z:PROC	; DDX_Text
EXTRN	?DDX_Text@@YGXPAVCDataExchange@@HAAV?$CStringT@DV?$StrTraitMFC_DLL@DV?$ChTraitsCRT@D@ATL@@@@@ATL@@@Z:PROC ; DDX_Text
EXTRN	?DDX_Check@@YGXPAVCDataExchange@@HAAH@Z:PROC	; DDX_Check
EXTRN	?DDX_CBString@@YGXPAVCDataExchange@@HAAV?$CStringT@DV?$StrTraitMFC_DLL@DV?$ChTraitsCRT@D@ATL@@@@@ATL@@@Z:PROC ; DDX_CBString
EXTRN	?DDX_Control@@YGXPAVCDataExchange@@HAAVCWnd@@@Z:PROC ; DDX_Control
EXTRN	?OnCmdMsg@CCmdTarget@@UAEHIHPAXPAUAFX_CMDHANDLERINFO@@@Z:PROC ; CCmdTarget::OnCmdMsg
EXTRN	?IsInvokeAllowed@CCmdTarget@@UAEHJ@Z:PROC	; CCmdTarget::IsInvokeAllowed
EXTRN	?GetDispatchIID@CCmdTarget@@UAEHPAU_GUID@@@Z:PROC ; CCmdTarget::GetDispatchIID
EXTRN	?GetTypeInfoCount@CCmdTarget@@UAEIXZ:PROC	; CCmdTarget::GetTypeInfoCount
EXTRN	?GetTypeLibCache@CCmdTarget@@UAEPAVCTypeLibCache@@XZ:PROC ; CCmdTarget::GetTypeLibCache
EXTRN	?GetTypeLib@CCmdTarget@@UAEJKPAPAUITypeLib@@@Z:PROC ; CCmdTarget::GetTypeLib
EXTRN	?GetCommandMap@CCmdTarget@@MBEPBUAFX_OLECMDMAP@@XZ:PROC ; CCmdTarget::GetCommandMap
EXTRN	?GetDispatchMap@CCmdTarget@@MBEPBUAFX_DISPMAP@@XZ:PROC ; CCmdTarget::GetDispatchMap
EXTRN	?GetConnectionMap@CCmdTarget@@MBEPBUAFX_CONNECTIONMAP@@XZ:PROC ; CCmdTarget::GetConnectionMap
EXTRN	?GetEventSinkMap@CCmdTarget@@MBEPBUAFX_EVENTSINKMAP@@XZ:PROC ; CCmdTarget::GetEventSinkMap
EXTRN	?OnCreateAggregates@CCmdTarget@@UAEHXZ:PROC	; CCmdTarget::OnCreateAggregates
EXTRN	?GetInterfaceHook@CCmdTarget@@UAEPAUIUnknown@@PBX@Z:PROC ; CCmdTarget::GetInterfaceHook
EXTRN	?GetExtraConnectionPoints@CCmdTarget@@MAEHPAVCPtrArray@@@Z:PROC ; CCmdTarget::GetExtraConnectionPoints
EXTRN	?GetConnectionHook@CCmdTarget@@MAEPAUIConnectionPoint@@ABU_GUID@@@Z:PROC ; CCmdTarget::GetConnectionHook
EXTRN	??0CWnd@@QAE@XZ:PROC				; CWnd::CWnd
EXTRN	?PreSubclassWindow@CWnd@@UAEXXZ:PROC		; CWnd::PreSubclassWindow
EXTRN	?Create@CWnd@@UAEHPBD0KABUtagRECT@@PAV1@IPAUCCreateContext@@@Z:PROC ; CWnd::Create
EXTRN	?CreateEx@CWnd@@UAEHKPBD0KHHHHPAUHWND__@@PAUHMENU__@@PAX@Z:PROC ; CWnd::CreateEx
EXTRN	?CreateEx@CWnd@@UAEHKPBD0KABUtagRECT@@PAV1@IPAX@Z:PROC ; CWnd::CreateEx
EXTRN	?DestroyWindow@CWnd@@UAEHXZ:PROC		; CWnd::DestroyWindow
EXTRN	?PreCreateWindow@CWnd@@UAEHAAUtagCREATESTRUCTA@@@Z:PROC ; CWnd::PreCreateWindow
EXTRN	?CalcWindowRect@CWnd@@UAEXPAUtagRECT@@I@Z:PROC	; CWnd::CalcWindowRect
EXTRN	?GetDlgItem@CWnd@@QBEPAV1@H@Z:PROC		; CWnd::GetDlgItem
EXTRN	?SetWindowTextA@CWnd@@QAEXPBD@Z:PROC		; CWnd::SetWindowTextA
EXTRN	?GetWindowTextA@CWnd@@QBEXAAV?$CStringT@DV?$StrTraitMFC_DLL@DV?$ChTraitsCRT@D@ATL@@@@@ATL@@@Z:PROC ; CWnd::GetWindowTextA
EXTRN	?GetMenu@CWnd@@UBEPAVCMenu@@XZ:PROC		; CWnd::GetMenu
EXTRN	?SetMenu@CWnd@@UAEHPAVCMenu@@@Z:PROC		; CWnd::SetMenu
EXTRN	?OnToolHitTest@CWnd@@UBEHVCPoint@@PAUtagTOOLINFOA@@@Z:PROC ; CWnd::OnToolHitTest
EXTRN	?EnableWindow@CWnd@@QAEHH@Z:PROC		; CWnd::EnableWindow
EXTRN	?GetScrollBarCtrl@CWnd@@UBEPAVCScrollBar@@H@Z:PROC ; CWnd::GetScrollBarCtrl
EXTRN	?UpdateData@CWnd@@QAEHH@Z:PROC			; CWnd::UpdateData
EXTRN	?WinHelpA@CWnd@@UAEXKI@Z:PROC			; CWnd::WinHelpA
EXTRN	?HtmlHelpA@CWnd@@UAEXKI@Z:PROC			; CWnd::HtmlHelpA
EXTRN	?WinHelpInternal@CWnd@@UAEXKI@Z:PROC		; CWnd::WinHelpInternal
EXTRN	?ContinueModal@CWnd@@UAEHXZ:PROC		; CWnd::ContinueModal
EXTRN	?EndModalLoop@CWnd@@UAEXH@Z:PROC		; CWnd::EndModalLoop
EXTRN	?OnDrawIconicThumbnailOrLivePreview@CWnd@@UAEXAAVCDC@@VCRect@@VCSize@@HAAH@Z:PROC ; CWnd::OnDrawIconicThumbnailOrLivePreview
EXTRN	?GetInterfaceMap@CWnd@@MBEPBUAFX_INTERFACEMAP@@XZ:PROC ; CWnd::GetInterfaceMap
EXTRN	?EnsureStdObj@CWnd@@UAEJXZ:PROC			; CWnd::EnsureStdObj
EXTRN	?get_accParent@CWnd@@UAEJPAPAUIDispatch@@@Z:PROC ; CWnd::get_accParent
EXTRN	?get_accChildCount@CWnd@@UAEJPAJ@Z:PROC		; CWnd::get_accChildCount
EXTRN	?get_accChild@CWnd@@UAEJUtagVARIANT@@PAPAUIDispatch@@@Z:PROC ; CWnd::get_accChild
EXTRN	?get_accName@CWnd@@UAEJUtagVARIANT@@PAPA_W@Z:PROC ; CWnd::get_accName
EXTRN	?get_accValue@CWnd@@UAEJUtagVARIANT@@PAPA_W@Z:PROC ; CWnd::get_accValue
EXTRN	?get_accDescription@CWnd@@UAEJUtagVARIANT@@PAPA_W@Z:PROC ; CWnd::get_accDescription
EXTRN	?get_accRole@CWnd@@UAEJUtagVARIANT@@PAU2@@Z:PROC ; CWnd::get_accRole
EXTRN	?get_accState@CWnd@@UAEJUtagVARIANT@@PAU2@@Z:PROC ; CWnd::get_accState
EXTRN	?get_accHelp@CWnd@@UAEJUtagVARIANT@@PAPA_W@Z:PROC ; CWnd::get_accHelp
EXTRN	?get_accHelpTopic@CWnd@@UAEJPAPA_WUtagVARIANT@@PAJ@Z:PROC ; CWnd::get_accHelpTopic
EXTRN	?get_accKeyboardShortcut@CWnd@@UAEJUtagVARIANT@@PAPA_W@Z:PROC ; CWnd::get_accKeyboardShortcut
EXTRN	?get_accFocus@CWnd@@UAEJPAUtagVARIANT@@@Z:PROC	; CWnd::get_accFocus
EXTRN	?get_accSelection@CWnd@@UAEJPAUtagVARIANT@@@Z:PROC ; CWnd::get_accSelection
EXTRN	?get_accDefaultAction@CWnd@@UAEJUtagVARIANT@@PAPA_W@Z:PROC ; CWnd::get_accDefaultAction
EXTRN	?accSelect@CWnd@@UAEJJUtagVARIANT@@@Z:PROC	; CWnd::accSelect
EXTRN	?accLocation@CWnd@@UAEJPAJ000UtagVARIANT@@@Z:PROC ; CWnd::accLocation
EXTRN	?accNavigate@CWnd@@UAEJJUtagVARIANT@@PAU2@@Z:PROC ; CWnd::accNavigate
EXTRN	?accHitTest@CWnd@@UAEJJJPAUtagVARIANT@@@Z:PROC	; CWnd::accHitTest
EXTRN	?accDoDefaultAction@CWnd@@UAEJUtagVARIANT@@@Z:PROC ; CWnd::accDoDefaultAction
EXTRN	?put_accName@CWnd@@UAEJUtagVARIANT@@PA_W@Z:PROC	; CWnd::put_accName
EXTRN	?put_accValue@CWnd@@UAEJUtagVARIANT@@PA_W@Z:PROC ; CWnd::put_accValue
EXTRN	?SetProxy@CWnd@@UAEJPAUIAccessibleProxy@@@Z:PROC ; CWnd::SetProxy
EXTRN	?CreateAccessibleProxy@CWnd@@UAEJIJPAJ@Z:PROC	; CWnd::CreateAccessibleProxy
EXTRN	?OnCommand@CWnd@@MAEHIJ@Z:PROC			; CWnd::OnCommand
EXTRN	?OnNotify@CWnd@@MAEHIJPAJ@Z:PROC		; CWnd::OnNotify
EXTRN	?GetSuperWndProcAddr@CWnd@@MAEPAP6GJPAUHWND__@@IIJ@ZXZ:PROC ; CWnd::GetSuperWndProcAddr
EXTRN	?PreTranslateMessage@CWnd@@UAEHPAUtagMSG@@@Z:PROC ; CWnd::PreTranslateMessage
EXTRN	?OnAmbientProperty@CWnd@@UAEHPAVCOleControlSite@@JPAUtagVARIANT@@@Z:PROC ; CWnd::OnAmbientProperty
EXTRN	?WindowProc@CWnd@@MAEJIIJ@Z:PROC		; CWnd::WindowProc
EXTRN	?OnWndMsg@CWnd@@MAEHIIJPAJ@Z:PROC		; CWnd::OnWndMsg
EXTRN	?DefWindowProcA@CWnd@@MAEJIIJ@Z:PROC		; CWnd::DefWindowProcA
EXTRN	?PostNcDestroy@CWnd@@MAEXXZ:PROC		; CWnd::PostNcDestroy
EXTRN	?OnChildNotify@CWnd@@MAEHIIJPAJ@Z:PROC		; CWnd::OnChildNotify
EXTRN	?OnTouchInputs@CWnd@@MAEHIPAUtagTOUCHINPUT@@@Z:PROC ; CWnd::OnTouchInputs
EXTRN	?OnTouchInput@CWnd@@MAEHVCPoint@@HHPAUtagTOUCHINPUT@@@Z:PROC ; CWnd::OnTouchInput
EXTRN	?GetGestureStatus@CWnd@@MAEKVCPoint@@@Z:PROC	; CWnd::GetGestureStatus
EXTRN	?OnGestureZoom@CWnd@@MAEHVCPoint@@J@Z:PROC	; CWnd::OnGestureZoom
EXTRN	?OnGesturePan@CWnd@@MAEHVCPoint@@0@Z:PROC	; CWnd::OnGesturePan
EXTRN	?OnGestureRotate@CWnd@@MAEHVCPoint@@N@Z:PROC	; CWnd::OnGestureRotate
EXTRN	?OnGestureTwoFingerTap@CWnd@@MAEHVCPoint@@@Z:PROC ; CWnd::OnGestureTwoFingerTap
EXTRN	?OnGesturePressAndTap@CWnd@@MAEHVCPoint@@J@Z:PROC ; CWnd::OnGesturePressAndTap
EXTRN	?ResizeDynamicLayout@CWnd@@MAEXXZ:PROC		; CWnd::ResizeDynamicLayout
EXTRN	?CheckAutoCenter@CWnd@@UAEHXZ:PROC		; CWnd::CheckAutoCenter
EXTRN	?IsFrameWnd@CWnd@@UBEHXZ:PROC			; CWnd::IsFrameWnd
EXTRN	?OnFinalRelease@CWnd@@UAEXXZ:PROC		; CWnd::OnFinalRelease
EXTRN	?CreateControlContainer@CWnd@@MAEHPAPAVCOleControlContainer@@@Z:PROC ; CWnd::CreateControlContainer
EXTRN	?CreateControlSite@CWnd@@MAEHPAVCOleControlContainer@@PAPAVCOleControlSite@@IABU_GUID@@@Z:PROC ; CWnd::CreateControlSite
EXTRN	?SetOccDialogInfo@CWnd@@MAEHPAU_AFX_OCC_DIALOG_INFO@@@Z:PROC ; CWnd::SetOccDialogInfo
EXTRN	?GetOccDialogInfo@CWnd@@MAEPAU_AFX_OCC_DIALOG_INFO@@XZ:PROC ; CWnd::GetOccDialogInfo
EXTRN	?GetMessageMap@CWnd@@MBEPBUAFX_MSGMAP@@XZ:PROC	; CWnd::GetMessageMap
EXTRN	?Create@CDialog@@UAEHPBDPAVCWnd@@@Z:PROC	; CDialog::Create
EXTRN	?CreateIndirect@CDialog@@UAEHPBUDLGTEMPLATE@@PAVCWnd@@PAX@Z:PROC ; CDialog::CreateIndirect
EXTRN	?CreateIndirect@CDialog@@UAEHPAXPAVCWnd@@@Z:PROC ; CDialog::CreateIndirect
EXTRN	?DoModal@CDialog@@UAEHXZ:PROC			; CDialog::DoModal
EXTRN	?OnInitDialog@CDialog@@UAEHXZ:PROC		; CDialog::OnInitDialog
EXTRN	?OnSetFont@CDialog@@UAEXPAVCFont@@@Z:PROC	; CDialog::OnSetFont
EXTRN	?OnCmdMsg@CDialog@@UAEHIHPAXPAUAFX_CMDHANDLERINFO@@@Z:PROC ; CDialog::OnCmdMsg
EXTRN	?CheckAutoCenter@CDialog@@UAEHXZ:PROC		; CDialog::CheckAutoCenter
EXTRN	?SetOccDialogInfo@CDialog@@MAEHPAU_AFX_OCC_DIALOG_INFO@@@Z:PROC ; CDialog::SetOccDialogInfo
EXTRN	?GetOccDialogInfo@CDialog@@MAEPAU_AFX_OCC_DIALOG_INFO@@XZ:PROC ; CDialog::GetOccDialogInfo
EXTRN	?PreInitDialog@CDialog@@MAEXXZ:PROC		; CDialog::PreInitDialog
EXTRN	?GetRuntimeClass@CComboBox@@UBEPAUCRuntimeClass@@XZ:PROC ; CComboBox::GetRuntimeClass
EXTRN	?Create@CComboBox@@UAEHKABUtagRECT@@PAVCWnd@@I@Z:PROC ; CComboBox::Create
EXTRN	?GetLBText@CComboBox@@QBEXHAAV?$CStringT@DV?$StrTraitMFC_DLL@DV?$ChTraitsCRT@D@ATL@@@@@ATL@@@Z:PROC ; CComboBox::GetLBText
EXTRN	?DrawItem@CComboBox@@UAEXPAUtagDRAWITEMSTRUCT@@@Z:PROC ; CComboBox::DrawItem
EXTRN	?MeasureItem@CComboBox@@UAEXPAUtagMEASUREITEMSTRUCT@@@Z:PROC ; CComboBox::MeasureItem
EXTRN	?CompareItem@CComboBox@@UAEHPAUtagCOMPAREITEMSTRUCT@@@Z:PROC ; CComboBox::CompareItem
EXTRN	?DeleteItem@CComboBox@@UAEXPAUtagDELETEITEMSTRUCT@@@Z:PROC ; CComboBox::DeleteItem
EXTRN	??1CComboBox@@UAE@XZ:PROC			; CComboBox::~CComboBox
EXTRN	?OnChildNotify@CComboBox@@MAEHIIJPAJ@Z:PROC	; CComboBox::OnChildNotify
EXTRN	??_ECComboBox@@UAEPAXI@Z:PROC			; CComboBox::`vector deleting destructor'
EXTRN	?AfxMessageBox@@YGHPBDII@Z:PROC			; AfxMessageBox
EXTRN	?GetThisClass@CPropertyPage@@SGPAUCRuntimeClass@@XZ:PROC ; CPropertyPage::GetThisClass
EXTRN	??0CPropertyPage@@QAE@IIK@Z:PROC		; CPropertyPage::CPropertyPage
EXTRN	?OnApply@CPropertyPage@@UAEHXZ:PROC		; CPropertyPage::OnApply
EXTRN	?OnReset@CPropertyPage@@UAEXXZ:PROC		; CPropertyPage::OnReset
EXTRN	?OnOK@CPropertyPage@@UAEXXZ:PROC		; CPropertyPage::OnOK
EXTRN	?OnCancel@CPropertyPage@@UAEXXZ:PROC		; CPropertyPage::OnCancel
EXTRN	?OnSetActive@CPropertyPage@@UAEHXZ:PROC		; CPropertyPage::OnSetActive
EXTRN	?OnKillActive@CPropertyPage@@UAEHXZ:PROC	; CPropertyPage::OnKillActive
EXTRN	?OnQueryCancel@CPropertyPage@@UAEHXZ:PROC	; CPropertyPage::OnQueryCancel
EXTRN	?OnWizardBack@CPropertyPage@@UAEJXZ:PROC	; CPropertyPage::OnWizardBack
EXTRN	?OnWizardNext@CPropertyPage@@UAEJXZ:PROC	; CPropertyPage::OnWizardNext
EXTRN	?OnWizardFinish@CPropertyPage@@UAEHXZ:PROC	; CPropertyPage::OnWizardFinish
EXTRN	?OnWizardFinishEx@CPropertyPage@@UAEPAUHWND__@@XZ:PROC ; CPropertyPage::OnWizardFinishEx
EXTRN	?GetParentSheet@CPropertyPage@@UAEPAVCPropertySheet@@XZ:PROC ; CPropertyPage::GetParentSheet
EXTRN	??1CPropertyPage@@UAE@XZ:PROC			; CPropertyPage::~CPropertyPage
EXTRN	?OnNotify@CPropertyPage@@MAEHIJPAJ@Z:PROC	; CPropertyPage::OnNotify
EXTRN	?PreTranslateMessage@CPropertyPage@@MAEHPAUtagMSG@@@Z:PROC ; CPropertyPage::PreTranslateMessage
EXTRN	?GetThisMessageMap@CPropertyPage@@KGPBUAFX_MSGMAP@@XZ:PROC ; CPropertyPage::GetThisMessageMap
EXTRN	?GetRuntimeClass@CListCtrl@@UBEPAUCRuntimeClass@@XZ:PROC ; CListCtrl::GetRuntimeClass
EXTRN	?GetItemText@CListCtrl@@QBE?AV?$CStringT@DV?$StrTraitMFC_DLL@DV?$ChTraitsCRT@D@ATL@@@@@ATL@@HH@Z:PROC ; CListCtrl::GetItemText
EXTRN	?SetItemText@CListCtrl@@QAEHHHPBD@Z:PROC	; CListCtrl::SetItemText
EXTRN	?InsertColumn@CListCtrl@@QAEHHPBDHHH@Z:PROC	; CListCtrl::InsertColumn
EXTRN	?DrawItem@CListCtrl@@UAEXPAUtagDRAWITEMSTRUCT@@@Z:PROC ; CListCtrl::DrawItem
EXTRN	?InsertItem@CListCtrl@@QAEHIHPBDIIHJ@Z:PROC	; CListCtrl::InsertItem
EXTRN	??1CListCtrl@@UAE@XZ:PROC			; CListCtrl::~CListCtrl
EXTRN	?OnChildNotify@CListCtrl@@MAEHIIJPAJ@Z:PROC	; CListCtrl::OnChildNotify
EXTRN	?GetMessageMap@CListCtrl@@MBEPBUAFX_MSGMAP@@XZ:PROC ; CListCtrl::GetMessageMap
EXTRN	??_ECListCtrl@@UAEPAXI@Z:PROC			; CListCtrl::`vector deleting destructor'
EXTRN	?GetMetaText@IMetaTable@@QAEPBDPAUHWND__@@W4E_CODEPAGE@1@PBDH@Z:PROC ; IMetaTable::GetMetaText
EXTRN	?GetLanguageText@IMetaTable@@QAEPBDPAUHWND__@@W4E_CODEPAGE@1@PBDH@Z:PROC ; IMetaTable::GetLanguageText
EXTRN	??0CTreeCombo@@QAE@XZ:PROC			; CTreeCombo::CTreeCombo
EXTRN	?GetCurrentTreePath@CTreeCombo@@QAE?AV?$CStringT@DV?$StrTraitMFC_DLL@DV?$ChTraitsCRT@D@ATL@@@@@ATL@@XZ:PROC ; CTreeCombo::GetCurrentTreePath
EXTRN	?LoadTableInfo@CTreeCombo@@QAEHV?$CStringT@DV?$StrTraitMFC_DLL@DV?$ChTraitsCRT@D@ATL@@@@@ATL@@@Z:PROC ; CTreeCombo::LoadTableInfo
EXTRN	??1CTreeCombo@@UAE@XZ:PROC			; CTreeCombo::~CTreeCombo
EXTRN	??0CNoSystemMenuEdit@@QAE@XZ:PROC		; CNoSystemMenuEdit::CNoSystemMenuEdit
EXTRN	??1CNoSystemMenuEdit@@UAE@XZ:PROC		; CNoSystemMenuEdit::~CNoSystemMenuEdit
EXTRN	??_ECRealPacketPage@@UAEPAXI@Z:PROC		; CRealPacketPage::`vector deleting destructor'
EXTRN	?GetStringData@CDataConversion@@SA?AV?$CStringT@DV?$StrTraitMFC_DLL@DV?$ChTraitsCRT@D@ATL@@@@@ATL@@AAV23@ABV23@_N@Z:PROC ; CDataConversion::GetStringData
EXTRN	@__security_check_cookie@4:PROC
EXTRN	___CxxFrameHandler3:PROC
EXTRN	??_7type_info@@6B@:QWORD			; type_info::`vftable'
EXTRN	?g_iMetaTable@@3VIMetaTable@@A:BYTE		; g_iMetaTable
EXTRN	?g_anPropertyShortKey@@3PAPADA:BYTE		; g_anPropertyShortKey
EXTRN	___security_cookie:DWORD
;	COMDAT ??_R2CPropertyPage@@8
rdata$r	SEGMENT
??_R2CPropertyPage@@8 DD FLAT:??_R1A@?0A@EA@CPropertyPage@@8 ; CPropertyPage::`RTTI Base Class Array'
	DD	FLAT:??_R1A@?0A@EA@CDialog@@8
	DD	FLAT:??_R1A@?0A@EA@CWnd@@8
	DD	FLAT:??_R1A@?0A@EA@CCmdTarget@@8
	DD	FLAT:??_R1A@?0A@EA@CObject@@8
rdata$r	ENDS
;	COMDAT ??_R3CPropertyPage@@8
rdata$r	SEGMENT
??_R3CPropertyPage@@8 DD 00H				; CPropertyPage::`RTTI Class Hierarchy Descriptor'
	DD	00H
	DD	05H
	DD	FLAT:??_R2CPropertyPage@@8
rdata$r	ENDS
;	COMDAT ??_R0?AVCPropertyPage@@@8
data$rs	SEGMENT
??_R0?AVCPropertyPage@@@8 DD FLAT:??_7type_info@@6B@	; CPropertyPage `RTTI Type Descriptor'
	DD	00H
	DB	'.?AVCPropertyPage@@', 00H
data$rs	ENDS
;	COMDAT ??_R1A@?0A@EA@CPropertyPage@@8
rdata$r	SEGMENT
??_R1A@?0A@EA@CPropertyPage@@8 DD FLAT:??_R0?AVCPropertyPage@@@8 ; CPropertyPage::`RTTI Base Class Descriptor at (0,-1,0,64)'
	DD	04H
	DD	00H
	DD	0ffffffffH
	DD	00H
	DD	040H
	DD	FLAT:??_R3CPropertyPage@@8
rdata$r	ENDS
;	COMDAT ??_R1A@?0A@EA@CRealPacketPage@@8
rdata$r	SEGMENT
??_R1A@?0A@EA@CRealPacketPage@@8 DD FLAT:??_R0?AVCRealPacketPage@@@8 ; CRealPacketPage::`RTTI Base Class Descriptor at (0,-1,0,64)'
	DD	05H
	DD	00H
	DD	0ffffffffH
	DD	00H
	DD	040H
	DD	FLAT:??_R3CRealPacketPage@@8
rdata$r	ENDS
;	COMDAT ??_R2CRealPacketPage@@8
rdata$r	SEGMENT
??_R2CRealPacketPage@@8 DD FLAT:??_R1A@?0A@EA@CRealPacketPage@@8 ; CRealPacketPage::`RTTI Base Class Array'
	DD	FLAT:??_R1A@?0A@EA@CPropertyPage@@8
	DD	FLAT:??_R1A@?0A@EA@CDialog@@8
	DD	FLAT:??_R1A@?0A@EA@CWnd@@8
	DD	FLAT:??_R1A@?0A@EA@CCmdTarget@@8
	DD	FLAT:??_R1A@?0A@EA@CObject@@8
rdata$r	ENDS
;	COMDAT ??_R3CRealPacketPage@@8
rdata$r	SEGMENT
??_R3CRealPacketPage@@8 DD 00H				; CRealPacketPage::`RTTI Class Hierarchy Descriptor'
	DD	00H
	DD	06H
	DD	FLAT:??_R2CRealPacketPage@@8
rdata$r	ENDS
;	COMDAT ??_R0?AVCRealPacketPage@@@8
data$rs	SEGMENT
??_R0?AVCRealPacketPage@@@8 DD FLAT:??_7type_info@@6B@	; CRealPacketPage `RTTI Type Descriptor'
	DD	00H
	DB	'.?AVCRealPacketPage@@', 00H
data$rs	ENDS
;	COMDAT ??_R4CRealPacketPage@@6B@
rdata$r	SEGMENT
??_R4CRealPacketPage@@6B@ DD 00H			; CRealPacketPage::`RTTI Complete Object Locator'
	DD	00H
	DD	00H
	DD	FLAT:??_R0?AVCRealPacketPage@@@8
	DD	FLAT:??_R3CRealPacketPage@@8
rdata$r	ENDS
;	COMDAT ??_C@_01GBGANLPD@0@
CONST	SEGMENT
??_C@_01GBGANLPD@0@ DB '0', 00H				; `string'
CONST	ENDS
;	COMDAT ??_C@_0L@JMBPGHHJ@?$CDDateTime?$CD@
CONST	SEGMENT
??_C@_0L@JMBPGHHJ@?$CDDateTime?$CD@ DB '#DateTime#', 00H ; `string'
CONST	ENDS
;	COMDAT ??_C@_0N@MGGJGPKC@?$CFs?4?$CFs?4?$CFs?4?$CFs?$DL@
CONST	SEGMENT
??_C@_0N@MGGJGPKC@?$CFs?4?$CFs?4?$CFs?4?$CFs?$DL@ DB '%s.%s.%s.%s;', 00H ; `string'
CONST	ENDS
;	COMDAT ??_C@_01LFCBOECM@?4@
CONST	SEGMENT
??_C@_01LFCBOECM@?4@ DB '.', 00H			; `string'
CONST	ENDS
;	COMDAT ??_C@_01ICJEACDI@?$DL@
CONST	SEGMENT
??_C@_01ICJEACDI@?$DL@ DB ';', 00H			; `string'
CONST	ENDS
;	COMDAT ??_C@_08JPLKPJEF@Key?5Name@
CONST	SEGMENT
??_C@_08JPLKPJEF@Key?5Name@ DB 'Key Name', 00H		; `string'
CONST	ENDS
;	COMDAT ??_C@_0L@FCEOBPAF@Field?5Name@
CONST	SEGMENT
??_C@_0L@FCEOBPAF@Field?5Name@ DB 'Field Name', 00H	; `string'
CONST	ENDS
;	COMDAT ??_C@_0N@NIEAPEJO@Packet?5Name?5@
CONST	SEGMENT
??_C@_0N@NIEAPEJO@Packet?5Name?5@ DB 'Packet Name ', 00H ; `string'
CONST	ENDS
;	COMDAT ??_C@_0N@DOMKEPNC@Chart?5Packet@
CONST	SEGMENT
??_C@_0N@DOMKEPNC@Chart?5Packet@ DB 'Chart Packet', 00H	; `string'
CONST	ENDS
;	COMDAT ??_C@_05MEOKPOAG@?2bin?2@
CONST	SEGMENT
??_C@_05MEOKPOAG@?2bin?2@ DB '\bin\', 00H		; `string'
CONST	ENDS
;	COMDAT ??_C@_09NADJJCNC@?$CFs?2bin?2?$CFs@
CONST	SEGMENT
??_C@_09NADJJCNC@?$CFs?2bin?2?$CFs@ DB '%s\bin\%s', 00H	; `string'
CONST	ENDS
;	COMDAT ??_C@_07DJGOODKM@CFGNAME@
CONST	SEGMENT
??_C@_07DJGOODKM@CFGNAME@ DB 'CFGNAME', 00H		; `string'
CONST	ENDS
;	COMDAT ??_C@_04HBHDLLBA@PATH@
CONST	SEGMENT
??_C@_04HBHDLLBA@PATH@ DB 'PATH', 00H			; `string'
CONST	ENDS
;	COMDAT ??_C@_07EHKOIGEK@CURRENT@
CONST	SEGMENT
??_C@_07EHKOIGEK@CURRENT@ DB 'CURRENT', 00H		; `string'
CONST	ENDS
;	COMDAT ??_C@_04MCMDPEC@WORK@
CONST	SEGMENT
??_C@_04MCMDPEC@WORK@ DB 'WORK', 00H			; `string'
CONST	ENDS
;	COMDAT ??_C@_0L@CMKEAEB@Hanaro?4ini@
CONST	SEGMENT
??_C@_0L@CMKEAEB@Hanaro?4ini@ DB 'Hanaro.ini', 00H	; `string'
CONST	ENDS
;	COMDAT ?messageMap@?1??GetThisMessageMap@CRealPacketPage@@KGPBUAFX_MSGMAP@@XZ@4U3@B
CONST	SEGMENT
?messageMap@?1??GetThisMessageMap@CRealPacketPage@@KGPBUAFX_MSGMAP@@XZ@4U3@B DD FLAT:?GetThisMessageMap@CPropertyPage@@KGPBUAFX_MSGMAP@@XZ ; `CRealPacketPage::GetThisMessageMap'::`2'::messageMap
	DD	FLAT:?_messageEntries@?1??GetThisMessageMap@CRealPacketPage@@KGPBUAFX_MSGMAP@@XZ@4QBUAFX_MSGMAP_ENTRY@@B
CONST	ENDS
;	COMDAT ?_messageEntries@?1??GetThisMessageMap@CRealPacketPage@@KGPBUAFX_MSGMAP@@XZ@4QBUAFX_MSGMAP_ENTRY@@B
CONST	SEGMENT
?_messageEntries@?1??GetThisMessageMap@CRealPacketPage@@KGPBUAFX_MSGMAP@@XZ@4QBUAFX_MSGMAP_ENTRY@@B DD 0111H ; `CRealPacketPage::GetThisMessageMap'::`2'::_messageEntries
	DD	00H
	DD	0114H
	DD	0114H
	DD	03aH
	DD	FLAT:?OnBtnAdd@CRealPacketPage@@IAEXXZ
	DD	0111H
	DD	00H
	DD	0115H
	DD	0115H
	DD	03aH
	DD	FLAT:?OnBtnDel@CRealPacketPage@@IAEXXZ
	DD	0111H
	DD	01H
	DD	0111H
	DD	0111H
	DD	03aH
	DD	FLAT:?OnSelchangeCmbSharedname@CRealPacketPage@@IAEXXZ
	DD	0111H
	DD	01H
	DD	0f8H
	DD	0f8H
	DD	03aH
	DD	FLAT:?OnSelchangePacketTree@CRealPacketPage@@IAEXXZ
	DD	0111H
	DD	09H
	DD	0f8H
	DD	0f8H
	DD	03aH
	DD	FLAT:?OnSelendokPacketTree@CRealPacketPage@@IAEXXZ
	DD	0111H
	DD	01H
	DD	0272dH
	DD	0272dH
	DD	03aH
	DD	FLAT:?OnSelchangeComboBasepacket@CRealPacketPage@@IAEXXZ
	DD	0111H
	DD	00H
	DD	02731H
	DD	02731H
	DD	03aH
	DD	FLAT:?OnBtnEdit@CRealPacketPage@@IAEXXZ
	DD	00H
	DD	00H
	DD	00H
	DD	00H
	DD	00H
	DD	00H
CONST	ENDS
;	COMDAT ??_C@_0BA@MNPMOCIO@CRealPacketPage@
CONST	SEGMENT
??_C@_0BA@MNPMOCIO@CRealPacketPage@ DB 'CRealPacketPage', 00H ; `string'
CONST	ENDS
;	COMDAT ??_C@_01HIHLOKLC@1@
CONST	SEGMENT
??_C@_01HIHLOKLC@1@ DB '1', 00H				; `string'
CONST	ENDS
;	COMDAT ??_7CRealPacketPage@@6B@
CONST	SEGMENT
??_7CRealPacketPage@@6B@ DD FLAT:??_R4CRealPacketPage@@6B@ ; CRealPacketPage::`vftable'
	DD	FLAT:?GetRuntimeClass@CRealPacketPage@@UBEPAUCRuntimeClass@@XZ
	DD	FLAT:??_ECRealPacketPage@@UAEPAXI@Z
	DD	FLAT:?Serialize@CObject@@UAEXAAVCArchive@@@Z
	DD	FLAT:?AssertValid@CObject@@UBEXXZ
	DD	FLAT:?Dump@CObject@@UBEXAAVCDumpContext@@@Z
	DD	FLAT:?OnCmdMsg@CDialog@@UAEHIHPAXPAUAFX_CMDHANDLERINFO@@@Z
	DD	FLAT:?OnFinalRelease@CWnd@@UAEXXZ
	DD	FLAT:?IsInvokeAllowed@CCmdTarget@@UAEHJ@Z
	DD	FLAT:?GetDispatchIID@CCmdTarget@@UAEHPAU_GUID@@@Z
	DD	FLAT:?GetTypeInfoCount@CCmdTarget@@UAEIXZ
	DD	FLAT:?GetTypeLibCache@CCmdTarget@@UAEPAVCTypeLibCache@@XZ
	DD	FLAT:?GetTypeLib@CCmdTarget@@UAEJKPAPAUITypeLib@@@Z
	DD	FLAT:?GetMessageMap@CRealPacketPage@@MBEPBUAFX_MSGMAP@@XZ
	DD	FLAT:?GetCommandMap@CCmdTarget@@MBEPBUAFX_OLECMDMAP@@XZ
	DD	FLAT:?GetDispatchMap@CCmdTarget@@MBEPBUAFX_DISPMAP@@XZ
	DD	FLAT:?GetConnectionMap@CCmdTarget@@MBEPBUAFX_CONNECTIONMAP@@XZ
	DD	FLAT:?GetInterfaceMap@CWnd@@MBEPBUAFX_INTERFACEMAP@@XZ
	DD	FLAT:?GetEventSinkMap@CCmdTarget@@MBEPBUAFX_EVENTSINKMAP@@XZ
	DD	FLAT:?OnCreateAggregates@CCmdTarget@@UAEHXZ
	DD	FLAT:?GetInterfaceHook@CCmdTarget@@UAEPAUIUnknown@@PBX@Z
	DD	FLAT:?GetExtraConnectionPoints@CCmdTarget@@MAEHPAVCPtrArray@@@Z
	DD	FLAT:?GetConnectionHook@CCmdTarget@@MAEPAUIConnectionPoint@@ABU_GUID@@@Z
	DD	FLAT:?PreSubclassWindow@CWnd@@UAEXXZ
	DD	FLAT:?Create@CWnd@@UAEHPBD0KABUtagRECT@@PAV1@IPAUCCreateContext@@@Z
	DD	FLAT:?CreateEx@CWnd@@UAEHKPBD0KABUtagRECT@@PAV1@IPAX@Z
	DD	FLAT:?CreateEx@CWnd@@UAEHKPBD0KHHHHPAUHWND__@@PAUHMENU__@@PAX@Z
	DD	FLAT:?DestroyWindow@CWnd@@UAEHXZ
	DD	FLAT:?PreCreateWindow@CWnd@@UAEHAAUtagCREATESTRUCTA@@@Z
	DD	FLAT:?CalcWindowRect@CWnd@@UAEXPAUtagRECT@@I@Z
	DD	FLAT:?GetMenu@CWnd@@UBEPAVCMenu@@XZ
	DD	FLAT:?SetMenu@CWnd@@UAEHPAVCMenu@@@Z
	DD	FLAT:?OnToolHitTest@CWnd@@UBEHVCPoint@@PAUtagTOOLINFOA@@@Z
	DD	FLAT:?GetScrollBarCtrl@CWnd@@UBEPAVCScrollBar@@H@Z
	DD	FLAT:?WinHelpA@CWnd@@UAEXKI@Z
	DD	FLAT:?HtmlHelpA@CWnd@@UAEXKI@Z
	DD	FLAT:?WinHelpInternal@CWnd@@UAEXKI@Z
	DD	FLAT:?ContinueModal@CWnd@@UAEHXZ
	DD	FLAT:?EndModalLoop@CWnd@@UAEXH@Z
	DD	FLAT:?OnDrawIconicThumbnailOrLivePreview@CWnd@@UAEXAAVCDC@@VCRect@@VCSize@@HAAH@Z
	DD	FLAT:?EnsureStdObj@CWnd@@UAEJXZ
	DD	FLAT:?get_accParent@CWnd@@UAEJPAPAUIDispatch@@@Z
	DD	FLAT:?get_accChildCount@CWnd@@UAEJPAJ@Z
	DD	FLAT:?get_accChild@CWnd@@UAEJUtagVARIANT@@PAPAUIDispatch@@@Z
	DD	FLAT:?get_accName@CWnd@@UAEJUtagVARIANT@@PAPA_W@Z
	DD	FLAT:?get_accValue@CWnd@@UAEJUtagVARIANT@@PAPA_W@Z
	DD	FLAT:?get_accDescription@CWnd@@UAEJUtagVARIANT@@PAPA_W@Z
	DD	FLAT:?get_accRole@CWnd@@UAEJUtagVARIANT@@PAU2@@Z
	DD	FLAT:?get_accState@CWnd@@UAEJUtagVARIANT@@PAU2@@Z
	DD	FLAT:?get_accHelp@CWnd@@UAEJUtagVARIANT@@PAPA_W@Z
	DD	FLAT:?get_accHelpTopic@CWnd@@UAEJPAPA_WUtagVARIANT@@PAJ@Z
	DD	FLAT:?get_accKeyboardShortcut@CWnd@@UAEJUtagVARIANT@@PAPA_W@Z
	DD	FLAT:?get_accFocus@CWnd@@UAEJPAUtagVARIANT@@@Z
	DD	FLAT:?get_accSelection@CWnd@@UAEJPAUtagVARIANT@@@Z
	DD	FLAT:?get_accDefaultAction@CWnd@@UAEJUtagVARIANT@@PAPA_W@Z
	DD	FLAT:?accSelect@CWnd@@UAEJJUtagVARIANT@@@Z
	DD	FLAT:?accLocation@CWnd@@UAEJPAJ000UtagVARIANT@@@Z
	DD	FLAT:?accNavigate@CWnd@@UAEJJUtagVARIANT@@PAU2@@Z
	DD	FLAT:?accHitTest@CWnd@@UAEJJJPAUtagVARIANT@@@Z
	DD	FLAT:?accDoDefaultAction@CWnd@@UAEJUtagVARIANT@@@Z
	DD	FLAT:?put_accName@CWnd@@UAEJUtagVARIANT@@PA_W@Z
	DD	FLAT:?put_accValue@CWnd@@UAEJUtagVARIANT@@PA_W@Z
	DD	FLAT:?SetProxy@CWnd@@UAEJPAUIAccessibleProxy@@@Z
	DD	FLAT:?CreateAccessibleProxy@CWnd@@UAEJIJPAJ@Z
	DD	FLAT:?OnCommand@CWnd@@MAEHIJ@Z
	DD	FLAT:?OnNotify@CPropertyPage@@MAEHIJPAJ@Z
	DD	FLAT:?GetSuperWndProcAddr@CWnd@@MAEPAP6GJPAUHWND__@@IIJ@ZXZ
	DD	FLAT:?DoDataExchange@CRealPacketPage@@MAEXPAVCDataExchange@@@Z
	DD	FLAT:?BeginModalState@CWnd@@UAEXXZ
	DD	FLAT:?EndModalState@CWnd@@UAEXXZ
	DD	FLAT:?PreTranslateMessage@CPropertyPage@@MAEHPAUtagMSG@@@Z
	DD	FLAT:?OnAmbientProperty@CWnd@@UAEHPAVCOleControlSite@@JPAUtagVARIANT@@@Z
	DD	FLAT:?WindowProc@CWnd@@MAEJIIJ@Z
	DD	FLAT:?OnWndMsg@CWnd@@MAEHIIJPAJ@Z
	DD	FLAT:?DefWindowProcA@CWnd@@MAEJIIJ@Z
	DD	FLAT:?PostNcDestroy@CWnd@@MAEXXZ
	DD	FLAT:?OnChildNotify@CWnd@@MAEHIIJPAJ@Z
	DD	FLAT:?OnTouchInputs@CWnd@@MAEHIPAUtagTOUCHINPUT@@@Z
	DD	FLAT:?OnTouchInput@CWnd@@MAEHVCPoint@@HHPAUtagTOUCHINPUT@@@Z
	DD	FLAT:?GetGestureStatus@CWnd@@MAEKVCPoint@@@Z
	DD	FLAT:?OnGestureZoom@CWnd@@MAEHVCPoint@@J@Z
	DD	FLAT:?OnGesturePan@CWnd@@MAEHVCPoint@@0@Z
	DD	FLAT:?OnGestureRotate@CWnd@@MAEHVCPoint@@N@Z
	DD	FLAT:?OnGestureTwoFingerTap@CWnd@@MAEHVCPoint@@@Z
	DD	FLAT:?OnGesturePressAndTap@CWnd@@MAEHVCPoint@@J@Z
	DD	FLAT:?ResizeDynamicLayout@CWnd@@MAEXXZ
	DD	FLAT:?CheckAutoCenter@CDialog@@UAEHXZ
	DD	FLAT:?IsFrameWnd@CWnd@@UBEHXZ
	DD	FLAT:?CreateControlContainer@CWnd@@MAEHPAPAVCOleControlContainer@@@Z
	DD	FLAT:?CreateControlSite@CWnd@@MAEHPAVCOleControlContainer@@PAPAVCOleControlSite@@IABU_GUID@@@Z
	DD	FLAT:?SetOccDialogInfo@CDialog@@MAEHPAU_AFX_OCC_DIALOG_INFO@@@Z
	DD	FLAT:?GetOccDialogInfo@CDialog@@MAEPAU_AFX_OCC_DIALOG_INFO@@XZ
	DD	FLAT:?Create@CDialog@@UAEHIPAVCWnd@@@Z
	DD	FLAT:?Create@CDialog@@UAEHPBDPAVCWnd@@@Z
	DD	FLAT:?CreateIndirect@CDialog@@UAEHPAXPAVCWnd@@@Z
	DD	FLAT:?CreateIndirect@CDialog@@UAEHPBUDLGTEMPLATE@@PAVCWnd@@PAX@Z
	DD	FLAT:?DoModal@CDialog@@UAEHXZ
	DD	FLAT:?OnInitDialog@CRealPacketPage@@MAEHXZ
	DD	FLAT:?OnSetFont@CDialog@@UAEXPAVCFont@@@Z
	DD	FLAT:?OnOK@CPropertyPage@@UAEXXZ
	DD	FLAT:?OnCancel@CPropertyPage@@UAEXXZ
	DD	FLAT:?PreInitDialog@CDialog@@MAEXXZ
	DD	FLAT:?OnApply@CRealPacketPage@@UAEHXZ
	DD	FLAT:?OnReset@CPropertyPage@@UAEXXZ
	DD	FLAT:?OnSetActive@CRealPacketPage@@UAEHXZ
	DD	FLAT:?OnKillActive@CRealPacketPage@@UAEHXZ
	DD	FLAT:?OnQueryCancel@CPropertyPage@@UAEHXZ
	DD	FLAT:?OnWizardBack@CPropertyPage@@UAEJXZ
	DD	FLAT:?OnWizardNext@CPropertyPage@@UAEJXZ
	DD	FLAT:?OnWizardFinish@CPropertyPage@@UAEHXZ
	DD	FLAT:?OnWizardFinishEx@CPropertyPage@@UAEPAUHWND__@@XZ
	DD	FLAT:?GetParentSheet@CPropertyPage@@UAEPAVCPropertySheet@@XZ
CONST	ENDS
;	COMDAT ?classCRealPacketPage@CRealPacketPage@@2UCRuntimeClass@@B
CONST	SEGMENT
?classCRealPacketPage@CRealPacketPage@@2UCRuntimeClass@@B DD FLAT:??_C@_0BA@MNPMOCIO@CRealPacketPage@ ; CRealPacketPage::classCRealPacketPage
	DD	05c0H
	DD	0ffffH
	DD	FLAT:?CreateObject@CRealPacketPage@@SGPAVCObject@@XZ
	DD	FLAT:?_GetBaseClass@CRealPacketPage@@KGPAUCRuntimeClass@@XZ
	DD	00H
	DD	00H
CONST	ENDS
;	COMDAT ??_C@_0BA@ENJOCHIO@LoadResourceDLL@
CONST	SEGMENT
??_C@_0BA@ENJOCHIO@LoadResourceDLL@ DB 'LoadResourceDLL', 00H ; `string'
CONST	ENDS
;	COMDAT ??_R1A@?0A@EA@CListCtrl@@8
rdata$r	SEGMENT
??_R1A@?0A@EA@CListCtrl@@8 DD FLAT:??_R0?AVCListCtrl@@@8 ; CListCtrl::`RTTI Base Class Descriptor at (0,-1,0,64)'
	DD	03H
	DD	00H
	DD	0ffffffffH
	DD	00H
	DD	040H
	DD	FLAT:??_R3CListCtrl@@8
rdata$r	ENDS
;	COMDAT ??_R2CListCtrl@@8
rdata$r	SEGMENT
??_R2CListCtrl@@8 DD FLAT:??_R1A@?0A@EA@CListCtrl@@8	; CListCtrl::`RTTI Base Class Array'
	DD	FLAT:??_R1A@?0A@EA@CWnd@@8
	DD	FLAT:??_R1A@?0A@EA@CCmdTarget@@8
	DD	FLAT:??_R1A@?0A@EA@CObject@@8
rdata$r	ENDS
;	COMDAT ??_R3CListCtrl@@8
rdata$r	SEGMENT
??_R3CListCtrl@@8 DD 00H				; CListCtrl::`RTTI Class Hierarchy Descriptor'
	DD	00H
	DD	04H
	DD	FLAT:??_R2CListCtrl@@8
rdata$r	ENDS
;	COMDAT ??_R0?AVCListCtrl@@@8
data$rs	SEGMENT
??_R0?AVCListCtrl@@@8 DD FLAT:??_7type_info@@6B@	; CListCtrl `RTTI Type Descriptor'
	DD	00H
	DB	'.?AVCListCtrl@@', 00H
data$rs	ENDS
;	COMDAT ??_R4CListCtrl@@6B@
rdata$r	SEGMENT
??_R4CListCtrl@@6B@ DD 00H				; CListCtrl::`RTTI Complete Object Locator'
	DD	00H
	DD	00H
	DD	FLAT:??_R0?AVCListCtrl@@@8
	DD	FLAT:??_R3CListCtrl@@8
rdata$r	ENDS
;	COMDAT ??_R2CDialog@@8
rdata$r	SEGMENT
??_R2CDialog@@8 DD FLAT:??_R1A@?0A@EA@CDialog@@8	; CDialog::`RTTI Base Class Array'
	DD	FLAT:??_R1A@?0A@EA@CWnd@@8
	DD	FLAT:??_R1A@?0A@EA@CCmdTarget@@8
	DD	FLAT:??_R1A@?0A@EA@CObject@@8
rdata$r	ENDS
;	COMDAT ??_R3CDialog@@8
rdata$r	SEGMENT
??_R3CDialog@@8 DD 00H					; CDialog::`RTTI Class Hierarchy Descriptor'
	DD	00H
	DD	04H
	DD	FLAT:??_R2CDialog@@8
rdata$r	ENDS
;	COMDAT ??_R0?AVCDialog@@@8
data$rs	SEGMENT
??_R0?AVCDialog@@@8 DD FLAT:??_7type_info@@6B@		; CDialog `RTTI Type Descriptor'
	DD	00H
	DB	'.?AVCDialog@@', 00H
data$rs	ENDS
;	COMDAT ??_R1A@?0A@EA@CDialog@@8
rdata$r	SEGMENT
??_R1A@?0A@EA@CDialog@@8 DD FLAT:??_R0?AVCDialog@@@8	; CDialog::`RTTI Base Class Descriptor at (0,-1,0,64)'
	DD	03H
	DD	00H
	DD	0ffffffffH
	DD	00H
	DD	040H
	DD	FLAT:??_R3CDialog@@8
rdata$r	ENDS
;	COMDAT ??_R1A@?0A@EA@CComboBox@@8
rdata$r	SEGMENT
??_R1A@?0A@EA@CComboBox@@8 DD FLAT:??_R0?AVCComboBox@@@8 ; CComboBox::`RTTI Base Class Descriptor at (0,-1,0,64)'
	DD	03H
	DD	00H
	DD	0ffffffffH
	DD	00H
	DD	040H
	DD	FLAT:??_R3CComboBox@@8
rdata$r	ENDS
;	COMDAT ??_R2CComboBox@@8
rdata$r	SEGMENT
??_R2CComboBox@@8 DD FLAT:??_R1A@?0A@EA@CComboBox@@8	; CComboBox::`RTTI Base Class Array'
	DD	FLAT:??_R1A@?0A@EA@CWnd@@8
	DD	FLAT:??_R1A@?0A@EA@CCmdTarget@@8
	DD	FLAT:??_R1A@?0A@EA@CObject@@8
rdata$r	ENDS
;	COMDAT ??_R3CComboBox@@8
rdata$r	SEGMENT
??_R3CComboBox@@8 DD 00H				; CComboBox::`RTTI Class Hierarchy Descriptor'
	DD	00H
	DD	04H
	DD	FLAT:??_R2CComboBox@@8
rdata$r	ENDS
;	COMDAT ??_R0?AVCComboBox@@@8
data$rs	SEGMENT
??_R0?AVCComboBox@@@8 DD FLAT:??_7type_info@@6B@	; CComboBox `RTTI Type Descriptor'
	DD	00H
	DB	'.?AVCComboBox@@', 00H
data$rs	ENDS
;	COMDAT ??_R4CComboBox@@6B@
rdata$r	SEGMENT
??_R4CComboBox@@6B@ DD 00H				; CComboBox::`RTTI Complete Object Locator'
	DD	00H
	DD	00H
	DD	FLAT:??_R0?AVCComboBox@@@8
	DD	FLAT:??_R3CComboBox@@8
rdata$r	ENDS
;	COMDAT ??_R2CCmdTarget@@8
rdata$r	SEGMENT
??_R2CCmdTarget@@8 DD FLAT:??_R1A@?0A@EA@CCmdTarget@@8	; CCmdTarget::`RTTI Base Class Array'
	DD	FLAT:??_R1A@?0A@EA@CObject@@8
rdata$r	ENDS
;	COMDAT ??_R3CCmdTarget@@8
rdata$r	SEGMENT
??_R3CCmdTarget@@8 DD 00H				; CCmdTarget::`RTTI Class Hierarchy Descriptor'
	DD	00H
	DD	02H
	DD	FLAT:??_R2CCmdTarget@@8
rdata$r	ENDS
;	COMDAT ??_R0?AVCCmdTarget@@@8
data$rs	SEGMENT
??_R0?AVCCmdTarget@@@8 DD FLAT:??_7type_info@@6B@	; CCmdTarget `RTTI Type Descriptor'
	DD	00H
	DB	'.?AVCCmdTarget@@', 00H
data$rs	ENDS
;	COMDAT ??_R1A@?0A@EA@CCmdTarget@@8
rdata$r	SEGMENT
??_R1A@?0A@EA@CCmdTarget@@8 DD FLAT:??_R0?AVCCmdTarget@@@8 ; CCmdTarget::`RTTI Base Class Descriptor at (0,-1,0,64)'
	DD	01H
	DD	00H
	DD	0ffffffffH
	DD	00H
	DD	040H
	DD	FLAT:??_R3CCmdTarget@@8
rdata$r	ENDS
;	COMDAT ??_R2CWnd@@8
rdata$r	SEGMENT
??_R2CWnd@@8 DD	FLAT:??_R1A@?0A@EA@CWnd@@8		; CWnd::`RTTI Base Class Array'
	DD	FLAT:??_R1A@?0A@EA@CCmdTarget@@8
	DD	FLAT:??_R1A@?0A@EA@CObject@@8
rdata$r	ENDS
;	COMDAT ??_R3CWnd@@8
rdata$r	SEGMENT
??_R3CWnd@@8 DD	00H					; CWnd::`RTTI Class Hierarchy Descriptor'
	DD	00H
	DD	03H
	DD	FLAT:??_R2CWnd@@8
rdata$r	ENDS
;	COMDAT ??_R0?AVCWnd@@@8
data$rs	SEGMENT
??_R0?AVCWnd@@@8 DD FLAT:??_7type_info@@6B@		; CWnd `RTTI Type Descriptor'
	DD	00H
	DB	'.?AVCWnd@@', 00H
data$rs	ENDS
;	COMDAT ??_R1A@?0A@EA@CWnd@@8
rdata$r	SEGMENT
??_R1A@?0A@EA@CWnd@@8 DD FLAT:??_R0?AVCWnd@@@8		; CWnd::`RTTI Base Class Descriptor at (0,-1,0,64)'
	DD	02H
	DD	00H
	DD	0ffffffffH
	DD	00H
	DD	040H
	DD	FLAT:??_R3CWnd@@8
rdata$r	ENDS
;	COMDAT ??_R1A@?0A@EA@CObject@@8
rdata$r	SEGMENT
??_R1A@?0A@EA@CObject@@8 DD FLAT:??_R0?AVCObject@@@8	; CObject::`RTTI Base Class Descriptor at (0,-1,0,64)'
	DD	00H
	DD	00H
	DD	0ffffffffH
	DD	00H
	DD	040H
	DD	FLAT:??_R3CObject@@8
rdata$r	ENDS
;	COMDAT ??_R2CObject@@8
rdata$r	SEGMENT
??_R2CObject@@8 DD FLAT:??_R1A@?0A@EA@CObject@@8	; CObject::`RTTI Base Class Array'
rdata$r	ENDS
;	COMDAT ??_R3CObject@@8
rdata$r	SEGMENT
??_R3CObject@@8 DD 00H					; CObject::`RTTI Class Hierarchy Descriptor'
	DD	00H
	DD	01H
	DD	FLAT:??_R2CObject@@8
rdata$r	ENDS
;	COMDAT ??_R0?AVCObject@@@8
data$rs	SEGMENT
??_R0?AVCObject@@@8 DD FLAT:??_7type_info@@6B@		; CObject `RTTI Type Descriptor'
	DD	00H
	DB	'.?AVCObject@@', 00H
data$rs	ENDS
;	COMDAT ??_7CListCtrl@@6B@
CONST	SEGMENT
??_7CListCtrl@@6B@ DD FLAT:??_R4CListCtrl@@6B@		; CListCtrl::`vftable'
	DD	FLAT:?GetRuntimeClass@CListCtrl@@UBEPAUCRuntimeClass@@XZ
	DD	FLAT:??_ECListCtrl@@UAEPAXI@Z
	DD	FLAT:?Serialize@CObject@@UAEXAAVCArchive@@@Z
	DD	FLAT:?AssertValid@CObject@@UBEXXZ
	DD	FLAT:?Dump@CObject@@UBEXAAVCDumpContext@@@Z
	DD	FLAT:?OnCmdMsg@CCmdTarget@@UAEHIHPAXPAUAFX_CMDHANDLERINFO@@@Z
	DD	FLAT:?OnFinalRelease@CWnd@@UAEXXZ
	DD	FLAT:?IsInvokeAllowed@CCmdTarget@@UAEHJ@Z
	DD	FLAT:?GetDispatchIID@CCmdTarget@@UAEHPAU_GUID@@@Z
	DD	FLAT:?GetTypeInfoCount@CCmdTarget@@UAEIXZ
	DD	FLAT:?GetTypeLibCache@CCmdTarget@@UAEPAVCTypeLibCache@@XZ
	DD	FLAT:?GetTypeLib@CCmdTarget@@UAEJKPAPAUITypeLib@@@Z
	DD	FLAT:?GetMessageMap@CListCtrl@@MBEPBUAFX_MSGMAP@@XZ
	DD	FLAT:?GetCommandMap@CCmdTarget@@MBEPBUAFX_OLECMDMAP@@XZ
	DD	FLAT:?GetDispatchMap@CCmdTarget@@MBEPBUAFX_DISPMAP@@XZ
	DD	FLAT:?GetConnectionMap@CCmdTarget@@MBEPBUAFX_CONNECTIONMAP@@XZ
	DD	FLAT:?GetInterfaceMap@CWnd@@MBEPBUAFX_INTERFACEMAP@@XZ
	DD	FLAT:?GetEventSinkMap@CCmdTarget@@MBEPBUAFX_EVENTSINKMAP@@XZ
	DD	FLAT:?OnCreateAggregates@CCmdTarget@@UAEHXZ
	DD	FLAT:?GetInterfaceHook@CCmdTarget@@UAEPAUIUnknown@@PBX@Z
	DD	FLAT:?GetExtraConnectionPoints@CCmdTarget@@MAEHPAVCPtrArray@@@Z
	DD	FLAT:?GetConnectionHook@CCmdTarget@@MAEPAUIConnectionPoint@@ABU_GUID@@@Z
	DD	FLAT:?PreSubclassWindow@CWnd@@UAEXXZ
	DD	FLAT:?Create@CWnd@@UAEHPBD0KABUtagRECT@@PAV1@IPAUCCreateContext@@@Z
	DD	FLAT:?CreateEx@CWnd@@UAEHKPBD0KABUtagRECT@@PAV1@IPAX@Z
	DD	FLAT:?CreateEx@CWnd@@UAEHKPBD0KHHHHPAUHWND__@@PAUHMENU__@@PAX@Z
	DD	FLAT:?DestroyWindow@CWnd@@UAEHXZ
	DD	FLAT:?PreCreateWindow@CWnd@@UAEHAAUtagCREATESTRUCTA@@@Z
	DD	FLAT:?CalcWindowRect@CWnd@@UAEXPAUtagRECT@@I@Z
	DD	FLAT:?GetMenu@CWnd@@UBEPAVCMenu@@XZ
	DD	FLAT:?SetMenu@CWnd@@UAEHPAVCMenu@@@Z
	DD	FLAT:?OnToolHitTest@CWnd@@UBEHVCPoint@@PAUtagTOOLINFOA@@@Z
	DD	FLAT:?GetScrollBarCtrl@CWnd@@UBEPAVCScrollBar@@H@Z
	DD	FLAT:?WinHelpA@CWnd@@UAEXKI@Z
	DD	FLAT:?HtmlHelpA@CWnd@@UAEXKI@Z
	DD	FLAT:?WinHelpInternal@CWnd@@UAEXKI@Z
	DD	FLAT:?ContinueModal@CWnd@@UAEHXZ
	DD	FLAT:?EndModalLoop@CWnd@@UAEXH@Z
	DD	FLAT:?OnDrawIconicThumbnailOrLivePreview@CWnd@@UAEXAAVCDC@@VCRect@@VCSize@@HAAH@Z
	DD	FLAT:?EnsureStdObj@CWnd@@UAEJXZ
	DD	FLAT:?get_accParent@CWnd@@UAEJPAPAUIDispatch@@@Z
	DD	FLAT:?get_accChildCount@CWnd@@UAEJPAJ@Z
	DD	FLAT:?get_accChild@CWnd@@UAEJUtagVARIANT@@PAPAUIDispatch@@@Z
	DD	FLAT:?get_accName@CWnd@@UAEJUtagVARIANT@@PAPA_W@Z
	DD	FLAT:?get_accValue@CWnd@@UAEJUtagVARIANT@@PAPA_W@Z
	DD	FLAT:?get_accDescription@CWnd@@UAEJUtagVARIANT@@PAPA_W@Z
	DD	FLAT:?get_accRole@CWnd@@UAEJUtagVARIANT@@PAU2@@Z
	DD	FLAT:?get_accState@CWnd@@UAEJUtagVARIANT@@PAU2@@Z
	DD	FLAT:?get_accHelp@CWnd@@UAEJUtagVARIANT@@PAPA_W@Z
	DD	FLAT:?get_accHelpTopic@CWnd@@UAEJPAPA_WUtagVARIANT@@PAJ@Z
	DD	FLAT:?get_accKeyboardShortcut@CWnd@@UAEJUtagVARIANT@@PAPA_W@Z
	DD	FLAT:?get_accFocus@CWnd@@UAEJPAUtagVARIANT@@@Z
	DD	FLAT:?get_accSelection@CWnd@@UAEJPAUtagVARIANT@@@Z
	DD	FLAT:?get_accDefaultAction@CWnd@@UAEJUtagVARIANT@@PAPA_W@Z
	DD	FLAT:?accSelect@CWnd@@UAEJJUtagVARIANT@@@Z
	DD	FLAT:?accLocation@CWnd@@UAEJPAJ000UtagVARIANT@@@Z
	DD	FLAT:?accNavigate@CWnd@@UAEJJUtagVARIANT@@PAU2@@Z
	DD	FLAT:?accHitTest@CWnd@@UAEJJJPAUtagVARIANT@@@Z
	DD	FLAT:?accDoDefaultAction@CWnd@@UAEJUtagVARIANT@@@Z
	DD	FLAT:?put_accName@CWnd@@UAEJUtagVARIANT@@PA_W@Z
	DD	FLAT:?put_accValue@CWnd@@UAEJUtagVARIANT@@PA_W@Z
	DD	FLAT:?SetProxy@CWnd@@UAEJPAUIAccessibleProxy@@@Z
	DD	FLAT:?CreateAccessibleProxy@CWnd@@UAEJIJPAJ@Z
	DD	FLAT:?OnCommand@CWnd@@MAEHIJ@Z
	DD	FLAT:?OnNotify@CWnd@@MAEHIJPAJ@Z
	DD	FLAT:?GetSuperWndProcAddr@CWnd@@MAEPAP6GJPAUHWND__@@IIJ@ZXZ
	DD	FLAT:?DoDataExchange@CWnd@@MAEXPAVCDataExchange@@@Z
	DD	FLAT:?BeginModalState@CWnd@@UAEXXZ
	DD	FLAT:?EndModalState@CWnd@@UAEXXZ
	DD	FLAT:?PreTranslateMessage@CWnd@@UAEHPAUtagMSG@@@Z
	DD	FLAT:?OnAmbientProperty@CWnd@@UAEHPAVCOleControlSite@@JPAUtagVARIANT@@@Z
	DD	FLAT:?WindowProc@CWnd@@MAEJIIJ@Z
	DD	FLAT:?OnWndMsg@CWnd@@MAEHIIJPAJ@Z
	DD	FLAT:?DefWindowProcA@CWnd@@MAEJIIJ@Z
	DD	FLAT:?PostNcDestroy@CWnd@@MAEXXZ
	DD	FLAT:?OnChildNotify@CListCtrl@@MAEHIIJPAJ@Z
	DD	FLAT:?OnTouchInputs@CWnd@@MAEHIPAUtagTOUCHINPUT@@@Z
	DD	FLAT:?OnTouchInput@CWnd@@MAEHVCPoint@@HHPAUtagTOUCHINPUT@@@Z
	DD	FLAT:?GetGestureStatus@CWnd@@MAEKVCPoint@@@Z
	DD	FLAT:?OnGestureZoom@CWnd@@MAEHVCPoint@@J@Z
	DD	FLAT:?OnGesturePan@CWnd@@MAEHVCPoint@@0@Z
	DD	FLAT:?OnGestureRotate@CWnd@@MAEHVCPoint@@N@Z
	DD	FLAT:?OnGestureTwoFingerTap@CWnd@@MAEHVCPoint@@@Z
	DD	FLAT:?OnGesturePressAndTap@CWnd@@MAEHVCPoint@@J@Z
	DD	FLAT:?ResizeDynamicLayout@CWnd@@MAEXXZ
	DD	FLAT:?CheckAutoCenter@CWnd@@UAEHXZ
	DD	FLAT:?IsFrameWnd@CWnd@@UBEHXZ
	DD	FLAT:?CreateControlContainer@CWnd@@MAEHPAPAVCOleControlContainer@@@Z
	DD	FLAT:?CreateControlSite@CWnd@@MAEHPAVCOleControlContainer@@PAPAVCOleControlSite@@IABU_GUID@@@Z
	DD	FLAT:?SetOccDialogInfo@CWnd@@MAEHPAU_AFX_OCC_DIALOG_INFO@@@Z
	DD	FLAT:?GetOccDialogInfo@CWnd@@MAEPAU_AFX_OCC_DIALOG_INFO@@XZ
	DD	FLAT:?DrawItem@CListCtrl@@UAEXPAUtagDRAWITEMSTRUCT@@@Z
CONST	ENDS
;	COMDAT ??_7CComboBox@@6B@
CONST	SEGMENT
??_7CComboBox@@6B@ DD FLAT:??_R4CComboBox@@6B@		; CComboBox::`vftable'
	DD	FLAT:?GetRuntimeClass@CComboBox@@UBEPAUCRuntimeClass@@XZ
	DD	FLAT:??_ECComboBox@@UAEPAXI@Z
	DD	FLAT:?Serialize@CObject@@UAEXAAVCArchive@@@Z
	DD	FLAT:?AssertValid@CObject@@UBEXXZ
	DD	FLAT:?Dump@CObject@@UBEXAAVCDumpContext@@@Z
	DD	FLAT:?OnCmdMsg@CCmdTarget@@UAEHIHPAXPAUAFX_CMDHANDLERINFO@@@Z
	DD	FLAT:?OnFinalRelease@CWnd@@UAEXXZ
	DD	FLAT:?IsInvokeAllowed@CCmdTarget@@UAEHJ@Z
	DD	FLAT:?GetDispatchIID@CCmdTarget@@UAEHPAU_GUID@@@Z
	DD	FLAT:?GetTypeInfoCount@CCmdTarget@@UAEIXZ
	DD	FLAT:?GetTypeLibCache@CCmdTarget@@UAEPAVCTypeLibCache@@XZ
	DD	FLAT:?GetTypeLib@CCmdTarget@@UAEJKPAPAUITypeLib@@@Z
	DD	FLAT:?GetMessageMap@CWnd@@MBEPBUAFX_MSGMAP@@XZ
	DD	FLAT:?GetCommandMap@CCmdTarget@@MBEPBUAFX_OLECMDMAP@@XZ
	DD	FLAT:?GetDispatchMap@CCmdTarget@@MBEPBUAFX_DISPMAP@@XZ
	DD	FLAT:?GetConnectionMap@CCmdTarget@@MBEPBUAFX_CONNECTIONMAP@@XZ
	DD	FLAT:?GetInterfaceMap@CWnd@@MBEPBUAFX_INTERFACEMAP@@XZ
	DD	FLAT:?GetEventSinkMap@CCmdTarget@@MBEPBUAFX_EVENTSINKMAP@@XZ
	DD	FLAT:?OnCreateAggregates@CCmdTarget@@UAEHXZ
	DD	FLAT:?GetInterfaceHook@CCmdTarget@@UAEPAUIUnknown@@PBX@Z
	DD	FLAT:?GetExtraConnectionPoints@CCmdTarget@@MAEHPAVCPtrArray@@@Z
	DD	FLAT:?GetConnectionHook@CCmdTarget@@MAEPAUIConnectionPoint@@ABU_GUID@@@Z
	DD	FLAT:?PreSubclassWindow@CWnd@@UAEXXZ
	DD	FLAT:?Create@CWnd@@UAEHPBD0KABUtagRECT@@PAV1@IPAUCCreateContext@@@Z
	DD	FLAT:?CreateEx@CWnd@@UAEHKPBD0KABUtagRECT@@PAV1@IPAX@Z
	DD	FLAT:?CreateEx@CWnd@@UAEHKPBD0KHHHHPAUHWND__@@PAUHMENU__@@PAX@Z
	DD	FLAT:?DestroyWindow@CWnd@@UAEHXZ
	DD	FLAT:?PreCreateWindow@CWnd@@UAEHAAUtagCREATESTRUCTA@@@Z
	DD	FLAT:?CalcWindowRect@CWnd@@UAEXPAUtagRECT@@I@Z
	DD	FLAT:?GetMenu@CWnd@@UBEPAVCMenu@@XZ
	DD	FLAT:?SetMenu@CWnd@@UAEHPAVCMenu@@@Z
	DD	FLAT:?OnToolHitTest@CWnd@@UBEHVCPoint@@PAUtagTOOLINFOA@@@Z
	DD	FLAT:?GetScrollBarCtrl@CWnd@@UBEPAVCScrollBar@@H@Z
	DD	FLAT:?WinHelpA@CWnd@@UAEXKI@Z
	DD	FLAT:?HtmlHelpA@CWnd@@UAEXKI@Z
	DD	FLAT:?WinHelpInternal@CWnd@@UAEXKI@Z
	DD	FLAT:?ContinueModal@CWnd@@UAEHXZ
	DD	FLAT:?EndModalLoop@CWnd@@UAEXH@Z
	DD	FLAT:?OnDrawIconicThumbnailOrLivePreview@CWnd@@UAEXAAVCDC@@VCRect@@VCSize@@HAAH@Z
	DD	FLAT:?EnsureStdObj@CWnd@@UAEJXZ
	DD	FLAT:?get_accParent@CWnd@@UAEJPAPAUIDispatch@@@Z
	DD	FLAT:?get_accChildCount@CWnd@@UAEJPAJ@Z
	DD	FLAT:?get_accChild@CWnd@@UAEJUtagVARIANT@@PAPAUIDispatch@@@Z
	DD	FLAT:?get_accName@CWnd@@UAEJUtagVARIANT@@PAPA_W@Z
	DD	FLAT:?get_accValue@CWnd@@UAEJUtagVARIANT@@PAPA_W@Z
	DD	FLAT:?get_accDescription@CWnd@@UAEJUtagVARIANT@@PAPA_W@Z
	DD	FLAT:?get_accRole@CWnd@@UAEJUtagVARIANT@@PAU2@@Z
	DD	FLAT:?get_accState@CWnd@@UAEJUtagVARIANT@@PAU2@@Z
	DD	FLAT:?get_accHelp@CWnd@@UAEJUtagVARIANT@@PAPA_W@Z
	DD	FLAT:?get_accHelpTopic@CWnd@@UAEJPAPA_WUtagVARIANT@@PAJ@Z
	DD	FLAT:?get_accKeyboardShortcut@CWnd@@UAEJUtagVARIANT@@PAPA_W@Z
	DD	FLAT:?get_accFocus@CWnd@@UAEJPAUtagVARIANT@@@Z
	DD	FLAT:?get_accSelection@CWnd@@UAEJPAUtagVARIANT@@@Z
	DD	FLAT:?get_accDefaultAction@CWnd@@UAEJUtagVARIANT@@PAPA_W@Z
	DD	FLAT:?accSelect@CWnd@@UAEJJUtagVARIANT@@@Z
	DD	FLAT:?accLocation@CWnd@@UAEJPAJ000UtagVARIANT@@@Z
	DD	FLAT:?accNavigate@CWnd@@UAEJJUtagVARIANT@@PAU2@@Z
	DD	FLAT:?accHitTest@CWnd@@UAEJJJPAUtagVARIANT@@@Z
	DD	FLAT:?accDoDefaultAction@CWnd@@UAEJUtagVARIANT@@@Z
	DD	FLAT:?put_accName@CWnd@@UAEJUtagVARIANT@@PA_W@Z
	DD	FLAT:?put_accValue@CWnd@@UAEJUtagVARIANT@@PA_W@Z
	DD	FLAT:?SetProxy@CWnd@@UAEJPAUIAccessibleProxy@@@Z
	DD	FLAT:?CreateAccessibleProxy@CWnd@@UAEJIJPAJ@Z
	DD	FLAT:?OnCommand@CWnd@@MAEHIJ@Z
	DD	FLAT:?OnNotify@CWnd@@MAEHIJPAJ@Z
	DD	FLAT:?GetSuperWndProcAddr@CWnd@@MAEPAP6GJPAUHWND__@@IIJ@ZXZ
	DD	FLAT:?DoDataExchange@CWnd@@MAEXPAVCDataExchange@@@Z
	DD	FLAT:?BeginModalState@CWnd@@UAEXXZ
	DD	FLAT:?EndModalState@CWnd@@UAEXXZ
	DD	FLAT:?PreTranslateMessage@CWnd@@UAEHPAUtagMSG@@@Z
	DD	FLAT:?OnAmbientProperty@CWnd@@UAEHPAVCOleControlSite@@JPAUtagVARIANT@@@Z
	DD	FLAT:?WindowProc@CWnd@@MAEJIIJ@Z
	DD	FLAT:?OnWndMsg@CWnd@@MAEHIIJPAJ@Z
	DD	FLAT:?DefWindowProcA@CWnd@@MAEJIIJ@Z
	DD	FLAT:?PostNcDestroy@CWnd@@MAEXXZ
	DD	FLAT:?OnChildNotify@CComboBox@@MAEHIIJPAJ@Z
	DD	FLAT:?OnTouchInputs@CWnd@@MAEHIPAUtagTOUCHINPUT@@@Z
	DD	FLAT:?OnTouchInput@CWnd@@MAEHVCPoint@@HHPAUtagTOUCHINPUT@@@Z
	DD	FLAT:?GetGestureStatus@CWnd@@MAEKVCPoint@@@Z
	DD	FLAT:?OnGestureZoom@CWnd@@MAEHVCPoint@@J@Z
	DD	FLAT:?OnGesturePan@CWnd@@MAEHVCPoint@@0@Z
	DD	FLAT:?OnGestureRotate@CWnd@@MAEHVCPoint@@N@Z
	DD	FLAT:?OnGestureTwoFingerTap@CWnd@@MAEHVCPoint@@@Z
	DD	FLAT:?OnGesturePressAndTap@CWnd@@MAEHVCPoint@@J@Z
	DD	FLAT:?ResizeDynamicLayout@CWnd@@MAEXXZ
	DD	FLAT:?CheckAutoCenter@CWnd@@UAEHXZ
	DD	FLAT:?IsFrameWnd@CWnd@@UBEHXZ
	DD	FLAT:?CreateControlContainer@CWnd@@MAEHPAPAVCOleControlContainer@@@Z
	DD	FLAT:?CreateControlSite@CWnd@@MAEHPAVCOleControlContainer@@PAPAVCOleControlSite@@IABU_GUID@@@Z
	DD	FLAT:?SetOccDialogInfo@CWnd@@MAEHPAU_AFX_OCC_DIALOG_INFO@@@Z
	DD	FLAT:?GetOccDialogInfo@CWnd@@MAEPAU_AFX_OCC_DIALOG_INFO@@XZ
	DD	FLAT:?Create@CComboBox@@UAEHKABUtagRECT@@PAVCWnd@@I@Z
	DD	FLAT:?DrawItem@CComboBox@@UAEXPAUtagDRAWITEMSTRUCT@@@Z
	DD	FLAT:?MeasureItem@CComboBox@@UAEXPAUtagMEASUREITEMSTRUCT@@@Z
	DD	FLAT:?CompareItem@CComboBox@@UAEHPAUtagCOMPAREITEMSTRUCT@@@Z
	DD	FLAT:?DeleteItem@CComboBox@@UAEXPAUtagDELETEITEMSTRUCT@@@Z
CONST	ENDS
;	COMDAT ??_C@_00CNPNBAHC@@
CONST	SEGMENT
??_C@_00CNPNBAHC@@ DB 00H				; `string'
CONST	ENDS
;	COMDAT ??_C@_02DPKJAMEF@?$CFd@
CONST	SEGMENT
??_C@_02DPKJAMEF@?$CFd@ DB '%d', 00H			; `string'
CONST	ENDS
;	COMDAT xdata$x
xdata$x	SEGMENT
__ehfuncinfo$?Init_AdviseList@CRealPacketPage@@AAEXXZ DD 019930522H
	DD	011H
	DD	FLAT:__unwindtable$?Init_AdviseList@CRealPacketPage@@AAEXXZ
	DD	2 DUP(00H)
	DD	2 DUP(00H)
	DD	00H
	DD	01H
__unwindtable$?Init_AdviseList@CRealPacketPage@@AAEXXZ DD 0ffffffffH
	DD	FLAT:__unwindfunclet$?Init_AdviseList@CRealPacketPage@@AAEXXZ$0
	DD	00H
	DD	FLAT:__unwindfunclet$?Init_AdviseList@CRealPacketPage@@AAEXXZ$1
	DD	01H
	DD	FLAT:__unwindfunclet$?Init_AdviseList@CRealPacketPage@@AAEXXZ$2
	DD	02H
	DD	FLAT:__unwindfunclet$?Init_AdviseList@CRealPacketPage@@AAEXXZ$3
	DD	03H
	DD	FLAT:__unwindfunclet$?Init_AdviseList@CRealPacketPage@@AAEXXZ$4
	DD	04H
	DD	FLAT:__unwindfunclet$?Init_AdviseList@CRealPacketPage@@AAEXXZ$5
	DD	05H
	DD	FLAT:__unwindfunclet$?Init_AdviseList@CRealPacketPage@@AAEXXZ$6
	DD	06H
	DD	FLAT:__unwindfunclet$?Init_AdviseList@CRealPacketPage@@AAEXXZ$7
	DD	07H
	DD	FLAT:__unwindfunclet$?Init_AdviseList@CRealPacketPage@@AAEXXZ$8
	DD	06H
	DD	FLAT:__unwindfunclet$?Init_AdviseList@CRealPacketPage@@AAEXXZ$9
	DD	09H
	DD	FLAT:__unwindfunclet$?Init_AdviseList@CRealPacketPage@@AAEXXZ$10
	DD	06H
	DD	FLAT:__unwindfunclet$?Init_AdviseList@CRealPacketPage@@AAEXXZ$11
	DD	0bH
	DD	FLAT:__unwindfunclet$?Init_AdviseList@CRealPacketPage@@AAEXXZ$12
	DD	06H
	DD	FLAT:__unwindfunclet$?Init_AdviseList@CRealPacketPage@@AAEXXZ$13
	DD	0dH
	DD	FLAT:__unwindfunclet$?Init_AdviseList@CRealPacketPage@@AAEXXZ$14
	DD	06H
	DD	FLAT:__unwindfunclet$?Init_AdviseList@CRealPacketPage@@AAEXXZ$15
	DD	0fH
	DD	FLAT:__unwindfunclet$?Init_AdviseList@CRealPacketPage@@AAEXXZ$16
xdata$x	ENDS
;	COMDAT xdata$x
xdata$x	SEGMENT
__ehfuncinfo$?InitPacketListCombo@CRealPacketPage@@AAEXXZ DD 019930522H
	DD	06H
	DD	FLAT:__unwindtable$?InitPacketListCombo@CRealPacketPage@@AAEXXZ
	DD	2 DUP(00H)
	DD	2 DUP(00H)
	DD	00H
	DD	01H
__unwindtable$?InitPacketListCombo@CRealPacketPage@@AAEXXZ DD 0ffffffffH
	DD	FLAT:__unwindfunclet$?InitPacketListCombo@CRealPacketPage@@AAEXXZ$0
	DD	00H
	DD	FLAT:__unwindfunclet$?InitPacketListCombo@CRealPacketPage@@AAEXXZ$1
	DD	01H
	DD	FLAT:__unwindfunclet$?InitPacketListCombo@CRealPacketPage@@AAEXXZ$2
	DD	02H
	DD	FLAT:__unwindfunclet$?InitPacketListCombo@CRealPacketPage@@AAEXXZ$3
	DD	01H
	DD	FLAT:__unwindfunclet$?InitPacketListCombo@CRealPacketPage@@AAEXXZ$4
	DD	04H
	DD	FLAT:__unwindfunclet$?InitPacketListCombo@CRealPacketPage@@AAEXXZ$5
xdata$x	ENDS
;	COMDAT xdata$x
xdata$x	SEGMENT
__ehfuncinfo$?InitBasePacketCombo@CRealPacketPage@@AAEXXZ DD 019930522H
	DD	09H
	DD	FLAT:__unwindtable$?InitBasePacketCombo@CRealPacketPage@@AAEXXZ
	DD	2 DUP(00H)
	DD	2 DUP(00H)
	DD	00H
	DD	01H
__unwindtable$?InitBasePacketCombo@CRealPacketPage@@AAEXXZ DD 0ffffffffH
	DD	FLAT:__unwindfunclet$?InitBasePacketCombo@CRealPacketPage@@AAEXXZ$0
	DD	00H
	DD	FLAT:__unwindfunclet$?InitBasePacketCombo@CRealPacketPage@@AAEXXZ$1
	DD	01H
	DD	FLAT:__unwindfunclet$?InitBasePacketCombo@CRealPacketPage@@AAEXXZ$2
	DD	02H
	DD	FLAT:__unwindfunclet$?InitBasePacketCombo@CRealPacketPage@@AAEXXZ$3
	DD	01H
	DD	FLAT:__unwindfunclet$?InitBasePacketCombo@CRealPacketPage@@AAEXXZ$4
	DD	04H
	DD	FLAT:__unwindfunclet$?InitBasePacketCombo@CRealPacketPage@@AAEXXZ$5
	DD	01H
	DD	FLAT:__unwindfunclet$?InitBasePacketCombo@CRealPacketPage@@AAEXXZ$6
	DD	06H
	DD	FLAT:__unwindfunclet$?InitBasePacketCombo@CRealPacketPage@@AAEXXZ$7
	DD	01H
	DD	FLAT:___std_terminate
xdata$x	ENDS
;	COMDAT xdata$x
xdata$x	SEGMENT
__unwindtable$?AddData@CRealPacketPage@@AAEHV?$CStringT@DV?$StrTraitMFC_DLL@DV?$ChTraitsCRT@D@ATL@@@@@ATL@@000@Z DD 0ffffffffH
	DD	FLAT:__unwindfunclet$?AddData@CRealPacketPage@@AAEHV?$CStringT@DV?$StrTraitMFC_DLL@DV?$ChTraitsCRT@D@ATL@@@@@ATL@@000@Z$0
	DD	00H
	DD	FLAT:__unwindfunclet$?AddData@CRealPacketPage@@AAEHV?$CStringT@DV?$StrTraitMFC_DLL@DV?$ChTraitsCRT@D@ATL@@@@@ATL@@000@Z$1
	DD	01H
	DD	FLAT:__unwindfunclet$?AddData@CRealPacketPage@@AAEHV?$CStringT@DV?$StrTraitMFC_DLL@DV?$ChTraitsCRT@D@ATL@@@@@ATL@@000@Z$2
	DD	02H
	DD	FLAT:__unwindfunclet$?AddData@CRealPacketPage@@AAEHV?$CStringT@DV?$StrTraitMFC_DLL@DV?$ChTraitsCRT@D@ATL@@@@@ATL@@000@Z$3
__ehfuncinfo$?AddData@CRealPacketPage@@AAEHV?$CStringT@DV?$StrTraitMFC_DLL@DV?$ChTraitsCRT@D@ATL@@@@@ATL@@000@Z DD 019930522H
	DD	04H
	DD	FLAT:__unwindtable$?AddData@CRealPacketPage@@AAEHV?$CStringT@DV?$StrTraitMFC_DLL@DV?$ChTraitsCRT@D@ATL@@@@@ATL@@000@Z
	DD	2 DUP(00H)
	DD	2 DUP(00H)
	DD	00H
	DD	01H
xdata$x	ENDS
;	COMDAT xdata$x
xdata$x	SEGMENT
__ehfuncinfo$?InitSharedListCombo@CRealPacketPage@@AAEHPAVCComboBox@@V?$CStringT@DV?$StrTraitMFC_DLL@DV?$ChTraitsCRT@D@ATL@@@@@ATL@@@Z DD 019930522H
	DD	05H
	DD	FLAT:__unwindtable$?InitSharedListCombo@CRealPacketPage@@AAEHPAVCComboBox@@V?$CStringT@DV?$StrTraitMFC_DLL@DV?$ChTraitsCRT@D@ATL@@@@@ATL@@@Z
	DD	2 DUP(00H)
	DD	2 DUP(00H)
	DD	00H
	DD	01H
__unwindtable$?InitSharedListCombo@CRealPacketPage@@AAEHPAVCComboBox@@V?$CStringT@DV?$StrTraitMFC_DLL@DV?$ChTraitsCRT@D@ATL@@@@@ATL@@@Z DD 0ffffffffH
	DD	FLAT:__unwindfunclet$?InitSharedListCombo@CRealPacketPage@@AAEHPAVCComboBox@@V?$CStringT@DV?$StrTraitMFC_DLL@DV?$ChTraitsCRT@D@ATL@@@@@ATL@@@Z$0
	DD	00H
	DD	FLAT:__unwindfunclet$?InitSharedListCombo@CRealPacketPage@@AAEHPAVCComboBox@@V?$CStringT@DV?$StrTraitMFC_DLL@DV?$ChTraitsCRT@D@ATL@@@@@ATL@@@Z$1
	DD	01H
	DD	FLAT:__unwindfunclet$?InitSharedListCombo@CRealPacketPage@@AAEHPAVCComboBox@@V?$CStringT@DV?$StrTraitMFC_DLL@DV?$ChTraitsCRT@D@ATL@@@@@ATL@@@Z$2
	DD	01H
	DD	FLAT:__unwindfunclet$?InitSharedListCombo@CRealPacketPage@@AAEHPAVCComboBox@@V?$CStringT@DV?$StrTraitMFC_DLL@DV?$ChTraitsCRT@D@ATL@@@@@ATL@@@Z$3
	DD	01H
	DD	FLAT:__unwindfunclet$?InitSharedListCombo@CRealPacketPage@@AAEHPAVCComboBox@@V?$CStringT@DV?$StrTraitMFC_DLL@DV?$ChTraitsCRT@D@ATL@@@@@ATL@@@Z$4
xdata$x	ENDS
;	COMDAT xdata$x
xdata$x	SEGMENT
__ehfuncinfo$?MakeRealList@CRealPacketPage@@AAEXXZ DD 019930522H
	DD	0bH
	DD	FLAT:__unwindtable$?MakeRealList@CRealPacketPage@@AAEXXZ
	DD	2 DUP(00H)
	DD	2 DUP(00H)
	DD	00H
	DD	01H
__unwindtable$?MakeRealList@CRealPacketPage@@AAEXXZ DD 0ffffffffH
	DD	FLAT:__unwindfunclet$?MakeRealList@CRealPacketPage@@AAEXXZ$0
	DD	00H
	DD	FLAT:__unwindfunclet$?MakeRealList@CRealPacketPage@@AAEXXZ$1
	DD	01H
	DD	FLAT:__unwindfunclet$?MakeRealList@CRealPacketPage@@AAEXXZ$2
	DD	02H
	DD	FLAT:__unwindfunclet$?MakeRealList@CRealPacketPage@@AAEXXZ$3
	DD	03H
	DD	FLAT:__unwindfunclet$?MakeRealList@CRealPacketPage@@AAEXXZ$4
	DD	04H
	DD	FLAT:__unwindfunclet$?MakeRealList@CRealPacketPage@@AAEXXZ$5
	DD	04H
	DD	FLAT:__unwindfunclet$?MakeRealList@CRealPacketPage@@AAEXXZ$6
	DD	04H
	DD	FLAT:__unwindfunclet$?MakeRealList@CRealPacketPage@@AAEXXZ$7
	DD	04H
	DD	FLAT:__unwindfunclet$?MakeRealList@CRealPacketPage@@AAEXXZ$8
	DD	04H
	DD	FLAT:__unwindfunclet$?MakeRealList@CRealPacketPage@@AAEXXZ$9
	DD	04H
	DD	FLAT:__unwindfunclet$?MakeRealList@CRealPacketPage@@AAEXXZ$10
xdata$x	ENDS
;	COMDAT xdata$x
xdata$x	SEGMENT
__ehfuncinfo$?OnBtnEdit@CRealPacketPage@@IAEXXZ DD 019930522H
	DD	07H
	DD	FLAT:__unwindtable$?OnBtnEdit@CRealPacketPage@@IAEXXZ
	DD	2 DUP(00H)
	DD	2 DUP(00H)
	DD	00H
	DD	01H
__unwindtable$?OnBtnEdit@CRealPacketPage@@IAEXXZ DD 0ffffffffH
	DD	FLAT:__unwindfunclet$?OnBtnEdit@CRealPacketPage@@IAEXXZ$0
	DD	00H
	DD	FLAT:__unwindfunclet$?OnBtnEdit@CRealPacketPage@@IAEXXZ$1
	DD	01H
	DD	FLAT:__unwindfunclet$?OnBtnEdit@CRealPacketPage@@IAEXXZ$2
	DD	02H
	DD	FLAT:__unwindfunclet$?OnBtnEdit@CRealPacketPage@@IAEXXZ$3
	DD	03H
	DD	FLAT:__unwindfunclet$?OnBtnEdit@CRealPacketPage@@IAEXXZ$4
	DD	04H
	DD	FLAT:__unwindfunclet$?OnBtnEdit@CRealPacketPage@@IAEXXZ$5
	DD	05H
	DD	FLAT:__unwindfunclet$?OnBtnEdit@CRealPacketPage@@IAEXXZ$6
xdata$x	ENDS
;	COMDAT xdata$x
xdata$x	SEGMENT
__unwindtable$?OnSelendokPacketTree@CRealPacketPage@@IAEXXZ DD 0ffffffffH
	DD	FLAT:__unwindfunclet$?OnSelendokPacketTree@CRealPacketPage@@IAEXXZ$0
__ehfuncinfo$?OnSelendokPacketTree@CRealPacketPage@@IAEXXZ DD 019930522H
	DD	01H
	DD	FLAT:__unwindtable$?OnSelendokPacketTree@CRealPacketPage@@IAEXXZ
	DD	2 DUP(00H)
	DD	2 DUP(00H)
	DD	00H
	DD	01H
xdata$x	ENDS
;	COMDAT xdata$x
xdata$x	SEGMENT
__unwindtable$?OnSelchangePacketTree@CRealPacketPage@@IAEXXZ DD 0ffffffffH
	DD	FLAT:__unwindfunclet$?OnSelchangePacketTree@CRealPacketPage@@IAEXXZ$0
__ehfuncinfo$?OnSelchangePacketTree@CRealPacketPage@@IAEXXZ DD 019930522H
	DD	01H
	DD	FLAT:__unwindtable$?OnSelchangePacketTree@CRealPacketPage@@IAEXXZ
	DD	2 DUP(00H)
	DD	2 DUP(00H)
	DD	00H
	DD	01H
xdata$x	ENDS
;	COMDAT xdata$x
xdata$x	SEGMENT
__ehfuncinfo$?OnBtnAdd@CRealPacketPage@@IAEXXZ DD 019930522H
	DD	0eH
	DD	FLAT:__unwindtable$?OnBtnAdd@CRealPacketPage@@IAEXXZ
	DD	2 DUP(00H)
	DD	2 DUP(00H)
	DD	00H
	DD	01H
__unwindtable$?OnBtnAdd@CRealPacketPage@@IAEXXZ DD 0ffffffffH
	DD	FLAT:__unwindfunclet$?OnBtnAdd@CRealPacketPage@@IAEXXZ$0
	DD	00H
	DD	FLAT:__unwindfunclet$?OnBtnAdd@CRealPacketPage@@IAEXXZ$1
	DD	01H
	DD	FLAT:__unwindfunclet$?OnBtnAdd@CRealPacketPage@@IAEXXZ$2
	DD	02H
	DD	FLAT:__unwindfunclet$?OnBtnAdd@CRealPacketPage@@IAEXXZ$3
	DD	03H
	DD	FLAT:__unwindfunclet$?OnBtnAdd@CRealPacketPage@@IAEXXZ$4
	DD	04H
	DD	FLAT:__unwindfunclet$?OnBtnAdd@CRealPacketPage@@IAEXXZ$5
	DD	05H
	DD	FLAT:__unwindfunclet$?OnBtnAdd@CRealPacketPage@@IAEXXZ$6
	DD	04H
	DD	FLAT:__unwindfunclet$?OnBtnAdd@CRealPacketPage@@IAEXXZ$7
	DD	07H
	DD	FLAT:__unwindfunclet$?OnBtnAdd@CRealPacketPage@@IAEXXZ$8
	DD	08H
	DD	FLAT:__unwindfunclet$?OnBtnAdd@CRealPacketPage@@IAEXXZ$9
	DD	04H
	DD	FLAT:__unwindfunclet$?OnBtnAdd@CRealPacketPage@@IAEXXZ$11
	DD	0aH
	DD	FLAT:__unwindfunclet$?OnBtnAdd@CRealPacketPage@@IAEXXZ$12
	DD	0bH
	DD	FLAT:__unwindfunclet$?OnBtnAdd@CRealPacketPage@@IAEXXZ$13
	DD	0cH
	DD	FLAT:__unwindfunclet$?OnBtnAdd@CRealPacketPage@@IAEXXZ$14
xdata$x	ENDS
;	COMDAT xdata$x
xdata$x	SEGMENT
__unwindtable$?OnInitDialog@CRealPacketPage@@MAEHXZ DD 0ffffffffH
	DD	FLAT:__unwindfunclet$?OnInitDialog@CRealPacketPage@@MAEHXZ$0
__ehfuncinfo$?OnInitDialog@CRealPacketPage@@MAEHXZ DD 019930522H
	DD	01H
	DD	FLAT:__unwindtable$?OnInitDialog@CRealPacketPage@@MAEHXZ
	DD	2 DUP(00H)
	DD	2 DUP(00H)
	DD	00H
	DD	01H
xdata$x	ENDS
;	COMDAT xdata$x
xdata$x	SEGMENT
__unwindtable$?OnApply@CRealPacketPage@@UAEHXZ DD 0ffffffffH
	DD	FLAT:__unwindfunclet$?OnApply@CRealPacketPage@@UAEHXZ$0
__ehfuncinfo$?OnApply@CRealPacketPage@@UAEHXZ DD 019930522H
	DD	01H
	DD	FLAT:__unwindtable$?OnApply@CRealPacketPage@@UAEHXZ
	DD	2 DUP(00H)
	DD	2 DUP(00H)
	DD	00H
	DD	01H
xdata$x	ENDS
;	COMDAT xdata$x
xdata$x	SEGMENT
__ehfuncinfo$?OnSetActive@CRealPacketPage@@UAEHXZ DD 019930522H
	DD	06H
	DD	FLAT:__unwindtable$?OnSetActive@CRealPacketPage@@UAEHXZ
	DD	2 DUP(00H)
	DD	2 DUP(00H)
	DD	00H
	DD	01H
__unwindtable$?OnSetActive@CRealPacketPage@@UAEHXZ DD 0ffffffffH
	DD	FLAT:__unwindfunclet$?OnSetActive@CRealPacketPage@@UAEHXZ$1
	DD	00H
	DD	FLAT:__unwindfunclet$?OnSetActive@CRealPacketPage@@UAEHXZ$2
	DD	01H
	DD	FLAT:__unwindfunclet$?OnSetActive@CRealPacketPage@@UAEHXZ$3
	DD	02H
	DD	FLAT:__unwindfunclet$?OnSetActive@CRealPacketPage@@UAEHXZ$4
	DD	01H
	DD	FLAT:__unwindfunclet$?OnSetActive@CRealPacketPage@@UAEHXZ$5
	DD	04H
	DD	FLAT:__unwindfunclet$?OnSetActive@CRealPacketPage@@UAEHXZ$6
xdata$x	ENDS
;	COMDAT xdata$x
xdata$x	SEGMENT
__unwindtable$?SetKeyName@CRealPacketPage@@QAEXV?$CStringT@DV?$StrTraitMFC_DLL@DV?$ChTraitsCRT@D@ATL@@@@@ATL@@@Z DD 0ffffffffH
	DD	FLAT:__unwindfunclet$?SetKeyName@CRealPacketPage@@QAEXV?$CStringT@DV?$StrTraitMFC_DLL@DV?$ChTraitsCRT@D@ATL@@@@@ATL@@@Z$0
__ehfuncinfo$?SetKeyName@CRealPacketPage@@QAEXV?$CStringT@DV?$StrTraitMFC_DLL@DV?$ChTraitsCRT@D@ATL@@@@@ATL@@@Z DD 019930522H
	DD	01H
	DD	FLAT:__unwindtable$?SetKeyName@CRealPacketPage@@QAEXV?$CStringT@DV?$StrTraitMFC_DLL@DV?$ChTraitsCRT@D@ATL@@@@@ATL@@@Z
	DD	2 DUP(00H)
	DD	2 DUP(00H)
	DD	00H
	DD	01H
xdata$x	ENDS
;	COMDAT xdata$x
xdata$x	SEGMENT
__unwindtable$?SetRealPacketInfo@CRealPacketPage@@QAEXV?$CStringT@DV?$StrTraitMFC_DLL@DV?$ChTraitsCRT@D@ATL@@@@@ATL@@@Z DD 0ffffffffH
	DD	FLAT:__unwindfunclet$?SetRealPacketInfo@CRealPacketPage@@QAEXV?$CStringT@DV?$StrTraitMFC_DLL@DV?$ChTraitsCRT@D@ATL@@@@@ATL@@@Z$0
__ehfuncinfo$?SetRealPacketInfo@CRealPacketPage@@QAEXV?$CStringT@DV?$StrTraitMFC_DLL@DV?$ChTraitsCRT@D@ATL@@@@@ATL@@@Z DD 019930522H
	DD	01H
	DD	FLAT:__unwindtable$?SetRealPacketInfo@CRealPacketPage@@QAEXV?$CStringT@DV?$StrTraitMFC_DLL@DV?$ChTraitsCRT@D@ATL@@@@@ATL@@@Z
	DD	2 DUP(00H)
	DD	2 DUP(00H)
	DD	00H
	DD	01H
xdata$x	ENDS
;	COMDAT xdata$x
xdata$x	SEGMENT
__ehfuncinfo$??0CRealPacketPage@@QAE@XZ DD 019930522H
	DD	0eH
	DD	FLAT:__unwindtable$??0CRealPacketPage@@QAE@XZ
	DD	2 DUP(00H)
	DD	2 DUP(00H)
	DD	00H
	DD	01H
__unwindtable$??0CRealPacketPage@@QAE@XZ DD 0ffffffffH
	DD	FLAT:__unwindfunclet$??0CRealPacketPage@@QAE@XZ$0
	DD	00H
	DD	FLAT:__unwindfunclet$??0CRealPacketPage@@QAE@XZ$1
	DD	01H
	DD	FLAT:__unwindfunclet$??0CRealPacketPage@@QAE@XZ$2
	DD	02H
	DD	FLAT:__unwindfunclet$??0CRealPacketPage@@QAE@XZ$3
	DD	03H
	DD	FLAT:__unwindfunclet$??0CRealPacketPage@@QAE@XZ$4
	DD	04H
	DD	FLAT:__unwindfunclet$??0CRealPacketPage@@QAE@XZ$5
	DD	05H
	DD	FLAT:__unwindfunclet$??0CRealPacketPage@@QAE@XZ$6
	DD	06H
	DD	FLAT:__unwindfunclet$??0CRealPacketPage@@QAE@XZ$7
	DD	07H
	DD	FLAT:__unwindfunclet$??0CRealPacketPage@@QAE@XZ$8
	DD	08H
	DD	FLAT:__unwindfunclet$??0CRealPacketPage@@QAE@XZ$9
	DD	09H
	DD	FLAT:__unwindfunclet$??0CRealPacketPage@@QAE@XZ$10
	DD	0aH
	DD	FLAT:__unwindfunclet$??0CRealPacketPage@@QAE@XZ$11
	DD	0bH
	DD	FLAT:__unwindfunclet$??0CRealPacketPage@@QAE@XZ$12
	DD	0cH
	DD	FLAT:__unwindfunclet$??0CRealPacketPage@@QAE@XZ$13
xdata$x	ENDS
;	COMDAT xdata$x
xdata$x	SEGMENT
__ehfuncinfo$?CreateObject@CRealPacketPage@@SGPAVCObject@@XZ DD 019930522H
	DD	0fH
	DD	FLAT:__unwindtable$?CreateObject@CRealPacketPage@@SGPAVCObject@@XZ
	DD	2 DUP(00H)
	DD	2 DUP(00H)
	DD	00H
	DD	01H
__unwindtable$?CreateObject@CRealPacketPage@@SGPAVCObject@@XZ DD 0ffffffffH
	DD	FLAT:__unwindfunclet$?CreateObject@CRealPacketPage@@SGPAVCObject@@XZ$0
	DD	00H
	DD	FLAT:__unwindfunclet$?CreateObject@CRealPacketPage@@SGPAVCObject@@XZ$1
	DD	01H
	DD	FLAT:__unwindfunclet$?CreateObject@CRealPacketPage@@SGPAVCObject@@XZ$2
	DD	02H
	DD	FLAT:__unwindfunclet$?CreateObject@CRealPacketPage@@SGPAVCObject@@XZ$3
	DD	03H
	DD	FLAT:__unwindfunclet$?CreateObject@CRealPacketPage@@SGPAVCObject@@XZ$4
	DD	04H
	DD	FLAT:__unwindfunclet$?CreateObject@CRealPacketPage@@SGPAVCObject@@XZ$5
	DD	05H
	DD	FLAT:__unwindfunclet$?CreateObject@CRealPacketPage@@SGPAVCObject@@XZ$6
	DD	06H
	DD	FLAT:__unwindfunclet$?CreateObject@CRealPacketPage@@SGPAVCObject@@XZ$7
	DD	07H
	DD	FLAT:__unwindfunclet$?CreateObject@CRealPacketPage@@SGPAVCObject@@XZ$8
	DD	08H
	DD	FLAT:__unwindfunclet$?CreateObject@CRealPacketPage@@SGPAVCObject@@XZ$9
	DD	09H
	DD	FLAT:__unwindfunclet$?CreateObject@CRealPacketPage@@SGPAVCObject@@XZ$10
	DD	0aH
	DD	FLAT:__unwindfunclet$?CreateObject@CRealPacketPage@@SGPAVCObject@@XZ$11
	DD	0bH
	DD	FLAT:__unwindfunclet$?CreateObject@CRealPacketPage@@SGPAVCObject@@XZ$12
	DD	0cH
	DD	FLAT:__unwindfunclet$?CreateObject@CRealPacketPage@@SGPAVCObject@@XZ$13
	DD	0dH
	DD	FLAT:__unwindfunclet$?CreateObject@CRealPacketPage@@SGPAVCObject@@XZ$14
xdata$x	ENDS
;	COMDAT xdata$x
xdata$x	SEGMENT
__ehfuncinfo$??1CMultiLanguageResourceSetter@@QAE@XZ DD 019930522H
	DD	00H
	DD	00H
	DD	2 DUP(00H)
	DD	2 DUP(00H)
	DD	00H
	DD	05H
xdata$x	ENDS
; Function compile flags: /Ogtp
; File D:\git\src\IBK\IBK_DRFN\ProjSrc\SrcChartEx\ChartAddIn\ChartDesignPropertyAddIn\ChartDesignPropertyAddIn\RealPacketPage.cpp
; File C:\Program Files (x86)\Microsoft Visual Studio\2019\Community\VC\Tools\MSVC\14.29.30133\atlmfc\include\afx.inl
;	COMDAT ??_GCRealPacketPage@@UAEPAXI@Z
_TEXT	SEGMENT
___flags$ = 8						; size = 4
??_GCRealPacketPage@@UAEPAXI@Z PROC			; CRealPacketPage::`scalar deleting destructor', COMDAT
; _this$ = ecx
  00000	55		 push	 ebp
  00001	8b ec		 mov	 ebp, esp
; File D:\git\src\IBK\IBK_DRFN\ProjSrc\SrcChartEx\ChartAddIn\ChartDesignPropertyAddIn\ChartDesignPropertyAddIn\RealPacketPage.cpp

; 50   : {

  00003	56		 push	 esi
  00004	8b f1		 mov	 esi, ecx

; 51   : }

  00006	8d 8e b0 05 00
	00		 lea	 ecx, DWORD PTR [esi+1456]
  0000c	c7 06 00 00 00
	00		 mov	 DWORD PTR [esi], OFFSET ??_7CRealPacketPage@@6B@
  00012	ff 15 00 00 00
	00		 call	 DWORD PTR __imp_??1?$CStringT@DV?$StrTraitMFC_DLL@DV?$ChTraitsCRT@D@ATL@@@@@ATL@@QAE@XZ
  00018	8d 8e 70 03 00
	00		 lea	 ecx, DWORD PTR [esi+880]
  0001e	e8 00 00 00 00	 call	 ??1CTreeCombo@@UAE@XZ	; CTreeCombo::~CTreeCombo
  00023	8d 8e 68 03 00
	00		 lea	 ecx, DWORD PTR [esi+872]
  00029	ff 15 00 00 00
	00		 call	 DWORD PTR __imp_??1?$CStringT@DV?$StrTraitMFC_DLL@DV?$ChTraitsCRT@D@ATL@@@@@ATL@@QAE@XZ
  0002f	8d 8e 60 03 00
	00		 lea	 ecx, DWORD PTR [esi+864]
  00035	ff 15 00 00 00
	00		 call	 DWORD PTR __imp_??1?$CStringT@DV?$StrTraitMFC_DLL@DV?$ChTraitsCRT@D@ATL@@@@@ATL@@QAE@XZ
  0003b	8d 8e 4c 03 00
	00		 lea	 ecx, DWORD PTR [esi+844]
  00041	ff 15 00 00 00
	00		 call	 DWORD PTR __imp_??1?$CStringT@DV?$StrTraitMFC_DLL@DV?$ChTraitsCRT@D@ATL@@@@@ATL@@QAE@XZ
  00047	8d 8e 48 03 00
	00		 lea	 ecx, DWORD PTR [esi+840]
  0004d	ff 15 00 00 00
	00		 call	 DWORD PTR __imp_??1?$CStringT@DV?$StrTraitMFC_DLL@DV?$ChTraitsCRT@D@ATL@@@@@ATL@@QAE@XZ
  00053	8d 8e 44 03 00
	00		 lea	 ecx, DWORD PTR [esi+836]
  00059	ff 15 00 00 00
	00		 call	 DWORD PTR __imp_??1?$CStringT@DV?$StrTraitMFC_DLL@DV?$ChTraitsCRT@D@ATL@@@@@ATL@@QAE@XZ
  0005f	8d 8e 40 03 00
	00		 lea	 ecx, DWORD PTR [esi+832]
  00065	ff 15 00 00 00
	00		 call	 DWORD PTR __imp_??1?$CStringT@DV?$StrTraitMFC_DLL@DV?$ChTraitsCRT@D@ATL@@@@@ATL@@QAE@XZ
  0006b	8d 8e c0 02 00
	00		 lea	 ecx, DWORD PTR [esi+704]
  00071	e8 00 00 00 00	 call	 ??1CListCtrl@@UAE@XZ	; CListCtrl::~CListCtrl
  00076	8d 8e 40 02 00
	00		 lea	 ecx, DWORD PTR [esi+576]
  0007c	e8 00 00 00 00	 call	 ??1CComboBox@@UAE@XZ	; CComboBox::~CComboBox
  00081	8d 8e c0 01 00
	00		 lea	 ecx, DWORD PTR [esi+448]
  00087	e8 00 00 00 00	 call	 ??1CNoSystemMenuEdit@@UAE@XZ ; CNoSystemMenuEdit::~CNoSystemMenuEdit
  0008c	8d 8e 40 01 00
	00		 lea	 ecx, DWORD PTR [esi+320]
  00092	e8 00 00 00 00	 call	 ??1CComboBox@@UAE@XZ	; CComboBox::~CComboBox
  00097	8d 8e c0 00 00
	00		 lea	 ecx, DWORD PTR [esi+192]
  0009d	e8 00 00 00 00	 call	 ??1CComboBox@@UAE@XZ	; CComboBox::~CComboBox
  000a2	8b ce		 mov	 ecx, esi
  000a4	e8 00 00 00 00	 call	 ??1CPropertyPage@@UAE@XZ ; CPropertyPage::~CPropertyPage
  000a9	8b 45 08	 mov	 eax, DWORD PTR ___flags$[ebp]
  000ac	a8 01		 test	 al, 1
  000ae	74 22		 je	 SHORT $LN12@scalar
  000b0	a8 04		 test	 al, 4
  000b2	75 10		 jne	 SHORT $LN3@scalar
; File C:\Program Files (x86)\Microsoft Visual Studio\2019\Community\VC\Tools\MSVC\14.29.30133\atlmfc\include\afx.inl

; 112  : 	{ ::operator delete(p); }

  000b4	56		 push	 esi
  000b5	e8 00 00 00 00	 call	 ??3@YAXPAX@Z		; operator delete
  000ba	83 c4 04	 add	 esp, 4
  000bd	8b c6		 mov	 eax, esi
  000bf	5e		 pop	 esi
  000c0	5d		 pop	 ebp
  000c1	c2 04 00	 ret	 4
$LN3@scalar:
  000c4	68 c0 05 00 00	 push	 1472			; 000005c0H
  000c9	56		 push	 esi
  000ca	e8 00 00 00 00	 call	 ?__global_delete@@YAXPAXI@Z ; __global_delete
  000cf	83 c4 08	 add	 esp, 8
$LN12@scalar:
  000d2	8b c6		 mov	 eax, esi
  000d4	5e		 pop	 esi
  000d5	5d		 pop	 ebp
  000d6	c2 04 00	 ret	 4
??_GCRealPacketPage@@UAEPAXI@Z ENDP			; CRealPacketPage::`scalar deleting destructor'
_TEXT	ENDS
; Function compile flags: /Ogtp
; File D:\git\src\IBK\IBK_DRFN\ProjSrc\SrcChartEx\ChartAddIn\ChartDesignPropertyAddIn\ChartDesignPropertyAddIn\RealPacketPage.cpp
;	COMDAT ?SetOcxHwnd@CRealPacketPage@@QAEXPAUHWND__@@@Z
_TEXT	SEGMENT
_p_hOcxWnd$ = 8						; size = 4
?SetOcxHwnd@CRealPacketPage@@QAEXPAUHWND__@@@Z PROC	; CRealPacketPage::SetOcxHwnd, COMDAT
; _this$ = ecx

; 472  : {

  00000	55		 push	 ebp
  00001	8b ec		 mov	 ebp, esp

; 473  : 	m_hOcxWnd = p_hOcxWnd;

  00003	8b 45 08	 mov	 eax, DWORD PTR _p_hOcxWnd$[ebp]
  00006	89 81 b8 05 00
	00		 mov	 DWORD PTR [ecx+1464], eax

; 474  : 	m_TreeCombo.SetOcxHwnd( p_hOcxWnd);

  0000c	89 81 9c 04 00
	00		 mov	 DWORD PTR [ecx+1180], eax

; 475  : }

  00012	5d		 pop	 ebp
  00013	c2 04 00	 ret	 4
?SetOcxHwnd@CRealPacketPage@@QAEXPAUHWND__@@@Z ENDP	; CRealPacketPage::SetOcxHwnd
_TEXT	ENDS
; Function compile flags: /Ogtp
; File D:\git\src\IBK\IBK_DRFN\ProjSrc\SrcChartEx\ChartAddIn\ChartDesignPropertyAddIn\ChartDesignPropertyAddIn\RealPacketPage.cpp
; File C:\Program Files (x86)\Microsoft Visual Studio\2019\Community\VC\Tools\MSVC\14.29.30133\atlmfc\include\afxcmn.inl
; File D:\git\src\IBK\IBK_DRFN\ProjSrc\SrcChartEx\ChartAddIn\ChartDesignPropertyAddIn\ChartDesignPropertyAddIn\RealPacketPage.cpp
; File C:\Program Files (x86)\Microsoft Visual Studio\2019\Community\VC\Tools\MSVC\14.29.30133\atlmfc\include\cstringt.h
; File D:\git\src\IBK\IBK_DRFN\ProjSrc\SrcChartEx\ChartAddIn\ChartDesignPropertyAddIn\ChartDesignPropertyAddIn\RealPacketPage.cpp
; File C:\Program Files (x86)\Microsoft Visual Studio\2019\Community\VC\Tools\MSVC\14.29.30133\atlmfc\include\cstringt.h
; File D:\git\src\IBK\IBK_DRFN\ProjSrc\SrcChartEx\ChartAddIn\ChartDesignPropertyAddIn\ChartDesignPropertyAddIn\RealPacketPage.cpp
; File C:\Program Files (x86)\Microsoft Visual Studio\2019\Community\VC\Tools\MSVC\14.29.30133\atlmfc\include\afxcmn.inl
; File D:\git\src\IBK\IBK_DRFN\ProjSrc\SrcChartEx\ChartAddIn\ChartDesignPropertyAddIn\ChartDesignPropertyAddIn\RealPacketPage.cpp
; File C:\Program Files (x86)\Microsoft Visual Studio\2019\Community\VC\Tools\MSVC\14.29.30133\atlmfc\include\cstringt.h
; File D:\git\src\IBK\IBK_DRFN\ProjSrc\SrcChartEx\ChartAddIn\ChartDesignPropertyAddIn\ChartDesignPropertyAddIn\RealPacketPage.cpp
;	COMDAT ?Init_AdviseList@CRealPacketPage@@AAEXXZ
_TEXT	SEGMENT
_szChartPacket$ = -72					; size = 4
_szPacket$ = -68					; size = 4
_szField$ = -64						; size = 4
_szKey$ = -60						; size = 4
$T2 = -56						; size = 4
$T3 = -52						; size = 4
$T4 = -48						; size = 4
$T5 = -44						; size = 4
$T6 = -40						; size = 4
$T7 = -40						; size = 4
$T8 = -36						; size = 4
$T9 = -32						; size = 4
$T10 = -28						; size = 4
$T11 = -28						; size = 4
_szAdviseList$ = -24					; size = 4
_szItem$ = -20						; size = 4
_szOneItem$ = -16					; size = 4
__$EHRec$ = -12						; size = 12
?Init_AdviseList@CRealPacketPage@@AAEXXZ PROC		; CRealPacketPage::Init_AdviseList, COMDAT
; _this$ = ecx

; 141  : {

  00000	55		 push	 ebp
  00001	8b ec		 mov	 ebp, esp
  00003	6a ff		 push	 -1
  00005	68 00 00 00 00	 push	 __ehhandler$?Init_AdviseList@CRealPacketPage@@AAEXXZ
  0000a	64 a1 00 00 00
	00		 mov	 eax, DWORD PTR fs:0
  00010	50		 push	 eax
  00011	83 ec 3c	 sub	 esp, 60			; 0000003cH
  00014	56		 push	 esi
  00015	57		 push	 edi
  00016	a1 00 00 00 00	 mov	 eax, DWORD PTR ___security_cookie
  0001b	33 c5		 xor	 eax, ebp
  0001d	50		 push	 eax
  0001e	8d 45 f4	 lea	 eax, DWORD PTR __$EHRec$[ebp]
  00021	64 a3 00 00 00
	00		 mov	 DWORD PTR fs:0, eax
  00027	8b f1		 mov	 esi, ecx
; File C:\Program Files (x86)\Microsoft Visual Studio\2019\Community\VC\Tools\MSVC\14.29.30133\atlmfc\include\afxcmn.inl

; 171  : 	{ ASSERT(::IsWindow(m_hWnd)); return (BOOL) ::SendMessage(m_hWnd, LVM_DELETEALLITEMS, 0, 0L); }

  00029	6a 00		 push	 0
  0002b	6a 00		 push	 0
  0002d	68 09 10 00 00	 push	 4105			; 00001009H
  00032	ff b6 e0 02 00
	00		 push	 DWORD PTR [esi+736]
  00038	ff 15 00 00 00
	00		 call	 DWORD PTR __imp__SendMessageA@16
; File D:\git\src\IBK\IBK_DRFN\ProjSrc\SrcChartEx\ChartAddIn\ChartDesignPropertyAddIn\ChartDesignPropertyAddIn\RealPacketPage.cpp

; 144  : 	CString szChartPacket, szPacket, szField, szKey;

  0003e	8d 4d b8	 lea	 ecx, DWORD PTR _szChartPacket$[ebp]
  00041	ff 15 00 00 00
	00		 call	 DWORD PTR __imp_??0?$CStringT@DV?$StrTraitMFC_DLL@DV?$ChTraitsCRT@D@ATL@@@@@ATL@@QAE@XZ
  00047	8d 4d bc	 lea	 ecx, DWORD PTR _szPacket$[ebp]
  0004a	c7 45 fc 00 00
	00 00		 mov	 DWORD PTR __$EHRec$[ebp+8], 0
  00051	ff 15 00 00 00
	00		 call	 DWORD PTR __imp_??0?$CStringT@DV?$StrTraitMFC_DLL@DV?$ChTraitsCRT@D@ATL@@@@@ATL@@QAE@XZ
  00057	8d 4d c0	 lea	 ecx, DWORD PTR _szField$[ebp]
  0005a	ff 15 00 00 00
	00		 call	 DWORD PTR __imp_??0?$CStringT@DV?$StrTraitMFC_DLL@DV?$ChTraitsCRT@D@ATL@@@@@ATL@@QAE@XZ
  00060	8d 4d c4	 lea	 ecx, DWORD PTR _szKey$[ebp]
  00063	ff 15 00 00 00
	00		 call	 DWORD PTR __imp_??0?$CStringT@DV?$StrTraitMFC_DLL@DV?$ChTraitsCRT@D@ATL@@@@@ATL@@QAE@XZ

; 145  : 	CString szAdviseList, szOneItem, szItem;

  00069	8d 4d e8	 lea	 ecx, DWORD PTR _szAdviseList$[ebp]
  0006c	ff 15 00 00 00
	00		 call	 DWORD PTR __imp_??0?$CStringT@DV?$StrTraitMFC_DLL@DV?$ChTraitsCRT@D@ATL@@@@@ATL@@QAE@XZ
  00072	8d 4d f0	 lea	 ecx, DWORD PTR _szOneItem$[ebp]
  00075	ff 15 00 00 00
	00		 call	 DWORD PTR __imp_??0?$CStringT@DV?$StrTraitMFC_DLL@DV?$ChTraitsCRT@D@ATL@@@@@ATL@@QAE@XZ
  0007b	8d 4d ec	 lea	 ecx, DWORD PTR _szItem$[ebp]
  0007e	ff 15 00 00 00
	00		 call	 DWORD PTR __imp_??0?$CStringT@DV?$StrTraitMFC_DLL@DV?$ChTraitsCRT@D@ATL@@@@@ATL@@QAE@XZ

; 146  : 
; 147  : 	szAdviseList = m_szRealList;

  00084	8d 86 44 03 00
	00		 lea	 eax, DWORD PTR [esi+836]
  0008a	c6 45 fc 06	 mov	 BYTE PTR __$EHRec$[ebp+8], 6
  0008e	50		 push	 eax
  0008f	8d 4d e8	 lea	 ecx, DWORD PTR _szAdviseList$[ebp]
  00092	ff 15 00 00 00
	00		 call	 DWORD PTR __imp_??4?$CStringT@DV?$StrTraitMFC_DLL@DV?$ChTraitsCRT@D@ATL@@@@@ATL@@QAEAAV01@ABV01@@Z

; 148  : 	szOneItem = CDataConversion::GetStringData(szAdviseList, ";");

  00098	68 00 00 00 00	 push	 OFFSET ??_C@_01ICJEACDI@?$DL@
  0009d	8d 4d e4	 lea	 ecx, DWORD PTR $T11[ebp]
  000a0	ff 15 00 00 00
	00		 call	 DWORD PTR __imp_??0?$CStringT@DV?$StrTraitMFC_DLL@DV?$ChTraitsCRT@D@ATL@@@@@ATL@@QAE@PBD@Z
  000a6	6a 01		 push	 1
  000a8	8d 45 e4	 lea	 eax, DWORD PTR $T11[ebp]
  000ab	c6 45 fc 07	 mov	 BYTE PTR __$EHRec$[ebp+8], 7
  000af	50		 push	 eax
  000b0	8d 45 e8	 lea	 eax, DWORD PTR _szAdviseList$[ebp]
  000b3	50		 push	 eax
  000b4	8d 45 d8	 lea	 eax, DWORD PTR $T7[ebp]
  000b7	50		 push	 eax
  000b8	e8 00 00 00 00	 call	 ?GetStringData@CDataConversion@@SA?AV?$CStringT@DV?$StrTraitMFC_DLL@DV?$ChTraitsCRT@D@ATL@@@@@ATL@@AAV23@ABV23@_N@Z ; CDataConversion::GetStringData
  000bd	83 c4 10	 add	 esp, 16			; 00000010H
  000c0	50		 push	 eax
  000c1	8d 4d f0	 lea	 ecx, DWORD PTR _szOneItem$[ebp]
  000c4	c6 45 fc 08	 mov	 BYTE PTR __$EHRec$[ebp+8], 8
  000c8	ff 15 00 00 00
	00		 call	 DWORD PTR __imp_??4?$CStringT@DV?$StrTraitMFC_DLL@DV?$ChTraitsCRT@D@ATL@@@@@ATL@@QAEAAV01@ABV01@@Z
  000ce	8d 4d d8	 lea	 ecx, DWORD PTR $T7[ebp]
  000d1	ff 15 00 00 00
	00		 call	 DWORD PTR __imp_??1?$CStringT@DV?$StrTraitMFC_DLL@DV?$ChTraitsCRT@D@ATL@@@@@ATL@@QAE@XZ
  000d7	8d 4d e4	 lea	 ecx, DWORD PTR $T11[ebp]
  000da	c6 45 fc 06	 mov	 BYTE PTR __$EHRec$[ebp+8], 6
  000de	ff 15 00 00 00
	00		 call	 DWORD PTR __imp_??1?$CStringT@DV?$StrTraitMFC_DLL@DV?$ChTraitsCRT@D@ATL@@@@@ATL@@QAE@XZ
; File C:\Program Files (x86)\Microsoft Visual Studio\2019\Community\VC\Tools\MSVC\14.29.30133\atlmfc\include\cstringt.h

; 2567 : 		return( str1.Compare( psz2 ) != 0 );

  000e4	68 00 00 00 00	 push	 OFFSET ??_C@_00CNPNBAHC@@
  000e9	8d 4d f0	 lea	 ecx, DWORD PTR _szOneItem$[ebp]
; File D:\git\src\IBK\IBK_DRFN\ProjSrc\SrcChartEx\ChartAddIn\ChartDesignPropertyAddIn\ChartDesignPropertyAddIn\RealPacketPage.cpp

; 149  : 	int i = 0;

  000ec	33 ff		 xor	 edi, edi
; File C:\Program Files (x86)\Microsoft Visual Studio\2019\Community\VC\Tools\MSVC\14.29.30133\atlmfc\include\cstringt.h

; 2567 : 		return( str1.Compare( psz2 ) != 0 );

  000ee	ff 15 00 00 00
	00		 call	 DWORD PTR __imp_?Compare@?$CStringT@DV?$StrTraitMFC_DLL@DV?$ChTraitsCRT@D@ATL@@@@@ATL@@QBEHPBD@Z
  000f4	85 c0		 test	 eax, eax
; File D:\git\src\IBK\IBK_DRFN\ProjSrc\SrcChartEx\ChartAddIn\ChartDesignPropertyAddIn\ChartDesignPropertyAddIn\RealPacketPage.cpp

; 150  : 	while(szOneItem != "") {

  000f6	0f 84 89 01 00
	00		 je	 $LN3@Init_Advis
  000fc	81 c6 c0 02 00
	00		 add	 esi, 704		; 000002c0H
$LL2@Init_Advis:

; 151  : 		szItem = CDataConversion::GetStringData(szOneItem, ".");

  00102	68 00 00 00 00	 push	 OFFSET ??_C@_01LFCBOECM@?4@
  00107	8d 4d e4	 lea	 ecx, DWORD PTR $T10[ebp]
  0010a	ff 15 00 00 00
	00		 call	 DWORD PTR __imp_??0?$CStringT@DV?$StrTraitMFC_DLL@DV?$ChTraitsCRT@D@ATL@@@@@ATL@@QAE@PBD@Z
  00110	6a 01		 push	 1
  00112	8d 45 e4	 lea	 eax, DWORD PTR $T10[ebp]
  00115	c6 45 fc 09	 mov	 BYTE PTR __$EHRec$[ebp+8], 9
  00119	50		 push	 eax
  0011a	8d 45 f0	 lea	 eax, DWORD PTR _szOneItem$[ebp]
  0011d	50		 push	 eax
  0011e	8d 45 d4	 lea	 eax, DWORD PTR $T5[ebp]
  00121	50		 push	 eax
  00122	e8 00 00 00 00	 call	 ?GetStringData@CDataConversion@@SA?AV?$CStringT@DV?$StrTraitMFC_DLL@DV?$ChTraitsCRT@D@ATL@@@@@ATL@@AAV23@ABV23@_N@Z ; CDataConversion::GetStringData
  00127	83 c4 10	 add	 esp, 16			; 00000010H
  0012a	50		 push	 eax
  0012b	8d 4d ec	 lea	 ecx, DWORD PTR _szItem$[ebp]
  0012e	c6 45 fc 0a	 mov	 BYTE PTR __$EHRec$[ebp+8], 10 ; 0000000aH
  00132	ff 15 00 00 00
	00		 call	 DWORD PTR __imp_??4?$CStringT@DV?$StrTraitMFC_DLL@DV?$ChTraitsCRT@D@ATL@@@@@ATL@@QAEAAV01@ABV01@@Z
  00138	8d 4d d4	 lea	 ecx, DWORD PTR $T5[ebp]
  0013b	ff 15 00 00 00
	00		 call	 DWORD PTR __imp_??1?$CStringT@DV?$StrTraitMFC_DLL@DV?$ChTraitsCRT@D@ATL@@@@@ATL@@QAE@XZ
  00141	8d 4d e4	 lea	 ecx, DWORD PTR $T10[ebp]
  00144	c6 45 fc 06	 mov	 BYTE PTR __$EHRec$[ebp+8], 6
  00148	ff 15 00 00 00
	00		 call	 DWORD PTR __imp_??1?$CStringT@DV?$StrTraitMFC_DLL@DV?$ChTraitsCRT@D@ATL@@@@@ATL@@QAE@XZ
; File C:\Program Files (x86)\Microsoft Visual Studio\2019\Community\VC\Tools\MSVC\14.29.30133\atlmfc\include\afxcmn.inl

; 165  : 	{ ASSERT(::IsWindow(m_hWnd)); return InsertItem(LVIF_TEXT, nItem, lpszItem, 0, 0, 0, 0); }

  0014e	6a 00		 push	 0
  00150	6a 00		 push	 0
  00152	6a 00		 push	 0
  00154	6a 00		 push	 0
  00156	ff 75 ec	 push	 DWORD PTR _szItem$[ebp]
  00159	8b ce		 mov	 ecx, esi
  0015b	57		 push	 edi
  0015c	6a 01		 push	 1
  0015e	e8 00 00 00 00	 call	 ?InsertItem@CListCtrl@@QAEHIHPBDIIHJ@Z ; CListCtrl::InsertItem
; File D:\git\src\IBK\IBK_DRFN\ProjSrc\SrcChartEx\ChartAddIn\ChartDesignPropertyAddIn\ChartDesignPropertyAddIn\RealPacketPage.cpp

; 153  : 		szItem = CDataConversion::GetStringData(szOneItem, ".");

  00163	68 00 00 00 00	 push	 OFFSET ??_C@_01LFCBOECM@?4@
  00168	8d 4d e0	 lea	 ecx, DWORD PTR $T9[ebp]
  0016b	ff 15 00 00 00
	00		 call	 DWORD PTR __imp_??0?$CStringT@DV?$StrTraitMFC_DLL@DV?$ChTraitsCRT@D@ATL@@@@@ATL@@QAE@PBD@Z
  00171	6a 01		 push	 1
  00173	8d 45 e0	 lea	 eax, DWORD PTR $T9[ebp]
  00176	c6 45 fc 0b	 mov	 BYTE PTR __$EHRec$[ebp+8], 11 ; 0000000bH
  0017a	50		 push	 eax
  0017b	8d 45 f0	 lea	 eax, DWORD PTR _szOneItem$[ebp]
  0017e	50		 push	 eax
  0017f	8d 45 d0	 lea	 eax, DWORD PTR $T4[ebp]
  00182	50		 push	 eax
  00183	e8 00 00 00 00	 call	 ?GetStringData@CDataConversion@@SA?AV?$CStringT@DV?$StrTraitMFC_DLL@DV?$ChTraitsCRT@D@ATL@@@@@ATL@@AAV23@ABV23@_N@Z ; CDataConversion::GetStringData
  00188	83 c4 10	 add	 esp, 16			; 00000010H
  0018b	50		 push	 eax
  0018c	8d 4d ec	 lea	 ecx, DWORD PTR _szItem$[ebp]
  0018f	c6 45 fc 0c	 mov	 BYTE PTR __$EHRec$[ebp+8], 12 ; 0000000cH
  00193	ff 15 00 00 00
	00		 call	 DWORD PTR __imp_??4?$CStringT@DV?$StrTraitMFC_DLL@DV?$ChTraitsCRT@D@ATL@@@@@ATL@@QAEAAV01@ABV01@@Z
  00199	8d 4d d0	 lea	 ecx, DWORD PTR $T4[ebp]
  0019c	ff 15 00 00 00
	00		 call	 DWORD PTR __imp_??1?$CStringT@DV?$StrTraitMFC_DLL@DV?$ChTraitsCRT@D@ATL@@@@@ATL@@QAE@XZ
  001a2	8d 4d e0	 lea	 ecx, DWORD PTR $T9[ebp]
  001a5	c6 45 fc 06	 mov	 BYTE PTR __$EHRec$[ebp+8], 6
  001a9	ff 15 00 00 00
	00		 call	 DWORD PTR __imp_??1?$CStringT@DV?$StrTraitMFC_DLL@DV?$ChTraitsCRT@D@ATL@@@@@ATL@@QAE@XZ

; 154  : 		m_lsAdviseList.SetItemText(i, 1, szItem);

  001af	ff 75 ec	 push	 DWORD PTR _szItem$[ebp]
  001b2	8b ce		 mov	 ecx, esi
  001b4	6a 01		 push	 1
  001b6	57		 push	 edi
  001b7	e8 00 00 00 00	 call	 ?SetItemText@CListCtrl@@QAEHHHPBD@Z ; CListCtrl::SetItemText

; 155  : 		szItem = CDataConversion::GetStringData(szOneItem, ".");

  001bc	68 00 00 00 00	 push	 OFFSET ??_C@_01LFCBOECM@?4@
  001c1	8d 4d dc	 lea	 ecx, DWORD PTR $T8[ebp]
  001c4	ff 15 00 00 00
	00		 call	 DWORD PTR __imp_??0?$CStringT@DV?$StrTraitMFC_DLL@DV?$ChTraitsCRT@D@ATL@@@@@ATL@@QAE@PBD@Z
  001ca	6a 01		 push	 1
  001cc	8d 45 dc	 lea	 eax, DWORD PTR $T8[ebp]
  001cf	c6 45 fc 0d	 mov	 BYTE PTR __$EHRec$[ebp+8], 13 ; 0000000dH
  001d3	50		 push	 eax
  001d4	8d 45 f0	 lea	 eax, DWORD PTR _szOneItem$[ebp]
  001d7	50		 push	 eax
  001d8	8d 45 cc	 lea	 eax, DWORD PTR $T3[ebp]
  001db	50		 push	 eax
  001dc	e8 00 00 00 00	 call	 ?GetStringData@CDataConversion@@SA?AV?$CStringT@DV?$StrTraitMFC_DLL@DV?$ChTraitsCRT@D@ATL@@@@@ATL@@AAV23@ABV23@_N@Z ; CDataConversion::GetStringData
  001e1	83 c4 10	 add	 esp, 16			; 00000010H
  001e4	50		 push	 eax
  001e5	8d 4d ec	 lea	 ecx, DWORD PTR _szItem$[ebp]
  001e8	c6 45 fc 0e	 mov	 BYTE PTR __$EHRec$[ebp+8], 14 ; 0000000eH
  001ec	ff 15 00 00 00
	00		 call	 DWORD PTR __imp_??4?$CStringT@DV?$StrTraitMFC_DLL@DV?$ChTraitsCRT@D@ATL@@@@@ATL@@QAEAAV01@ABV01@@Z
  001f2	8d 4d cc	 lea	 ecx, DWORD PTR $T3[ebp]
  001f5	ff 15 00 00 00
	00		 call	 DWORD PTR __imp_??1?$CStringT@DV?$StrTraitMFC_DLL@DV?$ChTraitsCRT@D@ATL@@@@@ATL@@QAE@XZ
  001fb	8d 4d dc	 lea	 ecx, DWORD PTR $T8[ebp]
  001fe	c6 45 fc 06	 mov	 BYTE PTR __$EHRec$[ebp+8], 6
  00202	ff 15 00 00 00
	00		 call	 DWORD PTR __imp_??1?$CStringT@DV?$StrTraitMFC_DLL@DV?$ChTraitsCRT@D@ATL@@@@@ATL@@QAE@XZ

; 156  : 		m_lsAdviseList.SetItemText(i, 2, szItem);

  00208	ff 75 ec	 push	 DWORD PTR _szItem$[ebp]
  0020b	8b ce		 mov	 ecx, esi
  0020d	6a 02		 push	 2
  0020f	57		 push	 edi
  00210	e8 00 00 00 00	 call	 ?SetItemText@CListCtrl@@QAEHHHPBD@Z ; CListCtrl::SetItemText

; 157  : 		m_lsAdviseList.SetItemText(i++, 3, szOneItem);

  00215	ff 75 f0	 push	 DWORD PTR _szOneItem$[ebp]
  00218	8b ce		 mov	 ecx, esi
  0021a	6a 03		 push	 3
  0021c	57		 push	 edi
  0021d	e8 00 00 00 00	 call	 ?SetItemText@CListCtrl@@QAEHHHPBD@Z ; CListCtrl::SetItemText

; 158  : 		szOneItem = CDataConversion::GetStringData(szAdviseList, ";");

  00222	68 00 00 00 00	 push	 OFFSET ??_C@_01ICJEACDI@?$DL@
  00227	8d 4d d8	 lea	 ecx, DWORD PTR $T6[ebp]
  0022a	47		 inc	 edi
  0022b	ff 15 00 00 00
	00		 call	 DWORD PTR __imp_??0?$CStringT@DV?$StrTraitMFC_DLL@DV?$ChTraitsCRT@D@ATL@@@@@ATL@@QAE@PBD@Z
  00231	6a 01		 push	 1
  00233	8d 45 d8	 lea	 eax, DWORD PTR $T6[ebp]
  00236	c6 45 fc 0f	 mov	 BYTE PTR __$EHRec$[ebp+8], 15 ; 0000000fH
  0023a	50		 push	 eax
  0023b	8d 45 e8	 lea	 eax, DWORD PTR _szAdviseList$[ebp]
  0023e	50		 push	 eax
  0023f	8d 45 c8	 lea	 eax, DWORD PTR $T2[ebp]
  00242	50		 push	 eax
  00243	e8 00 00 00 00	 call	 ?GetStringData@CDataConversion@@SA?AV?$CStringT@DV?$StrTraitMFC_DLL@DV?$ChTraitsCRT@D@ATL@@@@@ATL@@AAV23@ABV23@_N@Z ; CDataConversion::GetStringData
  00248	83 c4 10	 add	 esp, 16			; 00000010H
  0024b	50		 push	 eax
  0024c	8d 4d f0	 lea	 ecx, DWORD PTR _szOneItem$[ebp]
  0024f	c6 45 fc 10	 mov	 BYTE PTR __$EHRec$[ebp+8], 16 ; 00000010H
  00253	ff 15 00 00 00
	00		 call	 DWORD PTR __imp_??4?$CStringT@DV?$StrTraitMFC_DLL@DV?$ChTraitsCRT@D@ATL@@@@@ATL@@QAEAAV01@ABV01@@Z
  00259	8d 4d c8	 lea	 ecx, DWORD PTR $T2[ebp]
  0025c	ff 15 00 00 00
	00		 call	 DWORD PTR __imp_??1?$CStringT@DV?$StrTraitMFC_DLL@DV?$ChTraitsCRT@D@ATL@@@@@ATL@@QAE@XZ
  00262	8d 4d d8	 lea	 ecx, DWORD PTR $T6[ebp]
  00265	c6 45 fc 06	 mov	 BYTE PTR __$EHRec$[ebp+8], 6
  00269	ff 15 00 00 00
	00		 call	 DWORD PTR __imp_??1?$CStringT@DV?$StrTraitMFC_DLL@DV?$ChTraitsCRT@D@ATL@@@@@ATL@@QAE@XZ
; File C:\Program Files (x86)\Microsoft Visual Studio\2019\Community\VC\Tools\MSVC\14.29.30133\atlmfc\include\cstringt.h

; 2567 : 		return( str1.Compare( psz2 ) != 0 );

  0026f	68 00 00 00 00	 push	 OFFSET ??_C@_00CNPNBAHC@@
  00274	8d 4d f0	 lea	 ecx, DWORD PTR _szOneItem$[ebp]
  00277	ff 15 00 00 00
	00		 call	 DWORD PTR __imp_?Compare@?$CStringT@DV?$StrTraitMFC_DLL@DV?$ChTraitsCRT@D@ATL@@@@@ATL@@QBEHPBD@Z
  0027d	85 c0		 test	 eax, eax
; File D:\git\src\IBK\IBK_DRFN\ProjSrc\SrcChartEx\ChartAddIn\ChartDesignPropertyAddIn\ChartDesignPropertyAddIn\RealPacketPage.cpp

; 150  : 	while(szOneItem != "") {

  0027f	0f 85 7d fe ff
	ff		 jne	 $LL2@Init_Advis
$LN3@Init_Advis:

; 159  : 	}
; 160  : }

  00285	8d 4d ec	 lea	 ecx, DWORD PTR _szItem$[ebp]
  00288	ff 15 00 00 00
	00		 call	 DWORD PTR __imp_??1?$CStringT@DV?$StrTraitMFC_DLL@DV?$ChTraitsCRT@D@ATL@@@@@ATL@@QAE@XZ
  0028e	8d 4d f0	 lea	 ecx, DWORD PTR _szOneItem$[ebp]
  00291	ff 15 00 00 00
	00		 call	 DWORD PTR __imp_??1?$CStringT@DV?$StrTraitMFC_DLL@DV?$ChTraitsCRT@D@ATL@@@@@ATL@@QAE@XZ
  00297	8d 4d e8	 lea	 ecx, DWORD PTR _szAdviseList$[ebp]
  0029a	ff 15 00 00 00
	00		 call	 DWORD PTR __imp_??1?$CStringT@DV?$StrTraitMFC_DLL@DV?$ChTraitsCRT@D@ATL@@@@@ATL@@QAE@XZ
  002a0	8d 4d c4	 lea	 ecx, DWORD PTR _szKey$[ebp]
  002a3	ff 15 00 00 00
	00		 call	 DWORD PTR __imp_??1?$CStringT@DV?$StrTraitMFC_DLL@DV?$ChTraitsCRT@D@ATL@@@@@ATL@@QAE@XZ
  002a9	8d 4d c0	 lea	 ecx, DWORD PTR _szField$[ebp]
  002ac	ff 15 00 00 00
	00		 call	 DWORD PTR __imp_??1?$CStringT@DV?$StrTraitMFC_DLL@DV?$ChTraitsCRT@D@ATL@@@@@ATL@@QAE@XZ
  002b2	8d 4d bc	 lea	 ecx, DWORD PTR _szPacket$[ebp]
  002b5	ff 15 00 00 00
	00		 call	 DWORD PTR __imp_??1?$CStringT@DV?$StrTraitMFC_DLL@DV?$ChTraitsCRT@D@ATL@@@@@ATL@@QAE@XZ
  002bb	8d 4d b8	 lea	 ecx, DWORD PTR _szChartPacket$[ebp]
  002be	ff 15 00 00 00
	00		 call	 DWORD PTR __imp_??1?$CStringT@DV?$StrTraitMFC_DLL@DV?$ChTraitsCRT@D@ATL@@@@@ATL@@QAE@XZ
  002c4	8b 4d f4	 mov	 ecx, DWORD PTR __$EHRec$[ebp]
  002c7	64 89 0d 00 00
	00 00		 mov	 DWORD PTR fs:0, ecx
  002ce	59		 pop	 ecx
  002cf	5f		 pop	 edi
  002d0	5e		 pop	 esi
  002d1	8b e5		 mov	 esp, ebp
  002d3	5d		 pop	 ebp
  002d4	c3		 ret	 0
_TEXT	ENDS
;	COMDAT text$x
text$x	SEGMENT
__unwindfunclet$?Init_AdviseList@CRealPacketPage@@AAEXXZ$0:
  00000	8d 4d b8	 lea	 ecx, DWORD PTR _szChartPacket$[ebp]
  00003	ff 25 00 00 00
	00		 jmp	 DWORD PTR __imp_??1?$CStringT@DV?$StrTraitMFC_DLL@DV?$ChTraitsCRT@D@ATL@@@@@ATL@@QAE@XZ
__unwindfunclet$?Init_AdviseList@CRealPacketPage@@AAEXXZ$1:
  00009	8d 4d bc	 lea	 ecx, DWORD PTR _szPacket$[ebp]
  0000c	ff 25 00 00 00
	00		 jmp	 DWORD PTR __imp_??1?$CStringT@DV?$StrTraitMFC_DLL@DV?$ChTraitsCRT@D@ATL@@@@@ATL@@QAE@XZ
__unwindfunclet$?Init_AdviseList@CRealPacketPage@@AAEXXZ$2:
  00012	8d 4d c0	 lea	 ecx, DWORD PTR _szField$[ebp]
  00015	ff 25 00 00 00
	00		 jmp	 DWORD PTR __imp_??1?$CStringT@DV?$StrTraitMFC_DLL@DV?$ChTraitsCRT@D@ATL@@@@@ATL@@QAE@XZ
__unwindfunclet$?Init_AdviseList@CRealPacketPage@@AAEXXZ$3:
  0001b	8d 4d c4	 lea	 ecx, DWORD PTR _szKey$[ebp]
  0001e	ff 25 00 00 00
	00		 jmp	 DWORD PTR __imp_??1?$CStringT@DV?$StrTraitMFC_DLL@DV?$ChTraitsCRT@D@ATL@@@@@ATL@@QAE@XZ
__unwindfunclet$?Init_AdviseList@CRealPacketPage@@AAEXXZ$4:
  00024	8d 4d e8	 lea	 ecx, DWORD PTR _szAdviseList$[ebp]
  00027	ff 25 00 00 00
	00		 jmp	 DWORD PTR __imp_??1?$CStringT@DV?$StrTraitMFC_DLL@DV?$ChTraitsCRT@D@ATL@@@@@ATL@@QAE@XZ
__unwindfunclet$?Init_AdviseList@CRealPacketPage@@AAEXXZ$5:
  0002d	8d 4d f0	 lea	 ecx, DWORD PTR _szOneItem$[ebp]
  00030	ff 25 00 00 00
	00		 jmp	 DWORD PTR __imp_??1?$CStringT@DV?$StrTraitMFC_DLL@DV?$ChTraitsCRT@D@ATL@@@@@ATL@@QAE@XZ
__unwindfunclet$?Init_AdviseList@CRealPacketPage@@AAEXXZ$6:
  00036	8d 4d ec	 lea	 ecx, DWORD PTR _szItem$[ebp]
  00039	ff 25 00 00 00
	00		 jmp	 DWORD PTR __imp_??1?$CStringT@DV?$StrTraitMFC_DLL@DV?$ChTraitsCRT@D@ATL@@@@@ATL@@QAE@XZ
__unwindfunclet$?Init_AdviseList@CRealPacketPage@@AAEXXZ$7:
  0003f	8d 4d e4	 lea	 ecx, DWORD PTR $T11[ebp]
  00042	ff 25 00 00 00
	00		 jmp	 DWORD PTR __imp_??1?$CStringT@DV?$StrTraitMFC_DLL@DV?$ChTraitsCRT@D@ATL@@@@@ATL@@QAE@XZ
__unwindfunclet$?Init_AdviseList@CRealPacketPage@@AAEXXZ$8:
  00048	8d 4d d8	 lea	 ecx, DWORD PTR $T7[ebp]
  0004b	ff 25 00 00 00
	00		 jmp	 DWORD PTR __imp_??1?$CStringT@DV?$StrTraitMFC_DLL@DV?$ChTraitsCRT@D@ATL@@@@@ATL@@QAE@XZ
__unwindfunclet$?Init_AdviseList@CRealPacketPage@@AAEXXZ$9:
  00051	8d 4d e4	 lea	 ecx, DWORD PTR $T10[ebp]
  00054	ff 25 00 00 00
	00		 jmp	 DWORD PTR __imp_??1?$CStringT@DV?$StrTraitMFC_DLL@DV?$ChTraitsCRT@D@ATL@@@@@ATL@@QAE@XZ
__unwindfunclet$?Init_AdviseList@CRealPacketPage@@AAEXXZ$10:
  0005a	8d 4d d4	 lea	 ecx, DWORD PTR $T5[ebp]
  0005d	ff 25 00 00 00
	00		 jmp	 DWORD PTR __imp_??1?$CStringT@DV?$StrTraitMFC_DLL@DV?$ChTraitsCRT@D@ATL@@@@@ATL@@QAE@XZ
__unwindfunclet$?Init_AdviseList@CRealPacketPage@@AAEXXZ$11:
  00063	8d 4d e0	 lea	 ecx, DWORD PTR $T9[ebp]
  00066	ff 25 00 00 00
	00		 jmp	 DWORD PTR __imp_??1?$CStringT@DV?$StrTraitMFC_DLL@DV?$ChTraitsCRT@D@ATL@@@@@ATL@@QAE@XZ
__unwindfunclet$?Init_AdviseList@CRealPacketPage@@AAEXXZ$12:
  0006c	8d 4d d0	 lea	 ecx, DWORD PTR $T4[ebp]
  0006f	ff 25 00 00 00
	00		 jmp	 DWORD PTR __imp_??1?$CStringT@DV?$StrTraitMFC_DLL@DV?$ChTraitsCRT@D@ATL@@@@@ATL@@QAE@XZ
__unwindfunclet$?Init_AdviseList@CRealPacketPage@@AAEXXZ$13:
  00075	8d 4d dc	 lea	 ecx, DWORD PTR $T8[ebp]
  00078	ff 25 00 00 00
	00		 jmp	 DWORD PTR __imp_??1?$CStringT@DV?$StrTraitMFC_DLL@DV?$ChTraitsCRT@D@ATL@@@@@ATL@@QAE@XZ
__unwindfunclet$?Init_AdviseList@CRealPacketPage@@AAEXXZ$14:
  0007e	8d 4d cc	 lea	 ecx, DWORD PTR $T3[ebp]
  00081	ff 25 00 00 00
	00		 jmp	 DWORD PTR __imp_??1?$CStringT@DV?$StrTraitMFC_DLL@DV?$ChTraitsCRT@D@ATL@@@@@ATL@@QAE@XZ
__unwindfunclet$?Init_AdviseList@CRealPacketPage@@AAEXXZ$15:
  00087	8d 4d d8	 lea	 ecx, DWORD PTR $T6[ebp]
  0008a	ff 25 00 00 00
	00		 jmp	 DWORD PTR __imp_??1?$CStringT@DV?$StrTraitMFC_DLL@DV?$ChTraitsCRT@D@ATL@@@@@ATL@@QAE@XZ
__unwindfunclet$?Init_AdviseList@CRealPacketPage@@AAEXXZ$16:
  00090	8d 4d c8	 lea	 ecx, DWORD PTR $T2[ebp]
  00093	ff 25 00 00 00
	00		 jmp	 DWORD PTR __imp_??1?$CStringT@DV?$StrTraitMFC_DLL@DV?$ChTraitsCRT@D@ATL@@@@@ATL@@QAE@XZ
  00099	cc		 int	 3
  0009a	cc		 int	 3
  0009b	cc		 int	 3
  0009c	cc		 int	 3
  0009d	cc		 int	 3
__ehhandler$?Init_AdviseList@CRealPacketPage@@AAEXXZ:
  0009e	90		 npad	 1
  0009f	90		 npad	 1
  000a0	8b 54 24 08	 mov	 edx, DWORD PTR [esp+8]
  000a4	8d 42 0c	 lea	 eax, DWORD PTR [edx+12]
  000a7	8b 4a b8	 mov	 ecx, DWORD PTR [edx-72]
  000aa	33 c8		 xor	 ecx, eax
  000ac	e8 00 00 00 00	 call	 @__security_check_cookie@4
  000b1	b8 00 00 00 00	 mov	 eax, OFFSET __ehfuncinfo$?Init_AdviseList@CRealPacketPage@@AAEXXZ
  000b6	e9 00 00 00 00	 jmp	 ___CxxFrameHandler3
text$x	ENDS
?Init_AdviseList@CRealPacketPage@@AAEXXZ ENDP		; CRealPacketPage::Init_AdviseList
; Function compile flags: /Ogtp
; File D:\git\src\IBK\IBK_DRFN\ProjSrc\SrcChartEx\ChartAddIn\ChartDesignPropertyAddIn\ChartDesignPropertyAddIn\RealPacketPage.cpp
; File C:\Program Files (x86)\Microsoft Visual Studio\2019\Community\VC\Tools\MSVC\14.29.30133\atlmfc\include\afxwin2.inl
; File D:\git\src\IBK\IBK_DRFN\ProjSrc\SrcChartEx\ChartAddIn\ChartDesignPropertyAddIn\ChartDesignPropertyAddIn\RealPacketPage.cpp
; File C:\Program Files (x86)\Microsoft Visual Studio\2019\Community\VC\Tools\MSVC\14.29.30133\atlmfc\include\cstringt.h
; File D:\git\src\IBK\IBK_DRFN\ProjSrc\SrcChartEx\ChartAddIn\ChartDesignPropertyAddIn\ChartDesignPropertyAddIn\RealPacketPage.cpp
; File C:\Program Files (x86)\Microsoft Visual Studio\2019\Community\VC\Tools\MSVC\14.29.30133\atlmfc\include\cstringt.h
; File D:\git\src\IBK\IBK_DRFN\ProjSrc\SrcChartEx\ChartAddIn\ChartDesignPropertyAddIn\ChartDesignPropertyAddIn\RealPacketPage.cpp
; File C:\Program Files (x86)\Microsoft Visual Studio\2019\Community\VC\Tools\MSVC\14.29.30133\atlmfc\include\afxwin2.inl
; File D:\git\src\IBK\IBK_DRFN\ProjSrc\SrcChartEx\ChartAddIn\ChartDesignPropertyAddIn\ChartDesignPropertyAddIn\RealPacketPage.cpp
; File C:\Program Files (x86)\Microsoft Visual Studio\2019\Community\VC\Tools\MSVC\14.29.30133\atlmfc\include\cstringt.h
; File D:\git\src\IBK\IBK_DRFN\ProjSrc\SrcChartEx\ChartAddIn\ChartDesignPropertyAddIn\ChartDesignPropertyAddIn\RealPacketPage.cpp
; File C:\Program Files (x86)\Microsoft Visual Studio\2019\Community\VC\Tools\MSVC\14.29.30133\atlmfc\include\afxwin2.inl
; File D:\git\src\IBK\IBK_DRFN\ProjSrc\SrcChartEx\ChartAddIn\ChartDesignPropertyAddIn\ChartDesignPropertyAddIn\RealPacketPage.cpp
;	COMDAT ?InitPacketListCombo@CRealPacketPage@@AAEXXZ
_TEXT	SEGMENT
$T2 = -28						; size = 4
$T3 = -28						; size = 4
$T4 = -24						; size = 4
$T5 = -24						; size = 4
_szRealPackets$ = -20					; size = 4
_szPacketName$ = -16					; size = 4
__$EHRec$ = -12						; size = 12
?InitPacketListCombo@CRealPacketPage@@AAEXXZ PROC	; CRealPacketPage::InitPacketListCombo, COMDAT
; _this$ = ecx

; 409  : {

  00000	55		 push	 ebp
  00001	8b ec		 mov	 ebp, esp
  00003	6a ff		 push	 -1
  00005	68 00 00 00 00	 push	 __ehhandler$?InitPacketListCombo@CRealPacketPage@@AAEXXZ
  0000a	64 a1 00 00 00
	00		 mov	 eax, DWORD PTR fs:0
  00010	50		 push	 eax
  00011	83 ec 10	 sub	 esp, 16			; 00000010H
  00014	53		 push	 ebx
  00015	56		 push	 esi
  00016	57		 push	 edi
  00017	a1 00 00 00 00	 mov	 eax, DWORD PTR ___security_cookie
  0001c	33 c5		 xor	 eax, ebp
  0001e	50		 push	 eax
  0001f	8d 45 f4	 lea	 eax, DWORD PTR __$EHRec$[ebp]
  00022	64 a3 00 00 00
	00		 mov	 DWORD PTR fs:0, eax
  00028	8b f1		 mov	 esi, ecx
; File C:\Program Files (x86)\Microsoft Visual Studio\2019\Community\VC\Tools\MSVC\14.29.30133\atlmfc\include\afxwin2.inl

; 801  : 	{ ASSERT(::IsWindow(m_hWnd)); ::SendMessage(m_hWnd, CB_RESETCONTENT, 0, 0); }

  0002a	8b 3d 00 00 00
	00		 mov	 edi, DWORD PTR __imp__SendMessageA@16
  00030	6a 00		 push	 0
  00032	6a 00		 push	 0
  00034	68 4b 01 00 00	 push	 331			; 0000014bH
  00039	ff b6 e0 00 00
	00		 push	 DWORD PTR [esi+224]
  0003f	ff d7		 call	 edi
; File D:\git\src\IBK\IBK_DRFN\ProjSrc\SrcChartEx\ChartAddIn\ChartDesignPropertyAddIn\ChartDesignPropertyAddIn\RealPacketPage.cpp

; 412  : 	if(m_szRealPackets == "")

  00041	8d 9e 60 03 00
	00		 lea	 ebx, DWORD PTR [esi+864]
; File C:\Program Files (x86)\Microsoft Visual Studio\2019\Community\VC\Tools\MSVC\14.29.30133\atlmfc\include\cstringt.h

; 2486 : 		return(str1.Compare(psz2) == 0);

  00047	68 00 00 00 00	 push	 OFFSET ??_C@_00CNPNBAHC@@
  0004c	8b cb		 mov	 ecx, ebx
  0004e	ff 15 00 00 00
	00		 call	 DWORD PTR __imp_?Compare@?$CStringT@DV?$StrTraitMFC_DLL@DV?$ChTraitsCRT@D@ATL@@@@@ATL@@QBEHPBD@Z
  00054	85 c0		 test	 eax, eax
; File D:\git\src\IBK\IBK_DRFN\ProjSrc\SrcChartEx\ChartAddIn\ChartDesignPropertyAddIn\ChartDesignPropertyAddIn\RealPacketPage.cpp

; 412  : 	if(m_szRealPackets == "")

  00056	0f 84 30 01 00
	00		 je	 $LN1@InitPacket

; 413  : 		return;
; 414  : 
; 415  : 	CString szPacketName, szRealPackets = m_szRealPackets;

  0005c	8d 4d f0	 lea	 ecx, DWORD PTR _szPacketName$[ebp]
  0005f	ff 15 00 00 00
	00		 call	 DWORD PTR __imp_??0?$CStringT@DV?$StrTraitMFC_DLL@DV?$ChTraitsCRT@D@ATL@@@@@ATL@@QAE@XZ
  00065	53		 push	 ebx
  00066	8d 4d ec	 lea	 ecx, DWORD PTR _szRealPackets$[ebp]
  00069	c7 45 fc 00 00
	00 00		 mov	 DWORD PTR __$EHRec$[ebp+8], 0
  00070	ff 15 00 00 00
	00		 call	 DWORD PTR __imp_??0?$CStringT@DV?$StrTraitMFC_DLL@DV?$ChTraitsCRT@D@ATL@@@@@ATL@@QAE@ABV01@@Z

; 416  : 	szPacketName = CDataConversion::GetStringData(szRealPackets, ";");

  00076	68 00 00 00 00	 push	 OFFSET ??_C@_01ICJEACDI@?$DL@
  0007b	8d 4d e8	 lea	 ecx, DWORD PTR $T5[ebp]
  0007e	c6 45 fc 01	 mov	 BYTE PTR __$EHRec$[ebp+8], 1
  00082	ff 15 00 00 00
	00		 call	 DWORD PTR __imp_??0?$CStringT@DV?$StrTraitMFC_DLL@DV?$ChTraitsCRT@D@ATL@@@@@ATL@@QAE@PBD@Z
  00088	6a 01		 push	 1
  0008a	8d 45 e8	 lea	 eax, DWORD PTR $T5[ebp]
  0008d	c6 45 fc 02	 mov	 BYTE PTR __$EHRec$[ebp+8], 2
  00091	50		 push	 eax
  00092	8d 45 ec	 lea	 eax, DWORD PTR _szRealPackets$[ebp]
  00095	50		 push	 eax
  00096	8d 45 e4	 lea	 eax, DWORD PTR $T3[ebp]
  00099	50		 push	 eax
  0009a	e8 00 00 00 00	 call	 ?GetStringData@CDataConversion@@SA?AV?$CStringT@DV?$StrTraitMFC_DLL@DV?$ChTraitsCRT@D@ATL@@@@@ATL@@AAV23@ABV23@_N@Z ; CDataConversion::GetStringData
  0009f	83 c4 10	 add	 esp, 16			; 00000010H
  000a2	50		 push	 eax
  000a3	8d 4d f0	 lea	 ecx, DWORD PTR _szPacketName$[ebp]
  000a6	c6 45 fc 03	 mov	 BYTE PTR __$EHRec$[ebp+8], 3
  000aa	ff 15 00 00 00
	00		 call	 DWORD PTR __imp_??4?$CStringT@DV?$StrTraitMFC_DLL@DV?$ChTraitsCRT@D@ATL@@@@@ATL@@QAEAAV01@ABV01@@Z
  000b0	8d 4d e4	 lea	 ecx, DWORD PTR $T3[ebp]
  000b3	ff 15 00 00 00
	00		 call	 DWORD PTR __imp_??1?$CStringT@DV?$StrTraitMFC_DLL@DV?$ChTraitsCRT@D@ATL@@@@@ATL@@QAE@XZ
  000b9	8d 4d e8	 lea	 ecx, DWORD PTR $T5[ebp]
  000bc	c6 45 fc 01	 mov	 BYTE PTR __$EHRec$[ebp+8], 1
  000c0	ff 15 00 00 00
	00		 call	 DWORD PTR __imp_??1?$CStringT@DV?$StrTraitMFC_DLL@DV?$ChTraitsCRT@D@ATL@@@@@ATL@@QAE@XZ
; File C:\Program Files (x86)\Microsoft Visual Studio\2019\Community\VC\Tools\MSVC\14.29.30133\atlmfc\include\cstringt.h

; 2567 : 		return( str1.Compare( psz2 ) != 0 );

  000c6	68 00 00 00 00	 push	 OFFSET ??_C@_00CNPNBAHC@@
  000cb	8d 4d f0	 lea	 ecx, DWORD PTR _szPacketName$[ebp]
  000ce	ff 15 00 00 00
	00		 call	 DWORD PTR __imp_?Compare@?$CStringT@DV?$StrTraitMFC_DLL@DV?$ChTraitsCRT@D@ATL@@@@@ATL@@QBEHPBD@Z
  000d4	85 c0		 test	 eax, eax
; File D:\git\src\IBK\IBK_DRFN\ProjSrc\SrcChartEx\ChartAddIn\ChartDesignPropertyAddIn\ChartDesignPropertyAddIn\RealPacketPage.cpp

; 417  : 	while(szPacketName != "") {

  000d6	0f 84 8d 00 00
	00		 je	 $LN3@InitPacket
  000dc	0f 1f 40 00	 npad	 4
$LL2@InitPacket:

; 418  : 		m_comboPacketList.AddString( _MTOL0( szPacketName));

  000e0	6a 00		 push	 0
  000e2	ff 75 f0	 push	 DWORD PTR _szPacketName$[ebp]
  000e5	b9 00 00 00 00	 mov	 ecx, OFFSET ?g_iMetaTable@@3VIMetaTable@@A ; g_iMetaTable
  000ea	6a 00		 push	 0
  000ec	ff b6 b8 05 00
	00		 push	 DWORD PTR [esi+1464]
  000f2	e8 00 00 00 00	 call	 ?GetLanguageText@IMetaTable@@QAEPBDPAUHWND__@@W4E_CODEPAGE@1@PBDH@Z ; IMetaTable::GetLanguageText
; File C:\Program Files (x86)\Microsoft Visual Studio\2019\Community\VC\Tools\MSVC\14.29.30133\atlmfc\include\afxwin2.inl

; 795  : 	{ ASSERT(::IsWindow(m_hWnd)); return (int)::SendMessage(m_hWnd, CB_ADDSTRING, 0, (LPARAM)lpszString); }

  000f7	50		 push	 eax
  000f8	6a 00		 push	 0
  000fa	68 43 01 00 00	 push	 323			; 00000143H
  000ff	ff b6 e0 00 00
	00		 push	 DWORD PTR [esi+224]
  00105	ff d7		 call	 edi
; File D:\git\src\IBK\IBK_DRFN\ProjSrc\SrcChartEx\ChartAddIn\ChartDesignPropertyAddIn\ChartDesignPropertyAddIn\RealPacketPage.cpp

; 419  : 		szPacketName = CDataConversion::GetStringData(szRealPackets, ";");

  00107	68 00 00 00 00	 push	 OFFSET ??_C@_01ICJEACDI@?$DL@
  0010c	8d 4d e8	 lea	 ecx, DWORD PTR $T4[ebp]
  0010f	ff 15 00 00 00
	00		 call	 DWORD PTR __imp_??0?$CStringT@DV?$StrTraitMFC_DLL@DV?$ChTraitsCRT@D@ATL@@@@@ATL@@QAE@PBD@Z
  00115	6a 01		 push	 1
  00117	8d 45 e8	 lea	 eax, DWORD PTR $T4[ebp]
  0011a	c6 45 fc 04	 mov	 BYTE PTR __$EHRec$[ebp+8], 4
  0011e	50		 push	 eax
  0011f	8d 45 ec	 lea	 eax, DWORD PTR _szRealPackets$[ebp]
  00122	50		 push	 eax
  00123	8d 45 e4	 lea	 eax, DWORD PTR $T2[ebp]
  00126	50		 push	 eax
  00127	e8 00 00 00 00	 call	 ?GetStringData@CDataConversion@@SA?AV?$CStringT@DV?$StrTraitMFC_DLL@DV?$ChTraitsCRT@D@ATL@@@@@ATL@@AAV23@ABV23@_N@Z ; CDataConversion::GetStringData
  0012c	83 c4 10	 add	 esp, 16			; 00000010H
  0012f	50		 push	 eax
  00130	8d 4d f0	 lea	 ecx, DWORD PTR _szPacketName$[ebp]
  00133	c6 45 fc 05	 mov	 BYTE PTR __$EHRec$[ebp+8], 5
  00137	ff 15 00 00 00
	00		 call	 DWORD PTR __imp_??4?$CStringT@DV?$StrTraitMFC_DLL@DV?$ChTraitsCRT@D@ATL@@@@@ATL@@QAEAAV01@ABV01@@Z
  0013d	8d 4d e4	 lea	 ecx, DWORD PTR $T2[ebp]
  00140	ff 15 00 00 00
	00		 call	 DWORD PTR __imp_??1?$CStringT@DV?$StrTraitMFC_DLL@DV?$ChTraitsCRT@D@ATL@@@@@ATL@@QAE@XZ
  00146	8d 4d e8	 lea	 ecx, DWORD PTR $T4[ebp]
  00149	c6 45 fc 01	 mov	 BYTE PTR __$EHRec$[ebp+8], 1
  0014d	ff 15 00 00 00
	00		 call	 DWORD PTR __imp_??1?$CStringT@DV?$StrTraitMFC_DLL@DV?$ChTraitsCRT@D@ATL@@@@@ATL@@QAE@XZ
; File C:\Program Files (x86)\Microsoft Visual Studio\2019\Community\VC\Tools\MSVC\14.29.30133\atlmfc\include\cstringt.h

; 2567 : 		return( str1.Compare( psz2 ) != 0 );

  00153	68 00 00 00 00	 push	 OFFSET ??_C@_00CNPNBAHC@@
  00158	8d 4d f0	 lea	 ecx, DWORD PTR _szPacketName$[ebp]
  0015b	ff 15 00 00 00
	00		 call	 DWORD PTR __imp_?Compare@?$CStringT@DV?$StrTraitMFC_DLL@DV?$ChTraitsCRT@D@ATL@@@@@ATL@@QBEHPBD@Z
  00161	85 c0		 test	 eax, eax
; File D:\git\src\IBK\IBK_DRFN\ProjSrc\SrcChartEx\ChartAddIn\ChartDesignPropertyAddIn\ChartDesignPropertyAddIn\RealPacketPage.cpp

; 417  : 	while(szPacketName != "") {

  00163	0f 85 77 ff ff
	ff		 jne	 $LL2@InitPacket
$LN3@InitPacket:
; File C:\Program Files (x86)\Microsoft Visual Studio\2019\Community\VC\Tools\MSVC\14.29.30133\atlmfc\include\afxwin2.inl

; 767  : 	{ ASSERT(::IsWindow(m_hWnd)); return (int)::SendMessage(m_hWnd, CB_SETCURSEL, nSelect, 0); }

  00169	6a 00		 push	 0
  0016b	6a 00		 push	 0
  0016d	68 4e 01 00 00	 push	 334			; 0000014eH
  00172	ff b6 e0 00 00
	00		 push	 DWORD PTR [esi+224]
  00178	ff d7		 call	 edi
; File D:\git\src\IBK\IBK_DRFN\ProjSrc\SrcChartEx\ChartAddIn\ChartDesignPropertyAddIn\ChartDesignPropertyAddIn\RealPacketPage.cpp

; 423  : }

  0017a	8d 4d ec	 lea	 ecx, DWORD PTR _szRealPackets$[ebp]
  0017d	ff 15 00 00 00
	00		 call	 DWORD PTR __imp_??1?$CStringT@DV?$StrTraitMFC_DLL@DV?$ChTraitsCRT@D@ATL@@@@@ATL@@QAE@XZ
  00183	8d 4d f0	 lea	 ecx, DWORD PTR _szPacketName$[ebp]
  00186	ff 15 00 00 00
	00		 call	 DWORD PTR __imp_??1?$CStringT@DV?$StrTraitMFC_DLL@DV?$ChTraitsCRT@D@ATL@@@@@ATL@@QAE@XZ
$LN1@InitPacket:
  0018c	8b 4d f4	 mov	 ecx, DWORD PTR __$EHRec$[ebp]
  0018f	64 89 0d 00 00
	00 00		 mov	 DWORD PTR fs:0, ecx
  00196	59		 pop	 ecx
  00197	5f		 pop	 edi
  00198	5e		 pop	 esi
  00199	5b		 pop	 ebx
  0019a	8b e5		 mov	 esp, ebp
  0019c	5d		 pop	 ebp
  0019d	c3		 ret	 0
_TEXT	ENDS
;	COMDAT text$x
text$x	SEGMENT
__unwindfunclet$?InitPacketListCombo@CRealPacketPage@@AAEXXZ$0:
  00000	8d 4d f0	 lea	 ecx, DWORD PTR _szPacketName$[ebp]
  00003	ff 25 00 00 00
	00		 jmp	 DWORD PTR __imp_??1?$CStringT@DV?$StrTraitMFC_DLL@DV?$ChTraitsCRT@D@ATL@@@@@ATL@@QAE@XZ
__unwindfunclet$?InitPacketListCombo@CRealPacketPage@@AAEXXZ$1:
  00009	8d 4d ec	 lea	 ecx, DWORD PTR _szRealPackets$[ebp]
  0000c	ff 25 00 00 00
	00		 jmp	 DWORD PTR __imp_??1?$CStringT@DV?$StrTraitMFC_DLL@DV?$ChTraitsCRT@D@ATL@@@@@ATL@@QAE@XZ
__unwindfunclet$?InitPacketListCombo@CRealPacketPage@@AAEXXZ$2:
  00012	8d 4d e8	 lea	 ecx, DWORD PTR $T5[ebp]
  00015	ff 25 00 00 00
	00		 jmp	 DWORD PTR __imp_??1?$CStringT@DV?$StrTraitMFC_DLL@DV?$ChTraitsCRT@D@ATL@@@@@ATL@@QAE@XZ
__unwindfunclet$?InitPacketListCombo@CRealPacketPage@@AAEXXZ$3:
  0001b	8d 4d e4	 lea	 ecx, DWORD PTR $T3[ebp]
  0001e	ff 25 00 00 00
	00		 jmp	 DWORD PTR __imp_??1?$CStringT@DV?$StrTraitMFC_DLL@DV?$ChTraitsCRT@D@ATL@@@@@ATL@@QAE@XZ
__unwindfunclet$?InitPacketListCombo@CRealPacketPage@@AAEXXZ$4:
  00024	8d 4d e8	 lea	 ecx, DWORD PTR $T4[ebp]
  00027	ff 25 00 00 00
	00		 jmp	 DWORD PTR __imp_??1?$CStringT@DV?$StrTraitMFC_DLL@DV?$ChTraitsCRT@D@ATL@@@@@ATL@@QAE@XZ
__unwindfunclet$?InitPacketListCombo@CRealPacketPage@@AAEXXZ$5:
  0002d	8d 4d e4	 lea	 ecx, DWORD PTR $T2[ebp]
  00030	ff 25 00 00 00
	00		 jmp	 DWORD PTR __imp_??1?$CStringT@DV?$StrTraitMFC_DLL@DV?$ChTraitsCRT@D@ATL@@@@@ATL@@QAE@XZ
  00036	cc		 int	 3
  00037	cc		 int	 3
  00038	cc		 int	 3
  00039	cc		 int	 3
  0003a	cc		 int	 3
__ehhandler$?InitPacketListCombo@CRealPacketPage@@AAEXXZ:
  0003b	90		 npad	 1
  0003c	90		 npad	 1
  0003d	8b 54 24 08	 mov	 edx, DWORD PTR [esp+8]
  00041	8d 42 0c	 lea	 eax, DWORD PTR [edx+12]
  00044	8b 4a e0	 mov	 ecx, DWORD PTR [edx-32]
  00047	33 c8		 xor	 ecx, eax
  00049	e8 00 00 00 00	 call	 @__security_check_cookie@4
  0004e	b8 00 00 00 00	 mov	 eax, OFFSET __ehfuncinfo$?InitPacketListCombo@CRealPacketPage@@AAEXXZ
  00053	e9 00 00 00 00	 jmp	 ___CxxFrameHandler3
text$x	ENDS
?InitPacketListCombo@CRealPacketPage@@AAEXXZ ENDP	; CRealPacketPage::InitPacketListCombo
; Function compile flags: /Ogtp
; File D:\git\src\IBK\IBK_DRFN\ProjSrc\SrcChartEx\ChartAddIn\ChartDesignPropertyAddIn\ChartDesignPropertyAddIn\RealPacketPage.cpp
; File C:\Program Files (x86)\Microsoft Visual Studio\2019\Community\VC\Tools\MSVC\14.29.30133\atlmfc\include\afxwin2.inl
; File D:\git\src\IBK\IBK_DRFN\ProjSrc\SrcChartEx\ChartAddIn\ChartDesignPropertyAddIn\ChartDesignPropertyAddIn\RealPacketPage.cpp
; File C:\Program Files (x86)\Microsoft Visual Studio\2019\Community\VC\Tools\MSVC\14.29.30133\atlmfc\include\cstringt.h
; File D:\git\src\IBK\IBK_DRFN\ProjSrc\SrcChartEx\ChartAddIn\ChartDesignPropertyAddIn\ChartDesignPropertyAddIn\RealPacketPage.cpp
; File C:\Program Files (x86)\Microsoft Visual Studio\2019\Community\VC\Tools\MSVC\14.29.30133\atlmfc\include\cstringt.h
; File D:\git\src\IBK\IBK_DRFN\ProjSrc\SrcChartEx\ChartAddIn\ChartDesignPropertyAddIn\ChartDesignPropertyAddIn\RealPacketPage.cpp
; File C:\Program Files (x86)\Microsoft Visual Studio\2019\Community\VC\Tools\MSVC\14.29.30133\atlmfc\include\afxwin2.inl
; File D:\git\src\IBK\IBK_DRFN\ProjSrc\SrcChartEx\ChartAddIn\ChartDesignPropertyAddIn\ChartDesignPropertyAddIn\RealPacketPage.cpp
; File C:\Program Files (x86)\Microsoft Visual Studio\2019\Community\VC\Tools\MSVC\14.29.30133\atlmfc\include\cstringt.h
; File D:\git\src\IBK\IBK_DRFN\ProjSrc\SrcChartEx\ChartAddIn\ChartDesignPropertyAddIn\ChartDesignPropertyAddIn\RealPacketPage.cpp
; File C:\Program Files (x86)\Microsoft Visual Studio\2019\Community\VC\Tools\MSVC\14.29.30133\atlmfc\include\atlsimpstr.h
; File D:\git\src\IBK\IBK_DRFN\ProjSrc\SrcChartEx\ChartAddIn\ChartDesignPropertyAddIn\ChartDesignPropertyAddIn\RealPacketPage.cpp
; File C:\Program Files (x86)\Microsoft Visual Studio\2019\Community\VC\Tools\MSVC\14.29.30133\atlmfc\include\atlsimpstr.h
; File D:\git\src\IBK\IBK_DRFN\ProjSrc\SrcChartEx\ChartAddIn\ChartDesignPropertyAddIn\ChartDesignPropertyAddIn\RealPacketPage.cpp
; File D:\git\src\IBK\IBK_DRFN\ProjSrc\SrcChartEx\ChartAddIn\ChartDesignPropertyAddIn\Include_Chart\Dll_Load\IMetaTable.h
; File C:\Program Files (x86)\Microsoft Visual Studio\2019\Community\VC\Tools\MSVC\14.29.30133\atlmfc\include\afxwin1.inl
; File D:\git\src\IBK\IBK_DRFN\ProjSrc\SrcChartEx\ChartAddIn\ChartDesignPropertyAddIn\Include_Chart\Dll_Load\IMetaTable.h
; File C:\Program Files (x86)\Microsoft Visual Studio\2019\Community\VC\Tools\MSVC\14.29.30133\atlmfc\include\afxwin1.inl
; File D:\git\src\IBK\IBK_DRFN\ProjSrc\SrcChartEx\ChartAddIn\ChartDesignPropertyAddIn\ChartDesignPropertyAddIn\RealPacketPage.cpp
; File C:\Program Files (x86)\Microsoft Visual Studio\2019\Community\VC\Tools\MSVC\14.29.30133\atlmfc\include\afxwin2.inl
; File D:\git\src\IBK\IBK_DRFN\ProjSrc\SrcChartEx\ChartAddIn\ChartDesignPropertyAddIn\ChartDesignPropertyAddIn\RealPacketPage.cpp
; File D:\git\src\IBK\IBK_DRFN\ProjSrc\SrcChartEx\ChartAddIn\ChartDesignPropertyAddIn\Include_Chart\Dll_Load\IMetaTable.h
; File C:\Program Files (x86)\Microsoft Visual Studio\2019\Community\VC\Tools\MSVC\14.29.30133\atlmfc\include\afxwin1.inl
; File D:\git\src\IBK\IBK_DRFN\ProjSrc\SrcChartEx\ChartAddIn\ChartDesignPropertyAddIn\Include_Chart\Dll_Load\IMetaTable.h
; File C:\Program Files (x86)\Microsoft Visual Studio\2019\Community\VC\Tools\MSVC\14.29.30133\atlmfc\include\afxwin1.inl
; File D:\git\src\IBK\IBK_DRFN\ProjSrc\SrcChartEx\ChartAddIn\ChartDesignPropertyAddIn\ChartDesignPropertyAddIn\RealPacketPage.cpp
; File C:\Program Files (x86)\Microsoft Visual Studio\2019\Community\VC\Tools\MSVC\14.29.30133\atlmfc\include\afxwin2.inl
; File D:\git\src\IBK\IBK_DRFN\ProjSrc\SrcChartEx\ChartAddIn\ChartDesignPropertyAddIn\ChartDesignPropertyAddIn\RealPacketPage.cpp
; File C:\Program Files (x86)\Microsoft Visual Studio\2019\Community\VC\Tools\MSVC\14.29.30133\atlmfc\include\afxwin2.inl
; File D:\git\src\IBK\IBK_DRFN\ProjSrc\SrcChartEx\ChartAddIn\ChartDesignPropertyAddIn\ChartDesignPropertyAddIn\RealPacketPage.cpp
;	COMDAT ?InitBasePacketCombo@CRealPacketPage@@AAEXXZ
_TEXT	SEGMENT
___mlrs__$2 = -32					; size = 4
_p1$1$ = -28						; size = 4
$T3 = -28						; size = 4
$T4 = -28						; size = 4
$T5 = -28						; size = 4
_szRealPackets$ = -24					; size = 4
_strMsg$6 = -20						; size = 4
$T7 = -20						; size = 4
$T8 = -20						; size = 4
_szPacketName$ = -16					; size = 4
__$EHRec$ = -12						; size = 12
?InitBasePacketCombo@CRealPacketPage@@AAEXXZ PROC	; CRealPacketPage::InitBasePacketCombo, COMDAT
; _this$ = ecx

; 370  : {

  00000	55		 push	 ebp
  00001	8b ec		 mov	 ebp, esp
  00003	6a ff		 push	 -1
  00005	68 00 00 00 00	 push	 __ehhandler$?InitBasePacketCombo@CRealPacketPage@@AAEXXZ
  0000a	64 a1 00 00 00
	00		 mov	 eax, DWORD PTR fs:0
  00010	50		 push	 eax
  00011	83 ec 14	 sub	 esp, 20			; 00000014H
  00014	53		 push	 ebx
  00015	56		 push	 esi
  00016	57		 push	 edi
  00017	a1 00 00 00 00	 mov	 eax, DWORD PTR ___security_cookie
  0001c	33 c5		 xor	 eax, ebp
  0001e	50		 push	 eax
  0001f	8d 45 f4	 lea	 eax, DWORD PTR __$EHRec$[ebp]
  00022	64 a3 00 00 00
	00		 mov	 DWORD PTR fs:0, eax
  00028	8b f9		 mov	 edi, ecx
; File C:\Program Files (x86)\Microsoft Visual Studio\2019\Community\VC\Tools\MSVC\14.29.30133\atlmfc\include\afxwin2.inl

; 801  : 	{ ASSERT(::IsWindow(m_hWnd)); ::SendMessage(m_hWnd, CB_RESETCONTENT, 0, 0); }

  0002a	8b 1d 00 00 00
	00		 mov	 ebx, DWORD PTR __imp__SendMessageA@16
  00030	6a 00		 push	 0
  00032	6a 00		 push	 0
  00034	68 4b 01 00 00	 push	 331			; 0000014bH
  00039	ff b7 60 01 00
	00		 push	 DWORD PTR [edi+352]
  0003f	ff d3		 call	 ebx
; File D:\git\src\IBK\IBK_DRFN\ProjSrc\SrcChartEx\ChartAddIn\ChartDesignPropertyAddIn\ChartDesignPropertyAddIn\RealPacketPage.cpp

; 373  : 	if(m_szRealPackets == "")

  00041	8d b7 60 03 00
	00		 lea	 esi, DWORD PTR [edi+864]
; File C:\Program Files (x86)\Microsoft Visual Studio\2019\Community\VC\Tools\MSVC\14.29.30133\atlmfc\include\cstringt.h

; 2486 : 		return(str1.Compare(psz2) == 0);

  00047	68 00 00 00 00	 push	 OFFSET ??_C@_00CNPNBAHC@@
  0004c	8b ce		 mov	 ecx, esi
  0004e	ff 15 00 00 00
	00		 call	 DWORD PTR __imp_?Compare@?$CStringT@DV?$StrTraitMFC_DLL@DV?$ChTraitsCRT@D@ATL@@@@@ATL@@QBEHPBD@Z
  00054	85 c0		 test	 eax, eax
; File D:\git\src\IBK\IBK_DRFN\ProjSrc\SrcChartEx\ChartAddIn\ChartDesignPropertyAddIn\ChartDesignPropertyAddIn\RealPacketPage.cpp

; 373  : 	if(m_szRealPackets == "")

  00056	0f 84 be 02 00
	00		 je	 $LN1@InitBasePa

; 374  : 		return;
; 375  : 
; 376  : 	CString szPacketName, szRealPackets = m_szRealPackets;

  0005c	8d 4d f0	 lea	 ecx, DWORD PTR _szPacketName$[ebp]
  0005f	ff 15 00 00 00
	00		 call	 DWORD PTR __imp_??0?$CStringT@DV?$StrTraitMFC_DLL@DV?$ChTraitsCRT@D@ATL@@@@@ATL@@QAE@XZ
  00065	56		 push	 esi
  00066	8d 4d e8	 lea	 ecx, DWORD PTR _szRealPackets$[ebp]
  00069	c7 45 fc 00 00
	00 00		 mov	 DWORD PTR __$EHRec$[ebp+8], 0
  00070	ff 15 00 00 00
	00		 call	 DWORD PTR __imp_??0?$CStringT@DV?$StrTraitMFC_DLL@DV?$ChTraitsCRT@D@ATL@@@@@ATL@@QAE@ABV01@@Z

; 377  : 	szPacketName = CDataConversion::GetStringData(szRealPackets, ";");

  00076	68 00 00 00 00	 push	 OFFSET ??_C@_01ICJEACDI@?$DL@
  0007b	8d 4d ec	 lea	 ecx, DWORD PTR $T8[ebp]
  0007e	c6 45 fc 01	 mov	 BYTE PTR __$EHRec$[ebp+8], 1
  00082	ff 15 00 00 00
	00		 call	 DWORD PTR __imp_??0?$CStringT@DV?$StrTraitMFC_DLL@DV?$ChTraitsCRT@D@ATL@@@@@ATL@@QAE@PBD@Z
  00088	6a 01		 push	 1
  0008a	8d 45 ec	 lea	 eax, DWORD PTR $T8[ebp]
  0008d	c6 45 fc 02	 mov	 BYTE PTR __$EHRec$[ebp+8], 2
  00091	50		 push	 eax
  00092	8d 45 e8	 lea	 eax, DWORD PTR _szRealPackets$[ebp]
  00095	50		 push	 eax
  00096	8d 45 e4	 lea	 eax, DWORD PTR $T5[ebp]
  00099	50		 push	 eax
  0009a	e8 00 00 00 00	 call	 ?GetStringData@CDataConversion@@SA?AV?$CStringT@DV?$StrTraitMFC_DLL@DV?$ChTraitsCRT@D@ATL@@@@@ATL@@AAV23@ABV23@_N@Z ; CDataConversion::GetStringData
  0009f	83 c4 10	 add	 esp, 16			; 00000010H
  000a2	50		 push	 eax
  000a3	8d 4d f0	 lea	 ecx, DWORD PTR _szPacketName$[ebp]
  000a6	c6 45 fc 03	 mov	 BYTE PTR __$EHRec$[ebp+8], 3
  000aa	ff 15 00 00 00
	00		 call	 DWORD PTR __imp_??4?$CStringT@DV?$StrTraitMFC_DLL@DV?$ChTraitsCRT@D@ATL@@@@@ATL@@QAEAAV01@ABV01@@Z
  000b0	8d 4d e4	 lea	 ecx, DWORD PTR $T5[ebp]
  000b3	ff 15 00 00 00
	00		 call	 DWORD PTR __imp_??1?$CStringT@DV?$StrTraitMFC_DLL@DV?$ChTraitsCRT@D@ATL@@@@@ATL@@QAE@XZ
  000b9	8d 4d ec	 lea	 ecx, DWORD PTR $T8[ebp]
  000bc	c6 45 fc 01	 mov	 BYTE PTR __$EHRec$[ebp+8], 1
  000c0	ff 15 00 00 00
	00		 call	 DWORD PTR __imp_??1?$CStringT@DV?$StrTraitMFC_DLL@DV?$ChTraitsCRT@D@ATL@@@@@ATL@@QAE@XZ
; File C:\Program Files (x86)\Microsoft Visual Studio\2019\Community\VC\Tools\MSVC\14.29.30133\atlmfc\include\cstringt.h

; 2567 : 		return( str1.Compare( psz2 ) != 0 );

  000c6	68 00 00 00 00	 push	 OFFSET ??_C@_00CNPNBAHC@@
  000cb	8d 4d f0	 lea	 ecx, DWORD PTR _szPacketName$[ebp]
  000ce	ff 15 00 00 00
	00		 call	 DWORD PTR __imp_?Compare@?$CStringT@DV?$StrTraitMFC_DLL@DV?$ChTraitsCRT@D@ATL@@@@@ATL@@QBEHPBD@Z
  000d4	85 c0		 test	 eax, eax
; File D:\git\src\IBK\IBK_DRFN\ProjSrc\SrcChartEx\ChartAddIn\ChartDesignPropertyAddIn\ChartDesignPropertyAddIn\RealPacketPage.cpp

; 378  : 	while(szPacketName != "") {

  000d6	0f 84 8d 00 00
	00		 je	 $LN3@InitBasePa
  000dc	0f 1f 40 00	 npad	 4
$LL2@InitBasePa:

; 379  : 		m_comboBasePacket.AddString( _MTOL0( szPacketName));

  000e0	6a 00		 push	 0
  000e2	ff 75 f0	 push	 DWORD PTR _szPacketName$[ebp]
  000e5	b9 00 00 00 00	 mov	 ecx, OFFSET ?g_iMetaTable@@3VIMetaTable@@A ; g_iMetaTable
  000ea	6a 00		 push	 0
  000ec	ff b7 b8 05 00
	00		 push	 DWORD PTR [edi+1464]
  000f2	e8 00 00 00 00	 call	 ?GetLanguageText@IMetaTable@@QAEPBDPAUHWND__@@W4E_CODEPAGE@1@PBDH@Z ; IMetaTable::GetLanguageText
; File C:\Program Files (x86)\Microsoft Visual Studio\2019\Community\VC\Tools\MSVC\14.29.30133\atlmfc\include\afxwin2.inl

; 795  : 	{ ASSERT(::IsWindow(m_hWnd)); return (int)::SendMessage(m_hWnd, CB_ADDSTRING, 0, (LPARAM)lpszString); }

  000f7	50		 push	 eax
  000f8	6a 00		 push	 0
  000fa	68 43 01 00 00	 push	 323			; 00000143H
  000ff	ff b7 60 01 00
	00		 push	 DWORD PTR [edi+352]
  00105	ff d3		 call	 ebx
; File D:\git\src\IBK\IBK_DRFN\ProjSrc\SrcChartEx\ChartAddIn\ChartDesignPropertyAddIn\ChartDesignPropertyAddIn\RealPacketPage.cpp

; 380  : 		szPacketName = CDataConversion::GetStringData(szRealPackets, ";");

  00107	68 00 00 00 00	 push	 OFFSET ??_C@_01ICJEACDI@?$DL@
  0010c	8d 4d ec	 lea	 ecx, DWORD PTR $T7[ebp]
  0010f	ff 15 00 00 00
	00		 call	 DWORD PTR __imp_??0?$CStringT@DV?$StrTraitMFC_DLL@DV?$ChTraitsCRT@D@ATL@@@@@ATL@@QAE@PBD@Z
  00115	6a 01		 push	 1
  00117	8d 45 ec	 lea	 eax, DWORD PTR $T7[ebp]
  0011a	c6 45 fc 04	 mov	 BYTE PTR __$EHRec$[ebp+8], 4
  0011e	50		 push	 eax
  0011f	8d 45 e8	 lea	 eax, DWORD PTR _szRealPackets$[ebp]
  00122	50		 push	 eax
  00123	8d 45 e4	 lea	 eax, DWORD PTR $T4[ebp]
  00126	50		 push	 eax
  00127	e8 00 00 00 00	 call	 ?GetStringData@CDataConversion@@SA?AV?$CStringT@DV?$StrTraitMFC_DLL@DV?$ChTraitsCRT@D@ATL@@@@@ATL@@AAV23@ABV23@_N@Z ; CDataConversion::GetStringData
  0012c	83 c4 10	 add	 esp, 16			; 00000010H
  0012f	50		 push	 eax
  00130	8d 4d f0	 lea	 ecx, DWORD PTR _szPacketName$[ebp]
  00133	c6 45 fc 05	 mov	 BYTE PTR __$EHRec$[ebp+8], 5
  00137	ff 15 00 00 00
	00		 call	 DWORD PTR __imp_??4?$CStringT@DV?$StrTraitMFC_DLL@DV?$ChTraitsCRT@D@ATL@@@@@ATL@@QAEAAV01@ABV01@@Z
  0013d	8d 4d e4	 lea	 ecx, DWORD PTR $T4[ebp]
  00140	ff 15 00 00 00
	00		 call	 DWORD PTR __imp_??1?$CStringT@DV?$StrTraitMFC_DLL@DV?$ChTraitsCRT@D@ATL@@@@@ATL@@QAE@XZ
  00146	8d 4d ec	 lea	 ecx, DWORD PTR $T7[ebp]
  00149	c6 45 fc 01	 mov	 BYTE PTR __$EHRec$[ebp+8], 1
  0014d	ff 15 00 00 00
	00		 call	 DWORD PTR __imp_??1?$CStringT@DV?$StrTraitMFC_DLL@DV?$ChTraitsCRT@D@ATL@@@@@ATL@@QAE@XZ
; File C:\Program Files (x86)\Microsoft Visual Studio\2019\Community\VC\Tools\MSVC\14.29.30133\atlmfc\include\cstringt.h

; 2567 : 		return( str1.Compare( psz2 ) != 0 );

  00153	68 00 00 00 00	 push	 OFFSET ??_C@_00CNPNBAHC@@
  00158	8d 4d f0	 lea	 ecx, DWORD PTR _szPacketName$[ebp]
  0015b	ff 15 00 00 00
	00		 call	 DWORD PTR __imp_?Compare@?$CStringT@DV?$StrTraitMFC_DLL@DV?$ChTraitsCRT@D@ATL@@@@@ATL@@QBEHPBD@Z
  00161	85 c0		 test	 eax, eax
; File D:\git\src\IBK\IBK_DRFN\ProjSrc\SrcChartEx\ChartAddIn\ChartDesignPropertyAddIn\ChartDesignPropertyAddIn\RealPacketPage.cpp

; 378  : 	while(szPacketName != "") {

  00163	0f 85 77 ff ff
	ff		 jne	 $LL2@InitBasePa
$LN3@InitBasePa:
; File C:\Program Files (x86)\Microsoft Visual Studio\2019\Community\VC\Tools\MSVC\14.29.30133\atlmfc\include\atlsimpstr.h

; 519  : 		return( GetData()->nDataLength );

  00169	8b 87 b0 05 00
	00		 mov	 eax, DWORD PTR [edi+1456]

; 800  : 		return( reinterpret_cast< CStringData* >( m_pszData )-1 );

  0016f	8d b7 b0 05 00
	00		 lea	 esi, DWORD PTR [edi+1456]
; File D:\git\src\IBK\IBK_DRFN\ProjSrc\SrcChartEx\ChartAddIn\ChartDesignPropertyAddIn\ChartDesignPropertyAddIn\RealPacketPage.cpp

; 384  : 	if(m_szBasePacketName.IsEmpty())

  00175	6a 00		 push	 0
  00177	b9 00 00 00 00	 mov	 ecx, OFFSET ?g_iMetaTable@@3VIMetaTable@@A ; g_iMetaTable
; File C:\Program Files (x86)\Microsoft Visual Studio\2019\Community\VC\Tools\MSVC\14.29.30133\atlmfc\include\atlsimpstr.h

; 533  : 		return( GetLength() == 0 );

  0017c	83 78 f4 00	 cmp	 DWORD PTR [eax-12], 0
; File D:\git\src\IBK\IBK_DRFN\ProjSrc\SrcChartEx\ChartAddIn\ChartDesignPropertyAddIn\ChartDesignPropertyAddIn\RealPacketPage.cpp

; 384  : 	if(m_szBasePacketName.IsEmpty())

  00180	75 09		 jne	 SHORT $LN5@InitBasePa

; 385  : 		nIndex = m_comboBasePacket.FindString(-1, _LTEXT0( C0_DATE_TIME));

  00182	a1 54 00 00 00	 mov	 eax, DWORD PTR ?g_iMetaTable@@3VIMetaTable@@A+84
  00187	ff 30		 push	 DWORD PTR [eax]
  00189	eb 01		 jmp	 SHORT $LN75@InitBasePa
$LN5@InitBasePa:

; 386  : 	else
; 387  : 		nIndex = m_comboBasePacket.FindString(-1, _MTOL0( m_szBasePacketName));

  0018b	50		 push	 eax
$LN75@InitBasePa:

; 388  : 
; 389  : 	//sy 2004.04.26. -   packet     .
; 390  : 	if(nIndex < 0)

  0018c	6a 00		 push	 0
  0018e	ff b7 b8 05 00
	00		 push	 DWORD PTR [edi+1464]
  00194	e8 00 00 00 00	 call	 ?GetLanguageText@IMetaTable@@QAEPBDPAUHWND__@@W4E_CODEPAGE@1@PBDH@Z ; IMetaTable::GetLanguageText
  00199	50		 push	 eax
  0019a	6a ff		 push	 -1
  0019c	68 4c 01 00 00	 push	 332			; 0000014cH
  001a1	ff b7 60 01 00
	00		 push	 DWORD PTR [edi+352]
  001a7	ff d3		 call	 ebx
  001a9	85 c0		 test	 eax, eax
  001ab	0f 89 f4 00 00
	00		 jns	 $LN7@InitBasePa

; 391  : 	{
; 392  : 		ML_SET_LANGUAGE_RES();

  001b1	e8 00 00 00 00	 call	 ?AfxGetStaticModuleState@@YGPAVAFX_MODULE_STATE@@XZ ; AfxGetStaticModuleState
  001b6	8b 8f b8 05 00
	00		 mov	 ecx, DWORD PTR [edi+1464]
  001bc	89 4d e4	 mov	 DWORD PTR _p1$1$[ebp], ecx
  001bf	8b 70 08	 mov	 esi, DWORD PTR [eax+8]
; File D:\git\src\IBK\IBK_DRFN\ProjSrc\SrcChartEx\ChartAddIn\ChartDesignPropertyAddIn\Include_Chart\Dll_Load\IMetaTable.h

; 936  : 	DECLARE_FUNCTION2(	LoadResourceDLL,				HMODULE, AfxGetStaticModuleState()->m_hCurrentInstanceHandle, HWND, HMODULE);

  001c2	a1 04 00 00 00	 mov	 eax, DWORD PTR ?g_iMetaTable@@3VIMetaTable@@A+4
  001c7	85 c0		 test	 eax, eax
  001c9	74 4c		 je	 SHORT $LN44@InitBasePa
  001cb	ba 80 0d 00 00	 mov	 edx, 3456		; 00000d80H
  001d0	66 3b 15 94 00
	00 00		 cmp	 dx, WORD PTR ?g_iMetaTable@@3VIMetaTable@@A+148
  001d7	74 2c		 je	 SHORT $LN73@InitBasePa
  001d9	68 00 00 00 00	 push	 OFFSET ??_C@_0BA@ENJOCHIO@LoadResourceDLL@
  001de	50		 push	 eax
  001df	c7 05 90 00 00
	00 00 00 00 00	 mov	 DWORD PTR ?g_iMetaTable@@3VIMetaTable@@A+144, 0
  001e9	ff 15 00 00 00
	00		 call	 DWORD PTR __imp__GetProcAddress@8
  001ef	b9 80 0d 00 00	 mov	 ecx, 3456		; 00000d80H
  001f4	a3 90 00 00 00	 mov	 DWORD PTR ?g_iMetaTable@@3VIMetaTable@@A+144, eax
  001f9	66 89 0d 94 00
	00 00		 mov	 WORD PTR ?g_iMetaTable@@3VIMetaTable@@A+148, cx
  00200	8b 4d e4	 mov	 ecx, DWORD PTR _p1$1$[ebp]
  00203	eb 05		 jmp	 SHORT $LN43@InitBasePa
$LN73@InitBasePa:
  00205	a1 90 00 00 00	 mov	 eax, DWORD PTR ?g_iMetaTable@@3VIMetaTable@@A+144
$LN43@InitBasePa:
  0020a	85 c0		 test	 eax, eax
  0020c	74 09		 je	 SHORT $LN44@InitBasePa
  0020e	56		 push	 esi
  0020f	51		 push	 ecx
  00210	ff d0		 call	 eax
  00212	83 c4 08	 add	 esp, 8
  00215	eb 08		 jmp	 SHORT $LN76@InitBasePa
$LN44@InitBasePa:
  00217	e8 00 00 00 00	 call	 ?AfxGetStaticModuleState@@YGPAVAFX_MODULE_STATE@@XZ ; AfxGetStaticModuleState
  0021c	8b 40 08	 mov	 eax, DWORD PTR [eax+8]
$LN76@InitBasePa:
; File C:\Program Files (x86)\Microsoft Visual Studio\2019\Community\VC\Tools\MSVC\14.29.30133\atlmfc\include\afxwin1.inl

; 25   : 		return afxCurrentResourceHandle; }

  0021f	89 45 e4	 mov	 DWORD PTR $T3[ebp], eax
  00222	e8 00 00 00 00	 call	 ?AfxGetModuleState@@YGPAVAFX_MODULE_STATE@@XZ ; AfxGetModuleState
; File D:\git\src\IBK\IBK_DRFN\ProjSrc\SrcChartEx\ChartAddIn\ChartDesignPropertyAddIn\Include_Chart\Dll_Load\IMetaTable.h

; 1032 : 		m_hInstance = AfxGetResourceHandle();

  00227	8b 70 0c	 mov	 esi, DWORD PTR [eax+12]
  0022a	89 75 e0	 mov	 DWORD PTR ___mlrs__$2[ebp], esi
; File C:\Program Files (x86)\Microsoft Visual Studio\2019\Community\VC\Tools\MSVC\14.29.30133\atlmfc\include\afxwin1.inl

; 27   : 	{ ASSERT(hInstResource != NULL); afxCurrentResourceHandle = hInstResource; }

  0022d	e8 00 00 00 00	 call	 ?AfxGetModuleState@@YGPAVAFX_MODULE_STATE@@XZ ; AfxGetModuleState
  00232	8b 4d e4	 mov	 ecx, DWORD PTR $T3[ebp]
  00235	89 48 0c	 mov	 DWORD PTR [eax+12], ecx
; File D:\git\src\IBK\IBK_DRFN\ProjSrc\SrcChartEx\ChartAddIn\ChartDesignPropertyAddIn\ChartDesignPropertyAddIn\RealPacketPage.cpp

; 393  : 		CString strMsg;

  00238	8d 4d ec	 lea	 ecx, DWORD PTR _strMsg$6[ebp]
  0023b	ff 15 00 00 00
	00		 call	 DWORD PTR __imp_??0?$CStringT@DV?$StrTraitMFC_DLL@DV?$ChTraitsCRT@D@ATL@@@@@ATL@@QAE@XZ

; 394  : 		strMsg.LoadString( IDS_INVALID_BASE_PACKET);

  00241	68 66 04 00 00	 push	 1126			; 00000466H
  00246	8d 4d ec	 lea	 ecx, DWORD PTR _strMsg$6[ebp]
  00249	c6 45 fc 07	 mov	 BYTE PTR __$EHRec$[ebp+8], 7
  0024d	ff 15 00 00 00
	00		 call	 DWORD PTR __imp_?LoadStringA@?$CStringT@DV?$StrTraitMFC_DLL@DV?$ChTraitsCRT@D@ATL@@@@@ATL@@QAEHI@Z

; 395  : 		AfxMessageBox( strMsg, MB_ICONWARNING|MB_OK);

  00253	6a 00		 push	 0
  00255	6a 30		 push	 48			; 00000030H
  00257	ff 75 ec	 push	 DWORD PTR _strMsg$6[ebp]
  0025a	e8 00 00 00 00	 call	 ?AfxMessageBox@@YGHPBDII@Z ; AfxMessageBox
; File C:\Program Files (x86)\Microsoft Visual Studio\2019\Community\VC\Tools\MSVC\14.29.30133\atlmfc\include\afxwin2.inl

; 767  : 	{ ASSERT(::IsWindow(m_hWnd)); return (int)::SendMessage(m_hWnd, CB_SETCURSEL, nSelect, 0); }

  0025f	6a 00		 push	 0
  00261	6a 00		 push	 0
  00263	68 4e 01 00 00	 push	 334			; 0000014eH
  00268	ff b7 60 01 00
	00		 push	 DWORD PTR [edi+352]
  0026e	ff d3		 call	 ebx
; File D:\git\src\IBK\IBK_DRFN\ProjSrc\SrcChartEx\ChartAddIn\ChartDesignPropertyAddIn\ChartDesignPropertyAddIn\RealPacketPage.cpp

; 397  : 		m_comboBasePacket.GetLBText(0, m_szBasePacketName);

  00270	8d 87 b0 05 00
	00		 lea	 eax, DWORD PTR [edi+1456]
  00276	50		 push	 eax
  00277	8d 8f 40 01 00
	00		 lea	 ecx, DWORD PTR [edi+320]
  0027d	6a 00		 push	 0
  0027f	e8 00 00 00 00	 call	 ?GetLBText@CComboBox@@QBEXHAAV?$CStringT@DV?$StrTraitMFC_DLL@DV?$ChTraitsCRT@D@ATL@@@@@ATL@@@Z ; CComboBox::GetLBText

; 398  : 	}

  00284	8d 4d ec	 lea	 ecx, DWORD PTR _strMsg$6[ebp]
  00287	ff 15 00 00 00
	00		 call	 DWORD PTR __imp_??1?$CStringT@DV?$StrTraitMFC_DLL@DV?$ChTraitsCRT@D@ATL@@@@@ATL@@QAE@XZ
; File D:\git\src\IBK\IBK_DRFN\ProjSrc\SrcChartEx\ChartAddIn\ChartDesignPropertyAddIn\Include_Chart\Dll_Load\IMetaTable.h

; 1036 : 	{

  0028d	c6 45 fc 08	 mov	 BYTE PTR __$EHRec$[ebp+8], 8
; File C:\Program Files (x86)\Microsoft Visual Studio\2019\Community\VC\Tools\MSVC\14.29.30133\atlmfc\include\afxwin1.inl

; 27   : 	{ ASSERT(hInstResource != NULL); afxCurrentResourceHandle = hInstResource; }

  00291	e8 00 00 00 00	 call	 ?AfxGetModuleState@@YGPAVAFX_MODULE_STATE@@XZ ; AfxGetModuleState
; File D:\git\src\IBK\IBK_DRFN\ProjSrc\SrcChartEx\ChartAddIn\ChartDesignPropertyAddIn\Include_Chart\Dll_Load\IMetaTable.h

; 1038 : 	}

  00296	c6 45 fc 01	 mov	 BYTE PTR __$EHRec$[ebp+8], 1
; File C:\Program Files (x86)\Microsoft Visual Studio\2019\Community\VC\Tools\MSVC\14.29.30133\atlmfc\include\afxwin1.inl

; 27   : 	{ ASSERT(hInstResource != NULL); afxCurrentResourceHandle = hInstResource; }

  0029a	89 70 0c	 mov	 DWORD PTR [eax+12], esi
; File D:\git\src\IBK\IBK_DRFN\ProjSrc\SrcChartEx\ChartAddIn\ChartDesignPropertyAddIn\ChartDesignPropertyAddIn\RealPacketPage.cpp

; 398  : 	}

  0029d	8d b7 b0 05 00
	00		 lea	 esi, DWORD PTR [edi+1456]
  002a3	eb 10		 jmp	 SHORT $LN8@InitBasePa
$LN7@InitBasePa:
; File C:\Program Files (x86)\Microsoft Visual Studio\2019\Community\VC\Tools\MSVC\14.29.30133\atlmfc\include\afxwin2.inl

; 767  : 	{ ASSERT(::IsWindow(m_hWnd)); return (int)::SendMessage(m_hWnd, CB_SETCURSEL, nSelect, 0); }

  002a5	6a 00		 push	 0
  002a7	50		 push	 eax
  002a8	68 4e 01 00 00	 push	 334			; 0000014eH
  002ad	ff b7 60 01 00
	00		 push	 DWORD PTR [edi+352]
  002b3	ff d3		 call	 ebx
$LN8@InitBasePa:

; 765  : 	{ ASSERT(::IsWindow(m_hWnd)); return (int)::SendMessage(m_hWnd, CB_GETCURSEL, 0, 0); }

  002b5	6a 00		 push	 0
  002b7	6a 00		 push	 0
  002b9	68 47 01 00 00	 push	 327			; 00000147H
  002be	ff b7 60 01 00
	00		 push	 DWORD PTR [edi+352]
  002c4	ff d3		 call	 ebx
; File D:\git\src\IBK\IBK_DRFN\ProjSrc\SrcChartEx\ChartAddIn\ChartDesignPropertyAddIn\ChartDesignPropertyAddIn\RealPacketPage.cpp

; 402  : 	if(CB_ERR != m_comboBasePacket.GetCurSel())

  002c6	83 f8 ff	 cmp	 eax, -1
  002c9	74 1e		 je	 SHORT $LN9@InitBasePa

; 403  : 		m_comboBasePacket.GetLBText(m_comboBasePacket.GetCurSel(), m_szBasePacketName);

  002cb	56		 push	 esi
; File C:\Program Files (x86)\Microsoft Visual Studio\2019\Community\VC\Tools\MSVC\14.29.30133\atlmfc\include\afxwin2.inl

; 765  : 	{ ASSERT(::IsWindow(m_hWnd)); return (int)::SendMessage(m_hWnd, CB_GETCURSEL, 0, 0); }

  002cc	6a 00		 push	 0
  002ce	6a 00		 push	 0
  002d0	68 47 01 00 00	 push	 327			; 00000147H
  002d5	ff b7 60 01 00
	00		 push	 DWORD PTR [edi+352]
  002db	ff d3		 call	 ebx
; File D:\git\src\IBK\IBK_DRFN\ProjSrc\SrcChartEx\ChartAddIn\ChartDesignPropertyAddIn\ChartDesignPropertyAddIn\RealPacketPage.cpp

; 403  : 		m_comboBasePacket.GetLBText(m_comboBasePacket.GetCurSel(), m_szBasePacketName);

  002dd	50		 push	 eax
  002de	8d 8f 40 01 00
	00		 lea	 ecx, DWORD PTR [edi+320]
  002e4	e8 00 00 00 00	 call	 ?GetLBText@CComboBox@@QBEXHAAV?$CStringT@DV?$StrTraitMFC_DLL@DV?$ChTraitsCRT@D@ATL@@@@@ATL@@@Z ; CComboBox::GetLBText
$LN9@InitBasePa:

; 404  : 
; 405  : 	m_szBasePacketName = _LTOM0( m_szBasePacketName);

  002e9	6a 00		 push	 0
  002eb	ff 36		 push	 DWORD PTR [esi]
  002ed	b9 00 00 00 00	 mov	 ecx, OFFSET ?g_iMetaTable@@3VIMetaTable@@A ; g_iMetaTable
  002f2	6a 00		 push	 0
  002f4	ff b7 b8 05 00
	00		 push	 DWORD PTR [edi+1464]
  002fa	e8 00 00 00 00	 call	 ?GetMetaText@IMetaTable@@QAEPBDPAUHWND__@@W4E_CODEPAGE@1@PBDH@Z ; IMetaTable::GetMetaText
  002ff	50		 push	 eax
  00300	8b ce		 mov	 ecx, esi
  00302	ff 15 00 00 00
	00		 call	 DWORD PTR __imp_??4?$CStringT@DV?$StrTraitMFC_DLL@DV?$ChTraitsCRT@D@ATL@@@@@ATL@@QAEAAV01@PBD@Z

; 406  : }

  00308	8d 4d e8	 lea	 ecx, DWORD PTR _szRealPackets$[ebp]
  0030b	ff 15 00 00 00
	00		 call	 DWORD PTR __imp_??1?$CStringT@DV?$StrTraitMFC_DLL@DV?$ChTraitsCRT@D@ATL@@@@@ATL@@QAE@XZ
  00311	8d 4d f0	 lea	 ecx, DWORD PTR _szPacketName$[ebp]
  00314	ff 15 00 00 00
	00		 call	 DWORD PTR __imp_??1?$CStringT@DV?$StrTraitMFC_DLL@DV?$ChTraitsCRT@D@ATL@@@@@ATL@@QAE@XZ
$LN1@InitBasePa:
  0031a	8b 4d f4	 mov	 ecx, DWORD PTR __$EHRec$[ebp]
  0031d	64 89 0d 00 00
	00 00		 mov	 DWORD PTR fs:0, ecx
  00324	59		 pop	 ecx
  00325	5f		 pop	 edi
  00326	5e		 pop	 esi
  00327	5b		 pop	 ebx
  00328	8b e5		 mov	 esp, ebp
  0032a	5d		 pop	 ebp
  0032b	c3		 ret	 0
_TEXT	ENDS
;	COMDAT text$x
text$x	SEGMENT
__unwindfunclet$?InitBasePacketCombo@CRealPacketPage@@AAEXXZ$0:
  00000	8d 4d f0	 lea	 ecx, DWORD PTR _szPacketName$[ebp]
  00003	ff 25 00 00 00
	00		 jmp	 DWORD PTR __imp_??1?$CStringT@DV?$StrTraitMFC_DLL@DV?$ChTraitsCRT@D@ATL@@@@@ATL@@QAE@XZ
__unwindfunclet$?InitBasePacketCombo@CRealPacketPage@@AAEXXZ$1:
  00009	8d 4d e8	 lea	 ecx, DWORD PTR _szRealPackets$[ebp]
  0000c	ff 25 00 00 00
	00		 jmp	 DWORD PTR __imp_??1?$CStringT@DV?$StrTraitMFC_DLL@DV?$ChTraitsCRT@D@ATL@@@@@ATL@@QAE@XZ
__unwindfunclet$?InitBasePacketCombo@CRealPacketPage@@AAEXXZ$2:
  00012	8d 4d ec	 lea	 ecx, DWORD PTR $T8[ebp]
  00015	ff 25 00 00 00
	00		 jmp	 DWORD PTR __imp_??1?$CStringT@DV?$StrTraitMFC_DLL@DV?$ChTraitsCRT@D@ATL@@@@@ATL@@QAE@XZ
__unwindfunclet$?InitBasePacketCombo@CRealPacketPage@@AAEXXZ$3:
  0001b	8d 4d e4	 lea	 ecx, DWORD PTR $T5[ebp]
  0001e	ff 25 00 00 00
	00		 jmp	 DWORD PTR __imp_??1?$CStringT@DV?$StrTraitMFC_DLL@DV?$ChTraitsCRT@D@ATL@@@@@ATL@@QAE@XZ
__unwindfunclet$?InitBasePacketCombo@CRealPacketPage@@AAEXXZ$4:
  00024	8d 4d ec	 lea	 ecx, DWORD PTR $T7[ebp]
  00027	ff 25 00 00 00
	00		 jmp	 DWORD PTR __imp_??1?$CStringT@DV?$StrTraitMFC_DLL@DV?$ChTraitsCRT@D@ATL@@@@@ATL@@QAE@XZ
__unwindfunclet$?InitBasePacketCombo@CRealPacketPage@@AAEXXZ$5:
  0002d	8d 4d e4	 lea	 ecx, DWORD PTR $T4[ebp]
  00030	ff 25 00 00 00
	00		 jmp	 DWORD PTR __imp_??1?$CStringT@DV?$StrTraitMFC_DLL@DV?$ChTraitsCRT@D@ATL@@@@@ATL@@QAE@XZ
__unwindfunclet$?InitBasePacketCombo@CRealPacketPage@@AAEXXZ$6:
  00036	8d 4d e0	 lea	 ecx, DWORD PTR ___mlrs__$2[ebp]
  00039	e9 00 00 00 00	 jmp	 ??1CMultiLanguageResourceSetter@@QAE@XZ ; CMultiLanguageResourceSetter::~CMultiLanguageResourceSetter
__unwindfunclet$?InitBasePacketCombo@CRealPacketPage@@AAEXXZ$7:
  0003e	8d 4d ec	 lea	 ecx, DWORD PTR _strMsg$6[ebp]
  00041	ff 25 00 00 00
	00		 jmp	 DWORD PTR __imp_??1?$CStringT@DV?$StrTraitMFC_DLL@DV?$ChTraitsCRT@D@ATL@@@@@ATL@@QAE@XZ
  00047	cc		 int	 3
  00048	cc		 int	 3
  00049	cc		 int	 3
  0004a	cc		 int	 3
  0004b	cc		 int	 3
__ehhandler$?InitBasePacketCombo@CRealPacketPage@@AAEXXZ:
  0004c	90		 npad	 1
  0004d	90		 npad	 1
  0004e	8b 54 24 08	 mov	 edx, DWORD PTR [esp+8]
  00052	8d 42 0c	 lea	 eax, DWORD PTR [edx+12]
  00055	8b 4a dc	 mov	 ecx, DWORD PTR [edx-36]
  00058	33 c8		 xor	 ecx, eax
  0005a	e8 00 00 00 00	 call	 @__security_check_cookie@4
  0005f	b8 00 00 00 00	 mov	 eax, OFFSET __ehfuncinfo$?InitBasePacketCombo@CRealPacketPage@@AAEXXZ
  00064	e9 00 00 00 00	 jmp	 ___CxxFrameHandler3
text$x	ENDS
?InitBasePacketCombo@CRealPacketPage@@AAEXXZ ENDP	; CRealPacketPage::InitBasePacketCombo
; Function compile flags: /Ogtp
; File D:\git\src\IBK\IBK_DRFN\ProjSrc\SrcChartEx\ChartAddIn\ChartDesignPropertyAddIn\ChartDesignPropertyAddIn\RealPacketPage.cpp
; File C:\Program Files (x86)\Microsoft Visual Studio\2019\Community\VC\Tools\MSVC\14.29.30133\atlmfc\include\afxcmn.inl
; File D:\git\src\IBK\IBK_DRFN\ProjSrc\SrcChartEx\ChartAddIn\ChartDesignPropertyAddIn\ChartDesignPropertyAddIn\RealPacketPage.cpp
; File C:\Program Files (x86)\Microsoft Visual Studio\2019\Community\VC\Tools\MSVC\14.29.30133\atlmfc\include\afxcmn.inl
; File D:\git\src\IBK\IBK_DRFN\ProjSrc\SrcChartEx\ChartAddIn\ChartDesignPropertyAddIn\ChartDesignPropertyAddIn\RealPacketPage.cpp
; File C:\Program Files (x86)\Microsoft Visual Studio\2019\Community\VC\Tools\MSVC\14.29.30133\atlmfc\include\afxcmn.inl
; File D:\git\src\IBK\IBK_DRFN\ProjSrc\SrcChartEx\ChartAddIn\ChartDesignPropertyAddIn\ChartDesignPropertyAddIn\RealPacketPage.cpp
;	COMDAT ?AddData@CRealPacketPage@@AAEHV?$CStringT@DV?$StrTraitMFC_DLL@DV?$ChTraitsCRT@D@ATL@@@@@ATL@@000@Z
_TEXT	SEGMENT
__$EHRec$ = -12						; size = 12
_ChartPacket$ = 8					; size = 4
_packet$ = 12						; size = 4
_field$ = 16						; size = 4
_key$ = 20						; size = 4
?AddData@CRealPacketPage@@AAEHV?$CStringT@DV?$StrTraitMFC_DLL@DV?$ChTraitsCRT@D@ATL@@@@@ATL@@000@Z PROC ; CRealPacketPage::AddData, COMDAT
; _this$ = ecx

; 164  : {

  00000	55		 push	 ebp
  00001	8b ec		 mov	 ebp, esp
  00003	6a ff		 push	 -1
  00005	68 00 00 00 00	 push	 __ehhandler$?AddData@CRealPacketPage@@AAEHV?$CStringT@DV?$StrTraitMFC_DLL@DV?$ChTraitsCRT@D@ATL@@@@@ATL@@000@Z
  0000a	64 a1 00 00 00
	00		 mov	 eax, DWORD PTR fs:0
  00010	50		 push	 eax
  00011	56		 push	 esi
  00012	57		 push	 edi
  00013	a1 00 00 00 00	 mov	 eax, DWORD PTR ___security_cookie
  00018	33 c5		 xor	 eax, ebp
  0001a	50		 push	 eax
  0001b	8d 45 f4	 lea	 eax, DWORD PTR __$EHRec$[ebp]
  0001e	64 a3 00 00 00
	00		 mov	 DWORD PTR fs:0, eax
  00024	8b f1		 mov	 esi, ecx
; File C:\Program Files (x86)\Microsoft Visual Studio\2019\Community\VC\Tools\MSVC\14.29.30133\atlmfc\include\afxcmn.inl

; 155  : 	{ ASSERT(::IsWindow(m_hWnd)); return (int) ::SendMessage(m_hWnd, LVM_GETITEMCOUNT, 0, 0L); }

  00026	6a 00		 push	 0
  00028	6a 00		 push	 0
  0002a	68 04 10 00 00	 push	 4100			; 00001004H
  0002f	ff b6 e0 02 00
	00		 push	 DWORD PTR [esi+736]
; File D:\git\src\IBK\IBK_DRFN\ProjSrc\SrcChartEx\ChartAddIn\ChartDesignPropertyAddIn\ChartDesignPropertyAddIn\RealPacketPage.cpp

; 164  : {

  00035	c7 45 fc 03 00
	00 00		 mov	 DWORD PTR __$EHRec$[ebp+8], 3
; File C:\Program Files (x86)\Microsoft Visual Studio\2019\Community\VC\Tools\MSVC\14.29.30133\atlmfc\include\afxcmn.inl

; 155  : 	{ ASSERT(::IsWindow(m_hWnd)); return (int) ::SendMessage(m_hWnd, LVM_GETITEMCOUNT, 0, 0L); }

  0003c	ff 15 00 00 00
	00		 call	 DWORD PTR __imp__SendMessageA@16

; 165  : 	{ ASSERT(::IsWindow(m_hWnd)); return InsertItem(LVIF_TEXT, nItem, lpszItem, 0, 0, 0, 0); }

  00042	6a 00		 push	 0
  00044	6a 00		 push	 0
  00046	6a 00		 push	 0
  00048	6a 00		 push	 0
  0004a	ff 75 08	 push	 DWORD PTR _ChartPacket$[ebp]
; File D:\git\src\IBK\IBK_DRFN\ProjSrc\SrcChartEx\ChartAddIn\ChartDesignPropertyAddIn\ChartDesignPropertyAddIn\RealPacketPage.cpp

; 165  : 	int nIndex = m_lsAdviseList.GetItemCount();

  0004d	8b f8		 mov	 edi, eax

; 166  : 
; 167  : 	m_lsAdviseList.InsertItem(nIndex, ChartPacket); 

  0004f	81 c6 c0 02 00
	00		 add	 esi, 704		; 000002c0H
; File C:\Program Files (x86)\Microsoft Visual Studio\2019\Community\VC\Tools\MSVC\14.29.30133\atlmfc\include\afxcmn.inl

; 165  : 	{ ASSERT(::IsWindow(m_hWnd)); return InsertItem(LVIF_TEXT, nItem, lpszItem, 0, 0, 0, 0); }

  00055	57		 push	 edi
  00056	6a 01		 push	 1
  00058	8b ce		 mov	 ecx, esi
  0005a	e8 00 00 00 00	 call	 ?InsertItem@CListCtrl@@QAEHIHPBDIIHJ@Z ; CListCtrl::InsertItem
; File D:\git\src\IBK\IBK_DRFN\ProjSrc\SrcChartEx\ChartAddIn\ChartDesignPropertyAddIn\ChartDesignPropertyAddIn\RealPacketPage.cpp

; 168  : 	m_lsAdviseList.SetItemText(nIndex, 1, packet);

  0005f	ff 75 0c	 push	 DWORD PTR _packet$[ebp]
  00062	8b ce		 mov	 ecx, esi
  00064	6a 01		 push	 1
  00066	57		 push	 edi
  00067	e8 00 00 00 00	 call	 ?SetItemText@CListCtrl@@QAEHHHPBD@Z ; CListCtrl::SetItemText

; 169  : 	m_lsAdviseList.SetItemText(nIndex, 2, field);

  0006c	ff 75 10	 push	 DWORD PTR _field$[ebp]
  0006f	8b ce		 mov	 ecx, esi
  00071	6a 02		 push	 2
  00073	57		 push	 edi
  00074	e8 00 00 00 00	 call	 ?SetItemText@CListCtrl@@QAEHHHPBD@Z ; CListCtrl::SetItemText

; 170  : 	m_lsAdviseList.SetItemText(nIndex, 3, key);

  00079	ff 75 14	 push	 DWORD PTR _key$[ebp]
  0007c	8b ce		 mov	 ecx, esi
  0007e	6a 03		 push	 3
  00080	57		 push	 edi
  00081	e8 00 00 00 00	 call	 ?SetItemText@CListCtrl@@QAEHHHPBD@Z ; CListCtrl::SetItemText

; 171  : 
; 172  : 	return 1;

  00086	8d 4d 08	 lea	 ecx, DWORD PTR _ChartPacket$[ebp]
  00089	ff 15 00 00 00
	00		 call	 DWORD PTR __imp_??1?$CStringT@DV?$StrTraitMFC_DLL@DV?$ChTraitsCRT@D@ATL@@@@@ATL@@QAE@XZ
  0008f	8d 4d 0c	 lea	 ecx, DWORD PTR _packet$[ebp]
  00092	ff 15 00 00 00
	00		 call	 DWORD PTR __imp_??1?$CStringT@DV?$StrTraitMFC_DLL@DV?$ChTraitsCRT@D@ATL@@@@@ATL@@QAE@XZ
  00098	8d 4d 10	 lea	 ecx, DWORD PTR _field$[ebp]
  0009b	ff 15 00 00 00
	00		 call	 DWORD PTR __imp_??1?$CStringT@DV?$StrTraitMFC_DLL@DV?$ChTraitsCRT@D@ATL@@@@@ATL@@QAE@XZ
  000a1	8d 4d 14	 lea	 ecx, DWORD PTR _key$[ebp]
  000a4	ff 15 00 00 00
	00		 call	 DWORD PTR __imp_??1?$CStringT@DV?$StrTraitMFC_DLL@DV?$ChTraitsCRT@D@ATL@@@@@ATL@@QAE@XZ
  000aa	b8 01 00 00 00	 mov	 eax, 1

; 173  : }

  000af	8b 4d f4	 mov	 ecx, DWORD PTR __$EHRec$[ebp]
  000b2	64 89 0d 00 00
	00 00		 mov	 DWORD PTR fs:0, ecx
  000b9	59		 pop	 ecx
  000ba	5f		 pop	 edi
  000bb	5e		 pop	 esi
  000bc	8b e5		 mov	 esp, ebp
  000be	5d		 pop	 ebp
  000bf	c2 10 00	 ret	 16			; 00000010H
_TEXT	ENDS
;	COMDAT text$x
text$x	SEGMENT
__unwindfunclet$?AddData@CRealPacketPage@@AAEHV?$CStringT@DV?$StrTraitMFC_DLL@DV?$ChTraitsCRT@D@ATL@@@@@ATL@@000@Z$0:
  00000	8d 4d 14	 lea	 ecx, DWORD PTR _key$[ebp]
  00003	ff 25 00 00 00
	00		 jmp	 DWORD PTR __imp_??1?$CStringT@DV?$StrTraitMFC_DLL@DV?$ChTraitsCRT@D@ATL@@@@@ATL@@QAE@XZ
__unwindfunclet$?AddData@CRealPacketPage@@AAEHV?$CStringT@DV?$StrTraitMFC_DLL@DV?$ChTraitsCRT@D@ATL@@@@@ATL@@000@Z$1:
  00009	8d 4d 10	 lea	 ecx, DWORD PTR _field$[ebp]
  0000c	ff 25 00 00 00
	00		 jmp	 DWORD PTR __imp_??1?$CStringT@DV?$StrTraitMFC_DLL@DV?$ChTraitsCRT@D@ATL@@@@@ATL@@QAE@XZ
__unwindfunclet$?AddData@CRealPacketPage@@AAEHV?$CStringT@DV?$StrTraitMFC_DLL@DV?$ChTraitsCRT@D@ATL@@@@@ATL@@000@Z$2:
  00012	8d 4d 0c	 lea	 ecx, DWORD PTR _packet$[ebp]
  00015	ff 25 00 00 00
	00		 jmp	 DWORD PTR __imp_??1?$CStringT@DV?$StrTraitMFC_DLL@DV?$ChTraitsCRT@D@ATL@@@@@ATL@@QAE@XZ
__unwindfunclet$?AddData@CRealPacketPage@@AAEHV?$CStringT@DV?$StrTraitMFC_DLL@DV?$ChTraitsCRT@D@ATL@@@@@ATL@@000@Z$3:
  0001b	8d 4d 08	 lea	 ecx, DWORD PTR _ChartPacket$[ebp]
  0001e	ff 25 00 00 00
	00		 jmp	 DWORD PTR __imp_??1?$CStringT@DV?$StrTraitMFC_DLL@DV?$ChTraitsCRT@D@ATL@@@@@ATL@@QAE@XZ
  00024	cc		 int	 3
  00025	cc		 int	 3
  00026	cc		 int	 3
  00027	cc		 int	 3
  00028	cc		 int	 3
__ehhandler$?AddData@CRealPacketPage@@AAEHV?$CStringT@DV?$StrTraitMFC_DLL@DV?$ChTraitsCRT@D@ATL@@@@@ATL@@000@Z:
  00029	90		 npad	 1
  0002a	90		 npad	 1
  0002b	8b 54 24 08	 mov	 edx, DWORD PTR [esp+8]
  0002f	8d 42 0c	 lea	 eax, DWORD PTR [edx+12]
  00032	8b 4a f4	 mov	 ecx, DWORD PTR [edx-12]
  00035	33 c8		 xor	 ecx, eax
  00037	e8 00 00 00 00	 call	 @__security_check_cookie@4
  0003c	b8 00 00 00 00	 mov	 eax, OFFSET __ehfuncinfo$?AddData@CRealPacketPage@@AAEHV?$CStringT@DV?$StrTraitMFC_DLL@DV?$ChTraitsCRT@D@ATL@@@@@ATL@@000@Z
  00041	e9 00 00 00 00	 jmp	 ___CxxFrameHandler3
text$x	ENDS
?AddData@CRealPacketPage@@AAEHV?$CStringT@DV?$StrTraitMFC_DLL@DV?$ChTraitsCRT@D@ATL@@@@@ATL@@000@Z ENDP ; CRealPacketPage::AddData
; Function compile flags: /Ogtp
; File D:\git\src\IBK\IBK_DRFN\ProjSrc\SrcChartEx\ChartAddIn\ChartDesignPropertyAddIn\ChartDesignPropertyAddIn\RealPacketPage.cpp
; File C:\Program Files (x86)\Microsoft Visual Studio\2019\Community\VC\Tools\MSVC\14.29.30133\atlmfc\include\afxcmn2.inl
; File D:\git\src\IBK\IBK_DRFN\ProjSrc\SrcChartEx\ChartAddIn\ChartDesignPropertyAddIn\ChartDesignPropertyAddIn\RealPacketPage.cpp
; File C:\Program Files (x86)\Microsoft Visual Studio\2019\Community\VC\Tools\MSVC\14.29.30133\atlmfc\include\afxcmn2.inl
; File C:\Program Files (x86)\Microsoft Visual Studio\2019\Community\VC\Tools\MSVC\14.29.30133\atlmfc\include\afxwin2.inl
; File C:\Program Files (x86)\Microsoft Visual Studio\2019\Community\VC\Tools\MSVC\14.29.30133\atlmfc\include\atltypes.h
; File C:\Program Files (x86)\Microsoft Visual Studio\2019\Community\VC\Tools\MSVC\14.29.30133\atlmfc\include\afxwin2.inl
; File D:\git\src\IBK\IBK_DRFN\ProjSrc\SrcChartEx\ChartAddIn\ChartDesignPropertyAddIn\ChartDesignPropertyAddIn\RealPacketPage.cpp
; File C:\Program Files (x86)\Microsoft Visual Studio\2019\Community\VC\Tools\MSVC\14.29.30133\atlmfc\include\atltypes.h
; File D:\git\src\IBK\IBK_DRFN\ProjSrc\SrcChartEx\ChartAddIn\ChartDesignPropertyAddIn\ChartDesignPropertyAddIn\RealPacketPage.cpp
; File C:\Program Files (x86)\Microsoft Visual Studio\2019\Community\VC\Tools\MSVC\14.29.30133\atlmfc\include\atltypes.h
; File D:\git\src\IBK\IBK_DRFN\ProjSrc\SrcChartEx\ChartAddIn\ChartDesignPropertyAddIn\ChartDesignPropertyAddIn\RealPacketPage.cpp
;	COMDAT ?InitList@CRealPacketPage@@AAEXXZ
_TEXT	SEGMENT
_rc$ = -20						; size = 16
__$ArrayPad$ = -4					; size = 4
?InitList@CRealPacketPage@@AAEXXZ PROC			; CRealPacketPage::InitList, COMDAT
; _this$ = ecx

; 124  : {

  00000	55		 push	 ebp
  00001	8b ec		 mov	 ebp, esp
  00003	83 ec 14	 sub	 esp, 20			; 00000014H
  00006	a1 00 00 00 00	 mov	 eax, DWORD PTR ___security_cookie
  0000b	33 c5		 xor	 eax, ebp
  0000d	89 45 fc	 mov	 DWORD PTR __$ArrayPad$[ebp], eax
  00010	56		 push	 esi
; File C:\Program Files (x86)\Microsoft Visual Studio\2019\Community\VC\Tools\MSVC\14.29.30133\atlmfc\include\afxcmn2.inl

; 117  : 	{ ASSERT(::IsWindow(m_hWnd)); return (DWORD) ::SendMessage(m_hWnd, LVM_SETEXTENDEDLISTVIEWSTYLE, 0, (LPARAM) dwNewStyle); }

  00011	6a 31		 push	 49			; 00000031H
; File D:\git\src\IBK\IBK_DRFN\ProjSrc\SrcChartEx\ChartAddIn\ChartDesignPropertyAddIn\ChartDesignPropertyAddIn\RealPacketPage.cpp

; 124  : {

  00013	8b f1		 mov	 esi, ecx
; File C:\Program Files (x86)\Microsoft Visual Studio\2019\Community\VC\Tools\MSVC\14.29.30133\atlmfc\include\afxcmn2.inl

; 117  : 	{ ASSERT(::IsWindow(m_hWnd)); return (DWORD) ::SendMessage(m_hWnd, LVM_SETEXTENDEDLISTVIEWSTYLE, 0, (LPARAM) dwNewStyle); }

  00015	6a 00		 push	 0
  00017	68 36 10 00 00	 push	 4150			; 00001036H
  0001c	ff b6 e0 02 00
	00		 push	 DWORD PTR [esi+736]
  00022	ff 15 00 00 00
	00		 call	 DWORD PTR __imp__SendMessageA@16
; File C:\Program Files (x86)\Microsoft Visual Studio\2019\Community\VC\Tools\MSVC\14.29.30133\atlmfc\include\afxwin2.inl

; 84   : 	{ ASSERT(::IsWindow(m_hWnd)); ::GetWindowRect(m_hWnd, lpRect); }

  00028	8d 45 ec	 lea	 eax, DWORD PTR _rc$[ebp]
  0002b	0f 57 c0	 xorps	 xmm0, xmm0
  0002e	50		 push	 eax
  0002f	ff b6 e0 02 00
	00		 push	 DWORD PTR [esi+736]
; File C:\Program Files (x86)\Microsoft Visual Studio\2019\Community\VC\Tools\MSVC\14.29.30133\atlmfc\include\atltypes.h

; 528  : 	left = 0;

  00035	0f 11 45 ec	 movups	 XMMWORD PTR _rc$[ebp], xmm0
; File C:\Program Files (x86)\Microsoft Visual Studio\2019\Community\VC\Tools\MSVC\14.29.30133\atlmfc\include\afxwin2.inl

; 84   : 	{ ASSERT(::IsWindow(m_hWnd)); ::GetWindowRect(m_hWnd, lpRect); }

  00039	ff 15 00 00 00
	00		 call	 DWORD PTR __imp__GetWindowRect@8
; File D:\git\src\IBK\IBK_DRFN\ProjSrc\SrcChartEx\ChartAddIn\ChartDesignPropertyAddIn\ChartDesignPropertyAddIn\RealPacketPage.cpp

; 131  : 	m_lsAdviseList.InsertColumn(0,"Chart Packet",LVCFMT_LEFT, 100);							

  0003f	6a ff		 push	 -1
  00041	6a 64		 push	 100			; 00000064H
  00043	6a 00		 push	 0
  00045	68 00 00 00 00	 push	 OFFSET ??_C@_0N@DOMKEPNC@Chart?5Packet@
  0004a	81 c6 c0 02 00
	00		 add	 esi, 704		; 000002c0H
  00050	6a 00		 push	 0
  00052	8b ce		 mov	 ecx, esi
  00054	e8 00 00 00 00	 call	 ?InsertColumn@CListCtrl@@QAEHHPBDHHH@Z ; CListCtrl::InsertColumn
; File C:\Program Files (x86)\Microsoft Visual Studio\2019\Community\VC\Tools\MSVC\14.29.30133\atlmfc\include\atltypes.h

; 576  : 	return right - left;

  00059	8b 45 f4	 mov	 eax, DWORD PTR _rc$[ebp+8]
; File D:\git\src\IBK\IBK_DRFN\ProjSrc\SrcChartEx\ChartAddIn\ChartDesignPropertyAddIn\ChartDesignPropertyAddIn\RealPacketPage.cpp

; 132  : 	m_lsAdviseList.InsertColumn(1,"Packet Name ",LVCFMT_LEFT, rc.Width()/4);    // Packet Name

  0005c	8b ce		 mov	 ecx, esi
; File C:\Program Files (x86)\Microsoft Visual Studio\2019\Community\VC\Tools\MSVC\14.29.30133\atlmfc\include\atltypes.h

; 576  : 	return right - left;

  0005e	2b 45 ec	 sub	 eax, DWORD PTR _rc$[ebp]
; File D:\git\src\IBK\IBK_DRFN\ProjSrc\SrcChartEx\ChartAddIn\ChartDesignPropertyAddIn\ChartDesignPropertyAddIn\RealPacketPage.cpp

; 132  : 	m_lsAdviseList.InsertColumn(1,"Packet Name ",LVCFMT_LEFT, rc.Width()/4);    // Packet Name

  00061	99		 cdq
  00062	83 e2 03	 and	 edx, 3
  00065	6a ff		 push	 -1
  00067	03 c2		 add	 eax, edx
  00069	c1 f8 02	 sar	 eax, 2
  0006c	50		 push	 eax
  0006d	6a 00		 push	 0
  0006f	68 00 00 00 00	 push	 OFFSET ??_C@_0N@NIEAPEJO@Packet?5Name?5@
  00074	6a 01		 push	 1
  00076	e8 00 00 00 00	 call	 ?InsertColumn@CListCtrl@@QAEHHPBDHHH@Z ; CListCtrl::InsertColumn

; 133  : 	m_lsAdviseList.InsertColumn(2,"Field Name",LVCFMT_LEFT, 100);				// Field Name

  0007b	6a ff		 push	 -1
  0007d	6a 64		 push	 100			; 00000064H
  0007f	6a 00		 push	 0
  00081	68 00 00 00 00	 push	 OFFSET ??_C@_0L@FCEOBPAF@Field?5Name@
  00086	6a 02		 push	 2
  00088	8b ce		 mov	 ecx, esi
  0008a	e8 00 00 00 00	 call	 ?InsertColumn@CListCtrl@@QAEHHPBDHHH@Z ; CListCtrl::InsertColumn

; 134  : 	m_lsAdviseList.InsertColumn(3,"Key Name",LVCFMT_LEFT, 100 );		// Set

  0008f	6a ff		 push	 -1
  00091	6a 64		 push	 100			; 00000064H
  00093	6a 00		 push	 0
  00095	68 00 00 00 00	 push	 OFFSET ??_C@_08JPLKPJEF@Key?5Name@
  0009a	6a 03		 push	 3
  0009c	8b ce		 mov	 ecx, esi
  0009e	e8 00 00 00 00	 call	 ?InsertColumn@CListCtrl@@QAEHHPBDHHH@Z ; CListCtrl::InsertColumn

; 135  : }

  000a3	8b 4d fc	 mov	 ecx, DWORD PTR __$ArrayPad$[ebp]
  000a6	33 cd		 xor	 ecx, ebp
  000a8	5e		 pop	 esi
  000a9	e8 00 00 00 00	 call	 @__security_check_cookie@4
  000ae	8b e5		 mov	 esp, ebp
  000b0	5d		 pop	 ebp
  000b1	c3		 ret	 0
?InitList@CRealPacketPage@@AAEXXZ ENDP			; CRealPacketPage::InitList
_TEXT	ENDS
; Function compile flags: /Ogtp
; File D:\git\src\IBK\IBK_DRFN\ProjSrc\SrcChartEx\ChartAddIn\ChartDesignPropertyAddIn\ChartDesignPropertyAddIn\RealPacketPage.cpp
; File C:\Program Files (x86)\Microsoft Visual Studio\2019\Community\VC\Tools\MSVC\14.29.30133\atlmfc\include\afxcmn.inl
; File D:\git\src\IBK\IBK_DRFN\ProjSrc\SrcChartEx\ChartAddIn\ChartDesignPropertyAddIn\ChartDesignPropertyAddIn\RealPacketPage.cpp
; File C:\Program Files (x86)\Microsoft Visual Studio\2019\Community\VC\Tools\MSVC\14.29.30133\atlmfc\include\afxcmn.inl
; File D:\git\src\IBK\IBK_DRFN\ProjSrc\SrcChartEx\ChartAddIn\ChartDesignPropertyAddIn\ChartDesignPropertyAddIn\RealPacketPage.cpp
; File C:\Program Files (x86)\Microsoft Visual Studio\2019\Community\VC\Tools\MSVC\14.29.30133\atlmfc\include\afxcmn.inl
; File D:\git\src\IBK\IBK_DRFN\ProjSrc\SrcChartEx\ChartAddIn\ChartDesignPropertyAddIn\ChartDesignPropertyAddIn\RealPacketPage.cpp
;	COMDAT ?GetSelectItem@CRealPacketPage@@AAEHXZ
_TEXT	SEGMENT
?GetSelectItem@CRealPacketPage@@AAEHXZ PROC		; CRealPacketPage::GetSelectItem, COMDAT
; _this$ = ecx

; 308  : {

  00000	57		 push	 edi
; File C:\Program Files (x86)\Microsoft Visual Studio\2019\Community\VC\Tools\MSVC\14.29.30133\atlmfc\include\afxcmn.inl

; 177  : 	{ ASSERT(::IsWindow(m_hWnd)); return (int) ::SendMessage(m_hWnd, LVM_GETNEXTITEM, nItem, MAKELPARAM(nFlags, 0)); }

  00001	6a 02		 push	 2
; File D:\git\src\IBK\IBK_DRFN\ProjSrc\SrcChartEx\ChartAddIn\ChartDesignPropertyAddIn\ChartDesignPropertyAddIn\RealPacketPage.cpp

; 308  : {

  00003	8b f9		 mov	 edi, ecx
; File C:\Program Files (x86)\Microsoft Visual Studio\2019\Community\VC\Tools\MSVC\14.29.30133\atlmfc\include\afxcmn.inl

; 177  : 	{ ASSERT(::IsWindow(m_hWnd)); return (int) ::SendMessage(m_hWnd, LVM_GETNEXTITEM, nItem, MAKELPARAM(nFlags, 0)); }

  00005	6a ff		 push	 -1
  00007	68 0c 10 00 00	 push	 4108			; 0000100cH
  0000c	ff b7 e0 02 00
	00		 push	 DWORD PTR [edi+736]
  00012	ff 15 00 00 00
	00		 call	 DWORD PTR __imp__SendMessageA@16

; 179  : 	{ ASSERT(::IsWindow(m_hWnd)); return (POSITION)(DWORD_PTR)(1+GetNextItem(-1, LVIS_SELECTED)); }

  00018	83 c0 01	 add	 eax, 1
; File D:\git\src\IBK\IBK_DRFN\ProjSrc\SrcChartEx\ChartAddIn\ChartDesignPropertyAddIn\ChartDesignPropertyAddIn\RealPacketPage.cpp

; 310  : 	if(pos) 

  0001b	74 1d		 je	 SHORT $LN2@GetSelectI
; File C:\Program Files (x86)\Microsoft Visual Studio\2019\Community\VC\Tools\MSVC\14.29.30133\atlmfc\include\afxcmn.inl

; 181  : 	{ ASSERT(::IsWindow(m_hWnd)); DWORD_PTR nOldPos = (DWORD_PTR)pos-1; pos = (POSITION)(DWORD_PTR)(1+GetNextItem((UINT)nOldPos, LVIS_SELECTED)); return (UINT)nOldPos; }

  0001d	56		 push	 esi

; 177  : 	{ ASSERT(::IsWindow(m_hWnd)); return (int) ::SendMessage(m_hWnd, LVM_GETNEXTITEM, nItem, MAKELPARAM(nFlags, 0)); }

  0001e	6a 02		 push	 2

; 181  : 	{ ASSERT(::IsWindow(m_hWnd)); DWORD_PTR nOldPos = (DWORD_PTR)pos-1; pos = (POSITION)(DWORD_PTR)(1+GetNextItem((UINT)nOldPos, LVIS_SELECTED)); return (UINT)nOldPos; }

  00020	8d 70 ff	 lea	 esi, DWORD PTR [eax-1]

; 177  : 	{ ASSERT(::IsWindow(m_hWnd)); return (int) ::SendMessage(m_hWnd, LVM_GETNEXTITEM, nItem, MAKELPARAM(nFlags, 0)); }

  00023	56		 push	 esi
  00024	68 0c 10 00 00	 push	 4108			; 0000100cH
  00029	ff b7 e0 02 00
	00		 push	 DWORD PTR [edi+736]
  0002f	ff 15 00 00 00
	00		 call	 DWORD PTR __imp__SendMessageA@16
; File D:\git\src\IBK\IBK_DRFN\ProjSrc\SrcChartEx\ChartAddIn\ChartDesignPropertyAddIn\ChartDesignPropertyAddIn\RealPacketPage.cpp

; 313  : 		return nItem;

  00035	8b c6		 mov	 eax, esi
  00037	5e		 pop	 esi
  00038	5f		 pop	 edi

; 316  : }

  00039	c3		 ret	 0
$LN2@GetSelectI:

; 314  : 	}
; 315  : 	return -1;

  0003a	83 c8 ff	 or	 eax, -1
  0003d	5f		 pop	 edi

; 316  : }

  0003e	c3		 ret	 0
?GetSelectItem@CRealPacketPage@@AAEHXZ ENDP		; CRealPacketPage::GetSelectItem
_TEXT	ENDS
; Function compile flags: /Ogtp
; File D:\git\src\IBK\IBK_DRFN\ProjSrc\SrcChartEx\ChartAddIn\ChartDesignPropertyAddIn\ChartDesignPropertyAddIn\RealPacketPage.cpp
; File C:\Program Files (x86)\Microsoft Visual Studio\2019\Community\VC\Tools\MSVC\14.29.30133\atlmfc\include\afxwin2.inl
; File D:\git\src\IBK\IBK_DRFN\ProjSrc\SrcChartEx\ChartAddIn\ChartDesignPropertyAddIn\ChartDesignPropertyAddIn\RealPacketPage.cpp
; File C:\Program Files (x86)\Microsoft Visual Studio\2019\Community\VC\Tools\MSVC\14.29.30133\atlmfc\include\afxwin2.inl
; File D:\git\src\IBK\IBK_DRFN\ProjSrc\SrcChartEx\ChartAddIn\ChartDesignPropertyAddIn\ChartDesignPropertyAddIn\RealPacketPage.cpp
; File C:\Program Files (x86)\Microsoft Visual Studio\2019\Community\VC\Tools\MSVC\14.29.30133\atlmfc\include\atlsimpstr.h
; File D:\git\src\IBK\IBK_DRFN\ProjSrc\SrcChartEx\ChartAddIn\ChartDesignPropertyAddIn\ChartDesignPropertyAddIn\RealPacketPage.cpp
; File C:\Program Files (x86)\Microsoft Visual Studio\2019\Community\VC\Tools\MSVC\14.29.30133\atlmfc\include\atlsimpstr.h
; File D:\git\src\IBK\IBK_DRFN\ProjSrc\SrcChartEx\ChartAddIn\ChartDesignPropertyAddIn\ChartDesignPropertyAddIn\RealPacketPage.cpp
; File C:\Program Files (x86)\Microsoft Visual Studio\2019\Community\VC\Tools\MSVC\14.29.30133\atlmfc\include\atlsimpstr.h
; File D:\git\src\IBK\IBK_DRFN\ProjSrc\SrcChartEx\ChartAddIn\ChartDesignPropertyAddIn\ChartDesignPropertyAddIn\RealPacketPage.cpp
; File C:\Program Files (x86)\Microsoft Visual Studio\2019\Community\VC\Tools\MSVC\14.29.30133\atlmfc\include\afxwin2.inl
; File D:\git\src\IBK\IBK_DRFN\ProjSrc\SrcChartEx\ChartAddIn\ChartDesignPropertyAddIn\ChartDesignPropertyAddIn\RealPacketPage.cpp
; File C:\Program Files (x86)\Microsoft Visual Studio\2019\Community\VC\Tools\MSVC\14.29.30133\atlmfc\include\afxwin2.inl
; File D:\git\src\IBK\IBK_DRFN\ProjSrc\SrcChartEx\ChartAddIn\ChartDesignPropertyAddIn\ChartDesignPropertyAddIn\RealPacketPage.cpp
; File C:\Program Files (x86)\Microsoft Visual Studio\2019\Community\VC\Tools\MSVC\14.29.30133\atlmfc\include\afxwin2.inl
; File D:\git\src\IBK\IBK_DRFN\ProjSrc\SrcChartEx\ChartAddIn\ChartDesignPropertyAddIn\ChartDesignPropertyAddIn\RealPacketPage.cpp
;	COMDAT ?InitSharedListCombo@CRealPacketPage@@AAEHPAVCComboBox@@V?$CStringT@DV?$StrTraitMFC_DLL@DV?$ChTraitsCRT@D@ATL@@@@@ATL@@@Z
_TEXT	SEGMENT
$T2 = -28						; size = 4
$T3 = -24						; size = 4
$T4 = -20						; size = 4
_szShareName$ = -16					; size = 4
__$EHRec$ = -12						; size = 12
_aTmp$ = 8						; size = 2
_pCombo$ = 8						; size = 4
_szSharedList$ = 12					; size = 4
?InitSharedListCombo@CRealPacketPage@@AAEHPAVCComboBox@@V?$CStringT@DV?$StrTraitMFC_DLL@DV?$ChTraitsCRT@D@ATL@@@@@ATL@@@Z PROC ; CRealPacketPage::InitSharedListCombo, COMDAT
; _this$ = ecx

; 181  : {

  00000	55		 push	 ebp
  00001	8b ec		 mov	 ebp, esp
  00003	6a ff		 push	 -1
  00005	68 00 00 00 00	 push	 __ehhandler$?InitSharedListCombo@CRealPacketPage@@AAEHPAVCComboBox@@V?$CStringT@DV?$StrTraitMFC_DLL@DV?$ChTraitsCRT@D@ATL@@@@@ATL@@@Z
  0000a	64 a1 00 00 00
	00		 mov	 eax, DWORD PTR fs:0
  00010	50		 push	 eax
  00011	83 ec 10	 sub	 esp, 16			; 00000010H
  00014	53		 push	 ebx
  00015	56		 push	 esi
  00016	57		 push	 edi
  00017	a1 00 00 00 00	 mov	 eax, DWORD PTR ___security_cookie
  0001c	33 c5		 xor	 eax, ebp
  0001e	50		 push	 eax
  0001f	8d 45 f4	 lea	 eax, DWORD PTR __$EHRec$[ebp]
  00022	64 a3 00 00 00
	00		 mov	 DWORD PTR fs:0, eax
; File C:\Program Files (x86)\Microsoft Visual Studio\2019\Community\VC\Tools\MSVC\14.29.30133\atlmfc\include\afxwin2.inl

; 801  : 	{ ASSERT(::IsWindow(m_hWnd)); ::SendMessage(m_hWnd, CB_RESETCONTENT, 0, 0); }

  00028	8b 5d 08	 mov	 ebx, DWORD PTR _pCombo$[ebp]
  0002b	6a 00		 push	 0
  0002d	6a 00		 push	 0
  0002f	68 4b 01 00 00	 push	 331			; 0000014bH
  00034	ff 73 20	 push	 DWORD PTR [ebx+32]
; File D:\git\src\IBK\IBK_DRFN\ProjSrc\SrcChartEx\ChartAddIn\ChartDesignPropertyAddIn\ChartDesignPropertyAddIn\RealPacketPage.cpp

; 181  : {

  00037	c7 45 fc 00 00
	00 00		 mov	 DWORD PTR __$EHRec$[ebp+8], 0
; File C:\Program Files (x86)\Microsoft Visual Studio\2019\Community\VC\Tools\MSVC\14.29.30133\atlmfc\include\afxwin2.inl

; 801  : 	{ ASSERT(::IsWindow(m_hWnd)); ::SendMessage(m_hWnd, CB_RESETCONTENT, 0, 0); }

  0003e	ff 15 00 00 00
	00		 call	 DWORD PTR __imp__SendMessageA@16
; File D:\git\src\IBK\IBK_DRFN\ProjSrc\SrcChartEx\ChartAddIn\ChartDesignPropertyAddIn\ChartDesignPropertyAddIn\RealPacketPage.cpp

; 183  : 	szSharedList.TrimRight();

  00044	8d 4d 0c	 lea	 ecx, DWORD PTR _szSharedList$[ebp]
  00047	ff 15 00 00 00
	00		 call	 DWORD PTR __imp_?TrimRight@?$CStringT@DV?$StrTraitMFC_DLL@DV?$ChTraitsCRT@D@ATL@@@@@ATL@@QAEAAV12@XZ
; File C:\Program Files (x86)\Microsoft Visual Studio\2019\Community\VC\Tools\MSVC\14.29.30133\atlmfc\include\atlsimpstr.h

; 519  : 		return( GetData()->nDataLength );

  0004d	8b 45 0c	 mov	 eax, DWORD PTR _szSharedList$[ebp]
; File D:\git\src\IBK\IBK_DRFN\ProjSrc\SrcChartEx\ChartAddIn\ChartDesignPropertyAddIn\ChartDesignPropertyAddIn\RealPacketPage.cpp

; 184  : 	if(szSharedList.GetLength()==0)		return 0;

  00050	83 78 f4 00	 cmp	 DWORD PTR [eax-12], 0
  00054	75 07		 jne	 SHORT $LN4@InitShared
  00056	33 ff		 xor	 edi, edi
  00058	e9 4c 01 00 00	 jmp	 $LN16@InitShared
$LN4@InitShared:

; 185  : 
; 186  : 	szSharedList += ";";

  0005d	68 00 00 00 00	 push	 OFFSET ??_C@_01ICJEACDI@?$DL@
  00062	8d 4d 0c	 lea	 ecx, DWORD PTR _szSharedList$[ebp]
  00065	ff 15 00 00 00
	00		 call	 DWORD PTR __imp_??Y?$CStringT@DV?$StrTraitMFC_DLL@DV?$ChTraitsCRT@D@ATL@@@@@ATL@@QAEAAV01@PBD@Z

; 187  : 	int nIndex = szSharedList.Find(";");

  0006b	6a 00		 push	 0
  0006d	68 00 00 00 00	 push	 OFFSET ??_C@_01ICJEACDI@?$DL@
  00072	8d 4d 0c	 lea	 ecx, DWORD PTR _szSharedList$[ebp]
  00075	ff 15 00 00 00
	00		 call	 DWORD PTR __imp_?Find@?$CStringT@DV?$StrTraitMFC_DLL@DV?$ChTraitsCRT@D@ATL@@@@@ATL@@QBEHPBDH@Z

; 188  : 	CString szShareName;

  0007b	8d 4d f0	 lea	 ecx, DWORD PTR _szShareName$[ebp]
  0007e	8b f0		 mov	 esi, eax
  00080	ff 15 00 00 00
	00		 call	 DWORD PTR __imp_??0?$CStringT@DV?$StrTraitMFC_DLL@DV?$ChTraitsCRT@D@ATL@@@@@ATL@@QAE@XZ

; 189  : 	BOOL   bGet, bSet, bStart;
; 190  : 	char   aTmp[2]={0,};

  00086	33 c0		 xor	 eax, eax
  00088	c6 45 fc 01	 mov	 BYTE PTR __$EHRec$[ebp+8], 1

; 191  : 	int		nLen, nCnt=0, nTmp;

  0008c	33 ff		 xor	 edi, edi
  0008e	66 89 45 08	 mov	 WORD PTR _aTmp$[ebp], ax

; 192  : 
; 193  : 	while(nIndex>0)

  00092	85 f6		 test	 esi, esi
  00094	0f 8e f4 00 00
	00		 jle	 $LN3@InitShared
  0009a	66 0f 1f 44 00
	00		 npad	 6
$LL2@InitShared:

; 194  : 	{
; 195  : 		bGet = bSet = bStart = FALSE;
; 196  : 		szShareName = szSharedList.Left(nIndex);

  000a0	56		 push	 esi
  000a1	8d 45 ec	 lea	 eax, DWORD PTR $T4[ebp]
  000a4	50		 push	 eax
  000a5	8d 4d 0c	 lea	 ecx, DWORD PTR _szSharedList$[ebp]
  000a8	ff 15 00 00 00
	00		 call	 DWORD PTR __imp_?Left@?$CStringT@DV?$StrTraitMFC_DLL@DV?$ChTraitsCRT@D@ATL@@@@@ATL@@QBE?AV12@H@Z
  000ae	50		 push	 eax
  000af	8d 4d f0	 lea	 ecx, DWORD PTR _szShareName$[ebp]
  000b2	c6 45 fc 02	 mov	 BYTE PTR __$EHRec$[ebp+8], 2
  000b6	ff 15 00 00 00
	00		 call	 DWORD PTR __imp_??4?$CStringT@DV?$StrTraitMFC_DLL@DV?$ChTraitsCRT@D@ATL@@@@@ATL@@QAEAAV01@ABV01@@Z
  000bc	8d 4d ec	 lea	 ecx, DWORD PTR $T4[ebp]
  000bf	c6 45 fc 01	 mov	 BYTE PTR __$EHRec$[ebp+8], 1
  000c3	ff 15 00 00 00
	00		 call	 DWORD PTR __imp_??1?$CStringT@DV?$StrTraitMFC_DLL@DV?$ChTraitsCRT@D@ATL@@@@@ATL@@QAE@XZ

; 197  : 		szSharedList = szSharedList.Mid(nIndex+1);

  000c9	46		 inc	 esi
  000ca	8d 45 e8	 lea	 eax, DWORD PTR $T3[ebp]
  000cd	56		 push	 esi
  000ce	50		 push	 eax
  000cf	8d 4d 0c	 lea	 ecx, DWORD PTR _szSharedList$[ebp]
  000d2	ff 15 00 00 00
	00		 call	 DWORD PTR __imp_?Mid@?$CStringT@DV?$StrTraitMFC_DLL@DV?$ChTraitsCRT@D@ATL@@@@@ATL@@QBE?AV12@H@Z
  000d8	50		 push	 eax
  000d9	8d 4d 0c	 lea	 ecx, DWORD PTR _szSharedList$[ebp]
  000dc	c6 45 fc 03	 mov	 BYTE PTR __$EHRec$[ebp+8], 3
  000e0	ff 15 00 00 00
	00		 call	 DWORD PTR __imp_??4?$CStringT@DV?$StrTraitMFC_DLL@DV?$ChTraitsCRT@D@ATL@@@@@ATL@@QAEAAV01@ABV01@@Z
  000e6	8d 4d e8	 lea	 ecx, DWORD PTR $T3[ebp]
  000e9	c6 45 fc 01	 mov	 BYTE PTR __$EHRec$[ebp+8], 1
  000ed	ff 15 00 00 00
	00		 call	 DWORD PTR __imp_??1?$CStringT@DV?$StrTraitMFC_DLL@DV?$ChTraitsCRT@D@ATL@@@@@ATL@@QAE@XZ
; File C:\Program Files (x86)\Microsoft Visual Studio\2019\Community\VC\Tools\MSVC\14.29.30133\atlmfc\include\atlsimpstr.h

; 519  : 		return( GetData()->nDataLength );

  000f3	8b 45 f0	 mov	 eax, DWORD PTR _szShareName$[ebp]
; File D:\git\src\IBK\IBK_DRFN\ProjSrc\SrcChartEx\ChartAddIn\ChartDesignPropertyAddIn\ChartDesignPropertyAddIn\RealPacketPage.cpp

; 200  : 		aTmp[0] = szShareName[nLen-1];

  000f6	8d 4d f0	 lea	 ecx, DWORD PTR _szShareName$[ebp]
; File C:\Program Files (x86)\Microsoft Visual Studio\2019\Community\VC\Tools\MSVC\14.29.30133\atlmfc\include\atlsimpstr.h

; 519  : 		return( GetData()->nDataLength );

  000f9	8b 70 f4	 mov	 esi, DWORD PTR [eax-12]
; File D:\git\src\IBK\IBK_DRFN\ProjSrc\SrcChartEx\ChartAddIn\ChartDesignPropertyAddIn\ChartDesignPropertyAddIn\RealPacketPage.cpp

; 200  : 		aTmp[0] = szShareName[nLen-1];

  000fc	4e		 dec	 esi
  000fd	56		 push	 esi
  000fe	ff 15 00 00 00
	00		 call	 DWORD PTR __imp_??A?$CSimpleStringT@D$00@ATL@@QBEDH@Z
  00104	88 45 08	 mov	 BYTE PTR _aTmp$[ebp], al

; 201  : 		szShareName = szShareName.Left(nLen-1);

  00107	8d 4d f0	 lea	 ecx, DWORD PTR _szShareName$[ebp]
  0010a	56		 push	 esi
  0010b	8d 45 e4	 lea	 eax, DWORD PTR $T2[ebp]
  0010e	50		 push	 eax
  0010f	ff 15 00 00 00
	00		 call	 DWORD PTR __imp_?Left@?$CStringT@DV?$StrTraitMFC_DLL@DV?$ChTraitsCRT@D@ATL@@@@@ATL@@QBE?AV12@H@Z
  00115	50		 push	 eax
  00116	8d 4d f0	 lea	 ecx, DWORD PTR _szShareName$[ebp]
  00119	c6 45 fc 04	 mov	 BYTE PTR __$EHRec$[ebp+8], 4
  0011d	ff 15 00 00 00
	00		 call	 DWORD PTR __imp_??4?$CStringT@DV?$StrTraitMFC_DLL@DV?$ChTraitsCRT@D@ATL@@@@@ATL@@QAEAAV01@ABV01@@Z
  00123	8d 4d e4	 lea	 ecx, DWORD PTR $T2[ebp]
  00126	c6 45 fc 01	 mov	 BYTE PTR __$EHRec$[ebp+8], 1
  0012a	ff 15 00 00 00
	00		 call	 DWORD PTR __imp_??1?$CStringT@DV?$StrTraitMFC_DLL@DV?$ChTraitsCRT@D@ATL@@@@@ATL@@QAE@XZ

; 202  : 
; 203  : 		nTmp = atoi(aTmp);

  00130	8d 45 08	 lea	 eax, DWORD PTR _aTmp$[ebp]
  00133	50		 push	 eax
  00134	ff 15 00 00 00
	00		 call	 DWORD PTR __imp__atoi

; 204  : 		if(nTmp & 1) bStart = TRUE;

  0013a	8b c8		 mov	 ecx, eax
  0013c	83 c4 04	 add	 esp, 4
  0013f	83 e1 01	 and	 ecx, 1

; 205  : 		if(nTmp & 4) bGet=TRUE;

  00142	a8 04		 test	 al, 4
  00144	75 04		 jne	 SHORT $LN8@InitShared

; 206  : 
; 207  : 		if(bGet || bStart)

  00146	85 c9		 test	 ecx, ecx
  00148	74 29		 je	 SHORT $LN9@InitShared
$LN8@InitShared:
; File C:\Program Files (x86)\Microsoft Visual Studio\2019\Community\VC\Tools\MSVC\14.29.30133\atlmfc\include\afxwin2.inl

; 805  : 	{ ASSERT(::IsWindow(m_hWnd)); return (int)::SendMessage(m_hWnd, CB_FINDSTRING, nStartAfter,

  0014a	ff 75 f0	 push	 DWORD PTR _szShareName$[ebp]
  0014d	8b 35 00 00 00
	00		 mov	 esi, DWORD PTR __imp__SendMessageA@16
  00153	6a 00		 push	 0
  00155	68 4c 01 00 00	 push	 332			; 0000014cH
  0015a	ff 73 20	 push	 DWORD PTR [ebx+32]
  0015d	ff d6		 call	 esi
; File D:\git\src\IBK\IBK_DRFN\ProjSrc\SrcChartEx\ChartAddIn\ChartDesignPropertyAddIn\ChartDesignPropertyAddIn\RealPacketPage.cpp

; 210  : 			if((nIndex=pCombo->FindString(nIndex, szShareName)) == LB_ERR)

  0015f	83 f8 ff	 cmp	 eax, -1
  00162	75 0f		 jne	 SHORT $LN9@InitShared
; File C:\Program Files (x86)\Microsoft Visual Studio\2019\Community\VC\Tools\MSVC\14.29.30133\atlmfc\include\afxwin2.inl

; 795  : 	{ ASSERT(::IsWindow(m_hWnd)); return (int)::SendMessage(m_hWnd, CB_ADDSTRING, 0, (LPARAM)lpszString); }

  00164	ff 75 f0	 push	 DWORD PTR _szShareName$[ebp]
  00167	6a 00		 push	 0
  00169	68 43 01 00 00	 push	 323			; 00000143H
  0016e	ff 73 20	 push	 DWORD PTR [ebx+32]
  00171	ff d6		 call	 esi
$LN9@InitShared:
; File D:\git\src\IBK\IBK_DRFN\ProjSrc\SrcChartEx\ChartAddIn\ChartDesignPropertyAddIn\ChartDesignPropertyAddIn\RealPacketPage.cpp

; 217  : 		nIndex = szSharedList.Find(";");

  00173	6a 00		 push	 0
  00175	68 00 00 00 00	 push	 OFFSET ??_C@_01ICJEACDI@?$DL@
  0017a	8d 4d 0c	 lea	 ecx, DWORD PTR _szSharedList$[ebp]
  0017d	47		 inc	 edi
  0017e	ff 15 00 00 00
	00		 call	 DWORD PTR __imp_?Find@?$CStringT@DV?$StrTraitMFC_DLL@DV?$ChTraitsCRT@D@ATL@@@@@ATL@@QBEHPBDH@Z
  00184	8b f0		 mov	 esi, eax
  00186	85 f6		 test	 esi, esi
  00188	0f 8f 12 ff ff
	ff		 jg	 $LL2@InitShared
$LN3@InitShared:
; File C:\Program Files (x86)\Microsoft Visual Studio\2019\Community\VC\Tools\MSVC\14.29.30133\atlmfc\include\afxwin2.inl

; 767  : 	{ ASSERT(::IsWindow(m_hWnd)); return (int)::SendMessage(m_hWnd, CB_SETCURSEL, nSelect, 0); }

  0018e	6a 00		 push	 0
  00190	6a 00		 push	 0
  00192	68 4e 01 00 00	 push	 334			; 0000014eH
  00197	ff 73 20	 push	 DWORD PTR [ebx+32]
  0019a	ff 15 00 00 00
	00		 call	 DWORD PTR __imp__SendMessageA@16
; File D:\git\src\IBK\IBK_DRFN\ProjSrc\SrcChartEx\ChartAddIn\ChartDesignPropertyAddIn\ChartDesignPropertyAddIn\RealPacketPage.cpp

; 221  : 	return nCnt;

  001a0	8d 4d f0	 lea	 ecx, DWORD PTR _szShareName$[ebp]
  001a3	ff 15 00 00 00
	00		 call	 DWORD PTR __imp_??1?$CStringT@DV?$StrTraitMFC_DLL@DV?$ChTraitsCRT@D@ATL@@@@@ATL@@QAE@XZ
$LN16@InitShared:
  001a9	8d 4d 0c	 lea	 ecx, DWORD PTR _szSharedList$[ebp]
  001ac	ff 15 00 00 00
	00		 call	 DWORD PTR __imp_??1?$CStringT@DV?$StrTraitMFC_DLL@DV?$ChTraitsCRT@D@ATL@@@@@ATL@@QAE@XZ
  001b2	8b c7		 mov	 eax, edi

; 222  : }

  001b4	8b 4d f4	 mov	 ecx, DWORD PTR __$EHRec$[ebp]
  001b7	64 89 0d 00 00
	00 00		 mov	 DWORD PTR fs:0, ecx
  001be	59		 pop	 ecx
  001bf	5f		 pop	 edi
  001c0	5e		 pop	 esi
  001c1	5b		 pop	 ebx
  001c2	8b e5		 mov	 esp, ebp
  001c4	5d		 pop	 ebp
  001c5	c2 08 00	 ret	 8
_TEXT	ENDS
;	COMDAT text$x
text$x	SEGMENT
__unwindfunclet$?InitSharedListCombo@CRealPacketPage@@AAEHPAVCComboBox@@V?$CStringT@DV?$StrTraitMFC_DLL@DV?$ChTraitsCRT@D@ATL@@@@@ATL@@@Z$0:
  00000	8d 4d 0c	 lea	 ecx, DWORD PTR _szSharedList$[ebp]
  00003	ff 25 00 00 00
	00		 jmp	 DWORD PTR __imp_??1?$CStringT@DV?$StrTraitMFC_DLL@DV?$ChTraitsCRT@D@ATL@@@@@ATL@@QAE@XZ
__unwindfunclet$?InitSharedListCombo@CRealPacketPage@@AAEHPAVCComboBox@@V?$CStringT@DV?$StrTraitMFC_DLL@DV?$ChTraitsCRT@D@ATL@@@@@ATL@@@Z$1:
  00009	8d 4d f0	 lea	 ecx, DWORD PTR _szShareName$[ebp]
  0000c	ff 25 00 00 00
	00		 jmp	 DWORD PTR __imp_??1?$CStringT@DV?$StrTraitMFC_DLL@DV?$ChTraitsCRT@D@ATL@@@@@ATL@@QAE@XZ
__unwindfunclet$?InitSharedListCombo@CRealPacketPage@@AAEHPAVCComboBox@@V?$CStringT@DV?$StrTraitMFC_DLL@DV?$ChTraitsCRT@D@ATL@@@@@ATL@@@Z$2:
  00012	8d 4d ec	 lea	 ecx, DWORD PTR $T4[ebp]
  00015	ff 25 00 00 00
	00		 jmp	 DWORD PTR __imp_??1?$CStringT@DV?$StrTraitMFC_DLL@DV?$ChTraitsCRT@D@ATL@@@@@ATL@@QAE@XZ
__unwindfunclet$?InitSharedListCombo@CRealPacketPage@@AAEHPAVCComboBox@@V?$CStringT@DV?$StrTraitMFC_DLL@DV?$ChTraitsCRT@D@ATL@@@@@ATL@@@Z$3:
  0001b	8d 4d e8	 lea	 ecx, DWORD PTR $T3[ebp]
  0001e	ff 25 00 00 00
	00		 jmp	 DWORD PTR __imp_??1?$CStringT@DV?$StrTraitMFC_DLL@DV?$ChTraitsCRT@D@ATL@@@@@ATL@@QAE@XZ
__unwindfunclet$?InitSharedListCombo@CRealPacketPage@@AAEHPAVCComboBox@@V?$CStringT@DV?$StrTraitMFC_DLL@DV?$ChTraitsCRT@D@ATL@@@@@ATL@@@Z$4:
  00024	8d 4d e4	 lea	 ecx, DWORD PTR $T2[ebp]
  00027	ff 25 00 00 00
	00		 jmp	 DWORD PTR __imp_??1?$CStringT@DV?$StrTraitMFC_DLL@DV?$ChTraitsCRT@D@ATL@@@@@ATL@@QAE@XZ
  0002d	cc		 int	 3
  0002e	cc		 int	 3
  0002f	cc		 int	 3
  00030	cc		 int	 3
  00031	cc		 int	 3
__ehhandler$?InitSharedListCombo@CRealPacketPage@@AAEHPAVCComboBox@@V?$CStringT@DV?$StrTraitMFC_DLL@DV?$ChTraitsCRT@D@ATL@@@@@ATL@@@Z:
  00032	90		 npad	 1
  00033	90		 npad	 1
  00034	8b 54 24 08	 mov	 edx, DWORD PTR [esp+8]
  00038	8d 42 0c	 lea	 eax, DWORD PTR [edx+12]
  0003b	8b 4a e0	 mov	 ecx, DWORD PTR [edx-32]
  0003e	33 c8		 xor	 ecx, eax
  00040	e8 00 00 00 00	 call	 @__security_check_cookie@4
  00045	b8 00 00 00 00	 mov	 eax, OFFSET __ehfuncinfo$?InitSharedListCombo@CRealPacketPage@@AAEHPAVCComboBox@@V?$CStringT@DV?$StrTraitMFC_DLL@DV?$ChTraitsCRT@D@ATL@@@@@ATL@@@Z
  0004a	e9 00 00 00 00	 jmp	 ___CxxFrameHandler3
text$x	ENDS
?InitSharedListCombo@CRealPacketPage@@AAEHPAVCComboBox@@V?$CStringT@DV?$StrTraitMFC_DLL@DV?$ChTraitsCRT@D@ATL@@@@@ATL@@@Z ENDP ; CRealPacketPage::InitSharedListCombo
; Function compile flags: /Ogtp
; File D:\git\src\IBK\IBK_DRFN\ProjSrc\SrcChartEx\ChartAddIn\ChartDesignPropertyAddIn\ChartDesignPropertyAddIn\RealPacketPage.cpp
; File C:\Program Files (x86)\Microsoft Visual Studio\2019\Community\VC\Tools\MSVC\14.29.30133\atlmfc\include\afxcmn.inl
; File D:\git\src\IBK\IBK_DRFN\ProjSrc\SrcChartEx\ChartAddIn\ChartDesignPropertyAddIn\ChartDesignPropertyAddIn\RealPacketPage.cpp
; File C:\Program Files (x86)\Microsoft Visual Studio\2019\Community\VC\Tools\MSVC\14.29.30133\atlmfc\include\afxcmn.inl
; File D:\git\src\IBK\IBK_DRFN\ProjSrc\SrcChartEx\ChartAddIn\ChartDesignPropertyAddIn\ChartDesignPropertyAddIn\RealPacketPage.cpp
;	COMDAT ?MakeRealList@CRealPacketPage@@AAEXXZ
_TEXT	SEGMENT
_this$1$ = -60						; size = 4
$T2 = -56						; size = 4
$T3 = -52						; size = 4
$T4 = -48						; size = 4
$T5 = -44						; size = 4
_szChartPacket$ = -40					; size = 4
_szPacket$ = -36					; size = 4
_szField$ = -32						; size = 4
_szKey$ = -28						; size = 4
_szText$ = -24						; size = 4
_szTmp$6 = -20						; size = 4
_szList$ = -16						; size = 4
__$EHRec$ = -12						; size = 12
?MakeRealList@CRealPacketPage@@AAEXXZ PROC		; CRealPacketPage::MakeRealList, COMDAT
; _this$ = ecx

; 226  : {

  00000	55		 push	 ebp
  00001	8b ec		 mov	 ebp, esp
  00003	6a ff		 push	 -1
  00005	68 00 00 00 00	 push	 __ehhandler$?MakeRealList@CRealPacketPage@@AAEXXZ
  0000a	64 a1 00 00 00
	00		 mov	 eax, DWORD PTR fs:0
  00010	50		 push	 eax
  00011	83 ec 30	 sub	 esp, 48			; 00000030H
  00014	53		 push	 ebx
  00015	56		 push	 esi
  00016	57		 push	 edi
  00017	a1 00 00 00 00	 mov	 eax, DWORD PTR ___security_cookie
  0001c	33 c5		 xor	 eax, ebp
  0001e	50		 push	 eax
  0001f	8d 45 f4	 lea	 eax, DWORD PTR __$EHRec$[ebp]
  00022	64 a3 00 00 00
	00		 mov	 DWORD PTR fs:0, eax
  00028	8b f1		 mov	 esi, ecx
  0002a	89 75 c4	 mov	 DWORD PTR _this$1$[ebp], esi

; 227  : 	CString szList;

  0002d	8d 4d f0	 lea	 ecx, DWORD PTR _szList$[ebp]
  00030	ff 15 00 00 00
	00		 call	 DWORD PTR __imp_??0?$CStringT@DV?$StrTraitMFC_DLL@DV?$ChTraitsCRT@D@ATL@@@@@ATL@@QAE@XZ

; 228  : 	CString szChartPacket, szPacket, szField, szKey;

  00036	8d 4d d8	 lea	 ecx, DWORD PTR _szChartPacket$[ebp]
  00039	c7 45 fc 00 00
	00 00		 mov	 DWORD PTR __$EHRec$[ebp+8], 0
  00040	ff 15 00 00 00
	00		 call	 DWORD PTR __imp_??0?$CStringT@DV?$StrTraitMFC_DLL@DV?$ChTraitsCRT@D@ATL@@@@@ATL@@QAE@XZ
  00046	8d 4d dc	 lea	 ecx, DWORD PTR _szPacket$[ebp]
  00049	ff 15 00 00 00
	00		 call	 DWORD PTR __imp_??0?$CStringT@DV?$StrTraitMFC_DLL@DV?$ChTraitsCRT@D@ATL@@@@@ATL@@QAE@XZ
  0004f	8d 4d e0	 lea	 ecx, DWORD PTR _szField$[ebp]
  00052	ff 15 00 00 00
	00		 call	 DWORD PTR __imp_??0?$CStringT@DV?$StrTraitMFC_DLL@DV?$ChTraitsCRT@D@ATL@@@@@ATL@@QAE@XZ
  00058	8d 4d e4	 lea	 ecx, DWORD PTR _szKey$[ebp]
  0005b	ff 15 00 00 00
	00		 call	 DWORD PTR __imp_??0?$CStringT@DV?$StrTraitMFC_DLL@DV?$ChTraitsCRT@D@ATL@@@@@ATL@@QAE@XZ
; File C:\Program Files (x86)\Microsoft Visual Studio\2019\Community\VC\Tools\MSVC\14.29.30133\atlmfc\include\afxcmn.inl

; 155  : 	{ ASSERT(::IsWindow(m_hWnd)); return (int) ::SendMessage(m_hWnd, LVM_GETITEMCOUNT, 0, 0L); }

  00061	6a 00		 push	 0
  00063	6a 00		 push	 0
  00065	68 04 10 00 00	 push	 4100			; 00001004H
  0006a	ff b6 e0 02 00
	00		 push	 DWORD PTR [esi+736]
; File D:\git\src\IBK\IBK_DRFN\ProjSrc\SrcChartEx\ChartAddIn\ChartDesignPropertyAddIn\ChartDesignPropertyAddIn\RealPacketPage.cpp

; 228  : 	CString szChartPacket, szPacket, szField, szKey;

  00070	c6 45 fc 04	 mov	 BYTE PTR __$EHRec$[ebp+8], 4
; File C:\Program Files (x86)\Microsoft Visual Studio\2019\Community\VC\Tools\MSVC\14.29.30133\atlmfc\include\afxcmn.inl

; 155  : 	{ ASSERT(::IsWindow(m_hWnd)); return (int) ::SendMessage(m_hWnd, LVM_GETITEMCOUNT, 0, 0L); }

  00074	ff 15 00 00 00
	00		 call	 DWORD PTR __imp__SendMessageA@16
; File D:\git\src\IBK\IBK_DRFN\ProjSrc\SrcChartEx\ChartAddIn\ChartDesignPropertyAddIn\ChartDesignPropertyAddIn\RealPacketPage.cpp

; 231  : 	for(int i=0; i < nCount; i++) {

  0007a	33 ff		 xor	 edi, edi
  0007c	85 c0		 test	 eax, eax
  0007e	0f 8e fd 00 00
	00		 jle	 $LN3@MakeRealLi
  00084	8d 9e c0 02 00
	00		 lea	 ebx, DWORD PTR [esi+704]
  0008a	8b f0		 mov	 esi, eax
  0008c	0f 1f 40 00	 npad	 4
$LL4@MakeRealLi:

; 232  : 		szChartPacket = m_lsAdviseList.GetItemText(i, 0);

  00090	6a 00		 push	 0
  00092	57		 push	 edi
  00093	8d 45 d4	 lea	 eax, DWORD PTR $T5[ebp]
  00096	8b cb		 mov	 ecx, ebx
  00098	50		 push	 eax
  00099	e8 00 00 00 00	 call	 ?GetItemText@CListCtrl@@QBE?AV?$CStringT@DV?$StrTraitMFC_DLL@DV?$ChTraitsCRT@D@ATL@@@@@ATL@@HH@Z ; CListCtrl::GetItemText
  0009e	50		 push	 eax
  0009f	8d 4d d8	 lea	 ecx, DWORD PTR _szChartPacket$[ebp]
  000a2	c6 45 fc 05	 mov	 BYTE PTR __$EHRec$[ebp+8], 5
  000a6	ff 15 00 00 00
	00		 call	 DWORD PTR __imp_??4?$CStringT@DV?$StrTraitMFC_DLL@DV?$ChTraitsCRT@D@ATL@@@@@ATL@@QAEAAV01@ABV01@@Z
  000ac	8d 4d d4	 lea	 ecx, DWORD PTR $T5[ebp]
  000af	c6 45 fc 04	 mov	 BYTE PTR __$EHRec$[ebp+8], 4
  000b3	ff 15 00 00 00
	00		 call	 DWORD PTR __imp_??1?$CStringT@DV?$StrTraitMFC_DLL@DV?$ChTraitsCRT@D@ATL@@@@@ATL@@QAE@XZ

; 233  : 		szPacket = m_lsAdviseList.GetItemText(i, 1);

  000b9	6a 01		 push	 1
  000bb	57		 push	 edi
  000bc	8d 45 d0	 lea	 eax, DWORD PTR $T4[ebp]
  000bf	8b cb		 mov	 ecx, ebx
  000c1	50		 push	 eax
  000c2	e8 00 00 00 00	 call	 ?GetItemText@CListCtrl@@QBE?AV?$CStringT@DV?$StrTraitMFC_DLL@DV?$ChTraitsCRT@D@ATL@@@@@ATL@@HH@Z ; CListCtrl::GetItemText
  000c7	50		 push	 eax
  000c8	8d 4d dc	 lea	 ecx, DWORD PTR _szPacket$[ebp]
  000cb	c6 45 fc 06	 mov	 BYTE PTR __$EHRec$[ebp+8], 6
  000cf	ff 15 00 00 00
	00		 call	 DWORD PTR __imp_??4?$CStringT@DV?$StrTraitMFC_DLL@DV?$ChTraitsCRT@D@ATL@@@@@ATL@@QAEAAV01@ABV01@@Z
  000d5	8d 4d d0	 lea	 ecx, DWORD PTR $T4[ebp]
  000d8	c6 45 fc 04	 mov	 BYTE PTR __$EHRec$[ebp+8], 4
  000dc	ff 15 00 00 00
	00		 call	 DWORD PTR __imp_??1?$CStringT@DV?$StrTraitMFC_DLL@DV?$ChTraitsCRT@D@ATL@@@@@ATL@@QAE@XZ

; 234  : 		szField = m_lsAdviseList.GetItemText(i, 2);

  000e2	6a 02		 push	 2
  000e4	57		 push	 edi
  000e5	8d 45 cc	 lea	 eax, DWORD PTR $T3[ebp]
  000e8	8b cb		 mov	 ecx, ebx
  000ea	50		 push	 eax
  000eb	e8 00 00 00 00	 call	 ?GetItemText@CListCtrl@@QBE?AV?$CStringT@DV?$StrTraitMFC_DLL@DV?$ChTraitsCRT@D@ATL@@@@@ATL@@HH@Z ; CListCtrl::GetItemText
  000f0	50		 push	 eax
  000f1	8d 4d e0	 lea	 ecx, DWORD PTR _szField$[ebp]
  000f4	c6 45 fc 07	 mov	 BYTE PTR __$EHRec$[ebp+8], 7
  000f8	ff 15 00 00 00
	00		 call	 DWORD PTR __imp_??4?$CStringT@DV?$StrTraitMFC_DLL@DV?$ChTraitsCRT@D@ATL@@@@@ATL@@QAEAAV01@ABV01@@Z
  000fe	8d 4d cc	 lea	 ecx, DWORD PTR $T3[ebp]
  00101	c6 45 fc 04	 mov	 BYTE PTR __$EHRec$[ebp+8], 4
  00105	ff 15 00 00 00
	00		 call	 DWORD PTR __imp_??1?$CStringT@DV?$StrTraitMFC_DLL@DV?$ChTraitsCRT@D@ATL@@@@@ATL@@QAE@XZ

; 235  : 		szKey = m_lsAdviseList.GetItemText(i, 3);

  0010b	6a 03		 push	 3
  0010d	57		 push	 edi
  0010e	8d 45 c8	 lea	 eax, DWORD PTR $T2[ebp]
  00111	8b cb		 mov	 ecx, ebx
  00113	50		 push	 eax
  00114	e8 00 00 00 00	 call	 ?GetItemText@CListCtrl@@QBE?AV?$CStringT@DV?$StrTraitMFC_DLL@DV?$ChTraitsCRT@D@ATL@@@@@ATL@@HH@Z ; CListCtrl::GetItemText
  00119	50		 push	 eax
  0011a	8d 4d e4	 lea	 ecx, DWORD PTR _szKey$[ebp]
  0011d	c6 45 fc 08	 mov	 BYTE PTR __$EHRec$[ebp+8], 8
  00121	ff 15 00 00 00
	00		 call	 DWORD PTR __imp_??4?$CStringT@DV?$StrTraitMFC_DLL@DV?$ChTraitsCRT@D@ATL@@@@@ATL@@QAEAAV01@ABV01@@Z
  00127	8d 4d c8	 lea	 ecx, DWORD PTR $T2[ebp]
  0012a	ff 15 00 00 00
	00		 call	 DWORD PTR __imp_??1?$CStringT@DV?$StrTraitMFC_DLL@DV?$ChTraitsCRT@D@ATL@@@@@ATL@@QAE@XZ

; 236  : 
; 237  : 		CString szTmp;

  00130	8d 4d ec	 lea	 ecx, DWORD PTR _szTmp$6[ebp]
  00133	ff 15 00 00 00
	00		 call	 DWORD PTR __imp_??0?$CStringT@DV?$StrTraitMFC_DLL@DV?$ChTraitsCRT@D@ATL@@@@@ATL@@QAE@XZ

; 238  : 		szTmp.Format("%s.%s.%s.%s;", szChartPacket, szPacket, szField, szKey);

  00139	ff 75 e4	 push	 DWORD PTR _szKey$[ebp]
  0013c	8d 45 ec	 lea	 eax, DWORD PTR _szTmp$6[ebp]
  0013f	c6 45 fc 09	 mov	 BYTE PTR __$EHRec$[ebp+8], 9
  00143	ff 75 e0	 push	 DWORD PTR _szField$[ebp]
  00146	ff 75 dc	 push	 DWORD PTR _szPacket$[ebp]
  00149	ff 75 d8	 push	 DWORD PTR _szChartPacket$[ebp]
  0014c	68 00 00 00 00	 push	 OFFSET ??_C@_0N@MGGJGPKC@?$CFs?4?$CFs?4?$CFs?4?$CFs?$DL@
  00151	50		 push	 eax
  00152	ff 15 00 00 00
	00		 call	 DWORD PTR __imp_?Format@?$CStringT@DV?$StrTraitMFC_DLL@DV?$ChTraitsCRT@D@ATL@@@@@ATL@@QAAXPBDZZ
  00158	83 c4 18	 add	 esp, 24			; 00000018H

; 239  : 		szList += szTmp;

  0015b	8d 45 ec	 lea	 eax, DWORD PTR _szTmp$6[ebp]
  0015e	8d 4d f0	 lea	 ecx, DWORD PTR _szList$[ebp]
  00161	50		 push	 eax
  00162	ff 15 00 00 00
	00		 call	 DWORD PTR __imp_??Y?$CStringT@DV?$StrTraitMFC_DLL@DV?$ChTraitsCRT@D@ATL@@@@@ATL@@QAEAAV01@ABV?$CSimpleStringT@D$00@1@@Z

; 240  : 	}

  00168	8d 4d ec	 lea	 ecx, DWORD PTR _szTmp$6[ebp]
  0016b	c6 45 fc 04	 mov	 BYTE PTR __$EHRec$[ebp+8], 4
  0016f	ff 15 00 00 00
	00		 call	 DWORD PTR __imp_??1?$CStringT@DV?$StrTraitMFC_DLL@DV?$ChTraitsCRT@D@ATL@@@@@ATL@@QAE@XZ
  00175	47		 inc	 edi
  00176	3b fe		 cmp	 edi, esi
  00178	0f 8c 12 ff ff
	ff		 jl	 $LL4@MakeRealLi
  0017e	8b 75 c4	 mov	 esi, DWORD PTR _this$1$[ebp]
$LN3@MakeRealLi:

; 241  : 
; 242  : 	CEdit* pEdit = (CEdit*)GetDlgItem(IDC_REAL_LIST);

  00181	68 e7 00 00 00	 push	 231			; 000000e7H
  00186	8b ce		 mov	 ecx, esi
  00188	e8 00 00 00 00	 call	 ?GetDlgItem@CWnd@@QBEPAV1@H@Z ; CWnd::GetDlgItem
  0018d	8b f8		 mov	 edi, eax

; 243  : 	if(!pEdit) return;

  0018f	85 ff		 test	 edi, edi
  00191	74 4e		 je	 SHORT $LN19@MakeRealLi

; 244  : 
; 245  : 	CString szText;

  00193	8d 4d e8	 lea	 ecx, DWORD PTR _szText$[ebp]
  00196	ff 15 00 00 00
	00		 call	 DWORD PTR __imp_??0?$CStringT@DV?$StrTraitMFC_DLL@DV?$ChTraitsCRT@D@ATL@@@@@ATL@@QAE@XZ

; 246  : 	pEdit->GetWindowText(szText);

  0019c	8d 45 e8	 lea	 eax, DWORD PTR _szText$[ebp]
  0019f	c6 45 fc 0a	 mov	 BYTE PTR __$EHRec$[ebp+8], 10 ; 0000000aH
  001a3	50		 push	 eax
  001a4	8b cf		 mov	 ecx, edi
  001a6	e8 00 00 00 00	 call	 ?GetWindowTextA@CWnd@@QBEXAAV?$CStringT@DV?$StrTraitMFC_DLL@DV?$ChTraitsCRT@D@ATL@@@@@ATL@@@Z ; CWnd::GetWindowTextA

; 247  : 
; 248  : 	if(szText.Compare(szList)) {

  001ab	ff 75 f0	 push	 DWORD PTR _szList$[ebp]
  001ae	8d 4d e8	 lea	 ecx, DWORD PTR _szText$[ebp]
  001b1	ff 15 00 00 00
	00		 call	 DWORD PTR __imp_?Compare@?$CStringT@DV?$StrTraitMFC_DLL@DV?$ChTraitsCRT@D@ATL@@@@@ATL@@QBEHPBD@Z
  001b7	85 c0		 test	 eax, eax
  001b9	74 1d		 je	 SHORT $LN6@MakeRealLi

; 249  : 		m_szRealList = szList;

  001bb	8d 45 f0	 lea	 eax, DWORD PTR _szList$[ebp]
  001be	50		 push	 eax
  001bf	8d 8e 44 03 00
	00		 lea	 ecx, DWORD PTR [esi+836]
  001c5	ff 15 00 00 00
	00		 call	 DWORD PTR __imp_??4?$CStringT@DV?$StrTraitMFC_DLL@DV?$ChTraitsCRT@D@ATL@@@@@ATL@@QAEAAV01@ABV01@@Z

; 250  : 		pEdit->SetWindowText(m_szRealList);

  001cb	ff b6 44 03 00
	00		 push	 DWORD PTR [esi+836]
  001d1	8b cf		 mov	 ecx, edi
  001d3	e8 00 00 00 00	 call	 ?SetWindowTextA@CWnd@@QAEXPBD@Z ; CWnd::SetWindowTextA
$LN6@MakeRealLi:

; 251  : 	}
; 252  : }

  001d8	8d 4d e8	 lea	 ecx, DWORD PTR _szText$[ebp]
  001db	ff 15 00 00 00
	00		 call	 DWORD PTR __imp_??1?$CStringT@DV?$StrTraitMFC_DLL@DV?$ChTraitsCRT@D@ATL@@@@@ATL@@QAE@XZ
$LN19@MakeRealLi:
  001e1	8d 4d e4	 lea	 ecx, DWORD PTR _szKey$[ebp]
  001e4	ff 15 00 00 00
	00		 call	 DWORD PTR __imp_??1?$CStringT@DV?$StrTraitMFC_DLL@DV?$ChTraitsCRT@D@ATL@@@@@ATL@@QAE@XZ
  001ea	8d 4d e0	 lea	 ecx, DWORD PTR _szField$[ebp]
  001ed	ff 15 00 00 00
	00		 call	 DWORD PTR __imp_??1?$CStringT@DV?$StrTraitMFC_DLL@DV?$ChTraitsCRT@D@ATL@@@@@ATL@@QAE@XZ
  001f3	8d 4d dc	 lea	 ecx, DWORD PTR _szPacket$[ebp]
  001f6	ff 15 00 00 00
	00		 call	 DWORD PTR __imp_??1?$CStringT@DV?$StrTraitMFC_DLL@DV?$ChTraitsCRT@D@ATL@@@@@ATL@@QAE@XZ
  001fc	8d 4d d8	 lea	 ecx, DWORD PTR _szChartPacket$[ebp]
  001ff	ff 15 00 00 00
	00		 call	 DWORD PTR __imp_??1?$CStringT@DV?$StrTraitMFC_DLL@DV?$ChTraitsCRT@D@ATL@@@@@ATL@@QAE@XZ
  00205	8d 4d f0	 lea	 ecx, DWORD PTR _szList$[ebp]
  00208	ff 15 00 00 00
	00		 call	 DWORD PTR __imp_??1?$CStringT@DV?$StrTraitMFC_DLL@DV?$ChTraitsCRT@D@ATL@@@@@ATL@@QAE@XZ
  0020e	8b 4d f4	 mov	 ecx, DWORD PTR __$EHRec$[ebp]
  00211	64 89 0d 00 00
	00 00		 mov	 DWORD PTR fs:0, ecx
  00218	59		 pop	 ecx
  00219	5f		 pop	 edi
  0021a	5e		 pop	 esi
  0021b	5b		 pop	 ebx
  0021c	8b e5		 mov	 esp, ebp
  0021e	5d		 pop	 ebp
  0021f	c3		 ret	 0
_TEXT	ENDS
;	COMDAT text$x
text$x	SEGMENT
__unwindfunclet$?MakeRealList@CRealPacketPage@@AAEXXZ$0:
  00000	8d 4d f0	 lea	 ecx, DWORD PTR _szList$[ebp]
  00003	ff 25 00 00 00
	00		 jmp	 DWORD PTR __imp_??1?$CStringT@DV?$StrTraitMFC_DLL@DV?$ChTraitsCRT@D@ATL@@@@@ATL@@QAE@XZ
__unwindfunclet$?MakeRealList@CRealPacketPage@@AAEXXZ$1:
  00009	8d 4d d8	 lea	 ecx, DWORD PTR _szChartPacket$[ebp]
  0000c	ff 25 00 00 00
	00		 jmp	 DWORD PTR __imp_??1?$CStringT@DV?$StrTraitMFC_DLL@DV?$ChTraitsCRT@D@ATL@@@@@ATL@@QAE@XZ
__unwindfunclet$?MakeRealList@CRealPacketPage@@AAEXXZ$2:
  00012	8d 4d dc	 lea	 ecx, DWORD PTR _szPacket$[ebp]
  00015	ff 25 00 00 00
	00		 jmp	 DWORD PTR __imp_??1?$CStringT@DV?$StrTraitMFC_DLL@DV?$ChTraitsCRT@D@ATL@@@@@ATL@@QAE@XZ
__unwindfunclet$?MakeRealList@CRealPacketPage@@AAEXXZ$3:
  0001b	8d 4d e0	 lea	 ecx, DWORD PTR _szField$[ebp]
  0001e	ff 25 00 00 00
	00		 jmp	 DWORD PTR __imp_??1?$CStringT@DV?$StrTraitMFC_DLL@DV?$ChTraitsCRT@D@ATL@@@@@ATL@@QAE@XZ
__unwindfunclet$?MakeRealList@CRealPacketPage@@AAEXXZ$4:
  00024	8d 4d e4	 lea	 ecx, DWORD PTR _szKey$[ebp]
  00027	ff 25 00 00 00
	00		 jmp	 DWORD PTR __imp_??1?$CStringT@DV?$StrTraitMFC_DLL@DV?$ChTraitsCRT@D@ATL@@@@@ATL@@QAE@XZ
__unwindfunclet$?MakeRealList@CRealPacketPage@@AAEXXZ$5:
  0002d	8d 4d d4	 lea	 ecx, DWORD PTR $T5[ebp]
  00030	ff 25 00 00 00
	00		 jmp	 DWORD PTR __imp_??1?$CStringT@DV?$StrTraitMFC_DLL@DV?$ChTraitsCRT@D@ATL@@@@@ATL@@QAE@XZ
__unwindfunclet$?MakeRealList@CRealPacketPage@@AAEXXZ$6:
  00036	8d 4d d0	 lea	 ecx, DWORD PTR $T4[ebp]
  00039	ff 25 00 00 00
	00		 jmp	 DWORD PTR __imp_??1?$CStringT@DV?$StrTraitMFC_DLL@DV?$ChTraitsCRT@D@ATL@@@@@ATL@@QAE@XZ
__unwindfunclet$?MakeRealList@CRealPacketPage@@AAEXXZ$7:
  0003f	8d 4d cc	 lea	 ecx, DWORD PTR $T3[ebp]
  00042	ff 25 00 00 00
	00		 jmp	 DWORD PTR __imp_??1?$CStringT@DV?$StrTraitMFC_DLL@DV?$ChTraitsCRT@D@ATL@@@@@ATL@@QAE@XZ
__unwindfunclet$?MakeRealList@CRealPacketPage@@AAEXXZ$8:
  00048	8d 4d c8	 lea	 ecx, DWORD PTR $T2[ebp]
  0004b	ff 25 00 00 00
	00		 jmp	 DWORD PTR __imp_??1?$CStringT@DV?$StrTraitMFC_DLL@DV?$ChTraitsCRT@D@ATL@@@@@ATL@@QAE@XZ
__unwindfunclet$?MakeRealList@CRealPacketPage@@AAEXXZ$9:
  00051	8d 4d ec	 lea	 ecx, DWORD PTR _szTmp$6[ebp]
  00054	ff 25 00 00 00
	00		 jmp	 DWORD PTR __imp_??1?$CStringT@DV?$StrTraitMFC_DLL@DV?$ChTraitsCRT@D@ATL@@@@@ATL@@QAE@XZ
__unwindfunclet$?MakeRealList@CRealPacketPage@@AAEXXZ$10:
  0005a	8d 4d e8	 lea	 ecx, DWORD PTR _szText$[ebp]
  0005d	ff 25 00 00 00
	00		 jmp	 DWORD PTR __imp_??1?$CStringT@DV?$StrTraitMFC_DLL@DV?$ChTraitsCRT@D@ATL@@@@@ATL@@QAE@XZ
  00063	cc		 int	 3
  00064	cc		 int	 3
  00065	cc		 int	 3
  00066	cc		 int	 3
  00067	cc		 int	 3
__ehhandler$?MakeRealList@CRealPacketPage@@AAEXXZ:
  00068	90		 npad	 1
  00069	90		 npad	 1
  0006a	8b 54 24 08	 mov	 edx, DWORD PTR [esp+8]
  0006e	8d 42 0c	 lea	 eax, DWORD PTR [edx+12]
  00071	8b 4a c0	 mov	 ecx, DWORD PTR [edx-64]
  00074	33 c8		 xor	 ecx, eax
  00076	e8 00 00 00 00	 call	 @__security_check_cookie@4
  0007b	b8 00 00 00 00	 mov	 eax, OFFSET __ehfuncinfo$?MakeRealList@CRealPacketPage@@AAEXXZ
  00080	e9 00 00 00 00	 jmp	 ___CxxFrameHandler3
text$x	ENDS
?MakeRealList@CRealPacketPage@@AAEXXZ ENDP		; CRealPacketPage::MakeRealList
; Function compile flags: /Ogtp
; File D:\git\src\IBK\IBK_DRFN\ProjSrc\SrcChartEx\ChartAddIn\ChartDesignPropertyAddIn\ChartDesignPropertyAddIn\RealPacketPage.cpp
;	COMDAT ?GetMessageMap@CRealPacketPage@@MBEPBUAFX_MSGMAP@@XZ
_TEXT	SEGMENT
?GetMessageMap@CRealPacketPage@@MBEPBUAFX_MSGMAP@@XZ PROC ; CRealPacketPage::GetMessageMap, COMDAT
; _this$ = ecx

; 74   : BEGIN_MESSAGE_MAP(CRealPacketPage, CPropertyPage)

  00000	b8 00 00 00 00	 mov	 eax, OFFSET ?messageMap@?1??GetThisMessageMap@CRealPacketPage@@KGPBUAFX_MSGMAP@@XZ@4U3@B
  00005	c3		 ret	 0
?GetMessageMap@CRealPacketPage@@MBEPBUAFX_MSGMAP@@XZ ENDP ; CRealPacketPage::GetMessageMap
_TEXT	ENDS
; Function compile flags: /Ogtp
; File D:\git\src\IBK\IBK_DRFN\ProjSrc\SrcChartEx\ChartAddIn\ChartDesignPropertyAddIn\ChartDesignPropertyAddIn\RealPacketPage.cpp
;	COMDAT ?GetThisMessageMap@CRealPacketPage@@KGPBUAFX_MSGMAP@@XZ
_TEXT	SEGMENT
?GetThisMessageMap@CRealPacketPage@@KGPBUAFX_MSGMAP@@XZ PROC ; CRealPacketPage::GetThisMessageMap, COMDAT

; 75   : 	//{{AFX_MSG_MAP(CRealPacketPage)
; 76   : 	ON_BN_CLICKED(IDC_BTN_ADD, OnBtnAdd)
; 77   : 	ON_BN_CLICKED(IDC_BTN_DEL, OnBtnDel)
; 78   : 	ON_CBN_SELCHANGE(IDC_CMB_SHAREDNAME, OnSelchangeCmbSharedname)
; 79   : 	ON_CBN_SELCHANGE(IDC_PACKET_TREE, OnSelchangePacketTree)
; 80   : 	ON_CBN_SELENDOK(IDC_PACKET_TREE, OnSelendokPacketTree)
; 81   : 	ON_CBN_SELCHANGE(IDC_COMBO_BASEPACKET, OnSelchangeComboBasepacket)
; 82   : 	ON_BN_CLICKED(IDC_BTN_EDIT, OnBtnEdit)
; 83   : 	//}}AFX_MSG_MAP
; 84   : END_MESSAGE_MAP()

  00000	b8 00 00 00 00	 mov	 eax, OFFSET ?messageMap@?1??GetThisMessageMap@CRealPacketPage@@KGPBUAFX_MSGMAP@@XZ@4U3@B
  00005	c3		 ret	 0
?GetThisMessageMap@CRealPacketPage@@KGPBUAFX_MSGMAP@@XZ ENDP ; CRealPacketPage::GetThisMessageMap
_TEXT	ENDS
; Function compile flags: /Ogtp
; File D:\git\src\IBK\IBK_DRFN\ProjSrc\SrcChartEx\ChartAddIn\ChartDesignPropertyAddIn\ChartDesignPropertyAddIn\RealPacketPage.cpp
; File C:\Program Files (x86)\Microsoft Visual Studio\2019\Community\VC\Tools\MSVC\14.29.30133\atlmfc\include\afxcmn.inl
; File D:\git\src\IBK\IBK_DRFN\ProjSrc\SrcChartEx\ChartAddIn\ChartDesignPropertyAddIn\ChartDesignPropertyAddIn\RealPacketPage.cpp
; File C:\Program Files (x86)\Microsoft Visual Studio\2019\Community\VC\Tools\MSVC\14.29.30133\atlmfc\include\afxcmn.inl
; File D:\git\src\IBK\IBK_DRFN\ProjSrc\SrcChartEx\ChartAddIn\ChartDesignPropertyAddIn\ChartDesignPropertyAddIn\RealPacketPage.cpp
; File C:\Program Files (x86)\Microsoft Visual Studio\2019\Community\VC\Tools\MSVC\14.29.30133\atlmfc\include\afxwin2.inl
; File D:\git\src\IBK\IBK_DRFN\ProjSrc\SrcChartEx\ChartAddIn\ChartDesignPropertyAddIn\ChartDesignPropertyAddIn\RealPacketPage.cpp
; File C:\Program Files (x86)\Microsoft Visual Studio\2019\Community\VC\Tools\MSVC\14.29.30133\atlmfc\include\afxwin2.inl
; File D:\git\src\IBK\IBK_DRFN\ProjSrc\SrcChartEx\ChartAddIn\ChartDesignPropertyAddIn\ChartDesignPropertyAddIn\RealPacketPage.cpp
; File C:\Program Files (x86)\Microsoft Visual Studio\2019\Community\VC\Tools\MSVC\14.29.30133\atlmfc\include\cstringt.h
; File D:\git\src\IBK\IBK_DRFN\ProjSrc\SrcChartEx\ChartAddIn\ChartDesignPropertyAddIn\ChartDesignPropertyAddIn\RealPacketPage.cpp
; File C:\Program Files (x86)\Microsoft Visual Studio\2019\Community\VC\Tools\MSVC\14.29.30133\atlmfc\include\cstringt.h
; File D:\git\src\IBK\IBK_DRFN\ProjSrc\SrcChartEx\ChartAddIn\ChartDesignPropertyAddIn\ChartDesignPropertyAddIn\RealPacketPage.cpp
; File C:\Program Files (x86)\Microsoft Visual Studio\2019\Community\VC\Tools\MSVC\14.29.30133\atlmfc\include\cstringt.h
; File D:\git\src\IBK\IBK_DRFN\ProjSrc\SrcChartEx\ChartAddIn\ChartDesignPropertyAddIn\ChartDesignPropertyAddIn\RealPacketPage.cpp
;	COMDAT ?OnBtnEdit@CRealPacketPage@@IAEXXZ
_TEXT	SEGMENT
_Field$ = -40						; size = 4
$T2 = -36						; size = 4
$T3 = -32						; size = 4
_Packet$ = -28						; size = 4
_ChartPacket$ = -24					; size = 4
_KeyName$ = -20						; size = 4
_szOneAdvise$ = -16					; size = 4
__$EHRec$ = -12						; size = 12
?OnBtnEdit@CRealPacketPage@@IAEXXZ PROC			; CRealPacketPage::OnBtnEdit, COMDAT
; _this$ = ecx

; 272  : {

  00000	55		 push	 ebp
  00001	8b ec		 mov	 ebp, esp
  00003	6a ff		 push	 -1
  00005	68 00 00 00 00	 push	 __ehhandler$?OnBtnEdit@CRealPacketPage@@IAEXXZ
  0000a	64 a1 00 00 00
	00		 mov	 eax, DWORD PTR fs:0
  00010	50		 push	 eax
  00011	83 ec 1c	 sub	 esp, 28			; 0000001cH
  00014	53		 push	 ebx
  00015	56		 push	 esi
  00016	57		 push	 edi
  00017	a1 00 00 00 00	 mov	 eax, DWORD PTR ___security_cookie
  0001c	33 c5		 xor	 eax, ebp
  0001e	50		 push	 eax
  0001f	8d 45 f4	 lea	 eax, DWORD PTR __$EHRec$[ebp]
  00022	64 a3 00 00 00
	00		 mov	 DWORD PTR fs:0, eax
  00028	8b f9		 mov	 edi, ecx
; File C:\Program Files (x86)\Microsoft Visual Studio\2019\Community\VC\Tools\MSVC\14.29.30133\atlmfc\include\afxcmn.inl

; 177  : 	{ ASSERT(::IsWindow(m_hWnd)); return (int) ::SendMessage(m_hWnd, LVM_GETNEXTITEM, nItem, MAKELPARAM(nFlags, 0)); }

  0002a	8b 35 00 00 00
	00		 mov	 esi, DWORD PTR __imp__SendMessageA@16
  00030	6a 02		 push	 2
  00032	6a ff		 push	 -1
  00034	68 0c 10 00 00	 push	 4108			; 0000100cH
  00039	ff b7 e0 02 00
	00		 push	 DWORD PTR [edi+736]
  0003f	ff d6		 call	 esi

; 179  : 	{ ASSERT(::IsWindow(m_hWnd)); return (POSITION)(DWORD_PTR)(1+GetNextItem(-1, LVIS_SELECTED)); }

  00041	83 c0 01	 add	 eax, 1
; File D:\git\src\IBK\IBK_DRFN\ProjSrc\SrcChartEx\ChartAddIn\ChartDesignPropertyAddIn\ChartDesignPropertyAddIn\RealPacketPage.cpp

; 310  : 	if(pos) 

  00044	0f 84 a6 01 00
	00		 je	 $LN1@OnBtnEdit
; File C:\Program Files (x86)\Microsoft Visual Studio\2019\Community\VC\Tools\MSVC\14.29.30133\atlmfc\include\afxcmn.inl

; 177  : 	{ ASSERT(::IsWindow(m_hWnd)); return (int) ::SendMessage(m_hWnd, LVM_GETNEXTITEM, nItem, MAKELPARAM(nFlags, 0)); }

  0004a	6a 02		 push	 2

; 181  : 	{ ASSERT(::IsWindow(m_hWnd)); DWORD_PTR nOldPos = (DWORD_PTR)pos-1; pos = (POSITION)(DWORD_PTR)(1+GetNextItem((UINT)nOldPos, LVIS_SELECTED)); return (UINT)nOldPos; }

  0004c	8d 58 ff	 lea	 ebx, DWORD PTR [eax-1]

; 177  : 	{ ASSERT(::IsWindow(m_hWnd)); return (int) ::SendMessage(m_hWnd, LVM_GETNEXTITEM, nItem, MAKELPARAM(nFlags, 0)); }

  0004f	53		 push	 ebx
  00050	68 0c 10 00 00	 push	 4108			; 0000100cH
  00055	ff b7 e0 02 00
	00		 push	 DWORD PTR [edi+736]
  0005b	ff d6		 call	 esi
; File D:\git\src\IBK\IBK_DRFN\ProjSrc\SrcChartEx\ChartAddIn\ChartDesignPropertyAddIn\ChartDesignPropertyAddIn\RealPacketPage.cpp

; 275  : 	if(nIndex < 0) return;

  0005d	85 db		 test	 ebx, ebx
  0005f	0f 88 8b 01 00
	00		 js	 $LN1@OnBtnEdit

; 276  : 
; 277  : 	CString ChartPacket, Packet, Field, KeyName;

  00065	8d 4d e8	 lea	 ecx, DWORD PTR _ChartPacket$[ebp]
  00068	ff 15 00 00 00
	00		 call	 DWORD PTR __imp_??0?$CStringT@DV?$StrTraitMFC_DLL@DV?$ChTraitsCRT@D@ATL@@@@@ATL@@QAE@XZ
  0006e	8d 4d e4	 lea	 ecx, DWORD PTR _Packet$[ebp]
  00071	c7 45 fc 00 00
	00 00		 mov	 DWORD PTR __$EHRec$[ebp+8], 0
  00078	ff 15 00 00 00
	00		 call	 DWORD PTR __imp_??0?$CStringT@DV?$StrTraitMFC_DLL@DV?$ChTraitsCRT@D@ATL@@@@@ATL@@QAE@XZ
  0007e	8d 4d d8	 lea	 ecx, DWORD PTR _Field$[ebp]
  00081	ff 15 00 00 00
	00		 call	 DWORD PTR __imp_??0?$CStringT@DV?$StrTraitMFC_DLL@DV?$ChTraitsCRT@D@ATL@@@@@ATL@@QAE@XZ
  00087	8d 4d ec	 lea	 ecx, DWORD PTR _KeyName$[ebp]
  0008a	ff 15 00 00 00
	00		 call	 DWORD PTR __imp_??0?$CStringT@DV?$StrTraitMFC_DLL@DV?$ChTraitsCRT@D@ATL@@@@@ATL@@QAE@XZ

; 278  : 	CString szOneAdvise = m_szOneAdvise;

  00090	8d 87 68 03 00
	00		 lea	 eax, DWORD PTR [edi+872]
  00096	c6 45 fc 03	 mov	 BYTE PTR __$EHRec$[ebp+8], 3
  0009a	50		 push	 eax
  0009b	8d 4d f0	 lea	 ecx, DWORD PTR _szOneAdvise$[ebp]
  0009e	ff 15 00 00 00
	00		 call	 DWORD PTR __imp_??0?$CStringT@DV?$StrTraitMFC_DLL@DV?$ChTraitsCRT@D@ATL@@@@@ATL@@QAE@ABV01@@Z

; 280  : 	m_comboPacketList.GetLBText(m_comboPacketList.GetCurSel(), ChartPacket);

  000a4	8d 45 e8	 lea	 eax, DWORD PTR _ChartPacket$[ebp]
  000a7	c6 45 fc 04	 mov	 BYTE PTR __$EHRec$[ebp+8], 4
  000ab	50		 push	 eax
; File C:\Program Files (x86)\Microsoft Visual Studio\2019\Community\VC\Tools\MSVC\14.29.30133\atlmfc\include\afxwin2.inl

; 765  : 	{ ASSERT(::IsWindow(m_hWnd)); return (int)::SendMessage(m_hWnd, CB_GETCURSEL, 0, 0); }

  000ac	6a 00		 push	 0
  000ae	6a 00		 push	 0
  000b0	68 47 01 00 00	 push	 327			; 00000147H
  000b5	ff b7 e0 00 00
	00		 push	 DWORD PTR [edi+224]
  000bb	ff d6		 call	 esi
; File D:\git\src\IBK\IBK_DRFN\ProjSrc\SrcChartEx\ChartAddIn\ChartDesignPropertyAddIn\ChartDesignPropertyAddIn\RealPacketPage.cpp

; 280  : 	m_comboPacketList.GetLBText(m_comboPacketList.GetCurSel(), ChartPacket);

  000bd	50		 push	 eax
  000be	8d 8f c0 00 00
	00		 lea	 ecx, DWORD PTR [edi+192]
  000c4	e8 00 00 00 00	 call	 ?GetLBText@CComboBox@@QBEXHAAV?$CStringT@DV?$StrTraitMFC_DLL@DV?$ChTraitsCRT@D@ATL@@@@@ATL@@@Z ; CComboBox::GetLBText

; 281  : 	m_cmbSharedName.GetLBText(m_cmbSharedName.GetCurSel(), KeyName);

  000c9	8d 45 ec	 lea	 eax, DWORD PTR _KeyName$[ebp]
  000cc	50		 push	 eax
; File C:\Program Files (x86)\Microsoft Visual Studio\2019\Community\VC\Tools\MSVC\14.29.30133\atlmfc\include\afxwin2.inl

; 765  : 	{ ASSERT(::IsWindow(m_hWnd)); return (int)::SendMessage(m_hWnd, CB_GETCURSEL, 0, 0); }

  000cd	6a 00		 push	 0
  000cf	6a 00		 push	 0
  000d1	68 47 01 00 00	 push	 327			; 00000147H
  000d6	ff b7 60 02 00
	00		 push	 DWORD PTR [edi+608]
  000dc	ff d6		 call	 esi
; File D:\git\src\IBK\IBK_DRFN\ProjSrc\SrcChartEx\ChartAddIn\ChartDesignPropertyAddIn\ChartDesignPropertyAddIn\RealPacketPage.cpp

; 281  : 	m_cmbSharedName.GetLBText(m_cmbSharedName.GetCurSel(), KeyName);

  000de	50		 push	 eax
  000df	8d 8f 40 02 00
	00		 lea	 ecx, DWORD PTR [edi+576]
  000e5	e8 00 00 00 00	 call	 ?GetLBText@CComboBox@@QBEXHAAV?$CStringT@DV?$StrTraitMFC_DLL@DV?$ChTraitsCRT@D@ATL@@@@@ATL@@@Z ; CComboBox::GetLBText
; File C:\Program Files (x86)\Microsoft Visual Studio\2019\Community\VC\Tools\MSVC\14.29.30133\atlmfc\include\cstringt.h

; 2486 : 		return(str1.Compare(psz2) == 0);

  000ea	68 00 00 00 00	 push	 OFFSET ??_C@_00CNPNBAHC@@
  000ef	8d 4d f0	 lea	 ecx, DWORD PTR _szOneAdvise$[ebp]
  000f2	ff 15 00 00 00
	00		 call	 DWORD PTR __imp_?Compare@?$CStringT@DV?$StrTraitMFC_DLL@DV?$ChTraitsCRT@D@ATL@@@@@ATL@@QBEHPBD@Z
  000f8	85 c0		 test	 eax, eax
; File D:\git\src\IBK\IBK_DRFN\ProjSrc\SrcChartEx\ChartAddIn\ChartDesignPropertyAddIn\ChartDesignPropertyAddIn\RealPacketPage.cpp

; 283  : 	if(szOneAdvise == "" || ChartPacket == "" || KeyName == "")

  000fa	0f 84 c3 00 00
	00		 je	 $LN4@OnBtnEdit
; File C:\Program Files (x86)\Microsoft Visual Studio\2019\Community\VC\Tools\MSVC\14.29.30133\atlmfc\include\cstringt.h

; 2486 : 		return(str1.Compare(psz2) == 0);

  00100	68 00 00 00 00	 push	 OFFSET ??_C@_00CNPNBAHC@@
  00105	8d 4d e8	 lea	 ecx, DWORD PTR _ChartPacket$[ebp]
  00108	ff 15 00 00 00
	00		 call	 DWORD PTR __imp_?Compare@?$CStringT@DV?$StrTraitMFC_DLL@DV?$ChTraitsCRT@D@ATL@@@@@ATL@@QBEHPBD@Z
  0010e	85 c0		 test	 eax, eax
; File D:\git\src\IBK\IBK_DRFN\ProjSrc\SrcChartEx\ChartAddIn\ChartDesignPropertyAddIn\ChartDesignPropertyAddIn\RealPacketPage.cpp

; 283  : 	if(szOneAdvise == "" || ChartPacket == "" || KeyName == "")

  00110	0f 84 ad 00 00
	00		 je	 $LN4@OnBtnEdit
; File C:\Program Files (x86)\Microsoft Visual Studio\2019\Community\VC\Tools\MSVC\14.29.30133\atlmfc\include\cstringt.h

; 2486 : 		return(str1.Compare(psz2) == 0);

  00116	68 00 00 00 00	 push	 OFFSET ??_C@_00CNPNBAHC@@
  0011b	8d 4d ec	 lea	 ecx, DWORD PTR _KeyName$[ebp]
  0011e	ff 15 00 00 00
	00		 call	 DWORD PTR __imp_?Compare@?$CStringT@DV?$StrTraitMFC_DLL@DV?$ChTraitsCRT@D@ATL@@@@@ATL@@QBEHPBD@Z
  00124	85 c0		 test	 eax, eax
; File D:\git\src\IBK\IBK_DRFN\ProjSrc\SrcChartEx\ChartAddIn\ChartDesignPropertyAddIn\ChartDesignPropertyAddIn\RealPacketPage.cpp

; 283  : 	if(szOneAdvise == "" || ChartPacket == "" || KeyName == "")

  00126	0f 84 97 00 00
	00		 je	 $LN4@OnBtnEdit

; 284  : 		return;
; 285  : 
; 286  : 	Packet = CDataConversion::GetStringData(szOneAdvise, ".");

  0012c	68 00 00 00 00	 push	 OFFSET ??_C@_01LFCBOECM@?4@
  00131	8d 4d e0	 lea	 ecx, DWORD PTR $T3[ebp]
  00134	ff 15 00 00 00
	00		 call	 DWORD PTR __imp_??0?$CStringT@DV?$StrTraitMFC_DLL@DV?$ChTraitsCRT@D@ATL@@@@@ATL@@QAE@PBD@Z
  0013a	6a 01		 push	 1
  0013c	8d 45 e0	 lea	 eax, DWORD PTR $T3[ebp]
  0013f	c6 45 fc 05	 mov	 BYTE PTR __$EHRec$[ebp+8], 5
  00143	50		 push	 eax
  00144	8d 45 f0	 lea	 eax, DWORD PTR _szOneAdvise$[ebp]
  00147	50		 push	 eax
  00148	8d 45 dc	 lea	 eax, DWORD PTR $T2[ebp]
  0014b	50		 push	 eax
  0014c	e8 00 00 00 00	 call	 ?GetStringData@CDataConversion@@SA?AV?$CStringT@DV?$StrTraitMFC_DLL@DV?$ChTraitsCRT@D@ATL@@@@@ATL@@AAV23@ABV23@_N@Z ; CDataConversion::GetStringData
  00151	83 c4 10	 add	 esp, 16			; 00000010H
  00154	50		 push	 eax
  00155	8d 4d e4	 lea	 ecx, DWORD PTR _Packet$[ebp]
  00158	c6 45 fc 06	 mov	 BYTE PTR __$EHRec$[ebp+8], 6
  0015c	ff 15 00 00 00
	00		 call	 DWORD PTR __imp_??4?$CStringT@DV?$StrTraitMFC_DLL@DV?$ChTraitsCRT@D@ATL@@@@@ATL@@QAEAAV01@ABV01@@Z
  00162	8d 4d dc	 lea	 ecx, DWORD PTR $T2[ebp]
  00165	ff 15 00 00 00
	00		 call	 DWORD PTR __imp_??1?$CStringT@DV?$StrTraitMFC_DLL@DV?$ChTraitsCRT@D@ATL@@@@@ATL@@QAE@XZ
  0016b	8d 4d e0	 lea	 ecx, DWORD PTR $T3[ebp]
  0016e	c6 45 fc 04	 mov	 BYTE PTR __$EHRec$[ebp+8], 4
  00172	ff 15 00 00 00
	00		 call	 DWORD PTR __imp_??1?$CStringT@DV?$StrTraitMFC_DLL@DV?$ChTraitsCRT@D@ATL@@@@@ATL@@QAE@XZ

; 287  : 	
; 288  : 	m_lsAdviseList.SetItemText(nIndex, 0, ChartPacket);

  00178	ff 75 e8	 push	 DWORD PTR _ChartPacket$[ebp]
  0017b	8d 8f c0 02 00
	00		 lea	 ecx, DWORD PTR [edi+704]
  00181	6a 00		 push	 0
  00183	53		 push	 ebx
  00184	e8 00 00 00 00	 call	 ?SetItemText@CListCtrl@@QAEHHHPBD@Z ; CListCtrl::SetItemText

; 289  : 	m_lsAdviseList.SetItemText(nIndex, 1, Packet);

  00189	ff 75 e4	 push	 DWORD PTR _Packet$[ebp]
  0018c	8d 8f c0 02 00
	00		 lea	 ecx, DWORD PTR [edi+704]
  00192	6a 01		 push	 1
  00194	53		 push	 ebx
  00195	e8 00 00 00 00	 call	 ?SetItemText@CListCtrl@@QAEHHHPBD@Z ; CListCtrl::SetItemText

; 290  : 	m_lsAdviseList.SetItemText(nIndex, 2, szOneAdvise);

  0019a	ff 75 f0	 push	 DWORD PTR _szOneAdvise$[ebp]
  0019d	8d 8f c0 02 00
	00		 lea	 ecx, DWORD PTR [edi+704]
  001a3	6a 02		 push	 2
  001a5	53		 push	 ebx
  001a6	e8 00 00 00 00	 call	 ?SetItemText@CListCtrl@@QAEHHHPBD@Z ; CListCtrl::SetItemText

; 291  : 	m_lsAdviseList.SetItemText(nIndex, 3, KeyName);

  001ab	ff 75 ec	 push	 DWORD PTR _KeyName$[ebp]
  001ae	8d 8f c0 02 00
	00		 lea	 ecx, DWORD PTR [edi+704]
  001b4	6a 03		 push	 3
  001b6	53		 push	 ebx
  001b7	e8 00 00 00 00	 call	 ?SetItemText@CListCtrl@@QAEHHHPBD@Z ; CListCtrl::SetItemText

; 292  : 
; 293  : 	MakeRealList();

  001bc	8b cf		 mov	 ecx, edi
  001be	e8 00 00 00 00	 call	 ?MakeRealList@CRealPacketPage@@AAEXXZ ; CRealPacketPage::MakeRealList
$LN4@OnBtnEdit:

; 294  : }

  001c3	8d 4d f0	 lea	 ecx, DWORD PTR _szOneAdvise$[ebp]
  001c6	ff 15 00 00 00
	00		 call	 DWORD PTR __imp_??1?$CStringT@DV?$StrTraitMFC_DLL@DV?$ChTraitsCRT@D@ATL@@@@@ATL@@QAE@XZ
  001cc	8d 4d ec	 lea	 ecx, DWORD PTR _KeyName$[ebp]
  001cf	ff 15 00 00 00
	00		 call	 DWORD PTR __imp_??1?$CStringT@DV?$StrTraitMFC_DLL@DV?$ChTraitsCRT@D@ATL@@@@@ATL@@QAE@XZ
  001d5	8d 4d d8	 lea	 ecx, DWORD PTR _Field$[ebp]
  001d8	ff 15 00 00 00
	00		 call	 DWORD PTR __imp_??1?$CStringT@DV?$StrTraitMFC_DLL@DV?$ChTraitsCRT@D@ATL@@@@@ATL@@QAE@XZ
  001de	8d 4d e4	 lea	 ecx, DWORD PTR _Packet$[ebp]
  001e1	ff 15 00 00 00
	00		 call	 DWORD PTR __imp_??1?$CStringT@DV?$StrTraitMFC_DLL@DV?$ChTraitsCRT@D@ATL@@@@@ATL@@QAE@XZ
  001e7	8d 4d e8	 lea	 ecx, DWORD PTR _ChartPacket$[ebp]
  001ea	ff 15 00 00 00
	00		 call	 DWORD PTR __imp_??1?$CStringT@DV?$StrTraitMFC_DLL@DV?$ChTraitsCRT@D@ATL@@@@@ATL@@QAE@XZ
$LN1@OnBtnEdit:
  001f0	8b 4d f4	 mov	 ecx, DWORD PTR __$EHRec$[ebp]
  001f3	64 89 0d 00 00
	00 00		 mov	 DWORD PTR fs:0, ecx
  001fa	59		 pop	 ecx
  001fb	5f		 pop	 edi
  001fc	5e		 pop	 esi
  001fd	5b		 pop	 ebx
  001fe	8b e5		 mov	 esp, ebp
  00200	5d		 pop	 ebp
  00201	c3		 ret	 0
_TEXT	ENDS
;	COMDAT text$x
text$x	SEGMENT
__unwindfunclet$?OnBtnEdit@CRealPacketPage@@IAEXXZ$0:
  00000	8d 4d e8	 lea	 ecx, DWORD PTR _ChartPacket$[ebp]
  00003	ff 25 00 00 00
	00		 jmp	 DWORD PTR __imp_??1?$CStringT@DV?$StrTraitMFC_DLL@DV?$ChTraitsCRT@D@ATL@@@@@ATL@@QAE@XZ
__unwindfunclet$?OnBtnEdit@CRealPacketPage@@IAEXXZ$1:
  00009	8d 4d e4	 lea	 ecx, DWORD PTR _Packet$[ebp]
  0000c	ff 25 00 00 00
	00		 jmp	 DWORD PTR __imp_??1?$CStringT@DV?$StrTraitMFC_DLL@DV?$ChTraitsCRT@D@ATL@@@@@ATL@@QAE@XZ
__unwindfunclet$?OnBtnEdit@CRealPacketPage@@IAEXXZ$2:
  00012	8d 4d d8	 lea	 ecx, DWORD PTR _Field$[ebp]
  00015	ff 25 00 00 00
	00		 jmp	 DWORD PTR __imp_??1?$CStringT@DV?$StrTraitMFC_DLL@DV?$ChTraitsCRT@D@ATL@@@@@ATL@@QAE@XZ
__unwindfunclet$?OnBtnEdit@CRealPacketPage@@IAEXXZ$3:
  0001b	8d 4d ec	 lea	 ecx, DWORD PTR _KeyName$[ebp]
  0001e	ff 25 00 00 00
	00		 jmp	 DWORD PTR __imp_??1?$CStringT@DV?$StrTraitMFC_DLL@DV?$ChTraitsCRT@D@ATL@@@@@ATL@@QAE@XZ
__unwindfunclet$?OnBtnEdit@CRealPacketPage@@IAEXXZ$4:
  00024	8d 4d f0	 lea	 ecx, DWORD PTR _szOneAdvise$[ebp]
  00027	ff 25 00 00 00
	00		 jmp	 DWORD PTR __imp_??1?$CStringT@DV?$StrTraitMFC_DLL@DV?$ChTraitsCRT@D@ATL@@@@@ATL@@QAE@XZ
__unwindfunclet$?OnBtnEdit@CRealPacketPage@@IAEXXZ$5:
  0002d	8d 4d e0	 lea	 ecx, DWORD PTR $T3[ebp]
  00030	ff 25 00 00 00
	00		 jmp	 DWORD PTR __imp_??1?$CStringT@DV?$StrTraitMFC_DLL@DV?$ChTraitsCRT@D@ATL@@@@@ATL@@QAE@XZ
__unwindfunclet$?OnBtnEdit@CRealPacketPage@@IAEXXZ$6:
  00036	8d 4d dc	 lea	 ecx, DWORD PTR $T2[ebp]
  00039	ff 25 00 00 00
	00		 jmp	 DWORD PTR __imp_??1?$CStringT@DV?$StrTraitMFC_DLL@DV?$ChTraitsCRT@D@ATL@@@@@ATL@@QAE@XZ
  0003f	cc		 int	 3
  00040	cc		 int	 3
  00041	cc		 int	 3
  00042	cc		 int	 3
  00043	cc		 int	 3
__ehhandler$?OnBtnEdit@CRealPacketPage@@IAEXXZ:
  00044	90		 npad	 1
  00045	90		 npad	 1
  00046	8b 54 24 08	 mov	 edx, DWORD PTR [esp+8]
  0004a	8d 42 0c	 lea	 eax, DWORD PTR [edx+12]
  0004d	8b 4a d4	 mov	 ecx, DWORD PTR [edx-44]
  00050	33 c8		 xor	 ecx, eax
  00052	e8 00 00 00 00	 call	 @__security_check_cookie@4
  00057	b8 00 00 00 00	 mov	 eax, OFFSET __ehfuncinfo$?OnBtnEdit@CRealPacketPage@@IAEXXZ
  0005c	e9 00 00 00 00	 jmp	 ___CxxFrameHandler3
text$x	ENDS
?OnBtnEdit@CRealPacketPage@@IAEXXZ ENDP			; CRealPacketPage::OnBtnEdit
; Function compile flags: /Ogtp
; File D:\git\src\IBK\IBK_DRFN\ProjSrc\SrcChartEx\ChartAddIn\ChartDesignPropertyAddIn\ChartDesignPropertyAddIn\RealPacketPage.cpp
; File C:\Program Files (x86)\Microsoft Visual Studio\2019\Community\VC\Tools\MSVC\14.29.30133\atlmfc\include\afxwin2.inl
; File D:\git\src\IBK\IBK_DRFN\ProjSrc\SrcChartEx\ChartAddIn\ChartDesignPropertyAddIn\ChartDesignPropertyAddIn\RealPacketPage.cpp
;	COMDAT ?OnSelchangeComboBasepacket@CRealPacketPage@@IAEXXZ
_TEXT	SEGMENT
?OnSelchangeComboBasepacket@CRealPacketPage@@IAEXXZ PROC ; CRealPacketPage::OnSelchangeComboBasepacket, COMDAT
; _this$ = ecx

; 426  : {

  00000	56		 push	 esi
  00001	57		 push	 edi
  00002	8b f1		 mov	 esi, ecx

; 427  : 	m_comboBasePacket.GetLBText(m_comboBasePacket.GetCurSel(), m_szBasePacketName);

  00004	8d be b0 05 00
	00		 lea	 edi, DWORD PTR [esi+1456]
  0000a	57		 push	 edi
; File C:\Program Files (x86)\Microsoft Visual Studio\2019\Community\VC\Tools\MSVC\14.29.30133\atlmfc\include\afxwin2.inl

; 765  : 	{ ASSERT(::IsWindow(m_hWnd)); return (int)::SendMessage(m_hWnd, CB_GETCURSEL, 0, 0); }

  0000b	6a 00		 push	 0
  0000d	6a 00		 push	 0
  0000f	68 47 01 00 00	 push	 327			; 00000147H
  00014	ff b6 60 01 00
	00		 push	 DWORD PTR [esi+352]
  0001a	ff 15 00 00 00
	00		 call	 DWORD PTR __imp__SendMessageA@16
; File D:\git\src\IBK\IBK_DRFN\ProjSrc\SrcChartEx\ChartAddIn\ChartDesignPropertyAddIn\ChartDesignPropertyAddIn\RealPacketPage.cpp

; 427  : 	m_comboBasePacket.GetLBText(m_comboBasePacket.GetCurSel(), m_szBasePacketName);

  00020	50		 push	 eax
  00021	8d 8e 40 01 00
	00		 lea	 ecx, DWORD PTR [esi+320]
  00027	e8 00 00 00 00	 call	 ?GetLBText@CComboBox@@QBEXHAAV?$CStringT@DV?$StrTraitMFC_DLL@DV?$ChTraitsCRT@D@ATL@@@@@ATL@@@Z ; CComboBox::GetLBText

; 428  : 	m_szBasePacketName = _LTOM0( m_szBasePacketName);

  0002c	6a 00		 push	 0
  0002e	ff 37		 push	 DWORD PTR [edi]
  00030	b9 00 00 00 00	 mov	 ecx, OFFSET ?g_iMetaTable@@3VIMetaTable@@A ; g_iMetaTable
  00035	6a 00		 push	 0
  00037	ff b6 b8 05 00
	00		 push	 DWORD PTR [esi+1464]
  0003d	e8 00 00 00 00	 call	 ?GetMetaText@IMetaTable@@QAEPBDPAUHWND__@@W4E_CODEPAGE@1@PBDH@Z ; IMetaTable::GetMetaText
  00042	50		 push	 eax
  00043	8b cf		 mov	 ecx, edi
  00045	ff 15 00 00 00
	00		 call	 DWORD PTR __imp_??4?$CStringT@DV?$StrTraitMFC_DLL@DV?$ChTraitsCRT@D@ATL@@@@@ATL@@QAEAAV01@PBD@Z
  0004b	5f		 pop	 edi
  0004c	5e		 pop	 esi

; 429  : }

  0004d	c3		 ret	 0
?OnSelchangeComboBasepacket@CRealPacketPage@@IAEXXZ ENDP ; CRealPacketPage::OnSelchangeComboBasepacket
_TEXT	ENDS
; Function compile flags: /Ogtp
; File D:\git\src\IBK\IBK_DRFN\ProjSrc\SrcChartEx\ChartAddIn\ChartDesignPropertyAddIn\ChartDesignPropertyAddIn\RealPacketPage.cpp
;	COMDAT ?OnSelendokPacketTree@CRealPacketPage@@IAEXXZ
_TEXT	SEGMENT
$T2 = -16						; size = 4
__$EHRec$ = -12						; size = 12
?OnSelendokPacketTree@CRealPacketPage@@IAEXXZ PROC	; CRealPacketPage::OnSelendokPacketTree, COMDAT
; _this$ = ecx

; 333  : {

  00000	55		 push	 ebp
  00001	8b ec		 mov	 ebp, esp
  00003	6a ff		 push	 -1
  00005	68 00 00 00 00	 push	 __ehhandler$?OnSelendokPacketTree@CRealPacketPage@@IAEXXZ
  0000a	64 a1 00 00 00
	00		 mov	 eax, DWORD PTR fs:0
  00010	50		 push	 eax
  00011	51		 push	 ecx
  00012	56		 push	 esi
  00013	a1 00 00 00 00	 mov	 eax, DWORD PTR ___security_cookie
  00018	33 c5		 xor	 eax, ebp
  0001a	50		 push	 eax
  0001b	8d 45 f4	 lea	 eax, DWORD PTR __$EHRec$[ebp]
  0001e	64 a3 00 00 00
	00		 mov	 DWORD PTR fs:0, eax
  00024	8b f1		 mov	 esi, ecx

; 334  : 	m_szOneAdvise = m_TreeCombo.GetCurrentTreePath();

  00026	8d 45 f0	 lea	 eax, DWORD PTR $T2[ebp]
  00029	50		 push	 eax
  0002a	8d 8e 70 03 00
	00		 lea	 ecx, DWORD PTR [esi+880]
  00030	e8 00 00 00 00	 call	 ?GetCurrentTreePath@CTreeCombo@@QAE?AV?$CStringT@DV?$StrTraitMFC_DLL@DV?$ChTraitsCRT@D@ATL@@@@@ATL@@XZ ; CTreeCombo::GetCurrentTreePath
  00035	50		 push	 eax
  00036	8d 8e 68 03 00
	00		 lea	 ecx, DWORD PTR [esi+872]
  0003c	c7 45 fc 00 00
	00 00		 mov	 DWORD PTR __$EHRec$[ebp+8], 0
  00043	ff 15 00 00 00
	00		 call	 DWORD PTR __imp_??4?$CStringT@DV?$StrTraitMFC_DLL@DV?$ChTraitsCRT@D@ATL@@@@@ATL@@QAEAAV01@ABV01@@Z
  00049	8d 4d f0	 lea	 ecx, DWORD PTR $T2[ebp]
  0004c	ff 15 00 00 00
	00		 call	 DWORD PTR __imp_??1?$CStringT@DV?$StrTraitMFC_DLL@DV?$ChTraitsCRT@D@ATL@@@@@ATL@@QAE@XZ

; 335  : }

  00052	8b 4d f4	 mov	 ecx, DWORD PTR __$EHRec$[ebp]
  00055	64 89 0d 00 00
	00 00		 mov	 DWORD PTR fs:0, ecx
  0005c	59		 pop	 ecx
  0005d	5e		 pop	 esi
  0005e	8b e5		 mov	 esp, ebp
  00060	5d		 pop	 ebp
  00061	c3		 ret	 0
_TEXT	ENDS
;	COMDAT text$x
text$x	SEGMENT
__unwindfunclet$?OnSelendokPacketTree@CRealPacketPage@@IAEXXZ$0:
  00000	8d 4d f0	 lea	 ecx, DWORD PTR $T2[ebp]
  00003	ff 25 00 00 00
	00		 jmp	 DWORD PTR __imp_??1?$CStringT@DV?$StrTraitMFC_DLL@DV?$ChTraitsCRT@D@ATL@@@@@ATL@@QAE@XZ
  00009	cc		 int	 3
  0000a	cc		 int	 3
  0000b	cc		 int	 3
  0000c	cc		 int	 3
  0000d	cc		 int	 3
__ehhandler$?OnSelendokPacketTree@CRealPacketPage@@IAEXXZ:
  0000e	90		 npad	 1
  0000f	90		 npad	 1
  00010	8b 54 24 08	 mov	 edx, DWORD PTR [esp+8]
  00014	8d 42 0c	 lea	 eax, DWORD PTR [edx+12]
  00017	8b 4a f4	 mov	 ecx, DWORD PTR [edx-12]
  0001a	33 c8		 xor	 ecx, eax
  0001c	e8 00 00 00 00	 call	 @__security_check_cookie@4
  00021	b8 00 00 00 00	 mov	 eax, OFFSET __ehfuncinfo$?OnSelendokPacketTree@CRealPacketPage@@IAEXXZ
  00026	e9 00 00 00 00	 jmp	 ___CxxFrameHandler3
text$x	ENDS
?OnSelendokPacketTree@CRealPacketPage@@IAEXXZ ENDP	; CRealPacketPage::OnSelendokPacketTree
; Function compile flags: /Ogtp
; File D:\git\src\IBK\IBK_DRFN\ProjSrc\SrcChartEx\ChartAddIn\ChartDesignPropertyAddIn\ChartDesignPropertyAddIn\RealPacketPage.cpp
;	COMDAT ?OnSelchangePacketTree@CRealPacketPage@@IAEXXZ
_TEXT	SEGMENT
$T2 = -16						; size = 4
__$EHRec$ = -12						; size = 12
?OnSelchangePacketTree@CRealPacketPage@@IAEXXZ PROC	; CRealPacketPage::OnSelchangePacketTree, COMDAT
; _this$ = ecx

; 327  : {

  00000	55		 push	 ebp
  00001	8b ec		 mov	 ebp, esp
  00003	6a ff		 push	 -1
  00005	68 00 00 00 00	 push	 __ehhandler$?OnSelchangePacketTree@CRealPacketPage@@IAEXXZ
  0000a	64 a1 00 00 00
	00		 mov	 eax, DWORD PTR fs:0
  00010	50		 push	 eax
  00011	51		 push	 ecx
  00012	56		 push	 esi
  00013	a1 00 00 00 00	 mov	 eax, DWORD PTR ___security_cookie
  00018	33 c5		 xor	 eax, ebp
  0001a	50		 push	 eax
  0001b	8d 45 f4	 lea	 eax, DWORD PTR __$EHRec$[ebp]
  0001e	64 a3 00 00 00
	00		 mov	 DWORD PTR fs:0, eax
  00024	8b f1		 mov	 esi, ecx

; 328  : 	m_szOneAdvise = m_TreeCombo.GetCurrentTreePath();

  00026	8d 45 f0	 lea	 eax, DWORD PTR $T2[ebp]
  00029	50		 push	 eax
  0002a	8d 8e 70 03 00
	00		 lea	 ecx, DWORD PTR [esi+880]
  00030	e8 00 00 00 00	 call	 ?GetCurrentTreePath@CTreeCombo@@QAE?AV?$CStringT@DV?$StrTraitMFC_DLL@DV?$ChTraitsCRT@D@ATL@@@@@ATL@@XZ ; CTreeCombo::GetCurrentTreePath
  00035	50		 push	 eax
  00036	8d 8e 68 03 00
	00		 lea	 ecx, DWORD PTR [esi+872]
  0003c	c7 45 fc 00 00
	00 00		 mov	 DWORD PTR __$EHRec$[ebp+8], 0
  00043	ff 15 00 00 00
	00		 call	 DWORD PTR __imp_??4?$CStringT@DV?$StrTraitMFC_DLL@DV?$ChTraitsCRT@D@ATL@@@@@ATL@@QAEAAV01@ABV01@@Z
  00049	8d 4d f0	 lea	 ecx, DWORD PTR $T2[ebp]
  0004c	ff 15 00 00 00
	00		 call	 DWORD PTR __imp_??1?$CStringT@DV?$StrTraitMFC_DLL@DV?$ChTraitsCRT@D@ATL@@@@@ATL@@QAE@XZ

; 329  : }

  00052	8b 4d f4	 mov	 ecx, DWORD PTR __$EHRec$[ebp]
  00055	64 89 0d 00 00
	00 00		 mov	 DWORD PTR fs:0, ecx
  0005c	59		 pop	 ecx
  0005d	5e		 pop	 esi
  0005e	8b e5		 mov	 esp, ebp
  00060	5d		 pop	 ebp
  00061	c3		 ret	 0
_TEXT	ENDS
;	COMDAT text$x
text$x	SEGMENT
__unwindfunclet$?OnSelchangePacketTree@CRealPacketPage@@IAEXXZ$0:
  00000	8d 4d f0	 lea	 ecx, DWORD PTR $T2[ebp]
  00003	ff 25 00 00 00
	00		 jmp	 DWORD PTR __imp_??1?$CStringT@DV?$StrTraitMFC_DLL@DV?$ChTraitsCRT@D@ATL@@@@@ATL@@QAE@XZ
  00009	cc		 int	 3
  0000a	cc		 int	 3
  0000b	cc		 int	 3
  0000c	cc		 int	 3
  0000d	cc		 int	 3
__ehhandler$?OnSelchangePacketTree@CRealPacketPage@@IAEXXZ:
  0000e	90		 npad	 1
  0000f	90		 npad	 1
  00010	8b 54 24 08	 mov	 edx, DWORD PTR [esp+8]
  00014	8d 42 0c	 lea	 eax, DWORD PTR [edx+12]
  00017	8b 4a f4	 mov	 ecx, DWORD PTR [edx-12]
  0001a	33 c8		 xor	 ecx, eax
  0001c	e8 00 00 00 00	 call	 @__security_check_cookie@4
  00021	b8 00 00 00 00	 mov	 eax, OFFSET __ehfuncinfo$?OnSelchangePacketTree@CRealPacketPage@@IAEXXZ
  00026	e9 00 00 00 00	 jmp	 ___CxxFrameHandler3
text$x	ENDS
?OnSelchangePacketTree@CRealPacketPage@@IAEXXZ ENDP	; CRealPacketPage::OnSelchangePacketTree
; Function compile flags: /Ogtp
; File D:\git\src\IBK\IBK_DRFN\ProjSrc\SrcChartEx\ChartAddIn\ChartDesignPropertyAddIn\ChartDesignPropertyAddIn\RealPacketPage.cpp
; File C:\Program Files (x86)\Microsoft Visual Studio\2019\Community\VC\Tools\MSVC\14.29.30133\atlmfc\include\afxwin2.inl
; File D:\git\src\IBK\IBK_DRFN\ProjSrc\SrcChartEx\ChartAddIn\ChartDesignPropertyAddIn\ChartDesignPropertyAddIn\RealPacketPage.cpp
;	COMDAT ?OnSelchangeCmbSharedname@CRealPacketPage@@IAEXXZ
_TEXT	SEGMENT
?OnSelchangeCmbSharedname@CRealPacketPage@@IAEXXZ PROC	; CRealPacketPage::OnSelchangeCmbSharedname, COMDAT
; _this$ = ecx

; 319  : {

  00000	56		 push	 esi

; 320  : 	CComboBox *pCombo = (CComboBox *)GetDlgItem(IDC_CMB_SHAREDNAME);

  00001	68 11 01 00 00	 push	 273			; 00000111H
  00006	8b f1		 mov	 esi, ecx
  00008	e8 00 00 00 00	 call	 ?GetDlgItem@CWnd@@QBEPAV1@H@Z ; CWnd::GetDlgItem
; File C:\Program Files (x86)\Microsoft Visual Studio\2019\Community\VC\Tools\MSVC\14.29.30133\atlmfc\include\afxwin2.inl

; 765  : 	{ ASSERT(::IsWindow(m_hWnd)); return (int)::SendMessage(m_hWnd, CB_GETCURSEL, 0, 0); }

  0000d	6a 00		 push	 0
  0000f	6a 00		 push	 0
  00011	68 47 01 00 00	 push	 327			; 00000147H
  00016	ff 70 20	 push	 DWORD PTR [eax+32]
  00019	ff 15 00 00 00
	00		 call	 DWORD PTR __imp__SendMessageA@16
; File D:\git\src\IBK\IBK_DRFN\ProjSrc\SrcChartEx\ChartAddIn\ChartDesignPropertyAddIn\ChartDesignPropertyAddIn\RealPacketPage.cpp

; 323  : 	m_cmbSharedName.GetLBText(nIndex,m_szKeyName);

  0001f	8d 8e 4c 03 00
	00		 lea	 ecx, DWORD PTR [esi+844]
  00025	51		 push	 ecx
  00026	50		 push	 eax
  00027	8d 8e 40 02 00
	00		 lea	 ecx, DWORD PTR [esi+576]
  0002d	e8 00 00 00 00	 call	 ?GetLBText@CComboBox@@QBEXHAAV?$CStringT@DV?$StrTraitMFC_DLL@DV?$ChTraitsCRT@D@ATL@@@@@ATL@@@Z ; CComboBox::GetLBText
  00032	5e		 pop	 esi

; 324  : }

  00033	c3		 ret	 0
?OnSelchangeCmbSharedname@CRealPacketPage@@IAEXXZ ENDP	; CRealPacketPage::OnSelchangeCmbSharedname
_TEXT	ENDS
; Function compile flags: /Ogtp
; File D:\git\src\IBK\IBK_DRFN\ProjSrc\SrcChartEx\ChartAddIn\ChartDesignPropertyAddIn\ChartDesignPropertyAddIn\RealPacketPage.cpp
; File C:\Program Files (x86)\Microsoft Visual Studio\2019\Community\VC\Tools\MSVC\14.29.30133\atlmfc\include\afxcmn.inl
; File D:\git\src\IBK\IBK_DRFN\ProjSrc\SrcChartEx\ChartAddIn\ChartDesignPropertyAddIn\ChartDesignPropertyAddIn\RealPacketPage.cpp
; File C:\Program Files (x86)\Microsoft Visual Studio\2019\Community\VC\Tools\MSVC\14.29.30133\atlmfc\include\afxcmn.inl
; File D:\git\src\IBK\IBK_DRFN\ProjSrc\SrcChartEx\ChartAddIn\ChartDesignPropertyAddIn\ChartDesignPropertyAddIn\RealPacketPage.cpp
; File C:\Program Files (x86)\Microsoft Visual Studio\2019\Community\VC\Tools\MSVC\14.29.30133\atlmfc\include\afxcmn.inl
; File D:\git\src\IBK\IBK_DRFN\ProjSrc\SrcChartEx\ChartAddIn\ChartDesignPropertyAddIn\ChartDesignPropertyAddIn\RealPacketPage.cpp
; File C:\Program Files (x86)\Microsoft Visual Studio\2019\Community\VC\Tools\MSVC\14.29.30133\atlmfc\include\afxcmn.inl
; File D:\git\src\IBK\IBK_DRFN\ProjSrc\SrcChartEx\ChartAddIn\ChartDesignPropertyAddIn\ChartDesignPropertyAddIn\RealPacketPage.cpp
; File C:\Program Files (x86)\Microsoft Visual Studio\2019\Community\VC\Tools\MSVC\14.29.30133\atlmfc\include\afxcmn.inl
; File D:\git\src\IBK\IBK_DRFN\ProjSrc\SrcChartEx\ChartAddIn\ChartDesignPropertyAddIn\ChartDesignPropertyAddIn\RealPacketPage.cpp
;	COMDAT ?OnBtnDel@CRealPacketPage@@IAEXXZ
_TEXT	SEGMENT
?OnBtnDel@CRealPacketPage@@IAEXXZ PROC			; CRealPacketPage::OnBtnDel, COMDAT
; _this$ = ecx

; 297  : {

  00000	53		 push	 ebx
; File C:\Program Files (x86)\Microsoft Visual Studio\2019\Community\VC\Tools\MSVC\14.29.30133\atlmfc\include\afxcmn.inl

; 177  : 	{ ASSERT(::IsWindow(m_hWnd)); return (int) ::SendMessage(m_hWnd, LVM_GETNEXTITEM, nItem, MAKELPARAM(nFlags, 0)); }

  00001	8b 1d 00 00 00
	00		 mov	 ebx, DWORD PTR __imp__SendMessageA@16
; File D:\git\src\IBK\IBK_DRFN\ProjSrc\SrcChartEx\ChartAddIn\ChartDesignPropertyAddIn\ChartDesignPropertyAddIn\RealPacketPage.cpp

; 297  : {

  00007	56		 push	 esi
; File C:\Program Files (x86)\Microsoft Visual Studio\2019\Community\VC\Tools\MSVC\14.29.30133\atlmfc\include\afxcmn.inl

; 177  : 	{ ASSERT(::IsWindow(m_hWnd)); return (int) ::SendMessage(m_hWnd, LVM_GETNEXTITEM, nItem, MAKELPARAM(nFlags, 0)); }

  00008	6a 02		 push	 2
; File D:\git\src\IBK\IBK_DRFN\ProjSrc\SrcChartEx\ChartAddIn\ChartDesignPropertyAddIn\ChartDesignPropertyAddIn\RealPacketPage.cpp

; 297  : {

  0000a	8b f1		 mov	 esi, ecx
; File C:\Program Files (x86)\Microsoft Visual Studio\2019\Community\VC\Tools\MSVC\14.29.30133\atlmfc\include\afxcmn.inl

; 177  : 	{ ASSERT(::IsWindow(m_hWnd)); return (int) ::SendMessage(m_hWnd, LVM_GETNEXTITEM, nItem, MAKELPARAM(nFlags, 0)); }

  0000c	6a ff		 push	 -1
  0000e	68 0c 10 00 00	 push	 4108			; 0000100cH
  00013	ff b6 e0 02 00
	00		 push	 DWORD PTR [esi+736]
  00019	ff d3		 call	 ebx

; 179  : 	{ ASSERT(::IsWindow(m_hWnd)); return (POSITION)(DWORD_PTR)(1+GetNextItem(-1, LVIS_SELECTED)); }

  0001b	83 c0 01	 add	 eax, 1
; File D:\git\src\IBK\IBK_DRFN\ProjSrc\SrcChartEx\ChartAddIn\ChartDesignPropertyAddIn\ChartDesignPropertyAddIn\RealPacketPage.cpp

; 310  : 	if(pos) 

  0001e	74 33		 je	 SHORT $LN1@OnBtnDel
; File C:\Program Files (x86)\Microsoft Visual Studio\2019\Community\VC\Tools\MSVC\14.29.30133\atlmfc\include\afxcmn.inl

; 181  : 	{ ASSERT(::IsWindow(m_hWnd)); DWORD_PTR nOldPos = (DWORD_PTR)pos-1; pos = (POSITION)(DWORD_PTR)(1+GetNextItem((UINT)nOldPos, LVIS_SELECTED)); return (UINT)nOldPos; }

  00020	57		 push	 edi

; 177  : 	{ ASSERT(::IsWindow(m_hWnd)); return (int) ::SendMessage(m_hWnd, LVM_GETNEXTITEM, nItem, MAKELPARAM(nFlags, 0)); }

  00021	6a 02		 push	 2

; 181  : 	{ ASSERT(::IsWindow(m_hWnd)); DWORD_PTR nOldPos = (DWORD_PTR)pos-1; pos = (POSITION)(DWORD_PTR)(1+GetNextItem((UINT)nOldPos, LVIS_SELECTED)); return (UINT)nOldPos; }

  00023	8d 78 ff	 lea	 edi, DWORD PTR [eax-1]

; 177  : 	{ ASSERT(::IsWindow(m_hWnd)); return (int) ::SendMessage(m_hWnd, LVM_GETNEXTITEM, nItem, MAKELPARAM(nFlags, 0)); }

  00026	57		 push	 edi
  00027	68 0c 10 00 00	 push	 4108			; 0000100cH
  0002c	ff b6 e0 02 00
	00		 push	 DWORD PTR [esi+736]
  00032	ff d3		 call	 ebx
; File D:\git\src\IBK\IBK_DRFN\ProjSrc\SrcChartEx\ChartAddIn\ChartDesignPropertyAddIn\ChartDesignPropertyAddIn\RealPacketPage.cpp

; 300  : 	if(nIndex < 0) return;

  00034	85 ff		 test	 edi, edi
  00036	78 1a		 js	 SHORT $LN17@OnBtnDel
; File C:\Program Files (x86)\Microsoft Visual Studio\2019\Community\VC\Tools\MSVC\14.29.30133\atlmfc\include\afxcmn.inl

; 169  : 	{ ASSERT(::IsWindow(m_hWnd)); return (BOOL) ::SendMessage(m_hWnd, LVM_DELETEITEM, nItem, 0L); }

  00038	6a 00		 push	 0
  0003a	57		 push	 edi
  0003b	68 08 10 00 00	 push	 4104			; 00001008H
  00040	ff b6 e0 02 00
	00		 push	 DWORD PTR [esi+736]
  00046	ff d3		 call	 ebx
  00048	5f		 pop	 edi
; File D:\git\src\IBK\IBK_DRFN\ProjSrc\SrcChartEx\ChartAddIn\ChartDesignPropertyAddIn\ChartDesignPropertyAddIn\RealPacketPage.cpp

; 304  : 	MakeRealList();

  00049	8b ce		 mov	 ecx, esi
  0004b	5e		 pop	 esi

; 305  : }

  0004c	5b		 pop	 ebx

; 304  : 	MakeRealList();

  0004d	e9 00 00 00 00	 jmp	 ?MakeRealList@CRealPacketPage@@AAEXXZ ; CRealPacketPage::MakeRealList
$LN17@OnBtnDel:
  00052	5f		 pop	 edi
$LN1@OnBtnDel:
  00053	5e		 pop	 esi

; 305  : }

  00054	5b		 pop	 ebx
  00055	c3		 ret	 0
?OnBtnDel@CRealPacketPage@@IAEXXZ ENDP			; CRealPacketPage::OnBtnDel
_TEXT	ENDS
; Function compile flags: /Ogtp
; File D:\git\src\IBK\IBK_DRFN\ProjSrc\SrcChartEx\ChartAddIn\ChartDesignPropertyAddIn\ChartDesignPropertyAddIn\RealPacketPage.cpp
; File C:\Program Files (x86)\Microsoft Visual Studio\2019\Community\VC\Tools\MSVC\14.29.30133\atlmfc\include\afxwin2.inl
; File D:\git\src\IBK\IBK_DRFN\ProjSrc\SrcChartEx\ChartAddIn\ChartDesignPropertyAddIn\ChartDesignPropertyAddIn\RealPacketPage.cpp
; File C:\Program Files (x86)\Microsoft Visual Studio\2019\Community\VC\Tools\MSVC\14.29.30133\atlmfc\include\afxwin2.inl
; File D:\git\src\IBK\IBK_DRFN\ProjSrc\SrcChartEx\ChartAddIn\ChartDesignPropertyAddIn\ChartDesignPropertyAddIn\RealPacketPage.cpp
; File C:\Program Files (x86)\Microsoft Visual Studio\2019\Community\VC\Tools\MSVC\14.29.30133\atlmfc\include\afxwin2.inl
; File D:\git\src\IBK\IBK_DRFN\ProjSrc\SrcChartEx\ChartAddIn\ChartDesignPropertyAddIn\ChartDesignPropertyAddIn\RealPacketPage.cpp
; File C:\Program Files (x86)\Microsoft Visual Studio\2019\Community\VC\Tools\MSVC\14.29.30133\atlmfc\include\afxwin2.inl
; File D:\git\src\IBK\IBK_DRFN\ProjSrc\SrcChartEx\ChartAddIn\ChartDesignPropertyAddIn\ChartDesignPropertyAddIn\RealPacketPage.cpp
; File C:\Program Files (x86)\Microsoft Visual Studio\2019\Community\VC\Tools\MSVC\14.29.30133\atlmfc\include\cstringt.h
; File D:\git\src\IBK\IBK_DRFN\ProjSrc\SrcChartEx\ChartAddIn\ChartDesignPropertyAddIn\ChartDesignPropertyAddIn\RealPacketPage.cpp
; File C:\Program Files (x86)\Microsoft Visual Studio\2019\Community\VC\Tools\MSVC\14.29.30133\atlmfc\include\cstringt.h
; File D:\git\src\IBK\IBK_DRFN\ProjSrc\SrcChartEx\ChartAddIn\ChartDesignPropertyAddIn\ChartDesignPropertyAddIn\RealPacketPage.cpp
; File C:\Program Files (x86)\Microsoft Visual Studio\2019\Community\VC\Tools\MSVC\14.29.30133\atlmfc\include\cstringt.h
; File D:\git\src\IBK\IBK_DRFN\ProjSrc\SrcChartEx\ChartAddIn\ChartDesignPropertyAddIn\ChartDesignPropertyAddIn\RealPacketPage.cpp
; File C:\Program Files (x86)\Microsoft Visual Studio\2019\Community\VC\Tools\MSVC\14.29.30133\atlmfc\include\afxcmn.inl
; File D:\git\src\IBK\IBK_DRFN\ProjSrc\SrcChartEx\ChartAddIn\ChartDesignPropertyAddIn\ChartDesignPropertyAddIn\RealPacketPage.cpp
; File C:\Program Files (x86)\Microsoft Visual Studio\2019\Community\VC\Tools\MSVC\14.29.30133\atlmfc\include\afxcmn.inl
; File D:\git\src\IBK\IBK_DRFN\ProjSrc\SrcChartEx\ChartAddIn\ChartDesignPropertyAddIn\ChartDesignPropertyAddIn\RealPacketPage.cpp
; File C:\Program Files (x86)\Microsoft Visual Studio\2019\Community\VC\Tools\MSVC\14.29.30133\atlmfc\include\afxcmn.inl
; File D:\git\src\IBK\IBK_DRFN\ProjSrc\SrcChartEx\ChartAddIn\ChartDesignPropertyAddIn\ChartDesignPropertyAddIn\RealPacketPage.cpp
;	COMDAT ?OnBtnAdd@CRealPacketPage@@IAEXXZ
_TEXT	SEGMENT
_Field$ = -48						; size = 4
$T2 = -44						; size = 4
$T3 = -44						; size = 4
$T4 = -40						; size = 4
$T5 = -36						; size = 4
$T6 = -32						; size = 4
$T7 = -32						; size = 4
_Packet$ = -28						; size = 4
_ChartPacket$ = -24					; size = 4
_KeyName$ = -20						; size = 4
_szOneAdvise$ = -16					; size = 4
__$EHRec$ = -12						; size = 12
?OnBtnAdd@CRealPacketPage@@IAEXXZ PROC			; CRealPacketPage::OnBtnAdd, COMDAT
; _this$ = ecx

; 255  : {

  00000	55		 push	 ebp
  00001	8b ec		 mov	 ebp, esp
  00003	6a ff		 push	 -1
  00005	68 00 00 00 00	 push	 __ehhandler$?OnBtnAdd@CRealPacketPage@@IAEXXZ
  0000a	64 a1 00 00 00
	00		 mov	 eax, DWORD PTR fs:0
  00010	50		 push	 eax
  00011	83 ec 24	 sub	 esp, 36			; 00000024H
  00014	53		 push	 ebx
  00015	56		 push	 esi
  00016	57		 push	 edi
  00017	a1 00 00 00 00	 mov	 eax, DWORD PTR ___security_cookie
  0001c	33 c5		 xor	 eax, ebp
  0001e	50		 push	 eax
  0001f	8d 45 f4	 lea	 eax, DWORD PTR __$EHRec$[ebp]
  00022	64 a3 00 00 00
	00		 mov	 DWORD PTR fs:0, eax
  00028	8b d9		 mov	 ebx, ecx

; 256  : 	CString ChartPacket, Packet, Field, KeyName;

  0002a	8d 4d e8	 lea	 ecx, DWORD PTR _ChartPacket$[ebp]
  0002d	ff 15 00 00 00
	00		 call	 DWORD PTR __imp_??0?$CStringT@DV?$StrTraitMFC_DLL@DV?$ChTraitsCRT@D@ATL@@@@@ATL@@QAE@XZ
  00033	8d 4d e4	 lea	 ecx, DWORD PTR _Packet$[ebp]
  00036	c7 45 fc 00 00
	00 00		 mov	 DWORD PTR __$EHRec$[ebp+8], 0
  0003d	ff 15 00 00 00
	00		 call	 DWORD PTR __imp_??0?$CStringT@DV?$StrTraitMFC_DLL@DV?$ChTraitsCRT@D@ATL@@@@@ATL@@QAE@XZ
  00043	8d 4d d0	 lea	 ecx, DWORD PTR _Field$[ebp]
  00046	ff 15 00 00 00
	00		 call	 DWORD PTR __imp_??0?$CStringT@DV?$StrTraitMFC_DLL@DV?$ChTraitsCRT@D@ATL@@@@@ATL@@QAE@XZ
  0004c	8d 4d ec	 lea	 ecx, DWORD PTR _KeyName$[ebp]
  0004f	ff 15 00 00 00
	00		 call	 DWORD PTR __imp_??0?$CStringT@DV?$StrTraitMFC_DLL@DV?$ChTraitsCRT@D@ATL@@@@@ATL@@QAE@XZ

; 257  : 	CString szOneAdvise = m_szOneAdvise;

  00055	8d 83 68 03 00
	00		 lea	 eax, DWORD PTR [ebx+872]
  0005b	c6 45 fc 03	 mov	 BYTE PTR __$EHRec$[ebp+8], 3
  0005f	50		 push	 eax
  00060	8d 4d f0	 lea	 ecx, DWORD PTR _szOneAdvise$[ebp]
  00063	ff 15 00 00 00
	00		 call	 DWORD PTR __imp_??0?$CStringT@DV?$StrTraitMFC_DLL@DV?$ChTraitsCRT@D@ATL@@@@@ATL@@QAE@ABV01@@Z
; File C:\Program Files (x86)\Microsoft Visual Studio\2019\Community\VC\Tools\MSVC\14.29.30133\atlmfc\include\afxwin2.inl

; 765  : 	{ ASSERT(::IsWindow(m_hWnd)); return (int)::SendMessage(m_hWnd, CB_GETCURSEL, 0, 0); }

  00069	8b 35 00 00 00
	00		 mov	 esi, DWORD PTR __imp__SendMessageA@16
; File D:\git\src\IBK\IBK_DRFN\ProjSrc\SrcChartEx\ChartAddIn\ChartDesignPropertyAddIn\ChartDesignPropertyAddIn\RealPacketPage.cpp

; 259  : 	m_comboPacketList.GetLBText(m_comboPacketList.GetCurSel(), ChartPacket);

  0006f	8d 45 e8	 lea	 eax, DWORD PTR _ChartPacket$[ebp]
  00072	50		 push	 eax
; File C:\Program Files (x86)\Microsoft Visual Studio\2019\Community\VC\Tools\MSVC\14.29.30133\atlmfc\include\afxwin2.inl

; 765  : 	{ ASSERT(::IsWindow(m_hWnd)); return (int)::SendMessage(m_hWnd, CB_GETCURSEL, 0, 0); }

  00073	6a 00		 push	 0
  00075	6a 00		 push	 0
  00077	68 47 01 00 00	 push	 327			; 00000147H
  0007c	ff b3 e0 00 00
	00		 push	 DWORD PTR [ebx+224]
; File D:\git\src\IBK\IBK_DRFN\ProjSrc\SrcChartEx\ChartAddIn\ChartDesignPropertyAddIn\ChartDesignPropertyAddIn\RealPacketPage.cpp

; 257  : 	CString szOneAdvise = m_szOneAdvise;

  00082	c6 45 fc 04	 mov	 BYTE PTR __$EHRec$[ebp+8], 4
; File C:\Program Files (x86)\Microsoft Visual Studio\2019\Community\VC\Tools\MSVC\14.29.30133\atlmfc\include\afxwin2.inl

; 765  : 	{ ASSERT(::IsWindow(m_hWnd)); return (int)::SendMessage(m_hWnd, CB_GETCURSEL, 0, 0); }

  00086	ff d6		 call	 esi
; File D:\git\src\IBK\IBK_DRFN\ProjSrc\SrcChartEx\ChartAddIn\ChartDesignPropertyAddIn\ChartDesignPropertyAddIn\RealPacketPage.cpp

; 259  : 	m_comboPacketList.GetLBText(m_comboPacketList.GetCurSel(), ChartPacket);

  00088	50		 push	 eax
  00089	8d 8b c0 00 00
	00		 lea	 ecx, DWORD PTR [ebx+192]
  0008f	e8 00 00 00 00	 call	 ?GetLBText@CComboBox@@QBEXHAAV?$CStringT@DV?$StrTraitMFC_DLL@DV?$ChTraitsCRT@D@ATL@@@@@ATL@@@Z ; CComboBox::GetLBText

; 260  : 	m_cmbSharedName.GetLBText(m_cmbSharedName.GetCurSel(), KeyName);

  00094	8d 45 ec	 lea	 eax, DWORD PTR _KeyName$[ebp]
  00097	50		 push	 eax
; File C:\Program Files (x86)\Microsoft Visual Studio\2019\Community\VC\Tools\MSVC\14.29.30133\atlmfc\include\afxwin2.inl

; 765  : 	{ ASSERT(::IsWindow(m_hWnd)); return (int)::SendMessage(m_hWnd, CB_GETCURSEL, 0, 0); }

  00098	6a 00		 push	 0
  0009a	6a 00		 push	 0
  0009c	68 47 01 00 00	 push	 327			; 00000147H
  000a1	ff b3 60 02 00
	00		 push	 DWORD PTR [ebx+608]
  000a7	ff d6		 call	 esi
; File D:\git\src\IBK\IBK_DRFN\ProjSrc\SrcChartEx\ChartAddIn\ChartDesignPropertyAddIn\ChartDesignPropertyAddIn\RealPacketPage.cpp

; 260  : 	m_cmbSharedName.GetLBText(m_cmbSharedName.GetCurSel(), KeyName);

  000a9	50		 push	 eax
  000aa	8d 8b 40 02 00
	00		 lea	 ecx, DWORD PTR [ebx+576]
  000b0	e8 00 00 00 00	 call	 ?GetLBText@CComboBox@@QBEXHAAV?$CStringT@DV?$StrTraitMFC_DLL@DV?$ChTraitsCRT@D@ATL@@@@@ATL@@@Z ; CComboBox::GetLBText
; File C:\Program Files (x86)\Microsoft Visual Studio\2019\Community\VC\Tools\MSVC\14.29.30133\atlmfc\include\cstringt.h

; 2486 : 		return(str1.Compare(psz2) == 0);

  000b5	68 00 00 00 00	 push	 OFFSET ??_C@_00CNPNBAHC@@
  000ba	8d 4d f0	 lea	 ecx, DWORD PTR _szOneAdvise$[ebp]
  000bd	ff 15 00 00 00
	00		 call	 DWORD PTR __imp_?Compare@?$CStringT@DV?$StrTraitMFC_DLL@DV?$ChTraitsCRT@D@ATL@@@@@ATL@@QBEHPBD@Z
  000c3	85 c0		 test	 eax, eax
; File D:\git\src\IBK\IBK_DRFN\ProjSrc\SrcChartEx\ChartAddIn\ChartDesignPropertyAddIn\ChartDesignPropertyAddIn\RealPacketPage.cpp

; 262  : 	if(szOneAdvise == "" || ChartPacket == "" || KeyName == "")

  000c5	0f 84 4a 01 00
	00		 je	 $LN3@OnBtnAdd
; File C:\Program Files (x86)\Microsoft Visual Studio\2019\Community\VC\Tools\MSVC\14.29.30133\atlmfc\include\cstringt.h

; 2486 : 		return(str1.Compare(psz2) == 0);

  000cb	68 00 00 00 00	 push	 OFFSET ??_C@_00CNPNBAHC@@
  000d0	8d 4d e8	 lea	 ecx, DWORD PTR _ChartPacket$[ebp]
  000d3	ff 15 00 00 00
	00		 call	 DWORD PTR __imp_?Compare@?$CStringT@DV?$StrTraitMFC_DLL@DV?$ChTraitsCRT@D@ATL@@@@@ATL@@QBEHPBD@Z
  000d9	85 c0		 test	 eax, eax
; File D:\git\src\IBK\IBK_DRFN\ProjSrc\SrcChartEx\ChartAddIn\ChartDesignPropertyAddIn\ChartDesignPropertyAddIn\RealPacketPage.cpp

; 262  : 	if(szOneAdvise == "" || ChartPacket == "" || KeyName == "")

  000db	0f 84 34 01 00
	00		 je	 $LN3@OnBtnAdd
; File C:\Program Files (x86)\Microsoft Visual Studio\2019\Community\VC\Tools\MSVC\14.29.30133\atlmfc\include\cstringt.h

; 2486 : 		return(str1.Compare(psz2) == 0);

  000e1	68 00 00 00 00	 push	 OFFSET ??_C@_00CNPNBAHC@@
  000e6	8d 4d ec	 lea	 ecx, DWORD PTR _KeyName$[ebp]
  000e9	ff 15 00 00 00
	00		 call	 DWORD PTR __imp_?Compare@?$CStringT@DV?$StrTraitMFC_DLL@DV?$ChTraitsCRT@D@ATL@@@@@ATL@@QBEHPBD@Z
  000ef	85 c0		 test	 eax, eax
; File D:\git\src\IBK\IBK_DRFN\ProjSrc\SrcChartEx\ChartAddIn\ChartDesignPropertyAddIn\ChartDesignPropertyAddIn\RealPacketPage.cpp

; 262  : 	if(szOneAdvise == "" || ChartPacket == "" || KeyName == "")

  000f1	0f 84 1e 01 00
	00		 je	 $LN3@OnBtnAdd

; 263  : 		return;
; 264  : 
; 265  : 	Packet = CDataConversion::GetStringData(szOneAdvise, ".");

  000f7	68 00 00 00 00	 push	 OFFSET ??_C@_01LFCBOECM@?4@
  000fc	8d 4d e0	 lea	 ecx, DWORD PTR $T7[ebp]
  000ff	ff 15 00 00 00
	00		 call	 DWORD PTR __imp_??0?$CStringT@DV?$StrTraitMFC_DLL@DV?$ChTraitsCRT@D@ATL@@@@@ATL@@QAE@PBD@Z
  00105	6a 01		 push	 1
  00107	8d 45 e0	 lea	 eax, DWORD PTR $T7[ebp]
  0010a	c6 45 fc 05	 mov	 BYTE PTR __$EHRec$[ebp+8], 5
  0010e	50		 push	 eax
  0010f	8d 45 f0	 lea	 eax, DWORD PTR _szOneAdvise$[ebp]
  00112	50		 push	 eax
  00113	8d 45 d4	 lea	 eax, DWORD PTR $T3[ebp]
  00116	50		 push	 eax
  00117	e8 00 00 00 00	 call	 ?GetStringData@CDataConversion@@SA?AV?$CStringT@DV?$StrTraitMFC_DLL@DV?$ChTraitsCRT@D@ATL@@@@@ATL@@AAV23@ABV23@_N@Z ; CDataConversion::GetStringData
  0011c	83 c4 10	 add	 esp, 16			; 00000010H
  0011f	50		 push	 eax
  00120	8d 4d e4	 lea	 ecx, DWORD PTR _Packet$[ebp]
  00123	c6 45 fc 06	 mov	 BYTE PTR __$EHRec$[ebp+8], 6
  00127	ff 15 00 00 00
	00		 call	 DWORD PTR __imp_??4?$CStringT@DV?$StrTraitMFC_DLL@DV?$ChTraitsCRT@D@ATL@@@@@ATL@@QAEAAV01@ABV01@@Z
  0012d	8d 4d d4	 lea	 ecx, DWORD PTR $T3[ebp]
  00130	ff 15 00 00 00
	00		 call	 DWORD PTR __imp_??1?$CStringT@DV?$StrTraitMFC_DLL@DV?$ChTraitsCRT@D@ATL@@@@@ATL@@QAE@XZ
  00136	8d 4d e0	 lea	 ecx, DWORD PTR $T7[ebp]
  00139	c6 45 fc 04	 mov	 BYTE PTR __$EHRec$[ebp+8], 4
  0013d	ff 15 00 00 00
	00		 call	 DWORD PTR __imp_??1?$CStringT@DV?$StrTraitMFC_DLL@DV?$ChTraitsCRT@D@ATL@@@@@ATL@@QAE@XZ

; 266  : 
; 267  : 	AddData(ChartPacket, Packet, szOneAdvise, KeyName);

  00143	8d 45 ec	 lea	 eax, DWORD PTR _KeyName$[ebp]
  00146	50		 push	 eax
  00147	8d 4d d4	 lea	 ecx, DWORD PTR $T2[ebp]
  0014a	ff 15 00 00 00
	00		 call	 DWORD PTR __imp_??0?$CStringT@DV?$StrTraitMFC_DLL@DV?$ChTraitsCRT@D@ATL@@@@@ATL@@QAE@ABV01@@Z
  00150	8d 45 f0	 lea	 eax, DWORD PTR _szOneAdvise$[ebp]
  00153	c6 45 fc 07	 mov	 BYTE PTR __$EHRec$[ebp+8], 7
  00157	50		 push	 eax
  00158	8d 4d d8	 lea	 ecx, DWORD PTR $T4[ebp]
  0015b	ff 15 00 00 00
	00		 call	 DWORD PTR __imp_??0?$CStringT@DV?$StrTraitMFC_DLL@DV?$ChTraitsCRT@D@ATL@@@@@ATL@@QAE@ABV01@@Z
  00161	8d 45 e4	 lea	 eax, DWORD PTR _Packet$[ebp]
  00164	c6 45 fc 08	 mov	 BYTE PTR __$EHRec$[ebp+8], 8
  00168	50		 push	 eax
  00169	8d 4d dc	 lea	 ecx, DWORD PTR $T5[ebp]
  0016c	ff 15 00 00 00
	00		 call	 DWORD PTR __imp_??0?$CStringT@DV?$StrTraitMFC_DLL@DV?$ChTraitsCRT@D@ATL@@@@@ATL@@QAE@ABV01@@Z
  00172	8d 45 e8	 lea	 eax, DWORD PTR _ChartPacket$[ebp]
  00175	c6 45 fc 09	 mov	 BYTE PTR __$EHRec$[ebp+8], 9
  00179	50		 push	 eax
  0017a	8d 4d e0	 lea	 ecx, DWORD PTR $T6[ebp]
  0017d	ff 15 00 00 00
	00		 call	 DWORD PTR __imp_??0?$CStringT@DV?$StrTraitMFC_DLL@DV?$ChTraitsCRT@D@ATL@@@@@ATL@@QAE@ABV01@@Z
; File C:\Program Files (x86)\Microsoft Visual Studio\2019\Community\VC\Tools\MSVC\14.29.30133\atlmfc\include\afxcmn.inl

; 155  : 	{ ASSERT(::IsWindow(m_hWnd)); return (int) ::SendMessage(m_hWnd, LVM_GETITEMCOUNT, 0, 0L); }

  00183	6a 00		 push	 0
  00185	6a 00		 push	 0
  00187	68 04 10 00 00	 push	 4100			; 00001004H
  0018c	ff b3 e0 02 00
	00		 push	 DWORD PTR [ebx+736]
; File D:\git\src\IBK\IBK_DRFN\ProjSrc\SrcChartEx\ChartAddIn\ChartDesignPropertyAddIn\ChartDesignPropertyAddIn\RealPacketPage.cpp

; 164  : {

  00192	c6 45 fc 0d	 mov	 BYTE PTR __$EHRec$[ebp+8], 13 ; 0000000dH
; File C:\Program Files (x86)\Microsoft Visual Studio\2019\Community\VC\Tools\MSVC\14.29.30133\atlmfc\include\afxcmn.inl

; 155  : 	{ ASSERT(::IsWindow(m_hWnd)); return (int) ::SendMessage(m_hWnd, LVM_GETITEMCOUNT, 0, 0L); }

  00196	ff d6		 call	 esi

; 165  : 	{ ASSERT(::IsWindow(m_hWnd)); return InsertItem(LVIF_TEXT, nItem, lpszItem, 0, 0, 0, 0); }

  00198	6a 00		 push	 0
  0019a	6a 00		 push	 0
  0019c	6a 00		 push	 0
  0019e	6a 00		 push	 0
  001a0	ff 75 e0	 push	 DWORD PTR $T6[ebp]
; File D:\git\src\IBK\IBK_DRFN\ProjSrc\SrcChartEx\ChartAddIn\ChartDesignPropertyAddIn\ChartDesignPropertyAddIn\RealPacketPage.cpp

; 165  : 	int nIndex = m_lsAdviseList.GetItemCount();

  001a3	8b f0		 mov	 esi, eax
; File C:\Program Files (x86)\Microsoft Visual Studio\2019\Community\VC\Tools\MSVC\14.29.30133\atlmfc\include\afxcmn.inl

; 165  : 	{ ASSERT(::IsWindow(m_hWnd)); return InsertItem(LVIF_TEXT, nItem, lpszItem, 0, 0, 0, 0); }

  001a5	8d 8b c0 02 00
	00		 lea	 ecx, DWORD PTR [ebx+704]
  001ab	56		 push	 esi
  001ac	6a 01		 push	 1
  001ae	e8 00 00 00 00	 call	 ?InsertItem@CListCtrl@@QAEHIHPBDIIHJ@Z ; CListCtrl::InsertItem
; File D:\git\src\IBK\IBK_DRFN\ProjSrc\SrcChartEx\ChartAddIn\ChartDesignPropertyAddIn\ChartDesignPropertyAddIn\RealPacketPage.cpp

; 168  : 	m_lsAdviseList.SetItemText(nIndex, 1, packet);

  001b3	ff 75 dc	 push	 DWORD PTR $T5[ebp]
  001b6	8d 8b c0 02 00
	00		 lea	 ecx, DWORD PTR [ebx+704]
  001bc	6a 01		 push	 1
  001be	56		 push	 esi
  001bf	e8 00 00 00 00	 call	 ?SetItemText@CListCtrl@@QAEHHHPBD@Z ; CListCtrl::SetItemText

; 169  : 	m_lsAdviseList.SetItemText(nIndex, 2, field);

  001c4	ff 75 d8	 push	 DWORD PTR $T4[ebp]
  001c7	8d 8b c0 02 00
	00		 lea	 ecx, DWORD PTR [ebx+704]
  001cd	6a 02		 push	 2
  001cf	56		 push	 esi
  001d0	e8 00 00 00 00	 call	 ?SetItemText@CListCtrl@@QAEHHHPBD@Z ; CListCtrl::SetItemText

; 170  : 	m_lsAdviseList.SetItemText(nIndex, 3, key);

  001d5	ff 75 d4	 push	 DWORD PTR $T2[ebp]
  001d8	8d 8b c0 02 00
	00		 lea	 ecx, DWORD PTR [ebx+704]
  001de	6a 03		 push	 3
  001e0	56		 push	 esi
  001e1	e8 00 00 00 00	 call	 ?SetItemText@CListCtrl@@QAEHHHPBD@Z ; CListCtrl::SetItemText

; 171  : 
; 172  : 	return 1;

  001e6	8d 4d e0	 lea	 ecx, DWORD PTR $T6[ebp]
  001e9	ff 15 00 00 00
	00		 call	 DWORD PTR __imp_??1?$CStringT@DV?$StrTraitMFC_DLL@DV?$ChTraitsCRT@D@ATL@@@@@ATL@@QAE@XZ
  001ef	8d 4d dc	 lea	 ecx, DWORD PTR $T5[ebp]
  001f2	ff 15 00 00 00
	00		 call	 DWORD PTR __imp_??1?$CStringT@DV?$StrTraitMFC_DLL@DV?$ChTraitsCRT@D@ATL@@@@@ATL@@QAE@XZ
  001f8	8d 4d d8	 lea	 ecx, DWORD PTR $T4[ebp]
  001fb	ff 15 00 00 00
	00		 call	 DWORD PTR __imp_??1?$CStringT@DV?$StrTraitMFC_DLL@DV?$ChTraitsCRT@D@ATL@@@@@ATL@@QAE@XZ
  00201	8d 4d d4	 lea	 ecx, DWORD PTR $T2[ebp]
  00204	c6 45 fc 04	 mov	 BYTE PTR __$EHRec$[ebp+8], 4
  00208	ff 15 00 00 00
	00		 call	 DWORD PTR __imp_??1?$CStringT@DV?$StrTraitMFC_DLL@DV?$ChTraitsCRT@D@ATL@@@@@ATL@@QAE@XZ

; 268  : 	MakeRealList();

  0020e	8b cb		 mov	 ecx, ebx
  00210	e8 00 00 00 00	 call	 ?MakeRealList@CRealPacketPage@@AAEXXZ ; CRealPacketPage::MakeRealList
$LN3@OnBtnAdd:

; 269  : }

  00215	8d 4d f0	 lea	 ecx, DWORD PTR _szOneAdvise$[ebp]
  00218	ff 15 00 00 00
	00		 call	 DWORD PTR __imp_??1?$CStringT@DV?$StrTraitMFC_DLL@DV?$ChTraitsCRT@D@ATL@@@@@ATL@@QAE@XZ
  0021e	8d 4d ec	 lea	 ecx, DWORD PTR _KeyName$[ebp]
  00221	ff 15 00 00 00
	00		 call	 DWORD PTR __imp_??1?$CStringT@DV?$StrTraitMFC_DLL@DV?$ChTraitsCRT@D@ATL@@@@@ATL@@QAE@XZ
  00227	8d 4d d0	 lea	 ecx, DWORD PTR _Field$[ebp]
  0022a	ff 15 00 00 00
	00		 call	 DWORD PTR __imp_??1?$CStringT@DV?$StrTraitMFC_DLL@DV?$ChTraitsCRT@D@ATL@@@@@ATL@@QAE@XZ
  00230	8d 4d e4	 lea	 ecx, DWORD PTR _Packet$[ebp]
  00233	ff 15 00 00 00
	00		 call	 DWORD PTR __imp_??1?$CStringT@DV?$StrTraitMFC_DLL@DV?$ChTraitsCRT@D@ATL@@@@@ATL@@QAE@XZ
  00239	8d 4d e8	 lea	 ecx, DWORD PTR _ChartPacket$[ebp]
  0023c	ff 15 00 00 00
	00		 call	 DWORD PTR __imp_??1?$CStringT@DV?$StrTraitMFC_DLL@DV?$ChTraitsCRT@D@ATL@@@@@ATL@@QAE@XZ
  00242	8b 4d f4	 mov	 ecx, DWORD PTR __$EHRec$[ebp]
  00245	64 89 0d 00 00
	00 00		 mov	 DWORD PTR fs:0, ecx
  0024c	59		 pop	 ecx
  0024d	5f		 pop	 edi
  0024e	5e		 pop	 esi
  0024f	5b		 pop	 ebx
  00250	8b e5		 mov	 esp, ebp
  00252	5d		 pop	 ebp
  00253	c3		 ret	 0
_TEXT	ENDS
;	COMDAT text$x
text$x	SEGMENT
__unwindfunclet$?OnBtnAdd@CRealPacketPage@@IAEXXZ$0:
  00000	8d 4d e8	 lea	 ecx, DWORD PTR _ChartPacket$[ebp]
  00003	ff 25 00 00 00
	00		 jmp	 DWORD PTR __imp_??1?$CStringT@DV?$StrTraitMFC_DLL@DV?$ChTraitsCRT@D@ATL@@@@@ATL@@QAE@XZ
__unwindfunclet$?OnBtnAdd@CRealPacketPage@@IAEXXZ$1:
  00009	8d 4d e4	 lea	 ecx, DWORD PTR _Packet$[ebp]
  0000c	ff 25 00 00 00
	00		 jmp	 DWORD PTR __imp_??1?$CStringT@DV?$StrTraitMFC_DLL@DV?$ChTraitsCRT@D@ATL@@@@@ATL@@QAE@XZ
__unwindfunclet$?OnBtnAdd@CRealPacketPage@@IAEXXZ$2:
  00012	8d 4d d0	 lea	 ecx, DWORD PTR _Field$[ebp]
  00015	ff 25 00 00 00
	00		 jmp	 DWORD PTR __imp_??1?$CStringT@DV?$StrTraitMFC_DLL@DV?$ChTraitsCRT@D@ATL@@@@@ATL@@QAE@XZ
__unwindfunclet$?OnBtnAdd@CRealPacketPage@@IAEXXZ$3:
  0001b	8d 4d ec	 lea	 ecx, DWORD PTR _KeyName$[ebp]
  0001e	ff 25 00 00 00
	00		 jmp	 DWORD PTR __imp_??1?$CStringT@DV?$StrTraitMFC_DLL@DV?$ChTraitsCRT@D@ATL@@@@@ATL@@QAE@XZ
__unwindfunclet$?OnBtnAdd@CRealPacketPage@@IAEXXZ$4:
  00024	8d 4d f0	 lea	 ecx, DWORD PTR _szOneAdvise$[ebp]
  00027	ff 25 00 00 00
	00		 jmp	 DWORD PTR __imp_??1?$CStringT@DV?$StrTraitMFC_DLL@DV?$ChTraitsCRT@D@ATL@@@@@ATL@@QAE@XZ
__unwindfunclet$?OnBtnAdd@CRealPacketPage@@IAEXXZ$5:
  0002d	8d 4d e0	 lea	 ecx, DWORD PTR $T7[ebp]
  00030	ff 25 00 00 00
	00		 jmp	 DWORD PTR __imp_??1?$CStringT@DV?$StrTraitMFC_DLL@DV?$ChTraitsCRT@D@ATL@@@@@ATL@@QAE@XZ
__unwindfunclet$?OnBtnAdd@CRealPacketPage@@IAEXXZ$6:
  00036	8d 4d d4	 lea	 ecx, DWORD PTR $T3[ebp]
  00039	ff 25 00 00 00
	00		 jmp	 DWORD PTR __imp_??1?$CStringT@DV?$StrTraitMFC_DLL@DV?$ChTraitsCRT@D@ATL@@@@@ATL@@QAE@XZ
__unwindfunclet$?OnBtnAdd@CRealPacketPage@@IAEXXZ$7:
  0003f	8d 4d d4	 lea	 ecx, DWORD PTR $T2[ebp]
  00042	ff 25 00 00 00
	00		 jmp	 DWORD PTR __imp_??1?$CStringT@DV?$StrTraitMFC_DLL@DV?$ChTraitsCRT@D@ATL@@@@@ATL@@QAE@XZ
__unwindfunclet$?OnBtnAdd@CRealPacketPage@@IAEXXZ$8:
  00048	8d 4d d8	 lea	 ecx, DWORD PTR $T4[ebp]
  0004b	ff 25 00 00 00
	00		 jmp	 DWORD PTR __imp_??1?$CStringT@DV?$StrTraitMFC_DLL@DV?$ChTraitsCRT@D@ATL@@@@@ATL@@QAE@XZ
__unwindfunclet$?OnBtnAdd@CRealPacketPage@@IAEXXZ$9:
  00051	8d 4d dc	 lea	 ecx, DWORD PTR $T5[ebp]
  00054	ff 25 00 00 00
	00		 jmp	 DWORD PTR __imp_??1?$CStringT@DV?$StrTraitMFC_DLL@DV?$ChTraitsCRT@D@ATL@@@@@ATL@@QAE@XZ
__unwindfunclet$?OnBtnAdd@CRealPacketPage@@IAEXXZ$11:
  0005a	8d 4d d4	 lea	 ecx, DWORD PTR $T2[ebp]
  0005d	ff 25 00 00 00
	00		 jmp	 DWORD PTR __imp_??1?$CStringT@DV?$StrTraitMFC_DLL@DV?$ChTraitsCRT@D@ATL@@@@@ATL@@QAE@XZ
__unwindfunclet$?OnBtnAdd@CRealPacketPage@@IAEXXZ$12:
  00063	8d 4d d8	 lea	 ecx, DWORD PTR $T4[ebp]
  00066	ff 25 00 00 00
	00		 jmp	 DWORD PTR __imp_??1?$CStringT@DV?$StrTraitMFC_DLL@DV?$ChTraitsCRT@D@ATL@@@@@ATL@@QAE@XZ
__unwindfunclet$?OnBtnAdd@CRealPacketPage@@IAEXXZ$13:
  0006c	8d 4d dc	 lea	 ecx, DWORD PTR $T5[ebp]
  0006f	ff 25 00 00 00
	00		 jmp	 DWORD PTR __imp_??1?$CStringT@DV?$StrTraitMFC_DLL@DV?$ChTraitsCRT@D@ATL@@@@@ATL@@QAE@XZ
__unwindfunclet$?OnBtnAdd@CRealPacketPage@@IAEXXZ$14:
  00075	8d 4d e0	 lea	 ecx, DWORD PTR $T6[ebp]
  00078	ff 25 00 00 00
	00		 jmp	 DWORD PTR __imp_??1?$CStringT@DV?$StrTraitMFC_DLL@DV?$ChTraitsCRT@D@ATL@@@@@ATL@@QAE@XZ
  0007e	cc		 int	 3
  0007f	cc		 int	 3
  00080	cc		 int	 3
  00081	cc		 int	 3
  00082	cc		 int	 3
__ehhandler$?OnBtnAdd@CRealPacketPage@@IAEXXZ:
  00083	90		 npad	 1
  00084	90		 npad	 1
  00085	8b 54 24 08	 mov	 edx, DWORD PTR [esp+8]
  00089	8d 42 0c	 lea	 eax, DWORD PTR [edx+12]
  0008c	8b 4a cc	 mov	 ecx, DWORD PTR [edx-52]
  0008f	33 c8		 xor	 ecx, eax
  00091	e8 00 00 00 00	 call	 @__security_check_cookie@4
  00096	b8 00 00 00 00	 mov	 eax, OFFSET __ehfuncinfo$?OnBtnAdd@CRealPacketPage@@IAEXXZ
  0009b	e9 00 00 00 00	 jmp	 ___CxxFrameHandler3
text$x	ENDS
?OnBtnAdd@CRealPacketPage@@IAEXXZ ENDP			; CRealPacketPage::OnBtnAdd
; Function compile flags: /Ogtp
; File D:\git\src\IBK\IBK_DRFN\ProjSrc\SrcChartEx\ChartAddIn\ChartDesignPropertyAddIn\ChartDesignPropertyAddIn\RealPacketPage.cpp
; File C:\Program Files (x86)\Microsoft Visual Studio\2019\Community\VC\Tools\MSVC\14.29.30133\atlmfc\include\cstringt.h
; File D:\git\src\IBK\IBK_DRFN\ProjSrc\SrcChartEx\ChartAddIn\ChartDesignPropertyAddIn\ChartDesignPropertyAddIn\RealPacketPage.cpp
; File C:\Program Files (x86)\Microsoft Visual Studio\2019\Community\VC\Tools\MSVC\14.29.30133\atlmfc\include\afxcmn2.inl
; File C:\Program Files (x86)\Microsoft Visual Studio\2019\Community\VC\Tools\MSVC\14.29.30133\atlmfc\include\afxwin2.inl
; File C:\Program Files (x86)\Microsoft Visual Studio\2019\Community\VC\Tools\MSVC\14.29.30133\atlmfc\include\atltypes.h
; File C:\Program Files (x86)\Microsoft Visual Studio\2019\Community\VC\Tools\MSVC\14.29.30133\atlmfc\include\afxwin2.inl
; File D:\git\src\IBK\IBK_DRFN\ProjSrc\SrcChartEx\ChartAddIn\ChartDesignPropertyAddIn\ChartDesignPropertyAddIn\RealPacketPage.cpp
; File C:\Program Files (x86)\Microsoft Visual Studio\2019\Community\VC\Tools\MSVC\14.29.30133\atlmfc\include\atltypes.h
; File D:\git\src\IBK\IBK_DRFN\ProjSrc\SrcChartEx\ChartAddIn\ChartDesignPropertyAddIn\ChartDesignPropertyAddIn\RealPacketPage.cpp
; File C:\Program Files (x86)\Microsoft Visual Studio\2019\Community\VC\Tools\MSVC\14.29.30133\atlmfc\include\atltypes.h
; File D:\git\src\IBK\IBK_DRFN\ProjSrc\SrcChartEx\ChartAddIn\ChartDesignPropertyAddIn\ChartDesignPropertyAddIn\RealPacketPage.cpp
;	COMDAT ?OnInitDialog@CRealPacketPage@@MAEHXZ
_TEXT	SEGMENT
_szDesignPath$ = -420					; size = 4
_rc$2 = -416						; size = 16
_tmp2$ = -400						; size = 128
_tmp3$ = -272						; size = 128
_tmp1$ = -144						; size = 128
__$ArrayPad$ = -16					; size = 4
__$EHRec$ = -12						; size = 12
?OnInitDialog@CRealPacketPage@@MAEHXZ PROC		; CRealPacketPage::OnInitDialog, COMDAT
; _this$ = ecx

; 89   : {

  00000	55		 push	 ebp
  00001	8b ec		 mov	 ebp, esp
  00003	6a ff		 push	 -1
  00005	68 00 00 00 00	 push	 __ehhandler$?OnInitDialog@CRealPacketPage@@MAEHXZ
  0000a	64 a1 00 00 00
	00		 mov	 eax, DWORD PTR fs:0
  00010	50		 push	 eax
  00011	81 ec 9c 01 00
	00		 sub	 esp, 412		; 0000019cH
  00017	a1 00 00 00 00	 mov	 eax, DWORD PTR ___security_cookie
  0001c	33 c5		 xor	 eax, ebp
  0001e	89 45 f0	 mov	 DWORD PTR __$ArrayPad$[ebp], eax
  00021	56		 push	 esi
  00022	57		 push	 edi
  00023	50		 push	 eax
  00024	8d 45 f4	 lea	 eax, DWORD PTR __$EHRec$[ebp]
  00027	64 a3 00 00 00
	00		 mov	 DWORD PTR fs:0, eax
  0002d	8b f9		 mov	 edi, ecx

; 90   : 	CPropertyPage::OnInitDialog();

  0002f	e8 00 00 00 00	 call	 ?OnInitDialog@CDialog@@UAEHXZ ; CDialog::OnInitDialog

; 91   : 
; 92   : 	CString szDesignPath;

  00034	8d 8d 5c fe ff
	ff		 lea	 ecx, DWORD PTR _szDesignPath$[ebp]
  0003a	ff 15 00 00 00
	00		 call	 DWORD PTR __imp_??0?$CStringT@DV?$StrTraitMFC_DLL@DV?$ChTraitsCRT@D@ATL@@@@@ATL@@QAE@XZ

; 93   : 	char tmp1[128],tmp2[128],tmp3[128];
; 94   : 	::GetPrivateProfileString("CURRENT","WORK","",tmp1,sizeof(tmp1),"Hanaro.ini");

  00040	8b 35 00 00 00
	00		 mov	 esi, DWORD PTR __imp__GetPrivateProfileStringA@24
  00046	8d 85 70 ff ff
	ff		 lea	 eax, DWORD PTR _tmp1$[ebp]
  0004c	68 00 00 00 00	 push	 OFFSET ??_C@_0L@CMKEAEB@Hanaro?4ini@
  00051	68 80 00 00 00	 push	 128			; 00000080H
  00056	50		 push	 eax
  00057	68 00 00 00 00	 push	 OFFSET ??_C@_00CNPNBAHC@@
  0005c	68 00 00 00 00	 push	 OFFSET ??_C@_04MCMDPEC@WORK@
  00061	68 00 00 00 00	 push	 OFFSET ??_C@_07EHKOIGEK@CURRENT@
  00066	c7 45 fc 00 00
	00 00		 mov	 DWORD PTR __$EHRec$[ebp+8], 0
  0006d	ff d6		 call	 esi

; 95   : 	::GetPrivateProfileString(tmp1,"PATH","",tmp2,sizeof(tmp2),"Hanaro.ini");

  0006f	68 00 00 00 00	 push	 OFFSET ??_C@_0L@CMKEAEB@Hanaro?4ini@
  00074	68 80 00 00 00	 push	 128			; 00000080H
  00079	8d 85 70 fe ff
	ff		 lea	 eax, DWORD PTR _tmp2$[ebp]
  0007f	50		 push	 eax
  00080	68 00 00 00 00	 push	 OFFSET ??_C@_00CNPNBAHC@@
  00085	68 00 00 00 00	 push	 OFFSET ??_C@_04HBHDLLBA@PATH@
  0008a	8d 85 70 ff ff
	ff		 lea	 eax, DWORD PTR _tmp1$[ebp]
  00090	50		 push	 eax
  00091	ff d6		 call	 esi

; 96   : 	::GetPrivateProfileString(tmp1,"CFGNAME","",tmp3,sizeof(tmp3),"Hanaro.ini");

  00093	68 00 00 00 00	 push	 OFFSET ??_C@_0L@CMKEAEB@Hanaro?4ini@
  00098	68 80 00 00 00	 push	 128			; 00000080H
  0009d	8d 85 f0 fe ff
	ff		 lea	 eax, DWORD PTR _tmp3$[ebp]
  000a3	50		 push	 eax
  000a4	68 00 00 00 00	 push	 OFFSET ??_C@_00CNPNBAHC@@
  000a9	68 00 00 00 00	 push	 OFFSET ??_C@_07DJGOODKM@CFGNAME@
  000ae	8d 85 70 ff ff
	ff		 lea	 eax, DWORD PTR _tmp1$[ebp]
  000b4	50		 push	 eax
  000b5	ff d6		 call	 esi

; 97   :  	szDesignPath.Format("%s\\bin\\%s",tmp2,tmp3);

  000b7	8d 85 f0 fe ff
	ff		 lea	 eax, DWORD PTR _tmp3$[ebp]
  000bd	50		 push	 eax
  000be	8d 85 70 fe ff
	ff		 lea	 eax, DWORD PTR _tmp2$[ebp]
  000c4	50		 push	 eax
  000c5	8d 85 5c fe ff
	ff		 lea	 eax, DWORD PTR _szDesignPath$[ebp]
  000cb	68 00 00 00 00	 push	 OFFSET ??_C@_09NADJJCNC@?$CFs?2bin?2?$CFs@
  000d0	50		 push	 eax
  000d1	ff 15 00 00 00
	00		 call	 DWORD PTR __imp_?Format@?$CStringT@DV?$StrTraitMFC_DLL@DV?$ChTraitsCRT@D@ATL@@@@@ATL@@QAAXPBDZZ
  000d7	83 c4 10	 add	 esp, 16			; 00000010H
; File C:\Program Files (x86)\Microsoft Visual Studio\2019\Community\VC\Tools\MSVC\14.29.30133\atlmfc\include\cstringt.h

; 2567 : 		return( str1.Compare( psz2 ) != 0 );

  000da	8d 8d 5c fe ff
	ff		 lea	 ecx, DWORD PTR _szDesignPath$[ebp]
  000e0	68 00 00 00 00	 push	 OFFSET ??_C@_05MEOKPOAG@?2bin?2@
  000e5	ff 15 00 00 00
	00		 call	 DWORD PTR __imp_?Compare@?$CStringT@DV?$StrTraitMFC_DLL@DV?$ChTraitsCRT@D@ATL@@@@@ATL@@QBEHPBD@Z
  000eb	85 c0		 test	 eax, eax
; File D:\git\src\IBK\IBK_DRFN\ProjSrc\SrcChartEx\ChartAddIn\ChartDesignPropertyAddIn\ChartDesignPropertyAddIn\RealPacketPage.cpp

; 100  : 	if( szDesignPath != "\\bin\\")

  000ed	0f 84 f0 00 00
	00		 je	 $LN2@OnInitDial

; 101  : 	{
; 102  : 		m_TreeCombo.SubclassDlgItem(IDC_PACKET_TREE, this);

  000f3	8b 87 70 03 00
	00		 mov	 eax, DWORD PTR [edi+880]
  000f9	8d 8f 70 03 00
	00		 lea	 ecx, DWORD PTR [edi+880]
  000ff	57		 push	 edi
  00100	68 f8 00 00 00	 push	 248			; 000000f8H
  00105	ff 90 6c 01 00
	00		 call	 DWORD PTR [eax+364]

; 103  : 		m_TreeCombo.SubclassDlgItem(NULL,this);

  0010b	8b 87 70 03 00
	00		 mov	 eax, DWORD PTR [edi+880]
  00111	8d 8f 70 03 00
	00		 lea	 ecx, DWORD PTR [edi+880]
  00117	57		 push	 edi
  00118	6a 00		 push	 0
  0011a	ff 90 6c 01 00
	00		 call	 DWORD PTR [eax+364]

; 104  : 		m_TreeCombo.LoadTableInfo(szDesignPath);

  00120	51		 push	 ecx
  00121	8d 85 5c fe ff
	ff		 lea	 eax, DWORD PTR _szDesignPath$[ebp]
  00127	8b cc		 mov	 ecx, esp
  00129	50		 push	 eax
  0012a	ff 15 00 00 00
	00		 call	 DWORD PTR __imp_??0?$CStringT@DV?$StrTraitMFC_DLL@DV?$ChTraitsCRT@D@ATL@@@@@ATL@@QAE@ABV01@@Z
  00130	8d 8f 70 03 00
	00		 lea	 ecx, DWORD PTR [edi+880]
  00136	e8 00 00 00 00	 call	 ?LoadTableInfo@CTreeCombo@@QAEHV?$CStringT@DV?$StrTraitMFC_DLL@DV?$ChTraitsCRT@D@ATL@@@@@ATL@@@Z ; CTreeCombo::LoadTableInfo
; File C:\Program Files (x86)\Microsoft Visual Studio\2019\Community\VC\Tools\MSVC\14.29.30133\atlmfc\include\afxcmn2.inl

; 117  : 	{ ASSERT(::IsWindow(m_hWnd)); return (DWORD) ::SendMessage(m_hWnd, LVM_SETEXTENDEDLISTVIEWSTYLE, 0, (LPARAM) dwNewStyle); }

  0013b	6a 31		 push	 49			; 00000031H
  0013d	6a 00		 push	 0
  0013f	68 36 10 00 00	 push	 4150			; 00001036H
  00144	ff b7 e0 02 00
	00		 push	 DWORD PTR [edi+736]
  0014a	ff 15 00 00 00
	00		 call	 DWORD PTR __imp__SendMessageA@16
; File C:\Program Files (x86)\Microsoft Visual Studio\2019\Community\VC\Tools\MSVC\14.29.30133\atlmfc\include\afxwin2.inl

; 84   : 	{ ASSERT(::IsWindow(m_hWnd)); ::GetWindowRect(m_hWnd, lpRect); }

  00150	8d 85 60 fe ff
	ff		 lea	 eax, DWORD PTR _rc$2[ebp]
  00156	0f 57 c0	 xorps	 xmm0, xmm0
  00159	50		 push	 eax
  0015a	ff b7 e0 02 00
	00		 push	 DWORD PTR [edi+736]
; File C:\Program Files (x86)\Microsoft Visual Studio\2019\Community\VC\Tools\MSVC\14.29.30133\atlmfc\include\atltypes.h

; 528  : 	left = 0;

  00160	0f 11 85 60 fe
	ff ff		 movups	 XMMWORD PTR _rc$2[ebp], xmm0
; File C:\Program Files (x86)\Microsoft Visual Studio\2019\Community\VC\Tools\MSVC\14.29.30133\atlmfc\include\afxwin2.inl

; 84   : 	{ ASSERT(::IsWindow(m_hWnd)); ::GetWindowRect(m_hWnd, lpRect); }

  00167	ff 15 00 00 00
	00		 call	 DWORD PTR __imp__GetWindowRect@8
; File D:\git\src\IBK\IBK_DRFN\ProjSrc\SrcChartEx\ChartAddIn\ChartDesignPropertyAddIn\ChartDesignPropertyAddIn\RealPacketPage.cpp

; 131  : 	m_lsAdviseList.InsertColumn(0,"Chart Packet",LVCFMT_LEFT, 100);							

  0016d	6a ff		 push	 -1
  0016f	6a 64		 push	 100			; 00000064H
  00171	6a 00		 push	 0
  00173	68 00 00 00 00	 push	 OFFSET ??_C@_0N@DOMKEPNC@Chart?5Packet@
  00178	6a 00		 push	 0
  0017a	8d 8f c0 02 00
	00		 lea	 ecx, DWORD PTR [edi+704]
  00180	e8 00 00 00 00	 call	 ?InsertColumn@CListCtrl@@QAEHHPBDHHH@Z ; CListCtrl::InsertColumn
; File C:\Program Files (x86)\Microsoft Visual Studio\2019\Community\VC\Tools\MSVC\14.29.30133\atlmfc\include\atltypes.h

; 576  : 	return right - left;

  00185	8b 85 68 fe ff
	ff		 mov	 eax, DWORD PTR _rc$2[ebp+8]
; File D:\git\src\IBK\IBK_DRFN\ProjSrc\SrcChartEx\ChartAddIn\ChartDesignPropertyAddIn\ChartDesignPropertyAddIn\RealPacketPage.cpp

; 132  : 	m_lsAdviseList.InsertColumn(1,"Packet Name ",LVCFMT_LEFT, rc.Width()/4);    // Packet Name

  0018b	8d 8f c0 02 00
	00		 lea	 ecx, DWORD PTR [edi+704]
; File C:\Program Files (x86)\Microsoft Visual Studio\2019\Community\VC\Tools\MSVC\14.29.30133\atlmfc\include\atltypes.h

; 576  : 	return right - left;

  00191	2b 85 60 fe ff
	ff		 sub	 eax, DWORD PTR _rc$2[ebp]
; File D:\git\src\IBK\IBK_DRFN\ProjSrc\SrcChartEx\ChartAddIn\ChartDesignPropertyAddIn\ChartDesignPropertyAddIn\RealPacketPage.cpp

; 132  : 	m_lsAdviseList.InsertColumn(1,"Packet Name ",LVCFMT_LEFT, rc.Width()/4);    // Packet Name

  00197	99		 cdq
  00198	83 e2 03	 and	 edx, 3
  0019b	6a ff		 push	 -1
  0019d	03 c2		 add	 eax, edx
  0019f	c1 f8 02	 sar	 eax, 2
  001a2	50		 push	 eax
  001a3	6a 00		 push	 0
  001a5	68 00 00 00 00	 push	 OFFSET ??_C@_0N@NIEAPEJO@Packet?5Name?5@
  001aa	6a 01		 push	 1
  001ac	e8 00 00 00 00	 call	 ?InsertColumn@CListCtrl@@QAEHHPBDHHH@Z ; CListCtrl::InsertColumn

; 133  : 	m_lsAdviseList.InsertColumn(2,"Field Name",LVCFMT_LEFT, 100);				// Field Name

  001b1	6a ff		 push	 -1
  001b3	6a 64		 push	 100			; 00000064H
  001b5	6a 00		 push	 0
  001b7	68 00 00 00 00	 push	 OFFSET ??_C@_0L@FCEOBPAF@Field?5Name@
  001bc	6a 02		 push	 2
  001be	8d 8f c0 02 00
	00		 lea	 ecx, DWORD PTR [edi+704]
  001c4	e8 00 00 00 00	 call	 ?InsertColumn@CListCtrl@@QAEHHPBDHHH@Z ; CListCtrl::InsertColumn

; 134  : 	m_lsAdviseList.InsertColumn(3,"Key Name",LVCFMT_LEFT, 100 );		// Set

  001c9	6a ff		 push	 -1
  001cb	6a 64		 push	 100			; 00000064H
  001cd	6a 00		 push	 0
  001cf	68 00 00 00 00	 push	 OFFSET ??_C@_08JPLKPJEF@Key?5Name@
  001d4	6a 03		 push	 3
  001d6	8d 8f c0 02 00
	00		 lea	 ecx, DWORD PTR [edi+704]
  001dc	e8 00 00 00 00	 call	 ?InsertColumn@CListCtrl@@QAEHHPBDHHH@Z ; CListCtrl::InsertColumn

; 105  : 
; 106  : 		InitList();
; 107  : 	}

  001e1	eb 7b		 jmp	 SHORT $LN3@OnInitDial
$LN2@OnInitDial:

; 108  : 	else
; 109  : 	{
; 110  : 		m_comboPacketList.EnableWindow( FALSE);

  001e3	6a 00		 push	 0
  001e5	8d 8f c0 00 00
	00		 lea	 ecx, DWORD PTR [edi+192]
  001eb	e8 00 00 00 00	 call	 ?EnableWindow@CWnd@@QAEHH@Z ; CWnd::EnableWindow

; 111  : 		m_lsAdviseList.EnableWindow( FALSE);

  001f0	6a 00		 push	 0
  001f2	8d 8f c0 02 00
	00		 lea	 ecx, DWORD PTR [edi+704]
  001f8	e8 00 00 00 00	 call	 ?EnableWindow@CWnd@@QAEHH@Z ; CWnd::EnableWindow

; 112  : 		m_cmbSharedName.EnableWindow( FALSE);

  001fd	6a 00		 push	 0
  001ff	8d 8f 40 02 00
	00		 lea	 ecx, DWORD PTR [edi+576]
  00205	e8 00 00 00 00	 call	 ?EnableWindow@CWnd@@QAEHH@Z ; CWnd::EnableWindow

; 113  : 		GetDlgItem( IDC_PACKET_TREE)->EnableWindow( FALSE);

  0020a	6a 00		 push	 0
  0020c	68 f8 00 00 00	 push	 248			; 000000f8H
  00211	8b cf		 mov	 ecx, edi
  00213	e8 00 00 00 00	 call	 ?GetDlgItem@CWnd@@QBEPAV1@H@Z ; CWnd::GetDlgItem
  00218	8b c8		 mov	 ecx, eax
  0021a	e8 00 00 00 00	 call	 ?EnableWindow@CWnd@@QAEHH@Z ; CWnd::EnableWindow

; 114  : 		GetDlgItem( IDC_BTN_EDIT)->EnableWindow( FALSE);

  0021f	6a 00		 push	 0
  00221	68 31 27 00 00	 push	 10033			; 00002731H
  00226	8b cf		 mov	 ecx, edi
  00228	e8 00 00 00 00	 call	 ?GetDlgItem@CWnd@@QBEPAV1@H@Z ; CWnd::GetDlgItem
  0022d	8b c8		 mov	 ecx, eax
  0022f	e8 00 00 00 00	 call	 ?EnableWindow@CWnd@@QAEHH@Z ; CWnd::EnableWindow

; 115  : 		GetDlgItem( IDC_BTN_ADD)->EnableWindow( FALSE);

  00234	6a 00		 push	 0
  00236	68 14 01 00 00	 push	 276			; 00000114H
  0023b	8b cf		 mov	 ecx, edi
  0023d	e8 00 00 00 00	 call	 ?GetDlgItem@CWnd@@QBEPAV1@H@Z ; CWnd::GetDlgItem
  00242	8b c8		 mov	 ecx, eax
  00244	e8 00 00 00 00	 call	 ?EnableWindow@CWnd@@QAEHH@Z ; CWnd::EnableWindow

; 116  : 		GetDlgItem( IDC_BTN_DEL)->EnableWindow( FALSE);

  00249	6a 00		 push	 0
  0024b	68 15 01 00 00	 push	 277			; 00000115H
  00250	8b cf		 mov	 ecx, edi
  00252	e8 00 00 00 00	 call	 ?GetDlgItem@CWnd@@QBEPAV1@H@Z ; CWnd::GetDlgItem
  00257	8b c8		 mov	 ecx, eax
  00259	e8 00 00 00 00	 call	 ?EnableWindow@CWnd@@QAEHH@Z ; CWnd::EnableWindow
$LN3@OnInitDial:

; 117  : 	}
; 118  : 
; 119  : 	return TRUE;  // return TRUE unless you set the focus to a control

  0025e	8d 8d 5c fe ff
	ff		 lea	 ecx, DWORD PTR _szDesignPath$[ebp]
  00264	ff 15 00 00 00
	00		 call	 DWORD PTR __imp_??1?$CStringT@DV?$StrTraitMFC_DLL@DV?$ChTraitsCRT@D@ATL@@@@@ATL@@QAE@XZ
  0026a	b8 01 00 00 00	 mov	 eax, 1

; 120  : 	              // EXCEPTION: OCX Property Pages should return FALSE
; 121  : }

  0026f	8b 4d f4	 mov	 ecx, DWORD PTR __$EHRec$[ebp]
  00272	64 89 0d 00 00
	00 00		 mov	 DWORD PTR fs:0, ecx
  00279	59		 pop	 ecx
  0027a	5f		 pop	 edi
  0027b	5e		 pop	 esi
  0027c	8b 4d f0	 mov	 ecx, DWORD PTR __$ArrayPad$[ebp]
  0027f	33 cd		 xor	 ecx, ebp
  00281	e8 00 00 00 00	 call	 @__security_check_cookie@4
  00286	8b e5		 mov	 esp, ebp
  00288	5d		 pop	 ebp
  00289	c3		 ret	 0
_TEXT	ENDS
;	COMDAT text$x
text$x	SEGMENT
__unwindfunclet$?OnInitDialog@CRealPacketPage@@MAEHXZ$0:
  00000	8d 8d 5c fe ff
	ff		 lea	 ecx, DWORD PTR _szDesignPath$[ebp]
  00006	ff 25 00 00 00
	00		 jmp	 DWORD PTR __imp_??1?$CStringT@DV?$StrTraitMFC_DLL@DV?$ChTraitsCRT@D@ATL@@@@@ATL@@QAE@XZ
  0000c	cc		 int	 3
  0000d	cc		 int	 3
  0000e	cc		 int	 3
  0000f	cc		 int	 3
  00010	cc		 int	 3
__ehhandler$?OnInitDialog@CRealPacketPage@@MAEHXZ:
  00011	90		 npad	 1
  00012	90		 npad	 1
  00013	8b 54 24 08	 mov	 edx, DWORD PTR [esp+8]
  00017	8d 42 0c	 lea	 eax, DWORD PTR [edx+12]
  0001a	8b 8a 58 fe ff
	ff		 mov	 ecx, DWORD PTR [edx-424]
  00020	33 c8		 xor	 ecx, eax
  00022	e8 00 00 00 00	 call	 @__security_check_cookie@4
  00027	8b 4a fc	 mov	 ecx, DWORD PTR [edx-4]
  0002a	33 c8		 xor	 ecx, eax
  0002c	e8 00 00 00 00	 call	 @__security_check_cookie@4
  00031	b8 00 00 00 00	 mov	 eax, OFFSET __ehfuncinfo$?OnInitDialog@CRealPacketPage@@MAEHXZ
  00036	e9 00 00 00 00	 jmp	 ___CxxFrameHandler3
text$x	ENDS
?OnInitDialog@CRealPacketPage@@MAEHXZ ENDP		; CRealPacketPage::OnInitDialog
; Function compile flags: /Ogtp
; File D:\git\src\IBK\IBK_DRFN\ProjSrc\SrcChartEx\ChartAddIn\ChartDesignPropertyAddIn\ChartDesignPropertyAddIn\RealPacketPage.cpp
;	COMDAT ?DoDataExchange@CRealPacketPage@@MAEXPAVCDataExchange@@@Z
_TEXT	SEGMENT
_pDX$ = 8						; size = 4
?DoDataExchange@CRealPacketPage@@MAEXPAVCDataExchange@@@Z PROC ; CRealPacketPage::DoDataExchange, COMDAT
; _this$ = ecx

; 54   : {

  00000	55		 push	 ebp
  00001	8b ec		 mov	 ebp, esp
  00003	56		 push	 esi

; 55   : 	CPropertyPage::DoDataExchange(pDX);
; 56   : 	//{{AFX_DATA_MAP(CRealPacketPage)
; 57   : 	DDX_Control(pDX, IDC_COMBO_PACKETLIST, m_comboPacketList);

  00004	8b 75 08	 mov	 esi, DWORD PTR _pDX$[ebp]
  00007	57		 push	 edi
  00008	8b f9		 mov	 edi, ecx
  0000a	8d 87 c0 00 00
	00		 lea	 eax, DWORD PTR [edi+192]
  00010	50		 push	 eax
  00011	68 2e 27 00 00	 push	 10030			; 0000272eH
  00016	56		 push	 esi
  00017	e8 00 00 00 00	 call	 ?DDX_Control@@YGXPAVCDataExchange@@HAAVCWnd@@@Z ; DDX_Control

; 58   : 	DDX_Control(pDX, IDC_COMBO_BASEPACKET, m_comboBasePacket);

  0001c	8d 87 40 01 00
	00		 lea	 eax, DWORD PTR [edi+320]
  00022	50		 push	 eax
  00023	68 2d 27 00 00	 push	 10029			; 0000272dH
  00028	56		 push	 esi
  00029	e8 00 00 00 00	 call	 ?DDX_Control@@YGXPAVCDataExchange@@HAAVCWnd@@@Z ; DDX_Control

; 59   : 	DDX_Control(pDX, IDC_REAL_LIST, m_RealDataEdit);

  0002e	8d 87 c0 01 00
	00		 lea	 eax, DWORD PTR [edi+448]
  00034	50		 push	 eax
  00035	68 e7 00 00 00	 push	 231			; 000000e7H
  0003a	56		 push	 esi
  0003b	e8 00 00 00 00	 call	 ?DDX_Control@@YGXPAVCDataExchange@@HAAVCWnd@@@Z ; DDX_Control

; 60   : 	DDX_Control(pDX, IDC_CMB_SHAREDNAME, m_cmbSharedName);

  00040	8d 87 40 02 00
	00		 lea	 eax, DWORD PTR [edi+576]
  00046	50		 push	 eax
  00047	68 11 01 00 00	 push	 273			; 00000111H
  0004c	56		 push	 esi
  0004d	e8 00 00 00 00	 call	 ?DDX_Control@@YGXPAVCDataExchange@@HAAVCWnd@@@Z ; DDX_Control

; 61   : 	DDX_Control(pDX, IDC_ADVISE_LIST, m_lsAdviseList);

  00052	8d 87 c0 02 00
	00		 lea	 eax, DWORD PTR [edi+704]
  00058	50		 push	 eax
  00059	68 33 27 00 00	 push	 10035			; 00002733H
  0005e	56		 push	 esi
  0005f	e8 00 00 00 00	 call	 ?DDX_Control@@YGXPAVCDataExchange@@HAAVCWnd@@@Z ; DDX_Control

; 62   : 	DDX_Text(pDX, IDC_SHARE_LIST, m_sLocalSharedList);

  00064	8d 87 40 03 00
	00		 lea	 eax, DWORD PTR [edi+832]
  0006a	50		 push	 eax
  0006b	68 13 01 00 00	 push	 275			; 00000113H
  00070	56		 push	 esi
  00071	e8 00 00 00 00	 call	 ?DDX_Text@@YGXPAVCDataExchange@@HAAV?$CStringT@DV?$StrTraitMFC_DLL@DV?$ChTraitsCRT@D@ATL@@@@@ATL@@@Z ; DDX_Text

; 63   : 	DDX_Text(pDX, IDC_REAL_LIST, m_szRealList);

  00076	8d 87 44 03 00
	00		 lea	 eax, DWORD PTR [edi+836]
  0007c	50		 push	 eax
  0007d	68 e7 00 00 00	 push	 231			; 000000e7H
  00082	56		 push	 esi
  00083	e8 00 00 00 00	 call	 ?DDX_Text@@YGXPAVCDataExchange@@HAAV?$CStringT@DV?$StrTraitMFC_DLL@DV?$ChTraitsCRT@D@ATL@@@@@ATL@@@Z ; DDX_Text

; 64   : 	DDX_CBString(pDX, IDC_PACKET_TREE, m_strPacket);

  00088	8d 87 48 03 00
	00		 lea	 eax, DWORD PTR [edi+840]
  0008e	50		 push	 eax
  0008f	68 f8 00 00 00	 push	 248			; 000000f8H
  00094	56		 push	 esi
  00095	e8 00 00 00 00	 call	 ?DDX_CBString@@YGXPAVCDataExchange@@HAAV?$CStringT@DV?$StrTraitMFC_DLL@DV?$ChTraitsCRT@D@ATL@@@@@ATL@@@Z ; DDX_CBString

; 65   : 	DDX_CBString(pDX, IDC_CMB_SHAREDNAME, m_szKeyName);

  0009a	8d 87 4c 03 00
	00		 lea	 eax, DWORD PTR [edi+844]
  000a0	50		 push	 eax
  000a1	68 11 01 00 00	 push	 273			; 00000111H
  000a6	56		 push	 esi
  000a7	e8 00 00 00 00	 call	 ?DDX_CBString@@YGXPAVCDataExchange@@HAAV?$CStringT@DV?$StrTraitMFC_DLL@DV?$ChTraitsCRT@D@ATL@@@@@ATL@@@Z ; DDX_CBString

; 66   : 	DDX_Check(pDX, IDC_USE_REALDATA, m_bUseRealData);

  000ac	8d 87 50 03 00
	00		 lea	 eax, DWORD PTR [edi+848]
  000b2	50		 push	 eax
  000b3	68 e4 00 00 00	 push	 228			; 000000e4H
  000b8	56		 push	 esi
  000b9	e8 00 00 00 00	 call	 ?DDX_Check@@YGXPAVCDataExchange@@HAAH@Z ; DDX_Check

; 67   : 	DDX_Text(pDX, IDC_PACKETSIZE, m_nPacketSize);

  000be	8d 87 54 03 00
	00		 lea	 eax, DWORD PTR [edi+852]
  000c4	50		 push	 eax
  000c5	68 ce 1b 00 00	 push	 7118			; 00001bceH
  000ca	56		 push	 esi
  000cb	e8 00 00 00 00	 call	 ?DDX_Text@@YGXPAVCDataExchange@@HAAH@Z ; DDX_Text

; 68   : 	DDX_Check(pDX, IDC_REDRAWINCASEOFAPPLYINGALLPACKET, m_bRedrawInCaseOfRealApplyToAllPacket);

  000d0	8d 87 58 03 00
	00		 lea	 eax, DWORD PTR [edi+856]
  000d6	50		 push	 eax
  000d7	68 cf 1b 00 00	 push	 7119			; 00001bcfH
  000dc	56		 push	 esi
  000dd	e8 00 00 00 00	 call	 ?DDX_Check@@YGXPAVCDataExchange@@HAAH@Z ; DDX_Check

; 69   : 	DDX_Check(pDX, IDC_CHECK_FIREEVENT, m_bFireRealEvent);

  000e2	8d 87 5c 03 00
	00		 lea	 eax, DWORD PTR [edi+860]
  000e8	50		 push	 eax
  000e9	68 d1 1b 00 00	 push	 7121			; 00001bd1H
  000ee	56		 push	 esi
  000ef	e8 00 00 00 00	 call	 ?DDX_Check@@YGXPAVCDataExchange@@HAAH@Z ; DDX_Check
  000f4	5f		 pop	 edi
  000f5	5e		 pop	 esi

; 70   : 	//}}AFX_DATA_MAP
; 71   : }

  000f6	5d		 pop	 ebp
  000f7	c2 04 00	 ret	 4
?DoDataExchange@CRealPacketPage@@MAEXPAVCDataExchange@@@Z ENDP ; CRealPacketPage::DoDataExchange
_TEXT	ENDS
; Function compile flags: /Ogtp
; File D:\git\src\IBK\IBK_DRFN\ProjSrc\SrcChartEx\ChartAddIn\ChartDesignPropertyAddIn\ChartDesignPropertyAddIn\RealPacketPage.cpp
;	COMDAT ?OnKillActive@CRealPacketPage@@UAEHXZ
_TEXT	SEGMENT
?OnKillActive@CRealPacketPage@@UAEHXZ PROC		; CRealPacketPage::OnKillActive, COMDAT
; _this$ = ecx

; 364  : {

  00000	56		 push	 esi
  00001	8b f1		 mov	 esi, ecx

; 365  : 	MakeRealList();	

  00003	e8 00 00 00 00	 call	 ?MakeRealList@CRealPacketPage@@AAEXXZ ; CRealPacketPage::MakeRealList

; 366  : 	return CPropertyPage::OnKillActive();

  00008	8b ce		 mov	 ecx, esi
  0000a	5e		 pop	 esi
  0000b	e9 00 00 00 00	 jmp	 ?OnKillActive@CPropertyPage@@UAEHXZ ; CPropertyPage::OnKillActive
?OnKillActive@CRealPacketPage@@UAEHXZ ENDP		; CRealPacketPage::OnKillActive
_TEXT	ENDS
; Function compile flags: /Ogtp
; File D:\git\src\IBK\IBK_DRFN\ProjSrc\SrcChartEx\ChartAddIn\ChartDesignPropertyAddIn\ChartDesignPropertyAddIn\RealPacketPage.cpp
;	COMDAT ?OnApply@CRealPacketPage@@UAEHXZ
_TEXT	SEGMENT
_strData$ = -16						; size = 4
__$EHRec$ = -12						; size = 12
?OnApply@CRealPacketPage@@UAEHXZ PROC			; CRealPacketPage::OnApply, COMDAT
; _this$ = ecx

; 454  : {

  00000	55		 push	 ebp
  00001	8b ec		 mov	 ebp, esp
  00003	6a ff		 push	 -1
  00005	68 00 00 00 00	 push	 __ehhandler$?OnApply@CRealPacketPage@@UAEHXZ
  0000a	64 a1 00 00 00
	00		 mov	 eax, DWORD PTR fs:0
  00010	50		 push	 eax
  00011	51		 push	 ecx
  00012	53		 push	 ebx
  00013	56		 push	 esi
  00014	57		 push	 edi
  00015	a1 00 00 00 00	 mov	 eax, DWORD PTR ___security_cookie
  0001a	33 c5		 xor	 eax, ebp
  0001c	50		 push	 eax
  0001d	8d 45 f4	 lea	 eax, DWORD PTR __$EHRec$[ebp]
  00020	64 a3 00 00 00
	00		 mov	 DWORD PTR fs:0, eax
  00026	8b f9		 mov	 edi, ecx

; 455  : 	UpdateData(FALSE);

  00028	6a 00		 push	 0
  0002a	e8 00 00 00 00	 call	 ?UpdateData@CWnd@@QAEHH@Z ; CWnd::UpdateData

; 456  : 
; 457  : 	// (2006/7/5 - Seung-Won, Bae) Use IPropertyMap
; 458  : 	CHART_ADDTOSTRLIST_START( TRUE)

  0002f	8d 4d f0	 lea	 ecx, DWORD PTR _strData$[ebp]
  00032	ff 15 00 00 00
	00		 call	 DWORD PTR __imp_??0?$CStringT@DV?$StrTraitMFC_DLL@DV?$ChTraitsCRT@D@ATL@@@@@ATL@@QAE@XZ

; 459  : 		CHART_ADDTOSTRLIST_BOOL(	m_pIPropertyMap, g_anPropertyShortKey[	BUSEREALDATA			], m_bUseRealData,							_DPV_BUSEREALDATA			);

  00038	8b 8f b4 05 00
	00		 mov	 ecx, DWORD PTR [edi+1460]
  0003e	be 00 00 00 00	 mov	 esi, OFFSET ??_C@_01HIHLOKLC@1@
  00043	83 bf 50 03 00
	00 00		 cmp	 DWORD PTR [edi+848], 0
  0004a	8b c6		 mov	 eax, esi
  0004c	bb 00 00 00 00	 mov	 ebx, OFFSET ??_C@_01GBGANLPD@0@
  00051	c7 45 fc 00 00
	00 00		 mov	 DWORD PTR __$EHRec$[ebp+8], 0
  00058	0f 44 c3	 cmove	 eax, ebx
  0005b	8b 11		 mov	 edx, DWORD PTR [ecx]
  0005d	50		 push	 eax
  0005e	ff 35 ac 00 00
	00		 push	 DWORD PTR ?g_anPropertyShortKey@@3PAPADA+172
  00064	ff 52 14	 call	 DWORD PTR [edx+20]

; 460  : 		CHART_ADDTOSTRLIST_STRING(	m_pIPropertyMap, g_anPropertyShortKey[	STRREALLIST				], m_szRealList,							_DPV_STRREALLIST			);

  00067	8b 8f b4 05 00
	00		 mov	 ecx, DWORD PTR [edi+1460]
  0006d	ff b7 44 03 00
	00		 push	 DWORD PTR [edi+836]
  00073	ff 35 b0 00 00
	00		 push	 DWORD PTR ?g_anPropertyShortKey@@3PAPADA+176
  00079	8b 01		 mov	 eax, DWORD PTR [ecx]
  0007b	ff 50 14	 call	 DWORD PTR [eax+20]

; 461  : 		CHART_ADDTOSTRLIST_INT(		m_pIPropertyMap, g_anPropertyShortKey[	nHoldingPacketSize		], m_nPacketSize,							_DPV_nHoldingPacketSize		);

  0007e	ff b7 54 03 00
	00		 push	 DWORD PTR [edi+852]
  00084	8d 45 f0	 lea	 eax, DWORD PTR _strData$[ebp]
  00087	68 00 00 00 00	 push	 OFFSET ??_C@_02DPKJAMEF@?$CFd@
  0008c	50		 push	 eax
  0008d	ff 15 00 00 00
	00		 call	 DWORD PTR __imp_?Format@?$CStringT@DV?$StrTraitMFC_DLL@DV?$ChTraitsCRT@D@ATL@@@@@ATL@@QAAXPBDZZ
  00093	8b 8f b4 05 00
	00		 mov	 ecx, DWORD PTR [edi+1460]
  00099	83 c4 0c	 add	 esp, 12			; 0000000cH
  0009c	ff 75 f0	 push	 DWORD PTR _strData$[ebp]
  0009f	8b 01		 mov	 eax, DWORD PTR [ecx]
  000a1	ff 35 f0 00 00
	00		 push	 DWORD PTR ?g_anPropertyShortKey@@3PAPADA+240
  000a7	ff 50 14	 call	 DWORD PTR [eax+20]

; 462  : 		CHART_ADDTOSTRLIST_BOOL(	m_pIPropertyMap, g_anPropertyShortKey[	bYesOrNoRedrawbyReal	], m_bRedrawInCaseOfRealApplyToAllPacket,	_DPV_bYesOrNoRedrawbyReal	);

  000aa	8b 8f b4 05 00
	00		 mov	 ecx, DWORD PTR [edi+1460]
  000b0	8b c6		 mov	 eax, esi
  000b2	83 bf 58 03 00
	00 00		 cmp	 DWORD PTR [edi+856], 0
  000b9	0f 44 c3	 cmove	 eax, ebx
  000bc	8b 11		 mov	 edx, DWORD PTR [ecx]
  000be	50		 push	 eax
  000bf	ff 35 f8 00 00
	00		 push	 DWORD PTR ?g_anPropertyShortKey@@3PAPADA+248
  000c5	ff 52 14	 call	 DWORD PTR [edx+20]

; 463  : 		CHART_ADDTOSTRLIST_STRING(	m_pIPropertyMap, g_anPropertyShortKey[	STRBASEPACKETNAME		], m_szBasePacketName,						_DPV_STRBASEPACKETNAME		);

  000c8	8b 8f b4 05 00
	00		 mov	 ecx, DWORD PTR [edi+1460]
  000ce	ff b7 b0 05 00
	00		 push	 DWORD PTR [edi+1456]
  000d4	ff 35 fc 00 00
	00		 push	 DWORD PTR ?g_anPropertyShortKey@@3PAPADA+252
  000da	8b 01		 mov	 eax, DWORD PTR [ecx]
  000dc	ff 50 14	 call	 DWORD PTR [eax+20]

; 464  : 		CHART_ADDTOSTRLIST_BOOL(	m_pIPropertyMap, g_anPropertyShortKey[	bFIREREALEVENT			], m_bFireRealEvent,						_DPV_bFIREREALEVENT			);

  000df	8b 8f b4 05 00
	00		 mov	 ecx, DWORD PTR [edi+1460]
  000e5	83 bf 5c 03 00
	00 00		 cmp	 DWORD PTR [edi+860], 0
  000ec	0f 44 f3	 cmove	 esi, ebx
  000ef	8b 01		 mov	 eax, DWORD PTR [ecx]
  000f1	56		 push	 esi
  000f2	ff 35 00 01 00
	00		 push	 DWORD PTR ?g_anPropertyShortKey@@3PAPADA+256
  000f8	ff 50 14	 call	 DWORD PTR [eax+20]

; 465  : 	CHART_ADDTOSTRLIST_END
; 466  : 
; 467  : 	return CPropertyPage::OnApply();

  000fb	8b cf		 mov	 ecx, edi
  000fd	e8 00 00 00 00	 call	 ?OnApply@CPropertyPage@@UAEHXZ ; CPropertyPage::OnApply
  00102	8d 4d f0	 lea	 ecx, DWORD PTR _strData$[ebp]
  00105	8b f0		 mov	 esi, eax
  00107	ff 15 00 00 00
	00		 call	 DWORD PTR __imp_??1?$CStringT@DV?$StrTraitMFC_DLL@DV?$ChTraitsCRT@D@ATL@@@@@ATL@@QAE@XZ
  0010d	8b c6		 mov	 eax, esi

; 468  : }

  0010f	8b 4d f4	 mov	 ecx, DWORD PTR __$EHRec$[ebp]
  00112	64 89 0d 00 00
	00 00		 mov	 DWORD PTR fs:0, ecx
  00119	59		 pop	 ecx
  0011a	5f		 pop	 edi
  0011b	5e		 pop	 esi
  0011c	5b		 pop	 ebx
  0011d	8b e5		 mov	 esp, ebp
  0011f	5d		 pop	 ebp
  00120	c3		 ret	 0
_TEXT	ENDS
;	COMDAT text$x
text$x	SEGMENT
__unwindfunclet$?OnApply@CRealPacketPage@@UAEHXZ$0:
  00000	8d 4d f0	 lea	 ecx, DWORD PTR _strData$[ebp]
  00003	ff 25 00 00 00
	00		 jmp	 DWORD PTR __imp_??1?$CStringT@DV?$StrTraitMFC_DLL@DV?$ChTraitsCRT@D@ATL@@@@@ATL@@QAE@XZ
  00009	cc		 int	 3
  0000a	cc		 int	 3
  0000b	cc		 int	 3
  0000c	cc		 int	 3
  0000d	cc		 int	 3
__ehhandler$?OnApply@CRealPacketPage@@UAEHXZ:
  0000e	90		 npad	 1
  0000f	90		 npad	 1
  00010	8b 54 24 08	 mov	 edx, DWORD PTR [esp+8]
  00014	8d 42 0c	 lea	 eax, DWORD PTR [edx+12]
  00017	8b 4a ec	 mov	 ecx, DWORD PTR [edx-20]
  0001a	33 c8		 xor	 ecx, eax
  0001c	e8 00 00 00 00	 call	 @__security_check_cookie@4
  00021	b8 00 00 00 00	 mov	 eax, OFFSET __ehfuncinfo$?OnApply@CRealPacketPage@@UAEHXZ
  00026	e9 00 00 00 00	 jmp	 ___CxxFrameHandler3
text$x	ENDS
?OnApply@CRealPacketPage@@UAEHXZ ENDP			; CRealPacketPage::OnApply
; Function compile flags: /Ogtp
; File D:\git\src\IBK\IBK_DRFN\ProjSrc\SrcChartEx\ChartAddIn\ChartDesignPropertyAddIn\ChartDesignPropertyAddIn\RealPacketPage.cpp
; File C:\Program Files (x86)\Microsoft Visual Studio\2019\Community\VC\Tools\MSVC\14.29.30133\atlmfc\include\afxwin2.inl
; File D:\git\src\IBK\IBK_DRFN\ProjSrc\SrcChartEx\ChartAddIn\ChartDesignPropertyAddIn\ChartDesignPropertyAddIn\RealPacketPage.cpp
; File C:\Program Files (x86)\Microsoft Visual Studio\2019\Community\VC\Tools\MSVC\14.29.30133\atlmfc\include\cstringt.h
; File D:\git\src\IBK\IBK_DRFN\ProjSrc\SrcChartEx\ChartAddIn\ChartDesignPropertyAddIn\ChartDesignPropertyAddIn\RealPacketPage.cpp
; File C:\Program Files (x86)\Microsoft Visual Studio\2019\Community\VC\Tools\MSVC\14.29.30133\atlmfc\include\cstringt.h
; File D:\git\src\IBK\IBK_DRFN\ProjSrc\SrcChartEx\ChartAddIn\ChartDesignPropertyAddIn\ChartDesignPropertyAddIn\RealPacketPage.cpp
; File C:\Program Files (x86)\Microsoft Visual Studio\2019\Community\VC\Tools\MSVC\14.29.30133\atlmfc\include\afxwin2.inl
; File D:\git\src\IBK\IBK_DRFN\ProjSrc\SrcChartEx\ChartAddIn\ChartDesignPropertyAddIn\ChartDesignPropertyAddIn\RealPacketPage.cpp
; File C:\Program Files (x86)\Microsoft Visual Studio\2019\Community\VC\Tools\MSVC\14.29.30133\atlmfc\include\cstringt.h
; File D:\git\src\IBK\IBK_DRFN\ProjSrc\SrcChartEx\ChartAddIn\ChartDesignPropertyAddIn\ChartDesignPropertyAddIn\RealPacketPage.cpp
; File C:\Program Files (x86)\Microsoft Visual Studio\2019\Community\VC\Tools\MSVC\14.29.30133\atlmfc\include\afxwin2.inl
; File D:\git\src\IBK\IBK_DRFN\ProjSrc\SrcChartEx\ChartAddIn\ChartDesignPropertyAddIn\ChartDesignPropertyAddIn\RealPacketPage.cpp
;	COMDAT ?OnSetActive@CRealPacketPage@@UAEHXZ
_TEXT	SEGMENT
$T2 = -28						; size = 4
$T3 = -28						; size = 4
$T4 = -24						; size = 4
$T5 = -24						; size = 4
_szRealPackets$6 = -20					; size = 4
_szPacketName$7 = -16					; size = 4
__$EHRec$ = -12						; size = 12
?OnSetActive@CRealPacketPage@@UAEHXZ PROC		; CRealPacketPage::OnSetActive, COMDAT
; _this$ = ecx

; 338  : {

  00000	55		 push	 ebp
  00001	8b ec		 mov	 ebp, esp
  00003	6a ff		 push	 -1
  00005	68 00 00 00 00	 push	 __ehhandler$?OnSetActive@CRealPacketPage@@UAEHXZ
  0000a	64 a1 00 00 00
	00		 mov	 eax, DWORD PTR fs:0
  00010	50		 push	 eax
  00011	83 ec 14	 sub	 esp, 20			; 00000014H
  00014	53		 push	 ebx
  00015	56		 push	 esi
  00016	57		 push	 edi
  00017	a1 00 00 00 00	 mov	 eax, DWORD PTR ___security_cookie
  0001c	33 c5		 xor	 eax, ebp
  0001e	50		 push	 eax
  0001f	8d 45 f4	 lea	 eax, DWORD PTR __$EHRec$[ebp]
  00022	64 a3 00 00 00
	00		 mov	 DWORD PTR fs:0, eax
  00028	8b f1		 mov	 esi, ecx

; 339  : 	Init_AdviseList();

  0002a	e8 00 00 00 00	 call	 ?Init_AdviseList@CRealPacketPage@@AAEXXZ ; CRealPacketPage::Init_AdviseList

; 340  : 
; 341  : 	InitSharedListCombo(&m_cmbSharedName, m_sLocalSharedList);

  0002f	51		 push	 ecx
  00030	8d 86 40 03 00
	00		 lea	 eax, DWORD PTR [esi+832]
  00036	8b cc		 mov	 ecx, esp
  00038	50		 push	 eax
  00039	ff 15 00 00 00
	00		 call	 DWORD PTR __imp_??0?$CStringT@DV?$StrTraitMFC_DLL@DV?$ChTraitsCRT@D@ATL@@@@@ATL@@QAE@ABV01@@Z
  0003f	8d 86 40 02 00
	00		 lea	 eax, DWORD PTR [esi+576]
  00045	8b ce		 mov	 ecx, esi
  00047	50		 push	 eax
  00048	e8 00 00 00 00	 call	 ?InitSharedListCombo@CRealPacketPage@@AAEHPAVCComboBox@@V?$CStringT@DV?$StrTraitMFC_DLL@DV?$ChTraitsCRT@D@ATL@@@@@ATL@@@Z ; CRealPacketPage::InitSharedListCombo

; 342  : 	InitBasePacketCombo();

  0004d	8b ce		 mov	 ecx, esi
  0004f	e8 00 00 00 00	 call	 ?InitBasePacketCombo@CRealPacketPage@@AAEXXZ ; CRealPacketPage::InitBasePacketCombo
; File C:\Program Files (x86)\Microsoft Visual Studio\2019\Community\VC\Tools\MSVC\14.29.30133\atlmfc\include\afxwin2.inl

; 801  : 	{ ASSERT(::IsWindow(m_hWnd)); ::SendMessage(m_hWnd, CB_RESETCONTENT, 0, 0); }

  00054	8b 3d 00 00 00
	00		 mov	 edi, DWORD PTR __imp__SendMessageA@16
  0005a	6a 00		 push	 0
  0005c	6a 00		 push	 0
  0005e	68 4b 01 00 00	 push	 331			; 0000014bH
  00063	ff b6 e0 00 00
	00		 push	 DWORD PTR [esi+224]
  00069	ff d7		 call	 edi
; File D:\git\src\IBK\IBK_DRFN\ProjSrc\SrcChartEx\ChartAddIn\ChartDesignPropertyAddIn\ChartDesignPropertyAddIn\RealPacketPage.cpp

; 412  : 	if(m_szRealPackets == "")

  0006b	8d 9e 60 03 00
	00		 lea	 ebx, DWORD PTR [esi+864]
; File C:\Program Files (x86)\Microsoft Visual Studio\2019\Community\VC\Tools\MSVC\14.29.30133\atlmfc\include\cstringt.h

; 2486 : 		return(str1.Compare(psz2) == 0);

  00071	68 00 00 00 00	 push	 OFFSET ??_C@_00CNPNBAHC@@
  00076	8b cb		 mov	 ecx, ebx
  00078	ff 15 00 00 00
	00		 call	 DWORD PTR __imp_?Compare@?$CStringT@DV?$StrTraitMFC_DLL@DV?$ChTraitsCRT@D@ATL@@@@@ATL@@QBEHPBD@Z
  0007e	85 c0		 test	 eax, eax
; File D:\git\src\IBK\IBK_DRFN\ProjSrc\SrcChartEx\ChartAddIn\ChartDesignPropertyAddIn\ChartDesignPropertyAddIn\RealPacketPage.cpp

; 412  : 	if(m_szRealPackets == "")

  00080	0f 84 33 01 00
	00		 je	 $LN4@OnSetActiv

; 413  : 		return;
; 414  : 
; 415  : 	CString szPacketName, szRealPackets = m_szRealPackets;

  00086	8d 4d f0	 lea	 ecx, DWORD PTR _szPacketName$7[ebp]
  00089	ff 15 00 00 00
	00		 call	 DWORD PTR __imp_??0?$CStringT@DV?$StrTraitMFC_DLL@DV?$ChTraitsCRT@D@ATL@@@@@ATL@@QAE@XZ
  0008f	53		 push	 ebx
  00090	8d 4d ec	 lea	 ecx, DWORD PTR _szRealPackets$6[ebp]
  00093	c7 45 fc 00 00
	00 00		 mov	 DWORD PTR __$EHRec$[ebp+8], 0
  0009a	ff 15 00 00 00
	00		 call	 DWORD PTR __imp_??0?$CStringT@DV?$StrTraitMFC_DLL@DV?$ChTraitsCRT@D@ATL@@@@@ATL@@QAE@ABV01@@Z

; 416  : 	szPacketName = CDataConversion::GetStringData(szRealPackets, ";");

  000a0	68 00 00 00 00	 push	 OFFSET ??_C@_01ICJEACDI@?$DL@
  000a5	8d 4d e8	 lea	 ecx, DWORD PTR $T5[ebp]
  000a8	c6 45 fc 01	 mov	 BYTE PTR __$EHRec$[ebp+8], 1
  000ac	ff 15 00 00 00
	00		 call	 DWORD PTR __imp_??0?$CStringT@DV?$StrTraitMFC_DLL@DV?$ChTraitsCRT@D@ATL@@@@@ATL@@QAE@PBD@Z
  000b2	6a 01		 push	 1
  000b4	8d 45 e8	 lea	 eax, DWORD PTR $T5[ebp]
  000b7	c6 45 fc 02	 mov	 BYTE PTR __$EHRec$[ebp+8], 2
  000bb	50		 push	 eax
  000bc	8d 45 ec	 lea	 eax, DWORD PTR _szRealPackets$6[ebp]
  000bf	50		 push	 eax
  000c0	8d 45 e4	 lea	 eax, DWORD PTR $T3[ebp]
  000c3	50		 push	 eax
  000c4	e8 00 00 00 00	 call	 ?GetStringData@CDataConversion@@SA?AV?$CStringT@DV?$StrTraitMFC_DLL@DV?$ChTraitsCRT@D@ATL@@@@@ATL@@AAV23@ABV23@_N@Z ; CDataConversion::GetStringData
  000c9	83 c4 10	 add	 esp, 16			; 00000010H
  000cc	50		 push	 eax
  000cd	8d 4d f0	 lea	 ecx, DWORD PTR _szPacketName$7[ebp]
  000d0	c6 45 fc 03	 mov	 BYTE PTR __$EHRec$[ebp+8], 3
  000d4	ff 15 00 00 00
	00		 call	 DWORD PTR __imp_??4?$CStringT@DV?$StrTraitMFC_DLL@DV?$ChTraitsCRT@D@ATL@@@@@ATL@@QAEAAV01@ABV01@@Z
  000da	8d 4d e4	 lea	 ecx, DWORD PTR $T3[ebp]
  000dd	ff 15 00 00 00
	00		 call	 DWORD PTR __imp_??1?$CStringT@DV?$StrTraitMFC_DLL@DV?$ChTraitsCRT@D@ATL@@@@@ATL@@QAE@XZ
  000e3	8d 4d e8	 lea	 ecx, DWORD PTR $T5[ebp]
  000e6	c6 45 fc 01	 mov	 BYTE PTR __$EHRec$[ebp+8], 1
  000ea	ff 15 00 00 00
	00		 call	 DWORD PTR __imp_??1?$CStringT@DV?$StrTraitMFC_DLL@DV?$ChTraitsCRT@D@ATL@@@@@ATL@@QAE@XZ
; File C:\Program Files (x86)\Microsoft Visual Studio\2019\Community\VC\Tools\MSVC\14.29.30133\atlmfc\include\cstringt.h

; 2567 : 		return( str1.Compare( psz2 ) != 0 );

  000f0	68 00 00 00 00	 push	 OFFSET ??_C@_00CNPNBAHC@@
  000f5	8d 4d f0	 lea	 ecx, DWORD PTR _szPacketName$7[ebp]
  000f8	ff 15 00 00 00
	00		 call	 DWORD PTR __imp_?Compare@?$CStringT@DV?$StrTraitMFC_DLL@DV?$ChTraitsCRT@D@ATL@@@@@ATL@@QBEHPBD@Z
  000fe	85 c0		 test	 eax, eax
; File D:\git\src\IBK\IBK_DRFN\ProjSrc\SrcChartEx\ChartAddIn\ChartDesignPropertyAddIn\ChartDesignPropertyAddIn\RealPacketPage.cpp

; 417  : 	while(szPacketName != "") {

  00100	0f 84 89 00 00
	00		 je	 $LN6@OnSetActiv
$LL5@OnSetActiv:

; 418  : 		m_comboPacketList.AddString( _MTOL0( szPacketName));

  00106	6a 00		 push	 0
  00108	ff 75 f0	 push	 DWORD PTR _szPacketName$7[ebp]
  0010b	b9 00 00 00 00	 mov	 ecx, OFFSET ?g_iMetaTable@@3VIMetaTable@@A ; g_iMetaTable
  00110	6a 00		 push	 0
  00112	ff b6 b8 05 00
	00		 push	 DWORD PTR [esi+1464]
  00118	e8 00 00 00 00	 call	 ?GetLanguageText@IMetaTable@@QAEPBDPAUHWND__@@W4E_CODEPAGE@1@PBDH@Z ; IMetaTable::GetLanguageText
; File C:\Program Files (x86)\Microsoft Visual Studio\2019\Community\VC\Tools\MSVC\14.29.30133\atlmfc\include\afxwin2.inl

; 795  : 	{ ASSERT(::IsWindow(m_hWnd)); return (int)::SendMessage(m_hWnd, CB_ADDSTRING, 0, (LPARAM)lpszString); }

  0011d	50		 push	 eax
  0011e	6a 00		 push	 0
  00120	68 43 01 00 00	 push	 323			; 00000143H
  00125	ff b6 e0 00 00
	00		 push	 DWORD PTR [esi+224]
  0012b	ff d7		 call	 edi
; File D:\git\src\IBK\IBK_DRFN\ProjSrc\SrcChartEx\ChartAddIn\ChartDesignPropertyAddIn\ChartDesignPropertyAddIn\RealPacketPage.cpp

; 419  : 		szPacketName = CDataConversion::GetStringData(szRealPackets, ";");

  0012d	68 00 00 00 00	 push	 OFFSET ??_C@_01ICJEACDI@?$DL@
  00132	8d 4d e8	 lea	 ecx, DWORD PTR $T4[ebp]
  00135	ff 15 00 00 00
	00		 call	 DWORD PTR __imp_??0?$CStringT@DV?$StrTraitMFC_DLL@DV?$ChTraitsCRT@D@ATL@@@@@ATL@@QAE@PBD@Z
  0013b	6a 01		 push	 1
  0013d	8d 45 e8	 lea	 eax, DWORD PTR $T4[ebp]
  00140	c6 45 fc 04	 mov	 BYTE PTR __$EHRec$[ebp+8], 4
  00144	50		 push	 eax
  00145	8d 45 ec	 lea	 eax, DWORD PTR _szRealPackets$6[ebp]
  00148	50		 push	 eax
  00149	8d 45 e4	 lea	 eax, DWORD PTR $T2[ebp]
  0014c	50		 push	 eax
  0014d	e8 00 00 00 00	 call	 ?GetStringData@CDataConversion@@SA?AV?$CStringT@DV?$StrTraitMFC_DLL@DV?$ChTraitsCRT@D@ATL@@@@@ATL@@AAV23@ABV23@_N@Z ; CDataConversion::GetStringData
  00152	83 c4 10	 add	 esp, 16			; 00000010H
  00155	50		 push	 eax
  00156	8d 4d f0	 lea	 ecx, DWORD PTR _szPacketName$7[ebp]
  00159	c6 45 fc 05	 mov	 BYTE PTR __$EHRec$[ebp+8], 5
  0015d	ff 15 00 00 00
	00		 call	 DWORD PTR __imp_??4?$CStringT@DV?$StrTraitMFC_DLL@DV?$ChTraitsCRT@D@ATL@@@@@ATL@@QAEAAV01@ABV01@@Z
  00163	8d 4d e4	 lea	 ecx, DWORD PTR $T2[ebp]
  00166	ff 15 00 00 00
	00		 call	 DWORD PTR __imp_??1?$CStringT@DV?$StrTraitMFC_DLL@DV?$ChTraitsCRT@D@ATL@@@@@ATL@@QAE@XZ
  0016c	8d 4d e8	 lea	 ecx, DWORD PTR $T4[ebp]
  0016f	c6 45 fc 01	 mov	 BYTE PTR __$EHRec$[ebp+8], 1
  00173	ff 15 00 00 00
	00		 call	 DWORD PTR __imp_??1?$CStringT@DV?$StrTraitMFC_DLL@DV?$ChTraitsCRT@D@ATL@@@@@ATL@@QAE@XZ
; File C:\Program Files (x86)\Microsoft Visual Studio\2019\Community\VC\Tools\MSVC\14.29.30133\atlmfc\include\cstringt.h

; 2567 : 		return( str1.Compare( psz2 ) != 0 );

  00179	68 00 00 00 00	 push	 OFFSET ??_C@_00CNPNBAHC@@
  0017e	8d 4d f0	 lea	 ecx, DWORD PTR _szPacketName$7[ebp]
  00181	ff 15 00 00 00
	00		 call	 DWORD PTR __imp_?Compare@?$CStringT@DV?$StrTraitMFC_DLL@DV?$ChTraitsCRT@D@ATL@@@@@ATL@@QBEHPBD@Z
  00187	85 c0		 test	 eax, eax
; File D:\git\src\IBK\IBK_DRFN\ProjSrc\SrcChartEx\ChartAddIn\ChartDesignPropertyAddIn\ChartDesignPropertyAddIn\RealPacketPage.cpp

; 417  : 	while(szPacketName != "") {

  00189	0f 85 77 ff ff
	ff		 jne	 $LL5@OnSetActiv
$LN6@OnSetActiv:
; File C:\Program Files (x86)\Microsoft Visual Studio\2019\Community\VC\Tools\MSVC\14.29.30133\atlmfc\include\afxwin2.inl

; 767  : 	{ ASSERT(::IsWindow(m_hWnd)); return (int)::SendMessage(m_hWnd, CB_SETCURSEL, nSelect, 0); }

  0018f	6a 00		 push	 0
  00191	6a 00		 push	 0
  00193	68 4e 01 00 00	 push	 334			; 0000014eH
  00198	ff b6 e0 00 00
	00		 push	 DWORD PTR [esi+224]
  0019e	ff d7		 call	 edi
; File D:\git\src\IBK\IBK_DRFN\ProjSrc\SrcChartEx\ChartAddIn\ChartDesignPropertyAddIn\ChartDesignPropertyAddIn\RealPacketPage.cpp

; 423  : }

  001a0	8d 4d ec	 lea	 ecx, DWORD PTR _szRealPackets$6[ebp]
  001a3	ff 15 00 00 00
	00		 call	 DWORD PTR __imp_??1?$CStringT@DV?$StrTraitMFC_DLL@DV?$ChTraitsCRT@D@ATL@@@@@ATL@@QAE@XZ
  001a9	8d 4d f0	 lea	 ecx, DWORD PTR _szPacketName$7[ebp]
  001ac	c7 45 fc ff ff
	ff ff		 mov	 DWORD PTR __$EHRec$[ebp+8], -1
  001b3	ff 15 00 00 00
	00		 call	 DWORD PTR __imp_??1?$CStringT@DV?$StrTraitMFC_DLL@DV?$ChTraitsCRT@D@ATL@@@@@ATL@@QAE@XZ
$LN4@OnSetActiv:

; 343  : 	InitPacketListCombo();
; 344  : 
; 345  : 	return CPropertyPage::OnSetActive();

  001b9	8b ce		 mov	 ecx, esi
  001bb	e8 00 00 00 00	 call	 ?OnSetActive@CPropertyPage@@UAEHXZ ; CPropertyPage::OnSetActive

; 346  : }

  001c0	8b 4d f4	 mov	 ecx, DWORD PTR __$EHRec$[ebp]
  001c3	64 89 0d 00 00
	00 00		 mov	 DWORD PTR fs:0, ecx
  001ca	59		 pop	 ecx
  001cb	5f		 pop	 edi
  001cc	5e		 pop	 esi
  001cd	5b		 pop	 ebx
  001ce	8b e5		 mov	 esp, ebp
  001d0	5d		 pop	 ebp
  001d1	c3		 ret	 0
_TEXT	ENDS
;	COMDAT text$x
text$x	SEGMENT
__unwindfunclet$?OnSetActive@CRealPacketPage@@UAEHXZ$1:
  00000	8d 4d f0	 lea	 ecx, DWORD PTR _szPacketName$7[ebp]
  00003	ff 25 00 00 00
	00		 jmp	 DWORD PTR __imp_??1?$CStringT@DV?$StrTraitMFC_DLL@DV?$ChTraitsCRT@D@ATL@@@@@ATL@@QAE@XZ
__unwindfunclet$?OnSetActive@CRealPacketPage@@UAEHXZ$2:
  00009	8d 4d ec	 lea	 ecx, DWORD PTR _szRealPackets$6[ebp]
  0000c	ff 25 00 00 00
	00		 jmp	 DWORD PTR __imp_??1?$CStringT@DV?$StrTraitMFC_DLL@DV?$ChTraitsCRT@D@ATL@@@@@ATL@@QAE@XZ
__unwindfunclet$?OnSetActive@CRealPacketPage@@UAEHXZ$3:
  00012	8d 4d e8	 lea	 ecx, DWORD PTR $T5[ebp]
  00015	ff 25 00 00 00
	00		 jmp	 DWORD PTR __imp_??1?$CStringT@DV?$StrTraitMFC_DLL@DV?$ChTraitsCRT@D@ATL@@@@@ATL@@QAE@XZ
__unwindfunclet$?OnSetActive@CRealPacketPage@@UAEHXZ$4:
  0001b	8d 4d e4	 lea	 ecx, DWORD PTR $T3[ebp]
  0001e	ff 25 00 00 00
	00		 jmp	 DWORD PTR __imp_??1?$CStringT@DV?$StrTraitMFC_DLL@DV?$ChTraitsCRT@D@ATL@@@@@ATL@@QAE@XZ
__unwindfunclet$?OnSetActive@CRealPacketPage@@UAEHXZ$5:
  00024	8d 4d e8	 lea	 ecx, DWORD PTR $T4[ebp]
  00027	ff 25 00 00 00
	00		 jmp	 DWORD PTR __imp_??1?$CStringT@DV?$StrTraitMFC_DLL@DV?$ChTraitsCRT@D@ATL@@@@@ATL@@QAE@XZ
__unwindfunclet$?OnSetActive@CRealPacketPage@@UAEHXZ$6:
  0002d	8d 4d e4	 lea	 ecx, DWORD PTR $T2[ebp]
  00030	ff 25 00 00 00
	00		 jmp	 DWORD PTR __imp_??1?$CStringT@DV?$StrTraitMFC_DLL@DV?$ChTraitsCRT@D@ATL@@@@@ATL@@QAE@XZ
  00036	cc		 int	 3
  00037	cc		 int	 3
  00038	cc		 int	 3
  00039	cc		 int	 3
  0003a	cc		 int	 3
__ehhandler$?OnSetActive@CRealPacketPage@@UAEHXZ:
  0003b	90		 npad	 1
  0003c	90		 npad	 1
  0003d	8b 54 24 08	 mov	 edx, DWORD PTR [esp+8]
  00041	8d 42 0c	 lea	 eax, DWORD PTR [edx+12]
  00044	8b 4a dc	 mov	 ecx, DWORD PTR [edx-36]
  00047	33 c8		 xor	 ecx, eax
  00049	e8 00 00 00 00	 call	 @__security_check_cookie@4
  0004e	b8 00 00 00 00	 mov	 eax, OFFSET __ehfuncinfo$?OnSetActive@CRealPacketPage@@UAEHXZ
  00053	e9 00 00 00 00	 jmp	 ___CxxFrameHandler3
text$x	ENDS
?OnSetActive@CRealPacketPage@@UAEHXZ ENDP		; CRealPacketPage::OnSetActive
; Function compile flags: /Ogtp
; File D:\git\src\IBK\IBK_DRFN\ProjSrc\SrcChartEx\ChartAddIn\ChartDesignPropertyAddIn\ChartDesignPropertyAddIn\RealPacketPage.cpp
;	COMDAT ?SetKeyName@CRealPacketPage@@QAEXV?$CStringT@DV?$StrTraitMFC_DLL@DV?$ChTraitsCRT@D@ATL@@@@@ATL@@@Z
_TEXT	SEGMENT
__$EHRec$ = -12						; size = 12
_keyname$ = 8						; size = 4
?SetKeyName@CRealPacketPage@@QAEXV?$CStringT@DV?$StrTraitMFC_DLL@DV?$ChTraitsCRT@D@ATL@@@@@ATL@@@Z PROC ; CRealPacketPage::SetKeyName, COMDAT
; _this$ = ecx

; 349  : {

  00000	55		 push	 ebp
  00001	8b ec		 mov	 ebp, esp
  00003	6a ff		 push	 -1
  00005	68 00 00 00 00	 push	 __ehhandler$?SetKeyName@CRealPacketPage@@QAEXV?$CStringT@DV?$StrTraitMFC_DLL@DV?$ChTraitsCRT@D@ATL@@@@@ATL@@@Z
  0000a	64 a1 00 00 00
	00		 mov	 eax, DWORD PTR fs:0
  00010	50		 push	 eax
  00011	a1 00 00 00 00	 mov	 eax, DWORD PTR ___security_cookie
  00016	33 c5		 xor	 eax, ebp
  00018	50		 push	 eax
  00019	8d 45 f4	 lea	 eax, DWORD PTR __$EHRec$[ebp]
  0001c	64 a3 00 00 00
	00		 mov	 DWORD PTR fs:0, eax

; 350  : 	m_sLocalSharedList = keyname;

  00022	8d 45 08	 lea	 eax, DWORD PTR _keyname$[ebp]
  00025	c7 45 fc 00 00
	00 00		 mov	 DWORD PTR __$EHRec$[ebp+8], 0
  0002c	50		 push	 eax
  0002d	81 c1 40 03 00
	00		 add	 ecx, 832		; 00000340H
  00033	ff 15 00 00 00
	00		 call	 DWORD PTR __imp_??4?$CStringT@DV?$StrTraitMFC_DLL@DV?$ChTraitsCRT@D@ATL@@@@@ATL@@QAEAAV01@ABV01@@Z

; 351  : }

  00039	8d 4d 08	 lea	 ecx, DWORD PTR _keyname$[ebp]
  0003c	ff 15 00 00 00
	00		 call	 DWORD PTR __imp_??1?$CStringT@DV?$StrTraitMFC_DLL@DV?$ChTraitsCRT@D@ATL@@@@@ATL@@QAE@XZ
  00042	8b 4d f4	 mov	 ecx, DWORD PTR __$EHRec$[ebp]
  00045	64 89 0d 00 00
	00 00		 mov	 DWORD PTR fs:0, ecx
  0004c	59		 pop	 ecx
  0004d	8b e5		 mov	 esp, ebp
  0004f	5d		 pop	 ebp
  00050	c2 04 00	 ret	 4
_TEXT	ENDS
;	COMDAT text$x
text$x	SEGMENT
__unwindfunclet$?SetKeyName@CRealPacketPage@@QAEXV?$CStringT@DV?$StrTraitMFC_DLL@DV?$ChTraitsCRT@D@ATL@@@@@ATL@@@Z$0:
  00000	8d 4d 08	 lea	 ecx, DWORD PTR _keyname$[ebp]
  00003	ff 25 00 00 00
	00		 jmp	 DWORD PTR __imp_??1?$CStringT@DV?$StrTraitMFC_DLL@DV?$ChTraitsCRT@D@ATL@@@@@ATL@@QAE@XZ
  00009	cc		 int	 3
  0000a	cc		 int	 3
  0000b	cc		 int	 3
  0000c	cc		 int	 3
  0000d	cc		 int	 3
__ehhandler$?SetKeyName@CRealPacketPage@@QAEXV?$CStringT@DV?$StrTraitMFC_DLL@DV?$ChTraitsCRT@D@ATL@@@@@ATL@@@Z:
  0000e	90		 npad	 1
  0000f	90		 npad	 1
  00010	8b 54 24 08	 mov	 edx, DWORD PTR [esp+8]
  00014	8d 42 0c	 lea	 eax, DWORD PTR [edx+12]
  00017	8b 4a fc	 mov	 ecx, DWORD PTR [edx-4]
  0001a	33 c8		 xor	 ecx, eax
  0001c	e8 00 00 00 00	 call	 @__security_check_cookie@4
  00021	b8 00 00 00 00	 mov	 eax, OFFSET __ehfuncinfo$?SetKeyName@CRealPacketPage@@QAEXV?$CStringT@DV?$StrTraitMFC_DLL@DV?$ChTraitsCRT@D@ATL@@@@@ATL@@@Z
  00026	e9 00 00 00 00	 jmp	 ___CxxFrameHandler3
text$x	ENDS
?SetKeyName@CRealPacketPage@@QAEXV?$CStringT@DV?$StrTraitMFC_DLL@DV?$ChTraitsCRT@D@ATL@@@@@ATL@@@Z ENDP ; CRealPacketPage::SetKeyName
; Function compile flags: /Ogtp
; File D:\git\src\IBK\IBK_DRFN\ProjSrc\SrcChartEx\ChartAddIn\ChartDesignPropertyAddIn\ChartDesignPropertyAddIn\RealPacketPage.cpp
; File C:\Program Files (x86)\Microsoft Visual Studio\2019\Community\VC\Tools\MSVC\14.29.30133\atlmfc\include\cstringt.h
; File D:\git\src\IBK\IBK_DRFN\ProjSrc\SrcChartEx\ChartAddIn\ChartDesignPropertyAddIn\ChartDesignPropertyAddIn\RealPacketPage.cpp
;	COMDAT ?SetProperty@CRealPacketPage@@QAEXPAUIPropertyMap@@@Z
_TEXT	SEGMENT
_szTemp$ = -4						; size = 4
tv360 = 8						; size = 4
_p_pIPropertyMap$ = 8					; size = 4
?SetProperty@CRealPacketPage@@QAEXPAUIPropertyMap@@@Z PROC ; CRealPacketPage::SetProperty, COMDAT
; _this$ = ecx

; 434  : {

  00000	55		 push	 ebp
  00001	8b ec		 mov	 ebp, esp
  00003	51		 push	 ecx
  00004	53		 push	 ebx
  00005	56		 push	 esi

; 435  : 	// (2006/7/5 - Seung-Won, Bae) Use IPropertyMap
; 436  : 	CHART_CONVERT_BEGIN()
; 437  : 		CHART_CONVERT_STRING(	p_pIPropertyMap, g_anPropertyShortKey[	STRLOCALSHAREDLIST		], m_sLocalSharedList,						_DPV_STRLOCALSHAREDLIST		);

  00006	8b 75 08	 mov	 esi, DWORD PTR _p_pIPropertyMap$[ebp]
  00009	57		 push	 edi
  0000a	8b f9		 mov	 edi, ecx
  0000c	c7 45 fc 00 00
	00 00		 mov	 DWORD PTR _szTemp$[ebp], 0
  00013	8d 4d fc	 lea	 ecx, DWORD PTR _szTemp$[ebp]
  00016	8b 06		 mov	 eax, DWORD PTR [esi]
  00018	51		 push	 ecx
  00019	ff 35 a8 00 00
	00		 push	 DWORD PTR ?g_anPropertyShortKey@@3PAPADA+168
  0001f	8b ce		 mov	 ecx, esi
  00021	ff 50 0c	 call	 DWORD PTR [eax+12]
  00024	8d 8f 40 03 00
	00		 lea	 ecx, DWORD PTR [edi+832]
  0002a	83 f8 01	 cmp	 eax, 1
  0002d	75 05		 jne	 SHORT $LN2@SetPropert
  0002f	ff 75 fc	 push	 DWORD PTR _szTemp$[ebp]
  00032	eb 05		 jmp	 SHORT $LN21@SetPropert
$LN2@SetPropert:
  00034	68 00 00 00 00	 push	 OFFSET ??_C@_00CNPNBAHC@@
$LN21@SetPropert:

; 438  : 		CHART_CONVERT_BOOL(		p_pIPropertyMap, g_anPropertyShortKey[	BUSEREALDATA			], m_bUseRealData,							_DPV_BUSEREALDATA			);

  00039	ff 15 00 00 00
	00		 call	 DWORD PTR __imp_??4?$CStringT@DV?$StrTraitMFC_DLL@DV?$ChTraitsCRT@D@ATL@@@@@ATL@@QAEAAV01@PBD@Z
  0003f	8b 06		 mov	 eax, DWORD PTR [esi]
  00041	8d 4d fc	 lea	 ecx, DWORD PTR _szTemp$[ebp]
  00044	51		 push	 ecx
  00045	ff 35 ac 00 00
	00		 push	 DWORD PTR ?g_anPropertyShortKey@@3PAPADA+172
  0004b	8b ce		 mov	 ecx, esi
  0004d	ff 50 0c	 call	 DWORD PTR [eax+12]
  00050	8b 1d 00 00 00
	00		 mov	 ebx, DWORD PTR __imp__atoi
  00056	83 f8 01	 cmp	 eax, 1
  00059	75 0a		 jne	 SHORT $LN4@SetPropert
  0005b	ff 75 fc	 push	 DWORD PTR _szTemp$[ebp]
  0005e	ff d3		 call	 ebx
  00060	83 c4 04	 add	 esp, 4
  00063	eb 02		 jmp	 SHORT $LN5@SetPropert
$LN4@SetPropert:
  00065	33 c0		 xor	 eax, eax
$LN5@SetPropert:

; 439  : 		CHART_CONVERT_STRING(	p_pIPropertyMap, g_anPropertyShortKey[	STRREALLIST				], m_szRealList,							_DPV_STRREALLIST			);

  00067	89 87 50 03 00
	00		 mov	 DWORD PTR [edi+848], eax
  0006d	8d 4d fc	 lea	 ecx, DWORD PTR _szTemp$[ebp]
  00070	8b 06		 mov	 eax, DWORD PTR [esi]
  00072	51		 push	 ecx
  00073	ff 35 b0 00 00
	00		 push	 DWORD PTR ?g_anPropertyShortKey@@3PAPADA+176
  00079	8b ce		 mov	 ecx, esi
  0007b	ff 50 0c	 call	 DWORD PTR [eax+12]
  0007e	8d 8f 44 03 00
	00		 lea	 ecx, DWORD PTR [edi+836]
  00084	83 f8 01	 cmp	 eax, 1
  00087	75 05		 jne	 SHORT $LN6@SetPropert
  00089	ff 75 fc	 push	 DWORD PTR _szTemp$[ebp]
  0008c	eb 05		 jmp	 SHORT $LN22@SetPropert
$LN6@SetPropert:
  0008e	68 00 00 00 00	 push	 OFFSET ??_C@_00CNPNBAHC@@
$LN22@SetPropert:

; 440  : 		CHART_CONVERT_INT(		p_pIPropertyMap, g_anPropertyShortKey[	nHoldingPacketSize		], m_nPacketSize,							_DPV_nHoldingPacketSize		);

  00093	ff 15 00 00 00
	00		 call	 DWORD PTR __imp_??4?$CStringT@DV?$StrTraitMFC_DLL@DV?$ChTraitsCRT@D@ATL@@@@@ATL@@QAEAAV01@PBD@Z
  00099	8b 06		 mov	 eax, DWORD PTR [esi]
  0009b	8d 4d fc	 lea	 ecx, DWORD PTR _szTemp$[ebp]
  0009e	51		 push	 ecx
  0009f	ff 35 f0 00 00
	00		 push	 DWORD PTR ?g_anPropertyShortKey@@3PAPADA+240
  000a5	8b ce		 mov	 ecx, esi
  000a7	ff 50 0c	 call	 DWORD PTR [eax+12]
  000aa	83 f8 01	 cmp	 eax, 1
  000ad	75 0a		 jne	 SHORT $LN8@SetPropert
  000af	ff 75 fc	 push	 DWORD PTR _szTemp$[ebp]
  000b2	ff d3		 call	 ebx
  000b4	83 c4 04	 add	 esp, 4
  000b7	eb 02		 jmp	 SHORT $LN9@SetPropert
$LN8@SetPropert:
  000b9	33 c0		 xor	 eax, eax
$LN9@SetPropert:

; 441  : 		CHART_CONVERT_BOOL(		p_pIPropertyMap, g_anPropertyShortKey[	bYesOrNoRedrawbyReal	], m_bRedrawInCaseOfRealApplyToAllPacket,	_DPV_bYesOrNoRedrawbyReal	);

  000bb	89 87 54 03 00
	00		 mov	 DWORD PTR [edi+852], eax
  000c1	8d 4d fc	 lea	 ecx, DWORD PTR _szTemp$[ebp]
  000c4	8b 06		 mov	 eax, DWORD PTR [esi]
  000c6	51		 push	 ecx
  000c7	ff 35 f8 00 00
	00		 push	 DWORD PTR ?g_anPropertyShortKey@@3PAPADA+248
  000cd	8b ce		 mov	 ecx, esi
  000cf	ff 50 0c	 call	 DWORD PTR [eax+12]
  000d2	83 f8 01	 cmp	 eax, 1
  000d5	75 0a		 jne	 SHORT $LN10@SetPropert
  000d7	ff 75 fc	 push	 DWORD PTR _szTemp$[ebp]
  000da	ff d3		 call	 ebx
  000dc	83 c4 04	 add	 esp, 4
  000df	eb 05		 jmp	 SHORT $LN11@SetPropert
$LN10@SetPropert:
  000e1	b8 01 00 00 00	 mov	 eax, 1
$LN11@SetPropert:

; 442  : 		CHART_CONVERT_STRING(	p_pIPropertyMap, g_anPropertyShortKey[	STRBASEPACKETNAME		], m_szBasePacketName,						_DPV_STRBASEPACKETNAME		);

  000e6	89 87 58 03 00
	00		 mov	 DWORD PTR [edi+856], eax
  000ec	8d 4d fc	 lea	 ecx, DWORD PTR _szTemp$[ebp]
  000ef	8b 06		 mov	 eax, DWORD PTR [esi]
  000f1	51		 push	 ecx
  000f2	ff 35 fc 00 00
	00		 push	 DWORD PTR ?g_anPropertyShortKey@@3PAPADA+252
  000f8	8b ce		 mov	 ecx, esi
  000fa	ff 50 0c	 call	 DWORD PTR [eax+12]
  000fd	8d 8f b0 05 00
	00		 lea	 ecx, DWORD PTR [edi+1456]
  00103	83 f8 01	 cmp	 eax, 1
  00106	75 05		 jne	 SHORT $LN12@SetPropert
  00108	ff 75 fc	 push	 DWORD PTR _szTemp$[ebp]
  0010b	eb 05		 jmp	 SHORT $LN23@SetPropert
$LN12@SetPropert:
  0010d	68 00 00 00 00	 push	 OFFSET ??_C@_0L@JMBPGHHJ@?$CDDateTime?$CD@
$LN23@SetPropert:

; 443  : 		CHART_CONVERT_BOOL(		p_pIPropertyMap, g_anPropertyShortKey[	bFIREREALEVENT			], m_bFireRealEvent,						_DPV_bFIREREALEVENT			);

  00112	ff 15 00 00 00
	00		 call	 DWORD PTR __imp_??4?$CStringT@DV?$StrTraitMFC_DLL@DV?$ChTraitsCRT@D@ATL@@@@@ATL@@QAEAAV01@PBD@Z
  00118	8b 06		 mov	 eax, DWORD PTR [esi]
  0011a	8d 4d fc	 lea	 ecx, DWORD PTR _szTemp$[ebp]
  0011d	51		 push	 ecx
  0011e	ff 35 00 01 00
	00		 push	 DWORD PTR ?g_anPropertyShortKey@@3PAPADA+256
  00124	8b ce		 mov	 ecx, esi
  00126	ff 50 0c	 call	 DWORD PTR [eax+12]
  00129	83 f8 01	 cmp	 eax, 1
  0012c	75 0a		 jne	 SHORT $LN14@SetPropert
  0012e	ff 75 fc	 push	 DWORD PTR _szTemp$[ebp]
  00131	ff d3		 call	 ebx
  00133	83 c4 04	 add	 esp, 4
  00136	eb 02		 jmp	 SHORT $LN15@SetPropert
$LN14@SetPropert:
  00138	33 c0		 xor	 eax, eax
$LN15@SetPropert:
; File C:\Program Files (x86)\Microsoft Visual Studio\2019\Community\VC\Tools\MSVC\14.29.30133\atlmfc\include\cstringt.h

; 2486 : 		return(str1.Compare(psz2) == 0);

  0013a	68 00 00 00 00	 push	 OFFSET ??_C@_0L@JMBPGHHJ@?$CDDateTime?$CD@
  0013f	8d 8f b0 05 00
	00		 lea	 ecx, DWORD PTR [edi+1456]
  00145	89 87 5c 03 00
	00		 mov	 DWORD PTR [edi+860], eax
  0014b	ff 15 00 00 00
	00		 call	 DWORD PTR __imp_?Compare@?$CStringT@DV?$StrTraitMFC_DLL@DV?$ChTraitsCRT@D@ATL@@@@@ATL@@QBEHPBD@Z
  00151	85 c0		 test	 eax, eax
; File D:\git\src\IBK\IBK_DRFN\ProjSrc\SrcChartEx\ChartAddIn\ChartDesignPropertyAddIn\ChartDesignPropertyAddIn\RealPacketPage.cpp

; 447  : 	if( m_szBasePacketName == _DPV_STRBASEPACKETNAME) m_szBasePacketName = _MTEXT( C0_DATE_TIME);

  00153	75 13		 jne	 SHORT $LN20@SetPropert
  00155	a1 54 00 00 00	 mov	 eax, DWORD PTR ?g_iMetaTable@@3VIMetaTable@@A+84
  0015a	8d 8f b0 05 00
	00		 lea	 ecx, DWORD PTR [edi+1456]
  00160	ff 30		 push	 DWORD PTR [eax]
  00162	ff 15 00 00 00
	00		 call	 DWORD PTR __imp_??4?$CStringT@DV?$StrTraitMFC_DLL@DV?$ChTraitsCRT@D@ATL@@@@@ATL@@QAEAAV01@PBD@Z
$LN20@SetPropert:

; 448  : 
; 449  : 	// (2006/7/5 - Seung-Won, Bae) Manage Property Map for Update
; 450  : 	m_pIPropertyMap = p_pIPropertyMap;
; 451  : }

  00168	89 b7 b4 05 00
	00		 mov	 DWORD PTR [edi+1460], esi
  0016e	5f		 pop	 edi
  0016f	5e		 pop	 esi
  00170	5b		 pop	 ebx
  00171	8b e5		 mov	 esp, ebp
  00173	5d		 pop	 ebp
  00174	c2 04 00	 ret	 4
?SetProperty@CRealPacketPage@@QAEXPAUIPropertyMap@@@Z ENDP ; CRealPacketPage::SetProperty
_TEXT	ENDS
; Function compile flags: /Ogtp
; File D:\git\src\IBK\IBK_DRFN\ProjSrc\SrcChartEx\ChartAddIn\ChartDesignPropertyAddIn\ChartDesignPropertyAddIn\RealPacketPage.cpp
;	COMDAT ?GetSavedRealPacketInfo@CRealPacketPage@@QAE?AV?$CStringT@DV?$StrTraitMFC_DLL@DV?$ChTraitsCRT@D@ATL@@@@@ATL@@XZ
_TEXT	SEGMENT
___$ReturnUdt$ = 8					; size = 4
?GetSavedRealPacketInfo@CRealPacketPage@@QAE?AV?$CStringT@DV?$StrTraitMFC_DLL@DV?$ChTraitsCRT@D@ATL@@@@@ATL@@XZ PROC ; CRealPacketPage::GetSavedRealPacketInfo, COMDAT
; _this$ = ecx

; 354  : {

  00000	55		 push	 ebp
  00001	8b ec		 mov	 ebp, esp

; 355  : 	return m_szRealList;

  00003	8d 81 44 03 00
	00		 lea	 eax, DWORD PTR [ecx+836]
  00009	8b 4d 08	 mov	 ecx, DWORD PTR ___$ReturnUdt$[ebp]
  0000c	50		 push	 eax
  0000d	ff 15 00 00 00
	00		 call	 DWORD PTR __imp_??0?$CStringT@DV?$StrTraitMFC_DLL@DV?$ChTraitsCRT@D@ATL@@@@@ATL@@QAE@ABV01@@Z
  00013	8b 45 08	 mov	 eax, DWORD PTR ___$ReturnUdt$[ebp]

; 356  : }

  00016	5d		 pop	 ebp
  00017	c2 04 00	 ret	 4
?GetSavedRealPacketInfo@CRealPacketPage@@QAE?AV?$CStringT@DV?$StrTraitMFC_DLL@DV?$ChTraitsCRT@D@ATL@@@@@ATL@@XZ ENDP ; CRealPacketPage::GetSavedRealPacketInfo
_TEXT	ENDS
; Function compile flags: /Ogtp
; File D:\git\src\IBK\IBK_DRFN\ProjSrc\SrcChartEx\ChartAddIn\ChartDesignPropertyAddIn\ChartDesignPropertyAddIn\RealPacketPage.cpp
;	COMDAT ?SetRealPacketInfo@CRealPacketPage@@QAEXV?$CStringT@DV?$StrTraitMFC_DLL@DV?$ChTraitsCRT@D@ATL@@@@@ATL@@@Z
_TEXT	SEGMENT
__$EHRec$ = -12						; size = 12
_szRealPacket$ = 8					; size = 4
?SetRealPacketInfo@CRealPacketPage@@QAEXV?$CStringT@DV?$StrTraitMFC_DLL@DV?$ChTraitsCRT@D@ATL@@@@@ATL@@@Z PROC ; CRealPacketPage::SetRealPacketInfo, COMDAT
; _this$ = ecx

; 359  : {

  00000	55		 push	 ebp
  00001	8b ec		 mov	 ebp, esp
  00003	6a ff		 push	 -1
  00005	68 00 00 00 00	 push	 __ehhandler$?SetRealPacketInfo@CRealPacketPage@@QAEXV?$CStringT@DV?$StrTraitMFC_DLL@DV?$ChTraitsCRT@D@ATL@@@@@ATL@@@Z
  0000a	64 a1 00 00 00
	00		 mov	 eax, DWORD PTR fs:0
  00010	50		 push	 eax
  00011	a1 00 00 00 00	 mov	 eax, DWORD PTR ___security_cookie
  00016	33 c5		 xor	 eax, ebp
  00018	50		 push	 eax
  00019	8d 45 f4	 lea	 eax, DWORD PTR __$EHRec$[ebp]
  0001c	64 a3 00 00 00
	00		 mov	 DWORD PTR fs:0, eax

; 360  : 	m_szRealPackets = szRealPacket;

  00022	8d 45 08	 lea	 eax, DWORD PTR _szRealPacket$[ebp]
  00025	c7 45 fc 00 00
	00 00		 mov	 DWORD PTR __$EHRec$[ebp+8], 0
  0002c	50		 push	 eax
  0002d	81 c1 60 03 00
	00		 add	 ecx, 864		; 00000360H
  00033	ff 15 00 00 00
	00		 call	 DWORD PTR __imp_??4?$CStringT@DV?$StrTraitMFC_DLL@DV?$ChTraitsCRT@D@ATL@@@@@ATL@@QAEAAV01@ABV01@@Z

; 361  : }

  00039	8d 4d 08	 lea	 ecx, DWORD PTR _szRealPacket$[ebp]
  0003c	ff 15 00 00 00
	00		 call	 DWORD PTR __imp_??1?$CStringT@DV?$StrTraitMFC_DLL@DV?$ChTraitsCRT@D@ATL@@@@@ATL@@QAE@XZ
  00042	8b 4d f4	 mov	 ecx, DWORD PTR __$EHRec$[ebp]
  00045	64 89 0d 00 00
	00 00		 mov	 DWORD PTR fs:0, ecx
  0004c	59		 pop	 ecx
  0004d	8b e5		 mov	 esp, ebp
  0004f	5d		 pop	 ebp
  00050	c2 04 00	 ret	 4
_TEXT	ENDS
;	COMDAT text$x
text$x	SEGMENT
__unwindfunclet$?SetRealPacketInfo@CRealPacketPage@@QAEXV?$CStringT@DV?$StrTraitMFC_DLL@DV?$ChTraitsCRT@D@ATL@@@@@ATL@@@Z$0:
  00000	8d 4d 08	 lea	 ecx, DWORD PTR _szRealPacket$[ebp]
  00003	ff 25 00 00 00
	00		 jmp	 DWORD PTR __imp_??1?$CStringT@DV?$StrTraitMFC_DLL@DV?$ChTraitsCRT@D@ATL@@@@@ATL@@QAE@XZ
  00009	cc		 int	 3
  0000a	cc		 int	 3
  0000b	cc		 int	 3
  0000c	cc		 int	 3
  0000d	cc		 int	 3
__ehhandler$?SetRealPacketInfo@CRealPacketPage@@QAEXV?$CStringT@DV?$StrTraitMFC_DLL@DV?$ChTraitsCRT@D@ATL@@@@@ATL@@@Z:
  0000e	90		 npad	 1
  0000f	90		 npad	 1
  00010	8b 54 24 08	 mov	 edx, DWORD PTR [esp+8]
  00014	8d 42 0c	 lea	 eax, DWORD PTR [edx+12]
  00017	8b 4a fc	 mov	 ecx, DWORD PTR [edx-4]
  0001a	33 c8		 xor	 ecx, eax
  0001c	e8 00 00 00 00	 call	 @__security_check_cookie@4
  00021	b8 00 00 00 00	 mov	 eax, OFFSET __ehfuncinfo$?SetRealPacketInfo@CRealPacketPage@@QAEXV?$CStringT@DV?$StrTraitMFC_DLL@DV?$ChTraitsCRT@D@ATL@@@@@ATL@@@Z
  00026	e9 00 00 00 00	 jmp	 ___CxxFrameHandler3
text$x	ENDS
?SetRealPacketInfo@CRealPacketPage@@QAEXV?$CStringT@DV?$StrTraitMFC_DLL@DV?$ChTraitsCRT@D@ATL@@@@@ATL@@@Z ENDP ; CRealPacketPage::SetRealPacketInfo
; Function compile flags: /Ogtp
; File D:\git\src\IBK\IBK_DRFN\ProjSrc\SrcChartEx\ChartAddIn\ChartDesignPropertyAddIn\ChartDesignPropertyAddIn\RealPacketPage.cpp
;	COMDAT ??1CRealPacketPage@@UAE@XZ
_TEXT	SEGMENT
??1CRealPacketPage@@UAE@XZ PROC				; CRealPacketPage::~CRealPacketPage, COMDAT
; _this$ = ecx

; 50   : {

  00000	56		 push	 esi
  00001	8b f1		 mov	 esi, ecx

; 51   : }

  00003	8d 8e b0 05 00
	00		 lea	 ecx, DWORD PTR [esi+1456]
  00009	c7 06 00 00 00
	00		 mov	 DWORD PTR [esi], OFFSET ??_7CRealPacketPage@@6B@
  0000f	ff 15 00 00 00
	00		 call	 DWORD PTR __imp_??1?$CStringT@DV?$StrTraitMFC_DLL@DV?$ChTraitsCRT@D@ATL@@@@@ATL@@QAE@XZ
  00015	8d 8e 70 03 00
	00		 lea	 ecx, DWORD PTR [esi+880]
  0001b	e8 00 00 00 00	 call	 ??1CTreeCombo@@UAE@XZ	; CTreeCombo::~CTreeCombo
  00020	8d 8e 68 03 00
	00		 lea	 ecx, DWORD PTR [esi+872]
  00026	ff 15 00 00 00
	00		 call	 DWORD PTR __imp_??1?$CStringT@DV?$StrTraitMFC_DLL@DV?$ChTraitsCRT@D@ATL@@@@@ATL@@QAE@XZ
  0002c	8d 8e 60 03 00
	00		 lea	 ecx, DWORD PTR [esi+864]
  00032	ff 15 00 00 00
	00		 call	 DWORD PTR __imp_??1?$CStringT@DV?$StrTraitMFC_DLL@DV?$ChTraitsCRT@D@ATL@@@@@ATL@@QAE@XZ
  00038	8d 8e 4c 03 00
	00		 lea	 ecx, DWORD PTR [esi+844]
  0003e	ff 15 00 00 00
	00		 call	 DWORD PTR __imp_??1?$CStringT@DV?$StrTraitMFC_DLL@DV?$ChTraitsCRT@D@ATL@@@@@ATL@@QAE@XZ
  00044	8d 8e 48 03 00
	00		 lea	 ecx, DWORD PTR [esi+840]
  0004a	ff 15 00 00 00
	00		 call	 DWORD PTR __imp_??1?$CStringT@DV?$StrTraitMFC_DLL@DV?$ChTraitsCRT@D@ATL@@@@@ATL@@QAE@XZ
  00050	8d 8e 44 03 00
	00		 lea	 ecx, DWORD PTR [esi+836]
  00056	ff 15 00 00 00
	00		 call	 DWORD PTR __imp_??1?$CStringT@DV?$StrTraitMFC_DLL@DV?$ChTraitsCRT@D@ATL@@@@@ATL@@QAE@XZ
  0005c	8d 8e 40 03 00
	00		 lea	 ecx, DWORD PTR [esi+832]
  00062	ff 15 00 00 00
	00		 call	 DWORD PTR __imp_??1?$CStringT@DV?$StrTraitMFC_DLL@DV?$ChTraitsCRT@D@ATL@@@@@ATL@@QAE@XZ
  00068	8d 8e c0 02 00
	00		 lea	 ecx, DWORD PTR [esi+704]
  0006e	e8 00 00 00 00	 call	 ??1CListCtrl@@UAE@XZ	; CListCtrl::~CListCtrl
  00073	8d 8e 40 02 00
	00		 lea	 ecx, DWORD PTR [esi+576]
  00079	e8 00 00 00 00	 call	 ??1CComboBox@@UAE@XZ	; CComboBox::~CComboBox
  0007e	8d 8e c0 01 00
	00		 lea	 ecx, DWORD PTR [esi+448]
  00084	e8 00 00 00 00	 call	 ??1CNoSystemMenuEdit@@UAE@XZ ; CNoSystemMenuEdit::~CNoSystemMenuEdit
  00089	8d 8e 40 01 00
	00		 lea	 ecx, DWORD PTR [esi+320]
  0008f	e8 00 00 00 00	 call	 ??1CComboBox@@UAE@XZ	; CComboBox::~CComboBox
  00094	8d 8e c0 00 00
	00		 lea	 ecx, DWORD PTR [esi+192]
  0009a	e8 00 00 00 00	 call	 ??1CComboBox@@UAE@XZ	; CComboBox::~CComboBox
  0009f	8b ce		 mov	 ecx, esi
  000a1	5e		 pop	 esi
  000a2	e9 00 00 00 00	 jmp	 ??1CPropertyPage@@UAE@XZ ; CPropertyPage::~CPropertyPage
??1CRealPacketPage@@UAE@XZ ENDP				; CRealPacketPage::~CRealPacketPage
_TEXT	ENDS
; Function compile flags: /Ogtp
; File D:\git\src\IBK\IBK_DRFN\ProjSrc\SrcChartEx\ChartAddIn\ChartDesignPropertyAddIn\ChartDesignPropertyAddIn\RealPacketPage.cpp
; File C:\Program Files (x86)\Microsoft Visual Studio\2019\Community\VC\Tools\MSVC\14.29.30133\atlmfc\include\afxwin2.inl
; File D:\git\src\IBK\IBK_DRFN\ProjSrc\SrcChartEx\ChartAddIn\ChartDesignPropertyAddIn\ChartDesignPropertyAddIn\RealPacketPage.cpp
; File C:\Program Files (x86)\Microsoft Visual Studio\2019\Community\VC\Tools\MSVC\14.29.30133\atlmfc\include\afxwin2.inl
; File D:\git\src\IBK\IBK_DRFN\ProjSrc\SrcChartEx\ChartAddIn\ChartDesignPropertyAddIn\ChartDesignPropertyAddIn\RealPacketPage.cpp
; File C:\Program Files (x86)\Microsoft Visual Studio\2019\Community\VC\Tools\MSVC\14.29.30133\atlmfc\include\afxwin2.inl
; File D:\git\src\IBK\IBK_DRFN\ProjSrc\SrcChartEx\ChartAddIn\ChartDesignPropertyAddIn\ChartDesignPropertyAddIn\RealPacketPage.cpp
; File C:\Program Files (x86)\Microsoft Visual Studio\2019\Community\VC\Tools\MSVC\14.29.30133\atlmfc\include\afxwin2.inl
; File D:\git\src\IBK\IBK_DRFN\ProjSrc\SrcChartEx\ChartAddIn\ChartDesignPropertyAddIn\ChartDesignPropertyAddIn\RealPacketPage.cpp
; File C:\Program Files (x86)\Microsoft Visual Studio\2019\Community\VC\Tools\MSVC\14.29.30133\atlmfc\include\afxwin2.inl
; File D:\git\src\IBK\IBK_DRFN\ProjSrc\SrcChartEx\ChartAddIn\ChartDesignPropertyAddIn\ChartDesignPropertyAddIn\RealPacketPage.cpp
; File C:\Program Files (x86)\Microsoft Visual Studio\2019\Community\VC\Tools\MSVC\14.29.30133\atlmfc\include\afxwin2.inl
; File D:\git\src\IBK\IBK_DRFN\ProjSrc\SrcChartEx\ChartAddIn\ChartDesignPropertyAddIn\ChartDesignPropertyAddIn\RealPacketPage.cpp
; File C:\Program Files (x86)\Microsoft Visual Studio\2019\Community\VC\Tools\MSVC\14.29.30133\atlmfc\include\afxcmn.inl
; File D:\git\src\IBK\IBK_DRFN\ProjSrc\SrcChartEx\ChartAddIn\ChartDesignPropertyAddIn\ChartDesignPropertyAddIn\RealPacketPage.cpp
; File C:\Program Files (x86)\Microsoft Visual Studio\2019\Community\VC\Tools\MSVC\14.29.30133\atlmfc\include\afxcmn.inl
; File D:\git\src\IBK\IBK_DRFN\ProjSrc\SrcChartEx\ChartAddIn\ChartDesignPropertyAddIn\ChartDesignPropertyAddIn\RealPacketPage.cpp
;	COMDAT ??0CRealPacketPage@@QAE@XZ
_TEXT	SEGMENT
_this$ = -20						; size = 4
_this$ = -20						; size = 4
_this$ = -20						; size = 4
_this$ = -20						; size = 4
_this$ = -16						; size = 4
__$EHRec$ = -12						; size = 12
??0CRealPacketPage@@QAE@XZ PROC				; CRealPacketPage::CRealPacketPage, COMDAT
; _this$ = ecx

; 30   : {

  00000	55		 push	 ebp
  00001	8b ec		 mov	 ebp, esp
  00003	6a ff		 push	 -1
  00005	68 00 00 00 00	 push	 __ehhandler$??0CRealPacketPage@@QAE@XZ
  0000a	64 a1 00 00 00
	00		 mov	 eax, DWORD PTR fs:0
  00010	50		 push	 eax
  00011	83 ec 08	 sub	 esp, 8
  00014	53		 push	 ebx
  00015	56		 push	 esi
  00016	57		 push	 edi
  00017	a1 00 00 00 00	 mov	 eax, DWORD PTR ___security_cookie
  0001c	33 c5		 xor	 eax, ebp
  0001e	50		 push	 eax
  0001f	8d 45 f4	 lea	 eax, DWORD PTR __$EHRec$[ebp]
  00022	64 a3 00 00 00
	00		 mov	 DWORD PTR fs:0, eax
  00028	8b f9		 mov	 edi, ecx
  0002a	89 7d f0	 mov	 DWORD PTR _this$[ebp], edi

; 29   : CRealPacketPage::CRealPacketPage() : CPropertyPage(CRealPacketPage::IDD)

  0002d	6a 38		 push	 56			; 00000038H
  0002f	6a 00		 push	 0
  00031	68 5e 1b 00 00	 push	 7006			; 00001b5eH
  00036	e8 00 00 00 00	 call	 ??0CPropertyPage@@QAE@IIK@Z ; CPropertyPage::CPropertyPage

; 30   : {

  0003b	8d b7 c0 00 00
	00		 lea	 esi, DWORD PTR [edi+192]
  00041	c7 45 fc 00 00
	00 00		 mov	 DWORD PTR __$EHRec$[ebp+8], 0
; File C:\Program Files (x86)\Microsoft Visual Studio\2019\Community\VC\Tools\MSVC\14.29.30133\atlmfc\include\afxwin2.inl

; 761  : 	{ }

  00048	8b ce		 mov	 ecx, esi
; File D:\git\src\IBK\IBK_DRFN\ProjSrc\SrcChartEx\ChartAddIn\ChartDesignPropertyAddIn\ChartDesignPropertyAddIn\RealPacketPage.cpp

; 30   : {

  0004a	c7 07 00 00 00
	00		 mov	 DWORD PTR [edi], OFFSET ??_7CRealPacketPage@@6B@
  00050	89 75 ec	 mov	 DWORD PTR _this$[ebp], esi
; File C:\Program Files (x86)\Microsoft Visual Studio\2019\Community\VC\Tools\MSVC\14.29.30133\atlmfc\include\afxwin2.inl

; 761  : 	{ }

  00053	e8 00 00 00 00	 call	 ??0CWnd@@QAE@XZ		; CWnd::CWnd
  00058	c7 06 00 00 00
	00		 mov	 DWORD PTR [esi], OFFSET ??_7CComboBox@@6B@
; File D:\git\src\IBK\IBK_DRFN\ProjSrc\SrcChartEx\ChartAddIn\ChartDesignPropertyAddIn\ChartDesignPropertyAddIn\RealPacketPage.cpp

; 30   : {

  0005e	8d b7 40 01 00
	00		 lea	 esi, DWORD PTR [edi+320]
  00064	c6 45 fc 01	 mov	 BYTE PTR __$EHRec$[ebp+8], 1
; File C:\Program Files (x86)\Microsoft Visual Studio\2019\Community\VC\Tools\MSVC\14.29.30133\atlmfc\include\afxwin2.inl

; 761  : 	{ }

  00068	8b ce		 mov	 ecx, esi
; File D:\git\src\IBK\IBK_DRFN\ProjSrc\SrcChartEx\ChartAddIn\ChartDesignPropertyAddIn\ChartDesignPropertyAddIn\RealPacketPage.cpp

; 30   : {

  0006a	89 75 ec	 mov	 DWORD PTR _this$[ebp], esi
; File C:\Program Files (x86)\Microsoft Visual Studio\2019\Community\VC\Tools\MSVC\14.29.30133\atlmfc\include\afxwin2.inl

; 761  : 	{ }

  0006d	e8 00 00 00 00	 call	 ??0CWnd@@QAE@XZ		; CWnd::CWnd
  00072	c7 06 00 00 00
	00		 mov	 DWORD PTR [esi], OFFSET ??_7CComboBox@@6B@
; File D:\git\src\IBK\IBK_DRFN\ProjSrc\SrcChartEx\ChartAddIn\ChartDesignPropertyAddIn\ChartDesignPropertyAddIn\RealPacketPage.cpp

; 30   : {

  00078	8d 8f c0 01 00
	00		 lea	 ecx, DWORD PTR [edi+448]
  0007e	c6 45 fc 02	 mov	 BYTE PTR __$EHRec$[ebp+8], 2
  00082	e8 00 00 00 00	 call	 ??0CNoSystemMenuEdit@@QAE@XZ ; CNoSystemMenuEdit::CNoSystemMenuEdit
  00087	8d b7 40 02 00
	00		 lea	 esi, DWORD PTR [edi+576]
  0008d	c6 45 fc 03	 mov	 BYTE PTR __$EHRec$[ebp+8], 3
; File C:\Program Files (x86)\Microsoft Visual Studio\2019\Community\VC\Tools\MSVC\14.29.30133\atlmfc\include\afxwin2.inl

; 761  : 	{ }

  00091	8b ce		 mov	 ecx, esi
; File D:\git\src\IBK\IBK_DRFN\ProjSrc\SrcChartEx\ChartAddIn\ChartDesignPropertyAddIn\ChartDesignPropertyAddIn\RealPacketPage.cpp

; 30   : {

  00093	89 75 ec	 mov	 DWORD PTR _this$[ebp], esi
; File C:\Program Files (x86)\Microsoft Visual Studio\2019\Community\VC\Tools\MSVC\14.29.30133\atlmfc\include\afxwin2.inl

; 761  : 	{ }

  00096	e8 00 00 00 00	 call	 ??0CWnd@@QAE@XZ		; CWnd::CWnd
  0009b	c7 06 00 00 00
	00		 mov	 DWORD PTR [esi], OFFSET ??_7CComboBox@@6B@
; File D:\git\src\IBK\IBK_DRFN\ProjSrc\SrcChartEx\ChartAddIn\ChartDesignPropertyAddIn\ChartDesignPropertyAddIn\RealPacketPage.cpp

; 30   : {

  000a1	8d b7 c0 02 00
	00		 lea	 esi, DWORD PTR [edi+704]
  000a7	c6 45 fc 04	 mov	 BYTE PTR __$EHRec$[ebp+8], 4
; File C:\Program Files (x86)\Microsoft Visual Studio\2019\Community\VC\Tools\MSVC\14.29.30133\atlmfc\include\afxcmn.inl

; 141  : 	{ }

  000ab	8b ce		 mov	 ecx, esi
; File D:\git\src\IBK\IBK_DRFN\ProjSrc\SrcChartEx\ChartAddIn\ChartDesignPropertyAddIn\ChartDesignPropertyAddIn\RealPacketPage.cpp

; 30   : {

  000ad	89 75 ec	 mov	 DWORD PTR _this$[ebp], esi
; File C:\Program Files (x86)\Microsoft Visual Studio\2019\Community\VC\Tools\MSVC\14.29.30133\atlmfc\include\afxcmn.inl

; 141  : 	{ }

  000b0	e8 00 00 00 00	 call	 ??0CWnd@@QAE@XZ		; CWnd::CWnd
  000b5	c7 06 00 00 00
	00		 mov	 DWORD PTR [esi], OFFSET ??_7CListCtrl@@6B@
; File D:\git\src\IBK\IBK_DRFN\ProjSrc\SrcChartEx\ChartAddIn\ChartDesignPropertyAddIn\ChartDesignPropertyAddIn\RealPacketPage.cpp

; 30   : {

  000bb	8d 8f 40 03 00
	00		 lea	 ecx, DWORD PTR [edi+832]
  000c1	ff 15 00 00 00
	00		 call	 DWORD PTR __imp_??0?$CStringT@DV?$StrTraitMFC_DLL@DV?$ChTraitsCRT@D@ATL@@@@@ATL@@QAE@XZ
  000c7	8d 8f 44 03 00
	00		 lea	 ecx, DWORD PTR [edi+836]
  000cd	ff 15 00 00 00
	00		 call	 DWORD PTR __imp_??0?$CStringT@DV?$StrTraitMFC_DLL@DV?$ChTraitsCRT@D@ATL@@@@@ATL@@QAE@XZ
  000d3	8d 8f 48 03 00
	00		 lea	 ecx, DWORD PTR [edi+840]
  000d9	ff 15 00 00 00
	00		 call	 DWORD PTR __imp_??0?$CStringT@DV?$StrTraitMFC_DLL@DV?$ChTraitsCRT@D@ATL@@@@@ATL@@QAE@XZ
  000df	8b f7		 mov	 esi, edi
  000e1	8d 8e 4c 03 00
	00		 lea	 ecx, DWORD PTR [esi+844]
  000e7	ff 15 00 00 00
	00		 call	 DWORD PTR __imp_??0?$CStringT@DV?$StrTraitMFC_DLL@DV?$ChTraitsCRT@D@ATL@@@@@ATL@@QAE@XZ
  000ed	8b cf		 mov	 ecx, edi
  000ef	8d 89 60 03 00
	00		 lea	 ecx, DWORD PTR [ecx+864]
  000f5	ff 15 00 00 00
	00		 call	 DWORD PTR __imp_??0?$CStringT@DV?$StrTraitMFC_DLL@DV?$ChTraitsCRT@D@ATL@@@@@ATL@@QAE@XZ
  000fb	8b cf		 mov	 ecx, edi
  000fd	8d 89 68 03 00
	00		 lea	 ecx, DWORD PTR [ecx+872]
  00103	ff 15 00 00 00
	00		 call	 DWORD PTR __imp_??0?$CStringT@DV?$StrTraitMFC_DLL@DV?$ChTraitsCRT@D@ATL@@@@@ATL@@QAE@XZ
  00109	8b cf		 mov	 ecx, edi
  0010b	c6 45 fc 0b	 mov	 BYTE PTR __$EHRec$[ebp+8], 11 ; 0000000bH
  0010f	8d 89 70 03 00
	00		 lea	 ecx, DWORD PTR [ecx+880]
  00115	e8 00 00 00 00	 call	 ??0CTreeCombo@@QAE@XZ	; CTreeCombo::CTreeCombo
  0011a	8b cf		 mov	 ecx, edi
  0011c	8d 89 b0 05 00
	00		 lea	 ecx, DWORD PTR [ecx+1456]
  00122	ff 15 00 00 00
	00		 call	 DWORD PTR __imp_??0?$CStringT@DV?$StrTraitMFC_DLL@DV?$ChTraitsCRT@D@ATL@@@@@ATL@@QAE@XZ

; 31   : 	//{{AFX_DATA_INIT(CRealPacketPage)
; 32   : 	m_sLocalSharedList = _T("");

  00128	8b cf		 mov	 ecx, edi
  0012a	c6 45 fc 0d	 mov	 BYTE PTR __$EHRec$[ebp+8], 13 ; 0000000dH
  0012e	68 00 00 00 00	 push	 OFFSET ??_C@_00CNPNBAHC@@
  00133	8d 89 40 03 00
	00		 lea	 ecx, DWORD PTR [ecx+832]
  00139	ff 15 00 00 00
	00		 call	 DWORD PTR __imp_??4?$CStringT@DV?$StrTraitMFC_DLL@DV?$ChTraitsCRT@D@ATL@@@@@ATL@@QAEAAV01@PBD@Z

; 33   : 	m_szRealList = _T("");

  0013f	68 00 00 00 00	 push	 OFFSET ??_C@_00CNPNBAHC@@
  00144	8d 8f 44 03 00
	00		 lea	 ecx, DWORD PTR [edi+836]
  0014a	ff 15 00 00 00
	00		 call	 DWORD PTR __imp_??4?$CStringT@DV?$StrTraitMFC_DLL@DV?$ChTraitsCRT@D@ATL@@@@@ATL@@QAEAAV01@PBD@Z

; 34   : 	m_strPacket = _T("");

  00150	68 00 00 00 00	 push	 OFFSET ??_C@_00CNPNBAHC@@
  00155	8d 8f 48 03 00
	00		 lea	 ecx, DWORD PTR [edi+840]
  0015b	ff 15 00 00 00
	00		 call	 DWORD PTR __imp_??4?$CStringT@DV?$StrTraitMFC_DLL@DV?$ChTraitsCRT@D@ATL@@@@@ATL@@QAEAAV01@PBD@Z

; 35   : 	m_szKeyName = _T("");

  00161	68 00 00 00 00	 push	 OFFSET ??_C@_00CNPNBAHC@@
  00166	8d 8e 4c 03 00
	00		 lea	 ecx, DWORD PTR [esi+844]
  0016c	ff 15 00 00 00
	00		 call	 DWORD PTR __imp_??4?$CStringT@DV?$StrTraitMFC_DLL@DV?$ChTraitsCRT@D@ATL@@@@@ATL@@QAEAAV01@PBD@Z

; 36   : 	m_bUseRealData = FALSE;

  00172	8b c7		 mov	 eax, edi
  00174	c7 80 50 03 00
	00 00 00 00 00	 mov	 DWORD PTR [eax+848], 0

; 37   : 	m_nPacketSize = 2048;

  0017e	c7 80 54 03 00
	00 00 08 00 00	 mov	 DWORD PTR [eax+852], 2048 ; 00000800H

; 38   : 	m_bFireRealEvent = FALSE;

  00188	c7 80 5c 03 00
	00 00 00 00 00	 mov	 DWORD PTR [eax+860], 0

; 39   : 	//}}AFX_DATA_INIT
; 40   : 	m_bRedrawInCaseOfRealApplyToAllPacket = TRUE;

  00192	c7 80 58 03 00
	00 01 00 00 00	 mov	 DWORD PTR [eax+856], 1

; 41   : 
; 42   : 	// (2006/7/5 - Seung-Won, Bae) Manage Property Map for Update
; 43   : 	m_pIPropertyMap = NULL;

  0019c	c7 80 b4 05 00
	00 00 00 00 00	 mov	 DWORD PTR [eax+1460], 0

; 44   : 
; 45   : 	// (2008/1/14 - Seung-Won, Bae) for MultiLanguage.
; 46   : 	m_hOcxWnd = NULL;

  001a6	c7 80 b8 05 00
	00 00 00 00 00	 mov	 DWORD PTR [eax+1464], 0

; 47   : }

  001b0	8b 4d f4	 mov	 ecx, DWORD PTR __$EHRec$[ebp]
  001b3	64 89 0d 00 00
	00 00		 mov	 DWORD PTR fs:0, ecx
  001ba	59		 pop	 ecx
  001bb	5f		 pop	 edi
  001bc	5e		 pop	 esi
  001bd	5b		 pop	 ebx
  001be	8b e5		 mov	 esp, ebp
  001c0	5d		 pop	 ebp
  001c1	c3		 ret	 0
_TEXT	ENDS
;	COMDAT text$x
text$x	SEGMENT
__unwindfunclet$??0CRealPacketPage@@QAE@XZ$0:
  00000	8b 4d f0	 mov	 ecx, DWORD PTR _this$[ebp]
  00003	e9 00 00 00 00	 jmp	 ??1CPropertyPage@@UAE@XZ ; CPropertyPage::~CPropertyPage
__unwindfunclet$??0CRealPacketPage@@QAE@XZ$1:
  00008	8b 4d f0	 mov	 ecx, DWORD PTR _this$[ebp]
  0000b	81 c1 c0 00 00
	00		 add	 ecx, 192		; 000000c0H
  00011	e9 00 00 00 00	 jmp	 ??1CComboBox@@UAE@XZ	; CComboBox::~CComboBox
__unwindfunclet$??0CRealPacketPage@@QAE@XZ$2:
  00016	8b 4d f0	 mov	 ecx, DWORD PTR _this$[ebp]
  00019	81 c1 40 01 00
	00		 add	 ecx, 320		; 00000140H
  0001f	e9 00 00 00 00	 jmp	 ??1CComboBox@@UAE@XZ	; CComboBox::~CComboBox
__unwindfunclet$??0CRealPacketPage@@QAE@XZ$3:
  00024	8b 4d f0	 mov	 ecx, DWORD PTR _this$[ebp]
  00027	81 c1 c0 01 00
	00		 add	 ecx, 448		; 000001c0H
  0002d	e9 00 00 00 00	 jmp	 ??1CNoSystemMenuEdit@@UAE@XZ ; CNoSystemMenuEdit::~CNoSystemMenuEdit
__unwindfunclet$??0CRealPacketPage@@QAE@XZ$4:
  00032	8b 4d f0	 mov	 ecx, DWORD PTR _this$[ebp]
  00035	81 c1 40 02 00
	00		 add	 ecx, 576		; 00000240H
  0003b	e9 00 00 00 00	 jmp	 ??1CComboBox@@UAE@XZ	; CComboBox::~CComboBox
__unwindfunclet$??0CRealPacketPage@@QAE@XZ$5:
  00040	8b 4d f0	 mov	 ecx, DWORD PTR _this$[ebp]
  00043	81 c1 c0 02 00
	00		 add	 ecx, 704		; 000002c0H
  00049	e9 00 00 00 00	 jmp	 ??1CListCtrl@@UAE@XZ	; CListCtrl::~CListCtrl
__unwindfunclet$??0CRealPacketPage@@QAE@XZ$6:
  0004e	8b 4d f0	 mov	 ecx, DWORD PTR _this$[ebp]
  00051	81 c1 40 03 00
	00		 add	 ecx, 832		; 00000340H
  00057	ff 25 00 00 00
	00		 jmp	 DWORD PTR __imp_??1?$CStringT@DV?$StrTraitMFC_DLL@DV?$ChTraitsCRT@D@ATL@@@@@ATL@@QAE@XZ
__unwindfunclet$??0CRealPacketPage@@QAE@XZ$7:
  0005d	8b 4d f0	 mov	 ecx, DWORD PTR _this$[ebp]
  00060	81 c1 44 03 00
	00		 add	 ecx, 836		; 00000344H
  00066	ff 25 00 00 00
	00		 jmp	 DWORD PTR __imp_??1?$CStringT@DV?$StrTraitMFC_DLL@DV?$ChTraitsCRT@D@ATL@@@@@ATL@@QAE@XZ
__unwindfunclet$??0CRealPacketPage@@QAE@XZ$8:
  0006c	8b 4d f0	 mov	 ecx, DWORD PTR _this$[ebp]
  0006f	81 c1 48 03 00
	00		 add	 ecx, 840		; 00000348H
  00075	ff 25 00 00 00
	00		 jmp	 DWORD PTR __imp_??1?$CStringT@DV?$StrTraitMFC_DLL@DV?$ChTraitsCRT@D@ATL@@@@@ATL@@QAE@XZ
__unwindfunclet$??0CRealPacketPage@@QAE@XZ$9:
  0007b	8b 4d f0	 mov	 ecx, DWORD PTR _this$[ebp]
  0007e	81 c1 4c 03 00
	00		 add	 ecx, 844		; 0000034cH
  00084	ff 25 00 00 00
	00		 jmp	 DWORD PTR __imp_??1?$CStringT@DV?$StrTraitMFC_DLL@DV?$ChTraitsCRT@D@ATL@@@@@ATL@@QAE@XZ
__unwindfunclet$??0CRealPacketPage@@QAE@XZ$10:
  0008a	8b 4d f0	 mov	 ecx, DWORD PTR _this$[ebp]
  0008d	81 c1 60 03 00
	00		 add	 ecx, 864		; 00000360H
  00093	ff 25 00 00 00
	00		 jmp	 DWORD PTR __imp_??1?$CStringT@DV?$StrTraitMFC_DLL@DV?$ChTraitsCRT@D@ATL@@@@@ATL@@QAE@XZ
__unwindfunclet$??0CRealPacketPage@@QAE@XZ$11:
  00099	8b 4d f0	 mov	 ecx, DWORD PTR _this$[ebp]
  0009c	81 c1 68 03 00
	00		 add	 ecx, 872		; 00000368H
  000a2	ff 25 00 00 00
	00		 jmp	 DWORD PTR __imp_??1?$CStringT@DV?$StrTraitMFC_DLL@DV?$ChTraitsCRT@D@ATL@@@@@ATL@@QAE@XZ
__unwindfunclet$??0CRealPacketPage@@QAE@XZ$12:
  000a8	8b 4d f0	 mov	 ecx, DWORD PTR _this$[ebp]
  000ab	81 c1 70 03 00
	00		 add	 ecx, 880		; 00000370H
  000b1	e9 00 00 00 00	 jmp	 ??1CTreeCombo@@UAE@XZ	; CTreeCombo::~CTreeCombo
__unwindfunclet$??0CRealPacketPage@@QAE@XZ$13:
  000b6	8b 4d f0	 mov	 ecx, DWORD PTR _this$[ebp]
  000b9	81 c1 b0 05 00
	00		 add	 ecx, 1456		; 000005b0H
  000bf	ff 25 00 00 00
	00		 jmp	 DWORD PTR __imp_??1?$CStringT@DV?$StrTraitMFC_DLL@DV?$ChTraitsCRT@D@ATL@@@@@ATL@@QAE@XZ
  000c5	cc		 int	 3
  000c6	cc		 int	 3
  000c7	cc		 int	 3
  000c8	cc		 int	 3
  000c9	cc		 int	 3
__ehhandler$??0CRealPacketPage@@QAE@XZ:
  000ca	90		 npad	 1
  000cb	90		 npad	 1
  000cc	8b 54 24 08	 mov	 edx, DWORD PTR [esp+8]
  000d0	8d 42 0c	 lea	 eax, DWORD PTR [edx+12]
  000d3	8b 4a e8	 mov	 ecx, DWORD PTR [edx-24]
  000d6	33 c8		 xor	 ecx, eax
  000d8	e8 00 00 00 00	 call	 @__security_check_cookie@4
  000dd	b8 00 00 00 00	 mov	 eax, OFFSET __ehfuncinfo$??0CRealPacketPage@@QAE@XZ
  000e2	e9 00 00 00 00	 jmp	 ___CxxFrameHandler3
text$x	ENDS
??0CRealPacketPage@@QAE@XZ ENDP				; CRealPacketPage::CRealPacketPage
; Function compile flags: /Ogtp
; File D:\git\src\IBK\IBK_DRFN\ProjSrc\SrcChartEx\ChartAddIn\ChartDesignPropertyAddIn\ChartDesignPropertyAddIn\RealPacketPage.cpp
; File C:\Program Files (x86)\Microsoft Visual Studio\2019\Community\VC\Tools\MSVC\14.29.30133\atlmfc\include\afx.inl
; File D:\git\src\IBK\IBK_DRFN\ProjSrc\SrcChartEx\ChartAddIn\ChartDesignPropertyAddIn\ChartDesignPropertyAddIn\RealPacketPage.cpp
; File C:\Program Files (x86)\Microsoft Visual Studio\2019\Community\VC\Tools\MSVC\14.29.30133\atlmfc\include\afx.inl
; File D:\git\src\IBK\IBK_DRFN\ProjSrc\SrcChartEx\ChartAddIn\ChartDesignPropertyAddIn\ChartDesignPropertyAddIn\RealPacketPage.cpp
; File C:\Program Files (x86)\Microsoft Visual Studio\2019\Community\VC\Tools\MSVC\14.29.30133\atlmfc\include\afxwin2.inl
; File D:\git\src\IBK\IBK_DRFN\ProjSrc\SrcChartEx\ChartAddIn\ChartDesignPropertyAddIn\ChartDesignPropertyAddIn\RealPacketPage.cpp
; File C:\Program Files (x86)\Microsoft Visual Studio\2019\Community\VC\Tools\MSVC\14.29.30133\atlmfc\include\afxwin2.inl
; File D:\git\src\IBK\IBK_DRFN\ProjSrc\SrcChartEx\ChartAddIn\ChartDesignPropertyAddIn\ChartDesignPropertyAddIn\RealPacketPage.cpp
; File C:\Program Files (x86)\Microsoft Visual Studio\2019\Community\VC\Tools\MSVC\14.29.30133\atlmfc\include\afxwin2.inl
; File D:\git\src\IBK\IBK_DRFN\ProjSrc\SrcChartEx\ChartAddIn\ChartDesignPropertyAddIn\ChartDesignPropertyAddIn\RealPacketPage.cpp
; File C:\Program Files (x86)\Microsoft Visual Studio\2019\Community\VC\Tools\MSVC\14.29.30133\atlmfc\include\afxwin2.inl
; File D:\git\src\IBK\IBK_DRFN\ProjSrc\SrcChartEx\ChartAddIn\ChartDesignPropertyAddIn\ChartDesignPropertyAddIn\RealPacketPage.cpp
; File C:\Program Files (x86)\Microsoft Visual Studio\2019\Community\VC\Tools\MSVC\14.29.30133\atlmfc\include\afxwin2.inl
; File D:\git\src\IBK\IBK_DRFN\ProjSrc\SrcChartEx\ChartAddIn\ChartDesignPropertyAddIn\ChartDesignPropertyAddIn\RealPacketPage.cpp
; File C:\Program Files (x86)\Microsoft Visual Studio\2019\Community\VC\Tools\MSVC\14.29.30133\atlmfc\include\afxwin2.inl
; File D:\git\src\IBK\IBK_DRFN\ProjSrc\SrcChartEx\ChartAddIn\ChartDesignPropertyAddIn\ChartDesignPropertyAddIn\RealPacketPage.cpp
; File C:\Program Files (x86)\Microsoft Visual Studio\2019\Community\VC\Tools\MSVC\14.29.30133\atlmfc\include\afxcmn.inl
; File D:\git\src\IBK\IBK_DRFN\ProjSrc\SrcChartEx\ChartAddIn\ChartDesignPropertyAddIn\ChartDesignPropertyAddIn\RealPacketPage.cpp
; File C:\Program Files (x86)\Microsoft Visual Studio\2019\Community\VC\Tools\MSVC\14.29.30133\atlmfc\include\afxcmn.inl
; File D:\git\src\IBK\IBK_DRFN\ProjSrc\SrcChartEx\ChartAddIn\ChartDesignPropertyAddIn\ChartDesignPropertyAddIn\RealPacketPage.cpp
;	COMDAT ?CreateObject@CRealPacketPage@@SGPAVCObject@@XZ
_TEXT	SEGMENT
_this$ = -20						; size = 4
_this$ = -20						; size = 4
_this$ = -20						; size = 4
_this$ = -20						; size = 4
$T2 = -16						; size = 4
__$EHRec$ = -12						; size = 12
?CreateObject@CRealPacketPage@@SGPAVCObject@@XZ PROC	; CRealPacketPage::CreateObject, COMDAT

; 27   : IMPLEMENT_DYNCREATE(CRealPacketPage, CPropertyPage)

  00000	55		 push	 ebp
  00001	8b ec		 mov	 ebp, esp
  00003	6a ff		 push	 -1
  00005	68 00 00 00 00	 push	 __ehhandler$?CreateObject@CRealPacketPage@@SGPAVCObject@@XZ
  0000a	64 a1 00 00 00
	00		 mov	 eax, DWORD PTR fs:0
  00010	50		 push	 eax
  00011	83 ec 08	 sub	 esp, 8
  00014	53		 push	 ebx
  00015	56		 push	 esi
  00016	57		 push	 edi
  00017	a1 00 00 00 00	 mov	 eax, DWORD PTR ___security_cookie
  0001c	33 c5		 xor	 eax, ebp
  0001e	50		 push	 eax
  0001f	8d 45 f4	 lea	 eax, DWORD PTR __$EHRec$[ebp]
  00022	64 a3 00 00 00
	00		 mov	 DWORD PTR fs:0, eax
; File C:\Program Files (x86)\Microsoft Visual Studio\2019\Community\VC\Tools\MSVC\14.29.30133\atlmfc\include\afx.inl

; 116  : 	{ return ::operator new(nSize); }

  00028	68 c0 05 00 00	 push	 1472			; 000005c0H
  0002d	e8 00 00 00 00	 call	 ??2@YAPAXI@Z		; operator new
; File D:\git\src\IBK\IBK_DRFN\ProjSrc\SrcChartEx\ChartAddIn\ChartDesignPropertyAddIn\ChartDesignPropertyAddIn\RealPacketPage.cpp

; 27   : IMPLEMENT_DYNCREATE(CRealPacketPage, CPropertyPage)

  00032	8b f8		 mov	 edi, eax
; File C:\Program Files (x86)\Microsoft Visual Studio\2019\Community\VC\Tools\MSVC\14.29.30133\atlmfc\include\afx.inl

; 116  : 	{ return ::operator new(nSize); }

  00034	83 c4 04	 add	 esp, 4
; File D:\git\src\IBK\IBK_DRFN\ProjSrc\SrcChartEx\ChartAddIn\ChartDesignPropertyAddIn\ChartDesignPropertyAddIn\RealPacketPage.cpp

; 27   : IMPLEMENT_DYNCREATE(CRealPacketPage, CPropertyPage)

  00037	89 7d f0	 mov	 DWORD PTR $T2[ebp], edi
  0003a	c7 45 fc 00 00
	00 00		 mov	 DWORD PTR __$EHRec$[ebp+8], 0
  00041	85 ff		 test	 edi, edi
  00043	0f 84 94 01 00
	00		 je	 $LN3@CreateObje

; 29   : CRealPacketPage::CRealPacketPage() : CPropertyPage(CRealPacketPage::IDD)

  00049	6a 38		 push	 56			; 00000038H
  0004b	6a 00		 push	 0
  0004d	68 5e 1b 00 00	 push	 7006			; 00001b5eH
  00052	8b cf		 mov	 ecx, edi
  00054	e8 00 00 00 00	 call	 ??0CPropertyPage@@QAE@IIK@Z ; CPropertyPage::CPropertyPage

; 30   : {

  00059	8d b7 c0 00 00
	00		 lea	 esi, DWORD PTR [edi+192]
  0005f	c6 45 fc 01	 mov	 BYTE PTR __$EHRec$[ebp+8], 1
; File C:\Program Files (x86)\Microsoft Visual Studio\2019\Community\VC\Tools\MSVC\14.29.30133\atlmfc\include\afxwin2.inl

; 761  : 	{ }

  00063	8b ce		 mov	 ecx, esi
; File D:\git\src\IBK\IBK_DRFN\ProjSrc\SrcChartEx\ChartAddIn\ChartDesignPropertyAddIn\ChartDesignPropertyAddIn\RealPacketPage.cpp

; 30   : {

  00065	c7 07 00 00 00
	00		 mov	 DWORD PTR [edi], OFFSET ??_7CRealPacketPage@@6B@
  0006b	89 75 ec	 mov	 DWORD PTR _this$[ebp], esi
; File C:\Program Files (x86)\Microsoft Visual Studio\2019\Community\VC\Tools\MSVC\14.29.30133\atlmfc\include\afxwin2.inl

; 761  : 	{ }

  0006e	e8 00 00 00 00	 call	 ??0CWnd@@QAE@XZ		; CWnd::CWnd
  00073	c7 06 00 00 00
	00		 mov	 DWORD PTR [esi], OFFSET ??_7CComboBox@@6B@
; File D:\git\src\IBK\IBK_DRFN\ProjSrc\SrcChartEx\ChartAddIn\ChartDesignPropertyAddIn\ChartDesignPropertyAddIn\RealPacketPage.cpp

; 30   : {

  00079	8d b7 40 01 00
	00		 lea	 esi, DWORD PTR [edi+320]
  0007f	c6 45 fc 02	 mov	 BYTE PTR __$EHRec$[ebp+8], 2
; File C:\Program Files (x86)\Microsoft Visual Studio\2019\Community\VC\Tools\MSVC\14.29.30133\atlmfc\include\afxwin2.inl

; 761  : 	{ }

  00083	8b ce		 mov	 ecx, esi
; File D:\git\src\IBK\IBK_DRFN\ProjSrc\SrcChartEx\ChartAddIn\ChartDesignPropertyAddIn\ChartDesignPropertyAddIn\RealPacketPage.cpp

; 30   : {

  00085	89 75 ec	 mov	 DWORD PTR _this$[ebp], esi
; File C:\Program Files (x86)\Microsoft Visual Studio\2019\Community\VC\Tools\MSVC\14.29.30133\atlmfc\include\afxwin2.inl

; 761  : 	{ }

  00088	e8 00 00 00 00	 call	 ??0CWnd@@QAE@XZ		; CWnd::CWnd
  0008d	c7 06 00 00 00
	00		 mov	 DWORD PTR [esi], OFFSET ??_7CComboBox@@6B@
; File D:\git\src\IBK\IBK_DRFN\ProjSrc\SrcChartEx\ChartAddIn\ChartDesignPropertyAddIn\ChartDesignPropertyAddIn\RealPacketPage.cpp

; 30   : {

  00093	8d 8f c0 01 00
	00		 lea	 ecx, DWORD PTR [edi+448]
  00099	c6 45 fc 03	 mov	 BYTE PTR __$EHRec$[ebp+8], 3
  0009d	e8 00 00 00 00	 call	 ??0CNoSystemMenuEdit@@QAE@XZ ; CNoSystemMenuEdit::CNoSystemMenuEdit
  000a2	8d b7 40 02 00
	00		 lea	 esi, DWORD PTR [edi+576]
  000a8	c6 45 fc 04	 mov	 BYTE PTR __$EHRec$[ebp+8], 4
; File C:\Program Files (x86)\Microsoft Visual Studio\2019\Community\VC\Tools\MSVC\14.29.30133\atlmfc\include\afxwin2.inl

; 761  : 	{ }

  000ac	8b ce		 mov	 ecx, esi
; File D:\git\src\IBK\IBK_DRFN\ProjSrc\SrcChartEx\ChartAddIn\ChartDesignPropertyAddIn\ChartDesignPropertyAddIn\RealPacketPage.cpp

; 30   : {

  000ae	89 75 ec	 mov	 DWORD PTR _this$[ebp], esi
; File C:\Program Files (x86)\Microsoft Visual Studio\2019\Community\VC\Tools\MSVC\14.29.30133\atlmfc\include\afxwin2.inl

; 761  : 	{ }

  000b1	e8 00 00 00 00	 call	 ??0CWnd@@QAE@XZ		; CWnd::CWnd
  000b6	c7 06 00 00 00
	00		 mov	 DWORD PTR [esi], OFFSET ??_7CComboBox@@6B@
; File D:\git\src\IBK\IBK_DRFN\ProjSrc\SrcChartEx\ChartAddIn\ChartDesignPropertyAddIn\ChartDesignPropertyAddIn\RealPacketPage.cpp

; 30   : {

  000bc	8d b7 c0 02 00
	00		 lea	 esi, DWORD PTR [edi+704]
  000c2	c6 45 fc 05	 mov	 BYTE PTR __$EHRec$[ebp+8], 5
; File C:\Program Files (x86)\Microsoft Visual Studio\2019\Community\VC\Tools\MSVC\14.29.30133\atlmfc\include\afxcmn.inl

; 141  : 	{ }

  000c6	8b ce		 mov	 ecx, esi
; File D:\git\src\IBK\IBK_DRFN\ProjSrc\SrcChartEx\ChartAddIn\ChartDesignPropertyAddIn\ChartDesignPropertyAddIn\RealPacketPage.cpp

; 30   : {

  000c8	89 75 ec	 mov	 DWORD PTR _this$[ebp], esi
; File C:\Program Files (x86)\Microsoft Visual Studio\2019\Community\VC\Tools\MSVC\14.29.30133\atlmfc\include\afxcmn.inl

; 141  : 	{ }

  000cb	e8 00 00 00 00	 call	 ??0CWnd@@QAE@XZ		; CWnd::CWnd
  000d0	c7 06 00 00 00
	00		 mov	 DWORD PTR [esi], OFFSET ??_7CListCtrl@@6B@
; File D:\git\src\IBK\IBK_DRFN\ProjSrc\SrcChartEx\ChartAddIn\ChartDesignPropertyAddIn\ChartDesignPropertyAddIn\RealPacketPage.cpp

; 30   : {

  000d6	8d 8f 40 03 00
	00		 lea	 ecx, DWORD PTR [edi+832]
  000dc	ff 15 00 00 00
	00		 call	 DWORD PTR __imp_??0?$CStringT@DV?$StrTraitMFC_DLL@DV?$ChTraitsCRT@D@ATL@@@@@ATL@@QAE@XZ
  000e2	8d 8f 44 03 00
	00		 lea	 ecx, DWORD PTR [edi+836]
  000e8	ff 15 00 00 00
	00		 call	 DWORD PTR __imp_??0?$CStringT@DV?$StrTraitMFC_DLL@DV?$ChTraitsCRT@D@ATL@@@@@ATL@@QAE@XZ
  000ee	8d 8f 48 03 00
	00		 lea	 ecx, DWORD PTR [edi+840]
  000f4	ff 15 00 00 00
	00		 call	 DWORD PTR __imp_??0?$CStringT@DV?$StrTraitMFC_DLL@DV?$ChTraitsCRT@D@ATL@@@@@ATL@@QAE@XZ
  000fa	8b f7		 mov	 esi, edi
  000fc	8d 8e 4c 03 00
	00		 lea	 ecx, DWORD PTR [esi+844]
  00102	ff 15 00 00 00
	00		 call	 DWORD PTR __imp_??0?$CStringT@DV?$StrTraitMFC_DLL@DV?$ChTraitsCRT@D@ATL@@@@@ATL@@QAE@XZ
  00108	8b cf		 mov	 ecx, edi
  0010a	8d 89 60 03 00
	00		 lea	 ecx, DWORD PTR [ecx+864]
  00110	ff 15 00 00 00
	00		 call	 DWORD PTR __imp_??0?$CStringT@DV?$StrTraitMFC_DLL@DV?$ChTraitsCRT@D@ATL@@@@@ATL@@QAE@XZ
  00116	8b cf		 mov	 ecx, edi
  00118	8d 89 68 03 00
	00		 lea	 ecx, DWORD PTR [ecx+872]
  0011e	ff 15 00 00 00
	00		 call	 DWORD PTR __imp_??0?$CStringT@DV?$StrTraitMFC_DLL@DV?$ChTraitsCRT@D@ATL@@@@@ATL@@QAE@XZ
  00124	8b cf		 mov	 ecx, edi
  00126	c6 45 fc 0c	 mov	 BYTE PTR __$EHRec$[ebp+8], 12 ; 0000000cH
  0012a	8d 89 70 03 00
	00		 lea	 ecx, DWORD PTR [ecx+880]
  00130	e8 00 00 00 00	 call	 ??0CTreeCombo@@QAE@XZ	; CTreeCombo::CTreeCombo
  00135	8b cf		 mov	 ecx, edi
  00137	8d 89 b0 05 00
	00		 lea	 ecx, DWORD PTR [ecx+1456]
  0013d	ff 15 00 00 00
	00		 call	 DWORD PTR __imp_??0?$CStringT@DV?$StrTraitMFC_DLL@DV?$ChTraitsCRT@D@ATL@@@@@ATL@@QAE@XZ

; 31   : 	//{{AFX_DATA_INIT(CRealPacketPage)
; 32   : 	m_sLocalSharedList = _T("");

  00143	8b cf		 mov	 ecx, edi
  00145	c6 45 fc 0e	 mov	 BYTE PTR __$EHRec$[ebp+8], 14 ; 0000000eH
  00149	68 00 00 00 00	 push	 OFFSET ??_C@_00CNPNBAHC@@
  0014e	8d 89 40 03 00
	00		 lea	 ecx, DWORD PTR [ecx+832]
  00154	ff 15 00 00 00
	00		 call	 DWORD PTR __imp_??4?$CStringT@DV?$StrTraitMFC_DLL@DV?$ChTraitsCRT@D@ATL@@@@@ATL@@QAEAAV01@PBD@Z

; 33   : 	m_szRealList = _T("");

  0015a	68 00 00 00 00	 push	 OFFSET ??_C@_00CNPNBAHC@@
  0015f	8d 8f 44 03 00
	00		 lea	 ecx, DWORD PTR [edi+836]
  00165	ff 15 00 00 00
	00		 call	 DWORD PTR __imp_??4?$CStringT@DV?$StrTraitMFC_DLL@DV?$ChTraitsCRT@D@ATL@@@@@ATL@@QAEAAV01@PBD@Z

; 34   : 	m_strPacket = _T("");

  0016b	68 00 00 00 00	 push	 OFFSET ??_C@_00CNPNBAHC@@
  00170	8d 8f 48 03 00
	00		 lea	 ecx, DWORD PTR [edi+840]
  00176	ff 15 00 00 00
	00		 call	 DWORD PTR __imp_??4?$CStringT@DV?$StrTraitMFC_DLL@DV?$ChTraitsCRT@D@ATL@@@@@ATL@@QAEAAV01@PBD@Z

; 35   : 	m_szKeyName = _T("");

  0017c	68 00 00 00 00	 push	 OFFSET ??_C@_00CNPNBAHC@@
  00181	8d 8e 4c 03 00
	00		 lea	 ecx, DWORD PTR [esi+844]
  00187	ff 15 00 00 00
	00		 call	 DWORD PTR __imp_??4?$CStringT@DV?$StrTraitMFC_DLL@DV?$ChTraitsCRT@D@ATL@@@@@ATL@@QAEAAV01@PBD@Z

; 36   : 	m_bUseRealData = FALSE;

  0018d	8b c7		 mov	 eax, edi
  0018f	c7 80 50 03 00
	00 00 00 00 00	 mov	 DWORD PTR [eax+848], 0

; 37   : 	m_nPacketSize = 2048;

  00199	c7 80 54 03 00
	00 00 08 00 00	 mov	 DWORD PTR [eax+852], 2048 ; 00000800H

; 38   : 	m_bFireRealEvent = FALSE;

  001a3	c7 80 5c 03 00
	00 00 00 00 00	 mov	 DWORD PTR [eax+860], 0

; 39   : 	//}}AFX_DATA_INIT
; 40   : 	m_bRedrawInCaseOfRealApplyToAllPacket = TRUE;

  001ad	c7 80 58 03 00
	00 01 00 00 00	 mov	 DWORD PTR [eax+856], 1

; 41   : 
; 42   : 	// (2006/7/5 - Seung-Won, Bae) Manage Property Map for Update
; 43   : 	m_pIPropertyMap = NULL;

  001b7	c7 80 b4 05 00
	00 00 00 00 00	 mov	 DWORD PTR [eax+1460], 0

; 44   : 
; 45   : 	// (2008/1/14 - Seung-Won, Bae) for MultiLanguage.
; 46   : 	m_hOcxWnd = NULL;

  001c1	c7 80 b8 05 00
	00 00 00 00 00	 mov	 DWORD PTR [eax+1464], 0

; 27   : IMPLEMENT_DYNCREATE(CRealPacketPage, CPropertyPage)

  001cb	8b 4d f4	 mov	 ecx, DWORD PTR __$EHRec$[ebp]
  001ce	64 89 0d 00 00
	00 00		 mov	 DWORD PTR fs:0, ecx
  001d5	59		 pop	 ecx
  001d6	5f		 pop	 edi
  001d7	5e		 pop	 esi
  001d8	5b		 pop	 ebx
  001d9	8b e5		 mov	 esp, ebp
  001db	5d		 pop	 ebp
  001dc	c3		 ret	 0
$LN3@CreateObje:
  001dd	33 c0		 xor	 eax, eax
  001df	8b 4d f4	 mov	 ecx, DWORD PTR __$EHRec$[ebp]
  001e2	64 89 0d 00 00
	00 00		 mov	 DWORD PTR fs:0, ecx
  001e9	59		 pop	 ecx
  001ea	5f		 pop	 edi
  001eb	5e		 pop	 esi
  001ec	5b		 pop	 ebx
  001ed	8b e5		 mov	 esp, ebp
  001ef	5d		 pop	 ebp
  001f0	c3		 ret	 0
_TEXT	ENDS
;	COMDAT text$x
text$x	SEGMENT
__unwindfunclet$?CreateObject@CRealPacketPage@@SGPAVCObject@@XZ$0:
  00000	8b 45 f0	 mov	 eax, DWORD PTR $T2[ebp]
  00003	50		 push	 eax
  00004	e8 00 00 00 00	 call	 ??3CObject@@SGXPAX@Z	; CObject::operator delete
  00009	c3		 ret	 0
__unwindfunclet$?CreateObject@CRealPacketPage@@SGPAVCObject@@XZ$1:
  0000a	8b 4d f0	 mov	 ecx, DWORD PTR $T2[ebp]
  0000d	e9 00 00 00 00	 jmp	 ??1CPropertyPage@@UAE@XZ ; CPropertyPage::~CPropertyPage
__unwindfunclet$?CreateObject@CRealPacketPage@@SGPAVCObject@@XZ$2:
  00012	8b 4d f0	 mov	 ecx, DWORD PTR $T2[ebp]
  00015	81 c1 c0 00 00
	00		 add	 ecx, 192		; 000000c0H
  0001b	e9 00 00 00 00	 jmp	 ??1CComboBox@@UAE@XZ	; CComboBox::~CComboBox
__unwindfunclet$?CreateObject@CRealPacketPage@@SGPAVCObject@@XZ$3:
  00020	8b 4d f0	 mov	 ecx, DWORD PTR $T2[ebp]
  00023	81 c1 40 01 00
	00		 add	 ecx, 320		; 00000140H
  00029	e9 00 00 00 00	 jmp	 ??1CComboBox@@UAE@XZ	; CComboBox::~CComboBox
__unwindfunclet$?CreateObject@CRealPacketPage@@SGPAVCObject@@XZ$4:
  0002e	8b 4d f0	 mov	 ecx, DWORD PTR $T2[ebp]
  00031	81 c1 c0 01 00
	00		 add	 ecx, 448		; 000001c0H
  00037	e9 00 00 00 00	 jmp	 ??1CNoSystemMenuEdit@@UAE@XZ ; CNoSystemMenuEdit::~CNoSystemMenuEdit
__unwindfunclet$?CreateObject@CRealPacketPage@@SGPAVCObject@@XZ$5:
  0003c	8b 4d f0	 mov	 ecx, DWORD PTR $T2[ebp]
  0003f	81 c1 40 02 00
	00		 add	 ecx, 576		; 00000240H
  00045	e9 00 00 00 00	 jmp	 ??1CComboBox@@UAE@XZ	; CComboBox::~CComboBox
__unwindfunclet$?CreateObject@CRealPacketPage@@SGPAVCObject@@XZ$6:
  0004a	8b 4d f0	 mov	 ecx, DWORD PTR $T2[ebp]
  0004d	81 c1 c0 02 00
	00		 add	 ecx, 704		; 000002c0H
  00053	e9 00 00 00 00	 jmp	 ??1CListCtrl@@UAE@XZ	; CListCtrl::~CListCtrl
__unwindfunclet$?CreateObject@CRealPacketPage@@SGPAVCObject@@XZ$7:
  00058	8b 4d f0	 mov	 ecx, DWORD PTR $T2[ebp]
  0005b	81 c1 40 03 00
	00		 add	 ecx, 832		; 00000340H
  00061	ff 25 00 00 00
	00		 jmp	 DWORD PTR __imp_??1?$CStringT@DV?$StrTraitMFC_DLL@DV?$ChTraitsCRT@D@ATL@@@@@ATL@@QAE@XZ
__unwindfunclet$?CreateObject@CRealPacketPage@@SGPAVCObject@@XZ$8:
  00067	8b 4d f0	 mov	 ecx, DWORD PTR $T2[ebp]
  0006a	81 c1 44 03 00
	00		 add	 ecx, 836		; 00000344H
  00070	ff 25 00 00 00
	00		 jmp	 DWORD PTR __imp_??1?$CStringT@DV?$StrTraitMFC_DLL@DV?$ChTraitsCRT@D@ATL@@@@@ATL@@QAE@XZ
__unwindfunclet$?CreateObject@CRealPacketPage@@SGPAVCObject@@XZ$9:
  00076	8b 4d f0	 mov	 ecx, DWORD PTR $T2[ebp]
  00079	81 c1 48 03 00
	00		 add	 ecx, 840		; 00000348H
  0007f	ff 25 00 00 00
	00		 jmp	 DWORD PTR __imp_??1?$CStringT@DV?$StrTraitMFC_DLL@DV?$ChTraitsCRT@D@ATL@@@@@ATL@@QAE@XZ
__unwindfunclet$?CreateObject@CRealPacketPage@@SGPAVCObject@@XZ$10:
  00085	8b 4d f0	 mov	 ecx, DWORD PTR $T2[ebp]
  00088	81 c1 4c 03 00
	00		 add	 ecx, 844		; 0000034cH
  0008e	ff 25 00 00 00
	00		 jmp	 DWORD PTR __imp_??1?$CStringT@DV?$StrTraitMFC_DLL@DV?$ChTraitsCRT@D@ATL@@@@@ATL@@QAE@XZ
__unwindfunclet$?CreateObject@CRealPacketPage@@SGPAVCObject@@XZ$11:
  00094	8b 4d f0	 mov	 ecx, DWORD PTR $T2[ebp]
  00097	81 c1 60 03 00
	00		 add	 ecx, 864		; 00000360H
  0009d	ff 25 00 00 00
	00		 jmp	 DWORD PTR __imp_??1?$CStringT@DV?$StrTraitMFC_DLL@DV?$ChTraitsCRT@D@ATL@@@@@ATL@@QAE@XZ
__unwindfunclet$?CreateObject@CRealPacketPage@@SGPAVCObject@@XZ$12:
  000a3	8b 4d f0	 mov	 ecx, DWORD PTR $T2[ebp]
  000a6	81 c1 68 03 00
	00		 add	 ecx, 872		; 00000368H
  000ac	ff 25 00 00 00
	00		 jmp	 DWORD PTR __imp_??1?$CStringT@DV?$StrTraitMFC_DLL@DV?$ChTraitsCRT@D@ATL@@@@@ATL@@QAE@XZ
__unwindfunclet$?CreateObject@CRealPacketPage@@SGPAVCObject@@XZ$13:
  000b2	8b 4d f0	 mov	 ecx, DWORD PTR $T2[ebp]
  000b5	81 c1 70 03 00
	00		 add	 ecx, 880		; 00000370H
  000bb	e9 00 00 00 00	 jmp	 ??1CTreeCombo@@UAE@XZ	; CTreeCombo::~CTreeCombo
__unwindfunclet$?CreateObject@CRealPacketPage@@SGPAVCObject@@XZ$14:
  000c0	8b 4d f0	 mov	 ecx, DWORD PTR $T2[ebp]
  000c3	81 c1 b0 05 00
	00		 add	 ecx, 1456		; 000005b0H
  000c9	ff 25 00 00 00
	00		 jmp	 DWORD PTR __imp_??1?$CStringT@DV?$StrTraitMFC_DLL@DV?$ChTraitsCRT@D@ATL@@@@@ATL@@QAE@XZ
  000cf	cc		 int	 3
  000d0	cc		 int	 3
  000d1	cc		 int	 3
  000d2	cc		 int	 3
  000d3	cc		 int	 3
__ehhandler$?CreateObject@CRealPacketPage@@SGPAVCObject@@XZ:
  000d4	90		 npad	 1
  000d5	90		 npad	 1
  000d6	8b 54 24 08	 mov	 edx, DWORD PTR [esp+8]
  000da	8d 42 0c	 lea	 eax, DWORD PTR [edx+12]
  000dd	8b 4a e8	 mov	 ecx, DWORD PTR [edx-24]
  000e0	33 c8		 xor	 ecx, eax
  000e2	e8 00 00 00 00	 call	 @__security_check_cookie@4
  000e7	b8 00 00 00 00	 mov	 eax, OFFSET __ehfuncinfo$?CreateObject@CRealPacketPage@@SGPAVCObject@@XZ
  000ec	e9 00 00 00 00	 jmp	 ___CxxFrameHandler3
text$x	ENDS
?CreateObject@CRealPacketPage@@SGPAVCObject@@XZ ENDP	; CRealPacketPage::CreateObject
; Function compile flags: /Ogtp
; File D:\git\src\IBK\IBK_DRFN\ProjSrc\SrcChartEx\ChartAddIn\ChartDesignPropertyAddIn\ChartDesignPropertyAddIn\RealPacketPage.cpp
;	COMDAT ?GetRuntimeClass@CRealPacketPage@@UBEPAUCRuntimeClass@@XZ
_TEXT	SEGMENT
?GetRuntimeClass@CRealPacketPage@@UBEPAUCRuntimeClass@@XZ PROC ; CRealPacketPage::GetRuntimeClass, COMDAT
; _this$ = ecx

; 27   : IMPLEMENT_DYNCREATE(CRealPacketPage, CPropertyPage)

  00000	b8 00 00 00 00	 mov	 eax, OFFSET ?classCRealPacketPage@CRealPacketPage@@2UCRuntimeClass@@B ; CRealPacketPage::classCRealPacketPage
  00005	c3		 ret	 0
?GetRuntimeClass@CRealPacketPage@@UBEPAUCRuntimeClass@@XZ ENDP ; CRealPacketPage::GetRuntimeClass
_TEXT	ENDS
; Function compile flags: /Ogtp
; File D:\git\src\IBK\IBK_DRFN\ProjSrc\SrcChartEx\ChartAddIn\ChartDesignPropertyAddIn\ChartDesignPropertyAddIn\RealPacketPage.cpp
;	COMDAT ?GetThisClass@CRealPacketPage@@SGPAUCRuntimeClass@@XZ
_TEXT	SEGMENT
?GetThisClass@CRealPacketPage@@SGPAUCRuntimeClass@@XZ PROC ; CRealPacketPage::GetThisClass, COMDAT

; 27   : IMPLEMENT_DYNCREATE(CRealPacketPage, CPropertyPage)

  00000	b8 00 00 00 00	 mov	 eax, OFFSET ?classCRealPacketPage@CRealPacketPage@@2UCRuntimeClass@@B ; CRealPacketPage::classCRealPacketPage
  00005	c3		 ret	 0
?GetThisClass@CRealPacketPage@@SGPAUCRuntimeClass@@XZ ENDP ; CRealPacketPage::GetThisClass
_TEXT	ENDS
; Function compile flags: /Ogtp
; File D:\git\src\IBK\IBK_DRFN\ProjSrc\SrcChartEx\ChartAddIn\ChartDesignPropertyAddIn\ChartDesignPropertyAddIn\RealPacketPage.cpp
;	COMDAT ?_GetBaseClass@CRealPacketPage@@KGPAUCRuntimeClass@@XZ
_TEXT	SEGMENT
?_GetBaseClass@CRealPacketPage@@KGPAUCRuntimeClass@@XZ PROC ; CRealPacketPage::_GetBaseClass, COMDAT

; 27   : IMPLEMENT_DYNCREATE(CRealPacketPage, CPropertyPage)

  00000	e9 00 00 00 00	 jmp	 ?GetThisClass@CPropertyPage@@SGPAUCRuntimeClass@@XZ ; CPropertyPage::GetThisClass
?_GetBaseClass@CRealPacketPage@@KGPAUCRuntimeClass@@XZ ENDP ; CRealPacketPage::_GetBaseClass
_TEXT	ENDS
; Function compile flags: /Ogtp
; File D:\git\src\IBK\IBK_DRFN\ProjSrc\SrcChartEx\ChartAddIn\ChartDesignPropertyAddIn\Include_Chart\Dll_Load\IMetaTable.h
; File C:\Program Files (x86)\Microsoft Visual Studio\2019\Community\VC\Tools\MSVC\14.29.30133\atlmfc\include\afxwin1.inl
; File D:\git\src\IBK\IBK_DRFN\ProjSrc\SrcChartEx\ChartAddIn\ChartDesignPropertyAddIn\Include_Chart\Dll_Load\IMetaTable.h
;	COMDAT ??1CMultiLanguageResourceSetter@@QAE@XZ
_TEXT	SEGMENT
__$EHRec$ = -12						; size = 12
??1CMultiLanguageResourceSetter@@QAE@XZ PROC		; CMultiLanguageResourceSetter::~CMultiLanguageResourceSetter, COMDAT
; _this$ = ecx

; 1036 : 	{

  00000	55		 push	 ebp
  00001	8b ec		 mov	 ebp, esp
  00003	6a ff		 push	 -1
  00005	68 00 00 00 00	 push	 __ehhandler$??1CMultiLanguageResourceSetter@@QAE@XZ
  0000a	64 a1 00 00 00
	00		 mov	 eax, DWORD PTR fs:0
  00010	50		 push	 eax
  00011	56		 push	 esi
  00012	a1 00 00 00 00	 mov	 eax, DWORD PTR ___security_cookie
  00017	33 c5		 xor	 eax, ebp
  00019	50		 push	 eax
  0001a	8d 45 f4	 lea	 eax, DWORD PTR __$EHRec$[ebp]
  0001d	64 a3 00 00 00
	00		 mov	 DWORD PTR fs:0, eax

; 1037 : 		AfxSetResourceHandle( m_hInstance);

  00023	8b 31		 mov	 esi, DWORD PTR [ecx]
; File C:\Program Files (x86)\Microsoft Visual Studio\2019\Community\VC\Tools\MSVC\14.29.30133\atlmfc\include\afxwin1.inl

; 27   : 	{ ASSERT(hInstResource != NULL); afxCurrentResourceHandle = hInstResource; }

  00025	e8 00 00 00 00	 call	 ?AfxGetModuleState@@YGPAVAFX_MODULE_STATE@@XZ ; AfxGetModuleState
  0002a	89 70 0c	 mov	 DWORD PTR [eax+12], esi
; File D:\git\src\IBK\IBK_DRFN\ProjSrc\SrcChartEx\ChartAddIn\ChartDesignPropertyAddIn\Include_Chart\Dll_Load\IMetaTable.h

; 1038 : 	}

  0002d	8b 4d f4	 mov	 ecx, DWORD PTR __$EHRec$[ebp]
  00030	64 89 0d 00 00
	00 00		 mov	 DWORD PTR fs:0, ecx
  00037	59		 pop	 ecx
  00038	5e		 pop	 esi
  00039	8b e5		 mov	 esp, ebp
  0003b	5d		 pop	 ebp
  0003c	c3		 ret	 0
  0003d	cc		 int	 3
  0003e	cc		 int	 3
  0003f	cc		 int	 3
  00040	cc		 int	 3
  00041	cc		 int	 3
_TEXT	ENDS
;	COMDAT text$x
text$x	SEGMENT
__ehhandler$??1CMultiLanguageResourceSetter@@QAE@XZ:
  00000	90		 npad	 1
  00001	90		 npad	 1
  00002	8b 54 24 08	 mov	 edx, DWORD PTR [esp+8]
  00006	8d 42 0c	 lea	 eax, DWORD PTR [edx+12]
  00009	8b 4a f8	 mov	 ecx, DWORD PTR [edx-8]
  0000c	33 c8		 xor	 ecx, eax
  0000e	e8 00 00 00 00	 call	 @__security_check_cookie@4
  00013	b8 00 00 00 00	 mov	 eax, OFFSET __ehfuncinfo$??1CMultiLanguageResourceSetter@@QAE@XZ
  00018	e9 00 00 00 00	 jmp	 ___CxxFrameHandler3
text$x	ENDS
??1CMultiLanguageResourceSetter@@QAE@XZ ENDP		; CMultiLanguageResourceSetter::~CMultiLanguageResourceSetter
; Function compile flags: /Ogtp
; File C:\Program Files (x86)\Microsoft Visual Studio\2019\Community\VC\Tools\MSVC\14.29.30133\atlmfc\include\afx.inl
;	COMDAT ??_GCListCtrl@@UAEPAXI@Z
_TEXT	SEGMENT
___flags$ = 8						; size = 4
??_GCListCtrl@@UAEPAXI@Z PROC				; CListCtrl::`scalar deleting destructor', COMDAT
; _this$ = ecx
  00000	55		 push	 ebp
  00001	8b ec		 mov	 ebp, esp
  00003	56		 push	 esi
  00004	8b f1		 mov	 esi, ecx
  00006	e8 00 00 00 00	 call	 ??1CListCtrl@@UAE@XZ	; CListCtrl::~CListCtrl
  0000b	8b 45 08	 mov	 eax, DWORD PTR ___flags$[ebp]
  0000e	a8 01		 test	 al, 1
  00010	74 22		 je	 SHORT $LN9@scalar
  00012	a8 04		 test	 al, 4
  00014	75 10		 jne	 SHORT $LN3@scalar

; 112  : 	{ ::operator delete(p); }

  00016	56		 push	 esi
  00017	e8 00 00 00 00	 call	 ??3@YAXPAX@Z		; operator delete
  0001c	83 c4 04	 add	 esp, 4
  0001f	8b c6		 mov	 eax, esi
  00021	5e		 pop	 esi
  00022	5d		 pop	 ebp
  00023	c2 04 00	 ret	 4
$LN3@scalar:
  00026	68 80 00 00 00	 push	 128			; 00000080H
  0002b	56		 push	 esi
  0002c	e8 00 00 00 00	 call	 ?__global_delete@@YAXPAXI@Z ; __global_delete
  00031	83 c4 08	 add	 esp, 8
$LN9@scalar:
  00034	8b c6		 mov	 eax, esi
  00036	5e		 pop	 esi
  00037	5d		 pop	 ebp
  00038	c2 04 00	 ret	 4
??_GCListCtrl@@UAEPAXI@Z ENDP				; CListCtrl::`scalar deleting destructor'
_TEXT	ENDS
; Function compile flags: /Ogtp
; File C:\Program Files (x86)\Microsoft Visual Studio\2019\Community\VC\Tools\MSVC\14.29.30133\atlmfc\include\afx.inl
;	COMDAT ??_GCComboBox@@UAEPAXI@Z
_TEXT	SEGMENT
___flags$ = 8						; size = 4
??_GCComboBox@@UAEPAXI@Z PROC				; CComboBox::`scalar deleting destructor', COMDAT
; _this$ = ecx
  00000	55		 push	 ebp
  00001	8b ec		 mov	 ebp, esp
  00003	56		 push	 esi
  00004	8b f1		 mov	 esi, ecx
  00006	e8 00 00 00 00	 call	 ??1CComboBox@@UAE@XZ	; CComboBox::~CComboBox
  0000b	8b 45 08	 mov	 eax, DWORD PTR ___flags$[ebp]
  0000e	a8 01		 test	 al, 1
  00010	74 22		 je	 SHORT $LN9@scalar
  00012	a8 04		 test	 al, 4
  00014	75 10		 jne	 SHORT $LN3@scalar

; 112  : 	{ ::operator delete(p); }

  00016	56		 push	 esi
  00017	e8 00 00 00 00	 call	 ??3@YAXPAX@Z		; operator delete
  0001c	83 c4 04	 add	 esp, 4
  0001f	8b c6		 mov	 eax, esi
  00021	5e		 pop	 esi
  00022	5d		 pop	 ebp
  00023	c2 04 00	 ret	 4
$LN3@scalar:
  00026	68 80 00 00 00	 push	 128			; 00000080H
  0002b	56		 push	 esi
  0002c	e8 00 00 00 00	 call	 ?__global_delete@@YAXPAXI@Z ; __global_delete
  00031	83 c4 08	 add	 esp, 8
$LN9@scalar:
  00034	8b c6		 mov	 eax, esi
  00036	5e		 pop	 esi
  00037	5d		 pop	 ebp
  00038	c2 04 00	 ret	 4
??_GCComboBox@@UAEPAXI@Z ENDP				; CComboBox::`scalar deleting destructor'
_TEXT	ENDS
; Function compile flags: /Ogtp
; File C:\Program Files (x86)\Microsoft Visual Studio\2019\Community\VC\Tools\MSVC\14.29.30133\atlmfc\include\afxwin2.inl
;	COMDAT ?Create@CDialog@@UAEHIPAVCWnd@@@Z
_TEXT	SEGMENT
_nIDTemplate$ = 8					; size = 4
_pParentWnd$ = 12					; size = 4
?Create@CDialog@@UAEHIPAVCWnd@@@Z PROC			; CDialog::Create, COMDAT
; _this$ = ecx

; 585  : 	{ return CDialog::Create(ATL_MAKEINTRESOURCE(nIDTemplate), pParentWnd); }

  00000	55		 push	 ebp
  00001	8b ec		 mov	 ebp, esp
  00003	0f b7 45 08	 movzx	 eax, WORD PTR _nIDTemplate$[ebp]
  00007	89 45 08	 mov	 DWORD PTR _nIDTemplate$[ebp], eax
  0000a	5d		 pop	 ebp
  0000b	e9 00 00 00 00	 jmp	 ?Create@CDialog@@UAEHPBDPAVCWnd@@@Z ; CDialog::Create
?Create@CDialog@@UAEHIPAVCWnd@@@Z ENDP			; CDialog::Create
_TEXT	ENDS
; Function compile flags: /Ogtp
; File C:\Program Files (x86)\Microsoft Visual Studio\2019\Community\VC\Tools\MSVC\14.29.30133\atlmfc\include\afxwin2.inl
;	COMDAT ?EndModalState@CWnd@@UAEXXZ
_TEXT	SEGMENT
?EndModalState@CWnd@@UAEXXZ PROC			; CWnd::EndModalState, COMDAT
; _this$ = ecx

; 567  : 	{ ::EnableWindow(m_hWnd, TRUE); }

  00000	6a 01		 push	 1
  00002	ff 71 20	 push	 DWORD PTR [ecx+32]
  00005	ff 15 00 00 00
	00		 call	 DWORD PTR __imp__EnableWindow@8
  0000b	c3		 ret	 0
?EndModalState@CWnd@@UAEXXZ ENDP			; CWnd::EndModalState
_TEXT	ENDS
; Function compile flags: /Ogtp
; File C:\Program Files (x86)\Microsoft Visual Studio\2019\Community\VC\Tools\MSVC\14.29.30133\atlmfc\include\afxwin2.inl
;	COMDAT ?BeginModalState@CWnd@@UAEXXZ
_TEXT	SEGMENT
?BeginModalState@CWnd@@UAEXXZ PROC			; CWnd::BeginModalState, COMDAT
; _this$ = ecx

; 565  : 	{ ::EnableWindow(m_hWnd, FALSE); }

  00000	6a 00		 push	 0
  00002	ff 71 20	 push	 DWORD PTR [ecx+32]
  00005	ff 15 00 00 00
	00		 call	 DWORD PTR __imp__EnableWindow@8
  0000b	c3		 ret	 0
?BeginModalState@CWnd@@UAEXXZ ENDP			; CWnd::BeginModalState
_TEXT	ENDS
; Function compile flags: /Ogtp
; File C:\Program Files (x86)\Microsoft Visual Studio\2019\Community\VC\Tools\MSVC\14.29.30133\atlmfc\include\afxwin2.inl
;	COMDAT ?DoDataExchange@CWnd@@MAEXPAVCDataExchange@@@Z
_TEXT	SEGMENT
___formal$ = 8						; size = 4
?DoDataExchange@CWnd@@MAEXPAVCDataExchange@@@Z PROC	; CWnd::DoDataExchange, COMDAT
; _this$ = ecx

; 561  : 	{ } // default does nothing

  00000	c2 04 00	 ret	 4
?DoDataExchange@CWnd@@MAEXPAVCDataExchange@@@Z ENDP	; CWnd::DoDataExchange
_TEXT	ENDS
; Function compile flags: /Ogtp
; File C:\Program Files (x86)\Microsoft Visual Studio\2019\Community\VC\Tools\MSVC\14.29.30133\atlmfc\include\afx.inl
;	COMDAT ?Dump@CObject@@UBEXAAVCDumpContext@@@Z
_TEXT	SEGMENT
___formal$ = 8						; size = 4
?Dump@CObject@@UBEXAAVCDumpContext@@@Z PROC		; CObject::Dump, COMDAT
; _this$ = ecx

; 122  : 	{ /* no dumping in release builds */ }

  00000	c2 04 00	 ret	 4
?Dump@CObject@@UBEXAAVCDumpContext@@@Z ENDP		; CObject::Dump
_TEXT	ENDS
; Function compile flags: /Ogtp
; File C:\Program Files (x86)\Microsoft Visual Studio\2019\Community\VC\Tools\MSVC\14.29.30133\atlmfc\include\afx.inl
;	COMDAT ?AssertValid@CObject@@UBEXXZ
_TEXT	SEGMENT
?AssertValid@CObject@@UBEXXZ PROC			; CObject::AssertValid, COMDAT
; _this$ = ecx

; 120  : 	{ /* no asserts in release builds */ }

  00000	c2 00 00	 ret	 0
?AssertValid@CObject@@UBEXXZ ENDP			; CObject::AssertValid
_TEXT	ENDS
; Function compile flags: /Ogtp
; File C:\Program Files (x86)\Microsoft Visual Studio\2019\Community\VC\Tools\MSVC\14.29.30133\atlmfc\include\afx.inl
;	COMDAT ?Serialize@CObject@@UAEXAAVCArchive@@@Z
_TEXT	SEGMENT
___formal$ = 8						; size = 4
?Serialize@CObject@@UAEXAAVCArchive@@@Z PROC		; CObject::Serialize, COMDAT
; _this$ = ecx

; 106  : 	{ /* CObject does not serialize anything by default */ }

  00000	c2 04 00	 ret	 4
?Serialize@CObject@@UAEXAAVCArchive@@@Z ENDP		; CObject::Serialize
_TEXT	ENDS
; Function compile flags: /Ogtp
; File C:\Program Files (x86)\Microsoft Visual Studio\2019\Community\VC\Tools\MSVC\14.29.30133\atlmfc\include\afx.inl
;	COMDAT ??3CObject@@SGXPAX@Z
_TEXT	SEGMENT
_p$ = 8							; size = 4
??3CObject@@SGXPAX@Z PROC				; CObject::operator delete, COMDAT

; 112  : 	{ ::operator delete(p); }

  00000	55		 push	 ebp
  00001	8b ec		 mov	 ebp, esp
  00003	ff 75 08	 push	 DWORD PTR _p$[ebp]
  00006	e8 00 00 00 00	 call	 ??3@YAXPAX@Z		; operator delete
  0000b	83 c4 04	 add	 esp, 4
  0000e	5d		 pop	 ebp
  0000f	c2 04 00	 ret	 4
??3CObject@@SGXPAX@Z ENDP				; CObject::operator delete
_TEXT	ENDS
; Function compile flags: /Ogtp
; File D:\git\src\IBK\IBK_DRFN\ProjSrc\SrcChartEx\ChartAddIn\ChartDesignPropertyAddIn\ChartDesignPropertyAddIn\RealPacketPage.cpp
;	COMDAT ?__empty_global_delete@@YAXPAXI@Z
_TEXT	SEGMENT
___formal$ = 8						; size = 4
___formal$ = 12						; size = 4
?__empty_global_delete@@YAXPAXI@Z PROC			; __empty_global_delete, COMDAT

  00000	c2 00 00	 ret	 0
?__empty_global_delete@@YAXPAXI@Z ENDP			; __empty_global_delete
_TEXT	ENDS
; Function compile flags: /Ogtp
; File D:\git\src\IBK\IBK_DRFN\ProjSrc\SrcChartEx\ChartAddIn\ChartDesignPropertyAddIn\ChartDesignPropertyAddIn\RealPacketPage.cpp
;	COMDAT ?__empty_global_delete@@YAXPAX@Z
_TEXT	SEGMENT
___formal$ = 8						; size = 4
?__empty_global_delete@@YAXPAX@Z PROC			; __empty_global_delete, COMDAT

  00000	c2 00 00	 ret	 0
?__empty_global_delete@@YAXPAX@Z ENDP			; __empty_global_delete
_TEXT	ENDS
END
