; Listing generated by Microsoft (R) Optimizing Compiler Version 19.29.30145.0 

	TITLE	D:\git\src\IBK\IBK_DRFN\#DRfn-CS\_Obj\ChartDesignPropertyAddIn\SharedDataPage.obj
	.686P
	.XMM
	include listing.inc
	.model	flat

INCLUDELIB MSVCRT
INCLUDELIB OLDNAMES

PUBLIC	?__empty_global_delete@@YAXPAX@Z		; __empty_global_delete
PUBLIC	?__empty_global_delete@@YAXPAXI@Z		; __empty_global_delete
PUBLIC	___local_stdio_printf_options
PUBLIC	_sprintf
PUBLIC	??3CObject@@SGXPAX@Z				; CObject::operator delete
PUBLIC	?Serialize@CObject@@UAEXAAVCArchive@@@Z		; CObject::Serialize
PUBLIC	?AssertValid@CObject@@UBEXXZ			; CObject::AssertValid
PUBLIC	?Dump@CObject@@UBEXAAVCDumpContext@@@Z		; CObject::Dump
PUBLIC	?DoDataExchange@CWnd@@MAEXPAVCDataExchange@@@Z	; CWnd::DoDataExchange
PUBLIC	?BeginModalState@CWnd@@UAEXXZ			; CWnd::BeginModalState
PUBLIC	?EndModalState@CWnd@@UAEXXZ			; CWnd::EndModalState
PUBLIC	?Create@CDialog@@UAEHIPAVCWnd@@@Z		; CDialog::Create
PUBLIC	??_GCListCtrl@@UAEPAXI@Z			; CListCtrl::`scalar deleting destructor'
PUBLIC	?LoadResourceDLL@IMetaTable@@QAEPAUHINSTANCE__@@PAUHWND__@@PAU2@@Z ; IMetaTable::LoadResourceDLL
PUBLIC	??1CMultiLanguageResourceSetter@@QAE@XZ		; CMultiLanguageResourceSetter::~CMultiLanguageResourceSetter
PUBLIC	?_GetBaseClass@CSharedDataPage@@KGPAUCRuntimeClass@@XZ ; CSharedDataPage::_GetBaseClass
PUBLIC	?GetThisClass@CSharedDataPage@@SGPAUCRuntimeClass@@XZ ; CSharedDataPage::GetThisClass
PUBLIC	?GetRuntimeClass@CSharedDataPage@@UBEPAUCRuntimeClass@@XZ ; CSharedDataPage::GetRuntimeClass
PUBLIC	?CreateObject@CSharedDataPage@@SGPAVCObject@@XZ	; CSharedDataPage::CreateObject
PUBLIC	?SetProperty@CSharedDataPage@@QAEXPAUIPropertyMap@@@Z ; CSharedDataPage::SetProperty
PUBLIC	??0CSharedDataPage@@QAE@XZ			; CSharedDataPage::CSharedDataPage
PUBLIC	??1CSharedDataPage@@UAE@XZ			; CSharedDataPage::~CSharedDataPage
PUBLIC	?InitList@CSharedDataPage@@QAEXPAVCListCtrl@@PBD@Z ; CSharedDataPage::InitList
PUBLIC	?MakeShareList@CSharedDataPage@@QAEXPAVCListCtrl@@I@Z ; CSharedDataPage::MakeShareList
PUBLIC	?UpdateItemData@CSharedDataPage@@QAEHPAVCListCtrl@@V?$CStringT@DV?$StrTraitMFC_DLL@DV?$ChTraitsCRT@D@ATL@@@@@ATL@@HHHH@Z ; CSharedDataPage::UpdateItemData
PUBLIC	?AddData@CSharedDataPage@@QAEHPAVCListCtrl@@V?$CStringT@DV?$StrTraitMFC_DLL@DV?$ChTraitsCRT@D@ATL@@@@@ATL@@@Z ; CSharedDataPage::AddData
PUBLIC	?AddData@CSharedDataPage@@QAEHPAVCListCtrl@@V?$CStringT@DV?$StrTraitMFC_DLL@DV?$ChTraitsCRT@D@ATL@@@@@ATL@@HHH@Z ; CSharedDataPage::AddData
PUBLIC	?Refresh@CSharedDataPage@@QAEXPAVCListCtrl@@@Z	; CSharedDataPage::Refresh
PUBLIC	?GetSelectItem@CSharedDataPage@@QAEHPAVCListCtrl@@@Z ; CSharedDataPage::GetSelectItem
PUBLIC	?OnKillActive@CSharedDataPage@@UAEHXZ		; CSharedDataPage::OnKillActive
PUBLIC	?OnApply@CSharedDataPage@@UAEHXZ		; CSharedDataPage::OnApply
PUBLIC	?DoDataExchange@CSharedDataPage@@MAEXPAVCDataExchange@@@Z ; CSharedDataPage::DoDataExchange
PUBLIC	?OnBtnadd@CSharedDataPage@@IAEXXZ		; CSharedDataPage::OnBtnadd
PUBLIC	?OnBtndel@CSharedDataPage@@IAEXXZ		; CSharedDataPage::OnBtndel
PUBLIC	?OnBtnmodify@CSharedDataPage@@IAEXXZ		; CSharedDataPage::OnBtnmodify
PUBLIC	?OnInitDialog@CSharedDataPage@@MAEHXZ		; CSharedDataPage::OnInitDialog
PUBLIC	?OnGBtnAdd@CSharedDataPage@@IAEXXZ		; CSharedDataPage::OnGBtnAdd
PUBLIC	?OnGBtnDel@CSharedDataPage@@IAEXXZ		; CSharedDataPage::OnGBtnDel
PUBLIC	?OnGBtnModify@CSharedDataPage@@IAEXXZ		; CSharedDataPage::OnGBtnModify
PUBLIC	?GetThisMessageMap@CSharedDataPage@@KGPBUAFX_MSGMAP@@XZ ; CSharedDataPage::GetThisMessageMap
PUBLIC	?GetMessageMap@CSharedDataPage@@MBEPBUAFX_MSGMAP@@XZ ; CSharedDataPage::GetMessageMap
PUBLIC	?LFnBtnDel@CSharedDataPage@@IAEXPAVCListCtrl@@I@Z ; CSharedDataPage::LFnBtnDel
PUBLIC	?LFnBtnAdd@CSharedDataPage@@IAEXPAVCListCtrl@@I@Z ; CSharedDataPage::LFnBtnAdd
PUBLIC	?LFnBtnModify@CSharedDataPage@@IAEXPAVCListCtrl@@I@Z ; CSharedDataPage::LFnBtnModify
PUBLIC	??_GCSharedDataPage@@UAEPAXI@Z			; CSharedDataPage::`scalar deleting destructor'
PUBLIC	??1CDlgShareSet@@UAE@XZ				; CDlgShareSet::~CDlgShareSet
PUBLIC	?_OptionsStorage@?1??__local_stdio_printf_options@@9@4_KA ; `__local_stdio_printf_options'::`2'::_OptionsStorage
PUBLIC	??_C@_02DPKJAMEF@?$CFd@				; `string'
PUBLIC	??_C@_00CNPNBAHC@@				; `string'
PUBLIC	??_7CListCtrl@@6B@				; CListCtrl::`vftable'
PUBLIC	??_R0?AVCObject@@@8				; CObject `RTTI Type Descriptor'
PUBLIC	??_R3CObject@@8					; CObject::`RTTI Class Hierarchy Descriptor'
PUBLIC	??_R2CObject@@8					; CObject::`RTTI Base Class Array'
PUBLIC	??_R1A@?0A@EA@CObject@@8			; CObject::`RTTI Base Class Descriptor at (0,-1,0,64)'
PUBLIC	??_R1A@?0A@EA@CWnd@@8				; CWnd::`RTTI Base Class Descriptor at (0,-1,0,64)'
PUBLIC	??_R0?AVCWnd@@@8				; CWnd `RTTI Type Descriptor'
PUBLIC	??_R3CWnd@@8					; CWnd::`RTTI Class Hierarchy Descriptor'
PUBLIC	??_R2CWnd@@8					; CWnd::`RTTI Base Class Array'
PUBLIC	??_R1A@?0A@EA@CCmdTarget@@8			; CCmdTarget::`RTTI Base Class Descriptor at (0,-1,0,64)'
PUBLIC	??_R0?AVCCmdTarget@@@8				; CCmdTarget `RTTI Type Descriptor'
PUBLIC	??_R3CCmdTarget@@8				; CCmdTarget::`RTTI Class Hierarchy Descriptor'
PUBLIC	??_R2CCmdTarget@@8				; CCmdTarget::`RTTI Base Class Array'
PUBLIC	??_R1A@?0A@EA@CDialog@@8			; CDialog::`RTTI Base Class Descriptor at (0,-1,0,64)'
PUBLIC	??_R0?AVCDialog@@@8				; CDialog `RTTI Type Descriptor'
PUBLIC	??_R3CDialog@@8					; CDialog::`RTTI Class Hierarchy Descriptor'
PUBLIC	??_R2CDialog@@8					; CDialog::`RTTI Base Class Array'
PUBLIC	??_R4CListCtrl@@6B@				; CListCtrl::`RTTI Complete Object Locator'
PUBLIC	??_R0?AVCListCtrl@@@8				; CListCtrl `RTTI Type Descriptor'
PUBLIC	??_R3CListCtrl@@8				; CListCtrl::`RTTI Class Hierarchy Descriptor'
PUBLIC	??_R2CListCtrl@@8				; CListCtrl::`RTTI Base Class Array'
PUBLIC	??_R1A@?0A@EA@CListCtrl@@8			; CListCtrl::`RTTI Base Class Descriptor at (0,-1,0,64)'
PUBLIC	??_C@_0BA@ENJOCHIO@LoadResourceDLL@		; `string'
PUBLIC	?classCSharedDataPage@CSharedDataPage@@2UCRuntimeClass@@B ; CSharedDataPage::classCSharedDataPage
PUBLIC	??_7CSharedDataPage@@6B@			; CSharedDataPage::`vftable'
PUBLIC	??_C@_0BA@HMCCKMDF@CSharedDataPage@		; `string'
PUBLIC	??_C@_01IPJKGB@?$CD@				; `string'
PUBLIC	??_C@_09KKLOMHGP@ShareName@			; `string'
PUBLIC	??_C@_05FHMJPCKA@Start@				; `string'
PUBLIC	??_C@_03CEMDFJG@Set@				; `string'
PUBLIC	??_C@_03NNDHPFFO@Get@				; `string'
PUBLIC	??_C@_01ICJEACDI@?$DL@				; `string'
PUBLIC	??_C@_05EDKOIDAO@?$CFs?$CFd?$DL@		; `string'
PUBLIC	??_R4CSharedDataPage@@6B@			; CSharedDataPage::`RTTI Complete Object Locator'
PUBLIC	??_R0?AVCSharedDataPage@@@8			; CSharedDataPage `RTTI Type Descriptor'
PUBLIC	??_R3CSharedDataPage@@8				; CSharedDataPage::`RTTI Class Hierarchy Descriptor'
PUBLIC	??_R2CSharedDataPage@@8				; CSharedDataPage::`RTTI Base Class Array'
PUBLIC	??_R1A@?0A@EA@CSharedDataPage@@8		; CSharedDataPage::`RTTI Base Class Descriptor at (0,-1,0,64)'
PUBLIC	??_R1A@?0A@EA@CPropertyPage@@8			; CPropertyPage::`RTTI Base Class Descriptor at (0,-1,0,64)'
PUBLIC	??_R0?AVCPropertyPage@@@8			; CPropertyPage `RTTI Type Descriptor'
PUBLIC	??_R3CPropertyPage@@8				; CPropertyPage::`RTTI Class Hierarchy Descriptor'
PUBLIC	??_R2CPropertyPage@@8				; CPropertyPage::`RTTI Base Class Array'
EXTRN	??2@YAPAXI@Z:PROC				; operator new
EXTRN	??3@YAXPAX@Z:PROC				; operator delete
EXTRN	?__global_delete@@YAXPAXI@Z:PROC		; __global_delete
EXTRN	___std_terminate:PROC
EXTRN	__imp__GetProcAddress@8:PROC
EXTRN	__imp__SendMessageA@16:PROC
EXTRN	__imp__EnableWindow@8:PROC
EXTRN	__imp__GetWindowRect@8:PROC
EXTRN	__imp____stdio_common_vsprintf:PROC
EXTRN	__imp__atoi:PROC
EXTRN	__imp_??A?$CSimpleStringT@D$00@ATL@@QBEDH@Z:PROC
EXTRN	__imp_??0?$CStringT@DV?$StrTraitMFC_DLL@DV?$ChTraitsCRT@D@ATL@@@@@ATL@@QAE@XZ:PROC
EXTRN	__imp_??0?$CStringT@DV?$StrTraitMFC_DLL@DV?$ChTraitsCRT@D@ATL@@@@@ATL@@QAE@ABV01@@Z:PROC
EXTRN	__imp_??0?$CStringT@DV?$StrTraitMFC_DLL@DV?$ChTraitsCRT@D@ATL@@@@@ATL@@QAE@PBD@Z:PROC
EXTRN	__imp_??1?$CStringT@DV?$StrTraitMFC_DLL@DV?$ChTraitsCRT@D@ATL@@@@@ATL@@QAE@XZ:PROC
EXTRN	__imp_??4?$CStringT@DV?$StrTraitMFC_DLL@DV?$ChTraitsCRT@D@ATL@@@@@ATL@@QAEAAV01@ABV01@@Z:PROC
EXTRN	__imp_??4?$CStringT@DV?$StrTraitMFC_DLL@DV?$ChTraitsCRT@D@ATL@@@@@ATL@@QAEAAV01@PBD@Z:PROC
EXTRN	__imp_??Y?$CStringT@DV?$StrTraitMFC_DLL@DV?$ChTraitsCRT@D@ATL@@@@@ATL@@QAEAAV01@ABV?$CSimpleStringT@D$00@1@@Z:PROC
EXTRN	__imp_??Y?$CStringT@DV?$StrTraitMFC_DLL@DV?$ChTraitsCRT@D@ATL@@@@@ATL@@QAEAAV01@PBD@Z:PROC
EXTRN	__imp_?Compare@?$CStringT@DV?$StrTraitMFC_DLL@DV?$ChTraitsCRT@D@ATL@@@@@ATL@@QBEHPBD@Z:PROC
EXTRN	__imp_?Find@?$CStringT@DV?$StrTraitMFC_DLL@DV?$ChTraitsCRT@D@ATL@@@@@ATL@@QBEHPBDH@Z:PROC
EXTRN	__imp_?TrimRight@?$CStringT@DV?$StrTraitMFC_DLL@DV?$ChTraitsCRT@D@ATL@@@@@ATL@@QAEAAV12@XZ:PROC
EXTRN	__imp_?Mid@?$CStringT@DV?$StrTraitMFC_DLL@DV?$ChTraitsCRT@D@ATL@@@@@ATL@@QBE?AV12@H@Z:PROC
EXTRN	__imp_?Left@?$CStringT@DV?$StrTraitMFC_DLL@DV?$ChTraitsCRT@D@ATL@@@@@ATL@@QBE?AV12@H@Z:PROC
EXTRN	__imp_?Format@?$CStringT@DV?$StrTraitMFC_DLL@DV?$ChTraitsCRT@D@ATL@@@@@ATL@@QAAXPBDZZ:PROC
EXTRN	?AfxGetModuleState@@YGPAVAFX_MODULE_STATE@@XZ:PROC ; AfxGetModuleState
EXTRN	?AfxGetStaticModuleState@@YGPAVAFX_MODULE_STATE@@XZ:PROC ; AfxGetStaticModuleState
EXTRN	?DDX_Text@@YGXPAVCDataExchange@@HAAV?$CStringT@DV?$StrTraitMFC_DLL@DV?$ChTraitsCRT@D@ATL@@@@@ATL@@@Z:PROC ; DDX_Text
EXTRN	?DDX_Control@@YGXPAVCDataExchange@@HAAVCWnd@@@Z:PROC ; DDX_Control
EXTRN	?OnCmdMsg@CCmdTarget@@UAEHIHPAXPAUAFX_CMDHANDLERINFO@@@Z:PROC ; CCmdTarget::OnCmdMsg
EXTRN	?IsInvokeAllowed@CCmdTarget@@UAEHJ@Z:PROC	; CCmdTarget::IsInvokeAllowed
EXTRN	?GetDispatchIID@CCmdTarget@@UAEHPAU_GUID@@@Z:PROC ; CCmdTarget::GetDispatchIID
EXTRN	?GetTypeInfoCount@CCmdTarget@@UAEIXZ:PROC	; CCmdTarget::GetTypeInfoCount
EXTRN	?GetTypeLibCache@CCmdTarget@@UAEPAVCTypeLibCache@@XZ:PROC ; CCmdTarget::GetTypeLibCache
EXTRN	?GetTypeLib@CCmdTarget@@UAEJKPAPAUITypeLib@@@Z:PROC ; CCmdTarget::GetTypeLib
EXTRN	?GetCommandMap@CCmdTarget@@MBEPBUAFX_OLECMDMAP@@XZ:PROC ; CCmdTarget::GetCommandMap
EXTRN	?GetDispatchMap@CCmdTarget@@MBEPBUAFX_DISPMAP@@XZ:PROC ; CCmdTarget::GetDispatchMap
EXTRN	?GetConnectionMap@CCmdTarget@@MBEPBUAFX_CONNECTIONMAP@@XZ:PROC ; CCmdTarget::GetConnectionMap
EXTRN	?GetEventSinkMap@CCmdTarget@@MBEPBUAFX_EVENTSINKMAP@@XZ:PROC ; CCmdTarget::GetEventSinkMap
EXTRN	?OnCreateAggregates@CCmdTarget@@UAEHXZ:PROC	; CCmdTarget::OnCreateAggregates
EXTRN	?GetInterfaceHook@CCmdTarget@@UAEPAUIUnknown@@PBX@Z:PROC ; CCmdTarget::GetInterfaceHook
EXTRN	?GetExtraConnectionPoints@CCmdTarget@@MAEHPAVCPtrArray@@@Z:PROC ; CCmdTarget::GetExtraConnectionPoints
EXTRN	?GetConnectionHook@CCmdTarget@@MAEPAUIConnectionPoint@@ABU_GUID@@@Z:PROC ; CCmdTarget::GetConnectionHook
EXTRN	??0CWnd@@QAE@XZ:PROC				; CWnd::CWnd
EXTRN	?PreSubclassWindow@CWnd@@UAEXXZ:PROC		; CWnd::PreSubclassWindow
EXTRN	?Create@CWnd@@UAEHPBD0KABUtagRECT@@PAV1@IPAUCCreateContext@@@Z:PROC ; CWnd::Create
EXTRN	?CreateEx@CWnd@@UAEHKPBD0KHHHHPAUHWND__@@PAUHMENU__@@PAX@Z:PROC ; CWnd::CreateEx
EXTRN	?CreateEx@CWnd@@UAEHKPBD0KABUtagRECT@@PAV1@IPAX@Z:PROC ; CWnd::CreateEx
EXTRN	?DestroyWindow@CWnd@@UAEHXZ:PROC		; CWnd::DestroyWindow
EXTRN	?PreCreateWindow@CWnd@@UAEHAAUtagCREATESTRUCTA@@@Z:PROC ; CWnd::PreCreateWindow
EXTRN	?CalcWindowRect@CWnd@@UAEXPAUtagRECT@@I@Z:PROC	; CWnd::CalcWindowRect
EXTRN	?GetDlgItem@CWnd@@QBEPAV1@H@Z:PROC		; CWnd::GetDlgItem
EXTRN	?SetWindowTextA@CWnd@@QAEXPBD@Z:PROC		; CWnd::SetWindowTextA
EXTRN	?GetWindowTextA@CWnd@@QBEXAAV?$CStringT@DV?$StrTraitMFC_DLL@DV?$ChTraitsCRT@D@ATL@@@@@ATL@@@Z:PROC ; CWnd::GetWindowTextA
EXTRN	?GetMenu@CWnd@@UBEPAVCMenu@@XZ:PROC		; CWnd::GetMenu
EXTRN	?SetMenu@CWnd@@UAEHPAVCMenu@@@Z:PROC		; CWnd::SetMenu
EXTRN	?OnToolHitTest@CWnd@@UBEHVCPoint@@PAUtagTOOLINFOA@@@Z:PROC ; CWnd::OnToolHitTest
EXTRN	?GetScrollBarCtrl@CWnd@@UBEPAVCScrollBar@@H@Z:PROC ; CWnd::GetScrollBarCtrl
EXTRN	?WinHelpA@CWnd@@UAEXKI@Z:PROC			; CWnd::WinHelpA
EXTRN	?HtmlHelpA@CWnd@@UAEXKI@Z:PROC			; CWnd::HtmlHelpA
EXTRN	?WinHelpInternal@CWnd@@UAEXKI@Z:PROC		; CWnd::WinHelpInternal
EXTRN	?ContinueModal@CWnd@@UAEHXZ:PROC		; CWnd::ContinueModal
EXTRN	?EndModalLoop@CWnd@@UAEXH@Z:PROC		; CWnd::EndModalLoop
EXTRN	?OnDrawIconicThumbnailOrLivePreview@CWnd@@UAEXAAVCDC@@VCRect@@VCSize@@HAAH@Z:PROC ; CWnd::OnDrawIconicThumbnailOrLivePreview
EXTRN	?GetInterfaceMap@CWnd@@MBEPBUAFX_INTERFACEMAP@@XZ:PROC ; CWnd::GetInterfaceMap
EXTRN	?EnsureStdObj@CWnd@@UAEJXZ:PROC			; CWnd::EnsureStdObj
EXTRN	?get_accParent@CWnd@@UAEJPAPAUIDispatch@@@Z:PROC ; CWnd::get_accParent
EXTRN	?get_accChildCount@CWnd@@UAEJPAJ@Z:PROC		; CWnd::get_accChildCount
EXTRN	?get_accChild@CWnd@@UAEJUtagVARIANT@@PAPAUIDispatch@@@Z:PROC ; CWnd::get_accChild
EXTRN	?get_accName@CWnd@@UAEJUtagVARIANT@@PAPA_W@Z:PROC ; CWnd::get_accName
EXTRN	?get_accValue@CWnd@@UAEJUtagVARIANT@@PAPA_W@Z:PROC ; CWnd::get_accValue
EXTRN	?get_accDescription@CWnd@@UAEJUtagVARIANT@@PAPA_W@Z:PROC ; CWnd::get_accDescription
EXTRN	?get_accRole@CWnd@@UAEJUtagVARIANT@@PAU2@@Z:PROC ; CWnd::get_accRole
EXTRN	?get_accState@CWnd@@UAEJUtagVARIANT@@PAU2@@Z:PROC ; CWnd::get_accState
EXTRN	?get_accHelp@CWnd@@UAEJUtagVARIANT@@PAPA_W@Z:PROC ; CWnd::get_accHelp
EXTRN	?get_accHelpTopic@CWnd@@UAEJPAPA_WUtagVARIANT@@PAJ@Z:PROC ; CWnd::get_accHelpTopic
EXTRN	?get_accKeyboardShortcut@CWnd@@UAEJUtagVARIANT@@PAPA_W@Z:PROC ; CWnd::get_accKeyboardShortcut
EXTRN	?get_accFocus@CWnd@@UAEJPAUtagVARIANT@@@Z:PROC	; CWnd::get_accFocus
EXTRN	?get_accSelection@CWnd@@UAEJPAUtagVARIANT@@@Z:PROC ; CWnd::get_accSelection
EXTRN	?get_accDefaultAction@CWnd@@UAEJUtagVARIANT@@PAPA_W@Z:PROC ; CWnd::get_accDefaultAction
EXTRN	?accSelect@CWnd@@UAEJJUtagVARIANT@@@Z:PROC	; CWnd::accSelect
EXTRN	?accLocation@CWnd@@UAEJPAJ000UtagVARIANT@@@Z:PROC ; CWnd::accLocation
EXTRN	?accNavigate@CWnd@@UAEJJUtagVARIANT@@PAU2@@Z:PROC ; CWnd::accNavigate
EXTRN	?accHitTest@CWnd@@UAEJJJPAUtagVARIANT@@@Z:PROC	; CWnd::accHitTest
EXTRN	?accDoDefaultAction@CWnd@@UAEJUtagVARIANT@@@Z:PROC ; CWnd::accDoDefaultAction
EXTRN	?put_accName@CWnd@@UAEJUtagVARIANT@@PA_W@Z:PROC	; CWnd::put_accName
EXTRN	?put_accValue@CWnd@@UAEJUtagVARIANT@@PA_W@Z:PROC ; CWnd::put_accValue
EXTRN	?SetProxy@CWnd@@UAEJPAUIAccessibleProxy@@@Z:PROC ; CWnd::SetProxy
EXTRN	?CreateAccessibleProxy@CWnd@@UAEJIJPAJ@Z:PROC	; CWnd::CreateAccessibleProxy
EXTRN	?OnCommand@CWnd@@MAEHIJ@Z:PROC			; CWnd::OnCommand
EXTRN	?OnNotify@CWnd@@MAEHIJPAJ@Z:PROC		; CWnd::OnNotify
EXTRN	?GetSuperWndProcAddr@CWnd@@MAEPAP6GJPAUHWND__@@IIJ@ZXZ:PROC ; CWnd::GetSuperWndProcAddr
EXTRN	?PreTranslateMessage@CWnd@@UAEHPAUtagMSG@@@Z:PROC ; CWnd::PreTranslateMessage
EXTRN	?OnAmbientProperty@CWnd@@UAEHPAVCOleControlSite@@JPAUtagVARIANT@@@Z:PROC ; CWnd::OnAmbientProperty
EXTRN	?WindowProc@CWnd@@MAEJIIJ@Z:PROC		; CWnd::WindowProc
EXTRN	?OnWndMsg@CWnd@@MAEHIIJPAJ@Z:PROC		; CWnd::OnWndMsg
EXTRN	?DefWindowProcA@CWnd@@MAEJIIJ@Z:PROC		; CWnd::DefWindowProcA
EXTRN	?PostNcDestroy@CWnd@@MAEXXZ:PROC		; CWnd::PostNcDestroy
EXTRN	?OnChildNotify@CWnd@@MAEHIIJPAJ@Z:PROC		; CWnd::OnChildNotify
EXTRN	?OnTouchInputs@CWnd@@MAEHIPAUtagTOUCHINPUT@@@Z:PROC ; CWnd::OnTouchInputs
EXTRN	?OnTouchInput@CWnd@@MAEHVCPoint@@HHPAUtagTOUCHINPUT@@@Z:PROC ; CWnd::OnTouchInput
EXTRN	?GetGestureStatus@CWnd@@MAEKVCPoint@@@Z:PROC	; CWnd::GetGestureStatus
EXTRN	?OnGestureZoom@CWnd@@MAEHVCPoint@@J@Z:PROC	; CWnd::OnGestureZoom
EXTRN	?OnGesturePan@CWnd@@MAEHVCPoint@@0@Z:PROC	; CWnd::OnGesturePan
EXTRN	?OnGestureRotate@CWnd@@MAEHVCPoint@@N@Z:PROC	; CWnd::OnGestureRotate
EXTRN	?OnGestureTwoFingerTap@CWnd@@MAEHVCPoint@@@Z:PROC ; CWnd::OnGestureTwoFingerTap
EXTRN	?OnGesturePressAndTap@CWnd@@MAEHVCPoint@@J@Z:PROC ; CWnd::OnGesturePressAndTap
EXTRN	?ResizeDynamicLayout@CWnd@@MAEXXZ:PROC		; CWnd::ResizeDynamicLayout
EXTRN	?CheckAutoCenter@CWnd@@UAEHXZ:PROC		; CWnd::CheckAutoCenter
EXTRN	?IsFrameWnd@CWnd@@UBEHXZ:PROC			; CWnd::IsFrameWnd
EXTRN	?OnFinalRelease@CWnd@@UAEXXZ:PROC		; CWnd::OnFinalRelease
EXTRN	?CreateControlContainer@CWnd@@MAEHPAPAVCOleControlContainer@@@Z:PROC ; CWnd::CreateControlContainer
EXTRN	?CreateControlSite@CWnd@@MAEHPAVCOleControlContainer@@PAPAVCOleControlSite@@IABU_GUID@@@Z:PROC ; CWnd::CreateControlSite
EXTRN	?SetOccDialogInfo@CWnd@@MAEHPAU_AFX_OCC_DIALOG_INFO@@@Z:PROC ; CWnd::SetOccDialogInfo
EXTRN	?GetOccDialogInfo@CWnd@@MAEPAU_AFX_OCC_DIALOG_INFO@@XZ:PROC ; CWnd::GetOccDialogInfo
EXTRN	?Create@CDialog@@UAEHPBDPAVCWnd@@@Z:PROC	; CDialog::Create
EXTRN	?CreateIndirect@CDialog@@UAEHPBUDLGTEMPLATE@@PAVCWnd@@PAX@Z:PROC ; CDialog::CreateIndirect
EXTRN	?CreateIndirect@CDialog@@UAEHPAXPAVCWnd@@@Z:PROC ; CDialog::CreateIndirect
EXTRN	?DoModal@CDialog@@UAEHXZ:PROC			; CDialog::DoModal
EXTRN	?OnInitDialog@CDialog@@UAEHXZ:PROC		; CDialog::OnInitDialog
EXTRN	?OnSetFont@CDialog@@UAEXPAVCFont@@@Z:PROC	; CDialog::OnSetFont
EXTRN	??1CDialog@@UAE@XZ:PROC				; CDialog::~CDialog
EXTRN	?OnCmdMsg@CDialog@@UAEHIHPAXPAUAFX_CMDHANDLERINFO@@@Z:PROC ; CDialog::OnCmdMsg
EXTRN	?CheckAutoCenter@CDialog@@UAEHXZ:PROC		; CDialog::CheckAutoCenter
EXTRN	?SetOccDialogInfo@CDialog@@MAEHPAU_AFX_OCC_DIALOG_INFO@@@Z:PROC ; CDialog::SetOccDialogInfo
EXTRN	?GetOccDialogInfo@CDialog@@MAEPAU_AFX_OCC_DIALOG_INFO@@XZ:PROC ; CDialog::GetOccDialogInfo
EXTRN	?PreInitDialog@CDialog@@MAEXXZ:PROC		; CDialog::PreInitDialog
EXTRN	??1CEdit@@UAE@XZ:PROC				; CEdit::~CEdit
EXTRN	?GetThisClass@CPropertyPage@@SGPAUCRuntimeClass@@XZ:PROC ; CPropertyPage::GetThisClass
EXTRN	??0CPropertyPage@@QAE@IIK@Z:PROC		; CPropertyPage::CPropertyPage
EXTRN	?OnApply@CPropertyPage@@UAEHXZ:PROC		; CPropertyPage::OnApply
EXTRN	?OnReset@CPropertyPage@@UAEXXZ:PROC		; CPropertyPage::OnReset
EXTRN	?OnOK@CPropertyPage@@UAEXXZ:PROC		; CPropertyPage::OnOK
EXTRN	?OnCancel@CPropertyPage@@UAEXXZ:PROC		; CPropertyPage::OnCancel
EXTRN	?OnSetActive@CPropertyPage@@UAEHXZ:PROC		; CPropertyPage::OnSetActive
EXTRN	?OnKillActive@CPropertyPage@@UAEHXZ:PROC	; CPropertyPage::OnKillActive
EXTRN	?OnQueryCancel@CPropertyPage@@UAEHXZ:PROC	; CPropertyPage::OnQueryCancel
EXTRN	?OnWizardBack@CPropertyPage@@UAEJXZ:PROC	; CPropertyPage::OnWizardBack
EXTRN	?OnWizardNext@CPropertyPage@@UAEJXZ:PROC	; CPropertyPage::OnWizardNext
EXTRN	?OnWizardFinish@CPropertyPage@@UAEHXZ:PROC	; CPropertyPage::OnWizardFinish
EXTRN	?OnWizardFinishEx@CPropertyPage@@UAEPAUHWND__@@XZ:PROC ; CPropertyPage::OnWizardFinishEx
EXTRN	?GetParentSheet@CPropertyPage@@UAEPAVCPropertySheet@@XZ:PROC ; CPropertyPage::GetParentSheet
EXTRN	??1CPropertyPage@@UAE@XZ:PROC			; CPropertyPage::~CPropertyPage
EXTRN	?OnNotify@CPropertyPage@@MAEHIJPAJ@Z:PROC	; CPropertyPage::OnNotify
EXTRN	?PreTranslateMessage@CPropertyPage@@MAEHPAUtagMSG@@@Z:PROC ; CPropertyPage::PreTranslateMessage
EXTRN	?GetThisMessageMap@CPropertyPage@@KGPBUAFX_MSGMAP@@XZ:PROC ; CPropertyPage::GetThisMessageMap
EXTRN	?GetRuntimeClass@CListCtrl@@UBEPAUCRuntimeClass@@XZ:PROC ; CListCtrl::GetRuntimeClass
EXTRN	?GetItemText@CListCtrl@@QBE?AV?$CStringT@DV?$StrTraitMFC_DLL@DV?$ChTraitsCRT@D@ATL@@@@@ATL@@HH@Z:PROC ; CListCtrl::GetItemText
EXTRN	?SetItemText@CListCtrl@@QAEHHHPBD@Z:PROC	; CListCtrl::SetItemText
EXTRN	?InsertColumn@CListCtrl@@QAEHHPBDHHH@Z:PROC	; CListCtrl::InsertColumn
EXTRN	?DrawItem@CListCtrl@@UAEXPAUtagDRAWITEMSTRUCT@@@Z:PROC ; CListCtrl::DrawItem
EXTRN	?InsertItem@CListCtrl@@QAEHIHPBDIIHJ@Z:PROC	; CListCtrl::InsertItem
EXTRN	??1CListCtrl@@UAE@XZ:PROC			; CListCtrl::~CListCtrl
EXTRN	?OnChildNotify@CListCtrl@@MAEHIIJPAJ@Z:PROC	; CListCtrl::OnChildNotify
EXTRN	?GetMessageMap@CListCtrl@@MBEPBUAFX_MSGMAP@@XZ:PROC ; CListCtrl::GetMessageMap
EXTRN	??_ECListCtrl@@UAEPAXI@Z:PROC			; CListCtrl::`vector deleting destructor'
EXTRN	??_ECSharedDataPage@@UAEPAXI@Z:PROC		; CSharedDataPage::`vector deleting destructor'
EXTRN	??0CDlgShareSet@@QAE@PAVCWnd@@@Z:PROC		; CDlgShareSet::CDlgShareSet
EXTRN	@__security_check_cookie@4:PROC
EXTRN	___CxxFrameHandler3:PROC
EXTRN	??_7type_info@@6B@:QWORD			; type_info::`vftable'
EXTRN	?g_iMetaTable@@3VIMetaTable@@A:BYTE		; g_iMetaTable
EXTRN	?g_anPropertyShortKey@@3PAPADA:BYTE		; g_anPropertyShortKey
EXTRN	___security_cookie:DWORD
;	COMDAT ?_OptionsStorage@?1??__local_stdio_printf_options@@9@4_KA
_BSS	SEGMENT
?_OptionsStorage@?1??__local_stdio_printf_options@@9@4_KA DQ 01H DUP (?) ; `__local_stdio_printf_options'::`2'::_OptionsStorage
_BSS	ENDS
;	COMDAT ??_R2CPropertyPage@@8
rdata$r	SEGMENT
??_R2CPropertyPage@@8 DD FLAT:??_R1A@?0A@EA@CPropertyPage@@8 ; CPropertyPage::`RTTI Base Class Array'
	DD	FLAT:??_R1A@?0A@EA@CDialog@@8
	DD	FLAT:??_R1A@?0A@EA@CWnd@@8
	DD	FLAT:??_R1A@?0A@EA@CCmdTarget@@8
	DD	FLAT:??_R1A@?0A@EA@CObject@@8
rdata$r	ENDS
;	COMDAT ??_R3CPropertyPage@@8
rdata$r	SEGMENT
??_R3CPropertyPage@@8 DD 00H				; CPropertyPage::`RTTI Class Hierarchy Descriptor'
	DD	00H
	DD	05H
	DD	FLAT:??_R2CPropertyPage@@8
rdata$r	ENDS
;	COMDAT ??_R0?AVCPropertyPage@@@8
data$rs	SEGMENT
??_R0?AVCPropertyPage@@@8 DD FLAT:??_7type_info@@6B@	; CPropertyPage `RTTI Type Descriptor'
	DD	00H
	DB	'.?AVCPropertyPage@@', 00H
data$rs	ENDS
;	COMDAT ??_R1A@?0A@EA@CPropertyPage@@8
rdata$r	SEGMENT
??_R1A@?0A@EA@CPropertyPage@@8 DD FLAT:??_R0?AVCPropertyPage@@@8 ; CPropertyPage::`RTTI Base Class Descriptor at (0,-1,0,64)'
	DD	04H
	DD	00H
	DD	0ffffffffH
	DD	00H
	DD	040H
	DD	FLAT:??_R3CPropertyPage@@8
rdata$r	ENDS
;	COMDAT ??_R1A@?0A@EA@CSharedDataPage@@8
rdata$r	SEGMENT
??_R1A@?0A@EA@CSharedDataPage@@8 DD FLAT:??_R0?AVCSharedDataPage@@@8 ; CSharedDataPage::`RTTI Base Class Descriptor at (0,-1,0,64)'
	DD	05H
	DD	00H
	DD	0ffffffffH
	DD	00H
	DD	040H
	DD	FLAT:??_R3CSharedDataPage@@8
rdata$r	ENDS
;	COMDAT ??_R2CSharedDataPage@@8
rdata$r	SEGMENT
??_R2CSharedDataPage@@8 DD FLAT:??_R1A@?0A@EA@CSharedDataPage@@8 ; CSharedDataPage::`RTTI Base Class Array'
	DD	FLAT:??_R1A@?0A@EA@CPropertyPage@@8
	DD	FLAT:??_R1A@?0A@EA@CDialog@@8
	DD	FLAT:??_R1A@?0A@EA@CWnd@@8
	DD	FLAT:??_R1A@?0A@EA@CCmdTarget@@8
	DD	FLAT:??_R1A@?0A@EA@CObject@@8
rdata$r	ENDS
;	COMDAT ??_R3CSharedDataPage@@8
rdata$r	SEGMENT
??_R3CSharedDataPage@@8 DD 00H				; CSharedDataPage::`RTTI Class Hierarchy Descriptor'
	DD	00H
	DD	06H
	DD	FLAT:??_R2CSharedDataPage@@8
rdata$r	ENDS
;	COMDAT ??_R0?AVCSharedDataPage@@@8
data$rs	SEGMENT
??_R0?AVCSharedDataPage@@@8 DD FLAT:??_7type_info@@6B@	; CSharedDataPage `RTTI Type Descriptor'
	DD	00H
	DB	'.?AVCSharedDataPage@@', 00H
data$rs	ENDS
;	COMDAT ??_R4CSharedDataPage@@6B@
rdata$r	SEGMENT
??_R4CSharedDataPage@@6B@ DD 00H			; CSharedDataPage::`RTTI Complete Object Locator'
	DD	00H
	DD	00H
	DD	FLAT:??_R0?AVCSharedDataPage@@@8
	DD	FLAT:??_R3CSharedDataPage@@8
rdata$r	ENDS
;	COMDAT ??_C@_05EDKOIDAO@?$CFs?$CFd?$DL@
CONST	SEGMENT
??_C@_05EDKOIDAO@?$CFs?$CFd?$DL@ DB '%s%d;', 00H	; `string'
CONST	ENDS
;	COMDAT ??_C@_01ICJEACDI@?$DL@
CONST	SEGMENT
??_C@_01ICJEACDI@?$DL@ DB ';', 00H			; `string'
CONST	ENDS
;	COMDAT ??_C@_03NNDHPFFO@Get@
CONST	SEGMENT
??_C@_03NNDHPFFO@Get@ DB 'Get', 00H			; `string'
CONST	ENDS
;	COMDAT ??_C@_03CEMDFJG@Set@
CONST	SEGMENT
??_C@_03CEMDFJG@Set@ DB 'Set', 00H			; `string'
CONST	ENDS
;	COMDAT ??_C@_05FHMJPCKA@Start@
CONST	SEGMENT
??_C@_05FHMJPCKA@Start@ DB 'Start', 00H			; `string'
CONST	ENDS
;	COMDAT ??_C@_09KKLOMHGP@ShareName@
CONST	SEGMENT
??_C@_09KKLOMHGP@ShareName@ DB 'ShareName', 00H		; `string'
CONST	ENDS
;	COMDAT ??_C@_01IPJKGB@?$CD@
CONST	SEGMENT
??_C@_01IPJKGB@?$CD@ DB '#', 00H			; `string'
CONST	ENDS
;	COMDAT ?messageMap@?1??GetThisMessageMap@CSharedDataPage@@KGPBUAFX_MSGMAP@@XZ@4U3@B
CONST	SEGMENT
?messageMap@?1??GetThisMessageMap@CSharedDataPage@@KGPBUAFX_MSGMAP@@XZ@4U3@B DD FLAT:?GetThisMessageMap@CPropertyPage@@KGPBUAFX_MSGMAP@@XZ ; `CSharedDataPage::GetThisMessageMap'::`2'::messageMap
	DD	FLAT:?_messageEntries@?1??GetThisMessageMap@CSharedDataPage@@KGPBUAFX_MSGMAP@@XZ@4QBUAFX_MSGMAP_ENTRY@@B
CONST	ENDS
;	COMDAT ?_messageEntries@?1??GetThisMessageMap@CSharedDataPage@@KGPBUAFX_MSGMAP@@XZ@4QBUAFX_MSGMAP_ENTRY@@B
CONST	SEGMENT
?_messageEntries@?1??GetThisMessageMap@CSharedDataPage@@KGPBUAFX_MSGMAP@@XZ@4QBUAFX_MSGMAP_ENTRY@@B DD 0111H ; `CSharedDataPage::GetThisMessageMap'::`2'::_messageEntries
	DD	00H
	DD	0103H
	DD	0103H
	DD	03aH
	DD	FLAT:?OnBtnadd@CSharedDataPage@@IAEXXZ
	DD	0111H
	DD	00H
	DD	0104H
	DD	0104H
	DD	03aH
	DD	FLAT:?OnBtndel@CSharedDataPage@@IAEXXZ
	DD	0111H
	DD	00H
	DD	0105H
	DD	0105H
	DD	03aH
	DD	FLAT:?OnBtnmodify@CSharedDataPage@@IAEXXZ
	DD	0111H
	DD	00H
	DD	0109H
	DD	0109H
	DD	03aH
	DD	FLAT:?OnGBtnAdd@CSharedDataPage@@IAEXXZ
	DD	0111H
	DD	00H
	DD	010bH
	DD	010bH
	DD	03aH
	DD	FLAT:?OnGBtnDel@CSharedDataPage@@IAEXXZ
	DD	0111H
	DD	00H
	DD	010dH
	DD	010dH
	DD	03aH
	DD	FLAT:?OnGBtnModify@CSharedDataPage@@IAEXXZ
	DD	00H
	DD	00H
	DD	00H
	DD	00H
	DD	00H
	DD	00H
CONST	ENDS
;	COMDAT ??_C@_0BA@HMCCKMDF@CSharedDataPage@
CONST	SEGMENT
??_C@_0BA@HMCCKMDF@CSharedDataPage@ DB 'CSharedDataPage', 00H ; `string'
CONST	ENDS
;	COMDAT ??_7CSharedDataPage@@6B@
CONST	SEGMENT
??_7CSharedDataPage@@6B@ DD FLAT:??_R4CSharedDataPage@@6B@ ; CSharedDataPage::`vftable'
	DD	FLAT:?GetRuntimeClass@CSharedDataPage@@UBEPAUCRuntimeClass@@XZ
	DD	FLAT:??_ECSharedDataPage@@UAEPAXI@Z
	DD	FLAT:?Serialize@CObject@@UAEXAAVCArchive@@@Z
	DD	FLAT:?AssertValid@CObject@@UBEXXZ
	DD	FLAT:?Dump@CObject@@UBEXAAVCDumpContext@@@Z
	DD	FLAT:?OnCmdMsg@CDialog@@UAEHIHPAXPAUAFX_CMDHANDLERINFO@@@Z
	DD	FLAT:?OnFinalRelease@CWnd@@UAEXXZ
	DD	FLAT:?IsInvokeAllowed@CCmdTarget@@UAEHJ@Z
	DD	FLAT:?GetDispatchIID@CCmdTarget@@UAEHPAU_GUID@@@Z
	DD	FLAT:?GetTypeInfoCount@CCmdTarget@@UAEIXZ
	DD	FLAT:?GetTypeLibCache@CCmdTarget@@UAEPAVCTypeLibCache@@XZ
	DD	FLAT:?GetTypeLib@CCmdTarget@@UAEJKPAPAUITypeLib@@@Z
	DD	FLAT:?GetMessageMap@CSharedDataPage@@MBEPBUAFX_MSGMAP@@XZ
	DD	FLAT:?GetCommandMap@CCmdTarget@@MBEPBUAFX_OLECMDMAP@@XZ
	DD	FLAT:?GetDispatchMap@CCmdTarget@@MBEPBUAFX_DISPMAP@@XZ
	DD	FLAT:?GetConnectionMap@CCmdTarget@@MBEPBUAFX_CONNECTIONMAP@@XZ
	DD	FLAT:?GetInterfaceMap@CWnd@@MBEPBUAFX_INTERFACEMAP@@XZ
	DD	FLAT:?GetEventSinkMap@CCmdTarget@@MBEPBUAFX_EVENTSINKMAP@@XZ
	DD	FLAT:?OnCreateAggregates@CCmdTarget@@UAEHXZ
	DD	FLAT:?GetInterfaceHook@CCmdTarget@@UAEPAUIUnknown@@PBX@Z
	DD	FLAT:?GetExtraConnectionPoints@CCmdTarget@@MAEHPAVCPtrArray@@@Z
	DD	FLAT:?GetConnectionHook@CCmdTarget@@MAEPAUIConnectionPoint@@ABU_GUID@@@Z
	DD	FLAT:?PreSubclassWindow@CWnd@@UAEXXZ
	DD	FLAT:?Create@CWnd@@UAEHPBD0KABUtagRECT@@PAV1@IPAUCCreateContext@@@Z
	DD	FLAT:?CreateEx@CWnd@@UAEHKPBD0KABUtagRECT@@PAV1@IPAX@Z
	DD	FLAT:?CreateEx@CWnd@@UAEHKPBD0KHHHHPAUHWND__@@PAUHMENU__@@PAX@Z
	DD	FLAT:?DestroyWindow@CWnd@@UAEHXZ
	DD	FLAT:?PreCreateWindow@CWnd@@UAEHAAUtagCREATESTRUCTA@@@Z
	DD	FLAT:?CalcWindowRect@CWnd@@UAEXPAUtagRECT@@I@Z
	DD	FLAT:?GetMenu@CWnd@@UBEPAVCMenu@@XZ
	DD	FLAT:?SetMenu@CWnd@@UAEHPAVCMenu@@@Z
	DD	FLAT:?OnToolHitTest@CWnd@@UBEHVCPoint@@PAUtagTOOLINFOA@@@Z
	DD	FLAT:?GetScrollBarCtrl@CWnd@@UBEPAVCScrollBar@@H@Z
	DD	FLAT:?WinHelpA@CWnd@@UAEXKI@Z
	DD	FLAT:?HtmlHelpA@CWnd@@UAEXKI@Z
	DD	FLAT:?WinHelpInternal@CWnd@@UAEXKI@Z
	DD	FLAT:?ContinueModal@CWnd@@UAEHXZ
	DD	FLAT:?EndModalLoop@CWnd@@UAEXH@Z
	DD	FLAT:?OnDrawIconicThumbnailOrLivePreview@CWnd@@UAEXAAVCDC@@VCRect@@VCSize@@HAAH@Z
	DD	FLAT:?EnsureStdObj@CWnd@@UAEJXZ
	DD	FLAT:?get_accParent@CWnd@@UAEJPAPAUIDispatch@@@Z
	DD	FLAT:?get_accChildCount@CWnd@@UAEJPAJ@Z
	DD	FLAT:?get_accChild@CWnd@@UAEJUtagVARIANT@@PAPAUIDispatch@@@Z
	DD	FLAT:?get_accName@CWnd@@UAEJUtagVARIANT@@PAPA_W@Z
	DD	FLAT:?get_accValue@CWnd@@UAEJUtagVARIANT@@PAPA_W@Z
	DD	FLAT:?get_accDescription@CWnd@@UAEJUtagVARIANT@@PAPA_W@Z
	DD	FLAT:?get_accRole@CWnd@@UAEJUtagVARIANT@@PAU2@@Z
	DD	FLAT:?get_accState@CWnd@@UAEJUtagVARIANT@@PAU2@@Z
	DD	FLAT:?get_accHelp@CWnd@@UAEJUtagVARIANT@@PAPA_W@Z
	DD	FLAT:?get_accHelpTopic@CWnd@@UAEJPAPA_WUtagVARIANT@@PAJ@Z
	DD	FLAT:?get_accKeyboardShortcut@CWnd@@UAEJUtagVARIANT@@PAPA_W@Z
	DD	FLAT:?get_accFocus@CWnd@@UAEJPAUtagVARIANT@@@Z
	DD	FLAT:?get_accSelection@CWnd@@UAEJPAUtagVARIANT@@@Z
	DD	FLAT:?get_accDefaultAction@CWnd@@UAEJUtagVARIANT@@PAPA_W@Z
	DD	FLAT:?accSelect@CWnd@@UAEJJUtagVARIANT@@@Z
	DD	FLAT:?accLocation@CWnd@@UAEJPAJ000UtagVARIANT@@@Z
	DD	FLAT:?accNavigate@CWnd@@UAEJJUtagVARIANT@@PAU2@@Z
	DD	FLAT:?accHitTest@CWnd@@UAEJJJPAUtagVARIANT@@@Z
	DD	FLAT:?accDoDefaultAction@CWnd@@UAEJUtagVARIANT@@@Z
	DD	FLAT:?put_accName@CWnd@@UAEJUtagVARIANT@@PA_W@Z
	DD	FLAT:?put_accValue@CWnd@@UAEJUtagVARIANT@@PA_W@Z
	DD	FLAT:?SetProxy@CWnd@@UAEJPAUIAccessibleProxy@@@Z
	DD	FLAT:?CreateAccessibleProxy@CWnd@@UAEJIJPAJ@Z
	DD	FLAT:?OnCommand@CWnd@@MAEHIJ@Z
	DD	FLAT:?OnNotify@CPropertyPage@@MAEHIJPAJ@Z
	DD	FLAT:?GetSuperWndProcAddr@CWnd@@MAEPAP6GJPAUHWND__@@IIJ@ZXZ
	DD	FLAT:?DoDataExchange@CSharedDataPage@@MAEXPAVCDataExchange@@@Z
	DD	FLAT:?BeginModalState@CWnd@@UAEXXZ
	DD	FLAT:?EndModalState@CWnd@@UAEXXZ
	DD	FLAT:?PreTranslateMessage@CPropertyPage@@MAEHPAUtagMSG@@@Z
	DD	FLAT:?OnAmbientProperty@CWnd@@UAEHPAVCOleControlSite@@JPAUtagVARIANT@@@Z
	DD	FLAT:?WindowProc@CWnd@@MAEJIIJ@Z
	DD	FLAT:?OnWndMsg@CWnd@@MAEHIIJPAJ@Z
	DD	FLAT:?DefWindowProcA@CWnd@@MAEJIIJ@Z
	DD	FLAT:?PostNcDestroy@CWnd@@MAEXXZ
	DD	FLAT:?OnChildNotify@CWnd@@MAEHIIJPAJ@Z
	DD	FLAT:?OnTouchInputs@CWnd@@MAEHIPAUtagTOUCHINPUT@@@Z
	DD	FLAT:?OnTouchInput@CWnd@@MAEHVCPoint@@HHPAUtagTOUCHINPUT@@@Z
	DD	FLAT:?GetGestureStatus@CWnd@@MAEKVCPoint@@@Z
	DD	FLAT:?OnGestureZoom@CWnd@@MAEHVCPoint@@J@Z
	DD	FLAT:?OnGesturePan@CWnd@@MAEHVCPoint@@0@Z
	DD	FLAT:?OnGestureRotate@CWnd@@MAEHVCPoint@@N@Z
	DD	FLAT:?OnGestureTwoFingerTap@CWnd@@MAEHVCPoint@@@Z
	DD	FLAT:?OnGesturePressAndTap@CWnd@@MAEHVCPoint@@J@Z
	DD	FLAT:?ResizeDynamicLayout@CWnd@@MAEXXZ
	DD	FLAT:?CheckAutoCenter@CDialog@@UAEHXZ
	DD	FLAT:?IsFrameWnd@CWnd@@UBEHXZ
	DD	FLAT:?CreateControlContainer@CWnd@@MAEHPAPAVCOleControlContainer@@@Z
	DD	FLAT:?CreateControlSite@CWnd@@MAEHPAVCOleControlContainer@@PAPAVCOleControlSite@@IABU_GUID@@@Z
	DD	FLAT:?SetOccDialogInfo@CDialog@@MAEHPAU_AFX_OCC_DIALOG_INFO@@@Z
	DD	FLAT:?GetOccDialogInfo@CDialog@@MAEPAU_AFX_OCC_DIALOG_INFO@@XZ
	DD	FLAT:?Create@CDialog@@UAEHIPAVCWnd@@@Z
	DD	FLAT:?Create@CDialog@@UAEHPBDPAVCWnd@@@Z
	DD	FLAT:?CreateIndirect@CDialog@@UAEHPAXPAVCWnd@@@Z
	DD	FLAT:?CreateIndirect@CDialog@@UAEHPBUDLGTEMPLATE@@PAVCWnd@@PAX@Z
	DD	FLAT:?DoModal@CDialog@@UAEHXZ
	DD	FLAT:?OnInitDialog@CSharedDataPage@@MAEHXZ
	DD	FLAT:?OnSetFont@CDialog@@UAEXPAVCFont@@@Z
	DD	FLAT:?OnOK@CPropertyPage@@UAEXXZ
	DD	FLAT:?OnCancel@CPropertyPage@@UAEXXZ
	DD	FLAT:?PreInitDialog@CDialog@@MAEXXZ
	DD	FLAT:?OnApply@CSharedDataPage@@UAEHXZ
	DD	FLAT:?OnReset@CPropertyPage@@UAEXXZ
	DD	FLAT:?OnSetActive@CPropertyPage@@UAEHXZ
	DD	FLAT:?OnKillActive@CSharedDataPage@@UAEHXZ
	DD	FLAT:?OnQueryCancel@CPropertyPage@@UAEHXZ
	DD	FLAT:?OnWizardBack@CPropertyPage@@UAEJXZ
	DD	FLAT:?OnWizardNext@CPropertyPage@@UAEJXZ
	DD	FLAT:?OnWizardFinish@CPropertyPage@@UAEHXZ
	DD	FLAT:?OnWizardFinishEx@CPropertyPage@@UAEPAUHWND__@@XZ
	DD	FLAT:?GetParentSheet@CPropertyPage@@UAEPAVCPropertySheet@@XZ
CONST	ENDS
;	COMDAT ?classCSharedDataPage@CSharedDataPage@@2UCRuntimeClass@@B
CONST	SEGMENT
?classCSharedDataPage@CSharedDataPage@@2UCRuntimeClass@@B DD FLAT:??_C@_0BA@HMCCKMDF@CSharedDataPage@ ; CSharedDataPage::classCSharedDataPage
	DD	01d0H
	DD	0ffffH
	DD	FLAT:?CreateObject@CSharedDataPage@@SGPAVCObject@@XZ
	DD	FLAT:?_GetBaseClass@CSharedDataPage@@KGPAUCRuntimeClass@@XZ
	DD	00H
	DD	00H
CONST	ENDS
;	COMDAT ??_C@_0BA@ENJOCHIO@LoadResourceDLL@
CONST	SEGMENT
??_C@_0BA@ENJOCHIO@LoadResourceDLL@ DB 'LoadResourceDLL', 00H ; `string'
CONST	ENDS
;	COMDAT ??_R1A@?0A@EA@CListCtrl@@8
rdata$r	SEGMENT
??_R1A@?0A@EA@CListCtrl@@8 DD FLAT:??_R0?AVCListCtrl@@@8 ; CListCtrl::`RTTI Base Class Descriptor at (0,-1,0,64)'
	DD	03H
	DD	00H
	DD	0ffffffffH
	DD	00H
	DD	040H
	DD	FLAT:??_R3CListCtrl@@8
rdata$r	ENDS
;	COMDAT ??_R2CListCtrl@@8
rdata$r	SEGMENT
??_R2CListCtrl@@8 DD FLAT:??_R1A@?0A@EA@CListCtrl@@8	; CListCtrl::`RTTI Base Class Array'
	DD	FLAT:??_R1A@?0A@EA@CWnd@@8
	DD	FLAT:??_R1A@?0A@EA@CCmdTarget@@8
	DD	FLAT:??_R1A@?0A@EA@CObject@@8
rdata$r	ENDS
;	COMDAT ??_R3CListCtrl@@8
rdata$r	SEGMENT
??_R3CListCtrl@@8 DD 00H				; CListCtrl::`RTTI Class Hierarchy Descriptor'
	DD	00H
	DD	04H
	DD	FLAT:??_R2CListCtrl@@8
rdata$r	ENDS
;	COMDAT ??_R0?AVCListCtrl@@@8
data$rs	SEGMENT
??_R0?AVCListCtrl@@@8 DD FLAT:??_7type_info@@6B@	; CListCtrl `RTTI Type Descriptor'
	DD	00H
	DB	'.?AVCListCtrl@@', 00H
data$rs	ENDS
;	COMDAT ??_R4CListCtrl@@6B@
rdata$r	SEGMENT
??_R4CListCtrl@@6B@ DD 00H				; CListCtrl::`RTTI Complete Object Locator'
	DD	00H
	DD	00H
	DD	FLAT:??_R0?AVCListCtrl@@@8
	DD	FLAT:??_R3CListCtrl@@8
rdata$r	ENDS
;	COMDAT ??_R2CDialog@@8
rdata$r	SEGMENT
??_R2CDialog@@8 DD FLAT:??_R1A@?0A@EA@CDialog@@8	; CDialog::`RTTI Base Class Array'
	DD	FLAT:??_R1A@?0A@EA@CWnd@@8
	DD	FLAT:??_R1A@?0A@EA@CCmdTarget@@8
	DD	FLAT:??_R1A@?0A@EA@CObject@@8
rdata$r	ENDS
;	COMDAT ??_R3CDialog@@8
rdata$r	SEGMENT
??_R3CDialog@@8 DD 00H					; CDialog::`RTTI Class Hierarchy Descriptor'
	DD	00H
	DD	04H
	DD	FLAT:??_R2CDialog@@8
rdata$r	ENDS
;	COMDAT ??_R0?AVCDialog@@@8
data$rs	SEGMENT
??_R0?AVCDialog@@@8 DD FLAT:??_7type_info@@6B@		; CDialog `RTTI Type Descriptor'
	DD	00H
	DB	'.?AVCDialog@@', 00H
data$rs	ENDS
;	COMDAT ??_R1A@?0A@EA@CDialog@@8
rdata$r	SEGMENT
??_R1A@?0A@EA@CDialog@@8 DD FLAT:??_R0?AVCDialog@@@8	; CDialog::`RTTI Base Class Descriptor at (0,-1,0,64)'
	DD	03H
	DD	00H
	DD	0ffffffffH
	DD	00H
	DD	040H
	DD	FLAT:??_R3CDialog@@8
rdata$r	ENDS
;	COMDAT ??_R2CCmdTarget@@8
rdata$r	SEGMENT
??_R2CCmdTarget@@8 DD FLAT:??_R1A@?0A@EA@CCmdTarget@@8	; CCmdTarget::`RTTI Base Class Array'
	DD	FLAT:??_R1A@?0A@EA@CObject@@8
rdata$r	ENDS
;	COMDAT ??_R3CCmdTarget@@8
rdata$r	SEGMENT
??_R3CCmdTarget@@8 DD 00H				; CCmdTarget::`RTTI Class Hierarchy Descriptor'
	DD	00H
	DD	02H
	DD	FLAT:??_R2CCmdTarget@@8
rdata$r	ENDS
;	COMDAT ??_R0?AVCCmdTarget@@@8
data$rs	SEGMENT
??_R0?AVCCmdTarget@@@8 DD FLAT:??_7type_info@@6B@	; CCmdTarget `RTTI Type Descriptor'
	DD	00H
	DB	'.?AVCCmdTarget@@', 00H
data$rs	ENDS
;	COMDAT ??_R1A@?0A@EA@CCmdTarget@@8
rdata$r	SEGMENT
??_R1A@?0A@EA@CCmdTarget@@8 DD FLAT:??_R0?AVCCmdTarget@@@8 ; CCmdTarget::`RTTI Base Class Descriptor at (0,-1,0,64)'
	DD	01H
	DD	00H
	DD	0ffffffffH
	DD	00H
	DD	040H
	DD	FLAT:??_R3CCmdTarget@@8
rdata$r	ENDS
;	COMDAT ??_R2CWnd@@8
rdata$r	SEGMENT
??_R2CWnd@@8 DD	FLAT:??_R1A@?0A@EA@CWnd@@8		; CWnd::`RTTI Base Class Array'
	DD	FLAT:??_R1A@?0A@EA@CCmdTarget@@8
	DD	FLAT:??_R1A@?0A@EA@CObject@@8
rdata$r	ENDS
;	COMDAT ??_R3CWnd@@8
rdata$r	SEGMENT
??_R3CWnd@@8 DD	00H					; CWnd::`RTTI Class Hierarchy Descriptor'
	DD	00H
	DD	03H
	DD	FLAT:??_R2CWnd@@8
rdata$r	ENDS
;	COMDAT ??_R0?AVCWnd@@@8
data$rs	SEGMENT
??_R0?AVCWnd@@@8 DD FLAT:??_7type_info@@6B@		; CWnd `RTTI Type Descriptor'
	DD	00H
	DB	'.?AVCWnd@@', 00H
data$rs	ENDS
;	COMDAT ??_R1A@?0A@EA@CWnd@@8
rdata$r	SEGMENT
??_R1A@?0A@EA@CWnd@@8 DD FLAT:??_R0?AVCWnd@@@8		; CWnd::`RTTI Base Class Descriptor at (0,-1,0,64)'
	DD	02H
	DD	00H
	DD	0ffffffffH
	DD	00H
	DD	040H
	DD	FLAT:??_R3CWnd@@8
rdata$r	ENDS
;	COMDAT ??_R1A@?0A@EA@CObject@@8
rdata$r	SEGMENT
??_R1A@?0A@EA@CObject@@8 DD FLAT:??_R0?AVCObject@@@8	; CObject::`RTTI Base Class Descriptor at (0,-1,0,64)'
	DD	00H
	DD	00H
	DD	0ffffffffH
	DD	00H
	DD	040H
	DD	FLAT:??_R3CObject@@8
rdata$r	ENDS
;	COMDAT ??_R2CObject@@8
rdata$r	SEGMENT
??_R2CObject@@8 DD FLAT:??_R1A@?0A@EA@CObject@@8	; CObject::`RTTI Base Class Array'
rdata$r	ENDS
;	COMDAT ??_R3CObject@@8
rdata$r	SEGMENT
??_R3CObject@@8 DD 00H					; CObject::`RTTI Class Hierarchy Descriptor'
	DD	00H
	DD	01H
	DD	FLAT:??_R2CObject@@8
rdata$r	ENDS
;	COMDAT ??_R0?AVCObject@@@8
data$rs	SEGMENT
??_R0?AVCObject@@@8 DD FLAT:??_7type_info@@6B@		; CObject `RTTI Type Descriptor'
	DD	00H
	DB	'.?AVCObject@@', 00H
data$rs	ENDS
;	COMDAT ??_7CListCtrl@@6B@
CONST	SEGMENT
??_7CListCtrl@@6B@ DD FLAT:??_R4CListCtrl@@6B@		; CListCtrl::`vftable'
	DD	FLAT:?GetRuntimeClass@CListCtrl@@UBEPAUCRuntimeClass@@XZ
	DD	FLAT:??_ECListCtrl@@UAEPAXI@Z
	DD	FLAT:?Serialize@CObject@@UAEXAAVCArchive@@@Z
	DD	FLAT:?AssertValid@CObject@@UBEXXZ
	DD	FLAT:?Dump@CObject@@UBEXAAVCDumpContext@@@Z
	DD	FLAT:?OnCmdMsg@CCmdTarget@@UAEHIHPAXPAUAFX_CMDHANDLERINFO@@@Z
	DD	FLAT:?OnFinalRelease@CWnd@@UAEXXZ
	DD	FLAT:?IsInvokeAllowed@CCmdTarget@@UAEHJ@Z
	DD	FLAT:?GetDispatchIID@CCmdTarget@@UAEHPAU_GUID@@@Z
	DD	FLAT:?GetTypeInfoCount@CCmdTarget@@UAEIXZ
	DD	FLAT:?GetTypeLibCache@CCmdTarget@@UAEPAVCTypeLibCache@@XZ
	DD	FLAT:?GetTypeLib@CCmdTarget@@UAEJKPAPAUITypeLib@@@Z
	DD	FLAT:?GetMessageMap@CListCtrl@@MBEPBUAFX_MSGMAP@@XZ
	DD	FLAT:?GetCommandMap@CCmdTarget@@MBEPBUAFX_OLECMDMAP@@XZ
	DD	FLAT:?GetDispatchMap@CCmdTarget@@MBEPBUAFX_DISPMAP@@XZ
	DD	FLAT:?GetConnectionMap@CCmdTarget@@MBEPBUAFX_CONNECTIONMAP@@XZ
	DD	FLAT:?GetInterfaceMap@CWnd@@MBEPBUAFX_INTERFACEMAP@@XZ
	DD	FLAT:?GetEventSinkMap@CCmdTarget@@MBEPBUAFX_EVENTSINKMAP@@XZ
	DD	FLAT:?OnCreateAggregates@CCmdTarget@@UAEHXZ
	DD	FLAT:?GetInterfaceHook@CCmdTarget@@UAEPAUIUnknown@@PBX@Z
	DD	FLAT:?GetExtraConnectionPoints@CCmdTarget@@MAEHPAVCPtrArray@@@Z
	DD	FLAT:?GetConnectionHook@CCmdTarget@@MAEPAUIConnectionPoint@@ABU_GUID@@@Z
	DD	FLAT:?PreSubclassWindow@CWnd@@UAEXXZ
	DD	FLAT:?Create@CWnd@@UAEHPBD0KABUtagRECT@@PAV1@IPAUCCreateContext@@@Z
	DD	FLAT:?CreateEx@CWnd@@UAEHKPBD0KABUtagRECT@@PAV1@IPAX@Z
	DD	FLAT:?CreateEx@CWnd@@UAEHKPBD0KHHHHPAUHWND__@@PAUHMENU__@@PAX@Z
	DD	FLAT:?DestroyWindow@CWnd@@UAEHXZ
	DD	FLAT:?PreCreateWindow@CWnd@@UAEHAAUtagCREATESTRUCTA@@@Z
	DD	FLAT:?CalcWindowRect@CWnd@@UAEXPAUtagRECT@@I@Z
	DD	FLAT:?GetMenu@CWnd@@UBEPAVCMenu@@XZ
	DD	FLAT:?SetMenu@CWnd@@UAEHPAVCMenu@@@Z
	DD	FLAT:?OnToolHitTest@CWnd@@UBEHVCPoint@@PAUtagTOOLINFOA@@@Z
	DD	FLAT:?GetScrollBarCtrl@CWnd@@UBEPAVCScrollBar@@H@Z
	DD	FLAT:?WinHelpA@CWnd@@UAEXKI@Z
	DD	FLAT:?HtmlHelpA@CWnd@@UAEXKI@Z
	DD	FLAT:?WinHelpInternal@CWnd@@UAEXKI@Z
	DD	FLAT:?ContinueModal@CWnd@@UAEHXZ
	DD	FLAT:?EndModalLoop@CWnd@@UAEXH@Z
	DD	FLAT:?OnDrawIconicThumbnailOrLivePreview@CWnd@@UAEXAAVCDC@@VCRect@@VCSize@@HAAH@Z
	DD	FLAT:?EnsureStdObj@CWnd@@UAEJXZ
	DD	FLAT:?get_accParent@CWnd@@UAEJPAPAUIDispatch@@@Z
	DD	FLAT:?get_accChildCount@CWnd@@UAEJPAJ@Z
	DD	FLAT:?get_accChild@CWnd@@UAEJUtagVARIANT@@PAPAUIDispatch@@@Z
	DD	FLAT:?get_accName@CWnd@@UAEJUtagVARIANT@@PAPA_W@Z
	DD	FLAT:?get_accValue@CWnd@@UAEJUtagVARIANT@@PAPA_W@Z
	DD	FLAT:?get_accDescription@CWnd@@UAEJUtagVARIANT@@PAPA_W@Z
	DD	FLAT:?get_accRole@CWnd@@UAEJUtagVARIANT@@PAU2@@Z
	DD	FLAT:?get_accState@CWnd@@UAEJUtagVARIANT@@PAU2@@Z
	DD	FLAT:?get_accHelp@CWnd@@UAEJUtagVARIANT@@PAPA_W@Z
	DD	FLAT:?get_accHelpTopic@CWnd@@UAEJPAPA_WUtagVARIANT@@PAJ@Z
	DD	FLAT:?get_accKeyboardShortcut@CWnd@@UAEJUtagVARIANT@@PAPA_W@Z
	DD	FLAT:?get_accFocus@CWnd@@UAEJPAUtagVARIANT@@@Z
	DD	FLAT:?get_accSelection@CWnd@@UAEJPAUtagVARIANT@@@Z
	DD	FLAT:?get_accDefaultAction@CWnd@@UAEJUtagVARIANT@@PAPA_W@Z
	DD	FLAT:?accSelect@CWnd@@UAEJJUtagVARIANT@@@Z
	DD	FLAT:?accLocation@CWnd@@UAEJPAJ000UtagVARIANT@@@Z
	DD	FLAT:?accNavigate@CWnd@@UAEJJUtagVARIANT@@PAU2@@Z
	DD	FLAT:?accHitTest@CWnd@@UAEJJJPAUtagVARIANT@@@Z
	DD	FLAT:?accDoDefaultAction@CWnd@@UAEJUtagVARIANT@@@Z
	DD	FLAT:?put_accName@CWnd@@UAEJUtagVARIANT@@PA_W@Z
	DD	FLAT:?put_accValue@CWnd@@UAEJUtagVARIANT@@PA_W@Z
	DD	FLAT:?SetProxy@CWnd@@UAEJPAUIAccessibleProxy@@@Z
	DD	FLAT:?CreateAccessibleProxy@CWnd@@UAEJIJPAJ@Z
	DD	FLAT:?OnCommand@CWnd@@MAEHIJ@Z
	DD	FLAT:?OnNotify@CWnd@@MAEHIJPAJ@Z
	DD	FLAT:?GetSuperWndProcAddr@CWnd@@MAEPAP6GJPAUHWND__@@IIJ@ZXZ
	DD	FLAT:?DoDataExchange@CWnd@@MAEXPAVCDataExchange@@@Z
	DD	FLAT:?BeginModalState@CWnd@@UAEXXZ
	DD	FLAT:?EndModalState@CWnd@@UAEXXZ
	DD	FLAT:?PreTranslateMessage@CWnd@@UAEHPAUtagMSG@@@Z
	DD	FLAT:?OnAmbientProperty@CWnd@@UAEHPAVCOleControlSite@@JPAUtagVARIANT@@@Z
	DD	FLAT:?WindowProc@CWnd@@MAEJIIJ@Z
	DD	FLAT:?OnWndMsg@CWnd@@MAEHIIJPAJ@Z
	DD	FLAT:?DefWindowProcA@CWnd@@MAEJIIJ@Z
	DD	FLAT:?PostNcDestroy@CWnd@@MAEXXZ
	DD	FLAT:?OnChildNotify@CListCtrl@@MAEHIIJPAJ@Z
	DD	FLAT:?OnTouchInputs@CWnd@@MAEHIPAUtagTOUCHINPUT@@@Z
	DD	FLAT:?OnTouchInput@CWnd@@MAEHVCPoint@@HHPAUtagTOUCHINPUT@@@Z
	DD	FLAT:?GetGestureStatus@CWnd@@MAEKVCPoint@@@Z
	DD	FLAT:?OnGestureZoom@CWnd@@MAEHVCPoint@@J@Z
	DD	FLAT:?OnGesturePan@CWnd@@MAEHVCPoint@@0@Z
	DD	FLAT:?OnGestureRotate@CWnd@@MAEHVCPoint@@N@Z
	DD	FLAT:?OnGestureTwoFingerTap@CWnd@@MAEHVCPoint@@@Z
	DD	FLAT:?OnGesturePressAndTap@CWnd@@MAEHVCPoint@@J@Z
	DD	FLAT:?ResizeDynamicLayout@CWnd@@MAEXXZ
	DD	FLAT:?CheckAutoCenter@CWnd@@UAEHXZ
	DD	FLAT:?IsFrameWnd@CWnd@@UBEHXZ
	DD	FLAT:?CreateControlContainer@CWnd@@MAEHPAPAVCOleControlContainer@@@Z
	DD	FLAT:?CreateControlSite@CWnd@@MAEHPAVCOleControlContainer@@PAPAVCOleControlSite@@IABU_GUID@@@Z
	DD	FLAT:?SetOccDialogInfo@CWnd@@MAEHPAU_AFX_OCC_DIALOG_INFO@@@Z
	DD	FLAT:?GetOccDialogInfo@CWnd@@MAEPAU_AFX_OCC_DIALOG_INFO@@XZ
	DD	FLAT:?DrawItem@CListCtrl@@UAEXPAUtagDRAWITEMSTRUCT@@@Z
CONST	ENDS
;	COMDAT ??_C@_00CNPNBAHC@@
CONST	SEGMENT
??_C@_00CNPNBAHC@@ DB 00H				; `string'
CONST	ENDS
;	COMDAT ??_C@_02DPKJAMEF@?$CFd@
CONST	SEGMENT
??_C@_02DPKJAMEF@?$CFd@ DB '%d', 00H			; `string'
CONST	ENDS
;	COMDAT xdata$x
xdata$x	SEGMENT
__ehfuncinfo$?LFnBtnModify@CSharedDataPage@@IAEXPAVCListCtrl@@I@Z DD 019930522H
	DD	08H
	DD	FLAT:__unwindtable$?LFnBtnModify@CSharedDataPage@@IAEXPAVCListCtrl@@I@Z
	DD	2 DUP(00H)
	DD	2 DUP(00H)
	DD	00H
	DD	01H
__unwindtable$?LFnBtnModify@CSharedDataPage@@IAEXPAVCListCtrl@@I@Z DD 0ffffffffH
	DD	FLAT:__unwindfunclet$?LFnBtnModify@CSharedDataPage@@IAEXPAVCListCtrl@@I@Z$0
	DD	00H
	DD	FLAT:__unwindfunclet$?LFnBtnModify@CSharedDataPage@@IAEXPAVCListCtrl@@I@Z$1
	DD	01H
	DD	FLAT:__unwindfunclet$?LFnBtnModify@CSharedDataPage@@IAEXPAVCListCtrl@@I@Z$2
	DD	02H
	DD	FLAT:__unwindfunclet$?LFnBtnModify@CSharedDataPage@@IAEXPAVCListCtrl@@I@Z$3
	DD	03H
	DD	FLAT:__unwindfunclet$?LFnBtnModify@CSharedDataPage@@IAEXPAVCListCtrl@@I@Z$4
	DD	04H
	DD	FLAT:__unwindfunclet$?LFnBtnModify@CSharedDataPage@@IAEXPAVCListCtrl@@I@Z$5
	DD	04H
	DD	FLAT:__unwindfunclet$?LFnBtnModify@CSharedDataPage@@IAEXPAVCListCtrl@@I@Z$7
	DD	0ffffffffH
	DD	FLAT:___std_terminate
xdata$x	ENDS
;	COMDAT xdata$x
xdata$x	SEGMENT
__unwindtable$?LFnBtnAdd@CSharedDataPage@@IAEXPAVCListCtrl@@I@Z DD 0ffffffffH
	DD	FLAT:__unwindfunclet$?LFnBtnAdd@CSharedDataPage@@IAEXPAVCListCtrl@@I@Z$0
	DD	00H
	DD	FLAT:__unwindfunclet$?LFnBtnAdd@CSharedDataPage@@IAEXPAVCListCtrl@@I@Z$1
	DD	0ffffffffH
	DD	FLAT:___std_terminate
__ehfuncinfo$?LFnBtnAdd@CSharedDataPage@@IAEXPAVCListCtrl@@I@Z DD 019930522H
	DD	03H
	DD	FLAT:__unwindtable$?LFnBtnAdd@CSharedDataPage@@IAEXPAVCListCtrl@@I@Z
	DD	2 DUP(00H)
	DD	2 DUP(00H)
	DD	00H
	DD	01H
xdata$x	ENDS
;	COMDAT xdata$x
xdata$x	SEGMENT
__unwindtable$?OnApply@CSharedDataPage@@UAEHXZ DD 0ffffffffH
	DD	FLAT:__unwindfunclet$?OnApply@CSharedDataPage@@UAEHXZ$0
__ehfuncinfo$?OnApply@CSharedDataPage@@UAEHXZ DD 019930522H
	DD	01H
	DD	FLAT:__unwindtable$?OnApply@CSharedDataPage@@UAEHXZ
	DD	2 DUP(00H)
	DD	2 DUP(00H)
	DD	00H
	DD	01H
xdata$x	ENDS
;	COMDAT xdata$x
xdata$x	SEGMENT
__unwindtable$?AddData@CSharedDataPage@@QAEHPAVCListCtrl@@V?$CStringT@DV?$StrTraitMFC_DLL@DV?$ChTraitsCRT@D@ATL@@@@@ATL@@HHH@Z DD 0ffffffffH
	DD	FLAT:__unwindfunclet$?AddData@CSharedDataPage@@QAEHPAVCListCtrl@@V?$CStringT@DV?$StrTraitMFC_DLL@DV?$ChTraitsCRT@D@ATL@@@@@ATL@@HHH@Z$0
__ehfuncinfo$?AddData@CSharedDataPage@@QAEHPAVCListCtrl@@V?$CStringT@DV?$StrTraitMFC_DLL@DV?$ChTraitsCRT@D@ATL@@@@@ATL@@HHH@Z DD 019930522H
	DD	01H
	DD	FLAT:__unwindtable$?AddData@CSharedDataPage@@QAEHPAVCListCtrl@@V?$CStringT@DV?$StrTraitMFC_DLL@DV?$ChTraitsCRT@D@ATL@@@@@ATL@@HHH@Z
	DD	2 DUP(00H)
	DD	2 DUP(00H)
	DD	00H
	DD	01H
xdata$x	ENDS
;	COMDAT xdata$x
xdata$x	SEGMENT
__ehfuncinfo$?AddData@CSharedDataPage@@QAEHPAVCListCtrl@@V?$CStringT@DV?$StrTraitMFC_DLL@DV?$ChTraitsCRT@D@ATL@@@@@ATL@@@Z DD 019930522H
	DD	05H
	DD	FLAT:__unwindtable$?AddData@CSharedDataPage@@QAEHPAVCListCtrl@@V?$CStringT@DV?$StrTraitMFC_DLL@DV?$ChTraitsCRT@D@ATL@@@@@ATL@@@Z
	DD	2 DUP(00H)
	DD	2 DUP(00H)
	DD	00H
	DD	01H
__unwindtable$?AddData@CSharedDataPage@@QAEHPAVCListCtrl@@V?$CStringT@DV?$StrTraitMFC_DLL@DV?$ChTraitsCRT@D@ATL@@@@@ATL@@@Z DD 0ffffffffH
	DD	FLAT:__unwindfunclet$?AddData@CSharedDataPage@@QAEHPAVCListCtrl@@V?$CStringT@DV?$StrTraitMFC_DLL@DV?$ChTraitsCRT@D@ATL@@@@@ATL@@@Z$0
	DD	00H
	DD	FLAT:__unwindfunclet$?AddData@CSharedDataPage@@QAEHPAVCListCtrl@@V?$CStringT@DV?$StrTraitMFC_DLL@DV?$ChTraitsCRT@D@ATL@@@@@ATL@@@Z$1
	DD	01H
	DD	FLAT:__unwindfunclet$?AddData@CSharedDataPage@@QAEHPAVCListCtrl@@V?$CStringT@DV?$StrTraitMFC_DLL@DV?$ChTraitsCRT@D@ATL@@@@@ATL@@@Z$2
	DD	01H
	DD	FLAT:__unwindfunclet$?AddData@CSharedDataPage@@QAEHPAVCListCtrl@@V?$CStringT@DV?$StrTraitMFC_DLL@DV?$ChTraitsCRT@D@ATL@@@@@ATL@@@Z$3
	DD	01H
	DD	FLAT:__unwindfunclet$?AddData@CSharedDataPage@@QAEHPAVCListCtrl@@V?$CStringT@DV?$StrTraitMFC_DLL@DV?$ChTraitsCRT@D@ATL@@@@@ATL@@@Z$4
xdata$x	ENDS
;	COMDAT xdata$x
xdata$x	SEGMENT
__unwindtable$?UpdateItemData@CSharedDataPage@@QAEHPAVCListCtrl@@V?$CStringT@DV?$StrTraitMFC_DLL@DV?$ChTraitsCRT@D@ATL@@@@@ATL@@HHHH@Z DD 0ffffffffH
	DD	FLAT:__unwindfunclet$?UpdateItemData@CSharedDataPage@@QAEHPAVCListCtrl@@V?$CStringT@DV?$StrTraitMFC_DLL@DV?$ChTraitsCRT@D@ATL@@@@@ATL@@HHHH@Z$0
__ehfuncinfo$?UpdateItemData@CSharedDataPage@@QAEHPAVCListCtrl@@V?$CStringT@DV?$StrTraitMFC_DLL@DV?$ChTraitsCRT@D@ATL@@@@@ATL@@HHHH@Z DD 019930522H
	DD	01H
	DD	FLAT:__unwindtable$?UpdateItemData@CSharedDataPage@@QAEHPAVCListCtrl@@V?$CStringT@DV?$StrTraitMFC_DLL@DV?$ChTraitsCRT@D@ATL@@@@@ATL@@HHHH@Z
	DD	2 DUP(00H)
	DD	2 DUP(00H)
	DD	00H
	DD	01H
xdata$x	ENDS
;	COMDAT xdata$x
xdata$x	SEGMENT
__ehfuncinfo$?MakeShareList@CSharedDataPage@@QAEXPAVCListCtrl@@I@Z DD 019930522H
	DD	0bH
	DD	FLAT:__unwindtable$?MakeShareList@CSharedDataPage@@QAEXPAVCListCtrl@@I@Z
	DD	2 DUP(00H)
	DD	2 DUP(00H)
	DD	00H
	DD	01H
__unwindtable$?MakeShareList@CSharedDataPage@@QAEXPAVCListCtrl@@I@Z DD 0ffffffffH
	DD	FLAT:__unwindfunclet$?MakeShareList@CSharedDataPage@@QAEXPAVCListCtrl@@I@Z$0
	DD	00H
	DD	FLAT:__unwindfunclet$?MakeShareList@CSharedDataPage@@QAEXPAVCListCtrl@@I@Z$1
	DD	01H
	DD	FLAT:__unwindfunclet$?MakeShareList@CSharedDataPage@@QAEXPAVCListCtrl@@I@Z$2
	DD	02H
	DD	FLAT:__unwindfunclet$?MakeShareList@CSharedDataPage@@QAEXPAVCListCtrl@@I@Z$3
	DD	03H
	DD	FLAT:__unwindfunclet$?MakeShareList@CSharedDataPage@@QAEXPAVCListCtrl@@I@Z$4
	DD	04H
	DD	FLAT:__unwindfunclet$?MakeShareList@CSharedDataPage@@QAEXPAVCListCtrl@@I@Z$5
	DD	05H
	DD	FLAT:__unwindfunclet$?MakeShareList@CSharedDataPage@@QAEXPAVCListCtrl@@I@Z$6
	DD	05H
	DD	FLAT:__unwindfunclet$?MakeShareList@CSharedDataPage@@QAEXPAVCListCtrl@@I@Z$7
	DD	05H
	DD	FLAT:__unwindfunclet$?MakeShareList@CSharedDataPage@@QAEXPAVCListCtrl@@I@Z$8
	DD	05H
	DD	FLAT:__unwindfunclet$?MakeShareList@CSharedDataPage@@QAEXPAVCListCtrl@@I@Z$9
	DD	05H
	DD	FLAT:__unwindfunclet$?MakeShareList@CSharedDataPage@@QAEXPAVCListCtrl@@I@Z$10
xdata$x	ENDS
;	COMDAT xdata$x
xdata$x	SEGMENT
__ehfuncinfo$??0CSharedDataPage@@QAE@XZ DD 019930522H
	DD	05H
	DD	FLAT:__unwindtable$??0CSharedDataPage@@QAE@XZ
	DD	2 DUP(00H)
	DD	2 DUP(00H)
	DD	00H
	DD	01H
__unwindtable$??0CSharedDataPage@@QAE@XZ DD 0ffffffffH
	DD	FLAT:__unwindfunclet$??0CSharedDataPage@@QAE@XZ$0
	DD	00H
	DD	FLAT:__unwindfunclet$??0CSharedDataPage@@QAE@XZ$1
	DD	01H
	DD	FLAT:__unwindfunclet$??0CSharedDataPage@@QAE@XZ$2
	DD	02H
	DD	FLAT:__unwindfunclet$??0CSharedDataPage@@QAE@XZ$3
	DD	03H
	DD	FLAT:__unwindfunclet$??0CSharedDataPage@@QAE@XZ$4
xdata$x	ENDS
;	COMDAT xdata$x
xdata$x	SEGMENT
__ehfuncinfo$?CreateObject@CSharedDataPage@@SGPAVCObject@@XZ DD 019930522H
	DD	06H
	DD	FLAT:__unwindtable$?CreateObject@CSharedDataPage@@SGPAVCObject@@XZ
	DD	2 DUP(00H)
	DD	2 DUP(00H)
	DD	00H
	DD	01H
__unwindtable$?CreateObject@CSharedDataPage@@SGPAVCObject@@XZ DD 0ffffffffH
	DD	FLAT:__unwindfunclet$?CreateObject@CSharedDataPage@@SGPAVCObject@@XZ$0
	DD	00H
	DD	FLAT:__unwindfunclet$?CreateObject@CSharedDataPage@@SGPAVCObject@@XZ$1
	DD	01H
	DD	FLAT:__unwindfunclet$?CreateObject@CSharedDataPage@@SGPAVCObject@@XZ$2
	DD	02H
	DD	FLAT:__unwindfunclet$?CreateObject@CSharedDataPage@@SGPAVCObject@@XZ$3
	DD	03H
	DD	FLAT:__unwindfunclet$?CreateObject@CSharedDataPage@@SGPAVCObject@@XZ$4
	DD	04H
	DD	FLAT:__unwindfunclet$?CreateObject@CSharedDataPage@@SGPAVCObject@@XZ$5
xdata$x	ENDS
;	COMDAT xdata$x
xdata$x	SEGMENT
__ehfuncinfo$??1CMultiLanguageResourceSetter@@QAE@XZ DD 019930522H
	DD	00H
	DD	00H
	DD	2 DUP(00H)
	DD	2 DUP(00H)
	DD	00H
	DD	05H
xdata$x	ENDS
; Function compile flags: /Ogtp
;	COMDAT ??1CDlgShareSet@@UAE@XZ
_TEXT	SEGMENT
??1CDlgShareSet@@UAE@XZ PROC				; CDlgShareSet::~CDlgShareSet, COMDAT
; _this$ = ecx
  00000	56		 push	 esi
  00001	8b f1		 mov	 esi, ecx
  00003	8d 8e 38 01 00
	00		 lea	 ecx, DWORD PTR [esi+312]
  00009	ff 15 00 00 00
	00		 call	 DWORD PTR __imp_??1?$CStringT@DV?$StrTraitMFC_DLL@DV?$ChTraitsCRT@D@ATL@@@@@ATL@@QAE@XZ
  0000f	8d 8e b0 00 00
	00		 lea	 ecx, DWORD PTR [esi+176]
  00015	e8 00 00 00 00	 call	 ??1CEdit@@UAE@XZ	; CEdit::~CEdit
  0001a	8b ce		 mov	 ecx, esi
  0001c	5e		 pop	 esi
  0001d	e9 00 00 00 00	 jmp	 ??1CDialog@@UAE@XZ	; CDialog::~CDialog
??1CDlgShareSet@@UAE@XZ ENDP				; CDlgShareSet::~CDlgShareSet
_TEXT	ENDS
; Function compile flags: /Ogtp
; File D:\git\src\IBK\IBK_DRFN\ProjSrc\SrcChartEx\ChartAddIn\ChartDesignPropertyAddIn\ChartDesignPropertyAddIn\SharedDataPage.cpp
; File C:\Program Files (x86)\Microsoft Visual Studio\2019\Community\VC\Tools\MSVC\14.29.30133\atlmfc\include\afx.inl
;	COMDAT ??_GCSharedDataPage@@UAEPAXI@Z
_TEXT	SEGMENT
___flags$ = 8						; size = 4
??_GCSharedDataPage@@UAEPAXI@Z PROC			; CSharedDataPage::`scalar deleting destructor', COMDAT
; _this$ = ecx
  00000	55		 push	 ebp
  00001	8b ec		 mov	 ebp, esp
; File D:\git\src\IBK\IBK_DRFN\ProjSrc\SrcChartEx\ChartAddIn\ChartDesignPropertyAddIn\ChartDesignPropertyAddIn\SharedDataPage.cpp

; 40   : {

  00003	56		 push	 esi
  00004	8b f1		 mov	 esi, ecx

; 41   : }

  00006	8d 8e c4 01 00
	00		 lea	 ecx, DWORD PTR [esi+452]
  0000c	c7 06 00 00 00
	00		 mov	 DWORD PTR [esi], OFFSET ??_7CSharedDataPage@@6B@
  00012	ff 15 00 00 00
	00		 call	 DWORD PTR __imp_??1?$CStringT@DV?$StrTraitMFC_DLL@DV?$ChTraitsCRT@D@ATL@@@@@ATL@@QAE@XZ
  00018	8d 8e c0 01 00
	00		 lea	 ecx, DWORD PTR [esi+448]
  0001e	ff 15 00 00 00
	00		 call	 DWORD PTR __imp_??1?$CStringT@DV?$StrTraitMFC_DLL@DV?$ChTraitsCRT@D@ATL@@@@@ATL@@QAE@XZ
  00024	8d 8e 40 01 00
	00		 lea	 ecx, DWORD PTR [esi+320]
  0002a	e8 00 00 00 00	 call	 ??1CListCtrl@@UAE@XZ	; CListCtrl::~CListCtrl
  0002f	8d 8e c0 00 00
	00		 lea	 ecx, DWORD PTR [esi+192]
  00035	e8 00 00 00 00	 call	 ??1CListCtrl@@UAE@XZ	; CListCtrl::~CListCtrl
  0003a	8b ce		 mov	 ecx, esi
  0003c	e8 00 00 00 00	 call	 ??1CPropertyPage@@UAE@XZ ; CPropertyPage::~CPropertyPage
  00041	8b 45 08	 mov	 eax, DWORD PTR ___flags$[ebp]
  00044	a8 01		 test	 al, 1
  00046	74 22		 je	 SHORT $LN12@scalar
  00048	a8 04		 test	 al, 4
  0004a	75 10		 jne	 SHORT $LN3@scalar
; File C:\Program Files (x86)\Microsoft Visual Studio\2019\Community\VC\Tools\MSVC\14.29.30133\atlmfc\include\afx.inl

; 112  : 	{ ::operator delete(p); }

  0004c	56		 push	 esi
  0004d	e8 00 00 00 00	 call	 ??3@YAXPAX@Z		; operator delete
  00052	83 c4 04	 add	 esp, 4
  00055	8b c6		 mov	 eax, esi
  00057	5e		 pop	 esi
  00058	5d		 pop	 ebp
  00059	c2 04 00	 ret	 4
$LN3@scalar:
  0005c	68 d0 01 00 00	 push	 464			; 000001d0H
  00061	56		 push	 esi
  00062	e8 00 00 00 00	 call	 ?__global_delete@@YAXPAXI@Z ; __global_delete
  00067	83 c4 08	 add	 esp, 8
$LN12@scalar:
  0006a	8b c6		 mov	 eax, esi
  0006c	5e		 pop	 esi
  0006d	5d		 pop	 ebp
  0006e	c2 04 00	 ret	 4
??_GCSharedDataPage@@UAEPAXI@Z ENDP			; CSharedDataPage::`scalar deleting destructor'
_TEXT	ENDS
; Function compile flags: /Ogtp
; File D:\git\src\IBK\IBK_DRFN\ProjSrc\SrcChartEx\ChartAddIn\ChartDesignPropertyAddIn\ChartDesignPropertyAddIn\SharedDataPage.cpp
; File C:\Program Files (x86)\Microsoft Visual Studio\2019\Community\VC\Tools\MSVC\14.29.30133\atlmfc\include\afxcmn.inl
; File D:\git\src\IBK\IBK_DRFN\ProjSrc\SrcChartEx\ChartAddIn\ChartDesignPropertyAddIn\ChartDesignPropertyAddIn\SharedDataPage.cpp
; File C:\Program Files (x86)\Microsoft Visual Studio\2019\Community\VC\Tools\MSVC\14.29.30133\atlmfc\include\afxcmn.inl
; File D:\git\src\IBK\IBK_DRFN\ProjSrc\SrcChartEx\ChartAddIn\ChartDesignPropertyAddIn\ChartDesignPropertyAddIn\SharedDataPage.cpp
; File C:\Program Files (x86)\Microsoft Visual Studio\2019\Community\VC\Tools\MSVC\14.29.30133\atlmfc\include\afxwin1.inl
; File D:\git\src\IBK\IBK_DRFN\ProjSrc\SrcChartEx\ChartAddIn\ChartDesignPropertyAddIn\Include_Chart\Dll_Load\IMetaTable.h
; File C:\Program Files (x86)\Microsoft Visual Studio\2019\Community\VC\Tools\MSVC\14.29.30133\atlmfc\include\afxwin1.inl
; File D:\git\src\IBK\IBK_DRFN\ProjSrc\SrcChartEx\ChartAddIn\ChartDesignPropertyAddIn\ChartDesignPropertyAddIn\SharedDataPage.cpp
; File D:\git\src\IBK\IBK_DRFN\ProjSrc\SrcChartEx\ChartAddIn\ChartDesignPropertyAddIn\Include_Chart\Dll_Load\IMetaTable.h
; File C:\Program Files (x86)\Microsoft Visual Studio\2019\Community\VC\Tools\MSVC\14.29.30133\atlmfc\include\afxwin1.inl
; File D:\git\src\IBK\IBK_DRFN\ProjSrc\SrcChartEx\ChartAddIn\ChartDesignPropertyAddIn\ChartDesignPropertyAddIn\SharedDataPage.cpp
;	COMDAT ?LFnBtnModify@CSharedDataPage@@IAEXPAVCListCtrl@@I@Z
_TEXT	SEGMENT
_dlg$ = -384						; size = 320
___mlrs__$ = -64					; size = 4
__bGet$1$ = -60						; size = 4
_sStart$ = -56						; size = 4
_sSet$ = -52						; size = 4
_sGet$ = -48						; size = 4
_this$GSCopy$1$ = -44					; size = 4
_pList$GSCopy$1$ = -40					; size = 4
$T2 = -36						; size = 4
$T3 = -36						; size = 4
_pos$1$ = -32						; size = 4
_tmp$4 = -28						; size = 10
__$ArrayPad$ = -16					; size = 4
__$EHRec$ = -12						; size = 12
_pList$ = 8						; size = 4
_nID$ = 12						; size = 4
?LFnBtnModify@CSharedDataPage@@IAEXPAVCListCtrl@@I@Z PROC ; CSharedDataPage::LFnBtnModify, COMDAT
; _this$ = ecx

; 298  : {

  00000	55		 push	 ebp
  00001	8b ec		 mov	 ebp, esp
  00003	6a ff		 push	 -1
  00005	68 00 00 00 00	 push	 __ehhandler$?LFnBtnModify@CSharedDataPage@@IAEXPAVCListCtrl@@I@Z
  0000a	64 a1 00 00 00
	00		 mov	 eax, DWORD PTR fs:0
  00010	50		 push	 eax
  00011	81 ec 74 01 00
	00		 sub	 esp, 372		; 00000174H
  00017	a1 00 00 00 00	 mov	 eax, DWORD PTR ___security_cookie
  0001c	33 c5		 xor	 eax, ebp
  0001e	89 45 f0	 mov	 DWORD PTR __$ArrayPad$[ebp], eax
  00021	53		 push	 ebx
  00022	56		 push	 esi
  00023	57		 push	 edi
  00024	50		 push	 eax
  00025	8d 45 f4	 lea	 eax, DWORD PTR __$EHRec$[ebp]
  00028	64 a3 00 00 00
	00		 mov	 DWORD PTR fs:0, eax
  0002e	89 4d d4	 mov	 DWORD PTR _this$GSCopy$1$[ebp], ecx
  00031	8b 5d 08	 mov	 ebx, DWORD PTR _pList$[ebp]
  00034	89 5d d8	 mov	 DWORD PTR _pList$GSCopy$1$[ebp], ebx

; 299  : 	if(!pList) return;

  00037	85 db		 test	 ebx, ebx
  00039	0f 84 21 02 00
	00		 je	 $LN46@LFnBtnModi
; File C:\Program Files (x86)\Microsoft Visual Studio\2019\Community\VC\Tools\MSVC\14.29.30133\atlmfc\include\afxcmn.inl

; 177  : 	{ ASSERT(::IsWindow(m_hWnd)); return (int) ::SendMessage(m_hWnd, LVM_GETNEXTITEM, nItem, MAKELPARAM(nFlags, 0)); }

  0003f	8b 3d 00 00 00
	00		 mov	 edi, DWORD PTR __imp__SendMessageA@16
  00045	6a 02		 push	 2
  00047	6a ff		 push	 -1
  00049	68 0c 10 00 00	 push	 4108			; 0000100cH
  0004e	ff 73 20	 push	 DWORD PTR [ebx+32]
  00051	ff d7		 call	 edi

; 179  : 	{ ASSERT(::IsWindow(m_hWnd)); return (POSITION)(DWORD_PTR)(1+GetNextItem(-1, LVIS_SELECTED)); }

  00053	83 c0 01	 add	 eax, 1
  00056	89 45 e0	 mov	 DWORD PTR _pos$1$[ebp], eax
; File D:\git\src\IBK\IBK_DRFN\ProjSrc\SrcChartEx\ChartAddIn\ChartDesignPropertyAddIn\ChartDesignPropertyAddIn\SharedDataPage.cpp

; 180  : 	if(pos) 

  00059	0f 84 01 02 00
	00		 je	 $LN46@LFnBtnModi
; File C:\Program Files (x86)\Microsoft Visual Studio\2019\Community\VC\Tools\MSVC\14.29.30133\atlmfc\include\afxcmn.inl

; 177  : 	{ ASSERT(::IsWindow(m_hWnd)); return (int) ::SendMessage(m_hWnd, LVM_GETNEXTITEM, nItem, MAKELPARAM(nFlags, 0)); }

  0005f	6a 02		 push	 2

; 181  : 	{ ASSERT(::IsWindow(m_hWnd)); DWORD_PTR nOldPos = (DWORD_PTR)pos-1; pos = (POSITION)(DWORD_PTR)(1+GetNextItem((UINT)nOldPos, LVIS_SELECTED)); return (UINT)nOldPos; }

  00061	8d 70 ff	 lea	 esi, DWORD PTR [eax-1]

; 177  : 	{ ASSERT(::IsWindow(m_hWnd)); return (int) ::SendMessage(m_hWnd, LVM_GETNEXTITEM, nItem, MAKELPARAM(nFlags, 0)); }

  00064	56		 push	 esi
  00065	68 0c 10 00 00	 push	 4108			; 0000100cH
  0006a	ff 73 20	 push	 DWORD PTR [ebx+32]
  0006d	ff d7		 call	 edi
; File D:\git\src\IBK\IBK_DRFN\ProjSrc\SrcChartEx\ChartAddIn\ChartDesignPropertyAddIn\ChartDesignPropertyAddIn\SharedDataPage.cpp

; 302  : 	if(nItem<0)		return;

  0006f	85 f6		 test	 esi, esi
  00071	0f 88 e9 01 00
	00		 js	 $LN46@LFnBtnModi

; 303  : 
; 304  : 	ML_SET_LANGUAGE_RES();

  00077	e8 00 00 00 00	 call	 ?AfxGetStaticModuleState@@YGPAVAFX_MODULE_STATE@@XZ ; AfxGetStaticModuleState
  0007c	b9 00 00 00 00	 mov	 ecx, OFFSET ?g_iMetaTable@@3VIMetaTable@@A ; g_iMetaTable
  00081	8b 40 08	 mov	 eax, DWORD PTR [eax+8]
  00084	50		 push	 eax
  00085	8b 45 d4	 mov	 eax, DWORD PTR _this$GSCopy$1$[ebp]
  00088	ff b0 cc 01 00
	00		 push	 DWORD PTR [eax+460]
  0008e	e8 00 00 00 00	 call	 ?LoadResourceDLL@IMetaTable@@QAEPAUHINSTANCE__@@PAUHWND__@@PAU2@@Z ; IMetaTable::LoadResourceDLL
  00093	8b f8		 mov	 edi, eax
; File C:\Program Files (x86)\Microsoft Visual Studio\2019\Community\VC\Tools\MSVC\14.29.30133\atlmfc\include\afxwin1.inl

; 25   : 		return afxCurrentResourceHandle; }

  00095	e8 00 00 00 00	 call	 ?AfxGetModuleState@@YGPAVAFX_MODULE_STATE@@XZ ; AfxGetModuleState
; File D:\git\src\IBK\IBK_DRFN\ProjSrc\SrcChartEx\ChartAddIn\ChartDesignPropertyAddIn\Include_Chart\Dll_Load\IMetaTable.h

; 1032 : 		m_hInstance = AfxGetResourceHandle();

  0009a	8b 70 0c	 mov	 esi, DWORD PTR [eax+12]
  0009d	89 75 c0	 mov	 DWORD PTR ___mlrs__$[ebp], esi
; File C:\Program Files (x86)\Microsoft Visual Studio\2019\Community\VC\Tools\MSVC\14.29.30133\atlmfc\include\afxwin1.inl

; 27   : 	{ ASSERT(hInstResource != NULL); afxCurrentResourceHandle = hInstResource; }

  000a0	e8 00 00 00 00	 call	 ?AfxGetModuleState@@YGPAVAFX_MODULE_STATE@@XZ ; AfxGetModuleState
  000a5	89 78 0c	 mov	 DWORD PTR [eax+12], edi
; File D:\git\src\IBK\IBK_DRFN\ProjSrc\SrcChartEx\ChartAddIn\ChartDesignPropertyAddIn\ChartDesignPropertyAddIn\SharedDataPage.cpp

; 305  : 	CDlgShareSet dlg;

  000a8	6a 00		 push	 0
  000aa	8d 8d 80 fe ff
	ff		 lea	 ecx, DWORD PTR _dlg$[ebp]
  000b0	c7 45 fc 00 00
	00 00		 mov	 DWORD PTR __$EHRec$[ebp+8], 0
  000b7	e8 00 00 00 00	 call	 ??0CDlgShareSet@@QAE@PAVCWnd@@@Z ; CDlgShareSet::CDlgShareSet

; 306  : 	CString sStart = pList->GetItemText(nItem, 2);

  000bc	8b 7d e0	 mov	 edi, DWORD PTR _pos$1$[ebp]
  000bf	8d 45 c8	 lea	 eax, DWORD PTR _sStart$[ebp]
  000c2	6a 02		 push	 2
  000c4	4f		 dec	 edi
  000c5	c6 45 fc 01	 mov	 BYTE PTR __$EHRec$[ebp+8], 1
  000c9	57		 push	 edi
  000ca	50		 push	 eax
  000cb	8b cb		 mov	 ecx, ebx
  000cd	e8 00 00 00 00	 call	 ?GetItemText@CListCtrl@@QBE?AV?$CStringT@DV?$StrTraitMFC_DLL@DV?$ChTraitsCRT@D@ATL@@@@@ATL@@HH@Z ; CListCtrl::GetItemText

; 307  : 	CString sSet = pList->GetItemText(nItem, 3);

  000d2	6a 03		 push	 3
  000d4	57		 push	 edi
  000d5	8d 45 cc	 lea	 eax, DWORD PTR _sSet$[ebp]
  000d8	c6 45 fc 02	 mov	 BYTE PTR __$EHRec$[ebp+8], 2
  000dc	50		 push	 eax
  000dd	8b cb		 mov	 ecx, ebx
  000df	e8 00 00 00 00	 call	 ?GetItemText@CListCtrl@@QBE?AV?$CStringT@DV?$StrTraitMFC_DLL@DV?$ChTraitsCRT@D@ATL@@@@@ATL@@HH@Z ; CListCtrl::GetItemText

; 308  : 	CString sGet = pList->GetItemText(nItem, 4);

  000e4	6a 04		 push	 4
  000e6	57		 push	 edi
  000e7	8d 45 d0	 lea	 eax, DWORD PTR _sGet$[ebp]
  000ea	c6 45 fc 03	 mov	 BYTE PTR __$EHRec$[ebp+8], 3
  000ee	50		 push	 eax
  000ef	8b cb		 mov	 ecx, ebx
  000f1	e8 00 00 00 00	 call	 ?GetItemText@CListCtrl@@QBE?AV?$CStringT@DV?$StrTraitMFC_DLL@DV?$ChTraitsCRT@D@ATL@@@@@ATL@@HH@Z ; CListCtrl::GetItemText

; 309  : 
; 310  : 	dlg.m_szSharedName = pList->GetItemText(nItem, 1);

  000f6	6a 01		 push	 1
  000f8	57		 push	 edi
  000f9	8d 45 dc	 lea	 eax, DWORD PTR $T3[ebp]
  000fc	c6 45 fc 04	 mov	 BYTE PTR __$EHRec$[ebp+8], 4
  00100	50		 push	 eax
  00101	8b cb		 mov	 ecx, ebx
  00103	e8 00 00 00 00	 call	 ?GetItemText@CListCtrl@@QBE?AV?$CStringT@DV?$StrTraitMFC_DLL@DV?$ChTraitsCRT@D@ATL@@@@@ATL@@HH@Z ; CListCtrl::GetItemText
  00108	50		 push	 eax
  00109	8d 4d b8	 lea	 ecx, DWORD PTR _dlg$[ebp+312]
  0010c	c6 45 fc 05	 mov	 BYTE PTR __$EHRec$[ebp+8], 5
  00110	ff 15 00 00 00
	00		 call	 DWORD PTR __imp_??4?$CStringT@DV?$StrTraitMFC_DLL@DV?$ChTraitsCRT@D@ATL@@@@@ATL@@QAEAAV01@ABV01@@Z
  00116	8d 4d dc	 lea	 ecx, DWORD PTR $T3[ebp]
  00119	c6 45 fc 04	 mov	 BYTE PTR __$EHRec$[ebp+8], 4
  0011d	ff 15 00 00 00
	00		 call	 DWORD PTR __imp_??1?$CStringT@DV?$StrTraitMFC_DLL@DV?$ChTraitsCRT@D@ATL@@@@@ATL@@QAE@XZ

; 311  : 	
; 312  : 	dlg.m_bStart = atoi(sStart);

  00123	ff 75 c8	 push	 DWORD PTR _sStart$[ebp]
  00126	8b 3d 00 00 00
	00		 mov	 edi, DWORD PTR __imp__atoi
  0012c	ff d7		 call	 edi

; 313  : 	dlg.m_bSet = atoi(sSet);

  0012e	ff 75 cc	 push	 DWORD PTR _sSet$[ebp]
  00131	89 45 bc	 mov	 DWORD PTR _dlg$[ebp+316], eax
  00134	ff d7		 call	 edi

; 314  : 	dlg.m_bGet = atoi(sGet);

  00136	ff 75 d0	 push	 DWORD PTR _sGet$[ebp]
  00139	89 45 b4	 mov	 DWORD PTR _dlg$[ebp+308], eax
  0013c	ff d7		 call	 edi
  0013e	83 c4 0c	 add	 esp, 12			; 0000000cH
  00141	89 45 b0	 mov	 DWORD PTR _dlg$[ebp+304], eax

; 315  : 	
; 316  : 	dlg.m_bSName = TRUE;
; 317  : 
; 318  : 	if(IDOK==dlg.DoModal())

  00144	8d 8d 80 fe ff
	ff		 lea	 ecx, DWORD PTR _dlg$[ebp]
  0014a	c7 85 28 ff ff
	ff 01 00 00 00	 mov	 DWORD PTR _dlg$[ebp+168], 1
  00154	e8 00 00 00 00	 call	 ?DoModal@CDialog@@UAEHXZ ; CDialog::DoModal
  00159	83 f8 01	 cmp	 eax, 1
  0015c	0f 85 b5 00 00
	00		 jne	 $LN4@LFnBtnModi

; 319  : 	{
; 320  : 		UpdateItemData(pList, dlg.m_szSharedName, dlg.m_bStart, dlg.m_bSet, dlg.m_bGet, nItem);

  00162	8d 45 b8	 lea	 eax, DWORD PTR _dlg$[ebp+312]
  00165	50		 push	 eax
  00166	8d 4d dc	 lea	 ecx, DWORD PTR $T2[ebp]
  00169	ff 15 00 00 00
	00		 call	 DWORD PTR __imp_??0?$CStringT@DV?$StrTraitMFC_DLL@DV?$ChTraitsCRT@D@ATL@@@@@ATL@@QAE@ABV01@@Z
  0016f	8b 45 b0	 mov	 eax, DWORD PTR _dlg$[ebp+304]
  00172	8b 5d b4	 mov	 ebx, DWORD PTR _dlg$[ebp+308]
  00175	8b 7d bc	 mov	 edi, DWORD PTR _dlg$[ebp+316]
  00178	89 45 c4	 mov	 DWORD PTR __bGet$1$[ebp], eax

; 330  : 	pList->SetItemText(_nIndex, 1, _szShareName);

  0017b	ff 75 dc	 push	 DWORD PTR $T2[ebp]
  0017e	8b 45 e0	 mov	 eax, DWORD PTR _pos$1$[ebp]
  00181	8b 4d d8	 mov	 ecx, DWORD PTR _pList$GSCopy$1$[ebp]
  00184	48		 dec	 eax
  00185	6a 01		 push	 1
  00187	50		 push	 eax
  00188	c6 45 fc 06	 mov	 BYTE PTR __$EHRec$[ebp+8], 6
  0018c	e8 00 00 00 00	 call	 ?SetItemText@CListCtrl@@QAEHHHPBD@Z ; CListCtrl::SetItemText

; 331  : 
; 332  : 	sprintf(tmp, "%d", _bStart);

  00191	57		 push	 edi
  00192	8d 45 e4	 lea	 eax, DWORD PTR _tmp$4[ebp]
  00195	68 00 00 00 00	 push	 OFFSET ??_C@_02DPKJAMEF@?$CFd@
  0019a	50		 push	 eax
  0019b	e8 00 00 00 00	 call	 _sprintf

; 333  : 	pList->SetItemText(_nIndex, 2, tmp);

  001a0	8b 7d d8	 mov	 edi, DWORD PTR _pList$GSCopy$1$[ebp]
  001a3	8d 45 e4	 lea	 eax, DWORD PTR _tmp$4[ebp]
  001a6	83 c4 0c	 add	 esp, 12			; 0000000cH
  001a9	8b cf		 mov	 ecx, edi
  001ab	50		 push	 eax
  001ac	8b 45 e0	 mov	 eax, DWORD PTR _pos$1$[ebp]
  001af	6a 02		 push	 2
  001b1	48		 dec	 eax
  001b2	50		 push	 eax
  001b3	e8 00 00 00 00	 call	 ?SetItemText@CListCtrl@@QAEHHHPBD@Z ; CListCtrl::SetItemText

; 334  : 
; 335  : 	sprintf(tmp, "%d", _bSet);

  001b8	53		 push	 ebx
  001b9	8d 45 e4	 lea	 eax, DWORD PTR _tmp$4[ebp]
  001bc	68 00 00 00 00	 push	 OFFSET ??_C@_02DPKJAMEF@?$CFd@
  001c1	50		 push	 eax
  001c2	e8 00 00 00 00	 call	 _sprintf

; 336  : 	pList->SetItemText(_nIndex, 3, tmp);

  001c7	8b 5d e0	 mov	 ebx, DWORD PTR _pos$1$[ebp]
  001ca	8d 45 e4	 lea	 eax, DWORD PTR _tmp$4[ebp]
  001cd	83 c4 0c	 add	 esp, 12			; 0000000cH
  001d0	4b		 dec	 ebx
  001d1	8b cf		 mov	 ecx, edi
  001d3	50		 push	 eax
  001d4	6a 03		 push	 3
  001d6	53		 push	 ebx
  001d7	e8 00 00 00 00	 call	 ?SetItemText@CListCtrl@@QAEHHHPBD@Z ; CListCtrl::SetItemText

; 337  : 
; 338  : 	sprintf(tmp, "%d", _bGet);

  001dc	ff 75 c4	 push	 DWORD PTR __bGet$1$[ebp]
  001df	8d 45 e4	 lea	 eax, DWORD PTR _tmp$4[ebp]
  001e2	68 00 00 00 00	 push	 OFFSET ??_C@_02DPKJAMEF@?$CFd@
  001e7	50		 push	 eax
  001e8	e8 00 00 00 00	 call	 _sprintf
  001ed	83 c4 0c	 add	 esp, 12			; 0000000cH

; 339  : 	pList->SetItemText(_nIndex, 4, tmp);

  001f0	8d 45 e4	 lea	 eax, DWORD PTR _tmp$4[ebp]
  001f3	8b cf		 mov	 ecx, edi
  001f5	50		 push	 eax
  001f6	6a 04		 push	 4
  001f8	53		 push	 ebx
  001f9	e8 00 00 00 00	 call	 ?SetItemText@CListCtrl@@QAEHHHPBD@Z ; CListCtrl::SetItemText

; 340  : 
; 341  : 	return 1;

  001fe	8d 4d dc	 lea	 ecx, DWORD PTR $T2[ebp]
  00201	c6 45 fc 04	 mov	 BYTE PTR __$EHRec$[ebp+8], 4
  00205	ff 15 00 00 00
	00		 call	 DWORD PTR __imp_??1?$CStringT@DV?$StrTraitMFC_DLL@DV?$ChTraitsCRT@D@ATL@@@@@ATL@@QAE@XZ

; 321  : 		MakeShareList(pList, nID);

  0020b	ff 75 0c	 push	 DWORD PTR _nID$[ebp]
  0020e	8b 4d d4	 mov	 ecx, DWORD PTR _this$GSCopy$1$[ebp]
  00211	57		 push	 edi
  00212	e8 00 00 00 00	 call	 ?MakeShareList@CSharedDataPage@@QAEXPAVCListCtrl@@I@Z ; CSharedDataPage::MakeShareList
$LN4@LFnBtnModi:

; 323  : }

  00217	8d 4d d0	 lea	 ecx, DWORD PTR _sGet$[ebp]
  0021a	ff 15 00 00 00
	00		 call	 DWORD PTR __imp_??1?$CStringT@DV?$StrTraitMFC_DLL@DV?$ChTraitsCRT@D@ATL@@@@@ATL@@QAE@XZ
  00220	8d 4d cc	 lea	 ecx, DWORD PTR _sSet$[ebp]
  00223	ff 15 00 00 00
	00		 call	 DWORD PTR __imp_??1?$CStringT@DV?$StrTraitMFC_DLL@DV?$ChTraitsCRT@D@ATL@@@@@ATL@@QAE@XZ
  00229	8d 4d c8	 lea	 ecx, DWORD PTR _sStart$[ebp]
  0022c	ff 15 00 00 00
	00		 call	 DWORD PTR __imp_??1?$CStringT@DV?$StrTraitMFC_DLL@DV?$ChTraitsCRT@D@ATL@@@@@ATL@@QAE@XZ
  00232	8d 4d b8	 lea	 ecx, DWORD PTR _dlg$[ebp+312]
  00235	ff 15 00 00 00
	00		 call	 DWORD PTR __imp_??1?$CStringT@DV?$StrTraitMFC_DLL@DV?$ChTraitsCRT@D@ATL@@@@@ATL@@QAE@XZ
  0023b	8d 8d 30 ff ff
	ff		 lea	 ecx, DWORD PTR _dlg$[ebp+176]
  00241	e8 00 00 00 00	 call	 ??1CEdit@@UAE@XZ	; CEdit::~CEdit
  00246	8d 8d 80 fe ff
	ff		 lea	 ecx, DWORD PTR _dlg$[ebp]
  0024c	e8 00 00 00 00	 call	 ??1CDialog@@UAE@XZ	; CDialog::~CDialog
; File D:\git\src\IBK\IBK_DRFN\ProjSrc\SrcChartEx\ChartAddIn\ChartDesignPropertyAddIn\Include_Chart\Dll_Load\IMetaTable.h

; 1036 : 	{

  00251	c7 45 fc 07 00
	00 00		 mov	 DWORD PTR __$EHRec$[ebp+8], 7
; File C:\Program Files (x86)\Microsoft Visual Studio\2019\Community\VC\Tools\MSVC\14.29.30133\atlmfc\include\afxwin1.inl

; 27   : 	{ ASSERT(hInstResource != NULL); afxCurrentResourceHandle = hInstResource; }

  00258	e8 00 00 00 00	 call	 ?AfxGetModuleState@@YGPAVAFX_MODULE_STATE@@XZ ; AfxGetModuleState
  0025d	89 70 0c	 mov	 DWORD PTR [eax+12], esi
$LN46@LFnBtnModi:
; File D:\git\src\IBK\IBK_DRFN\ProjSrc\SrcChartEx\ChartAddIn\ChartDesignPropertyAddIn\ChartDesignPropertyAddIn\SharedDataPage.cpp

; 323  : }

  00260	8b 4d f4	 mov	 ecx, DWORD PTR __$EHRec$[ebp]
  00263	64 89 0d 00 00
	00 00		 mov	 DWORD PTR fs:0, ecx
  0026a	59		 pop	 ecx
  0026b	5f		 pop	 edi
  0026c	5e		 pop	 esi
  0026d	5b		 pop	 ebx
  0026e	8b 4d f0	 mov	 ecx, DWORD PTR __$ArrayPad$[ebp]
  00271	33 cd		 xor	 ecx, ebp
  00273	e8 00 00 00 00	 call	 @__security_check_cookie@4
  00278	8b e5		 mov	 esp, ebp
  0027a	5d		 pop	 ebp
  0027b	c2 08 00	 ret	 8
_TEXT	ENDS
;	COMDAT text$x
text$x	SEGMENT
__unwindfunclet$?LFnBtnModify@CSharedDataPage@@IAEXPAVCListCtrl@@I@Z$0:
  00000	8d 4d c0	 lea	 ecx, DWORD PTR ___mlrs__$[ebp]
  00003	e9 00 00 00 00	 jmp	 ??1CMultiLanguageResourceSetter@@QAE@XZ ; CMultiLanguageResourceSetter::~CMultiLanguageResourceSetter
__unwindfunclet$?LFnBtnModify@CSharedDataPage@@IAEXPAVCListCtrl@@I@Z$1:
  00008	8d 8d 80 fe ff
	ff		 lea	 ecx, DWORD PTR _dlg$[ebp]
  0000e	e9 00 00 00 00	 jmp	 ??1CDlgShareSet@@UAE@XZ
__unwindfunclet$?LFnBtnModify@CSharedDataPage@@IAEXPAVCListCtrl@@I@Z$2:
  00013	8d 4d c8	 lea	 ecx, DWORD PTR _sStart$[ebp]
  00016	ff 25 00 00 00
	00		 jmp	 DWORD PTR __imp_??1?$CStringT@DV?$StrTraitMFC_DLL@DV?$ChTraitsCRT@D@ATL@@@@@ATL@@QAE@XZ
__unwindfunclet$?LFnBtnModify@CSharedDataPage@@IAEXPAVCListCtrl@@I@Z$3:
  0001c	8d 4d cc	 lea	 ecx, DWORD PTR _sSet$[ebp]
  0001f	ff 25 00 00 00
	00		 jmp	 DWORD PTR __imp_??1?$CStringT@DV?$StrTraitMFC_DLL@DV?$ChTraitsCRT@D@ATL@@@@@ATL@@QAE@XZ
__unwindfunclet$?LFnBtnModify@CSharedDataPage@@IAEXPAVCListCtrl@@I@Z$4:
  00025	8d 4d d0	 lea	 ecx, DWORD PTR _sGet$[ebp]
  00028	ff 25 00 00 00
	00		 jmp	 DWORD PTR __imp_??1?$CStringT@DV?$StrTraitMFC_DLL@DV?$ChTraitsCRT@D@ATL@@@@@ATL@@QAE@XZ
__unwindfunclet$?LFnBtnModify@CSharedDataPage@@IAEXPAVCListCtrl@@I@Z$5:
  0002e	8d 4d dc	 lea	 ecx, DWORD PTR $T3[ebp]
  00031	ff 25 00 00 00
	00		 jmp	 DWORD PTR __imp_??1?$CStringT@DV?$StrTraitMFC_DLL@DV?$ChTraitsCRT@D@ATL@@@@@ATL@@QAE@XZ
__unwindfunclet$?LFnBtnModify@CSharedDataPage@@IAEXPAVCListCtrl@@I@Z$7:
  00037	8d 4d dc	 lea	 ecx, DWORD PTR $T2[ebp]
  0003a	ff 25 00 00 00
	00		 jmp	 DWORD PTR __imp_??1?$CStringT@DV?$StrTraitMFC_DLL@DV?$ChTraitsCRT@D@ATL@@@@@ATL@@QAE@XZ
  00040	cc		 int	 3
  00041	cc		 int	 3
  00042	cc		 int	 3
  00043	cc		 int	 3
  00044	cc		 int	 3
__ehhandler$?LFnBtnModify@CSharedDataPage@@IAEXPAVCListCtrl@@I@Z:
  00045	90		 npad	 1
  00046	90		 npad	 1
  00047	8b 54 24 08	 mov	 edx, DWORD PTR [esp+8]
  0004b	8d 42 0c	 lea	 eax, DWORD PTR [edx+12]
  0004e	8b 8a 7c fe ff
	ff		 mov	 ecx, DWORD PTR [edx-388]
  00054	33 c8		 xor	 ecx, eax
  00056	e8 00 00 00 00	 call	 @__security_check_cookie@4
  0005b	8b 4a fc	 mov	 ecx, DWORD PTR [edx-4]
  0005e	33 c8		 xor	 ecx, eax
  00060	e8 00 00 00 00	 call	 @__security_check_cookie@4
  00065	b8 00 00 00 00	 mov	 eax, OFFSET __ehfuncinfo$?LFnBtnModify@CSharedDataPage@@IAEXPAVCListCtrl@@I@Z
  0006a	e9 00 00 00 00	 jmp	 ___CxxFrameHandler3
text$x	ENDS
?LFnBtnModify@CSharedDataPage@@IAEXPAVCListCtrl@@I@Z ENDP ; CSharedDataPage::LFnBtnModify
; Function compile flags: /Ogtp
; File D:\git\src\IBK\IBK_DRFN\ProjSrc\SrcChartEx\ChartAddIn\ChartDesignPropertyAddIn\ChartDesignPropertyAddIn\SharedDataPage.cpp
; File C:\Program Files (x86)\Microsoft Visual Studio\2019\Community\VC\Tools\MSVC\14.29.30133\atlmfc\include\afxwin1.inl
; File D:\git\src\IBK\IBK_DRFN\ProjSrc\SrcChartEx\ChartAddIn\ChartDesignPropertyAddIn\Include_Chart\Dll_Load\IMetaTable.h
; File C:\Program Files (x86)\Microsoft Visual Studio\2019\Community\VC\Tools\MSVC\14.29.30133\atlmfc\include\afxwin1.inl
; File D:\git\src\IBK\IBK_DRFN\ProjSrc\SrcChartEx\ChartAddIn\ChartDesignPropertyAddIn\ChartDesignPropertyAddIn\SharedDataPage.cpp
; File C:\Program Files (x86)\Microsoft Visual Studio\2019\Community\VC\Tools\MSVC\14.29.30133\atlmfc\include\atlsimpstr.h
; File D:\git\src\IBK\IBK_DRFN\ProjSrc\SrcChartEx\ChartAddIn\ChartDesignPropertyAddIn\ChartDesignPropertyAddIn\SharedDataPage.cpp
; File D:\git\src\IBK\IBK_DRFN\ProjSrc\SrcChartEx\ChartAddIn\ChartDesignPropertyAddIn\Include_Chart\Dll_Load\IMetaTable.h
; File C:\Program Files (x86)\Microsoft Visual Studio\2019\Community\VC\Tools\MSVC\14.29.30133\atlmfc\include\afxwin1.inl
; File D:\git\src\IBK\IBK_DRFN\ProjSrc\SrcChartEx\ChartAddIn\ChartDesignPropertyAddIn\ChartDesignPropertyAddIn\SharedDataPage.cpp
;	COMDAT ?LFnBtnAdd@CSharedDataPage@@IAEXPAVCListCtrl@@I@Z
_TEXT	SEGMENT
_dlg$ = -340						; size = 320
_this$1$ = -16						; size = 4
__$EHRec$ = -12						; size = 12
___mlrs__$ = 8						; size = 4
_pList$ = 8						; size = 4
_nID$ = 12						; size = 4
?LFnBtnAdd@CSharedDataPage@@IAEXPAVCListCtrl@@I@Z PROC	; CSharedDataPage::LFnBtnAdd, COMDAT
; _this$ = ecx

; 271  : {

  00000	55		 push	 ebp
  00001	8b ec		 mov	 ebp, esp
  00003	6a ff		 push	 -1
  00005	68 00 00 00 00	 push	 __ehhandler$?LFnBtnAdd@CSharedDataPage@@IAEXPAVCListCtrl@@I@Z
  0000a	64 a1 00 00 00
	00		 mov	 eax, DWORD PTR fs:0
  00010	50		 push	 eax
  00011	81 ec 48 01 00
	00		 sub	 esp, 328		; 00000148H
  00017	53		 push	 ebx
  00018	56		 push	 esi
  00019	57		 push	 edi
  0001a	a1 00 00 00 00	 mov	 eax, DWORD PTR ___security_cookie
  0001f	33 c5		 xor	 eax, ebp
  00021	50		 push	 eax
  00022	8d 45 f4	 lea	 eax, DWORD PTR __$EHRec$[ebp]
  00025	64 a3 00 00 00
	00		 mov	 DWORD PTR fs:0, eax
  0002b	8b f1		 mov	 esi, ecx
  0002d	89 75 f0	 mov	 DWORD PTR _this$1$[ebp], esi

; 272  : 	if(!pList) return;

  00030	8b 5d 08	 mov	 ebx, DWORD PTR _pList$[ebp]
  00033	85 db		 test	 ebx, ebx
  00035	0f 84 b8 00 00
	00		 je	 $LN23@LFnBtnAdd

; 273  : 
; 274  : 	ML_SET_LANGUAGE_RES();

  0003b	e8 00 00 00 00	 call	 ?AfxGetStaticModuleState@@YGPAVAFX_MODULE_STATE@@XZ ; AfxGetStaticModuleState
  00040	b9 00 00 00 00	 mov	 ecx, OFFSET ?g_iMetaTable@@3VIMetaTable@@A ; g_iMetaTable
  00045	8b 40 08	 mov	 eax, DWORD PTR [eax+8]
  00048	50		 push	 eax
  00049	ff b6 cc 01 00
	00		 push	 DWORD PTR [esi+460]
  0004f	e8 00 00 00 00	 call	 ?LoadResourceDLL@IMetaTable@@QAEPAUHINSTANCE__@@PAUHWND__@@PAU2@@Z ; IMetaTable::LoadResourceDLL
  00054	8b f8		 mov	 edi, eax
; File C:\Program Files (x86)\Microsoft Visual Studio\2019\Community\VC\Tools\MSVC\14.29.30133\atlmfc\include\afxwin1.inl

; 25   : 		return afxCurrentResourceHandle; }

  00056	e8 00 00 00 00	 call	 ?AfxGetModuleState@@YGPAVAFX_MODULE_STATE@@XZ ; AfxGetModuleState
; File D:\git\src\IBK\IBK_DRFN\ProjSrc\SrcChartEx\ChartAddIn\ChartDesignPropertyAddIn\Include_Chart\Dll_Load\IMetaTable.h

; 1032 : 		m_hInstance = AfxGetResourceHandle();

  0005b	8b 70 0c	 mov	 esi, DWORD PTR [eax+12]
  0005e	89 75 08	 mov	 DWORD PTR ___mlrs__$[ebp], esi
; File C:\Program Files (x86)\Microsoft Visual Studio\2019\Community\VC\Tools\MSVC\14.29.30133\atlmfc\include\afxwin1.inl

; 27   : 	{ ASSERT(hInstResource != NULL); afxCurrentResourceHandle = hInstResource; }

  00061	e8 00 00 00 00	 call	 ?AfxGetModuleState@@YGPAVAFX_MODULE_STATE@@XZ ; AfxGetModuleState
  00066	89 78 0c	 mov	 DWORD PTR [eax+12], edi
; File D:\git\src\IBK\IBK_DRFN\ProjSrc\SrcChartEx\ChartAddIn\ChartDesignPropertyAddIn\ChartDesignPropertyAddIn\SharedDataPage.cpp

; 275  : 	CDlgShareSet dlg;

  00069	6a 00		 push	 0
  0006b	8d 8d ac fe ff
	ff		 lea	 ecx, DWORD PTR _dlg$[ebp]
  00071	c7 45 fc 00 00
	00 00		 mov	 DWORD PTR __$EHRec$[ebp+8], 0
  00078	e8 00 00 00 00	 call	 ??0CDlgShareSet@@QAE@PAVCWnd@@@Z ; CDlgShareSet::CDlgShareSet

; 276  : 	if(IDOK==dlg.DoModal())

  0007d	8d 8d ac fe ff
	ff		 lea	 ecx, DWORD PTR _dlg$[ebp]
  00083	c6 45 fc 01	 mov	 BYTE PTR __$EHRec$[ebp+8], 1
  00087	e8 00 00 00 00	 call	 ?DoModal@CDialog@@UAEHXZ ; CDialog::DoModal
  0008c	83 f8 01	 cmp	 eax, 1
  0008f	75 34		 jne	 SHORT $LN4@LFnBtnAdd
; File C:\Program Files (x86)\Microsoft Visual Studio\2019\Community\VC\Tools\MSVC\14.29.30133\atlmfc\include\atlsimpstr.h

; 519  : 		return( GetData()->nDataLength );

  00091	8b 45 e4	 mov	 eax, DWORD PTR _dlg$[ebp+312]
; File D:\git\src\IBK\IBK_DRFN\ProjSrc\SrcChartEx\ChartAddIn\ChartDesignPropertyAddIn\ChartDesignPropertyAddIn\SharedDataPage.cpp

; 278  : 		if(dlg.m_szSharedName.GetLength()>0)

  00094	83 78 f4 00	 cmp	 DWORD PTR [eax-12], 0
  00098	7e 2b		 jle	 SHORT $LN4@LFnBtnAdd

; 279  : 		{
; 280  : 			AddData(pList, dlg.m_szSharedName, dlg.m_bStart, dlg.m_bSet, dlg.m_bGet);

  0009a	ff 75 dc	 push	 DWORD PTR _dlg$[ebp+304]
  0009d	8d 45 e4	 lea	 eax, DWORD PTR _dlg$[ebp+312]
  000a0	ff 75 e0	 push	 DWORD PTR _dlg$[ebp+308]
  000a3	ff 75 e8	 push	 DWORD PTR _dlg$[ebp+316]
  000a6	51		 push	 ecx
  000a7	8b cc		 mov	 ecx, esp
  000a9	50		 push	 eax
  000aa	ff 15 00 00 00
	00		 call	 DWORD PTR __imp_??0?$CStringT@DV?$StrTraitMFC_DLL@DV?$ChTraitsCRT@D@ATL@@@@@ATL@@QAE@ABV01@@Z
  000b0	8b 4d f0	 mov	 ecx, DWORD PTR _this$1$[ebp]
  000b3	53		 push	 ebx
  000b4	e8 00 00 00 00	 call	 ?AddData@CSharedDataPage@@QAEHPAVCListCtrl@@V?$CStringT@DV?$StrTraitMFC_DLL@DV?$ChTraitsCRT@D@ATL@@@@@ATL@@HHH@Z ; CSharedDataPage::AddData

; 281  : 			MakeShareList(pList, nID);

  000b9	ff 75 0c	 push	 DWORD PTR _nID$[ebp]
  000bc	8b 4d f0	 mov	 ecx, DWORD PTR _this$1$[ebp]
  000bf	53		 push	 ebx
  000c0	e8 00 00 00 00	 call	 ?MakeShareList@CSharedDataPage@@QAEXPAVCListCtrl@@I@Z ; CSharedDataPage::MakeShareList
$LN4@LFnBtnAdd:
  000c5	8d 4d e4	 lea	 ecx, DWORD PTR _dlg$[ebp+312]
  000c8	ff 15 00 00 00
	00		 call	 DWORD PTR __imp_??1?$CStringT@DV?$StrTraitMFC_DLL@DV?$ChTraitsCRT@D@ATL@@@@@ATL@@QAE@XZ
  000ce	8d 8d 5c ff ff
	ff		 lea	 ecx, DWORD PTR _dlg$[ebp+176]
  000d4	e8 00 00 00 00	 call	 ??1CEdit@@UAE@XZ	; CEdit::~CEdit
  000d9	8d 8d ac fe ff
	ff		 lea	 ecx, DWORD PTR _dlg$[ebp]
  000df	e8 00 00 00 00	 call	 ??1CDialog@@UAE@XZ	; CDialog::~CDialog
; File D:\git\src\IBK\IBK_DRFN\ProjSrc\SrcChartEx\ChartAddIn\ChartDesignPropertyAddIn\Include_Chart\Dll_Load\IMetaTable.h

; 1036 : 	{

  000e4	c7 45 fc 02 00
	00 00		 mov	 DWORD PTR __$EHRec$[ebp+8], 2
; File C:\Program Files (x86)\Microsoft Visual Studio\2019\Community\VC\Tools\MSVC\14.29.30133\atlmfc\include\afxwin1.inl

; 27   : 	{ ASSERT(hInstResource != NULL); afxCurrentResourceHandle = hInstResource; }

  000eb	e8 00 00 00 00	 call	 ?AfxGetModuleState@@YGPAVAFX_MODULE_STATE@@XZ ; AfxGetModuleState
  000f0	89 70 0c	 mov	 DWORD PTR [eax+12], esi
$LN23@LFnBtnAdd:
; File D:\git\src\IBK\IBK_DRFN\ProjSrc\SrcChartEx\ChartAddIn\ChartDesignPropertyAddIn\ChartDesignPropertyAddIn\SharedDataPage.cpp

; 284  : }

  000f3	8b 4d f4	 mov	 ecx, DWORD PTR __$EHRec$[ebp]
  000f6	64 89 0d 00 00
	00 00		 mov	 DWORD PTR fs:0, ecx
  000fd	59		 pop	 ecx
  000fe	5f		 pop	 edi
  000ff	5e		 pop	 esi
  00100	5b		 pop	 ebx
  00101	8b e5		 mov	 esp, ebp
  00103	5d		 pop	 ebp
  00104	c2 08 00	 ret	 8
_TEXT	ENDS
;	COMDAT text$x
text$x	SEGMENT
__unwindfunclet$?LFnBtnAdd@CSharedDataPage@@IAEXPAVCListCtrl@@I@Z$0:
  00000	8d 4d 08	 lea	 ecx, DWORD PTR ___mlrs__$[ebp]
  00003	e9 00 00 00 00	 jmp	 ??1CMultiLanguageResourceSetter@@QAE@XZ ; CMultiLanguageResourceSetter::~CMultiLanguageResourceSetter
__unwindfunclet$?LFnBtnAdd@CSharedDataPage@@IAEXPAVCListCtrl@@I@Z$1:
  00008	8d 8d ac fe ff
	ff		 lea	 ecx, DWORD PTR _dlg$[ebp]
  0000e	e9 00 00 00 00	 jmp	 ??1CDlgShareSet@@UAE@XZ
  00013	cc		 int	 3
  00014	cc		 int	 3
  00015	cc		 int	 3
  00016	cc		 int	 3
  00017	cc		 int	 3
__ehhandler$?LFnBtnAdd@CSharedDataPage@@IAEXPAVCListCtrl@@I@Z:
  00018	90		 npad	 1
  00019	90		 npad	 1
  0001a	8b 54 24 08	 mov	 edx, DWORD PTR [esp+8]
  0001e	8d 42 0c	 lea	 eax, DWORD PTR [edx+12]
  00021	8b 8a a8 fe ff
	ff		 mov	 ecx, DWORD PTR [edx-344]
  00027	33 c8		 xor	 ecx, eax
  00029	e8 00 00 00 00	 call	 @__security_check_cookie@4
  0002e	b8 00 00 00 00	 mov	 eax, OFFSET __ehfuncinfo$?LFnBtnAdd@CSharedDataPage@@IAEXPAVCListCtrl@@I@Z
  00033	e9 00 00 00 00	 jmp	 ___CxxFrameHandler3
text$x	ENDS
?LFnBtnAdd@CSharedDataPage@@IAEXPAVCListCtrl@@I@Z ENDP	; CSharedDataPage::LFnBtnAdd
; Function compile flags: /Ogtp
; File D:\git\src\IBK\IBK_DRFN\ProjSrc\SrcChartEx\ChartAddIn\ChartDesignPropertyAddIn\ChartDesignPropertyAddIn\SharedDataPage.cpp
; File C:\Program Files (x86)\Microsoft Visual Studio\2019\Community\VC\Tools\MSVC\14.29.30133\atlmfc\include\afxcmn.inl
; File D:\git\src\IBK\IBK_DRFN\ProjSrc\SrcChartEx\ChartAddIn\ChartDesignPropertyAddIn\ChartDesignPropertyAddIn\SharedDataPage.cpp
; File C:\Program Files (x86)\Microsoft Visual Studio\2019\Community\VC\Tools\MSVC\14.29.30133\atlmfc\include\afxcmn.inl
; File D:\git\src\IBK\IBK_DRFN\ProjSrc\SrcChartEx\ChartAddIn\ChartDesignPropertyAddIn\ChartDesignPropertyAddIn\SharedDataPage.cpp
; File C:\Program Files (x86)\Microsoft Visual Studio\2019\Community\VC\Tools\MSVC\14.29.30133\atlmfc\include\afxcmn.inl
; File D:\git\src\IBK\IBK_DRFN\ProjSrc\SrcChartEx\ChartAddIn\ChartDesignPropertyAddIn\ChartDesignPropertyAddIn\SharedDataPage.cpp
;	COMDAT ?LFnBtnDel@CSharedDataPage@@IAEXPAVCListCtrl@@I@Z
_TEXT	SEGMENT
_this$GSCopy$1$ = -24					; size = 4
_nCount$1$ = -20					; size = 4
_tmp$1 = -16						; size = 10
__$ArrayPad$ = -4					; size = 4
_pList$ = 8						; size = 4
_nID$ = 12						; size = 4
?LFnBtnDel@CSharedDataPage@@IAEXPAVCListCtrl@@I@Z PROC	; CSharedDataPage::LFnBtnDel, COMDAT
; _this$ = ecx

; 286  : {

  00000	55		 push	 ebp
  00001	8b ec		 mov	 ebp, esp
  00003	83 ec 18	 sub	 esp, 24			; 00000018H
  00006	a1 00 00 00 00	 mov	 eax, DWORD PTR ___security_cookie
  0000b	33 c5		 xor	 eax, ebp
  0000d	89 45 fc	 mov	 DWORD PTR __$ArrayPad$[ebp], eax
  00010	53		 push	 ebx
  00011	8b 5d 08	 mov	 ebx, DWORD PTR _pList$[ebp]
  00014	89 4d e8	 mov	 DWORD PTR _this$GSCopy$1$[ebp], ecx

; 287  : 	if(!pList) return;

  00017	85 db		 test	 ebx, ebx
  00019	0f 84 8b 00 00
	00		 je	 $LN3@LFnBtnDel
; File C:\Program Files (x86)\Microsoft Visual Studio\2019\Community\VC\Tools\MSVC\14.29.30133\atlmfc\include\afxcmn.inl

; 177  : 	{ ASSERT(::IsWindow(m_hWnd)); return (int) ::SendMessage(m_hWnd, LVM_GETNEXTITEM, nItem, MAKELPARAM(nFlags, 0)); }

  0001f	56		 push	 esi
  00020	8b 35 00 00 00
	00		 mov	 esi, DWORD PTR __imp__SendMessageA@16
  00026	6a 02		 push	 2
  00028	6a ff		 push	 -1
  0002a	68 0c 10 00 00	 push	 4108			; 0000100cH
  0002f	ff 73 20	 push	 DWORD PTR [ebx+32]
  00032	ff d6		 call	 esi

; 179  : 	{ ASSERT(::IsWindow(m_hWnd)); return (POSITION)(DWORD_PTR)(1+GetNextItem(-1, LVIS_SELECTED)); }

  00034	83 c0 01	 add	 eax, 1
; File D:\git\src\IBK\IBK_DRFN\ProjSrc\SrcChartEx\ChartAddIn\ChartDesignPropertyAddIn\ChartDesignPropertyAddIn\SharedDataPage.cpp

; 180  : 	if(pos) 

  00037	74 70		 je	 SHORT $LN29@LFnBtnDel
; File C:\Program Files (x86)\Microsoft Visual Studio\2019\Community\VC\Tools\MSVC\14.29.30133\atlmfc\include\afxcmn.inl

; 181  : 	{ ASSERT(::IsWindow(m_hWnd)); DWORD_PTR nOldPos = (DWORD_PTR)pos-1; pos = (POSITION)(DWORD_PTR)(1+GetNextItem((UINT)nOldPos, LVIS_SELECTED)); return (UINT)nOldPos; }

  00039	57		 push	 edi

; 177  : 	{ ASSERT(::IsWindow(m_hWnd)); return (int) ::SendMessage(m_hWnd, LVM_GETNEXTITEM, nItem, MAKELPARAM(nFlags, 0)); }

  0003a	6a 02		 push	 2

; 181  : 	{ ASSERT(::IsWindow(m_hWnd)); DWORD_PTR nOldPos = (DWORD_PTR)pos-1; pos = (POSITION)(DWORD_PTR)(1+GetNextItem((UINT)nOldPos, LVIS_SELECTED)); return (UINT)nOldPos; }

  0003c	8d 78 ff	 lea	 edi, DWORD PTR [eax-1]

; 177  : 	{ ASSERT(::IsWindow(m_hWnd)); return (int) ::SendMessage(m_hWnd, LVM_GETNEXTITEM, nItem, MAKELPARAM(nFlags, 0)); }

  0003f	57		 push	 edi
  00040	68 0c 10 00 00	 push	 4108			; 0000100cH
  00045	ff 73 20	 push	 DWORD PTR [ebx+32]
  00048	ff d6		 call	 esi
; File D:\git\src\IBK\IBK_DRFN\ProjSrc\SrcChartEx\ChartAddIn\ChartDesignPropertyAddIn\ChartDesignPropertyAddIn\SharedDataPage.cpp

; 290  : 	if(nItem>=0)

  0004a	85 ff		 test	 edi, edi
  0004c	78 5a		 js	 SHORT $LN30@LFnBtnDel
; File C:\Program Files (x86)\Microsoft Visual Studio\2019\Community\VC\Tools\MSVC\14.29.30133\atlmfc\include\afxcmn.inl

; 169  : 	{ ASSERT(::IsWindow(m_hWnd)); return (BOOL) ::SendMessage(m_hWnd, LVM_DELETEITEM, nItem, 0L); }

  0004e	6a 00		 push	 0
  00050	57		 push	 edi
  00051	68 08 10 00 00	 push	 4104			; 00001008H
  00056	ff 73 20	 push	 DWORD PTR [ebx+32]
  00059	ff d6		 call	 esi

; 155  : 	{ ASSERT(::IsWindow(m_hWnd)); return (int) ::SendMessage(m_hWnd, LVM_GETITEMCOUNT, 0, 0L); }

  0005b	6a 00		 push	 0
  0005d	6a 00		 push	 0
  0005f	68 04 10 00 00	 push	 4100			; 00001004H
  00064	ff 73 20	 push	 DWORD PTR [ebx+32]
  00067	ff d6		 call	 esi

; 169  : 	{ ASSERT(::IsWindow(m_hWnd)); return (BOOL) ::SendMessage(m_hWnd, LVM_DELETEITEM, nItem, 0L); }

  00069	33 ff		 xor	 edi, edi
; File D:\git\src\IBK\IBK_DRFN\ProjSrc\SrcChartEx\ChartAddIn\ChartDesignPropertyAddIn\ChartDesignPropertyAddIn\SharedDataPage.cpp

; 166  : 	int nCount = pList->GetItemCount();

  0006b	89 45 ec	 mov	 DWORD PTR _nCount$1$[ebp], eax

; 167  : 	char tmp[10];
; 168  : 	for(int i=0; i<nCount; i++)

  0006e	85 c0		 test	 eax, eax
  00070	7e 2a		 jle	 SHORT $LN20@LFnBtnDel
$LL21@LFnBtnDel:

; 169  : 	{
; 170  : 		sprintf(tmp, "%d", i+1); 

  00072	8d 77 01	 lea	 esi, DWORD PTR [edi+1]
  00075	56		 push	 esi
  00076	8d 45 f0	 lea	 eax, DWORD PTR _tmp$1[ebp]
  00079	68 00 00 00 00	 push	 OFFSET ??_C@_02DPKJAMEF@?$CFd@
  0007e	50		 push	 eax
  0007f	e8 00 00 00 00	 call	 _sprintf
  00084	83 c4 0c	 add	 esp, 12			; 0000000cH

; 171  : 		pList->SetItemText(i, 0, tmp);

  00087	8d 45 f0	 lea	 eax, DWORD PTR _tmp$1[ebp]
  0008a	8b cb		 mov	 ecx, ebx
  0008c	50		 push	 eax
  0008d	6a 00		 push	 0
  0008f	57		 push	 edi
  00090	e8 00 00 00 00	 call	 ?SetItemText@CListCtrl@@QAEHHHPBD@Z ; CListCtrl::SetItemText
  00095	8b fe		 mov	 edi, esi
  00097	3b 7d ec	 cmp	 edi, DWORD PTR _nCount$1$[ebp]
  0009a	7c d6		 jl	 SHORT $LL21@LFnBtnDel
$LN20@LFnBtnDel:

; 291  : 	{
; 292  : 		pList->DeleteItem(nItem);
; 293  : 		Refresh(pList);
; 294  : 		MakeShareList(pList, nID);

  0009c	ff 75 0c	 push	 DWORD PTR _nID$[ebp]
  0009f	8b 4d e8	 mov	 ecx, DWORD PTR _this$GSCopy$1$[ebp]
  000a2	53		 push	 ebx
  000a3	e8 00 00 00 00	 call	 ?MakeShareList@CSharedDataPage@@QAEXPAVCListCtrl@@I@Z ; CSharedDataPage::MakeShareList
$LN30@LFnBtnDel:
  000a8	5f		 pop	 edi
$LN29@LFnBtnDel:
  000a9	5e		 pop	 esi
$LN3@LFnBtnDel:

; 295  : 	}	
; 296  : }

  000aa	8b 4d fc	 mov	 ecx, DWORD PTR __$ArrayPad$[ebp]
  000ad	33 cd		 xor	 ecx, ebp
  000af	5b		 pop	 ebx
  000b0	e8 00 00 00 00	 call	 @__security_check_cookie@4
  000b5	8b e5		 mov	 esp, ebp
  000b7	5d		 pop	 ebp
  000b8	c2 08 00	 ret	 8
?LFnBtnDel@CSharedDataPage@@IAEXPAVCListCtrl@@I@Z ENDP	; CSharedDataPage::LFnBtnDel
_TEXT	ENDS
; Function compile flags: /Ogtp
; File D:\git\src\IBK\IBK_DRFN\ProjSrc\SrcChartEx\ChartAddIn\ChartDesignPropertyAddIn\ChartDesignPropertyAddIn\SharedDataPage.cpp
;	COMDAT ?GetMessageMap@CSharedDataPage@@MBEPBUAFX_MSGMAP@@XZ
_TEXT	SEGMENT
?GetMessageMap@CSharedDataPage@@MBEPBUAFX_MSGMAP@@XZ PROC ; CSharedDataPage::GetMessageMap, COMDAT
; _this$ = ecx

; 55   : BEGIN_MESSAGE_MAP(CSharedDataPage, CPropertyPage)

  00000	b8 00 00 00 00	 mov	 eax, OFFSET ?messageMap@?1??GetThisMessageMap@CSharedDataPage@@KGPBUAFX_MSGMAP@@XZ@4U3@B
  00005	c3		 ret	 0
?GetMessageMap@CSharedDataPage@@MBEPBUAFX_MSGMAP@@XZ ENDP ; CSharedDataPage::GetMessageMap
_TEXT	ENDS
; Function compile flags: /Ogtp
; File D:\git\src\IBK\IBK_DRFN\ProjSrc\SrcChartEx\ChartAddIn\ChartDesignPropertyAddIn\ChartDesignPropertyAddIn\SharedDataPage.cpp
;	COMDAT ?GetThisMessageMap@CSharedDataPage@@KGPBUAFX_MSGMAP@@XZ
_TEXT	SEGMENT
?GetThisMessageMap@CSharedDataPage@@KGPBUAFX_MSGMAP@@XZ PROC ; CSharedDataPage::GetThisMessageMap, COMDAT

; 56   : 	//{{AFX_MSG_MAP(CSharedDataPage)
; 57   : 	ON_BN_CLICKED(IDC_BTNADD, OnBtnadd)
; 58   : 	ON_BN_CLICKED(IDC_BTNDEL, OnBtndel)
; 59   : 	ON_BN_CLICKED(IDC_BTNMODIFY, OnBtnmodify)
; 60   : 	ON_BN_CLICKED(IDC_GBTNADD, OnGBtnAdd)
; 61   : 	ON_BN_CLICKED(IDC_GBTNDEL, OnGBtnDel)
; 62   : 	ON_BN_CLICKED(IDC_GBTNMODIFY, OnGBtnModify)
; 63   : 	//}}AFX_MSG_MAP
; 64   : END_MESSAGE_MAP()

  00000	b8 00 00 00 00	 mov	 eax, OFFSET ?messageMap@?1??GetThisMessageMap@CSharedDataPage@@KGPBUAFX_MSGMAP@@XZ@4U3@B
  00005	c3		 ret	 0
?GetThisMessageMap@CSharedDataPage@@KGPBUAFX_MSGMAP@@XZ ENDP ; CSharedDataPage::GetThisMessageMap
_TEXT	ENDS
; Function compile flags: /Ogtp
; File D:\git\src\IBK\IBK_DRFN\ProjSrc\SrcChartEx\ChartAddIn\ChartDesignPropertyAddIn\ChartDesignPropertyAddIn\SharedDataPage.cpp
;	COMDAT ?OnGBtnModify@CSharedDataPage@@IAEXXZ
_TEXT	SEGMENT
?OnGBtnModify@CSharedDataPage@@IAEXXZ PROC		; CSharedDataPage::OnGBtnModify, COMDAT
; _this$ = ecx

; 252  : 	// TODO: Add your control notification handler code here
; 253  : 	LFnBtnModify(&m_ctrlGShareList,IDC_GSHAREDEDIT);

  00000	68 07 01 00 00	 push	 263			; 00000107H
  00005	8d 81 c0 00 00
	00		 lea	 eax, DWORD PTR [ecx+192]
  0000b	50		 push	 eax
  0000c	e8 00 00 00 00	 call	 ?LFnBtnModify@CSharedDataPage@@IAEXPAVCListCtrl@@I@Z ; CSharedDataPage::LFnBtnModify

; 254  : }

  00011	c3		 ret	 0
?OnGBtnModify@CSharedDataPage@@IAEXXZ ENDP		; CSharedDataPage::OnGBtnModify
_TEXT	ENDS
; Function compile flags: /Ogtp
; File D:\git\src\IBK\IBK_DRFN\ProjSrc\SrcChartEx\ChartAddIn\ChartDesignPropertyAddIn\ChartDesignPropertyAddIn\SharedDataPage.cpp
;	COMDAT ?OnGBtnDel@CSharedDataPage@@IAEXXZ
_TEXT	SEGMENT
?OnGBtnDel@CSharedDataPage@@IAEXXZ PROC			; CSharedDataPage::OnGBtnDel, COMDAT
; _this$ = ecx

; 247  : 	// TODO: Add your control notification handler code here
; 248  : 	LFnBtnDel(&m_ctrlGShareList,IDC_GSHAREDEDIT);

  00000	68 07 01 00 00	 push	 263			; 00000107H
  00005	8d 81 c0 00 00
	00		 lea	 eax, DWORD PTR [ecx+192]
  0000b	50		 push	 eax
  0000c	e8 00 00 00 00	 call	 ?LFnBtnDel@CSharedDataPage@@IAEXPAVCListCtrl@@I@Z ; CSharedDataPage::LFnBtnDel

; 249  : }

  00011	c3		 ret	 0
?OnGBtnDel@CSharedDataPage@@IAEXXZ ENDP			; CSharedDataPage::OnGBtnDel
_TEXT	ENDS
; Function compile flags: /Ogtp
; File D:\git\src\IBK\IBK_DRFN\ProjSrc\SrcChartEx\ChartAddIn\ChartDesignPropertyAddIn\ChartDesignPropertyAddIn\SharedDataPage.cpp
;	COMDAT ?OnGBtnAdd@CSharedDataPage@@IAEXXZ
_TEXT	SEGMENT
?OnGBtnAdd@CSharedDataPage@@IAEXXZ PROC			; CSharedDataPage::OnGBtnAdd, COMDAT
; _this$ = ecx

; 242  : 	// TODO: Add your control notification handler code here
; 243  : 	LFnBtnAdd(&m_ctrlGShareList,IDC_GSHAREDEDIT);

  00000	68 07 01 00 00	 push	 263			; 00000107H
  00005	8d 81 c0 00 00
	00		 lea	 eax, DWORD PTR [ecx+192]
  0000b	50		 push	 eax
  0000c	e8 00 00 00 00	 call	 ?LFnBtnAdd@CSharedDataPage@@IAEXPAVCListCtrl@@I@Z ; CSharedDataPage::LFnBtnAdd

; 244  : }

  00011	c3		 ret	 0
?OnGBtnAdd@CSharedDataPage@@IAEXXZ ENDP			; CSharedDataPage::OnGBtnAdd
_TEXT	ENDS
; Function compile flags: /Ogtp
; File D:\git\src\IBK\IBK_DRFN\ProjSrc\SrcChartEx\ChartAddIn\ChartDesignPropertyAddIn\ChartDesignPropertyAddIn\SharedDataPage.cpp
;	COMDAT ?OnInitDialog@CSharedDataPage@@MAEHXZ
_TEXT	SEGMENT
?OnInitDialog@CSharedDataPage@@MAEHXZ PROC		; CSharedDataPage::OnInitDialog, COMDAT
; _this$ = ecx

; 70   : {

  00000	56		 push	 esi
  00001	8b f1		 mov	 esi, ecx

; 71   : 	CPropertyPage::OnInitDialog();

  00003	e8 00 00 00 00	 call	 ?OnInitDialog@CDialog@@UAEHXZ ; CDialog::OnInitDialog

; 72   : 	
; 73   : //m_ctrlLShareList Data..
; 74   : 	InitList(&m_ctrlLShareList, m_sLocalSharedList);	//Global  List..

  00008	ff b6 c0 01 00
	00		 push	 DWORD PTR [esi+448]
  0000e	8d 86 40 01 00
	00		 lea	 eax, DWORD PTR [esi+320]
  00014	8b ce		 mov	 ecx, esi
  00016	50		 push	 eax
  00017	e8 00 00 00 00	 call	 ?InitList@CSharedDataPage@@QAEXPAVCListCtrl@@PBD@Z ; CSharedDataPage::InitList

; 75   : 
; 76   : 	// (2004.06.08, ) Global  Property .
; 77   : 	InitList( &m_ctrlGShareList, m_sGlobalSharedList);	//Global  List..

  0001c	ff b6 c4 01 00
	00		 push	 DWORD PTR [esi+452]
  00022	8d 86 c0 00 00
	00		 lea	 eax, DWORD PTR [esi+192]
  00028	8b ce		 mov	 ecx, esi
  0002a	50		 push	 eax
  0002b	e8 00 00 00 00	 call	 ?InitList@CSharedDataPage@@QAEXPAVCListCtrl@@PBD@Z ; CSharedDataPage::InitList

; 78   : 
; 79   : 	return TRUE;  // return TRUE unless you set the focus to a control

  00030	b8 01 00 00 00	 mov	 eax, 1
  00035	5e		 pop	 esi

; 80   : 	              // EXCEPTION: OCX Property Pages should return FALSE
; 81   : }

  00036	c3		 ret	 0
?OnInitDialog@CSharedDataPage@@MAEHXZ ENDP		; CSharedDataPage::OnInitDialog
_TEXT	ENDS
; Function compile flags: /Ogtp
; File D:\git\src\IBK\IBK_DRFN\ProjSrc\SrcChartEx\ChartAddIn\ChartDesignPropertyAddIn\ChartDesignPropertyAddIn\SharedDataPage.cpp
;	COMDAT ?OnBtnmodify@CSharedDataPage@@IAEXXZ
_TEXT	SEGMENT
?OnBtnmodify@CSharedDataPage@@IAEXXZ PROC		; CSharedDataPage::OnBtnmodify, COMDAT
; _this$ = ecx

; 268  : 	LFnBtnModify(&m_ctrlLShareList,IDC_LSHAREDEDIT);

  00000	68 02 01 00 00	 push	 258			; 00000102H
  00005	8d 81 40 01 00
	00		 lea	 eax, DWORD PTR [ecx+320]
  0000b	50		 push	 eax
  0000c	e8 00 00 00 00	 call	 ?LFnBtnModify@CSharedDataPage@@IAEXPAVCListCtrl@@I@Z ; CSharedDataPage::LFnBtnModify

; 269  : }

  00011	c3		 ret	 0
?OnBtnmodify@CSharedDataPage@@IAEXXZ ENDP		; CSharedDataPage::OnBtnmodify
_TEXT	ENDS
; Function compile flags: /Ogtp
; File D:\git\src\IBK\IBK_DRFN\ProjSrc\SrcChartEx\ChartAddIn\ChartDesignPropertyAddIn\ChartDesignPropertyAddIn\SharedDataPage.cpp
;	COMDAT ?OnBtndel@CSharedDataPage@@IAEXXZ
_TEXT	SEGMENT
?OnBtndel@CSharedDataPage@@IAEXXZ PROC			; CSharedDataPage::OnBtndel, COMDAT
; _this$ = ecx

; 264  : 	LFnBtnDel(&m_ctrlLShareList,IDC_LSHAREDEDIT);

  00000	68 02 01 00 00	 push	 258			; 00000102H
  00005	8d 81 40 01 00
	00		 lea	 eax, DWORD PTR [ecx+320]
  0000b	50		 push	 eax
  0000c	e8 00 00 00 00	 call	 ?LFnBtnDel@CSharedDataPage@@IAEXPAVCListCtrl@@I@Z ; CSharedDataPage::LFnBtnDel

; 265  : }

  00011	c3		 ret	 0
?OnBtndel@CSharedDataPage@@IAEXXZ ENDP			; CSharedDataPage::OnBtndel
_TEXT	ENDS
; Function compile flags: /Ogtp
; File D:\git\src\IBK\IBK_DRFN\ProjSrc\SrcChartEx\ChartAddIn\ChartDesignPropertyAddIn\ChartDesignPropertyAddIn\SharedDataPage.cpp
;	COMDAT ?OnBtnadd@CSharedDataPage@@IAEXXZ
_TEXT	SEGMENT
?OnBtnadd@CSharedDataPage@@IAEXXZ PROC			; CSharedDataPage::OnBtnadd, COMDAT
; _this$ = ecx

; 260  : 	LFnBtnAdd(&m_ctrlLShareList,IDC_LSHAREDEDIT);

  00000	68 02 01 00 00	 push	 258			; 00000102H
  00005	8d 81 40 01 00
	00		 lea	 eax, DWORD PTR [ecx+320]
  0000b	50		 push	 eax
  0000c	e8 00 00 00 00	 call	 ?LFnBtnAdd@CSharedDataPage@@IAEXPAVCListCtrl@@I@Z ; CSharedDataPage::LFnBtnAdd

; 261  : }

  00011	c3		 ret	 0
?OnBtnadd@CSharedDataPage@@IAEXXZ ENDP			; CSharedDataPage::OnBtnadd
_TEXT	ENDS
; Function compile flags: /Ogtp
; File D:\git\src\IBK\IBK_DRFN\ProjSrc\SrcChartEx\ChartAddIn\ChartDesignPropertyAddIn\ChartDesignPropertyAddIn\SharedDataPage.cpp
;	COMDAT ?DoDataExchange@CSharedDataPage@@MAEXPAVCDataExchange@@@Z
_TEXT	SEGMENT
_pDX$ = 8						; size = 4
?DoDataExchange@CSharedDataPage@@MAEXPAVCDataExchange@@@Z PROC ; CSharedDataPage::DoDataExchange, COMDAT
; _this$ = ecx

; 44   : {

  00000	55		 push	 ebp
  00001	8b ec		 mov	 ebp, esp
  00003	56		 push	 esi

; 45   : 	CPropertyPage::DoDataExchange(pDX);
; 46   : 	//{{AFX_DATA_MAP(CSharedDataPage)
; 47   : 	DDX_Control(pDX, IDC_GSHARELIST, m_ctrlGShareList);

  00004	8b 75 08	 mov	 esi, DWORD PTR _pDX$[ebp]
  00007	57		 push	 edi
  00008	8b f9		 mov	 edi, ecx
  0000a	8d 87 c0 00 00
	00		 lea	 eax, DWORD PTR [edi+192]
  00010	50		 push	 eax
  00011	68 06 01 00 00	 push	 262			; 00000106H
  00016	56		 push	 esi
  00017	e8 00 00 00 00	 call	 ?DDX_Control@@YGXPAVCDataExchange@@HAAVCWnd@@@Z ; DDX_Control

; 48   : 	DDX_Control(pDX, IDC_LSHARELIST, m_ctrlLShareList);

  0001c	8d 87 40 01 00
	00		 lea	 eax, DWORD PTR [edi+320]
  00022	50		 push	 eax
  00023	68 01 01 00 00	 push	 257			; 00000101H
  00028	56		 push	 esi
  00029	e8 00 00 00 00	 call	 ?DDX_Control@@YGXPAVCDataExchange@@HAAVCWnd@@@Z ; DDX_Control

; 49   : 	DDX_Text(pDX, IDC_LSHAREDEDIT, m_sLocalSharedList);

  0002e	8d 87 c0 01 00
	00		 lea	 eax, DWORD PTR [edi+448]
  00034	50		 push	 eax
  00035	68 02 01 00 00	 push	 258			; 00000102H
  0003a	56		 push	 esi
  0003b	e8 00 00 00 00	 call	 ?DDX_Text@@YGXPAVCDataExchange@@HAAV?$CStringT@DV?$StrTraitMFC_DLL@DV?$ChTraitsCRT@D@ATL@@@@@ATL@@@Z ; DDX_Text

; 50   : 	DDX_Text(pDX, IDC_GSHAREDEDIT, m_sGlobalSharedList);

  00040	8d 87 c4 01 00
	00		 lea	 eax, DWORD PTR [edi+452]
  00046	50		 push	 eax
  00047	68 07 01 00 00	 push	 263			; 00000107H
  0004c	56		 push	 esi
  0004d	e8 00 00 00 00	 call	 ?DDX_Text@@YGXPAVCDataExchange@@HAAV?$CStringT@DV?$StrTraitMFC_DLL@DV?$ChTraitsCRT@D@ATL@@@@@ATL@@@Z ; DDX_Text
  00052	5f		 pop	 edi
  00053	5e		 pop	 esi

; 51   : 	//}}AFX_DATA_MAP
; 52   : }

  00054	5d		 pop	 ebp
  00055	c2 04 00	 ret	 4
?DoDataExchange@CSharedDataPage@@MAEXPAVCDataExchange@@@Z ENDP ; CSharedDataPage::DoDataExchange
_TEXT	ENDS
; Function compile flags: /Ogtp
; File D:\git\src\IBK\IBK_DRFN\ProjSrc\SrcChartEx\ChartAddIn\ChartDesignPropertyAddIn\ChartDesignPropertyAddIn\SharedDataPage.cpp
;	COMDAT ?OnApply@CSharedDataPage@@UAEHXZ
_TEXT	SEGMENT
_strData$ = -16						; size = 4
__$EHRec$ = -12						; size = 12
?OnApply@CSharedDataPage@@UAEHXZ PROC			; CSharedDataPage::OnApply, COMDAT
; _this$ = ecx

; 357  : {

  00000	55		 push	 ebp
  00001	8b ec		 mov	 ebp, esp
  00003	6a ff		 push	 -1
  00005	68 00 00 00 00	 push	 __ehhandler$?OnApply@CSharedDataPage@@UAEHXZ
  0000a	64 a1 00 00 00
	00		 mov	 eax, DWORD PTR fs:0
  00010	50		 push	 eax
  00011	51		 push	 ecx
  00012	56		 push	 esi
  00013	a1 00 00 00 00	 mov	 eax, DWORD PTR ___security_cookie
  00018	33 c5		 xor	 eax, ebp
  0001a	50		 push	 eax
  0001b	8d 45 f4	 lea	 eax, DWORD PTR __$EHRec$[ebp]
  0001e	64 a3 00 00 00
	00		 mov	 DWORD PTR fs:0, eax
  00024	8b f1		 mov	 esi, ecx

; 358  : 	// (2006/7/5 - Seung-Won, Bae) Use IPropertyMap
; 359  : 	CHART_ADDTOSTRLIST_START( TRUE)

  00026	8d 4d f0	 lea	 ecx, DWORD PTR _strData$[ebp]
  00029	ff 15 00 00 00
	00		 call	 DWORD PTR __imp_??0?$CStringT@DV?$StrTraitMFC_DLL@DV?$ChTraitsCRT@D@ATL@@@@@ATL@@QAE@XZ

; 360  : 		CHART_ADDTOSTRLIST_STRING(	m_pIPropertyMap, g_anPropertyShortKey[	STRLOCALSHAREDLIST	], m_sLocalSharedList,	_DPV_STRLOCALSHAREDLIST		);

  0002f	8b 8e c8 01 00
	00		 mov	 ecx, DWORD PTR [esi+456]
  00035	ff b6 c0 01 00
	00		 push	 DWORD PTR [esi+448]
  0003b	c7 45 fc 00 00
	00 00		 mov	 DWORD PTR __$EHRec$[ebp+8], 0
  00042	ff 35 a8 00 00
	00		 push	 DWORD PTR ?g_anPropertyShortKey@@3PAPADA+168
  00048	8b 01		 mov	 eax, DWORD PTR [ecx]
  0004a	ff 50 14	 call	 DWORD PTR [eax+20]

; 361  : 		CHART_ADDTOSTRLIST_STRING(	m_pIPropertyMap, g_anPropertyShortKey[	STRGLOBALSHAREDLIST	], m_sGlobalSharedList,	_DPV_STRGLOBALSHAREDLIST	);

  0004d	8b 8e c8 01 00
	00		 mov	 ecx, DWORD PTR [esi+456]
  00053	ff b6 c4 01 00
	00		 push	 DWORD PTR [esi+452]
  00059	ff 35 08 01 00
	00		 push	 DWORD PTR ?g_anPropertyShortKey@@3PAPADA+264
  0005f	8b 01		 mov	 eax, DWORD PTR [ecx]
  00061	ff 50 14	 call	 DWORD PTR [eax+20]

; 362  : 	CHART_ADDTOSTRLIST_END
; 363  : 
; 364  : 	return CPropertyPage::OnApply();

  00064	8b ce		 mov	 ecx, esi
  00066	e8 00 00 00 00	 call	 ?OnApply@CPropertyPage@@UAEHXZ ; CPropertyPage::OnApply
  0006b	8d 4d f0	 lea	 ecx, DWORD PTR _strData$[ebp]
  0006e	8b f0		 mov	 esi, eax
  00070	ff 15 00 00 00
	00		 call	 DWORD PTR __imp_??1?$CStringT@DV?$StrTraitMFC_DLL@DV?$ChTraitsCRT@D@ATL@@@@@ATL@@QAE@XZ
  00076	8b c6		 mov	 eax, esi

; 365  : }

  00078	8b 4d f4	 mov	 ecx, DWORD PTR __$EHRec$[ebp]
  0007b	64 89 0d 00 00
	00 00		 mov	 DWORD PTR fs:0, ecx
  00082	59		 pop	 ecx
  00083	5e		 pop	 esi
  00084	8b e5		 mov	 esp, ebp
  00086	5d		 pop	 ebp
  00087	c3		 ret	 0
_TEXT	ENDS
;	COMDAT text$x
text$x	SEGMENT
__unwindfunclet$?OnApply@CSharedDataPage@@UAEHXZ$0:
  00000	8d 4d f0	 lea	 ecx, DWORD PTR _strData$[ebp]
  00003	ff 25 00 00 00
	00		 jmp	 DWORD PTR __imp_??1?$CStringT@DV?$StrTraitMFC_DLL@DV?$ChTraitsCRT@D@ATL@@@@@ATL@@QAE@XZ
  00009	cc		 int	 3
  0000a	cc		 int	 3
  0000b	cc		 int	 3
  0000c	cc		 int	 3
  0000d	cc		 int	 3
__ehhandler$?OnApply@CSharedDataPage@@UAEHXZ:
  0000e	90		 npad	 1
  0000f	90		 npad	 1
  00010	8b 54 24 08	 mov	 edx, DWORD PTR [esp+8]
  00014	8d 42 0c	 lea	 eax, DWORD PTR [edx+12]
  00017	8b 4a f4	 mov	 ecx, DWORD PTR [edx-12]
  0001a	33 c8		 xor	 ecx, eax
  0001c	e8 00 00 00 00	 call	 @__security_check_cookie@4
  00021	b8 00 00 00 00	 mov	 eax, OFFSET __ehfuncinfo$?OnApply@CSharedDataPage@@UAEHXZ
  00026	e9 00 00 00 00	 jmp	 ___CxxFrameHandler3
text$x	ENDS
?OnApply@CSharedDataPage@@UAEHXZ ENDP			; CSharedDataPage::OnApply
; Function compile flags: /Ogtp
; File D:\git\src\IBK\IBK_DRFN\ProjSrc\SrcChartEx\ChartAddIn\ChartDesignPropertyAddIn\ChartDesignPropertyAddIn\SharedDataPage.cpp
;	COMDAT ?OnKillActive@CSharedDataPage@@UAEHXZ
_TEXT	SEGMENT
?OnKillActive@CSharedDataPage@@UAEHXZ PROC		; CSharedDataPage::OnKillActive, COMDAT
; _this$ = ecx

; 227  : {

  00000	56		 push	 esi

; 228  : 	CEdit* pEdit = (CEdit*)GetDlgItem(IDC_LSHAREDEDIT);

  00001	68 02 01 00 00	 push	 258			; 00000102H
  00006	8b f1		 mov	 esi, ecx
  00008	e8 00 00 00 00	 call	 ?GetDlgItem@CWnd@@QBEPAV1@H@Z ; CWnd::GetDlgItem

; 229  : 	pEdit->GetWindowText(m_sLocalSharedList);

  0000d	8d 96 c0 01 00
	00		 lea	 edx, DWORD PTR [esi+448]
  00013	8b c8		 mov	 ecx, eax
  00015	52		 push	 edx
  00016	e8 00 00 00 00	 call	 ?GetWindowTextA@CWnd@@QBEXAAV?$CStringT@DV?$StrTraitMFC_DLL@DV?$ChTraitsCRT@D@ATL@@@@@ATL@@@Z ; CWnd::GetWindowTextA

; 230  : 
; 231  : //@solomon[sashia]	20090902 ---   --------->>
; 232  : //	(((CChartPropertySheet *)GetParent())->m_RealPacketPage).SetKeyName(m_sLocalSharedList);
; 233  : //@solomon[sashia]	20090902 ---   ---------<<
; 234  : 
; 235  : 	return CPropertyPage::OnKillActive();

  0001b	8b ce		 mov	 ecx, esi
  0001d	5e		 pop	 esi
  0001e	e9 00 00 00 00	 jmp	 ?OnKillActive@CPropertyPage@@UAEHXZ ; CPropertyPage::OnKillActive
?OnKillActive@CSharedDataPage@@UAEHXZ ENDP		; CSharedDataPage::OnKillActive
_TEXT	ENDS
; Function compile flags: /Ogtp
; File D:\git\src\IBK\IBK_DRFN\ProjSrc\SrcChartEx\ChartAddIn\ChartDesignPropertyAddIn\ChartDesignPropertyAddIn\SharedDataPage.cpp
; File C:\Program Files (x86)\Microsoft Visual Studio\2019\Community\VC\Tools\MSVC\14.29.30133\atlmfc\include\afxcmn.inl
; File D:\git\src\IBK\IBK_DRFN\ProjSrc\SrcChartEx\ChartAddIn\ChartDesignPropertyAddIn\ChartDesignPropertyAddIn\SharedDataPage.cpp
; File C:\Program Files (x86)\Microsoft Visual Studio\2019\Community\VC\Tools\MSVC\14.29.30133\atlmfc\include\afxcmn.inl
; File D:\git\src\IBK\IBK_DRFN\ProjSrc\SrcChartEx\ChartAddIn\ChartDesignPropertyAddIn\ChartDesignPropertyAddIn\SharedDataPage.cpp
;	COMDAT ?GetSelectItem@CSharedDataPage@@QAEHPAVCListCtrl@@@Z
_TEXT	SEGMENT
_pList$ = 8						; size = 4
?GetSelectItem@CSharedDataPage@@QAEHPAVCListCtrl@@@Z PROC ; CSharedDataPage::GetSelectItem, COMDAT
; _this$ = ecx

; 176  : {

  00000	55		 push	 ebp
  00001	8b ec		 mov	 ebp, esp
  00003	57		 push	 edi
; File C:\Program Files (x86)\Microsoft Visual Studio\2019\Community\VC\Tools\MSVC\14.29.30133\atlmfc\include\afxcmn.inl

; 177  : 	{ ASSERT(::IsWindow(m_hWnd)); return (int) ::SendMessage(m_hWnd, LVM_GETNEXTITEM, nItem, MAKELPARAM(nFlags, 0)); }

  00004	8b 7d 08	 mov	 edi, DWORD PTR _pList$[ebp]
  00007	6a 02		 push	 2
  00009	6a ff		 push	 -1
  0000b	68 0c 10 00 00	 push	 4108			; 0000100cH
  00010	ff 77 20	 push	 DWORD PTR [edi+32]
  00013	ff 15 00 00 00
	00		 call	 DWORD PTR __imp__SendMessageA@16

; 179  : 	{ ASSERT(::IsWindow(m_hWnd)); return (POSITION)(DWORD_PTR)(1+GetNextItem(-1, LVIS_SELECTED)); }

  00019	83 c0 01	 add	 eax, 1
; File D:\git\src\IBK\IBK_DRFN\ProjSrc\SrcChartEx\ChartAddIn\ChartDesignPropertyAddIn\ChartDesignPropertyAddIn\SharedDataPage.cpp

; 180  : 	if(pos) 

  0001c	74 1d		 je	 SHORT $LN2@GetSelectI
; File C:\Program Files (x86)\Microsoft Visual Studio\2019\Community\VC\Tools\MSVC\14.29.30133\atlmfc\include\afxcmn.inl

; 181  : 	{ ASSERT(::IsWindow(m_hWnd)); DWORD_PTR nOldPos = (DWORD_PTR)pos-1; pos = (POSITION)(DWORD_PTR)(1+GetNextItem((UINT)nOldPos, LVIS_SELECTED)); return (UINT)nOldPos; }

  0001e	56		 push	 esi

; 177  : 	{ ASSERT(::IsWindow(m_hWnd)); return (int) ::SendMessage(m_hWnd, LVM_GETNEXTITEM, nItem, MAKELPARAM(nFlags, 0)); }

  0001f	6a 02		 push	 2

; 181  : 	{ ASSERT(::IsWindow(m_hWnd)); DWORD_PTR nOldPos = (DWORD_PTR)pos-1; pos = (POSITION)(DWORD_PTR)(1+GetNextItem((UINT)nOldPos, LVIS_SELECTED)); return (UINT)nOldPos; }

  00021	8d 70 ff	 lea	 esi, DWORD PTR [eax-1]

; 177  : 	{ ASSERT(::IsWindow(m_hWnd)); return (int) ::SendMessage(m_hWnd, LVM_GETNEXTITEM, nItem, MAKELPARAM(nFlags, 0)); }

  00024	56		 push	 esi
  00025	68 0c 10 00 00	 push	 4108			; 0000100cH
  0002a	ff 77 20	 push	 DWORD PTR [edi+32]
  0002d	ff 15 00 00 00
	00		 call	 DWORD PTR __imp__SendMessageA@16
; File D:\git\src\IBK\IBK_DRFN\ProjSrc\SrcChartEx\ChartAddIn\ChartDesignPropertyAddIn\ChartDesignPropertyAddIn\SharedDataPage.cpp

; 183  : 		return nItem;

  00033	8b c6		 mov	 eax, esi
  00035	5e		 pop	 esi
  00036	5f		 pop	 edi

; 186  : }

  00037	5d		 pop	 ebp
  00038	c2 04 00	 ret	 4
$LN2@GetSelectI:

; 184  : 	}
; 185  : 	return -1;

  0003b	83 c8 ff	 or	 eax, -1
  0003e	5f		 pop	 edi

; 186  : }

  0003f	5d		 pop	 ebp
  00040	c2 04 00	 ret	 4
?GetSelectItem@CSharedDataPage@@QAEHPAVCListCtrl@@@Z ENDP ; CSharedDataPage::GetSelectItem
_TEXT	ENDS
; Function compile flags: /Ogtp
; File D:\git\src\IBK\IBK_DRFN\ProjSrc\SrcChartEx\ChartAddIn\ChartDesignPropertyAddIn\ChartDesignPropertyAddIn\SharedDataPage.cpp
; File C:\Program Files (x86)\Microsoft Visual Studio\2019\Community\VC\Tools\MSVC\14.29.30133\atlmfc\include\afxcmn.inl
; File D:\git\src\IBK\IBK_DRFN\ProjSrc\SrcChartEx\ChartAddIn\ChartDesignPropertyAddIn\ChartDesignPropertyAddIn\SharedDataPage.cpp
;	COMDAT ?Refresh@CSharedDataPage@@QAEXPAVCListCtrl@@@Z
_TEXT	SEGMENT
_nCount$1$ = -20					; size = 4
_tmp$ = -16						; size = 10
__$ArrayPad$ = -4					; size = 4
_pList$ = 8						; size = 4
?Refresh@CSharedDataPage@@QAEXPAVCListCtrl@@@Z PROC	; CSharedDataPage::Refresh, COMDAT
; _this$ = ecx

; 163  : {

  00000	55		 push	 ebp
  00001	8b ec		 mov	 ebp, esp
  00003	83 ec 14	 sub	 esp, 20			; 00000014H
  00006	a1 00 00 00 00	 mov	 eax, DWORD PTR ___security_cookie
  0000b	33 c5		 xor	 eax, ebp
  0000d	89 45 fc	 mov	 DWORD PTR __$ArrayPad$[ebp], eax
  00010	53		 push	 ebx
  00011	8b 5d 08	 mov	 ebx, DWORD PTR _pList$[ebp]
  00014	57		 push	 edi
; File C:\Program Files (x86)\Microsoft Visual Studio\2019\Community\VC\Tools\MSVC\14.29.30133\atlmfc\include\afxcmn.inl

; 155  : 	{ ASSERT(::IsWindow(m_hWnd)); return (int) ::SendMessage(m_hWnd, LVM_GETITEMCOUNT, 0, 0L); }

  00015	6a 00		 push	 0
  00017	6a 00		 push	 0
  00019	68 04 10 00 00	 push	 4100			; 00001004H
  0001e	ff 73 20	 push	 DWORD PTR [ebx+32]
  00021	ff 15 00 00 00
	00		 call	 DWORD PTR __imp__SendMessageA@16
; File D:\git\src\IBK\IBK_DRFN\ProjSrc\SrcChartEx\ChartAddIn\ChartDesignPropertyAddIn\ChartDesignPropertyAddIn\SharedDataPage.cpp

; 163  : {

  00027	33 ff		 xor	 edi, edi

; 164  : 	ASSERT(pList!=NULL);
; 165  : 
; 166  : 	int nCount = pList->GetItemCount();

  00029	89 45 ec	 mov	 DWORD PTR _nCount$1$[ebp], eax

; 167  : 	char tmp[10];
; 168  : 	for(int i=0; i<nCount; i++)

  0002c	85 c0		 test	 eax, eax
  0002e	7e 2c		 jle	 SHORT $LN3@Refresh
  00030	56		 push	 esi
$LL4@Refresh:

; 169  : 	{
; 170  : 		sprintf(tmp, "%d", i+1); 

  00031	8d 77 01	 lea	 esi, DWORD PTR [edi+1]
  00034	56		 push	 esi
  00035	8d 45 f0	 lea	 eax, DWORD PTR _tmp$[ebp]
  00038	68 00 00 00 00	 push	 OFFSET ??_C@_02DPKJAMEF@?$CFd@
  0003d	50		 push	 eax
  0003e	e8 00 00 00 00	 call	 _sprintf
  00043	83 c4 0c	 add	 esp, 12			; 0000000cH

; 171  : 		pList->SetItemText(i, 0, tmp);

  00046	8d 45 f0	 lea	 eax, DWORD PTR _tmp$[ebp]
  00049	8b cb		 mov	 ecx, ebx
  0004b	50		 push	 eax
  0004c	6a 00		 push	 0
  0004e	57		 push	 edi
  0004f	e8 00 00 00 00	 call	 ?SetItemText@CListCtrl@@QAEHHHPBD@Z ; CListCtrl::SetItemText
  00054	8b fe		 mov	 edi, esi
  00056	3b 7d ec	 cmp	 edi, DWORD PTR _nCount$1$[ebp]
  00059	7c d6		 jl	 SHORT $LL4@Refresh
  0005b	5e		 pop	 esi
$LN3@Refresh:

; 172  : 	}
; 173  : }

  0005c	8b 4d fc	 mov	 ecx, DWORD PTR __$ArrayPad$[ebp]
  0005f	5f		 pop	 edi
  00060	33 cd		 xor	 ecx, ebp
  00062	5b		 pop	 ebx
  00063	e8 00 00 00 00	 call	 @__security_check_cookie@4
  00068	8b e5		 mov	 esp, ebp
  0006a	5d		 pop	 ebp
  0006b	c2 04 00	 ret	 4
?Refresh@CSharedDataPage@@QAEXPAVCListCtrl@@@Z ENDP	; CSharedDataPage::Refresh
_TEXT	ENDS
; Function compile flags: /Ogtp
; File D:\git\src\IBK\IBK_DRFN\ProjSrc\SrcChartEx\ChartAddIn\ChartDesignPropertyAddIn\ChartDesignPropertyAddIn\SharedDataPage.cpp
; File C:\Program Files (x86)\Microsoft Visual Studio\2019\Community\VC\Tools\MSVC\14.29.30133\atlmfc\include\afxcmn.inl
; File D:\git\src\IBK\IBK_DRFN\ProjSrc\SrcChartEx\ChartAddIn\ChartDesignPropertyAddIn\ChartDesignPropertyAddIn\SharedDataPage.cpp
; File C:\Program Files (x86)\Microsoft Visual Studio\2019\Community\VC\Tools\MSVC\14.29.30133\atlmfc\include\afxcmn.inl
; File D:\git\src\IBK\IBK_DRFN\ProjSrc\SrcChartEx\ChartAddIn\ChartDesignPropertyAddIn\ChartDesignPropertyAddIn\SharedDataPage.cpp
; File C:\Program Files (x86)\Microsoft Visual Studio\2019\Community\VC\Tools\MSVC\14.29.30133\atlmfc\include\afxcmn.inl
; File D:\git\src\IBK\IBK_DRFN\ProjSrc\SrcChartEx\ChartAddIn\ChartDesignPropertyAddIn\ChartDesignPropertyAddIn\SharedDataPage.cpp
;	COMDAT ?AddData@CSharedDataPage@@QAEHPAVCListCtrl@@V?$CStringT@DV?$StrTraitMFC_DLL@DV?$ChTraitsCRT@D@ATL@@@@@ATL@@HHH@Z
_TEXT	SEGMENT
_tmp$ = -28						; size = 10
__$ArrayPad$ = -16					; size = 4
__$EHRec$ = -12						; size = 12
_pList$ = 8						; size = 4
__szShareName$ = 12					; size = 4
__bStart$ = 16						; size = 4
__bSet$ = 20						; size = 4
__bGet$ = 24						; size = 4
?AddData@CSharedDataPage@@QAEHPAVCListCtrl@@V?$CStringT@DV?$StrTraitMFC_DLL@DV?$ChTraitsCRT@D@ATL@@@@@ATL@@HHH@Z PROC ; CSharedDataPage::AddData, COMDAT
; _this$ = ecx

; 141  : {

  00000	55		 push	 ebp
  00001	8b ec		 mov	 ebp, esp
  00003	6a ff		 push	 -1
  00005	68 00 00 00 00	 push	 __ehhandler$?AddData@CSharedDataPage@@QAEHPAVCListCtrl@@V?$CStringT@DV?$StrTraitMFC_DLL@DV?$ChTraitsCRT@D@ATL@@@@@ATL@@HHH@Z
  0000a	64 a1 00 00 00
	00		 mov	 eax, DWORD PTR fs:0
  00010	50		 push	 eax
  00011	83 ec 10	 sub	 esp, 16			; 00000010H
  00014	a1 00 00 00 00	 mov	 eax, DWORD PTR ___security_cookie
  00019	33 c5		 xor	 eax, ebp
  0001b	89 45 f0	 mov	 DWORD PTR __$ArrayPad$[ebp], eax
  0001e	56		 push	 esi
  0001f	57		 push	 edi
  00020	50		 push	 eax
  00021	8d 45 f4	 lea	 eax, DWORD PTR __$EHRec$[ebp]
  00024	64 a3 00 00 00
	00		 mov	 DWORD PTR fs:0, eax
  0002a	8b 7d 08	 mov	 edi, DWORD PTR _pList$[ebp]
; File C:\Program Files (x86)\Microsoft Visual Studio\2019\Community\VC\Tools\MSVC\14.29.30133\atlmfc\include\afxcmn.inl

; 155  : 	{ ASSERT(::IsWindow(m_hWnd)); return (int) ::SendMessage(m_hWnd, LVM_GETITEMCOUNT, 0, 0L); }

  0002d	6a 00		 push	 0
  0002f	6a 00		 push	 0
  00031	68 04 10 00 00	 push	 4100			; 00001004H
  00036	ff 77 20	 push	 DWORD PTR [edi+32]
; File D:\git\src\IBK\IBK_DRFN\ProjSrc\SrcChartEx\ChartAddIn\ChartDesignPropertyAddIn\ChartDesignPropertyAddIn\SharedDataPage.cpp

; 141  : {

  00039	c7 45 fc 00 00
	00 00		 mov	 DWORD PTR __$EHRec$[ebp+8], 0
; File C:\Program Files (x86)\Microsoft Visual Studio\2019\Community\VC\Tools\MSVC\14.29.30133\atlmfc\include\afxcmn.inl

; 155  : 	{ ASSERT(::IsWindow(m_hWnd)); return (int) ::SendMessage(m_hWnd, LVM_GETITEMCOUNT, 0, 0L); }

  00040	ff 15 00 00 00
	00		 call	 DWORD PTR __imp__SendMessageA@16
; File D:\git\src\IBK\IBK_DRFN\ProjSrc\SrcChartEx\ChartAddIn\ChartDesignPropertyAddIn\ChartDesignPropertyAddIn\SharedDataPage.cpp

; 143  : 	int nIndex = pList->GetItemCount();

  00046	8b f0		 mov	 esi, eax

; 144  : 
; 145  : 	char tmp[10];
; 146  : 	sprintf(tmp, "%d", nIndex+1);

  00048	8d 45 e4	 lea	 eax, DWORD PTR _tmp$[ebp]
  0004b	8d 4e 01	 lea	 ecx, DWORD PTR [esi+1]
  0004e	51		 push	 ecx
  0004f	68 00 00 00 00	 push	 OFFSET ??_C@_02DPKJAMEF@?$CFd@
  00054	50		 push	 eax
  00055	e8 00 00 00 00	 call	 _sprintf
  0005a	83 c4 0c	 add	 esp, 12			; 0000000cH
; File C:\Program Files (x86)\Microsoft Visual Studio\2019\Community\VC\Tools\MSVC\14.29.30133\atlmfc\include\afxcmn.inl

; 165  : 	{ ASSERT(::IsWindow(m_hWnd)); return InsertItem(LVIF_TEXT, nItem, lpszItem, 0, 0, 0, 0); }

  0005d	8d 45 e4	 lea	 eax, DWORD PTR _tmp$[ebp]
  00060	8b cf		 mov	 ecx, edi
  00062	6a 00		 push	 0
  00064	6a 00		 push	 0
  00066	6a 00		 push	 0
  00068	6a 00		 push	 0
  0006a	50		 push	 eax
  0006b	56		 push	 esi
  0006c	6a 01		 push	 1
  0006e	e8 00 00 00 00	 call	 ?InsertItem@CListCtrl@@QAEHIHPBDIIHJ@Z ; CListCtrl::InsertItem
; File D:\git\src\IBK\IBK_DRFN\ProjSrc\SrcChartEx\ChartAddIn\ChartDesignPropertyAddIn\ChartDesignPropertyAddIn\SharedDataPage.cpp

; 148  : 	pList->SetItemText(nInsert, 1, _szShareName);

  00073	ff 75 0c	 push	 DWORD PTR __szShareName$[ebp]
  00076	8b f0		 mov	 esi, eax
  00078	8b cf		 mov	 ecx, edi
  0007a	6a 01		 push	 1
  0007c	56		 push	 esi
  0007d	e8 00 00 00 00	 call	 ?SetItemText@CListCtrl@@QAEHHHPBD@Z ; CListCtrl::SetItemText

; 149  : 
; 150  : 	sprintf(tmp, "%d", _bStart);

  00082	ff 75 10	 push	 DWORD PTR __bStart$[ebp]
  00085	8d 45 e4	 lea	 eax, DWORD PTR _tmp$[ebp]
  00088	68 00 00 00 00	 push	 OFFSET ??_C@_02DPKJAMEF@?$CFd@
  0008d	50		 push	 eax
  0008e	e8 00 00 00 00	 call	 _sprintf
  00093	83 c4 0c	 add	 esp, 12			; 0000000cH

; 151  : 	pList->SetItemText(nInsert, 2, tmp);

  00096	8d 45 e4	 lea	 eax, DWORD PTR _tmp$[ebp]
  00099	8b cf		 mov	 ecx, edi
  0009b	50		 push	 eax
  0009c	6a 02		 push	 2
  0009e	56		 push	 esi
  0009f	e8 00 00 00 00	 call	 ?SetItemText@CListCtrl@@QAEHHHPBD@Z ; CListCtrl::SetItemText

; 152  : 
; 153  : 	sprintf(tmp, "%d", _bSet);

  000a4	ff 75 14	 push	 DWORD PTR __bSet$[ebp]
  000a7	8d 45 e4	 lea	 eax, DWORD PTR _tmp$[ebp]
  000aa	68 00 00 00 00	 push	 OFFSET ??_C@_02DPKJAMEF@?$CFd@
  000af	50		 push	 eax
  000b0	e8 00 00 00 00	 call	 _sprintf
  000b5	83 c4 0c	 add	 esp, 12			; 0000000cH

; 154  : 	pList->SetItemText(nInsert, 3, tmp);

  000b8	8d 45 e4	 lea	 eax, DWORD PTR _tmp$[ebp]
  000bb	8b cf		 mov	 ecx, edi
  000bd	50		 push	 eax
  000be	6a 03		 push	 3
  000c0	56		 push	 esi
  000c1	e8 00 00 00 00	 call	 ?SetItemText@CListCtrl@@QAEHHHPBD@Z ; CListCtrl::SetItemText

; 155  : 
; 156  : 	sprintf(tmp, "%d", _bGet);

  000c6	ff 75 18	 push	 DWORD PTR __bGet$[ebp]
  000c9	8d 45 e4	 lea	 eax, DWORD PTR _tmp$[ebp]
  000cc	68 00 00 00 00	 push	 OFFSET ??_C@_02DPKJAMEF@?$CFd@
  000d1	50		 push	 eax
  000d2	e8 00 00 00 00	 call	 _sprintf
  000d7	83 c4 0c	 add	 esp, 12			; 0000000cH

; 157  : 	pList->SetItemText(nInsert, 4, tmp);

  000da	8d 45 e4	 lea	 eax, DWORD PTR _tmp$[ebp]
  000dd	8b cf		 mov	 ecx, edi
  000df	50		 push	 eax
  000e0	6a 04		 push	 4
  000e2	56		 push	 esi
  000e3	e8 00 00 00 00	 call	 ?SetItemText@CListCtrl@@QAEHHHPBD@Z ; CListCtrl::SetItemText

; 158  : 
; 159  : 	return 1;

  000e8	8d 4d 0c	 lea	 ecx, DWORD PTR __szShareName$[ebp]
  000eb	ff 15 00 00 00
	00		 call	 DWORD PTR __imp_??1?$CStringT@DV?$StrTraitMFC_DLL@DV?$ChTraitsCRT@D@ATL@@@@@ATL@@QAE@XZ
  000f1	b8 01 00 00 00	 mov	 eax, 1

; 160  : }

  000f6	8b 4d f4	 mov	 ecx, DWORD PTR __$EHRec$[ebp]
  000f9	64 89 0d 00 00
	00 00		 mov	 DWORD PTR fs:0, ecx
  00100	59		 pop	 ecx
  00101	5f		 pop	 edi
  00102	5e		 pop	 esi
  00103	8b 4d f0	 mov	 ecx, DWORD PTR __$ArrayPad$[ebp]
  00106	33 cd		 xor	 ecx, ebp
  00108	e8 00 00 00 00	 call	 @__security_check_cookie@4
  0010d	8b e5		 mov	 esp, ebp
  0010f	5d		 pop	 ebp
  00110	c2 14 00	 ret	 20			; 00000014H
_TEXT	ENDS
;	COMDAT text$x
text$x	SEGMENT
__unwindfunclet$?AddData@CSharedDataPage@@QAEHPAVCListCtrl@@V?$CStringT@DV?$StrTraitMFC_DLL@DV?$ChTraitsCRT@D@ATL@@@@@ATL@@HHH@Z$0:
  00000	8d 4d 0c	 lea	 ecx, DWORD PTR __szShareName$[ebp]
  00003	ff 25 00 00 00
	00		 jmp	 DWORD PTR __imp_??1?$CStringT@DV?$StrTraitMFC_DLL@DV?$ChTraitsCRT@D@ATL@@@@@ATL@@QAE@XZ
  00009	cc		 int	 3
  0000a	cc		 int	 3
  0000b	cc		 int	 3
  0000c	cc		 int	 3
  0000d	cc		 int	 3
__ehhandler$?AddData@CSharedDataPage@@QAEHPAVCListCtrl@@V?$CStringT@DV?$StrTraitMFC_DLL@DV?$ChTraitsCRT@D@ATL@@@@@ATL@@HHH@Z:
  0000e	90		 npad	 1
  0000f	90		 npad	 1
  00010	8b 54 24 08	 mov	 edx, DWORD PTR [esp+8]
  00014	8d 42 0c	 lea	 eax, DWORD PTR [edx+12]
  00017	8b 4a e4	 mov	 ecx, DWORD PTR [edx-28]
  0001a	33 c8		 xor	 ecx, eax
  0001c	e8 00 00 00 00	 call	 @__security_check_cookie@4
  00021	8b 4a fc	 mov	 ecx, DWORD PTR [edx-4]
  00024	33 c8		 xor	 ecx, eax
  00026	e8 00 00 00 00	 call	 @__security_check_cookie@4
  0002b	b8 00 00 00 00	 mov	 eax, OFFSET __ehfuncinfo$?AddData@CSharedDataPage@@QAEHPAVCListCtrl@@V?$CStringT@DV?$StrTraitMFC_DLL@DV?$ChTraitsCRT@D@ATL@@@@@ATL@@HHH@Z
  00030	e9 00 00 00 00	 jmp	 ___CxxFrameHandler3
text$x	ENDS
?AddData@CSharedDataPage@@QAEHPAVCListCtrl@@V?$CStringT@DV?$StrTraitMFC_DLL@DV?$ChTraitsCRT@D@ATL@@@@@ATL@@HHH@Z ENDP ; CSharedDataPage::AddData
; Function compile flags: /Ogtp
; File D:\git\src\IBK\IBK_DRFN\ProjSrc\SrcChartEx\ChartAddIn\ChartDesignPropertyAddIn\ChartDesignPropertyAddIn\SharedDataPage.cpp
; File C:\Program Files (x86)\Microsoft Visual Studio\2019\Community\VC\Tools\MSVC\14.29.30133\atlmfc\include\atlsimpstr.h
; File D:\git\src\IBK\IBK_DRFN\ProjSrc\SrcChartEx\ChartAddIn\ChartDesignPropertyAddIn\ChartDesignPropertyAddIn\SharedDataPage.cpp
; File C:\Program Files (x86)\Microsoft Visual Studio\2019\Community\VC\Tools\MSVC\14.29.30133\atlmfc\include\atlsimpstr.h
; File D:\git\src\IBK\IBK_DRFN\ProjSrc\SrcChartEx\ChartAddIn\ChartDesignPropertyAddIn\ChartDesignPropertyAddIn\SharedDataPage.cpp
; File C:\Program Files (x86)\Microsoft Visual Studio\2019\Community\VC\Tools\MSVC\14.29.30133\atlmfc\include\atlsimpstr.h
; File D:\git\src\IBK\IBK_DRFN\ProjSrc\SrcChartEx\ChartAddIn\ChartDesignPropertyAddIn\ChartDesignPropertyAddIn\SharedDataPage.cpp
;	COMDAT ?AddData@CSharedDataPage@@QAEHPAVCListCtrl@@V?$CStringT@DV?$StrTraitMFC_DLL@DV?$ChTraitsCRT@D@ATL@@@@@ATL@@@Z
_TEXT	SEGMENT
_this$1$ = -32						; size = 4
$T2 = -28						; size = 4
$T3 = -24						; size = 4
_szShareName$ = -20					; size = 4
_aTmp$ = -16						; size = 2
__$EHRec$ = -12						; size = 12
$T4 = 8							; size = 4
_pList$ = 8						; size = 4
__szData$ = 12						; size = 4
?AddData@CSharedDataPage@@QAEHPAVCListCtrl@@V?$CStringT@DV?$StrTraitMFC_DLL@DV?$ChTraitsCRT@D@ATL@@@@@ATL@@@Z PROC ; CSharedDataPage::AddData, COMDAT
; _this$ = ecx

; 105  : {

  00000	55		 push	 ebp
  00001	8b ec		 mov	 ebp, esp
  00003	6a ff		 push	 -1
  00005	68 00 00 00 00	 push	 __ehhandler$?AddData@CSharedDataPage@@QAEHPAVCListCtrl@@V?$CStringT@DV?$StrTraitMFC_DLL@DV?$ChTraitsCRT@D@ATL@@@@@ATL@@@Z
  0000a	64 a1 00 00 00
	00		 mov	 eax, DWORD PTR fs:0
  00010	50		 push	 eax
  00011	83 ec 18	 sub	 esp, 24			; 00000018H
  00014	53		 push	 ebx
  00015	56		 push	 esi
  00016	57		 push	 edi
  00017	a1 00 00 00 00	 mov	 eax, DWORD PTR ___security_cookie
  0001c	33 c5		 xor	 eax, ebp
  0001e	50		 push	 eax
  0001f	8d 45 f4	 lea	 eax, DWORD PTR __$EHRec$[ebp]
  00022	64 a3 00 00 00
	00		 mov	 DWORD PTR fs:0, eax
  00028	89 4d e0	 mov	 DWORD PTR _this$1$[ebp], ecx

; 106  : 	_szData.TrimRight();

  0002b	8d 4d 0c	 lea	 ecx, DWORD PTR __szData$[ebp]
  0002e	c7 45 fc 00 00
	00 00		 mov	 DWORD PTR __$EHRec$[ebp+8], 0
  00035	ff 15 00 00 00
	00		 call	 DWORD PTR __imp_?TrimRight@?$CStringT@DV?$StrTraitMFC_DLL@DV?$ChTraitsCRT@D@ATL@@@@@ATL@@QAEAAV12@XZ
; File C:\Program Files (x86)\Microsoft Visual Studio\2019\Community\VC\Tools\MSVC\14.29.30133\atlmfc\include\atlsimpstr.h

; 519  : 		return( GetData()->nDataLength );

  0003b	8b 45 0c	 mov	 eax, DWORD PTR __szData$[ebp]
; File D:\git\src\IBK\IBK_DRFN\ProjSrc\SrcChartEx\ChartAddIn\ChartDesignPropertyAddIn\ChartDesignPropertyAddIn\SharedDataPage.cpp

; 107  : 	if(_szData.GetLength()==0) return 0;

  0003e	83 78 f4 00	 cmp	 DWORD PTR [eax-12], 0
  00042	75 07		 jne	 SHORT $LN4@AddData
  00044	33 ff		 xor	 edi, edi
  00046	e9 33 01 00 00	 jmp	 $LN15@AddData
$LN4@AddData:

; 108  : 
; 109  : 	_szData += ";";

  0004b	68 00 00 00 00	 push	 OFFSET ??_C@_01ICJEACDI@?$DL@
  00050	8d 4d 0c	 lea	 ecx, DWORD PTR __szData$[ebp]
  00053	ff 15 00 00 00
	00		 call	 DWORD PTR __imp_??Y?$CStringT@DV?$StrTraitMFC_DLL@DV?$ChTraitsCRT@D@ATL@@@@@ATL@@QAEAAV01@PBD@Z

; 110  : 	int nIndex = _szData.Find(";");

  00059	6a 00		 push	 0
  0005b	68 00 00 00 00	 push	 OFFSET ??_C@_01ICJEACDI@?$DL@
  00060	8d 4d 0c	 lea	 ecx, DWORD PTR __szData$[ebp]
  00063	ff 15 00 00 00
	00		 call	 DWORD PTR __imp_?Find@?$CStringT@DV?$StrTraitMFC_DLL@DV?$ChTraitsCRT@D@ATL@@@@@ATL@@QBEHPBDH@Z

; 111  : 	CString szShareName;

  00069	8d 4d ec	 lea	 ecx, DWORD PTR _szShareName$[ebp]
  0006c	8b f0		 mov	 esi, eax
  0006e	ff 15 00 00 00
	00		 call	 DWORD PTR __imp_??0?$CStringT@DV?$StrTraitMFC_DLL@DV?$ChTraitsCRT@D@ATL@@@@@ATL@@QAE@XZ

; 112  : 	BOOL   bGet, bSet, bStart;
; 113  : 	char   aTmp[2]={0,};

  00074	33 c0		 xor	 eax, eax
  00076	c6 45 fc 01	 mov	 BYTE PTR __$EHRec$[ebp+8], 1

; 114  : 	int		nLen, nCnt=0, nTmp;

  0007a	33 ff		 xor	 edi, edi
  0007c	66 89 45 f0	 mov	 WORD PTR _aTmp$[ebp], ax

; 115  : 
; 116  : 	while(nIndex>0)

  00080	85 f6		 test	 esi, esi
  00082	0f 8e ed 00 00
	00		 jle	 $LN3@AddData
  00088	8b 5d 08	 mov	 ebx, DWORD PTR _pList$[ebp]
  0008b	0f 1f 44 00 00	 npad	 5
$LL2@AddData:

; 117  : 	{
; 118  : 		bGet = bSet = bStart = FALSE;
; 119  : 		szShareName = _szData.Left(nIndex);

  00090	56		 push	 esi
  00091	8d 45 08	 lea	 eax, DWORD PTR $T4[ebp]
  00094	50		 push	 eax
  00095	8d 4d 0c	 lea	 ecx, DWORD PTR __szData$[ebp]
  00098	ff 15 00 00 00
	00		 call	 DWORD PTR __imp_?Left@?$CStringT@DV?$StrTraitMFC_DLL@DV?$ChTraitsCRT@D@ATL@@@@@ATL@@QBE?AV12@H@Z
  0009e	50		 push	 eax
  0009f	8d 4d ec	 lea	 ecx, DWORD PTR _szShareName$[ebp]
  000a2	c6 45 fc 02	 mov	 BYTE PTR __$EHRec$[ebp+8], 2
  000a6	ff 15 00 00 00
	00		 call	 DWORD PTR __imp_??4?$CStringT@DV?$StrTraitMFC_DLL@DV?$ChTraitsCRT@D@ATL@@@@@ATL@@QAEAAV01@ABV01@@Z
  000ac	8d 4d 08	 lea	 ecx, DWORD PTR $T4[ebp]
  000af	c6 45 fc 01	 mov	 BYTE PTR __$EHRec$[ebp+8], 1
  000b3	ff 15 00 00 00
	00		 call	 DWORD PTR __imp_??1?$CStringT@DV?$StrTraitMFC_DLL@DV?$ChTraitsCRT@D@ATL@@@@@ATL@@QAE@XZ

; 120  : 		_szData = _szData.Mid(nIndex+1);

  000b9	8d 46 01	 lea	 eax, DWORD PTR [esi+1]
  000bc	50		 push	 eax
  000bd	8d 45 e8	 lea	 eax, DWORD PTR $T3[ebp]
  000c0	50		 push	 eax
  000c1	8d 4d 0c	 lea	 ecx, DWORD PTR __szData$[ebp]
  000c4	ff 15 00 00 00
	00		 call	 DWORD PTR __imp_?Mid@?$CStringT@DV?$StrTraitMFC_DLL@DV?$ChTraitsCRT@D@ATL@@@@@ATL@@QBE?AV12@H@Z
  000ca	50		 push	 eax
  000cb	8d 4d 0c	 lea	 ecx, DWORD PTR __szData$[ebp]
  000ce	c6 45 fc 03	 mov	 BYTE PTR __$EHRec$[ebp+8], 3
  000d2	ff 15 00 00 00
	00		 call	 DWORD PTR __imp_??4?$CStringT@DV?$StrTraitMFC_DLL@DV?$ChTraitsCRT@D@ATL@@@@@ATL@@QAEAAV01@ABV01@@Z
  000d8	8d 4d e8	 lea	 ecx, DWORD PTR $T3[ebp]
  000db	c6 45 fc 01	 mov	 BYTE PTR __$EHRec$[ebp+8], 1
  000df	ff 15 00 00 00
	00		 call	 DWORD PTR __imp_??1?$CStringT@DV?$StrTraitMFC_DLL@DV?$ChTraitsCRT@D@ATL@@@@@ATL@@QAE@XZ
; File C:\Program Files (x86)\Microsoft Visual Studio\2019\Community\VC\Tools\MSVC\14.29.30133\atlmfc\include\atlsimpstr.h

; 519  : 		return( GetData()->nDataLength );

  000e5	8b 45 ec	 mov	 eax, DWORD PTR _szShareName$[ebp]
; File D:\git\src\IBK\IBK_DRFN\ProjSrc\SrcChartEx\ChartAddIn\ChartDesignPropertyAddIn\ChartDesignPropertyAddIn\SharedDataPage.cpp

; 123  : 		aTmp[0] = szShareName[nLen-1];

  000e8	8d 4d ec	 lea	 ecx, DWORD PTR _szShareName$[ebp]
; File C:\Program Files (x86)\Microsoft Visual Studio\2019\Community\VC\Tools\MSVC\14.29.30133\atlmfc\include\atlsimpstr.h

; 519  : 		return( GetData()->nDataLength );

  000eb	8b 70 f4	 mov	 esi, DWORD PTR [eax-12]
; File D:\git\src\IBK\IBK_DRFN\ProjSrc\SrcChartEx\ChartAddIn\ChartDesignPropertyAddIn\ChartDesignPropertyAddIn\SharedDataPage.cpp

; 123  : 		aTmp[0] = szShareName[nLen-1];

  000ee	4e		 dec	 esi
  000ef	56		 push	 esi
  000f0	ff 15 00 00 00
	00		 call	 DWORD PTR __imp_??A?$CSimpleStringT@D$00@ATL@@QBEDH@Z
  000f6	88 45 f0	 mov	 BYTE PTR _aTmp$[ebp], al

; 124  : 		szShareName = szShareName.Left(nLen-1);

  000f9	8d 4d ec	 lea	 ecx, DWORD PTR _szShareName$[ebp]
  000fc	56		 push	 esi
  000fd	8d 45 e4	 lea	 eax, DWORD PTR $T2[ebp]
  00100	50		 push	 eax
  00101	ff 15 00 00 00
	00		 call	 DWORD PTR __imp_?Left@?$CStringT@DV?$StrTraitMFC_DLL@DV?$ChTraitsCRT@D@ATL@@@@@ATL@@QBE?AV12@H@Z
  00107	50		 push	 eax
  00108	8d 4d ec	 lea	 ecx, DWORD PTR _szShareName$[ebp]
  0010b	c6 45 fc 04	 mov	 BYTE PTR __$EHRec$[ebp+8], 4
  0010f	ff 15 00 00 00
	00		 call	 DWORD PTR __imp_??4?$CStringT@DV?$StrTraitMFC_DLL@DV?$ChTraitsCRT@D@ATL@@@@@ATL@@QAEAAV01@ABV01@@Z
  00115	8d 4d e4	 lea	 ecx, DWORD PTR $T2[ebp]
  00118	c6 45 fc 01	 mov	 BYTE PTR __$EHRec$[ebp+8], 1
  0011c	ff 15 00 00 00
	00		 call	 DWORD PTR __imp_??1?$CStringT@DV?$StrTraitMFC_DLL@DV?$ChTraitsCRT@D@ATL@@@@@ATL@@QAE@XZ

; 125  : 
; 126  : 		nTmp = atoi(aTmp);

  00122	8d 45 f0	 lea	 eax, DWORD PTR _aTmp$[ebp]
  00125	50		 push	 eax
  00126	ff 15 00 00 00
	00		 call	 DWORD PTR __imp__atoi
  0012c	8b c8		 mov	 ecx, eax
  0012e	83 c4 04	 add	 esp, 4

; 127  : 		if(nTmp & 1) bStart = TRUE;
; 128  : 		if(nTmp & 2) bSet=TRUE;
; 129  : 		if(nTmp & 4) bGet=TRUE;

  00131	c1 e8 02	 shr	 eax, 2
  00134	83 e0 01	 and	 eax, 1

; 130  : 
; 131  : 		AddData(pList, szShareName, bStart, bSet, bGet);

  00137	50		 push	 eax
  00138	8b c1		 mov	 eax, ecx
  0013a	83 e1 01	 and	 ecx, 1
  0013d	d1 e8		 shr	 eax, 1
  0013f	83 e0 01	 and	 eax, 1
  00142	50		 push	 eax
  00143	51		 push	 ecx
  00144	51		 push	 ecx
  00145	8d 45 ec	 lea	 eax, DWORD PTR _szShareName$[ebp]
  00148	8b cc		 mov	 ecx, esp
  0014a	50		 push	 eax
  0014b	ff 15 00 00 00
	00		 call	 DWORD PTR __imp_??0?$CStringT@DV?$StrTraitMFC_DLL@DV?$ChTraitsCRT@D@ATL@@@@@ATL@@QAE@ABV01@@Z
  00151	8b 4d e0	 mov	 ecx, DWORD PTR _this$1$[ebp]
  00154	53		 push	 ebx
  00155	e8 00 00 00 00	 call	 ?AddData@CSharedDataPage@@QAEHPAVCListCtrl@@V?$CStringT@DV?$StrTraitMFC_DLL@DV?$ChTraitsCRT@D@ATL@@@@@ATL@@HHH@Z ; CSharedDataPage::AddData

; 132  : 		nCnt++;
; 133  : 
; 134  : 		nIndex = _szData.Find(";");

  0015a	6a 00		 push	 0
  0015c	68 00 00 00 00	 push	 OFFSET ??_C@_01ICJEACDI@?$DL@
  00161	8d 4d 0c	 lea	 ecx, DWORD PTR __szData$[ebp]
  00164	47		 inc	 edi
  00165	ff 15 00 00 00
	00		 call	 DWORD PTR __imp_?Find@?$CStringT@DV?$StrTraitMFC_DLL@DV?$ChTraitsCRT@D@ATL@@@@@ATL@@QBEHPBDH@Z
  0016b	8b f0		 mov	 esi, eax
  0016d	85 f6		 test	 esi, esi
  0016f	0f 8f 1b ff ff
	ff		 jg	 $LL2@AddData
$LN3@AddData:

; 135  : 	}
; 136  : 
; 137  : 	return nCnt;

  00175	8d 4d ec	 lea	 ecx, DWORD PTR _szShareName$[ebp]
  00178	ff 15 00 00 00
	00		 call	 DWORD PTR __imp_??1?$CStringT@DV?$StrTraitMFC_DLL@DV?$ChTraitsCRT@D@ATL@@@@@ATL@@QAE@XZ
$LN15@AddData:
  0017e	8d 4d 0c	 lea	 ecx, DWORD PTR __szData$[ebp]
  00181	ff 15 00 00 00
	00		 call	 DWORD PTR __imp_??1?$CStringT@DV?$StrTraitMFC_DLL@DV?$ChTraitsCRT@D@ATL@@@@@ATL@@QAE@XZ
  00187	8b c7		 mov	 eax, edi

; 138  : }

  00189	8b 4d f4	 mov	 ecx, DWORD PTR __$EHRec$[ebp]
  0018c	64 89 0d 00 00
	00 00		 mov	 DWORD PTR fs:0, ecx
  00193	59		 pop	 ecx
  00194	5f		 pop	 edi
  00195	5e		 pop	 esi
  00196	5b		 pop	 ebx
  00197	8b e5		 mov	 esp, ebp
  00199	5d		 pop	 ebp
  0019a	c2 08 00	 ret	 8
_TEXT	ENDS
;	COMDAT text$x
text$x	SEGMENT
__unwindfunclet$?AddData@CSharedDataPage@@QAEHPAVCListCtrl@@V?$CStringT@DV?$StrTraitMFC_DLL@DV?$ChTraitsCRT@D@ATL@@@@@ATL@@@Z$0:
  00000	8d 4d 0c	 lea	 ecx, DWORD PTR __szData$[ebp]
  00003	ff 25 00 00 00
	00		 jmp	 DWORD PTR __imp_??1?$CStringT@DV?$StrTraitMFC_DLL@DV?$ChTraitsCRT@D@ATL@@@@@ATL@@QAE@XZ
__unwindfunclet$?AddData@CSharedDataPage@@QAEHPAVCListCtrl@@V?$CStringT@DV?$StrTraitMFC_DLL@DV?$ChTraitsCRT@D@ATL@@@@@ATL@@@Z$1:
  00009	8d 4d ec	 lea	 ecx, DWORD PTR _szShareName$[ebp]
  0000c	ff 25 00 00 00
	00		 jmp	 DWORD PTR __imp_??1?$CStringT@DV?$StrTraitMFC_DLL@DV?$ChTraitsCRT@D@ATL@@@@@ATL@@QAE@XZ
__unwindfunclet$?AddData@CSharedDataPage@@QAEHPAVCListCtrl@@V?$CStringT@DV?$StrTraitMFC_DLL@DV?$ChTraitsCRT@D@ATL@@@@@ATL@@@Z$2:
  00012	8d 4d 08	 lea	 ecx, DWORD PTR $T4[ebp]
  00015	ff 25 00 00 00
	00		 jmp	 DWORD PTR __imp_??1?$CStringT@DV?$StrTraitMFC_DLL@DV?$ChTraitsCRT@D@ATL@@@@@ATL@@QAE@XZ
__unwindfunclet$?AddData@CSharedDataPage@@QAEHPAVCListCtrl@@V?$CStringT@DV?$StrTraitMFC_DLL@DV?$ChTraitsCRT@D@ATL@@@@@ATL@@@Z$3:
  0001b	8d 4d e8	 lea	 ecx, DWORD PTR $T3[ebp]
  0001e	ff 25 00 00 00
	00		 jmp	 DWORD PTR __imp_??1?$CStringT@DV?$StrTraitMFC_DLL@DV?$ChTraitsCRT@D@ATL@@@@@ATL@@QAE@XZ
__unwindfunclet$?AddData@CSharedDataPage@@QAEHPAVCListCtrl@@V?$CStringT@DV?$StrTraitMFC_DLL@DV?$ChTraitsCRT@D@ATL@@@@@ATL@@@Z$4:
  00024	8d 4d e4	 lea	 ecx, DWORD PTR $T2[ebp]
  00027	ff 25 00 00 00
	00		 jmp	 DWORD PTR __imp_??1?$CStringT@DV?$StrTraitMFC_DLL@DV?$ChTraitsCRT@D@ATL@@@@@ATL@@QAE@XZ
  0002d	cc		 int	 3
  0002e	cc		 int	 3
  0002f	cc		 int	 3
  00030	cc		 int	 3
  00031	cc		 int	 3
__ehhandler$?AddData@CSharedDataPage@@QAEHPAVCListCtrl@@V?$CStringT@DV?$StrTraitMFC_DLL@DV?$ChTraitsCRT@D@ATL@@@@@ATL@@@Z:
  00032	90		 npad	 1
  00033	90		 npad	 1
  00034	8b 54 24 08	 mov	 edx, DWORD PTR [esp+8]
  00038	8d 42 0c	 lea	 eax, DWORD PTR [edx+12]
  0003b	8b 4a d8	 mov	 ecx, DWORD PTR [edx-40]
  0003e	33 c8		 xor	 ecx, eax
  00040	e8 00 00 00 00	 call	 @__security_check_cookie@4
  00045	b8 00 00 00 00	 mov	 eax, OFFSET __ehfuncinfo$?AddData@CSharedDataPage@@QAEHPAVCListCtrl@@V?$CStringT@DV?$StrTraitMFC_DLL@DV?$ChTraitsCRT@D@ATL@@@@@ATL@@@Z
  0004a	e9 00 00 00 00	 jmp	 ___CxxFrameHandler3
text$x	ENDS
?AddData@CSharedDataPage@@QAEHPAVCListCtrl@@V?$CStringT@DV?$StrTraitMFC_DLL@DV?$ChTraitsCRT@D@ATL@@@@@ATL@@@Z ENDP ; CSharedDataPage::AddData
; Function compile flags: /Ogtp
; File D:\git\src\IBK\IBK_DRFN\ProjSrc\SrcChartEx\ChartAddIn\ChartDesignPropertyAddIn\ChartDesignPropertyAddIn\SharedDataPage.cpp
;	COMDAT ?UpdateItemData@CSharedDataPage@@QAEHPAVCListCtrl@@V?$CStringT@DV?$StrTraitMFC_DLL@DV?$ChTraitsCRT@D@ATL@@@@@ATL@@HHHH@Z
_TEXT	SEGMENT
_tmp$ = -28						; size = 10
__$ArrayPad$ = -16					; size = 4
__$EHRec$ = -12						; size = 12
_pList$ = 8						; size = 4
__szShareName$ = 12					; size = 4
__bStart$ = 16						; size = 4
__bSet$ = 20						; size = 4
__bGet$ = 24						; size = 4
__nIndex$ = 28						; size = 4
?UpdateItemData@CSharedDataPage@@QAEHPAVCListCtrl@@V?$CStringT@DV?$StrTraitMFC_DLL@DV?$ChTraitsCRT@D@ATL@@@@@ATL@@HHHH@Z PROC ; CSharedDataPage::UpdateItemData, COMDAT
; _this$ = ecx

; 325  : {

  00000	55		 push	 ebp
  00001	8b ec		 mov	 ebp, esp
  00003	6a ff		 push	 -1
  00005	68 00 00 00 00	 push	 __ehhandler$?UpdateItemData@CSharedDataPage@@QAEHPAVCListCtrl@@V?$CStringT@DV?$StrTraitMFC_DLL@DV?$ChTraitsCRT@D@ATL@@@@@ATL@@HHHH@Z
  0000a	64 a1 00 00 00
	00		 mov	 eax, DWORD PTR fs:0
  00010	50		 push	 eax
  00011	83 ec 10	 sub	 esp, 16			; 00000010H
  00014	a1 00 00 00 00	 mov	 eax, DWORD PTR ___security_cookie
  00019	33 c5		 xor	 eax, ebp
  0001b	89 45 f0	 mov	 DWORD PTR __$ArrayPad$[ebp], eax
  0001e	56		 push	 esi
  0001f	57		 push	 edi
  00020	50		 push	 eax
  00021	8d 45 f4	 lea	 eax, DWORD PTR __$EHRec$[ebp]
  00024	64 a3 00 00 00
	00		 mov	 DWORD PTR fs:0, eax
  0002a	8b 7d 08	 mov	 edi, DWORD PTR _pList$[ebp]

; 326  : 	ASSERT(pList!=NULL);
; 327  : 	if(_nIndex<0)	return 0;

  0002d	8b 75 1c	 mov	 esi, DWORD PTR __nIndex$[ebp]
  00030	c7 45 fc 00 00
	00 00		 mov	 DWORD PTR __$EHRec$[ebp+8], 0
  00037	85 f6		 test	 esi, esi
  00039	79 04		 jns	 SHORT $LN2@UpdateItem
  0003b	33 f6		 xor	 esi, esi
  0003d	eb 78		 jmp	 SHORT $LN5@UpdateItem
$LN2@UpdateItem:

; 328  : 
; 329  : 	char tmp[10];
; 330  : 	pList->SetItemText(_nIndex, 1, _szShareName);

  0003f	ff 75 0c	 push	 DWORD PTR __szShareName$[ebp]
  00042	8b cf		 mov	 ecx, edi
  00044	6a 01		 push	 1
  00046	56		 push	 esi
  00047	e8 00 00 00 00	 call	 ?SetItemText@CListCtrl@@QAEHHHPBD@Z ; CListCtrl::SetItemText

; 331  : 
; 332  : 	sprintf(tmp, "%d", _bStart);

  0004c	ff 75 10	 push	 DWORD PTR __bStart$[ebp]
  0004f	8d 45 e4	 lea	 eax, DWORD PTR _tmp$[ebp]
  00052	68 00 00 00 00	 push	 OFFSET ??_C@_02DPKJAMEF@?$CFd@
  00057	50		 push	 eax
  00058	e8 00 00 00 00	 call	 _sprintf
  0005d	83 c4 0c	 add	 esp, 12			; 0000000cH

; 333  : 	pList->SetItemText(_nIndex, 2, tmp);

  00060	8d 45 e4	 lea	 eax, DWORD PTR _tmp$[ebp]
  00063	8b cf		 mov	 ecx, edi
  00065	50		 push	 eax
  00066	6a 02		 push	 2
  00068	56		 push	 esi
  00069	e8 00 00 00 00	 call	 ?SetItemText@CListCtrl@@QAEHHHPBD@Z ; CListCtrl::SetItemText

; 334  : 
; 335  : 	sprintf(tmp, "%d", _bSet);

  0006e	ff 75 14	 push	 DWORD PTR __bSet$[ebp]
  00071	8d 45 e4	 lea	 eax, DWORD PTR _tmp$[ebp]
  00074	68 00 00 00 00	 push	 OFFSET ??_C@_02DPKJAMEF@?$CFd@
  00079	50		 push	 eax
  0007a	e8 00 00 00 00	 call	 _sprintf
  0007f	83 c4 0c	 add	 esp, 12			; 0000000cH

; 336  : 	pList->SetItemText(_nIndex, 3, tmp);

  00082	8d 45 e4	 lea	 eax, DWORD PTR _tmp$[ebp]
  00085	8b cf		 mov	 ecx, edi
  00087	50		 push	 eax
  00088	6a 03		 push	 3
  0008a	56		 push	 esi
  0008b	e8 00 00 00 00	 call	 ?SetItemText@CListCtrl@@QAEHHHPBD@Z ; CListCtrl::SetItemText

; 337  : 
; 338  : 	sprintf(tmp, "%d", _bGet);

  00090	ff 75 18	 push	 DWORD PTR __bGet$[ebp]
  00093	8d 45 e4	 lea	 eax, DWORD PTR _tmp$[ebp]
  00096	68 00 00 00 00	 push	 OFFSET ??_C@_02DPKJAMEF@?$CFd@
  0009b	50		 push	 eax
  0009c	e8 00 00 00 00	 call	 _sprintf
  000a1	83 c4 0c	 add	 esp, 12			; 0000000cH

; 339  : 	pList->SetItemText(_nIndex, 4, tmp);

  000a4	8d 45 e4	 lea	 eax, DWORD PTR _tmp$[ebp]
  000a7	8b cf		 mov	 ecx, edi
  000a9	50		 push	 eax
  000aa	6a 04		 push	 4
  000ac	56		 push	 esi
  000ad	e8 00 00 00 00	 call	 ?SetItemText@CListCtrl@@QAEHHHPBD@Z ; CListCtrl::SetItemText

; 340  : 
; 341  : 	return 1;

  000b2	be 01 00 00 00	 mov	 esi, 1
$LN5@UpdateItem:
  000b7	8d 4d 0c	 lea	 ecx, DWORD PTR __szShareName$[ebp]
  000ba	ff 15 00 00 00
	00		 call	 DWORD PTR __imp_??1?$CStringT@DV?$StrTraitMFC_DLL@DV?$ChTraitsCRT@D@ATL@@@@@ATL@@QAE@XZ
  000c0	8b c6		 mov	 eax, esi

; 342  : }

  000c2	8b 4d f4	 mov	 ecx, DWORD PTR __$EHRec$[ebp]
  000c5	64 89 0d 00 00
	00 00		 mov	 DWORD PTR fs:0, ecx
  000cc	59		 pop	 ecx
  000cd	5f		 pop	 edi
  000ce	5e		 pop	 esi
  000cf	8b 4d f0	 mov	 ecx, DWORD PTR __$ArrayPad$[ebp]
  000d2	33 cd		 xor	 ecx, ebp
  000d4	e8 00 00 00 00	 call	 @__security_check_cookie@4
  000d9	8b e5		 mov	 esp, ebp
  000db	5d		 pop	 ebp
  000dc	c2 18 00	 ret	 24			; 00000018H
_TEXT	ENDS
;	COMDAT text$x
text$x	SEGMENT
__unwindfunclet$?UpdateItemData@CSharedDataPage@@QAEHPAVCListCtrl@@V?$CStringT@DV?$StrTraitMFC_DLL@DV?$ChTraitsCRT@D@ATL@@@@@ATL@@HHHH@Z$0:
  00000	8d 4d 0c	 lea	 ecx, DWORD PTR __szShareName$[ebp]
  00003	ff 25 00 00 00
	00		 jmp	 DWORD PTR __imp_??1?$CStringT@DV?$StrTraitMFC_DLL@DV?$ChTraitsCRT@D@ATL@@@@@ATL@@QAE@XZ
  00009	cc		 int	 3
  0000a	cc		 int	 3
  0000b	cc		 int	 3
  0000c	cc		 int	 3
  0000d	cc		 int	 3
__ehhandler$?UpdateItemData@CSharedDataPage@@QAEHPAVCListCtrl@@V?$CStringT@DV?$StrTraitMFC_DLL@DV?$ChTraitsCRT@D@ATL@@@@@ATL@@HHHH@Z:
  0000e	90		 npad	 1
  0000f	90		 npad	 1
  00010	8b 54 24 08	 mov	 edx, DWORD PTR [esp+8]
  00014	8d 42 0c	 lea	 eax, DWORD PTR [edx+12]
  00017	8b 4a e4	 mov	 ecx, DWORD PTR [edx-28]
  0001a	33 c8		 xor	 ecx, eax
  0001c	e8 00 00 00 00	 call	 @__security_check_cookie@4
  00021	8b 4a fc	 mov	 ecx, DWORD PTR [edx-4]
  00024	33 c8		 xor	 ecx, eax
  00026	e8 00 00 00 00	 call	 @__security_check_cookie@4
  0002b	b8 00 00 00 00	 mov	 eax, OFFSET __ehfuncinfo$?UpdateItemData@CSharedDataPage@@QAEHPAVCListCtrl@@V?$CStringT@DV?$StrTraitMFC_DLL@DV?$ChTraitsCRT@D@ATL@@@@@ATL@@HHHH@Z
  00030	e9 00 00 00 00	 jmp	 ___CxxFrameHandler3
text$x	ENDS
?UpdateItemData@CSharedDataPage@@QAEHPAVCListCtrl@@V?$CStringT@DV?$StrTraitMFC_DLL@DV?$ChTraitsCRT@D@ATL@@@@@ATL@@HHHH@Z ENDP ; CSharedDataPage::UpdateItemData
; Function compile flags: /Ogtp
; File D:\git\src\IBK\IBK_DRFN\ProjSrc\SrcChartEx\ChartAddIn\ChartDesignPropertyAddIn\ChartDesignPropertyAddIn\SharedDataPage.cpp
; File C:\Program Files (x86)\Microsoft Visual Studio\2019\Community\VC\Tools\MSVC\14.29.30133\atlmfc\include\afxcmn.inl
; File D:\git\src\IBK\IBK_DRFN\ProjSrc\SrcChartEx\ChartAddIn\ChartDesignPropertyAddIn\ChartDesignPropertyAddIn\SharedDataPage.cpp
; File C:\Program Files (x86)\Microsoft Visual Studio\2019\Community\VC\Tools\MSVC\14.29.30133\atlmfc\include\afxcmn.inl
; File D:\git\src\IBK\IBK_DRFN\ProjSrc\SrcChartEx\ChartAddIn\ChartDesignPropertyAddIn\ChartDesignPropertyAddIn\SharedDataPage.cpp
;	COMDAT ?MakeShareList@CSharedDataPage@@QAEXPAVCListCtrl@@I@Z
_TEXT	SEGMENT
_this$1$ = -64						; size = 4
_nCount$1$ = -60					; size = 4
$T2 = -56						; size = 4
$T3 = -52						; size = 4
$T4 = -48						; size = 4
$T5 = -44						; size = 4
_szShare$ = -40						; size = 4
_szTmp$ = -36						; size = 4
_sGet$ = -32						; size = 4
_sSet$ = -28						; size = 4
_sStart$ = -24						; size = 4
_szText$ = -20						; size = 4
_szList$ = -16						; size = 4
__$EHRec$ = -12						; size = 12
_pList$ = 8						; size = 4
_nID$ = 12						; size = 4
?MakeShareList@CSharedDataPage@@QAEXPAVCListCtrl@@I@Z PROC ; CSharedDataPage::MakeShareList, COMDAT
; _this$ = ecx

; 191  : {

  00000	55		 push	 ebp
  00001	8b ec		 mov	 ebp, esp
  00003	6a ff		 push	 -1
  00005	68 00 00 00 00	 push	 __ehhandler$?MakeShareList@CSharedDataPage@@QAEXPAVCListCtrl@@I@Z
  0000a	64 a1 00 00 00
	00		 mov	 eax, DWORD PTR fs:0
  00010	50		 push	 eax
  00011	83 ec 34	 sub	 esp, 52			; 00000034H
  00014	53		 push	 ebx
  00015	56		 push	 esi
  00016	57		 push	 edi
  00017	a1 00 00 00 00	 mov	 eax, DWORD PTR ___security_cookie
  0001c	33 c5		 xor	 eax, ebp
  0001e	50		 push	 eax
  0001f	8d 45 f4	 lea	 eax, DWORD PTR __$EHRec$[ebp]
  00022	64 a3 00 00 00
	00		 mov	 DWORD PTR fs:0, eax
  00028	89 4d c0	 mov	 DWORD PTR _this$1$[ebp], ecx

; 192  : 	ASSERT(pList!=NULL);
; 193  : 
; 194  : 	CString szList, szShare, szTmp;

  0002b	8d 4d f0	 lea	 ecx, DWORD PTR _szList$[ebp]
  0002e	ff 15 00 00 00
	00		 call	 DWORD PTR __imp_??0?$CStringT@DV?$StrTraitMFC_DLL@DV?$ChTraitsCRT@D@ATL@@@@@ATL@@QAE@XZ
  00034	8d 4d d8	 lea	 ecx, DWORD PTR _szShare$[ebp]
  00037	c7 45 fc 00 00
	00 00		 mov	 DWORD PTR __$EHRec$[ebp+8], 0
  0003e	ff 15 00 00 00
	00		 call	 DWORD PTR __imp_??0?$CStringT@DV?$StrTraitMFC_DLL@DV?$ChTraitsCRT@D@ATL@@@@@ATL@@QAE@XZ
  00044	8d 4d dc	 lea	 ecx, DWORD PTR _szTmp$[ebp]
  00047	ff 15 00 00 00
	00		 call	 DWORD PTR __imp_??0?$CStringT@DV?$StrTraitMFC_DLL@DV?$ChTraitsCRT@D@ATL@@@@@ATL@@QAE@XZ

; 195  : 	CString sGet, sSet, sStart;

  0004d	8d 4d e0	 lea	 ecx, DWORD PTR _sGet$[ebp]
  00050	ff 15 00 00 00
	00		 call	 DWORD PTR __imp_??0?$CStringT@DV?$StrTraitMFC_DLL@DV?$ChTraitsCRT@D@ATL@@@@@ATL@@QAE@XZ
  00056	8d 4d e4	 lea	 ecx, DWORD PTR _sSet$[ebp]
  00059	ff 15 00 00 00
	00		 call	 DWORD PTR __imp_??0?$CStringT@DV?$StrTraitMFC_DLL@DV?$ChTraitsCRT@D@ATL@@@@@ATL@@QAE@XZ
  0005f	8d 4d e8	 lea	 ecx, DWORD PTR _sStart$[ebp]
  00062	ff 15 00 00 00
	00		 call	 DWORD PTR __imp_??0?$CStringT@DV?$StrTraitMFC_DLL@DV?$ChTraitsCRT@D@ATL@@@@@ATL@@QAE@XZ
; File C:\Program Files (x86)\Microsoft Visual Studio\2019\Community\VC\Tools\MSVC\14.29.30133\atlmfc\include\afxcmn.inl

; 155  : 	{ ASSERT(::IsWindow(m_hWnd)); return (int) ::SendMessage(m_hWnd, LVM_GETITEMCOUNT, 0, 0L); }

  00068	8b 75 08	 mov	 esi, DWORD PTR _pList$[ebp]
  0006b	6a 00		 push	 0
  0006d	6a 00		 push	 0
  0006f	68 04 10 00 00	 push	 4100			; 00001004H
  00074	ff 76 20	 push	 DWORD PTR [esi+32]
; File D:\git\src\IBK\IBK_DRFN\ProjSrc\SrcChartEx\ChartAddIn\ChartDesignPropertyAddIn\ChartDesignPropertyAddIn\SharedDataPage.cpp

; 195  : 	CString sGet, sSet, sStart;

  00077	c6 45 fc 05	 mov	 BYTE PTR __$EHRec$[ebp+8], 5
; File C:\Program Files (x86)\Microsoft Visual Studio\2019\Community\VC\Tools\MSVC\14.29.30133\atlmfc\include\afxcmn.inl

; 155  : 	{ ASSERT(::IsWindow(m_hWnd)); return (int) ::SendMessage(m_hWnd, LVM_GETITEMCOUNT, 0, 0L); }

  0007b	ff 15 00 00 00
	00		 call	 DWORD PTR __imp__SendMessageA@16
; File D:\git\src\IBK\IBK_DRFN\ProjSrc\SrcChartEx\ChartAddIn\ChartDesignPropertyAddIn\ChartDesignPropertyAddIn\SharedDataPage.cpp

; 199  : 	for(int i=0; i<nCount; i++) 

  00081	33 db		 xor	 ebx, ebx
  00083	89 45 c4	 mov	 DWORD PTR _nCount$1$[ebp], eax
  00086	85 c0		 test	 eax, eax
  00088	0f 8e fb 00 00
	00		 jle	 $LN3@MakeShareL
  0008e	66 90		 npad	 2
$LL4@MakeShareL:

; 200  : 	{
; 201  : 		szShare = pList->GetItemText(i, 1);

  00090	6a 01		 push	 1
  00092	53		 push	 ebx
  00093	8d 45 d4	 lea	 eax, DWORD PTR $T5[ebp]
  00096	8b ce		 mov	 ecx, esi
  00098	50		 push	 eax
  00099	e8 00 00 00 00	 call	 ?GetItemText@CListCtrl@@QBE?AV?$CStringT@DV?$StrTraitMFC_DLL@DV?$ChTraitsCRT@D@ATL@@@@@ATL@@HH@Z ; CListCtrl::GetItemText
  0009e	50		 push	 eax
  0009f	8d 4d d8	 lea	 ecx, DWORD PTR _szShare$[ebp]
  000a2	c6 45 fc 06	 mov	 BYTE PTR __$EHRec$[ebp+8], 6
  000a6	ff 15 00 00 00
	00		 call	 DWORD PTR __imp_??4?$CStringT@DV?$StrTraitMFC_DLL@DV?$ChTraitsCRT@D@ATL@@@@@ATL@@QAEAAV01@ABV01@@Z
  000ac	8d 4d d4	 lea	 ecx, DWORD PTR $T5[ebp]
  000af	c6 45 fc 05	 mov	 BYTE PTR __$EHRec$[ebp+8], 5
  000b3	ff 15 00 00 00
	00		 call	 DWORD PTR __imp_??1?$CStringT@DV?$StrTraitMFC_DLL@DV?$ChTraitsCRT@D@ATL@@@@@ATL@@QAE@XZ

; 202  : 		sStart = pList->GetItemText(i, 2);

  000b9	6a 02		 push	 2
  000bb	53		 push	 ebx
  000bc	8d 45 d0	 lea	 eax, DWORD PTR $T4[ebp]
  000bf	8b ce		 mov	 ecx, esi
  000c1	50		 push	 eax
  000c2	e8 00 00 00 00	 call	 ?GetItemText@CListCtrl@@QBE?AV?$CStringT@DV?$StrTraitMFC_DLL@DV?$ChTraitsCRT@D@ATL@@@@@ATL@@HH@Z ; CListCtrl::GetItemText
  000c7	50		 push	 eax
  000c8	8d 4d e8	 lea	 ecx, DWORD PTR _sStart$[ebp]
  000cb	c6 45 fc 07	 mov	 BYTE PTR __$EHRec$[ebp+8], 7
  000cf	ff 15 00 00 00
	00		 call	 DWORD PTR __imp_??4?$CStringT@DV?$StrTraitMFC_DLL@DV?$ChTraitsCRT@D@ATL@@@@@ATL@@QAEAAV01@ABV01@@Z
  000d5	8d 4d d0	 lea	 ecx, DWORD PTR $T4[ebp]
  000d8	c6 45 fc 05	 mov	 BYTE PTR __$EHRec$[ebp+8], 5
  000dc	ff 15 00 00 00
	00		 call	 DWORD PTR __imp_??1?$CStringT@DV?$StrTraitMFC_DLL@DV?$ChTraitsCRT@D@ATL@@@@@ATL@@QAE@XZ

; 203  : 		sSet = pList->GetItemText(i, 3);

  000e2	6a 03		 push	 3
  000e4	53		 push	 ebx
  000e5	8d 45 cc	 lea	 eax, DWORD PTR $T3[ebp]
  000e8	8b ce		 mov	 ecx, esi
  000ea	50		 push	 eax
  000eb	e8 00 00 00 00	 call	 ?GetItemText@CListCtrl@@QBE?AV?$CStringT@DV?$StrTraitMFC_DLL@DV?$ChTraitsCRT@D@ATL@@@@@ATL@@HH@Z ; CListCtrl::GetItemText
  000f0	50		 push	 eax
  000f1	8d 4d e4	 lea	 ecx, DWORD PTR _sSet$[ebp]
  000f4	c6 45 fc 08	 mov	 BYTE PTR __$EHRec$[ebp+8], 8
  000f8	ff 15 00 00 00
	00		 call	 DWORD PTR __imp_??4?$CStringT@DV?$StrTraitMFC_DLL@DV?$ChTraitsCRT@D@ATL@@@@@ATL@@QAEAAV01@ABV01@@Z
  000fe	8d 4d cc	 lea	 ecx, DWORD PTR $T3[ebp]
  00101	c6 45 fc 05	 mov	 BYTE PTR __$EHRec$[ebp+8], 5
  00105	ff 15 00 00 00
	00		 call	 DWORD PTR __imp_??1?$CStringT@DV?$StrTraitMFC_DLL@DV?$ChTraitsCRT@D@ATL@@@@@ATL@@QAE@XZ

; 204  : 		sGet = pList->GetItemText(i, 4);

  0010b	6a 04		 push	 4
  0010d	53		 push	 ebx
  0010e	8d 45 c8	 lea	 eax, DWORD PTR $T2[ebp]
  00111	8b ce		 mov	 ecx, esi
  00113	50		 push	 eax
  00114	e8 00 00 00 00	 call	 ?GetItemText@CListCtrl@@QBE?AV?$CStringT@DV?$StrTraitMFC_DLL@DV?$ChTraitsCRT@D@ATL@@@@@ATL@@HH@Z ; CListCtrl::GetItemText
  00119	50		 push	 eax
  0011a	8d 4d e0	 lea	 ecx, DWORD PTR _sGet$[ebp]
  0011d	c6 45 fc 09	 mov	 BYTE PTR __$EHRec$[ebp+8], 9
  00121	ff 15 00 00 00
	00		 call	 DWORD PTR __imp_??4?$CStringT@DV?$StrTraitMFC_DLL@DV?$ChTraitsCRT@D@ATL@@@@@ATL@@QAEAAV01@ABV01@@Z
  00127	8d 4d c8	 lea	 ecx, DWORD PTR $T2[ebp]
  0012a	c6 45 fc 05	 mov	 BYTE PTR __$EHRec$[ebp+8], 5
  0012e	ff 15 00 00 00
	00		 call	 DWORD PTR __imp_??1?$CStringT@DV?$StrTraitMFC_DLL@DV?$ChTraitsCRT@D@ATL@@@@@ATL@@QAE@XZ

; 205  : 
; 206  : 		nStart = atoi(sStart);

  00134	ff 75 e8	 push	 DWORD PTR _sStart$[ebp]
  00137	ff 15 00 00 00
	00		 call	 DWORD PTR __imp__atoi

; 207  : 		nGet = atoi(sGet);

  0013d	ff 75 e0	 push	 DWORD PTR _sGet$[ebp]
  00140	8b f8		 mov	 edi, eax
  00142	ff 15 00 00 00
	00		 call	 DWORD PTR __imp__atoi

; 208  : 		nSet = atoi(sSet);

  00148	ff 75 e4	 push	 DWORD PTR _sSet$[ebp]
  0014b	8b f0		 mov	 esi, eax
  0014d	ff 15 00 00 00
	00		 call	 DWORD PTR __imp__atoi

; 209  : 		
; 210  : 
; 211  : 		szTmp.Format("%s%d;", szShare, nStart+(nSet*2)+(nGet*4));

  00153	8d 04 70	 lea	 eax, DWORD PTR [eax+esi*2]
  00156	8d 04 47	 lea	 eax, DWORD PTR [edi+eax*2]
  00159	50		 push	 eax
  0015a	ff 75 d8	 push	 DWORD PTR _szShare$[ebp]
  0015d	8d 45 dc	 lea	 eax, DWORD PTR _szTmp$[ebp]
  00160	68 00 00 00 00	 push	 OFFSET ??_C@_05EDKOIDAO@?$CFs?$CFd?$DL@
  00165	50		 push	 eax
  00166	ff 15 00 00 00
	00		 call	 DWORD PTR __imp_?Format@?$CStringT@DV?$StrTraitMFC_DLL@DV?$ChTraitsCRT@D@ATL@@@@@ATL@@QAAXPBDZZ
  0016c	83 c4 1c	 add	 esp, 28			; 0000001cH

; 212  : 		szList += szTmp;

  0016f	8d 45 dc	 lea	 eax, DWORD PTR _szTmp$[ebp]
  00172	8d 4d f0	 lea	 ecx, DWORD PTR _szList$[ebp]
  00175	50		 push	 eax
  00176	ff 15 00 00 00
	00		 call	 DWORD PTR __imp_??Y?$CStringT@DV?$StrTraitMFC_DLL@DV?$ChTraitsCRT@D@ATL@@@@@ATL@@QAEAAV01@ABV?$CSimpleStringT@D$00@1@@Z
  0017c	8b 75 08	 mov	 esi, DWORD PTR _pList$[ebp]
  0017f	43		 inc	 ebx
  00180	3b 5d c4	 cmp	 ebx, DWORD PTR _nCount$1$[ebp]
  00183	0f 8c 07 ff ff
	ff		 jl	 $LL4@MakeShareL
$LN3@MakeShareL:

; 213  : 	}
; 214  : 
; 215  : 	CEdit* pEdit = (CEdit*)GetDlgItem(nID);

  00189	ff 75 0c	 push	 DWORD PTR _nID$[ebp]
  0018c	8b 4d c0	 mov	 ecx, DWORD PTR _this$1$[ebp]
  0018f	e8 00 00 00 00	 call	 ?GetDlgItem@CWnd@@QBEPAV1@H@Z ; CWnd::GetDlgItem
  00194	8b f0		 mov	 esi, eax

; 216  : 	if(!pEdit) return;

  00196	85 f6		 test	 esi, esi
  00198	74 3b		 je	 SHORT $LN19@MakeShareL

; 217  : 
; 218  : 	CString szText;

  0019a	8d 4d ec	 lea	 ecx, DWORD PTR _szText$[ebp]
  0019d	ff 15 00 00 00
	00		 call	 DWORD PTR __imp_??0?$CStringT@DV?$StrTraitMFC_DLL@DV?$ChTraitsCRT@D@ATL@@@@@ATL@@QAE@XZ

; 219  : 	pEdit->GetWindowText(szText);

  001a3	8d 45 ec	 lea	 eax, DWORD PTR _szText$[ebp]
  001a6	c6 45 fc 0a	 mov	 BYTE PTR __$EHRec$[ebp+8], 10 ; 0000000aH
  001aa	50		 push	 eax
  001ab	8b ce		 mov	 ecx, esi
  001ad	e8 00 00 00 00	 call	 ?GetWindowTextA@CWnd@@QBEXAAV?$CStringT@DV?$StrTraitMFC_DLL@DV?$ChTraitsCRT@D@ATL@@@@@ATL@@@Z ; CWnd::GetWindowTextA

; 220  : 
; 221  : 	if(szText.Compare(szList))

  001b2	ff 75 f0	 push	 DWORD PTR _szList$[ebp]
  001b5	8d 4d ec	 lea	 ecx, DWORD PTR _szText$[ebp]
  001b8	ff 15 00 00 00
	00		 call	 DWORD PTR __imp_?Compare@?$CStringT@DV?$StrTraitMFC_DLL@DV?$ChTraitsCRT@D@ATL@@@@@ATL@@QBEHPBD@Z
  001be	85 c0		 test	 eax, eax
  001c0	74 0a		 je	 SHORT $LN6@MakeShareL

; 222  : 		pEdit->SetWindowText(szList);

  001c2	ff 75 f0	 push	 DWORD PTR _szList$[ebp]
  001c5	8b ce		 mov	 ecx, esi
  001c7	e8 00 00 00 00	 call	 ?SetWindowTextA@CWnd@@QAEXPBD@Z ; CWnd::SetWindowTextA
$LN6@MakeShareL:

; 223  : 
; 224  : }

  001cc	8d 4d ec	 lea	 ecx, DWORD PTR _szText$[ebp]
  001cf	ff 15 00 00 00
	00		 call	 DWORD PTR __imp_??1?$CStringT@DV?$StrTraitMFC_DLL@DV?$ChTraitsCRT@D@ATL@@@@@ATL@@QAE@XZ
$LN19@MakeShareL:
  001d5	8d 4d e8	 lea	 ecx, DWORD PTR _sStart$[ebp]
  001d8	ff 15 00 00 00
	00		 call	 DWORD PTR __imp_??1?$CStringT@DV?$StrTraitMFC_DLL@DV?$ChTraitsCRT@D@ATL@@@@@ATL@@QAE@XZ
  001de	8d 4d e4	 lea	 ecx, DWORD PTR _sSet$[ebp]
  001e1	ff 15 00 00 00
	00		 call	 DWORD PTR __imp_??1?$CStringT@DV?$StrTraitMFC_DLL@DV?$ChTraitsCRT@D@ATL@@@@@ATL@@QAE@XZ
  001e7	8d 4d e0	 lea	 ecx, DWORD PTR _sGet$[ebp]
  001ea	ff 15 00 00 00
	00		 call	 DWORD PTR __imp_??1?$CStringT@DV?$StrTraitMFC_DLL@DV?$ChTraitsCRT@D@ATL@@@@@ATL@@QAE@XZ
  001f0	8d 4d dc	 lea	 ecx, DWORD PTR _szTmp$[ebp]
  001f3	ff 15 00 00 00
	00		 call	 DWORD PTR __imp_??1?$CStringT@DV?$StrTraitMFC_DLL@DV?$ChTraitsCRT@D@ATL@@@@@ATL@@QAE@XZ
  001f9	8d 4d d8	 lea	 ecx, DWORD PTR _szShare$[ebp]
  001fc	ff 15 00 00 00
	00		 call	 DWORD PTR __imp_??1?$CStringT@DV?$StrTraitMFC_DLL@DV?$ChTraitsCRT@D@ATL@@@@@ATL@@QAE@XZ
  00202	8d 4d f0	 lea	 ecx, DWORD PTR _szList$[ebp]
  00205	ff 15 00 00 00
	00		 call	 DWORD PTR __imp_??1?$CStringT@DV?$StrTraitMFC_DLL@DV?$ChTraitsCRT@D@ATL@@@@@ATL@@QAE@XZ
  0020b	8b 4d f4	 mov	 ecx, DWORD PTR __$EHRec$[ebp]
  0020e	64 89 0d 00 00
	00 00		 mov	 DWORD PTR fs:0, ecx
  00215	59		 pop	 ecx
  00216	5f		 pop	 edi
  00217	5e		 pop	 esi
  00218	5b		 pop	 ebx
  00219	8b e5		 mov	 esp, ebp
  0021b	5d		 pop	 ebp
  0021c	c2 08 00	 ret	 8
_TEXT	ENDS
;	COMDAT text$x
text$x	SEGMENT
__unwindfunclet$?MakeShareList@CSharedDataPage@@QAEXPAVCListCtrl@@I@Z$0:
  00000	8d 4d f0	 lea	 ecx, DWORD PTR _szList$[ebp]
  00003	ff 25 00 00 00
	00		 jmp	 DWORD PTR __imp_??1?$CStringT@DV?$StrTraitMFC_DLL@DV?$ChTraitsCRT@D@ATL@@@@@ATL@@QAE@XZ
__unwindfunclet$?MakeShareList@CSharedDataPage@@QAEXPAVCListCtrl@@I@Z$1:
  00009	8d 4d d8	 lea	 ecx, DWORD PTR _szShare$[ebp]
  0000c	ff 25 00 00 00
	00		 jmp	 DWORD PTR __imp_??1?$CStringT@DV?$StrTraitMFC_DLL@DV?$ChTraitsCRT@D@ATL@@@@@ATL@@QAE@XZ
__unwindfunclet$?MakeShareList@CSharedDataPage@@QAEXPAVCListCtrl@@I@Z$2:
  00012	8d 4d dc	 lea	 ecx, DWORD PTR _szTmp$[ebp]
  00015	ff 25 00 00 00
	00		 jmp	 DWORD PTR __imp_??1?$CStringT@DV?$StrTraitMFC_DLL@DV?$ChTraitsCRT@D@ATL@@@@@ATL@@QAE@XZ
__unwindfunclet$?MakeShareList@CSharedDataPage@@QAEXPAVCListCtrl@@I@Z$3:
  0001b	8d 4d e0	 lea	 ecx, DWORD PTR _sGet$[ebp]
  0001e	ff 25 00 00 00
	00		 jmp	 DWORD PTR __imp_??1?$CStringT@DV?$StrTraitMFC_DLL@DV?$ChTraitsCRT@D@ATL@@@@@ATL@@QAE@XZ
__unwindfunclet$?MakeShareList@CSharedDataPage@@QAEXPAVCListCtrl@@I@Z$4:
  00024	8d 4d e4	 lea	 ecx, DWORD PTR _sSet$[ebp]
  00027	ff 25 00 00 00
	00		 jmp	 DWORD PTR __imp_??1?$CStringT@DV?$StrTraitMFC_DLL@DV?$ChTraitsCRT@D@ATL@@@@@ATL@@QAE@XZ
__unwindfunclet$?MakeShareList@CSharedDataPage@@QAEXPAVCListCtrl@@I@Z$5:
  0002d	8d 4d e8	 lea	 ecx, DWORD PTR _sStart$[ebp]
  00030	ff 25 00 00 00
	00		 jmp	 DWORD PTR __imp_??1?$CStringT@DV?$StrTraitMFC_DLL@DV?$ChTraitsCRT@D@ATL@@@@@ATL@@QAE@XZ
__unwindfunclet$?MakeShareList@CSharedDataPage@@QAEXPAVCListCtrl@@I@Z$6:
  00036	8d 4d d4	 lea	 ecx, DWORD PTR $T5[ebp]
  00039	ff 25 00 00 00
	00		 jmp	 DWORD PTR __imp_??1?$CStringT@DV?$StrTraitMFC_DLL@DV?$ChTraitsCRT@D@ATL@@@@@ATL@@QAE@XZ
__unwindfunclet$?MakeShareList@CSharedDataPage@@QAEXPAVCListCtrl@@I@Z$7:
  0003f	8d 4d d0	 lea	 ecx, DWORD PTR $T4[ebp]
  00042	ff 25 00 00 00
	00		 jmp	 DWORD PTR __imp_??1?$CStringT@DV?$StrTraitMFC_DLL@DV?$ChTraitsCRT@D@ATL@@@@@ATL@@QAE@XZ
__unwindfunclet$?MakeShareList@CSharedDataPage@@QAEXPAVCListCtrl@@I@Z$8:
  00048	8d 4d cc	 lea	 ecx, DWORD PTR $T3[ebp]
  0004b	ff 25 00 00 00
	00		 jmp	 DWORD PTR __imp_??1?$CStringT@DV?$StrTraitMFC_DLL@DV?$ChTraitsCRT@D@ATL@@@@@ATL@@QAE@XZ
__unwindfunclet$?MakeShareList@CSharedDataPage@@QAEXPAVCListCtrl@@I@Z$9:
  00051	8d 4d c8	 lea	 ecx, DWORD PTR $T2[ebp]
  00054	ff 25 00 00 00
	00		 jmp	 DWORD PTR __imp_??1?$CStringT@DV?$StrTraitMFC_DLL@DV?$ChTraitsCRT@D@ATL@@@@@ATL@@QAE@XZ
__unwindfunclet$?MakeShareList@CSharedDataPage@@QAEXPAVCListCtrl@@I@Z$10:
  0005a	8d 4d ec	 lea	 ecx, DWORD PTR _szText$[ebp]
  0005d	ff 25 00 00 00
	00		 jmp	 DWORD PTR __imp_??1?$CStringT@DV?$StrTraitMFC_DLL@DV?$ChTraitsCRT@D@ATL@@@@@ATL@@QAE@XZ
  00063	cc		 int	 3
  00064	cc		 int	 3
  00065	cc		 int	 3
  00066	cc		 int	 3
  00067	cc		 int	 3
__ehhandler$?MakeShareList@CSharedDataPage@@QAEXPAVCListCtrl@@I@Z:
  00068	90		 npad	 1
  00069	90		 npad	 1
  0006a	8b 54 24 08	 mov	 edx, DWORD PTR [esp+8]
  0006e	8d 42 0c	 lea	 eax, DWORD PTR [edx+12]
  00071	8b 4a bc	 mov	 ecx, DWORD PTR [edx-68]
  00074	33 c8		 xor	 ecx, eax
  00076	e8 00 00 00 00	 call	 @__security_check_cookie@4
  0007b	b8 00 00 00 00	 mov	 eax, OFFSET __ehfuncinfo$?MakeShareList@CSharedDataPage@@QAEXPAVCListCtrl@@I@Z
  00080	e9 00 00 00 00	 jmp	 ___CxxFrameHandler3
text$x	ENDS
?MakeShareList@CSharedDataPage@@QAEXPAVCListCtrl@@I@Z ENDP ; CSharedDataPage::MakeShareList
; Function compile flags: /Ogtp
; File D:\git\src\IBK\IBK_DRFN\ProjSrc\SrcChartEx\ChartAddIn\ChartDesignPropertyAddIn\ChartDesignPropertyAddIn\SharedDataPage.cpp
; File C:\Program Files (x86)\Microsoft Visual Studio\2019\Community\VC\Tools\MSVC\14.29.30133\atlmfc\include\afxwin2.inl
; File C:\Program Files (x86)\Microsoft Visual Studio\2019\Community\VC\Tools\MSVC\14.29.30133\atlmfc\include\atltypes.h
; File C:\Program Files (x86)\Microsoft Visual Studio\2019\Community\VC\Tools\MSVC\14.29.30133\atlmfc\include\afxwin2.inl
; File D:\git\src\IBK\IBK_DRFN\ProjSrc\SrcChartEx\ChartAddIn\ChartDesignPropertyAddIn\ChartDesignPropertyAddIn\SharedDataPage.cpp
;	COMDAT ?InitList@CSharedDataPage@@QAEXPAVCListCtrl@@PBD@Z
_TEXT	SEGMENT
_rc$ = -20						; size = 16
__$ArrayPad$ = -4					; size = 4
_pList$ = 8						; size = 4
__szData$ = 12						; size = 4
?InitList@CSharedDataPage@@QAEXPAVCListCtrl@@PBD@Z PROC	; CSharedDataPage::InitList, COMDAT
; _this$ = ecx

; 87   : {

  00000	55		 push	 ebp
  00001	8b ec		 mov	 ebp, esp
  00003	83 ec 18	 sub	 esp, 24			; 00000018H
  00006	a1 00 00 00 00	 mov	 eax, DWORD PTR ___security_cookie
  0000b	33 c5		 xor	 eax, ebp
  0000d	89 45 fc	 mov	 DWORD PTR __$ArrayPad$[ebp], eax
  00010	53		 push	 ebx
  00011	56		 push	 esi
  00012	8b 75 0c	 mov	 esi, DWORD PTR __szData$[ebp]
  00015	8b d9		 mov	 ebx, ecx
  00017	57		 push	 edi
  00018	8b 7d 08	 mov	 edi, DWORD PTR _pList$[ebp]
; File C:\Program Files (x86)\Microsoft Visual Studio\2019\Community\VC\Tools\MSVC\14.29.30133\atlmfc\include\afxwin2.inl

; 32   : 	{ ASSERT(::IsWindow(m_hWnd)); return ::SendMessage(m_hWnd, message, wParam, lParam); }

  0001b	6a 30		 push	 48			; 00000030H
  0001d	6a 00		 push	 0
  0001f	68 36 10 00 00	 push	 4150			; 00001036H
  00024	ff 77 20	 push	 DWORD PTR [edi+32]
  00027	ff 15 00 00 00
	00		 call	 DWORD PTR __imp__SendMessageA@16

; 84   : 	{ ASSERT(::IsWindow(m_hWnd)); ::GetWindowRect(m_hWnd, lpRect); }

  0002d	8d 45 ec	 lea	 eax, DWORD PTR _rc$[ebp]
  00030	0f 57 c0	 xorps	 xmm0, xmm0
  00033	50		 push	 eax
  00034	ff 77 20	 push	 DWORD PTR [edi+32]
; File C:\Program Files (x86)\Microsoft Visual Studio\2019\Community\VC\Tools\MSVC\14.29.30133\atlmfc\include\atltypes.h

; 528  : 	left = 0;

  00037	0f 11 45 ec	 movups	 XMMWORD PTR _rc$[ebp], xmm0
; File C:\Program Files (x86)\Microsoft Visual Studio\2019\Community\VC\Tools\MSVC\14.29.30133\atlmfc\include\afxwin2.inl

; 84   : 	{ ASSERT(::IsWindow(m_hWnd)); ::GetWindowRect(m_hWnd, lpRect); }

  0003b	ff 15 00 00 00
	00		 call	 DWORD PTR __imp__GetWindowRect@8
; File D:\git\src\IBK\IBK_DRFN\ProjSrc\SrcChartEx\ChartAddIn\ChartDesignPropertyAddIn\ChartDesignPropertyAddIn\SharedDataPage.cpp

; 95   : 	pList->InsertColumn(0,"#",LVCFMT_LEFT, 20);   // INDEX

  00041	6a ff		 push	 -1
  00043	6a 14		 push	 20			; 00000014H
  00045	6a 00		 push	 0
  00047	68 00 00 00 00	 push	 OFFSET ??_C@_01IPJKGB@?$CD@
  0004c	6a 00		 push	 0
  0004e	8b cf		 mov	 ecx, edi
  00050	e8 00 00 00 00	 call	 ?InsertColumn@CListCtrl@@QAEHHPBDHHH@Z ; CListCtrl::InsertColumn

; 96   : 	pList->InsertColumn(1,"ShareName",LVCFMT_LEFT, rc.Width()-180);   // 

  00055	8b 45 f4	 mov	 eax, DWORD PTR _rc$[ebp+8]
  00058	8b cf		 mov	 ecx, edi
  0005a	2b 45 ec	 sub	 eax, DWORD PTR _rc$[ebp]
  0005d	6a ff		 push	 -1
  0005f	2d b4 00 00 00	 sub	 eax, 180		; 000000b4H
  00064	50		 push	 eax
  00065	6a 00		 push	 0
  00067	68 00 00 00 00	 push	 OFFSET ??_C@_09KKLOMHGP@ShareName@
  0006c	6a 01		 push	 1
  0006e	e8 00 00 00 00	 call	 ?InsertColumn@CListCtrl@@QAEHHPBDHHH@Z ; CListCtrl::InsertColumn

; 97   : 	pList->InsertColumn(2,"Start",LVCFMT_LEFT, 50);		// Start

  00073	6a ff		 push	 -1
  00075	6a 32		 push	 50			; 00000032H
  00077	6a 00		 push	 0
  00079	68 00 00 00 00	 push	 OFFSET ??_C@_05FHMJPCKA@Start@
  0007e	6a 02		 push	 2
  00080	8b cf		 mov	 ecx, edi
  00082	e8 00 00 00 00	 call	 ?InsertColumn@CListCtrl@@QAEHHPBDHHH@Z ; CListCtrl::InsertColumn

; 98   : 	pList->InsertColumn(3,"Set",LVCFMT_LEFT, 50 );		// Set

  00087	6a ff		 push	 -1
  00089	6a 32		 push	 50			; 00000032H
  0008b	6a 00		 push	 0
  0008d	68 00 00 00 00	 push	 OFFSET ??_C@_03CEMDFJG@Set@
  00092	6a 03		 push	 3
  00094	8b cf		 mov	 ecx, edi
  00096	e8 00 00 00 00	 call	 ?InsertColumn@CListCtrl@@QAEHHPBDHHH@Z ; CListCtrl::InsertColumn

; 99   : 	pList->InsertColumn(4,"Get",LVCFMT_LEFT, 50 );		// Get

  0009b	6a ff		 push	 -1
  0009d	6a 32		 push	 50			; 00000032H
  0009f	6a 00		 push	 0
  000a1	68 00 00 00 00	 push	 OFFSET ??_C@_03NNDHPFFO@Get@
  000a6	6a 04		 push	 4
  000a8	8b cf		 mov	 ecx, edi
  000aa	e8 00 00 00 00	 call	 ?InsertColumn@CListCtrl@@QAEHHPBDHHH@Z ; CListCtrl::InsertColumn

; 100  : 
; 101  : 	AddData(pList, _szData);

  000af	51		 push	 ecx
  000b0	8b cc		 mov	 ecx, esp
  000b2	56		 push	 esi
  000b3	ff 15 00 00 00
	00		 call	 DWORD PTR __imp_??0?$CStringT@DV?$StrTraitMFC_DLL@DV?$ChTraitsCRT@D@ATL@@@@@ATL@@QAE@PBD@Z
  000b9	57		 push	 edi
  000ba	8b cb		 mov	 ecx, ebx
  000bc	e8 00 00 00 00	 call	 ?AddData@CSharedDataPage@@QAEHPAVCListCtrl@@V?$CStringT@DV?$StrTraitMFC_DLL@DV?$ChTraitsCRT@D@ATL@@@@@ATL@@@Z ; CSharedDataPage::AddData

; 102  : }

  000c1	8b 4d fc	 mov	 ecx, DWORD PTR __$ArrayPad$[ebp]
  000c4	5f		 pop	 edi
  000c5	5e		 pop	 esi
  000c6	33 cd		 xor	 ecx, ebp
  000c8	5b		 pop	 ebx
  000c9	e8 00 00 00 00	 call	 @__security_check_cookie@4
  000ce	8b e5		 mov	 esp, ebp
  000d0	5d		 pop	 ebp
  000d1	c2 08 00	 ret	 8
?InitList@CSharedDataPage@@QAEXPAVCListCtrl@@PBD@Z ENDP	; CSharedDataPage::InitList
_TEXT	ENDS
; Function compile flags: /Ogtp
; File D:\git\src\IBK\IBK_DRFN\ProjSrc\SrcChartEx\ChartAddIn\ChartDesignPropertyAddIn\ChartDesignPropertyAddIn\SharedDataPage.cpp
;	COMDAT ??1CSharedDataPage@@UAE@XZ
_TEXT	SEGMENT
??1CSharedDataPage@@UAE@XZ PROC				; CSharedDataPage::~CSharedDataPage, COMDAT
; _this$ = ecx

; 40   : {

  00000	56		 push	 esi
  00001	8b f1		 mov	 esi, ecx

; 41   : }

  00003	8d 8e c4 01 00
	00		 lea	 ecx, DWORD PTR [esi+452]
  00009	c7 06 00 00 00
	00		 mov	 DWORD PTR [esi], OFFSET ??_7CSharedDataPage@@6B@
  0000f	ff 15 00 00 00
	00		 call	 DWORD PTR __imp_??1?$CStringT@DV?$StrTraitMFC_DLL@DV?$ChTraitsCRT@D@ATL@@@@@ATL@@QAE@XZ
  00015	8d 8e c0 01 00
	00		 lea	 ecx, DWORD PTR [esi+448]
  0001b	ff 15 00 00 00
	00		 call	 DWORD PTR __imp_??1?$CStringT@DV?$StrTraitMFC_DLL@DV?$ChTraitsCRT@D@ATL@@@@@ATL@@QAE@XZ
  00021	8d 8e 40 01 00
	00		 lea	 ecx, DWORD PTR [esi+320]
  00027	e8 00 00 00 00	 call	 ??1CListCtrl@@UAE@XZ	; CListCtrl::~CListCtrl
  0002c	8d 8e c0 00 00
	00		 lea	 ecx, DWORD PTR [esi+192]
  00032	e8 00 00 00 00	 call	 ??1CListCtrl@@UAE@XZ	; CListCtrl::~CListCtrl
  00037	8b ce		 mov	 ecx, esi
  00039	5e		 pop	 esi
  0003a	e9 00 00 00 00	 jmp	 ??1CPropertyPage@@UAE@XZ ; CPropertyPage::~CPropertyPage
??1CSharedDataPage@@UAE@XZ ENDP				; CSharedDataPage::~CSharedDataPage
_TEXT	ENDS
; Function compile flags: /Ogtp
; File D:\git\src\IBK\IBK_DRFN\ProjSrc\SrcChartEx\ChartAddIn\ChartDesignPropertyAddIn\ChartDesignPropertyAddIn\SharedDataPage.cpp
; File C:\Program Files (x86)\Microsoft Visual Studio\2019\Community\VC\Tools\MSVC\14.29.30133\atlmfc\include\afxcmn.inl
; File D:\git\src\IBK\IBK_DRFN\ProjSrc\SrcChartEx\ChartAddIn\ChartDesignPropertyAddIn\ChartDesignPropertyAddIn\SharedDataPage.cpp
; File C:\Program Files (x86)\Microsoft Visual Studio\2019\Community\VC\Tools\MSVC\14.29.30133\atlmfc\include\afxcmn.inl
; File D:\git\src\IBK\IBK_DRFN\ProjSrc\SrcChartEx\ChartAddIn\ChartDesignPropertyAddIn\ChartDesignPropertyAddIn\SharedDataPage.cpp
; File C:\Program Files (x86)\Microsoft Visual Studio\2019\Community\VC\Tools\MSVC\14.29.30133\atlmfc\include\afxcmn.inl
; File D:\git\src\IBK\IBK_DRFN\ProjSrc\SrcChartEx\ChartAddIn\ChartDesignPropertyAddIn\ChartDesignPropertyAddIn\SharedDataPage.cpp
; File C:\Program Files (x86)\Microsoft Visual Studio\2019\Community\VC\Tools\MSVC\14.29.30133\atlmfc\include\afxcmn.inl
; File D:\git\src\IBK\IBK_DRFN\ProjSrc\SrcChartEx\ChartAddIn\ChartDesignPropertyAddIn\ChartDesignPropertyAddIn\SharedDataPage.cpp
;	COMDAT ??0CSharedDataPage@@QAE@XZ
_TEXT	SEGMENT
_this$ = -20						; size = 4
_this$ = -20						; size = 4
_this$ = -16						; size = 4
__$EHRec$ = -12						; size = 12
??0CSharedDataPage@@QAE@XZ PROC				; CSharedDataPage::CSharedDataPage, COMDAT
; _this$ = ecx

; 26   : {

  00000	55		 push	 ebp
  00001	8b ec		 mov	 ebp, esp
  00003	6a ff		 push	 -1
  00005	68 00 00 00 00	 push	 __ehhandler$??0CSharedDataPage@@QAE@XZ
  0000a	64 a1 00 00 00
	00		 mov	 eax, DWORD PTR fs:0
  00010	50		 push	 eax
  00011	83 ec 08	 sub	 esp, 8
  00014	53		 push	 ebx
  00015	56		 push	 esi
  00016	57		 push	 edi
  00017	a1 00 00 00 00	 mov	 eax, DWORD PTR ___security_cookie
  0001c	33 c5		 xor	 eax, ebp
  0001e	50		 push	 eax
  0001f	8d 45 f4	 lea	 eax, DWORD PTR __$EHRec$[ebp]
  00022	64 a3 00 00 00
	00		 mov	 DWORD PTR fs:0, eax
  00028	8b d9		 mov	 ebx, ecx
  0002a	89 5d f0	 mov	 DWORD PTR _this$[ebp], ebx

; 25   : CSharedDataPage::CSharedDataPage() : CPropertyPage(CSharedDataPage::IDD)

  0002d	6a 38		 push	 56			; 00000038H
  0002f	6a 00		 push	 0
  00031	6a 6b		 push	 107			; 0000006bH
  00033	e8 00 00 00 00	 call	 ??0CPropertyPage@@QAE@IIK@Z ; CPropertyPage::CPropertyPage

; 26   : {

  00038	8d b3 c0 00 00
	00		 lea	 esi, DWORD PTR [ebx+192]
  0003e	c7 45 fc 00 00
	00 00		 mov	 DWORD PTR __$EHRec$[ebp+8], 0
; File C:\Program Files (x86)\Microsoft Visual Studio\2019\Community\VC\Tools\MSVC\14.29.30133\atlmfc\include\afxcmn.inl

; 141  : 	{ }

  00045	8b ce		 mov	 ecx, esi
; File D:\git\src\IBK\IBK_DRFN\ProjSrc\SrcChartEx\ChartAddIn\ChartDesignPropertyAddIn\ChartDesignPropertyAddIn\SharedDataPage.cpp

; 26   : {

  00047	c7 03 00 00 00
	00		 mov	 DWORD PTR [ebx], OFFSET ??_7CSharedDataPage@@6B@
  0004d	89 75 ec	 mov	 DWORD PTR _this$[ebp], esi
; File C:\Program Files (x86)\Microsoft Visual Studio\2019\Community\VC\Tools\MSVC\14.29.30133\atlmfc\include\afxcmn.inl

; 141  : 	{ }

  00050	e8 00 00 00 00	 call	 ??0CWnd@@QAE@XZ		; CWnd::CWnd
  00055	c7 06 00 00 00
	00		 mov	 DWORD PTR [esi], OFFSET ??_7CListCtrl@@6B@
; File D:\git\src\IBK\IBK_DRFN\ProjSrc\SrcChartEx\ChartAddIn\ChartDesignPropertyAddIn\ChartDesignPropertyAddIn\SharedDataPage.cpp

; 26   : {

  0005b	8d b3 40 01 00
	00		 lea	 esi, DWORD PTR [ebx+320]
  00061	c6 45 fc 01	 mov	 BYTE PTR __$EHRec$[ebp+8], 1
; File C:\Program Files (x86)\Microsoft Visual Studio\2019\Community\VC\Tools\MSVC\14.29.30133\atlmfc\include\afxcmn.inl

; 141  : 	{ }

  00065	8b ce		 mov	 ecx, esi
; File D:\git\src\IBK\IBK_DRFN\ProjSrc\SrcChartEx\ChartAddIn\ChartDesignPropertyAddIn\ChartDesignPropertyAddIn\SharedDataPage.cpp

; 26   : {

  00067	89 75 ec	 mov	 DWORD PTR _this$[ebp], esi
; File C:\Program Files (x86)\Microsoft Visual Studio\2019\Community\VC\Tools\MSVC\14.29.30133\atlmfc\include\afxcmn.inl

; 141  : 	{ }

  0006a	e8 00 00 00 00	 call	 ??0CWnd@@QAE@XZ		; CWnd::CWnd
  0006f	c7 06 00 00 00
	00		 mov	 DWORD PTR [esi], OFFSET ??_7CListCtrl@@6B@
; File D:\git\src\IBK\IBK_DRFN\ProjSrc\SrcChartEx\ChartAddIn\ChartDesignPropertyAddIn\ChartDesignPropertyAddIn\SharedDataPage.cpp

; 26   : {

  00075	8d 8b c0 01 00
	00		 lea	 ecx, DWORD PTR [ebx+448]
  0007b	ff 15 00 00 00
	00		 call	 DWORD PTR __imp_??0?$CStringT@DV?$StrTraitMFC_DLL@DV?$ChTraitsCRT@D@ATL@@@@@ATL@@QAE@XZ
  00081	8d 8b c4 01 00
	00		 lea	 ecx, DWORD PTR [ebx+452]
  00087	ff 15 00 00 00
	00		 call	 DWORD PTR __imp_??0?$CStringT@DV?$StrTraitMFC_DLL@DV?$ChTraitsCRT@D@ATL@@@@@ATL@@QAE@XZ

; 27   : 	//{{AFX_DATA_INIT(CSharedDataPage)
; 28   : 	m_sLocalSharedList = _T("");

  0008d	68 00 00 00 00	 push	 OFFSET ??_C@_00CNPNBAHC@@
  00092	8d 8b c0 01 00
	00		 lea	 ecx, DWORD PTR [ebx+448]
  00098	c6 45 fc 04	 mov	 BYTE PTR __$EHRec$[ebp+8], 4
  0009c	ff 15 00 00 00
	00		 call	 DWORD PTR __imp_??4?$CStringT@DV?$StrTraitMFC_DLL@DV?$ChTraitsCRT@D@ATL@@@@@ATL@@QAEAAV01@PBD@Z

; 29   : 	m_sGlobalSharedList = _T("");

  000a2	68 00 00 00 00	 push	 OFFSET ??_C@_00CNPNBAHC@@
  000a7	8d 8b c4 01 00
	00		 lea	 ecx, DWORD PTR [ebx+452]
  000ad	ff 15 00 00 00
	00		 call	 DWORD PTR __imp_??4?$CStringT@DV?$StrTraitMFC_DLL@DV?$ChTraitsCRT@D@ATL@@@@@ATL@@QAEAAV01@PBD@Z

; 30   : 	//}}AFX_DATA_INIT
; 31   : 
; 32   : 	// (2006/7/5 - Seung-Won, Bae) Manage Property Map for Update
; 33   : 	m_pIPropertyMap = NULL;

  000b3	c7 83 c8 01 00
	00 00 00 00 00	 mov	 DWORD PTR [ebx+456], 0

; 34   : 
; 35   : 	// (2008/1/14 - Seung-Won, Bae) for MultiLanguage.
; 36   : 	m_hOcxWnd = NULL;
; 37   : }

  000bd	8b c3		 mov	 eax, ebx
  000bf	c7 83 cc 01 00
	00 00 00 00 00	 mov	 DWORD PTR [ebx+460], 0
  000c9	8b 4d f4	 mov	 ecx, DWORD PTR __$EHRec$[ebp]
  000cc	64 89 0d 00 00
	00 00		 mov	 DWORD PTR fs:0, ecx
  000d3	59		 pop	 ecx
  000d4	5f		 pop	 edi
  000d5	5e		 pop	 esi
  000d6	5b		 pop	 ebx
  000d7	8b e5		 mov	 esp, ebp
  000d9	5d		 pop	 ebp
  000da	c3		 ret	 0
_TEXT	ENDS
;	COMDAT text$x
text$x	SEGMENT
__unwindfunclet$??0CSharedDataPage@@QAE@XZ$0:
  00000	8b 4d f0	 mov	 ecx, DWORD PTR _this$[ebp]
  00003	e9 00 00 00 00	 jmp	 ??1CPropertyPage@@UAE@XZ ; CPropertyPage::~CPropertyPage
__unwindfunclet$??0CSharedDataPage@@QAE@XZ$1:
  00008	8b 4d f0	 mov	 ecx, DWORD PTR _this$[ebp]
  0000b	81 c1 c0 00 00
	00		 add	 ecx, 192		; 000000c0H
  00011	e9 00 00 00 00	 jmp	 ??1CListCtrl@@UAE@XZ	; CListCtrl::~CListCtrl
__unwindfunclet$??0CSharedDataPage@@QAE@XZ$2:
  00016	8b 4d f0	 mov	 ecx, DWORD PTR _this$[ebp]
  00019	81 c1 40 01 00
	00		 add	 ecx, 320		; 00000140H
  0001f	e9 00 00 00 00	 jmp	 ??1CListCtrl@@UAE@XZ	; CListCtrl::~CListCtrl
__unwindfunclet$??0CSharedDataPage@@QAE@XZ$3:
  00024	8b 4d f0	 mov	 ecx, DWORD PTR _this$[ebp]
  00027	81 c1 c0 01 00
	00		 add	 ecx, 448		; 000001c0H
  0002d	ff 25 00 00 00
	00		 jmp	 DWORD PTR __imp_??1?$CStringT@DV?$StrTraitMFC_DLL@DV?$ChTraitsCRT@D@ATL@@@@@ATL@@QAE@XZ
__unwindfunclet$??0CSharedDataPage@@QAE@XZ$4:
  00033	8b 4d f0	 mov	 ecx, DWORD PTR _this$[ebp]
  00036	81 c1 c4 01 00
	00		 add	 ecx, 452		; 000001c4H
  0003c	ff 25 00 00 00
	00		 jmp	 DWORD PTR __imp_??1?$CStringT@DV?$StrTraitMFC_DLL@DV?$ChTraitsCRT@D@ATL@@@@@ATL@@QAE@XZ
  00042	cc		 int	 3
  00043	cc		 int	 3
  00044	cc		 int	 3
  00045	cc		 int	 3
  00046	cc		 int	 3
__ehhandler$??0CSharedDataPage@@QAE@XZ:
  00047	90		 npad	 1
  00048	90		 npad	 1
  00049	8b 54 24 08	 mov	 edx, DWORD PTR [esp+8]
  0004d	8d 42 0c	 lea	 eax, DWORD PTR [edx+12]
  00050	8b 4a e8	 mov	 ecx, DWORD PTR [edx-24]
  00053	33 c8		 xor	 ecx, eax
  00055	e8 00 00 00 00	 call	 @__security_check_cookie@4
  0005a	b8 00 00 00 00	 mov	 eax, OFFSET __ehfuncinfo$??0CSharedDataPage@@QAE@XZ
  0005f	e9 00 00 00 00	 jmp	 ___CxxFrameHandler3
text$x	ENDS
??0CSharedDataPage@@QAE@XZ ENDP				; CSharedDataPage::CSharedDataPage
; Function compile flags: /Ogtp
; File D:\git\src\IBK\IBK_DRFN\ProjSrc\SrcChartEx\ChartAddIn\ChartDesignPropertyAddIn\ChartDesignPropertyAddIn\SharedDataPage.cpp
;	COMDAT ?SetProperty@CSharedDataPage@@QAEXPAUIPropertyMap@@@Z
_TEXT	SEGMENT
_szTemp$ = -4						; size = 4
_p_pIPropertyMap$ = 8					; size = 4
?SetProperty@CSharedDataPage@@QAEXPAUIPropertyMap@@@Z PROC ; CSharedDataPage::SetProperty, COMDAT
; _this$ = ecx

; 345  : {

  00000	55		 push	 ebp
  00001	8b ec		 mov	 ebp, esp
  00003	51		 push	 ecx
  00004	53		 push	 ebx
  00005	56		 push	 esi

; 346  : 	// (2006/7/5 - Seung-Won, Bae) Use IPropertyMap
; 347  : 	CHART_CONVERT_BEGIN()
; 348  : 		CHART_CONVERT_STRING(	p_pIPropertyMap, g_anPropertyShortKey[	STRLOCALSHAREDLIST	], m_sLocalSharedList,	_DPV_STRLOCALSHAREDLIST		);

  00006	8b 75 08	 mov	 esi, DWORD PTR _p_pIPropertyMap$[ebp]
  00009	57		 push	 edi
  0000a	8b f9		 mov	 edi, ecx
  0000c	c7 45 fc 00 00
	00 00		 mov	 DWORD PTR _szTemp$[ebp], 0
  00013	8d 4d fc	 lea	 ecx, DWORD PTR _szTemp$[ebp]
  00016	8b 06		 mov	 eax, DWORD PTR [esi]
  00018	51		 push	 ecx
  00019	ff 35 a8 00 00
	00		 push	 DWORD PTR ?g_anPropertyShortKey@@3PAPADA+168
  0001f	8b ce		 mov	 ecx, esi
  00021	ff 50 0c	 call	 DWORD PTR [eax+12]
  00024	8d 8f c0 01 00
	00		 lea	 ecx, DWORD PTR [edi+448]
  0002a	83 f8 01	 cmp	 eax, 1
  0002d	75 05		 jne	 SHORT $LN2@SetPropert
  0002f	ff 75 fc	 push	 DWORD PTR _szTemp$[ebp]
  00032	eb 05		 jmp	 SHORT $LN7@SetPropert
$LN2@SetPropert:
  00034	68 00 00 00 00	 push	 OFFSET ??_C@_00CNPNBAHC@@
$LN7@SetPropert:

; 349  : 		CHART_CONVERT_STRING(	p_pIPropertyMap, g_anPropertyShortKey[	STRGLOBALSHAREDLIST	], m_sGlobalSharedList,	_DPV_STRGLOBALSHAREDLIST	);	// (2004.06.08, ) Global  .

  00039	ff 15 00 00 00
	00		 call	 DWORD PTR __imp_??4?$CStringT@DV?$StrTraitMFC_DLL@DV?$ChTraitsCRT@D@ATL@@@@@ATL@@QAEAAV01@PBD@Z
  0003f	8b 06		 mov	 eax, DWORD PTR [esi]
  00041	8d 4d fc	 lea	 ecx, DWORD PTR _szTemp$[ebp]
  00044	51		 push	 ecx
  00045	ff 35 08 01 00
	00		 push	 DWORD PTR ?g_anPropertyShortKey@@3PAPADA+264
  0004b	8b ce		 mov	 ecx, esi
  0004d	ff 50 0c	 call	 DWORD PTR [eax+12]
  00050	8d 8f c4 01 00
	00		 lea	 ecx, DWORD PTR [edi+452]
  00056	83 f8 01	 cmp	 eax, 1
  00059	75 05		 jne	 SHORT $LN4@SetPropert
  0005b	ff 75 fc	 push	 DWORD PTR _szTemp$[ebp]
  0005e	eb 05		 jmp	 SHORT $LN8@SetPropert
$LN4@SetPropert:
  00060	68 00 00 00 00	 push	 OFFSET ??_C@_00CNPNBAHC@@
$LN8@SetPropert:

; 350  : 	CHART_CONVERT_END()
; 351  : 
; 352  : 	// (2006/7/5 - Seung-Won, Bae) Manage Property Map for Update
; 353  : 	m_pIPropertyMap = p_pIPropertyMap;
; 354  : }

  00065	ff 15 00 00 00
	00		 call	 DWORD PTR __imp_??4?$CStringT@DV?$StrTraitMFC_DLL@DV?$ChTraitsCRT@D@ATL@@@@@ATL@@QAEAAV01@PBD@Z
  0006b	89 b7 c8 01 00
	00		 mov	 DWORD PTR [edi+456], esi
  00071	5f		 pop	 edi
  00072	5e		 pop	 esi
  00073	5b		 pop	 ebx
  00074	8b e5		 mov	 esp, ebp
  00076	5d		 pop	 ebp
  00077	c2 04 00	 ret	 4
?SetProperty@CSharedDataPage@@QAEXPAUIPropertyMap@@@Z ENDP ; CSharedDataPage::SetProperty
_TEXT	ENDS
; Function compile flags: /Ogtp
; File D:\git\src\IBK\IBK_DRFN\ProjSrc\SrcChartEx\ChartAddIn\ChartDesignPropertyAddIn\ChartDesignPropertyAddIn\SharedDataPage.cpp
; File C:\Program Files (x86)\Microsoft Visual Studio\2019\Community\VC\Tools\MSVC\14.29.30133\atlmfc\include\afx.inl
; File D:\git\src\IBK\IBK_DRFN\ProjSrc\SrcChartEx\ChartAddIn\ChartDesignPropertyAddIn\ChartDesignPropertyAddIn\SharedDataPage.cpp
; File C:\Program Files (x86)\Microsoft Visual Studio\2019\Community\VC\Tools\MSVC\14.29.30133\atlmfc\include\afx.inl
; File D:\git\src\IBK\IBK_DRFN\ProjSrc\SrcChartEx\ChartAddIn\ChartDesignPropertyAddIn\ChartDesignPropertyAddIn\SharedDataPage.cpp
; File C:\Program Files (x86)\Microsoft Visual Studio\2019\Community\VC\Tools\MSVC\14.29.30133\atlmfc\include\afxcmn.inl
; File D:\git\src\IBK\IBK_DRFN\ProjSrc\SrcChartEx\ChartAddIn\ChartDesignPropertyAddIn\ChartDesignPropertyAddIn\SharedDataPage.cpp
; File C:\Program Files (x86)\Microsoft Visual Studio\2019\Community\VC\Tools\MSVC\14.29.30133\atlmfc\include\afxcmn.inl
; File D:\git\src\IBK\IBK_DRFN\ProjSrc\SrcChartEx\ChartAddIn\ChartDesignPropertyAddIn\ChartDesignPropertyAddIn\SharedDataPage.cpp
; File C:\Program Files (x86)\Microsoft Visual Studio\2019\Community\VC\Tools\MSVC\14.29.30133\atlmfc\include\afxcmn.inl
; File D:\git\src\IBK\IBK_DRFN\ProjSrc\SrcChartEx\ChartAddIn\ChartDesignPropertyAddIn\ChartDesignPropertyAddIn\SharedDataPage.cpp
; File C:\Program Files (x86)\Microsoft Visual Studio\2019\Community\VC\Tools\MSVC\14.29.30133\atlmfc\include\afxcmn.inl
; File D:\git\src\IBK\IBK_DRFN\ProjSrc\SrcChartEx\ChartAddIn\ChartDesignPropertyAddIn\ChartDesignPropertyAddIn\SharedDataPage.cpp
;	COMDAT ?CreateObject@CSharedDataPage@@SGPAVCObject@@XZ
_TEXT	SEGMENT
_this$ = -20						; size = 4
_this$ = -20						; size = 4
$T2 = -16						; size = 4
__$EHRec$ = -12						; size = 12
?CreateObject@CSharedDataPage@@SGPAVCObject@@XZ PROC	; CSharedDataPage::CreateObject, COMDAT

; 23   : IMPLEMENT_DYNCREATE(CSharedDataPage, CPropertyPage)

  00000	55		 push	 ebp
  00001	8b ec		 mov	 ebp, esp
  00003	6a ff		 push	 -1
  00005	68 00 00 00 00	 push	 __ehhandler$?CreateObject@CSharedDataPage@@SGPAVCObject@@XZ
  0000a	64 a1 00 00 00
	00		 mov	 eax, DWORD PTR fs:0
  00010	50		 push	 eax
  00011	83 ec 08	 sub	 esp, 8
  00014	53		 push	 ebx
  00015	56		 push	 esi
  00016	57		 push	 edi
  00017	a1 00 00 00 00	 mov	 eax, DWORD PTR ___security_cookie
  0001c	33 c5		 xor	 eax, ebp
  0001e	50		 push	 eax
  0001f	8d 45 f4	 lea	 eax, DWORD PTR __$EHRec$[ebp]
  00022	64 a3 00 00 00
	00		 mov	 DWORD PTR fs:0, eax
; File C:\Program Files (x86)\Microsoft Visual Studio\2019\Community\VC\Tools\MSVC\14.29.30133\atlmfc\include\afx.inl

; 116  : 	{ return ::operator new(nSize); }

  00028	68 d0 01 00 00	 push	 464			; 000001d0H
  0002d	e8 00 00 00 00	 call	 ??2@YAPAXI@Z		; operator new
; File D:\git\src\IBK\IBK_DRFN\ProjSrc\SrcChartEx\ChartAddIn\ChartDesignPropertyAddIn\ChartDesignPropertyAddIn\SharedDataPage.cpp

; 23   : IMPLEMENT_DYNCREATE(CSharedDataPage, CPropertyPage)

  00032	8b d8		 mov	 ebx, eax
; File C:\Program Files (x86)\Microsoft Visual Studio\2019\Community\VC\Tools\MSVC\14.29.30133\atlmfc\include\afx.inl

; 116  : 	{ return ::operator new(nSize); }

  00034	83 c4 04	 add	 esp, 4
; File D:\git\src\IBK\IBK_DRFN\ProjSrc\SrcChartEx\ChartAddIn\ChartDesignPropertyAddIn\ChartDesignPropertyAddIn\SharedDataPage.cpp

; 23   : IMPLEMENT_DYNCREATE(CSharedDataPage, CPropertyPage)

  00037	89 5d f0	 mov	 DWORD PTR $T2[ebp], ebx
  0003a	c7 45 fc 00 00
	00 00		 mov	 DWORD PTR __$EHRec$[ebp+8], 0
  00041	85 db		 test	 ebx, ebx
  00043	0f 84 ad 00 00
	00		 je	 $LN3@CreateObje

; 25   : CSharedDataPage::CSharedDataPage() : CPropertyPage(CSharedDataPage::IDD)

  00049	6a 38		 push	 56			; 00000038H
  0004b	6a 00		 push	 0
  0004d	6a 6b		 push	 107			; 0000006bH
  0004f	8b cb		 mov	 ecx, ebx
  00051	e8 00 00 00 00	 call	 ??0CPropertyPage@@QAE@IIK@Z ; CPropertyPage::CPropertyPage

; 26   : {

  00056	8d b3 c0 00 00
	00		 lea	 esi, DWORD PTR [ebx+192]
  0005c	c6 45 fc 01	 mov	 BYTE PTR __$EHRec$[ebp+8], 1
; File C:\Program Files (x86)\Microsoft Visual Studio\2019\Community\VC\Tools\MSVC\14.29.30133\atlmfc\include\afxcmn.inl

; 141  : 	{ }

  00060	8b ce		 mov	 ecx, esi
; File D:\git\src\IBK\IBK_DRFN\ProjSrc\SrcChartEx\ChartAddIn\ChartDesignPropertyAddIn\ChartDesignPropertyAddIn\SharedDataPage.cpp

; 26   : {

  00062	c7 03 00 00 00
	00		 mov	 DWORD PTR [ebx], OFFSET ??_7CSharedDataPage@@6B@
  00068	89 75 ec	 mov	 DWORD PTR _this$[ebp], esi
; File C:\Program Files (x86)\Microsoft Visual Studio\2019\Community\VC\Tools\MSVC\14.29.30133\atlmfc\include\afxcmn.inl

; 141  : 	{ }

  0006b	e8 00 00 00 00	 call	 ??0CWnd@@QAE@XZ		; CWnd::CWnd
  00070	c7 06 00 00 00
	00		 mov	 DWORD PTR [esi], OFFSET ??_7CListCtrl@@6B@
; File D:\git\src\IBK\IBK_DRFN\ProjSrc\SrcChartEx\ChartAddIn\ChartDesignPropertyAddIn\ChartDesignPropertyAddIn\SharedDataPage.cpp

; 26   : {

  00076	8d b3 40 01 00
	00		 lea	 esi, DWORD PTR [ebx+320]
  0007c	c6 45 fc 02	 mov	 BYTE PTR __$EHRec$[ebp+8], 2
; File C:\Program Files (x86)\Microsoft Visual Studio\2019\Community\VC\Tools\MSVC\14.29.30133\atlmfc\include\afxcmn.inl

; 141  : 	{ }

  00080	8b ce		 mov	 ecx, esi
; File D:\git\src\IBK\IBK_DRFN\ProjSrc\SrcChartEx\ChartAddIn\ChartDesignPropertyAddIn\ChartDesignPropertyAddIn\SharedDataPage.cpp

; 26   : {

  00082	89 75 ec	 mov	 DWORD PTR _this$[ebp], esi
; File C:\Program Files (x86)\Microsoft Visual Studio\2019\Community\VC\Tools\MSVC\14.29.30133\atlmfc\include\afxcmn.inl

; 141  : 	{ }

  00085	e8 00 00 00 00	 call	 ??0CWnd@@QAE@XZ		; CWnd::CWnd
  0008a	c7 06 00 00 00
	00		 mov	 DWORD PTR [esi], OFFSET ??_7CListCtrl@@6B@
; File D:\git\src\IBK\IBK_DRFN\ProjSrc\SrcChartEx\ChartAddIn\ChartDesignPropertyAddIn\ChartDesignPropertyAddIn\SharedDataPage.cpp

; 26   : {

  00090	8d 8b c0 01 00
	00		 lea	 ecx, DWORD PTR [ebx+448]
  00096	ff 15 00 00 00
	00		 call	 DWORD PTR __imp_??0?$CStringT@DV?$StrTraitMFC_DLL@DV?$ChTraitsCRT@D@ATL@@@@@ATL@@QAE@XZ
  0009c	8d 8b c4 01 00
	00		 lea	 ecx, DWORD PTR [ebx+452]
  000a2	ff 15 00 00 00
	00		 call	 DWORD PTR __imp_??0?$CStringT@DV?$StrTraitMFC_DLL@DV?$ChTraitsCRT@D@ATL@@@@@ATL@@QAE@XZ

; 27   : 	//{{AFX_DATA_INIT(CSharedDataPage)
; 28   : 	m_sLocalSharedList = _T("");

  000a8	68 00 00 00 00	 push	 OFFSET ??_C@_00CNPNBAHC@@
  000ad	8d 8b c0 01 00
	00		 lea	 ecx, DWORD PTR [ebx+448]
  000b3	c6 45 fc 05	 mov	 BYTE PTR __$EHRec$[ebp+8], 5
  000b7	ff 15 00 00 00
	00		 call	 DWORD PTR __imp_??4?$CStringT@DV?$StrTraitMFC_DLL@DV?$ChTraitsCRT@D@ATL@@@@@ATL@@QAEAAV01@PBD@Z

; 29   : 	m_sGlobalSharedList = _T("");

  000bd	68 00 00 00 00	 push	 OFFSET ??_C@_00CNPNBAHC@@
  000c2	8d 8b c4 01 00
	00		 lea	 ecx, DWORD PTR [ebx+452]
  000c8	ff 15 00 00 00
	00		 call	 DWORD PTR __imp_??4?$CStringT@DV?$StrTraitMFC_DLL@DV?$ChTraitsCRT@D@ATL@@@@@ATL@@QAEAAV01@PBD@Z

; 30   : 	//}}AFX_DATA_INIT
; 31   : 
; 32   : 	// (2006/7/5 - Seung-Won, Bae) Manage Property Map for Update
; 33   : 	m_pIPropertyMap = NULL;

  000ce	c7 83 c8 01 00
	00 00 00 00 00	 mov	 DWORD PTR [ebx+456], 0

; 23   : IMPLEMENT_DYNCREATE(CSharedDataPage, CPropertyPage)

  000d8	8b c3		 mov	 eax, ebx

; 36   : 	m_hOcxWnd = NULL;

  000da	c7 83 cc 01 00
	00 00 00 00 00	 mov	 DWORD PTR [ebx+460], 0

; 23   : IMPLEMENT_DYNCREATE(CSharedDataPage, CPropertyPage)

  000e4	8b 4d f4	 mov	 ecx, DWORD PTR __$EHRec$[ebp]
  000e7	64 89 0d 00 00
	00 00		 mov	 DWORD PTR fs:0, ecx
  000ee	59		 pop	 ecx
  000ef	5f		 pop	 edi
  000f0	5e		 pop	 esi
  000f1	5b		 pop	 ebx
  000f2	8b e5		 mov	 esp, ebp
  000f4	5d		 pop	 ebp
  000f5	c3		 ret	 0
$LN3@CreateObje:
  000f6	33 c0		 xor	 eax, eax
  000f8	8b 4d f4	 mov	 ecx, DWORD PTR __$EHRec$[ebp]
  000fb	64 89 0d 00 00
	00 00		 mov	 DWORD PTR fs:0, ecx
  00102	59		 pop	 ecx
  00103	5f		 pop	 edi
  00104	5e		 pop	 esi
  00105	5b		 pop	 ebx
  00106	8b e5		 mov	 esp, ebp
  00108	5d		 pop	 ebp
  00109	c3		 ret	 0
_TEXT	ENDS
;	COMDAT text$x
text$x	SEGMENT
__unwindfunclet$?CreateObject@CSharedDataPage@@SGPAVCObject@@XZ$0:
  00000	8b 45 f0	 mov	 eax, DWORD PTR $T2[ebp]
  00003	50		 push	 eax
  00004	e8 00 00 00 00	 call	 ??3CObject@@SGXPAX@Z	; CObject::operator delete
  00009	c3		 ret	 0
__unwindfunclet$?CreateObject@CSharedDataPage@@SGPAVCObject@@XZ$1:
  0000a	8b 4d f0	 mov	 ecx, DWORD PTR $T2[ebp]
  0000d	e9 00 00 00 00	 jmp	 ??1CPropertyPage@@UAE@XZ ; CPropertyPage::~CPropertyPage
__unwindfunclet$?CreateObject@CSharedDataPage@@SGPAVCObject@@XZ$2:
  00012	8b 4d f0	 mov	 ecx, DWORD PTR $T2[ebp]
  00015	81 c1 c0 00 00
	00		 add	 ecx, 192		; 000000c0H
  0001b	e9 00 00 00 00	 jmp	 ??1CListCtrl@@UAE@XZ	; CListCtrl::~CListCtrl
__unwindfunclet$?CreateObject@CSharedDataPage@@SGPAVCObject@@XZ$3:
  00020	8b 4d f0	 mov	 ecx, DWORD PTR $T2[ebp]
  00023	81 c1 40 01 00
	00		 add	 ecx, 320		; 00000140H
  00029	e9 00 00 00 00	 jmp	 ??1CListCtrl@@UAE@XZ	; CListCtrl::~CListCtrl
__unwindfunclet$?CreateObject@CSharedDataPage@@SGPAVCObject@@XZ$4:
  0002e	8b 4d f0	 mov	 ecx, DWORD PTR $T2[ebp]
  00031	81 c1 c0 01 00
	00		 add	 ecx, 448		; 000001c0H
  00037	ff 25 00 00 00
	00		 jmp	 DWORD PTR __imp_??1?$CStringT@DV?$StrTraitMFC_DLL@DV?$ChTraitsCRT@D@ATL@@@@@ATL@@QAE@XZ
__unwindfunclet$?CreateObject@CSharedDataPage@@SGPAVCObject@@XZ$5:
  0003d	8b 4d f0	 mov	 ecx, DWORD PTR $T2[ebp]
  00040	81 c1 c4 01 00
	00		 add	 ecx, 452		; 000001c4H
  00046	ff 25 00 00 00
	00		 jmp	 DWORD PTR __imp_??1?$CStringT@DV?$StrTraitMFC_DLL@DV?$ChTraitsCRT@D@ATL@@@@@ATL@@QAE@XZ
  0004c	cc		 int	 3
  0004d	cc		 int	 3
  0004e	cc		 int	 3
  0004f	cc		 int	 3
  00050	cc		 int	 3
__ehhandler$?CreateObject@CSharedDataPage@@SGPAVCObject@@XZ:
  00051	90		 npad	 1
  00052	90		 npad	 1
  00053	8b 54 24 08	 mov	 edx, DWORD PTR [esp+8]
  00057	8d 42 0c	 lea	 eax, DWORD PTR [edx+12]
  0005a	8b 4a e8	 mov	 ecx, DWORD PTR [edx-24]
  0005d	33 c8		 xor	 ecx, eax
  0005f	e8 00 00 00 00	 call	 @__security_check_cookie@4
  00064	b8 00 00 00 00	 mov	 eax, OFFSET __ehfuncinfo$?CreateObject@CSharedDataPage@@SGPAVCObject@@XZ
  00069	e9 00 00 00 00	 jmp	 ___CxxFrameHandler3
text$x	ENDS
?CreateObject@CSharedDataPage@@SGPAVCObject@@XZ ENDP	; CSharedDataPage::CreateObject
; Function compile flags: /Ogtp
; File D:\git\src\IBK\IBK_DRFN\ProjSrc\SrcChartEx\ChartAddIn\ChartDesignPropertyAddIn\ChartDesignPropertyAddIn\SharedDataPage.cpp
;	COMDAT ?GetRuntimeClass@CSharedDataPage@@UBEPAUCRuntimeClass@@XZ
_TEXT	SEGMENT
?GetRuntimeClass@CSharedDataPage@@UBEPAUCRuntimeClass@@XZ PROC ; CSharedDataPage::GetRuntimeClass, COMDAT
; _this$ = ecx

; 23   : IMPLEMENT_DYNCREATE(CSharedDataPage, CPropertyPage)

  00000	b8 00 00 00 00	 mov	 eax, OFFSET ?classCSharedDataPage@CSharedDataPage@@2UCRuntimeClass@@B ; CSharedDataPage::classCSharedDataPage
  00005	c3		 ret	 0
?GetRuntimeClass@CSharedDataPage@@UBEPAUCRuntimeClass@@XZ ENDP ; CSharedDataPage::GetRuntimeClass
_TEXT	ENDS
; Function compile flags: /Ogtp
; File D:\git\src\IBK\IBK_DRFN\ProjSrc\SrcChartEx\ChartAddIn\ChartDesignPropertyAddIn\ChartDesignPropertyAddIn\SharedDataPage.cpp
;	COMDAT ?GetThisClass@CSharedDataPage@@SGPAUCRuntimeClass@@XZ
_TEXT	SEGMENT
?GetThisClass@CSharedDataPage@@SGPAUCRuntimeClass@@XZ PROC ; CSharedDataPage::GetThisClass, COMDAT

; 23   : IMPLEMENT_DYNCREATE(CSharedDataPage, CPropertyPage)

  00000	b8 00 00 00 00	 mov	 eax, OFFSET ?classCSharedDataPage@CSharedDataPage@@2UCRuntimeClass@@B ; CSharedDataPage::classCSharedDataPage
  00005	c3		 ret	 0
?GetThisClass@CSharedDataPage@@SGPAUCRuntimeClass@@XZ ENDP ; CSharedDataPage::GetThisClass
_TEXT	ENDS
; Function compile flags: /Ogtp
; File D:\git\src\IBK\IBK_DRFN\ProjSrc\SrcChartEx\ChartAddIn\ChartDesignPropertyAddIn\ChartDesignPropertyAddIn\SharedDataPage.cpp
;	COMDAT ?_GetBaseClass@CSharedDataPage@@KGPAUCRuntimeClass@@XZ
_TEXT	SEGMENT
?_GetBaseClass@CSharedDataPage@@KGPAUCRuntimeClass@@XZ PROC ; CSharedDataPage::_GetBaseClass, COMDAT

; 23   : IMPLEMENT_DYNCREATE(CSharedDataPage, CPropertyPage)

  00000	e9 00 00 00 00	 jmp	 ?GetThisClass@CPropertyPage@@SGPAUCRuntimeClass@@XZ ; CPropertyPage::GetThisClass
?_GetBaseClass@CSharedDataPage@@KGPAUCRuntimeClass@@XZ ENDP ; CSharedDataPage::_GetBaseClass
_TEXT	ENDS
; Function compile flags: /Ogtp
; File D:\git\src\IBK\IBK_DRFN\ProjSrc\SrcChartEx\ChartAddIn\ChartDesignPropertyAddIn\Include_Chart\Dll_Load\IMetaTable.h
; File C:\Program Files (x86)\Microsoft Visual Studio\2019\Community\VC\Tools\MSVC\14.29.30133\atlmfc\include\afxwin1.inl
; File D:\git\src\IBK\IBK_DRFN\ProjSrc\SrcChartEx\ChartAddIn\ChartDesignPropertyAddIn\Include_Chart\Dll_Load\IMetaTable.h
;	COMDAT ??1CMultiLanguageResourceSetter@@QAE@XZ
_TEXT	SEGMENT
__$EHRec$ = -12						; size = 12
??1CMultiLanguageResourceSetter@@QAE@XZ PROC		; CMultiLanguageResourceSetter::~CMultiLanguageResourceSetter, COMDAT
; _this$ = ecx

; 1036 : 	{

  00000	55		 push	 ebp
  00001	8b ec		 mov	 ebp, esp
  00003	6a ff		 push	 -1
  00005	68 00 00 00 00	 push	 __ehhandler$??1CMultiLanguageResourceSetter@@QAE@XZ
  0000a	64 a1 00 00 00
	00		 mov	 eax, DWORD PTR fs:0
  00010	50		 push	 eax
  00011	56		 push	 esi
  00012	a1 00 00 00 00	 mov	 eax, DWORD PTR ___security_cookie
  00017	33 c5		 xor	 eax, ebp
  00019	50		 push	 eax
  0001a	8d 45 f4	 lea	 eax, DWORD PTR __$EHRec$[ebp]
  0001d	64 a3 00 00 00
	00		 mov	 DWORD PTR fs:0, eax

; 1037 : 		AfxSetResourceHandle( m_hInstance);

  00023	8b 31		 mov	 esi, DWORD PTR [ecx]
; File C:\Program Files (x86)\Microsoft Visual Studio\2019\Community\VC\Tools\MSVC\14.29.30133\atlmfc\include\afxwin1.inl

; 27   : 	{ ASSERT(hInstResource != NULL); afxCurrentResourceHandle = hInstResource; }

  00025	e8 00 00 00 00	 call	 ?AfxGetModuleState@@YGPAVAFX_MODULE_STATE@@XZ ; AfxGetModuleState
  0002a	89 70 0c	 mov	 DWORD PTR [eax+12], esi
; File D:\git\src\IBK\IBK_DRFN\ProjSrc\SrcChartEx\ChartAddIn\ChartDesignPropertyAddIn\Include_Chart\Dll_Load\IMetaTable.h

; 1038 : 	}

  0002d	8b 4d f4	 mov	 ecx, DWORD PTR __$EHRec$[ebp]
  00030	64 89 0d 00 00
	00 00		 mov	 DWORD PTR fs:0, ecx
  00037	59		 pop	 ecx
  00038	5e		 pop	 esi
  00039	8b e5		 mov	 esp, ebp
  0003b	5d		 pop	 ebp
  0003c	c3		 ret	 0
  0003d	cc		 int	 3
  0003e	cc		 int	 3
  0003f	cc		 int	 3
  00040	cc		 int	 3
  00041	cc		 int	 3
_TEXT	ENDS
;	COMDAT text$x
text$x	SEGMENT
__ehhandler$??1CMultiLanguageResourceSetter@@QAE@XZ:
  00000	90		 npad	 1
  00001	90		 npad	 1
  00002	8b 54 24 08	 mov	 edx, DWORD PTR [esp+8]
  00006	8d 42 0c	 lea	 eax, DWORD PTR [edx+12]
  00009	8b 4a f8	 mov	 ecx, DWORD PTR [edx-8]
  0000c	33 c8		 xor	 ecx, eax
  0000e	e8 00 00 00 00	 call	 @__security_check_cookie@4
  00013	b8 00 00 00 00	 mov	 eax, OFFSET __ehfuncinfo$??1CMultiLanguageResourceSetter@@QAE@XZ
  00018	e9 00 00 00 00	 jmp	 ___CxxFrameHandler3
text$x	ENDS
??1CMultiLanguageResourceSetter@@QAE@XZ ENDP		; CMultiLanguageResourceSetter::~CMultiLanguageResourceSetter
; Function compile flags: /Ogtp
; File D:\git\src\IBK\IBK_DRFN\ProjSrc\SrcChartEx\ChartAddIn\ChartDesignPropertyAddIn\Include_Chart\Dll_Load\IMetaTable.h
;	COMDAT ?LoadResourceDLL@IMetaTable@@QAEPAUHINSTANCE__@@PAUHWND__@@PAU2@@Z
_TEXT	SEGMENT
_p1$ = 8						; size = 4
_p2$ = 12						; size = 4
?LoadResourceDLL@IMetaTable@@QAEPAUHINSTANCE__@@PAUHWND__@@PAU2@@Z PROC ; IMetaTable::LoadResourceDLL, COMDAT
; _this$ = ecx

; 936  : 	DECLARE_FUNCTION2(	LoadResourceDLL,				HMODULE, AfxGetStaticModuleState()->m_hCurrentInstanceHandle, HWND, HMODULE);

  00000	55		 push	 ebp
  00001	8b ec		 mov	 ebp, esp
  00003	56		 push	 esi
  00004	8b f1		 mov	 esi, ecx
  00006	8b 46 04	 mov	 eax, DWORD PTR [esi+4]
  00009	85 c0		 test	 eax, eax
  0000b	74 4d		 je	 SHORT $LN4@LoadResour
  0000d	57		 push	 edi
  0000e	bf 80 0d 00 00	 mov	 edi, 3456		; 00000d80H
  00013	66 3b be 94 00
	00 00		 cmp	 di, WORD PTR [esi+148]
  0001a	74 23		 je	 SHORT $LN3@LoadResour
  0001c	68 00 00 00 00	 push	 OFFSET ??_C@_0BA@ENJOCHIO@LoadResourceDLL@
  00021	50		 push	 eax
  00022	c7 86 90 00 00
	00 00 00 00 00	 mov	 DWORD PTR [esi+144], 0
  0002c	ff 15 00 00 00
	00		 call	 DWORD PTR __imp__GetProcAddress@8
  00032	89 86 90 00 00
	00		 mov	 DWORD PTR [esi+144], eax
  00038	66 89 be 94 00
	00 00		 mov	 WORD PTR [esi+148], di
$LN3@LoadResour:
  0003f	8b 86 90 00 00
	00		 mov	 eax, DWORD PTR [esi+144]
  00045	5f		 pop	 edi
  00046	85 c0		 test	 eax, eax
  00048	74 10		 je	 SHORT $LN4@LoadResour
  0004a	ff 75 0c	 push	 DWORD PTR _p2$[ebp]
  0004d	ff 75 08	 push	 DWORD PTR _p1$[ebp]
  00050	ff d0		 call	 eax
  00052	83 c4 08	 add	 esp, 8
  00055	5e		 pop	 esi
  00056	5d		 pop	 ebp
  00057	c2 08 00	 ret	 8
$LN4@LoadResour:
  0005a	e8 00 00 00 00	 call	 ?AfxGetStaticModuleState@@YGPAVAFX_MODULE_STATE@@XZ ; AfxGetStaticModuleState
  0005f	5e		 pop	 esi
  00060	8b 40 08	 mov	 eax, DWORD PTR [eax+8]
  00063	5d		 pop	 ebp
  00064	c2 08 00	 ret	 8
?LoadResourceDLL@IMetaTable@@QAEPAUHINSTANCE__@@PAUHWND__@@PAU2@@Z ENDP ; IMetaTable::LoadResourceDLL
_TEXT	ENDS
; Function compile flags: /Ogtp
; File C:\Program Files (x86)\Microsoft Visual Studio\2019\Community\VC\Tools\MSVC\14.29.30133\atlmfc\include\afx.inl
;	COMDAT ??_GCListCtrl@@UAEPAXI@Z
_TEXT	SEGMENT
___flags$ = 8						; size = 4
??_GCListCtrl@@UAEPAXI@Z PROC				; CListCtrl::`scalar deleting destructor', COMDAT
; _this$ = ecx
  00000	55		 push	 ebp
  00001	8b ec		 mov	 ebp, esp
  00003	56		 push	 esi
  00004	8b f1		 mov	 esi, ecx
  00006	e8 00 00 00 00	 call	 ??1CListCtrl@@UAE@XZ	; CListCtrl::~CListCtrl
  0000b	8b 45 08	 mov	 eax, DWORD PTR ___flags$[ebp]
  0000e	a8 01		 test	 al, 1
  00010	74 22		 je	 SHORT $LN9@scalar
  00012	a8 04		 test	 al, 4
  00014	75 10		 jne	 SHORT $LN3@scalar

; 112  : 	{ ::operator delete(p); }

  00016	56		 push	 esi
  00017	e8 00 00 00 00	 call	 ??3@YAXPAX@Z		; operator delete
  0001c	83 c4 04	 add	 esp, 4
  0001f	8b c6		 mov	 eax, esi
  00021	5e		 pop	 esi
  00022	5d		 pop	 ebp
  00023	c2 04 00	 ret	 4
$LN3@scalar:
  00026	68 80 00 00 00	 push	 128			; 00000080H
  0002b	56		 push	 esi
  0002c	e8 00 00 00 00	 call	 ?__global_delete@@YAXPAXI@Z ; __global_delete
  00031	83 c4 08	 add	 esp, 8
$LN9@scalar:
  00034	8b c6		 mov	 eax, esi
  00036	5e		 pop	 esi
  00037	5d		 pop	 ebp
  00038	c2 04 00	 ret	 4
??_GCListCtrl@@UAEPAXI@Z ENDP				; CListCtrl::`scalar deleting destructor'
_TEXT	ENDS
; Function compile flags: /Ogtp
; File C:\Program Files (x86)\Microsoft Visual Studio\2019\Community\VC\Tools\MSVC\14.29.30133\atlmfc\include\afxwin2.inl
;	COMDAT ?Create@CDialog@@UAEHIPAVCWnd@@@Z
_TEXT	SEGMENT
_nIDTemplate$ = 8					; size = 4
_pParentWnd$ = 12					; size = 4
?Create@CDialog@@UAEHIPAVCWnd@@@Z PROC			; CDialog::Create, COMDAT
; _this$ = ecx

; 585  : 	{ return CDialog::Create(ATL_MAKEINTRESOURCE(nIDTemplate), pParentWnd); }

  00000	55		 push	 ebp
  00001	8b ec		 mov	 ebp, esp
  00003	0f b7 45 08	 movzx	 eax, WORD PTR _nIDTemplate$[ebp]
  00007	89 45 08	 mov	 DWORD PTR _nIDTemplate$[ebp], eax
  0000a	5d		 pop	 ebp
  0000b	e9 00 00 00 00	 jmp	 ?Create@CDialog@@UAEHPBDPAVCWnd@@@Z ; CDialog::Create
?Create@CDialog@@UAEHIPAVCWnd@@@Z ENDP			; CDialog::Create
_TEXT	ENDS
; Function compile flags: /Ogtp
; File C:\Program Files (x86)\Microsoft Visual Studio\2019\Community\VC\Tools\MSVC\14.29.30133\atlmfc\include\afxwin2.inl
;	COMDAT ?EndModalState@CWnd@@UAEXXZ
_TEXT	SEGMENT
?EndModalState@CWnd@@UAEXXZ PROC			; CWnd::EndModalState, COMDAT
; _this$ = ecx

; 567  : 	{ ::EnableWindow(m_hWnd, TRUE); }

  00000	6a 01		 push	 1
  00002	ff 71 20	 push	 DWORD PTR [ecx+32]
  00005	ff 15 00 00 00
	00		 call	 DWORD PTR __imp__EnableWindow@8
  0000b	c3		 ret	 0
?EndModalState@CWnd@@UAEXXZ ENDP			; CWnd::EndModalState
_TEXT	ENDS
; Function compile flags: /Ogtp
; File C:\Program Files (x86)\Microsoft Visual Studio\2019\Community\VC\Tools\MSVC\14.29.30133\atlmfc\include\afxwin2.inl
;	COMDAT ?BeginModalState@CWnd@@UAEXXZ
_TEXT	SEGMENT
?BeginModalState@CWnd@@UAEXXZ PROC			; CWnd::BeginModalState, COMDAT
; _this$ = ecx

; 565  : 	{ ::EnableWindow(m_hWnd, FALSE); }

  00000	6a 00		 push	 0
  00002	ff 71 20	 push	 DWORD PTR [ecx+32]
  00005	ff 15 00 00 00
	00		 call	 DWORD PTR __imp__EnableWindow@8
  0000b	c3		 ret	 0
?BeginModalState@CWnd@@UAEXXZ ENDP			; CWnd::BeginModalState
_TEXT	ENDS
; Function compile flags: /Ogtp
; File C:\Program Files (x86)\Microsoft Visual Studio\2019\Community\VC\Tools\MSVC\14.29.30133\atlmfc\include\afxwin2.inl
;	COMDAT ?DoDataExchange@CWnd@@MAEXPAVCDataExchange@@@Z
_TEXT	SEGMENT
___formal$ = 8						; size = 4
?DoDataExchange@CWnd@@MAEXPAVCDataExchange@@@Z PROC	; CWnd::DoDataExchange, COMDAT
; _this$ = ecx

; 561  : 	{ } // default does nothing

  00000	c2 04 00	 ret	 4
?DoDataExchange@CWnd@@MAEXPAVCDataExchange@@@Z ENDP	; CWnd::DoDataExchange
_TEXT	ENDS
; Function compile flags: /Ogtp
; File C:\Program Files (x86)\Microsoft Visual Studio\2019\Community\VC\Tools\MSVC\14.29.30133\atlmfc\include\afx.inl
;	COMDAT ?Dump@CObject@@UBEXAAVCDumpContext@@@Z
_TEXT	SEGMENT
___formal$ = 8						; size = 4
?Dump@CObject@@UBEXAAVCDumpContext@@@Z PROC		; CObject::Dump, COMDAT
; _this$ = ecx

; 122  : 	{ /* no dumping in release builds */ }

  00000	c2 04 00	 ret	 4
?Dump@CObject@@UBEXAAVCDumpContext@@@Z ENDP		; CObject::Dump
_TEXT	ENDS
; Function compile flags: /Ogtp
; File C:\Program Files (x86)\Microsoft Visual Studio\2019\Community\VC\Tools\MSVC\14.29.30133\atlmfc\include\afx.inl
;	COMDAT ?AssertValid@CObject@@UBEXXZ
_TEXT	SEGMENT
?AssertValid@CObject@@UBEXXZ PROC			; CObject::AssertValid, COMDAT
; _this$ = ecx

; 120  : 	{ /* no asserts in release builds */ }

  00000	c2 00 00	 ret	 0
?AssertValid@CObject@@UBEXXZ ENDP			; CObject::AssertValid
_TEXT	ENDS
; Function compile flags: /Ogtp
; File C:\Program Files (x86)\Microsoft Visual Studio\2019\Community\VC\Tools\MSVC\14.29.30133\atlmfc\include\afx.inl
;	COMDAT ?Serialize@CObject@@UAEXAAVCArchive@@@Z
_TEXT	SEGMENT
___formal$ = 8						; size = 4
?Serialize@CObject@@UAEXAAVCArchive@@@Z PROC		; CObject::Serialize, COMDAT
; _this$ = ecx

; 106  : 	{ /* CObject does not serialize anything by default */ }

  00000	c2 04 00	 ret	 4
?Serialize@CObject@@UAEXAAVCArchive@@@Z ENDP		; CObject::Serialize
_TEXT	ENDS
; Function compile flags: /Ogtp
; File C:\Program Files (x86)\Microsoft Visual Studio\2019\Community\VC\Tools\MSVC\14.29.30133\atlmfc\include\afx.inl
;	COMDAT ??3CObject@@SGXPAX@Z
_TEXT	SEGMENT
_p$ = 8							; size = 4
??3CObject@@SGXPAX@Z PROC				; CObject::operator delete, COMDAT

; 112  : 	{ ::operator delete(p); }

  00000	55		 push	 ebp
  00001	8b ec		 mov	 ebp, esp
  00003	ff 75 08	 push	 DWORD PTR _p$[ebp]
  00006	e8 00 00 00 00	 call	 ??3@YAXPAX@Z		; operator delete
  0000b	83 c4 04	 add	 esp, 4
  0000e	5d		 pop	 ebp
  0000f	c2 04 00	 ret	 4
??3CObject@@SGXPAX@Z ENDP				; CObject::operator delete
_TEXT	ENDS
; Function compile flags: /Ogtp
; File C:\Program Files (x86)\Windows Kits\10\Include\10.0.22000.0\ucrt\stdio.h
;	COMDAT _sprintf
_TEXT	SEGMENT
__Buffer$ = 8						; size = 4
__Format$ = 12						; size = 4
_sprintf PROC						; COMDAT

; 1771 :     {

  00000	55		 push	 ebp
  00001	8b ec		 mov	 ebp, esp

; 1392 :         int const _Result = __stdio_common_vsprintf(

  00003	8d 45 10	 lea	 eax, DWORD PTR __Format$[ebp+4]
  00006	50		 push	 eax
  00007	6a 00		 push	 0
  00009	ff 75 0c	 push	 DWORD PTR __Format$[ebp]
  0000c	6a ff		 push	 -1
  0000e	ff 75 08	 push	 DWORD PTR __Buffer$[ebp]
  00011	e8 00 00 00 00	 call	 ___local_stdio_printf_options
  00016	8b 08		 mov	 ecx, DWORD PTR [eax]
  00018	ff 70 04	 push	 DWORD PTR [eax+4]
  0001b	83 c9 01	 or	 ecx, 1
  0001e	51		 push	 ecx
  0001f	ff 15 00 00 00
	00		 call	 DWORD PTR __imp____stdio_common_vsprintf

; 1393 :             _CRT_INTERNAL_LOCAL_PRINTF_OPTIONS | _CRT_INTERNAL_PRINTF_LEGACY_VSPRINTF_NULL_TERMINATION,
; 1394 :             _Buffer, _BufferCount, _Format, _Locale, _ArgList);
; 1395 : 
; 1396 :         return _Result < 0 ? -1 : _Result;

  00025	83 c9 ff	 or	 ecx, -1
  00028	83 c4 1c	 add	 esp, 28			; 0000001cH
  0002b	85 c0		 test	 eax, eax
  0002d	0f 48 c1	 cmovs	 eax, ecx

; 1772 :         int _Result;
; 1773 :         va_list _ArgList;
; 1774 :         __crt_va_start(_ArgList, _Format);
; 1775 : 
; 1776 :         _Result = _vsprintf_l(_Buffer, _Format, NULL, _ArgList);
; 1777 : 
; 1778 :         __crt_va_end(_ArgList);
; 1779 :         return _Result;
; 1780 :     }

  00030	5d		 pop	 ebp
  00031	c3		 ret	 0
_sprintf ENDP
_TEXT	ENDS
; Function compile flags: /Ogtp
; File C:\Program Files (x86)\Windows Kits\10\Include\10.0.22000.0\ucrt\corecrt_stdio_config.h
;	COMDAT ___local_stdio_printf_options
_TEXT	SEGMENT
___local_stdio_printf_options PROC			; COMDAT

; 91   :         static unsigned __int64 _OptionsStorage;
; 92   :         return &_OptionsStorage;

  00000	b8 00 00 00 00	 mov	 eax, OFFSET ?_OptionsStorage@?1??__local_stdio_printf_options@@9@4_KA ; `__local_stdio_printf_options'::`2'::_OptionsStorage

; 93   :     }

  00005	c3		 ret	 0
___local_stdio_printf_options ENDP
_TEXT	ENDS
; Function compile flags: /Ogtp
; File D:\git\src\IBK\IBK_DRFN\ProjSrc\SrcChartEx\ChartAddIn\ChartDesignPropertyAddIn\ChartDesignPropertyAddIn\SharedDataPage.cpp
;	COMDAT ?__empty_global_delete@@YAXPAXI@Z
_TEXT	SEGMENT
___formal$ = 8						; size = 4
___formal$ = 12						; size = 4
?__empty_global_delete@@YAXPAXI@Z PROC			; __empty_global_delete, COMDAT

  00000	c2 00 00	 ret	 0
?__empty_global_delete@@YAXPAXI@Z ENDP			; __empty_global_delete
_TEXT	ENDS
; Function compile flags: /Ogtp
; File D:\git\src\IBK\IBK_DRFN\ProjSrc\SrcChartEx\ChartAddIn\ChartDesignPropertyAddIn\ChartDesignPropertyAddIn\SharedDataPage.cpp
;	COMDAT ?__empty_global_delete@@YAXPAX@Z
_TEXT	SEGMENT
___formal$ = 8						; size = 4
?__empty_global_delete@@YAXPAX@Z PROC			; __empty_global_delete, COMDAT

  00000	c2 00 00	 ret	 0
?__empty_global_delete@@YAXPAX@Z ENDP			; __empty_global_delete
_TEXT	ENDS
END
