; Listing generated by Microsoft (R) Optimizing Compiler Version 19.29.30145.0 

	TITLE	D:\git\src\IBK\IBK_DRFN\#DRfn-CS\_Obj\ChartDesignPropertyAddIn\ToolandRButtonTabCtrl.obj
	.686P
	.XMM
	include listing.inc
	.model	flat

INCLUDELIB MSVCRT
INCLUDELIB OLDNAMES

PUBLIC	?__empty_global_delete@@YAXPAX@Z		; __empty_global_delete
PUBLIC	?__empty_global_delete@@YAXPAXI@Z		; __empty_global_delete
PUBLIC	??3CObject@@SGXPAX@Z				; CObject::operator delete
PUBLIC	?Serialize@CObject@@UAEXAAVCArchive@@@Z		; CObject::Serialize
PUBLIC	?AssertValid@CObject@@UBEXXZ			; CObject::AssertValid
PUBLIC	?Dump@CObject@@UBEXAAVCDumpContext@@@Z		; CObject::Dump
PUBLIC	?DoDataExchange@CWnd@@MAEXPAVCDataExchange@@@Z	; CWnd::DoDataExchange
PUBLIC	?BeginModalState@CWnd@@UAEXXZ			; CWnd::BeginModalState
PUBLIC	?EndModalState@CWnd@@UAEXXZ			; CWnd::EndModalState
PUBLIC	??_GCTabCtrl@@UAEPAXI@Z				; CTabCtrl::`scalar deleting destructor'
PUBLIC	?LoadResourceDLL@IMetaTable@@QAEPAUHINSTANCE__@@PAUHWND__@@PAU2@@Z ; IMetaTable::LoadResourceDLL
PUBLIC	??1CMultiLanguageResourceSetter@@QAE@XZ		; CMultiLanguageResourceSetter::~CMultiLanguageResourceSetter
PUBLIC	??1CNumericalInquiryOptionDlg@@UAE@XZ		; CNumericalInquiryOptionDlg::~CNumericalInquiryOptionDlg
PUBLIC	??0CToolandRButtonTabCtrl@@QAE@XZ		; CToolandRButtonTabCtrl::CToolandRButtonTabCtrl
PUBLIC	??1CToolandRButtonTabCtrl@@UAE@XZ		; CToolandRButtonTabCtrl::~CToolandRButtonTabCtrl
PUBLIC	?SetSavedDataFromParent@CToolandRButtonTabCtrl@@QAEXABV?$CStringT@DV?$StrTraitMFC_DLL@DV?$ChTraitsCRT@D@ATL@@@@@ATL@@@Z ; CToolandRButtonTabCtrl::SetSavedDataFromParent
PUBLIC	?SetSavedDataFromParent@CToolandRButtonTabCtrl@@QAEXH@Z ; CToolandRButtonTabCtrl::SetSavedDataFromParent
PUBLIC	?SetSavedDataToDlgwithListCtrl@CToolandRButtonTabCtrl@@QAEXXZ ; CToolandRButtonTabCtrl::SetSavedDataToDlgwithListCtrl
PUBLIC	?GetListItemInfo@CToolandRButtonTabCtrl@@QAE?AV?$CStringT@DV?$StrTraitMFC_DLL@DV?$ChTraitsCRT@D@ATL@@@@@ATL@@XZ ; CToolandRButtonTabCtrl::GetListItemInfo
PUBLIC	?GetNumericalInquiryOption@CToolandRButtonTabCtrl@@QAEHXZ ; CToolandRButtonTabCtrl::GetNumericalInquiryOption
PUBLIC	?InitDropTarget@CToolandRButtonTabCtrl@@QAEXXZ	; CToolandRButtonTabCtrl::InitDropTarget
PUBLIC	?InitTab@CToolandRButtonTabCtrl@@QAEXXZ		; CToolandRButtonTabCtrl::InitTab
PUBLIC	?GetMiniToolBarItem@CToolandRButtonTabCtrl@@QAE?AV?$CStringT@DV?$StrTraitMFC_DLL@DV?$ChTraitsCRT@D@ATL@@@@@ATL@@XZ ; CToolandRButtonTabCtrl::GetMiniToolBarItem
PUBLIC	?SetTabFocus@CToolandRButtonTabCtrl@@QAEXXZ	; CToolandRButtonTabCtrl::SetTabFocus
PUBLIC	?OnLButtonDown@CToolandRButtonTabCtrl@@IAEXIVCPoint@@@Z ; CToolandRButtonTabCtrl::OnLButtonDown
PUBLIC	?GetThisMessageMap@CToolandRButtonTabCtrl@@KGPBUAFX_MSGMAP@@XZ ; CToolandRButtonTabCtrl::GetThisMessageMap
PUBLIC	?GetMessageMap@CToolandRButtonTabCtrl@@MBEPBUAFX_MSGMAP@@XZ ; CToolandRButtonTabCtrl::GetMessageMap
PUBLIC	?SetRectangle@CToolandRButtonTabCtrl@@AAEXXZ	; CToolandRButtonTabCtrl::SetRectangle
PUBLIC	?SetOcxHwnd@CToolandRButtonTabCtrl@@QAEXPAUHWND__@@@Z ; CToolandRButtonTabCtrl::SetOcxHwnd
PUBLIC	??_GCToolandRButtonTabCtrl@@UAEPAXI@Z		; CToolandRButtonTabCtrl::`scalar deleting destructor'
PUBLIC	??_C@_00CNPNBAHC@@				; `string'
PUBLIC	??_7CTabCtrl@@6B@				; CTabCtrl::`vftable'
PUBLIC	??_R0?AVCObject@@@8				; CObject `RTTI Type Descriptor'
PUBLIC	??_R3CObject@@8					; CObject::`RTTI Class Hierarchy Descriptor'
PUBLIC	??_R2CObject@@8					; CObject::`RTTI Base Class Array'
PUBLIC	??_R1A@?0A@EA@CObject@@8			; CObject::`RTTI Base Class Descriptor at (0,-1,0,64)'
PUBLIC	??_R1A@?0A@EA@CWnd@@8				; CWnd::`RTTI Base Class Descriptor at (0,-1,0,64)'
PUBLIC	??_R0?AVCWnd@@@8				; CWnd `RTTI Type Descriptor'
PUBLIC	??_R3CWnd@@8					; CWnd::`RTTI Class Hierarchy Descriptor'
PUBLIC	??_R2CWnd@@8					; CWnd::`RTTI Base Class Array'
PUBLIC	??_R1A@?0A@EA@CCmdTarget@@8			; CCmdTarget::`RTTI Base Class Descriptor at (0,-1,0,64)'
PUBLIC	??_R0?AVCCmdTarget@@@8				; CCmdTarget `RTTI Type Descriptor'
PUBLIC	??_R3CCmdTarget@@8				; CCmdTarget::`RTTI Class Hierarchy Descriptor'
PUBLIC	??_R2CCmdTarget@@8				; CCmdTarget::`RTTI Base Class Array'
PUBLIC	??_R4CTabCtrl@@6B@				; CTabCtrl::`RTTI Complete Object Locator'
PUBLIC	??_R0?AVCTabCtrl@@@8				; CTabCtrl `RTTI Type Descriptor'
PUBLIC	??_R3CTabCtrl@@8				; CTabCtrl::`RTTI Class Hierarchy Descriptor'
PUBLIC	??_R2CTabCtrl@@8				; CTabCtrl::`RTTI Base Class Array'
PUBLIC	??_R1A@?0A@EA@CTabCtrl@@8			; CTabCtrl::`RTTI Base Class Descriptor at (0,-1,0,64)'
PUBLIC	??_C@_0BA@ENJOCHIO@LoadResourceDLL@		; `string'
PUBLIC	??_7CToolandRButtonTabCtrl@@6B@			; CToolandRButtonTabCtrl::`vftable'
PUBLIC	??_C@_02PCIJFNDE@?$AN?6@			; `string'
PUBLIC	??_C@_05HBNJBHCC@End?$AN?6@			; `string'
PUBLIC	??_R4CToolandRButtonTabCtrl@@6B@		; CToolandRButtonTabCtrl::`RTTI Complete Object Locator'
PUBLIC	??_R0?AVCToolandRButtonTabCtrl@@@8		; CToolandRButtonTabCtrl `RTTI Type Descriptor'
PUBLIC	??_R3CToolandRButtonTabCtrl@@8			; CToolandRButtonTabCtrl::`RTTI Class Hierarchy Descriptor'
PUBLIC	??_R2CToolandRButtonTabCtrl@@8			; CToolandRButtonTabCtrl::`RTTI Base Class Array'
PUBLIC	??_R1A@?0A@EA@CToolandRButtonTabCtrl@@8		; CToolandRButtonTabCtrl::`RTTI Base Class Descriptor at (0,-1,0,64)'
EXTRN	??2@YAPAXI@Z:PROC				; operator new
EXTRN	??3@YAXPAX@Z:PROC				; operator delete
EXTRN	?__global_delete@@YAXPAXI@Z:PROC		; __global_delete
EXTRN	___std_terminate:PROC
EXTRN	__imp__GetProcAddress@8:PROC
EXTRN	__imp__SendMessageA@16:PROC
EXTRN	__imp__EnableWindow@8:PROC
EXTRN	__imp__GetClientRect@8:PROC
EXTRN	__imp_?Concatenate@?$CSimpleStringT@D$00@ATL@@KAXAAV12@PBDH1H@Z:PROC
EXTRN	__imp_??0?$CStringT@DV?$StrTraitMFC_DLL@DV?$ChTraitsCRT@D@ATL@@@@@ATL@@QAE@XZ:PROC
EXTRN	__imp_??0?$CStringT@DV?$StrTraitMFC_DLL@DV?$ChTraitsCRT@D@ATL@@@@@ATL@@QAE@PAUIAtlStringMgr@1@@Z:PROC
EXTRN	__imp_??0?$CStringT@DV?$StrTraitMFC_DLL@DV?$ChTraitsCRT@D@ATL@@@@@ATL@@QAE@ABV01@@Z:PROC
EXTRN	__imp_??0?$CStringT@DV?$StrTraitMFC_DLL@DV?$ChTraitsCRT@D@ATL@@@@@ATL@@QAE@PBD@Z:PROC
EXTRN	__imp_??1?$CStringT@DV?$StrTraitMFC_DLL@DV?$ChTraitsCRT@D@ATL@@@@@ATL@@QAE@XZ:PROC
EXTRN	__imp_??4?$CStringT@DV?$StrTraitMFC_DLL@DV?$ChTraitsCRT@D@ATL@@@@@ATL@@QAEAAV01@ABV01@@Z:PROC
EXTRN	__imp_??Y?$CStringT@DV?$StrTraitMFC_DLL@DV?$ChTraitsCRT@D@ATL@@@@@ATL@@QAEAAV01@ABV?$CSimpleStringT@D$00@1@@Z:PROC
EXTRN	__imp_??Y?$CStringT@DV?$StrTraitMFC_DLL@DV?$ChTraitsCRT@D@ATL@@@@@ATL@@QAEAAV01@PBD@Z:PROC
EXTRN	__imp_?GetManager@?$CStringT@DV?$StrTraitMFC_DLL@DV?$ChTraitsCRT@D@ATL@@@@@ATL@@QBEPAUIAtlStringMgr@2@XZ:PROC
EXTRN	__imp_?Compare@?$CStringT@DV?$StrTraitMFC_DLL@DV?$ChTraitsCRT@D@ATL@@@@@ATL@@QBEHPBD@Z:PROC
EXTRN	__imp_?Right@?$CStringT@DV?$StrTraitMFC_DLL@DV?$ChTraitsCRT@D@ATL@@@@@ATL@@QBE?AV12@H@Z:PROC
EXTRN	__imp_?LoadStringA@?$CStringT@DV?$StrTraitMFC_DLL@DV?$ChTraitsCRT@D@ATL@@@@@ATL@@QAEHI@Z:PROC
EXTRN	?AfxGetModuleState@@YGPAVAFX_MODULE_STATE@@XZ:PROC ; AfxGetModuleState
EXTRN	?AfxGetStaticModuleState@@YGPAVAFX_MODULE_STATE@@XZ:PROC ; AfxGetStaticModuleState
EXTRN	?OnCmdMsg@CCmdTarget@@UAEHIHPAXPAUAFX_CMDHANDLERINFO@@@Z:PROC ; CCmdTarget::OnCmdMsg
EXTRN	?IsInvokeAllowed@CCmdTarget@@UAEHJ@Z:PROC	; CCmdTarget::IsInvokeAllowed
EXTRN	?GetDispatchIID@CCmdTarget@@UAEHPAU_GUID@@@Z:PROC ; CCmdTarget::GetDispatchIID
EXTRN	?GetTypeInfoCount@CCmdTarget@@UAEIXZ:PROC	; CCmdTarget::GetTypeInfoCount
EXTRN	?GetTypeLibCache@CCmdTarget@@UAEPAVCTypeLibCache@@XZ:PROC ; CCmdTarget::GetTypeLibCache
EXTRN	?GetTypeLib@CCmdTarget@@UAEJKPAPAUITypeLib@@@Z:PROC ; CCmdTarget::GetTypeLib
EXTRN	?GetCommandMap@CCmdTarget@@MBEPBUAFX_OLECMDMAP@@XZ:PROC ; CCmdTarget::GetCommandMap
EXTRN	?GetDispatchMap@CCmdTarget@@MBEPBUAFX_DISPMAP@@XZ:PROC ; CCmdTarget::GetDispatchMap
EXTRN	?GetConnectionMap@CCmdTarget@@MBEPBUAFX_CONNECTIONMAP@@XZ:PROC ; CCmdTarget::GetConnectionMap
EXTRN	?GetEventSinkMap@CCmdTarget@@MBEPBUAFX_EVENTSINKMAP@@XZ:PROC ; CCmdTarget::GetEventSinkMap
EXTRN	?OnCreateAggregates@CCmdTarget@@UAEHXZ:PROC	; CCmdTarget::OnCreateAggregates
EXTRN	?GetInterfaceHook@CCmdTarget@@UAEPAUIUnknown@@PBX@Z:PROC ; CCmdTarget::GetInterfaceHook
EXTRN	?GetExtraConnectionPoints@CCmdTarget@@MAEHPAVCPtrArray@@@Z:PROC ; CCmdTarget::GetExtraConnectionPoints
EXTRN	?GetConnectionHook@CCmdTarget@@MAEPAUIConnectionPoint@@ABU_GUID@@@Z:PROC ; CCmdTarget::GetConnectionHook
EXTRN	??0CWnd@@QAE@XZ:PROC				; CWnd::CWnd
EXTRN	?PreSubclassWindow@CWnd@@UAEXXZ:PROC		; CWnd::PreSubclassWindow
EXTRN	?Create@CWnd@@UAEHPBD0KABUtagRECT@@PAV1@IPAUCCreateContext@@@Z:PROC ; CWnd::Create
EXTRN	?CreateEx@CWnd@@UAEHKPBD0KHHHHPAUHWND__@@PAUHMENU__@@PAX@Z:PROC ; CWnd::CreateEx
EXTRN	?CreateEx@CWnd@@UAEHKPBD0KABUtagRECT@@PAV1@IPAX@Z:PROC ; CWnd::CreateEx
EXTRN	?DestroyWindow@CWnd@@UAEHXZ:PROC		; CWnd::DestroyWindow
EXTRN	?PreCreateWindow@CWnd@@UAEHAAUtagCREATESTRUCTA@@@Z:PROC ; CWnd::PreCreateWindow
EXTRN	?CalcWindowRect@CWnd@@UAEXPAUtagRECT@@I@Z:PROC	; CWnd::CalcWindowRect
EXTRN	?GetDlgItem@CWnd@@QBEPAV1@H@Z:PROC		; CWnd::GetDlgItem
EXTRN	?GetMenu@CWnd@@UBEPAVCMenu@@XZ:PROC		; CWnd::GetMenu
EXTRN	?SetMenu@CWnd@@UAEHPAVCMenu@@@Z:PROC		; CWnd::SetMenu
EXTRN	?MoveWindow@CWnd@@QAEXHHHHH@Z:PROC		; CWnd::MoveWindow
EXTRN	?ShowWindow@CWnd@@QAEHH@Z:PROC			; CWnd::ShowWindow
EXTRN	?OnToolHitTest@CWnd@@UBEHVCPoint@@PAUtagTOOLINFOA@@@Z:PROC ; CWnd::OnToolHitTest
EXTRN	?SetFocus@CWnd@@QAEPAV1@XZ:PROC			; CWnd::SetFocus
EXTRN	?GetScrollBarCtrl@CWnd@@UBEPAVCScrollBar@@H@Z:PROC ; CWnd::GetScrollBarCtrl
EXTRN	?WinHelpA@CWnd@@UAEXKI@Z:PROC			; CWnd::WinHelpA
EXTRN	?HtmlHelpA@CWnd@@UAEXKI@Z:PROC			; CWnd::HtmlHelpA
EXTRN	?WinHelpInternal@CWnd@@UAEXKI@Z:PROC		; CWnd::WinHelpInternal
EXTRN	?ContinueModal@CWnd@@UAEHXZ:PROC		; CWnd::ContinueModal
EXTRN	?EndModalLoop@CWnd@@UAEXH@Z:PROC		; CWnd::EndModalLoop
EXTRN	?OnDrawIconicThumbnailOrLivePreview@CWnd@@UAEXAAVCDC@@VCRect@@VCSize@@HAAH@Z:PROC ; CWnd::OnDrawIconicThumbnailOrLivePreview
EXTRN	?GetInterfaceMap@CWnd@@MBEPBUAFX_INTERFACEMAP@@XZ:PROC ; CWnd::GetInterfaceMap
EXTRN	?EnsureStdObj@CWnd@@UAEJXZ:PROC			; CWnd::EnsureStdObj
EXTRN	?get_accParent@CWnd@@UAEJPAPAUIDispatch@@@Z:PROC ; CWnd::get_accParent
EXTRN	?get_accChildCount@CWnd@@UAEJPAJ@Z:PROC		; CWnd::get_accChildCount
EXTRN	?get_accChild@CWnd@@UAEJUtagVARIANT@@PAPAUIDispatch@@@Z:PROC ; CWnd::get_accChild
EXTRN	?get_accName@CWnd@@UAEJUtagVARIANT@@PAPA_W@Z:PROC ; CWnd::get_accName
EXTRN	?get_accValue@CWnd@@UAEJUtagVARIANT@@PAPA_W@Z:PROC ; CWnd::get_accValue
EXTRN	?get_accDescription@CWnd@@UAEJUtagVARIANT@@PAPA_W@Z:PROC ; CWnd::get_accDescription
EXTRN	?get_accRole@CWnd@@UAEJUtagVARIANT@@PAU2@@Z:PROC ; CWnd::get_accRole
EXTRN	?get_accState@CWnd@@UAEJUtagVARIANT@@PAU2@@Z:PROC ; CWnd::get_accState
EXTRN	?get_accHelp@CWnd@@UAEJUtagVARIANT@@PAPA_W@Z:PROC ; CWnd::get_accHelp
EXTRN	?get_accHelpTopic@CWnd@@UAEJPAPA_WUtagVARIANT@@PAJ@Z:PROC ; CWnd::get_accHelpTopic
EXTRN	?get_accKeyboardShortcut@CWnd@@UAEJUtagVARIANT@@PAPA_W@Z:PROC ; CWnd::get_accKeyboardShortcut
EXTRN	?get_accFocus@CWnd@@UAEJPAUtagVARIANT@@@Z:PROC	; CWnd::get_accFocus
EXTRN	?get_accSelection@CWnd@@UAEJPAUtagVARIANT@@@Z:PROC ; CWnd::get_accSelection
EXTRN	?get_accDefaultAction@CWnd@@UAEJUtagVARIANT@@PAPA_W@Z:PROC ; CWnd::get_accDefaultAction
EXTRN	?accSelect@CWnd@@UAEJJUtagVARIANT@@@Z:PROC	; CWnd::accSelect
EXTRN	?accLocation@CWnd@@UAEJPAJ000UtagVARIANT@@@Z:PROC ; CWnd::accLocation
EXTRN	?accNavigate@CWnd@@UAEJJUtagVARIANT@@PAU2@@Z:PROC ; CWnd::accNavigate
EXTRN	?accHitTest@CWnd@@UAEJJJPAUtagVARIANT@@@Z:PROC	; CWnd::accHitTest
EXTRN	?accDoDefaultAction@CWnd@@UAEJUtagVARIANT@@@Z:PROC ; CWnd::accDoDefaultAction
EXTRN	?put_accName@CWnd@@UAEJUtagVARIANT@@PA_W@Z:PROC	; CWnd::put_accName
EXTRN	?put_accValue@CWnd@@UAEJUtagVARIANT@@PA_W@Z:PROC ; CWnd::put_accValue
EXTRN	?SetProxy@CWnd@@UAEJPAUIAccessibleProxy@@@Z:PROC ; CWnd::SetProxy
EXTRN	?CreateAccessibleProxy@CWnd@@UAEJIJPAJ@Z:PROC	; CWnd::CreateAccessibleProxy
EXTRN	?OnCommand@CWnd@@MAEHIJ@Z:PROC			; CWnd::OnCommand
EXTRN	?OnNotify@CWnd@@MAEHIJPAJ@Z:PROC		; CWnd::OnNotify
EXTRN	?GetSuperWndProcAddr@CWnd@@MAEPAP6GJPAUHWND__@@IIJ@ZXZ:PROC ; CWnd::GetSuperWndProcAddr
EXTRN	?PreTranslateMessage@CWnd@@UAEHPAUtagMSG@@@Z:PROC ; CWnd::PreTranslateMessage
EXTRN	?OnAmbientProperty@CWnd@@UAEHPAVCOleControlSite@@JPAUtagVARIANT@@@Z:PROC ; CWnd::OnAmbientProperty
EXTRN	?WindowProc@CWnd@@MAEJIIJ@Z:PROC		; CWnd::WindowProc
EXTRN	?OnWndMsg@CWnd@@MAEHIIJPAJ@Z:PROC		; CWnd::OnWndMsg
EXTRN	?Default@CWnd@@IAEJXZ:PROC			; CWnd::Default
EXTRN	?DefWindowProcA@CWnd@@MAEJIIJ@Z:PROC		; CWnd::DefWindowProcA
EXTRN	?PostNcDestroy@CWnd@@MAEXXZ:PROC		; CWnd::PostNcDestroy
EXTRN	?OnTouchInputs@CWnd@@MAEHIPAUtagTOUCHINPUT@@@Z:PROC ; CWnd::OnTouchInputs
EXTRN	?OnTouchInput@CWnd@@MAEHVCPoint@@HHPAUtagTOUCHINPUT@@@Z:PROC ; CWnd::OnTouchInput
EXTRN	?GetGestureStatus@CWnd@@MAEKVCPoint@@@Z:PROC	; CWnd::GetGestureStatus
EXTRN	?OnGestureZoom@CWnd@@MAEHVCPoint@@J@Z:PROC	; CWnd::OnGestureZoom
EXTRN	?OnGesturePan@CWnd@@MAEHVCPoint@@0@Z:PROC	; CWnd::OnGesturePan
EXTRN	?OnGestureRotate@CWnd@@MAEHVCPoint@@N@Z:PROC	; CWnd::OnGestureRotate
EXTRN	?OnGestureTwoFingerTap@CWnd@@MAEHVCPoint@@@Z:PROC ; CWnd::OnGestureTwoFingerTap
EXTRN	?OnGesturePressAndTap@CWnd@@MAEHVCPoint@@J@Z:PROC ; CWnd::OnGesturePressAndTap
EXTRN	?ResizeDynamicLayout@CWnd@@MAEXXZ:PROC		; CWnd::ResizeDynamicLayout
EXTRN	?CheckAutoCenter@CWnd@@UAEHXZ:PROC		; CWnd::CheckAutoCenter
EXTRN	?IsFrameWnd@CWnd@@UBEHXZ:PROC			; CWnd::IsFrameWnd
EXTRN	?OnFinalRelease@CWnd@@UAEXXZ:PROC		; CWnd::OnFinalRelease
EXTRN	?CreateControlContainer@CWnd@@MAEHPAPAVCOleControlContainer@@@Z:PROC ; CWnd::CreateControlContainer
EXTRN	?CreateControlSite@CWnd@@MAEHPAVCOleControlContainer@@PAPAVCOleControlSite@@IABU_GUID@@@Z:PROC ; CWnd::CreateControlSite
EXTRN	?SetOccDialogInfo@CWnd@@MAEHPAU_AFX_OCC_DIALOG_INFO@@@Z:PROC ; CWnd::SetOccDialogInfo
EXTRN	?GetOccDialogInfo@CWnd@@MAEPAU_AFX_OCC_DIALOG_INFO@@XZ:PROC ; CWnd::GetOccDialogInfo
EXTRN	??1CDialog@@UAE@XZ:PROC				; CDialog::~CDialog
EXTRN	?GetRuntimeClass@CTabCtrl@@UBEPAUCRuntimeClass@@XZ:PROC ; CTabCtrl::GetRuntimeClass
EXTRN	?Create@CTabCtrl@@UAEHKABUtagRECT@@PAVCWnd@@I@Z:PROC ; CTabCtrl::Create
EXTRN	?CreateEx@CTabCtrl@@UAEHKKABUtagRECT@@PAVCWnd@@I@Z:PROC ; CTabCtrl::CreateEx
EXTRN	?InsertItem@CTabCtrl@@QAEJIHPBDHJ@Z:PROC	; CTabCtrl::InsertItem
EXTRN	?DrawItem@CTabCtrl@@UAEXPAUtagDRAWITEMSTRUCT@@@Z:PROC ; CTabCtrl::DrawItem
EXTRN	??1CTabCtrl@@UAE@XZ:PROC			; CTabCtrl::~CTabCtrl
EXTRN	?OnChildNotify@CTabCtrl@@MAEHIIJPAJ@Z:PROC	; CTabCtrl::OnChildNotify
EXTRN	?GetThisMessageMap@CTabCtrl@@KGPBUAFX_MSGMAP@@XZ:PROC ; CTabCtrl::GetThisMessageMap
EXTRN	?GetMessageMap@CTabCtrl@@MBEPBUAFX_MSGMAP@@XZ:PROC ; CTabCtrl::GetMessageMap
EXTRN	??_ECTabCtrl@@UAEPAXI@Z:PROC			; CTabCtrl::`vector deleting destructor'
EXTRN	??0CToolandRButtonItemMgr@@QAE@XZ:PROC		; CToolandRButtonItemMgr::CToolandRButtonItemMgr
EXTRN	??1CToolandRButtonItemMgr@@UAE@XZ:PROC		; CToolandRButtonItemMgr::~CToolandRButtonItemMgr
EXTRN	?Init@CToolandRButtonItemMgr@@QAEXXZ:PROC	; CToolandRButtonItemMgr::Init
EXTRN	??0CNumericalInquiryOptionDlg@@QAE@PAVCWnd@@@Z:PROC ; CNumericalInquiryOptionDlg::CNumericalInquiryOptionDlg
EXTRN	?GetNumericalInquiryOption@CNumericalInquiryOptionDlg@@QAEHXZ:PROC ; CNumericalInquiryOptionDlg::GetNumericalInquiryOption
EXTRN	?AddNumericalInquiryOption@CNumericalInquiryOptionDlg@@QAEXH@Z:PROC ; CNumericalInquiryOptionDlg::AddNumericalInquiryOption
EXTRN	??_ECToolandRButtonTabCtrl@@UAEPAXI@Z:PROC	; CToolandRButtonTabCtrl::`vector deleting destructor'
EXTRN	??0CToolandRButtonDlgwithGrid_ListCtrl@@QAE@HPAVCWnd@@@Z:PROC ; CToolandRButtonDlgwithGrid_ListCtrl::CToolandRButtonDlgwithGrid_ListCtrl
EXTRN	?SetListItemInfoFromParent@CToolandRButtonDlgwithGrid_ListCtrl@@QAEXABV?$CStringT@DV?$StrTraitMFC_DLL@DV?$ChTraitsCRT@D@ATL@@@@@ATL@@@Z:PROC ; CToolandRButtonDlgwithGrid_ListCtrl::SetListItemInfoFromParent
EXTRN	?SetListItemInfoMgrObject@CToolandRButtonDlgwithGrid_ListCtrl@@QAEXPAVCToolandRButtonItemMgr@@PBDPAVCNumericalInquiryOptionDlg@@@Z:PROC ; CToolandRButtonDlgwithGrid_ListCtrl::SetListItemInfoMgrObject
EXTRN	?GetListItemInfo@CToolandRButtonDlgwithGrid_ListCtrl@@QAE?AV?$CStringT@DV?$StrTraitMFC_DLL@DV?$ChTraitsCRT@D@ATL@@@@@ATL@@XZ:PROC ; CToolandRButtonDlgwithGrid_ListCtrl::GetListItemInfo
EXTRN	?InitDropTarget@CToolandRButtonDlgwithGrid_ListCtrl@@QAEXXZ:PROC ; CToolandRButtonDlgwithGrid_ListCtrl::InitDropTarget
EXTRN	?SetOcxHwnd@CToolandRButtonDlgwithGrid_ListCtrl@@QAEXPAUHWND__@@@Z:PROC ; CToolandRButtonDlgwithGrid_ListCtrl::SetOcxHwnd
EXTRN	?GetStringData@CDataConversion@@SA?AV?$CStringT@DV?$StrTraitMFC_DLL@DV?$ChTraitsCRT@D@ATL@@@@@ATL@@AAV23@ABV23@_N@Z:PROC ; CDataConversion::GetStringData
EXTRN	@__security_check_cookie@4:PROC
EXTRN	___CxxFrameHandler3:PROC
EXTRN	??_7type_info@@6B@:QWORD			; type_info::`vftable'
EXTRN	?g_iMetaTable@@3VIMetaTable@@A:BYTE		; g_iMetaTable
EXTRN	___security_cookie:DWORD
;	COMDAT ??_R1A@?0A@EA@CToolandRButtonTabCtrl@@8
rdata$r	SEGMENT
??_R1A@?0A@EA@CToolandRButtonTabCtrl@@8 DD FLAT:??_R0?AVCToolandRButtonTabCtrl@@@8 ; CToolandRButtonTabCtrl::`RTTI Base Class Descriptor at (0,-1,0,64)'
	DD	04H
	DD	00H
	DD	0ffffffffH
	DD	00H
	DD	040H
	DD	FLAT:??_R3CToolandRButtonTabCtrl@@8
rdata$r	ENDS
;	COMDAT ??_R2CToolandRButtonTabCtrl@@8
rdata$r	SEGMENT
??_R2CToolandRButtonTabCtrl@@8 DD FLAT:??_R1A@?0A@EA@CToolandRButtonTabCtrl@@8 ; CToolandRButtonTabCtrl::`RTTI Base Class Array'
	DD	FLAT:??_R1A@?0A@EA@CTabCtrl@@8
	DD	FLAT:??_R1A@?0A@EA@CWnd@@8
	DD	FLAT:??_R1A@?0A@EA@CCmdTarget@@8
	DD	FLAT:??_R1A@?0A@EA@CObject@@8
rdata$r	ENDS
;	COMDAT ??_R3CToolandRButtonTabCtrl@@8
rdata$r	SEGMENT
??_R3CToolandRButtonTabCtrl@@8 DD 00H			; CToolandRButtonTabCtrl::`RTTI Class Hierarchy Descriptor'
	DD	00H
	DD	05H
	DD	FLAT:??_R2CToolandRButtonTabCtrl@@8
rdata$r	ENDS
;	COMDAT ??_R0?AVCToolandRButtonTabCtrl@@@8
data$rs	SEGMENT
??_R0?AVCToolandRButtonTabCtrl@@@8 DD FLAT:??_7type_info@@6B@ ; CToolandRButtonTabCtrl `RTTI Type Descriptor'
	DD	00H
	DB	'.?AVCToolandRButtonTabCtrl@@', 00H
data$rs	ENDS
;	COMDAT ??_R4CToolandRButtonTabCtrl@@6B@
rdata$r	SEGMENT
??_R4CToolandRButtonTabCtrl@@6B@ DD 00H			; CToolandRButtonTabCtrl::`RTTI Complete Object Locator'
	DD	00H
	DD	00H
	DD	FLAT:??_R0?AVCToolandRButtonTabCtrl@@@8
	DD	FLAT:??_R3CToolandRButtonTabCtrl@@8
rdata$r	ENDS
;	COMDAT ??_C@_05HBNJBHCC@End?$AN?6@
CONST	SEGMENT
??_C@_05HBNJBHCC@End?$AN?6@ DB 'End', 0dH, 0aH, 00H	; `string'
CONST	ENDS
;	COMDAT ??_C@_02PCIJFNDE@?$AN?6@
CONST	SEGMENT
??_C@_02PCIJFNDE@?$AN?6@ DB 0dH, 0aH, 00H		; `string'
CONST	ENDS
;	COMDAT ?messageMap@?1??GetThisMessageMap@CToolandRButtonTabCtrl@@KGPBUAFX_MSGMAP@@XZ@4U3@B
CONST	SEGMENT
?messageMap@?1??GetThisMessageMap@CToolandRButtonTabCtrl@@KGPBUAFX_MSGMAP@@XZ@4U3@B DD FLAT:?GetThisMessageMap@CTabCtrl@@KGPBUAFX_MSGMAP@@XZ ; `CToolandRButtonTabCtrl::GetThisMessageMap'::`2'::messageMap
	DD	FLAT:?_messageEntries@?1??GetThisMessageMap@CToolandRButtonTabCtrl@@KGPBUAFX_MSGMAP@@XZ@4QBUAFX_MSGMAP_ENTRY@@B
CONST	ENDS
;	COMDAT ?_messageEntries@?1??GetThisMessageMap@CToolandRButtonTabCtrl@@KGPBUAFX_MSGMAP@@XZ@4QBUAFX_MSGMAP_ENTRY@@B
CONST	SEGMENT
?_messageEntries@?1??GetThisMessageMap@CToolandRButtonTabCtrl@@KGPBUAFX_MSGMAP@@XZ@4QBUAFX_MSGMAP_ENTRY@@B DD 0201H ; `CToolandRButtonTabCtrl::GetThisMessageMap'::`2'::_messageEntries
	DD	00H
	DD	00H
	DD	00H
	DD	036H
	DD	FLAT:?OnLButtonDown@CToolandRButtonTabCtrl@@IAEXIVCPoint@@@Z
	DD	00H
	DD	00H
	DD	00H
	DD	00H
	DD	00H
	DD	00H
CONST	ENDS
;	COMDAT ??_7CToolandRButtonTabCtrl@@6B@
CONST	SEGMENT
??_7CToolandRButtonTabCtrl@@6B@ DD FLAT:??_R4CToolandRButtonTabCtrl@@6B@ ; CToolandRButtonTabCtrl::`vftable'
	DD	FLAT:?GetRuntimeClass@CTabCtrl@@UBEPAUCRuntimeClass@@XZ
	DD	FLAT:??_ECToolandRButtonTabCtrl@@UAEPAXI@Z
	DD	FLAT:?Serialize@CObject@@UAEXAAVCArchive@@@Z
	DD	FLAT:?AssertValid@CObject@@UBEXXZ
	DD	FLAT:?Dump@CObject@@UBEXAAVCDumpContext@@@Z
	DD	FLAT:?OnCmdMsg@CCmdTarget@@UAEHIHPAXPAUAFX_CMDHANDLERINFO@@@Z
	DD	FLAT:?OnFinalRelease@CWnd@@UAEXXZ
	DD	FLAT:?IsInvokeAllowed@CCmdTarget@@UAEHJ@Z
	DD	FLAT:?GetDispatchIID@CCmdTarget@@UAEHPAU_GUID@@@Z
	DD	FLAT:?GetTypeInfoCount@CCmdTarget@@UAEIXZ
	DD	FLAT:?GetTypeLibCache@CCmdTarget@@UAEPAVCTypeLibCache@@XZ
	DD	FLAT:?GetTypeLib@CCmdTarget@@UAEJKPAPAUITypeLib@@@Z
	DD	FLAT:?GetMessageMap@CToolandRButtonTabCtrl@@MBEPBUAFX_MSGMAP@@XZ
	DD	FLAT:?GetCommandMap@CCmdTarget@@MBEPBUAFX_OLECMDMAP@@XZ
	DD	FLAT:?GetDispatchMap@CCmdTarget@@MBEPBUAFX_DISPMAP@@XZ
	DD	FLAT:?GetConnectionMap@CCmdTarget@@MBEPBUAFX_CONNECTIONMAP@@XZ
	DD	FLAT:?GetInterfaceMap@CWnd@@MBEPBUAFX_INTERFACEMAP@@XZ
	DD	FLAT:?GetEventSinkMap@CCmdTarget@@MBEPBUAFX_EVENTSINKMAP@@XZ
	DD	FLAT:?OnCreateAggregates@CCmdTarget@@UAEHXZ
	DD	FLAT:?GetInterfaceHook@CCmdTarget@@UAEPAUIUnknown@@PBX@Z
	DD	FLAT:?GetExtraConnectionPoints@CCmdTarget@@MAEHPAVCPtrArray@@@Z
	DD	FLAT:?GetConnectionHook@CCmdTarget@@MAEPAUIConnectionPoint@@ABU_GUID@@@Z
	DD	FLAT:?PreSubclassWindow@CWnd@@UAEXXZ
	DD	FLAT:?Create@CWnd@@UAEHPBD0KABUtagRECT@@PAV1@IPAUCCreateContext@@@Z
	DD	FLAT:?CreateEx@CWnd@@UAEHKPBD0KABUtagRECT@@PAV1@IPAX@Z
	DD	FLAT:?CreateEx@CWnd@@UAEHKPBD0KHHHHPAUHWND__@@PAUHMENU__@@PAX@Z
	DD	FLAT:?DestroyWindow@CWnd@@UAEHXZ
	DD	FLAT:?PreCreateWindow@CWnd@@UAEHAAUtagCREATESTRUCTA@@@Z
	DD	FLAT:?CalcWindowRect@CWnd@@UAEXPAUtagRECT@@I@Z
	DD	FLAT:?GetMenu@CWnd@@UBEPAVCMenu@@XZ
	DD	FLAT:?SetMenu@CWnd@@UAEHPAVCMenu@@@Z
	DD	FLAT:?OnToolHitTest@CWnd@@UBEHVCPoint@@PAUtagTOOLINFOA@@@Z
	DD	FLAT:?GetScrollBarCtrl@CWnd@@UBEPAVCScrollBar@@H@Z
	DD	FLAT:?WinHelpA@CWnd@@UAEXKI@Z
	DD	FLAT:?HtmlHelpA@CWnd@@UAEXKI@Z
	DD	FLAT:?WinHelpInternal@CWnd@@UAEXKI@Z
	DD	FLAT:?ContinueModal@CWnd@@UAEHXZ
	DD	FLAT:?EndModalLoop@CWnd@@UAEXH@Z
	DD	FLAT:?OnDrawIconicThumbnailOrLivePreview@CWnd@@UAEXAAVCDC@@VCRect@@VCSize@@HAAH@Z
	DD	FLAT:?EnsureStdObj@CWnd@@UAEJXZ
	DD	FLAT:?get_accParent@CWnd@@UAEJPAPAUIDispatch@@@Z
	DD	FLAT:?get_accChildCount@CWnd@@UAEJPAJ@Z
	DD	FLAT:?get_accChild@CWnd@@UAEJUtagVARIANT@@PAPAUIDispatch@@@Z
	DD	FLAT:?get_accName@CWnd@@UAEJUtagVARIANT@@PAPA_W@Z
	DD	FLAT:?get_accValue@CWnd@@UAEJUtagVARIANT@@PAPA_W@Z
	DD	FLAT:?get_accDescription@CWnd@@UAEJUtagVARIANT@@PAPA_W@Z
	DD	FLAT:?get_accRole@CWnd@@UAEJUtagVARIANT@@PAU2@@Z
	DD	FLAT:?get_accState@CWnd@@UAEJUtagVARIANT@@PAU2@@Z
	DD	FLAT:?get_accHelp@CWnd@@UAEJUtagVARIANT@@PAPA_W@Z
	DD	FLAT:?get_accHelpTopic@CWnd@@UAEJPAPA_WUtagVARIANT@@PAJ@Z
	DD	FLAT:?get_accKeyboardShortcut@CWnd@@UAEJUtagVARIANT@@PAPA_W@Z
	DD	FLAT:?get_accFocus@CWnd@@UAEJPAUtagVARIANT@@@Z
	DD	FLAT:?get_accSelection@CWnd@@UAEJPAUtagVARIANT@@@Z
	DD	FLAT:?get_accDefaultAction@CWnd@@UAEJUtagVARIANT@@PAPA_W@Z
	DD	FLAT:?accSelect@CWnd@@UAEJJUtagVARIANT@@@Z
	DD	FLAT:?accLocation@CWnd@@UAEJPAJ000UtagVARIANT@@@Z
	DD	FLAT:?accNavigate@CWnd@@UAEJJUtagVARIANT@@PAU2@@Z
	DD	FLAT:?accHitTest@CWnd@@UAEJJJPAUtagVARIANT@@@Z
	DD	FLAT:?accDoDefaultAction@CWnd@@UAEJUtagVARIANT@@@Z
	DD	FLAT:?put_accName@CWnd@@UAEJUtagVARIANT@@PA_W@Z
	DD	FLAT:?put_accValue@CWnd@@UAEJUtagVARIANT@@PA_W@Z
	DD	FLAT:?SetProxy@CWnd@@UAEJPAUIAccessibleProxy@@@Z
	DD	FLAT:?CreateAccessibleProxy@CWnd@@UAEJIJPAJ@Z
	DD	FLAT:?OnCommand@CWnd@@MAEHIJ@Z
	DD	FLAT:?OnNotify@CWnd@@MAEHIJPAJ@Z
	DD	FLAT:?GetSuperWndProcAddr@CWnd@@MAEPAP6GJPAUHWND__@@IIJ@ZXZ
	DD	FLAT:?DoDataExchange@CWnd@@MAEXPAVCDataExchange@@@Z
	DD	FLAT:?BeginModalState@CWnd@@UAEXXZ
	DD	FLAT:?EndModalState@CWnd@@UAEXXZ
	DD	FLAT:?PreTranslateMessage@CWnd@@UAEHPAUtagMSG@@@Z
	DD	FLAT:?OnAmbientProperty@CWnd@@UAEHPAVCOleControlSite@@JPAUtagVARIANT@@@Z
	DD	FLAT:?WindowProc@CWnd@@MAEJIIJ@Z
	DD	FLAT:?OnWndMsg@CWnd@@MAEHIIJPAJ@Z
	DD	FLAT:?DefWindowProcA@CWnd@@MAEJIIJ@Z
	DD	FLAT:?PostNcDestroy@CWnd@@MAEXXZ
	DD	FLAT:?OnChildNotify@CTabCtrl@@MAEHIIJPAJ@Z
	DD	FLAT:?OnTouchInputs@CWnd@@MAEHIPAUtagTOUCHINPUT@@@Z
	DD	FLAT:?OnTouchInput@CWnd@@MAEHVCPoint@@HHPAUtagTOUCHINPUT@@@Z
	DD	FLAT:?GetGestureStatus@CWnd@@MAEKVCPoint@@@Z
	DD	FLAT:?OnGestureZoom@CWnd@@MAEHVCPoint@@J@Z
	DD	FLAT:?OnGesturePan@CWnd@@MAEHVCPoint@@0@Z
	DD	FLAT:?OnGestureRotate@CWnd@@MAEHVCPoint@@N@Z
	DD	FLAT:?OnGestureTwoFingerTap@CWnd@@MAEHVCPoint@@@Z
	DD	FLAT:?OnGesturePressAndTap@CWnd@@MAEHVCPoint@@J@Z
	DD	FLAT:?ResizeDynamicLayout@CWnd@@MAEXXZ
	DD	FLAT:?CheckAutoCenter@CWnd@@UAEHXZ
	DD	FLAT:?IsFrameWnd@CWnd@@UBEHXZ
	DD	FLAT:?CreateControlContainer@CWnd@@MAEHPAPAVCOleControlContainer@@@Z
	DD	FLAT:?CreateControlSite@CWnd@@MAEHPAVCOleControlContainer@@PAPAVCOleControlSite@@IABU_GUID@@@Z
	DD	FLAT:?SetOccDialogInfo@CWnd@@MAEHPAU_AFX_OCC_DIALOG_INFO@@@Z
	DD	FLAT:?GetOccDialogInfo@CWnd@@MAEPAU_AFX_OCC_DIALOG_INFO@@XZ
	DD	FLAT:?Create@CTabCtrl@@UAEHKABUtagRECT@@PAVCWnd@@I@Z
	DD	FLAT:?CreateEx@CTabCtrl@@UAEHKKABUtagRECT@@PAVCWnd@@I@Z
	DD	FLAT:?DrawItem@CTabCtrl@@UAEXPAUtagDRAWITEMSTRUCT@@@Z
CONST	ENDS
;	COMDAT ??_C@_0BA@ENJOCHIO@LoadResourceDLL@
CONST	SEGMENT
??_C@_0BA@ENJOCHIO@LoadResourceDLL@ DB 'LoadResourceDLL', 00H ; `string'
CONST	ENDS
;	COMDAT ??_R1A@?0A@EA@CTabCtrl@@8
rdata$r	SEGMENT
??_R1A@?0A@EA@CTabCtrl@@8 DD FLAT:??_R0?AVCTabCtrl@@@8	; CTabCtrl::`RTTI Base Class Descriptor at (0,-1,0,64)'
	DD	03H
	DD	00H
	DD	0ffffffffH
	DD	00H
	DD	040H
	DD	FLAT:??_R3CTabCtrl@@8
rdata$r	ENDS
;	COMDAT ??_R2CTabCtrl@@8
rdata$r	SEGMENT
??_R2CTabCtrl@@8 DD FLAT:??_R1A@?0A@EA@CTabCtrl@@8	; CTabCtrl::`RTTI Base Class Array'
	DD	FLAT:??_R1A@?0A@EA@CWnd@@8
	DD	FLAT:??_R1A@?0A@EA@CCmdTarget@@8
	DD	FLAT:??_R1A@?0A@EA@CObject@@8
rdata$r	ENDS
;	COMDAT ??_R3CTabCtrl@@8
rdata$r	SEGMENT
??_R3CTabCtrl@@8 DD 00H					; CTabCtrl::`RTTI Class Hierarchy Descriptor'
	DD	00H
	DD	04H
	DD	FLAT:??_R2CTabCtrl@@8
rdata$r	ENDS
;	COMDAT ??_R0?AVCTabCtrl@@@8
data$rs	SEGMENT
??_R0?AVCTabCtrl@@@8 DD FLAT:??_7type_info@@6B@		; CTabCtrl `RTTI Type Descriptor'
	DD	00H
	DB	'.?AVCTabCtrl@@', 00H
data$rs	ENDS
;	COMDAT ??_R4CTabCtrl@@6B@
rdata$r	SEGMENT
??_R4CTabCtrl@@6B@ DD 00H				; CTabCtrl::`RTTI Complete Object Locator'
	DD	00H
	DD	00H
	DD	FLAT:??_R0?AVCTabCtrl@@@8
	DD	FLAT:??_R3CTabCtrl@@8
rdata$r	ENDS
;	COMDAT ??_R2CCmdTarget@@8
rdata$r	SEGMENT
??_R2CCmdTarget@@8 DD FLAT:??_R1A@?0A@EA@CCmdTarget@@8	; CCmdTarget::`RTTI Base Class Array'
	DD	FLAT:??_R1A@?0A@EA@CObject@@8
rdata$r	ENDS
;	COMDAT ??_R3CCmdTarget@@8
rdata$r	SEGMENT
??_R3CCmdTarget@@8 DD 00H				; CCmdTarget::`RTTI Class Hierarchy Descriptor'
	DD	00H
	DD	02H
	DD	FLAT:??_R2CCmdTarget@@8
rdata$r	ENDS
;	COMDAT ??_R0?AVCCmdTarget@@@8
data$rs	SEGMENT
??_R0?AVCCmdTarget@@@8 DD FLAT:??_7type_info@@6B@	; CCmdTarget `RTTI Type Descriptor'
	DD	00H
	DB	'.?AVCCmdTarget@@', 00H
data$rs	ENDS
;	COMDAT ??_R1A@?0A@EA@CCmdTarget@@8
rdata$r	SEGMENT
??_R1A@?0A@EA@CCmdTarget@@8 DD FLAT:??_R0?AVCCmdTarget@@@8 ; CCmdTarget::`RTTI Base Class Descriptor at (0,-1,0,64)'
	DD	01H
	DD	00H
	DD	0ffffffffH
	DD	00H
	DD	040H
	DD	FLAT:??_R3CCmdTarget@@8
rdata$r	ENDS
;	COMDAT ??_R2CWnd@@8
rdata$r	SEGMENT
??_R2CWnd@@8 DD	FLAT:??_R1A@?0A@EA@CWnd@@8		; CWnd::`RTTI Base Class Array'
	DD	FLAT:??_R1A@?0A@EA@CCmdTarget@@8
	DD	FLAT:??_R1A@?0A@EA@CObject@@8
rdata$r	ENDS
;	COMDAT ??_R3CWnd@@8
rdata$r	SEGMENT
??_R3CWnd@@8 DD	00H					; CWnd::`RTTI Class Hierarchy Descriptor'
	DD	00H
	DD	03H
	DD	FLAT:??_R2CWnd@@8
rdata$r	ENDS
;	COMDAT ??_R0?AVCWnd@@@8
data$rs	SEGMENT
??_R0?AVCWnd@@@8 DD FLAT:??_7type_info@@6B@		; CWnd `RTTI Type Descriptor'
	DD	00H
	DB	'.?AVCWnd@@', 00H
data$rs	ENDS
;	COMDAT ??_R1A@?0A@EA@CWnd@@8
rdata$r	SEGMENT
??_R1A@?0A@EA@CWnd@@8 DD FLAT:??_R0?AVCWnd@@@8		; CWnd::`RTTI Base Class Descriptor at (0,-1,0,64)'
	DD	02H
	DD	00H
	DD	0ffffffffH
	DD	00H
	DD	040H
	DD	FLAT:??_R3CWnd@@8
rdata$r	ENDS
;	COMDAT ??_R1A@?0A@EA@CObject@@8
rdata$r	SEGMENT
??_R1A@?0A@EA@CObject@@8 DD FLAT:??_R0?AVCObject@@@8	; CObject::`RTTI Base Class Descriptor at (0,-1,0,64)'
	DD	00H
	DD	00H
	DD	0ffffffffH
	DD	00H
	DD	040H
	DD	FLAT:??_R3CObject@@8
rdata$r	ENDS
;	COMDAT ??_R2CObject@@8
rdata$r	SEGMENT
??_R2CObject@@8 DD FLAT:??_R1A@?0A@EA@CObject@@8	; CObject::`RTTI Base Class Array'
rdata$r	ENDS
;	COMDAT ??_R3CObject@@8
rdata$r	SEGMENT
??_R3CObject@@8 DD 00H					; CObject::`RTTI Class Hierarchy Descriptor'
	DD	00H
	DD	01H
	DD	FLAT:??_R2CObject@@8
rdata$r	ENDS
;	COMDAT ??_R0?AVCObject@@@8
data$rs	SEGMENT
??_R0?AVCObject@@@8 DD FLAT:??_7type_info@@6B@		; CObject `RTTI Type Descriptor'
	DD	00H
	DB	'.?AVCObject@@', 00H
data$rs	ENDS
;	COMDAT ??_7CTabCtrl@@6B@
CONST	SEGMENT
??_7CTabCtrl@@6B@ DD FLAT:??_R4CTabCtrl@@6B@		; CTabCtrl::`vftable'
	DD	FLAT:?GetRuntimeClass@CTabCtrl@@UBEPAUCRuntimeClass@@XZ
	DD	FLAT:??_ECTabCtrl@@UAEPAXI@Z
	DD	FLAT:?Serialize@CObject@@UAEXAAVCArchive@@@Z
	DD	FLAT:?AssertValid@CObject@@UBEXXZ
	DD	FLAT:?Dump@CObject@@UBEXAAVCDumpContext@@@Z
	DD	FLAT:?OnCmdMsg@CCmdTarget@@UAEHIHPAXPAUAFX_CMDHANDLERINFO@@@Z
	DD	FLAT:?OnFinalRelease@CWnd@@UAEXXZ
	DD	FLAT:?IsInvokeAllowed@CCmdTarget@@UAEHJ@Z
	DD	FLAT:?GetDispatchIID@CCmdTarget@@UAEHPAU_GUID@@@Z
	DD	FLAT:?GetTypeInfoCount@CCmdTarget@@UAEIXZ
	DD	FLAT:?GetTypeLibCache@CCmdTarget@@UAEPAVCTypeLibCache@@XZ
	DD	FLAT:?GetTypeLib@CCmdTarget@@UAEJKPAPAUITypeLib@@@Z
	DD	FLAT:?GetMessageMap@CTabCtrl@@MBEPBUAFX_MSGMAP@@XZ
	DD	FLAT:?GetCommandMap@CCmdTarget@@MBEPBUAFX_OLECMDMAP@@XZ
	DD	FLAT:?GetDispatchMap@CCmdTarget@@MBEPBUAFX_DISPMAP@@XZ
	DD	FLAT:?GetConnectionMap@CCmdTarget@@MBEPBUAFX_CONNECTIONMAP@@XZ
	DD	FLAT:?GetInterfaceMap@CWnd@@MBEPBUAFX_INTERFACEMAP@@XZ
	DD	FLAT:?GetEventSinkMap@CCmdTarget@@MBEPBUAFX_EVENTSINKMAP@@XZ
	DD	FLAT:?OnCreateAggregates@CCmdTarget@@UAEHXZ
	DD	FLAT:?GetInterfaceHook@CCmdTarget@@UAEPAUIUnknown@@PBX@Z
	DD	FLAT:?GetExtraConnectionPoints@CCmdTarget@@MAEHPAVCPtrArray@@@Z
	DD	FLAT:?GetConnectionHook@CCmdTarget@@MAEPAUIConnectionPoint@@ABU_GUID@@@Z
	DD	FLAT:?PreSubclassWindow@CWnd@@UAEXXZ
	DD	FLAT:?Create@CWnd@@UAEHPBD0KABUtagRECT@@PAV1@IPAUCCreateContext@@@Z
	DD	FLAT:?CreateEx@CWnd@@UAEHKPBD0KABUtagRECT@@PAV1@IPAX@Z
	DD	FLAT:?CreateEx@CWnd@@UAEHKPBD0KHHHHPAUHWND__@@PAUHMENU__@@PAX@Z
	DD	FLAT:?DestroyWindow@CWnd@@UAEHXZ
	DD	FLAT:?PreCreateWindow@CWnd@@UAEHAAUtagCREATESTRUCTA@@@Z
	DD	FLAT:?CalcWindowRect@CWnd@@UAEXPAUtagRECT@@I@Z
	DD	FLAT:?GetMenu@CWnd@@UBEPAVCMenu@@XZ
	DD	FLAT:?SetMenu@CWnd@@UAEHPAVCMenu@@@Z
	DD	FLAT:?OnToolHitTest@CWnd@@UBEHVCPoint@@PAUtagTOOLINFOA@@@Z
	DD	FLAT:?GetScrollBarCtrl@CWnd@@UBEPAVCScrollBar@@H@Z
	DD	FLAT:?WinHelpA@CWnd@@UAEXKI@Z
	DD	FLAT:?HtmlHelpA@CWnd@@UAEXKI@Z
	DD	FLAT:?WinHelpInternal@CWnd@@UAEXKI@Z
	DD	FLAT:?ContinueModal@CWnd@@UAEHXZ
	DD	FLAT:?EndModalLoop@CWnd@@UAEXH@Z
	DD	FLAT:?OnDrawIconicThumbnailOrLivePreview@CWnd@@UAEXAAVCDC@@VCRect@@VCSize@@HAAH@Z
	DD	FLAT:?EnsureStdObj@CWnd@@UAEJXZ
	DD	FLAT:?get_accParent@CWnd@@UAEJPAPAUIDispatch@@@Z
	DD	FLAT:?get_accChildCount@CWnd@@UAEJPAJ@Z
	DD	FLAT:?get_accChild@CWnd@@UAEJUtagVARIANT@@PAPAUIDispatch@@@Z
	DD	FLAT:?get_accName@CWnd@@UAEJUtagVARIANT@@PAPA_W@Z
	DD	FLAT:?get_accValue@CWnd@@UAEJUtagVARIANT@@PAPA_W@Z
	DD	FLAT:?get_accDescription@CWnd@@UAEJUtagVARIANT@@PAPA_W@Z
	DD	FLAT:?get_accRole@CWnd@@UAEJUtagVARIANT@@PAU2@@Z
	DD	FLAT:?get_accState@CWnd@@UAEJUtagVARIANT@@PAU2@@Z
	DD	FLAT:?get_accHelp@CWnd@@UAEJUtagVARIANT@@PAPA_W@Z
	DD	FLAT:?get_accHelpTopic@CWnd@@UAEJPAPA_WUtagVARIANT@@PAJ@Z
	DD	FLAT:?get_accKeyboardShortcut@CWnd@@UAEJUtagVARIANT@@PAPA_W@Z
	DD	FLAT:?get_accFocus@CWnd@@UAEJPAUtagVARIANT@@@Z
	DD	FLAT:?get_accSelection@CWnd@@UAEJPAUtagVARIANT@@@Z
	DD	FLAT:?get_accDefaultAction@CWnd@@UAEJUtagVARIANT@@PAPA_W@Z
	DD	FLAT:?accSelect@CWnd@@UAEJJUtagVARIANT@@@Z
	DD	FLAT:?accLocation@CWnd@@UAEJPAJ000UtagVARIANT@@@Z
	DD	FLAT:?accNavigate@CWnd@@UAEJJUtagVARIANT@@PAU2@@Z
	DD	FLAT:?accHitTest@CWnd@@UAEJJJPAUtagVARIANT@@@Z
	DD	FLAT:?accDoDefaultAction@CWnd@@UAEJUtagVARIANT@@@Z
	DD	FLAT:?put_accName@CWnd@@UAEJUtagVARIANT@@PA_W@Z
	DD	FLAT:?put_accValue@CWnd@@UAEJUtagVARIANT@@PA_W@Z
	DD	FLAT:?SetProxy@CWnd@@UAEJPAUIAccessibleProxy@@@Z
	DD	FLAT:?CreateAccessibleProxy@CWnd@@UAEJIJPAJ@Z
	DD	FLAT:?OnCommand@CWnd@@MAEHIJ@Z
	DD	FLAT:?OnNotify@CWnd@@MAEHIJPAJ@Z
	DD	FLAT:?GetSuperWndProcAddr@CWnd@@MAEPAP6GJPAUHWND__@@IIJ@ZXZ
	DD	FLAT:?DoDataExchange@CWnd@@MAEXPAVCDataExchange@@@Z
	DD	FLAT:?BeginModalState@CWnd@@UAEXXZ
	DD	FLAT:?EndModalState@CWnd@@UAEXXZ
	DD	FLAT:?PreTranslateMessage@CWnd@@UAEHPAUtagMSG@@@Z
	DD	FLAT:?OnAmbientProperty@CWnd@@UAEHPAVCOleControlSite@@JPAUtagVARIANT@@@Z
	DD	FLAT:?WindowProc@CWnd@@MAEJIIJ@Z
	DD	FLAT:?OnWndMsg@CWnd@@MAEHIIJPAJ@Z
	DD	FLAT:?DefWindowProcA@CWnd@@MAEJIIJ@Z
	DD	FLAT:?PostNcDestroy@CWnd@@MAEXXZ
	DD	FLAT:?OnChildNotify@CTabCtrl@@MAEHIIJPAJ@Z
	DD	FLAT:?OnTouchInputs@CWnd@@MAEHIPAUtagTOUCHINPUT@@@Z
	DD	FLAT:?OnTouchInput@CWnd@@MAEHVCPoint@@HHPAUtagTOUCHINPUT@@@Z
	DD	FLAT:?GetGestureStatus@CWnd@@MAEKVCPoint@@@Z
	DD	FLAT:?OnGestureZoom@CWnd@@MAEHVCPoint@@J@Z
	DD	FLAT:?OnGesturePan@CWnd@@MAEHVCPoint@@0@Z
	DD	FLAT:?OnGestureRotate@CWnd@@MAEHVCPoint@@N@Z
	DD	FLAT:?OnGestureTwoFingerTap@CWnd@@MAEHVCPoint@@@Z
	DD	FLAT:?OnGesturePressAndTap@CWnd@@MAEHVCPoint@@J@Z
	DD	FLAT:?ResizeDynamicLayout@CWnd@@MAEXXZ
	DD	FLAT:?CheckAutoCenter@CWnd@@UAEHXZ
	DD	FLAT:?IsFrameWnd@CWnd@@UBEHXZ
	DD	FLAT:?CreateControlContainer@CWnd@@MAEHPAPAVCOleControlContainer@@@Z
	DD	FLAT:?CreateControlSite@CWnd@@MAEHPAVCOleControlContainer@@PAPAVCOleControlSite@@IABU_GUID@@@Z
	DD	FLAT:?SetOccDialogInfo@CWnd@@MAEHPAU_AFX_OCC_DIALOG_INFO@@@Z
	DD	FLAT:?GetOccDialogInfo@CWnd@@MAEPAU_AFX_OCC_DIALOG_INFO@@XZ
	DD	FLAT:?Create@CTabCtrl@@UAEHKABUtagRECT@@PAVCWnd@@I@Z
	DD	FLAT:?CreateEx@CTabCtrl@@UAEHKKABUtagRECT@@PAVCWnd@@I@Z
	DD	FLAT:?DrawItem@CTabCtrl@@UAEXPAUtagDRAWITEMSTRUCT@@@Z
CONST	ENDS
;	COMDAT ??_C@_00CNPNBAHC@@
CONST	SEGMENT
??_C@_00CNPNBAHC@@ DB 00H				; `string'
CONST	ENDS
;	COMDAT xdata$x
xdata$x	SEGMENT
__ehfuncinfo$?InitTab@CToolandRButtonTabCtrl@@QAEXXZ DD 019930522H
	DD	07H
	DD	FLAT:__unwindtable$?InitTab@CToolandRButtonTabCtrl@@QAEXXZ
	DD	2 DUP(00H)
	DD	2 DUP(00H)
	DD	00H
	DD	01H
__unwindtable$?InitTab@CToolandRButtonTabCtrl@@QAEXXZ DD 0ffffffffH
	DD	FLAT:__unwindfunclet$?InitTab@CToolandRButtonTabCtrl@@QAEXXZ$0
	DD	00H
	DD	FLAT:__unwindfunclet$?InitTab@CToolandRButtonTabCtrl@@QAEXXZ$1
	DD	0ffffffffH
	DD	FLAT:___std_terminate
	DD	0ffffffffH
	DD	FLAT:__unwindfunclet$?InitTab@CToolandRButtonTabCtrl@@QAEXXZ$2
	DD	03H
	DD	FLAT:__unwindfunclet$?InitTab@CToolandRButtonTabCtrl@@QAEXXZ$3
	DD	03H
	DD	FLAT:___std_terminate
	DD	0ffffffffH
	DD	FLAT:___std_terminate
xdata$x	ENDS
;	COMDAT xdata$x
xdata$x	SEGMENT
__ehfuncinfo$?GetListItemInfo@CToolandRButtonTabCtrl@@QAE?AV?$CStringT@DV?$StrTraitMFC_DLL@DV?$ChTraitsCRT@D@ATL@@@@@ATL@@XZ DD 019930522H
	DD	08H
	DD	FLAT:__unwindtable$?GetListItemInfo@CToolandRButtonTabCtrl@@QAE?AV?$CStringT@DV?$StrTraitMFC_DLL@DV?$ChTraitsCRT@D@ATL@@@@@ATL@@XZ
	DD	2 DUP(00H)
	DD	2 DUP(00H)
	DD	00H
	DD	01H
__unwindtable$?GetListItemInfo@CToolandRButtonTabCtrl@@QAE?AV?$CStringT@DV?$StrTraitMFC_DLL@DV?$ChTraitsCRT@D@ATL@@@@@ATL@@XZ DD 0ffffffffH
	DD	FLAT:__unwindfunclet$?GetListItemInfo@CToolandRButtonTabCtrl@@QAE?AV?$CStringT@DV?$StrTraitMFC_DLL@DV?$ChTraitsCRT@D@ATL@@@@@ATL@@XZ$0
	DD	00H
	DD	FLAT:__unwindfunclet$?GetListItemInfo@CToolandRButtonTabCtrl@@QAE?AV?$CStringT@DV?$StrTraitMFC_DLL@DV?$ChTraitsCRT@D@ATL@@@@@ATL@@XZ$1
	DD	01H
	DD	FLAT:__unwindfunclet$?GetListItemInfo@CToolandRButtonTabCtrl@@QAE?AV?$CStringT@DV?$StrTraitMFC_DLL@DV?$ChTraitsCRT@D@ATL@@@@@ATL@@XZ$8
	DD	00H
	DD	FLAT:__unwindfunclet$?GetListItemInfo@CToolandRButtonTabCtrl@@QAE?AV?$CStringT@DV?$StrTraitMFC_DLL@DV?$ChTraitsCRT@D@ATL@@@@@ATL@@XZ$3
	DD	00H
	DD	FLAT:__unwindfunclet$?GetListItemInfo@CToolandRButtonTabCtrl@@QAE?AV?$CStringT@DV?$StrTraitMFC_DLL@DV?$ChTraitsCRT@D@ATL@@@@@ATL@@XZ$4
	DD	04H
	DD	FLAT:__unwindfunclet$?GetListItemInfo@CToolandRButtonTabCtrl@@QAE?AV?$CStringT@DV?$StrTraitMFC_DLL@DV?$ChTraitsCRT@D@ATL@@@@@ATL@@XZ$9
	DD	00H
	DD	FLAT:__unwindfunclet$?GetListItemInfo@CToolandRButtonTabCtrl@@QAE?AV?$CStringT@DV?$StrTraitMFC_DLL@DV?$ChTraitsCRT@D@ATL@@@@@ATL@@XZ$6
	DD	06H
	DD	FLAT:__unwindfunclet$?GetListItemInfo@CToolandRButtonTabCtrl@@QAE?AV?$CStringT@DV?$StrTraitMFC_DLL@DV?$ChTraitsCRT@D@ATL@@@@@ATL@@XZ$10
xdata$x	ENDS
;	COMDAT xdata$x
xdata$x	SEGMENT
__ehfuncinfo$?SetSavedDataToDlgwithListCtrl@CToolandRButtonTabCtrl@@QAEXXZ DD 019930522H
	DD	0aH
	DD	FLAT:__unwindtable$?SetSavedDataToDlgwithListCtrl@CToolandRButtonTabCtrl@@QAEXXZ
	DD	2 DUP(00H)
	DD	2 DUP(00H)
	DD	00H
	DD	01H
__unwindtable$?SetSavedDataToDlgwithListCtrl@CToolandRButtonTabCtrl@@QAEXXZ DD 0ffffffffH
	DD	FLAT:__unwindfunclet$?SetSavedDataToDlgwithListCtrl@CToolandRButtonTabCtrl@@QAEXXZ$0
	DD	00H
	DD	FLAT:__unwindfunclet$?SetSavedDataToDlgwithListCtrl@CToolandRButtonTabCtrl@@QAEXXZ$1
	DD	00H
	DD	FLAT:__unwindfunclet$?SetSavedDataToDlgwithListCtrl@CToolandRButtonTabCtrl@@QAEXXZ$2
	DD	02H
	DD	FLAT:__unwindfunclet$?SetSavedDataToDlgwithListCtrl@CToolandRButtonTabCtrl@@QAEXXZ$10
	DD	00H
	DD	FLAT:__unwindfunclet$?SetSavedDataToDlgwithListCtrl@CToolandRButtonTabCtrl@@QAEXXZ$5
	DD	04H
	DD	FLAT:__unwindfunclet$?SetSavedDataToDlgwithListCtrl@CToolandRButtonTabCtrl@@QAEXXZ$11
	DD	05H
	DD	FLAT:__unwindfunclet$?SetSavedDataToDlgwithListCtrl@CToolandRButtonTabCtrl@@QAEXXZ$7
	DD	04H
	DD	FLAT:__unwindfunclet$?SetSavedDataToDlgwithListCtrl@CToolandRButtonTabCtrl@@QAEXXZ$7
	DD	00H
	DD	FLAT:__unwindfunclet$?SetSavedDataToDlgwithListCtrl@CToolandRButtonTabCtrl@@QAEXXZ$7
	DD	08H
	DD	FLAT:__unwindfunclet$?SetSavedDataToDlgwithListCtrl@CToolandRButtonTabCtrl@@QAEXXZ$8
xdata$x	ENDS
;	COMDAT xdata$x
xdata$x	SEGMENT
__ehfuncinfo$??0CToolandRButtonTabCtrl@@QAE@XZ DD 019930522H
	DD	05H
	DD	FLAT:__unwindtable$??0CToolandRButtonTabCtrl@@QAE@XZ
	DD	2 DUP(00H)
	DD	2 DUP(00H)
	DD	00H
	DD	01H
__unwindtable$??0CToolandRButtonTabCtrl@@QAE@XZ DD 0ffffffffH
	DD	FLAT:__unwindfunclet$??0CToolandRButtonTabCtrl@@QAE@XZ$0
	DD	00H
	DD	FLAT:__unwindfunclet$??0CToolandRButtonTabCtrl@@QAE@XZ$1
	DD	01H
	DD	FLAT:__unwindfunclet$??0CToolandRButtonTabCtrl@@QAE@XZ$2
	DD	02H
	DD	FLAT:__unwindfunclet$??0CToolandRButtonTabCtrl@@QAE@XZ$3
	DD	03H
	DD	FLAT:__unwindfunclet$??0CToolandRButtonTabCtrl@@QAE@XZ$4
xdata$x	ENDS
;	COMDAT xdata$x
xdata$x	SEGMENT
__ehfuncinfo$??1CMultiLanguageResourceSetter@@QAE@XZ DD 019930522H
	DD	00H
	DD	00H
	DD	2 DUP(00H)
	DD	2 DUP(00H)
	DD	00H
	DD	05H
xdata$x	ENDS
;	COMDAT xdata$x
xdata$x	SEGMENT
__unwindtable$??HATL@@YA?AV?$CStringT@DV?$StrTraitMFC_DLL@DV?$ChTraitsCRT@D@ATL@@@@@0@ABV10@PBD@Z DD 0ffffffffH
	DD	FLAT:__unwindfunclet$??HATL@@YA?AV?$CStringT@DV?$StrTraitMFC_DLL@DV?$ChTraitsCRT@D@ATL@@@@@0@ABV10@PBD@Z$0
__ehfuncinfo$??HATL@@YA?AV?$CStringT@DV?$StrTraitMFC_DLL@DV?$ChTraitsCRT@D@ATL@@@@@0@ABV10@PBD@Z DD 019930522H
	DD	01H
	DD	FLAT:__unwindtable$??HATL@@YA?AV?$CStringT@DV?$StrTraitMFC_DLL@DV?$ChTraitsCRT@D@ATL@@@@@0@ABV10@PBD@Z
	DD	2 DUP(00H)
	DD	2 DUP(00H)
	DD	00H
	DD	01H
xdata$x	ENDS
; Function compile flags: /Ogtp
; File D:\git\src\IBK\IBK_DRFN\ProjSrc\SrcChartEx\ChartAddIn\ChartDesignPropertyAddIn\ChartDesignPropertyAddIn\ToolandRButtonTabCtrl.cpp
; File C:\Program Files (x86)\Microsoft Visual Studio\2019\Community\VC\Tools\MSVC\14.29.30133\atlmfc\include\afx.inl
;	COMDAT ??_GCToolandRButtonTabCtrl@@UAEPAXI@Z
_TEXT	SEGMENT
___flags$ = 8						; size = 4
??_GCToolandRButtonTabCtrl@@UAEPAXI@Z PROC		; CToolandRButtonTabCtrl::`scalar deleting destructor', COMDAT
; _this$ = ecx
  00000	55		 push	 ebp
  00001	8b ec		 mov	 ebp, esp
; File D:\git\src\IBK\IBK_DRFN\ProjSrc\SrcChartEx\ChartAddIn\ChartDesignPropertyAddIn\ChartDesignPropertyAddIn\ToolandRButtonTabCtrl.cpp

; 38   : {

  00003	56		 push	 esi
  00004	8b f1		 mov	 esi, ecx
  00006	57		 push	 edi

; 39   : 	for(int nCount=0; nCount < m_nNumberOfPages; nCount++){

  00007	33 ff		 xor	 edi, edi
  00009	c7 06 00 00 00
	00		 mov	 DWORD PTR [esi], OFFSET ??_7CToolandRButtonTabCtrl@@6B@
  0000f	39 be ac 00 00
	00		 cmp	 DWORD PTR [esi+172], edi
  00015	7e 23		 jle	 SHORT $LN9@scalar
  00017	53		 push	 ebx
  00018	8d 9e b0 00 00
	00		 lea	 ebx, DWORD PTR [esi+176]
  0001e	66 90		 npad	 2
$LL10@scalar:

; 40   : 		delete m_tabPages[nCount];

  00020	8b 0b		 mov	 ecx, DWORD PTR [ebx]
  00022	85 c9		 test	 ecx, ecx
  00024	74 07		 je	 SHORT $LN8@scalar
  00026	8b 01		 mov	 eax, DWORD PTR [ecx]
  00028	6a 01		 push	 1
  0002a	ff 50 04	 call	 DWORD PTR [eax+4]
$LN8@scalar:

; 39   : 	for(int nCount=0; nCount < m_nNumberOfPages; nCount++){

  0002d	47		 inc	 edi
  0002e	83 c3 04	 add	 ebx, 4
  00031	3b be ac 00 00
	00		 cmp	 edi, DWORD PTR [esi+172]
  00037	7c e7		 jl	 SHORT $LL10@scalar
  00039	5b		 pop	 ebx
$LN9@scalar:

; 41   : 	}
; 42   : }

  0003a	8d 8e c0 00 00
	00		 lea	 ecx, DWORD PTR [esi+192]
  00040	e8 00 00 00 00	 call	 ??1CDialog@@UAE@XZ	; CDialog::~CDialog
  00045	8d 8e 84 00 00
	00		 lea	 ecx, DWORD PTR [esi+132]
  0004b	e8 00 00 00 00	 call	 ??1CToolandRButtonItemMgr@@UAE@XZ ; CToolandRButtonItemMgr::~CToolandRButtonItemMgr
  00050	8d 8e 80 00 00
	00		 lea	 ecx, DWORD PTR [esi+128]
  00056	ff 15 00 00 00
	00		 call	 DWORD PTR __imp_??1?$CStringT@DV?$StrTraitMFC_DLL@DV?$ChTraitsCRT@D@ATL@@@@@ATL@@QAE@XZ
  0005c	8b ce		 mov	 ecx, esi
  0005e	e8 00 00 00 00	 call	 ??1CTabCtrl@@UAE@XZ	; CTabCtrl::~CTabCtrl
  00063	8b 45 08	 mov	 eax, DWORD PTR ___flags$[ebp]
  00066	a8 01		 test	 al, 1
  00068	74 23		 je	 SHORT $LN24@scalar
  0006a	a8 04		 test	 al, 4
  0006c	75 11		 jne	 SHORT $LN3@scalar
; File C:\Program Files (x86)\Microsoft Visual Studio\2019\Community\VC\Tools\MSVC\14.29.30133\atlmfc\include\afx.inl

; 112  : 	{ ::operator delete(p); }

  0006e	56		 push	 esi
  0006f	e8 00 00 00 00	 call	 ??3@YAXPAX@Z		; operator delete
  00074	83 c4 04	 add	 esp, 4
  00077	8b c6		 mov	 eax, esi
  00079	5f		 pop	 edi
  0007a	5e		 pop	 esi
  0007b	5d		 pop	 ebp
  0007c	c2 04 00	 ret	 4
$LN3@scalar:
  0007f	68 78 01 00 00	 push	 376			; 00000178H
  00084	56		 push	 esi
  00085	e8 00 00 00 00	 call	 ?__global_delete@@YAXPAXI@Z ; __global_delete
  0008a	83 c4 08	 add	 esp, 8
$LN24@scalar:
  0008d	5f		 pop	 edi
  0008e	8b c6		 mov	 eax, esi
  00090	5e		 pop	 esi
  00091	5d		 pop	 ebp
  00092	c2 04 00	 ret	 4
??_GCToolandRButtonTabCtrl@@UAEPAXI@Z ENDP		; CToolandRButtonTabCtrl::`scalar deleting destructor'
_TEXT	ENDS
; Function compile flags: /Ogtp
; File D:\git\src\IBK\IBK_DRFN\ProjSrc\SrcChartEx\ChartAddIn\ChartDesignPropertyAddIn\ChartDesignPropertyAddIn\ToolandRButtonTabCtrl.cpp
;	COMDAT ?SetOcxHwnd@CToolandRButtonTabCtrl@@QAEXPAUHWND__@@@Z
_TEXT	SEGMENT
_p_hOcxWnd$ = 8						; size = 4
?SetOcxHwnd@CToolandRButtonTabCtrl@@QAEXPAUHWND__@@@Z PROC ; CToolandRButtonTabCtrl::SetOcxHwnd, COMDAT
; _this$ = ecx

; 252  : {

  00000	55		 push	 ebp
  00001	8b ec		 mov	 ebp, esp

; 253  : 	m_hOcxWnd = p_hOcxWnd;

  00003	8b 45 08	 mov	 eax, DWORD PTR _p_hOcxWnd$[ebp]
  00006	53		 push	 ebx
  00007	8b d9		 mov	 ebx, ecx
  00009	56		 push	 esi

; 254  : 	for( int i = 0 ; i< m_nNumberOfPages ; i++)

  0000a	33 f6		 xor	 esi, esi
  0000c	89 83 70 01 00
	00		 mov	 DWORD PTR [ebx+368], eax
  00012	39 b3 ac 00 00
	00		 cmp	 DWORD PTR [ebx+172], esi
  00018	7e 1f		 jle	 SHORT $LN3@SetOcxHwnd

; 253  : 	m_hOcxWnd = p_hOcxWnd;

  0001a	57		 push	 edi
  0001b	8d bb b0 00 00
	00		 lea	 edi, DWORD PTR [ebx+176]
$LL4@SetOcxHwnd:

; 255  : 		m_tabPages[i]->SetOcxHwnd( p_hOcxWnd);

  00021	8b 0f		 mov	 ecx, DWORD PTR [edi]
  00023	50		 push	 eax
  00024	e8 00 00 00 00	 call	 ?SetOcxHwnd@CToolandRButtonDlgwithGrid_ListCtrl@@QAEXPAUHWND__@@@Z ; CToolandRButtonDlgwithGrid_ListCtrl::SetOcxHwnd
  00029	8b 45 08	 mov	 eax, DWORD PTR _p_hOcxWnd$[ebp]
  0002c	8d 7f 04	 lea	 edi, DWORD PTR [edi+4]
  0002f	46		 inc	 esi
  00030	3b b3 ac 00 00
	00		 cmp	 esi, DWORD PTR [ebx+172]
  00036	7c e9		 jl	 SHORT $LL4@SetOcxHwnd
  00038	5f		 pop	 edi
$LN3@SetOcxHwnd:

; 256  : 	m_ItemInfoManager.SetOcxHwnd( p_hOcxWnd);
; 257  : 
; 258  : 	m_ItemInfoManager.Init();

  00039	8d 8b 84 00 00
	00		 lea	 ecx, DWORD PTR [ebx+132]
  0003f	89 83 a4 00 00
	00		 mov	 DWORD PTR [ebx+164], eax
  00045	e8 00 00 00 00	 call	 ?Init@CToolandRButtonItemMgr@@QAEXXZ ; CToolandRButtonItemMgr::Init
  0004a	5e		 pop	 esi
  0004b	5b		 pop	 ebx

; 259  : }

  0004c	5d		 pop	 ebp
  0004d	c2 04 00	 ret	 4
?SetOcxHwnd@CToolandRButtonTabCtrl@@QAEXPAUHWND__@@@Z ENDP ; CToolandRButtonTabCtrl::SetOcxHwnd
_TEXT	ENDS
; Function compile flags: /Ogtp
; File D:\git\src\IBK\IBK_DRFN\ProjSrc\SrcChartEx\ChartAddIn\ChartDesignPropertyAddIn\ChartDesignPropertyAddIn\ToolandRButtonTabCtrl.cpp
; File C:\Program Files (x86)\Microsoft Visual Studio\2019\Community\VC\Tools\MSVC\14.29.30133\atlmfc\include\afxwin2.inl
; File D:\git\src\IBK\IBK_DRFN\ProjSrc\SrcChartEx\ChartAddIn\ChartDesignPropertyAddIn\ChartDesignPropertyAddIn\ToolandRButtonTabCtrl.cpp
; File C:\Program Files (x86)\Microsoft Visual Studio\2019\Community\VC\Tools\MSVC\14.29.30133\atlmfc\include\afxwin2.inl
; File D:\git\src\IBK\IBK_DRFN\ProjSrc\SrcChartEx\ChartAddIn\ChartDesignPropertyAddIn\ChartDesignPropertyAddIn\ToolandRButtonTabCtrl.cpp
; File C:\Program Files (x86)\Microsoft Visual Studio\2019\Community\VC\Tools\MSVC\14.29.30133\atlmfc\include\afxwin2.inl
; File C:\Program Files (x86)\Microsoft Visual Studio\2019\Community\VC\Tools\MSVC\14.29.30133\atlmfc\include\atltypes.h
; File C:\Program Files (x86)\Microsoft Visual Studio\2019\Community\VC\Tools\MSVC\14.29.30133\atlmfc\include\afxwin2.inl
; File C:\Program Files (x86)\Microsoft Visual Studio\2019\Community\VC\Tools\MSVC\14.29.30133\atlmfc\include\afxcmn.inl
; File D:\git\src\IBK\IBK_DRFN\ProjSrc\SrcChartEx\ChartAddIn\ChartDesignPropertyAddIn\ChartDesignPropertyAddIn\ToolandRButtonTabCtrl.cpp
;	COMDAT ?SetRectangle@CToolandRButtonTabCtrl@@AAEXXZ
_TEXT	SEGMENT
tv328 = -56						; size = 4
_nXc$1$ = -52						; size = 4
_nY$1$ = -48						; size = 4
tv332 = -44						; size = 4
_this$GSCopy$1$ = -40					; size = 4
_tabRect$ = -36						; size = 16
_itemRect$ = -20					; size = 16
__$ArrayPad$ = -4					; size = 4
?SetRectangle@CToolandRButtonTabCtrl@@AAEXXZ PROC	; CToolandRButtonTabCtrl::SetRectangle, COMDAT
; _this$ = ecx

; 91   : {

  00000	55		 push	 ebp
  00001	8b ec		 mov	 ebp, esp
  00003	83 ec 38	 sub	 esp, 56			; 00000038H
  00006	a1 00 00 00 00	 mov	 eax, DWORD PTR ___security_cookie
  0000b	33 c5		 xor	 eax, ebp
  0000d	89 45 fc	 mov	 DWORD PTR __$ArrayPad$[ebp], eax
  00010	53		 push	 ebx
  00011	56		 push	 esi
  00012	8b f1		 mov	 esi, ecx
; File C:\Program Files (x86)\Microsoft Visual Studio\2019\Community\VC\Tools\MSVC\14.29.30133\atlmfc\include\afxwin2.inl

; 86   : 	{ ASSERT(::IsWindow(m_hWnd)); ::GetClientRect(m_hWnd, lpRect); }

  00014	8d 45 dc	 lea	 eax, DWORD PTR _tabRect$[ebp]
; File D:\git\src\IBK\IBK_DRFN\ProjSrc\SrcChartEx\ChartAddIn\ChartDesignPropertyAddIn\ChartDesignPropertyAddIn\ToolandRButtonTabCtrl.cpp

; 91   : {

  00017	57		 push	 edi
; File C:\Program Files (x86)\Microsoft Visual Studio\2019\Community\VC\Tools\MSVC\14.29.30133\atlmfc\include\afxwin2.inl

; 86   : 	{ ASSERT(::IsWindow(m_hWnd)); ::GetClientRect(m_hWnd, lpRect); }

  00018	50		 push	 eax
  00019	0f 57 c0	 xorps	 xmm0, xmm0
; File D:\git\src\IBK\IBK_DRFN\ProjSrc\SrcChartEx\ChartAddIn\ChartDesignPropertyAddIn\ChartDesignPropertyAddIn\ToolandRButtonTabCtrl.cpp

; 91   : {

  0001c	89 75 d8	 mov	 DWORD PTR _this$GSCopy$1$[ebp], esi
; File C:\Program Files (x86)\Microsoft Visual Studio\2019\Community\VC\Tools\MSVC\14.29.30133\atlmfc\include\afxwin2.inl

; 86   : 	{ ASSERT(::IsWindow(m_hWnd)); ::GetClientRect(m_hWnd, lpRect); }

  0001f	ff 76 20	 push	 DWORD PTR [esi+32]
; File C:\Program Files (x86)\Microsoft Visual Studio\2019\Community\VC\Tools\MSVC\14.29.30133\atlmfc\include\atltypes.h

; 528  : 	left = 0;

  00022	0f 11 45 dc	 movups	 XMMWORD PTR _tabRect$[ebp], xmm0
  00026	0f 11 45 ec	 movups	 XMMWORD PTR _itemRect$[ebp], xmm0
; File C:\Program Files (x86)\Microsoft Visual Studio\2019\Community\VC\Tools\MSVC\14.29.30133\atlmfc\include\afxwin2.inl

; 86   : 	{ ASSERT(::IsWindow(m_hWnd)); ::GetClientRect(m_hWnd, lpRect); }

  0002a	ff 15 00 00 00
	00		 call	 DWORD PTR __imp__GetClientRect@8
; File C:\Program Files (x86)\Microsoft Visual Studio\2019\Community\VC\Tools\MSVC\14.29.30133\atlmfc\include\afxcmn.inl

; 584  : 	{ ASSERT(::IsWindow(m_hWnd)); return (BOOL)::SendMessage(m_hWnd, TCM_GETITEMRECT, nItem, (LPARAM)lpRect); }

  00030	8d 45 ec	 lea	 eax, DWORD PTR _itemRect$[ebp]
  00033	50		 push	 eax
  00034	6a 00		 push	 0
  00036	68 0a 13 00 00	 push	 4874			; 0000130aH
  0003b	ff 76 20	 push	 DWORD PTR [esi+32]
  0003e	ff 15 00 00 00
	00		 call	 DWORD PTR __imp__SendMessageA@16
; File D:\git\src\IBK\IBK_DRFN\ProjSrc\SrcChartEx\ChartAddIn\ChartDesignPropertyAddIn\ChartDesignPropertyAddIn\ToolandRButtonTabCtrl.cpp

; 99   : 	nY=itemRect.bottom+1;

  00044	8b 55 f8	 mov	 edx, DWORD PTR _itemRect$[ebp+12]

; 100  : 	nXc=tabRect.right-itemRect.left-1;
; 101  : 	nYc=tabRect.bottom-nY-1;
; 102  : 
; 103  : 	for(int nCount=0; nCount < m_nNumberOfPages; nCount++){

  00047	33 ff		 xor	 edi, edi
  00049	8b 45 e4	 mov	 eax, DWORD PTR _tabRect$[ebp+8]
  0004c	42		 inc	 edx
  0004d	8b 5d ec	 mov	 ebx, DWORD PTR _itemRect$[ebp]
  00050	2b c3		 sub	 eax, ebx
  00052	8b 4d e8	 mov	 ecx, DWORD PTR _tabRect$[ebp+12]
  00055	48		 dec	 eax
  00056	89 45 cc	 mov	 DWORD PTR _nXc$1$[ebp], eax
  00059	8d 04 12	 lea	 eax, DWORD PTR [edx+edx]
  0005c	89 55 d0	 mov	 DWORD PTR _nY$1$[ebp], edx
  0005f	2b c8		 sub	 ecx, eax
  00061	49		 dec	 ecx
  00062	89 4d d4	 mov	 DWORD PTR tv332[ebp], ecx
  00065	39 be ac 00 00
	00		 cmp	 DWORD PTR [esi+172], edi
  0006b	7e 3b		 jle	 SHORT $LN17@SetRectang

; 91   : {

  0006d	8b 45 cc	 mov	 eax, DWORD PTR _nXc$1$[ebp]
  00070	2b c3		 sub	 eax, ebx
  00072	81 c6 b0 00 00
	00		 add	 esi, 176		; 000000b0H
  00078	89 45 c8	 mov	 DWORD PTR tv328[ebp], eax
  0007b	0f 1f 44 00 00	 npad	 5
$LL4@SetRectang:

; 104  : 		m_tabPages[nCount]->MoveWindow(nX, nY, nXc - nX, nYc - nY);

  00080	6a 01		 push	 1
  00082	51		 push	 ecx
  00083	8b 0e		 mov	 ecx, DWORD PTR [esi]
  00085	50		 push	 eax
  00086	52		 push	 edx
  00087	53		 push	 ebx
  00088	e8 00 00 00 00	 call	 ?MoveWindow@CWnd@@QAEXHHHHH@Z ; CWnd::MoveWindow
  0008d	8b 45 d8	 mov	 eax, DWORD PTR _this$GSCopy$1$[ebp]
  00090	8d 76 04	 lea	 esi, DWORD PTR [esi+4]
  00093	8b 4d d4	 mov	 ecx, DWORD PTR tv332[ebp]
  00096	47		 inc	 edi
  00097	8b 55 d0	 mov	 edx, DWORD PTR _nY$1$[ebp]
  0009a	3b b8 ac 00 00
	00		 cmp	 edi, DWORD PTR [eax+172]
  000a0	8b 45 c8	 mov	 eax, DWORD PTR tv328[ebp]
  000a3	7c db		 jl	 SHORT $LL4@SetRectang
  000a5	8b 75 d8	 mov	 esi, DWORD PTR _this$GSCopy$1$[ebp]
$LN17@SetRectang:

; 105  : 	}
; 106  : 
; 107  : 	// ADD: 종찬(04/03/17) 수치조회관련
; 108  : 	m_DlgNumericalInquiryOption.MoveWindow(nX, nY, nXc-nX, nYc-nY);

  000a8	8b 45 cc	 mov	 eax, DWORD PTR _nXc$1$[ebp]
  000ab	6a 01		 push	 1
  000ad	51		 push	 ecx
  000ae	2b c3		 sub	 eax, ebx
  000b0	8d 8e c0 00 00
	00		 lea	 ecx, DWORD PTR [esi+192]
  000b6	50		 push	 eax
  000b7	52		 push	 edx
  000b8	53		 push	 ebx
  000b9	e8 00 00 00 00	 call	 ?MoveWindow@CWnd@@QAEXHHHHH@Z ; CWnd::MoveWindow

; 109  : }

  000be	8b 4d fc	 mov	 ecx, DWORD PTR __$ArrayPad$[ebp]
  000c1	5f		 pop	 edi
  000c2	5e		 pop	 esi
  000c3	33 cd		 xor	 ecx, ebp
  000c5	5b		 pop	 ebx
  000c6	e8 00 00 00 00	 call	 @__security_check_cookie@4
  000cb	8b e5		 mov	 esp, ebp
  000cd	5d		 pop	 ebp
  000ce	c3		 ret	 0
?SetRectangle@CToolandRButtonTabCtrl@@AAEXXZ ENDP	; CToolandRButtonTabCtrl::SetRectangle
_TEXT	ENDS
; Function compile flags: /Ogtp
; File D:\git\src\IBK\IBK_DRFN\ProjSrc\SrcChartEx\ChartAddIn\ChartDesignPropertyAddIn\ChartDesignPropertyAddIn\ToolandRButtonTabCtrl.cpp
;	COMDAT ?GetMessageMap@CToolandRButtonTabCtrl@@MBEPBUAFX_MSGMAP@@XZ
_TEXT	SEGMENT
?GetMessageMap@CToolandRButtonTabCtrl@@MBEPBUAFX_MSGMAP@@XZ PROC ; CToolandRButtonTabCtrl::GetMessageMap, COMDAT
; _this$ = ecx

; 45   : BEGIN_MESSAGE_MAP(CToolandRButtonTabCtrl, CTabCtrl)

  00000	b8 00 00 00 00	 mov	 eax, OFFSET ?messageMap@?1??GetThisMessageMap@CToolandRButtonTabCtrl@@KGPBUAFX_MSGMAP@@XZ@4U3@B
  00005	c3		 ret	 0
?GetMessageMap@CToolandRButtonTabCtrl@@MBEPBUAFX_MSGMAP@@XZ ENDP ; CToolandRButtonTabCtrl::GetMessageMap
_TEXT	ENDS
; Function compile flags: /Ogtp
; File D:\git\src\IBK\IBK_DRFN\ProjSrc\SrcChartEx\ChartAddIn\ChartDesignPropertyAddIn\ChartDesignPropertyAddIn\ToolandRButtonTabCtrl.cpp
;	COMDAT ?GetThisMessageMap@CToolandRButtonTabCtrl@@KGPBUAFX_MSGMAP@@XZ
_TEXT	SEGMENT
?GetThisMessageMap@CToolandRButtonTabCtrl@@KGPBUAFX_MSGMAP@@XZ PROC ; CToolandRButtonTabCtrl::GetThisMessageMap, COMDAT

; 46   : 	//{{AFX_MSG_MAP(CToolandRButtonTabCtrl)
; 47   : 	ON_WM_LBUTTONDOWN()
; 48   : 	//}}AFX_MSG_MAP
; 49   : END_MESSAGE_MAP()

  00000	b8 00 00 00 00	 mov	 eax, OFFSET ?messageMap@?1??GetThisMessageMap@CToolandRButtonTabCtrl@@KGPBUAFX_MSGMAP@@XZ@4U3@B
  00005	c3		 ret	 0
?GetThisMessageMap@CToolandRButtonTabCtrl@@KGPBUAFX_MSGMAP@@XZ ENDP ; CToolandRButtonTabCtrl::GetThisMessageMap
_TEXT	ENDS
; Function compile flags: /Ogtp
; File D:\git\src\IBK\IBK_DRFN\ProjSrc\SrcChartEx\ChartAddIn\ChartDesignPropertyAddIn\ChartDesignPropertyAddIn\ToolandRButtonTabCtrl.cpp
; File C:\Program Files (x86)\Microsoft Visual Studio\2019\Community\VC\Tools\MSVC\14.29.30133\atlmfc\include\afxwin2.inl
; File C:\Program Files (x86)\Microsoft Visual Studio\2019\Community\VC\Tools\MSVC\14.29.30133\atlmfc\include\afxcmn.inl
; File D:\git\src\IBK\IBK_DRFN\ProjSrc\SrcChartEx\ChartAddIn\ChartDesignPropertyAddIn\ChartDesignPropertyAddIn\ToolandRButtonTabCtrl.cpp
;	COMDAT ?OnLButtonDown@CToolandRButtonTabCtrl@@IAEXIVCPoint@@@Z
_TEXT	SEGMENT
_nFlags$ = 8						; size = 4
_point$ = 12						; size = 8
?OnLButtonDown@CToolandRButtonTabCtrl@@IAEXIVCPoint@@@Z PROC ; CToolandRButtonTabCtrl::OnLButtonDown, COMDAT
; _this$ = ecx

; 112  : {

  00000	56		 push	 esi
  00001	8b f1		 mov	 esi, ecx
; File C:\Program Files (x86)\Microsoft Visual Studio\2019\Community\VC\Tools\MSVC\14.29.30133\atlmfc\include\afxwin2.inl

; 432  : 	{ Default(); }

  00003	e8 00 00 00 00	 call	 ?Default@CWnd@@IAEJXZ	; CWnd::Default
; File C:\Program Files (x86)\Microsoft Visual Studio\2019\Community\VC\Tools\MSVC\14.29.30133\atlmfc\include\afxcmn.inl

; 606  : 	{ ASSERT(::IsWindow(m_hWnd)); return (int)::SendMessage(m_hWnd, TCM_GETCURFOCUS, 0, 0L); }

  00008	6a 00		 push	 0
  0000a	6a 00		 push	 0
  0000c	68 2f 13 00 00	 push	 4911			; 0000132fH
  00011	ff 76 20	 push	 DWORD PTR [esi+32]
  00014	ff 15 00 00 00
	00		 call	 DWORD PTR __imp__SendMessageA@16
; File D:\git\src\IBK\IBK_DRFN\ProjSrc\SrcChartEx\ChartAddIn\ChartDesignPropertyAddIn\ChartDesignPropertyAddIn\ToolandRButtonTabCtrl.cpp

; 117  : 	if(m_tabCurrent != nIndex){

  0001a	39 86 a8 00 00
	00		 cmp	 DWORD PTR [esi+168], eax
  00020	0f 84 ac 00 00
	00		 je	 $LN10@OnLButtonD

; 118  : 		m_tabCurrent = nIndex;
; 119  : 		if(m_tabCurrent != 1)	// MODIFY: 종찬(04/03/17) RButton Menu page 제거.

  00026	8b 8e ac 00 00
	00		 mov	 ecx, DWORD PTR [esi+172]
  0002c	53		 push	 ebx
  0002d	57		 push	 edi
  0002e	33 ff		 xor	 edi, edi
  00030	89 86 a8 00 00
	00		 mov	 DWORD PTR [esi+168], eax
  00036	83 f8 01	 cmp	 eax, 1
  00039	74 5e		 je	 SHORT $LN9@OnLButtonD

; 120  : 		{
; 121  : 			for(int i = 0; i< m_nNumberOfPages; i++)

  0003b	85 c9		 test	 ecx, ecx
  0003d	7e 47		 jle	 SHORT $LN3@OnLButtonD
  0003f	8d 9e b0 00 00
	00		 lea	 ebx, DWORD PTR [esi+176]
$LL4@OnLButtonD:

; 122  : 			{
; 123  : 				if(m_tabCurrent != i)

  00045	8b 8e a8 00 00
	00		 mov	 ecx, DWORD PTR [esi+168]
  0004b	3b cf		 cmp	 ecx, edi
  0004d	74 0b		 je	 SHORT $LN11@OnLButtonD

; 124  : 					m_tabPages[i]->ShowWindow(SW_HIDE);

  0004f	8b 0b		 mov	 ecx, DWORD PTR [ebx]
  00051	6a 00		 push	 0
  00053	e8 00 00 00 00	 call	 ?ShowWindow@CWnd@@QAEHH@Z ; CWnd::ShowWindow
  00058	eb 20		 jmp	 SHORT $LN2@OnLButtonD
$LN11@OnLButtonD:

; 125  : 				else 
; 126  : 				{
; 127  : 					m_tabPages[m_tabCurrent]->ShowWindow(SW_SHOW);

  0005a	8b 8c 8e b0 00
	00 00		 mov	 ecx, DWORD PTR [esi+ecx*4+176]
  00061	6a 05		 push	 5
  00063	e8 00 00 00 00	 call	 ?ShowWindow@CWnd@@QAEHH@Z ; CWnd::ShowWindow

; 128  : 					m_tabPages[m_tabCurrent]->SetFocus();

  00068	8b 8e a8 00 00
	00		 mov	 ecx, DWORD PTR [esi+168]
  0006e	8b 8c 8e b0 00
	00 00		 mov	 ecx, DWORD PTR [esi+ecx*4+176]
  00075	e8 00 00 00 00	 call	 ?SetFocus@CWnd@@QAEPAV1@XZ ; CWnd::SetFocus
$LN2@OnLButtonD:

; 120  : 		{
; 121  : 			for(int i = 0; i< m_nNumberOfPages; i++)

  0007a	47		 inc	 edi
  0007b	83 c3 04	 add	 ebx, 4
  0007e	3b be ac 00 00
	00		 cmp	 edi, DWORD PTR [esi+172]
  00084	7c bf		 jl	 SHORT $LL4@OnLButtonD
$LN3@OnLButtonD:

; 129  : 				}
; 130  : 			}//end of for
; 131  : 			m_DlgNumericalInquiryOption.ShowWindow(SW_HIDE);

  00086	6a 00		 push	 0
  00088	8d 8e c0 00 00
	00		 lea	 ecx, DWORD PTR [esi+192]
  0008e	e8 00 00 00 00	 call	 ?ShowWindow@CWnd@@QAEHH@Z ; CWnd::ShowWindow
  00093	5f		 pop	 edi
  00094	5b		 pop	 ebx
  00095	5e		 pop	 esi

; 140  : 		}
; 141  : 	}//end of if(m_tab..
; 142  : 	// MODIFY: 04/03/17
; 143  : }

  00096	c2 0c 00	 ret	 12			; 0000000cH
$LN9@OnLButtonD:

; 132  : 		}
; 133  : 		else
; 134  : 		{
; 135  : 			for(int i = 0; i < m_nNumberOfPages; i++)

  00099	85 c9		 test	 ecx, ecx
  0009b	7e 1b		 jle	 SHORT $LN6@OnLButtonD
  0009d	8d 9e b0 00 00
	00		 lea	 ebx, DWORD PTR [esi+176]
$LL7@OnLButtonD:

; 136  : 				m_tabPages[i]->ShowWindow(SW_HIDE);

  000a3	8b 0b		 mov	 ecx, DWORD PTR [ebx]
  000a5	6a 00		 push	 0
  000a7	e8 00 00 00 00	 call	 ?ShowWindow@CWnd@@QAEHH@Z ; CWnd::ShowWindow
  000ac	47		 inc	 edi
  000ad	8d 5b 04	 lea	 ebx, DWORD PTR [ebx+4]
  000b0	3b be ac 00 00
	00		 cmp	 edi, DWORD PTR [esi+172]
  000b6	7c eb		 jl	 SHORT $LL7@OnLButtonD
$LN6@OnLButtonD:

; 137  : 
; 138  : 			m_DlgNumericalInquiryOption.ShowWindow(SW_SHOW);

  000b8	6a 05		 push	 5
  000ba	8d 8e c0 00 00
	00		 lea	 ecx, DWORD PTR [esi+192]
  000c0	e8 00 00 00 00	 call	 ?ShowWindow@CWnd@@QAEHH@Z ; CWnd::ShowWindow

; 139  : 			m_DlgNumericalInquiryOption.SetFocus();

  000c5	8d 8e c0 00 00
	00		 lea	 ecx, DWORD PTR [esi+192]
  000cb	e8 00 00 00 00	 call	 ?SetFocus@CWnd@@QAEPAV1@XZ ; CWnd::SetFocus
  000d0	5f		 pop	 edi
  000d1	5b		 pop	 ebx
$LN10@OnLButtonD:

; 140  : 		}
; 141  : 	}//end of if(m_tab..
; 142  : 	// MODIFY: 04/03/17
; 143  : }

  000d2	5e		 pop	 esi
  000d3	c2 0c 00	 ret	 12			; 0000000cH
?OnLButtonDown@CToolandRButtonTabCtrl@@IAEXIVCPoint@@@Z ENDP ; CToolandRButtonTabCtrl::OnLButtonDown
_TEXT	ENDS
; Function compile flags: /Ogtp
; File D:\git\src\IBK\IBK_DRFN\ProjSrc\SrcChartEx\ChartAddIn\ChartDesignPropertyAddIn\ChartDesignPropertyAddIn\ToolandRButtonTabCtrl.cpp
; File C:\Program Files (x86)\Microsoft Visual Studio\2019\Community\VC\Tools\MSVC\14.29.30133\atlmfc\include\afxwin2.inl
; File C:\Program Files (x86)\Microsoft Visual Studio\2019\Community\VC\Tools\MSVC\14.29.30133\atlmfc\include\atltypes.h
; File C:\Program Files (x86)\Microsoft Visual Studio\2019\Community\VC\Tools\MSVC\14.29.30133\atlmfc\include\afxwin2.inl
; File C:\Program Files (x86)\Microsoft Visual Studio\2019\Community\VC\Tools\MSVC\14.29.30133\atlmfc\include\atltypes.h
; File C:\Program Files (x86)\Microsoft Visual Studio\2019\Community\VC\Tools\MSVC\14.29.30133\atlmfc\include\afxwin2.inl
; File C:\Program Files (x86)\Microsoft Visual Studio\2019\Community\VC\Tools\MSVC\14.29.30133\atlmfc\include\afxcmn.inl
; File D:\git\src\IBK\IBK_DRFN\ProjSrc\SrcChartEx\ChartAddIn\ChartDesignPropertyAddIn\ChartDesignPropertyAddIn\ToolandRButtonTabCtrl.cpp
; File C:\Program Files (x86)\Microsoft Visual Studio\2019\Community\VC\Tools\MSVC\14.29.30133\atlmfc\include\afxcmn.inl
; File D:\git\src\IBK\IBK_DRFN\ProjSrc\SrcChartEx\ChartAddIn\ChartDesignPropertyAddIn\ChartDesignPropertyAddIn\ToolandRButtonTabCtrl.cpp
; File C:\Program Files (x86)\Microsoft Visual Studio\2019\Community\VC\Tools\MSVC\14.29.30133\atlmfc\include\afxcmn.inl
; File D:\git\src\IBK\IBK_DRFN\ProjSrc\SrcChartEx\ChartAddIn\ChartDesignPropertyAddIn\ChartDesignPropertyAddIn\ToolandRButtonTabCtrl.cpp
;	COMDAT ?SetTabFocus@CToolandRButtonTabCtrl@@QAEXXZ
_TEXT	SEGMENT
tv482 = -56						; size = 4
_nY$1$ = -52						; size = 4
tv490 = -48						; size = 4
_nX$1$ = -44						; size = 4
tv481 = -40						; size = 4
_nXc$1$ = -40						; size = 4
_tabRect$1 = -36					; size = 16
_itemRect$2 = -20					; size = 16
__$ArrayPad$ = -4					; size = 4
?SetTabFocus@CToolandRButtonTabCtrl@@QAEXXZ PROC	; CToolandRButtonTabCtrl::SetTabFocus, COMDAT
; _this$ = ecx

; 222  : {

  00000	55		 push	 ebp
  00001	8b ec		 mov	 ebp, esp
  00003	83 ec 38	 sub	 esp, 56			; 00000038H
  00006	a1 00 00 00 00	 mov	 eax, DWORD PTR ___security_cookie
  0000b	33 c5		 xor	 eax, ebp
  0000d	89 45 fc	 mov	 DWORD PTR __$ArrayPad$[ebp], eax
  00010	53		 push	 ebx
  00011	56		 push	 esi
  00012	57		 push	 edi
  00013	8b f1		 mov	 esi, ecx
; File C:\Program Files (x86)\Microsoft Visual Studio\2019\Community\VC\Tools\MSVC\14.29.30133\atlmfc\include\afxwin2.inl

; 86   : 	{ ASSERT(::IsWindow(m_hWnd)); ::GetClientRect(m_hWnd, lpRect); }

  00015	8d 45 dc	 lea	 eax, DWORD PTR _tabRect$1[ebp]
  00018	50		 push	 eax
  00019	0f 57 c0	 xorps	 xmm0, xmm0
; File C:\Program Files (x86)\Microsoft Visual Studio\2019\Community\VC\Tools\MSVC\14.29.30133\atlmfc\include\atltypes.h

; 528  : 	left = 0;

  0001c	0f 11 45 dc	 movups	 XMMWORD PTR _tabRect$1[ebp], xmm0
; File C:\Program Files (x86)\Microsoft Visual Studio\2019\Community\VC\Tools\MSVC\14.29.30133\atlmfc\include\afxwin2.inl

; 86   : 	{ ASSERT(::IsWindow(m_hWnd)); ::GetClientRect(m_hWnd, lpRect); }

  00020	ff 76 20	 push	 DWORD PTR [esi+32]
; File C:\Program Files (x86)\Microsoft Visual Studio\2019\Community\VC\Tools\MSVC\14.29.30133\atlmfc\include\atltypes.h

; 528  : 	left = 0;

  00023	0f 11 45 ec	 movups	 XMMWORD PTR _itemRect$2[ebp], xmm0
; File C:\Program Files (x86)\Microsoft Visual Studio\2019\Community\VC\Tools\MSVC\14.29.30133\atlmfc\include\afxwin2.inl

; 86   : 	{ ASSERT(::IsWindow(m_hWnd)); ::GetClientRect(m_hWnd, lpRect); }

  00027	ff 15 00 00 00
	00		 call	 DWORD PTR __imp__GetClientRect@8
; File C:\Program Files (x86)\Microsoft Visual Studio\2019\Community\VC\Tools\MSVC\14.29.30133\atlmfc\include\afxcmn.inl

; 584  : 	{ ASSERT(::IsWindow(m_hWnd)); return (BOOL)::SendMessage(m_hWnd, TCM_GETITEMRECT, nItem, (LPARAM)lpRect); }

  0002d	8d 45 ec	 lea	 eax, DWORD PTR _itemRect$2[ebp]
  00030	50		 push	 eax
  00031	6a 00		 push	 0
  00033	68 0a 13 00 00	 push	 4874			; 0000130aH
  00038	ff 76 20	 push	 DWORD PTR [esi+32]
  0003b	ff 15 00 00 00
	00		 call	 DWORD PTR __imp__SendMessageA@16
; File D:\git\src\IBK\IBK_DRFN\ProjSrc\SrcChartEx\ChartAddIn\ChartDesignPropertyAddIn\ChartDesignPropertyAddIn\ToolandRButtonTabCtrl.cpp

; 99   : 	nY=itemRect.bottom+1;

  00041	8b 45 f8	 mov	 eax, DWORD PTR _itemRect$2[ebp+12]

; 100  : 	nXc=tabRect.right-itemRect.left-1;
; 101  : 	nYc=tabRect.bottom-nY-1;
; 102  : 
; 103  : 	for(int nCount=0; nCount < m_nNumberOfPages; nCount++){

  00044	33 db		 xor	 ebx, ebx
  00046	8b 4d ec	 mov	 ecx, DWORD PTR _itemRect$2[ebp]
  00049	40		 inc	 eax
  0004a	8b 7d e4	 mov	 edi, DWORD PTR _tabRect$1[ebp+8]
  0004d	8b 55 e8	 mov	 edx, DWORD PTR _tabRect$1[ebp+12]
  00050	2b f9		 sub	 edi, ecx
  00052	89 45 cc	 mov	 DWORD PTR _nY$1$[ebp], eax
  00055	4f		 dec	 edi
  00056	03 c0		 add	 eax, eax
  00058	89 4d d4	 mov	 DWORD PTR _nX$1$[ebp], ecx
  0005b	2b d0		 sub	 edx, eax
  0005d	89 7d d8	 mov	 DWORD PTR _nXc$1$[ebp], edi
  00060	4a		 dec	 edx
  00061	89 55 d0	 mov	 DWORD PTR tv490[ebp], edx
  00064	39 9e ac 00 00
	00		 cmp	 DWORD PTR [esi+172], ebx
  0006a	7e 3b		 jle	 SHORT $LN29@SetTabFocu

; 222  : {

  0006c	8b c7		 mov	 eax, edi
  0006e	8d be b0 00 00
	00		 lea	 edi, DWORD PTR [esi+176]
  00074	2b c1		 sub	 eax, ecx
  00076	89 45 c8	 mov	 DWORD PTR tv482[ebp], eax
  00079	0f 1f 80 00 00
	00 00		 npad	 7
$LL11@SetTabFocu:

; 104  : 		m_tabPages[nCount]->MoveWindow(nX, nY, nXc - nX, nYc - nY);

  00080	6a 01		 push	 1
  00082	52		 push	 edx
  00083	50		 push	 eax
  00084	ff 75 cc	 push	 DWORD PTR _nY$1$[ebp]
  00087	51		 push	 ecx
  00088	8b 0f		 mov	 ecx, DWORD PTR [edi]
  0008a	e8 00 00 00 00	 call	 ?MoveWindow@CWnd@@QAEXHHHHH@Z ; CWnd::MoveWindow
  0008f	8b 4d d4	 mov	 ecx, DWORD PTR _nX$1$[ebp]
  00092	8d 7f 04	 lea	 edi, DWORD PTR [edi+4]
  00095	8b 45 c8	 mov	 eax, DWORD PTR tv482[ebp]
  00098	43		 inc	 ebx
  00099	8b 55 d0	 mov	 edx, DWORD PTR tv490[ebp]
  0009c	3b 9e ac 00 00
	00		 cmp	 ebx, DWORD PTR [esi+172]
  000a2	7c dc		 jl	 SHORT $LL11@SetTabFocu
  000a4	8b 7d d8	 mov	 edi, DWORD PTR _nXc$1$[ebp]
$LN29@SetTabFocu:

; 105  : 	}
; 106  : 
; 107  : 	// ADD: 종찬(04/03/17) 수치조회관련
; 108  : 	m_DlgNumericalInquiryOption.MoveWindow(nX, nY, nXc-nX, nYc-nY);

  000a7	6a 01		 push	 1
  000a9	52		 push	 edx
  000aa	2b f9		 sub	 edi, ecx
  000ac	8d 86 c0 00 00
	00		 lea	 eax, DWORD PTR [esi+192]
  000b2	57		 push	 edi
  000b3	ff 75 cc	 push	 DWORD PTR _nY$1$[ebp]
  000b6	89 45 d8	 mov	 DWORD PTR tv481[ebp], eax
  000b9	51		 push	 ecx
  000ba	8b c8		 mov	 ecx, eax
  000bc	e8 00 00 00 00	 call	 ?MoveWindow@CWnd@@QAEXHHHHH@Z ; CWnd::MoveWindow
; File C:\Program Files (x86)\Microsoft Visual Studio\2019\Community\VC\Tools\MSVC\14.29.30133\atlmfc\include\afxcmn.inl

; 572  : 	{ ASSERT(::IsWindow(m_hWnd)); ::SendMessage(m_hWnd, TCM_SETCURFOCUS, (WPARAM) nItem, 0); }

  000c1	6a 00		 push	 0
  000c3	6a 00		 push	 0
  000c5	68 30 13 00 00	 push	 4912			; 00001330H
  000ca	ff 76 20	 push	 DWORD PTR [esi+32]
; File D:\git\src\IBK\IBK_DRFN\ProjSrc\SrcChartEx\ChartAddIn\ChartDesignPropertyAddIn\ChartDesignPropertyAddIn\ToolandRButtonTabCtrl.cpp

; 224  : 	m_tabCurrent = 0;

  000cd	c7 86 a8 00 00
	00 00 00 00 00	 mov	 DWORD PTR [esi+168], 0
; File C:\Program Files (x86)\Microsoft Visual Studio\2019\Community\VC\Tools\MSVC\14.29.30133\atlmfc\include\afxcmn.inl

; 572  : 	{ ASSERT(::IsWindow(m_hWnd)); ::SendMessage(m_hWnd, TCM_SETCURFOCUS, (WPARAM) nItem, 0); }

  000d7	ff 15 00 00 00
	00		 call	 DWORD PTR __imp__SendMessageA@16
; File D:\git\src\IBK\IBK_DRFN\ProjSrc\SrcChartEx\ChartAddIn\ChartDesignPropertyAddIn\ChartDesignPropertyAddIn\ToolandRButtonTabCtrl.cpp

; 226  : 	for(int nCount = 0; nCount < m_nNumberOfPages; nCount++){

  000dd	33 db		 xor	 ebx, ebx
  000df	39 9e ac 00 00
	00		 cmp	 DWORD PTR [esi+172], ebx
  000e5	7e 38		 jle	 SHORT $LN3@SetTabFocu

; 108  : 	m_DlgNumericalInquiryOption.MoveWindow(nX, nY, nXc-nX, nYc-nY);

  000e7	bf b0 00 00 00	 mov	 edi, 176		; 000000b0H
  000ec	0f 1f 40 00	 npad	 4
$LL4@SetTabFocu:

; 227  : 		if(m_tabCurrent != nCount)

  000f0	8b 0c 37	 mov	 ecx, DWORD PTR [edi+esi]
  000f3	39 9e a8 00 00
	00		 cmp	 DWORD PTR [esi+168], ebx
  000f9	74 09		 je	 SHORT $LN5@SetTabFocu

; 228  : 			m_tabPages[nCount]->ShowWindow(SW_HIDE);

  000fb	6a 00		 push	 0
  000fd	e8 00 00 00 00	 call	 ?ShowWindow@CWnd@@QAEHH@Z ; CWnd::ShowWindow
  00102	eb 0f		 jmp	 SHORT $LN2@SetTabFocu
$LN5@SetTabFocu:

; 229  : 		else {
; 230  : 			m_tabPages[nCount]->ShowWindow(SW_SHOW);

  00104	6a 05		 push	 5
  00106	e8 00 00 00 00	 call	 ?ShowWindow@CWnd@@QAEHH@Z ; CWnd::ShowWindow

; 231  : 			m_tabPages[nCount]->SetFocus();

  0010b	8b 0c 37	 mov	 ecx, DWORD PTR [edi+esi]
  0010e	e8 00 00 00 00	 call	 ?SetFocus@CWnd@@QAEPAV1@XZ ; CWnd::SetFocus
$LN2@SetTabFocu:

; 226  : 	for(int nCount = 0; nCount < m_nNumberOfPages; nCount++){

  00113	43		 inc	 ebx
  00114	83 c7 04	 add	 edi, 4
  00117	3b 9e ac 00 00
	00		 cmp	 ebx, DWORD PTR [esi+172]
  0011d	7c d1		 jl	 SHORT $LL4@SetTabFocu
$LN3@SetTabFocu:

; 232  : 		}
; 233  : 	}
; 234  : 
; 235  : 	// ADD: 종찬(04/03/17) 수치조회관련 옵션 추가
; 236  : 	m_DlgNumericalInquiryOption.ShowWindow(SW_HIDE);

  0011f	8b 4d d8	 mov	 ecx, DWORD PTR tv481[ebp]
  00122	6a 00		 push	 0
  00124	e8 00 00 00 00	 call	 ?ShowWindow@CWnd@@QAEHH@Z ; CWnd::ShowWindow

; 237  : 
; 238  : }

  00129	8b 4d fc	 mov	 ecx, DWORD PTR __$ArrayPad$[ebp]
  0012c	5f		 pop	 edi
  0012d	5e		 pop	 esi
  0012e	33 cd		 xor	 ecx, ebp
  00130	5b		 pop	 ebx
  00131	e8 00 00 00 00	 call	 @__security_check_cookie@4
  00136	8b e5		 mov	 esp, ebp
  00138	5d		 pop	 ebp
  00139	c3		 ret	 0
?SetTabFocus@CToolandRButtonTabCtrl@@QAEXXZ ENDP	; CToolandRButtonTabCtrl::SetTabFocus
_TEXT	ENDS
; Function compile flags: /Ogtp
; File D:\git\src\IBK\IBK_DRFN\ProjSrc\SrcChartEx\ChartAddIn\ChartDesignPropertyAddIn\ChartDesignPropertyAddIn\ToolandRButtonTabCtrl.cpp
;	COMDAT ?GetMiniToolBarItem@CToolandRButtonTabCtrl@@QAE?AV?$CStringT@DV?$StrTraitMFC_DLL@DV?$ChTraitsCRT@D@ATL@@@@@ATL@@XZ
_TEXT	SEGMENT
___$ReturnUdt$ = 8					; size = 4
?GetMiniToolBarItem@CToolandRButtonTabCtrl@@QAE?AV?$CStringT@DV?$StrTraitMFC_DLL@DV?$ChTraitsCRT@D@ATL@@@@@ATL@@XZ PROC ; CToolandRButtonTabCtrl::GetMiniToolBarItem, COMDAT
; _this$ = ecx

; 247  : {

  00000	55		 push	 ebp
  00001	8b ec		 mov	 ebp, esp

; 248  : 	return ((CToolandRButtonDlgwithGrid_ListCtrl* )m_tabPages[0])->GetListItemInfo();

  00003	ff 75 08	 push	 DWORD PTR ___$ReturnUdt$[ebp]
  00006	8b 89 b0 00 00
	00		 mov	 ecx, DWORD PTR [ecx+176]
  0000c	e8 00 00 00 00	 call	 ?GetListItemInfo@CToolandRButtonDlgwithGrid_ListCtrl@@QAE?AV?$CStringT@DV?$StrTraitMFC_DLL@DV?$ChTraitsCRT@D@ATL@@@@@ATL@@XZ ; CToolandRButtonDlgwithGrid_ListCtrl::GetListItemInfo
  00011	8b 45 08	 mov	 eax, DWORD PTR ___$ReturnUdt$[ebp]

; 249  : }

  00014	5d		 pop	 ebp
  00015	c2 04 00	 ret	 4
?GetMiniToolBarItem@CToolandRButtonTabCtrl@@QAE?AV?$CStringT@DV?$StrTraitMFC_DLL@DV?$ChTraitsCRT@D@ATL@@@@@ATL@@XZ ENDP ; CToolandRButtonTabCtrl::GetMiniToolBarItem
_TEXT	ENDS
; Function compile flags: /Ogtp
; File D:\git\src\IBK\IBK_DRFN\ProjSrc\SrcChartEx\ChartAddIn\ChartDesignPropertyAddIn\ChartDesignPropertyAddIn\ToolandRButtonTabCtrl.cpp
; File C:\Program Files (x86)\Microsoft Visual Studio\2019\Community\VC\Tools\MSVC\14.29.30133\atlmfc\include\afxwin1.inl
; File D:\git\src\IBK\IBK_DRFN\ProjSrc\SrcChartEx\ChartAddIn\ChartDesignPropertyAddIn\Include_Chart\Dll_Load\IMetaTable.h
; File C:\Program Files (x86)\Microsoft Visual Studio\2019\Community\VC\Tools\MSVC\14.29.30133\atlmfc\include\afxwin1.inl
; File D:\git\src\IBK\IBK_DRFN\ProjSrc\SrcChartEx\ChartAddIn\ChartDesignPropertyAddIn\ChartDesignPropertyAddIn\ToolandRButtonTabCtrl.cpp
; File C:\Program Files (x86)\Microsoft Visual Studio\2019\Community\VC\Tools\MSVC\14.29.30133\atlmfc\include\afxcmn.inl
; File D:\git\src\IBK\IBK_DRFN\ProjSrc\SrcChartEx\ChartAddIn\ChartDesignPropertyAddIn\ChartDesignPropertyAddIn\ToolandRButtonTabCtrl.cpp
; File C:\Program Files (x86)\Microsoft Visual Studio\2019\Community\VC\Tools\MSVC\14.29.30133\atlmfc\include\afxcmn.inl
; File D:\git\src\IBK\IBK_DRFN\ProjSrc\SrcChartEx\ChartAddIn\ChartDesignPropertyAddIn\ChartDesignPropertyAddIn\ToolandRButtonTabCtrl.cpp
; File D:\git\src\IBK\IBK_DRFN\ProjSrc\SrcChartEx\ChartAddIn\ChartDesignPropertyAddIn\Include_Chart\Dll_Load\IMetaTable.h
; File C:\Program Files (x86)\Microsoft Visual Studio\2019\Community\VC\Tools\MSVC\14.29.30133\atlmfc\include\afxwin1.inl
; File D:\git\src\IBK\IBK_DRFN\ProjSrc\SrcChartEx\ChartAddIn\ChartDesignPropertyAddIn\Include_Chart\Dll_Load\IMetaTable.h
; File C:\Program Files (x86)\Microsoft Visual Studio\2019\Community\VC\Tools\MSVC\14.29.30133\atlmfc\include\afxwin1.inl
; File D:\git\src\IBK\IBK_DRFN\ProjSrc\SrcChartEx\ChartAddIn\ChartDesignPropertyAddIn\ChartDesignPropertyAddIn\ToolandRButtonTabCtrl.cpp
; File C:\Program Files (x86)\Microsoft Visual Studio\2019\Community\VC\Tools\MSVC\14.29.30133\atlmfc\include\afxwin1.inl
; File D:\git\src\IBK\IBK_DRFN\ProjSrc\SrcChartEx\ChartAddIn\ChartDesignPropertyAddIn\Include_Chart\Dll_Load\IMetaTable.h
; File C:\Program Files (x86)\Microsoft Visual Studio\2019\Community\VC\Tools\MSVC\14.29.30133\atlmfc\include\afxwin1.inl
; File D:\git\src\IBK\IBK_DRFN\ProjSrc\SrcChartEx\ChartAddIn\ChartDesignPropertyAddIn\ChartDesignPropertyAddIn\ToolandRButtonTabCtrl.cpp
; File C:\Program Files (x86)\Microsoft Visual Studio\2019\Community\VC\Tools\MSVC\14.29.30133\atlmfc\include\afxcmn.inl
; File D:\git\src\IBK\IBK_DRFN\ProjSrc\SrcChartEx\ChartAddIn\ChartDesignPropertyAddIn\ChartDesignPropertyAddIn\ToolandRButtonTabCtrl.cpp
; File C:\Program Files (x86)\Microsoft Visual Studio\2019\Community\VC\Tools\MSVC\14.29.30133\atlmfc\include\afxcmn.inl
; File D:\git\src\IBK\IBK_DRFN\ProjSrc\SrcChartEx\ChartAddIn\ChartDesignPropertyAddIn\ChartDesignPropertyAddIn\ToolandRButtonTabCtrl.cpp
; File C:\Program Files (x86)\Microsoft Visual Studio\2019\Community\VC\Tools\MSVC\14.29.30133\atlmfc\include\afxwin1.inl
; File D:\git\src\IBK\IBK_DRFN\ProjSrc\SrcChartEx\ChartAddIn\ChartDesignPropertyAddIn\Include_Chart\Dll_Load\IMetaTable.h
; File C:\Program Files (x86)\Microsoft Visual Studio\2019\Community\VC\Tools\MSVC\14.29.30133\atlmfc\include\afxwin1.inl
; File D:\git\src\IBK\IBK_DRFN\ProjSrc\SrcChartEx\ChartAddIn\ChartDesignPropertyAddIn\ChartDesignPropertyAddIn\ToolandRButtonTabCtrl.cpp
; File D:\git\src\IBK\IBK_DRFN\ProjSrc\SrcChartEx\ChartAddIn\ChartDesignPropertyAddIn\Include_Chart\Dll_Load\IMetaTable.h
; File C:\Program Files (x86)\Microsoft Visual Studio\2019\Community\VC\Tools\MSVC\14.29.30133\atlmfc\include\afxwin1.inl
; File D:\git\src\IBK\IBK_DRFN\ProjSrc\SrcChartEx\ChartAddIn\ChartDesignPropertyAddIn\Include_Chart\Dll_Load\IMetaTable.h
; File C:\Program Files (x86)\Microsoft Visual Studio\2019\Community\VC\Tools\MSVC\14.29.30133\atlmfc\include\afxwin1.inl
; File D:\git\src\IBK\IBK_DRFN\ProjSrc\SrcChartEx\ChartAddIn\ChartDesignPropertyAddIn\ChartDesignPropertyAddIn\ToolandRButtonTabCtrl.cpp
;	COMDAT ?InitTab@CToolandRButtonTabCtrl@@QAEXXZ
_TEXT	SEGMENT
_tcItem$2 = -72						; size = 28
___mlrs__$3 = -44					; size = 4
___mlrs__$ = -40					; size = 4
___mlrs__$4 = -40					; size = 4
_p_hResource$1$ = -36					; size = 4
___mlrs__$1$ = -36					; size = 4
_strColumnName$5 = -36					; size = 4
_szBuf$6 = -32						; size = 16
__$ArrayPad$ = -16					; size = 4
__$EHRec$ = -12						; size = 12
?InitTab@CToolandRButtonTabCtrl@@QAEXXZ PROC		; CToolandRButtonTabCtrl::InitTab, COMDAT
; _this$ = ecx

; 54   : {

  00000	55		 push	 ebp
  00001	8b ec		 mov	 ebp, esp
  00003	6a ff		 push	 -1
  00005	68 00 00 00 00	 push	 __ehhandler$?InitTab@CToolandRButtonTabCtrl@@QAEXXZ
  0000a	64 a1 00 00 00
	00		 mov	 eax, DWORD PTR fs:0
  00010	50		 push	 eax
  00011	83 ec 3c	 sub	 esp, 60			; 0000003cH
  00014	a1 00 00 00 00	 mov	 eax, DWORD PTR ___security_cookie
  00019	33 c5		 xor	 eax, ebp
  0001b	89 45 f0	 mov	 DWORD PTR __$ArrayPad$[ebp], eax
  0001e	53		 push	 ebx
  0001f	56		 push	 esi
  00020	57		 push	 edi
  00021	50		 push	 eax
  00022	8d 45 f4	 lea	 eax, DWORD PTR __$EHRec$[ebp]
  00025	64 a3 00 00 00
	00		 mov	 DWORD PTR fs:0, eax
  0002b	8b d9		 mov	 ebx, ecx

; 55   : 	// MODIFY: 종찬(04/03/17) 수치조회관련
; 56   : 	// (2009/9/23 - Seung-Won, Bae) Use '{}' for ML_SET_LANGUAGE_RES()'s re-using.
; 57   : 	{
; 58   : 		ML_SET_LANGUAGE_RES();

  0002d	e8 00 00 00 00	 call	 ?AfxGetStaticModuleState@@YGPAVAFX_MODULE_STATE@@XZ ; AfxGetStaticModuleState
  00032	b9 00 00 00 00	 mov	 ecx, OFFSET ?g_iMetaTable@@3VIMetaTable@@A ; g_iMetaTable
  00037	8b 40 08	 mov	 eax, DWORD PTR [eax+8]
  0003a	50		 push	 eax
  0003b	ff b3 70 01 00
	00		 push	 DWORD PTR [ebx+368]
  00041	e8 00 00 00 00	 call	 ?LoadResourceDLL@IMetaTable@@QAEPAUHINSTANCE__@@PAUHWND__@@PAU2@@Z ; IMetaTable::LoadResourceDLL
  00046	8b f8		 mov	 edi, eax
; File C:\Program Files (x86)\Microsoft Visual Studio\2019\Community\VC\Tools\MSVC\14.29.30133\atlmfc\include\afxwin1.inl

; 25   : 		return afxCurrentResourceHandle; }

  00048	e8 00 00 00 00	 call	 ?AfxGetModuleState@@YGPAVAFX_MODULE_STATE@@XZ ; AfxGetModuleState
; File D:\git\src\IBK\IBK_DRFN\ProjSrc\SrcChartEx\ChartAddIn\ChartDesignPropertyAddIn\Include_Chart\Dll_Load\IMetaTable.h

; 1032 : 		m_hInstance = AfxGetResourceHandle();

  0004d	8b 70 0c	 mov	 esi, DWORD PTR [eax+12]
  00050	89 75 d8	 mov	 DWORD PTR ___mlrs__$4[ebp], esi
; File C:\Program Files (x86)\Microsoft Visual Studio\2019\Community\VC\Tools\MSVC\14.29.30133\atlmfc\include\afxwin1.inl

; 27   : 	{ ASSERT(hInstResource != NULL); afxCurrentResourceHandle = hInstResource; }

  00053	e8 00 00 00 00	 call	 ?AfxGetModuleState@@YGPAVAFX_MODULE_STATE@@XZ ; AfxGetModuleState
  00058	89 78 0c	 mov	 DWORD PTR [eax+12], edi
; File D:\git\src\IBK\IBK_DRFN\ProjSrc\SrcChartEx\ChartAddIn\ChartDesignPropertyAddIn\ChartDesignPropertyAddIn\ToolandRButtonTabCtrl.cpp

; 59   : 		CString strColumnName;

  0005b	8d 4d dc	 lea	 ecx, DWORD PTR _strColumnName$5[ebp]
  0005e	c7 45 fc 00 00
	00 00		 mov	 DWORD PTR __$EHRec$[ebp+8], 0
  00065	ff 15 00 00 00
	00		 call	 DWORD PTR __imp_??0?$CStringT@DV?$StrTraitMFC_DLL@DV?$ChTraitsCRT@D@ATL@@@@@ATL@@QAE@XZ

; 60   : 		strColumnName.LoadString( IDS_TOOLBAR);

  0006b	68 6a 04 00 00	 push	 1130			; 0000046aH
  00070	8d 4d dc	 lea	 ecx, DWORD PTR _strColumnName$5[ebp]
  00073	c6 45 fc 01	 mov	 BYTE PTR __$EHRec$[ebp+8], 1
  00077	ff 15 00 00 00
	00		 call	 DWORD PTR __imp_?LoadStringA@?$CStringT@DV?$StrTraitMFC_DLL@DV?$ChTraitsCRT@D@ATL@@@@@ATL@@QAEHI@Z
; File C:\Program Files (x86)\Microsoft Visual Studio\2019\Community\VC\Tools\MSVC\14.29.30133\atlmfc\include\afxcmn.inl

; 576  : 	{ ASSERT(::IsWindow(m_hWnd)); return CTabCtrl::InsertItem(TCIF_TEXT, nItem, lpszItem, 0, 0); }

  0007d	6a 00		 push	 0
  0007f	6a 00		 push	 0
  00081	ff 75 dc	 push	 DWORD PTR _strColumnName$5[ebp]
  00084	8b cb		 mov	 ecx, ebx
  00086	6a 00		 push	 0
  00088	6a 01		 push	 1
  0008a	e8 00 00 00 00	 call	 ?InsertItem@CTabCtrl@@QAEJIHPBDHJ@Z ; CTabCtrl::InsertItem
; File D:\git\src\IBK\IBK_DRFN\ProjSrc\SrcChartEx\ChartAddIn\ChartDesignPropertyAddIn\ChartDesignPropertyAddIn\ToolandRButtonTabCtrl.cpp

; 62   : 		strColumnName.LoadString( IDS_NUMERICAL_INQUIRY);

  0008f	68 6b 04 00 00	 push	 1131			; 0000046bH
  00094	8d 4d dc	 lea	 ecx, DWORD PTR _strColumnName$5[ebp]
  00097	ff 15 00 00 00
	00		 call	 DWORD PTR __imp_?LoadStringA@?$CStringT@DV?$StrTraitMFC_DLL@DV?$ChTraitsCRT@D@ATL@@@@@ATL@@QAEHI@Z
; File C:\Program Files (x86)\Microsoft Visual Studio\2019\Community\VC\Tools\MSVC\14.29.30133\atlmfc\include\afxcmn.inl

; 576  : 	{ ASSERT(::IsWindow(m_hWnd)); return CTabCtrl::InsertItem(TCIF_TEXT, nItem, lpszItem, 0, 0); }

  0009d	6a 00		 push	 0
  0009f	6a 00		 push	 0
  000a1	ff 75 dc	 push	 DWORD PTR _strColumnName$5[ebp]
  000a4	8b cb		 mov	 ecx, ebx
  000a6	6a 01		 push	 1
  000a8	6a 01		 push	 1
  000aa	e8 00 00 00 00	 call	 ?InsertItem@CTabCtrl@@QAEJIHPBDHJ@Z ; CTabCtrl::InsertItem
; File D:\git\src\IBK\IBK_DRFN\ProjSrc\SrcChartEx\ChartAddIn\ChartDesignPropertyAddIn\ChartDesignPropertyAddIn\ToolandRButtonTabCtrl.cpp

; 64   : 	}

  000af	8d 4d dc	 lea	 ecx, DWORD PTR _strColumnName$5[ebp]
  000b2	ff 15 00 00 00
	00		 call	 DWORD PTR __imp_??1?$CStringT@DV?$StrTraitMFC_DLL@DV?$ChTraitsCRT@D@ATL@@@@@ATL@@QAE@XZ
; File D:\git\src\IBK\IBK_DRFN\ProjSrc\SrcChartEx\ChartAddIn\ChartDesignPropertyAddIn\Include_Chart\Dll_Load\IMetaTable.h

; 1036 : 	{

  000b8	c7 45 fc 02 00
	00 00		 mov	 DWORD PTR __$EHRec$[ebp+8], 2
; File C:\Program Files (x86)\Microsoft Visual Studio\2019\Community\VC\Tools\MSVC\14.29.30133\atlmfc\include\afxwin1.inl

; 27   : 	{ ASSERT(hInstResource != NULL); afxCurrentResourceHandle = hInstResource; }

  000bf	e8 00 00 00 00	 call	 ?AfxGetModuleState@@YGPAVAFX_MODULE_STATE@@XZ ; AfxGetModuleState
; File D:\git\src\IBK\IBK_DRFN\ProjSrc\SrcChartEx\ChartAddIn\ChartDesignPropertyAddIn\Include_Chart\Dll_Load\IMetaTable.h

; 1038 : 	}

  000c4	c7 45 fc ff ff
	ff ff		 mov	 DWORD PTR __$EHRec$[ebp+8], -1
; File C:\Program Files (x86)\Microsoft Visual Studio\2019\Community\VC\Tools\MSVC\14.29.30133\atlmfc\include\afxwin1.inl

; 27   : 	{ ASSERT(hInstResource != NULL); afxCurrentResourceHandle = hInstResource; }

  000cb	89 70 0c	 mov	 DWORD PTR [eax+12], esi
; File D:\git\src\IBK\IBK_DRFN\ProjSrc\SrcChartEx\ChartAddIn\ChartDesignPropertyAddIn\ChartDesignPropertyAddIn\ToolandRButtonTabCtrl.cpp

; 67   : 	ML_SET_LANGUAGE_RES();

  000ce	e8 00 00 00 00	 call	 ?AfxGetStaticModuleState@@YGPAVAFX_MODULE_STATE@@XZ ; AfxGetStaticModuleState
  000d3	b9 00 00 00 00	 mov	 ecx, OFFSET ?g_iMetaTable@@3VIMetaTable@@A ; g_iMetaTable
  000d8	8b 40 08	 mov	 eax, DWORD PTR [eax+8]
  000db	50		 push	 eax
  000dc	ff b3 70 01 00
	00		 push	 DWORD PTR [ebx+368]
  000e2	e8 00 00 00 00	 call	 ?LoadResourceDLL@IMetaTable@@QAEPAUHINSTANCE__@@PAUHWND__@@PAU2@@Z ; IMetaTable::LoadResourceDLL
  000e7	8b f0		 mov	 esi, eax
; File C:\Program Files (x86)\Microsoft Visual Studio\2019\Community\VC\Tools\MSVC\14.29.30133\atlmfc\include\afxwin1.inl

; 25   : 		return afxCurrentResourceHandle; }

  000e9	e8 00 00 00 00	 call	 ?AfxGetModuleState@@YGPAVAFX_MODULE_STATE@@XZ ; AfxGetModuleState
; File D:\git\src\IBK\IBK_DRFN\ProjSrc\SrcChartEx\ChartAddIn\ChartDesignPropertyAddIn\Include_Chart\Dll_Load\IMetaTable.h

; 1032 : 		m_hInstance = AfxGetResourceHandle();

  000ee	8b 78 0c	 mov	 edi, DWORD PTR [eax+12]
  000f1	89 7d dc	 mov	 DWORD PTR ___mlrs__$1$[ebp], edi
  000f4	89 7d d8	 mov	 DWORD PTR ___mlrs__$[ebp], edi
; File C:\Program Files (x86)\Microsoft Visual Studio\2019\Community\VC\Tools\MSVC\14.29.30133\atlmfc\include\afxwin1.inl

; 27   : 	{ ASSERT(hInstResource != NULL); afxCurrentResourceHandle = hInstResource; }

  000f7	e8 00 00 00 00	 call	 ?AfxGetModuleState@@YGPAVAFX_MODULE_STATE@@XZ ; AfxGetModuleState
  000fc	89 70 0c	 mov	 DWORD PTR [eax+12], esi
; File D:\git\src\IBK\IBK_DRFN\ProjSrc\SrcChartEx\ChartAddIn\ChartDesignPropertyAddIn\ChartDesignPropertyAddIn\ToolandRButtonTabCtrl.cpp

; 68   : 	for(int i = 0 ; i< m_nNumberOfPages ; i++) 

  000ff	83 bb ac 00 00
	00 00		 cmp	 DWORD PTR [ebx+172], 0
  00106	c7 45 fc 03 00
	00 00		 mov	 DWORD PTR __$EHRec$[ebp+8], 3
  0010d	7e 66		 jle	 SHORT $LN3@InitTab

; 54   : {

  0010f	8d b3 b0 00 00
	00		 lea	 esi, DWORD PTR [ebx+176]
  00115	33 ff		 xor	 edi, edi
$LL4@InitTab:

; 69   : 	{
; 70   : 		m_tabPages[i]->Create(IDD_DLG_TOOL_RBUTTON, this);

  00117	8b 0e		 mov	 ecx, DWORD PTR [esi]
  00119	53		 push	 ebx
  0011a	68 82 1b 00 00	 push	 7042			; 00001b82H
  0011f	8b 01		 mov	 eax, DWORD PTR [ecx]
  00121	ff 90 6c 01 00
	00		 call	 DWORD PTR [eax+364]

; 71   : 
; 72   : 		TCITEM tcItem;
; 73   : 		tcItem.mask = TCIF_TEXT;
; 74   : 		char szBuf[16];
; 75   : 		tcItem.pszText = szBuf;

  00127	8d 45 e0	 lea	 eax, DWORD PTR _szBuf$6[ebp]
  0012a	c7 45 b8 01 00
	00 00		 mov	 DWORD PTR _tcItem$2[ebp], 1
  00131	89 45 c4	 mov	 DWORD PTR _tcItem$2[ebp+12], eax
; File C:\Program Files (x86)\Microsoft Visual Studio\2019\Community\VC\Tools\MSVC\14.29.30133\atlmfc\include\afxcmn.inl

; 566  : 	{ ASSERT(::IsWindow(m_hWnd)); return (BOOL)::SendMessage(m_hWnd, TCM_GETITEM, nItem, (LPARAM)pTabCtrlItem); }

  00134	8d 45 b8	 lea	 eax, DWORD PTR _tcItem$2[ebp]
  00137	50		 push	 eax
  00138	57		 push	 edi
  00139	68 05 13 00 00	 push	 4869			; 00001305H
  0013e	ff 73 20	 push	 DWORD PTR [ebx+32]
; File D:\git\src\IBK\IBK_DRFN\ProjSrc\SrcChartEx\ChartAddIn\ChartDesignPropertyAddIn\ChartDesignPropertyAddIn\ToolandRButtonTabCtrl.cpp

; 76   : 		tcItem.cchTextMax = sizeof(szBuf);

  00141	c7 45 c8 10 00
	00 00		 mov	 DWORD PTR _tcItem$2[ebp+16], 16 ; 00000010H
; File C:\Program Files (x86)\Microsoft Visual Studio\2019\Community\VC\Tools\MSVC\14.29.30133\atlmfc\include\afxcmn.inl

; 566  : 	{ ASSERT(::IsWindow(m_hWnd)); return (BOOL)::SendMessage(m_hWnd, TCM_GETITEM, nItem, (LPARAM)pTabCtrlItem); }

  00148	ff 15 00 00 00
	00		 call	 DWORD PTR __imp__SendMessageA@16
; File D:\git\src\IBK\IBK_DRFN\ProjSrc\SrcChartEx\ChartAddIn\ChartDesignPropertyAddIn\ChartDesignPropertyAddIn\ToolandRButtonTabCtrl.cpp

; 79   : 		((CToolandRButtonDlgwithGrid_ListCtrl* )m_tabPages[i])->SetListItemInfoMgrObject(&m_ItemInfoManager, tcItem.pszText, &m_DlgNumericalInquiryOption);

  0014e	8b 0e		 mov	 ecx, DWORD PTR [esi]
  00150	8d 83 c0 00 00
	00		 lea	 eax, DWORD PTR [ebx+192]
  00156	50		 push	 eax
  00157	ff 75 c4	 push	 DWORD PTR _tcItem$2[ebp+12]
  0015a	8d 83 84 00 00
	00		 lea	 eax, DWORD PTR [ebx+132]
  00160	50		 push	 eax
  00161	e8 00 00 00 00	 call	 ?SetListItemInfoMgrObject@CToolandRButtonDlgwithGrid_ListCtrl@@QAEXPAVCToolandRButtonItemMgr@@PBDPAVCNumericalInquiryOptionDlg@@@Z ; CToolandRButtonDlgwithGrid_ListCtrl::SetListItemInfoMgrObject
  00166	47		 inc	 edi
  00167	8d 76 04	 lea	 esi, DWORD PTR [esi+4]
  0016a	3b bb ac 00 00
	00		 cmp	 edi, DWORD PTR [ebx+172]
  00170	7c a5		 jl	 SHORT $LL4@InitTab
  00172	8b 7d dc	 mov	 edi, DWORD PTR ___mlrs__$1$[ebp]
$LN3@InitTab:

; 80   : 	}
; 81   : 
; 82   : 	// (2009/9/23 - Seung-Won, Bae) Use '{}' for ML_SET_LANGUAGE_RES()'s re-using.
; 83   : 	{
; 84   : 		ML_SET_LANGUAGE_RES();

  00175	e8 00 00 00 00	 call	 ?AfxGetStaticModuleState@@YGPAVAFX_MODULE_STATE@@XZ ; AfxGetStaticModuleState
  0017a	b9 00 00 00 00	 mov	 ecx, OFFSET ?g_iMetaTable@@3VIMetaTable@@A ; g_iMetaTable
  0017f	8b 40 08	 mov	 eax, DWORD PTR [eax+8]
  00182	50		 push	 eax
  00183	ff b3 70 01 00
	00		 push	 DWORD PTR [ebx+368]
  00189	e8 00 00 00 00	 call	 ?LoadResourceDLL@IMetaTable@@QAEPAUHINSTANCE__@@PAUHWND__@@PAU2@@Z ; IMetaTable::LoadResourceDLL
  0018e	89 45 dc	 mov	 DWORD PTR _p_hResource$1$[ebp], eax
; File C:\Program Files (x86)\Microsoft Visual Studio\2019\Community\VC\Tools\MSVC\14.29.30133\atlmfc\include\afxwin1.inl

; 25   : 		return afxCurrentResourceHandle; }

  00191	e8 00 00 00 00	 call	 ?AfxGetModuleState@@YGPAVAFX_MODULE_STATE@@XZ ; AfxGetModuleState
; File D:\git\src\IBK\IBK_DRFN\ProjSrc\SrcChartEx\ChartAddIn\ChartDesignPropertyAddIn\Include_Chart\Dll_Load\IMetaTable.h

; 1032 : 		m_hInstance = AfxGetResourceHandle();

  00196	8b 70 0c	 mov	 esi, DWORD PTR [eax+12]
  00199	89 75 d4	 mov	 DWORD PTR ___mlrs__$3[ebp], esi
; File C:\Program Files (x86)\Microsoft Visual Studio\2019\Community\VC\Tools\MSVC\14.29.30133\atlmfc\include\afxwin1.inl

; 27   : 	{ ASSERT(hInstResource != NULL); afxCurrentResourceHandle = hInstResource; }

  0019c	e8 00 00 00 00	 call	 ?AfxGetModuleState@@YGPAVAFX_MODULE_STATE@@XZ ; AfxGetModuleState
  001a1	8b 4d dc	 mov	 ecx, DWORD PTR _p_hResource$1$[ebp]
  001a4	89 48 0c	 mov	 DWORD PTR [eax+12], ecx
; File D:\git\src\IBK\IBK_DRFN\ProjSrc\SrcChartEx\ChartAddIn\ChartDesignPropertyAddIn\ChartDesignPropertyAddIn\ToolandRButtonTabCtrl.cpp

; 85   : 		m_DlgNumericalInquiryOption.Create(IDD_DIALOG_NUMERICALINQUIRYOPTION, this);

  001a7	8b 83 c0 00 00
	00		 mov	 eax, DWORD PTR [ebx+192]
  001ad	8d 8b c0 00 00
	00		 lea	 ecx, DWORD PTR [ebx+192]
  001b3	53		 push	 ebx
  001b4	68 8b 1b 00 00	 push	 7051			; 00001b8bH
  001b9	c6 45 fc 04	 mov	 BYTE PTR __$EHRec$[ebp+8], 4
  001bd	ff 90 6c 01 00
	00		 call	 DWORD PTR [eax+364]
; File D:\git\src\IBK\IBK_DRFN\ProjSrc\SrcChartEx\ChartAddIn\ChartDesignPropertyAddIn\Include_Chart\Dll_Load\IMetaTable.h

; 1036 : 	{

  001c3	c6 45 fc 05	 mov	 BYTE PTR __$EHRec$[ebp+8], 5
; File C:\Program Files (x86)\Microsoft Visual Studio\2019\Community\VC\Tools\MSVC\14.29.30133\atlmfc\include\afxwin1.inl

; 27   : 	{ ASSERT(hInstResource != NULL); afxCurrentResourceHandle = hInstResource; }

  001c7	e8 00 00 00 00	 call	 ?AfxGetModuleState@@YGPAVAFX_MODULE_STATE@@XZ ; AfxGetModuleState
  001cc	89 70 0c	 mov	 DWORD PTR [eax+12], esi
; File D:\git\src\IBK\IBK_DRFN\ProjSrc\SrcChartEx\ChartAddIn\ChartDesignPropertyAddIn\Include_Chart\Dll_Load\IMetaTable.h

; 1036 : 	{

  001cf	c7 45 fc 06 00
	00 00		 mov	 DWORD PTR __$EHRec$[ebp+8], 6
; File C:\Program Files (x86)\Microsoft Visual Studio\2019\Community\VC\Tools\MSVC\14.29.30133\atlmfc\include\afxwin1.inl

; 27   : 	{ ASSERT(hInstResource != NULL); afxCurrentResourceHandle = hInstResource; }

  001d6	e8 00 00 00 00	 call	 ?AfxGetModuleState@@YGPAVAFX_MODULE_STATE@@XZ ; AfxGetModuleState
  001db	89 78 0c	 mov	 DWORD PTR [eax+12], edi
; File D:\git\src\IBK\IBK_DRFN\ProjSrc\SrcChartEx\ChartAddIn\ChartDesignPropertyAddIn\ChartDesignPropertyAddIn\ToolandRButtonTabCtrl.cpp

; 88   : }

  001de	8b 4d f4	 mov	 ecx, DWORD PTR __$EHRec$[ebp]
  001e1	64 89 0d 00 00
	00 00		 mov	 DWORD PTR fs:0, ecx
  001e8	59		 pop	 ecx
  001e9	5f		 pop	 edi
  001ea	5e		 pop	 esi
  001eb	5b		 pop	 ebx
  001ec	8b 4d f0	 mov	 ecx, DWORD PTR __$ArrayPad$[ebp]
  001ef	33 cd		 xor	 ecx, ebp
  001f1	e8 00 00 00 00	 call	 @__security_check_cookie@4
  001f6	8b e5		 mov	 esp, ebp
  001f8	5d		 pop	 ebp
  001f9	c3		 ret	 0
_TEXT	ENDS
;	COMDAT text$x
text$x	SEGMENT
__unwindfunclet$?InitTab@CToolandRButtonTabCtrl@@QAEXXZ$0:
  00000	8d 4d d8	 lea	 ecx, DWORD PTR ___mlrs__$4[ebp]
  00003	e9 00 00 00 00	 jmp	 ??1CMultiLanguageResourceSetter@@QAE@XZ ; CMultiLanguageResourceSetter::~CMultiLanguageResourceSetter
__unwindfunclet$?InitTab@CToolandRButtonTabCtrl@@QAEXXZ$1:
  00008	8d 4d dc	 lea	 ecx, DWORD PTR _strColumnName$5[ebp]
  0000b	ff 25 00 00 00
	00		 jmp	 DWORD PTR __imp_??1?$CStringT@DV?$StrTraitMFC_DLL@DV?$ChTraitsCRT@D@ATL@@@@@ATL@@QAE@XZ
__unwindfunclet$?InitTab@CToolandRButtonTabCtrl@@QAEXXZ$2:
  00011	8d 4d d8	 lea	 ecx, DWORD PTR ___mlrs__$[ebp]
  00014	e9 00 00 00 00	 jmp	 ??1CMultiLanguageResourceSetter@@QAE@XZ ; CMultiLanguageResourceSetter::~CMultiLanguageResourceSetter
__unwindfunclet$?InitTab@CToolandRButtonTabCtrl@@QAEXXZ$3:
  00019	8d 4d d4	 lea	 ecx, DWORD PTR ___mlrs__$3[ebp]
  0001c	e9 00 00 00 00	 jmp	 ??1CMultiLanguageResourceSetter@@QAE@XZ ; CMultiLanguageResourceSetter::~CMultiLanguageResourceSetter
  00021	cc		 int	 3
  00022	cc		 int	 3
  00023	cc		 int	 3
  00024	cc		 int	 3
  00025	cc		 int	 3
__ehhandler$?InitTab@CToolandRButtonTabCtrl@@QAEXXZ:
  00026	90		 npad	 1
  00027	90		 npad	 1
  00028	8b 54 24 08	 mov	 edx, DWORD PTR [esp+8]
  0002c	8d 42 0c	 lea	 eax, DWORD PTR [edx+12]
  0002f	8b 4a b4	 mov	 ecx, DWORD PTR [edx-76]
  00032	33 c8		 xor	 ecx, eax
  00034	e8 00 00 00 00	 call	 @__security_check_cookie@4
  00039	8b 4a fc	 mov	 ecx, DWORD PTR [edx-4]
  0003c	33 c8		 xor	 ecx, eax
  0003e	e8 00 00 00 00	 call	 @__security_check_cookie@4
  00043	b8 00 00 00 00	 mov	 eax, OFFSET __ehfuncinfo$?InitTab@CToolandRButtonTabCtrl@@QAEXXZ
  00048	e9 00 00 00 00	 jmp	 ___CxxFrameHandler3
text$x	ENDS
?InitTab@CToolandRButtonTabCtrl@@QAEXXZ ENDP		; CToolandRButtonTabCtrl::InitTab
; Function compile flags: /Ogtp
; File D:\git\src\IBK\IBK_DRFN\ProjSrc\SrcChartEx\ChartAddIn\ChartDesignPropertyAddIn\ChartDesignPropertyAddIn\ToolandRButtonTabCtrl.cpp
;	COMDAT ?InitDropTarget@CToolandRButtonTabCtrl@@QAEXXZ
_TEXT	SEGMENT
?InitDropTarget@CToolandRButtonTabCtrl@@QAEXXZ PROC	; CToolandRButtonTabCtrl::InitDropTarget, COMDAT
; _this$ = ecx

; 146  : {

  00000	53		 push	 ebx
  00001	8b d9		 mov	 ebx, ecx
  00003	56		 push	 esi

; 147  : 	for(int nCount = 0; nCount < m_nNumberOfPages; nCount++) {

  00004	33 f6		 xor	 esi, esi
  00006	39 b3 ac 00 00
	00		 cmp	 DWORD PTR [ebx+172], esi
  0000c	7e 1b		 jle	 SHORT $LN3@InitDropTa
  0000e	57		 push	 edi
  0000f	8d bb b0 00 00
	00		 lea	 edi, DWORD PTR [ebx+176]
$LL4@InitDropTa:

; 148  : 		((CToolandRButtonDlgwithGrid_ListCtrl* )m_tabPages[nCount])->InitDropTarget();

  00015	8b 0f		 mov	 ecx, DWORD PTR [edi]
  00017	e8 00 00 00 00	 call	 ?InitDropTarget@CToolandRButtonDlgwithGrid_ListCtrl@@QAEXXZ ; CToolandRButtonDlgwithGrid_ListCtrl::InitDropTarget
  0001c	46		 inc	 esi
  0001d	8d 7f 04	 lea	 edi, DWORD PTR [edi+4]
  00020	3b b3 ac 00 00
	00		 cmp	 esi, DWORD PTR [ebx+172]
  00026	7c ed		 jl	 SHORT $LL4@InitDropTa
  00028	5f		 pop	 edi
$LN3@InitDropTa:
  00029	5e		 pop	 esi

; 149  : 	}
; 150  : }

  0002a	5b		 pop	 ebx
  0002b	c3		 ret	 0
?InitDropTarget@CToolandRButtonTabCtrl@@QAEXXZ ENDP	; CToolandRButtonTabCtrl::InitDropTarget
_TEXT	ENDS
; Function compile flags: /Ogtp
; File D:\git\src\IBK\IBK_DRFN\ProjSrc\SrcChartEx\ChartAddIn\ChartDesignPropertyAddIn\ChartDesignPropertyAddIn\ToolandRButtonTabCtrl.cpp
;	COMDAT ?GetNumericalInquiryOption@CToolandRButtonTabCtrl@@QAEHXZ
_TEXT	SEGMENT
?GetNumericalInquiryOption@CToolandRButtonTabCtrl@@QAEHXZ PROC ; CToolandRButtonTabCtrl::GetNumericalInquiryOption, COMDAT
; _this$ = ecx

; 181  : 	return m_DlgNumericalInquiryOption.GetNumericalInquiryOption();

  00000	81 c1 c0 00 00
	00		 add	 ecx, 192		; 000000c0H
  00006	e9 00 00 00 00	 jmp	 ?GetNumericalInquiryOption@CNumericalInquiryOptionDlg@@QAEHXZ ; CNumericalInquiryOptionDlg::GetNumericalInquiryOption
?GetNumericalInquiryOption@CToolandRButtonTabCtrl@@QAEHXZ ENDP ; CToolandRButtonTabCtrl::GetNumericalInquiryOption
_TEXT	ENDS
; Function compile flags: /Ogtp
; File D:\git\src\IBK\IBK_DRFN\ProjSrc\SrcChartEx\ChartAddIn\ChartDesignPropertyAddIn\ChartDesignPropertyAddIn\ToolandRButtonTabCtrl.cpp
; File C:\Program Files (x86)\Microsoft Visual Studio\2019\Community\VC\Tools\MSVC\14.29.30133\atlmfc\include\cstringt.h
; File D:\git\src\IBK\IBK_DRFN\ProjSrc\SrcChartEx\ChartAddIn\ChartDesignPropertyAddIn\ChartDesignPropertyAddIn\ToolandRButtonTabCtrl.cpp
; File C:\Program Files (x86)\Microsoft Visual Studio\2019\Community\VC\Tools\MSVC\14.29.30133\atlmfc\include\cstringt.h
; File C:\Program Files (x86)\Microsoft Visual Studio\2019\Community\VC\Tools\MSVC\14.29.30133\atlmfc\include\atlsimpstr.h
; File C:\Program Files (x86)\Microsoft Visual Studio\2019\Community\VC\Tools\MSVC\14.29.30133\atlmfc\include\cstringt.h
; File D:\git\src\IBK\IBK_DRFN\ProjSrc\SrcChartEx\ChartAddIn\ChartDesignPropertyAddIn\ChartDesignPropertyAddIn\ToolandRButtonTabCtrl.cpp
; File C:\Program Files (x86)\Microsoft Visual Studio\2019\Community\VC\Tools\MSVC\14.29.30133\atlmfc\include\cstringt.h
; File D:\git\src\IBK\IBK_DRFN\ProjSrc\SrcChartEx\ChartAddIn\ChartDesignPropertyAddIn\ChartDesignPropertyAddIn\ToolandRButtonTabCtrl.cpp
; File C:\Program Files (x86)\Microsoft Visual Studio\2019\Community\VC\Tools\MSVC\14.29.30133\atlmfc\include\cstringt.h
; File D:\git\src\IBK\IBK_DRFN\ProjSrc\SrcChartEx\ChartAddIn\ChartDesignPropertyAddIn\ChartDesignPropertyAddIn\ToolandRButtonTabCtrl.cpp
; File C:\Program Files (x86)\Microsoft Visual Studio\2019\Community\VC\Tools\MSVC\14.29.30133\atlmfc\include\cstringt.h
; File C:\Program Files (x86)\Microsoft Visual Studio\2019\Community\VC\Tools\MSVC\14.29.30133\atlmfc\include\atlsimpstr.h
; File C:\Program Files (x86)\Microsoft Visual Studio\2019\Community\VC\Tools\MSVC\14.29.30133\atlmfc\include\cstringt.h
; File D:\git\src\IBK\IBK_DRFN\ProjSrc\SrcChartEx\ChartAddIn\ChartDesignPropertyAddIn\ChartDesignPropertyAddIn\ToolandRButtonTabCtrl.cpp
; File C:\Program Files (x86)\Microsoft Visual Studio\2019\Community\VC\Tools\MSVC\14.29.30133\atlmfc\include\cstringt.h
; File D:\git\src\IBK\IBK_DRFN\ProjSrc\SrcChartEx\ChartAddIn\ChartDesignPropertyAddIn\ChartDesignPropertyAddIn\ToolandRButtonTabCtrl.cpp
; File C:\Program Files (x86)\Microsoft Visual Studio\2019\Community\VC\Tools\MSVC\14.29.30133\atlmfc\include\afxwin2.inl
; File D:\git\src\IBK\IBK_DRFN\ProjSrc\SrcChartEx\ChartAddIn\ChartDesignPropertyAddIn\ChartDesignPropertyAddIn\ToolandRButtonTabCtrl.cpp
; File C:\Program Files (x86)\Microsoft Visual Studio\2019\Community\VC\Tools\MSVC\14.29.30133\atlmfc\include\cstringt.h
; File D:\git\src\IBK\IBK_DRFN\ProjSrc\SrcChartEx\ChartAddIn\ChartDesignPropertyAddIn\ChartDesignPropertyAddIn\ToolandRButtonTabCtrl.cpp
; File C:\Program Files (x86)\Microsoft Visual Studio\2019\Community\VC\Tools\MSVC\14.29.30133\atlmfc\include\cstringt.h
; File C:\Program Files (x86)\Microsoft Visual Studio\2019\Community\VC\Tools\MSVC\14.29.30133\atlmfc\include\atlsimpstr.h
; File C:\Program Files (x86)\Microsoft Visual Studio\2019\Community\VC\Tools\MSVC\14.29.30133\atlmfc\include\cstringt.h
; File D:\git\src\IBK\IBK_DRFN\ProjSrc\SrcChartEx\ChartAddIn\ChartDesignPropertyAddIn\ChartDesignPropertyAddIn\ToolandRButtonTabCtrl.cpp
; File C:\Program Files (x86)\Microsoft Visual Studio\2019\Community\VC\Tools\MSVC\14.29.30133\atlmfc\include\cstringt.h
; File D:\git\src\IBK\IBK_DRFN\ProjSrc\SrcChartEx\ChartAddIn\ChartDesignPropertyAddIn\ChartDesignPropertyAddIn\ToolandRButtonTabCtrl.cpp
;	COMDAT ?GetListItemInfo@CToolandRButtonTabCtrl@@QAE?AV?$CStringT@DV?$StrTraitMFC_DLL@DV?$ChTraitsCRT@D@ATL@@@@@ATL@@XZ
_TEXT	SEGMENT
$T2 = -48						; size = 4
$T3 = -44						; size = 4
$T4 = -40						; size = 4
$T5 = -36						; size = 4
$T6 = -32						; size = 4
$T7 = -28						; size = 4
$T8 = -24						; size = 4
_this$1$ = -20						; size = 4
$T9 = -16						; size = 4
__$EHRec$ = -12						; size = 12
___$ReturnUdt$ = 8					; size = 4
?GetListItemInfo@CToolandRButtonTabCtrl@@QAE?AV?$CStringT@DV?$StrTraitMFC_DLL@DV?$ChTraitsCRT@D@ATL@@@@@ATL@@XZ PROC ; CToolandRButtonTabCtrl::GetListItemInfo, COMDAT
; _this$ = ecx

; 153  : {

  00000	55		 push	 ebp
  00001	8b ec		 mov	 ebp, esp
  00003	6a ff		 push	 -1
  00005	68 00 00 00 00	 push	 __ehhandler$?GetListItemInfo@CToolandRButtonTabCtrl@@QAE?AV?$CStringT@DV?$StrTraitMFC_DLL@DV?$ChTraitsCRT@D@ATL@@@@@ATL@@XZ
  0000a	64 a1 00 00 00
	00		 mov	 eax, DWORD PTR fs:0
  00010	50		 push	 eax
  00011	83 ec 24	 sub	 esp, 36			; 00000024H
  00014	53		 push	 ebx
  00015	56		 push	 esi
  00016	57		 push	 edi
  00017	a1 00 00 00 00	 mov	 eax, DWORD PTR ___security_cookie
  0001c	33 c5		 xor	 eax, ebp
  0001e	50		 push	 eax
  0001f	8d 45 f4	 lea	 eax, DWORD PTR __$EHRec$[ebp]
  00022	64 a3 00 00 00
	00		 mov	 DWORD PTR fs:0, eax
  00028	89 4d ec	 mov	 DWORD PTR _this$1$[ebp], ecx
  0002b	c7 45 f0 00 00
	00 00		 mov	 DWORD PTR $T9[ebp], 0

; 154  : 	CString strValue = "";

  00032	8b 7d 08	 mov	 edi, DWORD PTR ___$ReturnUdt$[ebp]
  00035	8b cf		 mov	 ecx, edi
  00037	68 00 00 00 00	 push	 OFFSET ??_C@_00CNPNBAHC@@
  0003c	c7 45 fc 00 00
	00 00		 mov	 DWORD PTR __$EHRec$[ebp+8], 0
  00043	ff 15 00 00 00
	00		 call	 DWORD PTR __imp_??0?$CStringT@DV?$StrTraitMFC_DLL@DV?$ChTraitsCRT@D@ATL@@@@@ATL@@QAE@PBD@Z

; 168  : 		}
; 169  : 	}
; 170  : 	return strValue;

  00049	8b 4d ec	 mov	 ecx, DWORD PTR _this$1$[ebp]
  0004c	bb 01 00 00 00	 mov	 ebx, 1
  00051	33 f6		 xor	 esi, esi
  00053	c7 45 fc 00 00
	00 00		 mov	 DWORD PTR __$EHRec$[ebp+8], 0
  0005a	89 5d f0	 mov	 DWORD PTR $T9[ebp], ebx
  0005d	8b 81 ac 00 00
	00		 mov	 eax, DWORD PTR [ecx+172]
  00063	40		 inc	 eax
  00064	85 c0		 test	 eax, eax
  00066	0f 8e e9 01 00
	00		 jle	 $LN64@GetListIte
  0006c	8b c1		 mov	 eax, ecx
  0006e	66 90		 npad	 2
$LL4@GetListIte:

; 157  : 	{
; 158  : 		if(nCount == 0)

  00070	85 f6		 test	 esi, esi
  00072	0f 85 a4 00 00
	00		 jne	 $LN5@GetListIte

; 160  : 			strValue += CString( _MTEXT( C4_INNER_TOOL_OPTION)) + "\r\n";

  00078	a1 54 00 00 00	 mov	 eax, DWORD PTR ?g_iMetaTable@@3VIMetaTable@@A+84
  0007d	8d 4d dc	 lea	 ecx, DWORD PTR $T5[ebp]
  00080	ff b0 50 0e 00
	00		 push	 DWORD PTR [eax+3664]
  00086	ff 15 00 00 00
	00		 call	 DWORD PTR __imp_??0?$CStringT@DV?$StrTraitMFC_DLL@DV?$ChTraitsCRT@D@ATL@@@@@ATL@@QAE@PBD@Z
  0008c	8b f8		 mov	 edi, eax
; File C:\Program Files (x86)\Microsoft Visual Studio\2019\Community\VC\Tools\MSVC\14.29.30133\atlmfc\include\cstringt.h

; 2401 : 		CStringT strResult( str1.GetManager() );

  0008e	8b cf		 mov	 ecx, edi
; File D:\git\src\IBK\IBK_DRFN\ProjSrc\SrcChartEx\ChartAddIn\ChartDesignPropertyAddIn\ChartDesignPropertyAddIn\ToolandRButtonTabCtrl.cpp

; 160  : 			strValue += CString( _MTEXT( C4_INNER_TOOL_OPTION)) + "\r\n";

  00090	c7 45 fc 02 00
	00 00		 mov	 DWORD PTR __$EHRec$[ebp+8], 2
; File C:\Program Files (x86)\Microsoft Visual Studio\2019\Community\VC\Tools\MSVC\14.29.30133\atlmfc\include\cstringt.h

; 2401 : 		CStringT strResult( str1.GetManager() );

  00097	ff 15 00 00 00
	00		 call	 DWORD PTR __imp_?GetManager@?$CStringT@DV?$StrTraitMFC_DLL@DV?$ChTraitsCRT@D@ATL@@@@@ATL@@QBEPAUIAtlStringMgr@2@XZ
  0009d	50		 push	 eax
  0009e	8d 4d e8	 lea	 ecx, DWORD PTR $T8[ebp]
  000a1	ff 15 00 00 00
	00		 call	 DWORD PTR __imp_??0?$CStringT@DV?$StrTraitMFC_DLL@DV?$ChTraitsCRT@D@ATL@@@@@ATL@@QAE@PAUIAtlStringMgr@1@@Z
; File C:\Program Files (x86)\Microsoft Visual Studio\2019\Community\VC\Tools\MSVC\14.29.30133\atlmfc\include\atlsimpstr.h

; 519  : 		return( GetData()->nDataLength );

  000a7	8b 07		 mov	 eax, DWORD PTR [edi]
; File C:\Program Files (x86)\Microsoft Visual Studio\2019\Community\VC\Tools\MSVC\14.29.30133\atlmfc\include\cstringt.h

; 2405 : 		return( strResult );

  000a9	83 cb 02	 or	 ebx, 2
  000ac	6a 02		 push	 2
  000ae	68 00 00 00 00	 push	 OFFSET ??_C@_02PCIJFNDE@?$AN?6@
  000b3	89 5d f0	 mov	 DWORD PTR $T9[ebp], ebx
  000b6	ff 70 f4	 push	 DWORD PTR [eax-12]
  000b9	50		 push	 eax
  000ba	8d 45 e8	 lea	 eax, DWORD PTR $T8[ebp]
  000bd	50		 push	 eax
  000be	ff 15 00 00 00
	00		 call	 DWORD PTR __imp_?Concatenate@?$CSimpleStringT@D$00@ATL@@KAXAAV12@PBDH1H@Z
; File D:\git\src\IBK\IBK_DRFN\ProjSrc\SrcChartEx\ChartAddIn\ChartDesignPropertyAddIn\ChartDesignPropertyAddIn\ToolandRButtonTabCtrl.cpp

; 160  : 			strValue += CString( _MTEXT( C4_INNER_TOOL_OPTION)) + "\r\n";

  000c4	8b 7d 08	 mov	 edi, DWORD PTR ___$ReturnUdt$[ebp]
  000c7	8d 45 e8	 lea	 eax, DWORD PTR $T8[ebp]
; File C:\Program Files (x86)\Microsoft Visual Studio\2019\Community\VC\Tools\MSVC\14.29.30133\atlmfc\include\cstringt.h

; 2403 : 		CThisSimpleString::Concatenate( strResult, str1, str1.GetLength(), psz2, CThisSimpleString::StringLength( psz2 ) );

  000ca	83 c4 14	 add	 esp, 20			; 00000014H
; File D:\git\src\IBK\IBK_DRFN\ProjSrc\SrcChartEx\ChartAddIn\ChartDesignPropertyAddIn\ChartDesignPropertyAddIn\ToolandRButtonTabCtrl.cpp

; 160  : 			strValue += CString( _MTEXT( C4_INNER_TOOL_OPTION)) + "\r\n";

  000cd	8b cf		 mov	 ecx, edi
  000cf	50		 push	 eax
  000d0	ff 15 00 00 00
	00		 call	 DWORD PTR __imp_??Y?$CStringT@DV?$StrTraitMFC_DLL@DV?$ChTraitsCRT@D@ATL@@@@@ATL@@QAEAAV01@ABV?$CSimpleStringT@D$00@1@@Z
  000d6	83 e3 fd	 and	 ebx, -3			; fffffffdH
  000d9	8d 4d e8	 lea	 ecx, DWORD PTR $T8[ebp]
  000dc	89 5d f0	 mov	 DWORD PTR $T9[ebp], ebx
  000df	ff 15 00 00 00
	00		 call	 DWORD PTR __imp_??1?$CStringT@DV?$StrTraitMFC_DLL@DV?$ChTraitsCRT@D@ATL@@@@@ATL@@QAE@XZ
  000e5	8d 4d dc	 lea	 ecx, DWORD PTR $T5[ebp]
  000e8	c6 45 fc 00	 mov	 BYTE PTR __$EHRec$[ebp+8], 0
  000ec	ff 15 00 00 00
	00		 call	 DWORD PTR __imp_??1?$CStringT@DV?$StrTraitMFC_DLL@DV?$ChTraitsCRT@D@ATL@@@@@ATL@@QAE@XZ

; 161  : 			strValue += ((CToolandRButtonDlgwithGrid_ListCtrl* )m_tabPages[nCount])->GetListItemInfo();

  000f2	8b 4d ec	 mov	 ecx, DWORD PTR _this$1$[ebp]
  000f5	8d 45 d8	 lea	 eax, DWORD PTR $T4[ebp]
  000f8	50		 push	 eax
  000f9	8b 89 b0 00 00
	00		 mov	 ecx, DWORD PTR [ecx+176]
  000ff	e8 00 00 00 00	 call	 ?GetListItemInfo@CToolandRButtonDlgwithGrid_ListCtrl@@QAE?AV?$CStringT@DV?$StrTraitMFC_DLL@DV?$ChTraitsCRT@D@ATL@@@@@ATL@@XZ ; CToolandRButtonDlgwithGrid_ListCtrl::GetListItemInfo
  00104	50		 push	 eax
  00105	8b cf		 mov	 ecx, edi
  00107	c7 45 fc 03 00
	00 00		 mov	 DWORD PTR __$EHRec$[ebp+8], 3
  0010e	ff 15 00 00 00
	00		 call	 DWORD PTR __imp_??Y?$CStringT@DV?$StrTraitMFC_DLL@DV?$ChTraitsCRT@D@ATL@@@@@ATL@@QAEAAV01@ABV?$CSimpleStringT@D$00@1@@Z
  00114	8d 4d d8	 lea	 ecx, DWORD PTR $T4[ebp]

; 162  : 		}

  00117	e9 1c 01 00 00	 jmp	 $LN67@GetListIte
$LN5@GetListIte:

; 163  : 		else if(nCount == 1)

  0011c	83 fe 01	 cmp	 esi, 1
  0011f	0f 85 20 01 00
	00		 jne	 $LN2@GetListIte

; 165  : 			strValue += CString( _MTEXT( C4_OUTER_TOOL_OPTION)) + "\r\n";

  00125	a1 54 00 00 00	 mov	 eax, DWORD PTR ?g_iMetaTable@@3VIMetaTable@@A+84
  0012a	8d 4d d4	 lea	 ecx, DWORD PTR $T3[ebp]
  0012d	ff b0 54 0e 00
	00		 push	 DWORD PTR [eax+3668]
  00133	ff 15 00 00 00
	00		 call	 DWORD PTR __imp_??0?$CStringT@DV?$StrTraitMFC_DLL@DV?$ChTraitsCRT@D@ATL@@@@@ATL@@QAE@PBD@Z
  00139	8b f8		 mov	 edi, eax
; File C:\Program Files (x86)\Microsoft Visual Studio\2019\Community\VC\Tools\MSVC\14.29.30133\atlmfc\include\cstringt.h

; 2401 : 		CStringT strResult( str1.GetManager() );

  0013b	8b cf		 mov	 ecx, edi
; File D:\git\src\IBK\IBK_DRFN\ProjSrc\SrcChartEx\ChartAddIn\ChartDesignPropertyAddIn\ChartDesignPropertyAddIn\ToolandRButtonTabCtrl.cpp

; 165  : 			strValue += CString( _MTEXT( C4_OUTER_TOOL_OPTION)) + "\r\n";

  0013d	c7 45 fc 05 00
	00 00		 mov	 DWORD PTR __$EHRec$[ebp+8], 5
; File C:\Program Files (x86)\Microsoft Visual Studio\2019\Community\VC\Tools\MSVC\14.29.30133\atlmfc\include\cstringt.h

; 2401 : 		CStringT strResult( str1.GetManager() );

  00144	ff 15 00 00 00
	00		 call	 DWORD PTR __imp_?GetManager@?$CStringT@DV?$StrTraitMFC_DLL@DV?$ChTraitsCRT@D@ATL@@@@@ATL@@QBEPAUIAtlStringMgr@2@XZ
  0014a	50		 push	 eax
  0014b	8d 4d e4	 lea	 ecx, DWORD PTR $T7[ebp]
  0014e	ff 15 00 00 00
	00		 call	 DWORD PTR __imp_??0?$CStringT@DV?$StrTraitMFC_DLL@DV?$ChTraitsCRT@D@ATL@@@@@ATL@@QAE@PAUIAtlStringMgr@1@@Z
; File C:\Program Files (x86)\Microsoft Visual Studio\2019\Community\VC\Tools\MSVC\14.29.30133\atlmfc\include\atlsimpstr.h

; 519  : 		return( GetData()->nDataLength );

  00154	8b 07		 mov	 eax, DWORD PTR [edi]
; File C:\Program Files (x86)\Microsoft Visual Studio\2019\Community\VC\Tools\MSVC\14.29.30133\atlmfc\include\cstringt.h

; 2405 : 		return( strResult );

  00156	83 cb 04	 or	 ebx, 4
  00159	6a 02		 push	 2
  0015b	68 00 00 00 00	 push	 OFFSET ??_C@_02PCIJFNDE@?$AN?6@
  00160	89 5d f0	 mov	 DWORD PTR $T9[ebp], ebx
  00163	ff 70 f4	 push	 DWORD PTR [eax-12]
  00166	50		 push	 eax
  00167	8d 45 e4	 lea	 eax, DWORD PTR $T7[ebp]
  0016a	50		 push	 eax
  0016b	ff 15 00 00 00
	00		 call	 DWORD PTR __imp_?Concatenate@?$CSimpleStringT@D$00@ATL@@KAXAAV12@PBDH1H@Z
; File D:\git\src\IBK\IBK_DRFN\ProjSrc\SrcChartEx\ChartAddIn\ChartDesignPropertyAddIn\ChartDesignPropertyAddIn\ToolandRButtonTabCtrl.cpp

; 165  : 			strValue += CString( _MTEXT( C4_OUTER_TOOL_OPTION)) + "\r\n";

  00171	8b 7d 08	 mov	 edi, DWORD PTR ___$ReturnUdt$[ebp]
  00174	8d 45 e4	 lea	 eax, DWORD PTR $T7[ebp]
; File C:\Program Files (x86)\Microsoft Visual Studio\2019\Community\VC\Tools\MSVC\14.29.30133\atlmfc\include\cstringt.h

; 2403 : 		CThisSimpleString::Concatenate( strResult, str1, str1.GetLength(), psz2, CThisSimpleString::StringLength( psz2 ) );

  00177	83 c4 14	 add	 esp, 20			; 00000014H
; File D:\git\src\IBK\IBK_DRFN\ProjSrc\SrcChartEx\ChartAddIn\ChartDesignPropertyAddIn\ChartDesignPropertyAddIn\ToolandRButtonTabCtrl.cpp

; 165  : 			strValue += CString( _MTEXT( C4_OUTER_TOOL_OPTION)) + "\r\n";

  0017a	8b cf		 mov	 ecx, edi
  0017c	50		 push	 eax
  0017d	ff 15 00 00 00
	00		 call	 DWORD PTR __imp_??Y?$CStringT@DV?$StrTraitMFC_DLL@DV?$ChTraitsCRT@D@ATL@@@@@ATL@@QAEAAV01@ABV?$CSimpleStringT@D$00@1@@Z
  00183	83 e3 fb	 and	 ebx, -5			; fffffffbH
  00186	8d 4d e4	 lea	 ecx, DWORD PTR $T7[ebp]
  00189	89 5d f0	 mov	 DWORD PTR $T9[ebp], ebx
  0018c	ff 15 00 00 00
	00		 call	 DWORD PTR __imp_??1?$CStringT@DV?$StrTraitMFC_DLL@DV?$ChTraitsCRT@D@ATL@@@@@ATL@@QAE@XZ
  00192	8d 4d d4	 lea	 ecx, DWORD PTR $T3[ebp]
  00195	c6 45 fc 00	 mov	 BYTE PTR __$EHRec$[ebp+8], 0
  00199	ff 15 00 00 00
	00		 call	 DWORD PTR __imp_??1?$CStringT@DV?$StrTraitMFC_DLL@DV?$ChTraitsCRT@D@ATL@@@@@ATL@@QAE@XZ

; 167  : 				->GetCheck()) strValue += CString( _MTEXT( C4_USED)) + "\r\n";

  0019f	8b 4d ec	 mov	 ecx, DWORD PTR _this$1$[ebp]
  001a2	68 db 1b 00 00	 push	 7131			; 00001bdbH
  001a7	8b 89 b0 00 00
	00		 mov	 ecx, DWORD PTR [ecx+176]
  001ad	e8 00 00 00 00	 call	 ?GetDlgItem@CWnd@@QBEPAV1@H@Z ; CWnd::GetDlgItem
; File C:\Program Files (x86)\Microsoft Visual Studio\2019\Community\VC\Tools\MSVC\14.29.30133\atlmfc\include\afxwin2.inl

; 628  : 	{ ASSERT(::IsWindow(m_hWnd)); return (int)::SendMessage(m_hWnd, BM_GETCHECK, 0, 0); }

  001b2	6a 00		 push	 0
  001b4	6a 00		 push	 0
  001b6	68 f0 00 00 00	 push	 240			; 000000f0H
  001bb	ff 70 20	 push	 DWORD PTR [eax+32]
  001be	ff 15 00 00 00
	00		 call	 DWORD PTR __imp__SendMessageA@16
; File D:\git\src\IBK\IBK_DRFN\ProjSrc\SrcChartEx\ChartAddIn\ChartDesignPropertyAddIn\ChartDesignPropertyAddIn\ToolandRButtonTabCtrl.cpp

; 167  : 				->GetCheck()) strValue += CString( _MTEXT( C4_USED)) + "\r\n";

  001c4	85 c0		 test	 eax, eax
  001c6	74 7a		 je	 SHORT $LN65@GetListIte
  001c8	a1 54 00 00 00	 mov	 eax, DWORD PTR ?g_iMetaTable@@3VIMetaTable@@A+84
  001cd	8d 4d d0	 lea	 ecx, DWORD PTR $T2[ebp]
  001d0	ff b0 58 0e 00
	00		 push	 DWORD PTR [eax+3672]
  001d6	ff 15 00 00 00
	00		 call	 DWORD PTR __imp_??0?$CStringT@DV?$StrTraitMFC_DLL@DV?$ChTraitsCRT@D@ATL@@@@@ATL@@QAE@PBD@Z
  001dc	8b f8		 mov	 edi, eax
; File C:\Program Files (x86)\Microsoft Visual Studio\2019\Community\VC\Tools\MSVC\14.29.30133\atlmfc\include\cstringt.h

; 2401 : 		CStringT strResult( str1.GetManager() );

  001de	8b cf		 mov	 ecx, edi
; File D:\git\src\IBK\IBK_DRFN\ProjSrc\SrcChartEx\ChartAddIn\ChartDesignPropertyAddIn\ChartDesignPropertyAddIn\ToolandRButtonTabCtrl.cpp

; 167  : 				->GetCheck()) strValue += CString( _MTEXT( C4_USED)) + "\r\n";

  001e0	c7 45 fc 07 00
	00 00		 mov	 DWORD PTR __$EHRec$[ebp+8], 7
; File C:\Program Files (x86)\Microsoft Visual Studio\2019\Community\VC\Tools\MSVC\14.29.30133\atlmfc\include\cstringt.h

; 2401 : 		CStringT strResult( str1.GetManager() );

  001e7	ff 15 00 00 00
	00		 call	 DWORD PTR __imp_?GetManager@?$CStringT@DV?$StrTraitMFC_DLL@DV?$ChTraitsCRT@D@ATL@@@@@ATL@@QBEPAUIAtlStringMgr@2@XZ
  001ed	50		 push	 eax
  001ee	8d 4d e0	 lea	 ecx, DWORD PTR $T6[ebp]
  001f1	ff 15 00 00 00
	00		 call	 DWORD PTR __imp_??0?$CStringT@DV?$StrTraitMFC_DLL@DV?$ChTraitsCRT@D@ATL@@@@@ATL@@QAE@PAUIAtlStringMgr@1@@Z
; File C:\Program Files (x86)\Microsoft Visual Studio\2019\Community\VC\Tools\MSVC\14.29.30133\atlmfc\include\atlsimpstr.h

; 519  : 		return( GetData()->nDataLength );

  001f7	8b 07		 mov	 eax, DWORD PTR [edi]
; File C:\Program Files (x86)\Microsoft Visual Studio\2019\Community\VC\Tools\MSVC\14.29.30133\atlmfc\include\cstringt.h

; 2405 : 		return( strResult );

  001f9	83 cb 08	 or	 ebx, 8
  001fc	6a 02		 push	 2
  001fe	68 00 00 00 00	 push	 OFFSET ??_C@_02PCIJFNDE@?$AN?6@
  00203	89 5d f0	 mov	 DWORD PTR $T9[ebp], ebx
  00206	ff 70 f4	 push	 DWORD PTR [eax-12]
  00209	50		 push	 eax
  0020a	8d 45 e0	 lea	 eax, DWORD PTR $T6[ebp]
  0020d	50		 push	 eax
  0020e	ff 15 00 00 00
	00		 call	 DWORD PTR __imp_?Concatenate@?$CSimpleStringT@D$00@ATL@@KAXAAV12@PBDH1H@Z
; File D:\git\src\IBK\IBK_DRFN\ProjSrc\SrcChartEx\ChartAddIn\ChartDesignPropertyAddIn\ChartDesignPropertyAddIn\ToolandRButtonTabCtrl.cpp

; 167  : 				->GetCheck()) strValue += CString( _MTEXT( C4_USED)) + "\r\n";

  00214	8b 7d 08	 mov	 edi, DWORD PTR ___$ReturnUdt$[ebp]
  00217	8d 45 e0	 lea	 eax, DWORD PTR $T6[ebp]
; File C:\Program Files (x86)\Microsoft Visual Studio\2019\Community\VC\Tools\MSVC\14.29.30133\atlmfc\include\cstringt.h

; 2403 : 		CThisSimpleString::Concatenate( strResult, str1, str1.GetLength(), psz2, CThisSimpleString::StringLength( psz2 ) );

  0021a	83 c4 14	 add	 esp, 20			; 00000014H
; File D:\git\src\IBK\IBK_DRFN\ProjSrc\SrcChartEx\ChartAddIn\ChartDesignPropertyAddIn\ChartDesignPropertyAddIn\ToolandRButtonTabCtrl.cpp

; 167  : 				->GetCheck()) strValue += CString( _MTEXT( C4_USED)) + "\r\n";

  0021d	8b cf		 mov	 ecx, edi
  0021f	50		 push	 eax
  00220	ff 15 00 00 00
	00		 call	 DWORD PTR __imp_??Y?$CStringT@DV?$StrTraitMFC_DLL@DV?$ChTraitsCRT@D@ATL@@@@@ATL@@QAEAAV01@ABV?$CSimpleStringT@D$00@1@@Z
  00226	83 e3 f7	 and	 ebx, -9			; fffffff7H
  00229	8d 4d e0	 lea	 ecx, DWORD PTR $T6[ebp]
  0022c	89 5d f0	 mov	 DWORD PTR $T9[ebp], ebx
  0022f	ff 15 00 00 00
	00		 call	 DWORD PTR __imp_??1?$CStringT@DV?$StrTraitMFC_DLL@DV?$ChTraitsCRT@D@ATL@@@@@ATL@@QAE@XZ
  00235	8d 4d d0	 lea	 ecx, DWORD PTR $T2[ebp]
$LN67@GetListIte:

; 155  : 	// (2006/3/3 - Seung-Won, Bae) Get Data with Outer ToolBar
; 156  : 	for(int nCount = 0; nCount < m_nNumberOfPages + 1; nCount++)

  00238	c6 45 fc 00	 mov	 BYTE PTR __$EHRec$[ebp+8], 0
  0023c	ff 15 00 00 00
	00		 call	 DWORD PTR __imp_??1?$CStringT@DV?$StrTraitMFC_DLL@DV?$ChTraitsCRT@D@ATL@@@@@ATL@@QAE@XZ
$LN65@GetListIte:
  00242	8b 45 ec	 mov	 eax, DWORD PTR _this$1$[ebp]
$LN2@GetListIte:
  00245	8b 88 ac 00 00
	00		 mov	 ecx, DWORD PTR [eax+172]
  0024b	46		 inc	 esi
  0024c	41		 inc	 ecx
  0024d	3b f1		 cmp	 esi, ecx
  0024f	0f 8c 1b fe ff
	ff		 jl	 $LL4@GetListIte
$LN64@GetListIte:

; 171  : }

  00255	8b c7		 mov	 eax, edi
  00257	8b 4d f4	 mov	 ecx, DWORD PTR __$EHRec$[ebp]
  0025a	64 89 0d 00 00
	00 00		 mov	 DWORD PTR fs:0, ecx
  00261	59		 pop	 ecx
  00262	5f		 pop	 edi
  00263	5e		 pop	 esi
  00264	5b		 pop	 ebx
  00265	8b e5		 mov	 esp, ebp
  00267	5d		 pop	 ebp
  00268	c2 04 00	 ret	 4
_TEXT	ENDS
;	COMDAT text$x
text$x	SEGMENT
__unwindfunclet$?GetListItemInfo@CToolandRButtonTabCtrl@@QAE?AV?$CStringT@DV?$StrTraitMFC_DLL@DV?$ChTraitsCRT@D@ATL@@@@@ATL@@XZ$0:
  00000	8b 45 f0	 mov	 eax, DWORD PTR $T9[ebp]
  00003	83 e0 01	 and	 eax, 1
  00006	0f 84 0d 00 00
	00		 je	 $LN11@GetListIte
  0000c	83 65 f0 fe	 and	 DWORD PTR $T9[ebp], -2	; fffffffeH
  00010	8b 4d 08	 mov	 ecx, DWORD PTR ___$ReturnUdt$[ebp]
  00013	ff 25 00 00 00
	00		 jmp	 DWORD PTR __imp_??1?$CStringT@DV?$StrTraitMFC_DLL@DV?$ChTraitsCRT@D@ATL@@@@@ATL@@QAE@XZ
$LN11@GetListIte:
  00019	c3		 ret	 0
__unwindfunclet$?GetListItemInfo@CToolandRButtonTabCtrl@@QAE?AV?$CStringT@DV?$StrTraitMFC_DLL@DV?$ChTraitsCRT@D@ATL@@@@@ATL@@XZ$1:
  0001a	8d 4d dc	 lea	 ecx, DWORD PTR $T5[ebp]
  0001d	ff 25 00 00 00
	00		 jmp	 DWORD PTR __imp_??1?$CStringT@DV?$StrTraitMFC_DLL@DV?$ChTraitsCRT@D@ATL@@@@@ATL@@QAE@XZ
__unwindfunclet$?GetListItemInfo@CToolandRButtonTabCtrl@@QAE?AV?$CStringT@DV?$StrTraitMFC_DLL@DV?$ChTraitsCRT@D@ATL@@@@@ATL@@XZ$8:
  00023	8b 45 f0	 mov	 eax, DWORD PTR $T9[ebp]
  00026	83 e0 02	 and	 eax, 2
  00029	0f 84 0d 00 00
	00		 je	 $LN22@GetListIte
  0002f	83 65 f0 fd	 and	 DWORD PTR $T9[ebp], -3	; fffffffdH
  00033	8d 4d e8	 lea	 ecx, DWORD PTR $T8[ebp]
  00036	ff 25 00 00 00
	00		 jmp	 DWORD PTR __imp_??1?$CStringT@DV?$StrTraitMFC_DLL@DV?$ChTraitsCRT@D@ATL@@@@@ATL@@QAE@XZ
$LN22@GetListIte:
  0003c	c3		 ret	 0
__unwindfunclet$?GetListItemInfo@CToolandRButtonTabCtrl@@QAE?AV?$CStringT@DV?$StrTraitMFC_DLL@DV?$ChTraitsCRT@D@ATL@@@@@ATL@@XZ$3:
  0003d	8d 4d d8	 lea	 ecx, DWORD PTR $T4[ebp]
  00040	ff 25 00 00 00
	00		 jmp	 DWORD PTR __imp_??1?$CStringT@DV?$StrTraitMFC_DLL@DV?$ChTraitsCRT@D@ATL@@@@@ATL@@QAE@XZ
__unwindfunclet$?GetListItemInfo@CToolandRButtonTabCtrl@@QAE?AV?$CStringT@DV?$StrTraitMFC_DLL@DV?$ChTraitsCRT@D@ATL@@@@@ATL@@XZ$4:
  00046	8d 4d d4	 lea	 ecx, DWORD PTR $T3[ebp]
  00049	ff 25 00 00 00
	00		 jmp	 DWORD PTR __imp_??1?$CStringT@DV?$StrTraitMFC_DLL@DV?$ChTraitsCRT@D@ATL@@@@@ATL@@QAE@XZ
__unwindfunclet$?GetListItemInfo@CToolandRButtonTabCtrl@@QAE?AV?$CStringT@DV?$StrTraitMFC_DLL@DV?$ChTraitsCRT@D@ATL@@@@@ATL@@XZ$9:
  0004f	8b 45 f0	 mov	 eax, DWORD PTR $T9[ebp]
  00052	83 e0 04	 and	 eax, 4
  00055	0f 84 0d 00 00
	00		 je	 $LN35@GetListIte
  0005b	83 65 f0 fb	 and	 DWORD PTR $T9[ebp], -5	; fffffffbH
  0005f	8d 4d e4	 lea	 ecx, DWORD PTR $T7[ebp]
  00062	ff 25 00 00 00
	00		 jmp	 DWORD PTR __imp_??1?$CStringT@DV?$StrTraitMFC_DLL@DV?$ChTraitsCRT@D@ATL@@@@@ATL@@QAE@XZ
$LN35@GetListIte:
  00068	c3		 ret	 0
__unwindfunclet$?GetListItemInfo@CToolandRButtonTabCtrl@@QAE?AV?$CStringT@DV?$StrTraitMFC_DLL@DV?$ChTraitsCRT@D@ATL@@@@@ATL@@XZ$6:
  00069	8d 4d d0	 lea	 ecx, DWORD PTR $T2[ebp]
  0006c	ff 25 00 00 00
	00		 jmp	 DWORD PTR __imp_??1?$CStringT@DV?$StrTraitMFC_DLL@DV?$ChTraitsCRT@D@ATL@@@@@ATL@@QAE@XZ
__unwindfunclet$?GetListItemInfo@CToolandRButtonTabCtrl@@QAE?AV?$CStringT@DV?$StrTraitMFC_DLL@DV?$ChTraitsCRT@D@ATL@@@@@ATL@@XZ$10:
  00072	8b 45 f0	 mov	 eax, DWORD PTR $T9[ebp]
  00075	83 e0 08	 and	 eax, 8
  00078	0f 84 0d 00 00
	00		 je	 $LN50@GetListIte
  0007e	83 65 f0 f7	 and	 DWORD PTR $T9[ebp], -9	; fffffff7H
  00082	8d 4d e0	 lea	 ecx, DWORD PTR $T6[ebp]
  00085	ff 25 00 00 00
	00		 jmp	 DWORD PTR __imp_??1?$CStringT@DV?$StrTraitMFC_DLL@DV?$ChTraitsCRT@D@ATL@@@@@ATL@@QAE@XZ
$LN50@GetListIte:
  0008b	c3		 ret	 0
  0008c	cc		 int	 3
  0008d	cc		 int	 3
  0008e	cc		 int	 3
  0008f	cc		 int	 3
  00090	cc		 int	 3
__ehhandler$?GetListItemInfo@CToolandRButtonTabCtrl@@QAE?AV?$CStringT@DV?$StrTraitMFC_DLL@DV?$ChTraitsCRT@D@ATL@@@@@ATL@@XZ:
  00091	90		 npad	 1
  00092	90		 npad	 1
  00093	8b 54 24 08	 mov	 edx, DWORD PTR [esp+8]
  00097	8d 42 0c	 lea	 eax, DWORD PTR [edx+12]
  0009a	8b 4a cc	 mov	 ecx, DWORD PTR [edx-52]
  0009d	33 c8		 xor	 ecx, eax
  0009f	e8 00 00 00 00	 call	 @__security_check_cookie@4
  000a4	b8 00 00 00 00	 mov	 eax, OFFSET __ehfuncinfo$?GetListItemInfo@CToolandRButtonTabCtrl@@QAE?AV?$CStringT@DV?$StrTraitMFC_DLL@DV?$ChTraitsCRT@D@ATL@@@@@ATL@@XZ
  000a9	e9 00 00 00 00	 jmp	 ___CxxFrameHandler3
text$x	ENDS
?GetListItemInfo@CToolandRButtonTabCtrl@@QAE?AV?$CStringT@DV?$StrTraitMFC_DLL@DV?$ChTraitsCRT@D@ATL@@@@@ATL@@XZ ENDP ; CToolandRButtonTabCtrl::GetListItemInfo
; Function compile flags: /Ogtp
; File D:\git\src\IBK\IBK_DRFN\ProjSrc\SrcChartEx\ChartAddIn\ChartDesignPropertyAddIn\ChartDesignPropertyAddIn\ToolandRButtonTabCtrl.cpp
; File C:\Program Files (x86)\Microsoft Visual Studio\2019\Community\VC\Tools\MSVC\14.29.30133\atlmfc\include\cstringt.h
; File D:\git\src\IBK\IBK_DRFN\ProjSrc\SrcChartEx\ChartAddIn\ChartDesignPropertyAddIn\ChartDesignPropertyAddIn\ToolandRButtonTabCtrl.cpp
; File C:\Program Files (x86)\Microsoft Visual Studio\2019\Community\VC\Tools\MSVC\14.29.30133\atlmfc\include\cstringt.h
; File D:\git\src\IBK\IBK_DRFN\ProjSrc\SrcChartEx\ChartAddIn\ChartDesignPropertyAddIn\ChartDesignPropertyAddIn\ToolandRButtonTabCtrl.cpp
; File C:\Program Files (x86)\Microsoft Visual Studio\2019\Community\VC\Tools\MSVC\14.29.30133\atlmfc\include\cstringt.h
; File D:\git\src\IBK\IBK_DRFN\ProjSrc\SrcChartEx\ChartAddIn\ChartDesignPropertyAddIn\ChartDesignPropertyAddIn\ToolandRButtonTabCtrl.cpp
; File C:\Program Files (x86)\Microsoft Visual Studio\2019\Community\VC\Tools\MSVC\14.29.30133\atlmfc\include\cstringt.h
; File D:\git\src\IBK\IBK_DRFN\ProjSrc\SrcChartEx\ChartAddIn\ChartDesignPropertyAddIn\ChartDesignPropertyAddIn\ToolandRButtonTabCtrl.cpp
; File C:\Program Files (x86)\Microsoft Visual Studio\2019\Community\VC\Tools\MSVC\14.29.30133\atlmfc\include\cstringt.h
; File C:\Program Files (x86)\Microsoft Visual Studio\2019\Community\VC\Tools\MSVC\14.29.30133\atlmfc\include\atlsimpstr.h
; File C:\Program Files (x86)\Microsoft Visual Studio\2019\Community\VC\Tools\MSVC\14.29.30133\atlmfc\include\cstringt.h
; File D:\git\src\IBK\IBK_DRFN\ProjSrc\SrcChartEx\ChartAddIn\ChartDesignPropertyAddIn\ChartDesignPropertyAddIn\ToolandRButtonTabCtrl.cpp
; File C:\Program Files (x86)\Microsoft Visual Studio\2019\Community\VC\Tools\MSVC\14.29.30133\atlmfc\include\cstringt.h
; File D:\git\src\IBK\IBK_DRFN\ProjSrc\SrcChartEx\ChartAddIn\ChartDesignPropertyAddIn\ChartDesignPropertyAddIn\ToolandRButtonTabCtrl.cpp
; File C:\Program Files (x86)\Microsoft Visual Studio\2019\Community\VC\Tools\MSVC\14.29.30133\atlmfc\include\cstringt.h
; File C:\Program Files (x86)\Microsoft Visual Studio\2019\Community\VC\Tools\MSVC\14.29.30133\atlmfc\include\atlsimpstr.h
; File C:\Program Files (x86)\Microsoft Visual Studio\2019\Community\VC\Tools\MSVC\14.29.30133\atlmfc\include\cstringt.h
; File D:\git\src\IBK\IBK_DRFN\ProjSrc\SrcChartEx\ChartAddIn\ChartDesignPropertyAddIn\ChartDesignPropertyAddIn\ToolandRButtonTabCtrl.cpp
; File C:\Program Files (x86)\Microsoft Visual Studio\2019\Community\VC\Tools\MSVC\14.29.30133\atlmfc\include\atlsimpstr.h
; File D:\git\src\IBK\IBK_DRFN\ProjSrc\SrcChartEx\ChartAddIn\ChartDesignPropertyAddIn\ChartDesignPropertyAddIn\ToolandRButtonTabCtrl.cpp
; File C:\Program Files (x86)\Microsoft Visual Studio\2019\Community\VC\Tools\MSVC\14.29.30133\atlmfc\include\afxwin2.inl
; File D:\git\src\IBK\IBK_DRFN\ProjSrc\SrcChartEx\ChartAddIn\ChartDesignPropertyAddIn\ChartDesignPropertyAddIn\ToolandRButtonTabCtrl.cpp
;	COMDAT ?SetSavedDataToDlgwithListCtrl@CToolandRButtonTabCtrl@@QAEXXZ
_TEXT	SEGMENT
$T2 = -40						; size = 4
$T3 = -36						; size = 4
$T4 = -36						; size = 4
_strItemInfo$ = -32					; size = 4
$T5 = -28						; size = 4
$T6 = -28						; size = 4
$T7 = -28						; size = 4
$T8 = -24						; size = 4
$T9 = -20						; size = 4
$T10 = -20						; size = 4
__szData$ = -16						; size = 4
__$EHRec$ = -12						; size = 12
?SetSavedDataToDlgwithListCtrl@CToolandRButtonTabCtrl@@QAEXXZ PROC ; CToolandRButtonTabCtrl::SetSavedDataToDlgwithListCtrl, COMDAT
; _this$ = ecx

; 201  : {

  00000	55		 push	 ebp
  00001	8b ec		 mov	 ebp, esp
  00003	6a ff		 push	 -1
  00005	68 00 00 00 00	 push	 __ehhandler$?SetSavedDataToDlgwithListCtrl@CToolandRButtonTabCtrl@@QAEXXZ
  0000a	64 a1 00 00 00
	00		 mov	 eax, DWORD PTR fs:0
  00010	50		 push	 eax
  00011	83 ec 1c	 sub	 esp, 28			; 0000001cH
  00014	56		 push	 esi
  00015	57		 push	 edi
  00016	a1 00 00 00 00	 mov	 eax, DWORD PTR ___security_cookie
  0001b	33 c5		 xor	 eax, ebp
  0001d	50		 push	 eax
  0001e	8d 45 f4	 lea	 eax, DWORD PTR __$EHRec$[ebp]
  00021	64 a3 00 00 00
	00		 mov	 DWORD PTR fs:0, eax
  00027	8b f9		 mov	 edi, ecx

; 202  : 	CString _szData = m_strSavedDataFromParent;

  00029	8d 87 80 00 00
	00		 lea	 eax, DWORD PTR [edi+128]
  0002f	c7 45 e8 00 00
	00 00		 mov	 DWORD PTR $T8[ebp], 0
  00036	50		 push	 eax
  00037	8d 4d f0	 lea	 ecx, DWORD PTR __szData$[ebp]
  0003a	ff 15 00 00 00
	00		 call	 DWORD PTR __imp_??0?$CStringT@DV?$StrTraitMFC_DLL@DV?$ChTraitsCRT@D@ATL@@@@@ATL@@QAE@ABV01@@Z

; 204  : 	if(_szData.Right(2) != "End\r\n")

  00040	6a 02		 push	 2
  00042	8d 45 e4	 lea	 eax, DWORD PTR $T7[ebp]
  00045	c7 45 fc 00 00
	00 00		 mov	 DWORD PTR __$EHRec$[ebp+8], 0
  0004c	50		 push	 eax
  0004d	8d 4d f0	 lea	 ecx, DWORD PTR __szData$[ebp]
  00050	ff 15 00 00 00
	00		 call	 DWORD PTR __imp_?Right@?$CStringT@DV?$StrTraitMFC_DLL@DV?$ChTraitsCRT@D@ATL@@@@@ATL@@QBE?AV12@H@Z
; File C:\Program Files (x86)\Microsoft Visual Studio\2019\Community\VC\Tools\MSVC\14.29.30133\atlmfc\include\cstringt.h

; 2567 : 		return( str1.Compare( psz2 ) != 0 );

  00056	68 00 00 00 00	 push	 OFFSET ??_C@_05HBNJBHCC@End?$AN?6@
  0005b	8b c8		 mov	 ecx, eax
; File D:\git\src\IBK\IBK_DRFN\ProjSrc\SrcChartEx\ChartAddIn\ChartDesignPropertyAddIn\ChartDesignPropertyAddIn\ToolandRButtonTabCtrl.cpp

; 204  : 	if(_szData.Right(2) != "End\r\n")

  0005d	c6 45 fc 01	 mov	 BYTE PTR __$EHRec$[ebp+8], 1
; File C:\Program Files (x86)\Microsoft Visual Studio\2019\Community\VC\Tools\MSVC\14.29.30133\atlmfc\include\cstringt.h

; 2567 : 		return( str1.Compare( psz2 ) != 0 );

  00061	ff 15 00 00 00
	00		 call	 DWORD PTR __imp_?Compare@?$CStringT@DV?$StrTraitMFC_DLL@DV?$ChTraitsCRT@D@ATL@@@@@ATL@@QBEHPBD@Z
; File D:\git\src\IBK\IBK_DRFN\ProjSrc\SrcChartEx\ChartAddIn\ChartDesignPropertyAddIn\ChartDesignPropertyAddIn\ToolandRButtonTabCtrl.cpp

; 204  : 	if(_szData.Right(2) != "End\r\n")

  00067	8d 4d e4	 lea	 ecx, DWORD PTR $T7[ebp]
  0006a	c6 45 fc 00	 mov	 BYTE PTR __$EHRec$[ebp+8], 0
; File C:\Program Files (x86)\Microsoft Visual Studio\2019\Community\VC\Tools\MSVC\14.29.30133\atlmfc\include\cstringt.h

; 2567 : 		return( str1.Compare( psz2 ) != 0 );

  0006e	8b f0		 mov	 esi, eax
; File D:\git\src\IBK\IBK_DRFN\ProjSrc\SrcChartEx\ChartAddIn\ChartDesignPropertyAddIn\ChartDesignPropertyAddIn\ToolandRButtonTabCtrl.cpp

; 204  : 	if(_szData.Right(2) != "End\r\n")

  00070	ff 15 00 00 00
	00		 call	 DWORD PTR __imp_??1?$CStringT@DV?$StrTraitMFC_DLL@DV?$ChTraitsCRT@D@ATL@@@@@ATL@@QAE@XZ
  00076	85 f6		 test	 esi, esi
  00078	74 0e		 je	 SHORT $LN2@SetSavedDa

; 205  : 		_szData += "End\r\n";

  0007a	68 00 00 00 00	 push	 OFFSET ??_C@_05HBNJBHCC@End?$AN?6@
  0007f	8d 4d f0	 lea	 ecx, DWORD PTR __szData$[ebp]
  00082	ff 15 00 00 00
	00		 call	 DWORD PTR __imp_??Y?$CStringT@DV?$StrTraitMFC_DLL@DV?$ChTraitsCRT@D@ATL@@@@@ATL@@QAEAAV01@PBD@Z
$LN2@SetSavedDa:

; 207  : 	CDataConversion::GetStringData(_szData, CString( _MTEXT( C4_INNER_TOOL_OPTION)) + "\r\n");

  00088	a1 54 00 00 00	 mov	 eax, DWORD PTR ?g_iMetaTable@@3VIMetaTable@@A+84
  0008d	8d 4d dc	 lea	 ecx, DWORD PTR $T4[ebp]
  00090	ff b0 50 0e 00
	00		 push	 DWORD PTR [eax+3664]
  00096	ff 15 00 00 00
	00		 call	 DWORD PTR __imp_??0?$CStringT@DV?$StrTraitMFC_DLL@DV?$ChTraitsCRT@D@ATL@@@@@ATL@@QAE@PBD@Z
  0009c	8b f0		 mov	 esi, eax
; File C:\Program Files (x86)\Microsoft Visual Studio\2019\Community\VC\Tools\MSVC\14.29.30133\atlmfc\include\cstringt.h

; 2401 : 		CStringT strResult( str1.GetManager() );

  0009e	8b ce		 mov	 ecx, esi
; File D:\git\src\IBK\IBK_DRFN\ProjSrc\SrcChartEx\ChartAddIn\ChartDesignPropertyAddIn\ChartDesignPropertyAddIn\ToolandRButtonTabCtrl.cpp

; 207  : 	CDataConversion::GetStringData(_szData, CString( _MTEXT( C4_INNER_TOOL_OPTION)) + "\r\n");

  000a0	c6 45 fc 03	 mov	 BYTE PTR __$EHRec$[ebp+8], 3
; File C:\Program Files (x86)\Microsoft Visual Studio\2019\Community\VC\Tools\MSVC\14.29.30133\atlmfc\include\cstringt.h

; 2401 : 		CStringT strResult( str1.GetManager() );

  000a4	ff 15 00 00 00
	00		 call	 DWORD PTR __imp_?GetManager@?$CStringT@DV?$StrTraitMFC_DLL@DV?$ChTraitsCRT@D@ATL@@@@@ATL@@QBEPAUIAtlStringMgr@2@XZ
  000aa	50		 push	 eax
  000ab	8d 4d ec	 lea	 ecx, DWORD PTR $T10[ebp]
  000ae	ff 15 00 00 00
	00		 call	 DWORD PTR __imp_??0?$CStringT@DV?$StrTraitMFC_DLL@DV?$ChTraitsCRT@D@ATL@@@@@ATL@@QAE@PAUIAtlStringMgr@1@@Z
; File C:\Program Files (x86)\Microsoft Visual Studio\2019\Community\VC\Tools\MSVC\14.29.30133\atlmfc\include\atlsimpstr.h

; 519  : 		return( GetData()->nDataLength );

  000b4	8b 06		 mov	 eax, DWORD PTR [esi]
; File C:\Program Files (x86)\Microsoft Visual Studio\2019\Community\VC\Tools\MSVC\14.29.30133\atlmfc\include\cstringt.h

; 2403 : 		CThisSimpleString::Concatenate( strResult, str1, str1.GetLength(), psz2, CThisSimpleString::StringLength( psz2 ) );

  000b6	6a 02		 push	 2
  000b8	68 00 00 00 00	 push	 OFFSET ??_C@_02PCIJFNDE@?$AN?6@

; 2404 : 
; 2405 : 		return( strResult );

  000bd	c7 45 e8 01 00
	00 00		 mov	 DWORD PTR $T8[ebp], 1
  000c4	ff 70 f4	 push	 DWORD PTR [eax-12]
  000c7	50		 push	 eax
  000c8	8d 45 ec	 lea	 eax, DWORD PTR $T10[ebp]
  000cb	50		 push	 eax
  000cc	ff 15 00 00 00
	00		 call	 DWORD PTR __imp_?Concatenate@?$CSimpleStringT@D$00@ATL@@KAXAAV12@PBDH1H@Z
; File D:\git\src\IBK\IBK_DRFN\ProjSrc\SrcChartEx\ChartAddIn\ChartDesignPropertyAddIn\ChartDesignPropertyAddIn\ToolandRButtonTabCtrl.cpp

; 207  : 	CDataConversion::GetStringData(_szData, CString( _MTEXT( C4_INNER_TOOL_OPTION)) + "\r\n");

  000d2	6a 01		 push	 1
  000d4	8d 45 ec	 lea	 eax, DWORD PTR $T10[ebp]
  000d7	50		 push	 eax
  000d8	8d 45 f0	 lea	 eax, DWORD PTR __szData$[ebp]
  000db	50		 push	 eax
  000dc	8d 45 e4	 lea	 eax, DWORD PTR $T6[ebp]
  000df	50		 push	 eax
  000e0	e8 00 00 00 00	 call	 ?GetStringData@CDataConversion@@SA?AV?$CStringT@DV?$StrTraitMFC_DLL@DV?$ChTraitsCRT@D@ATL@@@@@ATL@@AAV23@ABV23@_N@Z ; CDataConversion::GetStringData
  000e5	83 c4 24	 add	 esp, 36			; 00000024H
  000e8	8d 4d e4	 lea	 ecx, DWORD PTR $T6[ebp]
  000eb	ff 15 00 00 00
	00		 call	 DWORD PTR __imp_??1?$CStringT@DV?$StrTraitMFC_DLL@DV?$ChTraitsCRT@D@ATL@@@@@ATL@@QAE@XZ
  000f1	8d 4d ec	 lea	 ecx, DWORD PTR $T10[ebp]
  000f4	ff 15 00 00 00
	00		 call	 DWORD PTR __imp_??1?$CStringT@DV?$StrTraitMFC_DLL@DV?$ChTraitsCRT@D@ATL@@@@@ATL@@QAE@XZ
  000fa	8d 4d dc	 lea	 ecx, DWORD PTR $T4[ebp]
  000fd	c6 45 fc 00	 mov	 BYTE PTR __$EHRec$[ebp+8], 0
  00101	ff 15 00 00 00
	00		 call	 DWORD PTR __imp_??1?$CStringT@DV?$StrTraitMFC_DLL@DV?$ChTraitsCRT@D@ATL@@@@@ATL@@QAE@XZ

; 210  : 	CString strItemInfo = CDataConversion::GetStringData(_szData, CString( _MTEXT( C4_OUTER_TOOL_OPTION)) + "\r\n");

  00107	a1 54 00 00 00	 mov	 eax, DWORD PTR ?g_iMetaTable@@3VIMetaTable@@A+84
  0010c	8d 4d dc	 lea	 ecx, DWORD PTR $T3[ebp]
  0010f	ff b0 54 0e 00
	00		 push	 DWORD PTR [eax+3668]
  00115	ff 15 00 00 00
	00		 call	 DWORD PTR __imp_??0?$CStringT@DV?$StrTraitMFC_DLL@DV?$ChTraitsCRT@D@ATL@@@@@ATL@@QAE@PBD@Z
  0011b	8b f0		 mov	 esi, eax
; File C:\Program Files (x86)\Microsoft Visual Studio\2019\Community\VC\Tools\MSVC\14.29.30133\atlmfc\include\cstringt.h

; 2401 : 		CStringT strResult( str1.GetManager() );

  0011d	8b ce		 mov	 ecx, esi
; File D:\git\src\IBK\IBK_DRFN\ProjSrc\SrcChartEx\ChartAddIn\ChartDesignPropertyAddIn\ChartDesignPropertyAddIn\ToolandRButtonTabCtrl.cpp

; 210  : 	CString strItemInfo = CDataConversion::GetStringData(_szData, CString( _MTEXT( C4_OUTER_TOOL_OPTION)) + "\r\n");

  0011f	c6 45 fc 05	 mov	 BYTE PTR __$EHRec$[ebp+8], 5
; File C:\Program Files (x86)\Microsoft Visual Studio\2019\Community\VC\Tools\MSVC\14.29.30133\atlmfc\include\cstringt.h

; 2401 : 		CStringT strResult( str1.GetManager() );

  00123	ff 15 00 00 00
	00		 call	 DWORD PTR __imp_?GetManager@?$CStringT@DV?$StrTraitMFC_DLL@DV?$ChTraitsCRT@D@ATL@@@@@ATL@@QBEPAUIAtlStringMgr@2@XZ
  00129	50		 push	 eax
  0012a	8d 4d ec	 lea	 ecx, DWORD PTR $T9[ebp]
  0012d	ff 15 00 00 00
	00		 call	 DWORD PTR __imp_??0?$CStringT@DV?$StrTraitMFC_DLL@DV?$ChTraitsCRT@D@ATL@@@@@ATL@@QAE@PAUIAtlStringMgr@1@@Z
; File C:\Program Files (x86)\Microsoft Visual Studio\2019\Community\VC\Tools\MSVC\14.29.30133\atlmfc\include\atlsimpstr.h

; 519  : 		return( GetData()->nDataLength );

  00133	8b 06		 mov	 eax, DWORD PTR [esi]
; File C:\Program Files (x86)\Microsoft Visual Studio\2019\Community\VC\Tools\MSVC\14.29.30133\atlmfc\include\cstringt.h

; 2403 : 		CThisSimpleString::Concatenate( strResult, str1, str1.GetLength(), psz2, CThisSimpleString::StringLength( psz2 ) );

  00135	6a 02		 push	 2
  00137	68 00 00 00 00	 push	 OFFSET ??_C@_02PCIJFNDE@?$AN?6@

; 2404 : 
; 2405 : 		return( strResult );

  0013c	c7 45 e8 02 00
	00 00		 mov	 DWORD PTR $T8[ebp], 2
  00143	ff 70 f4	 push	 DWORD PTR [eax-12]
  00146	50		 push	 eax
  00147	8d 45 ec	 lea	 eax, DWORD PTR $T9[ebp]
  0014a	50		 push	 eax
  0014b	ff 15 00 00 00
	00		 call	 DWORD PTR __imp_?Concatenate@?$CSimpleStringT@D$00@ATL@@KAXAAV12@PBDH1H@Z
; File D:\git\src\IBK\IBK_DRFN\ProjSrc\SrcChartEx\ChartAddIn\ChartDesignPropertyAddIn\ChartDesignPropertyAddIn\ToolandRButtonTabCtrl.cpp

; 210  : 	CString strItemInfo = CDataConversion::GetStringData(_szData, CString( _MTEXT( C4_OUTER_TOOL_OPTION)) + "\r\n");

  00151	6a 01		 push	 1
  00153	8d 45 ec	 lea	 eax, DWORD PTR $T9[ebp]
  00156	50		 push	 eax
  00157	8d 45 f0	 lea	 eax, DWORD PTR __szData$[ebp]
  0015a	50		 push	 eax
  0015b	8d 45 e0	 lea	 eax, DWORD PTR _strItemInfo$[ebp]
  0015e	50		 push	 eax
  0015f	e8 00 00 00 00	 call	 ?GetStringData@CDataConversion@@SA?AV?$CStringT@DV?$StrTraitMFC_DLL@DV?$ChTraitsCRT@D@ATL@@@@@ATL@@AAV23@ABV23@_N@Z ; CDataConversion::GetStringData
  00164	83 c4 24	 add	 esp, 36			; 00000024H
  00167	8d 4d ec	 lea	 ecx, DWORD PTR $T9[ebp]
  0016a	ff 15 00 00 00
	00		 call	 DWORD PTR __imp_??1?$CStringT@DV?$StrTraitMFC_DLL@DV?$ChTraitsCRT@D@ATL@@@@@ATL@@QAE@XZ
  00170	8d 4d dc	 lea	 ecx, DWORD PTR $T3[ebp]
  00173	c6 45 fc 08	 mov	 BYTE PTR __$EHRec$[ebp+8], 8
  00177	ff 15 00 00 00
	00		 call	 DWORD PTR __imp_??1?$CStringT@DV?$StrTraitMFC_DLL@DV?$ChTraitsCRT@D@ATL@@@@@ATL@@QAE@XZ

; 211  : 	((CToolandRButtonDlgwithGrid_ListCtrl* )m_tabPages[0])->SetListItemInfoFromParent(strItemInfo);

  0017d	8b 8f b0 00 00
	00		 mov	 ecx, DWORD PTR [edi+176]
  00183	8d 45 e0	 lea	 eax, DWORD PTR _strItemInfo$[ebp]
  00186	50		 push	 eax
  00187	e8 00 00 00 00	 call	 ?SetListItemInfoFromParent@CToolandRButtonDlgwithGrid_ListCtrl@@QAEXABV?$CStringT@DV?$StrTraitMFC_DLL@DV?$ChTraitsCRT@D@ATL@@@@@ATL@@@Z ; CToolandRButtonDlgwithGrid_ListCtrl::SetListItemInfoFromParent

; 215  : 	if( !CDataConversion::GetStringData(_szData, "End\r\n").IsEmpty())

  0018c	68 00 00 00 00	 push	 OFFSET ??_C@_05HBNJBHCC@End?$AN?6@
  00191	8d 4d e4	 lea	 ecx, DWORD PTR $T5[ebp]
  00194	ff 15 00 00 00
	00		 call	 DWORD PTR __imp_??0?$CStringT@DV?$StrTraitMFC_DLL@DV?$ChTraitsCRT@D@ATL@@@@@ATL@@QAE@PBD@Z
  0019a	6a 01		 push	 1
  0019c	8d 45 e4	 lea	 eax, DWORD PTR $T5[ebp]
  0019f	c6 45 fc 09	 mov	 BYTE PTR __$EHRec$[ebp+8], 9
  001a3	50		 push	 eax
  001a4	8d 45 f0	 lea	 eax, DWORD PTR __szData$[ebp]
  001a7	50		 push	 eax
  001a8	8d 45 d8	 lea	 eax, DWORD PTR $T2[ebp]
  001ab	50		 push	 eax
  001ac	e8 00 00 00 00	 call	 ?GetStringData@CDataConversion@@SA?AV?$CStringT@DV?$StrTraitMFC_DLL@DV?$ChTraitsCRT@D@ATL@@@@@ATL@@AAV23@ABV23@_N@Z ; CDataConversion::GetStringData
  001b1	83 c4 10	 add	 esp, 16			; 00000010H
  001b4	8d 4d d8	 lea	 ecx, DWORD PTR $T2[ebp]
; File C:\Program Files (x86)\Microsoft Visual Studio\2019\Community\VC\Tools\MSVC\14.29.30133\atlmfc\include\atlsimpstr.h

; 519  : 		return( GetData()->nDataLength );

  001b7	8b 00		 mov	 eax, DWORD PTR [eax]
  001b9	8b 70 f4	 mov	 esi, DWORD PTR [eax-12]
; File D:\git\src\IBK\IBK_DRFN\ProjSrc\SrcChartEx\ChartAddIn\ChartDesignPropertyAddIn\ChartDesignPropertyAddIn\ToolandRButtonTabCtrl.cpp

; 215  : 	if( !CDataConversion::GetStringData(_szData, "End\r\n").IsEmpty())

  001bc	ff 15 00 00 00
	00		 call	 DWORD PTR __imp_??1?$CStringT@DV?$StrTraitMFC_DLL@DV?$ChTraitsCRT@D@ATL@@@@@ATL@@QAE@XZ
  001c2	8d 4d e4	 lea	 ecx, DWORD PTR $T5[ebp]
  001c5	c6 45 fc 08	 mov	 BYTE PTR __$EHRec$[ebp+8], 8
  001c9	ff 15 00 00 00
	00		 call	 DWORD PTR __imp_??1?$CStringT@DV?$StrTraitMFC_DLL@DV?$ChTraitsCRT@D@ATL@@@@@ATL@@QAE@XZ
  001cf	85 f6		 test	 esi, esi
  001d1	74 22		 je	 SHORT $LN3@SetSavedDa

; 216  : 		( ( CButton *)( ( (CToolandRButtonDlgwithGrid_ListCtrl* )m_tabPages[ 0])->GetDlgItem( IDC_CHK_USE_OUTER)))->SetCheck( 1);

  001d3	8b 8f b0 00 00
	00		 mov	 ecx, DWORD PTR [edi+176]
  001d9	68 db 1b 00 00	 push	 7131			; 00001bdbH
  001de	e8 00 00 00 00	 call	 ?GetDlgItem@CWnd@@QBEPAV1@H@Z ; CWnd::GetDlgItem
; File C:\Program Files (x86)\Microsoft Visual Studio\2019\Community\VC\Tools\MSVC\14.29.30133\atlmfc\include\afxwin2.inl

; 630  : 	{ ASSERT(::IsWindow(m_hWnd)); ::SendMessage(m_hWnd, BM_SETCHECK, nCheck, 0); }

  001e3	6a 00		 push	 0
  001e5	6a 01		 push	 1
  001e7	68 f1 00 00 00	 push	 241			; 000000f1H
  001ec	ff 70 20	 push	 DWORD PTR [eax+32]
  001ef	ff 15 00 00 00
	00		 call	 DWORD PTR __imp__SendMessageA@16
$LN3@SetSavedDa:
; File D:\git\src\IBK\IBK_DRFN\ProjSrc\SrcChartEx\ChartAddIn\ChartDesignPropertyAddIn\ChartDesignPropertyAddIn\ToolandRButtonTabCtrl.cpp

; 218  : }

  001f5	8d 4d e0	 lea	 ecx, DWORD PTR _strItemInfo$[ebp]
  001f8	ff 15 00 00 00
	00		 call	 DWORD PTR __imp_??1?$CStringT@DV?$StrTraitMFC_DLL@DV?$ChTraitsCRT@D@ATL@@@@@ATL@@QAE@XZ
  001fe	8d 4d f0	 lea	 ecx, DWORD PTR __szData$[ebp]
  00201	ff 15 00 00 00
	00		 call	 DWORD PTR __imp_??1?$CStringT@DV?$StrTraitMFC_DLL@DV?$ChTraitsCRT@D@ATL@@@@@ATL@@QAE@XZ
  00207	8b 4d f4	 mov	 ecx, DWORD PTR __$EHRec$[ebp]
  0020a	64 89 0d 00 00
	00 00		 mov	 DWORD PTR fs:0, ecx
  00211	59		 pop	 ecx
  00212	5f		 pop	 edi
  00213	5e		 pop	 esi
  00214	8b e5		 mov	 esp, ebp
  00216	5d		 pop	 ebp
  00217	c3		 ret	 0
_TEXT	ENDS
;	COMDAT text$x
text$x	SEGMENT
__unwindfunclet$?SetSavedDataToDlgwithListCtrl@CToolandRButtonTabCtrl@@QAEXXZ$0:
  00000	8d 4d f0	 lea	 ecx, DWORD PTR __szData$[ebp]
  00003	ff 25 00 00 00
	00		 jmp	 DWORD PTR __imp_??1?$CStringT@DV?$StrTraitMFC_DLL@DV?$ChTraitsCRT@D@ATL@@@@@ATL@@QAE@XZ
__unwindfunclet$?SetSavedDataToDlgwithListCtrl@CToolandRButtonTabCtrl@@QAEXXZ$1:
  00009	8d 4d e4	 lea	 ecx, DWORD PTR $T7[ebp]
  0000c	ff 25 00 00 00
	00		 jmp	 DWORD PTR __imp_??1?$CStringT@DV?$StrTraitMFC_DLL@DV?$ChTraitsCRT@D@ATL@@@@@ATL@@QAE@XZ
__unwindfunclet$?SetSavedDataToDlgwithListCtrl@CToolandRButtonTabCtrl@@QAEXXZ$2:
  00012	8d 4d dc	 lea	 ecx, DWORD PTR $T4[ebp]
  00015	ff 25 00 00 00
	00		 jmp	 DWORD PTR __imp_??1?$CStringT@DV?$StrTraitMFC_DLL@DV?$ChTraitsCRT@D@ATL@@@@@ATL@@QAE@XZ
__unwindfunclet$?SetSavedDataToDlgwithListCtrl@CToolandRButtonTabCtrl@@QAEXXZ$10:
  0001b	8b 45 e8	 mov	 eax, DWORD PTR $T8[ebp]
  0001e	83 e0 01	 and	 eax, 1
  00021	0f 84 0d 00 00
	00		 je	 $LN20@SetSavedDa
  00027	83 65 e8 fe	 and	 DWORD PTR $T8[ebp], -2	; fffffffeH
  0002b	8d 4d ec	 lea	 ecx, DWORD PTR $T10[ebp]
  0002e	ff 25 00 00 00
	00		 jmp	 DWORD PTR __imp_??1?$CStringT@DV?$StrTraitMFC_DLL@DV?$ChTraitsCRT@D@ATL@@@@@ATL@@QAE@XZ
$LN20@SetSavedDa:
  00034	c3		 ret	 0
__unwindfunclet$?SetSavedDataToDlgwithListCtrl@CToolandRButtonTabCtrl@@QAEXXZ$5:
  00035	8d 4d dc	 lea	 ecx, DWORD PTR $T3[ebp]
  00038	ff 25 00 00 00
	00		 jmp	 DWORD PTR __imp_??1?$CStringT@DV?$StrTraitMFC_DLL@DV?$ChTraitsCRT@D@ATL@@@@@ATL@@QAE@XZ
__unwindfunclet$?SetSavedDataToDlgwithListCtrl@CToolandRButtonTabCtrl@@QAEXXZ$11:
  0003e	8b 45 e8	 mov	 eax, DWORD PTR $T8[ebp]
  00041	83 e0 02	 and	 eax, 2
  00044	0f 84 0d 00 00
	00		 je	 $LN33@SetSavedDa
  0004a	83 65 e8 fd	 and	 DWORD PTR $T8[ebp], -3	; fffffffdH
  0004e	8d 4d ec	 lea	 ecx, DWORD PTR $T9[ebp]
  00051	ff 25 00 00 00
	00		 jmp	 DWORD PTR __imp_??1?$CStringT@DV?$StrTraitMFC_DLL@DV?$ChTraitsCRT@D@ATL@@@@@ATL@@QAE@XZ
$LN33@SetSavedDa:
  00057	c3		 ret	 0
__unwindfunclet$?SetSavedDataToDlgwithListCtrl@CToolandRButtonTabCtrl@@QAEXXZ$7:
  00058	8d 4d e0	 lea	 ecx, DWORD PTR _strItemInfo$[ebp]
  0005b	ff 25 00 00 00
	00		 jmp	 DWORD PTR __imp_??1?$CStringT@DV?$StrTraitMFC_DLL@DV?$ChTraitsCRT@D@ATL@@@@@ATL@@QAE@XZ
__unwindfunclet$?SetSavedDataToDlgwithListCtrl@CToolandRButtonTabCtrl@@QAEXXZ$8:
  00061	8d 4d e4	 lea	 ecx, DWORD PTR $T5[ebp]
  00064	ff 25 00 00 00
	00		 jmp	 DWORD PTR __imp_??1?$CStringT@DV?$StrTraitMFC_DLL@DV?$ChTraitsCRT@D@ATL@@@@@ATL@@QAE@XZ
  0006a	cc		 int	 3
  0006b	cc		 int	 3
  0006c	cc		 int	 3
  0006d	cc		 int	 3
  0006e	cc		 int	 3
__ehhandler$?SetSavedDataToDlgwithListCtrl@CToolandRButtonTabCtrl@@QAEXXZ:
  0006f	90		 npad	 1
  00070	90		 npad	 1
  00071	8b 54 24 08	 mov	 edx, DWORD PTR [esp+8]
  00075	8d 42 0c	 lea	 eax, DWORD PTR [edx+12]
  00078	8b 4a d8	 mov	 ecx, DWORD PTR [edx-40]
  0007b	33 c8		 xor	 ecx, eax
  0007d	e8 00 00 00 00	 call	 @__security_check_cookie@4
  00082	b8 00 00 00 00	 mov	 eax, OFFSET __ehfuncinfo$?SetSavedDataToDlgwithListCtrl@CToolandRButtonTabCtrl@@QAEXXZ
  00087	e9 00 00 00 00	 jmp	 ___CxxFrameHandler3
text$x	ENDS
?SetSavedDataToDlgwithListCtrl@CToolandRButtonTabCtrl@@QAEXXZ ENDP ; CToolandRButtonTabCtrl::SetSavedDataToDlgwithListCtrl
; Function compile flags: /Ogtp
; File D:\git\src\IBK\IBK_DRFN\ProjSrc\SrcChartEx\ChartAddIn\ChartDesignPropertyAddIn\ChartDesignPropertyAddIn\ToolandRButtonTabCtrl.cpp
;	COMDAT ?SetSavedDataFromParent@CToolandRButtonTabCtrl@@QAEXH@Z
_TEXT	SEGMENT
_nOption$ = 8						; size = 4
?SetSavedDataFromParent@CToolandRButtonTabCtrl@@QAEXH@Z PROC ; CToolandRButtonTabCtrl::SetSavedDataFromParent, COMDAT
; _this$ = ecx

; 191  : {

  00000	55		 push	 ebp
  00001	8b ec		 mov	 ebp, esp

; 192  : 	m_DlgNumericalInquiryOption.AddNumericalInquiryOption(nOption);

  00003	81 c1 c0 00 00
	00		 add	 ecx, 192		; 000000c0H

; 193  : }

  00009	5d		 pop	 ebp

; 192  : 	m_DlgNumericalInquiryOption.AddNumericalInquiryOption(nOption);

  0000a	e9 00 00 00 00	 jmp	 ?AddNumericalInquiryOption@CNumericalInquiryOptionDlg@@QAEXH@Z ; CNumericalInquiryOptionDlg::AddNumericalInquiryOption
?SetSavedDataFromParent@CToolandRButtonTabCtrl@@QAEXH@Z ENDP ; CToolandRButtonTabCtrl::SetSavedDataFromParent
_TEXT	ENDS
; Function compile flags: /Ogtp
; File D:\git\src\IBK\IBK_DRFN\ProjSrc\SrcChartEx\ChartAddIn\ChartDesignPropertyAddIn\ChartDesignPropertyAddIn\ToolandRButtonTabCtrl.cpp
;	COMDAT ?SetSavedDataFromParent@CToolandRButtonTabCtrl@@QAEXABV?$CStringT@DV?$StrTraitMFC_DLL@DV?$ChTraitsCRT@D@ATL@@@@@ATL@@@Z
_TEXT	SEGMENT
_strSavedData$ = 8					; size = 4
?SetSavedDataFromParent@CToolandRButtonTabCtrl@@QAEXABV?$CStringT@DV?$StrTraitMFC_DLL@DV?$ChTraitsCRT@D@ATL@@@@@ATL@@@Z PROC ; CToolandRButtonTabCtrl::SetSavedDataFromParent, COMDAT
; _this$ = ecx

; 196  : {

  00000	55		 push	 ebp
  00001	8b ec		 mov	 ebp, esp

; 197  : 	m_strSavedDataFromParent = strSavedData;

  00003	83 e9 80	 sub	 ecx, -128		; ffffff80H

; 198  : }

  00006	5d		 pop	 ebp

; 197  : 	m_strSavedDataFromParent = strSavedData;

  00007	ff 25 00 00 00
	00		 jmp	 DWORD PTR __imp_??4?$CStringT@DV?$StrTraitMFC_DLL@DV?$ChTraitsCRT@D@ATL@@@@@ATL@@QAEAAV01@ABV01@@Z
?SetSavedDataFromParent@CToolandRButtonTabCtrl@@QAEXABV?$CStringT@DV?$StrTraitMFC_DLL@DV?$ChTraitsCRT@D@ATL@@@@@ATL@@@Z ENDP ; CToolandRButtonTabCtrl::SetSavedDataFromParent
_TEXT	ENDS
; Function compile flags: /Ogtp
; File D:\git\src\IBK\IBK_DRFN\ProjSrc\SrcChartEx\ChartAddIn\ChartDesignPropertyAddIn\ChartDesignPropertyAddIn\ToolandRButtonTabCtrl.cpp
;	COMDAT ??1CToolandRButtonTabCtrl@@UAE@XZ
_TEXT	SEGMENT
??1CToolandRButtonTabCtrl@@UAE@XZ PROC			; CToolandRButtonTabCtrl::~CToolandRButtonTabCtrl, COMDAT
; _this$ = ecx

; 38   : {

  00000	53		 push	 ebx
  00001	8b d9		 mov	 ebx, ecx
  00003	56		 push	 esi

; 39   : 	for(int nCount=0; nCount < m_nNumberOfPages; nCount++){

  00004	33 f6		 xor	 esi, esi
  00006	c7 03 00 00 00
	00		 mov	 DWORD PTR [ebx], OFFSET ??_7CToolandRButtonTabCtrl@@6B@
  0000c	39 b3 ac 00 00
	00		 cmp	 DWORD PTR [ebx+172], esi
  00012	7e 26		 jle	 SHORT $LN3@CToolandRB
  00014	57		 push	 edi
  00015	8d bb b0 00 00
	00		 lea	 edi, DWORD PTR [ebx+176]
  0001b	0f 1f 44 00 00	 npad	 5
$LL4@CToolandRB:

; 40   : 		delete m_tabPages[nCount];

  00020	8b 0f		 mov	 ecx, DWORD PTR [edi]
  00022	85 c9		 test	 ecx, ecx
  00024	74 07		 je	 SHORT $LN2@CToolandRB
  00026	8b 01		 mov	 eax, DWORD PTR [ecx]
  00028	6a 01		 push	 1
  0002a	ff 50 04	 call	 DWORD PTR [eax+4]
$LN2@CToolandRB:

; 39   : 	for(int nCount=0; nCount < m_nNumberOfPages; nCount++){

  0002d	46		 inc	 esi
  0002e	83 c7 04	 add	 edi, 4
  00031	3b b3 ac 00 00
	00		 cmp	 esi, DWORD PTR [ebx+172]
  00037	7c e7		 jl	 SHORT $LL4@CToolandRB
  00039	5f		 pop	 edi
$LN3@CToolandRB:

; 41   : 	}
; 42   : }

  0003a	8d 8b c0 00 00
	00		 lea	 ecx, DWORD PTR [ebx+192]
  00040	e8 00 00 00 00	 call	 ??1CDialog@@UAE@XZ	; CDialog::~CDialog
  00045	8d 8b 84 00 00
	00		 lea	 ecx, DWORD PTR [ebx+132]
  0004b	e8 00 00 00 00	 call	 ??1CToolandRButtonItemMgr@@UAE@XZ ; CToolandRButtonItemMgr::~CToolandRButtonItemMgr
  00050	8d 8b 80 00 00
	00		 lea	 ecx, DWORD PTR [ebx+128]
  00056	ff 15 00 00 00
	00		 call	 DWORD PTR __imp_??1?$CStringT@DV?$StrTraitMFC_DLL@DV?$ChTraitsCRT@D@ATL@@@@@ATL@@QAE@XZ
  0005c	5e		 pop	 esi
  0005d	8b cb		 mov	 ecx, ebx
  0005f	5b		 pop	 ebx
  00060	e9 00 00 00 00	 jmp	 ??1CTabCtrl@@UAE@XZ	; CTabCtrl::~CTabCtrl
??1CToolandRButtonTabCtrl@@UAE@XZ ENDP			; CToolandRButtonTabCtrl::~CToolandRButtonTabCtrl
_TEXT	ENDS
; Function compile flags: /Ogtp
; File D:\git\src\IBK\IBK_DRFN\ProjSrc\SrcChartEx\ChartAddIn\ChartDesignPropertyAddIn\ChartDesignPropertyAddIn\ToolandRButtonTabCtrl.cpp
; File C:\Program Files (x86)\Microsoft Visual Studio\2019\Community\VC\Tools\MSVC\14.29.30133\atlmfc\include\afxcmn.inl
; File D:\git\src\IBK\IBK_DRFN\ProjSrc\SrcChartEx\ChartAddIn\ChartDesignPropertyAddIn\ChartDesignPropertyAddIn\ToolandRButtonTabCtrl.cpp
; File C:\Program Files (x86)\Microsoft Visual Studio\2019\Community\VC\Tools\MSVC\14.29.30133\atlmfc\include\afxcmn.inl
; File D:\git\src\IBK\IBK_DRFN\ProjSrc\SrcChartEx\ChartAddIn\ChartDesignPropertyAddIn\ChartDesignPropertyAddIn\ToolandRButtonTabCtrl.cpp
; File C:\Program Files (x86)\Microsoft Visual Studio\2019\Community\VC\Tools\MSVC\14.29.30133\atlmfc\include\afxcmn.inl
; File C:\Program Files (x86)\Microsoft Visual Studio\2019\Community\VC\Tools\MSVC\14.29.30133\atlmfc\include\afx.inl
; File D:\git\src\IBK\IBK_DRFN\ProjSrc\SrcChartEx\ChartAddIn\ChartDesignPropertyAddIn\ChartDesignPropertyAddIn\ToolandRButtonTabCtrl.cpp
;	COMDAT ??0CToolandRButtonTabCtrl@@QAE@XZ
_TEXT	SEGMENT
$T2 = -20						; size = 4
_this$ = -16						; size = 4
__$EHRec$ = -12						; size = 12
??0CToolandRButtonTabCtrl@@QAE@XZ PROC			; CToolandRButtonTabCtrl::CToolandRButtonTabCtrl, COMDAT
; _this$ = ecx

; 25   : {

  00000	55		 push	 ebp
  00001	8b ec		 mov	 ebp, esp
  00003	6a ff		 push	 -1
  00005	68 00 00 00 00	 push	 __ehhandler$??0CToolandRButtonTabCtrl@@QAE@XZ
  0000a	64 a1 00 00 00
	00		 mov	 eax, DWORD PTR fs:0
  00010	50		 push	 eax
  00011	83 ec 08	 sub	 esp, 8
  00014	53		 push	 ebx
  00015	56		 push	 esi
  00016	57		 push	 edi
  00017	a1 00 00 00 00	 mov	 eax, DWORD PTR ___security_cookie
  0001c	33 c5		 xor	 eax, ebp
  0001e	50		 push	 eax
  0001f	8d 45 f4	 lea	 eax, DWORD PTR __$EHRec$[ebp]
  00022	64 a3 00 00 00
	00		 mov	 DWORD PTR fs:0, eax
  00028	8b f9		 mov	 edi, ecx
  0002a	89 7d f0	 mov	 DWORD PTR _this$[ebp], edi
; File C:\Program Files (x86)\Microsoft Visual Studio\2019\Community\VC\Tools\MSVC\14.29.30133\atlmfc\include\afxcmn.inl

; 558  : 	{ }

  0002d	e8 00 00 00 00	 call	 ??0CWnd@@QAE@XZ		; CWnd::CWnd
; File D:\git\src\IBK\IBK_DRFN\ProjSrc\SrcChartEx\ChartAddIn\ChartDesignPropertyAddIn\ChartDesignPropertyAddIn\ToolandRButtonTabCtrl.cpp

; 25   : {

  00032	8d 8f 80 00 00
	00		 lea	 ecx, DWORD PTR [edi+128]
  00038	c7 45 fc 00 00
	00 00		 mov	 DWORD PTR __$EHRec$[ebp+8], 0
  0003f	c7 07 00 00 00
	00		 mov	 DWORD PTR [edi], OFFSET ??_7CToolandRButtonTabCtrl@@6B@
  00045	ff 15 00 00 00
	00		 call	 DWORD PTR __imp_??0?$CStringT@DV?$StrTraitMFC_DLL@DV?$ChTraitsCRT@D@ATL@@@@@ATL@@QAE@XZ
  0004b	8d 8f 84 00 00
	00		 lea	 ecx, DWORD PTR [edi+132]
  00051	c6 45 fc 01	 mov	 BYTE PTR __$EHRec$[ebp+8], 1
  00055	e8 00 00 00 00	 call	 ??0CToolandRButtonItemMgr@@QAE@XZ ; CToolandRButtonItemMgr::CToolandRButtonItemMgr
  0005a	6a 00		 push	 0
  0005c	8d 8f c0 00 00
	00		 lea	 ecx, DWORD PTR [edi+192]
  00062	c6 45 fc 02	 mov	 BYTE PTR __$EHRec$[ebp+8], 2
  00066	e8 00 00 00 00	 call	 ??0CNumericalInquiryOptionDlg@@QAE@PAVCWnd@@@Z ; CNumericalInquiryOptionDlg::CNumericalInquiryOptionDlg

; 26   : 	// (2008/1/14 - Seung-Won, Bae) for MultiLanguage.
; 27   : 	m_hOcxWnd = NULL;

  0006b	c7 87 70 01 00
	00 00 00 00 00	 mov	 DWORD PTR [edi+368], 0

; 28   : 
; 29   : 	// MODIFY: 종찬(04/03/17) 수치조회관련. 현재 RButton Menu 관리 기능은 지원되지 않고 있다.
; 30   : 	m_nNumberOfPages=1;
; 31   : 
; 32   : 	UINT nID = 0x200;
; 33   : 	for(int i = 0 ; i< m_nNumberOfPages ; i++)

  00075	33 f6		 xor	 esi, esi
  00077	c7 87 ac 00 00
	00 01 00 00 00	 mov	 DWORD PTR [edi+172], 1
; File C:\Program Files (x86)\Microsoft Visual Studio\2019\Community\VC\Tools\MSVC\14.29.30133\atlmfc\include\afxcmn.inl

; 558  : 	{ }

  00081	bb 00 02 00 00	 mov	 ebx, 512		; 00000200H
; File D:\git\src\IBK\IBK_DRFN\ProjSrc\SrcChartEx\ChartAddIn\ChartDesignPropertyAddIn\ChartDesignPropertyAddIn\ToolandRButtonTabCtrl.cpp

; 25   : {

  00086	c6 45 fc 03	 mov	 BYTE PTR __$EHRec$[ebp+8], 3
; File C:\Program Files (x86)\Microsoft Visual Studio\2019\Community\VC\Tools\MSVC\14.29.30133\atlmfc\include\afxcmn.inl

; 558  : 	{ }

  0008a	81 c7 b0 00 00
	00		 add	 edi, 176		; 000000b0H
$LL4@CToolandRB:
; File C:\Program Files (x86)\Microsoft Visual Studio\2019\Community\VC\Tools\MSVC\14.29.30133\atlmfc\include\afx.inl

; 116  : 	{ return ::operator new(nSize); }

  00090	68 80 02 00 00	 push	 640			; 00000280H
  00095	e8 00 00 00 00	 call	 ??2@YAPAXI@Z		; operator new
  0009a	83 c4 04	 add	 esp, 4
; File D:\git\src\IBK\IBK_DRFN\ProjSrc\SrcChartEx\ChartAddIn\ChartDesignPropertyAddIn\ChartDesignPropertyAddIn\ToolandRButtonTabCtrl.cpp

; 34   : 		m_tabPages[i] = new CToolandRButtonDlgwithGrid_ListCtrl(nID * (i+1));

  0009d	89 45 ec	 mov	 DWORD PTR $T2[ebp], eax
  000a0	c6 45 fc 04	 mov	 BYTE PTR __$EHRec$[ebp+8], 4
  000a4	85 c0		 test	 eax, eax
  000a6	74 0c		 je	 SHORT $LN6@CToolandRB
  000a8	6a 00		 push	 0
  000aa	53		 push	 ebx
  000ab	8b c8		 mov	 ecx, eax
  000ad	e8 00 00 00 00	 call	 ??0CToolandRButtonDlgwithGrid_ListCtrl@@QAE@HPAVCWnd@@@Z ; CToolandRButtonDlgwithGrid_ListCtrl::CToolandRButtonDlgwithGrid_ListCtrl
  000b2	eb 02		 jmp	 SHORT $LN7@CToolandRB
$LN6@CToolandRB:
  000b4	33 c0		 xor	 eax, eax
$LN7@CToolandRB:
  000b6	89 07		 mov	 DWORD PTR [edi], eax
  000b8	46		 inc	 esi
  000b9	8b 45 f0	 mov	 eax, DWORD PTR _this$[ebp]
  000bc	81 c3 00 02 00
	00		 add	 ebx, 512		; 00000200H
  000c2	83 c7 04	 add	 edi, 4
  000c5	c6 45 fc 03	 mov	 BYTE PTR __$EHRec$[ebp+8], 3
  000c9	3b b0 ac 00 00
	00		 cmp	 esi, DWORD PTR [eax+172]
  000cf	7c bf		 jl	 SHORT $LL4@CToolandRB

; 35   : }

  000d1	8b 4d f4	 mov	 ecx, DWORD PTR __$EHRec$[ebp]
  000d4	64 89 0d 00 00
	00 00		 mov	 DWORD PTR fs:0, ecx
  000db	59		 pop	 ecx
  000dc	5f		 pop	 edi
  000dd	5e		 pop	 esi
  000de	5b		 pop	 ebx
  000df	8b e5		 mov	 esp, ebp
  000e1	5d		 pop	 ebp
  000e2	c3		 ret	 0
_TEXT	ENDS
;	COMDAT text$x
text$x	SEGMENT
__unwindfunclet$??0CToolandRButtonTabCtrl@@QAE@XZ$0:
  00000	8b 4d f0	 mov	 ecx, DWORD PTR _this$[ebp]
  00003	e9 00 00 00 00	 jmp	 ??1CTabCtrl@@UAE@XZ	; CTabCtrl::~CTabCtrl
__unwindfunclet$??0CToolandRButtonTabCtrl@@QAE@XZ$1:
  00008	8b 4d f0	 mov	 ecx, DWORD PTR _this$[ebp]
  0000b	81 c1 80 00 00
	00		 add	 ecx, 128		; 00000080H
  00011	ff 25 00 00 00
	00		 jmp	 DWORD PTR __imp_??1?$CStringT@DV?$StrTraitMFC_DLL@DV?$ChTraitsCRT@D@ATL@@@@@ATL@@QAE@XZ
__unwindfunclet$??0CToolandRButtonTabCtrl@@QAE@XZ$2:
  00017	8b 4d f0	 mov	 ecx, DWORD PTR _this$[ebp]
  0001a	81 c1 84 00 00
	00		 add	 ecx, 132		; 00000084H
  00020	e9 00 00 00 00	 jmp	 ??1CToolandRButtonItemMgr@@UAE@XZ ; CToolandRButtonItemMgr::~CToolandRButtonItemMgr
__unwindfunclet$??0CToolandRButtonTabCtrl@@QAE@XZ$3:
  00025	8b 4d f0	 mov	 ecx, DWORD PTR _this$[ebp]
  00028	81 c1 c0 00 00
	00		 add	 ecx, 192		; 000000c0H
  0002e	e9 00 00 00 00	 jmp	 ??1CNumericalInquiryOptionDlg@@UAE@XZ
__unwindfunclet$??0CToolandRButtonTabCtrl@@QAE@XZ$4:
  00033	8b 45 ec	 mov	 eax, DWORD PTR $T2[ebp]
  00036	50		 push	 eax
  00037	e8 00 00 00 00	 call	 ??3CObject@@SGXPAX@Z	; CObject::operator delete
  0003c	c3		 ret	 0
  0003d	cc		 int	 3
  0003e	cc		 int	 3
  0003f	cc		 int	 3
  00040	cc		 int	 3
  00041	cc		 int	 3
__ehhandler$??0CToolandRButtonTabCtrl@@QAE@XZ:
  00042	90		 npad	 1
  00043	90		 npad	 1
  00044	8b 54 24 08	 mov	 edx, DWORD PTR [esp+8]
  00048	8d 42 0c	 lea	 eax, DWORD PTR [edx+12]
  0004b	8b 4a e8	 mov	 ecx, DWORD PTR [edx-24]
  0004e	33 c8		 xor	 ecx, eax
  00050	e8 00 00 00 00	 call	 @__security_check_cookie@4
  00055	b8 00 00 00 00	 mov	 eax, OFFSET __ehfuncinfo$??0CToolandRButtonTabCtrl@@QAE@XZ
  0005a	e9 00 00 00 00	 jmp	 ___CxxFrameHandler3
text$x	ENDS
??0CToolandRButtonTabCtrl@@QAE@XZ ENDP			; CToolandRButtonTabCtrl::CToolandRButtonTabCtrl
; Function compile flags: /Ogtp
;	COMDAT ??1CNumericalInquiryOptionDlg@@UAE@XZ
_TEXT	SEGMENT
??1CNumericalInquiryOptionDlg@@UAE@XZ PROC		; CNumericalInquiryOptionDlg::~CNumericalInquiryOptionDlg, COMDAT
; _this$ = ecx
  00000	e9 00 00 00 00	 jmp	 ??1CDialog@@UAE@XZ	; CDialog::~CDialog
??1CNumericalInquiryOptionDlg@@UAE@XZ ENDP		; CNumericalInquiryOptionDlg::~CNumericalInquiryOptionDlg
_TEXT	ENDS
; Function compile flags: /Ogtp
; File D:\git\src\IBK\IBK_DRFN\ProjSrc\SrcChartEx\ChartAddIn\ChartDesignPropertyAddIn\Include_Chart\Dll_Load\IMetaTable.h
; File C:\Program Files (x86)\Microsoft Visual Studio\2019\Community\VC\Tools\MSVC\14.29.30133\atlmfc\include\afxwin1.inl
; File D:\git\src\IBK\IBK_DRFN\ProjSrc\SrcChartEx\ChartAddIn\ChartDesignPropertyAddIn\Include_Chart\Dll_Load\IMetaTable.h
;	COMDAT ??1CMultiLanguageResourceSetter@@QAE@XZ
_TEXT	SEGMENT
__$EHRec$ = -12						; size = 12
??1CMultiLanguageResourceSetter@@QAE@XZ PROC		; CMultiLanguageResourceSetter::~CMultiLanguageResourceSetter, COMDAT
; _this$ = ecx

; 1036 : 	{

  00000	55		 push	 ebp
  00001	8b ec		 mov	 ebp, esp
  00003	6a ff		 push	 -1
  00005	68 00 00 00 00	 push	 __ehhandler$??1CMultiLanguageResourceSetter@@QAE@XZ
  0000a	64 a1 00 00 00
	00		 mov	 eax, DWORD PTR fs:0
  00010	50		 push	 eax
  00011	56		 push	 esi
  00012	a1 00 00 00 00	 mov	 eax, DWORD PTR ___security_cookie
  00017	33 c5		 xor	 eax, ebp
  00019	50		 push	 eax
  0001a	8d 45 f4	 lea	 eax, DWORD PTR __$EHRec$[ebp]
  0001d	64 a3 00 00 00
	00		 mov	 DWORD PTR fs:0, eax

; 1037 : 		AfxSetResourceHandle( m_hInstance);

  00023	8b 31		 mov	 esi, DWORD PTR [ecx]
; File C:\Program Files (x86)\Microsoft Visual Studio\2019\Community\VC\Tools\MSVC\14.29.30133\atlmfc\include\afxwin1.inl

; 27   : 	{ ASSERT(hInstResource != NULL); afxCurrentResourceHandle = hInstResource; }

  00025	e8 00 00 00 00	 call	 ?AfxGetModuleState@@YGPAVAFX_MODULE_STATE@@XZ ; AfxGetModuleState
  0002a	89 70 0c	 mov	 DWORD PTR [eax+12], esi
; File D:\git\src\IBK\IBK_DRFN\ProjSrc\SrcChartEx\ChartAddIn\ChartDesignPropertyAddIn\Include_Chart\Dll_Load\IMetaTable.h

; 1038 : 	}

  0002d	8b 4d f4	 mov	 ecx, DWORD PTR __$EHRec$[ebp]
  00030	64 89 0d 00 00
	00 00		 mov	 DWORD PTR fs:0, ecx
  00037	59		 pop	 ecx
  00038	5e		 pop	 esi
  00039	8b e5		 mov	 esp, ebp
  0003b	5d		 pop	 ebp
  0003c	c3		 ret	 0
  0003d	cc		 int	 3
  0003e	cc		 int	 3
  0003f	cc		 int	 3
  00040	cc		 int	 3
  00041	cc		 int	 3
_TEXT	ENDS
;	COMDAT text$x
text$x	SEGMENT
__ehhandler$??1CMultiLanguageResourceSetter@@QAE@XZ:
  00000	90		 npad	 1
  00001	90		 npad	 1
  00002	8b 54 24 08	 mov	 edx, DWORD PTR [esp+8]
  00006	8d 42 0c	 lea	 eax, DWORD PTR [edx+12]
  00009	8b 4a f8	 mov	 ecx, DWORD PTR [edx-8]
  0000c	33 c8		 xor	 ecx, eax
  0000e	e8 00 00 00 00	 call	 @__security_check_cookie@4
  00013	b8 00 00 00 00	 mov	 eax, OFFSET __ehfuncinfo$??1CMultiLanguageResourceSetter@@QAE@XZ
  00018	e9 00 00 00 00	 jmp	 ___CxxFrameHandler3
text$x	ENDS
??1CMultiLanguageResourceSetter@@QAE@XZ ENDP		; CMultiLanguageResourceSetter::~CMultiLanguageResourceSetter
; Function compile flags: /Ogtp
; File D:\git\src\IBK\IBK_DRFN\ProjSrc\SrcChartEx\ChartAddIn\ChartDesignPropertyAddIn\Include_Chart\Dll_Load\IMetaTable.h
;	COMDAT ?LoadResourceDLL@IMetaTable@@QAEPAUHINSTANCE__@@PAUHWND__@@PAU2@@Z
_TEXT	SEGMENT
_p1$ = 8						; size = 4
_p2$ = 12						; size = 4
?LoadResourceDLL@IMetaTable@@QAEPAUHINSTANCE__@@PAUHWND__@@PAU2@@Z PROC ; IMetaTable::LoadResourceDLL, COMDAT
; _this$ = ecx

; 936  : 	DECLARE_FUNCTION2(	LoadResourceDLL,				HMODULE, AfxGetStaticModuleState()->m_hCurrentInstanceHandle, HWND, HMODULE);

  00000	55		 push	 ebp
  00001	8b ec		 mov	 ebp, esp
  00003	56		 push	 esi
  00004	8b f1		 mov	 esi, ecx
  00006	8b 46 04	 mov	 eax, DWORD PTR [esi+4]
  00009	85 c0		 test	 eax, eax
  0000b	74 4d		 je	 SHORT $LN4@LoadResour
  0000d	57		 push	 edi
  0000e	bf 80 0d 00 00	 mov	 edi, 3456		; 00000d80H
  00013	66 3b be 94 00
	00 00		 cmp	 di, WORD PTR [esi+148]
  0001a	74 23		 je	 SHORT $LN3@LoadResour
  0001c	68 00 00 00 00	 push	 OFFSET ??_C@_0BA@ENJOCHIO@LoadResourceDLL@
  00021	50		 push	 eax
  00022	c7 86 90 00 00
	00 00 00 00 00	 mov	 DWORD PTR [esi+144], 0
  0002c	ff 15 00 00 00
	00		 call	 DWORD PTR __imp__GetProcAddress@8
  00032	89 86 90 00 00
	00		 mov	 DWORD PTR [esi+144], eax
  00038	66 89 be 94 00
	00 00		 mov	 WORD PTR [esi+148], di
$LN3@LoadResour:
  0003f	8b 86 90 00 00
	00		 mov	 eax, DWORD PTR [esi+144]
  00045	5f		 pop	 edi
  00046	85 c0		 test	 eax, eax
  00048	74 10		 je	 SHORT $LN4@LoadResour
  0004a	ff 75 0c	 push	 DWORD PTR _p2$[ebp]
  0004d	ff 75 08	 push	 DWORD PTR _p1$[ebp]
  00050	ff d0		 call	 eax
  00052	83 c4 08	 add	 esp, 8
  00055	5e		 pop	 esi
  00056	5d		 pop	 ebp
  00057	c2 08 00	 ret	 8
$LN4@LoadResour:
  0005a	e8 00 00 00 00	 call	 ?AfxGetStaticModuleState@@YGPAVAFX_MODULE_STATE@@XZ ; AfxGetStaticModuleState
  0005f	5e		 pop	 esi
  00060	8b 40 08	 mov	 eax, DWORD PTR [eax+8]
  00063	5d		 pop	 ebp
  00064	c2 08 00	 ret	 8
?LoadResourceDLL@IMetaTable@@QAEPAUHINSTANCE__@@PAUHWND__@@PAU2@@Z ENDP ; IMetaTable::LoadResourceDLL
_TEXT	ENDS
; Function compile flags: /Ogtp
; File C:\Program Files (x86)\Microsoft Visual Studio\2019\Community\VC\Tools\MSVC\14.29.30133\atlmfc\include\afx.inl
;	COMDAT ??_GCTabCtrl@@UAEPAXI@Z
_TEXT	SEGMENT
___flags$ = 8						; size = 4
??_GCTabCtrl@@UAEPAXI@Z PROC				; CTabCtrl::`scalar deleting destructor', COMDAT
; _this$ = ecx
  00000	55		 push	 ebp
  00001	8b ec		 mov	 ebp, esp
  00003	56		 push	 esi
  00004	8b f1		 mov	 esi, ecx
  00006	e8 00 00 00 00	 call	 ??1CTabCtrl@@UAE@XZ	; CTabCtrl::~CTabCtrl
  0000b	8b 45 08	 mov	 eax, DWORD PTR ___flags$[ebp]
  0000e	a8 01		 test	 al, 1
  00010	74 22		 je	 SHORT $LN9@scalar
  00012	a8 04		 test	 al, 4
  00014	75 10		 jne	 SHORT $LN3@scalar

; 112  : 	{ ::operator delete(p); }

  00016	56		 push	 esi
  00017	e8 00 00 00 00	 call	 ??3@YAXPAX@Z		; operator delete
  0001c	83 c4 04	 add	 esp, 4
  0001f	8b c6		 mov	 eax, esi
  00021	5e		 pop	 esi
  00022	5d		 pop	 ebp
  00023	c2 04 00	 ret	 4
$LN3@scalar:
  00026	68 80 00 00 00	 push	 128			; 00000080H
  0002b	56		 push	 esi
  0002c	e8 00 00 00 00	 call	 ?__global_delete@@YAXPAXI@Z ; __global_delete
  00031	83 c4 08	 add	 esp, 8
$LN9@scalar:
  00034	8b c6		 mov	 eax, esi
  00036	5e		 pop	 esi
  00037	5d		 pop	 ebp
  00038	c2 04 00	 ret	 4
??_GCTabCtrl@@UAEPAXI@Z ENDP				; CTabCtrl::`scalar deleting destructor'
_TEXT	ENDS
; Function compile flags: /Ogtp
; File C:\Program Files (x86)\Microsoft Visual Studio\2019\Community\VC\Tools\MSVC\14.29.30133\atlmfc\include\afxwin2.inl
;	COMDAT ?EndModalState@CWnd@@UAEXXZ
_TEXT	SEGMENT
?EndModalState@CWnd@@UAEXXZ PROC			; CWnd::EndModalState, COMDAT
; _this$ = ecx

; 567  : 	{ ::EnableWindow(m_hWnd, TRUE); }

  00000	6a 01		 push	 1
  00002	ff 71 20	 push	 DWORD PTR [ecx+32]
  00005	ff 15 00 00 00
	00		 call	 DWORD PTR __imp__EnableWindow@8
  0000b	c3		 ret	 0
?EndModalState@CWnd@@UAEXXZ ENDP			; CWnd::EndModalState
_TEXT	ENDS
; Function compile flags: /Ogtp
; File C:\Program Files (x86)\Microsoft Visual Studio\2019\Community\VC\Tools\MSVC\14.29.30133\atlmfc\include\afxwin2.inl
;	COMDAT ?BeginModalState@CWnd@@UAEXXZ
_TEXT	SEGMENT
?BeginModalState@CWnd@@UAEXXZ PROC			; CWnd::BeginModalState, COMDAT
; _this$ = ecx

; 565  : 	{ ::EnableWindow(m_hWnd, FALSE); }

  00000	6a 00		 push	 0
  00002	ff 71 20	 push	 DWORD PTR [ecx+32]
  00005	ff 15 00 00 00
	00		 call	 DWORD PTR __imp__EnableWindow@8
  0000b	c3		 ret	 0
?BeginModalState@CWnd@@UAEXXZ ENDP			; CWnd::BeginModalState
_TEXT	ENDS
; Function compile flags: /Ogtp
; File C:\Program Files (x86)\Microsoft Visual Studio\2019\Community\VC\Tools\MSVC\14.29.30133\atlmfc\include\afxwin2.inl
;	COMDAT ?DoDataExchange@CWnd@@MAEXPAVCDataExchange@@@Z
_TEXT	SEGMENT
___formal$ = 8						; size = 4
?DoDataExchange@CWnd@@MAEXPAVCDataExchange@@@Z PROC	; CWnd::DoDataExchange, COMDAT
; _this$ = ecx

; 561  : 	{ } // default does nothing

  00000	c2 04 00	 ret	 4
?DoDataExchange@CWnd@@MAEXPAVCDataExchange@@@Z ENDP	; CWnd::DoDataExchange
_TEXT	ENDS
; Function compile flags: /Ogtp
; File C:\Program Files (x86)\Microsoft Visual Studio\2019\Community\VC\Tools\MSVC\14.29.30133\atlmfc\include\afx.inl
;	COMDAT ?Dump@CObject@@UBEXAAVCDumpContext@@@Z
_TEXT	SEGMENT
___formal$ = 8						; size = 4
?Dump@CObject@@UBEXAAVCDumpContext@@@Z PROC		; CObject::Dump, COMDAT
; _this$ = ecx

; 122  : 	{ /* no dumping in release builds */ }

  00000	c2 04 00	 ret	 4
?Dump@CObject@@UBEXAAVCDumpContext@@@Z ENDP		; CObject::Dump
_TEXT	ENDS
; Function compile flags: /Ogtp
; File C:\Program Files (x86)\Microsoft Visual Studio\2019\Community\VC\Tools\MSVC\14.29.30133\atlmfc\include\afx.inl
;	COMDAT ?AssertValid@CObject@@UBEXXZ
_TEXT	SEGMENT
?AssertValid@CObject@@UBEXXZ PROC			; CObject::AssertValid, COMDAT
; _this$ = ecx

; 120  : 	{ /* no asserts in release builds */ }

  00000	c2 00 00	 ret	 0
?AssertValid@CObject@@UBEXXZ ENDP			; CObject::AssertValid
_TEXT	ENDS
; Function compile flags: /Ogtp
; File C:\Program Files (x86)\Microsoft Visual Studio\2019\Community\VC\Tools\MSVC\14.29.30133\atlmfc\include\afx.inl
;	COMDAT ?Serialize@CObject@@UAEXAAVCArchive@@@Z
_TEXT	SEGMENT
___formal$ = 8						; size = 4
?Serialize@CObject@@UAEXAAVCArchive@@@Z PROC		; CObject::Serialize, COMDAT
; _this$ = ecx

; 106  : 	{ /* CObject does not serialize anything by default */ }

  00000	c2 04 00	 ret	 4
?Serialize@CObject@@UAEXAAVCArchive@@@Z ENDP		; CObject::Serialize
_TEXT	ENDS
; Function compile flags: /Ogtp
; File C:\Program Files (x86)\Microsoft Visual Studio\2019\Community\VC\Tools\MSVC\14.29.30133\atlmfc\include\afx.inl
;	COMDAT ??3CObject@@SGXPAX@Z
_TEXT	SEGMENT
_p$ = 8							; size = 4
??3CObject@@SGXPAX@Z PROC				; CObject::operator delete, COMDAT

; 112  : 	{ ::operator delete(p); }

  00000	55		 push	 ebp
  00001	8b ec		 mov	 ebp, esp
  00003	ff 75 08	 push	 DWORD PTR _p$[ebp]
  00006	e8 00 00 00 00	 call	 ??3@YAXPAX@Z		; operator delete
  0000b	83 c4 04	 add	 esp, 4
  0000e	5d		 pop	 ebp
  0000f	c2 04 00	 ret	 4
??3CObject@@SGXPAX@Z ENDP				; CObject::operator delete
_TEXT	ENDS
; Function compile flags: /Ogtp
; File D:\git\src\IBK\IBK_DRFN\ProjSrc\SrcChartEx\ChartAddIn\ChartDesignPropertyAddIn\ChartDesignPropertyAddIn\ToolandRButtonTabCtrl.cpp
;	COMDAT ?__empty_global_delete@@YAXPAXI@Z
_TEXT	SEGMENT
___formal$ = 8						; size = 4
___formal$ = 12						; size = 4
?__empty_global_delete@@YAXPAXI@Z PROC			; __empty_global_delete, COMDAT

  00000	c2 00 00	 ret	 0
?__empty_global_delete@@YAXPAXI@Z ENDP			; __empty_global_delete
_TEXT	ENDS
; Function compile flags: /Ogtp
; File D:\git\src\IBK\IBK_DRFN\ProjSrc\SrcChartEx\ChartAddIn\ChartDesignPropertyAddIn\ChartDesignPropertyAddIn\ToolandRButtonTabCtrl.cpp
;	COMDAT ?__empty_global_delete@@YAXPAX@Z
_TEXT	SEGMENT
___formal$ = 8						; size = 4
?__empty_global_delete@@YAXPAX@Z PROC			; __empty_global_delete, COMDAT

  00000	c2 00 00	 ret	 0
?__empty_global_delete@@YAXPAX@Z ENDP			; __empty_global_delete
_TEXT	ENDS
END
