; Listing generated by Microsoft (R) Optimizing Compiler Version 19.29.30145.0 

	TITLE	D:\git\src\IBK\IBK_DRFN\#DRfn-CS\_Obj\ChartDesignPropertyAddIn\ToolandRButtonGrid_ListCtrl.obj
	.686P
	.XMM
	include listing.inc
	.model	flat

INCLUDELIB MSVCRT
INCLUDELIB OLDNAMES

PUBLIC	?__empty_global_delete@@YAXPAX@Z		; __empty_global_delete
PUBLIC	?__empty_global_delete@@YAXPAXI@Z		; __empty_global_delete
PUBLIC	??1CObject@@UAE@XZ				; CObject::~CObject
PUBLIC	??3CObject@@SGXPAX@Z				; CObject::operator delete
PUBLIC	?Serialize@CObject@@UAEXAAVCArchive@@@Z		; CObject::Serialize
PUBLIC	?AssertValid@CObject@@UBEXXZ			; CObject::AssertValid
PUBLIC	?Dump@CObject@@UBEXAAVCDumpContext@@@Z		; CObject::Dump
PUBLIC	?DoDataExchange@CWnd@@MAEXPAVCDataExchange@@@Z	; CWnd::DoDataExchange
PUBLIC	?BeginModalState@CWnd@@UAEXXZ			; CWnd::BeginModalState
PUBLIC	?EndModalState@CWnd@@UAEXXZ			; CWnd::EndModalState
PUBLIC	??1CWaitCursor@@QAE@XZ				; CWaitCursor::~CWaitCursor
PUBLIC	??1CMultiLanguageResourceSetter@@QAE@XZ		; CMultiLanguageResourceSetter::~CMultiLanguageResourceSetter
PUBLIC	??0CItemInfo@@QAE@XZ				; CItemInfo::CItemInfo
PUBLIC	?GetControlType@CItemInfo@@QBEHHAAW4CONTROLTYPE@1@@Z ; CItemInfo::GetControlType
PUBLIC	?GetListData@CItemInfo@@QBEHHAAPAVCStringList@@@Z ; CItemInfo::GetListData
PUBLIC	?CopyColors@CItemInfo@@QAEXPAV1@@Z		; CItemInfo::CopyColors
PUBLIC	??1CItemInfo@@UAE@XZ				; CItemInfo::~CItemInfo
PUBLIC	??0?$CMap@HHW4CONTROLTYPE@CItemInfo@@AAW412@@@QAE@H@Z ; CMap<int,int,enum CItemInfo::CONTROLTYPE,enum CItemInfo::CONTROLTYPE &>::CMap<int,int,enum CItemInfo::CONTROLTYPE,enum CItemInfo::CONTROLTYPE &>
PUBLIC	?Lookup@?$CMap@HHW4CONTROLTYPE@CItemInfo@@AAW412@@@QBEHHAAW4CONTROLTYPE@CItemInfo@@@Z ; CMap<int,int,enum CItemInfo::CONTROLTYPE,enum CItemInfo::CONTROLTYPE &>::Lookup
PUBLIC	??A?$CMap@HHW4CONTROLTYPE@CItemInfo@@AAW412@@@QAEAAW4CONTROLTYPE@CItemInfo@@H@Z ; CMap<int,int,enum CItemInfo::CONTROLTYPE,enum CItemInfo::CONTROLTYPE &>::operator[]
PUBLIC	?SetAt@?$CMap@HHW4CONTROLTYPE@CItemInfo@@AAW412@@@QAEXHAAW4CONTROLTYPE@CItemInfo@@@Z ; CMap<int,int,enum CItemInfo::CONTROLTYPE,enum CItemInfo::CONTROLTYPE &>::SetAt
PUBLIC	?RemoveAll@?$CMap@HHW4CONTROLTYPE@CItemInfo@@AAW412@@@QAEXXZ ; CMap<int,int,enum CItemInfo::CONTROLTYPE,enum CItemInfo::CONTROLTYPE &>::RemoveAll
PUBLIC	?InitHashTable@?$CMap@HHW4CONTROLTYPE@CItemInfo@@AAW412@@@QAEXIH@Z ; CMap<int,int,enum CItemInfo::CONTROLTYPE,enum CItemInfo::CONTROLTYPE &>::InitHashTable
PUBLIC	?NewAssoc@?$CMap@HHW4CONTROLTYPE@CItemInfo@@AAW412@@@IAEPAVCAssoc@1@H@Z ; CMap<int,int,enum CItemInfo::CONTROLTYPE,enum CItemInfo::CONTROLTYPE &>::NewAssoc
PUBLIC	?GetAssocAt@?$CMap@HHW4CONTROLTYPE@CItemInfo@@AAW412@@@IBEPAVCAssoc@1@HAAI0@Z ; CMap<int,int,enum CItemInfo::CONTROLTYPE,enum CItemInfo::CONTROLTYPE &>::GetAssocAt
PUBLIC	??1?$CMap@HHW4CONTROLTYPE@CItemInfo@@AAW412@@@UAE@XZ ; CMap<int,int,enum CItemInfo::CONTROLTYPE,enum CItemInfo::CONTROLTYPE &>::~CMap<int,int,enum CItemInfo::CONTROLTYPE,enum CItemInfo::CONTROLTYPE &>
PUBLIC	?Serialize@?$CMap@HHW4CONTROLTYPE@CItemInfo@@AAW412@@@UAEXAAVCArchive@@@Z ; CMap<int,int,enum CItemInfo::CONTROLTYPE,enum CItemInfo::CONTROLTYPE &>::Serialize
PUBLIC	??_G?$CMap@HHW4CONTROLTYPE@CItemInfo@@AAW412@@@UAEPAXI@Z ; CMap<int,int,enum CItemInfo::CONTROLTYPE,enum CItemInfo::CONTROLTYPE &>::`scalar deleting destructor'
PUBLIC	??0?$CMap@HHKAAK@@QAE@H@Z			; CMap<int,int,unsigned long,unsigned long &>::CMap<int,int,unsigned long,unsigned long &>
PUBLIC	?Lookup@?$CMap@HHKAAK@@QBEHHAAK@Z		; CMap<int,int,unsigned long,unsigned long &>::Lookup
PUBLIC	??A?$CMap@HHKAAK@@QAEAAKH@Z			; CMap<int,int,unsigned long,unsigned long &>::operator[]
PUBLIC	?RemoveAll@?$CMap@HHKAAK@@QAEXXZ		; CMap<int,int,unsigned long,unsigned long &>::RemoveAll
PUBLIC	?InitHashTable@?$CMap@HHKAAK@@QAEXIH@Z		; CMap<int,int,unsigned long,unsigned long &>::InitHashTable
PUBLIC	?NewAssoc@?$CMap@HHKAAK@@IAEPAVCAssoc@1@H@Z	; CMap<int,int,unsigned long,unsigned long &>::NewAssoc
PUBLIC	?GetAssocAt@?$CMap@HHKAAK@@IBEPAVCAssoc@1@HAAI0@Z ; CMap<int,int,unsigned long,unsigned long &>::GetAssocAt
PUBLIC	??1?$CMap@HHKAAK@@UAE@XZ			; CMap<int,int,unsigned long,unsigned long &>::~CMap<int,int,unsigned long,unsigned long &>
PUBLIC	?Serialize@?$CMap@HHKAAK@@UAEXAAVCArchive@@@Z	; CMap<int,int,unsigned long,unsigned long &>::Serialize
PUBLIC	??_G?$CMap@HHKAAK@@UAEPAXI@Z			; CMap<int,int,unsigned long,unsigned long &>::`scalar deleting destructor'
PUBLIC	??0?$CMap@HHPAVCStringList@@PAV1@@@QAE@H@Z	; CMap<int,int,CStringList *,CStringList *>::CMap<int,int,CStringList *,CStringList *>
PUBLIC	?Lookup@?$CMap@HHPAVCStringList@@PAV1@@@QBEHHAAPAVCStringList@@@Z ; CMap<int,int,CStringList *,CStringList *>::Lookup
PUBLIC	??A?$CMap@HHPAVCStringList@@PAV1@@@QAEAAPAVCStringList@@H@Z ; CMap<int,int,CStringList *,CStringList *>::operator[]
PUBLIC	?SetAt@?$CMap@HHPAVCStringList@@PAV1@@@QAEXHPAVCStringList@@@Z ; CMap<int,int,CStringList *,CStringList *>::SetAt
PUBLIC	?RemoveAll@?$CMap@HHPAVCStringList@@PAV1@@@QAEXXZ ; CMap<int,int,CStringList *,CStringList *>::RemoveAll
PUBLIC	?GetNextAssoc@?$CMap@HHPAVCStringList@@PAV1@@@QBEXAAPAU__POSITION@@AAHAAPAVCStringList@@@Z ; CMap<int,int,CStringList *,CStringList *>::GetNextAssoc
PUBLIC	?InitHashTable@?$CMap@HHPAVCStringList@@PAV1@@@QAEXIH@Z ; CMap<int,int,CStringList *,CStringList *>::InitHashTable
PUBLIC	?NewAssoc@?$CMap@HHPAVCStringList@@PAV1@@@IAEPAVCAssoc@1@H@Z ; CMap<int,int,CStringList *,CStringList *>::NewAssoc
PUBLIC	?GetAssocAt@?$CMap@HHPAVCStringList@@PAV1@@@IBEPAVCAssoc@1@HAAI0@Z ; CMap<int,int,CStringList *,CStringList *>::GetAssocAt
PUBLIC	??1?$CMap@HHPAVCStringList@@PAV1@@@UAE@XZ	; CMap<int,int,CStringList *,CStringList *>::~CMap<int,int,CStringList *,CStringList *>
PUBLIC	?Serialize@?$CMap@HHPAVCStringList@@PAV1@@@UAEXAAVCArchive@@@Z ; CMap<int,int,CStringList *,CStringList *>::Serialize
PUBLIC	??_G?$CMap@HHPAVCStringList@@PAV1@@@UAEPAXI@Z	; CMap<int,int,CStringList *,CStringList *>::`scalar deleting destructor'
PUBLIC	??_GCItemInfo@@UAEPAXI@Z			; CItemInfo::`scalar deleting destructor'
PUBLIC	??0CToolandRButtonGrid_ListCtrl@@QAE@XZ		; CToolandRButtonGrid_ListCtrl::CToolandRButtonGrid_ListCtrl
PUBLIC	?InitializeGrid@CToolandRButtonGrid_ListCtrl@@QAEXXZ ; CToolandRButtonGrid_ListCtrl::InitializeGrid
PUBLIC	?CreateDragImageEx@CToolandRButtonGrid_ListCtrl@@UAEPAVCImageList@@H@Z ; CToolandRButtonGrid_ListCtrl::CreateDragImageEx
PUBLIC	?OnControlLButtonDown@CToolandRButtonGrid_ListCtrl@@UAEXIVCPoint@@AAUtagLVHITTESTINFO@@@Z ; CToolandRButtonGrid_ListCtrl::OnControlLButtonDown
PUBLIC	?OnUpdateListViewItem@CToolandRButtonGrid_ListCtrl@@UAEXPAVCTreeItem@CSuperGridCtrl@@PAUtagLVITEMA@@@Z ; CToolandRButtonGrid_ListCtrl::OnUpdateListViewItem
PUBLIC	?CopyData@CToolandRButtonGrid_ListCtrl@@UAEPAVCItemInfo@@PAV2@@Z ; CToolandRButtonGrid_ListCtrl::CopyData
PUBLIC	?GetIcon@CToolandRButtonGrid_ListCtrl@@UAEHPBVCTreeItem@CSuperGridCtrl@@@Z ; CToolandRButtonGrid_ListCtrl::GetIcon
PUBLIC	?GetCellRGB@CToolandRButtonGrid_ListCtrl@@UAEKXZ ; CToolandRButtonGrid_ListCtrl::GetCellRGB
PUBLIC	?OnItemExpanding@CToolandRButtonGrid_ListCtrl@@UAEHPAVCTreeItem@CSuperGridCtrl@@H@Z ; CToolandRButtonGrid_ListCtrl::OnItemExpanding
PUBLIC	?OnItemExpanded@CToolandRButtonGrid_ListCtrl@@UAEHPAVCTreeItem@CSuperGridCtrl@@H@Z ; CToolandRButtonGrid_ListCtrl::OnItemExpanded
PUBLIC	?OnCollapsing@CToolandRButtonGrid_ListCtrl@@UAEHPAVCTreeItem@CSuperGridCtrl@@@Z ; CToolandRButtonGrid_ListCtrl::OnCollapsing
PUBLIC	?OnItemCollapsed@CToolandRButtonGrid_ListCtrl@@UAEHPAVCTreeItem@CSuperGridCtrl@@@Z ; CToolandRButtonGrid_ListCtrl::OnItemCollapsed
PUBLIC	?OnDeleteItem@CToolandRButtonGrid_ListCtrl@@UAEHPAVCTreeItem@CSuperGridCtrl@@H@Z ; CToolandRButtonGrid_ListCtrl::OnDeleteItem
PUBLIC	?OnVkReturn@CToolandRButtonGrid_ListCtrl@@UAEHXZ ; CToolandRButtonGrid_ListCtrl::OnVkReturn
PUBLIC	?OnItemLButtonDown@CToolandRButtonGrid_ListCtrl@@UAEHAAUtagLVHITTESTINFO@@@Z ; CToolandRButtonGrid_ListCtrl::OnItemLButtonDown
PUBLIC	?GetListItemInfo@CToolandRButtonGrid_ListCtrl@@QAE?AV?$CStringT@DV?$StrTraitMFC_DLL@DV?$ChTraitsCRT@D@ATL@@@@@ATL@@XZ ; CToolandRButtonGrid_ListCtrl::GetListItemInfo
PUBLIC	??1CToolandRButtonGrid_ListCtrl@@UAE@XZ		; CToolandRButtonGrid_ListCtrl::~CToolandRButtonGrid_ListCtrl
PUBLIC	?InsertSavedItemInfo@CToolandRButtonGrid_ListCtrl@@QAEXABV?$CStringT@DV?$StrTraitMFC_DLL@DV?$ChTraitsCRT@D@ATL@@@@@ATL@@00@Z ; CToolandRButtonGrid_ListCtrl::InsertSavedItemInfo
PUBLIC	?SetListItemInfoMgrObject@CToolandRButtonGrid_ListCtrl@@QAEXPAVCToolandRButtonItemMgr@@PBDPAVCNumericalInquiryOptionDlg@@@Z ; CToolandRButtonGrid_ListCtrl::SetListItemInfoMgrObject
PUBLIC	?InitDropTarget@CToolandRButtonGrid_ListCtrl@@QAEXXZ ; CToolandRButtonGrid_ListCtrl::InitDropTarget
PUBLIC	?ShowList@CToolandRButtonGrid_ListCtrl@@IAEPAVCComboBox@@HHPAVCStringList@@@Z ; CToolandRButtonGrid_ListCtrl::ShowList
PUBLIC	?CalcHorzExtent@CToolandRButtonGrid_ListCtrl@@IAEHPAVCWnd@@PAVCStringList@@@Z ; CToolandRButtonGrid_ListCtrl::CalcHorzExtent
PUBLIC	?OnCreate@CToolandRButtonGrid_ListCtrl@@IAEHPAUtagCREATESTRUCTA@@@Z ; CToolandRButtonGrid_ListCtrl::OnCreate
PUBLIC	?OnDblclk@CToolandRButtonGrid_ListCtrl@@IAEXPAUtagNMHDR@@PAJ@Z ; CToolandRButtonGrid_ListCtrl::OnDblclk
PUBLIC	?OnKeydown@CToolandRButtonGrid_ListCtrl@@IAEXPAUtagNMHDR@@PAJ@Z ; CToolandRButtonGrid_ListCtrl::OnKeydown
PUBLIC	?OnDragChartData@CToolandRButtonGrid_ListCtrl@@IAEJIJ@Z ; CToolandRButtonGrid_ListCtrl::OnDragChartData
PUBLIC	?OnDropChartData@CToolandRButtonGrid_ListCtrl@@IAEJIJ@Z ; CToolandRButtonGrid_ListCtrl::OnDropChartData
PUBLIC	?GetThisMessageMap@CToolandRButtonGrid_ListCtrl@@KGPBUAFX_MSGMAP@@XZ ; CToolandRButtonGrid_ListCtrl::GetThisMessageMap
PUBLIC	?GetMessageMap@CToolandRButtonGrid_ListCtrl@@MBEPBUAFX_MSGMAP@@XZ ; CToolandRButtonGrid_ListCtrl::GetMessageMap
PUBLIC	?SetComboListWhen_Extension_Recuction_Item@CToolandRButtonGrid_ListCtrl@@AAEXHHPAVCStringList@@@Z ; CToolandRButtonGrid_ListCtrl::SetComboListWhen_Extension_Recuction_Item
PUBLIC	?InsertRoot@CToolandRButtonGrid_ListCtrl@@AAEXXZ ; CToolandRButtonGrid_ListCtrl::InsertRoot
PUBLIC	?InsertColumnHeader@CToolandRButtonGrid_ListCtrl@@AAEXXZ ; CToolandRButtonGrid_ListCtrl::InsertColumnHeader
PUBLIC	?SetRootItem@CToolandRButtonGrid_ListCtrl@@AAEXABV?$CStringT@DV?$StrTraitMFC_DLL@DV?$ChTraitsCRT@D@ATL@@@@@ATL@@PAVCItemInfo@@@Z ; CToolandRButtonGrid_ListCtrl::SetRootItem
PUBLIC	??_GCToolandRButtonGrid_ListCtrl@@UAEPAXI@Z	; CToolandRButtonGrid_ListCtrl::`scalar deleting destructor'
PUBLIC	??$SerializeElements@H@@YGXAAVCArchive@@PAHH@Z	; SerializeElements<int>
PUBLIC	??$SerializeElements@W4CONTROLTYPE@CItemInfo@@@@YGXAAVCArchive@@PAW4CONTROLTYPE@CItemInfo@@H@Z ; SerializeElements<enum CItemInfo::CONTROLTYPE>
PUBLIC	??$SerializeElements@K@@YGXAAVCArchive@@PAKH@Z	; SerializeElements<unsigned long>
PUBLIC	??$SerializeElements@PAVCStringList@@@@YGXAAVCArchive@@PAPAVCStringList@@H@Z ; SerializeElements<CStringList *>
PUBLIC	??$CompareElements@HH@@YGHPBH0@Z		; CompareElements<int,int>
PUBLIC	??_R0PAVCException@@@8				; CException * `RTTI Type Descriptor'
PUBLIC	??_C@_00CNPNBAHC@@				; `string'
PUBLIC	??_C@_0BP@OIEOKIDM@Exception?5thrown?5in?5destructor@ ; `string'
PUBLIC	??_C@_0BB@HBOOMJBF@?$CFTs?5?$CI?$CFTs?3?$CFd?$CJ?6?$CFTs@ ; `string'
PUBLIC	??_C@_0N@OMEMOKLE@?$CFTs?5?$CI?$CFTs?3?$CFd?$CJ@ ; `string'
PUBLIC	??_C@_0HD@BPLDAFHE@C?3?2Program?5Files?5?$CIx86?$CJ?2Microsof@ ; `string'
PUBLIC	??_R0?AVCObject@@@8				; CObject `RTTI Type Descriptor'
PUBLIC	??_R3CObject@@8					; CObject::`RTTI Class Hierarchy Descriptor'
PUBLIC	??_R2CObject@@8					; CObject::`RTTI Base Class Array'
PUBLIC	??_R1A@?0A@EA@CObject@@8			; CObject::`RTTI Base Class Descriptor at (0,-1,0,64)'
PUBLIC	??_R1A@?0A@EA@CWnd@@8				; CWnd::`RTTI Base Class Descriptor at (0,-1,0,64)'
PUBLIC	??_R0?AVCWnd@@@8				; CWnd `RTTI Type Descriptor'
PUBLIC	??_R3CWnd@@8					; CWnd::`RTTI Class Hierarchy Descriptor'
PUBLIC	??_R2CWnd@@8					; CWnd::`RTTI Base Class Array'
PUBLIC	??_R1A@?0A@EA@CCmdTarget@@8			; CCmdTarget::`RTTI Base Class Descriptor at (0,-1,0,64)'
PUBLIC	??_R0?AVCCmdTarget@@@8				; CCmdTarget `RTTI Type Descriptor'
PUBLIC	??_R3CCmdTarget@@8				; CCmdTarget::`RTTI Class Hierarchy Descriptor'
PUBLIC	??_R2CCmdTarget@@8				; CCmdTarget::`RTTI Base Class Array'
PUBLIC	??_R0?AVCListCtrl@@@8				; CListCtrl `RTTI Type Descriptor'
PUBLIC	??_R3CListCtrl@@8				; CListCtrl::`RTTI Class Hierarchy Descriptor'
PUBLIC	??_R2CListCtrl@@8				; CListCtrl::`RTTI Base Class Array'
PUBLIC	??_R1A@?0A@EA@CListCtrl@@8			; CListCtrl::`RTTI Base Class Descriptor at (0,-1,0,64)'
PUBLIC	??_C@_0BA@ENJOCHIO@LoadResourceDLL@		; `string'
PUBLIC	??_7?$CMap@HHW4CONTROLTYPE@CItemInfo@@AAW412@@@6B@ ; CMap<int,int,enum CItemInfo::CONTROLTYPE,enum CItemInfo::CONTROLTYPE &>::`vftable'
PUBLIC	??_7?$CMap@HHKAAK@@6B@				; CMap<int,int,unsigned long,unsigned long &>::`vftable'
PUBLIC	??_7?$CMap@HHPAVCStringList@@PAV1@@@6B@		; CMap<int,int,CStringList *,CStringList *>::`vftable'
PUBLIC	??_7CItemInfo@@6B@				; CItemInfo::`vftable'
PUBLIC	??_7CToolandRButtonGrid_ListCtrl@@6B@		; CToolandRButtonGrid_ListCtrl::`vftable'
PUBLIC	??_C@_0CA@MGPAGIKN@Ole?5Register?5Drop?5Target?5Failed@ ; `string'
PUBLIC	??_C@_01ICJEACDI@?$DL@				; `string'
PUBLIC	??_C@_04BGCMBJDA@Item@				; `string'
PUBLIC	??_C@_02PCIJFNDE@?$AN?6@			; `string'
PUBLIC	??_C@_03FKLEIKFA@10?$CF@			; `string'
PUBLIC	??_C@_03EIABCFLO@20?$CF@			; `string'
PUBLIC	??_C@_03PALNECNL@30?$CF@			; `string'
PUBLIC	??_C@_03GNGKHKGC@40?$CF@			; `string'
PUBLIC	??_C@_03NFNGBNAH@50?$CF@			; `string'
PUBLIC	??_R4CItemInfo@@6B@				; CItemInfo::`RTTI Complete Object Locator'
PUBLIC	??_R0?AVCItemInfo@@@8				; CItemInfo `RTTI Type Descriptor'
PUBLIC	??_R3CItemInfo@@8				; CItemInfo::`RTTI Class Hierarchy Descriptor'
PUBLIC	??_R2CItemInfo@@8				; CItemInfo::`RTTI Base Class Array'
PUBLIC	??_R1A@?0A@EA@CItemInfo@@8			; CItemInfo::`RTTI Base Class Descriptor at (0,-1,0,64)'
PUBLIC	??_R4?$CMap@HHW4CONTROLTYPE@CItemInfo@@AAW412@@@6B@ ; CMap<int,int,enum CItemInfo::CONTROLTYPE,enum CItemInfo::CONTROLTYPE &>::`RTTI Complete Object Locator'
PUBLIC	??_R0?AV?$CMap@HHW4CONTROLTYPE@CItemInfo@@AAW412@@@@8 ; CMap<int,int,enum CItemInfo::CONTROLTYPE,enum CItemInfo::CONTROLTYPE &> `RTTI Type Descriptor'
PUBLIC	??_R3?$CMap@HHW4CONTROLTYPE@CItemInfo@@AAW412@@@8 ; CMap<int,int,enum CItemInfo::CONTROLTYPE,enum CItemInfo::CONTROLTYPE &>::`RTTI Class Hierarchy Descriptor'
PUBLIC	??_R2?$CMap@HHW4CONTROLTYPE@CItemInfo@@AAW412@@@8 ; CMap<int,int,enum CItemInfo::CONTROLTYPE,enum CItemInfo::CONTROLTYPE &>::`RTTI Base Class Array'
PUBLIC	??_R1A@?0A@EA@?$CMap@HHW4CONTROLTYPE@CItemInfo@@AAW412@@@8 ; CMap<int,int,enum CItemInfo::CONTROLTYPE,enum CItemInfo::CONTROLTYPE &>::`RTTI Base Class Descriptor at (0,-1,0,64)'
PUBLIC	??_R4?$CMap@HHKAAK@@6B@				; CMap<int,int,unsigned long,unsigned long &>::`RTTI Complete Object Locator'
PUBLIC	??_R0?AV?$CMap@HHKAAK@@@8			; CMap<int,int,unsigned long,unsigned long &> `RTTI Type Descriptor'
PUBLIC	??_R3?$CMap@HHKAAK@@8				; CMap<int,int,unsigned long,unsigned long &>::`RTTI Class Hierarchy Descriptor'
PUBLIC	??_R2?$CMap@HHKAAK@@8				; CMap<int,int,unsigned long,unsigned long &>::`RTTI Base Class Array'
PUBLIC	??_R1A@?0A@EA@?$CMap@HHKAAK@@8			; CMap<int,int,unsigned long,unsigned long &>::`RTTI Base Class Descriptor at (0,-1,0,64)'
PUBLIC	??_R4?$CMap@HHPAVCStringList@@PAV1@@@6B@	; CMap<int,int,CStringList *,CStringList *>::`RTTI Complete Object Locator'
PUBLIC	??_R0?AV?$CMap@HHPAVCStringList@@PAV1@@@@8	; CMap<int,int,CStringList *,CStringList *> `RTTI Type Descriptor'
PUBLIC	??_R3?$CMap@HHPAVCStringList@@PAV1@@@8		; CMap<int,int,CStringList *,CStringList *>::`RTTI Class Hierarchy Descriptor'
PUBLIC	??_R2?$CMap@HHPAVCStringList@@PAV1@@@8		; CMap<int,int,CStringList *,CStringList *>::`RTTI Base Class Array'
PUBLIC	??_R1A@?0A@EA@?$CMap@HHPAVCStringList@@PAV1@@@8	; CMap<int,int,CStringList *,CStringList *>::`RTTI Base Class Descriptor at (0,-1,0,64)'
PUBLIC	??_R4CToolandRButtonGrid_ListCtrl@@6B@		; CToolandRButtonGrid_ListCtrl::`RTTI Complete Object Locator'
PUBLIC	??_R0?AVCToolandRButtonGrid_ListCtrl@@@8	; CToolandRButtonGrid_ListCtrl `RTTI Type Descriptor'
PUBLIC	??_R3CToolandRButtonGrid_ListCtrl@@8		; CToolandRButtonGrid_ListCtrl::`RTTI Class Hierarchy Descriptor'
PUBLIC	??_R2CToolandRButtonGrid_ListCtrl@@8		; CToolandRButtonGrid_ListCtrl::`RTTI Base Class Array'
PUBLIC	??_R1A@?0A@EA@CToolandRButtonGrid_ListCtrl@@8	; CToolandRButtonGrid_ListCtrl::`RTTI Base Class Descriptor at (0,-1,0,64)'
PUBLIC	??_R1A@?0A@EA@CSuperGridCtrl@@8			; CSuperGridCtrl::`RTTI Base Class Descriptor at (0,-1,0,64)'
PUBLIC	??_R0?AVCSuperGridCtrl@@@8			; CSuperGridCtrl `RTTI Type Descriptor'
PUBLIC	??_R3CSuperGridCtrl@@8				; CSuperGridCtrl::`RTTI Class Hierarchy Descriptor'
PUBLIC	??_R2CSuperGridCtrl@@8				; CSuperGridCtrl::`RTTI Base Class Array'
EXTRN	??2@YAPAXI@Z:PROC				; operator new
EXTRN	??3@YAXPAX@Z:PROC				; operator delete
EXTRN	?__global_delete@@YAXPAXI@Z:PROC		; __global_delete
EXTRN	??_U@YAPAXI@Z:PROC				; operator new[]
EXTRN	??_V@YAXPAX@Z:PROC				; operator delete[]
EXTRN	___std_terminate:PROC
EXTRN	__imp__GetProcAddress@8:PROC
EXTRN	__imp__GetTextExtentPoint32A@16:PROC
EXTRN	__imp__SendMessageA@16:PROC
EXTRN	__imp__PostMessageA@16:PROC
EXTRN	__imp__EnableWindow@8:PROC
EXTRN	__imp__UpdateWindow@4:PROC
EXTRN	__imp__GetDC@4:PROC
EXTRN	__imp__ReleaseDC@8:PROC
EXTRN	__imp__InvalidateRect@12:PROC
EXTRN	__imp__GetClientRect@8:PROC
EXTRN	__imp__ImageList_GetIconSize@12:PROC
EXTRN	?AfxThrowInvalidArgException@@YGXXZ:PROC	; AfxThrowInvalidArgException
EXTRN	?AfxThrowArchiveException@@YGXHPBD@Z:PROC	; AfxThrowArchiveException
EXTRN	?GetRuntimeClass@CObject@@UBEPAUCRuntimeClass@@XZ:PROC ; CObject::GetRuntimeClass
EXTRN	__imp_?GetBuffer@?$CSimpleStringT@D$00@ATL@@QAEPADH@Z:PROC
EXTRN	__imp_??0?$CStringT@DV?$StrTraitMFC_DLL@DV?$ChTraitsCRT@D@ATL@@@@@ATL@@QAE@XZ:PROC
EXTRN	__imp_??0?$CStringT@DV?$StrTraitMFC_DLL@DV?$ChTraitsCRT@D@ATL@@@@@ATL@@QAE@ABV01@@Z:PROC
EXTRN	__imp_??0?$CStringT@DV?$StrTraitMFC_DLL@DV?$ChTraitsCRT@D@ATL@@@@@ATL@@QAE@PBD@Z:PROC
EXTRN	__imp_??1?$CStringT@DV?$StrTraitMFC_DLL@DV?$ChTraitsCRT@D@ATL@@@@@ATL@@QAE@XZ:PROC
EXTRN	__imp_??4?$CStringT@DV?$StrTraitMFC_DLL@DV?$ChTraitsCRT@D@ATL@@@@@ATL@@QAEAAV01@ABV01@@Z:PROC
EXTRN	__imp_??4?$CStringT@DV?$StrTraitMFC_DLL@DV?$ChTraitsCRT@D@ATL@@@@@ATL@@QAEAAV01@PBD@Z:PROC
EXTRN	__imp_??Y?$CStringT@DV?$StrTraitMFC_DLL@DV?$ChTraitsCRT@D@ATL@@@@@ATL@@QAEAAV01@PBD@Z:PROC
EXTRN	__imp_?Compare@?$CStringT@DV?$StrTraitMFC_DLL@DV?$ChTraitsCRT@D@ATL@@@@@ATL@@QBEHPBD@Z:PROC
EXTRN	__imp_?CompareNoCase@?$CStringT@DV?$StrTraitMFC_DLL@DV?$ChTraitsCRT@D@ATL@@@@@ATL@@QBEHPBD@Z:PROC
EXTRN	__imp_?Format@?$CStringT@DV?$StrTraitMFC_DLL@DV?$ChTraitsCRT@D@ATL@@@@@ATL@@QAAXPBDZZ:PROC
EXTRN	__imp_?LoadStringA@?$CStringT@DV?$StrTraitMFC_DLL@DV?$ChTraitsCRT@D@ATL@@@@@ATL@@QAEHI@Z:PROC
EXTRN	?Read@CArchive@@QAEIPAXI@Z:PROC			; CArchive::Read
EXTRN	?Write@CArchive@@QAEXPBXI@Z:PROC		; CArchive::Write
EXTRN	?ReadCount@CArchive@@QAEKXZ:PROC		; CArchive::ReadCount
EXTRN	?WriteCount@CArchive@@QAEXK@Z:PROC		; CArchive::WriteCount
EXTRN	??0CStringArray@@QAE@XZ:PROC			; CStringArray::CStringArray
EXTRN	?SetAtGrow@CStringArray@@QAEXHABV?$CStringT@DV?$StrTraitMFC_DLL@DV?$ChTraitsCRT@D@ATL@@@@@ATL@@@Z:PROC ; CStringArray::SetAtGrow
EXTRN	?Copy@CStringArray@@QAEXABV1@@Z:PROC		; CStringArray::Copy
EXTRN	??1CStringArray@@UAE@XZ:PROC			; CStringArray::~CStringArray
EXTRN	??0CStringList@@QAE@H@Z:PROC			; CStringList::CStringList
EXTRN	?AddTail@CStringList@@QAEPAU__POSITION@@PBD@Z:PROC ; CStringList::AddTail
EXTRN	?AddTail@CStringList@@QAEXPAV1@@Z:PROC		; CStringList::AddTail
EXTRN	?RemoveAll@CStringList@@QAEXXZ:PROC		; CStringList::RemoveAll
EXTRN	?AfxGetModuleState@@YGPAVAFX_MODULE_STATE@@XZ:PROC ; AfxGetModuleState
EXTRN	?AfxGetStaticModuleState@@YGPAVAFX_MODULE_STATE@@XZ:PROC ; AfxGetStaticModuleState
EXTRN	?Create@CPlex@@SGPAU1@AAPAU1@II@Z:PROC		; CPlex::Create
EXTRN	?FreeDataChain@CPlex@@QAEXXZ:PROC		; CPlex::FreeDataChain
EXTRN	?FromHandle@CGdiObject@@SGPAV1@PAX@Z:PROC	; CGdiObject::FromHandle
EXTRN	?FromHandle@CDC@@SGPAV1@PAUHDC__@@@Z:PROC	; CDC::FromHandle
EXTRN	??0CImageList@@QAE@XZ:PROC			; CImageList::CImageList
EXTRN	?Create@CImageList@@QAEHIHHK@Z:PROC		; CImageList::Create
EXTRN	?FromHandle@CImageList@@SGPAV1@PAU_IMAGELIST@@@Z:PROC ; CImageList::FromHandle
EXTRN	??1CImageList@@UAE@XZ:PROC			; CImageList::~CImageList
EXTRN	?BeginWaitCursor@CCmdTarget@@QAEXXZ:PROC	; CCmdTarget::BeginWaitCursor
EXTRN	?EndWaitCursor@CCmdTarget@@QAEXXZ:PROC		; CCmdTarget::EndWaitCursor
EXTRN	?OnCmdMsg@CCmdTarget@@UAEHIHPAXPAUAFX_CMDHANDLERINFO@@@Z:PROC ; CCmdTarget::OnCmdMsg
EXTRN	?IsInvokeAllowed@CCmdTarget@@UAEHJ@Z:PROC	; CCmdTarget::IsInvokeAllowed
EXTRN	?GetDispatchIID@CCmdTarget@@UAEHPAU_GUID@@@Z:PROC ; CCmdTarget::GetDispatchIID
EXTRN	?GetTypeInfoCount@CCmdTarget@@UAEIXZ:PROC	; CCmdTarget::GetTypeInfoCount
EXTRN	?GetTypeLibCache@CCmdTarget@@UAEPAVCTypeLibCache@@XZ:PROC ; CCmdTarget::GetTypeLibCache
EXTRN	?GetTypeLib@CCmdTarget@@UAEJKPAPAUITypeLib@@@Z:PROC ; CCmdTarget::GetTypeLib
EXTRN	?GetCommandMap@CCmdTarget@@MBEPBUAFX_OLECMDMAP@@XZ:PROC ; CCmdTarget::GetCommandMap
EXTRN	?GetDispatchMap@CCmdTarget@@MBEPBUAFX_DISPMAP@@XZ:PROC ; CCmdTarget::GetDispatchMap
EXTRN	?GetConnectionMap@CCmdTarget@@MBEPBUAFX_CONNECTIONMAP@@XZ:PROC ; CCmdTarget::GetConnectionMap
EXTRN	?GetEventSinkMap@CCmdTarget@@MBEPBUAFX_EVENTSINKMAP@@XZ:PROC ; CCmdTarget::GetEventSinkMap
EXTRN	?OnCreateAggregates@CCmdTarget@@UAEHXZ:PROC	; CCmdTarget::OnCreateAggregates
EXTRN	?GetInterfaceHook@CCmdTarget@@UAEPAUIUnknown@@PBX@Z:PROC ; CCmdTarget::GetInterfaceHook
EXTRN	?GetExtraConnectionPoints@CCmdTarget@@MAEHPAVCPtrArray@@@Z:PROC ; CCmdTarget::GetExtraConnectionPoints
EXTRN	?GetConnectionHook@CCmdTarget@@MAEPAUIConnectionPoint@@ABU_GUID@@@Z:PROC ; CCmdTarget::GetConnectionHook
EXTRN	?ModifyStyleEx@CWnd@@QAEHKKI@Z:PROC		; CWnd::ModifyStyleEx
EXTRN	?PreSubclassWindow@CWnd@@UAEXXZ:PROC		; CWnd::PreSubclassWindow
EXTRN	?Create@CWnd@@UAEHPBD0KABUtagRECT@@PAV1@IPAUCCreateContext@@@Z:PROC ; CWnd::Create
EXTRN	?CreateEx@CWnd@@UAEHKPBD0KHHHHPAUHWND__@@PAUHMENU__@@PAX@Z:PROC ; CWnd::CreateEx
EXTRN	?CreateEx@CWnd@@UAEHKPBD0KABUtagRECT@@PAV1@IPAX@Z:PROC ; CWnd::CreateEx
EXTRN	?DestroyWindow@CWnd@@UAEHXZ:PROC		; CWnd::DestroyWindow
EXTRN	?CalcWindowRect@CWnd@@UAEXPAUtagRECT@@I@Z:PROC	; CWnd::CalcWindowRect
EXTRN	?GetDlgItem@CWnd@@QBEPAV1@H@Z:PROC		; CWnd::GetDlgItem
EXTRN	?GetMenu@CWnd@@UBEPAVCMenu@@XZ:PROC		; CWnd::GetMenu
EXTRN	?SetMenu@CWnd@@UAEHPAVCMenu@@@Z:PROC		; CWnd::SetMenu
EXTRN	?OnToolHitTest@CWnd@@UBEHVCPoint@@PAUtagTOOLINFOA@@@Z:PROC ; CWnd::OnToolHitTest
EXTRN	?GetScrollBarCtrl@CWnd@@UBEPAVCScrollBar@@H@Z:PROC ; CWnd::GetScrollBarCtrl
EXTRN	?WinHelpA@CWnd@@UAEXKI@Z:PROC			; CWnd::WinHelpA
EXTRN	?HtmlHelpA@CWnd@@UAEXKI@Z:PROC			; CWnd::HtmlHelpA
EXTRN	?WinHelpInternal@CWnd@@UAEXKI@Z:PROC		; CWnd::WinHelpInternal
EXTRN	?ContinueModal@CWnd@@UAEHXZ:PROC		; CWnd::ContinueModal
EXTRN	?EndModalLoop@CWnd@@UAEXH@Z:PROC		; CWnd::EndModalLoop
EXTRN	?OnDrawIconicThumbnailOrLivePreview@CWnd@@UAEXAAVCDC@@VCRect@@VCSize@@HAAH@Z:PROC ; CWnd::OnDrawIconicThumbnailOrLivePreview
EXTRN	?GetInterfaceMap@CWnd@@MBEPBUAFX_INTERFACEMAP@@XZ:PROC ; CWnd::GetInterfaceMap
EXTRN	?EnsureStdObj@CWnd@@UAEJXZ:PROC			; CWnd::EnsureStdObj
EXTRN	?get_accParent@CWnd@@UAEJPAPAUIDispatch@@@Z:PROC ; CWnd::get_accParent
EXTRN	?get_accChildCount@CWnd@@UAEJPAJ@Z:PROC		; CWnd::get_accChildCount
EXTRN	?get_accChild@CWnd@@UAEJUtagVARIANT@@PAPAUIDispatch@@@Z:PROC ; CWnd::get_accChild
EXTRN	?get_accName@CWnd@@UAEJUtagVARIANT@@PAPA_W@Z:PROC ; CWnd::get_accName
EXTRN	?get_accValue@CWnd@@UAEJUtagVARIANT@@PAPA_W@Z:PROC ; CWnd::get_accValue
EXTRN	?get_accDescription@CWnd@@UAEJUtagVARIANT@@PAPA_W@Z:PROC ; CWnd::get_accDescription
EXTRN	?get_accRole@CWnd@@UAEJUtagVARIANT@@PAU2@@Z:PROC ; CWnd::get_accRole
EXTRN	?get_accState@CWnd@@UAEJUtagVARIANT@@PAU2@@Z:PROC ; CWnd::get_accState
EXTRN	?get_accHelp@CWnd@@UAEJUtagVARIANT@@PAPA_W@Z:PROC ; CWnd::get_accHelp
EXTRN	?get_accHelpTopic@CWnd@@UAEJPAPA_WUtagVARIANT@@PAJ@Z:PROC ; CWnd::get_accHelpTopic
EXTRN	?get_accKeyboardShortcut@CWnd@@UAEJUtagVARIANT@@PAPA_W@Z:PROC ; CWnd::get_accKeyboardShortcut
EXTRN	?get_accFocus@CWnd@@UAEJPAUtagVARIANT@@@Z:PROC	; CWnd::get_accFocus
EXTRN	?get_accSelection@CWnd@@UAEJPAUtagVARIANT@@@Z:PROC ; CWnd::get_accSelection
EXTRN	?get_accDefaultAction@CWnd@@UAEJUtagVARIANT@@PAPA_W@Z:PROC ; CWnd::get_accDefaultAction
EXTRN	?accSelect@CWnd@@UAEJJUtagVARIANT@@@Z:PROC	; CWnd::accSelect
EXTRN	?accLocation@CWnd@@UAEJPAJ000UtagVARIANT@@@Z:PROC ; CWnd::accLocation
EXTRN	?accNavigate@CWnd@@UAEJJUtagVARIANT@@PAU2@@Z:PROC ; CWnd::accNavigate
EXTRN	?accHitTest@CWnd@@UAEJJJPAUtagVARIANT@@@Z:PROC	; CWnd::accHitTest
EXTRN	?accDoDefaultAction@CWnd@@UAEJUtagVARIANT@@@Z:PROC ; CWnd::accDoDefaultAction
EXTRN	?put_accName@CWnd@@UAEJUtagVARIANT@@PA_W@Z:PROC	; CWnd::put_accName
EXTRN	?put_accValue@CWnd@@UAEJUtagVARIANT@@PA_W@Z:PROC ; CWnd::put_accValue
EXTRN	?SetProxy@CWnd@@UAEJPAUIAccessibleProxy@@@Z:PROC ; CWnd::SetProxy
EXTRN	?CreateAccessibleProxy@CWnd@@UAEJIJPAJ@Z:PROC	; CWnd::CreateAccessibleProxy
EXTRN	?OnCommand@CWnd@@MAEHIJ@Z:PROC			; CWnd::OnCommand
EXTRN	?OnNotify@CWnd@@MAEHIJPAJ@Z:PROC		; CWnd::OnNotify
EXTRN	?GetSuperWndProcAddr@CWnd@@MAEPAP6GJPAUHWND__@@IIJ@ZXZ:PROC ; CWnd::GetSuperWndProcAddr
EXTRN	?OnAmbientProperty@CWnd@@UAEHPAVCOleControlSite@@JPAUtagVARIANT@@@Z:PROC ; CWnd::OnAmbientProperty
EXTRN	?WindowProc@CWnd@@MAEJIIJ@Z:PROC		; CWnd::WindowProc
EXTRN	?OnWndMsg@CWnd@@MAEHIIJPAJ@Z:PROC		; CWnd::OnWndMsg
EXTRN	?DefWindowProcA@CWnd@@MAEJIIJ@Z:PROC		; CWnd::DefWindowProcA
EXTRN	?PostNcDestroy@CWnd@@MAEXXZ:PROC		; CWnd::PostNcDestroy
EXTRN	?OnTouchInputs@CWnd@@MAEHIPAUtagTOUCHINPUT@@@Z:PROC ; CWnd::OnTouchInputs
EXTRN	?OnTouchInput@CWnd@@MAEHVCPoint@@HHPAUtagTOUCHINPUT@@@Z:PROC ; CWnd::OnTouchInput
EXTRN	?GetGestureStatus@CWnd@@MAEKVCPoint@@@Z:PROC	; CWnd::GetGestureStatus
EXTRN	?OnGestureZoom@CWnd@@MAEHVCPoint@@J@Z:PROC	; CWnd::OnGestureZoom
EXTRN	?OnGesturePan@CWnd@@MAEHVCPoint@@0@Z:PROC	; CWnd::OnGesturePan
EXTRN	?OnGestureRotate@CWnd@@MAEHVCPoint@@N@Z:PROC	; CWnd::OnGestureRotate
EXTRN	?OnGestureTwoFingerTap@CWnd@@MAEHVCPoint@@@Z:PROC ; CWnd::OnGestureTwoFingerTap
EXTRN	?OnGesturePressAndTap@CWnd@@MAEHVCPoint@@J@Z:PROC ; CWnd::OnGesturePressAndTap
EXTRN	?ResizeDynamicLayout@CWnd@@MAEXXZ:PROC		; CWnd::ResizeDynamicLayout
EXTRN	?CheckAutoCenter@CWnd@@UAEHXZ:PROC		; CWnd::CheckAutoCenter
EXTRN	?IsFrameWnd@CWnd@@UBEHXZ:PROC			; CWnd::IsFrameWnd
EXTRN	?OnFinalRelease@CWnd@@UAEXXZ:PROC		; CWnd::OnFinalRelease
EXTRN	?CreateControlContainer@CWnd@@MAEHPAPAVCOleControlContainer@@@Z:PROC ; CWnd::CreateControlContainer
EXTRN	?CreateControlSite@CWnd@@MAEHPAVCOleControlContainer@@PAPAVCOleControlSite@@IABU_GUID@@@Z:PROC ; CWnd::CreateControlSite
EXTRN	?SetOccDialogInfo@CWnd@@MAEHPAU_AFX_OCC_DIALOG_INFO@@@Z:PROC ; CWnd::SetOccDialogInfo
EXTRN	?GetOccDialogInfo@CWnd@@MAEPAU_AFX_OCC_DIALOG_INFO@@XZ:PROC ; CWnd::GetOccDialogInfo
EXTRN	?AfxMessageBox@@YGHPBDII@Z:PROC			; AfxMessageBox
EXTRN	?Register@COleDropTarget@@QAEHPAVCWnd@@@Z:PROC	; COleDropTarget::Register
EXTRN	?GetRuntimeClass@CListCtrl@@UBEPAUCRuntimeClass@@XZ:PROC ; CListCtrl::GetRuntimeClass
EXTRN	?GetItemRect@CListCtrl@@QBEHHPAUtagRECT@@I@Z:PROC ; CListCtrl::GetItemRect
EXTRN	?SetItemState@CListCtrl@@QAEHHII@Z:PROC		; CListCtrl::SetItemState
EXTRN	?GetItemText@CListCtrl@@QBE?AV?$CStringT@DV?$StrTraitMFC_DLL@DV?$ChTraitsCRT@D@ATL@@@@@ATL@@HH@Z:PROC ; CListCtrl::GetItemText
EXTRN	?GetSubItemRect@CListCtrl@@QBEHHHHAAVCRect@@@Z:PROC ; CListCtrl::GetSubItemRect
EXTRN	?OnChildNotify@CListCtrl@@MAEHIIJPAJ@Z:PROC	; CListCtrl::OnChildNotify
EXTRN	?GetMetaText@IMetaTable@@QAEPBDPAUHWND__@@W4E_CODEPAGE@1@PBDH@Z:PROC ; IMetaTable::GetMetaText
EXTRN	?GetLanguageText@IMetaTable@@QAEPBDPAUHWND__@@W4E_CODEPAGE@1@PBDH@Z:PROC ; IMetaTable::GetLanguageText
EXTRN	??_E?$CMap@HHW4CONTROLTYPE@CItemInfo@@AAW412@@@UAEPAXI@Z:PROC ; CMap<int,int,enum CItemInfo::CONTROLTYPE,enum CItemInfo::CONTROLTYPE &>::`vector deleting destructor'
EXTRN	??_E?$CMap@HHKAAK@@UAEPAXI@Z:PROC		; CMap<int,int,unsigned long,unsigned long &>::`vector deleting destructor'
EXTRN	??_E?$CMap@HHPAVCStringList@@PAV1@@@UAEPAXI@Z:PROC ; CMap<int,int,CStringList *,CStringList *>::`vector deleting destructor'
EXTRN	??_ECItemInfo@@UAEPAXI@Z:PROC			; CItemInfo::`vector deleting destructor'
EXTRN	??0CSuperGridCtrl@@QAE@XZ:PROC			; CSuperGridCtrl::CSuperGridCtrl
EXTRN	?OnUpdateListViewItem@CSuperGridCtrl@@UAEXPAVCTreeItem@1@PAUtagLVITEMA@@@Z:PROC ; CSuperGridCtrl::OnUpdateListViewItem
EXTRN	?CreateDragImageEx@CSuperGridCtrl@@UAEPAVCImageList@@H@Z:PROC ; CSuperGridCtrl::CreateDragImageEx
EXTRN	?OnVKMultiply@CSuperGridCtrl@@UAEHPAVCTreeItem@1@H@Z:PROC ; CSuperGridCtrl::OnVKMultiply
EXTRN	?OnVkSubTract@CSuperGridCtrl@@UAEHPAVCTreeItem@1@H@Z:PROC ; CSuperGridCtrl::OnVkSubTract
EXTRN	?OnVKAdd@CSuperGridCtrl@@UAEHPAVCTreeItem@1@H@Z:PROC ; CSuperGridCtrl::OnVKAdd
EXTRN	?InsertRootItem@CSuperGridCtrl@@QAEPAVCTreeItem@1@PAVCItemInfo@@@Z:PROC ; CSuperGridCtrl::InsertRootItem
EXTRN	?GetSelectedItem@CSuperGridCtrl@@QBEHXZ:PROC	; CSuperGridCtrl::GetSelectedItem
EXTRN	?GetTreeItem@CSuperGridCtrl@@QAEPAVCTreeItem@1@H@Z:PROC ; CSuperGridCtrl::GetTreeItem
EXTRN	?ItemHasChildren@CSuperGridCtrl@@QBEHPBVCTreeItem@1@@Z:PROC ; CSuperGridCtrl::ItemHasChildren
EXTRN	?IsCollapsed@CSuperGridCtrl@@QBEHPBVCTreeItem@1@@Z:PROC ; CSuperGridCtrl::IsCollapsed
EXTRN	?GetData@CSuperGridCtrl@@QAEPAVCItemInfo@@PBVCTreeItem@1@@Z:PROC ; CSuperGridCtrl::GetData
EXTRN	?InsertItem@CSuperGridCtrl@@QAEPAVCTreeItem@1@PAV21@PAVCItemInfo@@H@Z:PROC ; CSuperGridCtrl::InsertItem
EXTRN	?Collapse@CSuperGridCtrl@@QAEXPAVCTreeItem@1@@Z:PROC ; CSuperGridCtrl::Collapse
EXTRN	?Expand@CSuperGridCtrl@@QAEHPAVCTreeItem@1@H@Z:PROC ; CSuperGridCtrl::Expand
EXTRN	?ExpandAll@CSuperGridCtrl@@QAEXPAVCTreeItem@1@AAH@Z:PROC ; CSuperGridCtrl::ExpandAll
EXTRN	?DeleteItemEx@CSuperGridCtrl@@QAEXPAVCTreeItem@1@H@Z:PROC ; CSuperGridCtrl::DeleteItemEx
EXTRN	?PreTranslateMessage@CSuperGridCtrl@@UAEHPAUtagMSG@@@Z:PROC ; CSuperGridCtrl::PreTranslateMessage
EXTRN	?PreCreateWindow@CSuperGridCtrl@@MAEHAAUtagCREATESTRUCTA@@@Z:PROC ; CSuperGridCtrl::PreCreateWindow
EXTRN	?InsertOneItemToListCtrl@CSuperGridCtrl@@QAEXPAVCTreeItem@1@0PAVCItemInfo@@H@Z:PROC ; CSuperGridCtrl::InsertOneItemToListCtrl
EXTRN	?InsertRootItemToListCtrl@CSuperGridCtrl@@QAEXPAVCTreeItem@1@@Z:PROC ; CSuperGridCtrl::InsertRootItemToListCtrl
EXTRN	??1CSuperGridCtrl@@UAE@XZ:PROC			; CSuperGridCtrl::~CSuperGridCtrl
EXTRN	?OnCreate@CSuperGridCtrl@@IAEHPAUtagCREATESTRUCTA@@@Z:PROC ; CSuperGridCtrl::OnCreate
EXTRN	?DrawItem@CSuperGridCtrl@@MAEXPAUtagDRAWITEMSTRUCT@@@Z:PROC ; CSuperGridCtrl::DrawItem
EXTRN	?GetThisMessageMap@CSuperGridCtrl@@KGPBUAFX_MSGMAP@@XZ:PROC ; CSuperGridCtrl::GetThisMessageMap
EXTRN	??0COleListCtrlDropTarget@@QAE@XZ:PROC		; COleListCtrlDropTarget::COleListCtrlDropTarget
EXTRN	??1COleListCtrlDropTarget@@UAE@XZ:PROC		; COleListCtrlDropTarget::~COleListCtrlDropTarget
EXTRN	?SetCurrentWindow@COleListCtrlDropTarget@@QAEXPAVCWnd@@@Z:PROC ; COleListCtrlDropTarget::SetCurrentWindow
EXTRN	??_ECToolandRButtonGrid_ListCtrl@@UAEPAXI@Z:PROC ; CToolandRButtonGrid_ListCtrl::`vector deleting destructor'
EXTRN	??0CComboInListView@@QAE@HHPAVCStringList@@@Z:PROC ; CComboInListView::CComboInListView
EXTRN	?ChangeItemInfo@CToolandRButtonItemMgr@@QAEXABV?$CStringT@DV?$StrTraitMFC_DLL@DV?$ChTraitsCRT@D@ATL@@@@@ATL@@PAUtagLVITEMA@@@Z:PROC ; CToolandRButtonItemMgr::ChangeItemInfo
EXTRN	?ChangeItemInfo@CToolandRButtonItemMgr@@QAEPAVCItemInfo@@ABV?$CStringT@DV?$StrTraitMFC_DLL@DV?$ChTraitsCRT@D@ATL@@@@@ATL@@00@Z:PROC ; CToolandRButtonItemMgr::ChangeItemInfo
EXTRN	?GetItemInfowithItemName@CToolandRButtonItemMgr@@QAEPAVCItemInfo@@ABV?$CStringT@DV?$StrTraitMFC_DLL@DV?$ChTraitsCRT@D@ATL@@@@@ATL@@@Z:PROC ; CToolandRButtonItemMgr::GetItemInfowithItemName
EXTRN	?GetStringData@CDataConversion@@SA?AV?$CStringT@DV?$StrTraitMFC_DLL@DV?$ChTraitsCRT@D@ATL@@@@@ATL@@AAV23@ABV23@_N@Z:PROC ; CDataConversion::GetStringData
EXTRN	?GetStringDataCount@CDataConversion@@SAHABV?$CStringT@DV?$StrTraitMFC_DLL@DV?$ChTraitsCRT@D@ATL@@@@@ATL@@0@Z:PROC ; CDataConversion::GetStringDataCount
EXTRN	@__security_check_cookie@4:PROC
EXTRN	___CxxFrameHandler3:PROC
EXTRN	_memset:PROC
EXTRN	??_7type_info@@6B@:QWORD			; type_info::`vftable'
EXTRN	?g_iMetaTable@@3VIMetaTable@@A:BYTE		; g_iMetaTable
EXTRN	___security_cookie:DWORD
;	COMDAT ??_R2CSuperGridCtrl@@8
rdata$r	SEGMENT
??_R2CSuperGridCtrl@@8 DD FLAT:??_R1A@?0A@EA@CSuperGridCtrl@@8 ; CSuperGridCtrl::`RTTI Base Class Array'
	DD	FLAT:??_R1A@?0A@EA@CListCtrl@@8
	DD	FLAT:??_R1A@?0A@EA@CWnd@@8
	DD	FLAT:??_R1A@?0A@EA@CCmdTarget@@8
	DD	FLAT:??_R1A@?0A@EA@CObject@@8
rdata$r	ENDS
;	COMDAT ??_R3CSuperGridCtrl@@8
rdata$r	SEGMENT
??_R3CSuperGridCtrl@@8 DD 00H				; CSuperGridCtrl::`RTTI Class Hierarchy Descriptor'
	DD	00H
	DD	05H
	DD	FLAT:??_R2CSuperGridCtrl@@8
rdata$r	ENDS
;	COMDAT ??_R0?AVCSuperGridCtrl@@@8
data$rs	SEGMENT
??_R0?AVCSuperGridCtrl@@@8 DD FLAT:??_7type_info@@6B@	; CSuperGridCtrl `RTTI Type Descriptor'
	DD	00H
	DB	'.?AVCSuperGridCtrl@@', 00H
data$rs	ENDS
;	COMDAT ??_R1A@?0A@EA@CSuperGridCtrl@@8
rdata$r	SEGMENT
??_R1A@?0A@EA@CSuperGridCtrl@@8 DD FLAT:??_R0?AVCSuperGridCtrl@@@8 ; CSuperGridCtrl::`RTTI Base Class Descriptor at (0,-1,0,64)'
	DD	04H
	DD	00H
	DD	0ffffffffH
	DD	00H
	DD	040H
	DD	FLAT:??_R3CSuperGridCtrl@@8
rdata$r	ENDS
;	COMDAT ??_R1A@?0A@EA@CToolandRButtonGrid_ListCtrl@@8
rdata$r	SEGMENT
??_R1A@?0A@EA@CToolandRButtonGrid_ListCtrl@@8 DD FLAT:??_R0?AVCToolandRButtonGrid_ListCtrl@@@8 ; CToolandRButtonGrid_ListCtrl::`RTTI Base Class Descriptor at (0,-1,0,64)'
	DD	05H
	DD	00H
	DD	0ffffffffH
	DD	00H
	DD	040H
	DD	FLAT:??_R3CToolandRButtonGrid_ListCtrl@@8
rdata$r	ENDS
;	COMDAT ??_R2CToolandRButtonGrid_ListCtrl@@8
rdata$r	SEGMENT
??_R2CToolandRButtonGrid_ListCtrl@@8 DD FLAT:??_R1A@?0A@EA@CToolandRButtonGrid_ListCtrl@@8 ; CToolandRButtonGrid_ListCtrl::`RTTI Base Class Array'
	DD	FLAT:??_R1A@?0A@EA@CSuperGridCtrl@@8
	DD	FLAT:??_R1A@?0A@EA@CListCtrl@@8
	DD	FLAT:??_R1A@?0A@EA@CWnd@@8
	DD	FLAT:??_R1A@?0A@EA@CCmdTarget@@8
	DD	FLAT:??_R1A@?0A@EA@CObject@@8
rdata$r	ENDS
;	COMDAT ??_R3CToolandRButtonGrid_ListCtrl@@8
rdata$r	SEGMENT
??_R3CToolandRButtonGrid_ListCtrl@@8 DD 00H		; CToolandRButtonGrid_ListCtrl::`RTTI Class Hierarchy Descriptor'
	DD	00H
	DD	06H
	DD	FLAT:??_R2CToolandRButtonGrid_ListCtrl@@8
rdata$r	ENDS
;	COMDAT ??_R0?AVCToolandRButtonGrid_ListCtrl@@@8
data$rs	SEGMENT
??_R0?AVCToolandRButtonGrid_ListCtrl@@@8 DD FLAT:??_7type_info@@6B@ ; CToolandRButtonGrid_ListCtrl `RTTI Type Descriptor'
	DD	00H
	DB	'.?AVCToolandRButtonGrid_ListCtrl@@', 00H
data$rs	ENDS
;	COMDAT ??_R4CToolandRButtonGrid_ListCtrl@@6B@
rdata$r	SEGMENT
??_R4CToolandRButtonGrid_ListCtrl@@6B@ DD 00H		; CToolandRButtonGrid_ListCtrl::`RTTI Complete Object Locator'
	DD	00H
	DD	00H
	DD	FLAT:??_R0?AVCToolandRButtonGrid_ListCtrl@@@8
	DD	FLAT:??_R3CToolandRButtonGrid_ListCtrl@@8
rdata$r	ENDS
;	COMDAT ??_R1A@?0A@EA@?$CMap@HHPAVCStringList@@PAV1@@@8
rdata$r	SEGMENT
??_R1A@?0A@EA@?$CMap@HHPAVCStringList@@PAV1@@@8 DD FLAT:??_R0?AV?$CMap@HHPAVCStringList@@PAV1@@@@8 ; CMap<int,int,CStringList *,CStringList *>::`RTTI Base Class Descriptor at (0,-1,0,64)'
	DD	01H
	DD	00H
	DD	0ffffffffH
	DD	00H
	DD	040H
	DD	FLAT:??_R3?$CMap@HHPAVCStringList@@PAV1@@@8
rdata$r	ENDS
;	COMDAT ??_R2?$CMap@HHPAVCStringList@@PAV1@@@8
rdata$r	SEGMENT
??_R2?$CMap@HHPAVCStringList@@PAV1@@@8 DD FLAT:??_R1A@?0A@EA@?$CMap@HHPAVCStringList@@PAV1@@@8 ; CMap<int,int,CStringList *,CStringList *>::`RTTI Base Class Array'
	DD	FLAT:??_R1A@?0A@EA@CObject@@8
rdata$r	ENDS
;	COMDAT ??_R3?$CMap@HHPAVCStringList@@PAV1@@@8
rdata$r	SEGMENT
??_R3?$CMap@HHPAVCStringList@@PAV1@@@8 DD 00H		; CMap<int,int,CStringList *,CStringList *>::`RTTI Class Hierarchy Descriptor'
	DD	00H
	DD	02H
	DD	FLAT:??_R2?$CMap@HHPAVCStringList@@PAV1@@@8
rdata$r	ENDS
;	COMDAT ??_R0?AV?$CMap@HHPAVCStringList@@PAV1@@@@8
data$rs	SEGMENT
??_R0?AV?$CMap@HHPAVCStringList@@PAV1@@@@8 DD FLAT:??_7type_info@@6B@ ; CMap<int,int,CStringList *,CStringList *> `RTTI Type Descriptor'
	DD	00H
	DB	'.?AV?$CMap@HHPAVCStringList@@PAV1@@@', 00H
data$rs	ENDS
;	COMDAT ??_R4?$CMap@HHPAVCStringList@@PAV1@@@6B@
rdata$r	SEGMENT
??_R4?$CMap@HHPAVCStringList@@PAV1@@@6B@ DD 00H		; CMap<int,int,CStringList *,CStringList *>::`RTTI Complete Object Locator'
	DD	00H
	DD	00H
	DD	FLAT:??_R0?AV?$CMap@HHPAVCStringList@@PAV1@@@@8
	DD	FLAT:??_R3?$CMap@HHPAVCStringList@@PAV1@@@8
rdata$r	ENDS
;	COMDAT ??_R1A@?0A@EA@?$CMap@HHKAAK@@8
rdata$r	SEGMENT
??_R1A@?0A@EA@?$CMap@HHKAAK@@8 DD FLAT:??_R0?AV?$CMap@HHKAAK@@@8 ; CMap<int,int,unsigned long,unsigned long &>::`RTTI Base Class Descriptor at (0,-1,0,64)'
	DD	01H
	DD	00H
	DD	0ffffffffH
	DD	00H
	DD	040H
	DD	FLAT:??_R3?$CMap@HHKAAK@@8
rdata$r	ENDS
;	COMDAT ??_R2?$CMap@HHKAAK@@8
rdata$r	SEGMENT
??_R2?$CMap@HHKAAK@@8 DD FLAT:??_R1A@?0A@EA@?$CMap@HHKAAK@@8 ; CMap<int,int,unsigned long,unsigned long &>::`RTTI Base Class Array'
	DD	FLAT:??_R1A@?0A@EA@CObject@@8
rdata$r	ENDS
;	COMDAT ??_R3?$CMap@HHKAAK@@8
rdata$r	SEGMENT
??_R3?$CMap@HHKAAK@@8 DD 00H				; CMap<int,int,unsigned long,unsigned long &>::`RTTI Class Hierarchy Descriptor'
	DD	00H
	DD	02H
	DD	FLAT:??_R2?$CMap@HHKAAK@@8
rdata$r	ENDS
;	COMDAT ??_R0?AV?$CMap@HHKAAK@@@8
data$rs	SEGMENT
??_R0?AV?$CMap@HHKAAK@@@8 DD FLAT:??_7type_info@@6B@	; CMap<int,int,unsigned long,unsigned long &> `RTTI Type Descriptor'
	DD	00H
	DB	'.?AV?$CMap@HHKAAK@@', 00H
data$rs	ENDS
;	COMDAT ??_R4?$CMap@HHKAAK@@6B@
rdata$r	SEGMENT
??_R4?$CMap@HHKAAK@@6B@ DD 00H				; CMap<int,int,unsigned long,unsigned long &>::`RTTI Complete Object Locator'
	DD	00H
	DD	00H
	DD	FLAT:??_R0?AV?$CMap@HHKAAK@@@8
	DD	FLAT:??_R3?$CMap@HHKAAK@@8
rdata$r	ENDS
;	COMDAT ??_R1A@?0A@EA@?$CMap@HHW4CONTROLTYPE@CItemInfo@@AAW412@@@8
rdata$r	SEGMENT
??_R1A@?0A@EA@?$CMap@HHW4CONTROLTYPE@CItemInfo@@AAW412@@@8 DD FLAT:??_R0?AV?$CMap@HHW4CONTROLTYPE@CItemInfo@@AAW412@@@@8 ; CMap<int,int,enum CItemInfo::CONTROLTYPE,enum CItemInfo::CONTROLTYPE &>::`RTTI Base Class Descriptor at (0,-1,0,64)'
	DD	01H
	DD	00H
	DD	0ffffffffH
	DD	00H
	DD	040H
	DD	FLAT:??_R3?$CMap@HHW4CONTROLTYPE@CItemInfo@@AAW412@@@8
rdata$r	ENDS
;	COMDAT ??_R2?$CMap@HHW4CONTROLTYPE@CItemInfo@@AAW412@@@8
rdata$r	SEGMENT
??_R2?$CMap@HHW4CONTROLTYPE@CItemInfo@@AAW412@@@8 DD FLAT:??_R1A@?0A@EA@?$CMap@HHW4CONTROLTYPE@CItemInfo@@AAW412@@@8 ; CMap<int,int,enum CItemInfo::CONTROLTYPE,enum CItemInfo::CONTROLTYPE &>::`RTTI Base Class Array'
	DD	FLAT:??_R1A@?0A@EA@CObject@@8
rdata$r	ENDS
;	COMDAT ??_R3?$CMap@HHW4CONTROLTYPE@CItemInfo@@AAW412@@@8
rdata$r	SEGMENT
??_R3?$CMap@HHW4CONTROLTYPE@CItemInfo@@AAW412@@@8 DD 00H ; CMap<int,int,enum CItemInfo::CONTROLTYPE,enum CItemInfo::CONTROLTYPE &>::`RTTI Class Hierarchy Descriptor'
	DD	00H
	DD	02H
	DD	FLAT:??_R2?$CMap@HHW4CONTROLTYPE@CItemInfo@@AAW412@@@8
rdata$r	ENDS
;	COMDAT ??_R0?AV?$CMap@HHW4CONTROLTYPE@CItemInfo@@AAW412@@@@8
data$rs	SEGMENT
??_R0?AV?$CMap@HHW4CONTROLTYPE@CItemInfo@@AAW412@@@@8 DD FLAT:??_7type_info@@6B@ ; CMap<int,int,enum CItemInfo::CONTROLTYPE,enum CItemInfo::CONTROLTYPE &> `RTTI Type Descriptor'
	DD	00H
	DB	'.?AV?$CMap@HHW4CONTROLTYPE@CItemInfo@@AAW412@@@', 00H
data$rs	ENDS
;	COMDAT ??_R4?$CMap@HHW4CONTROLTYPE@CItemInfo@@AAW412@@@6B@
rdata$r	SEGMENT
??_R4?$CMap@HHW4CONTROLTYPE@CItemInfo@@AAW412@@@6B@ DD 00H ; CMap<int,int,enum CItemInfo::CONTROLTYPE,enum CItemInfo::CONTROLTYPE &>::`RTTI Complete Object Locator'
	DD	00H
	DD	00H
	DD	FLAT:??_R0?AV?$CMap@HHW4CONTROLTYPE@CItemInfo@@AAW412@@@@8
	DD	FLAT:??_R3?$CMap@HHW4CONTROLTYPE@CItemInfo@@AAW412@@@8
rdata$r	ENDS
;	COMDAT ??_R1A@?0A@EA@CItemInfo@@8
rdata$r	SEGMENT
??_R1A@?0A@EA@CItemInfo@@8 DD FLAT:??_R0?AVCItemInfo@@@8 ; CItemInfo::`RTTI Base Class Descriptor at (0,-1,0,64)'
	DD	01H
	DD	00H
	DD	0ffffffffH
	DD	00H
	DD	040H
	DD	FLAT:??_R3CItemInfo@@8
rdata$r	ENDS
;	COMDAT ??_R2CItemInfo@@8
rdata$r	SEGMENT
??_R2CItemInfo@@8 DD FLAT:??_R1A@?0A@EA@CItemInfo@@8	; CItemInfo::`RTTI Base Class Array'
	DD	FLAT:??_R1A@?0A@EA@CObject@@8
rdata$r	ENDS
;	COMDAT ??_R3CItemInfo@@8
rdata$r	SEGMENT
??_R3CItemInfo@@8 DD 00H				; CItemInfo::`RTTI Class Hierarchy Descriptor'
	DD	00H
	DD	02H
	DD	FLAT:??_R2CItemInfo@@8
rdata$r	ENDS
;	COMDAT ??_R0?AVCItemInfo@@@8
data$rs	SEGMENT
??_R0?AVCItemInfo@@@8 DD FLAT:??_7type_info@@6B@	; CItemInfo `RTTI Type Descriptor'
	DD	00H
	DB	'.?AVCItemInfo@@', 00H
data$rs	ENDS
;	COMDAT ??_R4CItemInfo@@6B@
rdata$r	SEGMENT
??_R4CItemInfo@@6B@ DD 00H				; CItemInfo::`RTTI Complete Object Locator'
	DD	00H
	DD	00H
	DD	FLAT:??_R0?AVCItemInfo@@@8
	DD	FLAT:??_R3CItemInfo@@8
rdata$r	ENDS
;	COMDAT ??_C@_03NFNGBNAH@50?$CF@
CONST	SEGMENT
??_C@_03NFNGBNAH@50?$CF@ DB '50%', 00H			; `string'
CONST	ENDS
;	COMDAT ??_C@_03GNGKHKGC@40?$CF@
CONST	SEGMENT
??_C@_03GNGKHKGC@40?$CF@ DB '40%', 00H			; `string'
CONST	ENDS
;	COMDAT ??_C@_03PALNECNL@30?$CF@
CONST	SEGMENT
??_C@_03PALNECNL@30?$CF@ DB '30%', 00H			; `string'
CONST	ENDS
;	COMDAT ??_C@_03EIABCFLO@20?$CF@
CONST	SEGMENT
??_C@_03EIABCFLO@20?$CF@ DB '20%', 00H			; `string'
CONST	ENDS
;	COMDAT ??_C@_03FKLEIKFA@10?$CF@
CONST	SEGMENT
??_C@_03FKLEIKFA@10?$CF@ DB '10%', 00H			; `string'
CONST	ENDS
;	COMDAT ??_C@_02PCIJFNDE@?$AN?6@
CONST	SEGMENT
??_C@_02PCIJFNDE@?$AN?6@ DB 0dH, 0aH, 00H		; `string'
CONST	ENDS
;	COMDAT ??_C@_04BGCMBJDA@Item@
CONST	SEGMENT
??_C@_04BGCMBJDA@Item@ DB 'Item', 00H			; `string'
CONST	ENDS
;	COMDAT ??_C@_01ICJEACDI@?$DL@
CONST	SEGMENT
??_C@_01ICJEACDI@?$DL@ DB ';', 00H			; `string'
CONST	ENDS
;	COMDAT ??_C@_0CA@MGPAGIKN@Ole?5Register?5Drop?5Target?5Failed@
CONST	SEGMENT
??_C@_0CA@MGPAGIKN@Ole?5Register?5Drop?5Target?5Failed@ DB 'Ole Register '
	DB	'Drop Target Failed', 00H			; `string'
CONST	ENDS
;	COMDAT ?messageMap@?1??GetThisMessageMap@CToolandRButtonGrid_ListCtrl@@KGPBUAFX_MSGMAP@@XZ@4U3@B
CONST	SEGMENT
?messageMap@?1??GetThisMessageMap@CToolandRButtonGrid_ListCtrl@@KGPBUAFX_MSGMAP@@XZ@4U3@B DD FLAT:?GetThisMessageMap@CSuperGridCtrl@@KGPBUAFX_MSGMAP@@XZ ; `CToolandRButtonGrid_ListCtrl::GetThisMessageMap'::`2'::messageMap
	DD	FLAT:?_messageEntries@?1??GetThisMessageMap@CToolandRButtonGrid_ListCtrl@@KGPBUAFX_MSGMAP@@XZ@4QBUAFX_MSGMAP_ENTRY@@B
CONST	ENDS
;	COMDAT ?_messageEntries@?1??GetThisMessageMap@CToolandRButtonGrid_ListCtrl@@KGPBUAFX_MSGMAP@@XZ@4QBUAFX_MSGMAP_ENTRY@@B
CONST	SEGMENT
?_messageEntries@?1??GetThisMessageMap@CToolandRButtonGrid_ListCtrl@@KGPBUAFX_MSGMAP@@XZ@4QBUAFX_MSGMAP_ENTRY@@B DD 01H ; `CToolandRButtonGrid_ListCtrl::GetThisMessageMap'::`2'::_messageEntries
	DD	00H
	DD	00H
	DD	00H
	DD	0dH
	DD	FLAT:?OnCreate@CToolandRButtonGrid_ListCtrl@@IAEHPAUtagCREATESTRUCTA@@@Z
	DD	0bc4eH
	DD	0fffdH
	DD	00H
	DD	00H
	DD	03eH
	DD	FLAT:?OnDblclk@CToolandRButtonGrid_ListCtrl@@IAEXPAUtagNMHDR@@PAJ@Z
	DD	0bc4eH
	DD	0ff65H
	DD	00H
	DD	00H
	DD	03eH
	DD	FLAT:?OnKeydown@CToolandRButtonGrid_ListCtrl@@IAEXPAUtagNMHDR@@PAJ@Z
	DD	0595H
	DD	00H
	DD	00H
	DD	00H
	DD	0eH
	DD	FLAT:?OnDragChartData@CToolandRButtonGrid_ListCtrl@@IAEJIJ@Z
	DD	0596H
	DD	00H
	DD	00H
	DD	00H
	DD	0eH
	DD	FLAT:?OnDropChartData@CToolandRButtonGrid_ListCtrl@@IAEJIJ@Z
	DD	00H
	DD	00H
	DD	00H
	DD	00H
	DD	00H
	DD	00H
CONST	ENDS
;	COMDAT ??_7CToolandRButtonGrid_ListCtrl@@6B@
CONST	SEGMENT
??_7CToolandRButtonGrid_ListCtrl@@6B@ DD FLAT:??_R4CToolandRButtonGrid_ListCtrl@@6B@ ; CToolandRButtonGrid_ListCtrl::`vftable'
	DD	FLAT:?GetRuntimeClass@CListCtrl@@UBEPAUCRuntimeClass@@XZ
	DD	FLAT:??_ECToolandRButtonGrid_ListCtrl@@UAEPAXI@Z
	DD	FLAT:?Serialize@CObject@@UAEXAAVCArchive@@@Z
	DD	FLAT:?AssertValid@CObject@@UBEXXZ
	DD	FLAT:?Dump@CObject@@UBEXAAVCDumpContext@@@Z
	DD	FLAT:?OnCmdMsg@CCmdTarget@@UAEHIHPAXPAUAFX_CMDHANDLERINFO@@@Z
	DD	FLAT:?OnFinalRelease@CWnd@@UAEXXZ
	DD	FLAT:?IsInvokeAllowed@CCmdTarget@@UAEHJ@Z
	DD	FLAT:?GetDispatchIID@CCmdTarget@@UAEHPAU_GUID@@@Z
	DD	FLAT:?GetTypeInfoCount@CCmdTarget@@UAEIXZ
	DD	FLAT:?GetTypeLibCache@CCmdTarget@@UAEPAVCTypeLibCache@@XZ
	DD	FLAT:?GetTypeLib@CCmdTarget@@UAEJKPAPAUITypeLib@@@Z
	DD	FLAT:?GetMessageMap@CToolandRButtonGrid_ListCtrl@@MBEPBUAFX_MSGMAP@@XZ
	DD	FLAT:?GetCommandMap@CCmdTarget@@MBEPBUAFX_OLECMDMAP@@XZ
	DD	FLAT:?GetDispatchMap@CCmdTarget@@MBEPBUAFX_DISPMAP@@XZ
	DD	FLAT:?GetConnectionMap@CCmdTarget@@MBEPBUAFX_CONNECTIONMAP@@XZ
	DD	FLAT:?GetInterfaceMap@CWnd@@MBEPBUAFX_INTERFACEMAP@@XZ
	DD	FLAT:?GetEventSinkMap@CCmdTarget@@MBEPBUAFX_EVENTSINKMAP@@XZ
	DD	FLAT:?OnCreateAggregates@CCmdTarget@@UAEHXZ
	DD	FLAT:?GetInterfaceHook@CCmdTarget@@UAEPAUIUnknown@@PBX@Z
	DD	FLAT:?GetExtraConnectionPoints@CCmdTarget@@MAEHPAVCPtrArray@@@Z
	DD	FLAT:?GetConnectionHook@CCmdTarget@@MAEPAUIConnectionPoint@@ABU_GUID@@@Z
	DD	FLAT:?PreSubclassWindow@CWnd@@UAEXXZ
	DD	FLAT:?Create@CWnd@@UAEHPBD0KABUtagRECT@@PAV1@IPAUCCreateContext@@@Z
	DD	FLAT:?CreateEx@CWnd@@UAEHKPBD0KABUtagRECT@@PAV1@IPAX@Z
	DD	FLAT:?CreateEx@CWnd@@UAEHKPBD0KHHHHPAUHWND__@@PAUHMENU__@@PAX@Z
	DD	FLAT:?DestroyWindow@CWnd@@UAEHXZ
	DD	FLAT:?PreCreateWindow@CSuperGridCtrl@@MAEHAAUtagCREATESTRUCTA@@@Z
	DD	FLAT:?CalcWindowRect@CWnd@@UAEXPAUtagRECT@@I@Z
	DD	FLAT:?GetMenu@CWnd@@UBEPAVCMenu@@XZ
	DD	FLAT:?SetMenu@CWnd@@UAEHPAVCMenu@@@Z
	DD	FLAT:?OnToolHitTest@CWnd@@UBEHVCPoint@@PAUtagTOOLINFOA@@@Z
	DD	FLAT:?GetScrollBarCtrl@CWnd@@UBEPAVCScrollBar@@H@Z
	DD	FLAT:?WinHelpA@CWnd@@UAEXKI@Z
	DD	FLAT:?HtmlHelpA@CWnd@@UAEXKI@Z
	DD	FLAT:?WinHelpInternal@CWnd@@UAEXKI@Z
	DD	FLAT:?ContinueModal@CWnd@@UAEHXZ
	DD	FLAT:?EndModalLoop@CWnd@@UAEXH@Z
	DD	FLAT:?OnDrawIconicThumbnailOrLivePreview@CWnd@@UAEXAAVCDC@@VCRect@@VCSize@@HAAH@Z
	DD	FLAT:?EnsureStdObj@CWnd@@UAEJXZ
	DD	FLAT:?get_accParent@CWnd@@UAEJPAPAUIDispatch@@@Z
	DD	FLAT:?get_accChildCount@CWnd@@UAEJPAJ@Z
	DD	FLAT:?get_accChild@CWnd@@UAEJUtagVARIANT@@PAPAUIDispatch@@@Z
	DD	FLAT:?get_accName@CWnd@@UAEJUtagVARIANT@@PAPA_W@Z
	DD	FLAT:?get_accValue@CWnd@@UAEJUtagVARIANT@@PAPA_W@Z
	DD	FLAT:?get_accDescription@CWnd@@UAEJUtagVARIANT@@PAPA_W@Z
	DD	FLAT:?get_accRole@CWnd@@UAEJUtagVARIANT@@PAU2@@Z
	DD	FLAT:?get_accState@CWnd@@UAEJUtagVARIANT@@PAU2@@Z
	DD	FLAT:?get_accHelp@CWnd@@UAEJUtagVARIANT@@PAPA_W@Z
	DD	FLAT:?get_accHelpTopic@CWnd@@UAEJPAPA_WUtagVARIANT@@PAJ@Z
	DD	FLAT:?get_accKeyboardShortcut@CWnd@@UAEJUtagVARIANT@@PAPA_W@Z
	DD	FLAT:?get_accFocus@CWnd@@UAEJPAUtagVARIANT@@@Z
	DD	FLAT:?get_accSelection@CWnd@@UAEJPAUtagVARIANT@@@Z
	DD	FLAT:?get_accDefaultAction@CWnd@@UAEJUtagVARIANT@@PAPA_W@Z
	DD	FLAT:?accSelect@CWnd@@UAEJJUtagVARIANT@@@Z
	DD	FLAT:?accLocation@CWnd@@UAEJPAJ000UtagVARIANT@@@Z
	DD	FLAT:?accNavigate@CWnd@@UAEJJUtagVARIANT@@PAU2@@Z
	DD	FLAT:?accHitTest@CWnd@@UAEJJJPAUtagVARIANT@@@Z
	DD	FLAT:?accDoDefaultAction@CWnd@@UAEJUtagVARIANT@@@Z
	DD	FLAT:?put_accName@CWnd@@UAEJUtagVARIANT@@PA_W@Z
	DD	FLAT:?put_accValue@CWnd@@UAEJUtagVARIANT@@PA_W@Z
	DD	FLAT:?SetProxy@CWnd@@UAEJPAUIAccessibleProxy@@@Z
	DD	FLAT:?CreateAccessibleProxy@CWnd@@UAEJIJPAJ@Z
	DD	FLAT:?OnCommand@CWnd@@MAEHIJ@Z
	DD	FLAT:?OnNotify@CWnd@@MAEHIJPAJ@Z
	DD	FLAT:?GetSuperWndProcAddr@CWnd@@MAEPAP6GJPAUHWND__@@IIJ@ZXZ
	DD	FLAT:?DoDataExchange@CWnd@@MAEXPAVCDataExchange@@@Z
	DD	FLAT:?BeginModalState@CWnd@@UAEXXZ
	DD	FLAT:?EndModalState@CWnd@@UAEXXZ
	DD	FLAT:?PreTranslateMessage@CSuperGridCtrl@@UAEHPAUtagMSG@@@Z
	DD	FLAT:?OnAmbientProperty@CWnd@@UAEHPAVCOleControlSite@@JPAUtagVARIANT@@@Z
	DD	FLAT:?WindowProc@CWnd@@MAEJIIJ@Z
	DD	FLAT:?OnWndMsg@CWnd@@MAEHIIJPAJ@Z
	DD	FLAT:?DefWindowProcA@CWnd@@MAEJIIJ@Z
	DD	FLAT:?PostNcDestroy@CWnd@@MAEXXZ
	DD	FLAT:?OnChildNotify@CListCtrl@@MAEHIIJPAJ@Z
	DD	FLAT:?OnTouchInputs@CWnd@@MAEHIPAUtagTOUCHINPUT@@@Z
	DD	FLAT:?OnTouchInput@CWnd@@MAEHVCPoint@@HHPAUtagTOUCHINPUT@@@Z
	DD	FLAT:?GetGestureStatus@CWnd@@MAEKVCPoint@@@Z
	DD	FLAT:?OnGestureZoom@CWnd@@MAEHVCPoint@@J@Z
	DD	FLAT:?OnGesturePan@CWnd@@MAEHVCPoint@@0@Z
	DD	FLAT:?OnGestureRotate@CWnd@@MAEHVCPoint@@N@Z
	DD	FLAT:?OnGestureTwoFingerTap@CWnd@@MAEHVCPoint@@@Z
	DD	FLAT:?OnGesturePressAndTap@CWnd@@MAEHVCPoint@@J@Z
	DD	FLAT:?ResizeDynamicLayout@CWnd@@MAEXXZ
	DD	FLAT:?CheckAutoCenter@CWnd@@UAEHXZ
	DD	FLAT:?IsFrameWnd@CWnd@@UBEHXZ
	DD	FLAT:?CreateControlContainer@CWnd@@MAEHPAPAVCOleControlContainer@@@Z
	DD	FLAT:?CreateControlSite@CWnd@@MAEHPAVCOleControlContainer@@PAPAVCOleControlSite@@IABU_GUID@@@Z
	DD	FLAT:?SetOccDialogInfo@CWnd@@MAEHPAU_AFX_OCC_DIALOG_INFO@@@Z
	DD	FLAT:?GetOccDialogInfo@CWnd@@MAEPAU_AFX_OCC_DIALOG_INFO@@XZ
	DD	FLAT:?DrawItem@CSuperGridCtrl@@MAEXPAUtagDRAWITEMSTRUCT@@@Z
	DD	FLAT:?CopyData@CToolandRButtonGrid_ListCtrl@@UAEPAVCItemInfo@@PAV2@@Z
	DD	FLAT:?GetIcon@CToolandRButtonGrid_ListCtrl@@UAEHPBVCTreeItem@CSuperGridCtrl@@@Z
	DD	FLAT:?GetCellRGB@CToolandRButtonGrid_ListCtrl@@UAEKXZ
	DD	FLAT:?OnUpdateListViewItem@CToolandRButtonGrid_ListCtrl@@UAEXPAVCTreeItem@CSuperGridCtrl@@PAUtagLVITEMA@@@Z
	DD	FLAT:?OnControlLButtonDown@CToolandRButtonGrid_ListCtrl@@UAEXIVCPoint@@AAUtagLVHITTESTINFO@@@Z
	DD	FLAT:?CreateDragImageEx@CToolandRButtonGrid_ListCtrl@@UAEPAVCImageList@@H@Z
	DD	FLAT:?OnItemExpanding@CToolandRButtonGrid_ListCtrl@@UAEHPAVCTreeItem@CSuperGridCtrl@@H@Z
	DD	FLAT:?OnItemExpanded@CToolandRButtonGrid_ListCtrl@@UAEHPAVCTreeItem@CSuperGridCtrl@@H@Z
	DD	FLAT:?OnCollapsing@CToolandRButtonGrid_ListCtrl@@UAEHPAVCTreeItem@CSuperGridCtrl@@@Z
	DD	FLAT:?OnItemCollapsed@CToolandRButtonGrid_ListCtrl@@UAEHPAVCTreeItem@CSuperGridCtrl@@@Z
	DD	FLAT:?OnDeleteItem@CToolandRButtonGrid_ListCtrl@@UAEHPAVCTreeItem@CSuperGridCtrl@@H@Z
	DD	FLAT:?OnVKMultiply@CSuperGridCtrl@@UAEHPAVCTreeItem@1@H@Z
	DD	FLAT:?OnVkSubTract@CSuperGridCtrl@@UAEHPAVCTreeItem@1@H@Z
	DD	FLAT:?OnVKAdd@CSuperGridCtrl@@UAEHPAVCTreeItem@1@H@Z
	DD	FLAT:?OnVkReturn@CToolandRButtonGrid_ListCtrl@@UAEHXZ
	DD	FLAT:?OnItemLButtonDown@CToolandRButtonGrid_ListCtrl@@UAEHAAUtagLVHITTESTINFO@@@Z
CONST	ENDS
;	COMDAT ??_7CItemInfo@@6B@
CONST	SEGMENT
??_7CItemInfo@@6B@ DD FLAT:??_R4CItemInfo@@6B@		; CItemInfo::`vftable'
	DD	FLAT:?GetRuntimeClass@CObject@@UBEPAUCRuntimeClass@@XZ
	DD	FLAT:??_ECItemInfo@@UAEPAXI@Z
	DD	FLAT:?Serialize@CObject@@UAEXAAVCArchive@@@Z
	DD	FLAT:?AssertValid@CObject@@UBEXXZ
	DD	FLAT:?Dump@CObject@@UBEXAAVCDumpContext@@@Z
CONST	ENDS
;	COMDAT ??_7?$CMap@HHPAVCStringList@@PAV1@@@6B@
CONST	SEGMENT
??_7?$CMap@HHPAVCStringList@@PAV1@@@6B@ DD FLAT:??_R4?$CMap@HHPAVCStringList@@PAV1@@@6B@ ; CMap<int,int,CStringList *,CStringList *>::`vftable'
	DD	FLAT:?GetRuntimeClass@CObject@@UBEPAUCRuntimeClass@@XZ
	DD	FLAT:??_E?$CMap@HHPAVCStringList@@PAV1@@@UAEPAXI@Z
	DD	FLAT:?Serialize@?$CMap@HHPAVCStringList@@PAV1@@@UAEXAAVCArchive@@@Z
	DD	FLAT:?AssertValid@CObject@@UBEXXZ
	DD	FLAT:?Dump@CObject@@UBEXAAVCDumpContext@@@Z
CONST	ENDS
;	COMDAT ??_7?$CMap@HHKAAK@@6B@
CONST	SEGMENT
??_7?$CMap@HHKAAK@@6B@ DD FLAT:??_R4?$CMap@HHKAAK@@6B@	; CMap<int,int,unsigned long,unsigned long &>::`vftable'
	DD	FLAT:?GetRuntimeClass@CObject@@UBEPAUCRuntimeClass@@XZ
	DD	FLAT:??_E?$CMap@HHKAAK@@UAEPAXI@Z
	DD	FLAT:?Serialize@?$CMap@HHKAAK@@UAEXAAVCArchive@@@Z
	DD	FLAT:?AssertValid@CObject@@UBEXXZ
	DD	FLAT:?Dump@CObject@@UBEXAAVCDumpContext@@@Z
CONST	ENDS
;	COMDAT ??_7?$CMap@HHW4CONTROLTYPE@CItemInfo@@AAW412@@@6B@
CONST	SEGMENT
??_7?$CMap@HHW4CONTROLTYPE@CItemInfo@@AAW412@@@6B@ DD FLAT:??_R4?$CMap@HHW4CONTROLTYPE@CItemInfo@@AAW412@@@6B@ ; CMap<int,int,enum CItemInfo::CONTROLTYPE,enum CItemInfo::CONTROLTYPE &>::`vftable'
	DD	FLAT:?GetRuntimeClass@CObject@@UBEPAUCRuntimeClass@@XZ
	DD	FLAT:??_E?$CMap@HHW4CONTROLTYPE@CItemInfo@@AAW412@@@UAEPAXI@Z
	DD	FLAT:?Serialize@?$CMap@HHW4CONTROLTYPE@CItemInfo@@AAW412@@@UAEXAAVCArchive@@@Z
	DD	FLAT:?AssertValid@CObject@@UBEXXZ
	DD	FLAT:?Dump@CObject@@UBEXAAVCDumpContext@@@Z
CONST	ENDS
;	COMDAT ??_C@_0BA@ENJOCHIO@LoadResourceDLL@
CONST	SEGMENT
??_C@_0BA@ENJOCHIO@LoadResourceDLL@ DB 'LoadResourceDLL', 00H ; `string'
CONST	ENDS
;	COMDAT ??_R1A@?0A@EA@CListCtrl@@8
rdata$r	SEGMENT
??_R1A@?0A@EA@CListCtrl@@8 DD FLAT:??_R0?AVCListCtrl@@@8 ; CListCtrl::`RTTI Base Class Descriptor at (0,-1,0,64)'
	DD	03H
	DD	00H
	DD	0ffffffffH
	DD	00H
	DD	040H
	DD	FLAT:??_R3CListCtrl@@8
rdata$r	ENDS
;	COMDAT ??_R2CListCtrl@@8
rdata$r	SEGMENT
??_R2CListCtrl@@8 DD FLAT:??_R1A@?0A@EA@CListCtrl@@8	; CListCtrl::`RTTI Base Class Array'
	DD	FLAT:??_R1A@?0A@EA@CWnd@@8
	DD	FLAT:??_R1A@?0A@EA@CCmdTarget@@8
	DD	FLAT:??_R1A@?0A@EA@CObject@@8
rdata$r	ENDS
;	COMDAT ??_R3CListCtrl@@8
rdata$r	SEGMENT
??_R3CListCtrl@@8 DD 00H				; CListCtrl::`RTTI Class Hierarchy Descriptor'
	DD	00H
	DD	04H
	DD	FLAT:??_R2CListCtrl@@8
rdata$r	ENDS
;	COMDAT ??_R0?AVCListCtrl@@@8
data$rs	SEGMENT
??_R0?AVCListCtrl@@@8 DD FLAT:??_7type_info@@6B@	; CListCtrl `RTTI Type Descriptor'
	DD	00H
	DB	'.?AVCListCtrl@@', 00H
data$rs	ENDS
;	COMDAT ??_R2CCmdTarget@@8
rdata$r	SEGMENT
??_R2CCmdTarget@@8 DD FLAT:??_R1A@?0A@EA@CCmdTarget@@8	; CCmdTarget::`RTTI Base Class Array'
	DD	FLAT:??_R1A@?0A@EA@CObject@@8
rdata$r	ENDS
;	COMDAT ??_R3CCmdTarget@@8
rdata$r	SEGMENT
??_R3CCmdTarget@@8 DD 00H				; CCmdTarget::`RTTI Class Hierarchy Descriptor'
	DD	00H
	DD	02H
	DD	FLAT:??_R2CCmdTarget@@8
rdata$r	ENDS
;	COMDAT ??_R0?AVCCmdTarget@@@8
data$rs	SEGMENT
??_R0?AVCCmdTarget@@@8 DD FLAT:??_7type_info@@6B@	; CCmdTarget `RTTI Type Descriptor'
	DD	00H
	DB	'.?AVCCmdTarget@@', 00H
data$rs	ENDS
;	COMDAT ??_R1A@?0A@EA@CCmdTarget@@8
rdata$r	SEGMENT
??_R1A@?0A@EA@CCmdTarget@@8 DD FLAT:??_R0?AVCCmdTarget@@@8 ; CCmdTarget::`RTTI Base Class Descriptor at (0,-1,0,64)'
	DD	01H
	DD	00H
	DD	0ffffffffH
	DD	00H
	DD	040H
	DD	FLAT:??_R3CCmdTarget@@8
rdata$r	ENDS
;	COMDAT ??_R2CWnd@@8
rdata$r	SEGMENT
??_R2CWnd@@8 DD	FLAT:??_R1A@?0A@EA@CWnd@@8		; CWnd::`RTTI Base Class Array'
	DD	FLAT:??_R1A@?0A@EA@CCmdTarget@@8
	DD	FLAT:??_R1A@?0A@EA@CObject@@8
rdata$r	ENDS
;	COMDAT ??_R3CWnd@@8
rdata$r	SEGMENT
??_R3CWnd@@8 DD	00H					; CWnd::`RTTI Class Hierarchy Descriptor'
	DD	00H
	DD	03H
	DD	FLAT:??_R2CWnd@@8
rdata$r	ENDS
;	COMDAT ??_R0?AVCWnd@@@8
data$rs	SEGMENT
??_R0?AVCWnd@@@8 DD FLAT:??_7type_info@@6B@		; CWnd `RTTI Type Descriptor'
	DD	00H
	DB	'.?AVCWnd@@', 00H
data$rs	ENDS
;	COMDAT ??_R1A@?0A@EA@CWnd@@8
rdata$r	SEGMENT
??_R1A@?0A@EA@CWnd@@8 DD FLAT:??_R0?AVCWnd@@@8		; CWnd::`RTTI Base Class Descriptor at (0,-1,0,64)'
	DD	02H
	DD	00H
	DD	0ffffffffH
	DD	00H
	DD	040H
	DD	FLAT:??_R3CWnd@@8
rdata$r	ENDS
;	COMDAT ??_R1A@?0A@EA@CObject@@8
rdata$r	SEGMENT
??_R1A@?0A@EA@CObject@@8 DD FLAT:??_R0?AVCObject@@@8	; CObject::`RTTI Base Class Descriptor at (0,-1,0,64)'
	DD	00H
	DD	00H
	DD	0ffffffffH
	DD	00H
	DD	040H
	DD	FLAT:??_R3CObject@@8
rdata$r	ENDS
;	COMDAT ??_R2CObject@@8
rdata$r	SEGMENT
??_R2CObject@@8 DD FLAT:??_R1A@?0A@EA@CObject@@8	; CObject::`RTTI Base Class Array'
rdata$r	ENDS
;	COMDAT ??_R3CObject@@8
rdata$r	SEGMENT
??_R3CObject@@8 DD 00H					; CObject::`RTTI Class Hierarchy Descriptor'
	DD	00H
	DD	01H
	DD	FLAT:??_R2CObject@@8
rdata$r	ENDS
;	COMDAT ??_R0?AVCObject@@@8
data$rs	SEGMENT
??_R0?AVCObject@@@8 DD FLAT:??_7type_info@@6B@		; CObject `RTTI Type Descriptor'
	DD	00H
	DB	'.?AVCObject@@', 00H
data$rs	ENDS
;	COMDAT ??_C@_0HD@BPLDAFHE@C?3?2Program?5Files?5?$CIx86?$CJ?2Microsof@
CONST	SEGMENT
??_C@_0HD@BPLDAFHE@C?3?2Program?5Files?5?$CIx86?$CJ?2Microsof@ DB 'C:\Pro'
	DB	'gram Files (x86)\Microsoft Visual Studio\2019\Community\VC\To'
	DB	'ols\MSVC\14.29.30133\atlmfc\include\afxwin2.inl', 00H ; `string'
CONST	ENDS
;	COMDAT ??_C@_0N@OMEMOKLE@?$CFTs?5?$CI?$CFTs?3?$CFd?$CJ@
CONST	SEGMENT
??_C@_0N@OMEMOKLE@?$CFTs?5?$CI?$CFTs?3?$CFd?$CJ@ DB '%Ts (%Ts:%d)', 00H ; `string'
CONST	ENDS
;	COMDAT ??_C@_0BB@HBOOMJBF@?$CFTs?5?$CI?$CFTs?3?$CFd?$CJ?6?$CFTs@
CONST	SEGMENT
??_C@_0BB@HBOOMJBF@?$CFTs?5?$CI?$CFTs?3?$CFd?$CJ?6?$CFTs@ DB '%Ts (%Ts:%d'
	DB	')', 0aH, '%Ts', 00H				; `string'
CONST	ENDS
;	COMDAT ??_C@_0BP@OIEOKIDM@Exception?5thrown?5in?5destructor@
CONST	SEGMENT
??_C@_0BP@OIEOKIDM@Exception?5thrown?5in?5destructor@ DB 'Exception throw'
	DB	'n in destructor', 00H			; `string'
CONST	ENDS
;	COMDAT ??_C@_00CNPNBAHC@@
CONST	SEGMENT
??_C@_00CNPNBAHC@@ DB 00H				; `string'
CONST	ENDS
;	COMDAT ??_R0PAVCException@@@8
data$r	SEGMENT
??_R0PAVCException@@@8 DD FLAT:??_7type_info@@6B@	; CException * `RTTI Type Descriptor'
	DD	00H
	DB	'.PAVCException@@', 00H
data$r	ENDS
;	COMDAT xdata$x
xdata$x	SEGMENT
__unwindtable$?SetRootItem@CToolandRButtonGrid_ListCtrl@@AAEXABV?$CStringT@DV?$StrTraitMFC_DLL@DV?$ChTraitsCRT@D@ATL@@@@@ATL@@PAVCItemInfo@@@Z DD 0ffffffffH
	DD	FLAT:__unwindfunclet$?SetRootItem@CToolandRButtonGrid_ListCtrl@@AAEXABV?$CStringT@DV?$StrTraitMFC_DLL@DV?$ChTraitsCRT@D@ATL@@@@@ATL@@PAVCItemInfo@@@Z$0
	DD	0ffffffffH
	DD	FLAT:__unwindfunclet$?SetRootItem@CToolandRButtonGrid_ListCtrl@@AAEXABV?$CStringT@DV?$StrTraitMFC_DLL@DV?$ChTraitsCRT@D@ATL@@@@@ATL@@PAVCItemInfo@@@Z$1
	DD	0ffffffffH
	DD	FLAT:__unwindfunclet$?SetRootItem@CToolandRButtonGrid_ListCtrl@@AAEXABV?$CStringT@DV?$StrTraitMFC_DLL@DV?$ChTraitsCRT@D@ATL@@@@@ATL@@PAVCItemInfo@@@Z$2
	DD	0ffffffffH
	DD	FLAT:__unwindfunclet$?SetRootItem@CToolandRButtonGrid_ListCtrl@@AAEXABV?$CStringT@DV?$StrTraitMFC_DLL@DV?$ChTraitsCRT@D@ATL@@@@@ATL@@PAVCItemInfo@@@Z$3
__ehfuncinfo$?SetRootItem@CToolandRButtonGrid_ListCtrl@@AAEXABV?$CStringT@DV?$StrTraitMFC_DLL@DV?$ChTraitsCRT@D@ATL@@@@@ATL@@PAVCItemInfo@@@Z DD 019930522H
	DD	04H
	DD	FLAT:__unwindtable$?SetRootItem@CToolandRButtonGrid_ListCtrl@@AAEXABV?$CStringT@DV?$StrTraitMFC_DLL@DV?$ChTraitsCRT@D@ATL@@@@@ATL@@PAVCItemInfo@@@Z
	DD	2 DUP(00H)
	DD	2 DUP(00H)
	DD	00H
	DD	01H
xdata$x	ENDS
;	COMDAT xdata$x
xdata$x	SEGMENT
__unwindtable$?InsertColumnHeader@CToolandRButtonGrid_ListCtrl@@AAEXXZ DD 0ffffffffH
	DD	FLAT:__unwindfunclet$?InsertColumnHeader@CToolandRButtonGrid_ListCtrl@@AAEXXZ$0
	DD	00H
	DD	FLAT:__unwindfunclet$?InsertColumnHeader@CToolandRButtonGrid_ListCtrl@@AAEXXZ$1
	DD	0ffffffffH
	DD	FLAT:___std_terminate
__ehfuncinfo$?InsertColumnHeader@CToolandRButtonGrid_ListCtrl@@AAEXXZ DD 019930522H
	DD	03H
	DD	FLAT:__unwindtable$?InsertColumnHeader@CToolandRButtonGrid_ListCtrl@@AAEXXZ
	DD	2 DUP(00H)
	DD	2 DUP(00H)
	DD	00H
	DD	01H
xdata$x	ENDS
;	COMDAT xdata$x
xdata$x	SEGMENT
__ehfuncinfo$?InsertRoot@CToolandRButtonGrid_ListCtrl@@AAEXXZ DD 019930522H
	DD	06H
	DD	FLAT:__unwindtable$?InsertRoot@CToolandRButtonGrid_ListCtrl@@AAEXXZ
	DD	2 DUP(00H)
	DD	2 DUP(00H)
	DD	00H
	DD	01H
__unwindtable$?InsertRoot@CToolandRButtonGrid_ListCtrl@@AAEXXZ DD 0ffffffffH
	DD	FLAT:__unwindfunclet$?InsertRoot@CToolandRButtonGrid_ListCtrl@@AAEXXZ$0
	DD	0ffffffffH
	DD	FLAT:__unwindfunclet$?InsertRoot@CToolandRButtonGrid_ListCtrl@@AAEXXZ$1
	DD	01H
	DD	FLAT:__unwindfunclet$?InsertRoot@CToolandRButtonGrid_ListCtrl@@AAEXXZ$2
	DD	01H
	DD	FLAT:__unwindfunclet$?InsertRoot@CToolandRButtonGrid_ListCtrl@@AAEXXZ$3
	DD	01H
	DD	FLAT:__unwindfunclet$?InsertRoot@CToolandRButtonGrid_ListCtrl@@AAEXXZ$4
	DD	01H
	DD	FLAT:__unwindfunclet$?InsertRoot@CToolandRButtonGrid_ListCtrl@@AAEXXZ$5
xdata$x	ENDS
;	COMDAT xdata$x
xdata$x	SEGMENT
__unwindtable$?SetComboListWhen_Extension_Recuction_Item@CToolandRButtonGrid_ListCtrl@@AAEXHHPAVCStringList@@@Z DD 0ffffffffH
	DD	FLAT:__unwindfunclet$?SetComboListWhen_Extension_Recuction_Item@CToolandRButtonGrid_ListCtrl@@AAEXHHPAVCStringList@@@Z$0
__ehfuncinfo$?SetComboListWhen_Extension_Recuction_Item@CToolandRButtonGrid_ListCtrl@@AAEXHHPAVCStringList@@@Z DD 019930522H
	DD	01H
	DD	FLAT:__unwindtable$?SetComboListWhen_Extension_Recuction_Item@CToolandRButtonGrid_ListCtrl@@AAEXHHPAVCStringList@@@Z
	DD	2 DUP(00H)
	DD	2 DUP(00H)
	DD	00H
	DD	01H
xdata$x	ENDS
;	COMDAT xdata$x
xdata$x	SEGMENT
__ehfuncinfo$?OnDropChartData@CToolandRButtonGrid_ListCtrl@@IAEJIJ@Z DD 019930522H
	DD	05H
	DD	FLAT:__unwindtable$?OnDropChartData@CToolandRButtonGrid_ListCtrl@@IAEJIJ@Z
	DD	2 DUP(00H)
	DD	2 DUP(00H)
	DD	00H
	DD	01H
__unwindtable$?OnDropChartData@CToolandRButtonGrid_ListCtrl@@IAEJIJ@Z DD 0ffffffffH
	DD	FLAT:__unwindfunclet$?OnDropChartData@CToolandRButtonGrid_ListCtrl@@IAEJIJ@Z$0
	DD	00H
	DD	FLAT:__unwindfunclet$?OnDropChartData@CToolandRButtonGrid_ListCtrl@@IAEJIJ@Z$1
	DD	00H
	DD	FLAT:__unwindfunclet$?OnDropChartData@CToolandRButtonGrid_ListCtrl@@IAEJIJ@Z$2
	DD	02H
	DD	FLAT:__unwindfunclet$?OnDropChartData@CToolandRButtonGrid_ListCtrl@@IAEJIJ@Z$3
	DD	00H
	DD	FLAT:__unwindfunclet$?OnDropChartData@CToolandRButtonGrid_ListCtrl@@IAEJIJ@Z$3
xdata$x	ENDS
;	COMDAT xdata$x
xdata$x	SEGMENT
__unwindtable$?OnKeydown@CToolandRButtonGrid_ListCtrl@@IAEXPAUtagNMHDR@@PAJ@Z DD 0ffffffffH
	DD	FLAT:__unwindfunclet$?OnKeydown@CToolandRButtonGrid_ListCtrl@@IAEXPAUtagNMHDR@@PAJ@Z$0
	DD	0ffffffffH
	DD	FLAT:__unwindfunclet$?OnKeydown@CToolandRButtonGrid_ListCtrl@@IAEXPAUtagNMHDR@@PAJ@Z$1
	DD	0ffffffffH
	DD	FLAT:__unwindfunclet$?OnKeydown@CToolandRButtonGrid_ListCtrl@@IAEXPAUtagNMHDR@@PAJ@Z$2
	DD	0ffffffffH
	DD	FLAT:__unwindfunclet$?OnKeydown@CToolandRButtonGrid_ListCtrl@@IAEXPAUtagNMHDR@@PAJ@Z$3
__ehfuncinfo$?OnKeydown@CToolandRButtonGrid_ListCtrl@@IAEXPAUtagNMHDR@@PAJ@Z DD 019930522H
	DD	04H
	DD	FLAT:__unwindtable$?OnKeydown@CToolandRButtonGrid_ListCtrl@@IAEXPAUtagNMHDR@@PAJ@Z
	DD	2 DUP(00H)
	DD	2 DUP(00H)
	DD	00H
	DD	01H
xdata$x	ENDS
;	COMDAT xdata$x
xdata$x	SEGMENT
__unwindtable$?OnCreate@CToolandRButtonGrid_ListCtrl@@IAEHPAUtagCREATESTRUCTA@@@Z DD 0ffffffffH
	DD	FLAT:__unwindfunclet$?OnCreate@CToolandRButtonGrid_ListCtrl@@IAEHPAUtagCREATESTRUCTA@@@Z$0
	DD	0ffffffffH
	DD	FLAT:___std_terminate
	DD	0ffffffffH
	DD	FLAT:___std_terminate
__ehfuncinfo$?OnCreate@CToolandRButtonGrid_ListCtrl@@IAEHPAUtagCREATESTRUCTA@@@Z DD 019930522H
	DD	03H
	DD	FLAT:__unwindtable$?OnCreate@CToolandRButtonGrid_ListCtrl@@IAEHPAUtagCREATESTRUCTA@@@Z
	DD	2 DUP(00H)
	DD	2 DUP(00H)
	DD	00H
	DD	01H
xdata$x	ENDS
;	COMDAT xdata$x
xdata$x	SEGMENT
__unwindtable$?ShowList@CToolandRButtonGrid_ListCtrl@@IAEPAVCComboBox@@HHPAVCStringList@@@Z DD 0ffffffffH
	DD	FLAT:__unwindfunclet$?ShowList@CToolandRButtonGrid_ListCtrl@@IAEPAVCComboBox@@HHPAVCStringList@@@Z$0
	DD	0ffffffffH
	DD	FLAT:__unwindfunclet$?ShowList@CToolandRButtonGrid_ListCtrl@@IAEPAVCComboBox@@HHPAVCStringList@@@Z$1
	DD	01H
	DD	FLAT:__unwindfunclet$?ShowList@CToolandRButtonGrid_ListCtrl@@IAEPAVCComboBox@@HHPAVCStringList@@@Z$2
__ehfuncinfo$?ShowList@CToolandRButtonGrid_ListCtrl@@IAEPAVCComboBox@@HHPAVCStringList@@@Z DD 019930522H
	DD	03H
	DD	FLAT:__unwindtable$?ShowList@CToolandRButtonGrid_ListCtrl@@IAEPAVCComboBox@@HHPAVCStringList@@@Z
	DD	2 DUP(00H)
	DD	2 DUP(00H)
	DD	00H
	DD	01H
xdata$x	ENDS
;	COMDAT xdata$x
xdata$x	SEGMENT
__unwindtable$?GetListItemInfo@CToolandRButtonGrid_ListCtrl@@QAE?AV?$CStringT@DV?$StrTraitMFC_DLL@DV?$ChTraitsCRT@D@ATL@@@@@ATL@@XZ DD 0ffffffffH
	DD	FLAT:__unwindfunclet$?GetListItemInfo@CToolandRButtonGrid_ListCtrl@@QAE?AV?$CStringT@DV?$StrTraitMFC_DLL@DV?$ChTraitsCRT@D@ATL@@@@@ATL@@XZ$0
	DD	00H
	DD	FLAT:__unwindfunclet$?GetListItemInfo@CToolandRButtonGrid_ListCtrl@@QAE?AV?$CStringT@DV?$StrTraitMFC_DLL@DV?$ChTraitsCRT@D@ATL@@@@@ATL@@XZ$1
	DD	01H
	DD	FLAT:__unwindfunclet$?GetListItemInfo@CToolandRButtonGrid_ListCtrl@@QAE?AV?$CStringT@DV?$StrTraitMFC_DLL@DV?$ChTraitsCRT@D@ATL@@@@@ATL@@XZ$2
__ehfuncinfo$?GetListItemInfo@CToolandRButtonGrid_ListCtrl@@QAE?AV?$CStringT@DV?$StrTraitMFC_DLL@DV?$ChTraitsCRT@D@ATL@@@@@ATL@@XZ DD 019930522H
	DD	03H
	DD	FLAT:__unwindtable$?GetListItemInfo@CToolandRButtonGrid_ListCtrl@@QAE?AV?$CStringT@DV?$StrTraitMFC_DLL@DV?$ChTraitsCRT@D@ATL@@@@@ATL@@XZ
	DD	2 DUP(00H)
	DD	2 DUP(00H)
	DD	00H
	DD	01H
xdata$x	ENDS
;	COMDAT xdata$x
xdata$x	SEGMENT
__unwindtable$?CopyData@CToolandRButtonGrid_ListCtrl@@UAEPAVCItemInfo@@PAV2@@Z DD 0ffffffffH
	DD	FLAT:__unwindfunclet$?CopyData@CToolandRButtonGrid_ListCtrl@@UAEPAVCItemInfo@@PAV2@@Z$0
	DD	0ffffffffH
	DD	FLAT:__unwindfunclet$?CopyData@CToolandRButtonGrid_ListCtrl@@UAEPAVCItemInfo@@PAV2@@Z$1
__ehfuncinfo$?CopyData@CToolandRButtonGrid_ListCtrl@@UAEPAVCItemInfo@@PAV2@@Z DD 019930522H
	DD	02H
	DD	FLAT:__unwindtable$?CopyData@CToolandRButtonGrid_ListCtrl@@UAEPAVCItemInfo@@PAV2@@Z
	DD	2 DUP(00H)
	DD	2 DUP(00H)
	DD	00H
	DD	01H
xdata$x	ENDS
;	COMDAT xdata$x
xdata$x	SEGMENT
__ehfuncinfo$?InitializeGrid@CToolandRButtonGrid_ListCtrl@@QAEXXZ DD 019930522H
	DD	09H
	DD	FLAT:__unwindtable$?InitializeGrid@CToolandRButtonGrid_ListCtrl@@QAEXXZ
	DD	2 DUP(00H)
	DD	2 DUP(00H)
	DD	00H
	DD	01H
__unwindtable$?InitializeGrid@CToolandRButtonGrid_ListCtrl@@QAEXXZ DD 0ffffffffH
	DD	FLAT:__unwindfunclet$?InitializeGrid@CToolandRButtonGrid_ListCtrl@@QAEXXZ$0
	DD	00H
	DD	FLAT:__unwindfunclet$?InitializeGrid@CToolandRButtonGrid_ListCtrl@@QAEXXZ$1
	DD	0ffffffffH
	DD	FLAT:___std_terminate
	DD	0ffffffffH
	DD	FLAT:__unwindfunclet$?InitializeGrid@CToolandRButtonGrid_ListCtrl@@QAEXXZ$3
	DD	0ffffffffH
	DD	FLAT:__unwindfunclet$?InitializeGrid@CToolandRButtonGrid_ListCtrl@@QAEXXZ$4
	DD	04H
	DD	FLAT:__unwindfunclet$?InitializeGrid@CToolandRButtonGrid_ListCtrl@@QAEXXZ$5
	DD	04H
	DD	FLAT:__unwindfunclet$?InitializeGrid@CToolandRButtonGrid_ListCtrl@@QAEXXZ$6
	DD	04H
	DD	FLAT:__unwindfunclet$?InitializeGrid@CToolandRButtonGrid_ListCtrl@@QAEXXZ$7
	DD	04H
	DD	FLAT:__unwindfunclet$?InitializeGrid@CToolandRButtonGrid_ListCtrl@@QAEXXZ$8
xdata$x	ENDS
;	COMDAT xdata$x
xdata$x	SEGMENT
__unwindtable$??0CToolandRButtonGrid_ListCtrl@@QAE@XZ DD 0ffffffffH
	DD	FLAT:__unwindfunclet$??0CToolandRButtonGrid_ListCtrl@@QAE@XZ$0
	DD	00H
	DD	FLAT:__unwindfunclet$??0CToolandRButtonGrid_ListCtrl@@QAE@XZ$1
__ehfuncinfo$??0CToolandRButtonGrid_ListCtrl@@QAE@XZ DD 019930522H
	DD	02H
	DD	FLAT:__unwindtable$??0CToolandRButtonGrid_ListCtrl@@QAE@XZ
	DD	2 DUP(00H)
	DD	2 DUP(00H)
	DD	00H
	DD	01H
xdata$x	ENDS
;	COMDAT xdata$x
xdata$x	SEGMENT
__unwindtable$??_G?$CMap@HHPAVCStringList@@PAV1@@@UAEPAXI@Z DD 0ffffffffH
	DD	FLAT:___std_terminate
__ehfuncinfo$??_G?$CMap@HHPAVCStringList@@PAV1@@@UAEPAXI@Z DD 019930522H
	DD	01H
	DD	FLAT:__unwindtable$??_G?$CMap@HHPAVCStringList@@PAV1@@@UAEPAXI@Z
	DD	2 DUP(00H)
	DD	2 DUP(00H)
	DD	00H
	DD	05H
xdata$x	ENDS
;	COMDAT xdata$x
xdata$x	SEGMENT
__ehfuncinfo$??1?$CMap@HHPAVCStringList@@PAV1@@@UAE@XZ DD 019930522H
	DD	00H
	DD	00H
	DD	2 DUP(00H)
	DD	2 DUP(00H)
	DD	00H
	DD	05H
xdata$x	ENDS
;	COMDAT xdata$x
xdata$x	SEGMENT
__unwindtable$??_G?$CMap@HHKAAK@@UAEPAXI@Z DD 0ffffffffH
	DD	FLAT:___std_terminate
__ehfuncinfo$??_G?$CMap@HHKAAK@@UAEPAXI@Z DD 019930522H
	DD	01H
	DD	FLAT:__unwindtable$??_G?$CMap@HHKAAK@@UAEPAXI@Z
	DD	2 DUP(00H)
	DD	2 DUP(00H)
	DD	00H
	DD	05H
xdata$x	ENDS
;	COMDAT xdata$x
xdata$x	SEGMENT
__ehfuncinfo$??1?$CMap@HHKAAK@@UAE@XZ DD 019930522H
	DD	00H
	DD	00H
	DD	2 DUP(00H)
	DD	2 DUP(00H)
	DD	00H
	DD	05H
xdata$x	ENDS
;	COMDAT xdata$x
xdata$x	SEGMENT
__unwindtable$??_G?$CMap@HHW4CONTROLTYPE@CItemInfo@@AAW412@@@UAEPAXI@Z DD 0ffffffffH
	DD	FLAT:___std_terminate
__ehfuncinfo$??_G?$CMap@HHW4CONTROLTYPE@CItemInfo@@AAW412@@@UAEPAXI@Z DD 019930522H
	DD	01H
	DD	FLAT:__unwindtable$??_G?$CMap@HHW4CONTROLTYPE@CItemInfo@@AAW412@@@UAEPAXI@Z
	DD	2 DUP(00H)
	DD	2 DUP(00H)
	DD	00H
	DD	05H
xdata$x	ENDS
;	COMDAT xdata$x
xdata$x	SEGMENT
__ehfuncinfo$??1?$CMap@HHW4CONTROLTYPE@CItemInfo@@AAW412@@@UAE@XZ DD 019930522H
	DD	00H
	DD	00H
	DD	2 DUP(00H)
	DD	2 DUP(00H)
	DD	00H
	DD	05H
xdata$x	ENDS
;	COMDAT xdata$x
xdata$x	SEGMENT
__unwindtable$??1CItemInfo@@UAE@XZ DD 0ffffffffH
	DD	FLAT:___std_terminate
	DD	0ffffffffH
	DD	FLAT:___std_terminate
	DD	0ffffffffH
	DD	FLAT:___std_terminate
__ehfuncinfo$??1CItemInfo@@UAE@XZ DD 019930522H
	DD	03H
	DD	FLAT:__unwindtable$??1CItemInfo@@UAE@XZ
	DD	2 DUP(00H)
	DD	2 DUP(00H)
	DD	00H
	DD	05H
xdata$x	ENDS
;	COMDAT xdata$x
xdata$x	SEGMENT
__unwindtable$?CopyControls@CItemInfo@@QAEXPAV1@@Z DD 0ffffffffH
	DD	FLAT:__unwindfunclet$?CopyControls@CItemInfo@@QAEXPAV1@@Z$0
__ehfuncinfo$?CopyControls@CItemInfo@@QAEXPAV1@@Z DD 019930522H
	DD	01H
	DD	FLAT:__unwindtable$?CopyControls@CItemInfo@@QAEXPAV1@@Z
	DD	2 DUP(00H)
	DD	2 DUP(00H)
	DD	00H
	DD	01H
xdata$x	ENDS
;	COMDAT xdata$x
xdata$x	SEGMENT
__unwindtable$?CopyObjects@CItemInfo@@QAEXPAV1@@Z DD 0ffffffffH
	DD	FLAT:__unwindfunclet$?CopyObjects@CItemInfo@@QAEXPAV1@@Z$0
__ehfuncinfo$?CopyObjects@CItemInfo@@QAEXPAV1@@Z DD 019930522H
	DD	01H
	DD	FLAT:__unwindtable$?CopyObjects@CItemInfo@@QAEXPAV1@@Z
	DD	2 DUP(00H)
	DD	2 DUP(00H)
	DD	00H
	DD	01H
xdata$x	ENDS
;	COMDAT xdata$x
xdata$x	SEGMENT
__unwindtable$?SetListData@CItemInfo@@QAEXHPAVCStringList@@@Z DD 0ffffffffH
	DD	FLAT:__unwindfunclet$?SetListData@CItemInfo@@QAEXHPAVCStringList@@@Z$0
__ehfuncinfo$?SetListData@CItemInfo@@QAEXHPAVCStringList@@@Z DD 019930522H
	DD	01H
	DD	FLAT:__unwindtable$?SetListData@CItemInfo@@QAEXHPAVCStringList@@@Z
	DD	2 DUP(00H)
	DD	2 DUP(00H)
	DD	00H
	DD	01H
xdata$x	ENDS
;	COMDAT xdata$x
xdata$x	SEGMENT
__unwindtable$??0CItemInfo@@QAE@XZ DD 0ffffffffH
	DD	FLAT:__unwindfunclet$??0CItemInfo@@QAE@XZ$0
	DD	00H
	DD	FLAT:__unwindfunclet$??0CItemInfo@@QAE@XZ$1
	DD	01H
	DD	FLAT:__unwindfunclet$??0CItemInfo@@QAE@XZ$2
	DD	02H
	DD	FLAT:__unwindfunclet$??0CItemInfo@@QAE@XZ$3
__ehfuncinfo$??0CItemInfo@@QAE@XZ DD 019930522H
	DD	04H
	DD	FLAT:__unwindtable$??0CItemInfo@@QAE@XZ
	DD	2 DUP(00H)
	DD	2 DUP(00H)
	DD	00H
	DD	01H
xdata$x	ENDS
;	COMDAT xdata$x
xdata$x	SEGMENT
__ehfuncinfo$??1CMultiLanguageResourceSetter@@QAE@XZ DD 019930522H
	DD	00H
	DD	00H
	DD	2 DUP(00H)
	DD	2 DUP(00H)
	DD	00H
	DD	05H
xdata$x	ENDS
;	COMDAT xdata$x
xdata$x	SEGMENT
__catchsym$??1CWaitCursor@@QAE@XZ$3 DD 00H
	DD	FLAT:??_R0PAVCException@@@8
	DD	0fffffde4H
	DD	FLAT:__catch$??1CWaitCursor@@QAE@XZ$0
__tryblocktable$??1CWaitCursor@@QAE@XZ DD 00H
	DD	00H
	DD	02H
	DD	01H
	DD	FLAT:__catchsym$??1CWaitCursor@@QAE@XZ$3
__unwindtable$??1CWaitCursor@@QAE@XZ DD 0ffffffffH
	DD	00H
	DD	0ffffffffH
	DD	00H
	DD	01H
	DD	FLAT:__unwindfunclet$??1CWaitCursor@@QAE@XZ$2
__ehfuncinfo$??1CWaitCursor@@QAE@XZ DD 019930522H
	DD	03H
	DD	FLAT:__unwindtable$??1CWaitCursor@@QAE@XZ
	DD	01H
	DD	FLAT:__tryblocktable$??1CWaitCursor@@QAE@XZ
	DD	2 DUP(00H)
	DD	00H
	DD	05H
xdata$x	ENDS
; Function compile flags: /Ogtp
; File C:\Program Files (x86)\Microsoft Visual Studio\2019\Community\VC\Tools\MSVC\14.29.30133\atlmfc\include\afxtempl.h
;	COMDAT ??$CompareElements@HH@@YGHPBH0@Z
_TEXT	SEGMENT
_pElement1$ = 8						; size = 4
_pElement2$ = 12					; size = 4
??$CompareElements@HH@@YGHPBH0@Z PROC			; CompareElements<int,int>, COMDAT

; 151  : {

  00000	55		 push	 ebp
  00001	8b ec		 mov	 ebp, esp

; 152  : 	ENSURE(pElement1 != NULL && pElement2 != NULL);

  00003	8b 4d 08	 mov	 ecx, DWORD PTR _pElement1$[ebp]
  00006	85 c9		 test	 ecx, ecx
  00008	74 14		 je	 SHORT $LN7@CompareEle
  0000a	8b 55 0c	 mov	 edx, DWORD PTR _pElement2$[ebp]
  0000d	85 d2		 test	 edx, edx
  0000f	74 0d		 je	 SHORT $LN7@CompareEle

; 153  : 	ASSERT(AfxIsValidAddress(pElement1, sizeof(TYPE), FALSE));
; 154  : 	ASSERT(AfxIsValidAddress(pElement2, sizeof(ARG_TYPE), FALSE));
; 155  : 
; 156  : 	return *pElement1 == *pElement2;

  00011	8b 09		 mov	 ecx, DWORD PTR [ecx]
  00013	33 c0		 xor	 eax, eax
  00015	3b 0a		 cmp	 ecx, DWORD PTR [edx]
  00017	0f 94 c0	 sete	 al

; 157  : }

  0001a	5d		 pop	 ebp
  0001b	c2 08 00	 ret	 8
$LN7@CompareEle:

; 152  : 	ENSURE(pElement1 != NULL && pElement2 != NULL);

  0001e	e8 00 00 00 00	 call	 ?AfxThrowInvalidArgException@@YGXXZ ; AfxThrowInvalidArgException
$LN10@CompareEle:
  00023	cc		 int	 3
??$CompareElements@HH@@YGHPBH0@Z ENDP			; CompareElements<int,int>
_TEXT	ENDS
; Function compile flags: /Ogtp
; File C:\Program Files (x86)\Microsoft Visual Studio\2019\Community\VC\Tools\MSVC\14.29.30133\atlmfc\include\afxtempl.h
; File C:\Program Files (x86)\Microsoft Visual Studio\2019\Community\VC\Tools\MSVC\14.29.30133\atlmfc\include\afx.inl
; File C:\Program Files (x86)\Microsoft Visual Studio\2019\Community\VC\Tools\MSVC\14.29.30133\atlmfc\include\afxtempl.h
; File C:\Program Files (x86)\Microsoft Visual Studio\2019\Community\VC\Tools\MSVC\14.29.30133\atlmfc\include\afx.inl
; File C:\Program Files (x86)\Microsoft Visual Studio\2019\Community\VC\Tools\MSVC\14.29.30133\atlmfc\include\afxtempl.h
; File C:\Program Files (x86)\Microsoft Visual Studio\2019\Community\VC\Tools\MSVC\14.29.30133\atlmfc\include\afx.inl
; File C:\Program Files (x86)\Microsoft Visual Studio\2019\Community\VC\Tools\MSVC\14.29.30133\atlmfc\include\afxtempl.h
;	COMDAT ??$SerializeElements@PAVCStringList@@@@YGXAAVCArchive@@PAPAVCStringList@@H@Z
_TEXT	SEGMENT
_ar$ = 8						; size = 4
_pElements$ = 12					; size = 4
_nCount$ = 16						; size = 4
??$SerializeElements@PAVCStringList@@@@YGXAAVCArchive@@PAPAVCStringList@@H@Z PROC ; SerializeElements<CStringList *>, COMDAT

; 67   : {

  00000	55		 push	 ebp
  00001	8b ec		 mov	 ebp, esp

; 68   : 	ENSURE(nCount == 0 || pElements != NULL);

  00003	8b 4d 0c	 mov	 ecx, DWORD PTR _pElements$[ebp]
  00006	53		 push	 ebx
  00007	56		 push	 esi
  00008	8b 75 10	 mov	 esi, DWORD PTR _nCount$[ebp]
  0000b	57		 push	 edi
  0000c	85 f6		 test	 esi, esi
  0000e	74 08		 je	 SHORT $LN2@SerializeE
  00010	85 c9		 test	 ecx, ecx
  00012	0f 84 89 00 00
	00		 je	 $LN34@SerializeE
$LN2@SerializeE:
; File C:\Program Files (x86)\Microsoft Visual Studio\2019\Community\VC\Tools\MSVC\14.29.30133\atlmfc\include\afx.inl

; 212  : 	{ return (m_nMode & CArchive::load) == 0; }

  00018	8b 55 08	 mov	 edx, DWORD PTR _ar$[ebp]
  0001b	8b 42 18	 mov	 eax, DWORD PTR [edx+24]
  0001e	f7 d0		 not	 eax
  00020	a8 01		 test	 al, 1
; File C:\Program Files (x86)\Microsoft Visual Studio\2019\Community\VC\Tools\MSVC\14.29.30133\atlmfc\include\afxtempl.h

; 73   : 	if (ar.IsStoring())

  00022	74 3c		 je	 SHORT $LN10@SerializeE

; 74   : 	{
; 75   : 		TYPE* pData;
; 76   : 		UINT_PTR nElementsLeft;
; 77   : 
; 78   : 		nElementsLeft = nCount;
; 79   : 		pData = pElements;
; 80   : 		while( nElementsLeft > 0 )

  00024	85 f6		 test	 esi, esi
  00026	74 31		 je	 SHORT $LN8@SerializeE
  00028	0f 1f 84 00 00
	00 00 00	 npad	 8
$LL5@SerializeE:

; 81   : 		{
; 82   : 			UINT nElementsToWrite;
; 83   : 
; 84   : 			nElementsToWrite = UINT(__min(nElementsLeft, INT_MAX/sizeof(TYPE)));

  00030	bb ff ff ff 1f	 mov	 ebx, 536870911		; 1fffffffH
  00035	3b f3		 cmp	 esi, ebx
  00037	0f 42 de	 cmovb	 ebx, esi

; 85   : 			ar.Write(pData, nElementsToWrite*sizeof(TYPE));

  0003a	8d 3c 9d 00 00
	00 00		 lea	 edi, DWORD PTR [ebx*4]
  00041	57		 push	 edi
  00042	51		 push	 ecx
  00043	8b ca		 mov	 ecx, edx
  00045	e8 00 00 00 00	 call	 ?Write@CArchive@@QAEXPBXI@Z ; CArchive::Write

; 86   : 			nElementsLeft -= nElementsToWrite;
; 87   : 			pData += nElementsToWrite;

  0004a	8b 4d 0c	 mov	 ecx, DWORD PTR _pElements$[ebp]
  0004d	8b 55 08	 mov	 edx, DWORD PTR _ar$[ebp]
  00050	03 cf		 add	 ecx, edi
  00052	89 4d 0c	 mov	 DWORD PTR _pElements$[ebp], ecx
  00055	2b f3		 sub	 esi, ebx
  00057	75 d7		 jne	 SHORT $LL5@SerializeE
$LN8@SerializeE:
  00059	5f		 pop	 edi

; 105  : 		}
; 106  : 	}
; 107  : }

  0005a	5e		 pop	 esi
  0005b	5b		 pop	 ebx
  0005c	5d		 pop	 ebp
  0005d	c2 0c 00	 ret	 12			; 0000000cH
$LN10@SerializeE:

; 97   : 		while( nElementsLeft > 0 )

  00060	85 f6		 test	 esi, esi
  00062	74 f5		 je	 SHORT $LN8@SerializeE
$LL7@SerializeE:

; 98   : 		{
; 99   : 			UINT nElementsToRead;
; 100  : 
; 101  : 			nElementsToRead = UINT(__min(nElementsLeft, INT_MAX/sizeof(TYPE)));

  00064	bf ff ff ff 1f	 mov	 edi, 536870911		; 1fffffffH
  00069	3b f7		 cmp	 esi, edi
  0006b	0f 42 fe	 cmovb	 edi, esi

; 102  : 			ar.EnsureRead(pData, nElementsToRead*sizeof(TYPE));

  0006e	8d 1c bd 00 00
	00 00		 lea	 ebx, DWORD PTR [edi*4]
; File C:\Program Files (x86)\Microsoft Visual Studio\2019\Community\VC\Tools\MSVC\14.29.30133\atlmfc\include\afx.inl

; 399  : 	UINT nRead=Read(lpBuf, nCount);

  00075	53		 push	 ebx
  00076	51		 push	 ecx
  00077	8b ca		 mov	 ecx, edx
  00079	e8 00 00 00 00	 call	 ?Read@CArchive@@QAEIPAXI@Z ; CArchive::Read

; 400  : 	if(nRead!=nCount)

  0007e	3b c3		 cmp	 eax, ebx
  00080	75 16		 jne	 SHORT $LN23@SerializeE
; File C:\Program Files (x86)\Microsoft Visual Studio\2019\Community\VC\Tools\MSVC\14.29.30133\atlmfc\include\afxtempl.h

; 97   : 		while( nElementsLeft > 0 )

  00082	8b 4d 0c	 mov	 ecx, DWORD PTR _pElements$[ebp]
  00085	8b 55 08	 mov	 edx, DWORD PTR _ar$[ebp]

; 103  : 			nElementsLeft -= nElementsToRead;
; 104  : 			pData += nElementsToRead;

  00088	03 cb		 add	 ecx, ebx
  0008a	89 4d 0c	 mov	 DWORD PTR _pElements$[ebp], ecx
  0008d	2b f7		 sub	 esi, edi
  0008f	75 d3		 jne	 SHORT $LL7@SerializeE

; 105  : 		}
; 106  : 	}
; 107  : }

  00091	5f		 pop	 edi
  00092	5e		 pop	 esi
  00093	5b		 pop	 ebx
  00094	5d		 pop	 ebp
  00095	c2 0c 00	 ret	 12			; 0000000cH
$LN23@SerializeE:
; File C:\Program Files (x86)\Microsoft Visual Studio\2019\Community\VC\Tools\MSVC\14.29.30133\atlmfc\include\afx.inl

; 402  : 		AfxThrowArchiveException(CArchiveException::endOfFile);

  00098	6a 00		 push	 0
  0009a	6a 03		 push	 3
  0009c	e8 00 00 00 00	 call	 ?AfxThrowArchiveException@@YGXHPBD@Z ; AfxThrowArchiveException
$LN34@SerializeE:
; File C:\Program Files (x86)\Microsoft Visual Studio\2019\Community\VC\Tools\MSVC\14.29.30133\atlmfc\include\afxtempl.h

; 68   : 	ENSURE(nCount == 0 || pElements != NULL);

  000a1	e8 00 00 00 00	 call	 ?AfxThrowInvalidArgException@@YGXXZ ; AfxThrowInvalidArgException
$LN32@SerializeE:
  000a6	cc		 int	 3
??$SerializeElements@PAVCStringList@@@@YGXAAVCArchive@@PAPAVCStringList@@H@Z ENDP ; SerializeElements<CStringList *>
_TEXT	ENDS
; Function compile flags: /Ogtp
; File C:\Program Files (x86)\Microsoft Visual Studio\2019\Community\VC\Tools\MSVC\14.29.30133\atlmfc\include\afxtempl.h
; File C:\Program Files (x86)\Microsoft Visual Studio\2019\Community\VC\Tools\MSVC\14.29.30133\atlmfc\include\afx.inl
; File C:\Program Files (x86)\Microsoft Visual Studio\2019\Community\VC\Tools\MSVC\14.29.30133\atlmfc\include\afxtempl.h
; File C:\Program Files (x86)\Microsoft Visual Studio\2019\Community\VC\Tools\MSVC\14.29.30133\atlmfc\include\afx.inl
; File C:\Program Files (x86)\Microsoft Visual Studio\2019\Community\VC\Tools\MSVC\14.29.30133\atlmfc\include\afxtempl.h
; File C:\Program Files (x86)\Microsoft Visual Studio\2019\Community\VC\Tools\MSVC\14.29.30133\atlmfc\include\afx.inl
; File C:\Program Files (x86)\Microsoft Visual Studio\2019\Community\VC\Tools\MSVC\14.29.30133\atlmfc\include\afxtempl.h
;	COMDAT ??$SerializeElements@K@@YGXAAVCArchive@@PAKH@Z
_TEXT	SEGMENT
_ar$ = 8						; size = 4
_pElements$ = 12					; size = 4
_nCount$ = 16						; size = 4
??$SerializeElements@K@@YGXAAVCArchive@@PAKH@Z PROC	; SerializeElements<unsigned long>, COMDAT

; 67   : {

  00000	55		 push	 ebp
  00001	8b ec		 mov	 ebp, esp

; 68   : 	ENSURE(nCount == 0 || pElements != NULL);

  00003	8b 4d 0c	 mov	 ecx, DWORD PTR _pElements$[ebp]
  00006	53		 push	 ebx
  00007	56		 push	 esi
  00008	8b 75 10	 mov	 esi, DWORD PTR _nCount$[ebp]
  0000b	57		 push	 edi
  0000c	85 f6		 test	 esi, esi
  0000e	74 08		 je	 SHORT $LN2@SerializeE
  00010	85 c9		 test	 ecx, ecx
  00012	0f 84 89 00 00
	00		 je	 $LN34@SerializeE
$LN2@SerializeE:
; File C:\Program Files (x86)\Microsoft Visual Studio\2019\Community\VC\Tools\MSVC\14.29.30133\atlmfc\include\afx.inl

; 212  : 	{ return (m_nMode & CArchive::load) == 0; }

  00018	8b 55 08	 mov	 edx, DWORD PTR _ar$[ebp]
  0001b	8b 42 18	 mov	 eax, DWORD PTR [edx+24]
  0001e	f7 d0		 not	 eax
  00020	a8 01		 test	 al, 1
; File C:\Program Files (x86)\Microsoft Visual Studio\2019\Community\VC\Tools\MSVC\14.29.30133\atlmfc\include\afxtempl.h

; 73   : 	if (ar.IsStoring())

  00022	74 3c		 je	 SHORT $LN10@SerializeE

; 74   : 	{
; 75   : 		TYPE* pData;
; 76   : 		UINT_PTR nElementsLeft;
; 77   : 
; 78   : 		nElementsLeft = nCount;
; 79   : 		pData = pElements;
; 80   : 		while( nElementsLeft > 0 )

  00024	85 f6		 test	 esi, esi
  00026	74 31		 je	 SHORT $LN8@SerializeE
  00028	0f 1f 84 00 00
	00 00 00	 npad	 8
$LL5@SerializeE:

; 81   : 		{
; 82   : 			UINT nElementsToWrite;
; 83   : 
; 84   : 			nElementsToWrite = UINT(__min(nElementsLeft, INT_MAX/sizeof(TYPE)));

  00030	bb ff ff ff 1f	 mov	 ebx, 536870911		; 1fffffffH
  00035	3b f3		 cmp	 esi, ebx
  00037	0f 42 de	 cmovb	 ebx, esi

; 85   : 			ar.Write(pData, nElementsToWrite*sizeof(TYPE));

  0003a	8d 3c 9d 00 00
	00 00		 lea	 edi, DWORD PTR [ebx*4]
  00041	57		 push	 edi
  00042	51		 push	 ecx
  00043	8b ca		 mov	 ecx, edx
  00045	e8 00 00 00 00	 call	 ?Write@CArchive@@QAEXPBXI@Z ; CArchive::Write

; 86   : 			nElementsLeft -= nElementsToWrite;
; 87   : 			pData += nElementsToWrite;

  0004a	8b 4d 0c	 mov	 ecx, DWORD PTR _pElements$[ebp]
  0004d	8b 55 08	 mov	 edx, DWORD PTR _ar$[ebp]
  00050	03 cf		 add	 ecx, edi
  00052	89 4d 0c	 mov	 DWORD PTR _pElements$[ebp], ecx
  00055	2b f3		 sub	 esi, ebx
  00057	75 d7		 jne	 SHORT $LL5@SerializeE
$LN8@SerializeE:
  00059	5f		 pop	 edi

; 105  : 		}
; 106  : 	}
; 107  : }

  0005a	5e		 pop	 esi
  0005b	5b		 pop	 ebx
  0005c	5d		 pop	 ebp
  0005d	c2 0c 00	 ret	 12			; 0000000cH
$LN10@SerializeE:

; 97   : 		while( nElementsLeft > 0 )

  00060	85 f6		 test	 esi, esi
  00062	74 f5		 je	 SHORT $LN8@SerializeE
$LL7@SerializeE:

; 98   : 		{
; 99   : 			UINT nElementsToRead;
; 100  : 
; 101  : 			nElementsToRead = UINT(__min(nElementsLeft, INT_MAX/sizeof(TYPE)));

  00064	bf ff ff ff 1f	 mov	 edi, 536870911		; 1fffffffH
  00069	3b f7		 cmp	 esi, edi
  0006b	0f 42 fe	 cmovb	 edi, esi

; 102  : 			ar.EnsureRead(pData, nElementsToRead*sizeof(TYPE));

  0006e	8d 1c bd 00 00
	00 00		 lea	 ebx, DWORD PTR [edi*4]
; File C:\Program Files (x86)\Microsoft Visual Studio\2019\Community\VC\Tools\MSVC\14.29.30133\atlmfc\include\afx.inl

; 399  : 	UINT nRead=Read(lpBuf, nCount);

  00075	53		 push	 ebx
  00076	51		 push	 ecx
  00077	8b ca		 mov	 ecx, edx
  00079	e8 00 00 00 00	 call	 ?Read@CArchive@@QAEIPAXI@Z ; CArchive::Read

; 400  : 	if(nRead!=nCount)

  0007e	3b c3		 cmp	 eax, ebx
  00080	75 16		 jne	 SHORT $LN23@SerializeE
; File C:\Program Files (x86)\Microsoft Visual Studio\2019\Community\VC\Tools\MSVC\14.29.30133\atlmfc\include\afxtempl.h

; 97   : 		while( nElementsLeft > 0 )

  00082	8b 4d 0c	 mov	 ecx, DWORD PTR _pElements$[ebp]
  00085	8b 55 08	 mov	 edx, DWORD PTR _ar$[ebp]

; 103  : 			nElementsLeft -= nElementsToRead;
; 104  : 			pData += nElementsToRead;

  00088	03 cb		 add	 ecx, ebx
  0008a	89 4d 0c	 mov	 DWORD PTR _pElements$[ebp], ecx
  0008d	2b f7		 sub	 esi, edi
  0008f	75 d3		 jne	 SHORT $LL7@SerializeE

; 105  : 		}
; 106  : 	}
; 107  : }

  00091	5f		 pop	 edi
  00092	5e		 pop	 esi
  00093	5b		 pop	 ebx
  00094	5d		 pop	 ebp
  00095	c2 0c 00	 ret	 12			; 0000000cH
$LN23@SerializeE:
; File C:\Program Files (x86)\Microsoft Visual Studio\2019\Community\VC\Tools\MSVC\14.29.30133\atlmfc\include\afx.inl

; 402  : 		AfxThrowArchiveException(CArchiveException::endOfFile);

  00098	6a 00		 push	 0
  0009a	6a 03		 push	 3
  0009c	e8 00 00 00 00	 call	 ?AfxThrowArchiveException@@YGXHPBD@Z ; AfxThrowArchiveException
$LN34@SerializeE:
; File C:\Program Files (x86)\Microsoft Visual Studio\2019\Community\VC\Tools\MSVC\14.29.30133\atlmfc\include\afxtempl.h

; 68   : 	ENSURE(nCount == 0 || pElements != NULL);

  000a1	e8 00 00 00 00	 call	 ?AfxThrowInvalidArgException@@YGXXZ ; AfxThrowInvalidArgException
$LN32@SerializeE:
  000a6	cc		 int	 3
??$SerializeElements@K@@YGXAAVCArchive@@PAKH@Z ENDP	; SerializeElements<unsigned long>
_TEXT	ENDS
; Function compile flags: /Ogtp
; File C:\Program Files (x86)\Microsoft Visual Studio\2019\Community\VC\Tools\MSVC\14.29.30133\atlmfc\include\afxtempl.h
; File C:\Program Files (x86)\Microsoft Visual Studio\2019\Community\VC\Tools\MSVC\14.29.30133\atlmfc\include\afx.inl
; File C:\Program Files (x86)\Microsoft Visual Studio\2019\Community\VC\Tools\MSVC\14.29.30133\atlmfc\include\afxtempl.h
; File C:\Program Files (x86)\Microsoft Visual Studio\2019\Community\VC\Tools\MSVC\14.29.30133\atlmfc\include\afx.inl
; File C:\Program Files (x86)\Microsoft Visual Studio\2019\Community\VC\Tools\MSVC\14.29.30133\atlmfc\include\afxtempl.h
; File C:\Program Files (x86)\Microsoft Visual Studio\2019\Community\VC\Tools\MSVC\14.29.30133\atlmfc\include\afx.inl
; File C:\Program Files (x86)\Microsoft Visual Studio\2019\Community\VC\Tools\MSVC\14.29.30133\atlmfc\include\afxtempl.h
;	COMDAT ??$SerializeElements@W4CONTROLTYPE@CItemInfo@@@@YGXAAVCArchive@@PAW4CONTROLTYPE@CItemInfo@@H@Z
_TEXT	SEGMENT
_ar$ = 8						; size = 4
_pElements$ = 12					; size = 4
_nCount$ = 16						; size = 4
??$SerializeElements@W4CONTROLTYPE@CItemInfo@@@@YGXAAVCArchive@@PAW4CONTROLTYPE@CItemInfo@@H@Z PROC ; SerializeElements<enum CItemInfo::CONTROLTYPE>, COMDAT

; 67   : {

  00000	55		 push	 ebp
  00001	8b ec		 mov	 ebp, esp

; 68   : 	ENSURE(nCount == 0 || pElements != NULL);

  00003	8b 4d 0c	 mov	 ecx, DWORD PTR _pElements$[ebp]
  00006	53		 push	 ebx
  00007	56		 push	 esi
  00008	8b 75 10	 mov	 esi, DWORD PTR _nCount$[ebp]
  0000b	57		 push	 edi
  0000c	85 f6		 test	 esi, esi
  0000e	74 08		 je	 SHORT $LN2@SerializeE
  00010	85 c9		 test	 ecx, ecx
  00012	0f 84 89 00 00
	00		 je	 $LN34@SerializeE
$LN2@SerializeE:
; File C:\Program Files (x86)\Microsoft Visual Studio\2019\Community\VC\Tools\MSVC\14.29.30133\atlmfc\include\afx.inl

; 212  : 	{ return (m_nMode & CArchive::load) == 0; }

  00018	8b 55 08	 mov	 edx, DWORD PTR _ar$[ebp]
  0001b	8b 42 18	 mov	 eax, DWORD PTR [edx+24]
  0001e	f7 d0		 not	 eax
  00020	a8 01		 test	 al, 1
; File C:\Program Files (x86)\Microsoft Visual Studio\2019\Community\VC\Tools\MSVC\14.29.30133\atlmfc\include\afxtempl.h

; 73   : 	if (ar.IsStoring())

  00022	74 3c		 je	 SHORT $LN10@SerializeE

; 74   : 	{
; 75   : 		TYPE* pData;
; 76   : 		UINT_PTR nElementsLeft;
; 77   : 
; 78   : 		nElementsLeft = nCount;
; 79   : 		pData = pElements;
; 80   : 		while( nElementsLeft > 0 )

  00024	85 f6		 test	 esi, esi
  00026	74 31		 je	 SHORT $LN8@SerializeE
  00028	0f 1f 84 00 00
	00 00 00	 npad	 8
$LL5@SerializeE:

; 81   : 		{
; 82   : 			UINT nElementsToWrite;
; 83   : 
; 84   : 			nElementsToWrite = UINT(__min(nElementsLeft, INT_MAX/sizeof(TYPE)));

  00030	bb ff ff ff 1f	 mov	 ebx, 536870911		; 1fffffffH
  00035	3b f3		 cmp	 esi, ebx
  00037	0f 42 de	 cmovb	 ebx, esi

; 85   : 			ar.Write(pData, nElementsToWrite*sizeof(TYPE));

  0003a	8d 3c 9d 00 00
	00 00		 lea	 edi, DWORD PTR [ebx*4]
  00041	57		 push	 edi
  00042	51		 push	 ecx
  00043	8b ca		 mov	 ecx, edx
  00045	e8 00 00 00 00	 call	 ?Write@CArchive@@QAEXPBXI@Z ; CArchive::Write

; 86   : 			nElementsLeft -= nElementsToWrite;
; 87   : 			pData += nElementsToWrite;

  0004a	8b 4d 0c	 mov	 ecx, DWORD PTR _pElements$[ebp]
  0004d	8b 55 08	 mov	 edx, DWORD PTR _ar$[ebp]
  00050	03 cf		 add	 ecx, edi
  00052	89 4d 0c	 mov	 DWORD PTR _pElements$[ebp], ecx
  00055	2b f3		 sub	 esi, ebx
  00057	75 d7		 jne	 SHORT $LL5@SerializeE
$LN8@SerializeE:
  00059	5f		 pop	 edi

; 105  : 		}
; 106  : 	}
; 107  : }

  0005a	5e		 pop	 esi
  0005b	5b		 pop	 ebx
  0005c	5d		 pop	 ebp
  0005d	c2 0c 00	 ret	 12			; 0000000cH
$LN10@SerializeE:

; 97   : 		while( nElementsLeft > 0 )

  00060	85 f6		 test	 esi, esi
  00062	74 f5		 je	 SHORT $LN8@SerializeE
$LL7@SerializeE:

; 98   : 		{
; 99   : 			UINT nElementsToRead;
; 100  : 
; 101  : 			nElementsToRead = UINT(__min(nElementsLeft, INT_MAX/sizeof(TYPE)));

  00064	bf ff ff ff 1f	 mov	 edi, 536870911		; 1fffffffH
  00069	3b f7		 cmp	 esi, edi
  0006b	0f 42 fe	 cmovb	 edi, esi

; 102  : 			ar.EnsureRead(pData, nElementsToRead*sizeof(TYPE));

  0006e	8d 1c bd 00 00
	00 00		 lea	 ebx, DWORD PTR [edi*4]
; File C:\Program Files (x86)\Microsoft Visual Studio\2019\Community\VC\Tools\MSVC\14.29.30133\atlmfc\include\afx.inl

; 399  : 	UINT nRead=Read(lpBuf, nCount);

  00075	53		 push	 ebx
  00076	51		 push	 ecx
  00077	8b ca		 mov	 ecx, edx
  00079	e8 00 00 00 00	 call	 ?Read@CArchive@@QAEIPAXI@Z ; CArchive::Read

; 400  : 	if(nRead!=nCount)

  0007e	3b c3		 cmp	 eax, ebx
  00080	75 16		 jne	 SHORT $LN23@SerializeE
; File C:\Program Files (x86)\Microsoft Visual Studio\2019\Community\VC\Tools\MSVC\14.29.30133\atlmfc\include\afxtempl.h

; 97   : 		while( nElementsLeft > 0 )

  00082	8b 4d 0c	 mov	 ecx, DWORD PTR _pElements$[ebp]
  00085	8b 55 08	 mov	 edx, DWORD PTR _ar$[ebp]

; 103  : 			nElementsLeft -= nElementsToRead;
; 104  : 			pData += nElementsToRead;

  00088	03 cb		 add	 ecx, ebx
  0008a	89 4d 0c	 mov	 DWORD PTR _pElements$[ebp], ecx
  0008d	2b f7		 sub	 esi, edi
  0008f	75 d3		 jne	 SHORT $LL7@SerializeE

; 105  : 		}
; 106  : 	}
; 107  : }

  00091	5f		 pop	 edi
  00092	5e		 pop	 esi
  00093	5b		 pop	 ebx
  00094	5d		 pop	 ebp
  00095	c2 0c 00	 ret	 12			; 0000000cH
$LN23@SerializeE:
; File C:\Program Files (x86)\Microsoft Visual Studio\2019\Community\VC\Tools\MSVC\14.29.30133\atlmfc\include\afx.inl

; 402  : 		AfxThrowArchiveException(CArchiveException::endOfFile);

  00098	6a 00		 push	 0
  0009a	6a 03		 push	 3
  0009c	e8 00 00 00 00	 call	 ?AfxThrowArchiveException@@YGXHPBD@Z ; AfxThrowArchiveException
$LN34@SerializeE:
; File C:\Program Files (x86)\Microsoft Visual Studio\2019\Community\VC\Tools\MSVC\14.29.30133\atlmfc\include\afxtempl.h

; 68   : 	ENSURE(nCount == 0 || pElements != NULL);

  000a1	e8 00 00 00 00	 call	 ?AfxThrowInvalidArgException@@YGXXZ ; AfxThrowInvalidArgException
$LN32@SerializeE:
  000a6	cc		 int	 3
??$SerializeElements@W4CONTROLTYPE@CItemInfo@@@@YGXAAVCArchive@@PAW4CONTROLTYPE@CItemInfo@@H@Z ENDP ; SerializeElements<enum CItemInfo::CONTROLTYPE>
_TEXT	ENDS
; Function compile flags: /Ogtp
; File C:\Program Files (x86)\Microsoft Visual Studio\2019\Community\VC\Tools\MSVC\14.29.30133\atlmfc\include\afxtempl.h
; File C:\Program Files (x86)\Microsoft Visual Studio\2019\Community\VC\Tools\MSVC\14.29.30133\atlmfc\include\afx.inl
; File C:\Program Files (x86)\Microsoft Visual Studio\2019\Community\VC\Tools\MSVC\14.29.30133\atlmfc\include\afxtempl.h
; File C:\Program Files (x86)\Microsoft Visual Studio\2019\Community\VC\Tools\MSVC\14.29.30133\atlmfc\include\afx.inl
; File C:\Program Files (x86)\Microsoft Visual Studio\2019\Community\VC\Tools\MSVC\14.29.30133\atlmfc\include\afxtempl.h
; File C:\Program Files (x86)\Microsoft Visual Studio\2019\Community\VC\Tools\MSVC\14.29.30133\atlmfc\include\afx.inl
; File C:\Program Files (x86)\Microsoft Visual Studio\2019\Community\VC\Tools\MSVC\14.29.30133\atlmfc\include\afxtempl.h
;	COMDAT ??$SerializeElements@H@@YGXAAVCArchive@@PAHH@Z
_TEXT	SEGMENT
_ar$ = 8						; size = 4
_pElements$ = 12					; size = 4
_nCount$ = 16						; size = 4
??$SerializeElements@H@@YGXAAVCArchive@@PAHH@Z PROC	; SerializeElements<int>, COMDAT

; 67   : {

  00000	55		 push	 ebp
  00001	8b ec		 mov	 ebp, esp

; 68   : 	ENSURE(nCount == 0 || pElements != NULL);

  00003	8b 4d 0c	 mov	 ecx, DWORD PTR _pElements$[ebp]
  00006	53		 push	 ebx
  00007	56		 push	 esi
  00008	8b 75 10	 mov	 esi, DWORD PTR _nCount$[ebp]
  0000b	57		 push	 edi
  0000c	85 f6		 test	 esi, esi
  0000e	74 08		 je	 SHORT $LN2@SerializeE
  00010	85 c9		 test	 ecx, ecx
  00012	0f 84 89 00 00
	00		 je	 $LN34@SerializeE
$LN2@SerializeE:
; File C:\Program Files (x86)\Microsoft Visual Studio\2019\Community\VC\Tools\MSVC\14.29.30133\atlmfc\include\afx.inl

; 212  : 	{ return (m_nMode & CArchive::load) == 0; }

  00018	8b 55 08	 mov	 edx, DWORD PTR _ar$[ebp]
  0001b	8b 42 18	 mov	 eax, DWORD PTR [edx+24]
  0001e	f7 d0		 not	 eax
  00020	a8 01		 test	 al, 1
; File C:\Program Files (x86)\Microsoft Visual Studio\2019\Community\VC\Tools\MSVC\14.29.30133\atlmfc\include\afxtempl.h

; 73   : 	if (ar.IsStoring())

  00022	74 3c		 je	 SHORT $LN10@SerializeE

; 74   : 	{
; 75   : 		TYPE* pData;
; 76   : 		UINT_PTR nElementsLeft;
; 77   : 
; 78   : 		nElementsLeft = nCount;
; 79   : 		pData = pElements;
; 80   : 		while( nElementsLeft > 0 )

  00024	85 f6		 test	 esi, esi
  00026	74 31		 je	 SHORT $LN8@SerializeE
  00028	0f 1f 84 00 00
	00 00 00	 npad	 8
$LL5@SerializeE:

; 81   : 		{
; 82   : 			UINT nElementsToWrite;
; 83   : 
; 84   : 			nElementsToWrite = UINT(__min(nElementsLeft, INT_MAX/sizeof(TYPE)));

  00030	bb ff ff ff 1f	 mov	 ebx, 536870911		; 1fffffffH
  00035	3b f3		 cmp	 esi, ebx
  00037	0f 42 de	 cmovb	 ebx, esi

; 85   : 			ar.Write(pData, nElementsToWrite*sizeof(TYPE));

  0003a	8d 3c 9d 00 00
	00 00		 lea	 edi, DWORD PTR [ebx*4]
  00041	57		 push	 edi
  00042	51		 push	 ecx
  00043	8b ca		 mov	 ecx, edx
  00045	e8 00 00 00 00	 call	 ?Write@CArchive@@QAEXPBXI@Z ; CArchive::Write

; 86   : 			nElementsLeft -= nElementsToWrite;
; 87   : 			pData += nElementsToWrite;

  0004a	8b 4d 0c	 mov	 ecx, DWORD PTR _pElements$[ebp]
  0004d	8b 55 08	 mov	 edx, DWORD PTR _ar$[ebp]
  00050	03 cf		 add	 ecx, edi
  00052	89 4d 0c	 mov	 DWORD PTR _pElements$[ebp], ecx
  00055	2b f3		 sub	 esi, ebx
  00057	75 d7		 jne	 SHORT $LL5@SerializeE
$LN8@SerializeE:
  00059	5f		 pop	 edi

; 105  : 		}
; 106  : 	}
; 107  : }

  0005a	5e		 pop	 esi
  0005b	5b		 pop	 ebx
  0005c	5d		 pop	 ebp
  0005d	c2 0c 00	 ret	 12			; 0000000cH
$LN10@SerializeE:

; 97   : 		while( nElementsLeft > 0 )

  00060	85 f6		 test	 esi, esi
  00062	74 f5		 je	 SHORT $LN8@SerializeE
$LL7@SerializeE:

; 98   : 		{
; 99   : 			UINT nElementsToRead;
; 100  : 
; 101  : 			nElementsToRead = UINT(__min(nElementsLeft, INT_MAX/sizeof(TYPE)));

  00064	bf ff ff ff 1f	 mov	 edi, 536870911		; 1fffffffH
  00069	3b f7		 cmp	 esi, edi
  0006b	0f 42 fe	 cmovb	 edi, esi

; 102  : 			ar.EnsureRead(pData, nElementsToRead*sizeof(TYPE));

  0006e	8d 1c bd 00 00
	00 00		 lea	 ebx, DWORD PTR [edi*4]
; File C:\Program Files (x86)\Microsoft Visual Studio\2019\Community\VC\Tools\MSVC\14.29.30133\atlmfc\include\afx.inl

; 399  : 	UINT nRead=Read(lpBuf, nCount);

  00075	53		 push	 ebx
  00076	51		 push	 ecx
  00077	8b ca		 mov	 ecx, edx
  00079	e8 00 00 00 00	 call	 ?Read@CArchive@@QAEIPAXI@Z ; CArchive::Read

; 400  : 	if(nRead!=nCount)

  0007e	3b c3		 cmp	 eax, ebx
  00080	75 16		 jne	 SHORT $LN23@SerializeE
; File C:\Program Files (x86)\Microsoft Visual Studio\2019\Community\VC\Tools\MSVC\14.29.30133\atlmfc\include\afxtempl.h

; 97   : 		while( nElementsLeft > 0 )

  00082	8b 4d 0c	 mov	 ecx, DWORD PTR _pElements$[ebp]
  00085	8b 55 08	 mov	 edx, DWORD PTR _ar$[ebp]

; 103  : 			nElementsLeft -= nElementsToRead;
; 104  : 			pData += nElementsToRead;

  00088	03 cb		 add	 ecx, ebx
  0008a	89 4d 0c	 mov	 DWORD PTR _pElements$[ebp], ecx
  0008d	2b f7		 sub	 esi, edi
  0008f	75 d3		 jne	 SHORT $LL7@SerializeE

; 105  : 		}
; 106  : 	}
; 107  : }

  00091	5f		 pop	 edi
  00092	5e		 pop	 esi
  00093	5b		 pop	 ebx
  00094	5d		 pop	 ebp
  00095	c2 0c 00	 ret	 12			; 0000000cH
$LN23@SerializeE:
; File C:\Program Files (x86)\Microsoft Visual Studio\2019\Community\VC\Tools\MSVC\14.29.30133\atlmfc\include\afx.inl

; 402  : 		AfxThrowArchiveException(CArchiveException::endOfFile);

  00098	6a 00		 push	 0
  0009a	6a 03		 push	 3
  0009c	e8 00 00 00 00	 call	 ?AfxThrowArchiveException@@YGXHPBD@Z ; AfxThrowArchiveException
$LN34@SerializeE:
; File C:\Program Files (x86)\Microsoft Visual Studio\2019\Community\VC\Tools\MSVC\14.29.30133\atlmfc\include\afxtempl.h

; 68   : 	ENSURE(nCount == 0 || pElements != NULL);

  000a1	e8 00 00 00 00	 call	 ?AfxThrowInvalidArgException@@YGXXZ ; AfxThrowInvalidArgException
$LN32@SerializeE:
  000a6	cc		 int	 3
??$SerializeElements@H@@YGXAAVCArchive@@PAHH@Z ENDP	; SerializeElements<int>
_TEXT	ENDS
; Function compile flags: /Ogtp
; File D:\git\src\IBK\IBK_DRFN\ProjSrc\SrcChartEx\ChartAddIn\ChartDesignPropertyAddIn\ChartDesignPropertyAddIn\ToolandRButtonGrid_ListCtrl.cpp
; File C:\Program Files (x86)\Microsoft Visual Studio\2019\Community\VC\Tools\MSVC\14.29.30133\atlmfc\include\afx.inl
;	COMDAT ??_GCToolandRButtonGrid_ListCtrl@@UAEPAXI@Z
_TEXT	SEGMENT
___flags$ = 8						; size = 4
??_GCToolandRButtonGrid_ListCtrl@@UAEPAXI@Z PROC	; CToolandRButtonGrid_ListCtrl::`scalar deleting destructor', COMDAT
; _this$ = ecx
  00000	55		 push	 ebp
  00001	8b ec		 mov	 ebp, esp
; File D:\git\src\IBK\IBK_DRFN\ProjSrc\SrcChartEx\ChartAddIn\ChartDesignPropertyAddIn\ChartDesignPropertyAddIn\ToolandRButtonGrid_ListCtrl.cpp

; 33   : {

  00003	56		 push	 esi
  00004	8b f1		 mov	 esi, ecx

; 34   : }

  00006	8d 8e 38 01 00
	00		 lea	 ecx, DWORD PTR [esi+312]
  0000c	c7 06 00 00 00
	00		 mov	 DWORD PTR [esi], OFFSET ??_7CToolandRButtonGrid_ListCtrl@@6B@
  00012	ff 15 00 00 00
	00		 call	 DWORD PTR __imp_??1?$CStringT@DV?$StrTraitMFC_DLL@DV?$ChTraitsCRT@D@ATL@@@@@ATL@@QAE@XZ
  00018	8d 8e fc 00 00
	00		 lea	 ecx, DWORD PTR [esi+252]
  0001e	e8 00 00 00 00	 call	 ??1COleListCtrlDropTarget@@UAE@XZ ; COleListCtrlDropTarget::~COleListCtrlDropTarget
  00023	8d 8e ec 00 00
	00		 lea	 ecx, DWORD PTR [esi+236]
  00029	e8 00 00 00 00	 call	 ??1CImageList@@UAE@XZ	; CImageList::~CImageList
  0002e	8b ce		 mov	 ecx, esi
  00030	e8 00 00 00 00	 call	 ??1CSuperGridCtrl@@UAE@XZ ; CSuperGridCtrl::~CSuperGridCtrl
  00035	8b 45 08	 mov	 eax, DWORD PTR ___flags$[ebp]
  00038	a8 01		 test	 al, 1
  0003a	74 22		 je	 SHORT $LN12@scalar
  0003c	a8 04		 test	 al, 4
  0003e	75 10		 jne	 SHORT $LN3@scalar
; File C:\Program Files (x86)\Microsoft Visual Studio\2019\Community\VC\Tools\MSVC\14.29.30133\atlmfc\include\afx.inl

; 112  : 	{ ::operator delete(p); }

  00040	56		 push	 esi
  00041	e8 00 00 00 00	 call	 ??3@YAXPAX@Z		; operator delete
  00046	83 c4 04	 add	 esp, 4
  00049	8b c6		 mov	 eax, esi
  0004b	5e		 pop	 esi
  0004c	5d		 pop	 ebp
  0004d	c2 04 00	 ret	 4
$LN3@scalar:
  00050	68 48 01 00 00	 push	 328			; 00000148H
  00055	56		 push	 esi
  00056	e8 00 00 00 00	 call	 ?__global_delete@@YAXPAXI@Z ; __global_delete
  0005b	83 c4 08	 add	 esp, 8
$LN12@scalar:
  0005e	8b c6		 mov	 eax, esi
  00060	5e		 pop	 esi
  00061	5d		 pop	 ebp
  00062	c2 04 00	 ret	 4
??_GCToolandRButtonGrid_ListCtrl@@UAEPAXI@Z ENDP	; CToolandRButtonGrid_ListCtrl::`scalar deleting destructor'
_TEXT	ENDS
; Function compile flags: /Ogtp
; File D:\git\src\IBK\IBK_DRFN\ProjSrc\SrcChartEx\ChartAddIn\ChartDesignPropertyAddIn\ChartDesignPropertyAddIn\ToolandRButtonGrid_ListCtrl.cpp
; File D:\git\src\IBK\IBK_DRFN\ProjSrc\SrcChartEx\ChartAddIn\ChartDesignPropertyAddIn\ChartDesignPropertyAddIn\SuperGridCtrl.h
; File D:\git\src\IBK\IBK_DRFN\ProjSrc\SrcChartEx\ChartAddIn\ChartDesignPropertyAddIn\ChartDesignPropertyAddIn\ToolandRButtonGrid_ListCtrl.cpp
; File D:\git\src\IBK\IBK_DRFN\ProjSrc\SrcChartEx\ChartAddIn\ChartDesignPropertyAddIn\ChartDesignPropertyAddIn\SuperGridCtrl.h
; File D:\git\src\IBK\IBK_DRFN\ProjSrc\SrcChartEx\ChartAddIn\ChartDesignPropertyAddIn\ChartDesignPropertyAddIn\ToolandRButtonGrid_ListCtrl.cpp
; File C:\Program Files (x86)\Microsoft Visual Studio\2019\Community\VC\Tools\MSVC\14.29.30133\atlmfc\include\afxcoll.inl
; File D:\git\src\IBK\IBK_DRFN\ProjSrc\SrcChartEx\ChartAddIn\ChartDesignPropertyAddIn\ChartDesignPropertyAddIn\ToolandRButtonGrid_ListCtrl.cpp
; File C:\Program Files (x86)\Microsoft Visual Studio\2019\Community\VC\Tools\MSVC\14.29.30133\atlmfc\include\afxcoll.inl
; File D:\git\src\IBK\IBK_DRFN\ProjSrc\SrcChartEx\ChartAddIn\ChartDesignPropertyAddIn\ChartDesignPropertyAddIn\ToolandRButtonGrid_ListCtrl.cpp
; File C:\Program Files (x86)\Microsoft Visual Studio\2019\Community\VC\Tools\MSVC\14.29.30133\atlmfc\include\afxcoll.inl
; File D:\git\src\IBK\IBK_DRFN\ProjSrc\SrcChartEx\ChartAddIn\ChartDesignPropertyAddIn\ChartDesignPropertyAddIn\ToolandRButtonGrid_ListCtrl.cpp
; File C:\Program Files (x86)\Microsoft Visual Studio\2019\Community\VC\Tools\MSVC\14.29.30133\atlmfc\include\afxcoll.inl
; File D:\git\src\IBK\IBK_DRFN\ProjSrc\SrcChartEx\ChartAddIn\ChartDesignPropertyAddIn\ChartDesignPropertyAddIn\ToolandRButtonGrid_ListCtrl.cpp
; File C:\Program Files (x86)\Microsoft Visual Studio\2019\Community\VC\Tools\MSVC\14.29.30133\atlmfc\include\afxcoll.inl
; File D:\git\src\IBK\IBK_DRFN\ProjSrc\SrcChartEx\ChartAddIn\ChartDesignPropertyAddIn\ChartDesignPropertyAddIn\ToolandRButtonGrid_ListCtrl.cpp
; File C:\Program Files (x86)\Microsoft Visual Studio\2019\Community\VC\Tools\MSVC\14.29.30133\atlmfc\include\afxcoll.inl
; File D:\git\src\IBK\IBK_DRFN\ProjSrc\SrcChartEx\ChartAddIn\ChartDesignPropertyAddIn\ChartDesignPropertyAddIn\ToolandRButtonGrid_ListCtrl.cpp
; File C:\Program Files (x86)\Microsoft Visual Studio\2019\Community\VC\Tools\MSVC\14.29.30133\atlmfc\include\afxcoll.inl
; File D:\git\src\IBK\IBK_DRFN\ProjSrc\SrcChartEx\ChartAddIn\ChartDesignPropertyAddIn\ChartDesignPropertyAddIn\ToolandRButtonGrid_ListCtrl.cpp
;	COMDAT ?SetRootItem@CToolandRButtonGrid_ListCtrl@@AAEXABV?$CStringT@DV?$StrTraitMFC_DLL@DV?$ChTraitsCRT@D@ATL@@@@@ATL@@PAVCItemInfo@@@Z
_TEXT	SEGMENT
__$EHRec$ = -12						; size = 12
$T2 = 8							; size = 4
$T3 = 8							; size = 4
$T4 = 8							; size = 4
_szItemName$ = 8					; size = 4
$T5 = 12						; size = 4
_lpItemInfo$ = 12					; size = 4
?SetRootItem@CToolandRButtonGrid_ListCtrl@@AAEXABV?$CStringT@DV?$StrTraitMFC_DLL@DV?$ChTraitsCRT@D@ATL@@@@@ATL@@PAVCItemInfo@@@Z PROC ; CToolandRButtonGrid_ListCtrl::SetRootItem, COMDAT
; _this$ = ecx

; 398  : {

  00000	55		 push	 ebp
  00001	8b ec		 mov	 ebp, esp
  00003	6a ff		 push	 -1
  00005	68 00 00 00 00	 push	 __ehhandler$?SetRootItem@CToolandRButtonGrid_ListCtrl@@AAEXABV?$CStringT@DV?$StrTraitMFC_DLL@DV?$ChTraitsCRT@D@ATL@@@@@ATL@@PAVCItemInfo@@@Z
  0000a	64 a1 00 00 00
	00		 mov	 eax, DWORD PTR fs:0
  00010	50		 push	 eax
  00011	56		 push	 esi
  00012	a1 00 00 00 00	 mov	 eax, DWORD PTR ___security_cookie
  00017	33 c5		 xor	 eax, ebp
  00019	50		 push	 eax
  0001a	8d 45 f4	 lea	 eax, DWORD PTR __$EHRec$[ebp]
  0001d	64 a3 00 00 00
	00		 mov	 DWORD PTR fs:0, eax
; File D:\git\src\IBK\IBK_DRFN\ProjSrc\SrcChartEx\ChartAddIn\ChartDesignPropertyAddIn\ChartDesignPropertyAddIn\SuperGridCtrl.h

; 15   : 	void SetItemText(const CString& strItem){ m_strItemName = strItem; }

  00023	8b 75 0c	 mov	 esi, DWORD PTR _lpItemInfo$[ebp]
  00026	ff 75 08	 push	 DWORD PTR _szItemName$[ebp]
  00029	8d 4e 60	 lea	 ecx, DWORD PTR [esi+96]
  0002c	ff 15 00 00 00
	00		 call	 DWORD PTR __imp_??4?$CStringT@DV?$StrTraitMFC_DLL@DV?$ChTraitsCRT@D@ATL@@@@@ATL@@QAEAAV01@ABV01@@Z
; File D:\git\src\IBK\IBK_DRFN\ProjSrc\SrcChartEx\ChartAddIn\ChartDesignPropertyAddIn\ChartDesignPropertyAddIn\ToolandRButtonGrid_ListCtrl.cpp

; 402  : 	lpItemInfo->AddSubItemText(_T(""));      // 0 zero based subitems...

  00032	68 00 00 00 00	 push	 OFFSET ??_C@_00CNPNBAHC@@
  00037	8d 4d 08	 lea	 ecx, DWORD PTR $T4[ebp]
  0003a	ff 15 00 00 00
	00		 call	 DWORD PTR __imp_??0?$CStringT@DV?$StrTraitMFC_DLL@DV?$ChTraitsCRT@D@ATL@@@@@ATL@@QAE@PBD@Z
; File D:\git\src\IBK\IBK_DRFN\ProjSrc\SrcChartEx\ChartAddIn\ChartDesignPropertyAddIn\ChartDesignPropertyAddIn\SuperGridCtrl.h

; 17   : 	void AddSubItemText(const CString& strSubItem){ m_SubItems.Add(strSubItem); }

  00040	83 c6 64	 add	 esi, 100		; 00000064H
; File D:\git\src\IBK\IBK_DRFN\ProjSrc\SrcChartEx\ChartAddIn\ChartDesignPropertyAddIn\ChartDesignPropertyAddIn\ToolandRButtonGrid_ListCtrl.cpp

; 402  : 	lpItemInfo->AddSubItemText(_T(""));      // 0 zero based subitems...

  00043	c7 45 fc 00 00
	00 00		 mov	 DWORD PTR __$EHRec$[ebp+8], 0
; File C:\Program Files (x86)\Microsoft Visual Studio\2019\Community\VC\Tools\MSVC\14.29.30133\atlmfc\include\afxcoll.inl

; 321  : 		SetAtGrow(nIndex, newElement);

  0004a	8d 45 08	 lea	 eax, DWORD PTR $T4[ebp]
  0004d	8b ce		 mov	 ecx, esi
  0004f	50		 push	 eax
  00050	ff 76 08	 push	 DWORD PTR [esi+8]
  00053	e8 00 00 00 00	 call	 ?SetAtGrow@CStringArray@@QAEXHABV?$CStringT@DV?$StrTraitMFC_DLL@DV?$ChTraitsCRT@D@ATL@@@@@ATL@@@Z ; CStringArray::SetAtGrow
; File D:\git\src\IBK\IBK_DRFN\ProjSrc\SrcChartEx\ChartAddIn\ChartDesignPropertyAddIn\ChartDesignPropertyAddIn\ToolandRButtonGrid_ListCtrl.cpp

; 402  : 	lpItemInfo->AddSubItemText(_T(""));      // 0 zero based subitems...

  00058	8d 4d 08	 lea	 ecx, DWORD PTR $T4[ebp]
  0005b	c7 45 fc ff ff
	ff ff		 mov	 DWORD PTR __$EHRec$[ebp+8], -1
  00062	ff 15 00 00 00
	00		 call	 DWORD PTR __imp_??1?$CStringT@DV?$StrTraitMFC_DLL@DV?$ChTraitsCRT@D@ATL@@@@@ATL@@QAE@XZ

; 403  : 	lpItemInfo->AddSubItemText(_T(""));      // 1 zero based subitems...

  00068	68 00 00 00 00	 push	 OFFSET ??_C@_00CNPNBAHC@@
  0006d	8d 4d 08	 lea	 ecx, DWORD PTR $T3[ebp]
  00070	ff 15 00 00 00
	00		 call	 DWORD PTR __imp_??0?$CStringT@DV?$StrTraitMFC_DLL@DV?$ChTraitsCRT@D@ATL@@@@@ATL@@QAE@PBD@Z
; File C:\Program Files (x86)\Microsoft Visual Studio\2019\Community\VC\Tools\MSVC\14.29.30133\atlmfc\include\afxcoll.inl

; 321  : 		SetAtGrow(nIndex, newElement);

  00076	8d 45 08	 lea	 eax, DWORD PTR $T3[ebp]
; File D:\git\src\IBK\IBK_DRFN\ProjSrc\SrcChartEx\ChartAddIn\ChartDesignPropertyAddIn\ChartDesignPropertyAddIn\ToolandRButtonGrid_ListCtrl.cpp

; 403  : 	lpItemInfo->AddSubItemText(_T(""));      // 1 zero based subitems...

  00079	c7 45 fc 01 00
	00 00		 mov	 DWORD PTR __$EHRec$[ebp+8], 1
; File C:\Program Files (x86)\Microsoft Visual Studio\2019\Community\VC\Tools\MSVC\14.29.30133\atlmfc\include\afxcoll.inl

; 321  : 		SetAtGrow(nIndex, newElement);

  00080	50		 push	 eax
  00081	ff 76 08	 push	 DWORD PTR [esi+8]
  00084	8b ce		 mov	 ecx, esi
  00086	e8 00 00 00 00	 call	 ?SetAtGrow@CStringArray@@QAEXHABV?$CStringT@DV?$StrTraitMFC_DLL@DV?$ChTraitsCRT@D@ATL@@@@@ATL@@@Z ; CStringArray::SetAtGrow
; File D:\git\src\IBK\IBK_DRFN\ProjSrc\SrcChartEx\ChartAddIn\ChartDesignPropertyAddIn\ChartDesignPropertyAddIn\ToolandRButtonGrid_ListCtrl.cpp

; 403  : 	lpItemInfo->AddSubItemText(_T(""));      // 1 zero based subitems...

  0008b	8d 4d 08	 lea	 ecx, DWORD PTR $T3[ebp]
  0008e	c7 45 fc ff ff
	ff ff		 mov	 DWORD PTR __$EHRec$[ebp+8], -1
  00095	ff 15 00 00 00
	00		 call	 DWORD PTR __imp_??1?$CStringT@DV?$StrTraitMFC_DLL@DV?$ChTraitsCRT@D@ATL@@@@@ATL@@QAE@XZ

; 404  : 	lpItemInfo->AddSubItemText(_T(""));      // 2 zero based subitems...

  0009b	68 00 00 00 00	 push	 OFFSET ??_C@_00CNPNBAHC@@
  000a0	8d 4d 08	 lea	 ecx, DWORD PTR $T2[ebp]
  000a3	ff 15 00 00 00
	00		 call	 DWORD PTR __imp_??0?$CStringT@DV?$StrTraitMFC_DLL@DV?$ChTraitsCRT@D@ATL@@@@@ATL@@QAE@PBD@Z
; File C:\Program Files (x86)\Microsoft Visual Studio\2019\Community\VC\Tools\MSVC\14.29.30133\atlmfc\include\afxcoll.inl

; 321  : 		SetAtGrow(nIndex, newElement);

  000a9	8d 45 08	 lea	 eax, DWORD PTR $T2[ebp]
; File D:\git\src\IBK\IBK_DRFN\ProjSrc\SrcChartEx\ChartAddIn\ChartDesignPropertyAddIn\ChartDesignPropertyAddIn\ToolandRButtonGrid_ListCtrl.cpp

; 404  : 	lpItemInfo->AddSubItemText(_T(""));      // 2 zero based subitems...

  000ac	c7 45 fc 02 00
	00 00		 mov	 DWORD PTR __$EHRec$[ebp+8], 2
; File C:\Program Files (x86)\Microsoft Visual Studio\2019\Community\VC\Tools\MSVC\14.29.30133\atlmfc\include\afxcoll.inl

; 321  : 		SetAtGrow(nIndex, newElement);

  000b3	50		 push	 eax
  000b4	ff 76 08	 push	 DWORD PTR [esi+8]
  000b7	8b ce		 mov	 ecx, esi
  000b9	e8 00 00 00 00	 call	 ?SetAtGrow@CStringArray@@QAEXHABV?$CStringT@DV?$StrTraitMFC_DLL@DV?$ChTraitsCRT@D@ATL@@@@@ATL@@@Z ; CStringArray::SetAtGrow
; File D:\git\src\IBK\IBK_DRFN\ProjSrc\SrcChartEx\ChartAddIn\ChartDesignPropertyAddIn\ChartDesignPropertyAddIn\ToolandRButtonGrid_ListCtrl.cpp

; 404  : 	lpItemInfo->AddSubItemText(_T(""));      // 2 zero based subitems...

  000be	8d 4d 08	 lea	 ecx, DWORD PTR $T2[ebp]
  000c1	c7 45 fc ff ff
	ff ff		 mov	 DWORD PTR __$EHRec$[ebp+8], -1
  000c8	ff 15 00 00 00
	00		 call	 DWORD PTR __imp_??1?$CStringT@DV?$StrTraitMFC_DLL@DV?$ChTraitsCRT@D@ATL@@@@@ATL@@QAE@XZ

; 405  : 	lpItemInfo->AddSubItemText(_T(""));      // 3 zero based subitems...

  000ce	68 00 00 00 00	 push	 OFFSET ??_C@_00CNPNBAHC@@
  000d3	8d 4d 0c	 lea	 ecx, DWORD PTR $T5[ebp]
  000d6	ff 15 00 00 00
	00		 call	 DWORD PTR __imp_??0?$CStringT@DV?$StrTraitMFC_DLL@DV?$ChTraitsCRT@D@ATL@@@@@ATL@@QAE@PBD@Z
; File C:\Program Files (x86)\Microsoft Visual Studio\2019\Community\VC\Tools\MSVC\14.29.30133\atlmfc\include\afxcoll.inl

; 321  : 		SetAtGrow(nIndex, newElement);

  000dc	8d 45 0c	 lea	 eax, DWORD PTR $T5[ebp]
; File D:\git\src\IBK\IBK_DRFN\ProjSrc\SrcChartEx\ChartAddIn\ChartDesignPropertyAddIn\ChartDesignPropertyAddIn\ToolandRButtonGrid_ListCtrl.cpp

; 405  : 	lpItemInfo->AddSubItemText(_T(""));      // 3 zero based subitems...

  000df	c7 45 fc 03 00
	00 00		 mov	 DWORD PTR __$EHRec$[ebp+8], 3
; File C:\Program Files (x86)\Microsoft Visual Studio\2019\Community\VC\Tools\MSVC\14.29.30133\atlmfc\include\afxcoll.inl

; 321  : 		SetAtGrow(nIndex, newElement);

  000e6	50		 push	 eax
  000e7	ff 76 08	 push	 DWORD PTR [esi+8]
  000ea	8b ce		 mov	 ecx, esi
  000ec	e8 00 00 00 00	 call	 ?SetAtGrow@CStringArray@@QAEXHABV?$CStringT@DV?$StrTraitMFC_DLL@DV?$ChTraitsCRT@D@ATL@@@@@ATL@@@Z ; CStringArray::SetAtGrow
; File D:\git\src\IBK\IBK_DRFN\ProjSrc\SrcChartEx\ChartAddIn\ChartDesignPropertyAddIn\ChartDesignPropertyAddIn\ToolandRButtonGrid_ListCtrl.cpp

; 405  : 	lpItemInfo->AddSubItemText(_T(""));      // 3 zero based subitems...

  000f1	8d 4d 0c	 lea	 ecx, DWORD PTR $T5[ebp]
  000f4	ff 15 00 00 00
	00		 call	 DWORD PTR __imp_??1?$CStringT@DV?$StrTraitMFC_DLL@DV?$ChTraitsCRT@D@ATL@@@@@ATL@@QAE@XZ

; 406  : }

  000fa	8b 4d f4	 mov	 ecx, DWORD PTR __$EHRec$[ebp]
  000fd	64 89 0d 00 00
	00 00		 mov	 DWORD PTR fs:0, ecx
  00104	59		 pop	 ecx
  00105	5e		 pop	 esi
  00106	8b e5		 mov	 esp, ebp
  00108	5d		 pop	 ebp
  00109	c2 08 00	 ret	 8
_TEXT	ENDS
;	COMDAT text$x
text$x	SEGMENT
__unwindfunclet$?SetRootItem@CToolandRButtonGrid_ListCtrl@@AAEXABV?$CStringT@DV?$StrTraitMFC_DLL@DV?$ChTraitsCRT@D@ATL@@@@@ATL@@PAVCItemInfo@@@Z$0:
  00000	8d 4d 08	 lea	 ecx, DWORD PTR $T4[ebp]
  00003	ff 25 00 00 00
	00		 jmp	 DWORD PTR __imp_??1?$CStringT@DV?$StrTraitMFC_DLL@DV?$ChTraitsCRT@D@ATL@@@@@ATL@@QAE@XZ
__unwindfunclet$?SetRootItem@CToolandRButtonGrid_ListCtrl@@AAEXABV?$CStringT@DV?$StrTraitMFC_DLL@DV?$ChTraitsCRT@D@ATL@@@@@ATL@@PAVCItemInfo@@@Z$1:
  00009	8d 4d 08	 lea	 ecx, DWORD PTR $T3[ebp]
  0000c	ff 25 00 00 00
	00		 jmp	 DWORD PTR __imp_??1?$CStringT@DV?$StrTraitMFC_DLL@DV?$ChTraitsCRT@D@ATL@@@@@ATL@@QAE@XZ
__unwindfunclet$?SetRootItem@CToolandRButtonGrid_ListCtrl@@AAEXABV?$CStringT@DV?$StrTraitMFC_DLL@DV?$ChTraitsCRT@D@ATL@@@@@ATL@@PAVCItemInfo@@@Z$2:
  00012	8d 4d 08	 lea	 ecx, DWORD PTR $T2[ebp]
  00015	ff 25 00 00 00
	00		 jmp	 DWORD PTR __imp_??1?$CStringT@DV?$StrTraitMFC_DLL@DV?$ChTraitsCRT@D@ATL@@@@@ATL@@QAE@XZ
__unwindfunclet$?SetRootItem@CToolandRButtonGrid_ListCtrl@@AAEXABV?$CStringT@DV?$StrTraitMFC_DLL@DV?$ChTraitsCRT@D@ATL@@@@@ATL@@PAVCItemInfo@@@Z$3:
  0001b	8d 4d 0c	 lea	 ecx, DWORD PTR $T5[ebp]
  0001e	ff 25 00 00 00
	00		 jmp	 DWORD PTR __imp_??1?$CStringT@DV?$StrTraitMFC_DLL@DV?$ChTraitsCRT@D@ATL@@@@@ATL@@QAE@XZ
  00024	cc		 int	 3
  00025	cc		 int	 3
  00026	cc		 int	 3
  00027	cc		 int	 3
  00028	cc		 int	 3
__ehhandler$?SetRootItem@CToolandRButtonGrid_ListCtrl@@AAEXABV?$CStringT@DV?$StrTraitMFC_DLL@DV?$ChTraitsCRT@D@ATL@@@@@ATL@@PAVCItemInfo@@@Z:
  00029	90		 npad	 1
  0002a	90		 npad	 1
  0002b	8b 54 24 08	 mov	 edx, DWORD PTR [esp+8]
  0002f	8d 42 0c	 lea	 eax, DWORD PTR [edx+12]
  00032	8b 4a f8	 mov	 ecx, DWORD PTR [edx-8]
  00035	33 c8		 xor	 ecx, eax
  00037	e8 00 00 00 00	 call	 @__security_check_cookie@4
  0003c	b8 00 00 00 00	 mov	 eax, OFFSET __ehfuncinfo$?SetRootItem@CToolandRButtonGrid_ListCtrl@@AAEXABV?$CStringT@DV?$StrTraitMFC_DLL@DV?$ChTraitsCRT@D@ATL@@@@@ATL@@PAVCItemInfo@@@Z
  00041	e9 00 00 00 00	 jmp	 ___CxxFrameHandler3
text$x	ENDS
?SetRootItem@CToolandRButtonGrid_ListCtrl@@AAEXABV?$CStringT@DV?$StrTraitMFC_DLL@DV?$ChTraitsCRT@D@ATL@@@@@ATL@@PAVCItemInfo@@@Z ENDP ; CToolandRButtonGrid_ListCtrl::SetRootItem
; Function compile flags: /Ogtp
; File D:\git\src\IBK\IBK_DRFN\ProjSrc\SrcChartEx\ChartAddIn\ChartDesignPropertyAddIn\ChartDesignPropertyAddIn\ToolandRButtonGrid_ListCtrl.cpp
; File C:\Program Files (x86)\Microsoft Visual Studio\2019\Community\VC\Tools\MSVC\14.29.30133\atlmfc\include\afxcmn2.inl
; File D:\git\src\IBK\IBK_DRFN\ProjSrc\SrcChartEx\ChartAddIn\ChartDesignPropertyAddIn\ChartDesignPropertyAddIn\ToolandRButtonGrid_ListCtrl.cpp
; File D:\git\src\IBK\IBK_DRFN\ProjSrc\SrcChartEx\ChartAddIn\ChartDesignPropertyAddIn\Include_Chart\Dll_Load\IMetaTable.h
; File C:\Program Files (x86)\Microsoft Visual Studio\2019\Community\VC\Tools\MSVC\14.29.30133\atlmfc\include\afxwin1.inl
; File D:\git\src\IBK\IBK_DRFN\ProjSrc\SrcChartEx\ChartAddIn\ChartDesignPropertyAddIn\Include_Chart\Dll_Load\IMetaTable.h
; File C:\Program Files (x86)\Microsoft Visual Studio\2019\Community\VC\Tools\MSVC\14.29.30133\atlmfc\include\afxwin1.inl
; File D:\git\src\IBK\IBK_DRFN\ProjSrc\SrcChartEx\ChartAddIn\ChartDesignPropertyAddIn\ChartDesignPropertyAddIn\ToolandRButtonGrid_ListCtrl.cpp
; File C:\Program Files (x86)\Microsoft Visual Studio\2019\Community\VC\Tools\MSVC\14.29.30133\atlmfc\include\afxwin1.inl
; File D:\git\src\IBK\IBK_DRFN\ProjSrc\SrcChartEx\ChartAddIn\ChartDesignPropertyAddIn\ChartDesignPropertyAddIn\ToolandRButtonGrid_ListCtrl.cpp
; File C:\Program Files (x86)\Microsoft Visual Studio\2019\Community\VC\Tools\MSVC\14.29.30133\atlmfc\include\afxwin1.inl
; File D:\git\src\IBK\IBK_DRFN\ProjSrc\SrcChartEx\ChartAddIn\ChartDesignPropertyAddIn\ChartDesignPropertyAddIn\ToolandRButtonGrid_ListCtrl.cpp
; File C:\Program Files (x86)\Microsoft Visual Studio\2019\Community\VC\Tools\MSVC\14.29.30133\atlmfc\include\afxcmn.inl
; File D:\git\src\IBK\IBK_DRFN\ProjSrc\SrcChartEx\ChartAddIn\ChartDesignPropertyAddIn\ChartDesignPropertyAddIn\ToolandRButtonGrid_ListCtrl.cpp
; File D:\git\src\IBK\IBK_DRFN\ProjSrc\SrcChartEx\ChartAddIn\ChartDesignPropertyAddIn\Include_Chart\Dll_Load\IMetaTable.h
; File C:\Program Files (x86)\Microsoft Visual Studio\2019\Community\VC\Tools\MSVC\14.29.30133\atlmfc\include\afxwin1.inl
; File D:\git\src\IBK\IBK_DRFN\ProjSrc\SrcChartEx\ChartAddIn\ChartDesignPropertyAddIn\ChartDesignPropertyAddIn\ToolandRButtonGrid_ListCtrl.cpp
;	COMDAT ?InsertColumnHeader@CToolandRButtonGrid_ListCtrl@@AAEXXZ
_TEXT	SEGMENT
_lvColumn$ = -84					; size = 44
___mlrs__$ = -40					; size = 4
___mlrs__$1$ = -36					; size = 4
_strCols$ = -32						; size = 4
_uCols$ = -28						; size = 12
__$ArrayPad$ = -16					; size = 4
__$EHRec$ = -12						; size = 12
?InsertColumnHeader@CToolandRButtonGrid_ListCtrl@@AAEXXZ PROC ; CToolandRButtonGrid_ListCtrl::InsertColumnHeader, COMDAT
; _this$ = ecx

; 370  : {

  00000	55		 push	 ebp
  00001	8b ec		 mov	 ebp, esp
  00003	6a ff		 push	 -1
  00005	68 00 00 00 00	 push	 __ehhandler$?InsertColumnHeader@CToolandRButtonGrid_ListCtrl@@AAEXXZ
  0000a	64 a1 00 00 00
	00		 mov	 eax, DWORD PTR fs:0
  00010	50		 push	 eax
  00011	83 ec 48	 sub	 esp, 72			; 00000048H
  00014	a1 00 00 00 00	 mov	 eax, DWORD PTR ___security_cookie
  00019	33 c5		 xor	 eax, ebp
  0001b	89 45 f0	 mov	 DWORD PTR __$ArrayPad$[ebp], eax
  0001e	53		 push	 ebx
  0001f	56		 push	 esi
  00020	57		 push	 edi
  00021	50		 push	 eax
  00022	8d 45 f4	 lea	 eax, DWORD PTR __$EHRec$[ebp]
  00025	64 a3 00 00 00
	00		 mov	 DWORD PTR fs:0, eax
  0002b	8b d9		 mov	 ebx, ecx
; File C:\Program Files (x86)\Microsoft Visual Studio\2019\Community\VC\Tools\MSVC\14.29.30133\atlmfc\include\afxcmn2.inl

; 117  : 	{ ASSERT(::IsWindow(m_hWnd)); return (DWORD) ::SendMessage(m_hWnd, LVM_SETEXTENDEDLISTVIEWSTYLE, 0, (LPARAM) dwNewStyle); }

  0002d	6a 01		 push	 1
  0002f	6a 00		 push	 0
  00031	68 36 10 00 00	 push	 4150			; 00001036H
  00036	ff 73 20	 push	 DWORD PTR [ebx+32]
  00039	ff 15 00 00 00
	00		 call	 DWORD PTR __imp__SendMessageA@16
; File D:\git\src\IBK\IBK_DRFN\ProjSrc\SrcChartEx\ChartAddIn\ChartDesignPropertyAddIn\ChartDesignPropertyAddIn\ToolandRButtonGrid_ListCtrl.cpp

; 375  : 		IDS_TOOLSET_FUNCTION,

  0003f	c7 45 e4 67 04
	00 00		 mov	 DWORD PTR _uCols$[ebp], 1127 ; 00000467H

; 376  : 		IDS_TOOLSET_LIMIT_1,

  00046	c7 45 e8 68 04
	00 00		 mov	 DWORD PTR _uCols$[ebp+4], 1128 ; 00000468H

; 377  : 		IDS_TOOLSET_LIMIT_2

  0004d	c7 45 ec 69 04
	00 00		 mov	 DWORD PTR _uCols$[ebp+8], 1129 ; 00000469H

; 378  : 	};
; 379  : 
; 380  : 	ML_SET_LANGUAGE_RES();

  00054	e8 00 00 00 00	 call	 ?AfxGetStaticModuleState@@YGPAVAFX_MODULE_STATE@@XZ ; AfxGetStaticModuleState
  00059	8b bb 40 01 00
	00		 mov	 edi, DWORD PTR [ebx+320]
  0005f	8b 70 08	 mov	 esi, DWORD PTR [eax+8]
; File D:\git\src\IBK\IBK_DRFN\ProjSrc\SrcChartEx\ChartAddIn\ChartDesignPropertyAddIn\Include_Chart\Dll_Load\IMetaTable.h

; 936  : 	DECLARE_FUNCTION2(	LoadResourceDLL,				HMODULE, AfxGetStaticModuleState()->m_hCurrentInstanceHandle, HWND, HMODULE);

  00062	a1 04 00 00 00	 mov	 eax, DWORD PTR ?g_iMetaTable@@3VIMetaTable@@A+4
  00067	85 c0		 test	 eax, eax
  00069	74 4b		 je	 SHORT $LN14@InsertColu
  0006b	b9 80 0d 00 00	 mov	 ecx, 3456		; 00000d80H
  00070	66 3b 0d 94 00
	00 00		 cmp	 cx, WORD PTR ?g_iMetaTable@@3VIMetaTable@@A+148
  00077	74 29		 je	 SHORT $LN35@InsertColu
  00079	68 00 00 00 00	 push	 OFFSET ??_C@_0BA@ENJOCHIO@LoadResourceDLL@
  0007e	50		 push	 eax
  0007f	c7 05 90 00 00
	00 00 00 00 00	 mov	 DWORD PTR ?g_iMetaTable@@3VIMetaTable@@A+144, 0
  00089	ff 15 00 00 00
	00		 call	 DWORD PTR __imp__GetProcAddress@8
  0008f	b9 80 0d 00 00	 mov	 ecx, 3456		; 00000d80H
  00094	a3 90 00 00 00	 mov	 DWORD PTR ?g_iMetaTable@@3VIMetaTable@@A+144, eax
  00099	66 89 0d 94 00
	00 00		 mov	 WORD PTR ?g_iMetaTable@@3VIMetaTable@@A+148, cx
  000a0	eb 05		 jmp	 SHORT $LN13@InsertColu
$LN35@InsertColu:
  000a2	a1 90 00 00 00	 mov	 eax, DWORD PTR ?g_iMetaTable@@3VIMetaTable@@A+144
$LN13@InsertColu:
  000a7	85 c0		 test	 eax, eax
  000a9	74 0b		 je	 SHORT $LN14@InsertColu
  000ab	56		 push	 esi
  000ac	57		 push	 edi
  000ad	ff d0		 call	 eax
  000af	83 c4 08	 add	 esp, 8
  000b2	8b f8		 mov	 edi, eax
  000b4	eb 08		 jmp	 SHORT $LN11@InsertColu
$LN14@InsertColu:
  000b6	e8 00 00 00 00	 call	 ?AfxGetStaticModuleState@@YGPAVAFX_MODULE_STATE@@XZ ; AfxGetStaticModuleState
  000bb	8b 78 08	 mov	 edi, DWORD PTR [eax+8]
$LN11@InsertColu:
; File C:\Program Files (x86)\Microsoft Visual Studio\2019\Community\VC\Tools\MSVC\14.29.30133\atlmfc\include\afxwin1.inl

; 25   : 		return afxCurrentResourceHandle; }

  000be	e8 00 00 00 00	 call	 ?AfxGetModuleState@@YGPAVAFX_MODULE_STATE@@XZ ; AfxGetModuleState
; File D:\git\src\IBK\IBK_DRFN\ProjSrc\SrcChartEx\ChartAddIn\ChartDesignPropertyAddIn\Include_Chart\Dll_Load\IMetaTable.h

; 1032 : 		m_hInstance = AfxGetResourceHandle();

  000c3	8b 70 0c	 mov	 esi, DWORD PTR [eax+12]
  000c6	89 75 dc	 mov	 DWORD PTR ___mlrs__$1$[ebp], esi
  000c9	89 75 d8	 mov	 DWORD PTR ___mlrs__$[ebp], esi
; File C:\Program Files (x86)\Microsoft Visual Studio\2019\Community\VC\Tools\MSVC\14.29.30133\atlmfc\include\afxwin1.inl

; 27   : 	{ ASSERT(hInstResource != NULL); afxCurrentResourceHandle = hInstResource; }

  000cc	e8 00 00 00 00	 call	 ?AfxGetModuleState@@YGPAVAFX_MODULE_STATE@@XZ ; AfxGetModuleState
  000d1	89 78 0c	 mov	 DWORD PTR [eax+12], edi
; File D:\git\src\IBK\IBK_DRFN\ProjSrc\SrcChartEx\ChartAddIn\ChartDesignPropertyAddIn\ChartDesignPropertyAddIn\ToolandRButtonGrid_ListCtrl.cpp

; 381  : 	CString strCols;

  000d4	8d 4d e0	 lea	 ecx, DWORD PTR _strCols$[ebp]
  000d7	c7 45 fc 00 00
	00 00		 mov	 DWORD PTR __$EHRec$[ebp+8], 0
  000de	ff 15 00 00 00
	00		 call	 DWORD PTR __imp_??0?$CStringT@DV?$StrTraitMFC_DLL@DV?$ChTraitsCRT@D@ATL@@@@@ATL@@QAE@XZ
  000e4	c6 45 fc 01	 mov	 BYTE PTR __$EHRec$[ebp+8], 1

; 386  : 	lvColumn.cx = 130;

  000e8	b8 82 00 00 00	 mov	 eax, 130		; 00000082H
  000ed	c7 45 ac 0f 00
	00 00		 mov	 DWORD PTR _lvColumn$[ebp], 15 ; 0000000fH
; File C:\Program Files (x86)\Microsoft Visual Studio\2019\Community\VC\Tools\MSVC\14.29.30133\atlmfc\include\afxwin1.inl

; 25   : 		return afxCurrentResourceHandle; }

  000f4	33 ff		 xor	 edi, edi
; File D:\git\src\IBK\IBK_DRFN\ProjSrc\SrcChartEx\ChartAddIn\ChartDesignPropertyAddIn\ChartDesignPropertyAddIn\ToolandRButtonGrid_ListCtrl.cpp

; 385  : 	lvColumn.fmt = LVCFMT_LEFT;

  000f6	c7 45 b0 00 00
	00 00		 mov	 DWORD PTR _lvColumn$[ebp+4], 0
; File C:\Program Files (x86)\Microsoft Visual Studio\2019\Community\VC\Tools\MSVC\14.29.30133\atlmfc\include\afxwin1.inl

; 25   : 		return afxCurrentResourceHandle; }

  000fd	be 64 00 00 00	 mov	 esi, 100		; 00000064H
$LL4@InsertColu:
; File D:\git\src\IBK\IBK_DRFN\ProjSrc\SrcChartEx\ChartAddIn\ChartDesignPropertyAddIn\ChartDesignPropertyAddIn\ToolandRButtonGrid_ListCtrl.cpp

; 391  : 		strCols.LoadString( uCols[ x]);

  00102	ff 74 bd e4	 push	 DWORD PTR _uCols$[ebp+edi*4]
  00106	85 ff		 test	 edi, edi
  00108	8d 4d e0	 lea	 ecx, DWORD PTR _strCols$[ebp]
  0010b	0f 45 c6	 cmovne	 eax, esi
  0010e	89 45 b4	 mov	 DWORD PTR _lvColumn$[ebp+8], eax
  00111	ff 15 00 00 00
	00		 call	 DWORD PTR __imp_?LoadStringA@?$CStringT@DV?$StrTraitMFC_DLL@DV?$ChTraitsCRT@D@ATL@@@@@ATL@@QAEHI@Z

; 392  : 		lvColumn.pszText = ( char *)( const char *)strCols;

  00117	8b 45 e0	 mov	 eax, DWORD PTR _strCols$[ebp]
  0011a	89 45 b8	 mov	 DWORD PTR _lvColumn$[ebp+12], eax
; File C:\Program Files (x86)\Microsoft Visual Studio\2019\Community\VC\Tools\MSVC\14.29.30133\atlmfc\include\afxcmn.inl

; 209  : 	{ ASSERT(::IsWindow(m_hWnd)); return (int) ::SendMessage(m_hWnd, LVM_INSERTCOLUMN, nCol, (LPARAM)pColumn); }

  0011d	8d 45 ac	 lea	 eax, DWORD PTR _lvColumn$[ebp]
  00120	50		 push	 eax
  00121	57		 push	 edi
  00122	68 1b 10 00 00	 push	 4123			; 0000101bH
  00127	ff 73 20	 push	 DWORD PTR [ebx+32]
  0012a	ff 15 00 00 00
	00		 call	 DWORD PTR __imp__SendMessageA@16
; File D:\git\src\IBK\IBK_DRFN\ProjSrc\SrcChartEx\ChartAddIn\ChartDesignPropertyAddIn\ChartDesignPropertyAddIn\ToolandRButtonGrid_ListCtrl.cpp

; 387  : 	for(int x = 0; x < sizeof( uCols) / sizeof( UINT); x++)

  00130	47		 inc	 edi
  00131	83 ff 03	 cmp	 edi, 3
  00134	73 05		 jae	 SHORT $LN39@InsertColu
  00136	8b 45 b4	 mov	 eax, DWORD PTR _lvColumn$[ebp+8]
  00139	eb c7		 jmp	 SHORT $LL4@InsertColu
$LN39@InsertColu:

; 395  : }

  0013b	8d 4d e0	 lea	 ecx, DWORD PTR _strCols$[ebp]
  0013e	ff 15 00 00 00
	00		 call	 DWORD PTR __imp_??1?$CStringT@DV?$StrTraitMFC_DLL@DV?$ChTraitsCRT@D@ATL@@@@@ATL@@QAE@XZ
; File D:\git\src\IBK\IBK_DRFN\ProjSrc\SrcChartEx\ChartAddIn\ChartDesignPropertyAddIn\Include_Chart\Dll_Load\IMetaTable.h

; 1036 : 	{

  00144	c7 45 fc 02 00
	00 00		 mov	 DWORD PTR __$EHRec$[ebp+8], 2
; File C:\Program Files (x86)\Microsoft Visual Studio\2019\Community\VC\Tools\MSVC\14.29.30133\atlmfc\include\afxwin1.inl

; 27   : 	{ ASSERT(hInstResource != NULL); afxCurrentResourceHandle = hInstResource; }

  0014b	e8 00 00 00 00	 call	 ?AfxGetModuleState@@YGPAVAFX_MODULE_STATE@@XZ ; AfxGetModuleState
  00150	8b 75 dc	 mov	 esi, DWORD PTR ___mlrs__$1$[ebp]
  00153	89 70 0c	 mov	 DWORD PTR [eax+12], esi
; File D:\git\src\IBK\IBK_DRFN\ProjSrc\SrcChartEx\ChartAddIn\ChartDesignPropertyAddIn\ChartDesignPropertyAddIn\ToolandRButtonGrid_ListCtrl.cpp

; 395  : }

  00156	8b 4d f4	 mov	 ecx, DWORD PTR __$EHRec$[ebp]
  00159	64 89 0d 00 00
	00 00		 mov	 DWORD PTR fs:0, ecx
  00160	59		 pop	 ecx
  00161	5f		 pop	 edi
  00162	5e		 pop	 esi
  00163	5b		 pop	 ebx
  00164	8b 4d f0	 mov	 ecx, DWORD PTR __$ArrayPad$[ebp]
  00167	33 cd		 xor	 ecx, ebp
  00169	e8 00 00 00 00	 call	 @__security_check_cookie@4
  0016e	8b e5		 mov	 esp, ebp
  00170	5d		 pop	 ebp
  00171	c3		 ret	 0
_TEXT	ENDS
;	COMDAT text$x
text$x	SEGMENT
__unwindfunclet$?InsertColumnHeader@CToolandRButtonGrid_ListCtrl@@AAEXXZ$0:
  00000	8d 4d d8	 lea	 ecx, DWORD PTR ___mlrs__$[ebp]
  00003	e9 00 00 00 00	 jmp	 ??1CMultiLanguageResourceSetter@@QAE@XZ ; CMultiLanguageResourceSetter::~CMultiLanguageResourceSetter
__unwindfunclet$?InsertColumnHeader@CToolandRButtonGrid_ListCtrl@@AAEXXZ$1:
  00008	8d 4d e0	 lea	 ecx, DWORD PTR _strCols$[ebp]
  0000b	ff 25 00 00 00
	00		 jmp	 DWORD PTR __imp_??1?$CStringT@DV?$StrTraitMFC_DLL@DV?$ChTraitsCRT@D@ATL@@@@@ATL@@QAE@XZ
  00011	cc		 int	 3
  00012	cc		 int	 3
  00013	cc		 int	 3
  00014	cc		 int	 3
  00015	cc		 int	 3
__ehhandler$?InsertColumnHeader@CToolandRButtonGrid_ListCtrl@@AAEXXZ:
  00016	90		 npad	 1
  00017	90		 npad	 1
  00018	8b 54 24 08	 mov	 edx, DWORD PTR [esp+8]
  0001c	8d 42 0c	 lea	 eax, DWORD PTR [edx+12]
  0001f	8b 4a a8	 mov	 ecx, DWORD PTR [edx-88]
  00022	33 c8		 xor	 ecx, eax
  00024	e8 00 00 00 00	 call	 @__security_check_cookie@4
  00029	8b 4a fc	 mov	 ecx, DWORD PTR [edx-4]
  0002c	33 c8		 xor	 ecx, eax
  0002e	e8 00 00 00 00	 call	 @__security_check_cookie@4
  00033	b8 00 00 00 00	 mov	 eax, OFFSET __ehfuncinfo$?InsertColumnHeader@CToolandRButtonGrid_ListCtrl@@AAEXXZ
  00038	e9 00 00 00 00	 jmp	 ___CxxFrameHandler3
text$x	ENDS
?InsertColumnHeader@CToolandRButtonGrid_ListCtrl@@AAEXXZ ENDP ; CToolandRButtonGrid_ListCtrl::InsertColumnHeader
; Function compile flags: /Ogtp
; File D:\git\src\IBK\IBK_DRFN\ProjSrc\SrcChartEx\ChartAddIn\ChartDesignPropertyAddIn\ChartDesignPropertyAddIn\ToolandRButtonGrid_ListCtrl.cpp
; File C:\Program Files (x86)\Microsoft Visual Studio\2019\Community\VC\Tools\MSVC\14.29.30133\atlmfc\include\afx.inl
; File D:\git\src\IBK\IBK_DRFN\ProjSrc\SrcChartEx\ChartAddIn\ChartDesignPropertyAddIn\ChartDesignPropertyAddIn\ToolandRButtonGrid_ListCtrl.cpp
; File D:\git\src\IBK\IBK_DRFN\ProjSrc\SrcChartEx\ChartAddIn\ChartDesignPropertyAddIn\ChartDesignPropertyAddIn\SuperGridCtrl.h
; File D:\git\src\IBK\IBK_DRFN\ProjSrc\SrcChartEx\ChartAddIn\ChartDesignPropertyAddIn\ChartDesignPropertyAddIn\ToolandRButtonGrid_ListCtrl.cpp
; File D:\git\src\IBK\IBK_DRFN\ProjSrc\SrcChartEx\ChartAddIn\ChartDesignPropertyAddIn\ChartDesignPropertyAddIn\SuperGridCtrl.h
; File D:\git\src\IBK\IBK_DRFN\ProjSrc\SrcChartEx\ChartAddIn\ChartDesignPropertyAddIn\ChartDesignPropertyAddIn\ToolandRButtonGrid_ListCtrl.cpp
; File C:\Program Files (x86)\Microsoft Visual Studio\2019\Community\VC\Tools\MSVC\14.29.30133\atlmfc\include\afxcoll.inl
; File D:\git\src\IBK\IBK_DRFN\ProjSrc\SrcChartEx\ChartAddIn\ChartDesignPropertyAddIn\ChartDesignPropertyAddIn\ToolandRButtonGrid_ListCtrl.cpp
; File C:\Program Files (x86)\Microsoft Visual Studio\2019\Community\VC\Tools\MSVC\14.29.30133\atlmfc\include\afxcoll.inl
; File D:\git\src\IBK\IBK_DRFN\ProjSrc\SrcChartEx\ChartAddIn\ChartDesignPropertyAddIn\ChartDesignPropertyAddIn\ToolandRButtonGrid_ListCtrl.cpp
; File C:\Program Files (x86)\Microsoft Visual Studio\2019\Community\VC\Tools\MSVC\14.29.30133\atlmfc\include\afxcoll.inl
; File D:\git\src\IBK\IBK_DRFN\ProjSrc\SrcChartEx\ChartAddIn\ChartDesignPropertyAddIn\ChartDesignPropertyAddIn\ToolandRButtonGrid_ListCtrl.cpp
; File C:\Program Files (x86)\Microsoft Visual Studio\2019\Community\VC\Tools\MSVC\14.29.30133\atlmfc\include\afxcoll.inl
; File D:\git\src\IBK\IBK_DRFN\ProjSrc\SrcChartEx\ChartAddIn\ChartDesignPropertyAddIn\ChartDesignPropertyAddIn\ToolandRButtonGrid_ListCtrl.cpp
; File C:\Program Files (x86)\Microsoft Visual Studio\2019\Community\VC\Tools\MSVC\14.29.30133\atlmfc\include\afxcoll.inl
; File D:\git\src\IBK\IBK_DRFN\ProjSrc\SrcChartEx\ChartAddIn\ChartDesignPropertyAddIn\ChartDesignPropertyAddIn\ToolandRButtonGrid_ListCtrl.cpp
; File C:\Program Files (x86)\Microsoft Visual Studio\2019\Community\VC\Tools\MSVC\14.29.30133\atlmfc\include\afxcoll.inl
; File D:\git\src\IBK\IBK_DRFN\ProjSrc\SrcChartEx\ChartAddIn\ChartDesignPropertyAddIn\ChartDesignPropertyAddIn\ToolandRButtonGrid_ListCtrl.cpp
; File C:\Program Files (x86)\Microsoft Visual Studio\2019\Community\VC\Tools\MSVC\14.29.30133\atlmfc\include\afxcoll.inl
; File D:\git\src\IBK\IBK_DRFN\ProjSrc\SrcChartEx\ChartAddIn\ChartDesignPropertyAddIn\ChartDesignPropertyAddIn\ToolandRButtonGrid_ListCtrl.cpp
; File C:\Program Files (x86)\Microsoft Visual Studio\2019\Community\VC\Tools\MSVC\14.29.30133\atlmfc\include\afxcoll.inl
; File D:\git\src\IBK\IBK_DRFN\ProjSrc\SrcChartEx\ChartAddIn\ChartDesignPropertyAddIn\ChartDesignPropertyAddIn\ToolandRButtonGrid_ListCtrl.cpp
;	COMDAT ?InsertRoot@CToolandRButtonGrid_ListCtrl@@AAEXXZ
_TEXT	SEGMENT
$T2 = -20						; size = 4
$T3 = -20						; size = 4
$T4 = -16						; size = 4
$T5 = -16						; size = 4
$T6 = -16						; size = 4
$T7 = -16						; size = 4
__$EHRec$ = -12						; size = 12
?InsertRoot@CToolandRButtonGrid_ListCtrl@@AAEXXZ PROC	; CToolandRButtonGrid_ListCtrl::InsertRoot, COMDAT
; _this$ = ecx

; 409  : {

  00000	55		 push	 ebp
  00001	8b ec		 mov	 ebp, esp
  00003	6a ff		 push	 -1
  00005	68 00 00 00 00	 push	 __ehhandler$?InsertRoot@CToolandRButtonGrid_ListCtrl@@AAEXXZ
  0000a	64 a1 00 00 00
	00		 mov	 eax, DWORD PTR fs:0
  00010	50		 push	 eax
  00011	83 ec 08	 sub	 esp, 8
  00014	53		 push	 ebx
  00015	56		 push	 esi
  00016	57		 push	 edi
  00017	a1 00 00 00 00	 mov	 eax, DWORD PTR ___security_cookie
  0001c	33 c5		 xor	 eax, ebp
  0001e	50		 push	 eax
  0001f	8d 45 f4	 lea	 eax, DWORD PTR __$EHRec$[ebp]
  00022	64 a3 00 00 00
	00		 mov	 DWORD PTR fs:0, eax
  00028	8b d9		 mov	 ebx, ecx
; File C:\Program Files (x86)\Microsoft Visual Studio\2019\Community\VC\Tools\MSVC\14.29.30133\atlmfc\include\afx.inl

; 116  : 	{ return ::operator new(nSize); }

  0002a	68 84 00 00 00	 push	 132			; 00000084H
  0002f	e8 00 00 00 00	 call	 ??2@YAPAXI@Z		; operator new
  00034	83 c4 04	 add	 esp, 4
; File D:\git\src\IBK\IBK_DRFN\ProjSrc\SrcChartEx\ChartAddIn\ChartDesignPropertyAddIn\ChartDesignPropertyAddIn\ToolandRButtonGrid_ListCtrl.cpp

; 410  : 	CItemInfo* lp = new CItemInfo();

  00037	89 45 ec	 mov	 DWORD PTR $T3[ebp], eax
  0003a	c7 45 fc 00 00
	00 00		 mov	 DWORD PTR __$EHRec$[ebp+8], 0
  00041	85 c0		 test	 eax, eax
  00043	74 0b		 je	 SHORT $LN3@InsertRoot
  00045	8b c8		 mov	 ecx, eax
  00047	e8 00 00 00 00	 call	 ??0CItemInfo@@QAE@XZ	; CItemInfo::CItemInfo
  0004c	8b f8		 mov	 edi, eax
  0004e	eb 02		 jmp	 SHORT $LN4@InsertRoot
$LN3@InsertRoot:
  00050	33 ff		 xor	 edi, edi
$LN4@InsertRoot:

; 411  : 	SetRootItem("Item", lp);

  00052	68 00 00 00 00	 push	 OFFSET ??_C@_04BGCMBJDA@Item@
  00057	8d 4d ec	 lea	 ecx, DWORD PTR $T2[ebp]
  0005a	c7 45 fc ff ff
	ff ff		 mov	 DWORD PTR __$EHRec$[ebp+8], -1
  00061	ff 15 00 00 00
	00		 call	 DWORD PTR __imp_??0?$CStringT@DV?$StrTraitMFC_DLL@DV?$ChTraitsCRT@D@ATL@@@@@ATL@@QAE@PBD@Z
; File D:\git\src\IBK\IBK_DRFN\ProjSrc\SrcChartEx\ChartAddIn\ChartDesignPropertyAddIn\ChartDesignPropertyAddIn\SuperGridCtrl.h

; 15   : 	void SetItemText(const CString& strItem){ m_strItemName = strItem; }

  00067	8d 45 ec	 lea	 eax, DWORD PTR $T2[ebp]
; File D:\git\src\IBK\IBK_DRFN\ProjSrc\SrcChartEx\ChartAddIn\ChartDesignPropertyAddIn\ChartDesignPropertyAddIn\ToolandRButtonGrid_ListCtrl.cpp

; 411  : 	SetRootItem("Item", lp);

  0006a	c7 45 fc 01 00
	00 00		 mov	 DWORD PTR __$EHRec$[ebp+8], 1
; File D:\git\src\IBK\IBK_DRFN\ProjSrc\SrcChartEx\ChartAddIn\ChartDesignPropertyAddIn\ChartDesignPropertyAddIn\SuperGridCtrl.h

; 15   : 	void SetItemText(const CString& strItem){ m_strItemName = strItem; }

  00071	50		 push	 eax
  00072	8d 4f 60	 lea	 ecx, DWORD PTR [edi+96]
  00075	ff 15 00 00 00
	00		 call	 DWORD PTR __imp_??4?$CStringT@DV?$StrTraitMFC_DLL@DV?$ChTraitsCRT@D@ATL@@@@@ATL@@QAEAAV01@ABV01@@Z
; File D:\git\src\IBK\IBK_DRFN\ProjSrc\SrcChartEx\ChartAddIn\ChartDesignPropertyAddIn\ChartDesignPropertyAddIn\ToolandRButtonGrid_ListCtrl.cpp

; 402  : 	lpItemInfo->AddSubItemText(_T(""));      // 0 zero based subitems...

  0007b	68 00 00 00 00	 push	 OFFSET ??_C@_00CNPNBAHC@@
  00080	8d 4d f0	 lea	 ecx, DWORD PTR $T7[ebp]
  00083	ff 15 00 00 00
	00		 call	 DWORD PTR __imp_??0?$CStringT@DV?$StrTraitMFC_DLL@DV?$ChTraitsCRT@D@ATL@@@@@ATL@@QAE@PBD@Z
; File C:\Program Files (x86)\Microsoft Visual Studio\2019\Community\VC\Tools\MSVC\14.29.30133\atlmfc\include\afxcoll.inl

; 321  : 		SetAtGrow(nIndex, newElement);

  00089	8d 45 f0	 lea	 eax, DWORD PTR $T7[ebp]
; File D:\git\src\IBK\IBK_DRFN\ProjSrc\SrcChartEx\ChartAddIn\ChartDesignPropertyAddIn\ChartDesignPropertyAddIn\ToolandRButtonGrid_ListCtrl.cpp

; 402  : 	lpItemInfo->AddSubItemText(_T(""));      // 0 zero based subitems...

  0008c	c6 45 fc 02	 mov	 BYTE PTR __$EHRec$[ebp+8], 2
; File C:\Program Files (x86)\Microsoft Visual Studio\2019\Community\VC\Tools\MSVC\14.29.30133\atlmfc\include\afxcoll.inl

; 321  : 		SetAtGrow(nIndex, newElement);

  00090	50		 push	 eax
  00091	ff 77 6c	 push	 DWORD PTR [edi+108]
  00094	8d 4f 64	 lea	 ecx, DWORD PTR [edi+100]
  00097	e8 00 00 00 00	 call	 ?SetAtGrow@CStringArray@@QAEXHABV?$CStringT@DV?$StrTraitMFC_DLL@DV?$ChTraitsCRT@D@ATL@@@@@ATL@@@Z ; CStringArray::SetAtGrow
; File D:\git\src\IBK\IBK_DRFN\ProjSrc\SrcChartEx\ChartAddIn\ChartDesignPropertyAddIn\ChartDesignPropertyAddIn\ToolandRButtonGrid_ListCtrl.cpp

; 402  : 	lpItemInfo->AddSubItemText(_T(""));      // 0 zero based subitems...

  0009c	8d 4d f0	 lea	 ecx, DWORD PTR $T7[ebp]
  0009f	c6 45 fc 01	 mov	 BYTE PTR __$EHRec$[ebp+8], 1
  000a3	ff 15 00 00 00
	00		 call	 DWORD PTR __imp_??1?$CStringT@DV?$StrTraitMFC_DLL@DV?$ChTraitsCRT@D@ATL@@@@@ATL@@QAE@XZ

; 403  : 	lpItemInfo->AddSubItemText(_T(""));      // 1 zero based subitems...

  000a9	68 00 00 00 00	 push	 OFFSET ??_C@_00CNPNBAHC@@
  000ae	8d 4d f0	 lea	 ecx, DWORD PTR $T6[ebp]
  000b1	ff 15 00 00 00
	00		 call	 DWORD PTR __imp_??0?$CStringT@DV?$StrTraitMFC_DLL@DV?$ChTraitsCRT@D@ATL@@@@@ATL@@QAE@PBD@Z
; File C:\Program Files (x86)\Microsoft Visual Studio\2019\Community\VC\Tools\MSVC\14.29.30133\atlmfc\include\afxcoll.inl

; 321  : 		SetAtGrow(nIndex, newElement);

  000b7	8d 45 f0	 lea	 eax, DWORD PTR $T6[ebp]
; File D:\git\src\IBK\IBK_DRFN\ProjSrc\SrcChartEx\ChartAddIn\ChartDesignPropertyAddIn\ChartDesignPropertyAddIn\ToolandRButtonGrid_ListCtrl.cpp

; 403  : 	lpItemInfo->AddSubItemText(_T(""));      // 1 zero based subitems...

  000ba	c6 45 fc 03	 mov	 BYTE PTR __$EHRec$[ebp+8], 3
; File C:\Program Files (x86)\Microsoft Visual Studio\2019\Community\VC\Tools\MSVC\14.29.30133\atlmfc\include\afxcoll.inl

; 321  : 		SetAtGrow(nIndex, newElement);

  000be	50		 push	 eax
  000bf	ff 77 6c	 push	 DWORD PTR [edi+108]
  000c2	8d 4f 64	 lea	 ecx, DWORD PTR [edi+100]
  000c5	e8 00 00 00 00	 call	 ?SetAtGrow@CStringArray@@QAEXHABV?$CStringT@DV?$StrTraitMFC_DLL@DV?$ChTraitsCRT@D@ATL@@@@@ATL@@@Z ; CStringArray::SetAtGrow
; File D:\git\src\IBK\IBK_DRFN\ProjSrc\SrcChartEx\ChartAddIn\ChartDesignPropertyAddIn\ChartDesignPropertyAddIn\ToolandRButtonGrid_ListCtrl.cpp

; 403  : 	lpItemInfo->AddSubItemText(_T(""));      // 1 zero based subitems...

  000ca	8d 4d f0	 lea	 ecx, DWORD PTR $T6[ebp]
  000cd	c6 45 fc 01	 mov	 BYTE PTR __$EHRec$[ebp+8], 1
  000d1	ff 15 00 00 00
	00		 call	 DWORD PTR __imp_??1?$CStringT@DV?$StrTraitMFC_DLL@DV?$ChTraitsCRT@D@ATL@@@@@ATL@@QAE@XZ

; 404  : 	lpItemInfo->AddSubItemText(_T(""));      // 2 zero based subitems...

  000d7	68 00 00 00 00	 push	 OFFSET ??_C@_00CNPNBAHC@@
  000dc	8d 4d f0	 lea	 ecx, DWORD PTR $T5[ebp]
  000df	ff 15 00 00 00
	00		 call	 DWORD PTR __imp_??0?$CStringT@DV?$StrTraitMFC_DLL@DV?$ChTraitsCRT@D@ATL@@@@@ATL@@QAE@PBD@Z
; File C:\Program Files (x86)\Microsoft Visual Studio\2019\Community\VC\Tools\MSVC\14.29.30133\atlmfc\include\afxcoll.inl

; 321  : 		SetAtGrow(nIndex, newElement);

  000e5	8d 45 f0	 lea	 eax, DWORD PTR $T5[ebp]
; File D:\git\src\IBK\IBK_DRFN\ProjSrc\SrcChartEx\ChartAddIn\ChartDesignPropertyAddIn\ChartDesignPropertyAddIn\ToolandRButtonGrid_ListCtrl.cpp

; 404  : 	lpItemInfo->AddSubItemText(_T(""));      // 2 zero based subitems...

  000e8	c6 45 fc 04	 mov	 BYTE PTR __$EHRec$[ebp+8], 4
; File C:\Program Files (x86)\Microsoft Visual Studio\2019\Community\VC\Tools\MSVC\14.29.30133\atlmfc\include\afxcoll.inl

; 321  : 		SetAtGrow(nIndex, newElement);

  000ec	50		 push	 eax
  000ed	ff 77 6c	 push	 DWORD PTR [edi+108]
  000f0	8d 4f 64	 lea	 ecx, DWORD PTR [edi+100]
  000f3	e8 00 00 00 00	 call	 ?SetAtGrow@CStringArray@@QAEXHABV?$CStringT@DV?$StrTraitMFC_DLL@DV?$ChTraitsCRT@D@ATL@@@@@ATL@@@Z ; CStringArray::SetAtGrow
; File D:\git\src\IBK\IBK_DRFN\ProjSrc\SrcChartEx\ChartAddIn\ChartDesignPropertyAddIn\ChartDesignPropertyAddIn\ToolandRButtonGrid_ListCtrl.cpp

; 404  : 	lpItemInfo->AddSubItemText(_T(""));      // 2 zero based subitems...

  000f8	8d 4d f0	 lea	 ecx, DWORD PTR $T5[ebp]
  000fb	c6 45 fc 01	 mov	 BYTE PTR __$EHRec$[ebp+8], 1
  000ff	ff 15 00 00 00
	00		 call	 DWORD PTR __imp_??1?$CStringT@DV?$StrTraitMFC_DLL@DV?$ChTraitsCRT@D@ATL@@@@@ATL@@QAE@XZ

; 405  : 	lpItemInfo->AddSubItemText(_T(""));      // 3 zero based subitems...

  00105	68 00 00 00 00	 push	 OFFSET ??_C@_00CNPNBAHC@@
  0010a	8d 4d f0	 lea	 ecx, DWORD PTR $T4[ebp]
  0010d	ff 15 00 00 00
	00		 call	 DWORD PTR __imp_??0?$CStringT@DV?$StrTraitMFC_DLL@DV?$ChTraitsCRT@D@ATL@@@@@ATL@@QAE@PBD@Z
; File C:\Program Files (x86)\Microsoft Visual Studio\2019\Community\VC\Tools\MSVC\14.29.30133\atlmfc\include\afxcoll.inl

; 321  : 		SetAtGrow(nIndex, newElement);

  00113	8d 45 f0	 lea	 eax, DWORD PTR $T4[ebp]
; File D:\git\src\IBK\IBK_DRFN\ProjSrc\SrcChartEx\ChartAddIn\ChartDesignPropertyAddIn\ChartDesignPropertyAddIn\ToolandRButtonGrid_ListCtrl.cpp

; 405  : 	lpItemInfo->AddSubItemText(_T(""));      // 3 zero based subitems...

  00116	c6 45 fc 05	 mov	 BYTE PTR __$EHRec$[ebp+8], 5
; File C:\Program Files (x86)\Microsoft Visual Studio\2019\Community\VC\Tools\MSVC\14.29.30133\atlmfc\include\afxcoll.inl

; 321  : 		SetAtGrow(nIndex, newElement);

  0011a	50		 push	 eax
  0011b	ff 77 6c	 push	 DWORD PTR [edi+108]
  0011e	8d 4f 64	 lea	 ecx, DWORD PTR [edi+100]
  00121	e8 00 00 00 00	 call	 ?SetAtGrow@CStringArray@@QAEXHABV?$CStringT@DV?$StrTraitMFC_DLL@DV?$ChTraitsCRT@D@ATL@@@@@ATL@@@Z ; CStringArray::SetAtGrow
; File D:\git\src\IBK\IBK_DRFN\ProjSrc\SrcChartEx\ChartAddIn\ChartDesignPropertyAddIn\ChartDesignPropertyAddIn\ToolandRButtonGrid_ListCtrl.cpp

; 405  : 	lpItemInfo->AddSubItemText(_T(""));      // 3 zero based subitems...

  00126	8d 4d f0	 lea	 ecx, DWORD PTR $T4[ebp]
  00129	ff 15 00 00 00
	00		 call	 DWORD PTR __imp_??1?$CStringT@DV?$StrTraitMFC_DLL@DV?$ChTraitsCRT@D@ATL@@@@@ATL@@QAE@XZ

; 411  : 	SetRootItem("Item", lp);

  0012f	8d 4d ec	 lea	 ecx, DWORD PTR $T2[ebp]
  00132	c7 45 fc ff ff
	ff ff		 mov	 DWORD PTR __$EHRec$[ebp+8], -1
  00139	ff 15 00 00 00
	00		 call	 DWORD PTR __imp_??1?$CStringT@DV?$StrTraitMFC_DLL@DV?$ChTraitsCRT@D@ATL@@@@@ATL@@QAE@XZ

; 412  :   //Create root item
; 413  : 	m_pRootItem = InsertRootItem(lp);//previous on N.Y.P.D we call it CreateTreeCtrl(lp)

  0013f	57		 push	 edi
  00140	8b cb		 mov	 ecx, ebx
  00142	e8 00 00 00 00	 call	 ?InsertRootItem@CSuperGridCtrl@@QAEPAVCTreeItem@1@PAVCItemInfo@@@Z ; CSuperGridCtrl::InsertRootItem

; 414  : 	InsertRootItemToListCtrl(m_pRootItem);

  00147	50		 push	 eax
  00148	8b cb		 mov	 ecx, ebx
  0014a	89 83 f4 00 00
	00		 mov	 DWORD PTR [ebx+244], eax
  00150	e8 00 00 00 00	 call	 ?InsertRootItemToListCtrl@CSuperGridCtrl@@QAEXPAVCTreeItem@1@@Z ; CSuperGridCtrl::InsertRootItemToListCtrl

; 415  : 
; 416  : 	//could now expand one level
; 417  : 	Expand(m_pRootItem, 0 /*listview index 0*/); 

  00155	6a 00		 push	 0
  00157	ff b3 f4 00 00
	00		 push	 DWORD PTR [ebx+244]
  0015d	8b cb		 mov	 ecx, ebx
  0015f	e8 00 00 00 00	 call	 ?Expand@CSuperGridCtrl@@QAEHPAVCTreeItem@1@H@Z ; CSuperGridCtrl::Expand

; 418  : 	UINT uflag = LVIS_SELECTED | LVIS_FOCUSED;
; 419  : 	SetItemState(0, uflag, uflag);

  00164	6a 03		 push	 3
  00166	6a 03		 push	 3
  00168	6a 00		 push	 0
  0016a	8b cb		 mov	 ecx, ebx
  0016c	e8 00 00 00 00	 call	 ?SetItemState@CListCtrl@@QAEHHII@Z ; CListCtrl::SetItemState

; 420  : }

  00171	8b 4d f4	 mov	 ecx, DWORD PTR __$EHRec$[ebp]
  00174	64 89 0d 00 00
	00 00		 mov	 DWORD PTR fs:0, ecx
  0017b	59		 pop	 ecx
  0017c	5f		 pop	 edi
  0017d	5e		 pop	 esi
  0017e	5b		 pop	 ebx
  0017f	8b e5		 mov	 esp, ebp
  00181	5d		 pop	 ebp
  00182	c3		 ret	 0
_TEXT	ENDS
;	COMDAT text$x
text$x	SEGMENT
__unwindfunclet$?InsertRoot@CToolandRButtonGrid_ListCtrl@@AAEXXZ$0:
  00000	8b 45 ec	 mov	 eax, DWORD PTR $T3[ebp]
  00003	50		 push	 eax
  00004	e8 00 00 00 00	 call	 ??3CObject@@SGXPAX@Z	; CObject::operator delete
  00009	c3		 ret	 0
__unwindfunclet$?InsertRoot@CToolandRButtonGrid_ListCtrl@@AAEXXZ$1:
  0000a	8d 4d ec	 lea	 ecx, DWORD PTR $T2[ebp]
  0000d	ff 25 00 00 00
	00		 jmp	 DWORD PTR __imp_??1?$CStringT@DV?$StrTraitMFC_DLL@DV?$ChTraitsCRT@D@ATL@@@@@ATL@@QAE@XZ
__unwindfunclet$?InsertRoot@CToolandRButtonGrid_ListCtrl@@AAEXXZ$2:
  00013	8d 4d f0	 lea	 ecx, DWORD PTR $T7[ebp]
  00016	ff 25 00 00 00
	00		 jmp	 DWORD PTR __imp_??1?$CStringT@DV?$StrTraitMFC_DLL@DV?$ChTraitsCRT@D@ATL@@@@@ATL@@QAE@XZ
__unwindfunclet$?InsertRoot@CToolandRButtonGrid_ListCtrl@@AAEXXZ$3:
  0001c	8d 4d f0	 lea	 ecx, DWORD PTR $T6[ebp]
  0001f	ff 25 00 00 00
	00		 jmp	 DWORD PTR __imp_??1?$CStringT@DV?$StrTraitMFC_DLL@DV?$ChTraitsCRT@D@ATL@@@@@ATL@@QAE@XZ
__unwindfunclet$?InsertRoot@CToolandRButtonGrid_ListCtrl@@AAEXXZ$4:
  00025	8d 4d f0	 lea	 ecx, DWORD PTR $T5[ebp]
  00028	ff 25 00 00 00
	00		 jmp	 DWORD PTR __imp_??1?$CStringT@DV?$StrTraitMFC_DLL@DV?$ChTraitsCRT@D@ATL@@@@@ATL@@QAE@XZ
__unwindfunclet$?InsertRoot@CToolandRButtonGrid_ListCtrl@@AAEXXZ$5:
  0002e	8d 4d f0	 lea	 ecx, DWORD PTR $T4[ebp]
  00031	ff 25 00 00 00
	00		 jmp	 DWORD PTR __imp_??1?$CStringT@DV?$StrTraitMFC_DLL@DV?$ChTraitsCRT@D@ATL@@@@@ATL@@QAE@XZ
  00037	cc		 int	 3
  00038	cc		 int	 3
  00039	cc		 int	 3
  0003a	cc		 int	 3
  0003b	cc		 int	 3
__ehhandler$?InsertRoot@CToolandRButtonGrid_ListCtrl@@AAEXXZ:
  0003c	90		 npad	 1
  0003d	90		 npad	 1
  0003e	8b 54 24 08	 mov	 edx, DWORD PTR [esp+8]
  00042	8d 42 0c	 lea	 eax, DWORD PTR [edx+12]
  00045	8b 4a e8	 mov	 ecx, DWORD PTR [edx-24]
  00048	33 c8		 xor	 ecx, eax
  0004a	e8 00 00 00 00	 call	 @__security_check_cookie@4
  0004f	b8 00 00 00 00	 mov	 eax, OFFSET __ehfuncinfo$?InsertRoot@CToolandRButtonGrid_ListCtrl@@AAEXXZ
  00054	e9 00 00 00 00	 jmp	 ___CxxFrameHandler3
text$x	ENDS
?InsertRoot@CToolandRButtonGrid_ListCtrl@@AAEXXZ ENDP	; CToolandRButtonGrid_ListCtrl::InsertRoot
; Function compile flags: /Ogtp
; File D:\git\src\IBK\IBK_DRFN\ProjSrc\SrcChartEx\ChartAddIn\ChartDesignPropertyAddIn\ChartDesignPropertyAddIn\ToolandRButtonGrid_ListCtrl.cpp
; File C:\Program Files (x86)\Microsoft Visual Studio\2019\Community\VC\Tools\MSVC\14.29.30133\atlmfc\include\cstringt.h
; File D:\git\src\IBK\IBK_DRFN\ProjSrc\SrcChartEx\ChartAddIn\ChartDesignPropertyAddIn\ChartDesignPropertyAddIn\ToolandRButtonGrid_ListCtrl.cpp
; File C:\Program Files (x86)\Microsoft Visual Studio\2019\Community\VC\Tools\MSVC\14.29.30133\atlmfc\include\cstringt.h
; File D:\git\src\IBK\IBK_DRFN\ProjSrc\SrcChartEx\ChartAddIn\ChartDesignPropertyAddIn\ChartDesignPropertyAddIn\ToolandRButtonGrid_ListCtrl.cpp
;	COMDAT ?SetComboListWhen_Extension_Recuction_Item@CToolandRButtonGrid_ListCtrl@@AAEXHHPAVCStringList@@@Z
_TEXT	SEGMENT
__$EHRec$ = -12						; size = 12
_nItem$ = 8						; size = 4
_strbefore$ = 12					; size = 4
_nColumn$ = 12						; size = 4
_lstItems$ = 16						; size = 4
?SetComboListWhen_Extension_Recuction_Item@CToolandRButtonGrid_ListCtrl@@AAEXHHPAVCStringList@@@Z PROC ; CToolandRButtonGrid_ListCtrl::SetComboListWhen_Extension_Recuction_Item, COMDAT
; _this$ = ecx

; 460  : {

  00000	55		 push	 ebp
  00001	8b ec		 mov	 ebp, esp
  00003	6a ff		 push	 -1
  00005	68 00 00 00 00	 push	 __ehhandler$?SetComboListWhen_Extension_Recuction_Item@CToolandRButtonGrid_ListCtrl@@AAEXHHPAVCStringList@@@Z
  0000a	64 a1 00 00 00
	00		 mov	 eax, DWORD PTR fs:0
  00010	50		 push	 eax
  00011	56		 push	 esi
  00012	57		 push	 edi
  00013	a1 00 00 00 00	 mov	 eax, DWORD PTR ___security_cookie
  00018	33 c5		 xor	 eax, ebp
  0001a	50		 push	 eax
  0001b	8d 45 f4	 lea	 eax, DWORD PTR __$EHRec$[ebp]
  0001e	64 a3 00 00 00
	00		 mov	 DWORD PTR fs:0, eax
  00024	8b f9		 mov	 edi, ecx

; 461  : 	CString strbefore = GetItemText(nItem, (nColumn-1));

  00026	8b 45 0c	 mov	 eax, DWORD PTR _nColumn$[ebp]
  00029	48		 dec	 eax
  0002a	50		 push	 eax
  0002b	ff 75 08	 push	 DWORD PTR _nItem$[ebp]
  0002e	8d 45 0c	 lea	 eax, DWORD PTR _strbefore$[ebp]
  00031	50		 push	 eax
  00032	e8 00 00 00 00	 call	 ?GetItemText@CListCtrl@@QBE?AV?$CStringT@DV?$StrTraitMFC_DLL@DV?$ChTraitsCRT@D@ATL@@@@@ATL@@HH@Z ; CListCtrl::GetItemText

; 462  : 	if( strbefore == _LTEXT4( C4_COUNT))

  00037	a1 54 00 00 00	 mov	 eax, DWORD PTR ?g_iMetaTable@@3VIMetaTable@@A+84
  0003c	b9 00 00 00 00	 mov	 ecx, OFFSET ?g_iMetaTable@@3VIMetaTable@@A ; g_iMetaTable
  00041	6a 00		 push	 0
  00043	c7 45 fc 00 00
	00 00		 mov	 DWORD PTR __$EHRec$[ebp+8], 0
  0004a	ff b0 5c 0e 00
	00		 push	 DWORD PTR [eax+3676]
  00050	6a 04		 push	 4
  00052	ff b7 40 01 00
	00		 push	 DWORD PTR [edi+320]
  00058	e8 00 00 00 00	 call	 ?GetLanguageText@IMetaTable@@QAEPBDPAUHWND__@@W4E_CODEPAGE@1@PBDH@Z ; IMetaTable::GetLanguageText
; File C:\Program Files (x86)\Microsoft Visual Studio\2019\Community\VC\Tools\MSVC\14.29.30133\atlmfc\include\cstringt.h

; 2486 : 		return(str1.Compare(psz2) == 0);

  0005d	50		 push	 eax
  0005e	8d 4d 0c	 lea	 ecx, DWORD PTR _strbefore$[ebp]
  00061	ff 15 00 00 00
	00		 call	 DWORD PTR __imp_?Compare@?$CStringT@DV?$StrTraitMFC_DLL@DV?$ChTraitsCRT@D@ATL@@@@@ATL@@QBEHPBD@Z
  00067	85 c0		 test	 eax, eax
; File D:\git\src\IBK\IBK_DRFN\ProjSrc\SrcChartEx\ChartAddIn\ChartDesignPropertyAddIn\ChartDesignPropertyAddIn\ToolandRButtonGrid_ListCtrl.cpp

; 462  : 	if( strbefore == _LTEXT4( C4_COUNT))

  00069	0f 85 c8 00 00
	00		 jne	 $LN2@SetComboLi

; 463  : 	{
; 464  : 		lstItems->RemoveAll();

  0006f	8b 75 10	 mov	 esi, DWORD PTR _lstItems$[ebp]
  00072	8b ce		 mov	 ecx, esi
  00074	e8 00 00 00 00	 call	 ?RemoveAll@CStringList@@QAEXXZ ; CStringList::RemoveAll

; 465  : 		lstItems->AddTail( _LTEXT4( C4_10_UNIT));

  00079	a1 54 00 00 00	 mov	 eax, DWORD PTR ?g_iMetaTable@@3VIMetaTable@@A+84
  0007e	b9 00 00 00 00	 mov	 ecx, OFFSET ?g_iMetaTable@@3VIMetaTable@@A ; g_iMetaTable
  00083	6a 00		 push	 0
  00085	ff b0 60 0e 00
	00		 push	 DWORD PTR [eax+3680]
  0008b	6a 04		 push	 4
  0008d	ff b7 40 01 00
	00		 push	 DWORD PTR [edi+320]
  00093	e8 00 00 00 00	 call	 ?GetLanguageText@IMetaTable@@QAEPBDPAUHWND__@@W4E_CODEPAGE@1@PBDH@Z ; IMetaTable::GetLanguageText
  00098	50		 push	 eax
  00099	8b ce		 mov	 ecx, esi
  0009b	e8 00 00 00 00	 call	 ?AddTail@CStringList@@QAEPAU__POSITION@@PBD@Z ; CStringList::AddTail

; 466  : 		lstItems->AddTail( _LTEXT4( C4_20_UNIT));

  000a0	a1 54 00 00 00	 mov	 eax, DWORD PTR ?g_iMetaTable@@3VIMetaTable@@A+84
  000a5	b9 00 00 00 00	 mov	 ecx, OFFSET ?g_iMetaTable@@3VIMetaTable@@A ; g_iMetaTable
  000aa	6a 00		 push	 0
  000ac	ff b0 64 0e 00
	00		 push	 DWORD PTR [eax+3684]
  000b2	6a 04		 push	 4
  000b4	ff b7 40 01 00
	00		 push	 DWORD PTR [edi+320]
  000ba	e8 00 00 00 00	 call	 ?GetLanguageText@IMetaTable@@QAEPBDPAUHWND__@@W4E_CODEPAGE@1@PBDH@Z ; IMetaTable::GetLanguageText
  000bf	50		 push	 eax
  000c0	8b ce		 mov	 ecx, esi
  000c2	e8 00 00 00 00	 call	 ?AddTail@CStringList@@QAEPAU__POSITION@@PBD@Z ; CStringList::AddTail

; 467  : 		lstItems->AddTail( _LTEXT4( C4_30_UNIT));

  000c7	a1 54 00 00 00	 mov	 eax, DWORD PTR ?g_iMetaTable@@3VIMetaTable@@A+84
  000cc	b9 00 00 00 00	 mov	 ecx, OFFSET ?g_iMetaTable@@3VIMetaTable@@A ; g_iMetaTable
  000d1	6a 00		 push	 0
  000d3	ff b0 68 0e 00
	00		 push	 DWORD PTR [eax+3688]
  000d9	6a 04		 push	 4
  000db	ff b7 40 01 00
	00		 push	 DWORD PTR [edi+320]
  000e1	e8 00 00 00 00	 call	 ?GetLanguageText@IMetaTable@@QAEPBDPAUHWND__@@W4E_CODEPAGE@1@PBDH@Z ; IMetaTable::GetLanguageText
  000e6	50		 push	 eax
  000e7	8b ce		 mov	 ecx, esi
  000e9	e8 00 00 00 00	 call	 ?AddTail@CStringList@@QAEPAU__POSITION@@PBD@Z ; CStringList::AddTail

; 468  : 		lstItems->AddTail( _LTEXT4( C4_40_UNIT));

  000ee	a1 54 00 00 00	 mov	 eax, DWORD PTR ?g_iMetaTable@@3VIMetaTable@@A+84
  000f3	b9 00 00 00 00	 mov	 ecx, OFFSET ?g_iMetaTable@@3VIMetaTable@@A ; g_iMetaTable
  000f8	6a 00		 push	 0
  000fa	ff b0 6c 0e 00
	00		 push	 DWORD PTR [eax+3692]
  00100	6a 04		 push	 4
  00102	ff b7 40 01 00
	00		 push	 DWORD PTR [edi+320]
  00108	e8 00 00 00 00	 call	 ?GetLanguageText@IMetaTable@@QAEPBDPAUHWND__@@W4E_CODEPAGE@1@PBDH@Z ; IMetaTable::GetLanguageText
  0010d	50		 push	 eax
  0010e	8b ce		 mov	 ecx, esi
  00110	e8 00 00 00 00	 call	 ?AddTail@CStringList@@QAEPAU__POSITION@@PBD@Z ; CStringList::AddTail

; 469  : 		lstItems->AddTail( _LTEXT4( C4_50_UNIT));

  00115	a1 54 00 00 00	 mov	 eax, DWORD PTR ?g_iMetaTable@@3VIMetaTable@@A+84
  0011a	b9 00 00 00 00	 mov	 ecx, OFFSET ?g_iMetaTable@@3VIMetaTable@@A ; g_iMetaTable
  0011f	6a 00		 push	 0
  00121	ff b0 70 0e 00
	00		 push	 DWORD PTR [eax+3696]
  00127	6a 04		 push	 4
  00129	ff b7 40 01 00
	00		 push	 DWORD PTR [edi+320]
  0012f	e8 00 00 00 00	 call	 ?GetLanguageText@IMetaTable@@QAEPBDPAUHWND__@@W4E_CODEPAGE@1@PBDH@Z ; IMetaTable::GetLanguageText
  00134	50		 push	 eax

; 470  : 		lstItems->AddTail("");
; 471  : 		lstItems->AddTail("");
; 472  : 	}

  00135	eb 6c		 jmp	 SHORT $LN12@SetComboLi
$LN2@SetComboLi:

; 473  : 	else if( strbefore == _LTEXT4( C4_RATE)){

  00137	a1 54 00 00 00	 mov	 eax, DWORD PTR ?g_iMetaTable@@3VIMetaTable@@A+84
  0013c	b9 00 00 00 00	 mov	 ecx, OFFSET ?g_iMetaTable@@3VIMetaTable@@A ; g_iMetaTable
  00141	6a 00		 push	 0
  00143	ff b0 74 0e 00
	00		 push	 DWORD PTR [eax+3700]
  00149	6a 04		 push	 4
  0014b	ff b7 40 01 00
	00		 push	 DWORD PTR [edi+320]
  00151	e8 00 00 00 00	 call	 ?GetLanguageText@IMetaTable@@QAEPBDPAUHWND__@@W4E_CODEPAGE@1@PBDH@Z ; IMetaTable::GetLanguageText
; File C:\Program Files (x86)\Microsoft Visual Studio\2019\Community\VC\Tools\MSVC\14.29.30133\atlmfc\include\cstringt.h

; 2486 : 		return(str1.Compare(psz2) == 0);

  00156	50		 push	 eax
  00157	8d 4d 0c	 lea	 ecx, DWORD PTR _strbefore$[ebp]
  0015a	ff 15 00 00 00
	00		 call	 DWORD PTR __imp_?Compare@?$CStringT@DV?$StrTraitMFC_DLL@DV?$ChTraitsCRT@D@ATL@@@@@ATL@@QBEHPBD@Z
  00160	85 c0		 test	 eax, eax
; File D:\git\src\IBK\IBK_DRFN\ProjSrc\SrcChartEx\ChartAddIn\ChartDesignPropertyAddIn\ChartDesignPropertyAddIn\ToolandRButtonGrid_ListCtrl.cpp

; 473  : 	else if( strbefore == _LTEXT4( C4_RATE)){

  00162	75 5e		 jne	 SHORT $LN4@SetComboLi

; 474  : 		lstItems->RemoveAll();

  00164	8b 75 10	 mov	 esi, DWORD PTR _lstItems$[ebp]
  00167	8b ce		 mov	 ecx, esi
  00169	e8 00 00 00 00	 call	 ?RemoveAll@CStringList@@QAEXXZ ; CStringList::RemoveAll

; 475  : 		lstItems->AddTail("10%");

  0016e	68 00 00 00 00	 push	 OFFSET ??_C@_03FKLEIKFA@10?$CF@
  00173	8b ce		 mov	 ecx, esi
  00175	e8 00 00 00 00	 call	 ?AddTail@CStringList@@QAEPAU__POSITION@@PBD@Z ; CStringList::AddTail

; 476  : 		lstItems->AddTail("20%");

  0017a	68 00 00 00 00	 push	 OFFSET ??_C@_03EIABCFLO@20?$CF@
  0017f	8b ce		 mov	 ecx, esi
  00181	e8 00 00 00 00	 call	 ?AddTail@CStringList@@QAEPAU__POSITION@@PBD@Z ; CStringList::AddTail

; 477  : 		lstItems->AddTail("30%");

  00186	68 00 00 00 00	 push	 OFFSET ??_C@_03PALNECNL@30?$CF@
  0018b	8b ce		 mov	 ecx, esi
  0018d	e8 00 00 00 00	 call	 ?AddTail@CStringList@@QAEPAU__POSITION@@PBD@Z ; CStringList::AddTail

; 478  : 		lstItems->AddTail("40%");

  00192	68 00 00 00 00	 push	 OFFSET ??_C@_03GNGKHKGC@40?$CF@
  00197	8b ce		 mov	 ecx, esi
  00199	e8 00 00 00 00	 call	 ?AddTail@CStringList@@QAEPAU__POSITION@@PBD@Z ; CStringList::AddTail

; 479  : 		lstItems->AddTail("50%");

  0019e	68 00 00 00 00	 push	 OFFSET ??_C@_03NFNGBNAH@50?$CF@
$LN12@SetComboLi:

; 480  : 		lstItems->AddTail("");
; 481  : 		lstItems->AddTail("");
; 482  : 	}
; 483  : }

  001a3	8b ce		 mov	 ecx, esi
  001a5	e8 00 00 00 00	 call	 ?AddTail@CStringList@@QAEPAU__POSITION@@PBD@Z ; CStringList::AddTail
  001aa	68 00 00 00 00	 push	 OFFSET ??_C@_00CNPNBAHC@@
  001af	8b ce		 mov	 ecx, esi
  001b1	e8 00 00 00 00	 call	 ?AddTail@CStringList@@QAEPAU__POSITION@@PBD@Z ; CStringList::AddTail
  001b6	68 00 00 00 00	 push	 OFFSET ??_C@_00CNPNBAHC@@
  001bb	8b ce		 mov	 ecx, esi
  001bd	e8 00 00 00 00	 call	 ?AddTail@CStringList@@QAEPAU__POSITION@@PBD@Z ; CStringList::AddTail
$LN4@SetComboLi:
  001c2	8d 4d 0c	 lea	 ecx, DWORD PTR _strbefore$[ebp]
  001c5	ff 15 00 00 00
	00		 call	 DWORD PTR __imp_??1?$CStringT@DV?$StrTraitMFC_DLL@DV?$ChTraitsCRT@D@ATL@@@@@ATL@@QAE@XZ
  001cb	8b 4d f4	 mov	 ecx, DWORD PTR __$EHRec$[ebp]
  001ce	64 89 0d 00 00
	00 00		 mov	 DWORD PTR fs:0, ecx
  001d5	59		 pop	 ecx
  001d6	5f		 pop	 edi
  001d7	5e		 pop	 esi
  001d8	8b e5		 mov	 esp, ebp
  001da	5d		 pop	 ebp
  001db	c2 0c 00	 ret	 12			; 0000000cH
_TEXT	ENDS
;	COMDAT text$x
text$x	SEGMENT
__unwindfunclet$?SetComboListWhen_Extension_Recuction_Item@CToolandRButtonGrid_ListCtrl@@AAEXHHPAVCStringList@@@Z$0:
  00000	8d 4d 0c	 lea	 ecx, DWORD PTR _strbefore$[ebp]
  00003	ff 25 00 00 00
	00		 jmp	 DWORD PTR __imp_??1?$CStringT@DV?$StrTraitMFC_DLL@DV?$ChTraitsCRT@D@ATL@@@@@ATL@@QAE@XZ
  00009	cc		 int	 3
  0000a	cc		 int	 3
  0000b	cc		 int	 3
  0000c	cc		 int	 3
  0000d	cc		 int	 3
__ehhandler$?SetComboListWhen_Extension_Recuction_Item@CToolandRButtonGrid_ListCtrl@@AAEXHHPAVCStringList@@@Z:
  0000e	90		 npad	 1
  0000f	90		 npad	 1
  00010	8b 54 24 08	 mov	 edx, DWORD PTR [esp+8]
  00014	8d 42 0c	 lea	 eax, DWORD PTR [edx+12]
  00017	8b 4a f4	 mov	 ecx, DWORD PTR [edx-12]
  0001a	33 c8		 xor	 ecx, eax
  0001c	e8 00 00 00 00	 call	 @__security_check_cookie@4
  00021	b8 00 00 00 00	 mov	 eax, OFFSET __ehfuncinfo$?SetComboListWhen_Extension_Recuction_Item@CToolandRButtonGrid_ListCtrl@@AAEXHHPAVCStringList@@@Z
  00026	e9 00 00 00 00	 jmp	 ___CxxFrameHandler3
text$x	ENDS
?SetComboListWhen_Extension_Recuction_Item@CToolandRButtonGrid_ListCtrl@@AAEXHHPAVCStringList@@@Z ENDP ; CToolandRButtonGrid_ListCtrl::SetComboListWhen_Extension_Recuction_Item
; Function compile flags: /Ogtp
; File D:\git\src\IBK\IBK_DRFN\ProjSrc\SrcChartEx\ChartAddIn\ChartDesignPropertyAddIn\ChartDesignPropertyAddIn\ToolandRButtonGrid_ListCtrl.cpp
;	COMDAT ?GetMessageMap@CToolandRButtonGrid_ListCtrl@@MBEPBUAFX_MSGMAP@@XZ
_TEXT	SEGMENT
?GetMessageMap@CToolandRButtonGrid_ListCtrl@@MBEPBUAFX_MSGMAP@@XZ PROC ; CToolandRButtonGrid_ListCtrl::GetMessageMap, COMDAT
; _this$ = ecx

; 37   : BEGIN_MESSAGE_MAP(CToolandRButtonGrid_ListCtrl, CSuperGridCtrl)

  00000	b8 00 00 00 00	 mov	 eax, OFFSET ?messageMap@?1??GetThisMessageMap@CToolandRButtonGrid_ListCtrl@@KGPBUAFX_MSGMAP@@XZ@4U3@B
  00005	c3		 ret	 0
?GetMessageMap@CToolandRButtonGrid_ListCtrl@@MBEPBUAFX_MSGMAP@@XZ ENDP ; CToolandRButtonGrid_ListCtrl::GetMessageMap
_TEXT	ENDS
; Function compile flags: /Ogtp
; File D:\git\src\IBK\IBK_DRFN\ProjSrc\SrcChartEx\ChartAddIn\ChartDesignPropertyAddIn\ChartDesignPropertyAddIn\ToolandRButtonGrid_ListCtrl.cpp
;	COMDAT ?GetThisMessageMap@CToolandRButtonGrid_ListCtrl@@KGPBUAFX_MSGMAP@@XZ
_TEXT	SEGMENT
?GetThisMessageMap@CToolandRButtonGrid_ListCtrl@@KGPBUAFX_MSGMAP@@XZ PROC ; CToolandRButtonGrid_ListCtrl::GetThisMessageMap, COMDAT

; 38   : 	//{{AFX_MSG_MAP(CToolandRButtonGrid_ListCtrl)
; 39   : 	ON_WM_CREATE()
; 40   : 	ON_NOTIFY_REFLECT(NM_DBLCLK, OnDblclk)
; 41   : 	ON_NOTIFY_REFLECT(LVN_KEYDOWN, OnKeydown)
; 42   : 	//}}AFX_MSG_MAP
; 43   : 	ON_MESSAGE(WM_DRAGCHARTDATA, OnDragChartData)
; 44   : 	ON_MESSAGE(WM_DROPCHARTDATA, OnDropChartData)
; 45   : END_MESSAGE_MAP()

  00000	b8 00 00 00 00	 mov	 eax, OFFSET ?messageMap@?1??GetThisMessageMap@CToolandRButtonGrid_ListCtrl@@KGPBUAFX_MSGMAP@@XZ@4U3@B
  00005	c3		 ret	 0
?GetThisMessageMap@CToolandRButtonGrid_ListCtrl@@KGPBUAFX_MSGMAP@@XZ ENDP ; CToolandRButtonGrid_ListCtrl::GetThisMessageMap
_TEXT	ENDS
; Function compile flags: /Ogtp
; File D:\git\src\IBK\IBK_DRFN\ProjSrc\SrcChartEx\ChartAddIn\ChartDesignPropertyAddIn\ChartDesignPropertyAddIn\ToolandRButtonGrid_ListCtrl.cpp
; File C:\Program Files (x86)\Microsoft Visual Studio\2019\Community\VC\Tools\MSVC\14.29.30133\atlmfc\include\afxwin2.inl
; File D:\git\src\IBK\IBK_DRFN\ProjSrc\SrcChartEx\ChartAddIn\ChartDesignPropertyAddIn\ChartDesignPropertyAddIn\ToolandRButtonGrid_ListCtrl.cpp
;	COMDAT ?OnDropChartData@CToolandRButtonGrid_ListCtrl@@IAEJIJ@Z
_TEXT	SEGMENT
_nCount$1$ = -24					; size = 4
$T2 = -20						; size = 4
_strItems$ = -16					; size = 4
__$EHRec$ = -12						; size = 12
_wParam$ = 8						; size = 4
_Item$3 = 12						; size = 4
$T4 = 12						; size = 4
_lParam$ = 12						; size = 4
?OnDropChartData@CToolandRButtonGrid_ListCtrl@@IAEJIJ@Z PROC ; CToolandRButtonGrid_ListCtrl::OnDropChartData, COMDAT
; _this$ = ecx

; 339  : {

  00000	55		 push	 ebp
  00001	8b ec		 mov	 ebp, esp
  00003	6a ff		 push	 -1
  00005	68 00 00 00 00	 push	 __ehhandler$?OnDropChartData@CToolandRButtonGrid_ListCtrl@@IAEJIJ@Z
  0000a	64 a1 00 00 00
	00		 mov	 eax, DWORD PTR fs:0
  00010	50		 push	 eax
  00011	83 ec 0c	 sub	 esp, 12			; 0000000cH
  00014	53		 push	 ebx
  00015	56		 push	 esi
  00016	57		 push	 edi
  00017	a1 00 00 00 00	 mov	 eax, DWORD PTR ___security_cookie
  0001c	33 c5		 xor	 eax, ebp
  0001e	50		 push	 eax
  0001f	8d 45 f4	 lea	 eax, DWORD PTR __$EHRec$[ebp]
  00022	64 a3 00 00 00
	00		 mov	 DWORD PTR fs:0, eax
  00028	8b f9		 mov	 edi, ecx

; 340  : 	ToolItem *pData = (ToolItem *)lParam;
; 341  : 	CString strItems = (LPSTR)(LPCTSTR)pData->ChartName;

  0002a	8b 45 0c	 mov	 eax, DWORD PTR _lParam$[ebp]
  0002d	8d 4d f0	 lea	 ecx, DWORD PTR _strItems$[ebp]
  00030	83 c0 04	 add	 eax, 4
  00033	50		 push	 eax
  00034	ff 15 00 00 00
	00		 call	 DWORD PTR __imp_??0?$CStringT@DV?$StrTraitMFC_DLL@DV?$ChTraitsCRT@D@ATL@@@@@ATL@@QAE@PBD@Z

; 342  : 
; 343  : 	// REMOVE: (04/03/25)  ''  .
; 344  : //	if(_T("") == m_strTabName)
; 345  : //	if(strItems.Find(_T("")) != -1)
; 346  : //	{//  .
; 347  : //		m_pNumericalInquiryOptionDlg->AddNumericalInquiryOption(0x1);
; 348  : //	}
; 349  : 
; 350  : 	int nCount = CDataConversion::GetStringDataCount(strItems, ";");

  0003a	68 00 00 00 00	 push	 OFFSET ??_C@_01ICJEACDI@?$DL@
  0003f	8d 4d 0c	 lea	 ecx, DWORD PTR $T4[ebp]
  00042	c7 45 fc 00 00
	00 00		 mov	 DWORD PTR __$EHRec$[ebp+8], 0
  00049	ff 15 00 00 00
	00		 call	 DWORD PTR __imp_??0?$CStringT@DV?$StrTraitMFC_DLL@DV?$ChTraitsCRT@D@ATL@@@@@ATL@@QAE@PBD@Z
  0004f	8d 45 0c	 lea	 eax, DWORD PTR $T4[ebp]
  00052	c6 45 fc 01	 mov	 BYTE PTR __$EHRec$[ebp+8], 1
  00056	50		 push	 eax
  00057	8d 45 f0	 lea	 eax, DWORD PTR _strItems$[ebp]
  0005a	50		 push	 eax
  0005b	e8 00 00 00 00	 call	 ?GetStringDataCount@CDataConversion@@SAHABV?$CStringT@DV?$StrTraitMFC_DLL@DV?$ChTraitsCRT@D@ATL@@@@@ATL@@0@Z ; CDataConversion::GetStringDataCount
  00060	83 c4 08	 add	 esp, 8
  00063	c6 45 fc 00	 mov	 BYTE PTR __$EHRec$[ebp+8], 0
  00067	8b f0		 mov	 esi, eax
  00069	8d 4d 0c	 lea	 ecx, DWORD PTR $T4[ebp]
  0006c	89 75 e8	 mov	 DWORD PTR _nCount$1$[ebp], esi
  0006f	ff 15 00 00 00
	00		 call	 DWORD PTR __imp_??1?$CStringT@DV?$StrTraitMFC_DLL@DV?$ChTraitsCRT@D@ATL@@@@@ATL@@QAE@XZ

; 351  : 	for(int i = 0; i< nCount; i++) {

  00075	33 db		 xor	 ebx, ebx
  00077	85 f6		 test	 esi, esi
  00079	0f 8e 92 00 00
	00		 jle	 $LN3@OnDropChar
  0007f	90		 npad	 1
$LL4@OnDropChar:

; 352  : 		CString Item = CDataConversion::GetStringData(strItems, ";");

  00080	68 00 00 00 00	 push	 OFFSET ??_C@_01ICJEACDI@?$DL@
  00085	8d 4d ec	 lea	 ecx, DWORD PTR $T2[ebp]
  00088	ff 15 00 00 00
	00		 call	 DWORD PTR __imp_??0?$CStringT@DV?$StrTraitMFC_DLL@DV?$ChTraitsCRT@D@ATL@@@@@ATL@@QAE@PBD@Z
  0008e	6a 01		 push	 1
  00090	8d 45 ec	 lea	 eax, DWORD PTR $T2[ebp]
  00093	c6 45 fc 02	 mov	 BYTE PTR __$EHRec$[ebp+8], 2
  00097	50		 push	 eax
  00098	8d 45 f0	 lea	 eax, DWORD PTR _strItems$[ebp]
  0009b	50		 push	 eax
  0009c	8d 45 0c	 lea	 eax, DWORD PTR _Item$3[ebp]
  0009f	50		 push	 eax
  000a0	e8 00 00 00 00	 call	 ?GetStringData@CDataConversion@@SA?AV?$CStringT@DV?$StrTraitMFC_DLL@DV?$ChTraitsCRT@D@ATL@@@@@ATL@@AAV23@ABV23@_N@Z ; CDataConversion::GetStringData
  000a5	83 c4 10	 add	 esp, 16			; 00000010H
  000a8	8d 4d ec	 lea	 ecx, DWORD PTR $T2[ebp]
  000ab	c6 45 fc 04	 mov	 BYTE PTR __$EHRec$[ebp+8], 4
  000af	ff 15 00 00 00
	00		 call	 DWORD PTR __imp_??1?$CStringT@DV?$StrTraitMFC_DLL@DV?$ChTraitsCRT@D@ATL@@@@@ATL@@QAE@XZ

; 353  : 		CItemInfo* pItemInfo = m_pItemInfoManager->GetItemInfowithItemName(Item);

  000b5	8b 8f f8 00 00
	00		 mov	 ecx, DWORD PTR [edi+248]
  000bb	8d 45 0c	 lea	 eax, DWORD PTR _Item$3[ebp]
  000be	50		 push	 eax
  000bf	e8 00 00 00 00	 call	 ?GetItemInfowithItemName@CToolandRButtonItemMgr@@QAEPAVCItemInfo@@ABV?$CStringT@DV?$StrTraitMFC_DLL@DV?$ChTraitsCRT@D@ATL@@@@@ATL@@@Z ; CToolandRButtonItemMgr::GetItemInfowithItemName

; 354  : 
; 355  : 		if(pItemInfo == NULL)

  000c4	85 c0		 test	 eax, eax
  000c6	0f 84 89 00 00
	00		 je	 $LN19@OnDropChar

; 357  : 
; 358  : 		CItemInfo* pNewItemInfo = CopyData(pItemInfo);

  000cc	8b 17		 mov	 edx, DWORD PTR [edi]
  000ce	8b cf		 mov	 ecx, edi
  000d0	50		 push	 eax
  000d1	ff 92 70 01 00
	00		 call	 DWORD PTR [edx+368]

; 359  : 		CTreeItem* pNew = InsertItem(m_pRootItem, pNewItemInfo);  			//insert the iteminfo with ParentPtr

  000d7	6a 00		 push	 0
  000d9	8b f0		 mov	 esi, eax
  000db	8b cf		 mov	 ecx, edi
  000dd	56		 push	 esi
  000de	ff b7 f4 00 00
	00		 push	 DWORD PTR [edi+244]
  000e4	e8 00 00 00 00	 call	 ?InsertItem@CSuperGridCtrl@@QAEPAVCTreeItem@1@PAV21@PAVCItemInfo@@H@Z ; CSuperGridCtrl::InsertItem

; 360  : 		InsertOneItemToListCtrl(m_pRootItem, pNew, pNewItemInfo, TRUE);

  000e9	6a 01		 push	 1
  000eb	56		 push	 esi
  000ec	50		 push	 eax
  000ed	ff b7 f4 00 00
	00		 push	 DWORD PTR [edi+244]
  000f3	8b cf		 mov	 ecx, edi
  000f5	e8 00 00 00 00	 call	 ?InsertOneItemToListCtrl@CSuperGridCtrl@@QAEXPAVCTreeItem@1@0PAVCItemInfo@@H@Z ; CSuperGridCtrl::InsertOneItemToListCtrl

; 361  : 	}

  000fa	8d 4d 0c	 lea	 ecx, DWORD PTR _Item$3[ebp]
  000fd	c6 45 fc 00	 mov	 BYTE PTR __$EHRec$[ebp+8], 0
  00101	ff 15 00 00 00
	00		 call	 DWORD PTR __imp_??1?$CStringT@DV?$StrTraitMFC_DLL@DV?$ChTraitsCRT@D@ATL@@@@@ATL@@QAE@XZ
  00107	43		 inc	 ebx
  00108	3b 5d e8	 cmp	 ebx, DWORD PTR _nCount$1$[ebp]
  0010b	0f 8c 6f ff ff
	ff		 jl	 $LL4@OnDropChar
$LN3@OnDropChar:
; File C:\Program Files (x86)\Microsoft Visual Studio\2019\Community\VC\Tools\MSVC\14.29.30133\atlmfc\include\afxwin2.inl

; 108  : 	{ ASSERT(::IsWindow(m_hWnd)); ::SendMessage(m_hWnd, WM_SETREDRAW, bRedraw, 0); }

  00111	6a 00		 push	 0
  00113	6a 01		 push	 1
  00115	6a 0b		 push	 11			; 0000000bH
  00117	ff 77 20	 push	 DWORD PTR [edi+32]
  0011a	ff 15 00 00 00
	00		 call	 DWORD PTR __imp__SendMessageA@16

; 116  : 	{ ASSERT(::IsWindow(m_hWnd)); ::InvalidateRect(m_hWnd, lpRect, bErase); }

  00120	6a 01		 push	 1
  00122	6a 00		 push	 0
  00124	ff 77 20	 push	 DWORD PTR [edi+32]
  00127	ff 15 00 00 00
	00		 call	 DWORD PTR __imp__InvalidateRect@12

; 106  : 	{ ASSERT(::IsWindow(m_hWnd)); ::UpdateWindow(m_hWnd); }

  0012d	ff 77 20	 push	 DWORD PTR [edi+32]
  00130	ff 15 00 00 00
	00		 call	 DWORD PTR __imp__UpdateWindow@4
$LN11@OnDropChar:
; File D:\git\src\IBK\IBK_DRFN\ProjSrc\SrcChartEx\ChartAddIn\ChartDesignPropertyAddIn\ChartDesignPropertyAddIn\ToolandRButtonGrid_ListCtrl.cpp

; 366  : 	return 0L;

  00136	8d 4d f0	 lea	 ecx, DWORD PTR _strItems$[ebp]
  00139	ff 15 00 00 00
	00		 call	 DWORD PTR __imp_??1?$CStringT@DV?$StrTraitMFC_DLL@DV?$ChTraitsCRT@D@ATL@@@@@ATL@@QAE@XZ
  0013f	33 c0		 xor	 eax, eax

; 367  : }

  00141	8b 4d f4	 mov	 ecx, DWORD PTR __$EHRec$[ebp]
  00144	64 89 0d 00 00
	00 00		 mov	 DWORD PTR fs:0, ecx
  0014b	59		 pop	 ecx
  0014c	5f		 pop	 edi
  0014d	5e		 pop	 esi
  0014e	5b		 pop	 ebx
  0014f	8b e5		 mov	 esp, ebp
  00151	5d		 pop	 ebp
  00152	c2 08 00	 ret	 8
$LN19@OnDropChar:

; 356  : 			return 0L;

  00155	8d 4d 0c	 lea	 ecx, DWORD PTR _Item$3[ebp]
  00158	ff 15 00 00 00
	00		 call	 DWORD PTR __imp_??1?$CStringT@DV?$StrTraitMFC_DLL@DV?$ChTraitsCRT@D@ATL@@@@@ATL@@QAE@XZ
  0015e	eb d6		 jmp	 SHORT $LN11@OnDropChar
_TEXT	ENDS
;	COMDAT text$x
text$x	SEGMENT
__unwindfunclet$?OnDropChartData@CToolandRButtonGrid_ListCtrl@@IAEJIJ@Z$0:
  00000	8d 4d f0	 lea	 ecx, DWORD PTR _strItems$[ebp]
  00003	ff 25 00 00 00
	00		 jmp	 DWORD PTR __imp_??1?$CStringT@DV?$StrTraitMFC_DLL@DV?$ChTraitsCRT@D@ATL@@@@@ATL@@QAE@XZ
__unwindfunclet$?OnDropChartData@CToolandRButtonGrid_ListCtrl@@IAEJIJ@Z$1:
  00009	8d 4d 0c	 lea	 ecx, DWORD PTR $T4[ebp]
  0000c	ff 25 00 00 00
	00		 jmp	 DWORD PTR __imp_??1?$CStringT@DV?$StrTraitMFC_DLL@DV?$ChTraitsCRT@D@ATL@@@@@ATL@@QAE@XZ
__unwindfunclet$?OnDropChartData@CToolandRButtonGrid_ListCtrl@@IAEJIJ@Z$2:
  00012	8d 4d ec	 lea	 ecx, DWORD PTR $T2[ebp]
  00015	ff 25 00 00 00
	00		 jmp	 DWORD PTR __imp_??1?$CStringT@DV?$StrTraitMFC_DLL@DV?$ChTraitsCRT@D@ATL@@@@@ATL@@QAE@XZ
__unwindfunclet$?OnDropChartData@CToolandRButtonGrid_ListCtrl@@IAEJIJ@Z$3:
  0001b	8d 4d 0c	 lea	 ecx, DWORD PTR _Item$3[ebp]
  0001e	ff 25 00 00 00
	00		 jmp	 DWORD PTR __imp_??1?$CStringT@DV?$StrTraitMFC_DLL@DV?$ChTraitsCRT@D@ATL@@@@@ATL@@QAE@XZ
  00024	cc		 int	 3
  00025	cc		 int	 3
  00026	cc		 int	 3
  00027	cc		 int	 3
  00028	cc		 int	 3
__ehhandler$?OnDropChartData@CToolandRButtonGrid_ListCtrl@@IAEJIJ@Z:
  00029	90		 npad	 1
  0002a	90		 npad	 1
  0002b	8b 54 24 08	 mov	 edx, DWORD PTR [esp+8]
  0002f	8d 42 0c	 lea	 eax, DWORD PTR [edx+12]
  00032	8b 4a e4	 mov	 ecx, DWORD PTR [edx-28]
  00035	33 c8		 xor	 ecx, eax
  00037	e8 00 00 00 00	 call	 @__security_check_cookie@4
  0003c	b8 00 00 00 00	 mov	 eax, OFFSET __ehfuncinfo$?OnDropChartData@CToolandRButtonGrid_ListCtrl@@IAEJIJ@Z
  00041	e9 00 00 00 00	 jmp	 ___CxxFrameHandler3
text$x	ENDS
?OnDropChartData@CToolandRButtonGrid_ListCtrl@@IAEJIJ@Z ENDP ; CToolandRButtonGrid_ListCtrl::OnDropChartData
; Function compile flags: /Ogtp
; File D:\git\src\IBK\IBK_DRFN\ProjSrc\SrcChartEx\ChartAddIn\ChartDesignPropertyAddIn\ChartDesignPropertyAddIn\ToolandRButtonGrid_ListCtrl.cpp
;	COMDAT ?OnDragChartData@CToolandRButtonGrid_ListCtrl@@IAEJIJ@Z
_TEXT	SEGMENT
_wParam$ = 8						; size = 4
_lParam$ = 12						; size = 4
?OnDragChartData@CToolandRButtonGrid_ListCtrl@@IAEJIJ@Z PROC ; CToolandRButtonGrid_ListCtrl::OnDragChartData, COMDAT
; _this$ = ecx

; 331  : 	UINT uHitTest = TVHT_ONITEM;
; 332  : 	CPoint point;
; 333  : 	point.x = LOWORD((DWORD)lParam);
; 334  : 	point.y = HIWORD((DWORD)lParam);
; 335  : 	return 0L;

  00000	33 c0		 xor	 eax, eax

; 336  : }

  00002	c2 08 00	 ret	 8
?OnDragChartData@CToolandRButtonGrid_ListCtrl@@IAEJIJ@Z ENDP ; CToolandRButtonGrid_ListCtrl::OnDragChartData
_TEXT	ENDS
; Function compile flags: /Ogtp
; File D:\git\src\IBK\IBK_DRFN\ProjSrc\SrcChartEx\ChartAddIn\ChartDesignPropertyAddIn\ChartDesignPropertyAddIn\ToolandRButtonGrid_ListCtrl.cpp
; File C:\Program Files (x86)\Microsoft Visual Studio\2019\Community\VC\Tools\MSVC\14.29.30133\atlmfc\include\afxcmn2.inl
; File D:\git\src\IBK\IBK_DRFN\ProjSrc\SrcChartEx\ChartAddIn\ChartDesignPropertyAddIn\ChartDesignPropertyAddIn\ToolandRButtonGrid_ListCtrl.cpp
; File C:\Program Files (x86)\Microsoft Visual Studio\2019\Community\VC\Tools\MSVC\14.29.30133\atlmfc\include\afxwin1.inl
; File C:\Program Files (x86)\Microsoft Visual Studio\2019\Community\VC\Tools\MSVC\14.29.30133\atlmfc\include\afxwin2.inl
; File D:\git\src\IBK\IBK_DRFN\ProjSrc\SrcChartEx\ChartAddIn\ChartDesignPropertyAddIn\ChartDesignPropertyAddIn\ToolandRButtonGrid_ListCtrl.cpp
; File C:\Program Files (x86)\Microsoft Visual Studio\2019\Community\VC\Tools\MSVC\14.29.30133\atlmfc\include\afxwin2.inl
; File D:\git\src\IBK\IBK_DRFN\ProjSrc\SrcChartEx\ChartAddIn\ChartDesignPropertyAddIn\ChartDesignPropertyAddIn\ToolandRButtonGrid_ListCtrl.cpp
; File C:\Program Files (x86)\Microsoft Visual Studio\2019\Community\VC\Tools\MSVC\14.29.30133\atlmfc\include\afxwin2.inl
; File C:\Program Files (x86)\Microsoft Visual Studio\2019\Community\VC\Tools\MSVC\14.29.30133\atlmfc\include\afxcmn.inl
; File D:\git\src\IBK\IBK_DRFN\ProjSrc\SrcChartEx\ChartAddIn\ChartDesignPropertyAddIn\ChartDesignPropertyAddIn\ToolandRButtonGrid_ListCtrl.cpp
; File C:\Program Files (x86)\Microsoft Visual Studio\2019\Community\VC\Tools\MSVC\14.29.30133\atlmfc\include\afxwin1.inl
; File C:\Program Files (x86)\Microsoft Visual Studio\2019\Community\VC\Tools\MSVC\14.29.30133\atlmfc\include\afxwin2.inl
; File D:\git\src\IBK\IBK_DRFN\ProjSrc\SrcChartEx\ChartAddIn\ChartDesignPropertyAddIn\ChartDesignPropertyAddIn\ToolandRButtonGrid_ListCtrl.cpp
; File C:\Program Files (x86)\Microsoft Visual Studio\2019\Community\VC\Tools\MSVC\14.29.30133\atlmfc\include\atltypes.h
; File D:\git\src\IBK\IBK_DRFN\ProjSrc\SrcChartEx\ChartAddIn\ChartDesignPropertyAddIn\ChartDesignPropertyAddIn\ToolandRButtonGrid_ListCtrl.cpp
; File C:\Program Files (x86)\Microsoft Visual Studio\2019\Community\VC\Tools\MSVC\14.29.30133\atlmfc\include\afxwin2.inl
; File C:\Program Files (x86)\Microsoft Visual Studio\2019\Community\VC\Tools\MSVC\14.29.30133\atlmfc\include\afxcmn.inl
; File D:\git\src\IBK\IBK_DRFN\ProjSrc\SrcChartEx\ChartAddIn\ChartDesignPropertyAddIn\ChartDesignPropertyAddIn\ToolandRButtonGrid_ListCtrl.cpp
; File C:\Program Files (x86)\Microsoft Visual Studio\2019\Community\VC\Tools\MSVC\14.29.30133\atlmfc\include\afxwin1.inl
; File C:\Program Files (x86)\Microsoft Visual Studio\2019\Community\VC\Tools\MSVC\14.29.30133\atlmfc\include\afxwin2.inl
; File D:\git\src\IBK\IBK_DRFN\ProjSrc\SrcChartEx\ChartAddIn\ChartDesignPropertyAddIn\ChartDesignPropertyAddIn\ToolandRButtonGrid_ListCtrl.cpp
; File C:\Program Files (x86)\Microsoft Visual Studio\2019\Community\VC\Tools\MSVC\14.29.30133\atlmfc\include\atltypes.h
; File D:\git\src\IBK\IBK_DRFN\ProjSrc\SrcChartEx\ChartAddIn\ChartDesignPropertyAddIn\ChartDesignPropertyAddIn\ToolandRButtonGrid_ListCtrl.cpp
; File C:\Program Files (x86)\Microsoft Visual Studio\2019\Community\VC\Tools\MSVC\14.29.30133\atlmfc\include\afxwin2.inl
; File D:\git\src\IBK\IBK_DRFN\ProjSrc\SrcChartEx\ChartAddIn\ChartDesignPropertyAddIn\ChartDesignPropertyAddIn\ToolandRButtonGrid_ListCtrl.cpp
;	COMDAT ?OnKeydown@CToolandRButtonGrid_ListCtrl@@IAEXPAUtagNMHDR@@PAJ@Z
_TEXT	SEGMENT
_pResult$GSCopy$1$ = -64				; size = 4
_pParent$1$ = -60					; size = 4
_nScrollIndex$1$ = -56					; size = 4
_nScroll$2 = -56					; size = 4
_item$3 = -56						; size = 4
_wait$4 = -49						; size = 1
_wait$5 = -49						; size = 1
_wait$6 = -49						; size = 1
_rc$7 = -48						; size = 16
_rc$8 = -32						; size = 16
__$ArrayPad$ = -16					; size = 4
__$EHRec$ = -12						; size = 12
_pNMHDR$ = 8						; size = 4
_pResult$ = 12						; size = 4
?OnKeydown@CToolandRButtonGrid_ListCtrl@@IAEXPAUtagNMHDR@@PAJ@Z PROC ; CToolandRButtonGrid_ListCtrl::OnKeydown, COMDAT
; _this$ = ecx

; 493  : {

  00000	55		 push	 ebp
  00001	8b ec		 mov	 ebp, esp
  00003	6a ff		 push	 -1
  00005	68 00 00 00 00	 push	 __ehhandler$?OnKeydown@CToolandRButtonGrid_ListCtrl@@IAEXPAUtagNMHDR@@PAJ@Z
  0000a	64 a1 00 00 00
	00		 mov	 eax, DWORD PTR fs:0
  00010	50		 push	 eax
  00011	83 ec 34	 sub	 esp, 52			; 00000034H
  00014	a1 00 00 00 00	 mov	 eax, DWORD PTR ___security_cookie
  00019	33 c5		 xor	 eax, ebp
  0001b	89 45 f0	 mov	 DWORD PTR __$ArrayPad$[ebp], eax
  0001e	53		 push	 ebx
  0001f	56		 push	 esi
  00020	57		 push	 edi
  00021	50		 push	 eax
  00022	8d 45 f4	 lea	 eax, DWORD PTR __$EHRec$[ebp]
  00025	64 a3 00 00 00
	00		 mov	 DWORD PTR fs:0, eax
  0002b	8b f1		 mov	 esi, ecx
  0002d	8b 45 0c	 mov	 eax, DWORD PTR _pResult$[ebp]
  00030	89 45 c0	 mov	 DWORD PTR _pResult$GSCopy$1$[ebp], eax

; 494  : 	LV_KEYDOWN* pLVKeyDow = (LV_KEYDOWN*)pNMHDR;
; 495  : 	switch(pLVKeyDow->wVKey)

  00033	8b 45 08	 mov	 eax, DWORD PTR _pNMHDR$[ebp]
  00036	0f b7 40 0c	 movzx	 eax, WORD PTR [eax+12]
  0003a	83 c0 e0	 add	 eax, -32		; ffffffe0H
  0003d	83 f8 4d	 cmp	 eax, 77			; 0000004dH
  00040	0f 87 72 02 00
	00		 ja	 $LN20@OnKeydown
  00046	0f b6 80 00 00
	00 00		 movzx	 eax, BYTE PTR $LN86@OnKeydown[eax]
  0004d	ff 24 85 00 00
	00 00		 jmp	 DWORD PTR $LN87@OnKeydown[eax*4]
$LN4@OnKeydown:
; File C:\Program Files (x86)\Microsoft Visual Studio\2019\Community\VC\Tools\MSVC\14.29.30133\atlmfc\include\afxcmn2.inl

; 131  : 	{ ASSERT(::IsWindow(m_hWnd)); return (DWORD) ::SendMessage(m_hWnd, LVM_GETEXTENDEDLISTVIEWSTYLE, 0, 0); }

  00054	6a 00		 push	 0
  00056	6a 00		 push	 0
  00058	68 37 10 00 00	 push	 4151			; 00001037H
  0005d	ff 76 20	 push	 DWORD PTR [esi+32]
  00060	ff 15 00 00 00
	00		 call	 DWORD PTR __imp__SendMessageA@16
; File D:\git\src\IBK\IBK_DRFN\ProjSrc\SrcChartEx\ChartAddIn\ChartDesignPropertyAddIn\ChartDesignPropertyAddIn\ToolandRButtonGrid_ListCtrl.cpp

; 499  : 				if(GetExtendedStyle() & LVS_EX_CHECKBOXES)

  00066	a8 04		 test	 al, 4
  00068	0f 84 4a 02 00
	00		 je	 $LN20@OnKeydown

; 500  : 				{	
; 501  : 					int nIndex = GetSelectedItem();

  0006e	8b ce		 mov	 ecx, esi
  00070	e8 00 00 00 00	 call	 ?GetSelectedItem@CSuperGridCtrl@@QBEHXZ ; CSuperGridCtrl::GetSelectedItem

; 502  : 					if(nIndex !=-1)

  00075	83 f8 ff	 cmp	 eax, -1
  00078	0f 84 3a 02 00
	00		 je	 $LN20@OnKeydown

; 503  : 					{
; 504  : 						CTreeItem* pItem = GetTreeItem(nIndex);

  0007e	50		 push	 eax
  0007f	8b ce		 mov	 ecx, esi
  00081	e8 00 00 00 00	 call	 ?GetTreeItem@CSuperGridCtrl@@QAEPAVCTreeItem@1@H@Z ; CSuperGridCtrl::GetTreeItem

; 505  : 						if(pItem!=NULL)

  00086	85 c0		 test	 eax, eax
  00088	0f 84 2a 02 00
	00		 je	 $LN20@OnKeydown

; 506  : 						{
; 507  : 							CItemInfo *pInfo = GetData(pItem);

  0008e	50		 push	 eax
  0008f	8b ce		 mov	 ecx, esi
  00091	e8 00 00 00 00	 call	 ?GetData@CSuperGridCtrl@@QAEPAVCItemInfo@@PBVCTreeItem@1@@Z ; CSuperGridCtrl::GetData

; 508  : 							pInfo->SetCheck(!pInfo->GetCheck());

  00096	33 c9		 xor	 ecx, ecx
  00098	39 48 78	 cmp	 DWORD PTR [eax+120], ecx
  0009b	0f 94 c1	 sete	 cl
  0009e	89 48 78	 mov	 DWORD PTR [eax+120], ecx

; 509  : 						}
; 510  : 					}
; 511  : 				}
; 512  : 			}break;

  000a1	e9 12 02 00 00	 jmp	 $LN20@OnKeydown
$LN8@OnKeydown:

; 513  : 		case VK_DELETE: 
; 514  : 			{
; 515  : 				int nItem = GetSelectedItem();

  000a6	e8 00 00 00 00	 call	 ?GetSelectedItem@CSuperGridCtrl@@QBEHXZ ; CSuperGridCtrl::GetSelectedItem
  000ab	8b f8		 mov	 edi, eax

; 516  : 				CString item = GetItemText(nItem, 0);

  000ad	8b ce		 mov	 ecx, esi
  000af	6a 00		 push	 0
  000b1	57		 push	 edi
  000b2	8d 45 c8	 lea	 eax, DWORD PTR _item$3[ebp]
  000b5	50		 push	 eax
  000b6	e8 00 00 00 00	 call	 ?GetItemText@CListCtrl@@QBE?AV?$CStringT@DV?$StrTraitMFC_DLL@DV?$ChTraitsCRT@D@ATL@@@@@ATL@@HH@Z ; CListCtrl::GetItemText

; 517  : 				//   .
; 518  : 				if(item.CompareNoCase("Item") == 0)

  000bb	68 00 00 00 00	 push	 OFFSET ??_C@_04BGCMBJDA@Item@
  000c0	8d 4d c8	 lea	 ecx, DWORD PTR _item$3[ebp]
  000c3	c7 45 fc 00 00
	00 00		 mov	 DWORD PTR __$EHRec$[ebp+8], 0
  000ca	ff 15 00 00 00
	00		 call	 DWORD PTR __imp_?CompareNoCase@?$CStringT@DV?$StrTraitMFC_DLL@DV?$ChTraitsCRT@D@ATL@@@@@ATL@@QBEHPBD@Z
  000d0	85 c0		 test	 eax, eax
  000d2	75 0e		 jne	 SHORT $LN9@OnKeydown

; 519  : 					return;

  000d4	8d 4d c8	 lea	 ecx, DWORD PTR _item$3[ebp]
  000d7	ff 15 00 00 00
	00		 call	 DWORD PTR __imp_??1?$CStringT@DV?$StrTraitMFC_DLL@DV?$ChTraitsCRT@D@ATL@@@@@ATL@@QAE@XZ
  000dd	e9 df 01 00 00	 jmp	 $LN1@OnKeydown
$LN9@OnKeydown:

; 520  : 				if(nItem!=-1)

  000e2	83 ff ff	 cmp	 edi, -1
  000e5	74 27		 je	 SHORT $LN12@OnKeydown

; 521  : 				{
; 522  : 					// REMOVE: (04/03/25)  ''  .
; 523  : //					if(_T("") == m_strTabName && item.Find(_T("")) != -1)
; 524  : //					{//  
; 525  : //						m_pNumericalInquiryOptionDlg->SubNumericalInquiryOption(0x1);
; 526  : //					}
; 527  : 					// REMOVE: 04/03/25
; 528  : 
; 529  : 					CTreeItem* pSelItem = GetTreeItem(nItem);

  000e7	57		 push	 edi
  000e8	8b ce		 mov	 ecx, esi
  000ea	e8 00 00 00 00	 call	 ?GetTreeItem@CSuperGridCtrl@@QAEPAVCTreeItem@1@H@Z ; CSuperGridCtrl::GetTreeItem
  000ef	8b d8		 mov	 ebx, eax

; 530  : 					if(pSelItem != NULL)

  000f1	85 db		 test	 ebx, ebx
  000f3	74 19		 je	 SHORT $LN12@OnKeydown

; 531  : 					{
; 532  : 						if(OnDeleteItem(pSelItem, nItem))

  000f5	8b 16		 mov	 edx, DWORD PTR [esi]
  000f7	8b ce		 mov	 ecx, esi
  000f9	57		 push	 edi
  000fa	53		 push	 ebx
  000fb	ff 92 98 01 00
	00		 call	 DWORD PTR [edx+408]
  00101	85 c0		 test	 eax, eax
  00103	74 09		 je	 SHORT $LN12@OnKeydown

; 533  : 							DeleteItemEx(pSelItem, nItem);

  00105	57		 push	 edi
  00106	53		 push	 ebx
  00107	8b ce		 mov	 ecx, esi
  00109	e8 00 00 00 00	 call	 ?DeleteItemEx@CSuperGridCtrl@@QAEXPAVCTreeItem@1@H@Z ; CSuperGridCtrl::DeleteItemEx
$LN12@OnKeydown:

; 534  : 					}	
; 535  : 
; 536  : 					// REMOVE: (04/03/25)  ''  .
; 537  : 					// ADD: (04/03/17)  .  1(, item )
; 538  : 					//       .  
; 539  : 					//   UnCheck.
; 540  : //					if(_T("") == m_strTabName && GetItemCount() <= 1)
; 541  : //					{
; 542  : //						m_pNumericalInquiryOptionDlg->SubNumericalInquiryOption(0x7);
; 543  : //					}
; 544  : 				}
; 545  : 			}	break;

  0010e	8d 4d c8	 lea	 ecx, DWORD PTR _item$3[ebp]
  00111	ff 15 00 00 00
	00		 call	 DWORD PTR __imp_??1?$CStringT@DV?$StrTraitMFC_DLL@DV?$ChTraitsCRT@D@ATL@@@@@ATL@@QAE@XZ
  00117	e9 9c 01 00 00	 jmp	 $LN20@OnKeydown
$LN13@OnKeydown:

; 546  : 		case VK_MULTIPLY:
; 547  : 			{  
; 548  : 				int nIndex = GetSelectedItem();

  0011c	e8 00 00 00 00	 call	 ?GetSelectedItem@CSuperGridCtrl@@QBEHXZ ; CSuperGridCtrl::GetSelectedItem
  00121	8b f8		 mov	 edi, eax

; 549  : 				if(nIndex != -1)

  00123	83 ff ff	 cmp	 edi, -1
  00126	0f 84 8c 01 00
	00		 je	 $LN20@OnKeydown
; File C:\Program Files (x86)\Microsoft Visual Studio\2019\Community\VC\Tools\MSVC\14.29.30133\atlmfc\include\afxwin1.inl

; 19   : 	{ return afxCurrentWinApp; }

  0012c	e8 00 00 00 00	 call	 ?AfxGetModuleState@@YGPAVAFX_MODULE_STATE@@XZ ; AfxGetModuleState
  00131	8b 48 04	 mov	 ecx, DWORD PTR [eax+4]
; File C:\Program Files (x86)\Microsoft Visual Studio\2019\Community\VC\Tools\MSVC\14.29.30133\atlmfc\include\afxwin2.inl

; 1086 : 	{ AfxGetApp()->BeginWaitCursor(); }

  00134	e8 00 00 00 00	 call	 ?BeginWaitCursor@CCmdTarget@@QAEXXZ ; CCmdTarget::BeginWaitCursor

; 108  : 	{ ASSERT(::IsWindow(m_hWnd)); ::SendMessage(m_hWnd, WM_SETREDRAW, bRedraw, 0); }

  00139	8b 1d 00 00 00
	00		 mov	 ebx, DWORD PTR __imp__SendMessageA@16
  0013f	6a 00		 push	 0
  00141	6a 00		 push	 0
  00143	6a 0b		 push	 11			; 0000000bH
  00145	ff 76 20	 push	 DWORD PTR [esi+32]
; File D:\git\src\IBK\IBK_DRFN\ProjSrc\SrcChartEx\ChartAddIn\ChartDesignPropertyAddIn\ChartDesignPropertyAddIn\ToolandRButtonGrid_ListCtrl.cpp

; 551  : 					CWaitCursor wait;

  00148	c7 45 fc 01 00
	00 00		 mov	 DWORD PTR __$EHRec$[ebp+8], 1
; File C:\Program Files (x86)\Microsoft Visual Studio\2019\Community\VC\Tools\MSVC\14.29.30133\atlmfc\include\afxwin2.inl

; 108  : 	{ ASSERT(::IsWindow(m_hWnd)); ::SendMessage(m_hWnd, WM_SETREDRAW, bRedraw, 0); }

  0014f	ff d3		 call	 ebx
; File D:\git\src\IBK\IBK_DRFN\ProjSrc\SrcChartEx\ChartAddIn\ChartDesignPropertyAddIn\ChartDesignPropertyAddIn\ToolandRButtonGrid_ListCtrl.cpp

; 553  : 					CTreeItem *pParent = GetTreeItem(nIndex);

  00151	57		 push	 edi
  00152	8b ce		 mov	 ecx, esi
  00154	e8 00 00 00 00	 call	 ?GetTreeItem@CSuperGridCtrl@@QAEPAVCTreeItem@1@H@Z ; CSuperGridCtrl::GetTreeItem

; 554  : 					int nScroll=0;
; 555  : 					if(OnVKMultiply(pParent, nIndex))

  00159	8b 16		 mov	 edx, DWORD PTR [esi]
  0015b	8b ce		 mov	 ecx, esi
  0015d	57		 push	 edi
  0015e	50		 push	 eax
  0015f	89 45 c4	 mov	 DWORD PTR _pParent$1$[ebp], eax
  00162	c7 45 c8 00 00
	00 00		 mov	 DWORD PTR _nScroll$2[ebp], 0
  00169	ff 92 9c 01 00
	00		 call	 DWORD PTR [edx+412]
  0016f	85 c0		 test	 eax, eax
  00171	74 0e		 je	 SHORT $LN15@OnKeydown

; 556  : 					{	
; 557  : 						ExpandAll(pParent, nScroll);

  00173	8d 45 c8	 lea	 eax, DWORD PTR _nScroll$2[ebp]
  00176	8b ce		 mov	 ecx, esi
  00178	50		 push	 eax
  00179	ff 75 c4	 push	 DWORD PTR _pParent$1$[ebp]
  0017c	e8 00 00 00 00	 call	 ?ExpandAll@CSuperGridCtrl@@QAEXPAVCTreeItem@1@AAH@Z ; CSuperGridCtrl::ExpandAll
$LN15@OnKeydown:
; File C:\Program Files (x86)\Microsoft Visual Studio\2019\Community\VC\Tools\MSVC\14.29.30133\atlmfc\include\afxwin2.inl

; 108  : 	{ ASSERT(::IsWindow(m_hWnd)); ::SendMessage(m_hWnd, WM_SETREDRAW, bRedraw, 0); }

  00181	6a 00		 push	 0
  00183	6a 01		 push	 1
  00185	6a 0b		 push	 11			; 0000000bH
  00187	ff 76 20	 push	 DWORD PTR [esi+32]
  0018a	ff d3		 call	 ebx
; File C:\Program Files (x86)\Microsoft Visual Studio\2019\Community\VC\Tools\MSVC\14.29.30133\atlmfc\include\afxcmn.inl

; 197  : 	{ ASSERT(::IsWindow(m_hWnd)); return (BOOL) ::SendMessage(m_hWnd, LVM_REDRAWITEMS, nFirst, nLast); }

  0018c	ff 75 c8	 push	 DWORD PTR _nScroll$2[ebp]
  0018f	57		 push	 edi
  00190	68 15 10 00 00	 push	 4117			; 00001015H
  00195	ff 76 20	 push	 DWORD PTR [esi+32]
  00198	ff d3		 call	 ebx

; 193  : 	{ ASSERT(::IsWindow(m_hWnd)); return (BOOL) ::SendMessage(m_hWnd, LVM_ENSUREVISIBLE, nItem, MAKELPARAM(bPartialOK, 0)); }

  0019a	6a 01		 push	 1
  0019c	ff 75 c8	 push	 DWORD PTR _nScroll$2[ebp]
  0019f	68 13 10 00 00	 push	 4115			; 00001013H
  001a4	ff 76 20	 push	 DWORD PTR [esi+32]
  001a7	ff d3		 call	 ebx
; File D:\git\src\IBK\IBK_DRFN\ProjSrc\SrcChartEx\ChartAddIn\ChartDesignPropertyAddIn\ChartDesignPropertyAddIn\ToolandRButtonGrid_ListCtrl.cpp

; 563  : 			 }break;

  001a9	e9 02 01 00 00	 jmp	 $LN89@OnKeydown
$LN16@OnKeydown:

; 564  : 		case VK_ADD:
; 565  : 			{
; 566  : 					int nIndex = GetSelectedItem();

  001ae	e8 00 00 00 00	 call	 ?GetSelectedItem@CSuperGridCtrl@@QBEHXZ ; CSuperGridCtrl::GetSelectedItem
  001b3	8b f8		 mov	 edi, eax

; 567  : 					if(nIndex!=-1)

  001b5	83 ff ff	 cmp	 edi, -1
  001b8	0f 84 fa 00 00
	00		 je	 $LN20@OnKeydown
; File C:\Program Files (x86)\Microsoft Visual Studio\2019\Community\VC\Tools\MSVC\14.29.30133\atlmfc\include\afxwin1.inl

; 19   : 	{ return afxCurrentWinApp; }

  001be	e8 00 00 00 00	 call	 ?AfxGetModuleState@@YGPAVAFX_MODULE_STATE@@XZ ; AfxGetModuleState
  001c3	8b 48 04	 mov	 ecx, DWORD PTR [eax+4]
; File C:\Program Files (x86)\Microsoft Visual Studio\2019\Community\VC\Tools\MSVC\14.29.30133\atlmfc\include\afxwin2.inl

; 1086 : 	{ AfxGetApp()->BeginWaitCursor(); }

  001c6	e8 00 00 00 00	 call	 ?BeginWaitCursor@CCmdTarget@@QAEXXZ ; CCmdTarget::BeginWaitCursor
; File D:\git\src\IBK\IBK_DRFN\ProjSrc\SrcChartEx\ChartAddIn\ChartDesignPropertyAddIn\ChartDesignPropertyAddIn\ToolandRButtonGrid_ListCtrl.cpp

; 570  : 						CTreeItem *pSelItem = GetTreeItem(nIndex);

  001cb	57		 push	 edi
  001cc	8b ce		 mov	 ecx, esi
  001ce	c7 45 fc 02 00
	00 00		 mov	 DWORD PTR __$EHRec$[ebp+8], 2
  001d5	e8 00 00 00 00	 call	 ?GetTreeItem@CSuperGridCtrl@@QAEPAVCTreeItem@1@H@Z ; CSuperGridCtrl::GetTreeItem

; 571  : 						int nScrollIndex = 0;
; 572  : 						if(OnVKAdd(pSelItem, nIndex))

  001da	8b 16		 mov	 edx, DWORD PTR [esi]
  001dc	8b d8		 mov	 ebx, eax
  001de	57		 push	 edi
  001df	53		 push	 ebx
  001e0	8b ce		 mov	 ecx, esi
  001e2	c7 45 c8 00 00
	00 00		 mov	 DWORD PTR _nScrollIndex$1$[ebp], 0
  001e9	ff 92 a4 01 00
	00		 call	 DWORD PTR [edx+420]
  001ef	85 c0		 test	 eax, eax
  001f1	74 0c		 je	 SHORT $LN18@OnKeydown

; 573  : 						{
; 574  : 							 nScrollIndex = Expand(pSelItem, nIndex);

  001f3	57		 push	 edi
  001f4	53		 push	 ebx
  001f5	8b ce		 mov	 ecx, esi
  001f7	e8 00 00 00 00	 call	 ?Expand@CSuperGridCtrl@@QAEHPAVCTreeItem@1@H@Z ; CSuperGridCtrl::Expand
  001fc	89 45 c8	 mov	 DWORD PTR _nScrollIndex$1$[ebp], eax
$LN18@OnKeydown:

; 577  : 						GetItemRect(nIndex, rc, LVIR_BOUNDS);

  001ff	6a 00		 push	 0
  00201	8d 45 e0	 lea	 eax, DWORD PTR _rc$8[ebp]
  00204	0f 57 c0	 xorps	 xmm0, xmm0
  00207	50		 push	 eax
  00208	57		 push	 edi
  00209	8b ce		 mov	 ecx, esi
; File C:\Program Files (x86)\Microsoft Visual Studio\2019\Community\VC\Tools\MSVC\14.29.30133\atlmfc\include\atltypes.h

; 528  : 	left = 0;

  0020b	0f 11 45 e0	 movups	 XMMWORD PTR _rc$8[ebp], xmm0
; File D:\git\src\IBK\IBK_DRFN\ProjSrc\SrcChartEx\ChartAddIn\ChartDesignPropertyAddIn\ChartDesignPropertyAddIn\ToolandRButtonGrid_ListCtrl.cpp

; 577  : 						GetItemRect(nIndex, rc, LVIR_BOUNDS);

  0020f	e8 00 00 00 00	 call	 ?GetItemRect@CListCtrl@@QBEHHPAUtagRECT@@I@Z ; CListCtrl::GetItemRect
; File C:\Program Files (x86)\Microsoft Visual Studio\2019\Community\VC\Tools\MSVC\14.29.30133\atlmfc\include\afxwin2.inl

; 116  : 	{ ASSERT(::IsWindow(m_hWnd)); ::InvalidateRect(m_hWnd, lpRect, bErase); }

  00214	6a 01		 push	 1
  00216	8d 45 e0	 lea	 eax, DWORD PTR _rc$8[ebp]
  00219	50		 push	 eax
  0021a	ff 76 20	 push	 DWORD PTR [esi+32]
  0021d	ff 15 00 00 00
	00		 call	 DWORD PTR __imp__InvalidateRect@12

; 106  : 	{ ASSERT(::IsWindow(m_hWnd)); ::UpdateWindow(m_hWnd); }

  00223	ff 76 20	 push	 DWORD PTR [esi+32]
  00226	ff 15 00 00 00
	00		 call	 DWORD PTR __imp__UpdateWindow@4
; File C:\Program Files (x86)\Microsoft Visual Studio\2019\Community\VC\Tools\MSVC\14.29.30133\atlmfc\include\afxcmn.inl

; 193  : 	{ ASSERT(::IsWindow(m_hWnd)); return (BOOL) ::SendMessage(m_hWnd, LVM_ENSUREVISIBLE, nItem, MAKELPARAM(bPartialOK, 0)); }

  0022c	6a 01		 push	 1
  0022e	ff 75 c8	 push	 DWORD PTR _nScrollIndex$1$[ebp]
  00231	68 13 10 00 00	 push	 4115			; 00001013H
  00236	ff 76 20	 push	 DWORD PTR [esi+32]
  00239	ff 15 00 00 00
	00		 call	 DWORD PTR __imp__SendMessageA@16
; File D:\git\src\IBK\IBK_DRFN\ProjSrc\SrcChartEx\ChartAddIn\ChartDesignPropertyAddIn\ChartDesignPropertyAddIn\ToolandRButtonGrid_ListCtrl.cpp

; 583  : 			}break;

  0023f	eb 6f		 jmp	 SHORT $LN89@OnKeydown
$LN19@OnKeydown:

; 584  : 		case VK_SUBTRACT:
; 585  : 			{
; 586  : 				int nIndex = GetSelectedItem();

  00241	e8 00 00 00 00	 call	 ?GetSelectedItem@CSuperGridCtrl@@QBEHXZ ; CSuperGridCtrl::GetSelectedItem
  00246	8b f8		 mov	 edi, eax

; 587  : 				if(nIndex!=-1)

  00248	83 ff ff	 cmp	 edi, -1
  0024b	74 6b		 je	 SHORT $LN20@OnKeydown
; File C:\Program Files (x86)\Microsoft Visual Studio\2019\Community\VC\Tools\MSVC\14.29.30133\atlmfc\include\afxwin1.inl

; 19   : 	{ return afxCurrentWinApp; }

  0024d	e8 00 00 00 00	 call	 ?AfxGetModuleState@@YGPAVAFX_MODULE_STATE@@XZ ; AfxGetModuleState
  00252	8b 48 04	 mov	 ecx, DWORD PTR [eax+4]
; File C:\Program Files (x86)\Microsoft Visual Studio\2019\Community\VC\Tools\MSVC\14.29.30133\atlmfc\include\afxwin2.inl

; 1086 : 	{ AfxGetApp()->BeginWaitCursor(); }

  00255	e8 00 00 00 00	 call	 ?BeginWaitCursor@CCmdTarget@@QAEXXZ ; CCmdTarget::BeginWaitCursor
; File D:\git\src\IBK\IBK_DRFN\ProjSrc\SrcChartEx\ChartAddIn\ChartDesignPropertyAddIn\ChartDesignPropertyAddIn\ToolandRButtonGrid_ListCtrl.cpp

; 590  : 					CTreeItem *pSelItem = GetTreeItem(nIndex);

  0025a	57		 push	 edi
  0025b	8b ce		 mov	 ecx, esi
  0025d	c7 45 fc 03 00
	00 00		 mov	 DWORD PTR __$EHRec$[ebp+8], 3
  00264	e8 00 00 00 00	 call	 ?GetTreeItem@CSuperGridCtrl@@QAEPAVCTreeItem@1@H@Z ; CSuperGridCtrl::GetTreeItem

; 591  : 					if(OnVkSubTract(pSelItem, nIndex))

  00269	8b 16		 mov	 edx, DWORD PTR [esi]
  0026b	8b d8		 mov	 ebx, eax
  0026d	57		 push	 edi
  0026e	53		 push	 ebx
  0026f	8b ce		 mov	 ecx, esi
  00271	ff 92 a0 01 00
	00		 call	 DWORD PTR [edx+416]
  00277	85 c0		 test	 eax, eax
  00279	74 08		 je	 SHORT $LN21@OnKeydown

; 592  : 					{
; 593  : 						Collapse(pSelItem);

  0027b	53		 push	 ebx
  0027c	8b ce		 mov	 ecx, esi
  0027e	e8 00 00 00 00	 call	 ?Collapse@CSuperGridCtrl@@QAEXPAVCTreeItem@1@@Z ; CSuperGridCtrl::Collapse
$LN21@OnKeydown:

; 596  : 					GetItemRect(nIndex, rc, LVIR_BOUNDS);

  00283	6a 00		 push	 0
  00285	8d 45 d0	 lea	 eax, DWORD PTR _rc$7[ebp]
  00288	0f 57 c0	 xorps	 xmm0, xmm0
  0028b	50		 push	 eax
  0028c	57		 push	 edi
  0028d	8b ce		 mov	 ecx, esi
; File C:\Program Files (x86)\Microsoft Visual Studio\2019\Community\VC\Tools\MSVC\14.29.30133\atlmfc\include\atltypes.h

; 528  : 	left = 0;

  0028f	0f 11 45 d0	 movups	 XMMWORD PTR _rc$7[ebp], xmm0
; File D:\git\src\IBK\IBK_DRFN\ProjSrc\SrcChartEx\ChartAddIn\ChartDesignPropertyAddIn\ChartDesignPropertyAddIn\ToolandRButtonGrid_ListCtrl.cpp

; 596  : 					GetItemRect(nIndex, rc, LVIR_BOUNDS);

  00293	e8 00 00 00 00	 call	 ?GetItemRect@CListCtrl@@QBEHHPAUtagRECT@@I@Z ; CListCtrl::GetItemRect
; File C:\Program Files (x86)\Microsoft Visual Studio\2019\Community\VC\Tools\MSVC\14.29.30133\atlmfc\include\afxwin2.inl

; 116  : 	{ ASSERT(::IsWindow(m_hWnd)); ::InvalidateRect(m_hWnd, lpRect, bErase); }

  00298	6a 01		 push	 1
  0029a	8d 45 d0	 lea	 eax, DWORD PTR _rc$7[ebp]
  0029d	50		 push	 eax
  0029e	ff 76 20	 push	 DWORD PTR [esi+32]
  002a1	ff 15 00 00 00
	00		 call	 DWORD PTR __imp__InvalidateRect@12

; 106  : 	{ ASSERT(::IsWindow(m_hWnd)); ::UpdateWindow(m_hWnd); }

  002a7	ff 76 20	 push	 DWORD PTR [esi+32]
  002aa	ff 15 00 00 00
	00		 call	 DWORD PTR __imp__UpdateWindow@4
$LN89@OnKeydown:
; File D:\git\src\IBK\IBK_DRFN\ProjSrc\SrcChartEx\ChartAddIn\ChartDesignPropertyAddIn\ChartDesignPropertyAddIn\ToolandRButtonGrid_ListCtrl.cpp

; 603  : 	*pResult = 0;

  002b0	8d 4d cf	 lea	 ecx, DWORD PTR _wait$4[ebp]
  002b3	e8 00 00 00 00	 call	 ??1CWaitCursor@@QAE@XZ	; CWaitCursor::~CWaitCursor
$LN20@OnKeydown:
  002b8	8b 45 c0	 mov	 eax, DWORD PTR _pResult$GSCopy$1$[ebp]
  002bb	c7 00 00 00 00
	00		 mov	 DWORD PTR [eax], 0
$LN1@OnKeydown:

; 604  : }

  002c1	8b 4d f4	 mov	 ecx, DWORD PTR __$EHRec$[ebp]
  002c4	64 89 0d 00 00
	00 00		 mov	 DWORD PTR fs:0, ecx
  002cb	59		 pop	 ecx
  002cc	5f		 pop	 edi
  002cd	5e		 pop	 esi
  002ce	5b		 pop	 ebx
  002cf	8b 4d f0	 mov	 ecx, DWORD PTR __$ArrayPad$[ebp]
  002d2	33 cd		 xor	 ecx, ebp
  002d4	e8 00 00 00 00	 call	 @__security_check_cookie@4
  002d9	8b e5		 mov	 esp, ebp
  002db	5d		 pop	 ebp
  002dc	c2 08 00	 ret	 8
  002df	90		 npad	 1
$LN87@OnKeydown:
  002e0	00 00 00 00	 DD	 $LN4@OnKeydown
  002e4	00 00 00 00	 DD	 $LN8@OnKeydown
  002e8	00 00 00 00	 DD	 $LN13@OnKeydown
  002ec	00 00 00 00	 DD	 $LN16@OnKeydown
  002f0	00 00 00 00	 DD	 $LN19@OnKeydown
  002f4	00 00 00 00	 DD	 $LN20@OnKeydown
$LN86@OnKeydown:
  002f8	00		 DB	 0
  002f9	05		 DB	 5
  002fa	05		 DB	 5
  002fb	05		 DB	 5
  002fc	05		 DB	 5
  002fd	05		 DB	 5
  002fe	05		 DB	 5
  002ff	05		 DB	 5
  00300	05		 DB	 5
  00301	05		 DB	 5
  00302	05		 DB	 5
  00303	05		 DB	 5
  00304	05		 DB	 5
  00305	05		 DB	 5
  00306	01		 DB	 1
  00307	05		 DB	 5
  00308	05		 DB	 5
  00309	05		 DB	 5
  0030a	05		 DB	 5
  0030b	05		 DB	 5
  0030c	05		 DB	 5
  0030d	05		 DB	 5
  0030e	05		 DB	 5
  0030f	05		 DB	 5
  00310	05		 DB	 5
  00311	05		 DB	 5
  00312	05		 DB	 5
  00313	05		 DB	 5
  00314	05		 DB	 5
  00315	05		 DB	 5
  00316	05		 DB	 5
  00317	05		 DB	 5
  00318	05		 DB	 5
  00319	05		 DB	 5
  0031a	05		 DB	 5
  0031b	05		 DB	 5
  0031c	05		 DB	 5
  0031d	05		 DB	 5
  0031e	05		 DB	 5
  0031f	05		 DB	 5
  00320	05		 DB	 5
  00321	05		 DB	 5
  00322	05		 DB	 5
  00323	05		 DB	 5
  00324	05		 DB	 5
  00325	05		 DB	 5
  00326	05		 DB	 5
  00327	05		 DB	 5
  00328	05		 DB	 5
  00329	05		 DB	 5
  0032a	05		 DB	 5
  0032b	05		 DB	 5
  0032c	05		 DB	 5
  0032d	05		 DB	 5
  0032e	05		 DB	 5
  0032f	05		 DB	 5
  00330	05		 DB	 5
  00331	05		 DB	 5
  00332	05		 DB	 5
  00333	05		 DB	 5
  00334	05		 DB	 5
  00335	05		 DB	 5
  00336	05		 DB	 5
  00337	05		 DB	 5
  00338	05		 DB	 5
  00339	05		 DB	 5
  0033a	05		 DB	 5
  0033b	05		 DB	 5
  0033c	05		 DB	 5
  0033d	05		 DB	 5
  0033e	05		 DB	 5
  0033f	05		 DB	 5
  00340	05		 DB	 5
  00341	05		 DB	 5
  00342	02		 DB	 2
  00343	03		 DB	 3
  00344	05		 DB	 5
  00345	04		 DB	 4
_TEXT	ENDS
;	COMDAT text$x
text$x	SEGMENT
__unwindfunclet$?OnKeydown@CToolandRButtonGrid_ListCtrl@@IAEXPAUtagNMHDR@@PAJ@Z$0:
  00000	8d 4d c8	 lea	 ecx, DWORD PTR _item$3[ebp]
  00003	ff 25 00 00 00
	00		 jmp	 DWORD PTR __imp_??1?$CStringT@DV?$StrTraitMFC_DLL@DV?$ChTraitsCRT@D@ATL@@@@@ATL@@QAE@XZ
__unwindfunclet$?OnKeydown@CToolandRButtonGrid_ListCtrl@@IAEXPAUtagNMHDR@@PAJ@Z$1:
  00009	8d 4d cf	 lea	 ecx, DWORD PTR _wait$6[ebp]
  0000c	e9 00 00 00 00	 jmp	 ??1CWaitCursor@@QAE@XZ	; CWaitCursor::~CWaitCursor
__unwindfunclet$?OnKeydown@CToolandRButtonGrid_ListCtrl@@IAEXPAUtagNMHDR@@PAJ@Z$2:
  00011	8d 4d cf	 lea	 ecx, DWORD PTR _wait$5[ebp]
  00014	e9 00 00 00 00	 jmp	 ??1CWaitCursor@@QAE@XZ	; CWaitCursor::~CWaitCursor
__unwindfunclet$?OnKeydown@CToolandRButtonGrid_ListCtrl@@IAEXPAUtagNMHDR@@PAJ@Z$3:
  00019	8d 4d cf	 lea	 ecx, DWORD PTR _wait$4[ebp]
  0001c	e9 00 00 00 00	 jmp	 ??1CWaitCursor@@QAE@XZ	; CWaitCursor::~CWaitCursor
  00021	cc		 int	 3
  00022	cc		 int	 3
  00023	cc		 int	 3
  00024	cc		 int	 3
  00025	cc		 int	 3
__ehhandler$?OnKeydown@CToolandRButtonGrid_ListCtrl@@IAEXPAUtagNMHDR@@PAJ@Z:
  00026	90		 npad	 1
  00027	90		 npad	 1
  00028	8b 54 24 08	 mov	 edx, DWORD PTR [esp+8]
  0002c	8d 42 0c	 lea	 eax, DWORD PTR [edx+12]
  0002f	8b 4a bc	 mov	 ecx, DWORD PTR [edx-68]
  00032	33 c8		 xor	 ecx, eax
  00034	e8 00 00 00 00	 call	 @__security_check_cookie@4
  00039	8b 4a fc	 mov	 ecx, DWORD PTR [edx-4]
  0003c	33 c8		 xor	 ecx, eax
  0003e	e8 00 00 00 00	 call	 @__security_check_cookie@4
  00043	b8 00 00 00 00	 mov	 eax, OFFSET __ehfuncinfo$?OnKeydown@CToolandRButtonGrid_ListCtrl@@IAEXPAUtagNMHDR@@PAJ@Z
  00048	e9 00 00 00 00	 jmp	 ___CxxFrameHandler3
text$x	ENDS
?OnKeydown@CToolandRButtonGrid_ListCtrl@@IAEXPAUtagNMHDR@@PAJ@Z ENDP ; CToolandRButtonGrid_ListCtrl::OnKeydown
; Function compile flags: /Ogtp
; File D:\git\src\IBK\IBK_DRFN\ProjSrc\SrcChartEx\ChartAddIn\ChartDesignPropertyAddIn\ChartDesignPropertyAddIn\ToolandRButtonGrid_ListCtrl.cpp
; File C:\Program Files (x86)\Microsoft Visual Studio\2019\Community\VC\Tools\MSVC\14.29.30133\atlmfc\include\afxwin2.inl
; File D:\git\src\IBK\IBK_DRFN\ProjSrc\SrcChartEx\ChartAddIn\ChartDesignPropertyAddIn\ChartDesignPropertyAddIn\ToolandRButtonGrid_ListCtrl.cpp
;	COMDAT ?OnDblclk@CToolandRButtonGrid_ListCtrl@@IAEXPAUtagNMHDR@@PAJ@Z
_TEXT	SEGMENT
_pNMHDR$ = 8						; size = 4
_pResult$ = 12						; size = 4
?OnDblclk@CToolandRButtonGrid_ListCtrl@@IAEXPAUtagNMHDR@@PAJ@Z PROC ; CToolandRButtonGrid_ListCtrl::OnDblclk, COMDAT
; _this$ = ecx

; 73   : {

  00000	55		 push	 ebp
  00001	8b ec		 mov	 ebp, esp
; File C:\Program Files (x86)\Microsoft Visual Studio\2019\Community\VC\Tools\MSVC\14.29.30133\atlmfc\include\afxwin2.inl

; 39   : 	{ ASSERT(::IsWindow(m_hWnd)); return ::PostMessage(m_hWnd, message, wParam, lParam); }

  00003	6a 00		 push	 0
  00005	6a 0d		 push	 13			; 0000000dH
  00007	68 00 01 00 00	 push	 256			; 00000100H
  0000c	ff 71 20	 push	 DWORD PTR [ecx+32]
  0000f	ff 15 00 00 00
	00		 call	 DWORD PTR __imp__PostMessageA@16
; File D:\git\src\IBK\IBK_DRFN\ProjSrc\SrcChartEx\ChartAddIn\ChartDesignPropertyAddIn\ChartDesignPropertyAddIn\ToolandRButtonGrid_ListCtrl.cpp

; 75   : 	*pResult = 0;

  00015	8b 45 0c	 mov	 eax, DWORD PTR _pResult$[ebp]
  00018	c7 00 00 00 00
	00		 mov	 DWORD PTR [eax], 0

; 76   : }

  0001e	5d		 pop	 ebp
  0001f	c2 08 00	 ret	 8
?OnDblclk@CToolandRButtonGrid_ListCtrl@@IAEXPAUtagNMHDR@@PAJ@Z ENDP ; CToolandRButtonGrid_ListCtrl::OnDblclk
_TEXT	ENDS
; Function compile flags: /Ogtp
; File D:\git\src\IBK\IBK_DRFN\ProjSrc\SrcChartEx\ChartAddIn\ChartDesignPropertyAddIn\ChartDesignPropertyAddIn\ToolandRButtonGrid_ListCtrl.cpp
; File C:\Program Files (x86)\Microsoft Visual Studio\2019\Community\VC\Tools\MSVC\14.29.30133\atlmfc\include\afxwin1.inl
; File D:\git\src\IBK\IBK_DRFN\ProjSrc\SrcChartEx\ChartAddIn\ChartDesignPropertyAddIn\Include_Chart\Dll_Load\IMetaTable.h
; File C:\Program Files (x86)\Microsoft Visual Studio\2019\Community\VC\Tools\MSVC\14.29.30133\atlmfc\include\afxwin1.inl
; File D:\git\src\IBK\IBK_DRFN\ProjSrc\SrcChartEx\ChartAddIn\ChartDesignPropertyAddIn\ChartDesignPropertyAddIn\ToolandRButtonGrid_ListCtrl.cpp
; File D:\git\src\IBK\IBK_DRFN\ProjSrc\SrcChartEx\ChartAddIn\ChartDesignPropertyAddIn\Include_Chart\Dll_Load\IMetaTable.h
; File C:\Program Files (x86)\Microsoft Visual Studio\2019\Community\VC\Tools\MSVC\14.29.30133\atlmfc\include\afxwin1.inl
; File D:\git\src\IBK\IBK_DRFN\ProjSrc\SrcChartEx\ChartAddIn\ChartDesignPropertyAddIn\ChartDesignPropertyAddIn\ToolandRButtonGrid_ListCtrl.cpp
; File D:\git\src\IBK\IBK_DRFN\ProjSrc\SrcChartEx\ChartAddIn\ChartDesignPropertyAddIn\Include_Chart\Dll_Load\IMetaTable.h
; File C:\Program Files (x86)\Microsoft Visual Studio\2019\Community\VC\Tools\MSVC\14.29.30133\atlmfc\include\afxwin1.inl
; File D:\git\src\IBK\IBK_DRFN\ProjSrc\SrcChartEx\ChartAddIn\ChartDesignPropertyAddIn\Include_Chart\Dll_Load\IMetaTable.h
; File C:\Program Files (x86)\Microsoft Visual Studio\2019\Community\VC\Tools\MSVC\14.29.30133\atlmfc\include\afxwin1.inl
; File D:\git\src\IBK\IBK_DRFN\ProjSrc\SrcChartEx\ChartAddIn\ChartDesignPropertyAddIn\ChartDesignPropertyAddIn\ToolandRButtonGrid_ListCtrl.cpp
; File C:\Program Files (x86)\Microsoft Visual Studio\2019\Community\VC\Tools\MSVC\14.29.30133\atlmfc\include\afxwin1.inl
; File C:\Program Files (x86)\Microsoft Visual Studio\2019\Community\VC\Tools\MSVC\14.29.30133\atlmfc\include\afxcmn.inl
; File D:\git\src\IBK\IBK_DRFN\ProjSrc\SrcChartEx\ChartAddIn\ChartDesignPropertyAddIn\ChartDesignPropertyAddIn\ToolandRButtonGrid_ListCtrl.cpp
;	COMDAT ?OnCreate@CToolandRButtonGrid_ListCtrl@@IAEHPAUtagCREATESTRUCTA@@@Z
_TEXT	SEGMENT
__$EHRec$ = -12						; size = 12
___mlrs__$2 = 8						; size = 4
_lpCreateStruct$ = 8					; size = 4
?OnCreate@CToolandRButtonGrid_ListCtrl@@IAEHPAUtagCREATESTRUCTA@@@Z PROC ; CToolandRButtonGrid_ListCtrl::OnCreate, COMDAT
; _this$ = ecx

; 51   : {

  00000	55		 push	 ebp
  00001	8b ec		 mov	 ebp, esp
  00003	6a ff		 push	 -1
  00005	68 00 00 00 00	 push	 __ehhandler$?OnCreate@CToolandRButtonGrid_ListCtrl@@IAEHPAUtagCREATESTRUCTA@@@Z
  0000a	64 a1 00 00 00
	00		 mov	 eax, DWORD PTR fs:0
  00010	50		 push	 eax
  00011	53		 push	 ebx
  00012	56		 push	 esi
  00013	57		 push	 edi
  00014	a1 00 00 00 00	 mov	 eax, DWORD PTR ___security_cookie
  00019	33 c5		 xor	 eax, ebp
  0001b	50		 push	 eax
  0001c	8d 45 f4	 lea	 eax, DWORD PTR __$EHRec$[ebp]
  0001f	64 a3 00 00 00
	00		 mov	 DWORD PTR fs:0, eax
  00025	8b d9		 mov	 ebx, ecx

; 52   : 	if (CSuperGridCtrl::OnCreate(lpCreateStruct) == -1)

  00027	ff 75 08	 push	 DWORD PTR _lpCreateStruct$[ebp]
  0002a	e8 00 00 00 00	 call	 ?OnCreate@CSuperGridCtrl@@IAEHPAUtagCREATESTRUCTA@@@Z ; CSuperGridCtrl::OnCreate
  0002f	83 f8 ff	 cmp	 eax, -1
  00032	74 57		 je	 SHORT $LN5@OnCreate

; 53   : 		return -1;
; 54   : 
; 55   : 	if(m_image.m_hImageList == NULL)

  00034	83 bb f0 00 00
	00 00		 cmp	 DWORD PTR [ebx+240], 0
  0003b	75 7b		 jne	 SHORT $LN21@OnCreate

; 56   : 	{
; 57   : 		ML_SET_DEFAULT_RES();

  0003d	e8 00 00 00 00	 call	 ?AfxGetStaticModuleState@@YGPAVAFX_MODULE_STATE@@XZ ; AfxGetStaticModuleState
  00042	8b 78 08	 mov	 edi, DWORD PTR [eax+8]
; File C:\Program Files (x86)\Microsoft Visual Studio\2019\Community\VC\Tools\MSVC\14.29.30133\atlmfc\include\afxwin1.inl

; 25   : 		return afxCurrentResourceHandle; }

  00045	e8 00 00 00 00	 call	 ?AfxGetModuleState@@YGPAVAFX_MODULE_STATE@@XZ ; AfxGetModuleState
; File D:\git\src\IBK\IBK_DRFN\ProjSrc\SrcChartEx\ChartAddIn\ChartDesignPropertyAddIn\Include_Chart\Dll_Load\IMetaTable.h

; 1032 : 		m_hInstance = AfxGetResourceHandle();

  0004a	8b 70 0c	 mov	 esi, DWORD PTR [eax+12]
  0004d	89 75 08	 mov	 DWORD PTR ___mlrs__$2[ebp], esi
; File C:\Program Files (x86)\Microsoft Visual Studio\2019\Community\VC\Tools\MSVC\14.29.30133\atlmfc\include\afxwin1.inl

; 27   : 	{ ASSERT(hInstResource != NULL); afxCurrentResourceHandle = hInstResource; }

  00050	e8 00 00 00 00	 call	 ?AfxGetModuleState@@YGPAVAFX_MODULE_STATE@@XZ ; AfxGetModuleState
  00055	89 78 0c	 mov	 DWORD PTR [eax+12], edi
; File D:\git\src\IBK\IBK_DRFN\ProjSrc\SrcChartEx\ChartAddIn\ChartDesignPropertyAddIn\ChartDesignPropertyAddIn\ToolandRButtonGrid_ListCtrl.cpp

; 58   : 		if(!m_image.Create(IDB_FOLDERS,16,1,RGB(0, 255, 255)))

  00058	68 00 ff ff 00	 push	 16776960		; 00ffff00H
  0005d	6a 01		 push	 1
  0005f	6a 10		 push	 16			; 00000010H
  00061	68 58 1b 00 00	 push	 7000			; 00001b58H
  00066	8d 8b ec 00 00
	00		 lea	 ecx, DWORD PTR [ebx+236]
  0006c	c7 45 fc 00 00
	00 00		 mov	 DWORD PTR __$EHRec$[ebp+8], 0
  00073	e8 00 00 00 00	 call	 ?Create@CImageList@@QAEHIHHK@Z ; CImageList::Create
  00078	85 c0		 test	 eax, eax
  0007a	75 26		 jne	 SHORT $LN4@OnCreate
; File D:\git\src\IBK\IBK_DRFN\ProjSrc\SrcChartEx\ChartAddIn\ChartDesignPropertyAddIn\Include_Chart\Dll_Load\IMetaTable.h

; 1036 : 	{

  0007c	c7 45 fc 01 00
	00 00		 mov	 DWORD PTR __$EHRec$[ebp+8], 1
; File C:\Program Files (x86)\Microsoft Visual Studio\2019\Community\VC\Tools\MSVC\14.29.30133\atlmfc\include\afxwin1.inl

; 27   : 	{ ASSERT(hInstResource != NULL); afxCurrentResourceHandle = hInstResource; }

  00083	e8 00 00 00 00	 call	 ?AfxGetModuleState@@YGPAVAFX_MODULE_STATE@@XZ ; AfxGetModuleState
  00088	89 70 0c	 mov	 DWORD PTR [eax+12], esi
$LN5@OnCreate:
; File D:\git\src\IBK\IBK_DRFN\ProjSrc\SrcChartEx\ChartAddIn\ChartDesignPropertyAddIn\ChartDesignPropertyAddIn\ToolandRButtonGrid_ListCtrl.cpp

; 70   : }

  0008b	83 c8 ff	 or	 eax, -1
  0008e	8b 4d f4	 mov	 ecx, DWORD PTR __$EHRec$[ebp]
  00091	64 89 0d 00 00
	00 00		 mov	 DWORD PTR fs:0, ecx
  00098	59		 pop	 ecx
  00099	5f		 pop	 edi
  0009a	5e		 pop	 esi
  0009b	5b		 pop	 ebx
  0009c	8b e5		 mov	 esp, ebp
  0009e	5d		 pop	 ebp
  0009f	c2 04 00	 ret	 4
$LN4@OnCreate:
; File D:\git\src\IBK\IBK_DRFN\ProjSrc\SrcChartEx\ChartAddIn\ChartDesignPropertyAddIn\Include_Chart\Dll_Load\IMetaTable.h

; 1036 : 	{

  000a2	c7 45 fc 02 00
	00 00		 mov	 DWORD PTR __$EHRec$[ebp+8], 2
; File C:\Program Files (x86)\Microsoft Visual Studio\2019\Community\VC\Tools\MSVC\14.29.30133\atlmfc\include\afxwin1.inl

; 27   : 	{ ASSERT(hInstResource != NULL); afxCurrentResourceHandle = hInstResource; }

  000a9	e8 00 00 00 00	 call	 ?AfxGetModuleState@@YGPAVAFX_MODULE_STATE@@XZ ; AfxGetModuleState
; File D:\git\src\IBK\IBK_DRFN\ProjSrc\SrcChartEx\ChartAddIn\ChartDesignPropertyAddIn\Include_Chart\Dll_Load\IMetaTable.h

; 1038 : 	}

  000ae	c7 45 fc ff ff
	ff ff		 mov	 DWORD PTR __$EHRec$[ebp+8], -1
; File C:\Program Files (x86)\Microsoft Visual Studio\2019\Community\VC\Tools\MSVC\14.29.30133\atlmfc\include\afxwin1.inl

; 27   : 	{ ASSERT(hInstResource != NULL); afxCurrentResourceHandle = hInstResource; }

  000b5	89 70 0c	 mov	 DWORD PTR [eax+12], esi
$LN21@OnCreate:
; File D:\git\src\IBK\IBK_DRFN\ProjSrc\SrcChartEx\ChartAddIn\ChartDesignPropertyAddIn\ChartDesignPropertyAddIn\ToolandRButtonGrid_ListCtrl.cpp

; 62   : 	SetImageList(&m_image, LVSIL_SMALL);

  000b8	8d 83 ec 00 00
	00		 lea	 eax, DWORD PTR [ebx+236]
; File C:\Program Files (x86)\Microsoft Visual Studio\2019\Community\VC\Tools\MSVC\14.29.30133\atlmfc\include\afxwin1.inl

; 853  : 	{ return (this == NULL) ? NULL : m_hImageList; }

  000be	85 c0		 test	 eax, eax
  000c0	74 03		 je	 SHORT $LN30@OnCreate
$LN29@OnCreate:
  000c2	8b 40 04	 mov	 eax, DWORD PTR [eax+4]
$LN30@OnCreate:
; File C:\Program Files (x86)\Microsoft Visual Studio\2019\Community\VC\Tools\MSVC\14.29.30133\atlmfc\include\afxcmn.inl

; 153  : 	{ ASSERT(::IsWindow(m_hWnd)); return CImageList::FromHandle((HIMAGELIST) ::SendMessage(m_hWnd, LVM_SETIMAGELIST, nImageList, (LPARAM)pImageList->GetSafeHandle())); }

  000c5	8b 35 00 00 00
	00		 mov	 esi, DWORD PTR __imp__SendMessageA@16
  000cb	50		 push	 eax
  000cc	6a 01		 push	 1
  000ce	68 03 10 00 00	 push	 4099			; 00001003H
  000d3	ff 73 20	 push	 DWORD PTR [ebx+32]
  000d6	ff d6		 call	 esi
  000d8	50		 push	 eax
  000d9	e8 00 00 00 00	 call	 ?FromHandle@CImageList@@SGPAV1@PAU_IMAGELIST@@@Z ; CImageList::FromHandle

; 151  : 	{ ASSERT(::IsWindow(m_hWnd)); return CImageList::FromHandle((HIMAGELIST) ::SendMessage(m_hWnd, LVM_GETIMAGELIST, nImageList, 0L)); }

  000de	6a 00		 push	 0
  000e0	6a 01		 push	 1
  000e2	68 02 10 00 00	 push	 4098			; 00001002H
  000e7	ff 73 20	 push	 DWORD PTR [ebx+32]
  000ea	ff d6		 call	 esi
  000ec	50		 push	 eax
  000ed	e8 00 00 00 00	 call	 ?FromHandle@CImageList@@SGPAV1@PAU_IMAGELIST@@@Z ; CImageList::FromHandle
; File D:\git\src\IBK\IBK_DRFN\ProjSrc\SrcChartEx\ChartAddIn\ChartDesignPropertyAddIn\ChartDesignPropertyAddIn\ToolandRButtonGrid_ListCtrl.cpp

; 64   : 	if(pImageList)

  000f2	85 c0		 test	 eax, eax
  000f4	74 95		 je	 SHORT $LN5@OnCreate

; 65   : 		ImageList_GetIconSize(pImageList->m_hImageList, &m_cxImage, &m_cyImage);

  000f6	8d 8b 90 00 00
	00		 lea	 ecx, DWORD PTR [ebx+144]
  000fc	51		 push	 ecx
  000fd	8d 8b 8c 00 00
	00		 lea	 ecx, DWORD PTR [ebx+140]
  00103	51		 push	 ecx
  00104	ff 70 04	 push	 DWORD PTR [eax+4]
  00107	ff 15 00 00 00
	00		 call	 DWORD PTR __imp__ImageList_GetIconSize@12

; 66   : 	else
; 67   : 		return -1;	
; 68   : 
; 69   : 	return 0;

  0010d	33 c0		 xor	 eax, eax

; 70   : }

  0010f	8b 4d f4	 mov	 ecx, DWORD PTR __$EHRec$[ebp]
  00112	64 89 0d 00 00
	00 00		 mov	 DWORD PTR fs:0, ecx
  00119	59		 pop	 ecx
  0011a	5f		 pop	 edi
  0011b	5e		 pop	 esi
  0011c	5b		 pop	 ebx
  0011d	8b e5		 mov	 esp, ebp
  0011f	5d		 pop	 ebp
  00120	c2 04 00	 ret	 4
_TEXT	ENDS
;	COMDAT text$x
text$x	SEGMENT
__unwindfunclet$?OnCreate@CToolandRButtonGrid_ListCtrl@@IAEHPAUtagCREATESTRUCTA@@@Z$0:
  00000	8d 4d 08	 lea	 ecx, DWORD PTR ___mlrs__$2[ebp]
  00003	e9 00 00 00 00	 jmp	 ??1CMultiLanguageResourceSetter@@QAE@XZ ; CMultiLanguageResourceSetter::~CMultiLanguageResourceSetter
  00008	cc		 int	 3
  00009	cc		 int	 3
  0000a	cc		 int	 3
  0000b	cc		 int	 3
  0000c	cc		 int	 3
__ehhandler$?OnCreate@CToolandRButtonGrid_ListCtrl@@IAEHPAUtagCREATESTRUCTA@@@Z:
  0000d	90		 npad	 1
  0000e	90		 npad	 1
  0000f	8b 54 24 08	 mov	 edx, DWORD PTR [esp+8]
  00013	8d 42 0c	 lea	 eax, DWORD PTR [edx+12]
  00016	8b 4a f0	 mov	 ecx, DWORD PTR [edx-16]
  00019	33 c8		 xor	 ecx, eax
  0001b	e8 00 00 00 00	 call	 @__security_check_cookie@4
  00020	b8 00 00 00 00	 mov	 eax, OFFSET __ehfuncinfo$?OnCreate@CToolandRButtonGrid_ListCtrl@@IAEHPAUtagCREATESTRUCTA@@@Z
  00025	e9 00 00 00 00	 jmp	 ___CxxFrameHandler3
text$x	ENDS
?OnCreate@CToolandRButtonGrid_ListCtrl@@IAEHPAUtagCREATESTRUCTA@@@Z ENDP ; CToolandRButtonGrid_ListCtrl::OnCreate
; Function compile flags: /Ogtp
; File D:\git\src\IBK\IBK_DRFN\ProjSrc\SrcChartEx\ChartAddIn\ChartDesignPropertyAddIn\ChartDesignPropertyAddIn\ToolandRButtonGrid_ListCtrl.cpp
; File C:\Program Files (x86)\Microsoft Visual Studio\2019\Community\VC\Tools\MSVC\14.29.30133\atlmfc\include\afxwin2.inl
; File D:\git\src\IBK\IBK_DRFN\ProjSrc\SrcChartEx\ChartAddIn\ChartDesignPropertyAddIn\ChartDesignPropertyAddIn\ToolandRButtonGrid_ListCtrl.cpp
; File C:\Program Files (x86)\Microsoft Visual Studio\2019\Community\VC\Tools\MSVC\14.29.30133\atlmfc\include\afxwin2.inl
; File C:\Program Files (x86)\Microsoft Visual Studio\2019\Community\VC\Tools\MSVC\14.29.30133\atlmfc\include\afxwin1.inl
; File D:\git\src\IBK\IBK_DRFN\ProjSrc\SrcChartEx\ChartAddIn\ChartDesignPropertyAddIn\ChartDesignPropertyAddIn\ToolandRButtonGrid_ListCtrl.cpp
; File C:\Program Files (x86)\Microsoft Visual Studio\2019\Community\VC\Tools\MSVC\14.29.30133\atlmfc\include\afxcoll.inl
; File D:\git\src\IBK\IBK_DRFN\ProjSrc\SrcChartEx\ChartAddIn\ChartDesignPropertyAddIn\ChartDesignPropertyAddIn\ToolandRButtonGrid_ListCtrl.cpp
; File C:\Program Files (x86)\Microsoft Visual Studio\2019\Community\VC\Tools\MSVC\14.29.30133\atlmfc\include\afxcoll.inl
; File D:\git\src\IBK\IBK_DRFN\ProjSrc\SrcChartEx\ChartAddIn\ChartDesignPropertyAddIn\ChartDesignPropertyAddIn\ToolandRButtonGrid_ListCtrl.cpp
; File C:\Program Files (x86)\Microsoft Visual Studio\2019\Community\VC\Tools\MSVC\14.29.30133\atlmfc\include\afxwin1.inl
; File D:\git\src\IBK\IBK_DRFN\ProjSrc\SrcChartEx\ChartAddIn\ChartDesignPropertyAddIn\ChartDesignPropertyAddIn\ToolandRButtonGrid_ListCtrl.cpp
; File C:\Program Files (x86)\Microsoft Visual Studio\2019\Community\VC\Tools\MSVC\14.29.30133\atlmfc\include\afxwin2.inl
; File D:\git\src\IBK\IBK_DRFN\ProjSrc\SrcChartEx\ChartAddIn\ChartDesignPropertyAddIn\ChartDesignPropertyAddIn\ToolandRButtonGrid_ListCtrl.cpp
;	COMDAT ?CalcHorzExtent@CToolandRButtonGrid_ListCtrl@@IAEHPAVCWnd@@PAVCStringList@@@Z
_TEXT	SEGMENT
_size$1 = -12						; size = 8
_pOldFont$1$ = -4					; size = 4
_pWnd$ = 8						; size = 4
_str$2 = 12						; size = 4
_pList$ = 12						; size = 4
?CalcHorzExtent@CToolandRButtonGrid_ListCtrl@@IAEHPAVCWnd@@PAVCStringList@@@Z PROC ; CToolandRButtonGrid_ListCtrl::CalcHorzExtent, COMDAT
; _this$ = ecx

; 252  : {

  00000	55		 push	 ebp
  00001	8b ec		 mov	 ebp, esp
  00003	83 ec 0c	 sub	 esp, 12			; 0000000cH
  00006	53		 push	 ebx

; 253  : 	int nExtent=0;
; 254  : 	if(pWnd!=NULL)

  00007	8b 5d 08	 mov	 ebx, DWORD PTR _pWnd$[ebp]
  0000a	56		 push	 esi
  0000b	33 f6		 xor	 esi, esi
  0000d	85 db		 test	 ebx, ebx
  0000f	0f 84 99 00 00
	00		 je	 $LN38@CalcHorzEx
; File C:\Program Files (x86)\Microsoft Visual Studio\2019\Community\VC\Tools\MSVC\14.29.30133\atlmfc\include\afxwin2.inl

; 100  : 	{ ASSERT(::IsWindow(m_hWnd)); return CDC::FromHandle(::GetDC(m_hWnd)); }

  00015	57		 push	 edi
  00016	ff 73 20	 push	 DWORD PTR [ebx+32]
  00019	ff 15 00 00 00
	00		 call	 DWORD PTR __imp__GetDC@4
  0001f	50		 push	 eax
  00020	e8 00 00 00 00	 call	 ?FromHandle@CDC@@SGPAV1@PAUHDC__@@@Z ; CDC::FromHandle

; 32   : 	{ ASSERT(::IsWindow(m_hWnd)); return ::SendMessage(m_hWnd, message, wParam, lParam); }

  00025	56		 push	 esi
  00026	56		 push	 esi
  00027	6a 31		 push	 49			; 00000031H
  00029	ff 73 20	 push	 DWORD PTR [ebx+32]
; File D:\git\src\IBK\IBK_DRFN\ProjSrc\SrcChartEx\ChartAddIn\ChartDesignPropertyAddIn\ChartDesignPropertyAddIn\ToolandRButtonGrid_ListCtrl.cpp

; 256  : 		CDC* pDC = pWnd->GetDC();

  0002c	8b f8		 mov	 edi, eax
; File C:\Program Files (x86)\Microsoft Visual Studio\2019\Community\VC\Tools\MSVC\14.29.30133\atlmfc\include\afxwin2.inl

; 32   : 	{ ASSERT(::IsWindow(m_hWnd)); return ::SendMessage(m_hWnd, message, wParam, lParam); }

  0002e	ff 15 00 00 00
	00		 call	 DWORD PTR __imp__SendMessageA@16
; File C:\Program Files (x86)\Microsoft Visual Studio\2019\Community\VC\Tools\MSVC\14.29.30133\atlmfc\include\afxwin1.inl

; 151  : 	{ return (CFont*) CGdiObject::FromHandle(hFont); }

  00034	50		 push	 eax
  00035	e8 00 00 00 00	 call	 ?FromHandle@CGdiObject@@SGPAV1@PAX@Z ; CGdiObject::FromHandle
; File D:\git\src\IBK\IBK_DRFN\ProjSrc\SrcChartEx\ChartAddIn\ChartDesignPropertyAddIn\ChartDesignPropertyAddIn\ToolandRButtonGrid_ListCtrl.cpp

; 258  : 		CFont *pFont = CFont::FromHandle(hFont);			//this way I get to use this function..cool :)

  0003a	8b c8		 mov	 ecx, eax

; 259  : 		if(pFont!=NULL)										//ya what ever makes me happy,.right :}

  0003c	85 c9		 test	 ecx, ecx
  0003e	74 61		 je	 SHORT $LN5@CalcHorzEx

; 260  : 		{
; 261  : 			CFont* pOldFont = pDC->SelectObject(pFont);

  00040	8b 07		 mov	 eax, DWORD PTR [edi]
  00042	51		 push	 ecx
  00043	8b cf		 mov	 ecx, edi
  00045	ff 50 30	 call	 DWORD PTR [eax+48]
  00048	89 45 fc	 mov	 DWORD PTR _pOldFont$1$[ebp], eax

; 262  : 			CSize newExtent;
; 263  : 			POSITION pos = pList->GetHeadPosition();

  0004b	8b 45 0c	 mov	 eax, DWORD PTR _pList$[ebp]
  0004e	8b 58 04	 mov	 ebx, DWORD PTR [eax+4]

; 264  : 			while(pos != NULL)

  00051	85 db		 test	 ebx, ebx
  00053	74 3f		 je	 SHORT $LN3@CalcHorzEx
$LL2@CalcHorzEx:
; File C:\Program Files (x86)\Microsoft Visual Studio\2019\Community\VC\Tools\MSVC\14.29.30133\atlmfc\include\afxcoll.inl

; 501  : 	{ CNode* pNode = (CNode*) rPosition;

  00055	8b c3		 mov	 eax, ebx
; File D:\git\src\IBK\IBK_DRFN\ProjSrc\SrcChartEx\ChartAddIn\ChartDesignPropertyAddIn\ChartDesignPropertyAddIn\ToolandRButtonGrid_ListCtrl.cpp

; 266  : 				CString str(pList->GetNext(pos));

  00057	8d 4d 0c	 lea	 ecx, DWORD PTR _str$2[ebp]
; File C:\Program Files (x86)\Microsoft Visual Studio\2019\Community\VC\Tools\MSVC\14.29.30133\atlmfc\include\afxcoll.inl

; 505  : 		rPosition = (POSITION) pNode->pNext;

  0005a	8b 1b		 mov	 ebx, DWORD PTR [ebx]

; 506  : 		return pNode->data; }

  0005c	83 c0 08	 add	 eax, 8
; File D:\git\src\IBK\IBK_DRFN\ProjSrc\SrcChartEx\ChartAddIn\ChartDesignPropertyAddIn\ChartDesignPropertyAddIn\ToolandRButtonGrid_ListCtrl.cpp

; 266  : 				CString str(pList->GetNext(pos));

  0005f	50		 push	 eax
  00060	ff 15 00 00 00
	00		 call	 DWORD PTR __imp_??0?$CStringT@DV?$StrTraitMFC_DLL@DV?$ChTraitsCRT@D@ATL@@@@@ATL@@QAE@ABV01@@Z
; File C:\Program Files (x86)\Microsoft Visual Studio\2019\Community\VC\Tools\MSVC\14.29.30133\atlmfc\include\afxwin1.inl

; 639  : 		VERIFY(::GetTextExtentPoint32(m_hAttribDC, str, (int)str.GetLength(), &size));

  00066	8d 45 f4	 lea	 eax, DWORD PTR _size$1[ebp]
  00069	50		 push	 eax
  0006a	8b 45 0c	 mov	 eax, DWORD PTR _str$2[ebp]
  0006d	ff 70 f4	 push	 DWORD PTR [eax-12]
  00070	50		 push	 eax
  00071	ff 77 08	 push	 DWORD PTR [edi+8]
  00074	ff 15 00 00 00
	00		 call	 DWORD PTR __imp__GetTextExtentPoint32A@16
; File D:\git\src\IBK\IBK_DRFN\ProjSrc\SrcChartEx\ChartAddIn\ChartDesignPropertyAddIn\ChartDesignPropertyAddIn\ToolandRButtonGrid_ListCtrl.cpp

; 267  : 				newExtent = pDC->GetTextExtent(str);

  0007a	8b 45 f4	 mov	 eax, DWORD PTR _size$1[ebp]

; 268  : 				newExtent.cx += 6;
; 269  : 				if (newExtent.cx > nExtent)
; 270  : 				{
; 271  : 					nExtent = newExtent.cx;
; 272  : 				}
; 273  : 			}

  0007d	8d 4d 0c	 lea	 ecx, DWORD PTR _str$2[ebp]
  00080	83 c0 06	 add	 eax, 6
  00083	3b c6		 cmp	 eax, esi
  00085	0f 4e c6	 cmovle	 eax, esi
  00088	8b f0		 mov	 esi, eax
  0008a	ff 15 00 00 00
	00		 call	 DWORD PTR __imp_??1?$CStringT@DV?$StrTraitMFC_DLL@DV?$ChTraitsCRT@D@ATL@@@@@ATL@@QAE@XZ
  00090	85 db		 test	 ebx, ebx
  00092	75 c1		 jne	 SHORT $LL2@CalcHorzEx
$LN3@CalcHorzEx:

; 274  : 			pDC->SelectObject(pOldFont);

  00094	8b 17		 mov	 edx, DWORD PTR [edi]
  00096	8b cf		 mov	 ecx, edi
  00098	ff 75 fc	 push	 DWORD PTR _pOldFont$1$[ebp]
  0009b	ff 52 30	 call	 DWORD PTR [edx+48]
  0009e	8b 5d 08	 mov	 ebx, DWORD PTR _pWnd$[ebp]
$LN5@CalcHorzEx:
; File C:\Program Files (x86)\Microsoft Visual Studio\2019\Community\VC\Tools\MSVC\14.29.30133\atlmfc\include\afxwin2.inl

; 104  : 	{ ASSERT(::IsWindow(m_hWnd)); return ::ReleaseDC(m_hWnd, pDC->m_hDC); }

  000a1	ff 77 04	 push	 DWORD PTR [edi+4]
  000a4	ff 73 20	 push	 DWORD PTR [ebx+32]
  000a7	ff 15 00 00 00
	00		 call	 DWORD PTR __imp__ReleaseDC@8
; File D:\git\src\IBK\IBK_DRFN\ProjSrc\SrcChartEx\ChartAddIn\ChartDesignPropertyAddIn\ChartDesignPropertyAddIn\ToolandRButtonGrid_ListCtrl.cpp

; 278  : 	return nExtent;

  000ad	5f		 pop	 edi
$LN38@CalcHorzEx:

; 279  : }

  000ae	8b c6		 mov	 eax, esi
  000b0	5e		 pop	 esi
  000b1	5b		 pop	 ebx
  000b2	8b e5		 mov	 esp, ebp
  000b4	5d		 pop	 ebp
  000b5	c2 08 00	 ret	 8
?CalcHorzExtent@CToolandRButtonGrid_ListCtrl@@IAEHPAVCWnd@@PAVCStringList@@@Z ENDP ; CToolandRButtonGrid_ListCtrl::CalcHorzExtent
_TEXT	ENDS
; Function compile flags: /Ogtp
; File D:\git\src\IBK\IBK_DRFN\ProjSrc\SrcChartEx\ChartAddIn\ChartDesignPropertyAddIn\ChartDesignPropertyAddIn\ToolandRButtonGrid_ListCtrl.cpp
; File C:\Program Files (x86)\Microsoft Visual Studio\2019\Community\VC\Tools\MSVC\14.29.30133\atlmfc\include\afxcmn.inl
; File D:\git\src\IBK\IBK_DRFN\ProjSrc\SrcChartEx\ChartAddIn\ChartDesignPropertyAddIn\ChartDesignPropertyAddIn\ToolandRButtonGrid_ListCtrl.cpp
; File C:\Program Files (x86)\Microsoft Visual Studio\2019\Community\VC\Tools\MSVC\14.29.30133\atlmfc\include\atltypes.h
; File C:\Program Files (x86)\Microsoft Visual Studio\2019\Community\VC\Tools\MSVC\14.29.30133\atlmfc\include\afxcmn.inl
; File D:\git\src\IBK\IBK_DRFN\ProjSrc\SrcChartEx\ChartAddIn\ChartDesignPropertyAddIn\ChartDesignPropertyAddIn\ToolandRButtonGrid_ListCtrl.cpp
; File C:\Program Files (x86)\Microsoft Visual Studio\2019\Community\VC\Tools\MSVC\14.29.30133\atlmfc\include\afxwin2.inl
; File C:\Program Files (x86)\Microsoft Visual Studio\2019\Community\VC\Tools\MSVC\14.29.30133\atlmfc\include\atltypes.h
; File C:\Program Files (x86)\Microsoft Visual Studio\2019\Community\VC\Tools\MSVC\14.29.30133\atlmfc\include\afxwin2.inl
; File D:\git\src\IBK\IBK_DRFN\ProjSrc\SrcChartEx\ChartAddIn\ChartDesignPropertyAddIn\ChartDesignPropertyAddIn\ToolandRButtonGrid_ListCtrl.cpp
; File C:\Program Files (x86)\Microsoft Visual Studio\2019\Community\VC\Tools\MSVC\14.29.30133\atlmfc\include\afxcmn.inl
; File D:\git\src\IBK\IBK_DRFN\ProjSrc\SrcChartEx\ChartAddIn\ChartDesignPropertyAddIn\ChartDesignPropertyAddIn\ToolandRButtonGrid_ListCtrl.cpp
; File C:\Program Files (x86)\Microsoft Visual Studio\2019\Community\VC\Tools\MSVC\14.29.30133\atlmfc\include\afxcmn.inl
; File D:\git\src\IBK\IBK_DRFN\ProjSrc\SrcChartEx\ChartAddIn\ChartDesignPropertyAddIn\ChartDesignPropertyAddIn\ToolandRButtonGrid_ListCtrl.cpp
; File C:\Program Files (x86)\Microsoft Visual Studio\2019\Community\VC\Tools\MSVC\14.29.30133\atlmfc\include\afx.inl
; File D:\git\src\IBK\IBK_DRFN\ProjSrc\SrcChartEx\ChartAddIn\ChartDesignPropertyAddIn\ChartDesignPropertyAddIn\ToolandRButtonGrid_ListCtrl.cpp
; File C:\Program Files (x86)\Microsoft Visual Studio\2019\Community\VC\Tools\MSVC\14.29.30133\atlmfc\include\afx.inl
; File D:\git\src\IBK\IBK_DRFN\ProjSrc\SrcChartEx\ChartAddIn\ChartDesignPropertyAddIn\ChartDesignPropertyAddIn\ToolandRButtonGrid_ListCtrl.cpp
; File C:\Program Files (x86)\Microsoft Visual Studio\2019\Community\VC\Tools\MSVC\14.29.30133\atlmfc\include\afxwin2.inl
; File D:\git\src\IBK\IBK_DRFN\ProjSrc\SrcChartEx\ChartAddIn\ChartDesignPropertyAddIn\ChartDesignPropertyAddIn\ToolandRButtonGrid_ListCtrl.cpp
; File C:\Program Files (x86)\Microsoft Visual Studio\2019\Community\VC\Tools\MSVC\14.29.30133\atlmfc\include\afxwin2.inl
; File D:\git\src\IBK\IBK_DRFN\ProjSrc\SrcChartEx\ChartAddIn\ChartDesignPropertyAddIn\ChartDesignPropertyAddIn\ToolandRButtonGrid_ListCtrl.cpp
; File C:\Program Files (x86)\Microsoft Visual Studio\2019\Community\VC\Tools\MSVC\14.29.30133\atlmfc\include\afxwin2.inl
; File C:\Program Files (x86)\Microsoft Visual Studio\2019\Community\VC\Tools\MSVC\14.29.30133\atlmfc\include\afxwin1.inl
; File D:\git\src\IBK\IBK_DRFN\ProjSrc\SrcChartEx\ChartAddIn\ChartDesignPropertyAddIn\ChartDesignPropertyAddIn\ToolandRButtonGrid_ListCtrl.cpp
; File C:\Program Files (x86)\Microsoft Visual Studio\2019\Community\VC\Tools\MSVC\14.29.30133\atlmfc\include\afxcoll.inl
; File D:\git\src\IBK\IBK_DRFN\ProjSrc\SrcChartEx\ChartAddIn\ChartDesignPropertyAddIn\ChartDesignPropertyAddIn\ToolandRButtonGrid_ListCtrl.cpp
; File C:\Program Files (x86)\Microsoft Visual Studio\2019\Community\VC\Tools\MSVC\14.29.30133\atlmfc\include\afxcoll.inl
; File D:\git\src\IBK\IBK_DRFN\ProjSrc\SrcChartEx\ChartAddIn\ChartDesignPropertyAddIn\ChartDesignPropertyAddIn\ToolandRButtonGrid_ListCtrl.cpp
; File C:\Program Files (x86)\Microsoft Visual Studio\2019\Community\VC\Tools\MSVC\14.29.30133\atlmfc\include\afxwin1.inl
; File D:\git\src\IBK\IBK_DRFN\ProjSrc\SrcChartEx\ChartAddIn\ChartDesignPropertyAddIn\ChartDesignPropertyAddIn\ToolandRButtonGrid_ListCtrl.cpp
; File C:\Program Files (x86)\Microsoft Visual Studio\2019\Community\VC\Tools\MSVC\14.29.30133\atlmfc\include\afxwin2.inl
; File D:\git\src\IBK\IBK_DRFN\ProjSrc\SrcChartEx\ChartAddIn\ChartDesignPropertyAddIn\ChartDesignPropertyAddIn\ToolandRButtonGrid_ListCtrl.cpp
; File C:\Program Files (x86)\Microsoft Visual Studio\2019\Community\VC\Tools\MSVC\14.29.30133\atlmfc\include\afxwin2.inl
; File D:\git\src\IBK\IBK_DRFN\ProjSrc\SrcChartEx\ChartAddIn\ChartDesignPropertyAddIn\ChartDesignPropertyAddIn\ToolandRButtonGrid_ListCtrl.cpp
;	COMDAT ?ShowList@CToolandRButtonGrid_ListCtrl@@IAEPAVCComboBox@@HHPAVCStringList@@@Z
_TEXT	SEGMENT
_size$3 = -80						; size = 8
_pOldFont$1$ = -72					; size = 4
$T4 = -72						; size = 4
_strFind$ = -68						; size = 4
_str$5 = -64						; size = 4
$T6 = -60						; size = 4
_lstItems$GSCopy$1$ = -56				; size = 4
_nCol$GSCopy$1$ = -52					; size = 4
$T7 = -52						; size = 4
_rcClient$ = -48					; size = 16
_rect$ = -32						; size = 16
__$ArrayPad$ = -16					; size = 4
__$EHRec$ = -12						; size = 12
_nItem$ = 8						; size = 4
_nCol$ = 12						; size = 4
_lstItems$ = 16						; size = 4
?ShowList@CToolandRButtonGrid_ListCtrl@@IAEPAVCComboBox@@HHPAVCStringList@@@Z PROC ; CToolandRButtonGrid_ListCtrl::ShowList, COMDAT
; _this$ = ecx

; 207  : {

  00000	55		 push	 ebp
  00001	8b ec		 mov	 ebp, esp
  00003	6a ff		 push	 -1
  00005	68 00 00 00 00	 push	 __ehhandler$?ShowList@CToolandRButtonGrid_ListCtrl@@IAEPAVCComboBox@@HHPAVCStringList@@@Z
  0000a	64 a1 00 00 00
	00		 mov	 eax, DWORD PTR fs:0
  00010	50		 push	 eax
  00011	83 ec 44	 sub	 esp, 68			; 00000044H
  00014	a1 00 00 00 00	 mov	 eax, DWORD PTR ___security_cookie
  00019	33 c5		 xor	 eax, ebp
  0001b	89 45 f0	 mov	 DWORD PTR __$ArrayPad$[ebp], eax
  0001e	53		 push	 ebx
  0001f	56		 push	 esi
  00020	57		 push	 edi
  00021	50		 push	 eax
  00022	8d 45 f4	 lea	 eax, DWORD PTR __$EHRec$[ebp]
  00025	64 a3 00 00 00
	00		 mov	 DWORD PTR fs:0, eax
  0002b	8b f9		 mov	 edi, ecx
  0002d	8b 45 0c	 mov	 eax, DWORD PTR _nCol$[ebp]
  00030	8b 5d 08	 mov	 ebx, DWORD PTR _nItem$[ebp]
  00033	89 45 cc	 mov	 DWORD PTR _nCol$GSCopy$1$[ebp], eax
  00036	8b 45 10	 mov	 eax, DWORD PTR _lstItems$[ebp]

; 208  : 	if(GetItemText(nItem, 0).Compare( _LTEXT4( C4_ZOOMIN_ZOOMOUT)) == 0) 

  00039	6a 00		 push	 0
  0003b	89 45 c8	 mov	 DWORD PTR _lstItems$GSCopy$1$[ebp], eax
  0003e	8d 45 c4	 lea	 eax, DWORD PTR $T6[ebp]
  00041	53		 push	 ebx
  00042	50		 push	 eax
  00043	e8 00 00 00 00	 call	 ?GetItemText@CListCtrl@@QBE?AV?$CStringT@DV?$StrTraitMFC_DLL@DV?$ChTraitsCRT@D@ATL@@@@@ATL@@HH@Z ; CListCtrl::GetItemText
  00048	8b f0		 mov	 esi, eax
  0004a	8b 0d 54 00 00
	00		 mov	 ecx, DWORD PTR ?g_iMetaTable@@3VIMetaTable@@A+84
  00050	6a 00		 push	 0
  00052	c7 45 fc 00 00
	00 00		 mov	 DWORD PTR __$EHRec$[ebp+8], 0
  00059	ff b1 40 06 00
	00		 push	 DWORD PTR [ecx+1600]
  0005f	b9 00 00 00 00	 mov	 ecx, OFFSET ?g_iMetaTable@@3VIMetaTable@@A ; g_iMetaTable
  00064	6a 04		 push	 4
  00066	ff b7 40 01 00
	00		 push	 DWORD PTR [edi+320]
  0006c	e8 00 00 00 00	 call	 ?GetLanguageText@IMetaTable@@QAEPBDPAUHWND__@@W4E_CODEPAGE@1@PBDH@Z ; IMetaTable::GetLanguageText
  00071	50		 push	 eax
  00072	8b ce		 mov	 ecx, esi
  00074	ff 15 00 00 00
	00		 call	 DWORD PTR __imp_?Compare@?$CStringT@DV?$StrTraitMFC_DLL@DV?$ChTraitsCRT@D@ATL@@@@@ATL@@QBEHPBD@Z
  0007a	8d 4d c4	 lea	 ecx, DWORD PTR $T6[ebp]
  0007d	c7 45 fc ff ff
	ff ff		 mov	 DWORD PTR __$EHRec$[ebp+8], -1
  00084	8b f0		 mov	 esi, eax
  00086	ff 15 00 00 00
	00		 call	 DWORD PTR __imp_??1?$CStringT@DV?$StrTraitMFC_DLL@DV?$ChTraitsCRT@D@ATL@@@@@ATL@@QAE@XZ
  0008c	85 f6		 test	 esi, esi
  0008e	8b 75 cc	 mov	 esi, DWORD PTR _nCol$GSCopy$1$[ebp]
  00091	75 0c		 jne	 SHORT $LN2@ShowList

; 209  : 		SetComboListWhen_Extension_Recuction_Item(nItem, nCol, lstItems);

  00093	ff 75 c8	 push	 DWORD PTR _lstItems$GSCopy$1$[ebp]
  00096	8b cf		 mov	 ecx, edi
  00098	56		 push	 esi
  00099	53		 push	 ebx
  0009a	e8 00 00 00 00	 call	 ?SetComboListWhen_Extension_Recuction_Item@CToolandRButtonGrid_ListCtrl@@AAEXHHPAVCStringList@@@Z ; CToolandRButtonGrid_ListCtrl::SetComboListWhen_Extension_Recuction_Item
$LN2@ShowList:

; 211  : 	CString strFind = GetItemText(nItem, nCol);

  0009f	56		 push	 esi
  000a0	53		 push	 ebx
  000a1	8d 45 bc	 lea	 eax, DWORD PTR _strFind$[ebp]
  000a4	8b cf		 mov	 ecx, edi
  000a6	50		 push	 eax
  000a7	e8 00 00 00 00	 call	 ?GetItemText@CListCtrl@@QBE?AV?$CStringT@DV?$StrTraitMFC_DLL@DV?$ChTraitsCRT@D@ATL@@@@@ATL@@HH@Z ; CListCtrl::GetItemText
; File C:\Program Files (x86)\Microsoft Visual Studio\2019\Community\VC\Tools\MSVC\14.29.30133\atlmfc\include\afxcmn.inl

; 193  : 	{ ASSERT(::IsWindow(m_hWnd)); return (BOOL) ::SendMessage(m_hWnd, LVM_ENSUREVISIBLE, nItem, MAKELPARAM(bPartialOK, 0)); }

  000ac	6a 01		 push	 1
  000ae	53		 push	 ebx
  000af	68 13 10 00 00	 push	 4115			; 00001013H
  000b4	ff 77 20	 push	 DWORD PTR [edi+32]
  000b7	0f 57 c0	 xorps	 xmm0, xmm0
; File D:\git\src\IBK\IBK_DRFN\ProjSrc\SrcChartEx\ChartAddIn\ChartDesignPropertyAddIn\ChartDesignPropertyAddIn\ToolandRButtonGrid_ListCtrl.cpp

; 211  : 	CString strFind = GetItemText(nItem, nCol);

  000ba	c7 45 fc 01 00
	00 00		 mov	 DWORD PTR __$EHRec$[ebp+8], 1
; File C:\Program Files (x86)\Microsoft Visual Studio\2019\Community\VC\Tools\MSVC\14.29.30133\atlmfc\include\atltypes.h

; 528  : 	left = 0;

  000c1	0f 11 45 e0	 movups	 XMMWORD PTR _rect$[ebp], xmm0
; File C:\Program Files (x86)\Microsoft Visual Studio\2019\Community\VC\Tools\MSVC\14.29.30133\atlmfc\include\afxcmn.inl

; 193  : 	{ ASSERT(::IsWindow(m_hWnd)); return (BOOL) ::SendMessage(m_hWnd, LVM_ENSUREVISIBLE, nItem, MAKELPARAM(bPartialOK, 0)); }

  000c5	ff 15 00 00 00
	00		 call	 DWORD PTR __imp__SendMessageA@16
; File D:\git\src\IBK\IBK_DRFN\ProjSrc\SrcChartEx\ChartAddIn\ChartDesignPropertyAddIn\ChartDesignPropertyAddIn\ToolandRButtonGrid_ListCtrl.cpp

; 216  : 	if( !EnsureVisible(nItem, TRUE)) return NULL;

  000cb	85 c0		 test	 eax, eax
  000cd	75 07		 jne	 SHORT $LN3@ShowList
  000cf	33 f6		 xor	 esi, esi
  000d1	e9 ab 01 00 00	 jmp	 $LN13@ShowList
$LN3@ShowList:

; 217  : 	GetSubItemRect(nItem, nCol, LVIR_BOUNDS, rect);

  000d6	8d 45 e0	 lea	 eax, DWORD PTR _rect$[ebp]
  000d9	8b cf		 mov	 ecx, edi
  000db	50		 push	 eax
  000dc	6a 00		 push	 0
  000de	56		 push	 esi
  000df	53		 push	 ebx
  000e0	e8 00 00 00 00	 call	 ?GetSubItemRect@CListCtrl@@QBEHHHHAAVCRect@@@Z ; CListCtrl::GetSubItemRect
; File C:\Program Files (x86)\Microsoft Visual Studio\2019\Community\VC\Tools\MSVC\14.29.30133\atlmfc\include\afxwin2.inl

; 86   : 	{ ASSERT(::IsWindow(m_hWnd)); ::GetClientRect(m_hWnd, lpRect); }

  000e5	8d 45 d0	 lea	 eax, DWORD PTR _rcClient$[ebp]
  000e8	0f 57 c0	 xorps	 xmm0, xmm0
  000eb	50		 push	 eax
  000ec	ff 77 20	 push	 DWORD PTR [edi+32]
; File C:\Program Files (x86)\Microsoft Visual Studio\2019\Community\VC\Tools\MSVC\14.29.30133\atlmfc\include\atltypes.h

; 528  : 	left = 0;

  000ef	0f 11 45 d0	 movups	 XMMWORD PTR _rcClient$[ebp], xmm0
; File C:\Program Files (x86)\Microsoft Visual Studio\2019\Community\VC\Tools\MSVC\14.29.30133\atlmfc\include\afxwin2.inl

; 86   : 	{ ASSERT(::IsWindow(m_hWnd)); ::GetClientRect(m_hWnd, lpRect); }

  000f3	ff 15 00 00 00
	00		 call	 DWORD PTR __imp__GetClientRect@8
; File D:\git\src\IBK\IBK_DRFN\ProjSrc\SrcChartEx\ChartAddIn\ChartDesignPropertyAddIn\ChartDesignPropertyAddIn\ToolandRButtonGrid_ListCtrl.cpp

; 221  : 	if( offset + rect.left < 0 || offset + rect.left > rcClient.right )

  000f9	8b 75 e0	 mov	 esi, DWORD PTR _rect$[ebp]
  000fc	85 f6		 test	 esi, esi
  000fe	78 05		 js	 SHORT $LN5@ShowList
  00100	3b 75 d8	 cmp	 esi, DWORD PTR _rcClient$[ebp+8]
  00103	7e 14		 jle	 SHORT $LN4@ShowList
$LN5@ShowList:
; File C:\Program Files (x86)\Microsoft Visual Studio\2019\Community\VC\Tools\MSVC\14.29.30133\atlmfc\include\afxcmn.inl

; 195  : 	{ ASSERT(::IsWindow(m_hWnd)); return (BOOL) ::SendMessage(m_hWnd, LVM_SCROLL, size.cx, size.cy); }

  00105	6a 00		 push	 0
  00107	56		 push	 esi
  00108	68 14 10 00 00	 push	 4116			; 00001014H
  0010d	ff 77 20	 push	 DWORD PTR [edi+32]
  00110	ff 15 00 00 00
	00		 call	 DWORD PTR __imp__SendMessageA@16
; File D:\git\src\IBK\IBK_DRFN\ProjSrc\SrcChartEx\ChartAddIn\ChartDesignPropertyAddIn\ChartDesignPropertyAddIn\ToolandRButtonGrid_ListCtrl.cpp

; 227  : 		rect.left -= size.cx;

  00116	29 75 e0	 sub	 DWORD PTR _rect$[ebp], esi
$LN4@ShowList:
; File C:\Program Files (x86)\Microsoft Visual Studio\2019\Community\VC\Tools\MSVC\14.29.30133\atlmfc\include\afxcmn.inl

; 213  : 	{ ASSERT(::IsWindow(m_hWnd)); return (int) ::SendMessage(m_hWnd, LVM_GETCOLUMNWIDTH, nCol, 0); }

  00119	8b 75 cc	 mov	 esi, DWORD PTR _nCol$GSCopy$1$[ebp]
  0011c	6a 00		 push	 0
  0011e	56		 push	 esi
  0011f	68 1d 10 00 00	 push	 4125			; 0000101dH
  00124	ff 77 20	 push	 DWORD PTR [edi+32]
  00127	ff 15 00 00 00
	00		 call	 DWORD PTR __imp__SendMessageA@16
; File D:\git\src\IBK\IBK_DRFN\ProjSrc\SrcChartEx\ChartAddIn\ChartDesignPropertyAddIn\ChartDesignPropertyAddIn\ToolandRButtonGrid_ListCtrl.cpp

; 231  : 	rect.right = rect.left + GetColumnWidth(nCol);

  0012d	8b 4d e0	 mov	 ecx, DWORD PTR _rect$[ebp]
  00130	03 c8		 add	 ecx, eax

; 233  : 	   rect.right = rcClient.right;
; 234  : 	//basic code end
; 235  : 
; 236  : 	rect.bottom += 10 * rect.Height();//dropdown area

  00132	8b 45 e4	 mov	 eax, DWORD PTR _rect$[ebp+4]
  00135	3b 4d d8	 cmp	 ecx, DWORD PTR _rcClient$[ebp+8]
; File C:\Program Files (x86)\Microsoft Visual Studio\2019\Community\VC\Tools\MSVC\14.29.30133\atlmfc\include\afx.inl

; 116  : 	{ return ::operator new(nSize); }

  00138	68 a8 00 00 00	 push	 168			; 000000a8H
; File D:\git\src\IBK\IBK_DRFN\ProjSrc\SrcChartEx\ChartAddIn\ChartDesignPropertyAddIn\ChartDesignPropertyAddIn\ToolandRButtonGrid_ListCtrl.cpp

; 232  : 	if(rect.right > rcClient.right) 

  0013d	0f 4f 4d d8	 cmovg	 ecx, DWORD PTR _rcClient$[ebp+8]
  00141	89 4d e8	 mov	 DWORD PTR _rect$[ebp+8], ecx

; 233  : 	   rect.right = rcClient.right;
; 234  : 	//basic code end
; 235  : 
; 236  : 	rect.bottom += 10 * rect.Height();//dropdown area

  00144	8d 0c 80	 lea	 ecx, DWORD PTR [eax+eax*4]
  00147	6b 45 ec 0b	 imul	 eax, DWORD PTR _rect$[ebp+12], 11
  0014b	03 c9		 add	 ecx, ecx
  0014d	2b c1		 sub	 eax, ecx
  0014f	89 45 ec	 mov	 DWORD PTR _rect$[ebp+12], eax
; File C:\Program Files (x86)\Microsoft Visual Studio\2019\Community\VC\Tools\MSVC\14.29.30133\atlmfc\include\afx.inl

; 116  : 	{ return ::operator new(nSize); }

  00152	e8 00 00 00 00	 call	 ??2@YAPAXI@Z		; operator new
  00157	83 c4 04	 add	 esp, 4
; File D:\git\src\IBK\IBK_DRFN\ProjSrc\SrcChartEx\ChartAddIn\ChartDesignPropertyAddIn\ChartDesignPropertyAddIn\ToolandRButtonGrid_ListCtrl.cpp

; 239  : 	CComboBox *pList = new CComboInListView(nItem, nCol, lstItems);

  0015a	89 45 b8	 mov	 DWORD PTR $T4[ebp], eax
  0015d	c6 45 fc 02	 mov	 BYTE PTR __$EHRec$[ebp+8], 2
  00161	85 c0		 test	 eax, eax
  00163	74 13		 je	 SHORT $LN8@ShowList
  00165	ff 75 c8	 push	 DWORD PTR _lstItems$GSCopy$1$[ebp]
  00168	8b c8		 mov	 ecx, eax
  0016a	56		 push	 esi
  0016b	53		 push	 ebx
  0016c	e8 00 00 00 00	 call	 ??0CComboInListView@@QAE@HHPAVCStringList@@@Z ; CComboInListView::CComboInListView
  00171	8b f0		 mov	 esi, eax
  00173	89 45 cc	 mov	 DWORD PTR $T7[ebp], eax
  00176	eb 05		 jmp	 SHORT $LN9@ShowList
$LN8@ShowList:
  00178	33 f6		 xor	 esi, esi
  0017a	89 75 cc	 mov	 DWORD PTR $T7[ebp], esi
$LN9@ShowList:

; 240  : 	pList->Create(dwStyle, rect, this, IDC_COMBOBOXINLISTVIEW);

  0017d	8b 06		 mov	 eax, DWORD PTR [esi]
  0017f	8d 4d e0	 lea	 ecx, DWORD PTR _rect$[ebp]
  00182	68 35 12 00 00	 push	 4661			; 00001235H
  00187	57		 push	 edi
  00188	51		 push	 ecx
  00189	68 03 08 30 50	 push	 1345325059		; 50300803H
  0018e	8b ce		 mov	 ecx, esi
  00190	c6 45 fc 01	 mov	 BYTE PTR __$EHRec$[ebp+8], 1
  00194	ff 90 6c 01 00
	00		 call	 DWORD PTR [eax+364]

; 241  : 	pList->ModifyStyleEx(0,WS_EX_CLIENTEDGE);//can we tell at all

  0019a	6a 00		 push	 0
  0019c	68 00 02 00 00	 push	 512			; 00000200H
  001a1	6a 00		 push	 0
  001a3	8b ce		 mov	 ecx, esi
  001a5	e8 00 00 00 00	 call	 ?ModifyStyleEx@CWnd@@QAEHKKI@Z ; CWnd::ModifyStyleEx
; File C:\Program Files (x86)\Microsoft Visual Studio\2019\Community\VC\Tools\MSVC\14.29.30133\atlmfc\include\afxwin2.inl

; 100  : 	{ ASSERT(::IsWindow(m_hWnd)); return CDC::FromHandle(::GetDC(m_hWnd)); }

  001aa	ff 76 20	 push	 DWORD PTR [esi+32]
; File D:\git\src\IBK\IBK_DRFN\ProjSrc\SrcChartEx\ChartAddIn\ChartDesignPropertyAddIn\ChartDesignPropertyAddIn\ToolandRButtonGrid_ListCtrl.cpp

; 253  : 	int nExtent=0;

  001ad	33 ff		 xor	 edi, edi
; File C:\Program Files (x86)\Microsoft Visual Studio\2019\Community\VC\Tools\MSVC\14.29.30133\atlmfc\include\afxwin2.inl

; 100  : 	{ ASSERT(::IsWindow(m_hWnd)); return CDC::FromHandle(::GetDC(m_hWnd)); }

  001af	ff 15 00 00 00
	00		 call	 DWORD PTR __imp__GetDC@4
  001b5	50		 push	 eax
  001b6	e8 00 00 00 00	 call	 ?FromHandle@CDC@@SGPAV1@PAUHDC__@@@Z ; CDC::FromHandle

; 32   : 	{ ASSERT(::IsWindow(m_hWnd)); return ::SendMessage(m_hWnd, message, wParam, lParam); }

  001bb	57		 push	 edi
  001bc	57		 push	 edi
  001bd	6a 31		 push	 49			; 00000031H
  001bf	ff 76 20	 push	 DWORD PTR [esi+32]
; File D:\git\src\IBK\IBK_DRFN\ProjSrc\SrcChartEx\ChartAddIn\ChartDesignPropertyAddIn\ChartDesignPropertyAddIn\ToolandRButtonGrid_ListCtrl.cpp

; 256  : 		CDC* pDC = pWnd->GetDC();

  001c2	8b d8		 mov	 ebx, eax
; File C:\Program Files (x86)\Microsoft Visual Studio\2019\Community\VC\Tools\MSVC\14.29.30133\atlmfc\include\afxwin2.inl

; 32   : 	{ ASSERT(::IsWindow(m_hWnd)); return ::SendMessage(m_hWnd, message, wParam, lParam); }

  001c4	ff 15 00 00 00
	00		 call	 DWORD PTR __imp__SendMessageA@16
; File C:\Program Files (x86)\Microsoft Visual Studio\2019\Community\VC\Tools\MSVC\14.29.30133\atlmfc\include\afxwin1.inl

; 151  : 	{ return (CFont*) CGdiObject::FromHandle(hFont); }

  001ca	50		 push	 eax
  001cb	e8 00 00 00 00	 call	 ?FromHandle@CGdiObject@@SGPAV1@PAX@Z ; CGdiObject::FromHandle
; File D:\git\src\IBK\IBK_DRFN\ProjSrc\SrcChartEx\ChartAddIn\ChartDesignPropertyAddIn\ChartDesignPropertyAddIn\ToolandRButtonGrid_ListCtrl.cpp

; 259  : 		if(pFont!=NULL)										//ya what ever makes me happy,.right :}

  001d0	85 c0		 test	 eax, eax
  001d2	74 68		 je	 SHORT $LN36@ShowList

; 260  : 		{
; 261  : 			CFont* pOldFont = pDC->SelectObject(pFont);

  001d4	8b 13		 mov	 edx, DWORD PTR [ebx]
  001d6	8b cb		 mov	 ecx, ebx
  001d8	50		 push	 eax
  001d9	ff 52 30	 call	 DWORD PTR [edx+48]
  001dc	89 45 b8	 mov	 DWORD PTR _pOldFont$1$[ebp], eax

; 262  : 			CSize newExtent;
; 263  : 			POSITION pos = pList->GetHeadPosition();

  001df	8b 45 c8	 mov	 eax, DWORD PTR _lstItems$GSCopy$1$[ebp]
  001e2	8b 48 04	 mov	 ecx, DWORD PTR [eax+4]

; 264  : 			while(pos != NULL)

  001e5	85 c9		 test	 ecx, ecx
  001e7	74 49		 je	 SHORT $LN34@ShowList
  001e9	8b f1		 mov	 esi, ecx
  001eb	0f 1f 44 00 00	 npad	 5
$LL33@ShowList:
; File C:\Program Files (x86)\Microsoft Visual Studio\2019\Community\VC\Tools\MSVC\14.29.30133\atlmfc\include\afxcoll.inl

; 501  : 	{ CNode* pNode = (CNode*) rPosition;

  001f0	8b c6		 mov	 eax, esi
; File D:\git\src\IBK\IBK_DRFN\ProjSrc\SrcChartEx\ChartAddIn\ChartDesignPropertyAddIn\ChartDesignPropertyAddIn\ToolandRButtonGrid_ListCtrl.cpp

; 266  : 				CString str(pList->GetNext(pos));

  001f2	8d 4d c0	 lea	 ecx, DWORD PTR _str$5[ebp]
; File C:\Program Files (x86)\Microsoft Visual Studio\2019\Community\VC\Tools\MSVC\14.29.30133\atlmfc\include\afxcoll.inl

; 505  : 		rPosition = (POSITION) pNode->pNext;

  001f5	8b 36		 mov	 esi, DWORD PTR [esi]

; 506  : 		return pNode->data; }

  001f7	83 c0 08	 add	 eax, 8
; File D:\git\src\IBK\IBK_DRFN\ProjSrc\SrcChartEx\ChartAddIn\ChartDesignPropertyAddIn\ChartDesignPropertyAddIn\ToolandRButtonGrid_ListCtrl.cpp

; 266  : 				CString str(pList->GetNext(pos));

  001fa	50		 push	 eax
  001fb	ff 15 00 00 00
	00		 call	 DWORD PTR __imp_??0?$CStringT@DV?$StrTraitMFC_DLL@DV?$ChTraitsCRT@D@ATL@@@@@ATL@@QAE@ABV01@@Z
; File C:\Program Files (x86)\Microsoft Visual Studio\2019\Community\VC\Tools\MSVC\14.29.30133\atlmfc\include\afxwin1.inl

; 639  : 		VERIFY(::GetTextExtentPoint32(m_hAttribDC, str, (int)str.GetLength(), &size));

  00201	8d 45 b0	 lea	 eax, DWORD PTR _size$3[ebp]
  00204	50		 push	 eax
  00205	8b 45 c0	 mov	 eax, DWORD PTR _str$5[ebp]
  00208	ff 70 f4	 push	 DWORD PTR [eax-12]
  0020b	50		 push	 eax
  0020c	ff 73 08	 push	 DWORD PTR [ebx+8]
  0020f	ff 15 00 00 00
	00		 call	 DWORD PTR __imp__GetTextExtentPoint32A@16
; File D:\git\src\IBK\IBK_DRFN\ProjSrc\SrcChartEx\ChartAddIn\ChartDesignPropertyAddIn\ChartDesignPropertyAddIn\ToolandRButtonGrid_ListCtrl.cpp

; 267  : 				newExtent = pDC->GetTextExtent(str);

  00215	8b 45 b0	 mov	 eax, DWORD PTR _size$3[ebp]

; 268  : 				newExtent.cx += 6;
; 269  : 				if (newExtent.cx > nExtent)
; 270  : 				{
; 271  : 					nExtent = newExtent.cx;
; 272  : 				}
; 273  : 			}

  00218	8d 4d c0	 lea	 ecx, DWORD PTR _str$5[ebp]
  0021b	83 c0 06	 add	 eax, 6
  0021e	3b c7		 cmp	 eax, edi
  00220	0f 4e c7	 cmovle	 eax, edi
  00223	8b f8		 mov	 edi, eax
  00225	ff 15 00 00 00
	00		 call	 DWORD PTR __imp_??1?$CStringT@DV?$StrTraitMFC_DLL@DV?$ChTraitsCRT@D@ATL@@@@@ATL@@QAE@XZ
  0022b	85 f6		 test	 esi, esi
  0022d	75 c1		 jne	 SHORT $LL33@ShowList
  0022f	8b 75 cc	 mov	 esi, DWORD PTR $T7[ebp]
$LN34@ShowList:

; 274  : 			pDC->SelectObject(pOldFont);

  00232	8b 03		 mov	 eax, DWORD PTR [ebx]
  00234	8b cb		 mov	 ecx, ebx
  00236	ff 75 b8	 push	 DWORD PTR _pOldFont$1$[ebp]
  00239	ff 50 30	 call	 DWORD PTR [eax+48]
$LN36@ShowList:
; File C:\Program Files (x86)\Microsoft Visual Studio\2019\Community\VC\Tools\MSVC\14.29.30133\atlmfc\include\afxwin2.inl

; 104  : 	{ ASSERT(::IsWindow(m_hWnd)); return ::ReleaseDC(m_hWnd, pDC->m_hDC); }

  0023c	ff 73 04	 push	 DWORD PTR [ebx+4]
  0023f	ff 76 20	 push	 DWORD PTR [esi+32]
  00242	ff 15 00 00 00
	00		 call	 DWORD PTR __imp__ReleaseDC@8

; 843  : 	{ ASSERT(::IsWindow(m_hWnd)); ::SendMessage(m_hWnd, CB_SETHORIZONTALEXTENT, nExtent, 0); }

  00248	8b 1d 00 00 00
	00		 mov	 ebx, DWORD PTR __imp__SendMessageA@16
  0024e	6a 00		 push	 0
  00250	57		 push	 edi
  00251	68 5e 01 00 00	 push	 350			; 0000015eH
  00256	ff 76 20	 push	 DWORD PTR [esi+32]
  00259	ff d3		 call	 ebx

; 793  : 	{ ASSERT(::IsWindow(m_hWnd)); ::SendMessage(m_hWnd, CB_SHOWDROPDOWN, bShowIt, 0); }

  0025b	6a 00		 push	 0
  0025d	6a 01		 push	 1
  0025f	68 4f 01 00 00	 push	 335			; 0000014fH
  00264	ff 76 20	 push	 DWORD PTR [esi+32]
  00267	ff d3		 call	 ebx
; File D:\git\src\IBK\IBK_DRFN\ProjSrc\SrcChartEx\ChartAddIn\ChartDesignPropertyAddIn\ChartDesignPropertyAddIn\ToolandRButtonGrid_ListCtrl.cpp

; 244  : 	pList->SelectString(-1, strFind.GetBuffer(1));

  00269	6a 01		 push	 1
  0026b	8d 4d bc	 lea	 ecx, DWORD PTR _strFind$[ebp]
  0026e	ff 15 00 00 00
	00		 call	 DWORD PTR __imp_?GetBuffer@?$CSimpleStringT@D$00@ATL@@QAEPADH@Z
; File C:\Program Files (x86)\Microsoft Visual Studio\2019\Community\VC\Tools\MSVC\14.29.30133\atlmfc\include\afxwin2.inl

; 808  : 	{ ASSERT(::IsWindow(m_hWnd)); return (int)::SendMessage(m_hWnd, CB_SELECTSTRING,

  00274	50		 push	 eax
  00275	6a ff		 push	 -1
  00277	68 4d 01 00 00	 push	 333			; 0000014dH
  0027c	ff 76 20	 push	 DWORD PTR [esi+32]
  0027f	ff d3		 call	 ebx
$LN13@ShowList:
; File D:\git\src\IBK\IBK_DRFN\ProjSrc\SrcChartEx\ChartAddIn\ChartDesignPropertyAddIn\ChartDesignPropertyAddIn\ToolandRButtonGrid_ListCtrl.cpp

; 246  : 	return pList;

  00281	8d 4d bc	 lea	 ecx, DWORD PTR _strFind$[ebp]
  00284	ff 15 00 00 00
	00		 call	 DWORD PTR __imp_??1?$CStringT@DV?$StrTraitMFC_DLL@DV?$ChTraitsCRT@D@ATL@@@@@ATL@@QAE@XZ
  0028a	8b c6		 mov	 eax, esi

; 247  : }

  0028c	8b 4d f4	 mov	 ecx, DWORD PTR __$EHRec$[ebp]
  0028f	64 89 0d 00 00
	00 00		 mov	 DWORD PTR fs:0, ecx
  00296	59		 pop	 ecx
  00297	5f		 pop	 edi
  00298	5e		 pop	 esi
  00299	5b		 pop	 ebx
  0029a	8b 4d f0	 mov	 ecx, DWORD PTR __$ArrayPad$[ebp]
  0029d	33 cd		 xor	 ecx, ebp
  0029f	e8 00 00 00 00	 call	 @__security_check_cookie@4
  002a4	8b e5		 mov	 esp, ebp
  002a6	5d		 pop	 ebp
  002a7	c2 0c 00	 ret	 12			; 0000000cH
_TEXT	ENDS
;	COMDAT text$x
text$x	SEGMENT
__unwindfunclet$?ShowList@CToolandRButtonGrid_ListCtrl@@IAEPAVCComboBox@@HHPAVCStringList@@@Z$0:
  00000	8d 4d c4	 lea	 ecx, DWORD PTR $T6[ebp]
  00003	ff 25 00 00 00
	00		 jmp	 DWORD PTR __imp_??1?$CStringT@DV?$StrTraitMFC_DLL@DV?$ChTraitsCRT@D@ATL@@@@@ATL@@QAE@XZ
__unwindfunclet$?ShowList@CToolandRButtonGrid_ListCtrl@@IAEPAVCComboBox@@HHPAVCStringList@@@Z$1:
  00009	8d 4d bc	 lea	 ecx, DWORD PTR _strFind$[ebp]
  0000c	ff 25 00 00 00
	00		 jmp	 DWORD PTR __imp_??1?$CStringT@DV?$StrTraitMFC_DLL@DV?$ChTraitsCRT@D@ATL@@@@@ATL@@QAE@XZ
__unwindfunclet$?ShowList@CToolandRButtonGrid_ListCtrl@@IAEPAVCComboBox@@HHPAVCStringList@@@Z$2:
  00012	8b 45 b8	 mov	 eax, DWORD PTR $T4[ebp]
  00015	50		 push	 eax
  00016	e8 00 00 00 00	 call	 ??3CObject@@SGXPAX@Z	; CObject::operator delete
  0001b	c3		 ret	 0
  0001c	cc		 int	 3
  0001d	cc		 int	 3
  0001e	cc		 int	 3
  0001f	cc		 int	 3
  00020	cc		 int	 3
__ehhandler$?ShowList@CToolandRButtonGrid_ListCtrl@@IAEPAVCComboBox@@HHPAVCStringList@@@Z:
  00021	90		 npad	 1
  00022	90		 npad	 1
  00023	8b 54 24 08	 mov	 edx, DWORD PTR [esp+8]
  00027	8d 42 0c	 lea	 eax, DWORD PTR [edx+12]
  0002a	8b 4a ac	 mov	 ecx, DWORD PTR [edx-84]
  0002d	33 c8		 xor	 ecx, eax
  0002f	e8 00 00 00 00	 call	 @__security_check_cookie@4
  00034	8b 4a fc	 mov	 ecx, DWORD PTR [edx-4]
  00037	33 c8		 xor	 ecx, eax
  00039	e8 00 00 00 00	 call	 @__security_check_cookie@4
  0003e	b8 00 00 00 00	 mov	 eax, OFFSET __ehfuncinfo$?ShowList@CToolandRButtonGrid_ListCtrl@@IAEPAVCComboBox@@HHPAVCStringList@@@Z
  00043	e9 00 00 00 00	 jmp	 ___CxxFrameHandler3
text$x	ENDS
?ShowList@CToolandRButtonGrid_ListCtrl@@IAEPAVCComboBox@@HHPAVCStringList@@@Z ENDP ; CToolandRButtonGrid_ListCtrl::ShowList
; Function compile flags: /Ogtp
; File D:\git\src\IBK\IBK_DRFN\ProjSrc\SrcChartEx\ChartAddIn\ChartDesignPropertyAddIn\ChartDesignPropertyAddIn\ToolandRButtonGrid_ListCtrl.cpp
;	COMDAT ?InitDropTarget@CToolandRButtonGrid_ListCtrl@@QAEXXZ
_TEXT	SEGMENT
?InitDropTarget@CToolandRButtonGrid_ListCtrl@@QAEXXZ PROC ; CToolandRButtonGrid_ListCtrl::InitDropTarget, COMDAT
; _this$ = ecx

; 322  : {

  00000	53		 push	 ebx
  00001	8b d9		 mov	 ebx, ecx
  00003	56		 push	 esi
  00004	57		 push	 edi

; 323  :     BOOL bSuccess = m_dropTarget.Register(this);

  00005	53		 push	 ebx
  00006	8d 8b fc 00 00
	00		 lea	 ecx, DWORD PTR [ebx+252]
  0000c	e8 00 00 00 00	 call	 ?Register@COleDropTarget@@QAEHPAVCWnd@@@Z ; COleDropTarget::Register

; 324  : 	m_dropTarget.SetCurrentWindow(this);

  00011	53		 push	 ebx
  00012	8d 8b fc 00 00
	00		 lea	 ecx, DWORD PTR [ebx+252]
  00018	8b f0		 mov	 esi, eax
  0001a	e8 00 00 00 00	 call	 ?SetCurrentWindow@COleListCtrlDropTarget@@QAEXPAVCWnd@@@Z ; COleListCtrlDropTarget::SetCurrentWindow

; 325  :     if (!bSuccess)

  0001f	5f		 pop	 edi
  00020	85 f6		 test	 esi, esi
  00022	5e		 pop	 esi
  00023	5b		 pop	 ebx
  00024	75 0e		 jne	 SHORT $LN2@InitDropTa

; 326  :        AfxMessageBox("Ole Register Drop Target Failed");

  00026	6a 00		 push	 0
  00028	6a 00		 push	 0
  0002a	68 00 00 00 00	 push	 OFFSET ??_C@_0CA@MGPAGIKN@Ole?5Register?5Drop?5Target?5Failed@
  0002f	e8 00 00 00 00	 call	 ?AfxMessageBox@@YGHPBDII@Z ; AfxMessageBox
$LN2@InitDropTa:

; 327  : }

  00034	c3		 ret	 0
?InitDropTarget@CToolandRButtonGrid_ListCtrl@@QAEXXZ ENDP ; CToolandRButtonGrid_ListCtrl::InitDropTarget
_TEXT	ENDS
; Function compile flags: /Ogtp
; File D:\git\src\IBK\IBK_DRFN\ProjSrc\SrcChartEx\ChartAddIn\ChartDesignPropertyAddIn\ChartDesignPropertyAddIn\ToolandRButtonGrid_ListCtrl.cpp
;	COMDAT ?SetListItemInfoMgrObject@CToolandRButtonGrid_ListCtrl@@QAEXPAVCToolandRButtonItemMgr@@PBDPAVCNumericalInquiryOptionDlg@@@Z
_TEXT	SEGMENT
_pItemInfoMgr$ = 8					; size = 4
_pcszTabName$ = 12					; size = 4
_pNumericalInquiryOptionDlg$ = 16			; size = 4
?SetListItemInfoMgrObject@CToolandRButtonGrid_ListCtrl@@QAEXPAVCToolandRButtonItemMgr@@PBDPAVCNumericalInquiryOptionDlg@@@Z PROC ; CToolandRButtonGrid_ListCtrl::SetListItemInfoMgrObject, COMDAT
; _this$ = ecx

; 442  : {

  00000	55		 push	 ebp
  00001	8b ec		 mov	 ebp, esp

; 443  : 	m_pItemInfoManager = pItemInfoMgr;

  00003	8b 45 08	 mov	 eax, DWORD PTR _pItemInfoMgr$[ebp]
  00006	56		 push	 esi

; 444  : 	m_strTabName = pcszTabName;

  00007	ff 75 0c	 push	 DWORD PTR _pcszTabName$[ebp]
  0000a	8b f1		 mov	 esi, ecx
  0000c	8d 8e 38 01 00
	00		 lea	 ecx, DWORD PTR [esi+312]
  00012	89 86 f8 00 00
	00		 mov	 DWORD PTR [esi+248], eax
  00018	ff 15 00 00 00
	00		 call	 DWORD PTR __imp_??4?$CStringT@DV?$StrTraitMFC_DLL@DV?$ChTraitsCRT@D@ATL@@@@@ATL@@QAEAAV01@PBD@Z

; 445  : 	m_pNumericalInquiryOptionDlg = pNumericalInquiryOptionDlg;

  0001e	8b 45 10	 mov	 eax, DWORD PTR _pNumericalInquiryOptionDlg$[ebp]
  00021	89 86 3c 01 00
	00		 mov	 DWORD PTR [esi+316], eax
  00027	5e		 pop	 esi

; 446  : }

  00028	5d		 pop	 ebp
  00029	c2 0c 00	 ret	 12			; 0000000cH
?SetListItemInfoMgrObject@CToolandRButtonGrid_ListCtrl@@QAEXPAVCToolandRButtonItemMgr@@PBDPAVCNumericalInquiryOptionDlg@@@Z ENDP ; CToolandRButtonGrid_ListCtrl::SetListItemInfoMgrObject
_TEXT	ENDS
; Function compile flags: /Ogtp
; File D:\git\src\IBK\IBK_DRFN\ProjSrc\SrcChartEx\ChartAddIn\ChartDesignPropertyAddIn\ChartDesignPropertyAddIn\ToolandRButtonGrid_ListCtrl.cpp
;	COMDAT ?InsertSavedItemInfo@CToolandRButtonGrid_ListCtrl@@QAEXABV?$CStringT@DV?$StrTraitMFC_DLL@DV?$ChTraitsCRT@D@ATL@@@@@ATL@@00@Z
_TEXT	SEGMENT
_strItemName$ = 8					; size = 4
_strLimit1$ = 12					; size = 4
_strLimit2$ = 16					; size = 4
?InsertSavedItemInfo@CToolandRButtonGrid_ListCtrl@@QAEXABV?$CStringT@DV?$StrTraitMFC_DLL@DV?$ChTraitsCRT@D@ATL@@@@@ATL@@00@Z PROC ; CToolandRButtonGrid_ListCtrl::InsertSavedItemInfo, COMDAT
; _this$ = ecx

; 449  : {

  00000	55		 push	 ebp
  00001	8b ec		 mov	 ebp, esp
  00003	57		 push	 edi

; 450  : 	CItemInfo* pItemInfo = m_pItemInfoManager->ChangeItemInfo(strItemName, strLimit1, strLimit2);

  00004	ff 75 10	 push	 DWORD PTR _strLimit2$[ebp]
  00007	8b f9		 mov	 edi, ecx
  00009	ff 75 0c	 push	 DWORD PTR _strLimit1$[ebp]
  0000c	ff 75 08	 push	 DWORD PTR _strItemName$[ebp]
  0000f	8b 8f f8 00 00
	00		 mov	 ecx, DWORD PTR [edi+248]
  00015	e8 00 00 00 00	 call	 ?ChangeItemInfo@CToolandRButtonItemMgr@@QAEPAVCItemInfo@@ABV?$CStringT@DV?$StrTraitMFC_DLL@DV?$ChTraitsCRT@D@ATL@@@@@ATL@@00@Z ; CToolandRButtonItemMgr::ChangeItemInfo

; 451  : 	if(pItemInfo == NULL)

  0001a	85 c0		 test	 eax, eax
  0001c	74 30		 je	 SHORT $LN1@InsertSave

; 452  : 		return;
; 453  : 
; 454  : 	CItemInfo* pItem = CopyData(pItemInfo);

  0001e	8b 17		 mov	 edx, DWORD PTR [edi]
  00020	8b cf		 mov	 ecx, edi
  00022	56		 push	 esi
  00023	50		 push	 eax
  00024	ff 92 70 01 00
	00		 call	 DWORD PTR [edx+368]

; 455  : 	CTreeItem* pNew = InsertItem(m_pRootItem, pItem);  			//insert the iteminfo with ParentPtr

  0002a	6a 00		 push	 0
  0002c	8b f0		 mov	 esi, eax
  0002e	8b cf		 mov	 ecx, edi
  00030	56		 push	 esi
  00031	ff b7 f4 00 00
	00		 push	 DWORD PTR [edi+244]
  00037	e8 00 00 00 00	 call	 ?InsertItem@CSuperGridCtrl@@QAEPAVCTreeItem@1@PAV21@PAVCItemInfo@@H@Z ; CSuperGridCtrl::InsertItem

; 456  : 	InsertOneItemToListCtrl(m_pRootItem, pNew, pItem, TRUE);

  0003c	6a 01		 push	 1
  0003e	56		 push	 esi
  0003f	50		 push	 eax
  00040	ff b7 f4 00 00
	00		 push	 DWORD PTR [edi+244]
  00046	8b cf		 mov	 ecx, edi
  00048	e8 00 00 00 00	 call	 ?InsertOneItemToListCtrl@CSuperGridCtrl@@QAEXPAVCTreeItem@1@0PAVCItemInfo@@H@Z ; CSuperGridCtrl::InsertOneItemToListCtrl
  0004d	5e		 pop	 esi
$LN1@InsertSave:
  0004e	5f		 pop	 edi

; 457  : }

  0004f	5d		 pop	 ebp
  00050	c2 0c 00	 ret	 12			; 0000000cH
?InsertSavedItemInfo@CToolandRButtonGrid_ListCtrl@@QAEXABV?$CStringT@DV?$StrTraitMFC_DLL@DV?$ChTraitsCRT@D@ATL@@@@@ATL@@00@Z ENDP ; CToolandRButtonGrid_ListCtrl::InsertSavedItemInfo
_TEXT	ENDS
; Function compile flags: /Ogtp
; File D:\git\src\IBK\IBK_DRFN\ProjSrc\SrcChartEx\ChartAddIn\ChartDesignPropertyAddIn\ChartDesignPropertyAddIn\ToolandRButtonGrid_ListCtrl.cpp
;	COMDAT ??1CToolandRButtonGrid_ListCtrl@@UAE@XZ
_TEXT	SEGMENT
??1CToolandRButtonGrid_ListCtrl@@UAE@XZ PROC		; CToolandRButtonGrid_ListCtrl::~CToolandRButtonGrid_ListCtrl, COMDAT
; _this$ = ecx

; 33   : {

  00000	56		 push	 esi
  00001	8b f1		 mov	 esi, ecx

; 34   : }

  00003	8d 8e 38 01 00
	00		 lea	 ecx, DWORD PTR [esi+312]
  00009	c7 06 00 00 00
	00		 mov	 DWORD PTR [esi], OFFSET ??_7CToolandRButtonGrid_ListCtrl@@6B@
  0000f	ff 15 00 00 00
	00		 call	 DWORD PTR __imp_??1?$CStringT@DV?$StrTraitMFC_DLL@DV?$ChTraitsCRT@D@ATL@@@@@ATL@@QAE@XZ
  00015	8d 8e fc 00 00
	00		 lea	 ecx, DWORD PTR [esi+252]
  0001b	e8 00 00 00 00	 call	 ??1COleListCtrlDropTarget@@UAE@XZ ; COleListCtrlDropTarget::~COleListCtrlDropTarget
  00020	8d 8e ec 00 00
	00		 lea	 ecx, DWORD PTR [esi+236]
  00026	e8 00 00 00 00	 call	 ??1CImageList@@UAE@XZ	; CImageList::~CImageList
  0002b	8b ce		 mov	 ecx, esi
  0002d	5e		 pop	 esi
  0002e	e9 00 00 00 00	 jmp	 ??1CSuperGridCtrl@@UAE@XZ ; CSuperGridCtrl::~CSuperGridCtrl
??1CToolandRButtonGrid_ListCtrl@@UAE@XZ ENDP		; CToolandRButtonGrid_ListCtrl::~CToolandRButtonGrid_ListCtrl
_TEXT	ENDS
; Function compile flags: /Ogtp
; File D:\git\src\IBK\IBK_DRFN\ProjSrc\SrcChartEx\ChartAddIn\ChartDesignPropertyAddIn\ChartDesignPropertyAddIn\ToolandRButtonGrid_ListCtrl.cpp
; File C:\Program Files (x86)\Microsoft Visual Studio\2019\Community\VC\Tools\MSVC\14.29.30133\atlmfc\include\afxcmn.inl
; File D:\git\src\IBK\IBK_DRFN\ProjSrc\SrcChartEx\ChartAddIn\ChartDesignPropertyAddIn\ChartDesignPropertyAddIn\ToolandRButtonGrid_ListCtrl.cpp
; File C:\Program Files (x86)\Microsoft Visual Studio\2019\Community\VC\Tools\MSVC\14.29.30133\atlmfc\include\afxcmn.inl
; File D:\git\src\IBK\IBK_DRFN\ProjSrc\SrcChartEx\ChartAddIn\ChartDesignPropertyAddIn\ChartDesignPropertyAddIn\ToolandRButtonGrid_ListCtrl.cpp
; File C:\Program Files (x86)\Microsoft Visual Studio\2019\Community\VC\Tools\MSVC\14.29.30133\atlmfc\include\cstringt.h
; File D:\git\src\IBK\IBK_DRFN\ProjSrc\SrcChartEx\ChartAddIn\ChartDesignPropertyAddIn\ChartDesignPropertyAddIn\ToolandRButtonGrid_ListCtrl.cpp
; File C:\Program Files (x86)\Microsoft Visual Studio\2019\Community\VC\Tools\MSVC\14.29.30133\atlmfc\include\cstringt.h
; File D:\git\src\IBK\IBK_DRFN\ProjSrc\SrcChartEx\ChartAddIn\ChartDesignPropertyAddIn\ChartDesignPropertyAddIn\ToolandRButtonGrid_ListCtrl.cpp
;	COMDAT ?GetListItemInfo@CToolandRButtonGrid_ListCtrl@@QAE?AV?$CStringT@DV?$StrTraitMFC_DLL@DV?$ChTraitsCRT@D@ATL@@@@@ATL@@XZ
_TEXT	SEGMENT
_Count$1$ = -32						; size = 4
$T2 = -28						; size = 4
$T3 = -24						; size = 4
_temp$4 = -20						; size = 4
_this$1$ = -16						; size = 4
__$EHRec$ = -12						; size = 12
___$ReturnUdt$ = 8					; size = 4
?GetListItemInfo@CToolandRButtonGrid_ListCtrl@@QAE?AV?$CStringT@DV?$StrTraitMFC_DLL@DV?$ChTraitsCRT@D@ATL@@@@@ATL@@XZ PROC ; CToolandRButtonGrid_ListCtrl::GetListItemInfo, COMDAT
; _this$ = ecx

; 423  : {

  00000	55		 push	 ebp
  00001	8b ec		 mov	 ebp, esp
  00003	6a ff		 push	 -1
  00005	68 00 00 00 00	 push	 __ehhandler$?GetListItemInfo@CToolandRButtonGrid_ListCtrl@@QAE?AV?$CStringT@DV?$StrTraitMFC_DLL@DV?$ChTraitsCRT@D@ATL@@@@@ATL@@XZ
  0000a	64 a1 00 00 00
	00		 mov	 eax, DWORD PTR fs:0
  00010	50		 push	 eax
  00011	83 ec 14	 sub	 esp, 20			; 00000014H
  00014	53		 push	 ebx
  00015	56		 push	 esi
  00016	57		 push	 edi
  00017	a1 00 00 00 00	 mov	 eax, DWORD PTR ___security_cookie
  0001c	33 c5		 xor	 eax, ebp
  0001e	50		 push	 eax
  0001f	8d 45 f4	 lea	 eax, DWORD PTR __$EHRec$[ebp]
  00022	64 a3 00 00 00
	00		 mov	 DWORD PTR fs:0, eax
  00028	8b f1		 mov	 esi, ecx
  0002a	89 75 f0	 mov	 DWORD PTR _this$1$[ebp], esi
  0002d	c7 45 e8 00 00
	00 00		 mov	 DWORD PTR $T3[ebp], 0

; 424  : 	CString strValue = "";

  00034	8b 5d 08	 mov	 ebx, DWORD PTR ___$ReturnUdt$[ebp]
  00037	8b cb		 mov	 ecx, ebx
  00039	68 00 00 00 00	 push	 OFFSET ??_C@_00CNPNBAHC@@
  0003e	c7 45 fc 00 00
	00 00		 mov	 DWORD PTR __$EHRec$[ebp+8], 0
  00045	ff 15 00 00 00
	00		 call	 DWORD PTR __imp_??0?$CStringT@DV?$StrTraitMFC_DLL@DV?$ChTraitsCRT@D@ATL@@@@@ATL@@QAE@PBD@Z
; File C:\Program Files (x86)\Microsoft Visual Studio\2019\Community\VC\Tools\MSVC\14.29.30133\atlmfc\include\afxcmn.inl

; 155  : 	{ ASSERT(::IsWindow(m_hWnd)); return (int) ::SendMessage(m_hWnd, LVM_GETITEMCOUNT, 0, 0L); }

  0004b	6a 00		 push	 0
  0004d	6a 00		 push	 0
  0004f	68 04 10 00 00	 push	 4100			; 00001004H
  00054	ff 76 20	 push	 DWORD PTR [esi+32]
; File D:\git\src\IBK\IBK_DRFN\ProjSrc\SrcChartEx\ChartAddIn\ChartDesignPropertyAddIn\ChartDesignPropertyAddIn\ToolandRButtonGrid_ListCtrl.cpp

; 437  : 	return strValue;

  00057	c7 45 fc 00 00
	00 00		 mov	 DWORD PTR __$EHRec$[ebp+8], 0
  0005e	c7 45 e8 01 00
	00 00		 mov	 DWORD PTR $T3[ebp], 1
; File C:\Program Files (x86)\Microsoft Visual Studio\2019\Community\VC\Tools\MSVC\14.29.30133\atlmfc\include\afxcmn.inl

; 155  : 	{ ASSERT(::IsWindow(m_hWnd)); return (int) ::SendMessage(m_hWnd, LVM_GETITEMCOUNT, 0, 0L); }

  00065	ff 15 00 00 00
	00		 call	 DWORD PTR __imp__SendMessageA@16
; File D:\git\src\IBK\IBK_DRFN\ProjSrc\SrcChartEx\ChartAddIn\ChartDesignPropertyAddIn\ChartDesignPropertyAddIn\ToolandRButtonGrid_ListCtrl.cpp

; 426  : 	for(int i = 0; i < Count ; i++)

  0006b	33 ff		 xor	 edi, edi
  0006d	89 45 e0	 mov	 DWORD PTR _Count$1$[ebp], eax
  00070	85 c0		 test	 eax, eax
  00072	0f 8e ab 00 00
	00		 jle	 $LN32@GetListIte
$LL4@GetListIte:

; 428  : 		CString temp = GetItemText(i,0);

  00078	6a 00		 push	 0
  0007a	57		 push	 edi
  0007b	8d 45 ec	 lea	 eax, DWORD PTR _temp$4[ebp]
  0007e	8b ce		 mov	 ecx, esi
  00080	50		 push	 eax
  00081	e8 00 00 00 00	 call	 ?GetItemText@CListCtrl@@QBE?AV?$CStringT@DV?$StrTraitMFC_DLL@DV?$ChTraitsCRT@D@ATL@@@@@ATL@@HH@Z ; CListCtrl::GetItemText
; File C:\Program Files (x86)\Microsoft Visual Studio\2019\Community\VC\Tools\MSVC\14.29.30133\atlmfc\include\cstringt.h

; 2486 : 		return(str1.Compare(psz2) == 0);

  00086	68 00 00 00 00	 push	 OFFSET ??_C@_04BGCMBJDA@Item@
  0008b	8d 4d ec	 lea	 ecx, DWORD PTR _temp$4[ebp]
; File D:\git\src\IBK\IBK_DRFN\ProjSrc\SrcChartEx\ChartAddIn\ChartDesignPropertyAddIn\ChartDesignPropertyAddIn\ToolandRButtonGrid_ListCtrl.cpp

; 428  : 		CString temp = GetItemText(i,0);

  0008e	c7 45 fc 01 00
	00 00		 mov	 DWORD PTR __$EHRec$[ebp+8], 1
; File C:\Program Files (x86)\Microsoft Visual Studio\2019\Community\VC\Tools\MSVC\14.29.30133\atlmfc\include\cstringt.h

; 2486 : 		return(str1.Compare(psz2) == 0);

  00095	ff 15 00 00 00
	00		 call	 DWORD PTR __imp_?Compare@?$CStringT@DV?$StrTraitMFC_DLL@DV?$ChTraitsCRT@D@ATL@@@@@ATL@@QBEHPBD@Z
  0009b	85 c0		 test	 eax, eax
; File D:\git\src\IBK\IBK_DRFN\ProjSrc\SrcChartEx\ChartAddIn\ChartDesignPropertyAddIn\ChartDesignPropertyAddIn\ToolandRButtonGrid_ListCtrl.cpp

; 429  : 		if( temp == "Item") continue;

  0009d	74 6d		 je	 SHORT $LN29@GetListIte

; 430  : 		for(int y = 0 ; y <= 2; y++)

  0009f	33 f6		 xor	 esi, esi
$LL7@GetListIte:

; 431  : 		{
; 432  : 			strValue += _LTOM4( GetItemText(i, y));

  000a1	8b 4d f0	 mov	 ecx, DWORD PTR _this$1$[ebp]
  000a4	8d 45 e4	 lea	 eax, DWORD PTR $T2[ebp]
  000a7	56		 push	 esi
  000a8	57		 push	 edi
  000a9	50		 push	 eax
  000aa	e8 00 00 00 00	 call	 ?GetItemText@CListCtrl@@QBE?AV?$CStringT@DV?$StrTraitMFC_DLL@DV?$ChTraitsCRT@D@ATL@@@@@ATL@@HH@Z ; CListCtrl::GetItemText
  000af	6a 00		 push	 0
  000b1	ff 30		 push	 DWORD PTR [eax]
  000b3	8b 45 f0	 mov	 eax, DWORD PTR _this$1$[ebp]
  000b6	b9 00 00 00 00	 mov	 ecx, OFFSET ?g_iMetaTable@@3VIMetaTable@@A ; g_iMetaTable
  000bb	6a 04		 push	 4
  000bd	c6 45 fc 02	 mov	 BYTE PTR __$EHRec$[ebp+8], 2
  000c1	ff b0 40 01 00
	00		 push	 DWORD PTR [eax+320]
  000c7	e8 00 00 00 00	 call	 ?GetMetaText@IMetaTable@@QAEPBDPAUHWND__@@W4E_CODEPAGE@1@PBDH@Z ; IMetaTable::GetMetaText
  000cc	50		 push	 eax
  000cd	8b cb		 mov	 ecx, ebx
  000cf	ff 15 00 00 00
	00		 call	 DWORD PTR __imp_??Y?$CStringT@DV?$StrTraitMFC_DLL@DV?$ChTraitsCRT@D@ATL@@@@@ATL@@QAEAAV01@PBD@Z
  000d5	8d 4d e4	 lea	 ecx, DWORD PTR $T2[ebp]
  000d8	c6 45 fc 01	 mov	 BYTE PTR __$EHRec$[ebp+8], 1
  000dc	ff 15 00 00 00
	00		 call	 DWORD PTR __imp_??1?$CStringT@DV?$StrTraitMFC_DLL@DV?$ChTraitsCRT@D@ATL@@@@@ATL@@QAE@XZ

; 433  : 			strValue += ";";

  000e2	68 00 00 00 00	 push	 OFFSET ??_C@_01ICJEACDI@?$DL@
  000e7	8b cb		 mov	 ecx, ebx
  000e9	ff 15 00 00 00
	00		 call	 DWORD PTR __imp_??Y?$CStringT@DV?$StrTraitMFC_DLL@DV?$ChTraitsCRT@D@ATL@@@@@ATL@@QAEAAV01@PBD@Z

; 434  : 			if(y == 2) strValue += "\r\n";

  000ef	83 fe 02	 cmp	 esi, 2
  000f2	74 08		 je	 SHORT $LN31@GetListIte

; 430  : 		for(int y = 0 ; y <= 2; y++)

  000f4	46		 inc	 esi
  000f5	83 fe 02	 cmp	 esi, 2
  000f8	7e a7		 jle	 SHORT $LL7@GetListIte
  000fa	eb 0d		 jmp	 SHORT $LN33@GetListIte
$LN31@GetListIte:

; 434  : 			if(y == 2) strValue += "\r\n";

  000fc	68 00 00 00 00	 push	 OFFSET ??_C@_02PCIJFNDE@?$AN?6@
  00101	8b cb		 mov	 ecx, ebx
  00103	ff 15 00 00 00
	00		 call	 DWORD PTR __imp_??Y?$CStringT@DV?$StrTraitMFC_DLL@DV?$ChTraitsCRT@D@ATL@@@@@ATL@@QAEAAV01@PBD@Z
$LN33@GetListIte:

; 435  : 		}
; 436  : 	}

  00109	8b 75 f0	 mov	 esi, DWORD PTR _this$1$[ebp]
$LN29@GetListIte:
  0010c	8d 4d ec	 lea	 ecx, DWORD PTR _temp$4[ebp]
  0010f	c6 45 fc 00	 mov	 BYTE PTR __$EHRec$[ebp+8], 0
  00113	ff 15 00 00 00
	00		 call	 DWORD PTR __imp_??1?$CStringT@DV?$StrTraitMFC_DLL@DV?$ChTraitsCRT@D@ATL@@@@@ATL@@QAE@XZ
  00119	47		 inc	 edi
  0011a	3b 7d e0	 cmp	 edi, DWORD PTR _Count$1$[ebp]
  0011d	0f 8c 55 ff ff
	ff		 jl	 $LL4@GetListIte
$LN32@GetListIte:

; 438  : }

  00123	8b c3		 mov	 eax, ebx
  00125	8b 4d f4	 mov	 ecx, DWORD PTR __$EHRec$[ebp]
  00128	64 89 0d 00 00
	00 00		 mov	 DWORD PTR fs:0, ecx
  0012f	59		 pop	 ecx
  00130	5f		 pop	 edi
  00131	5e		 pop	 esi
  00132	5b		 pop	 ebx
  00133	8b e5		 mov	 esp, ebp
  00135	5d		 pop	 ebp
  00136	c2 04 00	 ret	 4
_TEXT	ENDS
;	COMDAT text$x
text$x	SEGMENT
__unwindfunclet$?GetListItemInfo@CToolandRButtonGrid_ListCtrl@@QAE?AV?$CStringT@DV?$StrTraitMFC_DLL@DV?$ChTraitsCRT@D@ATL@@@@@ATL@@XZ$0:
  00000	8b 45 e8	 mov	 eax, DWORD PTR $T3[ebp]
  00003	83 e0 01	 and	 eax, 1
  00006	0f 84 0d 00 00
	00		 je	 $LN12@GetListIte
  0000c	83 65 e8 fe	 and	 DWORD PTR $T3[ebp], -2	; fffffffeH
  00010	8b 4d 08	 mov	 ecx, DWORD PTR ___$ReturnUdt$[ebp]
  00013	ff 25 00 00 00
	00		 jmp	 DWORD PTR __imp_??1?$CStringT@DV?$StrTraitMFC_DLL@DV?$ChTraitsCRT@D@ATL@@@@@ATL@@QAE@XZ
$LN12@GetListIte:
  00019	c3		 ret	 0
__unwindfunclet$?GetListItemInfo@CToolandRButtonGrid_ListCtrl@@QAE?AV?$CStringT@DV?$StrTraitMFC_DLL@DV?$ChTraitsCRT@D@ATL@@@@@ATL@@XZ$1:
  0001a	8d 4d ec	 lea	 ecx, DWORD PTR _temp$4[ebp]
  0001d	ff 25 00 00 00
	00		 jmp	 DWORD PTR __imp_??1?$CStringT@DV?$StrTraitMFC_DLL@DV?$ChTraitsCRT@D@ATL@@@@@ATL@@QAE@XZ
__unwindfunclet$?GetListItemInfo@CToolandRButtonGrid_ListCtrl@@QAE?AV?$CStringT@DV?$StrTraitMFC_DLL@DV?$ChTraitsCRT@D@ATL@@@@@ATL@@XZ$2:
  00023	8d 4d e4	 lea	 ecx, DWORD PTR $T2[ebp]
  00026	ff 25 00 00 00
	00		 jmp	 DWORD PTR __imp_??1?$CStringT@DV?$StrTraitMFC_DLL@DV?$ChTraitsCRT@D@ATL@@@@@ATL@@QAE@XZ
  0002c	cc		 int	 3
  0002d	cc		 int	 3
  0002e	cc		 int	 3
  0002f	cc		 int	 3
  00030	cc		 int	 3
__ehhandler$?GetListItemInfo@CToolandRButtonGrid_ListCtrl@@QAE?AV?$CStringT@DV?$StrTraitMFC_DLL@DV?$ChTraitsCRT@D@ATL@@@@@ATL@@XZ:
  00031	90		 npad	 1
  00032	90		 npad	 1
  00033	8b 54 24 08	 mov	 edx, DWORD PTR [esp+8]
  00037	8d 42 0c	 lea	 eax, DWORD PTR [edx+12]
  0003a	8b 4a dc	 mov	 ecx, DWORD PTR [edx-36]
  0003d	33 c8		 xor	 ecx, eax
  0003f	e8 00 00 00 00	 call	 @__security_check_cookie@4
  00044	b8 00 00 00 00	 mov	 eax, OFFSET __ehfuncinfo$?GetListItemInfo@CToolandRButtonGrid_ListCtrl@@QAE?AV?$CStringT@DV?$StrTraitMFC_DLL@DV?$ChTraitsCRT@D@ATL@@@@@ATL@@XZ
  00049	e9 00 00 00 00	 jmp	 ___CxxFrameHandler3
text$x	ENDS
?GetListItemInfo@CToolandRButtonGrid_ListCtrl@@QAE?AV?$CStringT@DV?$StrTraitMFC_DLL@DV?$ChTraitsCRT@D@ATL@@@@@ATL@@XZ ENDP ; CToolandRButtonGrid_ListCtrl::GetListItemInfo
; Function compile flags: /Ogtp
; File D:\git\src\IBK\IBK_DRFN\ProjSrc\SrcChartEx\ChartAddIn\ChartDesignPropertyAddIn\ChartDesignPropertyAddIn\ToolandRButtonGrid_ListCtrl.cpp
;	COMDAT ?OnItemLButtonDown@CToolandRButtonGrid_ListCtrl@@UAEHAAUtagLVHITTESTINFO@@@Z
_TEXT	SEGMENT
_ht$ = 8						; size = 4
?OnItemLButtonDown@CToolandRButtonGrid_ListCtrl@@UAEHAAUtagLVHITTESTINFO@@@Z PROC ; CToolandRButtonGrid_ListCtrl::OnItemLButtonDown, COMDAT
; _this$ = ecx

; 141  : 	return 1;

  00000	b8 01 00 00 00	 mov	 eax, 1

; 142  : }

  00005	c2 04 00	 ret	 4
?OnItemLButtonDown@CToolandRButtonGrid_ListCtrl@@UAEHAAUtagLVHITTESTINFO@@@Z ENDP ; CToolandRButtonGrid_ListCtrl::OnItemLButtonDown
_TEXT	ENDS
; Function compile flags: /Ogtp
; File D:\git\src\IBK\IBK_DRFN\ProjSrc\SrcChartEx\ChartAddIn\ChartDesignPropertyAddIn\ChartDesignPropertyAddIn\ToolandRButtonGrid_ListCtrl.cpp
; File C:\Program Files (x86)\Microsoft Visual Studio\2019\Community\VC\Tools\MSVC\14.29.30133\atlmfc\include\afxcmn.inl
; File D:\git\src\IBK\IBK_DRFN\ProjSrc\SrcChartEx\ChartAddIn\ChartDesignPropertyAddIn\ChartDesignPropertyAddIn\ToolandRButtonGrid_ListCtrl.cpp
; File C:\Program Files (x86)\Microsoft Visual Studio\2019\Community\VC\Tools\MSVC\14.29.30133\atlmfc\include\afxcmn.inl
; File D:\git\src\IBK\IBK_DRFN\ProjSrc\SrcChartEx\ChartAddIn\ChartDesignPropertyAddIn\ChartDesignPropertyAddIn\ToolandRButtonGrid_ListCtrl.cpp
;	COMDAT ?OnVkReturn@CToolandRButtonGrid_ListCtrl@@UAEHXZ
_TEXT	SEGMENT
_pInfo$1$ = -8						; size = 4
_iSubItem$1$ = -4					; size = 4
_list$1 = -4						; size = 4
_ctrlType$2 = -4					; size = 4
?OnVkReturn@CToolandRButtonGrid_ListCtrl@@UAEHXZ PROC	; CToolandRButtonGrid_ListCtrl::OnVkReturn, COMDAT
; _this$ = ecx

; 170  : {

  00000	55		 push	 ebp
  00001	8b ec		 mov	 ebp, esp
  00003	83 ec 08	 sub	 esp, 8
  00006	56		 push	 esi
  00007	57		 push	 edi
; File C:\Program Files (x86)\Microsoft Visual Studio\2019\Community\VC\Tools\MSVC\14.29.30133\atlmfc\include\afxcmn.inl

; 177  : 	{ ASSERT(::IsWindow(m_hWnd)); return (int) ::SendMessage(m_hWnd, LVM_GETNEXTITEM, nItem, MAKELPARAM(nFlags, 0)); }

  00008	6a 02		 push	 2
; File D:\git\src\IBK\IBK_DRFN\ProjSrc\SrcChartEx\ChartAddIn\ChartDesignPropertyAddIn\ChartDesignPropertyAddIn\ToolandRButtonGrid_ListCtrl.cpp

; 170  : {

  0000a	8b f1		 mov	 esi, ecx
; File C:\Program Files (x86)\Microsoft Visual Studio\2019\Community\VC\Tools\MSVC\14.29.30133\atlmfc\include\afxcmn.inl

; 177  : 	{ ASSERT(::IsWindow(m_hWnd)); return (int) ::SendMessage(m_hWnd, LVM_GETNEXTITEM, nItem, MAKELPARAM(nFlags, 0)); }

  0000c	6a ff		 push	 -1
  0000e	68 0c 10 00 00	 push	 4108			; 0000100cH
  00013	ff 76 20	 push	 DWORD PTR [esi+32]
  00016	ff 15 00 00 00
	00		 call	 DWORD PTR __imp__SendMessageA@16
; File D:\git\src\IBK\IBK_DRFN\ProjSrc\SrcChartEx\ChartAddIn\ChartDesignPropertyAddIn\ChartDesignPropertyAddIn\ToolandRButtonGrid_ListCtrl.cpp

; 173  : 	if( GetCurSubItem() != -1 && iItem != -1)

  0001c	83 be b0 00 00
	00 ff		 cmp	 DWORD PTR [esi+176], -1
  00023	8b f8		 mov	 edi, eax
  00025	0f 84 97 00 00
	00		 je	 $LN18@OnVkReturn
  0002b	83 ff ff	 cmp	 edi, -1
  0002e	0f 84 8e 00 00
	00		 je	 $LN18@OnVkReturn

; 174  : 	{
; 175  : 		CTreeItem*pSelItem = GetTreeItem(iItem);

  00034	53		 push	 ebx
  00035	57		 push	 edi
  00036	8b ce		 mov	 ecx, esi
  00038	e8 00 00 00 00	 call	 ?GetTreeItem@CSuperGridCtrl@@QAEPAVCTreeItem@1@H@Z ; CSuperGridCtrl::GetTreeItem
  0003d	8b d8		 mov	 ebx, eax

; 176  : 		if(pSelItem!=NULL)

  0003f	85 db		 test	 ebx, ebx
  00041	74 76		 je	 SHORT $LN19@OnVkReturn

; 177  : 		{	
; 178  : 			CHeaderCtrl* pHeader = (CHeaderCtrl*)GetDlgItem(0);

  00043	6a 00		 push	 0
  00045	8b ce		 mov	 ecx, esi
  00047	e8 00 00 00 00	 call	 ?GetDlgItem@CWnd@@QBEPAV1@H@Z ; CWnd::GetDlgItem

; 179  : 			int iSubItem = Header_OrderToIndex(pHeader->m_hWnd, GetCurSubItem());

  0004c	6a 00		 push	 0
  0004e	ff b6 b0 00 00
	00		 push	 DWORD PTR [esi+176]
  00054	68 0f 12 00 00	 push	 4623			; 0000120fH
  00059	ff 70 20	 push	 DWORD PTR [eax+32]
  0005c	ff 15 00 00 00
	00		 call	 DWORD PTR __imp__SendMessageA@16

; 180  : 			CItemInfo* pInfo = GetData(pSelItem);

  00062	53		 push	 ebx
  00063	8b ce		 mov	 ecx, esi
  00065	89 45 fc	 mov	 DWORD PTR _iSubItem$1$[ebp], eax
  00068	e8 00 00 00 00	 call	 ?GetData@CSuperGridCtrl@@QAEPAVCItemInfo@@PBVCTreeItem@1@@Z ; CSuperGridCtrl::GetData

; 181  : 			CItemInfo::CONTROLTYPE ctrlType;
; 182  : 			if(pInfo->GetControlType(iSubItem-1, ctrlType))

  0006d	8b 5d fc	 mov	 ebx, DWORD PTR _iSubItem$1$[ebp]
  00070	8d 55 fc	 lea	 edx, DWORD PTR _ctrlType$2[ebp]
  00073	52		 push	 edx
  00074	89 45 f8	 mov	 DWORD PTR _pInfo$1$[ebp], eax
  00077	8d 4b ff	 lea	 ecx, DWORD PTR [ebx-1]
  0007a	51		 push	 ecx
  0007b	8b c8		 mov	 ecx, eax
  0007d	e8 00 00 00 00	 call	 ?GetControlType@CItemInfo@@QBEHHAAW4CONTROLTYPE@1@@Z ; CItemInfo::GetControlType
  00082	85 c0		 test	 eax, eax
  00084	74 33		 je	 SHORT $LN19@OnVkReturn

; 183  : 			{	
; 184  : 				switch(ctrlType)

  00086	8b 45 fc	 mov	 eax, DWORD PTR _ctrlType$2[ebp]
  00089	83 e8 01	 sub	 eax, 1
  0008c	75 2b		 jne	 SHORT $LN19@OnVkReturn

; 185  : 				{
; 186  : 					/*put in your own control here*/
; 187  : 					case pInfo->CONTROLTYPE::datecontrol:break;
; 188  : 					case pInfo->CONTROLTYPE::spinbutton:break;
; 189  : 					case pInfo->CONTROLTYPE::dropdownlistviewwhatevercontrol:break;
; 190  : 					case pInfo->CONTROLTYPE::combobox: 
; 191  : 						{
; 192  : 							CStringList* list=NULL;
; 193  : 							pInfo->GetListData(iSubItem-1, list);

  0008e	8b 4d f8	 mov	 ecx, DWORD PTR _pInfo$1$[ebp]
  00091	89 45 fc	 mov	 DWORD PTR _list$1[ebp], eax
  00094	8d 45 fc	 lea	 eax, DWORD PTR _list$1[ebp]
  00097	50		 push	 eax
  00098	8d 43 ff	 lea	 eax, DWORD PTR [ebx-1]
  0009b	50		 push	 eax
  0009c	e8 00 00 00 00	 call	 ?GetListData@CItemInfo@@QBEHHAAPAVCStringList@@@Z ; CItemInfo::GetListData

; 194  : 							CComboBox * pList = ShowList(iItem, iSubItem, list);

  000a1	ff 75 fc	 push	 DWORD PTR _list$1[ebp]
  000a4	8b ce		 mov	 ecx, esi
  000a6	53		 push	 ebx
  000a7	57		 push	 edi
  000a8	e8 00 00 00 00	 call	 ?ShowList@CToolandRButtonGrid_ListCtrl@@IAEPAVCComboBox@@HHPAVCStringList@@@Z ; CToolandRButtonGrid_ListCtrl::ShowList
  000ad	5b		 pop	 ebx
  000ae	5f		 pop	 edi

; 195  : 							bResult=TRUE; //I'll handle it from here
; 196  : 						}break;
; 197  : 					default:break;
; 198  : 				}
; 199  : 			}
; 200  : 		}
; 201  : 	}
; 202  : 	return bResult;

  000af	b8 01 00 00 00	 mov	 eax, 1

; 203  : }

  000b4	5e		 pop	 esi
  000b5	8b e5		 mov	 esp, ebp
  000b7	5d		 pop	 ebp
  000b8	c3		 ret	 0
$LN19@OnVkReturn:
  000b9	5b		 pop	 ebx
  000ba	5f		 pop	 edi

; 195  : 							bResult=TRUE; //I'll handle it from here
; 196  : 						}break;
; 197  : 					default:break;
; 198  : 				}
; 199  : 			}
; 200  : 		}
; 201  : 	}
; 202  : 	return bResult;

  000bb	33 c0		 xor	 eax, eax

; 203  : }

  000bd	5e		 pop	 esi
  000be	8b e5		 mov	 esp, ebp
  000c0	5d		 pop	 ebp
  000c1	c3		 ret	 0
$LN18@OnVkReturn:
  000c2	5f		 pop	 edi
  000c3	33 c0		 xor	 eax, eax
  000c5	5e		 pop	 esi
  000c6	8b e5		 mov	 esp, ebp
  000c8	5d		 pop	 ebp
  000c9	c3		 ret	 0
?OnVkReturn@CToolandRButtonGrid_ListCtrl@@UAEHXZ ENDP	; CToolandRButtonGrid_ListCtrl::OnVkReturn
_TEXT	ENDS
; Function compile flags: /Ogtp
; File D:\git\src\IBK\IBK_DRFN\ProjSrc\SrcChartEx\ChartAddIn\ChartDesignPropertyAddIn\ChartDesignPropertyAddIn\ToolandRButtonGrid_ListCtrl.cpp
;	COMDAT ?OnDeleteItem@CToolandRButtonGrid_ListCtrl@@UAEHPAVCTreeItem@CSuperGridCtrl@@H@Z
_TEXT	SEGMENT
_pItem$ = 8						; size = 4
_nIndex$ = 12						; size = 4
?OnDeleteItem@CToolandRButtonGrid_ListCtrl@@UAEHPAVCTreeItem@CSuperGridCtrl@@H@Z PROC ; CToolandRButtonGrid_ListCtrl::OnDeleteItem, COMDAT
; _this$ = ecx

; 283  : 	return 1;

  00000	b8 01 00 00 00	 mov	 eax, 1

; 284  : }

  00005	c2 08 00	 ret	 8
?OnDeleteItem@CToolandRButtonGrid_ListCtrl@@UAEHPAVCTreeItem@CSuperGridCtrl@@H@Z ENDP ; CToolandRButtonGrid_ListCtrl::OnDeleteItem
_TEXT	ENDS
; Function compile flags: /Ogtp
; File D:\git\src\IBK\IBK_DRFN\ProjSrc\SrcChartEx\ChartAddIn\ChartDesignPropertyAddIn\ChartDesignPropertyAddIn\ToolandRButtonGrid_ListCtrl.cpp
;	COMDAT ?OnItemCollapsed@CToolandRButtonGrid_ListCtrl@@UAEHPAVCTreeItem@CSuperGridCtrl@@@Z
_TEXT	SEGMENT
_pItem$ = 8						; size = 4
?OnItemCollapsed@CToolandRButtonGrid_ListCtrl@@UAEHPAVCTreeItem@CSuperGridCtrl@@@Z PROC ; CToolandRButtonGrid_ListCtrl::OnItemCollapsed, COMDAT
; _this$ = ecx

; 309  : 	return 1;

  00000	b8 01 00 00 00	 mov	 eax, 1

; 310  : }

  00005	c2 04 00	 ret	 4
?OnItemCollapsed@CToolandRButtonGrid_ListCtrl@@UAEHPAVCTreeItem@CSuperGridCtrl@@@Z ENDP ; CToolandRButtonGrid_ListCtrl::OnItemCollapsed
_TEXT	ENDS
; Function compile flags: /Ogtp
; File D:\git\src\IBK\IBK_DRFN\ProjSrc\SrcChartEx\ChartAddIn\ChartDesignPropertyAddIn\ChartDesignPropertyAddIn\ToolandRButtonGrid_ListCtrl.cpp
;	COMDAT ?OnCollapsing@CToolandRButtonGrid_ListCtrl@@UAEHPAVCTreeItem@CSuperGridCtrl@@@Z
_TEXT	SEGMENT
_pItem$ = 8						; size = 4
?OnCollapsing@CToolandRButtonGrid_ListCtrl@@UAEHPAVCTreeItem@CSuperGridCtrl@@@Z PROC ; CToolandRButtonGrid_ListCtrl::OnCollapsing, COMDAT
; _this$ = ecx

; 302  : 	return 1;

  00000	b8 01 00 00 00	 mov	 eax, 1

; 303  : }

  00005	c2 04 00	 ret	 4
?OnCollapsing@CToolandRButtonGrid_ListCtrl@@UAEHPAVCTreeItem@CSuperGridCtrl@@@Z ENDP ; CToolandRButtonGrid_ListCtrl::OnCollapsing
_TEXT	ENDS
; Function compile flags: /Ogtp
; File D:\git\src\IBK\IBK_DRFN\ProjSrc\SrcChartEx\ChartAddIn\ChartDesignPropertyAddIn\ChartDesignPropertyAddIn\ToolandRButtonGrid_ListCtrl.cpp
;	COMDAT ?OnItemExpanded@CToolandRButtonGrid_ListCtrl@@UAEHPAVCTreeItem@CSuperGridCtrl@@H@Z
_TEXT	SEGMENT
_pItem$ = 8						; size = 4
_iItem$ = 12						; size = 4
?OnItemExpanded@CToolandRButtonGrid_ListCtrl@@UAEHPAVCTreeItem@CSuperGridCtrl@@H@Z PROC ; CToolandRButtonGrid_ListCtrl::OnItemExpanded, COMDAT
; _this$ = ecx

; 296  : 	return 1;

  00000	b8 01 00 00 00	 mov	 eax, 1

; 297  : }

  00005	c2 08 00	 ret	 8
?OnItemExpanded@CToolandRButtonGrid_ListCtrl@@UAEHPAVCTreeItem@CSuperGridCtrl@@H@Z ENDP ; CToolandRButtonGrid_ListCtrl::OnItemExpanded
_TEXT	ENDS
; Function compile flags: /Ogtp
; File D:\git\src\IBK\IBK_DRFN\ProjSrc\SrcChartEx\ChartAddIn\ChartDesignPropertyAddIn\ChartDesignPropertyAddIn\ToolandRButtonGrid_ListCtrl.cpp
;	COMDAT ?OnItemExpanding@CToolandRButtonGrid_ListCtrl@@UAEHPAVCTreeItem@CSuperGridCtrl@@H@Z
_TEXT	SEGMENT
_pItem$ = 8						; size = 4
_iItem$ = 12						; size = 4
?OnItemExpanding@CToolandRButtonGrid_ListCtrl@@UAEHPAVCTreeItem@CSuperGridCtrl@@H@Z PROC ; CToolandRButtonGrid_ListCtrl::OnItemExpanding, COMDAT
; _this$ = ecx

; 290  : 	return 1;

  00000	b8 01 00 00 00	 mov	 eax, 1

; 291  : }

  00005	c2 08 00	 ret	 8
?OnItemExpanding@CToolandRButtonGrid_ListCtrl@@UAEHPAVCTreeItem@CSuperGridCtrl@@H@Z ENDP ; CToolandRButtonGrid_ListCtrl::OnItemExpanding
_TEXT	ENDS
; Function compile flags: /Ogtp
; File D:\git\src\IBK\IBK_DRFN\ProjSrc\SrcChartEx\ChartAddIn\ChartDesignPropertyAddIn\ChartDesignPropertyAddIn\ToolandRButtonGrid_ListCtrl.cpp
;	COMDAT ?GetCellRGB@CToolandRButtonGrid_ListCtrl@@UAEKXZ
_TEXT	SEGMENT
?GetCellRGB@CToolandRButtonGrid_ListCtrl@@UAEKXZ PROC	; CToolandRButtonGrid_ListCtrl::GetCellRGB, COMDAT
; _this$ = ecx

; 103  : 	return RGB(192,0,0);

  00000	b8 c0 00 00 00	 mov	 eax, 192		; 000000c0H

; 104  : }

  00005	c3		 ret	 0
?GetCellRGB@CToolandRButtonGrid_ListCtrl@@UAEKXZ ENDP	; CToolandRButtonGrid_ListCtrl::GetCellRGB
_TEXT	ENDS
; Function compile flags: /Ogtp
; File D:\git\src\IBK\IBK_DRFN\ProjSrc\SrcChartEx\ChartAddIn\ChartDesignPropertyAddIn\ChartDesignPropertyAddIn\ToolandRButtonGrid_ListCtrl.cpp
;	COMDAT ?GetIcon@CToolandRButtonGrid_ListCtrl@@UAEHPBVCTreeItem@CSuperGridCtrl@@@Z
_TEXT	SEGMENT
_pItem$ = 8						; size = 4
?GetIcon@CToolandRButtonGrid_ListCtrl@@UAEHPBVCTreeItem@CSuperGridCtrl@@@Z PROC ; CToolandRButtonGrid_ListCtrl::GetIcon, COMDAT
; _this$ = ecx

; 109  : {

  00000	55		 push	 ebp
  00001	8b ec		 mov	 ebp, esp
  00003	56		 push	 esi

; 110  : 	if(pItem!=NULL)

  00004	8b 75 08	 mov	 esi, DWORD PTR _pItem$[ebp]
  00007	57		 push	 edi
  00008	8b f9		 mov	 edi, ecx
  0000a	85 f6		 test	 esi, esi
  0000c	74 39		 je	 SHORT $LN2@GetIcon

; 111  : 	{
; 112  : 		int n = GetData(pItem)->GetImage();

  0000e	56		 push	 esi
  0000f	e8 00 00 00 00	 call	 ?GetData@CSuperGridCtrl@@QAEPAVCItemInfo@@PBVCTreeItem@1@@Z ; CSuperGridCtrl::GetData
  00014	8b 40 7c	 mov	 eax, DWORD PTR [eax+124]

; 113  : 		if(n!=-1)

  00017	83 f8 ff	 cmp	 eax, -1
  0001a	75 2d		 jne	 SHORT $LN1@GetIcon

; 114  : 			return n;
; 115  : 		
; 116  : 		int iImage = 0;
; 117  : 		if(ItemHasChildren(pItem))

  0001c	56		 push	 esi
  0001d	8b cf		 mov	 ecx, edi
  0001f	e8 00 00 00 00	 call	 ?ItemHasChildren@CSuperGridCtrl@@QBEHPBVCTreeItem@1@@Z ; CSuperGridCtrl::ItemHasChildren
  00024	85 c0		 test	 eax, eax
  00026	74 14		 je	 SHORT $LN4@GetIcon

; 118  : 		{
; 119  : 			IsCollapsed(pItem) ? iImage = 1/*close icon*/:iImage = 0;/*open icon*/

  00028	56		 push	 esi
  00029	8b cf		 mov	 ecx, edi
  0002b	e8 00 00 00 00	 call	 ?IsCollapsed@CSuperGridCtrl@@QBEHPBVCTreeItem@1@@Z ; CSuperGridCtrl::IsCollapsed
  00030	f7 d8		 neg	 eax
  00032	5f		 pop	 edi
  00033	1b c0		 sbb	 eax, eax
  00035	f7 d8		 neg	 eax

; 126  : }

  00037	5e		 pop	 esi
  00038	5d		 pop	 ebp
  00039	c2 04 00	 ret	 4
$LN4@GetIcon:
  0003c	5f		 pop	 edi

; 120  : 		}
; 121  : 		else
; 122  : 			iImage = 2;//doc icon

  0003d	b8 02 00 00 00	 mov	 eax, 2

; 126  : }

  00042	5e		 pop	 esi
  00043	5d		 pop	 ebp
  00044	c2 04 00	 ret	 4
$LN2@GetIcon:

; 123  : 		return iImage;
; 124  : 	}
; 125  : 	return 0;

  00047	33 c0		 xor	 eax, eax
$LN1@GetIcon:
  00049	5f		 pop	 edi

; 126  : }

  0004a	5e		 pop	 esi
  0004b	5d		 pop	 ebp
  0004c	c2 04 00	 ret	 4
?GetIcon@CToolandRButtonGrid_ListCtrl@@UAEHPBVCTreeItem@CSuperGridCtrl@@@Z ENDP ; CToolandRButtonGrid_ListCtrl::GetIcon
_TEXT	ENDS
; Function compile flags: /Ogtp
; File D:\git\src\IBK\IBK_DRFN\ProjSrc\SrcChartEx\ChartAddIn\ChartDesignPropertyAddIn\ChartDesignPropertyAddIn\ToolandRButtonGrid_ListCtrl.cpp
; File C:\Program Files (x86)\Microsoft Visual Studio\2019\Community\VC\Tools\MSVC\14.29.30133\atlmfc\include\afx.inl
; File D:\git\src\IBK\IBK_DRFN\ProjSrc\SrcChartEx\ChartAddIn\ChartDesignPropertyAddIn\ChartDesignPropertyAddIn\ToolandRButtonGrid_ListCtrl.cpp
; File D:\git\src\IBK\IBK_DRFN\ProjSrc\SrcChartEx\ChartAddIn\ChartDesignPropertyAddIn\ChartDesignPropertyAddIn\SuperGridCtrl.h
; File D:\git\src\IBK\IBK_DRFN\ProjSrc\SrcChartEx\ChartAddIn\ChartDesignPropertyAddIn\ChartDesignPropertyAddIn\ToolandRButtonGrid_ListCtrl.cpp
; File D:\git\src\IBK\IBK_DRFN\ProjSrc\SrcChartEx\ChartAddIn\ChartDesignPropertyAddIn\ChartDesignPropertyAddIn\SuperGridCtrl.h
; File C:\Program Files (x86)\Microsoft Visual Studio\2019\Community\VC\Tools\MSVC\14.29.30133\atlmfc\include\afxtempl.h
; File D:\git\src\IBK\IBK_DRFN\ProjSrc\SrcChartEx\ChartAddIn\ChartDesignPropertyAddIn\ChartDesignPropertyAddIn\SuperGridCtrl.h
; File D:\git\src\IBK\IBK_DRFN\ProjSrc\SrcChartEx\ChartAddIn\ChartDesignPropertyAddIn\ChartDesignPropertyAddIn\ToolandRButtonGrid_ListCtrl.cpp
; File D:\git\src\IBK\IBK_DRFN\ProjSrc\SrcChartEx\ChartAddIn\ChartDesignPropertyAddIn\ChartDesignPropertyAddIn\SuperGridCtrl.h
; File C:\Program Files (x86)\Microsoft Visual Studio\2019\Community\VC\Tools\MSVC\14.29.30133\atlmfc\include\afxtempl.h
; File D:\git\src\IBK\IBK_DRFN\ProjSrc\SrcChartEx\ChartAddIn\ChartDesignPropertyAddIn\ChartDesignPropertyAddIn\SuperGridCtrl.h
; File C:\Program Files (x86)\Microsoft Visual Studio\2019\Community\VC\Tools\MSVC\14.29.30133\atlmfc\include\afxtempl.h
; File D:\git\src\IBK\IBK_DRFN\ProjSrc\SrcChartEx\ChartAddIn\ChartDesignPropertyAddIn\ChartDesignPropertyAddIn\SuperGridCtrl.h
; File C:\Program Files (x86)\Microsoft Visual Studio\2019\Community\VC\Tools\MSVC\14.29.30133\atlmfc\include\afx.inl
; File D:\git\src\IBK\IBK_DRFN\ProjSrc\SrcChartEx\ChartAddIn\ChartDesignPropertyAddIn\ChartDesignPropertyAddIn\SuperGridCtrl.h
; File C:\Program Files (x86)\Microsoft Visual Studio\2019\Community\VC\Tools\MSVC\14.29.30133\atlmfc\include\afxtempl.h
; File D:\git\src\IBK\IBK_DRFN\ProjSrc\SrcChartEx\ChartAddIn\ChartDesignPropertyAddIn\ChartDesignPropertyAddIn\ToolandRButtonGrid_ListCtrl.cpp
;	COMDAT ?CopyData@CToolandRButtonGrid_ListCtrl@@UAEPAVCItemInfo@@PAV2@@Z
_TEXT	SEGMENT
$T4 = -28						; size = 4
_nHashBucket$5 = -24					; size = 4
_nHashValue$6 = -20					; size = 4
$T7 = -16						; size = 4
$T8 = -16						; size = 4
__$EHRec$ = -12						; size = 12
_list$1$ = 8						; size = 4
_enumCtrlType$9 = 8					; size = 4
_lpSrc$ = 8						; size = 4
?CopyData@CToolandRButtonGrid_ListCtrl@@UAEPAVCItemInfo@@PAV2@@Z PROC ; CToolandRButtonGrid_ListCtrl::CopyData, COMDAT
; _this$ = ecx

; 90   : {

  00000	55		 push	 ebp
  00001	8b ec		 mov	 ebp, esp
  00003	6a ff		 push	 -1
  00005	68 00 00 00 00	 push	 __ehhandler$?CopyData@CToolandRButtonGrid_ListCtrl@@UAEPAVCItemInfo@@PAV2@@Z
  0000a	64 a1 00 00 00
	00		 mov	 eax, DWORD PTR fs:0
  00010	50		 push	 eax
  00011	83 ec 10	 sub	 esp, 16			; 00000010H
  00014	53		 push	 ebx
  00015	56		 push	 esi
  00016	57		 push	 edi
  00017	a1 00 00 00 00	 mov	 eax, DWORD PTR ___security_cookie
  0001c	33 c5		 xor	 eax, ebp
  0001e	50		 push	 eax
  0001f	8d 45 f4	 lea	 eax, DWORD PTR __$EHRec$[ebp]
  00022	64 a3 00 00 00
	00		 mov	 DWORD PTR fs:0, eax
; File C:\Program Files (x86)\Microsoft Visual Studio\2019\Community\VC\Tools\MSVC\14.29.30133\atlmfc\include\afx.inl

; 116  : 	{ return ::operator new(nSize); }

  00028	68 84 00 00 00	 push	 132			; 00000084H
  0002d	e8 00 00 00 00	 call	 ??2@YAPAXI@Z		; operator new
  00032	83 c4 04	 add	 esp, 4
; File D:\git\src\IBK\IBK_DRFN\ProjSrc\SrcChartEx\ChartAddIn\ChartDesignPropertyAddIn\ChartDesignPropertyAddIn\ToolandRButtonGrid_ListCtrl.cpp

; 92   : 	CItemInfo* lpDest = new CItemInfo;

  00035	89 45 f0	 mov	 DWORD PTR $T8[ebp], eax
  00038	c7 45 fc 00 00
	00 00		 mov	 DWORD PTR __$EHRec$[ebp+8], 0
  0003f	85 c0		 test	 eax, eax
  00041	74 0e		 je	 SHORT $LN3@CopyData
  00043	8b c8		 mov	 ecx, eax
  00045	e8 00 00 00 00	 call	 ??0CItemInfo@@QAE@XZ	; CItemInfo::CItemInfo
  0004a	8b f8		 mov	 edi, eax
  0004c	89 45 f0	 mov	 DWORD PTR $T7[ebp], eax
  0004f	eb 05		 jmp	 SHORT $LN4@CopyData
$LN3@CopyData:
  00051	33 ff		 xor	 edi, edi
  00053	89 7d f0	 mov	 DWORD PTR $T7[ebp], edi
$LN4@CopyData:
; File D:\git\src\IBK\IBK_DRFN\ProjSrc\SrcChartEx\ChartAddIn\ChartDesignPropertyAddIn\ChartDesignPropertyAddIn\SuperGridCtrl.h

; 83   : 		SetItemText(pItemInfo->GetItemText());

  00056	8b 5d 08	 mov	 ebx, DWORD PTR _lpSrc$[ebp]

; 15   : 	void SetItemText(const CString& strItem){ m_strItemName = strItem; }

  00059	8d 4f 60	 lea	 ecx, DWORD PTR [edi+96]
; File D:\git\src\IBK\IBK_DRFN\ProjSrc\SrcChartEx\ChartAddIn\ChartDesignPropertyAddIn\ChartDesignPropertyAddIn\ToolandRButtonGrid_ListCtrl.cpp

; 92   : 	CItemInfo* lpDest = new CItemInfo;

  0005c	c7 45 fc ff ff
	ff ff		 mov	 DWORD PTR __$EHRec$[ebp+8], -1
; File D:\git\src\IBK\IBK_DRFN\ProjSrc\SrcChartEx\ChartAddIn\ChartDesignPropertyAddIn\ChartDesignPropertyAddIn\SuperGridCtrl.h

; 83   : 		SetItemText(pItemInfo->GetItemText());

  00063	8d 43 60	 lea	 eax, DWORD PTR [ebx+96]

; 15   : 	void SetItemText(const CString& strItem){ m_strItemName = strItem; }

  00066	50		 push	 eax
  00067	ff 15 00 00 00
	00		 call	 DWORD PTR __imp_??4?$CStringT@DV?$StrTraitMFC_DLL@DV?$ChTraitsCRT@D@ATL@@@@@ATL@@QAEAAV01@ABV01@@Z

; 84   : 		m_SubItems.Copy(pItemInfo->m_SubItems);

  0006d	8d 43 64	 lea	 eax, DWORD PTR [ebx+100]
  00070	50		 push	 eax
  00071	8d 4f 64	 lea	 ecx, DWORD PTR [edi+100]
  00074	e8 00 00 00 00	 call	 ?Copy@CStringArray@@QAEXABV1@@Z ; CStringArray::Copy

; 95   : 		for(int nCol=0; nCol < pItemInfo->GetItemCount(); nCol++)

  00079	33 f6		 xor	 esi, esi
  0007b	39 73 6c	 cmp	 DWORD PTR [ebx+108], esi
  0007e	7e 54		 jle	 SHORT $LN14@CopyData
  00080	b9 1d f3 01 00	 mov	 ecx, 127773		; 0001f31dH
$LL15@CopyData:
; File C:\Program Files (x86)\Microsoft Visual Studio\2019\Community\VC\Tools\MSVC\14.29.30133\atlmfc\include\afxtempl.h

; 165  : 	ldiv_t HashVal = ldiv((long)(ARG_KEY)key, 127773);

  00085	8b c6		 mov	 eax, esi
  00087	99		 cdq
  00088	f7 f9		 idiv	 ecx

; 166  : 	HashVal.rem = 16807 * HashVal.rem - 2836 * HashVal.quot;

  0008a	69 c0 14 0b 00
	00		 imul	 eax, eax, 2836
  00090	69 ca a7 41 00
	00		 imul	 ecx, edx, 16807
  00096	2b c8		 sub	 ecx, eax

; 1534 : 	nHashBucket = nHashValue % m_nHashTableSize;

  00098	8d b9 ff ff ff
	7f		 lea	 edi, DWORD PTR [ecx+2147483647]
  0009e	0f 49 f9	 cmovns	 edi, ecx
  000a1	33 d2		 xor	 edx, edx
  000a3	8b c7		 mov	 eax, edi
  000a5	f7 73 14	 div	 DWORD PTR [ebx+20]

; 1535 : 
; 1536 : 	if (m_pHashTable == NULL)

  000a8	8b 43 10	 mov	 eax, DWORD PTR [ebx+16]
  000ab	85 c0		 test	 eax, eax
  000ad	74 17		 je	 SHORT $LN79@CopyData

; 1541 : 	for (pAssoc = m_pHashTable[nHashBucket]; pAssoc != NULL; pAssoc = pAssoc->pNext)

  000af	8b 04 90	 mov	 eax, DWORD PTR [eax+edx*4]
  000b2	85 c0		 test	 eax, eax
  000b4	74 10		 je	 SHORT $LN79@CopyData
$LL28@CopyData:

; 1542 : 	{
; 1543 : 		if (pAssoc->nHashValue == nHashValue && CompareElements(&pAssoc->key, &key))

  000b6	39 78 0c	 cmp	 DWORD PTR [eax+12], edi
  000b9	75 04		 jne	 SHORT $LN26@CopyData
  000bb	39 30		 cmp	 DWORD PTR [eax], esi
  000bd	74 51		 je	 SHORT $LN23@CopyData
$LN26@CopyData:

; 1541 : 	for (pAssoc = m_pHashTable[nHashBucket]; pAssoc != NULL; pAssoc = pAssoc->pNext)

  000bf	8b 40 08	 mov	 eax, DWORD PTR [eax+8]
  000c2	85 c0		 test	 eax, eax
  000c4	75 f0		 jne	 SHORT $LL28@CopyData
$LN79@CopyData:
; File D:\git\src\IBK\IBK_DRFN\ProjSrc\SrcChartEx\ChartAddIn\ChartDesignPropertyAddIn\ChartDesignPropertyAddIn\SuperGridCtrl.h

; 95   : 		for(int nCol=0; nCol < pItemInfo->GetItemCount(); nCol++)

  000c6	8b 7d f0	 mov	 edi, DWORD PTR $T7[ebp]
$LN13@CopyData:
  000c9	46		 inc	 esi
  000ca	b9 1d f3 01 00	 mov	 ecx, 127773		; 0001f31dH
  000cf	3b 73 6c	 cmp	 esi, DWORD PTR [ebx+108]
  000d2	7c b1		 jl	 SHORT $LL15@CopyData
$LN14@CopyData:

; 86   : 		CopyColors(pItemInfo);

  000d4	53		 push	 ebx
  000d5	8b cf		 mov	 ecx, edi
  000d7	e8 00 00 00 00	 call	 ?CopyColors@CItemInfo@@QAEXPAV1@@Z ; CItemInfo::CopyColors

; 87   : 		SetCheck(pItemInfo->GetCheck());

  000dc	8b 43 78	 mov	 eax, DWORD PTR [ebx+120]
  000df	89 47 78	 mov	 DWORD PTR [edi+120], eax

; 88   : 		SetImage(pItemInfo->GetImage());

  000e2	8b 43 7c	 mov	 eax, DWORD PTR [ebx+124]
  000e5	89 47 7c	 mov	 DWORD PTR [edi+124], eax

; 89   : 		m_lParam = pItemInfo->m_lParam;

  000e8	8b 43 04	 mov	 eax, DWORD PTR [ebx+4]
  000eb	89 47 04	 mov	 DWORD PTR [edi+4], eax

; 90   : 		m_clf=pItemInfo->m_clf;

  000ee	8b 83 80 00 00
	00		 mov	 eax, DWORD PTR [ebx+128]
  000f4	89 87 80 00 00
	00		 mov	 DWORD PTR [edi+128], eax
; File D:\git\src\IBK\IBK_DRFN\ProjSrc\SrcChartEx\ChartAddIn\ChartDesignPropertyAddIn\ChartDesignPropertyAddIn\ToolandRButtonGrid_ListCtrl.cpp

; 96   : 	return lpDest;

  000fa	8b c7		 mov	 eax, edi

; 97   : }

  000fc	8b 4d f4	 mov	 ecx, DWORD PTR __$EHRec$[ebp]
  000ff	64 89 0d 00 00
	00 00		 mov	 DWORD PTR fs:0, ecx
  00106	59		 pop	 ecx
  00107	5f		 pop	 edi
  00108	5e		 pop	 esi
  00109	5b		 pop	 ebx
  0010a	8b e5		 mov	 esp, ebp
  0010c	5d		 pop	 ebp
  0010d	c2 04 00	 ret	 4
$LN23@CopyData:
; File D:\git\src\IBK\IBK_DRFN\ProjSrc\SrcChartEx\ChartAddIn\ChartDesignPropertyAddIn\ChartDesignPropertyAddIn\SuperGridCtrl.h

; 100  : 				SetControlType(ctrlType, nCol);

  00110	8b 40 04	 mov	 eax, DWORD PTR [eax+4]

; 36   : 	void SetControlType(CONTROLTYPE enumCtrlType, int nCol=-1){ m_controlType.SetAt(nCol, enumCtrlType); }

  00113	8b 7d f0	 mov	 edi, DWORD PTR $T7[ebp]

; 100  : 				SetControlType(ctrlType, nCol);

  00116	89 45 08	 mov	 DWORD PTR _enumCtrlType$9[ebp], eax

; 36   : 	void SetControlType(CONTROLTYPE enumCtrlType, int nCol=-1){ m_controlType.SetAt(nCol, enumCtrlType); }

  00119	8d 45 08	 lea	 eax, DWORD PTR _enumCtrlType$9[ebp]
  0011c	50		 push	 eax
  0011d	56		 push	 esi
  0011e	8d 4f 0c	 lea	 ecx, DWORD PTR [edi+12]
  00121	e8 00 00 00 00	 call	 ?SetAt@?$CMap@HHW4CONTROLTYPE@CItemInfo@@AAW412@@@QAEXHAAW4CONTROLTYPE@CItemInfo@@@Z ; CMap<int,int,enum CItemInfo::CONTROLTYPE,enum CItemInfo::CONTROLTYPE &>::SetAt
; File C:\Program Files (x86)\Microsoft Visual Studio\2019\Community\VC\Tools\MSVC\14.29.30133\atlmfc\include\afxtempl.h

; 1555 : 	CAssoc* pAssoc = GetAssocAt(key, nHashBucket, nHashValue);

  00126	8d 45 ec	 lea	 eax, DWORD PTR _nHashValue$6[ebp]
  00129	50		 push	 eax
  0012a	8d 45 e8	 lea	 eax, DWORD PTR _nHashBucket$5[ebp]
  0012d	50		 push	 eax
  0012e	56		 push	 esi
; File D:\git\src\IBK\IBK_DRFN\ProjSrc\SrcChartEx\ChartAddIn\ChartDesignPropertyAddIn\ChartDesignPropertyAddIn\SuperGridCtrl.h

; 58   : 		return m_listdata.Lookup(iSubItem, pList);

  0012f	8d 4b 44	 lea	 ecx, DWORD PTR [ebx+68]
; File C:\Program Files (x86)\Microsoft Visual Studio\2019\Community\VC\Tools\MSVC\14.29.30133\atlmfc\include\afxtempl.h

; 1555 : 	CAssoc* pAssoc = GetAssocAt(key, nHashBucket, nHashValue);

  00132	e8 00 00 00 00	 call	 ?GetAssocAt@?$CMap@HHPAVCStringList@@PAV1@@@IBEPAVCAssoc@1@HAAI0@Z ; CMap<int,int,CStringList *,CStringList *>::GetAssocAt

; 1556 : 	if (pAssoc == NULL)

  00137	85 c0		 test	 eax, eax
  00139	74 8e		 je	 SHORT $LN13@CopyData

; 1557 : 		return FALSE;  // not in map
; 1558 : 
; 1559 : 	rValue = pAssoc->value;

  0013b	8b 40 04	 mov	 eax, DWORD PTR [eax+4]
  0013e	89 45 08	 mov	 DWORD PTR _list$1$[ebp], eax
; File D:\git\src\IBK\IBK_DRFN\ProjSrc\SrcChartEx\ChartAddIn\ChartDesignPropertyAddIn\ChartDesignPropertyAddIn\SuperGridCtrl.h

; 104  : 				if(list!=NULL)

  00141	85 c0		 test	 eax, eax
  00143	74 84		 je	 SHORT $LN13@CopyData
; File C:\Program Files (x86)\Microsoft Visual Studio\2019\Community\VC\Tools\MSVC\14.29.30133\atlmfc\include\afx.inl

; 116  : 	{ return ::operator new(nSize); }

  00145	6a 1c		 push	 28			; 0000001cH
  00147	e8 00 00 00 00	 call	 ??2@YAPAXI@Z		; operator new
  0014c	83 c4 04	 add	 esp, 4
; File D:\git\src\IBK\IBK_DRFN\ProjSrc\SrcChartEx\ChartAddIn\ChartDesignPropertyAddIn\ChartDesignPropertyAddIn\SuperGridCtrl.h

; 51   : 		list = new CStringList;//will be deleted in destructor

  0014f	89 45 e4	 mov	 DWORD PTR $T4[ebp], eax
  00152	c7 45 fc 01 00
	00 00		 mov	 DWORD PTR __$EHRec$[ebp+8], 1
  00159	85 c0		 test	 eax, eax
  0015b	74 0d		 je	 SHORT $LN56@CopyData
  0015d	6a 0a		 push	 10			; 0000000aH
  0015f	8b c8		 mov	 ecx, eax
  00161	e8 00 00 00 00	 call	 ??0CStringList@@QAE@H@Z	; CStringList::CStringList
  00166	8b f8		 mov	 edi, eax
  00168	eb 02		 jmp	 SHORT $LN57@CopyData
$LN56@CopyData:
  0016a	33 ff		 xor	 edi, edi
$LN57@CopyData:

; 52   : 		list->AddTail(strInitArr);

  0016c	ff 75 08	 push	 DWORD PTR _list$1$[ebp]
  0016f	8b cf		 mov	 ecx, edi
  00171	c7 45 fc ff ff
	ff ff		 mov	 DWORD PTR __$EHRec$[ebp+8], -1
  00178	e8 00 00 00 00	 call	 ?AddTail@CStringList@@QAEXPAV1@@Z ; CStringList::AddTail

; 53   : 		m_listdata.SetAt(iSubItem, list);

  0017d	57		 push	 edi
  0017e	8b 7d f0	 mov	 edi, DWORD PTR $T7[ebp]
  00181	56		 push	 esi
  00182	8d 4f 44	 lea	 ecx, DWORD PTR [edi+68]
  00185	e8 00 00 00 00	 call	 ?SetAt@?$CMap@HHPAVCStringList@@PAV1@@@QAEXHPAVCStringList@@@Z ; CMap<int,int,CStringList *,CStringList *>::SetAt
; File C:\Program Files (x86)\Microsoft Visual Studio\2019\Community\VC\Tools\MSVC\14.29.30133\atlmfc\include\afxtempl.h

; 1541 : 	for (pAssoc = m_pHashTable[nHashBucket]; pAssoc != NULL; pAssoc = pAssoc->pNext)

  0018a	e9 3a ff ff ff	 jmp	 $LN13@CopyData
_TEXT	ENDS
;	COMDAT text$x
text$x	SEGMENT
__unwindfunclet$?CopyData@CToolandRButtonGrid_ListCtrl@@UAEPAVCItemInfo@@PAV2@@Z$0:
  00000	8b 45 f0	 mov	 eax, DWORD PTR $T8[ebp]
  00003	50		 push	 eax
  00004	e8 00 00 00 00	 call	 ??3CObject@@SGXPAX@Z	; CObject::operator delete
  00009	c3		 ret	 0
__unwindfunclet$?CopyData@CToolandRButtonGrid_ListCtrl@@UAEPAVCItemInfo@@PAV2@@Z$1:
  0000a	8b 45 e4	 mov	 eax, DWORD PTR $T4[ebp]
  0000d	50		 push	 eax
  0000e	e8 00 00 00 00	 call	 ??3CObject@@SGXPAX@Z	; CObject::operator delete
  00013	c3		 ret	 0
  00014	cc		 int	 3
  00015	cc		 int	 3
  00016	cc		 int	 3
  00017	cc		 int	 3
  00018	cc		 int	 3
__ehhandler$?CopyData@CToolandRButtonGrid_ListCtrl@@UAEPAVCItemInfo@@PAV2@@Z:
  00019	90		 npad	 1
  0001a	90		 npad	 1
  0001b	8b 54 24 08	 mov	 edx, DWORD PTR [esp+8]
  0001f	8d 42 0c	 lea	 eax, DWORD PTR [edx+12]
  00022	8b 4a e0	 mov	 ecx, DWORD PTR [edx-32]
  00025	33 c8		 xor	 ecx, eax
  00027	e8 00 00 00 00	 call	 @__security_check_cookie@4
  0002c	b8 00 00 00 00	 mov	 eax, OFFSET __ehfuncinfo$?CopyData@CToolandRButtonGrid_ListCtrl@@UAEPAVCItemInfo@@PAV2@@Z
  00031	e9 00 00 00 00	 jmp	 ___CxxFrameHandler3
text$x	ENDS
?CopyData@CToolandRButtonGrid_ListCtrl@@UAEPAVCItemInfo@@PAV2@@Z ENDP ; CToolandRButtonGrid_ListCtrl::CopyData
; Function compile flags: /Ogtp
; File D:\git\src\IBK\IBK_DRFN\ProjSrc\SrcChartEx\ChartAddIn\ChartDesignPropertyAddIn\ChartDesignPropertyAddIn\ToolandRButtonGrid_ListCtrl.cpp
;	COMDAT ?OnUpdateListViewItem@CToolandRButtonGrid_ListCtrl@@UAEXPAVCTreeItem@CSuperGridCtrl@@PAUtagLVITEMA@@@Z
_TEXT	SEGMENT
_lpItem$ = 8						; size = 4
_plvItem$ = 12						; size = 4
?OnUpdateListViewItem@CToolandRButtonGrid_ListCtrl@@UAEXPAVCTreeItem@CSuperGridCtrl@@PAUtagLVITEMA@@@Z PROC ; CToolandRButtonGrid_ListCtrl::OnUpdateListViewItem, COMDAT
; _this$ = ecx

; 132  : {

  00000	55		 push	 ebp
  00001	8b ec		 mov	 ebp, esp
  00003	53		 push	 ebx

; 133  : 	CItemInfo *lp = GetData(lpItem);

  00004	ff 75 08	 push	 DWORD PTR _lpItem$[ebp]
  00007	8b d9		 mov	 ebx, ecx
  00009	e8 00 00 00 00	 call	 ?GetData@CSuperGridCtrl@@QAEPAVCItemInfo@@PBVCTreeItem@1@@Z ; CSuperGridCtrl::GetData

; 134  : 
; 135  : 	m_pItemInfoManager->ChangeItemInfo(lp->GetItemText(), plvItem);

  0000e	ff 75 0c	 push	 DWORD PTR _plvItem$[ebp]
  00011	8b 8b f8 00 00
	00		 mov	 ecx, DWORD PTR [ebx+248]
  00017	83 c0 60	 add	 eax, 96			; 00000060H
  0001a	50		 push	 eax
  0001b	e8 00 00 00 00	 call	 ?ChangeItemInfo@CToolandRButtonItemMgr@@QAEXABV?$CStringT@DV?$StrTraitMFC_DLL@DV?$ChTraitsCRT@D@ATL@@@@@ATL@@PAUtagLVITEMA@@@Z ; CToolandRButtonItemMgr::ChangeItemInfo

; 136  : 	CSuperGridCtrl::OnUpdateListViewItem(lpItem, plvItem);

  00020	ff 75 0c	 push	 DWORD PTR _plvItem$[ebp]
  00023	8b cb		 mov	 ecx, ebx
  00025	ff 75 08	 push	 DWORD PTR _lpItem$[ebp]
  00028	e8 00 00 00 00	 call	 ?OnUpdateListViewItem@CSuperGridCtrl@@UAEXPAVCTreeItem@1@PAUtagLVITEMA@@@Z ; CSuperGridCtrl::OnUpdateListViewItem
  0002d	5b		 pop	 ebx

; 137  : }

  0002e	5d		 pop	 ebp
  0002f	c2 08 00	 ret	 8
?OnUpdateListViewItem@CToolandRButtonGrid_ListCtrl@@UAEXPAVCTreeItem@CSuperGridCtrl@@PAUtagLVITEMA@@@Z ENDP ; CToolandRButtonGrid_ListCtrl::OnUpdateListViewItem
_TEXT	ENDS
; Function compile flags: /Ogtp
; File D:\git\src\IBK\IBK_DRFN\ProjSrc\SrcChartEx\ChartAddIn\ChartDesignPropertyAddIn\ChartDesignPropertyAddIn\ToolandRButtonGrid_ListCtrl.cpp
; File C:\Program Files (x86)\Microsoft Visual Studio\2019\Community\VC\Tools\MSVC\14.29.30133\atlmfc\include\afxtempl.h
; File D:\git\src\IBK\IBK_DRFN\ProjSrc\SrcChartEx\ChartAddIn\ChartDesignPropertyAddIn\ChartDesignPropertyAddIn\ToolandRButtonGrid_ListCtrl.cpp
; File C:\Program Files (x86)\Microsoft Visual Studio\2019\Community\VC\Tools\MSVC\14.29.30133\atlmfc\include\afxtempl.h
; File D:\git\src\IBK\IBK_DRFN\ProjSrc\SrcChartEx\ChartAddIn\ChartDesignPropertyAddIn\ChartDesignPropertyAddIn\SuperGridCtrl.h
; File C:\Program Files (x86)\Microsoft Visual Studio\2019\Community\VC\Tools\MSVC\14.29.30133\atlmfc\include\afxtempl.h
; File D:\git\src\IBK\IBK_DRFN\ProjSrc\SrcChartEx\ChartAddIn\ChartDesignPropertyAddIn\ChartDesignPropertyAddIn\ToolandRButtonGrid_ListCtrl.cpp
; File C:\Program Files (x86)\Microsoft Visual Studio\2019\Community\VC\Tools\MSVC\14.29.30133\atlmfc\include\afxtempl.h
; File D:\git\src\IBK\IBK_DRFN\ProjSrc\SrcChartEx\ChartAddIn\ChartDesignPropertyAddIn\ChartDesignPropertyAddIn\ToolandRButtonGrid_ListCtrl.cpp
; File C:\Program Files (x86)\Microsoft Visual Studio\2019\Community\VC\Tools\MSVC\14.29.30133\atlmfc\include\afxtempl.h
; File D:\git\src\IBK\IBK_DRFN\ProjSrc\SrcChartEx\ChartAddIn\ChartDesignPropertyAddIn\ChartDesignPropertyAddIn\ToolandRButtonGrid_ListCtrl.cpp
; File C:\Program Files (x86)\Microsoft Visual Studio\2019\Community\VC\Tools\MSVC\14.29.30133\atlmfc\include\afxtempl.h
; File D:\git\src\IBK\IBK_DRFN\ProjSrc\SrcChartEx\ChartAddIn\ChartDesignPropertyAddIn\ChartDesignPropertyAddIn\SuperGridCtrl.h
; File D:\git\src\IBK\IBK_DRFN\ProjSrc\SrcChartEx\ChartAddIn\ChartDesignPropertyAddIn\ChartDesignPropertyAddIn\ToolandRButtonGrid_ListCtrl.cpp
; File C:\Program Files (x86)\Microsoft Visual Studio\2019\Community\VC\Tools\MSVC\14.29.30133\atlmfc\include\afxtempl.h
; File D:\git\src\IBK\IBK_DRFN\ProjSrc\SrcChartEx\ChartAddIn\ChartDesignPropertyAddIn\ChartDesignPropertyAddIn\SuperGridCtrl.h
; File C:\Program Files (x86)\Microsoft Visual Studio\2019\Community\VC\Tools\MSVC\14.29.30133\atlmfc\include\afxtempl.h
; File D:\git\src\IBK\IBK_DRFN\ProjSrc\SrcChartEx\ChartAddIn\ChartDesignPropertyAddIn\ChartDesignPropertyAddIn\ToolandRButtonGrid_ListCtrl.cpp
;	COMDAT ?OnControlLButtonDown@CToolandRButtonGrid_ListCtrl@@UAEXIVCPoint@@AAUtagLVHITTESTINFO@@@Z
_TEXT	SEGMENT
_nHashValue$1 = -8					; size = 4
_nHashBucket$2 = -8					; size = 4
_nHashBucket$3 = -4					; size = 4
_nHashValue$4 = -4					; size = 4
_nFlags$ = 8						; size = 4
_point$ = 12						; size = 8
_pInfo$1$ = 20						; size = 4
_ht$ = 20						; size = 4
?OnControlLButtonDown@CToolandRButtonGrid_ListCtrl@@UAEXIVCPoint@@AAUtagLVHITTESTINFO@@@Z PROC ; CToolandRButtonGrid_ListCtrl::OnControlLButtonDown, COMDAT
; _this$ = ecx

; 146  : {

  00000	55		 push	 ebp
  00001	8b ec		 mov	 ebp, esp
  00003	83 ec 08	 sub	 esp, 8
  00006	56		 push	 esi

; 147  : 	//now I am sure I added a combobox some where, so check for this control
; 148  : 	CTreeItem* pSelItem = GetTreeItem(ht.iItem);

  00007	8b 75 14	 mov	 esi, DWORD PTR _ht$[ebp]
  0000a	57		 push	 edi
  0000b	8b f9		 mov	 edi, ecx
  0000d	ff 76 0c	 push	 DWORD PTR [esi+12]
  00010	e8 00 00 00 00	 call	 ?GetTreeItem@CSuperGridCtrl@@QAEPAVCTreeItem@1@H@Z ; CSuperGridCtrl::GetTreeItem

; 149  : 	if(pSelItem!=NULL)

  00015	85 c0		 test	 eax, eax
  00017	74 5b		 je	 SHORT $LN4@OnControlL

; 151  : 		CItemInfo* pInfo = GetData(pSelItem);

  00019	50		 push	 eax
  0001a	8b cf		 mov	 ecx, edi
  0001c	e8 00 00 00 00	 call	 ?GetData@CSuperGridCtrl@@QAEPAVCItemInfo@@PBVCTreeItem@1@@Z ; CSuperGridCtrl::GetData

; 152  : 		CItemInfo::CONTROLTYPE ctrlType;
; 153  : 		if(pInfo->GetControlType(ht.iSubItem-1, ctrlType))

  00021	8b 4e 10	 mov	 ecx, DWORD PTR [esi+16]
; File C:\Program Files (x86)\Microsoft Visual Studio\2019\Community\VC\Tools\MSVC\14.29.30133\atlmfc\include\afxtempl.h

; 1555 : 	CAssoc* pAssoc = GetAssocAt(key, nHashBucket, nHashValue);

  00024	8d 55 fc	 lea	 edx, DWORD PTR _nHashValue$4[ebp]
  00027	52		 push	 edx
  00028	8d 55 f8	 lea	 edx, DWORD PTR _nHashBucket$2[ebp]
; File D:\git\src\IBK\IBK_DRFN\ProjSrc\SrcChartEx\ChartAddIn\ChartDesignPropertyAddIn\ChartDesignPropertyAddIn\ToolandRButtonGrid_ListCtrl.cpp

; 151  : 		CItemInfo* pInfo = GetData(pSelItem);

  0002b	89 45 14	 mov	 DWORD PTR _pInfo$1$[ebp], eax

; 152  : 		CItemInfo::CONTROLTYPE ctrlType;
; 153  : 		if(pInfo->GetControlType(ht.iSubItem-1, ctrlType))

  0002e	49		 dec	 ecx
; File C:\Program Files (x86)\Microsoft Visual Studio\2019\Community\VC\Tools\MSVC\14.29.30133\atlmfc\include\afxtempl.h

; 1555 : 	CAssoc* pAssoc = GetAssocAt(key, nHashBucket, nHashValue);

  0002f	52		 push	 edx
  00030	51		 push	 ecx
; File D:\git\src\IBK\IBK_DRFN\ProjSrc\SrcChartEx\ChartAddIn\ChartDesignPropertyAddIn\ChartDesignPropertyAddIn\SuperGridCtrl.h

; 40   : 		if(!m_controlType.Lookup(nCol, controlType))

  00031	8d 48 0c	 lea	 ecx, DWORD PTR [eax+12]
; File C:\Program Files (x86)\Microsoft Visual Studio\2019\Community\VC\Tools\MSVC\14.29.30133\atlmfc\include\afxtempl.h

; 1555 : 	CAssoc* pAssoc = GetAssocAt(key, nHashBucket, nHashValue);

  00034	e8 00 00 00 00	 call	 ?GetAssocAt@?$CMap@HHW4CONTROLTYPE@CItemInfo@@AAW412@@@IBEPAVCAssoc@1@HAAI0@Z ; CMap<int,int,enum CItemInfo::CONTROLTYPE,enum CItemInfo::CONTROLTYPE &>::GetAssocAt

; 1556 : 	if (pAssoc == NULL)

  00039	85 c0		 test	 eax, eax
  0003b	74 37		 je	 SHORT $LN4@OnControlL
; File D:\git\src\IBK\IBK_DRFN\ProjSrc\SrcChartEx\ChartAddIn\ChartDesignPropertyAddIn\ChartDesignPropertyAddIn\ToolandRButtonGrid_ListCtrl.cpp

; 155  : 			if(ctrlType==pInfo->CONTROLTYPE::combobox) 

  0003d	83 78 04 01	 cmp	 DWORD PTR [eax+4], 1
  00041	75 31		 jne	 SHORT $LN4@OnControlL

; 158  : 				pInfo->GetListData(ht.iSubItem-1, list);

  00043	8b 46 10	 mov	 eax, DWORD PTR [esi+16]
; File C:\Program Files (x86)\Microsoft Visual Studio\2019\Community\VC\Tools\MSVC\14.29.30133\atlmfc\include\afxtempl.h

; 1555 : 	CAssoc* pAssoc = GetAssocAt(key, nHashBucket, nHashValue);

  00046	8d 4d f8	 lea	 ecx, DWORD PTR _nHashValue$1[ebp]
; File D:\git\src\IBK\IBK_DRFN\ProjSrc\SrcChartEx\ChartAddIn\ChartDesignPropertyAddIn\ChartDesignPropertyAddIn\ToolandRButtonGrid_ListCtrl.cpp

; 157  : 				CStringList* list=NULL;

  00049	53		 push	 ebx
; File C:\Program Files (x86)\Microsoft Visual Studio\2019\Community\VC\Tools\MSVC\14.29.30133\atlmfc\include\afxtempl.h

; 1555 : 	CAssoc* pAssoc = GetAssocAt(key, nHashBucket, nHashValue);

  0004a	51		 push	 ecx
  0004b	8d 4d fc	 lea	 ecx, DWORD PTR _nHashBucket$3[ebp]
; File D:\git\src\IBK\IBK_DRFN\ProjSrc\SrcChartEx\ChartAddIn\ChartDesignPropertyAddIn\ChartDesignPropertyAddIn\ToolandRButtonGrid_ListCtrl.cpp

; 158  : 				pInfo->GetListData(ht.iSubItem-1, list);

  0004e	48		 dec	 eax
; File C:\Program Files (x86)\Microsoft Visual Studio\2019\Community\VC\Tools\MSVC\14.29.30133\atlmfc\include\afxtempl.h

; 1555 : 	CAssoc* pAssoc = GetAssocAt(key, nHashBucket, nHashValue);

  0004f	51		 push	 ecx
; File D:\git\src\IBK\IBK_DRFN\ProjSrc\SrcChartEx\ChartAddIn\ChartDesignPropertyAddIn\ChartDesignPropertyAddIn\SuperGridCtrl.h

; 58   : 		return m_listdata.Lookup(iSubItem, pList);

  00050	8b 4d 14	 mov	 ecx, DWORD PTR _pInfo$1$[ebp]
; File D:\git\src\IBK\IBK_DRFN\ProjSrc\SrcChartEx\ChartAddIn\ChartDesignPropertyAddIn\ChartDesignPropertyAddIn\ToolandRButtonGrid_ListCtrl.cpp

; 157  : 				CStringList* list=NULL;

  00053	33 db		 xor	 ebx, ebx
; File C:\Program Files (x86)\Microsoft Visual Studio\2019\Community\VC\Tools\MSVC\14.29.30133\atlmfc\include\afxtempl.h

; 1555 : 	CAssoc* pAssoc = GetAssocAt(key, nHashBucket, nHashValue);

  00055	50		 push	 eax
; File D:\git\src\IBK\IBK_DRFN\ProjSrc\SrcChartEx\ChartAddIn\ChartDesignPropertyAddIn\ChartDesignPropertyAddIn\SuperGridCtrl.h

; 58   : 		return m_listdata.Lookup(iSubItem, pList);

  00056	83 c1 44	 add	 ecx, 68			; 00000044H
; File C:\Program Files (x86)\Microsoft Visual Studio\2019\Community\VC\Tools\MSVC\14.29.30133\atlmfc\include\afxtempl.h

; 1555 : 	CAssoc* pAssoc = GetAssocAt(key, nHashBucket, nHashValue);

  00059	e8 00 00 00 00	 call	 ?GetAssocAt@?$CMap@HHPAVCStringList@@PAV1@@@IBEPAVCAssoc@1@HAAI0@Z ; CMap<int,int,CStringList *,CStringList *>::GetAssocAt

; 1556 : 	if (pAssoc == NULL)

  0005e	85 c0		 test	 eax, eax
  00060	74 03		 je	 SHORT $LN14@OnControlL

; 1557 : 		return FALSE;  // not in map
; 1558 : 
; 1559 : 	rValue = pAssoc->value;

  00062	8b 58 04	 mov	 ebx, DWORD PTR [eax+4]
$LN14@OnControlL:
; File D:\git\src\IBK\IBK_DRFN\ProjSrc\SrcChartEx\ChartAddIn\ChartDesignPropertyAddIn\ChartDesignPropertyAddIn\ToolandRButtonGrid_ListCtrl.cpp

; 159  : 				CComboBox * pList = ShowList(ht.iItem, ht.iSubItem, list);

  00065	53		 push	 ebx
  00066	ff 76 10	 push	 DWORD PTR [esi+16]
  00069	8b cf		 mov	 ecx, edi
  0006b	ff 76 0c	 push	 DWORD PTR [esi+12]
  0006e	e8 00 00 00 00	 call	 ?ShowList@CToolandRButtonGrid_ListCtrl@@IAEPAVCComboBox@@HHPAVCStringList@@@Z ; CToolandRButtonGrid_ListCtrl::ShowList
  00073	5b		 pop	 ebx
$LN4@OnControlL:

; 160  : 			}
; 161  : 		}	
; 162  : 		/*
; 163  : 		else //activate default edit control
; 164  : 			CSuperGridCtrl::OnControlLButtonDown(nFlags, point, ht);
; 165  : 		*/
; 166  : 	}		
; 167  : }

  00074	5f		 pop	 edi
  00075	5e		 pop	 esi
  00076	8b e5		 mov	 esp, ebp
  00078	5d		 pop	 ebp
  00079	c2 10 00	 ret	 16			; 00000010H
?OnControlLButtonDown@CToolandRButtonGrid_ListCtrl@@UAEXIVCPoint@@AAUtagLVHITTESTINFO@@@Z ENDP ; CToolandRButtonGrid_ListCtrl::OnControlLButtonDown
_TEXT	ENDS
; Function compile flags: /Ogtp
; File D:\git\src\IBK\IBK_DRFN\ProjSrc\SrcChartEx\ChartAddIn\ChartDesignPropertyAddIn\ChartDesignPropertyAddIn\ToolandRButtonGrid_ListCtrl.cpp
;	COMDAT ?CreateDragImageEx@CToolandRButtonGrid_ListCtrl@@UAEPAVCImageList@@H@Z
_TEXT	SEGMENT
_nItem$ = 8						; size = 4
?CreateDragImageEx@CToolandRButtonGrid_ListCtrl@@UAEPAVCImageList@@H@Z PROC ; CToolandRButtonGrid_ListCtrl::CreateDragImageEx, COMDAT
; _this$ = ecx

; 315  : 	if(m_bDrag)

  00000	83 b9 e8 00 00
	00 00		 cmp	 DWORD PTR [ecx+232], 0
  00007	74 0e		 je	 SHORT $LN2@CreateDrag

; 316  : 		return CSuperGridCtrl::CreateDragImageEx(GetDragItem());

  00009	ff b1 b4 00 00
	00		 push	 DWORD PTR [ecx+180]
  0000f	e8 00 00 00 00	 call	 ?CreateDragImageEx@CSuperGridCtrl@@UAEPAVCImageList@@H@Z ; CSuperGridCtrl::CreateDragImageEx

; 319  : }

  00014	c2 04 00	 ret	 4
$LN2@CreateDrag:

; 317  : 	else
; 318  : 		return NULL;

  00017	33 c0		 xor	 eax, eax

; 319  : }

  00019	c2 04 00	 ret	 4
?CreateDragImageEx@CToolandRButtonGrid_ListCtrl@@UAEPAVCImageList@@H@Z ENDP ; CToolandRButtonGrid_ListCtrl::CreateDragImageEx
_TEXT	ENDS
; Function compile flags: /Ogtp
; File D:\git\src\IBK\IBK_DRFN\ProjSrc\SrcChartEx\ChartAddIn\ChartDesignPropertyAddIn\ChartDesignPropertyAddIn\ToolandRButtonGrid_ListCtrl.cpp
; File C:\Program Files (x86)\Microsoft Visual Studio\2019\Community\VC\Tools\MSVC\14.29.30133\atlmfc\include\afxcmn2.inl
; File D:\git\src\IBK\IBK_DRFN\ProjSrc\SrcChartEx\ChartAddIn\ChartDesignPropertyAddIn\ChartDesignPropertyAddIn\ToolandRButtonGrid_ListCtrl.cpp
; File D:\git\src\IBK\IBK_DRFN\ProjSrc\SrcChartEx\ChartAddIn\ChartDesignPropertyAddIn\Include_Chart\Dll_Load\IMetaTable.h
; File C:\Program Files (x86)\Microsoft Visual Studio\2019\Community\VC\Tools\MSVC\14.29.30133\atlmfc\include\afxwin1.inl
; File D:\git\src\IBK\IBK_DRFN\ProjSrc\SrcChartEx\ChartAddIn\ChartDesignPropertyAddIn\Include_Chart\Dll_Load\IMetaTable.h
; File C:\Program Files (x86)\Microsoft Visual Studio\2019\Community\VC\Tools\MSVC\14.29.30133\atlmfc\include\afxwin1.inl
; File D:\git\src\IBK\IBK_DRFN\ProjSrc\SrcChartEx\ChartAddIn\ChartDesignPropertyAddIn\ChartDesignPropertyAddIn\ToolandRButtonGrid_ListCtrl.cpp
; File C:\Program Files (x86)\Microsoft Visual Studio\2019\Community\VC\Tools\MSVC\14.29.30133\atlmfc\include\afxwin1.inl
; File D:\git\src\IBK\IBK_DRFN\ProjSrc\SrcChartEx\ChartAddIn\ChartDesignPropertyAddIn\ChartDesignPropertyAddIn\ToolandRButtonGrid_ListCtrl.cpp
; File C:\Program Files (x86)\Microsoft Visual Studio\2019\Community\VC\Tools\MSVC\14.29.30133\atlmfc\include\afxwin1.inl
; File D:\git\src\IBK\IBK_DRFN\ProjSrc\SrcChartEx\ChartAddIn\ChartDesignPropertyAddIn\ChartDesignPropertyAddIn\ToolandRButtonGrid_ListCtrl.cpp
; File C:\Program Files (x86)\Microsoft Visual Studio\2019\Community\VC\Tools\MSVC\14.29.30133\atlmfc\include\afxcmn.inl
; File D:\git\src\IBK\IBK_DRFN\ProjSrc\SrcChartEx\ChartAddIn\ChartDesignPropertyAddIn\ChartDesignPropertyAddIn\ToolandRButtonGrid_ListCtrl.cpp
; File D:\git\src\IBK\IBK_DRFN\ProjSrc\SrcChartEx\ChartAddIn\ChartDesignPropertyAddIn\Include_Chart\Dll_Load\IMetaTable.h
; File C:\Program Files (x86)\Microsoft Visual Studio\2019\Community\VC\Tools\MSVC\14.29.30133\atlmfc\include\afxwin1.inl
; File C:\Program Files (x86)\Microsoft Visual Studio\2019\Community\VC\Tools\MSVC\14.29.30133\atlmfc\include\afx.inl
; File D:\git\src\IBK\IBK_DRFN\ProjSrc\SrcChartEx\ChartAddIn\ChartDesignPropertyAddIn\Include_Chart\Dll_Load\IMetaTable.h
; File C:\Program Files (x86)\Microsoft Visual Studio\2019\Community\VC\Tools\MSVC\14.29.30133\atlmfc\include\afxwin1.inl
; File C:\Program Files (x86)\Microsoft Visual Studio\2019\Community\VC\Tools\MSVC\14.29.30133\atlmfc\include\afx.inl
; File D:\git\src\IBK\IBK_DRFN\ProjSrc\SrcChartEx\ChartAddIn\ChartDesignPropertyAddIn\ChartDesignPropertyAddIn\ToolandRButtonGrid_ListCtrl.cpp
; File D:\git\src\IBK\IBK_DRFN\ProjSrc\SrcChartEx\ChartAddIn\ChartDesignPropertyAddIn\ChartDesignPropertyAddIn\SuperGridCtrl.h
; File D:\git\src\IBK\IBK_DRFN\ProjSrc\SrcChartEx\ChartAddIn\ChartDesignPropertyAddIn\ChartDesignPropertyAddIn\ToolandRButtonGrid_ListCtrl.cpp
; File D:\git\src\IBK\IBK_DRFN\ProjSrc\SrcChartEx\ChartAddIn\ChartDesignPropertyAddIn\ChartDesignPropertyAddIn\SuperGridCtrl.h
; File D:\git\src\IBK\IBK_DRFN\ProjSrc\SrcChartEx\ChartAddIn\ChartDesignPropertyAddIn\ChartDesignPropertyAddIn\ToolandRButtonGrid_ListCtrl.cpp
; File C:\Program Files (x86)\Microsoft Visual Studio\2019\Community\VC\Tools\MSVC\14.29.30133\atlmfc\include\afxcoll.inl
; File D:\git\src\IBK\IBK_DRFN\ProjSrc\SrcChartEx\ChartAddIn\ChartDesignPropertyAddIn\ChartDesignPropertyAddIn\ToolandRButtonGrid_ListCtrl.cpp
; File C:\Program Files (x86)\Microsoft Visual Studio\2019\Community\VC\Tools\MSVC\14.29.30133\atlmfc\include\afxcoll.inl
; File D:\git\src\IBK\IBK_DRFN\ProjSrc\SrcChartEx\ChartAddIn\ChartDesignPropertyAddIn\ChartDesignPropertyAddIn\ToolandRButtonGrid_ListCtrl.cpp
; File C:\Program Files (x86)\Microsoft Visual Studio\2019\Community\VC\Tools\MSVC\14.29.30133\atlmfc\include\afxcoll.inl
; File D:\git\src\IBK\IBK_DRFN\ProjSrc\SrcChartEx\ChartAddIn\ChartDesignPropertyAddIn\ChartDesignPropertyAddIn\ToolandRButtonGrid_ListCtrl.cpp
; File C:\Program Files (x86)\Microsoft Visual Studio\2019\Community\VC\Tools\MSVC\14.29.30133\atlmfc\include\afxcoll.inl
; File D:\git\src\IBK\IBK_DRFN\ProjSrc\SrcChartEx\ChartAddIn\ChartDesignPropertyAddIn\ChartDesignPropertyAddIn\ToolandRButtonGrid_ListCtrl.cpp
; File C:\Program Files (x86)\Microsoft Visual Studio\2019\Community\VC\Tools\MSVC\14.29.30133\atlmfc\include\afxcoll.inl
; File D:\git\src\IBK\IBK_DRFN\ProjSrc\SrcChartEx\ChartAddIn\ChartDesignPropertyAddIn\ChartDesignPropertyAddIn\ToolandRButtonGrid_ListCtrl.cpp
; File C:\Program Files (x86)\Microsoft Visual Studio\2019\Community\VC\Tools\MSVC\14.29.30133\atlmfc\include\afxcoll.inl
; File D:\git\src\IBK\IBK_DRFN\ProjSrc\SrcChartEx\ChartAddIn\ChartDesignPropertyAddIn\ChartDesignPropertyAddIn\ToolandRButtonGrid_ListCtrl.cpp
; File C:\Program Files (x86)\Microsoft Visual Studio\2019\Community\VC\Tools\MSVC\14.29.30133\atlmfc\include\afxcoll.inl
; File D:\git\src\IBK\IBK_DRFN\ProjSrc\SrcChartEx\ChartAddIn\ChartDesignPropertyAddIn\ChartDesignPropertyAddIn\ToolandRButtonGrid_ListCtrl.cpp
; File C:\Program Files (x86)\Microsoft Visual Studio\2019\Community\VC\Tools\MSVC\14.29.30133\atlmfc\include\afxcoll.inl
; File D:\git\src\IBK\IBK_DRFN\ProjSrc\SrcChartEx\ChartAddIn\ChartDesignPropertyAddIn\ChartDesignPropertyAddIn\ToolandRButtonGrid_ListCtrl.cpp
;	COMDAT ?InitializeGrid@CToolandRButtonGrid_ListCtrl@@QAEXXZ
_TEXT	SEGMENT
_lvColumn$2 = -92					; size = 44
$T3 = -48						; size = 4
___mlrs__$4 = -48					; size = 4
___mlrs__$1$ = -44					; size = 4
$T5 = -40						; size = 4
$T6 = -36						; size = 4
$T7 = -32						; size = 4
$T8 = -32						; size = 4
$T9 = -32						; size = 4
_strCols$10 = -32					; size = 4
_uCols$11 = -28						; size = 12
__$ArrayPad$ = -16					; size = 4
__$EHRec$ = -12						; size = 12
?InitializeGrid@CToolandRButtonGrid_ListCtrl@@QAEXXZ PROC ; CToolandRButtonGrid_ListCtrl::InitializeGrid, COMDAT
; _this$ = ecx

; 79   : {

  00000	55		 push	 ebp
  00001	8b ec		 mov	 ebp, esp
  00003	6a ff		 push	 -1
  00005	68 00 00 00 00	 push	 __ehhandler$?InitializeGrid@CToolandRButtonGrid_ListCtrl@@QAEXXZ
  0000a	64 a1 00 00 00
	00		 mov	 eax, DWORD PTR fs:0
  00010	50		 push	 eax
  00011	83 ec 50	 sub	 esp, 80			; 00000050H
  00014	a1 00 00 00 00	 mov	 eax, DWORD PTR ___security_cookie
  00019	33 c5		 xor	 eax, ebp
  0001b	89 45 f0	 mov	 DWORD PTR __$ArrayPad$[ebp], eax
  0001e	53		 push	 ebx
  0001f	56		 push	 esi
  00020	57		 push	 edi
  00021	50		 push	 eax
  00022	8d 45 f4	 lea	 eax, DWORD PTR __$EHRec$[ebp]
  00025	64 a3 00 00 00
	00		 mov	 DWORD PTR fs:0, eax
  0002b	8b d9		 mov	 ebx, ecx
; File C:\Program Files (x86)\Microsoft Visual Studio\2019\Community\VC\Tools\MSVC\14.29.30133\atlmfc\include\afxcmn2.inl

; 117  : 	{ ASSERT(::IsWindow(m_hWnd)); return (DWORD) ::SendMessage(m_hWnd, LVM_SETEXTENDEDLISTVIEWSTYLE, 0, (LPARAM) dwNewStyle); }

  0002d	6a 01		 push	 1
  0002f	6a 00		 push	 0
  00031	68 36 10 00 00	 push	 4150			; 00001036H
  00036	ff 73 20	 push	 DWORD PTR [ebx+32]
  00039	ff 15 00 00 00
	00		 call	 DWORD PTR __imp__SendMessageA@16
; File D:\git\src\IBK\IBK_DRFN\ProjSrc\SrcChartEx\ChartAddIn\ChartDesignPropertyAddIn\ChartDesignPropertyAddIn\ToolandRButtonGrid_ListCtrl.cpp

; 375  : 		IDS_TOOLSET_FUNCTION,

  0003f	c7 45 e4 67 04
	00 00		 mov	 DWORD PTR _uCols$11[ebp], 1127 ; 00000467H

; 376  : 		IDS_TOOLSET_LIMIT_1,

  00046	c7 45 e8 68 04
	00 00		 mov	 DWORD PTR _uCols$11[ebp+4], 1128 ; 00000468H

; 377  : 		IDS_TOOLSET_LIMIT_2

  0004d	c7 45 ec 69 04
	00 00		 mov	 DWORD PTR _uCols$11[ebp+8], 1129 ; 00000469H

; 378  : 	};
; 379  : 
; 380  : 	ML_SET_LANGUAGE_RES();

  00054	e8 00 00 00 00	 call	 ?AfxGetStaticModuleState@@YGPAVAFX_MODULE_STATE@@XZ ; AfxGetStaticModuleState
  00059	8b bb 40 01 00
	00		 mov	 edi, DWORD PTR [ebx+320]
  0005f	8b 70 08	 mov	 esi, DWORD PTR [eax+8]
; File D:\git\src\IBK\IBK_DRFN\ProjSrc\SrcChartEx\ChartAddIn\ChartDesignPropertyAddIn\Include_Chart\Dll_Load\IMetaTable.h

; 936  : 	DECLARE_FUNCTION2(	LoadResourceDLL,				HMODULE, AfxGetStaticModuleState()->m_hCurrentInstanceHandle, HWND, HMODULE);

  00062	a1 04 00 00 00	 mov	 eax, DWORD PTR ?g_iMetaTable@@3VIMetaTable@@A+4
  00067	85 c0		 test	 eax, eax
  00069	74 4b		 je	 SHORT $LN16@Initialize
  0006b	b9 80 0d 00 00	 mov	 ecx, 3456		; 00000d80H
  00070	66 3b 0d 94 00
	00 00		 cmp	 cx, WORD PTR ?g_iMetaTable@@3VIMetaTable@@A+148
  00077	74 29		 je	 SHORT $LN69@Initialize
  00079	68 00 00 00 00	 push	 OFFSET ??_C@_0BA@ENJOCHIO@LoadResourceDLL@
  0007e	50		 push	 eax
  0007f	c7 05 90 00 00
	00 00 00 00 00	 mov	 DWORD PTR ?g_iMetaTable@@3VIMetaTable@@A+144, 0
  00089	ff 15 00 00 00
	00		 call	 DWORD PTR __imp__GetProcAddress@8
  0008f	b9 80 0d 00 00	 mov	 ecx, 3456		; 00000d80H
  00094	a3 90 00 00 00	 mov	 DWORD PTR ?g_iMetaTable@@3VIMetaTable@@A+144, eax
  00099	66 89 0d 94 00
	00 00		 mov	 WORD PTR ?g_iMetaTable@@3VIMetaTable@@A+148, cx
  000a0	eb 05		 jmp	 SHORT $LN15@Initialize
$LN69@Initialize:
  000a2	a1 90 00 00 00	 mov	 eax, DWORD PTR ?g_iMetaTable@@3VIMetaTable@@A+144
$LN15@Initialize:
  000a7	85 c0		 test	 eax, eax
  000a9	74 0b		 je	 SHORT $LN16@Initialize
  000ab	56		 push	 esi
  000ac	57		 push	 edi
  000ad	ff d0		 call	 eax
  000af	83 c4 08	 add	 esp, 8
  000b2	8b f8		 mov	 edi, eax
  000b4	eb 08		 jmp	 SHORT $LN13@Initialize
$LN16@Initialize:
  000b6	e8 00 00 00 00	 call	 ?AfxGetStaticModuleState@@YGPAVAFX_MODULE_STATE@@XZ ; AfxGetStaticModuleState
  000bb	8b 78 08	 mov	 edi, DWORD PTR [eax+8]
$LN13@Initialize:
; File C:\Program Files (x86)\Microsoft Visual Studio\2019\Community\VC\Tools\MSVC\14.29.30133\atlmfc\include\afxwin1.inl

; 25   : 		return afxCurrentResourceHandle; }

  000be	e8 00 00 00 00	 call	 ?AfxGetModuleState@@YGPAVAFX_MODULE_STATE@@XZ ; AfxGetModuleState
; File D:\git\src\IBK\IBK_DRFN\ProjSrc\SrcChartEx\ChartAddIn\ChartDesignPropertyAddIn\Include_Chart\Dll_Load\IMetaTable.h

; 1032 : 		m_hInstance = AfxGetResourceHandle();

  000c3	8b 70 0c	 mov	 esi, DWORD PTR [eax+12]
  000c6	89 75 d4	 mov	 DWORD PTR ___mlrs__$1$[ebp], esi
  000c9	89 75 d0	 mov	 DWORD PTR ___mlrs__$4[ebp], esi
; File C:\Program Files (x86)\Microsoft Visual Studio\2019\Community\VC\Tools\MSVC\14.29.30133\atlmfc\include\afxwin1.inl

; 27   : 	{ ASSERT(hInstResource != NULL); afxCurrentResourceHandle = hInstResource; }

  000cc	e8 00 00 00 00	 call	 ?AfxGetModuleState@@YGPAVAFX_MODULE_STATE@@XZ ; AfxGetModuleState
  000d1	89 78 0c	 mov	 DWORD PTR [eax+12], edi
; File D:\git\src\IBK\IBK_DRFN\ProjSrc\SrcChartEx\ChartAddIn\ChartDesignPropertyAddIn\ChartDesignPropertyAddIn\ToolandRButtonGrid_ListCtrl.cpp

; 381  : 	CString strCols;

  000d4	8d 4d e0	 lea	 ecx, DWORD PTR _strCols$10[ebp]
  000d7	c7 45 fc 00 00
	00 00		 mov	 DWORD PTR __$EHRec$[ebp+8], 0
  000de	ff 15 00 00 00
	00		 call	 DWORD PTR __imp_??0?$CStringT@DV?$StrTraitMFC_DLL@DV?$ChTraitsCRT@D@ATL@@@@@ATL@@QAE@XZ
  000e4	c6 45 fc 01	 mov	 BYTE PTR __$EHRec$[ebp+8], 1

; 386  : 	lvColumn.cx = 130;

  000e8	b8 82 00 00 00	 mov	 eax, 130		; 00000082H
  000ed	c7 45 a4 0f 00
	00 00		 mov	 DWORD PTR _lvColumn$2[ebp], 15 ; 0000000fH
; File C:\Program Files (x86)\Microsoft Visual Studio\2019\Community\VC\Tools\MSVC\14.29.30133\atlmfc\include\afxwin1.inl

; 25   : 		return afxCurrentResourceHandle; }

  000f4	33 ff		 xor	 edi, edi
; File D:\git\src\IBK\IBK_DRFN\ProjSrc\SrcChartEx\ChartAddIn\ChartDesignPropertyAddIn\ChartDesignPropertyAddIn\ToolandRButtonGrid_ListCtrl.cpp

; 385  : 	lvColumn.fmt = LVCFMT_LEFT;

  000f6	c7 45 a8 00 00
	00 00		 mov	 DWORD PTR _lvColumn$2[ebp+4], 0
; File C:\Program Files (x86)\Microsoft Visual Studio\2019\Community\VC\Tools\MSVC\14.29.30133\atlmfc\include\afxwin1.inl

; 25   : 		return afxCurrentResourceHandle; }

  000fd	be 64 00 00 00	 mov	 esi, 100		; 00000064H
$LL6@Initialize:
; File D:\git\src\IBK\IBK_DRFN\ProjSrc\SrcChartEx\ChartAddIn\ChartDesignPropertyAddIn\ChartDesignPropertyAddIn\ToolandRButtonGrid_ListCtrl.cpp

; 391  : 		strCols.LoadString( uCols[ x]);

  00102	ff 74 bd e4	 push	 DWORD PTR _uCols$11[ebp+edi*4]
  00106	85 ff		 test	 edi, edi
  00108	8d 4d e0	 lea	 ecx, DWORD PTR _strCols$10[ebp]
  0010b	0f 45 c6	 cmovne	 eax, esi
  0010e	89 45 ac	 mov	 DWORD PTR _lvColumn$2[ebp+8], eax
  00111	ff 15 00 00 00
	00		 call	 DWORD PTR __imp_?LoadStringA@?$CStringT@DV?$StrTraitMFC_DLL@DV?$ChTraitsCRT@D@ATL@@@@@ATL@@QAEHI@Z

; 392  : 		lvColumn.pszText = ( char *)( const char *)strCols;

  00117	8b 45 e0	 mov	 eax, DWORD PTR _strCols$10[ebp]
  0011a	89 45 b0	 mov	 DWORD PTR _lvColumn$2[ebp+12], eax
; File C:\Program Files (x86)\Microsoft Visual Studio\2019\Community\VC\Tools\MSVC\14.29.30133\atlmfc\include\afxcmn.inl

; 209  : 	{ ASSERT(::IsWindow(m_hWnd)); return (int) ::SendMessage(m_hWnd, LVM_INSERTCOLUMN, nCol, (LPARAM)pColumn); }

  0011d	8d 45 a4	 lea	 eax, DWORD PTR _lvColumn$2[ebp]
  00120	50		 push	 eax
  00121	57		 push	 edi
  00122	68 1b 10 00 00	 push	 4123			; 0000101bH
  00127	ff 73 20	 push	 DWORD PTR [ebx+32]
  0012a	ff 15 00 00 00
	00		 call	 DWORD PTR __imp__SendMessageA@16
; File D:\git\src\IBK\IBK_DRFN\ProjSrc\SrcChartEx\ChartAddIn\ChartDesignPropertyAddIn\ChartDesignPropertyAddIn\ToolandRButtonGrid_ListCtrl.cpp

; 387  : 	for(int x = 0; x < sizeof( uCols) / sizeof( UINT); x++)

  00130	47		 inc	 edi
  00131	83 ff 03	 cmp	 edi, 3
  00134	73 05		 jae	 SHORT $LN73@Initialize
  00136	8b 45 ac	 mov	 eax, DWORD PTR _lvColumn$2[ebp+8]
  00139	eb c7		 jmp	 SHORT $LL6@Initialize
$LN73@Initialize:

; 393  : 		InsertColumn(x,&lvColumn);
; 394  :     }
; 395  : }

  0013b	8d 4d e0	 lea	 ecx, DWORD PTR _strCols$10[ebp]
  0013e	ff 15 00 00 00
	00		 call	 DWORD PTR __imp_??1?$CStringT@DV?$StrTraitMFC_DLL@DV?$ChTraitsCRT@D@ATL@@@@@ATL@@QAE@XZ
; File D:\git\src\IBK\IBK_DRFN\ProjSrc\SrcChartEx\ChartAddIn\ChartDesignPropertyAddIn\Include_Chart\Dll_Load\IMetaTable.h

; 1036 : 	{

  00144	c7 45 fc 02 00
	00 00		 mov	 DWORD PTR __$EHRec$[ebp+8], 2
; File C:\Program Files (x86)\Microsoft Visual Studio\2019\Community\VC\Tools\MSVC\14.29.30133\atlmfc\include\afxwin1.inl

; 27   : 	{ ASSERT(hInstResource != NULL); afxCurrentResourceHandle = hInstResource; }

  0014b	e8 00 00 00 00	 call	 ?AfxGetModuleState@@YGPAVAFX_MODULE_STATE@@XZ ; AfxGetModuleState
  00150	8b 75 d4	 mov	 esi, DWORD PTR ___mlrs__$1$[ebp]
; File C:\Program Files (x86)\Microsoft Visual Studio\2019\Community\VC\Tools\MSVC\14.29.30133\atlmfc\include\afx.inl

; 116  : 	{ return ::operator new(nSize); }

  00153	68 84 00 00 00	 push	 132			; 00000084H
; File D:\git\src\IBK\IBK_DRFN\ProjSrc\SrcChartEx\ChartAddIn\ChartDesignPropertyAddIn\Include_Chart\Dll_Load\IMetaTable.h

; 1038 : 	}

  00158	c7 45 fc ff ff
	ff ff		 mov	 DWORD PTR __$EHRec$[ebp+8], -1
; File C:\Program Files (x86)\Microsoft Visual Studio\2019\Community\VC\Tools\MSVC\14.29.30133\atlmfc\include\afxwin1.inl

; 27   : 	{ ASSERT(hInstResource != NULL); afxCurrentResourceHandle = hInstResource; }

  0015f	89 70 0c	 mov	 DWORD PTR [eax+12], esi
; File C:\Program Files (x86)\Microsoft Visual Studio\2019\Community\VC\Tools\MSVC\14.29.30133\atlmfc\include\afx.inl

; 116  : 	{ return ::operator new(nSize); }

  00162	e8 00 00 00 00	 call	 ??2@YAPAXI@Z		; operator new
  00167	83 c4 04	 add	 esp, 4
; File D:\git\src\IBK\IBK_DRFN\ProjSrc\SrcChartEx\ChartAddIn\ChartDesignPropertyAddIn\ChartDesignPropertyAddIn\ToolandRButtonGrid_ListCtrl.cpp

; 410  : 	CItemInfo* lp = new CItemInfo();

  0016a	89 45 d0	 mov	 DWORD PTR $T3[ebp], eax
  0016d	c7 45 fc 03 00
	00 00		 mov	 DWORD PTR __$EHRec$[ebp+8], 3
  00174	85 c0		 test	 eax, eax
  00176	74 0b		 je	 SHORT $LN35@Initialize
  00178	8b c8		 mov	 ecx, eax
  0017a	e8 00 00 00 00	 call	 ??0CItemInfo@@QAE@XZ	; CItemInfo::CItemInfo
  0017f	8b f8		 mov	 edi, eax
  00181	eb 02		 jmp	 SHORT $LN36@Initialize
$LN35@Initialize:
  00183	33 ff		 xor	 edi, edi
$LN36@Initialize:

; 411  : 	SetRootItem("Item", lp);

  00185	68 00 00 00 00	 push	 OFFSET ??_C@_04BGCMBJDA@Item@
  0018a	8d 4d d8	 lea	 ecx, DWORD PTR $T5[ebp]
  0018d	c7 45 fc ff ff
	ff ff		 mov	 DWORD PTR __$EHRec$[ebp+8], -1
  00194	ff 15 00 00 00
	00		 call	 DWORD PTR __imp_??0?$CStringT@DV?$StrTraitMFC_DLL@DV?$ChTraitsCRT@D@ATL@@@@@ATL@@QAE@PBD@Z
; File D:\git\src\IBK\IBK_DRFN\ProjSrc\SrcChartEx\ChartAddIn\ChartDesignPropertyAddIn\ChartDesignPropertyAddIn\SuperGridCtrl.h

; 15   : 	void SetItemText(const CString& strItem){ m_strItemName = strItem; }

  0019a	8d 45 d8	 lea	 eax, DWORD PTR $T5[ebp]
; File D:\git\src\IBK\IBK_DRFN\ProjSrc\SrcChartEx\ChartAddIn\ChartDesignPropertyAddIn\ChartDesignPropertyAddIn\ToolandRButtonGrid_ListCtrl.cpp

; 411  : 	SetRootItem("Item", lp);

  0019d	c7 45 fc 04 00
	00 00		 mov	 DWORD PTR __$EHRec$[ebp+8], 4
; File D:\git\src\IBK\IBK_DRFN\ProjSrc\SrcChartEx\ChartAddIn\ChartDesignPropertyAddIn\ChartDesignPropertyAddIn\SuperGridCtrl.h

; 15   : 	void SetItemText(const CString& strItem){ m_strItemName = strItem; }

  001a4	50		 push	 eax
  001a5	8d 4f 60	 lea	 ecx, DWORD PTR [edi+96]
  001a8	ff 15 00 00 00
	00		 call	 DWORD PTR __imp_??4?$CStringT@DV?$StrTraitMFC_DLL@DV?$ChTraitsCRT@D@ATL@@@@@ATL@@QAEAAV01@ABV01@@Z
; File D:\git\src\IBK\IBK_DRFN\ProjSrc\SrcChartEx\ChartAddIn\ChartDesignPropertyAddIn\ChartDesignPropertyAddIn\ToolandRButtonGrid_ListCtrl.cpp

; 402  : 	lpItemInfo->AddSubItemText(_T(""));      // 0 zero based subitems...

  001ae	68 00 00 00 00	 push	 OFFSET ??_C@_00CNPNBAHC@@
  001b3	8d 4d e0	 lea	 ecx, DWORD PTR $T9[ebp]
  001b6	ff 15 00 00 00
	00		 call	 DWORD PTR __imp_??0?$CStringT@DV?$StrTraitMFC_DLL@DV?$ChTraitsCRT@D@ATL@@@@@ATL@@QAE@PBD@Z
; File C:\Program Files (x86)\Microsoft Visual Studio\2019\Community\VC\Tools\MSVC\14.29.30133\atlmfc\include\afxcoll.inl

; 321  : 		SetAtGrow(nIndex, newElement);

  001bc	8d 45 e0	 lea	 eax, DWORD PTR $T9[ebp]
; File D:\git\src\IBK\IBK_DRFN\ProjSrc\SrcChartEx\ChartAddIn\ChartDesignPropertyAddIn\ChartDesignPropertyAddIn\ToolandRButtonGrid_ListCtrl.cpp

; 402  : 	lpItemInfo->AddSubItemText(_T(""));      // 0 zero based subitems...

  001bf	c6 45 fc 05	 mov	 BYTE PTR __$EHRec$[ebp+8], 5
; File C:\Program Files (x86)\Microsoft Visual Studio\2019\Community\VC\Tools\MSVC\14.29.30133\atlmfc\include\afxcoll.inl

; 321  : 		SetAtGrow(nIndex, newElement);

  001c3	50		 push	 eax
  001c4	ff 77 6c	 push	 DWORD PTR [edi+108]
  001c7	8d 4f 64	 lea	 ecx, DWORD PTR [edi+100]
  001ca	e8 00 00 00 00	 call	 ?SetAtGrow@CStringArray@@QAEXHABV?$CStringT@DV?$StrTraitMFC_DLL@DV?$ChTraitsCRT@D@ATL@@@@@ATL@@@Z ; CStringArray::SetAtGrow
; File D:\git\src\IBK\IBK_DRFN\ProjSrc\SrcChartEx\ChartAddIn\ChartDesignPropertyAddIn\ChartDesignPropertyAddIn\ToolandRButtonGrid_ListCtrl.cpp

; 402  : 	lpItemInfo->AddSubItemText(_T(""));      // 0 zero based subitems...

  001cf	8d 4d e0	 lea	 ecx, DWORD PTR $T9[ebp]
  001d2	c6 45 fc 04	 mov	 BYTE PTR __$EHRec$[ebp+8], 4
  001d6	ff 15 00 00 00
	00		 call	 DWORD PTR __imp_??1?$CStringT@DV?$StrTraitMFC_DLL@DV?$ChTraitsCRT@D@ATL@@@@@ATL@@QAE@XZ

; 403  : 	lpItemInfo->AddSubItemText(_T(""));      // 1 zero based subitems...

  001dc	68 00 00 00 00	 push	 OFFSET ??_C@_00CNPNBAHC@@
  001e1	8d 4d e0	 lea	 ecx, DWORD PTR $T8[ebp]
  001e4	ff 15 00 00 00
	00		 call	 DWORD PTR __imp_??0?$CStringT@DV?$StrTraitMFC_DLL@DV?$ChTraitsCRT@D@ATL@@@@@ATL@@QAE@PBD@Z
; File C:\Program Files (x86)\Microsoft Visual Studio\2019\Community\VC\Tools\MSVC\14.29.30133\atlmfc\include\afxcoll.inl

; 321  : 		SetAtGrow(nIndex, newElement);

  001ea	8d 45 e0	 lea	 eax, DWORD PTR $T8[ebp]
; File D:\git\src\IBK\IBK_DRFN\ProjSrc\SrcChartEx\ChartAddIn\ChartDesignPropertyAddIn\ChartDesignPropertyAddIn\ToolandRButtonGrid_ListCtrl.cpp

; 403  : 	lpItemInfo->AddSubItemText(_T(""));      // 1 zero based subitems...

  001ed	c6 45 fc 06	 mov	 BYTE PTR __$EHRec$[ebp+8], 6
; File C:\Program Files (x86)\Microsoft Visual Studio\2019\Community\VC\Tools\MSVC\14.29.30133\atlmfc\include\afxcoll.inl

; 321  : 		SetAtGrow(nIndex, newElement);

  001f1	50		 push	 eax
  001f2	ff 77 6c	 push	 DWORD PTR [edi+108]
  001f5	8d 4f 64	 lea	 ecx, DWORD PTR [edi+100]
  001f8	e8 00 00 00 00	 call	 ?SetAtGrow@CStringArray@@QAEXHABV?$CStringT@DV?$StrTraitMFC_DLL@DV?$ChTraitsCRT@D@ATL@@@@@ATL@@@Z ; CStringArray::SetAtGrow
; File D:\git\src\IBK\IBK_DRFN\ProjSrc\SrcChartEx\ChartAddIn\ChartDesignPropertyAddIn\ChartDesignPropertyAddIn\ToolandRButtonGrid_ListCtrl.cpp

; 403  : 	lpItemInfo->AddSubItemText(_T(""));      // 1 zero based subitems...

  001fd	8d 4d e0	 lea	 ecx, DWORD PTR $T8[ebp]
  00200	c6 45 fc 04	 mov	 BYTE PTR __$EHRec$[ebp+8], 4
  00204	ff 15 00 00 00
	00		 call	 DWORD PTR __imp_??1?$CStringT@DV?$StrTraitMFC_DLL@DV?$ChTraitsCRT@D@ATL@@@@@ATL@@QAE@XZ

; 404  : 	lpItemInfo->AddSubItemText(_T(""));      // 2 zero based subitems...

  0020a	68 00 00 00 00	 push	 OFFSET ??_C@_00CNPNBAHC@@
  0020f	8d 4d e0	 lea	 ecx, DWORD PTR $T7[ebp]
  00212	ff 15 00 00 00
	00		 call	 DWORD PTR __imp_??0?$CStringT@DV?$StrTraitMFC_DLL@DV?$ChTraitsCRT@D@ATL@@@@@ATL@@QAE@PBD@Z
; File C:\Program Files (x86)\Microsoft Visual Studio\2019\Community\VC\Tools\MSVC\14.29.30133\atlmfc\include\afxcoll.inl

; 321  : 		SetAtGrow(nIndex, newElement);

  00218	8d 45 e0	 lea	 eax, DWORD PTR $T7[ebp]
; File D:\git\src\IBK\IBK_DRFN\ProjSrc\SrcChartEx\ChartAddIn\ChartDesignPropertyAddIn\ChartDesignPropertyAddIn\ToolandRButtonGrid_ListCtrl.cpp

; 404  : 	lpItemInfo->AddSubItemText(_T(""));      // 2 zero based subitems...

  0021b	c6 45 fc 07	 mov	 BYTE PTR __$EHRec$[ebp+8], 7
; File C:\Program Files (x86)\Microsoft Visual Studio\2019\Community\VC\Tools\MSVC\14.29.30133\atlmfc\include\afxcoll.inl

; 321  : 		SetAtGrow(nIndex, newElement);

  0021f	50		 push	 eax
  00220	ff 77 6c	 push	 DWORD PTR [edi+108]
  00223	8d 4f 64	 lea	 ecx, DWORD PTR [edi+100]
  00226	e8 00 00 00 00	 call	 ?SetAtGrow@CStringArray@@QAEXHABV?$CStringT@DV?$StrTraitMFC_DLL@DV?$ChTraitsCRT@D@ATL@@@@@ATL@@@Z ; CStringArray::SetAtGrow
; File D:\git\src\IBK\IBK_DRFN\ProjSrc\SrcChartEx\ChartAddIn\ChartDesignPropertyAddIn\ChartDesignPropertyAddIn\ToolandRButtonGrid_ListCtrl.cpp

; 404  : 	lpItemInfo->AddSubItemText(_T(""));      // 2 zero based subitems...

  0022b	8d 4d e0	 lea	 ecx, DWORD PTR $T7[ebp]
  0022e	c6 45 fc 04	 mov	 BYTE PTR __$EHRec$[ebp+8], 4
  00232	ff 15 00 00 00
	00		 call	 DWORD PTR __imp_??1?$CStringT@DV?$StrTraitMFC_DLL@DV?$ChTraitsCRT@D@ATL@@@@@ATL@@QAE@XZ

; 405  : 	lpItemInfo->AddSubItemText(_T(""));      // 3 zero based subitems...

  00238	68 00 00 00 00	 push	 OFFSET ??_C@_00CNPNBAHC@@
  0023d	8d 4d dc	 lea	 ecx, DWORD PTR $T6[ebp]
  00240	ff 15 00 00 00
	00		 call	 DWORD PTR __imp_??0?$CStringT@DV?$StrTraitMFC_DLL@DV?$ChTraitsCRT@D@ATL@@@@@ATL@@QAE@PBD@Z
; File C:\Program Files (x86)\Microsoft Visual Studio\2019\Community\VC\Tools\MSVC\14.29.30133\atlmfc\include\afxcoll.inl

; 321  : 		SetAtGrow(nIndex, newElement);

  00246	8d 45 dc	 lea	 eax, DWORD PTR $T6[ebp]
; File D:\git\src\IBK\IBK_DRFN\ProjSrc\SrcChartEx\ChartAddIn\ChartDesignPropertyAddIn\ChartDesignPropertyAddIn\ToolandRButtonGrid_ListCtrl.cpp

; 405  : 	lpItemInfo->AddSubItemText(_T(""));      // 3 zero based subitems...

  00249	c6 45 fc 08	 mov	 BYTE PTR __$EHRec$[ebp+8], 8
; File C:\Program Files (x86)\Microsoft Visual Studio\2019\Community\VC\Tools\MSVC\14.29.30133\atlmfc\include\afxcoll.inl

; 321  : 		SetAtGrow(nIndex, newElement);

  0024d	50		 push	 eax
  0024e	ff 77 6c	 push	 DWORD PTR [edi+108]
  00251	8d 4f 64	 lea	 ecx, DWORD PTR [edi+100]
  00254	e8 00 00 00 00	 call	 ?SetAtGrow@CStringArray@@QAEXHABV?$CStringT@DV?$StrTraitMFC_DLL@DV?$ChTraitsCRT@D@ATL@@@@@ATL@@@Z ; CStringArray::SetAtGrow
; File D:\git\src\IBK\IBK_DRFN\ProjSrc\SrcChartEx\ChartAddIn\ChartDesignPropertyAddIn\ChartDesignPropertyAddIn\ToolandRButtonGrid_ListCtrl.cpp

; 405  : 	lpItemInfo->AddSubItemText(_T(""));      // 3 zero based subitems...

  00259	8d 4d dc	 lea	 ecx, DWORD PTR $T6[ebp]
  0025c	ff 15 00 00 00
	00		 call	 DWORD PTR __imp_??1?$CStringT@DV?$StrTraitMFC_DLL@DV?$ChTraitsCRT@D@ATL@@@@@ATL@@QAE@XZ

; 411  : 	SetRootItem("Item", lp);

  00262	8d 4d d8	 lea	 ecx, DWORD PTR $T5[ebp]
  00265	c7 45 fc ff ff
	ff ff		 mov	 DWORD PTR __$EHRec$[ebp+8], -1
  0026c	ff 15 00 00 00
	00		 call	 DWORD PTR __imp_??1?$CStringT@DV?$StrTraitMFC_DLL@DV?$ChTraitsCRT@D@ATL@@@@@ATL@@QAE@XZ

; 412  :   //Create root item
; 413  : 	m_pRootItem = InsertRootItem(lp);//previous on N.Y.P.D we call it CreateTreeCtrl(lp)

  00272	57		 push	 edi
  00273	8b cb		 mov	 ecx, ebx
  00275	e8 00 00 00 00	 call	 ?InsertRootItem@CSuperGridCtrl@@QAEPAVCTreeItem@1@PAVCItemInfo@@@Z ; CSuperGridCtrl::InsertRootItem

; 414  : 	InsertRootItemToListCtrl(m_pRootItem);

  0027a	50		 push	 eax
  0027b	8b cb		 mov	 ecx, ebx
  0027d	89 83 f4 00 00
	00		 mov	 DWORD PTR [ebx+244], eax
  00283	e8 00 00 00 00	 call	 ?InsertRootItemToListCtrl@CSuperGridCtrl@@QAEXPAVCTreeItem@1@@Z ; CSuperGridCtrl::InsertRootItemToListCtrl

; 415  : 
; 416  : 	//could now expand one level
; 417  : 	Expand(m_pRootItem, 0 /*listview index 0*/); 

  00288	6a 00		 push	 0
  0028a	ff b3 f4 00 00
	00		 push	 DWORD PTR [ebx+244]
  00290	8b cb		 mov	 ecx, ebx
  00292	e8 00 00 00 00	 call	 ?Expand@CSuperGridCtrl@@QAEHPAVCTreeItem@1@H@Z ; CSuperGridCtrl::Expand

; 418  : 	UINT uflag = LVIS_SELECTED | LVIS_FOCUSED;
; 419  : 	SetItemState(0, uflag, uflag);

  00297	6a 03		 push	 3
  00299	6a 03		 push	 3
  0029b	6a 00		 push	 0
  0029d	8b cb		 mov	 ecx, ebx
  0029f	e8 00 00 00 00	 call	 ?SetItemState@CListCtrl@@QAEHHII@Z ; CListCtrl::SetItemState

; 80   : 	InsertColumnHeader();
; 81   : 	InsertRoot();
; 82   : //	SetColumnHeader();
; 83   : //	SetINTERNALItem();
; 84   : ///	SetEXTERNALItem();
; 85   : //	SetANOTEHRItem();
; 86   : }

  002a4	8b 4d f4	 mov	 ecx, DWORD PTR __$EHRec$[ebp]
  002a7	64 89 0d 00 00
	00 00		 mov	 DWORD PTR fs:0, ecx
  002ae	59		 pop	 ecx
  002af	5f		 pop	 edi
  002b0	5e		 pop	 esi
  002b1	5b		 pop	 ebx
  002b2	8b 4d f0	 mov	 ecx, DWORD PTR __$ArrayPad$[ebp]
  002b5	33 cd		 xor	 ecx, ebp
  002b7	e8 00 00 00 00	 call	 @__security_check_cookie@4
  002bc	8b e5		 mov	 esp, ebp
  002be	5d		 pop	 ebp
  002bf	c3		 ret	 0
_TEXT	ENDS
;	COMDAT text$x
text$x	SEGMENT
__unwindfunclet$?InitializeGrid@CToolandRButtonGrid_ListCtrl@@QAEXXZ$0:
  00000	8d 4d d0	 lea	 ecx, DWORD PTR ___mlrs__$4[ebp]
  00003	e9 00 00 00 00	 jmp	 ??1CMultiLanguageResourceSetter@@QAE@XZ ; CMultiLanguageResourceSetter::~CMultiLanguageResourceSetter
__unwindfunclet$?InitializeGrid@CToolandRButtonGrid_ListCtrl@@QAEXXZ$1:
  00008	8d 4d e0	 lea	 ecx, DWORD PTR _strCols$10[ebp]
  0000b	ff 25 00 00 00
	00		 jmp	 DWORD PTR __imp_??1?$CStringT@DV?$StrTraitMFC_DLL@DV?$ChTraitsCRT@D@ATL@@@@@ATL@@QAE@XZ
__unwindfunclet$?InitializeGrid@CToolandRButtonGrid_ListCtrl@@QAEXXZ$3:
  00011	8b 45 d0	 mov	 eax, DWORD PTR $T3[ebp]
  00014	50		 push	 eax
  00015	e8 00 00 00 00	 call	 ??3CObject@@SGXPAX@Z	; CObject::operator delete
  0001a	c3		 ret	 0
__unwindfunclet$?InitializeGrid@CToolandRButtonGrid_ListCtrl@@QAEXXZ$4:
  0001b	8d 4d d8	 lea	 ecx, DWORD PTR $T5[ebp]
  0001e	ff 25 00 00 00
	00		 jmp	 DWORD PTR __imp_??1?$CStringT@DV?$StrTraitMFC_DLL@DV?$ChTraitsCRT@D@ATL@@@@@ATL@@QAE@XZ
__unwindfunclet$?InitializeGrid@CToolandRButtonGrid_ListCtrl@@QAEXXZ$5:
  00024	8d 4d e0	 lea	 ecx, DWORD PTR $T9[ebp]
  00027	ff 25 00 00 00
	00		 jmp	 DWORD PTR __imp_??1?$CStringT@DV?$StrTraitMFC_DLL@DV?$ChTraitsCRT@D@ATL@@@@@ATL@@QAE@XZ
__unwindfunclet$?InitializeGrid@CToolandRButtonGrid_ListCtrl@@QAEXXZ$6:
  0002d	8d 4d e0	 lea	 ecx, DWORD PTR $T8[ebp]
  00030	ff 25 00 00 00
	00		 jmp	 DWORD PTR __imp_??1?$CStringT@DV?$StrTraitMFC_DLL@DV?$ChTraitsCRT@D@ATL@@@@@ATL@@QAE@XZ
__unwindfunclet$?InitializeGrid@CToolandRButtonGrid_ListCtrl@@QAEXXZ$7:
  00036	8d 4d e0	 lea	 ecx, DWORD PTR $T7[ebp]
  00039	ff 25 00 00 00
	00		 jmp	 DWORD PTR __imp_??1?$CStringT@DV?$StrTraitMFC_DLL@DV?$ChTraitsCRT@D@ATL@@@@@ATL@@QAE@XZ
__unwindfunclet$?InitializeGrid@CToolandRButtonGrid_ListCtrl@@QAEXXZ$8:
  0003f	8d 4d dc	 lea	 ecx, DWORD PTR $T6[ebp]
  00042	ff 25 00 00 00
	00		 jmp	 DWORD PTR __imp_??1?$CStringT@DV?$StrTraitMFC_DLL@DV?$ChTraitsCRT@D@ATL@@@@@ATL@@QAE@XZ
  00048	cc		 int	 3
  00049	cc		 int	 3
  0004a	cc		 int	 3
  0004b	cc		 int	 3
  0004c	cc		 int	 3
__ehhandler$?InitializeGrid@CToolandRButtonGrid_ListCtrl@@QAEXXZ:
  0004d	90		 npad	 1
  0004e	90		 npad	 1
  0004f	8b 54 24 08	 mov	 edx, DWORD PTR [esp+8]
  00053	8d 42 0c	 lea	 eax, DWORD PTR [edx+12]
  00056	8b 4a a0	 mov	 ecx, DWORD PTR [edx-96]
  00059	33 c8		 xor	 ecx, eax
  0005b	e8 00 00 00 00	 call	 @__security_check_cookie@4
  00060	8b 4a fc	 mov	 ecx, DWORD PTR [edx-4]
  00063	33 c8		 xor	 ecx, eax
  00065	e8 00 00 00 00	 call	 @__security_check_cookie@4
  0006a	b8 00 00 00 00	 mov	 eax, OFFSET __ehfuncinfo$?InitializeGrid@CToolandRButtonGrid_ListCtrl@@QAEXXZ
  0006f	e9 00 00 00 00	 jmp	 ___CxxFrameHandler3
text$x	ENDS
?InitializeGrid@CToolandRButtonGrid_ListCtrl@@QAEXXZ ENDP ; CToolandRButtonGrid_ListCtrl::InitializeGrid
; Function compile flags: /Ogtp
; File D:\git\src\IBK\IBK_DRFN\ProjSrc\SrcChartEx\ChartAddIn\ChartDesignPropertyAddIn\ChartDesignPropertyAddIn\ToolandRButtonGrid_ListCtrl.cpp
;	COMDAT ??0CToolandRButtonGrid_ListCtrl@@QAE@XZ
_TEXT	SEGMENT
_this$ = -16						; size = 4
__$EHRec$ = -12						; size = 12
??0CToolandRButtonGrid_ListCtrl@@QAE@XZ PROC		; CToolandRButtonGrid_ListCtrl::CToolandRButtonGrid_ListCtrl, COMDAT
; _this$ = ecx

; 23   : {

  00000	55		 push	 ebp
  00001	8b ec		 mov	 ebp, esp
  00003	6a ff		 push	 -1
  00005	68 00 00 00 00	 push	 __ehhandler$??0CToolandRButtonGrid_ListCtrl@@QAE@XZ
  0000a	64 a1 00 00 00
	00		 mov	 eax, DWORD PTR fs:0
  00010	50		 push	 eax
  00011	51		 push	 ecx
  00012	56		 push	 esi
  00013	a1 00 00 00 00	 mov	 eax, DWORD PTR ___security_cookie
  00018	33 c5		 xor	 eax, ebp
  0001a	50		 push	 eax
  0001b	8d 45 f4	 lea	 eax, DWORD PTR __$EHRec$[ebp]
  0001e	64 a3 00 00 00
	00		 mov	 DWORD PTR fs:0, eax
  00024	8b f1		 mov	 esi, ecx
  00026	89 75 f0	 mov	 DWORD PTR _this$[ebp], esi
  00029	e8 00 00 00 00	 call	 ??0CSuperGridCtrl@@QAE@XZ ; CSuperGridCtrl::CSuperGridCtrl
  0002e	8d 8e ec 00 00
	00		 lea	 ecx, DWORD PTR [esi+236]
  00034	c7 45 fc 00 00
	00 00		 mov	 DWORD PTR __$EHRec$[ebp+8], 0
  0003b	c7 06 00 00 00
	00		 mov	 DWORD PTR [esi], OFFSET ??_7CToolandRButtonGrid_ListCtrl@@6B@
  00041	e8 00 00 00 00	 call	 ??0CImageList@@QAE@XZ	; CImageList::CImageList
  00046	8d 8e fc 00 00
	00		 lea	 ecx, DWORD PTR [esi+252]
  0004c	c6 45 fc 01	 mov	 BYTE PTR __$EHRec$[ebp+8], 1
  00050	e8 00 00 00 00	 call	 ??0COleListCtrlDropTarget@@QAE@XZ ; COleListCtrlDropTarget::COleListCtrlDropTarget
  00055	8d 8e 38 01 00
	00		 lea	 ecx, DWORD PTR [esi+312]
  0005b	ff 15 00 00 00
	00		 call	 DWORD PTR __imp_??0?$CStringT@DV?$StrTraitMFC_DLL@DV?$ChTraitsCRT@D@ATL@@@@@ATL@@QAE@XZ

; 24   : 	// (2008/1/14 - Seung-Won, Bae) for MultiLanguage.
; 25   : 	m_hOcxWnd = NULL;

  00061	c7 86 40 01 00
	00 00 00 00 00	 mov	 DWORD PTR [esi+320], 0

; 26   : 
; 27   : 	m_bDrag = TRUE;
; 28   : 	m_pRootItem = NULL;
; 29   : 	m_pNumericalInquiryOptionDlg = NULL;
; 30   : }

  0006b	8b c6		 mov	 eax, esi
  0006d	c7 86 e8 00 00
	00 01 00 00 00	 mov	 DWORD PTR [esi+232], 1
  00077	c7 86 f4 00 00
	00 00 00 00 00	 mov	 DWORD PTR [esi+244], 0
  00081	c7 86 3c 01 00
	00 00 00 00 00	 mov	 DWORD PTR [esi+316], 0
  0008b	8b 4d f4	 mov	 ecx, DWORD PTR __$EHRec$[ebp]
  0008e	64 89 0d 00 00
	00 00		 mov	 DWORD PTR fs:0, ecx
  00095	59		 pop	 ecx
  00096	5e		 pop	 esi
  00097	8b e5		 mov	 esp, ebp
  00099	5d		 pop	 ebp
  0009a	c3		 ret	 0
_TEXT	ENDS
;	COMDAT text$x
text$x	SEGMENT
__unwindfunclet$??0CToolandRButtonGrid_ListCtrl@@QAE@XZ$0:
  00000	8b 4d f0	 mov	 ecx, DWORD PTR _this$[ebp]
  00003	e9 00 00 00 00	 jmp	 ??1CSuperGridCtrl@@UAE@XZ ; CSuperGridCtrl::~CSuperGridCtrl
__unwindfunclet$??0CToolandRButtonGrid_ListCtrl@@QAE@XZ$1:
  00008	8b 4d f0	 mov	 ecx, DWORD PTR _this$[ebp]
  0000b	81 c1 ec 00 00
	00		 add	 ecx, 236		; 000000ecH
  00011	e9 00 00 00 00	 jmp	 ??1CImageList@@UAE@XZ	; CImageList::~CImageList
  00016	cc		 int	 3
  00017	cc		 int	 3
  00018	cc		 int	 3
  00019	cc		 int	 3
  0001a	cc		 int	 3
__ehhandler$??0CToolandRButtonGrid_ListCtrl@@QAE@XZ:
  0001b	90		 npad	 1
  0001c	90		 npad	 1
  0001d	8b 54 24 08	 mov	 edx, DWORD PTR [esp+8]
  00021	8d 42 0c	 lea	 eax, DWORD PTR [edx+12]
  00024	8b 4a f4	 mov	 ecx, DWORD PTR [edx-12]
  00027	33 c8		 xor	 ecx, eax
  00029	e8 00 00 00 00	 call	 @__security_check_cookie@4
  0002e	b8 00 00 00 00	 mov	 eax, OFFSET __ehfuncinfo$??0CToolandRButtonGrid_ListCtrl@@QAE@XZ
  00033	e9 00 00 00 00	 jmp	 ___CxxFrameHandler3
text$x	ENDS
??0CToolandRButtonGrid_ListCtrl@@QAE@XZ ENDP		; CToolandRButtonGrid_ListCtrl::CToolandRButtonGrid_ListCtrl
; Function compile flags: /Ogtp
; File C:\Program Files (x86)\Microsoft Visual Studio\2019\Community\VC\Tools\MSVC\14.29.30133\atlmfc\include\afx.inl
;	COMDAT ??_GCItemInfo@@UAEPAXI@Z
_TEXT	SEGMENT
___flags$ = 8						; size = 4
??_GCItemInfo@@UAEPAXI@Z PROC				; CItemInfo::`scalar deleting destructor', COMDAT
; _this$ = ecx
  00000	55		 push	 ebp
  00001	8b ec		 mov	 ebp, esp
  00003	56		 push	 esi
  00004	8b f1		 mov	 esi, ecx
  00006	e8 00 00 00 00	 call	 ??1CItemInfo@@UAE@XZ	; CItemInfo::~CItemInfo
  0000b	8b 45 08	 mov	 eax, DWORD PTR ___flags$[ebp]
  0000e	a8 01		 test	 al, 1
  00010	74 22		 je	 SHORT $LN9@scalar
  00012	a8 04		 test	 al, 4
  00014	75 10		 jne	 SHORT $LN3@scalar

; 112  : 	{ ::operator delete(p); }

  00016	56		 push	 esi
  00017	e8 00 00 00 00	 call	 ??3@YAXPAX@Z		; operator delete
  0001c	83 c4 04	 add	 esp, 4
  0001f	8b c6		 mov	 eax, esi
  00021	5e		 pop	 esi
  00022	5d		 pop	 ebp
  00023	c2 04 00	 ret	 4
$LN3@scalar:
  00026	68 84 00 00 00	 push	 132			; 00000084H
  0002b	56		 push	 esi
  0002c	e8 00 00 00 00	 call	 ?__global_delete@@YAXPAXI@Z ; __global_delete
  00031	83 c4 08	 add	 esp, 8
$LN9@scalar:
  00034	8b c6		 mov	 eax, esi
  00036	5e		 pop	 esi
  00037	5d		 pop	 ebp
  00038	c2 04 00	 ret	 4
??_GCItemInfo@@UAEPAXI@Z ENDP				; CItemInfo::`scalar deleting destructor'
_TEXT	ENDS
; Function compile flags: /Ogtp
; File C:\Program Files (x86)\Microsoft Visual Studio\2019\Community\VC\Tools\MSVC\14.29.30133\atlmfc\include\afxtempl.h
; File C:\Program Files (x86)\Microsoft Visual Studio\2019\Community\VC\Tools\MSVC\14.29.30133\atlmfc\include\afx.inl
;	COMDAT ??_G?$CMap@HHPAVCStringList@@PAV1@@@UAEPAXI@Z
_TEXT	SEGMENT
__$EHRec$ = -12						; size = 12
___flags$ = 8						; size = 4
??_G?$CMap@HHPAVCStringList@@PAV1@@@UAEPAXI@Z PROC	; CMap<int,int,CStringList *,CStringList *>::`scalar deleting destructor', COMDAT
; _this$ = ecx
  00000	55		 push	 ebp
  00001	8b ec		 mov	 ebp, esp
  00003	6a ff		 push	 -1
  00005	68 00 00 00 00	 push	 __ehhandler$??_G?$CMap@HHPAVCStringList@@PAV1@@@UAEPAXI@Z
  0000a	64 a1 00 00 00
	00		 mov	 eax, DWORD PTR fs:0
  00010	50		 push	 eax
  00011	56		 push	 esi
  00012	a1 00 00 00 00	 mov	 eax, DWORD PTR ___security_cookie
  00017	33 c5		 xor	 eax, ebp
  00019	50		 push	 eax
  0001a	8d 45 f4	 lea	 eax, DWORD PTR __$EHRec$[ebp]
  0001d	64 a3 00 00 00
	00		 mov	 DWORD PTR fs:0, eax
  00023	8b f1		 mov	 esi, ecx
; File C:\Program Files (x86)\Microsoft Visual Studio\2019\Community\VC\Tools\MSVC\14.29.30133\atlmfc\include\afxtempl.h

; 1446 : 	if (m_pHashTable != NULL)

  00025	8b 46 04	 mov	 eax, DWORD PTR [esi+4]

; 1472 : {

  00028	c7 45 fc 00 00
	00 00		 mov	 DWORD PTR __$EHRec$[ebp+8], 0
  0002f	c7 06 00 00 00
	00		 mov	 DWORD PTR [esi], OFFSET ??_7?$CMap@HHPAVCStringList@@PAV1@@@6B@

; 1446 : 	if (m_pHashTable != NULL)

  00035	85 c0		 test	 eax, eax
  00037	74 10		 je	 SHORT $LN17@scalar

; 1447 : 	{
; 1448 : 		// destroy elements (values and keys)
; 1449 : 		for (UINT nHash = 0; nHash < m_nHashTableSize; nHash++)
; 1450 : 		{
; 1451 : 			CAssoc* pAssoc;
; 1452 : 			for (pAssoc = m_pHashTable[nHash]; pAssoc != NULL;
; 1453 : 			  pAssoc = pAssoc->pNext)
; 1454 : 			{
; 1455 : 				pAssoc->CAssoc::~CAssoc();
; 1456 : 			}
; 1457 : 		}
; 1458 : 
; 1459 : 		// free hash table
; 1460 : 		delete[] m_pHashTable;

  00039	50		 push	 eax
  0003a	e8 00 00 00 00	 call	 ??_V@YAXPAX@Z		; operator delete[]
  0003f	83 c4 04	 add	 esp, 4

; 1461 : 		m_pHashTable = NULL;

  00042	c7 46 04 00 00
	00 00		 mov	 DWORD PTR [esi+4], 0
$LN17@scalar:

; 1462 : 	}
; 1463 : 
; 1464 : 	m_nCount = 0;
; 1465 : 	m_pFreeList = NULL;
; 1466 : 	m_pBlocks->FreeDataChain();

  00049	8b 4e 14	 mov	 ecx, DWORD PTR [esi+20]
  0004c	c7 46 0c 00 00
	00 00		 mov	 DWORD PTR [esi+12], 0
  00053	c7 46 10 00 00
	00 00		 mov	 DWORD PTR [esi+16], 0
  0005a	e8 00 00 00 00	 call	 ?FreeDataChain@CPlex@@QAEXXZ ; CPlex::FreeDataChain

; 1467 : 	m_pBlocks = NULL;

  0005f	8b 45 08	 mov	 eax, DWORD PTR ___flags$[ebp]
  00062	c7 46 14 00 00
	00 00		 mov	 DWORD PTR [esi+20], 0
  00069	a8 01		 test	 al, 1
  0006b	74 2c		 je	 SHORT $LN31@scalar
  0006d	a8 04		 test	 al, 4
  0006f	75 1d		 jne	 SHORT $LN3@scalar
; File C:\Program Files (x86)\Microsoft Visual Studio\2019\Community\VC\Tools\MSVC\14.29.30133\atlmfc\include\afx.inl

; 112  : 	{ ::operator delete(p); }

  00071	56		 push	 esi
  00072	e8 00 00 00 00	 call	 ??3@YAXPAX@Z		; operator delete
  00077	83 c4 04	 add	 esp, 4
  0007a	8b c6		 mov	 eax, esi
  0007c	8b 4d f4	 mov	 ecx, DWORD PTR __$EHRec$[ebp]
  0007f	64 89 0d 00 00
	00 00		 mov	 DWORD PTR fs:0, ecx
  00086	59		 pop	 ecx
  00087	5e		 pop	 esi
  00088	8b e5		 mov	 esp, ebp
  0008a	5d		 pop	 ebp
  0008b	c2 04 00	 ret	 4
$LN3@scalar:
  0008e	6a 1c		 push	 28			; 0000001cH
  00090	56		 push	 esi
  00091	e8 00 00 00 00	 call	 ?__global_delete@@YAXPAXI@Z ; __global_delete
  00096	83 c4 08	 add	 esp, 8
$LN31@scalar:
  00099	8b c6		 mov	 eax, esi
  0009b	8b 4d f4	 mov	 ecx, DWORD PTR __$EHRec$[ebp]
  0009e	64 89 0d 00 00
	00 00		 mov	 DWORD PTR fs:0, ecx
  000a5	59		 pop	 ecx
  000a6	5e		 pop	 esi
  000a7	8b e5		 mov	 esp, ebp
  000a9	5d		 pop	 ebp
  000aa	c2 04 00	 ret	 4
  000ad	cc		 int	 3
  000ae	cc		 int	 3
  000af	cc		 int	 3
  000b0	cc		 int	 3
  000b1	cc		 int	 3
_TEXT	ENDS
;	COMDAT text$x
text$x	SEGMENT
__ehhandler$??_G?$CMap@HHPAVCStringList@@PAV1@@@UAEPAXI@Z:
  00000	90		 npad	 1
  00001	90		 npad	 1
  00002	8b 54 24 08	 mov	 edx, DWORD PTR [esp+8]
  00006	8d 42 0c	 lea	 eax, DWORD PTR [edx+12]
  00009	8b 4a f8	 mov	 ecx, DWORD PTR [edx-8]
  0000c	33 c8		 xor	 ecx, eax
  0000e	e8 00 00 00 00	 call	 @__security_check_cookie@4
  00013	b8 00 00 00 00	 mov	 eax, OFFSET __ehfuncinfo$??_G?$CMap@HHPAVCStringList@@PAV1@@@UAEPAXI@Z
  00018	e9 00 00 00 00	 jmp	 ___CxxFrameHandler3
text$x	ENDS
??_G?$CMap@HHPAVCStringList@@PAV1@@@UAEPAXI@Z ENDP	; CMap<int,int,CStringList *,CStringList *>::`scalar deleting destructor'
; Function compile flags: /Ogtp
; File C:\Program Files (x86)\Microsoft Visual Studio\2019\Community\VC\Tools\MSVC\14.29.30133\atlmfc\include\afxtempl.h
; File C:\Program Files (x86)\Microsoft Visual Studio\2019\Community\VC\Tools\MSVC\14.29.30133\atlmfc\include\afx.inl
; File C:\Program Files (x86)\Microsoft Visual Studio\2019\Community\VC\Tools\MSVC\14.29.30133\atlmfc\include\afxtempl.h
; File C:\Program Files (x86)\Microsoft Visual Studio\2019\Community\VC\Tools\MSVC\14.29.30133\atlmfc\include\afx.inl
; File C:\Program Files (x86)\Microsoft Visual Studio\2019\Community\VC\Tools\MSVC\14.29.30133\atlmfc\include\afxtempl.h
; File C:\Program Files (x86)\Microsoft Visual Studio\2019\Community\VC\Tools\MSVC\14.29.30133\atlmfc\include\afx.inl
; File C:\Program Files (x86)\Microsoft Visual Studio\2019\Community\VC\Tools\MSVC\14.29.30133\atlmfc\include\afxtempl.h
; File C:\Program Files (x86)\Microsoft Visual Studio\2019\Community\VC\Tools\MSVC\14.29.30133\atlmfc\include\afx.inl
; File C:\Program Files (x86)\Microsoft Visual Studio\2019\Community\VC\Tools\MSVC\14.29.30133\atlmfc\include\afxtempl.h
; File C:\Program Files (x86)\Microsoft Visual Studio\2019\Community\VC\Tools\MSVC\14.29.30133\atlmfc\include\afx.inl
; File C:\Program Files (x86)\Microsoft Visual Studio\2019\Community\VC\Tools\MSVC\14.29.30133\atlmfc\include\afxtempl.h
; File C:\Program Files (x86)\Microsoft Visual Studio\2019\Community\VC\Tools\MSVC\14.29.30133\atlmfc\include\afx.inl
; File C:\Program Files (x86)\Microsoft Visual Studio\2019\Community\VC\Tools\MSVC\14.29.30133\atlmfc\include\afxtempl.h
; File C:\Program Files (x86)\Microsoft Visual Studio\2019\Community\VC\Tools\MSVC\14.29.30133\atlmfc\include\afx.inl
; File C:\Program Files (x86)\Microsoft Visual Studio\2019\Community\VC\Tools\MSVC\14.29.30133\atlmfc\include\afxtempl.h
; File C:\Program Files (x86)\Microsoft Visual Studio\2019\Community\VC\Tools\MSVC\14.29.30133\atlmfc\include\afx.inl
; File C:\Program Files (x86)\Microsoft Visual Studio\2019\Community\VC\Tools\MSVC\14.29.30133\atlmfc\include\afxtempl.h
; File C:\Program Files (x86)\Microsoft Visual Studio\2019\Community\VC\Tools\MSVC\14.29.30133\atlmfc\include\afx.inl
; File C:\Program Files (x86)\Microsoft Visual Studio\2019\Community\VC\Tools\MSVC\14.29.30133\atlmfc\include\afxtempl.h
; File C:\Program Files (x86)\Microsoft Visual Studio\2019\Community\VC\Tools\MSVC\14.29.30133\atlmfc\include\afx.inl
; File C:\Program Files (x86)\Microsoft Visual Studio\2019\Community\VC\Tools\MSVC\14.29.30133\atlmfc\include\afxtempl.h
; File C:\Program Files (x86)\Microsoft Visual Studio\2019\Community\VC\Tools\MSVC\14.29.30133\atlmfc\include\afx.inl
; File C:\Program Files (x86)\Microsoft Visual Studio\2019\Community\VC\Tools\MSVC\14.29.30133\atlmfc\include\afxtempl.h
; File C:\Program Files (x86)\Microsoft Visual Studio\2019\Community\VC\Tools\MSVC\14.29.30133\atlmfc\include\afx.inl
; File C:\Program Files (x86)\Microsoft Visual Studio\2019\Community\VC\Tools\MSVC\14.29.30133\atlmfc\include\afxtempl.h
; File C:\Program Files (x86)\Microsoft Visual Studio\2019\Community\VC\Tools\MSVC\14.29.30133\atlmfc\include\afx.inl
; File C:\Program Files (x86)\Microsoft Visual Studio\2019\Community\VC\Tools\MSVC\14.29.30133\atlmfc\include\afxtempl.h
; File C:\Program Files (x86)\Microsoft Visual Studio\2019\Community\VC\Tools\MSVC\14.29.30133\atlmfc\include\afx.inl
; File C:\Program Files (x86)\Microsoft Visual Studio\2019\Community\VC\Tools\MSVC\14.29.30133\atlmfc\include\afxtempl.h
; File C:\Program Files (x86)\Microsoft Visual Studio\2019\Community\VC\Tools\MSVC\14.29.30133\atlmfc\include\afx.inl
; File C:\Program Files (x86)\Microsoft Visual Studio\2019\Community\VC\Tools\MSVC\14.29.30133\atlmfc\include\afxtempl.h
; File C:\Program Files (x86)\Microsoft Visual Studio\2019\Community\VC\Tools\MSVC\14.29.30133\atlmfc\include\afx.inl
; File C:\Program Files (x86)\Microsoft Visual Studio\2019\Community\VC\Tools\MSVC\14.29.30133\atlmfc\include\afxtempl.h
; File C:\Program Files (x86)\Microsoft Visual Studio\2019\Community\VC\Tools\MSVC\14.29.30133\atlmfc\include\afx.inl
; File C:\Program Files (x86)\Microsoft Visual Studio\2019\Community\VC\Tools\MSVC\14.29.30133\atlmfc\include\afxtempl.h
; File C:\Program Files (x86)\Microsoft Visual Studio\2019\Community\VC\Tools\MSVC\14.29.30133\atlmfc\include\afx.inl
; File C:\Program Files (x86)\Microsoft Visual Studio\2019\Community\VC\Tools\MSVC\14.29.30133\atlmfc\include\afxtempl.h
; File C:\Program Files (x86)\Microsoft Visual Studio\2019\Community\VC\Tools\MSVC\14.29.30133\atlmfc\include\afx.inl
; File C:\Program Files (x86)\Microsoft Visual Studio\2019\Community\VC\Tools\MSVC\14.29.30133\atlmfc\include\afxtempl.h
;	COMDAT ?Serialize@?$CMap@HHPAVCStringList@@PAV1@@@UAEXAAVCArchive@@@Z
_TEXT	SEGMENT
_nHashBucket$1$ = -32					; size = 4
_nCount$1$ = -32					; size = 4
_nElementsToRead$1$ = -32				; size = 4
_nElementsToRead$1$ = -28				; size = 4
_pData$1$ = -28						; size = 4
_nCount$1$ = -28					; size = 4
_newValue$1$ = -28					; size = 4
_this$1$ = -24						; size = 4
_newKey$3 = -20						; size = 4
_newValue$4 = -16					; size = 4
_pData$1$ = -12						; size = 4
_pData$1$ = -12						; size = 4
_key$1$ = -12						; size = 4
_nHash$1$ = -12						; size = 4
_nNewCount$1$ = -8					; size = 4
_pAssoc$1$ = -8						; size = 4
_nElementsLeft$1$ = -4					; size = 4
_pData$1$ = -4						; size = 4
_pData$1$ = -4						; size = 4
_nHashSize$1$ = 8					; size = 4
_pData$1$ = 8						; size = 4
_nElementsLeft$1$ = 8					; size = 4
_pData$1$ = 8						; size = 4
_nElementsLeft$1$ = 8					; size = 4
_ar$ = 8						; size = 4
?Serialize@?$CMap@HHPAVCStringList@@PAV1@@@UAEXAAVCArchive@@@Z PROC ; CMap<int,int,CStringList *,CStringList *>::Serialize, COMDAT
; _this$ = ecx

; 1743 : {

  00000	55		 push	 ebp
  00001	8b ec		 mov	 ebp, esp
  00003	83 ec 20	 sub	 esp, 32			; 00000020H
  00006	53		 push	 ebx
; File C:\Program Files (x86)\Microsoft Visual Studio\2019\Community\VC\Tools\MSVC\14.29.30133\atlmfc\include\afx.inl

; 212  : 	{ return (m_nMode & CArchive::load) == 0; }

  00007	8b 5d 08	 mov	 ebx, DWORD PTR _ar$[ebp]
; File C:\Program Files (x86)\Microsoft Visual Studio\2019\Community\VC\Tools\MSVC\14.29.30133\atlmfc\include\afxtempl.h

; 1743 : {

  0000a	56		 push	 esi
  0000b	8b f1		 mov	 esi, ecx

; 1748 : 	if (ar.IsStoring())

  0000d	8b cb		 mov	 ecx, ebx
  0000f	57		 push	 edi
; File C:\Program Files (x86)\Microsoft Visual Studio\2019\Community\VC\Tools\MSVC\14.29.30133\atlmfc\include\afx.inl

; 212  : 	{ return (m_nMode & CArchive::load) == 0; }

  00010	8b 43 18	 mov	 eax, DWORD PTR [ebx+24]
  00013	f7 d0		 not	 eax
; File C:\Program Files (x86)\Microsoft Visual Studio\2019\Community\VC\Tools\MSVC\14.29.30133\atlmfc\include\afxtempl.h

; 1743 : {

  00015	89 75 e8	 mov	 DWORD PTR _this$1$[ebp], esi
; File C:\Program Files (x86)\Microsoft Visual Studio\2019\Community\VC\Tools\MSVC\14.29.30133\atlmfc\include\afx.inl

; 212  : 	{ return (m_nMode & CArchive::load) == 0; }

  00018	a8 01		 test	 al, 1
; File C:\Program Files (x86)\Microsoft Visual Studio\2019\Community\VC\Tools\MSVC\14.29.30133\atlmfc\include\afxtempl.h

; 1748 : 	if (ar.IsStoring())

  0001a	0f 84 71 01 00
	00		 je	 $LN10@Serialize

; 1749 : 	{
; 1750 : 		ar.WriteCount(m_nCount);

  00020	ff 76 0c	 push	 DWORD PTR [esi+12]
  00023	e8 00 00 00 00	 call	 ?WriteCount@CArchive@@QAEXK@Z ; CArchive::WriteCount

; 1751 : 		if (m_nCount == 0)

  00028	83 7e 0c 00	 cmp	 DWORD PTR [esi+12], 0
  0002c	0f 84 c9 03 00
	00		 je	 $LN189@Serialize

; 1752 : 			return;  // nothing more to do
; 1753 : 
; 1754 : 		ASSERT(m_pHashTable != NULL);
; 1755 : 		if (m_pHashTable != NULL)

  00032	83 7e 04 00	 cmp	 DWORD PTR [esi+4], 0
  00036	0f 84 bf 03 00
	00		 je	 $LN189@Serialize

; 1756 : 		{
; 1757 : 			for (UINT nHash = 0; nHash < m_nHashTableSize; nHash++)

  0003c	33 c9		 xor	 ecx, ecx
  0003e	89 4d f4	 mov	 DWORD PTR _nHash$1$[ebp], ecx
  00041	39 4e 08	 cmp	 DWORD PTR [esi+8], ecx
  00044	0f 86 b1 03 00
	00		 jbe	 $LN189@Serialize
  0004a	66 0f 1f 44 00
	00		 npad	 6
$LL4@Serialize:

; 1758 : 			{
; 1759 : 				CAssoc* pAssoc;
; 1760 : 				for (pAssoc = m_pHashTable[nHash]; pAssoc != NULL; pAssoc = pAssoc->pNext)

  00050	8b 46 04	 mov	 eax, DWORD PTR [esi+4]
  00053	8b 0c 88	 mov	 ecx, DWORD PTR [eax+ecx*4]
  00056	89 4d f8	 mov	 DWORD PTR _pAssoc$1$[ebp], ecx
  00059	85 c9		 test	 ecx, ecx
  0005b	0f 84 17 01 00
	00		 je	 $LN2@Serialize
$LL7@Serialize:
; File C:\Program Files (x86)\Microsoft Visual Studio\2019\Community\VC\Tools\MSVC\14.29.30133\atlmfc\include\afx.inl

; 212  : 	{ return (m_nMode & CArchive::load) == 0; }

  00061	8b 43 18	 mov	 eax, DWORD PTR [ebx+24]
; File C:\Program Files (x86)\Microsoft Visual Studio\2019\Community\VC\Tools\MSVC\14.29.30133\atlmfc\include\afxtempl.h

; 1770 : 					pValue = reinterpret_cast< VALUE* >( &reinterpret_cast< int& >( static_cast< VALUE& >( pAssoc->value ) ) );

  00064	8d 71 04	 lea	 esi, DWORD PTR [ecx+4]
; File C:\Program Files (x86)\Microsoft Visual Studio\2019\Community\VC\Tools\MSVC\14.29.30133\atlmfc\include\afx.inl

; 212  : 	{ return (m_nMode & CArchive::load) == 0; }

  00067	f7 d0		 not	 eax
; File C:\Program Files (x86)\Microsoft Visual Studio\2019\Community\VC\Tools\MSVC\14.29.30133\atlmfc\include\afxtempl.h

; 1770 : 					pValue = reinterpret_cast< VALUE* >( &reinterpret_cast< int& >( static_cast< VALUE& >( pAssoc->value ) ) );

  00069	89 75 e4	 mov	 DWORD PTR _pData$1$[ebp], esi

; 73   : 	if (ar.IsStoring())

  0006c	89 4d fc	 mov	 DWORD PTR _pData$1$[ebp], ecx
; File C:\Program Files (x86)\Microsoft Visual Studio\2019\Community\VC\Tools\MSVC\14.29.30133\atlmfc\include\afx.inl

; 212  : 	{ return (m_nMode & CArchive::load) == 0; }

  0006f	a8 01		 test	 al, 1
; File C:\Program Files (x86)\Microsoft Visual Studio\2019\Community\VC\Tools\MSVC\14.29.30133\atlmfc\include\afxtempl.h

; 73   : 	if (ar.IsStoring())

  00071	74 3c		 je	 SHORT $LN26@Serialize

; 74   : 	{
; 75   : 		TYPE* pData;
; 76   : 		UINT_PTR nElementsLeft;
; 77   : 
; 78   : 		nElementsLeft = nCount;

  00073	be 01 00 00 00	 mov	 esi, 1

; 79   : 		pData = pElements;

  00078	8b c1		 mov	 eax, ecx
  0007a	66 0f 1f 44 00
	00		 npad	 6
$LL21@Serialize:

; 85   : 			ar.Write(pData, nElementsToWrite*sizeof(TYPE));

  00080	8b 4d 08	 mov	 ecx, DWORD PTR _ar$[ebp]
  00083	bb ff ff ff 1f	 mov	 ebx, 536870911		; 1fffffffH
  00088	3b f3		 cmp	 esi, ebx
  0008a	0f 42 de	 cmovb	 ebx, esi
  0008d	8d 3c 9d 00 00
	00 00		 lea	 edi, DWORD PTR [ebx*4]
  00094	57		 push	 edi
  00095	50		 push	 eax
  00096	e8 00 00 00 00	 call	 ?Write@CArchive@@QAEXPBXI@Z ; CArchive::Write

; 87   : 			pData += nElementsToWrite;

  0009b	8b 45 fc	 mov	 eax, DWORD PTR _pData$1$[ebp]
  0009e	03 c7		 add	 eax, edi
  000a0	89 45 fc	 mov	 DWORD PTR _pData$1$[ebp], eax
  000a3	2b f3		 sub	 esi, ebx
  000a5	75 d9		 jne	 SHORT $LL21@Serialize
  000a7	8b 75 e4	 mov	 esi, DWORD PTR _pData$1$[ebp]

; 88   : 		}
; 89   : 	}

  000aa	8b 5d 08	 mov	 ebx, DWORD PTR _ar$[ebp]
  000ad	eb 3b		 jmp	 SHORT $LN41@Serialize
$LN26@Serialize:

; 90   : 	else
; 91   : 	{
; 92   : 		TYPE* pData;
; 93   : 		UINT_PTR nElementsLeft;
; 94   : 
; 95   : 		nElementsLeft = nCount;

  000af	bf 01 00 00 00	 mov	 edi, 1

; 96   : 		pData = pElements;

  000b4	8b d1		 mov	 edx, ecx
$LL23@Serialize:

; 101  : 			nElementsToRead = UINT(__min(nElementsLeft, INT_MAX/sizeof(TYPE)));

  000b6	b8 ff ff ff 1f	 mov	 eax, 536870911		; 1fffffffH
; File C:\Program Files (x86)\Microsoft Visual Studio\2019\Community\VC\Tools\MSVC\14.29.30133\atlmfc\include\afx.inl

; 399  : 	UINT nRead=Read(lpBuf, nCount);

  000bb	8b cb		 mov	 ecx, ebx
; File C:\Program Files (x86)\Microsoft Visual Studio\2019\Community\VC\Tools\MSVC\14.29.30133\atlmfc\include\afxtempl.h

; 101  : 			nElementsToRead = UINT(__min(nElementsLeft, INT_MAX/sizeof(TYPE)));

  000bd	3b f8		 cmp	 edi, eax
  000bf	0f 42 c7	 cmovb	 eax, edi
  000c2	89 45 e0	 mov	 DWORD PTR _nElementsToRead$1$[ebp], eax

; 102  : 			ar.EnsureRead(pData, nElementsToRead*sizeof(TYPE));

  000c5	c1 e0 02	 shl	 eax, 2
; File C:\Program Files (x86)\Microsoft Visual Studio\2019\Community\VC\Tools\MSVC\14.29.30133\atlmfc\include\afx.inl

; 399  : 	UINT nRead=Read(lpBuf, nCount);

  000c8	50		 push	 eax
  000c9	52		 push	 edx
; File C:\Program Files (x86)\Microsoft Visual Studio\2019\Community\VC\Tools\MSVC\14.29.30133\atlmfc\include\afxtempl.h

; 102  : 			ar.EnsureRead(pData, nElementsToRead*sizeof(TYPE));

  000ca	89 45 e4	 mov	 DWORD PTR _nCount$1$[ebp], eax
; File C:\Program Files (x86)\Microsoft Visual Studio\2019\Community\VC\Tools\MSVC\14.29.30133\atlmfc\include\afx.inl

; 399  : 	UINT nRead=Read(lpBuf, nCount);

  000cd	e8 00 00 00 00	 call	 ?Read@CArchive@@QAEIPAXI@Z ; CArchive::Read

; 400  : 	if(nRead!=nCount)

  000d2	8b 4d e4	 mov	 ecx, DWORD PTR _nCount$1$[ebp]
  000d5	3b c1		 cmp	 eax, ecx
  000d7	0f 85 2c 03 00
	00		 jne	 $LN165@Serialize
; File C:\Program Files (x86)\Microsoft Visual Studio\2019\Community\VC\Tools\MSVC\14.29.30133\atlmfc\include\afxtempl.h

; 104  : 			pData += nElementsToRead;

  000dd	8b 55 fc	 mov	 edx, DWORD PTR _pData$1$[ebp]
  000e0	03 d1		 add	 edx, ecx
  000e2	89 55 fc	 mov	 DWORD PTR _pData$1$[ebp], edx
  000e5	2b 7d e0	 sub	 edi, DWORD PTR _nElementsToRead$1$[ebp]
  000e8	75 cc		 jne	 SHORT $LL23@Serialize
$LN41@Serialize:

; 68   : 	ENSURE(nCount == 0 || pElements != NULL);

  000ea	85 f6		 test	 esi, esi
  000ec	0f 84 12 03 00
	00		 je	 $LN167@Serialize
; File C:\Program Files (x86)\Microsoft Visual Studio\2019\Community\VC\Tools\MSVC\14.29.30133\atlmfc\include\afx.inl

; 212  : 	{ return (m_nMode & CArchive::load) == 0; }

  000f2	8b 43 18	 mov	 eax, DWORD PTR [ebx+24]
  000f5	f7 d0		 not	 eax
  000f7	a8 01		 test	 al, 1
; File C:\Program Files (x86)\Microsoft Visual Studio\2019\Community\VC\Tools\MSVC\14.29.30133\atlmfc\include\afxtempl.h

; 73   : 	if (ar.IsStoring())

  000f9	74 36		 je	 SHORT $LN47@Serialize

; 74   : 	{
; 75   : 		TYPE* pData;
; 76   : 		UINT_PTR nElementsLeft;
; 77   : 
; 78   : 		nElementsLeft = nCount;

  000fb	b8 01 00 00 00	 mov	 eax, 1
  00100	89 45 fc	 mov	 DWORD PTR _nElementsLeft$1$[ebp], eax
$LL42@Serialize:

; 85   : 			ar.Write(pData, nElementsToWrite*sizeof(TYPE));

  00103	8b 4d 08	 mov	 ecx, DWORD PTR _ar$[ebp]
  00106	bb ff ff ff 1f	 mov	 ebx, 536870911		; 1fffffffH
  0010b	3b c3		 cmp	 eax, ebx
  0010d	0f 42 d8	 cmovb	 ebx, eax
  00110	8d 3c 9d 00 00
	00 00		 lea	 edi, DWORD PTR [ebx*4]
  00117	57		 push	 edi
  00118	56		 push	 esi
  00119	e8 00 00 00 00	 call	 ?Write@CArchive@@QAEXPBXI@Z ; CArchive::Write

; 86   : 			nElementsLeft -= nElementsToWrite;

  0011e	8b 45 fc	 mov	 eax, DWORD PTR _nElementsLeft$1$[ebp]

; 87   : 			pData += nElementsToWrite;

  00121	03 f7		 add	 esi, edi
  00123	2b c3		 sub	 eax, ebx
  00125	89 45 fc	 mov	 DWORD PTR _nElementsLeft$1$[ebp], eax
  00128	85 c0		 test	 eax, eax
  0012a	75 d7		 jne	 SHORT $LL42@Serialize

; 88   : 		}
; 89   : 	}

  0012c	8b 5d 08	 mov	 ebx, DWORD PTR _ar$[ebp]
  0012f	eb 33		 jmp	 SHORT $LN5@Serialize
$LN47@Serialize:

; 90   : 	else
; 91   : 	{
; 92   : 		TYPE* pData;
; 93   : 		UINT_PTR nElementsLeft;
; 94   : 
; 95   : 		nElementsLeft = nCount;

  00131	bf 01 00 00 00	 mov	 edi, 1
$LL44@Serialize:

; 101  : 			nElementsToRead = UINT(__min(nElementsLeft, INT_MAX/sizeof(TYPE)));

  00136	b8 ff ff ff 1f	 mov	 eax, 536870911		; 1fffffffH
; File C:\Program Files (x86)\Microsoft Visual Studio\2019\Community\VC\Tools\MSVC\14.29.30133\atlmfc\include\afx.inl

; 399  : 	UINT nRead=Read(lpBuf, nCount);

  0013b	8b cb		 mov	 ecx, ebx
; File C:\Program Files (x86)\Microsoft Visual Studio\2019\Community\VC\Tools\MSVC\14.29.30133\atlmfc\include\afxtempl.h

; 101  : 			nElementsToRead = UINT(__min(nElementsLeft, INT_MAX/sizeof(TYPE)));

  0013d	3b f8		 cmp	 edi, eax
  0013f	0f 42 c7	 cmovb	 eax, edi
  00142	89 45 e4	 mov	 DWORD PTR _nElementsToRead$1$[ebp], eax

; 102  : 			ar.EnsureRead(pData, nElementsToRead*sizeof(TYPE));

  00145	c1 e0 02	 shl	 eax, 2
; File C:\Program Files (x86)\Microsoft Visual Studio\2019\Community\VC\Tools\MSVC\14.29.30133\atlmfc\include\afx.inl

; 399  : 	UINT nRead=Read(lpBuf, nCount);

  00148	50		 push	 eax
  00149	56		 push	 esi
; File C:\Program Files (x86)\Microsoft Visual Studio\2019\Community\VC\Tools\MSVC\14.29.30133\atlmfc\include\afxtempl.h

; 102  : 			ar.EnsureRead(pData, nElementsToRead*sizeof(TYPE));

  0014a	89 45 e0	 mov	 DWORD PTR _nCount$1$[ebp], eax
; File C:\Program Files (x86)\Microsoft Visual Studio\2019\Community\VC\Tools\MSVC\14.29.30133\atlmfc\include\afx.inl

; 399  : 	UINT nRead=Read(lpBuf, nCount);

  0014d	e8 00 00 00 00	 call	 ?Read@CArchive@@QAEIPAXI@Z ; CArchive::Read

; 400  : 	if(nRead!=nCount)

  00152	8b 4d e0	 mov	 ecx, DWORD PTR _nCount$1$[ebp]
  00155	3b c1		 cmp	 eax, ecx
  00157	0f 85 ac 02 00
	00		 jne	 $LN165@Serialize
; File C:\Program Files (x86)\Microsoft Visual Studio\2019\Community\VC\Tools\MSVC\14.29.30133\atlmfc\include\afxtempl.h

; 103  : 			nElementsLeft -= nElementsToRead;

  0015d	03 f1		 add	 esi, ecx
  0015f	2b 7d e4	 sub	 edi, DWORD PTR _nElementsToRead$1$[ebp]
  00162	75 d2		 jne	 SHORT $LL44@Serialize
$LN5@Serialize:

; 1758 : 			{
; 1759 : 				CAssoc* pAssoc;
; 1760 : 				for (pAssoc = m_pHashTable[nHash]; pAssoc != NULL; pAssoc = pAssoc->pNext)

  00164	8b 4d f8	 mov	 ecx, DWORD PTR _pAssoc$1$[ebp]
  00167	8b 49 08	 mov	 ecx, DWORD PTR [ecx+8]
  0016a	89 4d f8	 mov	 DWORD PTR _pAssoc$1$[ebp], ecx
  0016d	85 c9		 test	 ecx, ecx
  0016f	0f 85 ec fe ff
	ff		 jne	 $LL7@Serialize
  00175	8b 75 e8	 mov	 esi, DWORD PTR _this$1$[ebp]
$LN2@Serialize:

; 1756 : 		{
; 1757 : 			for (UINT nHash = 0; nHash < m_nHashTableSize; nHash++)

  00178	8b 4d f4	 mov	 ecx, DWORD PTR _nHash$1$[ebp]
  0017b	41		 inc	 ecx
  0017c	89 4d f4	 mov	 DWORD PTR _nHash$1$[ebp], ecx
  0017f	3b 4e 08	 cmp	 ecx, DWORD PTR [esi+8]
  00182	0f 82 c8 fe ff
	ff		 jb	 $LL4@Serialize

; 1787 : 		}
; 1788 : 	}
; 1789 : }

  00188	5f		 pop	 edi
  00189	5e		 pop	 esi
  0018a	5b		 pop	 ebx
  0018b	8b e5		 mov	 esp, ebp
  0018d	5d		 pop	 ebp
  0018e	c2 04 00	 ret	 4
$LN10@Serialize:

; 1771 : 					SerializeElements<KEY>(ar, pKey, 1);
; 1772 : 					SerializeElements<VALUE>(ar, pValue, 1);
; 1773 : 				}
; 1774 : 			}
; 1775 : 		}
; 1776 : 	}
; 1777 : 	else
; 1778 : 	{
; 1779 : 		DWORD_PTR nNewCount = ar.ReadCount();

  00191	e8 00 00 00 00	 call	 ?ReadCount@CArchive@@QAEKXZ ; CArchive::ReadCount

; 1780 : 		while (nNewCount--)

  00196	85 c0		 test	 eax, eax
  00198	0f 84 5d 02 00
	00		 je	 $LN189@Serialize
  0019e	66 90		 npad	 2
$LL8@Serialize:
  001a0	48		 dec	 eax
  001a1	89 45 f8	 mov	 DWORD PTR _nNewCount$1$[ebp], eax
; File C:\Program Files (x86)\Microsoft Visual Studio\2019\Community\VC\Tools\MSVC\14.29.30133\atlmfc\include\afx.inl

; 212  : 	{ return (m_nMode & CArchive::load) == 0; }

  001a4	8b 43 18	 mov	 eax, DWORD PTR [ebx+24]
  001a7	f7 d0		 not	 eax
  001a9	a8 01		 test	 al, 1
; File C:\Program Files (x86)\Microsoft Visual Studio\2019\Community\VC\Tools\MSVC\14.29.30133\atlmfc\include\afxtempl.h

; 73   : 	if (ar.IsStoring())

  001ab	74 43		 je	 SHORT $LN67@Serialize

; 74   : 	{
; 75   : 		TYPE* pData;
; 76   : 		UINT_PTR nElementsLeft;
; 77   : 
; 78   : 		nElementsLeft = nCount;

  001ad	b8 01 00 00 00	 mov	 eax, 1

; 79   : 		pData = pElements;

  001b2	8d 4d ec	 lea	 ecx, DWORD PTR _newKey$3[ebp]
  001b5	89 45 08	 mov	 DWORD PTR _nElementsLeft$1$[ebp], eax
  001b8	89 4d f4	 mov	 DWORD PTR _pData$1$[ebp], ecx
  001bb	0f 1f 44 00 00	 npad	 5
$LL62@Serialize:

; 80   : 		while( nElementsLeft > 0 )
; 81   : 		{
; 82   : 			UINT nElementsToWrite;
; 83   : 
; 84   : 			nElementsToWrite = UINT(__min(nElementsLeft, INT_MAX/sizeof(TYPE)));

  001c0	bf ff ff ff 1f	 mov	 edi, 536870911		; 1fffffffH
  001c5	3b c7		 cmp	 eax, edi
  001c7	0f 42 f8	 cmovb	 edi, eax

; 85   : 			ar.Write(pData, nElementsToWrite*sizeof(TYPE));

  001ca	8d 34 bd 00 00
	00 00		 lea	 esi, DWORD PTR [edi*4]
  001d1	56		 push	 esi
  001d2	51		 push	 ecx
  001d3	8b cb		 mov	 ecx, ebx
  001d5	e8 00 00 00 00	 call	 ?Write@CArchive@@QAEXPBXI@Z ; CArchive::Write

; 86   : 			nElementsLeft -= nElementsToWrite;

  001da	8b 45 08	 mov	 eax, DWORD PTR _nElementsLeft$1$[ebp]

; 87   : 			pData += nElementsToWrite;

  001dd	8b 4d f4	 mov	 ecx, DWORD PTR _pData$1$[ebp]
  001e0	2b c7		 sub	 eax, edi
  001e2	03 ce		 add	 ecx, esi
  001e4	89 45 08	 mov	 DWORD PTR _nElementsLeft$1$[ebp], eax
  001e7	89 4d f4	 mov	 DWORD PTR _pData$1$[ebp], ecx
  001ea	85 c0		 test	 eax, eax
  001ec	75 d2		 jne	 SHORT $LL62@Serialize

; 88   : 		}
; 89   : 	}

  001ee	eb 45		 jmp	 SHORT $LN81@Serialize
$LN67@Serialize:

; 96   : 		pData = pElements;

  001f0	8d 55 ec	 lea	 edx, DWORD PTR _newKey$3[ebp]
  001f3	be 01 00 00 00	 mov	 esi, 1
  001f8	89 55 08	 mov	 DWORD PTR _pData$1$[ebp], edx
  001fb	0f 1f 44 00 00	 npad	 5
$LL64@Serialize:

; 101  : 			nElementsToRead = UINT(__min(nElementsLeft, INT_MAX/sizeof(TYPE)));

  00200	bf ff ff ff 1f	 mov	 edi, 536870911		; 1fffffffH
; File C:\Program Files (x86)\Microsoft Visual Studio\2019\Community\VC\Tools\MSVC\14.29.30133\atlmfc\include\afx.inl

; 399  : 	UINT nRead=Read(lpBuf, nCount);

  00205	8b cb		 mov	 ecx, ebx
; File C:\Program Files (x86)\Microsoft Visual Studio\2019\Community\VC\Tools\MSVC\14.29.30133\atlmfc\include\afxtempl.h

; 101  : 			nElementsToRead = UINT(__min(nElementsLeft, INT_MAX/sizeof(TYPE)));

  00207	3b f7		 cmp	 esi, edi
  00209	0f 42 fe	 cmovb	 edi, esi

; 102  : 			ar.EnsureRead(pData, nElementsToRead*sizeof(TYPE));

  0020c	8d 04 bd 00 00
	00 00		 lea	 eax, DWORD PTR [edi*4]
; File C:\Program Files (x86)\Microsoft Visual Studio\2019\Community\VC\Tools\MSVC\14.29.30133\atlmfc\include\afx.inl

; 399  : 	UINT nRead=Read(lpBuf, nCount);

  00213	50		 push	 eax
  00214	52		 push	 edx
  00215	e8 00 00 00 00	 call	 ?Read@CArchive@@QAEIPAXI@Z ; CArchive::Read

; 400  : 	if(nRead!=nCount)

  0021a	8d 0c bd 00 00
	00 00		 lea	 ecx, DWORD PTR [edi*4]
  00221	3b c1		 cmp	 eax, ecx
  00223	0f 85 e0 01 00
	00		 jne	 $LN165@Serialize
; File C:\Program Files (x86)\Microsoft Visual Studio\2019\Community\VC\Tools\MSVC\14.29.30133\atlmfc\include\afxtempl.h

; 104  : 			pData += nElementsToRead;

  00229	8b 55 08	 mov	 edx, DWORD PTR _pData$1$[ebp]
  0022c	03 d1		 add	 edx, ecx
  0022e	89 55 08	 mov	 DWORD PTR _pData$1$[ebp], edx
  00231	2b f7		 sub	 esi, edi
  00233	75 cb		 jne	 SHORT $LL64@Serialize
$LN81@Serialize:
; File C:\Program Files (x86)\Microsoft Visual Studio\2019\Community\VC\Tools\MSVC\14.29.30133\atlmfc\include\afx.inl

; 212  : 	{ return (m_nMode & CArchive::load) == 0; }

  00235	8b 43 18	 mov	 eax, DWORD PTR [ebx+24]
  00238	f7 d0		 not	 eax
  0023a	a8 01		 test	 al, 1
; File C:\Program Files (x86)\Microsoft Visual Studio\2019\Community\VC\Tools\MSVC\14.29.30133\atlmfc\include\afxtempl.h

; 73   : 	if (ar.IsStoring())

  0023c	74 42		 je	 SHORT $LN87@Serialize

; 74   : 	{
; 75   : 		TYPE* pData;
; 76   : 		UINT_PTR nElementsLeft;
; 77   : 
; 78   : 		nElementsLeft = nCount;

  0023e	b8 01 00 00 00	 mov	 eax, 1

; 79   : 		pData = pElements;

  00243	8d 4d f0	 lea	 ecx, DWORD PTR _newValue$4[ebp]
  00246	89 45 08	 mov	 DWORD PTR _nElementsLeft$1$[ebp], eax
  00249	89 4d f4	 mov	 DWORD PTR _pData$1$[ebp], ecx
  0024c	0f 1f 40 00	 npad	 4
$LL82@Serialize:

; 80   : 		while( nElementsLeft > 0 )
; 81   : 		{
; 82   : 			UINT nElementsToWrite;
; 83   : 
; 84   : 			nElementsToWrite = UINT(__min(nElementsLeft, INT_MAX/sizeof(TYPE)));

  00250	bf ff ff ff 1f	 mov	 edi, 536870911		; 1fffffffH
  00255	3b c7		 cmp	 eax, edi
  00257	0f 42 f8	 cmovb	 edi, eax

; 85   : 			ar.Write(pData, nElementsToWrite*sizeof(TYPE));

  0025a	8d 34 bd 00 00
	00 00		 lea	 esi, DWORD PTR [edi*4]
  00261	56		 push	 esi
  00262	51		 push	 ecx
  00263	8b cb		 mov	 ecx, ebx
  00265	e8 00 00 00 00	 call	 ?Write@CArchive@@QAEXPBXI@Z ; CArchive::Write

; 86   : 			nElementsLeft -= nElementsToWrite;

  0026a	8b 45 08	 mov	 eax, DWORD PTR _nElementsLeft$1$[ebp]

; 87   : 			pData += nElementsToWrite;

  0026d	8b 4d f4	 mov	 ecx, DWORD PTR _pData$1$[ebp]
  00270	2b c7		 sub	 eax, edi
  00272	03 ce		 add	 ecx, esi
  00274	89 45 08	 mov	 DWORD PTR _nElementsLeft$1$[ebp], eax
  00277	89 4d f4	 mov	 DWORD PTR _pData$1$[ebp], ecx
  0027a	85 c0		 test	 eax, eax
  0027c	75 d2		 jne	 SHORT $LL82@Serialize

; 88   : 		}
; 89   : 	}

  0027e	eb 45		 jmp	 SHORT $LN85@Serialize
$LN87@Serialize:

; 96   : 		pData = pElements;

  00280	8d 55 f0	 lea	 edx, DWORD PTR _newValue$4[ebp]
  00283	be 01 00 00 00	 mov	 esi, 1
  00288	89 55 08	 mov	 DWORD PTR _pData$1$[ebp], edx
  0028b	0f 1f 44 00 00	 npad	 5
$LL84@Serialize:

; 101  : 			nElementsToRead = UINT(__min(nElementsLeft, INT_MAX/sizeof(TYPE)));

  00290	bf ff ff ff 1f	 mov	 edi, 536870911		; 1fffffffH
; File C:\Program Files (x86)\Microsoft Visual Studio\2019\Community\VC\Tools\MSVC\14.29.30133\atlmfc\include\afx.inl

; 399  : 	UINT nRead=Read(lpBuf, nCount);

  00295	8b cb		 mov	 ecx, ebx
; File C:\Program Files (x86)\Microsoft Visual Studio\2019\Community\VC\Tools\MSVC\14.29.30133\atlmfc\include\afxtempl.h

; 101  : 			nElementsToRead = UINT(__min(nElementsLeft, INT_MAX/sizeof(TYPE)));

  00297	3b f7		 cmp	 esi, edi
  00299	0f 42 fe	 cmovb	 edi, esi

; 102  : 			ar.EnsureRead(pData, nElementsToRead*sizeof(TYPE));

  0029c	8d 04 bd 00 00
	00 00		 lea	 eax, DWORD PTR [edi*4]
; File C:\Program Files (x86)\Microsoft Visual Studio\2019\Community\VC\Tools\MSVC\14.29.30133\atlmfc\include\afx.inl

; 399  : 	UINT nRead=Read(lpBuf, nCount);

  002a3	50		 push	 eax
  002a4	52		 push	 edx
  002a5	e8 00 00 00 00	 call	 ?Read@CArchive@@QAEIPAXI@Z ; CArchive::Read

; 400  : 	if(nRead!=nCount)

  002aa	8d 0c bd 00 00
	00 00		 lea	 ecx, DWORD PTR [edi*4]
  002b1	3b c1		 cmp	 eax, ecx
  002b3	0f 85 50 01 00
	00		 jne	 $LN165@Serialize
; File C:\Program Files (x86)\Microsoft Visual Studio\2019\Community\VC\Tools\MSVC\14.29.30133\atlmfc\include\afxtempl.h

; 104  : 			pData += nElementsToRead;

  002b9	8b 55 08	 mov	 edx, DWORD PTR _pData$1$[ebp]
  002bc	03 d1		 add	 edx, ecx
  002be	89 55 08	 mov	 DWORD PTR _pData$1$[ebp], edx
  002c1	2b f7		 sub	 esi, edi
  002c3	75 cb		 jne	 SHORT $LL84@Serialize
$LN85@Serialize:

; 1781 : 		{
; 1782 : 			KEY newKey[1];
; 1783 : 			VALUE newValue[1];
; 1784 : 			SerializeElements<KEY>(ar, newKey, 1);
; 1785 : 			SerializeElements<VALUE>(ar, newValue, 1);
; 1786 : 			SetAt(newKey[0], newValue[0]);

  002c5	8b 45 f0	 mov	 eax, DWORD PTR _newValue$4[ebp]
  002c8	b9 1d f3 01 00	 mov	 ecx, 127773		; 0001f31dH
  002cd	89 45 e4	 mov	 DWORD PTR _newValue$1$[ebp], eax
  002d0	8b 45 ec	 mov	 eax, DWORD PTR _newKey$3[ebp]
  002d3	89 45 f4	 mov	 DWORD PTR _key$1$[ebp], eax
  002d6	99		 cdq
  002d7	f7 f9		 idiv	 ecx

; 1534 : 	nHashBucket = nHashValue % m_nHashTableSize;

  002d9	8b 75 e8	 mov	 esi, DWORD PTR _this$1$[ebp]

; 166  : 	HashVal.rem = 16807 * HashVal.rem - 2836 * HashVal.quot;

  002dc	69 c0 14 0b 00
	00		 imul	 eax, eax, 2836
  002e2	69 ca a7 41 00
	00		 imul	 ecx, edx, 16807
  002e8	2b c8		 sub	 ecx, eax

; 1534 : 	nHashBucket = nHashValue % m_nHashTableSize;

  002ea	8d b9 ff ff ff
	7f		 lea	 edi, DWORD PTR [ecx+2147483647]
  002f0	0f 49 f9	 cmovns	 edi, ecx
  002f3	8b 4e 08	 mov	 ecx, DWORD PTR [esi+8]
  002f6	33 d2		 xor	 edx, edx
  002f8	89 4d 08	 mov	 DWORD PTR _nHashSize$1$[ebp], ecx
  002fb	8b c7		 mov	 eax, edi
  002fd	f7 f1		 div	 ecx

; 1535 : 
; 1536 : 	if (m_pHashTable == NULL)

  002ff	8b 4e 04	 mov	 ecx, DWORD PTR [esi+4]
  00302	8b c2		 mov	 eax, edx
  00304	89 45 e0	 mov	 DWORD PTR _nHashBucket$1$[ebp], eax
  00307	85 c9		 test	 ecx, ecx
  00309	75 49		 jne	 SHORT $LN112@Serialize

; 1434 : 		m_pHashTable = new CAssoc* [nHashSize];

  0030b	8b 45 08	 mov	 eax, DWORD PTR _nHashSize$1$[ebp]
  0030e	ba 04 00 00 00	 mov	 edx, 4
  00313	f7 e2		 mul	 edx
  00315	0f 90 c1	 seto	 cl
  00318	f7 d9		 neg	 ecx
  0031a	0b c8		 or	 ecx, eax
  0031c	51		 push	 ecx
  0031d	e8 00 00 00 00	 call	 ??_U@YAPAXI@Z		; operator new[]
  00322	83 c4 04	 add	 esp, 4
  00325	89 46 04	 mov	 DWORD PTR [esi+4], eax

; 1435 : 		ENSURE(m_pHashTable != NULL);

  00328	85 c0		 test	 eax, eax
  0032a	0f 84 d4 00 00
	00		 je	 $LN167@Serialize

; 1436 : 		memset(m_pHashTable, 0, sizeof(CAssoc*) * nHashSize);

  00330	8b 4d 08	 mov	 ecx, DWORD PTR _nHashSize$1$[ebp]
  00333	c1 e1 02	 shl	 ecx, 2
  00336	51		 push	 ecx
  00337	6a 00		 push	 0
  00339	50		 push	 eax
  0033a	e8 00 00 00 00	 call	 _memset

; 1437 : 	}
; 1438 : 	m_nHashTableSize = nHashSize;

  0033f	8b 45 08	 mov	 eax, DWORD PTR _nHashSize$1$[ebp]
  00342	83 c4 0c	 add	 esp, 12			; 0000000cH

; 1595 : 		ENSURE(m_pHashTable);

  00345	83 7e 04 00	 cmp	 DWORD PTR [esi+4], 0

; 1438 : 	m_nHashTableSize = nHashSize;

  00349	89 46 08	 mov	 DWORD PTR [esi+8], eax

; 1595 : 		ENSURE(m_pHashTable);

  0034c	0f 84 b2 00 00
	00		 je	 $LN167@Serialize
  00352	eb 20		 jmp	 SHORT $LN225@Serialize
$LN112@Serialize:

; 1541 : 	for (pAssoc = m_pHashTable[nHashBucket]; pAssoc != NULL; pAssoc = pAssoc->pNext)

  00354	8b 0c 81	 mov	 ecx, DWORD PTR [ecx+eax*4]
  00357	85 c9		 test	 ecx, ecx
  00359	74 19		 je	 SHORT $LN225@Serialize
  0035b	8b 45 f4	 mov	 eax, DWORD PTR _key$1$[ebp]
  0035e	66 90		 npad	 2
$LL111@Serialize:

; 1542 : 	{
; 1543 : 		if (pAssoc->nHashValue == nHashValue && CompareElements(&pAssoc->key, &key))

  00360	39 79 0c	 cmp	 DWORD PTR [ecx+12], edi
  00363	75 08		 jne	 SHORT $LN109@Serialize

; 156  : 	return *pElement1 == *pElement2;

  00365	39 01		 cmp	 DWORD PTR [ecx], eax

; 1543 : 		if (pAssoc->nHashValue == nHashValue && CompareElements(&pAssoc->key, &key))

  00367	0f 84 7d 00 00
	00		 je	 $LN104@Serialize
$LN109@Serialize:

; 1537 : 		return NULL;
; 1538 : 
; 1539 : 	// see if it exists
; 1540 : 	CAssoc* pAssoc;
; 1541 : 	for (pAssoc = m_pHashTable[nHashBucket]; pAssoc != NULL; pAssoc = pAssoc->pNext)

  0036d	8b 49 08	 mov	 ecx, DWORD PTR [ecx+8]
  00370	85 c9		 test	 ecx, ecx
  00372	75 ec		 jne	 SHORT $LL111@Serialize
$LN225@Serialize:

; 1481 : 	if (m_pFreeList == NULL)

  00374	83 7e 10 00	 cmp	 DWORD PTR [esi+16], 0
  00378	75 37		 jne	 SHORT $LN142@Serialize

; 1482 : 	{
; 1483 : 		// add another block
; 1484 : 		CPlex* newBlock = CPlex::Create(m_pBlocks, m_nBlockSize, sizeof(CMap::CAssoc));

  0037a	6a 10		 push	 16			; 00000010H
  0037c	ff 76 18	 push	 DWORD PTR [esi+24]
  0037f	8d 46 14	 lea	 eax, DWORD PTR [esi+20]
  00382	50		 push	 eax
  00383	e8 00 00 00 00	 call	 ?Create@CPlex@@SGPAU1@AAPAU1@II@Z ; CPlex::Create

; 1485 : 		// chain them into free list
; 1486 : 		CMap::CAssoc* pAssoc = (CMap::CAssoc*) newBlock->data();
; 1487 : 		// free in reverse order to make it easier to debug
; 1488 : 		pAssoc += m_nBlockSize - 1;

  00388	8b 56 18	 mov	 edx, DWORD PTR [esi+24]
  0038b	83 c0 08	 add	 eax, 8
  0038e	8b ca		 mov	 ecx, edx
  00390	c1 e1 04	 shl	 ecx, 4
  00393	83 c1 f0	 add	 ecx, -16		; fffffff0H
  00396	03 c8		 add	 ecx, eax

; 1489 : 		for (INT_PTR i = m_nBlockSize-1; i >= 0; i--, pAssoc--)

  00398	83 c2 ff	 add	 edx, -1
  0039b	78 14		 js	 SHORT $LN142@Serialize
  0039d	0f 1f 00	 npad	 3
$LL139@Serialize:

; 1490 : 		{
; 1491 : 			pAssoc->pNext = m_pFreeList;

  003a0	8b 46 10	 mov	 eax, DWORD PTR [esi+16]
  003a3	89 41 08	 mov	 DWORD PTR [ecx+8], eax

; 1492 : 			m_pFreeList = pAssoc;

  003a6	89 4e 10	 mov	 DWORD PTR [esi+16], ecx
  003a9	83 e9 10	 sub	 ecx, 16			; 00000010H
  003ac	83 ea 01	 sub	 edx, 1
  003af	79 ef		 jns	 SHORT $LL139@Serialize
$LN142@Serialize:

; 1493 : 		}
; 1494 : 	}
; 1495 : 	ENSURE(m_pFreeList != NULL);  // we must have something

  003b1	8b 4e 10	 mov	 ecx, DWORD PTR [esi+16]
  003b4	85 c9		 test	 ecx, ecx
  003b6	74 4c		 je	 SHORT $LN167@Serialize

; 1496 : 
; 1497 : 	CMap::CAssoc* pAssoc = m_pFreeList;
; 1498 : 
; 1499 : 	// zero the memory
; 1500 : 	CMap::CAssoc* pTemp = pAssoc->pNext;

  003b8	8b 41 08	 mov	 eax, DWORD PTR [ecx+8]
  003bb	0f 57 c0	 xorps	 xmm0, xmm0

; 1602 : 		pAssoc->pNext = m_pHashTable[nHashBucket];

  003be	8b 55 e0	 mov	 edx, DWORD PTR _nHashBucket$1$[ebp]

; 1501 : 	memset( pAssoc, 0, sizeof(CMap::CAssoc) );

  003c1	0f 11 01	 movups	 XMMWORD PTR [ecx], xmm0

; 1502 : 	pAssoc->pNext = pTemp;

  003c4	89 41 08	 mov	 DWORD PTR [ecx+8], eax

; 1503 : 
; 1504 : 	m_pFreeList = m_pFreeList->pNext;

  003c7	8b 46 10	 mov	 eax, DWORD PTR [esi+16]
  003ca	8b 40 08	 mov	 eax, DWORD PTR [eax+8]

; 1505 : 	m_nCount++;

  003cd	ff 46 0c	 inc	 DWORD PTR [esi+12]
  003d0	89 46 10	 mov	 DWORD PTR [esi+16], eax

; 1256 : 		CPair( ARG_KEY keyval ) : key( keyval )	{}

  003d3	8b 45 f4	 mov	 eax, DWORD PTR _key$1$[ebp]
  003d6	89 01		 mov	 DWORD PTR [ecx], eax

; 1598 : 		pAssoc->nHashValue = nHashValue;

  003d8	89 79 0c	 mov	 DWORD PTR [ecx+12], edi

; 1599 : 		//'pAssoc->value' is a constructed object, nothing more
; 1600 : 
; 1601 : 		// put into hash table
; 1602 : 		pAssoc->pNext = m_pHashTable[nHashBucket];

  003db	8b 46 04	 mov	 eax, DWORD PTR [esi+4]
  003de	8b 04 90	 mov	 eax, DWORD PTR [eax+edx*4]
  003e1	89 41 08	 mov	 DWORD PTR [ecx+8], eax

; 1603 : 		m_pHashTable[nHashBucket] = pAssoc;

  003e4	8b 46 04	 mov	 eax, DWORD PTR [esi+4]
  003e7	89 0c 90	 mov	 DWORD PTR [eax+edx*4], ecx
$LN104@Serialize:

; 1350 : 	{ (*this)[key] = newValue; }

  003ea	8b 45 e4	 mov	 eax, DWORD PTR _newValue$1$[ebp]
  003ed	89 41 04	 mov	 DWORD PTR [ecx+4], eax

; 1780 : 		while (nNewCount--)

  003f0	8b 45 f8	 mov	 eax, DWORD PTR _nNewCount$1$[ebp]
  003f3	85 c0		 test	 eax, eax
  003f5	0f 85 a5 fd ff
	ff		 jne	 $LL8@Serialize
$LN189@Serialize:
  003fb	5f		 pop	 edi

; 1787 : 		}
; 1788 : 	}
; 1789 : }

  003fc	5e		 pop	 esi
  003fd	5b		 pop	 ebx
  003fe	8b e5		 mov	 esp, ebp
  00400	5d		 pop	 ebp
  00401	c2 04 00	 ret	 4
$LN167@Serialize:
  00404	e8 00 00 00 00	 call	 ?AfxThrowInvalidArgException@@YGXXZ ; AfxThrowInvalidArgException
$LN165@Serialize:
  00409	6a 00		 push	 0
  0040b	6a 03		 push	 3
  0040d	e8 00 00 00 00	 call	 ?AfxThrowArchiveException@@YGXHPBD@Z ; AfxThrowArchiveException
$LN226@Serialize:
  00412	cc		 int	 3
?Serialize@?$CMap@HHPAVCStringList@@PAV1@@@UAEXAAVCArchive@@@Z ENDP ; CMap<int,int,CStringList *,CStringList *>::Serialize
_TEXT	ENDS
; Function compile flags: /Ogtp
; File C:\Program Files (x86)\Microsoft Visual Studio\2019\Community\VC\Tools\MSVC\14.29.30133\atlmfc\include\afxtempl.h
;	COMDAT ??1?$CMap@HHPAVCStringList@@PAV1@@@UAE@XZ
_TEXT	SEGMENT
__$EHRec$ = -12						; size = 12
??1?$CMap@HHPAVCStringList@@PAV1@@@UAE@XZ PROC		; CMap<int,int,CStringList *,CStringList *>::~CMap<int,int,CStringList *,CStringList *>, COMDAT
; _this$ = ecx

; 1472 : {

  00000	55		 push	 ebp
  00001	8b ec		 mov	 ebp, esp
  00003	6a ff		 push	 -1
  00005	68 00 00 00 00	 push	 __ehhandler$??1?$CMap@HHPAVCStringList@@PAV1@@@UAE@XZ
  0000a	64 a1 00 00 00
	00		 mov	 eax, DWORD PTR fs:0
  00010	50		 push	 eax
  00011	56		 push	 esi
  00012	a1 00 00 00 00	 mov	 eax, DWORD PTR ___security_cookie
  00017	33 c5		 xor	 eax, ebp
  00019	50		 push	 eax
  0001a	8d 45 f4	 lea	 eax, DWORD PTR __$EHRec$[ebp]
  0001d	64 a3 00 00 00
	00		 mov	 DWORD PTR fs:0, eax
  00023	8b f1		 mov	 esi, ecx

; 1446 : 	if (m_pHashTable != NULL)

  00025	8b 46 04	 mov	 eax, DWORD PTR [esi+4]

; 1472 : {

  00028	c7 06 00 00 00
	00		 mov	 DWORD PTR [esi], OFFSET ??_7?$CMap@HHPAVCStringList@@PAV1@@@6B@

; 1446 : 	if (m_pHashTable != NULL)

  0002e	85 c0		 test	 eax, eax
  00030	74 10		 je	 SHORT $LN10@CMap

; 1447 : 	{
; 1448 : 		// destroy elements (values and keys)
; 1449 : 		for (UINT nHash = 0; nHash < m_nHashTableSize; nHash++)
; 1450 : 		{
; 1451 : 			CAssoc* pAssoc;
; 1452 : 			for (pAssoc = m_pHashTable[nHash]; pAssoc != NULL;
; 1453 : 			  pAssoc = pAssoc->pNext)
; 1454 : 			{
; 1455 : 				pAssoc->CAssoc::~CAssoc();
; 1456 : 			}
; 1457 : 		}
; 1458 : 
; 1459 : 		// free hash table
; 1460 : 		delete[] m_pHashTable;

  00032	50		 push	 eax
  00033	e8 00 00 00 00	 call	 ??_V@YAXPAX@Z		; operator delete[]
  00038	83 c4 04	 add	 esp, 4

; 1461 : 		m_pHashTable = NULL;

  0003b	c7 46 04 00 00
	00 00		 mov	 DWORD PTR [esi+4], 0
$LN10@CMap:

; 1462 : 	}
; 1463 : 
; 1464 : 	m_nCount = 0;
; 1465 : 	m_pFreeList = NULL;
; 1466 : 	m_pBlocks->FreeDataChain();

  00042	8b 4e 14	 mov	 ecx, DWORD PTR [esi+20]
  00045	c7 46 0c 00 00
	00 00		 mov	 DWORD PTR [esi+12], 0
  0004c	c7 46 10 00 00
	00 00		 mov	 DWORD PTR [esi+16], 0
  00053	e8 00 00 00 00	 call	 ?FreeDataChain@CPlex@@QAEXXZ ; CPlex::FreeDataChain

; 1467 : 	m_pBlocks = NULL;

  00058	c7 46 14 00 00
	00 00		 mov	 DWORD PTR [esi+20], 0

; 1473 : 	RemoveAll();
; 1474 : 	ASSERT(m_nCount == 0);
; 1475 : }

  0005f	8b 4d f4	 mov	 ecx, DWORD PTR __$EHRec$[ebp]
  00062	64 89 0d 00 00
	00 00		 mov	 DWORD PTR fs:0, ecx
  00069	59		 pop	 ecx
  0006a	5e		 pop	 esi
  0006b	8b e5		 mov	 esp, ebp
  0006d	5d		 pop	 ebp
  0006e	c3		 ret	 0
  0006f	cc		 int	 3
  00070	cc		 int	 3
  00071	cc		 int	 3
  00072	cc		 int	 3
  00073	cc		 int	 3
_TEXT	ENDS
;	COMDAT text$x
text$x	SEGMENT
__ehhandler$??1?$CMap@HHPAVCStringList@@PAV1@@@UAE@XZ:
  00000	90		 npad	 1
  00001	90		 npad	 1
  00002	8b 54 24 08	 mov	 edx, DWORD PTR [esp+8]
  00006	8d 42 0c	 lea	 eax, DWORD PTR [edx+12]
  00009	8b 4a f8	 mov	 ecx, DWORD PTR [edx-8]
  0000c	33 c8		 xor	 ecx, eax
  0000e	e8 00 00 00 00	 call	 @__security_check_cookie@4
  00013	b8 00 00 00 00	 mov	 eax, OFFSET __ehfuncinfo$??1?$CMap@HHPAVCStringList@@PAV1@@@UAE@XZ
  00018	e9 00 00 00 00	 jmp	 ___CxxFrameHandler3
text$x	ENDS
??1?$CMap@HHPAVCStringList@@PAV1@@@UAE@XZ ENDP		; CMap<int,int,CStringList *,CStringList *>::~CMap<int,int,CStringList *,CStringList *>
; Function compile flags: /Ogtp
; File C:\Program Files (x86)\Microsoft Visual Studio\2019\Community\VC\Tools\MSVC\14.29.30133\atlmfc\include\afxtempl.h
;	COMDAT ?GetAssocAt@?$CMap@HHPAVCStringList@@PAV1@@@IBEPAVCAssoc@1@HAAI0@Z
_TEXT	SEGMENT
_key$ = 8						; size = 4
_nHashBucket$ = 12					; size = 4
_nHashValue$ = 16					; size = 4
?GetAssocAt@?$CMap@HHPAVCStringList@@PAV1@@@IBEPAVCAssoc@1@HAAI0@Z PROC ; CMap<int,int,CStringList *,CStringList *>::GetAssocAt, COMDAT
; _this$ = ecx

; 1532 : {

  00000	55		 push	 ebp
  00001	8b ec		 mov	 ebp, esp
  00003	56		 push	 esi
  00004	8b f1		 mov	 esi, ecx

; 165  : 	ldiv_t HashVal = ldiv((long)(ARG_KEY)key, 127773);

  00006	b9 1d f3 01 00	 mov	 ecx, 127773		; 0001f31dH

; 1532 : {

  0000b	57		 push	 edi

; 165  : 	ldiv_t HashVal = ldiv((long)(ARG_KEY)key, 127773);

  0000c	8b 7d 08	 mov	 edi, DWORD PTR _key$[ebp]
  0000f	8b c7		 mov	 eax, edi
  00011	99		 cdq
  00012	f7 f9		 idiv	 ecx

; 166  : 	HashVal.rem = 16807 * HashVal.rem - 2836 * HashVal.quot;

  00014	69 c0 14 0b 00
	00		 imul	 eax, eax, 2836
  0001a	69 ca a7 41 00
	00		 imul	 ecx, edx, 16807
  00020	2b c8		 sub	 ecx, eax

; 1533 : 	nHashValue = HashKey<ARG_KEY>(key);

  00022	8d 81 ff ff ff
	7f		 lea	 eax, DWORD PTR [ecx+2147483647]
  00028	0f 49 c1	 cmovns	 eax, ecx
  0002b	8b 4d 10	 mov	 ecx, DWORD PTR _nHashValue$[ebp]

; 1534 : 	nHashBucket = nHashValue % m_nHashTableSize;

  0002e	33 d2		 xor	 edx, edx
  00030	89 01		 mov	 DWORD PTR [ecx], eax
  00032	f7 76 08	 div	 DWORD PTR [esi+8]
  00035	8b 45 0c	 mov	 eax, DWORD PTR _nHashBucket$[ebp]
  00038	89 10		 mov	 DWORD PTR [eax], edx

; 1535 : 
; 1536 : 	if (m_pHashTable == NULL)

  0003a	8b 46 04	 mov	 eax, DWORD PTR [esi+4]
  0003d	85 c0		 test	 eax, eax
  0003f	74 1f		 je	 SHORT $LN26@GetAssocAt

; 1537 : 		return NULL;
; 1538 : 
; 1539 : 	// see if it exists
; 1540 : 	CAssoc* pAssoc;
; 1541 : 	for (pAssoc = m_pHashTable[nHashBucket]; pAssoc != NULL; pAssoc = pAssoc->pNext)

  00041	8b 04 90	 mov	 eax, DWORD PTR [eax+edx*4]
  00044	85 c0		 test	 eax, eax
  00046	74 18		 je	 SHORT $LN26@GetAssocAt

; 1542 : 	{
; 1543 : 		if (pAssoc->nHashValue == nHashValue && CompareElements(&pAssoc->key, &key))

  00048	8b 09		 mov	 ecx, DWORD PTR [ecx]
  0004a	66 0f 1f 44 00
	00		 npad	 6
$LL4@GetAssocAt:
  00050	39 48 0c	 cmp	 DWORD PTR [eax+12], ecx
  00053	75 04		 jne	 SHORT $LN2@GetAssocAt

; 156  : 	return *pElement1 == *pElement2;

  00055	39 38		 cmp	 DWORD PTR [eax], edi

; 1542 : 	{
; 1543 : 		if (pAssoc->nHashValue == nHashValue && CompareElements(&pAssoc->key, &key))

  00057	74 09		 je	 SHORT $LN1@GetAssocAt
$LN2@GetAssocAt:

; 1537 : 		return NULL;
; 1538 : 
; 1539 : 	// see if it exists
; 1540 : 	CAssoc* pAssoc;
; 1541 : 	for (pAssoc = m_pHashTable[nHashBucket]; pAssoc != NULL; pAssoc = pAssoc->pNext)

  00059	8b 40 08	 mov	 eax, DWORD PTR [eax+8]
  0005c	85 c0		 test	 eax, eax
  0005e	75 f0		 jne	 SHORT $LL4@GetAssocAt
$LN26@GetAssocAt:

; 1544 : 			return pAssoc;
; 1545 : 	}
; 1546 : 	return NULL;

  00060	33 c0		 xor	 eax, eax
$LN1@GetAssocAt:
  00062	5f		 pop	 edi

; 1547 : }

  00063	5e		 pop	 esi
  00064	5d		 pop	 ebp
  00065	c2 0c 00	 ret	 12			; 0000000cH
?GetAssocAt@?$CMap@HHPAVCStringList@@PAV1@@@IBEPAVCAssoc@1@HAAI0@Z ENDP ; CMap<int,int,CStringList *,CStringList *>::GetAssocAt
_TEXT	ENDS
; Function compile flags: /Ogtp
; File C:\Program Files (x86)\Microsoft Visual Studio\2019\Community\VC\Tools\MSVC\14.29.30133\atlmfc\include\afxtempl.h
;	COMDAT ?NewAssoc@?$CMap@HHPAVCStringList@@PAV1@@@IAEPAVCAssoc@1@H@Z
_TEXT	SEGMENT
_key$ = 8						; size = 4
?NewAssoc@?$CMap@HHPAVCStringList@@PAV1@@@IAEPAVCAssoc@1@H@Z PROC ; CMap<int,int,CStringList *,CStringList *>::NewAssoc, COMDAT
; _this$ = ecx

; 1480 : {

  00000	55		 push	 ebp
  00001	8b ec		 mov	 ebp, esp
  00003	56		 push	 esi
  00004	8b f1		 mov	 esi, ecx

; 1481 : 	if (m_pFreeList == NULL)

  00006	83 7e 10 00	 cmp	 DWORD PTR [esi+16], 0
  0000a	75 35		 jne	 SHORT $LN7@NewAssoc

; 1482 : 	{
; 1483 : 		// add another block
; 1484 : 		CPlex* newBlock = CPlex::Create(m_pBlocks, m_nBlockSize, sizeof(CMap::CAssoc));

  0000c	6a 10		 push	 16			; 00000010H
  0000e	ff 76 18	 push	 DWORD PTR [esi+24]
  00011	8d 46 14	 lea	 eax, DWORD PTR [esi+20]
  00014	50		 push	 eax
  00015	e8 00 00 00 00	 call	 ?Create@CPlex@@SGPAU1@AAPAU1@II@Z ; CPlex::Create

; 1485 : 		// chain them into free list
; 1486 : 		CMap::CAssoc* pAssoc = (CMap::CAssoc*) newBlock->data();
; 1487 : 		// free in reverse order to make it easier to debug
; 1488 : 		pAssoc += m_nBlockSize - 1;

  0001a	8b 56 18	 mov	 edx, DWORD PTR [esi+24]
  0001d	83 c0 08	 add	 eax, 8
  00020	8b ca		 mov	 ecx, edx
  00022	c1 e1 04	 shl	 ecx, 4
  00025	83 c1 f0	 add	 ecx, -16		; fffffff0H
  00028	03 c1		 add	 eax, ecx

; 1489 : 		for (INT_PTR i = m_nBlockSize-1; i >= 0; i--, pAssoc--)

  0002a	83 c2 ff	 add	 edx, -1
  0002d	78 12		 js	 SHORT $LN7@NewAssoc
  0002f	90		 npad	 1
$LL4@NewAssoc:

; 1490 : 		{
; 1491 : 			pAssoc->pNext = m_pFreeList;

  00030	8b 4e 10	 mov	 ecx, DWORD PTR [esi+16]
  00033	89 48 08	 mov	 DWORD PTR [eax+8], ecx

; 1492 : 			m_pFreeList = pAssoc;

  00036	89 46 10	 mov	 DWORD PTR [esi+16], eax
  00039	83 e8 10	 sub	 eax, 16			; 00000010H
  0003c	83 ea 01	 sub	 edx, 1
  0003f	79 ef		 jns	 SHORT $LL4@NewAssoc
$LN7@NewAssoc:

; 1493 : 		}
; 1494 : 	}
; 1495 : 	ENSURE(m_pFreeList != NULL);  // we must have something

  00041	8b 46 10	 mov	 eax, DWORD PTR [esi+16]
  00044	85 c0		 test	 eax, eax
  00046	74 22		 je	 SHORT $LN21@NewAssoc

; 1496 : 
; 1497 : 	CMap::CAssoc* pAssoc = m_pFreeList;
; 1498 : 
; 1499 : 	// zero the memory
; 1500 : 	CMap::CAssoc* pTemp = pAssoc->pNext;

  00048	8b 48 08	 mov	 ecx, DWORD PTR [eax+8]
  0004b	0f 57 c0	 xorps	 xmm0, xmm0

; 1501 : 	memset( pAssoc, 0, sizeof(CMap::CAssoc) );

  0004e	0f 11 00	 movups	 XMMWORD PTR [eax], xmm0

; 1502 : 	pAssoc->pNext = pTemp;

  00051	89 48 08	 mov	 DWORD PTR [eax+8], ecx

; 1503 : 
; 1504 : 	m_pFreeList = m_pFreeList->pNext;

  00054	8b 4e 10	 mov	 ecx, DWORD PTR [esi+16]
  00057	8b 49 08	 mov	 ecx, DWORD PTR [ecx+8]

; 1505 : 	m_nCount++;

  0005a	ff 46 0c	 inc	 DWORD PTR [esi+12]
  0005d	89 4e 10	 mov	 DWORD PTR [esi+16], ecx

; 1256 : 		CPair( ARG_KEY keyval ) : key( keyval )	{}

  00060	8b 4d 08	 mov	 ecx, DWORD PTR _key$[ebp]
  00063	89 08		 mov	 DWORD PTR [eax], ecx

; 1506 : 	ASSERT(m_nCount > 0);  // make sure we don't overflow
; 1507 : #pragma push_macro("new")
; 1508 : #undef new
; 1509 : 	::new(pAssoc) CMap::CAssoc(key);
; 1510 : #pragma pop_macro("new")
; 1511 : 	return pAssoc;

  00065	5e		 pop	 esi

; 1512 : }

  00066	5d		 pop	 ebp
  00067	c2 04 00	 ret	 4
$LN21@NewAssoc:

; 1493 : 		}
; 1494 : 	}
; 1495 : 	ENSURE(m_pFreeList != NULL);  // we must have something

  0006a	e8 00 00 00 00	 call	 ?AfxThrowInvalidArgException@@YGXXZ ; AfxThrowInvalidArgException
$LN19@NewAssoc:
  0006f	cc		 int	 3
?NewAssoc@?$CMap@HHPAVCStringList@@PAV1@@@IAEPAVCAssoc@1@H@Z ENDP ; CMap<int,int,CStringList *,CStringList *>::NewAssoc
_TEXT	ENDS
; Function compile flags: /Ogtp
; File C:\Program Files (x86)\Microsoft Visual Studio\2019\Community\VC\Tools\MSVC\14.29.30133\atlmfc\include\afxtempl.h
;	COMDAT ?InitHashTable@?$CMap@HHPAVCStringList@@PAV1@@@QAEXIH@Z
_TEXT	SEGMENT
_nHashSize$ = 8						; size = 4
_bAllocNow$ = 12					; size = 4
?InitHashTable@?$CMap@HHPAVCStringList@@PAV1@@@QAEXIH@Z PROC ; CMap<int,int,CStringList *,CStringList *>::InitHashTable, COMDAT
; _this$ = ecx

; 1420 : {

  00000	55		 push	 ebp
  00001	8b ec		 mov	 ebp, esp
  00003	56		 push	 esi
  00004	8b f1		 mov	 esi, ecx
  00006	57		 push	 edi

; 1421 : 	ASSERT_VALID(this);
; 1422 : 	ASSERT(m_nCount == 0);
; 1423 : 	ASSERT(nHashSize > 0);
; 1424 : 
; 1425 : 	if (m_pHashTable != NULL)

  00007	8b 46 04	 mov	 eax, DWORD PTR [esi+4]
  0000a	85 c0		 test	 eax, eax
  0000c	74 10		 je	 SHORT $LN5@InitHashTa

; 1426 : 	{
; 1427 : 		// free hash table
; 1428 : 		delete[] m_pHashTable;

  0000e	50		 push	 eax
  0000f	e8 00 00 00 00	 call	 ??_V@YAXPAX@Z		; operator delete[]
  00014	83 c4 04	 add	 esp, 4

; 1429 : 		m_pHashTable = NULL;

  00017	c7 46 04 00 00
	00 00		 mov	 DWORD PTR [esi+4], 0
$LN5@InitHashTa:

; 1430 : 	}
; 1431 : 
; 1432 : 	if (bAllocNow)

  0001e	83 7d 0c 00	 cmp	 DWORD PTR _bAllocNow$[ebp], 0
  00022	8b 7d 08	 mov	 edi, DWORD PTR _nHashSize$[ebp]
  00025	74 37		 je	 SHORT $LN6@InitHashTa

; 1433 : 	{
; 1434 : 		m_pHashTable = new CAssoc* [nHashSize];

  00027	33 c9		 xor	 ecx, ecx
  00029	8b c7		 mov	 eax, edi
  0002b	ba 04 00 00 00	 mov	 edx, 4
  00030	f7 e2		 mul	 edx
  00032	0f 90 c1	 seto	 cl
  00035	f7 d9		 neg	 ecx
  00037	0b c8		 or	 ecx, eax
  00039	51		 push	 ecx
  0003a	e8 00 00 00 00	 call	 ??_U@YAPAXI@Z		; operator new[]
  0003f	8b c8		 mov	 ecx, eax
  00041	83 c4 04	 add	 esp, 4
  00044	89 4e 04	 mov	 DWORD PTR [esi+4], ecx

; 1435 : 		ENSURE(m_pHashTable != NULL);

  00047	85 c9		 test	 ecx, ecx
  00049	74 1c		 je	 SHORT $LN11@InitHashTa

; 1436 : 		memset(m_pHashTable, 0, sizeof(CAssoc*) * nHashSize);

  0004b	8d 04 bd 00 00
	00 00		 lea	 eax, DWORD PTR [edi*4]
  00052	50		 push	 eax
  00053	6a 00		 push	 0
  00055	51		 push	 ecx
  00056	e8 00 00 00 00	 call	 _memset
  0005b	83 c4 0c	 add	 esp, 12			; 0000000cH
$LN6@InitHashTa:

; 1437 : 	}
; 1438 : 	m_nHashTableSize = nHashSize;

  0005e	89 7e 08	 mov	 DWORD PTR [esi+8], edi
  00061	5f		 pop	 edi
  00062	5e		 pop	 esi

; 1439 : }

  00063	5d		 pop	 ebp
  00064	c2 08 00	 ret	 8
$LN11@InitHashTa:

; 1435 : 		ENSURE(m_pHashTable != NULL);

  00067	e8 00 00 00 00	 call	 ?AfxThrowInvalidArgException@@YGXXZ ; AfxThrowInvalidArgException
$LN9@InitHashTa:
  0006c	cc		 int	 3
?InitHashTable@?$CMap@HHPAVCStringList@@PAV1@@@QAEXIH@Z ENDP ; CMap<int,int,CStringList *,CStringList *>::InitHashTable
_TEXT	ENDS
; Function compile flags: /Ogtp
; File C:\Program Files (x86)\Microsoft Visual Studio\2019\Community\VC\Tools\MSVC\14.29.30133\atlmfc\include\afxtempl.h
;	COMDAT ?GetNextAssoc@?$CMap@HHPAVCStringList@@PAV1@@@QBEXAAPAU__POSITION@@AAHAAPAVCStringList@@@Z
_TEXT	SEGMENT
_rNextPosition$ = 8					; size = 4
_rKey$ = 12						; size = 4
_rValue$ = 16						; size = 4
?GetNextAssoc@?$CMap@HHPAVCStringList@@PAV1@@@QBEXAAPAU__POSITION@@AAHAAPAVCStringList@@@Z PROC ; CMap<int,int,CStringList *,CStringList *>::GetNextAssoc, COMDAT
; _this$ = ecx

; 1640 : {

  00000	55		 push	 ebp
  00001	8b ec		 mov	 ebp, esp
  00003	53		 push	 ebx
  00004	56		 push	 esi
  00005	57		 push	 edi
  00006	8b f9		 mov	 edi, ecx

; 1641 : 	ASSERT_VALID(this);
; 1642 : 	ENSURE(m_pHashTable != NULL);  // never call on empty map

  00008	8b 5f 04	 mov	 ebx, DWORD PTR [edi+4]
  0000b	85 db		 test	 ebx, ebx
  0000d	74 6b		 je	 SHORT $LN37@GetNextAss

; 1643 : 
; 1644 : 	CAssoc* pAssocRet = (CAssoc*)rNextPosition;

  0000f	8b 75 08	 mov	 esi, DWORD PTR _rNextPosition$[ebp]
  00012	8b 36		 mov	 esi, DWORD PTR [esi]

; 1645 : 	ENSURE(pAssocRet != NULL);

  00014	85 f6		 test	 esi, esi
  00016	74 62		 je	 SHORT $LN37@GetNextAss

; 1646 : 
; 1647 : 	if (pAssocRet == (CAssoc*) BEFORE_START_POSITION)

  00018	83 fe ff	 cmp	 esi, -1
  0001b	75 1b		 jne	 SHORT $LN12@GetNextAss

; 1648 : 	{
; 1649 : 		// find the first association
; 1650 : 		for (UINT nBucket = 0; nBucket < m_nHashTableSize; nBucket++)

  0001d	8b 57 08	 mov	 edx, DWORD PTR [edi+8]
  00020	33 c9		 xor	 ecx, ecx
  00022	85 d2		 test	 edx, edx
  00024	74 12		 je	 SHORT $LN12@GetNextAss
  00026	8b c3		 mov	 eax, ebx
$LL10@GetNextAss:

; 1651 : 		{
; 1652 : 			if ((pAssocRet = m_pHashTable[nBucket]) != NULL)

  00028	8b 30		 mov	 esi, DWORD PTR [eax]
  0002a	85 f6		 test	 esi, esi
  0002c	75 0a		 jne	 SHORT $LN12@GetNextAss

; 1648 : 	{
; 1649 : 		// find the first association
; 1650 : 		for (UINT nBucket = 0; nBucket < m_nHashTableSize; nBucket++)

  0002e	41		 inc	 ecx
  0002f	83 c0 04	 add	 eax, 4
  00032	3b ca		 cmp	 ecx, edx
  00034	73 44		 jae	 SHORT $LN37@GetNextAss
  00036	eb f0		 jmp	 SHORT $LL10@GetNextAss
$LN12@GetNextAss:

; 1658 : 	}
; 1659 : 
; 1660 : 	// find next association
; 1661 : 	ASSERT(AfxIsValidAddress(pAssocRet, sizeof(CAssoc)));
; 1662 : 	CAssoc* pAssocNext;
; 1663 : 	if ((pAssocNext = pAssocRet->pNext) == NULL)

  00038	8b 4e 08	 mov	 ecx, DWORD PTR [esi+8]
  0003b	85 c9		 test	 ecx, ecx
  0003d	75 20		 jne	 SHORT $LN38@GetNextAss

; 1664 : 	{
; 1665 : 		// go to next bucket
; 1666 : 		for (UINT nBucket = (pAssocRet->nHashValue % m_nHashTableSize) + 1;

  0003f	8b 7f 08	 mov	 edi, DWORD PTR [edi+8]
  00042	33 d2		 xor	 edx, edx
  00044	8b 46 0c	 mov	 eax, DWORD PTR [esi+12]
  00047	f7 f7		 div	 edi
  00049	42		 inc	 edx

; 1667 : 		  nBucket < m_nHashTableSize; nBucket++)

  0004a	3b d7		 cmp	 edx, edi
  0004c	73 11		 jae	 SHORT $LN38@GetNextAss

; 1668 : 			if ((pAssocNext = m_pHashTable[nBucket]) != NULL)

  0004e	8d 04 93	 lea	 eax, DWORD PTR [ebx+edx*4]
$LL16@GetNextAss:
  00051	8b 08		 mov	 ecx, DWORD PTR [eax]
  00053	85 c9		 test	 ecx, ecx
  00055	75 08		 jne	 SHORT $LN38@GetNextAss

; 1667 : 		  nBucket < m_nHashTableSize; nBucket++)

  00057	42		 inc	 edx
  00058	83 c0 04	 add	 eax, 4
  0005b	3b d7		 cmp	 edx, edi
  0005d	72 f2		 jb	 SHORT $LL16@GetNextAss
$LN38@GetNextAss:

; 1669 : 				break;
; 1670 : 	}
; 1671 : 
; 1672 : 	rNextPosition = (POSITION) pAssocNext;

  0005f	8b 45 08	 mov	 eax, DWORD PTR _rNextPosition$[ebp]

; 1673 : 
; 1674 : 	// fill in return data
; 1675 : 	rKey = pAssocRet->key;
; 1676 : 	rValue = pAssocRet->value;
; 1677 : }

  00062	5f		 pop	 edi
  00063	89 08		 mov	 DWORD PTR [eax], ecx
  00065	8b 45 0c	 mov	 eax, DWORD PTR _rKey$[ebp]
  00068	8b 0e		 mov	 ecx, DWORD PTR [esi]
  0006a	89 08		 mov	 DWORD PTR [eax], ecx
  0006c	8b 45 10	 mov	 eax, DWORD PTR _rValue$[ebp]
  0006f	8b 4e 04	 mov	 ecx, DWORD PTR [esi+4]
  00072	5e		 pop	 esi
  00073	5b		 pop	 ebx
  00074	89 08		 mov	 DWORD PTR [eax], ecx
  00076	5d		 pop	 ebp
  00077	c2 0c 00	 ret	 12			; 0000000cH
$LN37@GetNextAss:

; 1653 : 			{
; 1654 : 				break;
; 1655 : 			}
; 1656 : 		}
; 1657 : 		ENSURE(pAssocRet != NULL);  // must find something

  0007a	e8 00 00 00 00	 call	 ?AfxThrowInvalidArgException@@YGXXZ ; AfxThrowInvalidArgException
$LN39@GetNextAss:
  0007f	cc		 int	 3
?GetNextAssoc@?$CMap@HHPAVCStringList@@PAV1@@@QBEXAAPAU__POSITION@@AAHAAPAVCStringList@@@Z ENDP ; CMap<int,int,CStringList *,CStringList *>::GetNextAssoc
_TEXT	ENDS
; Function compile flags: /Ogtp
; File C:\Program Files (x86)\Microsoft Visual Studio\2019\Community\VC\Tools\MSVC\14.29.30133\atlmfc\include\afxtempl.h
;	COMDAT ?RemoveAll@?$CMap@HHPAVCStringList@@PAV1@@@QAEXXZ
_TEXT	SEGMENT
?RemoveAll@?$CMap@HHPAVCStringList@@PAV1@@@QAEXXZ PROC	; CMap<int,int,CStringList *,CStringList *>::RemoveAll, COMDAT
; _this$ = ecx

; 1443 : {

  00000	56		 push	 esi
  00001	8b f1		 mov	 esi, ecx

; 1444 : 	ASSERT_VALID(this);
; 1445 : 
; 1446 : 	if (m_pHashTable != NULL)

  00003	8b 46 04	 mov	 eax, DWORD PTR [esi+4]
  00006	85 c0		 test	 eax, eax
  00008	74 10		 je	 SHORT $LN8@RemoveAll

; 1447 : 	{
; 1448 : 		// destroy elements (values and keys)
; 1449 : 		for (UINT nHash = 0; nHash < m_nHashTableSize; nHash++)
; 1450 : 		{
; 1451 : 			CAssoc* pAssoc;
; 1452 : 			for (pAssoc = m_pHashTable[nHash]; pAssoc != NULL;
; 1453 : 			  pAssoc = pAssoc->pNext)
; 1454 : 			{
; 1455 : 				pAssoc->CAssoc::~CAssoc();
; 1456 : 			}
; 1457 : 		}
; 1458 : 
; 1459 : 		// free hash table
; 1460 : 		delete[] m_pHashTable;

  0000a	50		 push	 eax
  0000b	e8 00 00 00 00	 call	 ??_V@YAXPAX@Z		; operator delete[]
  00010	83 c4 04	 add	 esp, 4

; 1461 : 		m_pHashTable = NULL;

  00013	c7 46 04 00 00
	00 00		 mov	 DWORD PTR [esi+4], 0
$LN8@RemoveAll:

; 1462 : 	}
; 1463 : 
; 1464 : 	m_nCount = 0;
; 1465 : 	m_pFreeList = NULL;
; 1466 : 	m_pBlocks->FreeDataChain();

  0001a	8b 4e 14	 mov	 ecx, DWORD PTR [esi+20]
  0001d	c7 46 0c 00 00
	00 00		 mov	 DWORD PTR [esi+12], 0
  00024	c7 46 10 00 00
	00 00		 mov	 DWORD PTR [esi+16], 0
  0002b	e8 00 00 00 00	 call	 ?FreeDataChain@CPlex@@QAEXXZ ; CPlex::FreeDataChain

; 1467 : 	m_pBlocks = NULL;

  00030	c7 46 14 00 00
	00 00		 mov	 DWORD PTR [esi+20], 0
  00037	5e		 pop	 esi

; 1468 : }

  00038	c3		 ret	 0
?RemoveAll@?$CMap@HHPAVCStringList@@PAV1@@@QAEXXZ ENDP	; CMap<int,int,CStringList *,CStringList *>::RemoveAll
_TEXT	ENDS
; Function compile flags: /Ogtp
; File C:\Program Files (x86)\Microsoft Visual Studio\2019\Community\VC\Tools\MSVC\14.29.30133\atlmfc\include\afxtempl.h
;	COMDAT ?SetAt@?$CMap@HHPAVCStringList@@PAV1@@@QAEXHPAVCStringList@@@Z
_TEXT	SEGMENT
_nHashBucket$1 = -8					; size = 4
_nHashValue$2 = -4					; size = 4
_key$ = 8						; size = 4
_newValue$ = 12						; size = 4
?SetAt@?$CMap@HHPAVCStringList@@PAV1@@@QAEXHPAVCStringList@@@Z PROC ; CMap<int,int,CStringList *,CStringList *>::SetAt, COMDAT
; _this$ = ecx

; 1350 : 	{ (*this)[key] = newValue; }

  00000	55		 push	 ebp
  00001	8b ec		 mov	 ebp, esp
  00003	83 ec 08	 sub	 esp, 8

; 1590 : 	if ((pAssoc = GetAssocAt(key, nHashBucket, nHashValue)) == NULL)

  00006	8d 45 fc	 lea	 eax, DWORD PTR _nHashValue$2[ebp]

; 1350 : 	{ (*this)[key] = newValue; }

  00009	53		 push	 ebx

; 1590 : 	if ((pAssoc = GetAssocAt(key, nHashBucket, nHashValue)) == NULL)

  0000a	8b 5d 08	 mov	 ebx, DWORD PTR _key$[ebp]

; 1350 : 	{ (*this)[key] = newValue; }

  0000d	56		 push	 esi

; 1590 : 	if ((pAssoc = GetAssocAt(key, nHashBucket, nHashValue)) == NULL)

  0000e	50		 push	 eax
  0000f	8d 45 f8	 lea	 eax, DWORD PTR _nHashBucket$1[ebp]

; 1350 : 	{ (*this)[key] = newValue; }

  00012	8b f1		 mov	 esi, ecx

; 1590 : 	if ((pAssoc = GetAssocAt(key, nHashBucket, nHashValue)) == NULL)

  00014	50		 push	 eax
  00015	53		 push	 ebx
  00016	e8 00 00 00 00	 call	 ?GetAssocAt@?$CMap@HHPAVCStringList@@PAV1@@@IBEPAVCAssoc@1@HAAI0@Z ; CMap<int,int,CStringList *,CStringList *>::GetAssocAt
  0001b	8b d0		 mov	 edx, eax
  0001d	85 d2		 test	 edx, edx
  0001f	0f 85 cd 00 00
	00		 jne	 $LN7@SetAt

; 1591 : 	{
; 1592 : 		if (m_pHashTable == NULL)

  00025	8b 46 04	 mov	 eax, DWORD PTR [esi+4]
  00028	85 c0		 test	 eax, eax
  0002a	75 4c		 jne	 SHORT $LN42@SetAt

; 1593 : 			InitHashTable(m_nHashTableSize);

  0002c	57		 push	 edi
  0002d	8b 7e 08	 mov	 edi, DWORD PTR [esi+8]

; 1434 : 		m_pHashTable = new CAssoc* [nHashSize];

  00030	33 c9		 xor	 ecx, ecx
  00032	8b c7		 mov	 eax, edi
  00034	ba 04 00 00 00	 mov	 edx, 4
  00039	f7 e2		 mul	 edx
  0003b	0f 90 c1	 seto	 cl
  0003e	f7 d9		 neg	 ecx
  00040	0b c8		 or	 ecx, eax
  00042	51		 push	 ecx
  00043	e8 00 00 00 00	 call	 ??_U@YAPAXI@Z		; operator new[]
  00048	83 c4 04	 add	 esp, 4
  0004b	89 46 04	 mov	 DWORD PTR [esi+4], eax

; 1435 : 		ENSURE(m_pHashTable != NULL);

  0004e	85 c0		 test	 eax, eax
  00050	0f 84 aa 00 00
	00		 je	 $LN39@SetAt

; 1436 : 		memset(m_pHashTable, 0, sizeof(CAssoc*) * nHashSize);

  00056	8d 0c bd 00 00
	00 00		 lea	 ecx, DWORD PTR [edi*4]
  0005d	51		 push	 ecx
  0005e	6a 00		 push	 0
  00060	50		 push	 eax
  00061	e8 00 00 00 00	 call	 _memset

; 1437 : 	}
; 1438 : 	m_nHashTableSize = nHashSize;

  00066	8b 46 04	 mov	 eax, DWORD PTR [esi+4]
  00069	83 c4 0c	 add	 esp, 12			; 0000000cH
  0006c	89 7e 08	 mov	 DWORD PTR [esi+8], edi
  0006f	5f		 pop	 edi

; 1595 : 		ENSURE(m_pHashTable);

  00070	85 c0		 test	 eax, eax
  00072	0f 84 88 00 00
	00		 je	 $LN39@SetAt
$LN42@SetAt:

; 1481 : 	if (m_pFreeList == NULL)

  00078	83 7e 10 00	 cmp	 DWORD PTR [esi+16], 0
  0007c	75 34		 jne	 SHORT $LN26@SetAt

; 1482 : 	{
; 1483 : 		// add another block
; 1484 : 		CPlex* newBlock = CPlex::Create(m_pBlocks, m_nBlockSize, sizeof(CMap::CAssoc));

  0007e	6a 10		 push	 16			; 00000010H
  00080	ff 76 18	 push	 DWORD PTR [esi+24]
  00083	8d 46 14	 lea	 eax, DWORD PTR [esi+20]
  00086	50		 push	 eax
  00087	e8 00 00 00 00	 call	 ?Create@CPlex@@SGPAU1@AAPAU1@II@Z ; CPlex::Create

; 1485 : 		// chain them into free list
; 1486 : 		CMap::CAssoc* pAssoc = (CMap::CAssoc*) newBlock->data();
; 1487 : 		// free in reverse order to make it easier to debug
; 1488 : 		pAssoc += m_nBlockSize - 1;

  0008c	8b 56 18	 mov	 edx, DWORD PTR [esi+24]
  0008f	83 c0 08	 add	 eax, 8
  00092	8b ca		 mov	 ecx, edx
  00094	c1 e1 04	 shl	 ecx, 4
  00097	83 c1 f0	 add	 ecx, -16		; fffffff0H
  0009a	03 c8		 add	 ecx, eax

; 1489 : 		for (INT_PTR i = m_nBlockSize-1; i >= 0; i--, pAssoc--)

  0009c	83 c2 ff	 add	 edx, -1
  0009f	78 11		 js	 SHORT $LN26@SetAt
$LL23@SetAt:

; 1490 : 		{
; 1491 : 			pAssoc->pNext = m_pFreeList;

  000a1	8b 46 10	 mov	 eax, DWORD PTR [esi+16]
  000a4	89 41 08	 mov	 DWORD PTR [ecx+8], eax

; 1492 : 			m_pFreeList = pAssoc;

  000a7	89 4e 10	 mov	 DWORD PTR [esi+16], ecx
  000aa	83 e9 10	 sub	 ecx, 16			; 00000010H
  000ad	83 ea 01	 sub	 edx, 1
  000b0	79 ef		 jns	 SHORT $LL23@SetAt
$LN26@SetAt:

; 1493 : 		}
; 1494 : 	}
; 1495 : 	ENSURE(m_pFreeList != NULL);  // we must have something

  000b2	8b 56 10	 mov	 edx, DWORD PTR [esi+16]
  000b5	85 d2		 test	 edx, edx
  000b7	74 47		 je	 SHORT $LN39@SetAt

; 1496 : 
; 1497 : 	CMap::CAssoc* pAssoc = m_pFreeList;
; 1498 : 
; 1499 : 	// zero the memory
; 1500 : 	CMap::CAssoc* pTemp = pAssoc->pNext;

  000b9	8b 42 08	 mov	 eax, DWORD PTR [edx+8]
  000bc	0f 57 c0	 xorps	 xmm0, xmm0

; 1501 : 	memset( pAssoc, 0, sizeof(CMap::CAssoc) );

  000bf	0f 11 02	 movups	 XMMWORD PTR [edx], xmm0

; 1502 : 	pAssoc->pNext = pTemp;

  000c2	89 42 08	 mov	 DWORD PTR [edx+8], eax

; 1503 : 
; 1504 : 	m_pFreeList = m_pFreeList->pNext;

  000c5	8b 46 10	 mov	 eax, DWORD PTR [esi+16]
  000c8	8b 40 08	 mov	 eax, DWORD PTR [eax+8]

; 1505 : 	m_nCount++;

  000cb	ff 46 0c	 inc	 DWORD PTR [esi+12]
  000ce	89 46 10	 mov	 DWORD PTR [esi+16], eax

; 1598 : 		pAssoc->nHashValue = nHashValue;

  000d1	8b 45 fc	 mov	 eax, DWORD PTR _nHashValue$2[ebp]
  000d4	89 42 0c	 mov	 DWORD PTR [edx+12], eax

; 1599 : 		//'pAssoc->value' is a constructed object, nothing more
; 1600 : 
; 1601 : 		// put into hash table
; 1602 : 		pAssoc->pNext = m_pHashTable[nHashBucket];

  000d7	8b 45 f8	 mov	 eax, DWORD PTR _nHashBucket$1[ebp]

; 1256 : 		CPair( ARG_KEY keyval ) : key( keyval )	{}

  000da	89 1a		 mov	 DWORD PTR [edx], ebx

; 1602 : 		pAssoc->pNext = m_pHashTable[nHashBucket];

  000dc	8d 0c 85 00 00
	00 00		 lea	 ecx, DWORD PTR [eax*4]
  000e3	8b 46 04	 mov	 eax, DWORD PTR [esi+4]
  000e6	8b 04 01	 mov	 eax, DWORD PTR [ecx+eax]
  000e9	89 42 08	 mov	 DWORD PTR [edx+8], eax

; 1603 : 		m_pHashTable[nHashBucket] = pAssoc;

  000ec	8b 46 04	 mov	 eax, DWORD PTR [esi+4]
  000ef	89 14 01	 mov	 DWORD PTR [ecx+eax], edx
$LN7@SetAt:

; 1350 : 	{ (*this)[key] = newValue; }

  000f2	8b 45 0c	 mov	 eax, DWORD PTR _newValue$[ebp]
  000f5	5e		 pop	 esi
  000f6	89 42 04	 mov	 DWORD PTR [edx+4], eax
  000f9	5b		 pop	 ebx
  000fa	8b e5		 mov	 esp, ebp
  000fc	5d		 pop	 ebp
  000fd	c2 08 00	 ret	 8
$LN39@SetAt:

; 1495 : 	ENSURE(m_pFreeList != NULL);  // we must have something

  00100	e8 00 00 00 00	 call	 ?AfxThrowInvalidArgException@@YGXXZ ; AfxThrowInvalidArgException
$LN40@SetAt:
  00105	cc		 int	 3
?SetAt@?$CMap@HHPAVCStringList@@PAV1@@@QAEXHPAVCStringList@@@Z ENDP ; CMap<int,int,CStringList *,CStringList *>::SetAt
_TEXT	ENDS
; Function compile flags: /Ogtp
; File C:\Program Files (x86)\Microsoft Visual Studio\2019\Community\VC\Tools\MSVC\14.29.30133\atlmfc\include\afxtempl.h
;	COMDAT ??A?$CMap@HHPAVCStringList@@PAV1@@@QAEAAPAVCStringList@@H@Z
_TEXT	SEGMENT
_nHashBucket$ = -8					; size = 4
_nHashValue$ = -4					; size = 4
_key$ = 8						; size = 4
??A?$CMap@HHPAVCStringList@@PAV1@@@QAEAAPAVCStringList@@H@Z PROC ; CMap<int,int,CStringList *,CStringList *>::operator[], COMDAT
; _this$ = ecx

; 1585 : {

  00000	55		 push	 ebp
  00001	8b ec		 mov	 ebp, esp
  00003	83 ec 08	 sub	 esp, 8

; 1586 : 	ASSERT_VALID(this);
; 1587 : 
; 1588 : 	UINT nHashBucket, nHashValue;
; 1589 : 	CAssoc* pAssoc;
; 1590 : 	if ((pAssoc = GetAssocAt(key, nHashBucket, nHashValue)) == NULL)

  00006	8d 45 fc	 lea	 eax, DWORD PTR _nHashValue$[ebp]
  00009	53		 push	 ebx
  0000a	8b 5d 08	 mov	 ebx, DWORD PTR _key$[ebp]
  0000d	56		 push	 esi
  0000e	50		 push	 eax
  0000f	8d 45 f8	 lea	 eax, DWORD PTR _nHashBucket$[ebp]
  00012	8b f1		 mov	 esi, ecx
  00014	50		 push	 eax
  00015	53		 push	 ebx
  00016	e8 00 00 00 00	 call	 ?GetAssocAt@?$CMap@HHPAVCStringList@@PAV1@@@IBEPAVCAssoc@1@HAAI0@Z ; CMap<int,int,CStringList *,CStringList *>::GetAssocAt
  0001b	8b d0		 mov	 edx, eax
  0001d	85 d2		 test	 edx, edx
  0001f	0f 85 cd 00 00
	00		 jne	 $LN5@operator

; 1591 : 	{
; 1592 : 		if (m_pHashTable == NULL)

  00025	8b 46 04	 mov	 eax, DWORD PTR [esi+4]
  00028	85 c0		 test	 eax, eax
  0002a	75 4c		 jne	 SHORT $LN39@operator

; 1593 : 			InitHashTable(m_nHashTableSize);

  0002c	57		 push	 edi
  0002d	8b 7e 08	 mov	 edi, DWORD PTR [esi+8]

; 1434 : 		m_pHashTable = new CAssoc* [nHashSize];

  00030	33 c9		 xor	 ecx, ecx
  00032	8b c7		 mov	 eax, edi
  00034	ba 04 00 00 00	 mov	 edx, 4
  00039	f7 e2		 mul	 edx
  0003b	0f 90 c1	 seto	 cl
  0003e	f7 d9		 neg	 ecx
  00040	0b c8		 or	 ecx, eax
  00042	51		 push	 ecx
  00043	e8 00 00 00 00	 call	 ??_U@YAPAXI@Z		; operator new[]
  00048	83 c4 04	 add	 esp, 4
  0004b	89 46 04	 mov	 DWORD PTR [esi+4], eax

; 1435 : 		ENSURE(m_pHashTable != NULL);

  0004e	85 c0		 test	 eax, eax
  00050	0f 84 a7 00 00
	00		 je	 $LN36@operator

; 1436 : 		memset(m_pHashTable, 0, sizeof(CAssoc*) * nHashSize);

  00056	8d 0c bd 00 00
	00 00		 lea	 ecx, DWORD PTR [edi*4]
  0005d	51		 push	 ecx
  0005e	6a 00		 push	 0
  00060	50		 push	 eax
  00061	e8 00 00 00 00	 call	 _memset

; 1437 : 	}
; 1438 : 	m_nHashTableSize = nHashSize;

  00066	8b 46 04	 mov	 eax, DWORD PTR [esi+4]
  00069	83 c4 0c	 add	 esp, 12			; 0000000cH
  0006c	89 7e 08	 mov	 DWORD PTR [esi+8], edi
  0006f	5f		 pop	 edi

; 1594 : 
; 1595 : 		ENSURE(m_pHashTable);

  00070	85 c0		 test	 eax, eax
  00072	0f 84 85 00 00
	00		 je	 $LN36@operator
$LN39@operator:

; 1481 : 	if (m_pFreeList == NULL)

  00078	83 7e 10 00	 cmp	 DWORD PTR [esi+16], 0
  0007c	75 34		 jne	 SHORT $LN24@operator

; 1482 : 	{
; 1483 : 		// add another block
; 1484 : 		CPlex* newBlock = CPlex::Create(m_pBlocks, m_nBlockSize, sizeof(CMap::CAssoc));

  0007e	6a 10		 push	 16			; 00000010H
  00080	ff 76 18	 push	 DWORD PTR [esi+24]
  00083	8d 46 14	 lea	 eax, DWORD PTR [esi+20]
  00086	50		 push	 eax
  00087	e8 00 00 00 00	 call	 ?Create@CPlex@@SGPAU1@AAPAU1@II@Z ; CPlex::Create

; 1485 : 		// chain them into free list
; 1486 : 		CMap::CAssoc* pAssoc = (CMap::CAssoc*) newBlock->data();
; 1487 : 		// free in reverse order to make it easier to debug
; 1488 : 		pAssoc += m_nBlockSize - 1;

  0008c	8b 56 18	 mov	 edx, DWORD PTR [esi+24]
  0008f	83 c0 08	 add	 eax, 8
  00092	8b ca		 mov	 ecx, edx
  00094	c1 e1 04	 shl	 ecx, 4
  00097	83 c1 f0	 add	 ecx, -16		; fffffff0H
  0009a	03 c8		 add	 ecx, eax

; 1489 : 		for (INT_PTR i = m_nBlockSize-1; i >= 0; i--, pAssoc--)

  0009c	83 c2 ff	 add	 edx, -1
  0009f	78 11		 js	 SHORT $LN24@operator
$LL21@operator:

; 1490 : 		{
; 1491 : 			pAssoc->pNext = m_pFreeList;

  000a1	8b 46 10	 mov	 eax, DWORD PTR [esi+16]
  000a4	89 41 08	 mov	 DWORD PTR [ecx+8], eax

; 1492 : 			m_pFreeList = pAssoc;

  000a7	89 4e 10	 mov	 DWORD PTR [esi+16], ecx
  000aa	83 e9 10	 sub	 ecx, 16			; 00000010H
  000ad	83 ea 01	 sub	 edx, 1
  000b0	79 ef		 jns	 SHORT $LL21@operator
$LN24@operator:

; 1493 : 		}
; 1494 : 	}
; 1495 : 	ENSURE(m_pFreeList != NULL);  // we must have something

  000b2	8b 56 10	 mov	 edx, DWORD PTR [esi+16]
  000b5	85 d2		 test	 edx, edx
  000b7	74 44		 je	 SHORT $LN36@operator

; 1496 : 
; 1497 : 	CMap::CAssoc* pAssoc = m_pFreeList;
; 1498 : 
; 1499 : 	// zero the memory
; 1500 : 	CMap::CAssoc* pTemp = pAssoc->pNext;

  000b9	8b 42 08	 mov	 eax, DWORD PTR [edx+8]
  000bc	0f 57 c0	 xorps	 xmm0, xmm0

; 1501 : 	memset( pAssoc, 0, sizeof(CMap::CAssoc) );

  000bf	0f 11 02	 movups	 XMMWORD PTR [edx], xmm0

; 1502 : 	pAssoc->pNext = pTemp;

  000c2	89 42 08	 mov	 DWORD PTR [edx+8], eax

; 1503 : 
; 1504 : 	m_pFreeList = m_pFreeList->pNext;

  000c5	8b 46 10	 mov	 eax, DWORD PTR [esi+16]
  000c8	8b 40 08	 mov	 eax, DWORD PTR [eax+8]

; 1505 : 	m_nCount++;

  000cb	ff 46 0c	 inc	 DWORD PTR [esi+12]
  000ce	89 46 10	 mov	 DWORD PTR [esi+16], eax

; 1596 : 		// it doesn't exist, add a new Association
; 1597 : 		pAssoc = NewAssoc(key);
; 1598 : 		pAssoc->nHashValue = nHashValue;

  000d1	8b 45 fc	 mov	 eax, DWORD PTR _nHashValue$[ebp]
  000d4	89 42 0c	 mov	 DWORD PTR [edx+12], eax

; 1599 : 		//'pAssoc->value' is a constructed object, nothing more
; 1600 : 
; 1601 : 		// put into hash table
; 1602 : 		pAssoc->pNext = m_pHashTable[nHashBucket];

  000d7	8b 45 f8	 mov	 eax, DWORD PTR _nHashBucket$[ebp]

; 1256 : 		CPair( ARG_KEY keyval ) : key( keyval )	{}

  000da	89 1a		 mov	 DWORD PTR [edx], ebx

; 1599 : 		//'pAssoc->value' is a constructed object, nothing more
; 1600 : 
; 1601 : 		// put into hash table
; 1602 : 		pAssoc->pNext = m_pHashTable[nHashBucket];

  000dc	8d 0c 85 00 00
	00 00		 lea	 ecx, DWORD PTR [eax*4]
  000e3	8b 46 04	 mov	 eax, DWORD PTR [esi+4]
  000e6	8b 04 01	 mov	 eax, DWORD PTR [ecx+eax]
  000e9	89 42 08	 mov	 DWORD PTR [edx+8], eax

; 1603 : 		m_pHashTable[nHashBucket] = pAssoc;

  000ec	8b 46 04	 mov	 eax, DWORD PTR [esi+4]
  000ef	89 14 01	 mov	 DWORD PTR [ecx+eax], edx
$LN5@operator:

; 1604 : 	}
; 1605 : 	return pAssoc->value;  // return new reference

  000f2	5e		 pop	 esi
  000f3	8d 42 04	 lea	 eax, DWORD PTR [edx+4]
  000f6	5b		 pop	 ebx

; 1606 : }

  000f7	8b e5		 mov	 esp, ebp
  000f9	5d		 pop	 ebp
  000fa	c2 04 00	 ret	 4
$LN36@operator:

; 1495 : 	ENSURE(m_pFreeList != NULL);  // we must have something

  000fd	e8 00 00 00 00	 call	 ?AfxThrowInvalidArgException@@YGXXZ ; AfxThrowInvalidArgException
$LN37@operator:
  00102	cc		 int	 3
??A?$CMap@HHPAVCStringList@@PAV1@@@QAEAAPAVCStringList@@H@Z ENDP ; CMap<int,int,CStringList *,CStringList *>::operator[]
_TEXT	ENDS
; Function compile flags: /Ogtp
; File C:\Program Files (x86)\Microsoft Visual Studio\2019\Community\VC\Tools\MSVC\14.29.30133\atlmfc\include\afxtempl.h
;	COMDAT ?Lookup@?$CMap@HHPAVCStringList@@PAV1@@@QBEHHAAPAVCStringList@@@Z
_TEXT	SEGMENT
_nHashBucket$ = -8					; size = 4
_nHashValue$ = -4					; size = 4
_key$ = 8						; size = 4
_rValue$ = 12						; size = 4
?Lookup@?$CMap@HHPAVCStringList@@PAV1@@@QBEHHAAPAVCStringList@@@Z PROC ; CMap<int,int,CStringList *,CStringList *>::Lookup, COMDAT
; _this$ = ecx

; 1551 : {

  00000	55		 push	 ebp
  00001	8b ec		 mov	 ebp, esp
  00003	83 ec 08	 sub	 esp, 8

; 1552 : 	ASSERT_VALID(this);
; 1553 : 
; 1554 : 	UINT nHashBucket, nHashValue;
; 1555 : 	CAssoc* pAssoc = GetAssocAt(key, nHashBucket, nHashValue);

  00006	8d 45 fc	 lea	 eax, DWORD PTR _nHashValue$[ebp]
  00009	50		 push	 eax
  0000a	8d 45 f8	 lea	 eax, DWORD PTR _nHashBucket$[ebp]
  0000d	50		 push	 eax
  0000e	ff 75 08	 push	 DWORD PTR _key$[ebp]
  00011	e8 00 00 00 00	 call	 ?GetAssocAt@?$CMap@HHPAVCStringList@@PAV1@@@IBEPAVCAssoc@1@HAAI0@Z ; CMap<int,int,CStringList *,CStringList *>::GetAssocAt

; 1556 : 	if (pAssoc == NULL)

  00016	85 c0		 test	 eax, eax
  00018	75 06		 jne	 SHORT $LN2@Lookup

; 1561 : }

  0001a	8b e5		 mov	 esp, ebp
  0001c	5d		 pop	 ebp
  0001d	c2 08 00	 ret	 8
$LN2@Lookup:

; 1557 : 		return FALSE;  // not in map
; 1558 : 
; 1559 : 	rValue = pAssoc->value;

  00020	8b 48 04	 mov	 ecx, DWORD PTR [eax+4]
  00023	8b 45 0c	 mov	 eax, DWORD PTR _rValue$[ebp]
  00026	89 08		 mov	 DWORD PTR [eax], ecx

; 1560 : 	return TRUE;

  00028	b8 01 00 00 00	 mov	 eax, 1

; 1561 : }

  0002d	8b e5		 mov	 esp, ebp
  0002f	5d		 pop	 ebp
  00030	c2 08 00	 ret	 8
?Lookup@?$CMap@HHPAVCStringList@@PAV1@@@QBEHHAAPAVCStringList@@@Z ENDP ; CMap<int,int,CStringList *,CStringList *>::Lookup
_TEXT	ENDS
; Function compile flags: /Ogtp
; File C:\Program Files (x86)\Microsoft Visual Studio\2019\Community\VC\Tools\MSVC\14.29.30133\atlmfc\include\afxtempl.h
;	COMDAT ??0?$CMap@HHPAVCStringList@@PAV1@@@QAE@H@Z
_TEXT	SEGMENT
_nBlockSize$ = 8					; size = 4
??0?$CMap@HHPAVCStringList@@PAV1@@@QAE@H@Z PROC		; CMap<int,int,CStringList *,CStringList *>::CMap<int,int,CStringList *,CStringList *>, COMDAT
; _this$ = ecx

; 1403 : {

  00000	55		 push	 ebp
  00001	8b ec		 mov	 ebp, esp

; 1404 : 	ASSERT(nBlockSize > 0);
; 1405 : 
; 1406 : 	m_pHashTable = NULL;
; 1407 : 	m_nHashTableSize = 17;  // default size
; 1408 : 	m_nCount = 0;
; 1409 : 	m_pFreeList = NULL;
; 1410 : 	m_pBlocks = NULL;
; 1411 : 	m_nBlockSize = nBlockSize;

  00003	8b 45 08	 mov	 eax, DWORD PTR _nBlockSize$[ebp]
  00006	89 41 18	 mov	 DWORD PTR [ecx+24], eax

; 1412 : }

  00009	8b c1		 mov	 eax, ecx
  0000b	c7 01 00 00 00
	00		 mov	 DWORD PTR [ecx], OFFSET ??_7?$CMap@HHPAVCStringList@@PAV1@@@6B@
  00011	c7 41 04 00 00
	00 00		 mov	 DWORD PTR [ecx+4], 0
  00018	c7 41 08 11 00
	00 00		 mov	 DWORD PTR [ecx+8], 17	; 00000011H
  0001f	c7 41 0c 00 00
	00 00		 mov	 DWORD PTR [ecx+12], 0
  00026	c7 41 10 00 00
	00 00		 mov	 DWORD PTR [ecx+16], 0
  0002d	c7 41 14 00 00
	00 00		 mov	 DWORD PTR [ecx+20], 0
  00034	5d		 pop	 ebp
  00035	c2 04 00	 ret	 4
??0?$CMap@HHPAVCStringList@@PAV1@@@QAE@H@Z ENDP		; CMap<int,int,CStringList *,CStringList *>::CMap<int,int,CStringList *,CStringList *>
_TEXT	ENDS
; Function compile flags: /Ogtp
; File C:\Program Files (x86)\Microsoft Visual Studio\2019\Community\VC\Tools\MSVC\14.29.30133\atlmfc\include\afxtempl.h
; File C:\Program Files (x86)\Microsoft Visual Studio\2019\Community\VC\Tools\MSVC\14.29.30133\atlmfc\include\afx.inl
;	COMDAT ??_G?$CMap@HHKAAK@@UAEPAXI@Z
_TEXT	SEGMENT
__$EHRec$ = -12						; size = 12
___flags$ = 8						; size = 4
??_G?$CMap@HHKAAK@@UAEPAXI@Z PROC			; CMap<int,int,unsigned long,unsigned long &>::`scalar deleting destructor', COMDAT
; _this$ = ecx
  00000	55		 push	 ebp
  00001	8b ec		 mov	 ebp, esp
  00003	6a ff		 push	 -1
  00005	68 00 00 00 00	 push	 __ehhandler$??_G?$CMap@HHKAAK@@UAEPAXI@Z
  0000a	64 a1 00 00 00
	00		 mov	 eax, DWORD PTR fs:0
  00010	50		 push	 eax
  00011	56		 push	 esi
  00012	a1 00 00 00 00	 mov	 eax, DWORD PTR ___security_cookie
  00017	33 c5		 xor	 eax, ebp
  00019	50		 push	 eax
  0001a	8d 45 f4	 lea	 eax, DWORD PTR __$EHRec$[ebp]
  0001d	64 a3 00 00 00
	00		 mov	 DWORD PTR fs:0, eax
  00023	8b f1		 mov	 esi, ecx
; File C:\Program Files (x86)\Microsoft Visual Studio\2019\Community\VC\Tools\MSVC\14.29.30133\atlmfc\include\afxtempl.h

; 1446 : 	if (m_pHashTable != NULL)

  00025	8b 46 04	 mov	 eax, DWORD PTR [esi+4]

; 1472 : {

  00028	c7 45 fc 00 00
	00 00		 mov	 DWORD PTR __$EHRec$[ebp+8], 0
  0002f	c7 06 00 00 00
	00		 mov	 DWORD PTR [esi], OFFSET ??_7?$CMap@HHKAAK@@6B@

; 1446 : 	if (m_pHashTable != NULL)

  00035	85 c0		 test	 eax, eax
  00037	74 10		 je	 SHORT $LN17@scalar

; 1447 : 	{
; 1448 : 		// destroy elements (values and keys)
; 1449 : 		for (UINT nHash = 0; nHash < m_nHashTableSize; nHash++)
; 1450 : 		{
; 1451 : 			CAssoc* pAssoc;
; 1452 : 			for (pAssoc = m_pHashTable[nHash]; pAssoc != NULL;
; 1453 : 			  pAssoc = pAssoc->pNext)
; 1454 : 			{
; 1455 : 				pAssoc->CAssoc::~CAssoc();
; 1456 : 			}
; 1457 : 		}
; 1458 : 
; 1459 : 		// free hash table
; 1460 : 		delete[] m_pHashTable;

  00039	50		 push	 eax
  0003a	e8 00 00 00 00	 call	 ??_V@YAXPAX@Z		; operator delete[]
  0003f	83 c4 04	 add	 esp, 4

; 1461 : 		m_pHashTable = NULL;

  00042	c7 46 04 00 00
	00 00		 mov	 DWORD PTR [esi+4], 0
$LN17@scalar:

; 1462 : 	}
; 1463 : 
; 1464 : 	m_nCount = 0;
; 1465 : 	m_pFreeList = NULL;
; 1466 : 	m_pBlocks->FreeDataChain();

  00049	8b 4e 14	 mov	 ecx, DWORD PTR [esi+20]
  0004c	c7 46 0c 00 00
	00 00		 mov	 DWORD PTR [esi+12], 0
  00053	c7 46 10 00 00
	00 00		 mov	 DWORD PTR [esi+16], 0
  0005a	e8 00 00 00 00	 call	 ?FreeDataChain@CPlex@@QAEXXZ ; CPlex::FreeDataChain

; 1467 : 	m_pBlocks = NULL;

  0005f	8b 45 08	 mov	 eax, DWORD PTR ___flags$[ebp]
  00062	c7 46 14 00 00
	00 00		 mov	 DWORD PTR [esi+20], 0
  00069	a8 01		 test	 al, 1
  0006b	74 2c		 je	 SHORT $LN31@scalar
  0006d	a8 04		 test	 al, 4
  0006f	75 1d		 jne	 SHORT $LN3@scalar
; File C:\Program Files (x86)\Microsoft Visual Studio\2019\Community\VC\Tools\MSVC\14.29.30133\atlmfc\include\afx.inl

; 112  : 	{ ::operator delete(p); }

  00071	56		 push	 esi
  00072	e8 00 00 00 00	 call	 ??3@YAXPAX@Z		; operator delete
  00077	83 c4 04	 add	 esp, 4
  0007a	8b c6		 mov	 eax, esi
  0007c	8b 4d f4	 mov	 ecx, DWORD PTR __$EHRec$[ebp]
  0007f	64 89 0d 00 00
	00 00		 mov	 DWORD PTR fs:0, ecx
  00086	59		 pop	 ecx
  00087	5e		 pop	 esi
  00088	8b e5		 mov	 esp, ebp
  0008a	5d		 pop	 ebp
  0008b	c2 04 00	 ret	 4
$LN3@scalar:
  0008e	6a 1c		 push	 28			; 0000001cH
  00090	56		 push	 esi
  00091	e8 00 00 00 00	 call	 ?__global_delete@@YAXPAXI@Z ; __global_delete
  00096	83 c4 08	 add	 esp, 8
$LN31@scalar:
  00099	8b c6		 mov	 eax, esi
  0009b	8b 4d f4	 mov	 ecx, DWORD PTR __$EHRec$[ebp]
  0009e	64 89 0d 00 00
	00 00		 mov	 DWORD PTR fs:0, ecx
  000a5	59		 pop	 ecx
  000a6	5e		 pop	 esi
  000a7	8b e5		 mov	 esp, ebp
  000a9	5d		 pop	 ebp
  000aa	c2 04 00	 ret	 4
  000ad	cc		 int	 3
  000ae	cc		 int	 3
  000af	cc		 int	 3
  000b0	cc		 int	 3
  000b1	cc		 int	 3
_TEXT	ENDS
;	COMDAT text$x
text$x	SEGMENT
__ehhandler$??_G?$CMap@HHKAAK@@UAEPAXI@Z:
  00000	90		 npad	 1
  00001	90		 npad	 1
  00002	8b 54 24 08	 mov	 edx, DWORD PTR [esp+8]
  00006	8d 42 0c	 lea	 eax, DWORD PTR [edx+12]
  00009	8b 4a f8	 mov	 ecx, DWORD PTR [edx-8]
  0000c	33 c8		 xor	 ecx, eax
  0000e	e8 00 00 00 00	 call	 @__security_check_cookie@4
  00013	b8 00 00 00 00	 mov	 eax, OFFSET __ehfuncinfo$??_G?$CMap@HHKAAK@@UAEPAXI@Z
  00018	e9 00 00 00 00	 jmp	 ___CxxFrameHandler3
text$x	ENDS
??_G?$CMap@HHKAAK@@UAEPAXI@Z ENDP			; CMap<int,int,unsigned long,unsigned long &>::`scalar deleting destructor'
; Function compile flags: /Ogtp
; File C:\Program Files (x86)\Microsoft Visual Studio\2019\Community\VC\Tools\MSVC\14.29.30133\atlmfc\include\afxtempl.h
; File C:\Program Files (x86)\Microsoft Visual Studio\2019\Community\VC\Tools\MSVC\14.29.30133\atlmfc\include\afx.inl
; File C:\Program Files (x86)\Microsoft Visual Studio\2019\Community\VC\Tools\MSVC\14.29.30133\atlmfc\include\afxtempl.h
; File C:\Program Files (x86)\Microsoft Visual Studio\2019\Community\VC\Tools\MSVC\14.29.30133\atlmfc\include\afx.inl
; File C:\Program Files (x86)\Microsoft Visual Studio\2019\Community\VC\Tools\MSVC\14.29.30133\atlmfc\include\afxtempl.h
; File C:\Program Files (x86)\Microsoft Visual Studio\2019\Community\VC\Tools\MSVC\14.29.30133\atlmfc\include\afx.inl
; File C:\Program Files (x86)\Microsoft Visual Studio\2019\Community\VC\Tools\MSVC\14.29.30133\atlmfc\include\afxtempl.h
; File C:\Program Files (x86)\Microsoft Visual Studio\2019\Community\VC\Tools\MSVC\14.29.30133\atlmfc\include\afx.inl
; File C:\Program Files (x86)\Microsoft Visual Studio\2019\Community\VC\Tools\MSVC\14.29.30133\atlmfc\include\afxtempl.h
; File C:\Program Files (x86)\Microsoft Visual Studio\2019\Community\VC\Tools\MSVC\14.29.30133\atlmfc\include\afx.inl
; File C:\Program Files (x86)\Microsoft Visual Studio\2019\Community\VC\Tools\MSVC\14.29.30133\atlmfc\include\afxtempl.h
; File C:\Program Files (x86)\Microsoft Visual Studio\2019\Community\VC\Tools\MSVC\14.29.30133\atlmfc\include\afx.inl
; File C:\Program Files (x86)\Microsoft Visual Studio\2019\Community\VC\Tools\MSVC\14.29.30133\atlmfc\include\afxtempl.h
; File C:\Program Files (x86)\Microsoft Visual Studio\2019\Community\VC\Tools\MSVC\14.29.30133\atlmfc\include\afx.inl
; File C:\Program Files (x86)\Microsoft Visual Studio\2019\Community\VC\Tools\MSVC\14.29.30133\atlmfc\include\afxtempl.h
; File C:\Program Files (x86)\Microsoft Visual Studio\2019\Community\VC\Tools\MSVC\14.29.30133\atlmfc\include\afx.inl
; File C:\Program Files (x86)\Microsoft Visual Studio\2019\Community\VC\Tools\MSVC\14.29.30133\atlmfc\include\afxtempl.h
; File C:\Program Files (x86)\Microsoft Visual Studio\2019\Community\VC\Tools\MSVC\14.29.30133\atlmfc\include\afx.inl
; File C:\Program Files (x86)\Microsoft Visual Studio\2019\Community\VC\Tools\MSVC\14.29.30133\atlmfc\include\afxtempl.h
; File C:\Program Files (x86)\Microsoft Visual Studio\2019\Community\VC\Tools\MSVC\14.29.30133\atlmfc\include\afx.inl
; File C:\Program Files (x86)\Microsoft Visual Studio\2019\Community\VC\Tools\MSVC\14.29.30133\atlmfc\include\afxtempl.h
; File C:\Program Files (x86)\Microsoft Visual Studio\2019\Community\VC\Tools\MSVC\14.29.30133\atlmfc\include\afx.inl
; File C:\Program Files (x86)\Microsoft Visual Studio\2019\Community\VC\Tools\MSVC\14.29.30133\atlmfc\include\afxtempl.h
; File C:\Program Files (x86)\Microsoft Visual Studio\2019\Community\VC\Tools\MSVC\14.29.30133\atlmfc\include\afx.inl
; File C:\Program Files (x86)\Microsoft Visual Studio\2019\Community\VC\Tools\MSVC\14.29.30133\atlmfc\include\afxtempl.h
; File C:\Program Files (x86)\Microsoft Visual Studio\2019\Community\VC\Tools\MSVC\14.29.30133\atlmfc\include\afx.inl
; File C:\Program Files (x86)\Microsoft Visual Studio\2019\Community\VC\Tools\MSVC\14.29.30133\atlmfc\include\afxtempl.h
; File C:\Program Files (x86)\Microsoft Visual Studio\2019\Community\VC\Tools\MSVC\14.29.30133\atlmfc\include\afx.inl
; File C:\Program Files (x86)\Microsoft Visual Studio\2019\Community\VC\Tools\MSVC\14.29.30133\atlmfc\include\afxtempl.h
; File C:\Program Files (x86)\Microsoft Visual Studio\2019\Community\VC\Tools\MSVC\14.29.30133\atlmfc\include\afx.inl
; File C:\Program Files (x86)\Microsoft Visual Studio\2019\Community\VC\Tools\MSVC\14.29.30133\atlmfc\include\afxtempl.h
; File C:\Program Files (x86)\Microsoft Visual Studio\2019\Community\VC\Tools\MSVC\14.29.30133\atlmfc\include\afx.inl
; File C:\Program Files (x86)\Microsoft Visual Studio\2019\Community\VC\Tools\MSVC\14.29.30133\atlmfc\include\afxtempl.h
; File C:\Program Files (x86)\Microsoft Visual Studio\2019\Community\VC\Tools\MSVC\14.29.30133\atlmfc\include\afx.inl
; File C:\Program Files (x86)\Microsoft Visual Studio\2019\Community\VC\Tools\MSVC\14.29.30133\atlmfc\include\afxtempl.h
; File C:\Program Files (x86)\Microsoft Visual Studio\2019\Community\VC\Tools\MSVC\14.29.30133\atlmfc\include\afx.inl
; File C:\Program Files (x86)\Microsoft Visual Studio\2019\Community\VC\Tools\MSVC\14.29.30133\atlmfc\include\afxtempl.h
; File C:\Program Files (x86)\Microsoft Visual Studio\2019\Community\VC\Tools\MSVC\14.29.30133\atlmfc\include\afx.inl
; File C:\Program Files (x86)\Microsoft Visual Studio\2019\Community\VC\Tools\MSVC\14.29.30133\atlmfc\include\afxtempl.h
;	COMDAT ?Serialize@?$CMap@HHKAAK@@UAEXAAVCArchive@@@Z
_TEXT	SEGMENT
_nHashBucket$1$ = -32					; size = 4
_nCount$1$ = -32					; size = 4
_nElementsToRead$1$ = -32				; size = 4
_nElementsToRead$1$ = -28				; size = 4
_pData$1$ = -28						; size = 4
_nCount$1$ = -28					; size = 4
_nNewCount$1$ = -28					; size = 4
_newValue$3 = -24					; size = 4
_this$1$ = -20						; size = 4
_newKey$4 = -16						; size = 4
_pData$1$ = -12						; size = 4
_pData$1$ = -12						; size = 4
_key$1$ = -12						; size = 4
_nHash$1$ = -12						; size = 4
_pAssoc$1$ = -8						; size = 4
_nElementsLeft$1$ = -4					; size = 4
_pData$1$ = -4						; size = 4
_pData$1$ = -4						; size = 4
_nHashSize$1$ = 8					; size = 4
_pData$1$ = 8						; size = 4
_nElementsLeft$1$ = 8					; size = 4
_pData$1$ = 8						; size = 4
_nElementsLeft$1$ = 8					; size = 4
_ar$ = 8						; size = 4
?Serialize@?$CMap@HHKAAK@@UAEXAAVCArchive@@@Z PROC	; CMap<int,int,unsigned long,unsigned long &>::Serialize, COMDAT
; _this$ = ecx

; 1743 : {

  00000	55		 push	 ebp
  00001	8b ec		 mov	 ebp, esp
  00003	83 ec 20	 sub	 esp, 32			; 00000020H
  00006	53		 push	 ebx
; File C:\Program Files (x86)\Microsoft Visual Studio\2019\Community\VC\Tools\MSVC\14.29.30133\atlmfc\include\afx.inl

; 212  : 	{ return (m_nMode & CArchive::load) == 0; }

  00007	8b 5d 08	 mov	 ebx, DWORD PTR _ar$[ebp]
; File C:\Program Files (x86)\Microsoft Visual Studio\2019\Community\VC\Tools\MSVC\14.29.30133\atlmfc\include\afxtempl.h

; 1743 : {

  0000a	56		 push	 esi
  0000b	8b f1		 mov	 esi, ecx

; 1748 : 	if (ar.IsStoring())

  0000d	8b cb		 mov	 ecx, ebx
  0000f	57		 push	 edi
; File C:\Program Files (x86)\Microsoft Visual Studio\2019\Community\VC\Tools\MSVC\14.29.30133\atlmfc\include\afx.inl

; 212  : 	{ return (m_nMode & CArchive::load) == 0; }

  00010	8b 43 18	 mov	 eax, DWORD PTR [ebx+24]
  00013	f7 d0		 not	 eax
; File C:\Program Files (x86)\Microsoft Visual Studio\2019\Community\VC\Tools\MSVC\14.29.30133\atlmfc\include\afxtempl.h

; 1743 : {

  00015	89 75 ec	 mov	 DWORD PTR _this$1$[ebp], esi
; File C:\Program Files (x86)\Microsoft Visual Studio\2019\Community\VC\Tools\MSVC\14.29.30133\atlmfc\include\afx.inl

; 212  : 	{ return (m_nMode & CArchive::load) == 0; }

  00018	a8 01		 test	 al, 1
; File C:\Program Files (x86)\Microsoft Visual Studio\2019\Community\VC\Tools\MSVC\14.29.30133\atlmfc\include\afxtempl.h

; 1748 : 	if (ar.IsStoring())

  0001a	0f 84 71 01 00
	00		 je	 $LN10@Serialize

; 1749 : 	{
; 1750 : 		ar.WriteCount(m_nCount);

  00020	ff 76 0c	 push	 DWORD PTR [esi+12]
  00023	e8 00 00 00 00	 call	 ?WriteCount@CArchive@@QAEXK@Z ; CArchive::WriteCount

; 1751 : 		if (m_nCount == 0)

  00028	83 7e 0c 00	 cmp	 DWORD PTR [esi+12], 0
  0002c	0f 84 be 03 00
	00		 je	 $LN189@Serialize

; 1752 : 			return;  // nothing more to do
; 1753 : 
; 1754 : 		ASSERT(m_pHashTable != NULL);
; 1755 : 		if (m_pHashTable != NULL)

  00032	83 7e 04 00	 cmp	 DWORD PTR [esi+4], 0
  00036	0f 84 b4 03 00
	00		 je	 $LN189@Serialize

; 1756 : 		{
; 1757 : 			for (UINT nHash = 0; nHash < m_nHashTableSize; nHash++)

  0003c	33 c9		 xor	 ecx, ecx
  0003e	89 4d f4	 mov	 DWORD PTR _nHash$1$[ebp], ecx
  00041	39 4e 08	 cmp	 DWORD PTR [esi+8], ecx
  00044	0f 86 a6 03 00
	00		 jbe	 $LN189@Serialize
  0004a	66 0f 1f 44 00
	00		 npad	 6
$LL4@Serialize:

; 1758 : 			{
; 1759 : 				CAssoc* pAssoc;
; 1760 : 				for (pAssoc = m_pHashTable[nHash]; pAssoc != NULL; pAssoc = pAssoc->pNext)

  00050	8b 46 04	 mov	 eax, DWORD PTR [esi+4]
  00053	8b 0c 88	 mov	 ecx, DWORD PTR [eax+ecx*4]
  00056	89 4d f8	 mov	 DWORD PTR _pAssoc$1$[ebp], ecx
  00059	85 c9		 test	 ecx, ecx
  0005b	0f 84 17 01 00
	00		 je	 $LN2@Serialize
$LL7@Serialize:
; File C:\Program Files (x86)\Microsoft Visual Studio\2019\Community\VC\Tools\MSVC\14.29.30133\atlmfc\include\afx.inl

; 212  : 	{ return (m_nMode & CArchive::load) == 0; }

  00061	8b 43 18	 mov	 eax, DWORD PTR [ebx+24]
; File C:\Program Files (x86)\Microsoft Visual Studio\2019\Community\VC\Tools\MSVC\14.29.30133\atlmfc\include\afxtempl.h

; 1770 : 					pValue = reinterpret_cast< VALUE* >( &reinterpret_cast< int& >( static_cast< VALUE& >( pAssoc->value ) ) );

  00064	8d 71 04	 lea	 esi, DWORD PTR [ecx+4]
; File C:\Program Files (x86)\Microsoft Visual Studio\2019\Community\VC\Tools\MSVC\14.29.30133\atlmfc\include\afx.inl

; 212  : 	{ return (m_nMode & CArchive::load) == 0; }

  00067	f7 d0		 not	 eax
; File C:\Program Files (x86)\Microsoft Visual Studio\2019\Community\VC\Tools\MSVC\14.29.30133\atlmfc\include\afxtempl.h

; 1770 : 					pValue = reinterpret_cast< VALUE* >( &reinterpret_cast< int& >( static_cast< VALUE& >( pAssoc->value ) ) );

  00069	89 75 e4	 mov	 DWORD PTR _pData$1$[ebp], esi

; 73   : 	if (ar.IsStoring())

  0006c	89 4d fc	 mov	 DWORD PTR _pData$1$[ebp], ecx
; File C:\Program Files (x86)\Microsoft Visual Studio\2019\Community\VC\Tools\MSVC\14.29.30133\atlmfc\include\afx.inl

; 212  : 	{ return (m_nMode & CArchive::load) == 0; }

  0006f	a8 01		 test	 al, 1
; File C:\Program Files (x86)\Microsoft Visual Studio\2019\Community\VC\Tools\MSVC\14.29.30133\atlmfc\include\afxtempl.h

; 73   : 	if (ar.IsStoring())

  00071	74 3c		 je	 SHORT $LN26@Serialize

; 74   : 	{
; 75   : 		TYPE* pData;
; 76   : 		UINT_PTR nElementsLeft;
; 77   : 
; 78   : 		nElementsLeft = nCount;

  00073	be 01 00 00 00	 mov	 esi, 1

; 79   : 		pData = pElements;

  00078	8b c1		 mov	 eax, ecx
  0007a	66 0f 1f 44 00
	00		 npad	 6
$LL21@Serialize:

; 85   : 			ar.Write(pData, nElementsToWrite*sizeof(TYPE));

  00080	8b 4d 08	 mov	 ecx, DWORD PTR _ar$[ebp]
  00083	bb ff ff ff 1f	 mov	 ebx, 536870911		; 1fffffffH
  00088	3b f3		 cmp	 esi, ebx
  0008a	0f 42 de	 cmovb	 ebx, esi
  0008d	8d 3c 9d 00 00
	00 00		 lea	 edi, DWORD PTR [ebx*4]
  00094	57		 push	 edi
  00095	50		 push	 eax
  00096	e8 00 00 00 00	 call	 ?Write@CArchive@@QAEXPBXI@Z ; CArchive::Write

; 87   : 			pData += nElementsToWrite;

  0009b	8b 45 fc	 mov	 eax, DWORD PTR _pData$1$[ebp]
  0009e	03 c7		 add	 eax, edi
  000a0	89 45 fc	 mov	 DWORD PTR _pData$1$[ebp], eax
  000a3	2b f3		 sub	 esi, ebx
  000a5	75 d9		 jne	 SHORT $LL21@Serialize
  000a7	8b 75 e4	 mov	 esi, DWORD PTR _pData$1$[ebp]

; 88   : 		}
; 89   : 	}

  000aa	8b 5d 08	 mov	 ebx, DWORD PTR _ar$[ebp]
  000ad	eb 3b		 jmp	 SHORT $LN41@Serialize
$LN26@Serialize:

; 90   : 	else
; 91   : 	{
; 92   : 		TYPE* pData;
; 93   : 		UINT_PTR nElementsLeft;
; 94   : 
; 95   : 		nElementsLeft = nCount;

  000af	bf 01 00 00 00	 mov	 edi, 1

; 96   : 		pData = pElements;

  000b4	8b d1		 mov	 edx, ecx
$LL23@Serialize:

; 101  : 			nElementsToRead = UINT(__min(nElementsLeft, INT_MAX/sizeof(TYPE)));

  000b6	b8 ff ff ff 1f	 mov	 eax, 536870911		; 1fffffffH
; File C:\Program Files (x86)\Microsoft Visual Studio\2019\Community\VC\Tools\MSVC\14.29.30133\atlmfc\include\afx.inl

; 399  : 	UINT nRead=Read(lpBuf, nCount);

  000bb	8b cb		 mov	 ecx, ebx
; File C:\Program Files (x86)\Microsoft Visual Studio\2019\Community\VC\Tools\MSVC\14.29.30133\atlmfc\include\afxtempl.h

; 101  : 			nElementsToRead = UINT(__min(nElementsLeft, INT_MAX/sizeof(TYPE)));

  000bd	3b f8		 cmp	 edi, eax
  000bf	0f 42 c7	 cmovb	 eax, edi
  000c2	89 45 e0	 mov	 DWORD PTR _nElementsToRead$1$[ebp], eax

; 102  : 			ar.EnsureRead(pData, nElementsToRead*sizeof(TYPE));

  000c5	c1 e0 02	 shl	 eax, 2
; File C:\Program Files (x86)\Microsoft Visual Studio\2019\Community\VC\Tools\MSVC\14.29.30133\atlmfc\include\afx.inl

; 399  : 	UINT nRead=Read(lpBuf, nCount);

  000c8	50		 push	 eax
  000c9	52		 push	 edx
; File C:\Program Files (x86)\Microsoft Visual Studio\2019\Community\VC\Tools\MSVC\14.29.30133\atlmfc\include\afxtempl.h

; 102  : 			ar.EnsureRead(pData, nElementsToRead*sizeof(TYPE));

  000ca	89 45 e4	 mov	 DWORD PTR _nCount$1$[ebp], eax
; File C:\Program Files (x86)\Microsoft Visual Studio\2019\Community\VC\Tools\MSVC\14.29.30133\atlmfc\include\afx.inl

; 399  : 	UINT nRead=Read(lpBuf, nCount);

  000cd	e8 00 00 00 00	 call	 ?Read@CArchive@@QAEIPAXI@Z ; CArchive::Read

; 400  : 	if(nRead!=nCount)

  000d2	8b 4d e4	 mov	 ecx, DWORD PTR _nCount$1$[ebp]
  000d5	3b c1		 cmp	 eax, ecx
  000d7	0f 85 21 03 00
	00		 jne	 $LN165@Serialize
; File C:\Program Files (x86)\Microsoft Visual Studio\2019\Community\VC\Tools\MSVC\14.29.30133\atlmfc\include\afxtempl.h

; 104  : 			pData += nElementsToRead;

  000dd	8b 55 fc	 mov	 edx, DWORD PTR _pData$1$[ebp]
  000e0	03 d1		 add	 edx, ecx
  000e2	89 55 fc	 mov	 DWORD PTR _pData$1$[ebp], edx
  000e5	2b 7d e0	 sub	 edi, DWORD PTR _nElementsToRead$1$[ebp]
  000e8	75 cc		 jne	 SHORT $LL23@Serialize
$LN41@Serialize:

; 68   : 	ENSURE(nCount == 0 || pElements != NULL);

  000ea	85 f6		 test	 esi, esi
  000ec	0f 84 07 03 00
	00		 je	 $LN167@Serialize
; File C:\Program Files (x86)\Microsoft Visual Studio\2019\Community\VC\Tools\MSVC\14.29.30133\atlmfc\include\afx.inl

; 212  : 	{ return (m_nMode & CArchive::load) == 0; }

  000f2	8b 43 18	 mov	 eax, DWORD PTR [ebx+24]
  000f5	f7 d0		 not	 eax
  000f7	a8 01		 test	 al, 1
; File C:\Program Files (x86)\Microsoft Visual Studio\2019\Community\VC\Tools\MSVC\14.29.30133\atlmfc\include\afxtempl.h

; 73   : 	if (ar.IsStoring())

  000f9	74 36		 je	 SHORT $LN47@Serialize

; 74   : 	{
; 75   : 		TYPE* pData;
; 76   : 		UINT_PTR nElementsLeft;
; 77   : 
; 78   : 		nElementsLeft = nCount;

  000fb	b8 01 00 00 00	 mov	 eax, 1
  00100	89 45 fc	 mov	 DWORD PTR _nElementsLeft$1$[ebp], eax
$LL42@Serialize:

; 85   : 			ar.Write(pData, nElementsToWrite*sizeof(TYPE));

  00103	8b 4d 08	 mov	 ecx, DWORD PTR _ar$[ebp]
  00106	bb ff ff ff 1f	 mov	 ebx, 536870911		; 1fffffffH
  0010b	3b c3		 cmp	 eax, ebx
  0010d	0f 42 d8	 cmovb	 ebx, eax
  00110	8d 3c 9d 00 00
	00 00		 lea	 edi, DWORD PTR [ebx*4]
  00117	57		 push	 edi
  00118	56		 push	 esi
  00119	e8 00 00 00 00	 call	 ?Write@CArchive@@QAEXPBXI@Z ; CArchive::Write

; 86   : 			nElementsLeft -= nElementsToWrite;

  0011e	8b 45 fc	 mov	 eax, DWORD PTR _nElementsLeft$1$[ebp]

; 87   : 			pData += nElementsToWrite;

  00121	03 f7		 add	 esi, edi
  00123	2b c3		 sub	 eax, ebx
  00125	89 45 fc	 mov	 DWORD PTR _nElementsLeft$1$[ebp], eax
  00128	85 c0		 test	 eax, eax
  0012a	75 d7		 jne	 SHORT $LL42@Serialize

; 88   : 		}
; 89   : 	}

  0012c	8b 5d 08	 mov	 ebx, DWORD PTR _ar$[ebp]
  0012f	eb 33		 jmp	 SHORT $LN5@Serialize
$LN47@Serialize:

; 90   : 	else
; 91   : 	{
; 92   : 		TYPE* pData;
; 93   : 		UINT_PTR nElementsLeft;
; 94   : 
; 95   : 		nElementsLeft = nCount;

  00131	bf 01 00 00 00	 mov	 edi, 1
$LL44@Serialize:

; 101  : 			nElementsToRead = UINT(__min(nElementsLeft, INT_MAX/sizeof(TYPE)));

  00136	b8 ff ff ff 1f	 mov	 eax, 536870911		; 1fffffffH
; File C:\Program Files (x86)\Microsoft Visual Studio\2019\Community\VC\Tools\MSVC\14.29.30133\atlmfc\include\afx.inl

; 399  : 	UINT nRead=Read(lpBuf, nCount);

  0013b	8b cb		 mov	 ecx, ebx
; File C:\Program Files (x86)\Microsoft Visual Studio\2019\Community\VC\Tools\MSVC\14.29.30133\atlmfc\include\afxtempl.h

; 101  : 			nElementsToRead = UINT(__min(nElementsLeft, INT_MAX/sizeof(TYPE)));

  0013d	3b f8		 cmp	 edi, eax
  0013f	0f 42 c7	 cmovb	 eax, edi
  00142	89 45 e4	 mov	 DWORD PTR _nElementsToRead$1$[ebp], eax

; 102  : 			ar.EnsureRead(pData, nElementsToRead*sizeof(TYPE));

  00145	c1 e0 02	 shl	 eax, 2
; File C:\Program Files (x86)\Microsoft Visual Studio\2019\Community\VC\Tools\MSVC\14.29.30133\atlmfc\include\afx.inl

; 399  : 	UINT nRead=Read(lpBuf, nCount);

  00148	50		 push	 eax
  00149	56		 push	 esi
; File C:\Program Files (x86)\Microsoft Visual Studio\2019\Community\VC\Tools\MSVC\14.29.30133\atlmfc\include\afxtempl.h

; 102  : 			ar.EnsureRead(pData, nElementsToRead*sizeof(TYPE));

  0014a	89 45 e0	 mov	 DWORD PTR _nCount$1$[ebp], eax
; File C:\Program Files (x86)\Microsoft Visual Studio\2019\Community\VC\Tools\MSVC\14.29.30133\atlmfc\include\afx.inl

; 399  : 	UINT nRead=Read(lpBuf, nCount);

  0014d	e8 00 00 00 00	 call	 ?Read@CArchive@@QAEIPAXI@Z ; CArchive::Read

; 400  : 	if(nRead!=nCount)

  00152	8b 4d e0	 mov	 ecx, DWORD PTR _nCount$1$[ebp]
  00155	3b c1		 cmp	 eax, ecx
  00157	0f 85 a1 02 00
	00		 jne	 $LN165@Serialize
; File C:\Program Files (x86)\Microsoft Visual Studio\2019\Community\VC\Tools\MSVC\14.29.30133\atlmfc\include\afxtempl.h

; 103  : 			nElementsLeft -= nElementsToRead;

  0015d	03 f1		 add	 esi, ecx
  0015f	2b 7d e4	 sub	 edi, DWORD PTR _nElementsToRead$1$[ebp]
  00162	75 d2		 jne	 SHORT $LL44@Serialize
$LN5@Serialize:

; 1758 : 			{
; 1759 : 				CAssoc* pAssoc;
; 1760 : 				for (pAssoc = m_pHashTable[nHash]; pAssoc != NULL; pAssoc = pAssoc->pNext)

  00164	8b 4d f8	 mov	 ecx, DWORD PTR _pAssoc$1$[ebp]
  00167	8b 49 08	 mov	 ecx, DWORD PTR [ecx+8]
  0016a	89 4d f8	 mov	 DWORD PTR _pAssoc$1$[ebp], ecx
  0016d	85 c9		 test	 ecx, ecx
  0016f	0f 85 ec fe ff
	ff		 jne	 $LL7@Serialize
  00175	8b 75 ec	 mov	 esi, DWORD PTR _this$1$[ebp]
$LN2@Serialize:

; 1756 : 		{
; 1757 : 			for (UINT nHash = 0; nHash < m_nHashTableSize; nHash++)

  00178	8b 4d f4	 mov	 ecx, DWORD PTR _nHash$1$[ebp]
  0017b	41		 inc	 ecx
  0017c	89 4d f4	 mov	 DWORD PTR _nHash$1$[ebp], ecx
  0017f	3b 4e 08	 cmp	 ecx, DWORD PTR [esi+8]
  00182	0f 82 c8 fe ff
	ff		 jb	 $LL4@Serialize

; 1787 : 		}
; 1788 : 	}
; 1789 : }

  00188	5f		 pop	 edi
  00189	5e		 pop	 esi
  0018a	5b		 pop	 ebx
  0018b	8b e5		 mov	 esp, ebp
  0018d	5d		 pop	 ebp
  0018e	c2 04 00	 ret	 4
$LN10@Serialize:

; 1771 : 					SerializeElements<KEY>(ar, pKey, 1);
; 1772 : 					SerializeElements<VALUE>(ar, pValue, 1);
; 1773 : 				}
; 1774 : 			}
; 1775 : 		}
; 1776 : 	}
; 1777 : 	else
; 1778 : 	{
; 1779 : 		DWORD_PTR nNewCount = ar.ReadCount();

  00191	e8 00 00 00 00	 call	 ?ReadCount@CArchive@@QAEKXZ ; CArchive::ReadCount

; 1780 : 		while (nNewCount--)

  00196	85 c0		 test	 eax, eax
  00198	0f 84 52 02 00
	00		 je	 $LN189@Serialize
  0019e	66 90		 npad	 2
$LL8@Serialize:
  001a0	48		 dec	 eax
  001a1	89 45 e4	 mov	 DWORD PTR _nNewCount$1$[ebp], eax
; File C:\Program Files (x86)\Microsoft Visual Studio\2019\Community\VC\Tools\MSVC\14.29.30133\atlmfc\include\afx.inl

; 212  : 	{ return (m_nMode & CArchive::load) == 0; }

  001a4	8b 43 18	 mov	 eax, DWORD PTR [ebx+24]
  001a7	f7 d0		 not	 eax
  001a9	a8 01		 test	 al, 1
; File C:\Program Files (x86)\Microsoft Visual Studio\2019\Community\VC\Tools\MSVC\14.29.30133\atlmfc\include\afxtempl.h

; 73   : 	if (ar.IsStoring())

  001ab	74 43		 je	 SHORT $LN67@Serialize

; 74   : 	{
; 75   : 		TYPE* pData;
; 76   : 		UINT_PTR nElementsLeft;
; 77   : 
; 78   : 		nElementsLeft = nCount;

  001ad	b8 01 00 00 00	 mov	 eax, 1

; 79   : 		pData = pElements;

  001b2	8d 4d f0	 lea	 ecx, DWORD PTR _newKey$4[ebp]
  001b5	89 45 08	 mov	 DWORD PTR _nElementsLeft$1$[ebp], eax
  001b8	89 4d f4	 mov	 DWORD PTR _pData$1$[ebp], ecx
  001bb	0f 1f 44 00 00	 npad	 5
$LL62@Serialize:

; 80   : 		while( nElementsLeft > 0 )
; 81   : 		{
; 82   : 			UINT nElementsToWrite;
; 83   : 
; 84   : 			nElementsToWrite = UINT(__min(nElementsLeft, INT_MAX/sizeof(TYPE)));

  001c0	bf ff ff ff 1f	 mov	 edi, 536870911		; 1fffffffH
  001c5	3b c7		 cmp	 eax, edi
  001c7	0f 42 f8	 cmovb	 edi, eax

; 85   : 			ar.Write(pData, nElementsToWrite*sizeof(TYPE));

  001ca	8d 34 bd 00 00
	00 00		 lea	 esi, DWORD PTR [edi*4]
  001d1	56		 push	 esi
  001d2	51		 push	 ecx
  001d3	8b cb		 mov	 ecx, ebx
  001d5	e8 00 00 00 00	 call	 ?Write@CArchive@@QAEXPBXI@Z ; CArchive::Write

; 86   : 			nElementsLeft -= nElementsToWrite;

  001da	8b 45 08	 mov	 eax, DWORD PTR _nElementsLeft$1$[ebp]

; 87   : 			pData += nElementsToWrite;

  001dd	8b 4d f4	 mov	 ecx, DWORD PTR _pData$1$[ebp]
  001e0	2b c7		 sub	 eax, edi
  001e2	03 ce		 add	 ecx, esi
  001e4	89 45 08	 mov	 DWORD PTR _nElementsLeft$1$[ebp], eax
  001e7	89 4d f4	 mov	 DWORD PTR _pData$1$[ebp], ecx
  001ea	85 c0		 test	 eax, eax
  001ec	75 d2		 jne	 SHORT $LL62@Serialize

; 88   : 		}
; 89   : 	}

  001ee	eb 45		 jmp	 SHORT $LN81@Serialize
$LN67@Serialize:

; 96   : 		pData = pElements;

  001f0	8d 55 f0	 lea	 edx, DWORD PTR _newKey$4[ebp]
  001f3	be 01 00 00 00	 mov	 esi, 1
  001f8	89 55 08	 mov	 DWORD PTR _pData$1$[ebp], edx
  001fb	0f 1f 44 00 00	 npad	 5
$LL64@Serialize:

; 101  : 			nElementsToRead = UINT(__min(nElementsLeft, INT_MAX/sizeof(TYPE)));

  00200	bf ff ff ff 1f	 mov	 edi, 536870911		; 1fffffffH
; File C:\Program Files (x86)\Microsoft Visual Studio\2019\Community\VC\Tools\MSVC\14.29.30133\atlmfc\include\afx.inl

; 399  : 	UINT nRead=Read(lpBuf, nCount);

  00205	8b cb		 mov	 ecx, ebx
; File C:\Program Files (x86)\Microsoft Visual Studio\2019\Community\VC\Tools\MSVC\14.29.30133\atlmfc\include\afxtempl.h

; 101  : 			nElementsToRead = UINT(__min(nElementsLeft, INT_MAX/sizeof(TYPE)));

  00207	3b f7		 cmp	 esi, edi
  00209	0f 42 fe	 cmovb	 edi, esi

; 102  : 			ar.EnsureRead(pData, nElementsToRead*sizeof(TYPE));

  0020c	8d 04 bd 00 00
	00 00		 lea	 eax, DWORD PTR [edi*4]
; File C:\Program Files (x86)\Microsoft Visual Studio\2019\Community\VC\Tools\MSVC\14.29.30133\atlmfc\include\afx.inl

; 399  : 	UINT nRead=Read(lpBuf, nCount);

  00213	50		 push	 eax
  00214	52		 push	 edx
  00215	e8 00 00 00 00	 call	 ?Read@CArchive@@QAEIPAXI@Z ; CArchive::Read

; 400  : 	if(nRead!=nCount)

  0021a	8d 0c bd 00 00
	00 00		 lea	 ecx, DWORD PTR [edi*4]
  00221	3b c1		 cmp	 eax, ecx
  00223	0f 85 d5 01 00
	00		 jne	 $LN165@Serialize
; File C:\Program Files (x86)\Microsoft Visual Studio\2019\Community\VC\Tools\MSVC\14.29.30133\atlmfc\include\afxtempl.h

; 104  : 			pData += nElementsToRead;

  00229	8b 55 08	 mov	 edx, DWORD PTR _pData$1$[ebp]
  0022c	03 d1		 add	 edx, ecx
  0022e	89 55 08	 mov	 DWORD PTR _pData$1$[ebp], edx
  00231	2b f7		 sub	 esi, edi
  00233	75 cb		 jne	 SHORT $LL64@Serialize
$LN81@Serialize:
; File C:\Program Files (x86)\Microsoft Visual Studio\2019\Community\VC\Tools\MSVC\14.29.30133\atlmfc\include\afx.inl

; 212  : 	{ return (m_nMode & CArchive::load) == 0; }

  00235	8b 43 18	 mov	 eax, DWORD PTR [ebx+24]
  00238	f7 d0		 not	 eax
  0023a	a8 01		 test	 al, 1
; File C:\Program Files (x86)\Microsoft Visual Studio\2019\Community\VC\Tools\MSVC\14.29.30133\atlmfc\include\afxtempl.h

; 73   : 	if (ar.IsStoring())

  0023c	74 42		 je	 SHORT $LN87@Serialize

; 74   : 	{
; 75   : 		TYPE* pData;
; 76   : 		UINT_PTR nElementsLeft;
; 77   : 
; 78   : 		nElementsLeft = nCount;

  0023e	b8 01 00 00 00	 mov	 eax, 1

; 79   : 		pData = pElements;

  00243	8d 4d e8	 lea	 ecx, DWORD PTR _newValue$3[ebp]
  00246	89 45 08	 mov	 DWORD PTR _nElementsLeft$1$[ebp], eax
  00249	89 4d f4	 mov	 DWORD PTR _pData$1$[ebp], ecx
  0024c	0f 1f 40 00	 npad	 4
$LL82@Serialize:

; 80   : 		while( nElementsLeft > 0 )
; 81   : 		{
; 82   : 			UINT nElementsToWrite;
; 83   : 
; 84   : 			nElementsToWrite = UINT(__min(nElementsLeft, INT_MAX/sizeof(TYPE)));

  00250	bf ff ff ff 1f	 mov	 edi, 536870911		; 1fffffffH
  00255	3b c7		 cmp	 eax, edi
  00257	0f 42 f8	 cmovb	 edi, eax

; 85   : 			ar.Write(pData, nElementsToWrite*sizeof(TYPE));

  0025a	8d 34 bd 00 00
	00 00		 lea	 esi, DWORD PTR [edi*4]
  00261	56		 push	 esi
  00262	51		 push	 ecx
  00263	8b cb		 mov	 ecx, ebx
  00265	e8 00 00 00 00	 call	 ?Write@CArchive@@QAEXPBXI@Z ; CArchive::Write

; 86   : 			nElementsLeft -= nElementsToWrite;

  0026a	8b 45 08	 mov	 eax, DWORD PTR _nElementsLeft$1$[ebp]

; 87   : 			pData += nElementsToWrite;

  0026d	8b 4d f4	 mov	 ecx, DWORD PTR _pData$1$[ebp]
  00270	2b c7		 sub	 eax, edi
  00272	03 ce		 add	 ecx, esi
  00274	89 45 08	 mov	 DWORD PTR _nElementsLeft$1$[ebp], eax
  00277	89 4d f4	 mov	 DWORD PTR _pData$1$[ebp], ecx
  0027a	85 c0		 test	 eax, eax
  0027c	75 d2		 jne	 SHORT $LL82@Serialize

; 88   : 		}
; 89   : 	}

  0027e	eb 45		 jmp	 SHORT $LN85@Serialize
$LN87@Serialize:

; 96   : 		pData = pElements;

  00280	8d 55 e8	 lea	 edx, DWORD PTR _newValue$3[ebp]
  00283	be 01 00 00 00	 mov	 esi, 1
  00288	89 55 08	 mov	 DWORD PTR _pData$1$[ebp], edx
  0028b	0f 1f 44 00 00	 npad	 5
$LL84@Serialize:

; 101  : 			nElementsToRead = UINT(__min(nElementsLeft, INT_MAX/sizeof(TYPE)));

  00290	bf ff ff ff 1f	 mov	 edi, 536870911		; 1fffffffH
; File C:\Program Files (x86)\Microsoft Visual Studio\2019\Community\VC\Tools\MSVC\14.29.30133\atlmfc\include\afx.inl

; 399  : 	UINT nRead=Read(lpBuf, nCount);

  00295	8b cb		 mov	 ecx, ebx
; File C:\Program Files (x86)\Microsoft Visual Studio\2019\Community\VC\Tools\MSVC\14.29.30133\atlmfc\include\afxtempl.h

; 101  : 			nElementsToRead = UINT(__min(nElementsLeft, INT_MAX/sizeof(TYPE)));

  00297	3b f7		 cmp	 esi, edi
  00299	0f 42 fe	 cmovb	 edi, esi

; 102  : 			ar.EnsureRead(pData, nElementsToRead*sizeof(TYPE));

  0029c	8d 04 bd 00 00
	00 00		 lea	 eax, DWORD PTR [edi*4]
; File C:\Program Files (x86)\Microsoft Visual Studio\2019\Community\VC\Tools\MSVC\14.29.30133\atlmfc\include\afx.inl

; 399  : 	UINT nRead=Read(lpBuf, nCount);

  002a3	50		 push	 eax
  002a4	52		 push	 edx
  002a5	e8 00 00 00 00	 call	 ?Read@CArchive@@QAEIPAXI@Z ; CArchive::Read

; 400  : 	if(nRead!=nCount)

  002aa	8d 0c bd 00 00
	00 00		 lea	 ecx, DWORD PTR [edi*4]
  002b1	3b c1		 cmp	 eax, ecx
  002b3	0f 85 45 01 00
	00		 jne	 $LN165@Serialize
; File C:\Program Files (x86)\Microsoft Visual Studio\2019\Community\VC\Tools\MSVC\14.29.30133\atlmfc\include\afxtempl.h

; 104  : 			pData += nElementsToRead;

  002b9	8b 55 08	 mov	 edx, DWORD PTR _pData$1$[ebp]
  002bc	03 d1		 add	 edx, ecx
  002be	89 55 08	 mov	 DWORD PTR _pData$1$[ebp], edx
  002c1	2b f7		 sub	 esi, edi
  002c3	75 cb		 jne	 SHORT $LL84@Serialize
$LN85@Serialize:

; 1781 : 		{
; 1782 : 			KEY newKey[1];
; 1783 : 			VALUE newValue[1];
; 1784 : 			SerializeElements<KEY>(ar, newKey, 1);
; 1785 : 			SerializeElements<VALUE>(ar, newValue, 1);
; 1786 : 			SetAt(newKey[0], newValue[0]);

  002c5	8b 45 f0	 mov	 eax, DWORD PTR _newKey$4[ebp]
  002c8	b9 1d f3 01 00	 mov	 ecx, 127773		; 0001f31dH
  002cd	89 45 f4	 mov	 DWORD PTR _key$1$[ebp], eax
  002d0	99		 cdq
  002d1	f7 f9		 idiv	 ecx

; 1534 : 	nHashBucket = nHashValue % m_nHashTableSize;

  002d3	8b 75 ec	 mov	 esi, DWORD PTR _this$1$[ebp]

; 166  : 	HashVal.rem = 16807 * HashVal.rem - 2836 * HashVal.quot;

  002d6	69 c0 14 0b 00
	00		 imul	 eax, eax, 2836
  002dc	69 ca a7 41 00
	00		 imul	 ecx, edx, 16807
  002e2	2b c8		 sub	 ecx, eax

; 1534 : 	nHashBucket = nHashValue % m_nHashTableSize;

  002e4	8d b9 ff ff ff
	7f		 lea	 edi, DWORD PTR [ecx+2147483647]
  002ea	0f 49 f9	 cmovns	 edi, ecx
  002ed	8b 4e 08	 mov	 ecx, DWORD PTR [esi+8]
  002f0	33 d2		 xor	 edx, edx
  002f2	89 4d 08	 mov	 DWORD PTR _nHashSize$1$[ebp], ecx
  002f5	8b c7		 mov	 eax, edi
  002f7	f7 f1		 div	 ecx

; 1535 : 
; 1536 : 	if (m_pHashTable == NULL)

  002f9	8b 4e 04	 mov	 ecx, DWORD PTR [esi+4]
  002fc	8b c2		 mov	 eax, edx
  002fe	89 45 e0	 mov	 DWORD PTR _nHashBucket$1$[ebp], eax
  00301	85 c9		 test	 ecx, ecx
  00303	75 49		 jne	 SHORT $LN112@Serialize

; 1434 : 		m_pHashTable = new CAssoc* [nHashSize];

  00305	8b 45 08	 mov	 eax, DWORD PTR _nHashSize$1$[ebp]
  00308	ba 04 00 00 00	 mov	 edx, 4
  0030d	f7 e2		 mul	 edx
  0030f	0f 90 c1	 seto	 cl
  00312	f7 d9		 neg	 ecx
  00314	0b c8		 or	 ecx, eax
  00316	51		 push	 ecx
  00317	e8 00 00 00 00	 call	 ??_U@YAPAXI@Z		; operator new[]
  0031c	83 c4 04	 add	 esp, 4
  0031f	89 46 04	 mov	 DWORD PTR [esi+4], eax

; 1435 : 		ENSURE(m_pHashTable != NULL);

  00322	85 c0		 test	 eax, eax
  00324	0f 84 cf 00 00
	00		 je	 $LN167@Serialize

; 1436 : 		memset(m_pHashTable, 0, sizeof(CAssoc*) * nHashSize);

  0032a	8b 4d 08	 mov	 ecx, DWORD PTR _nHashSize$1$[ebp]
  0032d	c1 e1 02	 shl	 ecx, 2
  00330	51		 push	 ecx
  00331	6a 00		 push	 0
  00333	50		 push	 eax
  00334	e8 00 00 00 00	 call	 _memset

; 1437 : 	}
; 1438 : 	m_nHashTableSize = nHashSize;

  00339	8b 45 08	 mov	 eax, DWORD PTR _nHashSize$1$[ebp]
  0033c	83 c4 0c	 add	 esp, 12			; 0000000cH

; 1595 : 		ENSURE(m_pHashTable);

  0033f	83 7e 04 00	 cmp	 DWORD PTR [esi+4], 0

; 1438 : 	m_nHashTableSize = nHashSize;

  00343	89 46 08	 mov	 DWORD PTR [esi+8], eax

; 1595 : 		ENSURE(m_pHashTable);

  00346	0f 84 ad 00 00
	00		 je	 $LN167@Serialize
  0034c	eb 1e		 jmp	 SHORT $LN225@Serialize
$LN112@Serialize:

; 1541 : 	for (pAssoc = m_pHashTable[nHashBucket]; pAssoc != NULL; pAssoc = pAssoc->pNext)

  0034e	8b 0c 81	 mov	 ecx, DWORD PTR [ecx+eax*4]
  00351	85 c9		 test	 ecx, ecx
  00353	74 17		 je	 SHORT $LN225@Serialize
  00355	8b 45 f4	 mov	 eax, DWORD PTR _key$1$[ebp]
$LL111@Serialize:

; 1542 : 	{
; 1543 : 		if (pAssoc->nHashValue == nHashValue && CompareElements(&pAssoc->key, &key))

  00358	39 79 0c	 cmp	 DWORD PTR [ecx+12], edi
  0035b	75 08		 jne	 SHORT $LN109@Serialize

; 156  : 	return *pElement1 == *pElement2;

  0035d	39 01		 cmp	 DWORD PTR [ecx], eax

; 1543 : 		if (pAssoc->nHashValue == nHashValue && CompareElements(&pAssoc->key, &key))

  0035f	0f 84 7a 00 00
	00		 je	 $LN104@Serialize
$LN109@Serialize:

; 1537 : 		return NULL;
; 1538 : 
; 1539 : 	// see if it exists
; 1540 : 	CAssoc* pAssoc;
; 1541 : 	for (pAssoc = m_pHashTable[nHashBucket]; pAssoc != NULL; pAssoc = pAssoc->pNext)

  00365	8b 49 08	 mov	 ecx, DWORD PTR [ecx+8]
  00368	85 c9		 test	 ecx, ecx
  0036a	75 ec		 jne	 SHORT $LL111@Serialize
$LN225@Serialize:

; 1481 : 	if (m_pFreeList == NULL)

  0036c	83 7e 10 00	 cmp	 DWORD PTR [esi+16], 0
  00370	75 34		 jne	 SHORT $LN142@Serialize

; 1482 : 	{
; 1483 : 		// add another block
; 1484 : 		CPlex* newBlock = CPlex::Create(m_pBlocks, m_nBlockSize, sizeof(CMap::CAssoc));

  00372	6a 10		 push	 16			; 00000010H
  00374	ff 76 18	 push	 DWORD PTR [esi+24]
  00377	8d 46 14	 lea	 eax, DWORD PTR [esi+20]
  0037a	50		 push	 eax
  0037b	e8 00 00 00 00	 call	 ?Create@CPlex@@SGPAU1@AAPAU1@II@Z ; CPlex::Create

; 1485 : 		// chain them into free list
; 1486 : 		CMap::CAssoc* pAssoc = (CMap::CAssoc*) newBlock->data();
; 1487 : 		// free in reverse order to make it easier to debug
; 1488 : 		pAssoc += m_nBlockSize - 1;

  00380	8b 56 18	 mov	 edx, DWORD PTR [esi+24]
  00383	83 c0 08	 add	 eax, 8
  00386	8b ca		 mov	 ecx, edx
  00388	c1 e1 04	 shl	 ecx, 4
  0038b	83 c1 f0	 add	 ecx, -16		; fffffff0H
  0038e	03 c8		 add	 ecx, eax

; 1489 : 		for (INT_PTR i = m_nBlockSize-1; i >= 0; i--, pAssoc--)

  00390	83 c2 ff	 add	 edx, -1
  00393	78 11		 js	 SHORT $LN142@Serialize
$LL139@Serialize:

; 1490 : 		{
; 1491 : 			pAssoc->pNext = m_pFreeList;

  00395	8b 46 10	 mov	 eax, DWORD PTR [esi+16]
  00398	89 41 08	 mov	 DWORD PTR [ecx+8], eax

; 1492 : 			m_pFreeList = pAssoc;

  0039b	89 4e 10	 mov	 DWORD PTR [esi+16], ecx
  0039e	83 e9 10	 sub	 ecx, 16			; 00000010H
  003a1	83 ea 01	 sub	 edx, 1
  003a4	79 ef		 jns	 SHORT $LL139@Serialize
$LN142@Serialize:

; 1493 : 		}
; 1494 : 	}
; 1495 : 	ENSURE(m_pFreeList != NULL);  // we must have something

  003a6	8b 4e 10	 mov	 ecx, DWORD PTR [esi+16]
  003a9	85 c9		 test	 ecx, ecx
  003ab	74 4c		 je	 SHORT $LN167@Serialize

; 1496 : 
; 1497 : 	CMap::CAssoc* pAssoc = m_pFreeList;
; 1498 : 
; 1499 : 	// zero the memory
; 1500 : 	CMap::CAssoc* pTemp = pAssoc->pNext;

  003ad	8b 41 08	 mov	 eax, DWORD PTR [ecx+8]
  003b0	0f 57 c0	 xorps	 xmm0, xmm0

; 1602 : 		pAssoc->pNext = m_pHashTable[nHashBucket];

  003b3	8b 55 e0	 mov	 edx, DWORD PTR _nHashBucket$1$[ebp]

; 1501 : 	memset( pAssoc, 0, sizeof(CMap::CAssoc) );

  003b6	0f 11 01	 movups	 XMMWORD PTR [ecx], xmm0

; 1502 : 	pAssoc->pNext = pTemp;

  003b9	89 41 08	 mov	 DWORD PTR [ecx+8], eax

; 1503 : 
; 1504 : 	m_pFreeList = m_pFreeList->pNext;

  003bc	8b 46 10	 mov	 eax, DWORD PTR [esi+16]
  003bf	8b 40 08	 mov	 eax, DWORD PTR [eax+8]

; 1505 : 	m_nCount++;

  003c2	ff 46 0c	 inc	 DWORD PTR [esi+12]
  003c5	89 46 10	 mov	 DWORD PTR [esi+16], eax

; 1256 : 		CPair( ARG_KEY keyval ) : key( keyval )	{}

  003c8	8b 45 f4	 mov	 eax, DWORD PTR _key$1$[ebp]
  003cb	89 01		 mov	 DWORD PTR [ecx], eax

; 1598 : 		pAssoc->nHashValue = nHashValue;

  003cd	89 79 0c	 mov	 DWORD PTR [ecx+12], edi

; 1599 : 		//'pAssoc->value' is a constructed object, nothing more
; 1600 : 
; 1601 : 		// put into hash table
; 1602 : 		pAssoc->pNext = m_pHashTable[nHashBucket];

  003d0	8b 46 04	 mov	 eax, DWORD PTR [esi+4]
  003d3	8b 04 90	 mov	 eax, DWORD PTR [eax+edx*4]
  003d6	89 41 08	 mov	 DWORD PTR [ecx+8], eax

; 1603 : 		m_pHashTable[nHashBucket] = pAssoc;

  003d9	8b 46 04	 mov	 eax, DWORD PTR [esi+4]
  003dc	89 0c 90	 mov	 DWORD PTR [eax+edx*4], ecx
$LN104@Serialize:

; 1350 : 	{ (*this)[key] = newValue; }

  003df	8b 45 e8	 mov	 eax, DWORD PTR _newValue$3[ebp]
  003e2	89 41 04	 mov	 DWORD PTR [ecx+4], eax

; 1780 : 		while (nNewCount--)

  003e5	8b 45 e4	 mov	 eax, DWORD PTR _nNewCount$1$[ebp]
  003e8	85 c0		 test	 eax, eax
  003ea	0f 85 b0 fd ff
	ff		 jne	 $LL8@Serialize
$LN189@Serialize:
  003f0	5f		 pop	 edi

; 1787 : 		}
; 1788 : 	}
; 1789 : }

  003f1	5e		 pop	 esi
  003f2	5b		 pop	 ebx
  003f3	8b e5		 mov	 esp, ebp
  003f5	5d		 pop	 ebp
  003f6	c2 04 00	 ret	 4
$LN167@Serialize:
  003f9	e8 00 00 00 00	 call	 ?AfxThrowInvalidArgException@@YGXXZ ; AfxThrowInvalidArgException
$LN165@Serialize:
  003fe	6a 00		 push	 0
  00400	6a 03		 push	 3
  00402	e8 00 00 00 00	 call	 ?AfxThrowArchiveException@@YGXHPBD@Z ; AfxThrowArchiveException
$LN226@Serialize:
  00407	cc		 int	 3
?Serialize@?$CMap@HHKAAK@@UAEXAAVCArchive@@@Z ENDP	; CMap<int,int,unsigned long,unsigned long &>::Serialize
_TEXT	ENDS
; Function compile flags: /Ogtp
; File C:\Program Files (x86)\Microsoft Visual Studio\2019\Community\VC\Tools\MSVC\14.29.30133\atlmfc\include\afxtempl.h
;	COMDAT ??1?$CMap@HHKAAK@@UAE@XZ
_TEXT	SEGMENT
__$EHRec$ = -12						; size = 12
??1?$CMap@HHKAAK@@UAE@XZ PROC				; CMap<int,int,unsigned long,unsigned long &>::~CMap<int,int,unsigned long,unsigned long &>, COMDAT
; _this$ = ecx

; 1472 : {

  00000	55		 push	 ebp
  00001	8b ec		 mov	 ebp, esp
  00003	6a ff		 push	 -1
  00005	68 00 00 00 00	 push	 __ehhandler$??1?$CMap@HHKAAK@@UAE@XZ
  0000a	64 a1 00 00 00
	00		 mov	 eax, DWORD PTR fs:0
  00010	50		 push	 eax
  00011	56		 push	 esi
  00012	a1 00 00 00 00	 mov	 eax, DWORD PTR ___security_cookie
  00017	33 c5		 xor	 eax, ebp
  00019	50		 push	 eax
  0001a	8d 45 f4	 lea	 eax, DWORD PTR __$EHRec$[ebp]
  0001d	64 a3 00 00 00
	00		 mov	 DWORD PTR fs:0, eax
  00023	8b f1		 mov	 esi, ecx

; 1446 : 	if (m_pHashTable != NULL)

  00025	8b 46 04	 mov	 eax, DWORD PTR [esi+4]

; 1472 : {

  00028	c7 06 00 00 00
	00		 mov	 DWORD PTR [esi], OFFSET ??_7?$CMap@HHKAAK@@6B@

; 1446 : 	if (m_pHashTable != NULL)

  0002e	85 c0		 test	 eax, eax
  00030	74 10		 je	 SHORT $LN10@CMap

; 1447 : 	{
; 1448 : 		// destroy elements (values and keys)
; 1449 : 		for (UINT nHash = 0; nHash < m_nHashTableSize; nHash++)
; 1450 : 		{
; 1451 : 			CAssoc* pAssoc;
; 1452 : 			for (pAssoc = m_pHashTable[nHash]; pAssoc != NULL;
; 1453 : 			  pAssoc = pAssoc->pNext)
; 1454 : 			{
; 1455 : 				pAssoc->CAssoc::~CAssoc();
; 1456 : 			}
; 1457 : 		}
; 1458 : 
; 1459 : 		// free hash table
; 1460 : 		delete[] m_pHashTable;

  00032	50		 push	 eax
  00033	e8 00 00 00 00	 call	 ??_V@YAXPAX@Z		; operator delete[]
  00038	83 c4 04	 add	 esp, 4

; 1461 : 		m_pHashTable = NULL;

  0003b	c7 46 04 00 00
	00 00		 mov	 DWORD PTR [esi+4], 0
$LN10@CMap:

; 1462 : 	}
; 1463 : 
; 1464 : 	m_nCount = 0;
; 1465 : 	m_pFreeList = NULL;
; 1466 : 	m_pBlocks->FreeDataChain();

  00042	8b 4e 14	 mov	 ecx, DWORD PTR [esi+20]
  00045	c7 46 0c 00 00
	00 00		 mov	 DWORD PTR [esi+12], 0
  0004c	c7 46 10 00 00
	00 00		 mov	 DWORD PTR [esi+16], 0
  00053	e8 00 00 00 00	 call	 ?FreeDataChain@CPlex@@QAEXXZ ; CPlex::FreeDataChain

; 1467 : 	m_pBlocks = NULL;

  00058	c7 46 14 00 00
	00 00		 mov	 DWORD PTR [esi+20], 0

; 1473 : 	RemoveAll();
; 1474 : 	ASSERT(m_nCount == 0);
; 1475 : }

  0005f	8b 4d f4	 mov	 ecx, DWORD PTR __$EHRec$[ebp]
  00062	64 89 0d 00 00
	00 00		 mov	 DWORD PTR fs:0, ecx
  00069	59		 pop	 ecx
  0006a	5e		 pop	 esi
  0006b	8b e5		 mov	 esp, ebp
  0006d	5d		 pop	 ebp
  0006e	c3		 ret	 0
  0006f	cc		 int	 3
  00070	cc		 int	 3
  00071	cc		 int	 3
  00072	cc		 int	 3
  00073	cc		 int	 3
_TEXT	ENDS
;	COMDAT text$x
text$x	SEGMENT
__ehhandler$??1?$CMap@HHKAAK@@UAE@XZ:
  00000	90		 npad	 1
  00001	90		 npad	 1
  00002	8b 54 24 08	 mov	 edx, DWORD PTR [esp+8]
  00006	8d 42 0c	 lea	 eax, DWORD PTR [edx+12]
  00009	8b 4a f8	 mov	 ecx, DWORD PTR [edx-8]
  0000c	33 c8		 xor	 ecx, eax
  0000e	e8 00 00 00 00	 call	 @__security_check_cookie@4
  00013	b8 00 00 00 00	 mov	 eax, OFFSET __ehfuncinfo$??1?$CMap@HHKAAK@@UAE@XZ
  00018	e9 00 00 00 00	 jmp	 ___CxxFrameHandler3
text$x	ENDS
??1?$CMap@HHKAAK@@UAE@XZ ENDP				; CMap<int,int,unsigned long,unsigned long &>::~CMap<int,int,unsigned long,unsigned long &>
; Function compile flags: /Ogtp
; File C:\Program Files (x86)\Microsoft Visual Studio\2019\Community\VC\Tools\MSVC\14.29.30133\atlmfc\include\afxtempl.h
;	COMDAT ?GetAssocAt@?$CMap@HHKAAK@@IBEPAVCAssoc@1@HAAI0@Z
_TEXT	SEGMENT
_key$ = 8						; size = 4
_nHashBucket$ = 12					; size = 4
_nHashValue$ = 16					; size = 4
?GetAssocAt@?$CMap@HHKAAK@@IBEPAVCAssoc@1@HAAI0@Z PROC	; CMap<int,int,unsigned long,unsigned long &>::GetAssocAt, COMDAT
; _this$ = ecx

; 1532 : {

  00000	55		 push	 ebp
  00001	8b ec		 mov	 ebp, esp
  00003	56		 push	 esi
  00004	8b f1		 mov	 esi, ecx

; 165  : 	ldiv_t HashVal = ldiv((long)(ARG_KEY)key, 127773);

  00006	b9 1d f3 01 00	 mov	 ecx, 127773		; 0001f31dH

; 1532 : {

  0000b	57		 push	 edi

; 165  : 	ldiv_t HashVal = ldiv((long)(ARG_KEY)key, 127773);

  0000c	8b 7d 08	 mov	 edi, DWORD PTR _key$[ebp]
  0000f	8b c7		 mov	 eax, edi
  00011	99		 cdq
  00012	f7 f9		 idiv	 ecx

; 166  : 	HashVal.rem = 16807 * HashVal.rem - 2836 * HashVal.quot;

  00014	69 c0 14 0b 00
	00		 imul	 eax, eax, 2836
  0001a	69 ca a7 41 00
	00		 imul	 ecx, edx, 16807
  00020	2b c8		 sub	 ecx, eax

; 1533 : 	nHashValue = HashKey<ARG_KEY>(key);

  00022	8d 81 ff ff ff
	7f		 lea	 eax, DWORD PTR [ecx+2147483647]
  00028	0f 49 c1	 cmovns	 eax, ecx
  0002b	8b 4d 10	 mov	 ecx, DWORD PTR _nHashValue$[ebp]

; 1534 : 	nHashBucket = nHashValue % m_nHashTableSize;

  0002e	33 d2		 xor	 edx, edx
  00030	89 01		 mov	 DWORD PTR [ecx], eax
  00032	f7 76 08	 div	 DWORD PTR [esi+8]
  00035	8b 45 0c	 mov	 eax, DWORD PTR _nHashBucket$[ebp]
  00038	89 10		 mov	 DWORD PTR [eax], edx

; 1535 : 
; 1536 : 	if (m_pHashTable == NULL)

  0003a	8b 46 04	 mov	 eax, DWORD PTR [esi+4]
  0003d	85 c0		 test	 eax, eax
  0003f	74 1f		 je	 SHORT $LN26@GetAssocAt

; 1537 : 		return NULL;
; 1538 : 
; 1539 : 	// see if it exists
; 1540 : 	CAssoc* pAssoc;
; 1541 : 	for (pAssoc = m_pHashTable[nHashBucket]; pAssoc != NULL; pAssoc = pAssoc->pNext)

  00041	8b 04 90	 mov	 eax, DWORD PTR [eax+edx*4]
  00044	85 c0		 test	 eax, eax
  00046	74 18		 je	 SHORT $LN26@GetAssocAt

; 1542 : 	{
; 1543 : 		if (pAssoc->nHashValue == nHashValue && CompareElements(&pAssoc->key, &key))

  00048	8b 09		 mov	 ecx, DWORD PTR [ecx]
  0004a	66 0f 1f 44 00
	00		 npad	 6
$LL4@GetAssocAt:
  00050	39 48 0c	 cmp	 DWORD PTR [eax+12], ecx
  00053	75 04		 jne	 SHORT $LN2@GetAssocAt

; 156  : 	return *pElement1 == *pElement2;

  00055	39 38		 cmp	 DWORD PTR [eax], edi

; 1542 : 	{
; 1543 : 		if (pAssoc->nHashValue == nHashValue && CompareElements(&pAssoc->key, &key))

  00057	74 09		 je	 SHORT $LN1@GetAssocAt
$LN2@GetAssocAt:

; 1537 : 		return NULL;
; 1538 : 
; 1539 : 	// see if it exists
; 1540 : 	CAssoc* pAssoc;
; 1541 : 	for (pAssoc = m_pHashTable[nHashBucket]; pAssoc != NULL; pAssoc = pAssoc->pNext)

  00059	8b 40 08	 mov	 eax, DWORD PTR [eax+8]
  0005c	85 c0		 test	 eax, eax
  0005e	75 f0		 jne	 SHORT $LL4@GetAssocAt
$LN26@GetAssocAt:

; 1544 : 			return pAssoc;
; 1545 : 	}
; 1546 : 	return NULL;

  00060	33 c0		 xor	 eax, eax
$LN1@GetAssocAt:
  00062	5f		 pop	 edi

; 1547 : }

  00063	5e		 pop	 esi
  00064	5d		 pop	 ebp
  00065	c2 0c 00	 ret	 12			; 0000000cH
?GetAssocAt@?$CMap@HHKAAK@@IBEPAVCAssoc@1@HAAI0@Z ENDP	; CMap<int,int,unsigned long,unsigned long &>::GetAssocAt
_TEXT	ENDS
; Function compile flags: /Ogtp
; File C:\Program Files (x86)\Microsoft Visual Studio\2019\Community\VC\Tools\MSVC\14.29.30133\atlmfc\include\afxtempl.h
;	COMDAT ?NewAssoc@?$CMap@HHKAAK@@IAEPAVCAssoc@1@H@Z
_TEXT	SEGMENT
_key$ = 8						; size = 4
?NewAssoc@?$CMap@HHKAAK@@IAEPAVCAssoc@1@H@Z PROC	; CMap<int,int,unsigned long,unsigned long &>::NewAssoc, COMDAT
; _this$ = ecx

; 1480 : {

  00000	55		 push	 ebp
  00001	8b ec		 mov	 ebp, esp
  00003	56		 push	 esi
  00004	8b f1		 mov	 esi, ecx

; 1481 : 	if (m_pFreeList == NULL)

  00006	83 7e 10 00	 cmp	 DWORD PTR [esi+16], 0
  0000a	75 35		 jne	 SHORT $LN7@NewAssoc

; 1482 : 	{
; 1483 : 		// add another block
; 1484 : 		CPlex* newBlock = CPlex::Create(m_pBlocks, m_nBlockSize, sizeof(CMap::CAssoc));

  0000c	6a 10		 push	 16			; 00000010H
  0000e	ff 76 18	 push	 DWORD PTR [esi+24]
  00011	8d 46 14	 lea	 eax, DWORD PTR [esi+20]
  00014	50		 push	 eax
  00015	e8 00 00 00 00	 call	 ?Create@CPlex@@SGPAU1@AAPAU1@II@Z ; CPlex::Create

; 1485 : 		// chain them into free list
; 1486 : 		CMap::CAssoc* pAssoc = (CMap::CAssoc*) newBlock->data();
; 1487 : 		// free in reverse order to make it easier to debug
; 1488 : 		pAssoc += m_nBlockSize - 1;

  0001a	8b 56 18	 mov	 edx, DWORD PTR [esi+24]
  0001d	83 c0 08	 add	 eax, 8
  00020	8b ca		 mov	 ecx, edx
  00022	c1 e1 04	 shl	 ecx, 4
  00025	83 c1 f0	 add	 ecx, -16		; fffffff0H
  00028	03 c1		 add	 eax, ecx

; 1489 : 		for (INT_PTR i = m_nBlockSize-1; i >= 0; i--, pAssoc--)

  0002a	83 c2 ff	 add	 edx, -1
  0002d	78 12		 js	 SHORT $LN7@NewAssoc
  0002f	90		 npad	 1
$LL4@NewAssoc:

; 1490 : 		{
; 1491 : 			pAssoc->pNext = m_pFreeList;

  00030	8b 4e 10	 mov	 ecx, DWORD PTR [esi+16]
  00033	89 48 08	 mov	 DWORD PTR [eax+8], ecx

; 1492 : 			m_pFreeList = pAssoc;

  00036	89 46 10	 mov	 DWORD PTR [esi+16], eax
  00039	83 e8 10	 sub	 eax, 16			; 00000010H
  0003c	83 ea 01	 sub	 edx, 1
  0003f	79 ef		 jns	 SHORT $LL4@NewAssoc
$LN7@NewAssoc:

; 1493 : 		}
; 1494 : 	}
; 1495 : 	ENSURE(m_pFreeList != NULL);  // we must have something

  00041	8b 46 10	 mov	 eax, DWORD PTR [esi+16]
  00044	85 c0		 test	 eax, eax
  00046	74 22		 je	 SHORT $LN21@NewAssoc

; 1496 : 
; 1497 : 	CMap::CAssoc* pAssoc = m_pFreeList;
; 1498 : 
; 1499 : 	// zero the memory
; 1500 : 	CMap::CAssoc* pTemp = pAssoc->pNext;

  00048	8b 48 08	 mov	 ecx, DWORD PTR [eax+8]
  0004b	0f 57 c0	 xorps	 xmm0, xmm0

; 1501 : 	memset( pAssoc, 0, sizeof(CMap::CAssoc) );

  0004e	0f 11 00	 movups	 XMMWORD PTR [eax], xmm0

; 1502 : 	pAssoc->pNext = pTemp;

  00051	89 48 08	 mov	 DWORD PTR [eax+8], ecx

; 1503 : 
; 1504 : 	m_pFreeList = m_pFreeList->pNext;

  00054	8b 4e 10	 mov	 ecx, DWORD PTR [esi+16]
  00057	8b 49 08	 mov	 ecx, DWORD PTR [ecx+8]

; 1505 : 	m_nCount++;

  0005a	ff 46 0c	 inc	 DWORD PTR [esi+12]
  0005d	89 4e 10	 mov	 DWORD PTR [esi+16], ecx

; 1256 : 		CPair( ARG_KEY keyval ) : key( keyval )	{}

  00060	8b 4d 08	 mov	 ecx, DWORD PTR _key$[ebp]
  00063	89 08		 mov	 DWORD PTR [eax], ecx

; 1506 : 	ASSERT(m_nCount > 0);  // make sure we don't overflow
; 1507 : #pragma push_macro("new")
; 1508 : #undef new
; 1509 : 	::new(pAssoc) CMap::CAssoc(key);
; 1510 : #pragma pop_macro("new")
; 1511 : 	return pAssoc;

  00065	5e		 pop	 esi

; 1512 : }

  00066	5d		 pop	 ebp
  00067	c2 04 00	 ret	 4
$LN21@NewAssoc:

; 1493 : 		}
; 1494 : 	}
; 1495 : 	ENSURE(m_pFreeList != NULL);  // we must have something

  0006a	e8 00 00 00 00	 call	 ?AfxThrowInvalidArgException@@YGXXZ ; AfxThrowInvalidArgException
$LN19@NewAssoc:
  0006f	cc		 int	 3
?NewAssoc@?$CMap@HHKAAK@@IAEPAVCAssoc@1@H@Z ENDP	; CMap<int,int,unsigned long,unsigned long &>::NewAssoc
_TEXT	ENDS
; Function compile flags: /Ogtp
; File C:\Program Files (x86)\Microsoft Visual Studio\2019\Community\VC\Tools\MSVC\14.29.30133\atlmfc\include\afxtempl.h
;	COMDAT ?InitHashTable@?$CMap@HHKAAK@@QAEXIH@Z
_TEXT	SEGMENT
_nHashSize$ = 8						; size = 4
_bAllocNow$ = 12					; size = 4
?InitHashTable@?$CMap@HHKAAK@@QAEXIH@Z PROC		; CMap<int,int,unsigned long,unsigned long &>::InitHashTable, COMDAT
; _this$ = ecx

; 1420 : {

  00000	55		 push	 ebp
  00001	8b ec		 mov	 ebp, esp
  00003	56		 push	 esi
  00004	8b f1		 mov	 esi, ecx
  00006	57		 push	 edi

; 1421 : 	ASSERT_VALID(this);
; 1422 : 	ASSERT(m_nCount == 0);
; 1423 : 	ASSERT(nHashSize > 0);
; 1424 : 
; 1425 : 	if (m_pHashTable != NULL)

  00007	8b 46 04	 mov	 eax, DWORD PTR [esi+4]
  0000a	85 c0		 test	 eax, eax
  0000c	74 10		 je	 SHORT $LN5@InitHashTa

; 1426 : 	{
; 1427 : 		// free hash table
; 1428 : 		delete[] m_pHashTable;

  0000e	50		 push	 eax
  0000f	e8 00 00 00 00	 call	 ??_V@YAXPAX@Z		; operator delete[]
  00014	83 c4 04	 add	 esp, 4

; 1429 : 		m_pHashTable = NULL;

  00017	c7 46 04 00 00
	00 00		 mov	 DWORD PTR [esi+4], 0
$LN5@InitHashTa:

; 1430 : 	}
; 1431 : 
; 1432 : 	if (bAllocNow)

  0001e	83 7d 0c 00	 cmp	 DWORD PTR _bAllocNow$[ebp], 0
  00022	8b 7d 08	 mov	 edi, DWORD PTR _nHashSize$[ebp]
  00025	74 37		 je	 SHORT $LN6@InitHashTa

; 1433 : 	{
; 1434 : 		m_pHashTable = new CAssoc* [nHashSize];

  00027	33 c9		 xor	 ecx, ecx
  00029	8b c7		 mov	 eax, edi
  0002b	ba 04 00 00 00	 mov	 edx, 4
  00030	f7 e2		 mul	 edx
  00032	0f 90 c1	 seto	 cl
  00035	f7 d9		 neg	 ecx
  00037	0b c8		 or	 ecx, eax
  00039	51		 push	 ecx
  0003a	e8 00 00 00 00	 call	 ??_U@YAPAXI@Z		; operator new[]
  0003f	8b c8		 mov	 ecx, eax
  00041	83 c4 04	 add	 esp, 4
  00044	89 4e 04	 mov	 DWORD PTR [esi+4], ecx

; 1435 : 		ENSURE(m_pHashTable != NULL);

  00047	85 c9		 test	 ecx, ecx
  00049	74 1c		 je	 SHORT $LN11@InitHashTa

; 1436 : 		memset(m_pHashTable, 0, sizeof(CAssoc*) * nHashSize);

  0004b	8d 04 bd 00 00
	00 00		 lea	 eax, DWORD PTR [edi*4]
  00052	50		 push	 eax
  00053	6a 00		 push	 0
  00055	51		 push	 ecx
  00056	e8 00 00 00 00	 call	 _memset
  0005b	83 c4 0c	 add	 esp, 12			; 0000000cH
$LN6@InitHashTa:

; 1437 : 	}
; 1438 : 	m_nHashTableSize = nHashSize;

  0005e	89 7e 08	 mov	 DWORD PTR [esi+8], edi
  00061	5f		 pop	 edi
  00062	5e		 pop	 esi

; 1439 : }

  00063	5d		 pop	 ebp
  00064	c2 08 00	 ret	 8
$LN11@InitHashTa:

; 1435 : 		ENSURE(m_pHashTable != NULL);

  00067	e8 00 00 00 00	 call	 ?AfxThrowInvalidArgException@@YGXXZ ; AfxThrowInvalidArgException
$LN9@InitHashTa:
  0006c	cc		 int	 3
?InitHashTable@?$CMap@HHKAAK@@QAEXIH@Z ENDP		; CMap<int,int,unsigned long,unsigned long &>::InitHashTable
_TEXT	ENDS
; Function compile flags: /Ogtp
; File C:\Program Files (x86)\Microsoft Visual Studio\2019\Community\VC\Tools\MSVC\14.29.30133\atlmfc\include\afxtempl.h
;	COMDAT ?RemoveAll@?$CMap@HHKAAK@@QAEXXZ
_TEXT	SEGMENT
?RemoveAll@?$CMap@HHKAAK@@QAEXXZ PROC			; CMap<int,int,unsigned long,unsigned long &>::RemoveAll, COMDAT
; _this$ = ecx

; 1443 : {

  00000	56		 push	 esi
  00001	8b f1		 mov	 esi, ecx

; 1444 : 	ASSERT_VALID(this);
; 1445 : 
; 1446 : 	if (m_pHashTable != NULL)

  00003	8b 46 04	 mov	 eax, DWORD PTR [esi+4]
  00006	85 c0		 test	 eax, eax
  00008	74 10		 je	 SHORT $LN8@RemoveAll

; 1447 : 	{
; 1448 : 		// destroy elements (values and keys)
; 1449 : 		for (UINT nHash = 0; nHash < m_nHashTableSize; nHash++)
; 1450 : 		{
; 1451 : 			CAssoc* pAssoc;
; 1452 : 			for (pAssoc = m_pHashTable[nHash]; pAssoc != NULL;
; 1453 : 			  pAssoc = pAssoc->pNext)
; 1454 : 			{
; 1455 : 				pAssoc->CAssoc::~CAssoc();
; 1456 : 			}
; 1457 : 		}
; 1458 : 
; 1459 : 		// free hash table
; 1460 : 		delete[] m_pHashTable;

  0000a	50		 push	 eax
  0000b	e8 00 00 00 00	 call	 ??_V@YAXPAX@Z		; operator delete[]
  00010	83 c4 04	 add	 esp, 4

; 1461 : 		m_pHashTable = NULL;

  00013	c7 46 04 00 00
	00 00		 mov	 DWORD PTR [esi+4], 0
$LN8@RemoveAll:

; 1462 : 	}
; 1463 : 
; 1464 : 	m_nCount = 0;
; 1465 : 	m_pFreeList = NULL;
; 1466 : 	m_pBlocks->FreeDataChain();

  0001a	8b 4e 14	 mov	 ecx, DWORD PTR [esi+20]
  0001d	c7 46 0c 00 00
	00 00		 mov	 DWORD PTR [esi+12], 0
  00024	c7 46 10 00 00
	00 00		 mov	 DWORD PTR [esi+16], 0
  0002b	e8 00 00 00 00	 call	 ?FreeDataChain@CPlex@@QAEXXZ ; CPlex::FreeDataChain

; 1467 : 	m_pBlocks = NULL;

  00030	c7 46 14 00 00
	00 00		 mov	 DWORD PTR [esi+20], 0
  00037	5e		 pop	 esi

; 1468 : }

  00038	c3		 ret	 0
?RemoveAll@?$CMap@HHKAAK@@QAEXXZ ENDP			; CMap<int,int,unsigned long,unsigned long &>::RemoveAll
_TEXT	ENDS
; Function compile flags: /Ogtp
; File C:\Program Files (x86)\Microsoft Visual Studio\2019\Community\VC\Tools\MSVC\14.29.30133\atlmfc\include\afxtempl.h
;	COMDAT ??A?$CMap@HHKAAK@@QAEAAKH@Z
_TEXT	SEGMENT
_nHashBucket$ = -8					; size = 4
_nHashValue$ = -4					; size = 4
_key$ = 8						; size = 4
??A?$CMap@HHKAAK@@QAEAAKH@Z PROC			; CMap<int,int,unsigned long,unsigned long &>::operator[], COMDAT
; _this$ = ecx

; 1585 : {

  00000	55		 push	 ebp
  00001	8b ec		 mov	 ebp, esp
  00003	83 ec 08	 sub	 esp, 8

; 1586 : 	ASSERT_VALID(this);
; 1587 : 
; 1588 : 	UINT nHashBucket, nHashValue;
; 1589 : 	CAssoc* pAssoc;
; 1590 : 	if ((pAssoc = GetAssocAt(key, nHashBucket, nHashValue)) == NULL)

  00006	8d 45 fc	 lea	 eax, DWORD PTR _nHashValue$[ebp]
  00009	53		 push	 ebx
  0000a	8b 5d 08	 mov	 ebx, DWORD PTR _key$[ebp]
  0000d	56		 push	 esi
  0000e	50		 push	 eax
  0000f	8d 45 f8	 lea	 eax, DWORD PTR _nHashBucket$[ebp]
  00012	8b f1		 mov	 esi, ecx
  00014	50		 push	 eax
  00015	53		 push	 ebx
  00016	e8 00 00 00 00	 call	 ?GetAssocAt@?$CMap@HHKAAK@@IBEPAVCAssoc@1@HAAI0@Z ; CMap<int,int,unsigned long,unsigned long &>::GetAssocAt
  0001b	8b d0		 mov	 edx, eax
  0001d	85 d2		 test	 edx, edx
  0001f	0f 85 cd 00 00
	00		 jne	 $LN5@operator

; 1591 : 	{
; 1592 : 		if (m_pHashTable == NULL)

  00025	8b 46 04	 mov	 eax, DWORD PTR [esi+4]
  00028	85 c0		 test	 eax, eax
  0002a	75 4c		 jne	 SHORT $LN39@operator

; 1593 : 			InitHashTable(m_nHashTableSize);

  0002c	57		 push	 edi
  0002d	8b 7e 08	 mov	 edi, DWORD PTR [esi+8]

; 1434 : 		m_pHashTable = new CAssoc* [nHashSize];

  00030	33 c9		 xor	 ecx, ecx
  00032	8b c7		 mov	 eax, edi
  00034	ba 04 00 00 00	 mov	 edx, 4
  00039	f7 e2		 mul	 edx
  0003b	0f 90 c1	 seto	 cl
  0003e	f7 d9		 neg	 ecx
  00040	0b c8		 or	 ecx, eax
  00042	51		 push	 ecx
  00043	e8 00 00 00 00	 call	 ??_U@YAPAXI@Z		; operator new[]
  00048	83 c4 04	 add	 esp, 4
  0004b	89 46 04	 mov	 DWORD PTR [esi+4], eax

; 1435 : 		ENSURE(m_pHashTable != NULL);

  0004e	85 c0		 test	 eax, eax
  00050	0f 84 a7 00 00
	00		 je	 $LN36@operator

; 1436 : 		memset(m_pHashTable, 0, sizeof(CAssoc*) * nHashSize);

  00056	8d 0c bd 00 00
	00 00		 lea	 ecx, DWORD PTR [edi*4]
  0005d	51		 push	 ecx
  0005e	6a 00		 push	 0
  00060	50		 push	 eax
  00061	e8 00 00 00 00	 call	 _memset

; 1437 : 	}
; 1438 : 	m_nHashTableSize = nHashSize;

  00066	8b 46 04	 mov	 eax, DWORD PTR [esi+4]
  00069	83 c4 0c	 add	 esp, 12			; 0000000cH
  0006c	89 7e 08	 mov	 DWORD PTR [esi+8], edi
  0006f	5f		 pop	 edi

; 1594 : 
; 1595 : 		ENSURE(m_pHashTable);

  00070	85 c0		 test	 eax, eax
  00072	0f 84 85 00 00
	00		 je	 $LN36@operator
$LN39@operator:

; 1481 : 	if (m_pFreeList == NULL)

  00078	83 7e 10 00	 cmp	 DWORD PTR [esi+16], 0
  0007c	75 34		 jne	 SHORT $LN24@operator

; 1482 : 	{
; 1483 : 		// add another block
; 1484 : 		CPlex* newBlock = CPlex::Create(m_pBlocks, m_nBlockSize, sizeof(CMap::CAssoc));

  0007e	6a 10		 push	 16			; 00000010H
  00080	ff 76 18	 push	 DWORD PTR [esi+24]
  00083	8d 46 14	 lea	 eax, DWORD PTR [esi+20]
  00086	50		 push	 eax
  00087	e8 00 00 00 00	 call	 ?Create@CPlex@@SGPAU1@AAPAU1@II@Z ; CPlex::Create

; 1485 : 		// chain them into free list
; 1486 : 		CMap::CAssoc* pAssoc = (CMap::CAssoc*) newBlock->data();
; 1487 : 		// free in reverse order to make it easier to debug
; 1488 : 		pAssoc += m_nBlockSize - 1;

  0008c	8b 56 18	 mov	 edx, DWORD PTR [esi+24]
  0008f	83 c0 08	 add	 eax, 8
  00092	8b ca		 mov	 ecx, edx
  00094	c1 e1 04	 shl	 ecx, 4
  00097	83 c1 f0	 add	 ecx, -16		; fffffff0H
  0009a	03 c8		 add	 ecx, eax

; 1489 : 		for (INT_PTR i = m_nBlockSize-1; i >= 0; i--, pAssoc--)

  0009c	83 c2 ff	 add	 edx, -1
  0009f	78 11		 js	 SHORT $LN24@operator
$LL21@operator:

; 1490 : 		{
; 1491 : 			pAssoc->pNext = m_pFreeList;

  000a1	8b 46 10	 mov	 eax, DWORD PTR [esi+16]
  000a4	89 41 08	 mov	 DWORD PTR [ecx+8], eax

; 1492 : 			m_pFreeList = pAssoc;

  000a7	89 4e 10	 mov	 DWORD PTR [esi+16], ecx
  000aa	83 e9 10	 sub	 ecx, 16			; 00000010H
  000ad	83 ea 01	 sub	 edx, 1
  000b0	79 ef		 jns	 SHORT $LL21@operator
$LN24@operator:

; 1493 : 		}
; 1494 : 	}
; 1495 : 	ENSURE(m_pFreeList != NULL);  // we must have something

  000b2	8b 56 10	 mov	 edx, DWORD PTR [esi+16]
  000b5	85 d2		 test	 edx, edx
  000b7	74 44		 je	 SHORT $LN36@operator

; 1496 : 
; 1497 : 	CMap::CAssoc* pAssoc = m_pFreeList;
; 1498 : 
; 1499 : 	// zero the memory
; 1500 : 	CMap::CAssoc* pTemp = pAssoc->pNext;

  000b9	8b 42 08	 mov	 eax, DWORD PTR [edx+8]
  000bc	0f 57 c0	 xorps	 xmm0, xmm0

; 1501 : 	memset( pAssoc, 0, sizeof(CMap::CAssoc) );

  000bf	0f 11 02	 movups	 XMMWORD PTR [edx], xmm0

; 1502 : 	pAssoc->pNext = pTemp;

  000c2	89 42 08	 mov	 DWORD PTR [edx+8], eax

; 1503 : 
; 1504 : 	m_pFreeList = m_pFreeList->pNext;

  000c5	8b 46 10	 mov	 eax, DWORD PTR [esi+16]
  000c8	8b 40 08	 mov	 eax, DWORD PTR [eax+8]

; 1505 : 	m_nCount++;

  000cb	ff 46 0c	 inc	 DWORD PTR [esi+12]
  000ce	89 46 10	 mov	 DWORD PTR [esi+16], eax

; 1596 : 		// it doesn't exist, add a new Association
; 1597 : 		pAssoc = NewAssoc(key);
; 1598 : 		pAssoc->nHashValue = nHashValue;

  000d1	8b 45 fc	 mov	 eax, DWORD PTR _nHashValue$[ebp]
  000d4	89 42 0c	 mov	 DWORD PTR [edx+12], eax

; 1599 : 		//'pAssoc->value' is a constructed object, nothing more
; 1600 : 
; 1601 : 		// put into hash table
; 1602 : 		pAssoc->pNext = m_pHashTable[nHashBucket];

  000d7	8b 45 f8	 mov	 eax, DWORD PTR _nHashBucket$[ebp]

; 1256 : 		CPair( ARG_KEY keyval ) : key( keyval )	{}

  000da	89 1a		 mov	 DWORD PTR [edx], ebx

; 1599 : 		//'pAssoc->value' is a constructed object, nothing more
; 1600 : 
; 1601 : 		// put into hash table
; 1602 : 		pAssoc->pNext = m_pHashTable[nHashBucket];

  000dc	8d 0c 85 00 00
	00 00		 lea	 ecx, DWORD PTR [eax*4]
  000e3	8b 46 04	 mov	 eax, DWORD PTR [esi+4]
  000e6	8b 04 01	 mov	 eax, DWORD PTR [ecx+eax]
  000e9	89 42 08	 mov	 DWORD PTR [edx+8], eax

; 1603 : 		m_pHashTable[nHashBucket] = pAssoc;

  000ec	8b 46 04	 mov	 eax, DWORD PTR [esi+4]
  000ef	89 14 01	 mov	 DWORD PTR [ecx+eax], edx
$LN5@operator:

; 1604 : 	}
; 1605 : 	return pAssoc->value;  // return new reference

  000f2	5e		 pop	 esi
  000f3	8d 42 04	 lea	 eax, DWORD PTR [edx+4]
  000f6	5b		 pop	 ebx

; 1606 : }

  000f7	8b e5		 mov	 esp, ebp
  000f9	5d		 pop	 ebp
  000fa	c2 04 00	 ret	 4
$LN36@operator:

; 1495 : 	ENSURE(m_pFreeList != NULL);  // we must have something

  000fd	e8 00 00 00 00	 call	 ?AfxThrowInvalidArgException@@YGXXZ ; AfxThrowInvalidArgException
$LN37@operator:
  00102	cc		 int	 3
??A?$CMap@HHKAAK@@QAEAAKH@Z ENDP			; CMap<int,int,unsigned long,unsigned long &>::operator[]
_TEXT	ENDS
; Function compile flags: /Ogtp
; File C:\Program Files (x86)\Microsoft Visual Studio\2019\Community\VC\Tools\MSVC\14.29.30133\atlmfc\include\afxtempl.h
;	COMDAT ?Lookup@?$CMap@HHKAAK@@QBEHHAAK@Z
_TEXT	SEGMENT
_nHashBucket$ = -8					; size = 4
_nHashValue$ = -4					; size = 4
_key$ = 8						; size = 4
_rValue$ = 12						; size = 4
?Lookup@?$CMap@HHKAAK@@QBEHHAAK@Z PROC			; CMap<int,int,unsigned long,unsigned long &>::Lookup, COMDAT
; _this$ = ecx

; 1551 : {

  00000	55		 push	 ebp
  00001	8b ec		 mov	 ebp, esp
  00003	83 ec 08	 sub	 esp, 8

; 1552 : 	ASSERT_VALID(this);
; 1553 : 
; 1554 : 	UINT nHashBucket, nHashValue;
; 1555 : 	CAssoc* pAssoc = GetAssocAt(key, nHashBucket, nHashValue);

  00006	8d 45 fc	 lea	 eax, DWORD PTR _nHashValue$[ebp]
  00009	50		 push	 eax
  0000a	8d 45 f8	 lea	 eax, DWORD PTR _nHashBucket$[ebp]
  0000d	50		 push	 eax
  0000e	ff 75 08	 push	 DWORD PTR _key$[ebp]
  00011	e8 00 00 00 00	 call	 ?GetAssocAt@?$CMap@HHKAAK@@IBEPAVCAssoc@1@HAAI0@Z ; CMap<int,int,unsigned long,unsigned long &>::GetAssocAt

; 1556 : 	if (pAssoc == NULL)

  00016	85 c0		 test	 eax, eax
  00018	75 06		 jne	 SHORT $LN2@Lookup

; 1561 : }

  0001a	8b e5		 mov	 esp, ebp
  0001c	5d		 pop	 ebp
  0001d	c2 08 00	 ret	 8
$LN2@Lookup:

; 1557 : 		return FALSE;  // not in map
; 1558 : 
; 1559 : 	rValue = pAssoc->value;

  00020	8b 48 04	 mov	 ecx, DWORD PTR [eax+4]
  00023	8b 45 0c	 mov	 eax, DWORD PTR _rValue$[ebp]
  00026	89 08		 mov	 DWORD PTR [eax], ecx

; 1560 : 	return TRUE;

  00028	b8 01 00 00 00	 mov	 eax, 1

; 1561 : }

  0002d	8b e5		 mov	 esp, ebp
  0002f	5d		 pop	 ebp
  00030	c2 08 00	 ret	 8
?Lookup@?$CMap@HHKAAK@@QBEHHAAK@Z ENDP			; CMap<int,int,unsigned long,unsigned long &>::Lookup
_TEXT	ENDS
; Function compile flags: /Ogtp
; File C:\Program Files (x86)\Microsoft Visual Studio\2019\Community\VC\Tools\MSVC\14.29.30133\atlmfc\include\afxtempl.h
;	COMDAT ??0?$CMap@HHKAAK@@QAE@H@Z
_TEXT	SEGMENT
_nBlockSize$ = 8					; size = 4
??0?$CMap@HHKAAK@@QAE@H@Z PROC				; CMap<int,int,unsigned long,unsigned long &>::CMap<int,int,unsigned long,unsigned long &>, COMDAT
; _this$ = ecx

; 1403 : {

  00000	55		 push	 ebp
  00001	8b ec		 mov	 ebp, esp

; 1404 : 	ASSERT(nBlockSize > 0);
; 1405 : 
; 1406 : 	m_pHashTable = NULL;
; 1407 : 	m_nHashTableSize = 17;  // default size
; 1408 : 	m_nCount = 0;
; 1409 : 	m_pFreeList = NULL;
; 1410 : 	m_pBlocks = NULL;
; 1411 : 	m_nBlockSize = nBlockSize;

  00003	8b 45 08	 mov	 eax, DWORD PTR _nBlockSize$[ebp]
  00006	89 41 18	 mov	 DWORD PTR [ecx+24], eax

; 1412 : }

  00009	8b c1		 mov	 eax, ecx
  0000b	c7 01 00 00 00
	00		 mov	 DWORD PTR [ecx], OFFSET ??_7?$CMap@HHKAAK@@6B@
  00011	c7 41 04 00 00
	00 00		 mov	 DWORD PTR [ecx+4], 0
  00018	c7 41 08 11 00
	00 00		 mov	 DWORD PTR [ecx+8], 17	; 00000011H
  0001f	c7 41 0c 00 00
	00 00		 mov	 DWORD PTR [ecx+12], 0
  00026	c7 41 10 00 00
	00 00		 mov	 DWORD PTR [ecx+16], 0
  0002d	c7 41 14 00 00
	00 00		 mov	 DWORD PTR [ecx+20], 0
  00034	5d		 pop	 ebp
  00035	c2 04 00	 ret	 4
??0?$CMap@HHKAAK@@QAE@H@Z ENDP				; CMap<int,int,unsigned long,unsigned long &>::CMap<int,int,unsigned long,unsigned long &>
_TEXT	ENDS
; Function compile flags: /Ogtp
; File C:\Program Files (x86)\Microsoft Visual Studio\2019\Community\VC\Tools\MSVC\14.29.30133\atlmfc\include\afxtempl.h
; File C:\Program Files (x86)\Microsoft Visual Studio\2019\Community\VC\Tools\MSVC\14.29.30133\atlmfc\include\afx.inl
;	COMDAT ??_G?$CMap@HHW4CONTROLTYPE@CItemInfo@@AAW412@@@UAEPAXI@Z
_TEXT	SEGMENT
__$EHRec$ = -12						; size = 12
___flags$ = 8						; size = 4
??_G?$CMap@HHW4CONTROLTYPE@CItemInfo@@AAW412@@@UAEPAXI@Z PROC ; CMap<int,int,enum CItemInfo::CONTROLTYPE,enum CItemInfo::CONTROLTYPE &>::`scalar deleting destructor', COMDAT
; _this$ = ecx
  00000	55		 push	 ebp
  00001	8b ec		 mov	 ebp, esp
  00003	6a ff		 push	 -1
  00005	68 00 00 00 00	 push	 __ehhandler$??_G?$CMap@HHW4CONTROLTYPE@CItemInfo@@AAW412@@@UAEPAXI@Z
  0000a	64 a1 00 00 00
	00		 mov	 eax, DWORD PTR fs:0
  00010	50		 push	 eax
  00011	56		 push	 esi
  00012	a1 00 00 00 00	 mov	 eax, DWORD PTR ___security_cookie
  00017	33 c5		 xor	 eax, ebp
  00019	50		 push	 eax
  0001a	8d 45 f4	 lea	 eax, DWORD PTR __$EHRec$[ebp]
  0001d	64 a3 00 00 00
	00		 mov	 DWORD PTR fs:0, eax
  00023	8b f1		 mov	 esi, ecx
; File C:\Program Files (x86)\Microsoft Visual Studio\2019\Community\VC\Tools\MSVC\14.29.30133\atlmfc\include\afxtempl.h

; 1446 : 	if (m_pHashTable != NULL)

  00025	8b 46 04	 mov	 eax, DWORD PTR [esi+4]

; 1472 : {

  00028	c7 45 fc 00 00
	00 00		 mov	 DWORD PTR __$EHRec$[ebp+8], 0
  0002f	c7 06 00 00 00
	00		 mov	 DWORD PTR [esi], OFFSET ??_7?$CMap@HHW4CONTROLTYPE@CItemInfo@@AAW412@@@6B@

; 1446 : 	if (m_pHashTable != NULL)

  00035	85 c0		 test	 eax, eax
  00037	74 10		 je	 SHORT $LN17@scalar

; 1447 : 	{
; 1448 : 		// destroy elements (values and keys)
; 1449 : 		for (UINT nHash = 0; nHash < m_nHashTableSize; nHash++)
; 1450 : 		{
; 1451 : 			CAssoc* pAssoc;
; 1452 : 			for (pAssoc = m_pHashTable[nHash]; pAssoc != NULL;
; 1453 : 			  pAssoc = pAssoc->pNext)
; 1454 : 			{
; 1455 : 				pAssoc->CAssoc::~CAssoc();
; 1456 : 			}
; 1457 : 		}
; 1458 : 
; 1459 : 		// free hash table
; 1460 : 		delete[] m_pHashTable;

  00039	50		 push	 eax
  0003a	e8 00 00 00 00	 call	 ??_V@YAXPAX@Z		; operator delete[]
  0003f	83 c4 04	 add	 esp, 4

; 1461 : 		m_pHashTable = NULL;

  00042	c7 46 04 00 00
	00 00		 mov	 DWORD PTR [esi+4], 0
$LN17@scalar:

; 1462 : 	}
; 1463 : 
; 1464 : 	m_nCount = 0;
; 1465 : 	m_pFreeList = NULL;
; 1466 : 	m_pBlocks->FreeDataChain();

  00049	8b 4e 14	 mov	 ecx, DWORD PTR [esi+20]
  0004c	c7 46 0c 00 00
	00 00		 mov	 DWORD PTR [esi+12], 0
  00053	c7 46 10 00 00
	00 00		 mov	 DWORD PTR [esi+16], 0
  0005a	e8 00 00 00 00	 call	 ?FreeDataChain@CPlex@@QAEXXZ ; CPlex::FreeDataChain

; 1467 : 	m_pBlocks = NULL;

  0005f	8b 45 08	 mov	 eax, DWORD PTR ___flags$[ebp]
  00062	c7 46 14 00 00
	00 00		 mov	 DWORD PTR [esi+20], 0
  00069	a8 01		 test	 al, 1
  0006b	74 2c		 je	 SHORT $LN31@scalar
  0006d	a8 04		 test	 al, 4
  0006f	75 1d		 jne	 SHORT $LN3@scalar
; File C:\Program Files (x86)\Microsoft Visual Studio\2019\Community\VC\Tools\MSVC\14.29.30133\atlmfc\include\afx.inl

; 112  : 	{ ::operator delete(p); }

  00071	56		 push	 esi
  00072	e8 00 00 00 00	 call	 ??3@YAXPAX@Z		; operator delete
  00077	83 c4 04	 add	 esp, 4
  0007a	8b c6		 mov	 eax, esi
  0007c	8b 4d f4	 mov	 ecx, DWORD PTR __$EHRec$[ebp]
  0007f	64 89 0d 00 00
	00 00		 mov	 DWORD PTR fs:0, ecx
  00086	59		 pop	 ecx
  00087	5e		 pop	 esi
  00088	8b e5		 mov	 esp, ebp
  0008a	5d		 pop	 ebp
  0008b	c2 04 00	 ret	 4
$LN3@scalar:
  0008e	6a 1c		 push	 28			; 0000001cH
  00090	56		 push	 esi
  00091	e8 00 00 00 00	 call	 ?__global_delete@@YAXPAXI@Z ; __global_delete
  00096	83 c4 08	 add	 esp, 8
$LN31@scalar:
  00099	8b c6		 mov	 eax, esi
  0009b	8b 4d f4	 mov	 ecx, DWORD PTR __$EHRec$[ebp]
  0009e	64 89 0d 00 00
	00 00		 mov	 DWORD PTR fs:0, ecx
  000a5	59		 pop	 ecx
  000a6	5e		 pop	 esi
  000a7	8b e5		 mov	 esp, ebp
  000a9	5d		 pop	 ebp
  000aa	c2 04 00	 ret	 4
  000ad	cc		 int	 3
  000ae	cc		 int	 3
  000af	cc		 int	 3
  000b0	cc		 int	 3
  000b1	cc		 int	 3
_TEXT	ENDS
;	COMDAT text$x
text$x	SEGMENT
__ehhandler$??_G?$CMap@HHW4CONTROLTYPE@CItemInfo@@AAW412@@@UAEPAXI@Z:
  00000	90		 npad	 1
  00001	90		 npad	 1
  00002	8b 54 24 08	 mov	 edx, DWORD PTR [esp+8]
  00006	8d 42 0c	 lea	 eax, DWORD PTR [edx+12]
  00009	8b 4a f8	 mov	 ecx, DWORD PTR [edx-8]
  0000c	33 c8		 xor	 ecx, eax
  0000e	e8 00 00 00 00	 call	 @__security_check_cookie@4
  00013	b8 00 00 00 00	 mov	 eax, OFFSET __ehfuncinfo$??_G?$CMap@HHW4CONTROLTYPE@CItemInfo@@AAW412@@@UAEPAXI@Z
  00018	e9 00 00 00 00	 jmp	 ___CxxFrameHandler3
text$x	ENDS
??_G?$CMap@HHW4CONTROLTYPE@CItemInfo@@AAW412@@@UAEPAXI@Z ENDP ; CMap<int,int,enum CItemInfo::CONTROLTYPE,enum CItemInfo::CONTROLTYPE &>::`scalar deleting destructor'
; Function compile flags: /Ogtp
; File C:\Program Files (x86)\Microsoft Visual Studio\2019\Community\VC\Tools\MSVC\14.29.30133\atlmfc\include\afxtempl.h
; File C:\Program Files (x86)\Microsoft Visual Studio\2019\Community\VC\Tools\MSVC\14.29.30133\atlmfc\include\afx.inl
; File C:\Program Files (x86)\Microsoft Visual Studio\2019\Community\VC\Tools\MSVC\14.29.30133\atlmfc\include\afxtempl.h
; File C:\Program Files (x86)\Microsoft Visual Studio\2019\Community\VC\Tools\MSVC\14.29.30133\atlmfc\include\afx.inl
; File C:\Program Files (x86)\Microsoft Visual Studio\2019\Community\VC\Tools\MSVC\14.29.30133\atlmfc\include\afxtempl.h
; File C:\Program Files (x86)\Microsoft Visual Studio\2019\Community\VC\Tools\MSVC\14.29.30133\atlmfc\include\afx.inl
; File C:\Program Files (x86)\Microsoft Visual Studio\2019\Community\VC\Tools\MSVC\14.29.30133\atlmfc\include\afxtempl.h
; File C:\Program Files (x86)\Microsoft Visual Studio\2019\Community\VC\Tools\MSVC\14.29.30133\atlmfc\include\afx.inl
; File C:\Program Files (x86)\Microsoft Visual Studio\2019\Community\VC\Tools\MSVC\14.29.30133\atlmfc\include\afxtempl.h
; File C:\Program Files (x86)\Microsoft Visual Studio\2019\Community\VC\Tools\MSVC\14.29.30133\atlmfc\include\afx.inl
; File C:\Program Files (x86)\Microsoft Visual Studio\2019\Community\VC\Tools\MSVC\14.29.30133\atlmfc\include\afxtempl.h
; File C:\Program Files (x86)\Microsoft Visual Studio\2019\Community\VC\Tools\MSVC\14.29.30133\atlmfc\include\afx.inl
; File C:\Program Files (x86)\Microsoft Visual Studio\2019\Community\VC\Tools\MSVC\14.29.30133\atlmfc\include\afxtempl.h
; File C:\Program Files (x86)\Microsoft Visual Studio\2019\Community\VC\Tools\MSVC\14.29.30133\atlmfc\include\afx.inl
; File C:\Program Files (x86)\Microsoft Visual Studio\2019\Community\VC\Tools\MSVC\14.29.30133\atlmfc\include\afxtempl.h
; File C:\Program Files (x86)\Microsoft Visual Studio\2019\Community\VC\Tools\MSVC\14.29.30133\atlmfc\include\afx.inl
; File C:\Program Files (x86)\Microsoft Visual Studio\2019\Community\VC\Tools\MSVC\14.29.30133\atlmfc\include\afxtempl.h
; File C:\Program Files (x86)\Microsoft Visual Studio\2019\Community\VC\Tools\MSVC\14.29.30133\atlmfc\include\afx.inl
; File C:\Program Files (x86)\Microsoft Visual Studio\2019\Community\VC\Tools\MSVC\14.29.30133\atlmfc\include\afxtempl.h
; File C:\Program Files (x86)\Microsoft Visual Studio\2019\Community\VC\Tools\MSVC\14.29.30133\atlmfc\include\afx.inl
; File C:\Program Files (x86)\Microsoft Visual Studio\2019\Community\VC\Tools\MSVC\14.29.30133\atlmfc\include\afxtempl.h
; File C:\Program Files (x86)\Microsoft Visual Studio\2019\Community\VC\Tools\MSVC\14.29.30133\atlmfc\include\afx.inl
; File C:\Program Files (x86)\Microsoft Visual Studio\2019\Community\VC\Tools\MSVC\14.29.30133\atlmfc\include\afxtempl.h
; File C:\Program Files (x86)\Microsoft Visual Studio\2019\Community\VC\Tools\MSVC\14.29.30133\atlmfc\include\afx.inl
; File C:\Program Files (x86)\Microsoft Visual Studio\2019\Community\VC\Tools\MSVC\14.29.30133\atlmfc\include\afxtempl.h
; File C:\Program Files (x86)\Microsoft Visual Studio\2019\Community\VC\Tools\MSVC\14.29.30133\atlmfc\include\afx.inl
; File C:\Program Files (x86)\Microsoft Visual Studio\2019\Community\VC\Tools\MSVC\14.29.30133\atlmfc\include\afxtempl.h
; File C:\Program Files (x86)\Microsoft Visual Studio\2019\Community\VC\Tools\MSVC\14.29.30133\atlmfc\include\afx.inl
; File C:\Program Files (x86)\Microsoft Visual Studio\2019\Community\VC\Tools\MSVC\14.29.30133\atlmfc\include\afxtempl.h
; File C:\Program Files (x86)\Microsoft Visual Studio\2019\Community\VC\Tools\MSVC\14.29.30133\atlmfc\include\afx.inl
; File C:\Program Files (x86)\Microsoft Visual Studio\2019\Community\VC\Tools\MSVC\14.29.30133\atlmfc\include\afxtempl.h
; File C:\Program Files (x86)\Microsoft Visual Studio\2019\Community\VC\Tools\MSVC\14.29.30133\atlmfc\include\afx.inl
; File C:\Program Files (x86)\Microsoft Visual Studio\2019\Community\VC\Tools\MSVC\14.29.30133\atlmfc\include\afxtempl.h
; File C:\Program Files (x86)\Microsoft Visual Studio\2019\Community\VC\Tools\MSVC\14.29.30133\atlmfc\include\afx.inl
; File C:\Program Files (x86)\Microsoft Visual Studio\2019\Community\VC\Tools\MSVC\14.29.30133\atlmfc\include\afxtempl.h
; File C:\Program Files (x86)\Microsoft Visual Studio\2019\Community\VC\Tools\MSVC\14.29.30133\atlmfc\include\afx.inl
; File C:\Program Files (x86)\Microsoft Visual Studio\2019\Community\VC\Tools\MSVC\14.29.30133\atlmfc\include\afxtempl.h
; File C:\Program Files (x86)\Microsoft Visual Studio\2019\Community\VC\Tools\MSVC\14.29.30133\atlmfc\include\afx.inl
; File C:\Program Files (x86)\Microsoft Visual Studio\2019\Community\VC\Tools\MSVC\14.29.30133\atlmfc\include\afxtempl.h
;	COMDAT ?Serialize@?$CMap@HHW4CONTROLTYPE@CItemInfo@@AAW412@@@UAEXAAVCArchive@@@Z
_TEXT	SEGMENT
_nHashBucket$1$ = -32					; size = 4
_nCount$1$ = -32					; size = 4
_nElementsToRead$1$ = -32				; size = 4
_nElementsToRead$1$ = -28				; size = 4
_pData$1$ = -28						; size = 4
_nCount$1$ = -28					; size = 4
_nNewCount$1$ = -28					; size = 4
_newValue$3 = -24					; size = 4
_this$1$ = -20						; size = 4
_newKey$4 = -16						; size = 4
_pData$1$ = -12						; size = 4
_pData$1$ = -12						; size = 4
_key$1$ = -12						; size = 4
_nHash$1$ = -12						; size = 4
_pAssoc$1$ = -8						; size = 4
_nElementsLeft$1$ = -4					; size = 4
_pData$1$ = -4						; size = 4
_pData$1$ = -4						; size = 4
_nHashSize$1$ = 8					; size = 4
_pData$1$ = 8						; size = 4
_nElementsLeft$1$ = 8					; size = 4
_pData$1$ = 8						; size = 4
_nElementsLeft$1$ = 8					; size = 4
_ar$ = 8						; size = 4
?Serialize@?$CMap@HHW4CONTROLTYPE@CItemInfo@@AAW412@@@UAEXAAVCArchive@@@Z PROC ; CMap<int,int,enum CItemInfo::CONTROLTYPE,enum CItemInfo::CONTROLTYPE &>::Serialize, COMDAT
; _this$ = ecx

; 1743 : {

  00000	55		 push	 ebp
  00001	8b ec		 mov	 ebp, esp
  00003	83 ec 20	 sub	 esp, 32			; 00000020H
  00006	53		 push	 ebx
; File C:\Program Files (x86)\Microsoft Visual Studio\2019\Community\VC\Tools\MSVC\14.29.30133\atlmfc\include\afx.inl

; 212  : 	{ return (m_nMode & CArchive::load) == 0; }

  00007	8b 5d 08	 mov	 ebx, DWORD PTR _ar$[ebp]
; File C:\Program Files (x86)\Microsoft Visual Studio\2019\Community\VC\Tools\MSVC\14.29.30133\atlmfc\include\afxtempl.h

; 1743 : {

  0000a	56		 push	 esi
  0000b	8b f1		 mov	 esi, ecx

; 1748 : 	if (ar.IsStoring())

  0000d	8b cb		 mov	 ecx, ebx
  0000f	57		 push	 edi
; File C:\Program Files (x86)\Microsoft Visual Studio\2019\Community\VC\Tools\MSVC\14.29.30133\atlmfc\include\afx.inl

; 212  : 	{ return (m_nMode & CArchive::load) == 0; }

  00010	8b 43 18	 mov	 eax, DWORD PTR [ebx+24]
  00013	f7 d0		 not	 eax
; File C:\Program Files (x86)\Microsoft Visual Studio\2019\Community\VC\Tools\MSVC\14.29.30133\atlmfc\include\afxtempl.h

; 1743 : {

  00015	89 75 ec	 mov	 DWORD PTR _this$1$[ebp], esi
; File C:\Program Files (x86)\Microsoft Visual Studio\2019\Community\VC\Tools\MSVC\14.29.30133\atlmfc\include\afx.inl

; 212  : 	{ return (m_nMode & CArchive::load) == 0; }

  00018	a8 01		 test	 al, 1
; File C:\Program Files (x86)\Microsoft Visual Studio\2019\Community\VC\Tools\MSVC\14.29.30133\atlmfc\include\afxtempl.h

; 1748 : 	if (ar.IsStoring())

  0001a	0f 84 71 01 00
	00		 je	 $LN10@Serialize

; 1749 : 	{
; 1750 : 		ar.WriteCount(m_nCount);

  00020	ff 76 0c	 push	 DWORD PTR [esi+12]
  00023	e8 00 00 00 00	 call	 ?WriteCount@CArchive@@QAEXK@Z ; CArchive::WriteCount

; 1751 : 		if (m_nCount == 0)

  00028	83 7e 0c 00	 cmp	 DWORD PTR [esi+12], 0
  0002c	0f 84 be 03 00
	00		 je	 $LN189@Serialize

; 1752 : 			return;  // nothing more to do
; 1753 : 
; 1754 : 		ASSERT(m_pHashTable != NULL);
; 1755 : 		if (m_pHashTable != NULL)

  00032	83 7e 04 00	 cmp	 DWORD PTR [esi+4], 0
  00036	0f 84 b4 03 00
	00		 je	 $LN189@Serialize

; 1756 : 		{
; 1757 : 			for (UINT nHash = 0; nHash < m_nHashTableSize; nHash++)

  0003c	33 c9		 xor	 ecx, ecx
  0003e	89 4d f4	 mov	 DWORD PTR _nHash$1$[ebp], ecx
  00041	39 4e 08	 cmp	 DWORD PTR [esi+8], ecx
  00044	0f 86 a6 03 00
	00		 jbe	 $LN189@Serialize
  0004a	66 0f 1f 44 00
	00		 npad	 6
$LL4@Serialize:

; 1758 : 			{
; 1759 : 				CAssoc* pAssoc;
; 1760 : 				for (pAssoc = m_pHashTable[nHash]; pAssoc != NULL; pAssoc = pAssoc->pNext)

  00050	8b 46 04	 mov	 eax, DWORD PTR [esi+4]
  00053	8b 0c 88	 mov	 ecx, DWORD PTR [eax+ecx*4]
  00056	89 4d f8	 mov	 DWORD PTR _pAssoc$1$[ebp], ecx
  00059	85 c9		 test	 ecx, ecx
  0005b	0f 84 17 01 00
	00		 je	 $LN2@Serialize
$LL7@Serialize:
; File C:\Program Files (x86)\Microsoft Visual Studio\2019\Community\VC\Tools\MSVC\14.29.30133\atlmfc\include\afx.inl

; 212  : 	{ return (m_nMode & CArchive::load) == 0; }

  00061	8b 43 18	 mov	 eax, DWORD PTR [ebx+24]
; File C:\Program Files (x86)\Microsoft Visual Studio\2019\Community\VC\Tools\MSVC\14.29.30133\atlmfc\include\afxtempl.h

; 1770 : 					pValue = reinterpret_cast< VALUE* >( &reinterpret_cast< int& >( static_cast< VALUE& >( pAssoc->value ) ) );

  00064	8d 71 04	 lea	 esi, DWORD PTR [ecx+4]
; File C:\Program Files (x86)\Microsoft Visual Studio\2019\Community\VC\Tools\MSVC\14.29.30133\atlmfc\include\afx.inl

; 212  : 	{ return (m_nMode & CArchive::load) == 0; }

  00067	f7 d0		 not	 eax
; File C:\Program Files (x86)\Microsoft Visual Studio\2019\Community\VC\Tools\MSVC\14.29.30133\atlmfc\include\afxtempl.h

; 1770 : 					pValue = reinterpret_cast< VALUE* >( &reinterpret_cast< int& >( static_cast< VALUE& >( pAssoc->value ) ) );

  00069	89 75 e4	 mov	 DWORD PTR _pData$1$[ebp], esi

; 73   : 	if (ar.IsStoring())

  0006c	89 4d fc	 mov	 DWORD PTR _pData$1$[ebp], ecx
; File C:\Program Files (x86)\Microsoft Visual Studio\2019\Community\VC\Tools\MSVC\14.29.30133\atlmfc\include\afx.inl

; 212  : 	{ return (m_nMode & CArchive::load) == 0; }

  0006f	a8 01		 test	 al, 1
; File C:\Program Files (x86)\Microsoft Visual Studio\2019\Community\VC\Tools\MSVC\14.29.30133\atlmfc\include\afxtempl.h

; 73   : 	if (ar.IsStoring())

  00071	74 3c		 je	 SHORT $LN26@Serialize

; 74   : 	{
; 75   : 		TYPE* pData;
; 76   : 		UINT_PTR nElementsLeft;
; 77   : 
; 78   : 		nElementsLeft = nCount;

  00073	be 01 00 00 00	 mov	 esi, 1

; 79   : 		pData = pElements;

  00078	8b c1		 mov	 eax, ecx
  0007a	66 0f 1f 44 00
	00		 npad	 6
$LL21@Serialize:

; 85   : 			ar.Write(pData, nElementsToWrite*sizeof(TYPE));

  00080	8b 4d 08	 mov	 ecx, DWORD PTR _ar$[ebp]
  00083	bb ff ff ff 1f	 mov	 ebx, 536870911		; 1fffffffH
  00088	3b f3		 cmp	 esi, ebx
  0008a	0f 42 de	 cmovb	 ebx, esi
  0008d	8d 3c 9d 00 00
	00 00		 lea	 edi, DWORD PTR [ebx*4]
  00094	57		 push	 edi
  00095	50		 push	 eax
  00096	e8 00 00 00 00	 call	 ?Write@CArchive@@QAEXPBXI@Z ; CArchive::Write

; 87   : 			pData += nElementsToWrite;

  0009b	8b 45 fc	 mov	 eax, DWORD PTR _pData$1$[ebp]
  0009e	03 c7		 add	 eax, edi
  000a0	89 45 fc	 mov	 DWORD PTR _pData$1$[ebp], eax
  000a3	2b f3		 sub	 esi, ebx
  000a5	75 d9		 jne	 SHORT $LL21@Serialize
  000a7	8b 75 e4	 mov	 esi, DWORD PTR _pData$1$[ebp]

; 88   : 		}
; 89   : 	}

  000aa	8b 5d 08	 mov	 ebx, DWORD PTR _ar$[ebp]
  000ad	eb 3b		 jmp	 SHORT $LN41@Serialize
$LN26@Serialize:

; 90   : 	else
; 91   : 	{
; 92   : 		TYPE* pData;
; 93   : 		UINT_PTR nElementsLeft;
; 94   : 
; 95   : 		nElementsLeft = nCount;

  000af	bf 01 00 00 00	 mov	 edi, 1

; 96   : 		pData = pElements;

  000b4	8b d1		 mov	 edx, ecx
$LL23@Serialize:

; 101  : 			nElementsToRead = UINT(__min(nElementsLeft, INT_MAX/sizeof(TYPE)));

  000b6	b8 ff ff ff 1f	 mov	 eax, 536870911		; 1fffffffH
; File C:\Program Files (x86)\Microsoft Visual Studio\2019\Community\VC\Tools\MSVC\14.29.30133\atlmfc\include\afx.inl

; 399  : 	UINT nRead=Read(lpBuf, nCount);

  000bb	8b cb		 mov	 ecx, ebx
; File C:\Program Files (x86)\Microsoft Visual Studio\2019\Community\VC\Tools\MSVC\14.29.30133\atlmfc\include\afxtempl.h

; 101  : 			nElementsToRead = UINT(__min(nElementsLeft, INT_MAX/sizeof(TYPE)));

  000bd	3b f8		 cmp	 edi, eax
  000bf	0f 42 c7	 cmovb	 eax, edi
  000c2	89 45 e0	 mov	 DWORD PTR _nElementsToRead$1$[ebp], eax

; 102  : 			ar.EnsureRead(pData, nElementsToRead*sizeof(TYPE));

  000c5	c1 e0 02	 shl	 eax, 2
; File C:\Program Files (x86)\Microsoft Visual Studio\2019\Community\VC\Tools\MSVC\14.29.30133\atlmfc\include\afx.inl

; 399  : 	UINT nRead=Read(lpBuf, nCount);

  000c8	50		 push	 eax
  000c9	52		 push	 edx
; File C:\Program Files (x86)\Microsoft Visual Studio\2019\Community\VC\Tools\MSVC\14.29.30133\atlmfc\include\afxtempl.h

; 102  : 			ar.EnsureRead(pData, nElementsToRead*sizeof(TYPE));

  000ca	89 45 e4	 mov	 DWORD PTR _nCount$1$[ebp], eax
; File C:\Program Files (x86)\Microsoft Visual Studio\2019\Community\VC\Tools\MSVC\14.29.30133\atlmfc\include\afx.inl

; 399  : 	UINT nRead=Read(lpBuf, nCount);

  000cd	e8 00 00 00 00	 call	 ?Read@CArchive@@QAEIPAXI@Z ; CArchive::Read

; 400  : 	if(nRead!=nCount)

  000d2	8b 4d e4	 mov	 ecx, DWORD PTR _nCount$1$[ebp]
  000d5	3b c1		 cmp	 eax, ecx
  000d7	0f 85 21 03 00
	00		 jne	 $LN165@Serialize
; File C:\Program Files (x86)\Microsoft Visual Studio\2019\Community\VC\Tools\MSVC\14.29.30133\atlmfc\include\afxtempl.h

; 104  : 			pData += nElementsToRead;

  000dd	8b 55 fc	 mov	 edx, DWORD PTR _pData$1$[ebp]
  000e0	03 d1		 add	 edx, ecx
  000e2	89 55 fc	 mov	 DWORD PTR _pData$1$[ebp], edx
  000e5	2b 7d e0	 sub	 edi, DWORD PTR _nElementsToRead$1$[ebp]
  000e8	75 cc		 jne	 SHORT $LL23@Serialize
$LN41@Serialize:

; 68   : 	ENSURE(nCount == 0 || pElements != NULL);

  000ea	85 f6		 test	 esi, esi
  000ec	0f 84 07 03 00
	00		 je	 $LN167@Serialize
; File C:\Program Files (x86)\Microsoft Visual Studio\2019\Community\VC\Tools\MSVC\14.29.30133\atlmfc\include\afx.inl

; 212  : 	{ return (m_nMode & CArchive::load) == 0; }

  000f2	8b 43 18	 mov	 eax, DWORD PTR [ebx+24]
  000f5	f7 d0		 not	 eax
  000f7	a8 01		 test	 al, 1
; File C:\Program Files (x86)\Microsoft Visual Studio\2019\Community\VC\Tools\MSVC\14.29.30133\atlmfc\include\afxtempl.h

; 73   : 	if (ar.IsStoring())

  000f9	74 36		 je	 SHORT $LN47@Serialize

; 74   : 	{
; 75   : 		TYPE* pData;
; 76   : 		UINT_PTR nElementsLeft;
; 77   : 
; 78   : 		nElementsLeft = nCount;

  000fb	b8 01 00 00 00	 mov	 eax, 1
  00100	89 45 fc	 mov	 DWORD PTR _nElementsLeft$1$[ebp], eax
$LL42@Serialize:

; 85   : 			ar.Write(pData, nElementsToWrite*sizeof(TYPE));

  00103	8b 4d 08	 mov	 ecx, DWORD PTR _ar$[ebp]
  00106	bb ff ff ff 1f	 mov	 ebx, 536870911		; 1fffffffH
  0010b	3b c3		 cmp	 eax, ebx
  0010d	0f 42 d8	 cmovb	 ebx, eax
  00110	8d 3c 9d 00 00
	00 00		 lea	 edi, DWORD PTR [ebx*4]
  00117	57		 push	 edi
  00118	56		 push	 esi
  00119	e8 00 00 00 00	 call	 ?Write@CArchive@@QAEXPBXI@Z ; CArchive::Write

; 86   : 			nElementsLeft -= nElementsToWrite;

  0011e	8b 45 fc	 mov	 eax, DWORD PTR _nElementsLeft$1$[ebp]

; 87   : 			pData += nElementsToWrite;

  00121	03 f7		 add	 esi, edi
  00123	2b c3		 sub	 eax, ebx
  00125	89 45 fc	 mov	 DWORD PTR _nElementsLeft$1$[ebp], eax
  00128	85 c0		 test	 eax, eax
  0012a	75 d7		 jne	 SHORT $LL42@Serialize

; 88   : 		}
; 89   : 	}

  0012c	8b 5d 08	 mov	 ebx, DWORD PTR _ar$[ebp]
  0012f	eb 33		 jmp	 SHORT $LN5@Serialize
$LN47@Serialize:

; 90   : 	else
; 91   : 	{
; 92   : 		TYPE* pData;
; 93   : 		UINT_PTR nElementsLeft;
; 94   : 
; 95   : 		nElementsLeft = nCount;

  00131	bf 01 00 00 00	 mov	 edi, 1
$LL44@Serialize:

; 101  : 			nElementsToRead = UINT(__min(nElementsLeft, INT_MAX/sizeof(TYPE)));

  00136	b8 ff ff ff 1f	 mov	 eax, 536870911		; 1fffffffH
; File C:\Program Files (x86)\Microsoft Visual Studio\2019\Community\VC\Tools\MSVC\14.29.30133\atlmfc\include\afx.inl

; 399  : 	UINT nRead=Read(lpBuf, nCount);

  0013b	8b cb		 mov	 ecx, ebx
; File C:\Program Files (x86)\Microsoft Visual Studio\2019\Community\VC\Tools\MSVC\14.29.30133\atlmfc\include\afxtempl.h

; 101  : 			nElementsToRead = UINT(__min(nElementsLeft, INT_MAX/sizeof(TYPE)));

  0013d	3b f8		 cmp	 edi, eax
  0013f	0f 42 c7	 cmovb	 eax, edi
  00142	89 45 e4	 mov	 DWORD PTR _nElementsToRead$1$[ebp], eax

; 102  : 			ar.EnsureRead(pData, nElementsToRead*sizeof(TYPE));

  00145	c1 e0 02	 shl	 eax, 2
; File C:\Program Files (x86)\Microsoft Visual Studio\2019\Community\VC\Tools\MSVC\14.29.30133\atlmfc\include\afx.inl

; 399  : 	UINT nRead=Read(lpBuf, nCount);

  00148	50		 push	 eax
  00149	56		 push	 esi
; File C:\Program Files (x86)\Microsoft Visual Studio\2019\Community\VC\Tools\MSVC\14.29.30133\atlmfc\include\afxtempl.h

; 102  : 			ar.EnsureRead(pData, nElementsToRead*sizeof(TYPE));

  0014a	89 45 e0	 mov	 DWORD PTR _nCount$1$[ebp], eax
; File C:\Program Files (x86)\Microsoft Visual Studio\2019\Community\VC\Tools\MSVC\14.29.30133\atlmfc\include\afx.inl

; 399  : 	UINT nRead=Read(lpBuf, nCount);

  0014d	e8 00 00 00 00	 call	 ?Read@CArchive@@QAEIPAXI@Z ; CArchive::Read

; 400  : 	if(nRead!=nCount)

  00152	8b 4d e0	 mov	 ecx, DWORD PTR _nCount$1$[ebp]
  00155	3b c1		 cmp	 eax, ecx
  00157	0f 85 a1 02 00
	00		 jne	 $LN165@Serialize
; File C:\Program Files (x86)\Microsoft Visual Studio\2019\Community\VC\Tools\MSVC\14.29.30133\atlmfc\include\afxtempl.h

; 103  : 			nElementsLeft -= nElementsToRead;

  0015d	03 f1		 add	 esi, ecx
  0015f	2b 7d e4	 sub	 edi, DWORD PTR _nElementsToRead$1$[ebp]
  00162	75 d2		 jne	 SHORT $LL44@Serialize
$LN5@Serialize:

; 1758 : 			{
; 1759 : 				CAssoc* pAssoc;
; 1760 : 				for (pAssoc = m_pHashTable[nHash]; pAssoc != NULL; pAssoc = pAssoc->pNext)

  00164	8b 4d f8	 mov	 ecx, DWORD PTR _pAssoc$1$[ebp]
  00167	8b 49 08	 mov	 ecx, DWORD PTR [ecx+8]
  0016a	89 4d f8	 mov	 DWORD PTR _pAssoc$1$[ebp], ecx
  0016d	85 c9		 test	 ecx, ecx
  0016f	0f 85 ec fe ff
	ff		 jne	 $LL7@Serialize
  00175	8b 75 ec	 mov	 esi, DWORD PTR _this$1$[ebp]
$LN2@Serialize:

; 1756 : 		{
; 1757 : 			for (UINT nHash = 0; nHash < m_nHashTableSize; nHash++)

  00178	8b 4d f4	 mov	 ecx, DWORD PTR _nHash$1$[ebp]
  0017b	41		 inc	 ecx
  0017c	89 4d f4	 mov	 DWORD PTR _nHash$1$[ebp], ecx
  0017f	3b 4e 08	 cmp	 ecx, DWORD PTR [esi+8]
  00182	0f 82 c8 fe ff
	ff		 jb	 $LL4@Serialize

; 1787 : 		}
; 1788 : 	}
; 1789 : }

  00188	5f		 pop	 edi
  00189	5e		 pop	 esi
  0018a	5b		 pop	 ebx
  0018b	8b e5		 mov	 esp, ebp
  0018d	5d		 pop	 ebp
  0018e	c2 04 00	 ret	 4
$LN10@Serialize:

; 1771 : 					SerializeElements<KEY>(ar, pKey, 1);
; 1772 : 					SerializeElements<VALUE>(ar, pValue, 1);
; 1773 : 				}
; 1774 : 			}
; 1775 : 		}
; 1776 : 	}
; 1777 : 	else
; 1778 : 	{
; 1779 : 		DWORD_PTR nNewCount = ar.ReadCount();

  00191	e8 00 00 00 00	 call	 ?ReadCount@CArchive@@QAEKXZ ; CArchive::ReadCount

; 1780 : 		while (nNewCount--)

  00196	85 c0		 test	 eax, eax
  00198	0f 84 52 02 00
	00		 je	 $LN189@Serialize
  0019e	66 90		 npad	 2
$LL8@Serialize:
  001a0	48		 dec	 eax
  001a1	89 45 e4	 mov	 DWORD PTR _nNewCount$1$[ebp], eax
; File C:\Program Files (x86)\Microsoft Visual Studio\2019\Community\VC\Tools\MSVC\14.29.30133\atlmfc\include\afx.inl

; 212  : 	{ return (m_nMode & CArchive::load) == 0; }

  001a4	8b 43 18	 mov	 eax, DWORD PTR [ebx+24]
  001a7	f7 d0		 not	 eax
  001a9	a8 01		 test	 al, 1
; File C:\Program Files (x86)\Microsoft Visual Studio\2019\Community\VC\Tools\MSVC\14.29.30133\atlmfc\include\afxtempl.h

; 73   : 	if (ar.IsStoring())

  001ab	74 43		 je	 SHORT $LN67@Serialize

; 74   : 	{
; 75   : 		TYPE* pData;
; 76   : 		UINT_PTR nElementsLeft;
; 77   : 
; 78   : 		nElementsLeft = nCount;

  001ad	b8 01 00 00 00	 mov	 eax, 1

; 79   : 		pData = pElements;

  001b2	8d 4d f0	 lea	 ecx, DWORD PTR _newKey$4[ebp]
  001b5	89 45 08	 mov	 DWORD PTR _nElementsLeft$1$[ebp], eax
  001b8	89 4d f4	 mov	 DWORD PTR _pData$1$[ebp], ecx
  001bb	0f 1f 44 00 00	 npad	 5
$LL62@Serialize:

; 80   : 		while( nElementsLeft > 0 )
; 81   : 		{
; 82   : 			UINT nElementsToWrite;
; 83   : 
; 84   : 			nElementsToWrite = UINT(__min(nElementsLeft, INT_MAX/sizeof(TYPE)));

  001c0	bf ff ff ff 1f	 mov	 edi, 536870911		; 1fffffffH
  001c5	3b c7		 cmp	 eax, edi
  001c7	0f 42 f8	 cmovb	 edi, eax

; 85   : 			ar.Write(pData, nElementsToWrite*sizeof(TYPE));

  001ca	8d 34 bd 00 00
	00 00		 lea	 esi, DWORD PTR [edi*4]
  001d1	56		 push	 esi
  001d2	51		 push	 ecx
  001d3	8b cb		 mov	 ecx, ebx
  001d5	e8 00 00 00 00	 call	 ?Write@CArchive@@QAEXPBXI@Z ; CArchive::Write

; 86   : 			nElementsLeft -= nElementsToWrite;

  001da	8b 45 08	 mov	 eax, DWORD PTR _nElementsLeft$1$[ebp]

; 87   : 			pData += nElementsToWrite;

  001dd	8b 4d f4	 mov	 ecx, DWORD PTR _pData$1$[ebp]
  001e0	2b c7		 sub	 eax, edi
  001e2	03 ce		 add	 ecx, esi
  001e4	89 45 08	 mov	 DWORD PTR _nElementsLeft$1$[ebp], eax
  001e7	89 4d f4	 mov	 DWORD PTR _pData$1$[ebp], ecx
  001ea	85 c0		 test	 eax, eax
  001ec	75 d2		 jne	 SHORT $LL62@Serialize

; 88   : 		}
; 89   : 	}

  001ee	eb 45		 jmp	 SHORT $LN81@Serialize
$LN67@Serialize:

; 96   : 		pData = pElements;

  001f0	8d 55 f0	 lea	 edx, DWORD PTR _newKey$4[ebp]
  001f3	be 01 00 00 00	 mov	 esi, 1
  001f8	89 55 08	 mov	 DWORD PTR _pData$1$[ebp], edx
  001fb	0f 1f 44 00 00	 npad	 5
$LL64@Serialize:

; 101  : 			nElementsToRead = UINT(__min(nElementsLeft, INT_MAX/sizeof(TYPE)));

  00200	bf ff ff ff 1f	 mov	 edi, 536870911		; 1fffffffH
; File C:\Program Files (x86)\Microsoft Visual Studio\2019\Community\VC\Tools\MSVC\14.29.30133\atlmfc\include\afx.inl

; 399  : 	UINT nRead=Read(lpBuf, nCount);

  00205	8b cb		 mov	 ecx, ebx
; File C:\Program Files (x86)\Microsoft Visual Studio\2019\Community\VC\Tools\MSVC\14.29.30133\atlmfc\include\afxtempl.h

; 101  : 			nElementsToRead = UINT(__min(nElementsLeft, INT_MAX/sizeof(TYPE)));

  00207	3b f7		 cmp	 esi, edi
  00209	0f 42 fe	 cmovb	 edi, esi

; 102  : 			ar.EnsureRead(pData, nElementsToRead*sizeof(TYPE));

  0020c	8d 04 bd 00 00
	00 00		 lea	 eax, DWORD PTR [edi*4]
; File C:\Program Files (x86)\Microsoft Visual Studio\2019\Community\VC\Tools\MSVC\14.29.30133\atlmfc\include\afx.inl

; 399  : 	UINT nRead=Read(lpBuf, nCount);

  00213	50		 push	 eax
  00214	52		 push	 edx
  00215	e8 00 00 00 00	 call	 ?Read@CArchive@@QAEIPAXI@Z ; CArchive::Read

; 400  : 	if(nRead!=nCount)

  0021a	8d 0c bd 00 00
	00 00		 lea	 ecx, DWORD PTR [edi*4]
  00221	3b c1		 cmp	 eax, ecx
  00223	0f 85 d5 01 00
	00		 jne	 $LN165@Serialize
; File C:\Program Files (x86)\Microsoft Visual Studio\2019\Community\VC\Tools\MSVC\14.29.30133\atlmfc\include\afxtempl.h

; 104  : 			pData += nElementsToRead;

  00229	8b 55 08	 mov	 edx, DWORD PTR _pData$1$[ebp]
  0022c	03 d1		 add	 edx, ecx
  0022e	89 55 08	 mov	 DWORD PTR _pData$1$[ebp], edx
  00231	2b f7		 sub	 esi, edi
  00233	75 cb		 jne	 SHORT $LL64@Serialize
$LN81@Serialize:
; File C:\Program Files (x86)\Microsoft Visual Studio\2019\Community\VC\Tools\MSVC\14.29.30133\atlmfc\include\afx.inl

; 212  : 	{ return (m_nMode & CArchive::load) == 0; }

  00235	8b 43 18	 mov	 eax, DWORD PTR [ebx+24]
  00238	f7 d0		 not	 eax
  0023a	a8 01		 test	 al, 1
; File C:\Program Files (x86)\Microsoft Visual Studio\2019\Community\VC\Tools\MSVC\14.29.30133\atlmfc\include\afxtempl.h

; 73   : 	if (ar.IsStoring())

  0023c	74 42		 je	 SHORT $LN87@Serialize

; 74   : 	{
; 75   : 		TYPE* pData;
; 76   : 		UINT_PTR nElementsLeft;
; 77   : 
; 78   : 		nElementsLeft = nCount;

  0023e	b8 01 00 00 00	 mov	 eax, 1

; 79   : 		pData = pElements;

  00243	8d 4d e8	 lea	 ecx, DWORD PTR _newValue$3[ebp]
  00246	89 45 08	 mov	 DWORD PTR _nElementsLeft$1$[ebp], eax
  00249	89 4d f4	 mov	 DWORD PTR _pData$1$[ebp], ecx
  0024c	0f 1f 40 00	 npad	 4
$LL82@Serialize:

; 80   : 		while( nElementsLeft > 0 )
; 81   : 		{
; 82   : 			UINT nElementsToWrite;
; 83   : 
; 84   : 			nElementsToWrite = UINT(__min(nElementsLeft, INT_MAX/sizeof(TYPE)));

  00250	bf ff ff ff 1f	 mov	 edi, 536870911		; 1fffffffH
  00255	3b c7		 cmp	 eax, edi
  00257	0f 42 f8	 cmovb	 edi, eax

; 85   : 			ar.Write(pData, nElementsToWrite*sizeof(TYPE));

  0025a	8d 34 bd 00 00
	00 00		 lea	 esi, DWORD PTR [edi*4]
  00261	56		 push	 esi
  00262	51		 push	 ecx
  00263	8b cb		 mov	 ecx, ebx
  00265	e8 00 00 00 00	 call	 ?Write@CArchive@@QAEXPBXI@Z ; CArchive::Write

; 86   : 			nElementsLeft -= nElementsToWrite;

  0026a	8b 45 08	 mov	 eax, DWORD PTR _nElementsLeft$1$[ebp]

; 87   : 			pData += nElementsToWrite;

  0026d	8b 4d f4	 mov	 ecx, DWORD PTR _pData$1$[ebp]
  00270	2b c7		 sub	 eax, edi
  00272	03 ce		 add	 ecx, esi
  00274	89 45 08	 mov	 DWORD PTR _nElementsLeft$1$[ebp], eax
  00277	89 4d f4	 mov	 DWORD PTR _pData$1$[ebp], ecx
  0027a	85 c0		 test	 eax, eax
  0027c	75 d2		 jne	 SHORT $LL82@Serialize

; 88   : 		}
; 89   : 	}

  0027e	eb 45		 jmp	 SHORT $LN85@Serialize
$LN87@Serialize:

; 96   : 		pData = pElements;

  00280	8d 55 e8	 lea	 edx, DWORD PTR _newValue$3[ebp]
  00283	be 01 00 00 00	 mov	 esi, 1
  00288	89 55 08	 mov	 DWORD PTR _pData$1$[ebp], edx
  0028b	0f 1f 44 00 00	 npad	 5
$LL84@Serialize:

; 101  : 			nElementsToRead = UINT(__min(nElementsLeft, INT_MAX/sizeof(TYPE)));

  00290	bf ff ff ff 1f	 mov	 edi, 536870911		; 1fffffffH
; File C:\Program Files (x86)\Microsoft Visual Studio\2019\Community\VC\Tools\MSVC\14.29.30133\atlmfc\include\afx.inl

; 399  : 	UINT nRead=Read(lpBuf, nCount);

  00295	8b cb		 mov	 ecx, ebx
; File C:\Program Files (x86)\Microsoft Visual Studio\2019\Community\VC\Tools\MSVC\14.29.30133\atlmfc\include\afxtempl.h

; 101  : 			nElementsToRead = UINT(__min(nElementsLeft, INT_MAX/sizeof(TYPE)));

  00297	3b f7		 cmp	 esi, edi
  00299	0f 42 fe	 cmovb	 edi, esi

; 102  : 			ar.EnsureRead(pData, nElementsToRead*sizeof(TYPE));

  0029c	8d 04 bd 00 00
	00 00		 lea	 eax, DWORD PTR [edi*4]
; File C:\Program Files (x86)\Microsoft Visual Studio\2019\Community\VC\Tools\MSVC\14.29.30133\atlmfc\include\afx.inl

; 399  : 	UINT nRead=Read(lpBuf, nCount);

  002a3	50		 push	 eax
  002a4	52		 push	 edx
  002a5	e8 00 00 00 00	 call	 ?Read@CArchive@@QAEIPAXI@Z ; CArchive::Read

; 400  : 	if(nRead!=nCount)

  002aa	8d 0c bd 00 00
	00 00		 lea	 ecx, DWORD PTR [edi*4]
  002b1	3b c1		 cmp	 eax, ecx
  002b3	0f 85 45 01 00
	00		 jne	 $LN165@Serialize
; File C:\Program Files (x86)\Microsoft Visual Studio\2019\Community\VC\Tools\MSVC\14.29.30133\atlmfc\include\afxtempl.h

; 104  : 			pData += nElementsToRead;

  002b9	8b 55 08	 mov	 edx, DWORD PTR _pData$1$[ebp]
  002bc	03 d1		 add	 edx, ecx
  002be	89 55 08	 mov	 DWORD PTR _pData$1$[ebp], edx
  002c1	2b f7		 sub	 esi, edi
  002c3	75 cb		 jne	 SHORT $LL84@Serialize
$LN85@Serialize:

; 1781 : 		{
; 1782 : 			KEY newKey[1];
; 1783 : 			VALUE newValue[1];
; 1784 : 			SerializeElements<KEY>(ar, newKey, 1);
; 1785 : 			SerializeElements<VALUE>(ar, newValue, 1);
; 1786 : 			SetAt(newKey[0], newValue[0]);

  002c5	8b 45 f0	 mov	 eax, DWORD PTR _newKey$4[ebp]
  002c8	b9 1d f3 01 00	 mov	 ecx, 127773		; 0001f31dH
  002cd	89 45 f4	 mov	 DWORD PTR _key$1$[ebp], eax
  002d0	99		 cdq
  002d1	f7 f9		 idiv	 ecx

; 1534 : 	nHashBucket = nHashValue % m_nHashTableSize;

  002d3	8b 75 ec	 mov	 esi, DWORD PTR _this$1$[ebp]

; 166  : 	HashVal.rem = 16807 * HashVal.rem - 2836 * HashVal.quot;

  002d6	69 c0 14 0b 00
	00		 imul	 eax, eax, 2836
  002dc	69 ca a7 41 00
	00		 imul	 ecx, edx, 16807
  002e2	2b c8		 sub	 ecx, eax

; 1534 : 	nHashBucket = nHashValue % m_nHashTableSize;

  002e4	8d b9 ff ff ff
	7f		 lea	 edi, DWORD PTR [ecx+2147483647]
  002ea	0f 49 f9	 cmovns	 edi, ecx
  002ed	8b 4e 08	 mov	 ecx, DWORD PTR [esi+8]
  002f0	33 d2		 xor	 edx, edx
  002f2	89 4d 08	 mov	 DWORD PTR _nHashSize$1$[ebp], ecx
  002f5	8b c7		 mov	 eax, edi
  002f7	f7 f1		 div	 ecx

; 1535 : 
; 1536 : 	if (m_pHashTable == NULL)

  002f9	8b 4e 04	 mov	 ecx, DWORD PTR [esi+4]
  002fc	8b c2		 mov	 eax, edx
  002fe	89 45 e0	 mov	 DWORD PTR _nHashBucket$1$[ebp], eax
  00301	85 c9		 test	 ecx, ecx
  00303	75 49		 jne	 SHORT $LN112@Serialize

; 1434 : 		m_pHashTable = new CAssoc* [nHashSize];

  00305	8b 45 08	 mov	 eax, DWORD PTR _nHashSize$1$[ebp]
  00308	ba 04 00 00 00	 mov	 edx, 4
  0030d	f7 e2		 mul	 edx
  0030f	0f 90 c1	 seto	 cl
  00312	f7 d9		 neg	 ecx
  00314	0b c8		 or	 ecx, eax
  00316	51		 push	 ecx
  00317	e8 00 00 00 00	 call	 ??_U@YAPAXI@Z		; operator new[]
  0031c	83 c4 04	 add	 esp, 4
  0031f	89 46 04	 mov	 DWORD PTR [esi+4], eax

; 1435 : 		ENSURE(m_pHashTable != NULL);

  00322	85 c0		 test	 eax, eax
  00324	0f 84 cf 00 00
	00		 je	 $LN167@Serialize

; 1436 : 		memset(m_pHashTable, 0, sizeof(CAssoc*) * nHashSize);

  0032a	8b 4d 08	 mov	 ecx, DWORD PTR _nHashSize$1$[ebp]
  0032d	c1 e1 02	 shl	 ecx, 2
  00330	51		 push	 ecx
  00331	6a 00		 push	 0
  00333	50		 push	 eax
  00334	e8 00 00 00 00	 call	 _memset

; 1437 : 	}
; 1438 : 	m_nHashTableSize = nHashSize;

  00339	8b 45 08	 mov	 eax, DWORD PTR _nHashSize$1$[ebp]
  0033c	83 c4 0c	 add	 esp, 12			; 0000000cH

; 1595 : 		ENSURE(m_pHashTable);

  0033f	83 7e 04 00	 cmp	 DWORD PTR [esi+4], 0

; 1438 : 	m_nHashTableSize = nHashSize;

  00343	89 46 08	 mov	 DWORD PTR [esi+8], eax

; 1595 : 		ENSURE(m_pHashTable);

  00346	0f 84 ad 00 00
	00		 je	 $LN167@Serialize
  0034c	eb 1e		 jmp	 SHORT $LN225@Serialize
$LN112@Serialize:

; 1541 : 	for (pAssoc = m_pHashTable[nHashBucket]; pAssoc != NULL; pAssoc = pAssoc->pNext)

  0034e	8b 0c 81	 mov	 ecx, DWORD PTR [ecx+eax*4]
  00351	85 c9		 test	 ecx, ecx
  00353	74 17		 je	 SHORT $LN225@Serialize
  00355	8b 45 f4	 mov	 eax, DWORD PTR _key$1$[ebp]
$LL111@Serialize:

; 1542 : 	{
; 1543 : 		if (pAssoc->nHashValue == nHashValue && CompareElements(&pAssoc->key, &key))

  00358	39 79 0c	 cmp	 DWORD PTR [ecx+12], edi
  0035b	75 08		 jne	 SHORT $LN109@Serialize

; 156  : 	return *pElement1 == *pElement2;

  0035d	39 01		 cmp	 DWORD PTR [ecx], eax

; 1543 : 		if (pAssoc->nHashValue == nHashValue && CompareElements(&pAssoc->key, &key))

  0035f	0f 84 7a 00 00
	00		 je	 $LN104@Serialize
$LN109@Serialize:

; 1537 : 		return NULL;
; 1538 : 
; 1539 : 	// see if it exists
; 1540 : 	CAssoc* pAssoc;
; 1541 : 	for (pAssoc = m_pHashTable[nHashBucket]; pAssoc != NULL; pAssoc = pAssoc->pNext)

  00365	8b 49 08	 mov	 ecx, DWORD PTR [ecx+8]
  00368	85 c9		 test	 ecx, ecx
  0036a	75 ec		 jne	 SHORT $LL111@Serialize
$LN225@Serialize:

; 1481 : 	if (m_pFreeList == NULL)

  0036c	83 7e 10 00	 cmp	 DWORD PTR [esi+16], 0
  00370	75 34		 jne	 SHORT $LN142@Serialize

; 1482 : 	{
; 1483 : 		// add another block
; 1484 : 		CPlex* newBlock = CPlex::Create(m_pBlocks, m_nBlockSize, sizeof(CMap::CAssoc));

  00372	6a 10		 push	 16			; 00000010H
  00374	ff 76 18	 push	 DWORD PTR [esi+24]
  00377	8d 46 14	 lea	 eax, DWORD PTR [esi+20]
  0037a	50		 push	 eax
  0037b	e8 00 00 00 00	 call	 ?Create@CPlex@@SGPAU1@AAPAU1@II@Z ; CPlex::Create

; 1485 : 		// chain them into free list
; 1486 : 		CMap::CAssoc* pAssoc = (CMap::CAssoc*) newBlock->data();
; 1487 : 		// free in reverse order to make it easier to debug
; 1488 : 		pAssoc += m_nBlockSize - 1;

  00380	8b 56 18	 mov	 edx, DWORD PTR [esi+24]
  00383	83 c0 08	 add	 eax, 8
  00386	8b ca		 mov	 ecx, edx
  00388	c1 e1 04	 shl	 ecx, 4
  0038b	83 c1 f0	 add	 ecx, -16		; fffffff0H
  0038e	03 c8		 add	 ecx, eax

; 1489 : 		for (INT_PTR i = m_nBlockSize-1; i >= 0; i--, pAssoc--)

  00390	83 c2 ff	 add	 edx, -1
  00393	78 11		 js	 SHORT $LN142@Serialize
$LL139@Serialize:

; 1490 : 		{
; 1491 : 			pAssoc->pNext = m_pFreeList;

  00395	8b 46 10	 mov	 eax, DWORD PTR [esi+16]
  00398	89 41 08	 mov	 DWORD PTR [ecx+8], eax

; 1492 : 			m_pFreeList = pAssoc;

  0039b	89 4e 10	 mov	 DWORD PTR [esi+16], ecx
  0039e	83 e9 10	 sub	 ecx, 16			; 00000010H
  003a1	83 ea 01	 sub	 edx, 1
  003a4	79 ef		 jns	 SHORT $LL139@Serialize
$LN142@Serialize:

; 1493 : 		}
; 1494 : 	}
; 1495 : 	ENSURE(m_pFreeList != NULL);  // we must have something

  003a6	8b 4e 10	 mov	 ecx, DWORD PTR [esi+16]
  003a9	85 c9		 test	 ecx, ecx
  003ab	74 4c		 je	 SHORT $LN167@Serialize

; 1496 : 
; 1497 : 	CMap::CAssoc* pAssoc = m_pFreeList;
; 1498 : 
; 1499 : 	// zero the memory
; 1500 : 	CMap::CAssoc* pTemp = pAssoc->pNext;

  003ad	8b 41 08	 mov	 eax, DWORD PTR [ecx+8]
  003b0	0f 57 c0	 xorps	 xmm0, xmm0

; 1602 : 		pAssoc->pNext = m_pHashTable[nHashBucket];

  003b3	8b 55 e0	 mov	 edx, DWORD PTR _nHashBucket$1$[ebp]

; 1501 : 	memset( pAssoc, 0, sizeof(CMap::CAssoc) );

  003b6	0f 11 01	 movups	 XMMWORD PTR [ecx], xmm0

; 1502 : 	pAssoc->pNext = pTemp;

  003b9	89 41 08	 mov	 DWORD PTR [ecx+8], eax

; 1503 : 
; 1504 : 	m_pFreeList = m_pFreeList->pNext;

  003bc	8b 46 10	 mov	 eax, DWORD PTR [esi+16]
  003bf	8b 40 08	 mov	 eax, DWORD PTR [eax+8]

; 1505 : 	m_nCount++;

  003c2	ff 46 0c	 inc	 DWORD PTR [esi+12]
  003c5	89 46 10	 mov	 DWORD PTR [esi+16], eax

; 1256 : 		CPair( ARG_KEY keyval ) : key( keyval )	{}

  003c8	8b 45 f4	 mov	 eax, DWORD PTR _key$1$[ebp]
  003cb	89 01		 mov	 DWORD PTR [ecx], eax

; 1598 : 		pAssoc->nHashValue = nHashValue;

  003cd	89 79 0c	 mov	 DWORD PTR [ecx+12], edi

; 1599 : 		//'pAssoc->value' is a constructed object, nothing more
; 1600 : 
; 1601 : 		// put into hash table
; 1602 : 		pAssoc->pNext = m_pHashTable[nHashBucket];

  003d0	8b 46 04	 mov	 eax, DWORD PTR [esi+4]
  003d3	8b 04 90	 mov	 eax, DWORD PTR [eax+edx*4]
  003d6	89 41 08	 mov	 DWORD PTR [ecx+8], eax

; 1603 : 		m_pHashTable[nHashBucket] = pAssoc;

  003d9	8b 46 04	 mov	 eax, DWORD PTR [esi+4]
  003dc	89 0c 90	 mov	 DWORD PTR [eax+edx*4], ecx
$LN104@Serialize:

; 1350 : 	{ (*this)[key] = newValue; }

  003df	8b 45 e8	 mov	 eax, DWORD PTR _newValue$3[ebp]
  003e2	89 41 04	 mov	 DWORD PTR [ecx+4], eax

; 1780 : 		while (nNewCount--)

  003e5	8b 45 e4	 mov	 eax, DWORD PTR _nNewCount$1$[ebp]
  003e8	85 c0		 test	 eax, eax
  003ea	0f 85 b0 fd ff
	ff		 jne	 $LL8@Serialize
$LN189@Serialize:
  003f0	5f		 pop	 edi

; 1787 : 		}
; 1788 : 	}
; 1789 : }

  003f1	5e		 pop	 esi
  003f2	5b		 pop	 ebx
  003f3	8b e5		 mov	 esp, ebp
  003f5	5d		 pop	 ebp
  003f6	c2 04 00	 ret	 4
$LN167@Serialize:
  003f9	e8 00 00 00 00	 call	 ?AfxThrowInvalidArgException@@YGXXZ ; AfxThrowInvalidArgException
$LN165@Serialize:
  003fe	6a 00		 push	 0
  00400	6a 03		 push	 3
  00402	e8 00 00 00 00	 call	 ?AfxThrowArchiveException@@YGXHPBD@Z ; AfxThrowArchiveException
$LN226@Serialize:
  00407	cc		 int	 3
?Serialize@?$CMap@HHW4CONTROLTYPE@CItemInfo@@AAW412@@@UAEXAAVCArchive@@@Z ENDP ; CMap<int,int,enum CItemInfo::CONTROLTYPE,enum CItemInfo::CONTROLTYPE &>::Serialize
_TEXT	ENDS
; Function compile flags: /Ogtp
; File C:\Program Files (x86)\Microsoft Visual Studio\2019\Community\VC\Tools\MSVC\14.29.30133\atlmfc\include\afxtempl.h
;	COMDAT ??1?$CMap@HHW4CONTROLTYPE@CItemInfo@@AAW412@@@UAE@XZ
_TEXT	SEGMENT
__$EHRec$ = -12						; size = 12
??1?$CMap@HHW4CONTROLTYPE@CItemInfo@@AAW412@@@UAE@XZ PROC ; CMap<int,int,enum CItemInfo::CONTROLTYPE,enum CItemInfo::CONTROLTYPE &>::~CMap<int,int,enum CItemInfo::CONTROLTYPE,enum CItemInfo::CONTROLTYPE &>, COMDAT
; _this$ = ecx

; 1472 : {

  00000	55		 push	 ebp
  00001	8b ec		 mov	 ebp, esp
  00003	6a ff		 push	 -1
  00005	68 00 00 00 00	 push	 __ehhandler$??1?$CMap@HHW4CONTROLTYPE@CItemInfo@@AAW412@@@UAE@XZ
  0000a	64 a1 00 00 00
	00		 mov	 eax, DWORD PTR fs:0
  00010	50		 push	 eax
  00011	56		 push	 esi
  00012	a1 00 00 00 00	 mov	 eax, DWORD PTR ___security_cookie
  00017	33 c5		 xor	 eax, ebp
  00019	50		 push	 eax
  0001a	8d 45 f4	 lea	 eax, DWORD PTR __$EHRec$[ebp]
  0001d	64 a3 00 00 00
	00		 mov	 DWORD PTR fs:0, eax
  00023	8b f1		 mov	 esi, ecx

; 1446 : 	if (m_pHashTable != NULL)

  00025	8b 46 04	 mov	 eax, DWORD PTR [esi+4]

; 1472 : {

  00028	c7 06 00 00 00
	00		 mov	 DWORD PTR [esi], OFFSET ??_7?$CMap@HHW4CONTROLTYPE@CItemInfo@@AAW412@@@6B@

; 1446 : 	if (m_pHashTable != NULL)

  0002e	85 c0		 test	 eax, eax
  00030	74 10		 je	 SHORT $LN10@CMap

; 1447 : 	{
; 1448 : 		// destroy elements (values and keys)
; 1449 : 		for (UINT nHash = 0; nHash < m_nHashTableSize; nHash++)
; 1450 : 		{
; 1451 : 			CAssoc* pAssoc;
; 1452 : 			for (pAssoc = m_pHashTable[nHash]; pAssoc != NULL;
; 1453 : 			  pAssoc = pAssoc->pNext)
; 1454 : 			{
; 1455 : 				pAssoc->CAssoc::~CAssoc();
; 1456 : 			}
; 1457 : 		}
; 1458 : 
; 1459 : 		// free hash table
; 1460 : 		delete[] m_pHashTable;

  00032	50		 push	 eax
  00033	e8 00 00 00 00	 call	 ??_V@YAXPAX@Z		; operator delete[]
  00038	83 c4 04	 add	 esp, 4

; 1461 : 		m_pHashTable = NULL;

  0003b	c7 46 04 00 00
	00 00		 mov	 DWORD PTR [esi+4], 0
$LN10@CMap:

; 1462 : 	}
; 1463 : 
; 1464 : 	m_nCount = 0;
; 1465 : 	m_pFreeList = NULL;
; 1466 : 	m_pBlocks->FreeDataChain();

  00042	8b 4e 14	 mov	 ecx, DWORD PTR [esi+20]
  00045	c7 46 0c 00 00
	00 00		 mov	 DWORD PTR [esi+12], 0
  0004c	c7 46 10 00 00
	00 00		 mov	 DWORD PTR [esi+16], 0
  00053	e8 00 00 00 00	 call	 ?FreeDataChain@CPlex@@QAEXXZ ; CPlex::FreeDataChain

; 1467 : 	m_pBlocks = NULL;

  00058	c7 46 14 00 00
	00 00		 mov	 DWORD PTR [esi+20], 0

; 1473 : 	RemoveAll();
; 1474 : 	ASSERT(m_nCount == 0);
; 1475 : }

  0005f	8b 4d f4	 mov	 ecx, DWORD PTR __$EHRec$[ebp]
  00062	64 89 0d 00 00
	00 00		 mov	 DWORD PTR fs:0, ecx
  00069	59		 pop	 ecx
  0006a	5e		 pop	 esi
  0006b	8b e5		 mov	 esp, ebp
  0006d	5d		 pop	 ebp
  0006e	c3		 ret	 0
  0006f	cc		 int	 3
  00070	cc		 int	 3
  00071	cc		 int	 3
  00072	cc		 int	 3
  00073	cc		 int	 3
_TEXT	ENDS
;	COMDAT text$x
text$x	SEGMENT
__ehhandler$??1?$CMap@HHW4CONTROLTYPE@CItemInfo@@AAW412@@@UAE@XZ:
  00000	90		 npad	 1
  00001	90		 npad	 1
  00002	8b 54 24 08	 mov	 edx, DWORD PTR [esp+8]
  00006	8d 42 0c	 lea	 eax, DWORD PTR [edx+12]
  00009	8b 4a f8	 mov	 ecx, DWORD PTR [edx-8]
  0000c	33 c8		 xor	 ecx, eax
  0000e	e8 00 00 00 00	 call	 @__security_check_cookie@4
  00013	b8 00 00 00 00	 mov	 eax, OFFSET __ehfuncinfo$??1?$CMap@HHW4CONTROLTYPE@CItemInfo@@AAW412@@@UAE@XZ
  00018	e9 00 00 00 00	 jmp	 ___CxxFrameHandler3
text$x	ENDS
??1?$CMap@HHW4CONTROLTYPE@CItemInfo@@AAW412@@@UAE@XZ ENDP ; CMap<int,int,enum CItemInfo::CONTROLTYPE,enum CItemInfo::CONTROLTYPE &>::~CMap<int,int,enum CItemInfo::CONTROLTYPE,enum CItemInfo::CONTROLTYPE &>
; Function compile flags: /Ogtp
; File C:\Program Files (x86)\Microsoft Visual Studio\2019\Community\VC\Tools\MSVC\14.29.30133\atlmfc\include\afxtempl.h
;	COMDAT ?GetAssocAt@?$CMap@HHW4CONTROLTYPE@CItemInfo@@AAW412@@@IBEPAVCAssoc@1@HAAI0@Z
_TEXT	SEGMENT
_key$ = 8						; size = 4
_nHashBucket$ = 12					; size = 4
_nHashValue$ = 16					; size = 4
?GetAssocAt@?$CMap@HHW4CONTROLTYPE@CItemInfo@@AAW412@@@IBEPAVCAssoc@1@HAAI0@Z PROC ; CMap<int,int,enum CItemInfo::CONTROLTYPE,enum CItemInfo::CONTROLTYPE &>::GetAssocAt, COMDAT
; _this$ = ecx

; 1532 : {

  00000	55		 push	 ebp
  00001	8b ec		 mov	 ebp, esp
  00003	56		 push	 esi
  00004	8b f1		 mov	 esi, ecx

; 165  : 	ldiv_t HashVal = ldiv((long)(ARG_KEY)key, 127773);

  00006	b9 1d f3 01 00	 mov	 ecx, 127773		; 0001f31dH

; 1532 : {

  0000b	57		 push	 edi

; 165  : 	ldiv_t HashVal = ldiv((long)(ARG_KEY)key, 127773);

  0000c	8b 7d 08	 mov	 edi, DWORD PTR _key$[ebp]
  0000f	8b c7		 mov	 eax, edi
  00011	99		 cdq
  00012	f7 f9		 idiv	 ecx

; 166  : 	HashVal.rem = 16807 * HashVal.rem - 2836 * HashVal.quot;

  00014	69 c0 14 0b 00
	00		 imul	 eax, eax, 2836
  0001a	69 ca a7 41 00
	00		 imul	 ecx, edx, 16807
  00020	2b c8		 sub	 ecx, eax

; 1533 : 	nHashValue = HashKey<ARG_KEY>(key);

  00022	8d 81 ff ff ff
	7f		 lea	 eax, DWORD PTR [ecx+2147483647]
  00028	0f 49 c1	 cmovns	 eax, ecx
  0002b	8b 4d 10	 mov	 ecx, DWORD PTR _nHashValue$[ebp]

; 1534 : 	nHashBucket = nHashValue % m_nHashTableSize;

  0002e	33 d2		 xor	 edx, edx
  00030	89 01		 mov	 DWORD PTR [ecx], eax
  00032	f7 76 08	 div	 DWORD PTR [esi+8]
  00035	8b 45 0c	 mov	 eax, DWORD PTR _nHashBucket$[ebp]
  00038	89 10		 mov	 DWORD PTR [eax], edx

; 1535 : 
; 1536 : 	if (m_pHashTable == NULL)

  0003a	8b 46 04	 mov	 eax, DWORD PTR [esi+4]
  0003d	85 c0		 test	 eax, eax
  0003f	74 1f		 je	 SHORT $LN26@GetAssocAt

; 1537 : 		return NULL;
; 1538 : 
; 1539 : 	// see if it exists
; 1540 : 	CAssoc* pAssoc;
; 1541 : 	for (pAssoc = m_pHashTable[nHashBucket]; pAssoc != NULL; pAssoc = pAssoc->pNext)

  00041	8b 04 90	 mov	 eax, DWORD PTR [eax+edx*4]
  00044	85 c0		 test	 eax, eax
  00046	74 18		 je	 SHORT $LN26@GetAssocAt

; 1542 : 	{
; 1543 : 		if (pAssoc->nHashValue == nHashValue && CompareElements(&pAssoc->key, &key))

  00048	8b 09		 mov	 ecx, DWORD PTR [ecx]
  0004a	66 0f 1f 44 00
	00		 npad	 6
$LL4@GetAssocAt:
  00050	39 48 0c	 cmp	 DWORD PTR [eax+12], ecx
  00053	75 04		 jne	 SHORT $LN2@GetAssocAt

; 156  : 	return *pElement1 == *pElement2;

  00055	39 38		 cmp	 DWORD PTR [eax], edi

; 1542 : 	{
; 1543 : 		if (pAssoc->nHashValue == nHashValue && CompareElements(&pAssoc->key, &key))

  00057	74 09		 je	 SHORT $LN1@GetAssocAt
$LN2@GetAssocAt:

; 1537 : 		return NULL;
; 1538 : 
; 1539 : 	// see if it exists
; 1540 : 	CAssoc* pAssoc;
; 1541 : 	for (pAssoc = m_pHashTable[nHashBucket]; pAssoc != NULL; pAssoc = pAssoc->pNext)

  00059	8b 40 08	 mov	 eax, DWORD PTR [eax+8]
  0005c	85 c0		 test	 eax, eax
  0005e	75 f0		 jne	 SHORT $LL4@GetAssocAt
$LN26@GetAssocAt:

; 1544 : 			return pAssoc;
; 1545 : 	}
; 1546 : 	return NULL;

  00060	33 c0		 xor	 eax, eax
$LN1@GetAssocAt:
  00062	5f		 pop	 edi

; 1547 : }

  00063	5e		 pop	 esi
  00064	5d		 pop	 ebp
  00065	c2 0c 00	 ret	 12			; 0000000cH
?GetAssocAt@?$CMap@HHW4CONTROLTYPE@CItemInfo@@AAW412@@@IBEPAVCAssoc@1@HAAI0@Z ENDP ; CMap<int,int,enum CItemInfo::CONTROLTYPE,enum CItemInfo::CONTROLTYPE &>::GetAssocAt
_TEXT	ENDS
; Function compile flags: /Ogtp
; File C:\Program Files (x86)\Microsoft Visual Studio\2019\Community\VC\Tools\MSVC\14.29.30133\atlmfc\include\afxtempl.h
;	COMDAT ?NewAssoc@?$CMap@HHW4CONTROLTYPE@CItemInfo@@AAW412@@@IAEPAVCAssoc@1@H@Z
_TEXT	SEGMENT
_key$ = 8						; size = 4
?NewAssoc@?$CMap@HHW4CONTROLTYPE@CItemInfo@@AAW412@@@IAEPAVCAssoc@1@H@Z PROC ; CMap<int,int,enum CItemInfo::CONTROLTYPE,enum CItemInfo::CONTROLTYPE &>::NewAssoc, COMDAT
; _this$ = ecx

; 1480 : {

  00000	55		 push	 ebp
  00001	8b ec		 mov	 ebp, esp
  00003	56		 push	 esi
  00004	8b f1		 mov	 esi, ecx

; 1481 : 	if (m_pFreeList == NULL)

  00006	83 7e 10 00	 cmp	 DWORD PTR [esi+16], 0
  0000a	75 35		 jne	 SHORT $LN7@NewAssoc

; 1482 : 	{
; 1483 : 		// add another block
; 1484 : 		CPlex* newBlock = CPlex::Create(m_pBlocks, m_nBlockSize, sizeof(CMap::CAssoc));

  0000c	6a 10		 push	 16			; 00000010H
  0000e	ff 76 18	 push	 DWORD PTR [esi+24]
  00011	8d 46 14	 lea	 eax, DWORD PTR [esi+20]
  00014	50		 push	 eax
  00015	e8 00 00 00 00	 call	 ?Create@CPlex@@SGPAU1@AAPAU1@II@Z ; CPlex::Create

; 1485 : 		// chain them into free list
; 1486 : 		CMap::CAssoc* pAssoc = (CMap::CAssoc*) newBlock->data();
; 1487 : 		// free in reverse order to make it easier to debug
; 1488 : 		pAssoc += m_nBlockSize - 1;

  0001a	8b 56 18	 mov	 edx, DWORD PTR [esi+24]
  0001d	83 c0 08	 add	 eax, 8
  00020	8b ca		 mov	 ecx, edx
  00022	c1 e1 04	 shl	 ecx, 4
  00025	83 c1 f0	 add	 ecx, -16		; fffffff0H
  00028	03 c1		 add	 eax, ecx

; 1489 : 		for (INT_PTR i = m_nBlockSize-1; i >= 0; i--, pAssoc--)

  0002a	83 c2 ff	 add	 edx, -1
  0002d	78 12		 js	 SHORT $LN7@NewAssoc
  0002f	90		 npad	 1
$LL4@NewAssoc:

; 1490 : 		{
; 1491 : 			pAssoc->pNext = m_pFreeList;

  00030	8b 4e 10	 mov	 ecx, DWORD PTR [esi+16]
  00033	89 48 08	 mov	 DWORD PTR [eax+8], ecx

; 1492 : 			m_pFreeList = pAssoc;

  00036	89 46 10	 mov	 DWORD PTR [esi+16], eax
  00039	83 e8 10	 sub	 eax, 16			; 00000010H
  0003c	83 ea 01	 sub	 edx, 1
  0003f	79 ef		 jns	 SHORT $LL4@NewAssoc
$LN7@NewAssoc:

; 1493 : 		}
; 1494 : 	}
; 1495 : 	ENSURE(m_pFreeList != NULL);  // we must have something

  00041	8b 46 10	 mov	 eax, DWORD PTR [esi+16]
  00044	85 c0		 test	 eax, eax
  00046	74 22		 je	 SHORT $LN21@NewAssoc

; 1496 : 
; 1497 : 	CMap::CAssoc* pAssoc = m_pFreeList;
; 1498 : 
; 1499 : 	// zero the memory
; 1500 : 	CMap::CAssoc* pTemp = pAssoc->pNext;

  00048	8b 48 08	 mov	 ecx, DWORD PTR [eax+8]
  0004b	0f 57 c0	 xorps	 xmm0, xmm0

; 1501 : 	memset( pAssoc, 0, sizeof(CMap::CAssoc) );

  0004e	0f 11 00	 movups	 XMMWORD PTR [eax], xmm0

; 1502 : 	pAssoc->pNext = pTemp;

  00051	89 48 08	 mov	 DWORD PTR [eax+8], ecx

; 1503 : 
; 1504 : 	m_pFreeList = m_pFreeList->pNext;

  00054	8b 4e 10	 mov	 ecx, DWORD PTR [esi+16]
  00057	8b 49 08	 mov	 ecx, DWORD PTR [ecx+8]

; 1505 : 	m_nCount++;

  0005a	ff 46 0c	 inc	 DWORD PTR [esi+12]
  0005d	89 4e 10	 mov	 DWORD PTR [esi+16], ecx

; 1256 : 		CPair( ARG_KEY keyval ) : key( keyval )	{}

  00060	8b 4d 08	 mov	 ecx, DWORD PTR _key$[ebp]
  00063	89 08		 mov	 DWORD PTR [eax], ecx

; 1506 : 	ASSERT(m_nCount > 0);  // make sure we don't overflow
; 1507 : #pragma push_macro("new")
; 1508 : #undef new
; 1509 : 	::new(pAssoc) CMap::CAssoc(key);
; 1510 : #pragma pop_macro("new")
; 1511 : 	return pAssoc;

  00065	5e		 pop	 esi

; 1512 : }

  00066	5d		 pop	 ebp
  00067	c2 04 00	 ret	 4
$LN21@NewAssoc:

; 1493 : 		}
; 1494 : 	}
; 1495 : 	ENSURE(m_pFreeList != NULL);  // we must have something

  0006a	e8 00 00 00 00	 call	 ?AfxThrowInvalidArgException@@YGXXZ ; AfxThrowInvalidArgException
$LN19@NewAssoc:
  0006f	cc		 int	 3
?NewAssoc@?$CMap@HHW4CONTROLTYPE@CItemInfo@@AAW412@@@IAEPAVCAssoc@1@H@Z ENDP ; CMap<int,int,enum CItemInfo::CONTROLTYPE,enum CItemInfo::CONTROLTYPE &>::NewAssoc
_TEXT	ENDS
; Function compile flags: /Ogtp
; File C:\Program Files (x86)\Microsoft Visual Studio\2019\Community\VC\Tools\MSVC\14.29.30133\atlmfc\include\afxtempl.h
;	COMDAT ?InitHashTable@?$CMap@HHW4CONTROLTYPE@CItemInfo@@AAW412@@@QAEXIH@Z
_TEXT	SEGMENT
_nHashSize$ = 8						; size = 4
_bAllocNow$ = 12					; size = 4
?InitHashTable@?$CMap@HHW4CONTROLTYPE@CItemInfo@@AAW412@@@QAEXIH@Z PROC ; CMap<int,int,enum CItemInfo::CONTROLTYPE,enum CItemInfo::CONTROLTYPE &>::InitHashTable, COMDAT
; _this$ = ecx

; 1420 : {

  00000	55		 push	 ebp
  00001	8b ec		 mov	 ebp, esp
  00003	56		 push	 esi
  00004	8b f1		 mov	 esi, ecx
  00006	57		 push	 edi

; 1421 : 	ASSERT_VALID(this);
; 1422 : 	ASSERT(m_nCount == 0);
; 1423 : 	ASSERT(nHashSize > 0);
; 1424 : 
; 1425 : 	if (m_pHashTable != NULL)

  00007	8b 46 04	 mov	 eax, DWORD PTR [esi+4]
  0000a	85 c0		 test	 eax, eax
  0000c	74 10		 je	 SHORT $LN5@InitHashTa

; 1426 : 	{
; 1427 : 		// free hash table
; 1428 : 		delete[] m_pHashTable;

  0000e	50		 push	 eax
  0000f	e8 00 00 00 00	 call	 ??_V@YAXPAX@Z		; operator delete[]
  00014	83 c4 04	 add	 esp, 4

; 1429 : 		m_pHashTable = NULL;

  00017	c7 46 04 00 00
	00 00		 mov	 DWORD PTR [esi+4], 0
$LN5@InitHashTa:

; 1430 : 	}
; 1431 : 
; 1432 : 	if (bAllocNow)

  0001e	83 7d 0c 00	 cmp	 DWORD PTR _bAllocNow$[ebp], 0
  00022	8b 7d 08	 mov	 edi, DWORD PTR _nHashSize$[ebp]
  00025	74 37		 je	 SHORT $LN6@InitHashTa

; 1433 : 	{
; 1434 : 		m_pHashTable = new CAssoc* [nHashSize];

  00027	33 c9		 xor	 ecx, ecx
  00029	8b c7		 mov	 eax, edi
  0002b	ba 04 00 00 00	 mov	 edx, 4
  00030	f7 e2		 mul	 edx
  00032	0f 90 c1	 seto	 cl
  00035	f7 d9		 neg	 ecx
  00037	0b c8		 or	 ecx, eax
  00039	51		 push	 ecx
  0003a	e8 00 00 00 00	 call	 ??_U@YAPAXI@Z		; operator new[]
  0003f	8b c8		 mov	 ecx, eax
  00041	83 c4 04	 add	 esp, 4
  00044	89 4e 04	 mov	 DWORD PTR [esi+4], ecx

; 1435 : 		ENSURE(m_pHashTable != NULL);

  00047	85 c9		 test	 ecx, ecx
  00049	74 1c		 je	 SHORT $LN11@InitHashTa

; 1436 : 		memset(m_pHashTable, 0, sizeof(CAssoc*) * nHashSize);

  0004b	8d 04 bd 00 00
	00 00		 lea	 eax, DWORD PTR [edi*4]
  00052	50		 push	 eax
  00053	6a 00		 push	 0
  00055	51		 push	 ecx
  00056	e8 00 00 00 00	 call	 _memset
  0005b	83 c4 0c	 add	 esp, 12			; 0000000cH
$LN6@InitHashTa:

; 1437 : 	}
; 1438 : 	m_nHashTableSize = nHashSize;

  0005e	89 7e 08	 mov	 DWORD PTR [esi+8], edi
  00061	5f		 pop	 edi
  00062	5e		 pop	 esi

; 1439 : }

  00063	5d		 pop	 ebp
  00064	c2 08 00	 ret	 8
$LN11@InitHashTa:

; 1435 : 		ENSURE(m_pHashTable != NULL);

  00067	e8 00 00 00 00	 call	 ?AfxThrowInvalidArgException@@YGXXZ ; AfxThrowInvalidArgException
$LN9@InitHashTa:
  0006c	cc		 int	 3
?InitHashTable@?$CMap@HHW4CONTROLTYPE@CItemInfo@@AAW412@@@QAEXIH@Z ENDP ; CMap<int,int,enum CItemInfo::CONTROLTYPE,enum CItemInfo::CONTROLTYPE &>::InitHashTable
_TEXT	ENDS
; Function compile flags: /Ogtp
; File C:\Program Files (x86)\Microsoft Visual Studio\2019\Community\VC\Tools\MSVC\14.29.30133\atlmfc\include\afxtempl.h
;	COMDAT ?RemoveAll@?$CMap@HHW4CONTROLTYPE@CItemInfo@@AAW412@@@QAEXXZ
_TEXT	SEGMENT
?RemoveAll@?$CMap@HHW4CONTROLTYPE@CItemInfo@@AAW412@@@QAEXXZ PROC ; CMap<int,int,enum CItemInfo::CONTROLTYPE,enum CItemInfo::CONTROLTYPE &>::RemoveAll, COMDAT
; _this$ = ecx

; 1443 : {

  00000	56		 push	 esi
  00001	8b f1		 mov	 esi, ecx

; 1444 : 	ASSERT_VALID(this);
; 1445 : 
; 1446 : 	if (m_pHashTable != NULL)

  00003	8b 46 04	 mov	 eax, DWORD PTR [esi+4]
  00006	85 c0		 test	 eax, eax
  00008	74 10		 je	 SHORT $LN8@RemoveAll

; 1447 : 	{
; 1448 : 		// destroy elements (values and keys)
; 1449 : 		for (UINT nHash = 0; nHash < m_nHashTableSize; nHash++)
; 1450 : 		{
; 1451 : 			CAssoc* pAssoc;
; 1452 : 			for (pAssoc = m_pHashTable[nHash]; pAssoc != NULL;
; 1453 : 			  pAssoc = pAssoc->pNext)
; 1454 : 			{
; 1455 : 				pAssoc->CAssoc::~CAssoc();
; 1456 : 			}
; 1457 : 		}
; 1458 : 
; 1459 : 		// free hash table
; 1460 : 		delete[] m_pHashTable;

  0000a	50		 push	 eax
  0000b	e8 00 00 00 00	 call	 ??_V@YAXPAX@Z		; operator delete[]
  00010	83 c4 04	 add	 esp, 4

; 1461 : 		m_pHashTable = NULL;

  00013	c7 46 04 00 00
	00 00		 mov	 DWORD PTR [esi+4], 0
$LN8@RemoveAll:

; 1462 : 	}
; 1463 : 
; 1464 : 	m_nCount = 0;
; 1465 : 	m_pFreeList = NULL;
; 1466 : 	m_pBlocks->FreeDataChain();

  0001a	8b 4e 14	 mov	 ecx, DWORD PTR [esi+20]
  0001d	c7 46 0c 00 00
	00 00		 mov	 DWORD PTR [esi+12], 0
  00024	c7 46 10 00 00
	00 00		 mov	 DWORD PTR [esi+16], 0
  0002b	e8 00 00 00 00	 call	 ?FreeDataChain@CPlex@@QAEXXZ ; CPlex::FreeDataChain

; 1467 : 	m_pBlocks = NULL;

  00030	c7 46 14 00 00
	00 00		 mov	 DWORD PTR [esi+20], 0
  00037	5e		 pop	 esi

; 1468 : }

  00038	c3		 ret	 0
?RemoveAll@?$CMap@HHW4CONTROLTYPE@CItemInfo@@AAW412@@@QAEXXZ ENDP ; CMap<int,int,enum CItemInfo::CONTROLTYPE,enum CItemInfo::CONTROLTYPE &>::RemoveAll
_TEXT	ENDS
; Function compile flags: /Ogtp
; File C:\Program Files (x86)\Microsoft Visual Studio\2019\Community\VC\Tools\MSVC\14.29.30133\atlmfc\include\afxtempl.h
;	COMDAT ?SetAt@?$CMap@HHW4CONTROLTYPE@CItemInfo@@AAW412@@@QAEXHAAW4CONTROLTYPE@CItemInfo@@@Z
_TEXT	SEGMENT
_nHashBucket$1 = -8					; size = 4
_nHashValue$2 = -4					; size = 4
_key$ = 8						; size = 4
_newValue$ = 12						; size = 4
?SetAt@?$CMap@HHW4CONTROLTYPE@CItemInfo@@AAW412@@@QAEXHAAW4CONTROLTYPE@CItemInfo@@@Z PROC ; CMap<int,int,enum CItemInfo::CONTROLTYPE,enum CItemInfo::CONTROLTYPE &>::SetAt, COMDAT
; _this$ = ecx

; 1350 : 	{ (*this)[key] = newValue; }

  00000	55		 push	 ebp
  00001	8b ec		 mov	 ebp, esp
  00003	83 ec 08	 sub	 esp, 8

; 1590 : 	if ((pAssoc = GetAssocAt(key, nHashBucket, nHashValue)) == NULL)

  00006	8d 45 fc	 lea	 eax, DWORD PTR _nHashValue$2[ebp]

; 1350 : 	{ (*this)[key] = newValue; }

  00009	53		 push	 ebx

; 1590 : 	if ((pAssoc = GetAssocAt(key, nHashBucket, nHashValue)) == NULL)

  0000a	8b 5d 08	 mov	 ebx, DWORD PTR _key$[ebp]

; 1350 : 	{ (*this)[key] = newValue; }

  0000d	56		 push	 esi

; 1590 : 	if ((pAssoc = GetAssocAt(key, nHashBucket, nHashValue)) == NULL)

  0000e	50		 push	 eax
  0000f	8d 45 f8	 lea	 eax, DWORD PTR _nHashBucket$1[ebp]

; 1350 : 	{ (*this)[key] = newValue; }

  00012	8b f1		 mov	 esi, ecx

; 1590 : 	if ((pAssoc = GetAssocAt(key, nHashBucket, nHashValue)) == NULL)

  00014	50		 push	 eax
  00015	53		 push	 ebx
  00016	e8 00 00 00 00	 call	 ?GetAssocAt@?$CMap@HHW4CONTROLTYPE@CItemInfo@@AAW412@@@IBEPAVCAssoc@1@HAAI0@Z ; CMap<int,int,enum CItemInfo::CONTROLTYPE,enum CItemInfo::CONTROLTYPE &>::GetAssocAt
  0001b	8b d0		 mov	 edx, eax
  0001d	85 d2		 test	 edx, edx
  0001f	0f 85 cd 00 00
	00		 jne	 $LN7@SetAt

; 1591 : 	{
; 1592 : 		if (m_pHashTable == NULL)

  00025	8b 46 04	 mov	 eax, DWORD PTR [esi+4]
  00028	85 c0		 test	 eax, eax
  0002a	75 4c		 jne	 SHORT $LN42@SetAt

; 1593 : 			InitHashTable(m_nHashTableSize);

  0002c	57		 push	 edi
  0002d	8b 7e 08	 mov	 edi, DWORD PTR [esi+8]

; 1434 : 		m_pHashTable = new CAssoc* [nHashSize];

  00030	33 c9		 xor	 ecx, ecx
  00032	8b c7		 mov	 eax, edi
  00034	ba 04 00 00 00	 mov	 edx, 4
  00039	f7 e2		 mul	 edx
  0003b	0f 90 c1	 seto	 cl
  0003e	f7 d9		 neg	 ecx
  00040	0b c8		 or	 ecx, eax
  00042	51		 push	 ecx
  00043	e8 00 00 00 00	 call	 ??_U@YAPAXI@Z		; operator new[]
  00048	83 c4 04	 add	 esp, 4
  0004b	89 46 04	 mov	 DWORD PTR [esi+4], eax

; 1435 : 		ENSURE(m_pHashTable != NULL);

  0004e	85 c0		 test	 eax, eax
  00050	0f 84 ac 00 00
	00		 je	 $LN39@SetAt

; 1436 : 		memset(m_pHashTable, 0, sizeof(CAssoc*) * nHashSize);

  00056	8d 0c bd 00 00
	00 00		 lea	 ecx, DWORD PTR [edi*4]
  0005d	51		 push	 ecx
  0005e	6a 00		 push	 0
  00060	50		 push	 eax
  00061	e8 00 00 00 00	 call	 _memset

; 1437 : 	}
; 1438 : 	m_nHashTableSize = nHashSize;

  00066	8b 46 04	 mov	 eax, DWORD PTR [esi+4]
  00069	83 c4 0c	 add	 esp, 12			; 0000000cH
  0006c	89 7e 08	 mov	 DWORD PTR [esi+8], edi
  0006f	5f		 pop	 edi

; 1595 : 		ENSURE(m_pHashTable);

  00070	85 c0		 test	 eax, eax
  00072	0f 84 8a 00 00
	00		 je	 $LN39@SetAt
$LN42@SetAt:

; 1481 : 	if (m_pFreeList == NULL)

  00078	83 7e 10 00	 cmp	 DWORD PTR [esi+16], 0
  0007c	75 34		 jne	 SHORT $LN26@SetAt

; 1482 : 	{
; 1483 : 		// add another block
; 1484 : 		CPlex* newBlock = CPlex::Create(m_pBlocks, m_nBlockSize, sizeof(CMap::CAssoc));

  0007e	6a 10		 push	 16			; 00000010H
  00080	ff 76 18	 push	 DWORD PTR [esi+24]
  00083	8d 46 14	 lea	 eax, DWORD PTR [esi+20]
  00086	50		 push	 eax
  00087	e8 00 00 00 00	 call	 ?Create@CPlex@@SGPAU1@AAPAU1@II@Z ; CPlex::Create

; 1485 : 		// chain them into free list
; 1486 : 		CMap::CAssoc* pAssoc = (CMap::CAssoc*) newBlock->data();
; 1487 : 		// free in reverse order to make it easier to debug
; 1488 : 		pAssoc += m_nBlockSize - 1;

  0008c	8b 56 18	 mov	 edx, DWORD PTR [esi+24]
  0008f	83 c0 08	 add	 eax, 8
  00092	8b ca		 mov	 ecx, edx
  00094	c1 e1 04	 shl	 ecx, 4
  00097	83 c1 f0	 add	 ecx, -16		; fffffff0H
  0009a	03 c8		 add	 ecx, eax

; 1489 : 		for (INT_PTR i = m_nBlockSize-1; i >= 0; i--, pAssoc--)

  0009c	83 c2 ff	 add	 edx, -1
  0009f	78 11		 js	 SHORT $LN26@SetAt
$LL23@SetAt:

; 1490 : 		{
; 1491 : 			pAssoc->pNext = m_pFreeList;

  000a1	8b 46 10	 mov	 eax, DWORD PTR [esi+16]
  000a4	89 41 08	 mov	 DWORD PTR [ecx+8], eax

; 1492 : 			m_pFreeList = pAssoc;

  000a7	89 4e 10	 mov	 DWORD PTR [esi+16], ecx
  000aa	83 e9 10	 sub	 ecx, 16			; 00000010H
  000ad	83 ea 01	 sub	 edx, 1
  000b0	79 ef		 jns	 SHORT $LL23@SetAt
$LN26@SetAt:

; 1493 : 		}
; 1494 : 	}
; 1495 : 	ENSURE(m_pFreeList != NULL);  // we must have something

  000b2	8b 56 10	 mov	 edx, DWORD PTR [esi+16]
  000b5	85 d2		 test	 edx, edx
  000b7	74 49		 je	 SHORT $LN39@SetAt

; 1496 : 
; 1497 : 	CMap::CAssoc* pAssoc = m_pFreeList;
; 1498 : 
; 1499 : 	// zero the memory
; 1500 : 	CMap::CAssoc* pTemp = pAssoc->pNext;

  000b9	8b 42 08	 mov	 eax, DWORD PTR [edx+8]
  000bc	0f 57 c0	 xorps	 xmm0, xmm0

; 1501 : 	memset( pAssoc, 0, sizeof(CMap::CAssoc) );

  000bf	0f 11 02	 movups	 XMMWORD PTR [edx], xmm0

; 1502 : 	pAssoc->pNext = pTemp;

  000c2	89 42 08	 mov	 DWORD PTR [edx+8], eax

; 1503 : 
; 1504 : 	m_pFreeList = m_pFreeList->pNext;

  000c5	8b 46 10	 mov	 eax, DWORD PTR [esi+16]
  000c8	8b 40 08	 mov	 eax, DWORD PTR [eax+8]

; 1505 : 	m_nCount++;

  000cb	ff 46 0c	 inc	 DWORD PTR [esi+12]
  000ce	89 46 10	 mov	 DWORD PTR [esi+16], eax

; 1598 : 		pAssoc->nHashValue = nHashValue;

  000d1	8b 45 fc	 mov	 eax, DWORD PTR _nHashValue$2[ebp]
  000d4	89 42 0c	 mov	 DWORD PTR [edx+12], eax

; 1599 : 		//'pAssoc->value' is a constructed object, nothing more
; 1600 : 
; 1601 : 		// put into hash table
; 1602 : 		pAssoc->pNext = m_pHashTable[nHashBucket];

  000d7	8b 45 f8	 mov	 eax, DWORD PTR _nHashBucket$1[ebp]

; 1256 : 		CPair( ARG_KEY keyval ) : key( keyval )	{}

  000da	89 1a		 mov	 DWORD PTR [edx], ebx

; 1602 : 		pAssoc->pNext = m_pHashTable[nHashBucket];

  000dc	8d 0c 85 00 00
	00 00		 lea	 ecx, DWORD PTR [eax*4]
  000e3	8b 46 04	 mov	 eax, DWORD PTR [esi+4]
  000e6	8b 04 01	 mov	 eax, DWORD PTR [ecx+eax]
  000e9	89 42 08	 mov	 DWORD PTR [edx+8], eax

; 1603 : 		m_pHashTable[nHashBucket] = pAssoc;

  000ec	8b 46 04	 mov	 eax, DWORD PTR [esi+4]
  000ef	89 14 01	 mov	 DWORD PTR [ecx+eax], edx
$LN7@SetAt:

; 1350 : 	{ (*this)[key] = newValue; }

  000f2	8b 45 0c	 mov	 eax, DWORD PTR _newValue$[ebp]
  000f5	5e		 pop	 esi
  000f6	5b		 pop	 ebx
  000f7	8b 00		 mov	 eax, DWORD PTR [eax]
  000f9	89 42 04	 mov	 DWORD PTR [edx+4], eax
  000fc	8b e5		 mov	 esp, ebp
  000fe	5d		 pop	 ebp
  000ff	c2 08 00	 ret	 8
$LN39@SetAt:

; 1495 : 	ENSURE(m_pFreeList != NULL);  // we must have something

  00102	e8 00 00 00 00	 call	 ?AfxThrowInvalidArgException@@YGXXZ ; AfxThrowInvalidArgException
$LN40@SetAt:
  00107	cc		 int	 3
?SetAt@?$CMap@HHW4CONTROLTYPE@CItemInfo@@AAW412@@@QAEXHAAW4CONTROLTYPE@CItemInfo@@@Z ENDP ; CMap<int,int,enum CItemInfo::CONTROLTYPE,enum CItemInfo::CONTROLTYPE &>::SetAt
_TEXT	ENDS
; Function compile flags: /Ogtp
; File C:\Program Files (x86)\Microsoft Visual Studio\2019\Community\VC\Tools\MSVC\14.29.30133\atlmfc\include\afxtempl.h
;	COMDAT ??A?$CMap@HHW4CONTROLTYPE@CItemInfo@@AAW412@@@QAEAAW4CONTROLTYPE@CItemInfo@@H@Z
_TEXT	SEGMENT
_nHashBucket$ = -8					; size = 4
_nHashValue$ = -4					; size = 4
_key$ = 8						; size = 4
??A?$CMap@HHW4CONTROLTYPE@CItemInfo@@AAW412@@@QAEAAW4CONTROLTYPE@CItemInfo@@H@Z PROC ; CMap<int,int,enum CItemInfo::CONTROLTYPE,enum CItemInfo::CONTROLTYPE &>::operator[], COMDAT
; _this$ = ecx

; 1585 : {

  00000	55		 push	 ebp
  00001	8b ec		 mov	 ebp, esp
  00003	83 ec 08	 sub	 esp, 8

; 1586 : 	ASSERT_VALID(this);
; 1587 : 
; 1588 : 	UINT nHashBucket, nHashValue;
; 1589 : 	CAssoc* pAssoc;
; 1590 : 	if ((pAssoc = GetAssocAt(key, nHashBucket, nHashValue)) == NULL)

  00006	8d 45 fc	 lea	 eax, DWORD PTR _nHashValue$[ebp]
  00009	53		 push	 ebx
  0000a	8b 5d 08	 mov	 ebx, DWORD PTR _key$[ebp]
  0000d	56		 push	 esi
  0000e	50		 push	 eax
  0000f	8d 45 f8	 lea	 eax, DWORD PTR _nHashBucket$[ebp]
  00012	8b f1		 mov	 esi, ecx
  00014	50		 push	 eax
  00015	53		 push	 ebx
  00016	e8 00 00 00 00	 call	 ?GetAssocAt@?$CMap@HHW4CONTROLTYPE@CItemInfo@@AAW412@@@IBEPAVCAssoc@1@HAAI0@Z ; CMap<int,int,enum CItemInfo::CONTROLTYPE,enum CItemInfo::CONTROLTYPE &>::GetAssocAt
  0001b	8b d0		 mov	 edx, eax
  0001d	85 d2		 test	 edx, edx
  0001f	0f 85 cd 00 00
	00		 jne	 $LN5@operator

; 1591 : 	{
; 1592 : 		if (m_pHashTable == NULL)

  00025	8b 46 04	 mov	 eax, DWORD PTR [esi+4]
  00028	85 c0		 test	 eax, eax
  0002a	75 4c		 jne	 SHORT $LN39@operator

; 1593 : 			InitHashTable(m_nHashTableSize);

  0002c	57		 push	 edi
  0002d	8b 7e 08	 mov	 edi, DWORD PTR [esi+8]

; 1434 : 		m_pHashTable = new CAssoc* [nHashSize];

  00030	33 c9		 xor	 ecx, ecx
  00032	8b c7		 mov	 eax, edi
  00034	ba 04 00 00 00	 mov	 edx, 4
  00039	f7 e2		 mul	 edx
  0003b	0f 90 c1	 seto	 cl
  0003e	f7 d9		 neg	 ecx
  00040	0b c8		 or	 ecx, eax
  00042	51		 push	 ecx
  00043	e8 00 00 00 00	 call	 ??_U@YAPAXI@Z		; operator new[]
  00048	83 c4 04	 add	 esp, 4
  0004b	89 46 04	 mov	 DWORD PTR [esi+4], eax

; 1435 : 		ENSURE(m_pHashTable != NULL);

  0004e	85 c0		 test	 eax, eax
  00050	0f 84 a7 00 00
	00		 je	 $LN36@operator

; 1436 : 		memset(m_pHashTable, 0, sizeof(CAssoc*) * nHashSize);

  00056	8d 0c bd 00 00
	00 00		 lea	 ecx, DWORD PTR [edi*4]
  0005d	51		 push	 ecx
  0005e	6a 00		 push	 0
  00060	50		 push	 eax
  00061	e8 00 00 00 00	 call	 _memset

; 1437 : 	}
; 1438 : 	m_nHashTableSize = nHashSize;

  00066	8b 46 04	 mov	 eax, DWORD PTR [esi+4]
  00069	83 c4 0c	 add	 esp, 12			; 0000000cH
  0006c	89 7e 08	 mov	 DWORD PTR [esi+8], edi
  0006f	5f		 pop	 edi

; 1594 : 
; 1595 : 		ENSURE(m_pHashTable);

  00070	85 c0		 test	 eax, eax
  00072	0f 84 85 00 00
	00		 je	 $LN36@operator
$LN39@operator:

; 1481 : 	if (m_pFreeList == NULL)

  00078	83 7e 10 00	 cmp	 DWORD PTR [esi+16], 0
  0007c	75 34		 jne	 SHORT $LN24@operator

; 1482 : 	{
; 1483 : 		// add another block
; 1484 : 		CPlex* newBlock = CPlex::Create(m_pBlocks, m_nBlockSize, sizeof(CMap::CAssoc));

  0007e	6a 10		 push	 16			; 00000010H
  00080	ff 76 18	 push	 DWORD PTR [esi+24]
  00083	8d 46 14	 lea	 eax, DWORD PTR [esi+20]
  00086	50		 push	 eax
  00087	e8 00 00 00 00	 call	 ?Create@CPlex@@SGPAU1@AAPAU1@II@Z ; CPlex::Create

; 1485 : 		// chain them into free list
; 1486 : 		CMap::CAssoc* pAssoc = (CMap::CAssoc*) newBlock->data();
; 1487 : 		// free in reverse order to make it easier to debug
; 1488 : 		pAssoc += m_nBlockSize - 1;

  0008c	8b 56 18	 mov	 edx, DWORD PTR [esi+24]
  0008f	83 c0 08	 add	 eax, 8
  00092	8b ca		 mov	 ecx, edx
  00094	c1 e1 04	 shl	 ecx, 4
  00097	83 c1 f0	 add	 ecx, -16		; fffffff0H
  0009a	03 c8		 add	 ecx, eax

; 1489 : 		for (INT_PTR i = m_nBlockSize-1; i >= 0; i--, pAssoc--)

  0009c	83 c2 ff	 add	 edx, -1
  0009f	78 11		 js	 SHORT $LN24@operator
$LL21@operator:

; 1490 : 		{
; 1491 : 			pAssoc->pNext = m_pFreeList;

  000a1	8b 46 10	 mov	 eax, DWORD PTR [esi+16]
  000a4	89 41 08	 mov	 DWORD PTR [ecx+8], eax

; 1492 : 			m_pFreeList = pAssoc;

  000a7	89 4e 10	 mov	 DWORD PTR [esi+16], ecx
  000aa	83 e9 10	 sub	 ecx, 16			; 00000010H
  000ad	83 ea 01	 sub	 edx, 1
  000b0	79 ef		 jns	 SHORT $LL21@operator
$LN24@operator:

; 1493 : 		}
; 1494 : 	}
; 1495 : 	ENSURE(m_pFreeList != NULL);  // we must have something

  000b2	8b 56 10	 mov	 edx, DWORD PTR [esi+16]
  000b5	85 d2		 test	 edx, edx
  000b7	74 44		 je	 SHORT $LN36@operator

; 1496 : 
; 1497 : 	CMap::CAssoc* pAssoc = m_pFreeList;
; 1498 : 
; 1499 : 	// zero the memory
; 1500 : 	CMap::CAssoc* pTemp = pAssoc->pNext;

  000b9	8b 42 08	 mov	 eax, DWORD PTR [edx+8]
  000bc	0f 57 c0	 xorps	 xmm0, xmm0

; 1501 : 	memset( pAssoc, 0, sizeof(CMap::CAssoc) );

  000bf	0f 11 02	 movups	 XMMWORD PTR [edx], xmm0

; 1502 : 	pAssoc->pNext = pTemp;

  000c2	89 42 08	 mov	 DWORD PTR [edx+8], eax

; 1503 : 
; 1504 : 	m_pFreeList = m_pFreeList->pNext;

  000c5	8b 46 10	 mov	 eax, DWORD PTR [esi+16]
  000c8	8b 40 08	 mov	 eax, DWORD PTR [eax+8]

; 1505 : 	m_nCount++;

  000cb	ff 46 0c	 inc	 DWORD PTR [esi+12]
  000ce	89 46 10	 mov	 DWORD PTR [esi+16], eax

; 1596 : 		// it doesn't exist, add a new Association
; 1597 : 		pAssoc = NewAssoc(key);
; 1598 : 		pAssoc->nHashValue = nHashValue;

  000d1	8b 45 fc	 mov	 eax, DWORD PTR _nHashValue$[ebp]
  000d4	89 42 0c	 mov	 DWORD PTR [edx+12], eax

; 1599 : 		//'pAssoc->value' is a constructed object, nothing more
; 1600 : 
; 1601 : 		// put into hash table
; 1602 : 		pAssoc->pNext = m_pHashTable[nHashBucket];

  000d7	8b 45 f8	 mov	 eax, DWORD PTR _nHashBucket$[ebp]

; 1256 : 		CPair( ARG_KEY keyval ) : key( keyval )	{}

  000da	89 1a		 mov	 DWORD PTR [edx], ebx

; 1599 : 		//'pAssoc->value' is a constructed object, nothing more
; 1600 : 
; 1601 : 		// put into hash table
; 1602 : 		pAssoc->pNext = m_pHashTable[nHashBucket];

  000dc	8d 0c 85 00 00
	00 00		 lea	 ecx, DWORD PTR [eax*4]
  000e3	8b 46 04	 mov	 eax, DWORD PTR [esi+4]
  000e6	8b 04 01	 mov	 eax, DWORD PTR [ecx+eax]
  000e9	89 42 08	 mov	 DWORD PTR [edx+8], eax

; 1603 : 		m_pHashTable[nHashBucket] = pAssoc;

  000ec	8b 46 04	 mov	 eax, DWORD PTR [esi+4]
  000ef	89 14 01	 mov	 DWORD PTR [ecx+eax], edx
$LN5@operator:

; 1604 : 	}
; 1605 : 	return pAssoc->value;  // return new reference

  000f2	5e		 pop	 esi
  000f3	8d 42 04	 lea	 eax, DWORD PTR [edx+4]
  000f6	5b		 pop	 ebx

; 1606 : }

  000f7	8b e5		 mov	 esp, ebp
  000f9	5d		 pop	 ebp
  000fa	c2 04 00	 ret	 4
$LN36@operator:

; 1495 : 	ENSURE(m_pFreeList != NULL);  // we must have something

  000fd	e8 00 00 00 00	 call	 ?AfxThrowInvalidArgException@@YGXXZ ; AfxThrowInvalidArgException
$LN37@operator:
  00102	cc		 int	 3
??A?$CMap@HHW4CONTROLTYPE@CItemInfo@@AAW412@@@QAEAAW4CONTROLTYPE@CItemInfo@@H@Z ENDP ; CMap<int,int,enum CItemInfo::CONTROLTYPE,enum CItemInfo::CONTROLTYPE &>::operator[]
_TEXT	ENDS
; Function compile flags: /Ogtp
; File C:\Program Files (x86)\Microsoft Visual Studio\2019\Community\VC\Tools\MSVC\14.29.30133\atlmfc\include\afxtempl.h
;	COMDAT ?Lookup@?$CMap@HHW4CONTROLTYPE@CItemInfo@@AAW412@@@QBEHHAAW4CONTROLTYPE@CItemInfo@@@Z
_TEXT	SEGMENT
_nHashBucket$ = -8					; size = 4
_nHashValue$ = -4					; size = 4
_key$ = 8						; size = 4
_rValue$ = 12						; size = 4
?Lookup@?$CMap@HHW4CONTROLTYPE@CItemInfo@@AAW412@@@QBEHHAAW4CONTROLTYPE@CItemInfo@@@Z PROC ; CMap<int,int,enum CItemInfo::CONTROLTYPE,enum CItemInfo::CONTROLTYPE &>::Lookup, COMDAT
; _this$ = ecx

; 1551 : {

  00000	55		 push	 ebp
  00001	8b ec		 mov	 ebp, esp
  00003	83 ec 08	 sub	 esp, 8

; 1552 : 	ASSERT_VALID(this);
; 1553 : 
; 1554 : 	UINT nHashBucket, nHashValue;
; 1555 : 	CAssoc* pAssoc = GetAssocAt(key, nHashBucket, nHashValue);

  00006	8d 45 fc	 lea	 eax, DWORD PTR _nHashValue$[ebp]
  00009	50		 push	 eax
  0000a	8d 45 f8	 lea	 eax, DWORD PTR _nHashBucket$[ebp]
  0000d	50		 push	 eax
  0000e	ff 75 08	 push	 DWORD PTR _key$[ebp]
  00011	e8 00 00 00 00	 call	 ?GetAssocAt@?$CMap@HHW4CONTROLTYPE@CItemInfo@@AAW412@@@IBEPAVCAssoc@1@HAAI0@Z ; CMap<int,int,enum CItemInfo::CONTROLTYPE,enum CItemInfo::CONTROLTYPE &>::GetAssocAt

; 1556 : 	if (pAssoc == NULL)

  00016	85 c0		 test	 eax, eax
  00018	75 06		 jne	 SHORT $LN2@Lookup

; 1561 : }

  0001a	8b e5		 mov	 esp, ebp
  0001c	5d		 pop	 ebp
  0001d	c2 08 00	 ret	 8
$LN2@Lookup:

; 1557 : 		return FALSE;  // not in map
; 1558 : 
; 1559 : 	rValue = pAssoc->value;

  00020	8b 48 04	 mov	 ecx, DWORD PTR [eax+4]
  00023	8b 45 0c	 mov	 eax, DWORD PTR _rValue$[ebp]
  00026	89 08		 mov	 DWORD PTR [eax], ecx

; 1560 : 	return TRUE;

  00028	b8 01 00 00 00	 mov	 eax, 1

; 1561 : }

  0002d	8b e5		 mov	 esp, ebp
  0002f	5d		 pop	 ebp
  00030	c2 08 00	 ret	 8
?Lookup@?$CMap@HHW4CONTROLTYPE@CItemInfo@@AAW412@@@QBEHHAAW4CONTROLTYPE@CItemInfo@@@Z ENDP ; CMap<int,int,enum CItemInfo::CONTROLTYPE,enum CItemInfo::CONTROLTYPE &>::Lookup
_TEXT	ENDS
; Function compile flags: /Ogtp
; File C:\Program Files (x86)\Microsoft Visual Studio\2019\Community\VC\Tools\MSVC\14.29.30133\atlmfc\include\afxtempl.h
;	COMDAT ??0?$CMap@HHW4CONTROLTYPE@CItemInfo@@AAW412@@@QAE@H@Z
_TEXT	SEGMENT
_nBlockSize$ = 8					; size = 4
??0?$CMap@HHW4CONTROLTYPE@CItemInfo@@AAW412@@@QAE@H@Z PROC ; CMap<int,int,enum CItemInfo::CONTROLTYPE,enum CItemInfo::CONTROLTYPE &>::CMap<int,int,enum CItemInfo::CONTROLTYPE,enum CItemInfo::CONTROLTYPE &>, COMDAT
; _this$ = ecx

; 1403 : {

  00000	55		 push	 ebp
  00001	8b ec		 mov	 ebp, esp

; 1404 : 	ASSERT(nBlockSize > 0);
; 1405 : 
; 1406 : 	m_pHashTable = NULL;
; 1407 : 	m_nHashTableSize = 17;  // default size
; 1408 : 	m_nCount = 0;
; 1409 : 	m_pFreeList = NULL;
; 1410 : 	m_pBlocks = NULL;
; 1411 : 	m_nBlockSize = nBlockSize;

  00003	8b 45 08	 mov	 eax, DWORD PTR _nBlockSize$[ebp]
  00006	89 41 18	 mov	 DWORD PTR [ecx+24], eax

; 1412 : }

  00009	8b c1		 mov	 eax, ecx
  0000b	c7 01 00 00 00
	00		 mov	 DWORD PTR [ecx], OFFSET ??_7?$CMap@HHW4CONTROLTYPE@CItemInfo@@AAW412@@@6B@
  00011	c7 41 04 00 00
	00 00		 mov	 DWORD PTR [ecx+4], 0
  00018	c7 41 08 11 00
	00 00		 mov	 DWORD PTR [ecx+8], 17	; 00000011H
  0001f	c7 41 0c 00 00
	00 00		 mov	 DWORD PTR [ecx+12], 0
  00026	c7 41 10 00 00
	00 00		 mov	 DWORD PTR [ecx+16], 0
  0002d	c7 41 14 00 00
	00 00		 mov	 DWORD PTR [ecx+20], 0
  00034	5d		 pop	 ebp
  00035	c2 04 00	 ret	 4
??0?$CMap@HHW4CONTROLTYPE@CItemInfo@@AAW412@@@QAE@H@Z ENDP ; CMap<int,int,enum CItemInfo::CONTROLTYPE,enum CItemInfo::CONTROLTYPE &>::CMap<int,int,enum CItemInfo::CONTROLTYPE,enum CItemInfo::CONTROLTYPE &>
_TEXT	ENDS
; Function compile flags: /Ogtp
; File D:\git\src\IBK\IBK_DRFN\ProjSrc\SrcChartEx\ChartAddIn\ChartDesignPropertyAddIn\ChartDesignPropertyAddIn\SuperGridCtrl.h
; File C:\Program Files (x86)\Microsoft Visual Studio\2019\Community\VC\Tools\MSVC\14.29.30133\atlmfc\include\afxtempl.h
; File D:\git\src\IBK\IBK_DRFN\ProjSrc\SrcChartEx\ChartAddIn\ChartDesignPropertyAddIn\ChartDesignPropertyAddIn\SuperGridCtrl.h
; File C:\Program Files (x86)\Microsoft Visual Studio\2019\Community\VC\Tools\MSVC\14.29.30133\atlmfc\include\afxtempl.h
; File D:\git\src\IBK\IBK_DRFN\ProjSrc\SrcChartEx\ChartAddIn\ChartDesignPropertyAddIn\ChartDesignPropertyAddIn\SuperGridCtrl.h
; File C:\Program Files (x86)\Microsoft Visual Studio\2019\Community\VC\Tools\MSVC\14.29.30133\atlmfc\include\afxtempl.h
; File D:\git\src\IBK\IBK_DRFN\ProjSrc\SrcChartEx\ChartAddIn\ChartDesignPropertyAddIn\ChartDesignPropertyAddIn\SuperGridCtrl.h
; File C:\Program Files (x86)\Microsoft Visual Studio\2019\Community\VC\Tools\MSVC\14.29.30133\atlmfc\include\afxtempl.h
; File D:\git\src\IBK\IBK_DRFN\ProjSrc\SrcChartEx\ChartAddIn\ChartDesignPropertyAddIn\ChartDesignPropertyAddIn\SuperGridCtrl.h
; File C:\Program Files (x86)\Microsoft Visual Studio\2019\Community\VC\Tools\MSVC\14.29.30133\atlmfc\include\afxtempl.h
; File D:\git\src\IBK\IBK_DRFN\ProjSrc\SrcChartEx\ChartAddIn\ChartDesignPropertyAddIn\ChartDesignPropertyAddIn\SuperGridCtrl.h
; File C:\Program Files (x86)\Microsoft Visual Studio\2019\Community\VC\Tools\MSVC\14.29.30133\atlmfc\include\afxtempl.h
; File D:\git\src\IBK\IBK_DRFN\ProjSrc\SrcChartEx\ChartAddIn\ChartDesignPropertyAddIn\ChartDesignPropertyAddIn\SuperGridCtrl.h
; File C:\Program Files (x86)\Microsoft Visual Studio\2019\Community\VC\Tools\MSVC\14.29.30133\atlmfc\include\afxtempl.h
; File D:\git\src\IBK\IBK_DRFN\ProjSrc\SrcChartEx\ChartAddIn\ChartDesignPropertyAddIn\ChartDesignPropertyAddIn\SuperGridCtrl.h
;	COMDAT ??1CItemInfo@@UAE@XZ
_TEXT	SEGMENT
__$EHRec$ = -12						; size = 12
??1CItemInfo@@UAE@XZ PROC				; CItemInfo::~CItemInfo, COMDAT
; _this$ = ecx

; 121  : 	{

  00000	55		 push	 ebp
  00001	8b ec		 mov	 ebp, esp
  00003	6a ff		 push	 -1
  00005	68 00 00 00 00	 push	 __ehhandler$??1CItemInfo@@UAE@XZ
  0000a	64 a1 00 00 00
	00		 mov	 eax, DWORD PTR fs:0
  00010	50		 push	 eax
  00011	53		 push	 ebx
  00012	56		 push	 esi
  00013	57		 push	 edi
  00014	a1 00 00 00 00	 mov	 eax, DWORD PTR ___security_cookie
  00019	33 c5		 xor	 eax, ebp
  0001b	50		 push	 eax
  0001c	8d 45 f4	 lea	 eax, DWORD PTR __$EHRec$[ebp]
  0001f	64 a3 00 00 00
	00		 mov	 DWORD PTR fs:0, eax
  00025	8b d9		 mov	 ebx, ecx
; File C:\Program Files (x86)\Microsoft Visual Studio\2019\Community\VC\Tools\MSVC\14.29.30133\atlmfc\include\afxtempl.h

; 1354 : 	{ return (m_nCount == 0) ? NULL : BEFORE_START_POSITION; }

  00027	8b 43 50	 mov	 eax, DWORD PTR [ebx+80]
  0002a	8b f0		 mov	 esi, eax
  0002c	f7 de		 neg	 esi
; File D:\git\src\IBK\IBK_DRFN\ProjSrc\SrcChartEx\ChartAddIn\ChartDesignPropertyAddIn\ChartDesignPropertyAddIn\SuperGridCtrl.h

; 121  : 	{

  0002e	c7 03 00 00 00
	00		 mov	 DWORD PTR [ebx], OFFSET ??_7CItemInfo@@6B@
; File C:\Program Files (x86)\Microsoft Visual Studio\2019\Community\VC\Tools\MSVC\14.29.30133\atlmfc\include\afxtempl.h

; 1354 : 	{ return (m_nCount == 0) ? NULL : BEFORE_START_POSITION; }

  00034	1b f6		 sbb	 esi, esi
; File D:\git\src\IBK\IBK_DRFN\ProjSrc\SrcChartEx\ChartAddIn\ChartDesignPropertyAddIn\ChartDesignPropertyAddIn\SuperGridCtrl.h

; 123  : 		while(pos != NULL)

  00036	85 c0		 test	 eax, eax
  00038	0f 84 7e 00 00
	00		 je	 $LN3@CItemInfo
  0003e	66 90		 npad	 2
$LL2@CItemInfo:
; File C:\Program Files (x86)\Microsoft Visual Studio\2019\Community\VC\Tools\MSVC\14.29.30133\atlmfc\include\afxtempl.h

; 1642 : 	ENSURE(m_pHashTable != NULL);  // never call on empty map

  00040	8b 43 48	 mov	 eax, DWORD PTR [ebx+72]
  00043	85 c0		 test	 eax, eax
  00045	0f 84 8e 01 00
	00		 je	 $LN95@CItemInfo

; 1643 : 
; 1644 : 	CAssoc* pAssocRet = (CAssoc*)rNextPosition;

  0004b	8b fe		 mov	 edi, esi

; 1645 : 	ENSURE(pAssocRet != NULL);

  0004d	85 f6		 test	 esi, esi
  0004f	0f 84 84 01 00
	00		 je	 $LN95@CItemInfo

; 1646 : 
; 1647 : 	if (pAssocRet == (CAssoc*) BEFORE_START_POSITION)

  00055	83 fe ff	 cmp	 esi, -1
  00058	75 1d		 jne	 SHORT $LN21@CItemInfo

; 1648 : 	{
; 1649 : 		// find the first association
; 1650 : 		for (UINT nBucket = 0; nBucket < m_nHashTableSize; nBucket++)

  0005a	8b 53 4c	 mov	 edx, DWORD PTR [ebx+76]
  0005d	33 c9		 xor	 ecx, ecx
  0005f	85 d2		 test	 edx, edx
  00061	74 14		 je	 SHORT $LN21@CItemInfo
$LL19@CItemInfo:

; 1651 : 		{
; 1652 : 			if ((pAssocRet = m_pHashTable[nBucket]) != NULL)

  00063	8b 38		 mov	 edi, DWORD PTR [eax]
  00065	85 ff		 test	 edi, edi
  00067	75 0e		 jne	 SHORT $LN21@CItemInfo

; 1648 : 	{
; 1649 : 		// find the first association
; 1650 : 		for (UINT nBucket = 0; nBucket < m_nHashTableSize; nBucket++)

  00069	41		 inc	 ecx
  0006a	83 c0 04	 add	 eax, 4
  0006d	3b ca		 cmp	 ecx, edx
  0006f	0f 83 64 01 00
	00		 jae	 $LN95@CItemInfo
  00075	eb ec		 jmp	 SHORT $LL19@CItemInfo
$LN21@CItemInfo:

; 1658 : 	}
; 1659 : 
; 1660 : 	// find next association
; 1661 : 	ASSERT(AfxIsValidAddress(pAssocRet, sizeof(CAssoc)));
; 1662 : 	CAssoc* pAssocNext;
; 1663 : 	if ((pAssocNext = pAssocRet->pNext) == NULL)

  00077	8b 77 08	 mov	 esi, DWORD PTR [edi+8]
  0007a	85 f6		 test	 esi, esi
  0007c	75 23		 jne	 SHORT $LN92@CItemInfo

; 1664 : 	{
; 1665 : 		// go to next bucket
; 1666 : 		for (UINT nBucket = (pAssocRet->nHashValue % m_nHashTableSize) + 1;

  0007e	8b 4b 4c	 mov	 ecx, DWORD PTR [ebx+76]
  00081	33 d2		 xor	 edx, edx
  00083	8b 47 0c	 mov	 eax, DWORD PTR [edi+12]
  00086	f7 f1		 div	 ecx
  00088	42		 inc	 edx

; 1667 : 		  nBucket < m_nHashTableSize; nBucket++)

  00089	3b d1		 cmp	 edx, ecx
  0008b	73 14		 jae	 SHORT $LN92@CItemInfo

; 1668 : 			if ((pAssocNext = m_pHashTable[nBucket]) != NULL)

  0008d	8b 43 48	 mov	 eax, DWORD PTR [ebx+72]
  00090	8d 04 90	 lea	 eax, DWORD PTR [eax+edx*4]
$LL25@CItemInfo:
  00093	8b 30		 mov	 esi, DWORD PTR [eax]
  00095	85 f6		 test	 esi, esi
  00097	75 08		 jne	 SHORT $LN92@CItemInfo

; 1667 : 		  nBucket < m_nHashTableSize; nBucket++)

  00099	42		 inc	 edx
  0009a	83 c0 04	 add	 eax, 4
  0009d	3b d1		 cmp	 edx, ecx
  0009f	72 f2		 jb	 SHORT $LL25@CItemInfo
$LN92@CItemInfo:

; 1669 : 				break;
; 1670 : 	}
; 1671 : 
; 1672 : 	rNextPosition = (POSITION) pAssocNext;
; 1673 : 
; 1674 : 	// fill in return data
; 1675 : 	rKey = pAssocRet->key;
; 1676 : 	rValue = pAssocRet->value;

  000a1	8b 7f 04	 mov	 edi, DWORD PTR [edi+4]
; File D:\git\src\IBK\IBK_DRFN\ProjSrc\SrcChartEx\ChartAddIn\ChartDesignPropertyAddIn\ChartDesignPropertyAddIn\SuperGridCtrl.h

; 128  : 			if(b!=NULL)

  000a4	85 ff		 test	 edi, edi
  000a6	74 10		 je	 SHORT $LN6@CItemInfo

; 129  : 			{
; 130  : 				b->RemoveAll();

  000a8	8b cf		 mov	 ecx, edi
  000aa	e8 00 00 00 00	 call	 ?RemoveAll@CStringList@@QAEXXZ ; CStringList::RemoveAll

; 131  : 				delete b;

  000af	8b 07		 mov	 eax, DWORD PTR [edi]
  000b1	8b cf		 mov	 ecx, edi
  000b3	6a 01		 push	 1
  000b5	ff 50 04	 call	 DWORD PTR [eax+4]
$LN6@CItemInfo:

; 123  : 		while(pos != NULL)

  000b8	85 f6		 test	 esi, esi
  000ba	75 84		 jne	 SHORT $LL2@CItemInfo
$LN3@CItemInfo:
; File C:\Program Files (x86)\Microsoft Visual Studio\2019\Community\VC\Tools\MSVC\14.29.30133\atlmfc\include\afxtempl.h

; 1446 : 	if (m_pHashTable != NULL)

  000bc	8b 43 48	 mov	 eax, DWORD PTR [ebx+72]
  000bf	85 c0		 test	 eax, eax
  000c1	74 10		 je	 SHORT $LN42@CItemInfo

; 1447 : 	{
; 1448 : 		// destroy elements (values and keys)
; 1449 : 		for (UINT nHash = 0; nHash < m_nHashTableSize; nHash++)
; 1450 : 		{
; 1451 : 			CAssoc* pAssoc;
; 1452 : 			for (pAssoc = m_pHashTable[nHash]; pAssoc != NULL;
; 1453 : 			  pAssoc = pAssoc->pNext)
; 1454 : 			{
; 1455 : 				pAssoc->CAssoc::~CAssoc();
; 1456 : 			}
; 1457 : 		}
; 1458 : 
; 1459 : 		// free hash table
; 1460 : 		delete[] m_pHashTable;

  000c3	50		 push	 eax
  000c4	e8 00 00 00 00	 call	 ??_V@YAXPAX@Z		; operator delete[]
  000c9	83 c4 04	 add	 esp, 4

; 1461 : 		m_pHashTable = NULL;

  000cc	c7 43 48 00 00
	00 00		 mov	 DWORD PTR [ebx+72], 0
$LN42@CItemInfo:

; 1462 : 	}
; 1463 : 
; 1464 : 	m_nCount = 0;
; 1465 : 	m_pFreeList = NULL;
; 1466 : 	m_pBlocks->FreeDataChain();

  000d3	8b 4b 58	 mov	 ecx, DWORD PTR [ebx+88]
  000d6	c7 43 50 00 00
	00 00		 mov	 DWORD PTR [ebx+80], 0
  000dd	c7 43 54 00 00
	00 00		 mov	 DWORD PTR [ebx+84], 0
  000e4	e8 00 00 00 00	 call	 ?FreeDataChain@CPlex@@QAEXXZ ; CPlex::FreeDataChain
; File D:\git\src\IBK\IBK_DRFN\ProjSrc\SrcChartEx\ChartAddIn\ChartDesignPropertyAddIn\ChartDesignPropertyAddIn\SuperGridCtrl.h

; 135  : 	}

  000e9	8d 4b 64	 lea	 ecx, DWORD PTR [ebx+100]
; File C:\Program Files (x86)\Microsoft Visual Studio\2019\Community\VC\Tools\MSVC\14.29.30133\atlmfc\include\afxtempl.h

; 1467 : 	m_pBlocks = NULL;

  000ec	c7 43 58 00 00
	00 00		 mov	 DWORD PTR [ebx+88], 0
; File D:\git\src\IBK\IBK_DRFN\ProjSrc\SrcChartEx\ChartAddIn\ChartDesignPropertyAddIn\ChartDesignPropertyAddIn\SuperGridCtrl.h

; 135  : 	}

  000f3	e8 00 00 00 00	 call	 ??1CStringArray@@UAE@XZ	; CStringArray::~CStringArray
  000f8	8d 4b 60	 lea	 ecx, DWORD PTR [ebx+96]
  000fb	ff 15 00 00 00
	00		 call	 DWORD PTR __imp_??1?$CStringT@DV?$StrTraitMFC_DLL@DV?$ChTraitsCRT@D@ATL@@@@@ATL@@QAE@XZ
; File C:\Program Files (x86)\Microsoft Visual Studio\2019\Community\VC\Tools\MSVC\14.29.30133\atlmfc\include\afxtempl.h

; 1446 : 	if (m_pHashTable != NULL)

  00101	8b 43 48	 mov	 eax, DWORD PTR [ebx+72]

; 1472 : {

  00104	c7 45 fc 00 00
	00 00		 mov	 DWORD PTR __$EHRec$[ebp+8], 0
  0010b	c7 43 44 00 00
	00 00		 mov	 DWORD PTR [ebx+68], OFFSET ??_7?$CMap@HHPAVCStringList@@PAV1@@@6B@

; 1446 : 	if (m_pHashTable != NULL)

  00112	85 c0		 test	 eax, eax
  00114	74 10		 je	 SHORT $LN54@CItemInfo

; 1447 : 	{
; 1448 : 		// destroy elements (values and keys)
; 1449 : 		for (UINT nHash = 0; nHash < m_nHashTableSize; nHash++)
; 1450 : 		{
; 1451 : 			CAssoc* pAssoc;
; 1452 : 			for (pAssoc = m_pHashTable[nHash]; pAssoc != NULL;
; 1453 : 			  pAssoc = pAssoc->pNext)
; 1454 : 			{
; 1455 : 				pAssoc->CAssoc::~CAssoc();
; 1456 : 			}
; 1457 : 		}
; 1458 : 
; 1459 : 		// free hash table
; 1460 : 		delete[] m_pHashTable;

  00116	50		 push	 eax
  00117	e8 00 00 00 00	 call	 ??_V@YAXPAX@Z		; operator delete[]
  0011c	83 c4 04	 add	 esp, 4

; 1461 : 		m_pHashTable = NULL;

  0011f	c7 43 48 00 00
	00 00		 mov	 DWORD PTR [ebx+72], 0
$LN54@CItemInfo:

; 1462 : 	}
; 1463 : 
; 1464 : 	m_nCount = 0;
; 1465 : 	m_pFreeList = NULL;
; 1466 : 	m_pBlocks->FreeDataChain();

  00126	8b 4b 58	 mov	 ecx, DWORD PTR [ebx+88]
  00129	c7 43 50 00 00
	00 00		 mov	 DWORD PTR [ebx+80], 0
  00130	c7 43 54 00 00
	00 00		 mov	 DWORD PTR [ebx+84], 0
  00137	e8 00 00 00 00	 call	 ?FreeDataChain@CPlex@@QAEXXZ ; CPlex::FreeDataChain

; 1467 : 	m_pBlocks = NULL;

  0013c	c7 43 58 00 00
	00 00		 mov	 DWORD PTR [ebx+88], 0

; 1446 : 	if (m_pHashTable != NULL)

  00143	8b 43 2c	 mov	 eax, DWORD PTR [ebx+44]

; 1472 : {

  00146	c7 45 fc 01 00
	00 00		 mov	 DWORD PTR __$EHRec$[ebp+8], 1
  0014d	c7 43 28 00 00
	00 00		 mov	 DWORD PTR [ebx+40], OFFSET ??_7?$CMap@HHKAAK@@6B@

; 1446 : 	if (m_pHashTable != NULL)

  00154	85 c0		 test	 eax, eax
  00156	74 10		 je	 SHORT $LN66@CItemInfo

; 1447 : 	{
; 1448 : 		// destroy elements (values and keys)
; 1449 : 		for (UINT nHash = 0; nHash < m_nHashTableSize; nHash++)
; 1450 : 		{
; 1451 : 			CAssoc* pAssoc;
; 1452 : 			for (pAssoc = m_pHashTable[nHash]; pAssoc != NULL;
; 1453 : 			  pAssoc = pAssoc->pNext)
; 1454 : 			{
; 1455 : 				pAssoc->CAssoc::~CAssoc();
; 1456 : 			}
; 1457 : 		}
; 1458 : 
; 1459 : 		// free hash table
; 1460 : 		delete[] m_pHashTable;

  00158	50		 push	 eax
  00159	e8 00 00 00 00	 call	 ??_V@YAXPAX@Z		; operator delete[]
  0015e	83 c4 04	 add	 esp, 4

; 1461 : 		m_pHashTable = NULL;

  00161	c7 43 2c 00 00
	00 00		 mov	 DWORD PTR [ebx+44], 0
$LN66@CItemInfo:

; 1462 : 	}
; 1463 : 
; 1464 : 	m_nCount = 0;
; 1465 : 	m_pFreeList = NULL;
; 1466 : 	m_pBlocks->FreeDataChain();

  00168	8b 4b 3c	 mov	 ecx, DWORD PTR [ebx+60]
  0016b	c7 43 34 00 00
	00 00		 mov	 DWORD PTR [ebx+52], 0
  00172	c7 43 38 00 00
	00 00		 mov	 DWORD PTR [ebx+56], 0
  00179	e8 00 00 00 00	 call	 ?FreeDataChain@CPlex@@QAEXXZ ; CPlex::FreeDataChain

; 1467 : 	m_pBlocks = NULL;

  0017e	c7 43 3c 00 00
	00 00		 mov	 DWORD PTR [ebx+60], 0

; 1446 : 	if (m_pHashTable != NULL)

  00185	8b 43 10	 mov	 eax, DWORD PTR [ebx+16]

; 1472 : {

  00188	c7 45 fc 02 00
	00 00		 mov	 DWORD PTR __$EHRec$[ebp+8], 2
  0018f	c7 43 0c 00 00
	00 00		 mov	 DWORD PTR [ebx+12], OFFSET ??_7?$CMap@HHW4CONTROLTYPE@CItemInfo@@AAW412@@@6B@

; 1446 : 	if (m_pHashTable != NULL)

  00196	85 c0		 test	 eax, eax
  00198	74 10		 je	 SHORT $LN78@CItemInfo

; 1447 : 	{
; 1448 : 		// destroy elements (values and keys)
; 1449 : 		for (UINT nHash = 0; nHash < m_nHashTableSize; nHash++)
; 1450 : 		{
; 1451 : 			CAssoc* pAssoc;
; 1452 : 			for (pAssoc = m_pHashTable[nHash]; pAssoc != NULL;
; 1453 : 			  pAssoc = pAssoc->pNext)
; 1454 : 			{
; 1455 : 				pAssoc->CAssoc::~CAssoc();
; 1456 : 			}
; 1457 : 		}
; 1458 : 
; 1459 : 		// free hash table
; 1460 : 		delete[] m_pHashTable;

  0019a	50		 push	 eax
  0019b	e8 00 00 00 00	 call	 ??_V@YAXPAX@Z		; operator delete[]
  001a0	83 c4 04	 add	 esp, 4

; 1461 : 		m_pHashTable = NULL;

  001a3	c7 43 10 00 00
	00 00		 mov	 DWORD PTR [ebx+16], 0
$LN78@CItemInfo:

; 1462 : 	}
; 1463 : 
; 1464 : 	m_nCount = 0;
; 1465 : 	m_pFreeList = NULL;
; 1466 : 	m_pBlocks->FreeDataChain();

  001aa	8b 4b 20	 mov	 ecx, DWORD PTR [ebx+32]
  001ad	c7 43 18 00 00
	00 00		 mov	 DWORD PTR [ebx+24], 0
  001b4	c7 43 1c 00 00
	00 00		 mov	 DWORD PTR [ebx+28], 0
  001bb	e8 00 00 00 00	 call	 ?FreeDataChain@CPlex@@QAEXXZ ; CPlex::FreeDataChain

; 1467 : 	m_pBlocks = NULL;

  001c0	c7 43 20 00 00
	00 00		 mov	 DWORD PTR [ebx+32], 0
; File D:\git\src\IBK\IBK_DRFN\ProjSrc\SrcChartEx\ChartAddIn\ChartDesignPropertyAddIn\ChartDesignPropertyAddIn\SuperGridCtrl.h

; 135  : 	}

  001c7	8b 4d f4	 mov	 ecx, DWORD PTR __$EHRec$[ebp]
  001ca	64 89 0d 00 00
	00 00		 mov	 DWORD PTR fs:0, ecx
  001d1	59		 pop	 ecx
  001d2	5f		 pop	 edi
  001d3	5e		 pop	 esi
  001d4	5b		 pop	 ebx
  001d5	8b e5		 mov	 esp, ebp
  001d7	5d		 pop	 ebp
  001d8	c3		 ret	 0
$LN95@CItemInfo:
; File C:\Program Files (x86)\Microsoft Visual Studio\2019\Community\VC\Tools\MSVC\14.29.30133\atlmfc\include\afxtempl.h

; 1657 : 		ENSURE(pAssocRet != NULL);  // must find something

  001d9	e8 00 00 00 00	 call	 ?AfxThrowInvalidArgException@@YGXXZ ; AfxThrowInvalidArgException
$LN140@CItemInfo:
  001de	cc		 int	 3
  001df	cc		 int	 3
  001e0	cc		 int	 3
  001e1	cc		 int	 3
  001e2	cc		 int	 3
  001e3	cc		 int	 3
_TEXT	ENDS
;	COMDAT text$x
text$x	SEGMENT
__ehhandler$??1CItemInfo@@UAE@XZ:
  00000	90		 npad	 1
  00001	90		 npad	 1
  00002	8b 54 24 08	 mov	 edx, DWORD PTR [esp+8]
  00006	8d 42 0c	 lea	 eax, DWORD PTR [edx+12]
  00009	8b 4a f0	 mov	 ecx, DWORD PTR [edx-16]
  0000c	33 c8		 xor	 ecx, eax
  0000e	e8 00 00 00 00	 call	 @__security_check_cookie@4
  00013	b8 00 00 00 00	 mov	 eax, OFFSET __ehfuncinfo$??1CItemInfo@@UAE@XZ
  00018	e9 00 00 00 00	 jmp	 ___CxxFrameHandler3
text$x	ENDS
??1CItemInfo@@UAE@XZ ENDP				; CItemInfo::~CItemInfo
; Function compile flags: /Ogtp
; File D:\git\src\IBK\IBK_DRFN\ProjSrc\SrcChartEx\ChartAddIn\ChartDesignPropertyAddIn\ChartDesignPropertyAddIn\SuperGridCtrl.h
; File C:\Program Files (x86)\Microsoft Visual Studio\2019\Community\VC\Tools\MSVC\14.29.30133\atlmfc\include\afxtempl.h
; File D:\git\src\IBK\IBK_DRFN\ProjSrc\SrcChartEx\ChartAddIn\ChartDesignPropertyAddIn\ChartDesignPropertyAddIn\SuperGridCtrl.h
; File C:\Program Files (x86)\Microsoft Visual Studio\2019\Community\VC\Tools\MSVC\14.29.30133\atlmfc\include\afxtempl.h
; File D:\git\src\IBK\IBK_DRFN\ProjSrc\SrcChartEx\ChartAddIn\ChartDesignPropertyAddIn\ChartDesignPropertyAddIn\SuperGridCtrl.h
; File C:\Program Files (x86)\Microsoft Visual Studio\2019\Community\VC\Tools\MSVC\14.29.30133\atlmfc\include\afxtempl.h
; File D:\git\src\IBK\IBK_DRFN\ProjSrc\SrcChartEx\ChartAddIn\ChartDesignPropertyAddIn\ChartDesignPropertyAddIn\SuperGridCtrl.h
;	COMDAT ?CopyColors@CItemInfo@@QAEXPAV1@@Z
_TEXT	SEGMENT
_clref$1$ = -16						; size = 4
_nHashBucket$3 = -12					; size = 4
_nHashValue$4 = -8					; size = 4
_this$1$ = -4						; size = 4
_pItemInfo$ = 8						; size = 4
?CopyColors@CItemInfo@@QAEXPAV1@@Z PROC			; CItemInfo::CopyColors, COMDAT
; _this$ = ecx

; 111  : 	{

  00000	55		 push	 ebp
  00001	8b ec		 mov	 ebp, esp
  00003	83 ec 10	 sub	 esp, 16			; 00000010H
  00006	53		 push	 ebx

; 112  : 		for(int nCol=0; nCol < pItemInfo->GetItemCount(); nCol++)

  00007	8b 5d 08	 mov	 ebx, DWORD PTR _pItemInfo$[ebp]
  0000a	57		 push	 edi
  0000b	33 ff		 xor	 edi, edi
  0000d	89 4d fc	 mov	 DWORD PTR _this$1$[ebp], ecx
  00010	39 7b 6c	 cmp	 DWORD PTR [ebx+108], edi
  00013	0f 8e 59 01 00
	00		 jle	 $LN85@CopyColors
  00019	56		 push	 esi
$LN90@CopyColors:
; File C:\Program Files (x86)\Microsoft Visual Studio\2019\Community\VC\Tools\MSVC\14.29.30133\atlmfc\include\afxtempl.h

; 165  : 	ldiv_t HashVal = ldiv((long)(ARG_KEY)key, 127773);

  0001a	8b c7		 mov	 eax, edi
  0001c	b9 1d f3 01 00	 mov	 ecx, 127773		; 0001f31dH
  00021	99		 cdq
  00022	f7 f9		 idiv	 ecx

; 166  : 	HashVal.rem = 16807 * HashVal.rem - 2836 * HashVal.quot;

  00024	69 ca a7 41 00
	00		 imul	 ecx, edx, 16807
  0002a	69 c0 14 0b 00
	00		 imul	 eax, eax, 2836
  00030	2b c8		 sub	 ecx, eax

; 1536 : 	if (m_pHashTable == NULL)

  00032	8d b1 ff ff ff
	7f		 lea	 esi, DWORD PTR [ecx+2147483647]
  00038	0f 49 f1	 cmovns	 esi, ecx
  0003b	8b 4b 2c	 mov	 ecx, DWORD PTR [ebx+44]
  0003e	85 c9		 test	 ecx, ecx
  00040	0f 84 21 01 00
	00		 je	 $LN2@CopyColors

; 1506 : 	ASSERT(m_nCount > 0);  // make sure we don't overflow
; 1507 : #pragma push_macro("new")
; 1508 : #undef new
; 1509 : 	::new(pAssoc) CMap::CAssoc(key);
; 1510 : #pragma pop_macro("new")
; 1511 : 	return pAssoc;
; 1512 : }
; 1513 : 
; 1514 : template<class KEY, class ARG_KEY, class VALUE, class ARG_VALUE>
; 1515 : void CMap<KEY, ARG_KEY, VALUE, ARG_VALUE>::FreeAssoc(CAssoc* pAssoc)
; 1516 : {
; 1517 : 	pAssoc->CAssoc::~CAssoc();
; 1518 : 	pAssoc->pNext = m_pFreeList;
; 1519 : 	m_pFreeList = pAssoc;
; 1520 : 	m_nCount--;
; 1521 : 	ASSERT(m_nCount >= 0);  // make sure we don't underflow
; 1522 : 
; 1523 : 	// if no more elements, cleanup completely
; 1524 : 	if (m_nCount == 0)
; 1525 : 		RemoveAll();
; 1526 : }
; 1527 : 
; 1528 : template<class KEY, class ARG_KEY, class VALUE, class ARG_VALUE>
; 1529 : typename CMap<KEY, ARG_KEY, VALUE, ARG_VALUE>::CAssoc*
; 1530 : CMap<KEY, ARG_KEY, VALUE, ARG_VALUE>::GetAssocAt(ARG_KEY key, UINT& nHashBucket, UINT& nHashValue) const
; 1531 : // find association (or return NULL)
; 1532 : {
; 1533 : 	nHashValue = HashKey<ARG_KEY>(key);
; 1534 : 	nHashBucket = nHashValue % m_nHashTableSize;

  00046	33 d2		 xor	 edx, edx
  00048	8b c6		 mov	 eax, esi
  0004a	f7 73 30	 div	 DWORD PTR [ebx+48]

; 1537 : 		return NULL;
; 1538 : 
; 1539 : 	// see if it exists
; 1540 : 	CAssoc* pAssoc;
; 1541 : 	for (pAssoc = m_pHashTable[nHashBucket]; pAssoc != NULL; pAssoc = pAssoc->pNext)

  0004d	8b 04 91	 mov	 eax, DWORD PTR [ecx+edx*4]
  00050	85 c0		 test	 eax, eax
  00052	0f 84 0f 01 00
	00		 je	 $LN2@CopyColors
$LL13@CopyColors:

; 1542 : 	{
; 1543 : 		if (pAssoc->nHashValue == nHashValue && CompareElements(&pAssoc->key, &key))

  00058	39 70 0c	 cmp	 DWORD PTR [eax+12], esi
  0005b	75 04		 jne	 SHORT $LN11@CopyColors

; 156  : 	return *pElement1 == *pElement2;

  0005d	39 38		 cmp	 DWORD PTR [eax], edi

; 1543 : 		if (pAssoc->nHashValue == nHashValue && CompareElements(&pAssoc->key, &key))

  0005f	74 0c		 je	 SHORT $LN8@CopyColors
$LN11@CopyColors:

; 1537 : 		return NULL;
; 1538 : 
; 1539 : 	// see if it exists
; 1540 : 	CAssoc* pAssoc;
; 1541 : 	for (pAssoc = m_pHashTable[nHashBucket]; pAssoc != NULL; pAssoc = pAssoc->pNext)

  00061	8b 40 08	 mov	 eax, DWORD PTR [eax+8]
  00064	85 c0		 test	 eax, eax
  00066	75 f0		 jne	 SHORT $LL13@CopyColors
  00068	e9 fa 00 00 00	 jmp	 $LN2@CopyColors
$LN8@CopyColors:

; 1559 : 	rValue = pAssoc->value;

  0006d	8b 40 04	 mov	 eax, DWORD PTR [eax+4]
; File D:\git\src\IBK\IBK_DRFN\ProjSrc\SrcChartEx\ChartAddIn\ChartDesignPropertyAddIn\ChartDesignPropertyAddIn\SuperGridCtrl.h

; 116  : 				m_mapClf.SetAt(nCol, clref);

  00070	8b 75 fc	 mov	 esi, DWORD PTR _this$1$[ebp]
; File C:\Program Files (x86)\Microsoft Visual Studio\2019\Community\VC\Tools\MSVC\14.29.30133\atlmfc\include\afxtempl.h

; 1559 : 	rValue = pAssoc->value;

  00073	89 45 f0	 mov	 DWORD PTR _clref$1$[ebp], eax

; 1590 : 	if ((pAssoc = GetAssocAt(key, nHashBucket, nHashValue)) == NULL)

  00076	8d 45 f8	 lea	 eax, DWORD PTR _nHashValue$4[ebp]
  00079	50		 push	 eax
  0007a	8d 45 f4	 lea	 eax, DWORD PTR _nHashBucket$3[ebp]
  0007d	50		 push	 eax
  0007e	57		 push	 edi
  0007f	8d 4e 28	 lea	 ecx, DWORD PTR [esi+40]
  00082	e8 00 00 00 00	 call	 ?GetAssocAt@?$CMap@HHKAAK@@IBEPAVCAssoc@1@HAAI0@Z ; CMap<int,int,unsigned long,unsigned long &>::GetAssocAt
  00087	8b d0		 mov	 edx, eax
  00089	85 d2		 test	 edx, edx
  0008b	0f 85 d0 00 00
	00		 jne	 $LN37@CopyColors

; 1591 : 	{
; 1592 : 		if (m_pHashTable == NULL)

  00091	8b 46 2c	 mov	 eax, DWORD PTR [esi+44]
  00094	85 c0		 test	 eax, eax
  00096	75 4d		 jne	 SHORT $LN89@CopyColors

; 1593 : 			InitHashTable(m_nHashTableSize);

  00098	8b 5e 30	 mov	 ebx, DWORD PTR [esi+48]

; 1434 : 		m_pHashTable = new CAssoc* [nHashSize];

  0009b	33 c9		 xor	 ecx, ecx
  0009d	8b c3		 mov	 eax, ebx
  0009f	ba 04 00 00 00	 mov	 edx, 4
  000a4	f7 e2		 mul	 edx
  000a6	0f 90 c1	 seto	 cl
  000a9	f7 d9		 neg	 ecx
  000ab	0b c8		 or	 ecx, eax
  000ad	51		 push	 ecx
  000ae	e8 00 00 00 00	 call	 ??_U@YAPAXI@Z		; operator new[]
  000b3	83 c4 04	 add	 esp, 4
  000b6	89 46 2c	 mov	 DWORD PTR [esi+44], eax

; 1435 : 		ENSURE(m_pHashTable != NULL);

  000b9	85 c0		 test	 eax, eax
  000bb	0f 84 b9 00 00
	00		 je	 $LN72@CopyColors

; 1436 : 		memset(m_pHashTable, 0, sizeof(CAssoc*) * nHashSize);

  000c1	8d 0c 9d 00 00
	00 00		 lea	 ecx, DWORD PTR [ebx*4]
  000c8	51		 push	 ecx
  000c9	6a 00		 push	 0
  000cb	50		 push	 eax
  000cc	e8 00 00 00 00	 call	 _memset

; 1437 : 	}
; 1438 : 	m_nHashTableSize = nHashSize;

  000d1	8b 46 2c	 mov	 eax, DWORD PTR [esi+44]
  000d4	83 c4 0c	 add	 esp, 12			; 0000000cH
  000d7	89 5e 30	 mov	 DWORD PTR [esi+48], ebx
  000da	8b 5d 08	 mov	 ebx, DWORD PTR _pItemInfo$[ebp]

; 1595 : 		ENSURE(m_pHashTable);

  000dd	85 c0		 test	 eax, eax
  000df	0f 84 95 00 00
	00		 je	 $LN72@CopyColors
$LN89@CopyColors:

; 1481 : 	if (m_pFreeList == NULL)

  000e5	83 7e 38 00	 cmp	 DWORD PTR [esi+56], 0
  000e9	75 36		 jne	 SHORT $LN56@CopyColors

; 1482 : 	{
; 1483 : 		// add another block
; 1484 : 		CPlex* newBlock = CPlex::Create(m_pBlocks, m_nBlockSize, sizeof(CMap::CAssoc));

  000eb	6a 10		 push	 16			; 00000010H
  000ed	ff 76 40	 push	 DWORD PTR [esi+64]
  000f0	8d 46 3c	 lea	 eax, DWORD PTR [esi+60]
  000f3	50		 push	 eax
  000f4	e8 00 00 00 00	 call	 ?Create@CPlex@@SGPAU1@AAPAU1@II@Z ; CPlex::Create

; 1485 : 		// chain them into free list
; 1486 : 		CMap::CAssoc* pAssoc = (CMap::CAssoc*) newBlock->data();
; 1487 : 		// free in reverse order to make it easier to debug
; 1488 : 		pAssoc += m_nBlockSize - 1;

  000f9	8b 56 40	 mov	 edx, DWORD PTR [esi+64]
  000fc	83 c0 08	 add	 eax, 8
  000ff	8b ca		 mov	 ecx, edx
  00101	c1 e1 04	 shl	 ecx, 4
  00104	83 c1 f0	 add	 ecx, -16		; fffffff0H
  00107	03 c8		 add	 ecx, eax

; 1489 : 		for (INT_PTR i = m_nBlockSize-1; i >= 0; i--, pAssoc--)

  00109	83 c2 ff	 add	 edx, -1
  0010c	78 13		 js	 SHORT $LN56@CopyColors
  0010e	66 90		 npad	 2
$LL53@CopyColors:

; 1490 : 		{
; 1491 : 			pAssoc->pNext = m_pFreeList;

  00110	8b 46 38	 mov	 eax, DWORD PTR [esi+56]
  00113	89 41 08	 mov	 DWORD PTR [ecx+8], eax

; 1492 : 			m_pFreeList = pAssoc;

  00116	89 4e 38	 mov	 DWORD PTR [esi+56], ecx
  00119	83 e9 10	 sub	 ecx, 16			; 00000010H
  0011c	83 ea 01	 sub	 edx, 1
  0011f	79 ef		 jns	 SHORT $LL53@CopyColors
$LN56@CopyColors:

; 1495 : 	ENSURE(m_pFreeList != NULL);  // we must have something

  00121	8b 56 38	 mov	 edx, DWORD PTR [esi+56]
  00124	85 d2		 test	 edx, edx
  00126	74 52		 je	 SHORT $LN72@CopyColors

; 1496 : 
; 1497 : 	CMap::CAssoc* pAssoc = m_pFreeList;
; 1498 : 
; 1499 : 	// zero the memory
; 1500 : 	CMap::CAssoc* pTemp = pAssoc->pNext;

  00128	8b 42 08	 mov	 eax, DWORD PTR [edx+8]
  0012b	0f 57 c0	 xorps	 xmm0, xmm0

; 1501 : 	memset( pAssoc, 0, sizeof(CMap::CAssoc) );

  0012e	0f 11 02	 movups	 XMMWORD PTR [edx], xmm0

; 1502 : 	pAssoc->pNext = pTemp;

  00131	89 42 08	 mov	 DWORD PTR [edx+8], eax

; 1503 : 
; 1504 : 	m_pFreeList = m_pFreeList->pNext;

  00134	8b 46 38	 mov	 eax, DWORD PTR [esi+56]
  00137	8b 40 08	 mov	 eax, DWORD PTR [eax+8]

; 1505 : 	m_nCount++;

  0013a	ff 46 34	 inc	 DWORD PTR [esi+52]
  0013d	89 46 38	 mov	 DWORD PTR [esi+56], eax

; 1598 : 		pAssoc->nHashValue = nHashValue;

  00140	8b 45 f8	 mov	 eax, DWORD PTR _nHashValue$4[ebp]
  00143	89 42 0c	 mov	 DWORD PTR [edx+12], eax

; 1599 : 		//'pAssoc->value' is a constructed object, nothing more
; 1600 : 
; 1601 : 		// put into hash table
; 1602 : 		pAssoc->pNext = m_pHashTable[nHashBucket];

  00146	8b 45 f4	 mov	 eax, DWORD PTR _nHashBucket$3[ebp]

; 1256 : 		CPair( ARG_KEY keyval ) : key( keyval )	{}

  00149	89 3a		 mov	 DWORD PTR [edx], edi

; 1602 : 		pAssoc->pNext = m_pHashTable[nHashBucket];

  0014b	8d 0c 85 00 00
	00 00		 lea	 ecx, DWORD PTR [eax*4]
  00152	8b 46 2c	 mov	 eax, DWORD PTR [esi+44]
  00155	8b 04 01	 mov	 eax, DWORD PTR [ecx+eax]
  00158	89 42 08	 mov	 DWORD PTR [edx+8], eax

; 1603 : 		m_pHashTable[nHashBucket] = pAssoc;

  0015b	8b 46 2c	 mov	 eax, DWORD PTR [esi+44]
  0015e	89 14 01	 mov	 DWORD PTR [ecx+eax], edx
$LN37@CopyColors:

; 1350 : 	{ (*this)[key] = newValue; }

  00161	8b 45 f0	 mov	 eax, DWORD PTR _clref$1$[ebp]
  00164	89 42 04	 mov	 DWORD PTR [edx+4], eax
$LN2@CopyColors:
; File D:\git\src\IBK\IBK_DRFN\ProjSrc\SrcChartEx\ChartAddIn\ChartDesignPropertyAddIn\ChartDesignPropertyAddIn\SuperGridCtrl.h

; 112  : 		for(int nCol=0; nCol < pItemInfo->GetItemCount(); nCol++)

  00167	47		 inc	 edi
  00168	3b 7b 6c	 cmp	 edi, DWORD PTR [ebx+108]
  0016b	0f 8c a9 fe ff
	ff		 jl	 $LN90@CopyColors
  00171	5e		 pop	 esi
$LN85@CopyColors:
  00172	5f		 pop	 edi

; 118  : 	}

  00173	5b		 pop	 ebx
  00174	8b e5		 mov	 esp, ebp
  00176	5d		 pop	 ebp
  00177	c2 04 00	 ret	 4
$LN72@CopyColors:
; File C:\Program Files (x86)\Microsoft Visual Studio\2019\Community\VC\Tools\MSVC\14.29.30133\atlmfc\include\afxtempl.h

; 1495 : 	ENSURE(m_pFreeList != NULL);  // we must have something

  0017a	e8 00 00 00 00	 call	 ?AfxThrowInvalidArgException@@YGXXZ ; AfxThrowInvalidArgException
$LN87@CopyColors:
  0017f	cc		 int	 3
?CopyColors@CItemInfo@@QAEXPAV1@@Z ENDP			; CItemInfo::CopyColors
_TEXT	ENDS
; Function compile flags: /Ogtp
; File D:\git\src\IBK\IBK_DRFN\ProjSrc\SrcChartEx\ChartAddIn\ChartDesignPropertyAddIn\ChartDesignPropertyAddIn\SuperGridCtrl.h
; File C:\Program Files (x86)\Microsoft Visual Studio\2019\Community\VC\Tools\MSVC\14.29.30133\atlmfc\include\afxtempl.h
; File D:\git\src\IBK\IBK_DRFN\ProjSrc\SrcChartEx\ChartAddIn\ChartDesignPropertyAddIn\ChartDesignPropertyAddIn\SuperGridCtrl.h
; File C:\Program Files (x86)\Microsoft Visual Studio\2019\Community\VC\Tools\MSVC\14.29.30133\atlmfc\include\afxtempl.h
; File D:\git\src\IBK\IBK_DRFN\ProjSrc\SrcChartEx\ChartAddIn\ChartDesignPropertyAddIn\ChartDesignPropertyAddIn\SuperGridCtrl.h
; File C:\Program Files (x86)\Microsoft Visual Studio\2019\Community\VC\Tools\MSVC\14.29.30133\atlmfc\include\afxtempl.h
; File D:\git\src\IBK\IBK_DRFN\ProjSrc\SrcChartEx\ChartAddIn\ChartDesignPropertyAddIn\ChartDesignPropertyAddIn\SuperGridCtrl.h
;	COMDAT ?GetListData@CItemInfo@@QBEHHAAPAVCStringList@@@Z
_TEXT	SEGMENT
_nHashBucket$1 = -8					; size = 4
_nHashValue$2 = -4					; size = 4
_iSubItem$ = 8						; size = 4
_pList$ = 12						; size = 4
?GetListData@CItemInfo@@QBEHHAAPAVCStringList@@@Z PROC	; CItemInfo::GetListData, COMDAT
; _this$ = ecx

; 57   : 	{	

  00000	55		 push	 ebp
  00001	8b ec		 mov	 ebp, esp
  00003	83 ec 08	 sub	 esp, 8
; File C:\Program Files (x86)\Microsoft Visual Studio\2019\Community\VC\Tools\MSVC\14.29.30133\atlmfc\include\afxtempl.h

; 1555 : 	CAssoc* pAssoc = GetAssocAt(key, nHashBucket, nHashValue);

  00006	8d 45 fc	 lea	 eax, DWORD PTR _nHashValue$2[ebp]
; File D:\git\src\IBK\IBK_DRFN\ProjSrc\SrcChartEx\ChartAddIn\ChartDesignPropertyAddIn\ChartDesignPropertyAddIn\SuperGridCtrl.h

; 58   : 		return m_listdata.Lookup(iSubItem, pList);

  00009	83 c1 44	 add	 ecx, 68			; 00000044H
; File C:\Program Files (x86)\Microsoft Visual Studio\2019\Community\VC\Tools\MSVC\14.29.30133\atlmfc\include\afxtempl.h

; 1555 : 	CAssoc* pAssoc = GetAssocAt(key, nHashBucket, nHashValue);

  0000c	50		 push	 eax
  0000d	8d 45 f8	 lea	 eax, DWORD PTR _nHashBucket$1[ebp]
  00010	50		 push	 eax
  00011	ff 75 08	 push	 DWORD PTR _iSubItem$[ebp]
  00014	e8 00 00 00 00	 call	 ?GetAssocAt@?$CMap@HHPAVCStringList@@PAV1@@@IBEPAVCAssoc@1@HAAI0@Z ; CMap<int,int,CStringList *,CStringList *>::GetAssocAt

; 1556 : 	if (pAssoc == NULL)

  00019	85 c0		 test	 eax, eax
  0001b	75 06		 jne	 SHORT $LN4@GetListDat
; File D:\git\src\IBK\IBK_DRFN\ProjSrc\SrcChartEx\ChartAddIn\ChartDesignPropertyAddIn\ChartDesignPropertyAddIn\SuperGridCtrl.h

; 59   : 	}

  0001d	8b e5		 mov	 esp, ebp
  0001f	5d		 pop	 ebp
  00020	c2 08 00	 ret	 8
$LN4@GetListDat:
; File C:\Program Files (x86)\Microsoft Visual Studio\2019\Community\VC\Tools\MSVC\14.29.30133\atlmfc\include\afxtempl.h

; 1559 : 	rValue = pAssoc->value;

  00023	8b 48 04	 mov	 ecx, DWORD PTR [eax+4]
  00026	8b 45 0c	 mov	 eax, DWORD PTR _pList$[ebp]
  00029	89 08		 mov	 DWORD PTR [eax], ecx
; File D:\git\src\IBK\IBK_DRFN\ProjSrc\SrcChartEx\ChartAddIn\ChartDesignPropertyAddIn\ChartDesignPropertyAddIn\SuperGridCtrl.h

; 58   : 		return m_listdata.Lookup(iSubItem, pList);

  0002b	b8 01 00 00 00	 mov	 eax, 1

; 59   : 	}

  00030	8b e5		 mov	 esp, ebp
  00032	5d		 pop	 ebp
  00033	c2 08 00	 ret	 8
?GetListData@CItemInfo@@QBEHHAAPAVCStringList@@@Z ENDP	; CItemInfo::GetListData
_TEXT	ENDS
; Function compile flags: /Ogtp
; File D:\git\src\IBK\IBK_DRFN\ProjSrc\SrcChartEx\ChartAddIn\ChartDesignPropertyAddIn\ChartDesignPropertyAddIn\SuperGridCtrl.h
; File C:\Program Files (x86)\Microsoft Visual Studio\2019\Community\VC\Tools\MSVC\14.29.30133\atlmfc\include\afxtempl.h
; File D:\git\src\IBK\IBK_DRFN\ProjSrc\SrcChartEx\ChartAddIn\ChartDesignPropertyAddIn\ChartDesignPropertyAddIn\SuperGridCtrl.h
; File C:\Program Files (x86)\Microsoft Visual Studio\2019\Community\VC\Tools\MSVC\14.29.30133\atlmfc\include\afxtempl.h
; File D:\git\src\IBK\IBK_DRFN\ProjSrc\SrcChartEx\ChartAddIn\ChartDesignPropertyAddIn\ChartDesignPropertyAddIn\SuperGridCtrl.h
;	COMDAT ?GetControlType@CItemInfo@@QBEHHAAW4CONTROLTYPE@1@@Z
_TEXT	SEGMENT
_nHashBucket$1 = -8					; size = 4
_nHashValue$2 = -4					; size = 4
_nCol$ = 8						; size = 4
_controlType$ = 12					; size = 4
?GetControlType@CItemInfo@@QBEHHAAW4CONTROLTYPE@1@@Z PROC ; CItemInfo::GetControlType, COMDAT
; _this$ = ecx

; 39   : 	{

  00000	55		 push	 ebp
  00001	8b ec		 mov	 ebp, esp
  00003	83 ec 08	 sub	 esp, 8
; File C:\Program Files (x86)\Microsoft Visual Studio\2019\Community\VC\Tools\MSVC\14.29.30133\atlmfc\include\afxtempl.h

; 1555 : 	CAssoc* pAssoc = GetAssocAt(key, nHashBucket, nHashValue);

  00006	8d 45 fc	 lea	 eax, DWORD PTR _nHashValue$2[ebp]
; File D:\git\src\IBK\IBK_DRFN\ProjSrc\SrcChartEx\ChartAddIn\ChartDesignPropertyAddIn\ChartDesignPropertyAddIn\SuperGridCtrl.h

; 40   : 		if(!m_controlType.Lookup(nCol, controlType))

  00009	83 c1 0c	 add	 ecx, 12			; 0000000cH
; File C:\Program Files (x86)\Microsoft Visual Studio\2019\Community\VC\Tools\MSVC\14.29.30133\atlmfc\include\afxtempl.h

; 1555 : 	CAssoc* pAssoc = GetAssocAt(key, nHashBucket, nHashValue);

  0000c	50		 push	 eax
  0000d	8d 45 f8	 lea	 eax, DWORD PTR _nHashBucket$1[ebp]
  00010	50		 push	 eax
  00011	ff 75 08	 push	 DWORD PTR _nCol$[ebp]
  00014	e8 00 00 00 00	 call	 ?GetAssocAt@?$CMap@HHW4CONTROLTYPE@CItemInfo@@AAW412@@@IBEPAVCAssoc@1@HAAI0@Z ; CMap<int,int,enum CItemInfo::CONTROLTYPE,enum CItemInfo::CONTROLTYPE &>::GetAssocAt

; 1556 : 	if (pAssoc == NULL)

  00019	85 c0		 test	 eax, eax
  0001b	74 13		 je	 SHORT $LN7@GetControl

; 1557 : 		return FALSE;  // not in map
; 1558 : 
; 1559 : 	rValue = pAssoc->value;

  0001d	8b 48 04	 mov	 ecx, DWORD PTR [eax+4]
  00020	8b 45 0c	 mov	 eax, DWORD PTR _controlType$[ebp]
  00023	89 08		 mov	 DWORD PTR [eax], ecx
; File D:\git\src\IBK\IBK_DRFN\ProjSrc\SrcChartEx\ChartAddIn\ChartDesignPropertyAddIn\ChartDesignPropertyAddIn\SuperGridCtrl.h

; 45   : 		return 1;

  00025	b8 01 00 00 00	 mov	 eax, 1

; 46   : 	}

  0002a	8b e5		 mov	 esp, ebp
  0002c	5d		 pop	 ebp
  0002d	c2 08 00	 ret	 8
$LN7@GetControl:

; 41   : 		{
; 42   : 			controlType = edit;//default;

  00030	8b 45 0c	 mov	 eax, DWORD PTR _controlType$[ebp]
  00033	c7 00 00 00 00
	00		 mov	 DWORD PTR [eax], 0

; 43   : 			return 0;

  00039	33 c0		 xor	 eax, eax

; 46   : 	}

  0003b	8b e5		 mov	 esp, ebp
  0003d	5d		 pop	 ebp
  0003e	c2 08 00	 ret	 8
?GetControlType@CItemInfo@@QBEHHAAW4CONTROLTYPE@1@@Z ENDP ; CItemInfo::GetControlType
_TEXT	ENDS
; Function compile flags: /Ogtp
; File D:\git\src\IBK\IBK_DRFN\ProjSrc\SrcChartEx\ChartAddIn\ChartDesignPropertyAddIn\ChartDesignPropertyAddIn\SuperGridCtrl.h
; File C:\Program Files (x86)\Microsoft Visual Studio\2019\Community\VC\Tools\MSVC\14.29.30133\atlmfc\include\afxtempl.h
; File D:\git\src\IBK\IBK_DRFN\ProjSrc\SrcChartEx\ChartAddIn\ChartDesignPropertyAddIn\ChartDesignPropertyAddIn\SuperGridCtrl.h
; File C:\Program Files (x86)\Microsoft Visual Studio\2019\Community\VC\Tools\MSVC\14.29.30133\atlmfc\include\afxtempl.h
; File D:\git\src\IBK\IBK_DRFN\ProjSrc\SrcChartEx\ChartAddIn\ChartDesignPropertyAddIn\ChartDesignPropertyAddIn\SuperGridCtrl.h
;	COMDAT ??0CItemInfo@@QAE@XZ
_TEXT	SEGMENT
_this$ = -16						; size = 4
__$EHRec$ = -12						; size = 12
??0CItemInfo@@QAE@XZ PROC				; CItemInfo::CItemInfo, COMDAT
; _this$ = ecx

; 14   : 	CItemInfo():m_bCheck(0),m_iImage((const int)-1),m_lParam(NULL),m_clf((COLORREF)-1){};

  00000	55		 push	 ebp
  00001	8b ec		 mov	 ebp, esp
  00003	6a ff		 push	 -1
  00005	68 00 00 00 00	 push	 __ehhandler$??0CItemInfo@@QAE@XZ
  0000a	64 a1 00 00 00
	00		 mov	 eax, DWORD PTR fs:0
  00010	50		 push	 eax
  00011	51		 push	 ecx
  00012	56		 push	 esi
  00013	a1 00 00 00 00	 mov	 eax, DWORD PTR ___security_cookie
  00018	33 c5		 xor	 eax, ebp
  0001a	50		 push	 eax
  0001b	8d 45 f4	 lea	 eax, DWORD PTR __$EHRec$[ebp]
  0001e	64 a3 00 00 00
	00		 mov	 DWORD PTR fs:0, eax
  00024	8b f1		 mov	 esi, ecx
  00026	89 75 f0	 mov	 DWORD PTR _this$[ebp], esi
  00029	c7 06 00 00 00
	00		 mov	 DWORD PTR [esi], OFFSET ??_7CItemInfo@@6B@
  0002f	c7 46 04 00 00
	00 00		 mov	 DWORD PTR [esi+4], 0
; File C:\Program Files (x86)\Microsoft Visual Studio\2019\Community\VC\Tools\MSVC\14.29.30133\atlmfc\include\afxtempl.h

; 1403 : {

  00036	c7 46 0c 00 00
	00 00		 mov	 DWORD PTR [esi+12], OFFSET ??_7?$CMap@HHW4CONTROLTYPE@CItemInfo@@AAW412@@@6B@

; 1404 : 	ASSERT(nBlockSize > 0);
; 1405 : 
; 1406 : 	m_pHashTable = NULL;

  0003d	c7 46 10 00 00
	00 00		 mov	 DWORD PTR [esi+16], 0

; 1407 : 	m_nHashTableSize = 17;  // default size

  00044	c7 46 14 11 00
	00 00		 mov	 DWORD PTR [esi+20], 17	; 00000011H

; 1408 : 	m_nCount = 0;

  0004b	c7 46 18 00 00
	00 00		 mov	 DWORD PTR [esi+24], 0

; 1409 : 	m_pFreeList = NULL;

  00052	c7 46 1c 00 00
	00 00		 mov	 DWORD PTR [esi+28], 0

; 1410 : 	m_pBlocks = NULL;

  00059	c7 46 20 00 00
	00 00		 mov	 DWORD PTR [esi+32], 0

; 1411 : 	m_nBlockSize = nBlockSize;

  00060	c7 46 24 0a 00
	00 00		 mov	 DWORD PTR [esi+36], 10	; 0000000aH
; File D:\git\src\IBK\IBK_DRFN\ProjSrc\SrcChartEx\ChartAddIn\ChartDesignPropertyAddIn\ChartDesignPropertyAddIn\SuperGridCtrl.h

; 14   : 	CItemInfo():m_bCheck(0),m_iImage((const int)-1),m_lParam(NULL),m_clf((COLORREF)-1){};

  00067	c7 45 fc 00 00
	00 00		 mov	 DWORD PTR __$EHRec$[ebp+8], 0
; File C:\Program Files (x86)\Microsoft Visual Studio\2019\Community\VC\Tools\MSVC\14.29.30133\atlmfc\include\afxtempl.h

; 1403 : {

  0006e	c7 46 28 00 00
	00 00		 mov	 DWORD PTR [esi+40], OFFSET ??_7?$CMap@HHKAAK@@6B@

; 1404 : 	ASSERT(nBlockSize > 0);
; 1405 : 
; 1406 : 	m_pHashTable = NULL;

  00075	c7 46 2c 00 00
	00 00		 mov	 DWORD PTR [esi+44], 0

; 1407 : 	m_nHashTableSize = 17;  // default size

  0007c	c7 46 30 11 00
	00 00		 mov	 DWORD PTR [esi+48], 17	; 00000011H

; 1408 : 	m_nCount = 0;

  00083	c7 46 34 00 00
	00 00		 mov	 DWORD PTR [esi+52], 0

; 1409 : 	m_pFreeList = NULL;

  0008a	c7 46 38 00 00
	00 00		 mov	 DWORD PTR [esi+56], 0

; 1410 : 	m_pBlocks = NULL;

  00091	c7 46 3c 00 00
	00 00		 mov	 DWORD PTR [esi+60], 0

; 1411 : 	m_nBlockSize = nBlockSize;

  00098	c7 46 40 0a 00
	00 00		 mov	 DWORD PTR [esi+64], 10	; 0000000aH

; 1403 : {

  0009f	c7 46 44 00 00
	00 00		 mov	 DWORD PTR [esi+68], OFFSET ??_7?$CMap@HHPAVCStringList@@PAV1@@@6B@

; 1404 : 	ASSERT(nBlockSize > 0);
; 1405 : 
; 1406 : 	m_pHashTable = NULL;

  000a6	c7 46 48 00 00
	00 00		 mov	 DWORD PTR [esi+72], 0

; 1407 : 	m_nHashTableSize = 17;  // default size

  000ad	c7 46 4c 11 00
	00 00		 mov	 DWORD PTR [esi+76], 17	; 00000011H

; 1408 : 	m_nCount = 0;

  000b4	c7 46 50 00 00
	00 00		 mov	 DWORD PTR [esi+80], 0

; 1409 : 	m_pFreeList = NULL;

  000bb	c7 46 54 00 00
	00 00		 mov	 DWORD PTR [esi+84], 0

; 1410 : 	m_pBlocks = NULL;

  000c2	c7 46 58 00 00
	00 00		 mov	 DWORD PTR [esi+88], 0

; 1411 : 	m_nBlockSize = nBlockSize;

  000c9	c7 46 5c 0a 00
	00 00		 mov	 DWORD PTR [esi+92], 10	; 0000000aH
; File D:\git\src\IBK\IBK_DRFN\ProjSrc\SrcChartEx\ChartAddIn\ChartDesignPropertyAddIn\ChartDesignPropertyAddIn\SuperGridCtrl.h

; 14   : 	CItemInfo():m_bCheck(0),m_iImage((const int)-1),m_lParam(NULL),m_clf((COLORREF)-1){};

  000d0	8d 4e 60	 lea	 ecx, DWORD PTR [esi+96]
  000d3	ff 15 00 00 00
	00		 call	 DWORD PTR __imp_??0?$CStringT@DV?$StrTraitMFC_DLL@DV?$ChTraitsCRT@D@ATL@@@@@ATL@@QAE@XZ
  000d9	8d 4e 64	 lea	 ecx, DWORD PTR [esi+100]
  000dc	c6 45 fc 03	 mov	 BYTE PTR __$EHRec$[ebp+8], 3
  000e0	e8 00 00 00 00	 call	 ??0CStringArray@@QAE@XZ	; CStringArray::CStringArray
  000e5	c7 46 78 00 00
	00 00		 mov	 DWORD PTR [esi+120], 0
  000ec	8b c6		 mov	 eax, esi
  000ee	c7 46 7c ff ff
	ff ff		 mov	 DWORD PTR [esi+124], -1
  000f5	c7 86 80 00 00
	00 ff ff ff ff	 mov	 DWORD PTR [esi+128], -1
  000ff	8b 4d f4	 mov	 ecx, DWORD PTR __$EHRec$[ebp]
  00102	64 89 0d 00 00
	00 00		 mov	 DWORD PTR fs:0, ecx
  00109	59		 pop	 ecx
  0010a	5e		 pop	 esi
  0010b	8b e5		 mov	 esp, ebp
  0010d	5d		 pop	 ebp
  0010e	c3		 ret	 0
_TEXT	ENDS
;	COMDAT text$x
text$x	SEGMENT
__unwindfunclet$??0CItemInfo@@QAE@XZ$0:
  00000	8b 4d f0	 mov	 ecx, DWORD PTR _this$[ebp]
  00003	83 c1 0c	 add	 ecx, 12			; 0000000cH
  00006	e9 00 00 00 00	 jmp	 ??1?$CMap@HHW4CONTROLTYPE@CItemInfo@@AAW412@@@UAE@XZ ; CMap<int,int,enum CItemInfo::CONTROLTYPE,enum CItemInfo::CONTROLTYPE &>::~CMap<int,int,enum CItemInfo::CONTROLTYPE,enum CItemInfo::CONTROLTYPE &>
__unwindfunclet$??0CItemInfo@@QAE@XZ$1:
  0000b	8b 4d f0	 mov	 ecx, DWORD PTR _this$[ebp]
  0000e	83 c1 28	 add	 ecx, 40			; 00000028H
  00011	e9 00 00 00 00	 jmp	 ??1?$CMap@HHKAAK@@UAE@XZ ; CMap<int,int,unsigned long,unsigned long &>::~CMap<int,int,unsigned long,unsigned long &>
__unwindfunclet$??0CItemInfo@@QAE@XZ$2:
  00016	8b 4d f0	 mov	 ecx, DWORD PTR _this$[ebp]
  00019	83 c1 44	 add	 ecx, 68			; 00000044H
  0001c	e9 00 00 00 00	 jmp	 ??1?$CMap@HHPAVCStringList@@PAV1@@@UAE@XZ ; CMap<int,int,CStringList *,CStringList *>::~CMap<int,int,CStringList *,CStringList *>
__unwindfunclet$??0CItemInfo@@QAE@XZ$3:
  00021	8b 4d f0	 mov	 ecx, DWORD PTR _this$[ebp]
  00024	83 c1 60	 add	 ecx, 96			; 00000060H
  00027	ff 25 00 00 00
	00		 jmp	 DWORD PTR __imp_??1?$CStringT@DV?$StrTraitMFC_DLL@DV?$ChTraitsCRT@D@ATL@@@@@ATL@@QAE@XZ
  0002d	cc		 int	 3
  0002e	cc		 int	 3
  0002f	cc		 int	 3
  00030	cc		 int	 3
  00031	cc		 int	 3
__ehhandler$??0CItemInfo@@QAE@XZ:
  00032	90		 npad	 1
  00033	90		 npad	 1
  00034	8b 54 24 08	 mov	 edx, DWORD PTR [esp+8]
  00038	8d 42 0c	 lea	 eax, DWORD PTR [edx+12]
  0003b	8b 4a f4	 mov	 ecx, DWORD PTR [edx-12]
  0003e	33 c8		 xor	 ecx, eax
  00040	e8 00 00 00 00	 call	 @__security_check_cookie@4
  00045	b8 00 00 00 00	 mov	 eax, OFFSET __ehfuncinfo$??0CItemInfo@@QAE@XZ
  0004a	e9 00 00 00 00	 jmp	 ___CxxFrameHandler3
text$x	ENDS
??0CItemInfo@@QAE@XZ ENDP				; CItemInfo::CItemInfo
; Function compile flags: /Ogtp
; File D:\git\src\IBK\IBK_DRFN\ProjSrc\SrcChartEx\ChartAddIn\ChartDesignPropertyAddIn\Include_Chart\Dll_Load\IMetaTable.h
; File C:\Program Files (x86)\Microsoft Visual Studio\2019\Community\VC\Tools\MSVC\14.29.30133\atlmfc\include\afxwin1.inl
; File D:\git\src\IBK\IBK_DRFN\ProjSrc\SrcChartEx\ChartAddIn\ChartDesignPropertyAddIn\Include_Chart\Dll_Load\IMetaTable.h
;	COMDAT ??1CMultiLanguageResourceSetter@@QAE@XZ
_TEXT	SEGMENT
__$EHRec$ = -12						; size = 12
??1CMultiLanguageResourceSetter@@QAE@XZ PROC		; CMultiLanguageResourceSetter::~CMultiLanguageResourceSetter, COMDAT
; _this$ = ecx

; 1036 : 	{

  00000	55		 push	 ebp
  00001	8b ec		 mov	 ebp, esp
  00003	6a ff		 push	 -1
  00005	68 00 00 00 00	 push	 __ehhandler$??1CMultiLanguageResourceSetter@@QAE@XZ
  0000a	64 a1 00 00 00
	00		 mov	 eax, DWORD PTR fs:0
  00010	50		 push	 eax
  00011	56		 push	 esi
  00012	a1 00 00 00 00	 mov	 eax, DWORD PTR ___security_cookie
  00017	33 c5		 xor	 eax, ebp
  00019	50		 push	 eax
  0001a	8d 45 f4	 lea	 eax, DWORD PTR __$EHRec$[ebp]
  0001d	64 a3 00 00 00
	00		 mov	 DWORD PTR fs:0, eax

; 1037 : 		AfxSetResourceHandle( m_hInstance);

  00023	8b 31		 mov	 esi, DWORD PTR [ecx]
; File C:\Program Files (x86)\Microsoft Visual Studio\2019\Community\VC\Tools\MSVC\14.29.30133\atlmfc\include\afxwin1.inl

; 27   : 	{ ASSERT(hInstResource != NULL); afxCurrentResourceHandle = hInstResource; }

  00025	e8 00 00 00 00	 call	 ?AfxGetModuleState@@YGPAVAFX_MODULE_STATE@@XZ ; AfxGetModuleState
  0002a	89 70 0c	 mov	 DWORD PTR [eax+12], esi
; File D:\git\src\IBK\IBK_DRFN\ProjSrc\SrcChartEx\ChartAddIn\ChartDesignPropertyAddIn\Include_Chart\Dll_Load\IMetaTable.h

; 1038 : 	}

  0002d	8b 4d f4	 mov	 ecx, DWORD PTR __$EHRec$[ebp]
  00030	64 89 0d 00 00
	00 00		 mov	 DWORD PTR fs:0, ecx
  00037	59		 pop	 ecx
  00038	5e		 pop	 esi
  00039	8b e5		 mov	 esp, ebp
  0003b	5d		 pop	 ebp
  0003c	c3		 ret	 0
  0003d	cc		 int	 3
  0003e	cc		 int	 3
  0003f	cc		 int	 3
  00040	cc		 int	 3
  00041	cc		 int	 3
_TEXT	ENDS
;	COMDAT text$x
text$x	SEGMENT
__ehhandler$??1CMultiLanguageResourceSetter@@QAE@XZ:
  00000	90		 npad	 1
  00001	90		 npad	 1
  00002	8b 54 24 08	 mov	 edx, DWORD PTR [esp+8]
  00006	8d 42 0c	 lea	 eax, DWORD PTR [edx+12]
  00009	8b 4a f8	 mov	 ecx, DWORD PTR [edx-8]
  0000c	33 c8		 xor	 ecx, eax
  0000e	e8 00 00 00 00	 call	 @__security_check_cookie@4
  00013	b8 00 00 00 00	 mov	 eax, OFFSET __ehfuncinfo$??1CMultiLanguageResourceSetter@@QAE@XZ
  00018	e9 00 00 00 00	 jmp	 ___CxxFrameHandler3
text$x	ENDS
??1CMultiLanguageResourceSetter@@QAE@XZ ENDP		; CMultiLanguageResourceSetter::~CMultiLanguageResourceSetter
; Function compile flags: /Ogtp
; File C:\Program Files (x86)\Microsoft Visual Studio\2019\Community\VC\Tools\MSVC\14.29.30133\atlmfc\include\afxwin2.inl
; File C:\Program Files (x86)\Microsoft Visual Studio\2019\Community\VC\Tools\MSVC\14.29.30133\atlmfc\include\afxwin1.inl
; File C:\Program Files (x86)\Microsoft Visual Studio\2019\Community\VC\Tools\MSVC\14.29.30133\atlmfc\include\afxwin2.inl
;	COMDAT ??1CWaitCursor@@QAE@XZ
_TEXT	SEGMENT
_pException$2 = -540					; size = 4
_strMsg$3 = -536					; size = 4
_szErrorMessage$4 = -532				; size = 512
__$ArrayPad$ = -20					; size = 4
__$EHRec$ = -16						; size = 16
??1CWaitCursor@@QAE@XZ PROC				; CWaitCursor::~CWaitCursor, COMDAT
; _this$ = ecx

; 1090 : {

  00000	55		 push	 ebp
  00001	8b ec		 mov	 ebp, esp
  00003	6a ff		 push	 -1
  00005	68 00 00 00 00	 push	 __ehhandler$??1CWaitCursor@@QAE@XZ
  0000a	64 a1 00 00 00
	00		 mov	 eax, DWORD PTR fs:0
  00010	50		 push	 eax
  00011	81 ec 10 02 00
	00		 sub	 esp, 528		; 00000210H
  00017	a1 00 00 00 00	 mov	 eax, DWORD PTR ___security_cookie
  0001c	33 c5		 xor	 eax, ebp
  0001e	89 45 ec	 mov	 DWORD PTR __$ArrayPad$[ebp], eax
  00021	53		 push	 ebx
  00022	56		 push	 esi
  00023	57		 push	 edi
  00024	50		 push	 eax
  00025	8d 45 f4	 lea	 eax, DWORD PTR __$EHRec$[ebp+4]
  00028	64 a3 00 00 00
	00		 mov	 DWORD PTR fs:0, eax
  0002e	89 65 f0	 mov	 DWORD PTR __$EHRec$[ebp], esp

; 1091 : 	AFX_BEGIN_DESTRUCTOR

  00031	c7 45 fc 00 00
	00 00		 mov	 DWORD PTR __$EHRec$[ebp+12], 0
; File C:\Program Files (x86)\Microsoft Visual Studio\2019\Community\VC\Tools\MSVC\14.29.30133\atlmfc\include\afxwin1.inl

; 19   : 	{ return afxCurrentWinApp; }

  00038	e8 00 00 00 00	 call	 ?AfxGetModuleState@@YGPAVAFX_MODULE_STATE@@XZ ; AfxGetModuleState
; File C:\Program Files (x86)\Microsoft Visual Studio\2019\Community\VC\Tools\MSVC\14.29.30133\atlmfc\include\afxwin2.inl

; 1092 : 	AfxGetApp()->EndWaitCursor();

  0003d	8b 48 04	 mov	 ecx, DWORD PTR [eax+4]
  00040	e8 00 00 00 00	 call	 ?EndWaitCursor@CCmdTarget@@QAEXXZ ; CCmdTarget::EndWaitCursor
$LN18@CWaitCurso:

; 1094 : }

  00045	8b 4d f4	 mov	 ecx, DWORD PTR __$EHRec$[ebp+4]
  00048	64 89 0d 00 00
	00 00		 mov	 DWORD PTR fs:0, ecx
  0004f	59		 pop	 ecx
  00050	5f		 pop	 edi
  00051	5e		 pop	 esi
  00052	5b		 pop	 ebx
  00053	8b 4d ec	 mov	 ecx, DWORD PTR __$ArrayPad$[ebp]
  00056	33 cd		 xor	 ecx, ebp
  00058	e8 00 00 00 00	 call	 @__security_check_cookie@4
  0005d	8b e5		 mov	 esp, ebp
  0005f	5d		 pop	 ebp
  00060	c3		 ret	 0
__catch$??1CWaitCursor@@QAE@XZ$0:

; 1093 : 	AFX_END_DESTRUCTOR

  00061	8d 8d e8 fd ff
	ff		 lea	 ecx, DWORD PTR _strMsg$3[ebp]
  00067	ff 15 00 00 00
	00		 call	 DWORD PTR __imp_??0?$CStringT@DV?$StrTraitMFC_DLL@DV?$ChTraitsCRT@D@ATL@@@@@ATL@@QAE@XZ
  0006d	8b b5 e4 fd ff
	ff		 mov	 esi, DWORD PTR _pException$2[ebp]
  00073	8d 8d ec fd ff
	ff		 lea	 ecx, DWORD PTR _szErrorMessage$4[ebp]
  00079	6a 00		 push	 0
  0007b	68 00 02 00 00	 push	 512			; 00000200H
  00080	51		 push	 ecx
  00081	8b 06		 mov	 eax, DWORD PTR [esi]
  00083	8b ce		 mov	 ecx, esi
  00085	c6 45 fc 02	 mov	 BYTE PTR __$EHRec$[ebp+12], 2
  00089	ff 50 14	 call	 DWORD PTR [eax+20]
  0008c	85 c0		 test	 eax, eax
  0008e	74 2d		 je	 SHORT $LN9@CWaitCurso
  00090	8d 85 ec fd ff
	ff		 lea	 eax, DWORD PTR _szErrorMessage$4[ebp]
  00096	50		 push	 eax
  00097	68 45 04 00 00	 push	 1093			; 00000445H
  0009c	68 00 00 00 00	 push	 OFFSET ??_C@_0HD@BPLDAFHE@C?3?2Program?5Files?5?$CIx86?$CJ?2Microsof@
  000a1	68 00 00 00 00	 push	 OFFSET ??_C@_0BP@OIEOKIDM@Exception?5thrown?5in?5destructor@
  000a6	8d 85 e8 fd ff
	ff		 lea	 eax, DWORD PTR _strMsg$3[ebp]
  000ac	68 00 00 00 00	 push	 OFFSET ??_C@_0BB@HBOOMJBF@?$CFTs?5?$CI?$CFTs?3?$CFd?$CJ?6?$CFTs@
  000b1	50		 push	 eax
  000b2	ff 15 00 00 00
	00		 call	 DWORD PTR __imp_?Format@?$CStringT@DV?$StrTraitMFC_DLL@DV?$ChTraitsCRT@D@ATL@@@@@ATL@@QAAXPBDZZ
  000b8	83 c4 18	 add	 esp, 24			; 00000018H
  000bb	eb 24		 jmp	 SHORT $LN10@CWaitCurso
$LN9@CWaitCurso:
  000bd	68 45 04 00 00	 push	 1093			; 00000445H
  000c2	68 00 00 00 00	 push	 OFFSET ??_C@_0HD@BPLDAFHE@C?3?2Program?5Files?5?$CIx86?$CJ?2Microsof@
  000c7	68 00 00 00 00	 push	 OFFSET ??_C@_0BP@OIEOKIDM@Exception?5thrown?5in?5destructor@
  000cc	8d 85 e8 fd ff
	ff		 lea	 eax, DWORD PTR _strMsg$3[ebp]
  000d2	68 00 00 00 00	 push	 OFFSET ??_C@_0N@OMEMOKLE@?$CFTs?5?$CI?$CFTs?3?$CFd?$CJ@
  000d7	50		 push	 eax
  000d8	ff 15 00 00 00
	00		 call	 DWORD PTR __imp_?Format@?$CStringT@DV?$StrTraitMFC_DLL@DV?$ChTraitsCRT@D@ATL@@@@@ATL@@QAAXPBDZZ
  000de	83 c4 14	 add	 esp, 20			; 00000014H
$LN10@CWaitCurso:
  000e1	6a 00		 push	 0
  000e3	6a 00		 push	 0
  000e5	ff b5 e8 fd ff
	ff		 push	 DWORD PTR _strMsg$3[ebp]
  000eb	e8 00 00 00 00	 call	 ?AfxMessageBox@@YGHPBDII@Z ; AfxMessageBox
  000f0	8d 8d e8 fd ff
	ff		 lea	 ecx, DWORD PTR _strMsg$3[ebp]
  000f6	ff 15 00 00 00
	00		 call	 DWORD PTR __imp_??1?$CStringT@DV?$StrTraitMFC_DLL@DV?$ChTraitsCRT@D@ATL@@@@@ATL@@QAE@XZ
  000fc	8b 06		 mov	 eax, DWORD PTR [esi]
  000fe	8b ce		 mov	 ecx, esi
  00100	6a 01		 push	 1
  00102	ff 50 04	 call	 DWORD PTR [eax+4]
  00105	b8 00 00 00 00	 mov	 eax, $LN18@CWaitCurso
  0010a	c3		 ret	 0
_TEXT	ENDS
;	COMDAT text$x
text$x	SEGMENT
__unwindfunclet$??1CWaitCursor@@QAE@XZ$2:
  00000	8d 8d e8 fd ff
	ff		 lea	 ecx, DWORD PTR _strMsg$3[ebp]
  00006	ff 25 00 00 00
	00		 jmp	 DWORD PTR __imp_??1?$CStringT@DV?$StrTraitMFC_DLL@DV?$ChTraitsCRT@D@ATL@@@@@ATL@@QAE@XZ
  0000c	cc		 int	 3
  0000d	cc		 int	 3
  0000e	cc		 int	 3
  0000f	cc		 int	 3
  00010	cc		 int	 3
__ehhandler$??1CWaitCursor@@QAE@XZ:
  00011	90		 npad	 1
  00012	90		 npad	 1
  00013	8b 54 24 08	 mov	 edx, DWORD PTR [esp+8]
  00017	8d 42 0c	 lea	 eax, DWORD PTR [edx+12]
  0001a	8b 8a e0 fd ff
	ff		 mov	 ecx, DWORD PTR [edx-544]
  00020	33 c8		 xor	 ecx, eax
  00022	e8 00 00 00 00	 call	 @__security_check_cookie@4
  00027	8b 4a f8	 mov	 ecx, DWORD PTR [edx-8]
  0002a	33 c8		 xor	 ecx, eax
  0002c	e8 00 00 00 00	 call	 @__security_check_cookie@4
  00031	b8 00 00 00 00	 mov	 eax, OFFSET __ehfuncinfo$??1CWaitCursor@@QAE@XZ
  00036	e9 00 00 00 00	 jmp	 ___CxxFrameHandler3
text$x	ENDS
??1CWaitCursor@@QAE@XZ ENDP				; CWaitCursor::~CWaitCursor
; Function compile flags: /Ogtp
; File C:\Program Files (x86)\Microsoft Visual Studio\2019\Community\VC\Tools\MSVC\14.29.30133\atlmfc\include\afxwin2.inl
;	COMDAT ?EndModalState@CWnd@@UAEXXZ
_TEXT	SEGMENT
?EndModalState@CWnd@@UAEXXZ PROC			; CWnd::EndModalState, COMDAT
; _this$ = ecx

; 567  : 	{ ::EnableWindow(m_hWnd, TRUE); }

  00000	6a 01		 push	 1
  00002	ff 71 20	 push	 DWORD PTR [ecx+32]
  00005	ff 15 00 00 00
	00		 call	 DWORD PTR __imp__EnableWindow@8
  0000b	c3		 ret	 0
?EndModalState@CWnd@@UAEXXZ ENDP			; CWnd::EndModalState
_TEXT	ENDS
; Function compile flags: /Ogtp
; File C:\Program Files (x86)\Microsoft Visual Studio\2019\Community\VC\Tools\MSVC\14.29.30133\atlmfc\include\afxwin2.inl
;	COMDAT ?BeginModalState@CWnd@@UAEXXZ
_TEXT	SEGMENT
?BeginModalState@CWnd@@UAEXXZ PROC			; CWnd::BeginModalState, COMDAT
; _this$ = ecx

; 565  : 	{ ::EnableWindow(m_hWnd, FALSE); }

  00000	6a 00		 push	 0
  00002	ff 71 20	 push	 DWORD PTR [ecx+32]
  00005	ff 15 00 00 00
	00		 call	 DWORD PTR __imp__EnableWindow@8
  0000b	c3		 ret	 0
?BeginModalState@CWnd@@UAEXXZ ENDP			; CWnd::BeginModalState
_TEXT	ENDS
; Function compile flags: /Ogtp
; File C:\Program Files (x86)\Microsoft Visual Studio\2019\Community\VC\Tools\MSVC\14.29.30133\atlmfc\include\afxwin2.inl
;	COMDAT ?DoDataExchange@CWnd@@MAEXPAVCDataExchange@@@Z
_TEXT	SEGMENT
___formal$ = 8						; size = 4
?DoDataExchange@CWnd@@MAEXPAVCDataExchange@@@Z PROC	; CWnd::DoDataExchange, COMDAT
; _this$ = ecx

; 561  : 	{ } // default does nothing

  00000	c2 04 00	 ret	 4
?DoDataExchange@CWnd@@MAEXPAVCDataExchange@@@Z ENDP	; CWnd::DoDataExchange
_TEXT	ENDS
; Function compile flags: /Ogtp
; File C:\Program Files (x86)\Microsoft Visual Studio\2019\Community\VC\Tools\MSVC\14.29.30133\atlmfc\include\afx.inl
;	COMDAT ?Dump@CObject@@UBEXAAVCDumpContext@@@Z
_TEXT	SEGMENT
___formal$ = 8						; size = 4
?Dump@CObject@@UBEXAAVCDumpContext@@@Z PROC		; CObject::Dump, COMDAT
; _this$ = ecx

; 122  : 	{ /* no dumping in release builds */ }

  00000	c2 04 00	 ret	 4
?Dump@CObject@@UBEXAAVCDumpContext@@@Z ENDP		; CObject::Dump
_TEXT	ENDS
; Function compile flags: /Ogtp
; File C:\Program Files (x86)\Microsoft Visual Studio\2019\Community\VC\Tools\MSVC\14.29.30133\atlmfc\include\afx.inl
;	COMDAT ?AssertValid@CObject@@UBEXXZ
_TEXT	SEGMENT
?AssertValid@CObject@@UBEXXZ PROC			; CObject::AssertValid, COMDAT
; _this$ = ecx

; 120  : 	{ /* no asserts in release builds */ }

  00000	c2 00 00	 ret	 0
?AssertValid@CObject@@UBEXXZ ENDP			; CObject::AssertValid
_TEXT	ENDS
; Function compile flags: /Ogtp
; File C:\Program Files (x86)\Microsoft Visual Studio\2019\Community\VC\Tools\MSVC\14.29.30133\atlmfc\include\afx.inl
;	COMDAT ?Serialize@CObject@@UAEXAAVCArchive@@@Z
_TEXT	SEGMENT
___formal$ = 8						; size = 4
?Serialize@CObject@@UAEXAAVCArchive@@@Z PROC		; CObject::Serialize, COMDAT
; _this$ = ecx

; 106  : 	{ /* CObject does not serialize anything by default */ }

  00000	c2 04 00	 ret	 4
?Serialize@CObject@@UAEXAAVCArchive@@@Z ENDP		; CObject::Serialize
_TEXT	ENDS
; Function compile flags: /Ogtp
; File C:\Program Files (x86)\Microsoft Visual Studio\2019\Community\VC\Tools\MSVC\14.29.30133\atlmfc\include\afx.inl
;	COMDAT ??3CObject@@SGXPAX@Z
_TEXT	SEGMENT
_p$ = 8							; size = 4
??3CObject@@SGXPAX@Z PROC				; CObject::operator delete, COMDAT

; 112  : 	{ ::operator delete(p); }

  00000	55		 push	 ebp
  00001	8b ec		 mov	 ebp, esp
  00003	ff 75 08	 push	 DWORD PTR _p$[ebp]
  00006	e8 00 00 00 00	 call	 ??3@YAXPAX@Z		; operator delete
  0000b	83 c4 04	 add	 esp, 4
  0000e	5d		 pop	 ebp
  0000f	c2 04 00	 ret	 4
??3CObject@@SGXPAX@Z ENDP				; CObject::operator delete
_TEXT	ENDS
; Function compile flags: /Ogtp
; File C:\Program Files (x86)\Microsoft Visual Studio\2019\Community\VC\Tools\MSVC\14.29.30133\atlmfc\include\afx.inl
;	COMDAT ??1CObject@@UAE@XZ
_TEXT	SEGMENT
??1CObject@@UAE@XZ PROC					; CObject::~CObject, COMDAT
; _this$ = ecx

; 104  : 	{ }

  00000	c2 00 00	 ret	 0
??1CObject@@UAE@XZ ENDP					; CObject::~CObject
_TEXT	ENDS
; Function compile flags: /Ogtp
; File D:\git\src\IBK\IBK_DRFN\ProjSrc\SrcChartEx\ChartAddIn\ChartDesignPropertyAddIn\ChartDesignPropertyAddIn\ToolandRButtonGrid_ListCtrl.cpp
;	COMDAT ?__empty_global_delete@@YAXPAXI@Z
_TEXT	SEGMENT
___formal$ = 8						; size = 4
___formal$ = 12						; size = 4
?__empty_global_delete@@YAXPAXI@Z PROC			; __empty_global_delete, COMDAT

  00000	c2 00 00	 ret	 0
?__empty_global_delete@@YAXPAXI@Z ENDP			; __empty_global_delete
_TEXT	ENDS
; Function compile flags: /Ogtp
; File D:\git\src\IBK\IBK_DRFN\ProjSrc\SrcChartEx\ChartAddIn\ChartDesignPropertyAddIn\ChartDesignPropertyAddIn\ToolandRButtonGrid_ListCtrl.cpp
;	COMDAT ?__empty_global_delete@@YAXPAX@Z
_TEXT	SEGMENT
___formal$ = 8						; size = 4
?__empty_global_delete@@YAXPAX@Z PROC			; __empty_global_delete, COMDAT

  00000	c2 00 00	 ret	 0
?__empty_global_delete@@YAXPAX@Z ENDP			; __empty_global_delete
_TEXT	ENDS
END
