; Listing generated by Microsoft (R) Optimizing Compiler Version 19.29.30145.0 

	TITLE	D:\git\src\IBK\IBK_DRFN\#DRfn-CS\_Obj\ChartDesignPropertyAddIn\ToolandRButtonBase_ListCtrl.obj
	.686P
	.XMM
	include listing.inc
	.model	flat

INCLUDELIB MSVCRT
INCLUDELIB OLDNAMES

PUBLIC	?__empty_global_delete@@YAXPAX@Z		; __empty_global_delete
PUBLIC	?__empty_global_delete@@YAXPAXI@Z		; __empty_global_delete
PUBLIC	?Serialize@CObject@@UAEXAAVCArchive@@@Z		; CObject::Serialize
PUBLIC	?AssertValid@CObject@@UBEXXZ			; CObject::AssertValid
PUBLIC	?Dump@CObject@@UBEXAAVCDumpContext@@@Z		; CObject::Dump
PUBLIC	?DoDataExchange@CWnd@@MAEXPAVCDataExchange@@@Z	; CWnd::DoDataExchange
PUBLIC	?BeginModalState@CWnd@@UAEXXZ			; CWnd::BeginModalState
PUBLIC	?EndModalState@CWnd@@UAEXXZ			; CWnd::EndModalState
PUBLIC	??_GCListCtrl@@UAEPAXI@Z			; CListCtrl::`scalar deleting destructor'
PUBLIC	??0COleListCtrlDropTarget@@QAE@XZ		; COleListCtrlDropTarget::COleListCtrlDropTarget
PUBLIC	??1COleListCtrlDropTarget@@UAE@XZ		; COleListCtrlDropTarget::~COleListCtrlDropTarget
PUBLIC	?OnDragEnter@COleListCtrlDropTarget@@UAEKPAVCWnd@@PAVCOleDataObject@@KVCPoint@@@Z ; COleListCtrlDropTarget::OnDragEnter
PUBLIC	?OnDragOver@COleListCtrlDropTarget@@UAEKPAVCWnd@@PAVCOleDataObject@@KVCPoint@@@Z ; COleListCtrlDropTarget::OnDragOver
PUBLIC	?OnDragLeave@COleListCtrlDropTarget@@UAEXPAVCWnd@@@Z ; COleListCtrlDropTarget::OnDragLeave
PUBLIC	?OnDrop@COleListCtrlDropTarget@@UAEHPAVCWnd@@PAVCOleDataObject@@KVCPoint@@@Z ; COleListCtrlDropTarget::OnDrop
PUBLIC	?SetCurrentWindow@COleListCtrlDropTarget@@QAEXPAVCWnd@@@Z ; COleListCtrlDropTarget::SetCurrentWindow
PUBLIC	??_GCOleListCtrlDropTarget@@UAEPAXI@Z		; COleListCtrlDropTarget::`scalar deleting destructor'
PUBLIC	??0CToolandRButtonBase_ListCtrl@@QAE@XZ		; CToolandRButtonBase_ListCtrl::CToolandRButtonBase_ListCtrl
PUBLIC	??1CToolandRButtonBase_ListCtrl@@UAE@XZ		; CToolandRButtonBase_ListCtrl::~CToolandRButtonBase_ListCtrl
PUBLIC	?SelectedItemCount@CToolandRButtonBase_ListCtrl@@AAEHXZ ; CToolandRButtonBase_ListCtrl::SelectedItemCount
PUBLIC	?SelectedItemNames@CToolandRButtonBase_ListCtrl@@AAE?AV?$CStringT@DV?$StrTraitMFC_DLL@DV?$ChTraitsCRT@D@ATL@@@@@ATL@@XZ ; CToolandRButtonBase_ListCtrl::SelectedItemNames
PUBLIC	?InitDropTarget@CToolandRButtonBase_ListCtrl@@QAEXXZ ; CToolandRButtonBase_ListCtrl::InitDropTarget
PUBLIC	?OnBegindrag@CToolandRButtonBase_ListCtrl@@IAEXPAUtagNMHDR@@PAJ@Z ; CToolandRButtonBase_ListCtrl::OnBegindrag
PUBLIC	?GetThisMessageMap@CToolandRButtonBase_ListCtrl@@KGPBUAFX_MSGMAP@@XZ ; CToolandRButtonBase_ListCtrl::GetThisMessageMap
PUBLIC	?GetMessageMap@CToolandRButtonBase_ListCtrl@@MBEPBUAFX_MSGMAP@@XZ ; CToolandRButtonBase_ListCtrl::GetMessageMap
PUBLIC	??_GCToolandRButtonBase_ListCtrl@@UAEPAXI@Z	; CToolandRButtonBase_ListCtrl::`scalar deleting destructor'
PUBLIC	??_C@_00CNPNBAHC@@				; `string'
PUBLIC	??_7CListCtrl@@6B@				; CListCtrl::`vftable'
PUBLIC	??_R0?AVCObject@@@8				; CObject `RTTI Type Descriptor'
PUBLIC	??_R3CObject@@8					; CObject::`RTTI Class Hierarchy Descriptor'
PUBLIC	??_R2CObject@@8					; CObject::`RTTI Base Class Array'
PUBLIC	??_R1A@?0A@EA@CObject@@8			; CObject::`RTTI Base Class Descriptor at (0,-1,0,64)'
PUBLIC	??_R1A@?0A@EA@CWnd@@8				; CWnd::`RTTI Base Class Descriptor at (0,-1,0,64)'
PUBLIC	??_R0?AVCWnd@@@8				; CWnd `RTTI Type Descriptor'
PUBLIC	??_R3CWnd@@8					; CWnd::`RTTI Class Hierarchy Descriptor'
PUBLIC	??_R2CWnd@@8					; CWnd::`RTTI Base Class Array'
PUBLIC	??_R1A@?0A@EA@CCmdTarget@@8			; CCmdTarget::`RTTI Base Class Descriptor at (0,-1,0,64)'
PUBLIC	??_R0?AVCCmdTarget@@@8				; CCmdTarget `RTTI Type Descriptor'
PUBLIC	??_R3CCmdTarget@@8				; CCmdTarget::`RTTI Class Hierarchy Descriptor'
PUBLIC	??_R2CCmdTarget@@8				; CCmdTarget::`RTTI Base Class Array'
PUBLIC	??_R4CListCtrl@@6B@				; CListCtrl::`RTTI Complete Object Locator'
PUBLIC	??_R0?AVCListCtrl@@@8				; CListCtrl `RTTI Type Descriptor'
PUBLIC	??_R3CListCtrl@@8				; CListCtrl::`RTTI Class Hierarchy Descriptor'
PUBLIC	??_R2CListCtrl@@8				; CListCtrl::`RTTI Base Class Array'
PUBLIC	??_R1A@?0A@EA@CListCtrl@@8			; CListCtrl::`RTTI Base Class Descriptor at (0,-1,0,64)'
PUBLIC	??_7COleListCtrlDropTarget@@6B@			; COleListCtrlDropTarget::`vftable'
PUBLIC	??_7CToolandRButtonBase_ListCtrl@@6B@		; CToolandRButtonBase_ListCtrl::`vftable'
PUBLIC	??_C@_0CA@MGPAGIKN@Ole?5Register?5Drop?5Target?5Failed@ ; `string'
PUBLIC	??_C@_01ICJEACDI@?$DL@				; `string'
PUBLIC	??_R4COleListCtrlDropTarget@@6B@		; COleListCtrlDropTarget::`RTTI Complete Object Locator'
PUBLIC	??_R0?AVCOleListCtrlDropTarget@@@8		; COleListCtrlDropTarget `RTTI Type Descriptor'
PUBLIC	??_R3COleListCtrlDropTarget@@8			; COleListCtrlDropTarget::`RTTI Class Hierarchy Descriptor'
PUBLIC	??_R2COleListCtrlDropTarget@@8			; COleListCtrlDropTarget::`RTTI Base Class Array'
PUBLIC	??_R1A@?0A@EA@COleListCtrlDropTarget@@8		; COleListCtrlDropTarget::`RTTI Base Class Descriptor at (0,-1,0,64)'
PUBLIC	??_R1A@?0A@EA@COleDropTarget@@8			; COleDropTarget::`RTTI Base Class Descriptor at (0,-1,0,64)'
PUBLIC	??_R0?AVCOleDropTarget@@@8			; COleDropTarget `RTTI Type Descriptor'
PUBLIC	??_R3COleDropTarget@@8				; COleDropTarget::`RTTI Class Hierarchy Descriptor'
PUBLIC	??_R2COleDropTarget@@8				; COleDropTarget::`RTTI Base Class Array'
PUBLIC	??_R4CToolandRButtonBase_ListCtrl@@6B@		; CToolandRButtonBase_ListCtrl::`RTTI Complete Object Locator'
PUBLIC	??_R0?AVCToolandRButtonBase_ListCtrl@@@8	; CToolandRButtonBase_ListCtrl `RTTI Type Descriptor'
PUBLIC	??_R3CToolandRButtonBase_ListCtrl@@8		; CToolandRButtonBase_ListCtrl::`RTTI Class Hierarchy Descriptor'
PUBLIC	??_R2CToolandRButtonBase_ListCtrl@@8		; CToolandRButtonBase_ListCtrl::`RTTI Base Class Array'
PUBLIC	??_R1A@?0A@EA@CToolandRButtonBase_ListCtrl@@8	; CToolandRButtonBase_ListCtrl::`RTTI Base Class Descriptor at (0,-1,0,64)'
EXTRN	??3@YAXPAX@Z:PROC				; operator delete
EXTRN	?__global_delete@@YAXPAXI@Z:PROC		; __global_delete
EXTRN	__imp__GlobalAlloc@8:PROC
EXTRN	__imp__GlobalUnlock@4:PROC
EXTRN	__imp__GlobalLock@4:PROC
EXTRN	__imp__GlobalFree@4:PROC
EXTRN	__imp__SendMessageA@16:PROC
EXTRN	__imp__EnableWindow@8:PROC
EXTRN	__imp_?Concatenate@?$CSimpleStringT@D$00@ATL@@KAXAAV12@PBDH1H@Z:PROC
EXTRN	__imp_??0?$CStringT@DV?$StrTraitMFC_DLL@DV?$ChTraitsCRT@D@ATL@@@@@ATL@@QAE@PAUIAtlStringMgr@1@@Z:PROC
EXTRN	__imp_??0?$CStringT@DV?$StrTraitMFC_DLL@DV?$ChTraitsCRT@D@ATL@@@@@ATL@@QAE@PBD@Z:PROC
EXTRN	__imp_??1?$CStringT@DV?$StrTraitMFC_DLL@DV?$ChTraitsCRT@D@ATL@@@@@ATL@@QAE@XZ:PROC
EXTRN	__imp_??Y?$CStringT@DV?$StrTraitMFC_DLL@DV?$ChTraitsCRT@D@ATL@@@@@ATL@@QAEAAV01@ABV?$CSimpleStringT@D$00@1@@Z:PROC
EXTRN	__imp_?GetManager@?$CStringT@DV?$StrTraitMFC_DLL@DV?$ChTraitsCRT@D@ATL@@@@@ATL@@QBEPAUIAtlStringMgr@2@XZ:PROC
EXTRN	__imp_?TrimRight@?$CStringT@DV?$StrTraitMFC_DLL@DV?$ChTraitsCRT@D@ATL@@@@@ATL@@QAEAAV12@XZ:PROC
EXTRN	?GetRuntimeClass@CCmdTarget@@UBEPAUCRuntimeClass@@XZ:PROC ; CCmdTarget::GetRuntimeClass
EXTRN	?OnCmdMsg@CCmdTarget@@UAEHIHPAXPAUAFX_CMDHANDLERINFO@@@Z:PROC ; CCmdTarget::OnCmdMsg
EXTRN	?OnFinalRelease@CCmdTarget@@UAEXXZ:PROC		; CCmdTarget::OnFinalRelease
EXTRN	?IsInvokeAllowed@CCmdTarget@@UAEHJ@Z:PROC	; CCmdTarget::IsInvokeAllowed
EXTRN	?GetDispatchIID@CCmdTarget@@UAEHPAU_GUID@@@Z:PROC ; CCmdTarget::GetDispatchIID
EXTRN	?GetTypeInfoCount@CCmdTarget@@UAEIXZ:PROC	; CCmdTarget::GetTypeInfoCount
EXTRN	?GetTypeLibCache@CCmdTarget@@UAEPAVCTypeLibCache@@XZ:PROC ; CCmdTarget::GetTypeLibCache
EXTRN	?GetTypeLib@CCmdTarget@@UAEJKPAPAUITypeLib@@@Z:PROC ; CCmdTarget::GetTypeLib
EXTRN	?GetMessageMap@CCmdTarget@@MBEPBUAFX_MSGMAP@@XZ:PROC ; CCmdTarget::GetMessageMap
EXTRN	?GetCommandMap@CCmdTarget@@MBEPBUAFX_OLECMDMAP@@XZ:PROC ; CCmdTarget::GetCommandMap
EXTRN	?GetDispatchMap@CCmdTarget@@MBEPBUAFX_DISPMAP@@XZ:PROC ; CCmdTarget::GetDispatchMap
EXTRN	?GetConnectionMap@CCmdTarget@@MBEPBUAFX_CONNECTIONMAP@@XZ:PROC ; CCmdTarget::GetConnectionMap
EXTRN	?GetEventSinkMap@CCmdTarget@@MBEPBUAFX_EVENTSINKMAP@@XZ:PROC ; CCmdTarget::GetEventSinkMap
EXTRN	?OnCreateAggregates@CCmdTarget@@UAEHXZ:PROC	; CCmdTarget::OnCreateAggregates
EXTRN	?GetInterfaceHook@CCmdTarget@@UAEPAUIUnknown@@PBX@Z:PROC ; CCmdTarget::GetInterfaceHook
EXTRN	?GetExtraConnectionPoints@CCmdTarget@@MAEHPAVCPtrArray@@@Z:PROC ; CCmdTarget::GetExtraConnectionPoints
EXTRN	?GetConnectionHook@CCmdTarget@@MAEPAUIConnectionPoint@@ABU_GUID@@@Z:PROC ; CCmdTarget::GetConnectionHook
EXTRN	??0CWnd@@QAE@XZ:PROC				; CWnd::CWnd
EXTRN	?PreSubclassWindow@CWnd@@UAEXXZ:PROC		; CWnd::PreSubclassWindow
EXTRN	?Create@CWnd@@UAEHPBD0KABUtagRECT@@PAV1@IPAUCCreateContext@@@Z:PROC ; CWnd::Create
EXTRN	?CreateEx@CWnd@@UAEHKPBD0KHHHHPAUHWND__@@PAUHMENU__@@PAX@Z:PROC ; CWnd::CreateEx
EXTRN	?CreateEx@CWnd@@UAEHKPBD0KABUtagRECT@@PAV1@IPAX@Z:PROC ; CWnd::CreateEx
EXTRN	?DestroyWindow@CWnd@@UAEHXZ:PROC		; CWnd::DestroyWindow
EXTRN	?PreCreateWindow@CWnd@@UAEHAAUtagCREATESTRUCTA@@@Z:PROC ; CWnd::PreCreateWindow
EXTRN	?CalcWindowRect@CWnd@@UAEXPAUtagRECT@@I@Z:PROC	; CWnd::CalcWindowRect
EXTRN	?GetMenu@CWnd@@UBEPAVCMenu@@XZ:PROC		; CWnd::GetMenu
EXTRN	?SetMenu@CWnd@@UAEHPAVCMenu@@@Z:PROC		; CWnd::SetMenu
EXTRN	?OnToolHitTest@CWnd@@UBEHVCPoint@@PAUtagTOOLINFOA@@@Z:PROC ; CWnd::OnToolHitTest
EXTRN	?GetScrollBarCtrl@CWnd@@UBEPAVCScrollBar@@H@Z:PROC ; CWnd::GetScrollBarCtrl
EXTRN	?WinHelpA@CWnd@@UAEXKI@Z:PROC			; CWnd::WinHelpA
EXTRN	?HtmlHelpA@CWnd@@UAEXKI@Z:PROC			; CWnd::HtmlHelpA
EXTRN	?WinHelpInternal@CWnd@@UAEXKI@Z:PROC		; CWnd::WinHelpInternal
EXTRN	?ContinueModal@CWnd@@UAEHXZ:PROC		; CWnd::ContinueModal
EXTRN	?EndModalLoop@CWnd@@UAEXH@Z:PROC		; CWnd::EndModalLoop
EXTRN	?OnDrawIconicThumbnailOrLivePreview@CWnd@@UAEXAAVCDC@@VCRect@@VCSize@@HAAH@Z:PROC ; CWnd::OnDrawIconicThumbnailOrLivePreview
EXTRN	?GetInterfaceMap@CWnd@@MBEPBUAFX_INTERFACEMAP@@XZ:PROC ; CWnd::GetInterfaceMap
EXTRN	?EnsureStdObj@CWnd@@UAEJXZ:PROC			; CWnd::EnsureStdObj
EXTRN	?get_accParent@CWnd@@UAEJPAPAUIDispatch@@@Z:PROC ; CWnd::get_accParent
EXTRN	?get_accChildCount@CWnd@@UAEJPAJ@Z:PROC		; CWnd::get_accChildCount
EXTRN	?get_accChild@CWnd@@UAEJUtagVARIANT@@PAPAUIDispatch@@@Z:PROC ; CWnd::get_accChild
EXTRN	?get_accName@CWnd@@UAEJUtagVARIANT@@PAPA_W@Z:PROC ; CWnd::get_accName
EXTRN	?get_accValue@CWnd@@UAEJUtagVARIANT@@PAPA_W@Z:PROC ; CWnd::get_accValue
EXTRN	?get_accDescription@CWnd@@UAEJUtagVARIANT@@PAPA_W@Z:PROC ; CWnd::get_accDescription
EXTRN	?get_accRole@CWnd@@UAEJUtagVARIANT@@PAU2@@Z:PROC ; CWnd::get_accRole
EXTRN	?get_accState@CWnd@@UAEJUtagVARIANT@@PAU2@@Z:PROC ; CWnd::get_accState
EXTRN	?get_accHelp@CWnd@@UAEJUtagVARIANT@@PAPA_W@Z:PROC ; CWnd::get_accHelp
EXTRN	?get_accHelpTopic@CWnd@@UAEJPAPA_WUtagVARIANT@@PAJ@Z:PROC ; CWnd::get_accHelpTopic
EXTRN	?get_accKeyboardShortcut@CWnd@@UAEJUtagVARIANT@@PAPA_W@Z:PROC ; CWnd::get_accKeyboardShortcut
EXTRN	?get_accFocus@CWnd@@UAEJPAUtagVARIANT@@@Z:PROC	; CWnd::get_accFocus
EXTRN	?get_accSelection@CWnd@@UAEJPAUtagVARIANT@@@Z:PROC ; CWnd::get_accSelection
EXTRN	?get_accDefaultAction@CWnd@@UAEJUtagVARIANT@@PAPA_W@Z:PROC ; CWnd::get_accDefaultAction
EXTRN	?accSelect@CWnd@@UAEJJUtagVARIANT@@@Z:PROC	; CWnd::accSelect
EXTRN	?accLocation@CWnd@@UAEJPAJ000UtagVARIANT@@@Z:PROC ; CWnd::accLocation
EXTRN	?accNavigate@CWnd@@UAEJJUtagVARIANT@@PAU2@@Z:PROC ; CWnd::accNavigate
EXTRN	?accHitTest@CWnd@@UAEJJJPAUtagVARIANT@@@Z:PROC	; CWnd::accHitTest
EXTRN	?accDoDefaultAction@CWnd@@UAEJUtagVARIANT@@@Z:PROC ; CWnd::accDoDefaultAction
EXTRN	?put_accName@CWnd@@UAEJUtagVARIANT@@PA_W@Z:PROC	; CWnd::put_accName
EXTRN	?put_accValue@CWnd@@UAEJUtagVARIANT@@PA_W@Z:PROC ; CWnd::put_accValue
EXTRN	?SetProxy@CWnd@@UAEJPAUIAccessibleProxy@@@Z:PROC ; CWnd::SetProxy
EXTRN	?CreateAccessibleProxy@CWnd@@UAEJIJPAJ@Z:PROC	; CWnd::CreateAccessibleProxy
EXTRN	?OnCommand@CWnd@@MAEHIJ@Z:PROC			; CWnd::OnCommand
EXTRN	?OnNotify@CWnd@@MAEHIJPAJ@Z:PROC		; CWnd::OnNotify
EXTRN	?GetSuperWndProcAddr@CWnd@@MAEPAP6GJPAUHWND__@@IIJ@ZXZ:PROC ; CWnd::GetSuperWndProcAddr
EXTRN	?PreTranslateMessage@CWnd@@UAEHPAUtagMSG@@@Z:PROC ; CWnd::PreTranslateMessage
EXTRN	?OnAmbientProperty@CWnd@@UAEHPAVCOleControlSite@@JPAUtagVARIANT@@@Z:PROC ; CWnd::OnAmbientProperty
EXTRN	?WindowProc@CWnd@@MAEJIIJ@Z:PROC		; CWnd::WindowProc
EXTRN	?OnWndMsg@CWnd@@MAEHIIJPAJ@Z:PROC		; CWnd::OnWndMsg
EXTRN	?DefWindowProcA@CWnd@@MAEJIIJ@Z:PROC		; CWnd::DefWindowProcA
EXTRN	?PostNcDestroy@CWnd@@MAEXXZ:PROC		; CWnd::PostNcDestroy
EXTRN	?OnTouchInputs@CWnd@@MAEHIPAUtagTOUCHINPUT@@@Z:PROC ; CWnd::OnTouchInputs
EXTRN	?OnTouchInput@CWnd@@MAEHVCPoint@@HHPAUtagTOUCHINPUT@@@Z:PROC ; CWnd::OnTouchInput
EXTRN	?GetGestureStatus@CWnd@@MAEKVCPoint@@@Z:PROC	; CWnd::GetGestureStatus
EXTRN	?OnGestureZoom@CWnd@@MAEHVCPoint@@J@Z:PROC	; CWnd::OnGestureZoom
EXTRN	?OnGesturePan@CWnd@@MAEHVCPoint@@0@Z:PROC	; CWnd::OnGesturePan
EXTRN	?OnGestureRotate@CWnd@@MAEHVCPoint@@N@Z:PROC	; CWnd::OnGestureRotate
EXTRN	?OnGestureTwoFingerTap@CWnd@@MAEHVCPoint@@@Z:PROC ; CWnd::OnGestureTwoFingerTap
EXTRN	?OnGesturePressAndTap@CWnd@@MAEHVCPoint@@J@Z:PROC ; CWnd::OnGesturePressAndTap
EXTRN	?ResizeDynamicLayout@CWnd@@MAEXXZ:PROC		; CWnd::ResizeDynamicLayout
EXTRN	?CheckAutoCenter@CWnd@@UAEHXZ:PROC		; CWnd::CheckAutoCenter
EXTRN	?IsFrameWnd@CWnd@@UBEHXZ:PROC			; CWnd::IsFrameWnd
EXTRN	?OnFinalRelease@CWnd@@UAEXXZ:PROC		; CWnd::OnFinalRelease
EXTRN	?CreateControlContainer@CWnd@@MAEHPAPAVCOleControlContainer@@@Z:PROC ; CWnd::CreateControlContainer
EXTRN	?CreateControlSite@CWnd@@MAEHPAVCOleControlContainer@@PAPAVCOleControlSite@@IABU_GUID@@@Z:PROC ; CWnd::CreateControlSite
EXTRN	?SetOccDialogInfo@CWnd@@MAEHPAU_AFX_OCC_DIALOG_INFO@@@Z:PROC ; CWnd::SetOccDialogInfo
EXTRN	?GetOccDialogInfo@CWnd@@MAEPAU_AFX_OCC_DIALOG_INFO@@XZ:PROC ; CWnd::GetOccDialogInfo
EXTRN	?AfxMessageBox@@YGHPBDII@Z:PROC			; AfxMessageBox
EXTRN	?GetGlobalData@COleDataObject@@QAEPAXGPAUtagFORMATETC@@@Z:PROC ; COleDataObject::GetGlobalData
EXTRN	?IsDataAvailable@COleDataObject@@QAEHGPAUtagFORMATETC@@@Z:PROC ; COleDataObject::IsDataAvailable
EXTRN	??0COleDataSource@@QAE@XZ:PROC			; COleDataSource::COleDataSource
EXTRN	?CacheGlobalData@COleDataSource@@QAEXGPAXPAUtagFORMATETC@@@Z:PROC ; COleDataSource::CacheGlobalData
EXTRN	?DoDragDrop@COleDataSource@@QAEKKPBUtagRECT@@PAVCOleDropSource@@@Z:PROC ; COleDataSource::DoDragDrop
EXTRN	??1COleDataSource@@UAE@XZ:PROC			; COleDataSource::~COleDataSource
EXTRN	??0COleDropTarget@@QAE@XZ:PROC			; COleDropTarget::COleDropTarget
EXTRN	?Register@COleDropTarget@@QAEHPAVCWnd@@@Z:PROC	; COleDropTarget::Register
EXTRN	?Revoke@COleDropTarget@@UAEXXZ:PROC		; COleDropTarget::Revoke
EXTRN	?OnDropEx@COleDropTarget@@UAEKPAVCWnd@@PAVCOleDataObject@@KKVCPoint@@@Z:PROC ; COleDropTarget::OnDropEx
EXTRN	?OnDragLeave@COleDropTarget@@UAEXPAVCWnd@@@Z:PROC ; COleDropTarget::OnDragLeave
EXTRN	?OnDragScroll@COleDropTarget@@UAEKPAVCWnd@@KVCPoint@@@Z:PROC ; COleDropTarget::OnDragScroll
EXTRN	??1COleDropTarget@@UAE@XZ:PROC			; COleDropTarget::~COleDropTarget
EXTRN	?GetInterfaceMap@COleDropTarget@@MBEPBUAFX_INTERFACEMAP@@XZ:PROC ; COleDropTarget::GetInterfaceMap
EXTRN	?GetRuntimeClass@CListCtrl@@UBEPAUCRuntimeClass@@XZ:PROC ; CListCtrl::GetRuntimeClass
EXTRN	?GetItemText@CListCtrl@@QBEHHHPADH@Z:PROC	; CListCtrl::GetItemText
EXTRN	?DrawItem@CListCtrl@@UAEXPAUtagDRAWITEMSTRUCT@@@Z:PROC ; CListCtrl::DrawItem
EXTRN	??1CListCtrl@@UAE@XZ:PROC			; CListCtrl::~CListCtrl
EXTRN	?OnChildNotify@CListCtrl@@MAEHIIJPAJ@Z:PROC	; CListCtrl::OnChildNotify
EXTRN	?GetThisMessageMap@CListCtrl@@KGPBUAFX_MSGMAP@@XZ:PROC ; CListCtrl::GetThisMessageMap
EXTRN	?GetMessageMap@CListCtrl@@MBEPBUAFX_MSGMAP@@XZ:PROC ; CListCtrl::GetMessageMap
EXTRN	??_ECListCtrl@@UAEPAXI@Z:PROC			; CListCtrl::`vector deleting destructor'
EXTRN	??_ECOleListCtrlDropTarget@@UAEPAXI@Z:PROC	; COleListCtrlDropTarget::`vector deleting destructor'
EXTRN	??_ECToolandRButtonBase_ListCtrl@@UAEPAXI@Z:PROC ; CToolandRButtonBase_ListCtrl::`vector deleting destructor'
EXTRN	@__security_check_cookie@4:PROC
EXTRN	___CxxFrameHandler3:PROC
EXTRN	_memset:PROC
EXTRN	??_7type_info@@6B@:QWORD			; type_info::`vftable'
EXTRN	___security_cookie:DWORD
;	COMDAT ??_R1A@?0A@EA@CToolandRButtonBase_ListCtrl@@8
rdata$r	SEGMENT
??_R1A@?0A@EA@CToolandRButtonBase_ListCtrl@@8 DD FLAT:??_R0?AVCToolandRButtonBase_ListCtrl@@@8 ; CToolandRButtonBase_ListCtrl::`RTTI Base Class Descriptor at (0,-1,0,64)'
	DD	04H
	DD	00H
	DD	0ffffffffH
	DD	00H
	DD	040H
	DD	FLAT:??_R3CToolandRButtonBase_ListCtrl@@8
rdata$r	ENDS
;	COMDAT ??_R2CToolandRButtonBase_ListCtrl@@8
rdata$r	SEGMENT
??_R2CToolandRButtonBase_ListCtrl@@8 DD FLAT:??_R1A@?0A@EA@CToolandRButtonBase_ListCtrl@@8 ; CToolandRButtonBase_ListCtrl::`RTTI Base Class Array'
	DD	FLAT:??_R1A@?0A@EA@CListCtrl@@8
	DD	FLAT:??_R1A@?0A@EA@CWnd@@8
	DD	FLAT:??_R1A@?0A@EA@CCmdTarget@@8
	DD	FLAT:??_R1A@?0A@EA@CObject@@8
rdata$r	ENDS
;	COMDAT ??_R3CToolandRButtonBase_ListCtrl@@8
rdata$r	SEGMENT
??_R3CToolandRButtonBase_ListCtrl@@8 DD 00H		; CToolandRButtonBase_ListCtrl::`RTTI Class Hierarchy Descriptor'
	DD	00H
	DD	05H
	DD	FLAT:??_R2CToolandRButtonBase_ListCtrl@@8
rdata$r	ENDS
;	COMDAT ??_R0?AVCToolandRButtonBase_ListCtrl@@@8
data$rs	SEGMENT
??_R0?AVCToolandRButtonBase_ListCtrl@@@8 DD FLAT:??_7type_info@@6B@ ; CToolandRButtonBase_ListCtrl `RTTI Type Descriptor'
	DD	00H
	DB	'.?AVCToolandRButtonBase_ListCtrl@@', 00H
data$rs	ENDS
;	COMDAT ??_R4CToolandRButtonBase_ListCtrl@@6B@
rdata$r	SEGMENT
??_R4CToolandRButtonBase_ListCtrl@@6B@ DD 00H		; CToolandRButtonBase_ListCtrl::`RTTI Complete Object Locator'
	DD	00H
	DD	00H
	DD	FLAT:??_R0?AVCToolandRButtonBase_ListCtrl@@@8
	DD	FLAT:??_R3CToolandRButtonBase_ListCtrl@@8
rdata$r	ENDS
;	COMDAT ??_R2COleDropTarget@@8
rdata$r	SEGMENT
??_R2COleDropTarget@@8 DD FLAT:??_R1A@?0A@EA@COleDropTarget@@8 ; COleDropTarget::`RTTI Base Class Array'
	DD	FLAT:??_R1A@?0A@EA@CCmdTarget@@8
	DD	FLAT:??_R1A@?0A@EA@CObject@@8
rdata$r	ENDS
;	COMDAT ??_R3COleDropTarget@@8
rdata$r	SEGMENT
??_R3COleDropTarget@@8 DD 00H				; COleDropTarget::`RTTI Class Hierarchy Descriptor'
	DD	00H
	DD	03H
	DD	FLAT:??_R2COleDropTarget@@8
rdata$r	ENDS
;	COMDAT ??_R0?AVCOleDropTarget@@@8
data$rs	SEGMENT
??_R0?AVCOleDropTarget@@@8 DD FLAT:??_7type_info@@6B@	; COleDropTarget `RTTI Type Descriptor'
	DD	00H
	DB	'.?AVCOleDropTarget@@', 00H
data$rs	ENDS
;	COMDAT ??_R1A@?0A@EA@COleDropTarget@@8
rdata$r	SEGMENT
??_R1A@?0A@EA@COleDropTarget@@8 DD FLAT:??_R0?AVCOleDropTarget@@@8 ; COleDropTarget::`RTTI Base Class Descriptor at (0,-1,0,64)'
	DD	02H
	DD	00H
	DD	0ffffffffH
	DD	00H
	DD	040H
	DD	FLAT:??_R3COleDropTarget@@8
rdata$r	ENDS
;	COMDAT ??_R1A@?0A@EA@COleListCtrlDropTarget@@8
rdata$r	SEGMENT
??_R1A@?0A@EA@COleListCtrlDropTarget@@8 DD FLAT:??_R0?AVCOleListCtrlDropTarget@@@8 ; COleListCtrlDropTarget::`RTTI Base Class Descriptor at (0,-1,0,64)'
	DD	03H
	DD	00H
	DD	0ffffffffH
	DD	00H
	DD	040H
	DD	FLAT:??_R3COleListCtrlDropTarget@@8
rdata$r	ENDS
;	COMDAT ??_R2COleListCtrlDropTarget@@8
rdata$r	SEGMENT
??_R2COleListCtrlDropTarget@@8 DD FLAT:??_R1A@?0A@EA@COleListCtrlDropTarget@@8 ; COleListCtrlDropTarget::`RTTI Base Class Array'
	DD	FLAT:??_R1A@?0A@EA@COleDropTarget@@8
	DD	FLAT:??_R1A@?0A@EA@CCmdTarget@@8
	DD	FLAT:??_R1A@?0A@EA@CObject@@8
rdata$r	ENDS
;	COMDAT ??_R3COleListCtrlDropTarget@@8
rdata$r	SEGMENT
??_R3COleListCtrlDropTarget@@8 DD 00H			; COleListCtrlDropTarget::`RTTI Class Hierarchy Descriptor'
	DD	00H
	DD	04H
	DD	FLAT:??_R2COleListCtrlDropTarget@@8
rdata$r	ENDS
;	COMDAT ??_R0?AVCOleListCtrlDropTarget@@@8
data$rs	SEGMENT
??_R0?AVCOleListCtrlDropTarget@@@8 DD FLAT:??_7type_info@@6B@ ; COleListCtrlDropTarget `RTTI Type Descriptor'
	DD	00H
	DB	'.?AVCOleListCtrlDropTarget@@', 00H
data$rs	ENDS
;	COMDAT ??_R4COleListCtrlDropTarget@@6B@
rdata$r	SEGMENT
??_R4COleListCtrlDropTarget@@6B@ DD 00H			; COleListCtrlDropTarget::`RTTI Complete Object Locator'
	DD	00H
	DD	00H
	DD	FLAT:??_R0?AVCOleListCtrlDropTarget@@@8
	DD	FLAT:??_R3COleListCtrlDropTarget@@8
rdata$r	ENDS
;	COMDAT ??_C@_01ICJEACDI@?$DL@
CONST	SEGMENT
??_C@_01ICJEACDI@?$DL@ DB ';', 00H			; `string'
CONST	ENDS
;	COMDAT ?messageMap@?1??GetThisMessageMap@CToolandRButtonBase_ListCtrl@@KGPBUAFX_MSGMAP@@XZ@4U3@B
CONST	SEGMENT
?messageMap@?1??GetThisMessageMap@CToolandRButtonBase_ListCtrl@@KGPBUAFX_MSGMAP@@XZ@4U3@B DD FLAT:?GetThisMessageMap@CListCtrl@@KGPBUAFX_MSGMAP@@XZ ; `CToolandRButtonBase_ListCtrl::GetThisMessageMap'::`2'::messageMap
	DD	FLAT:?_messageEntries@?1??GetThisMessageMap@CToolandRButtonBase_ListCtrl@@KGPBUAFX_MSGMAP@@XZ@4QBUAFX_MSGMAP_ENTRY@@B
CONST	ENDS
;	COMDAT ?_messageEntries@?1??GetThisMessageMap@CToolandRButtonBase_ListCtrl@@KGPBUAFX_MSGMAP@@XZ@4QBUAFX_MSGMAP_ENTRY@@B
CONST	SEGMENT
?_messageEntries@?1??GetThisMessageMap@CToolandRButtonBase_ListCtrl@@KGPBUAFX_MSGMAP@@XZ@4QBUAFX_MSGMAP_ENTRY@@B DD 0bc4eH ; `CToolandRButtonBase_ListCtrl::GetThisMessageMap'::`2'::_messageEntries
	DD	0ff93H
	DD	00H
	DD	00H
	DD	03eH
	DD	FLAT:?OnBegindrag@CToolandRButtonBase_ListCtrl@@IAEXPAUtagNMHDR@@PAJ@Z
	DD	00H
	DD	00H
	DD	00H
	DD	00H
	DD	00H
	DD	00H
CONST	ENDS
;	COMDAT ??_C@_0CA@MGPAGIKN@Ole?5Register?5Drop?5Target?5Failed@
CONST	SEGMENT
??_C@_0CA@MGPAGIKN@Ole?5Register?5Drop?5Target?5Failed@ DB 'Ole Register '
	DB	'Drop Target Failed', 00H			; `string'
CONST	ENDS
;	COMDAT ??_7CToolandRButtonBase_ListCtrl@@6B@
CONST	SEGMENT
??_7CToolandRButtonBase_ListCtrl@@6B@ DD FLAT:??_R4CToolandRButtonBase_ListCtrl@@6B@ ; CToolandRButtonBase_ListCtrl::`vftable'
	DD	FLAT:?GetRuntimeClass@CListCtrl@@UBEPAUCRuntimeClass@@XZ
	DD	FLAT:??_ECToolandRButtonBase_ListCtrl@@UAEPAXI@Z
	DD	FLAT:?Serialize@CObject@@UAEXAAVCArchive@@@Z
	DD	FLAT:?AssertValid@CObject@@UBEXXZ
	DD	FLAT:?Dump@CObject@@UBEXAAVCDumpContext@@@Z
	DD	FLAT:?OnCmdMsg@CCmdTarget@@UAEHIHPAXPAUAFX_CMDHANDLERINFO@@@Z
	DD	FLAT:?OnFinalRelease@CWnd@@UAEXXZ
	DD	FLAT:?IsInvokeAllowed@CCmdTarget@@UAEHJ@Z
	DD	FLAT:?GetDispatchIID@CCmdTarget@@UAEHPAU_GUID@@@Z
	DD	FLAT:?GetTypeInfoCount@CCmdTarget@@UAEIXZ
	DD	FLAT:?GetTypeLibCache@CCmdTarget@@UAEPAVCTypeLibCache@@XZ
	DD	FLAT:?GetTypeLib@CCmdTarget@@UAEJKPAPAUITypeLib@@@Z
	DD	FLAT:?GetMessageMap@CToolandRButtonBase_ListCtrl@@MBEPBUAFX_MSGMAP@@XZ
	DD	FLAT:?GetCommandMap@CCmdTarget@@MBEPBUAFX_OLECMDMAP@@XZ
	DD	FLAT:?GetDispatchMap@CCmdTarget@@MBEPBUAFX_DISPMAP@@XZ
	DD	FLAT:?GetConnectionMap@CCmdTarget@@MBEPBUAFX_CONNECTIONMAP@@XZ
	DD	FLAT:?GetInterfaceMap@CWnd@@MBEPBUAFX_INTERFACEMAP@@XZ
	DD	FLAT:?GetEventSinkMap@CCmdTarget@@MBEPBUAFX_EVENTSINKMAP@@XZ
	DD	FLAT:?OnCreateAggregates@CCmdTarget@@UAEHXZ
	DD	FLAT:?GetInterfaceHook@CCmdTarget@@UAEPAUIUnknown@@PBX@Z
	DD	FLAT:?GetExtraConnectionPoints@CCmdTarget@@MAEHPAVCPtrArray@@@Z
	DD	FLAT:?GetConnectionHook@CCmdTarget@@MAEPAUIConnectionPoint@@ABU_GUID@@@Z
	DD	FLAT:?PreSubclassWindow@CWnd@@UAEXXZ
	DD	FLAT:?Create@CWnd@@UAEHPBD0KABUtagRECT@@PAV1@IPAUCCreateContext@@@Z
	DD	FLAT:?CreateEx@CWnd@@UAEHKPBD0KABUtagRECT@@PAV1@IPAX@Z
	DD	FLAT:?CreateEx@CWnd@@UAEHKPBD0KHHHHPAUHWND__@@PAUHMENU__@@PAX@Z
	DD	FLAT:?DestroyWindow@CWnd@@UAEHXZ
	DD	FLAT:?PreCreateWindow@CWnd@@UAEHAAUtagCREATESTRUCTA@@@Z
	DD	FLAT:?CalcWindowRect@CWnd@@UAEXPAUtagRECT@@I@Z
	DD	FLAT:?GetMenu@CWnd@@UBEPAVCMenu@@XZ
	DD	FLAT:?SetMenu@CWnd@@UAEHPAVCMenu@@@Z
	DD	FLAT:?OnToolHitTest@CWnd@@UBEHVCPoint@@PAUtagTOOLINFOA@@@Z
	DD	FLAT:?GetScrollBarCtrl@CWnd@@UBEPAVCScrollBar@@H@Z
	DD	FLAT:?WinHelpA@CWnd@@UAEXKI@Z
	DD	FLAT:?HtmlHelpA@CWnd@@UAEXKI@Z
	DD	FLAT:?WinHelpInternal@CWnd@@UAEXKI@Z
	DD	FLAT:?ContinueModal@CWnd@@UAEHXZ
	DD	FLAT:?EndModalLoop@CWnd@@UAEXH@Z
	DD	FLAT:?OnDrawIconicThumbnailOrLivePreview@CWnd@@UAEXAAVCDC@@VCRect@@VCSize@@HAAH@Z
	DD	FLAT:?EnsureStdObj@CWnd@@UAEJXZ
	DD	FLAT:?get_accParent@CWnd@@UAEJPAPAUIDispatch@@@Z
	DD	FLAT:?get_accChildCount@CWnd@@UAEJPAJ@Z
	DD	FLAT:?get_accChild@CWnd@@UAEJUtagVARIANT@@PAPAUIDispatch@@@Z
	DD	FLAT:?get_accName@CWnd@@UAEJUtagVARIANT@@PAPA_W@Z
	DD	FLAT:?get_accValue@CWnd@@UAEJUtagVARIANT@@PAPA_W@Z
	DD	FLAT:?get_accDescription@CWnd@@UAEJUtagVARIANT@@PAPA_W@Z
	DD	FLAT:?get_accRole@CWnd@@UAEJUtagVARIANT@@PAU2@@Z
	DD	FLAT:?get_accState@CWnd@@UAEJUtagVARIANT@@PAU2@@Z
	DD	FLAT:?get_accHelp@CWnd@@UAEJUtagVARIANT@@PAPA_W@Z
	DD	FLAT:?get_accHelpTopic@CWnd@@UAEJPAPA_WUtagVARIANT@@PAJ@Z
	DD	FLAT:?get_accKeyboardShortcut@CWnd@@UAEJUtagVARIANT@@PAPA_W@Z
	DD	FLAT:?get_accFocus@CWnd@@UAEJPAUtagVARIANT@@@Z
	DD	FLAT:?get_accSelection@CWnd@@UAEJPAUtagVARIANT@@@Z
	DD	FLAT:?get_accDefaultAction@CWnd@@UAEJUtagVARIANT@@PAPA_W@Z
	DD	FLAT:?accSelect@CWnd@@UAEJJUtagVARIANT@@@Z
	DD	FLAT:?accLocation@CWnd@@UAEJPAJ000UtagVARIANT@@@Z
	DD	FLAT:?accNavigate@CWnd@@UAEJJUtagVARIANT@@PAU2@@Z
	DD	FLAT:?accHitTest@CWnd@@UAEJJJPAUtagVARIANT@@@Z
	DD	FLAT:?accDoDefaultAction@CWnd@@UAEJUtagVARIANT@@@Z
	DD	FLAT:?put_accName@CWnd@@UAEJUtagVARIANT@@PA_W@Z
	DD	FLAT:?put_accValue@CWnd@@UAEJUtagVARIANT@@PA_W@Z
	DD	FLAT:?SetProxy@CWnd@@UAEJPAUIAccessibleProxy@@@Z
	DD	FLAT:?CreateAccessibleProxy@CWnd@@UAEJIJPAJ@Z
	DD	FLAT:?OnCommand@CWnd@@MAEHIJ@Z
	DD	FLAT:?OnNotify@CWnd@@MAEHIJPAJ@Z
	DD	FLAT:?GetSuperWndProcAddr@CWnd@@MAEPAP6GJPAUHWND__@@IIJ@ZXZ
	DD	FLAT:?DoDataExchange@CWnd@@MAEXPAVCDataExchange@@@Z
	DD	FLAT:?BeginModalState@CWnd@@UAEXXZ
	DD	FLAT:?EndModalState@CWnd@@UAEXXZ
	DD	FLAT:?PreTranslateMessage@CWnd@@UAEHPAUtagMSG@@@Z
	DD	FLAT:?OnAmbientProperty@CWnd@@UAEHPAVCOleControlSite@@JPAUtagVARIANT@@@Z
	DD	FLAT:?WindowProc@CWnd@@MAEJIIJ@Z
	DD	FLAT:?OnWndMsg@CWnd@@MAEHIIJPAJ@Z
	DD	FLAT:?DefWindowProcA@CWnd@@MAEJIIJ@Z
	DD	FLAT:?PostNcDestroy@CWnd@@MAEXXZ
	DD	FLAT:?OnChildNotify@CListCtrl@@MAEHIIJPAJ@Z
	DD	FLAT:?OnTouchInputs@CWnd@@MAEHIPAUtagTOUCHINPUT@@@Z
	DD	FLAT:?OnTouchInput@CWnd@@MAEHVCPoint@@HHPAUtagTOUCHINPUT@@@Z
	DD	FLAT:?GetGestureStatus@CWnd@@MAEKVCPoint@@@Z
	DD	FLAT:?OnGestureZoom@CWnd@@MAEHVCPoint@@J@Z
	DD	FLAT:?OnGesturePan@CWnd@@MAEHVCPoint@@0@Z
	DD	FLAT:?OnGestureRotate@CWnd@@MAEHVCPoint@@N@Z
	DD	FLAT:?OnGestureTwoFingerTap@CWnd@@MAEHVCPoint@@@Z
	DD	FLAT:?OnGesturePressAndTap@CWnd@@MAEHVCPoint@@J@Z
	DD	FLAT:?ResizeDynamicLayout@CWnd@@MAEXXZ
	DD	FLAT:?CheckAutoCenter@CWnd@@UAEHXZ
	DD	FLAT:?IsFrameWnd@CWnd@@UBEHXZ
	DD	FLAT:?CreateControlContainer@CWnd@@MAEHPAPAVCOleControlContainer@@@Z
	DD	FLAT:?CreateControlSite@CWnd@@MAEHPAVCOleControlContainer@@PAPAVCOleControlSite@@IABU_GUID@@@Z
	DD	FLAT:?SetOccDialogInfo@CWnd@@MAEHPAU_AFX_OCC_DIALOG_INFO@@@Z
	DD	FLAT:?GetOccDialogInfo@CWnd@@MAEPAU_AFX_OCC_DIALOG_INFO@@XZ
	DD	FLAT:?DrawItem@CListCtrl@@UAEXPAUtagDRAWITEMSTRUCT@@@Z
CONST	ENDS
;	COMDAT ??_7COleListCtrlDropTarget@@6B@
CONST	SEGMENT
??_7COleListCtrlDropTarget@@6B@ DD FLAT:??_R4COleListCtrlDropTarget@@6B@ ; COleListCtrlDropTarget::`vftable'
	DD	FLAT:?GetRuntimeClass@CCmdTarget@@UBEPAUCRuntimeClass@@XZ
	DD	FLAT:??_ECOleListCtrlDropTarget@@UAEPAXI@Z
	DD	FLAT:?Serialize@CObject@@UAEXAAVCArchive@@@Z
	DD	FLAT:?AssertValid@CObject@@UBEXXZ
	DD	FLAT:?Dump@CObject@@UBEXAAVCDumpContext@@@Z
	DD	FLAT:?OnCmdMsg@CCmdTarget@@UAEHIHPAXPAUAFX_CMDHANDLERINFO@@@Z
	DD	FLAT:?OnFinalRelease@CCmdTarget@@UAEXXZ
	DD	FLAT:?IsInvokeAllowed@CCmdTarget@@UAEHJ@Z
	DD	FLAT:?GetDispatchIID@CCmdTarget@@UAEHPAU_GUID@@@Z
	DD	FLAT:?GetTypeInfoCount@CCmdTarget@@UAEIXZ
	DD	FLAT:?GetTypeLibCache@CCmdTarget@@UAEPAVCTypeLibCache@@XZ
	DD	FLAT:?GetTypeLib@CCmdTarget@@UAEJKPAPAUITypeLib@@@Z
	DD	FLAT:?GetMessageMap@CCmdTarget@@MBEPBUAFX_MSGMAP@@XZ
	DD	FLAT:?GetCommandMap@CCmdTarget@@MBEPBUAFX_OLECMDMAP@@XZ
	DD	FLAT:?GetDispatchMap@CCmdTarget@@MBEPBUAFX_DISPMAP@@XZ
	DD	FLAT:?GetConnectionMap@CCmdTarget@@MBEPBUAFX_CONNECTIONMAP@@XZ
	DD	FLAT:?GetInterfaceMap@COleDropTarget@@MBEPBUAFX_INTERFACEMAP@@XZ
	DD	FLAT:?GetEventSinkMap@CCmdTarget@@MBEPBUAFX_EVENTSINKMAP@@XZ
	DD	FLAT:?OnCreateAggregates@CCmdTarget@@UAEHXZ
	DD	FLAT:?GetInterfaceHook@CCmdTarget@@UAEPAUIUnknown@@PBX@Z
	DD	FLAT:?GetExtraConnectionPoints@CCmdTarget@@MAEHPAVCPtrArray@@@Z
	DD	FLAT:?GetConnectionHook@CCmdTarget@@MAEPAUIConnectionPoint@@ABU_GUID@@@Z
	DD	FLAT:?Revoke@COleDropTarget@@UAEXXZ
	DD	FLAT:?OnDragEnter@COleListCtrlDropTarget@@UAEKPAVCWnd@@PAVCOleDataObject@@KVCPoint@@@Z
	DD	FLAT:?OnDragOver@COleListCtrlDropTarget@@UAEKPAVCWnd@@PAVCOleDataObject@@KVCPoint@@@Z
	DD	FLAT:?OnDrop@COleListCtrlDropTarget@@UAEHPAVCWnd@@PAVCOleDataObject@@KVCPoint@@@Z
	DD	FLAT:?OnDropEx@COleDropTarget@@UAEKPAVCWnd@@PAVCOleDataObject@@KKVCPoint@@@Z
	DD	FLAT:?OnDragLeave@COleListCtrlDropTarget@@UAEXPAVCWnd@@@Z
	DD	FLAT:?OnDragScroll@COleDropTarget@@UAEKPAVCWnd@@KVCPoint@@@Z
CONST	ENDS
;	COMDAT ??_R1A@?0A@EA@CListCtrl@@8
rdata$r	SEGMENT
??_R1A@?0A@EA@CListCtrl@@8 DD FLAT:??_R0?AVCListCtrl@@@8 ; CListCtrl::`RTTI Base Class Descriptor at (0,-1,0,64)'
	DD	03H
	DD	00H
	DD	0ffffffffH
	DD	00H
	DD	040H
	DD	FLAT:??_R3CListCtrl@@8
rdata$r	ENDS
;	COMDAT ??_R2CListCtrl@@8
rdata$r	SEGMENT
??_R2CListCtrl@@8 DD FLAT:??_R1A@?0A@EA@CListCtrl@@8	; CListCtrl::`RTTI Base Class Array'
	DD	FLAT:??_R1A@?0A@EA@CWnd@@8
	DD	FLAT:??_R1A@?0A@EA@CCmdTarget@@8
	DD	FLAT:??_R1A@?0A@EA@CObject@@8
rdata$r	ENDS
;	COMDAT ??_R3CListCtrl@@8
rdata$r	SEGMENT
??_R3CListCtrl@@8 DD 00H				; CListCtrl::`RTTI Class Hierarchy Descriptor'
	DD	00H
	DD	04H
	DD	FLAT:??_R2CListCtrl@@8
rdata$r	ENDS
;	COMDAT ??_R0?AVCListCtrl@@@8
data$rs	SEGMENT
??_R0?AVCListCtrl@@@8 DD FLAT:??_7type_info@@6B@	; CListCtrl `RTTI Type Descriptor'
	DD	00H
	DB	'.?AVCListCtrl@@', 00H
data$rs	ENDS
;	COMDAT ??_R4CListCtrl@@6B@
rdata$r	SEGMENT
??_R4CListCtrl@@6B@ DD 00H				; CListCtrl::`RTTI Complete Object Locator'
	DD	00H
	DD	00H
	DD	FLAT:??_R0?AVCListCtrl@@@8
	DD	FLAT:??_R3CListCtrl@@8
rdata$r	ENDS
;	COMDAT ??_R2CCmdTarget@@8
rdata$r	SEGMENT
??_R2CCmdTarget@@8 DD FLAT:??_R1A@?0A@EA@CCmdTarget@@8	; CCmdTarget::`RTTI Base Class Array'
	DD	FLAT:??_R1A@?0A@EA@CObject@@8
rdata$r	ENDS
;	COMDAT ??_R3CCmdTarget@@8
rdata$r	SEGMENT
??_R3CCmdTarget@@8 DD 00H				; CCmdTarget::`RTTI Class Hierarchy Descriptor'
	DD	00H
	DD	02H
	DD	FLAT:??_R2CCmdTarget@@8
rdata$r	ENDS
;	COMDAT ??_R0?AVCCmdTarget@@@8
data$rs	SEGMENT
??_R0?AVCCmdTarget@@@8 DD FLAT:??_7type_info@@6B@	; CCmdTarget `RTTI Type Descriptor'
	DD	00H
	DB	'.?AVCCmdTarget@@', 00H
data$rs	ENDS
;	COMDAT ??_R1A@?0A@EA@CCmdTarget@@8
rdata$r	SEGMENT
??_R1A@?0A@EA@CCmdTarget@@8 DD FLAT:??_R0?AVCCmdTarget@@@8 ; CCmdTarget::`RTTI Base Class Descriptor at (0,-1,0,64)'
	DD	01H
	DD	00H
	DD	0ffffffffH
	DD	00H
	DD	040H
	DD	FLAT:??_R3CCmdTarget@@8
rdata$r	ENDS
;	COMDAT ??_R2CWnd@@8
rdata$r	SEGMENT
??_R2CWnd@@8 DD	FLAT:??_R1A@?0A@EA@CWnd@@8		; CWnd::`RTTI Base Class Array'
	DD	FLAT:??_R1A@?0A@EA@CCmdTarget@@8
	DD	FLAT:??_R1A@?0A@EA@CObject@@8
rdata$r	ENDS
;	COMDAT ??_R3CWnd@@8
rdata$r	SEGMENT
??_R3CWnd@@8 DD	00H					; CWnd::`RTTI Class Hierarchy Descriptor'
	DD	00H
	DD	03H
	DD	FLAT:??_R2CWnd@@8
rdata$r	ENDS
;	COMDAT ??_R0?AVCWnd@@@8
data$rs	SEGMENT
??_R0?AVCWnd@@@8 DD FLAT:??_7type_info@@6B@		; CWnd `RTTI Type Descriptor'
	DD	00H
	DB	'.?AVCWnd@@', 00H
data$rs	ENDS
;	COMDAT ??_R1A@?0A@EA@CWnd@@8
rdata$r	SEGMENT
??_R1A@?0A@EA@CWnd@@8 DD FLAT:??_R0?AVCWnd@@@8		; CWnd::`RTTI Base Class Descriptor at (0,-1,0,64)'
	DD	02H
	DD	00H
	DD	0ffffffffH
	DD	00H
	DD	040H
	DD	FLAT:??_R3CWnd@@8
rdata$r	ENDS
;	COMDAT ??_R1A@?0A@EA@CObject@@8
rdata$r	SEGMENT
??_R1A@?0A@EA@CObject@@8 DD FLAT:??_R0?AVCObject@@@8	; CObject::`RTTI Base Class Descriptor at (0,-1,0,64)'
	DD	00H
	DD	00H
	DD	0ffffffffH
	DD	00H
	DD	040H
	DD	FLAT:??_R3CObject@@8
rdata$r	ENDS
;	COMDAT ??_R2CObject@@8
rdata$r	SEGMENT
??_R2CObject@@8 DD FLAT:??_R1A@?0A@EA@CObject@@8	; CObject::`RTTI Base Class Array'
rdata$r	ENDS
;	COMDAT ??_R3CObject@@8
rdata$r	SEGMENT
??_R3CObject@@8 DD 00H					; CObject::`RTTI Class Hierarchy Descriptor'
	DD	00H
	DD	01H
	DD	FLAT:??_R2CObject@@8
rdata$r	ENDS
;	COMDAT ??_R0?AVCObject@@@8
data$rs	SEGMENT
??_R0?AVCObject@@@8 DD FLAT:??_7type_info@@6B@		; CObject `RTTI Type Descriptor'
	DD	00H
	DB	'.?AVCObject@@', 00H
data$rs	ENDS
;	COMDAT ??_7CListCtrl@@6B@
CONST	SEGMENT
??_7CListCtrl@@6B@ DD FLAT:??_R4CListCtrl@@6B@		; CListCtrl::`vftable'
	DD	FLAT:?GetRuntimeClass@CListCtrl@@UBEPAUCRuntimeClass@@XZ
	DD	FLAT:??_ECListCtrl@@UAEPAXI@Z
	DD	FLAT:?Serialize@CObject@@UAEXAAVCArchive@@@Z
	DD	FLAT:?AssertValid@CObject@@UBEXXZ
	DD	FLAT:?Dump@CObject@@UBEXAAVCDumpContext@@@Z
	DD	FLAT:?OnCmdMsg@CCmdTarget@@UAEHIHPAXPAUAFX_CMDHANDLERINFO@@@Z
	DD	FLAT:?OnFinalRelease@CWnd@@UAEXXZ
	DD	FLAT:?IsInvokeAllowed@CCmdTarget@@UAEHJ@Z
	DD	FLAT:?GetDispatchIID@CCmdTarget@@UAEHPAU_GUID@@@Z
	DD	FLAT:?GetTypeInfoCount@CCmdTarget@@UAEIXZ
	DD	FLAT:?GetTypeLibCache@CCmdTarget@@UAEPAVCTypeLibCache@@XZ
	DD	FLAT:?GetTypeLib@CCmdTarget@@UAEJKPAPAUITypeLib@@@Z
	DD	FLAT:?GetMessageMap@CListCtrl@@MBEPBUAFX_MSGMAP@@XZ
	DD	FLAT:?GetCommandMap@CCmdTarget@@MBEPBUAFX_OLECMDMAP@@XZ
	DD	FLAT:?GetDispatchMap@CCmdTarget@@MBEPBUAFX_DISPMAP@@XZ
	DD	FLAT:?GetConnectionMap@CCmdTarget@@MBEPBUAFX_CONNECTIONMAP@@XZ
	DD	FLAT:?GetInterfaceMap@CWnd@@MBEPBUAFX_INTERFACEMAP@@XZ
	DD	FLAT:?GetEventSinkMap@CCmdTarget@@MBEPBUAFX_EVENTSINKMAP@@XZ
	DD	FLAT:?OnCreateAggregates@CCmdTarget@@UAEHXZ
	DD	FLAT:?GetInterfaceHook@CCmdTarget@@UAEPAUIUnknown@@PBX@Z
	DD	FLAT:?GetExtraConnectionPoints@CCmdTarget@@MAEHPAVCPtrArray@@@Z
	DD	FLAT:?GetConnectionHook@CCmdTarget@@MAEPAUIConnectionPoint@@ABU_GUID@@@Z
	DD	FLAT:?PreSubclassWindow@CWnd@@UAEXXZ
	DD	FLAT:?Create@CWnd@@UAEHPBD0KABUtagRECT@@PAV1@IPAUCCreateContext@@@Z
	DD	FLAT:?CreateEx@CWnd@@UAEHKPBD0KABUtagRECT@@PAV1@IPAX@Z
	DD	FLAT:?CreateEx@CWnd@@UAEHKPBD0KHHHHPAUHWND__@@PAUHMENU__@@PAX@Z
	DD	FLAT:?DestroyWindow@CWnd@@UAEHXZ
	DD	FLAT:?PreCreateWindow@CWnd@@UAEHAAUtagCREATESTRUCTA@@@Z
	DD	FLAT:?CalcWindowRect@CWnd@@UAEXPAUtagRECT@@I@Z
	DD	FLAT:?GetMenu@CWnd@@UBEPAVCMenu@@XZ
	DD	FLAT:?SetMenu@CWnd@@UAEHPAVCMenu@@@Z
	DD	FLAT:?OnToolHitTest@CWnd@@UBEHVCPoint@@PAUtagTOOLINFOA@@@Z
	DD	FLAT:?GetScrollBarCtrl@CWnd@@UBEPAVCScrollBar@@H@Z
	DD	FLAT:?WinHelpA@CWnd@@UAEXKI@Z
	DD	FLAT:?HtmlHelpA@CWnd@@UAEXKI@Z
	DD	FLAT:?WinHelpInternal@CWnd@@UAEXKI@Z
	DD	FLAT:?ContinueModal@CWnd@@UAEHXZ
	DD	FLAT:?EndModalLoop@CWnd@@UAEXH@Z
	DD	FLAT:?OnDrawIconicThumbnailOrLivePreview@CWnd@@UAEXAAVCDC@@VCRect@@VCSize@@HAAH@Z
	DD	FLAT:?EnsureStdObj@CWnd@@UAEJXZ
	DD	FLAT:?get_accParent@CWnd@@UAEJPAPAUIDispatch@@@Z
	DD	FLAT:?get_accChildCount@CWnd@@UAEJPAJ@Z
	DD	FLAT:?get_accChild@CWnd@@UAEJUtagVARIANT@@PAPAUIDispatch@@@Z
	DD	FLAT:?get_accName@CWnd@@UAEJUtagVARIANT@@PAPA_W@Z
	DD	FLAT:?get_accValue@CWnd@@UAEJUtagVARIANT@@PAPA_W@Z
	DD	FLAT:?get_accDescription@CWnd@@UAEJUtagVARIANT@@PAPA_W@Z
	DD	FLAT:?get_accRole@CWnd@@UAEJUtagVARIANT@@PAU2@@Z
	DD	FLAT:?get_accState@CWnd@@UAEJUtagVARIANT@@PAU2@@Z
	DD	FLAT:?get_accHelp@CWnd@@UAEJUtagVARIANT@@PAPA_W@Z
	DD	FLAT:?get_accHelpTopic@CWnd@@UAEJPAPA_WUtagVARIANT@@PAJ@Z
	DD	FLAT:?get_accKeyboardShortcut@CWnd@@UAEJUtagVARIANT@@PAPA_W@Z
	DD	FLAT:?get_accFocus@CWnd@@UAEJPAUtagVARIANT@@@Z
	DD	FLAT:?get_accSelection@CWnd@@UAEJPAUtagVARIANT@@@Z
	DD	FLAT:?get_accDefaultAction@CWnd@@UAEJUtagVARIANT@@PAPA_W@Z
	DD	FLAT:?accSelect@CWnd@@UAEJJUtagVARIANT@@@Z
	DD	FLAT:?accLocation@CWnd@@UAEJPAJ000UtagVARIANT@@@Z
	DD	FLAT:?accNavigate@CWnd@@UAEJJUtagVARIANT@@PAU2@@Z
	DD	FLAT:?accHitTest@CWnd@@UAEJJJPAUtagVARIANT@@@Z
	DD	FLAT:?accDoDefaultAction@CWnd@@UAEJUtagVARIANT@@@Z
	DD	FLAT:?put_accName@CWnd@@UAEJUtagVARIANT@@PA_W@Z
	DD	FLAT:?put_accValue@CWnd@@UAEJUtagVARIANT@@PA_W@Z
	DD	FLAT:?SetProxy@CWnd@@UAEJPAUIAccessibleProxy@@@Z
	DD	FLAT:?CreateAccessibleProxy@CWnd@@UAEJIJPAJ@Z
	DD	FLAT:?OnCommand@CWnd@@MAEHIJ@Z
	DD	FLAT:?OnNotify@CWnd@@MAEHIJPAJ@Z
	DD	FLAT:?GetSuperWndProcAddr@CWnd@@MAEPAP6GJPAUHWND__@@IIJ@ZXZ
	DD	FLAT:?DoDataExchange@CWnd@@MAEXPAVCDataExchange@@@Z
	DD	FLAT:?BeginModalState@CWnd@@UAEXXZ
	DD	FLAT:?EndModalState@CWnd@@UAEXXZ
	DD	FLAT:?PreTranslateMessage@CWnd@@UAEHPAUtagMSG@@@Z
	DD	FLAT:?OnAmbientProperty@CWnd@@UAEHPAVCOleControlSite@@JPAUtagVARIANT@@@Z
	DD	FLAT:?WindowProc@CWnd@@MAEJIIJ@Z
	DD	FLAT:?OnWndMsg@CWnd@@MAEHIIJPAJ@Z
	DD	FLAT:?DefWindowProcA@CWnd@@MAEJIIJ@Z
	DD	FLAT:?PostNcDestroy@CWnd@@MAEXXZ
	DD	FLAT:?OnChildNotify@CListCtrl@@MAEHIIJPAJ@Z
	DD	FLAT:?OnTouchInputs@CWnd@@MAEHIPAUtagTOUCHINPUT@@@Z
	DD	FLAT:?OnTouchInput@CWnd@@MAEHVCPoint@@HHPAUtagTOUCHINPUT@@@Z
	DD	FLAT:?GetGestureStatus@CWnd@@MAEKVCPoint@@@Z
	DD	FLAT:?OnGestureZoom@CWnd@@MAEHVCPoint@@J@Z
	DD	FLAT:?OnGesturePan@CWnd@@MAEHVCPoint@@0@Z
	DD	FLAT:?OnGestureRotate@CWnd@@MAEHVCPoint@@N@Z
	DD	FLAT:?OnGestureTwoFingerTap@CWnd@@MAEHVCPoint@@@Z
	DD	FLAT:?OnGesturePressAndTap@CWnd@@MAEHVCPoint@@J@Z
	DD	FLAT:?ResizeDynamicLayout@CWnd@@MAEXXZ
	DD	FLAT:?CheckAutoCenter@CWnd@@UAEHXZ
	DD	FLAT:?IsFrameWnd@CWnd@@UBEHXZ
	DD	FLAT:?CreateControlContainer@CWnd@@MAEHPAPAVCOleControlContainer@@@Z
	DD	FLAT:?CreateControlSite@CWnd@@MAEHPAVCOleControlContainer@@PAPAVCOleControlSite@@IABU_GUID@@@Z
	DD	FLAT:?SetOccDialogInfo@CWnd@@MAEHPAU_AFX_OCC_DIALOG_INFO@@@Z
	DD	FLAT:?GetOccDialogInfo@CWnd@@MAEPAU_AFX_OCC_DIALOG_INFO@@XZ
	DD	FLAT:?DrawItem@CListCtrl@@UAEXPAUtagDRAWITEMSTRUCT@@@Z
CONST	ENDS
;	COMDAT ??_C@_00CNPNBAHC@@
CONST	SEGMENT
??_C@_00CNPNBAHC@@ DB 00H				; `string'
CONST	ENDS
;	COMDAT xdata$x
xdata$x	SEGMENT
__unwindtable$?OnBegindrag@CToolandRButtonBase_ListCtrl@@IAEXPAUtagNMHDR@@PAJ@Z DD 0ffffffffH
	DD	FLAT:__unwindfunclet$?OnBegindrag@CToolandRButtonBase_ListCtrl@@IAEXPAUtagNMHDR@@PAJ@Z$1
	DD	00H
	DD	FLAT:__unwindfunclet$?OnBegindrag@CToolandRButtonBase_ListCtrl@@IAEXPAUtagNMHDR@@PAJ@Z$2
	DD	01H
	DD	FLAT:__unwindfunclet$?OnBegindrag@CToolandRButtonBase_ListCtrl@@IAEXPAUtagNMHDR@@PAJ@Z$4
__ehfuncinfo$?OnBegindrag@CToolandRButtonBase_ListCtrl@@IAEXPAUtagNMHDR@@PAJ@Z DD 019930522H
	DD	03H
	DD	FLAT:__unwindtable$?OnBegindrag@CToolandRButtonBase_ListCtrl@@IAEXPAUtagNMHDR@@PAJ@Z
	DD	2 DUP(00H)
	DD	2 DUP(00H)
	DD	00H
	DD	01H
xdata$x	ENDS
;	COMDAT xdata$x
xdata$x	SEGMENT
__unwindtable$?SelectedItemNames@CToolandRButtonBase_ListCtrl@@AAE?AV?$CStringT@DV?$StrTraitMFC_DLL@DV?$ChTraitsCRT@D@ATL@@@@@ATL@@XZ DD 0ffffffffH
	DD	FLAT:__unwindfunclet$?SelectedItemNames@CToolandRButtonBase_ListCtrl@@AAE?AV?$CStringT@DV?$StrTraitMFC_DLL@DV?$ChTraitsCRT@D@ATL@@@@@ATL@@XZ$0
	DD	00H
	DD	FLAT:__unwindfunclet$?SelectedItemNames@CToolandRButtonBase_ListCtrl@@AAE?AV?$CStringT@DV?$StrTraitMFC_DLL@DV?$ChTraitsCRT@D@ATL@@@@@ATL@@XZ$1
	DD	01H
	DD	FLAT:__unwindfunclet$?SelectedItemNames@CToolandRButtonBase_ListCtrl@@AAE?AV?$CStringT@DV?$StrTraitMFC_DLL@DV?$ChTraitsCRT@D@ATL@@@@@ATL@@XZ$3
__ehfuncinfo$?SelectedItemNames@CToolandRButtonBase_ListCtrl@@AAE?AV?$CStringT@DV?$StrTraitMFC_DLL@DV?$ChTraitsCRT@D@ATL@@@@@ATL@@XZ DD 019930522H
	DD	03H
	DD	FLAT:__unwindtable$?SelectedItemNames@CToolandRButtonBase_ListCtrl@@AAE?AV?$CStringT@DV?$StrTraitMFC_DLL@DV?$ChTraitsCRT@D@ATL@@@@@ATL@@XZ
	DD	2 DUP(00H)
	DD	2 DUP(00H)
	DD	00H
	DD	01H
xdata$x	ENDS
;	COMDAT xdata$x
xdata$x	SEGMENT
__unwindtable$??0CToolandRButtonBase_ListCtrl@@QAE@XZ DD 0ffffffffH
	DD	FLAT:__unwindfunclet$??0CToolandRButtonBase_ListCtrl@@QAE@XZ$0
	DD	00H
	DD	FLAT:__unwindfunclet$??0CToolandRButtonBase_ListCtrl@@QAE@XZ$1
__ehfuncinfo$??0CToolandRButtonBase_ListCtrl@@QAE@XZ DD 019930522H
	DD	02H
	DD	FLAT:__unwindtable$??0CToolandRButtonBase_ListCtrl@@QAE@XZ
	DD	2 DUP(00H)
	DD	2 DUP(00H)
	DD	00H
	DD	01H
xdata$x	ENDS
;	COMDAT xdata$x
xdata$x	SEGMENT
__unwindtable$??HATL@@YA?AV?$CStringT@DV?$StrTraitMFC_DLL@DV?$ChTraitsCRT@D@ATL@@@@@0@ABV10@PBD@Z DD 0ffffffffH
	DD	FLAT:__unwindfunclet$??HATL@@YA?AV?$CStringT@DV?$StrTraitMFC_DLL@DV?$ChTraitsCRT@D@ATL@@@@@0@ABV10@PBD@Z$0
__ehfuncinfo$??HATL@@YA?AV?$CStringT@DV?$StrTraitMFC_DLL@DV?$ChTraitsCRT@D@ATL@@@@@0@ABV10@PBD@Z DD 019930522H
	DD	01H
	DD	FLAT:__unwindtable$??HATL@@YA?AV?$CStringT@DV?$StrTraitMFC_DLL@DV?$ChTraitsCRT@D@ATL@@@@@0@ABV10@PBD@Z
	DD	2 DUP(00H)
	DD	2 DUP(00H)
	DD	00H
	DD	01H
xdata$x	ENDS
; Function compile flags: /Ogtp
; File D:\git\src\IBK\IBK_DRFN\ProjSrc\SrcChartEx\ChartAddIn\ChartDesignPropertyAddIn\ChartDesignPropertyAddIn\ToolandRButtonBase_ListCtrl.cpp
; File C:\Program Files (x86)\Microsoft Visual Studio\2019\Community\VC\Tools\MSVC\14.29.30133\atlmfc\include\afx.inl
;	COMDAT ??_GCToolandRButtonBase_ListCtrl@@UAEPAXI@Z
_TEXT	SEGMENT
___flags$ = 8						; size = 4
??_GCToolandRButtonBase_ListCtrl@@UAEPAXI@Z PROC	; CToolandRButtonBase_ListCtrl::`scalar deleting destructor', COMDAT
; _this$ = ecx
  00000	55		 push	 ebp
  00001	8b ec		 mov	 ebp, esp
; File D:\git\src\IBK\IBK_DRFN\ProjSrc\SrcChartEx\ChartAddIn\ChartDesignPropertyAddIn\ChartDesignPropertyAddIn\ToolandRButtonBase_ListCtrl.cpp

; 61   : {

  00003	56		 push	 esi
  00004	8b f1		 mov	 esi, ecx

; 62   : }

  00006	8d 8e b4 00 00
	00		 lea	 ecx, DWORD PTR [esi+180]
  0000c	c7 06 00 00 00
	00		 mov	 DWORD PTR [esi], OFFSET ??_7CToolandRButtonBase_ListCtrl@@6B@

; 113  : COleListCtrlDropTarget::~COleListCtrlDropTarget() {}

  00012	c7 01 00 00 00
	00		 mov	 DWORD PTR [ecx], OFFSET ??_7COleListCtrlDropTarget@@6B@
  00018	e8 00 00 00 00	 call	 ??1COleDropTarget@@UAE@XZ ; COleDropTarget::~COleDropTarget

; 62   : }

  0001d	8d 8e 80 00 00
	00		 lea	 ecx, DWORD PTR [esi+128]
  00023	e8 00 00 00 00	 call	 ??1COleDataSource@@UAE@XZ ; COleDataSource::~COleDataSource
  00028	8b ce		 mov	 ecx, esi
  0002a	e8 00 00 00 00	 call	 ??1CListCtrl@@UAE@XZ	; CListCtrl::~CListCtrl
  0002f	8b 45 08	 mov	 eax, DWORD PTR ___flags$[ebp]
  00032	a8 01		 test	 al, 1
  00034	74 22		 je	 SHORT $LN15@scalar
  00036	a8 04		 test	 al, 4
  00038	75 10		 jne	 SHORT $LN3@scalar
; File C:\Program Files (x86)\Microsoft Visual Studio\2019\Community\VC\Tools\MSVC\14.29.30133\atlmfc\include\afx.inl

; 112  : 	{ ::operator delete(p); }

  0003a	56		 push	 esi
  0003b	e8 00 00 00 00	 call	 ??3@YAXPAX@Z		; operator delete
  00040	83 c4 04	 add	 esp, 4
  00043	8b c6		 mov	 eax, esi
  00045	5e		 pop	 esi
  00046	5d		 pop	 ebp
  00047	c2 04 00	 ret	 4
$LN3@scalar:
  0004a	68 f0 00 00 00	 push	 240			; 000000f0H
  0004f	56		 push	 esi
  00050	e8 00 00 00 00	 call	 ?__global_delete@@YAXPAXI@Z ; __global_delete
  00055	83 c4 08	 add	 esp, 8
$LN15@scalar:
  00058	8b c6		 mov	 eax, esi
  0005a	5e		 pop	 esi
  0005b	5d		 pop	 ebp
  0005c	c2 04 00	 ret	 4
??_GCToolandRButtonBase_ListCtrl@@UAEPAXI@Z ENDP	; CToolandRButtonBase_ListCtrl::`scalar deleting destructor'
_TEXT	ENDS
; Function compile flags: /Ogtp
; File D:\git\src\IBK\IBK_DRFN\ProjSrc\SrcChartEx\ChartAddIn\ChartDesignPropertyAddIn\ChartDesignPropertyAddIn\ToolandRButtonBase_ListCtrl.cpp
;	COMDAT ?GetMessageMap@CToolandRButtonBase_ListCtrl@@MBEPBUAFX_MSGMAP@@XZ
_TEXT	SEGMENT
?GetMessageMap@CToolandRButtonBase_ListCtrl@@MBEPBUAFX_MSGMAP@@XZ PROC ; CToolandRButtonBase_ListCtrl::GetMessageMap, COMDAT
; _this$ = ecx

; 65   : BEGIN_MESSAGE_MAP(CToolandRButtonBase_ListCtrl, CListCtrl)

  00000	b8 00 00 00 00	 mov	 eax, OFFSET ?messageMap@?1??GetThisMessageMap@CToolandRButtonBase_ListCtrl@@KGPBUAFX_MSGMAP@@XZ@4U3@B
  00005	c3		 ret	 0
?GetMessageMap@CToolandRButtonBase_ListCtrl@@MBEPBUAFX_MSGMAP@@XZ ENDP ; CToolandRButtonBase_ListCtrl::GetMessageMap
_TEXT	ENDS
; Function compile flags: /Ogtp
; File D:\git\src\IBK\IBK_DRFN\ProjSrc\SrcChartEx\ChartAddIn\ChartDesignPropertyAddIn\ChartDesignPropertyAddIn\ToolandRButtonBase_ListCtrl.cpp
;	COMDAT ?GetThisMessageMap@CToolandRButtonBase_ListCtrl@@KGPBUAFX_MSGMAP@@XZ
_TEXT	SEGMENT
?GetThisMessageMap@CToolandRButtonBase_ListCtrl@@KGPBUAFX_MSGMAP@@XZ PROC ; CToolandRButtonBase_ListCtrl::GetThisMessageMap, COMDAT

; 66   : 	//{{AFX_MSG_MAP(CToolandRButtonBase_ListCtrl)
; 67   : 	ON_NOTIFY_REFLECT(LVN_BEGINDRAG, OnBegindrag)
; 68   : 	//}}AFX_MSG_MAP
; 69   : END_MESSAGE_MAP()

  00000	b8 00 00 00 00	 mov	 eax, OFFSET ?messageMap@?1??GetThisMessageMap@CToolandRButtonBase_ListCtrl@@KGPBUAFX_MSGMAP@@XZ@4U3@B
  00005	c3		 ret	 0
?GetThisMessageMap@CToolandRButtonBase_ListCtrl@@KGPBUAFX_MSGMAP@@XZ ENDP ; CToolandRButtonBase_ListCtrl::GetThisMessageMap
_TEXT	ENDS
; Function compile flags: /Ogtp
; File D:\git\src\IBK\IBK_DRFN\ProjSrc\SrcChartEx\ChartAddIn\ChartDesignPropertyAddIn\ChartDesignPropertyAddIn\ToolandRButtonBase_ListCtrl.cpp
; File C:\Program Files (x86)\Microsoft Visual Studio\2019\Community\VC\Tools\MSVC\14.29.30133\atlmfc\include\afxcmn.inl
; File D:\git\src\IBK\IBK_DRFN\ProjSrc\SrcChartEx\ChartAddIn\ChartDesignPropertyAddIn\ChartDesignPropertyAddIn\ToolandRButtonBase_ListCtrl.cpp
; File C:\Program Files (x86)\Microsoft Visual Studio\2019\Community\VC\Tools\MSVC\14.29.30133\atlmfc\include\afxcmn.inl
; File D:\git\src\IBK\IBK_DRFN\ProjSrc\SrcChartEx\ChartAddIn\ChartDesignPropertyAddIn\ChartDesignPropertyAddIn\ToolandRButtonBase_ListCtrl.cpp
; File C:\Program Files (x86)\Microsoft Visual Studio\2019\Community\VC\Tools\MSVC\14.29.30133\atlmfc\include\afxcmn.inl
; File D:\git\src\IBK\IBK_DRFN\ProjSrc\SrcChartEx\ChartAddIn\ChartDesignPropertyAddIn\ChartDesignPropertyAddIn\ToolandRButtonBase_ListCtrl.cpp
; File C:\Program Files (x86)\Microsoft Visual Studio\2019\Community\VC\Tools\MSVC\14.29.30133\atlmfc\include\afxcmn.inl
; File D:\git\src\IBK\IBK_DRFN\ProjSrc\SrcChartEx\ChartAddIn\ChartDesignPropertyAddIn\ChartDesignPropertyAddIn\ToolandRButtonBase_ListCtrl.cpp
; File C:\Program Files (x86)\Microsoft Visual Studio\2019\Community\VC\Tools\MSVC\14.29.30133\atlmfc\include\afxcmn.inl
; File D:\git\src\IBK\IBK_DRFN\ProjSrc\SrcChartEx\ChartAddIn\ChartDesignPropertyAddIn\ChartDesignPropertyAddIn\ToolandRButtonBase_ListCtrl.cpp
; File C:\Program Files (x86)\Microsoft Visual Studio\2019\Community\VC\Tools\MSVC\14.29.30133\atlmfc\include\afxcmn.inl
; File D:\git\src\IBK\IBK_DRFN\ProjSrc\SrcChartEx\ChartAddIn\ChartDesignPropertyAddIn\ChartDesignPropertyAddIn\ToolandRButtonBase_ListCtrl.cpp
; File C:\Program Files (x86)\Microsoft Visual Studio\2019\Community\VC\Tools\MSVC\14.29.30133\atlmfc\include\afxcmn.inl
; File D:\git\src\IBK\IBK_DRFN\ProjSrc\SrcChartEx\ChartAddIn\ChartDesignPropertyAddIn\ChartDesignPropertyAddIn\ToolandRButtonBase_ListCtrl.cpp
; File C:\Program Files (x86)\Microsoft Visual Studio\2019\Community\VC\Tools\MSVC\14.29.30133\atlmfc\include\afxcmn.inl
; File D:\git\src\IBK\IBK_DRFN\ProjSrc\SrcChartEx\ChartAddIn\ChartDesignPropertyAddIn\ChartDesignPropertyAddIn\ToolandRButtonBase_ListCtrl.cpp
; File C:\Program Files (x86)\Microsoft Visual Studio\2019\Community\VC\Tools\MSVC\14.29.30133\atlmfc\include\afxcmn.inl
; File D:\git\src\IBK\IBK_DRFN\ProjSrc\SrcChartEx\ChartAddIn\ChartDesignPropertyAddIn\ChartDesignPropertyAddIn\ToolandRButtonBase_ListCtrl.cpp
; File C:\Program Files (x86)\Microsoft Visual Studio\2019\Community\VC\Tools\MSVC\14.29.30133\atlmfc\include\afxcmn.inl
; File D:\git\src\IBK\IBK_DRFN\ProjSrc\SrcChartEx\ChartAddIn\ChartDesignPropertyAddIn\ChartDesignPropertyAddIn\ToolandRButtonBase_ListCtrl.cpp
; File C:\Program Files (x86)\Microsoft Visual Studio\2019\Community\VC\Tools\MSVC\14.29.30133\atlmfc\include\afxcmn.inl
; File D:\git\src\IBK\IBK_DRFN\ProjSrc\SrcChartEx\ChartAddIn\ChartDesignPropertyAddIn\ChartDesignPropertyAddIn\ToolandRButtonBase_ListCtrl.cpp
; File C:\Program Files (x86)\Microsoft Visual Studio\2019\Community\VC\Tools\MSVC\14.29.30133\atlmfc\include\afxcmn.inl
; File D:\git\src\IBK\IBK_DRFN\ProjSrc\SrcChartEx\ChartAddIn\ChartDesignPropertyAddIn\ChartDesignPropertyAddIn\ToolandRButtonBase_ListCtrl.cpp
; File C:\Program Files (x86)\Microsoft Visual Studio\2019\Community\VC\Tools\MSVC\14.29.30133\atlmfc\include\cstringt.h
; File D:\git\src\IBK\IBK_DRFN\ProjSrc\SrcChartEx\ChartAddIn\ChartDesignPropertyAddIn\ChartDesignPropertyAddIn\ToolandRButtonBase_ListCtrl.cpp
; File C:\Program Files (x86)\Microsoft Visual Studio\2019\Community\VC\Tools\MSVC\14.29.30133\atlmfc\include\cstringt.h
; File C:\Program Files (x86)\Microsoft Visual Studio\2019\Community\VC\Tools\MSVC\14.29.30133\atlmfc\include\atlsimpstr.h
; File C:\Program Files (x86)\Microsoft Visual Studio\2019\Community\VC\Tools\MSVC\14.29.30133\atlmfc\include\cstringt.h
; File D:\git\src\IBK\IBK_DRFN\ProjSrc\SrcChartEx\ChartAddIn\ChartDesignPropertyAddIn\ChartDesignPropertyAddIn\ToolandRButtonBase_ListCtrl.cpp
; File C:\Program Files (x86)\Microsoft Visual Studio\2019\Community\VC\Tools\MSVC\14.29.30133\atlmfc\include\atlsimpstr.h
; File D:\git\src\IBK\IBK_DRFN\ProjSrc\SrcChartEx\ChartAddIn\ChartDesignPropertyAddIn\ChartDesignPropertyAddIn\ToolandRButtonBase_ListCtrl.cpp
;	COMDAT ?OnBegindrag@CToolandRButtonBase_ListCtrl@@IAEXPAUtagNMHDR@@PAJ@Z
_TEXT	SEGMENT
_hGlobal$1$ = -108					; size = 4
_pos$1$ = -104						; size = 4
_pszGlobal$1$ = -100					; size = 4
$T2 = -96						; size = 4
$T3 = -92						; size = 4
_temp$4 = -88						; size = 4
$T5 = -84						; size = 4
_plist$6 = -80						; size = 64
__$ArrayPad$ = -16					; size = 4
__$EHRec$ = -12						; size = 12
_pNMHDR$ = 8						; size = 4
_pResult$ = 12						; size = 4
?OnBegindrag@CToolandRButtonBase_ListCtrl@@IAEXPAUtagNMHDR@@PAJ@Z PROC ; CToolandRButtonBase_ListCtrl::OnBegindrag, COMDAT
; _this$ = ecx

; 84   : {

  00000	55		 push	 ebp
  00001	8b ec		 mov	 ebp, esp
  00003	6a ff		 push	 -1
  00005	68 00 00 00 00	 push	 __ehhandler$?OnBegindrag@CToolandRButtonBase_ListCtrl@@IAEXPAUtagNMHDR@@PAJ@Z
  0000a	64 a1 00 00 00
	00		 mov	 eax, DWORD PTR fs:0
  00010	50		 push	 eax
  00011	83 ec 60	 sub	 esp, 96			; 00000060H
  00014	a1 00 00 00 00	 mov	 eax, DWORD PTR ___security_cookie
  00019	33 c5		 xor	 eax, ebp
  0001b	89 45 f0	 mov	 DWORD PTR __$ArrayPad$[ebp], eax
  0001e	53		 push	 ebx
  0001f	56		 push	 esi
  00020	57		 push	 edi
  00021	50		 push	 eax
  00022	8d 45 f4	 lea	 eax, DWORD PTR __$EHRec$[ebp]
  00025	64 a3 00 00 00
	00		 mov	 DWORD PTR fs:0, eax
  0002b	8b f9		 mov	 edi, ecx
; File C:\Program Files (x86)\Microsoft Visual Studio\2019\Community\VC\Tools\MSVC\14.29.30133\atlmfc\include\afxcmn.inl

; 177  : 	{ ASSERT(::IsWindow(m_hWnd)); return (int) ::SendMessage(m_hWnd, LVM_GETNEXTITEM, nItem, MAKELPARAM(nFlags, 0)); }

  0002d	6a 02		 push	 2
  0002f	6a ff		 push	 -1
; File D:\git\src\IBK\IBK_DRFN\ProjSrc\SrcChartEx\ChartAddIn\ChartDesignPropertyAddIn\ChartDesignPropertyAddIn\ToolandRButtonBase_ListCtrl.cpp

; 84   : {

  00031	c7 45 ac 00 00
	00 00		 mov	 DWORD PTR $T5[ebp], 0

; 299  :    int nValue = 0;

  00038	33 f6		 xor	 esi, esi
; File C:\Program Files (x86)\Microsoft Visual Studio\2019\Community\VC\Tools\MSVC\14.29.30133\atlmfc\include\afxcmn.inl

; 177  : 	{ ASSERT(::IsWindow(m_hWnd)); return (int) ::SendMessage(m_hWnd, LVM_GETNEXTITEM, nItem, MAKELPARAM(nFlags, 0)); }

  0003a	8b 1d 00 00 00
	00		 mov	 ebx, DWORD PTR __imp__SendMessageA@16
  00040	68 0c 10 00 00	 push	 4108			; 0000100cH
  00045	ff 77 20	 push	 DWORD PTR [edi+32]
  00048	ff d3		 call	 ebx

; 179  : 	{ ASSERT(::IsWindow(m_hWnd)); return (POSITION)(DWORD_PTR)(1+GetNextItem(-1, LVIS_SELECTED)); }

  0004a	83 c0 01	 add	 eax, 1
; File D:\git\src\IBK\IBK_DRFN\ProjSrc\SrcChartEx\ChartAddIn\ChartDesignPropertyAddIn\ChartDesignPropertyAddIn\ToolandRButtonBase_ListCtrl.cpp

; 301  :    while (pos) {

  0004d	74 15		 je	 SHORT $LN8@OnBegindra
  0004f	90		 npad	 1
$LL7@OnBegindra:
; File C:\Program Files (x86)\Microsoft Visual Studio\2019\Community\VC\Tools\MSVC\14.29.30133\atlmfc\include\afxcmn.inl

; 177  : 	{ ASSERT(::IsWindow(m_hWnd)); return (int) ::SendMessage(m_hWnd, LVM_GETNEXTITEM, nItem, MAKELPARAM(nFlags, 0)); }

  00050	6a 02		 push	 2

; 181  : 	{ ASSERT(::IsWindow(m_hWnd)); DWORD_PTR nOldPos = (DWORD_PTR)pos-1; pos = (POSITION)(DWORD_PTR)(1+GetNextItem((UINT)nOldPos, LVIS_SELECTED)); return (UINT)nOldPos; }

  00052	48		 dec	 eax

; 177  : 	{ ASSERT(::IsWindow(m_hWnd)); return (int) ::SendMessage(m_hWnd, LVM_GETNEXTITEM, nItem, MAKELPARAM(nFlags, 0)); }

  00053	50		 push	 eax
  00054	68 0c 10 00 00	 push	 4108			; 0000100cH
  00059	ff 77 20	 push	 DWORD PTR [edi+32]
  0005c	ff d3		 call	 ebx
; File D:\git\src\IBK\IBK_DRFN\ProjSrc\SrcChartEx\ChartAddIn\ChartDesignPropertyAddIn\ChartDesignPropertyAddIn\ToolandRButtonBase_ListCtrl.cpp

; 303  : 	  nValue++;

  0005e	46		 inc	 esi
; File C:\Program Files (x86)\Microsoft Visual Studio\2019\Community\VC\Tools\MSVC\14.29.30133\atlmfc\include\afxcmn.inl

; 181  : 	{ ASSERT(::IsWindow(m_hWnd)); DWORD_PTR nOldPos = (DWORD_PTR)pos-1; pos = (POSITION)(DWORD_PTR)(1+GetNextItem((UINT)nOldPos, LVIS_SELECTED)); return (UINT)nOldPos; }

  0005f	83 c0 01	 add	 eax, 1
; File D:\git\src\IBK\IBK_DRFN\ProjSrc\SrcChartEx\ChartAddIn\ChartDesignPropertyAddIn\ChartDesignPropertyAddIn\ToolandRButtonBase_ListCtrl.cpp

; 301  :    while (pos) {

  00062	75 ec		 jne	 SHORT $LL7@OnBegindra
$LN8@OnBegindra:

; 85   : 	NM_LISTVIEW* pNMListView = (NM_LISTVIEW*)pNMHDR;
; 86   : 	
; 87   :     int   iItem = pNMListView->iItem; 
; 88   :     int   iSubItem = pNMListView->iSubItem; 
; 89   : 
; 90   : 	HGLOBAL hGlobal = NULL;
; 91   : 	ToolItem *pszGlobal = NULL;
; 92   : 	hGlobal = GlobalAlloc( GMEM_SHARE, sizeof(ToolItem) * SelectedItemCount());

  00064	8b c6		 mov	 eax, esi
  00066	c1 e0 04	 shl	 eax, 4
  00069	03 c6		 add	 eax, esi
  0006b	c1 e0 02	 shl	 eax, 2
  0006e	50		 push	 eax
  0006f	68 00 20 00 00	 push	 8192			; 00002000H
  00074	ff 15 00 00 00
	00		 call	 DWORD PTR __imp__GlobalAlloc@8

; 93   : 	pszGlobal = (ToolItem *)((LPSTR)GlobalLock( hGlobal ));

  0007a	50		 push	 eax
  0007b	89 45 94	 mov	 DWORD PTR _hGlobal$1$[ebp], eax
  0007e	ff 15 00 00 00
	00		 call	 DWORD PTR __imp__GlobalLock@4
; File C:\Program Files (x86)\Microsoft Visual Studio\2019\Community\VC\Tools\MSVC\14.29.30133\atlmfc\include\afxcmn.inl

; 177  : 	{ ASSERT(::IsWindow(m_hWnd)); return (int) ::SendMessage(m_hWnd, LVM_GETNEXTITEM, nItem, MAKELPARAM(nFlags, 0)); }

  00084	6a 02		 push	 2
  00086	6a ff		 push	 -1
  00088	68 0c 10 00 00	 push	 4108			; 0000100cH
  0008d	ff 77 20	 push	 DWORD PTR [edi+32]
; File D:\git\src\IBK\IBK_DRFN\ProjSrc\SrcChartEx\ChartAddIn\ChartDesignPropertyAddIn\ChartDesignPropertyAddIn\ToolandRButtonBase_ListCtrl.cpp

; 93   : 	pszGlobal = (ToolItem *)((LPSTR)GlobalLock( hGlobal ));

  00090	89 45 9c	 mov	 DWORD PTR _pszGlobal$1$[ebp], eax

; 299  :    int nValue = 0;

  00093	33 f6		 xor	 esi, esi
; File C:\Program Files (x86)\Microsoft Visual Studio\2019\Community\VC\Tools\MSVC\14.29.30133\atlmfc\include\afxcmn.inl

; 177  : 	{ ASSERT(::IsWindow(m_hWnd)); return (int) ::SendMessage(m_hWnd, LVM_GETNEXTITEM, nItem, MAKELPARAM(nFlags, 0)); }

  00095	ff d3		 call	 ebx

; 179  : 	{ ASSERT(::IsWindow(m_hWnd)); return (POSITION)(DWORD_PTR)(1+GetNextItem(-1, LVIS_SELECTED)); }

  00097	83 c0 01	 add	 eax, 1
; File D:\git\src\IBK\IBK_DRFN\ProjSrc\SrcChartEx\ChartAddIn\ChartDesignPropertyAddIn\ChartDesignPropertyAddIn\ToolandRButtonBase_ListCtrl.cpp

; 301  :    while (pos) {

  0009a	74 18		 je	 SHORT $LN20@OnBegindra
  0009c	0f 1f 40 00	 npad	 4
$LL19@OnBegindra:
; File C:\Program Files (x86)\Microsoft Visual Studio\2019\Community\VC\Tools\MSVC\14.29.30133\atlmfc\include\afxcmn.inl

; 177  : 	{ ASSERT(::IsWindow(m_hWnd)); return (int) ::SendMessage(m_hWnd, LVM_GETNEXTITEM, nItem, MAKELPARAM(nFlags, 0)); }

  000a0	6a 02		 push	 2

; 181  : 	{ ASSERT(::IsWindow(m_hWnd)); DWORD_PTR nOldPos = (DWORD_PTR)pos-1; pos = (POSITION)(DWORD_PTR)(1+GetNextItem((UINT)nOldPos, LVIS_SELECTED)); return (UINT)nOldPos; }

  000a2	48		 dec	 eax

; 177  : 	{ ASSERT(::IsWindow(m_hWnd)); return (int) ::SendMessage(m_hWnd, LVM_GETNEXTITEM, nItem, MAKELPARAM(nFlags, 0)); }

  000a3	50		 push	 eax
  000a4	68 0c 10 00 00	 push	 4108			; 0000100cH
  000a9	ff 77 20	 push	 DWORD PTR [edi+32]
  000ac	ff d3		 call	 ebx
; File D:\git\src\IBK\IBK_DRFN\ProjSrc\SrcChartEx\ChartAddIn\ChartDesignPropertyAddIn\ChartDesignPropertyAddIn\ToolandRButtonBase_ListCtrl.cpp

; 303  : 	  nValue++;

  000ae	46		 inc	 esi
; File C:\Program Files (x86)\Microsoft Visual Studio\2019\Community\VC\Tools\MSVC\14.29.30133\atlmfc\include\afxcmn.inl

; 181  : 	{ ASSERT(::IsWindow(m_hWnd)); DWORD_PTR nOldPos = (DWORD_PTR)pos-1; pos = (POSITION)(DWORD_PTR)(1+GetNextItem((UINT)nOldPos, LVIS_SELECTED)); return (UINT)nOldPos; }

  000af	83 c0 01	 add	 eax, 1
; File D:\git\src\IBK\IBK_DRFN\ProjSrc\SrcChartEx\ChartAddIn\ChartDesignPropertyAddIn\ChartDesignPropertyAddIn\ToolandRButtonBase_ListCtrl.cpp

; 301  :    while (pos) {

  000b2	75 ec		 jne	 SHORT $LL19@OnBegindra
$LN20@OnBegindra:

; 94   : 	ASSERT( pszGlobal );
; 95   : 	memset(pszGlobal, 0, sizeof(ToolItem) * SelectedItemCount());

  000b4	8b c6		 mov	 eax, esi
  000b6	c1 e0 04	 shl	 eax, 4
  000b9	03 c6		 add	 eax, esi
  000bb	c1 e0 02	 shl	 eax, 2
  000be	50		 push	 eax
  000bf	6a 00		 push	 0
  000c1	ff 75 9c	 push	 DWORD PTR _pszGlobal$1$[ebp]
  000c4	e8 00 00 00 00	 call	 _memset
  000c9	83 c4 0c	 add	 esp, 12			; 0000000cH

; 279  : 	CString strSelected = "";

  000cc	68 00 00 00 00	 push	 OFFSET ??_C@_00CNPNBAHC@@
  000d1	8d 4d a0	 lea	 ecx, DWORD PTR $T2[ebp]

; 96   : 	strcpy(pszGlobal->ChartName, (LPCTSTR)SelectedItemNames());             // CString -> char *

  000d4	c7 45 fc 00 00
	00 00		 mov	 DWORD PTR __$EHRec$[ebp+8], 0

; 279  : 	CString strSelected = "";

  000db	ff 15 00 00 00
	00		 call	 DWORD PTR __imp_??0?$CStringT@DV?$StrTraitMFC_DLL@DV?$ChTraitsCRT@D@ATL@@@@@ATL@@QAE@PBD@Z
; File C:\Program Files (x86)\Microsoft Visual Studio\2019\Community\VC\Tools\MSVC\14.29.30133\atlmfc\include\afxcmn.inl

; 177  : 	{ ASSERT(::IsWindow(m_hWnd)); return (int) ::SendMessage(m_hWnd, LVM_GETNEXTITEM, nItem, MAKELPARAM(nFlags, 0)); }

  000e1	6a 02		 push	 2
  000e3	6a ff		 push	 -1
  000e5	68 0c 10 00 00	 push	 4108			; 0000100cH
  000ea	ff 77 20	 push	 DWORD PTR [edi+32]
; File D:\git\src\IBK\IBK_DRFN\ProjSrc\SrcChartEx\ChartAddIn\ChartDesignPropertyAddIn\ChartDesignPropertyAddIn\ToolandRButtonBase_ListCtrl.cpp

; 294  : 	return strSelected;

  000ed	c7 45 ac 01 00
	00 00		 mov	 DWORD PTR $T5[ebp], 1
; File C:\Program Files (x86)\Microsoft Visual Studio\2019\Community\VC\Tools\MSVC\14.29.30133\atlmfc\include\afxcmn.inl

; 177  : 	{ ASSERT(::IsWindow(m_hWnd)); return (int) ::SendMessage(m_hWnd, LVM_GETNEXTITEM, nItem, MAKELPARAM(nFlags, 0)); }

  000f4	ff d3		 call	 ebx

; 179  : 	{ ASSERT(::IsWindow(m_hWnd)); return (POSITION)(DWORD_PTR)(1+GetNextItem(-1, LVIS_SELECTED)); }

  000f6	83 c0 01	 add	 eax, 1
; File D:\git\src\IBK\IBK_DRFN\ProjSrc\SrcChartEx\ChartAddIn\ChartDesignPropertyAddIn\ChartDesignPropertyAddIn\ToolandRButtonBase_ListCtrl.cpp

; 281  : 	if (pos == NULL)

  000f9	0f 84 be 00 00
	00		 je	 $LN32@OnBegindra
  000ff	90		 npad	 1
$LL31@OnBegindra:
; File C:\Program Files (x86)\Microsoft Visual Studio\2019\Community\VC\Tools\MSVC\14.29.30133\atlmfc\include\afxcmn.inl

; 177  : 	{ ASSERT(::IsWindow(m_hWnd)); return (int) ::SendMessage(m_hWnd, LVM_GETNEXTITEM, nItem, MAKELPARAM(nFlags, 0)); }

  00100	6a 02		 push	 2

; 181  : 	{ ASSERT(::IsWindow(m_hWnd)); DWORD_PTR nOldPos = (DWORD_PTR)pos-1; pos = (POSITION)(DWORD_PTR)(1+GetNextItem((UINT)nOldPos, LVIS_SELECTED)); return (UINT)nOldPos; }

  00102	8d 70 ff	 lea	 esi, DWORD PTR [eax-1]

; 177  : 	{ ASSERT(::IsWindow(m_hWnd)); return (int) ::SendMessage(m_hWnd, LVM_GETNEXTITEM, nItem, MAKELPARAM(nFlags, 0)); }

  00105	56		 push	 esi
  00106	68 0c 10 00 00	 push	 4108			; 0000100cH
  0010b	ff 77 20	 push	 DWORD PTR [edi+32]
  0010e	ff d3		 call	 ebx

; 181  : 	{ ASSERT(::IsWindow(m_hWnd)); DWORD_PTR nOldPos = (DWORD_PTR)pos-1; pos = (POSITION)(DWORD_PTR)(1+GetNextItem((UINT)nOldPos, LVIS_SELECTED)); return (UINT)nOldPos; }

  00110	40		 inc	 eax
; File D:\git\src\IBK\IBK_DRFN\ProjSrc\SrcChartEx\ChartAddIn\ChartDesignPropertyAddIn\ChartDesignPropertyAddIn\ToolandRButtonBase_ListCtrl.cpp

; 287  : 		  memset(plist, 0, sizeof(plist));

  00111	6a 40		 push	 64			; 00000040H
; File C:\Program Files (x86)\Microsoft Visual Studio\2019\Community\VC\Tools\MSVC\14.29.30133\atlmfc\include\afxcmn.inl

; 181  : 	{ ASSERT(::IsWindow(m_hWnd)); DWORD_PTR nOldPos = (DWORD_PTR)pos-1; pos = (POSITION)(DWORD_PTR)(1+GetNextItem((UINT)nOldPos, LVIS_SELECTED)); return (UINT)nOldPos; }

  00113	89 45 98	 mov	 DWORD PTR _pos$1$[ebp], eax
; File D:\git\src\IBK\IBK_DRFN\ProjSrc\SrcChartEx\ChartAddIn\ChartDesignPropertyAddIn\ChartDesignPropertyAddIn\ToolandRButtonBase_ListCtrl.cpp

; 287  : 		  memset(plist, 0, sizeof(plist));

  00116	8d 45 b0	 lea	 eax, DWORD PTR _plist$6[ebp]
  00119	6a 00		 push	 0
  0011b	50		 push	 eax
  0011c	e8 00 00 00 00	 call	 _memset
  00121	83 c4 0c	 add	 esp, 12			; 0000000cH

; 288  : 		  GetItemText( nItem, 0, plist, 64);

  00124	8d 45 b0	 lea	 eax, DWORD PTR _plist$6[ebp]
  00127	8b cf		 mov	 ecx, edi
  00129	6a 40		 push	 64			; 00000040H
  0012b	50		 push	 eax
  0012c	6a 00		 push	 0
  0012e	56		 push	 esi
  0012f	e8 00 00 00 00	 call	 ?GetItemText@CListCtrl@@QBEHHHPADH@Z ; CListCtrl::GetItemText

; 289  : 		  CString temp = (CString)plist;

  00134	8d 45 b0	 lea	 eax, DWORD PTR _plist$6[ebp]
  00137	50		 push	 eax
  00138	8d 4d a8	 lea	 ecx, DWORD PTR _temp$4[ebp]
  0013b	ff 15 00 00 00
	00		 call	 DWORD PTR __imp_??0?$CStringT@DV?$StrTraitMFC_DLL@DV?$ChTraitsCRT@D@ATL@@@@@ATL@@QAE@PBD@Z

; 290  : 		  temp.TrimRight();

  00141	8d 4d a8	 lea	 ecx, DWORD PTR _temp$4[ebp]
  00144	c6 45 fc 01	 mov	 BYTE PTR __$EHRec$[ebp+8], 1
  00148	ff 15 00 00 00
	00		 call	 DWORD PTR __imp_?TrimRight@?$CStringT@DV?$StrTraitMFC_DLL@DV?$ChTraitsCRT@D@ATL@@@@@ATL@@QAEAAV12@XZ
; File C:\Program Files (x86)\Microsoft Visual Studio\2019\Community\VC\Tools\MSVC\14.29.30133\atlmfc\include\cstringt.h

; 2401 : 		CStringT strResult( str1.GetManager() );

  0014e	8d 4d a8	 lea	 ecx, DWORD PTR _temp$4[ebp]
; File D:\git\src\IBK\IBK_DRFN\ProjSrc\SrcChartEx\ChartAddIn\ChartDesignPropertyAddIn\ChartDesignPropertyAddIn\ToolandRButtonBase_ListCtrl.cpp

; 291  :           strSelected += temp + ";";

  00151	c6 45 fc 02	 mov	 BYTE PTR __$EHRec$[ebp+8], 2
; File C:\Program Files (x86)\Microsoft Visual Studio\2019\Community\VC\Tools\MSVC\14.29.30133\atlmfc\include\cstringt.h

; 2401 : 		CStringT strResult( str1.GetManager() );

  00155	ff 15 00 00 00
	00		 call	 DWORD PTR __imp_?GetManager@?$CStringT@DV?$StrTraitMFC_DLL@DV?$ChTraitsCRT@D@ATL@@@@@ATL@@QBEPAUIAtlStringMgr@2@XZ
  0015b	50		 push	 eax
  0015c	8d 4d a4	 lea	 ecx, DWORD PTR $T3[ebp]
  0015f	ff 15 00 00 00
	00		 call	 DWORD PTR __imp_??0?$CStringT@DV?$StrTraitMFC_DLL@DV?$ChTraitsCRT@D@ATL@@@@@ATL@@QAE@PAUIAtlStringMgr@1@@Z
; File C:\Program Files (x86)\Microsoft Visual Studio\2019\Community\VC\Tools\MSVC\14.29.30133\atlmfc\include\atlsimpstr.h

; 519  : 		return( GetData()->nDataLength );

  00165	8b 45 a8	 mov	 eax, DWORD PTR _temp$4[ebp]
; File C:\Program Files (x86)\Microsoft Visual Studio\2019\Community\VC\Tools\MSVC\14.29.30133\atlmfc\include\cstringt.h

; 2405 : 		return( strResult );

  00168	8b 75 ac	 mov	 esi, DWORD PTR $T5[ebp]
  0016b	6a 01		 push	 1
  0016d	68 00 00 00 00	 push	 OFFSET ??_C@_01ICJEACDI@?$DL@
  00172	ff 70 f4	 push	 DWORD PTR [eax-12]
  00175	83 ce 02	 or	 esi, 2
  00178	50		 push	 eax
  00179	8d 45 a4	 lea	 eax, DWORD PTR $T3[ebp]
  0017c	89 75 ac	 mov	 DWORD PTR $T5[ebp], esi
  0017f	50		 push	 eax
  00180	ff 15 00 00 00
	00		 call	 DWORD PTR __imp_?Concatenate@?$CSimpleStringT@D$00@ATL@@KAXAAV12@PBDH1H@Z
  00186	83 c4 14	 add	 esp, 20			; 00000014H
; File D:\git\src\IBK\IBK_DRFN\ProjSrc\SrcChartEx\ChartAddIn\ChartDesignPropertyAddIn\ChartDesignPropertyAddIn\ToolandRButtonBase_ListCtrl.cpp

; 291  :           strSelected += temp + ";";

  00189	8d 45 a4	 lea	 eax, DWORD PTR $T3[ebp]
  0018c	8d 4d a0	 lea	 ecx, DWORD PTR $T2[ebp]
  0018f	50		 push	 eax
  00190	ff 15 00 00 00
	00		 call	 DWORD PTR __imp_??Y?$CStringT@DV?$StrTraitMFC_DLL@DV?$ChTraitsCRT@D@ATL@@@@@ATL@@QAEAAV01@ABV?$CSimpleStringT@D$00@1@@Z
  00196	83 e6 fd	 and	 esi, -3			; fffffffdH
  00199	8d 4d a4	 lea	 ecx, DWORD PTR $T3[ebp]
  0019c	89 75 ac	 mov	 DWORD PTR $T5[ebp], esi
  0019f	ff 15 00 00 00
	00		 call	 DWORD PTR __imp_??1?$CStringT@DV?$StrTraitMFC_DLL@DV?$ChTraitsCRT@D@ATL@@@@@ATL@@QAE@XZ

; 292  : 	   }

  001a5	8d 4d a8	 lea	 ecx, DWORD PTR _temp$4[ebp]
  001a8	c6 45 fc 00	 mov	 BYTE PTR __$EHRec$[ebp+8], 0
  001ac	ff 15 00 00 00
	00		 call	 DWORD PTR __imp_??1?$CStringT@DV?$StrTraitMFC_DLL@DV?$ChTraitsCRT@D@ATL@@@@@ATL@@QAE@XZ
  001b2	8b 45 98	 mov	 eax, DWORD PTR _pos$1$[ebp]
  001b5	85 c0		 test	 eax, eax
  001b7	0f 85 43 ff ff
	ff		 jne	 $LL31@OnBegindra
$LN32@OnBegindra:

; 96   : 	strcpy(pszGlobal->ChartName, (LPCTSTR)SelectedItemNames());             // CString -> char *

  001bd	8b 55 9c	 mov	 edx, DWORD PTR _pszGlobal$1$[ebp]
; File C:\Program Files (x86)\Microsoft Visual Studio\2019\Community\VC\Tools\MSVC\14.29.30133\atlmfc\include\atlsimpstr.h

; 377  : 		return( m_pszData );

  001c0	8b 45 a0	 mov	 eax, DWORD PTR $T2[ebp]
; File D:\git\src\IBK\IBK_DRFN\ProjSrc\SrcChartEx\ChartAddIn\ChartDesignPropertyAddIn\ChartDesignPropertyAddIn\ToolandRButtonBase_ListCtrl.cpp

; 96   : 	strcpy(pszGlobal->ChartName, (LPCTSTR)SelectedItemNames());             // CString -> char *

  001c3	2b d0		 sub	 edx, eax
$LL4@OnBegindra:
  001c5	8a 08		 mov	 cl, BYTE PTR [eax]
  001c7	8d 40 01	 lea	 eax, DWORD PTR [eax+1]
  001ca	88 4c 02 03	 mov	 BYTE PTR [edx+eax+3], cl
  001ce	84 c9		 test	 cl, cl
  001d0	75 f3		 jne	 SHORT $LL4@OnBegindra
  001d2	8d 4d a0	 lea	 ecx, DWORD PTR $T2[ebp]
  001d5	c7 45 fc ff ff
	ff ff		 mov	 DWORD PTR __$EHRec$[ebp+8], -1
  001dc	ff 15 00 00 00
	00		 call	 DWORD PTR __imp_??1?$CStringT@DV?$StrTraitMFC_DLL@DV?$ChTraitsCRT@D@ATL@@@@@ATL@@QAE@XZ

; 97   : 
; 98   : 	//GetItemText( iCurSel - 1, 0, pszGlobal->ChartName, 64 ) ;
; 99   : 	GlobalUnlock( hGlobal );

  001e2	8b 5d 94	 mov	 ebx, DWORD PTR _hGlobal$1$[ebp]
  001e5	53		 push	 ebx
  001e6	ff 15 00 00 00
	00		 call	 DWORD PTR __imp__GlobalUnlock@4

; 100  : 	if(hGlobal)	{

  001ec	85 db		 test	 ebx, ebx
  001ee	74 21		 je	 SHORT $LN2@OnBegindra

; 101  : 		m_COleDataSource.CacheGlobalData( CF_TEXT, hGlobal );

  001f0	6a 00		 push	 0
  001f2	53		 push	 ebx
  001f3	6a 01		 push	 1
  001f5	8d 8f 80 00 00
	00		 lea	 ecx, DWORD PTR [edi+128]
  001fb	e8 00 00 00 00	 call	 ?CacheGlobalData@COleDataSource@@QAEXGPAXPAUtagFORMATETC@@@Z ; COleDataSource::CacheGlobalData

; 102  : 		DROPEFFECT  de;
; 103  : 		de = m_COleDataSource.DoDragDrop( DROPEFFECT_COPY);

  00200	6a 00		 push	 0
  00202	6a 00		 push	 0
  00204	6a 01		 push	 1
  00206	8d 8f 80 00 00
	00		 lea	 ecx, DWORD PTR [edi+128]
  0020c	e8 00 00 00 00	 call	 ?DoDragDrop@COleDataSource@@QAEKKPBUtagRECT@@PAVCOleDropSource@@@Z ; COleDataSource::DoDragDrop
$LN2@OnBegindra:

; 104  : 	}
; 105  : }

  00211	8b 4d f4	 mov	 ecx, DWORD PTR __$EHRec$[ebp]
  00214	64 89 0d 00 00
	00 00		 mov	 DWORD PTR fs:0, ecx
  0021b	59		 pop	 ecx
  0021c	5f		 pop	 edi
  0021d	5e		 pop	 esi
  0021e	5b		 pop	 ebx
  0021f	8b 4d f0	 mov	 ecx, DWORD PTR __$ArrayPad$[ebp]
  00222	33 cd		 xor	 ecx, ebp
  00224	e8 00 00 00 00	 call	 @__security_check_cookie@4
  00229	8b e5		 mov	 esp, ebp
  0022b	5d		 pop	 ebp
  0022c	c2 08 00	 ret	 8
_TEXT	ENDS
;	COMDAT text$x
text$x	SEGMENT
__unwindfunclet$?OnBegindrag@CToolandRButtonBase_ListCtrl@@IAEXPAUtagNMHDR@@PAJ@Z$1:
  00000	8b 45 ac	 mov	 eax, DWORD PTR $T5[ebp]
  00003	83 e0 01	 and	 eax, 1
  00006	0f 84 0d 00 00
	00		 je	 $LN37@OnBegindra
  0000c	83 65 ac fe	 and	 DWORD PTR $T5[ebp], -2	; fffffffeH
  00010	8d 4d a0	 lea	 ecx, DWORD PTR $T2[ebp]
  00013	ff 25 00 00 00
	00		 jmp	 DWORD PTR __imp_??1?$CStringT@DV?$StrTraitMFC_DLL@DV?$ChTraitsCRT@D@ATL@@@@@ATL@@QAE@XZ
$LN37@OnBegindra:
  00019	c3		 ret	 0
__unwindfunclet$?OnBegindrag@CToolandRButtonBase_ListCtrl@@IAEXPAUtagNMHDR@@PAJ@Z$2:
  0001a	8d 4d a8	 lea	 ecx, DWORD PTR _temp$4[ebp]
  0001d	ff 25 00 00 00
	00		 jmp	 DWORD PTR __imp_??1?$CStringT@DV?$StrTraitMFC_DLL@DV?$ChTraitsCRT@D@ATL@@@@@ATL@@QAE@XZ
__unwindfunclet$?OnBegindrag@CToolandRButtonBase_ListCtrl@@IAEXPAUtagNMHDR@@PAJ@Z$4:
  00023	8b 45 ac	 mov	 eax, DWORD PTR $T5[ebp]
  00026	83 e0 02	 and	 eax, 2
  00029	0f 84 0d 00 00
	00		 je	 $LN51@OnBegindra
  0002f	83 65 ac fd	 and	 DWORD PTR $T5[ebp], -3	; fffffffdH
  00033	8d 4d a4	 lea	 ecx, DWORD PTR $T3[ebp]
  00036	ff 25 00 00 00
	00		 jmp	 DWORD PTR __imp_??1?$CStringT@DV?$StrTraitMFC_DLL@DV?$ChTraitsCRT@D@ATL@@@@@ATL@@QAE@XZ
$LN51@OnBegindra:
  0003c	c3		 ret	 0
  0003d	cc		 int	 3
  0003e	cc		 int	 3
  0003f	cc		 int	 3
  00040	cc		 int	 3
  00041	cc		 int	 3
__ehhandler$?OnBegindrag@CToolandRButtonBase_ListCtrl@@IAEXPAUtagNMHDR@@PAJ@Z:
  00042	90		 npad	 1
  00043	90		 npad	 1
  00044	8b 54 24 08	 mov	 edx, DWORD PTR [esp+8]
  00048	8d 42 0c	 lea	 eax, DWORD PTR [edx+12]
  0004b	8b 4a 90	 mov	 ecx, DWORD PTR [edx-112]
  0004e	33 c8		 xor	 ecx, eax
  00050	e8 00 00 00 00	 call	 @__security_check_cookie@4
  00055	8b 4a fc	 mov	 ecx, DWORD PTR [edx-4]
  00058	33 c8		 xor	 ecx, eax
  0005a	e8 00 00 00 00	 call	 @__security_check_cookie@4
  0005f	b8 00 00 00 00	 mov	 eax, OFFSET __ehfuncinfo$?OnBegindrag@CToolandRButtonBase_ListCtrl@@IAEXPAUtagNMHDR@@PAJ@Z
  00064	e9 00 00 00 00	 jmp	 ___CxxFrameHandler3
text$x	ENDS
?OnBegindrag@CToolandRButtonBase_ListCtrl@@IAEXPAUtagNMHDR@@PAJ@Z ENDP ; CToolandRButtonBase_ListCtrl::OnBegindrag
; Function compile flags: /Ogtp
; File D:\git\src\IBK\IBK_DRFN\ProjSrc\SrcChartEx\ChartAddIn\ChartDesignPropertyAddIn\ChartDesignPropertyAddIn\ToolandRButtonBase_ListCtrl.cpp
;	COMDAT ?InitDropTarget@CToolandRButtonBase_ListCtrl@@QAEXXZ
_TEXT	SEGMENT
?InitDropTarget@CToolandRButtonBase_ListCtrl@@QAEXXZ PROC ; CToolandRButtonBase_ListCtrl::InitDropTarget, COMDAT
; _this$ = ecx

; 46   : {   

  00000	56		 push	 esi
  00001	8b f1		 mov	 esi, ecx

; 47   : 
; 48   :     // Register the COleDropTarget object with the OLE dll's
; 49   :     BOOL bSuccess = m_DropTarget.Register(this);

  00003	56		 push	 esi
  00004	8d 8e b4 00 00
	00		 lea	 ecx, DWORD PTR [esi+180]
  0000a	e8 00 00 00 00	 call	 ?Register@COleDropTarget@@QAEHPAVCWnd@@@Z ; COleDropTarget::Register

; 50   : 	m_DropTarget.SetCurrentWindow(this);

  0000f	89 b6 ec 00 00
	00		 mov	 DWORD PTR [esi+236], esi
  00015	5e		 pop	 esi

; 51   :     if (!bSuccess)

  00016	85 c0		 test	 eax, eax
  00018	75 0c		 jne	 SHORT $LN2@InitDropTa

; 52   :        AfxMessageBox("Ole Register Drop Target Failed");

  0001a	50		 push	 eax
  0001b	50		 push	 eax
  0001c	68 00 00 00 00	 push	 OFFSET ??_C@_0CA@MGPAGIKN@Ole?5Register?5Drop?5Target?5Failed@
  00021	e8 00 00 00 00	 call	 ?AfxMessageBox@@YGHPBDII@Z ; AfxMessageBox
$LN2@InitDropTa:

; 53   : }                                                                             

  00026	c3		 ret	 0
?InitDropTarget@CToolandRButtonBase_ListCtrl@@QAEXXZ ENDP ; CToolandRButtonBase_ListCtrl::InitDropTarget
_TEXT	ENDS
; Function compile flags: /Ogtp
; File D:\git\src\IBK\IBK_DRFN\ProjSrc\SrcChartEx\ChartAddIn\ChartDesignPropertyAddIn\ChartDesignPropertyAddIn\ToolandRButtonBase_ListCtrl.cpp
; File C:\Program Files (x86)\Microsoft Visual Studio\2019\Community\VC\Tools\MSVC\14.29.30133\atlmfc\include\afxcmn.inl
; File D:\git\src\IBK\IBK_DRFN\ProjSrc\SrcChartEx\ChartAddIn\ChartDesignPropertyAddIn\ChartDesignPropertyAddIn\ToolandRButtonBase_ListCtrl.cpp
; File C:\Program Files (x86)\Microsoft Visual Studio\2019\Community\VC\Tools\MSVC\14.29.30133\atlmfc\include\afxcmn.inl
; File D:\git\src\IBK\IBK_DRFN\ProjSrc\SrcChartEx\ChartAddIn\ChartDesignPropertyAddIn\ChartDesignPropertyAddIn\ToolandRButtonBase_ListCtrl.cpp
; File C:\Program Files (x86)\Microsoft Visual Studio\2019\Community\VC\Tools\MSVC\14.29.30133\atlmfc\include\afxcmn.inl
; File D:\git\src\IBK\IBK_DRFN\ProjSrc\SrcChartEx\ChartAddIn\ChartDesignPropertyAddIn\ChartDesignPropertyAddIn\ToolandRButtonBase_ListCtrl.cpp
; File C:\Program Files (x86)\Microsoft Visual Studio\2019\Community\VC\Tools\MSVC\14.29.30133\atlmfc\include\afxcmn.inl
; File D:\git\src\IBK\IBK_DRFN\ProjSrc\SrcChartEx\ChartAddIn\ChartDesignPropertyAddIn\ChartDesignPropertyAddIn\ToolandRButtonBase_ListCtrl.cpp
; File C:\Program Files (x86)\Microsoft Visual Studio\2019\Community\VC\Tools\MSVC\14.29.30133\atlmfc\include\cstringt.h
; File D:\git\src\IBK\IBK_DRFN\ProjSrc\SrcChartEx\ChartAddIn\ChartDesignPropertyAddIn\ChartDesignPropertyAddIn\ToolandRButtonBase_ListCtrl.cpp
; File C:\Program Files (x86)\Microsoft Visual Studio\2019\Community\VC\Tools\MSVC\14.29.30133\atlmfc\include\cstringt.h
; File C:\Program Files (x86)\Microsoft Visual Studio\2019\Community\VC\Tools\MSVC\14.29.30133\atlmfc\include\atlsimpstr.h
; File C:\Program Files (x86)\Microsoft Visual Studio\2019\Community\VC\Tools\MSVC\14.29.30133\atlmfc\include\cstringt.h
; File D:\git\src\IBK\IBK_DRFN\ProjSrc\SrcChartEx\ChartAddIn\ChartDesignPropertyAddIn\ChartDesignPropertyAddIn\ToolandRButtonBase_ListCtrl.cpp
;	COMDAT ?SelectedItemNames@CToolandRButtonBase_ListCtrl@@AAE?AV?$CStringT@DV?$StrTraitMFC_DLL@DV?$ChTraitsCRT@D@ATL@@@@@ATL@@XZ
_TEXT	SEGMENT
___$ReturnUdt$GSCopy$ = -104				; size = 4
_pos$1$ = -100						; size = 4
_this$GSCopy$1$ = -96					; size = 4
$T2 = -92						; size = 4
$T3 = -88						; size = 4
_temp$4 = -84						; size = 4
_plist$5 = -80						; size = 64
__$ArrayPad$ = -16					; size = 4
__$EHRec$ = -12						; size = 12
___$ReturnUdt$ = 8					; size = 4
?SelectedItemNames@CToolandRButtonBase_ListCtrl@@AAE?AV?$CStringT@DV?$StrTraitMFC_DLL@DV?$ChTraitsCRT@D@ATL@@@@@ATL@@XZ PROC ; CToolandRButtonBase_ListCtrl::SelectedItemNames, COMDAT
; _this$ = ecx

; 278  : {

  00000	55		 push	 ebp
  00001	8b ec		 mov	 ebp, esp
  00003	6a ff		 push	 -1
  00005	68 00 00 00 00	 push	 __ehhandler$?SelectedItemNames@CToolandRButtonBase_ListCtrl@@AAE?AV?$CStringT@DV?$StrTraitMFC_DLL@DV?$ChTraitsCRT@D@ATL@@@@@ATL@@XZ
  0000a	64 a1 00 00 00
	00		 mov	 eax, DWORD PTR fs:0
  00010	50		 push	 eax
  00011	83 ec 5c	 sub	 esp, 92			; 0000005cH
  00014	a1 00 00 00 00	 mov	 eax, DWORD PTR ___security_cookie
  00019	33 c5		 xor	 eax, ebp
  0001b	89 45 f0	 mov	 DWORD PTR __$ArrayPad$[ebp], eax
  0001e	53		 push	 ebx
  0001f	56		 push	 esi
  00020	57		 push	 edi
  00021	50		 push	 eax
  00022	8d 45 f4	 lea	 eax, DWORD PTR __$EHRec$[ebp]
  00025	64 a3 00 00 00
	00		 mov	 DWORD PTR fs:0, eax
  0002b	8b f1		 mov	 esi, ecx
  0002d	89 75 a0	 mov	 DWORD PTR _this$GSCopy$1$[ebp], esi
  00030	8b 5d 08	 mov	 ebx, DWORD PTR ___$ReturnUdt$[ebp]

; 279  : 	CString strSelected = "";

  00033	8b cb		 mov	 ecx, ebx
  00035	89 5d 98	 mov	 DWORD PTR ___$ReturnUdt$GSCopy$[ebp], ebx
  00038	68 00 00 00 00	 push	 OFFSET ??_C@_00CNPNBAHC@@
  0003d	c7 45 fc 00 00
	00 00		 mov	 DWORD PTR __$EHRec$[ebp+8], 0
  00044	c7 45 a8 00 00
	00 00		 mov	 DWORD PTR $T3[ebp], 0
  0004b	ff 15 00 00 00
	00		 call	 DWORD PTR __imp_??0?$CStringT@DV?$StrTraitMFC_DLL@DV?$ChTraitsCRT@D@ATL@@@@@ATL@@QAE@PBD@Z
; File C:\Program Files (x86)\Microsoft Visual Studio\2019\Community\VC\Tools\MSVC\14.29.30133\atlmfc\include\afxcmn.inl

; 177  : 	{ ASSERT(::IsWindow(m_hWnd)); return (int) ::SendMessage(m_hWnd, LVM_GETNEXTITEM, nItem, MAKELPARAM(nFlags, 0)); }

  00051	6a 02		 push	 2
  00053	6a ff		 push	 -1
  00055	68 0c 10 00 00	 push	 4108			; 0000100cH
  0005a	ff 76 20	 push	 DWORD PTR [esi+32]
; File D:\git\src\IBK\IBK_DRFN\ProjSrc\SrcChartEx\ChartAddIn\ChartDesignPropertyAddIn\ChartDesignPropertyAddIn\ToolandRButtonBase_ListCtrl.cpp

; 294  : 	return strSelected;

  0005d	bf 01 00 00 00	 mov	 edi, 1
  00062	c7 45 fc 00 00
	00 00		 mov	 DWORD PTR __$EHRec$[ebp+8], 0
  00069	89 7d a8	 mov	 DWORD PTR $T3[ebp], edi
; File C:\Program Files (x86)\Microsoft Visual Studio\2019\Community\VC\Tools\MSVC\14.29.30133\atlmfc\include\afxcmn.inl

; 177  : 	{ ASSERT(::IsWindow(m_hWnd)); return (int) ::SendMessage(m_hWnd, LVM_GETNEXTITEM, nItem, MAKELPARAM(nFlags, 0)); }

  0006c	ff 15 00 00 00
	00		 call	 DWORD PTR __imp__SendMessageA@16

; 179  : 	{ ASSERT(::IsWindow(m_hWnd)); return (POSITION)(DWORD_PTR)(1+GetNextItem(-1, LVIS_SELECTED)); }

  00072	03 c7		 add	 eax, edi
; File D:\git\src\IBK\IBK_DRFN\ProjSrc\SrcChartEx\ChartAddIn\ChartDesignPropertyAddIn\ChartDesignPropertyAddIn\ToolandRButtonBase_ListCtrl.cpp

; 281  : 	if (pos == NULL)

  00074	0f 84 ca 00 00
	00		 je	 $LN36@SelectedIt
  0007a	66 0f 1f 44 00
	00		 npad	 6
$LL2@SelectedIt:
; File C:\Program Files (x86)\Microsoft Visual Studio\2019\Community\VC\Tools\MSVC\14.29.30133\atlmfc\include\afxcmn.inl

; 177  : 	{ ASSERT(::IsWindow(m_hWnd)); return (int) ::SendMessage(m_hWnd, LVM_GETNEXTITEM, nItem, MAKELPARAM(nFlags, 0)); }

  00080	6a 02		 push	 2

; 181  : 	{ ASSERT(::IsWindow(m_hWnd)); DWORD_PTR nOldPos = (DWORD_PTR)pos-1; pos = (POSITION)(DWORD_PTR)(1+GetNextItem((UINT)nOldPos, LVIS_SELECTED)); return (UINT)nOldPos; }

  00082	8d 70 ff	 lea	 esi, DWORD PTR [eax-1]

; 177  : 	{ ASSERT(::IsWindow(m_hWnd)); return (int) ::SendMessage(m_hWnd, LVM_GETNEXTITEM, nItem, MAKELPARAM(nFlags, 0)); }

  00085	8b 45 a0	 mov	 eax, DWORD PTR _this$GSCopy$1$[ebp]
  00088	56		 push	 esi
  00089	68 0c 10 00 00	 push	 4108			; 0000100cH
  0008e	ff 70 20	 push	 DWORD PTR [eax+32]
  00091	ff 15 00 00 00
	00		 call	 DWORD PTR __imp__SendMessageA@16

; 181  : 	{ ASSERT(::IsWindow(m_hWnd)); DWORD_PTR nOldPos = (DWORD_PTR)pos-1; pos = (POSITION)(DWORD_PTR)(1+GetNextItem((UINT)nOldPos, LVIS_SELECTED)); return (UINT)nOldPos; }

  00097	40		 inc	 eax
; File D:\git\src\IBK\IBK_DRFN\ProjSrc\SrcChartEx\ChartAddIn\ChartDesignPropertyAddIn\ChartDesignPropertyAddIn\ToolandRButtonBase_ListCtrl.cpp

; 287  : 		  memset(plist, 0, sizeof(plist));

  00098	6a 40		 push	 64			; 00000040H
; File C:\Program Files (x86)\Microsoft Visual Studio\2019\Community\VC\Tools\MSVC\14.29.30133\atlmfc\include\afxcmn.inl

; 181  : 	{ ASSERT(::IsWindow(m_hWnd)); DWORD_PTR nOldPos = (DWORD_PTR)pos-1; pos = (POSITION)(DWORD_PTR)(1+GetNextItem((UINT)nOldPos, LVIS_SELECTED)); return (UINT)nOldPos; }

  0009a	89 45 9c	 mov	 DWORD PTR _pos$1$[ebp], eax
; File D:\git\src\IBK\IBK_DRFN\ProjSrc\SrcChartEx\ChartAddIn\ChartDesignPropertyAddIn\ChartDesignPropertyAddIn\ToolandRButtonBase_ListCtrl.cpp

; 287  : 		  memset(plist, 0, sizeof(plist));

  0009d	8d 45 b0	 lea	 eax, DWORD PTR _plist$5[ebp]
  000a0	6a 00		 push	 0
  000a2	50		 push	 eax
  000a3	e8 00 00 00 00	 call	 _memset

; 288  : 		  GetItemText( nItem, 0, plist, 64);

  000a8	8b 4d a0	 mov	 ecx, DWORD PTR _this$GSCopy$1$[ebp]
  000ab	8d 45 b0	 lea	 eax, DWORD PTR _plist$5[ebp]
  000ae	83 c4 0c	 add	 esp, 12			; 0000000cH
  000b1	6a 40		 push	 64			; 00000040H
  000b3	50		 push	 eax
  000b4	6a 00		 push	 0
  000b6	56		 push	 esi
  000b7	e8 00 00 00 00	 call	 ?GetItemText@CListCtrl@@QBEHHHPADH@Z ; CListCtrl::GetItemText

; 289  : 		  CString temp = (CString)plist;

  000bc	8d 45 b0	 lea	 eax, DWORD PTR _plist$5[ebp]
  000bf	50		 push	 eax
  000c0	8d 4d ac	 lea	 ecx, DWORD PTR _temp$4[ebp]
  000c3	ff 15 00 00 00
	00		 call	 DWORD PTR __imp_??0?$CStringT@DV?$StrTraitMFC_DLL@DV?$ChTraitsCRT@D@ATL@@@@@ATL@@QAE@PBD@Z

; 290  : 		  temp.TrimRight();

  000c9	8d 4d ac	 lea	 ecx, DWORD PTR _temp$4[ebp]
  000cc	c7 45 fc 01 00
	00 00		 mov	 DWORD PTR __$EHRec$[ebp+8], 1
  000d3	ff 15 00 00 00
	00		 call	 DWORD PTR __imp_?TrimRight@?$CStringT@DV?$StrTraitMFC_DLL@DV?$ChTraitsCRT@D@ATL@@@@@ATL@@QAEAAV12@XZ
; File C:\Program Files (x86)\Microsoft Visual Studio\2019\Community\VC\Tools\MSVC\14.29.30133\atlmfc\include\cstringt.h

; 2401 : 		CStringT strResult( str1.GetManager() );

  000d9	8d 4d ac	 lea	 ecx, DWORD PTR _temp$4[ebp]
; File D:\git\src\IBK\IBK_DRFN\ProjSrc\SrcChartEx\ChartAddIn\ChartDesignPropertyAddIn\ChartDesignPropertyAddIn\ToolandRButtonBase_ListCtrl.cpp

; 291  :           strSelected += temp + ";";

  000dc	c6 45 fc 02	 mov	 BYTE PTR __$EHRec$[ebp+8], 2
; File C:\Program Files (x86)\Microsoft Visual Studio\2019\Community\VC\Tools\MSVC\14.29.30133\atlmfc\include\cstringt.h

; 2401 : 		CStringT strResult( str1.GetManager() );

  000e0	ff 15 00 00 00
	00		 call	 DWORD PTR __imp_?GetManager@?$CStringT@DV?$StrTraitMFC_DLL@DV?$ChTraitsCRT@D@ATL@@@@@ATL@@QBEPAUIAtlStringMgr@2@XZ
  000e6	50		 push	 eax
  000e7	8d 4d a4	 lea	 ecx, DWORD PTR $T2[ebp]
  000ea	ff 15 00 00 00
	00		 call	 DWORD PTR __imp_??0?$CStringT@DV?$StrTraitMFC_DLL@DV?$ChTraitsCRT@D@ATL@@@@@ATL@@QAE@PAUIAtlStringMgr@1@@Z
; File C:\Program Files (x86)\Microsoft Visual Studio\2019\Community\VC\Tools\MSVC\14.29.30133\atlmfc\include\atlsimpstr.h

; 519  : 		return( GetData()->nDataLength );

  000f0	8b 45 ac	 mov	 eax, DWORD PTR _temp$4[ebp]
; File C:\Program Files (x86)\Microsoft Visual Studio\2019\Community\VC\Tools\MSVC\14.29.30133\atlmfc\include\cstringt.h

; 2405 : 		return( strResult );

  000f3	83 cf 02	 or	 edi, 2
  000f6	6a 01		 push	 1
  000f8	68 00 00 00 00	 push	 OFFSET ??_C@_01ICJEACDI@?$DL@
  000fd	89 7d a8	 mov	 DWORD PTR $T3[ebp], edi
  00100	ff 70 f4	 push	 DWORD PTR [eax-12]
  00103	50		 push	 eax
  00104	8d 45 a4	 lea	 eax, DWORD PTR $T2[ebp]
  00107	50		 push	 eax
  00108	ff 15 00 00 00
	00		 call	 DWORD PTR __imp_?Concatenate@?$CSimpleStringT@D$00@ATL@@KAXAAV12@PBDH1H@Z
  0010e	83 c4 14	 add	 esp, 20			; 00000014H
; File D:\git\src\IBK\IBK_DRFN\ProjSrc\SrcChartEx\ChartAddIn\ChartDesignPropertyAddIn\ChartDesignPropertyAddIn\ToolandRButtonBase_ListCtrl.cpp

; 291  :           strSelected += temp + ";";

  00111	8d 45 a4	 lea	 eax, DWORD PTR $T2[ebp]
  00114	8b cb		 mov	 ecx, ebx
  00116	50		 push	 eax
  00117	ff 15 00 00 00
	00		 call	 DWORD PTR __imp_??Y?$CStringT@DV?$StrTraitMFC_DLL@DV?$ChTraitsCRT@D@ATL@@@@@ATL@@QAEAAV01@ABV?$CSimpleStringT@D$00@1@@Z
  0011d	83 e7 fd	 and	 edi, -3			; fffffffdH
  00120	8d 4d a4	 lea	 ecx, DWORD PTR $T2[ebp]
  00123	89 7d a8	 mov	 DWORD PTR $T3[ebp], edi
  00126	ff 15 00 00 00
	00		 call	 DWORD PTR __imp_??1?$CStringT@DV?$StrTraitMFC_DLL@DV?$ChTraitsCRT@D@ATL@@@@@ATL@@QAE@XZ

; 292  : 	   }

  0012c	8d 4d ac	 lea	 ecx, DWORD PTR _temp$4[ebp]
  0012f	c6 45 fc 00	 mov	 BYTE PTR __$EHRec$[ebp+8], 0
  00133	ff 15 00 00 00
	00		 call	 DWORD PTR __imp_??1?$CStringT@DV?$StrTraitMFC_DLL@DV?$ChTraitsCRT@D@ATL@@@@@ATL@@QAE@XZ
  00139	8b 45 9c	 mov	 eax, DWORD PTR _pos$1$[ebp]
  0013c	85 c0		 test	 eax, eax
  0013e	0f 85 3c ff ff
	ff		 jne	 $LL2@SelectedIt
$LN36@SelectedIt:

; 295  : }

  00144	8b c3		 mov	 eax, ebx
  00146	8b 4d f4	 mov	 ecx, DWORD PTR __$EHRec$[ebp]
  00149	64 89 0d 00 00
	00 00		 mov	 DWORD PTR fs:0, ecx
  00150	59		 pop	 ecx
  00151	5f		 pop	 edi
  00152	5e		 pop	 esi
  00153	5b		 pop	 ebx
  00154	8b 4d f0	 mov	 ecx, DWORD PTR __$ArrayPad$[ebp]
  00157	33 cd		 xor	 ecx, ebp
  00159	e8 00 00 00 00	 call	 @__security_check_cookie@4
  0015e	8b e5		 mov	 esp, ebp
  00160	5d		 pop	 ebp
  00161	c2 04 00	 ret	 4
_TEXT	ENDS
;	COMDAT text$x
text$x	SEGMENT
__unwindfunclet$?SelectedItemNames@CToolandRButtonBase_ListCtrl@@AAE?AV?$CStringT@DV?$StrTraitMFC_DLL@DV?$ChTraitsCRT@D@ATL@@@@@ATL@@XZ$0:
  00000	8b 45 a8	 mov	 eax, DWORD PTR $T3[ebp]
  00003	83 e0 01	 and	 eax, 1
  00006	0f 84 0d 00 00
	00		 je	 $LN8@SelectedIt
  0000c	83 65 a8 fe	 and	 DWORD PTR $T3[ebp], -2	; fffffffeH
  00010	8b 4d 98	 mov	 ecx, DWORD PTR ___$ReturnUdt$GSCopy$[ebp]
  00013	ff 25 00 00 00
	00		 jmp	 DWORD PTR __imp_??1?$CStringT@DV?$StrTraitMFC_DLL@DV?$ChTraitsCRT@D@ATL@@@@@ATL@@QAE@XZ
$LN8@SelectedIt:
  00019	c3		 ret	 0
__unwindfunclet$?SelectedItemNames@CToolandRButtonBase_ListCtrl@@AAE?AV?$CStringT@DV?$StrTraitMFC_DLL@DV?$ChTraitsCRT@D@ATL@@@@@ATL@@XZ$1:
  0001a	8d 4d ac	 lea	 ecx, DWORD PTR _temp$4[ebp]
  0001d	ff 25 00 00 00
	00		 jmp	 DWORD PTR __imp_??1?$CStringT@DV?$StrTraitMFC_DLL@DV?$ChTraitsCRT@D@ATL@@@@@ATL@@QAE@XZ
__unwindfunclet$?SelectedItemNames@CToolandRButtonBase_ListCtrl@@AAE?AV?$CStringT@DV?$StrTraitMFC_DLL@DV?$ChTraitsCRT@D@ATL@@@@@ATL@@XZ$3:
  00023	8b 45 a8	 mov	 eax, DWORD PTR $T3[ebp]
  00026	83 e0 02	 and	 eax, 2
  00029	0f 84 0d 00 00
	00		 je	 $LN22@SelectedIt
  0002f	83 65 a8 fd	 and	 DWORD PTR $T3[ebp], -3	; fffffffdH
  00033	8d 4d a4	 lea	 ecx, DWORD PTR $T2[ebp]
  00036	ff 25 00 00 00
	00		 jmp	 DWORD PTR __imp_??1?$CStringT@DV?$StrTraitMFC_DLL@DV?$ChTraitsCRT@D@ATL@@@@@ATL@@QAE@XZ
$LN22@SelectedIt:
  0003c	c3		 ret	 0
  0003d	cc		 int	 3
  0003e	cc		 int	 3
  0003f	cc		 int	 3
  00040	cc		 int	 3
  00041	cc		 int	 3
__ehhandler$?SelectedItemNames@CToolandRButtonBase_ListCtrl@@AAE?AV?$CStringT@DV?$StrTraitMFC_DLL@DV?$ChTraitsCRT@D@ATL@@@@@ATL@@XZ:
  00042	90		 npad	 1
  00043	90		 npad	 1
  00044	8b 54 24 08	 mov	 edx, DWORD PTR [esp+8]
  00048	8d 42 0c	 lea	 eax, DWORD PTR [edx+12]
  0004b	8b 4a 94	 mov	 ecx, DWORD PTR [edx-108]
  0004e	33 c8		 xor	 ecx, eax
  00050	e8 00 00 00 00	 call	 @__security_check_cookie@4
  00055	8b 4a fc	 mov	 ecx, DWORD PTR [edx-4]
  00058	33 c8		 xor	 ecx, eax
  0005a	e8 00 00 00 00	 call	 @__security_check_cookie@4
  0005f	b8 00 00 00 00	 mov	 eax, OFFSET __ehfuncinfo$?SelectedItemNames@CToolandRButtonBase_ListCtrl@@AAE?AV?$CStringT@DV?$StrTraitMFC_DLL@DV?$ChTraitsCRT@D@ATL@@@@@ATL@@XZ
  00064	e9 00 00 00 00	 jmp	 ___CxxFrameHandler3
text$x	ENDS
?SelectedItemNames@CToolandRButtonBase_ListCtrl@@AAE?AV?$CStringT@DV?$StrTraitMFC_DLL@DV?$ChTraitsCRT@D@ATL@@@@@ATL@@XZ ENDP ; CToolandRButtonBase_ListCtrl::SelectedItemNames
; Function compile flags: /Ogtp
; File D:\git\src\IBK\IBK_DRFN\ProjSrc\SrcChartEx\ChartAddIn\ChartDesignPropertyAddIn\ChartDesignPropertyAddIn\ToolandRButtonBase_ListCtrl.cpp
; File C:\Program Files (x86)\Microsoft Visual Studio\2019\Community\VC\Tools\MSVC\14.29.30133\atlmfc\include\afxcmn.inl
; File D:\git\src\IBK\IBK_DRFN\ProjSrc\SrcChartEx\ChartAddIn\ChartDesignPropertyAddIn\ChartDesignPropertyAddIn\ToolandRButtonBase_ListCtrl.cpp
; File C:\Program Files (x86)\Microsoft Visual Studio\2019\Community\VC\Tools\MSVC\14.29.30133\atlmfc\include\afxcmn.inl
; File D:\git\src\IBK\IBK_DRFN\ProjSrc\SrcChartEx\ChartAddIn\ChartDesignPropertyAddIn\ChartDesignPropertyAddIn\ToolandRButtonBase_ListCtrl.cpp
; File C:\Program Files (x86)\Microsoft Visual Studio\2019\Community\VC\Tools\MSVC\14.29.30133\atlmfc\include\afxcmn.inl
; File D:\git\src\IBK\IBK_DRFN\ProjSrc\SrcChartEx\ChartAddIn\ChartDesignPropertyAddIn\ChartDesignPropertyAddIn\ToolandRButtonBase_ListCtrl.cpp
; File C:\Program Files (x86)\Microsoft Visual Studio\2019\Community\VC\Tools\MSVC\14.29.30133\atlmfc\include\afxcmn.inl
; File D:\git\src\IBK\IBK_DRFN\ProjSrc\SrcChartEx\ChartAddIn\ChartDesignPropertyAddIn\ChartDesignPropertyAddIn\ToolandRButtonBase_ListCtrl.cpp
; File C:\Program Files (x86)\Microsoft Visual Studio\2019\Community\VC\Tools\MSVC\14.29.30133\atlmfc\include\afxcmn.inl
; File D:\git\src\IBK\IBK_DRFN\ProjSrc\SrcChartEx\ChartAddIn\ChartDesignPropertyAddIn\ChartDesignPropertyAddIn\ToolandRButtonBase_ListCtrl.cpp
;	COMDAT ?SelectedItemCount@CToolandRButtonBase_ListCtrl@@AAEHXZ
_TEXT	SEGMENT
?SelectedItemCount@CToolandRButtonBase_ListCtrl@@AAEHXZ PROC ; CToolandRButtonBase_ListCtrl::SelectedItemCount, COMDAT
; _this$ = ecx

; 298  : {

  00000	53		 push	 ebx
; File C:\Program Files (x86)\Microsoft Visual Studio\2019\Community\VC\Tools\MSVC\14.29.30133\atlmfc\include\afxcmn.inl

; 177  : 	{ ASSERT(::IsWindow(m_hWnd)); return (int) ::SendMessage(m_hWnd, LVM_GETNEXTITEM, nItem, MAKELPARAM(nFlags, 0)); }

  00001	8b 1d 00 00 00
	00		 mov	 ebx, DWORD PTR __imp__SendMessageA@16
; File D:\git\src\IBK\IBK_DRFN\ProjSrc\SrcChartEx\ChartAddIn\ChartDesignPropertyAddIn\ChartDesignPropertyAddIn\ToolandRButtonBase_ListCtrl.cpp

; 298  : {

  00007	56		 push	 esi
  00008	57		 push	 edi
; File C:\Program Files (x86)\Microsoft Visual Studio\2019\Community\VC\Tools\MSVC\14.29.30133\atlmfc\include\afxcmn.inl

; 177  : 	{ ASSERT(::IsWindow(m_hWnd)); return (int) ::SendMessage(m_hWnd, LVM_GETNEXTITEM, nItem, MAKELPARAM(nFlags, 0)); }

  00009	6a 02		 push	 2
; File D:\git\src\IBK\IBK_DRFN\ProjSrc\SrcChartEx\ChartAddIn\ChartDesignPropertyAddIn\ChartDesignPropertyAddIn\ToolandRButtonBase_ListCtrl.cpp

; 298  : {

  0000b	8b f9		 mov	 edi, ecx

; 299  :    int nValue = 0;

  0000d	33 f6		 xor	 esi, esi
; File C:\Program Files (x86)\Microsoft Visual Studio\2019\Community\VC\Tools\MSVC\14.29.30133\atlmfc\include\afxcmn.inl

; 177  : 	{ ASSERT(::IsWindow(m_hWnd)); return (int) ::SendMessage(m_hWnd, LVM_GETNEXTITEM, nItem, MAKELPARAM(nFlags, 0)); }

  0000f	6a ff		 push	 -1
  00011	68 0c 10 00 00	 push	 4108			; 0000100cH
  00016	ff 77 20	 push	 DWORD PTR [edi+32]
  00019	ff d3		 call	 ebx

; 179  : 	{ ASSERT(::IsWindow(m_hWnd)); return (POSITION)(DWORD_PTR)(1+GetNextItem(-1, LVIS_SELECTED)); }

  0001b	83 c0 01	 add	 eax, 1
; File D:\git\src\IBK\IBK_DRFN\ProjSrc\SrcChartEx\ChartAddIn\ChartDesignPropertyAddIn\ChartDesignPropertyAddIn\ToolandRButtonBase_ListCtrl.cpp

; 301  :    while (pos) {

  0001e	74 14		 je	 SHORT $LN17@SelectedIt
$LL2@SelectedIt:
; File C:\Program Files (x86)\Microsoft Visual Studio\2019\Community\VC\Tools\MSVC\14.29.30133\atlmfc\include\afxcmn.inl

; 177  : 	{ ASSERT(::IsWindow(m_hWnd)); return (int) ::SendMessage(m_hWnd, LVM_GETNEXTITEM, nItem, MAKELPARAM(nFlags, 0)); }

  00020	6a 02		 push	 2

; 181  : 	{ ASSERT(::IsWindow(m_hWnd)); DWORD_PTR nOldPos = (DWORD_PTR)pos-1; pos = (POSITION)(DWORD_PTR)(1+GetNextItem((UINT)nOldPos, LVIS_SELECTED)); return (UINT)nOldPos; }

  00022	48		 dec	 eax

; 177  : 	{ ASSERT(::IsWindow(m_hWnd)); return (int) ::SendMessage(m_hWnd, LVM_GETNEXTITEM, nItem, MAKELPARAM(nFlags, 0)); }

  00023	50		 push	 eax
  00024	68 0c 10 00 00	 push	 4108			; 0000100cH
  00029	ff 77 20	 push	 DWORD PTR [edi+32]
  0002c	ff d3		 call	 ebx
; File D:\git\src\IBK\IBK_DRFN\ProjSrc\SrcChartEx\ChartAddIn\ChartDesignPropertyAddIn\ChartDesignPropertyAddIn\ToolandRButtonBase_ListCtrl.cpp

; 303  : 	  nValue++;

  0002e	46		 inc	 esi
; File C:\Program Files (x86)\Microsoft Visual Studio\2019\Community\VC\Tools\MSVC\14.29.30133\atlmfc\include\afxcmn.inl

; 181  : 	{ ASSERT(::IsWindow(m_hWnd)); DWORD_PTR nOldPos = (DWORD_PTR)pos-1; pos = (POSITION)(DWORD_PTR)(1+GetNextItem((UINT)nOldPos, LVIS_SELECTED)); return (UINT)nOldPos; }

  0002f	83 c0 01	 add	 eax, 1
; File D:\git\src\IBK\IBK_DRFN\ProjSrc\SrcChartEx\ChartAddIn\ChartDesignPropertyAddIn\ChartDesignPropertyAddIn\ToolandRButtonBase_ListCtrl.cpp

; 301  :    while (pos) {

  00032	75 ec		 jne	 SHORT $LL2@SelectedIt
$LN17@SelectedIt:
  00034	5f		 pop	 edi

; 304  :    }
; 305  :    return nValue;
; 306  : }

  00035	8b c6		 mov	 eax, esi
  00037	5e		 pop	 esi
  00038	5b		 pop	 ebx
  00039	c3		 ret	 0
?SelectedItemCount@CToolandRButtonBase_ListCtrl@@AAEHXZ ENDP ; CToolandRButtonBase_ListCtrl::SelectedItemCount
_TEXT	ENDS
; Function compile flags: /Ogtp
; File D:\git\src\IBK\IBK_DRFN\ProjSrc\SrcChartEx\ChartAddIn\ChartDesignPropertyAddIn\ChartDesignPropertyAddIn\ToolandRButtonBase_ListCtrl.cpp
;	COMDAT ??1CToolandRButtonBase_ListCtrl@@UAE@XZ
_TEXT	SEGMENT
??1CToolandRButtonBase_ListCtrl@@UAE@XZ PROC		; CToolandRButtonBase_ListCtrl::~CToolandRButtonBase_ListCtrl, COMDAT
; _this$ = ecx

; 61   : {

  00000	56		 push	 esi
  00001	8b f1		 mov	 esi, ecx

; 62   : }

  00003	8d 8e b4 00 00
	00		 lea	 ecx, DWORD PTR [esi+180]
  00009	c7 06 00 00 00
	00		 mov	 DWORD PTR [esi], OFFSET ??_7CToolandRButtonBase_ListCtrl@@6B@

; 113  : COleListCtrlDropTarget::~COleListCtrlDropTarget() {}

  0000f	c7 01 00 00 00
	00		 mov	 DWORD PTR [ecx], OFFSET ??_7COleListCtrlDropTarget@@6B@
  00015	e8 00 00 00 00	 call	 ??1COleDropTarget@@UAE@XZ ; COleDropTarget::~COleDropTarget

; 62   : }

  0001a	8d 8e 80 00 00
	00		 lea	 ecx, DWORD PTR [esi+128]
  00020	e8 00 00 00 00	 call	 ??1COleDataSource@@UAE@XZ ; COleDataSource::~COleDataSource
  00025	8b ce		 mov	 ecx, esi
  00027	5e		 pop	 esi
  00028	e9 00 00 00 00	 jmp	 ??1CListCtrl@@UAE@XZ	; CListCtrl::~CListCtrl
??1CToolandRButtonBase_ListCtrl@@UAE@XZ ENDP		; CToolandRButtonBase_ListCtrl::~CToolandRButtonBase_ListCtrl
_TEXT	ENDS
; Function compile flags: /Ogtp
; File D:\git\src\IBK\IBK_DRFN\ProjSrc\SrcChartEx\ChartAddIn\ChartDesignPropertyAddIn\ChartDesignPropertyAddIn\ToolandRButtonBase_ListCtrl.cpp
; File C:\Program Files (x86)\Microsoft Visual Studio\2019\Community\VC\Tools\MSVC\14.29.30133\atlmfc\include\afxcmn.inl
; File D:\git\src\IBK\IBK_DRFN\ProjSrc\SrcChartEx\ChartAddIn\ChartDesignPropertyAddIn\ChartDesignPropertyAddIn\ToolandRButtonBase_ListCtrl.cpp
;	COMDAT ??0CToolandRButtonBase_ListCtrl@@QAE@XZ
_TEXT	SEGMENT
_this$ = -20						; size = 4
_this$ = -16						; size = 4
__$EHRec$ = -12						; size = 12
??0CToolandRButtonBase_ListCtrl@@QAE@XZ PROC		; CToolandRButtonBase_ListCtrl::CToolandRButtonBase_ListCtrl, COMDAT
; _this$ = ecx

; 57   : {

  00000	55		 push	 ebp
  00001	8b ec		 mov	 ebp, esp
  00003	6a ff		 push	 -1
  00005	68 00 00 00 00	 push	 __ehhandler$??0CToolandRButtonBase_ListCtrl@@QAE@XZ
  0000a	64 a1 00 00 00
	00		 mov	 eax, DWORD PTR fs:0
  00010	50		 push	 eax
  00011	83 ec 08	 sub	 esp, 8
  00014	56		 push	 esi
  00015	57		 push	 edi
  00016	a1 00 00 00 00	 mov	 eax, DWORD PTR ___security_cookie
  0001b	33 c5		 xor	 eax, ebp
  0001d	50		 push	 eax
  0001e	8d 45 f4	 lea	 eax, DWORD PTR __$EHRec$[ebp]
  00021	64 a3 00 00 00
	00		 mov	 DWORD PTR fs:0, eax
  00027	8b f9		 mov	 edi, ecx
  00029	89 7d f0	 mov	 DWORD PTR _this$[ebp], edi
; File C:\Program Files (x86)\Microsoft Visual Studio\2019\Community\VC\Tools\MSVC\14.29.30133\atlmfc\include\afxcmn.inl

; 141  : 	{ }

  0002c	e8 00 00 00 00	 call	 ??0CWnd@@QAE@XZ		; CWnd::CWnd
; File D:\git\src\IBK\IBK_DRFN\ProjSrc\SrcChartEx\ChartAddIn\ChartDesignPropertyAddIn\ChartDesignPropertyAddIn\ToolandRButtonBase_ListCtrl.cpp

; 57   : {

  00031	8d 8f 80 00 00
	00		 lea	 ecx, DWORD PTR [edi+128]
  00037	c7 45 fc 00 00
	00 00		 mov	 DWORD PTR __$EHRec$[ebp+8], 0
  0003e	c7 07 00 00 00
	00		 mov	 DWORD PTR [edi], OFFSET ??_7CToolandRButtonBase_ListCtrl@@6B@
  00044	e8 00 00 00 00	 call	 ??0COleDataSource@@QAE@XZ ; COleDataSource::COleDataSource
  00049	8d b7 b4 00 00
	00		 lea	 esi, DWORD PTR [edi+180]
  0004f	c6 45 fc 01	 mov	 BYTE PTR __$EHRec$[ebp+8], 1

; 111  : {}

  00053	8b ce		 mov	 ecx, esi

; 57   : {

  00055	89 75 ec	 mov	 DWORD PTR _this$[ebp], esi

; 111  : {}

  00058	e8 00 00 00 00	 call	 ??0COleDropTarget@@QAE@XZ ; COleDropTarget::COleDropTarget
  0005d	c7 06 00 00 00
	00		 mov	 DWORD PTR [esi], OFFSET ??_7COleListCtrlDropTarget@@6B@

; 58   : }

  00063	8b c7		 mov	 eax, edi
  00065	8b 4d f4	 mov	 ecx, DWORD PTR __$EHRec$[ebp]
  00068	64 89 0d 00 00
	00 00		 mov	 DWORD PTR fs:0, ecx
  0006f	59		 pop	 ecx
  00070	5f		 pop	 edi
  00071	5e		 pop	 esi
  00072	8b e5		 mov	 esp, ebp
  00074	5d		 pop	 ebp
  00075	c3		 ret	 0
_TEXT	ENDS
;	COMDAT text$x
text$x	SEGMENT
__unwindfunclet$??0CToolandRButtonBase_ListCtrl@@QAE@XZ$0:
  00000	8b 4d f0	 mov	 ecx, DWORD PTR _this$[ebp]
  00003	e9 00 00 00 00	 jmp	 ??1CListCtrl@@UAE@XZ	; CListCtrl::~CListCtrl
__unwindfunclet$??0CToolandRButtonBase_ListCtrl@@QAE@XZ$1:
  00008	8b 4d f0	 mov	 ecx, DWORD PTR _this$[ebp]
  0000b	81 c1 80 00 00
	00		 add	 ecx, 128		; 00000080H
  00011	e9 00 00 00 00	 jmp	 ??1COleDataSource@@UAE@XZ ; COleDataSource::~COleDataSource
  00016	cc		 int	 3
  00017	cc		 int	 3
  00018	cc		 int	 3
  00019	cc		 int	 3
  0001a	cc		 int	 3
__ehhandler$??0CToolandRButtonBase_ListCtrl@@QAE@XZ:
  0001b	90		 npad	 1
  0001c	90		 npad	 1
  0001d	8b 54 24 08	 mov	 edx, DWORD PTR [esp+8]
  00021	8d 42 0c	 lea	 eax, DWORD PTR [edx+12]
  00024	8b 4a ec	 mov	 ecx, DWORD PTR [edx-20]
  00027	33 c8		 xor	 ecx, eax
  00029	e8 00 00 00 00	 call	 @__security_check_cookie@4
  0002e	b8 00 00 00 00	 mov	 eax, OFFSET __ehfuncinfo$??0CToolandRButtonBase_ListCtrl@@QAE@XZ
  00033	e9 00 00 00 00	 jmp	 ___CxxFrameHandler3
text$x	ENDS
??0CToolandRButtonBase_ListCtrl@@QAE@XZ ENDP		; CToolandRButtonBase_ListCtrl::CToolandRButtonBase_ListCtrl
; Function compile flags: /Ogtp
; File D:\git\src\IBK\IBK_DRFN\ProjSrc\SrcChartEx\ChartAddIn\ChartDesignPropertyAddIn\ChartDesignPropertyAddIn\ToolandRButtonBase_ListCtrl.cpp
; File C:\Program Files (x86)\Microsoft Visual Studio\2019\Community\VC\Tools\MSVC\14.29.30133\atlmfc\include\afx.inl
;	COMDAT ??_GCOleListCtrlDropTarget@@UAEPAXI@Z
_TEXT	SEGMENT
___flags$ = 8						; size = 4
??_GCOleListCtrlDropTarget@@UAEPAXI@Z PROC		; COleListCtrlDropTarget::`scalar deleting destructor', COMDAT
; _this$ = ecx
  00000	55		 push	 ebp
  00001	8b ec		 mov	 ebp, esp
; File D:\git\src\IBK\IBK_DRFN\ProjSrc\SrcChartEx\ChartAddIn\ChartDesignPropertyAddIn\ChartDesignPropertyAddIn\ToolandRButtonBase_ListCtrl.cpp

; 113  : COleListCtrlDropTarget::~COleListCtrlDropTarget() {}

  00003	56		 push	 esi
  00004	8b f1		 mov	 esi, ecx
  00006	c7 06 00 00 00
	00		 mov	 DWORD PTR [esi], OFFSET ??_7COleListCtrlDropTarget@@6B@
  0000c	e8 00 00 00 00	 call	 ??1COleDropTarget@@UAE@XZ ; COleDropTarget::~COleDropTarget
  00011	8b 45 08	 mov	 eax, DWORD PTR ___flags$[ebp]
  00014	a8 01		 test	 al, 1
  00016	74 1f		 je	 SHORT $LN12@scalar
  00018	a8 04		 test	 al, 4
  0001a	75 10		 jne	 SHORT $LN3@scalar
; File C:\Program Files (x86)\Microsoft Visual Studio\2019\Community\VC\Tools\MSVC\14.29.30133\atlmfc\include\afx.inl

; 112  : 	{ ::operator delete(p); }

  0001c	56		 push	 esi
  0001d	e8 00 00 00 00	 call	 ??3@YAXPAX@Z		; operator delete
  00022	83 c4 04	 add	 esp, 4
  00025	8b c6		 mov	 eax, esi
  00027	5e		 pop	 esi
  00028	5d		 pop	 ebp
  00029	c2 04 00	 ret	 4
$LN3@scalar:
  0002c	6a 3c		 push	 60			; 0000003cH
  0002e	56		 push	 esi
  0002f	e8 00 00 00 00	 call	 ?__global_delete@@YAXPAXI@Z ; __global_delete
  00034	83 c4 08	 add	 esp, 8
$LN12@scalar:
  00037	8b c6		 mov	 eax, esi
  00039	5e		 pop	 esi
  0003a	5d		 pop	 ebp
  0003b	c2 04 00	 ret	 4
??_GCOleListCtrlDropTarget@@UAEPAXI@Z ENDP		; COleListCtrlDropTarget::`scalar deleting destructor'
_TEXT	ENDS
; Function compile flags: /Ogtp
; File D:\git\src\IBK\IBK_DRFN\ProjSrc\SrcChartEx\ChartAddIn\ChartDesignPropertyAddIn\ChartDesignPropertyAddIn\ToolandRButtonBase_ListCtrl.cpp
;	COMDAT ?SetCurrentWindow@COleListCtrlDropTarget@@QAEXPAVCWnd@@@Z
_TEXT	SEGMENT
_pWnd$ = 8						; size = 4
?SetCurrentWindow@COleListCtrlDropTarget@@QAEXPAVCWnd@@@Z PROC ; COleListCtrlDropTarget::SetCurrentWindow, COMDAT
; _this$ = ecx

; 273  : {

  00000	55		 push	 ebp
  00001	8b ec		 mov	 ebp, esp

; 274  : 	m_pWnd = pWnd;

  00003	8b 45 08	 mov	 eax, DWORD PTR _pWnd$[ebp]
  00006	89 41 38	 mov	 DWORD PTR [ecx+56], eax

; 275  : }

  00009	5d		 pop	 ebp
  0000a	c2 04 00	 ret	 4
?SetCurrentWindow@COleListCtrlDropTarget@@QAEXPAVCWnd@@@Z ENDP ; COleListCtrlDropTarget::SetCurrentWindow
_TEXT	ENDS
; Function compile flags: /Ogtp
; File D:\git\src\IBK\IBK_DRFN\ProjSrc\SrcChartEx\ChartAddIn\ChartDesignPropertyAddIn\ChartDesignPropertyAddIn\ToolandRButtonBase_ListCtrl.cpp
; File C:\Program Files (x86)\Microsoft Visual Studio\2019\Community\VC\Tools\MSVC\14.29.30133\atlmfc\include\afxwin2.inl
; File D:\git\src\IBK\IBK_DRFN\ProjSrc\SrcChartEx\ChartAddIn\ChartDesignPropertyAddIn\ChartDesignPropertyAddIn\ToolandRButtonBase_ListCtrl.cpp
;	COMDAT ?OnDrop@COleListCtrlDropTarget@@UAEHPAVCWnd@@PAVCOleDataObject@@KVCPoint@@@Z
_TEXT	SEGMENT
_pWnd$ = 8						; size = 4
_pDataObject$ = 12					; size = 4
_dropEffect$ = 16					; size = 4
_point$ = 20						; size = 8
?OnDrop@COleListCtrlDropTarget@@UAEHPAVCWnd@@PAVCOleDataObject@@KVCPoint@@@Z PROC ; COleListCtrlDropTarget::OnDrop, COMDAT
; _this$ = ecx

; 255  : {       

  00000	55		 push	 ebp
  00001	8b ec		 mov	 ebp, esp
  00003	56		 push	 esi
  00004	57		 push	 edi

; 256  :    	HGLOBAL	hGlobal = NULL;
; 257  : 	hGlobal= pDataObject->GetGlobalData(CF_TEXT);

  00005	6a 00		 push	 0
  00007	8b f9		 mov	 edi, ecx
  00009	8b 4d 0c	 mov	 ecx, DWORD PTR _pDataObject$[ebp]
  0000c	6a 01		 push	 1
  0000e	e8 00 00 00 00	 call	 ?GetGlobalData@COleDataObject@@QAEPAXGPAUtagFORMATETC@@@Z ; COleDataObject::GetGlobalData
  00013	8b f0		 mov	 esi, eax

; 258  : 	if(!hGlobal)

  00015	85 f6		 test	 esi, esi
  00017	74 38		 je	 SHORT $LN3@OnDrop

; 259  : 		return false;
; 260  : 	LPCSTR pszObj = (LPCSTR)GlobalLock(hGlobal);

  00019	56		 push	 esi
  0001a	ff 15 00 00 00
	00		 call	 DWORD PTR __imp__GlobalLock@4

; 261  : 	ToolItem *pData = (ToolItem *)pszObj;
; 262  : 	if(pszObj)

  00020	85 c0		 test	 eax, eax
  00022	74 2d		 je	 SHORT $LN3@OnDrop
; File C:\Program Files (x86)\Microsoft Visual Studio\2019\Community\VC\Tools\MSVC\14.29.30133\atlmfc\include\afxwin2.inl

; 32   : 	{ ASSERT(::IsWindow(m_hWnd)); return ::SendMessage(m_hWnd, message, wParam, lParam); }

  00024	50		 push	 eax
  00025	8b 47 38	 mov	 eax, DWORD PTR [edi+56]
  00028	6a 00		 push	 0
  0002a	68 96 05 00 00	 push	 1430			; 00000596H
  0002f	ff 70 20	 push	 DWORD PTR [eax+32]
  00032	ff 15 00 00 00
	00		 call	 DWORD PTR __imp__SendMessageA@16
; File D:\git\src\IBK\IBK_DRFN\ProjSrc\SrcChartEx\ChartAddIn\ChartDesignPropertyAddIn\ChartDesignPropertyAddIn\ToolandRButtonBase_ListCtrl.cpp

; 265  : 		GlobalUnlock(hGlobal);

  00038	56		 push	 esi
  00039	ff 15 00 00 00
	00		 call	 DWORD PTR __imp__GlobalUnlock@4

; 266  : 		GlobalFree(hGlobal);

  0003f	56		 push	 esi
  00040	ff 15 00 00 00
	00		 call	 DWORD PTR __imp__GlobalFree@4
  00046	5f		 pop	 edi

; 267  : 		return TRUE;

  00047	b8 01 00 00 00	 mov	 eax, 1

; 270  : }

  0004c	5e		 pop	 esi
  0004d	5d		 pop	 ebp
  0004e	c2 14 00	 ret	 20			; 00000014H
$LN3@OnDrop:
  00051	5f		 pop	 edi

; 268  : 	}
; 269  : 	return FALSE; 

  00052	33 c0		 xor	 eax, eax

; 270  : }

  00054	5e		 pop	 esi
  00055	5d		 pop	 ebp
  00056	c2 14 00	 ret	 20			; 00000014H
?OnDrop@COleListCtrlDropTarget@@UAEHPAVCWnd@@PAVCOleDataObject@@KVCPoint@@@Z ENDP ; COleListCtrlDropTarget::OnDrop
_TEXT	ENDS
; Function compile flags: /Ogtp
; File D:\git\src\IBK\IBK_DRFN\ProjSrc\SrcChartEx\ChartAddIn\ChartDesignPropertyAddIn\ChartDesignPropertyAddIn\ToolandRButtonBase_ListCtrl.cpp
;	COMDAT ?OnDragLeave@COleListCtrlDropTarget@@UAEXPAVCWnd@@@Z
_TEXT	SEGMENT
_pWnd$ = 8						; size = 4
?OnDragLeave@COleListCtrlDropTarget@@UAEXPAVCWnd@@@Z PROC ; COleListCtrlDropTarget::OnDragLeave, COMDAT
; _this$ = ecx

; 167  : {

  00000	55		 push	 ebp
  00001	8b ec		 mov	 ebp, esp

; 170  : }

  00003	5d		 pop	 ebp

; 168  :      // Call base class implementation
; 169  :     COleDropTarget:: OnDragLeave(pWnd);

  00004	e9 00 00 00 00	 jmp	 ?OnDragLeave@COleDropTarget@@UAEXPAVCWnd@@@Z ; COleDropTarget::OnDragLeave
?OnDragLeave@COleListCtrlDropTarget@@UAEXPAVCWnd@@@Z ENDP ; COleListCtrlDropTarget::OnDragLeave
_TEXT	ENDS
; Function compile flags: /Ogtp
; File D:\git\src\IBK\IBK_DRFN\ProjSrc\SrcChartEx\ChartAddIn\ChartDesignPropertyAddIn\ChartDesignPropertyAddIn\ToolandRButtonBase_ListCtrl.cpp
; File C:\Program Files (x86)\Microsoft Visual Studio\2019\Community\VC\Tools\MSVC\14.29.30133\atlmfc\include\afxwin2.inl
; File D:\git\src\IBK\IBK_DRFN\ProjSrc\SrcChartEx\ChartAddIn\ChartDesignPropertyAddIn\ChartDesignPropertyAddIn\ToolandRButtonBase_ListCtrl.cpp
;	COMDAT ?OnDragOver@COleListCtrlDropTarget@@UAEKPAVCWnd@@PAVCOleDataObject@@KVCPoint@@@Z
_TEXT	SEGMENT
_pWnd$ = 8						; size = 4
_pDataObject$ = 12					; size = 4
_dwKeyState$ = 16					; size = 4
_point$ = 20						; size = 8
?OnDragOver@COleListCtrlDropTarget@@UAEKPAVCWnd@@PAVCOleDataObject@@KVCPoint@@@Z PROC ; COleListCtrlDropTarget::OnDragOver, COMDAT
; _this$ = ecx

; 212  : {                              

  00000	55		 push	 ebp
  00001	8b ec		 mov	 ebp, esp

; 213  : 	if(m_pWnd != NULL) {

  00003	8b 51 38	 mov	 edx, DWORD PTR [ecx+56]
  00006	85 d2		 test	 edx, edx
  00008	74 1e		 je	 SHORT $LN2@OnDragOver

; 214  : 		m_pWnd->SendMessage(WM_DRAGCHARTDATA, 0, 

  0000a	0f b7 4d 18	 movzx	 ecx, WORD PTR _point$[ebp+4]
  0000e	0f b7 45 14	 movzx	 eax, WORD PTR _point$[ebp]
  00012	c1 e1 10	 shl	 ecx, 16			; 00000010H
  00015	0b c8		 or	 ecx, eax
; File C:\Program Files (x86)\Microsoft Visual Studio\2019\Community\VC\Tools\MSVC\14.29.30133\atlmfc\include\afxwin2.inl

; 32   : 	{ ASSERT(::IsWindow(m_hWnd)); return ::SendMessage(m_hWnd, message, wParam, lParam); }

  00017	51		 push	 ecx
  00018	6a 00		 push	 0
  0001a	68 95 05 00 00	 push	 1429			; 00000595H
  0001f	ff 72 20	 push	 DWORD PTR [edx+32]
  00022	ff 15 00 00 00
	00		 call	 DWORD PTR __imp__SendMessageA@16
$LN2@OnDragOver:
; File D:\git\src\IBK\IBK_DRFN\ProjSrc\SrcChartEx\ChartAddIn\ChartDesignPropertyAddIn\ChartDesignPropertyAddIn\ToolandRButtonBase_ListCtrl.cpp

; 219  : 	if(pDataObject->IsDataAvailable(CF_TEXT)) {

  00028	8b 4d 0c	 mov	 ecx, DWORD PTR _pDataObject$[ebp]
  0002b	6a 00		 push	 0
  0002d	6a 01		 push	 1
  0002f	e8 00 00 00 00	 call	 ?IsDataAvailable@COleDataObject@@QAEHGPAUtagFORMATETC@@@Z ; COleDataObject::IsDataAvailable
  00034	85 c0		 test	 eax, eax
  00036	74 13		 je	 SHORT $LN9@OnDragOver

; 220  : 		if(dwKeyState & MK_CONTROL )

  00038	8a 45 10	 mov	 al, BYTE PTR _dwKeyState$[ebp]
  0003b	24 08		 and	 al, 8
  0003d	0f b6 c0	 movzx	 eax, al
  00040	f7 d8		 neg	 eax
  00042	1b c0		 sbb	 eax, eax
  00044	83 c0 02	 add	 eax, 2

; 226  : }

  00047	5d		 pop	 ebp
  00048	c2 14 00	 ret	 20			; 00000014H
$LN9@OnDragOver:

; 221  : 			deResult = DROPEFFECT_COPY;
; 222  : 		else
; 223  : 			deResult = DROPEFFECT_MOVE;
; 224  : 	}
; 225  : 	return deResult;

  0004b	33 c0		 xor	 eax, eax

; 226  : }

  0004d	5d		 pop	 ebp
  0004e	c2 14 00	 ret	 20			; 00000014H
?OnDragOver@COleListCtrlDropTarget@@UAEKPAVCWnd@@PAVCOleDataObject@@KVCPoint@@@Z ENDP ; COleListCtrlDropTarget::OnDragOver
_TEXT	ENDS
; Function compile flags: /Ogtp
; File D:\git\src\IBK\IBK_DRFN\ProjSrc\SrcChartEx\ChartAddIn\ChartDesignPropertyAddIn\ChartDesignPropertyAddIn\ToolandRButtonBase_ListCtrl.cpp
;	COMDAT ?OnDragEnter@COleListCtrlDropTarget@@UAEKPAVCWnd@@PAVCOleDataObject@@KVCPoint@@@Z
_TEXT	SEGMENT
_pWnd$ = 8						; size = 4
_pDataObject$ = 12					; size = 4
_dwKeyState$ = 16					; size = 4
_point$ = 20						; size = 8
?OnDragEnter@COleListCtrlDropTarget@@UAEKPAVCWnd@@PAVCOleDataObject@@KVCPoint@@@Z PROC ; COleListCtrlDropTarget::OnDragEnter, COMDAT
; _this$ = ecx

; 150  : {

  00000	55		 push	 ebp
  00001	8b ec		 mov	 ebp, esp

; 151  : 	// Check if the Control key was pressed
; 152  :     if ((dwKeyState&MK_CONTROL) == MK_CONTROL)

  00003	8a 45 10	 mov	 al, BYTE PTR _dwKeyState$[ebp]
  00006	24 08		 and	 al, 8
  00008	0f b6 c0	 movzx	 eax, al
  0000b	f7 d8		 neg	 eax
  0000d	1b c0		 sbb	 eax, eax
  0000f	83 c0 02	 add	 eax, 2

; 153  :         return DROPEFFECT_COPY; // Copy source text
; 154  :     else
; 155  :         return DROPEFFECT_MOVE; // Move source text   
; 156  : }

  00012	5d		 pop	 ebp
  00013	c2 14 00	 ret	 20			; 00000014H
?OnDragEnter@COleListCtrlDropTarget@@UAEKPAVCWnd@@PAVCOleDataObject@@KVCPoint@@@Z ENDP ; COleListCtrlDropTarget::OnDragEnter
_TEXT	ENDS
; Function compile flags: /Ogtp
; File D:\git\src\IBK\IBK_DRFN\ProjSrc\SrcChartEx\ChartAddIn\ChartDesignPropertyAddIn\ChartDesignPropertyAddIn\ToolandRButtonBase_ListCtrl.cpp
;	COMDAT ??1COleListCtrlDropTarget@@UAE@XZ
_TEXT	SEGMENT
??1COleListCtrlDropTarget@@UAE@XZ PROC			; COleListCtrlDropTarget::~COleListCtrlDropTarget, COMDAT
; _this$ = ecx

; 113  : COleListCtrlDropTarget::~COleListCtrlDropTarget() {}

  00000	c7 01 00 00 00
	00		 mov	 DWORD PTR [ecx], OFFSET ??_7COleListCtrlDropTarget@@6B@
  00006	e9 00 00 00 00	 jmp	 ??1COleDropTarget@@UAE@XZ ; COleDropTarget::~COleDropTarget
??1COleListCtrlDropTarget@@UAE@XZ ENDP			; COleListCtrlDropTarget::~COleListCtrlDropTarget
_TEXT	ENDS
; Function compile flags: /Ogtp
; File D:\git\src\IBK\IBK_DRFN\ProjSrc\SrcChartEx\ChartAddIn\ChartDesignPropertyAddIn\ChartDesignPropertyAddIn\ToolandRButtonBase_ListCtrl.cpp
;	COMDAT ??0COleListCtrlDropTarget@@QAE@XZ
_TEXT	SEGMENT
_this$ = -4						; size = 4
??0COleListCtrlDropTarget@@QAE@XZ PROC			; COleListCtrlDropTarget::COleListCtrlDropTarget, COMDAT
; _this$ = ecx

; 111  : {}

  00000	55		 push	 ebp
  00001	8b ec		 mov	 ebp, esp
  00003	51		 push	 ecx
  00004	56		 push	 esi
  00005	8b f1		 mov	 esi, ecx
  00007	89 75 fc	 mov	 DWORD PTR _this$[ebp], esi
  0000a	e8 00 00 00 00	 call	 ??0COleDropTarget@@QAE@XZ ; COleDropTarget::COleDropTarget
  0000f	c7 06 00 00 00
	00		 mov	 DWORD PTR [esi], OFFSET ??_7COleListCtrlDropTarget@@6B@
  00015	8b c6		 mov	 eax, esi
  00017	5e		 pop	 esi
  00018	8b e5		 mov	 esp, ebp
  0001a	5d		 pop	 ebp
  0001b	c3		 ret	 0
??0COleListCtrlDropTarget@@QAE@XZ ENDP			; COleListCtrlDropTarget::COleListCtrlDropTarget
_TEXT	ENDS
; Function compile flags: /Ogtp
; File C:\Program Files (x86)\Microsoft Visual Studio\2019\Community\VC\Tools\MSVC\14.29.30133\atlmfc\include\afx.inl
;	COMDAT ??_GCListCtrl@@UAEPAXI@Z
_TEXT	SEGMENT
___flags$ = 8						; size = 4
??_GCListCtrl@@UAEPAXI@Z PROC				; CListCtrl::`scalar deleting destructor', COMDAT
; _this$ = ecx
  00000	55		 push	 ebp
  00001	8b ec		 mov	 ebp, esp
  00003	56		 push	 esi
  00004	8b f1		 mov	 esi, ecx
  00006	e8 00 00 00 00	 call	 ??1CListCtrl@@UAE@XZ	; CListCtrl::~CListCtrl
  0000b	8b 45 08	 mov	 eax, DWORD PTR ___flags$[ebp]
  0000e	a8 01		 test	 al, 1
  00010	74 22		 je	 SHORT $LN9@scalar
  00012	a8 04		 test	 al, 4
  00014	75 10		 jne	 SHORT $LN3@scalar

; 112  : 	{ ::operator delete(p); }

  00016	56		 push	 esi
  00017	e8 00 00 00 00	 call	 ??3@YAXPAX@Z		; operator delete
  0001c	83 c4 04	 add	 esp, 4
  0001f	8b c6		 mov	 eax, esi
  00021	5e		 pop	 esi
  00022	5d		 pop	 ebp
  00023	c2 04 00	 ret	 4
$LN3@scalar:
  00026	68 80 00 00 00	 push	 128			; 00000080H
  0002b	56		 push	 esi
  0002c	e8 00 00 00 00	 call	 ?__global_delete@@YAXPAXI@Z ; __global_delete
  00031	83 c4 08	 add	 esp, 8
$LN9@scalar:
  00034	8b c6		 mov	 eax, esi
  00036	5e		 pop	 esi
  00037	5d		 pop	 ebp
  00038	c2 04 00	 ret	 4
??_GCListCtrl@@UAEPAXI@Z ENDP				; CListCtrl::`scalar deleting destructor'
_TEXT	ENDS
; Function compile flags: /Ogtp
; File C:\Program Files (x86)\Microsoft Visual Studio\2019\Community\VC\Tools\MSVC\14.29.30133\atlmfc\include\afxwin2.inl
;	COMDAT ?EndModalState@CWnd@@UAEXXZ
_TEXT	SEGMENT
?EndModalState@CWnd@@UAEXXZ PROC			; CWnd::EndModalState, COMDAT
; _this$ = ecx

; 567  : 	{ ::EnableWindow(m_hWnd, TRUE); }

  00000	6a 01		 push	 1
  00002	ff 71 20	 push	 DWORD PTR [ecx+32]
  00005	ff 15 00 00 00
	00		 call	 DWORD PTR __imp__EnableWindow@8
  0000b	c3		 ret	 0
?EndModalState@CWnd@@UAEXXZ ENDP			; CWnd::EndModalState
_TEXT	ENDS
; Function compile flags: /Ogtp
; File C:\Program Files (x86)\Microsoft Visual Studio\2019\Community\VC\Tools\MSVC\14.29.30133\atlmfc\include\afxwin2.inl
;	COMDAT ?BeginModalState@CWnd@@UAEXXZ
_TEXT	SEGMENT
?BeginModalState@CWnd@@UAEXXZ PROC			; CWnd::BeginModalState, COMDAT
; _this$ = ecx

; 565  : 	{ ::EnableWindow(m_hWnd, FALSE); }

  00000	6a 00		 push	 0
  00002	ff 71 20	 push	 DWORD PTR [ecx+32]
  00005	ff 15 00 00 00
	00		 call	 DWORD PTR __imp__EnableWindow@8
  0000b	c3		 ret	 0
?BeginModalState@CWnd@@UAEXXZ ENDP			; CWnd::BeginModalState
_TEXT	ENDS
; Function compile flags: /Ogtp
; File C:\Program Files (x86)\Microsoft Visual Studio\2019\Community\VC\Tools\MSVC\14.29.30133\atlmfc\include\afxwin2.inl
;	COMDAT ?DoDataExchange@CWnd@@MAEXPAVCDataExchange@@@Z
_TEXT	SEGMENT
___formal$ = 8						; size = 4
?DoDataExchange@CWnd@@MAEXPAVCDataExchange@@@Z PROC	; CWnd::DoDataExchange, COMDAT
; _this$ = ecx

; 561  : 	{ } // default does nothing

  00000	c2 04 00	 ret	 4
?DoDataExchange@CWnd@@MAEXPAVCDataExchange@@@Z ENDP	; CWnd::DoDataExchange
_TEXT	ENDS
; Function compile flags: /Ogtp
; File C:\Program Files (x86)\Microsoft Visual Studio\2019\Community\VC\Tools\MSVC\14.29.30133\atlmfc\include\afx.inl
;	COMDAT ?Dump@CObject@@UBEXAAVCDumpContext@@@Z
_TEXT	SEGMENT
___formal$ = 8						; size = 4
?Dump@CObject@@UBEXAAVCDumpContext@@@Z PROC		; CObject::Dump, COMDAT
; _this$ = ecx

; 122  : 	{ /* no dumping in release builds */ }

  00000	c2 04 00	 ret	 4
?Dump@CObject@@UBEXAAVCDumpContext@@@Z ENDP		; CObject::Dump
_TEXT	ENDS
; Function compile flags: /Ogtp
; File C:\Program Files (x86)\Microsoft Visual Studio\2019\Community\VC\Tools\MSVC\14.29.30133\atlmfc\include\afx.inl
;	COMDAT ?AssertValid@CObject@@UBEXXZ
_TEXT	SEGMENT
?AssertValid@CObject@@UBEXXZ PROC			; CObject::AssertValid, COMDAT
; _this$ = ecx

; 120  : 	{ /* no asserts in release builds */ }

  00000	c2 00 00	 ret	 0
?AssertValid@CObject@@UBEXXZ ENDP			; CObject::AssertValid
_TEXT	ENDS
; Function compile flags: /Ogtp
; File C:\Program Files (x86)\Microsoft Visual Studio\2019\Community\VC\Tools\MSVC\14.29.30133\atlmfc\include\afx.inl
;	COMDAT ?Serialize@CObject@@UAEXAAVCArchive@@@Z
_TEXT	SEGMENT
___formal$ = 8						; size = 4
?Serialize@CObject@@UAEXAAVCArchive@@@Z PROC		; CObject::Serialize, COMDAT
; _this$ = ecx

; 106  : 	{ /* CObject does not serialize anything by default */ }

  00000	c2 04 00	 ret	 4
?Serialize@CObject@@UAEXAAVCArchive@@@Z ENDP		; CObject::Serialize
_TEXT	ENDS
; Function compile flags: /Ogtp
; File D:\git\src\IBK\IBK_DRFN\ProjSrc\SrcChartEx\ChartAddIn\ChartDesignPropertyAddIn\ChartDesignPropertyAddIn\ToolandRButtonBase_ListCtrl.cpp
;	COMDAT ?__empty_global_delete@@YAXPAXI@Z
_TEXT	SEGMENT
___formal$ = 8						; size = 4
___formal$ = 12						; size = 4
?__empty_global_delete@@YAXPAXI@Z PROC			; __empty_global_delete, COMDAT

  00000	c2 00 00	 ret	 0
?__empty_global_delete@@YAXPAXI@Z ENDP			; __empty_global_delete
_TEXT	ENDS
; Function compile flags: /Ogtp
; File D:\git\src\IBK\IBK_DRFN\ProjSrc\SrcChartEx\ChartAddIn\ChartDesignPropertyAddIn\ChartDesignPropertyAddIn\ToolandRButtonBase_ListCtrl.cpp
;	COMDAT ?__empty_global_delete@@YAXPAX@Z
_TEXT	SEGMENT
___formal$ = 8						; size = 4
?__empty_global_delete@@YAXPAX@Z PROC			; __empty_global_delete, COMDAT

  00000	c2 00 00	 ret	 0
?__empty_global_delete@@YAXPAX@Z ENDP			; __empty_global_delete
_TEXT	ENDS
END
