; Listing generated by Microsoft (R) Optimizing Compiler Version 19.29.30145.0 

	TITLE	D:\git\src\IBK\IBK_DRFN\#DRfn-CS\_Obj\ChartDesignPropertyAddIn\ToolandRButtonPage.obj
	.686P
	.XMM
	include listing.inc
	.model	flat

INCLUDELIB MSVCRT
INCLUDELIB OLDNAMES

PUBLIC	?__empty_global_delete@@YAXPAX@Z		; __empty_global_delete
PUBLIC	?__empty_global_delete@@YAXPAXI@Z		; __empty_global_delete
PUBLIC	??3CObject@@SGXPAX@Z				; CObject::operator delete
PUBLIC	?Serialize@CObject@@UAEXAAVCArchive@@@Z		; CObject::Serialize
PUBLIC	?AssertValid@CObject@@UBEXXZ			; CObject::AssertValid
PUBLIC	?Dump@CObject@@UBEXAAVCDumpContext@@@Z		; CObject::Dump
PUBLIC	?DoDataExchange@CWnd@@MAEXPAVCDataExchange@@@Z	; CWnd::DoDataExchange
PUBLIC	?BeginModalState@CWnd@@UAEXXZ			; CWnd::BeginModalState
PUBLIC	?EndModalState@CWnd@@UAEXXZ			; CWnd::EndModalState
PUBLIC	?Create@CDialog@@UAEHIPAVCWnd@@@Z		; CDialog::Create
PUBLIC	??1CMultiLanguageResourceSetter@@QAE@XZ		; CMultiLanguageResourceSetter::~CMultiLanguageResourceSetter
PUBLIC	?_GetBaseClass@CToolandRButtonPage@@KGPAUCRuntimeClass@@XZ ; CToolandRButtonPage::_GetBaseClass
PUBLIC	?GetThisClass@CToolandRButtonPage@@SGPAUCRuntimeClass@@XZ ; CToolandRButtonPage::GetThisClass
PUBLIC	?GetRuntimeClass@CToolandRButtonPage@@UBEPAUCRuntimeClass@@XZ ; CToolandRButtonPage::GetRuntimeClass
PUBLIC	?CreateObject@CToolandRButtonPage@@SGPAVCObject@@XZ ; CToolandRButtonPage::CreateObject
PUBLIC	??0CToolandRButtonPage@@QAE@XZ			; CToolandRButtonPage::CToolandRButtonPage
PUBLIC	??1CToolandRButtonPage@@UAE@XZ			; CToolandRButtonPage::~CToolandRButtonPage
PUBLIC	?SetProperty@CToolandRButtonPage@@QAEXPAUIPropertyMap@@@Z ; CToolandRButtonPage::SetProperty
PUBLIC	?OnApply@CToolandRButtonPage@@UAEHXZ		; CToolandRButtonPage::OnApply
PUBLIC	?PreTranslateMessage@CToolandRButtonPage@@UAEHPAUtagMSG@@@Z ; CToolandRButtonPage::PreTranslateMessage
PUBLIC	?DoDataExchange@CToolandRButtonPage@@MAEXPAVCDataExchange@@@Z ; CToolandRButtonPage::DoDataExchange
PUBLIC	?OnInitDialog@CToolandRButtonPage@@MAEHXZ	; CToolandRButtonPage::OnInitDialog
PUBLIC	?GetThisMessageMap@CToolandRButtonPage@@KGPBUAFX_MSGMAP@@XZ ; CToolandRButtonPage::GetThisMessageMap
PUBLIC	?GetMessageMap@CToolandRButtonPage@@MBEPBUAFX_MSGMAP@@XZ ; CToolandRButtonPage::GetMessageMap
PUBLIC	?CreateToolTip@CToolandRButtonPage@@AAEXXZ	; CToolandRButtonPage::CreateToolTip
PUBLIC	?InitBaseList@CToolandRButtonPage@@AAEXPAVCListCtrl@@@Z ; CToolandRButtonPage::InitBaseList
PUBLIC	?SetOcxHwnd@CToolandRButtonPage@@QAEXPAUHWND__@@@Z ; CToolandRButtonPage::SetOcxHwnd
PUBLIC	??_GCToolandRButtonPage@@UAEPAXI@Z		; CToolandRButtonPage::`scalar deleting destructor'
PUBLIC	??_C@_02DPKJAMEF@?$CFd@				; `string'
PUBLIC	??_C@_00CNPNBAHC@@				; `string'
PUBLIC	??_R0?AVCObject@@@8				; CObject `RTTI Type Descriptor'
PUBLIC	??_R3CObject@@8					; CObject::`RTTI Class Hierarchy Descriptor'
PUBLIC	??_R2CObject@@8					; CObject::`RTTI Base Class Array'
PUBLIC	??_R1A@?0A@EA@CObject@@8			; CObject::`RTTI Base Class Descriptor at (0,-1,0,64)'
PUBLIC	??_R1A@?0A@EA@CWnd@@8				; CWnd::`RTTI Base Class Descriptor at (0,-1,0,64)'
PUBLIC	??_R0?AVCWnd@@@8				; CWnd `RTTI Type Descriptor'
PUBLIC	??_R3CWnd@@8					; CWnd::`RTTI Class Hierarchy Descriptor'
PUBLIC	??_R2CWnd@@8					; CWnd::`RTTI Base Class Array'
PUBLIC	??_R1A@?0A@EA@CCmdTarget@@8			; CCmdTarget::`RTTI Base Class Descriptor at (0,-1,0,64)'
PUBLIC	??_R0?AVCCmdTarget@@@8				; CCmdTarget `RTTI Type Descriptor'
PUBLIC	??_R3CCmdTarget@@8				; CCmdTarget::`RTTI Class Hierarchy Descriptor'
PUBLIC	??_R2CCmdTarget@@8				; CCmdTarget::`RTTI Base Class Array'
PUBLIC	??_R1A@?0A@EA@CDialog@@8			; CDialog::`RTTI Base Class Descriptor at (0,-1,0,64)'
PUBLIC	??_R0?AVCDialog@@@8				; CDialog `RTTI Type Descriptor'
PUBLIC	??_R3CDialog@@8					; CDialog::`RTTI Class Hierarchy Descriptor'
PUBLIC	??_R2CDialog@@8					; CDialog::`RTTI Base Class Array'
PUBLIC	??_C@_0BA@ENJOCHIO@LoadResourceDLL@		; `string'
PUBLIC	?classCToolandRButtonPage@CToolandRButtonPage@@2UCRuntimeClass@@B ; CToolandRButtonPage::classCToolandRButtonPage
PUBLIC	??_7CToolandRButtonPage@@6B@			; CToolandRButtonPage::`vftable'
PUBLIC	??_C@_0BE@PPOKJJLG@CToolandRButtonPage@		; `string'
PUBLIC	??_C@_0L@GFMNOAEH@Chart?5List@			; `string'
PUBLIC	??_R4CToolandRButtonPage@@6B@			; CToolandRButtonPage::`RTTI Complete Object Locator'
PUBLIC	??_R0?AVCToolandRButtonPage@@@8			; CToolandRButtonPage `RTTI Type Descriptor'
PUBLIC	??_R3CToolandRButtonPage@@8			; CToolandRButtonPage::`RTTI Class Hierarchy Descriptor'
PUBLIC	??_R2CToolandRButtonPage@@8			; CToolandRButtonPage::`RTTI Base Class Array'
PUBLIC	??_R1A@?0A@EA@CToolandRButtonPage@@8		; CToolandRButtonPage::`RTTI Base Class Descriptor at (0,-1,0,64)'
PUBLIC	??_R1A@?0A@EA@CPropertyPage@@8			; CPropertyPage::`RTTI Base Class Descriptor at (0,-1,0,64)'
PUBLIC	??_R0?AVCPropertyPage@@@8			; CPropertyPage `RTTI Type Descriptor'
PUBLIC	??_R3CPropertyPage@@8				; CPropertyPage::`RTTI Class Hierarchy Descriptor'
PUBLIC	??_R2CPropertyPage@@8				; CPropertyPage::`RTTI Base Class Array'
EXTRN	??2@YAPAXI@Z:PROC				; operator new
EXTRN	??3@YAXPAX@Z:PROC				; operator delete
EXTRN	?__global_delete@@YAXPAXI@Z:PROC		; __global_delete
EXTRN	___std_terminate:PROC
EXTRN	__imp__GetProcAddress@8:PROC
EXTRN	__imp__SendMessageA@16:PROC
EXTRN	__imp__EnableWindow@8:PROC
EXTRN	__imp__GetWindowRect@8:PROC
EXTRN	__imp__ScreenToClient@8:PROC
EXTRN	__imp__atoi:PROC
EXTRN	__imp_??0?$CStringT@DV?$StrTraitMFC_DLL@DV?$ChTraitsCRT@D@ATL@@@@@ATL@@QAE@XZ:PROC
EXTRN	__imp_??1?$CStringT@DV?$StrTraitMFC_DLL@DV?$ChTraitsCRT@D@ATL@@@@@ATL@@QAE@XZ:PROC
EXTRN	__imp_??4?$CStringT@DV?$StrTraitMFC_DLL@DV?$ChTraitsCRT@D@ATL@@@@@ATL@@QAEAAV01@PBD@Z:PROC
EXTRN	__imp_?Format@?$CStringT@DV?$StrTraitMFC_DLL@DV?$ChTraitsCRT@D@ATL@@@@@ATL@@QAAXPBDZZ:PROC
EXTRN	??0CDWordArray@@QAE@XZ:PROC			; CDWordArray::CDWordArray
EXTRN	?SetSize@CDWordArray@@QAEXHH@Z:PROC		; CDWordArray::SetSize
EXTRN	?SetAtGrow@CDWordArray@@QAEXHK@Z:PROC		; CDWordArray::SetAtGrow
EXTRN	??1CDWordArray@@UAE@XZ:PROC			; CDWordArray::~CDWordArray
EXTRN	?AfxGetModuleState@@YGPAVAFX_MODULE_STATE@@XZ:PROC ; AfxGetModuleState
EXTRN	?AfxGetStaticModuleState@@YGPAVAFX_MODULE_STATE@@XZ:PROC ; AfxGetStaticModuleState
EXTRN	?DDX_Control@@YGXPAVCDataExchange@@HAAVCWnd@@@Z:PROC ; DDX_Control
EXTRN	?IsInvokeAllowed@CCmdTarget@@UAEHJ@Z:PROC	; CCmdTarget::IsInvokeAllowed
EXTRN	?GetDispatchIID@CCmdTarget@@UAEHPAU_GUID@@@Z:PROC ; CCmdTarget::GetDispatchIID
EXTRN	?GetTypeInfoCount@CCmdTarget@@UAEIXZ:PROC	; CCmdTarget::GetTypeInfoCount
EXTRN	?GetTypeLibCache@CCmdTarget@@UAEPAVCTypeLibCache@@XZ:PROC ; CCmdTarget::GetTypeLibCache
EXTRN	?GetTypeLib@CCmdTarget@@UAEJKPAPAUITypeLib@@@Z:PROC ; CCmdTarget::GetTypeLib
EXTRN	?GetCommandMap@CCmdTarget@@MBEPBUAFX_OLECMDMAP@@XZ:PROC ; CCmdTarget::GetCommandMap
EXTRN	?GetDispatchMap@CCmdTarget@@MBEPBUAFX_DISPMAP@@XZ:PROC ; CCmdTarget::GetDispatchMap
EXTRN	?GetConnectionMap@CCmdTarget@@MBEPBUAFX_CONNECTIONMAP@@XZ:PROC ; CCmdTarget::GetConnectionMap
EXTRN	?GetEventSinkMap@CCmdTarget@@MBEPBUAFX_EVENTSINKMAP@@XZ:PROC ; CCmdTarget::GetEventSinkMap
EXTRN	?OnCreateAggregates@CCmdTarget@@UAEHXZ:PROC	; CCmdTarget::OnCreateAggregates
EXTRN	?GetInterfaceHook@CCmdTarget@@UAEPAUIUnknown@@PBX@Z:PROC ; CCmdTarget::GetInterfaceHook
EXTRN	?GetExtraConnectionPoints@CCmdTarget@@MAEHPAVCPtrArray@@@Z:PROC ; CCmdTarget::GetExtraConnectionPoints
EXTRN	?GetConnectionHook@CCmdTarget@@MAEPAUIConnectionPoint@@ABU_GUID@@@Z:PROC ; CCmdTarget::GetConnectionHook
EXTRN	?PreSubclassWindow@CWnd@@UAEXXZ:PROC		; CWnd::PreSubclassWindow
EXTRN	?Create@CWnd@@UAEHPBD0KABUtagRECT@@PAV1@IPAUCCreateContext@@@Z:PROC ; CWnd::Create
EXTRN	?CreateEx@CWnd@@UAEHKPBD0KHHHHPAUHWND__@@PAUHMENU__@@PAX@Z:PROC ; CWnd::CreateEx
EXTRN	?CreateEx@CWnd@@UAEHKPBD0KABUtagRECT@@PAV1@IPAX@Z:PROC ; CWnd::CreateEx
EXTRN	?DestroyWindow@CWnd@@UAEHXZ:PROC		; CWnd::DestroyWindow
EXTRN	?PreCreateWindow@CWnd@@UAEHAAUtagCREATESTRUCTA@@@Z:PROC ; CWnd::PreCreateWindow
EXTRN	?CalcWindowRect@CWnd@@UAEXPAUtagRECT@@I@Z:PROC	; CWnd::CalcWindowRect
EXTRN	?GetMenu@CWnd@@UBEPAVCMenu@@XZ:PROC		; CWnd::GetMenu
EXTRN	?SetMenu@CWnd@@UAEHPAVCMenu@@@Z:PROC		; CWnd::SetMenu
EXTRN	?OnToolHitTest@CWnd@@UBEHVCPoint@@PAUtagTOOLINFOA@@@Z:PROC ; CWnd::OnToolHitTest
EXTRN	?GetScrollBarCtrl@CWnd@@UBEPAVCScrollBar@@H@Z:PROC ; CWnd::GetScrollBarCtrl
EXTRN	?WinHelpA@CWnd@@UAEXKI@Z:PROC			; CWnd::WinHelpA
EXTRN	?HtmlHelpA@CWnd@@UAEXKI@Z:PROC			; CWnd::HtmlHelpA
EXTRN	?WinHelpInternal@CWnd@@UAEXKI@Z:PROC		; CWnd::WinHelpInternal
EXTRN	?ContinueModal@CWnd@@UAEHXZ:PROC		; CWnd::ContinueModal
EXTRN	?EndModalLoop@CWnd@@UAEXH@Z:PROC		; CWnd::EndModalLoop
EXTRN	?OnDrawIconicThumbnailOrLivePreview@CWnd@@UAEXAAVCDC@@VCRect@@VCSize@@HAAH@Z:PROC ; CWnd::OnDrawIconicThumbnailOrLivePreview
EXTRN	?GetInterfaceMap@CWnd@@MBEPBUAFX_INTERFACEMAP@@XZ:PROC ; CWnd::GetInterfaceMap
EXTRN	?EnsureStdObj@CWnd@@UAEJXZ:PROC			; CWnd::EnsureStdObj
EXTRN	?get_accParent@CWnd@@UAEJPAPAUIDispatch@@@Z:PROC ; CWnd::get_accParent
EXTRN	?get_accChildCount@CWnd@@UAEJPAJ@Z:PROC		; CWnd::get_accChildCount
EXTRN	?get_accChild@CWnd@@UAEJUtagVARIANT@@PAPAUIDispatch@@@Z:PROC ; CWnd::get_accChild
EXTRN	?get_accName@CWnd@@UAEJUtagVARIANT@@PAPA_W@Z:PROC ; CWnd::get_accName
EXTRN	?get_accValue@CWnd@@UAEJUtagVARIANT@@PAPA_W@Z:PROC ; CWnd::get_accValue
EXTRN	?get_accDescription@CWnd@@UAEJUtagVARIANT@@PAPA_W@Z:PROC ; CWnd::get_accDescription
EXTRN	?get_accRole@CWnd@@UAEJUtagVARIANT@@PAU2@@Z:PROC ; CWnd::get_accRole
EXTRN	?get_accState@CWnd@@UAEJUtagVARIANT@@PAU2@@Z:PROC ; CWnd::get_accState
EXTRN	?get_accHelp@CWnd@@UAEJUtagVARIANT@@PAPA_W@Z:PROC ; CWnd::get_accHelp
EXTRN	?get_accHelpTopic@CWnd@@UAEJPAPA_WUtagVARIANT@@PAJ@Z:PROC ; CWnd::get_accHelpTopic
EXTRN	?get_accKeyboardShortcut@CWnd@@UAEJUtagVARIANT@@PAPA_W@Z:PROC ; CWnd::get_accKeyboardShortcut
EXTRN	?get_accFocus@CWnd@@UAEJPAUtagVARIANT@@@Z:PROC	; CWnd::get_accFocus
EXTRN	?get_accSelection@CWnd@@UAEJPAUtagVARIANT@@@Z:PROC ; CWnd::get_accSelection
EXTRN	?get_accDefaultAction@CWnd@@UAEJUtagVARIANT@@PAPA_W@Z:PROC ; CWnd::get_accDefaultAction
EXTRN	?accSelect@CWnd@@UAEJJUtagVARIANT@@@Z:PROC	; CWnd::accSelect
EXTRN	?accLocation@CWnd@@UAEJPAJ000UtagVARIANT@@@Z:PROC ; CWnd::accLocation
EXTRN	?accNavigate@CWnd@@UAEJJUtagVARIANT@@PAU2@@Z:PROC ; CWnd::accNavigate
EXTRN	?accHitTest@CWnd@@UAEJJJPAUtagVARIANT@@@Z:PROC	; CWnd::accHitTest
EXTRN	?accDoDefaultAction@CWnd@@UAEJUtagVARIANT@@@Z:PROC ; CWnd::accDoDefaultAction
EXTRN	?put_accName@CWnd@@UAEJUtagVARIANT@@PA_W@Z:PROC	; CWnd::put_accName
EXTRN	?put_accValue@CWnd@@UAEJUtagVARIANT@@PA_W@Z:PROC ; CWnd::put_accValue
EXTRN	?SetProxy@CWnd@@UAEJPAUIAccessibleProxy@@@Z:PROC ; CWnd::SetProxy
EXTRN	?CreateAccessibleProxy@CWnd@@UAEJIJPAJ@Z:PROC	; CWnd::CreateAccessibleProxy
EXTRN	?OnCommand@CWnd@@MAEHIJ@Z:PROC			; CWnd::OnCommand
EXTRN	?GetSuperWndProcAddr@CWnd@@MAEPAP6GJPAUHWND__@@IIJ@ZXZ:PROC ; CWnd::GetSuperWndProcAddr
EXTRN	?OnAmbientProperty@CWnd@@UAEHPAVCOleControlSite@@JPAUtagVARIANT@@@Z:PROC ; CWnd::OnAmbientProperty
EXTRN	?WindowProc@CWnd@@MAEJIIJ@Z:PROC		; CWnd::WindowProc
EXTRN	?OnWndMsg@CWnd@@MAEHIIJPAJ@Z:PROC		; CWnd::OnWndMsg
EXTRN	?DefWindowProcA@CWnd@@MAEJIIJ@Z:PROC		; CWnd::DefWindowProcA
EXTRN	?PostNcDestroy@CWnd@@MAEXXZ:PROC		; CWnd::PostNcDestroy
EXTRN	?OnChildNotify@CWnd@@MAEHIIJPAJ@Z:PROC		; CWnd::OnChildNotify
EXTRN	?OnTouchInputs@CWnd@@MAEHIPAUtagTOUCHINPUT@@@Z:PROC ; CWnd::OnTouchInputs
EXTRN	?OnTouchInput@CWnd@@MAEHVCPoint@@HHPAUtagTOUCHINPUT@@@Z:PROC ; CWnd::OnTouchInput
EXTRN	?GetGestureStatus@CWnd@@MAEKVCPoint@@@Z:PROC	; CWnd::GetGestureStatus
EXTRN	?OnGestureZoom@CWnd@@MAEHVCPoint@@J@Z:PROC	; CWnd::OnGestureZoom
EXTRN	?OnGesturePan@CWnd@@MAEHVCPoint@@0@Z:PROC	; CWnd::OnGesturePan
EXTRN	?OnGestureRotate@CWnd@@MAEHVCPoint@@N@Z:PROC	; CWnd::OnGestureRotate
EXTRN	?OnGestureTwoFingerTap@CWnd@@MAEHVCPoint@@@Z:PROC ; CWnd::OnGestureTwoFingerTap
EXTRN	?OnGesturePressAndTap@CWnd@@MAEHVCPoint@@J@Z:PROC ; CWnd::OnGesturePressAndTap
EXTRN	?ResizeDynamicLayout@CWnd@@MAEXXZ:PROC		; CWnd::ResizeDynamicLayout
EXTRN	?IsFrameWnd@CWnd@@UBEHXZ:PROC			; CWnd::IsFrameWnd
EXTRN	?OnFinalRelease@CWnd@@UAEXXZ:PROC		; CWnd::OnFinalRelease
EXTRN	?CreateControlContainer@CWnd@@MAEHPAPAVCOleControlContainer@@@Z:PROC ; CWnd::CreateControlContainer
EXTRN	?CreateControlSite@CWnd@@MAEHPAVCOleControlContainer@@PAPAVCOleControlSite@@IABU_GUID@@@Z:PROC ; CWnd::CreateControlSite
EXTRN	?Create@CDialog@@UAEHPBDPAVCWnd@@@Z:PROC	; CDialog::Create
EXTRN	?CreateIndirect@CDialog@@UAEHPBUDLGTEMPLATE@@PAVCWnd@@PAX@Z:PROC ; CDialog::CreateIndirect
EXTRN	?CreateIndirect@CDialog@@UAEHPAXPAVCWnd@@@Z:PROC ; CDialog::CreateIndirect
EXTRN	?DoModal@CDialog@@UAEHXZ:PROC			; CDialog::DoModal
EXTRN	?OnInitDialog@CDialog@@UAEHXZ:PROC		; CDialog::OnInitDialog
EXTRN	?OnSetFont@CDialog@@UAEXPAVCFont@@@Z:PROC	; CDialog::OnSetFont
EXTRN	?OnCmdMsg@CDialog@@UAEHIHPAXPAUAFX_CMDHANDLERINFO@@@Z:PROC ; CDialog::OnCmdMsg
EXTRN	?CheckAutoCenter@CDialog@@UAEHXZ:PROC		; CDialog::CheckAutoCenter
EXTRN	?SetOccDialogInfo@CDialog@@MAEHPAU_AFX_OCC_DIALOG_INFO@@@Z:PROC ; CDialog::SetOccDialogInfo
EXTRN	?GetOccDialogInfo@CDialog@@MAEPAU_AFX_OCC_DIALOG_INFO@@XZ:PROC ; CDialog::GetOccDialogInfo
EXTRN	?PreInitDialog@CDialog@@MAEXXZ:PROC		; CDialog::PreInitDialog
EXTRN	?GetThisClass@CPropertyPage@@SGPAUCRuntimeClass@@XZ:PROC ; CPropertyPage::GetThisClass
EXTRN	??0CPropertyPage@@QAE@IIK@Z:PROC		; CPropertyPage::CPropertyPage
EXTRN	?OnApply@CPropertyPage@@UAEHXZ:PROC		; CPropertyPage::OnApply
EXTRN	?OnReset@CPropertyPage@@UAEXXZ:PROC		; CPropertyPage::OnReset
EXTRN	?OnOK@CPropertyPage@@UAEXXZ:PROC		; CPropertyPage::OnOK
EXTRN	?OnCancel@CPropertyPage@@UAEXXZ:PROC		; CPropertyPage::OnCancel
EXTRN	?OnSetActive@CPropertyPage@@UAEHXZ:PROC		; CPropertyPage::OnSetActive
EXTRN	?OnKillActive@CPropertyPage@@UAEHXZ:PROC	; CPropertyPage::OnKillActive
EXTRN	?OnQueryCancel@CPropertyPage@@UAEHXZ:PROC	; CPropertyPage::OnQueryCancel
EXTRN	?OnWizardBack@CPropertyPage@@UAEJXZ:PROC	; CPropertyPage::OnWizardBack
EXTRN	?OnWizardNext@CPropertyPage@@UAEJXZ:PROC	; CPropertyPage::OnWizardNext
EXTRN	?OnWizardFinish@CPropertyPage@@UAEHXZ:PROC	; CPropertyPage::OnWizardFinish
EXTRN	?OnWizardFinishEx@CPropertyPage@@UAEPAUHWND__@@XZ:PROC ; CPropertyPage::OnWizardFinishEx
EXTRN	?GetParentSheet@CPropertyPage@@UAEPAVCPropertySheet@@XZ:PROC ; CPropertyPage::GetParentSheet
EXTRN	??1CPropertyPage@@UAE@XZ:PROC			; CPropertyPage::~CPropertyPage
EXTRN	?OnNotify@CPropertyPage@@MAEHIJPAJ@Z:PROC	; CPropertyPage::OnNotify
EXTRN	?PreTranslateMessage@CPropertyPage@@MAEHPAUtagMSG@@@Z:PROC ; CPropertyPage::PreTranslateMessage
EXTRN	?GetThisMessageMap@CPropertyPage@@KGPBUAFX_MSGMAP@@XZ:PROC ; CPropertyPage::GetThisMessageMap
EXTRN	?GetLanguageText@IMetaTable@@QAEPBDPAUHWND__@@W4E_CODEPAGE@1@PBDH@Z:PROC ; IMetaTable::GetLanguageText
EXTRN	??0CToolandRButtonTabCtrl@@QAE@XZ:PROC		; CToolandRButtonTabCtrl::CToolandRButtonTabCtrl
EXTRN	??1CToolandRButtonTabCtrl@@UAE@XZ:PROC		; CToolandRButtonTabCtrl::~CToolandRButtonTabCtrl
EXTRN	?SetSavedDataFromParent@CToolandRButtonTabCtrl@@QAEXABV?$CStringT@DV?$StrTraitMFC_DLL@DV?$ChTraitsCRT@D@ATL@@@@@ATL@@@Z:PROC ; CToolandRButtonTabCtrl::SetSavedDataFromParent
EXTRN	?SetSavedDataFromParent@CToolandRButtonTabCtrl@@QAEXH@Z:PROC ; CToolandRButtonTabCtrl::SetSavedDataFromParent
EXTRN	?SetSavedDataToDlgwithListCtrl@CToolandRButtonTabCtrl@@QAEXXZ:PROC ; CToolandRButtonTabCtrl::SetSavedDataToDlgwithListCtrl
EXTRN	?GetListItemInfo@CToolandRButtonTabCtrl@@QAE?AV?$CStringT@DV?$StrTraitMFC_DLL@DV?$ChTraitsCRT@D@ATL@@@@@ATL@@XZ:PROC ; CToolandRButtonTabCtrl::GetListItemInfo
EXTRN	?GetNumericalInquiryOption@CToolandRButtonTabCtrl@@QAEHXZ:PROC ; CToolandRButtonTabCtrl::GetNumericalInquiryOption
EXTRN	?InitDropTarget@CToolandRButtonTabCtrl@@QAEXXZ:PROC ; CToolandRButtonTabCtrl::InitDropTarget
EXTRN	?InitTab@CToolandRButtonTabCtrl@@QAEXXZ:PROC	; CToolandRButtonTabCtrl::InitTab
EXTRN	?SetTabFocus@CToolandRButtonTabCtrl@@QAEXXZ:PROC ; CToolandRButtonTabCtrl::SetTabFocus
EXTRN	?SetOcxHwnd@CToolandRButtonTabCtrl@@QAEXPAUHWND__@@@Z:PROC ; CToolandRButtonTabCtrl::SetOcxHwnd
EXTRN	??0CToolandRButtonBase_ListCtrl@@QAE@XZ:PROC	; CToolandRButtonBase_ListCtrl::CToolandRButtonBase_ListCtrl
EXTRN	??1CToolandRButtonBase_ListCtrl@@UAE@XZ:PROC	; CToolandRButtonBase_ListCtrl::~CToolandRButtonBase_ListCtrl
EXTRN	?InitDropTarget@CToolandRButtonBase_ListCtrl@@QAEXXZ:PROC ; CToolandRButtonBase_ListCtrl::InitDropTarget
EXTRN	??0CDlgToolTip@@QAE@XZ:PROC			; CDlgToolTip::CDlgToolTip
EXTRN	?HideToolTip@CDlgToolTip@@QAEXAAVCPoint@@@Z:PROC ; CDlgToolTip::HideToolTip
EXTRN	??1CDlgToolTip@@UAE@XZ:PROC			; CDlgToolTip::~CDlgToolTip
EXTRN	?Create@CDlgToolTip@@QAEXPAVCWnd@@@Z:PROC	; CDlgToolTip::Create
EXTRN	?ShowToolTip@CDlgToolTip@@QAEXAAVCPoint@@@Z:PROC ; CDlgToolTip::ShowToolTip
EXTRN	?AddControlInfo@CDlgToolTip@@QAEHIAAVCDWordArray@@KK@Z:PROC ; CDlgToolTip::AddControlInfo
EXTRN	??_ECToolandRButtonPage@@UAEPAXI@Z:PROC		; CToolandRButtonPage::`vector deleting destructor'
EXTRN	@__security_check_cookie@4:PROC
EXTRN	___CxxFrameHandler3:PROC
EXTRN	??_7type_info@@6B@:QWORD			; type_info::`vftable'
EXTRN	?m_eToolOptions@IMetaTable@@2PAW4E_METACODE@1@A:BYTE ; IMetaTable::m_eToolOptions
EXTRN	?m_nToolOptionCount@IMetaTable@@2HA:DWORD	; IMetaTable::m_nToolOptionCount
EXTRN	?g_iMetaTable@@3VIMetaTable@@A:BYTE		; g_iMetaTable
EXTRN	?g_anPropertyShortKey@@3PAPADA:BYTE		; g_anPropertyShortKey
EXTRN	___security_cookie:DWORD
;	COMDAT ??_R2CPropertyPage@@8
rdata$r	SEGMENT
??_R2CPropertyPage@@8 DD FLAT:??_R1A@?0A@EA@CPropertyPage@@8 ; CPropertyPage::`RTTI Base Class Array'
	DD	FLAT:??_R1A@?0A@EA@CDialog@@8
	DD	FLAT:??_R1A@?0A@EA@CWnd@@8
	DD	FLAT:??_R1A@?0A@EA@CCmdTarget@@8
	DD	FLAT:??_R1A@?0A@EA@CObject@@8
rdata$r	ENDS
;	COMDAT ??_R3CPropertyPage@@8
rdata$r	SEGMENT
??_R3CPropertyPage@@8 DD 00H				; CPropertyPage::`RTTI Class Hierarchy Descriptor'
	DD	00H
	DD	05H
	DD	FLAT:??_R2CPropertyPage@@8
rdata$r	ENDS
;	COMDAT ??_R0?AVCPropertyPage@@@8
data$rs	SEGMENT
??_R0?AVCPropertyPage@@@8 DD FLAT:??_7type_info@@6B@	; CPropertyPage `RTTI Type Descriptor'
	DD	00H
	DB	'.?AVCPropertyPage@@', 00H
data$rs	ENDS
;	COMDAT ??_R1A@?0A@EA@CPropertyPage@@8
rdata$r	SEGMENT
??_R1A@?0A@EA@CPropertyPage@@8 DD FLAT:??_R0?AVCPropertyPage@@@8 ; CPropertyPage::`RTTI Base Class Descriptor at (0,-1,0,64)'
	DD	04H
	DD	00H
	DD	0ffffffffH
	DD	00H
	DD	040H
	DD	FLAT:??_R3CPropertyPage@@8
rdata$r	ENDS
;	COMDAT ??_R1A@?0A@EA@CToolandRButtonPage@@8
rdata$r	SEGMENT
??_R1A@?0A@EA@CToolandRButtonPage@@8 DD FLAT:??_R0?AVCToolandRButtonPage@@@8 ; CToolandRButtonPage::`RTTI Base Class Descriptor at (0,-1,0,64)'
	DD	05H
	DD	00H
	DD	0ffffffffH
	DD	00H
	DD	040H
	DD	FLAT:??_R3CToolandRButtonPage@@8
rdata$r	ENDS
;	COMDAT ??_R2CToolandRButtonPage@@8
rdata$r	SEGMENT
??_R2CToolandRButtonPage@@8 DD FLAT:??_R1A@?0A@EA@CToolandRButtonPage@@8 ; CToolandRButtonPage::`RTTI Base Class Array'
	DD	FLAT:??_R1A@?0A@EA@CPropertyPage@@8
	DD	FLAT:??_R1A@?0A@EA@CDialog@@8
	DD	FLAT:??_R1A@?0A@EA@CWnd@@8
	DD	FLAT:??_R1A@?0A@EA@CCmdTarget@@8
	DD	FLAT:??_R1A@?0A@EA@CObject@@8
rdata$r	ENDS
;	COMDAT ??_R3CToolandRButtonPage@@8
rdata$r	SEGMENT
??_R3CToolandRButtonPage@@8 DD 00H			; CToolandRButtonPage::`RTTI Class Hierarchy Descriptor'
	DD	00H
	DD	06H
	DD	FLAT:??_R2CToolandRButtonPage@@8
rdata$r	ENDS
;	COMDAT ??_R0?AVCToolandRButtonPage@@@8
data$rs	SEGMENT
??_R0?AVCToolandRButtonPage@@@8 DD FLAT:??_7type_info@@6B@ ; CToolandRButtonPage `RTTI Type Descriptor'
	DD	00H
	DB	'.?AVCToolandRButtonPage@@', 00H
data$rs	ENDS
;	COMDAT ??_R4CToolandRButtonPage@@6B@
rdata$r	SEGMENT
??_R4CToolandRButtonPage@@6B@ DD 00H			; CToolandRButtonPage::`RTTI Complete Object Locator'
	DD	00H
	DD	00H
	DD	FLAT:??_R0?AVCToolandRButtonPage@@@8
	DD	FLAT:??_R3CToolandRButtonPage@@8
rdata$r	ENDS
;	COMDAT ??_C@_0L@GFMNOAEH@Chart?5List@
CONST	SEGMENT
??_C@_0L@GFMNOAEH@Chart?5List@ DB 'Chart List', 00H	; `string'
CONST	ENDS
;	COMDAT ?messageMap@?1??GetThisMessageMap@CToolandRButtonPage@@KGPBUAFX_MSGMAP@@XZ@4U3@B
CONST	SEGMENT
?messageMap@?1??GetThisMessageMap@CToolandRButtonPage@@KGPBUAFX_MSGMAP@@XZ@4U3@B DD FLAT:?GetThisMessageMap@CPropertyPage@@KGPBUAFX_MSGMAP@@XZ ; `CToolandRButtonPage::GetThisMessageMap'::`2'::messageMap
	DD	FLAT:?_messageEntries@?1??GetThisMessageMap@CToolandRButtonPage@@KGPBUAFX_MSGMAP@@XZ@4QBUAFX_MSGMAP_ENTRY@@B
CONST	ENDS
;	COMDAT ?_messageEntries@?1??GetThisMessageMap@CToolandRButtonPage@@KGPBUAFX_MSGMAP@@XZ@4QBUAFX_MSGMAP_ENTRY@@B
CONST	SEGMENT
?_messageEntries@?1??GetThisMessageMap@CToolandRButtonPage@@KGPBUAFX_MSGMAP@@XZ@4QBUAFX_MSGMAP_ENTRY@@B DD 00H ; `CToolandRButtonPage::GetThisMessageMap'::`2'::_messageEntries
	DD	00H
	DD	00H
	DD	00H
	DD	00H
	DD	00H
CONST	ENDS
;	COMDAT ??_C@_0BE@PPOKJJLG@CToolandRButtonPage@
CONST	SEGMENT
??_C@_0BE@PPOKJJLG@CToolandRButtonPage@ DB 'CToolandRButtonPage', 00H ; `string'
CONST	ENDS
;	COMDAT ??_7CToolandRButtonPage@@6B@
CONST	SEGMENT
??_7CToolandRButtonPage@@6B@ DD FLAT:??_R4CToolandRButtonPage@@6B@ ; CToolandRButtonPage::`vftable'
	DD	FLAT:?GetRuntimeClass@CToolandRButtonPage@@UBEPAUCRuntimeClass@@XZ
	DD	FLAT:??_ECToolandRButtonPage@@UAEPAXI@Z
	DD	FLAT:?Serialize@CObject@@UAEXAAVCArchive@@@Z
	DD	FLAT:?AssertValid@CObject@@UBEXXZ
	DD	FLAT:?Dump@CObject@@UBEXAAVCDumpContext@@@Z
	DD	FLAT:?OnCmdMsg@CDialog@@UAEHIHPAXPAUAFX_CMDHANDLERINFO@@@Z
	DD	FLAT:?OnFinalRelease@CWnd@@UAEXXZ
	DD	FLAT:?IsInvokeAllowed@CCmdTarget@@UAEHJ@Z
	DD	FLAT:?GetDispatchIID@CCmdTarget@@UAEHPAU_GUID@@@Z
	DD	FLAT:?GetTypeInfoCount@CCmdTarget@@UAEIXZ
	DD	FLAT:?GetTypeLibCache@CCmdTarget@@UAEPAVCTypeLibCache@@XZ
	DD	FLAT:?GetTypeLib@CCmdTarget@@UAEJKPAPAUITypeLib@@@Z
	DD	FLAT:?GetMessageMap@CToolandRButtonPage@@MBEPBUAFX_MSGMAP@@XZ
	DD	FLAT:?GetCommandMap@CCmdTarget@@MBEPBUAFX_OLECMDMAP@@XZ
	DD	FLAT:?GetDispatchMap@CCmdTarget@@MBEPBUAFX_DISPMAP@@XZ
	DD	FLAT:?GetConnectionMap@CCmdTarget@@MBEPBUAFX_CONNECTIONMAP@@XZ
	DD	FLAT:?GetInterfaceMap@CWnd@@MBEPBUAFX_INTERFACEMAP@@XZ
	DD	FLAT:?GetEventSinkMap@CCmdTarget@@MBEPBUAFX_EVENTSINKMAP@@XZ
	DD	FLAT:?OnCreateAggregates@CCmdTarget@@UAEHXZ
	DD	FLAT:?GetInterfaceHook@CCmdTarget@@UAEPAUIUnknown@@PBX@Z
	DD	FLAT:?GetExtraConnectionPoints@CCmdTarget@@MAEHPAVCPtrArray@@@Z
	DD	FLAT:?GetConnectionHook@CCmdTarget@@MAEPAUIConnectionPoint@@ABU_GUID@@@Z
	DD	FLAT:?PreSubclassWindow@CWnd@@UAEXXZ
	DD	FLAT:?Create@CWnd@@UAEHPBD0KABUtagRECT@@PAV1@IPAUCCreateContext@@@Z
	DD	FLAT:?CreateEx@CWnd@@UAEHKPBD0KABUtagRECT@@PAV1@IPAX@Z
	DD	FLAT:?CreateEx@CWnd@@UAEHKPBD0KHHHHPAUHWND__@@PAUHMENU__@@PAX@Z
	DD	FLAT:?DestroyWindow@CWnd@@UAEHXZ
	DD	FLAT:?PreCreateWindow@CWnd@@UAEHAAUtagCREATESTRUCTA@@@Z
	DD	FLAT:?CalcWindowRect@CWnd@@UAEXPAUtagRECT@@I@Z
	DD	FLAT:?GetMenu@CWnd@@UBEPAVCMenu@@XZ
	DD	FLAT:?SetMenu@CWnd@@UAEHPAVCMenu@@@Z
	DD	FLAT:?OnToolHitTest@CWnd@@UBEHVCPoint@@PAUtagTOOLINFOA@@@Z
	DD	FLAT:?GetScrollBarCtrl@CWnd@@UBEPAVCScrollBar@@H@Z
	DD	FLAT:?WinHelpA@CWnd@@UAEXKI@Z
	DD	FLAT:?HtmlHelpA@CWnd@@UAEXKI@Z
	DD	FLAT:?WinHelpInternal@CWnd@@UAEXKI@Z
	DD	FLAT:?ContinueModal@CWnd@@UAEHXZ
	DD	FLAT:?EndModalLoop@CWnd@@UAEXH@Z
	DD	FLAT:?OnDrawIconicThumbnailOrLivePreview@CWnd@@UAEXAAVCDC@@VCRect@@VCSize@@HAAH@Z
	DD	FLAT:?EnsureStdObj@CWnd@@UAEJXZ
	DD	FLAT:?get_accParent@CWnd@@UAEJPAPAUIDispatch@@@Z
	DD	FLAT:?get_accChildCount@CWnd@@UAEJPAJ@Z
	DD	FLAT:?get_accChild@CWnd@@UAEJUtagVARIANT@@PAPAUIDispatch@@@Z
	DD	FLAT:?get_accName@CWnd@@UAEJUtagVARIANT@@PAPA_W@Z
	DD	FLAT:?get_accValue@CWnd@@UAEJUtagVARIANT@@PAPA_W@Z
	DD	FLAT:?get_accDescription@CWnd@@UAEJUtagVARIANT@@PAPA_W@Z
	DD	FLAT:?get_accRole@CWnd@@UAEJUtagVARIANT@@PAU2@@Z
	DD	FLAT:?get_accState@CWnd@@UAEJUtagVARIANT@@PAU2@@Z
	DD	FLAT:?get_accHelp@CWnd@@UAEJUtagVARIANT@@PAPA_W@Z
	DD	FLAT:?get_accHelpTopic@CWnd@@UAEJPAPA_WUtagVARIANT@@PAJ@Z
	DD	FLAT:?get_accKeyboardShortcut@CWnd@@UAEJUtagVARIANT@@PAPA_W@Z
	DD	FLAT:?get_accFocus@CWnd@@UAEJPAUtagVARIANT@@@Z
	DD	FLAT:?get_accSelection@CWnd@@UAEJPAUtagVARIANT@@@Z
	DD	FLAT:?get_accDefaultAction@CWnd@@UAEJUtagVARIANT@@PAPA_W@Z
	DD	FLAT:?accSelect@CWnd@@UAEJJUtagVARIANT@@@Z
	DD	FLAT:?accLocation@CWnd@@UAEJPAJ000UtagVARIANT@@@Z
	DD	FLAT:?accNavigate@CWnd@@UAEJJUtagVARIANT@@PAU2@@Z
	DD	FLAT:?accHitTest@CWnd@@UAEJJJPAUtagVARIANT@@@Z
	DD	FLAT:?accDoDefaultAction@CWnd@@UAEJUtagVARIANT@@@Z
	DD	FLAT:?put_accName@CWnd@@UAEJUtagVARIANT@@PA_W@Z
	DD	FLAT:?put_accValue@CWnd@@UAEJUtagVARIANT@@PA_W@Z
	DD	FLAT:?SetProxy@CWnd@@UAEJPAUIAccessibleProxy@@@Z
	DD	FLAT:?CreateAccessibleProxy@CWnd@@UAEJIJPAJ@Z
	DD	FLAT:?OnCommand@CWnd@@MAEHIJ@Z
	DD	FLAT:?OnNotify@CPropertyPage@@MAEHIJPAJ@Z
	DD	FLAT:?GetSuperWndProcAddr@CWnd@@MAEPAP6GJPAUHWND__@@IIJ@ZXZ
	DD	FLAT:?DoDataExchange@CToolandRButtonPage@@MAEXPAVCDataExchange@@@Z
	DD	FLAT:?BeginModalState@CWnd@@UAEXXZ
	DD	FLAT:?EndModalState@CWnd@@UAEXXZ
	DD	FLAT:?PreTranslateMessage@CToolandRButtonPage@@UAEHPAUtagMSG@@@Z
	DD	FLAT:?OnAmbientProperty@CWnd@@UAEHPAVCOleControlSite@@JPAUtagVARIANT@@@Z
	DD	FLAT:?WindowProc@CWnd@@MAEJIIJ@Z
	DD	FLAT:?OnWndMsg@CWnd@@MAEHIIJPAJ@Z
	DD	FLAT:?DefWindowProcA@CWnd@@MAEJIIJ@Z
	DD	FLAT:?PostNcDestroy@CWnd@@MAEXXZ
	DD	FLAT:?OnChildNotify@CWnd@@MAEHIIJPAJ@Z
	DD	FLAT:?OnTouchInputs@CWnd@@MAEHIPAUtagTOUCHINPUT@@@Z
	DD	FLAT:?OnTouchInput@CWnd@@MAEHVCPoint@@HHPAUtagTOUCHINPUT@@@Z
	DD	FLAT:?GetGestureStatus@CWnd@@MAEKVCPoint@@@Z
	DD	FLAT:?OnGestureZoom@CWnd@@MAEHVCPoint@@J@Z
	DD	FLAT:?OnGesturePan@CWnd@@MAEHVCPoint@@0@Z
	DD	FLAT:?OnGestureRotate@CWnd@@MAEHVCPoint@@N@Z
	DD	FLAT:?OnGestureTwoFingerTap@CWnd@@MAEHVCPoint@@@Z
	DD	FLAT:?OnGesturePressAndTap@CWnd@@MAEHVCPoint@@J@Z
	DD	FLAT:?ResizeDynamicLayout@CWnd@@MAEXXZ
	DD	FLAT:?CheckAutoCenter@CDialog@@UAEHXZ
	DD	FLAT:?IsFrameWnd@CWnd@@UBEHXZ
	DD	FLAT:?CreateControlContainer@CWnd@@MAEHPAPAVCOleControlContainer@@@Z
	DD	FLAT:?CreateControlSite@CWnd@@MAEHPAVCOleControlContainer@@PAPAVCOleControlSite@@IABU_GUID@@@Z
	DD	FLAT:?SetOccDialogInfo@CDialog@@MAEHPAU_AFX_OCC_DIALOG_INFO@@@Z
	DD	FLAT:?GetOccDialogInfo@CDialog@@MAEPAU_AFX_OCC_DIALOG_INFO@@XZ
	DD	FLAT:?Create@CDialog@@UAEHIPAVCWnd@@@Z
	DD	FLAT:?Create@CDialog@@UAEHPBDPAVCWnd@@@Z
	DD	FLAT:?CreateIndirect@CDialog@@UAEHPAXPAVCWnd@@@Z
	DD	FLAT:?CreateIndirect@CDialog@@UAEHPBUDLGTEMPLATE@@PAVCWnd@@PAX@Z
	DD	FLAT:?DoModal@CDialog@@UAEHXZ
	DD	FLAT:?OnInitDialog@CToolandRButtonPage@@MAEHXZ
	DD	FLAT:?OnSetFont@CDialog@@UAEXPAVCFont@@@Z
	DD	FLAT:?OnOK@CPropertyPage@@UAEXXZ
	DD	FLAT:?OnCancel@CPropertyPage@@UAEXXZ
	DD	FLAT:?PreInitDialog@CDialog@@MAEXXZ
	DD	FLAT:?OnApply@CToolandRButtonPage@@UAEHXZ
	DD	FLAT:?OnReset@CPropertyPage@@UAEXXZ
	DD	FLAT:?OnSetActive@CPropertyPage@@UAEHXZ
	DD	FLAT:?OnKillActive@CPropertyPage@@UAEHXZ
	DD	FLAT:?OnQueryCancel@CPropertyPage@@UAEHXZ
	DD	FLAT:?OnWizardBack@CPropertyPage@@UAEJXZ
	DD	FLAT:?OnWizardNext@CPropertyPage@@UAEJXZ
	DD	FLAT:?OnWizardFinish@CPropertyPage@@UAEHXZ
	DD	FLAT:?OnWizardFinishEx@CPropertyPage@@UAEPAUHWND__@@XZ
	DD	FLAT:?GetParentSheet@CPropertyPage@@UAEPAVCPropertySheet@@XZ
CONST	ENDS
;	COMDAT ?classCToolandRButtonPage@CToolandRButtonPage@@2UCRuntimeClass@@B
CONST	SEGMENT
?classCToolandRButtonPage@CToolandRButtonPage@@2UCRuntimeClass@@B DD FLAT:??_C@_0BE@PPOKJJLG@CToolandRButtonPage@ ; CToolandRButtonPage::classCToolandRButtonPage
	DD	0410H
	DD	0ffffH
	DD	FLAT:?CreateObject@CToolandRButtonPage@@SGPAVCObject@@XZ
	DD	FLAT:?_GetBaseClass@CToolandRButtonPage@@KGPAUCRuntimeClass@@XZ
	DD	00H
	DD	00H
CONST	ENDS
;	COMDAT ??_C@_0BA@ENJOCHIO@LoadResourceDLL@
CONST	SEGMENT
??_C@_0BA@ENJOCHIO@LoadResourceDLL@ DB 'LoadResourceDLL', 00H ; `string'
CONST	ENDS
;	COMDAT ??_R2CDialog@@8
rdata$r	SEGMENT
??_R2CDialog@@8 DD FLAT:??_R1A@?0A@EA@CDialog@@8	; CDialog::`RTTI Base Class Array'
	DD	FLAT:??_R1A@?0A@EA@CWnd@@8
	DD	FLAT:??_R1A@?0A@EA@CCmdTarget@@8
	DD	FLAT:??_R1A@?0A@EA@CObject@@8
rdata$r	ENDS
;	COMDAT ??_R3CDialog@@8
rdata$r	SEGMENT
??_R3CDialog@@8 DD 00H					; CDialog::`RTTI Class Hierarchy Descriptor'
	DD	00H
	DD	04H
	DD	FLAT:??_R2CDialog@@8
rdata$r	ENDS
;	COMDAT ??_R0?AVCDialog@@@8
data$rs	SEGMENT
??_R0?AVCDialog@@@8 DD FLAT:??_7type_info@@6B@		; CDialog `RTTI Type Descriptor'
	DD	00H
	DB	'.?AVCDialog@@', 00H
data$rs	ENDS
;	COMDAT ??_R1A@?0A@EA@CDialog@@8
rdata$r	SEGMENT
??_R1A@?0A@EA@CDialog@@8 DD FLAT:??_R0?AVCDialog@@@8	; CDialog::`RTTI Base Class Descriptor at (0,-1,0,64)'
	DD	03H
	DD	00H
	DD	0ffffffffH
	DD	00H
	DD	040H
	DD	FLAT:??_R3CDialog@@8
rdata$r	ENDS
;	COMDAT ??_R2CCmdTarget@@8
rdata$r	SEGMENT
??_R2CCmdTarget@@8 DD FLAT:??_R1A@?0A@EA@CCmdTarget@@8	; CCmdTarget::`RTTI Base Class Array'
	DD	FLAT:??_R1A@?0A@EA@CObject@@8
rdata$r	ENDS
;	COMDAT ??_R3CCmdTarget@@8
rdata$r	SEGMENT
??_R3CCmdTarget@@8 DD 00H				; CCmdTarget::`RTTI Class Hierarchy Descriptor'
	DD	00H
	DD	02H
	DD	FLAT:??_R2CCmdTarget@@8
rdata$r	ENDS
;	COMDAT ??_R0?AVCCmdTarget@@@8
data$rs	SEGMENT
??_R0?AVCCmdTarget@@@8 DD FLAT:??_7type_info@@6B@	; CCmdTarget `RTTI Type Descriptor'
	DD	00H
	DB	'.?AVCCmdTarget@@', 00H
data$rs	ENDS
;	COMDAT ??_R1A@?0A@EA@CCmdTarget@@8
rdata$r	SEGMENT
??_R1A@?0A@EA@CCmdTarget@@8 DD FLAT:??_R0?AVCCmdTarget@@@8 ; CCmdTarget::`RTTI Base Class Descriptor at (0,-1,0,64)'
	DD	01H
	DD	00H
	DD	0ffffffffH
	DD	00H
	DD	040H
	DD	FLAT:??_R3CCmdTarget@@8
rdata$r	ENDS
;	COMDAT ??_R2CWnd@@8
rdata$r	SEGMENT
??_R2CWnd@@8 DD	FLAT:??_R1A@?0A@EA@CWnd@@8		; CWnd::`RTTI Base Class Array'
	DD	FLAT:??_R1A@?0A@EA@CCmdTarget@@8
	DD	FLAT:??_R1A@?0A@EA@CObject@@8
rdata$r	ENDS
;	COMDAT ??_R3CWnd@@8
rdata$r	SEGMENT
??_R3CWnd@@8 DD	00H					; CWnd::`RTTI Class Hierarchy Descriptor'
	DD	00H
	DD	03H
	DD	FLAT:??_R2CWnd@@8
rdata$r	ENDS
;	COMDAT ??_R0?AVCWnd@@@8
data$rs	SEGMENT
??_R0?AVCWnd@@@8 DD FLAT:??_7type_info@@6B@		; CWnd `RTTI Type Descriptor'
	DD	00H
	DB	'.?AVCWnd@@', 00H
data$rs	ENDS
;	COMDAT ??_R1A@?0A@EA@CWnd@@8
rdata$r	SEGMENT
??_R1A@?0A@EA@CWnd@@8 DD FLAT:??_R0?AVCWnd@@@8		; CWnd::`RTTI Base Class Descriptor at (0,-1,0,64)'
	DD	02H
	DD	00H
	DD	0ffffffffH
	DD	00H
	DD	040H
	DD	FLAT:??_R3CWnd@@8
rdata$r	ENDS
;	COMDAT ??_R1A@?0A@EA@CObject@@8
rdata$r	SEGMENT
??_R1A@?0A@EA@CObject@@8 DD FLAT:??_R0?AVCObject@@@8	; CObject::`RTTI Base Class Descriptor at (0,-1,0,64)'
	DD	00H
	DD	00H
	DD	0ffffffffH
	DD	00H
	DD	040H
	DD	FLAT:??_R3CObject@@8
rdata$r	ENDS
;	COMDAT ??_R2CObject@@8
rdata$r	SEGMENT
??_R2CObject@@8 DD FLAT:??_R1A@?0A@EA@CObject@@8	; CObject::`RTTI Base Class Array'
rdata$r	ENDS
;	COMDAT ??_R3CObject@@8
rdata$r	SEGMENT
??_R3CObject@@8 DD 00H					; CObject::`RTTI Class Hierarchy Descriptor'
	DD	00H
	DD	01H
	DD	FLAT:??_R2CObject@@8
rdata$r	ENDS
;	COMDAT ??_R0?AVCObject@@@8
data$rs	SEGMENT
??_R0?AVCObject@@@8 DD FLAT:??_7type_info@@6B@		; CObject `RTTI Type Descriptor'
	DD	00H
	DB	'.?AVCObject@@', 00H
data$rs	ENDS
;	COMDAT ??_C@_00CNPNBAHC@@
CONST	SEGMENT
??_C@_00CNPNBAHC@@ DB 00H				; `string'
CONST	ENDS
;	COMDAT ??_C@_02DPKJAMEF@?$CFd@
CONST	SEGMENT
??_C@_02DPKJAMEF@?$CFd@ DB '%d', 00H			; `string'
CONST	ENDS
;	COMDAT xdata$x
xdata$x	SEGMENT
__unwindtable$?CreateToolTip@CToolandRButtonPage@@AAEXXZ DD 0ffffffffH
	DD	FLAT:__unwindfunclet$?CreateToolTip@CToolandRButtonPage@@AAEXXZ$0
	DD	00H
	DD	FLAT:__unwindfunclet$?CreateToolTip@CToolandRButtonPage@@AAEXXZ$1
	DD	0ffffffffH
	DD	FLAT:___std_terminate
__ehfuncinfo$?CreateToolTip@CToolandRButtonPage@@AAEXXZ DD 019930522H
	DD	03H
	DD	FLAT:__unwindtable$?CreateToolTip@CToolandRButtonPage@@AAEXXZ
	DD	2 DUP(00H)
	DD	2 DUP(00H)
	DD	00H
	DD	01H
xdata$x	ENDS
;	COMDAT xdata$x
xdata$x	SEGMENT
__unwindtable$?OnInitDialog@CToolandRButtonPage@@MAEHXZ DD 0ffffffffH
	DD	FLAT:__unwindfunclet$?OnInitDialog@CToolandRButtonPage@@MAEHXZ$0
	DD	00H
	DD	FLAT:__unwindfunclet$?OnInitDialog@CToolandRButtonPage@@MAEHXZ$1
	DD	0ffffffffH
	DD	FLAT:___std_terminate
__ehfuncinfo$?OnInitDialog@CToolandRButtonPage@@MAEHXZ DD 019930522H
	DD	03H
	DD	FLAT:__unwindtable$?OnInitDialog@CToolandRButtonPage@@MAEHXZ
	DD	2 DUP(00H)
	DD	2 DUP(00H)
	DD	00H
	DD	01H
xdata$x	ENDS
;	COMDAT xdata$x
xdata$x	SEGMENT
__unwindtable$?OnApply@CToolandRButtonPage@@UAEHXZ DD 0ffffffffH
	DD	FLAT:__unwindfunclet$?OnApply@CToolandRButtonPage@@UAEHXZ$0
	DD	00H
	DD	FLAT:__unwindfunclet$?OnApply@CToolandRButtonPage@@UAEHXZ$1
__ehfuncinfo$?OnApply@CToolandRButtonPage@@UAEHXZ DD 019930522H
	DD	02H
	DD	FLAT:__unwindtable$?OnApply@CToolandRButtonPage@@UAEHXZ
	DD	2 DUP(00H)
	DD	2 DUP(00H)
	DD	00H
	DD	01H
xdata$x	ENDS
;	COMDAT xdata$x
xdata$x	SEGMENT
__unwindtable$?SetProperty@CToolandRButtonPage@@QAEXPAUIPropertyMap@@@Z DD 0ffffffffH
	DD	FLAT:__unwindfunclet$?SetProperty@CToolandRButtonPage@@QAEXPAUIPropertyMap@@@Z$0
__ehfuncinfo$?SetProperty@CToolandRButtonPage@@QAEXPAUIPropertyMap@@@Z DD 019930522H
	DD	01H
	DD	FLAT:__unwindtable$?SetProperty@CToolandRButtonPage@@QAEXPAUIPropertyMap@@@Z
	DD	2 DUP(00H)
	DD	2 DUP(00H)
	DD	00H
	DD	01H
xdata$x	ENDS
;	COMDAT xdata$x
xdata$x	SEGMENT
__unwindtable$??0CToolandRButtonPage@@QAE@XZ DD 0ffffffffH
	DD	FLAT:__unwindfunclet$??0CToolandRButtonPage@@QAE@XZ$0
	DD	00H
	DD	FLAT:__unwindfunclet$??0CToolandRButtonPage@@QAE@XZ$1
	DD	01H
	DD	FLAT:__unwindfunclet$??0CToolandRButtonPage@@QAE@XZ$2
__ehfuncinfo$??0CToolandRButtonPage@@QAE@XZ DD 019930522H
	DD	03H
	DD	FLAT:__unwindtable$??0CToolandRButtonPage@@QAE@XZ
	DD	2 DUP(00H)
	DD	2 DUP(00H)
	DD	00H
	DD	01H
xdata$x	ENDS
;	COMDAT xdata$x
xdata$x	SEGMENT
__unwindtable$?CreateObject@CToolandRButtonPage@@SGPAVCObject@@XZ DD 0ffffffffH
	DD	FLAT:__unwindfunclet$?CreateObject@CToolandRButtonPage@@SGPAVCObject@@XZ$0
	DD	00H
	DD	FLAT:__unwindfunclet$?CreateObject@CToolandRButtonPage@@SGPAVCObject@@XZ$1
	DD	01H
	DD	FLAT:__unwindfunclet$?CreateObject@CToolandRButtonPage@@SGPAVCObject@@XZ$2
	DD	02H
	DD	FLAT:__unwindfunclet$?CreateObject@CToolandRButtonPage@@SGPAVCObject@@XZ$3
__ehfuncinfo$?CreateObject@CToolandRButtonPage@@SGPAVCObject@@XZ DD 019930522H
	DD	04H
	DD	FLAT:__unwindtable$?CreateObject@CToolandRButtonPage@@SGPAVCObject@@XZ
	DD	2 DUP(00H)
	DD	2 DUP(00H)
	DD	00H
	DD	01H
xdata$x	ENDS
;	COMDAT xdata$x
xdata$x	SEGMENT
__ehfuncinfo$??1CMultiLanguageResourceSetter@@QAE@XZ DD 019930522H
	DD	00H
	DD	00H
	DD	2 DUP(00H)
	DD	2 DUP(00H)
	DD	00H
	DD	05H
xdata$x	ENDS
; Function compile flags: /Ogtp
; File D:\git\src\IBK\IBK_DRFN\ProjSrc\SrcChartEx\ChartAddIn\ChartDesignPropertyAddIn\ChartDesignPropertyAddIn\ToolandRButtonPage.cpp
; File C:\Program Files (x86)\Microsoft Visual Studio\2019\Community\VC\Tools\MSVC\14.29.30133\atlmfc\include\afx.inl
;	COMDAT ??_GCToolandRButtonPage@@UAEPAXI@Z
_TEXT	SEGMENT
___flags$ = 8						; size = 4
??_GCToolandRButtonPage@@UAEPAXI@Z PROC			; CToolandRButtonPage::`scalar deleting destructor', COMDAT
; _this$ = ecx
  00000	55		 push	 ebp
  00001	8b ec		 mov	 ebp, esp
; File D:\git\src\IBK\IBK_DRFN\ProjSrc\SrcChartEx\ChartAddIn\ChartDesignPropertyAddIn\ChartDesignPropertyAddIn\ToolandRButtonPage.cpp

; 39   : {

  00003	56		 push	 esi
  00004	8b f1		 mov	 esi, ecx

; 40   : }

  00006	8d 8e 28 03 00
	00		 lea	 ecx, DWORD PTR [esi+808]
  0000c	c7 06 00 00 00
	00		 mov	 DWORD PTR [esi], OFFSET ??_7CToolandRButtonPage@@6B@
  00012	e8 00 00 00 00	 call	 ??1CDlgToolTip@@UAE@XZ	; CDlgToolTip::~CDlgToolTip
  00017	8d 8e 38 02 00
	00		 lea	 ecx, DWORD PTR [esi+568]
  0001d	e8 00 00 00 00	 call	 ??1CToolandRButtonBase_ListCtrl@@UAE@XZ ; CToolandRButtonBase_ListCtrl::~CToolandRButtonBase_ListCtrl
  00022	8d 8e c0 00 00
	00		 lea	 ecx, DWORD PTR [esi+192]
  00028	e8 00 00 00 00	 call	 ??1CToolandRButtonTabCtrl@@UAE@XZ ; CToolandRButtonTabCtrl::~CToolandRButtonTabCtrl
  0002d	8b ce		 mov	 ecx, esi
  0002f	e8 00 00 00 00	 call	 ??1CPropertyPage@@UAE@XZ ; CPropertyPage::~CPropertyPage
  00034	8b 45 08	 mov	 eax, DWORD PTR ___flags$[ebp]
  00037	a8 01		 test	 al, 1
  00039	74 22		 je	 SHORT $LN12@scalar
  0003b	a8 04		 test	 al, 4
  0003d	75 10		 jne	 SHORT $LN3@scalar
; File C:\Program Files (x86)\Microsoft Visual Studio\2019\Community\VC\Tools\MSVC\14.29.30133\atlmfc\include\afx.inl

; 112  : 	{ ::operator delete(p); }

  0003f	56		 push	 esi
  00040	e8 00 00 00 00	 call	 ??3@YAXPAX@Z		; operator delete
  00045	83 c4 04	 add	 esp, 4
  00048	8b c6		 mov	 eax, esi
  0004a	5e		 pop	 esi
  0004b	5d		 pop	 ebp
  0004c	c2 04 00	 ret	 4
$LN3@scalar:
  0004f	68 10 04 00 00	 push	 1040			; 00000410H
  00054	56		 push	 esi
  00055	e8 00 00 00 00	 call	 ?__global_delete@@YAXPAXI@Z ; __global_delete
  0005a	83 c4 08	 add	 esp, 8
$LN12@scalar:
  0005d	8b c6		 mov	 eax, esi
  0005f	5e		 pop	 esi
  00060	5d		 pop	 ebp
  00061	c2 04 00	 ret	 4
??_GCToolandRButtonPage@@UAEPAXI@Z ENDP			; CToolandRButtonPage::`scalar deleting destructor'
_TEXT	ENDS
; Function compile flags: /Ogtp
; File D:\git\src\IBK\IBK_DRFN\ProjSrc\SrcChartEx\ChartAddIn\ChartDesignPropertyAddIn\ChartDesignPropertyAddIn\ToolandRButtonPage.cpp
;	COMDAT ?SetOcxHwnd@CToolandRButtonPage@@QAEXPAUHWND__@@@Z
_TEXT	SEGMENT
_p_hOcxWnd$ = 8						; size = 4
?SetOcxHwnd@CToolandRButtonPage@@QAEXPAUHWND__@@@Z PROC	; CToolandRButtonPage::SetOcxHwnd, COMDAT
; _this$ = ecx

; 179  : {

  00000	55		 push	 ebp
  00001	8b ec		 mov	 ebp, esp
  00003	56		 push	 esi

; 180  : 	m_ToolRButton_Tab.SetOcxHwnd( p_hOcxWnd);

  00004	8b 75 08	 mov	 esi, DWORD PTR _p_hOcxWnd$[ebp]
  00007	57		 push	 edi
  00008	8b f9		 mov	 edi, ecx
  0000a	56		 push	 esi
  0000b	8d 8f c0 00 00
	00		 lea	 ecx, DWORD PTR [edi+192]
  00011	e8 00 00 00 00	 call	 ?SetOcxHwnd@CToolandRButtonTabCtrl@@QAEXPAUHWND__@@@Z ; CToolandRButtonTabCtrl::SetOcxHwnd

; 181  : 	m_toolTip.SetOcxHwnd( p_hOcxWnd);

  00016	89 b7 00 04 00
	00		 mov	 DWORD PTR [edi+1024], esi
  0001c	5f		 pop	 edi
  0001d	5e		 pop	 esi

; 182  : }

  0001e	5d		 pop	 ebp
  0001f	c2 04 00	 ret	 4
?SetOcxHwnd@CToolandRButtonPage@@QAEXPAUHWND__@@@Z ENDP	; CToolandRButtonPage::SetOcxHwnd
_TEXT	ENDS
; Function compile flags: /Ogtp
; File D:\git\src\IBK\IBK_DRFN\ProjSrc\SrcChartEx\ChartAddIn\ChartDesignPropertyAddIn\ChartDesignPropertyAddIn\ToolandRButtonPage.cpp
; File C:\Program Files (x86)\Microsoft Visual Studio\2019\Community\VC\Tools\MSVC\14.29.30133\atlmfc\include\afxcmn2.inl
; File D:\git\src\IBK\IBK_DRFN\ProjSrc\SrcChartEx\ChartAddIn\ChartDesignPropertyAddIn\ChartDesignPropertyAddIn\ToolandRButtonPage.cpp
; File C:\Program Files (x86)\Microsoft Visual Studio\2019\Community\VC\Tools\MSVC\14.29.30133\atlmfc\include\afxcmn2.inl
; File D:\git\src\IBK\IBK_DRFN\ProjSrc\SrcChartEx\ChartAddIn\ChartDesignPropertyAddIn\ChartDesignPropertyAddIn\ToolandRButtonPage.cpp
; File C:\Program Files (x86)\Microsoft Visual Studio\2019\Community\VC\Tools\MSVC\14.29.30133\atlmfc\include\afxcmn2.inl
; File C:\Program Files (x86)\Microsoft Visual Studio\2019\Community\VC\Tools\MSVC\14.29.30133\atlmfc\include\afxwin2.inl
; File C:\Program Files (x86)\Microsoft Visual Studio\2019\Community\VC\Tools\MSVC\14.29.30133\atlmfc\include\atltypes.h
; File C:\Program Files (x86)\Microsoft Visual Studio\2019\Community\VC\Tools\MSVC\14.29.30133\atlmfc\include\afxwin2.inl
; File D:\git\src\IBK\IBK_DRFN\ProjSrc\SrcChartEx\ChartAddIn\ChartDesignPropertyAddIn\ChartDesignPropertyAddIn\ToolandRButtonPage.cpp
; File C:\Program Files (x86)\Microsoft Visual Studio\2019\Community\VC\Tools\MSVC\14.29.30133\atlmfc\include\afxcmn.inl
; File D:\git\src\IBK\IBK_DRFN\ProjSrc\SrcChartEx\ChartAddIn\ChartDesignPropertyAddIn\ChartDesignPropertyAddIn\ToolandRButtonPage.cpp
; File C:\Program Files (x86)\Microsoft Visual Studio\2019\Community\VC\Tools\MSVC\14.29.30133\atlmfc\include\afxcmn.inl
; File D:\git\src\IBK\IBK_DRFN\ProjSrc\SrcChartEx\ChartAddIn\ChartDesignPropertyAddIn\ChartDesignPropertyAddIn\ToolandRButtonPage.cpp
; File C:\Program Files (x86)\Microsoft Visual Studio\2019\Community\VC\Tools\MSVC\14.29.30133\atlmfc\include\afxcmn.inl
; File D:\git\src\IBK\IBK_DRFN\ProjSrc\SrcChartEx\ChartAddIn\ChartDesignPropertyAddIn\ChartDesignPropertyAddIn\ToolandRButtonPage.cpp
;	COMDAT ?InitBaseList@CToolandRButtonPage@@AAEXPAVCListCtrl@@@Z
_TEXT	SEGMENT
_listItem$1 = -128					; size = 60
_lvColumn$ = -68					; size = 44
_pListCtrl$GSCopy$1$ = -24				; size = 4
_rect$ = -20						; size = 16
__$ArrayPad$ = -4					; size = 4
_pListCtrl$ = 8						; size = 4
?InitBaseList@CToolandRButtonPage@@AAEXPAVCListCtrl@@@Z PROC ; CToolandRButtonPage::InitBaseList, COMDAT
; _this$ = ecx

; 61   : {

  00000	55		 push	 ebp
  00001	8b ec		 mov	 ebp, esp
  00003	81 ec 80 00 00
	00		 sub	 esp, 128		; 00000080H
  00009	a1 00 00 00 00	 mov	 eax, DWORD PTR ___security_cookie
  0000e	33 c5		 xor	 eax, ebp
  00010	89 45 fc	 mov	 DWORD PTR __$ArrayPad$[ebp], eax
  00013	53		 push	 ebx
; File C:\Program Files (x86)\Microsoft Visual Studio\2019\Community\VC\Tools\MSVC\14.29.30133\atlmfc\include\afxcmn2.inl

; 117  : 	{ ASSERT(::IsWindow(m_hWnd)); return (DWORD) ::SendMessage(m_hWnd, LVM_SETEXTENDEDLISTVIEWSTYLE, 0, (LPARAM) dwNewStyle); }

  00014	8b 1d 00 00 00
	00		 mov	 ebx, DWORD PTR __imp__SendMessageA@16
; File D:\git\src\IBK\IBK_DRFN\ProjSrc\SrcChartEx\ChartAddIn\ChartDesignPropertyAddIn\ChartDesignPropertyAddIn\ToolandRButtonPage.cpp

; 61   : {

  0001a	56		 push	 esi
  0001b	8b 75 08	 mov	 esi, DWORD PTR _pListCtrl$[ebp]
  0001e	57		 push	 edi
; File C:\Program Files (x86)\Microsoft Visual Studio\2019\Community\VC\Tools\MSVC\14.29.30133\atlmfc\include\afxcmn2.inl

; 117  : 	{ ASSERT(::IsWindow(m_hWnd)); return (DWORD) ::SendMessage(m_hWnd, LVM_SETEXTENDEDLISTVIEWSTYLE, 0, (LPARAM) dwNewStyle); }

  0001f	6a 01		 push	 1
; File D:\git\src\IBK\IBK_DRFN\ProjSrc\SrcChartEx\ChartAddIn\ChartDesignPropertyAddIn\ChartDesignPropertyAddIn\ToolandRButtonPage.cpp

; 61   : {

  00021	8b f9		 mov	 edi, ecx
  00023	89 75 e8	 mov	 DWORD PTR _pListCtrl$GSCopy$1$[ebp], esi
; File C:\Program Files (x86)\Microsoft Visual Studio\2019\Community\VC\Tools\MSVC\14.29.30133\atlmfc\include\afxcmn2.inl

; 117  : 	{ ASSERT(::IsWindow(m_hWnd)); return (DWORD) ::SendMessage(m_hWnd, LVM_SETEXTENDEDLISTVIEWSTYLE, 0, (LPARAM) dwNewStyle); }

  00026	6a 00		 push	 0
  00028	68 36 10 00 00	 push	 4150			; 00001036H
  0002d	ff b7 58 02 00
	00		 push	 DWORD PTR [edi+600]
  00033	ff d3		 call	 ebx
; File C:\Program Files (x86)\Microsoft Visual Studio\2019\Community\VC\Tools\MSVC\14.29.30133\atlmfc\include\afxwin2.inl

; 84   : 	{ ASSERT(::IsWindow(m_hWnd)); ::GetWindowRect(m_hWnd, lpRect); }

  00035	8d 45 ec	 lea	 eax, DWORD PTR _rect$[ebp]
  00038	0f 57 c0	 xorps	 xmm0, xmm0
  0003b	50		 push	 eax
  0003c	ff b7 58 02 00
	00		 push	 DWORD PTR [edi+600]
; File C:\Program Files (x86)\Microsoft Visual Studio\2019\Community\VC\Tools\MSVC\14.29.30133\atlmfc\include\atltypes.h

; 528  : 	left = 0;

  00042	0f 11 45 ec	 movups	 XMMWORD PTR _rect$[ebp], xmm0
; File C:\Program Files (x86)\Microsoft Visual Studio\2019\Community\VC\Tools\MSVC\14.29.30133\atlmfc\include\afxwin2.inl

; 84   : 	{ ASSERT(::IsWindow(m_hWnd)); ::GetWindowRect(m_hWnd, lpRect); }

  00046	ff 15 00 00 00
	00		 call	 DWORD PTR __imp__GetWindowRect@8
; File D:\git\src\IBK\IBK_DRFN\ProjSrc\SrcChartEx\ChartAddIn\ChartDesignPropertyAddIn\ChartDesignPropertyAddIn\ToolandRButtonPage.cpp

; 70   : 	lvColumn.cx = rect.Width() - 20;

  0004c	8b 45 f4	 mov	 eax, DWORD PTR _rect$[ebp+8]
  0004f	2b 45 ec	 sub	 eax, DWORD PTR _rect$[ebp]
  00052	83 e8 14	 sub	 eax, 20			; 00000014H
  00055	c7 45 bc 06 00
	00 00		 mov	 DWORD PTR _lvColumn$[ebp], 6
  0005c	89 45 c4	 mov	 DWORD PTR _lvColumn$[ebp+8], eax
; File C:\Program Files (x86)\Microsoft Visual Studio\2019\Community\VC\Tools\MSVC\14.29.30133\atlmfc\include\afxcmn.inl

; 209  : 	{ ASSERT(::IsWindow(m_hWnd)); return (int) ::SendMessage(m_hWnd, LVM_INSERTCOLUMN, nCol, (LPARAM)pColumn); }

  0005f	8d 45 bc	 lea	 eax, DWORD PTR _lvColumn$[ebp]
  00062	50		 push	 eax
  00063	6a 00		 push	 0
  00065	68 1b 10 00 00	 push	 4123			; 0000101bH
  0006a	ff 76 20	 push	 DWORD PTR [esi+32]
; File D:\git\src\IBK\IBK_DRFN\ProjSrc\SrcChartEx\ChartAddIn\ChartDesignPropertyAddIn\ChartDesignPropertyAddIn\ToolandRButtonPage.cpp

; 71   : 	lvColumn.pszText = _T("Chart List");

  0006d	c7 45 c8 00 00
	00 00		 mov	 DWORD PTR _lvColumn$[ebp+12], OFFSET ??_C@_0L@GFMNOAEH@Chart?5List@
; File C:\Program Files (x86)\Microsoft Visual Studio\2019\Community\VC\Tools\MSVC\14.29.30133\atlmfc\include\afxcmn.inl

; 209  : 	{ ASSERT(::IsWindow(m_hWnd)); return (int) ::SendMessage(m_hWnd, LVM_INSERTCOLUMN, nCol, (LPARAM)pColumn); }

  00074	ff d3		 call	 ebx
; File D:\git\src\IBK\IBK_DRFN\ProjSrc\SrcChartEx\ChartAddIn\ChartDesignPropertyAddIn\ChartDesignPropertyAddIn\ToolandRButtonPage.cpp

; 75   : 	for(int i = 0 ; i < IMetaTable::m_nToolOptionCount; i++)

  00076	33 f6		 xor	 esi, esi
  00078	39 35 00 00 00
	00		 cmp	 DWORD PTR ?m_nToolOptionCount@IMetaTable@@2HA, esi ; IMetaTable::m_nToolOptionCount
  0007e	7e 53		 jle	 SHORT $LN3@InitBaseLi
$LL4@InitBaseLi:

; 76   : 	{
; 77   : 		LV_ITEM listItem;
; 78   : 		listItem.mask = LVIF_TEXT;
; 79   : 		listItem.iSubItem = 0;
; 80   : 		listItem.iItem = i;
; 81   : 		listItem.pszText = ( char *)_LTEXT4( m_eToolOptions[i]);    

  00080	8b 0c b5 00 00
	00 00		 mov	 ecx, DWORD PTR ?m_eToolOptions@IMetaTable@@2PAW4E_METACODE@1@A[esi*4]
  00087	a1 54 00 00 00	 mov	 eax, DWORD PTR ?g_iMetaTable@@3VIMetaTable@@A+84
  0008c	6a 00		 push	 0
  0008e	c7 45 80 01 00
	00 00		 mov	 DWORD PTR _listItem$1[ebp], 1
  00095	c7 45 88 00 00
	00 00		 mov	 DWORD PTR _listItem$1[ebp+8], 0
  0009c	89 75 84	 mov	 DWORD PTR _listItem$1[ebp+4], esi
  0009f	ff 34 88	 push	 DWORD PTR [eax+ecx*4]
  000a2	b9 00 00 00 00	 mov	 ecx, OFFSET ?g_iMetaTable@@3VIMetaTable@@A ; g_iMetaTable
  000a7	6a 04		 push	 4
  000a9	ff b7 0c 04 00
	00		 push	 DWORD PTR [edi+1036]
  000af	e8 00 00 00 00	 call	 ?GetLanguageText@IMetaTable@@QAEPBDPAUHWND__@@W4E_CODEPAGE@1@PBDH@Z ; IMetaTable::GetLanguageText
  000b4	89 45 94	 mov	 DWORD PTR _listItem$1[ebp+20], eax
; File C:\Program Files (x86)\Microsoft Visual Studio\2019\Community\VC\Tools\MSVC\14.29.30133\atlmfc\include\afxcmn.inl

; 163  : 	{ ASSERT(::IsWindow(m_hWnd)); return (int) ::SendMessage(m_hWnd, LVM_INSERTITEM, 0, (LPARAM)pItem); }

  000b7	8d 45 80	 lea	 eax, DWORD PTR _listItem$1[ebp]
  000ba	50		 push	 eax
  000bb	8b 45 e8	 mov	 eax, DWORD PTR _pListCtrl$GSCopy$1$[ebp]
  000be	6a 00		 push	 0
  000c0	68 07 10 00 00	 push	 4103			; 00001007H
  000c5	ff 70 20	 push	 DWORD PTR [eax+32]
  000c8	ff d3		 call	 ebx
; File D:\git\src\IBK\IBK_DRFN\ProjSrc\SrcChartEx\ChartAddIn\ChartDesignPropertyAddIn\ChartDesignPropertyAddIn\ToolandRButtonPage.cpp

; 75   : 	for(int i = 0 ; i < IMetaTable::m_nToolOptionCount; i++)

  000ca	46		 inc	 esi
  000cb	3b 35 00 00 00
	00		 cmp	 esi, DWORD PTR ?m_nToolOptionCount@IMetaTable@@2HA ; IMetaTable::m_nToolOptionCount
  000d1	7c ad		 jl	 SHORT $LL4@InitBaseLi
$LN3@InitBaseLi:

; 82   : 		pListCtrl->InsertItem(&listItem);
; 83   : 	}	
; 84   : }

  000d3	8b 4d fc	 mov	 ecx, DWORD PTR __$ArrayPad$[ebp]
  000d6	5f		 pop	 edi
  000d7	5e		 pop	 esi
  000d8	33 cd		 xor	 ecx, ebp
  000da	5b		 pop	 ebx
  000db	e8 00 00 00 00	 call	 @__security_check_cookie@4
  000e0	8b e5		 mov	 esp, ebp
  000e2	5d		 pop	 ebp
  000e3	c2 04 00	 ret	 4
?InitBaseList@CToolandRButtonPage@@AAEXPAVCListCtrl@@@Z ENDP ; CToolandRButtonPage::InitBaseList
_TEXT	ENDS
; Function compile flags: /Ogtp
; File D:\git\src\IBK\IBK_DRFN\ProjSrc\SrcChartEx\ChartAddIn\ChartDesignPropertyAddIn\ChartDesignPropertyAddIn\ToolandRButtonPage.cpp
; File D:\git\src\IBK\IBK_DRFN\ProjSrc\SrcChartEx\ChartAddIn\ChartDesignPropertyAddIn\Include_Chart\Dll_Load\IMetaTable.h
; File C:\Program Files (x86)\Microsoft Visual Studio\2019\Community\VC\Tools\MSVC\14.29.30133\atlmfc\include\afxwin1.inl
; File D:\git\src\IBK\IBK_DRFN\ProjSrc\SrcChartEx\ChartAddIn\ChartDesignPropertyAddIn\Include_Chart\Dll_Load\IMetaTable.h
; File C:\Program Files (x86)\Microsoft Visual Studio\2019\Community\VC\Tools\MSVC\14.29.30133\atlmfc\include\afxwin1.inl
; File D:\git\src\IBK\IBK_DRFN\ProjSrc\SrcChartEx\ChartAddIn\ChartDesignPropertyAddIn\ChartDesignPropertyAddIn\ToolandRButtonPage.cpp
; File C:\Program Files (x86)\Microsoft Visual Studio\2019\Community\VC\Tools\MSVC\14.29.30133\atlmfc\include\afxcoll.inl
; File D:\git\src\IBK\IBK_DRFN\ProjSrc\SrcChartEx\ChartAddIn\ChartDesignPropertyAddIn\ChartDesignPropertyAddIn\ToolandRButtonPage.cpp
; File C:\Program Files (x86)\Microsoft Visual Studio\2019\Community\VC\Tools\MSVC\14.29.30133\atlmfc\include\afxcoll.inl
; File D:\git\src\IBK\IBK_DRFN\ProjSrc\SrcChartEx\ChartAddIn\ChartDesignPropertyAddIn\ChartDesignPropertyAddIn\ToolandRButtonPage.cpp
; File D:\git\src\IBK\IBK_DRFN\ProjSrc\SrcChartEx\ChartAddIn\ChartDesignPropertyAddIn\Include_Chart\Dll_Load\IMetaTable.h
; File C:\Program Files (x86)\Microsoft Visual Studio\2019\Community\VC\Tools\MSVC\14.29.30133\atlmfc\include\afxwin1.inl
; File D:\git\src\IBK\IBK_DRFN\ProjSrc\SrcChartEx\ChartAddIn\ChartDesignPropertyAddIn\ChartDesignPropertyAddIn\ToolandRButtonPage.cpp
;	COMDAT ?CreateToolTip@CToolandRButtonPage@@AAEXXZ
_TEXT	SEGMENT
_dwaInfo$ = -36						; size = 20
___mlrs__$ = -16					; size = 4
__$EHRec$ = -12						; size = 12
?CreateToolTip@CToolandRButtonPage@@AAEXXZ PROC		; CToolandRButtonPage::CreateToolTip, COMDAT
; _this$ = ecx

; 105  : {

  00000	55		 push	 ebp
  00001	8b ec		 mov	 ebp, esp
  00003	6a ff		 push	 -1
  00005	68 00 00 00 00	 push	 __ehhandler$?CreateToolTip@CToolandRButtonPage@@AAEXXZ
  0000a	64 a1 00 00 00
	00		 mov	 eax, DWORD PTR fs:0
  00010	50		 push	 eax
  00011	83 ec 18	 sub	 esp, 24			; 00000018H
  00014	53		 push	 ebx
  00015	56		 push	 esi
  00016	57		 push	 edi
  00017	a1 00 00 00 00	 mov	 eax, DWORD PTR ___security_cookie
  0001c	33 c5		 xor	 eax, ebp
  0001e	50		 push	 eax
  0001f	8d 45 f4	 lea	 eax, DWORD PTR __$EHRec$[ebp]
  00022	64 a3 00 00 00
	00		 mov	 DWORD PTR fs:0, eax
  00028	8b d9		 mov	 ebx, ecx

; 106  : 	ML_SET_LANGUAGE_RES();

  0002a	e8 00 00 00 00	 call	 ?AfxGetStaticModuleState@@YGPAVAFX_MODULE_STATE@@XZ ; AfxGetStaticModuleState
  0002f	8b bb 0c 04 00
	00		 mov	 edi, DWORD PTR [ebx+1036]
  00035	8b 70 08	 mov	 esi, DWORD PTR [eax+8]
; File D:\git\src\IBK\IBK_DRFN\ProjSrc\SrcChartEx\ChartAddIn\ChartDesignPropertyAddIn\Include_Chart\Dll_Load\IMetaTable.h

; 936  : 	DECLARE_FUNCTION2(	LoadResourceDLL,				HMODULE, AfxGetStaticModuleState()->m_hCurrentInstanceHandle, HWND, HMODULE);

  00038	a1 04 00 00 00	 mov	 eax, DWORD PTR ?g_iMetaTable@@3VIMetaTable@@A+4
  0003d	85 c0		 test	 eax, eax
  0003f	74 4b		 je	 SHORT $LN8@CreateTool
  00041	b9 80 0d 00 00	 mov	 ecx, 3456		; 00000d80H
  00046	66 3b 0d 94 00
	00 00		 cmp	 cx, WORD PTR ?g_iMetaTable@@3VIMetaTable@@A+148
  0004d	74 29		 je	 SHORT $LN39@CreateTool
  0004f	68 00 00 00 00	 push	 OFFSET ??_C@_0BA@ENJOCHIO@LoadResourceDLL@
  00054	50		 push	 eax
  00055	c7 05 90 00 00
	00 00 00 00 00	 mov	 DWORD PTR ?g_iMetaTable@@3VIMetaTable@@A+144, 0
  0005f	ff 15 00 00 00
	00		 call	 DWORD PTR __imp__GetProcAddress@8
  00065	b9 80 0d 00 00	 mov	 ecx, 3456		; 00000d80H
  0006a	a3 90 00 00 00	 mov	 DWORD PTR ?g_iMetaTable@@3VIMetaTable@@A+144, eax
  0006f	66 89 0d 94 00
	00 00		 mov	 WORD PTR ?g_iMetaTable@@3VIMetaTable@@A+148, cx
  00076	eb 05		 jmp	 SHORT $LN7@CreateTool
$LN39@CreateTool:
  00078	a1 90 00 00 00	 mov	 eax, DWORD PTR ?g_iMetaTable@@3VIMetaTable@@A+144
$LN7@CreateTool:
  0007d	85 c0		 test	 eax, eax
  0007f	74 0b		 je	 SHORT $LN8@CreateTool
  00081	56		 push	 esi
  00082	57		 push	 edi
  00083	ff d0		 call	 eax
  00085	83 c4 08	 add	 esp, 8
  00088	8b f8		 mov	 edi, eax
  0008a	eb 08		 jmp	 SHORT $LN5@CreateTool
$LN8@CreateTool:
  0008c	e8 00 00 00 00	 call	 ?AfxGetStaticModuleState@@YGPAVAFX_MODULE_STATE@@XZ ; AfxGetStaticModuleState
  00091	8b 78 08	 mov	 edi, DWORD PTR [eax+8]
$LN5@CreateTool:
; File C:\Program Files (x86)\Microsoft Visual Studio\2019\Community\VC\Tools\MSVC\14.29.30133\atlmfc\include\afxwin1.inl

; 25   : 		return afxCurrentResourceHandle; }

  00094	e8 00 00 00 00	 call	 ?AfxGetModuleState@@YGPAVAFX_MODULE_STATE@@XZ ; AfxGetModuleState
; File D:\git\src\IBK\IBK_DRFN\ProjSrc\SrcChartEx\ChartAddIn\ChartDesignPropertyAddIn\Include_Chart\Dll_Load\IMetaTable.h

; 1032 : 		m_hInstance = AfxGetResourceHandle();

  00099	8b 70 0c	 mov	 esi, DWORD PTR [eax+12]
  0009c	89 75 f0	 mov	 DWORD PTR ___mlrs__$[ebp], esi
; File C:\Program Files (x86)\Microsoft Visual Studio\2019\Community\VC\Tools\MSVC\14.29.30133\atlmfc\include\afxwin1.inl

; 27   : 	{ ASSERT(hInstResource != NULL); afxCurrentResourceHandle = hInstResource; }

  0009f	e8 00 00 00 00	 call	 ?AfxGetModuleState@@YGPAVAFX_MODULE_STATE@@XZ ; AfxGetModuleState
  000a4	89 78 0c	 mov	 DWORD PTR [eax+12], edi
; File D:\git\src\IBK\IBK_DRFN\ProjSrc\SrcChartEx\ChartAddIn\ChartDesignPropertyAddIn\ChartDesignPropertyAddIn\ToolandRButtonPage.cpp

; 107  : 	m_toolTip.Create( this );

  000a7	53		 push	 ebx
  000a8	8d 8b 28 03 00
	00		 lea	 ecx, DWORD PTR [ebx+808]
  000ae	c7 45 fc 00 00
	00 00		 mov	 DWORD PTR __$EHRec$[ebp+8], 0
  000b5	e8 00 00 00 00	 call	 ?Create@CDlgToolTip@@QAEXPAVCWnd@@@Z ; CDlgToolTip::Create

; 108  : 	CDWordArray dwaInfo;

  000ba	8d 4d dc	 lea	 ecx, DWORD PTR _dwaInfo$[ebp]
  000bd	e8 00 00 00 00	 call	 ??0CDWordArray@@QAE@XZ	; CDWordArray::CDWordArray
; File C:\Program Files (x86)\Microsoft Visual Studio\2019\Community\VC\Tools\MSVC\14.29.30133\atlmfc\include\afxcoll.inl

; 114  : 	{ SetSize(0); }

  000c2	6a ff		 push	 -1
  000c4	6a 00		 push	 0
  000c6	8d 4d dc	 lea	 ecx, DWORD PTR _dwaInfo$[ebp]
; File D:\git\src\IBK\IBK_DRFN\ProjSrc\SrcChartEx\ChartAddIn\ChartDesignPropertyAddIn\ChartDesignPropertyAddIn\ToolandRButtonPage.cpp

; 108  : 	CDWordArray dwaInfo;

  000c9	c6 45 fc 01	 mov	 BYTE PTR __$EHRec$[ebp+8], 1
; File C:\Program Files (x86)\Microsoft Visual Studio\2019\Community\VC\Tools\MSVC\14.29.30133\atlmfc\include\afxcoll.inl

; 114  : 	{ SetSize(0); }

  000cd	e8 00 00 00 00	 call	 ?SetSize@CDWordArray@@QAEXHH@Z ; CDWordArray::SetSize

; 137  : 		SetAtGrow(nIndex, newElement);

  000d2	68 45 04 00 00	 push	 1093			; 00000445H
  000d7	ff 75 e4	 push	 DWORD PTR _dwaInfo$[ebp+8]
  000da	8d 4d dc	 lea	 ecx, DWORD PTR _dwaInfo$[ebp]
  000dd	e8 00 00 00 00	 call	 ?SetAtGrow@CDWordArray@@QAEXHK@Z ; CDWordArray::SetAtGrow
  000e2	68 46 04 00 00	 push	 1094			; 00000446H
  000e7	ff 75 e4	 push	 DWORD PTR _dwaInfo$[ebp+8]
  000ea	8d 4d dc	 lea	 ecx, DWORD PTR _dwaInfo$[ebp]
  000ed	e8 00 00 00 00	 call	 ?SetAtGrow@CDWordArray@@QAEXHK@Z ; CDWordArray::SetAtGrow
  000f2	68 47 04 00 00	 push	 1095			; 00000447H
  000f7	ff 75 e4	 push	 DWORD PTR _dwaInfo$[ebp+8]
  000fa	8d 4d dc	 lea	 ecx, DWORD PTR _dwaInfo$[ebp]
  000fd	e8 00 00 00 00	 call	 ?SetAtGrow@CDWordArray@@QAEXHK@Z ; CDWordArray::SetAtGrow
  00102	68 48 04 00 00	 push	 1096			; 00000448H
  00107	ff 75 e4	 push	 DWORD PTR _dwaInfo$[ebp+8]
  0010a	8d 4d dc	 lea	 ecx, DWORD PTR _dwaInfo$[ebp]
  0010d	e8 00 00 00 00	 call	 ?SetAtGrow@CDWordArray@@QAEXHK@Z ; CDWordArray::SetAtGrow
  00112	68 49 04 00 00	 push	 1097			; 00000449H
  00117	ff 75 e4	 push	 DWORD PTR _dwaInfo$[ebp+8]
  0011a	8d 4d dc	 lea	 ecx, DWORD PTR _dwaInfo$[ebp]
  0011d	e8 00 00 00 00	 call	 ?SetAtGrow@CDWordArray@@QAEXHK@Z ; CDWordArray::SetAtGrow
  00122	68 4b 04 00 00	 push	 1099			; 0000044bH
  00127	ff 75 e4	 push	 DWORD PTR _dwaInfo$[ebp+8]
  0012a	8d 4d dc	 lea	 ecx, DWORD PTR _dwaInfo$[ebp]
  0012d	e8 00 00 00 00	 call	 ?SetAtGrow@CDWordArray@@QAEXHK@Z ; CDWordArray::SetAtGrow
  00132	68 4c 04 00 00	 push	 1100			; 0000044cH
  00137	ff 75 e4	 push	 DWORD PTR _dwaInfo$[ebp+8]
  0013a	8d 4d dc	 lea	 ecx, DWORD PTR _dwaInfo$[ebp]
  0013d	e8 00 00 00 00	 call	 ?SetAtGrow@CDWordArray@@QAEXHK@Z ; CDWordArray::SetAtGrow
  00142	68 4e 04 00 00	 push	 1102			; 0000044eH
  00147	ff 75 e4	 push	 DWORD PTR _dwaInfo$[ebp+8]
  0014a	8d 4d dc	 lea	 ecx, DWORD PTR _dwaInfo$[ebp]
  0014d	e8 00 00 00 00	 call	 ?SetAtGrow@CDWordArray@@QAEXHK@Z ; CDWordArray::SetAtGrow
; File D:\git\src\IBK\IBK_DRFN\ProjSrc\SrcChartEx\ChartAddIn\ChartDesignPropertyAddIn\ChartDesignPropertyAddIn\ToolandRButtonPage.cpp

; 119  : 	m_toolTip.AddControlInfo( IDC_TOOL_LIST, dwaInfo);

  00152	6a 00		 push	 0
  00154	68 ff ff dc 00	 push	 14483455		; 00dcffffH
  00159	8d 45 dc	 lea	 eax, DWORD PTR _dwaInfo$[ebp]
  0015c	50		 push	 eax
  0015d	68 bb 1b 00 00	 push	 7099			; 00001bbbH
  00162	8d 8b 28 03 00
	00		 lea	 ecx, DWORD PTR [ebx+808]
  00168	e8 00 00 00 00	 call	 ?AddControlInfo@CDlgToolTip@@QAEHIAAVCDWordArray@@KK@Z ; CDlgToolTip::AddControlInfo

; 120  : }

  0016d	8d 4d dc	 lea	 ecx, DWORD PTR _dwaInfo$[ebp]
  00170	e8 00 00 00 00	 call	 ??1CDWordArray@@UAE@XZ	; CDWordArray::~CDWordArray
; File D:\git\src\IBK\IBK_DRFN\ProjSrc\SrcChartEx\ChartAddIn\ChartDesignPropertyAddIn\Include_Chart\Dll_Load\IMetaTable.h

; 1036 : 	{

  00175	c7 45 fc 02 00
	00 00		 mov	 DWORD PTR __$EHRec$[ebp+8], 2
; File C:\Program Files (x86)\Microsoft Visual Studio\2019\Community\VC\Tools\MSVC\14.29.30133\atlmfc\include\afxwin1.inl

; 27   : 	{ ASSERT(hInstResource != NULL); afxCurrentResourceHandle = hInstResource; }

  0017c	e8 00 00 00 00	 call	 ?AfxGetModuleState@@YGPAVAFX_MODULE_STATE@@XZ ; AfxGetModuleState
  00181	89 70 0c	 mov	 DWORD PTR [eax+12], esi
; File D:\git\src\IBK\IBK_DRFN\ProjSrc\SrcChartEx\ChartAddIn\ChartDesignPropertyAddIn\ChartDesignPropertyAddIn\ToolandRButtonPage.cpp

; 120  : }

  00184	8b 4d f4	 mov	 ecx, DWORD PTR __$EHRec$[ebp]
  00187	64 89 0d 00 00
	00 00		 mov	 DWORD PTR fs:0, ecx
  0018e	59		 pop	 ecx
  0018f	5f		 pop	 edi
  00190	5e		 pop	 esi
  00191	5b		 pop	 ebx
  00192	8b e5		 mov	 esp, ebp
  00194	5d		 pop	 ebp
  00195	c3		 ret	 0
_TEXT	ENDS
;	COMDAT text$x
text$x	SEGMENT
__unwindfunclet$?CreateToolTip@CToolandRButtonPage@@AAEXXZ$0:
  00000	8d 4d f0	 lea	 ecx, DWORD PTR ___mlrs__$[ebp]
  00003	e9 00 00 00 00	 jmp	 ??1CMultiLanguageResourceSetter@@QAE@XZ ; CMultiLanguageResourceSetter::~CMultiLanguageResourceSetter
__unwindfunclet$?CreateToolTip@CToolandRButtonPage@@AAEXXZ$1:
  00008	8d 4d dc	 lea	 ecx, DWORD PTR _dwaInfo$[ebp]
  0000b	e9 00 00 00 00	 jmp	 ??1CDWordArray@@UAE@XZ	; CDWordArray::~CDWordArray
  00010	cc		 int	 3
  00011	cc		 int	 3
  00012	cc		 int	 3
  00013	cc		 int	 3
  00014	cc		 int	 3
__ehhandler$?CreateToolTip@CToolandRButtonPage@@AAEXXZ:
  00015	90		 npad	 1
  00016	90		 npad	 1
  00017	8b 54 24 08	 mov	 edx, DWORD PTR [esp+8]
  0001b	8d 42 0c	 lea	 eax, DWORD PTR [edx+12]
  0001e	8b 4a d8	 mov	 ecx, DWORD PTR [edx-40]
  00021	33 c8		 xor	 ecx, eax
  00023	e8 00 00 00 00	 call	 @__security_check_cookie@4
  00028	b8 00 00 00 00	 mov	 eax, OFFSET __ehfuncinfo$?CreateToolTip@CToolandRButtonPage@@AAEXXZ
  0002d	e9 00 00 00 00	 jmp	 ___CxxFrameHandler3
text$x	ENDS
?CreateToolTip@CToolandRButtonPage@@AAEXXZ ENDP		; CToolandRButtonPage::CreateToolTip
; Function compile flags: /Ogtp
; File D:\git\src\IBK\IBK_DRFN\ProjSrc\SrcChartEx\ChartAddIn\ChartDesignPropertyAddIn\ChartDesignPropertyAddIn\ToolandRButtonPage.cpp
;	COMDAT ?GetMessageMap@CToolandRButtonPage@@MBEPBUAFX_MSGMAP@@XZ
_TEXT	SEGMENT
?GetMessageMap@CToolandRButtonPage@@MBEPBUAFX_MSGMAP@@XZ PROC ; CToolandRButtonPage::GetMessageMap, COMDAT
; _this$ = ecx

; 52   : BEGIN_MESSAGE_MAP(CToolandRButtonPage, CPropertyPage)

  00000	b8 00 00 00 00	 mov	 eax, OFFSET ?messageMap@?1??GetThisMessageMap@CToolandRButtonPage@@KGPBUAFX_MSGMAP@@XZ@4U3@B
  00005	c3		 ret	 0
?GetMessageMap@CToolandRButtonPage@@MBEPBUAFX_MSGMAP@@XZ ENDP ; CToolandRButtonPage::GetMessageMap
_TEXT	ENDS
; Function compile flags: /Ogtp
; File D:\git\src\IBK\IBK_DRFN\ProjSrc\SrcChartEx\ChartAddIn\ChartDesignPropertyAddIn\ChartDesignPropertyAddIn\ToolandRButtonPage.cpp
;	COMDAT ?GetThisMessageMap@CToolandRButtonPage@@KGPBUAFX_MSGMAP@@XZ
_TEXT	SEGMENT
?GetThisMessageMap@CToolandRButtonPage@@KGPBUAFX_MSGMAP@@XZ PROC ; CToolandRButtonPage::GetThisMessageMap, COMDAT

; 53   : 	//{{AFX_MSG_MAP(CToolandRButtonPage)
; 54   : 	//}}AFX_MSG_MAP
; 55   : END_MESSAGE_MAP()

  00000	b8 00 00 00 00	 mov	 eax, OFFSET ?messageMap@?1??GetThisMessageMap@CToolandRButtonPage@@KGPBUAFX_MSGMAP@@XZ@4U3@B
  00005	c3		 ret	 0
?GetThisMessageMap@CToolandRButtonPage@@KGPBUAFX_MSGMAP@@XZ ENDP ; CToolandRButtonPage::GetThisMessageMap
_TEXT	ENDS
; Function compile flags: /Ogtp
; File D:\git\src\IBK\IBK_DRFN\ProjSrc\SrcChartEx\ChartAddIn\ChartDesignPropertyAddIn\ChartDesignPropertyAddIn\ToolandRButtonPage.cpp
; File C:\Program Files (x86)\Microsoft Visual Studio\2019\Community\VC\Tools\MSVC\14.29.30133\atlmfc\include\afxcmn2.inl
; File C:\Program Files (x86)\Microsoft Visual Studio\2019\Community\VC\Tools\MSVC\14.29.30133\atlmfc\include\afxwin2.inl
; File C:\Program Files (x86)\Microsoft Visual Studio\2019\Community\VC\Tools\MSVC\14.29.30133\atlmfc\include\atltypes.h
; File C:\Program Files (x86)\Microsoft Visual Studio\2019\Community\VC\Tools\MSVC\14.29.30133\atlmfc\include\afxwin2.inl
; File D:\git\src\IBK\IBK_DRFN\ProjSrc\SrcChartEx\ChartAddIn\ChartDesignPropertyAddIn\ChartDesignPropertyAddIn\ToolandRButtonPage.cpp
; File C:\Program Files (x86)\Microsoft Visual Studio\2019\Community\VC\Tools\MSVC\14.29.30133\atlmfc\include\afxcmn.inl
; File D:\git\src\IBK\IBK_DRFN\ProjSrc\SrcChartEx\ChartAddIn\ChartDesignPropertyAddIn\ChartDesignPropertyAddIn\ToolandRButtonPage.cpp
; File C:\Program Files (x86)\Microsoft Visual Studio\2019\Community\VC\Tools\MSVC\14.29.30133\atlmfc\include\afxcmn.inl
; File D:\git\src\IBK\IBK_DRFN\ProjSrc\SrcChartEx\ChartAddIn\ChartDesignPropertyAddIn\ChartDesignPropertyAddIn\ToolandRButtonPage.cpp
; File C:\Program Files (x86)\Microsoft Visual Studio\2019\Community\VC\Tools\MSVC\14.29.30133\atlmfc\include\afxcmn.inl
; File D:\git\src\IBK\IBK_DRFN\ProjSrc\SrcChartEx\ChartAddIn\ChartDesignPropertyAddIn\ChartDesignPropertyAddIn\ToolandRButtonPage.cpp
; File D:\git\src\IBK\IBK_DRFN\ProjSrc\SrcChartEx\ChartAddIn\ChartDesignPropertyAddIn\Include_Chart\Dll_Load\IMetaTable.h
; File C:\Program Files (x86)\Microsoft Visual Studio\2019\Community\VC\Tools\MSVC\14.29.30133\atlmfc\include\afxwin1.inl
; File D:\git\src\IBK\IBK_DRFN\ProjSrc\SrcChartEx\ChartAddIn\ChartDesignPropertyAddIn\Include_Chart\Dll_Load\IMetaTable.h
; File C:\Program Files (x86)\Microsoft Visual Studio\2019\Community\VC\Tools\MSVC\14.29.30133\atlmfc\include\afxwin1.inl
; File D:\git\src\IBK\IBK_DRFN\ProjSrc\SrcChartEx\ChartAddIn\ChartDesignPropertyAddIn\ChartDesignPropertyAddIn\ToolandRButtonPage.cpp
; File C:\Program Files (x86)\Microsoft Visual Studio\2019\Community\VC\Tools\MSVC\14.29.30133\atlmfc\include\afxcoll.inl
; File D:\git\src\IBK\IBK_DRFN\ProjSrc\SrcChartEx\ChartAddIn\ChartDesignPropertyAddIn\ChartDesignPropertyAddIn\ToolandRButtonPage.cpp
; File C:\Program Files (x86)\Microsoft Visual Studio\2019\Community\VC\Tools\MSVC\14.29.30133\atlmfc\include\afxcoll.inl
; File D:\git\src\IBK\IBK_DRFN\ProjSrc\SrcChartEx\ChartAddIn\ChartDesignPropertyAddIn\ChartDesignPropertyAddIn\ToolandRButtonPage.cpp
; File D:\git\src\IBK\IBK_DRFN\ProjSrc\SrcChartEx\ChartAddIn\ChartDesignPropertyAddIn\Include_Chart\Dll_Load\IMetaTable.h
; File C:\Program Files (x86)\Microsoft Visual Studio\2019\Community\VC\Tools\MSVC\14.29.30133\atlmfc\include\afxwin1.inl
; File D:\git\src\IBK\IBK_DRFN\ProjSrc\SrcChartEx\ChartAddIn\ChartDesignPropertyAddIn\ChartDesignPropertyAddIn\ToolandRButtonPage.cpp
;	COMDAT ?OnInitDialog@CToolandRButtonPage@@MAEHXZ
_TEXT	SEGMENT
_listItem$2 = -160					; size = 60
_lvColumn$3 = -100					; size = 44
___mlrs__$4 = -56					; size = 4
_dwaInfo$5 = -52					; size = 20
_rect$6 = -32						; size = 16
__$ArrayPad$ = -16					; size = 4
__$EHRec$ = -12						; size = 12
?OnInitDialog@CToolandRButtonPage@@MAEHXZ PROC		; CToolandRButtonPage::OnInitDialog, COMDAT
; _this$ = ecx

; 87   : {

  00000	55		 push	 ebp
  00001	8b ec		 mov	 ebp, esp
  00003	6a ff		 push	 -1
  00005	68 00 00 00 00	 push	 __ehhandler$?OnInitDialog@CToolandRButtonPage@@MAEHXZ
  0000a	64 a1 00 00 00
	00		 mov	 eax, DWORD PTR fs:0
  00010	50		 push	 eax
  00011	81 ec 94 00 00
	00		 sub	 esp, 148		; 00000094H
  00017	a1 00 00 00 00	 mov	 eax, DWORD PTR ___security_cookie
  0001c	33 c5		 xor	 eax, ebp
  0001e	89 45 f0	 mov	 DWORD PTR __$ArrayPad$[ebp], eax
  00021	53		 push	 ebx
  00022	56		 push	 esi
  00023	57		 push	 edi
  00024	50		 push	 eax
  00025	8d 45 f4	 lea	 eax, DWORD PTR __$EHRec$[ebp]
  00028	64 a3 00 00 00
	00		 mov	 DWORD PTR fs:0, eax
  0002e	8b d9		 mov	 ebx, ecx

; 88   : 	CPropertyPage::OnInitDialog();

  00030	e8 00 00 00 00	 call	 ?OnInitDialog@CDialog@@UAEHXZ ; CDialog::OnInitDialog
; File C:\Program Files (x86)\Microsoft Visual Studio\2019\Community\VC\Tools\MSVC\14.29.30133\atlmfc\include\afxcmn2.inl

; 117  : 	{ ASSERT(::IsWindow(m_hWnd)); return (DWORD) ::SendMessage(m_hWnd, LVM_SETEXTENDEDLISTVIEWSTYLE, 0, (LPARAM) dwNewStyle); }

  00035	8b 3d 00 00 00
	00		 mov	 edi, DWORD PTR __imp__SendMessageA@16
  0003b	6a 01		 push	 1
  0003d	6a 00		 push	 0
  0003f	68 36 10 00 00	 push	 4150			; 00001036H
  00044	ff b3 58 02 00
	00		 push	 DWORD PTR [ebx+600]
  0004a	ff d7		 call	 edi
; File C:\Program Files (x86)\Microsoft Visual Studio\2019\Community\VC\Tools\MSVC\14.29.30133\atlmfc\include\afxwin2.inl

; 84   : 	{ ASSERT(::IsWindow(m_hWnd)); ::GetWindowRect(m_hWnd, lpRect); }

  0004c	8d 45 e0	 lea	 eax, DWORD PTR _rect$6[ebp]
  0004f	0f 57 c0	 xorps	 xmm0, xmm0
  00052	50		 push	 eax
  00053	ff b3 58 02 00
	00		 push	 DWORD PTR [ebx+600]
; File C:\Program Files (x86)\Microsoft Visual Studio\2019\Community\VC\Tools\MSVC\14.29.30133\atlmfc\include\atltypes.h

; 528  : 	left = 0;

  00059	0f 11 45 e0	 movups	 XMMWORD PTR _rect$6[ebp], xmm0
; File C:\Program Files (x86)\Microsoft Visual Studio\2019\Community\VC\Tools\MSVC\14.29.30133\atlmfc\include\afxwin2.inl

; 84   : 	{ ASSERT(::IsWindow(m_hWnd)); ::GetWindowRect(m_hWnd, lpRect); }

  0005d	ff 15 00 00 00
	00		 call	 DWORD PTR __imp__GetWindowRect@8
; File D:\git\src\IBK\IBK_DRFN\ProjSrc\SrcChartEx\ChartAddIn\ChartDesignPropertyAddIn\ChartDesignPropertyAddIn\ToolandRButtonPage.cpp

; 70   : 	lvColumn.cx = rect.Width() - 20;

  00063	8b 45 e8	 mov	 eax, DWORD PTR _rect$6[ebp+8]
  00066	2b 45 e0	 sub	 eax, DWORD PTR _rect$6[ebp]
  00069	83 e8 14	 sub	 eax, 20			; 00000014H
  0006c	c7 45 9c 06 00
	00 00		 mov	 DWORD PTR _lvColumn$3[ebp], 6
  00073	89 45 a4	 mov	 DWORD PTR _lvColumn$3[ebp+8], eax
; File C:\Program Files (x86)\Microsoft Visual Studio\2019\Community\VC\Tools\MSVC\14.29.30133\atlmfc\include\afxcmn.inl

; 209  : 	{ ASSERT(::IsWindow(m_hWnd)); return (int) ::SendMessage(m_hWnd, LVM_INSERTCOLUMN, nCol, (LPARAM)pColumn); }

  00076	8d 45 9c	 lea	 eax, DWORD PTR _lvColumn$3[ebp]
  00079	50		 push	 eax
  0007a	6a 00		 push	 0
  0007c	68 1b 10 00 00	 push	 4123			; 0000101bH
  00081	ff b3 58 02 00
	00		 push	 DWORD PTR [ebx+600]
; File D:\git\src\IBK\IBK_DRFN\ProjSrc\SrcChartEx\ChartAddIn\ChartDesignPropertyAddIn\ChartDesignPropertyAddIn\ToolandRButtonPage.cpp

; 71   : 	lvColumn.pszText = _T("Chart List");

  00087	c7 45 a8 00 00
	00 00		 mov	 DWORD PTR _lvColumn$3[ebp+12], OFFSET ??_C@_0L@GFMNOAEH@Chart?5List@
; File C:\Program Files (x86)\Microsoft Visual Studio\2019\Community\VC\Tools\MSVC\14.29.30133\atlmfc\include\afxcmn.inl

; 209  : 	{ ASSERT(::IsWindow(m_hWnd)); return (int) ::SendMessage(m_hWnd, LVM_INSERTCOLUMN, nCol, (LPARAM)pColumn); }

  0008e	ff d7		 call	 edi
; File D:\git\src\IBK\IBK_DRFN\ProjSrc\SrcChartEx\ChartAddIn\ChartDesignPropertyAddIn\ChartDesignPropertyAddIn\ToolandRButtonPage.cpp

; 75   : 	for(int i = 0 ; i < IMetaTable::m_nToolOptionCount; i++)

  00090	33 f6		 xor	 esi, esi
  00092	39 35 00 00 00
	00		 cmp	 DWORD PTR ?m_nToolOptionCount@IMetaTable@@2HA, esi ; IMetaTable::m_nToolOptionCount
  00098	7e 68		 jle	 SHORT $LN5@OnInitDial
  0009a	66 0f 1f 44 00
	00		 npad	 6
$LL6@OnInitDial:

; 76   : 	{
; 77   : 		LV_ITEM listItem;
; 78   : 		listItem.mask = LVIF_TEXT;
; 79   : 		listItem.iSubItem = 0;
; 80   : 		listItem.iItem = i;
; 81   : 		listItem.pszText = ( char *)_LTEXT4( m_eToolOptions[i]);    

  000a0	8b 0c b5 00 00
	00 00		 mov	 ecx, DWORD PTR ?m_eToolOptions@IMetaTable@@2PAW4E_METACODE@1@A[esi*4]
  000a7	a1 54 00 00 00	 mov	 eax, DWORD PTR ?g_iMetaTable@@3VIMetaTable@@A+84
  000ac	6a 00		 push	 0
  000ae	c7 85 60 ff ff
	ff 01 00 00 00	 mov	 DWORD PTR _listItem$2[ebp], 1
  000b8	c7 85 68 ff ff
	ff 00 00 00 00	 mov	 DWORD PTR _listItem$2[ebp+8], 0
  000c2	89 b5 64 ff ff
	ff		 mov	 DWORD PTR _listItem$2[ebp+4], esi
  000c8	ff 34 88	 push	 DWORD PTR [eax+ecx*4]
  000cb	b9 00 00 00 00	 mov	 ecx, OFFSET ?g_iMetaTable@@3VIMetaTable@@A ; g_iMetaTable
  000d0	6a 04		 push	 4
  000d2	ff b3 0c 04 00
	00		 push	 DWORD PTR [ebx+1036]
  000d8	e8 00 00 00 00	 call	 ?GetLanguageText@IMetaTable@@QAEPBDPAUHWND__@@W4E_CODEPAGE@1@PBDH@Z ; IMetaTable::GetLanguageText
  000dd	89 85 74 ff ff
	ff		 mov	 DWORD PTR _listItem$2[ebp+20], eax
; File C:\Program Files (x86)\Microsoft Visual Studio\2019\Community\VC\Tools\MSVC\14.29.30133\atlmfc\include\afxcmn.inl

; 163  : 	{ ASSERT(::IsWindow(m_hWnd)); return (int) ::SendMessage(m_hWnd, LVM_INSERTITEM, 0, (LPARAM)pItem); }

  000e3	8d 85 60 ff ff
	ff		 lea	 eax, DWORD PTR _listItem$2[ebp]
  000e9	50		 push	 eax
  000ea	6a 00		 push	 0
  000ec	68 07 10 00 00	 push	 4103			; 00001007H
  000f1	ff b3 58 02 00
	00		 push	 DWORD PTR [ebx+600]
  000f7	ff d7		 call	 edi
; File D:\git\src\IBK\IBK_DRFN\ProjSrc\SrcChartEx\ChartAddIn\ChartDesignPropertyAddIn\ChartDesignPropertyAddIn\ToolandRButtonPage.cpp

; 75   : 	for(int i = 0 ; i < IMetaTable::m_nToolOptionCount; i++)

  000f9	46		 inc	 esi
  000fa	3b 35 00 00 00
	00		 cmp	 esi, DWORD PTR ?m_nToolOptionCount@IMetaTable@@2HA ; IMetaTable::m_nToolOptionCount
  00100	7c 9e		 jl	 SHORT $LL6@OnInitDial
$LN5@OnInitDial:

; 89   : 
; 90   : 	InitBaseList(&m_ToolRButtonItem_Ctrl);
; 91   : 	m_ToolRButton_Tab.InitTab();

  00102	8d 8b c0 00 00
	00		 lea	 ecx, DWORD PTR [ebx+192]
  00108	e8 00 00 00 00	 call	 ?InitTab@CToolandRButtonTabCtrl@@QAEXXZ ; CToolandRButtonTabCtrl::InitTab

; 92   : 	m_ToolRButton_Tab.SetSavedDataToDlgwithListCtrl();

  0010d	8d 8b c0 00 00
	00		 lea	 ecx, DWORD PTR [ebx+192]
  00113	e8 00 00 00 00	 call	 ?SetSavedDataToDlgwithListCtrl@CToolandRButtonTabCtrl@@QAEXXZ ; CToolandRButtonTabCtrl::SetSavedDataToDlgwithListCtrl

; 93   : 
; 94   : 	m_ToolRButtonItem_Ctrl.InitDropTarget();

  00118	8d 8b 38 02 00
	00		 lea	 ecx, DWORD PTR [ebx+568]
  0011e	e8 00 00 00 00	 call	 ?InitDropTarget@CToolandRButtonBase_ListCtrl@@QAEXXZ ; CToolandRButtonBase_ListCtrl::InitDropTarget

; 95   : 	m_ToolRButton_Tab.InitDropTarget();

  00123	8d 8b c0 00 00
	00		 lea	 ecx, DWORD PTR [ebx+192]
  00129	e8 00 00 00 00	 call	 ?InitDropTarget@CToolandRButtonTabCtrl@@QAEXXZ ; CToolandRButtonTabCtrl::InitDropTarget

; 96   : 
; 97   : 	m_ToolRButton_Tab.SetTabFocus();

  0012e	8d 8b c0 00 00
	00		 lea	 ecx, DWORD PTR [ebx+192]
  00134	e8 00 00 00 00	 call	 ?SetTabFocus@CToolandRButtonTabCtrl@@QAEXXZ ; CToolandRButtonTabCtrl::SetTabFocus

; 106  : 	ML_SET_LANGUAGE_RES();

  00139	e8 00 00 00 00	 call	 ?AfxGetStaticModuleState@@YGPAVAFX_MODULE_STATE@@XZ ; AfxGetStaticModuleState
  0013e	8b bb 0c 04 00
	00		 mov	 edi, DWORD PTR [ebx+1036]
  00144	8b 70 08	 mov	 esi, DWORD PTR [eax+8]
; File D:\git\src\IBK\IBK_DRFN\ProjSrc\SrcChartEx\ChartAddIn\ChartDesignPropertyAddIn\Include_Chart\Dll_Load\IMetaTable.h

; 936  : 	DECLARE_FUNCTION2(	LoadResourceDLL,				HMODULE, AfxGetStaticModuleState()->m_hCurrentInstanceHandle, HWND, HMODULE);

  00147	a1 04 00 00 00	 mov	 eax, DWORD PTR ?g_iMetaTable@@3VIMetaTable@@A+4
  0014c	85 c0		 test	 eax, eax
  0014e	74 4b		 je	 SHORT $LN27@OnInitDial
  00150	b9 80 0d 00 00	 mov	 ecx, 3456		; 00000d80H
  00155	66 3b 0d 94 00
	00 00		 cmp	 cx, WORD PTR ?g_iMetaTable@@3VIMetaTable@@A+148
  0015c	74 29		 je	 SHORT $LN62@OnInitDial
  0015e	68 00 00 00 00	 push	 OFFSET ??_C@_0BA@ENJOCHIO@LoadResourceDLL@
  00163	50		 push	 eax
  00164	c7 05 90 00 00
	00 00 00 00 00	 mov	 DWORD PTR ?g_iMetaTable@@3VIMetaTable@@A+144, 0
  0016e	ff 15 00 00 00
	00		 call	 DWORD PTR __imp__GetProcAddress@8
  00174	b9 80 0d 00 00	 mov	 ecx, 3456		; 00000d80H
  00179	a3 90 00 00 00	 mov	 DWORD PTR ?g_iMetaTable@@3VIMetaTable@@A+144, eax
  0017e	66 89 0d 94 00
	00 00		 mov	 WORD PTR ?g_iMetaTable@@3VIMetaTable@@A+148, cx
  00185	eb 05		 jmp	 SHORT $LN26@OnInitDial
$LN62@OnInitDial:
  00187	a1 90 00 00 00	 mov	 eax, DWORD PTR ?g_iMetaTable@@3VIMetaTable@@A+144
$LN26@OnInitDial:
  0018c	85 c0		 test	 eax, eax
  0018e	74 0b		 je	 SHORT $LN27@OnInitDial
  00190	56		 push	 esi
  00191	57		 push	 edi
  00192	ff d0		 call	 eax
  00194	83 c4 08	 add	 esp, 8
  00197	8b f8		 mov	 edi, eax
  00199	eb 08		 jmp	 SHORT $LN24@OnInitDial
$LN27@OnInitDial:
  0019b	e8 00 00 00 00	 call	 ?AfxGetStaticModuleState@@YGPAVAFX_MODULE_STATE@@XZ ; AfxGetStaticModuleState
  001a0	8b 78 08	 mov	 edi, DWORD PTR [eax+8]
$LN24@OnInitDial:
; File C:\Program Files (x86)\Microsoft Visual Studio\2019\Community\VC\Tools\MSVC\14.29.30133\atlmfc\include\afxwin1.inl

; 25   : 		return afxCurrentResourceHandle; }

  001a3	e8 00 00 00 00	 call	 ?AfxGetModuleState@@YGPAVAFX_MODULE_STATE@@XZ ; AfxGetModuleState
; File D:\git\src\IBK\IBK_DRFN\ProjSrc\SrcChartEx\ChartAddIn\ChartDesignPropertyAddIn\Include_Chart\Dll_Load\IMetaTable.h

; 1032 : 		m_hInstance = AfxGetResourceHandle();

  001a8	8b 70 0c	 mov	 esi, DWORD PTR [eax+12]
  001ab	89 75 c8	 mov	 DWORD PTR ___mlrs__$4[ebp], esi
; File C:\Program Files (x86)\Microsoft Visual Studio\2019\Community\VC\Tools\MSVC\14.29.30133\atlmfc\include\afxwin1.inl

; 27   : 	{ ASSERT(hInstResource != NULL); afxCurrentResourceHandle = hInstResource; }

  001ae	e8 00 00 00 00	 call	 ?AfxGetModuleState@@YGPAVAFX_MODULE_STATE@@XZ ; AfxGetModuleState
  001b3	89 78 0c	 mov	 DWORD PTR [eax+12], edi
; File D:\git\src\IBK\IBK_DRFN\ProjSrc\SrcChartEx\ChartAddIn\ChartDesignPropertyAddIn\ChartDesignPropertyAddIn\ToolandRButtonPage.cpp

; 107  : 	m_toolTip.Create( this );

  001b6	53		 push	 ebx
  001b7	8d 8b 28 03 00
	00		 lea	 ecx, DWORD PTR [ebx+808]
  001bd	c7 45 fc 00 00
	00 00		 mov	 DWORD PTR __$EHRec$[ebp+8], 0
  001c4	e8 00 00 00 00	 call	 ?Create@CDlgToolTip@@QAEXPAVCWnd@@@Z ; CDlgToolTip::Create

; 108  : 	CDWordArray dwaInfo;

  001c9	8d 4d cc	 lea	 ecx, DWORD PTR _dwaInfo$5[ebp]
  001cc	e8 00 00 00 00	 call	 ??0CDWordArray@@QAE@XZ	; CDWordArray::CDWordArray
; File C:\Program Files (x86)\Microsoft Visual Studio\2019\Community\VC\Tools\MSVC\14.29.30133\atlmfc\include\afxcoll.inl

; 114  : 	{ SetSize(0); }

  001d1	6a ff		 push	 -1
  001d3	6a 00		 push	 0
  001d5	8d 4d cc	 lea	 ecx, DWORD PTR _dwaInfo$5[ebp]
; File D:\git\src\IBK\IBK_DRFN\ProjSrc\SrcChartEx\ChartAddIn\ChartDesignPropertyAddIn\ChartDesignPropertyAddIn\ToolandRButtonPage.cpp

; 108  : 	CDWordArray dwaInfo;

  001d8	c6 45 fc 01	 mov	 BYTE PTR __$EHRec$[ebp+8], 1
; File C:\Program Files (x86)\Microsoft Visual Studio\2019\Community\VC\Tools\MSVC\14.29.30133\atlmfc\include\afxcoll.inl

; 114  : 	{ SetSize(0); }

  001dc	e8 00 00 00 00	 call	 ?SetSize@CDWordArray@@QAEXHH@Z ; CDWordArray::SetSize

; 137  : 		SetAtGrow(nIndex, newElement);

  001e1	68 45 04 00 00	 push	 1093			; 00000445H
  001e6	ff 75 d4	 push	 DWORD PTR _dwaInfo$5[ebp+8]
  001e9	8d 4d cc	 lea	 ecx, DWORD PTR _dwaInfo$5[ebp]
  001ec	e8 00 00 00 00	 call	 ?SetAtGrow@CDWordArray@@QAEXHK@Z ; CDWordArray::SetAtGrow
  001f1	68 46 04 00 00	 push	 1094			; 00000446H
  001f6	ff 75 d4	 push	 DWORD PTR _dwaInfo$5[ebp+8]
  001f9	8d 4d cc	 lea	 ecx, DWORD PTR _dwaInfo$5[ebp]
  001fc	e8 00 00 00 00	 call	 ?SetAtGrow@CDWordArray@@QAEXHK@Z ; CDWordArray::SetAtGrow
  00201	68 47 04 00 00	 push	 1095			; 00000447H
  00206	ff 75 d4	 push	 DWORD PTR _dwaInfo$5[ebp+8]
  00209	8d 4d cc	 lea	 ecx, DWORD PTR _dwaInfo$5[ebp]
  0020c	e8 00 00 00 00	 call	 ?SetAtGrow@CDWordArray@@QAEXHK@Z ; CDWordArray::SetAtGrow
  00211	68 48 04 00 00	 push	 1096			; 00000448H
  00216	ff 75 d4	 push	 DWORD PTR _dwaInfo$5[ebp+8]
  00219	8d 4d cc	 lea	 ecx, DWORD PTR _dwaInfo$5[ebp]
  0021c	e8 00 00 00 00	 call	 ?SetAtGrow@CDWordArray@@QAEXHK@Z ; CDWordArray::SetAtGrow
  00221	68 49 04 00 00	 push	 1097			; 00000449H
  00226	ff 75 d4	 push	 DWORD PTR _dwaInfo$5[ebp+8]
  00229	8d 4d cc	 lea	 ecx, DWORD PTR _dwaInfo$5[ebp]
  0022c	e8 00 00 00 00	 call	 ?SetAtGrow@CDWordArray@@QAEXHK@Z ; CDWordArray::SetAtGrow
  00231	68 4b 04 00 00	 push	 1099			; 0000044bH
  00236	ff 75 d4	 push	 DWORD PTR _dwaInfo$5[ebp+8]
  00239	8d 4d cc	 lea	 ecx, DWORD PTR _dwaInfo$5[ebp]
  0023c	e8 00 00 00 00	 call	 ?SetAtGrow@CDWordArray@@QAEXHK@Z ; CDWordArray::SetAtGrow
  00241	68 4c 04 00 00	 push	 1100			; 0000044cH
  00246	ff 75 d4	 push	 DWORD PTR _dwaInfo$5[ebp+8]
  00249	8d 4d cc	 lea	 ecx, DWORD PTR _dwaInfo$5[ebp]
  0024c	e8 00 00 00 00	 call	 ?SetAtGrow@CDWordArray@@QAEXHK@Z ; CDWordArray::SetAtGrow
  00251	68 4e 04 00 00	 push	 1102			; 0000044eH
  00256	ff 75 d4	 push	 DWORD PTR _dwaInfo$5[ebp+8]
  00259	8d 4d cc	 lea	 ecx, DWORD PTR _dwaInfo$5[ebp]
  0025c	e8 00 00 00 00	 call	 ?SetAtGrow@CDWordArray@@QAEXHK@Z ; CDWordArray::SetAtGrow
; File D:\git\src\IBK\IBK_DRFN\ProjSrc\SrcChartEx\ChartAddIn\ChartDesignPropertyAddIn\ChartDesignPropertyAddIn\ToolandRButtonPage.cpp

; 119  : 	m_toolTip.AddControlInfo( IDC_TOOL_LIST, dwaInfo);

  00261	6a 00		 push	 0
  00263	68 ff ff dc 00	 push	 14483455		; 00dcffffH
  00268	8d 45 cc	 lea	 eax, DWORD PTR _dwaInfo$5[ebp]
  0026b	50		 push	 eax
  0026c	68 bb 1b 00 00	 push	 7099			; 00001bbbH
  00271	8d 8b 28 03 00
	00		 lea	 ecx, DWORD PTR [ebx+808]
  00277	e8 00 00 00 00	 call	 ?AddControlInfo@CDlgToolTip@@QAEHIAAVCDWordArray@@KK@Z ; CDlgToolTip::AddControlInfo

; 120  : }

  0027c	8d 4d cc	 lea	 ecx, DWORD PTR _dwaInfo$5[ebp]
  0027f	e8 00 00 00 00	 call	 ??1CDWordArray@@UAE@XZ	; CDWordArray::~CDWordArray
; File D:\git\src\IBK\IBK_DRFN\ProjSrc\SrcChartEx\ChartAddIn\ChartDesignPropertyAddIn\Include_Chart\Dll_Load\IMetaTable.h

; 1036 : 	{

  00284	c7 45 fc 02 00
	00 00		 mov	 DWORD PTR __$EHRec$[ebp+8], 2
; File C:\Program Files (x86)\Microsoft Visual Studio\2019\Community\VC\Tools\MSVC\14.29.30133\atlmfc\include\afxwin1.inl

; 27   : 	{ ASSERT(hInstResource != NULL); afxCurrentResourceHandle = hInstResource; }

  0028b	e8 00 00 00 00	 call	 ?AfxGetModuleState@@YGPAVAFX_MODULE_STATE@@XZ ; AfxGetModuleState
  00290	89 70 0c	 mov	 DWORD PTR [eax+12], esi
; File D:\git\src\IBK\IBK_DRFN\ProjSrc\SrcChartEx\ChartAddIn\ChartDesignPropertyAddIn\ChartDesignPropertyAddIn\ToolandRButtonPage.cpp

; 100  : 	return TRUE;  // return TRUE unless you set the focus to a control

  00293	b8 01 00 00 00	 mov	 eax, 1

; 101  : 	              // EXCEPTION: OCX Property Pages should return FALSE
; 102  : }

  00298	8b 4d f4	 mov	 ecx, DWORD PTR __$EHRec$[ebp]
  0029b	64 89 0d 00 00
	00 00		 mov	 DWORD PTR fs:0, ecx
  002a2	59		 pop	 ecx
  002a3	5f		 pop	 edi
  002a4	5e		 pop	 esi
  002a5	5b		 pop	 ebx
  002a6	8b 4d f0	 mov	 ecx, DWORD PTR __$ArrayPad$[ebp]
  002a9	33 cd		 xor	 ecx, ebp
  002ab	e8 00 00 00 00	 call	 @__security_check_cookie@4
  002b0	8b e5		 mov	 esp, ebp
  002b2	5d		 pop	 ebp
  002b3	c3		 ret	 0
_TEXT	ENDS
;	COMDAT text$x
text$x	SEGMENT
__unwindfunclet$?OnInitDialog@CToolandRButtonPage@@MAEHXZ$0:
  00000	8d 4d c8	 lea	 ecx, DWORD PTR ___mlrs__$4[ebp]
  00003	e9 00 00 00 00	 jmp	 ??1CMultiLanguageResourceSetter@@QAE@XZ ; CMultiLanguageResourceSetter::~CMultiLanguageResourceSetter
__unwindfunclet$?OnInitDialog@CToolandRButtonPage@@MAEHXZ$1:
  00008	8d 4d cc	 lea	 ecx, DWORD PTR _dwaInfo$5[ebp]
  0000b	e9 00 00 00 00	 jmp	 ??1CDWordArray@@UAE@XZ	; CDWordArray::~CDWordArray
  00010	cc		 int	 3
  00011	cc		 int	 3
  00012	cc		 int	 3
  00013	cc		 int	 3
  00014	cc		 int	 3
__ehhandler$?OnInitDialog@CToolandRButtonPage@@MAEHXZ:
  00015	90		 npad	 1
  00016	90		 npad	 1
  00017	8b 54 24 08	 mov	 edx, DWORD PTR [esp+8]
  0001b	8d 42 0c	 lea	 eax, DWORD PTR [edx+12]
  0001e	8b 8a 5c ff ff
	ff		 mov	 ecx, DWORD PTR [edx-164]
  00024	33 c8		 xor	 ecx, eax
  00026	e8 00 00 00 00	 call	 @__security_check_cookie@4
  0002b	8b 4a fc	 mov	 ecx, DWORD PTR [edx-4]
  0002e	33 c8		 xor	 ecx, eax
  00030	e8 00 00 00 00	 call	 @__security_check_cookie@4
  00035	b8 00 00 00 00	 mov	 eax, OFFSET __ehfuncinfo$?OnInitDialog@CToolandRButtonPage@@MAEHXZ
  0003a	e9 00 00 00 00	 jmp	 ___CxxFrameHandler3
text$x	ENDS
?OnInitDialog@CToolandRButtonPage@@MAEHXZ ENDP		; CToolandRButtonPage::OnInitDialog
; Function compile flags: /Ogtp
; File D:\git\src\IBK\IBK_DRFN\ProjSrc\SrcChartEx\ChartAddIn\ChartDesignPropertyAddIn\ChartDesignPropertyAddIn\ToolandRButtonPage.cpp
;	COMDAT ?DoDataExchange@CToolandRButtonPage@@MAEXPAVCDataExchange@@@Z
_TEXT	SEGMENT
_pDX$ = 8						; size = 4
?DoDataExchange@CToolandRButtonPage@@MAEXPAVCDataExchange@@@Z PROC ; CToolandRButtonPage::DoDataExchange, COMDAT
; _this$ = ecx

; 43   : {

  00000	55		 push	 ebp
  00001	8b ec		 mov	 ebp, esp
  00003	57		 push	 edi
  00004	8b f9		 mov	 edi, ecx

; 44   : 	CPropertyPage::DoDataExchange(pDX);
; 45   : 	//{{AFX_DATA_MAP(CToolandRButtonPage)
; 46   : 	DDX_Control(pDX, IDC_TAB1, m_ToolRButton_Tab);

  00006	8d 87 c0 00 00
	00		 lea	 eax, DWORD PTR [edi+192]
  0000c	50		 push	 eax
  0000d	68 bc 1b 00 00	 push	 7100			; 00001bbcH
  00012	ff 75 08	 push	 DWORD PTR _pDX$[ebp]
  00015	e8 00 00 00 00	 call	 ?DDX_Control@@YGXPAVCDataExchange@@HAAVCWnd@@@Z ; DDX_Control

; 47   : 	DDX_Control(pDX, IDC_TOOL_LIST, m_ToolRButtonItem_Ctrl);

  0001a	8d 87 38 02 00
	00		 lea	 eax, DWORD PTR [edi+568]
  00020	50		 push	 eax
  00021	68 bb 1b 00 00	 push	 7099			; 00001bbbH
  00026	ff 75 08	 push	 DWORD PTR _pDX$[ebp]
  00029	e8 00 00 00 00	 call	 ?DDX_Control@@YGXPAVCDataExchange@@HAAVCWnd@@@Z ; DDX_Control
  0002e	5f		 pop	 edi

; 48   : 	//}}AFX_DATA_MAP
; 49   : }

  0002f	5d		 pop	 ebp
  00030	c2 04 00	 ret	 4
?DoDataExchange@CToolandRButtonPage@@MAEXPAVCDataExchange@@@Z ENDP ; CToolandRButtonPage::DoDataExchange
_TEXT	ENDS
; Function compile flags: /Ogtp
; File D:\git\src\IBK\IBK_DRFN\ProjSrc\SrcChartEx\ChartAddIn\ChartDesignPropertyAddIn\ChartDesignPropertyAddIn\ToolandRButtonPage.cpp
; File C:\Program Files (x86)\Microsoft Visual Studio\2019\Community\VC\Tools\MSVC\14.29.30133\atlmfc\include\afxwin2.inl
; File D:\git\src\IBK\IBK_DRFN\ProjSrc\SrcChartEx\ChartAddIn\ChartDesignPropertyAddIn\ChartDesignPropertyAddIn\ToolandRButtonPage.cpp
; File C:\Program Files (x86)\Microsoft Visual Studio\2019\Community\VC\Tools\MSVC\14.29.30133\atlmfc\include\afxwin2.inl
; File D:\git\src\IBK\IBK_DRFN\ProjSrc\SrcChartEx\ChartAddIn\ChartDesignPropertyAddIn\ChartDesignPropertyAddIn\ToolandRButtonPage.cpp
; File C:\Program Files (x86)\Microsoft Visual Studio\2019\Community\VC\Tools\MSVC\14.29.30133\atlmfc\include\atltypes.h
; File D:\git\src\IBK\IBK_DRFN\ProjSrc\SrcChartEx\ChartAddIn\ChartDesignPropertyAddIn\ChartDesignPropertyAddIn\ToolandRButtonPage.cpp
; File C:\Program Files (x86)\Microsoft Visual Studio\2019\Community\VC\Tools\MSVC\14.29.30133\atlmfc\include\atltypes.h
; File D:\git\src\IBK\IBK_DRFN\ProjSrc\SrcChartEx\ChartAddIn\ChartDesignPropertyAddIn\ChartDesignPropertyAddIn\ToolandRButtonPage.cpp
; File C:\Program Files (x86)\Microsoft Visual Studio\2019\Community\VC\Tools\MSVC\14.29.30133\atlmfc\include\atltypes.h
; File D:\git\src\IBK\IBK_DRFN\ProjSrc\SrcChartEx\ChartAddIn\ChartDesignPropertyAddIn\ChartDesignPropertyAddIn\ToolandRButtonPage.cpp
; File C:\Program Files (x86)\Microsoft Visual Studio\2019\Community\VC\Tools\MSVC\14.29.30133\atlmfc\include\atltypes.h
; File D:\git\src\IBK\IBK_DRFN\ProjSrc\SrcChartEx\ChartAddIn\ChartDesignPropertyAddIn\ChartDesignPropertyAddIn\ToolandRButtonPage.cpp
;	COMDAT ?PreTranslateMessage@CToolandRButtonPage@@UAEHPAUtagMSG@@@Z
_TEXT	SEGMENT
$T1 = -16						; size = 8
$T2 = -16						; size = 8
_pt$ = -8						; size = 8
_pMsg$ = 8						; size = 4
?PreTranslateMessage@CToolandRButtonPage@@UAEHPAUtagMSG@@@Z PROC ; CToolandRButtonPage::PreTranslateMessage, COMDAT
; _this$ = ecx

; 123  : {

  00000	55		 push	 ebp
  00001	8b ec		 mov	 ebp, esp
  00003	83 ec 10	 sub	 esp, 16			; 00000010H
  00006	53		 push	 ebx
  00007	56		 push	 esi

; 127  : 	POINT pt = pMsg->pt;	

  00008	8b 75 08	 mov	 esi, DWORD PTR _pMsg$[ebp]
  0000b	32 db		 xor	 bl, bl
  0000d	57		 push	 edi
  0000e	8b f9		 mov	 edi, ecx
  00010	8b 46 14	 mov	 eax, DWORD PTR [esi+20]
  00013	8b 56 18	 mov	 edx, DWORD PTR [esi+24]
  00016	89 45 f8	 mov	 DWORD PTR _pt$[ebp], eax
; File C:\Program Files (x86)\Microsoft Visual Studio\2019\Community\VC\Tools\MSVC\14.29.30133\atlmfc\include\afxwin2.inl

; 94   : 	{ ASSERT(::IsWindow(m_hWnd)); ::ScreenToClient(m_hWnd, lpPoint); }

  00019	8d 45 f8	 lea	 eax, DWORD PTR _pt$[ebp]
  0001c	50		 push	 eax
  0001d	ff 77 20	 push	 DWORD PTR [edi+32]
; File D:\git\src\IBK\IBK_DRFN\ProjSrc\SrcChartEx\ChartAddIn\ChartDesignPropertyAddIn\ChartDesignPropertyAddIn\ToolandRButtonPage.cpp

; 127  : 	POINT pt = pMsg->pt;	

  00020	89 55 fc	 mov	 DWORD PTR _pt$[ebp+4], edx
; File C:\Program Files (x86)\Microsoft Visual Studio\2019\Community\VC\Tools\MSVC\14.29.30133\atlmfc\include\afxwin2.inl

; 94   : 	{ ASSERT(::IsWindow(m_hWnd)); ::ScreenToClient(m_hWnd, lpPoint); }

  00023	ff 15 00 00 00
	00		 call	 DWORD PTR __imp__ScreenToClient@8
; File D:\git\src\IBK\IBK_DRFN\ProjSrc\SrcChartEx\ChartAddIn\ChartDesignPropertyAddIn\ChartDesignPropertyAddIn\ToolandRButtonPage.cpp

; 130  : 	if( pMsg->message == WM_RBUTTONDOWN )	{

  00029	8b 46 04	 mov	 eax, DWORD PTR [esi+4]
  0002c	8d 8f 28 03 00
	00		 lea	 ecx, DWORD PTR [edi+808]
  00032	3d 04 02 00 00	 cmp	 eax, 516		; 00000204H
  00037	75 26		 jne	 SHORT $LN13@PreTransla
; File C:\Program Files (x86)\Microsoft Visual Studio\2019\Community\VC\Tools\MSVC\14.29.30133\atlmfc\include\atltypes.h

; 414  : 	*(POINT*)this = initPt;

  00039	8b 45 f8	 mov	 eax, DWORD PTR _pt$[ebp]
  0003c	8b 4d fc	 mov	 ecx, DWORD PTR _pt$[ebp+4]
  0003f	89 45 f0	 mov	 DWORD PTR $T2[ebp], eax
; File D:\git\src\IBK\IBK_DRFN\ProjSrc\SrcChartEx\ChartAddIn\ChartDesignPropertyAddIn\ChartDesignPropertyAddIn\ToolandRButtonPage.cpp

; 131  : 		m_toolTip.ShowToolTip( (CPoint)pt );

  00042	8d 45 f0	 lea	 eax, DWORD PTR $T2[ebp]
; File C:\Program Files (x86)\Microsoft Visual Studio\2019\Community\VC\Tools\MSVC\14.29.30133\atlmfc\include\atltypes.h

; 414  : 	*(POINT*)this = initPt;

  00045	89 4d f4	 mov	 DWORD PTR $T2[ebp+4], ecx
; File D:\git\src\IBK\IBK_DRFN\ProjSrc\SrcChartEx\ChartAddIn\ChartDesignPropertyAddIn\ChartDesignPropertyAddIn\ToolandRButtonPage.cpp

; 131  : 		m_toolTip.ShowToolTip( (CPoint)pt );

  00048	8d 8f 28 03 00
	00		 lea	 ecx, DWORD PTR [edi+808]
  0004e	50		 push	 eax
  0004f	e8 00 00 00 00	 call	 ?ShowToolTip@CDlgToolTip@@QAEXAAVCPoint@@@Z ; CDlgToolTip::ShowToolTip

; 132  : 		bRButton = true;

  00054	8b 46 04	 mov	 eax, DWORD PTR [esi+4]
  00057	8d 8f 28 03 00
	00		 lea	 ecx, DWORD PTR [edi+808]
  0005d	b3 01		 mov	 bl, 1
$LN13@PreTransla:

; 133  : 	}
; 134  : 	if(pMsg->message == WM_MOUSEMOVE){

  0005f	3d 00 02 00 00	 cmp	 eax, 512		; 00000200H
  00064	75 15		 jne	 SHORT $LN3@PreTransla
; File C:\Program Files (x86)\Microsoft Visual Studio\2019\Community\VC\Tools\MSVC\14.29.30133\atlmfc\include\atltypes.h

; 414  : 	*(POINT*)this = initPt;

  00066	8b 45 f8	 mov	 eax, DWORD PTR _pt$[ebp]
  00069	8b 55 fc	 mov	 edx, DWORD PTR _pt$[ebp+4]
  0006c	89 45 f0	 mov	 DWORD PTR $T1[ebp], eax
; File D:\git\src\IBK\IBK_DRFN\ProjSrc\SrcChartEx\ChartAddIn\ChartDesignPropertyAddIn\ChartDesignPropertyAddIn\ToolandRButtonPage.cpp

; 135  : 		m_toolTip.HideToolTip( (CPoint)pt );

  0006f	8d 45 f0	 lea	 eax, DWORD PTR $T1[ebp]
  00072	50		 push	 eax
; File C:\Program Files (x86)\Microsoft Visual Studio\2019\Community\VC\Tools\MSVC\14.29.30133\atlmfc\include\atltypes.h

; 414  : 	*(POINT*)this = initPt;

  00073	89 55 f4	 mov	 DWORD PTR $T1[ebp+4], edx
; File D:\git\src\IBK\IBK_DRFN\ProjSrc\SrcChartEx\ChartAddIn\ChartDesignPropertyAddIn\ChartDesignPropertyAddIn\ToolandRButtonPage.cpp

; 135  : 		m_toolTip.HideToolTip( (CPoint)pt );

  00076	e8 00 00 00 00	 call	 ?HideToolTip@CDlgToolTip@@QAEXAAVCPoint@@@Z ; CDlgToolTip::HideToolTip
$LN3@PreTransla:

; 136  : 	}
; 137  : 
; 138  : 	if(bRButton)

  0007b	84 db		 test	 bl, bl
  0007d	74 0e		 je	 SHORT $LN4@PreTransla

; 142  : }

  0007f	5f		 pop	 edi
  00080	5e		 pop	 esi
  00081	b8 01 00 00 00	 mov	 eax, 1
  00086	5b		 pop	 ebx
  00087	8b e5		 mov	 esp, ebp
  00089	5d		 pop	 ebp
  0008a	c2 04 00	 ret	 4
$LN4@PreTransla:

; 139  : 		return TRUE;
; 140  : 	else
; 141  : 		return CPropertyPage::PreTranslateMessage(pMsg);

  0008d	56		 push	 esi
  0008e	8b cf		 mov	 ecx, edi
  00090	e8 00 00 00 00	 call	 ?PreTranslateMessage@CPropertyPage@@MAEHPAUtagMSG@@@Z ; CPropertyPage::PreTranslateMessage
  00095	5f		 pop	 edi

; 142  : }

  00096	5e		 pop	 esi
  00097	5b		 pop	 ebx
  00098	8b e5		 mov	 esp, ebp
  0009a	5d		 pop	 ebp
  0009b	c2 04 00	 ret	 4
?PreTranslateMessage@CToolandRButtonPage@@UAEHPAUtagMSG@@@Z ENDP ; CToolandRButtonPage::PreTranslateMessage
_TEXT	ENDS
; Function compile flags: /Ogtp
; File D:\git\src\IBK\IBK_DRFN\ProjSrc\SrcChartEx\ChartAddIn\ChartDesignPropertyAddIn\ChartDesignPropertyAddIn\ToolandRButtonPage.cpp
;	COMDAT ?OnApply@CToolandRButtonPage@@UAEHXZ
_TEXT	SEGMENT
_strToolBarOption$ = -20				; size = 4
_strData$ = -16						; size = 4
__$EHRec$ = -12						; size = 12
?OnApply@CToolandRButtonPage@@UAEHXZ PROC		; CToolandRButtonPage::OnApply, COMDAT
; _this$ = ecx

; 165  : {

  00000	55		 push	 ebp
  00001	8b ec		 mov	 ebp, esp
  00003	6a ff		 push	 -1
  00005	68 00 00 00 00	 push	 __ehhandler$?OnApply@CToolandRButtonPage@@UAEHXZ
  0000a	64 a1 00 00 00
	00		 mov	 eax, DWORD PTR fs:0
  00010	50		 push	 eax
  00011	83 ec 08	 sub	 esp, 8
  00014	53		 push	 ebx
  00015	56		 push	 esi
  00016	57		 push	 edi
  00017	a1 00 00 00 00	 mov	 eax, DWORD PTR ___security_cookie
  0001c	33 c5		 xor	 eax, ebp
  0001e	50		 push	 eax
  0001f	8d 45 f4	 lea	 eax, DWORD PTR __$EHRec$[ebp]
  00022	64 a3 00 00 00
	00		 mov	 DWORD PTR fs:0, eax
  00028	8b d9		 mov	 ebx, ecx

; 166  : 	int		nNumericalInquiryOption	= m_ToolRButton_Tab.GetNumericalInquiryOption();

  0002a	8d 8b c0 00 00
	00		 lea	 ecx, DWORD PTR [ebx+192]
  00030	e8 00 00 00 00	 call	 ?GetNumericalInquiryOption@CToolandRButtonTabCtrl@@QAEHXZ ; CToolandRButtonTabCtrl::GetNumericalInquiryOption
  00035	8b f8		 mov	 edi, eax

; 167  : 	CString	strToolBarOption		= m_ToolRButton_Tab.GetListItemInfo();

  00037	8d 8b c0 00 00
	00		 lea	 ecx, DWORD PTR [ebx+192]
  0003d	8d 45 ec	 lea	 eax, DWORD PTR _strToolBarOption$[ebp]
  00040	50		 push	 eax
  00041	e8 00 00 00 00	 call	 ?GetListItemInfo@CToolandRButtonTabCtrl@@QAE?AV?$CStringT@DV?$StrTraitMFC_DLL@DV?$ChTraitsCRT@D@ATL@@@@@ATL@@XZ ; CToolandRButtonTabCtrl::GetListItemInfo

; 168  : 
; 169  : 	// (2006/7/5 - Seung-Won, Bae) Use IPropertyMap
; 170  : 	CHART_ADDTOSTRLIST_START( TRUE)

  00046	8d 4d f0	 lea	 ecx, DWORD PTR _strData$[ebp]
  00049	c7 45 fc 00 00
	00 00		 mov	 DWORD PTR __$EHRec$[ebp+8], 0
  00050	ff 15 00 00 00
	00		 call	 DWORD PTR __imp_??0?$CStringT@DV?$StrTraitMFC_DLL@DV?$ChTraitsCRT@D@ATL@@@@@ATL@@QAE@XZ

; 171  : 		CHART_ADDTOSTRLIST_STRING(	m_pIPropertyMap, g_anPropertyShortKey[	STRTOOLBAROPTION		], strToolBarOption,		_DPV_STRTOOLBAROPTION		);

  00056	8b 8b 08 04 00
	00		 mov	 ecx, DWORD PTR [ebx+1032]
  0005c	ff 75 ec	 push	 DWORD PTR _strToolBarOption$[ebp]
  0005f	c6 45 fc 01	 mov	 BYTE PTR __$EHRec$[ebp+8], 1
  00063	ff 35 a0 00 00
	00		 push	 DWORD PTR ?g_anPropertyShortKey@@3PAPADA+160
  00069	8b 01		 mov	 eax, DWORD PTR [ecx]
  0006b	ff 50 14	 call	 DWORD PTR [eax+20]

; 172  : 		CHART_ADDTOSTRLIST_INT(		m_pIPropertyMap, g_anPropertyShortKey[	NUMERICALINQUIRYOPTION	], nNumericalInquiryOption,	_DPV_NUMERICALINQUIRYOPTION	);

  0006e	57		 push	 edi
  0006f	8d 45 f0	 lea	 eax, DWORD PTR _strData$[ebp]
  00072	68 00 00 00 00	 push	 OFFSET ??_C@_02DPKJAMEF@?$CFd@
  00077	50		 push	 eax
  00078	ff 15 00 00 00
	00		 call	 DWORD PTR __imp_?Format@?$CStringT@DV?$StrTraitMFC_DLL@DV?$ChTraitsCRT@D@ATL@@@@@ATL@@QAAXPBDZZ
  0007e	8b 8b 08 04 00
	00		 mov	 ecx, DWORD PTR [ebx+1032]
  00084	83 c4 0c	 add	 esp, 12			; 0000000cH
  00087	ff 75 f0	 push	 DWORD PTR _strData$[ebp]
  0008a	8b 01		 mov	 eax, DWORD PTR [ecx]
  0008c	ff 35 04 01 00
	00		 push	 DWORD PTR ?g_anPropertyShortKey@@3PAPADA+260
  00092	ff 50 14	 call	 DWORD PTR [eax+20]

; 173  : 	CHART_ADDTOSTRLIST_END
; 174  : 
; 175  : 	return CPropertyPage::OnApply();

  00095	8b cb		 mov	 ecx, ebx
  00097	e8 00 00 00 00	 call	 ?OnApply@CPropertyPage@@UAEHXZ ; CPropertyPage::OnApply
  0009c	8d 4d f0	 lea	 ecx, DWORD PTR _strData$[ebp]
  0009f	8b f0		 mov	 esi, eax
  000a1	ff 15 00 00 00
	00		 call	 DWORD PTR __imp_??1?$CStringT@DV?$StrTraitMFC_DLL@DV?$ChTraitsCRT@D@ATL@@@@@ATL@@QAE@XZ
  000a7	8d 4d ec	 lea	 ecx, DWORD PTR _strToolBarOption$[ebp]
  000aa	ff 15 00 00 00
	00		 call	 DWORD PTR __imp_??1?$CStringT@DV?$StrTraitMFC_DLL@DV?$ChTraitsCRT@D@ATL@@@@@ATL@@QAE@XZ
  000b0	8b c6		 mov	 eax, esi

; 176  : }

  000b2	8b 4d f4	 mov	 ecx, DWORD PTR __$EHRec$[ebp]
  000b5	64 89 0d 00 00
	00 00		 mov	 DWORD PTR fs:0, ecx
  000bc	59		 pop	 ecx
  000bd	5f		 pop	 edi
  000be	5e		 pop	 esi
  000bf	5b		 pop	 ebx
  000c0	8b e5		 mov	 esp, ebp
  000c2	5d		 pop	 ebp
  000c3	c3		 ret	 0
_TEXT	ENDS
;	COMDAT text$x
text$x	SEGMENT
__unwindfunclet$?OnApply@CToolandRButtonPage@@UAEHXZ$0:
  00000	8d 4d ec	 lea	 ecx, DWORD PTR _strToolBarOption$[ebp]
  00003	ff 25 00 00 00
	00		 jmp	 DWORD PTR __imp_??1?$CStringT@DV?$StrTraitMFC_DLL@DV?$ChTraitsCRT@D@ATL@@@@@ATL@@QAE@XZ
__unwindfunclet$?OnApply@CToolandRButtonPage@@UAEHXZ$1:
  00009	8d 4d f0	 lea	 ecx, DWORD PTR _strData$[ebp]
  0000c	ff 25 00 00 00
	00		 jmp	 DWORD PTR __imp_??1?$CStringT@DV?$StrTraitMFC_DLL@DV?$ChTraitsCRT@D@ATL@@@@@ATL@@QAE@XZ
  00012	cc		 int	 3
  00013	cc		 int	 3
  00014	cc		 int	 3
  00015	cc		 int	 3
  00016	cc		 int	 3
__ehhandler$?OnApply@CToolandRButtonPage@@UAEHXZ:
  00017	90		 npad	 1
  00018	90		 npad	 1
  00019	8b 54 24 08	 mov	 edx, DWORD PTR [esp+8]
  0001d	8d 42 0c	 lea	 eax, DWORD PTR [edx+12]
  00020	8b 4a e8	 mov	 ecx, DWORD PTR [edx-24]
  00023	33 c8		 xor	 ecx, eax
  00025	e8 00 00 00 00	 call	 @__security_check_cookie@4
  0002a	b8 00 00 00 00	 mov	 eax, OFFSET __ehfuncinfo$?OnApply@CToolandRButtonPage@@UAEHXZ
  0002f	e9 00 00 00 00	 jmp	 ___CxxFrameHandler3
text$x	ENDS
?OnApply@CToolandRButtonPage@@UAEHXZ ENDP		; CToolandRButtonPage::OnApply
; Function compile flags: /Ogtp
; File D:\git\src\IBK\IBK_DRFN\ProjSrc\SrcChartEx\ChartAddIn\ChartDesignPropertyAddIn\ChartDesignPropertyAddIn\ToolandRButtonPage.cpp
;	COMDAT ?SetProperty@CToolandRButtonPage@@QAEXPAUIPropertyMap@@@Z
_TEXT	SEGMENT
_strToolBarOption$ = -20				; size = 4
_szTemp$ = -16						; size = 4
__$EHRec$ = -12						; size = 12
_p_pIPropertyMap$ = 8					; size = 4
?SetProperty@CToolandRButtonPage@@QAEXPAUIPropertyMap@@@Z PROC ; CToolandRButtonPage::SetProperty, COMDAT
; _this$ = ecx

; 146  : {

  00000	55		 push	 ebp
  00001	8b ec		 mov	 ebp, esp
  00003	6a ff		 push	 -1
  00005	68 00 00 00 00	 push	 __ehhandler$?SetProperty@CToolandRButtonPage@@QAEXPAUIPropertyMap@@@Z
  0000a	64 a1 00 00 00
	00		 mov	 eax, DWORD PTR fs:0
  00010	50		 push	 eax
  00011	83 ec 08	 sub	 esp, 8
  00014	53		 push	 ebx
  00015	56		 push	 esi
  00016	57		 push	 edi
  00017	a1 00 00 00 00	 mov	 eax, DWORD PTR ___security_cookie
  0001c	33 c5		 xor	 eax, ebp
  0001e	50		 push	 eax
  0001f	8d 45 f4	 lea	 eax, DWORD PTR __$EHRec$[ebp]
  00022	64 a3 00 00 00
	00		 mov	 DWORD PTR fs:0, eax
  00028	8b d9		 mov	 ebx, ecx

; 147  : 	int nNumericalInquiryOption;
; 148  : 	CString strToolBarOption;

  0002a	8d 4d ec	 lea	 ecx, DWORD PTR _strToolBarOption$[ebp]
  0002d	ff 15 00 00 00
	00		 call	 DWORD PTR __imp_??0?$CStringT@DV?$StrTraitMFC_DLL@DV?$ChTraitsCRT@D@ATL@@@@@ATL@@QAE@XZ

; 149  : 
; 150  : 	// (2006/7/5 - Seung-Won, Bae) Use IPropertyMap
; 151  : 	CHART_CONVERT_BEGIN()
; 152  : 		CHART_CONVERT_STRING(	p_pIPropertyMap, g_anPropertyShortKey[	STRTOOLBAROPTION		], strToolBarOption,		_DPV_STRTOOLBAROPTION		);

  00033	8b 75 08	 mov	 esi, DWORD PTR _p_pIPropertyMap$[ebp]
  00036	8d 4d f0	 lea	 ecx, DWORD PTR _szTemp$[ebp]
  00039	51		 push	 ecx
  0003a	ff 35 a0 00 00
	00		 push	 DWORD PTR ?g_anPropertyShortKey@@3PAPADA+160
  00040	8b ce		 mov	 ecx, esi
  00042	c7 45 fc 00 00
	00 00		 mov	 DWORD PTR __$EHRec$[ebp+8], 0
  00049	8b 06		 mov	 eax, DWORD PTR [esi]
  0004b	c7 45 f0 00 00
	00 00		 mov	 DWORD PTR _szTemp$[ebp], 0
  00052	ff 50 0c	 call	 DWORD PTR [eax+12]
  00055	8d 4d ec	 lea	 ecx, DWORD PTR _strToolBarOption$[ebp]
  00058	83 f8 01	 cmp	 eax, 1
  0005b	75 05		 jne	 SHORT $LN2@SetPropert
  0005d	ff 75 f0	 push	 DWORD PTR _szTemp$[ebp]
  00060	eb 05		 jmp	 SHORT $LN9@SetPropert
$LN2@SetPropert:
  00062	68 00 00 00 00	 push	 OFFSET ??_C@_00CNPNBAHC@@
$LN9@SetPropert:

; 153  : 		CHART_CONVERT_INT(		p_pIPropertyMap, g_anPropertyShortKey[	NUMERICALINQUIRYOPTION	], nNumericalInquiryOption,	_DPV_NUMERICALINQUIRYOPTION	);	// ADD: (04/03/17) 

  00067	ff 15 00 00 00
	00		 call	 DWORD PTR __imp_??4?$CStringT@DV?$StrTraitMFC_DLL@DV?$ChTraitsCRT@D@ATL@@@@@ATL@@QAEAAV01@PBD@Z
  0006d	8b 06		 mov	 eax, DWORD PTR [esi]
  0006f	8d 4d f0	 lea	 ecx, DWORD PTR _szTemp$[ebp]
  00072	51		 push	 ecx
  00073	ff 35 04 01 00
	00		 push	 DWORD PTR ?g_anPropertyShortKey@@3PAPADA+260
  00079	8b ce		 mov	 ecx, esi
  0007b	ff 50 0c	 call	 DWORD PTR [eax+12]
  0007e	83 f8 01	 cmp	 eax, 1
  00081	75 10		 jne	 SHORT $LN4@SetPropert
  00083	ff 75 f0	 push	 DWORD PTR _szTemp$[ebp]
  00086	ff 15 00 00 00
	00		 call	 DWORD PTR __imp__atoi
  0008c	83 c4 04	 add	 esp, 4
  0008f	8b f8		 mov	 edi, eax
  00091	eb 05		 jmp	 SHORT $LN5@SetPropert
$LN4@SetPropert:
  00093	bf 04 00 00 00	 mov	 edi, 4
$LN5@SetPropert:

; 154  : 	CHART_CONVERT_END()
; 155  : 
; 156  : 	// (2006/7/5 - Seung-Won, Bae) Manage Property Map for Update
; 157  : 	m_pIPropertyMap = p_pIPropertyMap;
; 158  : 
; 159  : 	// ADD: (04/03/17)   
; 160  : 	m_ToolRButton_Tab.SetSavedDataFromParent( strToolBarOption);

  00098	8d 45 ec	 lea	 eax, DWORD PTR _strToolBarOption$[ebp]
  0009b	89 b3 08 04 00
	00		 mov	 DWORD PTR [ebx+1032], esi
  000a1	50		 push	 eax
  000a2	8d 8b c0 00 00
	00		 lea	 ecx, DWORD PTR [ebx+192]
  000a8	e8 00 00 00 00	 call	 ?SetSavedDataFromParent@CToolandRButtonTabCtrl@@QAEXABV?$CStringT@DV?$StrTraitMFC_DLL@DV?$ChTraitsCRT@D@ATL@@@@@ATL@@@Z ; CToolandRButtonTabCtrl::SetSavedDataFromParent

; 161  : 	m_ToolRButton_Tab.SetSavedDataFromParent( nNumericalInquiryOption);

  000ad	57		 push	 edi
  000ae	8d 8b c0 00 00
	00		 lea	 ecx, DWORD PTR [ebx+192]
  000b4	e8 00 00 00 00	 call	 ?SetSavedDataFromParent@CToolandRButtonTabCtrl@@QAEXH@Z ; CToolandRButtonTabCtrl::SetSavedDataFromParent

; 162  : }

  000b9	8d 4d ec	 lea	 ecx, DWORD PTR _strToolBarOption$[ebp]
  000bc	ff 15 00 00 00
	00		 call	 DWORD PTR __imp_??1?$CStringT@DV?$StrTraitMFC_DLL@DV?$ChTraitsCRT@D@ATL@@@@@ATL@@QAE@XZ
  000c2	8b 4d f4	 mov	 ecx, DWORD PTR __$EHRec$[ebp]
  000c5	64 89 0d 00 00
	00 00		 mov	 DWORD PTR fs:0, ecx
  000cc	59		 pop	 ecx
  000cd	5f		 pop	 edi
  000ce	5e		 pop	 esi
  000cf	5b		 pop	 ebx
  000d0	8b e5		 mov	 esp, ebp
  000d2	5d		 pop	 ebp
  000d3	c2 04 00	 ret	 4
_TEXT	ENDS
;	COMDAT text$x
text$x	SEGMENT
__unwindfunclet$?SetProperty@CToolandRButtonPage@@QAEXPAUIPropertyMap@@@Z$0:
  00000	8d 4d ec	 lea	 ecx, DWORD PTR _strToolBarOption$[ebp]
  00003	ff 25 00 00 00
	00		 jmp	 DWORD PTR __imp_??1?$CStringT@DV?$StrTraitMFC_DLL@DV?$ChTraitsCRT@D@ATL@@@@@ATL@@QAE@XZ
  00009	cc		 int	 3
  0000a	cc		 int	 3
  0000b	cc		 int	 3
  0000c	cc		 int	 3
  0000d	cc		 int	 3
__ehhandler$?SetProperty@CToolandRButtonPage@@QAEXPAUIPropertyMap@@@Z:
  0000e	90		 npad	 1
  0000f	90		 npad	 1
  00010	8b 54 24 08	 mov	 edx, DWORD PTR [esp+8]
  00014	8d 42 0c	 lea	 eax, DWORD PTR [edx+12]
  00017	8b 4a e8	 mov	 ecx, DWORD PTR [edx-24]
  0001a	33 c8		 xor	 ecx, eax
  0001c	e8 00 00 00 00	 call	 @__security_check_cookie@4
  00021	b8 00 00 00 00	 mov	 eax, OFFSET __ehfuncinfo$?SetProperty@CToolandRButtonPage@@QAEXPAUIPropertyMap@@@Z
  00026	e9 00 00 00 00	 jmp	 ___CxxFrameHandler3
text$x	ENDS
?SetProperty@CToolandRButtonPage@@QAEXPAUIPropertyMap@@@Z ENDP ; CToolandRButtonPage::SetProperty
; Function compile flags: /Ogtp
; File D:\git\src\IBK\IBK_DRFN\ProjSrc\SrcChartEx\ChartAddIn\ChartDesignPropertyAddIn\ChartDesignPropertyAddIn\ToolandRButtonPage.cpp
;	COMDAT ??1CToolandRButtonPage@@UAE@XZ
_TEXT	SEGMENT
??1CToolandRButtonPage@@UAE@XZ PROC			; CToolandRButtonPage::~CToolandRButtonPage, COMDAT
; _this$ = ecx

; 39   : {

  00000	56		 push	 esi
  00001	8b f1		 mov	 esi, ecx

; 40   : }

  00003	8d 8e 28 03 00
	00		 lea	 ecx, DWORD PTR [esi+808]
  00009	c7 06 00 00 00
	00		 mov	 DWORD PTR [esi], OFFSET ??_7CToolandRButtonPage@@6B@
  0000f	e8 00 00 00 00	 call	 ??1CDlgToolTip@@UAE@XZ	; CDlgToolTip::~CDlgToolTip
  00014	8d 8e 38 02 00
	00		 lea	 ecx, DWORD PTR [esi+568]
  0001a	e8 00 00 00 00	 call	 ??1CToolandRButtonBase_ListCtrl@@UAE@XZ ; CToolandRButtonBase_ListCtrl::~CToolandRButtonBase_ListCtrl
  0001f	8d 8e c0 00 00
	00		 lea	 ecx, DWORD PTR [esi+192]
  00025	e8 00 00 00 00	 call	 ??1CToolandRButtonTabCtrl@@UAE@XZ ; CToolandRButtonTabCtrl::~CToolandRButtonTabCtrl
  0002a	8b ce		 mov	 ecx, esi
  0002c	5e		 pop	 esi
  0002d	e9 00 00 00 00	 jmp	 ??1CPropertyPage@@UAE@XZ ; CPropertyPage::~CPropertyPage
??1CToolandRButtonPage@@UAE@XZ ENDP			; CToolandRButtonPage::~CToolandRButtonPage
_TEXT	ENDS
; Function compile flags: /Ogtp
; File D:\git\src\IBK\IBK_DRFN\ProjSrc\SrcChartEx\ChartAddIn\ChartDesignPropertyAddIn\ChartDesignPropertyAddIn\ToolandRButtonPage.cpp
;	COMDAT ??0CToolandRButtonPage@@QAE@XZ
_TEXT	SEGMENT
_this$ = -16						; size = 4
__$EHRec$ = -12						; size = 12
??0CToolandRButtonPage@@QAE@XZ PROC			; CToolandRButtonPage::CToolandRButtonPage, COMDAT
; _this$ = ecx

; 27   : {

  00000	55		 push	 ebp
  00001	8b ec		 mov	 ebp, esp
  00003	6a ff		 push	 -1
  00005	68 00 00 00 00	 push	 __ehhandler$??0CToolandRButtonPage@@QAE@XZ
  0000a	64 a1 00 00 00
	00		 mov	 eax, DWORD PTR fs:0
  00010	50		 push	 eax
  00011	51		 push	 ecx
  00012	56		 push	 esi
  00013	a1 00 00 00 00	 mov	 eax, DWORD PTR ___security_cookie
  00018	33 c5		 xor	 eax, ebp
  0001a	50		 push	 eax
  0001b	8d 45 f4	 lea	 eax, DWORD PTR __$EHRec$[ebp]
  0001e	64 a3 00 00 00
	00		 mov	 DWORD PTR fs:0, eax
  00024	8b f1		 mov	 esi, ecx
  00026	89 75 f0	 mov	 DWORD PTR _this$[ebp], esi

; 26   : CToolandRButtonPage::CToolandRButtonPage() : CPropertyPage(CToolandRButtonPage::IDD)

  00029	6a 38		 push	 56			; 00000038H
  0002b	6a 00		 push	 0
  0002d	68 81 1b 00 00	 push	 7041			; 00001b81H
  00032	e8 00 00 00 00	 call	 ??0CPropertyPage@@QAE@IIK@Z ; CPropertyPage::CPropertyPage

; 27   : {

  00037	8d 8e c0 00 00
	00		 lea	 ecx, DWORD PTR [esi+192]
  0003d	c7 45 fc 00 00
	00 00		 mov	 DWORD PTR __$EHRec$[ebp+8], 0
  00044	c7 06 00 00 00
	00		 mov	 DWORD PTR [esi], OFFSET ??_7CToolandRButtonPage@@6B@
  0004a	e8 00 00 00 00	 call	 ??0CToolandRButtonTabCtrl@@QAE@XZ ; CToolandRButtonTabCtrl::CToolandRButtonTabCtrl
  0004f	8d 8e 38 02 00
	00		 lea	 ecx, DWORD PTR [esi+568]
  00055	c6 45 fc 01	 mov	 BYTE PTR __$EHRec$[ebp+8], 1
  00059	e8 00 00 00 00	 call	 ??0CToolandRButtonBase_ListCtrl@@QAE@XZ ; CToolandRButtonBase_ListCtrl::CToolandRButtonBase_ListCtrl
  0005e	8d 8e 28 03 00
	00		 lea	 ecx, DWORD PTR [esi+808]
  00064	c6 45 fc 02	 mov	 BYTE PTR __$EHRec$[ebp+8], 2
  00068	e8 00 00 00 00	 call	 ??0CDlgToolTip@@QAE@XZ	; CDlgToolTip::CDlgToolTip

; 28   : 	// (2008/1/14 - Seung-Won, Bae) for MultiLanguage.
; 29   : 	m_hOcxWnd = NULL;

  0006d	c7 86 0c 04 00
	00 00 00 00 00	 mov	 DWORD PTR [esi+1036], 0

; 30   : 
; 31   : 	//{{AFX_DATA_INIT(CToolandRButtonPage)
; 32   : 	//}}AFX_DATA_INIT
; 33   : 
; 34   : 	// (2006/7/5 - Seung-Won, Bae) Manage Property Map for Update
; 35   : 	m_pIPropertyMap = NULL;
; 36   : }

  00077	8b c6		 mov	 eax, esi
  00079	c7 86 08 04 00
	00 00 00 00 00	 mov	 DWORD PTR [esi+1032], 0
  00083	8b 4d f4	 mov	 ecx, DWORD PTR __$EHRec$[ebp]
  00086	64 89 0d 00 00
	00 00		 mov	 DWORD PTR fs:0, ecx
  0008d	59		 pop	 ecx
  0008e	5e		 pop	 esi
  0008f	8b e5		 mov	 esp, ebp
  00091	5d		 pop	 ebp
  00092	c3		 ret	 0
_TEXT	ENDS
;	COMDAT text$x
text$x	SEGMENT
__unwindfunclet$??0CToolandRButtonPage@@QAE@XZ$0:
  00000	8b 4d f0	 mov	 ecx, DWORD PTR _this$[ebp]
  00003	e9 00 00 00 00	 jmp	 ??1CPropertyPage@@UAE@XZ ; CPropertyPage::~CPropertyPage
__unwindfunclet$??0CToolandRButtonPage@@QAE@XZ$1:
  00008	8b 4d f0	 mov	 ecx, DWORD PTR _this$[ebp]
  0000b	81 c1 c0 00 00
	00		 add	 ecx, 192		; 000000c0H
  00011	e9 00 00 00 00	 jmp	 ??1CToolandRButtonTabCtrl@@UAE@XZ ; CToolandRButtonTabCtrl::~CToolandRButtonTabCtrl
__unwindfunclet$??0CToolandRButtonPage@@QAE@XZ$2:
  00016	8b 4d f0	 mov	 ecx, DWORD PTR _this$[ebp]
  00019	81 c1 38 02 00
	00		 add	 ecx, 568		; 00000238H
  0001f	e9 00 00 00 00	 jmp	 ??1CToolandRButtonBase_ListCtrl@@UAE@XZ ; CToolandRButtonBase_ListCtrl::~CToolandRButtonBase_ListCtrl
  00024	cc		 int	 3
  00025	cc		 int	 3
  00026	cc		 int	 3
  00027	cc		 int	 3
  00028	cc		 int	 3
__ehhandler$??0CToolandRButtonPage@@QAE@XZ:
  00029	90		 npad	 1
  0002a	90		 npad	 1
  0002b	8b 54 24 08	 mov	 edx, DWORD PTR [esp+8]
  0002f	8d 42 0c	 lea	 eax, DWORD PTR [edx+12]
  00032	8b 4a f4	 mov	 ecx, DWORD PTR [edx-12]
  00035	33 c8		 xor	 ecx, eax
  00037	e8 00 00 00 00	 call	 @__security_check_cookie@4
  0003c	b8 00 00 00 00	 mov	 eax, OFFSET __ehfuncinfo$??0CToolandRButtonPage@@QAE@XZ
  00041	e9 00 00 00 00	 jmp	 ___CxxFrameHandler3
text$x	ENDS
??0CToolandRButtonPage@@QAE@XZ ENDP			; CToolandRButtonPage::CToolandRButtonPage
; Function compile flags: /Ogtp
; File D:\git\src\IBK\IBK_DRFN\ProjSrc\SrcChartEx\ChartAddIn\ChartDesignPropertyAddIn\ChartDesignPropertyAddIn\ToolandRButtonPage.cpp
; File C:\Program Files (x86)\Microsoft Visual Studio\2019\Community\VC\Tools\MSVC\14.29.30133\atlmfc\include\afx.inl
; File D:\git\src\IBK\IBK_DRFN\ProjSrc\SrcChartEx\ChartAddIn\ChartDesignPropertyAddIn\ChartDesignPropertyAddIn\ToolandRButtonPage.cpp
; File C:\Program Files (x86)\Microsoft Visual Studio\2019\Community\VC\Tools\MSVC\14.29.30133\atlmfc\include\afx.inl
; File D:\git\src\IBK\IBK_DRFN\ProjSrc\SrcChartEx\ChartAddIn\ChartDesignPropertyAddIn\ChartDesignPropertyAddIn\ToolandRButtonPage.cpp
;	COMDAT ?CreateObject@CToolandRButtonPage@@SGPAVCObject@@XZ
_TEXT	SEGMENT
$T2 = -16						; size = 4
__$EHRec$ = -12						; size = 12
?CreateObject@CToolandRButtonPage@@SGPAVCObject@@XZ PROC ; CToolandRButtonPage::CreateObject, COMDAT

; 24   : IMPLEMENT_DYNCREATE(CToolandRButtonPage, CPropertyPage)

  00000	55		 push	 ebp
  00001	8b ec		 mov	 ebp, esp
  00003	6a ff		 push	 -1
  00005	68 00 00 00 00	 push	 __ehhandler$?CreateObject@CToolandRButtonPage@@SGPAVCObject@@XZ
  0000a	64 a1 00 00 00
	00		 mov	 eax, DWORD PTR fs:0
  00010	50		 push	 eax
  00011	51		 push	 ecx
  00012	56		 push	 esi
  00013	a1 00 00 00 00	 mov	 eax, DWORD PTR ___security_cookie
  00018	33 c5		 xor	 eax, ebp
  0001a	50		 push	 eax
  0001b	8d 45 f4	 lea	 eax, DWORD PTR __$EHRec$[ebp]
  0001e	64 a3 00 00 00
	00		 mov	 DWORD PTR fs:0, eax
; File C:\Program Files (x86)\Microsoft Visual Studio\2019\Community\VC\Tools\MSVC\14.29.30133\atlmfc\include\afx.inl

; 116  : 	{ return ::operator new(nSize); }

  00024	68 10 04 00 00	 push	 1040			; 00000410H
  00029	e8 00 00 00 00	 call	 ??2@YAPAXI@Z		; operator new
; File D:\git\src\IBK\IBK_DRFN\ProjSrc\SrcChartEx\ChartAddIn\ChartDesignPropertyAddIn\ChartDesignPropertyAddIn\ToolandRButtonPage.cpp

; 24   : IMPLEMENT_DYNCREATE(CToolandRButtonPage, CPropertyPage)

  0002e	8b f0		 mov	 esi, eax
; File C:\Program Files (x86)\Microsoft Visual Studio\2019\Community\VC\Tools\MSVC\14.29.30133\atlmfc\include\afx.inl

; 116  : 	{ return ::operator new(nSize); }

  00030	83 c4 04	 add	 esp, 4
; File D:\git\src\IBK\IBK_DRFN\ProjSrc\SrcChartEx\ChartAddIn\ChartDesignPropertyAddIn\ChartDesignPropertyAddIn\ToolandRButtonPage.cpp

; 24   : IMPLEMENT_DYNCREATE(CToolandRButtonPage, CPropertyPage)

  00033	89 75 f0	 mov	 DWORD PTR $T2[ebp], esi
  00036	c7 45 fc 00 00
	00 00		 mov	 DWORD PTR __$EHRec$[ebp+8], 0
  0003d	85 f6		 test	 esi, esi
  0003f	74 69		 je	 SHORT $LN3@CreateObje

; 26   : CToolandRButtonPage::CToolandRButtonPage() : CPropertyPage(CToolandRButtonPage::IDD)

  00041	6a 38		 push	 56			; 00000038H
  00043	6a 00		 push	 0
  00045	68 81 1b 00 00	 push	 7041			; 00001b81H
  0004a	8b ce		 mov	 ecx, esi
  0004c	e8 00 00 00 00	 call	 ??0CPropertyPage@@QAE@IIK@Z ; CPropertyPage::CPropertyPage

; 27   : {

  00051	8d 8e c0 00 00
	00		 lea	 ecx, DWORD PTR [esi+192]
  00057	c6 45 fc 01	 mov	 BYTE PTR __$EHRec$[ebp+8], 1
  0005b	c7 06 00 00 00
	00		 mov	 DWORD PTR [esi], OFFSET ??_7CToolandRButtonPage@@6B@
  00061	e8 00 00 00 00	 call	 ??0CToolandRButtonTabCtrl@@QAE@XZ ; CToolandRButtonTabCtrl::CToolandRButtonTabCtrl
  00066	8d 8e 38 02 00
	00		 lea	 ecx, DWORD PTR [esi+568]
  0006c	c6 45 fc 02	 mov	 BYTE PTR __$EHRec$[ebp+8], 2
  00070	e8 00 00 00 00	 call	 ??0CToolandRButtonBase_ListCtrl@@QAE@XZ ; CToolandRButtonBase_ListCtrl::CToolandRButtonBase_ListCtrl
  00075	8d 8e 28 03 00
	00		 lea	 ecx, DWORD PTR [esi+808]
  0007b	c6 45 fc 03	 mov	 BYTE PTR __$EHRec$[ebp+8], 3
  0007f	e8 00 00 00 00	 call	 ??0CDlgToolTip@@QAE@XZ	; CDlgToolTip::CDlgToolTip

; 28   : 	// (2008/1/14 - Seung-Won, Bae) for MultiLanguage.
; 29   : 	m_hOcxWnd = NULL;

  00084	c7 86 0c 04 00
	00 00 00 00 00	 mov	 DWORD PTR [esi+1036], 0

; 24   : IMPLEMENT_DYNCREATE(CToolandRButtonPage, CPropertyPage)

  0008e	8b c6		 mov	 eax, esi

; 35   : 	m_pIPropertyMap = NULL;

  00090	c7 86 08 04 00
	00 00 00 00 00	 mov	 DWORD PTR [esi+1032], 0

; 24   : IMPLEMENT_DYNCREATE(CToolandRButtonPage, CPropertyPage)

  0009a	8b 4d f4	 mov	 ecx, DWORD PTR __$EHRec$[ebp]
  0009d	64 89 0d 00 00
	00 00		 mov	 DWORD PTR fs:0, ecx
  000a4	59		 pop	 ecx
  000a5	5e		 pop	 esi
  000a6	8b e5		 mov	 esp, ebp
  000a8	5d		 pop	 ebp
  000a9	c3		 ret	 0
$LN3@CreateObje:
  000aa	33 c0		 xor	 eax, eax
  000ac	8b 4d f4	 mov	 ecx, DWORD PTR __$EHRec$[ebp]
  000af	64 89 0d 00 00
	00 00		 mov	 DWORD PTR fs:0, ecx
  000b6	59		 pop	 ecx
  000b7	5e		 pop	 esi
  000b8	8b e5		 mov	 esp, ebp
  000ba	5d		 pop	 ebp
  000bb	c3		 ret	 0
_TEXT	ENDS
;	COMDAT text$x
text$x	SEGMENT
__unwindfunclet$?CreateObject@CToolandRButtonPage@@SGPAVCObject@@XZ$0:
  00000	8b 45 f0	 mov	 eax, DWORD PTR $T2[ebp]
  00003	50		 push	 eax
  00004	e8 00 00 00 00	 call	 ??3CObject@@SGXPAX@Z	; CObject::operator delete
  00009	c3		 ret	 0
__unwindfunclet$?CreateObject@CToolandRButtonPage@@SGPAVCObject@@XZ$1:
  0000a	8b 4d f0	 mov	 ecx, DWORD PTR $T2[ebp]
  0000d	e9 00 00 00 00	 jmp	 ??1CPropertyPage@@UAE@XZ ; CPropertyPage::~CPropertyPage
__unwindfunclet$?CreateObject@CToolandRButtonPage@@SGPAVCObject@@XZ$2:
  00012	8b 4d f0	 mov	 ecx, DWORD PTR $T2[ebp]
  00015	81 c1 c0 00 00
	00		 add	 ecx, 192		; 000000c0H
  0001b	e9 00 00 00 00	 jmp	 ??1CToolandRButtonTabCtrl@@UAE@XZ ; CToolandRButtonTabCtrl::~CToolandRButtonTabCtrl
__unwindfunclet$?CreateObject@CToolandRButtonPage@@SGPAVCObject@@XZ$3:
  00020	8b 4d f0	 mov	 ecx, DWORD PTR $T2[ebp]
  00023	81 c1 38 02 00
	00		 add	 ecx, 568		; 00000238H
  00029	e9 00 00 00 00	 jmp	 ??1CToolandRButtonBase_ListCtrl@@UAE@XZ ; CToolandRButtonBase_ListCtrl::~CToolandRButtonBase_ListCtrl
  0002e	cc		 int	 3
  0002f	cc		 int	 3
  00030	cc		 int	 3
  00031	cc		 int	 3
  00032	cc		 int	 3
__ehhandler$?CreateObject@CToolandRButtonPage@@SGPAVCObject@@XZ:
  00033	90		 npad	 1
  00034	90		 npad	 1
  00035	8b 54 24 08	 mov	 edx, DWORD PTR [esp+8]
  00039	8d 42 0c	 lea	 eax, DWORD PTR [edx+12]
  0003c	8b 4a f4	 mov	 ecx, DWORD PTR [edx-12]
  0003f	33 c8		 xor	 ecx, eax
  00041	e8 00 00 00 00	 call	 @__security_check_cookie@4
  00046	b8 00 00 00 00	 mov	 eax, OFFSET __ehfuncinfo$?CreateObject@CToolandRButtonPage@@SGPAVCObject@@XZ
  0004b	e9 00 00 00 00	 jmp	 ___CxxFrameHandler3
text$x	ENDS
?CreateObject@CToolandRButtonPage@@SGPAVCObject@@XZ ENDP ; CToolandRButtonPage::CreateObject
; Function compile flags: /Ogtp
; File D:\git\src\IBK\IBK_DRFN\ProjSrc\SrcChartEx\ChartAddIn\ChartDesignPropertyAddIn\ChartDesignPropertyAddIn\ToolandRButtonPage.cpp
;	COMDAT ?GetRuntimeClass@CToolandRButtonPage@@UBEPAUCRuntimeClass@@XZ
_TEXT	SEGMENT
?GetRuntimeClass@CToolandRButtonPage@@UBEPAUCRuntimeClass@@XZ PROC ; CToolandRButtonPage::GetRuntimeClass, COMDAT
; _this$ = ecx

; 24   : IMPLEMENT_DYNCREATE(CToolandRButtonPage, CPropertyPage)

  00000	b8 00 00 00 00	 mov	 eax, OFFSET ?classCToolandRButtonPage@CToolandRButtonPage@@2UCRuntimeClass@@B ; CToolandRButtonPage::classCToolandRButtonPage
  00005	c3		 ret	 0
?GetRuntimeClass@CToolandRButtonPage@@UBEPAUCRuntimeClass@@XZ ENDP ; CToolandRButtonPage::GetRuntimeClass
_TEXT	ENDS
; Function compile flags: /Ogtp
; File D:\git\src\IBK\IBK_DRFN\ProjSrc\SrcChartEx\ChartAddIn\ChartDesignPropertyAddIn\ChartDesignPropertyAddIn\ToolandRButtonPage.cpp
;	COMDAT ?GetThisClass@CToolandRButtonPage@@SGPAUCRuntimeClass@@XZ
_TEXT	SEGMENT
?GetThisClass@CToolandRButtonPage@@SGPAUCRuntimeClass@@XZ PROC ; CToolandRButtonPage::GetThisClass, COMDAT

; 24   : IMPLEMENT_DYNCREATE(CToolandRButtonPage, CPropertyPage)

  00000	b8 00 00 00 00	 mov	 eax, OFFSET ?classCToolandRButtonPage@CToolandRButtonPage@@2UCRuntimeClass@@B ; CToolandRButtonPage::classCToolandRButtonPage
  00005	c3		 ret	 0
?GetThisClass@CToolandRButtonPage@@SGPAUCRuntimeClass@@XZ ENDP ; CToolandRButtonPage::GetThisClass
_TEXT	ENDS
; Function compile flags: /Ogtp
; File D:\git\src\IBK\IBK_DRFN\ProjSrc\SrcChartEx\ChartAddIn\ChartDesignPropertyAddIn\ChartDesignPropertyAddIn\ToolandRButtonPage.cpp
;	COMDAT ?_GetBaseClass@CToolandRButtonPage@@KGPAUCRuntimeClass@@XZ
_TEXT	SEGMENT
?_GetBaseClass@CToolandRButtonPage@@KGPAUCRuntimeClass@@XZ PROC ; CToolandRButtonPage::_GetBaseClass, COMDAT

; 24   : IMPLEMENT_DYNCREATE(CToolandRButtonPage, CPropertyPage)

  00000	e9 00 00 00 00	 jmp	 ?GetThisClass@CPropertyPage@@SGPAUCRuntimeClass@@XZ ; CPropertyPage::GetThisClass
?_GetBaseClass@CToolandRButtonPage@@KGPAUCRuntimeClass@@XZ ENDP ; CToolandRButtonPage::_GetBaseClass
_TEXT	ENDS
; Function compile flags: /Ogtp
; File D:\git\src\IBK\IBK_DRFN\ProjSrc\SrcChartEx\ChartAddIn\ChartDesignPropertyAddIn\Include_Chart\Dll_Load\IMetaTable.h
; File C:\Program Files (x86)\Microsoft Visual Studio\2019\Community\VC\Tools\MSVC\14.29.30133\atlmfc\include\afxwin1.inl
; File D:\git\src\IBK\IBK_DRFN\ProjSrc\SrcChartEx\ChartAddIn\ChartDesignPropertyAddIn\Include_Chart\Dll_Load\IMetaTable.h
;	COMDAT ??1CMultiLanguageResourceSetter@@QAE@XZ
_TEXT	SEGMENT
__$EHRec$ = -12						; size = 12
??1CMultiLanguageResourceSetter@@QAE@XZ PROC		; CMultiLanguageResourceSetter::~CMultiLanguageResourceSetter, COMDAT
; _this$ = ecx

; 1036 : 	{

  00000	55		 push	 ebp
  00001	8b ec		 mov	 ebp, esp
  00003	6a ff		 push	 -1
  00005	68 00 00 00 00	 push	 __ehhandler$??1CMultiLanguageResourceSetter@@QAE@XZ
  0000a	64 a1 00 00 00
	00		 mov	 eax, DWORD PTR fs:0
  00010	50		 push	 eax
  00011	56		 push	 esi
  00012	a1 00 00 00 00	 mov	 eax, DWORD PTR ___security_cookie
  00017	33 c5		 xor	 eax, ebp
  00019	50		 push	 eax
  0001a	8d 45 f4	 lea	 eax, DWORD PTR __$EHRec$[ebp]
  0001d	64 a3 00 00 00
	00		 mov	 DWORD PTR fs:0, eax

; 1037 : 		AfxSetResourceHandle( m_hInstance);

  00023	8b 31		 mov	 esi, DWORD PTR [ecx]
; File C:\Program Files (x86)\Microsoft Visual Studio\2019\Community\VC\Tools\MSVC\14.29.30133\atlmfc\include\afxwin1.inl

; 27   : 	{ ASSERT(hInstResource != NULL); afxCurrentResourceHandle = hInstResource; }

  00025	e8 00 00 00 00	 call	 ?AfxGetModuleState@@YGPAVAFX_MODULE_STATE@@XZ ; AfxGetModuleState
  0002a	89 70 0c	 mov	 DWORD PTR [eax+12], esi
; File D:\git\src\IBK\IBK_DRFN\ProjSrc\SrcChartEx\ChartAddIn\ChartDesignPropertyAddIn\Include_Chart\Dll_Load\IMetaTable.h

; 1038 : 	}

  0002d	8b 4d f4	 mov	 ecx, DWORD PTR __$EHRec$[ebp]
  00030	64 89 0d 00 00
	00 00		 mov	 DWORD PTR fs:0, ecx
  00037	59		 pop	 ecx
  00038	5e		 pop	 esi
  00039	8b e5		 mov	 esp, ebp
  0003b	5d		 pop	 ebp
  0003c	c3		 ret	 0
  0003d	cc		 int	 3
  0003e	cc		 int	 3
  0003f	cc		 int	 3
  00040	cc		 int	 3
  00041	cc		 int	 3
_TEXT	ENDS
;	COMDAT text$x
text$x	SEGMENT
__ehhandler$??1CMultiLanguageResourceSetter@@QAE@XZ:
  00000	90		 npad	 1
  00001	90		 npad	 1
  00002	8b 54 24 08	 mov	 edx, DWORD PTR [esp+8]
  00006	8d 42 0c	 lea	 eax, DWORD PTR [edx+12]
  00009	8b 4a f8	 mov	 ecx, DWORD PTR [edx-8]
  0000c	33 c8		 xor	 ecx, eax
  0000e	e8 00 00 00 00	 call	 @__security_check_cookie@4
  00013	b8 00 00 00 00	 mov	 eax, OFFSET __ehfuncinfo$??1CMultiLanguageResourceSetter@@QAE@XZ
  00018	e9 00 00 00 00	 jmp	 ___CxxFrameHandler3
text$x	ENDS
??1CMultiLanguageResourceSetter@@QAE@XZ ENDP		; CMultiLanguageResourceSetter::~CMultiLanguageResourceSetter
; Function compile flags: /Ogtp
; File C:\Program Files (x86)\Microsoft Visual Studio\2019\Community\VC\Tools\MSVC\14.29.30133\atlmfc\include\afxwin2.inl
;	COMDAT ?Create@CDialog@@UAEHIPAVCWnd@@@Z
_TEXT	SEGMENT
_nIDTemplate$ = 8					; size = 4
_pParentWnd$ = 12					; size = 4
?Create@CDialog@@UAEHIPAVCWnd@@@Z PROC			; CDialog::Create, COMDAT
; _this$ = ecx

; 585  : 	{ return CDialog::Create(ATL_MAKEINTRESOURCE(nIDTemplate), pParentWnd); }

  00000	55		 push	 ebp
  00001	8b ec		 mov	 ebp, esp
  00003	0f b7 45 08	 movzx	 eax, WORD PTR _nIDTemplate$[ebp]
  00007	89 45 08	 mov	 DWORD PTR _nIDTemplate$[ebp], eax
  0000a	5d		 pop	 ebp
  0000b	e9 00 00 00 00	 jmp	 ?Create@CDialog@@UAEHPBDPAVCWnd@@@Z ; CDialog::Create
?Create@CDialog@@UAEHIPAVCWnd@@@Z ENDP			; CDialog::Create
_TEXT	ENDS
; Function compile flags: /Ogtp
; File C:\Program Files (x86)\Microsoft Visual Studio\2019\Community\VC\Tools\MSVC\14.29.30133\atlmfc\include\afxwin2.inl
;	COMDAT ?EndModalState@CWnd@@UAEXXZ
_TEXT	SEGMENT
?EndModalState@CWnd@@UAEXXZ PROC			; CWnd::EndModalState, COMDAT
; _this$ = ecx

; 567  : 	{ ::EnableWindow(m_hWnd, TRUE); }

  00000	6a 01		 push	 1
  00002	ff 71 20	 push	 DWORD PTR [ecx+32]
  00005	ff 15 00 00 00
	00		 call	 DWORD PTR __imp__EnableWindow@8
  0000b	c3		 ret	 0
?EndModalState@CWnd@@UAEXXZ ENDP			; CWnd::EndModalState
_TEXT	ENDS
; Function compile flags: /Ogtp
; File C:\Program Files (x86)\Microsoft Visual Studio\2019\Community\VC\Tools\MSVC\14.29.30133\atlmfc\include\afxwin2.inl
;	COMDAT ?BeginModalState@CWnd@@UAEXXZ
_TEXT	SEGMENT
?BeginModalState@CWnd@@UAEXXZ PROC			; CWnd::BeginModalState, COMDAT
; _this$ = ecx

; 565  : 	{ ::EnableWindow(m_hWnd, FALSE); }

  00000	6a 00		 push	 0
  00002	ff 71 20	 push	 DWORD PTR [ecx+32]
  00005	ff 15 00 00 00
	00		 call	 DWORD PTR __imp__EnableWindow@8
  0000b	c3		 ret	 0
?BeginModalState@CWnd@@UAEXXZ ENDP			; CWnd::BeginModalState
_TEXT	ENDS
; Function compile flags: /Ogtp
; File C:\Program Files (x86)\Microsoft Visual Studio\2019\Community\VC\Tools\MSVC\14.29.30133\atlmfc\include\afxwin2.inl
;	COMDAT ?DoDataExchange@CWnd@@MAEXPAVCDataExchange@@@Z
_TEXT	SEGMENT
___formal$ = 8						; size = 4
?DoDataExchange@CWnd@@MAEXPAVCDataExchange@@@Z PROC	; CWnd::DoDataExchange, COMDAT
; _this$ = ecx

; 561  : 	{ } // default does nothing

  00000	c2 04 00	 ret	 4
?DoDataExchange@CWnd@@MAEXPAVCDataExchange@@@Z ENDP	; CWnd::DoDataExchange
_TEXT	ENDS
; Function compile flags: /Ogtp
; File C:\Program Files (x86)\Microsoft Visual Studio\2019\Community\VC\Tools\MSVC\14.29.30133\atlmfc\include\afx.inl
;	COMDAT ?Dump@CObject@@UBEXAAVCDumpContext@@@Z
_TEXT	SEGMENT
___formal$ = 8						; size = 4
?Dump@CObject@@UBEXAAVCDumpContext@@@Z PROC		; CObject::Dump, COMDAT
; _this$ = ecx

; 122  : 	{ /* no dumping in release builds */ }

  00000	c2 04 00	 ret	 4
?Dump@CObject@@UBEXAAVCDumpContext@@@Z ENDP		; CObject::Dump
_TEXT	ENDS
; Function compile flags: /Ogtp
; File C:\Program Files (x86)\Microsoft Visual Studio\2019\Community\VC\Tools\MSVC\14.29.30133\atlmfc\include\afx.inl
;	COMDAT ?AssertValid@CObject@@UBEXXZ
_TEXT	SEGMENT
?AssertValid@CObject@@UBEXXZ PROC			; CObject::AssertValid, COMDAT
; _this$ = ecx

; 120  : 	{ /* no asserts in release builds */ }

  00000	c2 00 00	 ret	 0
?AssertValid@CObject@@UBEXXZ ENDP			; CObject::AssertValid
_TEXT	ENDS
; Function compile flags: /Ogtp
; File C:\Program Files (x86)\Microsoft Visual Studio\2019\Community\VC\Tools\MSVC\14.29.30133\atlmfc\include\afx.inl
;	COMDAT ?Serialize@CObject@@UAEXAAVCArchive@@@Z
_TEXT	SEGMENT
___formal$ = 8						; size = 4
?Serialize@CObject@@UAEXAAVCArchive@@@Z PROC		; CObject::Serialize, COMDAT
; _this$ = ecx

; 106  : 	{ /* CObject does not serialize anything by default */ }

  00000	c2 04 00	 ret	 4
?Serialize@CObject@@UAEXAAVCArchive@@@Z ENDP		; CObject::Serialize
_TEXT	ENDS
; Function compile flags: /Ogtp
; File C:\Program Files (x86)\Microsoft Visual Studio\2019\Community\VC\Tools\MSVC\14.29.30133\atlmfc\include\afx.inl
;	COMDAT ??3CObject@@SGXPAX@Z
_TEXT	SEGMENT
_p$ = 8							; size = 4
??3CObject@@SGXPAX@Z PROC				; CObject::operator delete, COMDAT

; 112  : 	{ ::operator delete(p); }

  00000	55		 push	 ebp
  00001	8b ec		 mov	 ebp, esp
  00003	ff 75 08	 push	 DWORD PTR _p$[ebp]
  00006	e8 00 00 00 00	 call	 ??3@YAXPAX@Z		; operator delete
  0000b	83 c4 04	 add	 esp, 4
  0000e	5d		 pop	 ebp
  0000f	c2 04 00	 ret	 4
??3CObject@@SGXPAX@Z ENDP				; CObject::operator delete
_TEXT	ENDS
; Function compile flags: /Ogtp
; File D:\git\src\IBK\IBK_DRFN\ProjSrc\SrcChartEx\ChartAddIn\ChartDesignPropertyAddIn\ChartDesignPropertyAddIn\ToolandRButtonPage.cpp
;	COMDAT ?__empty_global_delete@@YAXPAXI@Z
_TEXT	SEGMENT
___formal$ = 8						; size = 4
___formal$ = 12						; size = 4
?__empty_global_delete@@YAXPAXI@Z PROC			; __empty_global_delete, COMDAT

  00000	c2 00 00	 ret	 0
?__empty_global_delete@@YAXPAXI@Z ENDP			; __empty_global_delete
_TEXT	ENDS
; Function compile flags: /Ogtp
; File D:\git\src\IBK\IBK_DRFN\ProjSrc\SrcChartEx\ChartAddIn\ChartDesignPropertyAddIn\ChartDesignPropertyAddIn\ToolandRButtonPage.cpp
;	COMDAT ?__empty_global_delete@@YAXPAX@Z
_TEXT	SEGMENT
___formal$ = 8						; size = 4
?__empty_global_delete@@YAXPAX@Z PROC			; __empty_global_delete, COMDAT

  00000	c2 00 00	 ret	 0
?__empty_global_delete@@YAXPAX@Z ENDP			; __empty_global_delete
_TEXT	ENDS
END
