; Listing generated by Microsoft (R) Optimizing Compiler Version 19.29.30145.0 

	TITLE	D:\git\src\IBK\IBK_DRFN\#DRfn-CS\_Obj\ChartDesignPropertyAddIn\ToolListData.obj
	.686P
	.XMM
	include listing.inc
	.model	flat

INCLUDELIB MSVCRT
INCLUDELIB OLDNAMES

PUBLIC	?NUM_PACKETNAMEITEM@@3HB			; NUM_PACKETNAMEITEM
PUBLIC	?ePacketNameItem@@3PAW4E_METACODE@IMetaTable@@A	; ePacketNameItem
_DATA	SEGMENT
?ePacketNameItem@@3PAW4E_METACODE@IMetaTable@@A DD 01H	; ePacketNameItem
	DD	00H
	DD	06H
	DD	02H
	DD	03H
	DD	04H
	DD	05H
	DD	07H
	DD	08H
	DD	09H
	DD	0aH
	DD	0bH
	DD	0cH
	DD	0dH
	DD	0eH
	DD	0fH
	DD	010H
	DD	011H
	DD	012H
	DD	013H
	DD	014H
	DD	015H
	DD	016H
	DD	017H
_DATA	ENDS
CONST	SEGMENT
?NUM_PACKETNAMEITEM@@3HB DD 018H			; NUM_PACKETNAMEITEM
CONST	ENDS
PUBLIC	?__empty_global_delete@@YAXPAX@Z		; __empty_global_delete
PUBLIC	?__empty_global_delete@@YAXPAXI@Z		; __empty_global_delete
; Function compile flags: /Ogtp
; File D:\git\src\IBK\IBK_DRFN\ProjSrc\SrcChartEx\ChartAddIn\ChartDesignPropertyAddIn\ChartDesignPropertyAddIn\ToolListData.cpp
;	COMDAT ?__empty_global_delete@@YAXPAXI@Z
_TEXT	SEGMENT
___formal$ = 8						; size = 4
___formal$ = 12						; size = 4
?__empty_global_delete@@YAXPAXI@Z PROC			; __empty_global_delete, COMDAT

  00000	c2 00 00	 ret	 0
?__empty_global_delete@@YAXPAXI@Z ENDP			; __empty_global_delete
_TEXT	ENDS
; Function compile flags: /Ogtp
; File D:\git\src\IBK\IBK_DRFN\ProjSrc\SrcChartEx\ChartAddIn\ChartDesignPropertyAddIn\ChartDesignPropertyAddIn\ToolListData.cpp
;	COMDAT ?__empty_global_delete@@YAXPAX@Z
_TEXT	SEGMENT
___formal$ = 8						; size = 4
?__empty_global_delete@@YAXPAX@Z PROC			; __empty_global_delete, COMDAT

  00000	c2 00 00	 ret	 0
?__empty_global_delete@@YAXPAX@Z ENDP			; __empty_global_delete
_TEXT	ENDS
END
