; Listing generated by Microsoft (R) Optimizing Compiler Version 19.29.30145.0 

	TITLE	D:\git\src\IBK\IBK_DRFN\#DRfn-CS\_Obj\ChartDesignPropertyAddIn\TreeDropList.obj
	.686P
	.XMM
	include listing.inc
	.model	flat

INCLUDELIB MSVCRT
INCLUDELIB OLDNAMES

PUBLIC	?__empty_global_delete@@YAXPAX@Z		; __empty_global_delete
PUBLIC	?__empty_global_delete@@YAXPAXI@Z		; __empty_global_delete
PUBLIC	?Serialize@CObject@@UAEXAAVCArchive@@@Z		; CObject::Serialize
PUBLIC	?AssertValid@CObject@@UBEXXZ			; CObject::AssertValid
PUBLIC	?Dump@CObject@@UBEXAAVCDumpContext@@@Z		; CObject::Dump
PUBLIC	?DoDataExchange@CWnd@@MAEXPAVCDataExchange@@@Z	; CWnd::DoDataExchange
PUBLIC	?BeginModalState@CWnd@@UAEXXZ			; CWnd::BeginModalState
PUBLIC	?EndModalState@CWnd@@UAEXXZ			; CWnd::EndModalState
PUBLIC	??_GCTreeCtrl@@UAEPAXI@Z			; CTreeCtrl::`scalar deleting destructor'
PUBLIC	??0CTreeDropList@@QAE@XZ			; CTreeDropList::CTreeDropList
PUBLIC	?SplitPath@CTreeDropList@@IAEXABV?$CStringT@DV?$StrTraitMFC_DLL@DV?$ChTraitsCRT@D@ATL@@@@@ATL@@AAV23@1@Z ; CTreeDropList::SplitPath
PUBLIC	?MatchSibling@CTreeDropList@@IAEPAU_TREEITEM@@PAU2@AAV?$CStringT@DV?$StrTraitMFC_DLL@DV?$ChTraitsCRT@D@ATL@@@@@ATL@@@Z ; CTreeDropList::MatchSibling
PUBLIC	?FindString@CTreeDropList@@IAEPAU_TREEITEM@@PAU2@V?$CStringT@DV?$StrTraitMFC_DLL@DV?$ChTraitsCRT@D@ATL@@@@@ATL@@AAPAU2@AAV34@3@Z ; CTreeDropList::FindString
PUBLIC	?FindString@CTreeDropList@@IAEPAU_TREEITEM@@V?$CStringT@DV?$StrTraitMFC_DLL@DV?$ChTraitsCRT@D@ATL@@@@@ATL@@PAU2@@Z ; CTreeDropList::FindString
PUBLIC	?SelectString@CTreeDropList@@IAEPAU_TREEITEM@@PBDPAU2@@Z ; CTreeDropList::SelectString
PUBLIC	?GetTreePath@CTreeDropList@@IAE?AV?$CStringT@DV?$StrTraitMFC_DLL@DV?$ChTraitsCRT@D@ATL@@@@@ATL@@PAU_TREEITEM@@@Z ; CTreeDropList::GetTreePath
PUBLIC	?GetCurrentTreePath@CTreeDropList@@IAE?AV?$CStringT@DV?$StrTraitMFC_DLL@DV?$ChTraitsCRT@D@ATL@@@@@ATL@@XZ ; CTreeDropList::GetCurrentTreePath
PUBLIC	?CutString@CTreeDropList@@IAEPADPAD0@Z		; CTreeDropList::CutString
PUBLIC	?Parsing@CTreeDropList@@IAEHXZ			; CTreeDropList::Parsing
PUBLIC	?DataRegular@CTreeDropList@@IAEHPAE0@Z		; CTreeDropList::DataRegular
PUBLIC	?LoadTableInfo@CTreeDropList@@IAEHV?$CStringT@DV?$StrTraitMFC_DLL@DV?$ChTraitsCRT@D@ATL@@@@@ATL@@@Z ; CTreeDropList::LoadTableInfo
PUBLIC	?OnSelection@CTreeDropList@@IAEXXZ		; CTreeDropList::OnSelection
PUBLIC	?OnCancel@CTreeDropList@@IAEXXZ			; CTreeDropList::OnCancel
PUBLIC	?AddData@CTreeDropList@@QAEPAU_TREEITEM@@PAU2@PADH@Z ; CTreeDropList::AddData
PUBLIC	?AddPacket@CTreeDropList@@QAEPAU_TREEITEM@@PAD0@Z ; CTreeDropList::AddPacket
PUBLIC	?AddItem@CTreeDropList@@QAEPAU_TREEITEM@@PAU2@PAD111@Z ; CTreeDropList::AddItem
PUBLIC	??1CTreeDropList@@UAE@XZ			; CTreeDropList::~CTreeDropList
PUBLIC	?OnKillfocus@CTreeDropList@@IAEXPAUtagNMHDR@@PAJ@Z ; CTreeDropList::OnKillfocus
PUBLIC	?OnChar@CTreeDropList@@IAEXIII@Z		; CTreeDropList::OnChar
PUBLIC	?OnLButtonDblClk@CTreeDropList@@IAEXIVCPoint@@@Z ; CTreeDropList::OnLButtonDblClk
PUBLIC	?OnSetfocus@CTreeDropList@@IAEXPAUtagNMHDR@@PAJ@Z ; CTreeDropList::OnSetfocus
PUBLIC	?OnSelchanged@CTreeDropList@@IAEXPAUtagNMHDR@@PAJ@Z ; CTreeDropList::OnSelchanged
PUBLIC	?GetThisMessageMap@CTreeDropList@@KGPBUAFX_MSGMAP@@XZ ; CTreeDropList::GetThisMessageMap
PUBLIC	?GetMessageMap@CTreeDropList@@MBEPBUAFX_MSGMAP@@XZ ; CTreeDropList::GetMessageMap
PUBLIC	??_GCTreeDropList@@UAEPAXI@Z			; CTreeDropList::`scalar deleting destructor'
PUBLIC	??1CMultiLanguageResourceSetter@@QAE@XZ		; CMultiLanguageResourceSetter::~CMultiLanguageResourceSetter
PUBLIC	??_C@_00CNPNBAHC@@				; `string'
PUBLIC	??_7CTreeCtrl@@6B@				; CTreeCtrl::`vftable'
PUBLIC	??_R0?AVCObject@@@8				; CObject `RTTI Type Descriptor'
PUBLIC	??_R3CObject@@8					; CObject::`RTTI Class Hierarchy Descriptor'
PUBLIC	??_R2CObject@@8					; CObject::`RTTI Base Class Array'
PUBLIC	??_R1A@?0A@EA@CObject@@8			; CObject::`RTTI Base Class Descriptor at (0,-1,0,64)'
PUBLIC	??_R1A@?0A@EA@CWnd@@8				; CWnd::`RTTI Base Class Descriptor at (0,-1,0,64)'
PUBLIC	??_R0?AVCWnd@@@8				; CWnd `RTTI Type Descriptor'
PUBLIC	??_R3CWnd@@8					; CWnd::`RTTI Class Hierarchy Descriptor'
PUBLIC	??_R2CWnd@@8					; CWnd::`RTTI Base Class Array'
PUBLIC	??_R1A@?0A@EA@CCmdTarget@@8			; CCmdTarget::`RTTI Base Class Descriptor at (0,-1,0,64)'
PUBLIC	??_R0?AVCCmdTarget@@@8				; CCmdTarget `RTTI Type Descriptor'
PUBLIC	??_R3CCmdTarget@@8				; CCmdTarget::`RTTI Class Hierarchy Descriptor'
PUBLIC	??_R2CCmdTarget@@8				; CCmdTarget::`RTTI Base Class Array'
PUBLIC	??_R4CTreeCtrl@@6B@				; CTreeCtrl::`RTTI Complete Object Locator'
PUBLIC	??_R0?AVCTreeCtrl@@@8				; CTreeCtrl `RTTI Type Descriptor'
PUBLIC	??_R3CTreeCtrl@@8				; CTreeCtrl::`RTTI Class Hierarchy Descriptor'
PUBLIC	??_R2CTreeCtrl@@8				; CTreeCtrl::`RTTI Base Class Array'
PUBLIC	??_R1A@?0A@EA@CTreeCtrl@@8			; CTreeCtrl::`RTTI Base Class Descriptor at (0,-1,0,64)'
PUBLIC	??_7CTreeDropList@@6B@				; CTreeDropList::`vftable'
PUBLIC	??_C@_0BA@ENJOCHIO@LoadResourceDLL@		; `string'
PUBLIC	??_C@_04BEMOAACG@?$CFs?4?$CK@			; `string'
PUBLIC	??_C@_01LFCBOECM@?4@				; `string'
PUBLIC	??_C@_06KJKBOKBH@?$FL?$CFs?$FN?$CFs@		; `string'
PUBLIC	??_C@_0M@ONNOPAIB@?$CFs?0?$CFs?0?$CFs?0?$CFs@	; `string'
PUBLIC	??_C@_03GAMGFNAH@r?$CLt@			; `string'
PUBLIC	??_C@_0P@EDFHLMJK@BEGIN_DATA_MAP@		; `string'
PUBLIC	??_C@_04PLBJFIFE@ATTR@				; `string'
PUBLIC	??_C@_09LECPJEDL@KEY_BEGIN@			; `string'
PUBLIC	??_C@_07CLAACHBC@KEY_END@			; `string'
PUBLIC	??_C@_0L@FJHEMLKJ@DATA_BEGIN@			; `string'
PUBLIC	??_C@_08JELJLFJK@DATA_END@			; `string'
PUBLIC	??_C@_0N@MKPMKOMP@END_DATA_MAP@			; `string'
PUBLIC	??_R4CTreeDropList@@6B@				; CTreeDropList::`RTTI Complete Object Locator'
PUBLIC	??_R0?AVCTreeDropList@@@8			; CTreeDropList `RTTI Type Descriptor'
PUBLIC	??_R3CTreeDropList@@8				; CTreeDropList::`RTTI Class Hierarchy Descriptor'
PUBLIC	??_R2CTreeDropList@@8				; CTreeDropList::`RTTI Base Class Array'
PUBLIC	??_R1A@?0A@EA@CTreeDropList@@8			; CTreeDropList::`RTTI Base Class Descriptor at (0,-1,0,64)'
EXTRN	??3@YAXPAX@Z:PROC				; operator delete
EXTRN	?__global_delete@@YAXPAXI@Z:PROC		; __global_delete
EXTRN	___std_terminate:PROC
EXTRN	__imp__GetProcAddress@8:PROC
EXTRN	__imp__SendMessageA@16:PROC
EXTRN	__imp__GetNextDlgTabItem@12:PROC
EXTRN	__imp__GetKeyState@4:PROC
EXTRN	__imp__EnableWindow@8:PROC
EXTRN	__imp__InvalidateRect@12:PROC
EXTRN	__imp__GetParent@4:PROC
EXTRN	__imp__fclose:PROC
EXTRN	__imp__fgets:PROC
EXTRN	__imp__fopen:PROC
EXTRN	?AfxThrowInvalidArgException@@YGXXZ:PROC	; AfxThrowInvalidArgException
EXTRN	__imp_?Concatenate@?$CSimpleStringT@D$00@ATL@@KAXAAV12@PBDH1H@Z:PROC
EXTRN	__imp_??0?$CStringT@DV?$StrTraitMFC_DLL@DV?$ChTraitsCRT@D@ATL@@@@@ATL@@QAE@XZ:PROC
EXTRN	__imp_??0?$CStringT@DV?$StrTraitMFC_DLL@DV?$ChTraitsCRT@D@ATL@@@@@ATL@@QAE@PAUIAtlStringMgr@1@@Z:PROC
EXTRN	__imp_??0?$CStringT@DV?$StrTraitMFC_DLL@DV?$ChTraitsCRT@D@ATL@@@@@ATL@@QAE@ABV01@@Z:PROC
EXTRN	__imp_??0?$CStringT@DV?$StrTraitMFC_DLL@DV?$ChTraitsCRT@D@ATL@@@@@ATL@@QAE@PBD@Z:PROC
EXTRN	__imp_??0?$CStringT@DV?$StrTraitMFC_DLL@DV?$ChTraitsCRT@D@ATL@@@@@ATL@@QAE@PBE@Z:PROC
EXTRN	__imp_??1?$CStringT@DV?$StrTraitMFC_DLL@DV?$ChTraitsCRT@D@ATL@@@@@ATL@@QAE@XZ:PROC
EXTRN	__imp_??4?$CStringT@DV?$StrTraitMFC_DLL@DV?$ChTraitsCRT@D@ATL@@@@@ATL@@QAEAAV01@ABV01@@Z:PROC
EXTRN	__imp_??4?$CStringT@DV?$StrTraitMFC_DLL@DV?$ChTraitsCRT@D@ATL@@@@@ATL@@QAEAAV01@PBD@Z:PROC
EXTRN	__imp_??Y?$CStringT@DV?$StrTraitMFC_DLL@DV?$ChTraitsCRT@D@ATL@@@@@ATL@@QAEAAV01@ABV?$CSimpleStringT@D$00@1@@Z:PROC
EXTRN	__imp_?GetManager@?$CStringT@DV?$StrTraitMFC_DLL@DV?$ChTraitsCRT@D@ATL@@@@@ATL@@QBEPAUIAtlStringMgr@2@XZ:PROC
EXTRN	__imp_?Compare@?$CStringT@DV?$StrTraitMFC_DLL@DV?$ChTraitsCRT@D@ATL@@@@@ATL@@QBEHPBD@Z:PROC
EXTRN	__imp_?Find@?$CStringT@DV?$StrTraitMFC_DLL@DV?$ChTraitsCRT@D@ATL@@@@@ATL@@QBEHDH@Z:PROC
EXTRN	__imp_?Find@?$CStringT@DV?$StrTraitMFC_DLL@DV?$ChTraitsCRT@D@ATL@@@@@ATL@@QBEHPBDH@Z:PROC
EXTRN	__imp_?MakeUpper@?$CStringT@DV?$StrTraitMFC_DLL@DV?$ChTraitsCRT@D@ATL@@@@@ATL@@QAEAAV12@XZ:PROC
EXTRN	__imp_?TrimRight@?$CStringT@DV?$StrTraitMFC_DLL@DV?$ChTraitsCRT@D@ATL@@@@@ATL@@QAEAAV12@XZ:PROC
EXTRN	__imp_?TrimLeft@?$CStringT@DV?$StrTraitMFC_DLL@DV?$ChTraitsCRT@D@ATL@@@@@ATL@@QAEAAV12@XZ:PROC
EXTRN	__imp_?Mid@?$CStringT@DV?$StrTraitMFC_DLL@DV?$ChTraitsCRT@D@ATL@@@@@ATL@@QBE?AV12@H@Z:PROC
EXTRN	__imp_?Mid@?$CStringT@DV?$StrTraitMFC_DLL@DV?$ChTraitsCRT@D@ATL@@@@@ATL@@QBE?AV12@HH@Z:PROC
EXTRN	__imp_?Left@?$CStringT@DV?$StrTraitMFC_DLL@DV?$ChTraitsCRT@D@ATL@@@@@ATL@@QBE?AV12@H@Z:PROC
EXTRN	__imp_?Format@?$CStringT@DV?$StrTraitMFC_DLL@DV?$ChTraitsCRT@D@ATL@@@@@ATL@@QAAXPBDZZ:PROC
EXTRN	__imp_?LoadStringA@?$CStringT@DV?$StrTraitMFC_DLL@DV?$ChTraitsCRT@D@ATL@@@@@ATL@@QAEHI@Z:PROC
EXTRN	??0CStringList@@QAE@H@Z:PROC			; CStringList::CStringList
EXTRN	?AddTail@CStringList@@QAEPAU__POSITION@@ABV?$CStringT@DV?$StrTraitMFC_DLL@DV?$ChTraitsCRT@D@ATL@@@@@ATL@@@Z:PROC ; CStringList::AddTail
EXTRN	?RemoveAll@CStringList@@QAEXXZ:PROC		; CStringList::RemoveAll
EXTRN	??1CStringList@@UAE@XZ:PROC			; CStringList::~CStringList
EXTRN	?AfxGetModuleState@@YGPAVAFX_MODULE_STATE@@XZ:PROC ; AfxGetModuleState
EXTRN	?AfxGetStaticModuleState@@YGPAVAFX_MODULE_STATE@@XZ:PROC ; AfxGetStaticModuleState
EXTRN	?OnCmdMsg@CCmdTarget@@UAEHIHPAXPAUAFX_CMDHANDLERINFO@@@Z:PROC ; CCmdTarget::OnCmdMsg
EXTRN	?IsInvokeAllowed@CCmdTarget@@UAEHJ@Z:PROC	; CCmdTarget::IsInvokeAllowed
EXTRN	?GetDispatchIID@CCmdTarget@@UAEHPAU_GUID@@@Z:PROC ; CCmdTarget::GetDispatchIID
EXTRN	?GetTypeInfoCount@CCmdTarget@@UAEIXZ:PROC	; CCmdTarget::GetTypeInfoCount
EXTRN	?GetTypeLibCache@CCmdTarget@@UAEPAVCTypeLibCache@@XZ:PROC ; CCmdTarget::GetTypeLibCache
EXTRN	?GetTypeLib@CCmdTarget@@UAEJKPAPAUITypeLib@@@Z:PROC ; CCmdTarget::GetTypeLib
EXTRN	?GetCommandMap@CCmdTarget@@MBEPBUAFX_OLECMDMAP@@XZ:PROC ; CCmdTarget::GetCommandMap
EXTRN	?GetDispatchMap@CCmdTarget@@MBEPBUAFX_DISPMAP@@XZ:PROC ; CCmdTarget::GetDispatchMap
EXTRN	?GetConnectionMap@CCmdTarget@@MBEPBUAFX_CONNECTIONMAP@@XZ:PROC ; CCmdTarget::GetConnectionMap
EXTRN	?GetEventSinkMap@CCmdTarget@@MBEPBUAFX_EVENTSINKMAP@@XZ:PROC ; CCmdTarget::GetEventSinkMap
EXTRN	?OnCreateAggregates@CCmdTarget@@UAEHXZ:PROC	; CCmdTarget::OnCreateAggregates
EXTRN	?GetInterfaceHook@CCmdTarget@@UAEPAUIUnknown@@PBX@Z:PROC ; CCmdTarget::GetInterfaceHook
EXTRN	?GetExtraConnectionPoints@CCmdTarget@@MAEHPAVCPtrArray@@@Z:PROC ; CCmdTarget::GetExtraConnectionPoints
EXTRN	?GetConnectionHook@CCmdTarget@@MAEPAUIConnectionPoint@@ABU_GUID@@@Z:PROC ; CCmdTarget::GetConnectionHook
EXTRN	??0CWnd@@QAE@XZ:PROC				; CWnd::CWnd
EXTRN	?FromHandle@CWnd@@SGPAV1@PAUHWND__@@@Z:PROC	; CWnd::FromHandle
EXTRN	?PreSubclassWindow@CWnd@@UAEXXZ:PROC		; CWnd::PreSubclassWindow
EXTRN	?Create@CWnd@@UAEHPBD0KABUtagRECT@@PAV1@IPAUCCreateContext@@@Z:PROC ; CWnd::Create
EXTRN	?CreateEx@CWnd@@UAEHKPBD0KHHHHPAUHWND__@@PAUHMENU__@@PAX@Z:PROC ; CWnd::CreateEx
EXTRN	?CreateEx@CWnd@@UAEHKPBD0KABUtagRECT@@PAV1@IPAX@Z:PROC ; CWnd::CreateEx
EXTRN	?DestroyWindow@CWnd@@UAEHXZ:PROC		; CWnd::DestroyWindow
EXTRN	?PreCreateWindow@CWnd@@UAEHAAUtagCREATESTRUCTA@@@Z:PROC ; CWnd::PreCreateWindow
EXTRN	?CalcWindowRect@CWnd@@UAEXPAUtagRECT@@I@Z:PROC	; CWnd::CalcWindowRect
EXTRN	?GetMenu@CWnd@@UBEPAVCMenu@@XZ:PROC		; CWnd::GetMenu
EXTRN	?SetMenu@CWnd@@UAEHPAVCMenu@@@Z:PROC		; CWnd::SetMenu
EXTRN	?ShowWindow@CWnd@@QAEHH@Z:PROC			; CWnd::ShowWindow
EXTRN	?OnToolHitTest@CWnd@@UBEHVCPoint@@PAUtagTOOLINFOA@@@Z:PROC ; CWnd::OnToolHitTest
EXTRN	?SetFocus@CWnd@@QAEPAV1@XZ:PROC			; CWnd::SetFocus
EXTRN	?GetScrollBarCtrl@CWnd@@UBEPAVCScrollBar@@H@Z:PROC ; CWnd::GetScrollBarCtrl
EXTRN	?WinHelpA@CWnd@@UAEXKI@Z:PROC			; CWnd::WinHelpA
EXTRN	?HtmlHelpA@CWnd@@UAEXKI@Z:PROC			; CWnd::HtmlHelpA
EXTRN	?WinHelpInternal@CWnd@@UAEXKI@Z:PROC		; CWnd::WinHelpInternal
EXTRN	?ContinueModal@CWnd@@UAEHXZ:PROC		; CWnd::ContinueModal
EXTRN	?EndModalLoop@CWnd@@UAEXH@Z:PROC		; CWnd::EndModalLoop
EXTRN	?OnDrawIconicThumbnailOrLivePreview@CWnd@@UAEXAAVCDC@@VCRect@@VCSize@@HAAH@Z:PROC ; CWnd::OnDrawIconicThumbnailOrLivePreview
EXTRN	?GetInterfaceMap@CWnd@@MBEPBUAFX_INTERFACEMAP@@XZ:PROC ; CWnd::GetInterfaceMap
EXTRN	?EnsureStdObj@CWnd@@UAEJXZ:PROC			; CWnd::EnsureStdObj
EXTRN	?get_accParent@CWnd@@UAEJPAPAUIDispatch@@@Z:PROC ; CWnd::get_accParent
EXTRN	?get_accChildCount@CWnd@@UAEJPAJ@Z:PROC		; CWnd::get_accChildCount
EXTRN	?get_accChild@CWnd@@UAEJUtagVARIANT@@PAPAUIDispatch@@@Z:PROC ; CWnd::get_accChild
EXTRN	?get_accName@CWnd@@UAEJUtagVARIANT@@PAPA_W@Z:PROC ; CWnd::get_accName
EXTRN	?get_accValue@CWnd@@UAEJUtagVARIANT@@PAPA_W@Z:PROC ; CWnd::get_accValue
EXTRN	?get_accDescription@CWnd@@UAEJUtagVARIANT@@PAPA_W@Z:PROC ; CWnd::get_accDescription
EXTRN	?get_accRole@CWnd@@UAEJUtagVARIANT@@PAU2@@Z:PROC ; CWnd::get_accRole
EXTRN	?get_accState@CWnd@@UAEJUtagVARIANT@@PAU2@@Z:PROC ; CWnd::get_accState
EXTRN	?get_accHelp@CWnd@@UAEJUtagVARIANT@@PAPA_W@Z:PROC ; CWnd::get_accHelp
EXTRN	?get_accHelpTopic@CWnd@@UAEJPAPA_WUtagVARIANT@@PAJ@Z:PROC ; CWnd::get_accHelpTopic
EXTRN	?get_accKeyboardShortcut@CWnd@@UAEJUtagVARIANT@@PAPA_W@Z:PROC ; CWnd::get_accKeyboardShortcut
EXTRN	?get_accFocus@CWnd@@UAEJPAUtagVARIANT@@@Z:PROC	; CWnd::get_accFocus
EXTRN	?get_accSelection@CWnd@@UAEJPAUtagVARIANT@@@Z:PROC ; CWnd::get_accSelection
EXTRN	?get_accDefaultAction@CWnd@@UAEJUtagVARIANT@@PAPA_W@Z:PROC ; CWnd::get_accDefaultAction
EXTRN	?accSelect@CWnd@@UAEJJUtagVARIANT@@@Z:PROC	; CWnd::accSelect
EXTRN	?accLocation@CWnd@@UAEJPAJ000UtagVARIANT@@@Z:PROC ; CWnd::accLocation
EXTRN	?accNavigate@CWnd@@UAEJJUtagVARIANT@@PAU2@@Z:PROC ; CWnd::accNavigate
EXTRN	?accHitTest@CWnd@@UAEJJJPAUtagVARIANT@@@Z:PROC	; CWnd::accHitTest
EXTRN	?accDoDefaultAction@CWnd@@UAEJUtagVARIANT@@@Z:PROC ; CWnd::accDoDefaultAction
EXTRN	?put_accName@CWnd@@UAEJUtagVARIANT@@PA_W@Z:PROC	; CWnd::put_accName
EXTRN	?put_accValue@CWnd@@UAEJUtagVARIANT@@PA_W@Z:PROC ; CWnd::put_accValue
EXTRN	?SetProxy@CWnd@@UAEJPAUIAccessibleProxy@@@Z:PROC ; CWnd::SetProxy
EXTRN	?CreateAccessibleProxy@CWnd@@UAEJIJPAJ@Z:PROC	; CWnd::CreateAccessibleProxy
EXTRN	?OnCommand@CWnd@@MAEHIJ@Z:PROC			; CWnd::OnCommand
EXTRN	?OnNotify@CWnd@@MAEHIJPAJ@Z:PROC		; CWnd::OnNotify
EXTRN	?GetSuperWndProcAddr@CWnd@@MAEPAP6GJPAUHWND__@@IIJ@ZXZ:PROC ; CWnd::GetSuperWndProcAddr
EXTRN	?PreTranslateMessage@CWnd@@UAEHPAUtagMSG@@@Z:PROC ; CWnd::PreTranslateMessage
EXTRN	?OnAmbientProperty@CWnd@@UAEHPAVCOleControlSite@@JPAUtagVARIANT@@@Z:PROC ; CWnd::OnAmbientProperty
EXTRN	?WindowProc@CWnd@@MAEJIIJ@Z:PROC		; CWnd::WindowProc
EXTRN	?OnWndMsg@CWnd@@MAEHIIJPAJ@Z:PROC		; CWnd::OnWndMsg
EXTRN	?Default@CWnd@@IAEJXZ:PROC			; CWnd::Default
EXTRN	?DefWindowProcA@CWnd@@MAEJIIJ@Z:PROC		; CWnd::DefWindowProcA
EXTRN	?PostNcDestroy@CWnd@@MAEXXZ:PROC		; CWnd::PostNcDestroy
EXTRN	?OnChildNotify@CWnd@@MAEHIIJPAJ@Z:PROC		; CWnd::OnChildNotify
EXTRN	?OnTouchInputs@CWnd@@MAEHIPAUtagTOUCHINPUT@@@Z:PROC ; CWnd::OnTouchInputs
EXTRN	?OnTouchInput@CWnd@@MAEHVCPoint@@HHPAUtagTOUCHINPUT@@@Z:PROC ; CWnd::OnTouchInput
EXTRN	?GetGestureStatus@CWnd@@MAEKVCPoint@@@Z:PROC	; CWnd::GetGestureStatus
EXTRN	?OnGestureZoom@CWnd@@MAEHVCPoint@@J@Z:PROC	; CWnd::OnGestureZoom
EXTRN	?OnGesturePan@CWnd@@MAEHVCPoint@@0@Z:PROC	; CWnd::OnGesturePan
EXTRN	?OnGestureRotate@CWnd@@MAEHVCPoint@@N@Z:PROC	; CWnd::OnGestureRotate
EXTRN	?OnGestureTwoFingerTap@CWnd@@MAEHVCPoint@@@Z:PROC ; CWnd::OnGestureTwoFingerTap
EXTRN	?OnGesturePressAndTap@CWnd@@MAEHVCPoint@@J@Z:PROC ; CWnd::OnGesturePressAndTap
EXTRN	?ResizeDynamicLayout@CWnd@@MAEXXZ:PROC		; CWnd::ResizeDynamicLayout
EXTRN	?CheckAutoCenter@CWnd@@UAEHXZ:PROC		; CWnd::CheckAutoCenter
EXTRN	?IsFrameWnd@CWnd@@UBEHXZ:PROC			; CWnd::IsFrameWnd
EXTRN	?OnFinalRelease@CWnd@@UAEXXZ:PROC		; CWnd::OnFinalRelease
EXTRN	?CreateControlContainer@CWnd@@MAEHPAPAVCOleControlContainer@@@Z:PROC ; CWnd::CreateControlContainer
EXTRN	?CreateControlSite@CWnd@@MAEHPAVCOleControlContainer@@PAPAVCOleControlSite@@IABU_GUID@@@Z:PROC ; CWnd::CreateControlSite
EXTRN	?SetOccDialogInfo@CWnd@@MAEHPAU_AFX_OCC_DIALOG_INFO@@@Z:PROC ; CWnd::SetOccDialogInfo
EXTRN	?GetOccDialogInfo@CWnd@@MAEPAU_AFX_OCC_DIALOG_INFO@@XZ:PROC ; CWnd::GetOccDialogInfo
EXTRN	?AfxMessageBox@@YGHPBDII@Z:PROC			; AfxMessageBox
EXTRN	?GetRuntimeClass@CTreeCtrl@@UBEPAUCRuntimeClass@@XZ:PROC ; CTreeCtrl::GetRuntimeClass
EXTRN	?GetItemText@CTreeCtrl@@QBE?AV?$CStringT@DV?$StrTraitMFC_DLL@DV?$ChTraitsCRT@D@ATL@@@@@ATL@@PAU_TREEITEM@@@Z:PROC ; CTreeCtrl::GetItemText
EXTRN	??1CTreeCtrl@@UAE@XZ:PROC			; CTreeCtrl::~CTreeCtrl
EXTRN	?GetThisMessageMap@CTreeCtrl@@KGPBUAFX_MSGMAP@@XZ:PROC ; CTreeCtrl::GetThisMessageMap
EXTRN	?GetMessageMap@CTreeCtrl@@MBEPBUAFX_MSGMAP@@XZ:PROC ; CTreeCtrl::GetMessageMap
EXTRN	??_ECTreeCtrl@@UAEPAXI@Z:PROC			; CTreeCtrl::`vector deleting destructor'
EXTRN	??_ECTreeDropList@@UAEPAXI@Z:PROC		; CTreeDropList::`vector deleting destructor'
EXTRN	?SetWindowTextA@CTreeCombo@@QAEXPBD@Z:PROC	; CTreeCombo::SetWindowTextA
EXTRN	?SendParentComboMessage@CTreeCombo@@IAEJI@Z:PROC ; CTreeCombo::SendParentComboMessage
EXTRN	?OnCancel@CTreeCombo@@IAEXXZ:PROC		; CTreeCombo::OnCancel
EXTRN	?IsMouseOnEdit@CTreeCombo@@IAEHXZ:PROC		; CTreeCombo::IsMouseOnEdit
EXTRN	?IsMouseOnButton@CTreeCombo@@IAEHXZ:PROC	; CTreeCombo::IsMouseOnButton
EXTRN	@__security_check_cookie@4:PROC
EXTRN	___CxxFrameHandler3:PROC
EXTRN	??_7type_info@@6B@:QWORD			; type_info::`vftable'
EXTRN	?g_iMetaTable@@3VIMetaTable@@A:BYTE		; g_iMetaTable
EXTRN	___security_cookie:DWORD
;	COMDAT ??_R1A@?0A@EA@CTreeDropList@@8
rdata$r	SEGMENT
??_R1A@?0A@EA@CTreeDropList@@8 DD FLAT:??_R0?AVCTreeDropList@@@8 ; CTreeDropList::`RTTI Base Class Descriptor at (0,-1,0,64)'
	DD	04H
	DD	00H
	DD	0ffffffffH
	DD	00H
	DD	040H
	DD	FLAT:??_R3CTreeDropList@@8
rdata$r	ENDS
;	COMDAT ??_R2CTreeDropList@@8
rdata$r	SEGMENT
??_R2CTreeDropList@@8 DD FLAT:??_R1A@?0A@EA@CTreeDropList@@8 ; CTreeDropList::`RTTI Base Class Array'
	DD	FLAT:??_R1A@?0A@EA@CTreeCtrl@@8
	DD	FLAT:??_R1A@?0A@EA@CWnd@@8
	DD	FLAT:??_R1A@?0A@EA@CCmdTarget@@8
	DD	FLAT:??_R1A@?0A@EA@CObject@@8
rdata$r	ENDS
;	COMDAT ??_R3CTreeDropList@@8
rdata$r	SEGMENT
??_R3CTreeDropList@@8 DD 00H				; CTreeDropList::`RTTI Class Hierarchy Descriptor'
	DD	00H
	DD	05H
	DD	FLAT:??_R2CTreeDropList@@8
rdata$r	ENDS
;	COMDAT ??_R0?AVCTreeDropList@@@8
data$rs	SEGMENT
??_R0?AVCTreeDropList@@@8 DD FLAT:??_7type_info@@6B@	; CTreeDropList `RTTI Type Descriptor'
	DD	00H
	DB	'.?AVCTreeDropList@@', 00H
data$rs	ENDS
;	COMDAT ??_R4CTreeDropList@@6B@
rdata$r	SEGMENT
??_R4CTreeDropList@@6B@ DD 00H				; CTreeDropList::`RTTI Complete Object Locator'
	DD	00H
	DD	00H
	DD	FLAT:??_R0?AVCTreeDropList@@@8
	DD	FLAT:??_R3CTreeDropList@@8
rdata$r	ENDS
;	COMDAT ??_C@_0N@MKPMKOMP@END_DATA_MAP@
CONST	SEGMENT
??_C@_0N@MKPMKOMP@END_DATA_MAP@ DB 'END_DATA_MAP', 00H	; `string'
CONST	ENDS
;	COMDAT ??_C@_08JELJLFJK@DATA_END@
CONST	SEGMENT
??_C@_08JELJLFJK@DATA_END@ DB 'DATA_END', 00H		; `string'
CONST	ENDS
;	COMDAT ??_C@_0L@FJHEMLKJ@DATA_BEGIN@
CONST	SEGMENT
??_C@_0L@FJHEMLKJ@DATA_BEGIN@ DB 'DATA_BEGIN', 00H	; `string'
CONST	ENDS
;	COMDAT ??_C@_07CLAACHBC@KEY_END@
CONST	SEGMENT
??_C@_07CLAACHBC@KEY_END@ DB 'KEY_END', 00H		; `string'
CONST	ENDS
;	COMDAT ??_C@_09LECPJEDL@KEY_BEGIN@
CONST	SEGMENT
??_C@_09LECPJEDL@KEY_BEGIN@ DB 'KEY_BEGIN', 00H		; `string'
CONST	ENDS
;	COMDAT ??_C@_04PLBJFIFE@ATTR@
CONST	SEGMENT
??_C@_04PLBJFIFE@ATTR@ DB 'ATTR', 00H			; `string'
CONST	ENDS
;	COMDAT ??_C@_0P@EDFHLMJK@BEGIN_DATA_MAP@
CONST	SEGMENT
??_C@_0P@EDFHLMJK@BEGIN_DATA_MAP@ DB 'BEGIN_DATA_MAP', 00H ; `string'
CONST	ENDS
;	COMDAT ??_C@_03GAMGFNAH@r?$CLt@
CONST	SEGMENT
??_C@_03GAMGFNAH@r?$CLt@ DB 'r+t', 00H			; `string'
CONST	ENDS
;	COMDAT ??_C@_0M@ONNOPAIB@?$CFs?0?$CFs?0?$CFs?0?$CFs@
CONST	SEGMENT
??_C@_0M@ONNOPAIB@?$CFs?0?$CFs?0?$CFs?0?$CFs@ DB '%s,%s,%s,%s', 00H ; `string'
CONST	ENDS
;	COMDAT ??_C@_06KJKBOKBH@?$FL?$CFs?$FN?$CFs@
CONST	SEGMENT
??_C@_06KJKBOKBH@?$FL?$CFs?$FN?$CFs@ DB '[%s]%s', 00H	; `string'
CONST	ENDS
;	COMDAT ??_C@_01LFCBOECM@?4@
CONST	SEGMENT
??_C@_01LFCBOECM@?4@ DB '.', 00H			; `string'
CONST	ENDS
;	COMDAT ??_C@_04BEMOAACG@?$CFs?4?$CK@
CONST	SEGMENT
??_C@_04BEMOAACG@?$CFs?4?$CK@ DB '%s.*', 00H		; `string'
CONST	ENDS
;	COMDAT ?messageMap@?1??GetThisMessageMap@CTreeDropList@@KGPBUAFX_MSGMAP@@XZ@4U3@B
CONST	SEGMENT
?messageMap@?1??GetThisMessageMap@CTreeDropList@@KGPBUAFX_MSGMAP@@XZ@4U3@B DD FLAT:?GetThisMessageMap@CTreeCtrl@@KGPBUAFX_MSGMAP@@XZ ; `CTreeDropList::GetThisMessageMap'::`2'::messageMap
	DD	FLAT:?_messageEntries@?1??GetThisMessageMap@CTreeDropList@@KGPBUAFX_MSGMAP@@XZ@4QBUAFX_MSGMAP_ENTRY@@B
CONST	ENDS
;	COMDAT ?_messageEntries@?1??GetThisMessageMap@CTreeDropList@@KGPBUAFX_MSGMAP@@XZ@4QBUAFX_MSGMAP_ENTRY@@B
CONST	SEGMENT
?_messageEntries@?1??GetThisMessageMap@CTreeDropList@@KGPBUAFX_MSGMAP@@XZ@4QBUAFX_MSGMAP_ENTRY@@B DD 0bc4eH ; `CTreeDropList::GetThisMessageMap'::`2'::_messageEntries
	DD	0fff8H
	DD	00H
	DD	00H
	DD	03eH
	DD	FLAT:?OnKillfocus@CTreeDropList@@IAEXPAUtagNMHDR@@PAJ@Z
	DD	0102H
	DD	00H
	DD	00H
	DD	00H
	DD	019H
	DD	FLAT:?OnChar@CTreeDropList@@IAEXIII@Z
	DD	0203H
	DD	00H
	DD	00H
	DD	00H
	DD	036H
	DD	FLAT:?OnLButtonDblClk@CTreeDropList@@IAEXIVCPoint@@@Z
	DD	0bc4eH
	DD	0fff9H
	DD	00H
	DD	00H
	DD	03eH
	DD	FLAT:?OnSetfocus@CTreeDropList@@IAEXPAUtagNMHDR@@PAJ@Z
	DD	0bc4eH
	DD	0fe6eH
	DD	00H
	DD	00H
	DD	03eH
	DD	FLAT:?OnSelchanged@CTreeDropList@@IAEXPAUtagNMHDR@@PAJ@Z
	DD	00H
	DD	00H
	DD	00H
	DD	00H
	DD	00H
	DD	00H
CONST	ENDS
;	COMDAT ??_C@_0BA@ENJOCHIO@LoadResourceDLL@
CONST	SEGMENT
??_C@_0BA@ENJOCHIO@LoadResourceDLL@ DB 'LoadResourceDLL', 00H ; `string'
CONST	ENDS
;	COMDAT ??_7CTreeDropList@@6B@
CONST	SEGMENT
??_7CTreeDropList@@6B@ DD FLAT:??_R4CTreeDropList@@6B@	; CTreeDropList::`vftable'
	DD	FLAT:?GetRuntimeClass@CTreeCtrl@@UBEPAUCRuntimeClass@@XZ
	DD	FLAT:??_ECTreeDropList@@UAEPAXI@Z
	DD	FLAT:?Serialize@CObject@@UAEXAAVCArchive@@@Z
	DD	FLAT:?AssertValid@CObject@@UBEXXZ
	DD	FLAT:?Dump@CObject@@UBEXAAVCDumpContext@@@Z
	DD	FLAT:?OnCmdMsg@CCmdTarget@@UAEHIHPAXPAUAFX_CMDHANDLERINFO@@@Z
	DD	FLAT:?OnFinalRelease@CWnd@@UAEXXZ
	DD	FLAT:?IsInvokeAllowed@CCmdTarget@@UAEHJ@Z
	DD	FLAT:?GetDispatchIID@CCmdTarget@@UAEHPAU_GUID@@@Z
	DD	FLAT:?GetTypeInfoCount@CCmdTarget@@UAEIXZ
	DD	FLAT:?GetTypeLibCache@CCmdTarget@@UAEPAVCTypeLibCache@@XZ
	DD	FLAT:?GetTypeLib@CCmdTarget@@UAEJKPAPAUITypeLib@@@Z
	DD	FLAT:?GetMessageMap@CTreeDropList@@MBEPBUAFX_MSGMAP@@XZ
	DD	FLAT:?GetCommandMap@CCmdTarget@@MBEPBUAFX_OLECMDMAP@@XZ
	DD	FLAT:?GetDispatchMap@CCmdTarget@@MBEPBUAFX_DISPMAP@@XZ
	DD	FLAT:?GetConnectionMap@CCmdTarget@@MBEPBUAFX_CONNECTIONMAP@@XZ
	DD	FLAT:?GetInterfaceMap@CWnd@@MBEPBUAFX_INTERFACEMAP@@XZ
	DD	FLAT:?GetEventSinkMap@CCmdTarget@@MBEPBUAFX_EVENTSINKMAP@@XZ
	DD	FLAT:?OnCreateAggregates@CCmdTarget@@UAEHXZ
	DD	FLAT:?GetInterfaceHook@CCmdTarget@@UAEPAUIUnknown@@PBX@Z
	DD	FLAT:?GetExtraConnectionPoints@CCmdTarget@@MAEHPAVCPtrArray@@@Z
	DD	FLAT:?GetConnectionHook@CCmdTarget@@MAEPAUIConnectionPoint@@ABU_GUID@@@Z
	DD	FLAT:?PreSubclassWindow@CWnd@@UAEXXZ
	DD	FLAT:?Create@CWnd@@UAEHPBD0KABUtagRECT@@PAV1@IPAUCCreateContext@@@Z
	DD	FLAT:?CreateEx@CWnd@@UAEHKPBD0KABUtagRECT@@PAV1@IPAX@Z
	DD	FLAT:?CreateEx@CWnd@@UAEHKPBD0KHHHHPAUHWND__@@PAUHMENU__@@PAX@Z
	DD	FLAT:?DestroyWindow@CWnd@@UAEHXZ
	DD	FLAT:?PreCreateWindow@CWnd@@UAEHAAUtagCREATESTRUCTA@@@Z
	DD	FLAT:?CalcWindowRect@CWnd@@UAEXPAUtagRECT@@I@Z
	DD	FLAT:?GetMenu@CWnd@@UBEPAVCMenu@@XZ
	DD	FLAT:?SetMenu@CWnd@@UAEHPAVCMenu@@@Z
	DD	FLAT:?OnToolHitTest@CWnd@@UBEHVCPoint@@PAUtagTOOLINFOA@@@Z
	DD	FLAT:?GetScrollBarCtrl@CWnd@@UBEPAVCScrollBar@@H@Z
	DD	FLAT:?WinHelpA@CWnd@@UAEXKI@Z
	DD	FLAT:?HtmlHelpA@CWnd@@UAEXKI@Z
	DD	FLAT:?WinHelpInternal@CWnd@@UAEXKI@Z
	DD	FLAT:?ContinueModal@CWnd@@UAEHXZ
	DD	FLAT:?EndModalLoop@CWnd@@UAEXH@Z
	DD	FLAT:?OnDrawIconicThumbnailOrLivePreview@CWnd@@UAEXAAVCDC@@VCRect@@VCSize@@HAAH@Z
	DD	FLAT:?EnsureStdObj@CWnd@@UAEJXZ
	DD	FLAT:?get_accParent@CWnd@@UAEJPAPAUIDispatch@@@Z
	DD	FLAT:?get_accChildCount@CWnd@@UAEJPAJ@Z
	DD	FLAT:?get_accChild@CWnd@@UAEJUtagVARIANT@@PAPAUIDispatch@@@Z
	DD	FLAT:?get_accName@CWnd@@UAEJUtagVARIANT@@PAPA_W@Z
	DD	FLAT:?get_accValue@CWnd@@UAEJUtagVARIANT@@PAPA_W@Z
	DD	FLAT:?get_accDescription@CWnd@@UAEJUtagVARIANT@@PAPA_W@Z
	DD	FLAT:?get_accRole@CWnd@@UAEJUtagVARIANT@@PAU2@@Z
	DD	FLAT:?get_accState@CWnd@@UAEJUtagVARIANT@@PAU2@@Z
	DD	FLAT:?get_accHelp@CWnd@@UAEJUtagVARIANT@@PAPA_W@Z
	DD	FLAT:?get_accHelpTopic@CWnd@@UAEJPAPA_WUtagVARIANT@@PAJ@Z
	DD	FLAT:?get_accKeyboardShortcut@CWnd@@UAEJUtagVARIANT@@PAPA_W@Z
	DD	FLAT:?get_accFocus@CWnd@@UAEJPAUtagVARIANT@@@Z
	DD	FLAT:?get_accSelection@CWnd@@UAEJPAUtagVARIANT@@@Z
	DD	FLAT:?get_accDefaultAction@CWnd@@UAEJUtagVARIANT@@PAPA_W@Z
	DD	FLAT:?accSelect@CWnd@@UAEJJUtagVARIANT@@@Z
	DD	FLAT:?accLocation@CWnd@@UAEJPAJ000UtagVARIANT@@@Z
	DD	FLAT:?accNavigate@CWnd@@UAEJJUtagVARIANT@@PAU2@@Z
	DD	FLAT:?accHitTest@CWnd@@UAEJJJPAUtagVARIANT@@@Z
	DD	FLAT:?accDoDefaultAction@CWnd@@UAEJUtagVARIANT@@@Z
	DD	FLAT:?put_accName@CWnd@@UAEJUtagVARIANT@@PA_W@Z
	DD	FLAT:?put_accValue@CWnd@@UAEJUtagVARIANT@@PA_W@Z
	DD	FLAT:?SetProxy@CWnd@@UAEJPAUIAccessibleProxy@@@Z
	DD	FLAT:?CreateAccessibleProxy@CWnd@@UAEJIJPAJ@Z
	DD	FLAT:?OnCommand@CWnd@@MAEHIJ@Z
	DD	FLAT:?OnNotify@CWnd@@MAEHIJPAJ@Z
	DD	FLAT:?GetSuperWndProcAddr@CWnd@@MAEPAP6GJPAUHWND__@@IIJ@ZXZ
	DD	FLAT:?DoDataExchange@CWnd@@MAEXPAVCDataExchange@@@Z
	DD	FLAT:?BeginModalState@CWnd@@UAEXXZ
	DD	FLAT:?EndModalState@CWnd@@UAEXXZ
	DD	FLAT:?PreTranslateMessage@CWnd@@UAEHPAUtagMSG@@@Z
	DD	FLAT:?OnAmbientProperty@CWnd@@UAEHPAVCOleControlSite@@JPAUtagVARIANT@@@Z
	DD	FLAT:?WindowProc@CWnd@@MAEJIIJ@Z
	DD	FLAT:?OnWndMsg@CWnd@@MAEHIIJPAJ@Z
	DD	FLAT:?DefWindowProcA@CWnd@@MAEJIIJ@Z
	DD	FLAT:?PostNcDestroy@CWnd@@MAEXXZ
	DD	FLAT:?OnChildNotify@CWnd@@MAEHIIJPAJ@Z
	DD	FLAT:?OnTouchInputs@CWnd@@MAEHIPAUtagTOUCHINPUT@@@Z
	DD	FLAT:?OnTouchInput@CWnd@@MAEHVCPoint@@HHPAUtagTOUCHINPUT@@@Z
	DD	FLAT:?GetGestureStatus@CWnd@@MAEKVCPoint@@@Z
	DD	FLAT:?OnGestureZoom@CWnd@@MAEHVCPoint@@J@Z
	DD	FLAT:?OnGesturePan@CWnd@@MAEHVCPoint@@0@Z
	DD	FLAT:?OnGestureRotate@CWnd@@MAEHVCPoint@@N@Z
	DD	FLAT:?OnGestureTwoFingerTap@CWnd@@MAEHVCPoint@@@Z
	DD	FLAT:?OnGesturePressAndTap@CWnd@@MAEHVCPoint@@J@Z
	DD	FLAT:?ResizeDynamicLayout@CWnd@@MAEXXZ
	DD	FLAT:?CheckAutoCenter@CWnd@@UAEHXZ
	DD	FLAT:?IsFrameWnd@CWnd@@UBEHXZ
	DD	FLAT:?CreateControlContainer@CWnd@@MAEHPAPAVCOleControlContainer@@@Z
	DD	FLAT:?CreateControlSite@CWnd@@MAEHPAVCOleControlContainer@@PAPAVCOleControlSite@@IABU_GUID@@@Z
	DD	FLAT:?SetOccDialogInfo@CWnd@@MAEHPAU_AFX_OCC_DIALOG_INFO@@@Z
	DD	FLAT:?GetOccDialogInfo@CWnd@@MAEPAU_AFX_OCC_DIALOG_INFO@@XZ
CONST	ENDS
;	COMDAT ??_R1A@?0A@EA@CTreeCtrl@@8
rdata$r	SEGMENT
??_R1A@?0A@EA@CTreeCtrl@@8 DD FLAT:??_R0?AVCTreeCtrl@@@8 ; CTreeCtrl::`RTTI Base Class Descriptor at (0,-1,0,64)'
	DD	03H
	DD	00H
	DD	0ffffffffH
	DD	00H
	DD	040H
	DD	FLAT:??_R3CTreeCtrl@@8
rdata$r	ENDS
;	COMDAT ??_R2CTreeCtrl@@8
rdata$r	SEGMENT
??_R2CTreeCtrl@@8 DD FLAT:??_R1A@?0A@EA@CTreeCtrl@@8	; CTreeCtrl::`RTTI Base Class Array'
	DD	FLAT:??_R1A@?0A@EA@CWnd@@8
	DD	FLAT:??_R1A@?0A@EA@CCmdTarget@@8
	DD	FLAT:??_R1A@?0A@EA@CObject@@8
rdata$r	ENDS
;	COMDAT ??_R3CTreeCtrl@@8
rdata$r	SEGMENT
??_R3CTreeCtrl@@8 DD 00H				; CTreeCtrl::`RTTI Class Hierarchy Descriptor'
	DD	00H
	DD	04H
	DD	FLAT:??_R2CTreeCtrl@@8
rdata$r	ENDS
;	COMDAT ??_R0?AVCTreeCtrl@@@8
data$rs	SEGMENT
??_R0?AVCTreeCtrl@@@8 DD FLAT:??_7type_info@@6B@	; CTreeCtrl `RTTI Type Descriptor'
	DD	00H
	DB	'.?AVCTreeCtrl@@', 00H
data$rs	ENDS
;	COMDAT ??_R4CTreeCtrl@@6B@
rdata$r	SEGMENT
??_R4CTreeCtrl@@6B@ DD 00H				; CTreeCtrl::`RTTI Complete Object Locator'
	DD	00H
	DD	00H
	DD	FLAT:??_R0?AVCTreeCtrl@@@8
	DD	FLAT:??_R3CTreeCtrl@@8
rdata$r	ENDS
;	COMDAT ??_R2CCmdTarget@@8
rdata$r	SEGMENT
??_R2CCmdTarget@@8 DD FLAT:??_R1A@?0A@EA@CCmdTarget@@8	; CCmdTarget::`RTTI Base Class Array'
	DD	FLAT:??_R1A@?0A@EA@CObject@@8
rdata$r	ENDS
;	COMDAT ??_R3CCmdTarget@@8
rdata$r	SEGMENT
??_R3CCmdTarget@@8 DD 00H				; CCmdTarget::`RTTI Class Hierarchy Descriptor'
	DD	00H
	DD	02H
	DD	FLAT:??_R2CCmdTarget@@8
rdata$r	ENDS
;	COMDAT ??_R0?AVCCmdTarget@@@8
data$rs	SEGMENT
??_R0?AVCCmdTarget@@@8 DD FLAT:??_7type_info@@6B@	; CCmdTarget `RTTI Type Descriptor'
	DD	00H
	DB	'.?AVCCmdTarget@@', 00H
data$rs	ENDS
;	COMDAT ??_R1A@?0A@EA@CCmdTarget@@8
rdata$r	SEGMENT
??_R1A@?0A@EA@CCmdTarget@@8 DD FLAT:??_R0?AVCCmdTarget@@@8 ; CCmdTarget::`RTTI Base Class Descriptor at (0,-1,0,64)'
	DD	01H
	DD	00H
	DD	0ffffffffH
	DD	00H
	DD	040H
	DD	FLAT:??_R3CCmdTarget@@8
rdata$r	ENDS
;	COMDAT ??_R2CWnd@@8
rdata$r	SEGMENT
??_R2CWnd@@8 DD	FLAT:??_R1A@?0A@EA@CWnd@@8		; CWnd::`RTTI Base Class Array'
	DD	FLAT:??_R1A@?0A@EA@CCmdTarget@@8
	DD	FLAT:??_R1A@?0A@EA@CObject@@8
rdata$r	ENDS
;	COMDAT ??_R3CWnd@@8
rdata$r	SEGMENT
??_R3CWnd@@8 DD	00H					; CWnd::`RTTI Class Hierarchy Descriptor'
	DD	00H
	DD	03H
	DD	FLAT:??_R2CWnd@@8
rdata$r	ENDS
;	COMDAT ??_R0?AVCWnd@@@8
data$rs	SEGMENT
??_R0?AVCWnd@@@8 DD FLAT:??_7type_info@@6B@		; CWnd `RTTI Type Descriptor'
	DD	00H
	DB	'.?AVCWnd@@', 00H
data$rs	ENDS
;	COMDAT ??_R1A@?0A@EA@CWnd@@8
rdata$r	SEGMENT
??_R1A@?0A@EA@CWnd@@8 DD FLAT:??_R0?AVCWnd@@@8		; CWnd::`RTTI Base Class Descriptor at (0,-1,0,64)'
	DD	02H
	DD	00H
	DD	0ffffffffH
	DD	00H
	DD	040H
	DD	FLAT:??_R3CWnd@@8
rdata$r	ENDS
;	COMDAT ??_R1A@?0A@EA@CObject@@8
rdata$r	SEGMENT
??_R1A@?0A@EA@CObject@@8 DD FLAT:??_R0?AVCObject@@@8	; CObject::`RTTI Base Class Descriptor at (0,-1,0,64)'
	DD	00H
	DD	00H
	DD	0ffffffffH
	DD	00H
	DD	040H
	DD	FLAT:??_R3CObject@@8
rdata$r	ENDS
;	COMDAT ??_R2CObject@@8
rdata$r	SEGMENT
??_R2CObject@@8 DD FLAT:??_R1A@?0A@EA@CObject@@8	; CObject::`RTTI Base Class Array'
rdata$r	ENDS
;	COMDAT ??_R3CObject@@8
rdata$r	SEGMENT
??_R3CObject@@8 DD 00H					; CObject::`RTTI Class Hierarchy Descriptor'
	DD	00H
	DD	01H
	DD	FLAT:??_R2CObject@@8
rdata$r	ENDS
;	COMDAT ??_R0?AVCObject@@@8
data$rs	SEGMENT
??_R0?AVCObject@@@8 DD FLAT:??_7type_info@@6B@		; CObject `RTTI Type Descriptor'
	DD	00H
	DB	'.?AVCObject@@', 00H
data$rs	ENDS
;	COMDAT ??_7CTreeCtrl@@6B@
CONST	SEGMENT
??_7CTreeCtrl@@6B@ DD FLAT:??_R4CTreeCtrl@@6B@		; CTreeCtrl::`vftable'
	DD	FLAT:?GetRuntimeClass@CTreeCtrl@@UBEPAUCRuntimeClass@@XZ
	DD	FLAT:??_ECTreeCtrl@@UAEPAXI@Z
	DD	FLAT:?Serialize@CObject@@UAEXAAVCArchive@@@Z
	DD	FLAT:?AssertValid@CObject@@UBEXXZ
	DD	FLAT:?Dump@CObject@@UBEXAAVCDumpContext@@@Z
	DD	FLAT:?OnCmdMsg@CCmdTarget@@UAEHIHPAXPAUAFX_CMDHANDLERINFO@@@Z
	DD	FLAT:?OnFinalRelease@CWnd@@UAEXXZ
	DD	FLAT:?IsInvokeAllowed@CCmdTarget@@UAEHJ@Z
	DD	FLAT:?GetDispatchIID@CCmdTarget@@UAEHPAU_GUID@@@Z
	DD	FLAT:?GetTypeInfoCount@CCmdTarget@@UAEIXZ
	DD	FLAT:?GetTypeLibCache@CCmdTarget@@UAEPAVCTypeLibCache@@XZ
	DD	FLAT:?GetTypeLib@CCmdTarget@@UAEJKPAPAUITypeLib@@@Z
	DD	FLAT:?GetMessageMap@CTreeCtrl@@MBEPBUAFX_MSGMAP@@XZ
	DD	FLAT:?GetCommandMap@CCmdTarget@@MBEPBUAFX_OLECMDMAP@@XZ
	DD	FLAT:?GetDispatchMap@CCmdTarget@@MBEPBUAFX_DISPMAP@@XZ
	DD	FLAT:?GetConnectionMap@CCmdTarget@@MBEPBUAFX_CONNECTIONMAP@@XZ
	DD	FLAT:?GetInterfaceMap@CWnd@@MBEPBUAFX_INTERFACEMAP@@XZ
	DD	FLAT:?GetEventSinkMap@CCmdTarget@@MBEPBUAFX_EVENTSINKMAP@@XZ
	DD	FLAT:?OnCreateAggregates@CCmdTarget@@UAEHXZ
	DD	FLAT:?GetInterfaceHook@CCmdTarget@@UAEPAUIUnknown@@PBX@Z
	DD	FLAT:?GetExtraConnectionPoints@CCmdTarget@@MAEHPAVCPtrArray@@@Z
	DD	FLAT:?GetConnectionHook@CCmdTarget@@MAEPAUIConnectionPoint@@ABU_GUID@@@Z
	DD	FLAT:?PreSubclassWindow@CWnd@@UAEXXZ
	DD	FLAT:?Create@CWnd@@UAEHPBD0KABUtagRECT@@PAV1@IPAUCCreateContext@@@Z
	DD	FLAT:?CreateEx@CWnd@@UAEHKPBD0KABUtagRECT@@PAV1@IPAX@Z
	DD	FLAT:?CreateEx@CWnd@@UAEHKPBD0KHHHHPAUHWND__@@PAUHMENU__@@PAX@Z
	DD	FLAT:?DestroyWindow@CWnd@@UAEHXZ
	DD	FLAT:?PreCreateWindow@CWnd@@UAEHAAUtagCREATESTRUCTA@@@Z
	DD	FLAT:?CalcWindowRect@CWnd@@UAEXPAUtagRECT@@I@Z
	DD	FLAT:?GetMenu@CWnd@@UBEPAVCMenu@@XZ
	DD	FLAT:?SetMenu@CWnd@@UAEHPAVCMenu@@@Z
	DD	FLAT:?OnToolHitTest@CWnd@@UBEHVCPoint@@PAUtagTOOLINFOA@@@Z
	DD	FLAT:?GetScrollBarCtrl@CWnd@@UBEPAVCScrollBar@@H@Z
	DD	FLAT:?WinHelpA@CWnd@@UAEXKI@Z
	DD	FLAT:?HtmlHelpA@CWnd@@UAEXKI@Z
	DD	FLAT:?WinHelpInternal@CWnd@@UAEXKI@Z
	DD	FLAT:?ContinueModal@CWnd@@UAEHXZ
	DD	FLAT:?EndModalLoop@CWnd@@UAEXH@Z
	DD	FLAT:?OnDrawIconicThumbnailOrLivePreview@CWnd@@UAEXAAVCDC@@VCRect@@VCSize@@HAAH@Z
	DD	FLAT:?EnsureStdObj@CWnd@@UAEJXZ
	DD	FLAT:?get_accParent@CWnd@@UAEJPAPAUIDispatch@@@Z
	DD	FLAT:?get_accChildCount@CWnd@@UAEJPAJ@Z
	DD	FLAT:?get_accChild@CWnd@@UAEJUtagVARIANT@@PAPAUIDispatch@@@Z
	DD	FLAT:?get_accName@CWnd@@UAEJUtagVARIANT@@PAPA_W@Z
	DD	FLAT:?get_accValue@CWnd@@UAEJUtagVARIANT@@PAPA_W@Z
	DD	FLAT:?get_accDescription@CWnd@@UAEJUtagVARIANT@@PAPA_W@Z
	DD	FLAT:?get_accRole@CWnd@@UAEJUtagVARIANT@@PAU2@@Z
	DD	FLAT:?get_accState@CWnd@@UAEJUtagVARIANT@@PAU2@@Z
	DD	FLAT:?get_accHelp@CWnd@@UAEJUtagVARIANT@@PAPA_W@Z
	DD	FLAT:?get_accHelpTopic@CWnd@@UAEJPAPA_WUtagVARIANT@@PAJ@Z
	DD	FLAT:?get_accKeyboardShortcut@CWnd@@UAEJUtagVARIANT@@PAPA_W@Z
	DD	FLAT:?get_accFocus@CWnd@@UAEJPAUtagVARIANT@@@Z
	DD	FLAT:?get_accSelection@CWnd@@UAEJPAUtagVARIANT@@@Z
	DD	FLAT:?get_accDefaultAction@CWnd@@UAEJUtagVARIANT@@PAPA_W@Z
	DD	FLAT:?accSelect@CWnd@@UAEJJUtagVARIANT@@@Z
	DD	FLAT:?accLocation@CWnd@@UAEJPAJ000UtagVARIANT@@@Z
	DD	FLAT:?accNavigate@CWnd@@UAEJJUtagVARIANT@@PAU2@@Z
	DD	FLAT:?accHitTest@CWnd@@UAEJJJPAUtagVARIANT@@@Z
	DD	FLAT:?accDoDefaultAction@CWnd@@UAEJUtagVARIANT@@@Z
	DD	FLAT:?put_accName@CWnd@@UAEJUtagVARIANT@@PA_W@Z
	DD	FLAT:?put_accValue@CWnd@@UAEJUtagVARIANT@@PA_W@Z
	DD	FLAT:?SetProxy@CWnd@@UAEJPAUIAccessibleProxy@@@Z
	DD	FLAT:?CreateAccessibleProxy@CWnd@@UAEJIJPAJ@Z
	DD	FLAT:?OnCommand@CWnd@@MAEHIJ@Z
	DD	FLAT:?OnNotify@CWnd@@MAEHIJPAJ@Z
	DD	FLAT:?GetSuperWndProcAddr@CWnd@@MAEPAP6GJPAUHWND__@@IIJ@ZXZ
	DD	FLAT:?DoDataExchange@CWnd@@MAEXPAVCDataExchange@@@Z
	DD	FLAT:?BeginModalState@CWnd@@UAEXXZ
	DD	FLAT:?EndModalState@CWnd@@UAEXXZ
	DD	FLAT:?PreTranslateMessage@CWnd@@UAEHPAUtagMSG@@@Z
	DD	FLAT:?OnAmbientProperty@CWnd@@UAEHPAVCOleControlSite@@JPAUtagVARIANT@@@Z
	DD	FLAT:?WindowProc@CWnd@@MAEJIIJ@Z
	DD	FLAT:?OnWndMsg@CWnd@@MAEHIIJPAJ@Z
	DD	FLAT:?DefWindowProcA@CWnd@@MAEJIIJ@Z
	DD	FLAT:?PostNcDestroy@CWnd@@MAEXXZ
	DD	FLAT:?OnChildNotify@CWnd@@MAEHIIJPAJ@Z
	DD	FLAT:?OnTouchInputs@CWnd@@MAEHIPAUtagTOUCHINPUT@@@Z
	DD	FLAT:?OnTouchInput@CWnd@@MAEHVCPoint@@HHPAUtagTOUCHINPUT@@@Z
	DD	FLAT:?GetGestureStatus@CWnd@@MAEKVCPoint@@@Z
	DD	FLAT:?OnGestureZoom@CWnd@@MAEHVCPoint@@J@Z
	DD	FLAT:?OnGesturePan@CWnd@@MAEHVCPoint@@0@Z
	DD	FLAT:?OnGestureRotate@CWnd@@MAEHVCPoint@@N@Z
	DD	FLAT:?OnGestureTwoFingerTap@CWnd@@MAEHVCPoint@@@Z
	DD	FLAT:?OnGesturePressAndTap@CWnd@@MAEHVCPoint@@J@Z
	DD	FLAT:?ResizeDynamicLayout@CWnd@@MAEXXZ
	DD	FLAT:?CheckAutoCenter@CWnd@@UAEHXZ
	DD	FLAT:?IsFrameWnd@CWnd@@UBEHXZ
	DD	FLAT:?CreateControlContainer@CWnd@@MAEHPAPAVCOleControlContainer@@@Z
	DD	FLAT:?CreateControlSite@CWnd@@MAEHPAVCOleControlContainer@@PAPAVCOleControlSite@@IABU_GUID@@@Z
	DD	FLAT:?SetOccDialogInfo@CWnd@@MAEHPAU_AFX_OCC_DIALOG_INFO@@@Z
	DD	FLAT:?GetOccDialogInfo@CWnd@@MAEPAU_AFX_OCC_DIALOG_INFO@@XZ
CONST	ENDS
;	COMDAT ??_C@_00CNPNBAHC@@
CONST	SEGMENT
??_C@_00CNPNBAHC@@ DB 00H				; `string'
CONST	ENDS
;	COMDAT xdata$x
xdata$x	SEGMENT
__ehfuncinfo$??1CMultiLanguageResourceSetter@@QAE@XZ DD 019930522H
	DD	00H
	DD	00H
	DD	2 DUP(00H)
	DD	2 DUP(00H)
	DD	00H
	DD	05H
xdata$x	ENDS
;	COMDAT xdata$x
xdata$x	SEGMENT
__unwindtable$??_GCTreeDropList@@UAEPAXI@Z DD 0ffffffffH
	DD	FLAT:___std_terminate
__ehfuncinfo$??_GCTreeDropList@@UAEPAXI@Z DD 019930522H
	DD	01H
	DD	FLAT:__unwindtable$??_GCTreeDropList@@UAEPAXI@Z
	DD	2 DUP(00H)
	DD	2 DUP(00H)
	DD	00H
	DD	05H
xdata$x	ENDS
;	COMDAT xdata$x
xdata$x	SEGMENT
__unwindtable$?OnKillfocus@CTreeDropList@@IAEXPAUtagNMHDR@@PAJ@Z DD 0ffffffffH
	DD	FLAT:__unwindfunclet$?OnKillfocus@CTreeDropList@@IAEXPAUtagNMHDR@@PAJ@Z$1
	DD	00H
	DD	FLAT:__unwindfunclet$?OnKillfocus@CTreeDropList@@IAEXPAUtagNMHDR@@PAJ@Z$2
	DD	01H
	DD	FLAT:__unwindfunclet$?OnKillfocus@CTreeDropList@@IAEXPAUtagNMHDR@@PAJ@Z$3
	DD	02H
	DD	FLAT:__unwindfunclet$?OnKillfocus@CTreeDropList@@IAEXPAUtagNMHDR@@PAJ@Z$5
__ehfuncinfo$?OnKillfocus@CTreeDropList@@IAEXPAUtagNMHDR@@PAJ@Z DD 019930522H
	DD	04H
	DD	FLAT:__unwindtable$?OnKillfocus@CTreeDropList@@IAEXPAUtagNMHDR@@PAJ@Z
	DD	2 DUP(00H)
	DD	2 DUP(00H)
	DD	00H
	DD	01H
xdata$x	ENDS
;	COMDAT xdata$x
xdata$x	SEGMENT
__ehfuncinfo$??1CTreeDropList@@UAE@XZ DD 019930522H
	DD	00H
	DD	00H
	DD	2 DUP(00H)
	DD	2 DUP(00H)
	DD	00H
	DD	05H
xdata$x	ENDS
;	COMDAT xdata$x
xdata$x	SEGMENT
__unwindtable$?AddItem@CTreeDropList@@QAEPAU_TREEITEM@@PAU2@PAD111@Z DD 0ffffffffH
	DD	FLAT:__unwindfunclet$?AddItem@CTreeDropList@@QAEPAU_TREEITEM@@PAU2@PAD111@Z$0
__ehfuncinfo$?AddItem@CTreeDropList@@QAEPAU_TREEITEM@@PAU2@PAD111@Z DD 019930522H
	DD	01H
	DD	FLAT:__unwindtable$?AddItem@CTreeDropList@@QAEPAU_TREEITEM@@PAU2@PAD111@Z
	DD	2 DUP(00H)
	DD	2 DUP(00H)
	DD	00H
	DD	01H
xdata$x	ENDS
;	COMDAT xdata$x
xdata$x	SEGMENT
__unwindtable$?AddPacket@CTreeDropList@@QAEPAU_TREEITEM@@PAD0@Z DD 0ffffffffH
	DD	FLAT:__unwindfunclet$?AddPacket@CTreeDropList@@QAEPAU_TREEITEM@@PAD0@Z$0
__ehfuncinfo$?AddPacket@CTreeDropList@@QAEPAU_TREEITEM@@PAD0@Z DD 019930522H
	DD	01H
	DD	FLAT:__unwindtable$?AddPacket@CTreeDropList@@QAEPAU_TREEITEM@@PAD0@Z
	DD	2 DUP(00H)
	DD	2 DUP(00H)
	DD	00H
	DD	01H
xdata$x	ENDS
;	COMDAT xdata$x
xdata$x	SEGMENT
__unwindtable$?OnSelection@CTreeDropList@@IAEXXZ DD 0ffffffffH
	DD	FLAT:__unwindfunclet$?OnSelection@CTreeDropList@@IAEXXZ$0
	DD	00H
	DD	FLAT:__unwindfunclet$?OnSelection@CTreeDropList@@IAEXXZ$1
__ehfuncinfo$?OnSelection@CTreeDropList@@IAEXXZ DD 019930522H
	DD	02H
	DD	FLAT:__unwindtable$?OnSelection@CTreeDropList@@IAEXXZ
	DD	2 DUP(00H)
	DD	2 DUP(00H)
	DD	00H
	DD	01H
xdata$x	ENDS
;	COMDAT xdata$x
xdata$x	SEGMENT
__ehfuncinfo$?LoadTableInfo@CTreeDropList@@IAEHV?$CStringT@DV?$StrTraitMFC_DLL@DV?$ChTraitsCRT@D@ATL@@@@@ATL@@@Z DD 019930522H
	DD	06H
	DD	FLAT:__unwindtable$?LoadTableInfo@CTreeDropList@@IAEHV?$CStringT@DV?$StrTraitMFC_DLL@DV?$ChTraitsCRT@D@ATL@@@@@ATL@@@Z
	DD	2 DUP(00H)
	DD	2 DUP(00H)
	DD	00H
	DD	01H
__unwindtable$?LoadTableInfo@CTreeDropList@@IAEHV?$CStringT@DV?$StrTraitMFC_DLL@DV?$ChTraitsCRT@D@ATL@@@@@ATL@@@Z DD 0ffffffffH
	DD	FLAT:__unwindfunclet$?LoadTableInfo@CTreeDropList@@IAEHV?$CStringT@DV?$StrTraitMFC_DLL@DV?$ChTraitsCRT@D@ATL@@@@@ATL@@@Z$0
	DD	00H
	DD	FLAT:__unwindfunclet$?LoadTableInfo@CTreeDropList@@IAEHV?$CStringT@DV?$StrTraitMFC_DLL@DV?$ChTraitsCRT@D@ATL@@@@@ATL@@@Z$1
	DD	01H
	DD	FLAT:__unwindfunclet$?LoadTableInfo@CTreeDropList@@IAEHV?$CStringT@DV?$StrTraitMFC_DLL@DV?$ChTraitsCRT@D@ATL@@@@@ATL@@@Z$2
	DD	02H
	DD	FLAT:__unwindfunclet$?LoadTableInfo@CTreeDropList@@IAEHV?$CStringT@DV?$StrTraitMFC_DLL@DV?$ChTraitsCRT@D@ATL@@@@@ATL@@@Z$3
	DD	00H
	DD	FLAT:___std_terminate
	DD	00H
	DD	FLAT:__unwindfunclet$?LoadTableInfo@CTreeDropList@@IAEHV?$CStringT@DV?$StrTraitMFC_DLL@DV?$ChTraitsCRT@D@ATL@@@@@ATL@@@Z$4
xdata$x	ENDS
;	COMDAT xdata$x
xdata$x	SEGMENT
__ehfuncinfo$?Parsing@CTreeDropList@@IAEHXZ DD 019930522H
	DD	0aH
	DD	FLAT:__unwindtable$?Parsing@CTreeDropList@@IAEHXZ
	DD	2 DUP(00H)
	DD	2 DUP(00H)
	DD	00H
	DD	01H
__unwindtable$?Parsing@CTreeDropList@@IAEHXZ DD 0ffffffffH
	DD	FLAT:__unwindfunclet$?Parsing@CTreeDropList@@IAEHXZ$0
	DD	00H
	DD	FLAT:__unwindfunclet$?Parsing@CTreeDropList@@IAEHXZ$1
	DD	01H
	DD	FLAT:__unwindfunclet$?Parsing@CTreeDropList@@IAEHXZ$2
	DD	01H
	DD	FLAT:__unwindfunclet$?Parsing@CTreeDropList@@IAEHXZ$8
	DD	01H
	DD	FLAT:__unwindfunclet$?Parsing@CTreeDropList@@IAEHXZ$3
	DD	01H
	DD	FLAT:__unwindfunclet$?Parsing@CTreeDropList@@IAEHXZ$4
	DD	01H
	DD	FLAT:__unwindfunclet$?Parsing@CTreeDropList@@IAEHXZ$5
	DD	01H
	DD	FLAT:__unwindfunclet$?Parsing@CTreeDropList@@IAEHXZ$6
	DD	01H
	DD	FLAT:__unwindfunclet$?Parsing@CTreeDropList@@IAEHXZ$7
	DD	01H
	DD	FLAT:__unwindfunclet$?Parsing@CTreeDropList@@IAEHXZ$9
xdata$x	ENDS
;	COMDAT xdata$x
xdata$x	SEGMENT
__unwindtable$?CutString@CTreeDropList@@IAEPADPAD0@Z DD 0ffffffffH
	DD	FLAT:__unwindfunclet$?CutString@CTreeDropList@@IAEPADPAD0@Z$0
	DD	00H
	DD	FLAT:__unwindfunclet$?CutString@CTreeDropList@@IAEPADPAD0@Z$1
	DD	01H
	DD	FLAT:__unwindfunclet$?CutString@CTreeDropList@@IAEPADPAD0@Z$2
	DD	01H
	DD	FLAT:__unwindfunclet$?CutString@CTreeDropList@@IAEPADPAD0@Z$3
__ehfuncinfo$?CutString@CTreeDropList@@IAEPADPAD0@Z DD 019930522H
	DD	04H
	DD	FLAT:__unwindtable$?CutString@CTreeDropList@@IAEPADPAD0@Z
	DD	2 DUP(00H)
	DD	2 DUP(00H)
	DD	00H
	DD	01H
xdata$x	ENDS
;	COMDAT xdata$x
xdata$x	SEGMENT
__ehfuncinfo$?GetTreePath@CTreeDropList@@IAE?AV?$CStringT@DV?$StrTraitMFC_DLL@DV?$ChTraitsCRT@D@ATL@@@@@ATL@@PAU_TREEITEM@@@Z DD 019930522H
	DD	0cH
	DD	FLAT:__unwindtable$?GetTreePath@CTreeDropList@@IAE?AV?$CStringT@DV?$StrTraitMFC_DLL@DV?$ChTraitsCRT@D@ATL@@@@@ATL@@PAU_TREEITEM@@@Z
	DD	2 DUP(00H)
	DD	2 DUP(00H)
	DD	00H
	DD	01H
__unwindtable$?GetTreePath@CTreeDropList@@IAE?AV?$CStringT@DV?$StrTraitMFC_DLL@DV?$ChTraitsCRT@D@ATL@@@@@ATL@@PAU_TREEITEM@@@Z DD 0ffffffffH
	DD	FLAT:__unwindfunclet$?GetTreePath@CTreeDropList@@IAE?AV?$CStringT@DV?$StrTraitMFC_DLL@DV?$ChTraitsCRT@D@ATL@@@@@ATL@@PAU_TREEITEM@@@Z$1
	DD	00H
	DD	FLAT:__unwindfunclet$?GetTreePath@CTreeDropList@@IAE?AV?$CStringT@DV?$StrTraitMFC_DLL@DV?$ChTraitsCRT@D@ATL@@@@@ATL@@PAU_TREEITEM@@@Z$0
	DD	01H
	DD	FLAT:__unwindfunclet$?GetTreePath@CTreeDropList@@IAE?AV?$CStringT@DV?$StrTraitMFC_DLL@DV?$ChTraitsCRT@D@ATL@@@@@ATL@@PAU_TREEITEM@@@Z$2
	DD	01H
	DD	FLAT:__unwindfunclet$?GetTreePath@CTreeDropList@@IAE?AV?$CStringT@DV?$StrTraitMFC_DLL@DV?$ChTraitsCRT@D@ATL@@@@@ATL@@PAU_TREEITEM@@@Z$3
	DD	01H
	DD	FLAT:__unwindfunclet$?GetTreePath@CTreeDropList@@IAE?AV?$CStringT@DV?$StrTraitMFC_DLL@DV?$ChTraitsCRT@D@ATL@@@@@ATL@@PAU_TREEITEM@@@Z$4
	DD	01H
	DD	FLAT:__unwindfunclet$?GetTreePath@CTreeDropList@@IAE?AV?$CStringT@DV?$StrTraitMFC_DLL@DV?$ChTraitsCRT@D@ATL@@@@@ATL@@PAU_TREEITEM@@@Z$5
	DD	01H
	DD	FLAT:__unwindfunclet$?GetTreePath@CTreeDropList@@IAE?AV?$CStringT@DV?$StrTraitMFC_DLL@DV?$ChTraitsCRT@D@ATL@@@@@ATL@@PAU_TREEITEM@@@Z$6
	DD	01H
	DD	FLAT:__unwindfunclet$?GetTreePath@CTreeDropList@@IAE?AV?$CStringT@DV?$StrTraitMFC_DLL@DV?$ChTraitsCRT@D@ATL@@@@@ATL@@PAU_TREEITEM@@@Z$7
	DD	01H
	DD	FLAT:__unwindfunclet$?GetTreePath@CTreeDropList@@IAE?AV?$CStringT@DV?$StrTraitMFC_DLL@DV?$ChTraitsCRT@D@ATL@@@@@ATL@@PAU_TREEITEM@@@Z$12
	DD	01H
	DD	FLAT:__unwindfunclet$?GetTreePath@CTreeDropList@@IAE?AV?$CStringT@DV?$StrTraitMFC_DLL@DV?$ChTraitsCRT@D@ATL@@@@@ATL@@PAU_TREEITEM@@@Z$9
	DD	01H
	DD	FLAT:__unwindfunclet$?GetTreePath@CTreeDropList@@IAE?AV?$CStringT@DV?$StrTraitMFC_DLL@DV?$ChTraitsCRT@D@ATL@@@@@ATL@@PAU_TREEITEM@@@Z$10
	DD	01H
	DD	FLAT:__unwindfunclet$?GetTreePath@CTreeDropList@@IAE?AV?$CStringT@DV?$StrTraitMFC_DLL@DV?$ChTraitsCRT@D@ATL@@@@@ATL@@PAU_TREEITEM@@@Z$11
xdata$x	ENDS
;	COMDAT xdata$x
xdata$x	SEGMENT
__unwindtable$?SelectString@CTreeDropList@@IAEPAU_TREEITEM@@PBDPAU2@@Z DD 0ffffffffH
	DD	FLAT:__unwindfunclet$?SelectString@CTreeDropList@@IAEPAU_TREEITEM@@PBDPAU2@@Z$1
	DD	00H
	DD	FLAT:__unwindfunclet$?SelectString@CTreeDropList@@IAEPAU_TREEITEM@@PBDPAU2@@Z$2
	DD	01H
	DD	FLAT:__unwindfunclet$?SelectString@CTreeDropList@@IAEPAU_TREEITEM@@PBDPAU2@@Z$3
	DD	02H
	DD	FLAT:__unwindfunclet$?SelectString@CTreeDropList@@IAEPAU_TREEITEM@@PBDPAU2@@Z$5
__ehfuncinfo$?SelectString@CTreeDropList@@IAEPAU_TREEITEM@@PBDPAU2@@Z DD 019930522H
	DD	04H
	DD	FLAT:__unwindtable$?SelectString@CTreeDropList@@IAEPAU_TREEITEM@@PBDPAU2@@Z
	DD	2 DUP(00H)
	DD	2 DUP(00H)
	DD	00H
	DD	01H
xdata$x	ENDS
;	COMDAT xdata$x
xdata$x	SEGMENT
__unwindtable$?FindString@CTreeDropList@@IAEPAU_TREEITEM@@V?$CStringT@DV?$StrTraitMFC_DLL@DV?$ChTraitsCRT@D@ATL@@@@@ATL@@PAU2@@Z DD 0ffffffffH
	DD	FLAT:__unwindfunclet$?FindString@CTreeDropList@@IAEPAU_TREEITEM@@V?$CStringT@DV?$StrTraitMFC_DLL@DV?$ChTraitsCRT@D@ATL@@@@@ATL@@PAU2@@Z$0
	DD	00H
	DD	FLAT:__unwindfunclet$?FindString@CTreeDropList@@IAEPAU_TREEITEM@@V?$CStringT@DV?$StrTraitMFC_DLL@DV?$ChTraitsCRT@D@ATL@@@@@ATL@@PAU2@@Z$1
	DD	01H
	DD	FLAT:__unwindfunclet$?FindString@CTreeDropList@@IAEPAU_TREEITEM@@V?$CStringT@DV?$StrTraitMFC_DLL@DV?$ChTraitsCRT@D@ATL@@@@@ATL@@PAU2@@Z$2
	DD	02H
	DD	FLAT:__unwindfunclet$?FindString@CTreeDropList@@IAEPAU_TREEITEM@@V?$CStringT@DV?$StrTraitMFC_DLL@DV?$ChTraitsCRT@D@ATL@@@@@ATL@@PAU2@@Z$4
__ehfuncinfo$?FindString@CTreeDropList@@IAEPAU_TREEITEM@@V?$CStringT@DV?$StrTraitMFC_DLL@DV?$ChTraitsCRT@D@ATL@@@@@ATL@@PAU2@@Z DD 019930522H
	DD	04H
	DD	FLAT:__unwindtable$?FindString@CTreeDropList@@IAEPAU_TREEITEM@@V?$CStringT@DV?$StrTraitMFC_DLL@DV?$ChTraitsCRT@D@ATL@@@@@ATL@@PAU2@@Z
	DD	2 DUP(00H)
	DD	2 DUP(00H)
	DD	00H
	DD	01H
xdata$x	ENDS
;	COMDAT xdata$x
xdata$x	SEGMENT
__unwindtable$?FindString@CTreeDropList@@IAEPAU_TREEITEM@@PAU2@V?$CStringT@DV?$StrTraitMFC_DLL@DV?$ChTraitsCRT@D@ATL@@@@@ATL@@AAPAU2@AAV34@3@Z DD 0ffffffffH
	DD	FLAT:__unwindfunclet$?FindString@CTreeDropList@@IAEPAU_TREEITEM@@PAU2@V?$CStringT@DV?$StrTraitMFC_DLL@DV?$ChTraitsCRT@D@ATL@@@@@ATL@@AAPAU2@AAV34@3@Z$0
__ehfuncinfo$?FindString@CTreeDropList@@IAEPAU_TREEITEM@@PAU2@V?$CStringT@DV?$StrTraitMFC_DLL@DV?$ChTraitsCRT@D@ATL@@@@@ATL@@AAPAU2@AAV34@3@Z DD 019930522H
	DD	01H
	DD	FLAT:__unwindtable$?FindString@CTreeDropList@@IAEPAU_TREEITEM@@PAU2@V?$CStringT@DV?$StrTraitMFC_DLL@DV?$ChTraitsCRT@D@ATL@@@@@ATL@@AAPAU2@AAV34@3@Z
	DD	2 DUP(00H)
	DD	2 DUP(00H)
	DD	00H
	DD	01H
xdata$x	ENDS
;	COMDAT xdata$x
xdata$x	SEGMENT
__unwindtable$?MatchSibling@CTreeDropList@@IAEPAU_TREEITEM@@PAU2@AAV?$CStringT@DV?$StrTraitMFC_DLL@DV?$ChTraitsCRT@D@ATL@@@@@ATL@@@Z DD 0ffffffffH
	DD	FLAT:__unwindfunclet$?MatchSibling@CTreeDropList@@IAEPAU_TREEITEM@@PAU2@AAV?$CStringT@DV?$StrTraitMFC_DLL@DV?$ChTraitsCRT@D@ATL@@@@@ATL@@@Z$0
	DD	00H
	DD	FLAT:__unwindfunclet$?MatchSibling@CTreeDropList@@IAEPAU_TREEITEM@@PAU2@AAV?$CStringT@DV?$StrTraitMFC_DLL@DV?$ChTraitsCRT@D@ATL@@@@@ATL@@@Z$1
__ehfuncinfo$?MatchSibling@CTreeDropList@@IAEPAU_TREEITEM@@PAU2@AAV?$CStringT@DV?$StrTraitMFC_DLL@DV?$ChTraitsCRT@D@ATL@@@@@ATL@@@Z DD 019930522H
	DD	02H
	DD	FLAT:__unwindtable$?MatchSibling@CTreeDropList@@IAEPAU_TREEITEM@@PAU2@AAV?$CStringT@DV?$StrTraitMFC_DLL@DV?$ChTraitsCRT@D@ATL@@@@@ATL@@@Z
	DD	2 DUP(00H)
	DD	2 DUP(00H)
	DD	00H
	DD	01H
xdata$x	ENDS
;	COMDAT xdata$x
xdata$x	SEGMENT
__unwindtable$?SplitPath@CTreeDropList@@IAEXABV?$CStringT@DV?$StrTraitMFC_DLL@DV?$ChTraitsCRT@D@ATL@@@@@ATL@@AAV23@1@Z DD 0ffffffffH
	DD	FLAT:__unwindfunclet$?SplitPath@CTreeDropList@@IAEXABV?$CStringT@DV?$StrTraitMFC_DLL@DV?$ChTraitsCRT@D@ATL@@@@@ATL@@AAV23@1@Z$0
	DD	0ffffffffH
	DD	FLAT:__unwindfunclet$?SplitPath@CTreeDropList@@IAEXABV?$CStringT@DV?$StrTraitMFC_DLL@DV?$ChTraitsCRT@D@ATL@@@@@ATL@@AAV23@1@Z$1
__ehfuncinfo$?SplitPath@CTreeDropList@@IAEXABV?$CStringT@DV?$StrTraitMFC_DLL@DV?$ChTraitsCRT@D@ATL@@@@@ATL@@AAV23@1@Z DD 019930522H
	DD	02H
	DD	FLAT:__unwindtable$?SplitPath@CTreeDropList@@IAEXABV?$CStringT@DV?$StrTraitMFC_DLL@DV?$ChTraitsCRT@D@ATL@@@@@ATL@@AAV23@1@Z
	DD	2 DUP(00H)
	DD	2 DUP(00H)
	DD	00H
	DD	01H
xdata$x	ENDS
;	COMDAT xdata$x
xdata$x	SEGMENT
__unwindtable$??0CTreeDropList@@QAE@XZ DD 0ffffffffH
	DD	FLAT:__unwindfunclet$??0CTreeDropList@@QAE@XZ$0
__ehfuncinfo$??0CTreeDropList@@QAE@XZ DD 019930522H
	DD	01H
	DD	FLAT:__unwindtable$??0CTreeDropList@@QAE@XZ
	DD	2 DUP(00H)
	DD	2 DUP(00H)
	DD	00H
	DD	01H
xdata$x	ENDS
;	COMDAT xdata$x
xdata$x	SEGMENT
__unwindtable$??HATL@@YA?AV?$CStringT@DV?$StrTraitMFC_DLL@DV?$ChTraitsCRT@D@ATL@@@@@0@ABV10@PBD@Z DD 0ffffffffH
	DD	FLAT:__unwindfunclet$??HATL@@YA?AV?$CStringT@DV?$StrTraitMFC_DLL@DV?$ChTraitsCRT@D@ATL@@@@@0@ABV10@PBD@Z$0
__ehfuncinfo$??HATL@@YA?AV?$CStringT@DV?$StrTraitMFC_DLL@DV?$ChTraitsCRT@D@ATL@@@@@0@ABV10@PBD@Z DD 019930522H
	DD	01H
	DD	FLAT:__unwindtable$??HATL@@YA?AV?$CStringT@DV?$StrTraitMFC_DLL@DV?$ChTraitsCRT@D@ATL@@@@@0@ABV10@PBD@Z
	DD	2 DUP(00H)
	DD	2 DUP(00H)
	DD	00H
	DD	01H
xdata$x	ENDS
; Function compile flags: /Ogtp
; File D:\git\src\IBK\IBK_DRFN\ProjSrc\SrcChartEx\ChartAddIn\ChartDesignPropertyAddIn\Include_Chart\DLL_Load\IMetaTable.h
; File C:\Program Files (x86)\Microsoft Visual Studio\2019\Community\VC\Tools\MSVC\14.29.30133\atlmfc\include\afxwin1.inl
; File D:\git\src\IBK\IBK_DRFN\ProjSrc\SrcChartEx\ChartAddIn\ChartDesignPropertyAddIn\Include_Chart\DLL_Load\IMetaTable.h
;	COMDAT ??1CMultiLanguageResourceSetter@@QAE@XZ
_TEXT	SEGMENT
__$EHRec$ = -12						; size = 12
??1CMultiLanguageResourceSetter@@QAE@XZ PROC		; CMultiLanguageResourceSetter::~CMultiLanguageResourceSetter, COMDAT
; _this$ = ecx

; 1036 : 	{

  00000	55		 push	 ebp
  00001	8b ec		 mov	 ebp, esp
  00003	6a ff		 push	 -1
  00005	68 00 00 00 00	 push	 __ehhandler$??1CMultiLanguageResourceSetter@@QAE@XZ
  0000a	64 a1 00 00 00
	00		 mov	 eax, DWORD PTR fs:0
  00010	50		 push	 eax
  00011	56		 push	 esi
  00012	a1 00 00 00 00	 mov	 eax, DWORD PTR ___security_cookie
  00017	33 c5		 xor	 eax, ebp
  00019	50		 push	 eax
  0001a	8d 45 f4	 lea	 eax, DWORD PTR __$EHRec$[ebp]
  0001d	64 a3 00 00 00
	00		 mov	 DWORD PTR fs:0, eax

; 1037 : 		AfxSetResourceHandle( m_hInstance);

  00023	8b 31		 mov	 esi, DWORD PTR [ecx]
; File C:\Program Files (x86)\Microsoft Visual Studio\2019\Community\VC\Tools\MSVC\14.29.30133\atlmfc\include\afxwin1.inl

; 27   : 	{ ASSERT(hInstResource != NULL); afxCurrentResourceHandle = hInstResource; }

  00025	e8 00 00 00 00	 call	 ?AfxGetModuleState@@YGPAVAFX_MODULE_STATE@@XZ ; AfxGetModuleState
  0002a	89 70 0c	 mov	 DWORD PTR [eax+12], esi
; File D:\git\src\IBK\IBK_DRFN\ProjSrc\SrcChartEx\ChartAddIn\ChartDesignPropertyAddIn\Include_Chart\DLL_Load\IMetaTable.h

; 1038 : 	}

  0002d	8b 4d f4	 mov	 ecx, DWORD PTR __$EHRec$[ebp]
  00030	64 89 0d 00 00
	00 00		 mov	 DWORD PTR fs:0, ecx
  00037	59		 pop	 ecx
  00038	5e		 pop	 esi
  00039	8b e5		 mov	 esp, ebp
  0003b	5d		 pop	 ebp
  0003c	c3		 ret	 0
  0003d	cc		 int	 3
  0003e	cc		 int	 3
  0003f	cc		 int	 3
  00040	cc		 int	 3
  00041	cc		 int	 3
_TEXT	ENDS
;	COMDAT text$x
text$x	SEGMENT
__ehhandler$??1CMultiLanguageResourceSetter@@QAE@XZ:
  00000	90		 npad	 1
  00001	90		 npad	 1
  00002	8b 54 24 08	 mov	 edx, DWORD PTR [esp+8]
  00006	8d 42 0c	 lea	 eax, DWORD PTR [edx+12]
  00009	8b 4a f8	 mov	 ecx, DWORD PTR [edx-8]
  0000c	33 c8		 xor	 ecx, eax
  0000e	e8 00 00 00 00	 call	 @__security_check_cookie@4
  00013	b8 00 00 00 00	 mov	 eax, OFFSET __ehfuncinfo$??1CMultiLanguageResourceSetter@@QAE@XZ
  00018	e9 00 00 00 00	 jmp	 ___CxxFrameHandler3
text$x	ENDS
??1CMultiLanguageResourceSetter@@QAE@XZ ENDP		; CMultiLanguageResourceSetter::~CMultiLanguageResourceSetter
; Function compile flags: /Ogtp
; File D:\git\src\IBK\IBK_DRFN\ProjSrc\SrcChartEx\ChartAddIn\ChartDesignPropertyAddIn\ChartDesignPropertyAddIn\TreeDropList.cpp
; File C:\Program Files (x86)\Microsoft Visual Studio\2019\Community\VC\Tools\MSVC\14.29.30133\atlmfc\include\afx.inl
;	COMDAT ??_GCTreeDropList@@UAEPAXI@Z
_TEXT	SEGMENT
__$EHRec$ = -12						; size = 12
___flags$ = 8						; size = 4
??_GCTreeDropList@@UAEPAXI@Z PROC			; CTreeDropList::`scalar deleting destructor', COMDAT
; _this$ = ecx
  00000	55		 push	 ebp
  00001	8b ec		 mov	 ebp, esp
  00003	6a ff		 push	 -1
  00005	68 00 00 00 00	 push	 __ehhandler$??_GCTreeDropList@@UAEPAXI@Z
  0000a	64 a1 00 00 00
	00		 mov	 eax, DWORD PTR fs:0
  00010	50		 push	 eax
  00011	56		 push	 esi
  00012	57		 push	 edi
  00013	a1 00 00 00 00	 mov	 eax, DWORD PTR ___security_cookie
  00018	33 c5		 xor	 eax, ebp
  0001a	50		 push	 eax
  0001b	8d 45 f4	 lea	 eax, DWORD PTR __$EHRec$[ebp]
  0001e	64 a3 00 00 00
	00		 mov	 DWORD PTR fs:0, eax
  00024	8b f9		 mov	 edi, ecx
; File D:\git\src\IBK\IBK_DRFN\ProjSrc\SrcChartEx\ChartAddIn\ChartDesignPropertyAddIn\ChartDesignPropertyAddIn\TreeDropList.cpp

; 39   : 	m_stringList.RemoveAll();

  00026	8d 8f 80 00 00
	00		 lea	 ecx, DWORD PTR [edi+128]
  0002c	c7 45 fc 00 00
	00 00		 mov	 DWORD PTR __$EHRec$[ebp+8], 0
  00033	c7 07 00 00 00
	00		 mov	 DWORD PTR [edi], OFFSET ??_7CTreeDropList@@6B@
  00039	e8 00 00 00 00	 call	 ?RemoveAll@CStringList@@QAEXXZ ; CStringList::RemoveAll

; 40   : }

  0003e	8d 8f 80 00 00
	00		 lea	 ecx, DWORD PTR [edi+128]
  00044	e8 00 00 00 00	 call	 ??1CStringList@@UAE@XZ	; CStringList::~CStringList
  00049	8b cf		 mov	 ecx, edi
  0004b	e8 00 00 00 00	 call	 ??1CTreeCtrl@@UAE@XZ	; CTreeCtrl::~CTreeCtrl
  00050	8b 45 08	 mov	 eax, DWORD PTR ___flags$[ebp]
  00053	a8 01		 test	 al, 1
  00055	74 1d		 je	 SHORT $LN12@scalar
  00057	a8 04		 test	 al, 4
  00059	75 0b		 jne	 SHORT $LN3@scalar
; File C:\Program Files (x86)\Microsoft Visual Studio\2019\Community\VC\Tools\MSVC\14.29.30133\atlmfc\include\afx.inl

; 112  : 	{ ::operator delete(p); }

  0005b	57		 push	 edi
  0005c	e8 00 00 00 00	 call	 ??3@YAXPAX@Z		; operator delete
  00061	83 c4 04	 add	 esp, 4
  00064	eb 0e		 jmp	 SHORT $LN12@scalar
$LN3@scalar:
  00066	68 b0 00 00 00	 push	 176			; 000000b0H
  0006b	57		 push	 edi
  0006c	e8 00 00 00 00	 call	 ?__global_delete@@YAXPAXI@Z ; __global_delete
  00071	83 c4 08	 add	 esp, 8
$LN12@scalar:
  00074	8b c7		 mov	 eax, edi
  00076	8b 4d f4	 mov	 ecx, DWORD PTR __$EHRec$[ebp]
  00079	64 89 0d 00 00
	00 00		 mov	 DWORD PTR fs:0, ecx
  00080	59		 pop	 ecx
  00081	5f		 pop	 edi
  00082	5e		 pop	 esi
  00083	8b e5		 mov	 esp, ebp
  00085	5d		 pop	 ebp
  00086	c2 04 00	 ret	 4
  00089	cc		 int	 3
  0008a	cc		 int	 3
  0008b	cc		 int	 3
  0008c	cc		 int	 3
  0008d	cc		 int	 3
_TEXT	ENDS
;	COMDAT text$x
text$x	SEGMENT
__ehhandler$??_GCTreeDropList@@UAEPAXI@Z:
  00000	90		 npad	 1
  00001	90		 npad	 1
  00002	8b 54 24 08	 mov	 edx, DWORD PTR [esp+8]
  00006	8d 42 0c	 lea	 eax, DWORD PTR [edx+12]
  00009	8b 4a f4	 mov	 ecx, DWORD PTR [edx-12]
  0000c	33 c8		 xor	 ecx, eax
  0000e	e8 00 00 00 00	 call	 @__security_check_cookie@4
  00013	b8 00 00 00 00	 mov	 eax, OFFSET __ehfuncinfo$??_GCTreeDropList@@UAEPAXI@Z
  00018	e9 00 00 00 00	 jmp	 ___CxxFrameHandler3
text$x	ENDS
??_GCTreeDropList@@UAEPAXI@Z ENDP			; CTreeDropList::`scalar deleting destructor'
; Function compile flags: /Ogtp
; File D:\git\src\IBK\IBK_DRFN\ProjSrc\SrcChartEx\ChartAddIn\ChartDesignPropertyAddIn\ChartDesignPropertyAddIn\TreeDropList.cpp
;	COMDAT ?GetMessageMap@CTreeDropList@@MBEPBUAFX_MSGMAP@@XZ
_TEXT	SEGMENT
?GetMessageMap@CTreeDropList@@MBEPBUAFX_MSGMAP@@XZ PROC	; CTreeDropList::GetMessageMap, COMDAT
; _this$ = ecx

; 43   : BEGIN_MESSAGE_MAP(CTreeDropList, CTreeCtrl)

  00000	b8 00 00 00 00	 mov	 eax, OFFSET ?messageMap@?1??GetThisMessageMap@CTreeDropList@@KGPBUAFX_MSGMAP@@XZ@4U3@B
  00005	c3		 ret	 0
?GetMessageMap@CTreeDropList@@MBEPBUAFX_MSGMAP@@XZ ENDP	; CTreeDropList::GetMessageMap
_TEXT	ENDS
; Function compile flags: /Ogtp
; File D:\git\src\IBK\IBK_DRFN\ProjSrc\SrcChartEx\ChartAddIn\ChartDesignPropertyAddIn\ChartDesignPropertyAddIn\TreeDropList.cpp
;	COMDAT ?GetThisMessageMap@CTreeDropList@@KGPBUAFX_MSGMAP@@XZ
_TEXT	SEGMENT
?GetThisMessageMap@CTreeDropList@@KGPBUAFX_MSGMAP@@XZ PROC ; CTreeDropList::GetThisMessageMap, COMDAT

; 44   : 	//{{AFX_MSG_MAP(CTreeDropList)
; 45   : 	ON_NOTIFY_REFLECT(NM_KILLFOCUS, OnKillfocus)
; 46   : 	ON_WM_CHAR()
; 47   : 	ON_WM_LBUTTONDBLCLK()
; 48   : 	ON_NOTIFY_REFLECT(NM_SETFOCUS, OnSetfocus)
; 49   : 	ON_NOTIFY_REFLECT(TVN_SELCHANGED, OnSelchanged)
; 50   : 	//}}AFX_MSG_MAP
; 51   : END_MESSAGE_MAP()

  00000	b8 00 00 00 00	 mov	 eax, OFFSET ?messageMap@?1??GetThisMessageMap@CTreeDropList@@KGPBUAFX_MSGMAP@@XZ@4U3@B
  00005	c3		 ret	 0
?GetThisMessageMap@CTreeDropList@@KGPBUAFX_MSGMAP@@XZ ENDP ; CTreeDropList::GetThisMessageMap
_TEXT	ENDS
; Function compile flags: /Ogtp
; File D:\git\src\IBK\IBK_DRFN\ProjSrc\SrcChartEx\ChartAddIn\ChartDesignPropertyAddIn\ChartDesignPropertyAddIn\TreeDropList.cpp
; File C:\Program Files (x86)\Microsoft Visual Studio\2019\Community\VC\Tools\MSVC\14.29.30133\atlmfc\include\afxcmn.inl
; File D:\git\src\IBK\IBK_DRFN\ProjSrc\SrcChartEx\ChartAddIn\ChartDesignPropertyAddIn\ChartDesignPropertyAddIn\TreeDropList.cpp
; File C:\Program Files (x86)\Microsoft Visual Studio\2019\Community\VC\Tools\MSVC\14.29.30133\atlmfc\include\afxcmn.inl
; File D:\git\src\IBK\IBK_DRFN\ProjSrc\SrcChartEx\ChartAddIn\ChartDesignPropertyAddIn\ChartDesignPropertyAddIn\TreeDropList.cpp
;	COMDAT ?OnSelchanged@CTreeDropList@@IAEXPAUtagNMHDR@@PAJ@Z
_TEXT	SEGMENT
_pNMHDR$ = 8						; size = 4
_pResult$ = 12						; size = 4
?OnSelchanged@CTreeDropList@@IAEXPAUtagNMHDR@@PAJ@Z PROC ; CTreeDropList::OnSelchanged, COMDAT
; _this$ = ecx

; 131  : {

  00000	55		 push	 ebp
  00001	8b ec		 mov	 ebp, esp
  00003	56		 push	 esi
; File C:\Program Files (x86)\Microsoft Visual Studio\2019\Community\VC\Tools\MSVC\14.29.30133\atlmfc\include\afxcmn.inl

; 316  : 	{ ASSERT(::IsWindow(m_hWnd)); return (HTREEITEM)::SendMessage(m_hWnd, TVM_GETNEXTITEM, TVGN_CARET, 0); }

  00004	6a 00		 push	 0
; File D:\git\src\IBK\IBK_DRFN\ProjSrc\SrcChartEx\ChartAddIn\ChartDesignPropertyAddIn\ChartDesignPropertyAddIn\TreeDropList.cpp

; 131  : {

  00006	8b f1		 mov	 esi, ecx
; File C:\Program Files (x86)\Microsoft Visual Studio\2019\Community\VC\Tools\MSVC\14.29.30133\atlmfc\include\afxcmn.inl

; 316  : 	{ ASSERT(::IsWindow(m_hWnd)); return (HTREEITEM)::SendMessage(m_hWnd, TVM_GETNEXTITEM, TVGN_CARET, 0); }

  00008	6a 09		 push	 9
  0000a	68 0a 11 00 00	 push	 4362			; 0000110aH
  0000f	ff 76 20	 push	 DWORD PTR [esi+32]
  00012	ff 15 00 00 00
	00		 call	 DWORD PTR __imp__SendMessageA@16
; File D:\git\src\IBK\IBK_DRFN\ProjSrc\SrcChartEx\ChartAddIn\ChartDesignPropertyAddIn\ChartDesignPropertyAddIn\TreeDropList.cpp

; 136  : 	if (m_pCombo && hItem)

  00018	8b 8e 9c 00 00
	00		 mov	 ecx, DWORD PTR [esi+156]
  0001e	5e		 pop	 esi
  0001f	85 c9		 test	 ecx, ecx
  00021	74 0b		 je	 SHORT $LN6@OnSelchang
  00023	85 c0		 test	 eax, eax
  00025	74 07		 je	 SHORT $LN6@OnSelchang

; 137  : 	{
; 138  : 		m_pCombo->SendParentComboMessage (CBN_SELCHANGE);

  00027	6a 01		 push	 1
  00029	e8 00 00 00 00	 call	 ?SendParentComboMessage@CTreeCombo@@IAEJI@Z ; CTreeCombo::SendParentComboMessage
$LN6@OnSelchang:

; 139  : 	}
; 140  : 	*pResult = 0;
; 141  : }

  0002e	8b 45 0c	 mov	 eax, DWORD PTR _pResult$[ebp]
  00031	c7 00 00 00 00
	00		 mov	 DWORD PTR [eax], 0
  00037	5d		 pop	 ebp
  00038	c2 08 00	 ret	 8
?OnSelchanged@CTreeDropList@@IAEXPAUtagNMHDR@@PAJ@Z ENDP ; CTreeDropList::OnSelchanged
_TEXT	ENDS
; Function compile flags: /Ogtp
; File D:\git\src\IBK\IBK_DRFN\ProjSrc\SrcChartEx\ChartAddIn\ChartDesignPropertyAddIn\ChartDesignPropertyAddIn\TreeDropList.cpp
;	COMDAT ?OnSetfocus@CTreeDropList@@IAEXPAUtagNMHDR@@PAJ@Z
_TEXT	SEGMENT
_pNMHDR$ = 8						; size = 4
_pResult$ = 12						; size = 4
?OnSetfocus@CTreeDropList@@IAEXPAUtagNMHDR@@PAJ@Z PROC	; CTreeDropList::OnSetfocus, COMDAT
; _this$ = ecx

; 103  : {

  00000	55		 push	 ebp
  00001	8b ec		 mov	 ebp, esp

; 104  : 	UNREFERENCED_PARAMETER (pNMHDR);
; 105  : 
; 106  : 	if (m_pCombo)

  00003	8b 89 9c 00 00
	00		 mov	 ecx, DWORD PTR [ecx+156]
  00009	85 c9		 test	 ecx, ecx
  0000b	74 07		 je	 SHORT $LN4@OnSetfocus

; 107  : 	{
; 108  : 		m_pCombo->SendParentComboMessage (CBN_SETFOCUS);

  0000d	6a 03		 push	 3
  0000f	e8 00 00 00 00	 call	 ?SendParentComboMessage@CTreeCombo@@IAEJI@Z ; CTreeCombo::SendParentComboMessage
$LN4@OnSetfocus:

; 109  : 	}
; 110  : 	*pResult = 0;
; 111  : }

  00014	8b 45 0c	 mov	 eax, DWORD PTR _pResult$[ebp]
  00017	c7 00 00 00 00
	00		 mov	 DWORD PTR [eax], 0
  0001d	5d		 pop	 ebp
  0001e	c2 08 00	 ret	 8
?OnSetfocus@CTreeDropList@@IAEXPAUtagNMHDR@@PAJ@Z ENDP	; CTreeDropList::OnSetfocus
_TEXT	ENDS
; Function compile flags: /Ogtp
; File D:\git\src\IBK\IBK_DRFN\ProjSrc\SrcChartEx\ChartAddIn\ChartDesignPropertyAddIn\ChartDesignPropertyAddIn\TreeDropList.cpp
; File C:\Program Files (x86)\Microsoft Visual Studio\2019\Community\VC\Tools\MSVC\14.29.30133\atlmfc\include\afxwin2.inl
; File D:\git\src\IBK\IBK_DRFN\ProjSrc\SrcChartEx\ChartAddIn\ChartDesignPropertyAddIn\ChartDesignPropertyAddIn\TreeDropList.cpp
;	COMDAT ?OnLButtonDblClk@CTreeDropList@@IAEXIVCPoint@@@Z
_TEXT	SEGMENT
_nFlags$ = 8						; size = 4
_point$ = 12						; size = 8
?OnLButtonDblClk@CTreeDropList@@IAEXIVCPoint@@@Z PROC	; CTreeDropList::OnLButtonDblClk, COMDAT
; _this$ = ecx

; 191  : {

  00000	56		 push	 esi
  00001	8b f1		 mov	 esi, ecx
; File C:\Program Files (x86)\Microsoft Visual Studio\2019\Community\VC\Tools\MSVC\14.29.30133\atlmfc\include\afxwin2.inl

; 430  : 	{ Default(); }

  00003	e8 00 00 00 00	 call	 ?Default@CWnd@@IAEJXZ	; CWnd::Default
; File D:\git\src\IBK\IBK_DRFN\ProjSrc\SrcChartEx\ChartAddIn\ChartDesignPropertyAddIn\ChartDesignPropertyAddIn\TreeDropList.cpp

; 194  : 	if (m_pCombo)

  00008	8b 8e 9c 00 00
	00		 mov	 ecx, DWORD PTR [esi+156]
  0000e	85 c9		 test	 ecx, ecx
  00010	74 07		 je	 SHORT $LN2@OnLButtonD

; 195  : 	{
; 196  : 		m_pCombo->SendParentComboMessage (CBN_DBLCLK);

  00012	6a 02		 push	 2
  00014	e8 00 00 00 00	 call	 ?SendParentComboMessage@CTreeCombo@@IAEJI@Z ; CTreeCombo::SendParentComboMessage
$LN2@OnLButtonD:

; 197  : 	}
; 198  : 
; 199  : 	OnSelection ();

  00019	8b ce		 mov	 ecx, esi
  0001b	e8 00 00 00 00	 call	 ?OnSelection@CTreeDropList@@IAEXXZ ; CTreeDropList::OnSelection
  00020	5e		 pop	 esi

; 200  : }

  00021	c2 0c 00	 ret	 12			; 0000000cH
?OnLButtonDblClk@CTreeDropList@@IAEXIVCPoint@@@Z ENDP	; CTreeDropList::OnLButtonDblClk
_TEXT	ENDS
; Function compile flags: /Ogtp
; File D:\git\src\IBK\IBK_DRFN\ProjSrc\SrcChartEx\ChartAddIn\ChartDesignPropertyAddIn\ChartDesignPropertyAddIn\TreeDropList.cpp
; File C:\Program Files (x86)\Microsoft Visual Studio\2019\Community\VC\Tools\MSVC\14.29.30133\atlmfc\include\afxwin2.inl
; File D:\git\src\IBK\IBK_DRFN\ProjSrc\SrcChartEx\ChartAddIn\ChartDesignPropertyAddIn\ChartDesignPropertyAddIn\TreeDropList.cpp
; File C:\Program Files (x86)\Microsoft Visual Studio\2019\Community\VC\Tools\MSVC\14.29.30133\atlmfc\include\afxwin2.inl
; File D:\git\src\IBK\IBK_DRFN\ProjSrc\SrcChartEx\ChartAddIn\ChartDesignPropertyAddIn\ChartDesignPropertyAddIn\TreeDropList.cpp
; File C:\Program Files (x86)\Microsoft Visual Studio\2019\Community\VC\Tools\MSVC\14.29.30133\atlmfc\include\afxwin2.inl
; File D:\git\src\IBK\IBK_DRFN\ProjSrc\SrcChartEx\ChartAddIn\ChartDesignPropertyAddIn\ChartDesignPropertyAddIn\TreeDropList.cpp
; File C:\Program Files (x86)\Microsoft Visual Studio\2019\Community\VC\Tools\MSVC\14.29.30133\atlmfc\include\afxwin2.inl
; File D:\git\src\IBK\IBK_DRFN\ProjSrc\SrcChartEx\ChartAddIn\ChartDesignPropertyAddIn\ChartDesignPropertyAddIn\TreeDropList.cpp
;	COMDAT ?OnChar@CTreeDropList@@IAEXIII@Z
_TEXT	SEGMENT
_nChar$ = 8						; size = 4
_nRepCnt$ = 12						; size = 4
_nFlags$ = 16						; size = 4
?OnChar@CTreeDropList@@IAEXIII@Z PROC			; CTreeDropList::OnChar, COMDAT
; _this$ = ecx

; 156  : {

  00000	55		 push	 ebp
  00001	8b ec		 mov	 ebp, esp

; 157  : 	if (nChar == VK_RETURN)

  00003	8b 45 08	 mov	 eax, DWORD PTR _nChar$[ebp]
  00006	56		 push	 esi
  00007	8b f1		 mov	 esi, ecx
  00009	83 f8 0d	 cmp	 eax, 13			; 0000000dH
  0000c	75 0a		 jne	 SHORT $LN2@OnChar

; 158  : 	{
; 159  : 	   OnSelection ();

  0000e	e8 00 00 00 00	 call	 ?OnSelection@CTreeDropList@@IAEXXZ ; CTreeDropList::OnSelection
  00013	5e		 pop	 esi

; 188  : }

  00014	5d		 pop	 ebp
  00015	c2 0c 00	 ret	 12			; 0000000cH
$LN2@OnChar:

; 160  : 	   return;
; 161  : 	}
; 162  : 	else if (nChar == VK_ESCAPE)

  00018	83 f8 1b	 cmp	 eax, 27			; 0000001bH
  0001b	75 27		 jne	 SHORT $LN4@OnChar

; 146  : 	if (m_pCombo)

  0001d	8b 8e 9c 00 00
	00		 mov	 ecx, DWORD PTR [esi+156]
  00023	85 c9		 test	 ecx, ecx
  00025	74 0f		 je	 SHORT $LN12@OnChar

; 147  : 	{
; 148  : 		m_pCombo->OnCancel ();

  00027	e8 00 00 00 00	 call	 ?OnCancel@CTreeCombo@@IAEXXZ ; CTreeCombo::OnCancel

; 149  : 		m_CloseReason = e_Cancel;

  0002c	c7 86 a4 00 00
	00 00 00 00 00	 mov	 DWORD PTR [esi+164], 0
$LN12@OnChar:

; 150  : 	}
; 151  : 	ShowWindow (SW_HIDE);

  00036	6a 00		 push	 0
  00038	8b ce		 mov	 ecx, esi
  0003a	e8 00 00 00 00	 call	 ?ShowWindow@CWnd@@QAEHH@Z ; CWnd::ShowWindow
  0003f	5e		 pop	 esi

; 188  : }

  00040	5d		 pop	 ebp
  00041	c2 0c 00	 ret	 12			; 0000000cH
$LN4@OnChar:

; 163  : 	{
; 164  : 		OnCancel ();
; 165  : 		return;
; 166  : 	}
; 167  : 	else if (nChar == VK_TAB)

  00044	83 f8 09	 cmp	 eax, 9
  00047	75 72		 jne	 SHORT $LN7@OnChar

; 168  : 	{
; 169  : 		if (m_pCombo)

  00049	83 be 9c 00 00
	00 00		 cmp	 DWORD PTR [esi+156], 0
  00050	74 69		 je	 SHORT $LN7@OnChar

; 170  : 		{
; 171  : 			OnSelection ();

  00052	53		 push	 ebx
  00053	e8 00 00 00 00	 call	 ?OnSelection@CTreeDropList@@IAEXXZ ; CTreeDropList::OnSelection

; 172  : 
; 173  : 			BOOL bShift = (GetKeyState(VK_SHIFT) < 0);

  00058	6a 10		 push	 16			; 00000010H
  0005a	ff 15 00 00 00
	00		 call	 DWORD PTR __imp__GetKeyState@4
  00060	33 db		 xor	 ebx, ebx
  00062	66 85 c0	 test	 ax, ax

; 174  : 
; 175  : 			CWnd* pComboParent = m_pCombo->GetParent ();

  00065	8b 86 9c 00 00
	00		 mov	 eax, DWORD PTR [esi+156]
  0006b	0f 98 c3	 sets	 bl
; File C:\Program Files (x86)\Microsoft Visual Studio\2019\Community\VC\Tools\MSVC\14.29.30133\atlmfc\include\afxwin2.inl

; 213  : 	{ ASSERT(::IsWindow(m_hWnd)); return CWnd::FromHandle(::GetParent(m_hWnd)); }

  0006e	ff 70 20	 push	 DWORD PTR [eax+32]
  00071	ff 15 00 00 00
	00		 call	 DWORD PTR __imp__GetParent@4
  00077	50		 push	 eax
  00078	e8 00 00 00 00	 call	 ?FromHandle@CWnd@@SGPAV1@PAUHWND__@@@Z ; CWnd::FromHandle
; File D:\git\src\IBK\IBK_DRFN\ProjSrc\SrcChartEx\ChartAddIn\ChartDesignPropertyAddIn\ChartDesignPropertyAddIn\TreeDropList.cpp

; 176  : 			if (pComboParent && pComboParent->GetSafeHwnd ())

  0007d	85 c0		 test	 eax, eax
  0007f	74 34		 je	 SHORT $LN32@OnChar
; File C:\Program Files (x86)\Microsoft Visual Studio\2019\Community\VC\Tools\MSVC\14.29.30133\atlmfc\include\afxwin2.inl

; 25   : 	{ return this == NULL ? NULL : m_hWnd; }

  00081	8b 48 20	 mov	 ecx, DWORD PTR [eax+32]
; File D:\git\src\IBK\IBK_DRFN\ProjSrc\SrcChartEx\ChartAddIn\ChartDesignPropertyAddIn\ChartDesignPropertyAddIn\TreeDropList.cpp

; 176  : 			if (pComboParent && pComboParent->GetSafeHwnd ())

  00084	85 c9		 test	 ecx, ecx
  00086	74 2d		 je	 SHORT $LN32@OnChar

; 177  : 			{
; 178  : 				CWnd* pNext = pComboParent->GetNextDlgTabItem (m_pCombo, bShift);

  00088	8b 86 9c 00 00
	00		 mov	 eax, DWORD PTR [esi+156]
; File C:\Program Files (x86)\Microsoft Visual Studio\2019\Community\VC\Tools\MSVC\14.29.30133\atlmfc\include\afxwin2.inl

; 25   : 	{ return this == NULL ? NULL : m_hWnd; }

  0008e	85 c0		 test	 eax, eax
  00090	74 03		 je	 SHORT $LN25@OnChar
$LN24@OnChar:
  00092	8b 40 20	 mov	 eax, DWORD PTR [eax+32]
$LN25@OnChar:

; 188  : 	{ ASSERT(::IsWindow(m_hWnd)); return CWnd::FromHandle(::GetNextDlgTabItem(m_hWnd,

  00095	53		 push	 ebx
  00096	50		 push	 eax
  00097	51		 push	 ecx
  00098	ff 15 00 00 00
	00		 call	 DWORD PTR __imp__GetNextDlgTabItem@12
  0009e	50		 push	 eax
  0009f	e8 00 00 00 00	 call	 ?FromHandle@CWnd@@SGPAV1@PAUHWND__@@@Z ; CWnd::FromHandle
; File D:\git\src\IBK\IBK_DRFN\ProjSrc\SrcChartEx\ChartAddIn\ChartDesignPropertyAddIn\ChartDesignPropertyAddIn\TreeDropList.cpp

; 179  : 				if (pNext && pNext->GetSafeHwnd ())

  000a4	85 c0		 test	 eax, eax
  000a6	74 0d		 je	 SHORT $LN32@OnChar
  000a8	83 78 20 00	 cmp	 DWORD PTR [eax+32], 0
  000ac	74 07		 je	 SHORT $LN32@OnChar

; 180  : 				{
; 181  : 					pNext->SetFocus ();

  000ae	8b c8		 mov	 ecx, eax
  000b0	e8 00 00 00 00	 call	 ?SetFocus@CWnd@@QAEPAV1@XZ ; CWnd::SetFocus
$LN32@OnChar:
  000b5	5b		 pop	 ebx
  000b6	5e		 pop	 esi

; 188  : }

  000b7	5d		 pop	 ebp
  000b8	c2 0c 00	 ret	 12			; 0000000cH
$LN7@OnChar:
; File C:\Program Files (x86)\Microsoft Visual Studio\2019\Community\VC\Tools\MSVC\14.29.30133\atlmfc\include\afxwin2.inl

; 418  : 	{ Default(); }

  000bb	e8 00 00 00 00	 call	 ?Default@CWnd@@IAEJXZ	; CWnd::Default
  000c0	5e		 pop	 esi
; File D:\git\src\IBK\IBK_DRFN\ProjSrc\SrcChartEx\ChartAddIn\ChartDesignPropertyAddIn\ChartDesignPropertyAddIn\TreeDropList.cpp

; 188  : }

  000c1	5d		 pop	 ebp
  000c2	c2 0c 00	 ret	 12			; 0000000cH
?OnChar@CTreeDropList@@IAEXIII@Z ENDP			; CTreeDropList::OnChar
_TEXT	ENDS
; Function compile flags: /Ogtp
; File D:\git\src\IBK\IBK_DRFN\ProjSrc\SrcChartEx\ChartAddIn\ChartDesignPropertyAddIn\ChartDesignPropertyAddIn\TreeDropList.cpp
; File C:\Program Files (x86)\Microsoft Visual Studio\2019\Community\VC\Tools\MSVC\14.29.30133\atlmfc\include\atlsimpstr.h
; File D:\git\src\IBK\IBK_DRFN\ProjSrc\SrcChartEx\ChartAddIn\ChartDesignPropertyAddIn\ChartDesignPropertyAddIn\TreeDropList.cpp
; File C:\Program Files (x86)\Microsoft Visual Studio\2019\Community\VC\Tools\MSVC\14.29.30133\atlmfc\include\atlsimpstr.h
; File D:\git\src\IBK\IBK_DRFN\ProjSrc\SrcChartEx\ChartAddIn\ChartDesignPropertyAddIn\ChartDesignPropertyAddIn\TreeDropList.cpp
; File C:\Program Files (x86)\Microsoft Visual Studio\2019\Community\VC\Tools\MSVC\14.29.30133\atlmfc\include\atlsimpstr.h
; File D:\git\src\IBK\IBK_DRFN\ProjSrc\SrcChartEx\ChartAddIn\ChartDesignPropertyAddIn\ChartDesignPropertyAddIn\TreeDropList.cpp
; File C:\Program Files (x86)\Microsoft Visual Studio\2019\Community\VC\Tools\MSVC\14.29.30133\atlmfc\include\afxcmn.inl
; File D:\git\src\IBK\IBK_DRFN\ProjSrc\SrcChartEx\ChartAddIn\ChartDesignPropertyAddIn\ChartDesignPropertyAddIn\TreeDropList.cpp
; File C:\Program Files (x86)\Microsoft Visual Studio\2019\Community\VC\Tools\MSVC\14.29.30133\atlmfc\include\atlsimpstr.h
; File D:\git\src\IBK\IBK_DRFN\ProjSrc\SrcChartEx\ChartAddIn\ChartDesignPropertyAddIn\ChartDesignPropertyAddIn\TreeDropList.cpp
; File C:\Program Files (x86)\Microsoft Visual Studio\2019\Community\VC\Tools\MSVC\14.29.30133\atlmfc\include\afxcmn.inl
; File D:\git\src\IBK\IBK_DRFN\ProjSrc\SrcChartEx\ChartAddIn\ChartDesignPropertyAddIn\ChartDesignPropertyAddIn\TreeDropList.cpp
; File C:\Program Files (x86)\Microsoft Visual Studio\2019\Community\VC\Tools\MSVC\14.29.30133\atlmfc\include\afxcmn.inl
; File D:\git\src\IBK\IBK_DRFN\ProjSrc\SrcChartEx\ChartAddIn\ChartDesignPropertyAddIn\ChartDesignPropertyAddIn\TreeDropList.cpp
; File C:\Program Files (x86)\Microsoft Visual Studio\2019\Community\VC\Tools\MSVC\14.29.30133\atlmfc\include\afxwin2.inl
; File D:\git\src\IBK\IBK_DRFN\ProjSrc\SrcChartEx\ChartAddIn\ChartDesignPropertyAddIn\ChartDesignPropertyAddIn\TreeDropList.cpp
;	COMDAT ?OnKillfocus@CTreeDropList@@IAEXPAUtagNMHDR@@PAJ@Z
_TEXT	SEGMENT
$T2 = -28						; size = 4
$T3 = -24						; size = 4
_strRoot$4 = -20					; size = 4
_strRemainder$5 = -16					; size = 4
__$EHRec$ = -12						; size = 12
_pNMHDR$ = 8						; size = 4
_pResult$ = 12						; size = 4
?OnKillfocus@CTreeDropList@@IAEXPAUtagNMHDR@@PAJ@Z PROC	; CTreeDropList::OnKillfocus, COMDAT
; _this$ = ecx

; 57   : {

  00000	55		 push	 ebp
  00001	8b ec		 mov	 ebp, esp
  00003	6a ff		 push	 -1
  00005	68 00 00 00 00	 push	 __ehhandler$?OnKillfocus@CTreeDropList@@IAEXPAUtagNMHDR@@PAJ@Z
  0000a	64 a1 00 00 00
	00		 mov	 eax, DWORD PTR fs:0
  00010	50		 push	 eax
  00011	83 ec 10	 sub	 esp, 16			; 00000010H
  00014	53		 push	 ebx
  00015	56		 push	 esi
  00016	57		 push	 edi
  00017	a1 00 00 00 00	 mov	 eax, DWORD PTR ___security_cookie
  0001c	33 c5		 xor	 eax, ebp
  0001e	50		 push	 eax
  0001f	8d 45 f4	 lea	 eax, DWORD PTR __$EHRec$[ebp]
  00022	64 a3 00 00 00
	00		 mov	 DWORD PTR fs:0, eax
  00028	8b f9		 mov	 edi, ecx

; 58   : 	UNREFERENCED_PARAMETER (pNMHDR);
; 59   : 
; 60   : 	if (m_pCombo)

  0002a	8b 8f 9c 00 00
	00		 mov	 ecx, DWORD PTR [edi+156]
  00030	85 c9		 test	 ecx, ecx
  00032	0f 84 9e 01 00
	00		 je	 $LN60@OnKillfocu

; 61   : 	{
; 62   : 		//Focus will be on the drop down button focus lost because of
; 63   : 		//mouse click to dialog client area. Check cursor position to
; 64   : 		//find where mouse click was.
; 65   : 		BOOL bClickedOnButton = m_pCombo->IsMouseOnButton ();

  00038	e8 00 00 00 00	 call	 ?IsMouseOnButton@CTreeCombo@@IAEHXZ ; CTreeCombo::IsMouseOnButton

; 66   : 		BOOL bClickedOnEdit =  m_pCombo->IsMouseOnEdit ();

  0003d	8b 8f 9c 00 00
	00		 mov	 ecx, DWORD PTR [edi+156]
  00043	8b f0		 mov	 esi, eax
  00045	e8 00 00 00 00	 call	 ?IsMouseOnEdit@CTreeCombo@@IAEHXZ ; CTreeCombo::IsMouseOnEdit

; 67   : 			
; 68   : 		ShowWindow (SW_HIDE);	

  0004a	6a 00		 push	 0
  0004c	8b cf		 mov	 ecx, edi
  0004e	8b d8		 mov	 ebx, eax
  00050	e8 00 00 00 00	 call	 ?ShowWindow@CWnd@@QAEHH@Z ; CWnd::ShowWindow

; 69   : 
; 70   : 		//Treat click on dropdown box the same as a selection
; 71   : 		if (bClickedOnButton)

  00055	85 f6		 test	 esi, esi
  00057	75 12		 jne	 SHORT $LN59@OnKillfocu

; 72   : 		{
; 73   : 			m_CloseReason = e_Select;
; 74   : 			OnSelection ();
; 75   : 			//Don't clear the DroppedState flag yet to prevent
; 76   : 			//the mouse click on the button from popping up the tree again.
; 77   : 		}
; 78   : 		else if (bClickedOnEdit)

  00059	85 db		 test	 ebx, ebx
  0005b	75 0e		 jne	 SHORT $LN59@OnKillfocu

; 82   : 			//m_pCombo->SetDroppedState (FALSE);
; 83   : 		}
; 84   : 		else
; 85   : 		{
; 86   : 			m_pCombo->SetDroppedState (FALSE);

  0005d	8b 87 9c 00 00
	00		 mov	 eax, DWORD PTR [edi+156]
  00063	89 98 3c 02 00
	00		 mov	 DWORD PTR [eax+572], ebx
  00069	eb 11		 jmp	 SHORT $LN6@OnKillfocu
$LN59@OnKillfocu:

; 79   : 		{
; 80   : 			m_CloseReason = e_Select;
; 81   : 			OnSelection ();

  0006b	8b cf		 mov	 ecx, edi
  0006d	c7 87 a4 00 00
	00 01 00 00 00	 mov	 DWORD PTR [edi+164], 1
  00077	e8 00 00 00 00	 call	 ?OnSelection@CTreeDropList@@IAEXXZ ; CTreeDropList::OnSelection
$LN6@OnKillfocu:

; 87   : 		}
; 88   : 
; 89   : 		if (m_CloseReason == e_KillFocus)

  0007c	83 bf a4 00 00
	00 02		 cmp	 DWORD PTR [edi+164], 2
  00083	0f 85 2a 01 00
	00		 jne	 $LN12@OnKillfocu
; File C:\Program Files (x86)\Microsoft Visual Studio\2019\Community\VC\Tools\MSVC\14.29.30133\atlmfc\include\atlsimpstr.h

; 377  : 		return( m_pszData );

  00089	8b 87 9c 00 00
	00		 mov	 eax, DWORD PTR [edi+156]
; File D:\git\src\IBK\IBK_DRFN\ProjSrc\SrcChartEx\ChartAddIn\ChartDesignPropertyAddIn\ChartDesignPropertyAddIn\TreeDropList.cpp

; 272  : 	HTREEITEM hMatch = FindString (lpszString, hParent);

  0008f	8d 4d e4	 lea	 ecx, DWORD PTR $T2[ebp]
  00092	ff b0 30 02 00
	00		 push	 DWORD PTR [eax+560]
  00098	ff 15 00 00 00
	00		 call	 DWORD PTR __imp_??0?$CStringT@DV?$StrTraitMFC_DLL@DV?$ChTraitsCRT@D@ATL@@@@@ATL@@QAE@PBD@Z

; 285  : 	CString strRoot;

  0009e	8d 4d ec	 lea	 ecx, DWORD PTR _strRoot$4[ebp]
  000a1	c7 45 fc 00 00
	00 00		 mov	 DWORD PTR __$EHRec$[ebp+8], 0
  000a8	ff 15 00 00 00
	00		 call	 DWORD PTR __imp_??0?$CStringT@DV?$StrTraitMFC_DLL@DV?$ChTraitsCRT@D@ATL@@@@@ATL@@QAE@XZ

; 286  : 	CString strRemainder;

  000ae	8d 4d f0	 lea	 ecx, DWORD PTR _strRemainder$5[ebp]
  000b1	ff 15 00 00 00
	00		 call	 DWORD PTR __imp_??0?$CStringT@DV?$StrTraitMFC_DLL@DV?$ChTraitsCRT@D@ATL@@@@@ATL@@QAE@XZ

; 287  : 
; 288  : 	hMatch = FindString (hParent, strTreeBranch, hPreviousMatch, strRoot, strRemainder);

  000b7	8d 45 e4	 lea	 eax, DWORD PTR $T2[ebp]
  000ba	c6 45 fc 02	 mov	 BYTE PTR __$EHRec$[ebp+8], 2
  000be	50		 push	 eax
  000bf	8d 4d e8	 lea	 ecx, DWORD PTR $T3[ebp]
  000c2	ff 15 00 00 00
	00		 call	 DWORD PTR __imp_??0?$CStringT@DV?$StrTraitMFC_DLL@DV?$ChTraitsCRT@D@ATL@@@@@ATL@@QAE@ABV01@@Z

; 307  : 	SplitPath (strTreeBranch, strRoot, strRemainder);

  000c8	8d 45 f0	 lea	 eax, DWORD PTR _strRemainder$5[ebp]
  000cb	c6 45 fc 03	 mov	 BYTE PTR __$EHRec$[ebp+8], 3
  000cf	50		 push	 eax
  000d0	8d 45 ec	 lea	 eax, DWORD PTR _strRoot$4[ebp]
  000d3	8b cf		 mov	 ecx, edi
  000d5	50		 push	 eax
  000d6	8d 45 e8	 lea	 eax, DWORD PTR $T3[ebp]
  000d9	50		 push	 eax
  000da	e8 00 00 00 00	 call	 ?SplitPath@CTreeDropList@@IAEXABV?$CStringT@DV?$StrTraitMFC_DLL@DV?$ChTraitsCRT@D@ATL@@@@@ATL@@AAV23@1@Z ; CTreeDropList::SplitPath
; File C:\Program Files (x86)\Microsoft Visual Studio\2019\Community\VC\Tools\MSVC\14.29.30133\atlmfc\include\atlsimpstr.h

; 519  : 		return( GetData()->nDataLength );

  000df	8b 45 ec	 mov	 eax, DWORD PTR _strRoot$4[ebp]
; File D:\git\src\IBK\IBK_DRFN\ProjSrc\SrcChartEx\ChartAddIn\ChartDesignPropertyAddIn\ChartDesignPropertyAddIn\TreeDropList.cpp

; 308  : 	if (strRoot.IsEmpty ())

  000e2	8b 1d 00 00 00
	00		 mov	 ebx, DWORD PTR __imp__SendMessageA@16
; File C:\Program Files (x86)\Microsoft Visual Studio\2019\Community\VC\Tools\MSVC\14.29.30133\atlmfc\include\atlsimpstr.h

; 533  : 		return( GetLength() == 0 );

  000e8	83 78 f4 00	 cmp	 DWORD PTR [eax-12], 0
; File D:\git\src\IBK\IBK_DRFN\ProjSrc\SrcChartEx\ChartAddIn\ChartDesignPropertyAddIn\ChartDesignPropertyAddIn\TreeDropList.cpp

; 308  : 	if (strRoot.IsEmpty ())

  000ec	75 0d		 jne	 SHORT $LN25@OnKillfocu

; 309  : 	{
; 310  : 		//Nothing to search for
; 311  : 		return NULL;

  000ee	8d 4d e8	 lea	 ecx, DWORD PTR $T3[ebp]
  000f1	ff 15 00 00 00
	00		 call	 DWORD PTR __imp_??1?$CStringT@DV?$StrTraitMFC_DLL@DV?$ChTraitsCRT@D@ATL@@@@@ATL@@QAE@XZ
  000f7	33 f6		 xor	 esi, esi
  000f9	eb 76		 jmp	 SHORT $LN22@OnKillfocu
$LN25@OnKillfocu:
; File C:\Program Files (x86)\Microsoft Visual Studio\2019\Community\VC\Tools\MSVC\14.29.30133\atlmfc\include\afxcmn.inl

; 300  : 	{ ASSERT(::IsWindow(m_hWnd)); return (HTREEITEM)::SendMessage(m_hWnd, TVM_GETNEXTITEM, TVGN_CHILD, (LPARAM)hItem); }

  000fb	6a 00		 push	 0
  000fd	6a 04		 push	 4
  000ff	68 0a 11 00 00	 push	 4362			; 0000110aH
  00104	ff 77 20	 push	 DWORD PTR [edi+32]
  00107	ff d3		 call	 ebx
; File D:\git\src\IBK\IBK_DRFN\ProjSrc\SrcChartEx\ChartAddIn\ChartDesignPropertyAddIn\ChartDesignPropertyAddIn\TreeDropList.cpp

; 324  : 	 hMatch = MatchSibling (hItem, strRoot);

  00109	8d 4d ec	 lea	 ecx, DWORD PTR _strRoot$4[ebp]
  0010c	51		 push	 ecx
  0010d	50		 push	 eax
  0010e	8b cf		 mov	 ecx, edi
  00110	e8 00 00 00 00	 call	 ?MatchSibling@CTreeDropList@@IAEPAU_TREEITEM@@PAU2@AAV?$CStringT@DV?$StrTraitMFC_DLL@DV?$ChTraitsCRT@D@ATL@@@@@ATL@@@Z ; CTreeDropList::MatchSibling
  00115	8b f0		 mov	 esi, eax

; 325  : 	 while (hMatch && !strRemainder.IsEmpty())

  00117	85 f6		 test	 esi, esi
  00119	74 4d		 je	 SHORT $LN24@OnKillfocu
  0011b	0f 1f 44 00 00	 npad	 5
$LL23@OnKillfocu:
; File C:\Program Files (x86)\Microsoft Visual Studio\2019\Community\VC\Tools\MSVC\14.29.30133\atlmfc\include\atlsimpstr.h

; 519  : 		return( GetData()->nDataLength );

  00120	8b 4d f0	 mov	 ecx, DWORD PTR _strRemainder$5[ebp]

; 533  : 		return( GetLength() == 0 );

  00123	83 79 f4 00	 cmp	 DWORD PTR [ecx-12], 0
; File D:\git\src\IBK\IBK_DRFN\ProjSrc\SrcChartEx\ChartAddIn\ChartDesignPropertyAddIn\ChartDesignPropertyAddIn\TreeDropList.cpp

; 325  : 	 while (hMatch && !strRemainder.IsEmpty())

  00127	74 3f		 je	 SHORT $LN24@OnKillfocu

; 326  : 	 {
; 327  :  		hPreviousMatch = hMatch;
; 328  : 		strTreeBranch = strRemainder;

  00129	8d 45 f0	 lea	 eax, DWORD PTR _strRemainder$5[ebp]
  0012c	50		 push	 eax
  0012d	8d 4d e8	 lea	 ecx, DWORD PTR $T3[ebp]
  00130	ff 15 00 00 00
	00		 call	 DWORD PTR __imp_??4?$CStringT@DV?$StrTraitMFC_DLL@DV?$ChTraitsCRT@D@ATL@@@@@ATL@@QAEAAV01@ABV01@@Z

; 329  : 		SplitPath (strTreeBranch, strRoot, strRemainder);

  00136	8d 45 f0	 lea	 eax, DWORD PTR _strRemainder$5[ebp]
  00139	8b cf		 mov	 ecx, edi
  0013b	50		 push	 eax
  0013c	8d 45 ec	 lea	 eax, DWORD PTR _strRoot$4[ebp]
  0013f	50		 push	 eax
  00140	8d 45 e8	 lea	 eax, DWORD PTR $T3[ebp]
  00143	50		 push	 eax
  00144	e8 00 00 00 00	 call	 ?SplitPath@CTreeDropList@@IAEXABV?$CStringT@DV?$StrTraitMFC_DLL@DV?$ChTraitsCRT@D@ATL@@@@@ATL@@AAV23@1@Z ; CTreeDropList::SplitPath
; File C:\Program Files (x86)\Microsoft Visual Studio\2019\Community\VC\Tools\MSVC\14.29.30133\atlmfc\include\afxcmn.inl

; 300  : 	{ ASSERT(::IsWindow(m_hWnd)); return (HTREEITEM)::SendMessage(m_hWnd, TVM_GETNEXTITEM, TVGN_CHILD, (LPARAM)hItem); }

  00149	56		 push	 esi
  0014a	6a 04		 push	 4
  0014c	68 0a 11 00 00	 push	 4362			; 0000110aH
  00151	ff 77 20	 push	 DWORD PTR [edi+32]
  00154	ff d3		 call	 ebx
; File D:\git\src\IBK\IBK_DRFN\ProjSrc\SrcChartEx\ChartAddIn\ChartDesignPropertyAddIn\ChartDesignPropertyAddIn\TreeDropList.cpp

; 331  : 		hMatch = MatchSibling (hItem, strRoot);

  00156	8d 4d ec	 lea	 ecx, DWORD PTR _strRoot$4[ebp]
  00159	51		 push	 ecx
  0015a	50		 push	 eax
  0015b	8b cf		 mov	 ecx, edi
  0015d	e8 00 00 00 00	 call	 ?MatchSibling@CTreeDropList@@IAEPAU_TREEITEM@@PAU2@AAV?$CStringT@DV?$StrTraitMFC_DLL@DV?$ChTraitsCRT@D@ATL@@@@@ATL@@@Z ; CTreeDropList::MatchSibling
  00162	8b f0		 mov	 esi, eax
  00164	85 f6		 test	 esi, esi
  00166	75 b8		 jne	 SHORT $LL23@OnKillfocu
$LN24@OnKillfocu:

; 332  : 	 }
; 333  : 
; 334  :     return hMatch;

  00168	8d 4d e8	 lea	 ecx, DWORD PTR $T3[ebp]
  0016b	ff 15 00 00 00
	00		 call	 DWORD PTR __imp_??1?$CStringT@DV?$StrTraitMFC_DLL@DV?$ChTraitsCRT@D@ATL@@@@@ATL@@QAE@XZ
$LN22@OnKillfocu:

; 295  : 	return hMatch;

  00171	8b 45 f0	 mov	 eax, DWORD PTR _strRemainder$5[ebp]
  00174	8d 4d f0	 lea	 ecx, DWORD PTR _strRemainder$5[ebp]
  00177	33 db		 xor	 ebx, ebx
  00179	39 58 f4	 cmp	 DWORD PTR [eax-12], ebx
  0017c	0f 44 de	 cmove	 ebx, esi
  0017f	ff 15 00 00 00
	00		 call	 DWORD PTR __imp_??1?$CStringT@DV?$StrTraitMFC_DLL@DV?$ChTraitsCRT@D@ATL@@@@@ATL@@QAE@XZ
  00185	8d 4d ec	 lea	 ecx, DWORD PTR _strRoot$4[ebp]
  00188	ff 15 00 00 00
	00		 call	 DWORD PTR __imp_??1?$CStringT@DV?$StrTraitMFC_DLL@DV?$ChTraitsCRT@D@ATL@@@@@ATL@@QAE@XZ
  0018e	8d 4d e4	 lea	 ecx, DWORD PTR $T2[ebp]
  00191	c7 45 fc ff ff
	ff ff		 mov	 DWORD PTR __$EHRec$[ebp+8], -1
  00198	ff 15 00 00 00
	00		 call	 DWORD PTR __imp_??1?$CStringT@DV?$StrTraitMFC_DLL@DV?$ChTraitsCRT@D@ATL@@@@@ATL@@QAE@XZ

; 273  : 	if (hMatch)

  0019e	85 db		 test	 ebx, ebx
  001a0	74 11		 je	 SHORT $LN12@OnKillfocu
; File C:\Program Files (x86)\Microsoft Visual Studio\2019\Community\VC\Tools\MSVC\14.29.30133\atlmfc\include\afxcmn.inl

; 326  : 	{ ASSERT(::IsWindow(m_hWnd)); return (BOOL) ::SendMessage(m_hWnd, TVM_SELECTITEM, TVGN_CARET, (LPARAM)hItem); }

  001a2	53		 push	 ebx
  001a3	6a 09		 push	 9
  001a5	68 0b 11 00 00	 push	 4363			; 0000110bH
  001aa	ff 77 20	 push	 DWORD PTR [edi+32]
  001ad	ff 15 00 00 00
	00		 call	 DWORD PTR __imp__SendMessageA@16
$LN12@OnKillfocu:
; File D:\git\src\IBK\IBK_DRFN\ProjSrc\SrcChartEx\ChartAddIn\ChartDesignPropertyAddIn\ChartDesignPropertyAddIn\TreeDropList.cpp

; 94   : 		m_pCombo->SendParentComboMessage (CBN_KILLFOCUS);

  001b3	8b 8f 9c 00 00
	00		 mov	 ecx, DWORD PTR [edi+156]
  001b9	6a 04		 push	 4
  001bb	e8 00 00 00 00	 call	 ?SendParentComboMessage@CTreeCombo@@IAEJI@Z ; CTreeCombo::SendParentComboMessage
; File C:\Program Files (x86)\Microsoft Visual Studio\2019\Community\VC\Tools\MSVC\14.29.30133\atlmfc\include\afxwin2.inl

; 114  : 	{ ASSERT(::IsWindow(m_hWnd)); ::InvalidateRect(m_hWnd, NULL, bErase); }

  001c0	8b 87 9c 00 00
	00		 mov	 eax, DWORD PTR [edi+156]
  001c6	6a 01		 push	 1
  001c8	6a 00		 push	 0
  001ca	ff b0 50 01 00
	00		 push	 DWORD PTR [eax+336]
  001d0	ff 15 00 00 00
	00		 call	 DWORD PTR __imp__InvalidateRect@12
$LN60@OnKillfocu:
; File D:\git\src\IBK\IBK_DRFN\ProjSrc\SrcChartEx\ChartAddIn\ChartDesignPropertyAddIn\ChartDesignPropertyAddIn\TreeDropList.cpp

; 99   : }

  001d6	8b 45 0c	 mov	 eax, DWORD PTR _pResult$[ebp]
  001d9	c7 00 00 00 00
	00		 mov	 DWORD PTR [eax], 0
  001df	8b 4d f4	 mov	 ecx, DWORD PTR __$EHRec$[ebp]
  001e2	64 89 0d 00 00
	00 00		 mov	 DWORD PTR fs:0, ecx
  001e9	59		 pop	 ecx
  001ea	5f		 pop	 edi
  001eb	5e		 pop	 esi
  001ec	5b		 pop	 ebx
  001ed	8b e5		 mov	 esp, ebp
  001ef	5d		 pop	 ebp
  001f0	c2 08 00	 ret	 8
_TEXT	ENDS
;	COMDAT text$x
text$x	SEGMENT
__unwindfunclet$?OnKillfocus@CTreeDropList@@IAEXPAUtagNMHDR@@PAJ@Z$1:
  00000	8d 4d e4	 lea	 ecx, DWORD PTR $T2[ebp]
  00003	ff 25 00 00 00
	00		 jmp	 DWORD PTR __imp_??1?$CStringT@DV?$StrTraitMFC_DLL@DV?$ChTraitsCRT@D@ATL@@@@@ATL@@QAE@XZ
__unwindfunclet$?OnKillfocus@CTreeDropList@@IAEXPAUtagNMHDR@@PAJ@Z$2:
  00009	8d 4d ec	 lea	 ecx, DWORD PTR _strRoot$4[ebp]
  0000c	ff 25 00 00 00
	00		 jmp	 DWORD PTR __imp_??1?$CStringT@DV?$StrTraitMFC_DLL@DV?$ChTraitsCRT@D@ATL@@@@@ATL@@QAE@XZ
__unwindfunclet$?OnKillfocus@CTreeDropList@@IAEXPAUtagNMHDR@@PAJ@Z$3:
  00012	8d 4d f0	 lea	 ecx, DWORD PTR _strRemainder$5[ebp]
  00015	ff 25 00 00 00
	00		 jmp	 DWORD PTR __imp_??1?$CStringT@DV?$StrTraitMFC_DLL@DV?$ChTraitsCRT@D@ATL@@@@@ATL@@QAE@XZ
__unwindfunclet$?OnKillfocus@CTreeDropList@@IAEXPAUtagNMHDR@@PAJ@Z$5:
  0001b	8d 4d e8	 lea	 ecx, DWORD PTR $T3[ebp]
  0001e	ff 25 00 00 00
	00		 jmp	 DWORD PTR __imp_??1?$CStringT@DV?$StrTraitMFC_DLL@DV?$ChTraitsCRT@D@ATL@@@@@ATL@@QAE@XZ
  00024	cc		 int	 3
  00025	cc		 int	 3
  00026	cc		 int	 3
  00027	cc		 int	 3
  00028	cc		 int	 3
__ehhandler$?OnKillfocus@CTreeDropList@@IAEXPAUtagNMHDR@@PAJ@Z:
  00029	90		 npad	 1
  0002a	90		 npad	 1
  0002b	8b 54 24 08	 mov	 edx, DWORD PTR [esp+8]
  0002f	8d 42 0c	 lea	 eax, DWORD PTR [edx+12]
  00032	8b 4a e0	 mov	 ecx, DWORD PTR [edx-32]
  00035	33 c8		 xor	 ecx, eax
  00037	e8 00 00 00 00	 call	 @__security_check_cookie@4
  0003c	b8 00 00 00 00	 mov	 eax, OFFSET __ehfuncinfo$?OnKillfocus@CTreeDropList@@IAEXPAUtagNMHDR@@PAJ@Z
  00041	e9 00 00 00 00	 jmp	 ___CxxFrameHandler3
text$x	ENDS
?OnKillfocus@CTreeDropList@@IAEXPAUtagNMHDR@@PAJ@Z ENDP	; CTreeDropList::OnKillfocus
; Function compile flags: /Ogtp
; File D:\git\src\IBK\IBK_DRFN\ProjSrc\SrcChartEx\ChartAddIn\ChartDesignPropertyAddIn\ChartDesignPropertyAddIn\TreeDropList.cpp
;	COMDAT ??1CTreeDropList@@UAE@XZ
_TEXT	SEGMENT
__$EHRec$ = -12						; size = 12
??1CTreeDropList@@UAE@XZ PROC				; CTreeDropList::~CTreeDropList, COMDAT
; _this$ = ecx

; 38   : {

  00000	55		 push	 ebp
  00001	8b ec		 mov	 ebp, esp
  00003	6a ff		 push	 -1
  00005	68 00 00 00 00	 push	 __ehhandler$??1CTreeDropList@@UAE@XZ
  0000a	64 a1 00 00 00
	00		 mov	 eax, DWORD PTR fs:0
  00010	50		 push	 eax
  00011	56		 push	 esi
  00012	57		 push	 edi
  00013	a1 00 00 00 00	 mov	 eax, DWORD PTR ___security_cookie
  00018	33 c5		 xor	 eax, ebp
  0001a	50		 push	 eax
  0001b	8d 45 f4	 lea	 eax, DWORD PTR __$EHRec$[ebp]
  0001e	64 a3 00 00 00
	00		 mov	 DWORD PTR fs:0, eax
  00024	8b f9		 mov	 edi, ecx

; 39   : 	m_stringList.RemoveAll();

  00026	8d 8f 80 00 00
	00		 lea	 ecx, DWORD PTR [edi+128]
  0002c	c7 07 00 00 00
	00		 mov	 DWORD PTR [edi], OFFSET ??_7CTreeDropList@@6B@
  00032	e8 00 00 00 00	 call	 ?RemoveAll@CStringList@@QAEXXZ ; CStringList::RemoveAll

; 40   : }

  00037	8d 8f 80 00 00
	00		 lea	 ecx, DWORD PTR [edi+128]
  0003d	e8 00 00 00 00	 call	 ??1CStringList@@UAE@XZ	; CStringList::~CStringList
  00042	8b cf		 mov	 ecx, edi
  00044	e8 00 00 00 00	 call	 ??1CTreeCtrl@@UAE@XZ	; CTreeCtrl::~CTreeCtrl
  00049	8b 4d f4	 mov	 ecx, DWORD PTR __$EHRec$[ebp]
  0004c	64 89 0d 00 00
	00 00		 mov	 DWORD PTR fs:0, ecx
  00053	59		 pop	 ecx
  00054	5f		 pop	 edi
  00055	5e		 pop	 esi
  00056	8b e5		 mov	 esp, ebp
  00058	5d		 pop	 ebp
  00059	c3		 ret	 0
  0005a	cc		 int	 3
  0005b	cc		 int	 3
  0005c	cc		 int	 3
  0005d	cc		 int	 3
  0005e	cc		 int	 3
_TEXT	ENDS
;	COMDAT text$x
text$x	SEGMENT
__ehhandler$??1CTreeDropList@@UAE@XZ:
  00000	90		 npad	 1
  00001	90		 npad	 1
  00002	8b 54 24 08	 mov	 edx, DWORD PTR [esp+8]
  00006	8d 42 0c	 lea	 eax, DWORD PTR [edx+12]
  00009	8b 4a f4	 mov	 ecx, DWORD PTR [edx-12]
  0000c	33 c8		 xor	 ecx, eax
  0000e	e8 00 00 00 00	 call	 @__security_check_cookie@4
  00013	b8 00 00 00 00	 mov	 eax, OFFSET __ehfuncinfo$??1CTreeDropList@@UAE@XZ
  00018	e9 00 00 00 00	 jmp	 ___CxxFrameHandler3
text$x	ENDS
??1CTreeDropList@@UAE@XZ ENDP				; CTreeDropList::~CTreeDropList
; Function compile flags: /Ogtp
; File D:\git\src\IBK\IBK_DRFN\ProjSrc\SrcChartEx\ChartAddIn\ChartDesignPropertyAddIn\ChartDesignPropertyAddIn\TreeDropList.cpp
; File C:\Program Files (x86)\Microsoft Visual Studio\2019\Community\VC\Tools\MSVC\14.29.30133\atlmfc\include\afxcmn.inl
; File D:\git\src\IBK\IBK_DRFN\ProjSrc\SrcChartEx\ChartAddIn\ChartDesignPropertyAddIn\ChartDesignPropertyAddIn\TreeDropList.cpp
; File C:\Program Files (x86)\Microsoft Visual Studio\2019\Community\VC\Tools\MSVC\14.29.30133\atlmfc\include\afxcmn.inl
; File D:\git\src\IBK\IBK_DRFN\ProjSrc\SrcChartEx\ChartAddIn\ChartDesignPropertyAddIn\ChartDesignPropertyAddIn\TreeDropList.cpp
;	COMDAT ?AddItem@CTreeDropList@@QAEPAU_TREEITEM@@PAU2@PAD111@Z
_TEXT	SEGMENT
_tvstruct$ = -84					; size = 68
_szText$ = -16						; size = 4
__$EHRec$ = -12						; size = 12
_hParent$ = 8						; size = 4
_Description$ = 12					; size = 4
_Name$ = 16						; size = 4
_type$ = 20						; size = 4
_szLength$ = 24						; size = 4
?AddItem@CTreeDropList@@QAEPAU_TREEITEM@@PAU2@PAD111@Z PROC ; CTreeDropList::AddItem, COMDAT
; _this$ = ecx

; 480  : {

  00000	55		 push	 ebp
  00001	8b ec		 mov	 ebp, esp
  00003	6a ff		 push	 -1
  00005	68 00 00 00 00	 push	 __ehhandler$?AddItem@CTreeDropList@@QAEPAU_TREEITEM@@PAU2@PAD111@Z
  0000a	64 a1 00 00 00
	00		 mov	 eax, DWORD PTR fs:0
  00010	50		 push	 eax
  00011	83 ec 48	 sub	 esp, 72			; 00000048H
  00014	56		 push	 esi
  00015	a1 00 00 00 00	 mov	 eax, DWORD PTR ___security_cookie
  0001a	33 c5		 xor	 eax, ebp
  0001c	50		 push	 eax
  0001d	8d 45 f4	 lea	 eax, DWORD PTR __$EHRec$[ebp]
  00020	64 a3 00 00 00
	00		 mov	 DWORD PTR fs:0, eax
  00026	8b f1		 mov	 esi, ecx

; 481  : 
; 482  : 	CString szText;

  00028	8d 4d f0	 lea	 ecx, DWORD PTR _szText$[ebp]
  0002b	ff 15 00 00 00
	00		 call	 DWORD PTR __imp_??0?$CStringT@DV?$StrTraitMFC_DLL@DV?$ChTraitsCRT@D@ATL@@@@@ATL@@QAE@XZ

; 483  : 	szText.Format("%s,%s,%s,%s",Description,Name,type,szLength);

  00031	ff 75 18	 push	 DWORD PTR _szLength$[ebp]
  00034	8d 45 f0	 lea	 eax, DWORD PTR _szText$[ebp]
  00037	c7 45 fc 00 00
	00 00		 mov	 DWORD PTR __$EHRec$[ebp+8], 0
  0003e	ff 75 14	 push	 DWORD PTR _type$[ebp]
  00041	ff 75 10	 push	 DWORD PTR _Name$[ebp]
  00044	ff 75 0c	 push	 DWORD PTR _Description$[ebp]
  00047	68 00 00 00 00	 push	 OFFSET ??_C@_0M@ONNOPAIB@?$CFs?0?$CFs?0?$CFs?0?$CFs@
  0004c	50		 push	 eax
  0004d	ff 15 00 00 00
	00		 call	 DWORD PTR __imp_?Format@?$CStringT@DV?$StrTraitMFC_DLL@DV?$ChTraitsCRT@D@ATL@@@@@ATL@@QAAXPBDZZ

; 484  : 	HTREEITEM hItem;
; 485  : 	TV_INSERTSTRUCT tvstruct;
; 486  : 	tvstruct.hParent = hParent;

  00053	8b 45 08	 mov	 eax, DWORD PTR _hParent$[ebp]
  00056	83 c4 18	 add	 esp, 24			; 00000018H
  00059	89 45 ac	 mov	 DWORD PTR _tvstruct$[ebp], eax

; 491  : 
; 492  : 	tvstruct.item.pszText = (LPSTR)(LPCTSTR)szText;

  0005c	8b 45 f0	 mov	 eax, DWORD PTR _szText$[ebp]
  0005f	89 45 c4	 mov	 DWORD PTR _tvstruct$[ebp+24], eax
; File C:\Program Files (x86)\Microsoft Visual Studio\2019\Community\VC\Tools\MSVC\14.29.30133\atlmfc\include\afxcmn.inl

; 266  : 	{ ASSERT(::IsWindow(m_hWnd));  return (HTREEITEM)::SendMessage(m_hWnd, TVM_INSERTITEM, 0, (LPARAM)lpInsertStruct); }

  00062	8d 45 ac	 lea	 eax, DWORD PTR _tvstruct$[ebp]
  00065	50		 push	 eax
  00066	6a 00		 push	 0
  00068	68 00 11 00 00	 push	 4352			; 00001100H
  0006d	ff 76 20	 push	 DWORD PTR [esi+32]
; File D:\git\src\IBK\IBK_DRFN\ProjSrc\SrcChartEx\ChartAddIn\ChartDesignPropertyAddIn\ChartDesignPropertyAddIn\TreeDropList.cpp

; 487  : 	tvstruct.hInsertAfter = TVI_LAST;

  00070	c7 45 b0 02 00
	ff ff		 mov	 DWORD PTR _tvstruct$[ebp+4], -65534 ; ffff0002H

; 488  : 	
; 489  : 	tvstruct.item.mask = TVIF_TEXT;

  00077	c7 45 b4 01 00
	00 00		 mov	 DWORD PTR _tvstruct$[ebp+8], 1

; 490  : 	tvstruct.item.iImage = 1;

  0007e	c7 45 cc 01 00
	00 00		 mov	 DWORD PTR _tvstruct$[ebp+32], 1
; File C:\Program Files (x86)\Microsoft Visual Studio\2019\Community\VC\Tools\MSVC\14.29.30133\atlmfc\include\afxcmn.inl

; 266  : 	{ ASSERT(::IsWindow(m_hWnd));  return (HTREEITEM)::SendMessage(m_hWnd, TVM_INSERTITEM, 0, (LPARAM)lpInsertStruct); }

  00085	ff 15 00 00 00
	00		 call	 DWORD PTR __imp__SendMessageA@16
; File D:\git\src\IBK\IBK_DRFN\ProjSrc\SrcChartEx\ChartAddIn\ChartDesignPropertyAddIn\ChartDesignPropertyAddIn\TreeDropList.cpp

; 495  : 	return hItem;

  0008b	8d 4d f0	 lea	 ecx, DWORD PTR _szText$[ebp]
  0008e	8b f0		 mov	 esi, eax
  00090	ff 15 00 00 00
	00		 call	 DWORD PTR __imp_??1?$CStringT@DV?$StrTraitMFC_DLL@DV?$ChTraitsCRT@D@ATL@@@@@ATL@@QAE@XZ
  00096	8b c6		 mov	 eax, esi

; 496  : 
; 497  : 	
; 498  : }

  00098	8b 4d f4	 mov	 ecx, DWORD PTR __$EHRec$[ebp]
  0009b	64 89 0d 00 00
	00 00		 mov	 DWORD PTR fs:0, ecx
  000a2	59		 pop	 ecx
  000a3	5e		 pop	 esi
  000a4	8b e5		 mov	 esp, ebp
  000a6	5d		 pop	 ebp
  000a7	c2 14 00	 ret	 20			; 00000014H
_TEXT	ENDS
;	COMDAT text$x
text$x	SEGMENT
__unwindfunclet$?AddItem@CTreeDropList@@QAEPAU_TREEITEM@@PAU2@PAD111@Z$0:
  00000	8d 4d f0	 lea	 ecx, DWORD PTR _szText$[ebp]
  00003	ff 25 00 00 00
	00		 jmp	 DWORD PTR __imp_??1?$CStringT@DV?$StrTraitMFC_DLL@DV?$ChTraitsCRT@D@ATL@@@@@ATL@@QAE@XZ
  00009	cc		 int	 3
  0000a	cc		 int	 3
  0000b	cc		 int	 3
  0000c	cc		 int	 3
  0000d	cc		 int	 3
__ehhandler$?AddItem@CTreeDropList@@QAEPAU_TREEITEM@@PAU2@PAD111@Z:
  0000e	90		 npad	 1
  0000f	90		 npad	 1
  00010	8b 54 24 08	 mov	 edx, DWORD PTR [esp+8]
  00014	8d 42 0c	 lea	 eax, DWORD PTR [edx+12]
  00017	8b 4a b0	 mov	 ecx, DWORD PTR [edx-80]
  0001a	33 c8		 xor	 ecx, eax
  0001c	e8 00 00 00 00	 call	 @__security_check_cookie@4
  00021	b8 00 00 00 00	 mov	 eax, OFFSET __ehfuncinfo$?AddItem@CTreeDropList@@QAEPAU_TREEITEM@@PAU2@PAD111@Z
  00026	e9 00 00 00 00	 jmp	 ___CxxFrameHandler3
text$x	ENDS
?AddItem@CTreeDropList@@QAEPAU_TREEITEM@@PAU2@PAD111@Z ENDP ; CTreeDropList::AddItem
; Function compile flags: /Ogtp
; File D:\git\src\IBK\IBK_DRFN\ProjSrc\SrcChartEx\ChartAddIn\ChartDesignPropertyAddIn\ChartDesignPropertyAddIn\TreeDropList.cpp
; File C:\Program Files (x86)\Microsoft Visual Studio\2019\Community\VC\Tools\MSVC\14.29.30133\atlmfc\include\afxcmn.inl
; File D:\git\src\IBK\IBK_DRFN\ProjSrc\SrcChartEx\ChartAddIn\ChartDesignPropertyAddIn\ChartDesignPropertyAddIn\TreeDropList.cpp
; File C:\Program Files (x86)\Microsoft Visual Studio\2019\Community\VC\Tools\MSVC\14.29.30133\atlmfc\include\afxcmn.inl
; File D:\git\src\IBK\IBK_DRFN\ProjSrc\SrcChartEx\ChartAddIn\ChartDesignPropertyAddIn\ChartDesignPropertyAddIn\TreeDropList.cpp
; File C:\Program Files (x86)\Microsoft Visual Studio\2019\Community\VC\Tools\MSVC\14.29.30133\atlmfc\include\afxcmn.inl
; File D:\git\src\IBK\IBK_DRFN\ProjSrc\SrcChartEx\ChartAddIn\ChartDesignPropertyAddIn\ChartDesignPropertyAddIn\TreeDropList.cpp
;	COMDAT ?AddPacket@CTreeDropList@@QAEPAU_TREEITEM@@PAD0@Z
_TEXT	SEGMENT
_tvstruct$ = -84					; size = 68
_szItem$ = -16						; size = 4
__$EHRec$ = -12						; size = 12
_szPacketName$ = 8					; size = 4
_szDescrip$ = 12					; size = 4
?AddPacket@CTreeDropList@@QAEPAU_TREEITEM@@PAD0@Z PROC	; CTreeDropList::AddPacket, COMDAT
; _this$ = ecx

; 440  : {

  00000	55		 push	 ebp
  00001	8b ec		 mov	 ebp, esp
  00003	6a ff		 push	 -1
  00005	68 00 00 00 00	 push	 __ehhandler$?AddPacket@CTreeDropList@@QAEPAU_TREEITEM@@PAD0@Z
  0000a	64 a1 00 00 00
	00		 mov	 eax, DWORD PTR fs:0
  00010	50		 push	 eax
  00011	83 ec 48	 sub	 esp, 72			; 00000048H
  00014	56		 push	 esi
  00015	a1 00 00 00 00	 mov	 eax, DWORD PTR ___security_cookie
  0001a	33 c5		 xor	 eax, ebp
  0001c	50		 push	 eax
  0001d	8d 45 f4	 lea	 eax, DWORD PTR __$EHRec$[ebp]
  00020	64 a3 00 00 00
	00		 mov	 DWORD PTR fs:0, eax
  00026	8b f1		 mov	 esi, ecx

; 441  : 	
; 442  : 	CString szItem;

  00028	8d 4d f0	 lea	 ecx, DWORD PTR _szItem$[ebp]
  0002b	ff 15 00 00 00
	00		 call	 DWORD PTR __imp_??0?$CStringT@DV?$StrTraitMFC_DLL@DV?$ChTraitsCRT@D@ATL@@@@@ATL@@QAE@XZ

; 443  : 	szItem.Format("[%s]%s",szPacketName,szDescrip);

  00031	ff 75 0c	 push	 DWORD PTR _szDescrip$[ebp]
  00034	8d 45 f0	 lea	 eax, DWORD PTR _szItem$[ebp]
  00037	c7 45 fc 00 00
	00 00		 mov	 DWORD PTR __$EHRec$[ebp+8], 0
  0003e	ff 75 08	 push	 DWORD PTR _szPacketName$[ebp]
  00041	68 00 00 00 00	 push	 OFFSET ??_C@_06KJKBOKBH@?$FL?$CFs?$FN?$CFs@
  00046	50		 push	 eax
  00047	ff 15 00 00 00
	00		 call	 DWORD PTR __imp_?Format@?$CStringT@DV?$StrTraitMFC_DLL@DV?$ChTraitsCRT@D@ATL@@@@@ATL@@QAAXPBDZZ

; 451  : 
; 452  : //	tvstruct.hItem.iImage = 0;
; 453  : 	tvstruct.item.pszText = (LPSTR)(LPCTSTR)szItem;

  0004d	8b 45 f0	 mov	 eax, DWORD PTR _szItem$[ebp]
  00050	83 c4 10	 add	 esp, 16			; 00000010H
  00053	89 45 c4	 mov	 DWORD PTR _tvstruct$[ebp+24], eax
; File C:\Program Files (x86)\Microsoft Visual Studio\2019\Community\VC\Tools\MSVC\14.29.30133\atlmfc\include\afxcmn.inl

; 266  : 	{ ASSERT(::IsWindow(m_hWnd));  return (HTREEITEM)::SendMessage(m_hWnd, TVM_INSERTITEM, 0, (LPARAM)lpInsertStruct); }

  00056	8d 45 ac	 lea	 eax, DWORD PTR _tvstruct$[ebp]
; File D:\git\src\IBK\IBK_DRFN\ProjSrc\SrcChartEx\ChartAddIn\ChartDesignPropertyAddIn\ChartDesignPropertyAddIn\TreeDropList.cpp

; 449  : 	tvstruct.hParent = NULL;

  00059	c7 45 ac 00 00
	00 00		 mov	 DWORD PTR _tvstruct$[ebp], 0

; 450  : 	tvstruct.hInsertAfter = TVI_LAST;

  00060	c7 45 b0 02 00
	ff ff		 mov	 DWORD PTR _tvstruct$[ebp+4], -65534 ; ffff0002H
; File C:\Program Files (x86)\Microsoft Visual Studio\2019\Community\VC\Tools\MSVC\14.29.30133\atlmfc\include\afxcmn.inl

; 266  : 	{ ASSERT(::IsWindow(m_hWnd));  return (HTREEITEM)::SendMessage(m_hWnd, TVM_INSERTITEM, 0, (LPARAM)lpInsertStruct); }

  00067	50		 push	 eax
  00068	6a 00		 push	 0
  0006a	68 00 11 00 00	 push	 4352			; 00001100H
  0006f	ff 76 20	 push	 DWORD PTR [esi+32]
; File D:\git\src\IBK\IBK_DRFN\ProjSrc\SrcChartEx\ChartAddIn\ChartDesignPropertyAddIn\ChartDesignPropertyAddIn\TreeDropList.cpp

; 454  : 	tvstruct.item.mask = TVIF_TEXT;

  00072	c7 45 b4 01 00
	00 00		 mov	 DWORD PTR _tvstruct$[ebp+8], 1
; File C:\Program Files (x86)\Microsoft Visual Studio\2019\Community\VC\Tools\MSVC\14.29.30133\atlmfc\include\afxcmn.inl

; 266  : 	{ ASSERT(::IsWindow(m_hWnd));  return (HTREEITEM)::SendMessage(m_hWnd, TVM_INSERTITEM, 0, (LPARAM)lpInsertStruct); }

  00079	ff 15 00 00 00
	00		 call	 DWORD PTR __imp__SendMessageA@16
; File D:\git\src\IBK\IBK_DRFN\ProjSrc\SrcChartEx\ChartAddIn\ChartDesignPropertyAddIn\ChartDesignPropertyAddIn\TreeDropList.cpp

; 458  : 	return hItem;

  0007f	8d 4d f0	 lea	 ecx, DWORD PTR _szItem$[ebp]
  00082	8b f0		 mov	 esi, eax
  00084	ff 15 00 00 00
	00		 call	 DWORD PTR __imp_??1?$CStringT@DV?$StrTraitMFC_DLL@DV?$ChTraitsCRT@D@ATL@@@@@ATL@@QAE@XZ
  0008a	8b c6		 mov	 eax, esi

; 459  : 
; 460  : }

  0008c	8b 4d f4	 mov	 ecx, DWORD PTR __$EHRec$[ebp]
  0008f	64 89 0d 00 00
	00 00		 mov	 DWORD PTR fs:0, ecx
  00096	59		 pop	 ecx
  00097	5e		 pop	 esi
  00098	8b e5		 mov	 esp, ebp
  0009a	5d		 pop	 ebp
  0009b	c2 08 00	 ret	 8
_TEXT	ENDS
;	COMDAT text$x
text$x	SEGMENT
__unwindfunclet$?AddPacket@CTreeDropList@@QAEPAU_TREEITEM@@PAD0@Z$0:
  00000	8d 4d f0	 lea	 ecx, DWORD PTR _szItem$[ebp]
  00003	ff 25 00 00 00
	00		 jmp	 DWORD PTR __imp_??1?$CStringT@DV?$StrTraitMFC_DLL@DV?$ChTraitsCRT@D@ATL@@@@@ATL@@QAE@XZ
  00009	cc		 int	 3
  0000a	cc		 int	 3
  0000b	cc		 int	 3
  0000c	cc		 int	 3
  0000d	cc		 int	 3
__ehhandler$?AddPacket@CTreeDropList@@QAEPAU_TREEITEM@@PAD0@Z:
  0000e	90		 npad	 1
  0000f	90		 npad	 1
  00010	8b 54 24 08	 mov	 edx, DWORD PTR [esp+8]
  00014	8d 42 0c	 lea	 eax, DWORD PTR [edx+12]
  00017	8b 4a b0	 mov	 ecx, DWORD PTR [edx-80]
  0001a	33 c8		 xor	 ecx, eax
  0001c	e8 00 00 00 00	 call	 @__security_check_cookie@4
  00021	b8 00 00 00 00	 mov	 eax, OFFSET __ehfuncinfo$?AddPacket@CTreeDropList@@QAEPAU_TREEITEM@@PAD0@Z
  00026	e9 00 00 00 00	 jmp	 ___CxxFrameHandler3
text$x	ENDS
?AddPacket@CTreeDropList@@QAEPAU_TREEITEM@@PAD0@Z ENDP	; CTreeDropList::AddPacket
; Function compile flags: /Ogtp
; File D:\git\src\IBK\IBK_DRFN\ProjSrc\SrcChartEx\ChartAddIn\ChartDesignPropertyAddIn\ChartDesignPropertyAddIn\TreeDropList.cpp
; File C:\Program Files (x86)\Microsoft Visual Studio\2019\Community\VC\Tools\MSVC\14.29.30133\atlmfc\include\afxcmn.inl
; File D:\git\src\IBK\IBK_DRFN\ProjSrc\SrcChartEx\ChartAddIn\ChartDesignPropertyAddIn\ChartDesignPropertyAddIn\TreeDropList.cpp
; File C:\Program Files (x86)\Microsoft Visual Studio\2019\Community\VC\Tools\MSVC\14.29.30133\atlmfc\include\afxcmn.inl
; File D:\git\src\IBK\IBK_DRFN\ProjSrc\SrcChartEx\ChartAddIn\ChartDesignPropertyAddIn\ChartDesignPropertyAddIn\TreeDropList.cpp
;	COMDAT ?AddData@CTreeDropList@@QAEPAU_TREEITEM@@PAU2@PADH@Z
_TEXT	SEGMENT
_tvstruct$ = -68					; size = 68
_hParent$ = 8						; size = 4
_Descption$ = 12					; size = 4
_IsKey$ = 16						; size = 4
?AddData@CTreeDropList@@QAEPAU_TREEITEM@@PAU2@PADH@Z PROC ; CTreeDropList::AddData, COMDAT
; _this$ = ecx

; 464  : {

  00000	55		 push	 ebp
  00001	8b ec		 mov	 ebp, esp
  00003	83 ec 44	 sub	 esp, 68			; 00000044H

; 465  : 	HTREEITEM hItem;
; 466  : 	TV_INSERTSTRUCT tvstruct;
; 467  : 
; 468  : 	tvstruct.hParent = hParent;

  00006	8b 45 08	 mov	 eax, DWORD PTR _hParent$[ebp]
  00009	89 45 bc	 mov	 DWORD PTR _tvstruct$[ebp], eax

; 472  : 
; 473  : 	tvstruct.item.pszText = Descption;

  0000c	8b 45 0c	 mov	 eax, DWORD PTR _Descption$[ebp]
  0000f	89 45 d4	 mov	 DWORD PTR _tvstruct$[ebp+24], eax
; File C:\Program Files (x86)\Microsoft Visual Studio\2019\Community\VC\Tools\MSVC\14.29.30133\atlmfc\include\afxcmn.inl

; 266  : 	{ ASSERT(::IsWindow(m_hWnd));  return (HTREEITEM)::SendMessage(m_hWnd, TVM_INSERTITEM, 0, (LPARAM)lpInsertStruct); }

  00012	8d 45 bc	 lea	 eax, DWORD PTR _tvstruct$[ebp]
  00015	50		 push	 eax
  00016	6a 00		 push	 0
  00018	68 00 11 00 00	 push	 4352			; 00001100H
  0001d	ff 71 20	 push	 DWORD PTR [ecx+32]
; File D:\git\src\IBK\IBK_DRFN\ProjSrc\SrcChartEx\ChartAddIn\ChartDesignPropertyAddIn\ChartDesignPropertyAddIn\TreeDropList.cpp

; 469  : 	tvstruct.hInsertAfter = TVI_LAST;

  00020	c7 45 c0 02 00
	ff ff		 mov	 DWORD PTR _tvstruct$[ebp+4], -65534 ; ffff0002H

; 470  : 	
; 471  : 	tvstruct.item.mask = TVIF_TEXT;

  00027	c7 45 c4 01 00
	00 00		 mov	 DWORD PTR _tvstruct$[ebp+8], 1
; File C:\Program Files (x86)\Microsoft Visual Studio\2019\Community\VC\Tools\MSVC\14.29.30133\atlmfc\include\afxcmn.inl

; 266  : 	{ ASSERT(::IsWindow(m_hWnd));  return (HTREEITEM)::SendMessage(m_hWnd, TVM_INSERTITEM, 0, (LPARAM)lpInsertStruct); }

  0002e	ff 15 00 00 00
	00		 call	 DWORD PTR __imp__SendMessageA@16
; File D:\git\src\IBK\IBK_DRFN\ProjSrc\SrcChartEx\ChartAddIn\ChartDesignPropertyAddIn\ChartDesignPropertyAddIn\TreeDropList.cpp

; 477  : }

  00034	8b e5		 mov	 esp, ebp
  00036	5d		 pop	 ebp
  00037	c2 0c 00	 ret	 12			; 0000000cH
?AddData@CTreeDropList@@QAEPAU_TREEITEM@@PAU2@PADH@Z ENDP ; CTreeDropList::AddData
_TEXT	ENDS
; Function compile flags: /Ogtp
; File D:\git\src\IBK\IBK_DRFN\ProjSrc\SrcChartEx\ChartAddIn\ChartDesignPropertyAddIn\ChartDesignPropertyAddIn\TreeDropList.cpp
;	COMDAT ?OnCancel@CTreeDropList@@IAEXXZ
_TEXT	SEGMENT
?OnCancel@CTreeDropList@@IAEXXZ PROC			; CTreeDropList::OnCancel, COMDAT
; _this$ = ecx

; 145  : {

  00000	56		 push	 esi
  00001	8b f1		 mov	 esi, ecx

; 146  : 	if (m_pCombo)

  00003	8b 8e 9c 00 00
	00		 mov	 ecx, DWORD PTR [esi+156]
  00009	85 c9		 test	 ecx, ecx
  0000b	74 0f		 je	 SHORT $LN2@OnCancel

; 147  : 	{
; 148  : 		m_pCombo->OnCancel ();

  0000d	e8 00 00 00 00	 call	 ?OnCancel@CTreeCombo@@IAEXXZ ; CTreeCombo::OnCancel

; 149  : 		m_CloseReason = e_Cancel;

  00012	c7 86 a4 00 00
	00 00 00 00 00	 mov	 DWORD PTR [esi+164], 0
$LN2@OnCancel:

; 150  : 	}
; 151  : 	ShowWindow (SW_HIDE);

  0001c	6a 00		 push	 0
  0001e	8b ce		 mov	 ecx, esi
  00020	e8 00 00 00 00	 call	 ?ShowWindow@CWnd@@QAEHH@Z ; CWnd::ShowWindow
  00025	5e		 pop	 esi

; 152  : }

  00026	c3		 ret	 0
?OnCancel@CTreeDropList@@IAEXXZ ENDP			; CTreeDropList::OnCancel
_TEXT	ENDS
; Function compile flags: /Ogtp
; File D:\git\src\IBK\IBK_DRFN\ProjSrc\SrcChartEx\ChartAddIn\ChartDesignPropertyAddIn\ChartDesignPropertyAddIn\TreeDropList.cpp
; File C:\Program Files (x86)\Microsoft Visual Studio\2019\Community\VC\Tools\MSVC\14.29.30133\atlmfc\include\afxcmn.inl
; File D:\git\src\IBK\IBK_DRFN\ProjSrc\SrcChartEx\ChartAddIn\ChartDesignPropertyAddIn\ChartDesignPropertyAddIn\TreeDropList.cpp
;	COMDAT ?OnSelection@CTreeDropList@@IAEXXZ
_TEXT	SEGMENT
$T2 = -20						; size = 4
_Text$3 = -16						; size = 4
__$EHRec$ = -12						; size = 12
?OnSelection@CTreeDropList@@IAEXXZ PROC			; CTreeDropList::OnSelection, COMDAT
; _this$ = ecx

; 115  : {

  00000	55		 push	 ebp
  00001	8b ec		 mov	 ebp, esp
  00003	6a ff		 push	 -1
  00005	68 00 00 00 00	 push	 __ehhandler$?OnSelection@CTreeDropList@@IAEXXZ
  0000a	64 a1 00 00 00
	00		 mov	 eax, DWORD PTR fs:0
  00010	50		 push	 eax
  00011	83 ec 08	 sub	 esp, 8
  00014	56		 push	 esi
  00015	57		 push	 edi
  00016	a1 00 00 00 00	 mov	 eax, DWORD PTR ___security_cookie
  0001b	33 c5		 xor	 eax, ebp
  0001d	50		 push	 eax
  0001e	8d 45 f4	 lea	 eax, DWORD PTR __$EHRec$[ebp]
  00021	64 a3 00 00 00
	00		 mov	 DWORD PTR fs:0, eax
  00027	8b f1		 mov	 esi, ecx
; File C:\Program Files (x86)\Microsoft Visual Studio\2019\Community\VC\Tools\MSVC\14.29.30133\atlmfc\include\afxcmn.inl

; 316  : 	{ ASSERT(::IsWindow(m_hWnd)); return (HTREEITEM)::SendMessage(m_hWnd, TVM_GETNEXTITEM, TVGN_CARET, 0); }

  00029	6a 00		 push	 0
  0002b	6a 09		 push	 9
  0002d	68 0a 11 00 00	 push	 4362			; 0000110aH
  00032	ff 76 20	 push	 DWORD PTR [esi+32]
  00035	ff 15 00 00 00
	00		 call	 DWORD PTR __imp__SendMessageA@16
; File D:\git\src\IBK\IBK_DRFN\ProjSrc\SrcChartEx\ChartAddIn\ChartDesignPropertyAddIn\ChartDesignPropertyAddIn\TreeDropList.cpp

; 117  : 	if (m_pCombo)

  0003b	83 be 9c 00 00
	00 00		 cmp	 DWORD PTR [esi+156], 0
  00042	8b f8		 mov	 edi, eax
  00044	74 6c		 je	 SHORT $LN2@OnSelectio

; 118  : 	{
; 119  : 		CString Text;

  00046	8d 4d f0	 lea	 ecx, DWORD PTR _Text$3[ebp]
  00049	ff 15 00 00 00
	00		 call	 DWORD PTR __imp_??0?$CStringT@DV?$StrTraitMFC_DLL@DV?$ChTraitsCRT@D@ATL@@@@@ATL@@QAE@XZ

; 120  : 		Text = GetTreePath (hItem);//GetItemText (hItem);

  0004f	57		 push	 edi
  00050	8d 45 ec	 lea	 eax, DWORD PTR $T2[ebp]
  00053	c7 45 fc 00 00
	00 00		 mov	 DWORD PTR __$EHRec$[ebp+8], 0
  0005a	50		 push	 eax
  0005b	8b ce		 mov	 ecx, esi
  0005d	e8 00 00 00 00	 call	 ?GetTreePath@CTreeDropList@@IAE?AV?$CStringT@DV?$StrTraitMFC_DLL@DV?$ChTraitsCRT@D@ATL@@@@@ATL@@PAU_TREEITEM@@@Z ; CTreeDropList::GetTreePath
  00062	50		 push	 eax
  00063	8d 4d f0	 lea	 ecx, DWORD PTR _Text$3[ebp]
  00066	c6 45 fc 01	 mov	 BYTE PTR __$EHRec$[ebp+8], 1
  0006a	ff 15 00 00 00
	00		 call	 DWORD PTR __imp_??4?$CStringT@DV?$StrTraitMFC_DLL@DV?$ChTraitsCRT@D@ATL@@@@@ATL@@QAEAAV01@ABV01@@Z
  00070	8d 4d ec	 lea	 ecx, DWORD PTR $T2[ebp]
  00073	c6 45 fc 00	 mov	 BYTE PTR __$EHRec$[ebp+8], 0
  00077	ff 15 00 00 00
	00		 call	 DWORD PTR __imp_??1?$CStringT@DV?$StrTraitMFC_DLL@DV?$ChTraitsCRT@D@ATL@@@@@ATL@@QAE@XZ

; 121  : 		m_pCombo->SetWindowText(Text);

  0007d	ff 75 f0	 push	 DWORD PTR _Text$3[ebp]
  00080	8b 8e 9c 00 00
	00		 mov	 ecx, DWORD PTR [esi+156]
  00086	e8 00 00 00 00	 call	 ?SetWindowTextA@CTreeCombo@@QAEXPBD@Z ; CTreeCombo::SetWindowTextA

; 122  : 
; 123  : 		m_pCombo->SendParentComboMessage (CBN_SELENDOK);

  0008b	8b 8e 9c 00 00
	00		 mov	 ecx, DWORD PTR [esi+156]
  00091	6a 09		 push	 9
  00093	e8 00 00 00 00	 call	 ?SendParentComboMessage@CTreeCombo@@IAEJI@Z ; CTreeCombo::SendParentComboMessage

; 124  : 		m_CloseReason = e_Select;
; 125  : 	}

  00098	8d 4d f0	 lea	 ecx, DWORD PTR _Text$3[ebp]
  0009b	c7 86 a4 00 00
	00 01 00 00 00	 mov	 DWORD PTR [esi+164], 1
  000a5	c7 45 fc ff ff
	ff ff		 mov	 DWORD PTR __$EHRec$[ebp+8], -1
  000ac	ff 15 00 00 00
	00		 call	 DWORD PTR __imp_??1?$CStringT@DV?$StrTraitMFC_DLL@DV?$ChTraitsCRT@D@ATL@@@@@ATL@@QAE@XZ
$LN2@OnSelectio:

; 126  : 	ShowWindow (SW_HIDE);

  000b2	6a 00		 push	 0
  000b4	8b ce		 mov	 ecx, esi
  000b6	e8 00 00 00 00	 call	 ?ShowWindow@CWnd@@QAEHH@Z ; CWnd::ShowWindow

; 127  : }

  000bb	8b 4d f4	 mov	 ecx, DWORD PTR __$EHRec$[ebp]
  000be	64 89 0d 00 00
	00 00		 mov	 DWORD PTR fs:0, ecx
  000c5	59		 pop	 ecx
  000c6	5f		 pop	 edi
  000c7	5e		 pop	 esi
  000c8	8b e5		 mov	 esp, ebp
  000ca	5d		 pop	 ebp
  000cb	c3		 ret	 0
_TEXT	ENDS
;	COMDAT text$x
text$x	SEGMENT
__unwindfunclet$?OnSelection@CTreeDropList@@IAEXXZ$0:
  00000	8d 4d f0	 lea	 ecx, DWORD PTR _Text$3[ebp]
  00003	ff 25 00 00 00
	00		 jmp	 DWORD PTR __imp_??1?$CStringT@DV?$StrTraitMFC_DLL@DV?$ChTraitsCRT@D@ATL@@@@@ATL@@QAE@XZ
__unwindfunclet$?OnSelection@CTreeDropList@@IAEXXZ$1:
  00009	8d 4d ec	 lea	 ecx, DWORD PTR $T2[ebp]
  0000c	ff 25 00 00 00
	00		 jmp	 DWORD PTR __imp_??1?$CStringT@DV?$StrTraitMFC_DLL@DV?$ChTraitsCRT@D@ATL@@@@@ATL@@QAE@XZ
  00012	cc		 int	 3
  00013	cc		 int	 3
  00014	cc		 int	 3
  00015	cc		 int	 3
  00016	cc		 int	 3
__ehhandler$?OnSelection@CTreeDropList@@IAEXXZ:
  00017	90		 npad	 1
  00018	90		 npad	 1
  00019	8b 54 24 08	 mov	 edx, DWORD PTR [esp+8]
  0001d	8d 42 0c	 lea	 eax, DWORD PTR [edx+12]
  00020	8b 4a ec	 mov	 ecx, DWORD PTR [edx-20]
  00023	33 c8		 xor	 ecx, eax
  00025	e8 00 00 00 00	 call	 @__security_check_cookie@4
  0002a	b8 00 00 00 00	 mov	 eax, OFFSET __ehfuncinfo$?OnSelection@CTreeDropList@@IAEXXZ
  0002f	e9 00 00 00 00	 jmp	 ___CxxFrameHandler3
text$x	ENDS
?OnSelection@CTreeDropList@@IAEXXZ ENDP			; CTreeDropList::OnSelection
; Function compile flags: /Ogtp
; File D:\git\src\IBK\IBK_DRFN\ProjSrc\SrcChartEx\ChartAddIn\ChartDesignPropertyAddIn\ChartDesignPropertyAddIn\TreeDropList.cpp
; File D:\git\src\IBK\IBK_DRFN\ProjSrc\SrcChartEx\ChartAddIn\ChartDesignPropertyAddIn\Include_Chart\DLL_Load\IMetaTable.h
; File C:\Program Files (x86)\Microsoft Visual Studio\2019\Community\VC\Tools\MSVC\14.29.30133\atlmfc\include\afxwin1.inl
; File D:\git\src\IBK\IBK_DRFN\ProjSrc\SrcChartEx\ChartAddIn\ChartDesignPropertyAddIn\Include_Chart\DLL_Load\IMetaTable.h
; File C:\Program Files (x86)\Microsoft Visual Studio\2019\Community\VC\Tools\MSVC\14.29.30133\atlmfc\include\afxwin1.inl
; File D:\git\src\IBK\IBK_DRFN\ProjSrc\SrcChartEx\ChartAddIn\ChartDesignPropertyAddIn\ChartDesignPropertyAddIn\TreeDropList.cpp
; File D:\git\src\IBK\IBK_DRFN\ProjSrc\SrcChartEx\ChartAddIn\ChartDesignPropertyAddIn\Include_Chart\DLL_Load\IMetaTable.h
; File C:\Program Files (x86)\Microsoft Visual Studio\2019\Community\VC\Tools\MSVC\14.29.30133\atlmfc\include\afxwin1.inl
; File D:\git\src\IBK\IBK_DRFN\ProjSrc\SrcChartEx\ChartAddIn\ChartDesignPropertyAddIn\ChartDesignPropertyAddIn\TreeDropList.cpp
;	COMDAT ?LoadTableInfo@CTreeDropList@@IAEHV?$CStringT@DV?$StrTraitMFC_DLL@DV?$ChTraitsCRT@D@ATL@@@@@ATL@@@Z
_TEXT	SEGMENT
___mlrs__$2 = -540					; size = 4
_strFormat$3 = -536					; size = 4
$T4 = -532						; size = 4
_szMsg$5 = -532						; size = 4
_buff$ = -528						; size = 256
_tmp$ = -272						; size = 256
__$ArrayPad$ = -16					; size = 4
__$EHRec$ = -12						; size = 12
_szConfigFile$ = 8					; size = 4
?LoadTableInfo@CTreeDropList@@IAEHV?$CStringT@DV?$StrTraitMFC_DLL@DV?$ChTraitsCRT@D@ATL@@@@@ATL@@@Z PROC ; CTreeDropList::LoadTableInfo, COMDAT
; _this$ = ecx

; 502  : {

  00000	55		 push	 ebp
  00001	8b ec		 mov	 ebp, esp
  00003	6a ff		 push	 -1
  00005	68 00 00 00 00	 push	 __ehhandler$?LoadTableInfo@CTreeDropList@@IAEHV?$CStringT@DV?$StrTraitMFC_DLL@DV?$ChTraitsCRT@D@ATL@@@@@ATL@@@Z
  0000a	64 a1 00 00 00
	00		 mov	 eax, DWORD PTR fs:0
  00010	50		 push	 eax
  00011	81 ec 10 02 00
	00		 sub	 esp, 528		; 00000210H
  00017	a1 00 00 00 00	 mov	 eax, DWORD PTR ___security_cookie
  0001c	33 c5		 xor	 eax, ebp
  0001e	89 45 f0	 mov	 DWORD PTR __$ArrayPad$[ebp], eax
  00021	53		 push	 ebx
  00022	56		 push	 esi
  00023	57		 push	 edi
  00024	50		 push	 eax
  00025	8d 45 f4	 lea	 eax, DWORD PTR __$EHRec$[ebp]
  00028	64 a3 00 00 00
	00		 mov	 DWORD PTR fs:0, eax
  0002e	8b d9		 mov	 ebx, ecx

; 503  : 
; 504  : 	int len;
; 505  : 	FILE *fp = fopen((LPCTSTR)szConfigFile,"r+t");

  00030	68 00 00 00 00	 push	 OFFSET ??_C@_03GAMGFNAH@r?$CLt@
  00035	ff 75 08	 push	 DWORD PTR _szConfigFile$[ebp]
  00038	c7 45 fc 00 00
	00 00		 mov	 DWORD PTR __$EHRec$[ebp+8], 0
  0003f	ff 15 00 00 00
	00		 call	 DWORD PTR __imp__fopen
  00045	8b f0		 mov	 esi, eax
  00047	83 c4 08	 add	 esp, 8

; 506  : 
; 507  : 	if(fp == NULL)

  0004a	85 f6		 test	 esi, esi
  0004c	0f 85 fb 00 00
	00		 jne	 $LN56@LoadTableI

; 508  : 	{
; 509  : 		ML_SET_LANGUAGE_RES();

  00052	e8 00 00 00 00	 call	 ?AfxGetStaticModuleState@@YGPAVAFX_MODULE_STATE@@XZ ; AfxGetStaticModuleState
  00057	8b bb ac 00 00
	00		 mov	 edi, DWORD PTR [ebx+172]
  0005d	8b 70 08	 mov	 esi, DWORD PTR [eax+8]
; File D:\git\src\IBK\IBK_DRFN\ProjSrc\SrcChartEx\ChartAddIn\ChartDesignPropertyAddIn\Include_Chart\DLL_Load\IMetaTable.h

; 936  : 	DECLARE_FUNCTION2(	LoadResourceDLL,				HMODULE, AfxGetStaticModuleState()->m_hCurrentInstanceHandle, HWND, HMODULE);

  00060	a1 04 00 00 00	 mov	 eax, DWORD PTR ?g_iMetaTable@@3VIMetaTable@@A+4
  00065	85 c0		 test	 eax, eax
  00067	74 46		 je	 SHORT $LN20@LoadTableI
  00069	bb 80 0d 00 00	 mov	 ebx, 3456		; 00000d80H
  0006e	66 3b 1d 94 00
	00 00		 cmp	 bx, WORD PTR ?g_iMetaTable@@3VIMetaTable@@A+148
  00075	74 24		 je	 SHORT $LN77@LoadTableI
  00077	68 00 00 00 00	 push	 OFFSET ??_C@_0BA@ENJOCHIO@LoadResourceDLL@
  0007c	50		 push	 eax
  0007d	c7 05 90 00 00
	00 00 00 00 00	 mov	 DWORD PTR ?g_iMetaTable@@3VIMetaTable@@A+144, 0
  00087	ff 15 00 00 00
	00		 call	 DWORD PTR __imp__GetProcAddress@8
  0008d	a3 90 00 00 00	 mov	 DWORD PTR ?g_iMetaTable@@3VIMetaTable@@A+144, eax
  00092	66 89 1d 94 00
	00 00		 mov	 WORD PTR ?g_iMetaTable@@3VIMetaTable@@A+148, bx
  00099	eb 05		 jmp	 SHORT $LN19@LoadTableI
$LN77@LoadTableI:
  0009b	a1 90 00 00 00	 mov	 eax, DWORD PTR ?g_iMetaTable@@3VIMetaTable@@A+144
$LN19@LoadTableI:
  000a0	85 c0		 test	 eax, eax
  000a2	74 0b		 je	 SHORT $LN20@LoadTableI
  000a4	56		 push	 esi
  000a5	57		 push	 edi
  000a6	ff d0		 call	 eax
  000a8	83 c4 08	 add	 esp, 8
  000ab	8b f8		 mov	 edi, eax
  000ad	eb 08		 jmp	 SHORT $LN17@LoadTableI
$LN20@LoadTableI:
  000af	e8 00 00 00 00	 call	 ?AfxGetStaticModuleState@@YGPAVAFX_MODULE_STATE@@XZ ; AfxGetStaticModuleState
  000b4	8b 78 08	 mov	 edi, DWORD PTR [eax+8]
$LN17@LoadTableI:
; File C:\Program Files (x86)\Microsoft Visual Studio\2019\Community\VC\Tools\MSVC\14.29.30133\atlmfc\include\afxwin1.inl

; 25   : 		return afxCurrentResourceHandle; }

  000b7	e8 00 00 00 00	 call	 ?AfxGetModuleState@@YGPAVAFX_MODULE_STATE@@XZ ; AfxGetModuleState
; File D:\git\src\IBK\IBK_DRFN\ProjSrc\SrcChartEx\ChartAddIn\ChartDesignPropertyAddIn\Include_Chart\DLL_Load\IMetaTable.h

; 1032 : 		m_hInstance = AfxGetResourceHandle();

  000bc	8b 70 0c	 mov	 esi, DWORD PTR [eax+12]
  000bf	89 b5 e4 fd ff
	ff		 mov	 DWORD PTR ___mlrs__$2[ebp], esi
; File C:\Program Files (x86)\Microsoft Visual Studio\2019\Community\VC\Tools\MSVC\14.29.30133\atlmfc\include\afxwin1.inl

; 27   : 	{ ASSERT(hInstResource != NULL); afxCurrentResourceHandle = hInstResource; }

  000c5	e8 00 00 00 00	 call	 ?AfxGetModuleState@@YGPAVAFX_MODULE_STATE@@XZ ; AfxGetModuleState
  000ca	89 78 0c	 mov	 DWORD PTR [eax+12], edi
; File D:\git\src\IBK\IBK_DRFN\ProjSrc\SrcChartEx\ChartAddIn\ChartDesignPropertyAddIn\ChartDesignPropertyAddIn\TreeDropList.cpp

; 510  : 		CString szMsg, strFormat;

  000cd	8d 8d ec fd ff
	ff		 lea	 ecx, DWORD PTR _szMsg$5[ebp]
  000d3	ff 15 00 00 00
	00		 call	 DWORD PTR __imp_??0?$CStringT@DV?$StrTraitMFC_DLL@DV?$ChTraitsCRT@D@ATL@@@@@ATL@@QAE@XZ
  000d9	8d 8d e8 fd ff
	ff		 lea	 ecx, DWORD PTR _strFormat$3[ebp]
  000df	ff 15 00 00 00
	00		 call	 DWORD PTR __imp_??0?$CStringT@DV?$StrTraitMFC_DLL@DV?$ChTraitsCRT@D@ATL@@@@@ATL@@QAE@XZ

; 511  : 		strFormat.LoadString( IDS_FORMAT_FILE_NOT_FOUND);

  000e5	68 6c 04 00 00	 push	 1132			; 0000046cH
  000ea	8d 8d e8 fd ff
	ff		 lea	 ecx, DWORD PTR _strFormat$3[ebp]
  000f0	c6 45 fc 03	 mov	 BYTE PTR __$EHRec$[ebp+8], 3
  000f4	ff 15 00 00 00
	00		 call	 DWORD PTR __imp_?LoadStringA@?$CStringT@DV?$StrTraitMFC_DLL@DV?$ChTraitsCRT@D@ATL@@@@@ATL@@QAEHI@Z

; 512  : 		szMsg.Format( strFormat,szConfigFile);

  000fa	ff 75 08	 push	 DWORD PTR _szConfigFile$[ebp]
  000fd	8d 85 ec fd ff
	ff		 lea	 eax, DWORD PTR _szMsg$5[ebp]
  00103	ff b5 e8 fd ff
	ff		 push	 DWORD PTR _strFormat$3[ebp]
  00109	50		 push	 eax
  0010a	ff 15 00 00 00
	00		 call	 DWORD PTR __imp_?Format@?$CStringT@DV?$StrTraitMFC_DLL@DV?$ChTraitsCRT@D@ATL@@@@@ATL@@QAAXPBDZZ
  00110	83 c4 0c	 add	 esp, 12			; 0000000cH

; 513  : 		AfxMessageBox(szMsg);

  00113	6a 00		 push	 0
  00115	6a 00		 push	 0
  00117	ff b5 ec fd ff
	ff		 push	 DWORD PTR _szMsg$5[ebp]
  0011d	e8 00 00 00 00	 call	 ?AfxMessageBox@@YGHPBDII@Z ; AfxMessageBox

; 514  : 		return FALSE;

  00122	8d 8d e8 fd ff
	ff		 lea	 ecx, DWORD PTR _strFormat$3[ebp]
  00128	ff 15 00 00 00
	00		 call	 DWORD PTR __imp_??1?$CStringT@DV?$StrTraitMFC_DLL@DV?$ChTraitsCRT@D@ATL@@@@@ATL@@QAE@XZ
  0012e	8d 8d ec fd ff
	ff		 lea	 ecx, DWORD PTR _szMsg$5[ebp]
  00134	ff 15 00 00 00
	00		 call	 DWORD PTR __imp_??1?$CStringT@DV?$StrTraitMFC_DLL@DV?$ChTraitsCRT@D@ATL@@@@@ATL@@QAE@XZ
; File D:\git\src\IBK\IBK_DRFN\ProjSrc\SrcChartEx\ChartAddIn\ChartDesignPropertyAddIn\Include_Chart\DLL_Load\IMetaTable.h

; 1036 : 	{

  0013a	c6 45 fc 04	 mov	 BYTE PTR __$EHRec$[ebp+8], 4
; File C:\Program Files (x86)\Microsoft Visual Studio\2019\Community\VC\Tools\MSVC\14.29.30133\atlmfc\include\afxwin1.inl

; 27   : 	{ ASSERT(hInstResource != NULL); afxCurrentResourceHandle = hInstResource; }

  0013e	e8 00 00 00 00	 call	 ?AfxGetModuleState@@YGPAVAFX_MODULE_STATE@@XZ ; AfxGetModuleState
  00143	89 70 0c	 mov	 DWORD PTR [eax+12], esi
  00146	33 f6		 xor	 esi, esi
  00148	e9 32 01 00 00	 jmp	 $LN14@LoadTableI
$LN56@LoadTableI:
; File D:\git\src\IBK\IBK_DRFN\ProjSrc\SrcChartEx\ChartAddIn\ChartDesignPropertyAddIn\ChartDesignPropertyAddIn\TreeDropList.cpp

; 519  : 	while(fgets((char*)tmp,256,fp))

  0014d	8b 3d 00 00 00
	00		 mov	 edi, DWORD PTR __imp__fgets
  00153	8d 85 f0 fe ff
	ff		 lea	 eax, DWORD PTR _tmp$[ebp]
  00159	56		 push	 esi
  0015a	68 00 01 00 00	 push	 256			; 00000100H
  0015f	50		 push	 eax
  00160	ff d7		 call	 edi
  00162	83 c4 0c	 add	 esp, 12			; 0000000cH
  00165	85 c0		 test	 eax, eax
  00167	0f 84 fc 00 00
	00		 je	 $LN3@LoadTableI
  0016d	0f 1f 00	 npad	 3
$LL2@LoadTableI:

; 520  : 	{
; 521  : 		if(tmp[0] == '/') continue;

  00170	8a 8d f0 fe ff
	ff		 mov	 cl, BYTE PTR _tmp$[ebp]
  00176	80 f9 2f	 cmp	 cl, 47			; 0000002fH
  00179	0f 84 d0 00 00
	00		 je	 $LN7@LoadTableI

; 522  : 		if(tmp[0] == '#') continue;

  0017f	80 f9 23	 cmp	 cl, 35			; 00000023H
  00182	0f 84 c7 00 00
	00		 je	 $LN7@LoadTableI

; 542  : 	int n = 0;

  00188	33 d2		 xor	 edx, edx

; 543  : 	int i = 0;
; 544  : 	for( i = 0; tmp[i] != NULL;i++)

  0018a	33 c0		 xor	 eax, eax
  0018c	84 c9		 test	 cl, cl
  0018e	74 11		 je	 SHORT $LN60@LoadTableI
$LL40@LoadTableI:

; 545  : 	{
; 546  : 		if(tmp[i] > ' ') break;

  00190	80 f9 20	 cmp	 cl, 32			; 00000020H
  00193	77 0c		 ja	 SHORT $LN60@LoadTableI

; 543  : 	int i = 0;
; 544  : 	for( i = 0; tmp[i] != NULL;i++)

  00195	8a 8c 05 f1 fe
	ff ff		 mov	 cl, BYTE PTR _tmp$[ebp+eax+1]
  0019c	40		 inc	 eax
  0019d	84 c9		 test	 cl, cl
  0019f	75 ef		 jne	 SHORT $LL40@LoadTableI
$LN60@LoadTableI:

; 547  : 	}
; 548  : 
; 549  : 	for(;tmp[i] != NULL;i++)

  001a1	8a 8c 05 f0 fe
	ff ff		 mov	 cl, BYTE PTR _tmp$[ebp+eax]
  001a8	84 c9		 test	 cl, cl
  001aa	74 64		 je	 SHORT $LN62@LoadTableI
  001ac	0f 1f 40 00	 npad	 4
$LL43@LoadTableI:

; 550  : 	{
; 551  : 		if(tmp[i] == '\n') break;

  001b0	80 f9 0a	 cmp	 cl, 10			; 0000000aH
  001b3	74 5b		 je	 SHORT $LN62@LoadTableI

; 552  : 		if(tmp[i] == '\r') break;

  001b5	80 f9 0d	 cmp	 cl, 13			; 0000000dH
  001b8	74 56		 je	 SHORT $LN62@LoadTableI

; 553  : 
; 554  : 		if(tmp[i] == '/' && tmp[i+1] == '*')

  001ba	80 f9 2f	 cmp	 cl, 47			; 0000002fH
  001bd	75 31		 jne	 SHORT $LN76@LoadTableI
  001bf	80 bc 05 f1 fe
	ff ff 2a	 cmp	 BYTE PTR _tmp$[ebp+eax+1], 42 ; 0000002aH
  001c7	75 27		 jne	 SHORT $LN76@LoadTableI
  001c9	0f 1f 80 00 00
	00 00		 npad	 7
$LL46@LoadTableI:

; 557  : 			{
; 558  : 				if(tmp[i] == '*' && tmp[i+1] == '/')

  001d0	80 f9 2a	 cmp	 cl, 42			; 0000002aH
  001d3	75 0a		 jne	 SHORT $LN44@LoadTableI
  001d5	80 bc 05 f1 fe
	ff ff 2f	 cmp	 BYTE PTR _tmp$[ebp+eax+1], 47 ; 0000002fH
  001dd	74 0e		 je	 SHORT $LN61@LoadTableI
$LN44@LoadTableI:

; 555  : 		{
; 556  : 			for(;tmp[i] != NULL;i++)

  001df	8a 8c 05 f1 fe
	ff ff		 mov	 cl, BYTE PTR _tmp$[ebp+eax+1]
  001e6	40		 inc	 eax
  001e7	84 c9		 test	 cl, cl
  001e9	75 e5		 jne	 SHORT $LL46@LoadTableI
  001eb	eb 03		 jmp	 SHORT $LN76@LoadTableI
$LN61@LoadTableI:

; 559  : 				{
; 560  : 					i += 2;

  001ed	83 c0 02	 add	 eax, 2
$LN76@LoadTableI:

; 561  : 					break;
; 562  : 				}
; 563  : 			}
; 564  : 		}
; 565  : 
; 566  : 		if(tmp[i] >= ' ')

  001f0	8a 8c 05 f0 fe
	ff ff		 mov	 cl, BYTE PTR _tmp$[ebp+eax]
  001f7	80 f9 20	 cmp	 cl, 32			; 00000020H
  001fa	72 08		 jb	 SHORT $LN41@LoadTableI

; 567  : 			buff[n++] = tmp[i];

  001fc	88 8c 15 f0 fd
	ff ff		 mov	 BYTE PTR _buff$[ebp+edx], cl
  00203	42		 inc	 edx
$LN41@LoadTableI:

; 547  : 	}
; 548  : 
; 549  : 	for(;tmp[i] != NULL;i++)

  00204	8a 8c 05 f1 fe
	ff ff		 mov	 cl, BYTE PTR _tmp$[ebp+eax+1]
  0020b	40		 inc	 eax
  0020c	84 c9		 test	 cl, cl
  0020e	75 a0		 jne	 SHORT $LL43@LoadTableI
$LN62@LoadTableI:

; 568  : 	}
; 569  : 
; 570  : 	buff[n] = 0;

  00210	c6 84 15 f0 fd
	ff ff 00	 mov	 BYTE PTR _buff$[ebp+edx], 0

; 523  : 
; 524  : 		len = DataRegular(tmp,buff);
; 525  : 		
; 526  : 		if(len > 0)

  00218	85 d2		 test	 edx, edx
  0021a	7e 33		 jle	 SHORT $LN7@LoadTableI

; 527  : 			m_stringList.AddTail((CString)buff);

  0021c	8d 85 f0 fd ff
	ff		 lea	 eax, DWORD PTR _buff$[ebp]
  00222	50		 push	 eax
  00223	8d 8d ec fd ff
	ff		 lea	 ecx, DWORD PTR $T4[ebp]
  00229	ff 15 00 00 00
	00		 call	 DWORD PTR __imp_??0?$CStringT@DV?$StrTraitMFC_DLL@DV?$ChTraitsCRT@D@ATL@@@@@ATL@@QAE@PBE@Z
  0022f	50		 push	 eax
  00230	8d 8b 80 00 00
	00		 lea	 ecx, DWORD PTR [ebx+128]
  00236	c6 45 fc 05	 mov	 BYTE PTR __$EHRec$[ebp+8], 5
  0023a	e8 00 00 00 00	 call	 ?AddTail@CStringList@@QAEPAU__POSITION@@ABV?$CStringT@DV?$StrTraitMFC_DLL@DV?$ChTraitsCRT@D@ATL@@@@@ATL@@@Z ; CStringList::AddTail
  0023f	8d 8d ec fd ff
	ff		 lea	 ecx, DWORD PTR $T4[ebp]
  00245	c6 45 fc 00	 mov	 BYTE PTR __$EHRec$[ebp+8], 0
  00249	ff 15 00 00 00
	00		 call	 DWORD PTR __imp_??1?$CStringT@DV?$StrTraitMFC_DLL@DV?$ChTraitsCRT@D@ATL@@@@@ATL@@QAE@XZ
$LN7@LoadTableI:

; 519  : 	while(fgets((char*)tmp,256,fp))

  0024f	56		 push	 esi
  00250	8d 85 f0 fe ff
	ff		 lea	 eax, DWORD PTR _tmp$[ebp]
  00256	68 00 01 00 00	 push	 256			; 00000100H
  0025b	50		 push	 eax
  0025c	ff d7		 call	 edi
  0025e	83 c4 0c	 add	 esp, 12			; 0000000cH
  00261	85 c0		 test	 eax, eax
  00263	0f 85 07 ff ff
	ff		 jne	 $LL2@LoadTableI
$LN3@LoadTableI:

; 528  : 	}
; 529  : 
; 530  : 	fclose(fp);

  00269	56		 push	 esi
  0026a	ff 15 00 00 00
	00		 call	 DWORD PTR __imp__fclose
  00270	83 c4 04	 add	 esp, 4

; 531  : 	Parsing();

  00273	8b cb		 mov	 ecx, ebx
  00275	e8 00 00 00 00	 call	 ?Parsing@CTreeDropList@@IAEHXZ ; CTreeDropList::Parsing

; 532  : 
; 533  : 
; 534  : 	return TRUE;

  0027a	be 01 00 00 00	 mov	 esi, 1
$LN14@LoadTableI:
  0027f	8d 4d 08	 lea	 ecx, DWORD PTR _szConfigFile$[ebp]
  00282	ff 15 00 00 00
	00		 call	 DWORD PTR __imp_??1?$CStringT@DV?$StrTraitMFC_DLL@DV?$ChTraitsCRT@D@ATL@@@@@ATL@@QAE@XZ
  00288	8b c6		 mov	 eax, esi

; 535  : 
; 536  : }

  0028a	8b 4d f4	 mov	 ecx, DWORD PTR __$EHRec$[ebp]
  0028d	64 89 0d 00 00
	00 00		 mov	 DWORD PTR fs:0, ecx
  00294	59		 pop	 ecx
  00295	5f		 pop	 edi
  00296	5e		 pop	 esi
  00297	5b		 pop	 ebx
  00298	8b 4d f0	 mov	 ecx, DWORD PTR __$ArrayPad$[ebp]
  0029b	33 cd		 xor	 ecx, ebp
  0029d	e8 00 00 00 00	 call	 @__security_check_cookie@4
  002a2	8b e5		 mov	 esp, ebp
  002a4	5d		 pop	 ebp
  002a5	c2 04 00	 ret	 4
_TEXT	ENDS
;	COMDAT text$x
text$x	SEGMENT
__unwindfunclet$?LoadTableInfo@CTreeDropList@@IAEHV?$CStringT@DV?$StrTraitMFC_DLL@DV?$ChTraitsCRT@D@ATL@@@@@ATL@@@Z$0:
  00000	8d 4d 08	 lea	 ecx, DWORD PTR _szConfigFile$[ebp]
  00003	ff 25 00 00 00
	00		 jmp	 DWORD PTR __imp_??1?$CStringT@DV?$StrTraitMFC_DLL@DV?$ChTraitsCRT@D@ATL@@@@@ATL@@QAE@XZ
__unwindfunclet$?LoadTableInfo@CTreeDropList@@IAEHV?$CStringT@DV?$StrTraitMFC_DLL@DV?$ChTraitsCRT@D@ATL@@@@@ATL@@@Z$1:
  00009	8d 8d e4 fd ff
	ff		 lea	 ecx, DWORD PTR ___mlrs__$2[ebp]
  0000f	e9 00 00 00 00	 jmp	 ??1CMultiLanguageResourceSetter@@QAE@XZ ; CMultiLanguageResourceSetter::~CMultiLanguageResourceSetter
__unwindfunclet$?LoadTableInfo@CTreeDropList@@IAEHV?$CStringT@DV?$StrTraitMFC_DLL@DV?$ChTraitsCRT@D@ATL@@@@@ATL@@@Z$2:
  00014	8d 8d ec fd ff
	ff		 lea	 ecx, DWORD PTR _szMsg$5[ebp]
  0001a	ff 25 00 00 00
	00		 jmp	 DWORD PTR __imp_??1?$CStringT@DV?$StrTraitMFC_DLL@DV?$ChTraitsCRT@D@ATL@@@@@ATL@@QAE@XZ
__unwindfunclet$?LoadTableInfo@CTreeDropList@@IAEHV?$CStringT@DV?$StrTraitMFC_DLL@DV?$ChTraitsCRT@D@ATL@@@@@ATL@@@Z$3:
  00020	8d 8d e8 fd ff
	ff		 lea	 ecx, DWORD PTR _strFormat$3[ebp]
  00026	ff 25 00 00 00
	00		 jmp	 DWORD PTR __imp_??1?$CStringT@DV?$StrTraitMFC_DLL@DV?$ChTraitsCRT@D@ATL@@@@@ATL@@QAE@XZ
__unwindfunclet$?LoadTableInfo@CTreeDropList@@IAEHV?$CStringT@DV?$StrTraitMFC_DLL@DV?$ChTraitsCRT@D@ATL@@@@@ATL@@@Z$4:
  0002c	8d 8d ec fd ff
	ff		 lea	 ecx, DWORD PTR $T4[ebp]
  00032	ff 25 00 00 00
	00		 jmp	 DWORD PTR __imp_??1?$CStringT@DV?$StrTraitMFC_DLL@DV?$ChTraitsCRT@D@ATL@@@@@ATL@@QAE@XZ
  00038	cc		 int	 3
  00039	cc		 int	 3
  0003a	cc		 int	 3
  0003b	cc		 int	 3
  0003c	cc		 int	 3
__ehhandler$?LoadTableInfo@CTreeDropList@@IAEHV?$CStringT@DV?$StrTraitMFC_DLL@DV?$ChTraitsCRT@D@ATL@@@@@ATL@@@Z:
  0003d	90		 npad	 1
  0003e	90		 npad	 1
  0003f	8b 54 24 08	 mov	 edx, DWORD PTR [esp+8]
  00043	8d 42 0c	 lea	 eax, DWORD PTR [edx+12]
  00046	8b 8a e0 fd ff
	ff		 mov	 ecx, DWORD PTR [edx-544]
  0004c	33 c8		 xor	 ecx, eax
  0004e	e8 00 00 00 00	 call	 @__security_check_cookie@4
  00053	8b 4a fc	 mov	 ecx, DWORD PTR [edx-4]
  00056	33 c8		 xor	 ecx, eax
  00058	e8 00 00 00 00	 call	 @__security_check_cookie@4
  0005d	b8 00 00 00 00	 mov	 eax, OFFSET __ehfuncinfo$?LoadTableInfo@CTreeDropList@@IAEHV?$CStringT@DV?$StrTraitMFC_DLL@DV?$ChTraitsCRT@D@ATL@@@@@ATL@@@Z
  00062	e9 00 00 00 00	 jmp	 ___CxxFrameHandler3
text$x	ENDS
?LoadTableInfo@CTreeDropList@@IAEHV?$CStringT@DV?$StrTraitMFC_DLL@DV?$ChTraitsCRT@D@ATL@@@@@ATL@@@Z ENDP ; CTreeDropList::LoadTableInfo
; Function compile flags: /Ogtp
; File D:\git\src\IBK\IBK_DRFN\ProjSrc\SrcChartEx\ChartAddIn\ChartDesignPropertyAddIn\ChartDesignPropertyAddIn\TreeDropList.cpp
;	COMDAT ?DataRegular@CTreeDropList@@IAEHPAE0@Z
_TEXT	SEGMENT
_tmp$ = 8						; size = 4
_buff$ = 12						; size = 4
?DataRegular@CTreeDropList@@IAEHPAE0@Z PROC		; CTreeDropList::DataRegular, COMDAT
; _this$ = ecx

; 541  : {

  00000	55		 push	 ebp
  00001	8b ec		 mov	 ebp, esp

; 542  : 	int n = 0;
; 543  : 	int i = 0;
; 544  : 	for( i = 0; tmp[i] != NULL;i++)

  00003	8b 55 08	 mov	 edx, DWORD PTR _tmp$[ebp]
  00006	33 c0		 xor	 eax, eax
  00008	56		 push	 esi
  00009	33 f6		 xor	 esi, esi
  0000b	57		 push	 edi
  0000c	8a 0a		 mov	 cl, BYTE PTR [edx]
  0000e	84 c9		 test	 cl, cl
  00010	74 0e		 je	 SHORT $LN38@DataRegula
$LL4@DataRegula:

; 545  : 	{
; 546  : 		if(tmp[i] > ' ') break;

  00012	80 f9 20	 cmp	 cl, 32			; 00000020H
  00015	77 09		 ja	 SHORT $LN38@DataRegula

; 542  : 	int n = 0;
; 543  : 	int i = 0;
; 544  : 	for( i = 0; tmp[i] != NULL;i++)

  00017	8a 4c 10 01	 mov	 cl, BYTE PTR [eax+edx+1]
  0001b	40		 inc	 eax
  0001c	84 c9		 test	 cl, cl
  0001e	75 f2		 jne	 SHORT $LL4@DataRegula
$LN38@DataRegula:

; 547  : 	}
; 548  : 
; 549  : 	for(;tmp[i] != NULL;i++)

  00020	8a 0c 10	 mov	 cl, BYTE PTR [eax+edx]
  00023	8d 3c 10	 lea	 edi, DWORD PTR [eax+edx]
  00026	84 c9		 test	 cl, cl
  00028	74 59		 je	 SHORT $LN36@DataRegula
  0002a	53		 push	 ebx
  0002b	8b 5d 0c	 mov	 ebx, DWORD PTR _buff$[ebp]
  0002e	66 90		 npad	 2
$LL7@DataRegula:

; 550  : 	{
; 551  : 		if(tmp[i] == '\n') break;

  00030	80 f9 0a	 cmp	 cl, 10			; 0000000aH
  00033	74 41		 je	 SHORT $LN35@DataRegula

; 552  : 		if(tmp[i] == '\r') break;

  00035	80 f9 0d	 cmp	 cl, 13			; 0000000dH
  00038	74 3c		 je	 SHORT $LN35@DataRegula

; 553  : 
; 554  : 		if(tmp[i] == '/' && tmp[i+1] == '*')

  0003a	80 f9 2f	 cmp	 cl, 47			; 0000002fH
  0003d	75 20		 jne	 SHORT $LN34@DataRegula
  0003f	80 7f 01 2a	 cmp	 BYTE PTR [edi+1], 42	; 0000002aH
  00043	75 1a		 jne	 SHORT $LN34@DataRegula
$LL10@DataRegula:

; 557  : 			{
; 558  : 				if(tmp[i] == '*' && tmp[i+1] == '/')

  00045	80 f9 2a	 cmp	 cl, 42			; 0000002aH
  00048	75 07		 jne	 SHORT $LN8@DataRegula
  0004a	80 7c 10 01 2f	 cmp	 BYTE PTR [eax+edx+1], 47 ; 0000002fH
  0004f	74 0b		 je	 SHORT $LN22@DataRegula
$LN8@DataRegula:

; 555  : 		{
; 556  : 			for(;tmp[i] != NULL;i++)

  00051	8a 4c 10 01	 mov	 cl, BYTE PTR [eax+edx+1]
  00055	40		 inc	 eax
  00056	84 c9		 test	 cl, cl
  00058	75 eb		 jne	 SHORT $LL10@DataRegula
  0005a	eb 03		 jmp	 SHORT $LN34@DataRegula
$LN22@DataRegula:

; 559  : 				{
; 560  : 					i += 2;

  0005c	83 c0 02	 add	 eax, 2
$LN34@DataRegula:

; 561  : 					break;
; 562  : 				}
; 563  : 			}
; 564  : 		}
; 565  : 
; 566  : 		if(tmp[i] >= ' ')

  0005f	8a 0c 10	 mov	 cl, BYTE PTR [eax+edx]
  00062	80 f9 20	 cmp	 cl, 32			; 00000020H
  00065	72 04		 jb	 SHORT $LN5@DataRegula

; 567  : 			buff[n++] = tmp[i];

  00067	88 0c 1e	 mov	 BYTE PTR [esi+ebx], cl
  0006a	46		 inc	 esi
$LN5@DataRegula:

; 547  : 	}
; 548  : 
; 549  : 	for(;tmp[i] != NULL;i++)

  0006b	40		 inc	 eax
  0006c	8a 0c 10	 mov	 cl, BYTE PTR [eax+edx]
  0006f	8d 3c 10	 lea	 edi, DWORD PTR [eax+edx]
  00072	84 c9		 test	 cl, cl
  00074	75 ba		 jne	 SHORT $LL7@DataRegula
$LN35@DataRegula:

; 568  : 	}
; 569  : 
; 570  : 	buff[n] = 0;

  00076	c6 04 1e 00	 mov	 BYTE PTR [esi+ebx], 0

; 571  : 	return n;

  0007a	8b c6		 mov	 eax, esi
  0007c	5b		 pop	 ebx
  0007d	5f		 pop	 edi

; 572  : 
; 573  : }

  0007e	5e		 pop	 esi
  0007f	5d		 pop	 ebp
  00080	c2 08 00	 ret	 8
$LN36@DataRegula:

; 568  : 	}
; 569  : 
; 570  : 	buff[n] = 0;

  00083	8b 45 0c	 mov	 eax, DWORD PTR _buff$[ebp]
  00086	5f		 pop	 edi
  00087	c6 04 06 00	 mov	 BYTE PTR [esi+eax], 0

; 571  : 	return n;

  0008b	8b c6		 mov	 eax, esi

; 572  : 
; 573  : }

  0008d	5e		 pop	 esi
  0008e	5d		 pop	 ebp
  0008f	c2 08 00	 ret	 8
?DataRegular@CTreeDropList@@IAEHPAE0@Z ENDP		; CTreeDropList::DataRegular
_TEXT	ENDS
; Function compile flags: /Ogtp
; File D:\git\src\IBK\IBK_DRFN\ProjSrc\SrcChartEx\ChartAddIn\ChartDesignPropertyAddIn\ChartDesignPropertyAddIn\TreeDropList.cpp
; File C:\Program Files (x86)\Microsoft Visual Studio\2019\Community\VC\Tools\MSVC\14.29.30133\atlmfc\include\afxcoll.inl
; File D:\git\src\IBK\IBK_DRFN\ProjSrc\SrcChartEx\ChartAddIn\ChartDesignPropertyAddIn\ChartDesignPropertyAddIn\TreeDropList.cpp
; File C:\Program Files (x86)\Microsoft Visual Studio\2019\Community\VC\Tools\MSVC\14.29.30133\atlmfc\include\afxcoll.inl
; File D:\git\src\IBK\IBK_DRFN\ProjSrc\SrcChartEx\ChartAddIn\ChartDesignPropertyAddIn\ChartDesignPropertyAddIn\TreeDropList.cpp
; File C:\Program Files (x86)\Microsoft Visual Studio\2019\Community\VC\Tools\MSVC\14.29.30133\atlmfc\include\cstringt.h
; File D:\git\src\IBK\IBK_DRFN\ProjSrc\SrcChartEx\ChartAddIn\ChartDesignPropertyAddIn\ChartDesignPropertyAddIn\TreeDropList.cpp
; File C:\Program Files (x86)\Microsoft Visual Studio\2019\Community\VC\Tools\MSVC\14.29.30133\atlmfc\include\cstringt.h
; File D:\git\src\IBK\IBK_DRFN\ProjSrc\SrcChartEx\ChartAddIn\ChartDesignPropertyAddIn\ChartDesignPropertyAddIn\TreeDropList.cpp
; File C:\Program Files (x86)\Microsoft Visual Studio\2019\Community\VC\Tools\MSVC\14.29.30133\atlmfc\include\cstringt.h
; File D:\git\src\IBK\IBK_DRFN\ProjSrc\SrcChartEx\ChartAddIn\ChartDesignPropertyAddIn\ChartDesignPropertyAddIn\TreeDropList.cpp
; File C:\Program Files (x86)\Microsoft Visual Studio\2019\Community\VC\Tools\MSVC\14.29.30133\atlmfc\include\afxcoll.inl
; File D:\git\src\IBK\IBK_DRFN\ProjSrc\SrcChartEx\ChartAddIn\ChartDesignPropertyAddIn\ChartDesignPropertyAddIn\TreeDropList.cpp
; File C:\Program Files (x86)\Microsoft Visual Studio\2019\Community\VC\Tools\MSVC\14.29.30133\atlmfc\include\afxcoll.inl
; File D:\git\src\IBK\IBK_DRFN\ProjSrc\SrcChartEx\ChartAddIn\ChartDesignPropertyAddIn\ChartDesignPropertyAddIn\TreeDropList.cpp
; File C:\Program Files (x86)\Microsoft Visual Studio\2019\Community\VC\Tools\MSVC\14.29.30133\atlmfc\include\atlsimpstr.h
; File D:\git\src\IBK\IBK_DRFN\ProjSrc\SrcChartEx\ChartAddIn\ChartDesignPropertyAddIn\ChartDesignPropertyAddIn\TreeDropList.cpp
; File C:\Program Files (x86)\Microsoft Visual Studio\2019\Community\VC\Tools\MSVC\14.29.30133\atlmfc\include\afxcmn.inl
; File D:\git\src\IBK\IBK_DRFN\ProjSrc\SrcChartEx\ChartAddIn\ChartDesignPropertyAddIn\ChartDesignPropertyAddIn\TreeDropList.cpp
; File C:\Program Files (x86)\Microsoft Visual Studio\2019\Community\VC\Tools\MSVC\14.29.30133\atlmfc\include\afxcmn.inl
; File D:\git\src\IBK\IBK_DRFN\ProjSrc\SrcChartEx\ChartAddIn\ChartDesignPropertyAddIn\ChartDesignPropertyAddIn\TreeDropList.cpp
; File C:\Program Files (x86)\Microsoft Visual Studio\2019\Community\VC\Tools\MSVC\14.29.30133\atlmfc\include\afxcmn.inl
; File D:\git\src\IBK\IBK_DRFN\ProjSrc\SrcChartEx\ChartAddIn\ChartDesignPropertyAddIn\ChartDesignPropertyAddIn\TreeDropList.cpp
; File C:\Program Files (x86)\Microsoft Visual Studio\2019\Community\VC\Tools\MSVC\14.29.30133\atlmfc\include\cstringt.h
; File D:\git\src\IBK\IBK_DRFN\ProjSrc\SrcChartEx\ChartAddIn\ChartDesignPropertyAddIn\ChartDesignPropertyAddIn\TreeDropList.cpp
; File C:\Program Files (x86)\Microsoft Visual Studio\2019\Community\VC\Tools\MSVC\14.29.30133\atlmfc\include\cstringt.h
; File D:\git\src\IBK\IBK_DRFN\ProjSrc\SrcChartEx\ChartAddIn\ChartDesignPropertyAddIn\ChartDesignPropertyAddIn\TreeDropList.cpp
; File C:\Program Files (x86)\Microsoft Visual Studio\2019\Community\VC\Tools\MSVC\14.29.30133\atlmfc\include\cstringt.h
; File D:\git\src\IBK\IBK_DRFN\ProjSrc\SrcChartEx\ChartAddIn\ChartDesignPropertyAddIn\ChartDesignPropertyAddIn\TreeDropList.cpp
; File C:\Program Files (x86)\Microsoft Visual Studio\2019\Community\VC\Tools\MSVC\14.29.30133\atlmfc\include\cstringt.h
; File D:\git\src\IBK\IBK_DRFN\ProjSrc\SrcChartEx\ChartAddIn\ChartDesignPropertyAddIn\ChartDesignPropertyAddIn\TreeDropList.cpp
; File C:\Program Files (x86)\Microsoft Visual Studio\2019\Community\VC\Tools\MSVC\14.29.30133\atlmfc\include\cstringt.h
; File D:\git\src\IBK\IBK_DRFN\ProjSrc\SrcChartEx\ChartAddIn\ChartDesignPropertyAddIn\ChartDesignPropertyAddIn\TreeDropList.cpp
; File C:\Program Files (x86)\Microsoft Visual Studio\2019\Community\VC\Tools\MSVC\14.29.30133\atlmfc\include\cstringt.h
; File D:\git\src\IBK\IBK_DRFN\ProjSrc\SrcChartEx\ChartAddIn\ChartDesignPropertyAddIn\ChartDesignPropertyAddIn\TreeDropList.cpp
; File C:\Program Files (x86)\Microsoft Visual Studio\2019\Community\VC\Tools\MSVC\14.29.30133\atlmfc\include\cstringt.h
; File D:\git\src\IBK\IBK_DRFN\ProjSrc\SrcChartEx\ChartAddIn\ChartDesignPropertyAddIn\ChartDesignPropertyAddIn\TreeDropList.cpp
; File C:\Program Files (x86)\Microsoft Visual Studio\2019\Community\VC\Tools\MSVC\14.29.30133\atlmfc\include\cstringt.h
; File D:\git\src\IBK\IBK_DRFN\ProjSrc\SrcChartEx\ChartAddIn\ChartDesignPropertyAddIn\ChartDesignPropertyAddIn\TreeDropList.cpp
; File C:\Program Files (x86)\Microsoft Visual Studio\2019\Community\VC\Tools\MSVC\14.29.30133\atlmfc\include\cstringt.h
; File D:\git\src\IBK\IBK_DRFN\ProjSrc\SrcChartEx\ChartAddIn\ChartDesignPropertyAddIn\ChartDesignPropertyAddIn\TreeDropList.cpp
; File C:\Program Files (x86)\Microsoft Visual Studio\2019\Community\VC\Tools\MSVC\14.29.30133\atlmfc\include\cstringt.h
; File D:\git\src\IBK\IBK_DRFN\ProjSrc\SrcChartEx\ChartAddIn\ChartDesignPropertyAddIn\ChartDesignPropertyAddIn\TreeDropList.cpp
; File C:\Program Files (x86)\Microsoft Visual Studio\2019\Community\VC\Tools\MSVC\14.29.30133\atlmfc\include\cstringt.h
; File D:\git\src\IBK\IBK_DRFN\ProjSrc\SrcChartEx\ChartAddIn\ChartDesignPropertyAddIn\ChartDesignPropertyAddIn\TreeDropList.cpp
; File C:\Program Files (x86)\Microsoft Visual Studio\2019\Community\VC\Tools\MSVC\14.29.30133\atlmfc\include\cstringt.h
; File D:\git\src\IBK\IBK_DRFN\ProjSrc\SrcChartEx\ChartAddIn\ChartDesignPropertyAddIn\ChartDesignPropertyAddIn\TreeDropList.cpp
; File C:\Program Files (x86)\Microsoft Visual Studio\2019\Community\VC\Tools\MSVC\14.29.30133\atlmfc\include\cstringt.h
; File D:\git\src\IBK\IBK_DRFN\ProjSrc\SrcChartEx\ChartAddIn\ChartDesignPropertyAddIn\ChartDesignPropertyAddIn\TreeDropList.cpp
; File C:\Program Files (x86)\Microsoft Visual Studio\2019\Community\VC\Tools\MSVC\14.29.30133\atlmfc\include\cstringt.h
; File D:\git\src\IBK\IBK_DRFN\ProjSrc\SrcChartEx\ChartAddIn\ChartDesignPropertyAddIn\ChartDesignPropertyAddIn\TreeDropList.cpp
; File C:\Program Files (x86)\Microsoft Visual Studio\2019\Community\VC\Tools\MSVC\14.29.30133\atlmfc\include\cstringt.h
; File D:\git\src\IBK\IBK_DRFN\ProjSrc\SrcChartEx\ChartAddIn\ChartDesignPropertyAddIn\ChartDesignPropertyAddIn\TreeDropList.cpp
; File C:\Program Files (x86)\Microsoft Visual Studio\2019\Community\VC\Tools\MSVC\14.29.30133\atlmfc\include\afxcmn.inl
; File D:\git\src\IBK\IBK_DRFN\ProjSrc\SrcChartEx\ChartAddIn\ChartDesignPropertyAddIn\ChartDesignPropertyAddIn\TreeDropList.cpp
; File C:\Program Files (x86)\Microsoft Visual Studio\2019\Community\VC\Tools\MSVC\14.29.30133\atlmfc\include\afxcmn.inl
; File D:\git\src\IBK\IBK_DRFN\ProjSrc\SrcChartEx\ChartAddIn\ChartDesignPropertyAddIn\ChartDesignPropertyAddIn\TreeDropList.cpp
; File C:\Program Files (x86)\Microsoft Visual Studio\2019\Community\VC\Tools\MSVC\14.29.30133\atlmfc\include\afxcmn.inl
; File D:\git\src\IBK\IBK_DRFN\ProjSrc\SrcChartEx\ChartAddIn\ChartDesignPropertyAddIn\ChartDesignPropertyAddIn\TreeDropList.cpp
; File C:\Program Files (x86)\Microsoft Visual Studio\2019\Community\VC\Tools\MSVC\14.29.30133\atlmfc\include\afxcmn.inl
; File D:\git\src\IBK\IBK_DRFN\ProjSrc\SrcChartEx\ChartAddIn\ChartDesignPropertyAddIn\ChartDesignPropertyAddIn\TreeDropList.cpp
; File C:\Program Files (x86)\Microsoft Visual Studio\2019\Community\VC\Tools\MSVC\14.29.30133\atlmfc\include\afxcoll.inl
; File D:\git\src\IBK\IBK_DRFN\ProjSrc\SrcChartEx\ChartAddIn\ChartDesignPropertyAddIn\ChartDesignPropertyAddIn\TreeDropList.cpp
;	COMDAT ?Parsing@CTreeDropList@@IAEHXZ
_TEXT	SEGMENT
_tvstruct$2 = -360					; size = 68
_tvstruct$3 = -292					; size = 68
$T4 = -224						; size = 4
$T5 = -220						; size = 4
$T6 = -216						; size = 4
$T7 = -212						; size = 4
$T8 = -208						; size = 4
$T9 = -204						; size = 4
_szReal$10 = -200					; size = 4
_szText$11 = -196					; size = 4
_hPackNameItem$1$ = -192				; size = 4
_szItem$12 = -188					; size = 4
_this$GSCopy$1$ = -184					; size = 4
_szTmp$13 = -180					; size = 4
_szDescrip$ = -176					; size = 64
_szType$ = -112						; size = 32
_szFormat$ = -80					; size = 32
_szName$ = -48						; size = 32
__$ArrayPad$ = -16					; size = 4
__$EHRec$ = -12						; size = 12
?Parsing@CTreeDropList@@IAEHXZ PROC			; CTreeDropList::Parsing, COMDAT
; _this$ = ecx

; 577  : {

  00000	55		 push	 ebp
  00001	8b ec		 mov	 ebp, esp
  00003	6a ff		 push	 -1
  00005	68 00 00 00 00	 push	 __ehhandler$?Parsing@CTreeDropList@@IAEHXZ
  0000a	64 a1 00 00 00
	00		 mov	 eax, DWORD PTR fs:0
  00010	50		 push	 eax
  00011	81 ec 5c 01 00
	00		 sub	 esp, 348		; 0000015cH
  00017	a1 00 00 00 00	 mov	 eax, DWORD PTR ___security_cookie
  0001c	33 c5		 xor	 eax, ebp
  0001e	89 45 f0	 mov	 DWORD PTR __$ArrayPad$[ebp], eax
  00021	53		 push	 ebx
  00022	56		 push	 esi
  00023	57		 push	 edi
  00024	50		 push	 eax
  00025	8d 45 f4	 lea	 eax, DWORD PTR __$EHRec$[ebp]
  00028	64 a3 00 00 00
	00		 mov	 DWORD PTR fs:0, eax
  0002e	89 8d 48 ff ff
	ff		 mov	 DWORD PTR _this$GSCopy$1$[ebp], ecx

; 578  : 	HTREEITEM hPackNameItem = 0;
; 579  : 
; 580  : 	char szName[32],szDescrip[64],szType[32],szFormat[32];
; 581  : 	BOOL Attr;
; 582  : 	BOOL Begin = FALSE;
; 583  : 
; 584  : 	for(POSITION pos = m_stringList.GetHeadPosition();pos != NULL;)

  00034	8b b1 84 00 00
	00		 mov	 esi, DWORD PTR [ecx+132]
  0003a	33 c0		 xor	 eax, eax
  0003c	33 db		 xor	 ebx, ebx
  0003e	89 85 40 ff ff
	ff		 mov	 DWORD PTR _hPackNameItem$1$[ebp], eax
  00044	85 f6		 test	 esi, esi
  00046	0f 84 fc 03 00
	00		 je	 $LN80@Parsing
  0004c	0f 1f 40 00	 npad	 4
$LL2@Parsing:
; File C:\Program Files (x86)\Microsoft Visual Studio\2019\Community\VC\Tools\MSVC\14.29.30133\atlmfc\include\afxcoll.inl

; 501  : 	{ CNode* pNode = (CNode*) rPosition;

  00050	8b c6		 mov	 eax, esi
; File D:\git\src\IBK\IBK_DRFN\ProjSrc\SrcChartEx\ChartAddIn\ChartDesignPropertyAddIn\ChartDesignPropertyAddIn\TreeDropList.cpp

; 586  : 		CString szTmp = m_stringList.GetNext(pos);

  00052	8d 8d 4c ff ff
	ff		 lea	 ecx, DWORD PTR _szTmp$13[ebp]
; File C:\Program Files (x86)\Microsoft Visual Studio\2019\Community\VC\Tools\MSVC\14.29.30133\atlmfc\include\afxcoll.inl

; 505  : 		rPosition = (POSITION) pNode->pNext;

  00058	8b 36		 mov	 esi, DWORD PTR [esi]

; 506  : 		return pNode->data; }

  0005a	83 c0 08	 add	 eax, 8
; File D:\git\src\IBK\IBK_DRFN\ProjSrc\SrcChartEx\ChartAddIn\ChartDesignPropertyAddIn\ChartDesignPropertyAddIn\TreeDropList.cpp

; 586  : 		CString szTmp = m_stringList.GetNext(pos);

  0005d	50		 push	 eax
  0005e	ff 15 00 00 00
	00		 call	 DWORD PTR __imp_??0?$CStringT@DV?$StrTraitMFC_DLL@DV?$ChTraitsCRT@D@ATL@@@@@ATL@@QAE@ABV01@@Z

; 587  : 		CString szReal = szTmp;

  00064	8d 85 4c ff ff
	ff		 lea	 eax, DWORD PTR _szTmp$13[ebp]
  0006a	c7 45 fc 00 00
	00 00		 mov	 DWORD PTR __$EHRec$[ebp+8], 0
  00071	50		 push	 eax
  00072	8d 8d 38 ff ff
	ff		 lea	 ecx, DWORD PTR _szReal$10[ebp]
  00078	ff 15 00 00 00
	00		 call	 DWORD PTR __imp_??0?$CStringT@DV?$StrTraitMFC_DLL@DV?$ChTraitsCRT@D@ATL@@@@@ATL@@QAE@ABV01@@Z

; 588  : 		szTmp.MakeUpper();

  0007e	8d 8d 4c ff ff
	ff		 lea	 ecx, DWORD PTR _szTmp$13[ebp]
  00084	c6 45 fc 01	 mov	 BYTE PTR __$EHRec$[ebp+8], 1
  00088	ff 15 00 00 00
	00		 call	 DWORD PTR __imp_?MakeUpper@?$CStringT@DV?$StrTraitMFC_DLL@DV?$ChTraitsCRT@D@ATL@@@@@ATL@@QAEAAV12@XZ

; 589  : 		szTmp.TrimLeft();

  0008e	8d 8d 4c ff ff
	ff		 lea	 ecx, DWORD PTR _szTmp$13[ebp]
  00094	ff 15 00 00 00
	00		 call	 DWORD PTR __imp_?TrimLeft@?$CStringT@DV?$StrTraitMFC_DLL@DV?$ChTraitsCRT@D@ATL@@@@@ATL@@QAEAAV12@XZ

; 590  : 		szTmp.TrimRight();

  0009a	8d 8d 4c ff ff
	ff		 lea	 ecx, DWORD PTR _szTmp$13[ebp]
  000a0	ff 15 00 00 00
	00		 call	 DWORD PTR __imp_?TrimRight@?$CStringT@DV?$StrTraitMFC_DLL@DV?$ChTraitsCRT@D@ATL@@@@@ATL@@QAEAAV12@XZ

; 592  : 		if(szTmp.Left(14) == "BEGIN_DATA_MAP")		// Packet 

  000a6	6a 0e		 push	 14			; 0000000eH
  000a8	8d 85 34 ff ff
	ff		 lea	 eax, DWORD PTR $T9[ebp]
  000ae	50		 push	 eax
  000af	8d 8d 4c ff ff
	ff		 lea	 ecx, DWORD PTR _szTmp$13[ebp]
  000b5	ff 15 00 00 00
	00		 call	 DWORD PTR __imp_?Left@?$CStringT@DV?$StrTraitMFC_DLL@DV?$ChTraitsCRT@D@ATL@@@@@ATL@@QBE?AV12@H@Z
; File C:\Program Files (x86)\Microsoft Visual Studio\2019\Community\VC\Tools\MSVC\14.29.30133\atlmfc\include\cstringt.h

; 2486 : 		return(str1.Compare(psz2) == 0);

  000bb	68 00 00 00 00	 push	 OFFSET ??_C@_0P@EDFHLMJK@BEGIN_DATA_MAP@
  000c0	8b c8		 mov	 ecx, eax
; File D:\git\src\IBK\IBK_DRFN\ProjSrc\SrcChartEx\ChartAddIn\ChartDesignPropertyAddIn\ChartDesignPropertyAddIn\TreeDropList.cpp

; 592  : 		if(szTmp.Left(14) == "BEGIN_DATA_MAP")		// Packet 

  000c2	c6 45 fc 02	 mov	 BYTE PTR __$EHRec$[ebp+8], 2
; File C:\Program Files (x86)\Microsoft Visual Studio\2019\Community\VC\Tools\MSVC\14.29.30133\atlmfc\include\cstringt.h

; 2486 : 		return(str1.Compare(psz2) == 0);

  000c6	ff 15 00 00 00
	00		 call	 DWORD PTR __imp_?Compare@?$CStringT@DV?$StrTraitMFC_DLL@DV?$ChTraitsCRT@D@ATL@@@@@ATL@@QBEHPBD@Z
; File D:\git\src\IBK\IBK_DRFN\ProjSrc\SrcChartEx\ChartAddIn\ChartDesignPropertyAddIn\ChartDesignPropertyAddIn\TreeDropList.cpp

; 592  : 		if(szTmp.Left(14) == "BEGIN_DATA_MAP")		// Packet 

  000cc	8d 8d 34 ff ff
	ff		 lea	 ecx, DWORD PTR $T9[ebp]
  000d2	c6 45 fc 01	 mov	 BYTE PTR __$EHRec$[ebp+8], 1
; File C:\Program Files (x86)\Microsoft Visual Studio\2019\Community\VC\Tools\MSVC\14.29.30133\atlmfc\include\cstringt.h

; 2486 : 		return(str1.Compare(psz2) == 0);

  000d6	8b f8		 mov	 edi, eax
; File D:\git\src\IBK\IBK_DRFN\ProjSrc\SrcChartEx\ChartAddIn\ChartDesignPropertyAddIn\ChartDesignPropertyAddIn\TreeDropList.cpp

; 592  : 		if(szTmp.Left(14) == "BEGIN_DATA_MAP")		// Packet 

  000d8	ff 15 00 00 00
	00		 call	 DWORD PTR __imp_??1?$CStringT@DV?$StrTraitMFC_DLL@DV?$ChTraitsCRT@D@ATL@@@@@ATL@@QAE@XZ
  000de	85 ff		 test	 edi, edi
  000e0	0f 85 fa 00 00
	00		 jne	 $LN5@Parsing
; File C:\Program Files (x86)\Microsoft Visual Studio\2019\Community\VC\Tools\MSVC\14.29.30133\atlmfc\include\afxcoll.inl

; 501  : 	{ CNode* pNode = (CNode*) rPosition;

  000e6	8b c6		 mov	 eax, esi

; 502  : 		ASSERT(AfxIsValidAddress(pNode, sizeof(CNode)));
; 503  : 		if( pNode == NULL )

  000e8	85 f6		 test	 esi, esi
  000ea	0f 84 95 03 00
	00		 je	 $LN75@Parsing

; 505  : 		rPosition = (POSITION) pNode->pNext;

  000f0	8b 36		 mov	 esi, DWORD PTR [esi]
; File D:\git\src\IBK\IBK_DRFN\ProjSrc\SrcChartEx\ChartAddIn\ChartDesignPropertyAddIn\ChartDesignPropertyAddIn\TreeDropList.cpp

; 594  : 			szTmp = m_stringList.GetNext(pos);

  000f2	8d 8d 4c ff ff
	ff		 lea	 ecx, DWORD PTR _szTmp$13[ebp]
; File C:\Program Files (x86)\Microsoft Visual Studio\2019\Community\VC\Tools\MSVC\14.29.30133\atlmfc\include\afxcoll.inl

; 506  : 		return pNode->data; }

  000f8	83 c0 08	 add	 eax, 8
; File D:\git\src\IBK\IBK_DRFN\ProjSrc\SrcChartEx\ChartAddIn\ChartDesignPropertyAddIn\ChartDesignPropertyAddIn\TreeDropList.cpp

; 594  : 			szTmp = m_stringList.GetNext(pos);

  000fb	50		 push	 eax
  000fc	ff 15 00 00 00
	00		 call	 DWORD PTR __imp_??4?$CStringT@DV?$StrTraitMFC_DLL@DV?$ChTraitsCRT@D@ATL@@@@@ATL@@QAEAAV01@ABV01@@Z
; File C:\Program Files (x86)\Microsoft Visual Studio\2019\Community\VC\Tools\MSVC\14.29.30133\atlmfc\include\atlsimpstr.h

; 519  : 		return( GetData()->nDataLength );

  00102	8b 85 4c ff ff
	ff		 mov	 eax, DWORD PTR _szTmp$13[ebp]

; 533  : 		return( GetLength() == 0 );

  00108	39 78 f4	 cmp	 DWORD PTR [eax-12], edi
; File D:\git\src\IBK\IBK_DRFN\ProjSrc\SrcChartEx\ChartAddIn\ChartDesignPropertyAddIn\ChartDesignPropertyAddIn\TreeDropList.cpp

; 595  : 			if(szTmp.IsEmpty()) return FALSE;

  0010b	0f 84 58 03 00
	00		 je	 $LN76@Parsing

; 596  : 			LPSTR p = (LPSTR)(LPCTSTR) szTmp;
; 597  : 
; 598  : 			p = CutString(p,szName);

  00111	8b bd 48 ff ff
	ff		 mov	 edi, DWORD PTR _this$GSCopy$1$[ebp]
  00117	8d 4d d0	 lea	 ecx, DWORD PTR _szName$[ebp]
  0011a	51		 push	 ecx
  0011b	50		 push	 eax
  0011c	8b cf		 mov	 ecx, edi
  0011e	e8 00 00 00 00	 call	 ?CutString@CTreeDropList@@IAEPADPAD0@Z ; CTreeDropList::CutString

; 599  : 			p = CutString(p,szDescrip);

  00123	8d 8d 50 ff ff
	ff		 lea	 ecx, DWORD PTR _szDescrip$[ebp]
  00129	51		 push	 ecx
  0012a	50		 push	 eax
  0012b	8b cf		 mov	 ecx, edi
  0012d	e8 00 00 00 00	 call	 ?CutString@CTreeDropList@@IAEPADPAD0@Z ; CTreeDropList::CutString

; 600  : 
; 601  : 
; 602  : 			szTmp = p;

  00132	50		 push	 eax
  00133	8d 8d 4c ff ff
	ff		 lea	 ecx, DWORD PTR _szTmp$13[ebp]
  00139	ff 15 00 00 00
	00		 call	 DWORD PTR __imp_??4?$CStringT@DV?$StrTraitMFC_DLL@DV?$ChTraitsCRT@D@ATL@@@@@ATL@@QAEAAV01@PBD@Z

; 603  : 			szTmp.MakeUpper();

  0013f	8d 8d 4c ff ff
	ff		 lea	 ecx, DWORD PTR _szTmp$13[ebp]
  00145	ff 15 00 00 00
	00		 call	 DWORD PTR __imp_?MakeUpper@?$CStringT@DV?$StrTraitMFC_DLL@DV?$ChTraitsCRT@D@ATL@@@@@ATL@@QAEAAV12@XZ

; 604  : 
; 605  : 			int index = -1;
; 606  : 			if((index = szTmp.Find("ATTR")) != -1)

  0014b	6a 00		 push	 0
  0014d	68 00 00 00 00	 push	 OFFSET ??_C@_04PLBJFIFE@ATTR@
  00152	8d 8d 4c ff ff
	ff		 lea	 ecx, DWORD PTR _szTmp$13[ebp]
  00158	ff 15 00 00 00
	00		 call	 DWORD PTR __imp_?Find@?$CStringT@DV?$StrTraitMFC_DLL@DV?$ChTraitsCRT@D@ATL@@@@@ATL@@QBEHPBDH@Z

; 442  : 	CString szItem;

  0015e	8d 8d 44 ff ff
	ff		 lea	 ecx, DWORD PTR _szItem$12[ebp]
  00164	ff 15 00 00 00
	00		 call	 DWORD PTR __imp_??0?$CStringT@DV?$StrTraitMFC_DLL@DV?$ChTraitsCRT@D@ATL@@@@@ATL@@QAE@XZ

; 443  : 	szItem.Format("[%s]%s",szPacketName,szDescrip);

  0016a	8d 85 50 ff ff
	ff		 lea	 eax, DWORD PTR _szDescrip$[ebp]
  00170	c6 45 fc 03	 mov	 BYTE PTR __$EHRec$[ebp+8], 3
  00174	50		 push	 eax
  00175	8d 45 d0	 lea	 eax, DWORD PTR _szName$[ebp]
  00178	50		 push	 eax
  00179	8d 85 44 ff ff
	ff		 lea	 eax, DWORD PTR _szItem$12[ebp]
  0017f	68 00 00 00 00	 push	 OFFSET ??_C@_06KJKBOKBH@?$FL?$CFs?$FN?$CFs@
  00184	50		 push	 eax
  00185	ff 15 00 00 00
	00		 call	 DWORD PTR __imp_?Format@?$CStringT@DV?$StrTraitMFC_DLL@DV?$ChTraitsCRT@D@ATL@@@@@ATL@@QAAXPBDZZ

; 451  : 
; 452  : //	tvstruct.hItem.iImage = 0;
; 453  : 	tvstruct.item.pszText = (LPSTR)(LPCTSTR)szItem;

  0018b	8b 85 44 ff ff
	ff		 mov	 eax, DWORD PTR _szItem$12[ebp]
  00191	83 c4 10	 add	 esp, 16			; 00000010H
  00194	89 85 b0 fe ff
	ff		 mov	 DWORD PTR _tvstruct$2[ebp+24], eax
; File C:\Program Files (x86)\Microsoft Visual Studio\2019\Community\VC\Tools\MSVC\14.29.30133\atlmfc\include\afxcmn.inl

; 266  : 	{ ASSERT(::IsWindow(m_hWnd));  return (HTREEITEM)::SendMessage(m_hWnd, TVM_INSERTITEM, 0, (LPARAM)lpInsertStruct); }

  0019a	8d 85 98 fe ff
	ff		 lea	 eax, DWORD PTR _tvstruct$2[ebp]
; File D:\git\src\IBK\IBK_DRFN\ProjSrc\SrcChartEx\ChartAddIn\ChartDesignPropertyAddIn\ChartDesignPropertyAddIn\TreeDropList.cpp

; 449  : 	tvstruct.hParent = NULL;

  001a0	c7 85 98 fe ff
	ff 00 00 00 00	 mov	 DWORD PTR _tvstruct$2[ebp], 0

; 450  : 	tvstruct.hInsertAfter = TVI_LAST;

  001aa	c7 85 9c fe ff
	ff 02 00 ff ff	 mov	 DWORD PTR _tvstruct$2[ebp+4], -65534 ; ffff0002H
; File C:\Program Files (x86)\Microsoft Visual Studio\2019\Community\VC\Tools\MSVC\14.29.30133\atlmfc\include\afxcmn.inl

; 266  : 	{ ASSERT(::IsWindow(m_hWnd));  return (HTREEITEM)::SendMessage(m_hWnd, TVM_INSERTITEM, 0, (LPARAM)lpInsertStruct); }

  001b4	50		 push	 eax
  001b5	6a 00		 push	 0
  001b7	68 00 11 00 00	 push	 4352			; 00001100H
  001bc	ff 77 20	 push	 DWORD PTR [edi+32]
; File D:\git\src\IBK\IBK_DRFN\ProjSrc\SrcChartEx\ChartAddIn\ChartDesignPropertyAddIn\ChartDesignPropertyAddIn\TreeDropList.cpp

; 454  : 	tvstruct.item.mask = TVIF_TEXT;

  001bf	c7 85 a0 fe ff
	ff 01 00 00 00	 mov	 DWORD PTR _tvstruct$2[ebp+8], 1
; File C:\Program Files (x86)\Microsoft Visual Studio\2019\Community\VC\Tools\MSVC\14.29.30133\atlmfc\include\afxcmn.inl

; 266  : 	{ ASSERT(::IsWindow(m_hWnd));  return (HTREEITEM)::SendMessage(m_hWnd, TVM_INSERTITEM, 0, (LPARAM)lpInsertStruct); }

  001c9	ff 15 00 00 00
	00		 call	 DWORD PTR __imp__SendMessageA@16
; File D:\git\src\IBK\IBK_DRFN\ProjSrc\SrcChartEx\ChartAddIn\ChartDesignPropertyAddIn\ChartDesignPropertyAddIn\TreeDropList.cpp

; 458  : 	return hItem;

  001cf	89 85 40 ff ff
	ff		 mov	 DWORD PTR _hPackNameItem$1$[ebp], eax
  001d5	8d 8d 44 ff ff
	ff		 lea	 ecx, DWORD PTR _szItem$12[ebp]

; 607  : 				Attr = TRUE;
; 608  : 			else
; 609  : 				Attr = FALSE;
; 610  : 			
; 611  : 
; 612  : 			TRACE("\nBEGIN_DATA_MAP\n");
; 613  : 			TRACE("Name[%s] Description[%s] Attr[%d]\n",szName,szDescrip,Attr);
; 614  : 			hPackNameItem = AddPacket(szName,szDescrip);
; 615  : 		}

  001db	e9 3b 02 00 00	 jmp	 $LN83@Parsing
$LN5@Parsing:

; 616  : 		else if(szTmp.Left(9) == "KEY_BEGIN")

  001e0	6a 09		 push	 9
  001e2	8d 85 30 ff ff
	ff		 lea	 eax, DWORD PTR $T8[ebp]
  001e8	50		 push	 eax
  001e9	8d 8d 4c ff ff
	ff		 lea	 ecx, DWORD PTR _szTmp$13[ebp]
  001ef	ff 15 00 00 00
	00		 call	 DWORD PTR __imp_?Left@?$CStringT@DV?$StrTraitMFC_DLL@DV?$ChTraitsCRT@D@ATL@@@@@ATL@@QBE?AV12@H@Z
; File C:\Program Files (x86)\Microsoft Visual Studio\2019\Community\VC\Tools\MSVC\14.29.30133\atlmfc\include\cstringt.h

; 2486 : 		return(str1.Compare(psz2) == 0);

  001f5	68 00 00 00 00	 push	 OFFSET ??_C@_09LECPJEDL@KEY_BEGIN@
  001fa	8b c8		 mov	 ecx, eax
; File D:\git\src\IBK\IBK_DRFN\ProjSrc\SrcChartEx\ChartAddIn\ChartDesignPropertyAddIn\ChartDesignPropertyAddIn\TreeDropList.cpp

; 616  : 		else if(szTmp.Left(9) == "KEY_BEGIN")

  001fc	c6 45 fc 04	 mov	 BYTE PTR __$EHRec$[ebp+8], 4
; File C:\Program Files (x86)\Microsoft Visual Studio\2019\Community\VC\Tools\MSVC\14.29.30133\atlmfc\include\cstringt.h

; 2486 : 		return(str1.Compare(psz2) == 0);

  00200	ff 15 00 00 00
	00		 call	 DWORD PTR __imp_?Compare@?$CStringT@DV?$StrTraitMFC_DLL@DV?$ChTraitsCRT@D@ATL@@@@@ATL@@QBEHPBD@Z
; File D:\git\src\IBK\IBK_DRFN\ProjSrc\SrcChartEx\ChartAddIn\ChartDesignPropertyAddIn\ChartDesignPropertyAddIn\TreeDropList.cpp

; 616  : 		else if(szTmp.Left(9) == "KEY_BEGIN")

  00206	8d 8d 30 ff ff
	ff		 lea	 ecx, DWORD PTR $T8[ebp]
  0020c	c6 45 fc 01	 mov	 BYTE PTR __$EHRec$[ebp+8], 1
; File C:\Program Files (x86)\Microsoft Visual Studio\2019\Community\VC\Tools\MSVC\14.29.30133\atlmfc\include\cstringt.h

; 2486 : 		return(str1.Compare(psz2) == 0);

  00210	8b f8		 mov	 edi, eax
; File D:\git\src\IBK\IBK_DRFN\ProjSrc\SrcChartEx\ChartAddIn\ChartDesignPropertyAddIn\ChartDesignPropertyAddIn\TreeDropList.cpp

; 616  : 		else if(szTmp.Left(9) == "KEY_BEGIN")

  00212	ff 15 00 00 00
	00		 call	 DWORD PTR __imp_??1?$CStringT@DV?$StrTraitMFC_DLL@DV?$ChTraitsCRT@D@ATL@@@@@ATL@@QAE@XZ
  00218	85 ff		 test	 edi, edi
  0021a	0f 84 01 02 00
	00		 je	 $LN20@Parsing

; 620  : 		else if(szTmp.Left(7) == "KEY_END")

  00220	6a 07		 push	 7
  00222	8d 85 2c ff ff
	ff		 lea	 eax, DWORD PTR $T7[ebp]
  00228	50		 push	 eax
  00229	8d 8d 4c ff ff
	ff		 lea	 ecx, DWORD PTR _szTmp$13[ebp]
  0022f	ff 15 00 00 00
	00		 call	 DWORD PTR __imp_?Left@?$CStringT@DV?$StrTraitMFC_DLL@DV?$ChTraitsCRT@D@ATL@@@@@ATL@@QBE?AV12@H@Z
; File C:\Program Files (x86)\Microsoft Visual Studio\2019\Community\VC\Tools\MSVC\14.29.30133\atlmfc\include\cstringt.h

; 2486 : 		return(str1.Compare(psz2) == 0);

  00235	68 00 00 00 00	 push	 OFFSET ??_C@_07CLAACHBC@KEY_END@
  0023a	8b c8		 mov	 ecx, eax
; File D:\git\src\IBK\IBK_DRFN\ProjSrc\SrcChartEx\ChartAddIn\ChartDesignPropertyAddIn\ChartDesignPropertyAddIn\TreeDropList.cpp

; 620  : 		else if(szTmp.Left(7) == "KEY_END")

  0023c	c6 45 fc 05	 mov	 BYTE PTR __$EHRec$[ebp+8], 5
; File C:\Program Files (x86)\Microsoft Visual Studio\2019\Community\VC\Tools\MSVC\14.29.30133\atlmfc\include\cstringt.h

; 2486 : 		return(str1.Compare(psz2) == 0);

  00240	ff 15 00 00 00
	00		 call	 DWORD PTR __imp_?Compare@?$CStringT@DV?$StrTraitMFC_DLL@DV?$ChTraitsCRT@D@ATL@@@@@ATL@@QBEHPBD@Z
; File D:\git\src\IBK\IBK_DRFN\ProjSrc\SrcChartEx\ChartAddIn\ChartDesignPropertyAddIn\ChartDesignPropertyAddIn\TreeDropList.cpp

; 620  : 		else if(szTmp.Left(7) == "KEY_END")

  00246	8d 8d 2c ff ff
	ff		 lea	 ecx, DWORD PTR $T7[ebp]
  0024c	c6 45 fc 01	 mov	 BYTE PTR __$EHRec$[ebp+8], 1
; File C:\Program Files (x86)\Microsoft Visual Studio\2019\Community\VC\Tools\MSVC\14.29.30133\atlmfc\include\cstringt.h

; 2486 : 		return(str1.Compare(psz2) == 0);

  00250	8b f8		 mov	 edi, eax
; File D:\git\src\IBK\IBK_DRFN\ProjSrc\SrcChartEx\ChartAddIn\ChartDesignPropertyAddIn\ChartDesignPropertyAddIn\TreeDropList.cpp

; 620  : 		else if(szTmp.Left(7) == "KEY_END")

  00252	ff 15 00 00 00
	00		 call	 DWORD PTR __imp_??1?$CStringT@DV?$StrTraitMFC_DLL@DV?$ChTraitsCRT@D@ATL@@@@@ATL@@QAE@XZ
  00258	85 ff		 test	 edi, edi
  0025a	0f 84 c1 01 00
	00		 je	 $LN20@Parsing

; 623  : 		else if(szTmp.Left(12) == "DATA_BEGIN")// && hPackNameItem !=NULL)

  00260	6a 0c		 push	 12			; 0000000cH
  00262	8d 85 28 ff ff
	ff		 lea	 eax, DWORD PTR $T6[ebp]
  00268	50		 push	 eax
  00269	8d 8d 4c ff ff
	ff		 lea	 ecx, DWORD PTR _szTmp$13[ebp]
  0026f	ff 15 00 00 00
	00		 call	 DWORD PTR __imp_?Left@?$CStringT@DV?$StrTraitMFC_DLL@DV?$ChTraitsCRT@D@ATL@@@@@ATL@@QBE?AV12@H@Z
; File C:\Program Files (x86)\Microsoft Visual Studio\2019\Community\VC\Tools\MSVC\14.29.30133\atlmfc\include\cstringt.h

; 2486 : 		return(str1.Compare(psz2) == 0);

  00275	68 00 00 00 00	 push	 OFFSET ??_C@_0L@FJHEMLKJ@DATA_BEGIN@
  0027a	8b c8		 mov	 ecx, eax
; File D:\git\src\IBK\IBK_DRFN\ProjSrc\SrcChartEx\ChartAddIn\ChartDesignPropertyAddIn\ChartDesignPropertyAddIn\TreeDropList.cpp

; 623  : 		else if(szTmp.Left(12) == "DATA_BEGIN")// && hPackNameItem !=NULL)

  0027c	c6 45 fc 06	 mov	 BYTE PTR __$EHRec$[ebp+8], 6
; File C:\Program Files (x86)\Microsoft Visual Studio\2019\Community\VC\Tools\MSVC\14.29.30133\atlmfc\include\cstringt.h

; 2486 : 		return(str1.Compare(psz2) == 0);

  00280	ff 15 00 00 00
	00		 call	 DWORD PTR __imp_?Compare@?$CStringT@DV?$StrTraitMFC_DLL@DV?$ChTraitsCRT@D@ATL@@@@@ATL@@QBEHPBD@Z
; File D:\git\src\IBK\IBK_DRFN\ProjSrc\SrcChartEx\ChartAddIn\ChartDesignPropertyAddIn\ChartDesignPropertyAddIn\TreeDropList.cpp

; 623  : 		else if(szTmp.Left(12) == "DATA_BEGIN")// && hPackNameItem !=NULL)

  00286	8d 8d 28 ff ff
	ff		 lea	 ecx, DWORD PTR $T6[ebp]
  0028c	c6 45 fc 01	 mov	 BYTE PTR __$EHRec$[ebp+8], 1
; File C:\Program Files (x86)\Microsoft Visual Studio\2019\Community\VC\Tools\MSVC\14.29.30133\atlmfc\include\cstringt.h

; 2486 : 		return(str1.Compare(psz2) == 0);

  00290	8b f8		 mov	 edi, eax
; File D:\git\src\IBK\IBK_DRFN\ProjSrc\SrcChartEx\ChartAddIn\ChartDesignPropertyAddIn\ChartDesignPropertyAddIn\TreeDropList.cpp

; 623  : 		else if(szTmp.Left(12) == "DATA_BEGIN")// && hPackNameItem !=NULL)

  00292	ff 15 00 00 00
	00		 call	 DWORD PTR __imp_??1?$CStringT@DV?$StrTraitMFC_DLL@DV?$ChTraitsCRT@D@ATL@@@@@ATL@@QAE@XZ
  00298	85 ff		 test	 edi, edi
  0029a	75 08		 jne	 SHORT $LN14@Parsing

; 624  : 		{
; 625  : 			Begin = TRUE;

  0029c	8d 5f 01	 lea	 ebx, DWORD PTR [edi+1]

; 626  : 		} 

  0029f	e9 7d 01 00 00	 jmp	 $LN20@Parsing
$LN14@Parsing:

; 627  : 		else if(szTmp.Left(8) == "DATA_END")

  002a4	6a 08		 push	 8
  002a6	8d 85 24 ff ff
	ff		 lea	 eax, DWORD PTR $T5[ebp]
  002ac	50		 push	 eax
  002ad	8d 8d 4c ff ff
	ff		 lea	 ecx, DWORD PTR _szTmp$13[ebp]
  002b3	ff 15 00 00 00
	00		 call	 DWORD PTR __imp_?Left@?$CStringT@DV?$StrTraitMFC_DLL@DV?$ChTraitsCRT@D@ATL@@@@@ATL@@QBE?AV12@H@Z
; File C:\Program Files (x86)\Microsoft Visual Studio\2019\Community\VC\Tools\MSVC\14.29.30133\atlmfc\include\cstringt.h

; 2486 : 		return(str1.Compare(psz2) == 0);

  002b9	68 00 00 00 00	 push	 OFFSET ??_C@_08JELJLFJK@DATA_END@
  002be	8b c8		 mov	 ecx, eax
; File D:\git\src\IBK\IBK_DRFN\ProjSrc\SrcChartEx\ChartAddIn\ChartDesignPropertyAddIn\ChartDesignPropertyAddIn\TreeDropList.cpp

; 627  : 		else if(szTmp.Left(8) == "DATA_END")

  002c0	c6 45 fc 07	 mov	 BYTE PTR __$EHRec$[ebp+8], 7
; File C:\Program Files (x86)\Microsoft Visual Studio\2019\Community\VC\Tools\MSVC\14.29.30133\atlmfc\include\cstringt.h

; 2486 : 		return(str1.Compare(psz2) == 0);

  002c4	ff 15 00 00 00
	00		 call	 DWORD PTR __imp_?Compare@?$CStringT@DV?$StrTraitMFC_DLL@DV?$ChTraitsCRT@D@ATL@@@@@ATL@@QBEHPBD@Z
; File D:\git\src\IBK\IBK_DRFN\ProjSrc\SrcChartEx\ChartAddIn\ChartDesignPropertyAddIn\ChartDesignPropertyAddIn\TreeDropList.cpp

; 627  : 		else if(szTmp.Left(8) == "DATA_END")

  002ca	8d 8d 24 ff ff
	ff		 lea	 ecx, DWORD PTR $T5[ebp]
  002d0	c6 45 fc 01	 mov	 BYTE PTR __$EHRec$[ebp+8], 1
; File C:\Program Files (x86)\Microsoft Visual Studio\2019\Community\VC\Tools\MSVC\14.29.30133\atlmfc\include\cstringt.h

; 2486 : 		return(str1.Compare(psz2) == 0);

  002d4	8b f8		 mov	 edi, eax
; File D:\git\src\IBK\IBK_DRFN\ProjSrc\SrcChartEx\ChartAddIn\ChartDesignPropertyAddIn\ChartDesignPropertyAddIn\TreeDropList.cpp

; 627  : 		else if(szTmp.Left(8) == "DATA_END")

  002d6	ff 15 00 00 00
	00		 call	 DWORD PTR __imp_??1?$CStringT@DV?$StrTraitMFC_DLL@DV?$ChTraitsCRT@D@ATL@@@@@ATL@@QAE@XZ
  002dc	85 ff		 test	 edi, edi
  002de	75 07		 jne	 SHORT $LN16@Parsing

; 628  : 		{
; 629  : 			Begin = FALSE;

  002e0	33 db		 xor	 ebx, ebx

; 630  : 		}

  002e2	e9 3a 01 00 00	 jmp	 $LN20@Parsing
$LN16@Parsing:

; 631  : 		else if(szTmp.Left(12) == "END_DATA_MAP")

  002e7	6a 0c		 push	 12			; 0000000cH
  002e9	8d 85 20 ff ff
	ff		 lea	 eax, DWORD PTR $T4[ebp]
  002ef	50		 push	 eax
  002f0	8d 8d 4c ff ff
	ff		 lea	 ecx, DWORD PTR _szTmp$13[ebp]
  002f6	ff 15 00 00 00
	00		 call	 DWORD PTR __imp_?Left@?$CStringT@DV?$StrTraitMFC_DLL@DV?$ChTraitsCRT@D@ATL@@@@@ATL@@QBE?AV12@H@Z
; File C:\Program Files (x86)\Microsoft Visual Studio\2019\Community\VC\Tools\MSVC\14.29.30133\atlmfc\include\cstringt.h

; 2486 : 		return(str1.Compare(psz2) == 0);

  002fc	68 00 00 00 00	 push	 OFFSET ??_C@_0N@MKPMKOMP@END_DATA_MAP@
  00301	8b c8		 mov	 ecx, eax
; File D:\git\src\IBK\IBK_DRFN\ProjSrc\SrcChartEx\ChartAddIn\ChartDesignPropertyAddIn\ChartDesignPropertyAddIn\TreeDropList.cpp

; 631  : 		else if(szTmp.Left(12) == "END_DATA_MAP")

  00303	c6 45 fc 08	 mov	 BYTE PTR __$EHRec$[ebp+8], 8
; File C:\Program Files (x86)\Microsoft Visual Studio\2019\Community\VC\Tools\MSVC\14.29.30133\atlmfc\include\cstringt.h

; 2486 : 		return(str1.Compare(psz2) == 0);

  00307	ff 15 00 00 00
	00		 call	 DWORD PTR __imp_?Compare@?$CStringT@DV?$StrTraitMFC_DLL@DV?$ChTraitsCRT@D@ATL@@@@@ATL@@QBEHPBD@Z
; File D:\git\src\IBK\IBK_DRFN\ProjSrc\SrcChartEx\ChartAddIn\ChartDesignPropertyAddIn\ChartDesignPropertyAddIn\TreeDropList.cpp

; 631  : 		else if(szTmp.Left(12) == "END_DATA_MAP")

  0030d	8d 8d 20 ff ff
	ff		 lea	 ecx, DWORD PTR $T4[ebp]
  00313	c6 45 fc 01	 mov	 BYTE PTR __$EHRec$[ebp+8], 1
; File C:\Program Files (x86)\Microsoft Visual Studio\2019\Community\VC\Tools\MSVC\14.29.30133\atlmfc\include\cstringt.h

; 2486 : 		return(str1.Compare(psz2) == 0);

  00317	8b f8		 mov	 edi, eax
; File D:\git\src\IBK\IBK_DRFN\ProjSrc\SrcChartEx\ChartAddIn\ChartDesignPropertyAddIn\ChartDesignPropertyAddIn\TreeDropList.cpp

; 631  : 		else if(szTmp.Left(12) == "END_DATA_MAP")

  00319	ff 15 00 00 00
	00		 call	 DWORD PTR __imp_??1?$CStringT@DV?$StrTraitMFC_DLL@DV?$ChTraitsCRT@D@ATL@@@@@ATL@@QAE@XZ
  0031f	85 ff		 test	 edi, edi
  00321	75 0f		 jne	 SHORT $LN18@Parsing

; 632  : 		{
; 633  : 			Begin = FALSE;

  00323	33 db		 xor	 ebx, ebx

; 634  : 			hPackNameItem = 0;

  00325	33 c0		 xor	 eax, eax
  00327	89 85 40 ff ff
	ff		 mov	 DWORD PTR _hPackNameItem$1$[ebp], eax

; 635  : 		}

  0032d	e9 ef 00 00 00	 jmp	 $LN20@Parsing
$LN18@Parsing:

; 636  : 		else
; 637  : 		{
; 638  : 			if(Begin && hPackNameItem !=NULL)

  00332	85 db		 test	 ebx, ebx
  00334	0f 84 e7 00 00
	00		 je	 $LN20@Parsing
  0033a	8b bd 40 ff ff
	ff		 mov	 edi, DWORD PTR _hPackNameItem$1$[ebp]
  00340	85 ff		 test	 edi, edi
  00342	0f 84 d9 00 00
	00		 je	 $LN20@Parsing

; 639  : 			{
; 640  : 				LPSTR p = (LPSTR)(LPCTSTR) szReal;
; 641  : 
; 642  : 				p = CutString(p,szDescrip);

  00348	8b 8d 48 ff ff
	ff		 mov	 ecx, DWORD PTR _this$GSCopy$1$[ebp]
  0034e	8d 85 50 ff ff
	ff		 lea	 eax, DWORD PTR _szDescrip$[ebp]
  00354	50		 push	 eax
  00355	ff b5 38 ff ff
	ff		 push	 DWORD PTR _szReal$10[ebp]
  0035b	e8 00 00 00 00	 call	 ?CutString@CTreeDropList@@IAEPADPAD0@Z ; CTreeDropList::CutString

; 643  : 				p = CutString(p, szName);

  00360	8d 4d d0	 lea	 ecx, DWORD PTR _szName$[ebp]
  00363	51		 push	 ecx
  00364	8b 8d 48 ff ff
	ff		 mov	 ecx, DWORD PTR _this$GSCopy$1$[ebp]
  0036a	50		 push	 eax
  0036b	e8 00 00 00 00	 call	 ?CutString@CTreeDropList@@IAEPADPAD0@Z ; CTreeDropList::CutString

; 644  : 				p = CutString(p, szType);

  00370	8d 4d 90	 lea	 ecx, DWORD PTR _szType$[ebp]
  00373	51		 push	 ecx
  00374	8b 8d 48 ff ff
	ff		 mov	 ecx, DWORD PTR _this$GSCopy$1$[ebp]
  0037a	50		 push	 eax
  0037b	e8 00 00 00 00	 call	 ?CutString@CTreeDropList@@IAEPADPAD0@Z ; CTreeDropList::CutString

; 645  : 				p = CutString(p, szFormat);

  00380	8d 4d b0	 lea	 ecx, DWORD PTR _szFormat$[ebp]
  00383	51		 push	 ecx
  00384	8b 8d 48 ff ff
	ff		 mov	 ecx, DWORD PTR _this$GSCopy$1$[ebp]
  0038a	50		 push	 eax
  0038b	e8 00 00 00 00	 call	 ?CutString@CTreeDropList@@IAEPADPAD0@Z ; CTreeDropList::CutString

; 482  : 	CString szText;

  00390	8d 8d 3c ff ff
	ff		 lea	 ecx, DWORD PTR _szText$11[ebp]
  00396	ff 15 00 00 00
	00		 call	 DWORD PTR __imp_??0?$CStringT@DV?$StrTraitMFC_DLL@DV?$ChTraitsCRT@D@ATL@@@@@ATL@@QAE@XZ

; 483  : 	szText.Format("%s,%s,%s,%s",Description,Name,type,szLength);

  0039c	8d 45 b0	 lea	 eax, DWORD PTR _szFormat$[ebp]
  0039f	c6 45 fc 09	 mov	 BYTE PTR __$EHRec$[ebp+8], 9
  003a3	50		 push	 eax
  003a4	8d 45 90	 lea	 eax, DWORD PTR _szType$[ebp]
  003a7	50		 push	 eax
  003a8	8d 45 d0	 lea	 eax, DWORD PTR _szName$[ebp]
  003ab	50		 push	 eax
  003ac	8d 85 50 ff ff
	ff		 lea	 eax, DWORD PTR _szDescrip$[ebp]
  003b2	50		 push	 eax
  003b3	8d 85 3c ff ff
	ff		 lea	 eax, DWORD PTR _szText$11[ebp]
  003b9	68 00 00 00 00	 push	 OFFSET ??_C@_0M@ONNOPAIB@?$CFs?0?$CFs?0?$CFs?0?$CFs@
  003be	50		 push	 eax
  003bf	ff 15 00 00 00
	00		 call	 DWORD PTR __imp_?Format@?$CStringT@DV?$StrTraitMFC_DLL@DV?$ChTraitsCRT@D@ATL@@@@@ATL@@QAAXPBDZZ

; 491  : 
; 492  : 	tvstruct.item.pszText = (LPSTR)(LPCTSTR)szText;

  003c5	8b 85 3c ff ff
	ff		 mov	 eax, DWORD PTR _szText$11[ebp]
  003cb	83 c4 18	 add	 esp, 24			; 00000018H
  003ce	89 85 f4 fe ff
	ff		 mov	 DWORD PTR _tvstruct$3[ebp+24], eax
; File C:\Program Files (x86)\Microsoft Visual Studio\2019\Community\VC\Tools\MSVC\14.29.30133\atlmfc\include\afxcmn.inl

; 266  : 	{ ASSERT(::IsWindow(m_hWnd));  return (HTREEITEM)::SendMessage(m_hWnd, TVM_INSERTITEM, 0, (LPARAM)lpInsertStruct); }

  003d4	8d 85 dc fe ff
	ff		 lea	 eax, DWORD PTR _tvstruct$3[ebp]
; File D:\git\src\IBK\IBK_DRFN\ProjSrc\SrcChartEx\ChartAddIn\ChartDesignPropertyAddIn\ChartDesignPropertyAddIn\TreeDropList.cpp

; 486  : 	tvstruct.hParent = hParent;

  003da	89 bd dc fe ff
	ff		 mov	 DWORD PTR _tvstruct$3[ebp], edi

; 487  : 	tvstruct.hInsertAfter = TVI_LAST;

  003e0	c7 85 e0 fe ff
	ff 02 00 ff ff	 mov	 DWORD PTR _tvstruct$3[ebp+4], -65534 ; ffff0002H
; File C:\Program Files (x86)\Microsoft Visual Studio\2019\Community\VC\Tools\MSVC\14.29.30133\atlmfc\include\afxcmn.inl

; 266  : 	{ ASSERT(::IsWindow(m_hWnd));  return (HTREEITEM)::SendMessage(m_hWnd, TVM_INSERTITEM, 0, (LPARAM)lpInsertStruct); }

  003ea	50		 push	 eax
  003eb	8b 85 48 ff ff
	ff		 mov	 eax, DWORD PTR _this$GSCopy$1$[ebp]
  003f1	6a 00		 push	 0
  003f3	68 00 11 00 00	 push	 4352			; 00001100H
; File D:\git\src\IBK\IBK_DRFN\ProjSrc\SrcChartEx\ChartAddIn\ChartDesignPropertyAddIn\ChartDesignPropertyAddIn\TreeDropList.cpp

; 489  : 	tvstruct.item.mask = TVIF_TEXT;

  003f8	c7 85 e4 fe ff
	ff 01 00 00 00	 mov	 DWORD PTR _tvstruct$3[ebp+8], 1
; File C:\Program Files (x86)\Microsoft Visual Studio\2019\Community\VC\Tools\MSVC\14.29.30133\atlmfc\include\afxcmn.inl

; 266  : 	{ ASSERT(::IsWindow(m_hWnd));  return (HTREEITEM)::SendMessage(m_hWnd, TVM_INSERTITEM, 0, (LPARAM)lpInsertStruct); }

  00402	ff 70 20	 push	 DWORD PTR [eax+32]
; File D:\git\src\IBK\IBK_DRFN\ProjSrc\SrcChartEx\ChartAddIn\ChartDesignPropertyAddIn\ChartDesignPropertyAddIn\TreeDropList.cpp

; 490  : 	tvstruct.item.iImage = 1;

  00405	c7 85 fc fe ff
	ff 01 00 00 00	 mov	 DWORD PTR _tvstruct$3[ebp+32], 1
; File C:\Program Files (x86)\Microsoft Visual Studio\2019\Community\VC\Tools\MSVC\14.29.30133\atlmfc\include\afxcmn.inl

; 266  : 	{ ASSERT(::IsWindow(m_hWnd));  return (HTREEITEM)::SendMessage(m_hWnd, TVM_INSERTITEM, 0, (LPARAM)lpInsertStruct); }

  0040f	ff 15 00 00 00
	00		 call	 DWORD PTR __imp__SendMessageA@16
; File D:\git\src\IBK\IBK_DRFN\ProjSrc\SrcChartEx\ChartAddIn\ChartDesignPropertyAddIn\ChartDesignPropertyAddIn\TreeDropList.cpp

; 495  : 	return hItem;

  00415	8d 8d 3c ff ff
	ff		 lea	 ecx, DWORD PTR _szText$11[ebp]
$LN83@Parsing:

; 646  : 
; 647  : 				AddItem(hPackNameItem,szDescrip,szName,szType,szFormat);		
; 648  : 			}
; 649  : 
; 650  : 		}
; 651  : 		
; 652  : 	}

  0041b	ff 15 00 00 00
	00		 call	 DWORD PTR __imp_??1?$CStringT@DV?$StrTraitMFC_DLL@DV?$ChTraitsCRT@D@ATL@@@@@ATL@@QAE@XZ
$LN20@Parsing:
  00421	8d 8d 38 ff ff
	ff		 lea	 ecx, DWORD PTR _szReal$10[ebp]
  00427	ff 15 00 00 00
	00		 call	 DWORD PTR __imp_??1?$CStringT@DV?$StrTraitMFC_DLL@DV?$ChTraitsCRT@D@ATL@@@@@ATL@@QAE@XZ
  0042d	8d 8d 4c ff ff
	ff		 lea	 ecx, DWORD PTR _szTmp$13[ebp]
  00433	c7 45 fc ff ff
	ff ff		 mov	 DWORD PTR __$EHRec$[ebp+8], -1
  0043a	ff 15 00 00 00
	00		 call	 DWORD PTR __imp_??1?$CStringT@DV?$StrTraitMFC_DLL@DV?$ChTraitsCRT@D@ATL@@@@@ATL@@QAE@XZ
  00440	85 f6		 test	 esi, esi
  00442	0f 85 08 fc ff
	ff		 jne	 $LL2@Parsing
$LN80@Parsing:

; 653  : 	return TRUE;

  00448	b8 01 00 00 00	 mov	 eax, 1
$LN1@Parsing:

; 655  : }

  0044d	8b 4d f4	 mov	 ecx, DWORD PTR __$EHRec$[ebp]
  00450	64 89 0d 00 00
	00 00		 mov	 DWORD PTR fs:0, ecx
  00457	59		 pop	 ecx
  00458	5f		 pop	 edi
  00459	5e		 pop	 esi
  0045a	5b		 pop	 ebx
  0045b	8b 4d f0	 mov	 ecx, DWORD PTR __$ArrayPad$[ebp]
  0045e	33 cd		 xor	 ecx, ebp
  00460	e8 00 00 00 00	 call	 @__security_check_cookie@4
  00465	8b e5		 mov	 esp, ebp
  00467	5d		 pop	 ebp
  00468	c3		 ret	 0
$LN76@Parsing:

; 595  : 			if(szTmp.IsEmpty()) return FALSE;

  00469	8d 8d 38 ff ff
	ff		 lea	 ecx, DWORD PTR _szReal$10[ebp]
  0046f	ff 15 00 00 00
	00		 call	 DWORD PTR __imp_??1?$CStringT@DV?$StrTraitMFC_DLL@DV?$ChTraitsCRT@D@ATL@@@@@ATL@@QAE@XZ
  00475	8d 8d 4c ff ff
	ff		 lea	 ecx, DWORD PTR _szTmp$13[ebp]
  0047b	ff 15 00 00 00
	00		 call	 DWORD PTR __imp_??1?$CStringT@DV?$StrTraitMFC_DLL@DV?$ChTraitsCRT@D@ATL@@@@@ATL@@QAE@XZ
  00481	33 c0		 xor	 eax, eax
  00483	eb c8		 jmp	 SHORT $LN1@Parsing
$LN75@Parsing:
; File C:\Program Files (x86)\Microsoft Visual Studio\2019\Community\VC\Tools\MSVC\14.29.30133\atlmfc\include\afxcoll.inl

; 504  : 			AfxThrowInvalidArgException();

  00485	e8 00 00 00 00	 call	 ?AfxThrowInvalidArgException@@YGXXZ ; AfxThrowInvalidArgException
$LN82@Parsing:
  0048a	cc		 int	 3
_TEXT	ENDS
;	COMDAT text$x
text$x	SEGMENT
__unwindfunclet$?Parsing@CTreeDropList@@IAEHXZ$0:
  00000	8d 8d 4c ff ff
	ff		 lea	 ecx, DWORD PTR _szTmp$13[ebp]
  00006	ff 25 00 00 00
	00		 jmp	 DWORD PTR __imp_??1?$CStringT@DV?$StrTraitMFC_DLL@DV?$ChTraitsCRT@D@ATL@@@@@ATL@@QAE@XZ
__unwindfunclet$?Parsing@CTreeDropList@@IAEHXZ$1:
  0000c	8d 8d 38 ff ff
	ff		 lea	 ecx, DWORD PTR _szReal$10[ebp]
  00012	ff 25 00 00 00
	00		 jmp	 DWORD PTR __imp_??1?$CStringT@DV?$StrTraitMFC_DLL@DV?$ChTraitsCRT@D@ATL@@@@@ATL@@QAE@XZ
__unwindfunclet$?Parsing@CTreeDropList@@IAEHXZ$2:
  00018	8d 8d 34 ff ff
	ff		 lea	 ecx, DWORD PTR $T9[ebp]
  0001e	ff 25 00 00 00
	00		 jmp	 DWORD PTR __imp_??1?$CStringT@DV?$StrTraitMFC_DLL@DV?$ChTraitsCRT@D@ATL@@@@@ATL@@QAE@XZ
__unwindfunclet$?Parsing@CTreeDropList@@IAEHXZ$8:
  00024	8d 8d 44 ff ff
	ff		 lea	 ecx, DWORD PTR _szItem$12[ebp]
  0002a	ff 25 00 00 00
	00		 jmp	 DWORD PTR __imp_??1?$CStringT@DV?$StrTraitMFC_DLL@DV?$ChTraitsCRT@D@ATL@@@@@ATL@@QAE@XZ
__unwindfunclet$?Parsing@CTreeDropList@@IAEHXZ$3:
  00030	8d 8d 30 ff ff
	ff		 lea	 ecx, DWORD PTR $T8[ebp]
  00036	ff 25 00 00 00
	00		 jmp	 DWORD PTR __imp_??1?$CStringT@DV?$StrTraitMFC_DLL@DV?$ChTraitsCRT@D@ATL@@@@@ATL@@QAE@XZ
__unwindfunclet$?Parsing@CTreeDropList@@IAEHXZ$4:
  0003c	8d 8d 2c ff ff
	ff		 lea	 ecx, DWORD PTR $T7[ebp]
  00042	ff 25 00 00 00
	00		 jmp	 DWORD PTR __imp_??1?$CStringT@DV?$StrTraitMFC_DLL@DV?$ChTraitsCRT@D@ATL@@@@@ATL@@QAE@XZ
__unwindfunclet$?Parsing@CTreeDropList@@IAEHXZ$5:
  00048	8d 8d 28 ff ff
	ff		 lea	 ecx, DWORD PTR $T6[ebp]
  0004e	ff 25 00 00 00
	00		 jmp	 DWORD PTR __imp_??1?$CStringT@DV?$StrTraitMFC_DLL@DV?$ChTraitsCRT@D@ATL@@@@@ATL@@QAE@XZ
__unwindfunclet$?Parsing@CTreeDropList@@IAEHXZ$6:
  00054	8d 8d 24 ff ff
	ff		 lea	 ecx, DWORD PTR $T5[ebp]
  0005a	ff 25 00 00 00
	00		 jmp	 DWORD PTR __imp_??1?$CStringT@DV?$StrTraitMFC_DLL@DV?$ChTraitsCRT@D@ATL@@@@@ATL@@QAE@XZ
__unwindfunclet$?Parsing@CTreeDropList@@IAEHXZ$7:
  00060	8d 8d 20 ff ff
	ff		 lea	 ecx, DWORD PTR $T4[ebp]
  00066	ff 25 00 00 00
	00		 jmp	 DWORD PTR __imp_??1?$CStringT@DV?$StrTraitMFC_DLL@DV?$ChTraitsCRT@D@ATL@@@@@ATL@@QAE@XZ
__unwindfunclet$?Parsing@CTreeDropList@@IAEHXZ$9:
  0006c	8d 8d 3c ff ff
	ff		 lea	 ecx, DWORD PTR _szText$11[ebp]
  00072	ff 25 00 00 00
	00		 jmp	 DWORD PTR __imp_??1?$CStringT@DV?$StrTraitMFC_DLL@DV?$ChTraitsCRT@D@ATL@@@@@ATL@@QAE@XZ
  00078	cc		 int	 3
  00079	cc		 int	 3
  0007a	cc		 int	 3
  0007b	cc		 int	 3
  0007c	cc		 int	 3
__ehhandler$?Parsing@CTreeDropList@@IAEHXZ:
  0007d	90		 npad	 1
  0007e	90		 npad	 1
  0007f	8b 54 24 08	 mov	 edx, DWORD PTR [esp+8]
  00083	8d 42 0c	 lea	 eax, DWORD PTR [edx+12]
  00086	8b 8a 94 fe ff
	ff		 mov	 ecx, DWORD PTR [edx-364]
  0008c	33 c8		 xor	 ecx, eax
  0008e	e8 00 00 00 00	 call	 @__security_check_cookie@4
  00093	8b 4a fc	 mov	 ecx, DWORD PTR [edx-4]
  00096	33 c8		 xor	 ecx, eax
  00098	e8 00 00 00 00	 call	 @__security_check_cookie@4
  0009d	b8 00 00 00 00	 mov	 eax, OFFSET __ehfuncinfo$?Parsing@CTreeDropList@@IAEHXZ
  000a2	e9 00 00 00 00	 jmp	 ___CxxFrameHandler3
text$x	ENDS
?Parsing@CTreeDropList@@IAEHXZ ENDP			; CTreeDropList::Parsing
; Function compile flags: /Ogtp
; File D:\git\src\IBK\IBK_DRFN\ProjSrc\SrcChartEx\ChartAddIn\ChartDesignPropertyAddIn\ChartDesignPropertyAddIn\TreeDropList.cpp
; File C:\Program Files (x86)\Microsoft Visual Studio\2019\Community\VC\Tools\MSVC\14.29.30133\atlmfc\include\atlsimpstr.h
; File D:\git\src\IBK\IBK_DRFN\ProjSrc\SrcChartEx\ChartAddIn\ChartDesignPropertyAddIn\ChartDesignPropertyAddIn\TreeDropList.cpp
; File C:\Program Files (x86)\Microsoft Visual Studio\2019\Community\VC\Tools\MSVC\14.29.30133\atlmfc\include\atlsimpstr.h
; File D:\git\src\IBK\IBK_DRFN\ProjSrc\SrcChartEx\ChartAddIn\ChartDesignPropertyAddIn\ChartDesignPropertyAddIn\TreeDropList.cpp
; File C:\Program Files (x86)\Microsoft Visual Studio\2019\Community\VC\Tools\MSVC\14.29.30133\atlmfc\include\atlsimpstr.h
; File D:\git\src\IBK\IBK_DRFN\ProjSrc\SrcChartEx\ChartAddIn\ChartDesignPropertyAddIn\ChartDesignPropertyAddIn\TreeDropList.cpp
; File C:\Program Files (x86)\Microsoft Visual Studio\2019\Community\VC\Tools\MSVC\14.29.30133\atlmfc\include\atlsimpstr.h
; File D:\git\src\IBK\IBK_DRFN\ProjSrc\SrcChartEx\ChartAddIn\ChartDesignPropertyAddIn\ChartDesignPropertyAddIn\TreeDropList.cpp
;	COMDAT ?CutString@CTreeDropList@@IAEPADPAD0@Z
_TEXT	SEGMENT
$T2 = -16						; size = 4
$T3 = -16						; size = 4
__$EHRec$ = -12						; size = 12
_szTmp$ = 8						; size = 4
_str$ = 8						; size = 4
_szBuff$ = 12						; size = 4
_buff$ = 12						; size = 4
?CutString@CTreeDropList@@IAEPADPAD0@Z PROC		; CTreeDropList::CutString, COMDAT
; _this$ = ecx

; 658  : {

  00000	55		 push	 ebp
  00001	8b ec		 mov	 ebp, esp
  00003	6a ff		 push	 -1
  00005	68 00 00 00 00	 push	 __ehhandler$?CutString@CTreeDropList@@IAEPADPAD0@Z
  0000a	64 a1 00 00 00
	00		 mov	 eax, DWORD PTR fs:0
  00010	50		 push	 eax
  00011	51		 push	 ecx
  00012	53		 push	 ebx
  00013	56		 push	 esi
  00014	57		 push	 edi
  00015	a1 00 00 00 00	 mov	 eax, DWORD PTR ___security_cookie
  0001a	33 c5		 xor	 eax, ebp
  0001c	50		 push	 eax
  0001d	8d 45 f4	 lea	 eax, DWORD PTR __$EHRec$[ebp]
  00020	64 a3 00 00 00
	00		 mov	 DWORD PTR fs:0, eax

; 659  : 	if(str == NULL || buff == NULL) return NULL;

  00026	8b 7d 08	 mov	 edi, DWORD PTR _str$[ebp]
  00029	85 ff		 test	 edi, edi
  0002b	0f 84 18 01 00
	00		 je	 $LN3@CutString
  00031	8b 75 0c	 mov	 esi, DWORD PTR _buff$[ebp]
  00034	85 f6		 test	 esi, esi
  00036	0f 84 0d 01 00
	00		 je	 $LN3@CutString

; 660  : 	buff [0] = 0;
; 661  : 	CString szTmp = str;

  0003c	57		 push	 edi
  0003d	8d 4d 08	 lea	 ecx, DWORD PTR _szTmp$[ebp]
  00040	c6 06 00	 mov	 BYTE PTR [esi], 0
  00043	ff 15 00 00 00
	00		 call	 DWORD PTR __imp_??0?$CStringT@DV?$StrTraitMFC_DLL@DV?$ChTraitsCRT@D@ATL@@@@@ATL@@QAE@PBD@Z

; 662  : 	CString szBuff;

  00049	8d 4d 0c	 lea	 ecx, DWORD PTR _szBuff$[ebp]
  0004c	c7 45 fc 00 00
	00 00		 mov	 DWORD PTR __$EHRec$[ebp+8], 0
  00053	ff 15 00 00 00
	00		 call	 DWORD PTR __imp_??0?$CStringT@DV?$StrTraitMFC_DLL@DV?$ChTraitsCRT@D@ATL@@@@@ATL@@QAE@XZ

; 663  : 	szTmp.TrimLeft();

  00059	8d 4d 08	 lea	 ecx, DWORD PTR _szTmp$[ebp]
  0005c	c6 45 fc 01	 mov	 BYTE PTR __$EHRec$[ebp+8], 1
  00060	ff 15 00 00 00
	00		 call	 DWORD PTR __imp_?TrimLeft@?$CStringT@DV?$StrTraitMFC_DLL@DV?$ChTraitsCRT@D@ATL@@@@@ATL@@QAEAAV12@XZ

; 664  : 
; 665  : 
; 666  : 	int pos = szTmp.Find(',');

  00066	6a 00		 push	 0
  00068	6a 2c		 push	 44			; 0000002cH
  0006a	8d 4d 08	 lea	 ecx, DWORD PTR _szTmp$[ebp]
  0006d	ff 15 00 00 00
	00		 call	 DWORD PTR __imp_?Find@?$CStringT@DV?$StrTraitMFC_DLL@DV?$ChTraitsCRT@D@ATL@@@@@ATL@@QBEHDH@Z
  00073	8b d8		 mov	 ebx, eax

; 667  : 	if(pos == -1)	szTmp.Find(';');

  00075	83 fb ff	 cmp	 ebx, -1
  00078	75 13		 jne	 SHORT $LN5@CutString
  0007a	6a 00		 push	 0
  0007c	6a 3b		 push	 59			; 0000003bH
  0007e	8d 4d 08	 lea	 ecx, DWORD PTR _szTmp$[ebp]
  00081	ff 15 00 00 00
	00		 call	 DWORD PTR __imp_?Find@?$CStringT@DV?$StrTraitMFC_DLL@DV?$ChTraitsCRT@D@ATL@@@@@ATL@@QBEHDH@Z
; File C:\Program Files (x86)\Microsoft Visual Studio\2019\Community\VC\Tools\MSVC\14.29.30133\atlmfc\include\atlsimpstr.h

; 519  : 		return( GetData()->nDataLength );

  00087	8b 45 08	 mov	 eax, DWORD PTR _szTmp$[ebp]
  0008a	8b 58 f4	 mov	 ebx, DWORD PTR [eax-12]
$LN5@CutString:
; File D:\git\src\IBK\IBK_DRFN\ProjSrc\SrcChartEx\ChartAddIn\ChartDesignPropertyAddIn\ChartDesignPropertyAddIn\TreeDropList.cpp

; 670  : 	szBuff = szTmp.Left(pos);

  0008d	53		 push	 ebx
  0008e	8d 45 f0	 lea	 eax, DWORD PTR $T3[ebp]
  00091	50		 push	 eax
  00092	8d 4d 08	 lea	 ecx, DWORD PTR _szTmp$[ebp]
  00095	ff 15 00 00 00
	00		 call	 DWORD PTR __imp_?Left@?$CStringT@DV?$StrTraitMFC_DLL@DV?$ChTraitsCRT@D@ATL@@@@@ATL@@QBE?AV12@H@Z
  0009b	50		 push	 eax
  0009c	8d 4d 0c	 lea	 ecx, DWORD PTR _szBuff$[ebp]
  0009f	c6 45 fc 02	 mov	 BYTE PTR __$EHRec$[ebp+8], 2
  000a3	ff 15 00 00 00
	00		 call	 DWORD PTR __imp_??4?$CStringT@DV?$StrTraitMFC_DLL@DV?$ChTraitsCRT@D@ATL@@@@@ATL@@QAEAAV01@ABV01@@Z
  000a9	8d 4d f0	 lea	 ecx, DWORD PTR $T3[ebp]
  000ac	c6 45 fc 01	 mov	 BYTE PTR __$EHRec$[ebp+8], 1
  000b0	ff 15 00 00 00
	00		 call	 DWORD PTR __imp_??1?$CStringT@DV?$StrTraitMFC_DLL@DV?$ChTraitsCRT@D@ATL@@@@@ATL@@QAE@XZ
; File C:\Program Files (x86)\Microsoft Visual Studio\2019\Community\VC\Tools\MSVC\14.29.30133\atlmfc\include\atlsimpstr.h

; 519  : 		return( GetData()->nDataLength );

  000b6	8b 45 08	 mov	 eax, DWORD PTR _szTmp$[ebp]
; File D:\git\src\IBK\IBK_DRFN\ProjSrc\SrcChartEx\ChartAddIn\ChartDesignPropertyAddIn\ChartDesignPropertyAddIn\TreeDropList.cpp

; 672  : 	if(szTmp.GetLength() > pos)

  000b9	8d 4d 08	 lea	 ecx, DWORD PTR _szTmp$[ebp]
  000bc	39 58 f4	 cmp	 DWORD PTR [eax-12], ebx
  000bf	7e 27		 jle	 SHORT $LN6@CutString

; 673  : 		szTmp = szTmp.Mid(pos+1);

  000c1	8d 43 01	 lea	 eax, DWORD PTR [ebx+1]
  000c4	50		 push	 eax
  000c5	8d 45 f0	 lea	 eax, DWORD PTR $T2[ebp]
  000c8	50		 push	 eax
  000c9	ff 15 00 00 00
	00		 call	 DWORD PTR __imp_?Mid@?$CStringT@DV?$StrTraitMFC_DLL@DV?$ChTraitsCRT@D@ATL@@@@@ATL@@QBE?AV12@H@Z
  000cf	50		 push	 eax
  000d0	8d 4d 08	 lea	 ecx, DWORD PTR _szTmp$[ebp]
  000d3	c6 45 fc 03	 mov	 BYTE PTR __$EHRec$[ebp+8], 3
  000d7	ff 15 00 00 00
	00		 call	 DWORD PTR __imp_??4?$CStringT@DV?$StrTraitMFC_DLL@DV?$ChTraitsCRT@D@ATL@@@@@ATL@@QAEAAV01@ABV01@@Z
  000dd	8d 4d f0	 lea	 ecx, DWORD PTR $T2[ebp]
  000e0	ff 15 00 00 00
	00		 call	 DWORD PTR __imp_??1?$CStringT@DV?$StrTraitMFC_DLL@DV?$ChTraitsCRT@D@ATL@@@@@ATL@@QAE@XZ
  000e6	eb 0b		 jmp	 SHORT $LN7@CutString
$LN6@CutString:

; 674  : 	else
; 675  : 		szTmp = "";

  000e8	68 00 00 00 00	 push	 OFFSET ??_C@_00CNPNBAHC@@
  000ed	ff 15 00 00 00
	00		 call	 DWORD PTR __imp_??4?$CStringT@DV?$StrTraitMFC_DLL@DV?$ChTraitsCRT@D@ATL@@@@@ATL@@QAEAAV01@PBD@Z
$LN7@CutString:
; File C:\Program Files (x86)\Microsoft Visual Studio\2019\Community\VC\Tools\MSVC\14.29.30133\atlmfc\include\atlsimpstr.h

; 377  : 		return( m_pszData );

  000f3	8b 45 0c	 mov	 eax, DWORD PTR _szBuff$[ebp]
  000f6	2b f0		 sub	 esi, eax
  000f8	0f 1f 84 00 00
	00 00 00	 npad	 8
$LL9@CutString:
; File D:\git\src\IBK\IBK_DRFN\ProjSrc\SrcChartEx\ChartAddIn\ChartDesignPropertyAddIn\ChartDesignPropertyAddIn\TreeDropList.cpp

; 677  : 	strcpy(buff,(LPSTR)(LPCTSTR)szBuff);

  00100	8a 08		 mov	 cl, BYTE PTR [eax]
  00102	8d 40 01	 lea	 eax, DWORD PTR [eax+1]
  00105	88 4c 06 ff	 mov	 BYTE PTR [esi+eax-1], cl
  00109	84 c9		 test	 cl, cl
  0010b	75 f3		 jne	 SHORT $LL9@CutString
; File C:\Program Files (x86)\Microsoft Visual Studio\2019\Community\VC\Tools\MSVC\14.29.30133\atlmfc\include\atlsimpstr.h

; 377  : 		return( m_pszData );

  0010d	8b 4d 08	 mov	 ecx, DWORD PTR _szTmp$[ebp]
; File D:\git\src\IBK\IBK_DRFN\ProjSrc\SrcChartEx\ChartAddIn\ChartDesignPropertyAddIn\ChartDesignPropertyAddIn\TreeDropList.cpp

; 678  : 	strcpy(str,(LPSTR)(LPCTSTR)szTmp);

  00110	8b f7		 mov	 esi, edi
  00112	2b f1		 sub	 esi, ecx
$LL10@CutString:
  00114	8a 11		 mov	 dl, BYTE PTR [ecx]
  00116	8d 49 01	 lea	 ecx, DWORD PTR [ecx+1]
  00119	88 54 0e ff	 mov	 BYTE PTR [esi+ecx-1], dl
  0011d	84 d2		 test	 dl, dl
  0011f	75 f3		 jne	 SHORT $LL10@CutString

; 679  : 
; 680  : 	return str;

  00121	8d 4d 0c	 lea	 ecx, DWORD PTR _szBuff$[ebp]
  00124	ff 15 00 00 00
	00		 call	 DWORD PTR __imp_??1?$CStringT@DV?$StrTraitMFC_DLL@DV?$ChTraitsCRT@D@ATL@@@@@ATL@@QAE@XZ
  0012a	8d 4d 08	 lea	 ecx, DWORD PTR _szTmp$[ebp]
  0012d	ff 15 00 00 00
	00		 call	 DWORD PTR __imp_??1?$CStringT@DV?$StrTraitMFC_DLL@DV?$ChTraitsCRT@D@ATL@@@@@ATL@@QAE@XZ
  00133	8b c7		 mov	 eax, edi

; 681  : 
; 682  : 
; 683  : }

  00135	8b 4d f4	 mov	 ecx, DWORD PTR __$EHRec$[ebp]
  00138	64 89 0d 00 00
	00 00		 mov	 DWORD PTR fs:0, ecx
  0013f	59		 pop	 ecx
  00140	5f		 pop	 edi
  00141	5e		 pop	 esi
  00142	5b		 pop	 ebx
  00143	8b e5		 mov	 esp, ebp
  00145	5d		 pop	 ebp
  00146	c2 08 00	 ret	 8
$LN3@CutString:

; 659  : 	if(str == NULL || buff == NULL) return NULL;

  00149	33 c0		 xor	 eax, eax

; 681  : 
; 682  : 
; 683  : }

  0014b	8b 4d f4	 mov	 ecx, DWORD PTR __$EHRec$[ebp]
  0014e	64 89 0d 00 00
	00 00		 mov	 DWORD PTR fs:0, ecx
  00155	59		 pop	 ecx
  00156	5f		 pop	 edi
  00157	5e		 pop	 esi
  00158	5b		 pop	 ebx
  00159	8b e5		 mov	 esp, ebp
  0015b	5d		 pop	 ebp
  0015c	c2 08 00	 ret	 8
_TEXT	ENDS
;	COMDAT text$x
text$x	SEGMENT
__unwindfunclet$?CutString@CTreeDropList@@IAEPADPAD0@Z$0:
  00000	8d 4d 08	 lea	 ecx, DWORD PTR _szTmp$[ebp]
  00003	ff 25 00 00 00
	00		 jmp	 DWORD PTR __imp_??1?$CStringT@DV?$StrTraitMFC_DLL@DV?$ChTraitsCRT@D@ATL@@@@@ATL@@QAE@XZ
__unwindfunclet$?CutString@CTreeDropList@@IAEPADPAD0@Z$1:
  00009	8d 4d 0c	 lea	 ecx, DWORD PTR _szBuff$[ebp]
  0000c	ff 25 00 00 00
	00		 jmp	 DWORD PTR __imp_??1?$CStringT@DV?$StrTraitMFC_DLL@DV?$ChTraitsCRT@D@ATL@@@@@ATL@@QAE@XZ
__unwindfunclet$?CutString@CTreeDropList@@IAEPADPAD0@Z$2:
  00012	8d 4d f0	 lea	 ecx, DWORD PTR $T3[ebp]
  00015	ff 25 00 00 00
	00		 jmp	 DWORD PTR __imp_??1?$CStringT@DV?$StrTraitMFC_DLL@DV?$ChTraitsCRT@D@ATL@@@@@ATL@@QAE@XZ
__unwindfunclet$?CutString@CTreeDropList@@IAEPADPAD0@Z$3:
  0001b	8d 4d f0	 lea	 ecx, DWORD PTR $T2[ebp]
  0001e	ff 25 00 00 00
	00		 jmp	 DWORD PTR __imp_??1?$CStringT@DV?$StrTraitMFC_DLL@DV?$ChTraitsCRT@D@ATL@@@@@ATL@@QAE@XZ
  00024	cc		 int	 3
  00025	cc		 int	 3
  00026	cc		 int	 3
  00027	cc		 int	 3
  00028	cc		 int	 3
__ehhandler$?CutString@CTreeDropList@@IAEPADPAD0@Z:
  00029	90		 npad	 1
  0002a	90		 npad	 1
  0002b	8b 54 24 08	 mov	 edx, DWORD PTR [esp+8]
  0002f	8d 42 0c	 lea	 eax, DWORD PTR [edx+12]
  00032	8b 4a ec	 mov	 ecx, DWORD PTR [edx-20]
  00035	33 c8		 xor	 ecx, eax
  00037	e8 00 00 00 00	 call	 @__security_check_cookie@4
  0003c	b8 00 00 00 00	 mov	 eax, OFFSET __ehfuncinfo$?CutString@CTreeDropList@@IAEPADPAD0@Z
  00041	e9 00 00 00 00	 jmp	 ___CxxFrameHandler3
text$x	ENDS
?CutString@CTreeDropList@@IAEPADPAD0@Z ENDP		; CTreeDropList::CutString
; Function compile flags: /Ogtp
; File D:\git\src\IBK\IBK_DRFN\ProjSrc\SrcChartEx\ChartAddIn\ChartDesignPropertyAddIn\ChartDesignPropertyAddIn\TreeDropList.cpp
; File C:\Program Files (x86)\Microsoft Visual Studio\2019\Community\VC\Tools\MSVC\14.29.30133\atlmfc\include\afxcmn.inl
; File D:\git\src\IBK\IBK_DRFN\ProjSrc\SrcChartEx\ChartAddIn\ChartDesignPropertyAddIn\ChartDesignPropertyAddIn\TreeDropList.cpp
; File C:\Program Files (x86)\Microsoft Visual Studio\2019\Community\VC\Tools\MSVC\14.29.30133\atlmfc\include\afxcmn.inl
; File D:\git\src\IBK\IBK_DRFN\ProjSrc\SrcChartEx\ChartAddIn\ChartDesignPropertyAddIn\ChartDesignPropertyAddIn\TreeDropList.cpp
;	COMDAT ?GetCurrentTreePath@CTreeDropList@@IAE?AV?$CStringT@DV?$StrTraitMFC_DLL@DV?$ChTraitsCRT@D@ATL@@@@@ATL@@XZ
_TEXT	SEGMENT
___$ReturnUdt$ = 8					; size = 4
?GetCurrentTreePath@CTreeDropList@@IAE?AV?$CStringT@DV?$StrTraitMFC_DLL@DV?$ChTraitsCRT@D@ATL@@@@@ATL@@XZ PROC ; CTreeDropList::GetCurrentTreePath, COMDAT
; _this$ = ecx

; 431  : {

  00000	55		 push	 ebp
  00001	8b ec		 mov	 ebp, esp
  00003	57		 push	 edi
; File C:\Program Files (x86)\Microsoft Visual Studio\2019\Community\VC\Tools\MSVC\14.29.30133\atlmfc\include\afxcmn.inl

; 316  : 	{ ASSERT(::IsWindow(m_hWnd)); return (HTREEITEM)::SendMessage(m_hWnd, TVM_GETNEXTITEM, TVGN_CARET, 0); }

  00004	6a 00		 push	 0
; File D:\git\src\IBK\IBK_DRFN\ProjSrc\SrcChartEx\ChartAddIn\ChartDesignPropertyAddIn\ChartDesignPropertyAddIn\TreeDropList.cpp

; 431  : {

  00006	8b f9		 mov	 edi, ecx
; File C:\Program Files (x86)\Microsoft Visual Studio\2019\Community\VC\Tools\MSVC\14.29.30133\atlmfc\include\afxcmn.inl

; 316  : 	{ ASSERT(::IsWindow(m_hWnd)); return (HTREEITEM)::SendMessage(m_hWnd, TVM_GETNEXTITEM, TVGN_CARET, 0); }

  00008	6a 09		 push	 9
  0000a	68 0a 11 00 00	 push	 4362			; 0000110aH
  0000f	ff 77 20	 push	 DWORD PTR [edi+32]
  00012	ff 15 00 00 00
	00		 call	 DWORD PTR __imp__SendMessageA@16
; File D:\git\src\IBK\IBK_DRFN\ProjSrc\SrcChartEx\ChartAddIn\ChartDesignPropertyAddIn\ChartDesignPropertyAddIn\TreeDropList.cpp

; 434  : 	return GetTreePath (hItem);

  00018	50		 push	 eax
  00019	ff 75 08	 push	 DWORD PTR ___$ReturnUdt$[ebp]
  0001c	8b cf		 mov	 ecx, edi
  0001e	e8 00 00 00 00	 call	 ?GetTreePath@CTreeDropList@@IAE?AV?$CStringT@DV?$StrTraitMFC_DLL@DV?$ChTraitsCRT@D@ATL@@@@@ATL@@PAU_TREEITEM@@@Z ; CTreeDropList::GetTreePath
  00023	8b 45 08	 mov	 eax, DWORD PTR ___$ReturnUdt$[ebp]
  00026	5f		 pop	 edi

; 435  : }

  00027	5d		 pop	 ebp
  00028	c2 04 00	 ret	 4
?GetCurrentTreePath@CTreeDropList@@IAE?AV?$CStringT@DV?$StrTraitMFC_DLL@DV?$ChTraitsCRT@D@ATL@@@@@ATL@@XZ ENDP ; CTreeDropList::GetCurrentTreePath
_TEXT	ENDS
; Function compile flags: /Ogtp
; File D:\git\src\IBK\IBK_DRFN\ProjSrc\SrcChartEx\ChartAddIn\ChartDesignPropertyAddIn\ChartDesignPropertyAddIn\TreeDropList.cpp
; File C:\Program Files (x86)\Microsoft Visual Studio\2019\Community\VC\Tools\MSVC\14.29.30133\atlmfc\include\afxcmn.inl
; File D:\git\src\IBK\IBK_DRFN\ProjSrc\SrcChartEx\ChartAddIn\ChartDesignPropertyAddIn\ChartDesignPropertyAddIn\TreeDropList.cpp
; File C:\Program Files (x86)\Microsoft Visual Studio\2019\Community\VC\Tools\MSVC\14.29.30133\atlmfc\include\cstringt.h
; File D:\git\src\IBK\IBK_DRFN\ProjSrc\SrcChartEx\ChartAddIn\ChartDesignPropertyAddIn\ChartDesignPropertyAddIn\TreeDropList.cpp
; File C:\Program Files (x86)\Microsoft Visual Studio\2019\Community\VC\Tools\MSVC\14.29.30133\atlmfc\include\cstringt.h
; File C:\Program Files (x86)\Microsoft Visual Studio\2019\Community\VC\Tools\MSVC\14.29.30133\atlmfc\include\atlsimpstr.h
; File C:\Program Files (x86)\Microsoft Visual Studio\2019\Community\VC\Tools\MSVC\14.29.30133\atlmfc\include\cstringt.h
; File D:\git\src\IBK\IBK_DRFN\ProjSrc\SrcChartEx\ChartAddIn\ChartDesignPropertyAddIn\ChartDesignPropertyAddIn\TreeDropList.cpp
;	COMDAT ?GetTreePath@CTreeDropList@@IAE?AV?$CStringT@DV?$StrTraitMFC_DLL@DV?$ChTraitsCRT@D@ATL@@@@@ATL@@PAU_TREEITEM@@@Z
_TEXT	SEGMENT
$T2 = -20						; size = 4
_ItemText$ = -16					; size = 4
__$EHRec$ = -12						; size = 12
___$ReturnUdt$ = 8					; size = 4
$T3 = 12						; size = 4
$T4 = 12						; size = 4
$T5 = 12						; size = 4
$T6 = 12						; size = 4
$T7 = 12						; size = 4
$T8 = 12						; size = 4
$T9 = 12						; size = 4
$T10 = 12						; size = 4
$T11 = 12						; size = 4
$T12 = 12						; size = 4
_hItem$ = 12						; size = 4
?GetTreePath@CTreeDropList@@IAE?AV?$CStringT@DV?$StrTraitMFC_DLL@DV?$ChTraitsCRT@D@ATL@@@@@ATL@@PAU_TREEITEM@@@Z PROC ; CTreeDropList::GetTreePath, COMDAT
; _this$ = ecx

; 371  : {

  00000	55		 push	 ebp
  00001	8b ec		 mov	 ebp, esp
  00003	6a ff		 push	 -1
  00005	68 00 00 00 00	 push	 __ehhandler$?GetTreePath@CTreeDropList@@IAE?AV?$CStringT@DV?$StrTraitMFC_DLL@DV?$ChTraitsCRT@D@ATL@@@@@ATL@@PAU_TREEITEM@@@Z
  0000a	64 a1 00 00 00
	00		 mov	 eax, DWORD PTR fs:0
  00010	50		 push	 eax
  00011	83 ec 08	 sub	 esp, 8
  00014	53		 push	 ebx
  00015	56		 push	 esi
  00016	57		 push	 edi
  00017	a1 00 00 00 00	 mov	 eax, DWORD PTR ___security_cookie
  0001c	33 c5		 xor	 eax, ebp
  0001e	50		 push	 eax
  0001f	8d 45 f4	 lea	 eax, DWORD PTR __$EHRec$[ebp]
  00022	64 a3 00 00 00
	00		 mov	 DWORD PTR fs:0, eax
  00028	8b d9		 mov	 ebx, ecx

; 372  : 	CString ItemText;

  0002a	8d 4d f0	 lea	 ecx, DWORD PTR _ItemText$[ebp]
  0002d	c7 45 ec 00 00
	00 00		 mov	 DWORD PTR $T2[ebp], 0
  00034	ff 15 00 00 00
	00		 call	 DWORD PTR __imp_??0?$CStringT@DV?$StrTraitMFC_DLL@DV?$ChTraitsCRT@D@ATL@@@@@ATL@@QAE@XZ

; 373  : 	CString PathText;

  0003a	8b 75 08	 mov	 esi, DWORD PTR ___$ReturnUdt$[ebp]
  0003d	8b ce		 mov	 ecx, esi
  0003f	c7 45 fc 01 00
	00 00		 mov	 DWORD PTR __$EHRec$[ebp+8], 1
  00046	ff 15 00 00 00
	00		 call	 DWORD PTR __imp_??0?$CStringT@DV?$StrTraitMFC_DLL@DV?$ChTraitsCRT@D@ATL@@@@@ATL@@QAE@XZ

; 421  : 
; 422  : 		}
; 423  : 
; 424  : 	}
; 425  : 	
; 426  : 
; 427  : 	return PathText;

  0004c	8b 7d 0c	 mov	 edi, DWORD PTR _hItem$[ebp]
  0004f	c7 45 ec 01 00
	00 00		 mov	 DWORD PTR $T2[ebp], 1
  00056	85 ff		 test	 edi, edi
  00058	0f 84 a3 02 00
	00		 je	 $LN4@GetTreePat
; File C:\Program Files (x86)\Microsoft Visual Studio\2019\Community\VC\Tools\MSVC\14.29.30133\atlmfc\include\afxcmn.inl

; 306  : 	{ ASSERT(::IsWindow(m_hWnd)); return (HTREEITEM)::SendMessage(m_hWnd, TVM_GETNEXTITEM, TVGN_PARENT, (LPARAM)hItem); }

  0005e	57		 push	 edi
  0005f	6a 03		 push	 3
  00061	68 0a 11 00 00	 push	 4362			; 0000110aH
  00066	ff 73 20	 push	 DWORD PTR [ebx+32]
  00069	ff 15 00 00 00
	00		 call	 DWORD PTR __imp__SendMessageA@16
; File D:\git\src\IBK\IBK_DRFN\ProjSrc\SrcChartEx\ChartAddIn\ChartDesignPropertyAddIn\ChartDesignPropertyAddIn\TreeDropList.cpp

; 379  : 		if(hParent == NULL)

  0006f	8b cb		 mov	 ecx, ebx
  00071	85 c0		 test	 eax, eax
  00073	0f 85 c5 00 00
	00		 jne	 $LN3@GetTreePat

; 380  : 		{
; 381  : 			TRACE("Root\n");
; 382  : 			ItemText = GetItemText(hItem);

  00079	57		 push	 edi
  0007a	8d 45 0c	 lea	 eax, DWORD PTR $T12[ebp]
  0007d	50		 push	 eax
  0007e	e8 00 00 00 00	 call	 ?GetItemText@CTreeCtrl@@QBE?AV?$CStringT@DV?$StrTraitMFC_DLL@DV?$ChTraitsCRT@D@ATL@@@@@ATL@@PAU_TREEITEM@@@Z ; CTreeCtrl::GetItemText
  00083	50		 push	 eax
  00084	8d 4d f0	 lea	 ecx, DWORD PTR _ItemText$[ebp]
  00087	c6 45 fc 02	 mov	 BYTE PTR __$EHRec$[ebp+8], 2
  0008b	ff 15 00 00 00
	00		 call	 DWORD PTR __imp_??4?$CStringT@DV?$StrTraitMFC_DLL@DV?$ChTraitsCRT@D@ATL@@@@@ATL@@QAEAAV01@ABV01@@Z
  00091	8d 4d 0c	 lea	 ecx, DWORD PTR $T12[ebp]
  00094	c6 45 fc 01	 mov	 BYTE PTR __$EHRec$[ebp+8], 1
  00098	ff 15 00 00 00
	00		 call	 DWORD PTR __imp_??1?$CStringT@DV?$StrTraitMFC_DLL@DV?$ChTraitsCRT@D@ATL@@@@@ATL@@QAE@XZ

; 383  : 
; 384  : 			int index = ItemText.Find('[');

  0009e	6a 00		 push	 0
  000a0	6a 5b		 push	 91			; 0000005bH
  000a2	8d 4d f0	 lea	 ecx, DWORD PTR _ItemText$[ebp]
  000a5	ff 15 00 00 00
	00		 call	 DWORD PTR __imp_?Find@?$CStringT@DV?$StrTraitMFC_DLL@DV?$ChTraitsCRT@D@ATL@@@@@ATL@@QBEHDH@Z

; 385  : 			if(index != -1) ItemText = ItemText.Mid(index +1);

  000ab	83 f8 ff	 cmp	 eax, -1
  000ae	74 2a		 je	 SHORT $LN5@GetTreePat
  000b0	40		 inc	 eax
  000b1	8d 4d f0	 lea	 ecx, DWORD PTR _ItemText$[ebp]
  000b4	50		 push	 eax
  000b5	8d 45 0c	 lea	 eax, DWORD PTR $T11[ebp]
  000b8	50		 push	 eax
  000b9	ff 15 00 00 00
	00		 call	 DWORD PTR __imp_?Mid@?$CStringT@DV?$StrTraitMFC_DLL@DV?$ChTraitsCRT@D@ATL@@@@@ATL@@QBE?AV12@H@Z
  000bf	50		 push	 eax
  000c0	8d 4d f0	 lea	 ecx, DWORD PTR _ItemText$[ebp]
  000c3	c6 45 fc 03	 mov	 BYTE PTR __$EHRec$[ebp+8], 3
  000c7	ff 15 00 00 00
	00		 call	 DWORD PTR __imp_??4?$CStringT@DV?$StrTraitMFC_DLL@DV?$ChTraitsCRT@D@ATL@@@@@ATL@@QAEAAV01@ABV01@@Z
  000cd	8d 4d 0c	 lea	 ecx, DWORD PTR $T11[ebp]
  000d0	c6 45 fc 01	 mov	 BYTE PTR __$EHRec$[ebp+8], 1
  000d4	ff 15 00 00 00
	00		 call	 DWORD PTR __imp_??1?$CStringT@DV?$StrTraitMFC_DLL@DV?$ChTraitsCRT@D@ATL@@@@@ATL@@QAE@XZ
$LN5@GetTreePat:

; 386  : 			index = ItemText.Find(']');

  000da	6a 00		 push	 0
  000dc	6a 5d		 push	 93			; 0000005dH
  000de	8d 4d f0	 lea	 ecx, DWORD PTR _ItemText$[ebp]
  000e1	ff 15 00 00 00
	00		 call	 DWORD PTR __imp_?Find@?$CStringT@DV?$StrTraitMFC_DLL@DV?$ChTraitsCRT@D@ATL@@@@@ATL@@QBEHDH@Z

; 387  : 			if(index != -1) ItemText = ItemText.Left(index);

  000e7	83 f8 ff	 cmp	 eax, -1
  000ea	74 29		 je	 SHORT $LN6@GetTreePat
  000ec	50		 push	 eax
  000ed	8d 45 0c	 lea	 eax, DWORD PTR $T10[ebp]
  000f0	50		 push	 eax
  000f1	8d 4d f0	 lea	 ecx, DWORD PTR _ItemText$[ebp]
  000f4	ff 15 00 00 00
	00		 call	 DWORD PTR __imp_?Left@?$CStringT@DV?$StrTraitMFC_DLL@DV?$ChTraitsCRT@D@ATL@@@@@ATL@@QBE?AV12@H@Z
  000fa	50		 push	 eax
  000fb	8d 4d f0	 lea	 ecx, DWORD PTR _ItemText$[ebp]
  000fe	c6 45 fc 04	 mov	 BYTE PTR __$EHRec$[ebp+8], 4
  00102	ff 15 00 00 00
	00		 call	 DWORD PTR __imp_??4?$CStringT@DV?$StrTraitMFC_DLL@DV?$ChTraitsCRT@D@ATL@@@@@ATL@@QAEAAV01@ABV01@@Z
  00108	8d 4d 0c	 lea	 ecx, DWORD PTR $T10[ebp]
  0010b	c6 45 fc 01	 mov	 BYTE PTR __$EHRec$[ebp+8], 1
  0010f	ff 15 00 00 00
	00		 call	 DWORD PTR __imp_??1?$CStringT@DV?$StrTraitMFC_DLL@DV?$ChTraitsCRT@D@ATL@@@@@ATL@@QAE@XZ
$LN6@GetTreePat:

; 388  : 
; 389  : 			ItemText.TrimLeft();

  00115	8d 4d f0	 lea	 ecx, DWORD PTR _ItemText$[ebp]
  00118	ff 15 00 00 00
	00		 call	 DWORD PTR __imp_?TrimLeft@?$CStringT@DV?$StrTraitMFC_DLL@DV?$ChTraitsCRT@D@ATL@@@@@ATL@@QAEAAV12@XZ

; 390  : 			ItemText.TrimRight();

  0011e	8d 4d f0	 lea	 ecx, DWORD PTR _ItemText$[ebp]
  00121	ff 15 00 00 00
	00		 call	 DWORD PTR __imp_?TrimRight@?$CStringT@DV?$StrTraitMFC_DLL@DV?$ChTraitsCRT@D@ATL@@@@@ATL@@QAEAAV12@XZ

; 391  : 
; 392  : 			PathText.Format("%s.*",ItemText);

  00127	ff 75 f0	 push	 DWORD PTR _ItemText$[ebp]
  0012a	68 00 00 00 00	 push	 OFFSET ??_C@_04BEMOAACG@?$CFs?4?$CK@
  0012f	56		 push	 esi
  00130	ff 15 00 00 00
	00		 call	 DWORD PTR __imp_?Format@?$CStringT@DV?$StrTraitMFC_DLL@DV?$ChTraitsCRT@D@ATL@@@@@ATL@@QAAXPBDZZ
  00136	83 c4 0c	 add	 esp, 12			; 0000000cH

; 393  : 		}

  00139	e9 c3 01 00 00	 jmp	 $LN4@GetTreePat
$LN3@GetTreePat:

; 394  : 		else// if(hItem->iImage == 1)
; 395  : 		{
; 396  : 			TRACE("Child\n");
; 397  : 			ItemText = GetItemText(hParent);

  0013e	50		 push	 eax
  0013f	8d 45 0c	 lea	 eax, DWORD PTR $T9[ebp]
  00142	50		 push	 eax
  00143	e8 00 00 00 00	 call	 ?GetItemText@CTreeCtrl@@QBE?AV?$CStringT@DV?$StrTraitMFC_DLL@DV?$ChTraitsCRT@D@ATL@@@@@ATL@@PAU_TREEITEM@@@Z ; CTreeCtrl::GetItemText
  00148	50		 push	 eax
  00149	8d 4d f0	 lea	 ecx, DWORD PTR _ItemText$[ebp]
  0014c	c6 45 fc 05	 mov	 BYTE PTR __$EHRec$[ebp+8], 5
  00150	ff 15 00 00 00
	00		 call	 DWORD PTR __imp_??4?$CStringT@DV?$StrTraitMFC_DLL@DV?$ChTraitsCRT@D@ATL@@@@@ATL@@QAEAAV01@ABV01@@Z
  00156	8d 4d 0c	 lea	 ecx, DWORD PTR $T9[ebp]
  00159	c6 45 fc 01	 mov	 BYTE PTR __$EHRec$[ebp+8], 1
  0015d	ff 15 00 00 00
	00		 call	 DWORD PTR __imp_??1?$CStringT@DV?$StrTraitMFC_DLL@DV?$ChTraitsCRT@D@ATL@@@@@ATL@@QAE@XZ

; 398  : 
; 399  : 			int index = ItemText.Find('[');

  00163	6a 00		 push	 0
  00165	6a 5b		 push	 91			; 0000005bH
  00167	8d 4d f0	 lea	 ecx, DWORD PTR _ItemText$[ebp]
  0016a	ff 15 00 00 00
	00		 call	 DWORD PTR __imp_?Find@?$CStringT@DV?$StrTraitMFC_DLL@DV?$ChTraitsCRT@D@ATL@@@@@ATL@@QBEHDH@Z

; 400  : 			if(index != -1) ItemText = ItemText.Mid(index +1);

  00170	83 f8 ff	 cmp	 eax, -1
  00173	74 2a		 je	 SHORT $LN7@GetTreePat
  00175	40		 inc	 eax
  00176	8d 4d f0	 lea	 ecx, DWORD PTR _ItemText$[ebp]
  00179	50		 push	 eax
  0017a	8d 45 0c	 lea	 eax, DWORD PTR $T8[ebp]
  0017d	50		 push	 eax
  0017e	ff 15 00 00 00
	00		 call	 DWORD PTR __imp_?Mid@?$CStringT@DV?$StrTraitMFC_DLL@DV?$ChTraitsCRT@D@ATL@@@@@ATL@@QBE?AV12@H@Z
  00184	50		 push	 eax
  00185	8d 4d f0	 lea	 ecx, DWORD PTR _ItemText$[ebp]
  00188	c6 45 fc 06	 mov	 BYTE PTR __$EHRec$[ebp+8], 6
  0018c	ff 15 00 00 00
	00		 call	 DWORD PTR __imp_??4?$CStringT@DV?$StrTraitMFC_DLL@DV?$ChTraitsCRT@D@ATL@@@@@ATL@@QAEAAV01@ABV01@@Z
  00192	8d 4d 0c	 lea	 ecx, DWORD PTR $T8[ebp]
  00195	c6 45 fc 01	 mov	 BYTE PTR __$EHRec$[ebp+8], 1
  00199	ff 15 00 00 00
	00		 call	 DWORD PTR __imp_??1?$CStringT@DV?$StrTraitMFC_DLL@DV?$ChTraitsCRT@D@ATL@@@@@ATL@@QAE@XZ
$LN7@GetTreePat:

; 401  : 			index = ItemText.Find(']');

  0019f	6a 00		 push	 0
  001a1	6a 5d		 push	 93			; 0000005dH
  001a3	8d 4d f0	 lea	 ecx, DWORD PTR _ItemText$[ebp]
  001a6	ff 15 00 00 00
	00		 call	 DWORD PTR __imp_?Find@?$CStringT@DV?$StrTraitMFC_DLL@DV?$ChTraitsCRT@D@ATL@@@@@ATL@@QBEHDH@Z

; 402  : 			if(index != -1) ItemText = ItemText.Left(index);

  001ac	83 f8 ff	 cmp	 eax, -1
  001af	74 29		 je	 SHORT $LN8@GetTreePat
  001b1	50		 push	 eax
  001b2	8d 45 0c	 lea	 eax, DWORD PTR $T7[ebp]
  001b5	50		 push	 eax
  001b6	8d 4d f0	 lea	 ecx, DWORD PTR _ItemText$[ebp]
  001b9	ff 15 00 00 00
	00		 call	 DWORD PTR __imp_?Left@?$CStringT@DV?$StrTraitMFC_DLL@DV?$ChTraitsCRT@D@ATL@@@@@ATL@@QBE?AV12@H@Z
  001bf	50		 push	 eax
  001c0	8d 4d f0	 lea	 ecx, DWORD PTR _ItemText$[ebp]
  001c3	c6 45 fc 07	 mov	 BYTE PTR __$EHRec$[ebp+8], 7
  001c7	ff 15 00 00 00
	00		 call	 DWORD PTR __imp_??4?$CStringT@DV?$StrTraitMFC_DLL@DV?$ChTraitsCRT@D@ATL@@@@@ATL@@QAEAAV01@ABV01@@Z
  001cd	8d 4d 0c	 lea	 ecx, DWORD PTR $T7[ebp]
  001d0	c6 45 fc 01	 mov	 BYTE PTR __$EHRec$[ebp+8], 1
  001d4	ff 15 00 00 00
	00		 call	 DWORD PTR __imp_??1?$CStringT@DV?$StrTraitMFC_DLL@DV?$ChTraitsCRT@D@ATL@@@@@ATL@@QAE@XZ
$LN8@GetTreePat:

; 403  : 
; 404  : 			ItemText.TrimLeft();

  001da	8d 4d f0	 lea	 ecx, DWORD PTR _ItemText$[ebp]
  001dd	ff 15 00 00 00
	00		 call	 DWORD PTR __imp_?TrimLeft@?$CStringT@DV?$StrTraitMFC_DLL@DV?$ChTraitsCRT@D@ATL@@@@@ATL@@QAEAAV12@XZ

; 405  : 			ItemText.TrimRight();

  001e3	8d 4d f0	 lea	 ecx, DWORD PTR _ItemText$[ebp]
  001e6	ff 15 00 00 00
	00		 call	 DWORD PTR __imp_?TrimRight@?$CStringT@DV?$StrTraitMFC_DLL@DV?$ChTraitsCRT@D@ATL@@@@@ATL@@QAEAAV12@XZ
; File C:\Program Files (x86)\Microsoft Visual Studio\2019\Community\VC\Tools\MSVC\14.29.30133\atlmfc\include\cstringt.h

; 2401 : 		CStringT strResult( str1.GetManager() );

  001ec	8d 4d f0	 lea	 ecx, DWORD PTR _ItemText$[ebp]
; File D:\git\src\IBK\IBK_DRFN\ProjSrc\SrcChartEx\ChartAddIn\ChartDesignPropertyAddIn\ChartDesignPropertyAddIn\TreeDropList.cpp

; 407  : 			PathText = ItemText+_T(".");

  001ef	c6 45 fc 08	 mov	 BYTE PTR __$EHRec$[ebp+8], 8
; File C:\Program Files (x86)\Microsoft Visual Studio\2019\Community\VC\Tools\MSVC\14.29.30133\atlmfc\include\cstringt.h

; 2401 : 		CStringT strResult( str1.GetManager() );

  001f3	ff 15 00 00 00
	00		 call	 DWORD PTR __imp_?GetManager@?$CStringT@DV?$StrTraitMFC_DLL@DV?$ChTraitsCRT@D@ATL@@@@@ATL@@QBEPAUIAtlStringMgr@2@XZ
  001f9	50		 push	 eax
  001fa	8d 4d 0c	 lea	 ecx, DWORD PTR $T6[ebp]
  001fd	ff 15 00 00 00
	00		 call	 DWORD PTR __imp_??0?$CStringT@DV?$StrTraitMFC_DLL@DV?$ChTraitsCRT@D@ATL@@@@@ATL@@QAE@PAUIAtlStringMgr@1@@Z
; File C:\Program Files (x86)\Microsoft Visual Studio\2019\Community\VC\Tools\MSVC\14.29.30133\atlmfc\include\atlsimpstr.h

; 519  : 		return( GetData()->nDataLength );

  00203	8b 45 f0	 mov	 eax, DWORD PTR _ItemText$[ebp]
; File C:\Program Files (x86)\Microsoft Visual Studio\2019\Community\VC\Tools\MSVC\14.29.30133\atlmfc\include\cstringt.h

; 2403 : 		CThisSimpleString::Concatenate( strResult, str1, str1.GetLength(), psz2, CThisSimpleString::StringLength( psz2 ) );

  00206	6a 01		 push	 1
  00208	68 00 00 00 00	 push	 OFFSET ??_C@_01LFCBOECM@?4@

; 2404 : 
; 2405 : 		return( strResult );

  0020d	c7 45 ec 03 00
	00 00		 mov	 DWORD PTR $T2[ebp], 3
  00214	ff 70 f4	 push	 DWORD PTR [eax-12]
  00217	50		 push	 eax
  00218	8d 45 0c	 lea	 eax, DWORD PTR $T6[ebp]
  0021b	50		 push	 eax
  0021c	ff 15 00 00 00
	00		 call	 DWORD PTR __imp_?Concatenate@?$CSimpleStringT@D$00@ATL@@KAXAAV12@PBDH1H@Z
  00222	83 c4 14	 add	 esp, 20			; 00000014H
; File D:\git\src\IBK\IBK_DRFN\ProjSrc\SrcChartEx\ChartAddIn\ChartDesignPropertyAddIn\ChartDesignPropertyAddIn\TreeDropList.cpp

; 407  : 			PathText = ItemText+_T(".");

  00225	8d 45 0c	 lea	 eax, DWORD PTR $T6[ebp]
  00228	8b ce		 mov	 ecx, esi
  0022a	50		 push	 eax
  0022b	ff 15 00 00 00
	00		 call	 DWORD PTR __imp_??4?$CStringT@DV?$StrTraitMFC_DLL@DV?$ChTraitsCRT@D@ATL@@@@@ATL@@QAEAAV01@ABV01@@Z
  00231	8d 4d 0c	 lea	 ecx, DWORD PTR $T6[ebp]
  00234	c7 45 ec 01 00
	00 00		 mov	 DWORD PTR $T2[ebp], 1
  0023b	c6 45 fc 01	 mov	 BYTE PTR __$EHRec$[ebp+8], 1
  0023f	ff 15 00 00 00
	00		 call	 DWORD PTR __imp_??1?$CStringT@DV?$StrTraitMFC_DLL@DV?$ChTraitsCRT@D@ATL@@@@@ATL@@QAE@XZ

; 408  : 
; 409  : 
; 410  : 			ItemText = GetItemText(hItem);

  00245	57		 push	 edi
  00246	8d 45 0c	 lea	 eax, DWORD PTR $T5[ebp]
  00249	8b cb		 mov	 ecx, ebx
  0024b	50		 push	 eax
  0024c	e8 00 00 00 00	 call	 ?GetItemText@CTreeCtrl@@QBE?AV?$CStringT@DV?$StrTraitMFC_DLL@DV?$ChTraitsCRT@D@ATL@@@@@ATL@@PAU_TREEITEM@@@Z ; CTreeCtrl::GetItemText
  00251	50		 push	 eax
  00252	8d 4d f0	 lea	 ecx, DWORD PTR _ItemText$[ebp]
  00255	c6 45 fc 09	 mov	 BYTE PTR __$EHRec$[ebp+8], 9
  00259	ff 15 00 00 00
	00		 call	 DWORD PTR __imp_??4?$CStringT@DV?$StrTraitMFC_DLL@DV?$ChTraitsCRT@D@ATL@@@@@ATL@@QAEAAV01@ABV01@@Z
  0025f	8d 4d 0c	 lea	 ecx, DWORD PTR $T5[ebp]
  00262	c6 45 fc 01	 mov	 BYTE PTR __$EHRec$[ebp+8], 1
  00266	ff 15 00 00 00
	00		 call	 DWORD PTR __imp_??1?$CStringT@DV?$StrTraitMFC_DLL@DV?$ChTraitsCRT@D@ATL@@@@@ATL@@QAE@XZ

; 411  : 
; 412  : 			index = ItemText.Find(',');

  0026c	6a 00		 push	 0
  0026e	6a 2c		 push	 44			; 0000002cH
  00270	8d 4d f0	 lea	 ecx, DWORD PTR _ItemText$[ebp]
  00273	ff 15 00 00 00
	00		 call	 DWORD PTR __imp_?Find@?$CStringT@DV?$StrTraitMFC_DLL@DV?$ChTraitsCRT@D@ATL@@@@@ATL@@QBEHDH@Z

; 413  : 			if(index != -1) ItemText = ItemText.Mid(index +1);

  00279	83 f8 ff	 cmp	 eax, -1
  0027c	74 2a		 je	 SHORT $LN9@GetTreePat
  0027e	40		 inc	 eax
  0027f	8d 4d f0	 lea	 ecx, DWORD PTR _ItemText$[ebp]
  00282	50		 push	 eax
  00283	8d 45 0c	 lea	 eax, DWORD PTR $T4[ebp]
  00286	50		 push	 eax
  00287	ff 15 00 00 00
	00		 call	 DWORD PTR __imp_?Mid@?$CStringT@DV?$StrTraitMFC_DLL@DV?$ChTraitsCRT@D@ATL@@@@@ATL@@QBE?AV12@H@Z
  0028d	50		 push	 eax
  0028e	8d 4d f0	 lea	 ecx, DWORD PTR _ItemText$[ebp]
  00291	c6 45 fc 0a	 mov	 BYTE PTR __$EHRec$[ebp+8], 10 ; 0000000aH
  00295	ff 15 00 00 00
	00		 call	 DWORD PTR __imp_??4?$CStringT@DV?$StrTraitMFC_DLL@DV?$ChTraitsCRT@D@ATL@@@@@ATL@@QAEAAV01@ABV01@@Z
  0029b	8d 4d 0c	 lea	 ecx, DWORD PTR $T4[ebp]
  0029e	c6 45 fc 01	 mov	 BYTE PTR __$EHRec$[ebp+8], 1
  002a2	ff 15 00 00 00
	00		 call	 DWORD PTR __imp_??1?$CStringT@DV?$StrTraitMFC_DLL@DV?$ChTraitsCRT@D@ATL@@@@@ATL@@QAE@XZ
$LN9@GetTreePat:

; 414  : 			index = ItemText.Find(',');

  002a8	6a 00		 push	 0
  002aa	6a 2c		 push	 44			; 0000002cH
  002ac	8d 4d f0	 lea	 ecx, DWORD PTR _ItemText$[ebp]
  002af	ff 15 00 00 00
	00		 call	 DWORD PTR __imp_?Find@?$CStringT@DV?$StrTraitMFC_DLL@DV?$ChTraitsCRT@D@ATL@@@@@ATL@@QBEHDH@Z

; 415  : 			if(index != -1) ItemText = ItemText.Left(index);

  002b5	83 f8 ff	 cmp	 eax, -1
  002b8	74 29		 je	 SHORT $LN10@GetTreePat
  002ba	50		 push	 eax
  002bb	8d 45 0c	 lea	 eax, DWORD PTR $T3[ebp]
  002be	50		 push	 eax
  002bf	8d 4d f0	 lea	 ecx, DWORD PTR _ItemText$[ebp]
  002c2	ff 15 00 00 00
	00		 call	 DWORD PTR __imp_?Left@?$CStringT@DV?$StrTraitMFC_DLL@DV?$ChTraitsCRT@D@ATL@@@@@ATL@@QBE?AV12@H@Z
  002c8	50		 push	 eax
  002c9	8d 4d f0	 lea	 ecx, DWORD PTR _ItemText$[ebp]
  002cc	c6 45 fc 0b	 mov	 BYTE PTR __$EHRec$[ebp+8], 11 ; 0000000bH
  002d0	ff 15 00 00 00
	00		 call	 DWORD PTR __imp_??4?$CStringT@DV?$StrTraitMFC_DLL@DV?$ChTraitsCRT@D@ATL@@@@@ATL@@QAEAAV01@ABV01@@Z
  002d6	8d 4d 0c	 lea	 ecx, DWORD PTR $T3[ebp]
  002d9	c6 45 fc 01	 mov	 BYTE PTR __$EHRec$[ebp+8], 1
  002dd	ff 15 00 00 00
	00		 call	 DWORD PTR __imp_??1?$CStringT@DV?$StrTraitMFC_DLL@DV?$ChTraitsCRT@D@ATL@@@@@ATL@@QAE@XZ
$LN10@GetTreePat:

; 416  : 
; 417  : 			ItemText.TrimLeft();

  002e3	8d 4d f0	 lea	 ecx, DWORD PTR _ItemText$[ebp]
  002e6	ff 15 00 00 00
	00		 call	 DWORD PTR __imp_?TrimLeft@?$CStringT@DV?$StrTraitMFC_DLL@DV?$ChTraitsCRT@D@ATL@@@@@ATL@@QAEAAV12@XZ

; 418  : 			ItemText.TrimRight();

  002ec	8d 4d f0	 lea	 ecx, DWORD PTR _ItemText$[ebp]
  002ef	ff 15 00 00 00
	00		 call	 DWORD PTR __imp_?TrimRight@?$CStringT@DV?$StrTraitMFC_DLL@DV?$ChTraitsCRT@D@ATL@@@@@ATL@@QAEAAV12@XZ

; 419  : 
; 420  : 			PathText += ItemText;

  002f5	8d 45 f0	 lea	 eax, DWORD PTR _ItemText$[ebp]
  002f8	8b ce		 mov	 ecx, esi
  002fa	50		 push	 eax
  002fb	ff 15 00 00 00
	00		 call	 DWORD PTR __imp_??Y?$CStringT@DV?$StrTraitMFC_DLL@DV?$ChTraitsCRT@D@ATL@@@@@ATL@@QAEAAV01@ABV?$CSimpleStringT@D$00@1@@Z
$LN4@GetTreePat:

; 421  : 
; 422  : 		}
; 423  : 
; 424  : 	}
; 425  : 	
; 426  : 
; 427  : 	return PathText;

  00301	8d 4d f0	 lea	 ecx, DWORD PTR _ItemText$[ebp]
  00304	ff 15 00 00 00
	00		 call	 DWORD PTR __imp_??1?$CStringT@DV?$StrTraitMFC_DLL@DV?$ChTraitsCRT@D@ATL@@@@@ATL@@QAE@XZ
  0030a	8b c6		 mov	 eax, esi

; 428  : }

  0030c	8b 4d f4	 mov	 ecx, DWORD PTR __$EHRec$[ebp]
  0030f	64 89 0d 00 00
	00 00		 mov	 DWORD PTR fs:0, ecx
  00316	59		 pop	 ecx
  00317	5f		 pop	 edi
  00318	5e		 pop	 esi
  00319	5b		 pop	 ebx
  0031a	8b e5		 mov	 esp, ebp
  0031c	5d		 pop	 ebp
  0031d	c2 08 00	 ret	 8
_TEXT	ENDS
;	COMDAT text$x
text$x	SEGMENT
__unwindfunclet$?GetTreePath@CTreeDropList@@IAE?AV?$CStringT@DV?$StrTraitMFC_DLL@DV?$ChTraitsCRT@D@ATL@@@@@ATL@@PAU_TREEITEM@@@Z$0:
  00000	8d 4d f0	 lea	 ecx, DWORD PTR _ItemText$[ebp]
  00003	ff 25 00 00 00
	00		 jmp	 DWORD PTR __imp_??1?$CStringT@DV?$StrTraitMFC_DLL@DV?$ChTraitsCRT@D@ATL@@@@@ATL@@QAE@XZ
__unwindfunclet$?GetTreePath@CTreeDropList@@IAE?AV?$CStringT@DV?$StrTraitMFC_DLL@DV?$ChTraitsCRT@D@ATL@@@@@ATL@@PAU_TREEITEM@@@Z$1:
  00009	8b 45 ec	 mov	 eax, DWORD PTR $T2[ebp]
  0000c	83 e0 01	 and	 eax, 1
  0000f	0f 84 0d 00 00
	00		 je	 $LN14@GetTreePat
  00015	83 65 ec fe	 and	 DWORD PTR $T2[ebp], -2	; fffffffeH
  00019	8b 4d 08	 mov	 ecx, DWORD PTR ___$ReturnUdt$[ebp]
  0001c	ff 25 00 00 00
	00		 jmp	 DWORD PTR __imp_??1?$CStringT@DV?$StrTraitMFC_DLL@DV?$ChTraitsCRT@D@ATL@@@@@ATL@@QAE@XZ
$LN14@GetTreePat:
  00022	c3		 ret	 0
__unwindfunclet$?GetTreePath@CTreeDropList@@IAE?AV?$CStringT@DV?$StrTraitMFC_DLL@DV?$ChTraitsCRT@D@ATL@@@@@ATL@@PAU_TREEITEM@@@Z$2:
  00023	8d 4d 0c	 lea	 ecx, DWORD PTR $T12[ebp]
  00026	ff 25 00 00 00
	00		 jmp	 DWORD PTR __imp_??1?$CStringT@DV?$StrTraitMFC_DLL@DV?$ChTraitsCRT@D@ATL@@@@@ATL@@QAE@XZ
__unwindfunclet$?GetTreePath@CTreeDropList@@IAE?AV?$CStringT@DV?$StrTraitMFC_DLL@DV?$ChTraitsCRT@D@ATL@@@@@ATL@@PAU_TREEITEM@@@Z$3:
  0002c	8d 4d 0c	 lea	 ecx, DWORD PTR $T11[ebp]
  0002f	ff 25 00 00 00
	00		 jmp	 DWORD PTR __imp_??1?$CStringT@DV?$StrTraitMFC_DLL@DV?$ChTraitsCRT@D@ATL@@@@@ATL@@QAE@XZ
__unwindfunclet$?GetTreePath@CTreeDropList@@IAE?AV?$CStringT@DV?$StrTraitMFC_DLL@DV?$ChTraitsCRT@D@ATL@@@@@ATL@@PAU_TREEITEM@@@Z$4:
  00035	8d 4d 0c	 lea	 ecx, DWORD PTR $T10[ebp]
  00038	ff 25 00 00 00
	00		 jmp	 DWORD PTR __imp_??1?$CStringT@DV?$StrTraitMFC_DLL@DV?$ChTraitsCRT@D@ATL@@@@@ATL@@QAE@XZ
__unwindfunclet$?GetTreePath@CTreeDropList@@IAE?AV?$CStringT@DV?$StrTraitMFC_DLL@DV?$ChTraitsCRT@D@ATL@@@@@ATL@@PAU_TREEITEM@@@Z$5:
  0003e	8d 4d 0c	 lea	 ecx, DWORD PTR $T9[ebp]
  00041	ff 25 00 00 00
	00		 jmp	 DWORD PTR __imp_??1?$CStringT@DV?$StrTraitMFC_DLL@DV?$ChTraitsCRT@D@ATL@@@@@ATL@@QAE@XZ
__unwindfunclet$?GetTreePath@CTreeDropList@@IAE?AV?$CStringT@DV?$StrTraitMFC_DLL@DV?$ChTraitsCRT@D@ATL@@@@@ATL@@PAU_TREEITEM@@@Z$6:
  00047	8d 4d 0c	 lea	 ecx, DWORD PTR $T8[ebp]
  0004a	ff 25 00 00 00
	00		 jmp	 DWORD PTR __imp_??1?$CStringT@DV?$StrTraitMFC_DLL@DV?$ChTraitsCRT@D@ATL@@@@@ATL@@QAE@XZ
__unwindfunclet$?GetTreePath@CTreeDropList@@IAE?AV?$CStringT@DV?$StrTraitMFC_DLL@DV?$ChTraitsCRT@D@ATL@@@@@ATL@@PAU_TREEITEM@@@Z$7:
  00050	8d 4d 0c	 lea	 ecx, DWORD PTR $T7[ebp]
  00053	ff 25 00 00 00
	00		 jmp	 DWORD PTR __imp_??1?$CStringT@DV?$StrTraitMFC_DLL@DV?$ChTraitsCRT@D@ATL@@@@@ATL@@QAE@XZ
__unwindfunclet$?GetTreePath@CTreeDropList@@IAE?AV?$CStringT@DV?$StrTraitMFC_DLL@DV?$ChTraitsCRT@D@ATL@@@@@ATL@@PAU_TREEITEM@@@Z$12:
  00059	8b 45 ec	 mov	 eax, DWORD PTR $T2[ebp]
  0005c	83 e0 02	 and	 eax, 2
  0005f	0f 84 0d 00 00
	00		 je	 $LN30@GetTreePat
  00065	83 65 ec fd	 and	 DWORD PTR $T2[ebp], -3	; fffffffdH
  00069	8d 4d 0c	 lea	 ecx, DWORD PTR $T6[ebp]
  0006c	ff 25 00 00 00
	00		 jmp	 DWORD PTR __imp_??1?$CStringT@DV?$StrTraitMFC_DLL@DV?$ChTraitsCRT@D@ATL@@@@@ATL@@QAE@XZ
$LN30@GetTreePat:
  00072	c3		 ret	 0
__unwindfunclet$?GetTreePath@CTreeDropList@@IAE?AV?$CStringT@DV?$StrTraitMFC_DLL@DV?$ChTraitsCRT@D@ATL@@@@@ATL@@PAU_TREEITEM@@@Z$9:
  00073	8d 4d 0c	 lea	 ecx, DWORD PTR $T5[ebp]
  00076	ff 25 00 00 00
	00		 jmp	 DWORD PTR __imp_??1?$CStringT@DV?$StrTraitMFC_DLL@DV?$ChTraitsCRT@D@ATL@@@@@ATL@@QAE@XZ
__unwindfunclet$?GetTreePath@CTreeDropList@@IAE?AV?$CStringT@DV?$StrTraitMFC_DLL@DV?$ChTraitsCRT@D@ATL@@@@@ATL@@PAU_TREEITEM@@@Z$10:
  0007c	8d 4d 0c	 lea	 ecx, DWORD PTR $T4[ebp]
  0007f	ff 25 00 00 00
	00		 jmp	 DWORD PTR __imp_??1?$CStringT@DV?$StrTraitMFC_DLL@DV?$ChTraitsCRT@D@ATL@@@@@ATL@@QAE@XZ
__unwindfunclet$?GetTreePath@CTreeDropList@@IAE?AV?$CStringT@DV?$StrTraitMFC_DLL@DV?$ChTraitsCRT@D@ATL@@@@@ATL@@PAU_TREEITEM@@@Z$11:
  00085	8d 4d 0c	 lea	 ecx, DWORD PTR $T3[ebp]
  00088	ff 25 00 00 00
	00		 jmp	 DWORD PTR __imp_??1?$CStringT@DV?$StrTraitMFC_DLL@DV?$ChTraitsCRT@D@ATL@@@@@ATL@@QAE@XZ
  0008e	cc		 int	 3
  0008f	cc		 int	 3
  00090	cc		 int	 3
  00091	cc		 int	 3
  00092	cc		 int	 3
__ehhandler$?GetTreePath@CTreeDropList@@IAE?AV?$CStringT@DV?$StrTraitMFC_DLL@DV?$ChTraitsCRT@D@ATL@@@@@ATL@@PAU_TREEITEM@@@Z:
  00093	90		 npad	 1
  00094	90		 npad	 1
  00095	8b 54 24 08	 mov	 edx, DWORD PTR [esp+8]
  00099	8d 42 0c	 lea	 eax, DWORD PTR [edx+12]
  0009c	8b 4a e8	 mov	 ecx, DWORD PTR [edx-24]
  0009f	33 c8		 xor	 ecx, eax
  000a1	e8 00 00 00 00	 call	 @__security_check_cookie@4
  000a6	b8 00 00 00 00	 mov	 eax, OFFSET __ehfuncinfo$?GetTreePath@CTreeDropList@@IAE?AV?$CStringT@DV?$StrTraitMFC_DLL@DV?$ChTraitsCRT@D@ATL@@@@@ATL@@PAU_TREEITEM@@@Z
  000ab	e9 00 00 00 00	 jmp	 ___CxxFrameHandler3
text$x	ENDS
?GetTreePath@CTreeDropList@@IAE?AV?$CStringT@DV?$StrTraitMFC_DLL@DV?$ChTraitsCRT@D@ATL@@@@@ATL@@PAU_TREEITEM@@@Z ENDP ; CTreeDropList::GetTreePath
; Function compile flags: /Ogtp
; File D:\git\src\IBK\IBK_DRFN\ProjSrc\SrcChartEx\ChartAddIn\ChartDesignPropertyAddIn\ChartDesignPropertyAddIn\TreeDropList.cpp
; File C:\Program Files (x86)\Microsoft Visual Studio\2019\Community\VC\Tools\MSVC\14.29.30133\atlmfc\include\atlsimpstr.h
; File D:\git\src\IBK\IBK_DRFN\ProjSrc\SrcChartEx\ChartAddIn\ChartDesignPropertyAddIn\ChartDesignPropertyAddIn\TreeDropList.cpp
; File C:\Program Files (x86)\Microsoft Visual Studio\2019\Community\VC\Tools\MSVC\14.29.30133\atlmfc\include\afxcmn.inl
; File D:\git\src\IBK\IBK_DRFN\ProjSrc\SrcChartEx\ChartAddIn\ChartDesignPropertyAddIn\ChartDesignPropertyAddIn\TreeDropList.cpp
; File C:\Program Files (x86)\Microsoft Visual Studio\2019\Community\VC\Tools\MSVC\14.29.30133\atlmfc\include\atlsimpstr.h
; File D:\git\src\IBK\IBK_DRFN\ProjSrc\SrcChartEx\ChartAddIn\ChartDesignPropertyAddIn\ChartDesignPropertyAddIn\TreeDropList.cpp
; File C:\Program Files (x86)\Microsoft Visual Studio\2019\Community\VC\Tools\MSVC\14.29.30133\atlmfc\include\afxcmn.inl
; File D:\git\src\IBK\IBK_DRFN\ProjSrc\SrcChartEx\ChartAddIn\ChartDesignPropertyAddIn\ChartDesignPropertyAddIn\TreeDropList.cpp
; File C:\Program Files (x86)\Microsoft Visual Studio\2019\Community\VC\Tools\MSVC\14.29.30133\atlmfc\include\atlsimpstr.h
; File D:\git\src\IBK\IBK_DRFN\ProjSrc\SrcChartEx\ChartAddIn\ChartDesignPropertyAddIn\ChartDesignPropertyAddIn\TreeDropList.cpp
; File C:\Program Files (x86)\Microsoft Visual Studio\2019\Community\VC\Tools\MSVC\14.29.30133\atlmfc\include\atlsimpstr.h
; File D:\git\src\IBK\IBK_DRFN\ProjSrc\SrcChartEx\ChartAddIn\ChartDesignPropertyAddIn\ChartDesignPropertyAddIn\TreeDropList.cpp
; File C:\Program Files (x86)\Microsoft Visual Studio\2019\Community\VC\Tools\MSVC\14.29.30133\atlmfc\include\afxcmn.inl
; File D:\git\src\IBK\IBK_DRFN\ProjSrc\SrcChartEx\ChartAddIn\ChartDesignPropertyAddIn\ChartDesignPropertyAddIn\TreeDropList.cpp
;	COMDAT ?SelectString@CTreeDropList@@IAEPAU_TREEITEM@@PBDPAU2@@Z
_TEXT	SEGMENT
$T2 = -24						; size = 4
$T3 = -20						; size = 4
_strRoot$4 = -16					; size = 4
__$EHRec$ = -12						; size = 12
_hMatch$1$ = 8						; size = 4
_strRemainder$5 = 8					; size = 4
_lpszString$ = 8					; size = 4
_hParent$ = 12						; size = 4
?SelectString@CTreeDropList@@IAEPAU_TREEITEM@@PBDPAU2@@Z PROC ; CTreeDropList::SelectString, COMDAT
; _this$ = ecx

; 271  : {

  00000	55		 push	 ebp
  00001	8b ec		 mov	 ebp, esp
  00003	6a ff		 push	 -1
  00005	68 00 00 00 00	 push	 __ehhandler$?SelectString@CTreeDropList@@IAEPAU_TREEITEM@@PBDPAU2@@Z
  0000a	64 a1 00 00 00
	00		 mov	 eax, DWORD PTR fs:0
  00010	50		 push	 eax
  00011	83 ec 0c	 sub	 esp, 12			; 0000000cH
  00014	53		 push	 ebx
  00015	56		 push	 esi
  00016	57		 push	 edi
  00017	a1 00 00 00 00	 mov	 eax, DWORD PTR ___security_cookie
  0001c	33 c5		 xor	 eax, ebp
  0001e	50		 push	 eax
  0001f	8d 45 f4	 lea	 eax, DWORD PTR __$EHRec$[ebp]
  00022	64 a3 00 00 00
	00		 mov	 DWORD PTR fs:0, eax
  00028	8b f9		 mov	 edi, ecx

; 272  : 	HTREEITEM hMatch = FindString (lpszString, hParent);

  0002a	ff 75 08	 push	 DWORD PTR _lpszString$[ebp]
  0002d	8d 4d e8	 lea	 ecx, DWORD PTR $T2[ebp]
  00030	ff 15 00 00 00
	00		 call	 DWORD PTR __imp_??0?$CStringT@DV?$StrTraitMFC_DLL@DV?$ChTraitsCRT@D@ATL@@@@@ATL@@QAE@PBD@Z

; 285  : 	CString strRoot;

  00036	8d 4d f0	 lea	 ecx, DWORD PTR _strRoot$4[ebp]
  00039	c7 45 fc 00 00
	00 00		 mov	 DWORD PTR __$EHRec$[ebp+8], 0
  00040	ff 15 00 00 00
	00		 call	 DWORD PTR __imp_??0?$CStringT@DV?$StrTraitMFC_DLL@DV?$ChTraitsCRT@D@ATL@@@@@ATL@@QAE@XZ

; 286  : 	CString strRemainder;

  00046	8d 4d 08	 lea	 ecx, DWORD PTR _strRemainder$5[ebp]
  00049	ff 15 00 00 00
	00		 call	 DWORD PTR __imp_??0?$CStringT@DV?$StrTraitMFC_DLL@DV?$ChTraitsCRT@D@ATL@@@@@ATL@@QAE@XZ

; 287  : 
; 288  : 	hMatch = FindString (hParent, strTreeBranch, hPreviousMatch, strRoot, strRemainder);

  0004f	8d 45 e8	 lea	 eax, DWORD PTR $T2[ebp]
  00052	c6 45 fc 02	 mov	 BYTE PTR __$EHRec$[ebp+8], 2
  00056	50		 push	 eax
  00057	8d 4d ec	 lea	 ecx, DWORD PTR $T3[ebp]
  0005a	ff 15 00 00 00
	00		 call	 DWORD PTR __imp_??0?$CStringT@DV?$StrTraitMFC_DLL@DV?$ChTraitsCRT@D@ATL@@@@@ATL@@QAE@ABV01@@Z

; 301  : 	HTREEITEM hItem = hParent;

  00060	8b 75 0c	 mov	 esi, DWORD PTR _hParent$[ebp]

; 302  : 	HTREEITEM hMatch = NULL;
; 303  : 
; 304  : 	hPreviousMatch = hParent;
; 305  : 
; 306  : 
; 307  : 	SplitPath (strTreeBranch, strRoot, strRemainder);

  00063	8d 45 08	 lea	 eax, DWORD PTR _strRemainder$5[ebp]
  00066	50		 push	 eax
  00067	8d 45 f0	 lea	 eax, DWORD PTR _strRoot$4[ebp]
  0006a	c6 45 fc 03	 mov	 BYTE PTR __$EHRec$[ebp+8], 3
  0006e	50		 push	 eax
  0006f	8d 45 ec	 lea	 eax, DWORD PTR $T3[ebp]
  00072	8b cf		 mov	 ecx, edi
  00074	50		 push	 eax
  00075	e8 00 00 00 00	 call	 ?SplitPath@CTreeDropList@@IAEXABV?$CStringT@DV?$StrTraitMFC_DLL@DV?$ChTraitsCRT@D@ATL@@@@@ATL@@AAV23@1@Z ; CTreeDropList::SplitPath
; File C:\Program Files (x86)\Microsoft Visual Studio\2019\Community\VC\Tools\MSVC\14.29.30133\atlmfc\include\atlsimpstr.h

; 533  : 		return( GetLength() == 0 );

  0007a	8b 45 f0	 mov	 eax, DWORD PTR _strRoot$4[ebp]
  0007d	83 78 f4 00	 cmp	 DWORD PTR [eax-12], 0
; File D:\git\src\IBK\IBK_DRFN\ProjSrc\SrcChartEx\ChartAddIn\ChartDesignPropertyAddIn\ChartDesignPropertyAddIn\TreeDropList.cpp

; 308  : 	if (strRoot.IsEmpty ())

  00081	75 10		 jne	 SHORT $LN15@SelectStri

; 309  : 	{
; 310  : 		//Nothing to search for
; 311  : 		return NULL;

  00083	8d 4d ec	 lea	 ecx, DWORD PTR $T3[ebp]
  00086	ff 15 00 00 00
	00		 call	 DWORD PTR __imp_??1?$CStringT@DV?$StrTraitMFC_DLL@DV?$ChTraitsCRT@D@ATL@@@@@ATL@@QAE@XZ
  0008c	33 db		 xor	 ebx, ebx
  0008e	e9 80 00 00 00	 jmp	 $LN12@SelectStri
$LN15@SelectStri:

; 312  : 	}
; 313  : 
; 314  : 	 //special case when the tree is empty
; 315  : 	 if (hParent == NULL)

  00093	85 f6		 test	 esi, esi
  00095	75 13		 jne	 SHORT $LN16@SelectStri
; File C:\Program Files (x86)\Microsoft Visual Studio\2019\Community\VC\Tools\MSVC\14.29.30133\atlmfc\include\afxcmn.inl

; 300  : 	{ ASSERT(::IsWindow(m_hWnd)); return (HTREEITEM)::SendMessage(m_hWnd, TVM_GETNEXTITEM, TVGN_CHILD, (LPARAM)hItem); }

  00097	56		 push	 esi
  00098	6a 04		 push	 4
  0009a	68 0a 11 00 00	 push	 4362			; 0000110aH
  0009f	ff 77 20	 push	 DWORD PTR [edi+32]
  000a2	ff 15 00 00 00
	00		 call	 DWORD PTR __imp__SendMessageA@16
; File D:\git\src\IBK\IBK_DRFN\ProjSrc\SrcChartEx\ChartAddIn\ChartDesignPropertyAddIn\ChartDesignPropertyAddIn\TreeDropList.cpp

; 317  : 		 hItem = GetChildItem (hParent);

  000a8	8b f0		 mov	 esi, eax
$LN16@SelectStri:

; 318  : 	 }
; 319  : 
; 320  : 	 //try to find a child item that matches the substring text
; 321  : 	 //at the corresponding level
; 322  : 
; 323  : 	 //Match tree nodes until a node is encountered that doesn't match
; 324  : 	 hMatch = MatchSibling (hItem, strRoot);

  000aa	8d 45 f0	 lea	 eax, DWORD PTR _strRoot$4[ebp]
  000ad	8b cf		 mov	 ecx, edi
  000af	50		 push	 eax
  000b0	56		 push	 esi
  000b1	e8 00 00 00 00	 call	 ?MatchSibling@CTreeDropList@@IAEPAU_TREEITEM@@PAU2@AAV?$CStringT@DV?$StrTraitMFC_DLL@DV?$ChTraitsCRT@D@ATL@@@@@ATL@@@Z ; CTreeDropList::MatchSibling
  000b6	8b d8		 mov	 ebx, eax

; 325  : 	 while (hMatch && !strRemainder.IsEmpty())

  000b8	85 db		 test	 ebx, ebx
  000ba	74 4e		 je	 SHORT $LN14@SelectStri
  000bc	8b 35 00 00 00
	00		 mov	 esi, DWORD PTR __imp__SendMessageA@16
$LL13@SelectStri:
; File C:\Program Files (x86)\Microsoft Visual Studio\2019\Community\VC\Tools\MSVC\14.29.30133\atlmfc\include\atlsimpstr.h

; 533  : 		return( GetLength() == 0 );

  000c2	8b 4d 08	 mov	 ecx, DWORD PTR _strRemainder$5[ebp]
  000c5	83 79 f4 00	 cmp	 DWORD PTR [ecx-12], 0
; File D:\git\src\IBK\IBK_DRFN\ProjSrc\SrcChartEx\ChartAddIn\ChartDesignPropertyAddIn\ChartDesignPropertyAddIn\TreeDropList.cpp

; 325  : 	 while (hMatch && !strRemainder.IsEmpty())

  000c9	74 3f		 je	 SHORT $LN14@SelectStri

; 326  : 	 {
; 327  :  		hPreviousMatch = hMatch;
; 328  : 		strTreeBranch = strRemainder;

  000cb	8d 45 08	 lea	 eax, DWORD PTR _strRemainder$5[ebp]
  000ce	50		 push	 eax
  000cf	8d 4d ec	 lea	 ecx, DWORD PTR $T3[ebp]
  000d2	ff 15 00 00 00
	00		 call	 DWORD PTR __imp_??4?$CStringT@DV?$StrTraitMFC_DLL@DV?$ChTraitsCRT@D@ATL@@@@@ATL@@QAEAAV01@ABV01@@Z

; 329  : 		SplitPath (strTreeBranch, strRoot, strRemainder);

  000d8	8d 45 08	 lea	 eax, DWORD PTR _strRemainder$5[ebp]
  000db	8b cf		 mov	 ecx, edi
  000dd	50		 push	 eax
  000de	8d 45 f0	 lea	 eax, DWORD PTR _strRoot$4[ebp]
  000e1	50		 push	 eax
  000e2	8d 45 ec	 lea	 eax, DWORD PTR $T3[ebp]
  000e5	50		 push	 eax
  000e6	e8 00 00 00 00	 call	 ?SplitPath@CTreeDropList@@IAEXABV?$CStringT@DV?$StrTraitMFC_DLL@DV?$ChTraitsCRT@D@ATL@@@@@ATL@@AAV23@1@Z ; CTreeDropList::SplitPath
; File C:\Program Files (x86)\Microsoft Visual Studio\2019\Community\VC\Tools\MSVC\14.29.30133\atlmfc\include\afxcmn.inl

; 300  : 	{ ASSERT(::IsWindow(m_hWnd)); return (HTREEITEM)::SendMessage(m_hWnd, TVM_GETNEXTITEM, TVGN_CHILD, (LPARAM)hItem); }

  000eb	53		 push	 ebx
  000ec	6a 04		 push	 4
  000ee	68 0a 11 00 00	 push	 4362			; 0000110aH
  000f3	ff 77 20	 push	 DWORD PTR [edi+32]
  000f6	ff d6		 call	 esi
; File D:\git\src\IBK\IBK_DRFN\ProjSrc\SrcChartEx\ChartAddIn\ChartDesignPropertyAddIn\ChartDesignPropertyAddIn\TreeDropList.cpp

; 331  : 		hMatch = MatchSibling (hItem, strRoot);

  000f8	8d 4d f0	 lea	 ecx, DWORD PTR _strRoot$4[ebp]
  000fb	51		 push	 ecx
  000fc	50		 push	 eax
  000fd	8b cf		 mov	 ecx, edi
  000ff	e8 00 00 00 00	 call	 ?MatchSibling@CTreeDropList@@IAEPAU_TREEITEM@@PAU2@AAV?$CStringT@DV?$StrTraitMFC_DLL@DV?$ChTraitsCRT@D@ATL@@@@@ATL@@@Z ; CTreeDropList::MatchSibling
  00104	8b d8		 mov	 ebx, eax
  00106	85 db		 test	 ebx, ebx
  00108	75 b8		 jne	 SHORT $LL13@SelectStri
$LN14@SelectStri:

; 332  : 	 }
; 333  : 
; 334  :     return hMatch;

  0010a	8d 4d ec	 lea	 ecx, DWORD PTR $T3[ebp]
  0010d	ff 15 00 00 00
	00		 call	 DWORD PTR __imp_??1?$CStringT@DV?$StrTraitMFC_DLL@DV?$ChTraitsCRT@D@ATL@@@@@ATL@@QAE@XZ
$LN12@SelectStri:
; File C:\Program Files (x86)\Microsoft Visual Studio\2019\Community\VC\Tools\MSVC\14.29.30133\atlmfc\include\atlsimpstr.h

; 519  : 		return( GetData()->nDataLength );

  00113	8b 45 08	 mov	 eax, DWORD PTR _strRemainder$5[ebp]
; File D:\git\src\IBK\IBK_DRFN\ProjSrc\SrcChartEx\ChartAddIn\ChartDesignPropertyAddIn\ChartDesignPropertyAddIn\TreeDropList.cpp

; 295  : 	return hMatch;

  00116	8d 4d 08	 lea	 ecx, DWORD PTR _strRemainder$5[ebp]
; File C:\Program Files (x86)\Microsoft Visual Studio\2019\Community\VC\Tools\MSVC\14.29.30133\atlmfc\include\atlsimpstr.h

; 533  : 		return( GetLength() == 0 );

  00119	8b 70 f4	 mov	 esi, DWORD PTR [eax-12]
; File D:\git\src\IBK\IBK_DRFN\ProjSrc\SrcChartEx\ChartAddIn\ChartDesignPropertyAddIn\ChartDesignPropertyAddIn\TreeDropList.cpp

; 295  : 	return hMatch;

  0011c	ff 15 00 00 00
	00		 call	 DWORD PTR __imp_??1?$CStringT@DV?$StrTraitMFC_DLL@DV?$ChTraitsCRT@D@ATL@@@@@ATL@@QAE@XZ
  00122	8d 4d f0	 lea	 ecx, DWORD PTR _strRoot$4[ebp]
  00125	ff 15 00 00 00
	00		 call	 DWORD PTR __imp_??1?$CStringT@DV?$StrTraitMFC_DLL@DV?$ChTraitsCRT@D@ATL@@@@@ATL@@QAE@XZ
  0012b	8d 4d e8	 lea	 ecx, DWORD PTR $T2[ebp]
  0012e	ff 15 00 00 00
	00		 call	 DWORD PTR __imp_??1?$CStringT@DV?$StrTraitMFC_DLL@DV?$ChTraitsCRT@D@ATL@@@@@ATL@@QAE@XZ
  00134	33 c0		 xor	 eax, eax
  00136	85 f6		 test	 esi, esi
  00138	0f 44 c3	 cmove	 eax, ebx
  0013b	89 45 08	 mov	 DWORD PTR _hMatch$1$[ebp], eax

; 273  : 	if (hMatch)

  0013e	85 c0		 test	 eax, eax
  00140	74 14		 je	 SHORT $LN2@SelectStri
; File C:\Program Files (x86)\Microsoft Visual Studio\2019\Community\VC\Tools\MSVC\14.29.30133\atlmfc\include\afxcmn.inl

; 326  : 	{ ASSERT(::IsWindow(m_hWnd)); return (BOOL) ::SendMessage(m_hWnd, TVM_SELECTITEM, TVGN_CARET, (LPARAM)hItem); }

  00142	50		 push	 eax
  00143	6a 09		 push	 9
  00145	68 0b 11 00 00	 push	 4363			; 0000110bH
  0014a	ff 77 20	 push	 DWORD PTR [edi+32]
  0014d	ff 15 00 00 00
	00		 call	 DWORD PTR __imp__SendMessageA@16
; File D:\git\src\IBK\IBK_DRFN\ProjSrc\SrcChartEx\ChartAddIn\ChartDesignPropertyAddIn\ChartDesignPropertyAddIn\TreeDropList.cpp

; 277  : 	return hMatch;

  00153	8b 45 08	 mov	 eax, DWORD PTR _hMatch$1$[ebp]
$LN2@SelectStri:

; 278  : }

  00156	8b 4d f4	 mov	 ecx, DWORD PTR __$EHRec$[ebp]
  00159	64 89 0d 00 00
	00 00		 mov	 DWORD PTR fs:0, ecx
  00160	59		 pop	 ecx
  00161	5f		 pop	 edi
  00162	5e		 pop	 esi
  00163	5b		 pop	 ebx
  00164	8b e5		 mov	 esp, ebp
  00166	5d		 pop	 ebp
  00167	c2 08 00	 ret	 8
_TEXT	ENDS
;	COMDAT text$x
text$x	SEGMENT
__unwindfunclet$?SelectString@CTreeDropList@@IAEPAU_TREEITEM@@PBDPAU2@@Z$1:
  00000	8d 4d e8	 lea	 ecx, DWORD PTR $T2[ebp]
  00003	ff 25 00 00 00
	00		 jmp	 DWORD PTR __imp_??1?$CStringT@DV?$StrTraitMFC_DLL@DV?$ChTraitsCRT@D@ATL@@@@@ATL@@QAE@XZ
__unwindfunclet$?SelectString@CTreeDropList@@IAEPAU_TREEITEM@@PBDPAU2@@Z$2:
  00009	8d 4d f0	 lea	 ecx, DWORD PTR _strRoot$4[ebp]
  0000c	ff 25 00 00 00
	00		 jmp	 DWORD PTR __imp_??1?$CStringT@DV?$StrTraitMFC_DLL@DV?$ChTraitsCRT@D@ATL@@@@@ATL@@QAE@XZ
__unwindfunclet$?SelectString@CTreeDropList@@IAEPAU_TREEITEM@@PBDPAU2@@Z$3:
  00012	8d 4d 08	 lea	 ecx, DWORD PTR _strRemainder$5[ebp]
  00015	ff 25 00 00 00
	00		 jmp	 DWORD PTR __imp_??1?$CStringT@DV?$StrTraitMFC_DLL@DV?$ChTraitsCRT@D@ATL@@@@@ATL@@QAE@XZ
__unwindfunclet$?SelectString@CTreeDropList@@IAEPAU_TREEITEM@@PBDPAU2@@Z$5:
  0001b	8d 4d ec	 lea	 ecx, DWORD PTR $T3[ebp]
  0001e	ff 25 00 00 00
	00		 jmp	 DWORD PTR __imp_??1?$CStringT@DV?$StrTraitMFC_DLL@DV?$ChTraitsCRT@D@ATL@@@@@ATL@@QAE@XZ
  00024	cc		 int	 3
  00025	cc		 int	 3
  00026	cc		 int	 3
  00027	cc		 int	 3
  00028	cc		 int	 3
__ehhandler$?SelectString@CTreeDropList@@IAEPAU_TREEITEM@@PBDPAU2@@Z:
  00029	90		 npad	 1
  0002a	90		 npad	 1
  0002b	8b 54 24 08	 mov	 edx, DWORD PTR [esp+8]
  0002f	8d 42 0c	 lea	 eax, DWORD PTR [edx+12]
  00032	8b 4a e4	 mov	 ecx, DWORD PTR [edx-28]
  00035	33 c8		 xor	 ecx, eax
  00037	e8 00 00 00 00	 call	 @__security_check_cookie@4
  0003c	b8 00 00 00 00	 mov	 eax, OFFSET __ehfuncinfo$?SelectString@CTreeDropList@@IAEPAU_TREEITEM@@PBDPAU2@@Z
  00041	e9 00 00 00 00	 jmp	 ___CxxFrameHandler3
text$x	ENDS
?SelectString@CTreeDropList@@IAEPAU_TREEITEM@@PBDPAU2@@Z ENDP ; CTreeDropList::SelectString
; Function compile flags: /Ogtp
; File D:\git\src\IBK\IBK_DRFN\ProjSrc\SrcChartEx\ChartAddIn\ChartDesignPropertyAddIn\ChartDesignPropertyAddIn\TreeDropList.cpp
; File C:\Program Files (x86)\Microsoft Visual Studio\2019\Community\VC\Tools\MSVC\14.29.30133\atlmfc\include\atlsimpstr.h
; File D:\git\src\IBK\IBK_DRFN\ProjSrc\SrcChartEx\ChartAddIn\ChartDesignPropertyAddIn\ChartDesignPropertyAddIn\TreeDropList.cpp
; File C:\Program Files (x86)\Microsoft Visual Studio\2019\Community\VC\Tools\MSVC\14.29.30133\atlmfc\include\afxcmn.inl
; File D:\git\src\IBK\IBK_DRFN\ProjSrc\SrcChartEx\ChartAddIn\ChartDesignPropertyAddIn\ChartDesignPropertyAddIn\TreeDropList.cpp
; File C:\Program Files (x86)\Microsoft Visual Studio\2019\Community\VC\Tools\MSVC\14.29.30133\atlmfc\include\atlsimpstr.h
; File D:\git\src\IBK\IBK_DRFN\ProjSrc\SrcChartEx\ChartAddIn\ChartDesignPropertyAddIn\ChartDesignPropertyAddIn\TreeDropList.cpp
; File C:\Program Files (x86)\Microsoft Visual Studio\2019\Community\VC\Tools\MSVC\14.29.30133\atlmfc\include\afxcmn.inl
; File D:\git\src\IBK\IBK_DRFN\ProjSrc\SrcChartEx\ChartAddIn\ChartDesignPropertyAddIn\ChartDesignPropertyAddIn\TreeDropList.cpp
; File C:\Program Files (x86)\Microsoft Visual Studio\2019\Community\VC\Tools\MSVC\14.29.30133\atlmfc\include\atlsimpstr.h
; File D:\git\src\IBK\IBK_DRFN\ProjSrc\SrcChartEx\ChartAddIn\ChartDesignPropertyAddIn\ChartDesignPropertyAddIn\TreeDropList.cpp
;	COMDAT ?FindString@CTreeDropList@@IAEPAU_TREEITEM@@V?$CStringT@DV?$StrTraitMFC_DLL@DV?$ChTraitsCRT@D@ATL@@@@@ATL@@PAU2@@Z
_TEXT	SEGMENT
$T2 = -24						; size = 4
_strRoot$ = -20						; size = 4
_strRemainder$ = -16					; size = 4
__$EHRec$ = -12						; size = 12
_strTreeBranch$ = 8					; size = 4
_hParent$ = 12						; size = 4
?FindString@CTreeDropList@@IAEPAU_TREEITEM@@V?$CStringT@DV?$StrTraitMFC_DLL@DV?$ChTraitsCRT@D@ATL@@@@@ATL@@PAU2@@Z PROC ; CTreeDropList::FindString, COMDAT
; _this$ = ecx

; 282  : {

  00000	55		 push	 ebp
  00001	8b ec		 mov	 ebp, esp
  00003	6a ff		 push	 -1
  00005	68 00 00 00 00	 push	 __ehhandler$?FindString@CTreeDropList@@IAEPAU_TREEITEM@@V?$CStringT@DV?$StrTraitMFC_DLL@DV?$ChTraitsCRT@D@ATL@@@@@ATL@@PAU2@@Z
  0000a	64 a1 00 00 00
	00		 mov	 eax, DWORD PTR fs:0
  00010	50		 push	 eax
  00011	83 ec 0c	 sub	 esp, 12			; 0000000cH
  00014	53		 push	 ebx
  00015	56		 push	 esi
  00016	57		 push	 edi
  00017	a1 00 00 00 00	 mov	 eax, DWORD PTR ___security_cookie
  0001c	33 c5		 xor	 eax, ebp
  0001e	50		 push	 eax
  0001f	8d 45 f4	 lea	 eax, DWORD PTR __$EHRec$[ebp]
  00022	64 a3 00 00 00
	00		 mov	 DWORD PTR fs:0, eax
  00028	8b f1		 mov	 esi, ecx

; 283  : 	HTREEITEM hPreviousMatch;
; 284  : 	HTREEITEM hMatch;
; 285  : 	CString strRoot;

  0002a	8d 4d ec	 lea	 ecx, DWORD PTR _strRoot$[ebp]
  0002d	c7 45 fc 00 00
	00 00		 mov	 DWORD PTR __$EHRec$[ebp+8], 0
  00034	ff 15 00 00 00
	00		 call	 DWORD PTR __imp_??0?$CStringT@DV?$StrTraitMFC_DLL@DV?$ChTraitsCRT@D@ATL@@@@@ATL@@QAE@XZ

; 286  : 	CString strRemainder;

  0003a	8d 4d f0	 lea	 ecx, DWORD PTR _strRemainder$[ebp]
  0003d	ff 15 00 00 00
	00		 call	 DWORD PTR __imp_??0?$CStringT@DV?$StrTraitMFC_DLL@DV?$ChTraitsCRT@D@ATL@@@@@ATL@@QAE@XZ

; 287  : 
; 288  : 	hMatch = FindString (hParent, strTreeBranch, hPreviousMatch, strRoot, strRemainder);

  00043	8d 45 08	 lea	 eax, DWORD PTR _strTreeBranch$[ebp]
  00046	c6 45 fc 02	 mov	 BYTE PTR __$EHRec$[ebp+8], 2
  0004a	50		 push	 eax
  0004b	8d 4d e8	 lea	 ecx, DWORD PTR $T2[ebp]
  0004e	ff 15 00 00 00
	00		 call	 DWORD PTR __imp_??0?$CStringT@DV?$StrTraitMFC_DLL@DV?$ChTraitsCRT@D@ATL@@@@@ATL@@QAE@ABV01@@Z

; 301  : 	HTREEITEM hItem = hParent;

  00054	8b 7d 0c	 mov	 edi, DWORD PTR _hParent$[ebp]

; 302  : 	HTREEITEM hMatch = NULL;
; 303  : 
; 304  : 	hPreviousMatch = hParent;
; 305  : 
; 306  : 
; 307  : 	SplitPath (strTreeBranch, strRoot, strRemainder);

  00057	8d 45 f0	 lea	 eax, DWORD PTR _strRemainder$[ebp]
  0005a	50		 push	 eax
  0005b	8d 45 ec	 lea	 eax, DWORD PTR _strRoot$[ebp]
  0005e	c6 45 fc 03	 mov	 BYTE PTR __$EHRec$[ebp+8], 3
  00062	50		 push	 eax
  00063	8d 45 e8	 lea	 eax, DWORD PTR $T2[ebp]
  00066	8b ce		 mov	 ecx, esi
  00068	50		 push	 eax
  00069	e8 00 00 00 00	 call	 ?SplitPath@CTreeDropList@@IAEXABV?$CStringT@DV?$StrTraitMFC_DLL@DV?$ChTraitsCRT@D@ATL@@@@@ATL@@AAV23@1@Z ; CTreeDropList::SplitPath
; File C:\Program Files (x86)\Microsoft Visual Studio\2019\Community\VC\Tools\MSVC\14.29.30133\atlmfc\include\atlsimpstr.h

; 533  : 		return( GetLength() == 0 );

  0006e	8b 45 ec	 mov	 eax, DWORD PTR _strRoot$[ebp]
  00071	83 78 f4 00	 cmp	 DWORD PTR [eax-12], 0
; File D:\git\src\IBK\IBK_DRFN\ProjSrc\SrcChartEx\ChartAddIn\ChartDesignPropertyAddIn\ChartDesignPropertyAddIn\TreeDropList.cpp

; 308  : 	if (strRoot.IsEmpty ())

  00075	75 0d		 jne	 SHORT $LN11@FindString

; 309  : 	{
; 310  : 		//Nothing to search for
; 311  : 		return NULL;

  00077	8d 4d e8	 lea	 ecx, DWORD PTR $T2[ebp]
  0007a	ff 15 00 00 00
	00		 call	 DWORD PTR __imp_??1?$CStringT@DV?$StrTraitMFC_DLL@DV?$ChTraitsCRT@D@ATL@@@@@ATL@@QAE@XZ
  00080	33 ff		 xor	 edi, edi
  00082	eb 7d		 jmp	 SHORT $LN8@FindString
$LN11@FindString:

; 312  : 	}
; 313  : 
; 314  : 	 //special case when the tree is empty
; 315  : 	 if (hParent == NULL)

  00084	8b 1d 00 00 00
	00		 mov	 ebx, DWORD PTR __imp__SendMessageA@16
  0008a	85 ff		 test	 edi, edi
  0008c	75 10		 jne	 SHORT $LN12@FindString
; File C:\Program Files (x86)\Microsoft Visual Studio\2019\Community\VC\Tools\MSVC\14.29.30133\atlmfc\include\afxcmn.inl

; 300  : 	{ ASSERT(::IsWindow(m_hWnd)); return (HTREEITEM)::SendMessage(m_hWnd, TVM_GETNEXTITEM, TVGN_CHILD, (LPARAM)hItem); }

  0008e	6a 00		 push	 0
  00090	6a 04		 push	 4
  00092	68 0a 11 00 00	 push	 4362			; 0000110aH
  00097	ff 76 20	 push	 DWORD PTR [esi+32]
  0009a	ff d3		 call	 ebx
; File D:\git\src\IBK\IBK_DRFN\ProjSrc\SrcChartEx\ChartAddIn\ChartDesignPropertyAddIn\ChartDesignPropertyAddIn\TreeDropList.cpp

; 317  : 		 hItem = GetChildItem (hParent);

  0009c	8b f8		 mov	 edi, eax
$LN12@FindString:

; 318  : 	 }
; 319  : 
; 320  : 	 //try to find a child item that matches the substring text
; 321  : 	 //at the corresponding level
; 322  : 
; 323  : 	 //Match tree nodes until a node is encountered that doesn't match
; 324  : 	 hMatch = MatchSibling (hItem, strRoot);

  0009e	8d 45 ec	 lea	 eax, DWORD PTR _strRoot$[ebp]
  000a1	8b ce		 mov	 ecx, esi
  000a3	50		 push	 eax
  000a4	57		 push	 edi
  000a5	e8 00 00 00 00	 call	 ?MatchSibling@CTreeDropList@@IAEPAU_TREEITEM@@PAU2@AAV?$CStringT@DV?$StrTraitMFC_DLL@DV?$ChTraitsCRT@D@ATL@@@@@ATL@@@Z ; CTreeDropList::MatchSibling
  000aa	8b f8		 mov	 edi, eax

; 325  : 	 while (hMatch && !strRemainder.IsEmpty())

  000ac	85 ff		 test	 edi, edi
  000ae	74 48		 je	 SHORT $LN10@FindString
$LL9@FindString:
; File C:\Program Files (x86)\Microsoft Visual Studio\2019\Community\VC\Tools\MSVC\14.29.30133\atlmfc\include\atlsimpstr.h

; 533  : 		return( GetLength() == 0 );

  000b0	8b 4d f0	 mov	 ecx, DWORD PTR _strRemainder$[ebp]
  000b3	83 79 f4 00	 cmp	 DWORD PTR [ecx-12], 0
; File D:\git\src\IBK\IBK_DRFN\ProjSrc\SrcChartEx\ChartAddIn\ChartDesignPropertyAddIn\ChartDesignPropertyAddIn\TreeDropList.cpp

; 325  : 	 while (hMatch && !strRemainder.IsEmpty())

  000b7	74 3f		 je	 SHORT $LN10@FindString

; 326  : 	 {
; 327  :  		hPreviousMatch = hMatch;
; 328  : 		strTreeBranch = strRemainder;

  000b9	8d 45 f0	 lea	 eax, DWORD PTR _strRemainder$[ebp]
  000bc	50		 push	 eax
  000bd	8d 4d e8	 lea	 ecx, DWORD PTR $T2[ebp]
  000c0	ff 15 00 00 00
	00		 call	 DWORD PTR __imp_??4?$CStringT@DV?$StrTraitMFC_DLL@DV?$ChTraitsCRT@D@ATL@@@@@ATL@@QAEAAV01@ABV01@@Z

; 329  : 		SplitPath (strTreeBranch, strRoot, strRemainder);

  000c6	8d 45 f0	 lea	 eax, DWORD PTR _strRemainder$[ebp]
  000c9	8b ce		 mov	 ecx, esi
  000cb	50		 push	 eax
  000cc	8d 45 ec	 lea	 eax, DWORD PTR _strRoot$[ebp]
  000cf	50		 push	 eax
  000d0	8d 45 e8	 lea	 eax, DWORD PTR $T2[ebp]
  000d3	50		 push	 eax
  000d4	e8 00 00 00 00	 call	 ?SplitPath@CTreeDropList@@IAEXABV?$CStringT@DV?$StrTraitMFC_DLL@DV?$ChTraitsCRT@D@ATL@@@@@ATL@@AAV23@1@Z ; CTreeDropList::SplitPath
; File C:\Program Files (x86)\Microsoft Visual Studio\2019\Community\VC\Tools\MSVC\14.29.30133\atlmfc\include\afxcmn.inl

; 300  : 	{ ASSERT(::IsWindow(m_hWnd)); return (HTREEITEM)::SendMessage(m_hWnd, TVM_GETNEXTITEM, TVGN_CHILD, (LPARAM)hItem); }

  000d9	57		 push	 edi
  000da	6a 04		 push	 4
  000dc	68 0a 11 00 00	 push	 4362			; 0000110aH
  000e1	ff 76 20	 push	 DWORD PTR [esi+32]
  000e4	ff d3		 call	 ebx
; File D:\git\src\IBK\IBK_DRFN\ProjSrc\SrcChartEx\ChartAddIn\ChartDesignPropertyAddIn\ChartDesignPropertyAddIn\TreeDropList.cpp

; 331  : 		hMatch = MatchSibling (hItem, strRoot);

  000e6	8d 4d ec	 lea	 ecx, DWORD PTR _strRoot$[ebp]
  000e9	51		 push	 ecx
  000ea	50		 push	 eax
  000eb	8b ce		 mov	 ecx, esi
  000ed	e8 00 00 00 00	 call	 ?MatchSibling@CTreeDropList@@IAEPAU_TREEITEM@@PAU2@AAV?$CStringT@DV?$StrTraitMFC_DLL@DV?$ChTraitsCRT@D@ATL@@@@@ATL@@@Z ; CTreeDropList::MatchSibling
  000f2	8b f8		 mov	 edi, eax
  000f4	85 ff		 test	 edi, edi
  000f6	75 b8		 jne	 SHORT $LL9@FindString
$LN10@FindString:

; 332  : 	 }
; 333  : 
; 334  :     return hMatch;

  000f8	8d 4d e8	 lea	 ecx, DWORD PTR $T2[ebp]
  000fb	ff 15 00 00 00
	00		 call	 DWORD PTR __imp_??1?$CStringT@DV?$StrTraitMFC_DLL@DV?$ChTraitsCRT@D@ATL@@@@@ATL@@QAE@XZ
$LN8@FindString:
; File C:\Program Files (x86)\Microsoft Visual Studio\2019\Community\VC\Tools\MSVC\14.29.30133\atlmfc\include\atlsimpstr.h

; 519  : 		return( GetData()->nDataLength );

  00101	8b 45 f0	 mov	 eax, DWORD PTR _strRemainder$[ebp]
; File D:\git\src\IBK\IBK_DRFN\ProjSrc\SrcChartEx\ChartAddIn\ChartDesignPropertyAddIn\ChartDesignPropertyAddIn\TreeDropList.cpp

; 295  : 	return hMatch;

  00104	8d 4d f0	 lea	 ecx, DWORD PTR _strRemainder$[ebp]
  00107	33 f6		 xor	 esi, esi
  00109	39 70 f4	 cmp	 DWORD PTR [eax-12], esi
  0010c	0f 44 f7	 cmove	 esi, edi
  0010f	ff 15 00 00 00
	00		 call	 DWORD PTR __imp_??1?$CStringT@DV?$StrTraitMFC_DLL@DV?$ChTraitsCRT@D@ATL@@@@@ATL@@QAE@XZ
  00115	8d 4d ec	 lea	 ecx, DWORD PTR _strRoot$[ebp]
  00118	ff 15 00 00 00
	00		 call	 DWORD PTR __imp_??1?$CStringT@DV?$StrTraitMFC_DLL@DV?$ChTraitsCRT@D@ATL@@@@@ATL@@QAE@XZ
  0011e	8d 4d 08	 lea	 ecx, DWORD PTR _strTreeBranch$[ebp]
  00121	ff 15 00 00 00
	00		 call	 DWORD PTR __imp_??1?$CStringT@DV?$StrTraitMFC_DLL@DV?$ChTraitsCRT@D@ATL@@@@@ATL@@QAE@XZ
  00127	8b c6		 mov	 eax, esi

; 296  : }

  00129	8b 4d f4	 mov	 ecx, DWORD PTR __$EHRec$[ebp]
  0012c	64 89 0d 00 00
	00 00		 mov	 DWORD PTR fs:0, ecx
  00133	59		 pop	 ecx
  00134	5f		 pop	 edi
  00135	5e		 pop	 esi
  00136	5b		 pop	 ebx
  00137	8b e5		 mov	 esp, ebp
  00139	5d		 pop	 ebp
  0013a	c2 08 00	 ret	 8
_TEXT	ENDS
;	COMDAT text$x
text$x	SEGMENT
__unwindfunclet$?FindString@CTreeDropList@@IAEPAU_TREEITEM@@V?$CStringT@DV?$StrTraitMFC_DLL@DV?$ChTraitsCRT@D@ATL@@@@@ATL@@PAU2@@Z$0:
  00000	8d 4d 08	 lea	 ecx, DWORD PTR _strTreeBranch$[ebp]
  00003	ff 25 00 00 00
	00		 jmp	 DWORD PTR __imp_??1?$CStringT@DV?$StrTraitMFC_DLL@DV?$ChTraitsCRT@D@ATL@@@@@ATL@@QAE@XZ
__unwindfunclet$?FindString@CTreeDropList@@IAEPAU_TREEITEM@@V?$CStringT@DV?$StrTraitMFC_DLL@DV?$ChTraitsCRT@D@ATL@@@@@ATL@@PAU2@@Z$1:
  00009	8d 4d ec	 lea	 ecx, DWORD PTR _strRoot$[ebp]
  0000c	ff 25 00 00 00
	00		 jmp	 DWORD PTR __imp_??1?$CStringT@DV?$StrTraitMFC_DLL@DV?$ChTraitsCRT@D@ATL@@@@@ATL@@QAE@XZ
__unwindfunclet$?FindString@CTreeDropList@@IAEPAU_TREEITEM@@V?$CStringT@DV?$StrTraitMFC_DLL@DV?$ChTraitsCRT@D@ATL@@@@@ATL@@PAU2@@Z$2:
  00012	8d 4d f0	 lea	 ecx, DWORD PTR _strRemainder$[ebp]
  00015	ff 25 00 00 00
	00		 jmp	 DWORD PTR __imp_??1?$CStringT@DV?$StrTraitMFC_DLL@DV?$ChTraitsCRT@D@ATL@@@@@ATL@@QAE@XZ
__unwindfunclet$?FindString@CTreeDropList@@IAEPAU_TREEITEM@@V?$CStringT@DV?$StrTraitMFC_DLL@DV?$ChTraitsCRT@D@ATL@@@@@ATL@@PAU2@@Z$4:
  0001b	8d 4d e8	 lea	 ecx, DWORD PTR $T2[ebp]
  0001e	ff 25 00 00 00
	00		 jmp	 DWORD PTR __imp_??1?$CStringT@DV?$StrTraitMFC_DLL@DV?$ChTraitsCRT@D@ATL@@@@@ATL@@QAE@XZ
  00024	cc		 int	 3
  00025	cc		 int	 3
  00026	cc		 int	 3
  00027	cc		 int	 3
  00028	cc		 int	 3
__ehhandler$?FindString@CTreeDropList@@IAEPAU_TREEITEM@@V?$CStringT@DV?$StrTraitMFC_DLL@DV?$ChTraitsCRT@D@ATL@@@@@ATL@@PAU2@@Z:
  00029	90		 npad	 1
  0002a	90		 npad	 1
  0002b	8b 54 24 08	 mov	 edx, DWORD PTR [esp+8]
  0002f	8d 42 0c	 lea	 eax, DWORD PTR [edx+12]
  00032	8b 4a e4	 mov	 ecx, DWORD PTR [edx-28]
  00035	33 c8		 xor	 ecx, eax
  00037	e8 00 00 00 00	 call	 @__security_check_cookie@4
  0003c	b8 00 00 00 00	 mov	 eax, OFFSET __ehfuncinfo$?FindString@CTreeDropList@@IAEPAU_TREEITEM@@V?$CStringT@DV?$StrTraitMFC_DLL@DV?$ChTraitsCRT@D@ATL@@@@@ATL@@PAU2@@Z
  00041	e9 00 00 00 00	 jmp	 ___CxxFrameHandler3
text$x	ENDS
?FindString@CTreeDropList@@IAEPAU_TREEITEM@@V?$CStringT@DV?$StrTraitMFC_DLL@DV?$ChTraitsCRT@D@ATL@@@@@ATL@@PAU2@@Z ENDP ; CTreeDropList::FindString
; Function compile flags: /Ogtp
; File D:\git\src\IBK\IBK_DRFN\ProjSrc\SrcChartEx\ChartAddIn\ChartDesignPropertyAddIn\ChartDesignPropertyAddIn\TreeDropList.cpp
; File C:\Program Files (x86)\Microsoft Visual Studio\2019\Community\VC\Tools\MSVC\14.29.30133\atlmfc\include\atlsimpstr.h
; File D:\git\src\IBK\IBK_DRFN\ProjSrc\SrcChartEx\ChartAddIn\ChartDesignPropertyAddIn\ChartDesignPropertyAddIn\TreeDropList.cpp
; File C:\Program Files (x86)\Microsoft Visual Studio\2019\Community\VC\Tools\MSVC\14.29.30133\atlmfc\include\afxcmn.inl
; File D:\git\src\IBK\IBK_DRFN\ProjSrc\SrcChartEx\ChartAddIn\ChartDesignPropertyAddIn\ChartDesignPropertyAddIn\TreeDropList.cpp
; File C:\Program Files (x86)\Microsoft Visual Studio\2019\Community\VC\Tools\MSVC\14.29.30133\atlmfc\include\atlsimpstr.h
; File D:\git\src\IBK\IBK_DRFN\ProjSrc\SrcChartEx\ChartAddIn\ChartDesignPropertyAddIn\ChartDesignPropertyAddIn\TreeDropList.cpp
; File C:\Program Files (x86)\Microsoft Visual Studio\2019\Community\VC\Tools\MSVC\14.29.30133\atlmfc\include\afxcmn.inl
; File D:\git\src\IBK\IBK_DRFN\ProjSrc\SrcChartEx\ChartAddIn\ChartDesignPropertyAddIn\ChartDesignPropertyAddIn\TreeDropList.cpp
;	COMDAT ?FindString@CTreeDropList@@IAEPAU_TREEITEM@@PAU2@V?$CStringT@DV?$StrTraitMFC_DLL@DV?$ChTraitsCRT@D@ATL@@@@@ATL@@AAPAU2@AAV34@3@Z
_TEXT	SEGMENT
__$EHRec$ = -12						; size = 12
_hParent$ = 8						; size = 4
_strTreeBranch$ = 12					; size = 4
_hPreviousMatch$ = 16					; size = 4
_strRoot$ = 20						; size = 4
_strRemainder$ = 24					; size = 4
?FindString@CTreeDropList@@IAEPAU_TREEITEM@@PAU2@V?$CStringT@DV?$StrTraitMFC_DLL@DV?$ChTraitsCRT@D@ATL@@@@@ATL@@AAPAU2@AAV34@3@Z PROC ; CTreeDropList::FindString, COMDAT
; _this$ = ecx

; 300  : {

  00000	55		 push	 ebp
  00001	8b ec		 mov	 ebp, esp
  00003	6a ff		 push	 -1
  00005	68 00 00 00 00	 push	 __ehhandler$?FindString@CTreeDropList@@IAEPAU_TREEITEM@@PAU2@V?$CStringT@DV?$StrTraitMFC_DLL@DV?$ChTraitsCRT@D@ATL@@@@@ATL@@AAPAU2@AAV34@3@Z
  0000a	64 a1 00 00 00
	00		 mov	 eax, DWORD PTR fs:0
  00010	50		 push	 eax
  00011	53		 push	 ebx
  00012	56		 push	 esi
  00013	57		 push	 edi
  00014	a1 00 00 00 00	 mov	 eax, DWORD PTR ___security_cookie
  00019	33 c5		 xor	 eax, ebp
  0001b	50		 push	 eax
  0001c	8d 45 f4	 lea	 eax, DWORD PTR __$EHRec$[ebp]
  0001f	64 a3 00 00 00
	00		 mov	 DWORD PTR fs:0, eax
  00025	8b d9		 mov	 ebx, ecx

; 301  : 	HTREEITEM hItem = hParent;
; 302  : 	HTREEITEM hMatch = NULL;
; 303  : 
; 304  : 	hPreviousMatch = hParent;

  00027	8b 4d 10	 mov	 ecx, DWORD PTR _hPreviousMatch$[ebp]
  0002a	8b 45 08	 mov	 eax, DWORD PTR _hParent$[ebp]

; 305  : 
; 306  : 
; 307  : 	SplitPath (strTreeBranch, strRoot, strRemainder);

  0002d	8b 7d 18	 mov	 edi, DWORD PTR _strRemainder$[ebp]
  00030	8b 75 14	 mov	 esi, DWORD PTR _strRoot$[ebp]
  00033	57		 push	 edi
  00034	89 01		 mov	 DWORD PTR [ecx], eax
  00036	8d 45 0c	 lea	 eax, DWORD PTR _strTreeBranch$[ebp]
  00039	56		 push	 esi
  0003a	50		 push	 eax
  0003b	8b cb		 mov	 ecx, ebx
  0003d	c7 45 fc 00 00
	00 00		 mov	 DWORD PTR __$EHRec$[ebp+8], 0
  00044	e8 00 00 00 00	 call	 ?SplitPath@CTreeDropList@@IAEXABV?$CStringT@DV?$StrTraitMFC_DLL@DV?$ChTraitsCRT@D@ATL@@@@@ATL@@AAV23@1@Z ; CTreeDropList::SplitPath
; File C:\Program Files (x86)\Microsoft Visual Studio\2019\Community\VC\Tools\MSVC\14.29.30133\atlmfc\include\atlsimpstr.h

; 533  : 		return( GetLength() == 0 );

  00049	8b 06		 mov	 eax, DWORD PTR [esi]
  0004b	83 78 f4 00	 cmp	 DWORD PTR [eax-12], 0
; File D:\git\src\IBK\IBK_DRFN\ProjSrc\SrcChartEx\ChartAddIn\ChartDesignPropertyAddIn\ChartDesignPropertyAddIn\TreeDropList.cpp

; 308  : 	if (strRoot.IsEmpty ())

  0004f	75 04		 jne	 SHORT $LN4@FindString
  00051	33 f6		 xor	 esi, esi
  00053	eb 73		 jmp	 SHORT $LN8@FindString
$LN4@FindString:

; 309  : 	{
; 310  : 		//Nothing to search for
; 311  : 		return NULL;
; 312  : 	}
; 313  : 
; 314  : 	 //special case when the tree is empty
; 315  : 	 if (hParent == NULL)

  00055	8b 45 08	 mov	 eax, DWORD PTR _hParent$[ebp]
  00058	85 c0		 test	 eax, eax
  0005a	75 11		 jne	 SHORT $LN5@FindString
; File C:\Program Files (x86)\Microsoft Visual Studio\2019\Community\VC\Tools\MSVC\14.29.30133\atlmfc\include\afxcmn.inl

; 300  : 	{ ASSERT(::IsWindow(m_hWnd)); return (HTREEITEM)::SendMessage(m_hWnd, TVM_GETNEXTITEM, TVGN_CHILD, (LPARAM)hItem); }

  0005c	50		 push	 eax
  0005d	6a 04		 push	 4
  0005f	68 0a 11 00 00	 push	 4362			; 0000110aH
  00064	ff 73 20	 push	 DWORD PTR [ebx+32]
  00067	ff 15 00 00 00
	00		 call	 DWORD PTR __imp__SendMessageA@16
$LN5@FindString:
; File D:\git\src\IBK\IBK_DRFN\ProjSrc\SrcChartEx\ChartAddIn\ChartDesignPropertyAddIn\ChartDesignPropertyAddIn\TreeDropList.cpp

; 324  : 	 hMatch = MatchSibling (hItem, strRoot);

  0006d	56		 push	 esi
  0006e	50		 push	 eax
  0006f	8b cb		 mov	 ecx, ebx
  00071	e8 00 00 00 00	 call	 ?MatchSibling@CTreeDropList@@IAEPAU_TREEITEM@@PAU2@AAV?$CStringT@DV?$StrTraitMFC_DLL@DV?$ChTraitsCRT@D@ATL@@@@@ATL@@@Z ; CTreeDropList::MatchSibling
  00076	8b f0		 mov	 esi, eax

; 325  : 	 while (hMatch && !strRemainder.IsEmpty())

  00078	85 f6		 test	 esi, esi
  0007a	74 4c		 je	 SHORT $LN8@FindString
  0007c	0f 1f 40 00	 npad	 4
$LL2@FindString:
; File C:\Program Files (x86)\Microsoft Visual Studio\2019\Community\VC\Tools\MSVC\14.29.30133\atlmfc\include\atlsimpstr.h

; 533  : 		return( GetLength() == 0 );

  00080	8b 07		 mov	 eax, DWORD PTR [edi]
  00082	83 78 f4 00	 cmp	 DWORD PTR [eax-12], 0
; File D:\git\src\IBK\IBK_DRFN\ProjSrc\SrcChartEx\ChartAddIn\ChartDesignPropertyAddIn\ChartDesignPropertyAddIn\TreeDropList.cpp

; 325  : 	 while (hMatch && !strRemainder.IsEmpty())

  00086	74 40		 je	 SHORT $LN8@FindString

; 326  : 	 {
; 327  :  		hPreviousMatch = hMatch;

  00088	8b 45 10	 mov	 eax, DWORD PTR _hPreviousMatch$[ebp]

; 328  : 		strTreeBranch = strRemainder;

  0008b	8d 4d 0c	 lea	 ecx, DWORD PTR _strTreeBranch$[ebp]
  0008e	57		 push	 edi
  0008f	89 30		 mov	 DWORD PTR [eax], esi
  00091	ff 15 00 00 00
	00		 call	 DWORD PTR __imp_??4?$CStringT@DV?$StrTraitMFC_DLL@DV?$ChTraitsCRT@D@ATL@@@@@ATL@@QAEAAV01@ABV01@@Z

; 329  : 		SplitPath (strTreeBranch, strRoot, strRemainder);

  00097	57		 push	 edi
  00098	ff 75 14	 push	 DWORD PTR _strRoot$[ebp]
  0009b	8d 45 0c	 lea	 eax, DWORD PTR _strTreeBranch$[ebp]
  0009e	8b cb		 mov	 ecx, ebx
  000a0	50		 push	 eax
  000a1	e8 00 00 00 00	 call	 ?SplitPath@CTreeDropList@@IAEXABV?$CStringT@DV?$StrTraitMFC_DLL@DV?$ChTraitsCRT@D@ATL@@@@@ATL@@AAV23@1@Z ; CTreeDropList::SplitPath
; File C:\Program Files (x86)\Microsoft Visual Studio\2019\Community\VC\Tools\MSVC\14.29.30133\atlmfc\include\afxcmn.inl

; 300  : 	{ ASSERT(::IsWindow(m_hWnd)); return (HTREEITEM)::SendMessage(m_hWnd, TVM_GETNEXTITEM, TVGN_CHILD, (LPARAM)hItem); }

  000a6	56		 push	 esi
  000a7	6a 04		 push	 4
  000a9	68 0a 11 00 00	 push	 4362			; 0000110aH
  000ae	ff 73 20	 push	 DWORD PTR [ebx+32]
  000b1	ff 15 00 00 00
	00		 call	 DWORD PTR __imp__SendMessageA@16
; File D:\git\src\IBK\IBK_DRFN\ProjSrc\SrcChartEx\ChartAddIn\ChartDesignPropertyAddIn\ChartDesignPropertyAddIn\TreeDropList.cpp

; 331  : 		hMatch = MatchSibling (hItem, strRoot);

  000b7	ff 75 14	 push	 DWORD PTR _strRoot$[ebp]
  000ba	8b cb		 mov	 ecx, ebx
  000bc	50		 push	 eax
  000bd	e8 00 00 00 00	 call	 ?MatchSibling@CTreeDropList@@IAEPAU_TREEITEM@@PAU2@AAV?$CStringT@DV?$StrTraitMFC_DLL@DV?$ChTraitsCRT@D@ATL@@@@@ATL@@@Z ; CTreeDropList::MatchSibling
  000c2	8b f0		 mov	 esi, eax
  000c4	85 f6		 test	 esi, esi
  000c6	75 b8		 jne	 SHORT $LL2@FindString
$LN8@FindString:

; 332  : 	 }
; 333  : 
; 334  :     return hMatch;

  000c8	8d 4d 0c	 lea	 ecx, DWORD PTR _strTreeBranch$[ebp]
  000cb	ff 15 00 00 00
	00		 call	 DWORD PTR __imp_??1?$CStringT@DV?$StrTraitMFC_DLL@DV?$ChTraitsCRT@D@ATL@@@@@ATL@@QAE@XZ
  000d1	8b c6		 mov	 eax, esi

; 335  : }

  000d3	8b 4d f4	 mov	 ecx, DWORD PTR __$EHRec$[ebp]
  000d6	64 89 0d 00 00
	00 00		 mov	 DWORD PTR fs:0, ecx
  000dd	59		 pop	 ecx
  000de	5f		 pop	 edi
  000df	5e		 pop	 esi
  000e0	5b		 pop	 ebx
  000e1	8b e5		 mov	 esp, ebp
  000e3	5d		 pop	 ebp
  000e4	c2 14 00	 ret	 20			; 00000014H
_TEXT	ENDS
;	COMDAT text$x
text$x	SEGMENT
__unwindfunclet$?FindString@CTreeDropList@@IAEPAU_TREEITEM@@PAU2@V?$CStringT@DV?$StrTraitMFC_DLL@DV?$ChTraitsCRT@D@ATL@@@@@ATL@@AAPAU2@AAV34@3@Z$0:
  00000	8d 4d 0c	 lea	 ecx, DWORD PTR _strTreeBranch$[ebp]
  00003	ff 25 00 00 00
	00		 jmp	 DWORD PTR __imp_??1?$CStringT@DV?$StrTraitMFC_DLL@DV?$ChTraitsCRT@D@ATL@@@@@ATL@@QAE@XZ
  00009	cc		 int	 3
  0000a	cc		 int	 3
  0000b	cc		 int	 3
  0000c	cc		 int	 3
  0000d	cc		 int	 3
__ehhandler$?FindString@CTreeDropList@@IAEPAU_TREEITEM@@PAU2@V?$CStringT@DV?$StrTraitMFC_DLL@DV?$ChTraitsCRT@D@ATL@@@@@ATL@@AAPAU2@AAV34@3@Z:
  0000e	90		 npad	 1
  0000f	90		 npad	 1
  00010	8b 54 24 08	 mov	 edx, DWORD PTR [esp+8]
  00014	8d 42 0c	 lea	 eax, DWORD PTR [edx+12]
  00017	8b 4a f0	 mov	 ecx, DWORD PTR [edx-16]
  0001a	33 c8		 xor	 ecx, eax
  0001c	e8 00 00 00 00	 call	 @__security_check_cookie@4
  00021	b8 00 00 00 00	 mov	 eax, OFFSET __ehfuncinfo$?FindString@CTreeDropList@@IAEPAU_TREEITEM@@PAU2@V?$CStringT@DV?$StrTraitMFC_DLL@DV?$ChTraitsCRT@D@ATL@@@@@ATL@@AAPAU2@AAV34@3@Z
  00026	e9 00 00 00 00	 jmp	 ___CxxFrameHandler3
text$x	ENDS
?FindString@CTreeDropList@@IAEPAU_TREEITEM@@PAU2@V?$CStringT@DV?$StrTraitMFC_DLL@DV?$ChTraitsCRT@D@ATL@@@@@ATL@@AAPAU2@AAV34@3@Z ENDP ; CTreeDropList::FindString
; Function compile flags: /Ogtp
; File D:\git\src\IBK\IBK_DRFN\ProjSrc\SrcChartEx\ChartAddIn\ChartDesignPropertyAddIn\ChartDesignPropertyAddIn\TreeDropList.cpp
; File C:\Program Files (x86)\Microsoft Visual Studio\2019\Community\VC\Tools\MSVC\14.29.30133\atlmfc\include\cstringt.h
; File D:\git\src\IBK\IBK_DRFN\ProjSrc\SrcChartEx\ChartAddIn\ChartDesignPropertyAddIn\ChartDesignPropertyAddIn\TreeDropList.cpp
; File C:\Program Files (x86)\Microsoft Visual Studio\2019\Community\VC\Tools\MSVC\14.29.30133\atlmfc\include\afxcmn.inl
; File D:\git\src\IBK\IBK_DRFN\ProjSrc\SrcChartEx\ChartAddIn\ChartDesignPropertyAddIn\ChartDesignPropertyAddIn\TreeDropList.cpp
;	COMDAT ?MatchSibling@CTreeDropList@@IAEPAU_TREEITEM@@PAU2@AAV?$CStringT@DV?$StrTraitMFC_DLL@DV?$ChTraitsCRT@D@ATL@@@@@ATL@@@Z
_TEXT	SEGMENT
_NodeText$ = -16					; size = 4
__$EHRec$ = -12						; size = 12
$T2 = 8							; size = 4
_hItem$ = 8						; size = 4
_strMatch$ = 12						; size = 4
?MatchSibling@CTreeDropList@@IAEPAU_TREEITEM@@PAU2@AAV?$CStringT@DV?$StrTraitMFC_DLL@DV?$ChTraitsCRT@D@ATL@@@@@ATL@@@Z PROC ; CTreeDropList::MatchSibling, COMDAT
; _this$ = ecx

; 248  : {

  00000	55		 push	 ebp
  00001	8b ec		 mov	 ebp, esp
  00003	6a ff		 push	 -1
  00005	68 00 00 00 00	 push	 __ehhandler$?MatchSibling@CTreeDropList@@IAEPAU_TREEITEM@@PAU2@AAV?$CStringT@DV?$StrTraitMFC_DLL@DV?$ChTraitsCRT@D@ATL@@@@@ATL@@@Z
  0000a	64 a1 00 00 00
	00		 mov	 eax, DWORD PTR fs:0
  00010	50		 push	 eax
  00011	51		 push	 ecx
  00012	53		 push	 ebx
  00013	56		 push	 esi
  00014	57		 push	 edi
  00015	a1 00 00 00 00	 mov	 eax, DWORD PTR ___security_cookie
  0001a	33 c5		 xor	 eax, ebp
  0001c	50		 push	 eax
  0001d	8d 45 f4	 lea	 eax, DWORD PTR __$EHRec$[ebp]
  00020	64 a3 00 00 00
	00		 mov	 DWORD PTR fs:0, eax
  00026	8b f9		 mov	 edi, ecx

; 249  : 	CString NodeText;

  00028	8d 4d f0	 lea	 ecx, DWORD PTR _NodeText$[ebp]
  0002b	ff 15 00 00 00
	00		 call	 DWORD PTR __imp_??0?$CStringT@DV?$StrTraitMFC_DLL@DV?$ChTraitsCRT@D@ATL@@@@@ATL@@QAE@XZ

; 250  : 	HTREEITEM hSibling = NULL;
; 251  : 	if (hItem)

  00031	8b 45 08	 mov	 eax, DWORD PTR _hItem$[ebp]
  00034	33 f6		 xor	 esi, esi
  00036	c7 45 fc 00 00
	00 00		 mov	 DWORD PTR __$EHRec$[ebp+8], 0
  0003d	85 c0		 test	 eax, eax
  0003f	74 5b		 je	 SHORT $LN17@MatchSibli

; 252  : 	{
; 253  : 		hSibling = hItem;

  00041	8b 1d 00 00 00
	00		 mov	 ebx, DWORD PTR __imp__SendMessageA@16
  00047	8b f0		 mov	 esi, eax
  00049	0f 1f 80 00 00
	00 00		 npad	 7
$LL2@MatchSibli:

; 254  : 		while (hSibling)
; 255  : 		{
; 256  : 			NodeText = GetItemText (hSibling);

  00050	56		 push	 esi
  00051	8d 45 08	 lea	 eax, DWORD PTR $T2[ebp]
  00054	8b cf		 mov	 ecx, edi
  00056	50		 push	 eax
  00057	e8 00 00 00 00	 call	 ?GetItemText@CTreeCtrl@@QBE?AV?$CStringT@DV?$StrTraitMFC_DLL@DV?$ChTraitsCRT@D@ATL@@@@@ATL@@PAU_TREEITEM@@@Z ; CTreeCtrl::GetItemText
  0005c	50		 push	 eax
  0005d	8d 4d f0	 lea	 ecx, DWORD PTR _NodeText$[ebp]
  00060	c6 45 fc 01	 mov	 BYTE PTR __$EHRec$[ebp+8], 1
  00064	ff 15 00 00 00
	00		 call	 DWORD PTR __imp_??4?$CStringT@DV?$StrTraitMFC_DLL@DV?$ChTraitsCRT@D@ATL@@@@@ATL@@QAEAAV01@ABV01@@Z
  0006a	8d 4d 08	 lea	 ecx, DWORD PTR $T2[ebp]
  0006d	c6 45 fc 00	 mov	 BYTE PTR __$EHRec$[ebp+8], 0
  00071	ff 15 00 00 00
	00		 call	 DWORD PTR __imp_??1?$CStringT@DV?$StrTraitMFC_DLL@DV?$ChTraitsCRT@D@ATL@@@@@ATL@@QAE@XZ
; File C:\Program Files (x86)\Microsoft Visual Studio\2019\Community\VC\Tools\MSVC\14.29.30133\atlmfc\include\cstringt.h

; 2479 : 		return(str1.Compare(str2) == 0);

  00077	8b 45 0c	 mov	 eax, DWORD PTR _strMatch$[ebp]
  0007a	8d 4d f0	 lea	 ecx, DWORD PTR _NodeText$[ebp]
  0007d	ff 30		 push	 DWORD PTR [eax]
  0007f	ff 15 00 00 00
	00		 call	 DWORD PTR __imp_?Compare@?$CStringT@DV?$StrTraitMFC_DLL@DV?$ChTraitsCRT@D@ATL@@@@@ATL@@QBEHPBD@Z
  00085	85 c0		 test	 eax, eax
; File D:\git\src\IBK\IBK_DRFN\ProjSrc\SrcChartEx\ChartAddIn\ChartDesignPropertyAddIn\ChartDesignPropertyAddIn\TreeDropList.cpp

; 257  : 			if (NodeText == strMatch)

  00087	74 13		 je	 SHORT $LN17@MatchSibli
; File C:\Program Files (x86)\Microsoft Visual Studio\2019\Community\VC\Tools\MSVC\14.29.30133\atlmfc\include\afxcmn.inl

; 302  : 	{ ASSERT(::IsWindow(m_hWnd)); return (HTREEITEM)::SendMessage(m_hWnd, TVM_GETNEXTITEM, TVGN_NEXT, (LPARAM)hItem); }

  00089	56		 push	 esi
  0008a	6a 01		 push	 1
  0008c	68 0a 11 00 00	 push	 4362			; 0000110aH
  00091	ff 77 20	 push	 DWORD PTR [edi+32]
  00094	ff d3		 call	 ebx
; File D:\git\src\IBK\IBK_DRFN\ProjSrc\SrcChartEx\ChartAddIn\ChartDesignPropertyAddIn\ChartDesignPropertyAddIn\TreeDropList.cpp

; 263  : 				hSibling = GetNextSiblingItem (hSibling);

  00096	8b f0		 mov	 esi, eax
  00098	85 f6		 test	 esi, esi
  0009a	75 b4		 jne	 SHORT $LL2@MatchSibli
$LN17@MatchSibli:

; 264  : 			}
; 265  : 		}
; 266  : 	}
; 267  : 	return hSibling;

  0009c	8d 4d f0	 lea	 ecx, DWORD PTR _NodeText$[ebp]
  0009f	ff 15 00 00 00
	00		 call	 DWORD PTR __imp_??1?$CStringT@DV?$StrTraitMFC_DLL@DV?$ChTraitsCRT@D@ATL@@@@@ATL@@QAE@XZ
  000a5	8b c6		 mov	 eax, esi

; 268  : }

  000a7	8b 4d f4	 mov	 ecx, DWORD PTR __$EHRec$[ebp]
  000aa	64 89 0d 00 00
	00 00		 mov	 DWORD PTR fs:0, ecx
  000b1	59		 pop	 ecx
  000b2	5f		 pop	 edi
  000b3	5e		 pop	 esi
  000b4	5b		 pop	 ebx
  000b5	8b e5		 mov	 esp, ebp
  000b7	5d		 pop	 ebp
  000b8	c2 08 00	 ret	 8
_TEXT	ENDS
;	COMDAT text$x
text$x	SEGMENT
__unwindfunclet$?MatchSibling@CTreeDropList@@IAEPAU_TREEITEM@@PAU2@AAV?$CStringT@DV?$StrTraitMFC_DLL@DV?$ChTraitsCRT@D@ATL@@@@@ATL@@@Z$0:
  00000	8d 4d f0	 lea	 ecx, DWORD PTR _NodeText$[ebp]
  00003	ff 25 00 00 00
	00		 jmp	 DWORD PTR __imp_??1?$CStringT@DV?$StrTraitMFC_DLL@DV?$ChTraitsCRT@D@ATL@@@@@ATL@@QAE@XZ
__unwindfunclet$?MatchSibling@CTreeDropList@@IAEPAU_TREEITEM@@PAU2@AAV?$CStringT@DV?$StrTraitMFC_DLL@DV?$ChTraitsCRT@D@ATL@@@@@ATL@@@Z$1:
  00009	8d 4d 08	 lea	 ecx, DWORD PTR $T2[ebp]
  0000c	ff 25 00 00 00
	00		 jmp	 DWORD PTR __imp_??1?$CStringT@DV?$StrTraitMFC_DLL@DV?$ChTraitsCRT@D@ATL@@@@@ATL@@QAE@XZ
  00012	cc		 int	 3
  00013	cc		 int	 3
  00014	cc		 int	 3
  00015	cc		 int	 3
  00016	cc		 int	 3
__ehhandler$?MatchSibling@CTreeDropList@@IAEPAU_TREEITEM@@PAU2@AAV?$CStringT@DV?$StrTraitMFC_DLL@DV?$ChTraitsCRT@D@ATL@@@@@ATL@@@Z:
  00017	90		 npad	 1
  00018	90		 npad	 1
  00019	8b 54 24 08	 mov	 edx, DWORD PTR [esp+8]
  0001d	8d 42 0c	 lea	 eax, DWORD PTR [edx+12]
  00020	8b 4a ec	 mov	 ecx, DWORD PTR [edx-20]
  00023	33 c8		 xor	 ecx, eax
  00025	e8 00 00 00 00	 call	 @__security_check_cookie@4
  0002a	b8 00 00 00 00	 mov	 eax, OFFSET __ehfuncinfo$?MatchSibling@CTreeDropList@@IAEPAU_TREEITEM@@PAU2@AAV?$CStringT@DV?$StrTraitMFC_DLL@DV?$ChTraitsCRT@D@ATL@@@@@ATL@@@Z
  0002f	e9 00 00 00 00	 jmp	 ___CxxFrameHandler3
text$x	ENDS
?MatchSibling@CTreeDropList@@IAEPAU_TREEITEM@@PAU2@AAV?$CStringT@DV?$StrTraitMFC_DLL@DV?$ChTraitsCRT@D@ATL@@@@@ATL@@@Z ENDP ; CTreeDropList::MatchSibling
; Function compile flags: /Ogtp
; File D:\git\src\IBK\IBK_DRFN\ProjSrc\SrcChartEx\ChartAddIn\ChartDesignPropertyAddIn\ChartDesignPropertyAddIn\TreeDropList.cpp
; File C:\Program Files (x86)\Microsoft Visual Studio\2019\Community\VC\Tools\MSVC\14.29.30133\atlmfc\include\atlsimpstr.h
; File D:\git\src\IBK\IBK_DRFN\ProjSrc\SrcChartEx\ChartAddIn\ChartDesignPropertyAddIn\ChartDesignPropertyAddIn\TreeDropList.cpp
;	COMDAT ?SplitPath@CTreeDropList@@IAEXABV?$CStringT@DV?$StrTraitMFC_DLL@DV?$ChTraitsCRT@D@ATL@@@@@ATL@@AAV23@1@Z
_TEXT	SEGMENT
__$EHRec$ = -12						; size = 12
$T2 = 8							; size = 4
_strTreeBranch$ = 8					; size = 4
$T3 = 12						; size = 4
_strRoot$ = 12						; size = 4
_strRemainder$ = 16					; size = 4
?SplitPath@CTreeDropList@@IAEXABV?$CStringT@DV?$StrTraitMFC_DLL@DV?$ChTraitsCRT@D@ATL@@@@@ATL@@AAV23@1@Z PROC ; CTreeDropList::SplitPath, COMDAT
; _this$ = ecx

; 221  : { 

  00000	55		 push	 ebp
  00001	8b ec		 mov	 ebp, esp
  00003	6a ff		 push	 -1
  00005	68 00 00 00 00	 push	 __ehhandler$?SplitPath@CTreeDropList@@IAEXABV?$CStringT@DV?$StrTraitMFC_DLL@DV?$ChTraitsCRT@D@ATL@@@@@ATL@@AAV23@1@Z
  0000a	64 a1 00 00 00
	00		 mov	 eax, DWORD PTR fs:0
  00010	50		 push	 eax
  00011	53		 push	 ebx
  00012	56		 push	 esi
  00013	57		 push	 edi
  00014	a1 00 00 00 00	 mov	 eax, DWORD PTR ___security_cookie
  00019	33 c5		 xor	 eax, ebp
  0001b	50		 push	 eax
  0001c	8d 45 f4	 lea	 eax, DWORD PTR __$EHRec$[ebp]
  0001f	64 a3 00 00 00
	00		 mov	 DWORD PTR fs:0, eax

; 222  :     int DelimiterPos = strTreeBranch.Find (m_Delimiter);

  00025	0f b6 81 a0 00
	00 00		 movzx	 eax, BYTE PTR [ecx+160]
  0002c	8b 75 08	 mov	 esi, DWORD PTR _strTreeBranch$[ebp]
  0002f	8b ce		 mov	 ecx, esi
  00031	6a 00		 push	 0
  00033	50		 push	 eax
  00034	ff 15 00 00 00
	00		 call	 DWORD PTR __imp_?Find@?$CStringT@DV?$StrTraitMFC_DLL@DV?$ChTraitsCRT@D@ATL@@@@@ATL@@QBEHDH@Z

; 223  : 
; 224  : 	strRoot      = _T("");

  0003a	8b 5d 0c	 mov	 ebx, DWORD PTR _strRoot$[ebp]
  0003d	8b f8		 mov	 edi, eax
  0003f	68 00 00 00 00	 push	 OFFSET ??_C@_00CNPNBAHC@@
  00044	8b cb		 mov	 ecx, ebx
  00046	ff 15 00 00 00
	00		 call	 DWORD PTR __imp_??4?$CStringT@DV?$StrTraitMFC_DLL@DV?$ChTraitsCRT@D@ATL@@@@@ATL@@QAEAAV01@PBD@Z

; 225  : 	strRemainder = _T("");

  0004c	8b 4d 10	 mov	 ecx, DWORD PTR _strRemainder$[ebp]
  0004f	68 00 00 00 00	 push	 OFFSET ??_C@_00CNPNBAHC@@
  00054	ff 15 00 00 00
	00		 call	 DWORD PTR __imp_??4?$CStringT@DV?$StrTraitMFC_DLL@DV?$ChTraitsCRT@D@ATL@@@@@ATL@@QAEAAV01@PBD@Z

; 226  : 
; 227  : 	if (DelimiterPos == -1)

  0005a	83 ff ff	 cmp	 edi, -1
  0005d	75 1d		 jne	 SHORT $LN2@SplitPath

; 228  : 	{
; 229  : 		strRoot = strTreeBranch;

  0005f	56		 push	 esi
  00060	8b cb		 mov	 ecx, ebx
  00062	ff 15 00 00 00
	00		 call	 DWORD PTR __imp_??4?$CStringT@DV?$StrTraitMFC_DLL@DV?$ChTraitsCRT@D@ATL@@@@@ATL@@QAEAAV01@ABV01@@Z

; 243  : 	}
; 244  : 
; 245  : }

  00068	8b 4d f4	 mov	 ecx, DWORD PTR __$EHRec$[ebp]
  0006b	64 89 0d 00 00
	00 00		 mov	 DWORD PTR fs:0, ecx
  00072	59		 pop	 ecx
  00073	5f		 pop	 edi
  00074	5e		 pop	 esi
  00075	5b		 pop	 ebx
  00076	8b e5		 mov	 esp, ebp
  00078	5d		 pop	 ebp
  00079	c2 0c 00	 ret	 12			; 0000000cH
$LN2@SplitPath:

; 230  : 		return;
; 231  : 	}
; 232  : 
; 233  : 	//Separate root substring
; 234  : 	if (DelimiterPos > 0)

  0007c	85 ff		 test	 edi, edi
  0007e	7e 2f		 jle	 SHORT $LN3@SplitPath

; 235  : 	{
; 236  : 		strRoot = strTreeBranch.Mid (0, DelimiterPos);

  00080	57		 push	 edi
  00081	6a 00		 push	 0
  00083	8d 45 08	 lea	 eax, DWORD PTR $T2[ebp]
  00086	8b ce		 mov	 ecx, esi
  00088	50		 push	 eax
  00089	ff 15 00 00 00
	00		 call	 DWORD PTR __imp_?Mid@?$CStringT@DV?$StrTraitMFC_DLL@DV?$ChTraitsCRT@D@ATL@@@@@ATL@@QBE?AV12@HH@Z
  0008f	50		 push	 eax
  00090	8b cb		 mov	 ecx, ebx
  00092	c7 45 fc 00 00
	00 00		 mov	 DWORD PTR __$EHRec$[ebp+8], 0
  00099	ff 15 00 00 00
	00		 call	 DWORD PTR __imp_??4?$CStringT@DV?$StrTraitMFC_DLL@DV?$ChTraitsCRT@D@ATL@@@@@ATL@@QAEAAV01@ABV01@@Z
  0009f	8d 4d 08	 lea	 ecx, DWORD PTR $T2[ebp]
  000a2	c7 45 fc ff ff
	ff ff		 mov	 DWORD PTR __$EHRec$[ebp+8], -1
  000a9	ff 15 00 00 00
	00		 call	 DWORD PTR __imp_??1?$CStringT@DV?$StrTraitMFC_DLL@DV?$ChTraitsCRT@D@ATL@@@@@ATL@@QAE@XZ
$LN3@SplitPath:
; File C:\Program Files (x86)\Microsoft Visual Studio\2019\Community\VC\Tools\MSVC\14.29.30133\atlmfc\include\atlsimpstr.h

; 519  : 		return( GetData()->nDataLength );

  000af	8b 06		 mov	 eax, DWORD PTR [esi]
; File D:\git\src\IBK\IBK_DRFN\ProjSrc\SrcChartEx\ChartAddIn\ChartDesignPropertyAddIn\ChartDesignPropertyAddIn\TreeDropList.cpp

; 240  : 	if (DelimiterPos < strTreeBranch.GetLength ())

  000b1	3b 78 f4	 cmp	 edi, DWORD PTR [eax-12]
  000b4	7d 2a		 jge	 SHORT $LN4@SplitPath

; 241  : 	{
; 242  : 	   strRemainder = strTreeBranch.Mid (DelimiterPos + 1);

  000b6	8d 47 01	 lea	 eax, DWORD PTR [edi+1]
  000b9	8b ce		 mov	 ecx, esi
  000bb	50		 push	 eax
  000bc	8d 45 0c	 lea	 eax, DWORD PTR $T3[ebp]
  000bf	50		 push	 eax
  000c0	ff 15 00 00 00
	00		 call	 DWORD PTR __imp_?Mid@?$CStringT@DV?$StrTraitMFC_DLL@DV?$ChTraitsCRT@D@ATL@@@@@ATL@@QBE?AV12@H@Z
  000c6	8b 4d 10	 mov	 ecx, DWORD PTR _strRemainder$[ebp]
  000c9	50		 push	 eax
  000ca	c7 45 fc 01 00
	00 00		 mov	 DWORD PTR __$EHRec$[ebp+8], 1
  000d1	ff 15 00 00 00
	00		 call	 DWORD PTR __imp_??4?$CStringT@DV?$StrTraitMFC_DLL@DV?$ChTraitsCRT@D@ATL@@@@@ATL@@QAEAAV01@ABV01@@Z
  000d7	8d 4d 0c	 lea	 ecx, DWORD PTR $T3[ebp]
  000da	ff 15 00 00 00
	00		 call	 DWORD PTR __imp_??1?$CStringT@DV?$StrTraitMFC_DLL@DV?$ChTraitsCRT@D@ATL@@@@@ATL@@QAE@XZ
$LN4@SplitPath:

; 243  : 	}
; 244  : 
; 245  : }

  000e0	8b 4d f4	 mov	 ecx, DWORD PTR __$EHRec$[ebp]
  000e3	64 89 0d 00 00
	00 00		 mov	 DWORD PTR fs:0, ecx
  000ea	59		 pop	 ecx
  000eb	5f		 pop	 edi
  000ec	5e		 pop	 esi
  000ed	5b		 pop	 ebx
  000ee	8b e5		 mov	 esp, ebp
  000f0	5d		 pop	 ebp
  000f1	c2 0c 00	 ret	 12			; 0000000cH
_TEXT	ENDS
;	COMDAT text$x
text$x	SEGMENT
__unwindfunclet$?SplitPath@CTreeDropList@@IAEXABV?$CStringT@DV?$StrTraitMFC_DLL@DV?$ChTraitsCRT@D@ATL@@@@@ATL@@AAV23@1@Z$0:
  00000	8d 4d 08	 lea	 ecx, DWORD PTR $T2[ebp]
  00003	ff 25 00 00 00
	00		 jmp	 DWORD PTR __imp_??1?$CStringT@DV?$StrTraitMFC_DLL@DV?$ChTraitsCRT@D@ATL@@@@@ATL@@QAE@XZ
__unwindfunclet$?SplitPath@CTreeDropList@@IAEXABV?$CStringT@DV?$StrTraitMFC_DLL@DV?$ChTraitsCRT@D@ATL@@@@@ATL@@AAV23@1@Z$1:
  00009	8d 4d 0c	 lea	 ecx, DWORD PTR $T3[ebp]
  0000c	ff 25 00 00 00
	00		 jmp	 DWORD PTR __imp_??1?$CStringT@DV?$StrTraitMFC_DLL@DV?$ChTraitsCRT@D@ATL@@@@@ATL@@QAE@XZ
  00012	cc		 int	 3
  00013	cc		 int	 3
  00014	cc		 int	 3
  00015	cc		 int	 3
  00016	cc		 int	 3
__ehhandler$?SplitPath@CTreeDropList@@IAEXABV?$CStringT@DV?$StrTraitMFC_DLL@DV?$ChTraitsCRT@D@ATL@@@@@ATL@@AAV23@1@Z:
  00017	90		 npad	 1
  00018	90		 npad	 1
  00019	8b 54 24 08	 mov	 edx, DWORD PTR [esp+8]
  0001d	8d 42 0c	 lea	 eax, DWORD PTR [edx+12]
  00020	8b 4a f0	 mov	 ecx, DWORD PTR [edx-16]
  00023	33 c8		 xor	 ecx, eax
  00025	e8 00 00 00 00	 call	 @__security_check_cookie@4
  0002a	b8 00 00 00 00	 mov	 eax, OFFSET __ehfuncinfo$?SplitPath@CTreeDropList@@IAEXABV?$CStringT@DV?$StrTraitMFC_DLL@DV?$ChTraitsCRT@D@ATL@@@@@ATL@@AAV23@1@Z
  0002f	e9 00 00 00 00	 jmp	 ___CxxFrameHandler3
text$x	ENDS
?SplitPath@CTreeDropList@@IAEXABV?$CStringT@DV?$StrTraitMFC_DLL@DV?$ChTraitsCRT@D@ATL@@@@@ATL@@AAV23@1@Z ENDP ; CTreeDropList::SplitPath
; Function compile flags: /Ogtp
; File D:\git\src\IBK\IBK_DRFN\ProjSrc\SrcChartEx\ChartAddIn\ChartDesignPropertyAddIn\ChartDesignPropertyAddIn\TreeDropList.cpp
; File C:\Program Files (x86)\Microsoft Visual Studio\2019\Community\VC\Tools\MSVC\14.29.30133\atlmfc\include\afxcmn.inl
; File D:\git\src\IBK\IBK_DRFN\ProjSrc\SrcChartEx\ChartAddIn\ChartDesignPropertyAddIn\ChartDesignPropertyAddIn\TreeDropList.cpp
;	COMDAT ??0CTreeDropList@@QAE@XZ
_TEXT	SEGMENT
_this$ = -16						; size = 4
__$EHRec$ = -12						; size = 12
??0CTreeDropList@@QAE@XZ PROC				; CTreeDropList::CTreeDropList, COMDAT
; _this$ = ecx

; 28   : {

  00000	55		 push	 ebp
  00001	8b ec		 mov	 ebp, esp
  00003	6a ff		 push	 -1
  00005	68 00 00 00 00	 push	 __ehhandler$??0CTreeDropList@@QAE@XZ
  0000a	64 a1 00 00 00
	00		 mov	 eax, DWORD PTR fs:0
  00010	50		 push	 eax
  00011	51		 push	 ecx
  00012	56		 push	 esi
  00013	a1 00 00 00 00	 mov	 eax, DWORD PTR ___security_cookie
  00018	33 c5		 xor	 eax, ebp
  0001a	50		 push	 eax
  0001b	8d 45 f4	 lea	 eax, DWORD PTR __$EHRec$[ebp]
  0001e	64 a3 00 00 00
	00		 mov	 DWORD PTR fs:0, eax
  00024	8b f1		 mov	 esi, ecx
  00026	89 75 f0	 mov	 DWORD PTR _this$[ebp], esi
; File C:\Program Files (x86)\Microsoft Visual Studio\2019\Community\VC\Tools\MSVC\14.29.30133\atlmfc\include\afxcmn.inl

; 264  : 	{ }

  00029	e8 00 00 00 00	 call	 ??0CWnd@@QAE@XZ		; CWnd::CWnd
; File D:\git\src\IBK\IBK_DRFN\ProjSrc\SrcChartEx\ChartAddIn\ChartDesignPropertyAddIn\ChartDesignPropertyAddIn\TreeDropList.cpp

; 28   : {

  0002e	6a 0a		 push	 10			; 0000000aH
  00030	8d 8e 80 00 00
	00		 lea	 ecx, DWORD PTR [esi+128]
  00036	c7 45 fc 00 00
	00 00		 mov	 DWORD PTR __$EHRec$[ebp+8], 0
  0003d	c7 06 00 00 00
	00		 mov	 DWORD PTR [esi], OFFSET ??_7CTreeDropList@@6B@
  00043	e8 00 00 00 00	 call	 ??0CStringList@@QAE@H@Z	; CStringList::CStringList

; 27   : CTreeDropList::CTreeDropList()  : m_pCombo (NULL)

  00048	c7 86 9c 00 00
	00 00 00 00 00	 mov	 DWORD PTR [esi+156], 0

; 29   : 	m_Delimiter = _T('/');
; 30   : 	m_CloseReason = e_KillFocus;
; 31   : 	m_bDropped = FALSE;
; 32   : 
; 33   : 	// (2008/1/14 - Seung-Won, Bae) for MultiLanguage.
; 34   : 	m_hOcxWnd = NULL;
; 35   : }

  00052	8b c6		 mov	 eax, esi
  00054	c6 86 a0 00 00
	00 2f		 mov	 BYTE PTR [esi+160], 47	; 0000002fH
  0005b	c7 86 a4 00 00
	00 02 00 00 00	 mov	 DWORD PTR [esi+164], 2
  00065	c7 86 a8 00 00
	00 00 00 00 00	 mov	 DWORD PTR [esi+168], 0
  0006f	c7 86 ac 00 00
	00 00 00 00 00	 mov	 DWORD PTR [esi+172], 0
  00079	8b 4d f4	 mov	 ecx, DWORD PTR __$EHRec$[ebp]
  0007c	64 89 0d 00 00
	00 00		 mov	 DWORD PTR fs:0, ecx
  00083	59		 pop	 ecx
  00084	5e		 pop	 esi
  00085	8b e5		 mov	 esp, ebp
  00087	5d		 pop	 ebp
  00088	c3		 ret	 0
_TEXT	ENDS
;	COMDAT text$x
text$x	SEGMENT
__unwindfunclet$??0CTreeDropList@@QAE@XZ$0:
  00000	8b 4d f0	 mov	 ecx, DWORD PTR _this$[ebp]
  00003	e9 00 00 00 00	 jmp	 ??1CTreeCtrl@@UAE@XZ	; CTreeCtrl::~CTreeCtrl
  00008	cc		 int	 3
  00009	cc		 int	 3
  0000a	cc		 int	 3
  0000b	cc		 int	 3
  0000c	cc		 int	 3
__ehhandler$??0CTreeDropList@@QAE@XZ:
  0000d	90		 npad	 1
  0000e	90		 npad	 1
  0000f	8b 54 24 08	 mov	 edx, DWORD PTR [esp+8]
  00013	8d 42 0c	 lea	 eax, DWORD PTR [edx+12]
  00016	8b 4a f4	 mov	 ecx, DWORD PTR [edx-12]
  00019	33 c8		 xor	 ecx, eax
  0001b	e8 00 00 00 00	 call	 @__security_check_cookie@4
  00020	b8 00 00 00 00	 mov	 eax, OFFSET __ehfuncinfo$??0CTreeDropList@@QAE@XZ
  00025	e9 00 00 00 00	 jmp	 ___CxxFrameHandler3
text$x	ENDS
??0CTreeDropList@@QAE@XZ ENDP				; CTreeDropList::CTreeDropList
; Function compile flags: /Ogtp
; File C:\Program Files (x86)\Microsoft Visual Studio\2019\Community\VC\Tools\MSVC\14.29.30133\atlmfc\include\afx.inl
;	COMDAT ??_GCTreeCtrl@@UAEPAXI@Z
_TEXT	SEGMENT
___flags$ = 8						; size = 4
??_GCTreeCtrl@@UAEPAXI@Z PROC				; CTreeCtrl::`scalar deleting destructor', COMDAT
; _this$ = ecx
  00000	55		 push	 ebp
  00001	8b ec		 mov	 ebp, esp
  00003	56		 push	 esi
  00004	8b f1		 mov	 esi, ecx
  00006	e8 00 00 00 00	 call	 ??1CTreeCtrl@@UAE@XZ	; CTreeCtrl::~CTreeCtrl
  0000b	8b 45 08	 mov	 eax, DWORD PTR ___flags$[ebp]
  0000e	a8 01		 test	 al, 1
  00010	74 22		 je	 SHORT $LN9@scalar
  00012	a8 04		 test	 al, 4
  00014	75 10		 jne	 SHORT $LN3@scalar

; 112  : 	{ ::operator delete(p); }

  00016	56		 push	 esi
  00017	e8 00 00 00 00	 call	 ??3@YAXPAX@Z		; operator delete
  0001c	83 c4 04	 add	 esp, 4
  0001f	8b c6		 mov	 eax, esi
  00021	5e		 pop	 esi
  00022	5d		 pop	 ebp
  00023	c2 04 00	 ret	 4
$LN3@scalar:
  00026	68 80 00 00 00	 push	 128			; 00000080H
  0002b	56		 push	 esi
  0002c	e8 00 00 00 00	 call	 ?__global_delete@@YAXPAXI@Z ; __global_delete
  00031	83 c4 08	 add	 esp, 8
$LN9@scalar:
  00034	8b c6		 mov	 eax, esi
  00036	5e		 pop	 esi
  00037	5d		 pop	 ebp
  00038	c2 04 00	 ret	 4
??_GCTreeCtrl@@UAEPAXI@Z ENDP				; CTreeCtrl::`scalar deleting destructor'
_TEXT	ENDS
; Function compile flags: /Ogtp
; File C:\Program Files (x86)\Microsoft Visual Studio\2019\Community\VC\Tools\MSVC\14.29.30133\atlmfc\include\afxwin2.inl
;	COMDAT ?EndModalState@CWnd@@UAEXXZ
_TEXT	SEGMENT
?EndModalState@CWnd@@UAEXXZ PROC			; CWnd::EndModalState, COMDAT
; _this$ = ecx

; 567  : 	{ ::EnableWindow(m_hWnd, TRUE); }

  00000	6a 01		 push	 1
  00002	ff 71 20	 push	 DWORD PTR [ecx+32]
  00005	ff 15 00 00 00
	00		 call	 DWORD PTR __imp__EnableWindow@8
  0000b	c3		 ret	 0
?EndModalState@CWnd@@UAEXXZ ENDP			; CWnd::EndModalState
_TEXT	ENDS
; Function compile flags: /Ogtp
; File C:\Program Files (x86)\Microsoft Visual Studio\2019\Community\VC\Tools\MSVC\14.29.30133\atlmfc\include\afxwin2.inl
;	COMDAT ?BeginModalState@CWnd@@UAEXXZ
_TEXT	SEGMENT
?BeginModalState@CWnd@@UAEXXZ PROC			; CWnd::BeginModalState, COMDAT
; _this$ = ecx

; 565  : 	{ ::EnableWindow(m_hWnd, FALSE); }

  00000	6a 00		 push	 0
  00002	ff 71 20	 push	 DWORD PTR [ecx+32]
  00005	ff 15 00 00 00
	00		 call	 DWORD PTR __imp__EnableWindow@8
  0000b	c3		 ret	 0
?BeginModalState@CWnd@@UAEXXZ ENDP			; CWnd::BeginModalState
_TEXT	ENDS
; Function compile flags: /Ogtp
; File C:\Program Files (x86)\Microsoft Visual Studio\2019\Community\VC\Tools\MSVC\14.29.30133\atlmfc\include\afxwin2.inl
;	COMDAT ?DoDataExchange@CWnd@@MAEXPAVCDataExchange@@@Z
_TEXT	SEGMENT
___formal$ = 8						; size = 4
?DoDataExchange@CWnd@@MAEXPAVCDataExchange@@@Z PROC	; CWnd::DoDataExchange, COMDAT
; _this$ = ecx

; 561  : 	{ } // default does nothing

  00000	c2 04 00	 ret	 4
?DoDataExchange@CWnd@@MAEXPAVCDataExchange@@@Z ENDP	; CWnd::DoDataExchange
_TEXT	ENDS
; Function compile flags: /Ogtp
; File C:\Program Files (x86)\Microsoft Visual Studio\2019\Community\VC\Tools\MSVC\14.29.30133\atlmfc\include\afx.inl
;	COMDAT ?Dump@CObject@@UBEXAAVCDumpContext@@@Z
_TEXT	SEGMENT
___formal$ = 8						; size = 4
?Dump@CObject@@UBEXAAVCDumpContext@@@Z PROC		; CObject::Dump, COMDAT
; _this$ = ecx

; 122  : 	{ /* no dumping in release builds */ }

  00000	c2 04 00	 ret	 4
?Dump@CObject@@UBEXAAVCDumpContext@@@Z ENDP		; CObject::Dump
_TEXT	ENDS
; Function compile flags: /Ogtp
; File C:\Program Files (x86)\Microsoft Visual Studio\2019\Community\VC\Tools\MSVC\14.29.30133\atlmfc\include\afx.inl
;	COMDAT ?AssertValid@CObject@@UBEXXZ
_TEXT	SEGMENT
?AssertValid@CObject@@UBEXXZ PROC			; CObject::AssertValid, COMDAT
; _this$ = ecx

; 120  : 	{ /* no asserts in release builds */ }

  00000	c2 00 00	 ret	 0
?AssertValid@CObject@@UBEXXZ ENDP			; CObject::AssertValid
_TEXT	ENDS
; Function compile flags: /Ogtp
; File C:\Program Files (x86)\Microsoft Visual Studio\2019\Community\VC\Tools\MSVC\14.29.30133\atlmfc\include\afx.inl
;	COMDAT ?Serialize@CObject@@UAEXAAVCArchive@@@Z
_TEXT	SEGMENT
___formal$ = 8						; size = 4
?Serialize@CObject@@UAEXAAVCArchive@@@Z PROC		; CObject::Serialize, COMDAT
; _this$ = ecx

; 106  : 	{ /* CObject does not serialize anything by default */ }

  00000	c2 04 00	 ret	 4
?Serialize@CObject@@UAEXAAVCArchive@@@Z ENDP		; CObject::Serialize
_TEXT	ENDS
; Function compile flags: /Ogtp
; File D:\git\src\IBK\IBK_DRFN\ProjSrc\SrcChartEx\ChartAddIn\ChartDesignPropertyAddIn\ChartDesignPropertyAddIn\TreeDropList.cpp
;	COMDAT ?__empty_global_delete@@YAXPAXI@Z
_TEXT	SEGMENT
___formal$ = 8						; size = 4
___formal$ = 12						; size = 4
?__empty_global_delete@@YAXPAXI@Z PROC			; __empty_global_delete, COMDAT

  00000	c2 00 00	 ret	 0
?__empty_global_delete@@YAXPAXI@Z ENDP			; __empty_global_delete
_TEXT	ENDS
; Function compile flags: /Ogtp
; File D:\git\src\IBK\IBK_DRFN\ProjSrc\SrcChartEx\ChartAddIn\ChartDesignPropertyAddIn\ChartDesignPropertyAddIn\TreeDropList.cpp
;	COMDAT ?__empty_global_delete@@YAXPAX@Z
_TEXT	SEGMENT
___formal$ = 8						; size = 4
?__empty_global_delete@@YAXPAX@Z PROC			; __empty_global_delete, COMDAT

  00000	c2 00 00	 ret	 0
?__empty_global_delete@@YAXPAX@Z ENDP			; __empty_global_delete
_TEXT	ENDS
END
