; Listing generated by Microsoft (R) Optimizing Compiler Version 19.29.30145.0 

	TITLE	D:\git\src\IBK\IBK_DRFN\#DRfn-CS\_Obj\ChartDesignPropertyAddIn\ViewDesignPage2.obj
	.686P
	.XMM
	include listing.inc
	.model	flat

INCLUDELIB MSVCRT
INCLUDELIB OLDNAMES

PUBLIC	?__empty_global_delete@@YAXPAX@Z		; __empty_global_delete
PUBLIC	?__empty_global_delete@@YAXPAXI@Z		; __empty_global_delete
PUBLIC	??3CObject@@SGXPAX@Z				; CObject::operator delete
PUBLIC	?Serialize@CObject@@UAEXAAVCArchive@@@Z		; CObject::Serialize
PUBLIC	?AssertValid@CObject@@UBEXXZ			; CObject::AssertValid
PUBLIC	?Dump@CObject@@UBEXAAVCDumpContext@@@Z		; CObject::Dump
PUBLIC	?DoDataExchange@CWnd@@MAEXPAVCDataExchange@@@Z	; CWnd::DoDataExchange
PUBLIC	?BeginModalState@CWnd@@UAEXXZ			; CWnd::BeginModalState
PUBLIC	?EndModalState@CWnd@@UAEXXZ			; CWnd::EndModalState
PUBLIC	?Create@CDialog@@UAEHIPAVCWnd@@@Z		; CDialog::Create
PUBLIC	??_GCButton@@UAEPAXI@Z				; CButton::`scalar deleting destructor'
PUBLIC	?LoadResourceDLL@IMetaTable@@QAEPAUHINSTANCE__@@PAUHWND__@@PAU2@@Z ; IMetaTable::LoadResourceDLL
PUBLIC	??1CMultiLanguageResourceSetter@@QAE@XZ		; CMultiLanguageResourceSetter::~CMultiLanguageResourceSetter
PUBLIC	?_GetBaseClass@CViewDesignPage2@@KGPAUCRuntimeClass@@XZ ; CViewDesignPage2::_GetBaseClass
PUBLIC	?GetThisClass@CViewDesignPage2@@SGPAUCRuntimeClass@@XZ ; CViewDesignPage2::GetThisClass
PUBLIC	?GetRuntimeClass@CViewDesignPage2@@UBEPAUCRuntimeClass@@XZ ; CViewDesignPage2::GetRuntimeClass
PUBLIC	?CreateObject@CViewDesignPage2@@SGPAVCObject@@XZ ; CViewDesignPage2::CreateObject
PUBLIC	??0CViewDesignPage2@@QAE@XZ			; CViewDesignPage2::CViewDesignPage2
PUBLIC	??1CViewDesignPage2@@UAE@XZ			; CViewDesignPage2::~CViewDesignPage2
PUBLIC	?SetProperty@CViewDesignPage2@@QAEXPAUIPropertyMap@@@Z ; CViewDesignPage2::SetProperty
PUBLIC	?OnApply@CViewDesignPage2@@UAEHXZ		; CViewDesignPage2::OnApply
PUBLIC	?DoDataExchange@CViewDesignPage2@@MAEXPAVCDataExchange@@@Z ; CViewDesignPage2::DoDataExchange
PUBLIC	?OnInitDialog@CViewDesignPage2@@MAEHXZ		; CViewDesignPage2::OnInitDialog
PUBLIC	?OnChangeUserinsertedblockcount@CViewDesignPage2@@IAEXXZ ; CViewDesignPage2::OnChangeUserinsertedblockcount
PUBLIC	?OnChartrbuttonmenu@CViewDesignPage2@@IAEXXZ	; CViewDesignPage2::OnChartrbuttonmenu
PUBLIC	?OnIndicondcheck@CViewDesignPage2@@IAEXXZ	; CViewDesignPage2::OnIndicondcheck
PUBLIC	?OnEnvironmentcheck@CViewDesignPage2@@IAEXXZ	; CViewDesignPage2::OnEnvironmentcheck
PUBLIC	?OnUseSkin@CViewDesignPage2@@IAEXXZ		; CViewDesignPage2::OnUseSkin
PUBLIC	?GetThisMessageMap@CViewDesignPage2@@KGPBUAFX_MSGMAP@@XZ ; CViewDesignPage2::GetThisMessageMap
PUBLIC	?GetMessageMap@CViewDesignPage2@@MBEPBUAFX_MSGMAP@@XZ ; CViewDesignPage2::GetMessageMap
PUBLIC	?MakeFileName@CViewDesignPage2@@AAE?AV?$CStringT@DV?$StrTraitMFC_DLL@DV?$ChTraitsCRT@D@ATL@@@@@ATL@@AAV23@@Z ; CViewDesignPage2::MakeFileName
PUBLIC	?CreateToolTip@CViewDesignPage2@@AAEXXZ		; CViewDesignPage2::CreateToolTip
PUBLIC	?SetProperty_FileName@CViewDesignPage2@@AAEXABV?$CStringT@DV?$StrTraitMFC_DLL@DV?$ChTraitsCRT@D@ATL@@@@@ATL@@AAV23@AAH@Z ; CViewDesignPage2::SetProperty_FileName
PUBLIC	?EnableWindow@CViewDesignPage2@@AAEXABV?$CStringT@DV?$StrTraitMFC_DLL@DV?$ChTraitsCRT@D@ATL@@@@@ATL@@AAVCEdit@@@Z ; CViewDesignPage2::EnableWindow
PUBLIC	?EnableWindow@CViewDesignPage2@@AAEXH_N@Z	; CViewDesignPage2::EnableWindow
PUBLIC	?EnableWindow_SaveOption@CViewDesignPage2@@AAEX_N@Z ; CViewDesignPage2::EnableWindow_SaveOption
PUBLIC	?SetOcxHwnd@CViewDesignPage2@@QAEXPAUHWND__@@@Z	; CViewDesignPage2::SetOcxHwnd
PUBLIC	??_GCViewDesignPage2@@UAEPAXI@Z			; CViewDesignPage2::`scalar deleting destructor'
PUBLIC	??_C@_02DPKJAMEF@?$CFd@				; `string'
PUBLIC	??_C@_00CNPNBAHC@@				; `string'
PUBLIC	??_7CButton@@6B@				; CButton::`vftable'
PUBLIC	??_R0?AVCObject@@@8				; CObject `RTTI Type Descriptor'
PUBLIC	??_R3CObject@@8					; CObject::`RTTI Class Hierarchy Descriptor'
PUBLIC	??_R2CObject@@8					; CObject::`RTTI Base Class Array'
PUBLIC	??_R1A@?0A@EA@CObject@@8			; CObject::`RTTI Base Class Descriptor at (0,-1,0,64)'
PUBLIC	??_R1A@?0A@EA@CWnd@@8				; CWnd::`RTTI Base Class Descriptor at (0,-1,0,64)'
PUBLIC	??_R0?AVCWnd@@@8				; CWnd `RTTI Type Descriptor'
PUBLIC	??_R3CWnd@@8					; CWnd::`RTTI Class Hierarchy Descriptor'
PUBLIC	??_R2CWnd@@8					; CWnd::`RTTI Base Class Array'
PUBLIC	??_R1A@?0A@EA@CCmdTarget@@8			; CCmdTarget::`RTTI Base Class Descriptor at (0,-1,0,64)'
PUBLIC	??_R0?AVCCmdTarget@@@8				; CCmdTarget `RTTI Type Descriptor'
PUBLIC	??_R3CCmdTarget@@8				; CCmdTarget::`RTTI Class Hierarchy Descriptor'
PUBLIC	??_R2CCmdTarget@@8				; CCmdTarget::`RTTI Base Class Array'
PUBLIC	??_R4CButton@@6B@				; CButton::`RTTI Complete Object Locator'
PUBLIC	??_R0?AVCButton@@@8				; CButton `RTTI Type Descriptor'
PUBLIC	??_R3CButton@@8					; CButton::`RTTI Class Hierarchy Descriptor'
PUBLIC	??_R2CButton@@8					; CButton::`RTTI Base Class Array'
PUBLIC	??_R1A@?0A@EA@CButton@@8			; CButton::`RTTI Base Class Descriptor at (0,-1,0,64)'
PUBLIC	??_R1A@?0A@EA@CDialog@@8			; CDialog::`RTTI Base Class Descriptor at (0,-1,0,64)'
PUBLIC	??_R0?AVCDialog@@@8				; CDialog `RTTI Type Descriptor'
PUBLIC	??_R3CDialog@@8					; CDialog::`RTTI Class Hierarchy Descriptor'
PUBLIC	??_R2CDialog@@8					; CDialog::`RTTI Base Class Array'
PUBLIC	??_C@_0BA@ENJOCHIO@LoadResourceDLL@		; `string'
PUBLIC	?classCViewDesignPage2@CViewDesignPage2@@2UCRuntimeClass@@B ; CViewDesignPage2::classCViewDesignPage2
PUBLIC	??_7CViewDesignPage2@@6B@			; CViewDesignPage2::`vftable'
PUBLIC	??_C@_01HIHLOKLC@1@				; `string'
PUBLIC	??_C@_0BB@LAPLNCH@CViewDesignPage2@		; `string'
PUBLIC	??_C@_04GDCIOHAA@?4cht@				; `string'
PUBLIC	??_C@_01LFCBOECM@?4@				; `string'
PUBLIC	??_C@_09JMPCHJJN@Indicond_@			; `string'
PUBLIC	??_C@_01GBGANLPD@0@				; `string'
PUBLIC	??_R4CViewDesignPage2@@6B@			; CViewDesignPage2::`RTTI Complete Object Locator'
PUBLIC	??_R0?AVCViewDesignPage2@@@8			; CViewDesignPage2 `RTTI Type Descriptor'
PUBLIC	??_R3CViewDesignPage2@@8			; CViewDesignPage2::`RTTI Class Hierarchy Descriptor'
PUBLIC	??_R2CViewDesignPage2@@8			; CViewDesignPage2::`RTTI Base Class Array'
PUBLIC	??_R1A@?0A@EA@CViewDesignPage2@@8		; CViewDesignPage2::`RTTI Base Class Descriptor at (0,-1,0,64)'
PUBLIC	??_R1A@?0A@EA@CPropertyPage@@8			; CPropertyPage::`RTTI Base Class Descriptor at (0,-1,0,64)'
PUBLIC	??_R0?AVCPropertyPage@@@8			; CPropertyPage `RTTI Type Descriptor'
PUBLIC	??_R3CPropertyPage@@8				; CPropertyPage::`RTTI Class Hierarchy Descriptor'
PUBLIC	??_R2CPropertyPage@@8				; CPropertyPage::`RTTI Base Class Array'
EXTRN	??2@YAPAXI@Z:PROC				; operator new
EXTRN	??3@YAXPAX@Z:PROC				; operator delete
EXTRN	?__global_delete@@YAXPAXI@Z:PROC		; __global_delete
EXTRN	___std_terminate:PROC
EXTRN	__imp__GetProcAddress@8:PROC
EXTRN	__imp__SendMessageA@16:PROC
EXTRN	__imp__EnableWindow@8:PROC
EXTRN	__imp__atoi:PROC
EXTRN	__imp_?Concatenate@?$CSimpleStringT@D$00@ATL@@KAXAAV12@PBDH1H@Z:PROC
EXTRN	__imp_??0?$CStringT@DV?$StrTraitMFC_DLL@DV?$ChTraitsCRT@D@ATL@@@@@ATL@@QAE@XZ:PROC
EXTRN	__imp_??0?$CStringT@DV?$StrTraitMFC_DLL@DV?$ChTraitsCRT@D@ATL@@@@@ATL@@QAE@PAUIAtlStringMgr@1@@Z:PROC
EXTRN	__imp_??0?$CStringT@DV?$StrTraitMFC_DLL@DV?$ChTraitsCRT@D@ATL@@@@@ATL@@QAE@ABV01@@Z:PROC
EXTRN	__imp_??0?$CStringT@DV?$StrTraitMFC_DLL@DV?$ChTraitsCRT@D@ATL@@@@@ATL@@QAE@PBD@Z:PROC
EXTRN	__imp_??1?$CStringT@DV?$StrTraitMFC_DLL@DV?$ChTraitsCRT@D@ATL@@@@@ATL@@QAE@XZ:PROC
EXTRN	__imp_??4?$CStringT@DV?$StrTraitMFC_DLL@DV?$ChTraitsCRT@D@ATL@@@@@ATL@@QAEAAV01@ABV01@@Z:PROC
EXTRN	__imp_??4?$CStringT@DV?$StrTraitMFC_DLL@DV?$ChTraitsCRT@D@ATL@@@@@ATL@@QAEAAV01@PBD@Z:PROC
EXTRN	__imp_??Y?$CStringT@DV?$StrTraitMFC_DLL@DV?$ChTraitsCRT@D@ATL@@@@@ATL@@QAEAAV01@ABV?$CSimpleStringT@D$00@1@@Z:PROC
EXTRN	__imp_?GetManager@?$CStringT@DV?$StrTraitMFC_DLL@DV?$ChTraitsCRT@D@ATL@@@@@ATL@@QBEPAUIAtlStringMgr@2@XZ:PROC
EXTRN	__imp_?Delete@?$CStringT@DV?$StrTraitMFC_DLL@DV?$ChTraitsCRT@D@ATL@@@@@ATL@@QAEHHH@Z:PROC
EXTRN	__imp_?Replace@?$CStringT@DV?$StrTraitMFC_DLL@DV?$ChTraitsCRT@D@ATL@@@@@ATL@@QAEHPBD0@Z:PROC
EXTRN	__imp_?Find@?$CStringT@DV?$StrTraitMFC_DLL@DV?$ChTraitsCRT@D@ATL@@@@@ATL@@QBEHPBDH@Z:PROC
EXTRN	__imp_?Format@?$CStringT@DV?$StrTraitMFC_DLL@DV?$ChTraitsCRT@D@ATL@@@@@ATL@@QAAXPBDZZ:PROC
EXTRN	__imp_?LoadStringA@?$CStringT@DV?$StrTraitMFC_DLL@DV?$ChTraitsCRT@D@ATL@@@@@ATL@@QAEHI@Z:PROC
EXTRN	??0CDWordArray@@QAE@XZ:PROC			; CDWordArray::CDWordArray
EXTRN	?SetSize@CDWordArray@@QAEXHH@Z:PROC		; CDWordArray::SetSize
EXTRN	?SetAtGrow@CDWordArray@@QAEXHK@Z:PROC		; CDWordArray::SetAtGrow
EXTRN	??1CDWordArray@@UAE@XZ:PROC			; CDWordArray::~CDWordArray
EXTRN	?AfxGetModuleState@@YGPAVAFX_MODULE_STATE@@XZ:PROC ; AfxGetModuleState
EXTRN	?AfxGetStaticModuleState@@YGPAVAFX_MODULE_STATE@@XZ:PROC ; AfxGetStaticModuleState
EXTRN	?DDX_Text@@YGXPAVCDataExchange@@HAAH@Z:PROC	; DDX_Text
EXTRN	?DDX_Text@@YGXPAVCDataExchange@@HAAV?$CStringT@DV?$StrTraitMFC_DLL@DV?$ChTraitsCRT@D@ATL@@@@@ATL@@@Z:PROC ; DDX_Text
EXTRN	?DDX_Check@@YGXPAVCDataExchange@@HAAH@Z:PROC	; DDX_Check
EXTRN	?DDX_Radio@@YGXPAVCDataExchange@@HAAH@Z:PROC	; DDX_Radio
EXTRN	?DDX_Control@@YGXPAVCDataExchange@@HAAVCWnd@@@Z:PROC ; DDX_Control
EXTRN	?OnCmdMsg@CCmdTarget@@UAEHIHPAXPAUAFX_CMDHANDLERINFO@@@Z:PROC ; CCmdTarget::OnCmdMsg
EXTRN	?IsInvokeAllowed@CCmdTarget@@UAEHJ@Z:PROC	; CCmdTarget::IsInvokeAllowed
EXTRN	?GetDispatchIID@CCmdTarget@@UAEHPAU_GUID@@@Z:PROC ; CCmdTarget::GetDispatchIID
EXTRN	?GetTypeInfoCount@CCmdTarget@@UAEIXZ:PROC	; CCmdTarget::GetTypeInfoCount
EXTRN	?GetTypeLibCache@CCmdTarget@@UAEPAVCTypeLibCache@@XZ:PROC ; CCmdTarget::GetTypeLibCache
EXTRN	?GetTypeLib@CCmdTarget@@UAEJKPAPAUITypeLib@@@Z:PROC ; CCmdTarget::GetTypeLib
EXTRN	?GetCommandMap@CCmdTarget@@MBEPBUAFX_OLECMDMAP@@XZ:PROC ; CCmdTarget::GetCommandMap
EXTRN	?GetDispatchMap@CCmdTarget@@MBEPBUAFX_DISPMAP@@XZ:PROC ; CCmdTarget::GetDispatchMap
EXTRN	?GetConnectionMap@CCmdTarget@@MBEPBUAFX_CONNECTIONMAP@@XZ:PROC ; CCmdTarget::GetConnectionMap
EXTRN	?GetEventSinkMap@CCmdTarget@@MBEPBUAFX_EVENTSINKMAP@@XZ:PROC ; CCmdTarget::GetEventSinkMap
EXTRN	?OnCreateAggregates@CCmdTarget@@UAEHXZ:PROC	; CCmdTarget::OnCreateAggregates
EXTRN	?GetInterfaceHook@CCmdTarget@@UAEPAUIUnknown@@PBX@Z:PROC ; CCmdTarget::GetInterfaceHook
EXTRN	?GetExtraConnectionPoints@CCmdTarget@@MAEHPAVCPtrArray@@@Z:PROC ; CCmdTarget::GetExtraConnectionPoints
EXTRN	?GetConnectionHook@CCmdTarget@@MAEPAUIConnectionPoint@@ABU_GUID@@@Z:PROC ; CCmdTarget::GetConnectionHook
EXTRN	??0CWnd@@QAE@XZ:PROC				; CWnd::CWnd
EXTRN	?PreSubclassWindow@CWnd@@UAEXXZ:PROC		; CWnd::PreSubclassWindow
EXTRN	?Create@CWnd@@UAEHPBD0KABUtagRECT@@PAV1@IPAUCCreateContext@@@Z:PROC ; CWnd::Create
EXTRN	?CreateEx@CWnd@@UAEHKPBD0KHHHHPAUHWND__@@PAUHMENU__@@PAX@Z:PROC ; CWnd::CreateEx
EXTRN	?CreateEx@CWnd@@UAEHKPBD0KABUtagRECT@@PAV1@IPAX@Z:PROC ; CWnd::CreateEx
EXTRN	?DestroyWindow@CWnd@@UAEHXZ:PROC		; CWnd::DestroyWindow
EXTRN	?PreCreateWindow@CWnd@@UAEHAAUtagCREATESTRUCTA@@@Z:PROC ; CWnd::PreCreateWindow
EXTRN	?CalcWindowRect@CWnd@@UAEXPAUtagRECT@@I@Z:PROC	; CWnd::CalcWindowRect
EXTRN	?GetDlgItem@CWnd@@QBEPAV1@H@Z:PROC		; CWnd::GetDlgItem
EXTRN	?GetWindowTextA@CWnd@@QBEXAAV?$CStringT@DV?$StrTraitMFC_DLL@DV?$ChTraitsCRT@D@ATL@@@@@ATL@@@Z:PROC ; CWnd::GetWindowTextA
EXTRN	?GetMenu@CWnd@@UBEPAVCMenu@@XZ:PROC		; CWnd::GetMenu
EXTRN	?SetMenu@CWnd@@UAEHPAVCMenu@@@Z:PROC		; CWnd::SetMenu
EXTRN	?OnToolHitTest@CWnd@@UBEHVCPoint@@PAUtagTOOLINFOA@@@Z:PROC ; CWnd::OnToolHitTest
EXTRN	?EnableWindow@CWnd@@QAEHH@Z:PROC		; CWnd::EnableWindow
EXTRN	?SetFocus@CWnd@@QAEPAV1@XZ:PROC			; CWnd::SetFocus
EXTRN	?GetScrollBarCtrl@CWnd@@UBEPAVCScrollBar@@H@Z:PROC ; CWnd::GetScrollBarCtrl
EXTRN	?UpdateData@CWnd@@QAEHH@Z:PROC			; CWnd::UpdateData
EXTRN	?WinHelpA@CWnd@@UAEXKI@Z:PROC			; CWnd::WinHelpA
EXTRN	?HtmlHelpA@CWnd@@UAEXKI@Z:PROC			; CWnd::HtmlHelpA
EXTRN	?WinHelpInternal@CWnd@@UAEXKI@Z:PROC		; CWnd::WinHelpInternal
EXTRN	?ContinueModal@CWnd@@UAEHXZ:PROC		; CWnd::ContinueModal
EXTRN	?EndModalLoop@CWnd@@UAEXH@Z:PROC		; CWnd::EndModalLoop
EXTRN	?OnDrawIconicThumbnailOrLivePreview@CWnd@@UAEXAAVCDC@@VCRect@@VCSize@@HAAH@Z:PROC ; CWnd::OnDrawIconicThumbnailOrLivePreview
EXTRN	?GetInterfaceMap@CWnd@@MBEPBUAFX_INTERFACEMAP@@XZ:PROC ; CWnd::GetInterfaceMap
EXTRN	?EnsureStdObj@CWnd@@UAEJXZ:PROC			; CWnd::EnsureStdObj
EXTRN	?get_accParent@CWnd@@UAEJPAPAUIDispatch@@@Z:PROC ; CWnd::get_accParent
EXTRN	?get_accChildCount@CWnd@@UAEJPAJ@Z:PROC		; CWnd::get_accChildCount
EXTRN	?get_accChild@CWnd@@UAEJUtagVARIANT@@PAPAUIDispatch@@@Z:PROC ; CWnd::get_accChild
EXTRN	?get_accName@CWnd@@UAEJUtagVARIANT@@PAPA_W@Z:PROC ; CWnd::get_accName
EXTRN	?get_accValue@CWnd@@UAEJUtagVARIANT@@PAPA_W@Z:PROC ; CWnd::get_accValue
EXTRN	?get_accDescription@CWnd@@UAEJUtagVARIANT@@PAPA_W@Z:PROC ; CWnd::get_accDescription
EXTRN	?get_accRole@CWnd@@UAEJUtagVARIANT@@PAU2@@Z:PROC ; CWnd::get_accRole
EXTRN	?get_accState@CWnd@@UAEJUtagVARIANT@@PAU2@@Z:PROC ; CWnd::get_accState
EXTRN	?get_accHelp@CWnd@@UAEJUtagVARIANT@@PAPA_W@Z:PROC ; CWnd::get_accHelp
EXTRN	?get_accHelpTopic@CWnd@@UAEJPAPA_WUtagVARIANT@@PAJ@Z:PROC ; CWnd::get_accHelpTopic
EXTRN	?get_accKeyboardShortcut@CWnd@@UAEJUtagVARIANT@@PAPA_W@Z:PROC ; CWnd::get_accKeyboardShortcut
EXTRN	?get_accFocus@CWnd@@UAEJPAUtagVARIANT@@@Z:PROC	; CWnd::get_accFocus
EXTRN	?get_accSelection@CWnd@@UAEJPAUtagVARIANT@@@Z:PROC ; CWnd::get_accSelection
EXTRN	?get_accDefaultAction@CWnd@@UAEJUtagVARIANT@@PAPA_W@Z:PROC ; CWnd::get_accDefaultAction
EXTRN	?accSelect@CWnd@@UAEJJUtagVARIANT@@@Z:PROC	; CWnd::accSelect
EXTRN	?accLocation@CWnd@@UAEJPAJ000UtagVARIANT@@@Z:PROC ; CWnd::accLocation
EXTRN	?accNavigate@CWnd@@UAEJJUtagVARIANT@@PAU2@@Z:PROC ; CWnd::accNavigate
EXTRN	?accHitTest@CWnd@@UAEJJJPAUtagVARIANT@@@Z:PROC	; CWnd::accHitTest
EXTRN	?accDoDefaultAction@CWnd@@UAEJUtagVARIANT@@@Z:PROC ; CWnd::accDoDefaultAction
EXTRN	?put_accName@CWnd@@UAEJUtagVARIANT@@PA_W@Z:PROC	; CWnd::put_accName
EXTRN	?put_accValue@CWnd@@UAEJUtagVARIANT@@PA_W@Z:PROC ; CWnd::put_accValue
EXTRN	?SetProxy@CWnd@@UAEJPAUIAccessibleProxy@@@Z:PROC ; CWnd::SetProxy
EXTRN	?CreateAccessibleProxy@CWnd@@UAEJIJPAJ@Z:PROC	; CWnd::CreateAccessibleProxy
EXTRN	?OnCommand@CWnd@@MAEHIJ@Z:PROC			; CWnd::OnCommand
EXTRN	?OnNotify@CWnd@@MAEHIJPAJ@Z:PROC		; CWnd::OnNotify
EXTRN	?GetSuperWndProcAddr@CWnd@@MAEPAP6GJPAUHWND__@@IIJ@ZXZ:PROC ; CWnd::GetSuperWndProcAddr
EXTRN	?PreTranslateMessage@CWnd@@UAEHPAUtagMSG@@@Z:PROC ; CWnd::PreTranslateMessage
EXTRN	?OnAmbientProperty@CWnd@@UAEHPAVCOleControlSite@@JPAUtagVARIANT@@@Z:PROC ; CWnd::OnAmbientProperty
EXTRN	?WindowProc@CWnd@@MAEJIIJ@Z:PROC		; CWnd::WindowProc
EXTRN	?OnWndMsg@CWnd@@MAEHIIJPAJ@Z:PROC		; CWnd::OnWndMsg
EXTRN	?DefWindowProcA@CWnd@@MAEJIIJ@Z:PROC		; CWnd::DefWindowProcA
EXTRN	?PostNcDestroy@CWnd@@MAEXXZ:PROC		; CWnd::PostNcDestroy
EXTRN	?OnChildNotify@CWnd@@MAEHIIJPAJ@Z:PROC		; CWnd::OnChildNotify
EXTRN	?OnTouchInputs@CWnd@@MAEHIPAUtagTOUCHINPUT@@@Z:PROC ; CWnd::OnTouchInputs
EXTRN	?OnTouchInput@CWnd@@MAEHVCPoint@@HHPAUtagTOUCHINPUT@@@Z:PROC ; CWnd::OnTouchInput
EXTRN	?GetGestureStatus@CWnd@@MAEKVCPoint@@@Z:PROC	; CWnd::GetGestureStatus
EXTRN	?OnGestureZoom@CWnd@@MAEHVCPoint@@J@Z:PROC	; CWnd::OnGestureZoom
EXTRN	?OnGesturePan@CWnd@@MAEHVCPoint@@0@Z:PROC	; CWnd::OnGesturePan
EXTRN	?OnGestureRotate@CWnd@@MAEHVCPoint@@N@Z:PROC	; CWnd::OnGestureRotate
EXTRN	?OnGestureTwoFingerTap@CWnd@@MAEHVCPoint@@@Z:PROC ; CWnd::OnGestureTwoFingerTap
EXTRN	?OnGesturePressAndTap@CWnd@@MAEHVCPoint@@J@Z:PROC ; CWnd::OnGesturePressAndTap
EXTRN	?ResizeDynamicLayout@CWnd@@MAEXXZ:PROC		; CWnd::ResizeDynamicLayout
EXTRN	?CheckAutoCenter@CWnd@@UAEHXZ:PROC		; CWnd::CheckAutoCenter
EXTRN	?IsFrameWnd@CWnd@@UBEHXZ:PROC			; CWnd::IsFrameWnd
EXTRN	?OnFinalRelease@CWnd@@UAEXXZ:PROC		; CWnd::OnFinalRelease
EXTRN	?CreateControlContainer@CWnd@@MAEHPAPAVCOleControlContainer@@@Z:PROC ; CWnd::CreateControlContainer
EXTRN	?CreateControlSite@CWnd@@MAEHPAVCOleControlContainer@@PAPAVCOleControlSite@@IABU_GUID@@@Z:PROC ; CWnd::CreateControlSite
EXTRN	?SetOccDialogInfo@CWnd@@MAEHPAU_AFX_OCC_DIALOG_INFO@@@Z:PROC ; CWnd::SetOccDialogInfo
EXTRN	?GetOccDialogInfo@CWnd@@MAEPAU_AFX_OCC_DIALOG_INFO@@XZ:PROC ; CWnd::GetOccDialogInfo
EXTRN	?GetMessageMap@CWnd@@MBEPBUAFX_MSGMAP@@XZ:PROC	; CWnd::GetMessageMap
EXTRN	?Create@CDialog@@UAEHPBDPAVCWnd@@@Z:PROC	; CDialog::Create
EXTRN	?CreateIndirect@CDialog@@UAEHPBUDLGTEMPLATE@@PAVCWnd@@PAX@Z:PROC ; CDialog::CreateIndirect
EXTRN	?CreateIndirect@CDialog@@UAEHPAXPAVCWnd@@@Z:PROC ; CDialog::CreateIndirect
EXTRN	?DoModal@CDialog@@UAEHXZ:PROC			; CDialog::DoModal
EXTRN	?OnInitDialog@CDialog@@UAEHXZ:PROC		; CDialog::OnInitDialog
EXTRN	?OnSetFont@CDialog@@UAEXPAVCFont@@@Z:PROC	; CDialog::OnSetFont
EXTRN	?OnCmdMsg@CDialog@@UAEHIHPAXPAUAFX_CMDHANDLERINFO@@@Z:PROC ; CDialog::OnCmdMsg
EXTRN	?CheckAutoCenter@CDialog@@UAEHXZ:PROC		; CDialog::CheckAutoCenter
EXTRN	?SetOccDialogInfo@CDialog@@MAEHPAU_AFX_OCC_DIALOG_INFO@@@Z:PROC ; CDialog::SetOccDialogInfo
EXTRN	?GetOccDialogInfo@CDialog@@MAEPAU_AFX_OCC_DIALOG_INFO@@XZ:PROC ; CDialog::GetOccDialogInfo
EXTRN	?PreInitDialog@CDialog@@MAEXXZ:PROC		; CDialog::PreInitDialog
EXTRN	?GetRuntimeClass@CButton@@UBEPAUCRuntimeClass@@XZ:PROC ; CButton::GetRuntimeClass
EXTRN	?Create@CButton@@UAEHPBDKABUtagRECT@@PAVCWnd@@I@Z:PROC ; CButton::Create
EXTRN	?DrawItem@CButton@@UAEXPAUtagDRAWITEMSTRUCT@@@Z:PROC ; CButton::DrawItem
EXTRN	??1CButton@@UAE@XZ:PROC				; CButton::~CButton
EXTRN	?OnChildNotify@CButton@@MAEHIIJPAJ@Z:PROC	; CButton::OnChildNotify
EXTRN	??_ECButton@@UAEPAXI@Z:PROC			; CButton::`vector deleting destructor'
EXTRN	?AfxMessageBox@@YGHPBDII@Z:PROC			; AfxMessageBox
EXTRN	?GetThisClass@CPropertyPage@@SGPAUCRuntimeClass@@XZ:PROC ; CPropertyPage::GetThisClass
EXTRN	??0CPropertyPage@@QAE@IIK@Z:PROC		; CPropertyPage::CPropertyPage
EXTRN	?OnApply@CPropertyPage@@UAEHXZ:PROC		; CPropertyPage::OnApply
EXTRN	?OnReset@CPropertyPage@@UAEXXZ:PROC		; CPropertyPage::OnReset
EXTRN	?OnOK@CPropertyPage@@UAEXXZ:PROC		; CPropertyPage::OnOK
EXTRN	?OnCancel@CPropertyPage@@UAEXXZ:PROC		; CPropertyPage::OnCancel
EXTRN	?OnSetActive@CPropertyPage@@UAEHXZ:PROC		; CPropertyPage::OnSetActive
EXTRN	?OnKillActive@CPropertyPage@@UAEHXZ:PROC	; CPropertyPage::OnKillActive
EXTRN	?OnQueryCancel@CPropertyPage@@UAEHXZ:PROC	; CPropertyPage::OnQueryCancel
EXTRN	?OnWizardBack@CPropertyPage@@UAEJXZ:PROC	; CPropertyPage::OnWizardBack
EXTRN	?OnWizardNext@CPropertyPage@@UAEJXZ:PROC	; CPropertyPage::OnWizardNext
EXTRN	?OnWizardFinish@CPropertyPage@@UAEHXZ:PROC	; CPropertyPage::OnWizardFinish
EXTRN	?OnWizardFinishEx@CPropertyPage@@UAEPAUHWND__@@XZ:PROC ; CPropertyPage::OnWizardFinishEx
EXTRN	?GetParentSheet@CPropertyPage@@UAEPAVCPropertySheet@@XZ:PROC ; CPropertyPage::GetParentSheet
EXTRN	??1CPropertyPage@@UAE@XZ:PROC			; CPropertyPage::~CPropertyPage
EXTRN	?OnNotify@CPropertyPage@@MAEHIJPAJ@Z:PROC	; CPropertyPage::OnNotify
EXTRN	?PreTranslateMessage@CPropertyPage@@MAEHPAUtagMSG@@@Z:PROC ; CPropertyPage::PreTranslateMessage
EXTRN	?GetThisMessageMap@CPropertyPage@@KGPBUAFX_MSGMAP@@XZ:PROC ; CPropertyPage::GetThisMessageMap
EXTRN	??0CDlgToolTip@@QAE@XZ:PROC			; CDlgToolTip::CDlgToolTip
EXTRN	??1CDlgToolTip@@UAE@XZ:PROC			; CDlgToolTip::~CDlgToolTip
EXTRN	?Create@CDlgToolTip@@QAEXPAVCWnd@@@Z:PROC	; CDlgToolTip::Create
EXTRN	?AddControlInfo@CDlgToolTip@@QAEHIAAVCDWordArray@@KK@Z:PROC ; CDlgToolTip::AddControlInfo
EXTRN	??0CNoSystemMenuEdit@@QAE@XZ:PROC		; CNoSystemMenuEdit::CNoSystemMenuEdit
EXTRN	??1CNoSystemMenuEdit@@UAE@XZ:PROC		; CNoSystemMenuEdit::~CNoSystemMenuEdit
EXTRN	??_ECViewDesignPage2@@UAEPAXI@Z:PROC		; CViewDesignPage2::`vector deleting destructor'
EXTRN	@__security_check_cookie@4:PROC
EXTRN	___CxxFrameHandler3:PROC
EXTRN	??_7type_info@@6B@:QWORD			; type_info::`vftable'
EXTRN	?g_iMetaTable@@3VIMetaTable@@A:BYTE		; g_iMetaTable
EXTRN	?g_anPropertyShortKey@@3PAPADA:BYTE		; g_anPropertyShortKey
EXTRN	___security_cookie:DWORD
;	COMDAT ??_R2CPropertyPage@@8
rdata$r	SEGMENT
??_R2CPropertyPage@@8 DD FLAT:??_R1A@?0A@EA@CPropertyPage@@8 ; CPropertyPage::`RTTI Base Class Array'
	DD	FLAT:??_R1A@?0A@EA@CDialog@@8
	DD	FLAT:??_R1A@?0A@EA@CWnd@@8
	DD	FLAT:??_R1A@?0A@EA@CCmdTarget@@8
	DD	FLAT:??_R1A@?0A@EA@CObject@@8
rdata$r	ENDS
;	COMDAT ??_R3CPropertyPage@@8
rdata$r	SEGMENT
??_R3CPropertyPage@@8 DD 00H				; CPropertyPage::`RTTI Class Hierarchy Descriptor'
	DD	00H
	DD	05H
	DD	FLAT:??_R2CPropertyPage@@8
rdata$r	ENDS
;	COMDAT ??_R0?AVCPropertyPage@@@8
data$rs	SEGMENT
??_R0?AVCPropertyPage@@@8 DD FLAT:??_7type_info@@6B@	; CPropertyPage `RTTI Type Descriptor'
	DD	00H
	DB	'.?AVCPropertyPage@@', 00H
data$rs	ENDS
;	COMDAT ??_R1A@?0A@EA@CPropertyPage@@8
rdata$r	SEGMENT
??_R1A@?0A@EA@CPropertyPage@@8 DD FLAT:??_R0?AVCPropertyPage@@@8 ; CPropertyPage::`RTTI Base Class Descriptor at (0,-1,0,64)'
	DD	04H
	DD	00H
	DD	0ffffffffH
	DD	00H
	DD	040H
	DD	FLAT:??_R3CPropertyPage@@8
rdata$r	ENDS
;	COMDAT ??_R1A@?0A@EA@CViewDesignPage2@@8
rdata$r	SEGMENT
??_R1A@?0A@EA@CViewDesignPage2@@8 DD FLAT:??_R0?AVCViewDesignPage2@@@8 ; CViewDesignPage2::`RTTI Base Class Descriptor at (0,-1,0,64)'
	DD	05H
	DD	00H
	DD	0ffffffffH
	DD	00H
	DD	040H
	DD	FLAT:??_R3CViewDesignPage2@@8
rdata$r	ENDS
;	COMDAT ??_R2CViewDesignPage2@@8
rdata$r	SEGMENT
??_R2CViewDesignPage2@@8 DD FLAT:??_R1A@?0A@EA@CViewDesignPage2@@8 ; CViewDesignPage2::`RTTI Base Class Array'
	DD	FLAT:??_R1A@?0A@EA@CPropertyPage@@8
	DD	FLAT:??_R1A@?0A@EA@CDialog@@8
	DD	FLAT:??_R1A@?0A@EA@CWnd@@8
	DD	FLAT:??_R1A@?0A@EA@CCmdTarget@@8
	DD	FLAT:??_R1A@?0A@EA@CObject@@8
rdata$r	ENDS
;	COMDAT ??_R3CViewDesignPage2@@8
rdata$r	SEGMENT
??_R3CViewDesignPage2@@8 DD 00H				; CViewDesignPage2::`RTTI Class Hierarchy Descriptor'
	DD	00H
	DD	06H
	DD	FLAT:??_R2CViewDesignPage2@@8
rdata$r	ENDS
;	COMDAT ??_R0?AVCViewDesignPage2@@@8
data$rs	SEGMENT
??_R0?AVCViewDesignPage2@@@8 DD FLAT:??_7type_info@@6B@	; CViewDesignPage2 `RTTI Type Descriptor'
	DD	00H
	DB	'.?AVCViewDesignPage2@@', 00H
data$rs	ENDS
;	COMDAT ??_R4CViewDesignPage2@@6B@
rdata$r	SEGMENT
??_R4CViewDesignPage2@@6B@ DD 00H			; CViewDesignPage2::`RTTI Complete Object Locator'
	DD	00H
	DD	00H
	DD	FLAT:??_R0?AVCViewDesignPage2@@@8
	DD	FLAT:??_R3CViewDesignPage2@@8
rdata$r	ENDS
;	COMDAT ??_C@_01GBGANLPD@0@
CONST	SEGMENT
??_C@_01GBGANLPD@0@ DB '0', 00H				; `string'
CONST	ENDS
;	COMDAT ??_C@_09JMPCHJJN@Indicond_@
CONST	SEGMENT
??_C@_09JMPCHJJN@Indicond_@ DB 'Indicond_', 00H		; `string'
CONST	ENDS
;	COMDAT ??_C@_01LFCBOECM@?4@
CONST	SEGMENT
??_C@_01LFCBOECM@?4@ DB '.', 00H			; `string'
CONST	ENDS
;	COMDAT ?messageMap@?1??GetThisMessageMap@CViewDesignPage2@@KGPBUAFX_MSGMAP@@XZ@4U3@B
CONST	SEGMENT
?messageMap@?1??GetThisMessageMap@CViewDesignPage2@@KGPBUAFX_MSGMAP@@XZ@4U3@B DD FLAT:?GetThisMessageMap@CPropertyPage@@KGPBUAFX_MSGMAP@@XZ ; `CViewDesignPage2::GetThisMessageMap'::`2'::messageMap
	DD	FLAT:?_messageEntries@?1??GetThisMessageMap@CViewDesignPage2@@KGPBUAFX_MSGMAP@@XZ@4QBUAFX_MSGMAP_ENTRY@@B
CONST	ENDS
;	COMDAT ?_messageEntries@?1??GetThisMessageMap@CViewDesignPage2@@KGPBUAFX_MSGMAP@@XZ@4QBUAFX_MSGMAP_ENTRY@@B
CONST	SEGMENT
?_messageEntries@?1??GetThisMessageMap@CViewDesignPage2@@KGPBUAFX_MSGMAP@@XZ@4QBUAFX_MSGMAP_ENTRY@@B DD 0111H ; `CViewDesignPage2::GetThisMessageMap'::`2'::_messageEntries
	DD	0300H
	DD	02721H
	DD	02721H
	DD	03aH
	DD	FLAT:?OnChangeUserinsertedblockcount@CViewDesignPage2@@IAEXXZ
	DD	0111H
	DD	00H
	DD	02727H
	DD	02727H
	DD	03aH
	DD	FLAT:?OnChartrbuttonmenu@CViewDesignPage2@@IAEXXZ
	DD	0111H
	DD	00H
	DD	01bd4H
	DD	01bd4H
	DD	03aH
	DD	FLAT:?OnIndicondcheck@CViewDesignPage2@@IAEXXZ
	DD	0111H
	DD	00H
	DD	02726H
	DD	02726H
	DD	03aH
	DD	FLAT:?OnEnvironmentcheck@CViewDesignPage2@@IAEXXZ
	DD	0111H
	DD	00H
	DD	01bd5H
	DD	01bd5H
	DD	03aH
	DD	FLAT:?OnUseSkin@CViewDesignPage2@@IAEXXZ
	DD	00H
	DD	00H
	DD	00H
	DD	00H
	DD	00H
	DD	00H
CONST	ENDS
;	COMDAT ??_C@_04GDCIOHAA@?4cht@
CONST	SEGMENT
??_C@_04GDCIOHAA@?4cht@ DB '.cht', 00H			; `string'
CONST	ENDS
;	COMDAT ??_C@_0BB@LAPLNCH@CViewDesignPage2@
CONST	SEGMENT
??_C@_0BB@LAPLNCH@CViewDesignPage2@ DB 'CViewDesignPage2', 00H ; `string'
CONST	ENDS
;	COMDAT ??_C@_01HIHLOKLC@1@
CONST	SEGMENT
??_C@_01HIHLOKLC@1@ DB '1', 00H				; `string'
CONST	ENDS
;	COMDAT ??_7CViewDesignPage2@@6B@
CONST	SEGMENT
??_7CViewDesignPage2@@6B@ DD FLAT:??_R4CViewDesignPage2@@6B@ ; CViewDesignPage2::`vftable'
	DD	FLAT:?GetRuntimeClass@CViewDesignPage2@@UBEPAUCRuntimeClass@@XZ
	DD	FLAT:??_ECViewDesignPage2@@UAEPAXI@Z
	DD	FLAT:?Serialize@CObject@@UAEXAAVCArchive@@@Z
	DD	FLAT:?AssertValid@CObject@@UBEXXZ
	DD	FLAT:?Dump@CObject@@UBEXAAVCDumpContext@@@Z
	DD	FLAT:?OnCmdMsg@CDialog@@UAEHIHPAXPAUAFX_CMDHANDLERINFO@@@Z
	DD	FLAT:?OnFinalRelease@CWnd@@UAEXXZ
	DD	FLAT:?IsInvokeAllowed@CCmdTarget@@UAEHJ@Z
	DD	FLAT:?GetDispatchIID@CCmdTarget@@UAEHPAU_GUID@@@Z
	DD	FLAT:?GetTypeInfoCount@CCmdTarget@@UAEIXZ
	DD	FLAT:?GetTypeLibCache@CCmdTarget@@UAEPAVCTypeLibCache@@XZ
	DD	FLAT:?GetTypeLib@CCmdTarget@@UAEJKPAPAUITypeLib@@@Z
	DD	FLAT:?GetMessageMap@CViewDesignPage2@@MBEPBUAFX_MSGMAP@@XZ
	DD	FLAT:?GetCommandMap@CCmdTarget@@MBEPBUAFX_OLECMDMAP@@XZ
	DD	FLAT:?GetDispatchMap@CCmdTarget@@MBEPBUAFX_DISPMAP@@XZ
	DD	FLAT:?GetConnectionMap@CCmdTarget@@MBEPBUAFX_CONNECTIONMAP@@XZ
	DD	FLAT:?GetInterfaceMap@CWnd@@MBEPBUAFX_INTERFACEMAP@@XZ
	DD	FLAT:?GetEventSinkMap@CCmdTarget@@MBEPBUAFX_EVENTSINKMAP@@XZ
	DD	FLAT:?OnCreateAggregates@CCmdTarget@@UAEHXZ
	DD	FLAT:?GetInterfaceHook@CCmdTarget@@UAEPAUIUnknown@@PBX@Z
	DD	FLAT:?GetExtraConnectionPoints@CCmdTarget@@MAEHPAVCPtrArray@@@Z
	DD	FLAT:?GetConnectionHook@CCmdTarget@@MAEPAUIConnectionPoint@@ABU_GUID@@@Z
	DD	FLAT:?PreSubclassWindow@CWnd@@UAEXXZ
	DD	FLAT:?Create@CWnd@@UAEHPBD0KABUtagRECT@@PAV1@IPAUCCreateContext@@@Z
	DD	FLAT:?CreateEx@CWnd@@UAEHKPBD0KABUtagRECT@@PAV1@IPAX@Z
	DD	FLAT:?CreateEx@CWnd@@UAEHKPBD0KHHHHPAUHWND__@@PAUHMENU__@@PAX@Z
	DD	FLAT:?DestroyWindow@CWnd@@UAEHXZ
	DD	FLAT:?PreCreateWindow@CWnd@@UAEHAAUtagCREATESTRUCTA@@@Z
	DD	FLAT:?CalcWindowRect@CWnd@@UAEXPAUtagRECT@@I@Z
	DD	FLAT:?GetMenu@CWnd@@UBEPAVCMenu@@XZ
	DD	FLAT:?SetMenu@CWnd@@UAEHPAVCMenu@@@Z
	DD	FLAT:?OnToolHitTest@CWnd@@UBEHVCPoint@@PAUtagTOOLINFOA@@@Z
	DD	FLAT:?GetScrollBarCtrl@CWnd@@UBEPAVCScrollBar@@H@Z
	DD	FLAT:?WinHelpA@CWnd@@UAEXKI@Z
	DD	FLAT:?HtmlHelpA@CWnd@@UAEXKI@Z
	DD	FLAT:?WinHelpInternal@CWnd@@UAEXKI@Z
	DD	FLAT:?ContinueModal@CWnd@@UAEHXZ
	DD	FLAT:?EndModalLoop@CWnd@@UAEXH@Z
	DD	FLAT:?OnDrawIconicThumbnailOrLivePreview@CWnd@@UAEXAAVCDC@@VCRect@@VCSize@@HAAH@Z
	DD	FLAT:?EnsureStdObj@CWnd@@UAEJXZ
	DD	FLAT:?get_accParent@CWnd@@UAEJPAPAUIDispatch@@@Z
	DD	FLAT:?get_accChildCount@CWnd@@UAEJPAJ@Z
	DD	FLAT:?get_accChild@CWnd@@UAEJUtagVARIANT@@PAPAUIDispatch@@@Z
	DD	FLAT:?get_accName@CWnd@@UAEJUtagVARIANT@@PAPA_W@Z
	DD	FLAT:?get_accValue@CWnd@@UAEJUtagVARIANT@@PAPA_W@Z
	DD	FLAT:?get_accDescription@CWnd@@UAEJUtagVARIANT@@PAPA_W@Z
	DD	FLAT:?get_accRole@CWnd@@UAEJUtagVARIANT@@PAU2@@Z
	DD	FLAT:?get_accState@CWnd@@UAEJUtagVARIANT@@PAU2@@Z
	DD	FLAT:?get_accHelp@CWnd@@UAEJUtagVARIANT@@PAPA_W@Z
	DD	FLAT:?get_accHelpTopic@CWnd@@UAEJPAPA_WUtagVARIANT@@PAJ@Z
	DD	FLAT:?get_accKeyboardShortcut@CWnd@@UAEJUtagVARIANT@@PAPA_W@Z
	DD	FLAT:?get_accFocus@CWnd@@UAEJPAUtagVARIANT@@@Z
	DD	FLAT:?get_accSelection@CWnd@@UAEJPAUtagVARIANT@@@Z
	DD	FLAT:?get_accDefaultAction@CWnd@@UAEJUtagVARIANT@@PAPA_W@Z
	DD	FLAT:?accSelect@CWnd@@UAEJJUtagVARIANT@@@Z
	DD	FLAT:?accLocation@CWnd@@UAEJPAJ000UtagVARIANT@@@Z
	DD	FLAT:?accNavigate@CWnd@@UAEJJUtagVARIANT@@PAU2@@Z
	DD	FLAT:?accHitTest@CWnd@@UAEJJJPAUtagVARIANT@@@Z
	DD	FLAT:?accDoDefaultAction@CWnd@@UAEJUtagVARIANT@@@Z
	DD	FLAT:?put_accName@CWnd@@UAEJUtagVARIANT@@PA_W@Z
	DD	FLAT:?put_accValue@CWnd@@UAEJUtagVARIANT@@PA_W@Z
	DD	FLAT:?SetProxy@CWnd@@UAEJPAUIAccessibleProxy@@@Z
	DD	FLAT:?CreateAccessibleProxy@CWnd@@UAEJIJPAJ@Z
	DD	FLAT:?OnCommand@CWnd@@MAEHIJ@Z
	DD	FLAT:?OnNotify@CPropertyPage@@MAEHIJPAJ@Z
	DD	FLAT:?GetSuperWndProcAddr@CWnd@@MAEPAP6GJPAUHWND__@@IIJ@ZXZ
	DD	FLAT:?DoDataExchange@CViewDesignPage2@@MAEXPAVCDataExchange@@@Z
	DD	FLAT:?BeginModalState@CWnd@@UAEXXZ
	DD	FLAT:?EndModalState@CWnd@@UAEXXZ
	DD	FLAT:?PreTranslateMessage@CPropertyPage@@MAEHPAUtagMSG@@@Z
	DD	FLAT:?OnAmbientProperty@CWnd@@UAEHPAVCOleControlSite@@JPAUtagVARIANT@@@Z
	DD	FLAT:?WindowProc@CWnd@@MAEJIIJ@Z
	DD	FLAT:?OnWndMsg@CWnd@@MAEHIIJPAJ@Z
	DD	FLAT:?DefWindowProcA@CWnd@@MAEJIIJ@Z
	DD	FLAT:?PostNcDestroy@CWnd@@MAEXXZ
	DD	FLAT:?OnChildNotify@CWnd@@MAEHIIJPAJ@Z
	DD	FLAT:?OnTouchInputs@CWnd@@MAEHIPAUtagTOUCHINPUT@@@Z
	DD	FLAT:?OnTouchInput@CWnd@@MAEHVCPoint@@HHPAUtagTOUCHINPUT@@@Z
	DD	FLAT:?GetGestureStatus@CWnd@@MAEKVCPoint@@@Z
	DD	FLAT:?OnGestureZoom@CWnd@@MAEHVCPoint@@J@Z
	DD	FLAT:?OnGesturePan@CWnd@@MAEHVCPoint@@0@Z
	DD	FLAT:?OnGestureRotate@CWnd@@MAEHVCPoint@@N@Z
	DD	FLAT:?OnGestureTwoFingerTap@CWnd@@MAEHVCPoint@@@Z
	DD	FLAT:?OnGesturePressAndTap@CWnd@@MAEHVCPoint@@J@Z
	DD	FLAT:?ResizeDynamicLayout@CWnd@@MAEXXZ
	DD	FLAT:?CheckAutoCenter@CDialog@@UAEHXZ
	DD	FLAT:?IsFrameWnd@CWnd@@UBEHXZ
	DD	FLAT:?CreateControlContainer@CWnd@@MAEHPAPAVCOleControlContainer@@@Z
	DD	FLAT:?CreateControlSite@CWnd@@MAEHPAVCOleControlContainer@@PAPAVCOleControlSite@@IABU_GUID@@@Z
	DD	FLAT:?SetOccDialogInfo@CDialog@@MAEHPAU_AFX_OCC_DIALOG_INFO@@@Z
	DD	FLAT:?GetOccDialogInfo@CDialog@@MAEPAU_AFX_OCC_DIALOG_INFO@@XZ
	DD	FLAT:?Create@CDialog@@UAEHIPAVCWnd@@@Z
	DD	FLAT:?Create@CDialog@@UAEHPBDPAVCWnd@@@Z
	DD	FLAT:?CreateIndirect@CDialog@@UAEHPAXPAVCWnd@@@Z
	DD	FLAT:?CreateIndirect@CDialog@@UAEHPBUDLGTEMPLATE@@PAVCWnd@@PAX@Z
	DD	FLAT:?DoModal@CDialog@@UAEHXZ
	DD	FLAT:?OnInitDialog@CViewDesignPage2@@MAEHXZ
	DD	FLAT:?OnSetFont@CDialog@@UAEXPAVCFont@@@Z
	DD	FLAT:?OnOK@CPropertyPage@@UAEXXZ
	DD	FLAT:?OnCancel@CPropertyPage@@UAEXXZ
	DD	FLAT:?PreInitDialog@CDialog@@MAEXXZ
	DD	FLAT:?OnApply@CViewDesignPage2@@UAEHXZ
	DD	FLAT:?OnReset@CPropertyPage@@UAEXXZ
	DD	FLAT:?OnSetActive@CPropertyPage@@UAEHXZ
	DD	FLAT:?OnKillActive@CPropertyPage@@UAEHXZ
	DD	FLAT:?OnQueryCancel@CPropertyPage@@UAEHXZ
	DD	FLAT:?OnWizardBack@CPropertyPage@@UAEJXZ
	DD	FLAT:?OnWizardNext@CPropertyPage@@UAEJXZ
	DD	FLAT:?OnWizardFinish@CPropertyPage@@UAEHXZ
	DD	FLAT:?OnWizardFinishEx@CPropertyPage@@UAEPAUHWND__@@XZ
	DD	FLAT:?GetParentSheet@CPropertyPage@@UAEPAVCPropertySheet@@XZ
CONST	ENDS
;	COMDAT ?classCViewDesignPage2@CViewDesignPage2@@2UCRuntimeClass@@B
CONST	SEGMENT
?classCViewDesignPage2@CViewDesignPage2@@2UCRuntimeClass@@B DD FLAT:??_C@_0BB@LAPLNCH@CViewDesignPage2@ ; CViewDesignPage2::classCViewDesignPage2
	DD	0400H
	DD	0ffffH
	DD	FLAT:?CreateObject@CViewDesignPage2@@SGPAVCObject@@XZ
	DD	FLAT:?_GetBaseClass@CViewDesignPage2@@KGPAUCRuntimeClass@@XZ
	DD	00H
	DD	00H
CONST	ENDS
;	COMDAT ??_C@_0BA@ENJOCHIO@LoadResourceDLL@
CONST	SEGMENT
??_C@_0BA@ENJOCHIO@LoadResourceDLL@ DB 'LoadResourceDLL', 00H ; `string'
CONST	ENDS
;	COMDAT ??_R2CDialog@@8
rdata$r	SEGMENT
??_R2CDialog@@8 DD FLAT:??_R1A@?0A@EA@CDialog@@8	; CDialog::`RTTI Base Class Array'
	DD	FLAT:??_R1A@?0A@EA@CWnd@@8
	DD	FLAT:??_R1A@?0A@EA@CCmdTarget@@8
	DD	FLAT:??_R1A@?0A@EA@CObject@@8
rdata$r	ENDS
;	COMDAT ??_R3CDialog@@8
rdata$r	SEGMENT
??_R3CDialog@@8 DD 00H					; CDialog::`RTTI Class Hierarchy Descriptor'
	DD	00H
	DD	04H
	DD	FLAT:??_R2CDialog@@8
rdata$r	ENDS
;	COMDAT ??_R0?AVCDialog@@@8
data$rs	SEGMENT
??_R0?AVCDialog@@@8 DD FLAT:??_7type_info@@6B@		; CDialog `RTTI Type Descriptor'
	DD	00H
	DB	'.?AVCDialog@@', 00H
data$rs	ENDS
;	COMDAT ??_R1A@?0A@EA@CDialog@@8
rdata$r	SEGMENT
??_R1A@?0A@EA@CDialog@@8 DD FLAT:??_R0?AVCDialog@@@8	; CDialog::`RTTI Base Class Descriptor at (0,-1,0,64)'
	DD	03H
	DD	00H
	DD	0ffffffffH
	DD	00H
	DD	040H
	DD	FLAT:??_R3CDialog@@8
rdata$r	ENDS
;	COMDAT ??_R1A@?0A@EA@CButton@@8
rdata$r	SEGMENT
??_R1A@?0A@EA@CButton@@8 DD FLAT:??_R0?AVCButton@@@8	; CButton::`RTTI Base Class Descriptor at (0,-1,0,64)'
	DD	03H
	DD	00H
	DD	0ffffffffH
	DD	00H
	DD	040H
	DD	FLAT:??_R3CButton@@8
rdata$r	ENDS
;	COMDAT ??_R2CButton@@8
rdata$r	SEGMENT
??_R2CButton@@8 DD FLAT:??_R1A@?0A@EA@CButton@@8	; CButton::`RTTI Base Class Array'
	DD	FLAT:??_R1A@?0A@EA@CWnd@@8
	DD	FLAT:??_R1A@?0A@EA@CCmdTarget@@8
	DD	FLAT:??_R1A@?0A@EA@CObject@@8
rdata$r	ENDS
;	COMDAT ??_R3CButton@@8
rdata$r	SEGMENT
??_R3CButton@@8 DD 00H					; CButton::`RTTI Class Hierarchy Descriptor'
	DD	00H
	DD	04H
	DD	FLAT:??_R2CButton@@8
rdata$r	ENDS
;	COMDAT ??_R0?AVCButton@@@8
data$rs	SEGMENT
??_R0?AVCButton@@@8 DD FLAT:??_7type_info@@6B@		; CButton `RTTI Type Descriptor'
	DD	00H
	DB	'.?AVCButton@@', 00H
data$rs	ENDS
;	COMDAT ??_R4CButton@@6B@
rdata$r	SEGMENT
??_R4CButton@@6B@ DD 00H				; CButton::`RTTI Complete Object Locator'
	DD	00H
	DD	00H
	DD	FLAT:??_R0?AVCButton@@@8
	DD	FLAT:??_R3CButton@@8
rdata$r	ENDS
;	COMDAT ??_R2CCmdTarget@@8
rdata$r	SEGMENT
??_R2CCmdTarget@@8 DD FLAT:??_R1A@?0A@EA@CCmdTarget@@8	; CCmdTarget::`RTTI Base Class Array'
	DD	FLAT:??_R1A@?0A@EA@CObject@@8
rdata$r	ENDS
;	COMDAT ??_R3CCmdTarget@@8
rdata$r	SEGMENT
??_R3CCmdTarget@@8 DD 00H				; CCmdTarget::`RTTI Class Hierarchy Descriptor'
	DD	00H
	DD	02H
	DD	FLAT:??_R2CCmdTarget@@8
rdata$r	ENDS
;	COMDAT ??_R0?AVCCmdTarget@@@8
data$rs	SEGMENT
??_R0?AVCCmdTarget@@@8 DD FLAT:??_7type_info@@6B@	; CCmdTarget `RTTI Type Descriptor'
	DD	00H
	DB	'.?AVCCmdTarget@@', 00H
data$rs	ENDS
;	COMDAT ??_R1A@?0A@EA@CCmdTarget@@8
rdata$r	SEGMENT
??_R1A@?0A@EA@CCmdTarget@@8 DD FLAT:??_R0?AVCCmdTarget@@@8 ; CCmdTarget::`RTTI Base Class Descriptor at (0,-1,0,64)'
	DD	01H
	DD	00H
	DD	0ffffffffH
	DD	00H
	DD	040H
	DD	FLAT:??_R3CCmdTarget@@8
rdata$r	ENDS
;	COMDAT ??_R2CWnd@@8
rdata$r	SEGMENT
??_R2CWnd@@8 DD	FLAT:??_R1A@?0A@EA@CWnd@@8		; CWnd::`RTTI Base Class Array'
	DD	FLAT:??_R1A@?0A@EA@CCmdTarget@@8
	DD	FLAT:??_R1A@?0A@EA@CObject@@8
rdata$r	ENDS
;	COMDAT ??_R3CWnd@@8
rdata$r	SEGMENT
??_R3CWnd@@8 DD	00H					; CWnd::`RTTI Class Hierarchy Descriptor'
	DD	00H
	DD	03H
	DD	FLAT:??_R2CWnd@@8
rdata$r	ENDS
;	COMDAT ??_R0?AVCWnd@@@8
data$rs	SEGMENT
??_R0?AVCWnd@@@8 DD FLAT:??_7type_info@@6B@		; CWnd `RTTI Type Descriptor'
	DD	00H
	DB	'.?AVCWnd@@', 00H
data$rs	ENDS
;	COMDAT ??_R1A@?0A@EA@CWnd@@8
rdata$r	SEGMENT
??_R1A@?0A@EA@CWnd@@8 DD FLAT:??_R0?AVCWnd@@@8		; CWnd::`RTTI Base Class Descriptor at (0,-1,0,64)'
	DD	02H
	DD	00H
	DD	0ffffffffH
	DD	00H
	DD	040H
	DD	FLAT:??_R3CWnd@@8
rdata$r	ENDS
;	COMDAT ??_R1A@?0A@EA@CObject@@8
rdata$r	SEGMENT
??_R1A@?0A@EA@CObject@@8 DD FLAT:??_R0?AVCObject@@@8	; CObject::`RTTI Base Class Descriptor at (0,-1,0,64)'
	DD	00H
	DD	00H
	DD	0ffffffffH
	DD	00H
	DD	040H
	DD	FLAT:??_R3CObject@@8
rdata$r	ENDS
;	COMDAT ??_R2CObject@@8
rdata$r	SEGMENT
??_R2CObject@@8 DD FLAT:??_R1A@?0A@EA@CObject@@8	; CObject::`RTTI Base Class Array'
rdata$r	ENDS
;	COMDAT ??_R3CObject@@8
rdata$r	SEGMENT
??_R3CObject@@8 DD 00H					; CObject::`RTTI Class Hierarchy Descriptor'
	DD	00H
	DD	01H
	DD	FLAT:??_R2CObject@@8
rdata$r	ENDS
;	COMDAT ??_R0?AVCObject@@@8
data$rs	SEGMENT
??_R0?AVCObject@@@8 DD FLAT:??_7type_info@@6B@		; CObject `RTTI Type Descriptor'
	DD	00H
	DB	'.?AVCObject@@', 00H
data$rs	ENDS
;	COMDAT ??_7CButton@@6B@
CONST	SEGMENT
??_7CButton@@6B@ DD FLAT:??_R4CButton@@6B@		; CButton::`vftable'
	DD	FLAT:?GetRuntimeClass@CButton@@UBEPAUCRuntimeClass@@XZ
	DD	FLAT:??_ECButton@@UAEPAXI@Z
	DD	FLAT:?Serialize@CObject@@UAEXAAVCArchive@@@Z
	DD	FLAT:?AssertValid@CObject@@UBEXXZ
	DD	FLAT:?Dump@CObject@@UBEXAAVCDumpContext@@@Z
	DD	FLAT:?OnCmdMsg@CCmdTarget@@UAEHIHPAXPAUAFX_CMDHANDLERINFO@@@Z
	DD	FLAT:?OnFinalRelease@CWnd@@UAEXXZ
	DD	FLAT:?IsInvokeAllowed@CCmdTarget@@UAEHJ@Z
	DD	FLAT:?GetDispatchIID@CCmdTarget@@UAEHPAU_GUID@@@Z
	DD	FLAT:?GetTypeInfoCount@CCmdTarget@@UAEIXZ
	DD	FLAT:?GetTypeLibCache@CCmdTarget@@UAEPAVCTypeLibCache@@XZ
	DD	FLAT:?GetTypeLib@CCmdTarget@@UAEJKPAPAUITypeLib@@@Z
	DD	FLAT:?GetMessageMap@CWnd@@MBEPBUAFX_MSGMAP@@XZ
	DD	FLAT:?GetCommandMap@CCmdTarget@@MBEPBUAFX_OLECMDMAP@@XZ
	DD	FLAT:?GetDispatchMap@CCmdTarget@@MBEPBUAFX_DISPMAP@@XZ
	DD	FLAT:?GetConnectionMap@CCmdTarget@@MBEPBUAFX_CONNECTIONMAP@@XZ
	DD	FLAT:?GetInterfaceMap@CWnd@@MBEPBUAFX_INTERFACEMAP@@XZ
	DD	FLAT:?GetEventSinkMap@CCmdTarget@@MBEPBUAFX_EVENTSINKMAP@@XZ
	DD	FLAT:?OnCreateAggregates@CCmdTarget@@UAEHXZ
	DD	FLAT:?GetInterfaceHook@CCmdTarget@@UAEPAUIUnknown@@PBX@Z
	DD	FLAT:?GetExtraConnectionPoints@CCmdTarget@@MAEHPAVCPtrArray@@@Z
	DD	FLAT:?GetConnectionHook@CCmdTarget@@MAEPAUIConnectionPoint@@ABU_GUID@@@Z
	DD	FLAT:?PreSubclassWindow@CWnd@@UAEXXZ
	DD	FLAT:?Create@CWnd@@UAEHPBD0KABUtagRECT@@PAV1@IPAUCCreateContext@@@Z
	DD	FLAT:?CreateEx@CWnd@@UAEHKPBD0KABUtagRECT@@PAV1@IPAX@Z
	DD	FLAT:?CreateEx@CWnd@@UAEHKPBD0KHHHHPAUHWND__@@PAUHMENU__@@PAX@Z
	DD	FLAT:?DestroyWindow@CWnd@@UAEHXZ
	DD	FLAT:?PreCreateWindow@CWnd@@UAEHAAUtagCREATESTRUCTA@@@Z
	DD	FLAT:?CalcWindowRect@CWnd@@UAEXPAUtagRECT@@I@Z
	DD	FLAT:?GetMenu@CWnd@@UBEPAVCMenu@@XZ
	DD	FLAT:?SetMenu@CWnd@@UAEHPAVCMenu@@@Z
	DD	FLAT:?OnToolHitTest@CWnd@@UBEHVCPoint@@PAUtagTOOLINFOA@@@Z
	DD	FLAT:?GetScrollBarCtrl@CWnd@@UBEPAVCScrollBar@@H@Z
	DD	FLAT:?WinHelpA@CWnd@@UAEXKI@Z
	DD	FLAT:?HtmlHelpA@CWnd@@UAEXKI@Z
	DD	FLAT:?WinHelpInternal@CWnd@@UAEXKI@Z
	DD	FLAT:?ContinueModal@CWnd@@UAEHXZ
	DD	FLAT:?EndModalLoop@CWnd@@UAEXH@Z
	DD	FLAT:?OnDrawIconicThumbnailOrLivePreview@CWnd@@UAEXAAVCDC@@VCRect@@VCSize@@HAAH@Z
	DD	FLAT:?EnsureStdObj@CWnd@@UAEJXZ
	DD	FLAT:?get_accParent@CWnd@@UAEJPAPAUIDispatch@@@Z
	DD	FLAT:?get_accChildCount@CWnd@@UAEJPAJ@Z
	DD	FLAT:?get_accChild@CWnd@@UAEJUtagVARIANT@@PAPAUIDispatch@@@Z
	DD	FLAT:?get_accName@CWnd@@UAEJUtagVARIANT@@PAPA_W@Z
	DD	FLAT:?get_accValue@CWnd@@UAEJUtagVARIANT@@PAPA_W@Z
	DD	FLAT:?get_accDescription@CWnd@@UAEJUtagVARIANT@@PAPA_W@Z
	DD	FLAT:?get_accRole@CWnd@@UAEJUtagVARIANT@@PAU2@@Z
	DD	FLAT:?get_accState@CWnd@@UAEJUtagVARIANT@@PAU2@@Z
	DD	FLAT:?get_accHelp@CWnd@@UAEJUtagVARIANT@@PAPA_W@Z
	DD	FLAT:?get_accHelpTopic@CWnd@@UAEJPAPA_WUtagVARIANT@@PAJ@Z
	DD	FLAT:?get_accKeyboardShortcut@CWnd@@UAEJUtagVARIANT@@PAPA_W@Z
	DD	FLAT:?get_accFocus@CWnd@@UAEJPAUtagVARIANT@@@Z
	DD	FLAT:?get_accSelection@CWnd@@UAEJPAUtagVARIANT@@@Z
	DD	FLAT:?get_accDefaultAction@CWnd@@UAEJUtagVARIANT@@PAPA_W@Z
	DD	FLAT:?accSelect@CWnd@@UAEJJUtagVARIANT@@@Z
	DD	FLAT:?accLocation@CWnd@@UAEJPAJ000UtagVARIANT@@@Z
	DD	FLAT:?accNavigate@CWnd@@UAEJJUtagVARIANT@@PAU2@@Z
	DD	FLAT:?accHitTest@CWnd@@UAEJJJPAUtagVARIANT@@@Z
	DD	FLAT:?accDoDefaultAction@CWnd@@UAEJUtagVARIANT@@@Z
	DD	FLAT:?put_accName@CWnd@@UAEJUtagVARIANT@@PA_W@Z
	DD	FLAT:?put_accValue@CWnd@@UAEJUtagVARIANT@@PA_W@Z
	DD	FLAT:?SetProxy@CWnd@@UAEJPAUIAccessibleProxy@@@Z
	DD	FLAT:?CreateAccessibleProxy@CWnd@@UAEJIJPAJ@Z
	DD	FLAT:?OnCommand@CWnd@@MAEHIJ@Z
	DD	FLAT:?OnNotify@CWnd@@MAEHIJPAJ@Z
	DD	FLAT:?GetSuperWndProcAddr@CWnd@@MAEPAP6GJPAUHWND__@@IIJ@ZXZ
	DD	FLAT:?DoDataExchange@CWnd@@MAEXPAVCDataExchange@@@Z
	DD	FLAT:?BeginModalState@CWnd@@UAEXXZ
	DD	FLAT:?EndModalState@CWnd@@UAEXXZ
	DD	FLAT:?PreTranslateMessage@CWnd@@UAEHPAUtagMSG@@@Z
	DD	FLAT:?OnAmbientProperty@CWnd@@UAEHPAVCOleControlSite@@JPAUtagVARIANT@@@Z
	DD	FLAT:?WindowProc@CWnd@@MAEJIIJ@Z
	DD	FLAT:?OnWndMsg@CWnd@@MAEHIIJPAJ@Z
	DD	FLAT:?DefWindowProcA@CWnd@@MAEJIIJ@Z
	DD	FLAT:?PostNcDestroy@CWnd@@MAEXXZ
	DD	FLAT:?OnChildNotify@CButton@@MAEHIIJPAJ@Z
	DD	FLAT:?OnTouchInputs@CWnd@@MAEHIPAUtagTOUCHINPUT@@@Z
	DD	FLAT:?OnTouchInput@CWnd@@MAEHVCPoint@@HHPAUtagTOUCHINPUT@@@Z
	DD	FLAT:?GetGestureStatus@CWnd@@MAEKVCPoint@@@Z
	DD	FLAT:?OnGestureZoom@CWnd@@MAEHVCPoint@@J@Z
	DD	FLAT:?OnGesturePan@CWnd@@MAEHVCPoint@@0@Z
	DD	FLAT:?OnGestureRotate@CWnd@@MAEHVCPoint@@N@Z
	DD	FLAT:?OnGestureTwoFingerTap@CWnd@@MAEHVCPoint@@@Z
	DD	FLAT:?OnGesturePressAndTap@CWnd@@MAEHVCPoint@@J@Z
	DD	FLAT:?ResizeDynamicLayout@CWnd@@MAEXXZ
	DD	FLAT:?CheckAutoCenter@CWnd@@UAEHXZ
	DD	FLAT:?IsFrameWnd@CWnd@@UBEHXZ
	DD	FLAT:?CreateControlContainer@CWnd@@MAEHPAPAVCOleControlContainer@@@Z
	DD	FLAT:?CreateControlSite@CWnd@@MAEHPAVCOleControlContainer@@PAPAVCOleControlSite@@IABU_GUID@@@Z
	DD	FLAT:?SetOccDialogInfo@CWnd@@MAEHPAU_AFX_OCC_DIALOG_INFO@@@Z
	DD	FLAT:?GetOccDialogInfo@CWnd@@MAEPAU_AFX_OCC_DIALOG_INFO@@XZ
	DD	FLAT:?Create@CButton@@UAEHPBDKABUtagRECT@@PAVCWnd@@I@Z
	DD	FLAT:?DrawItem@CButton@@UAEXPAUtagDRAWITEMSTRUCT@@@Z
CONST	ENDS
;	COMDAT ??_C@_00CNPNBAHC@@
CONST	SEGMENT
??_C@_00CNPNBAHC@@ DB 00H				; `string'
CONST	ENDS
;	COMDAT ??_C@_02DPKJAMEF@?$CFd@
CONST	SEGMENT
??_C@_02DPKJAMEF@?$CFd@ DB '%d', 00H			; `string'
CONST	ENDS
;	COMDAT xdata$x
xdata$x	SEGMENT
__unwindtable$?CreateToolTip@CViewDesignPage2@@AAEXXZ DD 0ffffffffH
	DD	FLAT:__unwindfunclet$?CreateToolTip@CViewDesignPage2@@AAEXXZ$0
	DD	00H
	DD	FLAT:__unwindfunclet$?CreateToolTip@CViewDesignPage2@@AAEXXZ$1
	DD	0ffffffffH
	DD	FLAT:___std_terminate
__ehfuncinfo$?CreateToolTip@CViewDesignPage2@@AAEXXZ DD 019930522H
	DD	03H
	DD	FLAT:__unwindtable$?CreateToolTip@CViewDesignPage2@@AAEXXZ
	DD	2 DUP(00H)
	DD	2 DUP(00H)
	DD	00H
	DD	01H
xdata$x	ENDS
;	COMDAT xdata$x
xdata$x	SEGMENT
__unwindtable$?OnIndicondcheck@CViewDesignPage2@@IAEXXZ DD 0ffffffffH
	DD	FLAT:__unwindfunclet$?OnIndicondcheck@CViewDesignPage2@@IAEXXZ$1
__ehfuncinfo$?OnIndicondcheck@CViewDesignPage2@@IAEXXZ DD 019930522H
	DD	01H
	DD	FLAT:__unwindtable$?OnIndicondcheck@CViewDesignPage2@@IAEXXZ
	DD	2 DUP(00H)
	DD	2 DUP(00H)
	DD	00H
	DD	01H
xdata$x	ENDS
;	COMDAT xdata$x
xdata$x	SEGMENT
__unwindtable$?OnChangeUserinsertedblockcount@CViewDesignPage2@@IAEXXZ DD 0ffffffffH
	DD	FLAT:__unwindfunclet$?OnChangeUserinsertedblockcount@CViewDesignPage2@@IAEXXZ$0
	DD	00H
	DD	FLAT:__unwindfunclet$?OnChangeUserinsertedblockcount@CViewDesignPage2@@IAEXXZ$1
	DD	01H
	DD	FLAT:__unwindfunclet$?OnChangeUserinsertedblockcount@CViewDesignPage2@@IAEXXZ$2
	DD	00H
	DD	FLAT:___std_terminate
__ehfuncinfo$?OnChangeUserinsertedblockcount@CViewDesignPage2@@IAEXXZ DD 019930522H
	DD	04H
	DD	FLAT:__unwindtable$?OnChangeUserinsertedblockcount@CViewDesignPage2@@IAEXXZ
	DD	2 DUP(00H)
	DD	2 DUP(00H)
	DD	00H
	DD	01H
xdata$x	ENDS
;	COMDAT xdata$x
xdata$x	SEGMENT
__unwindtable$?OnApply@CViewDesignPage2@@UAEHXZ DD 0ffffffffH
	DD	FLAT:__unwindfunclet$?OnApply@CViewDesignPage2@@UAEHXZ$0
	DD	0ffffffffH
	DD	FLAT:__unwindfunclet$?OnApply@CViewDesignPage2@@UAEHXZ$1
	DD	0ffffffffH
	DD	FLAT:__unwindfunclet$?OnApply@CViewDesignPage2@@UAEHXZ$2
__ehfuncinfo$?OnApply@CViewDesignPage2@@UAEHXZ DD 019930522H
	DD	03H
	DD	FLAT:__unwindtable$?OnApply@CViewDesignPage2@@UAEHXZ
	DD	2 DUP(00H)
	DD	2 DUP(00H)
	DD	00H
	DD	01H
xdata$x	ENDS
;	COMDAT xdata$x
xdata$x	SEGMENT
__unwindtable$?SetProperty@CViewDesignPage2@@QAEXPAUIPropertyMap@@@Z DD 0ffffffffH
	DD	FLAT:__unwindfunclet$?SetProperty@CViewDesignPage2@@QAEXPAUIPropertyMap@@@Z$0
	DD	00H
	DD	FLAT:__unwindfunclet$?SetProperty@CViewDesignPage2@@QAEXPAUIPropertyMap@@@Z$1
__ehfuncinfo$?SetProperty@CViewDesignPage2@@QAEXPAUIPropertyMap@@@Z DD 019930522H
	DD	02H
	DD	FLAT:__unwindtable$?SetProperty@CViewDesignPage2@@QAEXPAUIPropertyMap@@@Z
	DD	2 DUP(00H)
	DD	2 DUP(00H)
	DD	00H
	DD	01H
xdata$x	ENDS
;	COMDAT xdata$x
xdata$x	SEGMENT
__ehfuncinfo$??0CViewDesignPage2@@QAE@XZ DD 019930522H
	DD	0aH
	DD	FLAT:__unwindtable$??0CViewDesignPage2@@QAE@XZ
	DD	2 DUP(00H)
	DD	2 DUP(00H)
	DD	00H
	DD	01H
__unwindtable$??0CViewDesignPage2@@QAE@XZ DD 0ffffffffH
	DD	FLAT:__unwindfunclet$??0CViewDesignPage2@@QAE@XZ$0
	DD	00H
	DD	FLAT:__unwindfunclet$??0CViewDesignPage2@@QAE@XZ$1
	DD	01H
	DD	FLAT:__unwindfunclet$??0CViewDesignPage2@@QAE@XZ$2
	DD	02H
	DD	FLAT:__unwindfunclet$??0CViewDesignPage2@@QAE@XZ$3
	DD	03H
	DD	FLAT:__unwindfunclet$??0CViewDesignPage2@@QAE@XZ$4
	DD	04H
	DD	FLAT:__unwindfunclet$??0CViewDesignPage2@@QAE@XZ$5
	DD	05H
	DD	FLAT:__unwindfunclet$??0CViewDesignPage2@@QAE@XZ$6
	DD	06H
	DD	FLAT:__unwindfunclet$??0CViewDesignPage2@@QAE@XZ$7
	DD	07H
	DD	FLAT:__unwindfunclet$??0CViewDesignPage2@@QAE@XZ$8
	DD	08H
	DD	FLAT:__unwindfunclet$??0CViewDesignPage2@@QAE@XZ$9
xdata$x	ENDS
;	COMDAT xdata$x
xdata$x	SEGMENT
__ehfuncinfo$?CreateObject@CViewDesignPage2@@SGPAVCObject@@XZ DD 019930522H
	DD	0bH
	DD	FLAT:__unwindtable$?CreateObject@CViewDesignPage2@@SGPAVCObject@@XZ
	DD	2 DUP(00H)
	DD	2 DUP(00H)
	DD	00H
	DD	01H
__unwindtable$?CreateObject@CViewDesignPage2@@SGPAVCObject@@XZ DD 0ffffffffH
	DD	FLAT:__unwindfunclet$?CreateObject@CViewDesignPage2@@SGPAVCObject@@XZ$0
	DD	00H
	DD	FLAT:__unwindfunclet$?CreateObject@CViewDesignPage2@@SGPAVCObject@@XZ$1
	DD	01H
	DD	FLAT:__unwindfunclet$?CreateObject@CViewDesignPage2@@SGPAVCObject@@XZ$2
	DD	02H
	DD	FLAT:__unwindfunclet$?CreateObject@CViewDesignPage2@@SGPAVCObject@@XZ$3
	DD	03H
	DD	FLAT:__unwindfunclet$?CreateObject@CViewDesignPage2@@SGPAVCObject@@XZ$4
	DD	04H
	DD	FLAT:__unwindfunclet$?CreateObject@CViewDesignPage2@@SGPAVCObject@@XZ$5
	DD	05H
	DD	FLAT:__unwindfunclet$?CreateObject@CViewDesignPage2@@SGPAVCObject@@XZ$6
	DD	06H
	DD	FLAT:__unwindfunclet$?CreateObject@CViewDesignPage2@@SGPAVCObject@@XZ$7
	DD	07H
	DD	FLAT:__unwindfunclet$?CreateObject@CViewDesignPage2@@SGPAVCObject@@XZ$8
	DD	08H
	DD	FLAT:__unwindfunclet$?CreateObject@CViewDesignPage2@@SGPAVCObject@@XZ$9
	DD	09H
	DD	FLAT:__unwindfunclet$?CreateObject@CViewDesignPage2@@SGPAVCObject@@XZ$10
xdata$x	ENDS
;	COMDAT xdata$x
xdata$x	SEGMENT
__ehfuncinfo$??1CMultiLanguageResourceSetter@@QAE@XZ DD 019930522H
	DD	00H
	DD	00H
	DD	2 DUP(00H)
	DD	2 DUP(00H)
	DD	00H
	DD	05H
xdata$x	ENDS
;	COMDAT xdata$x
xdata$x	SEGMENT
__unwindtable$??HATL@@YA?AV?$CStringT@DV?$StrTraitMFC_DLL@DV?$ChTraitsCRT@D@ATL@@@@@0@PBDABV10@@Z DD 0ffffffffH
	DD	FLAT:__unwindfunclet$??HATL@@YA?AV?$CStringT@DV?$StrTraitMFC_DLL@DV?$ChTraitsCRT@D@ATL@@@@@0@PBDABV10@@Z$0
__ehfuncinfo$??HATL@@YA?AV?$CStringT@DV?$StrTraitMFC_DLL@DV?$ChTraitsCRT@D@ATL@@@@@0@PBDABV10@@Z DD 019930522H
	DD	01H
	DD	FLAT:__unwindtable$??HATL@@YA?AV?$CStringT@DV?$StrTraitMFC_DLL@DV?$ChTraitsCRT@D@ATL@@@@@0@PBDABV10@@Z
	DD	2 DUP(00H)
	DD	2 DUP(00H)
	DD	00H
	DD	01H
xdata$x	ENDS
; Function compile flags: /Ogtp
; File D:\git\src\IBK\IBK_DRFN\ProjSrc\SrcChartEx\ChartAddIn\ChartDesignPropertyAddIn\ChartDesignPropertyAddIn\ViewDesignPage2.cpp
; File C:\Program Files (x86)\Microsoft Visual Studio\2019\Community\VC\Tools\MSVC\14.29.30133\atlmfc\include\afx.inl
;	COMDAT ??_GCViewDesignPage2@@UAEPAXI@Z
_TEXT	SEGMENT
___flags$ = 8						; size = 4
??_GCViewDesignPage2@@UAEPAXI@Z PROC			; CViewDesignPage2::`scalar deleting destructor', COMDAT
; _this$ = ecx
  00000	55		 push	 ebp
  00001	8b ec		 mov	 ebp, esp
; File D:\git\src\IBK\IBK_DRFN\ProjSrc\SrcChartEx\ChartAddIn\ChartDesignPropertyAddIn\ChartDesignPropertyAddIn\ViewDesignPage2.cpp

; 60   : {

  00003	56		 push	 esi
  00004	8b f1		 mov	 esi, ecx

; 61   : }

  00006	8d 8e 18 03 00
	00		 lea	 ecx, DWORD PTR [esi+792]
  0000c	c7 06 00 00 00
	00		 mov	 DWORD PTR [esi], OFFSET ??_7CViewDesignPage2@@6B@
  00012	e8 00 00 00 00	 call	 ??1CDlgToolTip@@UAE@XZ	; CDlgToolTip::~CDlgToolTip
  00017	8d 8e 10 03 00
	00		 lea	 ecx, DWORD PTR [esi+784]
  0001d	ff 15 00 00 00
	00		 call	 DWORD PTR __imp_??1?$CStringT@DV?$StrTraitMFC_DLL@DV?$ChTraitsCRT@D@ATL@@@@@ATL@@QAE@XZ
  00023	8d 8e 0c 03 00
	00		 lea	 ecx, DWORD PTR [esi+780]
  00029	ff 15 00 00 00
	00		 call	 DWORD PTR __imp_??1?$CStringT@DV?$StrTraitMFC_DLL@DV?$ChTraitsCRT@D@ATL@@@@@ATL@@QAE@XZ
  0002f	8d 8e c4 02 00
	00		 lea	 ecx, DWORD PTR [esi+708]
  00035	ff 15 00 00 00
	00		 call	 DWORD PTR __imp_??1?$CStringT@DV?$StrTraitMFC_DLL@DV?$ChTraitsCRT@D@ATL@@@@@ATL@@QAE@XZ
  0003b	8d 8e c0 02 00
	00		 lea	 ecx, DWORD PTR [esi+704]
  00041	ff 15 00 00 00
	00		 call	 DWORD PTR __imp_??1?$CStringT@DV?$StrTraitMFC_DLL@DV?$ChTraitsCRT@D@ATL@@@@@ATL@@QAE@XZ
  00047	8d 8e 40 02 00
	00		 lea	 ecx, DWORD PTR [esi+576]
  0004d	e8 00 00 00 00	 call	 ??1CNoSystemMenuEdit@@UAE@XZ ; CNoSystemMenuEdit::~CNoSystemMenuEdit
  00052	8d 8e c0 01 00
	00		 lea	 ecx, DWORD PTR [esi+448]
  00058	e8 00 00 00 00	 call	 ??1CNoSystemMenuEdit@@UAE@XZ ; CNoSystemMenuEdit::~CNoSystemMenuEdit
  0005d	8d 8e 40 01 00
	00		 lea	 ecx, DWORD PTR [esi+320]
  00063	e8 00 00 00 00	 call	 ??1CNoSystemMenuEdit@@UAE@XZ ; CNoSystemMenuEdit::~CNoSystemMenuEdit
  00068	8d 8e c0 00 00
	00		 lea	 ecx, DWORD PTR [esi+192]
  0006e	e8 00 00 00 00	 call	 ??1CButton@@UAE@XZ	; CButton::~CButton
  00073	8b ce		 mov	 ecx, esi
  00075	e8 00 00 00 00	 call	 ??1CPropertyPage@@UAE@XZ ; CPropertyPage::~CPropertyPage
  0007a	8b 45 08	 mov	 eax, DWORD PTR ___flags$[ebp]
  0007d	a8 01		 test	 al, 1
  0007f	74 22		 je	 SHORT $LN12@scalar
  00081	a8 04		 test	 al, 4
  00083	75 10		 jne	 SHORT $LN3@scalar
; File C:\Program Files (x86)\Microsoft Visual Studio\2019\Community\VC\Tools\MSVC\14.29.30133\atlmfc\include\afx.inl

; 112  : 	{ ::operator delete(p); }

  00085	56		 push	 esi
  00086	e8 00 00 00 00	 call	 ??3@YAXPAX@Z		; operator delete
  0008b	83 c4 04	 add	 esp, 4
  0008e	8b c6		 mov	 eax, esi
  00090	5e		 pop	 esi
  00091	5d		 pop	 ebp
  00092	c2 04 00	 ret	 4
$LN3@scalar:
  00095	68 00 04 00 00	 push	 1024			; 00000400H
  0009a	56		 push	 esi
  0009b	e8 00 00 00 00	 call	 ?__global_delete@@YAXPAXI@Z ; __global_delete
  000a0	83 c4 08	 add	 esp, 8
$LN12@scalar:
  000a3	8b c6		 mov	 eax, esi
  000a5	5e		 pop	 esi
  000a6	5d		 pop	 ebp
  000a7	c2 04 00	 ret	 4
??_GCViewDesignPage2@@UAEPAXI@Z ENDP			; CViewDesignPage2::`scalar deleting destructor'
_TEXT	ENDS
; Function compile flags: /Ogtp
; File D:\git\src\IBK\IBK_DRFN\ProjSrc\SrcChartEx\ChartAddIn\ChartDesignPropertyAddIn\ChartDesignPropertyAddIn\ViewDesignPage2.cpp
;	COMDAT ?SetOcxHwnd@CViewDesignPage2@@QAEXPAUHWND__@@@Z
_TEXT	SEGMENT
_p_hOcxWnd$ = 8						; size = 4
?SetOcxHwnd@CViewDesignPage2@@QAEXPAUHWND__@@@Z PROC	; CViewDesignPage2::SetOcxHwnd, COMDAT
; _this$ = ecx

; 372  : {

  00000	55		 push	 ebp
  00001	8b ec		 mov	 ebp, esp

; 373  : 	m_hOcxWnd = p_hOcxWnd;

  00003	8b 45 08	 mov	 eax, DWORD PTR _p_hOcxWnd$[ebp]
  00006	89 81 fc 03 00
	00		 mov	 DWORD PTR [ecx+1020], eax

; 374  : 	m_toolTip.SetOcxHwnd( p_hOcxWnd);

  0000c	89 81 f0 03 00
	00		 mov	 DWORD PTR [ecx+1008], eax

; 375  : }

  00012	5d		 pop	 ebp
  00013	c2 04 00	 ret	 4
?SetOcxHwnd@CViewDesignPage2@@QAEXPAUHWND__@@@Z ENDP	; CViewDesignPage2::SetOcxHwnd
_TEXT	ENDS
; Function compile flags: /Ogtp
; File D:\git\src\IBK\IBK_DRFN\ProjSrc\SrcChartEx\ChartAddIn\ChartDesignPropertyAddIn\ChartDesignPropertyAddIn\ViewDesignPage2.cpp
;	COMDAT ?EnableWindow_SaveOption@CViewDesignPage2@@AAEX_N@Z
_TEXT	SEGMENT
_bEnable$ = 8						; size = 1
?EnableWindow_SaveOption@CViewDesignPage2@@AAEX_N@Z PROC ; CViewDesignPage2::EnableWindow_SaveOption, COMDAT
; _this$ = ecx

; 290  : {

  00000	55		 push	 ebp
  00001	8b ec		 mov	 ebp, esp
  00003	56		 push	 esi
  00004	8b f1		 mov	 esi, ecx

; 291  : 	EnableWindow(m_strInsertedIndicatorSaveFileName, m_Indicatorsave_Edit);
; 292  : 	EnableWindow(m_strUserEnvironmentSaveFileName, m_EnvironMent_Edit);

  00006	33 d2		 xor	 edx, edx
  00008	57		 push	 edi
  00009	8b 86 c4 02 00
	00		 mov	 eax, DWORD PTR [esi+708]
  0000f	8d 8e c0 01 00
	00		 lea	 ecx, DWORD PTR [esi+448]
  00015	39 50 f4	 cmp	 DWORD PTR [eax-12], edx
  00018	0f 95 c2	 setne	 dl
  0001b	52		 push	 edx
  0001c	e8 00 00 00 00	 call	 ?EnableWindow@CWnd@@QAEHH@Z ; CWnd::EnableWindow

; 300  : 	CWnd* pWnd = (CWnd*) GetDlgItem(nID);

  00021	8b 86 c0 02 00
	00		 mov	 eax, DWORD PTR [esi+704]
  00027	33 c9		 xor	 ecx, ecx
  00029	39 48 f4	 cmp	 DWORD PTR [eax-12], ecx
  0002c	0f 95 c1	 setne	 cl
  0002f	51		 push	 ecx

; 291  : 	EnableWindow(m_strInsertedIndicatorSaveFileName, m_Indicatorsave_Edit);
; 292  : 	EnableWindow(m_strUserEnvironmentSaveFileName, m_EnvironMent_Edit);

  00030	8d 8e 40 02 00
	00		 lea	 ecx, DWORD PTR [esi+576]

; 300  : 	CWnd* pWnd = (CWnd*) GetDlgItem(nID);

  00036	e8 00 00 00 00	 call	 ?EnableWindow@CWnd@@QAEHH@Z ; CWnd::EnableWindow
  0003b	68 26 27 00 00	 push	 10022			; 00002726H
  00040	8b ce		 mov	 ecx, esi
  00042	e8 00 00 00 00	 call	 ?GetDlgItem@CWnd@@QBEPAV1@H@Z ; CWnd::GetDlgItem
  00047	0f b6 7d 08	 movzx	 edi, BYTE PTR _bEnable$[ebp]

; 301  : 	if(pWnd != NULL)

  0004b	85 c0		 test	 eax, eax
  0004d	74 08		 je	 SHORT $LN29@EnableWind

; 302  : 		pWnd->EnableWindow(bEnable);

  0004f	57		 push	 edi
  00050	8b c8		 mov	 ecx, eax
  00052	e8 00 00 00 00	 call	 ?EnableWindow@CWnd@@QAEHH@Z ; CWnd::EnableWindow
$LN29@EnableWind:

; 300  : 	CWnd* pWnd = (CWnd*) GetDlgItem(nID);

  00057	68 d4 1b 00 00	 push	 7124			; 00001bd4H
  0005c	8b ce		 mov	 ecx, esi
  0005e	e8 00 00 00 00	 call	 ?GetDlgItem@CWnd@@QBEPAV1@H@Z ; CWnd::GetDlgItem

; 301  : 	if(pWnd != NULL)

  00063	85 c0		 test	 eax, eax
  00065	74 08		 je	 SHORT $LN27@EnableWind

; 302  : 		pWnd->EnableWindow(bEnable);

  00067	57		 push	 edi
  00068	8b c8		 mov	 ecx, eax
  0006a	e8 00 00 00 00	 call	 ?EnableWindow@CWnd@@QAEHH@Z ; CWnd::EnableWindow
$LN27@EnableWind:
  0006f	5f		 pop	 edi

; 293  : 
; 294  : 	EnableWindow(IDC_ENVIRONMENTCHECK, bEnable);
; 295  : 	EnableWindow(IDC_INDICONDCHECK, bEnable);
; 296  : }

  00070	5e		 pop	 esi
  00071	5d		 pop	 ebp
  00072	c2 04 00	 ret	 4
?EnableWindow_SaveOption@CViewDesignPage2@@AAEX_N@Z ENDP ; CViewDesignPage2::EnableWindow_SaveOption
_TEXT	ENDS
; Function compile flags: /Ogtp
; File D:\git\src\IBK\IBK_DRFN\ProjSrc\SrcChartEx\ChartAddIn\ChartDesignPropertyAddIn\ChartDesignPropertyAddIn\ViewDesignPage2.cpp
;	COMDAT ?EnableWindow@CViewDesignPage2@@AAEXH_N@Z
_TEXT	SEGMENT
_nID$ = 8						; size = 4
_bEnable$ = 12						; size = 1
?EnableWindow@CViewDesignPage2@@AAEXH_N@Z PROC		; CViewDesignPage2::EnableWindow, COMDAT
; _this$ = ecx

; 299  : {

  00000	55		 push	 ebp
  00001	8b ec		 mov	 ebp, esp

; 300  : 	CWnd* pWnd = (CWnd*) GetDlgItem(nID);

  00003	ff 75 08	 push	 DWORD PTR _nID$[ebp]
  00006	e8 00 00 00 00	 call	 ?GetDlgItem@CWnd@@QBEPAV1@H@Z ; CWnd::GetDlgItem

; 301  : 	if(pWnd != NULL)

  0000b	85 c0		 test	 eax, eax
  0000d	74 0c		 je	 SHORT $LN2@EnableWind

; 302  : 		pWnd->EnableWindow(bEnable);

  0000f	0f b6 4d 0c	 movzx	 ecx, BYTE PTR _bEnable$[ebp]
  00013	51		 push	 ecx
  00014	8b c8		 mov	 ecx, eax
  00016	e8 00 00 00 00	 call	 ?EnableWindow@CWnd@@QAEHH@Z ; CWnd::EnableWindow
$LN2@EnableWind:

; 303  : }

  0001b	5d		 pop	 ebp
  0001c	c2 08 00	 ret	 8
?EnableWindow@CViewDesignPage2@@AAEXH_N@Z ENDP		; CViewDesignPage2::EnableWindow
_TEXT	ENDS
; Function compile flags: /Ogtp
; File D:\git\src\IBK\IBK_DRFN\ProjSrc\SrcChartEx\ChartAddIn\ChartDesignPropertyAddIn\ChartDesignPropertyAddIn\ViewDesignPage2.cpp
;	COMDAT ?EnableWindow@CViewDesignPage2@@AAEXABV?$CStringT@DV?$StrTraitMFC_DLL@DV?$ChTraitsCRT@D@ATL@@@@@ATL@@AAVCEdit@@@Z
_TEXT	SEGMENT
_strItem$ = 8						; size = 4
_editItem$ = 12						; size = 4
?EnableWindow@CViewDesignPage2@@AAEXABV?$CStringT@DV?$StrTraitMFC_DLL@DV?$ChTraitsCRT@D@ATL@@@@@ATL@@AAVCEdit@@@Z PROC ; CViewDesignPage2::EnableWindow, COMDAT
; _this$ = ecx

; 259  : {

  00000	55		 push	 ebp
  00001	8b ec		 mov	 ebp, esp

; 260  : 	if(strItem.IsEmpty())
; 261  : 		editItem.EnableWindow(FALSE);
; 262  : 	else
; 263  : 		editItem.EnableWindow(TRUE);
; 264  : }

  00003	8b 45 08	 mov	 eax, DWORD PTR _strItem$[ebp]
  00006	33 c9		 xor	 ecx, ecx
  00008	8b 00		 mov	 eax, DWORD PTR [eax]
  0000a	39 48 f4	 cmp	 DWORD PTR [eax-12], ecx
  0000d	0f 95 c1	 setne	 cl
  00010	51		 push	 ecx
  00011	8b 4d 0c	 mov	 ecx, DWORD PTR _editItem$[ebp]
  00014	e8 00 00 00 00	 call	 ?EnableWindow@CWnd@@QAEHH@Z ; CWnd::EnableWindow
  00019	5d		 pop	 ebp
  0001a	c2 08 00	 ret	 8
?EnableWindow@CViewDesignPage2@@AAEXABV?$CStringT@DV?$StrTraitMFC_DLL@DV?$ChTraitsCRT@D@ATL@@@@@ATL@@AAVCEdit@@@Z ENDP ; CViewDesignPage2::EnableWindow
_TEXT	ENDS
; Function compile flags: /Ogtp
; File D:\git\src\IBK\IBK_DRFN\ProjSrc\SrcChartEx\ChartAddIn\ChartDesignPropertyAddIn\ChartDesignPropertyAddIn\ViewDesignPage2.cpp
; File C:\Program Files (x86)\Microsoft Visual Studio\2019\Community\VC\Tools\MSVC\14.29.30133\atlmfc\include\atlsimpstr.h
; File D:\git\src\IBK\IBK_DRFN\ProjSrc\SrcChartEx\ChartAddIn\ChartDesignPropertyAddIn\ChartDesignPropertyAddIn\ViewDesignPage2.cpp
;	COMDAT ?SetProperty_FileName@CViewDesignPage2@@AAEXABV?$CStringT@DV?$StrTraitMFC_DLL@DV?$ChTraitsCRT@D@ATL@@@@@ATL@@AAV23@AAH@Z
_TEXT	SEGMENT
_strItemValue$ = 8					; size = 4
_strItem$ = 12						; size = 4
_bCheckItem$ = 16					; size = 4
?SetProperty_FileName@CViewDesignPage2@@AAEXABV?$CStringT@DV?$StrTraitMFC_DLL@DV?$ChTraitsCRT@D@ATL@@@@@ATL@@AAV23@AAH@Z PROC ; CViewDesignPage2::SetProperty_FileName, COMDAT
; _this$ = ecx

; 247  : {

  00000	55		 push	 ebp
  00001	8b ec		 mov	 ebp, esp
  00003	56		 push	 esi

; 248  : 	strItem = strItemValue;

  00004	8b 75 0c	 mov	 esi, DWORD PTR _strItem$[ebp]
  00007	57		 push	 edi
  00008	ff 75 08	 push	 DWORD PTR _strItemValue$[ebp]
  0000b	8b f9		 mov	 edi, ecx
  0000d	8b ce		 mov	 ecx, esi
  0000f	ff 15 00 00 00
	00		 call	 DWORD PTR __imp_??4?$CStringT@DV?$StrTraitMFC_DLL@DV?$ChTraitsCRT@D@ATL@@@@@ATL@@QAEAAV01@ABV01@@Z
; File C:\Program Files (x86)\Microsoft Visual Studio\2019\Community\VC\Tools\MSVC\14.29.30133\atlmfc\include\atlsimpstr.h

; 533  : 		return( GetLength() == 0 );

  00015	8b 06		 mov	 eax, DWORD PTR [esi]
  00017	83 78 f4 00	 cmp	 DWORD PTR [eax-12], 0
; File D:\git\src\IBK\IBK_DRFN\ProjSrc\SrcChartEx\ChartAddIn\ChartDesignPropertyAddIn\ChartDesignPropertyAddIn\ViewDesignPage2.cpp

; 249  : 	if(!strItem.IsEmpty() && strItem.Find(FILETYPE) != -1)

  0001b	74 28		 je	 SHORT $LN2@SetPropert
  0001d	6a 00		 push	 0
  0001f	ff b7 10 03 00
	00		 push	 DWORD PTR [edi+784]
  00025	8b ce		 mov	 ecx, esi
  00027	ff 15 00 00 00
	00		 call	 DWORD PTR __imp_?Find@?$CStringT@DV?$StrTraitMFC_DLL@DV?$ChTraitsCRT@D@ATL@@@@@ATL@@QBEHPBDH@Z
  0002d	83 f8 ff	 cmp	 eax, -1
  00030	74 13		 je	 SHORT $LN2@SetPropert

; 250  : 		strItem.Replace(FILETYPE, "");

  00032	68 00 00 00 00	 push	 OFFSET ??_C@_00CNPNBAHC@@
  00037	ff b7 10 03 00
	00		 push	 DWORD PTR [edi+784]
  0003d	8b ce		 mov	 ecx, esi
  0003f	ff 15 00 00 00
	00		 call	 DWORD PTR __imp_?Replace@?$CStringT@DV?$StrTraitMFC_DLL@DV?$ChTraitsCRT@D@ATL@@@@@ATL@@QAEHPBD0@Z
$LN2@SetPropert:

; 251  : 
; 252  : 	if(strItem.IsEmpty())
; 253  : 		bCheckItem = FALSE;
; 254  : 	else
; 255  : 		bCheckItem = TRUE;
; 256  : }

  00045	8b 06		 mov	 eax, DWORD PTR [esi]
  00047	33 c9		 xor	 ecx, ecx
  00049	5f		 pop	 edi
  0004a	5e		 pop	 esi
  0004b	39 48 f4	 cmp	 DWORD PTR [eax-12], ecx
  0004e	8b 45 10	 mov	 eax, DWORD PTR _bCheckItem$[ebp]
  00051	0f 95 c1	 setne	 cl
  00054	89 08		 mov	 DWORD PTR [eax], ecx
  00056	5d		 pop	 ebp
  00057	c2 0c 00	 ret	 12			; 0000000cH
?SetProperty_FileName@CViewDesignPage2@@AAEXABV?$CStringT@DV?$StrTraitMFC_DLL@DV?$ChTraitsCRT@D@ATL@@@@@ATL@@AAV23@AAH@Z ENDP ; CViewDesignPage2::SetProperty_FileName
_TEXT	ENDS
; Function compile flags: /Ogtp
; File D:\git\src\IBK\IBK_DRFN\ProjSrc\SrcChartEx\ChartAddIn\ChartDesignPropertyAddIn\ChartDesignPropertyAddIn\ViewDesignPage2.cpp
; File C:\Program Files (x86)\Microsoft Visual Studio\2019\Community\VC\Tools\MSVC\14.29.30133\atlmfc\include\afxwin1.inl
; File D:\git\src\IBK\IBK_DRFN\ProjSrc\SrcChartEx\ChartAddIn\ChartDesignPropertyAddIn\Include_Chart\Dll_Load\IMetaTable.h
; File C:\Program Files (x86)\Microsoft Visual Studio\2019\Community\VC\Tools\MSVC\14.29.30133\atlmfc\include\afxwin1.inl
; File D:\git\src\IBK\IBK_DRFN\ProjSrc\SrcChartEx\ChartAddIn\ChartDesignPropertyAddIn\ChartDesignPropertyAddIn\ViewDesignPage2.cpp
; File C:\Program Files (x86)\Microsoft Visual Studio\2019\Community\VC\Tools\MSVC\14.29.30133\atlmfc\include\afxcoll.inl
; File D:\git\src\IBK\IBK_DRFN\ProjSrc\SrcChartEx\ChartAddIn\ChartDesignPropertyAddIn\ChartDesignPropertyAddIn\ViewDesignPage2.cpp
; File C:\Program Files (x86)\Microsoft Visual Studio\2019\Community\VC\Tools\MSVC\14.29.30133\atlmfc\include\afxcoll.inl
; File D:\git\src\IBK\IBK_DRFN\ProjSrc\SrcChartEx\ChartAddIn\ChartDesignPropertyAddIn\ChartDesignPropertyAddIn\ViewDesignPage2.cpp
; File C:\Program Files (x86)\Microsoft Visual Studio\2019\Community\VC\Tools\MSVC\14.29.30133\atlmfc\include\afxcoll.inl
; File D:\git\src\IBK\IBK_DRFN\ProjSrc\SrcChartEx\ChartAddIn\ChartDesignPropertyAddIn\ChartDesignPropertyAddIn\ViewDesignPage2.cpp
; File C:\Program Files (x86)\Microsoft Visual Studio\2019\Community\VC\Tools\MSVC\14.29.30133\atlmfc\include\afxcoll.inl
; File D:\git\src\IBK\IBK_DRFN\ProjSrc\SrcChartEx\ChartAddIn\ChartDesignPropertyAddIn\ChartDesignPropertyAddIn\ViewDesignPage2.cpp
; File C:\Program Files (x86)\Microsoft Visual Studio\2019\Community\VC\Tools\MSVC\14.29.30133\atlmfc\include\afxcoll.inl
; File D:\git\src\IBK\IBK_DRFN\ProjSrc\SrcChartEx\ChartAddIn\ChartDesignPropertyAddIn\ChartDesignPropertyAddIn\ViewDesignPage2.cpp
; File C:\Program Files (x86)\Microsoft Visual Studio\2019\Community\VC\Tools\MSVC\14.29.30133\atlmfc\include\afxcoll.inl
; File D:\git\src\IBK\IBK_DRFN\ProjSrc\SrcChartEx\ChartAddIn\ChartDesignPropertyAddIn\ChartDesignPropertyAddIn\ViewDesignPage2.cpp
; File C:\Program Files (x86)\Microsoft Visual Studio\2019\Community\VC\Tools\MSVC\14.29.30133\atlmfc\include\afxcoll.inl
; File D:\git\src\IBK\IBK_DRFN\ProjSrc\SrcChartEx\ChartAddIn\ChartDesignPropertyAddIn\ChartDesignPropertyAddIn\ViewDesignPage2.cpp
; File C:\Program Files (x86)\Microsoft Visual Studio\2019\Community\VC\Tools\MSVC\14.29.30133\atlmfc\include\afxcoll.inl
; File D:\git\src\IBK\IBK_DRFN\ProjSrc\SrcChartEx\ChartAddIn\ChartDesignPropertyAddIn\ChartDesignPropertyAddIn\ViewDesignPage2.cpp
; File D:\git\src\IBK\IBK_DRFN\ProjSrc\SrcChartEx\ChartAddIn\ChartDesignPropertyAddIn\Include_Chart\Dll_Load\IMetaTable.h
; File C:\Program Files (x86)\Microsoft Visual Studio\2019\Community\VC\Tools\MSVC\14.29.30133\atlmfc\include\afxwin1.inl
; File D:\git\src\IBK\IBK_DRFN\ProjSrc\SrcChartEx\ChartAddIn\ChartDesignPropertyAddIn\ChartDesignPropertyAddIn\ViewDesignPage2.cpp
;	COMDAT ?CreateToolTip@CViewDesignPage2@@AAEXXZ
_TEXT	SEGMENT
_dwaInfo$ = -36						; size = 20
___mlrs__$ = -16					; size = 4
__$EHRec$ = -12						; size = 12
?CreateToolTip@CViewDesignPage2@@AAEXXZ PROC		; CViewDesignPage2::CreateToolTip, COMDAT
; _this$ = ecx

; 110  : {

  00000	55		 push	 ebp
  00001	8b ec		 mov	 ebp, esp
  00003	6a ff		 push	 -1
  00005	68 00 00 00 00	 push	 __ehhandler$?CreateToolTip@CViewDesignPage2@@AAEXXZ
  0000a	64 a1 00 00 00
	00		 mov	 eax, DWORD PTR fs:0
  00010	50		 push	 eax
  00011	83 ec 18	 sub	 esp, 24			; 00000018H
  00014	53		 push	 ebx
  00015	56		 push	 esi
  00016	57		 push	 edi
  00017	a1 00 00 00 00	 mov	 eax, DWORD PTR ___security_cookie
  0001c	33 c5		 xor	 eax, ebp
  0001e	50		 push	 eax
  0001f	8d 45 f4	 lea	 eax, DWORD PTR __$EHRec$[ebp]
  00022	64 a3 00 00 00
	00		 mov	 DWORD PTR fs:0, eax
  00028	8b d9		 mov	 ebx, ecx

; 111  : 	ML_SET_LANGUAGE_RES();

  0002a	e8 00 00 00 00	 call	 ?AfxGetStaticModuleState@@YGPAVAFX_MODULE_STATE@@XZ ; AfxGetStaticModuleState
  0002f	b9 00 00 00 00	 mov	 ecx, OFFSET ?g_iMetaTable@@3VIMetaTable@@A ; g_iMetaTable
  00034	8b 40 08	 mov	 eax, DWORD PTR [eax+8]
  00037	50		 push	 eax
  00038	ff b3 fc 03 00
	00		 push	 DWORD PTR [ebx+1020]
  0003e	e8 00 00 00 00	 call	 ?LoadResourceDLL@IMetaTable@@QAEPAUHINSTANCE__@@PAUHWND__@@PAU2@@Z ; IMetaTable::LoadResourceDLL
  00043	8b f8		 mov	 edi, eax
; File C:\Program Files (x86)\Microsoft Visual Studio\2019\Community\VC\Tools\MSVC\14.29.30133\atlmfc\include\afxwin1.inl

; 25   : 		return afxCurrentResourceHandle; }

  00045	e8 00 00 00 00	 call	 ?AfxGetModuleState@@YGPAVAFX_MODULE_STATE@@XZ ; AfxGetModuleState
; File D:\git\src\IBK\IBK_DRFN\ProjSrc\SrcChartEx\ChartAddIn\ChartDesignPropertyAddIn\Include_Chart\Dll_Load\IMetaTable.h

; 1032 : 		m_hInstance = AfxGetResourceHandle();

  0004a	8b 70 0c	 mov	 esi, DWORD PTR [eax+12]
  0004d	89 75 f0	 mov	 DWORD PTR ___mlrs__$[ebp], esi
; File C:\Program Files (x86)\Microsoft Visual Studio\2019\Community\VC\Tools\MSVC\14.29.30133\atlmfc\include\afxwin1.inl

; 27   : 	{ ASSERT(hInstResource != NULL); afxCurrentResourceHandle = hInstResource; }

  00050	e8 00 00 00 00	 call	 ?AfxGetModuleState@@YGPAVAFX_MODULE_STATE@@XZ ; AfxGetModuleState
  00055	89 78 0c	 mov	 DWORD PTR [eax+12], edi
; File D:\git\src\IBK\IBK_DRFN\ProjSrc\SrcChartEx\ChartAddIn\ChartDesignPropertyAddIn\ChartDesignPropertyAddIn\ViewDesignPage2.cpp

; 112  : 	m_toolTip.Create( this );

  00058	8d bb 18 03 00
	00		 lea	 edi, DWORD PTR [ebx+792]
  0005e	c7 45 fc 00 00
	00 00		 mov	 DWORD PTR __$EHRec$[ebp+8], 0
  00065	53		 push	 ebx
  00066	8b cf		 mov	 ecx, edi
  00068	e8 00 00 00 00	 call	 ?Create@CDlgToolTip@@QAEXPAVCWnd@@@Z ; CDlgToolTip::Create

; 113  : 	CDWordArray dwaInfo;

  0006d	8d 4d dc	 lea	 ecx, DWORD PTR _dwaInfo$[ebp]
  00070	e8 00 00 00 00	 call	 ??0CDWordArray@@QAE@XZ	; CDWordArray::CDWordArray
; File C:\Program Files (x86)\Microsoft Visual Studio\2019\Community\VC\Tools\MSVC\14.29.30133\atlmfc\include\afxcoll.inl

; 114  : 	{ SetSize(0); }

  00075	6a ff		 push	 -1
  00077	6a 00		 push	 0
  00079	8d 4d dc	 lea	 ecx, DWORD PTR _dwaInfo$[ebp]
; File D:\git\src\IBK\IBK_DRFN\ProjSrc\SrcChartEx\ChartAddIn\ChartDesignPropertyAddIn\ChartDesignPropertyAddIn\ViewDesignPage2.cpp

; 113  : 	CDWordArray dwaInfo;

  0007c	c6 45 fc 01	 mov	 BYTE PTR __$EHRec$[ebp+8], 1
; File C:\Program Files (x86)\Microsoft Visual Studio\2019\Community\VC\Tools\MSVC\14.29.30133\atlmfc\include\afxcoll.inl

; 114  : 	{ SetSize(0); }

  00080	e8 00 00 00 00	 call	 ?SetSize@CDWordArray@@QAEXHH@Z ; CDWordArray::SetSize

; 137  : 		SetAtGrow(nIndex, newElement);

  00085	68 54 04 00 00	 push	 1108			; 00000454H
  0008a	ff 75 e4	 push	 DWORD PTR _dwaInfo$[ebp+8]
  0008d	8d 4d dc	 lea	 ecx, DWORD PTR _dwaInfo$[ebp]
  00090	e8 00 00 00 00	 call	 ?SetAtGrow@CDWordArray@@QAEXHK@Z ; CDWordArray::SetAtGrow
; File D:\git\src\IBK\IBK_DRFN\ProjSrc\SrcChartEx\ChartAddIn\ChartDesignPropertyAddIn\ChartDesignPropertyAddIn\ViewDesignPage2.cpp

; 117  : 	m_toolTip.AddControlInfo( IDC_USERINSERTEDBLOCKCOUNT, dwaInfo);

  00095	6a 00		 push	 0
  00097	68 ff ff dc 00	 push	 14483455		; 00dcffffH
  0009c	8d 45 dc	 lea	 eax, DWORD PTR _dwaInfo$[ebp]
  0009f	8b cf		 mov	 ecx, edi
  000a1	50		 push	 eax
  000a2	68 21 27 00 00	 push	 10017			; 00002721H
  000a7	e8 00 00 00 00	 call	 ?AddControlInfo@CDlgToolTip@@QAEHIAAVCDWordArray@@KK@Z ; CDlgToolTip::AddControlInfo
; File C:\Program Files (x86)\Microsoft Visual Studio\2019\Community\VC\Tools\MSVC\14.29.30133\atlmfc\include\afxcoll.inl

; 114  : 	{ SetSize(0); }

  000ac	6a ff		 push	 -1
  000ae	6a 00		 push	 0
  000b0	8d 4d dc	 lea	 ecx, DWORD PTR _dwaInfo$[ebp]
  000b3	e8 00 00 00 00	 call	 ?SetSize@CDWordArray@@QAEXHH@Z ; CDWordArray::SetSize

; 137  : 		SetAtGrow(nIndex, newElement);

  000b8	68 55 04 00 00	 push	 1109			; 00000455H
  000bd	ff 75 e4	 push	 DWORD PTR _dwaInfo$[ebp+8]
  000c0	8d 4d dc	 lea	 ecx, DWORD PTR _dwaInfo$[ebp]
  000c3	e8 00 00 00 00	 call	 ?SetAtGrow@CDWordArray@@QAEXHK@Z ; CDWordArray::SetAtGrow
  000c8	68 56 04 00 00	 push	 1110			; 00000456H
  000cd	ff 75 e4	 push	 DWORD PTR _dwaInfo$[ebp+8]
  000d0	8d 4d dc	 lea	 ecx, DWORD PTR _dwaInfo$[ebp]
  000d3	e8 00 00 00 00	 call	 ?SetAtGrow@CDWordArray@@QAEXHK@Z ; CDWordArray::SetAtGrow
; File D:\git\src\IBK\IBK_DRFN\ProjSrc\SrcChartEx\ChartAddIn\ChartDesignPropertyAddIn\ChartDesignPropertyAddIn\ViewDesignPage2.cpp

; 122  : 	m_toolTip.AddControlInfo( IDC_CHARTRBUTTONMENU, dwaInfo);

  000d8	6a 00		 push	 0
  000da	68 ff ff dc 00	 push	 14483455		; 00dcffffH
  000df	8d 45 dc	 lea	 eax, DWORD PTR _dwaInfo$[ebp]
  000e2	8b cf		 mov	 ecx, edi
  000e4	50		 push	 eax
  000e5	68 27 27 00 00	 push	 10023			; 00002727H
  000ea	e8 00 00 00 00	 call	 ?AddControlInfo@CDlgToolTip@@QAEHIAAVCDWordArray@@KK@Z ; CDlgToolTip::AddControlInfo
; File C:\Program Files (x86)\Microsoft Visual Studio\2019\Community\VC\Tools\MSVC\14.29.30133\atlmfc\include\afxcoll.inl

; 114  : 	{ SetSize(0); }

  000ef	6a ff		 push	 -1
  000f1	6a 00		 push	 0
  000f3	8d 4d dc	 lea	 ecx, DWORD PTR _dwaInfo$[ebp]
  000f6	e8 00 00 00 00	 call	 ?SetSize@CDWordArray@@QAEXHH@Z ; CDWordArray::SetSize

; 137  : 		SetAtGrow(nIndex, newElement);

  000fb	68 57 04 00 00	 push	 1111			; 00000457H
  00100	ff 75 e4	 push	 DWORD PTR _dwaInfo$[ebp+8]
  00103	8d 4d dc	 lea	 ecx, DWORD PTR _dwaInfo$[ebp]
  00106	e8 00 00 00 00	 call	 ?SetAtGrow@CDWordArray@@QAEXHK@Z ; CDWordArray::SetAtGrow
; File D:\git\src\IBK\IBK_DRFN\ProjSrc\SrcChartEx\ChartAddIn\ChartDesignPropertyAddIn\ChartDesignPropertyAddIn\ViewDesignPage2.cpp

; 126  : 	m_toolTip.AddControlInfo( IDC_GRAPHDRAGANDDROP, dwaInfo);

  0010b	6a 00		 push	 0
  0010d	68 ff ff dc 00	 push	 14483455		; 00dcffffH
  00112	8d 45 dc	 lea	 eax, DWORD PTR _dwaInfo$[ebp]
  00115	8b cf		 mov	 ecx, edi
  00117	50		 push	 eax
  00118	68 22 27 00 00	 push	 10018			; 00002722H
  0011d	e8 00 00 00 00	 call	 ?AddControlInfo@CDlgToolTip@@QAEHIAAVCDWordArray@@KK@Z ; CDlgToolTip::AddControlInfo
; File C:\Program Files (x86)\Microsoft Visual Studio\2019\Community\VC\Tools\MSVC\14.29.30133\atlmfc\include\afxcoll.inl

; 114  : 	{ SetSize(0); }

  00122	6a ff		 push	 -1
  00124	6a 00		 push	 0
  00126	8d 4d dc	 lea	 ecx, DWORD PTR _dwaInfo$[ebp]
  00129	e8 00 00 00 00	 call	 ?SetSize@CDWordArray@@QAEXHH@Z ; CDWordArray::SetSize

; 137  : 		SetAtGrow(nIndex, newElement);

  0012e	68 58 04 00 00	 push	 1112			; 00000458H
  00133	ff 75 e4	 push	 DWORD PTR _dwaInfo$[ebp+8]
  00136	8d 4d dc	 lea	 ecx, DWORD PTR _dwaInfo$[ebp]
  00139	e8 00 00 00 00	 call	 ?SetAtGrow@CDWordArray@@QAEXHK@Z ; CDWordArray::SetAtGrow
; File D:\git\src\IBK\IBK_DRFN\ProjSrc\SrcChartEx\ChartAddIn\ChartDesignPropertyAddIn\ChartDesignPropertyAddIn\ViewDesignPage2.cpp

; 130  : 	m_toolTip.AddControlInfo( IDC_HIDE, dwaInfo );	

  0013e	6a 00		 push	 0
  00140	68 ff ff dc 00	 push	 14483455		; 00dcffffH
  00145	8d 45 dc	 lea	 eax, DWORD PTR _dwaInfo$[ebp]
  00148	8b cf		 mov	 ecx, edi
  0014a	50		 push	 eax
  0014b	68 2b 27 00 00	 push	 10027			; 0000272bH
  00150	e8 00 00 00 00	 call	 ?AddControlInfo@CDlgToolTip@@QAEHIAAVCDWordArray@@KK@Z ; CDlgToolTip::AddControlInfo
; File C:\Program Files (x86)\Microsoft Visual Studio\2019\Community\VC\Tools\MSVC\14.29.30133\atlmfc\include\afxcoll.inl

; 114  : 	{ SetSize(0); }

  00155	6a ff		 push	 -1
  00157	6a 00		 push	 0
  00159	8d 4d dc	 lea	 ecx, DWORD PTR _dwaInfo$[ebp]
  0015c	e8 00 00 00 00	 call	 ?SetSize@CDWordArray@@QAEXHH@Z ; CDWordArray::SetSize

; 137  : 		SetAtGrow(nIndex, newElement);

  00161	68 59 04 00 00	 push	 1113			; 00000459H
  00166	ff 75 e4	 push	 DWORD PTR _dwaInfo$[ebp+8]
  00169	8d 4d dc	 lea	 ecx, DWORD PTR _dwaInfo$[ebp]
  0016c	e8 00 00 00 00	 call	 ?SetAtGrow@CDWordArray@@QAEXHK@Z ; CDWordArray::SetAtGrow
; File D:\git\src\IBK\IBK_DRFN\ProjSrc\SrcChartEx\ChartAddIn\ChartDesignPropertyAddIn\ChartDesignPropertyAddIn\ViewDesignPage2.cpp

; 134  : 	m_toolTip.AddControlInfo( IDC_INPUT_REQUIRE, dwaInfo );

  00171	6a 00		 push	 0
  00173	68 ff ff dc 00	 push	 14483455		; 00dcffffH
  00178	8d 45 dc	 lea	 eax, DWORD PTR _dwaInfo$[ebp]
  0017b	8b cf		 mov	 ecx, edi
  0017d	50		 push	 eax
  0017e	68 2c 27 00 00	 push	 10028			; 0000272cH
  00183	e8 00 00 00 00	 call	 ?AddControlInfo@CDlgToolTip@@QAEHIAAVCDWordArray@@KK@Z ; CDlgToolTip::AddControlInfo
; File C:\Program Files (x86)\Microsoft Visual Studio\2019\Community\VC\Tools\MSVC\14.29.30133\atlmfc\include\afxcoll.inl

; 114  : 	{ SetSize(0); }

  00188	6a ff		 push	 -1
  0018a	6a 00		 push	 0
  0018c	8d 4d dc	 lea	 ecx, DWORD PTR _dwaInfo$[ebp]
  0018f	e8 00 00 00 00	 call	 ?SetSize@CDWordArray@@QAEXHH@Z ; CDWordArray::SetSize

; 137  : 		SetAtGrow(nIndex, newElement);

  00194	68 5a 04 00 00	 push	 1114			; 0000045aH
  00199	ff 75 e4	 push	 DWORD PTR _dwaInfo$[ebp+8]
  0019c	8d 4d dc	 lea	 ecx, DWORD PTR _dwaInfo$[ebp]
  0019f	e8 00 00 00 00	 call	 ?SetAtGrow@CDWordArray@@QAEXHK@Z ; CDWordArray::SetAtGrow
; File D:\git\src\IBK\IBK_DRFN\ProjSrc\SrcChartEx\ChartAddIn\ChartDesignPropertyAddIn\ChartDesignPropertyAddIn\ViewDesignPage2.cpp

; 138  : 	m_toolTip.AddControlInfo( IDC_STATIC35, dwaInfo );		

  001a4	6a 00		 push	 0
  001a6	68 ff ff dc 00	 push	 14483455		; 00dcffffH
  001ab	8d 45 dc	 lea	 eax, DWORD PTR _dwaInfo$[ebp]
  001ae	8b cf		 mov	 ecx, edi
  001b0	50		 push	 eax
  001b1	68 ab 1b 00 00	 push	 7083			; 00001babH
  001b6	e8 00 00 00 00	 call	 ?AddControlInfo@CDlgToolTip@@QAEHIAAVCDWordArray@@KK@Z ; CDlgToolTip::AddControlInfo

; 139  : 	m_toolTip.AddControlInfo( IDC_INDICATOR_SAVE_FILE_NAME, dwaInfo );		

  001bb	6a 00		 push	 0
  001bd	68 ff ff dc 00	 push	 14483455		; 00dcffffH
  001c2	8d 45 dc	 lea	 eax, DWORD PTR _dwaInfo$[ebp]
  001c5	8b cf		 mov	 ecx, edi
  001c7	50		 push	 eax
  001c8	68 29 27 00 00	 push	 10025			; 00002729H
  001cd	e8 00 00 00 00	 call	 ?AddControlInfo@CDlgToolTip@@QAEHIAAVCDWordArray@@KK@Z ; CDlgToolTip::AddControlInfo
; File C:\Program Files (x86)\Microsoft Visual Studio\2019\Community\VC\Tools\MSVC\14.29.30133\atlmfc\include\afxcoll.inl

; 114  : 	{ SetSize(0); }

  001d2	6a ff		 push	 -1
  001d4	6a 00		 push	 0
  001d6	8d 4d dc	 lea	 ecx, DWORD PTR _dwaInfo$[ebp]
  001d9	e8 00 00 00 00	 call	 ?SetSize@CDWordArray@@QAEXHH@Z ; CDWordArray::SetSize

; 137  : 		SetAtGrow(nIndex, newElement);

  001de	68 5b 04 00 00	 push	 1115			; 0000045bH
  001e3	ff 75 e4	 push	 DWORD PTR _dwaInfo$[ebp+8]
  001e6	8d 4d dc	 lea	 ecx, DWORD PTR _dwaInfo$[ebp]
  001e9	e8 00 00 00 00	 call	 ?SetAtGrow@CDWordArray@@QAEXHK@Z ; CDWordArray::SetAtGrow
; File D:\git\src\IBK\IBK_DRFN\ProjSrc\SrcChartEx\ChartAddIn\ChartDesignPropertyAddIn\ChartDesignPropertyAddIn\ViewDesignPage2.cpp

; 143  : 	m_toolTip.AddControlInfo( IDC_STATIC37, dwaInfo );		

  001ee	6a 00		 push	 0
  001f0	68 ff ff dc 00	 push	 14483455		; 00dcffffH
  001f5	8d 45 dc	 lea	 eax, DWORD PTR _dwaInfo$[ebp]
  001f8	8b cf		 mov	 ecx, edi
  001fa	50		 push	 eax
  001fb	68 ad 1b 00 00	 push	 7085			; 00001badH
  00200	e8 00 00 00 00	 call	 ?AddControlInfo@CDlgToolTip@@QAEHIAAVCDWordArray@@KK@Z ; CDlgToolTip::AddControlInfo

; 144  : 	m_toolTip.AddControlInfo( IDC_ENVIRONMENT_SAVE_FILE_NAME, dwaInfo );		

  00205	6a 00		 push	 0
  00207	68 ff ff dc 00	 push	 14483455		; 00dcffffH
  0020c	8d 45 dc	 lea	 eax, DWORD PTR _dwaInfo$[ebp]
  0020f	8b cf		 mov	 ecx, edi
  00211	50		 push	 eax
  00212	68 2d 27 00 00	 push	 10029			; 0000272dH
  00217	e8 00 00 00 00	 call	 ?AddControlInfo@CDlgToolTip@@QAEHIAAVCDWordArray@@KK@Z ; CDlgToolTip::AddControlInfo

; 145  : }

  0021c	8d 4d dc	 lea	 ecx, DWORD PTR _dwaInfo$[ebp]
  0021f	e8 00 00 00 00	 call	 ??1CDWordArray@@UAE@XZ	; CDWordArray::~CDWordArray
; File D:\git\src\IBK\IBK_DRFN\ProjSrc\SrcChartEx\ChartAddIn\ChartDesignPropertyAddIn\Include_Chart\Dll_Load\IMetaTable.h

; 1036 : 	{

  00224	c7 45 fc 02 00
	00 00		 mov	 DWORD PTR __$EHRec$[ebp+8], 2
; File C:\Program Files (x86)\Microsoft Visual Studio\2019\Community\VC\Tools\MSVC\14.29.30133\atlmfc\include\afxwin1.inl

; 27   : 	{ ASSERT(hInstResource != NULL); afxCurrentResourceHandle = hInstResource; }

  0022b	e8 00 00 00 00	 call	 ?AfxGetModuleState@@YGPAVAFX_MODULE_STATE@@XZ ; AfxGetModuleState
  00230	89 70 0c	 mov	 DWORD PTR [eax+12], esi
; File D:\git\src\IBK\IBK_DRFN\ProjSrc\SrcChartEx\ChartAddIn\ChartDesignPropertyAddIn\ChartDesignPropertyAddIn\ViewDesignPage2.cpp

; 145  : }

  00233	8b 4d f4	 mov	 ecx, DWORD PTR __$EHRec$[ebp]
  00236	64 89 0d 00 00
	00 00		 mov	 DWORD PTR fs:0, ecx
  0023d	59		 pop	 ecx
  0023e	5f		 pop	 edi
  0023f	5e		 pop	 esi
  00240	5b		 pop	 ebx
  00241	8b e5		 mov	 esp, ebp
  00243	5d		 pop	 ebp
  00244	c3		 ret	 0
_TEXT	ENDS
;	COMDAT text$x
text$x	SEGMENT
__unwindfunclet$?CreateToolTip@CViewDesignPage2@@AAEXXZ$0:
  00000	8d 4d f0	 lea	 ecx, DWORD PTR ___mlrs__$[ebp]
  00003	e9 00 00 00 00	 jmp	 ??1CMultiLanguageResourceSetter@@QAE@XZ ; CMultiLanguageResourceSetter::~CMultiLanguageResourceSetter
__unwindfunclet$?CreateToolTip@CViewDesignPage2@@AAEXXZ$1:
  00008	8d 4d dc	 lea	 ecx, DWORD PTR _dwaInfo$[ebp]
  0000b	e9 00 00 00 00	 jmp	 ??1CDWordArray@@UAE@XZ	; CDWordArray::~CDWordArray
  00010	cc		 int	 3
  00011	cc		 int	 3
  00012	cc		 int	 3
  00013	cc		 int	 3
  00014	cc		 int	 3
__ehhandler$?CreateToolTip@CViewDesignPage2@@AAEXXZ:
  00015	90		 npad	 1
  00016	90		 npad	 1
  00017	8b 54 24 08	 mov	 edx, DWORD PTR [esp+8]
  0001b	8d 42 0c	 lea	 eax, DWORD PTR [edx+12]
  0001e	8b 4a d8	 mov	 ecx, DWORD PTR [edx-40]
  00021	33 c8		 xor	 ecx, eax
  00023	e8 00 00 00 00	 call	 @__security_check_cookie@4
  00028	b8 00 00 00 00	 mov	 eax, OFFSET __ehfuncinfo$?CreateToolTip@CViewDesignPage2@@AAEXXZ
  0002d	e9 00 00 00 00	 jmp	 ___CxxFrameHandler3
text$x	ENDS
?CreateToolTip@CViewDesignPage2@@AAEXXZ ENDP		; CViewDesignPage2::CreateToolTip
; Function compile flags: /Ogtp
; File D:\git\src\IBK\IBK_DRFN\ProjSrc\SrcChartEx\ChartAddIn\ChartDesignPropertyAddIn\ChartDesignPropertyAddIn\ViewDesignPage2.cpp
; File C:\Program Files (x86)\Microsoft Visual Studio\2019\Community\VC\Tools\MSVC\14.29.30133\atlmfc\include\atlsimpstr.h
; File D:\git\src\IBK\IBK_DRFN\ProjSrc\SrcChartEx\ChartAddIn\ChartDesignPropertyAddIn\ChartDesignPropertyAddIn\ViewDesignPage2.cpp
; File C:\Program Files (x86)\Microsoft Visual Studio\2019\Community\VC\Tools\MSVC\14.29.30133\atlmfc\include\atlsimpstr.h
; File D:\git\src\IBK\IBK_DRFN\ProjSrc\SrcChartEx\ChartAddIn\ChartDesignPropertyAddIn\ChartDesignPropertyAddIn\ViewDesignPage2.cpp
;	COMDAT ?MakeFileName@CViewDesignPage2@@AAE?AV?$CStringT@DV?$StrTraitMFC_DLL@DV?$ChTraitsCRT@D@ATL@@@@@ATL@@AAV23@@Z
_TEXT	SEGMENT
___$ReturnUdt$ = 8					; size = 4
_strFileName$ = 12					; size = 4
?MakeFileName@CViewDesignPage2@@AAE?AV?$CStringT@DV?$StrTraitMFC_DLL@DV?$ChTraitsCRT@D@ATL@@@@@ATL@@AAV23@@Z PROC ; CViewDesignPage2::MakeFileName, COMDAT
; _this$ = ecx

; 203  : {

  00000	55		 push	 ebp
  00001	8b ec		 mov	 ebp, esp
  00003	53		 push	 ebx
  00004	56		 push	 esi
  00005	57		 push	 edi

; 204  : 	if(strFileName.Find(".") >= 0) {

  00006	8b 7d 0c	 mov	 edi, DWORD PTR _strFileName$[ebp]
  00009	8b d9		 mov	 ebx, ecx
  0000b	6a 00		 push	 0
  0000d	68 00 00 00 00	 push	 OFFSET ??_C@_01LFCBOECM@?4@
  00012	8b cf		 mov	 ecx, edi
  00014	ff 15 00 00 00
	00		 call	 DWORD PTR __imp_?Find@?$CStringT@DV?$StrTraitMFC_DLL@DV?$ChTraitsCRT@D@ATL@@@@@ATL@@QBEHPBDH@Z
  0001a	8b 17		 mov	 edx, DWORD PTR [edi]
  0001c	85 c0		 test	 eax, eax
  0001e	78 50		 js	 SHORT $LN2@MakeFileNa
; File C:\Program Files (x86)\Microsoft Visual Studio\2019\Community\VC\Tools\MSVC\14.29.30133\atlmfc\include\atlsimpstr.h

; 519  : 		return( GetData()->nDataLength );

  00020	8b 72 f4	 mov	 esi, DWORD PTR [edx-12]
; File D:\git\src\IBK\IBK_DRFN\ProjSrc\SrcChartEx\ChartAddIn\ChartDesignPropertyAddIn\ChartDesignPropertyAddIn\ViewDesignPage2.cpp

; 205  : 		strFileName.Delete(strFileName.Find("."), strFileName.GetLength() - strFileName.Find("."));

  00023	8b cf		 mov	 ecx, edi
  00025	6a 00		 push	 0
  00027	68 00 00 00 00	 push	 OFFSET ??_C@_01LFCBOECM@?4@
  0002c	ff 15 00 00 00
	00		 call	 DWORD PTR __imp_?Find@?$CStringT@DV?$StrTraitMFC_DLL@DV?$ChTraitsCRT@D@ATL@@@@@ATL@@QBEHPBDH@Z
  00032	2b f0		 sub	 esi, eax
  00034	8b cf		 mov	 ecx, edi
  00036	56		 push	 esi
  00037	6a 00		 push	 0
  00039	68 00 00 00 00	 push	 OFFSET ??_C@_01LFCBOECM@?4@
  0003e	ff 15 00 00 00
	00		 call	 DWORD PTR __imp_?Find@?$CStringT@DV?$StrTraitMFC_DLL@DV?$ChTraitsCRT@D@ATL@@@@@ATL@@QBEHPBDH@Z
  00044	50		 push	 eax
  00045	8b cf		 mov	 ecx, edi
  00047	ff 15 00 00 00
	00		 call	 DWORD PTR __imp_?Delete@?$CStringT@DV?$StrTraitMFC_DLL@DV?$ChTraitsCRT@D@ATL@@@@@ATL@@QAEHHH@Z
$LN4@MakeFileNa:

; 210  : 	else
; 211  : 		return strFileName += FILETYPE;
; 212  : }

  0004d	8d 83 10 03 00
	00		 lea	 eax, DWORD PTR [ebx+784]
  00053	8b cf		 mov	 ecx, edi
  00055	50		 push	 eax
  00056	ff 15 00 00 00
	00		 call	 DWORD PTR __imp_??Y?$CStringT@DV?$StrTraitMFC_DLL@DV?$ChTraitsCRT@D@ATL@@@@@ATL@@QAEAAV01@ABV?$CSimpleStringT@D$00@1@@Z
  0005c	8b 4d 08	 mov	 ecx, DWORD PTR ___$ReturnUdt$[ebp]
  0005f	50		 push	 eax
  00060	ff 15 00 00 00
	00		 call	 DWORD PTR __imp_??0?$CStringT@DV?$StrTraitMFC_DLL@DV?$ChTraitsCRT@D@ATL@@@@@ATL@@QAE@ABV01@@Z
  00066	8b 45 08	 mov	 eax, DWORD PTR ___$ReturnUdt$[ebp]
  00069	5f		 pop	 edi
  0006a	5e		 pop	 esi
  0006b	5b		 pop	 ebx
  0006c	5d		 pop	 ebp
  0006d	c2 08 00	 ret	 8
$LN2@MakeFileNa:
; File C:\Program Files (x86)\Microsoft Visual Studio\2019\Community\VC\Tools\MSVC\14.29.30133\atlmfc\include\atlsimpstr.h

; 533  : 		return( GetLength() == 0 );

  00070	83 7a f4 00	 cmp	 DWORD PTR [edx-12], 0
; File D:\git\src\IBK\IBK_DRFN\ProjSrc\SrcChartEx\ChartAddIn\ChartDesignPropertyAddIn\ChartDesignPropertyAddIn\ViewDesignPage2.cpp

; 208  : 	else if(strFileName.IsEmpty())

  00074	75 d7		 jne	 SHORT $LN4@MakeFileNa

; 209  : 		return "";

  00076	8b 4d 08	 mov	 ecx, DWORD PTR ___$ReturnUdt$[ebp]
  00079	68 00 00 00 00	 push	 OFFSET ??_C@_00CNPNBAHC@@
  0007e	ff 15 00 00 00
	00		 call	 DWORD PTR __imp_??0?$CStringT@DV?$StrTraitMFC_DLL@DV?$ChTraitsCRT@D@ATL@@@@@ATL@@QAE@PBD@Z

; 210  : 	else
; 211  : 		return strFileName += FILETYPE;
; 212  : }

  00084	8b 45 08	 mov	 eax, DWORD PTR ___$ReturnUdt$[ebp]
  00087	5f		 pop	 edi
  00088	5e		 pop	 esi
  00089	5b		 pop	 ebx
  0008a	5d		 pop	 ebp
  0008b	c2 08 00	 ret	 8
?MakeFileName@CViewDesignPage2@@AAE?AV?$CStringT@DV?$StrTraitMFC_DLL@DV?$ChTraitsCRT@D@ATL@@@@@ATL@@AAV23@@Z ENDP ; CViewDesignPage2::MakeFileName
_TEXT	ENDS
; Function compile flags: /Ogtp
; File D:\git\src\IBK\IBK_DRFN\ProjSrc\SrcChartEx\ChartAddIn\ChartDesignPropertyAddIn\ChartDesignPropertyAddIn\ViewDesignPage2.cpp
;	COMDAT ?GetMessageMap@CViewDesignPage2@@MBEPBUAFX_MSGMAP@@XZ
_TEXT	SEGMENT
?GetMessageMap@CViewDesignPage2@@MBEPBUAFX_MSGMAP@@XZ PROC ; CViewDesignPage2::GetMessageMap, COMDAT
; _this$ = ecx

; 95   : BEGIN_MESSAGE_MAP(CViewDesignPage2, CPropertyPage)

  00000	b8 00 00 00 00	 mov	 eax, OFFSET ?messageMap@?1??GetThisMessageMap@CViewDesignPage2@@KGPBUAFX_MSGMAP@@XZ@4U3@B
  00005	c3		 ret	 0
?GetMessageMap@CViewDesignPage2@@MBEPBUAFX_MSGMAP@@XZ ENDP ; CViewDesignPage2::GetMessageMap
_TEXT	ENDS
; Function compile flags: /Ogtp
; File D:\git\src\IBK\IBK_DRFN\ProjSrc\SrcChartEx\ChartAddIn\ChartDesignPropertyAddIn\ChartDesignPropertyAddIn\ViewDesignPage2.cpp
;	COMDAT ?GetThisMessageMap@CViewDesignPage2@@KGPBUAFX_MSGMAP@@XZ
_TEXT	SEGMENT
?GetThisMessageMap@CViewDesignPage2@@KGPBUAFX_MSGMAP@@XZ PROC ; CViewDesignPage2::GetThisMessageMap, COMDAT

; 96   : 	//{{AFX_MSG_MAP(CViewDesignPage2)
; 97   : 	ON_EN_CHANGE(IDC_USERINSERTEDBLOCKCOUNT, OnChangeUserinsertedblockcount)
; 98   : 	ON_BN_CLICKED(IDC_CHARTRBUTTONMENU, OnChartrbuttonmenu)
; 99   : 	ON_BN_CLICKED(IDC_INDICONDCHECK, OnIndicondcheck)
; 100  : 	ON_BN_CLICKED(IDC_ENVIRONMENTCHECK, OnEnvironmentcheck)
; 101  : 	ON_BN_CLICKED(IDC_USESKIN, OnUseSkin)
; 102  : 	//}}AFX_MSG_MAP
; 103  : END_MESSAGE_MAP()

  00000	b8 00 00 00 00	 mov	 eax, OFFSET ?messageMap@?1??GetThisMessageMap@CViewDesignPage2@@KGPBUAFX_MSGMAP@@XZ@4U3@B
  00005	c3		 ret	 0
?GetThisMessageMap@CViewDesignPage2@@KGPBUAFX_MSGMAP@@XZ ENDP ; CViewDesignPage2::GetThisMessageMap
_TEXT	ENDS
; Function compile flags: /Ogtp
; File D:\git\src\IBK\IBK_DRFN\ProjSrc\SrcChartEx\ChartAddIn\ChartDesignPropertyAddIn\ChartDesignPropertyAddIn\ViewDesignPage2.cpp
;	COMDAT ?OnUseSkin@CViewDesignPage2@@IAEXXZ
_TEXT	SEGMENT
$T1 = -4						; size = 1
?OnUseSkin@CViewDesignPage2@@IAEXXZ PROC		; CViewDesignPage2::OnUseSkin, COMDAT
; _this$ = ecx

; 269  : {

  00000	55		 push	 ebp
  00001	8b ec		 mov	 ebp, esp
  00003	51		 push	 ecx
  00004	56		 push	 esi

; 270  : 	UpdateData();

  00005	6a 01		 push	 1
  00007	8b f1		 mov	 esi, ecx
  00009	e8 00 00 00 00	 call	 ?UpdateData@CWnd@@QAEHH@Z ; CWnd::UpdateData

; 271  : 
; 272  : 	// skin     .
; 273  : 	if(m_bUseSkin)

  0000e	83 be 08 03 00
	00 00		 cmp	 DWORD PTR [esi+776], 0
  00015	74 3c		 je	 SHORT $LN2@OnUseSkin

; 274  : 	{
; 275  : 		m_bIsEnvironmentFile = false;
; 276  : 		m_bIsIndicondFile = false;
; 277  : 		m_strUserEnvironmentSaveFileName = "";

  00017	68 00 00 00 00	 push	 OFFSET ??_C@_00CNPNBAHC@@
  0001c	8d 8e c0 02 00
	00		 lea	 ecx, DWORD PTR [esi+704]
  00022	c7 86 00 03 00
	00 00 00 00 00	 mov	 DWORD PTR [esi+768], 0
  0002c	c7 86 04 03 00
	00 00 00 00 00	 mov	 DWORD PTR [esi+772], 0
  00036	ff 15 00 00 00
	00		 call	 DWORD PTR __imp_??4?$CStringT@DV?$StrTraitMFC_DLL@DV?$ChTraitsCRT@D@ATL@@@@@ATL@@QAEAAV01@PBD@Z

; 278  : 		m_strInsertedIndicatorSaveFileName = "";

  0003c	68 00 00 00 00	 push	 OFFSET ??_C@_00CNPNBAHC@@
  00041	8d 8e c4 02 00
	00		 lea	 ecx, DWORD PTR [esi+708]
  00047	ff 15 00 00 00
	00		 call	 DWORD PTR __imp_??4?$CStringT@DV?$StrTraitMFC_DLL@DV?$ChTraitsCRT@D@ATL@@@@@ATL@@QAEAAV01@PBD@Z

; 279  : 		EnableWindow_SaveOption(false);

  0004d	c6 45 fc 00	 mov	 BYTE PTR $T1[ebp], 0

; 280  : 	}

  00051	eb 04		 jmp	 SHORT $LN3@OnUseSkin
$LN2@OnUseSkin:

; 281  : 	else
; 282  : 	{
; 283  : 		EnableWindow_SaveOption(true);

  00053	c6 45 fc 01	 mov	 BYTE PTR $T1[ebp], 1
$LN3@OnUseSkin:

; 284  : 	}
; 285  : 
; 286  : 	UpdateData(FALSE);

  00057	ff 75 fc	 push	 DWORD PTR $T1[ebp]
  0005a	8b ce		 mov	 ecx, esi
  0005c	e8 00 00 00 00	 call	 ?EnableWindow_SaveOption@CViewDesignPage2@@AAEX_N@Z ; CViewDesignPage2::EnableWindow_SaveOption
  00061	6a 00		 push	 0
  00063	8b ce		 mov	 ecx, esi
  00065	e8 00 00 00 00	 call	 ?UpdateData@CWnd@@QAEHH@Z ; CWnd::UpdateData
  0006a	5e		 pop	 esi

; 287  : }

  0006b	8b e5		 mov	 esp, ebp
  0006d	5d		 pop	 ebp
  0006e	c3		 ret	 0
?OnUseSkin@CViewDesignPage2@@IAEXXZ ENDP		; CViewDesignPage2::OnUseSkin
_TEXT	ENDS
; Function compile flags: /Ogtp
; File D:\git\src\IBK\IBK_DRFN\ProjSrc\SrcChartEx\ChartAddIn\ChartDesignPropertyAddIn\ChartDesignPropertyAddIn\ViewDesignPage2.cpp
;	COMDAT ?OnEnvironmentcheck@CViewDesignPage2@@IAEXXZ
_TEXT	SEGMENT
?OnEnvironmentcheck@CViewDesignPage2@@IAEXXZ PROC	; CViewDesignPage2::OnEnvironmentcheck, COMDAT
; _this$ = ecx

; 231  : {

  00000	53		 push	 ebx
  00001	56		 push	 esi
  00002	57		 push	 edi

; 232  : 	UpdateData();

  00003	6a 01		 push	 1
  00005	8b f1		 mov	 esi, ecx
  00007	e8 00 00 00 00	 call	 ?UpdateData@CWnd@@QAEHH@Z ; CWnd::UpdateData

; 233  : 	if(m_bIsEnvironmentFile){

  0000c	83 be 00 03 00
	00 00		 cmp	 DWORD PTR [esi+768], 0
  00013	8d 8e c0 02 00
	00		 lea	 ecx, DWORD PTR [esi+704]
  00019	74 48		 je	 SHORT $LN2@OnEnvironm

; 234  : 		m_strUserEnvironmentSaveFileName = m_strInsertedIndicatorSaveFileName;

  0001b	8d 86 c4 02 00
	00		 lea	 eax, DWORD PTR [esi+708]
  00021	50		 push	 eax
  00022	ff 15 00 00 00
	00		 call	 DWORD PTR __imp_??4?$CStringT@DV?$StrTraitMFC_DLL@DV?$ChTraitsCRT@D@ATL@@@@@ATL@@QAEAAV01@ABV01@@Z

; 235  : 		m_strUserEnvironmentSaveFileName.Replace("Indicond_", "");

  00028	68 00 00 00 00	 push	 OFFSET ??_C@_00CNPNBAHC@@
  0002d	68 00 00 00 00	 push	 OFFSET ??_C@_09JMPCHJJN@Indicond_@
  00032	8d 8e c0 02 00
	00		 lea	 ecx, DWORD PTR [esi+704]
  00038	ff 15 00 00 00
	00		 call	 DWORD PTR __imp_?Replace@?$CStringT@DV?$StrTraitMFC_DLL@DV?$ChTraitsCRT@D@ATL@@@@@ATL@@QAEHPBD0@Z

; 236  : 		m_EnvironMent_Edit.EnableWindow(TRUE);

  0003e	6a 01		 push	 1
  00040	8d 8e 40 02 00
	00		 lea	 ecx, DWORD PTR [esi+576]
  00046	e8 00 00 00 00	 call	 ?EnableWindow@CWnd@@QAEHH@Z ; CWnd::EnableWindow

; 237  : 		m_EnvironMent_Edit.SetFocus();

  0004b	8d 8e 40 02 00
	00		 lea	 ecx, DWORD PTR [esi+576]
  00051	e8 00 00 00 00	 call	 ?SetFocus@CWnd@@QAEPAV1@XZ ; CWnd::SetFocus

; 242  : 	}
; 243  : 	UpdateData(FALSE);

  00056	6a 00		 push	 0
  00058	8b ce		 mov	 ecx, esi
  0005a	e8 00 00 00 00	 call	 ?UpdateData@CWnd@@QAEHH@Z ; CWnd::UpdateData
  0005f	5f		 pop	 edi
  00060	5e		 pop	 esi
  00061	5b		 pop	 ebx

; 244  : }

  00062	c3		 ret	 0
$LN2@OnEnvironm:

; 238  : 	}
; 239  : 	else{
; 240  : 		m_strUserEnvironmentSaveFileName = "";

  00063	68 00 00 00 00	 push	 OFFSET ??_C@_00CNPNBAHC@@
  00068	ff 15 00 00 00
	00		 call	 DWORD PTR __imp_??4?$CStringT@DV?$StrTraitMFC_DLL@DV?$ChTraitsCRT@D@ATL@@@@@ATL@@QAEAAV01@PBD@Z

; 241  : 		m_EnvironMent_Edit.EnableWindow(FALSE);

  0006e	6a 00		 push	 0
  00070	8d 8e 40 02 00
	00		 lea	 ecx, DWORD PTR [esi+576]
  00076	e8 00 00 00 00	 call	 ?EnableWindow@CWnd@@QAEHH@Z ; CWnd::EnableWindow

; 242  : 	}
; 243  : 	UpdateData(FALSE);

  0007b	6a 00		 push	 0
  0007d	8b ce		 mov	 ecx, esi
  0007f	e8 00 00 00 00	 call	 ?UpdateData@CWnd@@QAEHH@Z ; CWnd::UpdateData
  00084	5f		 pop	 edi
  00085	5e		 pop	 esi
  00086	5b		 pop	 ebx

; 244  : }

  00087	c3		 ret	 0
?OnEnvironmentcheck@CViewDesignPage2@@IAEXXZ ENDP	; CViewDesignPage2::OnEnvironmentcheck
_TEXT	ENDS
; Function compile flags: /Ogtp
; File D:\git\src\IBK\IBK_DRFN\ProjSrc\SrcChartEx\ChartAddIn\ChartDesignPropertyAddIn\ChartDesignPropertyAddIn\ViewDesignPage2.cpp
; File C:\Program Files (x86)\Microsoft Visual Studio\2019\Community\VC\Tools\MSVC\14.29.30133\atlmfc\include\cstringt.h
; File D:\git\src\IBK\IBK_DRFN\ProjSrc\SrcChartEx\ChartAddIn\ChartDesignPropertyAddIn\ChartDesignPropertyAddIn\ViewDesignPage2.cpp
; File C:\Program Files (x86)\Microsoft Visual Studio\2019\Community\VC\Tools\MSVC\14.29.30133\atlmfc\include\cstringt.h
; File C:\Program Files (x86)\Microsoft Visual Studio\2019\Community\VC\Tools\MSVC\14.29.30133\atlmfc\include\atlsimpstr.h
; File C:\Program Files (x86)\Microsoft Visual Studio\2019\Community\VC\Tools\MSVC\14.29.30133\atlmfc\include\cstringt.h
; File D:\git\src\IBK\IBK_DRFN\ProjSrc\SrcChartEx\ChartAddIn\ChartDesignPropertyAddIn\ChartDesignPropertyAddIn\ViewDesignPage2.cpp
;	COMDAT ?OnIndicondcheck@CViewDesignPage2@@IAEXXZ
_TEXT	SEGMENT
$T2 = -20						; size = 4
$T3 = -16						; size = 4
__$EHRec$ = -12						; size = 12
?OnIndicondcheck@CViewDesignPage2@@IAEXXZ PROC		; CViewDesignPage2::OnIndicondcheck, COMDAT
; _this$ = ecx

; 216  : {

  00000	55		 push	 ebp
  00001	8b ec		 mov	 ebp, esp
  00003	6a ff		 push	 -1
  00005	68 00 00 00 00	 push	 __ehhandler$?OnIndicondcheck@CViewDesignPage2@@IAEXXZ
  0000a	64 a1 00 00 00
	00		 mov	 eax, DWORD PTR fs:0
  00010	50		 push	 eax
  00011	83 ec 08	 sub	 esp, 8
  00014	56		 push	 esi
  00015	57		 push	 edi
  00016	a1 00 00 00 00	 mov	 eax, DWORD PTR ___security_cookie
  0001b	33 c5		 xor	 eax, ebp
  0001d	50		 push	 eax
  0001e	8d 45 f4	 lea	 eax, DWORD PTR __$EHRec$[ebp]
  00021	64 a3 00 00 00
	00		 mov	 DWORD PTR fs:0, eax
  00027	8b f9		 mov	 edi, ecx

; 217  : 	UpdateData();

  00029	6a 01		 push	 1
  0002b	c7 45 ec 00 00
	00 00		 mov	 DWORD PTR $T2[ebp], 0
  00032	e8 00 00 00 00	 call	 ?UpdateData@CWnd@@QAEHH@Z ; CWnd::UpdateData

; 218  : 	if(m_bIsIndicondFile){

  00037	83 bf 04 03 00
	00 00		 cmp	 DWORD PTR [edi+772], 0
  0003e	74 7c		 je	 SHORT $LN2@OnIndicond
; File C:\Program Files (x86)\Microsoft Visual Studio\2019\Community\VC\Tools\MSVC\14.29.30133\atlmfc\include\cstringt.h

; 2412 : 		CStringT strResult( str2.GetManager() );

  00040	8d 8f c0 02 00
	00		 lea	 ecx, DWORD PTR [edi+704]
; File D:\git\src\IBK\IBK_DRFN\ProjSrc\SrcChartEx\ChartAddIn\ChartDesignPropertyAddIn\ChartDesignPropertyAddIn\ViewDesignPage2.cpp

; 219  : 		m_strInsertedIndicatorSaveFileName = "Indicond_" + m_strUserEnvironmentSaveFileName;

  00046	c7 45 fc 00 00
	00 00		 mov	 DWORD PTR __$EHRec$[ebp+8], 0
; File C:\Program Files (x86)\Microsoft Visual Studio\2019\Community\VC\Tools\MSVC\14.29.30133\atlmfc\include\cstringt.h

; 2412 : 		CStringT strResult( str2.GetManager() );

  0004d	ff 15 00 00 00
	00		 call	 DWORD PTR __imp_?GetManager@?$CStringT@DV?$StrTraitMFC_DLL@DV?$ChTraitsCRT@D@ATL@@@@@ATL@@QBEPAUIAtlStringMgr@2@XZ
  00053	50		 push	 eax
  00054	8d 4d f0	 lea	 ecx, DWORD PTR $T3[ebp]
  00057	ff 15 00 00 00
	00		 call	 DWORD PTR __imp_??0?$CStringT@DV?$StrTraitMFC_DLL@DV?$ChTraitsCRT@D@ATL@@@@@ATL@@QAE@PAUIAtlStringMgr@1@@Z
; File C:\Program Files (x86)\Microsoft Visual Studio\2019\Community\VC\Tools\MSVC\14.29.30133\atlmfc\include\atlsimpstr.h

; 519  : 		return( GetData()->nDataLength );

  0005d	8b 87 c0 02 00
	00		 mov	 eax, DWORD PTR [edi+704]
; File C:\Program Files (x86)\Microsoft Visual Studio\2019\Community\VC\Tools\MSVC\14.29.30133\atlmfc\include\cstringt.h

; 2416 : 		return( strResult );

  00063	c7 45 ec 01 00
	00 00		 mov	 DWORD PTR $T2[ebp], 1
  0006a	ff 70 f4	 push	 DWORD PTR [eax-12]
  0006d	50		 push	 eax
  0006e	6a 09		 push	 9
  00070	8d 45 f0	 lea	 eax, DWORD PTR $T3[ebp]
  00073	68 00 00 00 00	 push	 OFFSET ??_C@_09JMPCHJJN@Indicond_@
  00078	50		 push	 eax
  00079	ff 15 00 00 00
	00		 call	 DWORD PTR __imp_?Concatenate@?$CSimpleStringT@D$00@ATL@@KAXAAV12@PBDH1H@Z
  0007f	83 c4 14	 add	 esp, 20			; 00000014H
; File D:\git\src\IBK\IBK_DRFN\ProjSrc\SrcChartEx\ChartAddIn\ChartDesignPropertyAddIn\ChartDesignPropertyAddIn\ViewDesignPage2.cpp

; 219  : 		m_strInsertedIndicatorSaveFileName = "Indicond_" + m_strUserEnvironmentSaveFileName;

  00082	8d 45 f0	 lea	 eax, DWORD PTR $T3[ebp]
  00085	8d 8f c4 02 00
	00		 lea	 ecx, DWORD PTR [edi+708]
  0008b	50		 push	 eax
  0008c	ff 15 00 00 00
	00		 call	 DWORD PTR __imp_??4?$CStringT@DV?$StrTraitMFC_DLL@DV?$ChTraitsCRT@D@ATL@@@@@ATL@@QAEAAV01@ABV01@@Z
  00092	8d 4d f0	 lea	 ecx, DWORD PTR $T3[ebp]
  00095	c7 45 fc ff ff
	ff ff		 mov	 DWORD PTR __$EHRec$[ebp+8], -1
  0009c	ff 15 00 00 00
	00		 call	 DWORD PTR __imp_??1?$CStringT@DV?$StrTraitMFC_DLL@DV?$ChTraitsCRT@D@ATL@@@@@ATL@@QAE@XZ

; 220  : 		m_Indicatorsave_Edit.EnableWindow(TRUE);

  000a2	6a 01		 push	 1
  000a4	8d 8f c0 01 00
	00		 lea	 ecx, DWORD PTR [edi+448]
  000aa	e8 00 00 00 00	 call	 ?EnableWindow@CWnd@@QAEHH@Z ; CWnd::EnableWindow

; 221  : 		m_Indicatorsave_Edit.SetFocus();

  000af	8d 8f c0 01 00
	00		 lea	 ecx, DWORD PTR [edi+448]
  000b5	e8 00 00 00 00	 call	 ?SetFocus@CWnd@@QAEPAV1@XZ ; CWnd::SetFocus

; 222  : 	}

  000ba	eb 1e		 jmp	 SHORT $LN3@OnIndicond
$LN2@OnIndicond:

; 223  : 	else{
; 224  : 		m_strInsertedIndicatorSaveFileName = "";

  000bc	68 00 00 00 00	 push	 OFFSET ??_C@_00CNPNBAHC@@
  000c1	8d 8f c4 02 00
	00		 lea	 ecx, DWORD PTR [edi+708]
  000c7	ff 15 00 00 00
	00		 call	 DWORD PTR __imp_??4?$CStringT@DV?$StrTraitMFC_DLL@DV?$ChTraitsCRT@D@ATL@@@@@ATL@@QAEAAV01@PBD@Z

; 225  : 		m_Indicatorsave_Edit.EnableWindow(FALSE);

  000cd	6a 00		 push	 0
  000cf	8d 8f c0 01 00
	00		 lea	 ecx, DWORD PTR [edi+448]
  000d5	e8 00 00 00 00	 call	 ?EnableWindow@CWnd@@QAEHH@Z ; CWnd::EnableWindow
$LN3@OnIndicond:

; 226  : 	}
; 227  : 	UpdateData(FALSE);

  000da	6a 00		 push	 0
  000dc	8b cf		 mov	 ecx, edi
  000de	e8 00 00 00 00	 call	 ?UpdateData@CWnd@@QAEHH@Z ; CWnd::UpdateData

; 228  : }

  000e3	8b 4d f4	 mov	 ecx, DWORD PTR __$EHRec$[ebp]
  000e6	64 89 0d 00 00
	00 00		 mov	 DWORD PTR fs:0, ecx
  000ed	59		 pop	 ecx
  000ee	5f		 pop	 edi
  000ef	5e		 pop	 esi
  000f0	8b e5		 mov	 esp, ebp
  000f2	5d		 pop	 ebp
  000f3	c3		 ret	 0
_TEXT	ENDS
;	COMDAT text$x
text$x	SEGMENT
__unwindfunclet$?OnIndicondcheck@CViewDesignPage2@@IAEXXZ$1:
  00000	8b 45 ec	 mov	 eax, DWORD PTR $T2[ebp]
  00003	83 e0 01	 and	 eax, 1
  00006	0f 84 0d 00 00
	00		 je	 $LN9@OnIndicond
  0000c	83 65 ec fe	 and	 DWORD PTR $T2[ebp], -2	; fffffffeH
  00010	8d 4d f0	 lea	 ecx, DWORD PTR $T3[ebp]
  00013	ff 25 00 00 00
	00		 jmp	 DWORD PTR __imp_??1?$CStringT@DV?$StrTraitMFC_DLL@DV?$ChTraitsCRT@D@ATL@@@@@ATL@@QAE@XZ
$LN9@OnIndicond:
  00019	c3		 ret	 0
  0001a	cc		 int	 3
  0001b	cc		 int	 3
  0001c	cc		 int	 3
  0001d	cc		 int	 3
  0001e	cc		 int	 3
__ehhandler$?OnIndicondcheck@CViewDesignPage2@@IAEXXZ:
  0001f	90		 npad	 1
  00020	90		 npad	 1
  00021	8b 54 24 08	 mov	 edx, DWORD PTR [esp+8]
  00025	8d 42 0c	 lea	 eax, DWORD PTR [edx+12]
  00028	8b 4a ec	 mov	 ecx, DWORD PTR [edx-20]
  0002b	33 c8		 xor	 ecx, eax
  0002d	e8 00 00 00 00	 call	 @__security_check_cookie@4
  00032	b8 00 00 00 00	 mov	 eax, OFFSET __ehfuncinfo$?OnIndicondcheck@CViewDesignPage2@@IAEXXZ
  00037	e9 00 00 00 00	 jmp	 ___CxxFrameHandler3
text$x	ENDS
?OnIndicondcheck@CViewDesignPage2@@IAEXXZ ENDP		; CViewDesignPage2::OnIndicondcheck
; Function compile flags: /Ogtp
; File D:\git\src\IBK\IBK_DRFN\ProjSrc\SrcChartEx\ChartAddIn\ChartDesignPropertyAddIn\ChartDesignPropertyAddIn\ViewDesignPage2.cpp
; File C:\Program Files (x86)\Microsoft Visual Studio\2019\Community\VC\Tools\MSVC\14.29.30133\atlmfc\include\afxwin2.inl
; File D:\git\src\IBK\IBK_DRFN\ProjSrc\SrcChartEx\ChartAddIn\ChartDesignPropertyAddIn\ChartDesignPropertyAddIn\ViewDesignPage2.cpp
; File C:\Program Files (x86)\Microsoft Visual Studio\2019\Community\VC\Tools\MSVC\14.29.30133\atlmfc\include\afxwin2.inl
; File D:\git\src\IBK\IBK_DRFN\ProjSrc\SrcChartEx\ChartAddIn\ChartDesignPropertyAddIn\ChartDesignPropertyAddIn\ViewDesignPage2.cpp
;	COMDAT ?OnChartrbuttonmenu@CViewDesignPage2@@IAEXXZ
_TEXT	SEGMENT
tv176 = -4						; size = 4
?OnChartrbuttonmenu@CViewDesignPage2@@IAEXXZ PROC	; CViewDesignPage2::OnChartrbuttonmenu, COMDAT
; _this$ = ecx

; 186  : {

  00000	55		 push	 ebp
  00001	8b ec		 mov	 ebp, esp
  00003	51		 push	 ecx
  00004	53		 push	 ebx
  00005	56		 push	 esi
  00006	57		 push	 edi
; File C:\Program Files (x86)\Microsoft Visual Studio\2019\Community\VC\Tools\MSVC\14.29.30133\atlmfc\include\afxwin2.inl

; 628  : 	{ ASSERT(::IsWindow(m_hWnd)); return (int)::SendMessage(m_hWnd, BM_GETCHECK, 0, 0); }

  00007	6a 00		 push	 0
; File D:\git\src\IBK\IBK_DRFN\ProjSrc\SrcChartEx\ChartAddIn\ChartDesignPropertyAddIn\ChartDesignPropertyAddIn\ViewDesignPage2.cpp

; 186  : {

  00009	8b f1		 mov	 esi, ecx
; File C:\Program Files (x86)\Microsoft Visual Studio\2019\Community\VC\Tools\MSVC\14.29.30133\atlmfc\include\afxwin2.inl

; 628  : 	{ ASSERT(::IsWindow(m_hWnd)); return (int)::SendMessage(m_hWnd, BM_GETCHECK, 0, 0); }

  0000b	6a 00		 push	 0
  0000d	68 f0 00 00 00	 push	 240			; 000000f0H
  00012	ff b6 e0 00 00
	00		 push	 DWORD PTR [esi+224]
  00018	ff 15 00 00 00
	00		 call	 DWORD PTR __imp__SendMessageA@16
; File D:\git\src\IBK\IBK_DRFN\ProjSrc\SrcChartEx\ChartAddIn\ChartDesignPropertyAddIn\ChartDesignPropertyAddIn\ViewDesignPage2.cpp

; 188  : 	CButton* pType = (CButton*) GetDlgItem(IDC_RBUTTONMENUTYPE);

  0001e	68 c9 1b 00 00	 push	 7113			; 00001bc9H
  00023	8b ce		 mov	 ecx, esi
  00025	8b f8		 mov	 edi, eax
  00027	e8 00 00 00 00	 call	 ?GetDlgItem@CWnd@@QBEPAV1@H@Z ; CWnd::GetDlgItem

; 189  : 	CButton* pType2 = (CButton*) GetDlgItem(IDC_RBUTTONTYPE_COMPLEX);

  0002c	68 b8 1b 00 00	 push	 7096			; 00001bb8H
  00031	8b ce		 mov	 ecx, esi
  00033	89 45 fc	 mov	 DWORD PTR tv176[ebp], eax
  00036	e8 00 00 00 00	 call	 ?GetDlgItem@CWnd@@QBEPAV1@H@Z ; CWnd::GetDlgItem

; 190  : 
; 191  : 	if(nCheck == 0) {//uncheck
; 192  : 		pType->EnableWindow(FALSE);
; 193  : 		pType2->EnableWindow(FALSE);
; 194  : 	}
; 195  : 	else {
; 196  : 		pType->EnableWindow(TRUE);
; 197  : 		pType2->EnableWindow(TRUE);
; 198  : 	}
; 199  : 
; 200  : }

  0003b	8b 4d fc	 mov	 ecx, DWORD PTR tv176[ebp]
  0003e	33 db		 xor	 ebx, ebx
  00040	85 ff		 test	 edi, edi
  00042	8b f0		 mov	 esi, eax
  00044	0f 95 c3	 setne	 bl
  00047	53		 push	 ebx
  00048	e8 00 00 00 00	 call	 ?EnableWindow@CWnd@@QAEHH@Z ; CWnd::EnableWindow
  0004d	53		 push	 ebx
  0004e	8b ce		 mov	 ecx, esi
  00050	e8 00 00 00 00	 call	 ?EnableWindow@CWnd@@QAEHH@Z ; CWnd::EnableWindow
  00055	5f		 pop	 edi
  00056	5e		 pop	 esi
  00057	5b		 pop	 ebx
  00058	8b e5		 mov	 esp, ebp
  0005a	5d		 pop	 ebp
  0005b	c3		 ret	 0
?OnChartrbuttonmenu@CViewDesignPage2@@IAEXXZ ENDP	; CViewDesignPage2::OnChartrbuttonmenu
_TEXT	ENDS
; Function compile flags: /Ogtp
; File D:\git\src\IBK\IBK_DRFN\ProjSrc\SrcChartEx\ChartAddIn\ChartDesignPropertyAddIn\ChartDesignPropertyAddIn\ViewDesignPage2.cpp
; File C:\Program Files (x86)\Microsoft Visual Studio\2019\Community\VC\Tools\MSVC\14.29.30133\atlmfc\include\afxwin1.inl
; File D:\git\src\IBK\IBK_DRFN\ProjSrc\SrcChartEx\ChartAddIn\ChartDesignPropertyAddIn\Include_Chart\Dll_Load\IMetaTable.h
; File C:\Program Files (x86)\Microsoft Visual Studio\2019\Community\VC\Tools\MSVC\14.29.30133\atlmfc\include\afxwin1.inl
; File D:\git\src\IBK\IBK_DRFN\ProjSrc\SrcChartEx\ChartAddIn\ChartDesignPropertyAddIn\ChartDesignPropertyAddIn\ViewDesignPage2.cpp
; File D:\git\src\IBK\IBK_DRFN\ProjSrc\SrcChartEx\ChartAddIn\ChartDesignPropertyAddIn\Include_Chart\Dll_Load\IMetaTable.h
; File C:\Program Files (x86)\Microsoft Visual Studio\2019\Community\VC\Tools\MSVC\14.29.30133\atlmfc\include\afxwin1.inl
; File D:\git\src\IBK\IBK_DRFN\ProjSrc\SrcChartEx\ChartAddIn\ChartDesignPropertyAddIn\ChartDesignPropertyAddIn\ViewDesignPage2.cpp
;	COMDAT ?OnChangeUserinsertedblockcount@CViewDesignPage2@@IAEXXZ
_TEXT	SEGMENT
___mlrs__$2 = -24					; size = 4
_str$ = -20						; size = 4
_strMsg$3 = -16						; size = 4
__$EHRec$ = -12						; size = 12
?OnChangeUserinsertedblockcount@CViewDesignPage2@@IAEXXZ PROC ; CViewDesignPage2::OnChangeUserinsertedblockcount, COMDAT
; _this$ = ecx

; 170  : {

  00000	55		 push	 ebp
  00001	8b ec		 mov	 ebp, esp
  00003	6a ff		 push	 -1
  00005	68 00 00 00 00	 push	 __ehhandler$?OnChangeUserinsertedblockcount@CViewDesignPage2@@IAEXXZ
  0000a	64 a1 00 00 00
	00		 mov	 eax, DWORD PTR fs:0
  00010	50		 push	 eax
  00011	83 ec 0c	 sub	 esp, 12			; 0000000cH
  00014	56		 push	 esi
  00015	57		 push	 edi
  00016	a1 00 00 00 00	 mov	 eax, DWORD PTR ___security_cookie
  0001b	33 c5		 xor	 eax, ebp
  0001d	50		 push	 eax
  0001e	8d 45 f4	 lea	 eax, DWORD PTR __$EHRec$[ebp]
  00021	64 a3 00 00 00
	00		 mov	 DWORD PTR fs:0, eax
  00027	8b f1		 mov	 esi, ecx

; 171  : 	CString str;

  00029	8d 4d ec	 lea	 ecx, DWORD PTR _str$[ebp]
  0002c	ff 15 00 00 00
	00		 call	 DWORD PTR __imp_??0?$CStringT@DV?$StrTraitMFC_DLL@DV?$ChTraitsCRT@D@ATL@@@@@ATL@@QAE@XZ

; 172  : 	CEdit* pBlockCount = (CEdit* )GetDlgItem(IDC_USERINSERTEDBLOCKCOUNT);

  00032	68 21 27 00 00	 push	 10017			; 00002721H
  00037	8b ce		 mov	 ecx, esi
  00039	c7 45 fc 00 00
	00 00		 mov	 DWORD PTR __$EHRec$[ebp+8], 0
  00040	e8 00 00 00 00	 call	 ?GetDlgItem@CWnd@@QBEPAV1@H@Z ; CWnd::GetDlgItem

; 173  : 	pBlockCount->GetWindowText(str);

  00045	8d 4d ec	 lea	 ecx, DWORD PTR _str$[ebp]
  00048	51		 push	 ecx
  00049	8b c8		 mov	 ecx, eax
  0004b	e8 00 00 00 00	 call	 ?GetWindowTextA@CWnd@@QBEXAAV?$CStringT@DV?$StrTraitMFC_DLL@DV?$ChTraitsCRT@D@ATL@@@@@ATL@@@Z ; CWnd::GetWindowTextA

; 174  : 
; 175  : 	m_nUserInsertedBlockCount = atoi(str);

  00050	ff 75 ec	 push	 DWORD PTR _str$[ebp]
  00053	ff 15 00 00 00
	00		 call	 DWORD PTR __imp__atoi
  00059	83 c4 04	 add	 esp, 4
  0005c	89 86 c8 02 00
	00		 mov	 DWORD PTR [esi+712], eax

; 176  : 	if(m_nUserInsertedBlockCount <1 || m_nUserInsertedBlockCount>10)

  00062	83 f8 01	 cmp	 eax, 1
  00065	7c 05		 jl	 SHORT $LN3@OnChangeUs
  00067	83 f8 0a	 cmp	 eax, 10			; 0000000aH
  0006a	7e 6a		 jle	 SHORT $LN19@OnChangeUs
$LN3@OnChangeUs:

; 177  : 	{
; 178  : 		ML_SET_LANGUAGE_RES();

  0006c	e8 00 00 00 00	 call	 ?AfxGetStaticModuleState@@YGPAVAFX_MODULE_STATE@@XZ ; AfxGetStaticModuleState
  00071	b9 00 00 00 00	 mov	 ecx, OFFSET ?g_iMetaTable@@3VIMetaTable@@A ; g_iMetaTable
  00076	8b 40 08	 mov	 eax, DWORD PTR [eax+8]
  00079	50		 push	 eax
  0007a	ff b6 fc 03 00
	00		 push	 DWORD PTR [esi+1020]
  00080	e8 00 00 00 00	 call	 ?LoadResourceDLL@IMetaTable@@QAEPAUHINSTANCE__@@PAUHWND__@@PAU2@@Z ; IMetaTable::LoadResourceDLL
  00085	8b f8		 mov	 edi, eax
; File C:\Program Files (x86)\Microsoft Visual Studio\2019\Community\VC\Tools\MSVC\14.29.30133\atlmfc\include\afxwin1.inl

; 25   : 		return afxCurrentResourceHandle; }

  00087	e8 00 00 00 00	 call	 ?AfxGetModuleState@@YGPAVAFX_MODULE_STATE@@XZ ; AfxGetModuleState
; File D:\git\src\IBK\IBK_DRFN\ProjSrc\SrcChartEx\ChartAddIn\ChartDesignPropertyAddIn\Include_Chart\Dll_Load\IMetaTable.h

; 1032 : 		m_hInstance = AfxGetResourceHandle();

  0008c	8b 70 0c	 mov	 esi, DWORD PTR [eax+12]
  0008f	89 75 e8	 mov	 DWORD PTR ___mlrs__$2[ebp], esi
; File C:\Program Files (x86)\Microsoft Visual Studio\2019\Community\VC\Tools\MSVC\14.29.30133\atlmfc\include\afxwin1.inl

; 27   : 	{ ASSERT(hInstResource != NULL); afxCurrentResourceHandle = hInstResource; }

  00092	e8 00 00 00 00	 call	 ?AfxGetModuleState@@YGPAVAFX_MODULE_STATE@@XZ ; AfxGetModuleState
  00097	89 78 0c	 mov	 DWORD PTR [eax+12], edi
; File D:\git\src\IBK\IBK_DRFN\ProjSrc\SrcChartEx\ChartAddIn\ChartDesignPropertyAddIn\ChartDesignPropertyAddIn\ViewDesignPage2.cpp

; 179  : 		CString strMsg;

  0009a	8d 4d f0	 lea	 ecx, DWORD PTR _strMsg$3[ebp]
  0009d	ff 15 00 00 00
	00		 call	 DWORD PTR __imp_??0?$CStringT@DV?$StrTraitMFC_DLL@DV?$ChTraitsCRT@D@ATL@@@@@ATL@@QAE@XZ

; 180  : 		strMsg.LoadString( IDS_ENTER_NUMBER_1TO10);

  000a3	68 6f 04 00 00	 push	 1135			; 0000046fH
  000a8	8d 4d f0	 lea	 ecx, DWORD PTR _strMsg$3[ebp]
  000ab	c6 45 fc 02	 mov	 BYTE PTR __$EHRec$[ebp+8], 2
  000af	ff 15 00 00 00
	00		 call	 DWORD PTR __imp_?LoadStringA@?$CStringT@DV?$StrTraitMFC_DLL@DV?$ChTraitsCRT@D@ATL@@@@@ATL@@QAEHI@Z

; 181  : 		AfxMessageBox( strMsg);

  000b5	6a 00		 push	 0
  000b7	6a 00		 push	 0
  000b9	ff 75 f0	 push	 DWORD PTR _strMsg$3[ebp]
  000bc	e8 00 00 00 00	 call	 ?AfxMessageBox@@YGHPBDII@Z ; AfxMessageBox

; 182  : 	}

  000c1	8d 4d f0	 lea	 ecx, DWORD PTR _strMsg$3[ebp]
  000c4	ff 15 00 00 00
	00		 call	 DWORD PTR __imp_??1?$CStringT@DV?$StrTraitMFC_DLL@DV?$ChTraitsCRT@D@ATL@@@@@ATL@@QAE@XZ
; File D:\git\src\IBK\IBK_DRFN\ProjSrc\SrcChartEx\ChartAddIn\ChartDesignPropertyAddIn\Include_Chart\Dll_Load\IMetaTable.h

; 1036 : 	{

  000ca	c6 45 fc 03	 mov	 BYTE PTR __$EHRec$[ebp+8], 3
; File C:\Program Files (x86)\Microsoft Visual Studio\2019\Community\VC\Tools\MSVC\14.29.30133\atlmfc\include\afxwin1.inl

; 27   : 	{ ASSERT(hInstResource != NULL); afxCurrentResourceHandle = hInstResource; }

  000ce	e8 00 00 00 00	 call	 ?AfxGetModuleState@@YGPAVAFX_MODULE_STATE@@XZ ; AfxGetModuleState
  000d3	89 70 0c	 mov	 DWORD PTR [eax+12], esi
$LN19@OnChangeUs:
; File D:\git\src\IBK\IBK_DRFN\ProjSrc\SrcChartEx\ChartAddIn\ChartDesignPropertyAddIn\ChartDesignPropertyAddIn\ViewDesignPage2.cpp

; 183  : }

  000d6	8d 4d ec	 lea	 ecx, DWORD PTR _str$[ebp]
  000d9	ff 15 00 00 00
	00		 call	 DWORD PTR __imp_??1?$CStringT@DV?$StrTraitMFC_DLL@DV?$ChTraitsCRT@D@ATL@@@@@ATL@@QAE@XZ
  000df	8b 4d f4	 mov	 ecx, DWORD PTR __$EHRec$[ebp]
  000e2	64 89 0d 00 00
	00 00		 mov	 DWORD PTR fs:0, ecx
  000e9	59		 pop	 ecx
  000ea	5f		 pop	 edi
  000eb	5e		 pop	 esi
  000ec	8b e5		 mov	 esp, ebp
  000ee	5d		 pop	 ebp
  000ef	c3		 ret	 0
_TEXT	ENDS
;	COMDAT text$x
text$x	SEGMENT
__unwindfunclet$?OnChangeUserinsertedblockcount@CViewDesignPage2@@IAEXXZ$0:
  00000	8d 4d ec	 lea	 ecx, DWORD PTR _str$[ebp]
  00003	ff 25 00 00 00
	00		 jmp	 DWORD PTR __imp_??1?$CStringT@DV?$StrTraitMFC_DLL@DV?$ChTraitsCRT@D@ATL@@@@@ATL@@QAE@XZ
__unwindfunclet$?OnChangeUserinsertedblockcount@CViewDesignPage2@@IAEXXZ$1:
  00009	8d 4d e8	 lea	 ecx, DWORD PTR ___mlrs__$2[ebp]
  0000c	e9 00 00 00 00	 jmp	 ??1CMultiLanguageResourceSetter@@QAE@XZ ; CMultiLanguageResourceSetter::~CMultiLanguageResourceSetter
__unwindfunclet$?OnChangeUserinsertedblockcount@CViewDesignPage2@@IAEXXZ$2:
  00011	8d 4d f0	 lea	 ecx, DWORD PTR _strMsg$3[ebp]
  00014	ff 25 00 00 00
	00		 jmp	 DWORD PTR __imp_??1?$CStringT@DV?$StrTraitMFC_DLL@DV?$ChTraitsCRT@D@ATL@@@@@ATL@@QAE@XZ
  0001a	cc		 int	 3
  0001b	cc		 int	 3
  0001c	cc		 int	 3
  0001d	cc		 int	 3
  0001e	cc		 int	 3
__ehhandler$?OnChangeUserinsertedblockcount@CViewDesignPage2@@IAEXXZ:
  0001f	90		 npad	 1
  00020	90		 npad	 1
  00021	8b 54 24 08	 mov	 edx, DWORD PTR [esp+8]
  00025	8d 42 0c	 lea	 eax, DWORD PTR [edx+12]
  00028	8b 4a e8	 mov	 ecx, DWORD PTR [edx-24]
  0002b	33 c8		 xor	 ecx, eax
  0002d	e8 00 00 00 00	 call	 @__security_check_cookie@4
  00032	b8 00 00 00 00	 mov	 eax, OFFSET __ehfuncinfo$?OnChangeUserinsertedblockcount@CViewDesignPage2@@IAEXXZ
  00037	e9 00 00 00 00	 jmp	 ___CxxFrameHandler3
text$x	ENDS
?OnChangeUserinsertedblockcount@CViewDesignPage2@@IAEXXZ ENDP ; CViewDesignPage2::OnChangeUserinsertedblockcount
; Function compile flags: /Ogtp
; File D:\git\src\IBK\IBK_DRFN\ProjSrc\SrcChartEx\ChartAddIn\ChartDesignPropertyAddIn\ChartDesignPropertyAddIn\ViewDesignPage2.cpp
;	COMDAT ?OnInitDialog@CViewDesignPage2@@MAEHXZ
_TEXT	SEGMENT
?OnInitDialog@CViewDesignPage2@@MAEHXZ PROC		; CViewDesignPage2::OnInitDialog, COMDAT
; _this$ = ecx

; 148  : {

  00000	56		 push	 esi
  00001	8b f1		 mov	 esi, ecx

; 149  : 	CPropertyPage::OnInitDialog();

  00003	e8 00 00 00 00	 call	 ?OnInitDialog@CDialog@@UAEHXZ ; CDialog::OnInitDialog

; 150  : 
; 151  : 	CreateToolTip();

  00008	8b ce		 mov	 ecx, esi
  0000a	e8 00 00 00 00	 call	 ?CreateToolTip@CViewDesignPage2@@AAEXXZ ; CViewDesignPage2::CreateToolTip

; 152  : 	if(m_bChartRButtonMenu == false)

  0000f	83 be d8 02 00
	00 00		 cmp	 DWORD PTR [esi+728], 0
  00016	75 32		 jne	 SHORT $LN8@OnInitDial

; 300  : 	CWnd* pWnd = (CWnd*) GetDlgItem(nID);

  00018	68 c9 1b 00 00	 push	 7113			; 00001bc9H
  0001d	8b ce		 mov	 ecx, esi
  0001f	e8 00 00 00 00	 call	 ?GetDlgItem@CWnd@@QBEPAV1@H@Z ; CWnd::GetDlgItem

; 301  : 	if(pWnd != NULL)

  00024	85 c0		 test	 eax, eax
  00026	74 09		 je	 SHORT $LN5@OnInitDial

; 302  : 		pWnd->EnableWindow(bEnable);

  00028	6a 00		 push	 0
  0002a	8b c8		 mov	 ecx, eax
  0002c	e8 00 00 00 00	 call	 ?EnableWindow@CWnd@@QAEHH@Z ; CWnd::EnableWindow
$LN5@OnInitDial:

; 300  : 	CWnd* pWnd = (CWnd*) GetDlgItem(nID);

  00031	68 b8 1b 00 00	 push	 7096			; 00001bb8H
  00036	8b ce		 mov	 ecx, esi
  00038	e8 00 00 00 00	 call	 ?GetDlgItem@CWnd@@QBEPAV1@H@Z ; CWnd::GetDlgItem

; 301  : 	if(pWnd != NULL)

  0003d	85 c0		 test	 eax, eax
  0003f	74 09		 je	 SHORT $LN8@OnInitDial

; 302  : 		pWnd->EnableWindow(bEnable);

  00041	6a 00		 push	 0
  00043	8b c8		 mov	 ecx, eax
  00045	e8 00 00 00 00	 call	 ?EnableWindow@CWnd@@QAEHH@Z ; CWnd::EnableWindow
$LN8@OnInitDial:

; 153  : 	{
; 154  : 		//sy 2005.04.26.
; 155  : 		EnableWindow(IDC_RBUTTONMENUTYPE, false);
; 156  : 		EnableWindow(IDC_RBUTTONTYPE_COMPLEX, false);
; 157  : 	}
; 158  : 
; 159  : 	//sy 2003.7.28.
; 160  : 	EnableWindow(m_strInsertedIndicatorSaveFileName, m_Indicatorsave_Edit);
; 161  : 	EnableWindow(m_strUserEnvironmentSaveFileName, m_EnvironMent_Edit);

  0004a	8b 86 c4 02 00
	00		 mov	 eax, DWORD PTR [esi+708]
  00050	33 c9		 xor	 ecx, ecx
  00052	39 48 f4	 cmp	 DWORD PTR [eax-12], ecx
  00055	0f 95 c1	 setne	 cl
  00058	51		 push	 ecx
  00059	8d 8e c0 01 00
	00		 lea	 ecx, DWORD PTR [esi+448]
  0005f	e8 00 00 00 00	 call	 ?EnableWindow@CWnd@@QAEHH@Z ; CWnd::EnableWindow

; 162  : 
; 163  : 	//sy 2005.04.26.
; 164  : 	OnUseSkin();

  00064	8b 86 c0 02 00
	00		 mov	 eax, DWORD PTR [esi+704]
  0006a	33 c9		 xor	 ecx, ecx
  0006c	39 48 f4	 cmp	 DWORD PTR [eax-12], ecx
  0006f	0f 95 c1	 setne	 cl
  00072	51		 push	 ecx
  00073	8d 8e 40 02 00
	00		 lea	 ecx, DWORD PTR [esi+576]
  00079	e8 00 00 00 00	 call	 ?EnableWindow@CWnd@@QAEHH@Z ; CWnd::EnableWindow
  0007e	8b ce		 mov	 ecx, esi
  00080	e8 00 00 00 00	 call	 ?OnUseSkin@CViewDesignPage2@@IAEXXZ ; CViewDesignPage2::OnUseSkin

; 165  : 	return TRUE;  // return TRUE unless you set the focus to a control

  00085	b8 01 00 00 00	 mov	 eax, 1
  0008a	5e		 pop	 esi

; 166  : 	              // EXCEPTION: OCX Property Pages should return FALSE
; 167  : }

  0008b	c3		 ret	 0
?OnInitDialog@CViewDesignPage2@@MAEHXZ ENDP		; CViewDesignPage2::OnInitDialog
_TEXT	ENDS
; Function compile flags: /Ogtp
; File D:\git\src\IBK\IBK_DRFN\ProjSrc\SrcChartEx\ChartAddIn\ChartDesignPropertyAddIn\ChartDesignPropertyAddIn\ViewDesignPage2.cpp
;	COMDAT ?DoDataExchange@CViewDesignPage2@@MAEXPAVCDataExchange@@@Z
_TEXT	SEGMENT
_pDX$ = 8						; size = 4
?DoDataExchange@CViewDesignPage2@@MAEXPAVCDataExchange@@@Z PROC ; CViewDesignPage2::DoDataExchange, COMDAT
; _this$ = ecx

; 64   : {

  00000	55		 push	 ebp
  00001	8b ec		 mov	 ebp, esp
  00003	56		 push	 esi

; 65   : 	CPropertyPage::DoDataExchange(pDX);
; 66   : 	//{{AFX_DATA_MAP(CViewDesignPage2)
; 67   : 	DDX_Control(pDX, IDC_CHARTRBUTTONMENU, m_ChartRButtonMenu_Bt);

  00004	8b 75 08	 mov	 esi, DWORD PTR _pDX$[ebp]
  00007	57		 push	 edi
  00008	8b f9		 mov	 edi, ecx
  0000a	8d 87 c0 00 00
	00		 lea	 eax, DWORD PTR [edi+192]
  00010	50		 push	 eax
  00011	68 27 27 00 00	 push	 10023			; 00002727H
  00016	56		 push	 esi
  00017	e8 00 00 00 00	 call	 ?DDX_Control@@YGXPAVCDataExchange@@HAAVCWnd@@@Z ; DDX_Control

; 68   : 	DDX_Control(pDX, IDC_USERINSERTEDBLOCKCOUNT, m_UserAcceptBlock_Edit);

  0001c	8d 87 40 01 00
	00		 lea	 eax, DWORD PTR [edi+320]
  00022	50		 push	 eax
  00023	68 21 27 00 00	 push	 10017			; 00002721H
  00028	56		 push	 esi
  00029	e8 00 00 00 00	 call	 ?DDX_Control@@YGXPAVCDataExchange@@HAAVCWnd@@@Z ; DDX_Control

; 69   : 	DDX_Control(pDX, IDC_INDICATOR_SAVE_FILE_NAME, m_Indicatorsave_Edit);

  0002e	8d 87 c0 01 00
	00		 lea	 eax, DWORD PTR [edi+448]
  00034	50		 push	 eax
  00035	68 29 27 00 00	 push	 10025			; 00002729H
  0003a	56		 push	 esi
  0003b	e8 00 00 00 00	 call	 ?DDX_Control@@YGXPAVCDataExchange@@HAAVCWnd@@@Z ; DDX_Control

; 70   : 	DDX_Control(pDX, IDC_ENVIRONMENT_SAVE_FILE_NAME, m_EnvironMent_Edit);

  00040	8d 87 40 02 00
	00		 lea	 eax, DWORD PTR [edi+576]
  00046	50		 push	 eax
  00047	68 2d 27 00 00	 push	 10029			; 0000272dH
  0004c	56		 push	 esi
  0004d	e8 00 00 00 00	 call	 ?DDX_Control@@YGXPAVCDataExchange@@HAAVCWnd@@@Z ; DDX_Control

; 71   : 	DDX_Text(pDX, IDC_ENVIRONMENT_SAVE_FILE_NAME, m_strUserEnvironmentSaveFileName);

  00052	8d 87 c0 02 00
	00		 lea	 eax, DWORD PTR [edi+704]
  00058	50		 push	 eax
  00059	68 2d 27 00 00	 push	 10029			; 0000272dH
  0005e	56		 push	 esi
  0005f	e8 00 00 00 00	 call	 ?DDX_Text@@YGXPAVCDataExchange@@HAAV?$CStringT@DV?$StrTraitMFC_DLL@DV?$ChTraitsCRT@D@ATL@@@@@ATL@@@Z ; DDX_Text

; 72   : 	DDX_Text(pDX, IDC_INDICATOR_SAVE_FILE_NAME, m_strInsertedIndicatorSaveFileName);

  00064	8d 87 c4 02 00
	00		 lea	 eax, DWORD PTR [edi+708]
  0006a	50		 push	 eax
  0006b	68 29 27 00 00	 push	 10025			; 00002729H
  00070	56		 push	 esi
  00071	e8 00 00 00 00	 call	 ?DDX_Text@@YGXPAVCDataExchange@@HAAV?$CStringT@DV?$StrTraitMFC_DLL@DV?$ChTraitsCRT@D@ATL@@@@@ATL@@@Z ; DDX_Text

; 73   : 	DDX_Text(pDX, IDC_USERINSERTEDBLOCKCOUNT, m_nUserInsertedBlockCount);

  00076	8d 87 c8 02 00
	00		 lea	 eax, DWORD PTR [edi+712]
  0007c	50		 push	 eax
  0007d	68 21 27 00 00	 push	 10017			; 00002721H
  00082	56		 push	 esi
  00083	e8 00 00 00 00	 call	 ?DDX_Text@@YGXPAVCDataExchange@@HAAH@Z ; DDX_Text

; 74   : 	DDX_Radio(pDX, IDC_RBUTTONMENUTYPE, m_nRButtonMenuType);

  00088	8d 87 cc 02 00
	00		 lea	 eax, DWORD PTR [edi+716]
  0008e	50		 push	 eax
  0008f	68 c9 1b 00 00	 push	 7113			; 00001bc9H
  00094	56		 push	 esi
  00095	e8 00 00 00 00	 call	 ?DDX_Radio@@YGXPAVCDataExchange@@HAAH@Z ; DDX_Radio

; 75   : 	DDX_Check(pDX, IDC_HIDE, m_bHide);

  0009a	8d 87 d0 02 00
	00		 lea	 eax, DWORD PTR [edi+720]
  000a0	50		 push	 eax
  000a1	68 2b 27 00 00	 push	 10027			; 0000272bH
  000a6	56		 push	 esi
  000a7	e8 00 00 00 00	 call	 ?DDX_Check@@YGXPAVCDataExchange@@HAAH@Z ; DDX_Check

; 76   : 	DDX_Check(pDX, IDC_INPUT_REQUIRE, m_bInputRequire);

  000ac	8d 87 d4 02 00
	00		 lea	 eax, DWORD PTR [edi+724]
  000b2	50		 push	 eax
  000b3	68 2c 27 00 00	 push	 10028			; 0000272cH
  000b8	56		 push	 esi
  000b9	e8 00 00 00 00	 call	 ?DDX_Check@@YGXPAVCDataExchange@@HAAH@Z ; DDX_Check

; 77   : 	DDX_Check(pDX, IDC_CHARTRBUTTONMENU, m_bChartRButtonMenu);

  000be	8d 87 d8 02 00
	00		 lea	 eax, DWORD PTR [edi+728]
  000c4	50		 push	 eax
  000c5	68 27 27 00 00	 push	 10023			; 00002727H
  000ca	56		 push	 esi
  000cb	e8 00 00 00 00	 call	 ?DDX_Check@@YGXPAVCDataExchange@@HAAH@Z ; DDX_Check

; 78   : 	DDX_Check(pDX, IDC_GRAPHDRAGANDDROP, m_bGraphDragandDrop);

  000d0	8d 87 dc 02 00
	00		 lea	 eax, DWORD PTR [edi+732]
  000d6	50		 push	 eax
  000d7	68 22 27 00 00	 push	 10018			; 00002722H
  000dc	56		 push	 esi
  000dd	e8 00 00 00 00	 call	 ?DDX_Check@@YGXPAVCDataExchange@@HAAH@Z ; DDX_Check

; 79   : 	DDX_Check(pDX, IDC_USESHORTKEY, m_bUseShortKey);

  000e2	8d 87 e0 02 00
	00		 lea	 eax, DWORD PTR [edi+736]
  000e8	50		 push	 eax
  000e9	68 c1 1b 00 00	 push	 7105			; 00001bc1H
  000ee	56		 push	 esi
  000ef	e8 00 00 00 00	 call	 ?DDX_Check@@YGXPAVCDataExchange@@HAAH@Z ; DDX_Check

; 80   : 	DDX_Check(pDX, IDC_CHECK_MESSAGEBOX, m_bShowWarningMessageBox);

  000f4	8d 87 e4 02 00
	00		 lea	 eax, DWORD PTR [edi+740]
  000fa	50		 push	 eax
  000fb	68 ca 1b 00 00	 push	 7114			; 00001bcaH
  00100	56		 push	 esi
  00101	e8 00 00 00 00	 call	 ?DDX_Check@@YGXPAVCDataExchange@@HAAH@Z ; DDX_Check

; 81   : 	DDX_Check(pDX, IDC_CHECK_BLOCKCOMPART, m_bControlBlockSize);

  00106	8d 87 e8 02 00
	00		 lea	 eax, DWORD PTR [edi+744]
  0010c	50		 push	 eax
  0010d	68 cb 1b 00 00	 push	 7115			; 00001bcbH
  00112	56		 push	 esi
  00113	e8 00 00 00 00	 call	 ?DDX_Check@@YGXPAVCDataExchange@@HAAH@Z ; DDX_Check

; 82   : 	DDX_Check(pDX, IDC_CHECK_BLOCK, m_bBlockMoveDelete);

  00118	8d 87 ec 02 00
	00		 lea	 eax, DWORD PTR [edi+748]
  0011e	50		 push	 eax
  0011f	68 20 27 00 00	 push	 10016			; 00002720H
  00124	56		 push	 esi
  00125	e8 00 00 00 00	 call	 ?DDX_Check@@YGXPAVCDataExchange@@HAAH@Z ; DDX_Check

; 83   : 	DDX_Check(pDX, IDC_CHECK_GRAPHTITLE, m_bSelectTitle);

  0012a	8d 87 f0 02 00
	00		 lea	 eax, DWORD PTR [edi+752]
  00130	50		 push	 eax
  00131	68 24 27 00 00	 push	 10020			; 00002724H
  00136	56		 push	 esi
  00137	e8 00 00 00 00	 call	 ?DDX_Check@@YGXPAVCDataExchange@@HAAH@Z ; DDX_Check

; 84   : 	DDX_Check(pDX, IDC_CHECK_GRAPH, m_bSelectGraph);

  0013c	8d 87 f4 02 00
	00		 lea	 eax, DWORD PTR [edi+756]
  00142	50		 push	 eax
  00143	68 25 27 00 00	 push	 10021			; 00002725H
  00148	56		 push	 esi
  00149	e8 00 00 00 00	 call	 ?DDX_Check@@YGXPAVCDataExchange@@HAAH@Z ; DDX_Check

; 85   : 	DDX_Check(pDX, IDC_CHECK_SCALE, m_bUseScaleRButtonMenu);

  0014e	8d 87 f8 02 00
	00		 lea	 eax, DWORD PTR [edi+760]
  00154	50		 push	 eax
  00155	68 23 27 00 00	 push	 10019			; 00002723H
  0015a	56		 push	 esi
  0015b	e8 00 00 00 00	 call	 ?DDX_Check@@YGXPAVCDataExchange@@HAAH@Z ; DDX_Check

; 86   : 	DDX_Radio(pDX, IDC_GRAPH_RBUTTONMENUTYPE, m_nGraphRButtonType);

  00160	8d 87 fc 02 00
	00		 lea	 eax, DWORD PTR [edi+764]
  00166	50		 push	 eax
  00167	68 cc 1b 00 00	 push	 7116			; 00001bccH
  0016c	56		 push	 esi
  0016d	e8 00 00 00 00	 call	 ?DDX_Radio@@YGXPAVCDataExchange@@HAAH@Z ; DDX_Radio

; 87   : 	DDX_Check(pDX, IDC_ENVIRONMENTCHECK, m_bIsEnvironmentFile);

  00172	8d 87 00 03 00
	00		 lea	 eax, DWORD PTR [edi+768]
  00178	50		 push	 eax
  00179	68 26 27 00 00	 push	 10022			; 00002726H
  0017e	56		 push	 esi
  0017f	e8 00 00 00 00	 call	 ?DDX_Check@@YGXPAVCDataExchange@@HAAH@Z ; DDX_Check

; 88   : 	DDX_Check(pDX, IDC_INDICONDCHECK, m_bIsIndicondFile);

  00184	8d 87 04 03 00
	00		 lea	 eax, DWORD PTR [edi+772]
  0018a	50		 push	 eax
  0018b	68 d4 1b 00 00	 push	 7124			; 00001bd4H
  00190	56		 push	 esi
  00191	e8 00 00 00 00	 call	 ?DDX_Check@@YGXPAVCDataExchange@@HAAH@Z ; DDX_Check

; 89   : 	DDX_Check(pDX, IDC_USESKIN, m_bUseSkin);

  00196	8d 87 08 03 00
	00		 lea	 eax, DWORD PTR [edi+776]
  0019c	50		 push	 eax
  0019d	68 d5 1b 00 00	 push	 7125			; 00001bd5H
  001a2	56		 push	 esi
  001a3	e8 00 00 00 00	 call	 ?DDX_Check@@YGXPAVCDataExchange@@HAAH@Z ; DDX_Check

; 90   : 	DDX_Text(pDX, IDC_SAVE_MAPNAME, m_strSaveMapName);

  001a8	8d 87 0c 03 00
	00		 lea	 eax, DWORD PTR [edi+780]
  001ae	50		 push	 eax
  001af	68 d6 1b 00 00	 push	 7126			; 00001bd6H
  001b4	56		 push	 esi
  001b5	e8 00 00 00 00	 call	 ?DDX_Text@@YGXPAVCDataExchange@@HAAV?$CStringT@DV?$StrTraitMFC_DLL@DV?$ChTraitsCRT@D@ATL@@@@@ATL@@@Z ; DDX_Text
  001ba	5f		 pop	 edi
  001bb	5e		 pop	 esi

; 91   : 	//}}AFX_DATA_MAP
; 92   : }

  001bc	5d		 pop	 ebp
  001bd	c2 04 00	 ret	 4
?DoDataExchange@CViewDesignPage2@@MAEXPAVCDataExchange@@@Z ENDP ; CViewDesignPage2::DoDataExchange
_TEXT	ENDS
; Function compile flags: /Ogtp
; File D:\git\src\IBK\IBK_DRFN\ProjSrc\SrcChartEx\ChartAddIn\ChartDesignPropertyAddIn\ChartDesignPropertyAddIn\ViewDesignPage2.cpp
;	COMDAT ?OnApply@CViewDesignPage2@@UAEHXZ
_TEXT	SEGMENT
$T2 = -28						; size = 4
tv824 = -24						; size = 4
$T3 = -24						; size = 4
_strData$ = -20						; size = 4
_this$1$ = -16						; size = 4
__$EHRec$ = -12						; size = 12
?OnApply@CViewDesignPage2@@UAEHXZ PROC			; CViewDesignPage2::OnApply, COMDAT
; _this$ = ecx

; 341  : {

  00000	55		 push	 ebp
  00001	8b ec		 mov	 ebp, esp
  00003	6a ff		 push	 -1
  00005	68 00 00 00 00	 push	 __ehhandler$?OnApply@CViewDesignPage2@@UAEHXZ
  0000a	64 a1 00 00 00
	00		 mov	 eax, DWORD PTR fs:0
  00010	50		 push	 eax
  00011	83 ec 10	 sub	 esp, 16			; 00000010H
  00014	53		 push	 ebx
  00015	56		 push	 esi
  00016	57		 push	 edi
  00017	a1 00 00 00 00	 mov	 eax, DWORD PTR ___security_cookie
  0001c	33 c5		 xor	 eax, ebp
  0001e	50		 push	 eax
  0001f	8d 45 f4	 lea	 eax, DWORD PTR __$EHRec$[ebp]
  00022	64 a3 00 00 00
	00		 mov	 DWORD PTR fs:0, eax
  00028	8b d9		 mov	 ebx, ecx
  0002a	89 5d f0	 mov	 DWORD PTR _this$1$[ebp], ebx

; 342  : 	m_strUserEnvironmentSaveFileName	= MakeFileName( m_strUserEnvironmentSaveFileName);

  0002d	8d bb c0 02 00
	00		 lea	 edi, DWORD PTR [ebx+704]
  00033	57		 push	 edi
  00034	8d 45 e8	 lea	 eax, DWORD PTR $T3[ebp]
  00037	50		 push	 eax
  00038	e8 00 00 00 00	 call	 ?MakeFileName@CViewDesignPage2@@AAE?AV?$CStringT@DV?$StrTraitMFC_DLL@DV?$ChTraitsCRT@D@ATL@@@@@ATL@@AAV23@@Z ; CViewDesignPage2::MakeFileName
  0003d	50		 push	 eax
  0003e	8b cf		 mov	 ecx, edi
  00040	c7 45 fc 00 00
	00 00		 mov	 DWORD PTR __$EHRec$[ebp+8], 0
  00047	ff 15 00 00 00
	00		 call	 DWORD PTR __imp_??4?$CStringT@DV?$StrTraitMFC_DLL@DV?$ChTraitsCRT@D@ATL@@@@@ATL@@QAEAAV01@ABV01@@Z
  0004d	8d 4d e8	 lea	 ecx, DWORD PTR $T3[ebp]
  00050	c7 45 fc ff ff
	ff ff		 mov	 DWORD PTR __$EHRec$[ebp+8], -1
  00057	ff 15 00 00 00
	00		 call	 DWORD PTR __imp_??1?$CStringT@DV?$StrTraitMFC_DLL@DV?$ChTraitsCRT@D@ATL@@@@@ATL@@QAE@XZ

; 343  : 	m_strInsertedIndicatorSaveFileName	= MakeFileName( m_strInsertedIndicatorSaveFileName);

  0005d	8d b3 c4 02 00
	00		 lea	 esi, DWORD PTR [ebx+708]
  00063	8b cb		 mov	 ecx, ebx
  00065	56		 push	 esi
  00066	8d 45 e4	 lea	 eax, DWORD PTR $T2[ebp]
  00069	50		 push	 eax
  0006a	e8 00 00 00 00	 call	 ?MakeFileName@CViewDesignPage2@@AAE?AV?$CStringT@DV?$StrTraitMFC_DLL@DV?$ChTraitsCRT@D@ATL@@@@@ATL@@AAV23@@Z ; CViewDesignPage2::MakeFileName
  0006f	50		 push	 eax
  00070	8b ce		 mov	 ecx, esi
  00072	c7 45 fc 01 00
	00 00		 mov	 DWORD PTR __$EHRec$[ebp+8], 1
  00079	ff 15 00 00 00
	00		 call	 DWORD PTR __imp_??4?$CStringT@DV?$StrTraitMFC_DLL@DV?$ChTraitsCRT@D@ATL@@@@@ATL@@QAEAAV01@ABV01@@Z
  0007f	8d 4d e4	 lea	 ecx, DWORD PTR $T2[ebp]
  00082	ff 15 00 00 00
	00		 call	 DWORD PTR __imp_??1?$CStringT@DV?$StrTraitMFC_DLL@DV?$ChTraitsCRT@D@ATL@@@@@ATL@@QAE@XZ

; 344  : 
; 345  : 	// (2006/7/5 - Seung-Won, Bae) Use IPropertyMap
; 346  : 	CHART_ADDTOSTRLIST_START( TRUE)

  00088	8d 4d ec	 lea	 ecx, DWORD PTR _strData$[ebp]
  0008b	ff 15 00 00 00
	00		 call	 DWORD PTR __imp_??0?$CStringT@DV?$StrTraitMFC_DLL@DV?$ChTraitsCRT@D@ATL@@@@@ATL@@QAE@XZ

; 347  : 		CHART_ADDTOSTRLIST_INT(		m_pIPropertyMap, g_anPropertyShortKey[	NUSERBLOCKADDCOUNT				], m_nUserInsertedBlockCount,			_DPV_NUSERBLOCKADDCOUNT				);

  00091	ff b3 c8 02 00
	00		 push	 DWORD PTR [ebx+712]
  00097	8b 1d 00 00 00
	00		 mov	 ebx, DWORD PTR __imp_?Format@?$CStringT@DV?$StrTraitMFC_DLL@DV?$ChTraitsCRT@D@ATL@@@@@ATL@@QAAXPBDZZ
  0009d	8d 45 ec	 lea	 eax, DWORD PTR _strData$[ebp]
  000a0	68 00 00 00 00	 push	 OFFSET ??_C@_02DPKJAMEF@?$CFd@
  000a5	50		 push	 eax
  000a6	c7 45 fc 02 00
	00 00		 mov	 DWORD PTR __$EHRec$[ebp+8], 2
  000ad	ff d3		 call	 ebx
  000af	8b 45 f0	 mov	 eax, DWORD PTR _this$1$[ebp]
  000b2	83 c4 0c	 add	 esp, 12			; 0000000cH
  000b5	8b 88 f8 03 00
	00		 mov	 ecx, DWORD PTR [eax+1016]
  000bb	ff 75 ec	 push	 DWORD PTR _strData$[ebp]
  000be	ff 35 74 00 00
	00		 push	 DWORD PTR ?g_anPropertyShortKey@@3PAPADA+116
  000c4	8b 01		 mov	 eax, DWORD PTR [ecx]
  000c6	ff 50 14	 call	 DWORD PTR [eax+20]

; 348  : 		CHART_ADDTOSTRLIST_BOOL(	m_pIPropertyMap, g_anPropertyShortKey[	BGRAPHDRAGDROP					], m_bGraphDragandDrop,					_DPV_BGRAPHDRAGDROP					);

  000c9	8b 45 f0	 mov	 eax, DWORD PTR _this$1$[ebp]
  000cc	8b 5d f0	 mov	 ebx, DWORD PTR _this$1$[ebp]
  000cf	c7 45 e8 00 00
	00 00		 mov	 DWORD PTR tv824[ebp], OFFSET ??_C@_01GBGANLPD@0@
  000d6	8b 88 f8 03 00
	00		 mov	 ecx, DWORD PTR [eax+1016]
  000dc	b8 00 00 00 00	 mov	 eax, OFFSET ??_C@_01HIHLOKLC@1@
  000e1	83 bb dc 02 00
	00 00		 cmp	 DWORD PTR [ebx+732], 0
  000e8	bb 00 00 00 00	 mov	 ebx, OFFSET ??_C@_01GBGANLPD@0@
  000ed	0f 44 c3	 cmove	 eax, ebx
  000f0	8b 11		 mov	 edx, DWORD PTR [ecx]
  000f2	50		 push	 eax
  000f3	ff 35 78 00 00
	00		 push	 DWORD PTR ?g_anPropertyShortKey@@3PAPADA+120
  000f9	ff 52 14	 call	 DWORD PTR [edx+20]

; 349  : 		CHART_ADDTOSTRLIST_BOOL(	m_pIPropertyMap, g_anPropertyShortKey[	BADDGRAPHMENUSHOW				], m_bChartRButtonMenu,					_DPV_BADDGRAPHMENUSHOW				);

  000fc	8b 45 f0	 mov	 eax, DWORD PTR _this$1$[ebp]
  000ff	8b 5d f0	 mov	 ebx, DWORD PTR _this$1$[ebp]
  00102	8b 88 f8 03 00
	00		 mov	 ecx, DWORD PTR [eax+1016]
  00108	b8 00 00 00 00	 mov	 eax, OFFSET ??_C@_01HIHLOKLC@1@
  0010d	83 bb d8 02 00
	00 00		 cmp	 DWORD PTR [ebx+728], 0
  00114	bb 00 00 00 00	 mov	 ebx, OFFSET ??_C@_01GBGANLPD@0@
  00119	0f 44 c3	 cmove	 eax, ebx
  0011c	8b 11		 mov	 edx, DWORD PTR [ecx]
  0011e	50		 push	 eax
  0011f	ff 35 8c 00 00
	00		 push	 DWORD PTR ?g_anPropertyShortKey@@3PAPADA+140
  00125	ff 52 14	 call	 DWORD PTR [edx+20]

; 350  : 		CHART_ADDTOSTRLIST_STRING(	m_pIPropertyMap, g_anPropertyShortKey[	STRENVIRONMENTFILENAME			], m_strUserEnvironmentSaveFileName,	_DPV_STRENVIRONMENTFILENAME			);

  00128	8b 45 f0	 mov	 eax, DWORD PTR _this$1$[ebp]
  0012b	ff 37		 push	 DWORD PTR [edi]
  0012d	ff 35 90 00 00
	00		 push	 DWORD PTR ?g_anPropertyShortKey@@3PAPADA+144
  00133	8b 88 f8 03 00
	00		 mov	 ecx, DWORD PTR [eax+1016]
  00139	8b 01		 mov	 eax, DWORD PTR [ecx]
  0013b	ff 50 14	 call	 DWORD PTR [eax+20]

; 351  : 		CHART_ADDTOSTRLIST_STRING(	m_pIPropertyMap, g_anPropertyShortKey[	STRUSERINDICATORLISTFILENAME	], m_strInsertedIndicatorSaveFileName,	_DPV_STRUSERINDICATORLISTFILENAME	);

  0013e	8b 7d f0	 mov	 edi, DWORD PTR _this$1$[ebp]
  00141	ff 36		 push	 DWORD PTR [esi]
  00143	ff 35 94 00 00
	00		 push	 DWORD PTR ?g_anPropertyShortKey@@3PAPADA+148
  00149	8b 8f f8 03 00
	00		 mov	 ecx, DWORD PTR [edi+1016]
  0014f	8b 01		 mov	 eax, DWORD PTR [ecx]
  00151	ff 50 14	 call	 DWORD PTR [eax+20]

; 352  : 		CHART_ADDTOSTRLIST_BOOL(	m_pIPropertyMap, g_anPropertyShortKey[	BHIDE							], m_bHide,								_DPV_BHIDE							);

  00154	8b 8f f8 03 00
	00		 mov	 ecx, DWORD PTR [edi+1016]
  0015a	be 00 00 00 00	 mov	 esi, OFFSET ??_C@_01HIHLOKLC@1@
  0015f	8b 11		 mov	 edx, DWORD PTR [ecx]
  00161	83 bf d0 02 00
	00 00		 cmp	 DWORD PTR [edi+720], 0
  00168	8b c6		 mov	 eax, esi
  0016a	0f 44 c3	 cmove	 eax, ebx
  0016d	50		 push	 eax
  0016e	ff 35 98 00 00
	00		 push	 DWORD PTR ?g_anPropertyShortKey@@3PAPADA+152
  00174	ff 52 14	 call	 DWORD PTR [edx+20]

; 353  : 		CHART_ADDTOSTRLIST_BOOL(	m_pIPropertyMap, g_anPropertyShortKey[	BISINPUT						], m_bInputRequire,						_DPV_BISINPUT						);

  00177	8b 8f f8 03 00
	00		 mov	 ecx, DWORD PTR [edi+1016]
  0017d	8b c6		 mov	 eax, esi
  0017f	83 bf d4 02 00
	00 00		 cmp	 DWORD PTR [edi+724], 0
  00186	0f 44 c3	 cmove	 eax, ebx
  00189	8b 11		 mov	 edx, DWORD PTR [ecx]
  0018b	50		 push	 eax
  0018c	ff 35 9c 00 00
	00		 push	 DWORD PTR ?g_anPropertyShortKey@@3PAPADA+156
  00192	ff 52 14	 call	 DWORD PTR [edx+20]

; 354  : 		CHART_ADDTOSTRLIST_BOOL(	m_pIPropertyMap, g_anPropertyShortKey[	BUSESHORTKEY					], m_bUseShortKey,						_DPV_BUSESHORTKEY					);

  00195	8b 8f f8 03 00
	00		 mov	 ecx, DWORD PTR [edi+1016]
  0019b	8b c6		 mov	 eax, esi
  0019d	83 bf e0 02 00
	00 00		 cmp	 DWORD PTR [edi+736], 0
  001a4	0f 44 c3	 cmove	 eax, ebx
  001a7	8b 11		 mov	 edx, DWORD PTR [ecx]
  001a9	50		 push	 eax
  001aa	ff 35 bc 00 00
	00		 push	 DWORD PTR ?g_anPropertyShortKey@@3PAPADA+188
  001b0	ff 52 14	 call	 DWORD PTR [edx+20]

; 355  : 		CHART_ADDTOSTRLIST_INT(		m_pIPropertyMap, g_anPropertyShortKey[	nRButtonMenuType				], m_nRButtonMenuType,					_DPV_nRButtonMenuType				);

  001b3	ff b7 cc 02 00
	00		 push	 DWORD PTR [edi+716]
  001b9	8b 1d 00 00 00
	00		 mov	 ebx, DWORD PTR __imp_?Format@?$CStringT@DV?$StrTraitMFC_DLL@DV?$ChTraitsCRT@D@ATL@@@@@ATL@@QAAXPBDZZ
  001bf	8d 45 ec	 lea	 eax, DWORD PTR _strData$[ebp]
  001c2	68 00 00 00 00	 push	 OFFSET ??_C@_02DPKJAMEF@?$CFd@
  001c7	50		 push	 eax
  001c8	ff d3		 call	 ebx
  001ca	8b 8f f8 03 00
	00		 mov	 ecx, DWORD PTR [edi+1016]
  001d0	83 c4 0c	 add	 esp, 12			; 0000000cH
  001d3	ff 75 ec	 push	 DWORD PTR _strData$[ebp]
  001d6	8b 01		 mov	 eax, DWORD PTR [ecx]
  001d8	ff 35 d0 00 00
	00		 push	 DWORD PTR ?g_anPropertyShortKey@@3PAPADA+208
  001de	ff 50 14	 call	 DWORD PTR [eax+20]

; 356  : 		CHART_ADDTOSTRLIST_BOOL(	m_pIPropertyMap, g_anPropertyShortKey[	bShowWarningMessageBox			], m_bShowWarningMessageBox,			_DPV_bShowWarningMessageBox			);

  001e1	8b 8f f8 03 00
	00		 mov	 ecx, DWORD PTR [edi+1016]
  001e7	8b c6		 mov	 eax, esi
  001e9	83 bf e4 02 00
	00 00		 cmp	 DWORD PTR [edi+740], 0
  001f0	0f 44 45 e8	 cmove	 eax, DWORD PTR tv824[ebp]
  001f4	8b 11		 mov	 edx, DWORD PTR [ecx]
  001f6	50		 push	 eax
  001f7	ff 35 d4 00 00
	00		 push	 DWORD PTR ?g_anPropertyShortKey@@3PAPADA+212
  001fd	ff 52 14	 call	 DWORD PTR [edx+20]

; 357  : 		CHART_ADDTOSTRLIST_BOOL(	m_pIPropertyMap, g_anPropertyShortKey[	bControlBlockSize				], m_bControlBlockSize,					_DPV_bControlBlockSize				);

  00200	8b 8f f8 03 00
	00		 mov	 ecx, DWORD PTR [edi+1016]
  00206	8b c6		 mov	 eax, esi
  00208	83 bf e8 02 00
	00 00		 cmp	 DWORD PTR [edi+744], 0
  0020f	0f 44 45 e8	 cmove	 eax, DWORD PTR tv824[ebp]
  00213	8b 11		 mov	 edx, DWORD PTR [ecx]
  00215	50		 push	 eax
  00216	ff 35 d8 00 00
	00		 push	 DWORD PTR ?g_anPropertyShortKey@@3PAPADA+216
  0021c	ff 52 14	 call	 DWORD PTR [edx+20]

; 358  : 		CHART_ADDTOSTRLIST_BOOL(	m_pIPropertyMap, g_anPropertyShortKey[	bBlockMoveDelete				], m_bBlockMoveDelete,					_DPV_bBlockMoveDelete				);

  0021f	8b 8f f8 03 00
	00		 mov	 ecx, DWORD PTR [edi+1016]
  00225	8b c6		 mov	 eax, esi
  00227	83 bf ec 02 00
	00 00		 cmp	 DWORD PTR [edi+748], 0
  0022e	0f 44 45 e8	 cmove	 eax, DWORD PTR tv824[ebp]
  00232	8b 11		 mov	 edx, DWORD PTR [ecx]
  00234	50		 push	 eax
  00235	ff 35 dc 00 00
	00		 push	 DWORD PTR ?g_anPropertyShortKey@@3PAPADA+220
  0023b	ff 52 14	 call	 DWORD PTR [edx+20]

; 359  : 		CHART_ADDTOSTRLIST_BOOL(	m_pIPropertyMap, g_anPropertyShortKey[	bSelectTitle					], m_bSelectTitle,						_DPV_bSelectTitle					);

  0023e	8b 8f f8 03 00
	00		 mov	 ecx, DWORD PTR [edi+1016]
  00244	8b c6		 mov	 eax, esi
  00246	83 bf f0 02 00
	00 00		 cmp	 DWORD PTR [edi+752], 0
  0024d	0f 44 45 e8	 cmove	 eax, DWORD PTR tv824[ebp]
  00251	8b 11		 mov	 edx, DWORD PTR [ecx]
  00253	50		 push	 eax
  00254	ff 35 e0 00 00
	00		 push	 DWORD PTR ?g_anPropertyShortKey@@3PAPADA+224
  0025a	ff 52 14	 call	 DWORD PTR [edx+20]

; 360  : 		CHART_ADDTOSTRLIST_BOOL(	m_pIPropertyMap, g_anPropertyShortKey[	bSelectGraph					], m_bSelectGraph,						_DPV_bSelectGraph					);

  0025d	8b 8f f8 03 00
	00		 mov	 ecx, DWORD PTR [edi+1016]
  00263	8b c6		 mov	 eax, esi
  00265	83 bf f4 02 00
	00 00		 cmp	 DWORD PTR [edi+756], 0
  0026c	0f 44 45 e8	 cmove	 eax, DWORD PTR tv824[ebp]
  00270	8b 11		 mov	 edx, DWORD PTR [ecx]
  00272	50		 push	 eax
  00273	ff 35 e4 00 00
	00		 push	 DWORD PTR ?g_anPropertyShortKey@@3PAPADA+228
  00279	ff 52 14	 call	 DWORD PTR [edx+20]

; 361  : 		CHART_ADDTOSTRLIST_BOOL(	m_pIPropertyMap, g_anPropertyShortKey[	bUseScaleRButtonMenu			], m_bUseScaleRButtonMenu,				_DPV_bUseScaleRButtonMenu			);

  0027c	83 bf f8 02 00
	00 00		 cmp	 DWORD PTR [edi+760], 0
  00283	8b c6		 mov	 eax, esi
  00285	8b 8f f8 03 00
	00		 mov	 ecx, DWORD PTR [edi+1016]
  0028b	0f 44 45 e8	 cmove	 eax, DWORD PTR tv824[ebp]
  0028f	50		 push	 eax
  00290	ff 35 e8 00 00
	00		 push	 DWORD PTR ?g_anPropertyShortKey@@3PAPADA+232
  00296	8b 11		 mov	 edx, DWORD PTR [ecx]
  00298	ff 52 14	 call	 DWORD PTR [edx+20]

; 362  : 		CHART_ADDTOSTRLIST_INT(		m_pIPropertyMap, g_anPropertyShortKey[	nGraphRButtonType				], m_nGraphRButtonType,					_DPV_nGraphRButtonType				);

  0029b	ff b7 fc 02 00
	00		 push	 DWORD PTR [edi+764]
  002a1	8d 45 ec	 lea	 eax, DWORD PTR _strData$[ebp]
  002a4	68 00 00 00 00	 push	 OFFSET ??_C@_02DPKJAMEF@?$CFd@
  002a9	50		 push	 eax
  002aa	ff d3		 call	 ebx
  002ac	8b 8f f8 03 00
	00		 mov	 ecx, DWORD PTR [edi+1016]
  002b2	83 c4 0c	 add	 esp, 12			; 0000000cH
  002b5	ff 75 ec	 push	 DWORD PTR _strData$[ebp]
  002b8	8b 01		 mov	 eax, DWORD PTR [ecx]
  002ba	ff 35 ec 00 00
	00		 push	 DWORD PTR ?g_anPropertyShortKey@@3PAPADA+236
  002c0	ff 50 14	 call	 DWORD PTR [eax+20]

; 363  : 		CHART_ADDTOSTRLIST_BOOL(	m_pIPropertyMap, g_anPropertyShortKey[	USESKIN							], m_bUseSkin,							_DPV_USESKIN						);

  002c3	8b 8f f8 03 00
	00		 mov	 ecx, DWORD PTR [edi+1016]
  002c9	ba 00 00 00 00	 mov	 edx, OFFSET ??_C@_01GBGANLPD@0@
  002ce	83 bf 08 03 00
	00 00		 cmp	 DWORD PTR [edi+776], 0
  002d5	0f 44 f2	 cmove	 esi, edx
  002d8	8b 01		 mov	 eax, DWORD PTR [ecx]
  002da	56		 push	 esi
  002db	ff 35 0c 01 00
	00		 push	 DWORD PTR ?g_anPropertyShortKey@@3PAPADA+268
  002e1	ff 50 14	 call	 DWORD PTR [eax+20]

; 364  : 		CHART_ADDTOSTRLIST_STRING(	m_pIPropertyMap, g_anPropertyShortKey[	MAPNAME							], m_strSaveMapName,					_DPV_MAPNAME						);

  002e4	8b 8f f8 03 00
	00		 mov	 ecx, DWORD PTR [edi+1016]
  002ea	ff b7 0c 03 00
	00		 push	 DWORD PTR [edi+780]
  002f0	ff 35 10 01 00
	00		 push	 DWORD PTR ?g_anPropertyShortKey@@3PAPADA+272
  002f6	8b 01		 mov	 eax, DWORD PTR [ecx]
  002f8	ff 50 14	 call	 DWORD PTR [eax+20]

; 365  : 	CHART_ADDTOSTRLIST_END
; 366  : 
; 367  : 	return CPropertyPage::OnApply();

  002fb	8b cf		 mov	 ecx, edi
  002fd	e8 00 00 00 00	 call	 ?OnApply@CPropertyPage@@UAEHXZ ; CPropertyPage::OnApply
  00302	8d 4d ec	 lea	 ecx, DWORD PTR _strData$[ebp]
  00305	8b f0		 mov	 esi, eax
  00307	ff 15 00 00 00
	00		 call	 DWORD PTR __imp_??1?$CStringT@DV?$StrTraitMFC_DLL@DV?$ChTraitsCRT@D@ATL@@@@@ATL@@QAE@XZ
  0030d	8b c6		 mov	 eax, esi

; 368  : }

  0030f	8b 4d f4	 mov	 ecx, DWORD PTR __$EHRec$[ebp]
  00312	64 89 0d 00 00
	00 00		 mov	 DWORD PTR fs:0, ecx
  00319	59		 pop	 ecx
  0031a	5f		 pop	 edi
  0031b	5e		 pop	 esi
  0031c	5b		 pop	 ebx
  0031d	8b e5		 mov	 esp, ebp
  0031f	5d		 pop	 ebp
  00320	c3		 ret	 0
_TEXT	ENDS
;	COMDAT text$x
text$x	SEGMENT
__unwindfunclet$?OnApply@CViewDesignPage2@@UAEHXZ$0:
  00000	8d 4d e8	 lea	 ecx, DWORD PTR $T3[ebp]
  00003	ff 25 00 00 00
	00		 jmp	 DWORD PTR __imp_??1?$CStringT@DV?$StrTraitMFC_DLL@DV?$ChTraitsCRT@D@ATL@@@@@ATL@@QAE@XZ
__unwindfunclet$?OnApply@CViewDesignPage2@@UAEHXZ$1:
  00009	8d 4d e4	 lea	 ecx, DWORD PTR $T2[ebp]
  0000c	ff 25 00 00 00
	00		 jmp	 DWORD PTR __imp_??1?$CStringT@DV?$StrTraitMFC_DLL@DV?$ChTraitsCRT@D@ATL@@@@@ATL@@QAE@XZ
__unwindfunclet$?OnApply@CViewDesignPage2@@UAEHXZ$2:
  00012	8d 4d ec	 lea	 ecx, DWORD PTR _strData$[ebp]
  00015	ff 25 00 00 00
	00		 jmp	 DWORD PTR __imp_??1?$CStringT@DV?$StrTraitMFC_DLL@DV?$ChTraitsCRT@D@ATL@@@@@ATL@@QAE@XZ
  0001b	cc		 int	 3
  0001c	cc		 int	 3
  0001d	cc		 int	 3
  0001e	cc		 int	 3
  0001f	cc		 int	 3
__ehhandler$?OnApply@CViewDesignPage2@@UAEHXZ:
  00020	90		 npad	 1
  00021	90		 npad	 1
  00022	8b 54 24 08	 mov	 edx, DWORD PTR [esp+8]
  00026	8d 42 0c	 lea	 eax, DWORD PTR [edx+12]
  00029	8b 4a e0	 mov	 ecx, DWORD PTR [edx-32]
  0002c	33 c8		 xor	 ecx, eax
  0002e	e8 00 00 00 00	 call	 @__security_check_cookie@4
  00033	b8 00 00 00 00	 mov	 eax, OFFSET __ehfuncinfo$?OnApply@CViewDesignPage2@@UAEHXZ
  00038	e9 00 00 00 00	 jmp	 ___CxxFrameHandler3
text$x	ENDS
?OnApply@CViewDesignPage2@@UAEHXZ ENDP			; CViewDesignPage2::OnApply
; Function compile flags: /Ogtp
; File D:\git\src\IBK\IBK_DRFN\ProjSrc\SrcChartEx\ChartAddIn\ChartDesignPropertyAddIn\ChartDesignPropertyAddIn\ViewDesignPage2.cpp
; File C:\Program Files (x86)\Microsoft Visual Studio\2019\Community\VC\Tools\MSVC\14.29.30133\atlmfc\include\atlsimpstr.h
; File D:\git\src\IBK\IBK_DRFN\ProjSrc\SrcChartEx\ChartAddIn\ChartDesignPropertyAddIn\ChartDesignPropertyAddIn\ViewDesignPage2.cpp
; File C:\Program Files (x86)\Microsoft Visual Studio\2019\Community\VC\Tools\MSVC\14.29.30133\atlmfc\include\atlsimpstr.h
; File D:\git\src\IBK\IBK_DRFN\ProjSrc\SrcChartEx\ChartAddIn\ChartDesignPropertyAddIn\ChartDesignPropertyAddIn\ViewDesignPage2.cpp
;	COMDAT ?SetProperty@CViewDesignPage2@@QAEXPAUIPropertyMap@@@Z
_TEXT	SEGMENT
_strUserEnvironmentFileName$ = -24			; size = 4
_strUserIndicatorListFileName$ = -20			; size = 4
_szTemp$ = -16						; size = 4
__$EHRec$ = -12						; size = 12
_p_pIPropertyMap$ = 8					; size = 4
?SetProperty@CViewDesignPage2@@QAEXPAUIPropertyMap@@@Z PROC ; CViewDesignPage2::SetProperty, COMDAT
; _this$ = ecx

; 308  : {

  00000	55		 push	 ebp
  00001	8b ec		 mov	 ebp, esp
  00003	6a ff		 push	 -1
  00005	68 00 00 00 00	 push	 __ehhandler$?SetProperty@CViewDesignPage2@@QAEXPAUIPropertyMap@@@Z
  0000a	64 a1 00 00 00
	00		 mov	 eax, DWORD PTR fs:0
  00010	50		 push	 eax
  00011	83 ec 0c	 sub	 esp, 12			; 0000000cH
  00014	53		 push	 ebx
  00015	56		 push	 esi
  00016	57		 push	 edi
  00017	a1 00 00 00 00	 mov	 eax, DWORD PTR ___security_cookie
  0001c	33 c5		 xor	 eax, ebp
  0001e	50		 push	 eax
  0001f	8d 45 f4	 lea	 eax, DWORD PTR __$EHRec$[ebp]
  00022	64 a3 00 00 00
	00		 mov	 DWORD PTR fs:0, eax
  00028	8b f9		 mov	 edi, ecx

; 309  : 	CString strUserEnvironmentFileName, strUserIndicatorListFileName;

  0002a	8d 4d e8	 lea	 ecx, DWORD PTR _strUserEnvironmentFileName$[ebp]
  0002d	ff 15 00 00 00
	00		 call	 DWORD PTR __imp_??0?$CStringT@DV?$StrTraitMFC_DLL@DV?$ChTraitsCRT@D@ATL@@@@@ATL@@QAE@XZ
  00033	8d 4d ec	 lea	 ecx, DWORD PTR _strUserIndicatorListFileName$[ebp]
  00036	c7 45 fc 00 00
	00 00		 mov	 DWORD PTR __$EHRec$[ebp+8], 0
  0003d	ff 15 00 00 00
	00		 call	 DWORD PTR __imp_??0?$CStringT@DV?$StrTraitMFC_DLL@DV?$ChTraitsCRT@D@ATL@@@@@ATL@@QAE@XZ

; 310  : 
; 311  : 	// (2006/7/5 - Seung-Won, Bae) Use IPropertyMap
; 312  : 	CHART_CONVERT_BEGIN()
; 313  : 		CHART_CONVERT_INT(		p_pIPropertyMap, g_anPropertyShortKey[	NUSERBLOCKADDCOUNT				], m_nUserInsertedBlockCount,		_DPV_NUSERBLOCKADDCOUNT				);

  00043	8b 75 08	 mov	 esi, DWORD PTR _p_pIPropertyMap$[ebp]
  00046	8d 4d f0	 lea	 ecx, DWORD PTR _szTemp$[ebp]
  00049	51		 push	 ecx
  0004a	ff 35 74 00 00
	00		 push	 DWORD PTR ?g_anPropertyShortKey@@3PAPADA+116
  00050	8b ce		 mov	 ecx, esi
  00052	c6 45 fc 01	 mov	 BYTE PTR __$EHRec$[ebp+8], 1
  00056	8b 06		 mov	 eax, DWORD PTR [esi]
  00058	c7 45 f0 00 00
	00 00		 mov	 DWORD PTR _szTemp$[ebp], 0
  0005f	ff 50 0c	 call	 DWORD PTR [eax+12]
  00062	8b 1d 00 00 00
	00		 mov	 ebx, DWORD PTR __imp__atoi
  00068	83 f8 01	 cmp	 eax, 1
  0006b	75 0a		 jne	 SHORT $LN2@SetPropert
  0006d	ff 75 f0	 push	 DWORD PTR _szTemp$[ebp]
  00070	ff d3		 call	 ebx
  00072	83 c4 04	 add	 esp, 4
  00075	eb 05		 jmp	 SHORT $LN3@SetPropert
$LN2@SetPropert:
  00077	b8 05 00 00 00	 mov	 eax, 5
$LN3@SetPropert:

; 314  : 		CHART_CONVERT_BOOL(		p_pIPropertyMap, g_anPropertyShortKey[	BGRAPHDRAGDROP					], m_bGraphDragandDrop,				_DPV_BGRAPHDRAGDROP					);

  0007c	89 87 c8 02 00
	00		 mov	 DWORD PTR [edi+712], eax
  00082	8d 4d f0	 lea	 ecx, DWORD PTR _szTemp$[ebp]
  00085	8b 06		 mov	 eax, DWORD PTR [esi]
  00087	51		 push	 ecx
  00088	ff 35 78 00 00
	00		 push	 DWORD PTR ?g_anPropertyShortKey@@3PAPADA+120
  0008e	8b ce		 mov	 ecx, esi
  00090	ff 50 0c	 call	 DWORD PTR [eax+12]
  00093	83 f8 01	 cmp	 eax, 1
  00096	75 0a		 jne	 SHORT $LN4@SetPropert
  00098	ff 75 f0	 push	 DWORD PTR _szTemp$[ebp]
  0009b	ff d3		 call	 ebx
  0009d	83 c4 04	 add	 esp, 4
  000a0	eb 02		 jmp	 SHORT $LN5@SetPropert
$LN4@SetPropert:
  000a2	33 c0		 xor	 eax, eax
$LN5@SetPropert:

; 315  : 		CHART_CONVERT_BOOL(		p_pIPropertyMap, g_anPropertyShortKey[	BADDGRAPHMENUSHOW				], m_bChartRButtonMenu,				_DPV_BADDGRAPHMENUSHOW				);

  000a4	89 87 dc 02 00
	00		 mov	 DWORD PTR [edi+732], eax
  000aa	8d 4d f0	 lea	 ecx, DWORD PTR _szTemp$[ebp]
  000ad	8b 06		 mov	 eax, DWORD PTR [esi]
  000af	51		 push	 ecx
  000b0	ff 35 8c 00 00
	00		 push	 DWORD PTR ?g_anPropertyShortKey@@3PAPADA+140
  000b6	8b ce		 mov	 ecx, esi
  000b8	ff 50 0c	 call	 DWORD PTR [eax+12]
  000bb	83 f8 01	 cmp	 eax, 1
  000be	75 0a		 jne	 SHORT $LN6@SetPropert
  000c0	ff 75 f0	 push	 DWORD PTR _szTemp$[ebp]
  000c3	ff d3		 call	 ebx
  000c5	83 c4 04	 add	 esp, 4
  000c8	eb 02		 jmp	 SHORT $LN7@SetPropert
$LN6@SetPropert:
  000ca	33 c0		 xor	 eax, eax
$LN7@SetPropert:

; 316  : 		CHART_CONVERT_STRING(	p_pIPropertyMap, g_anPropertyShortKey[	STRENVIRONMENTFILENAME			], strUserEnvironmentFileName,		_DPV_STRENVIRONMENTFILENAME			);

  000cc	89 87 d8 02 00
	00		 mov	 DWORD PTR [edi+728], eax
  000d2	8d 4d f0	 lea	 ecx, DWORD PTR _szTemp$[ebp]
  000d5	8b 06		 mov	 eax, DWORD PTR [esi]
  000d7	51		 push	 ecx
  000d8	ff 35 90 00 00
	00		 push	 DWORD PTR ?g_anPropertyShortKey@@3PAPADA+144
  000de	8b ce		 mov	 ecx, esi
  000e0	ff 50 0c	 call	 DWORD PTR [eax+12]
  000e3	8d 4d e8	 lea	 ecx, DWORD PTR _strUserEnvironmentFileName$[ebp]
  000e6	83 f8 01	 cmp	 eax, 1
  000e9	75 05		 jne	 SHORT $LN8@SetPropert
  000eb	ff 75 f0	 push	 DWORD PTR _szTemp$[ebp]
  000ee	eb 05		 jmp	 SHORT $LN84@SetPropert
$LN8@SetPropert:
  000f0	68 00 00 00 00	 push	 OFFSET ??_C@_00CNPNBAHC@@
$LN84@SetPropert:

; 317  : 		CHART_CONVERT_STRING(	p_pIPropertyMap, g_anPropertyShortKey[	STRUSERINDICATORLISTFILENAME	], strUserIndicatorListFileName,	_DPV_STRUSERINDICATORLISTFILENAME	);

  000f5	ff 15 00 00 00
	00		 call	 DWORD PTR __imp_??4?$CStringT@DV?$StrTraitMFC_DLL@DV?$ChTraitsCRT@D@ATL@@@@@ATL@@QAEAAV01@PBD@Z
  000fb	8b 06		 mov	 eax, DWORD PTR [esi]
  000fd	8d 4d f0	 lea	 ecx, DWORD PTR _szTemp$[ebp]
  00100	51		 push	 ecx
  00101	ff 35 94 00 00
	00		 push	 DWORD PTR ?g_anPropertyShortKey@@3PAPADA+148
  00107	8b ce		 mov	 ecx, esi
  00109	ff 50 0c	 call	 DWORD PTR [eax+12]
  0010c	8d 4d ec	 lea	 ecx, DWORD PTR _strUserIndicatorListFileName$[ebp]
  0010f	83 f8 01	 cmp	 eax, 1
  00112	75 05		 jne	 SHORT $LN10@SetPropert
  00114	ff 75 f0	 push	 DWORD PTR _szTemp$[ebp]
  00117	eb 05		 jmp	 SHORT $LN85@SetPropert
$LN10@SetPropert:
  00119	68 00 00 00 00	 push	 OFFSET ??_C@_00CNPNBAHC@@
$LN85@SetPropert:

; 318  : 		CHART_CONVERT_BOOL(		p_pIPropertyMap, g_anPropertyShortKey[	BHIDE							], m_bHide,							_DPV_BHIDE							);

  0011e	ff 15 00 00 00
	00		 call	 DWORD PTR __imp_??4?$CStringT@DV?$StrTraitMFC_DLL@DV?$ChTraitsCRT@D@ATL@@@@@ATL@@QAEAAV01@PBD@Z
  00124	8b 06		 mov	 eax, DWORD PTR [esi]
  00126	8d 4d f0	 lea	 ecx, DWORD PTR _szTemp$[ebp]
  00129	51		 push	 ecx
  0012a	ff 35 98 00 00
	00		 push	 DWORD PTR ?g_anPropertyShortKey@@3PAPADA+152
  00130	8b ce		 mov	 ecx, esi
  00132	ff 50 0c	 call	 DWORD PTR [eax+12]
  00135	83 f8 01	 cmp	 eax, 1
  00138	75 0a		 jne	 SHORT $LN12@SetPropert
  0013a	ff 75 f0	 push	 DWORD PTR _szTemp$[ebp]
  0013d	ff d3		 call	 ebx
  0013f	83 c4 04	 add	 esp, 4
  00142	eb 02		 jmp	 SHORT $LN13@SetPropert
$LN12@SetPropert:
  00144	33 c0		 xor	 eax, eax
$LN13@SetPropert:

; 319  : 		CHART_CONVERT_BOOL(		p_pIPropertyMap, g_anPropertyShortKey[	BISINPUT						], m_bInputRequire,					_DPV_BISINPUT						);

  00146	89 87 d0 02 00
	00		 mov	 DWORD PTR [edi+720], eax
  0014c	8d 4d f0	 lea	 ecx, DWORD PTR _szTemp$[ebp]
  0014f	8b 06		 mov	 eax, DWORD PTR [esi]
  00151	51		 push	 ecx
  00152	ff 35 9c 00 00
	00		 push	 DWORD PTR ?g_anPropertyShortKey@@3PAPADA+156
  00158	8b ce		 mov	 ecx, esi
  0015a	ff 50 0c	 call	 DWORD PTR [eax+12]
  0015d	83 f8 01	 cmp	 eax, 1
  00160	75 0a		 jne	 SHORT $LN14@SetPropert
  00162	ff 75 f0	 push	 DWORD PTR _szTemp$[ebp]
  00165	ff d3		 call	 ebx
  00167	83 c4 04	 add	 esp, 4
  0016a	eb 02		 jmp	 SHORT $LN15@SetPropert
$LN14@SetPropert:
  0016c	33 c0		 xor	 eax, eax
$LN15@SetPropert:

; 320  : 		CHART_CONVERT_BOOL(		p_pIPropertyMap, g_anPropertyShortKey[	BUSESHORTKEY					], m_bUseShortKey,					_DPV_BUSESHORTKEY					);

  0016e	89 87 d4 02 00
	00		 mov	 DWORD PTR [edi+724], eax
  00174	8d 4d f0	 lea	 ecx, DWORD PTR _szTemp$[ebp]
  00177	8b 06		 mov	 eax, DWORD PTR [esi]
  00179	51		 push	 ecx
  0017a	ff 35 bc 00 00
	00		 push	 DWORD PTR ?g_anPropertyShortKey@@3PAPADA+188
  00180	8b ce		 mov	 ecx, esi
  00182	ff 50 0c	 call	 DWORD PTR [eax+12]
  00185	83 f8 01	 cmp	 eax, 1
  00188	75 0a		 jne	 SHORT $LN16@SetPropert
  0018a	ff 75 f0	 push	 DWORD PTR _szTemp$[ebp]
  0018d	ff d3		 call	 ebx
  0018f	83 c4 04	 add	 esp, 4
  00192	eb 02		 jmp	 SHORT $LN17@SetPropert
$LN16@SetPropert:
  00194	33 c0		 xor	 eax, eax
$LN17@SetPropert:

; 321  : 		CHART_CONVERT_INT(		p_pIPropertyMap, g_anPropertyShortKey[	nRButtonMenuType				], m_nRButtonMenuType,				_DPV_nRButtonMenuType				);	// (2005/7/26 - Seung-Won, Bae) Default 1, see GetAllProperties2() & DoPropExchange()

  00196	89 87 e0 02 00
	00		 mov	 DWORD PTR [edi+736], eax
  0019c	8d 4d f0	 lea	 ecx, DWORD PTR _szTemp$[ebp]
  0019f	8b 06		 mov	 eax, DWORD PTR [esi]
  001a1	51		 push	 ecx
  001a2	ff 35 d0 00 00
	00		 push	 DWORD PTR ?g_anPropertyShortKey@@3PAPADA+208
  001a8	8b ce		 mov	 ecx, esi
  001aa	ff 50 0c	 call	 DWORD PTR [eax+12]
  001ad	83 f8 01	 cmp	 eax, 1
  001b0	75 0a		 jne	 SHORT $LN18@SetPropert
  001b2	ff 75 f0	 push	 DWORD PTR _szTemp$[ebp]
  001b5	ff d3		 call	 ebx
  001b7	83 c4 04	 add	 esp, 4
  001ba	eb 05		 jmp	 SHORT $LN19@SetPropert
$LN18@SetPropert:
  001bc	b8 01 00 00 00	 mov	 eax, 1
$LN19@SetPropert:

; 322  : 		CHART_CONVERT_BOOL(		p_pIPropertyMap, g_anPropertyShortKey[	bShowWarningMessageBox			], m_bShowWarningMessageBox,		_DPV_bShowWarningMessageBox			);

  001c1	89 87 cc 02 00
	00		 mov	 DWORD PTR [edi+716], eax
  001c7	8d 4d f0	 lea	 ecx, DWORD PTR _szTemp$[ebp]
  001ca	8b 06		 mov	 eax, DWORD PTR [esi]
  001cc	51		 push	 ecx
  001cd	ff 35 d4 00 00
	00		 push	 DWORD PTR ?g_anPropertyShortKey@@3PAPADA+212
  001d3	8b ce		 mov	 ecx, esi
  001d5	ff 50 0c	 call	 DWORD PTR [eax+12]
  001d8	83 f8 01	 cmp	 eax, 1
  001db	75 0a		 jne	 SHORT $LN20@SetPropert
  001dd	ff 75 f0	 push	 DWORD PTR _szTemp$[ebp]
  001e0	ff d3		 call	 ebx
  001e2	83 c4 04	 add	 esp, 4
  001e5	eb 05		 jmp	 SHORT $LN21@SetPropert
$LN20@SetPropert:
  001e7	b8 01 00 00 00	 mov	 eax, 1
$LN21@SetPropert:

; 323  : 		CHART_CONVERT_BOOL(		p_pIPropertyMap, g_anPropertyShortKey[	bControlBlockSize				], m_bControlBlockSize,				_DPV_bControlBlockSize				);

  001ec	89 87 e4 02 00
	00		 mov	 DWORD PTR [edi+740], eax
  001f2	8d 4d f0	 lea	 ecx, DWORD PTR _szTemp$[ebp]
  001f5	8b 06		 mov	 eax, DWORD PTR [esi]
  001f7	51		 push	 ecx
  001f8	ff 35 d8 00 00
	00		 push	 DWORD PTR ?g_anPropertyShortKey@@3PAPADA+216
  001fe	8b ce		 mov	 ecx, esi
  00200	ff 50 0c	 call	 DWORD PTR [eax+12]
  00203	83 f8 01	 cmp	 eax, 1
  00206	75 0a		 jne	 SHORT $LN22@SetPropert
  00208	ff 75 f0	 push	 DWORD PTR _szTemp$[ebp]
  0020b	ff d3		 call	 ebx
  0020d	83 c4 04	 add	 esp, 4
  00210	eb 05		 jmp	 SHORT $LN23@SetPropert
$LN22@SetPropert:
  00212	b8 01 00 00 00	 mov	 eax, 1
$LN23@SetPropert:

; 324  : 		CHART_CONVERT_BOOL(		p_pIPropertyMap, g_anPropertyShortKey[	bBlockMoveDelete				], m_bBlockMoveDelete,				_DPV_bBlockMoveDelete				);

  00217	89 87 e8 02 00
	00		 mov	 DWORD PTR [edi+744], eax
  0021d	8d 4d f0	 lea	 ecx, DWORD PTR _szTemp$[ebp]
  00220	8b 06		 mov	 eax, DWORD PTR [esi]
  00222	51		 push	 ecx
  00223	ff 35 dc 00 00
	00		 push	 DWORD PTR ?g_anPropertyShortKey@@3PAPADA+220
  00229	8b ce		 mov	 ecx, esi
  0022b	ff 50 0c	 call	 DWORD PTR [eax+12]
  0022e	83 f8 01	 cmp	 eax, 1
  00231	75 0a		 jne	 SHORT $LN24@SetPropert
  00233	ff 75 f0	 push	 DWORD PTR _szTemp$[ebp]
  00236	ff d3		 call	 ebx
  00238	83 c4 04	 add	 esp, 4
  0023b	eb 05		 jmp	 SHORT $LN25@SetPropert
$LN24@SetPropert:
  0023d	b8 01 00 00 00	 mov	 eax, 1
$LN25@SetPropert:

; 325  : 		CHART_CONVERT_BOOL(		p_pIPropertyMap, g_anPropertyShortKey[	bSelectTitle					], m_bSelectTitle,					_DPV_bSelectTitle					);

  00242	89 87 ec 02 00
	00		 mov	 DWORD PTR [edi+748], eax
  00248	8d 4d f0	 lea	 ecx, DWORD PTR _szTemp$[ebp]
  0024b	8b 06		 mov	 eax, DWORD PTR [esi]
  0024d	51		 push	 ecx
  0024e	ff 35 e0 00 00
	00		 push	 DWORD PTR ?g_anPropertyShortKey@@3PAPADA+224
  00254	8b ce		 mov	 ecx, esi
  00256	ff 50 0c	 call	 DWORD PTR [eax+12]
  00259	83 f8 01	 cmp	 eax, 1
  0025c	75 0a		 jne	 SHORT $LN26@SetPropert
  0025e	ff 75 f0	 push	 DWORD PTR _szTemp$[ebp]
  00261	ff d3		 call	 ebx
  00263	83 c4 04	 add	 esp, 4
  00266	eb 05		 jmp	 SHORT $LN27@SetPropert
$LN26@SetPropert:
  00268	b8 01 00 00 00	 mov	 eax, 1
$LN27@SetPropert:

; 326  : 		CHART_CONVERT_BOOL(		p_pIPropertyMap, g_anPropertyShortKey[	bSelectGraph					], m_bSelectGraph,					_DPV_bSelectGraph					);

  0026d	89 87 f0 02 00
	00		 mov	 DWORD PTR [edi+752], eax
  00273	8d 4d f0	 lea	 ecx, DWORD PTR _szTemp$[ebp]
  00276	8b 06		 mov	 eax, DWORD PTR [esi]
  00278	51		 push	 ecx
  00279	ff 35 e4 00 00
	00		 push	 DWORD PTR ?g_anPropertyShortKey@@3PAPADA+228
  0027f	8b ce		 mov	 ecx, esi
  00281	ff 50 0c	 call	 DWORD PTR [eax+12]
  00284	83 f8 01	 cmp	 eax, 1
  00287	75 0a		 jne	 SHORT $LN28@SetPropert
  00289	ff 75 f0	 push	 DWORD PTR _szTemp$[ebp]
  0028c	ff d3		 call	 ebx
  0028e	83 c4 04	 add	 esp, 4
  00291	eb 05		 jmp	 SHORT $LN29@SetPropert
$LN28@SetPropert:
  00293	b8 01 00 00 00	 mov	 eax, 1
$LN29@SetPropert:

; 327  : 		CHART_CONVERT_BOOL(		p_pIPropertyMap, g_anPropertyShortKey[	bUseScaleRButtonMenu			], m_bUseScaleRButtonMenu,			_DPV_bUseScaleRButtonMenu			);

  00298	89 87 f4 02 00
	00		 mov	 DWORD PTR [edi+756], eax
  0029e	8d 4d f0	 lea	 ecx, DWORD PTR _szTemp$[ebp]
  002a1	8b 06		 mov	 eax, DWORD PTR [esi]
  002a3	51		 push	 ecx
  002a4	ff 35 e8 00 00
	00		 push	 DWORD PTR ?g_anPropertyShortKey@@3PAPADA+232
  002aa	8b ce		 mov	 ecx, esi
  002ac	ff 50 0c	 call	 DWORD PTR [eax+12]
  002af	83 f8 01	 cmp	 eax, 1
  002b2	75 0a		 jne	 SHORT $LN30@SetPropert
  002b4	ff 75 f0	 push	 DWORD PTR _szTemp$[ebp]
  002b7	ff d3		 call	 ebx
  002b9	83 c4 04	 add	 esp, 4
  002bc	eb 05		 jmp	 SHORT $LN31@SetPropert
$LN30@SetPropert:
  002be	b8 01 00 00 00	 mov	 eax, 1
$LN31@SetPropert:

; 328  : 		CHART_CONVERT_INT(		p_pIPropertyMap, g_anPropertyShortKey[	nGraphRButtonType				], m_nGraphRButtonType,				_DPV_nGraphRButtonType				);

  002c3	89 87 f8 02 00
	00		 mov	 DWORD PTR [edi+760], eax
  002c9	8d 4d f0	 lea	 ecx, DWORD PTR _szTemp$[ebp]
  002cc	8b 06		 mov	 eax, DWORD PTR [esi]
  002ce	51		 push	 ecx
  002cf	ff 35 ec 00 00
	00		 push	 DWORD PTR ?g_anPropertyShortKey@@3PAPADA+236
  002d5	8b ce		 mov	 ecx, esi
  002d7	ff 50 0c	 call	 DWORD PTR [eax+12]
  002da	83 f8 01	 cmp	 eax, 1
  002dd	75 0a		 jne	 SHORT $LN32@SetPropert
  002df	ff 75 f0	 push	 DWORD PTR _szTemp$[ebp]
  002e2	ff d3		 call	 ebx
  002e4	83 c4 04	 add	 esp, 4
  002e7	eb 05		 jmp	 SHORT $LN33@SetPropert
$LN32@SetPropert:
  002e9	b8 01 00 00 00	 mov	 eax, 1
$LN33@SetPropert:

; 329  : 		CHART_CONVERT_BOOL(		p_pIPropertyMap, g_anPropertyShortKey[	USESKIN							], m_bUseSkin,						_DPV_USESKIN						);	//sy 2005.04.26.

  002ee	89 87 fc 02 00
	00		 mov	 DWORD PTR [edi+764], eax
  002f4	8d 4d f0	 lea	 ecx, DWORD PTR _szTemp$[ebp]
  002f7	8b 06		 mov	 eax, DWORD PTR [esi]
  002f9	51		 push	 ecx
  002fa	ff 35 0c 01 00
	00		 push	 DWORD PTR ?g_anPropertyShortKey@@3PAPADA+268
  00300	8b ce		 mov	 ecx, esi
  00302	ff 50 0c	 call	 DWORD PTR [eax+12]
  00305	83 f8 01	 cmp	 eax, 1
  00308	75 0a		 jne	 SHORT $LN34@SetPropert
  0030a	ff 75 f0	 push	 DWORD PTR _szTemp$[ebp]
  0030d	ff d3		 call	 ebx
  0030f	83 c4 04	 add	 esp, 4
  00312	eb 02		 jmp	 SHORT $LN35@SetPropert
$LN34@SetPropert:
  00314	33 c0		 xor	 eax, eax
$LN35@SetPropert:

; 330  : 		CHART_CONVERT_STRING(	p_pIPropertyMap, g_anPropertyShortKey[	MAPNAME							], m_strSaveMapName,				_DPV_MAPNAME						);	//sy 2005.09.06.

  00316	89 87 08 03 00
	00		 mov	 DWORD PTR [edi+776], eax
  0031c	8d 4d f0	 lea	 ecx, DWORD PTR _szTemp$[ebp]
  0031f	8b 06		 mov	 eax, DWORD PTR [esi]
  00321	51		 push	 ecx
  00322	ff 35 10 01 00
	00		 push	 DWORD PTR ?g_anPropertyShortKey@@3PAPADA+272
  00328	8b ce		 mov	 ecx, esi
  0032a	ff 50 0c	 call	 DWORD PTR [eax+12]
  0032d	8d 8f 0c 03 00
	00		 lea	 ecx, DWORD PTR [edi+780]
  00333	83 f8 01	 cmp	 eax, 1
  00336	75 05		 jne	 SHORT $LN36@SetPropert
  00338	ff 75 f0	 push	 DWORD PTR _szTemp$[ebp]
  0033b	eb 05		 jmp	 SHORT $LN86@SetPropert
$LN36@SetPropert:
  0033d	68 00 00 00 00	 push	 OFFSET ??_C@_00CNPNBAHC@@
$LN86@SetPropert:

; 331  : 	CHART_CONVERT_END()
; 332  : 
; 333  : 	// (2006/7/5 - Seung-Won, Bae) Manage Property Map for Update
; 334  : 	m_pIPropertyMap = p_pIPropertyMap;

  00342	ff 15 00 00 00
	00		 call	 DWORD PTR __imp_??4?$CStringT@DV?$StrTraitMFC_DLL@DV?$ChTraitsCRT@D@ATL@@@@@ATL@@QAEAAV01@PBD@Z

; 248  : 	strItem = strItemValue;

  00348	8d 45 e8	 lea	 eax, DWORD PTR _strUserEnvironmentFileName$[ebp]

; 331  : 	CHART_CONVERT_END()
; 332  : 
; 333  : 	// (2006/7/5 - Seung-Won, Bae) Manage Property Map for Update
; 334  : 	m_pIPropertyMap = p_pIPropertyMap;

  0034b	89 b7 f8 03 00
	00		 mov	 DWORD PTR [edi+1016], esi

; 248  : 	strItem = strItemValue;

  00351	50		 push	 eax
  00352	8d 8f c0 02 00
	00		 lea	 ecx, DWORD PTR [edi+704]
  00358	ff 15 00 00 00
	00		 call	 DWORD PTR __imp_??4?$CStringT@DV?$StrTraitMFC_DLL@DV?$ChTraitsCRT@D@ATL@@@@@ATL@@QAEAAV01@ABV01@@Z
; File C:\Program Files (x86)\Microsoft Visual Studio\2019\Community\VC\Tools\MSVC\14.29.30133\atlmfc\include\atlsimpstr.h

; 533  : 		return( GetLength() == 0 );

  0035e	8b 87 c0 02 00
	00		 mov	 eax, DWORD PTR [edi+704]
  00364	83 78 f4 00	 cmp	 DWORD PTR [eax-12], 0
; File D:\git\src\IBK\IBK_DRFN\ProjSrc\SrcChartEx\ChartAddIn\ChartDesignPropertyAddIn\ChartDesignPropertyAddIn\ViewDesignPage2.cpp

; 249  : 	if(!strItem.IsEmpty() && strItem.Find(FILETYPE) != -1)

  00368	74 30		 je	 SHORT $LN42@SetPropert
  0036a	6a 00		 push	 0
  0036c	ff b7 10 03 00
	00		 push	 DWORD PTR [edi+784]
  00372	8d 8f c0 02 00
	00		 lea	 ecx, DWORD PTR [edi+704]
  00378	ff 15 00 00 00
	00		 call	 DWORD PTR __imp_?Find@?$CStringT@DV?$StrTraitMFC_DLL@DV?$ChTraitsCRT@D@ATL@@@@@ATL@@QBEHPBDH@Z
  0037e	83 f8 ff	 cmp	 eax, -1
  00381	74 17		 je	 SHORT $LN42@SetPropert

; 250  : 		strItem.Replace(FILETYPE, "");

  00383	68 00 00 00 00	 push	 OFFSET ??_C@_00CNPNBAHC@@
  00388	ff b7 10 03 00
	00		 push	 DWORD PTR [edi+784]
  0038e	8d 8f c0 02 00
	00		 lea	 ecx, DWORD PTR [edi+704]
  00394	ff 15 00 00 00
	00		 call	 DWORD PTR __imp_?Replace@?$CStringT@DV?$StrTraitMFC_DLL@DV?$ChTraitsCRT@D@ATL@@@@@ATL@@QAEHPBD0@Z
$LN42@SetPropert:

; 335  : 
; 336  : 	SetProperty_FileName( strUserEnvironmentFileName,	m_strUserEnvironmentSaveFileName,	m_bIsEnvironmentFile);
; 337  : 	SetProperty_FileName( strUserIndicatorListFileName,	m_strInsertedIndicatorSaveFileName,	m_bIsIndicondFile);

  0039a	8b 87 c0 02 00
	00		 mov	 eax, DWORD PTR [edi+704]
  003a0	33 c9		 xor	 ecx, ecx
  003a2	39 48 f4	 cmp	 DWORD PTR [eax-12], ecx

; 248  : 	strItem = strItemValue;

  003a5	8d 45 ec	 lea	 eax, DWORD PTR _strUserIndicatorListFileName$[ebp]
  003a8	50		 push	 eax

; 335  : 
; 336  : 	SetProperty_FileName( strUserEnvironmentFileName,	m_strUserEnvironmentSaveFileName,	m_bIsEnvironmentFile);
; 337  : 	SetProperty_FileName( strUserIndicatorListFileName,	m_strInsertedIndicatorSaveFileName,	m_bIsIndicondFile);

  003a9	0f 95 c1	 setne	 cl
  003ac	89 8f 00 03 00
	00		 mov	 DWORD PTR [edi+768], ecx

; 248  : 	strItem = strItemValue;

  003b2	8d 8f c4 02 00
	00		 lea	 ecx, DWORD PTR [edi+708]
  003b8	ff 15 00 00 00
	00		 call	 DWORD PTR __imp_??4?$CStringT@DV?$StrTraitMFC_DLL@DV?$ChTraitsCRT@D@ATL@@@@@ATL@@QAEAAV01@ABV01@@Z
; File C:\Program Files (x86)\Microsoft Visual Studio\2019\Community\VC\Tools\MSVC\14.29.30133\atlmfc\include\atlsimpstr.h

; 533  : 		return( GetLength() == 0 );

  003be	8b 87 c4 02 00
	00		 mov	 eax, DWORD PTR [edi+708]
  003c4	83 78 f4 00	 cmp	 DWORD PTR [eax-12], 0
; File D:\git\src\IBK\IBK_DRFN\ProjSrc\SrcChartEx\ChartAddIn\ChartDesignPropertyAddIn\ChartDesignPropertyAddIn\ViewDesignPage2.cpp

; 249  : 	if(!strItem.IsEmpty() && strItem.Find(FILETYPE) != -1)

  003c8	74 30		 je	 SHORT $LN63@SetPropert
  003ca	6a 00		 push	 0
  003cc	ff b7 10 03 00
	00		 push	 DWORD PTR [edi+784]
  003d2	8d 8f c4 02 00
	00		 lea	 ecx, DWORD PTR [edi+708]
  003d8	ff 15 00 00 00
	00		 call	 DWORD PTR __imp_?Find@?$CStringT@DV?$StrTraitMFC_DLL@DV?$ChTraitsCRT@D@ATL@@@@@ATL@@QBEHPBDH@Z
  003de	83 f8 ff	 cmp	 eax, -1
  003e1	74 17		 je	 SHORT $LN63@SetPropert

; 250  : 		strItem.Replace(FILETYPE, "");

  003e3	68 00 00 00 00	 push	 OFFSET ??_C@_00CNPNBAHC@@
  003e8	ff b7 10 03 00
	00		 push	 DWORD PTR [edi+784]
  003ee	8d 8f c4 02 00
	00		 lea	 ecx, DWORD PTR [edi+708]
  003f4	ff 15 00 00 00
	00		 call	 DWORD PTR __imp_?Replace@?$CStringT@DV?$StrTraitMFC_DLL@DV?$ChTraitsCRT@D@ATL@@@@@ATL@@QAEHPBD0@Z
$LN63@SetPropert:

; 338  : }

  003fa	8b 87 c4 02 00
	00		 mov	 eax, DWORD PTR [edi+708]
  00400	33 c9		 xor	 ecx, ecx
  00402	39 48 f4	 cmp	 DWORD PTR [eax-12], ecx
  00405	0f 95 c1	 setne	 cl
  00408	89 8f 04 03 00
	00		 mov	 DWORD PTR [edi+772], ecx
  0040e	8d 4d ec	 lea	 ecx, DWORD PTR _strUserIndicatorListFileName$[ebp]
  00411	ff 15 00 00 00
	00		 call	 DWORD PTR __imp_??1?$CStringT@DV?$StrTraitMFC_DLL@DV?$ChTraitsCRT@D@ATL@@@@@ATL@@QAE@XZ
  00417	8d 4d e8	 lea	 ecx, DWORD PTR _strUserEnvironmentFileName$[ebp]
  0041a	ff 15 00 00 00
	00		 call	 DWORD PTR __imp_??1?$CStringT@DV?$StrTraitMFC_DLL@DV?$ChTraitsCRT@D@ATL@@@@@ATL@@QAE@XZ
  00420	8b 4d f4	 mov	 ecx, DWORD PTR __$EHRec$[ebp]
  00423	64 89 0d 00 00
	00 00		 mov	 DWORD PTR fs:0, ecx
  0042a	59		 pop	 ecx
  0042b	5f		 pop	 edi
  0042c	5e		 pop	 esi
  0042d	5b		 pop	 ebx
  0042e	8b e5		 mov	 esp, ebp
  00430	5d		 pop	 ebp
  00431	c2 04 00	 ret	 4
_TEXT	ENDS
;	COMDAT text$x
text$x	SEGMENT
__unwindfunclet$?SetProperty@CViewDesignPage2@@QAEXPAUIPropertyMap@@@Z$0:
  00000	8d 4d e8	 lea	 ecx, DWORD PTR _strUserEnvironmentFileName$[ebp]
  00003	ff 25 00 00 00
	00		 jmp	 DWORD PTR __imp_??1?$CStringT@DV?$StrTraitMFC_DLL@DV?$ChTraitsCRT@D@ATL@@@@@ATL@@QAE@XZ
__unwindfunclet$?SetProperty@CViewDesignPage2@@QAEXPAUIPropertyMap@@@Z$1:
  00009	8d 4d ec	 lea	 ecx, DWORD PTR _strUserIndicatorListFileName$[ebp]
  0000c	ff 25 00 00 00
	00		 jmp	 DWORD PTR __imp_??1?$CStringT@DV?$StrTraitMFC_DLL@DV?$ChTraitsCRT@D@ATL@@@@@ATL@@QAE@XZ
  00012	cc		 int	 3
  00013	cc		 int	 3
  00014	cc		 int	 3
  00015	cc		 int	 3
  00016	cc		 int	 3
__ehhandler$?SetProperty@CViewDesignPage2@@QAEXPAUIPropertyMap@@@Z:
  00017	90		 npad	 1
  00018	90		 npad	 1
  00019	8b 54 24 08	 mov	 edx, DWORD PTR [esp+8]
  0001d	8d 42 0c	 lea	 eax, DWORD PTR [edx+12]
  00020	8b 4a e4	 mov	 ecx, DWORD PTR [edx-28]
  00023	33 c8		 xor	 ecx, eax
  00025	e8 00 00 00 00	 call	 @__security_check_cookie@4
  0002a	b8 00 00 00 00	 mov	 eax, OFFSET __ehfuncinfo$?SetProperty@CViewDesignPage2@@QAEXPAUIPropertyMap@@@Z
  0002f	e9 00 00 00 00	 jmp	 ___CxxFrameHandler3
text$x	ENDS
?SetProperty@CViewDesignPage2@@QAEXPAUIPropertyMap@@@Z ENDP ; CViewDesignPage2::SetProperty
; Function compile flags: /Ogtp
; File D:\git\src\IBK\IBK_DRFN\ProjSrc\SrcChartEx\ChartAddIn\ChartDesignPropertyAddIn\ChartDesignPropertyAddIn\ViewDesignPage2.cpp
;	COMDAT ??1CViewDesignPage2@@UAE@XZ
_TEXT	SEGMENT
??1CViewDesignPage2@@UAE@XZ PROC			; CViewDesignPage2::~CViewDesignPage2, COMDAT
; _this$ = ecx

; 60   : {

  00000	56		 push	 esi
  00001	8b f1		 mov	 esi, ecx

; 61   : }

  00003	8d 8e 18 03 00
	00		 lea	 ecx, DWORD PTR [esi+792]
  00009	c7 06 00 00 00
	00		 mov	 DWORD PTR [esi], OFFSET ??_7CViewDesignPage2@@6B@
  0000f	e8 00 00 00 00	 call	 ??1CDlgToolTip@@UAE@XZ	; CDlgToolTip::~CDlgToolTip
  00014	8d 8e 10 03 00
	00		 lea	 ecx, DWORD PTR [esi+784]
  0001a	ff 15 00 00 00
	00		 call	 DWORD PTR __imp_??1?$CStringT@DV?$StrTraitMFC_DLL@DV?$ChTraitsCRT@D@ATL@@@@@ATL@@QAE@XZ
  00020	8d 8e 0c 03 00
	00		 lea	 ecx, DWORD PTR [esi+780]
  00026	ff 15 00 00 00
	00		 call	 DWORD PTR __imp_??1?$CStringT@DV?$StrTraitMFC_DLL@DV?$ChTraitsCRT@D@ATL@@@@@ATL@@QAE@XZ
  0002c	8d 8e c4 02 00
	00		 lea	 ecx, DWORD PTR [esi+708]
  00032	ff 15 00 00 00
	00		 call	 DWORD PTR __imp_??1?$CStringT@DV?$StrTraitMFC_DLL@DV?$ChTraitsCRT@D@ATL@@@@@ATL@@QAE@XZ
  00038	8d 8e c0 02 00
	00		 lea	 ecx, DWORD PTR [esi+704]
  0003e	ff 15 00 00 00
	00		 call	 DWORD PTR __imp_??1?$CStringT@DV?$StrTraitMFC_DLL@DV?$ChTraitsCRT@D@ATL@@@@@ATL@@QAE@XZ
  00044	8d 8e 40 02 00
	00		 lea	 ecx, DWORD PTR [esi+576]
  0004a	e8 00 00 00 00	 call	 ??1CNoSystemMenuEdit@@UAE@XZ ; CNoSystemMenuEdit::~CNoSystemMenuEdit
  0004f	8d 8e c0 01 00
	00		 lea	 ecx, DWORD PTR [esi+448]
  00055	e8 00 00 00 00	 call	 ??1CNoSystemMenuEdit@@UAE@XZ ; CNoSystemMenuEdit::~CNoSystemMenuEdit
  0005a	8d 8e 40 01 00
	00		 lea	 ecx, DWORD PTR [esi+320]
  00060	e8 00 00 00 00	 call	 ??1CNoSystemMenuEdit@@UAE@XZ ; CNoSystemMenuEdit::~CNoSystemMenuEdit
  00065	8d 8e c0 00 00
	00		 lea	 ecx, DWORD PTR [esi+192]
  0006b	e8 00 00 00 00	 call	 ??1CButton@@UAE@XZ	; CButton::~CButton
  00070	8b ce		 mov	 ecx, esi
  00072	5e		 pop	 esi
  00073	e9 00 00 00 00	 jmp	 ??1CPropertyPage@@UAE@XZ ; CPropertyPage::~CPropertyPage
??1CViewDesignPage2@@UAE@XZ ENDP			; CViewDesignPage2::~CViewDesignPage2
_TEXT	ENDS
; Function compile flags: /Ogtp
; File D:\git\src\IBK\IBK_DRFN\ProjSrc\SrcChartEx\ChartAddIn\ChartDesignPropertyAddIn\ChartDesignPropertyAddIn\ViewDesignPage2.cpp
; File C:\Program Files (x86)\Microsoft Visual Studio\2019\Community\VC\Tools\MSVC\14.29.30133\atlmfc\include\afxwin2.inl
; File D:\git\src\IBK\IBK_DRFN\ProjSrc\SrcChartEx\ChartAddIn\ChartDesignPropertyAddIn\ChartDesignPropertyAddIn\ViewDesignPage2.cpp
; File C:\Program Files (x86)\Microsoft Visual Studio\2019\Community\VC\Tools\MSVC\14.29.30133\atlmfc\include\afxwin2.inl
; File D:\git\src\IBK\IBK_DRFN\ProjSrc\SrcChartEx\ChartAddIn\ChartDesignPropertyAddIn\ChartDesignPropertyAddIn\ViewDesignPage2.cpp
;	COMDAT ??0CViewDesignPage2@@QAE@XZ
_TEXT	SEGMENT
_this$ = -20						; size = 4
_this$ = -16						; size = 4
__$EHRec$ = -12						; size = 12
??0CViewDesignPage2@@QAE@XZ PROC			; CViewDesignPage2::CViewDesignPage2, COMDAT
; _this$ = ecx

; 26   : {

  00000	55		 push	 ebp
  00001	8b ec		 mov	 ebp, esp
  00003	6a ff		 push	 -1
  00005	68 00 00 00 00	 push	 __ehhandler$??0CViewDesignPage2@@QAE@XZ
  0000a	64 a1 00 00 00
	00		 mov	 eax, DWORD PTR fs:0
  00010	50		 push	 eax
  00011	83 ec 08	 sub	 esp, 8
  00014	53		 push	 ebx
  00015	56		 push	 esi
  00016	57		 push	 edi
  00017	a1 00 00 00 00	 mov	 eax, DWORD PTR ___security_cookie
  0001c	33 c5		 xor	 eax, ebp
  0001e	50		 push	 eax
  0001f	8d 45 f4	 lea	 eax, DWORD PTR __$EHRec$[ebp]
  00022	64 a3 00 00 00
	00		 mov	 DWORD PTR fs:0, eax
  00028	8b d9		 mov	 ebx, ecx
  0002a	89 5d f0	 mov	 DWORD PTR _this$[ebp], ebx

; 24   : CViewDesignPage2::CViewDesignPage2() : CPropertyPage(CViewDesignPage2::IDD),

  0002d	6a 38		 push	 56			; 00000038H
  0002f	6a 00		 push	 0
  00031	68 85 1b 00 00	 push	 7045			; 00001b85H
  00036	e8 00 00 00 00	 call	 ??0CPropertyPage@@QAE@IIK@Z ; CPropertyPage::CPropertyPage

; 26   : {

  0003b	8d b3 c0 00 00
	00		 lea	 esi, DWORD PTR [ebx+192]
  00041	c7 45 fc 00 00
	00 00		 mov	 DWORD PTR __$EHRec$[ebp+8], 0
; File C:\Program Files (x86)\Microsoft Visual Studio\2019\Community\VC\Tools\MSVC\14.29.30133\atlmfc\include\afxwin2.inl

; 622  : 	{ }

  00048	8b ce		 mov	 ecx, esi
; File D:\git\src\IBK\IBK_DRFN\ProjSrc\SrcChartEx\ChartAddIn\ChartDesignPropertyAddIn\ChartDesignPropertyAddIn\ViewDesignPage2.cpp

; 26   : {

  0004a	c7 03 00 00 00
	00		 mov	 DWORD PTR [ebx], OFFSET ??_7CViewDesignPage2@@6B@
  00050	89 75 ec	 mov	 DWORD PTR _this$[ebp], esi
; File C:\Program Files (x86)\Microsoft Visual Studio\2019\Community\VC\Tools\MSVC\14.29.30133\atlmfc\include\afxwin2.inl

; 622  : 	{ }

  00053	e8 00 00 00 00	 call	 ??0CWnd@@QAE@XZ		; CWnd::CWnd
  00058	c7 06 00 00 00
	00		 mov	 DWORD PTR [esi], OFFSET ??_7CButton@@6B@
; File D:\git\src\IBK\IBK_DRFN\ProjSrc\SrcChartEx\ChartAddIn\ChartDesignPropertyAddIn\ChartDesignPropertyAddIn\ViewDesignPage2.cpp

; 26   : {

  0005e	8d 8b 40 01 00
	00		 lea	 ecx, DWORD PTR [ebx+320]
  00064	c6 45 fc 01	 mov	 BYTE PTR __$EHRec$[ebp+8], 1
  00068	e8 00 00 00 00	 call	 ??0CNoSystemMenuEdit@@QAE@XZ ; CNoSystemMenuEdit::CNoSystemMenuEdit
  0006d	8d 8b c0 01 00
	00		 lea	 ecx, DWORD PTR [ebx+448]
  00073	c6 45 fc 02	 mov	 BYTE PTR __$EHRec$[ebp+8], 2
  00077	e8 00 00 00 00	 call	 ??0CNoSystemMenuEdit@@QAE@XZ ; CNoSystemMenuEdit::CNoSystemMenuEdit
  0007c	8d 8b 40 02 00
	00		 lea	 ecx, DWORD PTR [ebx+576]
  00082	c6 45 fc 03	 mov	 BYTE PTR __$EHRec$[ebp+8], 3
  00086	e8 00 00 00 00	 call	 ??0CNoSystemMenuEdit@@QAE@XZ ; CNoSystemMenuEdit::CNoSystemMenuEdit
  0008b	8d 8b c0 02 00
	00		 lea	 ecx, DWORD PTR [ebx+704]
  00091	ff 15 00 00 00
	00		 call	 DWORD PTR __imp_??0?$CStringT@DV?$StrTraitMFC_DLL@DV?$ChTraitsCRT@D@ATL@@@@@ATL@@QAE@XZ
  00097	8d 8b c4 02 00
	00		 lea	 ecx, DWORD PTR [ebx+708]
  0009d	ff 15 00 00 00
	00		 call	 DWORD PTR __imp_??0?$CStringT@DV?$StrTraitMFC_DLL@DV?$ChTraitsCRT@D@ATL@@@@@ATL@@QAE@XZ
  000a3	8d 8b 0c 03 00
	00		 lea	 ecx, DWORD PTR [ebx+780]
  000a9	ff 15 00 00 00
	00		 call	 DWORD PTR __imp_??0?$CStringT@DV?$StrTraitMFC_DLL@DV?$ChTraitsCRT@D@ATL@@@@@ATL@@QAE@XZ

; 25   : 	FILETYPE(".cht")

  000af	8b cb		 mov	 ecx, ebx
  000b1	c6 45 fc 07	 mov	 BYTE PTR __$EHRec$[ebp+8], 7
  000b5	68 00 00 00 00	 push	 OFFSET ??_C@_04GDCIOHAA@?4cht@
  000ba	81 c1 10 03 00
	00		 add	 ecx, 784		; 00000310H
  000c0	ff 15 00 00 00
	00		 call	 DWORD PTR __imp_??0?$CStringT@DV?$StrTraitMFC_DLL@DV?$ChTraitsCRT@D@ATL@@@@@ATL@@QAE@PBD@Z

; 26   : {

  000c6	8b cb		 mov	 ecx, ebx
  000c8	c6 45 fc 08	 mov	 BYTE PTR __$EHRec$[ebp+8], 8
  000cc	8d 89 18 03 00
	00		 lea	 ecx, DWORD PTR [ecx+792]
  000d2	e8 00 00 00 00	 call	 ??0CDlgToolTip@@QAE@XZ	; CDlgToolTip::CDlgToolTip

; 27   : 	//{{AFX_DATA_INIT(CViewDesignPage2)
; 28   : 	m_strUserEnvironmentSaveFileName = _T("");

  000d7	68 00 00 00 00	 push	 OFFSET ??_C@_00CNPNBAHC@@
  000dc	8d 8b c0 02 00
	00		 lea	 ecx, DWORD PTR [ebx+704]
  000e2	c6 45 fc 09	 mov	 BYTE PTR __$EHRec$[ebp+8], 9
  000e6	ff 15 00 00 00
	00		 call	 DWORD PTR __imp_??4?$CStringT@DV?$StrTraitMFC_DLL@DV?$ChTraitsCRT@D@ATL@@@@@ATL@@QAEAAV01@PBD@Z

; 29   : 	m_strInsertedIndicatorSaveFileName = _T("");

  000ec	68 00 00 00 00	 push	 OFFSET ??_C@_00CNPNBAHC@@
  000f1	8d 8b c4 02 00
	00		 lea	 ecx, DWORD PTR [ebx+708]
  000f7	ff 15 00 00 00
	00		 call	 DWORD PTR __imp_??4?$CStringT@DV?$StrTraitMFC_DLL@DV?$ChTraitsCRT@D@ATL@@@@@ATL@@QAEAAV01@PBD@Z

; 30   : 	m_nUserInsertedBlockCount = 0;

  000fd	8b f3		 mov	 esi, ebx

; 31   : 	m_nRButtonMenuType = -1;
; 32   : 	m_bHide = FALSE;
; 33   : 	m_bInputRequire = FALSE;
; 34   : 	m_bChartRButtonMenu = FALSE;
; 35   : 	m_bGraphDragandDrop = FALSE;
; 36   : 	m_bUseShortKey = FALSE;
; 37   : 	m_bBlockMoveDelete = FALSE;
; 38   : 	m_bSelectTitle = FALSE;
; 39   : 	m_bSelectGraph = FALSE;
; 40   : 	m_nGraphRButtonType = -1;
; 41   : 	m_bIsEnvironmentFile = FALSE;
; 42   : 	m_bIsIndicondFile = FALSE;
; 43   : 	m_bUseSkin = FALSE;
; 44   : 	m_strSaveMapName = _T("");

  000ff	8d 8b 0c 03 00
	00		 lea	 ecx, DWORD PTR [ebx+780]
  00105	68 00 00 00 00	 push	 OFFSET ??_C@_00CNPNBAHC@@
  0010a	c7 86 c8 02 00
	00 00 00 00 00	 mov	 DWORD PTR [esi+712], 0
  00114	c7 86 cc 02 00
	00 ff ff ff ff	 mov	 DWORD PTR [esi+716], -1
  0011e	c7 86 d0 02 00
	00 00 00 00 00	 mov	 DWORD PTR [esi+720], 0
  00128	c7 86 d4 02 00
	00 00 00 00 00	 mov	 DWORD PTR [esi+724], 0
  00132	c7 86 d8 02 00
	00 00 00 00 00	 mov	 DWORD PTR [esi+728], 0
  0013c	c7 86 dc 02 00
	00 00 00 00 00	 mov	 DWORD PTR [esi+732], 0
  00146	c7 86 e0 02 00
	00 00 00 00 00	 mov	 DWORD PTR [esi+736], 0
  00150	c7 86 ec 02 00
	00 00 00 00 00	 mov	 DWORD PTR [esi+748], 0
  0015a	c7 86 f0 02 00
	00 00 00 00 00	 mov	 DWORD PTR [esi+752], 0
  00164	c7 86 f4 02 00
	00 00 00 00 00	 mov	 DWORD PTR [esi+756], 0
  0016e	c7 86 fc 02 00
	00 ff ff ff ff	 mov	 DWORD PTR [esi+764], -1
  00178	c7 86 00 03 00
	00 00 00 00 00	 mov	 DWORD PTR [esi+768], 0
  00182	c7 86 04 03 00
	00 00 00 00 00	 mov	 DWORD PTR [esi+772], 0
  0018c	c7 86 08 03 00
	00 00 00 00 00	 mov	 DWORD PTR [esi+776], 0
  00196	ff 15 00 00 00
	00		 call	 DWORD PTR __imp_??4?$CStringT@DV?$StrTraitMFC_DLL@DV?$ChTraitsCRT@D@ATL@@@@@ATL@@QAEAAV01@PBD@Z

; 45   : 	//}}AFX_DATA_INIT
; 46   : 	m_nRButtonMenuType = 0;

  0019c	c7 86 cc 02 00
	00 00 00 00 00	 mov	 DWORD PTR [esi+716], 0

; 47   : 	m_bShowWarningMessageBox = TRUE;
; 48   : 	m_bControlBlockSize = TRUE;
; 49   : 	m_bUseScaleRButtonMenu = TRUE;
; 50   : 	m_nGraphRButtonType = 1;
; 51   : 
; 52   : 	// (2006/7/5 - Seung-Won, Bae) Manage Property Map for Update
; 53   : 	m_pIPropertyMap = NULL;
; 54   : 
; 55   : 	// (2008/1/14 - Seung-Won, Bae) for MultiLanguage.
; 56   : 	m_hOcxWnd = NULL;
; 57   : }

  001a6	8b c6		 mov	 eax, esi
  001a8	c7 86 e4 02 00
	00 01 00 00 00	 mov	 DWORD PTR [esi+740], 1
  001b2	c7 86 e8 02 00
	00 01 00 00 00	 mov	 DWORD PTR [esi+744], 1
  001bc	c7 86 f8 02 00
	00 01 00 00 00	 mov	 DWORD PTR [esi+760], 1
  001c6	c7 86 fc 02 00
	00 01 00 00 00	 mov	 DWORD PTR [esi+764], 1
  001d0	c7 86 f8 03 00
	00 00 00 00 00	 mov	 DWORD PTR [esi+1016], 0
  001da	c7 86 fc 03 00
	00 00 00 00 00	 mov	 DWORD PTR [esi+1020], 0
  001e4	8b 4d f4	 mov	 ecx, DWORD PTR __$EHRec$[ebp]
  001e7	64 89 0d 00 00
	00 00		 mov	 DWORD PTR fs:0, ecx
  001ee	59		 pop	 ecx
  001ef	5f		 pop	 edi
  001f0	5e		 pop	 esi
  001f1	5b		 pop	 ebx
  001f2	8b e5		 mov	 esp, ebp
  001f4	5d		 pop	 ebp
  001f5	c3		 ret	 0
_TEXT	ENDS
;	COMDAT text$x
text$x	SEGMENT
__unwindfunclet$??0CViewDesignPage2@@QAE@XZ$0:
  00000	8b 4d f0	 mov	 ecx, DWORD PTR _this$[ebp]
  00003	e9 00 00 00 00	 jmp	 ??1CPropertyPage@@UAE@XZ ; CPropertyPage::~CPropertyPage
__unwindfunclet$??0CViewDesignPage2@@QAE@XZ$1:
  00008	8b 4d f0	 mov	 ecx, DWORD PTR _this$[ebp]
  0000b	81 c1 c0 00 00
	00		 add	 ecx, 192		; 000000c0H
  00011	e9 00 00 00 00	 jmp	 ??1CButton@@UAE@XZ	; CButton::~CButton
__unwindfunclet$??0CViewDesignPage2@@QAE@XZ$2:
  00016	8b 4d f0	 mov	 ecx, DWORD PTR _this$[ebp]
  00019	81 c1 40 01 00
	00		 add	 ecx, 320		; 00000140H
  0001f	e9 00 00 00 00	 jmp	 ??1CNoSystemMenuEdit@@UAE@XZ ; CNoSystemMenuEdit::~CNoSystemMenuEdit
__unwindfunclet$??0CViewDesignPage2@@QAE@XZ$3:
  00024	8b 4d f0	 mov	 ecx, DWORD PTR _this$[ebp]
  00027	81 c1 c0 01 00
	00		 add	 ecx, 448		; 000001c0H
  0002d	e9 00 00 00 00	 jmp	 ??1CNoSystemMenuEdit@@UAE@XZ ; CNoSystemMenuEdit::~CNoSystemMenuEdit
__unwindfunclet$??0CViewDesignPage2@@QAE@XZ$4:
  00032	8b 4d f0	 mov	 ecx, DWORD PTR _this$[ebp]
  00035	81 c1 40 02 00
	00		 add	 ecx, 576		; 00000240H
  0003b	e9 00 00 00 00	 jmp	 ??1CNoSystemMenuEdit@@UAE@XZ ; CNoSystemMenuEdit::~CNoSystemMenuEdit
__unwindfunclet$??0CViewDesignPage2@@QAE@XZ$5:
  00040	8b 4d f0	 mov	 ecx, DWORD PTR _this$[ebp]
  00043	81 c1 c0 02 00
	00		 add	 ecx, 704		; 000002c0H
  00049	ff 25 00 00 00
	00		 jmp	 DWORD PTR __imp_??1?$CStringT@DV?$StrTraitMFC_DLL@DV?$ChTraitsCRT@D@ATL@@@@@ATL@@QAE@XZ
__unwindfunclet$??0CViewDesignPage2@@QAE@XZ$6:
  0004f	8b 4d f0	 mov	 ecx, DWORD PTR _this$[ebp]
  00052	81 c1 c4 02 00
	00		 add	 ecx, 708		; 000002c4H
  00058	ff 25 00 00 00
	00		 jmp	 DWORD PTR __imp_??1?$CStringT@DV?$StrTraitMFC_DLL@DV?$ChTraitsCRT@D@ATL@@@@@ATL@@QAE@XZ
__unwindfunclet$??0CViewDesignPage2@@QAE@XZ$7:
  0005e	8b 4d f0	 mov	 ecx, DWORD PTR _this$[ebp]
  00061	81 c1 0c 03 00
	00		 add	 ecx, 780		; 0000030cH
  00067	ff 25 00 00 00
	00		 jmp	 DWORD PTR __imp_??1?$CStringT@DV?$StrTraitMFC_DLL@DV?$ChTraitsCRT@D@ATL@@@@@ATL@@QAE@XZ
__unwindfunclet$??0CViewDesignPage2@@QAE@XZ$8:
  0006d	8b 4d f0	 mov	 ecx, DWORD PTR _this$[ebp]
  00070	81 c1 10 03 00
	00		 add	 ecx, 784		; 00000310H
  00076	ff 25 00 00 00
	00		 jmp	 DWORD PTR __imp_??1?$CStringT@DV?$StrTraitMFC_DLL@DV?$ChTraitsCRT@D@ATL@@@@@ATL@@QAE@XZ
__unwindfunclet$??0CViewDesignPage2@@QAE@XZ$9:
  0007c	8b 4d f0	 mov	 ecx, DWORD PTR _this$[ebp]
  0007f	81 c1 18 03 00
	00		 add	 ecx, 792		; 00000318H
  00085	e9 00 00 00 00	 jmp	 ??1CDlgToolTip@@UAE@XZ	; CDlgToolTip::~CDlgToolTip
  0008a	cc		 int	 3
  0008b	cc		 int	 3
  0008c	cc		 int	 3
  0008d	cc		 int	 3
  0008e	cc		 int	 3
__ehhandler$??0CViewDesignPage2@@QAE@XZ:
  0008f	90		 npad	 1
  00090	90		 npad	 1
  00091	8b 54 24 08	 mov	 edx, DWORD PTR [esp+8]
  00095	8d 42 0c	 lea	 eax, DWORD PTR [edx+12]
  00098	8b 4a e8	 mov	 ecx, DWORD PTR [edx-24]
  0009b	33 c8		 xor	 ecx, eax
  0009d	e8 00 00 00 00	 call	 @__security_check_cookie@4
  000a2	b8 00 00 00 00	 mov	 eax, OFFSET __ehfuncinfo$??0CViewDesignPage2@@QAE@XZ
  000a7	e9 00 00 00 00	 jmp	 ___CxxFrameHandler3
text$x	ENDS
??0CViewDesignPage2@@QAE@XZ ENDP			; CViewDesignPage2::CViewDesignPage2
; Function compile flags: /Ogtp
; File D:\git\src\IBK\IBK_DRFN\ProjSrc\SrcChartEx\ChartAddIn\ChartDesignPropertyAddIn\ChartDesignPropertyAddIn\ViewDesignPage2.cpp
; File C:\Program Files (x86)\Microsoft Visual Studio\2019\Community\VC\Tools\MSVC\14.29.30133\atlmfc\include\afx.inl
; File D:\git\src\IBK\IBK_DRFN\ProjSrc\SrcChartEx\ChartAddIn\ChartDesignPropertyAddIn\ChartDesignPropertyAddIn\ViewDesignPage2.cpp
; File C:\Program Files (x86)\Microsoft Visual Studio\2019\Community\VC\Tools\MSVC\14.29.30133\atlmfc\include\afx.inl
; File D:\git\src\IBK\IBK_DRFN\ProjSrc\SrcChartEx\ChartAddIn\ChartDesignPropertyAddIn\ChartDesignPropertyAddIn\ViewDesignPage2.cpp
; File C:\Program Files (x86)\Microsoft Visual Studio\2019\Community\VC\Tools\MSVC\14.29.30133\atlmfc\include\afxwin2.inl
; File D:\git\src\IBK\IBK_DRFN\ProjSrc\SrcChartEx\ChartAddIn\ChartDesignPropertyAddIn\ChartDesignPropertyAddIn\ViewDesignPage2.cpp
; File C:\Program Files (x86)\Microsoft Visual Studio\2019\Community\VC\Tools\MSVC\14.29.30133\atlmfc\include\afxwin2.inl
; File D:\git\src\IBK\IBK_DRFN\ProjSrc\SrcChartEx\ChartAddIn\ChartDesignPropertyAddIn\ChartDesignPropertyAddIn\ViewDesignPage2.cpp
;	COMDAT ?CreateObject@CViewDesignPage2@@SGPAVCObject@@XZ
_TEXT	SEGMENT
_this$ = -20						; size = 4
$T2 = -16						; size = 4
__$EHRec$ = -12						; size = 12
?CreateObject@CViewDesignPage2@@SGPAVCObject@@XZ PROC	; CViewDesignPage2::CreateObject, COMDAT

; 22   : IMPLEMENT_DYNCREATE(CViewDesignPage2, CPropertyPage)

  00000	55		 push	 ebp
  00001	8b ec		 mov	 ebp, esp
  00003	6a ff		 push	 -1
  00005	68 00 00 00 00	 push	 __ehhandler$?CreateObject@CViewDesignPage2@@SGPAVCObject@@XZ
  0000a	64 a1 00 00 00
	00		 mov	 eax, DWORD PTR fs:0
  00010	50		 push	 eax
  00011	83 ec 08	 sub	 esp, 8
  00014	53		 push	 ebx
  00015	56		 push	 esi
  00016	57		 push	 edi
  00017	a1 00 00 00 00	 mov	 eax, DWORD PTR ___security_cookie
  0001c	33 c5		 xor	 eax, ebp
  0001e	50		 push	 eax
  0001f	8d 45 f4	 lea	 eax, DWORD PTR __$EHRec$[ebp]
  00022	64 a3 00 00 00
	00		 mov	 DWORD PTR fs:0, eax
; File C:\Program Files (x86)\Microsoft Visual Studio\2019\Community\VC\Tools\MSVC\14.29.30133\atlmfc\include\afx.inl

; 116  : 	{ return ::operator new(nSize); }

  00028	68 00 04 00 00	 push	 1024			; 00000400H
  0002d	e8 00 00 00 00	 call	 ??2@YAPAXI@Z		; operator new
; File D:\git\src\IBK\IBK_DRFN\ProjSrc\SrcChartEx\ChartAddIn\ChartDesignPropertyAddIn\ChartDesignPropertyAddIn\ViewDesignPage2.cpp

; 22   : IMPLEMENT_DYNCREATE(CViewDesignPage2, CPropertyPage)

  00032	8b d8		 mov	 ebx, eax
; File C:\Program Files (x86)\Microsoft Visual Studio\2019\Community\VC\Tools\MSVC\14.29.30133\atlmfc\include\afx.inl

; 116  : 	{ return ::operator new(nSize); }

  00034	83 c4 04	 add	 esp, 4
; File D:\git\src\IBK\IBK_DRFN\ProjSrc\SrcChartEx\ChartAddIn\ChartDesignPropertyAddIn\ChartDesignPropertyAddIn\ViewDesignPage2.cpp

; 22   : IMPLEMENT_DYNCREATE(CViewDesignPage2, CPropertyPage)

  00037	89 5d f0	 mov	 DWORD PTR $T2[ebp], ebx
  0003a	c7 45 fc 00 00
	00 00		 mov	 DWORD PTR __$EHRec$[ebp+8], 0
  00041	85 db		 test	 ebx, ebx
  00043	0f 84 c8 01 00
	00		 je	 $LN3@CreateObje

; 24   : CViewDesignPage2::CViewDesignPage2() : CPropertyPage(CViewDesignPage2::IDD),

  00049	6a 38		 push	 56			; 00000038H
  0004b	6a 00		 push	 0
  0004d	68 85 1b 00 00	 push	 7045			; 00001b85H
  00052	8b cb		 mov	 ecx, ebx
  00054	e8 00 00 00 00	 call	 ??0CPropertyPage@@QAE@IIK@Z ; CPropertyPage::CPropertyPage

; 26   : {

  00059	8d b3 c0 00 00
	00		 lea	 esi, DWORD PTR [ebx+192]
  0005f	c6 45 fc 01	 mov	 BYTE PTR __$EHRec$[ebp+8], 1
; File C:\Program Files (x86)\Microsoft Visual Studio\2019\Community\VC\Tools\MSVC\14.29.30133\atlmfc\include\afxwin2.inl

; 622  : 	{ }

  00063	8b ce		 mov	 ecx, esi
; File D:\git\src\IBK\IBK_DRFN\ProjSrc\SrcChartEx\ChartAddIn\ChartDesignPropertyAddIn\ChartDesignPropertyAddIn\ViewDesignPage2.cpp

; 26   : {

  00065	c7 03 00 00 00
	00		 mov	 DWORD PTR [ebx], OFFSET ??_7CViewDesignPage2@@6B@
  0006b	89 75 ec	 mov	 DWORD PTR _this$[ebp], esi
; File C:\Program Files (x86)\Microsoft Visual Studio\2019\Community\VC\Tools\MSVC\14.29.30133\atlmfc\include\afxwin2.inl

; 622  : 	{ }

  0006e	e8 00 00 00 00	 call	 ??0CWnd@@QAE@XZ		; CWnd::CWnd
  00073	c7 06 00 00 00
	00		 mov	 DWORD PTR [esi], OFFSET ??_7CButton@@6B@
; File D:\git\src\IBK\IBK_DRFN\ProjSrc\SrcChartEx\ChartAddIn\ChartDesignPropertyAddIn\ChartDesignPropertyAddIn\ViewDesignPage2.cpp

; 26   : {

  00079	8d 8b 40 01 00
	00		 lea	 ecx, DWORD PTR [ebx+320]
  0007f	c6 45 fc 02	 mov	 BYTE PTR __$EHRec$[ebp+8], 2
  00083	e8 00 00 00 00	 call	 ??0CNoSystemMenuEdit@@QAE@XZ ; CNoSystemMenuEdit::CNoSystemMenuEdit
  00088	8d 8b c0 01 00
	00		 lea	 ecx, DWORD PTR [ebx+448]
  0008e	c6 45 fc 03	 mov	 BYTE PTR __$EHRec$[ebp+8], 3
  00092	e8 00 00 00 00	 call	 ??0CNoSystemMenuEdit@@QAE@XZ ; CNoSystemMenuEdit::CNoSystemMenuEdit
  00097	8d 8b 40 02 00
	00		 lea	 ecx, DWORD PTR [ebx+576]
  0009d	c6 45 fc 04	 mov	 BYTE PTR __$EHRec$[ebp+8], 4
  000a1	e8 00 00 00 00	 call	 ??0CNoSystemMenuEdit@@QAE@XZ ; CNoSystemMenuEdit::CNoSystemMenuEdit
  000a6	8d 8b c0 02 00
	00		 lea	 ecx, DWORD PTR [ebx+704]
  000ac	ff 15 00 00 00
	00		 call	 DWORD PTR __imp_??0?$CStringT@DV?$StrTraitMFC_DLL@DV?$ChTraitsCRT@D@ATL@@@@@ATL@@QAE@XZ
  000b2	8d 8b c4 02 00
	00		 lea	 ecx, DWORD PTR [ebx+708]
  000b8	ff 15 00 00 00
	00		 call	 DWORD PTR __imp_??0?$CStringT@DV?$StrTraitMFC_DLL@DV?$ChTraitsCRT@D@ATL@@@@@ATL@@QAE@XZ
  000be	8d 8b 0c 03 00
	00		 lea	 ecx, DWORD PTR [ebx+780]
  000c4	ff 15 00 00 00
	00		 call	 DWORD PTR __imp_??0?$CStringT@DV?$StrTraitMFC_DLL@DV?$ChTraitsCRT@D@ATL@@@@@ATL@@QAE@XZ

; 25   : 	FILETYPE(".cht")

  000ca	8b cb		 mov	 ecx, ebx
  000cc	c6 45 fc 08	 mov	 BYTE PTR __$EHRec$[ebp+8], 8
  000d0	68 00 00 00 00	 push	 OFFSET ??_C@_04GDCIOHAA@?4cht@
  000d5	81 c1 10 03 00
	00		 add	 ecx, 784		; 00000310H
  000db	ff 15 00 00 00
	00		 call	 DWORD PTR __imp_??0?$CStringT@DV?$StrTraitMFC_DLL@DV?$ChTraitsCRT@D@ATL@@@@@ATL@@QAE@PBD@Z

; 26   : {

  000e1	8b cb		 mov	 ecx, ebx
  000e3	c6 45 fc 09	 mov	 BYTE PTR __$EHRec$[ebp+8], 9
  000e7	8d 89 18 03 00
	00		 lea	 ecx, DWORD PTR [ecx+792]
  000ed	e8 00 00 00 00	 call	 ??0CDlgToolTip@@QAE@XZ	; CDlgToolTip::CDlgToolTip

; 27   : 	//{{AFX_DATA_INIT(CViewDesignPage2)
; 28   : 	m_strUserEnvironmentSaveFileName = _T("");

  000f2	68 00 00 00 00	 push	 OFFSET ??_C@_00CNPNBAHC@@
  000f7	8d 8b c0 02 00
	00		 lea	 ecx, DWORD PTR [ebx+704]
  000fd	c6 45 fc 0a	 mov	 BYTE PTR __$EHRec$[ebp+8], 10 ; 0000000aH
  00101	ff 15 00 00 00
	00		 call	 DWORD PTR __imp_??4?$CStringT@DV?$StrTraitMFC_DLL@DV?$ChTraitsCRT@D@ATL@@@@@ATL@@QAEAAV01@PBD@Z

; 29   : 	m_strInsertedIndicatorSaveFileName = _T("");

  00107	68 00 00 00 00	 push	 OFFSET ??_C@_00CNPNBAHC@@
  0010c	8d 8b c4 02 00
	00		 lea	 ecx, DWORD PTR [ebx+708]
  00112	ff 15 00 00 00
	00		 call	 DWORD PTR __imp_??4?$CStringT@DV?$StrTraitMFC_DLL@DV?$ChTraitsCRT@D@ATL@@@@@ATL@@QAEAAV01@PBD@Z

; 30   : 	m_nUserInsertedBlockCount = 0;

  00118	8b f3		 mov	 esi, ebx

; 31   : 	m_nRButtonMenuType = -1;
; 32   : 	m_bHide = FALSE;
; 33   : 	m_bInputRequire = FALSE;
; 34   : 	m_bChartRButtonMenu = FALSE;
; 35   : 	m_bGraphDragandDrop = FALSE;
; 36   : 	m_bUseShortKey = FALSE;
; 37   : 	m_bBlockMoveDelete = FALSE;
; 38   : 	m_bSelectTitle = FALSE;
; 39   : 	m_bSelectGraph = FALSE;
; 40   : 	m_nGraphRButtonType = -1;
; 41   : 	m_bIsEnvironmentFile = FALSE;
; 42   : 	m_bIsIndicondFile = FALSE;
; 43   : 	m_bUseSkin = FALSE;
; 44   : 	m_strSaveMapName = _T("");

  0011a	8d 8b 0c 03 00
	00		 lea	 ecx, DWORD PTR [ebx+780]
  00120	68 00 00 00 00	 push	 OFFSET ??_C@_00CNPNBAHC@@
  00125	c7 86 c8 02 00
	00 00 00 00 00	 mov	 DWORD PTR [esi+712], 0
  0012f	c7 86 cc 02 00
	00 ff ff ff ff	 mov	 DWORD PTR [esi+716], -1
  00139	c7 86 d0 02 00
	00 00 00 00 00	 mov	 DWORD PTR [esi+720], 0
  00143	c7 86 d4 02 00
	00 00 00 00 00	 mov	 DWORD PTR [esi+724], 0
  0014d	c7 86 d8 02 00
	00 00 00 00 00	 mov	 DWORD PTR [esi+728], 0
  00157	c7 86 dc 02 00
	00 00 00 00 00	 mov	 DWORD PTR [esi+732], 0
  00161	c7 86 e0 02 00
	00 00 00 00 00	 mov	 DWORD PTR [esi+736], 0
  0016b	c7 86 ec 02 00
	00 00 00 00 00	 mov	 DWORD PTR [esi+748], 0
  00175	c7 86 f0 02 00
	00 00 00 00 00	 mov	 DWORD PTR [esi+752], 0
  0017f	c7 86 f4 02 00
	00 00 00 00 00	 mov	 DWORD PTR [esi+756], 0
  00189	c7 86 fc 02 00
	00 ff ff ff ff	 mov	 DWORD PTR [esi+764], -1
  00193	c7 86 00 03 00
	00 00 00 00 00	 mov	 DWORD PTR [esi+768], 0
  0019d	c7 86 04 03 00
	00 00 00 00 00	 mov	 DWORD PTR [esi+772], 0
  001a7	c7 86 08 03 00
	00 00 00 00 00	 mov	 DWORD PTR [esi+776], 0
  001b1	ff 15 00 00 00
	00		 call	 DWORD PTR __imp_??4?$CStringT@DV?$StrTraitMFC_DLL@DV?$ChTraitsCRT@D@ATL@@@@@ATL@@QAEAAV01@PBD@Z

; 45   : 	//}}AFX_DATA_INIT
; 46   : 	m_nRButtonMenuType = 0;

  001b7	c7 86 cc 02 00
	00 00 00 00 00	 mov	 DWORD PTR [esi+716], 0

; 22   : IMPLEMENT_DYNCREATE(CViewDesignPage2, CPropertyPage)

  001c1	8b c6		 mov	 eax, esi

; 47   : 	m_bShowWarningMessageBox = TRUE;

  001c3	c7 86 e4 02 00
	00 01 00 00 00	 mov	 DWORD PTR [esi+740], 1

; 48   : 	m_bControlBlockSize = TRUE;

  001cd	c7 86 e8 02 00
	00 01 00 00 00	 mov	 DWORD PTR [esi+744], 1

; 49   : 	m_bUseScaleRButtonMenu = TRUE;

  001d7	c7 86 f8 02 00
	00 01 00 00 00	 mov	 DWORD PTR [esi+760], 1

; 50   : 	m_nGraphRButtonType = 1;

  001e1	c7 86 fc 02 00
	00 01 00 00 00	 mov	 DWORD PTR [esi+764], 1

; 51   : 
; 52   : 	// (2006/7/5 - Seung-Won, Bae) Manage Property Map for Update
; 53   : 	m_pIPropertyMap = NULL;

  001eb	c7 86 f8 03 00
	00 00 00 00 00	 mov	 DWORD PTR [esi+1016], 0

; 54   : 
; 55   : 	// (2008/1/14 - Seung-Won, Bae) for MultiLanguage.
; 56   : 	m_hOcxWnd = NULL;

  001f5	c7 86 fc 03 00
	00 00 00 00 00	 mov	 DWORD PTR [esi+1020], 0

; 22   : IMPLEMENT_DYNCREATE(CViewDesignPage2, CPropertyPage)

  001ff	8b 4d f4	 mov	 ecx, DWORD PTR __$EHRec$[ebp]
  00202	64 89 0d 00 00
	00 00		 mov	 DWORD PTR fs:0, ecx
  00209	59		 pop	 ecx
  0020a	5f		 pop	 edi
  0020b	5e		 pop	 esi
  0020c	5b		 pop	 ebx
  0020d	8b e5		 mov	 esp, ebp
  0020f	5d		 pop	 ebp
  00210	c3		 ret	 0
$LN3@CreateObje:
  00211	33 c0		 xor	 eax, eax
  00213	8b 4d f4	 mov	 ecx, DWORD PTR __$EHRec$[ebp]
  00216	64 89 0d 00 00
	00 00		 mov	 DWORD PTR fs:0, ecx
  0021d	59		 pop	 ecx
  0021e	5f		 pop	 edi
  0021f	5e		 pop	 esi
  00220	5b		 pop	 ebx
  00221	8b e5		 mov	 esp, ebp
  00223	5d		 pop	 ebp
  00224	c3		 ret	 0
_TEXT	ENDS
;	COMDAT text$x
text$x	SEGMENT
__unwindfunclet$?CreateObject@CViewDesignPage2@@SGPAVCObject@@XZ$0:
  00000	8b 45 f0	 mov	 eax, DWORD PTR $T2[ebp]
  00003	50		 push	 eax
  00004	e8 00 00 00 00	 call	 ??3CObject@@SGXPAX@Z	; CObject::operator delete
  00009	c3		 ret	 0
__unwindfunclet$?CreateObject@CViewDesignPage2@@SGPAVCObject@@XZ$1:
  0000a	8b 4d f0	 mov	 ecx, DWORD PTR $T2[ebp]
  0000d	e9 00 00 00 00	 jmp	 ??1CPropertyPage@@UAE@XZ ; CPropertyPage::~CPropertyPage
__unwindfunclet$?CreateObject@CViewDesignPage2@@SGPAVCObject@@XZ$2:
  00012	8b 4d f0	 mov	 ecx, DWORD PTR $T2[ebp]
  00015	81 c1 c0 00 00
	00		 add	 ecx, 192		; 000000c0H
  0001b	e9 00 00 00 00	 jmp	 ??1CButton@@UAE@XZ	; CButton::~CButton
__unwindfunclet$?CreateObject@CViewDesignPage2@@SGPAVCObject@@XZ$3:
  00020	8b 4d f0	 mov	 ecx, DWORD PTR $T2[ebp]
  00023	81 c1 40 01 00
	00		 add	 ecx, 320		; 00000140H
  00029	e9 00 00 00 00	 jmp	 ??1CNoSystemMenuEdit@@UAE@XZ ; CNoSystemMenuEdit::~CNoSystemMenuEdit
__unwindfunclet$?CreateObject@CViewDesignPage2@@SGPAVCObject@@XZ$4:
  0002e	8b 4d f0	 mov	 ecx, DWORD PTR $T2[ebp]
  00031	81 c1 c0 01 00
	00		 add	 ecx, 448		; 000001c0H
  00037	e9 00 00 00 00	 jmp	 ??1CNoSystemMenuEdit@@UAE@XZ ; CNoSystemMenuEdit::~CNoSystemMenuEdit
__unwindfunclet$?CreateObject@CViewDesignPage2@@SGPAVCObject@@XZ$5:
  0003c	8b 4d f0	 mov	 ecx, DWORD PTR $T2[ebp]
  0003f	81 c1 40 02 00
	00		 add	 ecx, 576		; 00000240H
  00045	e9 00 00 00 00	 jmp	 ??1CNoSystemMenuEdit@@UAE@XZ ; CNoSystemMenuEdit::~CNoSystemMenuEdit
__unwindfunclet$?CreateObject@CViewDesignPage2@@SGPAVCObject@@XZ$6:
  0004a	8b 4d f0	 mov	 ecx, DWORD PTR $T2[ebp]
  0004d	81 c1 c0 02 00
	00		 add	 ecx, 704		; 000002c0H
  00053	ff 25 00 00 00
	00		 jmp	 DWORD PTR __imp_??1?$CStringT@DV?$StrTraitMFC_DLL@DV?$ChTraitsCRT@D@ATL@@@@@ATL@@QAE@XZ
__unwindfunclet$?CreateObject@CViewDesignPage2@@SGPAVCObject@@XZ$7:
  00059	8b 4d f0	 mov	 ecx, DWORD PTR $T2[ebp]
  0005c	81 c1 c4 02 00
	00		 add	 ecx, 708		; 000002c4H
  00062	ff 25 00 00 00
	00		 jmp	 DWORD PTR __imp_??1?$CStringT@DV?$StrTraitMFC_DLL@DV?$ChTraitsCRT@D@ATL@@@@@ATL@@QAE@XZ
__unwindfunclet$?CreateObject@CViewDesignPage2@@SGPAVCObject@@XZ$8:
  00068	8b 4d f0	 mov	 ecx, DWORD PTR $T2[ebp]
  0006b	81 c1 0c 03 00
	00		 add	 ecx, 780		; 0000030cH
  00071	ff 25 00 00 00
	00		 jmp	 DWORD PTR __imp_??1?$CStringT@DV?$StrTraitMFC_DLL@DV?$ChTraitsCRT@D@ATL@@@@@ATL@@QAE@XZ
__unwindfunclet$?CreateObject@CViewDesignPage2@@SGPAVCObject@@XZ$9:
  00077	8b 4d f0	 mov	 ecx, DWORD PTR $T2[ebp]
  0007a	81 c1 10 03 00
	00		 add	 ecx, 784		; 00000310H
  00080	ff 25 00 00 00
	00		 jmp	 DWORD PTR __imp_??1?$CStringT@DV?$StrTraitMFC_DLL@DV?$ChTraitsCRT@D@ATL@@@@@ATL@@QAE@XZ
__unwindfunclet$?CreateObject@CViewDesignPage2@@SGPAVCObject@@XZ$10:
  00086	8b 4d f0	 mov	 ecx, DWORD PTR $T2[ebp]
  00089	81 c1 18 03 00
	00		 add	 ecx, 792		; 00000318H
  0008f	e9 00 00 00 00	 jmp	 ??1CDlgToolTip@@UAE@XZ	; CDlgToolTip::~CDlgToolTip
  00094	cc		 int	 3
  00095	cc		 int	 3
  00096	cc		 int	 3
  00097	cc		 int	 3
  00098	cc		 int	 3
__ehhandler$?CreateObject@CViewDesignPage2@@SGPAVCObject@@XZ:
  00099	90		 npad	 1
  0009a	90		 npad	 1
  0009b	8b 54 24 08	 mov	 edx, DWORD PTR [esp+8]
  0009f	8d 42 0c	 lea	 eax, DWORD PTR [edx+12]
  000a2	8b 4a e8	 mov	 ecx, DWORD PTR [edx-24]
  000a5	33 c8		 xor	 ecx, eax
  000a7	e8 00 00 00 00	 call	 @__security_check_cookie@4
  000ac	b8 00 00 00 00	 mov	 eax, OFFSET __ehfuncinfo$?CreateObject@CViewDesignPage2@@SGPAVCObject@@XZ
  000b1	e9 00 00 00 00	 jmp	 ___CxxFrameHandler3
text$x	ENDS
?CreateObject@CViewDesignPage2@@SGPAVCObject@@XZ ENDP	; CViewDesignPage2::CreateObject
; Function compile flags: /Ogtp
; File D:\git\src\IBK\IBK_DRFN\ProjSrc\SrcChartEx\ChartAddIn\ChartDesignPropertyAddIn\ChartDesignPropertyAddIn\ViewDesignPage2.cpp
;	COMDAT ?GetRuntimeClass@CViewDesignPage2@@UBEPAUCRuntimeClass@@XZ
_TEXT	SEGMENT
?GetRuntimeClass@CViewDesignPage2@@UBEPAUCRuntimeClass@@XZ PROC ; CViewDesignPage2::GetRuntimeClass, COMDAT
; _this$ = ecx

; 22   : IMPLEMENT_DYNCREATE(CViewDesignPage2, CPropertyPage)

  00000	b8 00 00 00 00	 mov	 eax, OFFSET ?classCViewDesignPage2@CViewDesignPage2@@2UCRuntimeClass@@B ; CViewDesignPage2::classCViewDesignPage2
  00005	c3		 ret	 0
?GetRuntimeClass@CViewDesignPage2@@UBEPAUCRuntimeClass@@XZ ENDP ; CViewDesignPage2::GetRuntimeClass
_TEXT	ENDS
; Function compile flags: /Ogtp
; File D:\git\src\IBK\IBK_DRFN\ProjSrc\SrcChartEx\ChartAddIn\ChartDesignPropertyAddIn\ChartDesignPropertyAddIn\ViewDesignPage2.cpp
;	COMDAT ?GetThisClass@CViewDesignPage2@@SGPAUCRuntimeClass@@XZ
_TEXT	SEGMENT
?GetThisClass@CViewDesignPage2@@SGPAUCRuntimeClass@@XZ PROC ; CViewDesignPage2::GetThisClass, COMDAT

; 22   : IMPLEMENT_DYNCREATE(CViewDesignPage2, CPropertyPage)

  00000	b8 00 00 00 00	 mov	 eax, OFFSET ?classCViewDesignPage2@CViewDesignPage2@@2UCRuntimeClass@@B ; CViewDesignPage2::classCViewDesignPage2
  00005	c3		 ret	 0
?GetThisClass@CViewDesignPage2@@SGPAUCRuntimeClass@@XZ ENDP ; CViewDesignPage2::GetThisClass
_TEXT	ENDS
; Function compile flags: /Ogtp
; File D:\git\src\IBK\IBK_DRFN\ProjSrc\SrcChartEx\ChartAddIn\ChartDesignPropertyAddIn\ChartDesignPropertyAddIn\ViewDesignPage2.cpp
;	COMDAT ?_GetBaseClass@CViewDesignPage2@@KGPAUCRuntimeClass@@XZ
_TEXT	SEGMENT
?_GetBaseClass@CViewDesignPage2@@KGPAUCRuntimeClass@@XZ PROC ; CViewDesignPage2::_GetBaseClass, COMDAT

; 22   : IMPLEMENT_DYNCREATE(CViewDesignPage2, CPropertyPage)

  00000	e9 00 00 00 00	 jmp	 ?GetThisClass@CPropertyPage@@SGPAUCRuntimeClass@@XZ ; CPropertyPage::GetThisClass
?_GetBaseClass@CViewDesignPage2@@KGPAUCRuntimeClass@@XZ ENDP ; CViewDesignPage2::_GetBaseClass
_TEXT	ENDS
; Function compile flags: /Ogtp
; File D:\git\src\IBK\IBK_DRFN\ProjSrc\SrcChartEx\ChartAddIn\ChartDesignPropertyAddIn\Include_Chart\Dll_Load\IMetaTable.h
; File C:\Program Files (x86)\Microsoft Visual Studio\2019\Community\VC\Tools\MSVC\14.29.30133\atlmfc\include\afxwin1.inl
; File D:\git\src\IBK\IBK_DRFN\ProjSrc\SrcChartEx\ChartAddIn\ChartDesignPropertyAddIn\Include_Chart\Dll_Load\IMetaTable.h
;	COMDAT ??1CMultiLanguageResourceSetter@@QAE@XZ
_TEXT	SEGMENT
__$EHRec$ = -12						; size = 12
??1CMultiLanguageResourceSetter@@QAE@XZ PROC		; CMultiLanguageResourceSetter::~CMultiLanguageResourceSetter, COMDAT
; _this$ = ecx

; 1036 : 	{

  00000	55		 push	 ebp
  00001	8b ec		 mov	 ebp, esp
  00003	6a ff		 push	 -1
  00005	68 00 00 00 00	 push	 __ehhandler$??1CMultiLanguageResourceSetter@@QAE@XZ
  0000a	64 a1 00 00 00
	00		 mov	 eax, DWORD PTR fs:0
  00010	50		 push	 eax
  00011	56		 push	 esi
  00012	a1 00 00 00 00	 mov	 eax, DWORD PTR ___security_cookie
  00017	33 c5		 xor	 eax, ebp
  00019	50		 push	 eax
  0001a	8d 45 f4	 lea	 eax, DWORD PTR __$EHRec$[ebp]
  0001d	64 a3 00 00 00
	00		 mov	 DWORD PTR fs:0, eax

; 1037 : 		AfxSetResourceHandle( m_hInstance);

  00023	8b 31		 mov	 esi, DWORD PTR [ecx]
; File C:\Program Files (x86)\Microsoft Visual Studio\2019\Community\VC\Tools\MSVC\14.29.30133\atlmfc\include\afxwin1.inl

; 27   : 	{ ASSERT(hInstResource != NULL); afxCurrentResourceHandle = hInstResource; }

  00025	e8 00 00 00 00	 call	 ?AfxGetModuleState@@YGPAVAFX_MODULE_STATE@@XZ ; AfxGetModuleState
  0002a	89 70 0c	 mov	 DWORD PTR [eax+12], esi
; File D:\git\src\IBK\IBK_DRFN\ProjSrc\SrcChartEx\ChartAddIn\ChartDesignPropertyAddIn\Include_Chart\Dll_Load\IMetaTable.h

; 1038 : 	}

  0002d	8b 4d f4	 mov	 ecx, DWORD PTR __$EHRec$[ebp]
  00030	64 89 0d 00 00
	00 00		 mov	 DWORD PTR fs:0, ecx
  00037	59		 pop	 ecx
  00038	5e		 pop	 esi
  00039	8b e5		 mov	 esp, ebp
  0003b	5d		 pop	 ebp
  0003c	c3		 ret	 0
  0003d	cc		 int	 3
  0003e	cc		 int	 3
  0003f	cc		 int	 3
  00040	cc		 int	 3
  00041	cc		 int	 3
_TEXT	ENDS
;	COMDAT text$x
text$x	SEGMENT
__ehhandler$??1CMultiLanguageResourceSetter@@QAE@XZ:
  00000	90		 npad	 1
  00001	90		 npad	 1
  00002	8b 54 24 08	 mov	 edx, DWORD PTR [esp+8]
  00006	8d 42 0c	 lea	 eax, DWORD PTR [edx+12]
  00009	8b 4a f8	 mov	 ecx, DWORD PTR [edx-8]
  0000c	33 c8		 xor	 ecx, eax
  0000e	e8 00 00 00 00	 call	 @__security_check_cookie@4
  00013	b8 00 00 00 00	 mov	 eax, OFFSET __ehfuncinfo$??1CMultiLanguageResourceSetter@@QAE@XZ
  00018	e9 00 00 00 00	 jmp	 ___CxxFrameHandler3
text$x	ENDS
??1CMultiLanguageResourceSetter@@QAE@XZ ENDP		; CMultiLanguageResourceSetter::~CMultiLanguageResourceSetter
; Function compile flags: /Ogtp
; File D:\git\src\IBK\IBK_DRFN\ProjSrc\SrcChartEx\ChartAddIn\ChartDesignPropertyAddIn\Include_Chart\Dll_Load\IMetaTable.h
;	COMDAT ?LoadResourceDLL@IMetaTable@@QAEPAUHINSTANCE__@@PAUHWND__@@PAU2@@Z
_TEXT	SEGMENT
_p1$ = 8						; size = 4
_p2$ = 12						; size = 4
?LoadResourceDLL@IMetaTable@@QAEPAUHINSTANCE__@@PAUHWND__@@PAU2@@Z PROC ; IMetaTable::LoadResourceDLL, COMDAT
; _this$ = ecx

; 936  : 	DECLARE_FUNCTION2(	LoadResourceDLL,				HMODULE, AfxGetStaticModuleState()->m_hCurrentInstanceHandle, HWND, HMODULE);

  00000	55		 push	 ebp
  00001	8b ec		 mov	 ebp, esp
  00003	56		 push	 esi
  00004	8b f1		 mov	 esi, ecx
  00006	8b 46 04	 mov	 eax, DWORD PTR [esi+4]
  00009	85 c0		 test	 eax, eax
  0000b	74 4d		 je	 SHORT $LN4@LoadResour
  0000d	57		 push	 edi
  0000e	bf 80 0d 00 00	 mov	 edi, 3456		; 00000d80H
  00013	66 3b be 94 00
	00 00		 cmp	 di, WORD PTR [esi+148]
  0001a	74 23		 je	 SHORT $LN3@LoadResour
  0001c	68 00 00 00 00	 push	 OFFSET ??_C@_0BA@ENJOCHIO@LoadResourceDLL@
  00021	50		 push	 eax
  00022	c7 86 90 00 00
	00 00 00 00 00	 mov	 DWORD PTR [esi+144], 0
  0002c	ff 15 00 00 00
	00		 call	 DWORD PTR __imp__GetProcAddress@8
  00032	89 86 90 00 00
	00		 mov	 DWORD PTR [esi+144], eax
  00038	66 89 be 94 00
	00 00		 mov	 WORD PTR [esi+148], di
$LN3@LoadResour:
  0003f	8b 86 90 00 00
	00		 mov	 eax, DWORD PTR [esi+144]
  00045	5f		 pop	 edi
  00046	85 c0		 test	 eax, eax
  00048	74 10		 je	 SHORT $LN4@LoadResour
  0004a	ff 75 0c	 push	 DWORD PTR _p2$[ebp]
  0004d	ff 75 08	 push	 DWORD PTR _p1$[ebp]
  00050	ff d0		 call	 eax
  00052	83 c4 08	 add	 esp, 8
  00055	5e		 pop	 esi
  00056	5d		 pop	 ebp
  00057	c2 08 00	 ret	 8
$LN4@LoadResour:
  0005a	e8 00 00 00 00	 call	 ?AfxGetStaticModuleState@@YGPAVAFX_MODULE_STATE@@XZ ; AfxGetStaticModuleState
  0005f	5e		 pop	 esi
  00060	8b 40 08	 mov	 eax, DWORD PTR [eax+8]
  00063	5d		 pop	 ebp
  00064	c2 08 00	 ret	 8
?LoadResourceDLL@IMetaTable@@QAEPAUHINSTANCE__@@PAUHWND__@@PAU2@@Z ENDP ; IMetaTable::LoadResourceDLL
_TEXT	ENDS
; Function compile flags: /Ogtp
; File C:\Program Files (x86)\Microsoft Visual Studio\2019\Community\VC\Tools\MSVC\14.29.30133\atlmfc\include\afx.inl
;	COMDAT ??_GCButton@@UAEPAXI@Z
_TEXT	SEGMENT
___flags$ = 8						; size = 4
??_GCButton@@UAEPAXI@Z PROC				; CButton::`scalar deleting destructor', COMDAT
; _this$ = ecx
  00000	55		 push	 ebp
  00001	8b ec		 mov	 ebp, esp
  00003	56		 push	 esi
  00004	8b f1		 mov	 esi, ecx
  00006	e8 00 00 00 00	 call	 ??1CButton@@UAE@XZ	; CButton::~CButton
  0000b	8b 45 08	 mov	 eax, DWORD PTR ___flags$[ebp]
  0000e	a8 01		 test	 al, 1
  00010	74 22		 je	 SHORT $LN9@scalar
  00012	a8 04		 test	 al, 4
  00014	75 10		 jne	 SHORT $LN3@scalar

; 112  : 	{ ::operator delete(p); }

  00016	56		 push	 esi
  00017	e8 00 00 00 00	 call	 ??3@YAXPAX@Z		; operator delete
  0001c	83 c4 04	 add	 esp, 4
  0001f	8b c6		 mov	 eax, esi
  00021	5e		 pop	 esi
  00022	5d		 pop	 ebp
  00023	c2 04 00	 ret	 4
$LN3@scalar:
  00026	68 80 00 00 00	 push	 128			; 00000080H
  0002b	56		 push	 esi
  0002c	e8 00 00 00 00	 call	 ?__global_delete@@YAXPAXI@Z ; __global_delete
  00031	83 c4 08	 add	 esp, 8
$LN9@scalar:
  00034	8b c6		 mov	 eax, esi
  00036	5e		 pop	 esi
  00037	5d		 pop	 ebp
  00038	c2 04 00	 ret	 4
??_GCButton@@UAEPAXI@Z ENDP				; CButton::`scalar deleting destructor'
_TEXT	ENDS
; Function compile flags: /Ogtp
; File C:\Program Files (x86)\Microsoft Visual Studio\2019\Community\VC\Tools\MSVC\14.29.30133\atlmfc\include\afxwin2.inl
;	COMDAT ?Create@CDialog@@UAEHIPAVCWnd@@@Z
_TEXT	SEGMENT
_nIDTemplate$ = 8					; size = 4
_pParentWnd$ = 12					; size = 4
?Create@CDialog@@UAEHIPAVCWnd@@@Z PROC			; CDialog::Create, COMDAT
; _this$ = ecx

; 585  : 	{ return CDialog::Create(ATL_MAKEINTRESOURCE(nIDTemplate), pParentWnd); }

  00000	55		 push	 ebp
  00001	8b ec		 mov	 ebp, esp
  00003	0f b7 45 08	 movzx	 eax, WORD PTR _nIDTemplate$[ebp]
  00007	89 45 08	 mov	 DWORD PTR _nIDTemplate$[ebp], eax
  0000a	5d		 pop	 ebp
  0000b	e9 00 00 00 00	 jmp	 ?Create@CDialog@@UAEHPBDPAVCWnd@@@Z ; CDialog::Create
?Create@CDialog@@UAEHIPAVCWnd@@@Z ENDP			; CDialog::Create
_TEXT	ENDS
; Function compile flags: /Ogtp
; File C:\Program Files (x86)\Microsoft Visual Studio\2019\Community\VC\Tools\MSVC\14.29.30133\atlmfc\include\afxwin2.inl
;	COMDAT ?EndModalState@CWnd@@UAEXXZ
_TEXT	SEGMENT
?EndModalState@CWnd@@UAEXXZ PROC			; CWnd::EndModalState, COMDAT
; _this$ = ecx

; 567  : 	{ ::EnableWindow(m_hWnd, TRUE); }

  00000	6a 01		 push	 1
  00002	ff 71 20	 push	 DWORD PTR [ecx+32]
  00005	ff 15 00 00 00
	00		 call	 DWORD PTR __imp__EnableWindow@8
  0000b	c3		 ret	 0
?EndModalState@CWnd@@UAEXXZ ENDP			; CWnd::EndModalState
_TEXT	ENDS
; Function compile flags: /Ogtp
; File C:\Program Files (x86)\Microsoft Visual Studio\2019\Community\VC\Tools\MSVC\14.29.30133\atlmfc\include\afxwin2.inl
;	COMDAT ?BeginModalState@CWnd@@UAEXXZ
_TEXT	SEGMENT
?BeginModalState@CWnd@@UAEXXZ PROC			; CWnd::BeginModalState, COMDAT
; _this$ = ecx

; 565  : 	{ ::EnableWindow(m_hWnd, FALSE); }

  00000	6a 00		 push	 0
  00002	ff 71 20	 push	 DWORD PTR [ecx+32]
  00005	ff 15 00 00 00
	00		 call	 DWORD PTR __imp__EnableWindow@8
  0000b	c3		 ret	 0
?BeginModalState@CWnd@@UAEXXZ ENDP			; CWnd::BeginModalState
_TEXT	ENDS
; Function compile flags: /Ogtp
; File C:\Program Files (x86)\Microsoft Visual Studio\2019\Community\VC\Tools\MSVC\14.29.30133\atlmfc\include\afxwin2.inl
;	COMDAT ?DoDataExchange@CWnd@@MAEXPAVCDataExchange@@@Z
_TEXT	SEGMENT
___formal$ = 8						; size = 4
?DoDataExchange@CWnd@@MAEXPAVCDataExchange@@@Z PROC	; CWnd::DoDataExchange, COMDAT
; _this$ = ecx

; 561  : 	{ } // default does nothing

  00000	c2 04 00	 ret	 4
?DoDataExchange@CWnd@@MAEXPAVCDataExchange@@@Z ENDP	; CWnd::DoDataExchange
_TEXT	ENDS
; Function compile flags: /Ogtp
; File C:\Program Files (x86)\Microsoft Visual Studio\2019\Community\VC\Tools\MSVC\14.29.30133\atlmfc\include\afx.inl
;	COMDAT ?Dump@CObject@@UBEXAAVCDumpContext@@@Z
_TEXT	SEGMENT
___formal$ = 8						; size = 4
?Dump@CObject@@UBEXAAVCDumpContext@@@Z PROC		; CObject::Dump, COMDAT
; _this$ = ecx

; 122  : 	{ /* no dumping in release builds */ }

  00000	c2 04 00	 ret	 4
?Dump@CObject@@UBEXAAVCDumpContext@@@Z ENDP		; CObject::Dump
_TEXT	ENDS
; Function compile flags: /Ogtp
; File C:\Program Files (x86)\Microsoft Visual Studio\2019\Community\VC\Tools\MSVC\14.29.30133\atlmfc\include\afx.inl
;	COMDAT ?AssertValid@CObject@@UBEXXZ
_TEXT	SEGMENT
?AssertValid@CObject@@UBEXXZ PROC			; CObject::AssertValid, COMDAT
; _this$ = ecx

; 120  : 	{ /* no asserts in release builds */ }

  00000	c2 00 00	 ret	 0
?AssertValid@CObject@@UBEXXZ ENDP			; CObject::AssertValid
_TEXT	ENDS
; Function compile flags: /Ogtp
; File C:\Program Files (x86)\Microsoft Visual Studio\2019\Community\VC\Tools\MSVC\14.29.30133\atlmfc\include\afx.inl
;	COMDAT ?Serialize@CObject@@UAEXAAVCArchive@@@Z
_TEXT	SEGMENT
___formal$ = 8						; size = 4
?Serialize@CObject@@UAEXAAVCArchive@@@Z PROC		; CObject::Serialize, COMDAT
; _this$ = ecx

; 106  : 	{ /* CObject does not serialize anything by default */ }

  00000	c2 04 00	 ret	 4
?Serialize@CObject@@UAEXAAVCArchive@@@Z ENDP		; CObject::Serialize
_TEXT	ENDS
; Function compile flags: /Ogtp
; File C:\Program Files (x86)\Microsoft Visual Studio\2019\Community\VC\Tools\MSVC\14.29.30133\atlmfc\include\afx.inl
;	COMDAT ??3CObject@@SGXPAX@Z
_TEXT	SEGMENT
_p$ = 8							; size = 4
??3CObject@@SGXPAX@Z PROC				; CObject::operator delete, COMDAT

; 112  : 	{ ::operator delete(p); }

  00000	55		 push	 ebp
  00001	8b ec		 mov	 ebp, esp
  00003	ff 75 08	 push	 DWORD PTR _p$[ebp]
  00006	e8 00 00 00 00	 call	 ??3@YAXPAX@Z		; operator delete
  0000b	83 c4 04	 add	 esp, 4
  0000e	5d		 pop	 ebp
  0000f	c2 04 00	 ret	 4
??3CObject@@SGXPAX@Z ENDP				; CObject::operator delete
_TEXT	ENDS
; Function compile flags: /Ogtp
; File D:\git\src\IBK\IBK_DRFN\ProjSrc\SrcChartEx\ChartAddIn\ChartDesignPropertyAddIn\ChartDesignPropertyAddIn\ViewDesignPage2.cpp
;	COMDAT ?__empty_global_delete@@YAXPAXI@Z
_TEXT	SEGMENT
___formal$ = 8						; size = 4
___formal$ = 12						; size = 4
?__empty_global_delete@@YAXPAXI@Z PROC			; __empty_global_delete, COMDAT

  00000	c2 00 00	 ret	 0
?__empty_global_delete@@YAXPAXI@Z ENDP			; __empty_global_delete
_TEXT	ENDS
; Function compile flags: /Ogtp
; File D:\git\src\IBK\IBK_DRFN\ProjSrc\SrcChartEx\ChartAddIn\ChartDesignPropertyAddIn\ChartDesignPropertyAddIn\ViewDesignPage2.cpp
;	COMDAT ?__empty_global_delete@@YAXPAX@Z
_TEXT	SEGMENT
___formal$ = 8						; size = 4
?__empty_global_delete@@YAXPAX@Z PROC			; __empty_global_delete, COMDAT

  00000	c2 00 00	 ret	 0
?__empty_global_delete@@YAXPAX@Z ENDP			; __empty_global_delete
_TEXT	ENDS
END
