; Listing generated by Microsoft (R) Optimizing Compiler Version 19.29.30145.0 

	TITLE	D:\git\src\IBK\IBK_DRFN\#DRfn-CS\_Obj\ChartDesignPropertyAddIn\ViewDesignPage.obj
	.686P
	.XMM
	include listing.inc
	.model	flat

INCLUDELIB MSVCRT
INCLUDELIB OLDNAMES

PUBLIC	?__empty_global_delete@@YAXPAX@Z		; __empty_global_delete
PUBLIC	?__empty_global_delete@@YAXPAXI@Z		; __empty_global_delete
PUBLIC	??3CObject@@SGXPAX@Z				; CObject::operator delete
PUBLIC	?Serialize@CObject@@UAEXAAVCArchive@@@Z		; CObject::Serialize
PUBLIC	?AssertValid@CObject@@UBEXXZ			; CObject::AssertValid
PUBLIC	?Dump@CObject@@UBEXAAVCDumpContext@@@Z		; CObject::Dump
PUBLIC	?DoDataExchange@CWnd@@MAEXPAVCDataExchange@@@Z	; CWnd::DoDataExchange
PUBLIC	?BeginModalState@CWnd@@UAEXXZ			; CWnd::BeginModalState
PUBLIC	?EndModalState@CWnd@@UAEXXZ			; CWnd::EndModalState
PUBLIC	?Create@CDialog@@UAEHIPAVCWnd@@@Z		; CDialog::Create
PUBLIC	?LoadResourceDLL@IMetaTable@@QAEPAUHINSTANCE__@@PAUHWND__@@PAU2@@Z ; IMetaTable::LoadResourceDLL
PUBLIC	??1CMultiLanguageResourceSetter@@QAE@XZ		; CMultiLanguageResourceSetter::~CMultiLanguageResourceSetter
PUBLIC	?_GetBaseClass@CViewDesignPage@@KGPAUCRuntimeClass@@XZ ; CViewDesignPage::_GetBaseClass
PUBLIC	?GetThisClass@CViewDesignPage@@SGPAUCRuntimeClass@@XZ ; CViewDesignPage::GetThisClass
PUBLIC	?GetRuntimeClass@CViewDesignPage@@UBEPAUCRuntimeClass@@XZ ; CViewDesignPage::GetRuntimeClass
PUBLIC	?CreateObject@CViewDesignPage@@SGPAVCObject@@XZ	; CViewDesignPage::CreateObject
PUBLIC	??0CViewDesignPage@@QAE@XZ			; CViewDesignPage::CViewDesignPage
PUBLIC	??1CViewDesignPage@@UAE@XZ			; CViewDesignPage::~CViewDesignPage
PUBLIC	?SetProperty@CViewDesignPage@@QAEXPAUIPropertyMap@@@Z ; CViewDesignPage::SetProperty
PUBLIC	?OnApply@CViewDesignPage@@UAEHXZ		; CViewDesignPage::OnApply
PUBLIC	?PreTranslateMessage@CViewDesignPage@@UAEHPAUtagMSG@@@Z ; CViewDesignPage::PreTranslateMessage
PUBLIC	?DoDataExchange@CViewDesignPage@@MAEXPAVCDataExchange@@@Z ; CViewDesignPage::DoDataExchange
PUBLIC	?OnInitDialog@CViewDesignPage@@MAEHXZ		; CViewDesignPage::OnInitDialog
PUBLIC	?OnDisplaytotaldata@CViewDesignPage@@IAEXXZ	; CViewDesignPage::OnDisplaytotaldata
PUBLIC	?OnChangeMindatacount@CViewDesignPage@@IAEXXZ	; CViewDesignPage::OnChangeMindatacount
PUBLIC	?OnBtnGridshapeLine@CViewDesignPage@@IAEXXZ	; CViewDesignPage::OnBtnGridshapeLine
PUBLIC	?OnBtnGridshapeCuttedline@CViewDesignPage@@IAEXXZ ; CViewDesignPage::OnBtnGridshapeCuttedline
PUBLIC	?OnBtnGridshapeDotline@CViewDesignPage@@IAEXXZ	; CViewDesignPage::OnBtnGridshapeDotline
PUBLIC	?OnBtnGridshapeNone@CViewDesignPage@@IAEXXZ	; CViewDesignPage::OnBtnGridshapeNone
PUBLIC	?GetThisMessageMap@CViewDesignPage@@KGPBUAFX_MSGMAP@@XZ ; CViewDesignPage::GetThisMessageMap
PUBLIC	?GetMessageMap@CViewDesignPage@@MBEPBUAFX_MSGMAP@@XZ ; CViewDesignPage::GetMessageMap
PUBLIC	?CreateToolTip@CViewDesignPage@@AAEXXZ		; CViewDesignPage::CreateToolTip
PUBLIC	?EnableWindow@CViewDesignPage@@AAEXH_N@Z	; CViewDesignPage::EnableWindow
PUBLIC	?SetAllGridType@CViewDesignPage@@IAEXH@Z	; CViewDesignPage::SetAllGridType
PUBLIC	?SetOcxHwnd@CViewDesignPage@@QAEXPAUHWND__@@@Z	; CViewDesignPage::SetOcxHwnd
PUBLIC	??_GCViewDesignPage@@UAEPAXI@Z			; CViewDesignPage::`scalar deleting destructor'
PUBLIC	??_C@_02DPKJAMEF@?$CFd@				; `string'
PUBLIC	??_R0?AVCObject@@@8				; CObject `RTTI Type Descriptor'
PUBLIC	??_R3CObject@@8					; CObject::`RTTI Class Hierarchy Descriptor'
PUBLIC	??_R2CObject@@8					; CObject::`RTTI Base Class Array'
PUBLIC	??_R1A@?0A@EA@CObject@@8			; CObject::`RTTI Base Class Descriptor at (0,-1,0,64)'
PUBLIC	??_R1A@?0A@EA@CWnd@@8				; CWnd::`RTTI Base Class Descriptor at (0,-1,0,64)'
PUBLIC	??_R0?AVCWnd@@@8				; CWnd `RTTI Type Descriptor'
PUBLIC	??_R3CWnd@@8					; CWnd::`RTTI Class Hierarchy Descriptor'
PUBLIC	??_R2CWnd@@8					; CWnd::`RTTI Base Class Array'
PUBLIC	??_R1A@?0A@EA@CCmdTarget@@8			; CCmdTarget::`RTTI Base Class Descriptor at (0,-1,0,64)'
PUBLIC	??_R0?AVCCmdTarget@@@8				; CCmdTarget `RTTI Type Descriptor'
PUBLIC	??_R3CCmdTarget@@8				; CCmdTarget::`RTTI Class Hierarchy Descriptor'
PUBLIC	??_R2CCmdTarget@@8				; CCmdTarget::`RTTI Base Class Array'
PUBLIC	??_R1A@?0A@EA@CDialog@@8			; CDialog::`RTTI Base Class Descriptor at (0,-1,0,64)'
PUBLIC	??_R0?AVCDialog@@@8				; CDialog `RTTI Type Descriptor'
PUBLIC	??_R3CDialog@@8					; CDialog::`RTTI Class Hierarchy Descriptor'
PUBLIC	??_R2CDialog@@8					; CDialog::`RTTI Base Class Array'
PUBLIC	??_C@_0BA@ENJOCHIO@LoadResourceDLL@		; `string'
PUBLIC	?classCViewDesignPage@CViewDesignPage@@2UCRuntimeClass@@B ; CViewDesignPage::classCViewDesignPage
PUBLIC	??_7CViewDesignPage@@6B@			; CViewDesignPage::`vftable'
PUBLIC	??_C@_01HIHLOKLC@1@				; `string'
PUBLIC	??_C@_0BA@BMLFFHEP@CViewDesignPage@		; `string'
PUBLIC	??_C@_01GBGANLPD@0@				; `string'
PUBLIC	??_R4CViewDesignPage@@6B@			; CViewDesignPage::`RTTI Complete Object Locator'
PUBLIC	??_R0?AVCViewDesignPage@@@8			; CViewDesignPage `RTTI Type Descriptor'
PUBLIC	??_R3CViewDesignPage@@8				; CViewDesignPage::`RTTI Class Hierarchy Descriptor'
PUBLIC	??_R2CViewDesignPage@@8				; CViewDesignPage::`RTTI Base Class Array'
PUBLIC	??_R1A@?0A@EA@CViewDesignPage@@8		; CViewDesignPage::`RTTI Base Class Descriptor at (0,-1,0,64)'
PUBLIC	??_R1A@?0A@EA@CPropertyPage@@8			; CPropertyPage::`RTTI Base Class Descriptor at (0,-1,0,64)'
PUBLIC	??_R0?AVCPropertyPage@@@8			; CPropertyPage `RTTI Type Descriptor'
PUBLIC	??_R3CPropertyPage@@8				; CPropertyPage::`RTTI Class Hierarchy Descriptor'
PUBLIC	??_R2CPropertyPage@@8				; CPropertyPage::`RTTI Base Class Array'
EXTRN	??2@YAPAXI@Z:PROC				; operator new
EXTRN	??3@YAXPAX@Z:PROC				; operator delete
EXTRN	?__global_delete@@YAXPAXI@Z:PROC		; __global_delete
EXTRN	___std_terminate:PROC
EXTRN	__imp__GetProcAddress@8:PROC
EXTRN	__imp__EnableWindow@8:PROC
EXTRN	__imp__ScreenToClient@8:PROC
EXTRN	__imp__GetParent@4:PROC
EXTRN	__imp__atoi:PROC
EXTRN	__imp_??0?$CStringT@DV?$StrTraitMFC_DLL@DV?$ChTraitsCRT@D@ATL@@@@@ATL@@QAE@XZ:PROC
EXTRN	__imp_??1?$CStringT@DV?$StrTraitMFC_DLL@DV?$ChTraitsCRT@D@ATL@@@@@ATL@@QAE@XZ:PROC
EXTRN	__imp_?Format@?$CStringT@DV?$StrTraitMFC_DLL@DV?$ChTraitsCRT@D@ATL@@@@@ATL@@QAAXPBDZZ:PROC
EXTRN	__imp_?LoadStringA@?$CStringT@DV?$StrTraitMFC_DLL@DV?$ChTraitsCRT@D@ATL@@@@@ATL@@QAEHI@Z:PROC
EXTRN	??0CDWordArray@@QAE@XZ:PROC			; CDWordArray::CDWordArray
EXTRN	?SetSize@CDWordArray@@QAEXHH@Z:PROC		; CDWordArray::SetSize
EXTRN	?SetAtGrow@CDWordArray@@QAEXHK@Z:PROC		; CDWordArray::SetAtGrow
EXTRN	??1CDWordArray@@UAE@XZ:PROC			; CDWordArray::~CDWordArray
EXTRN	?AfxGetModuleState@@YGPAVAFX_MODULE_STATE@@XZ:PROC ; AfxGetModuleState
EXTRN	?AfxGetStaticModuleState@@YGPAVAFX_MODULE_STATE@@XZ:PROC ; AfxGetStaticModuleState
EXTRN	?DDX_Text@@YGXPAVCDataExchange@@HAAH@Z:PROC	; DDX_Text
EXTRN	?DDX_Check@@YGXPAVCDataExchange@@HAAH@Z:PROC	; DDX_Check
EXTRN	?DDX_Radio@@YGXPAVCDataExchange@@HAAH@Z:PROC	; DDX_Radio
EXTRN	?DDX_Control@@YGXPAVCDataExchange@@HAAVCWnd@@@Z:PROC ; DDX_Control
EXTRN	?DDV_MinMaxInt@@YGXPAVCDataExchange@@HHH@Z:PROC	; DDV_MinMaxInt
EXTRN	?IsInvokeAllowed@CCmdTarget@@UAEHJ@Z:PROC	; CCmdTarget::IsInvokeAllowed
EXTRN	?GetDispatchIID@CCmdTarget@@UAEHPAU_GUID@@@Z:PROC ; CCmdTarget::GetDispatchIID
EXTRN	?GetTypeInfoCount@CCmdTarget@@UAEIXZ:PROC	; CCmdTarget::GetTypeInfoCount
EXTRN	?GetTypeLibCache@CCmdTarget@@UAEPAVCTypeLibCache@@XZ:PROC ; CCmdTarget::GetTypeLibCache
EXTRN	?GetTypeLib@CCmdTarget@@UAEJKPAPAUITypeLib@@@Z:PROC ; CCmdTarget::GetTypeLib
EXTRN	?GetCommandMap@CCmdTarget@@MBEPBUAFX_OLECMDMAP@@XZ:PROC ; CCmdTarget::GetCommandMap
EXTRN	?GetDispatchMap@CCmdTarget@@MBEPBUAFX_DISPMAP@@XZ:PROC ; CCmdTarget::GetDispatchMap
EXTRN	?GetConnectionMap@CCmdTarget@@MBEPBUAFX_CONNECTIONMAP@@XZ:PROC ; CCmdTarget::GetConnectionMap
EXTRN	?GetEventSinkMap@CCmdTarget@@MBEPBUAFX_EVENTSINKMAP@@XZ:PROC ; CCmdTarget::GetEventSinkMap
EXTRN	?OnCreateAggregates@CCmdTarget@@UAEHXZ:PROC	; CCmdTarget::OnCreateAggregates
EXTRN	?GetInterfaceHook@CCmdTarget@@UAEPAUIUnknown@@PBX@Z:PROC ; CCmdTarget::GetInterfaceHook
EXTRN	?GetExtraConnectionPoints@CCmdTarget@@MAEHPAVCPtrArray@@@Z:PROC ; CCmdTarget::GetExtraConnectionPoints
EXTRN	?GetConnectionHook@CCmdTarget@@MAEPAUIConnectionPoint@@ABU_GUID@@@Z:PROC ; CCmdTarget::GetConnectionHook
EXTRN	?FromHandle@CWnd@@SGPAV1@PAUHWND__@@@Z:PROC	; CWnd::FromHandle
EXTRN	?PreSubclassWindow@CWnd@@UAEXXZ:PROC		; CWnd::PreSubclassWindow
EXTRN	?Create@CWnd@@UAEHPBD0KABUtagRECT@@PAV1@IPAUCCreateContext@@@Z:PROC ; CWnd::Create
EXTRN	?CreateEx@CWnd@@UAEHKPBD0KHHHHPAUHWND__@@PAUHMENU__@@PAX@Z:PROC ; CWnd::CreateEx
EXTRN	?CreateEx@CWnd@@UAEHKPBD0KABUtagRECT@@PAV1@IPAX@Z:PROC ; CWnd::CreateEx
EXTRN	?DestroyWindow@CWnd@@UAEHXZ:PROC		; CWnd::DestroyWindow
EXTRN	?PreCreateWindow@CWnd@@UAEHAAUtagCREATESTRUCTA@@@Z:PROC ; CWnd::PreCreateWindow
EXTRN	?CalcWindowRect@CWnd@@UAEXPAUtagRECT@@I@Z:PROC	; CWnd::CalcWindowRect
EXTRN	?GetDlgItem@CWnd@@QBEPAV1@H@Z:PROC		; CWnd::GetDlgItem
EXTRN	?GetWindowTextA@CWnd@@QBEXAAV?$CStringT@DV?$StrTraitMFC_DLL@DV?$ChTraitsCRT@D@ATL@@@@@ATL@@@Z:PROC ; CWnd::GetWindowTextA
EXTRN	?GetMenu@CWnd@@UBEPAVCMenu@@XZ:PROC		; CWnd::GetMenu
EXTRN	?SetMenu@CWnd@@UAEHPAVCMenu@@@Z:PROC		; CWnd::SetMenu
EXTRN	?OnToolHitTest@CWnd@@UBEHVCPoint@@PAUtagTOOLINFOA@@@Z:PROC ; CWnd::OnToolHitTest
EXTRN	?EnableWindow@CWnd@@QAEHH@Z:PROC		; CWnd::EnableWindow
EXTRN	?GetScrollBarCtrl@CWnd@@UBEPAVCScrollBar@@H@Z:PROC ; CWnd::GetScrollBarCtrl
EXTRN	?MessageBoxA@CWnd@@QAEHPBD0I@Z:PROC		; CWnd::MessageBoxA
EXTRN	?UpdateData@CWnd@@QAEHH@Z:PROC			; CWnd::UpdateData
EXTRN	?WinHelpA@CWnd@@UAEXKI@Z:PROC			; CWnd::WinHelpA
EXTRN	?HtmlHelpA@CWnd@@UAEXKI@Z:PROC			; CWnd::HtmlHelpA
EXTRN	?WinHelpInternal@CWnd@@UAEXKI@Z:PROC		; CWnd::WinHelpInternal
EXTRN	?ContinueModal@CWnd@@UAEHXZ:PROC		; CWnd::ContinueModal
EXTRN	?EndModalLoop@CWnd@@UAEXH@Z:PROC		; CWnd::EndModalLoop
EXTRN	?OnDrawIconicThumbnailOrLivePreview@CWnd@@UAEXAAVCDC@@VCRect@@VCSize@@HAAH@Z:PROC ; CWnd::OnDrawIconicThumbnailOrLivePreview
EXTRN	?GetInterfaceMap@CWnd@@MBEPBUAFX_INTERFACEMAP@@XZ:PROC ; CWnd::GetInterfaceMap
EXTRN	?EnsureStdObj@CWnd@@UAEJXZ:PROC			; CWnd::EnsureStdObj
EXTRN	?get_accParent@CWnd@@UAEJPAPAUIDispatch@@@Z:PROC ; CWnd::get_accParent
EXTRN	?get_accChildCount@CWnd@@UAEJPAJ@Z:PROC		; CWnd::get_accChildCount
EXTRN	?get_accChild@CWnd@@UAEJUtagVARIANT@@PAPAUIDispatch@@@Z:PROC ; CWnd::get_accChild
EXTRN	?get_accName@CWnd@@UAEJUtagVARIANT@@PAPA_W@Z:PROC ; CWnd::get_accName
EXTRN	?get_accValue@CWnd@@UAEJUtagVARIANT@@PAPA_W@Z:PROC ; CWnd::get_accValue
EXTRN	?get_accDescription@CWnd@@UAEJUtagVARIANT@@PAPA_W@Z:PROC ; CWnd::get_accDescription
EXTRN	?get_accRole@CWnd@@UAEJUtagVARIANT@@PAU2@@Z:PROC ; CWnd::get_accRole
EXTRN	?get_accState@CWnd@@UAEJUtagVARIANT@@PAU2@@Z:PROC ; CWnd::get_accState
EXTRN	?get_accHelp@CWnd@@UAEJUtagVARIANT@@PAPA_W@Z:PROC ; CWnd::get_accHelp
EXTRN	?get_accHelpTopic@CWnd@@UAEJPAPA_WUtagVARIANT@@PAJ@Z:PROC ; CWnd::get_accHelpTopic
EXTRN	?get_accKeyboardShortcut@CWnd@@UAEJUtagVARIANT@@PAPA_W@Z:PROC ; CWnd::get_accKeyboardShortcut
EXTRN	?get_accFocus@CWnd@@UAEJPAUtagVARIANT@@@Z:PROC	; CWnd::get_accFocus
EXTRN	?get_accSelection@CWnd@@UAEJPAUtagVARIANT@@@Z:PROC ; CWnd::get_accSelection
EXTRN	?get_accDefaultAction@CWnd@@UAEJUtagVARIANT@@PAPA_W@Z:PROC ; CWnd::get_accDefaultAction
EXTRN	?accSelect@CWnd@@UAEJJUtagVARIANT@@@Z:PROC	; CWnd::accSelect
EXTRN	?accLocation@CWnd@@UAEJPAJ000UtagVARIANT@@@Z:PROC ; CWnd::accLocation
EXTRN	?accNavigate@CWnd@@UAEJJUtagVARIANT@@PAU2@@Z:PROC ; CWnd::accNavigate
EXTRN	?accHitTest@CWnd@@UAEJJJPAUtagVARIANT@@@Z:PROC	; CWnd::accHitTest
EXTRN	?accDoDefaultAction@CWnd@@UAEJUtagVARIANT@@@Z:PROC ; CWnd::accDoDefaultAction
EXTRN	?put_accName@CWnd@@UAEJUtagVARIANT@@PA_W@Z:PROC	; CWnd::put_accName
EXTRN	?put_accValue@CWnd@@UAEJUtagVARIANT@@PA_W@Z:PROC ; CWnd::put_accValue
EXTRN	?SetProxy@CWnd@@UAEJPAUIAccessibleProxy@@@Z:PROC ; CWnd::SetProxy
EXTRN	?CreateAccessibleProxy@CWnd@@UAEJIJPAJ@Z:PROC	; CWnd::CreateAccessibleProxy
EXTRN	?OnCommand@CWnd@@MAEHIJ@Z:PROC			; CWnd::OnCommand
EXTRN	?GetSuperWndProcAddr@CWnd@@MAEPAP6GJPAUHWND__@@IIJ@ZXZ:PROC ; CWnd::GetSuperWndProcAddr
EXTRN	?OnAmbientProperty@CWnd@@UAEHPAVCOleControlSite@@JPAUtagVARIANT@@@Z:PROC ; CWnd::OnAmbientProperty
EXTRN	?WindowProc@CWnd@@MAEJIIJ@Z:PROC		; CWnd::WindowProc
EXTRN	?OnWndMsg@CWnd@@MAEHIIJPAJ@Z:PROC		; CWnd::OnWndMsg
EXTRN	?DefWindowProcA@CWnd@@MAEJIIJ@Z:PROC		; CWnd::DefWindowProcA
EXTRN	?PostNcDestroy@CWnd@@MAEXXZ:PROC		; CWnd::PostNcDestroy
EXTRN	?OnChildNotify@CWnd@@MAEHIIJPAJ@Z:PROC		; CWnd::OnChildNotify
EXTRN	?OnTouchInputs@CWnd@@MAEHIPAUtagTOUCHINPUT@@@Z:PROC ; CWnd::OnTouchInputs
EXTRN	?OnTouchInput@CWnd@@MAEHVCPoint@@HHPAUtagTOUCHINPUT@@@Z:PROC ; CWnd::OnTouchInput
EXTRN	?GetGestureStatus@CWnd@@MAEKVCPoint@@@Z:PROC	; CWnd::GetGestureStatus
EXTRN	?OnGestureZoom@CWnd@@MAEHVCPoint@@J@Z:PROC	; CWnd::OnGestureZoom
EXTRN	?OnGesturePan@CWnd@@MAEHVCPoint@@0@Z:PROC	; CWnd::OnGesturePan
EXTRN	?OnGestureRotate@CWnd@@MAEHVCPoint@@N@Z:PROC	; CWnd::OnGestureRotate
EXTRN	?OnGestureTwoFingerTap@CWnd@@MAEHVCPoint@@@Z:PROC ; CWnd::OnGestureTwoFingerTap
EXTRN	?OnGesturePressAndTap@CWnd@@MAEHVCPoint@@J@Z:PROC ; CWnd::OnGesturePressAndTap
EXTRN	?ResizeDynamicLayout@CWnd@@MAEXXZ:PROC		; CWnd::ResizeDynamicLayout
EXTRN	?IsFrameWnd@CWnd@@UBEHXZ:PROC			; CWnd::IsFrameWnd
EXTRN	?OnFinalRelease@CWnd@@UAEXXZ:PROC		; CWnd::OnFinalRelease
EXTRN	?CreateControlContainer@CWnd@@MAEHPAPAVCOleControlContainer@@@Z:PROC ; CWnd::CreateControlContainer
EXTRN	?CreateControlSite@CWnd@@MAEHPAVCOleControlContainer@@PAPAVCOleControlSite@@IABU_GUID@@@Z:PROC ; CWnd::CreateControlSite
EXTRN	?Create@CDialog@@UAEHPBDPAVCWnd@@@Z:PROC	; CDialog::Create
EXTRN	?CreateIndirect@CDialog@@UAEHPBUDLGTEMPLATE@@PAVCWnd@@PAX@Z:PROC ; CDialog::CreateIndirect
EXTRN	?CreateIndirect@CDialog@@UAEHPAXPAVCWnd@@@Z:PROC ; CDialog::CreateIndirect
EXTRN	?DoModal@CDialog@@UAEHXZ:PROC			; CDialog::DoModal
EXTRN	?OnInitDialog@CDialog@@UAEHXZ:PROC		; CDialog::OnInitDialog
EXTRN	?OnSetFont@CDialog@@UAEXPAVCFont@@@Z:PROC	; CDialog::OnSetFont
EXTRN	?OnCmdMsg@CDialog@@UAEHIHPAXPAUAFX_CMDHANDLERINFO@@@Z:PROC ; CDialog::OnCmdMsg
EXTRN	?CheckAutoCenter@CDialog@@UAEHXZ:PROC		; CDialog::CheckAutoCenter
EXTRN	?SetOccDialogInfo@CDialog@@MAEHPAU_AFX_OCC_DIALOG_INFO@@@Z:PROC ; CDialog::SetOccDialogInfo
EXTRN	?GetOccDialogInfo@CDialog@@MAEPAU_AFX_OCC_DIALOG_INFO@@XZ:PROC ; CDialog::GetOccDialogInfo
EXTRN	?PreInitDialog@CDialog@@MAEXXZ:PROC		; CDialog::PreInitDialog
EXTRN	?AfxMessageBox@@YGHPBDII@Z:PROC			; AfxMessageBox
EXTRN	?GetThisClass@CPropertyPage@@SGPAUCRuntimeClass@@XZ:PROC ; CPropertyPage::GetThisClass
EXTRN	??0CPropertyPage@@QAE@IIK@Z:PROC		; CPropertyPage::CPropertyPage
EXTRN	?OnApply@CPropertyPage@@UAEHXZ:PROC		; CPropertyPage::OnApply
EXTRN	?OnReset@CPropertyPage@@UAEXXZ:PROC		; CPropertyPage::OnReset
EXTRN	?OnOK@CPropertyPage@@UAEXXZ:PROC		; CPropertyPage::OnOK
EXTRN	?OnCancel@CPropertyPage@@UAEXXZ:PROC		; CPropertyPage::OnCancel
EXTRN	?OnSetActive@CPropertyPage@@UAEHXZ:PROC		; CPropertyPage::OnSetActive
EXTRN	?OnKillActive@CPropertyPage@@UAEHXZ:PROC	; CPropertyPage::OnKillActive
EXTRN	?OnQueryCancel@CPropertyPage@@UAEHXZ:PROC	; CPropertyPage::OnQueryCancel
EXTRN	?OnWizardBack@CPropertyPage@@UAEJXZ:PROC	; CPropertyPage::OnWizardBack
EXTRN	?OnWizardNext@CPropertyPage@@UAEJXZ:PROC	; CPropertyPage::OnWizardNext
EXTRN	?OnWizardFinish@CPropertyPage@@UAEHXZ:PROC	; CPropertyPage::OnWizardFinish
EXTRN	?OnWizardFinishEx@CPropertyPage@@UAEPAUHWND__@@XZ:PROC ; CPropertyPage::OnWizardFinishEx
EXTRN	?GetParentSheet@CPropertyPage@@UAEPAVCPropertySheet@@XZ:PROC ; CPropertyPage::GetParentSheet
EXTRN	??1CPropertyPage@@UAE@XZ:PROC			; CPropertyPage::~CPropertyPage
EXTRN	?OnNotify@CPropertyPage@@MAEHIJPAJ@Z:PROC	; CPropertyPage::OnNotify
EXTRN	?PreTranslateMessage@CPropertyPage@@MAEHPAUtagMSG@@@Z:PROC ; CPropertyPage::PreTranslateMessage
EXTRN	?GetThisMessageMap@CPropertyPage@@KGPBUAFX_MSGMAP@@XZ:PROC ; CPropertyPage::GetThisMessageMap
EXTRN	??0CDlgToolTip@@QAE@XZ:PROC			; CDlgToolTip::CDlgToolTip
EXTRN	?HideToolTip@CDlgToolTip@@QAEXAAVCPoint@@@Z:PROC ; CDlgToolTip::HideToolTip
EXTRN	??1CDlgToolTip@@UAE@XZ:PROC			; CDlgToolTip::~CDlgToolTip
EXTRN	?Create@CDlgToolTip@@QAEXPAVCWnd@@@Z:PROC	; CDlgToolTip::Create
EXTRN	?ShowToolTip@CDlgToolTip@@QAEXAAVCPoint@@@Z:PROC ; CDlgToolTip::ShowToolTip
EXTRN	?AddControlInfo@CDlgToolTip@@QAEHIAAVCDWordArray@@KK@Z:PROC ; CDlgToolTip::AddControlInfo
EXTRN	??0CNoSystemMenuEdit@@QAE@XZ:PROC		; CNoSystemMenuEdit::CNoSystemMenuEdit
EXTRN	??1CNoSystemMenuEdit@@UAE@XZ:PROC		; CNoSystemMenuEdit::~CNoSystemMenuEdit
EXTRN	??_ECViewDesignPage@@UAEPAXI@Z:PROC		; CViewDesignPage::`vector deleting destructor'
EXTRN	?SetScaleCompartTypeToAllBlocks@CMyTreeCtrl@@QAEXH@Z:PROC ; CMyTreeCtrl::SetScaleCompartTypeToAllBlocks
EXTRN	@__security_check_cookie@4:PROC
EXTRN	___CxxFrameHandler3:PROC
EXTRN	??_7type_info@@6B@:QWORD			; type_info::`vftable'
EXTRN	?g_iMetaTable@@3VIMetaTable@@A:BYTE		; g_iMetaTable
EXTRN	?g_anPropertyShortKey@@3PAPADA:BYTE		; g_anPropertyShortKey
EXTRN	___security_cookie:DWORD
;	COMDAT ??_R2CPropertyPage@@8
rdata$r	SEGMENT
??_R2CPropertyPage@@8 DD FLAT:??_R1A@?0A@EA@CPropertyPage@@8 ; CPropertyPage::`RTTI Base Class Array'
	DD	FLAT:??_R1A@?0A@EA@CDialog@@8
	DD	FLAT:??_R1A@?0A@EA@CWnd@@8
	DD	FLAT:??_R1A@?0A@EA@CCmdTarget@@8
	DD	FLAT:??_R1A@?0A@EA@CObject@@8
rdata$r	ENDS
;	COMDAT ??_R3CPropertyPage@@8
rdata$r	SEGMENT
??_R3CPropertyPage@@8 DD 00H				; CPropertyPage::`RTTI Class Hierarchy Descriptor'
	DD	00H
	DD	05H
	DD	FLAT:??_R2CPropertyPage@@8
rdata$r	ENDS
;	COMDAT ??_R0?AVCPropertyPage@@@8
data$rs	SEGMENT
??_R0?AVCPropertyPage@@@8 DD FLAT:??_7type_info@@6B@	; CPropertyPage `RTTI Type Descriptor'
	DD	00H
	DB	'.?AVCPropertyPage@@', 00H
data$rs	ENDS
;	COMDAT ??_R1A@?0A@EA@CPropertyPage@@8
rdata$r	SEGMENT
??_R1A@?0A@EA@CPropertyPage@@8 DD FLAT:??_R0?AVCPropertyPage@@@8 ; CPropertyPage::`RTTI Base Class Descriptor at (0,-1,0,64)'
	DD	04H
	DD	00H
	DD	0ffffffffH
	DD	00H
	DD	040H
	DD	FLAT:??_R3CPropertyPage@@8
rdata$r	ENDS
;	COMDAT ??_R1A@?0A@EA@CViewDesignPage@@8
rdata$r	SEGMENT
??_R1A@?0A@EA@CViewDesignPage@@8 DD FLAT:??_R0?AVCViewDesignPage@@@8 ; CViewDesignPage::`RTTI Base Class Descriptor at (0,-1,0,64)'
	DD	05H
	DD	00H
	DD	0ffffffffH
	DD	00H
	DD	040H
	DD	FLAT:??_R3CViewDesignPage@@8
rdata$r	ENDS
;	COMDAT ??_R2CViewDesignPage@@8
rdata$r	SEGMENT
??_R2CViewDesignPage@@8 DD FLAT:??_R1A@?0A@EA@CViewDesignPage@@8 ; CViewDesignPage::`RTTI Base Class Array'
	DD	FLAT:??_R1A@?0A@EA@CPropertyPage@@8
	DD	FLAT:??_R1A@?0A@EA@CDialog@@8
	DD	FLAT:??_R1A@?0A@EA@CWnd@@8
	DD	FLAT:??_R1A@?0A@EA@CCmdTarget@@8
	DD	FLAT:??_R1A@?0A@EA@CObject@@8
rdata$r	ENDS
;	COMDAT ??_R3CViewDesignPage@@8
rdata$r	SEGMENT
??_R3CViewDesignPage@@8 DD 00H				; CViewDesignPage::`RTTI Class Hierarchy Descriptor'
	DD	00H
	DD	06H
	DD	FLAT:??_R2CViewDesignPage@@8
rdata$r	ENDS
;	COMDAT ??_R0?AVCViewDesignPage@@@8
data$rs	SEGMENT
??_R0?AVCViewDesignPage@@@8 DD FLAT:??_7type_info@@6B@	; CViewDesignPage `RTTI Type Descriptor'
	DD	00H
	DB	'.?AVCViewDesignPage@@', 00H
data$rs	ENDS
;	COMDAT ??_R4CViewDesignPage@@6B@
rdata$r	SEGMENT
??_R4CViewDesignPage@@6B@ DD 00H			; CViewDesignPage::`RTTI Complete Object Locator'
	DD	00H
	DD	00H
	DD	FLAT:??_R0?AVCViewDesignPage@@@8
	DD	FLAT:??_R3CViewDesignPage@@8
rdata$r	ENDS
;	COMDAT ??_C@_01GBGANLPD@0@
CONST	SEGMENT
??_C@_01GBGANLPD@0@ DB '0', 00H				; `string'
CONST	ENDS
;	COMDAT ?messageMap@?1??GetThisMessageMap@CViewDesignPage@@KGPBUAFX_MSGMAP@@XZ@4U3@B
CONST	SEGMENT
?messageMap@?1??GetThisMessageMap@CViewDesignPage@@KGPBUAFX_MSGMAP@@XZ@4U3@B DD FLAT:?GetThisMessageMap@CPropertyPage@@KGPBUAFX_MSGMAP@@XZ ; `CViewDesignPage::GetThisMessageMap'::`2'::messageMap
	DD	FLAT:?_messageEntries@?1??GetThisMessageMap@CViewDesignPage@@KGPBUAFX_MSGMAP@@XZ@4QBUAFX_MSGMAP_ENTRY@@B
CONST	ENDS
;	COMDAT ?_messageEntries@?1??GetThisMessageMap@CViewDesignPage@@KGPBUAFX_MSGMAP@@XZ@4QBUAFX_MSGMAP_ENTRY@@B
CONST	SEGMENT
?_messageEntries@?1??GetThisMessageMap@CViewDesignPage@@KGPBUAFX_MSGMAP@@XZ@4QBUAFX_MSGMAP_ENTRY@@B DD 0111H ; `CViewDesignPage::GetThisMessageMap'::`2'::_messageEntries
	DD	00H
	DD	01b66H
	DD	01b66H
	DD	03aH
	DD	FLAT:?OnDisplaytotaldata@CViewDesignPage@@IAEXXZ
	DD	0111H
	DD	0300H
	DD	01b68H
	DD	01b68H
	DD	03aH
	DD	FLAT:?OnChangeMindatacount@CViewDesignPage@@IAEXXZ
	DD	0111H
	DD	00H
	DD	07daH
	DD	07daH
	DD	03aH
	DD	FLAT:?OnBtnGridshapeLine@CViewDesignPage@@IAEXXZ
	DD	0111H
	DD	00H
	DD	07dbH
	DD	07dbH
	DD	03aH
	DD	FLAT:?OnBtnGridshapeCuttedline@CViewDesignPage@@IAEXXZ
	DD	0111H
	DD	00H
	DD	07dcH
	DD	07dcH
	DD	03aH
	DD	FLAT:?OnBtnGridshapeDotline@CViewDesignPage@@IAEXXZ
	DD	0111H
	DD	00H
	DD	07ddH
	DD	07ddH
	DD	03aH
	DD	FLAT:?OnBtnGridshapeNone@CViewDesignPage@@IAEXXZ
	DD	00H
	DD	00H
	DD	00H
	DD	00H
	DD	00H
	DD	00H
CONST	ENDS
;	COMDAT ??_C@_0BA@BMLFFHEP@CViewDesignPage@
CONST	SEGMENT
??_C@_0BA@BMLFFHEP@CViewDesignPage@ DB 'CViewDesignPage', 00H ; `string'
CONST	ENDS
;	COMDAT ??_C@_01HIHLOKLC@1@
CONST	SEGMENT
??_C@_01HIHLOKLC@1@ DB '1', 00H				; `string'
CONST	ENDS
;	COMDAT ??_7CViewDesignPage@@6B@
CONST	SEGMENT
??_7CViewDesignPage@@6B@ DD FLAT:??_R4CViewDesignPage@@6B@ ; CViewDesignPage::`vftable'
	DD	FLAT:?GetRuntimeClass@CViewDesignPage@@UBEPAUCRuntimeClass@@XZ
	DD	FLAT:??_ECViewDesignPage@@UAEPAXI@Z
	DD	FLAT:?Serialize@CObject@@UAEXAAVCArchive@@@Z
	DD	FLAT:?AssertValid@CObject@@UBEXXZ
	DD	FLAT:?Dump@CObject@@UBEXAAVCDumpContext@@@Z
	DD	FLAT:?OnCmdMsg@CDialog@@UAEHIHPAXPAUAFX_CMDHANDLERINFO@@@Z
	DD	FLAT:?OnFinalRelease@CWnd@@UAEXXZ
	DD	FLAT:?IsInvokeAllowed@CCmdTarget@@UAEHJ@Z
	DD	FLAT:?GetDispatchIID@CCmdTarget@@UAEHPAU_GUID@@@Z
	DD	FLAT:?GetTypeInfoCount@CCmdTarget@@UAEIXZ
	DD	FLAT:?GetTypeLibCache@CCmdTarget@@UAEPAVCTypeLibCache@@XZ
	DD	FLAT:?GetTypeLib@CCmdTarget@@UAEJKPAPAUITypeLib@@@Z
	DD	FLAT:?GetMessageMap@CViewDesignPage@@MBEPBUAFX_MSGMAP@@XZ
	DD	FLAT:?GetCommandMap@CCmdTarget@@MBEPBUAFX_OLECMDMAP@@XZ
	DD	FLAT:?GetDispatchMap@CCmdTarget@@MBEPBUAFX_DISPMAP@@XZ
	DD	FLAT:?GetConnectionMap@CCmdTarget@@MBEPBUAFX_CONNECTIONMAP@@XZ
	DD	FLAT:?GetInterfaceMap@CWnd@@MBEPBUAFX_INTERFACEMAP@@XZ
	DD	FLAT:?GetEventSinkMap@CCmdTarget@@MBEPBUAFX_EVENTSINKMAP@@XZ
	DD	FLAT:?OnCreateAggregates@CCmdTarget@@UAEHXZ
	DD	FLAT:?GetInterfaceHook@CCmdTarget@@UAEPAUIUnknown@@PBX@Z
	DD	FLAT:?GetExtraConnectionPoints@CCmdTarget@@MAEHPAVCPtrArray@@@Z
	DD	FLAT:?GetConnectionHook@CCmdTarget@@MAEPAUIConnectionPoint@@ABU_GUID@@@Z
	DD	FLAT:?PreSubclassWindow@CWnd@@UAEXXZ
	DD	FLAT:?Create@CWnd@@UAEHPBD0KABUtagRECT@@PAV1@IPAUCCreateContext@@@Z
	DD	FLAT:?CreateEx@CWnd@@UAEHKPBD0KABUtagRECT@@PAV1@IPAX@Z
	DD	FLAT:?CreateEx@CWnd@@UAEHKPBD0KHHHHPAUHWND__@@PAUHMENU__@@PAX@Z
	DD	FLAT:?DestroyWindow@CWnd@@UAEHXZ
	DD	FLAT:?PreCreateWindow@CWnd@@UAEHAAUtagCREATESTRUCTA@@@Z
	DD	FLAT:?CalcWindowRect@CWnd@@UAEXPAUtagRECT@@I@Z
	DD	FLAT:?GetMenu@CWnd@@UBEPAVCMenu@@XZ
	DD	FLAT:?SetMenu@CWnd@@UAEHPAVCMenu@@@Z
	DD	FLAT:?OnToolHitTest@CWnd@@UBEHVCPoint@@PAUtagTOOLINFOA@@@Z
	DD	FLAT:?GetScrollBarCtrl@CWnd@@UBEPAVCScrollBar@@H@Z
	DD	FLAT:?WinHelpA@CWnd@@UAEXKI@Z
	DD	FLAT:?HtmlHelpA@CWnd@@UAEXKI@Z
	DD	FLAT:?WinHelpInternal@CWnd@@UAEXKI@Z
	DD	FLAT:?ContinueModal@CWnd@@UAEHXZ
	DD	FLAT:?EndModalLoop@CWnd@@UAEXH@Z
	DD	FLAT:?OnDrawIconicThumbnailOrLivePreview@CWnd@@UAEXAAVCDC@@VCRect@@VCSize@@HAAH@Z
	DD	FLAT:?EnsureStdObj@CWnd@@UAEJXZ
	DD	FLAT:?get_accParent@CWnd@@UAEJPAPAUIDispatch@@@Z
	DD	FLAT:?get_accChildCount@CWnd@@UAEJPAJ@Z
	DD	FLAT:?get_accChild@CWnd@@UAEJUtagVARIANT@@PAPAUIDispatch@@@Z
	DD	FLAT:?get_accName@CWnd@@UAEJUtagVARIANT@@PAPA_W@Z
	DD	FLAT:?get_accValue@CWnd@@UAEJUtagVARIANT@@PAPA_W@Z
	DD	FLAT:?get_accDescription@CWnd@@UAEJUtagVARIANT@@PAPA_W@Z
	DD	FLAT:?get_accRole@CWnd@@UAEJUtagVARIANT@@PAU2@@Z
	DD	FLAT:?get_accState@CWnd@@UAEJUtagVARIANT@@PAU2@@Z
	DD	FLAT:?get_accHelp@CWnd@@UAEJUtagVARIANT@@PAPA_W@Z
	DD	FLAT:?get_accHelpTopic@CWnd@@UAEJPAPA_WUtagVARIANT@@PAJ@Z
	DD	FLAT:?get_accKeyboardShortcut@CWnd@@UAEJUtagVARIANT@@PAPA_W@Z
	DD	FLAT:?get_accFocus@CWnd@@UAEJPAUtagVARIANT@@@Z
	DD	FLAT:?get_accSelection@CWnd@@UAEJPAUtagVARIANT@@@Z
	DD	FLAT:?get_accDefaultAction@CWnd@@UAEJUtagVARIANT@@PAPA_W@Z
	DD	FLAT:?accSelect@CWnd@@UAEJJUtagVARIANT@@@Z
	DD	FLAT:?accLocation@CWnd@@UAEJPAJ000UtagVARIANT@@@Z
	DD	FLAT:?accNavigate@CWnd@@UAEJJUtagVARIANT@@PAU2@@Z
	DD	FLAT:?accHitTest@CWnd@@UAEJJJPAUtagVARIANT@@@Z
	DD	FLAT:?accDoDefaultAction@CWnd@@UAEJUtagVARIANT@@@Z
	DD	FLAT:?put_accName@CWnd@@UAEJUtagVARIANT@@PA_W@Z
	DD	FLAT:?put_accValue@CWnd@@UAEJUtagVARIANT@@PA_W@Z
	DD	FLAT:?SetProxy@CWnd@@UAEJPAUIAccessibleProxy@@@Z
	DD	FLAT:?CreateAccessibleProxy@CWnd@@UAEJIJPAJ@Z
	DD	FLAT:?OnCommand@CWnd@@MAEHIJ@Z
	DD	FLAT:?OnNotify@CPropertyPage@@MAEHIJPAJ@Z
	DD	FLAT:?GetSuperWndProcAddr@CWnd@@MAEPAP6GJPAUHWND__@@IIJ@ZXZ
	DD	FLAT:?DoDataExchange@CViewDesignPage@@MAEXPAVCDataExchange@@@Z
	DD	FLAT:?BeginModalState@CWnd@@UAEXXZ
	DD	FLAT:?EndModalState@CWnd@@UAEXXZ
	DD	FLAT:?PreTranslateMessage@CViewDesignPage@@UAEHPAUtagMSG@@@Z
	DD	FLAT:?OnAmbientProperty@CWnd@@UAEHPAVCOleControlSite@@JPAUtagVARIANT@@@Z
	DD	FLAT:?WindowProc@CWnd@@MAEJIIJ@Z
	DD	FLAT:?OnWndMsg@CWnd@@MAEHIIJPAJ@Z
	DD	FLAT:?DefWindowProcA@CWnd@@MAEJIIJ@Z
	DD	FLAT:?PostNcDestroy@CWnd@@MAEXXZ
	DD	FLAT:?OnChildNotify@CWnd@@MAEHIIJPAJ@Z
	DD	FLAT:?OnTouchInputs@CWnd@@MAEHIPAUtagTOUCHINPUT@@@Z
	DD	FLAT:?OnTouchInput@CWnd@@MAEHVCPoint@@HHPAUtagTOUCHINPUT@@@Z
	DD	FLAT:?GetGestureStatus@CWnd@@MAEKVCPoint@@@Z
	DD	FLAT:?OnGestureZoom@CWnd@@MAEHVCPoint@@J@Z
	DD	FLAT:?OnGesturePan@CWnd@@MAEHVCPoint@@0@Z
	DD	FLAT:?OnGestureRotate@CWnd@@MAEHVCPoint@@N@Z
	DD	FLAT:?OnGestureTwoFingerTap@CWnd@@MAEHVCPoint@@@Z
	DD	FLAT:?OnGesturePressAndTap@CWnd@@MAEHVCPoint@@J@Z
	DD	FLAT:?ResizeDynamicLayout@CWnd@@MAEXXZ
	DD	FLAT:?CheckAutoCenter@CDialog@@UAEHXZ
	DD	FLAT:?IsFrameWnd@CWnd@@UBEHXZ
	DD	FLAT:?CreateControlContainer@CWnd@@MAEHPAPAVCOleControlContainer@@@Z
	DD	FLAT:?CreateControlSite@CWnd@@MAEHPAVCOleControlContainer@@PAPAVCOleControlSite@@IABU_GUID@@@Z
	DD	FLAT:?SetOccDialogInfo@CDialog@@MAEHPAU_AFX_OCC_DIALOG_INFO@@@Z
	DD	FLAT:?GetOccDialogInfo@CDialog@@MAEPAU_AFX_OCC_DIALOG_INFO@@XZ
	DD	FLAT:?Create@CDialog@@UAEHIPAVCWnd@@@Z
	DD	FLAT:?Create@CDialog@@UAEHPBDPAVCWnd@@@Z
	DD	FLAT:?CreateIndirect@CDialog@@UAEHPAXPAVCWnd@@@Z
	DD	FLAT:?CreateIndirect@CDialog@@UAEHPBUDLGTEMPLATE@@PAVCWnd@@PAX@Z
	DD	FLAT:?DoModal@CDialog@@UAEHXZ
	DD	FLAT:?OnInitDialog@CViewDesignPage@@MAEHXZ
	DD	FLAT:?OnSetFont@CDialog@@UAEXPAVCFont@@@Z
	DD	FLAT:?OnOK@CPropertyPage@@UAEXXZ
	DD	FLAT:?OnCancel@CPropertyPage@@UAEXXZ
	DD	FLAT:?PreInitDialog@CDialog@@MAEXXZ
	DD	FLAT:?OnApply@CViewDesignPage@@UAEHXZ
	DD	FLAT:?OnReset@CPropertyPage@@UAEXXZ
	DD	FLAT:?OnSetActive@CPropertyPage@@UAEHXZ
	DD	FLAT:?OnKillActive@CPropertyPage@@UAEHXZ
	DD	FLAT:?OnQueryCancel@CPropertyPage@@UAEHXZ
	DD	FLAT:?OnWizardBack@CPropertyPage@@UAEJXZ
	DD	FLAT:?OnWizardNext@CPropertyPage@@UAEJXZ
	DD	FLAT:?OnWizardFinish@CPropertyPage@@UAEHXZ
	DD	FLAT:?OnWizardFinishEx@CPropertyPage@@UAEPAUHWND__@@XZ
	DD	FLAT:?GetParentSheet@CPropertyPage@@UAEPAVCPropertySheet@@XZ
CONST	ENDS
;	COMDAT ?classCViewDesignPage@CViewDesignPage@@2UCRuntimeClass@@B
CONST	SEGMENT
?classCViewDesignPage@CViewDesignPage@@2UCRuntimeClass@@B DD FLAT:??_C@_0BA@BMLFFHEP@CViewDesignPage@ ; CViewDesignPage::classCViewDesignPage
	DD	0268H
	DD	0ffffH
	DD	FLAT:?CreateObject@CViewDesignPage@@SGPAVCObject@@XZ
	DD	FLAT:?_GetBaseClass@CViewDesignPage@@KGPAUCRuntimeClass@@XZ
	DD	00H
	DD	00H
CONST	ENDS
;	COMDAT ??_C@_0BA@ENJOCHIO@LoadResourceDLL@
CONST	SEGMENT
??_C@_0BA@ENJOCHIO@LoadResourceDLL@ DB 'LoadResourceDLL', 00H ; `string'
CONST	ENDS
;	COMDAT ??_R2CDialog@@8
rdata$r	SEGMENT
??_R2CDialog@@8 DD FLAT:??_R1A@?0A@EA@CDialog@@8	; CDialog::`RTTI Base Class Array'
	DD	FLAT:??_R1A@?0A@EA@CWnd@@8
	DD	FLAT:??_R1A@?0A@EA@CCmdTarget@@8
	DD	FLAT:??_R1A@?0A@EA@CObject@@8
rdata$r	ENDS
;	COMDAT ??_R3CDialog@@8
rdata$r	SEGMENT
??_R3CDialog@@8 DD 00H					; CDialog::`RTTI Class Hierarchy Descriptor'
	DD	00H
	DD	04H
	DD	FLAT:??_R2CDialog@@8
rdata$r	ENDS
;	COMDAT ??_R0?AVCDialog@@@8
data$rs	SEGMENT
??_R0?AVCDialog@@@8 DD FLAT:??_7type_info@@6B@		; CDialog `RTTI Type Descriptor'
	DD	00H
	DB	'.?AVCDialog@@', 00H
data$rs	ENDS
;	COMDAT ??_R1A@?0A@EA@CDialog@@8
rdata$r	SEGMENT
??_R1A@?0A@EA@CDialog@@8 DD FLAT:??_R0?AVCDialog@@@8	; CDialog::`RTTI Base Class Descriptor at (0,-1,0,64)'
	DD	03H
	DD	00H
	DD	0ffffffffH
	DD	00H
	DD	040H
	DD	FLAT:??_R3CDialog@@8
rdata$r	ENDS
;	COMDAT ??_R2CCmdTarget@@8
rdata$r	SEGMENT
??_R2CCmdTarget@@8 DD FLAT:??_R1A@?0A@EA@CCmdTarget@@8	; CCmdTarget::`RTTI Base Class Array'
	DD	FLAT:??_R1A@?0A@EA@CObject@@8
rdata$r	ENDS
;	COMDAT ??_R3CCmdTarget@@8
rdata$r	SEGMENT
??_R3CCmdTarget@@8 DD 00H				; CCmdTarget::`RTTI Class Hierarchy Descriptor'
	DD	00H
	DD	02H
	DD	FLAT:??_R2CCmdTarget@@8
rdata$r	ENDS
;	COMDAT ??_R0?AVCCmdTarget@@@8
data$rs	SEGMENT
??_R0?AVCCmdTarget@@@8 DD FLAT:??_7type_info@@6B@	; CCmdTarget `RTTI Type Descriptor'
	DD	00H
	DB	'.?AVCCmdTarget@@', 00H
data$rs	ENDS
;	COMDAT ??_R1A@?0A@EA@CCmdTarget@@8
rdata$r	SEGMENT
??_R1A@?0A@EA@CCmdTarget@@8 DD FLAT:??_R0?AVCCmdTarget@@@8 ; CCmdTarget::`RTTI Base Class Descriptor at (0,-1,0,64)'
	DD	01H
	DD	00H
	DD	0ffffffffH
	DD	00H
	DD	040H
	DD	FLAT:??_R3CCmdTarget@@8
rdata$r	ENDS
;	COMDAT ??_R2CWnd@@8
rdata$r	SEGMENT
??_R2CWnd@@8 DD	FLAT:??_R1A@?0A@EA@CWnd@@8		; CWnd::`RTTI Base Class Array'
	DD	FLAT:??_R1A@?0A@EA@CCmdTarget@@8
	DD	FLAT:??_R1A@?0A@EA@CObject@@8
rdata$r	ENDS
;	COMDAT ??_R3CWnd@@8
rdata$r	SEGMENT
??_R3CWnd@@8 DD	00H					; CWnd::`RTTI Class Hierarchy Descriptor'
	DD	00H
	DD	03H
	DD	FLAT:??_R2CWnd@@8
rdata$r	ENDS
;	COMDAT ??_R0?AVCWnd@@@8
data$rs	SEGMENT
??_R0?AVCWnd@@@8 DD FLAT:??_7type_info@@6B@		; CWnd `RTTI Type Descriptor'
	DD	00H
	DB	'.?AVCWnd@@', 00H
data$rs	ENDS
;	COMDAT ??_R1A@?0A@EA@CWnd@@8
rdata$r	SEGMENT
??_R1A@?0A@EA@CWnd@@8 DD FLAT:??_R0?AVCWnd@@@8		; CWnd::`RTTI Base Class Descriptor at (0,-1,0,64)'
	DD	02H
	DD	00H
	DD	0ffffffffH
	DD	00H
	DD	040H
	DD	FLAT:??_R3CWnd@@8
rdata$r	ENDS
;	COMDAT ??_R1A@?0A@EA@CObject@@8
rdata$r	SEGMENT
??_R1A@?0A@EA@CObject@@8 DD FLAT:??_R0?AVCObject@@@8	; CObject::`RTTI Base Class Descriptor at (0,-1,0,64)'
	DD	00H
	DD	00H
	DD	0ffffffffH
	DD	00H
	DD	040H
	DD	FLAT:??_R3CObject@@8
rdata$r	ENDS
;	COMDAT ??_R2CObject@@8
rdata$r	SEGMENT
??_R2CObject@@8 DD FLAT:??_R1A@?0A@EA@CObject@@8	; CObject::`RTTI Base Class Array'
rdata$r	ENDS
;	COMDAT ??_R3CObject@@8
rdata$r	SEGMENT
??_R3CObject@@8 DD 00H					; CObject::`RTTI Class Hierarchy Descriptor'
	DD	00H
	DD	01H
	DD	FLAT:??_R2CObject@@8
rdata$r	ENDS
;	COMDAT ??_R0?AVCObject@@@8
data$rs	SEGMENT
??_R0?AVCObject@@@8 DD FLAT:??_7type_info@@6B@		; CObject `RTTI Type Descriptor'
	DD	00H
	DB	'.?AVCObject@@', 00H
data$rs	ENDS
;	COMDAT ??_C@_02DPKJAMEF@?$CFd@
CONST	SEGMENT
??_C@_02DPKJAMEF@?$CFd@ DB '%d', 00H			; `string'
CONST	ENDS
;	COMDAT xdata$x
xdata$x	SEGMENT
__unwindtable$?SetAllGridType@CViewDesignPage@@IAEXH@Z DD 0ffffffffH
	DD	FLAT:__unwindfunclet$?SetAllGridType@CViewDesignPage@@IAEXH@Z$0
	DD	00H
	DD	FLAT:__unwindfunclet$?SetAllGridType@CViewDesignPage@@IAEXH@Z$1
	DD	01H
	DD	FLAT:__unwindfunclet$?SetAllGridType@CViewDesignPage@@IAEXH@Z$2
	DD	0ffffffffH
	DD	FLAT:___std_terminate
__ehfuncinfo$?SetAllGridType@CViewDesignPage@@IAEXH@Z DD 019930522H
	DD	04H
	DD	FLAT:__unwindtable$?SetAllGridType@CViewDesignPage@@IAEXH@Z
	DD	2 DUP(00H)
	DD	2 DUP(00H)
	DD	00H
	DD	01H
xdata$x	ENDS
;	COMDAT xdata$x
xdata$x	SEGMENT
__unwindtable$?CreateToolTip@CViewDesignPage@@AAEXXZ DD 0ffffffffH
	DD	FLAT:__unwindfunclet$?CreateToolTip@CViewDesignPage@@AAEXXZ$0
	DD	00H
	DD	FLAT:__unwindfunclet$?CreateToolTip@CViewDesignPage@@AAEXXZ$1
	DD	0ffffffffH
	DD	FLAT:___std_terminate
__ehfuncinfo$?CreateToolTip@CViewDesignPage@@AAEXXZ DD 019930522H
	DD	03H
	DD	FLAT:__unwindtable$?CreateToolTip@CViewDesignPage@@AAEXXZ
	DD	2 DUP(00H)
	DD	2 DUP(00H)
	DD	00H
	DD	01H
xdata$x	ENDS
;	COMDAT xdata$x
xdata$x	SEGMENT
__unwindtable$?OnChangeMindatacount@CViewDesignPage@@IAEXXZ DD 0ffffffffH
	DD	FLAT:__unwindfunclet$?OnChangeMindatacount@CViewDesignPage@@IAEXXZ$0
	DD	00H
	DD	FLAT:__unwindfunclet$?OnChangeMindatacount@CViewDesignPage@@IAEXXZ$1
	DD	01H
	DD	FLAT:__unwindfunclet$?OnChangeMindatacount@CViewDesignPage@@IAEXXZ$2
	DD	00H
	DD	FLAT:___std_terminate
__ehfuncinfo$?OnChangeMindatacount@CViewDesignPage@@IAEXXZ DD 019930522H
	DD	04H
	DD	FLAT:__unwindtable$?OnChangeMindatacount@CViewDesignPage@@IAEXXZ
	DD	2 DUP(00H)
	DD	2 DUP(00H)
	DD	00H
	DD	01H
xdata$x	ENDS
;	COMDAT xdata$x
xdata$x	SEGMENT
__unwindtable$?OnApply@CViewDesignPage@@UAEHXZ DD 0ffffffffH
	DD	FLAT:__unwindfunclet$?OnApply@CViewDesignPage@@UAEHXZ$0
__ehfuncinfo$?OnApply@CViewDesignPage@@UAEHXZ DD 019930522H
	DD	01H
	DD	FLAT:__unwindtable$?OnApply@CViewDesignPage@@UAEHXZ
	DD	2 DUP(00H)
	DD	2 DUP(00H)
	DD	00H
	DD	01H
xdata$x	ENDS
;	COMDAT xdata$x
xdata$x	SEGMENT
__unwindtable$??0CViewDesignPage@@QAE@XZ DD 0ffffffffH
	DD	FLAT:__unwindfunclet$??0CViewDesignPage@@QAE@XZ$0
	DD	00H
	DD	FLAT:__unwindfunclet$??0CViewDesignPage@@QAE@XZ$1
__ehfuncinfo$??0CViewDesignPage@@QAE@XZ DD 019930522H
	DD	02H
	DD	FLAT:__unwindtable$??0CViewDesignPage@@QAE@XZ
	DD	2 DUP(00H)
	DD	2 DUP(00H)
	DD	00H
	DD	01H
xdata$x	ENDS
;	COMDAT xdata$x
xdata$x	SEGMENT
__unwindtable$?CreateObject@CViewDesignPage@@SGPAVCObject@@XZ DD 0ffffffffH
	DD	FLAT:__unwindfunclet$?CreateObject@CViewDesignPage@@SGPAVCObject@@XZ$0
	DD	00H
	DD	FLAT:__unwindfunclet$?CreateObject@CViewDesignPage@@SGPAVCObject@@XZ$1
	DD	01H
	DD	FLAT:__unwindfunclet$?CreateObject@CViewDesignPage@@SGPAVCObject@@XZ$2
__ehfuncinfo$?CreateObject@CViewDesignPage@@SGPAVCObject@@XZ DD 019930522H
	DD	03H
	DD	FLAT:__unwindtable$?CreateObject@CViewDesignPage@@SGPAVCObject@@XZ
	DD	2 DUP(00H)
	DD	2 DUP(00H)
	DD	00H
	DD	01H
xdata$x	ENDS
;	COMDAT xdata$x
xdata$x	SEGMENT
__ehfuncinfo$??1CMultiLanguageResourceSetter@@QAE@XZ DD 019930522H
	DD	00H
	DD	00H
	DD	2 DUP(00H)
	DD	2 DUP(00H)
	DD	00H
	DD	05H
xdata$x	ENDS
; Function compile flags: /Ogtp
; File D:\git\src\IBK\IBK_DRFN\ProjSrc\SrcChartEx\ChartAddIn\ChartDesignPropertyAddIn\ChartDesignPropertyAddIn\ViewDesignPage.cpp
; File C:\Program Files (x86)\Microsoft Visual Studio\2019\Community\VC\Tools\MSVC\14.29.30133\atlmfc\include\afx.inl
;	COMDAT ??_GCViewDesignPage@@UAEPAXI@Z
_TEXT	SEGMENT
___flags$ = 8						; size = 4
??_GCViewDesignPage@@UAEPAXI@Z PROC			; CViewDesignPage::`scalar deleting destructor', COMDAT
; _this$ = ecx
  00000	55		 push	 ebp
  00001	8b ec		 mov	 ebp, esp
; File D:\git\src\IBK\IBK_DRFN\ProjSrc\SrcChartEx\ChartAddIn\ChartDesignPropertyAddIn\ChartDesignPropertyAddIn\ViewDesignPage.cpp

; 52   : {

  00003	56		 push	 esi
  00004	8b f1		 mov	 esi, ecx

; 53   : }

  00006	8d 8e 80 01 00
	00		 lea	 ecx, DWORD PTR [esi+384]
  0000c	c7 06 00 00 00
	00		 mov	 DWORD PTR [esi], OFFSET ??_7CViewDesignPage@@6B@
  00012	e8 00 00 00 00	 call	 ??1CDlgToolTip@@UAE@XZ	; CDlgToolTip::~CDlgToolTip
  00017	8d 8e c0 00 00
	00		 lea	 ecx, DWORD PTR [esi+192]
  0001d	e8 00 00 00 00	 call	 ??1CNoSystemMenuEdit@@UAE@XZ ; CNoSystemMenuEdit::~CNoSystemMenuEdit
  00022	8b ce		 mov	 ecx, esi
  00024	e8 00 00 00 00	 call	 ??1CPropertyPage@@UAE@XZ ; CPropertyPage::~CPropertyPage
  00029	8b 45 08	 mov	 eax, DWORD PTR ___flags$[ebp]
  0002c	a8 01		 test	 al, 1
  0002e	74 22		 je	 SHORT $LN12@scalar
  00030	a8 04		 test	 al, 4
  00032	75 10		 jne	 SHORT $LN3@scalar
; File C:\Program Files (x86)\Microsoft Visual Studio\2019\Community\VC\Tools\MSVC\14.29.30133\atlmfc\include\afx.inl

; 112  : 	{ ::operator delete(p); }

  00034	56		 push	 esi
  00035	e8 00 00 00 00	 call	 ??3@YAXPAX@Z		; operator delete
  0003a	83 c4 04	 add	 esp, 4
  0003d	8b c6		 mov	 eax, esi
  0003f	5e		 pop	 esi
  00040	5d		 pop	 ebp
  00041	c2 04 00	 ret	 4
$LN3@scalar:
  00044	68 68 02 00 00	 push	 616			; 00000268H
  00049	56		 push	 esi
  0004a	e8 00 00 00 00	 call	 ?__global_delete@@YAXPAXI@Z ; __global_delete
  0004f	83 c4 08	 add	 esp, 8
$LN12@scalar:
  00052	8b c6		 mov	 eax, esi
  00054	5e		 pop	 esi
  00055	5d		 pop	 ebp
  00056	c2 04 00	 ret	 4
??_GCViewDesignPage@@UAEPAXI@Z ENDP			; CViewDesignPage::`scalar deleting destructor'
_TEXT	ENDS
; Function compile flags: /Ogtp
; File D:\git\src\IBK\IBK_DRFN\ProjSrc\SrcChartEx\ChartAddIn\ChartDesignPropertyAddIn\ChartDesignPropertyAddIn\ViewDesignPage.cpp
;	COMDAT ?SetOcxHwnd@CViewDesignPage@@QAEXPAUHWND__@@@Z
_TEXT	SEGMENT
_p_hOcxWnd$ = 8						; size = 4
?SetOcxHwnd@CViewDesignPage@@QAEXPAUHWND__@@@Z PROC	; CViewDesignPage::SetOcxHwnd, COMDAT
; _this$ = ecx

; 279  : {

  00000	55		 push	 ebp
  00001	8b ec		 mov	 ebp, esp

; 280  : 	m_hOcxWnd = p_hOcxWnd;

  00003	8b 45 08	 mov	 eax, DWORD PTR _p_hOcxWnd$[ebp]
  00006	89 81 64 02 00
	00		 mov	 DWORD PTR [ecx+612], eax

; 281  : 	m_toolTip.SetOcxHwnd( p_hOcxWnd);

  0000c	89 81 58 02 00
	00		 mov	 DWORD PTR [ecx+600], eax

; 282  : }

  00012	5d		 pop	 ebp
  00013	c2 04 00	 ret	 4
?SetOcxHwnd@CViewDesignPage@@QAEXPAUHWND__@@@Z ENDP	; CViewDesignPage::SetOcxHwnd
_TEXT	ENDS
; Function compile flags: /Ogtp
; File D:\git\src\IBK\IBK_DRFN\ProjSrc\SrcChartEx\ChartAddIn\ChartDesignPropertyAddIn\ChartDesignPropertyAddIn\ViewDesignPage.cpp
; File C:\Program Files (x86)\Microsoft Visual Studio\2019\Community\VC\Tools\MSVC\14.29.30133\atlmfc\include\afxwin1.inl
; File D:\git\src\IBK\IBK_DRFN\ProjSrc\SrcChartEx\ChartAddIn\ChartDesignPropertyAddIn\Include_Chart\Dll_Load\IMetaTable.h
; File C:\Program Files (x86)\Microsoft Visual Studio\2019\Community\VC\Tools\MSVC\14.29.30133\atlmfc\include\afxwin1.inl
; File D:\git\src\IBK\IBK_DRFN\ProjSrc\SrcChartEx\ChartAddIn\ChartDesignPropertyAddIn\ChartDesignPropertyAddIn\ViewDesignPage.cpp
; File C:\Program Files (x86)\Microsoft Visual Studio\2019\Community\VC\Tools\MSVC\14.29.30133\atlmfc\include\afxwin2.inl
; File D:\git\src\IBK\IBK_DRFN\ProjSrc\SrcChartEx\ChartAddIn\ChartDesignPropertyAddIn\ChartDesignPropertyAddIn\ViewDesignPage.cpp
; File D:\git\src\IBK\IBK_DRFN\ProjSrc\SrcChartEx\ChartAddIn\ChartDesignPropertyAddIn\Include_Chart\Dll_Load\IMetaTable.h
; File C:\Program Files (x86)\Microsoft Visual Studio\2019\Community\VC\Tools\MSVC\14.29.30133\atlmfc\include\afxwin1.inl
; File D:\git\src\IBK\IBK_DRFN\ProjSrc\SrcChartEx\ChartAddIn\ChartDesignPropertyAddIn\ChartDesignPropertyAddIn\ViewDesignPage.cpp
;	COMDAT ?SetAllGridType@CViewDesignPage@@IAEXH@Z
_TEXT	SEGMENT
___mlrs__$ = -24					; size = 4
_text$ = -20						; size = 4
_strTitle$ = -16					; size = 4
__$EHRec$ = -12						; size = 12
_p_nScaleGridType$ = 8					; size = 4
?SetAllGridType@CViewDesignPage@@IAEXH@Z PROC		; CViewDesignPage::SetAllGridType, COMDAT
; _this$ = ecx

; 215  : {

  00000	55		 push	 ebp
  00001	8b ec		 mov	 ebp, esp
  00003	6a ff		 push	 -1
  00005	68 00 00 00 00	 push	 __ehhandler$?SetAllGridType@CViewDesignPage@@IAEXH@Z
  0000a	64 a1 00 00 00
	00		 mov	 eax, DWORD PTR fs:0
  00010	50		 push	 eax
  00011	83 ec 0c	 sub	 esp, 12			; 0000000cH
  00014	53		 push	 ebx
  00015	56		 push	 esi
  00016	57		 push	 edi
  00017	a1 00 00 00 00	 mov	 eax, DWORD PTR ___security_cookie
  0001c	33 c5		 xor	 eax, ebp
  0001e	50		 push	 eax
  0001f	8d 45 f4	 lea	 eax, DWORD PTR __$EHRec$[ebp]
  00022	64 a3 00 00 00
	00		 mov	 DWORD PTR fs:0, eax
  00028	8b d9		 mov	 ebx, ecx

; 216  : 	UpdateData(TRUE);

  0002a	6a 01		 push	 1
  0002c	e8 00 00 00 00	 call	 ?UpdateData@CWnd@@QAEHH@Z ; CWnd::UpdateData

; 217  : 
; 218  : 	ML_SET_LANGUAGE_RES();

  00031	e8 00 00 00 00	 call	 ?AfxGetStaticModuleState@@YGPAVAFX_MODULE_STATE@@XZ ; AfxGetStaticModuleState
  00036	b9 00 00 00 00	 mov	 ecx, OFFSET ?g_iMetaTable@@3VIMetaTable@@A ; g_iMetaTable
  0003b	8b 40 08	 mov	 eax, DWORD PTR [eax+8]
  0003e	50		 push	 eax
  0003f	ff b3 64 02 00
	00		 push	 DWORD PTR [ebx+612]
  00045	e8 00 00 00 00	 call	 ?LoadResourceDLL@IMetaTable@@QAEPAUHINSTANCE__@@PAUHWND__@@PAU2@@Z ; IMetaTable::LoadResourceDLL
  0004a	8b f8		 mov	 edi, eax
; File C:\Program Files (x86)\Microsoft Visual Studio\2019\Community\VC\Tools\MSVC\14.29.30133\atlmfc\include\afxwin1.inl

; 25   : 		return afxCurrentResourceHandle; }

  0004c	e8 00 00 00 00	 call	 ?AfxGetModuleState@@YGPAVAFX_MODULE_STATE@@XZ ; AfxGetModuleState
; File D:\git\src\IBK\IBK_DRFN\ProjSrc\SrcChartEx\ChartAddIn\ChartDesignPropertyAddIn\Include_Chart\Dll_Load\IMetaTable.h

; 1032 : 		m_hInstance = AfxGetResourceHandle();

  00051	8b 70 0c	 mov	 esi, DWORD PTR [eax+12]
  00054	89 75 e8	 mov	 DWORD PTR ___mlrs__$[ebp], esi
; File C:\Program Files (x86)\Microsoft Visual Studio\2019\Community\VC\Tools\MSVC\14.29.30133\atlmfc\include\afxwin1.inl

; 27   : 	{ ASSERT(hInstResource != NULL); afxCurrentResourceHandle = hInstResource; }

  00057	e8 00 00 00 00	 call	 ?AfxGetModuleState@@YGPAVAFX_MODULE_STATE@@XZ ; AfxGetModuleState
  0005c	89 78 0c	 mov	 DWORD PTR [eax+12], edi
; File D:\git\src\IBK\IBK_DRFN\ProjSrc\SrcChartEx\ChartAddIn\ChartDesignPropertyAddIn\ChartDesignPropertyAddIn\ViewDesignPage.cpp

; 219  : 	CString text, strTitle;

  0005f	8d 4d ec	 lea	 ecx, DWORD PTR _text$[ebp]
  00062	c7 45 fc 00 00
	00 00		 mov	 DWORD PTR __$EHRec$[ebp+8], 0
  00069	ff 15 00 00 00
	00		 call	 DWORD PTR __imp_??0?$CStringT@DV?$StrTraitMFC_DLL@DV?$ChTraitsCRT@D@ATL@@@@@ATL@@QAE@XZ
  0006f	8d 4d f0	 lea	 ecx, DWORD PTR _strTitle$[ebp]
  00072	ff 15 00 00 00
	00		 call	 DWORD PTR __imp_??0?$CStringT@DV?$StrTraitMFC_DLL@DV?$ChTraitsCRT@D@ATL@@@@@ATL@@QAE@XZ

; 220  : 	text.LoadString( IDS_MSG_APPLY_ALL_SCALE_LINE);

  00078	68 6e 04 00 00	 push	 1134			; 0000046eH
  0007d	8d 4d ec	 lea	 ecx, DWORD PTR _text$[ebp]
  00080	c6 45 fc 02	 mov	 BYTE PTR __$EHRec$[ebp+8], 2
  00084	ff 15 00 00 00
	00		 call	 DWORD PTR __imp_?LoadStringA@?$CStringT@DV?$StrTraitMFC_DLL@DV?$ChTraitsCRT@D@ATL@@@@@ATL@@QAEHI@Z

; 221  : 	strTitle.LoadString( IDS_BLOCK_SETTING);

  0008a	68 5f 04 00 00	 push	 1119			; 0000045fH
  0008f	8d 4d f0	 lea	 ecx, DWORD PTR _strTitle$[ebp]
  00092	ff 15 00 00 00
	00		 call	 DWORD PTR __imp_?LoadStringA@?$CStringT@DV?$StrTraitMFC_DLL@DV?$ChTraitsCRT@D@ATL@@@@@ATL@@QAEHI@Z

; 222  : 	int nOk = MessageBox(text, strTitle, MB_OKCANCEL | MB_ICONQUESTION);

  00098	6a 21		 push	 33			; 00000021H
  0009a	ff 75 f0	 push	 DWORD PTR _strTitle$[ebp]
  0009d	8b cb		 mov	 ecx, ebx
  0009f	ff 75 ec	 push	 DWORD PTR _text$[ebp]
  000a2	e8 00 00 00 00	 call	 ?MessageBoxA@CWnd@@QAEHPBD0I@Z ; CWnd::MessageBoxA

; 223  : 	if(nOk == IDOK)

  000a7	83 f8 01	 cmp	 eax, 1
  000aa	75 1d		 jne	 SHORT $LN2@SetAllGrid

; 224  : 		((CChartPropertySheet *)GetParent())->m_ChartListPage.m_TreeChart.SetScaleCompartTypeToAllBlocks( p_nScaleGridType);

  000ac	ff 75 08	 push	 DWORD PTR _p_nScaleGridType$[ebp]
; File C:\Program Files (x86)\Microsoft Visual Studio\2019\Community\VC\Tools\MSVC\14.29.30133\atlmfc\include\afxwin2.inl

; 213  : 	{ ASSERT(::IsWindow(m_hWnd)); return CWnd::FromHandle(::GetParent(m_hWnd)); }

  000af	ff 73 20	 push	 DWORD PTR [ebx+32]
  000b2	ff 15 00 00 00
	00		 call	 DWORD PTR __imp__GetParent@4
  000b8	50		 push	 eax
  000b9	e8 00 00 00 00	 call	 ?FromHandle@CWnd@@SGPAV1@PAUHWND__@@@Z ; CWnd::FromHandle
; File D:\git\src\IBK\IBK_DRFN\ProjSrc\SrcChartEx\ChartAddIn\ChartDesignPropertyAddIn\ChartDesignPropertyAddIn\ViewDesignPage.cpp

; 224  : 		((CChartPropertySheet *)GetParent())->m_ChartListPage.m_TreeChart.SetScaleCompartTypeToAllBlocks( p_nScaleGridType);

  000be	8d 88 a8 01 00
	00		 lea	 ecx, DWORD PTR [eax+424]
  000c4	e8 00 00 00 00	 call	 ?SetScaleCompartTypeToAllBlocks@CMyTreeCtrl@@QAEXH@Z ; CMyTreeCtrl::SetScaleCompartTypeToAllBlocks
$LN2@SetAllGrid:

; 225  : }

  000c9	8d 4d f0	 lea	 ecx, DWORD PTR _strTitle$[ebp]
  000cc	ff 15 00 00 00
	00		 call	 DWORD PTR __imp_??1?$CStringT@DV?$StrTraitMFC_DLL@DV?$ChTraitsCRT@D@ATL@@@@@ATL@@QAE@XZ
  000d2	8d 4d ec	 lea	 ecx, DWORD PTR _text$[ebp]
  000d5	ff 15 00 00 00
	00		 call	 DWORD PTR __imp_??1?$CStringT@DV?$StrTraitMFC_DLL@DV?$ChTraitsCRT@D@ATL@@@@@ATL@@QAE@XZ
; File D:\git\src\IBK\IBK_DRFN\ProjSrc\SrcChartEx\ChartAddIn\ChartDesignPropertyAddIn\Include_Chart\Dll_Load\IMetaTable.h

; 1036 : 	{

  000db	c7 45 fc 03 00
	00 00		 mov	 DWORD PTR __$EHRec$[ebp+8], 3
; File C:\Program Files (x86)\Microsoft Visual Studio\2019\Community\VC\Tools\MSVC\14.29.30133\atlmfc\include\afxwin1.inl

; 27   : 	{ ASSERT(hInstResource != NULL); afxCurrentResourceHandle = hInstResource; }

  000e2	e8 00 00 00 00	 call	 ?AfxGetModuleState@@YGPAVAFX_MODULE_STATE@@XZ ; AfxGetModuleState
  000e7	89 70 0c	 mov	 DWORD PTR [eax+12], esi
; File D:\git\src\IBK\IBK_DRFN\ProjSrc\SrcChartEx\ChartAddIn\ChartDesignPropertyAddIn\ChartDesignPropertyAddIn\ViewDesignPage.cpp

; 225  : }

  000ea	8b 4d f4	 mov	 ecx, DWORD PTR __$EHRec$[ebp]
  000ed	64 89 0d 00 00
	00 00		 mov	 DWORD PTR fs:0, ecx
  000f4	59		 pop	 ecx
  000f5	5f		 pop	 edi
  000f6	5e		 pop	 esi
  000f7	5b		 pop	 ebx
  000f8	8b e5		 mov	 esp, ebp
  000fa	5d		 pop	 ebp
  000fb	c2 04 00	 ret	 4
_TEXT	ENDS
;	COMDAT text$x
text$x	SEGMENT
__unwindfunclet$?SetAllGridType@CViewDesignPage@@IAEXH@Z$0:
  00000	8d 4d e8	 lea	 ecx, DWORD PTR ___mlrs__$[ebp]
  00003	e9 00 00 00 00	 jmp	 ??1CMultiLanguageResourceSetter@@QAE@XZ ; CMultiLanguageResourceSetter::~CMultiLanguageResourceSetter
__unwindfunclet$?SetAllGridType@CViewDesignPage@@IAEXH@Z$1:
  00008	8d 4d ec	 lea	 ecx, DWORD PTR _text$[ebp]
  0000b	ff 25 00 00 00
	00		 jmp	 DWORD PTR __imp_??1?$CStringT@DV?$StrTraitMFC_DLL@DV?$ChTraitsCRT@D@ATL@@@@@ATL@@QAE@XZ
__unwindfunclet$?SetAllGridType@CViewDesignPage@@IAEXH@Z$2:
  00011	8d 4d f0	 lea	 ecx, DWORD PTR _strTitle$[ebp]
  00014	ff 25 00 00 00
	00		 jmp	 DWORD PTR __imp_??1?$CStringT@DV?$StrTraitMFC_DLL@DV?$ChTraitsCRT@D@ATL@@@@@ATL@@QAE@XZ
  0001a	cc		 int	 3
  0001b	cc		 int	 3
  0001c	cc		 int	 3
  0001d	cc		 int	 3
  0001e	cc		 int	 3
__ehhandler$?SetAllGridType@CViewDesignPage@@IAEXH@Z:
  0001f	90		 npad	 1
  00020	90		 npad	 1
  00021	8b 54 24 08	 mov	 edx, DWORD PTR [esp+8]
  00025	8d 42 0c	 lea	 eax, DWORD PTR [edx+12]
  00028	8b 4a e4	 mov	 ecx, DWORD PTR [edx-28]
  0002b	33 c8		 xor	 ecx, eax
  0002d	e8 00 00 00 00	 call	 @__security_check_cookie@4
  00032	b8 00 00 00 00	 mov	 eax, OFFSET __ehfuncinfo$?SetAllGridType@CViewDesignPage@@IAEXH@Z
  00037	e9 00 00 00 00	 jmp	 ___CxxFrameHandler3
text$x	ENDS
?SetAllGridType@CViewDesignPage@@IAEXH@Z ENDP		; CViewDesignPage::SetAllGridType
; Function compile flags: /Ogtp
; File D:\git\src\IBK\IBK_DRFN\ProjSrc\SrcChartEx\ChartAddIn\ChartDesignPropertyAddIn\ChartDesignPropertyAddIn\ViewDesignPage.cpp
;	COMDAT ?EnableWindow@CViewDesignPage@@AAEXH_N@Z
_TEXT	SEGMENT
_nID$ = 8						; size = 4
_bEnable$ = 12						; size = 1
?EnableWindow@CViewDesignPage@@AAEXH_N@Z PROC		; CViewDesignPage::EnableWindow, COMDAT
; _this$ = ecx

; 185  : {

  00000	55		 push	 ebp
  00001	8b ec		 mov	 ebp, esp

; 186  : 	CWnd* pWnd = (CWnd*) GetDlgItem(nID);

  00003	ff 75 08	 push	 DWORD PTR _nID$[ebp]
  00006	e8 00 00 00 00	 call	 ?GetDlgItem@CWnd@@QBEPAV1@H@Z ; CWnd::GetDlgItem

; 187  : 	if(pWnd != NULL)

  0000b	85 c0		 test	 eax, eax
  0000d	74 0c		 je	 SHORT $LN2@EnableWind

; 188  : 		pWnd->EnableWindow(bEnable);

  0000f	0f b6 4d 0c	 movzx	 ecx, BYTE PTR _bEnable$[ebp]
  00013	51		 push	 ecx
  00014	8b c8		 mov	 ecx, eax
  00016	e8 00 00 00 00	 call	 ?EnableWindow@CWnd@@QAEHH@Z ; CWnd::EnableWindow
$LN2@EnableWind:

; 189  : }

  0001b	5d		 pop	 ebp
  0001c	c2 08 00	 ret	 8
?EnableWindow@CViewDesignPage@@AAEXH_N@Z ENDP		; CViewDesignPage::EnableWindow
_TEXT	ENDS
; Function compile flags: /Ogtp
; File D:\git\src\IBK\IBK_DRFN\ProjSrc\SrcChartEx\ChartAddIn\ChartDesignPropertyAddIn\ChartDesignPropertyAddIn\ViewDesignPage.cpp
; File C:\Program Files (x86)\Microsoft Visual Studio\2019\Community\VC\Tools\MSVC\14.29.30133\atlmfc\include\afxwin1.inl
; File D:\git\src\IBK\IBK_DRFN\ProjSrc\SrcChartEx\ChartAddIn\ChartDesignPropertyAddIn\Include_Chart\Dll_Load\IMetaTable.h
; File C:\Program Files (x86)\Microsoft Visual Studio\2019\Community\VC\Tools\MSVC\14.29.30133\atlmfc\include\afxwin1.inl
; File D:\git\src\IBK\IBK_DRFN\ProjSrc\SrcChartEx\ChartAddIn\ChartDesignPropertyAddIn\ChartDesignPropertyAddIn\ViewDesignPage.cpp
; File C:\Program Files (x86)\Microsoft Visual Studio\2019\Community\VC\Tools\MSVC\14.29.30133\atlmfc\include\afxcoll.inl
; File D:\git\src\IBK\IBK_DRFN\ProjSrc\SrcChartEx\ChartAddIn\ChartDesignPropertyAddIn\ChartDesignPropertyAddIn\ViewDesignPage.cpp
; File C:\Program Files (x86)\Microsoft Visual Studio\2019\Community\VC\Tools\MSVC\14.29.30133\atlmfc\include\afxcoll.inl
; File D:\git\src\IBK\IBK_DRFN\ProjSrc\SrcChartEx\ChartAddIn\ChartDesignPropertyAddIn\ChartDesignPropertyAddIn\ViewDesignPage.cpp
; File C:\Program Files (x86)\Microsoft Visual Studio\2019\Community\VC\Tools\MSVC\14.29.30133\atlmfc\include\afxcoll.inl
; File D:\git\src\IBK\IBK_DRFN\ProjSrc\SrcChartEx\ChartAddIn\ChartDesignPropertyAddIn\ChartDesignPropertyAddIn\ViewDesignPage.cpp
; File C:\Program Files (x86)\Microsoft Visual Studio\2019\Community\VC\Tools\MSVC\14.29.30133\atlmfc\include\afxcoll.inl
; File D:\git\src\IBK\IBK_DRFN\ProjSrc\SrcChartEx\ChartAddIn\ChartDesignPropertyAddIn\ChartDesignPropertyAddIn\ViewDesignPage.cpp
; File C:\Program Files (x86)\Microsoft Visual Studio\2019\Community\VC\Tools\MSVC\14.29.30133\atlmfc\include\afxcoll.inl
; File D:\git\src\IBK\IBK_DRFN\ProjSrc\SrcChartEx\ChartAddIn\ChartDesignPropertyAddIn\ChartDesignPropertyAddIn\ViewDesignPage.cpp
; File C:\Program Files (x86)\Microsoft Visual Studio\2019\Community\VC\Tools\MSVC\14.29.30133\atlmfc\include\afxcoll.inl
; File D:\git\src\IBK\IBK_DRFN\ProjSrc\SrcChartEx\ChartAddIn\ChartDesignPropertyAddIn\ChartDesignPropertyAddIn\ViewDesignPage.cpp
; File D:\git\src\IBK\IBK_DRFN\ProjSrc\SrcChartEx\ChartAddIn\ChartDesignPropertyAddIn\Include_Chart\Dll_Load\IMetaTable.h
; File C:\Program Files (x86)\Microsoft Visual Studio\2019\Community\VC\Tools\MSVC\14.29.30133\atlmfc\include\afxwin1.inl
; File D:\git\src\IBK\IBK_DRFN\ProjSrc\SrcChartEx\ChartAddIn\ChartDesignPropertyAddIn\ChartDesignPropertyAddIn\ViewDesignPage.cpp
;	COMDAT ?CreateToolTip@CViewDesignPage@@AAEXXZ
_TEXT	SEGMENT
_dwaInfo$ = -36						; size = 20
___mlrs__$ = -16					; size = 4
__$EHRec$ = -12						; size = 12
?CreateToolTip@CViewDesignPage@@AAEXXZ PROC		; CViewDesignPage::CreateToolTip, COMDAT
; _this$ = ecx

; 108  : {

  00000	55		 push	 ebp
  00001	8b ec		 mov	 ebp, esp
  00003	6a ff		 push	 -1
  00005	68 00 00 00 00	 push	 __ehhandler$?CreateToolTip@CViewDesignPage@@AAEXXZ
  0000a	64 a1 00 00 00
	00		 mov	 eax, DWORD PTR fs:0
  00010	50		 push	 eax
  00011	83 ec 18	 sub	 esp, 24			; 00000018H
  00014	53		 push	 ebx
  00015	56		 push	 esi
  00016	57		 push	 edi
  00017	a1 00 00 00 00	 mov	 eax, DWORD PTR ___security_cookie
  0001c	33 c5		 xor	 eax, ebp
  0001e	50		 push	 eax
  0001f	8d 45 f4	 lea	 eax, DWORD PTR __$EHRec$[ebp]
  00022	64 a3 00 00 00
	00		 mov	 DWORD PTR fs:0, eax
  00028	8b d9		 mov	 ebx, ecx

; 109  : 	ML_SET_LANGUAGE_RES();

  0002a	e8 00 00 00 00	 call	 ?AfxGetStaticModuleState@@YGPAVAFX_MODULE_STATE@@XZ ; AfxGetStaticModuleState
  0002f	b9 00 00 00 00	 mov	 ecx, OFFSET ?g_iMetaTable@@3VIMetaTable@@A ; g_iMetaTable
  00034	8b 40 08	 mov	 eax, DWORD PTR [eax+8]
  00037	50		 push	 eax
  00038	ff b3 64 02 00
	00		 push	 DWORD PTR [ebx+612]
  0003e	e8 00 00 00 00	 call	 ?LoadResourceDLL@IMetaTable@@QAEPAUHINSTANCE__@@PAUHWND__@@PAU2@@Z ; IMetaTable::LoadResourceDLL
  00043	8b f8		 mov	 edi, eax
; File C:\Program Files (x86)\Microsoft Visual Studio\2019\Community\VC\Tools\MSVC\14.29.30133\atlmfc\include\afxwin1.inl

; 25   : 		return afxCurrentResourceHandle; }

  00045	e8 00 00 00 00	 call	 ?AfxGetModuleState@@YGPAVAFX_MODULE_STATE@@XZ ; AfxGetModuleState
; File D:\git\src\IBK\IBK_DRFN\ProjSrc\SrcChartEx\ChartAddIn\ChartDesignPropertyAddIn\Include_Chart\Dll_Load\IMetaTable.h

; 1032 : 		m_hInstance = AfxGetResourceHandle();

  0004a	8b 70 0c	 mov	 esi, DWORD PTR [eax+12]
  0004d	89 75 f0	 mov	 DWORD PTR ___mlrs__$[ebp], esi
; File C:\Program Files (x86)\Microsoft Visual Studio\2019\Community\VC\Tools\MSVC\14.29.30133\atlmfc\include\afxwin1.inl

; 27   : 	{ ASSERT(hInstResource != NULL); afxCurrentResourceHandle = hInstResource; }

  00050	e8 00 00 00 00	 call	 ?AfxGetModuleState@@YGPAVAFX_MODULE_STATE@@XZ ; AfxGetModuleState
  00055	89 78 0c	 mov	 DWORD PTR [eax+12], edi
; File D:\git\src\IBK\IBK_DRFN\ProjSrc\SrcChartEx\ChartAddIn\ChartDesignPropertyAddIn\ChartDesignPropertyAddIn\ViewDesignPage.cpp

; 110  : 	m_toolTip.Create( this );

  00058	8d bb 80 01 00
	00		 lea	 edi, DWORD PTR [ebx+384]
  0005e	c7 45 fc 00 00
	00 00		 mov	 DWORD PTR __$EHRec$[ebp+8], 0
  00065	53		 push	 ebx
  00066	8b cf		 mov	 ecx, edi
  00068	e8 00 00 00 00	 call	 ?Create@CDlgToolTip@@QAEXPAVCWnd@@@Z ; CDlgToolTip::Create

; 111  : 	CDWordArray dwaInfo;

  0006d	8d 4d dc	 lea	 ecx, DWORD PTR _dwaInfo$[ebp]
  00070	e8 00 00 00 00	 call	 ??0CDWordArray@@QAE@XZ	; CDWordArray::CDWordArray
; File C:\Program Files (x86)\Microsoft Visual Studio\2019\Community\VC\Tools\MSVC\14.29.30133\atlmfc\include\afxcoll.inl

; 114  : 	{ SetSize(0); }

  00075	6a ff		 push	 -1
  00077	6a 00		 push	 0
  00079	8d 4d dc	 lea	 ecx, DWORD PTR _dwaInfo$[ebp]
; File D:\git\src\IBK\IBK_DRFN\ProjSrc\SrcChartEx\ChartAddIn\ChartDesignPropertyAddIn\ChartDesignPropertyAddIn\ViewDesignPage.cpp

; 111  : 	CDWordArray dwaInfo;

  0007c	c6 45 fc 01	 mov	 BYTE PTR __$EHRec$[ebp+8], 1
; File C:\Program Files (x86)\Microsoft Visual Studio\2019\Community\VC\Tools\MSVC\14.29.30133\atlmfc\include\afxcoll.inl

; 114  : 	{ SetSize(0); }

  00080	e8 00 00 00 00	 call	 ?SetSize@CDWordArray@@QAEXHH@Z ; CDWordArray::SetSize

; 137  : 		SetAtGrow(nIndex, newElement);

  00085	68 4f 04 00 00	 push	 1103			; 0000044fH
  0008a	ff 75 e4	 push	 DWORD PTR _dwaInfo$[ebp+8]
  0008d	8d 4d dc	 lea	 ecx, DWORD PTR _dwaInfo$[ebp]
  00090	e8 00 00 00 00	 call	 ?SetAtGrow@CDWordArray@@QAEXHK@Z ; CDWordArray::SetAtGrow
; File D:\git\src\IBK\IBK_DRFN\ProjSrc\SrcChartEx\ChartAddIn\ChartDesignPropertyAddIn\ChartDesignPropertyAddIn\ViewDesignPage.cpp

; 115  : 	m_toolTip.AddControlInfo( IDC_STATIC31, dwaInfo );

  00095	6a 00		 push	 0
  00097	68 ff ff dc 00	 push	 14483455		; 00dcffffH
  0009c	8d 45 dc	 lea	 eax, DWORD PTR _dwaInfo$[ebp]
  0009f	8b cf		 mov	 ecx, edi
  000a1	50		 push	 eax
  000a2	68 a8 1b 00 00	 push	 7080			; 00001ba8H
  000a7	e8 00 00 00 00	 call	 ?AddControlInfo@CDlgToolTip@@QAEHIAAVCDWordArray@@KK@Z ; CDlgToolTip::AddControlInfo
; File C:\Program Files (x86)\Microsoft Visual Studio\2019\Community\VC\Tools\MSVC\14.29.30133\atlmfc\include\afxcoll.inl

; 114  : 	{ SetSize(0); }

  000ac	6a ff		 push	 -1
  000ae	6a 00		 push	 0
  000b0	8d 4d dc	 lea	 ecx, DWORD PTR _dwaInfo$[ebp]
  000b3	e8 00 00 00 00	 call	 ?SetSize@CDWordArray@@QAEXHH@Z ; CDWordArray::SetSize

; 137  : 		SetAtGrow(nIndex, newElement);

  000b8	68 50 04 00 00	 push	 1104			; 00000450H
  000bd	ff 75 e4	 push	 DWORD PTR _dwaInfo$[ebp+8]
  000c0	8d 4d dc	 lea	 ecx, DWORD PTR _dwaInfo$[ebp]
  000c3	e8 00 00 00 00	 call	 ?SetAtGrow@CDWordArray@@QAEXHK@Z ; CDWordArray::SetAtGrow
; File D:\git\src\IBK\IBK_DRFN\ProjSrc\SrcChartEx\ChartAddIn\ChartDesignPropertyAddIn\ChartDesignPropertyAddIn\ViewDesignPage.cpp

; 119  : 	m_toolTip.AddControlInfo( IDC_STATIC32, dwaInfo );

  000c8	6a 00		 push	 0
  000ca	68 ff ff dc 00	 push	 14483455		; 00dcffffH
  000cf	8d 45 dc	 lea	 eax, DWORD PTR _dwaInfo$[ebp]
  000d2	8b cf		 mov	 ecx, edi
  000d4	50		 push	 eax
  000d5	68 a9 1b 00 00	 push	 7081			; 00001ba9H
  000da	e8 00 00 00 00	 call	 ?AddControlInfo@CDlgToolTip@@QAEHIAAVCDWordArray@@KK@Z ; CDlgToolTip::AddControlInfo
; File C:\Program Files (x86)\Microsoft Visual Studio\2019\Community\VC\Tools\MSVC\14.29.30133\atlmfc\include\afxcoll.inl

; 114  : 	{ SetSize(0); }

  000df	6a ff		 push	 -1
  000e1	6a 00		 push	 0
  000e3	8d 4d dc	 lea	 ecx, DWORD PTR _dwaInfo$[ebp]
  000e6	e8 00 00 00 00	 call	 ?SetSize@CDWordArray@@QAEXHH@Z ; CDWordArray::SetSize

; 137  : 		SetAtGrow(nIndex, newElement);

  000eb	68 51 04 00 00	 push	 1105			; 00000451H
  000f0	ff 75 e4	 push	 DWORD PTR _dwaInfo$[ebp+8]
  000f3	8d 4d dc	 lea	 ecx, DWORD PTR _dwaInfo$[ebp]
  000f6	e8 00 00 00 00	 call	 ?SetAtGrow@CDWordArray@@QAEXHK@Z ; CDWordArray::SetAtGrow
; File D:\git\src\IBK\IBK_DRFN\ProjSrc\SrcChartEx\ChartAddIn\ChartDesignPropertyAddIn\ChartDesignPropertyAddIn\ViewDesignPage.cpp

; 123  : 	m_toolTip.AddControlInfo( IDC_DISPLAYTOTALDATA, dwaInfo );

  000fb	6a 00		 push	 0
  000fd	68 ff ff dc 00	 push	 14483455		; 00dcffffH
  00102	8d 45 dc	 lea	 eax, DWORD PTR _dwaInfo$[ebp]
  00105	8b cf		 mov	 ecx, edi
  00107	50		 push	 eax
  00108	68 66 1b 00 00	 push	 7014			; 00001b66H
  0010d	e8 00 00 00 00	 call	 ?AddControlInfo@CDlgToolTip@@QAEHIAAVCDWordArray@@KK@Z ; CDlgToolTip::AddControlInfo
; File C:\Program Files (x86)\Microsoft Visual Studio\2019\Community\VC\Tools\MSVC\14.29.30133\atlmfc\include\afxcoll.inl

; 114  : 	{ SetSize(0); }

  00112	6a ff		 push	 -1
  00114	6a 00		 push	 0
  00116	8d 4d dc	 lea	 ecx, DWORD PTR _dwaInfo$[ebp]
  00119	e8 00 00 00 00	 call	 ?SetSize@CDWordArray@@QAEXHH@Z ; CDWordArray::SetSize

; 137  : 		SetAtGrow(nIndex, newElement);

  0011e	68 52 04 00 00	 push	 1106			; 00000452H
  00123	ff 75 e4	 push	 DWORD PTR _dwaInfo$[ebp+8]
  00126	8d 4d dc	 lea	 ecx, DWORD PTR _dwaInfo$[ebp]
  00129	e8 00 00 00 00	 call	 ?SetAtGrow@CDWordArray@@QAEXHK@Z ; CDWordArray::SetAtGrow
; File D:\git\src\IBK\IBK_DRFN\ProjSrc\SrcChartEx\ChartAddIn\ChartDesignPropertyAddIn\ChartDesignPropertyAddIn\ViewDesignPage.cpp

; 127  : 	m_toolTip.AddControlInfo( IDC_STATIC33, dwaInfo );

  0012e	6a 00		 push	 0
  00130	68 ff ff dc 00	 push	 14483455		; 00dcffffH
  00135	8d 45 dc	 lea	 eax, DWORD PTR _dwaInfo$[ebp]
  00138	8b cf		 mov	 ecx, edi
  0013a	50		 push	 eax
  0013b	68 aa 1b 00 00	 push	 7082			; 00001baaH
  00140	e8 00 00 00 00	 call	 ?AddControlInfo@CDlgToolTip@@QAEHIAAVCDWordArray@@KK@Z ; CDlgToolTip::AddControlInfo

; 128  : 	m_toolTip.AddControlInfo( IDC_DATACOUNTPERONEPAGE, dwaInfo );

  00145	6a 00		 push	 0
  00147	68 ff ff dc 00	 push	 14483455		; 00dcffffH
  0014c	8d 45 dc	 lea	 eax, DWORD PTR _dwaInfo$[ebp]
  0014f	8b cf		 mov	 ecx, edi
  00151	50		 push	 eax
  00152	68 67 1b 00 00	 push	 7015			; 00001b67H
  00157	e8 00 00 00 00	 call	 ?AddControlInfo@CDlgToolTip@@QAEHIAAVCDWordArray@@KK@Z ; CDlgToolTip::AddControlInfo
; File C:\Program Files (x86)\Microsoft Visual Studio\2019\Community\VC\Tools\MSVC\14.29.30133\atlmfc\include\afxcoll.inl

; 114  : 	{ SetSize(0); }

  0015c	6a ff		 push	 -1
  0015e	6a 00		 push	 0
  00160	8d 4d dc	 lea	 ecx, DWORD PTR _dwaInfo$[ebp]
  00163	e8 00 00 00 00	 call	 ?SetSize@CDWordArray@@QAEXHH@Z ; CDWordArray::SetSize

; 137  : 		SetAtGrow(nIndex, newElement);

  00168	68 53 04 00 00	 push	 1107			; 00000453H
  0016d	ff 75 e4	 push	 DWORD PTR _dwaInfo$[ebp+8]
  00170	8d 4d dc	 lea	 ecx, DWORD PTR _dwaInfo$[ebp]
  00173	e8 00 00 00 00	 call	 ?SetAtGrow@CDWordArray@@QAEXHK@Z ; CDWordArray::SetAtGrow
; File D:\git\src\IBK\IBK_DRFN\ProjSrc\SrcChartEx\ChartAddIn\ChartDesignPropertyAddIn\ChartDesignPropertyAddIn\ViewDesignPage.cpp

; 132  : 	m_toolTip.AddControlInfo( IDC_STATIC34, dwaInfo );

  00178	6a 00		 push	 0
  0017a	68 ff ff dc 00	 push	 14483455		; 00dcffffH
  0017f	8d 45 dc	 lea	 eax, DWORD PTR _dwaInfo$[ebp]
  00182	8b cf		 mov	 ecx, edi
  00184	50		 push	 eax
  00185	68 96 1b 00 00	 push	 7062			; 00001b96H
  0018a	e8 00 00 00 00	 call	 ?AddControlInfo@CDlgToolTip@@QAEHIAAVCDWordArray@@KK@Z ; CDlgToolTip::AddControlInfo

; 133  : }

  0018f	8d 4d dc	 lea	 ecx, DWORD PTR _dwaInfo$[ebp]
  00192	e8 00 00 00 00	 call	 ??1CDWordArray@@UAE@XZ	; CDWordArray::~CDWordArray
; File D:\git\src\IBK\IBK_DRFN\ProjSrc\SrcChartEx\ChartAddIn\ChartDesignPropertyAddIn\Include_Chart\Dll_Load\IMetaTable.h

; 1036 : 	{

  00197	c7 45 fc 02 00
	00 00		 mov	 DWORD PTR __$EHRec$[ebp+8], 2
; File C:\Program Files (x86)\Microsoft Visual Studio\2019\Community\VC\Tools\MSVC\14.29.30133\atlmfc\include\afxwin1.inl

; 27   : 	{ ASSERT(hInstResource != NULL); afxCurrentResourceHandle = hInstResource; }

  0019e	e8 00 00 00 00	 call	 ?AfxGetModuleState@@YGPAVAFX_MODULE_STATE@@XZ ; AfxGetModuleState
  001a3	89 70 0c	 mov	 DWORD PTR [eax+12], esi
; File D:\git\src\IBK\IBK_DRFN\ProjSrc\SrcChartEx\ChartAddIn\ChartDesignPropertyAddIn\ChartDesignPropertyAddIn\ViewDesignPage.cpp

; 133  : }

  001a6	8b 4d f4	 mov	 ecx, DWORD PTR __$EHRec$[ebp]
  001a9	64 89 0d 00 00
	00 00		 mov	 DWORD PTR fs:0, ecx
  001b0	59		 pop	 ecx
  001b1	5f		 pop	 edi
  001b2	5e		 pop	 esi
  001b3	5b		 pop	 ebx
  001b4	8b e5		 mov	 esp, ebp
  001b6	5d		 pop	 ebp
  001b7	c3		 ret	 0
_TEXT	ENDS
;	COMDAT text$x
text$x	SEGMENT
__unwindfunclet$?CreateToolTip@CViewDesignPage@@AAEXXZ$0:
  00000	8d 4d f0	 lea	 ecx, DWORD PTR ___mlrs__$[ebp]
  00003	e9 00 00 00 00	 jmp	 ??1CMultiLanguageResourceSetter@@QAE@XZ ; CMultiLanguageResourceSetter::~CMultiLanguageResourceSetter
__unwindfunclet$?CreateToolTip@CViewDesignPage@@AAEXXZ$1:
  00008	8d 4d dc	 lea	 ecx, DWORD PTR _dwaInfo$[ebp]
  0000b	e9 00 00 00 00	 jmp	 ??1CDWordArray@@UAE@XZ	; CDWordArray::~CDWordArray
  00010	cc		 int	 3
  00011	cc		 int	 3
  00012	cc		 int	 3
  00013	cc		 int	 3
  00014	cc		 int	 3
__ehhandler$?CreateToolTip@CViewDesignPage@@AAEXXZ:
  00015	90		 npad	 1
  00016	90		 npad	 1
  00017	8b 54 24 08	 mov	 edx, DWORD PTR [esp+8]
  0001b	8d 42 0c	 lea	 eax, DWORD PTR [edx+12]
  0001e	8b 4a d8	 mov	 ecx, DWORD PTR [edx-40]
  00021	33 c8		 xor	 ecx, eax
  00023	e8 00 00 00 00	 call	 @__security_check_cookie@4
  00028	b8 00 00 00 00	 mov	 eax, OFFSET __ehfuncinfo$?CreateToolTip@CViewDesignPage@@AAEXXZ
  0002d	e9 00 00 00 00	 jmp	 ___CxxFrameHandler3
text$x	ENDS
?CreateToolTip@CViewDesignPage@@AAEXXZ ENDP		; CViewDesignPage::CreateToolTip
; Function compile flags: /Ogtp
; File D:\git\src\IBK\IBK_DRFN\ProjSrc\SrcChartEx\ChartAddIn\ChartDesignPropertyAddIn\ChartDesignPropertyAddIn\ViewDesignPage.cpp
;	COMDAT ?GetMessageMap@CViewDesignPage@@MBEPBUAFX_MSGMAP@@XZ
_TEXT	SEGMENT
?GetMessageMap@CViewDesignPage@@MBEPBUAFX_MSGMAP@@XZ PROC ; CViewDesignPage::GetMessageMap, COMDAT
; _this$ = ecx

; 80   : BEGIN_MESSAGE_MAP(CViewDesignPage, CPropertyPage)

  00000	b8 00 00 00 00	 mov	 eax, OFFSET ?messageMap@?1??GetThisMessageMap@CViewDesignPage@@KGPBUAFX_MSGMAP@@XZ@4U3@B
  00005	c3		 ret	 0
?GetMessageMap@CViewDesignPage@@MBEPBUAFX_MSGMAP@@XZ ENDP ; CViewDesignPage::GetMessageMap
_TEXT	ENDS
; Function compile flags: /Ogtp
; File D:\git\src\IBK\IBK_DRFN\ProjSrc\SrcChartEx\ChartAddIn\ChartDesignPropertyAddIn\ChartDesignPropertyAddIn\ViewDesignPage.cpp
;	COMDAT ?GetThisMessageMap@CViewDesignPage@@KGPBUAFX_MSGMAP@@XZ
_TEXT	SEGMENT
?GetThisMessageMap@CViewDesignPage@@KGPBUAFX_MSGMAP@@XZ PROC ; CViewDesignPage::GetThisMessageMap, COMDAT

; 81   : 	//{{AFX_MSG_MAP(CViewDesignPage)
; 82   : 	ON_BN_CLICKED(IDC_DISPLAYTOTALDATA, OnDisplaytotaldata)
; 83   : 	ON_EN_CHANGE(IDC_MINDATACOUNT, OnChangeMindatacount)
; 84   : 	ON_BN_CLICKED(IDC_BTN_GRIDSHAPE_LINE, OnBtnGridshapeLine)
; 85   : 	ON_BN_CLICKED(IDC_BTN_GRIDSHAPE_CUTTEDLINE, OnBtnGridshapeCuttedline)
; 86   : 	ON_BN_CLICKED(IDC_BTN_GRIDSHAPE_DOTLINE, OnBtnGridshapeDotline)
; 87   : 	ON_BN_CLICKED(IDC_BTN_GRIDSHAPE_NONE, OnBtnGridshapeNone)
; 88   : 	//}}AFX_MSG_MAP
; 89   : END_MESSAGE_MAP()

  00000	b8 00 00 00 00	 mov	 eax, OFFSET ?messageMap@?1??GetThisMessageMap@CViewDesignPage@@KGPBUAFX_MSGMAP@@XZ@4U3@B
  00005	c3		 ret	 0
?GetThisMessageMap@CViewDesignPage@@KGPBUAFX_MSGMAP@@XZ ENDP ; CViewDesignPage::GetThisMessageMap
_TEXT	ENDS
; Function compile flags: /Ogtp
; File D:\git\src\IBK\IBK_DRFN\ProjSrc\SrcChartEx\ChartAddIn\ChartDesignPropertyAddIn\ChartDesignPropertyAddIn\ViewDesignPage.cpp
;	COMDAT ?OnBtnGridshapeNone@CViewDesignPage@@IAEXXZ
_TEXT	SEGMENT
?OnBtnGridshapeNone@CViewDesignPage@@IAEXXZ PROC	; CViewDesignPage::OnBtnGridshapeNone, COMDAT
; _this$ = ecx

; 211  : 	// TODO: Add your control notification handler code here
; 212  : 	SetAllGridType( CScaleBaseData::SLNONE);

  00000	6a 03		 push	 3
  00002	e8 00 00 00 00	 call	 ?SetAllGridType@CViewDesignPage@@IAEXH@Z ; CViewDesignPage::SetAllGridType

; 213  : }

  00007	c3		 ret	 0
?OnBtnGridshapeNone@CViewDesignPage@@IAEXXZ ENDP	; CViewDesignPage::OnBtnGridshapeNone
_TEXT	ENDS
; Function compile flags: /Ogtp
; File D:\git\src\IBK\IBK_DRFN\ProjSrc\SrcChartEx\ChartAddIn\ChartDesignPropertyAddIn\ChartDesignPropertyAddIn\ViewDesignPage.cpp
;	COMDAT ?OnBtnGridshapeDotline@CViewDesignPage@@IAEXXZ
_TEXT	SEGMENT
?OnBtnGridshapeDotline@CViewDesignPage@@IAEXXZ PROC	; CViewDesignPage::OnBtnGridshapeDotline, COMDAT
; _this$ = ecx

; 206  : 	// TODO: Add your control notification handler code here
; 207  : 	SetAllGridType( CScaleBaseData::SHORTDOTTEDLINE);

  00000	6a 02		 push	 2
  00002	e8 00 00 00 00	 call	 ?SetAllGridType@CViewDesignPage@@IAEXH@Z ; CViewDesignPage::SetAllGridType

; 208  : }

  00007	c3		 ret	 0
?OnBtnGridshapeDotline@CViewDesignPage@@IAEXXZ ENDP	; CViewDesignPage::OnBtnGridshapeDotline
_TEXT	ENDS
; Function compile flags: /Ogtp
; File D:\git\src\IBK\IBK_DRFN\ProjSrc\SrcChartEx\ChartAddIn\ChartDesignPropertyAddIn\ChartDesignPropertyAddIn\ViewDesignPage.cpp
;	COMDAT ?OnBtnGridshapeCuttedline@CViewDesignPage@@IAEXXZ
_TEXT	SEGMENT
?OnBtnGridshapeCuttedline@CViewDesignPage@@IAEXXZ PROC	; CViewDesignPage::OnBtnGridshapeCuttedline, COMDAT
; _this$ = ecx

; 201  : 	// TODO: Add your control notification handler code here
; 202  : 	SetAllGridType( CScaleBaseData::LONGDOTTEDLINE);

  00000	6a 01		 push	 1
  00002	e8 00 00 00 00	 call	 ?SetAllGridType@CViewDesignPage@@IAEXH@Z ; CViewDesignPage::SetAllGridType

; 203  : }

  00007	c3		 ret	 0
?OnBtnGridshapeCuttedline@CViewDesignPage@@IAEXXZ ENDP	; CViewDesignPage::OnBtnGridshapeCuttedline
_TEXT	ENDS
; Function compile flags: /Ogtp
; File D:\git\src\IBK\IBK_DRFN\ProjSrc\SrcChartEx\ChartAddIn\ChartDesignPropertyAddIn\ChartDesignPropertyAddIn\ViewDesignPage.cpp
;	COMDAT ?OnBtnGridshapeLine@CViewDesignPage@@IAEXXZ
_TEXT	SEGMENT
?OnBtnGridshapeLine@CViewDesignPage@@IAEXXZ PROC	; CViewDesignPage::OnBtnGridshapeLine, COMDAT
; _this$ = ecx

; 196  : 	// TODO: Add your control notification handler code here
; 197  : 	SetAllGridType( CScaleBaseData::SOLIDLINE);

  00000	6a 00		 push	 0
  00002	e8 00 00 00 00	 call	 ?SetAllGridType@CViewDesignPage@@IAEXH@Z ; CViewDesignPage::SetAllGridType

; 198  : }

  00007	c3		 ret	 0
?OnBtnGridshapeLine@CViewDesignPage@@IAEXXZ ENDP	; CViewDesignPage::OnBtnGridshapeLine
_TEXT	ENDS
; Function compile flags: /Ogtp
; File D:\git\src\IBK\IBK_DRFN\ProjSrc\SrcChartEx\ChartAddIn\ChartDesignPropertyAddIn\ChartDesignPropertyAddIn\ViewDesignPage.cpp
; File C:\Program Files (x86)\Microsoft Visual Studio\2019\Community\VC\Tools\MSVC\14.29.30133\atlmfc\include\afxwin1.inl
; File D:\git\src\IBK\IBK_DRFN\ProjSrc\SrcChartEx\ChartAddIn\ChartDesignPropertyAddIn\Include_Chart\Dll_Load\IMetaTable.h
; File C:\Program Files (x86)\Microsoft Visual Studio\2019\Community\VC\Tools\MSVC\14.29.30133\atlmfc\include\afxwin1.inl
; File D:\git\src\IBK\IBK_DRFN\ProjSrc\SrcChartEx\ChartAddIn\ChartDesignPropertyAddIn\ChartDesignPropertyAddIn\ViewDesignPage.cpp
; File D:\git\src\IBK\IBK_DRFN\ProjSrc\SrcChartEx\ChartAddIn\ChartDesignPropertyAddIn\Include_Chart\Dll_Load\IMetaTable.h
; File C:\Program Files (x86)\Microsoft Visual Studio\2019\Community\VC\Tools\MSVC\14.29.30133\atlmfc\include\afxwin1.inl
; File D:\git\src\IBK\IBK_DRFN\ProjSrc\SrcChartEx\ChartAddIn\ChartDesignPropertyAddIn\ChartDesignPropertyAddIn\ViewDesignPage.cpp
;	COMDAT ?OnChangeMindatacount@CViewDesignPage@@IAEXXZ
_TEXT	SEGMENT
___mlrs__$2 = -24					; size = 4
_str$ = -20						; size = 4
_strMsg$3 = -16						; size = 4
__$EHRec$ = -12						; size = 12
?OnChangeMindatacount@CViewDesignPage@@IAEXXZ PROC	; CViewDesignPage::OnChangeMindatacount, COMDAT
; _this$ = ecx

; 166  : {

  00000	55		 push	 ebp
  00001	8b ec		 mov	 ebp, esp
  00003	6a ff		 push	 -1
  00005	68 00 00 00 00	 push	 __ehhandler$?OnChangeMindatacount@CViewDesignPage@@IAEXXZ
  0000a	64 a1 00 00 00
	00		 mov	 eax, DWORD PTR fs:0
  00010	50		 push	 eax
  00011	83 ec 0c	 sub	 esp, 12			; 0000000cH
  00014	53		 push	 ebx
  00015	56		 push	 esi
  00016	57		 push	 edi
  00017	a1 00 00 00 00	 mov	 eax, DWORD PTR ___security_cookie
  0001c	33 c5		 xor	 eax, ebp
  0001e	50		 push	 eax
  0001f	8d 45 f4	 lea	 eax, DWORD PTR __$EHRec$[ebp]
  00022	64 a3 00 00 00
	00		 mov	 DWORD PTR fs:0, eax
  00028	8b d9		 mov	 ebx, ecx

; 167  : 	CString str;

  0002a	8d 4d ec	 lea	 ecx, DWORD PTR _str$[ebp]
  0002d	ff 15 00 00 00
	00		 call	 DWORD PTR __imp_??0?$CStringT@DV?$StrTraitMFC_DLL@DV?$ChTraitsCRT@D@ATL@@@@@ATL@@QAE@XZ

; 168  : 	CEdit* pmindatacount = (CEdit* )GetDlgItem(IDC_MINDATACOUNT);

  00033	68 68 1b 00 00	 push	 7016			; 00001b68H
  00038	8b cb		 mov	 ecx, ebx
  0003a	c7 45 fc 00 00
	00 00		 mov	 DWORD PTR __$EHRec$[ebp+8], 0
  00041	e8 00 00 00 00	 call	 ?GetDlgItem@CWnd@@QBEPAV1@H@Z ; CWnd::GetDlgItem

; 169  : 	pmindatacount->GetWindowText(str);

  00046	8d 4d ec	 lea	 ecx, DWORD PTR _str$[ebp]
  00049	51		 push	 ecx
  0004a	8b c8		 mov	 ecx, eax
  0004c	e8 00 00 00 00	 call	 ?GetWindowTextA@CWnd@@QBEXAAV?$CStringT@DV?$StrTraitMFC_DLL@DV?$ChTraitsCRT@D@ATL@@@@@ATL@@@Z ; CWnd::GetWindowTextA

; 170  : 	m_nMinDataCountOnOnePage = atoi(str);

  00051	ff 75 ec	 push	 DWORD PTR _str$[ebp]
  00054	ff 15 00 00 00
	00		 call	 DWORD PTR __imp__atoi
  0005a	83 c4 04	 add	 esp, 4
  0005d	89 83 70 01 00
	00		 mov	 DWORD PTR [ebx+368], eax

; 171  : 
; 172  : 	if(m_nDataCountPerOnePage < m_nMinDataCountOnOnePage) 

  00063	39 83 48 01 00
	00		 cmp	 DWORD PTR [ebx+328], eax
  00069	7d 7d		 jge	 SHORT $LN18@OnChangeMi

; 173  : 	{
; 174  : 		ML_SET_LANGUAGE_RES();

  0006b	e8 00 00 00 00	 call	 ?AfxGetStaticModuleState@@YGPAVAFX_MODULE_STATE@@XZ ; AfxGetStaticModuleState
  00070	b9 00 00 00 00	 mov	 ecx, OFFSET ?g_iMetaTable@@3VIMetaTable@@A ; g_iMetaTable
  00075	8b 40 08	 mov	 eax, DWORD PTR [eax+8]
  00078	50		 push	 eax
  00079	ff b3 64 02 00
	00		 push	 DWORD PTR [ebx+612]
  0007f	e8 00 00 00 00	 call	 ?LoadResourceDLL@IMetaTable@@QAEPAUHINSTANCE__@@PAUHWND__@@PAU2@@Z ; IMetaTable::LoadResourceDLL
  00084	8b f8		 mov	 edi, eax
; File C:\Program Files (x86)\Microsoft Visual Studio\2019\Community\VC\Tools\MSVC\14.29.30133\atlmfc\include\afxwin1.inl

; 25   : 		return afxCurrentResourceHandle; }

  00086	e8 00 00 00 00	 call	 ?AfxGetModuleState@@YGPAVAFX_MODULE_STATE@@XZ ; AfxGetModuleState
; File D:\git\src\IBK\IBK_DRFN\ProjSrc\SrcChartEx\ChartAddIn\ChartDesignPropertyAddIn\Include_Chart\Dll_Load\IMetaTable.h

; 1032 : 		m_hInstance = AfxGetResourceHandle();

  0008b	8b 70 0c	 mov	 esi, DWORD PTR [eax+12]
  0008e	89 75 e8	 mov	 DWORD PTR ___mlrs__$2[ebp], esi
; File C:\Program Files (x86)\Microsoft Visual Studio\2019\Community\VC\Tools\MSVC\14.29.30133\atlmfc\include\afxwin1.inl

; 27   : 	{ ASSERT(hInstResource != NULL); afxCurrentResourceHandle = hInstResource; }

  00091	e8 00 00 00 00	 call	 ?AfxGetModuleState@@YGPAVAFX_MODULE_STATE@@XZ ; AfxGetModuleState
  00096	89 78 0c	 mov	 DWORD PTR [eax+12], edi
; File D:\git\src\IBK\IBK_DRFN\ProjSrc\SrcChartEx\ChartAddIn\ChartDesignPropertyAddIn\ChartDesignPropertyAddIn\ViewDesignPage.cpp

; 175  : 		CString strMsg;

  00099	8d 4d f0	 lea	 ecx, DWORD PTR _strMsg$3[ebp]
  0009c	ff 15 00 00 00
	00		 call	 DWORD PTR __imp_??0?$CStringT@DV?$StrTraitMFC_DLL@DV?$ChTraitsCRT@D@ATL@@@@@ATL@@QAE@XZ

; 176  : 		strMsg.LoadString( IDS_ENTER_LESS_THAN_VIEW_COUNT);

  000a2	68 6d 04 00 00	 push	 1133			; 0000046dH
  000a7	8d 4d f0	 lea	 ecx, DWORD PTR _strMsg$3[ebp]
  000aa	c6 45 fc 02	 mov	 BYTE PTR __$EHRec$[ebp+8], 2
  000ae	ff 15 00 00 00
	00		 call	 DWORD PTR __imp_?LoadStringA@?$CStringT@DV?$StrTraitMFC_DLL@DV?$ChTraitsCRT@D@ATL@@@@@ATL@@QAEHI@Z

; 177  : 		AfxMessageBox( strMsg);

  000b4	6a 00		 push	 0
  000b6	6a 00		 push	 0
  000b8	ff 75 f0	 push	 DWORD PTR _strMsg$3[ebp]
  000bb	e8 00 00 00 00	 call	 ?AfxMessageBox@@YGHPBDII@Z ; AfxMessageBox

; 178  : 		m_nMinDataCountOnOnePage = 0;
; 179  : 		UpdateData(FALSE);

  000c0	6a 00		 push	 0
  000c2	8b cb		 mov	 ecx, ebx
  000c4	c7 83 70 01 00
	00 00 00 00 00	 mov	 DWORD PTR [ebx+368], 0
  000ce	e8 00 00 00 00	 call	 ?UpdateData@CWnd@@QAEHH@Z ; CWnd::UpdateData

; 180  : 	}

  000d3	8d 4d f0	 lea	 ecx, DWORD PTR _strMsg$3[ebp]
  000d6	ff 15 00 00 00
	00		 call	 DWORD PTR __imp_??1?$CStringT@DV?$StrTraitMFC_DLL@DV?$ChTraitsCRT@D@ATL@@@@@ATL@@QAE@XZ
; File D:\git\src\IBK\IBK_DRFN\ProjSrc\SrcChartEx\ChartAddIn\ChartDesignPropertyAddIn\Include_Chart\Dll_Load\IMetaTable.h

; 1036 : 	{

  000dc	c6 45 fc 03	 mov	 BYTE PTR __$EHRec$[ebp+8], 3
; File C:\Program Files (x86)\Microsoft Visual Studio\2019\Community\VC\Tools\MSVC\14.29.30133\atlmfc\include\afxwin1.inl

; 27   : 	{ ASSERT(hInstResource != NULL); afxCurrentResourceHandle = hInstResource; }

  000e0	e8 00 00 00 00	 call	 ?AfxGetModuleState@@YGPAVAFX_MODULE_STATE@@XZ ; AfxGetModuleState
  000e5	89 70 0c	 mov	 DWORD PTR [eax+12], esi
$LN18@OnChangeMi:
; File D:\git\src\IBK\IBK_DRFN\ProjSrc\SrcChartEx\ChartAddIn\ChartDesignPropertyAddIn\ChartDesignPropertyAddIn\ViewDesignPage.cpp

; 181  : }

  000e8	8d 4d ec	 lea	 ecx, DWORD PTR _str$[ebp]
  000eb	ff 15 00 00 00
	00		 call	 DWORD PTR __imp_??1?$CStringT@DV?$StrTraitMFC_DLL@DV?$ChTraitsCRT@D@ATL@@@@@ATL@@QAE@XZ
  000f1	8b 4d f4	 mov	 ecx, DWORD PTR __$EHRec$[ebp]
  000f4	64 89 0d 00 00
	00 00		 mov	 DWORD PTR fs:0, ecx
  000fb	59		 pop	 ecx
  000fc	5f		 pop	 edi
  000fd	5e		 pop	 esi
  000fe	5b		 pop	 ebx
  000ff	8b e5		 mov	 esp, ebp
  00101	5d		 pop	 ebp
  00102	c3		 ret	 0
_TEXT	ENDS
;	COMDAT text$x
text$x	SEGMENT
__unwindfunclet$?OnChangeMindatacount@CViewDesignPage@@IAEXXZ$0:
  00000	8d 4d ec	 lea	 ecx, DWORD PTR _str$[ebp]
  00003	ff 25 00 00 00
	00		 jmp	 DWORD PTR __imp_??1?$CStringT@DV?$StrTraitMFC_DLL@DV?$ChTraitsCRT@D@ATL@@@@@ATL@@QAE@XZ
__unwindfunclet$?OnChangeMindatacount@CViewDesignPage@@IAEXXZ$1:
  00009	8d 4d e8	 lea	 ecx, DWORD PTR ___mlrs__$2[ebp]
  0000c	e9 00 00 00 00	 jmp	 ??1CMultiLanguageResourceSetter@@QAE@XZ ; CMultiLanguageResourceSetter::~CMultiLanguageResourceSetter
__unwindfunclet$?OnChangeMindatacount@CViewDesignPage@@IAEXXZ$2:
  00011	8d 4d f0	 lea	 ecx, DWORD PTR _strMsg$3[ebp]
  00014	ff 25 00 00 00
	00		 jmp	 DWORD PTR __imp_??1?$CStringT@DV?$StrTraitMFC_DLL@DV?$ChTraitsCRT@D@ATL@@@@@ATL@@QAE@XZ
  0001a	cc		 int	 3
  0001b	cc		 int	 3
  0001c	cc		 int	 3
  0001d	cc		 int	 3
  0001e	cc		 int	 3
__ehhandler$?OnChangeMindatacount@CViewDesignPage@@IAEXXZ:
  0001f	90		 npad	 1
  00020	90		 npad	 1
  00021	8b 54 24 08	 mov	 edx, DWORD PTR [esp+8]
  00025	8d 42 0c	 lea	 eax, DWORD PTR [edx+12]
  00028	8b 4a e4	 mov	 ecx, DWORD PTR [edx-28]
  0002b	33 c8		 xor	 ecx, eax
  0002d	e8 00 00 00 00	 call	 @__security_check_cookie@4
  00032	b8 00 00 00 00	 mov	 eax, OFFSET __ehfuncinfo$?OnChangeMindatacount@CViewDesignPage@@IAEXXZ
  00037	e9 00 00 00 00	 jmp	 ___CxxFrameHandler3
text$x	ENDS
?OnChangeMindatacount@CViewDesignPage@@IAEXXZ ENDP	; CViewDesignPage::OnChangeMindatacount
; Function compile flags: /Ogtp
; File D:\git\src\IBK\IBK_DRFN\ProjSrc\SrcChartEx\ChartAddIn\ChartDesignPropertyAddIn\ChartDesignPropertyAddIn\ViewDesignPage.cpp
;	COMDAT ?OnDisplaytotaldata@CViewDesignPage@@IAEXXZ
_TEXT	SEGMENT
?OnDisplaytotaldata@CViewDesignPage@@IAEXXZ PROC	; CViewDesignPage::OnDisplaytotaldata, COMDAT
; _this$ = ecx

; 150  : {

  00000	56		 push	 esi

; 151  : 	//sy 2005.12.08.
; 152  : 	UpdateData(TRUE);

  00001	6a 01		 push	 1
  00003	8b f1		 mov	 esi, ecx
  00005	e8 00 00 00 00	 call	 ?UpdateData@CWnd@@QAEHH@Z ; CWnd::UpdateData

; 153  : 	if(m_bDisplayTotalData == TRUE)

  0000a	83 be 44 01 00
	00 01		 cmp	 DWORD PTR [esi+324], 1
  00011	8d 8e c0 00 00
	00		 lea	 ecx, DWORD PTR [esi+192]
  00017	75 22		 jne	 SHORT $LN2@OnDisplayt

; 154  : 	{
; 155  : 		m_CtrlDataCountPerOnePage.EnableWindow(FALSE);

  00019	6a 00		 push	 0
  0001b	e8 00 00 00 00	 call	 ?EnableWindow@CWnd@@QAEHH@Z ; CWnd::EnableWindow

; 186  : 	CWnd* pWnd = (CWnd*) GetDlgItem(nID);

  00020	68 d9 1b 00 00	 push	 7129			; 00001bd9H
  00025	8b ce		 mov	 ecx, esi
  00027	e8 00 00 00 00	 call	 ?GetDlgItem@CWnd@@QBEPAV1@H@Z ; CWnd::GetDlgItem

; 187  : 	if(pWnd != NULL)

  0002c	85 c0		 test	 eax, eax
  0002e	74 2b		 je	 SHORT $LN9@OnDisplayt

; 188  : 		pWnd->EnableWindow(bEnable);

  00030	6a 00		 push	 0

; 161  : 		EnableWindow(IDC_DISPLAY_TRDATA, true);	
; 162  : 	}
; 163  : }

  00032	8b c8		 mov	 ecx, eax
  00034	e8 00 00 00 00	 call	 ?EnableWindow@CWnd@@QAEHH@Z ; CWnd::EnableWindow
  00039	5e		 pop	 esi
  0003a	c3		 ret	 0
$LN2@OnDisplayt:

; 156  : 		EnableWindow(IDC_DISPLAY_TRDATA, false);
; 157  : 	}
; 158  : 	else
; 159  : 	{
; 160  : 		m_CtrlDataCountPerOnePage.EnableWindow(TRUE);

  0003b	6a 01		 push	 1
  0003d	e8 00 00 00 00	 call	 ?EnableWindow@CWnd@@QAEHH@Z ; CWnd::EnableWindow

; 186  : 	CWnd* pWnd = (CWnd*) GetDlgItem(nID);

  00042	68 d9 1b 00 00	 push	 7129			; 00001bd9H
  00047	8b ce		 mov	 ecx, esi
  00049	e8 00 00 00 00	 call	 ?GetDlgItem@CWnd@@QBEPAV1@H@Z ; CWnd::GetDlgItem

; 187  : 	if(pWnd != NULL)

  0004e	85 c0		 test	 eax, eax
  00050	74 09		 je	 SHORT $LN9@OnDisplayt

; 188  : 		pWnd->EnableWindow(bEnable);

  00052	6a 01		 push	 1

; 161  : 		EnableWindow(IDC_DISPLAY_TRDATA, true);	
; 162  : 	}
; 163  : }

  00054	8b c8		 mov	 ecx, eax
  00056	e8 00 00 00 00	 call	 ?EnableWindow@CWnd@@QAEHH@Z ; CWnd::EnableWindow
$LN9@OnDisplayt:
  0005b	5e		 pop	 esi
  0005c	c3		 ret	 0
?OnDisplaytotaldata@CViewDesignPage@@IAEXXZ ENDP	; CViewDesignPage::OnDisplaytotaldata
_TEXT	ENDS
; Function compile flags: /Ogtp
; File D:\git\src\IBK\IBK_DRFN\ProjSrc\SrcChartEx\ChartAddIn\ChartDesignPropertyAddIn\ChartDesignPropertyAddIn\ViewDesignPage.cpp
;	COMDAT ?OnInitDialog@CViewDesignPage@@MAEHXZ
_TEXT	SEGMENT
?OnInitDialog@CViewDesignPage@@MAEHXZ PROC		; CViewDesignPage::OnInitDialog, COMDAT
; _this$ = ecx

; 95   : {

  00000	56		 push	 esi
  00001	8b f1		 mov	 esi, ecx

; 96   : 	CPropertyPage::OnInitDialog();

  00003	e8 00 00 00 00	 call	 ?OnInitDialog@CDialog@@UAEHXZ ; CDialog::OnInitDialog

; 97   : 
; 98   : 	//sy 2005.12.08.
; 99   : 	OnDisplaytotaldata();

  00008	8b ce		 mov	 ecx, esi
  0000a	e8 00 00 00 00	 call	 ?OnDisplaytotaldata@CViewDesignPage@@IAEXXZ ; CViewDesignPage::OnDisplaytotaldata

; 100  : 
; 101  : 	CreateToolTip();

  0000f	8b ce		 mov	 ecx, esi
  00011	e8 00 00 00 00	 call	 ?CreateToolTip@CViewDesignPage@@AAEXXZ ; CViewDesignPage::CreateToolTip

; 102  : 	return TRUE;  // return TRUE unless you set the focus to a control

  00016	b8 01 00 00 00	 mov	 eax, 1
  0001b	5e		 pop	 esi

; 103  : 	              // EXCEPTION: OCX Property Pages should return FALSE
; 104  : }

  0001c	c3		 ret	 0
?OnInitDialog@CViewDesignPage@@MAEHXZ ENDP		; CViewDesignPage::OnInitDialog
_TEXT	ENDS
; Function compile flags: /Ogtp
; File D:\git\src\IBK\IBK_DRFN\ProjSrc\SrcChartEx\ChartAddIn\ChartDesignPropertyAddIn\ChartDesignPropertyAddIn\ViewDesignPage.cpp
;	COMDAT ?DoDataExchange@CViewDesignPage@@MAEXPAVCDataExchange@@@Z
_TEXT	SEGMENT
_pDX$ = 8						; size = 4
?DoDataExchange@CViewDesignPage@@MAEXPAVCDataExchange@@@Z PROC ; CViewDesignPage::DoDataExchange, COMDAT
; _this$ = ecx

; 56   : {

  00000	55		 push	 ebp
  00001	8b ec		 mov	 ebp, esp
  00003	53		 push	 ebx
  00004	56		 push	 esi
  00005	8b d9		 mov	 ebx, ecx
  00007	57		 push	 edi

; 57   : 	CPropertyPage::DoDataExchange(pDX);
; 58   : 	//{{AFX_DATA_MAP(CViewDesignPage)
; 59   : 	DDX_Control(pDX, IDC_DATACOUNTPERONEPAGE, m_CtrlDataCountPerOnePage);

  00008	8b 7d 08	 mov	 edi, DWORD PTR _pDX$[ebp]
  0000b	8d 83 c0 00 00
	00		 lea	 eax, DWORD PTR [ebx+192]
  00011	50		 push	 eax
  00012	68 67 1b 00 00	 push	 7015			; 00001b67H
  00017	57		 push	 edi
  00018	e8 00 00 00 00	 call	 ?DDX_Control@@YGXPAVCDataExchange@@HAAVCWnd@@@Z ; DDX_Control

; 60   : 	DDX_Radio(pDX, IDC_BORDERSHAPE, m_nBorderShape);

  0001d	8d 83 40 01 00
	00		 lea	 eax, DWORD PTR [ebx+320]
  00023	50		 push	 eax
  00024	68 17 27 00 00	 push	 10007			; 00002717H
  00029	57		 push	 edi
  0002a	e8 00 00 00 00	 call	 ?DDX_Radio@@YGXPAVCDataExchange@@HAAH@Z ; DDX_Radio

; 61   : 	DDX_Check(pDX, IDC_DISPLAYTOTALDATA, m_bDisplayTotalData);

  0002f	8d 83 44 01 00
	00		 lea	 eax, DWORD PTR [ebx+324]
  00035	50		 push	 eax
  00036	68 66 1b 00 00	 push	 7014			; 00001b66H
  0003b	57		 push	 edi
  0003c	e8 00 00 00 00	 call	 ?DDX_Check@@YGXPAVCDataExchange@@HAAH@Z ; DDX_Check

; 62   : 	DDX_Text(pDX, IDC_DATACOUNTPERONEPAGE, m_nDataCountPerOnePage);

  00041	8d 83 48 01 00
	00		 lea	 eax, DWORD PTR [ebx+328]
  00047	50		 push	 eax
  00048	68 67 1b 00 00	 push	 7015			; 00001b67H
  0004d	57		 push	 edi
  0004e	e8 00 00 00 00	 call	 ?DDX_Text@@YGXPAVCDataExchange@@HAAH@Z ; DDX_Text

; 63   : 	DDX_Text(pDX, IDC_LEFTSPACE, m_nLeftSpace);

  00053	8d 83 4c 01 00
	00		 lea	 eax, DWORD PTR [ebx+332]
  00059	50		 push	 eax
  0005a	68 23 27 00 00	 push	 10019			; 00002723H
  0005f	57		 push	 edi
  00060	e8 00 00 00 00	 call	 ?DDX_Text@@YGXPAVCDataExchange@@HAAH@Z ; DDX_Text

; 64   : 	DDX_Text(pDX, IDC_RIGHTSPACE, m_nRightSpace);

  00065	8d 83 50 01 00
	00		 lea	 eax, DWORD PTR [ebx+336]
  0006b	50		 push	 eax
  0006c	68 24 27 00 00	 push	 10020			; 00002724H
  00071	57		 push	 edi
  00072	e8 00 00 00 00	 call	 ?DDX_Text@@YGXPAVCDataExchange@@HAAH@Z ; DDX_Text

; 65   : 	DDX_Text(pDX, IDC_TOPSPACE, m_nTopSpace);

  00077	8d 83 54 01 00
	00		 lea	 eax, DWORD PTR [ebx+340]
  0007d	50		 push	 eax
  0007e	68 25 27 00 00	 push	 10021			; 00002725H
  00083	57		 push	 edi
  00084	e8 00 00 00 00	 call	 ?DDX_Text@@YGXPAVCDataExchange@@HAAH@Z ; DDX_Text

; 66   : 	DDX_Text(pDX, IDC_BOTTOMSPACE, m_nBottomSpace);

  00089	8d 83 58 01 00
	00		 lea	 eax, DWORD PTR [ebx+344]
  0008f	50		 push	 eax
  00090	68 26 27 00 00	 push	 10022			; 00002726H
  00095	57		 push	 edi
  00096	e8 00 00 00 00	 call	 ?DDX_Text@@YGXPAVCDataExchange@@HAAH@Z ; DDX_Text

; 67   : 	DDX_Radio(pDX, IDC_MARGIN_BORDERSHAPE, m_nMarginBorderType);

  0009b	8d 83 5c 01 00
	00		 lea	 eax, DWORD PTR [ebx+348]
  000a1	50		 push	 eax
  000a2	68 1e 27 00 00	 push	 10014			; 0000271eH
  000a7	57		 push	 edi
  000a8	e8 00 00 00 00	 call	 ?DDX_Radio@@YGXPAVCDataExchange@@HAAH@Z ; DDX_Radio

; 68   : 	DDX_Check(pDX, IDC_USECONDITIONTOTITLE, m_bUseConditiontoTitle);

  000ad	8d 83 60 01 00
	00		 lea	 eax, DWORD PTR [ebx+352]
  000b3	50		 push	 eax
  000b4	68 c4 1b 00 00	 push	 7108			; 00001bc4H
  000b9	57		 push	 edi
  000ba	e8 00 00 00 00	 call	 ?DDX_Check@@YGXPAVCDataExchange@@HAAH@Z ; DDX_Check

; 69   : 	DDX_Check(pDX, IDC_USEDATATOTITLE, m_bUseDatatoTitle);

  000bf	8d 83 64 01 00
	00		 lea	 eax, DWORD PTR [ebx+356]
  000c5	50		 push	 eax
  000c6	68 c5 1b 00 00	 push	 7109			; 00001bc5H
  000cb	57		 push	 edi
  000cc	e8 00 00 00 00	 call	 ?DDX_Check@@YGXPAVCDataExchange@@HAAH@Z ; DDX_Check

; 70   : 	DDX_Text(pDX, IDC_VERTGAP, m_nVertGap);

  000d1	8d 83 68 01 00
	00		 lea	 eax, DWORD PTR [ebx+360]
  000d7	50		 push	 eax
  000d8	68 29 27 00 00	 push	 10025			; 00002729H
  000dd	57		 push	 edi
  000de	e8 00 00 00 00	 call	 ?DDX_Text@@YGXPAVCDataExchange@@HAAH@Z ; DDX_Text

; 71   : 	DDX_Text(pDX, IDC_HORZGAP, m_nHorzGap);

  000e3	8d 83 6c 01 00
	00		 lea	 eax, DWORD PTR [ebx+364]
  000e9	50		 push	 eax
  000ea	68 27 27 00 00	 push	 10023			; 00002727H
  000ef	57		 push	 edi
  000f0	e8 00 00 00 00	 call	 ?DDX_Text@@YGXPAVCDataExchange@@HAAH@Z ; DDX_Text

; 72   : 	DDX_Text(pDX, IDC_MINDATACOUNT, m_nMinDataCountOnOnePage);

  000f5	8d 83 70 01 00
	00		 lea	 eax, DWORD PTR [ebx+368]
  000fb	50		 push	 eax
  000fc	68 68 1b 00 00	 push	 7016			; 00001b68H
  00101	57		 push	 edi
  00102	e8 00 00 00 00	 call	 ?DDX_Text@@YGXPAVCDataExchange@@HAAH@Z ; DDX_Text

; 73   : 	DDX_Text(pDX, IDC_BONGCOUNT_MARGIN, m_nBongCountMargin);

  00107	8d b3 74 01 00
	00		 lea	 esi, DWORD PTR [ebx+372]
  0010d	56		 push	 esi
  0010e	68 d5 1b 00 00	 push	 7125			; 00001bd5H
  00113	57		 push	 edi
  00114	e8 00 00 00 00	 call	 ?DDX_Text@@YGXPAVCDataExchange@@HAAH@Z ; DDX_Text

; 74   : 	DDV_MinMaxInt(pDX, m_nBongCountMargin, 0, 500);

  00119	68 f4 01 00 00	 push	 500			; 000001f4H
  0011e	6a 00		 push	 0
  00120	ff 36		 push	 DWORD PTR [esi]
  00122	57		 push	 edi
  00123	e8 00 00 00 00	 call	 ?DDV_MinMaxInt@@YGXPAVCDataExchange@@HHH@Z ; DDV_MinMaxInt

; 75   : 	DDX_Check(pDX, IDC_DISPLAY_TRDATA, m_bDisplayTRdata);

  00128	8d 83 78 01 00
	00		 lea	 eax, DWORD PTR [ebx+376]
  0012e	50		 push	 eax
  0012f	68 d9 1b 00 00	 push	 7129			; 00001bd9H
  00134	57		 push	 edi
  00135	e8 00 00 00 00	 call	 ?DDX_Check@@YGXPAVCDataExchange@@HAAH@Z ; DDX_Check
  0013a	5f		 pop	 edi
  0013b	5e		 pop	 esi
  0013c	5b		 pop	 ebx

; 76   : 	//}}AFX_DATA_MAP
; 77   : }

  0013d	5d		 pop	 ebp
  0013e	c2 04 00	 ret	 4
?DoDataExchange@CViewDesignPage@@MAEXPAVCDataExchange@@@Z ENDP ; CViewDesignPage::DoDataExchange
_TEXT	ENDS
; Function compile flags: /Ogtp
; File D:\git\src\IBK\IBK_DRFN\ProjSrc\SrcChartEx\ChartAddIn\ChartDesignPropertyAddIn\ChartDesignPropertyAddIn\ViewDesignPage.cpp
; File C:\Program Files (x86)\Microsoft Visual Studio\2019\Community\VC\Tools\MSVC\14.29.30133\atlmfc\include\afxwin2.inl
; File D:\git\src\IBK\IBK_DRFN\ProjSrc\SrcChartEx\ChartAddIn\ChartDesignPropertyAddIn\ChartDesignPropertyAddIn\ViewDesignPage.cpp
; File C:\Program Files (x86)\Microsoft Visual Studio\2019\Community\VC\Tools\MSVC\14.29.30133\atlmfc\include\afxwin2.inl
; File D:\git\src\IBK\IBK_DRFN\ProjSrc\SrcChartEx\ChartAddIn\ChartDesignPropertyAddIn\ChartDesignPropertyAddIn\ViewDesignPage.cpp
; File C:\Program Files (x86)\Microsoft Visual Studio\2019\Community\VC\Tools\MSVC\14.29.30133\atlmfc\include\atltypes.h
; File D:\git\src\IBK\IBK_DRFN\ProjSrc\SrcChartEx\ChartAddIn\ChartDesignPropertyAddIn\ChartDesignPropertyAddIn\ViewDesignPage.cpp
; File C:\Program Files (x86)\Microsoft Visual Studio\2019\Community\VC\Tools\MSVC\14.29.30133\atlmfc\include\atltypes.h
; File D:\git\src\IBK\IBK_DRFN\ProjSrc\SrcChartEx\ChartAddIn\ChartDesignPropertyAddIn\ChartDesignPropertyAddIn\ViewDesignPage.cpp
; File C:\Program Files (x86)\Microsoft Visual Studio\2019\Community\VC\Tools\MSVC\14.29.30133\atlmfc\include\atltypes.h
; File D:\git\src\IBK\IBK_DRFN\ProjSrc\SrcChartEx\ChartAddIn\ChartDesignPropertyAddIn\ChartDesignPropertyAddIn\ViewDesignPage.cpp
; File C:\Program Files (x86)\Microsoft Visual Studio\2019\Community\VC\Tools\MSVC\14.29.30133\atlmfc\include\atltypes.h
; File D:\git\src\IBK\IBK_DRFN\ProjSrc\SrcChartEx\ChartAddIn\ChartDesignPropertyAddIn\ChartDesignPropertyAddIn\ViewDesignPage.cpp
; File C:\Program Files (x86)\Microsoft Visual Studio\2019\Community\VC\Tools\MSVC\14.29.30133\atlmfc\include\atltypes.h
; File D:\git\src\IBK\IBK_DRFN\ProjSrc\SrcChartEx\ChartAddIn\ChartDesignPropertyAddIn\ChartDesignPropertyAddIn\ViewDesignPage.cpp
;	COMDAT ?PreTranslateMessage@CViewDesignPage@@UAEHPAUtagMSG@@@Z
_TEXT	SEGMENT
$T1 = -16						; size = 8
$T2 = -16						; size = 8
_pt$ = -8						; size = 8
_pMsg$ = 8						; size = 4
?PreTranslateMessage@CViewDesignPage@@UAEHPAUtagMSG@@@Z PROC ; CViewDesignPage::PreTranslateMessage, COMDAT
; _this$ = ecx

; 136  : {

  00000	55		 push	 ebp
  00001	8b ec		 mov	 ebp, esp
  00003	83 ec 10	 sub	 esp, 16			; 00000010H
  00006	53		 push	 ebx
  00007	56		 push	 esi

; 137  : 	POINT pt = pMsg->pt;	

  00008	8b 75 08	 mov	 esi, DWORD PTR _pMsg$[ebp]
  0000b	57		 push	 edi
  0000c	8b f9		 mov	 edi, ecx
  0000e	8b 46 14	 mov	 eax, DWORD PTR [esi+20]
  00011	8b 56 18	 mov	 edx, DWORD PTR [esi+24]
  00014	89 45 f8	 mov	 DWORD PTR _pt$[ebp], eax
; File C:\Program Files (x86)\Microsoft Visual Studio\2019\Community\VC\Tools\MSVC\14.29.30133\atlmfc\include\afxwin2.inl

; 94   : 	{ ASSERT(::IsWindow(m_hWnd)); ::ScreenToClient(m_hWnd, lpPoint); }

  00017	8d 45 f8	 lea	 eax, DWORD PTR _pt$[ebp]
  0001a	50		 push	 eax
  0001b	ff 77 20	 push	 DWORD PTR [edi+32]
; File D:\git\src\IBK\IBK_DRFN\ProjSrc\SrcChartEx\ChartAddIn\ChartDesignPropertyAddIn\ChartDesignPropertyAddIn\ViewDesignPage.cpp

; 137  : 	POINT pt = pMsg->pt;	

  0001e	89 55 fc	 mov	 DWORD PTR _pt$[ebp+4], edx
; File C:\Program Files (x86)\Microsoft Visual Studio\2019\Community\VC\Tools\MSVC\14.29.30133\atlmfc\include\afxwin2.inl

; 94   : 	{ ASSERT(::IsWindow(m_hWnd)); ::ScreenToClient(m_hWnd, lpPoint); }

  00021	ff 15 00 00 00
	00		 call	 DWORD PTR __imp__ScreenToClient@8
; File D:\git\src\IBK\IBK_DRFN\ProjSrc\SrcChartEx\ChartAddIn\ChartDesignPropertyAddIn\ChartDesignPropertyAddIn\ViewDesignPage.cpp

; 140  : 	if( pMsg->message == WM_RBUTTONDOWN )	{

  00027	8b 46 04	 mov	 eax, DWORD PTR [esi+4]
  0002a	3d 04 02 00 00	 cmp	 eax, 516		; 00000204H
  0002f	75 1e		 jne	 SHORT $LN11@PreTransla
; File C:\Program Files (x86)\Microsoft Visual Studio\2019\Community\VC\Tools\MSVC\14.29.30133\atlmfc\include\atltypes.h

; 414  : 	*(POINT*)this = initPt;

  00031	8b 45 f8	 mov	 eax, DWORD PTR _pt$[ebp]
  00034	8b 4d fc	 mov	 ecx, DWORD PTR _pt$[ebp+4]
  00037	89 45 f0	 mov	 DWORD PTR $T2[ebp], eax
; File D:\git\src\IBK\IBK_DRFN\ProjSrc\SrcChartEx\ChartAddIn\ChartDesignPropertyAddIn\ChartDesignPropertyAddIn\ViewDesignPage.cpp

; 141  : 		m_toolTip.ShowToolTip( (CPoint)pt );

  0003a	8d 45 f0	 lea	 eax, DWORD PTR $T2[ebp]
; File C:\Program Files (x86)\Microsoft Visual Studio\2019\Community\VC\Tools\MSVC\14.29.30133\atlmfc\include\atltypes.h

; 414  : 	*(POINT*)this = initPt;

  0003d	89 4d f4	 mov	 DWORD PTR $T2[ebp+4], ecx
; File D:\git\src\IBK\IBK_DRFN\ProjSrc\SrcChartEx\ChartAddIn\ChartDesignPropertyAddIn\ChartDesignPropertyAddIn\ViewDesignPage.cpp

; 141  : 		m_toolTip.ShowToolTip( (CPoint)pt );

  00040	8d 8f 80 01 00
	00		 lea	 ecx, DWORD PTR [edi+384]
  00046	50		 push	 eax
  00047	e8 00 00 00 00	 call	 ?ShowToolTip@CDlgToolTip@@QAEXAAVCPoint@@@Z ; CDlgToolTip::ShowToolTip
  0004c	8b 46 04	 mov	 eax, DWORD PTR [esi+4]
$LN11@PreTransla:

; 142  : 	}
; 143  : 	if(pMsg->message == WM_MOUSEMOVE){

  0004f	3d 00 02 00 00	 cmp	 eax, 512		; 00000200H
  00054	75 1b		 jne	 SHORT $LN3@PreTransla
; File C:\Program Files (x86)\Microsoft Visual Studio\2019\Community\VC\Tools\MSVC\14.29.30133\atlmfc\include\atltypes.h

; 414  : 	*(POINT*)this = initPt;

  00056	8b 45 f8	 mov	 eax, DWORD PTR _pt$[ebp]
; File D:\git\src\IBK\IBK_DRFN\ProjSrc\SrcChartEx\ChartAddIn\ChartDesignPropertyAddIn\ChartDesignPropertyAddIn\ViewDesignPage.cpp

; 144  : 		m_toolTip.HideToolTip( (CPoint)pt );

  00059	8d 8f 80 01 00
	00		 lea	 ecx, DWORD PTR [edi+384]
; File C:\Program Files (x86)\Microsoft Visual Studio\2019\Community\VC\Tools\MSVC\14.29.30133\atlmfc\include\atltypes.h

; 414  : 	*(POINT*)this = initPt;

  0005f	8b 55 fc	 mov	 edx, DWORD PTR _pt$[ebp+4]
  00062	89 45 f0	 mov	 DWORD PTR $T1[ebp], eax
; File D:\git\src\IBK\IBK_DRFN\ProjSrc\SrcChartEx\ChartAddIn\ChartDesignPropertyAddIn\ChartDesignPropertyAddIn\ViewDesignPage.cpp

; 144  : 		m_toolTip.HideToolTip( (CPoint)pt );

  00065	8d 45 f0	 lea	 eax, DWORD PTR $T1[ebp]
  00068	50		 push	 eax
; File C:\Program Files (x86)\Microsoft Visual Studio\2019\Community\VC\Tools\MSVC\14.29.30133\atlmfc\include\atltypes.h

; 414  : 	*(POINT*)this = initPt;

  00069	89 55 f4	 mov	 DWORD PTR $T1[ebp+4], edx
; File D:\git\src\IBK\IBK_DRFN\ProjSrc\SrcChartEx\ChartAddIn\ChartDesignPropertyAddIn\ChartDesignPropertyAddIn\ViewDesignPage.cpp

; 144  : 		m_toolTip.HideToolTip( (CPoint)pt );

  0006c	e8 00 00 00 00	 call	 ?HideToolTip@CDlgToolTip@@QAEXAAVCPoint@@@Z ; CDlgToolTip::HideToolTip
$LN3@PreTransla:

; 145  : 	}
; 146  : 	return CPropertyPage::PreTranslateMessage(pMsg);

  00071	56		 push	 esi
  00072	8b cf		 mov	 ecx, edi
  00074	e8 00 00 00 00	 call	 ?PreTranslateMessage@CPropertyPage@@MAEHPAUtagMSG@@@Z ; CPropertyPage::PreTranslateMessage
  00079	5f		 pop	 edi
  0007a	5e		 pop	 esi
  0007b	5b		 pop	 ebx

; 147  : }

  0007c	8b e5		 mov	 esp, ebp
  0007e	5d		 pop	 ebp
  0007f	c2 04 00	 ret	 4
?PreTranslateMessage@CViewDesignPage@@UAEHPAUtagMSG@@@Z ENDP ; CViewDesignPage::PreTranslateMessage
_TEXT	ENDS
; Function compile flags: /Ogtp
; File D:\git\src\IBK\IBK_DRFN\ProjSrc\SrcChartEx\ChartAddIn\ChartDesignPropertyAddIn\ChartDesignPropertyAddIn\ViewDesignPage.cpp
;	COMDAT ?OnApply@CViewDesignPage@@UAEHXZ
_TEXT	SEGMENT
tv675 = -20						; size = 4
_strData$ = -16						; size = 4
__$EHRec$ = -12						; size = 12
?OnApply@CViewDesignPage@@UAEHXZ PROC			; CViewDesignPage::OnApply, COMDAT
; _this$ = ecx

; 254  : {

  00000	55		 push	 ebp
  00001	8b ec		 mov	 ebp, esp
  00003	6a ff		 push	 -1
  00005	68 00 00 00 00	 push	 __ehhandler$?OnApply@CViewDesignPage@@UAEHXZ
  0000a	64 a1 00 00 00
	00		 mov	 eax, DWORD PTR fs:0
  00010	50		 push	 eax
  00011	83 ec 08	 sub	 esp, 8
  00014	53		 push	 ebx
  00015	56		 push	 esi
  00016	57		 push	 edi
  00017	a1 00 00 00 00	 mov	 eax, DWORD PTR ___security_cookie
  0001c	33 c5		 xor	 eax, ebp
  0001e	50		 push	 eax
  0001f	8d 45 f4	 lea	 eax, DWORD PTR __$EHRec$[ebp]
  00022	64 a3 00 00 00
	00		 mov	 DWORD PTR fs:0, eax
  00028	8b d9		 mov	 ebx, ecx

; 255  : 	// (2006/7/5 - Seung-Won, Bae) Use IPropertyMap
; 256  : 	CHART_ADDTOSTRLIST_START( TRUE)

  0002a	8d 4d f0	 lea	 ecx, DWORD PTR _strData$[ebp]
  0002d	ff 15 00 00 00
	00		 call	 DWORD PTR __imp_??0?$CStringT@DV?$StrTraitMFC_DLL@DV?$ChTraitsCRT@D@ATL@@@@@ATL@@QAE@XZ

; 257  : 		CHART_ADDTOSTRLIST_INT(		m_pIPropertyMap, g_anPropertyShortKey[	TYPEBORDER				], m_nBorderShape,				_DPV_TYPEBORDER				);

  00033	ff b3 40 01 00
	00		 push	 DWORD PTR [ebx+320]
  00039	8b 35 00 00 00
	00		 mov	 esi, DWORD PTR __imp_?Format@?$CStringT@DV?$StrTraitMFC_DLL@DV?$ChTraitsCRT@D@ATL@@@@@ATL@@QAAXPBDZZ
  0003f	8d 45 f0	 lea	 eax, DWORD PTR _strData$[ebp]
  00042	68 00 00 00 00	 push	 OFFSET ??_C@_02DPKJAMEF@?$CFd@
  00047	50		 push	 eax
  00048	c7 45 fc 00 00
	00 00		 mov	 DWORD PTR __$EHRec$[ebp+8], 0
  0004f	ff d6		 call	 esi
  00051	8b 8b 60 02 00
	00		 mov	 ecx, DWORD PTR [ebx+608]
  00057	83 c4 0c	 add	 esp, 12			; 0000000cH
  0005a	ff 75 f0	 push	 DWORD PTR _strData$[ebp]
  0005d	8b 01		 mov	 eax, DWORD PTR [ecx]
  0005f	ff 35 64 00 00
	00		 push	 DWORD PTR ?g_anPropertyShortKey@@3PAPADA+100
  00065	ff 50 14	 call	 DWORD PTR [eax+20]

; 258  : 		CHART_ADDTOSTRLIST_BOOL(	m_pIPropertyMap, g_anPropertyShortKey[	BWHOLEVIEW				], m_bDisplayTotalData,			_DPV_BWHOLEVIEW				);

  00068	8b 8b 60 02 00
	00		 mov	 ecx, DWORD PTR [ebx+608]
  0006e	bf 00 00 00 00	 mov	 edi, OFFSET ??_C@_01HIHLOKLC@1@
  00073	83 bb 44 01 00
	00 00		 cmp	 DWORD PTR [ebx+324], 0
  0007a	8b c7		 mov	 eax, edi
  0007c	c7 45 ec 00 00
	00 00		 mov	 DWORD PTR tv675[ebp], OFFSET ??_C@_01GBGANLPD@0@
  00083	0f 44 45 ec	 cmove	 eax, DWORD PTR tv675[ebp]
  00087	8b 11		 mov	 edx, DWORD PTR [ecx]
  00089	50		 push	 eax
  0008a	ff 35 6c 00 00
	00		 push	 DWORD PTR ?g_anPropertyShortKey@@3PAPADA+108
  00090	ff 52 14	 call	 DWORD PTR [edx+20]

; 259  : 		CHART_ADDTOSTRLIST_INT(		m_pIPropertyMap, g_anPropertyShortKey[	NONEPAGEDATACOUNT		], m_nDataCountPerOnePage,		_DPV_NONEPAGEDATACOUNT		);

  00093	ff b3 48 01 00
	00		 push	 DWORD PTR [ebx+328]
  00099	8d 45 f0	 lea	 eax, DWORD PTR _strData$[ebp]
  0009c	68 00 00 00 00	 push	 OFFSET ??_C@_02DPKJAMEF@?$CFd@
  000a1	50		 push	 eax
  000a2	ff d6		 call	 esi
  000a4	8b 8b 60 02 00
	00		 mov	 ecx, DWORD PTR [ebx+608]
  000aa	83 c4 0c	 add	 esp, 12			; 0000000cH
  000ad	ff 75 f0	 push	 DWORD PTR _strData$[ebp]
  000b0	8b 01		 mov	 eax, DWORD PTR [ecx]
  000b2	ff 35 70 00 00
	00		 push	 DWORD PTR ?g_anPropertyShortKey@@3PAPADA+112
  000b8	ff 50 14	 call	 DWORD PTR [eax+20]

; 260  : 		CHART_ADDTOSTRLIST_INT(		m_pIPropertyMap, g_anPropertyShortKey[	NLEFTMARGIN				], m_nLeftSpace,				_DPV_NLEFTMARGIN			);

  000bb	ff b3 4c 01 00
	00		 push	 DWORD PTR [ebx+332]
  000c1	8d 45 f0	 lea	 eax, DWORD PTR _strData$[ebp]
  000c4	68 00 00 00 00	 push	 OFFSET ??_C@_02DPKJAMEF@?$CFd@
  000c9	50		 push	 eax
  000ca	ff d6		 call	 esi
  000cc	8b 8b 60 02 00
	00		 mov	 ecx, DWORD PTR [ebx+608]
  000d2	83 c4 0c	 add	 esp, 12			; 0000000cH
  000d5	ff 75 f0	 push	 DWORD PTR _strData$[ebp]
  000d8	8b 01		 mov	 eax, DWORD PTR [ecx]
  000da	ff 35 7c 00 00
	00		 push	 DWORD PTR ?g_anPropertyShortKey@@3PAPADA+124
  000e0	ff 50 14	 call	 DWORD PTR [eax+20]

; 261  : 		CHART_ADDTOSTRLIST_INT(		m_pIPropertyMap, g_anPropertyShortKey[	NRIGHTMARGIN			], m_nRightSpace,				_DPV_NRIGHTMARGIN			);

  000e3	ff b3 50 01 00
	00		 push	 DWORD PTR [ebx+336]
  000e9	8d 45 f0	 lea	 eax, DWORD PTR _strData$[ebp]
  000ec	68 00 00 00 00	 push	 OFFSET ??_C@_02DPKJAMEF@?$CFd@
  000f1	50		 push	 eax
  000f2	ff d6		 call	 esi
  000f4	8b 8b 60 02 00
	00		 mov	 ecx, DWORD PTR [ebx+608]
  000fa	83 c4 0c	 add	 esp, 12			; 0000000cH
  000fd	ff 75 f0	 push	 DWORD PTR _strData$[ebp]
  00100	8b 01		 mov	 eax, DWORD PTR [ecx]
  00102	ff 35 80 00 00
	00		 push	 DWORD PTR ?g_anPropertyShortKey@@3PAPADA+128
  00108	ff 50 14	 call	 DWORD PTR [eax+20]

; 262  : 		CHART_ADDTOSTRLIST_INT(		m_pIPropertyMap, g_anPropertyShortKey[	NTOPMARGIN				], m_nTopSpace,					_DPV_NTOPMARGIN				);

  0010b	ff b3 54 01 00
	00		 push	 DWORD PTR [ebx+340]
  00111	8d 45 f0	 lea	 eax, DWORD PTR _strData$[ebp]
  00114	68 00 00 00 00	 push	 OFFSET ??_C@_02DPKJAMEF@?$CFd@
  00119	50		 push	 eax
  0011a	ff d6		 call	 esi
  0011c	8b 8b 60 02 00
	00		 mov	 ecx, DWORD PTR [ebx+608]
  00122	83 c4 0c	 add	 esp, 12			; 0000000cH
  00125	ff 75 f0	 push	 DWORD PTR _strData$[ebp]
  00128	8b 01		 mov	 eax, DWORD PTR [ecx]
  0012a	ff 35 84 00 00
	00		 push	 DWORD PTR ?g_anPropertyShortKey@@3PAPADA+132
  00130	ff 50 14	 call	 DWORD PTR [eax+20]

; 263  : 		CHART_ADDTOSTRLIST_INT(		m_pIPropertyMap, g_anPropertyShortKey[	NBOTTOMMARGIN			], m_nBottomSpace,				_DPV_NBOTTOMMARGIN			);

  00133	ff b3 58 01 00
	00		 push	 DWORD PTR [ebx+344]
  00139	8d 45 f0	 lea	 eax, DWORD PTR _strData$[ebp]
  0013c	68 00 00 00 00	 push	 OFFSET ??_C@_02DPKJAMEF@?$CFd@
  00141	50		 push	 eax
  00142	ff d6		 call	 esi
  00144	8b 8b 60 02 00
	00		 mov	 ecx, DWORD PTR [ebx+608]
  0014a	83 c4 0c	 add	 esp, 12			; 0000000cH
  0014d	ff 75 f0	 push	 DWORD PTR _strData$[ebp]
  00150	8b 01		 mov	 eax, DWORD PTR [ecx]
  00152	ff 35 88 00 00
	00		 push	 DWORD PTR ?g_anPropertyShortKey@@3PAPADA+136
  00158	ff 50 14	 call	 DWORD PTR [eax+20]

; 264  : 		CHART_ADDTOSTRLIST_INT(		m_pIPropertyMap, g_anPropertyShortKey[	NMAGINBORDERTYPE		], m_nMarginBorderType,			_DPV_NMAGINBORDERTYPE		);

  0015b	ff b3 5c 01 00
	00		 push	 DWORD PTR [ebx+348]
  00161	8d 45 f0	 lea	 eax, DWORD PTR _strData$[ebp]
  00164	68 00 00 00 00	 push	 OFFSET ??_C@_02DPKJAMEF@?$CFd@
  00169	50		 push	 eax
  0016a	ff d6		 call	 esi
  0016c	8b 8b 60 02 00
	00		 mov	 ecx, DWORD PTR [ebx+608]
  00172	83 c4 0c	 add	 esp, 12			; 0000000cH
  00175	ff 75 f0	 push	 DWORD PTR _strData$[ebp]
  00178	8b 01		 mov	 eax, DWORD PTR [ecx]
  0017a	ff 35 b4 00 00
	00		 push	 DWORD PTR ?g_anPropertyShortKey@@3PAPADA+180
  00180	ff 50 14	 call	 DWORD PTR [eax+20]

; 265  : 		CHART_ADDTOSTRLIST_BOOL(	m_pIPropertyMap, g_anPropertyShortKey[	BUSECONDITIONTOTITLE	], m_bUseConditiontoTitle,		_DPV_BUSECONDITIONTOTITLE	);

  00183	8b 8b 60 02 00
	00		 mov	 ecx, DWORD PTR [ebx+608]
  00189	8b c7		 mov	 eax, edi
  0018b	83 bb 60 01 00
	00 00		 cmp	 DWORD PTR [ebx+352], 0
  00192	0f 44 45 ec	 cmove	 eax, DWORD PTR tv675[ebp]
  00196	8b 11		 mov	 edx, DWORD PTR [ecx]
  00198	50		 push	 eax
  00199	ff 35 c0 00 00
	00		 push	 DWORD PTR ?g_anPropertyShortKey@@3PAPADA+192
  0019f	ff 52 14	 call	 DWORD PTR [edx+20]

; 266  : 		CHART_ADDTOSTRLIST_BOOL(	m_pIPropertyMap, g_anPropertyShortKey[	BUSEDATATOTITLE			], m_bUseDatatoTitle,			_DPV_BUSEDATATOTITLE		);

  001a2	8b 8b 60 02 00
	00		 mov	 ecx, DWORD PTR [ebx+608]
  001a8	8b c7		 mov	 eax, edi
  001aa	83 bb 64 01 00
	00 00		 cmp	 DWORD PTR [ebx+356], 0
  001b1	0f 44 45 ec	 cmove	 eax, DWORD PTR tv675[ebp]
  001b5	8b 11		 mov	 edx, DWORD PTR [ecx]
  001b7	50		 push	 eax
  001b8	ff 35 c4 00 00
	00		 push	 DWORD PTR ?g_anPropertyShortKey@@3PAPADA+196
  001be	ff 52 14	 call	 DWORD PTR [edx+20]

; 267  : 		CHART_ADDTOSTRLIST_INT(		m_pIPropertyMap, g_anPropertyShortKey[	nHorzGap				], m_nHorzGap,					_DPV_nHorzGap				);

  001c1	ff b3 6c 01 00
	00		 push	 DWORD PTR [ebx+364]
  001c7	8d 45 f0	 lea	 eax, DWORD PTR _strData$[ebp]
  001ca	68 00 00 00 00	 push	 OFFSET ??_C@_02DPKJAMEF@?$CFd@
  001cf	50		 push	 eax
  001d0	ff d6		 call	 esi
  001d2	8b 8b 60 02 00
	00		 mov	 ecx, DWORD PTR [ebx+608]
  001d8	83 c4 0c	 add	 esp, 12			; 0000000cH
  001db	ff 75 f0	 push	 DWORD PTR _strData$[ebp]
  001de	8b 01		 mov	 eax, DWORD PTR [ecx]
  001e0	ff 35 c8 00 00
	00		 push	 DWORD PTR ?g_anPropertyShortKey@@3PAPADA+200
  001e6	ff 50 14	 call	 DWORD PTR [eax+20]

; 268  : 		CHART_ADDTOSTRLIST_INT(		m_pIPropertyMap, g_anPropertyShortKey[	nVertGap				], m_nVertGap,					_DPV_nVertGap				);

  001e9	ff b3 68 01 00
	00		 push	 DWORD PTR [ebx+360]
  001ef	8d 45 f0	 lea	 eax, DWORD PTR _strData$[ebp]
  001f2	68 00 00 00 00	 push	 OFFSET ??_C@_02DPKJAMEF@?$CFd@
  001f7	50		 push	 eax
  001f8	ff d6		 call	 esi
  001fa	8b 8b 60 02 00
	00		 mov	 ecx, DWORD PTR [ebx+608]
  00200	83 c4 0c	 add	 esp, 12			; 0000000cH
  00203	ff 75 f0	 push	 DWORD PTR _strData$[ebp]
  00206	8b 01		 mov	 eax, DWORD PTR [ecx]
  00208	ff 35 cc 00 00
	00		 push	 DWORD PTR ?g_anPropertyShortKey@@3PAPADA+204
  0020e	ff 50 14	 call	 DWORD PTR [eax+20]

; 269  : 		CHART_ADDTOSTRLIST_INT(		m_pIPropertyMap, g_anPropertyShortKey[	nMinDataCountOnOnePage	], m_nMinDataCountOnOnePage,	_DPV_nMinDataCountOnOnePage	);

  00211	ff b3 70 01 00
	00		 push	 DWORD PTR [ebx+368]
  00217	8d 45 f0	 lea	 eax, DWORD PTR _strData$[ebp]
  0021a	68 00 00 00 00	 push	 OFFSET ??_C@_02DPKJAMEF@?$CFd@
  0021f	50		 push	 eax
  00220	ff d6		 call	 esi
  00222	8b 8b 60 02 00
	00		 mov	 ecx, DWORD PTR [ebx+608]
  00228	83 c4 0c	 add	 esp, 12			; 0000000cH
  0022b	ff 75 f0	 push	 DWORD PTR _strData$[ebp]
  0022e	8b 01		 mov	 eax, DWORD PTR [ecx]
  00230	ff 35 f4 00 00
	00		 push	 DWORD PTR ?g_anPropertyShortKey@@3PAPADA+244
  00236	ff 50 14	 call	 DWORD PTR [eax+20]

; 270  : 		CHART_ADDTOSTRLIST_INT(		m_pIPropertyMap, g_anPropertyShortKey[	BONGCOUNTMARGIN			], m_nBongCountMargin,			_DPV_BONGCOUNTMARGIN		);

  00239	ff b3 74 01 00
	00		 push	 DWORD PTR [ebx+372]
  0023f	8d 45 f0	 lea	 eax, DWORD PTR _strData$[ebp]
  00242	68 00 00 00 00	 push	 OFFSET ??_C@_02DPKJAMEF@?$CFd@
  00247	50		 push	 eax
  00248	ff d6		 call	 esi
  0024a	8b 8b 60 02 00
	00		 mov	 ecx, DWORD PTR [ebx+608]
  00250	83 c4 0c	 add	 esp, 12			; 0000000cH
  00253	ff 75 f0	 push	 DWORD PTR _strData$[ebp]
  00256	8b 01		 mov	 eax, DWORD PTR [ecx]
  00258	ff 35 14 01 00
	00		 push	 DWORD PTR ?g_anPropertyShortKey@@3PAPADA+276
  0025e	ff 50 14	 call	 DWORD PTR [eax+20]

; 271  : 		CHART_ADDTOSTRLIST_BOOL(	m_pIPropertyMap, g_anPropertyShortKey[	DISPLAYTRDATA			], m_bDisplayTRdata,			_DPV_DISPLAYTRDATA			);

  00261	8b 8b 60 02 00
	00		 mov	 ecx, DWORD PTR [ebx+608]
  00267	83 bb 78 01 00
	00 00		 cmp	 DWORD PTR [ebx+376], 0
  0026e	0f 44 7d ec	 cmove	 edi, DWORD PTR tv675[ebp]
  00272	8b 01		 mov	 eax, DWORD PTR [ecx]
  00274	57		 push	 edi
  00275	ff 35 18 01 00
	00		 push	 DWORD PTR ?g_anPropertyShortKey@@3PAPADA+280
  0027b	ff 50 14	 call	 DWORD PTR [eax+20]

; 272  : 	CHART_ADDTOSTRLIST_END
; 273  : 
; 274  : 	return CPropertyPage::OnApply();

  0027e	8b cb		 mov	 ecx, ebx
  00280	e8 00 00 00 00	 call	 ?OnApply@CPropertyPage@@UAEHXZ ; CPropertyPage::OnApply
  00285	8b f0		 mov	 esi, eax
  00287	8d 4d f0	 lea	 ecx, DWORD PTR _strData$[ebp]
  0028a	ff 15 00 00 00
	00		 call	 DWORD PTR __imp_??1?$CStringT@DV?$StrTraitMFC_DLL@DV?$ChTraitsCRT@D@ATL@@@@@ATL@@QAE@XZ
  00290	8b c6		 mov	 eax, esi

; 275  : }

  00292	8b 4d f4	 mov	 ecx, DWORD PTR __$EHRec$[ebp]
  00295	64 89 0d 00 00
	00 00		 mov	 DWORD PTR fs:0, ecx
  0029c	59		 pop	 ecx
  0029d	5f		 pop	 edi
  0029e	5e		 pop	 esi
  0029f	5b		 pop	 ebx
  002a0	8b e5		 mov	 esp, ebp
  002a2	5d		 pop	 ebp
  002a3	c3		 ret	 0
_TEXT	ENDS
;	COMDAT text$x
text$x	SEGMENT
__unwindfunclet$?OnApply@CViewDesignPage@@UAEHXZ$0:
  00000	8d 4d f0	 lea	 ecx, DWORD PTR _strData$[ebp]
  00003	ff 25 00 00 00
	00		 jmp	 DWORD PTR __imp_??1?$CStringT@DV?$StrTraitMFC_DLL@DV?$ChTraitsCRT@D@ATL@@@@@ATL@@QAE@XZ
  00009	cc		 int	 3
  0000a	cc		 int	 3
  0000b	cc		 int	 3
  0000c	cc		 int	 3
  0000d	cc		 int	 3
__ehhandler$?OnApply@CViewDesignPage@@UAEHXZ:
  0000e	90		 npad	 1
  0000f	90		 npad	 1
  00010	8b 54 24 08	 mov	 edx, DWORD PTR [esp+8]
  00014	8d 42 0c	 lea	 eax, DWORD PTR [edx+12]
  00017	8b 4a e8	 mov	 ecx, DWORD PTR [edx-24]
  0001a	33 c8		 xor	 ecx, eax
  0001c	e8 00 00 00 00	 call	 @__security_check_cookie@4
  00021	b8 00 00 00 00	 mov	 eax, OFFSET __ehfuncinfo$?OnApply@CViewDesignPage@@UAEHXZ
  00026	e9 00 00 00 00	 jmp	 ___CxxFrameHandler3
text$x	ENDS
?OnApply@CViewDesignPage@@UAEHXZ ENDP			; CViewDesignPage::OnApply
; Function compile flags: /Ogtp
; File D:\git\src\IBK\IBK_DRFN\ProjSrc\SrcChartEx\ChartAddIn\ChartDesignPropertyAddIn\ChartDesignPropertyAddIn\ViewDesignPage.cpp
;	COMDAT ?SetProperty@CViewDesignPage@@QAEXPAUIPropertyMap@@@Z
_TEXT	SEGMENT
_szTemp$ = -4						; size = 4
_p_pIPropertyMap$ = 8					; size = 4
?SetProperty@CViewDesignPage@@QAEXPAUIPropertyMap@@@Z PROC ; CViewDesignPage::SetProperty, COMDAT
; _this$ = ecx

; 229  : {

  00000	55		 push	 ebp
  00001	8b ec		 mov	 ebp, esp
  00003	51		 push	 ecx
  00004	53		 push	 ebx
  00005	56		 push	 esi

; 230  : 	// (2006/7/5 - Seung-Won, Bae) Use IPropertyMap
; 231  : 	CHART_CONVERT_BEGIN()
; 232  : 		CHART_CONVERT_INT(		p_pIPropertyMap, g_anPropertyShortKey[	TYPEBORDER						], m_nBorderShape,				_DPV_TYPEBORDER					);

  00006	8b 75 08	 mov	 esi, DWORD PTR _p_pIPropertyMap$[ebp]
  00009	8b d9		 mov	 ebx, ecx
  0000b	57		 push	 edi
  0000c	8d 4d fc	 lea	 ecx, DWORD PTR _szTemp$[ebp]
  0000f	c7 45 fc 00 00
	00 00		 mov	 DWORD PTR _szTemp$[ebp], 0
  00016	51		 push	 ecx
  00017	8b 06		 mov	 eax, DWORD PTR [esi]
  00019	8b ce		 mov	 ecx, esi
  0001b	ff 35 64 00 00
	00		 push	 DWORD PTR ?g_anPropertyShortKey@@3PAPADA+100
  00021	ff 50 0c	 call	 DWORD PTR [eax+12]
  00024	8b 3d 00 00 00
	00		 mov	 edi, DWORD PTR __imp__atoi
  0002a	83 f8 01	 cmp	 eax, 1
  0002d	75 0a		 jne	 SHORT $LN2@SetPropert
  0002f	ff 75 fc	 push	 DWORD PTR _szTemp$[ebp]
  00032	ff d7		 call	 edi
  00034	83 c4 04	 add	 esp, 4
  00037	eb 02		 jmp	 SHORT $LN3@SetPropert
$LN2@SetPropert:
  00039	33 c0		 xor	 eax, eax
$LN3@SetPropert:

; 233  : 		CHART_CONVERT_BOOL(		p_pIPropertyMap, g_anPropertyShortKey[	BWHOLEVIEW						], m_bDisplayTotalData,			_DPV_BWHOLEVIEW					);

  0003b	89 83 40 01 00
	00		 mov	 DWORD PTR [ebx+320], eax
  00041	8d 4d fc	 lea	 ecx, DWORD PTR _szTemp$[ebp]
  00044	8b 06		 mov	 eax, DWORD PTR [esi]
  00046	51		 push	 ecx
  00047	ff 35 6c 00 00
	00		 push	 DWORD PTR ?g_anPropertyShortKey@@3PAPADA+108
  0004d	8b ce		 mov	 ecx, esi
  0004f	ff 50 0c	 call	 DWORD PTR [eax+12]
  00052	83 f8 01	 cmp	 eax, 1
  00055	75 0a		 jne	 SHORT $LN4@SetPropert
  00057	ff 75 fc	 push	 DWORD PTR _szTemp$[ebp]
  0005a	ff d7		 call	 edi
  0005c	83 c4 04	 add	 esp, 4
  0005f	eb 02		 jmp	 SHORT $LN5@SetPropert
$LN4@SetPropert:
  00061	33 c0		 xor	 eax, eax
$LN5@SetPropert:

; 234  : 		CHART_CONVERT_INT(		p_pIPropertyMap, g_anPropertyShortKey[	NONEPAGEDATACOUNT				], m_nDataCountPerOnePage,		_DPV_NONEPAGEDATACOUNT			);

  00063	89 83 44 01 00
	00		 mov	 DWORD PTR [ebx+324], eax
  00069	8d 4d fc	 lea	 ecx, DWORD PTR _szTemp$[ebp]
  0006c	8b 06		 mov	 eax, DWORD PTR [esi]
  0006e	51		 push	 ecx
  0006f	ff 35 70 00 00
	00		 push	 DWORD PTR ?g_anPropertyShortKey@@3PAPADA+112
  00075	8b ce		 mov	 ecx, esi
  00077	ff 50 0c	 call	 DWORD PTR [eax+12]
  0007a	83 f8 01	 cmp	 eax, 1
  0007d	75 0a		 jne	 SHORT $LN6@SetPropert
  0007f	ff 75 fc	 push	 DWORD PTR _szTemp$[ebp]
  00082	ff d7		 call	 edi
  00084	83 c4 04	 add	 esp, 4
  00087	eb 05		 jmp	 SHORT $LN7@SetPropert
$LN6@SetPropert:
  00089	b8 78 00 00 00	 mov	 eax, 120		; 00000078H
$LN7@SetPropert:

; 235  : 		CHART_CONVERT_INT(		p_pIPropertyMap, g_anPropertyShortKey[	NLEFTMARGIN						], m_nLeftSpace,				_DPV_NLEFTMARGIN				);

  0008e	89 83 48 01 00
	00		 mov	 DWORD PTR [ebx+328], eax
  00094	8d 4d fc	 lea	 ecx, DWORD PTR _szTemp$[ebp]
  00097	8b 06		 mov	 eax, DWORD PTR [esi]
  00099	51		 push	 ecx
  0009a	ff 35 7c 00 00
	00		 push	 DWORD PTR ?g_anPropertyShortKey@@3PAPADA+124
  000a0	8b ce		 mov	 ecx, esi
  000a2	ff 50 0c	 call	 DWORD PTR [eax+12]
  000a5	83 f8 01	 cmp	 eax, 1
  000a8	75 0a		 jne	 SHORT $LN8@SetPropert
  000aa	ff 75 fc	 push	 DWORD PTR _szTemp$[ebp]
  000ad	ff d7		 call	 edi
  000af	83 c4 04	 add	 esp, 4
  000b2	eb 02		 jmp	 SHORT $LN9@SetPropert
$LN8@SetPropert:
  000b4	33 c0		 xor	 eax, eax
$LN9@SetPropert:

; 236  : 		CHART_CONVERT_INT(		p_pIPropertyMap, g_anPropertyShortKey[	NRIGHTMARGIN					], m_nRightSpace,				_DPV_NRIGHTMARGIN				);

  000b6	89 83 4c 01 00
	00		 mov	 DWORD PTR [ebx+332], eax
  000bc	8d 4d fc	 lea	 ecx, DWORD PTR _szTemp$[ebp]
  000bf	8b 06		 mov	 eax, DWORD PTR [esi]
  000c1	51		 push	 ecx
  000c2	ff 35 80 00 00
	00		 push	 DWORD PTR ?g_anPropertyShortKey@@3PAPADA+128
  000c8	8b ce		 mov	 ecx, esi
  000ca	ff 50 0c	 call	 DWORD PTR [eax+12]
  000cd	83 f8 01	 cmp	 eax, 1
  000d0	75 0a		 jne	 SHORT $LN10@SetPropert
  000d2	ff 75 fc	 push	 DWORD PTR _szTemp$[ebp]
  000d5	ff d7		 call	 edi
  000d7	83 c4 04	 add	 esp, 4
  000da	eb 02		 jmp	 SHORT $LN11@SetPropert
$LN10@SetPropert:
  000dc	33 c0		 xor	 eax, eax
$LN11@SetPropert:

; 237  : 		CHART_CONVERT_INT(		p_pIPropertyMap, g_anPropertyShortKey[	NTOPMARGIN						], m_nTopSpace,					_DPV_NTOPMARGIN					);

  000de	89 83 50 01 00
	00		 mov	 DWORD PTR [ebx+336], eax
  000e4	8d 4d fc	 lea	 ecx, DWORD PTR _szTemp$[ebp]
  000e7	8b 06		 mov	 eax, DWORD PTR [esi]
  000e9	51		 push	 ecx
  000ea	ff 35 84 00 00
	00		 push	 DWORD PTR ?g_anPropertyShortKey@@3PAPADA+132
  000f0	8b ce		 mov	 ecx, esi
  000f2	ff 50 0c	 call	 DWORD PTR [eax+12]
  000f5	83 f8 01	 cmp	 eax, 1
  000f8	75 0a		 jne	 SHORT $LN12@SetPropert
  000fa	ff 75 fc	 push	 DWORD PTR _szTemp$[ebp]
  000fd	ff d7		 call	 edi
  000ff	83 c4 04	 add	 esp, 4
  00102	eb 02		 jmp	 SHORT $LN13@SetPropert
$LN12@SetPropert:
  00104	33 c0		 xor	 eax, eax
$LN13@SetPropert:

; 238  : 		CHART_CONVERT_INT(		p_pIPropertyMap, g_anPropertyShortKey[	NBOTTOMMARGIN					], m_nBottomSpace,				_DPV_NBOTTOMMARGIN				);

  00106	89 83 54 01 00
	00		 mov	 DWORD PTR [ebx+340], eax
  0010c	8d 4d fc	 lea	 ecx, DWORD PTR _szTemp$[ebp]
  0010f	8b 06		 mov	 eax, DWORD PTR [esi]
  00111	51		 push	 ecx
  00112	ff 35 88 00 00
	00		 push	 DWORD PTR ?g_anPropertyShortKey@@3PAPADA+136
  00118	8b ce		 mov	 ecx, esi
  0011a	ff 50 0c	 call	 DWORD PTR [eax+12]
  0011d	83 f8 01	 cmp	 eax, 1
  00120	75 0a		 jne	 SHORT $LN14@SetPropert
  00122	ff 75 fc	 push	 DWORD PTR _szTemp$[ebp]
  00125	ff d7		 call	 edi
  00127	83 c4 04	 add	 esp, 4
  0012a	eb 02		 jmp	 SHORT $LN15@SetPropert
$LN14@SetPropert:
  0012c	33 c0		 xor	 eax, eax
$LN15@SetPropert:

; 239  : 		CHART_CONVERT_INT(		p_pIPropertyMap, g_anPropertyShortKey[	NMAGINBORDERTYPE				], m_nMarginBorderType,			_DPV_NMAGINBORDERTYPE			);

  0012e	89 83 58 01 00
	00		 mov	 DWORD PTR [ebx+344], eax
  00134	8d 4d fc	 lea	 ecx, DWORD PTR _szTemp$[ebp]
  00137	8b 06		 mov	 eax, DWORD PTR [esi]
  00139	51		 push	 ecx
  0013a	ff 35 b4 00 00
	00		 push	 DWORD PTR ?g_anPropertyShortKey@@3PAPADA+180
  00140	8b ce		 mov	 ecx, esi
  00142	ff 50 0c	 call	 DWORD PTR [eax+12]
  00145	83 f8 01	 cmp	 eax, 1
  00148	75 0a		 jne	 SHORT $LN16@SetPropert
  0014a	ff 75 fc	 push	 DWORD PTR _szTemp$[ebp]
  0014d	ff d7		 call	 edi
  0014f	83 c4 04	 add	 esp, 4
  00152	eb 05		 jmp	 SHORT $LN17@SetPropert
$LN16@SetPropert:
  00154	b8 03 00 00 00	 mov	 eax, 3
$LN17@SetPropert:

; 240  : 		CHART_CONVERT_BOOL(		p_pIPropertyMap, g_anPropertyShortKey[	BUSECONDITIONTOTITLE			], m_bUseConditiontoTitle,		_DPV_BUSECONDITIONTOTITLE		);

  00159	89 83 5c 01 00
	00		 mov	 DWORD PTR [ebx+348], eax
  0015f	8d 4d fc	 lea	 ecx, DWORD PTR _szTemp$[ebp]
  00162	8b 06		 mov	 eax, DWORD PTR [esi]
  00164	51		 push	 ecx
  00165	ff 35 c0 00 00
	00		 push	 DWORD PTR ?g_anPropertyShortKey@@3PAPADA+192
  0016b	8b ce		 mov	 ecx, esi
  0016d	ff 50 0c	 call	 DWORD PTR [eax+12]
  00170	83 f8 01	 cmp	 eax, 1
  00173	75 0a		 jne	 SHORT $LN18@SetPropert
  00175	ff 75 fc	 push	 DWORD PTR _szTemp$[ebp]
  00178	ff d7		 call	 edi
  0017a	83 c4 04	 add	 esp, 4
  0017d	eb 05		 jmp	 SHORT $LN19@SetPropert
$LN18@SetPropert:
  0017f	b8 01 00 00 00	 mov	 eax, 1
$LN19@SetPropert:

; 241  : 		CHART_CONVERT_BOOL(		p_pIPropertyMap, g_anPropertyShortKey[	BUSEDATATOTITLE					], m_bUseDatatoTitle,			_DPV_BUSEDATATOTITLE			);

  00184	89 83 60 01 00
	00		 mov	 DWORD PTR [ebx+352], eax
  0018a	8d 4d fc	 lea	 ecx, DWORD PTR _szTemp$[ebp]
  0018d	8b 06		 mov	 eax, DWORD PTR [esi]
  0018f	51		 push	 ecx
  00190	ff 35 c4 00 00
	00		 push	 DWORD PTR ?g_anPropertyShortKey@@3PAPADA+196
  00196	8b ce		 mov	 ecx, esi
  00198	ff 50 0c	 call	 DWORD PTR [eax+12]
  0019b	83 f8 01	 cmp	 eax, 1
  0019e	75 0a		 jne	 SHORT $LN20@SetPropert
  001a0	ff 75 fc	 push	 DWORD PTR _szTemp$[ebp]
  001a3	ff d7		 call	 edi
  001a5	83 c4 04	 add	 esp, 4
  001a8	eb 02		 jmp	 SHORT $LN21@SetPropert
$LN20@SetPropert:
  001aa	33 c0		 xor	 eax, eax
$LN21@SetPropert:

; 242  : 		CHART_CONVERT_INT(		p_pIPropertyMap, g_anPropertyShortKey[	nHorzGap						], m_nHorzGap,					_DPV_nHorzGap					);

  001ac	89 83 64 01 00
	00		 mov	 DWORD PTR [ebx+356], eax
  001b2	8d 4d fc	 lea	 ecx, DWORD PTR _szTemp$[ebp]
  001b5	8b 06		 mov	 eax, DWORD PTR [esi]
  001b7	51		 push	 ecx
  001b8	ff 35 c8 00 00
	00		 push	 DWORD PTR ?g_anPropertyShortKey@@3PAPADA+200
  001be	8b ce		 mov	 ecx, esi
  001c0	ff 50 0c	 call	 DWORD PTR [eax+12]
  001c3	83 f8 01	 cmp	 eax, 1
  001c6	75 0a		 jne	 SHORT $LN22@SetPropert
  001c8	ff 75 fc	 push	 DWORD PTR _szTemp$[ebp]
  001cb	ff d7		 call	 edi
  001cd	83 c4 04	 add	 esp, 4
  001d0	eb 02		 jmp	 SHORT $LN23@SetPropert
$LN22@SetPropert:
  001d2	33 c0		 xor	 eax, eax
$LN23@SetPropert:

; 243  : 		CHART_CONVERT_INT(		p_pIPropertyMap, g_anPropertyShortKey[	nVertGap						], m_nVertGap,					_DPV_nVertGap					);

  001d4	89 83 6c 01 00
	00		 mov	 DWORD PTR [ebx+364], eax
  001da	8d 4d fc	 lea	 ecx, DWORD PTR _szTemp$[ebp]
  001dd	8b 06		 mov	 eax, DWORD PTR [esi]
  001df	51		 push	 ecx
  001e0	ff 35 cc 00 00
	00		 push	 DWORD PTR ?g_anPropertyShortKey@@3PAPADA+204
  001e6	8b ce		 mov	 ecx, esi
  001e8	ff 50 0c	 call	 DWORD PTR [eax+12]
  001eb	83 f8 01	 cmp	 eax, 1
  001ee	75 0a		 jne	 SHORT $LN24@SetPropert
  001f0	ff 75 fc	 push	 DWORD PTR _szTemp$[ebp]
  001f3	ff d7		 call	 edi
  001f5	83 c4 04	 add	 esp, 4
  001f8	eb 02		 jmp	 SHORT $LN25@SetPropert
$LN24@SetPropert:
  001fa	33 c0		 xor	 eax, eax
$LN25@SetPropert:

; 244  : 		CHART_CONVERT_INT(		p_pIPropertyMap, g_anPropertyShortKey[	nMinDataCountOnOnePage			], m_nMinDataCountOnOnePage,	_DPV_nMinDataCountOnOnePage		);	// (2003.11.12, )     Data  Property  Map  .

  001fc	89 83 68 01 00
	00		 mov	 DWORD PTR [ebx+360], eax
  00202	8d 4d fc	 lea	 ecx, DWORD PTR _szTemp$[ebp]
  00205	8b 06		 mov	 eax, DWORD PTR [esi]
  00207	51		 push	 ecx
  00208	ff 35 f4 00 00
	00		 push	 DWORD PTR ?g_anPropertyShortKey@@3PAPADA+244
  0020e	8b ce		 mov	 ecx, esi
  00210	ff 50 0c	 call	 DWORD PTR [eax+12]
  00213	83 f8 01	 cmp	 eax, 1
  00216	75 0a		 jne	 SHORT $LN26@SetPropert
  00218	ff 75 fc	 push	 DWORD PTR _szTemp$[ebp]
  0021b	ff d7		 call	 edi
  0021d	83 c4 04	 add	 esp, 4
  00220	eb 05		 jmp	 SHORT $LN27@SetPropert
$LN26@SetPropert:
  00222	b8 05 00 00 00	 mov	 eax, 5
$LN27@SetPropert:

; 245  : 		CHART_CONVERT_INT(		p_pIPropertyMap, g_anPropertyShortKey[	BONGCOUNTMARGIN					], m_nBongCountMargin,			_DPV_BONGCOUNTMARGIN			);

  00227	89 83 70 01 00
	00		 mov	 DWORD PTR [ebx+368], eax
  0022d	8d 4d fc	 lea	 ecx, DWORD PTR _szTemp$[ebp]
  00230	8b 06		 mov	 eax, DWORD PTR [esi]
  00232	51		 push	 ecx
  00233	ff 35 14 01 00
	00		 push	 DWORD PTR ?g_anPropertyShortKey@@3PAPADA+276
  00239	8b ce		 mov	 ecx, esi
  0023b	ff 50 0c	 call	 DWORD PTR [eax+12]
  0023e	83 f8 01	 cmp	 eax, 1
  00241	75 0a		 jne	 SHORT $LN28@SetPropert
  00243	ff 75 fc	 push	 DWORD PTR _szTemp$[ebp]
  00246	ff d7		 call	 edi
  00248	83 c4 04	 add	 esp, 4
  0024b	eb 02		 jmp	 SHORT $LN29@SetPropert
$LN28@SetPropert:
  0024d	33 c0		 xor	 eax, eax
$LN29@SetPropert:

; 246  : 		CHART_CONVERT_BOOL(		p_pIPropertyMap, g_anPropertyShortKey[	DISPLAYTRDATA					], m_bDisplayTRdata,			_DPV_DISPLAYTRDATA				);	//sy 2005.11.25.

  0024f	89 83 74 01 00
	00		 mov	 DWORD PTR [ebx+372], eax
  00255	8d 4d fc	 lea	 ecx, DWORD PTR _szTemp$[ebp]
  00258	8b 06		 mov	 eax, DWORD PTR [esi]
  0025a	51		 push	 ecx
  0025b	ff 35 18 01 00
	00		 push	 DWORD PTR ?g_anPropertyShortKey@@3PAPADA+280
  00261	8b ce		 mov	 ecx, esi
  00263	ff 50 0c	 call	 DWORD PTR [eax+12]
  00266	83 f8 01	 cmp	 eax, 1
  00269	75 1d		 jne	 SHORT $LN30@SetPropert
  0026b	ff 75 fc	 push	 DWORD PTR _szTemp$[ebp]
  0026e	ff d7		 call	 edi
  00270	83 c4 04	 add	 esp, 4

; 247  : 	CHART_CONVERT_END()
; 248  : 
; 249  : 	// (2006/7/5 - Seung-Won, Bae) Manage Property Map for Update
; 250  : 	m_pIPropertyMap = p_pIPropertyMap;

  00273	89 83 78 01 00
	00		 mov	 DWORD PTR [ebx+376], eax

; 251  : }

  00279	89 b3 60 02 00
	00		 mov	 DWORD PTR [ebx+608], esi
  0027f	5f		 pop	 edi
  00280	5e		 pop	 esi
  00281	5b		 pop	 ebx
  00282	8b e5		 mov	 esp, ebp
  00284	5d		 pop	 ebp
  00285	c2 04 00	 ret	 4
$LN30@SetPropert:

; 247  : 	CHART_CONVERT_END()
; 248  : 
; 249  : 	// (2006/7/5 - Seung-Won, Bae) Manage Property Map for Update
; 250  : 	m_pIPropertyMap = p_pIPropertyMap;

  00288	c7 83 78 01 00
	00 00 00 00 00	 mov	 DWORD PTR [ebx+376], 0
  00292	5f		 pop	 edi

; 251  : }

  00293	89 b3 60 02 00
	00		 mov	 DWORD PTR [ebx+608], esi
  00299	5e		 pop	 esi
  0029a	5b		 pop	 ebx
  0029b	8b e5		 mov	 esp, ebp
  0029d	5d		 pop	 ebp
  0029e	c2 04 00	 ret	 4
?SetProperty@CViewDesignPage@@QAEXPAUIPropertyMap@@@Z ENDP ; CViewDesignPage::SetProperty
_TEXT	ENDS
; Function compile flags: /Ogtp
; File D:\git\src\IBK\IBK_DRFN\ProjSrc\SrcChartEx\ChartAddIn\ChartDesignPropertyAddIn\ChartDesignPropertyAddIn\ViewDesignPage.cpp
;	COMDAT ??1CViewDesignPage@@UAE@XZ
_TEXT	SEGMENT
??1CViewDesignPage@@UAE@XZ PROC				; CViewDesignPage::~CViewDesignPage, COMDAT
; _this$ = ecx

; 52   : {

  00000	56		 push	 esi
  00001	8b f1		 mov	 esi, ecx

; 53   : }

  00003	8d 8e 80 01 00
	00		 lea	 ecx, DWORD PTR [esi+384]
  00009	c7 06 00 00 00
	00		 mov	 DWORD PTR [esi], OFFSET ??_7CViewDesignPage@@6B@
  0000f	e8 00 00 00 00	 call	 ??1CDlgToolTip@@UAE@XZ	; CDlgToolTip::~CDlgToolTip
  00014	8d 8e c0 00 00
	00		 lea	 ecx, DWORD PTR [esi+192]
  0001a	e8 00 00 00 00	 call	 ??1CNoSystemMenuEdit@@UAE@XZ ; CNoSystemMenuEdit::~CNoSystemMenuEdit
  0001f	8b ce		 mov	 ecx, esi
  00021	5e		 pop	 esi
  00022	e9 00 00 00 00	 jmp	 ??1CPropertyPage@@UAE@XZ ; CPropertyPage::~CPropertyPage
??1CViewDesignPage@@UAE@XZ ENDP				; CViewDesignPage::~CViewDesignPage
_TEXT	ENDS
; Function compile flags: /Ogtp
; File D:\git\src\IBK\IBK_DRFN\ProjSrc\SrcChartEx\ChartAddIn\ChartDesignPropertyAddIn\ChartDesignPropertyAddIn\ViewDesignPage.cpp
;	COMDAT ??0CViewDesignPage@@QAE@XZ
_TEXT	SEGMENT
_this$ = -16						; size = 4
__$EHRec$ = -12						; size = 12
??0CViewDesignPage@@QAE@XZ PROC				; CViewDesignPage::CViewDesignPage, COMDAT
; _this$ = ecx

; 25   : {

  00000	55		 push	 ebp
  00001	8b ec		 mov	 ebp, esp
  00003	6a ff		 push	 -1
  00005	68 00 00 00 00	 push	 __ehhandler$??0CViewDesignPage@@QAE@XZ
  0000a	64 a1 00 00 00
	00		 mov	 eax, DWORD PTR fs:0
  00010	50		 push	 eax
  00011	51		 push	 ecx
  00012	56		 push	 esi
  00013	a1 00 00 00 00	 mov	 eax, DWORD PTR ___security_cookie
  00018	33 c5		 xor	 eax, ebp
  0001a	50		 push	 eax
  0001b	8d 45 f4	 lea	 eax, DWORD PTR __$EHRec$[ebp]
  0001e	64 a3 00 00 00
	00		 mov	 DWORD PTR fs:0, eax
  00024	8b f1		 mov	 esi, ecx
  00026	89 75 f0	 mov	 DWORD PTR _this$[ebp], esi

; 24   : CViewDesignPage::CViewDesignPage() : CPropertyPage(CViewDesignPage::IDD)

  00029	6a 38		 push	 56			; 00000038H
  0002b	6a 00		 push	 0
  0002d	68 60 1b 00 00	 push	 7008			; 00001b60H
  00032	e8 00 00 00 00	 call	 ??0CPropertyPage@@QAE@IIK@Z ; CPropertyPage::CPropertyPage

; 25   : {

  00037	8d 8e c0 00 00
	00		 lea	 ecx, DWORD PTR [esi+192]
  0003d	c7 45 fc 00 00
	00 00		 mov	 DWORD PTR __$EHRec$[ebp+8], 0
  00044	c7 06 00 00 00
	00		 mov	 DWORD PTR [esi], OFFSET ??_7CViewDesignPage@@6B@
  0004a	e8 00 00 00 00	 call	 ??0CNoSystemMenuEdit@@QAE@XZ ; CNoSystemMenuEdit::CNoSystemMenuEdit
  0004f	8d 8e 80 01 00
	00		 lea	 ecx, DWORD PTR [esi+384]
  00055	c6 45 fc 01	 mov	 BYTE PTR __$EHRec$[ebp+8], 1
  00059	e8 00 00 00 00	 call	 ??0CDlgToolTip@@QAE@XZ	; CDlgToolTip::CDlgToolTip

; 26   : 	//{{AFX_DATA_INIT(CViewDesignPage)
; 27   : 	m_nBorderShape = -1;

  0005e	c7 86 40 01 00
	00 ff ff ff ff	 mov	 DWORD PTR [esi+320], -1

; 28   : 	m_bDisplayTotalData = FALSE;
; 29   : 	m_nDataCountPerOnePage = 0;
; 30   : 	m_nLeftSpace = 0;
; 31   : 	m_nRightSpace = 0;
; 32   : 	m_nTopSpace = 0;
; 33   : 	m_nBottomSpace = 0;
; 34   : 	m_nMarginBorderType = -1;
; 35   : 	m_bUseConditiontoTitle = FALSE;
; 36   : 	m_bUseDatatoTitle = FALSE;
; 37   : 	m_nVertGap = 0;
; 38   : 	m_nHorzGap = 0;
; 39   : 	m_nBongCountMargin = 0;
; 40   : 	m_bDisplayTRdata = FALSE; //sy 2005.12.08.
; 41   : 	//}}AFX_DATA_INIT
; 42   : 	m_nMinDataCountOnOnePage = 5;
; 43   : 
; 44   : 	// (2006/7/5 - Seung-Won, Bae) Manage Property Map for Update
; 45   : 	m_pIPropertyMap = NULL;
; 46   : 
; 47   : 	// (2008/1/14 - Seung-Won, Bae) for MultiLanguage.
; 48   : 	m_hOcxWnd = NULL;
; 49   : }

  00068	8b c6		 mov	 eax, esi
  0006a	c7 86 44 01 00
	00 00 00 00 00	 mov	 DWORD PTR [esi+324], 0
  00074	c7 86 48 01 00
	00 00 00 00 00	 mov	 DWORD PTR [esi+328], 0
  0007e	c7 86 4c 01 00
	00 00 00 00 00	 mov	 DWORD PTR [esi+332], 0
  00088	c7 86 50 01 00
	00 00 00 00 00	 mov	 DWORD PTR [esi+336], 0
  00092	c7 86 54 01 00
	00 00 00 00 00	 mov	 DWORD PTR [esi+340], 0
  0009c	c7 86 58 01 00
	00 00 00 00 00	 mov	 DWORD PTR [esi+344], 0
  000a6	c7 86 5c 01 00
	00 ff ff ff ff	 mov	 DWORD PTR [esi+348], -1
  000b0	c7 86 60 01 00
	00 00 00 00 00	 mov	 DWORD PTR [esi+352], 0
  000ba	c7 86 64 01 00
	00 00 00 00 00	 mov	 DWORD PTR [esi+356], 0
  000c4	c7 86 68 01 00
	00 00 00 00 00	 mov	 DWORD PTR [esi+360], 0
  000ce	c7 86 6c 01 00
	00 00 00 00 00	 mov	 DWORD PTR [esi+364], 0
  000d8	c7 86 74 01 00
	00 00 00 00 00	 mov	 DWORD PTR [esi+372], 0
  000e2	c7 86 78 01 00
	00 00 00 00 00	 mov	 DWORD PTR [esi+376], 0
  000ec	c7 86 70 01 00
	00 05 00 00 00	 mov	 DWORD PTR [esi+368], 5
  000f6	c7 86 60 02 00
	00 00 00 00 00	 mov	 DWORD PTR [esi+608], 0
  00100	c7 86 64 02 00
	00 00 00 00 00	 mov	 DWORD PTR [esi+612], 0
  0010a	8b 4d f4	 mov	 ecx, DWORD PTR __$EHRec$[ebp]
  0010d	64 89 0d 00 00
	00 00		 mov	 DWORD PTR fs:0, ecx
  00114	59		 pop	 ecx
  00115	5e		 pop	 esi
  00116	8b e5		 mov	 esp, ebp
  00118	5d		 pop	 ebp
  00119	c3		 ret	 0
_TEXT	ENDS
;	COMDAT text$x
text$x	SEGMENT
__unwindfunclet$??0CViewDesignPage@@QAE@XZ$0:
  00000	8b 4d f0	 mov	 ecx, DWORD PTR _this$[ebp]
  00003	e9 00 00 00 00	 jmp	 ??1CPropertyPage@@UAE@XZ ; CPropertyPage::~CPropertyPage
__unwindfunclet$??0CViewDesignPage@@QAE@XZ$1:
  00008	8b 4d f0	 mov	 ecx, DWORD PTR _this$[ebp]
  0000b	81 c1 c0 00 00
	00		 add	 ecx, 192		; 000000c0H
  00011	e9 00 00 00 00	 jmp	 ??1CNoSystemMenuEdit@@UAE@XZ ; CNoSystemMenuEdit::~CNoSystemMenuEdit
  00016	cc		 int	 3
  00017	cc		 int	 3
  00018	cc		 int	 3
  00019	cc		 int	 3
  0001a	cc		 int	 3
__ehhandler$??0CViewDesignPage@@QAE@XZ:
  0001b	90		 npad	 1
  0001c	90		 npad	 1
  0001d	8b 54 24 08	 mov	 edx, DWORD PTR [esp+8]
  00021	8d 42 0c	 lea	 eax, DWORD PTR [edx+12]
  00024	8b 4a f4	 mov	 ecx, DWORD PTR [edx-12]
  00027	33 c8		 xor	 ecx, eax
  00029	e8 00 00 00 00	 call	 @__security_check_cookie@4
  0002e	b8 00 00 00 00	 mov	 eax, OFFSET __ehfuncinfo$??0CViewDesignPage@@QAE@XZ
  00033	e9 00 00 00 00	 jmp	 ___CxxFrameHandler3
text$x	ENDS
??0CViewDesignPage@@QAE@XZ ENDP				; CViewDesignPage::CViewDesignPage
; Function compile flags: /Ogtp
; File D:\git\src\IBK\IBK_DRFN\ProjSrc\SrcChartEx\ChartAddIn\ChartDesignPropertyAddIn\ChartDesignPropertyAddIn\ViewDesignPage.cpp
; File C:\Program Files (x86)\Microsoft Visual Studio\2019\Community\VC\Tools\MSVC\14.29.30133\atlmfc\include\afx.inl
; File D:\git\src\IBK\IBK_DRFN\ProjSrc\SrcChartEx\ChartAddIn\ChartDesignPropertyAddIn\ChartDesignPropertyAddIn\ViewDesignPage.cpp
; File C:\Program Files (x86)\Microsoft Visual Studio\2019\Community\VC\Tools\MSVC\14.29.30133\atlmfc\include\afx.inl
; File D:\git\src\IBK\IBK_DRFN\ProjSrc\SrcChartEx\ChartAddIn\ChartDesignPropertyAddIn\ChartDesignPropertyAddIn\ViewDesignPage.cpp
;	COMDAT ?CreateObject@CViewDesignPage@@SGPAVCObject@@XZ
_TEXT	SEGMENT
$T2 = -16						; size = 4
__$EHRec$ = -12						; size = 12
?CreateObject@CViewDesignPage@@SGPAVCObject@@XZ PROC	; CViewDesignPage::CreateObject, COMDAT

; 22   : IMPLEMENT_DYNCREATE(CViewDesignPage, CPropertyPage)

  00000	55		 push	 ebp
  00001	8b ec		 mov	 ebp, esp
  00003	6a ff		 push	 -1
  00005	68 00 00 00 00	 push	 __ehhandler$?CreateObject@CViewDesignPage@@SGPAVCObject@@XZ
  0000a	64 a1 00 00 00
	00		 mov	 eax, DWORD PTR fs:0
  00010	50		 push	 eax
  00011	51		 push	 ecx
  00012	56		 push	 esi
  00013	a1 00 00 00 00	 mov	 eax, DWORD PTR ___security_cookie
  00018	33 c5		 xor	 eax, ebp
  0001a	50		 push	 eax
  0001b	8d 45 f4	 lea	 eax, DWORD PTR __$EHRec$[ebp]
  0001e	64 a3 00 00 00
	00		 mov	 DWORD PTR fs:0, eax
; File C:\Program Files (x86)\Microsoft Visual Studio\2019\Community\VC\Tools\MSVC\14.29.30133\atlmfc\include\afx.inl

; 116  : 	{ return ::operator new(nSize); }

  00024	68 68 02 00 00	 push	 616			; 00000268H
  00029	e8 00 00 00 00	 call	 ??2@YAPAXI@Z		; operator new
; File D:\git\src\IBK\IBK_DRFN\ProjSrc\SrcChartEx\ChartAddIn\ChartDesignPropertyAddIn\ChartDesignPropertyAddIn\ViewDesignPage.cpp

; 22   : IMPLEMENT_DYNCREATE(CViewDesignPage, CPropertyPage)

  0002e	8b f0		 mov	 esi, eax
; File C:\Program Files (x86)\Microsoft Visual Studio\2019\Community\VC\Tools\MSVC\14.29.30133\atlmfc\include\afx.inl

; 116  : 	{ return ::operator new(nSize); }

  00030	83 c4 04	 add	 esp, 4
; File D:\git\src\IBK\IBK_DRFN\ProjSrc\SrcChartEx\ChartAddIn\ChartDesignPropertyAddIn\ChartDesignPropertyAddIn\ViewDesignPage.cpp

; 22   : IMPLEMENT_DYNCREATE(CViewDesignPage, CPropertyPage)

  00033	89 75 f0	 mov	 DWORD PTR $T2[ebp], esi
  00036	c7 45 fc 00 00
	00 00		 mov	 DWORD PTR __$EHRec$[ebp+8], 0
  0003d	85 f6		 test	 esi, esi
  0003f	0f 84 f0 00 00
	00		 je	 $LN3@CreateObje

; 24   : CViewDesignPage::CViewDesignPage() : CPropertyPage(CViewDesignPage::IDD)

  00045	6a 38		 push	 56			; 00000038H
  00047	6a 00		 push	 0
  00049	68 60 1b 00 00	 push	 7008			; 00001b60H
  0004e	8b ce		 mov	 ecx, esi
  00050	e8 00 00 00 00	 call	 ??0CPropertyPage@@QAE@IIK@Z ; CPropertyPage::CPropertyPage

; 25   : {

  00055	8d 8e c0 00 00
	00		 lea	 ecx, DWORD PTR [esi+192]
  0005b	c6 45 fc 01	 mov	 BYTE PTR __$EHRec$[ebp+8], 1
  0005f	c7 06 00 00 00
	00		 mov	 DWORD PTR [esi], OFFSET ??_7CViewDesignPage@@6B@
  00065	e8 00 00 00 00	 call	 ??0CNoSystemMenuEdit@@QAE@XZ ; CNoSystemMenuEdit::CNoSystemMenuEdit
  0006a	8d 8e 80 01 00
	00		 lea	 ecx, DWORD PTR [esi+384]
  00070	c6 45 fc 02	 mov	 BYTE PTR __$EHRec$[ebp+8], 2
  00074	e8 00 00 00 00	 call	 ??0CDlgToolTip@@QAE@XZ	; CDlgToolTip::CDlgToolTip

; 26   : 	//{{AFX_DATA_INIT(CViewDesignPage)
; 27   : 	m_nBorderShape = -1;

  00079	c7 86 40 01 00
	00 ff ff ff ff	 mov	 DWORD PTR [esi+320], -1

; 22   : IMPLEMENT_DYNCREATE(CViewDesignPage, CPropertyPage)

  00083	8b c6		 mov	 eax, esi

; 28   : 	m_bDisplayTotalData = FALSE;

  00085	c7 86 44 01 00
	00 00 00 00 00	 mov	 DWORD PTR [esi+324], 0

; 29   : 	m_nDataCountPerOnePage = 0;

  0008f	c7 86 48 01 00
	00 00 00 00 00	 mov	 DWORD PTR [esi+328], 0

; 30   : 	m_nLeftSpace = 0;

  00099	c7 86 4c 01 00
	00 00 00 00 00	 mov	 DWORD PTR [esi+332], 0

; 31   : 	m_nRightSpace = 0;

  000a3	c7 86 50 01 00
	00 00 00 00 00	 mov	 DWORD PTR [esi+336], 0

; 32   : 	m_nTopSpace = 0;

  000ad	c7 86 54 01 00
	00 00 00 00 00	 mov	 DWORD PTR [esi+340], 0

; 33   : 	m_nBottomSpace = 0;

  000b7	c7 86 58 01 00
	00 00 00 00 00	 mov	 DWORD PTR [esi+344], 0

; 34   : 	m_nMarginBorderType = -1;

  000c1	c7 86 5c 01 00
	00 ff ff ff ff	 mov	 DWORD PTR [esi+348], -1

; 35   : 	m_bUseConditiontoTitle = FALSE;

  000cb	c7 86 60 01 00
	00 00 00 00 00	 mov	 DWORD PTR [esi+352], 0

; 36   : 	m_bUseDatatoTitle = FALSE;

  000d5	c7 86 64 01 00
	00 00 00 00 00	 mov	 DWORD PTR [esi+356], 0

; 37   : 	m_nVertGap = 0;

  000df	c7 86 68 01 00
	00 00 00 00 00	 mov	 DWORD PTR [esi+360], 0

; 38   : 	m_nHorzGap = 0;

  000e9	c7 86 6c 01 00
	00 00 00 00 00	 mov	 DWORD PTR [esi+364], 0

; 39   : 	m_nBongCountMargin = 0;

  000f3	c7 86 74 01 00
	00 00 00 00 00	 mov	 DWORD PTR [esi+372], 0

; 40   : 	m_bDisplayTRdata = FALSE; //sy 2005.12.08.

  000fd	c7 86 78 01 00
	00 00 00 00 00	 mov	 DWORD PTR [esi+376], 0

; 41   : 	//}}AFX_DATA_INIT
; 42   : 	m_nMinDataCountOnOnePage = 5;

  00107	c7 86 70 01 00
	00 05 00 00 00	 mov	 DWORD PTR [esi+368], 5

; 43   : 
; 44   : 	// (2006/7/5 - Seung-Won, Bae) Manage Property Map for Update
; 45   : 	m_pIPropertyMap = NULL;

  00111	c7 86 60 02 00
	00 00 00 00 00	 mov	 DWORD PTR [esi+608], 0

; 46   : 
; 47   : 	// (2008/1/14 - Seung-Won, Bae) for MultiLanguage.
; 48   : 	m_hOcxWnd = NULL;

  0011b	c7 86 64 02 00
	00 00 00 00 00	 mov	 DWORD PTR [esi+612], 0

; 22   : IMPLEMENT_DYNCREATE(CViewDesignPage, CPropertyPage)

  00125	8b 4d f4	 mov	 ecx, DWORD PTR __$EHRec$[ebp]
  00128	64 89 0d 00 00
	00 00		 mov	 DWORD PTR fs:0, ecx
  0012f	59		 pop	 ecx
  00130	5e		 pop	 esi
  00131	8b e5		 mov	 esp, ebp
  00133	5d		 pop	 ebp
  00134	c3		 ret	 0
$LN3@CreateObje:
  00135	33 c0		 xor	 eax, eax
  00137	8b 4d f4	 mov	 ecx, DWORD PTR __$EHRec$[ebp]
  0013a	64 89 0d 00 00
	00 00		 mov	 DWORD PTR fs:0, ecx
  00141	59		 pop	 ecx
  00142	5e		 pop	 esi
  00143	8b e5		 mov	 esp, ebp
  00145	5d		 pop	 ebp
  00146	c3		 ret	 0
_TEXT	ENDS
;	COMDAT text$x
text$x	SEGMENT
__unwindfunclet$?CreateObject@CViewDesignPage@@SGPAVCObject@@XZ$0:
  00000	8b 45 f0	 mov	 eax, DWORD PTR $T2[ebp]
  00003	50		 push	 eax
  00004	e8 00 00 00 00	 call	 ??3CObject@@SGXPAX@Z	; CObject::operator delete
  00009	c3		 ret	 0
__unwindfunclet$?CreateObject@CViewDesignPage@@SGPAVCObject@@XZ$1:
  0000a	8b 4d f0	 mov	 ecx, DWORD PTR $T2[ebp]
  0000d	e9 00 00 00 00	 jmp	 ??1CPropertyPage@@UAE@XZ ; CPropertyPage::~CPropertyPage
__unwindfunclet$?CreateObject@CViewDesignPage@@SGPAVCObject@@XZ$2:
  00012	8b 4d f0	 mov	 ecx, DWORD PTR $T2[ebp]
  00015	81 c1 c0 00 00
	00		 add	 ecx, 192		; 000000c0H
  0001b	e9 00 00 00 00	 jmp	 ??1CNoSystemMenuEdit@@UAE@XZ ; CNoSystemMenuEdit::~CNoSystemMenuEdit
  00020	cc		 int	 3
  00021	cc		 int	 3
  00022	cc		 int	 3
  00023	cc		 int	 3
  00024	cc		 int	 3
__ehhandler$?CreateObject@CViewDesignPage@@SGPAVCObject@@XZ:
  00025	90		 npad	 1
  00026	90		 npad	 1
  00027	8b 54 24 08	 mov	 edx, DWORD PTR [esp+8]
  0002b	8d 42 0c	 lea	 eax, DWORD PTR [edx+12]
  0002e	8b 4a f4	 mov	 ecx, DWORD PTR [edx-12]
  00031	33 c8		 xor	 ecx, eax
  00033	e8 00 00 00 00	 call	 @__security_check_cookie@4
  00038	b8 00 00 00 00	 mov	 eax, OFFSET __ehfuncinfo$?CreateObject@CViewDesignPage@@SGPAVCObject@@XZ
  0003d	e9 00 00 00 00	 jmp	 ___CxxFrameHandler3
text$x	ENDS
?CreateObject@CViewDesignPage@@SGPAVCObject@@XZ ENDP	; CViewDesignPage::CreateObject
; Function compile flags: /Ogtp
; File D:\git\src\IBK\IBK_DRFN\ProjSrc\SrcChartEx\ChartAddIn\ChartDesignPropertyAddIn\ChartDesignPropertyAddIn\ViewDesignPage.cpp
;	COMDAT ?GetRuntimeClass@CViewDesignPage@@UBEPAUCRuntimeClass@@XZ
_TEXT	SEGMENT
?GetRuntimeClass@CViewDesignPage@@UBEPAUCRuntimeClass@@XZ PROC ; CViewDesignPage::GetRuntimeClass, COMDAT
; _this$ = ecx

; 22   : IMPLEMENT_DYNCREATE(CViewDesignPage, CPropertyPage)

  00000	b8 00 00 00 00	 mov	 eax, OFFSET ?classCViewDesignPage@CViewDesignPage@@2UCRuntimeClass@@B ; CViewDesignPage::classCViewDesignPage
  00005	c3		 ret	 0
?GetRuntimeClass@CViewDesignPage@@UBEPAUCRuntimeClass@@XZ ENDP ; CViewDesignPage::GetRuntimeClass
_TEXT	ENDS
; Function compile flags: /Ogtp
; File D:\git\src\IBK\IBK_DRFN\ProjSrc\SrcChartEx\ChartAddIn\ChartDesignPropertyAddIn\ChartDesignPropertyAddIn\ViewDesignPage.cpp
;	COMDAT ?GetThisClass@CViewDesignPage@@SGPAUCRuntimeClass@@XZ
_TEXT	SEGMENT
?GetThisClass@CViewDesignPage@@SGPAUCRuntimeClass@@XZ PROC ; CViewDesignPage::GetThisClass, COMDAT

; 22   : IMPLEMENT_DYNCREATE(CViewDesignPage, CPropertyPage)

  00000	b8 00 00 00 00	 mov	 eax, OFFSET ?classCViewDesignPage@CViewDesignPage@@2UCRuntimeClass@@B ; CViewDesignPage::classCViewDesignPage
  00005	c3		 ret	 0
?GetThisClass@CViewDesignPage@@SGPAUCRuntimeClass@@XZ ENDP ; CViewDesignPage::GetThisClass
_TEXT	ENDS
; Function compile flags: /Ogtp
; File D:\git\src\IBK\IBK_DRFN\ProjSrc\SrcChartEx\ChartAddIn\ChartDesignPropertyAddIn\ChartDesignPropertyAddIn\ViewDesignPage.cpp
;	COMDAT ?_GetBaseClass@CViewDesignPage@@KGPAUCRuntimeClass@@XZ
_TEXT	SEGMENT
?_GetBaseClass@CViewDesignPage@@KGPAUCRuntimeClass@@XZ PROC ; CViewDesignPage::_GetBaseClass, COMDAT

; 22   : IMPLEMENT_DYNCREATE(CViewDesignPage, CPropertyPage)

  00000	e9 00 00 00 00	 jmp	 ?GetThisClass@CPropertyPage@@SGPAUCRuntimeClass@@XZ ; CPropertyPage::GetThisClass
?_GetBaseClass@CViewDesignPage@@KGPAUCRuntimeClass@@XZ ENDP ; CViewDesignPage::_GetBaseClass
_TEXT	ENDS
; Function compile flags: /Ogtp
; File D:\git\src\IBK\IBK_DRFN\ProjSrc\SrcChartEx\ChartAddIn\ChartDesignPropertyAddIn\Include_Chart\Dll_Load\IMetaTable.h
; File C:\Program Files (x86)\Microsoft Visual Studio\2019\Community\VC\Tools\MSVC\14.29.30133\atlmfc\include\afxwin1.inl
; File D:\git\src\IBK\IBK_DRFN\ProjSrc\SrcChartEx\ChartAddIn\ChartDesignPropertyAddIn\Include_Chart\Dll_Load\IMetaTable.h
;	COMDAT ??1CMultiLanguageResourceSetter@@QAE@XZ
_TEXT	SEGMENT
__$EHRec$ = -12						; size = 12
??1CMultiLanguageResourceSetter@@QAE@XZ PROC		; CMultiLanguageResourceSetter::~CMultiLanguageResourceSetter, COMDAT
; _this$ = ecx

; 1036 : 	{

  00000	55		 push	 ebp
  00001	8b ec		 mov	 ebp, esp
  00003	6a ff		 push	 -1
  00005	68 00 00 00 00	 push	 __ehhandler$??1CMultiLanguageResourceSetter@@QAE@XZ
  0000a	64 a1 00 00 00
	00		 mov	 eax, DWORD PTR fs:0
  00010	50		 push	 eax
  00011	56		 push	 esi
  00012	a1 00 00 00 00	 mov	 eax, DWORD PTR ___security_cookie
  00017	33 c5		 xor	 eax, ebp
  00019	50		 push	 eax
  0001a	8d 45 f4	 lea	 eax, DWORD PTR __$EHRec$[ebp]
  0001d	64 a3 00 00 00
	00		 mov	 DWORD PTR fs:0, eax

; 1037 : 		AfxSetResourceHandle( m_hInstance);

  00023	8b 31		 mov	 esi, DWORD PTR [ecx]
; File C:\Program Files (x86)\Microsoft Visual Studio\2019\Community\VC\Tools\MSVC\14.29.30133\atlmfc\include\afxwin1.inl

; 27   : 	{ ASSERT(hInstResource != NULL); afxCurrentResourceHandle = hInstResource; }

  00025	e8 00 00 00 00	 call	 ?AfxGetModuleState@@YGPAVAFX_MODULE_STATE@@XZ ; AfxGetModuleState
  0002a	89 70 0c	 mov	 DWORD PTR [eax+12], esi
; File D:\git\src\IBK\IBK_DRFN\ProjSrc\SrcChartEx\ChartAddIn\ChartDesignPropertyAddIn\Include_Chart\Dll_Load\IMetaTable.h

; 1038 : 	}

  0002d	8b 4d f4	 mov	 ecx, DWORD PTR __$EHRec$[ebp]
  00030	64 89 0d 00 00
	00 00		 mov	 DWORD PTR fs:0, ecx
  00037	59		 pop	 ecx
  00038	5e		 pop	 esi
  00039	8b e5		 mov	 esp, ebp
  0003b	5d		 pop	 ebp
  0003c	c3		 ret	 0
  0003d	cc		 int	 3
  0003e	cc		 int	 3
  0003f	cc		 int	 3
  00040	cc		 int	 3
  00041	cc		 int	 3
_TEXT	ENDS
;	COMDAT text$x
text$x	SEGMENT
__ehhandler$??1CMultiLanguageResourceSetter@@QAE@XZ:
  00000	90		 npad	 1
  00001	90		 npad	 1
  00002	8b 54 24 08	 mov	 edx, DWORD PTR [esp+8]
  00006	8d 42 0c	 lea	 eax, DWORD PTR [edx+12]
  00009	8b 4a f8	 mov	 ecx, DWORD PTR [edx-8]
  0000c	33 c8		 xor	 ecx, eax
  0000e	e8 00 00 00 00	 call	 @__security_check_cookie@4
  00013	b8 00 00 00 00	 mov	 eax, OFFSET __ehfuncinfo$??1CMultiLanguageResourceSetter@@QAE@XZ
  00018	e9 00 00 00 00	 jmp	 ___CxxFrameHandler3
text$x	ENDS
??1CMultiLanguageResourceSetter@@QAE@XZ ENDP		; CMultiLanguageResourceSetter::~CMultiLanguageResourceSetter
; Function compile flags: /Ogtp
; File D:\git\src\IBK\IBK_DRFN\ProjSrc\SrcChartEx\ChartAddIn\ChartDesignPropertyAddIn\Include_Chart\Dll_Load\IMetaTable.h
;	COMDAT ?LoadResourceDLL@IMetaTable@@QAEPAUHINSTANCE__@@PAUHWND__@@PAU2@@Z
_TEXT	SEGMENT
_p1$ = 8						; size = 4
_p2$ = 12						; size = 4
?LoadResourceDLL@IMetaTable@@QAEPAUHINSTANCE__@@PAUHWND__@@PAU2@@Z PROC ; IMetaTable::LoadResourceDLL, COMDAT
; _this$ = ecx

; 936  : 	DECLARE_FUNCTION2(	LoadResourceDLL,				HMODULE, AfxGetStaticModuleState()->m_hCurrentInstanceHandle, HWND, HMODULE);

  00000	55		 push	 ebp
  00001	8b ec		 mov	 ebp, esp
  00003	56		 push	 esi
  00004	8b f1		 mov	 esi, ecx
  00006	8b 46 04	 mov	 eax, DWORD PTR [esi+4]
  00009	85 c0		 test	 eax, eax
  0000b	74 4d		 je	 SHORT $LN4@LoadResour
  0000d	57		 push	 edi
  0000e	bf 80 0d 00 00	 mov	 edi, 3456		; 00000d80H
  00013	66 3b be 94 00
	00 00		 cmp	 di, WORD PTR [esi+148]
  0001a	74 23		 je	 SHORT $LN3@LoadResour
  0001c	68 00 00 00 00	 push	 OFFSET ??_C@_0BA@ENJOCHIO@LoadResourceDLL@
  00021	50		 push	 eax
  00022	c7 86 90 00 00
	00 00 00 00 00	 mov	 DWORD PTR [esi+144], 0
  0002c	ff 15 00 00 00
	00		 call	 DWORD PTR __imp__GetProcAddress@8
  00032	89 86 90 00 00
	00		 mov	 DWORD PTR [esi+144], eax
  00038	66 89 be 94 00
	00 00		 mov	 WORD PTR [esi+148], di
$LN3@LoadResour:
  0003f	8b 86 90 00 00
	00		 mov	 eax, DWORD PTR [esi+144]
  00045	5f		 pop	 edi
  00046	85 c0		 test	 eax, eax
  00048	74 10		 je	 SHORT $LN4@LoadResour
  0004a	ff 75 0c	 push	 DWORD PTR _p2$[ebp]
  0004d	ff 75 08	 push	 DWORD PTR _p1$[ebp]
  00050	ff d0		 call	 eax
  00052	83 c4 08	 add	 esp, 8
  00055	5e		 pop	 esi
  00056	5d		 pop	 ebp
  00057	c2 08 00	 ret	 8
$LN4@LoadResour:
  0005a	e8 00 00 00 00	 call	 ?AfxGetStaticModuleState@@YGPAVAFX_MODULE_STATE@@XZ ; AfxGetStaticModuleState
  0005f	5e		 pop	 esi
  00060	8b 40 08	 mov	 eax, DWORD PTR [eax+8]
  00063	5d		 pop	 ebp
  00064	c2 08 00	 ret	 8
?LoadResourceDLL@IMetaTable@@QAEPAUHINSTANCE__@@PAUHWND__@@PAU2@@Z ENDP ; IMetaTable::LoadResourceDLL
_TEXT	ENDS
; Function compile flags: /Ogtp
; File C:\Program Files (x86)\Microsoft Visual Studio\2019\Community\VC\Tools\MSVC\14.29.30133\atlmfc\include\afxwin2.inl
;	COMDAT ?Create@CDialog@@UAEHIPAVCWnd@@@Z
_TEXT	SEGMENT
_nIDTemplate$ = 8					; size = 4
_pParentWnd$ = 12					; size = 4
?Create@CDialog@@UAEHIPAVCWnd@@@Z PROC			; CDialog::Create, COMDAT
; _this$ = ecx

; 585  : 	{ return CDialog::Create(ATL_MAKEINTRESOURCE(nIDTemplate), pParentWnd); }

  00000	55		 push	 ebp
  00001	8b ec		 mov	 ebp, esp
  00003	0f b7 45 08	 movzx	 eax, WORD PTR _nIDTemplate$[ebp]
  00007	89 45 08	 mov	 DWORD PTR _nIDTemplate$[ebp], eax
  0000a	5d		 pop	 ebp
  0000b	e9 00 00 00 00	 jmp	 ?Create@CDialog@@UAEHPBDPAVCWnd@@@Z ; CDialog::Create
?Create@CDialog@@UAEHIPAVCWnd@@@Z ENDP			; CDialog::Create
_TEXT	ENDS
; Function compile flags: /Ogtp
; File C:\Program Files (x86)\Microsoft Visual Studio\2019\Community\VC\Tools\MSVC\14.29.30133\atlmfc\include\afxwin2.inl
;	COMDAT ?EndModalState@CWnd@@UAEXXZ
_TEXT	SEGMENT
?EndModalState@CWnd@@UAEXXZ PROC			; CWnd::EndModalState, COMDAT
; _this$ = ecx

; 567  : 	{ ::EnableWindow(m_hWnd, TRUE); }

  00000	6a 01		 push	 1
  00002	ff 71 20	 push	 DWORD PTR [ecx+32]
  00005	ff 15 00 00 00
	00		 call	 DWORD PTR __imp__EnableWindow@8
  0000b	c3		 ret	 0
?EndModalState@CWnd@@UAEXXZ ENDP			; CWnd::EndModalState
_TEXT	ENDS
; Function compile flags: /Ogtp
; File C:\Program Files (x86)\Microsoft Visual Studio\2019\Community\VC\Tools\MSVC\14.29.30133\atlmfc\include\afxwin2.inl
;	COMDAT ?BeginModalState@CWnd@@UAEXXZ
_TEXT	SEGMENT
?BeginModalState@CWnd@@UAEXXZ PROC			; CWnd::BeginModalState, COMDAT
; _this$ = ecx

; 565  : 	{ ::EnableWindow(m_hWnd, FALSE); }

  00000	6a 00		 push	 0
  00002	ff 71 20	 push	 DWORD PTR [ecx+32]
  00005	ff 15 00 00 00
	00		 call	 DWORD PTR __imp__EnableWindow@8
  0000b	c3		 ret	 0
?BeginModalState@CWnd@@UAEXXZ ENDP			; CWnd::BeginModalState
_TEXT	ENDS
; Function compile flags: /Ogtp
; File C:\Program Files (x86)\Microsoft Visual Studio\2019\Community\VC\Tools\MSVC\14.29.30133\atlmfc\include\afxwin2.inl
;	COMDAT ?DoDataExchange@CWnd@@MAEXPAVCDataExchange@@@Z
_TEXT	SEGMENT
___formal$ = 8						; size = 4
?DoDataExchange@CWnd@@MAEXPAVCDataExchange@@@Z PROC	; CWnd::DoDataExchange, COMDAT
; _this$ = ecx

; 561  : 	{ } // default does nothing

  00000	c2 04 00	 ret	 4
?DoDataExchange@CWnd@@MAEXPAVCDataExchange@@@Z ENDP	; CWnd::DoDataExchange
_TEXT	ENDS
; Function compile flags: /Ogtp
; File C:\Program Files (x86)\Microsoft Visual Studio\2019\Community\VC\Tools\MSVC\14.29.30133\atlmfc\include\afx.inl
;	COMDAT ?Dump@CObject@@UBEXAAVCDumpContext@@@Z
_TEXT	SEGMENT
___formal$ = 8						; size = 4
?Dump@CObject@@UBEXAAVCDumpContext@@@Z PROC		; CObject::Dump, COMDAT
; _this$ = ecx

; 122  : 	{ /* no dumping in release builds */ }

  00000	c2 04 00	 ret	 4
?Dump@CObject@@UBEXAAVCDumpContext@@@Z ENDP		; CObject::Dump
_TEXT	ENDS
; Function compile flags: /Ogtp
; File C:\Program Files (x86)\Microsoft Visual Studio\2019\Community\VC\Tools\MSVC\14.29.30133\atlmfc\include\afx.inl
;	COMDAT ?AssertValid@CObject@@UBEXXZ
_TEXT	SEGMENT
?AssertValid@CObject@@UBEXXZ PROC			; CObject::AssertValid, COMDAT
; _this$ = ecx

; 120  : 	{ /* no asserts in release builds */ }

  00000	c2 00 00	 ret	 0
?AssertValid@CObject@@UBEXXZ ENDP			; CObject::AssertValid
_TEXT	ENDS
; Function compile flags: /Ogtp
; File C:\Program Files (x86)\Microsoft Visual Studio\2019\Community\VC\Tools\MSVC\14.29.30133\atlmfc\include\afx.inl
;	COMDAT ?Serialize@CObject@@UAEXAAVCArchive@@@Z
_TEXT	SEGMENT
___formal$ = 8						; size = 4
?Serialize@CObject@@UAEXAAVCArchive@@@Z PROC		; CObject::Serialize, COMDAT
; _this$ = ecx

; 106  : 	{ /* CObject does not serialize anything by default */ }

  00000	c2 04 00	 ret	 4
?Serialize@CObject@@UAEXAAVCArchive@@@Z ENDP		; CObject::Serialize
_TEXT	ENDS
; Function compile flags: /Ogtp
; File C:\Program Files (x86)\Microsoft Visual Studio\2019\Community\VC\Tools\MSVC\14.29.30133\atlmfc\include\afx.inl
;	COMDAT ??3CObject@@SGXPAX@Z
_TEXT	SEGMENT
_p$ = 8							; size = 4
??3CObject@@SGXPAX@Z PROC				; CObject::operator delete, COMDAT

; 112  : 	{ ::operator delete(p); }

  00000	55		 push	 ebp
  00001	8b ec		 mov	 ebp, esp
  00003	ff 75 08	 push	 DWORD PTR _p$[ebp]
  00006	e8 00 00 00 00	 call	 ??3@YAXPAX@Z		; operator delete
  0000b	83 c4 04	 add	 esp, 4
  0000e	5d		 pop	 ebp
  0000f	c2 04 00	 ret	 4
??3CObject@@SGXPAX@Z ENDP				; CObject::operator delete
_TEXT	ENDS
; Function compile flags: /Ogtp
; File D:\git\src\IBK\IBK_DRFN\ProjSrc\SrcChartEx\ChartAddIn\ChartDesignPropertyAddIn\ChartDesignPropertyAddIn\ViewDesignPage.cpp
;	COMDAT ?__empty_global_delete@@YAXPAXI@Z
_TEXT	SEGMENT
___formal$ = 8						; size = 4
___formal$ = 12						; size = 4
?__empty_global_delete@@YAXPAXI@Z PROC			; __empty_global_delete, COMDAT

  00000	c2 00 00	 ret	 0
?__empty_global_delete@@YAXPAXI@Z ENDP			; __empty_global_delete
_TEXT	ENDS
; Function compile flags: /Ogtp
; File D:\git\src\IBK\IBK_DRFN\ProjSrc\SrcChartEx\ChartAddIn\ChartDesignPropertyAddIn\ChartDesignPropertyAddIn\ViewDesignPage.cpp
;	COMDAT ?__empty_global_delete@@YAXPAX@Z
_TEXT	SEGMENT
___formal$ = 8						; size = 4
?__empty_global_delete@@YAXPAX@Z PROC			; __empty_global_delete, COMDAT

  00000	c2 00 00	 ret	 0
?__empty_global_delete@@YAXPAX@Z ENDP			; __empty_global_delete
_TEXT	ENDS
END
