; Listing generated by Microsoft (R) Optimizing Compiler Version 19.29.30145.0 

	TITLE	D:\git\src\IBK\IBK_DRFN\#DRfn-CS\_Obj\ExGridLib\ExGridCtrl.obj
	.686P
	.XMM
	include listing.inc
	.model	flat

INCLUDELIB MSVCRT
INCLUDELIB OLDNAMES

PUBLIC	?__empty_global_delete@@YAXPAX@Z		; __empty_global_delete
PUBLIC	?__empty_global_delete@@YAXPAXI@Z		; __empty_global_delete
PUBLIC	___local_stdio_printf_options
PUBLIC	_sprintf
PUBLIC	??3CObject@@SGXPAX@Z				; CObject::operator delete
PUBLIC	?Serialize@CObject@@UAEXAAVCArchive@@@Z		; CObject::Serialize
PUBLIC	?AssertValid@CObject@@UBEXXZ			; CObject::AssertValid
PUBLIC	?Dump@CObject@@UBEXAAVCDumpContext@@@Z		; CObject::Dump
PUBLIC	?_AfxInitManaged@@YAHXZ				; _AfxInitManaged
PUBLIC	?DoDataExchange@CWnd@@MAEXPAVCDataExchange@@@Z	; CWnd::DoDataExchange
PUBLIC	?BeginModalState@CWnd@@UAEXXZ			; CWnd::BeginModalState
PUBLIC	?EndModalState@CWnd@@UAEXXZ			; CWnd::EndModalState
PUBLIC	?_GetBaseClass@CExGridCtrl@@KGPAUCRuntimeClass@@XZ ; CExGridCtrl::_GetBaseClass
PUBLIC	?GetThisClass@CExGridCtrl@@SGPAUCRuntimeClass@@XZ ; CExGridCtrl::GetThisClass
PUBLIC	?GetRuntimeClass@CExGridCtrl@@UBEPAUCRuntimeClass@@XZ ; CExGridCtrl::GetRuntimeClass
PUBLIC	?CreateObject@CExGridCtrl@@SGPAVCObject@@XZ	; CExGridCtrl::CreateObject
PUBLIC	?ActionControl@CExGridCtrl@@QAEJPAX@Z		; CExGridCtrl::ActionControl
PUBLIC	??0CExGridCtrl@@QAE@HHHH@Z			; CExGridCtrl::CExGridCtrl
PUBLIC	?GetMouseScrollLines@CExGridCtrl@@QAEIXZ	; CExGridCtrl::GetMouseScrollLines
PUBLIC	?Create@CExGridCtrl@@QAEHAAUtagRECT@@PAVCWnd@@IK@Z ; CExGridCtrl::Create
PUBLIC	?GetRowCount@CExGridCtrl@@QAEHXZ		; CExGridCtrl::GetRowCount
PUBLIC	?GetColumnCount@CExGridCtrl@@QAEHXZ		; CExGridCtrl::GetColumnCount
PUBLIC	?GetFixedRowCount@CExGridCtrl@@QAEHXZ		; CExGridCtrl::GetFixedRowCount
PUBLIC	?GetFixedColumnCount@CExGridCtrl@@QAEHXZ	; CExGridCtrl::GetFixedColumnCount
PUBLIC	?SetRowCount@CExGridCtrl@@QAEHH@Z		; CExGridCtrl::SetRowCount
PUBLIC	?SetColumnCount@CExGridCtrl@@QAEHH@Z		; CExGridCtrl::SetColumnCount
PUBLIC	?SetFixedRowCount@CExGridCtrl@@QAEHH@Z		; CExGridCtrl::SetFixedRowCount
PUBLIC	?SetFixedColumnCount@CExGridCtrl@@QAEHH@Z	; CExGridCtrl::SetFixedColumnCount
PUBLIC	?GetRowHeight@CExGridCtrl@@QAEHH@Z		; CExGridCtrl::GetRowHeight
PUBLIC	?SetRowHeight@CExGridCtrl@@QAEHHH@Z		; CExGridCtrl::SetRowHeight
PUBLIC	?GetColumnWidth@CExGridCtrl@@QAEHH@Z		; CExGridCtrl::GetColumnWidth
PUBLIC	?SetColumnWidth@CExGridCtrl@@QAEHHH@Z		; CExGridCtrl::SetColumnWidth
PUBLIC	?GetCellOrigin@CExGridCtrl@@QAEHHHPAUtagPOINT@@@Z ; CExGridCtrl::GetCellOrigin
PUBLIC	?GetCellOrigin@CExGridCtrl@@QAEHAAVCCellID@@PAUtagPOINT@@@Z ; CExGridCtrl::GetCellOrigin
PUBLIC	?GetCellRect@CExGridCtrl@@QAEHHHPAUtagRECT@@@Z	; CExGridCtrl::GetCellRect
PUBLIC	?GetCellRect@CExGridCtrl@@QAEHAAVCCellID@@PAUtagRECT@@@Z ; CExGridCtrl::GetCellRect
PUBLIC	?GetTextRect@CExGridCtrl@@QAEHAAVCCellID@@PAUtagRECT@@@Z ; CExGridCtrl::GetTextRect
PUBLIC	?GetTextRect@CExGridCtrl@@QAEHHHPAUtagRECT@@@Z	; CExGridCtrl::GetTextRect
PUBLIC	?GetCellFromPt@CExGridCtrl@@QAE?AVCCellID@@VCPoint@@H@Z ; CExGridCtrl::GetCellFromPt
PUBLIC	?GetFixedRowHeight@CExGridCtrl@@QAEHXZ		; CExGridCtrl::GetFixedRowHeight
PUBLIC	?GetFixedColumnWidth@CExGridCtrl@@QAEHXZ	; CExGridCtrl::GetFixedColumnWidth
PUBLIC	?GetVirtualWidth@CExGridCtrl@@QAEJXZ		; CExGridCtrl::GetVirtualWidth
PUBLIC	?GetVirtualHeight@CExGridCtrl@@QAEJXZ		; CExGridCtrl::GetVirtualHeight
PUBLIC	?GetTextExtent@CExGridCtrl@@QAE?AVCSize@@HHPBD@Z ; CExGridCtrl::GetTextExtent
PUBLIC	?SetGridBkColor@CExGridCtrl@@QAEXK@Z		; CExGridCtrl::SetGridBkColor
PUBLIC	?GetGridBkColor@CExGridCtrl@@QAEKXZ		; CExGridCtrl::GetGridBkColor
PUBLIC	?SetGridLineColor@CExGridCtrl@@QAEXK@Z		; CExGridCtrl::SetGridLineColor
PUBLIC	?GetGridLineColor@CExGridCtrl@@QAEKXZ		; CExGridCtrl::GetGridLineColor
PUBLIC	?SetTitleTipBackClr@CExGridCtrl@@QAEXK@Z	; CExGridCtrl::SetTitleTipBackClr
PUBLIC	?GetTitleTipBackClr@CExGridCtrl@@QAEKXZ		; CExGridCtrl::GetTitleTipBackClr
PUBLIC	?SetTitleTipTextClr@CExGridCtrl@@QAEXK@Z	; CExGridCtrl::SetTitleTipTextClr
PUBLIC	?GetTitleTipTextClr@CExGridCtrl@@QAEKXZ		; CExGridCtrl::GetTitleTipTextClr
PUBLIC	?SetFixedGridLineColor_Light@CExGridCtrl@@QAEXK@Z ; CExGridCtrl::SetFixedGridLineColor_Light
PUBLIC	?SetFixedGridLineColor_Dark@CExGridCtrl@@QAEXK@Z ; CExGridCtrl::SetFixedGridLineColor_Dark
PUBLIC	?GetFixedGridLineColor_Light@CExGridCtrl@@QAEKXZ ; CExGridCtrl::GetFixedGridLineColor_Light
PUBLIC	?GetFixedGridLineColor_Dark@CExGridCtrl@@QAEKXZ	; CExGridCtrl::GetFixedGridLineColor_Dark
PUBLIC	?SetHighlightColor@CExGridCtrl@@QAEXK@Z		; CExGridCtrl::SetHighlightColor
PUBLIC	?SetHighlightTextColor@CExGridCtrl@@QAEXK@Z	; CExGridCtrl::SetHighlightTextColor
PUBLIC	?GetHighlightColor@CExGridCtrl@@QAEKXZ		; CExGridCtrl::GetHighlightColor
PUBLIC	?GetHighlightTextColor@CExGridCtrl@@QAEKXZ	; CExGridCtrl::GetHighlightTextColor
PUBLIC	?SetUseHighlightText@CExGridCtrl@@QAEXH@Z	; CExGridCtrl::SetUseHighlightText
PUBLIC	?GetUseHighlightText@CExGridCtrl@@QAEHXZ	; CExGridCtrl::GetUseHighlightText
PUBLIC	?SetFixedRowSelectionHighlight@CExGridCtrl@@QAEXH@Z ; CExGridCtrl::SetFixedRowSelectionHighlight
PUBLIC	?GetFixedRowSelectionHighlight@CExGridCtrl@@QAEHXZ ; CExGridCtrl::GetFixedRowSelectionHighlight
PUBLIC	?SetGridScrollBarVisible@CExGridCtrl@@QAEXHH@Z	; CExGridCtrl::SetGridScrollBarVisible
PUBLIC	?SetTextColor@CExGridCtrl@@QAEXK@Z		; CExGridCtrl::SetTextColor
PUBLIC	?GetTextColor@CExGridCtrl@@QAEKXZ		; CExGridCtrl::GetTextColor
PUBLIC	?SetTextBkColor@CExGridCtrl@@QAEXK@Z		; CExGridCtrl::SetTextBkColor
PUBLIC	?GetTextBkColor@CExGridCtrl@@QAEKXZ		; CExGridCtrl::GetTextBkColor
PUBLIC	?SetFixedTextColor@CExGridCtrl@@QAEXK@Z		; CExGridCtrl::SetFixedTextColor
PUBLIC	?GetFixedTextColor@CExGridCtrl@@QAEKXZ		; CExGridCtrl::GetFixedTextColor
PUBLIC	?SetFixedBkColor@CExGridCtrl@@QAEXK@Z		; CExGridCtrl::SetFixedBkColor
PUBLIC	?GetFixedBkColor@CExGridCtrl@@QAEKXZ		; CExGridCtrl::GetFixedBkColor
PUBLIC	?SetGridColor@CExGridCtrl@@QAEXK@Z		; CExGridCtrl::SetGridColor
PUBLIC	?GetGridColor@CExGridCtrl@@QAEKXZ		; CExGridCtrl::GetGridColor
PUBLIC	?SetBkColor@CExGridCtrl@@QAEXK@Z		; CExGridCtrl::SetBkColor
PUBLIC	?GetBkColor@CExGridCtrl@@QAEKXZ			; CExGridCtrl::GetBkColor
PUBLIC	?SetDefCellMargin@CExGridCtrl@@QAEXH@Z		; CExGridCtrl::SetDefCellMargin
PUBLIC	?GetDefCellMargin@CExGridCtrl@@QAEHXZ		; CExGridCtrl::GetDefCellMargin
PUBLIC	?GetDefCellHeight@CExGridCtrl@@QAEHXZ		; CExGridCtrl::GetDefCellHeight
PUBLIC	?SetDefCellHeight@CExGridCtrl@@QAEXH@Z		; CExGridCtrl::SetDefCellHeight
PUBLIC	?GetDefCellWidth@CExGridCtrl@@QAEHXZ		; CExGridCtrl::GetDefCellWidth
PUBLIC	?SetDefCellWidth@CExGridCtrl@@QAEXH@Z		; CExGridCtrl::SetDefCellWidth
PUBLIC	?GetSelectedCount@CExGridCtrl@@QAEHXZ		; CExGridCtrl::GetSelectedCount
PUBLIC	?SetFocusCell@CExGridCtrl@@QAE?AVCCellID@@V2@@Z	; CExGridCtrl::SetFocusCell
PUBLIC	?SetFocusCell@CExGridCtrl@@QAE?AVCCellID@@HH@Z	; CExGridCtrl::SetFocusCell
PUBLIC	?GetFocusCell@CExGridCtrl@@QAE?AVCCellID@@XZ	; CExGridCtrl::GetFocusCell
PUBLIC	?SetVirtualMode@CExGridCtrl@@QAEXH@Z		; CExGridCtrl::SetVirtualMode
PUBLIC	?GetVirtualMode@CExGridCtrl@@QAEHXZ		; CExGridCtrl::GetVirtualMode
PUBLIC	?SetCallbackFunc@CExGridCtrl@@QAEXP6GHPAUtagGV_DISPINFO@@J@ZJ@Z ; CExGridCtrl::SetCallbackFunc
PUBLIC	?GetCallbackFunc@CExGridCtrl@@QAEP6GHPAUtagGV_DISPINFO@@J@ZXZ ; CExGridCtrl::GetCallbackFunc
PUBLIC	?SetImageList@CExGridCtrl@@QAEXPAVCImageList@@@Z ; CExGridCtrl::SetImageList
PUBLIC	?GetImageList@CExGridCtrl@@QAEPAVCImageList@@XZ	; CExGridCtrl::GetImageList
PUBLIC	?SetGridLines@CExGridCtrl@@QAEXH@Z		; CExGridCtrl::SetGridLines
PUBLIC	?GetGridLines@CExGridCtrl@@QAEHXZ		; CExGridCtrl::GetGridLines
PUBLIC	?SetEditable@CExGridCtrl@@QAEXH@Z		; CExGridCtrl::SetEditable
PUBLIC	?IsEditable@CExGridCtrl@@QAEHXZ			; CExGridCtrl::IsEditable
PUBLIC	?SetListMode@CExGridCtrl@@QAEXH@Z		; CExGridCtrl::SetListMode
PUBLIC	?GetListMode@CExGridCtrl@@QAEHXZ		; CExGridCtrl::GetListMode
PUBLIC	?SetSingleRowSelection@CExGridCtrl@@QAEXH@Z	; CExGridCtrl::SetSingleRowSelection
PUBLIC	?GetSingleRowSelection@CExGridCtrl@@QAEHXZ	; CExGridCtrl::GetSingleRowSelection
PUBLIC	?SetSingleColSelection@CExGridCtrl@@QAEXH@Z	; CExGridCtrl::SetSingleColSelection
PUBLIC	?GetSingleColSelection@CExGridCtrl@@QAEHXZ	; CExGridCtrl::GetSingleColSelection
PUBLIC	?EnableSelection@CExGridCtrl@@QAEXH@Z		; CExGridCtrl::EnableSelection
PUBLIC	?IsSelectable@CExGridCtrl@@QAEHXZ		; CExGridCtrl::IsSelectable
PUBLIC	?SetFixedColumnSelection@CExGridCtrl@@QAEXH@Z	; CExGridCtrl::SetFixedColumnSelection
PUBLIC	?GetFixedColumnSelection@CExGridCtrl@@QAEHXZ	; CExGridCtrl::GetFixedColumnSelection
PUBLIC	?SetFixedRowSelection@CExGridCtrl@@QAEXH@Z	; CExGridCtrl::SetFixedRowSelection
PUBLIC	?GetFixedRowSelection@CExGridCtrl@@QAEHXZ	; CExGridCtrl::GetFixedRowSelection
PUBLIC	?EnableDragAndDrop@CExGridCtrl@@QAEXH@Z		; CExGridCtrl::EnableDragAndDrop
PUBLIC	?GetDragAndDrop@CExGridCtrl@@QAEHXZ		; CExGridCtrl::GetDragAndDrop
PUBLIC	?SetRowResize@CExGridCtrl@@QAEXH@Z		; CExGridCtrl::SetRowResize
PUBLIC	?GetRowResize@CExGridCtrl@@QAEHXZ		; CExGridCtrl::GetRowResize
PUBLIC	?SetColumnResize@CExGridCtrl@@QAEXH@Z		; CExGridCtrl::SetColumnResize
PUBLIC	?GetColumnResize@CExGridCtrl@@QAEHXZ		; CExGridCtrl::GetColumnResize
PUBLIC	?SetHeaderSort@CExGridCtrl@@QAEXH@Z		; CExGridCtrl::SetHeaderSort
PUBLIC	?GetHeaderSort@CExGridCtrl@@QAEHXZ		; CExGridCtrl::GetHeaderSort
PUBLIC	?SetHandleTabKey@CExGridCtrl@@QAEXH@Z		; CExGridCtrl::SetHandleTabKey
PUBLIC	?GetHandleTabKey@CExGridCtrl@@QAEHXZ		; CExGridCtrl::GetHandleTabKey
PUBLIC	?SetDoubleBuffering@CExGridCtrl@@QAEXH@Z	; CExGridCtrl::SetDoubleBuffering
PUBLIC	?GetDoubleBuffering@CExGridCtrl@@QAEHXZ		; CExGridCtrl::GetDoubleBuffering
PUBLIC	?EnableTitleTips@CExGridCtrl@@QAEXH@Z		; CExGridCtrl::EnableTitleTips
PUBLIC	?GetTitleTips@CExGridCtrl@@QAEHXZ		; CExGridCtrl::GetTitleTips
PUBLIC	?SetSortColumn@CExGridCtrl@@QAEXH@Z		; CExGridCtrl::SetSortColumn
PUBLIC	?GetSortColumn@CExGridCtrl@@QAEHXZ		; CExGridCtrl::GetSortColumn
PUBLIC	?SetSortAscending@CExGridCtrl@@QAEXH@Z		; CExGridCtrl::SetSortAscending
PUBLIC	?GetSortAscending@CExGridCtrl@@QAEHXZ		; CExGridCtrl::GetSortAscending
PUBLIC	?SetTrackFocusCell@CExGridCtrl@@QAEXH@Z		; CExGridCtrl::SetTrackFocusCell
PUBLIC	?GetTrackFocusCell@CExGridCtrl@@QAEHXZ		; CExGridCtrl::GetTrackFocusCell
PUBLIC	?SetFrameFocusCell@CExGridCtrl@@QAEXH@Z		; CExGridCtrl::SetFrameFocusCell
PUBLIC	?GetFrameFocusCell@CExGridCtrl@@QAEHXZ		; CExGridCtrl::GetFrameFocusCell
PUBLIC	?SetAutoSizeStyle@CExGridCtrl@@QAEXH@Z		; CExGridCtrl::SetAutoSizeStyle
PUBLIC	?GetAutoSizeStyle@CExGridCtrl@@QAEHXZ		; CExGridCtrl::GetAutoSizeStyle
PUBLIC	?EnableHiddenColUnhide@CExGridCtrl@@QAEXH@Z	; CExGridCtrl::EnableHiddenColUnhide
PUBLIC	?GetHiddenColUnhide@CExGridCtrl@@QAEHXZ		; CExGridCtrl::GetHiddenColUnhide
PUBLIC	?EnableHiddenRowUnhide@CExGridCtrl@@QAEXH@Z	; CExGridCtrl::EnableHiddenRowUnhide
PUBLIC	?GetHiddenRowUnhide@CExGridCtrl@@QAEHXZ		; CExGridCtrl::GetHiddenRowUnhide
PUBLIC	?EnableColumnHide@CExGridCtrl@@QAEXH@Z		; CExGridCtrl::EnableColumnHide
PUBLIC	?GetColumnHide@CExGridCtrl@@QAEHXZ		; CExGridCtrl::GetColumnHide
PUBLIC	?EnableRowHide@CExGridCtrl@@QAEXH@Z		; CExGridCtrl::EnableRowHide
PUBLIC	?GetRowHide@CExGridCtrl@@QAEHXZ			; CExGridCtrl::GetRowHide
PUBLIC	?SetDefaultReadOnly@CExGridCtrl@@QAEXH@Z	; CExGridCtrl::SetDefaultReadOnly
PUBLIC	?IsDefaultReadOnly@CExGridCtrl@@QAEHXZ		; CExGridCtrl::IsDefaultReadOnly
PUBLIC	?SetUseFocusRect@CExGridCtrl@@QAEXH@Z		; CExGridCtrl::SetUseFocusRect
PUBLIC	?GetUseFocusRect@CExGridCtrl@@QAEHXZ		; CExGridCtrl::GetUseFocusRect
PUBLIC	?SetDrawFixedLine@CExGridCtrl@@QAEXH@Z		; CExGridCtrl::SetDrawFixedLine
PUBLIC	?GetDefaultCell@CExGridCtrl@@QAEPAVCGridCellBase@@HH@Z ; CExGridCtrl::GetDefaultCell
PUBLIC	?GetCell@CExGridCtrl@@QAEPAVCGridCellBase@@HH@Z	; CExGridCtrl::GetCell
PUBLIC	?SetModified@CExGridCtrl@@QAEXHHH@Z		; CExGridCtrl::SetModified
PUBLIC	?GetModified@CExGridCtrl@@QAEHHH@Z		; CExGridCtrl::GetModified
PUBLIC	?IsCellFixed@CExGridCtrl@@QAEHHH@Z		; CExGridCtrl::IsCellFixed
PUBLIC	?SetItem@CExGridCtrl@@QAEHPAU_GV_ITEM@@@Z	; CExGridCtrl::SetItem
PUBLIC	?GetItem@CExGridCtrl@@QAEHPAU_GV_ITEM@@@Z	; CExGridCtrl::GetItem
PUBLIC	?SetItemText@CExGridCtrl@@QAEHHHPBD@Z		; CExGridCtrl::SetItemText
PUBLIC	?GetItemText@CExGridCtrl@@QAE?AV?$CStringT@DV?$StrTraitMFC_DLL@DV?$ChTraitsCRT@D@ATL@@@@@ATL@@HH@Z ; CExGridCtrl::GetItemText
PUBLIC	?SetItemTextFmt@CExGridCtrl@@QAAHHHPBDZZ	; CExGridCtrl::SetItemTextFmt
PUBLIC	?SetItemTextFmtID@CExGridCtrl@@QAAHHHIZZ	; CExGridCtrl::SetItemTextFmtID
PUBLIC	?SetItemData@CExGridCtrl@@QAEHHHJ@Z		; CExGridCtrl::SetItemData
PUBLIC	?GetItemData@CExGridCtrl@@QAEJHH@Z		; CExGridCtrl::GetItemData
PUBLIC	?SetItemImage@CExGridCtrl@@QAEHHHH@Z		; CExGridCtrl::SetItemImage
PUBLIC	?GetItemImage@CExGridCtrl@@QAEHHH@Z		; CExGridCtrl::GetItemImage
PUBLIC	?SetItemState@CExGridCtrl@@QAEHHHI@Z		; CExGridCtrl::SetItemState
PUBLIC	?GetItemState@CExGridCtrl@@QAEIHH@Z		; CExGridCtrl::GetItemState
PUBLIC	?SetItemFormat@CExGridCtrl@@QAEHHHI@Z		; CExGridCtrl::SetItemFormat
PUBLIC	?GetItemFormat@CExGridCtrl@@QAEIHH@Z		; CExGridCtrl::GetItemFormat
PUBLIC	?SetItemBkColour@CExGridCtrl@@QAEHHHK@Z		; CExGridCtrl::SetItemBkColour
PUBLIC	?GetItemBkColour@CExGridCtrl@@QAEKHH@Z		; CExGridCtrl::GetItemBkColour
PUBLIC	?SetItemFgColour@CExGridCtrl@@QAEHHHK@Z		; CExGridCtrl::SetItemFgColour
PUBLIC	?GetItemFgColour@CExGridCtrl@@QAEKHH@Z		; CExGridCtrl::GetItemFgColour
PUBLIC	?SetItemFont@CExGridCtrl@@QAEHHHPAUtagLOGFONTA@@@Z ; CExGridCtrl::SetItemFont
PUBLIC	?GetItemFont@CExGridCtrl@@QAEPAUtagLOGFONTA@@HH@Z ; CExGridCtrl::GetItemFont
PUBLIC	?IsItemEditing@CExGridCtrl@@QAEHHH@Z		; CExGridCtrl::IsItemEditing
PUBLIC	?SetCellType@CExGridCtrl@@QAEHHHPAUCRuntimeClass@@@Z ; CExGridCtrl::SetCellType
PUBLIC	?SetDefaultCellType@CExGridCtrl@@QAEHPAUCRuntimeClass@@@Z ; CExGridCtrl::SetDefaultCellType
PUBLIC	?InsertColumn@CExGridCtrl@@QAEHPBDIH@Z		; CExGridCtrl::InsertColumn
PUBLIC	?InsertRow@CExGridCtrl@@QAEHPBDH@Z		; CExGridCtrl::InsertRow
PUBLIC	?DeleteColumn@CExGridCtrl@@QAEHH@Z		; CExGridCtrl::DeleteColumn
PUBLIC	?DeleteRow@CExGridCtrl@@QAEHH@Z			; CExGridCtrl::DeleteRow
PUBLIC	?DeleteNonFixedRows@CExGridCtrl@@QAEHXZ		; CExGridCtrl::DeleteNonFixedRows
PUBLIC	?DeleteAllItems@CExGridCtrl@@QAEHXZ		; CExGridCtrl::DeleteAllItems
PUBLIC	?ClearCells@CExGridCtrl@@QAEXVCCellRange@@@Z	; CExGridCtrl::ClearCells
PUBLIC	?AutoSizeRow@CExGridCtrl@@QAEHHH@Z		; CExGridCtrl::AutoSizeRow
PUBLIC	?AutoSizeColumn@CExGridCtrl@@QAEHHIH@Z		; CExGridCtrl::AutoSizeColumn
PUBLIC	?AutoSizeRows@CExGridCtrl@@QAEXXZ		; CExGridCtrl::AutoSizeRows
PUBLIC	?AutoSizeColumns@CExGridCtrl@@QAEXI@Z		; CExGridCtrl::AutoSizeColumns
PUBLIC	?AutoSize@CExGridCtrl@@QAEXI@Z			; CExGridCtrl::AutoSize
PUBLIC	?ExpandColumnsToFit@CExGridCtrl@@QAEXH@Z	; CExGridCtrl::ExpandColumnsToFit
PUBLIC	?ExpandLastColumn@CExGridCtrl@@QAEXXZ		; CExGridCtrl::ExpandLastColumn
PUBLIC	?ExpandRowsToFit@CExGridCtrl@@QAEXH@Z		; CExGridCtrl::ExpandRowsToFit
PUBLIC	?ExpandToFit@CExGridCtrl@@QAEXH@Z		; CExGridCtrl::ExpandToFit
PUBLIC	?Refresh@CExGridCtrl@@QAEXXZ			; CExGridCtrl::Refresh
PUBLIC	?AutoFill@CExGridCtrl@@QAEXXZ			; CExGridCtrl::AutoFill
PUBLIC	?EnsureVisible@CExGridCtrl@@QAEXAAVCCellID@@@Z	; CExGridCtrl::EnsureVisible
PUBLIC	?EnsureVisible@CExGridCtrl@@QAEXHH@Z		; CExGridCtrl::EnsureVisible
PUBLIC	?IsCellVisible@CExGridCtrl@@QAEHHH@Z		; CExGridCtrl::IsCellVisible
PUBLIC	?IsCellVisible@CExGridCtrl@@QAEHVCCellID@@@Z	; CExGridCtrl::IsCellVisible
PUBLIC	?IsCellEditable@CExGridCtrl@@QAEHHH@Z		; CExGridCtrl::IsCellEditable
PUBLIC	?IsCellEditable@CExGridCtrl@@QAEHAAVCCellID@@@Z	; CExGridCtrl::IsCellEditable
PUBLIC	?IsCellSelected@CExGridCtrl@@QAEHHH@Z		; CExGridCtrl::IsCellSelected
PUBLIC	?IsCellSelected@CExGridCtrl@@QAEHAAVCCellID@@@Z	; CExGridCtrl::IsCellSelected
PUBLIC	?SetRedraw@CExGridCtrl@@QAEXHH@Z		; CExGridCtrl::SetRedraw
PUBLIC	?RedrawCell@CExGridCtrl@@QAEHHHPAVCDC@@@Z	; CExGridCtrl::RedrawCell
PUBLIC	?RedrawCell@CExGridCtrl@@QAEHAAVCCellID@@PAVCDC@@@Z ; CExGridCtrl::RedrawCell
PUBLIC	?RedrawRow@CExGridCtrl@@QAEHH@Z			; CExGridCtrl::RedrawRow
PUBLIC	?RedrawColumn@CExGridCtrl@@QAEHH@Z		; CExGridCtrl::RedrawColumn
PUBLIC	?Save@CExGridCtrl@@QAEHPBDD@Z			; CExGridCtrl::Save
PUBLIC	?Load@CExGridCtrl@@QAEHPBDD@Z			; CExGridCtrl::Load
PUBLIC	?GetCellRange@CExGridCtrl@@QAE?AVCCellRange@@XZ	; CExGridCtrl::GetCellRange
PUBLIC	?GetSelectedCellRange@CExGridCtrl@@QAE?AVCCellRange@@XZ ; CExGridCtrl::GetSelectedCellRange
PUBLIC	?SetSelectedRange@CExGridCtrl@@QAEXAAVCCellRange@@HH@Z ; CExGridCtrl::SetSelectedRange
PUBLIC	?SetSelectedRange@CExGridCtrl@@QAEXHHHHHH@Z	; CExGridCtrl::SetSelectedRange
PUBLIC	?IsValid@CExGridCtrl@@QAEHHH@Z			; CExGridCtrl::IsValid
PUBLIC	?IsValid@CExGridCtrl@@QAEHAAVCCellID@@@Z	; CExGridCtrl::IsValid
PUBLIC	?IsValid@CExGridCtrl@@QAEHAAVCCellRange@@@Z	; CExGridCtrl::IsValid
PUBLIC	?CutSelectedText@CExGridCtrl@@UAEXXZ		; CExGridCtrl::CutSelectedText
PUBLIC	?CopyTextFromGrid@CExGridCtrl@@UAEPAVCOleDataSource@@XZ ; CExGridCtrl::CopyTextFromGrid
PUBLIC	?PasteTextToGrid@CExGridCtrl@@UAEHVCCellID@@PAVCOleDataObject@@H@Z ; CExGridCtrl::PasteTextToGrid
PUBLIC	?OnBeginDrag@CExGridCtrl@@UAEXXZ		; CExGridCtrl::OnBeginDrag
PUBLIC	?OnDragEnter@CExGridCtrl@@UAEKPAVCOleDataObject@@KVCPoint@@@Z ; CExGridCtrl::OnDragEnter
PUBLIC	?OnDragOver@CExGridCtrl@@UAEKPAVCOleDataObject@@KVCPoint@@@Z ; CExGridCtrl::OnDragOver
PUBLIC	?OnDragLeave@CExGridCtrl@@UAEXXZ		; CExGridCtrl::OnDragLeave
PUBLIC	?OnDrop@CExGridCtrl@@UAEHPAVCOleDataObject@@KVCPoint@@@Z ; CExGridCtrl::OnDrop
PUBLIC	?OnEditCut@CExGridCtrl@@UAEXXZ			; CExGridCtrl::OnEditCut
PUBLIC	?OnEditCopy@CExGridCtrl@@UAEXXZ			; CExGridCtrl::OnEditCopy
PUBLIC	?OnEditPaste@CExGridCtrl@@UAEXXZ		; CExGridCtrl::OnEditPaste
PUBLIC	?OnEditSelectAll@CExGridCtrl@@UAEXXZ		; CExGridCtrl::OnEditSelectAll
PUBLIC	?GetNextItem@CExGridCtrl@@QAE?AVCCellID@@AAV2@H@Z ; CExGridCtrl::GetNextItem
PUBLIC	?SortItems@CExGridCtrl@@QAEHHHJ@Z		; CExGridCtrl::SortItems
PUBLIC	?SortTextItems@CExGridCtrl@@QAEHHHJ@Z		; CExGridCtrl::SortTextItems
PUBLIC	?SortItems@CExGridCtrl@@QAEHP6GHJJJ@ZHHJ@Z	; CExGridCtrl::SortItems
PUBLIC	?SetCompareFunction@CExGridCtrl@@QAEXP6GHJJJ@Z@Z ; CExGridCtrl::SetCompareFunction
PUBLIC	??1CExGridCtrl@@UAE@XZ				; CExGridCtrl::~CExGridCtrl
PUBLIC	?RegisterWindowClass@CExGridCtrl@@IAEHXZ	; CExGridCtrl::RegisterWindowClass
PUBLIC	?Initialise@CExGridCtrl@@IAEHXZ			; CExGridCtrl::Initialise
PUBLIC	?SetupDefaultCells@CExGridCtrl@@IAEXXZ		; CExGridCtrl::SetupDefaultCells
PUBLIC	?SendMessageToParent@CExGridCtrl@@IAEJHHH@Z	; CExGridCtrl::SendMessageToParent
PUBLIC	?SendDisplayRequestToParent@CExGridCtrl@@IAEJPAUtagGV_DISPINFO@@@Z ; CExGridCtrl::SendDisplayRequestToParent
PUBLIC	?SendCacheHintToParent@CExGridCtrl@@IAEJAAVCCellRange@@@Z ; CExGridCtrl::SendCacheHintToParent
PUBLIC	?InvalidateCellRect@CExGridCtrl@@IAEHHH@Z	; CExGridCtrl::InvalidateCellRect
PUBLIC	?InvalidateCellRect@CExGridCtrl@@IAEHAAVCCellID@@@Z ; CExGridCtrl::InvalidateCellRect
PUBLIC	?InvalidateCellRect@CExGridCtrl@@IAEHAAVCCellRange@@@Z ; CExGridCtrl::InvalidateCellRect
PUBLIC	?EraseBkgnd@CExGridCtrl@@IAEXPAVCDC@@@Z		; CExGridCtrl::EraseBkgnd
PUBLIC	?GetCellRangeRect@CExGridCtrl@@IAEHAAVCCellRange@@PAUtagRECT@@@Z ; CExGridCtrl::GetCellRangeRect
PUBLIC	?SetCell@CExGridCtrl@@IAEHHHPAVCGridCellBase@@@Z ; CExGridCtrl::SetCell
PUBLIC	?SetMouseMode@CExGridCtrl@@IAEHH@Z		; CExGridCtrl::SetMouseMode
PUBLIC	?GetMouseMode@CExGridCtrl@@IAEHXZ		; CExGridCtrl::GetMouseMode
PUBLIC	?MouseOverRowResizeArea@CExGridCtrl@@IAEHAAVCPoint@@@Z ; CExGridCtrl::MouseOverRowResizeArea
PUBLIC	?MouseOverColumnResizeArea@CExGridCtrl@@IAEHAAVCPoint@@@Z ; CExGridCtrl::MouseOverColumnResizeArea
PUBLIC	?GetTopleftNonFixedCell@CExGridCtrl@@IAE?AVCCellID@@H@Z ; CExGridCtrl::GetTopleftNonFixedCell
PUBLIC	?GetUnobstructedNonFixedCellRange@CExGridCtrl@@IAE?AVCCellRange@@H@Z ; CExGridCtrl::GetUnobstructedNonFixedCellRange
PUBLIC	?GetVisibleNonFixedCellRange@CExGridCtrl@@IAE?AVCCellRange@@PAUtagRECT@@H@Z ; CExGridCtrl::GetVisibleNonFixedCellRange
PUBLIC	?IsVisibleVScroll@CExGridCtrl@@IAEHXZ		; CExGridCtrl::IsVisibleVScroll
PUBLIC	?IsVisibleHScroll@CExGridCtrl@@IAEHXZ		; CExGridCtrl::IsVisibleHScroll
PUBLIC	?ResetSelectedRange@CExGridCtrl@@IAEXXZ		; CExGridCtrl::ResetSelectedRange
PUBLIC	?ResetScrollBars@CExGridCtrl@@IAEXXZ		; CExGridCtrl::ResetScrollBars
PUBLIC	?EnableScrollBars@CExGridCtrl@@IAEXHH@Z		; CExGridCtrl::EnableScrollBars
PUBLIC	?GetScrollPos32@CExGridCtrl@@IAEHHH@Z		; CExGridCtrl::GetScrollPos32
PUBLIC	?SetScrollPos32@CExGridCtrl@@IAEHHHH@Z		; CExGridCtrl::SetScrollPos32
PUBLIC	?SortTextItems@CExGridCtrl@@IAEHHHHH@Z		; CExGridCtrl::SortTextItems
PUBLIC	?SortItems@CExGridCtrl@@IAEHP6GHJJJ@ZHHJHH@Z	; CExGridCtrl::SortItems
PUBLIC	?GetPointClicked@CExGridCtrl@@IAE?AVCPoint@@HHAAV2@@Z ; CExGridCtrl::GetPointClicked
PUBLIC	?ValidateAndModifyCellContents@CExGridCtrl@@IAEXHHPBD@Z ; CExGridCtrl::ValidateAndModifyCellContents
PUBLIC	?PreSubclassWindow@CExGridCtrl@@MAEXXZ		; CExGridCtrl::PreSubclassWindow
PUBLIC	?WindowProc@CExGridCtrl@@MAEJIIJ@Z		; CExGridCtrl::WindowProc
PUBLIC	?CreateDragImage@CExGridCtrl@@MAEPAVCImageList@@PAVCPoint@@@Z ; CExGridCtrl::CreateDragImage
PUBLIC	?OnFixedColumnClick@CExGridCtrl@@MAEXAAVCCellID@@@Z ; CExGridCtrl::OnFixedColumnClick
PUBLIC	?OnFixedRowClick@CExGridCtrl@@MAEXAAVCCellID@@@Z ; CExGridCtrl::OnFixedRowClick
PUBLIC	?OnEditCell@CExGridCtrl@@MAEXHHVCPoint@@I@Z	; CExGridCtrl::OnEditCell
PUBLIC	?OnEndEditCell@CExGridCtrl@@MAEXHHV?$CStringT@DV?$StrTraitMFC_DLL@DV?$ChTraitsCRT@D@ATL@@@@@ATL@@@Z ; CExGridCtrl::OnEndEditCell
PUBLIC	?ValidateEdit@CExGridCtrl@@MAEHHHPBD@Z		; CExGridCtrl::ValidateEdit
PUBLIC	?EndEditing@CExGridCtrl@@MAEXXZ			; CExGridCtrl::EndEditing
PUBLIC	?OnDraw@CExGridCtrl@@MAEXPAVCDC@@@Z		; CExGridCtrl::OnDraw
PUBLIC	?CreateCell@CExGridCtrl@@MAEPAVCGridCellBase@@HH@Z ; CExGridCtrl::CreateCell
PUBLIC	?DestroyCell@CExGridCtrl@@MAEXHH@Z		; CExGridCtrl::DestroyCell
PUBLIC	?SelectAllCells@CExGridCtrl@@IAEXXZ		; CExGridCtrl::SelectAllCells
PUBLIC	?SelectColumns@CExGridCtrl@@IAEXVCCellID@@HH@Z	; CExGridCtrl::SelectColumns
PUBLIC	?SelectRows@CExGridCtrl@@IAEXVCCellID@@HH@Z	; CExGridCtrl::SelectRows
PUBLIC	?SelectCells@CExGridCtrl@@IAEXVCCellID@@HH@Z	; CExGridCtrl::SelectCells
PUBLIC	?OnSelecting@CExGridCtrl@@IAEXAAVCCellID@@@Z	; CExGridCtrl::OnSelecting
PUBLIC	?OnPaint@CExGridCtrl@@IAEXXZ			; CExGridCtrl::OnPaint
PUBLIC	?OnHScroll@CExGridCtrl@@IAEXIIPAVCScrollBar@@@Z	; CExGridCtrl::OnHScroll
PUBLIC	?OnVScroll@CExGridCtrl@@IAEXIIPAVCScrollBar@@@Z	; CExGridCtrl::OnVScroll
PUBLIC	?OnSize@CExGridCtrl@@IAEXIHH@Z			; CExGridCtrl::OnSize
PUBLIC	?OnLButtonUp@CExGridCtrl@@IAEXIVCPoint@@@Z	; CExGridCtrl::OnLButtonUp
PUBLIC	?OnLButtonDown@CExGridCtrl@@IAEXIVCPoint@@@Z	; CExGridCtrl::OnLButtonDown
PUBLIC	?OnMouseMove@CExGridCtrl@@IAEXIVCPoint@@@Z	; CExGridCtrl::OnMouseMove
PUBLIC	?OnTimer@CExGridCtrl@@IAEXI@Z			; CExGridCtrl::OnTimer
PUBLIC	?OnGetDlgCode@CExGridCtrl@@IAEIXZ		; CExGridCtrl::OnGetDlgCode
PUBLIC	?OnKeyDown@CExGridCtrl@@IAEXIII@Z		; CExGridCtrl::OnKeyDown
PUBLIC	?OnKeyUp@CExGridCtrl@@IAEXIII@Z			; CExGridCtrl::OnKeyUp
PUBLIC	?OnChar@CExGridCtrl@@IAEXIII@Z			; CExGridCtrl::OnChar
PUBLIC	?OnLButtonDblClk@CExGridCtrl@@IAEXIVCPoint@@@Z	; CExGridCtrl::OnLButtonDblClk
PUBLIC	?OnEraseBkgnd@CExGridCtrl@@IAEHPAVCDC@@@Z	; CExGridCtrl::OnEraseBkgnd
PUBLIC	?OnSysKeyDown@CExGridCtrl@@IAEXIII@Z		; CExGridCtrl::OnSysKeyDown
PUBLIC	?OnContextMenu@CExGridCtrl@@IAEXPAVCWnd@@VCPoint@@@Z ; CExGridCtrl::OnContextMenu
PUBLIC	?OnUpdateEditSelectAll@CExGridCtrl@@IAEXPAVCCmdUI@@@Z ; CExGridCtrl::OnUpdateEditSelectAll
PUBLIC	?OnSetCursor@CExGridCtrl@@IAEHPAVCWnd@@II@Z	; CExGridCtrl::OnSetCursor
PUBLIC	?OnRButtonDown@CExGridCtrl@@IAEXIVCPoint@@@Z	; CExGridCtrl::OnRButtonDown
PUBLIC	?OnRButtonUp@CExGridCtrl@@IAEXIVCPoint@@@Z	; CExGridCtrl::OnRButtonUp
PUBLIC	?OnSysColorChange@CExGridCtrl@@IAEXXZ		; CExGridCtrl::OnSysColorChange
PUBLIC	?OnCaptureChanged@CExGridCtrl@@IAEXPAVCWnd@@@Z	; CExGridCtrl::OnCaptureChanged
PUBLIC	?OnUpdateEditCopy@CExGridCtrl@@IAEXPAVCCmdUI@@@Z ; CExGridCtrl::OnUpdateEditCopy
PUBLIC	?OnUpdateEditCut@CExGridCtrl@@IAEXPAVCCmdUI@@@Z	; CExGridCtrl::OnUpdateEditCut
PUBLIC	?OnUpdateEditPaste@CExGridCtrl@@IAEXPAVCCmdUI@@@Z ; CExGridCtrl::OnUpdateEditPaste
PUBLIC	?OnSettingChange@CExGridCtrl@@IAEXIPBD@Z	; CExGridCtrl::OnSettingChange
PUBLIC	?OnMouseWheel@CExGridCtrl@@IAEHIFVCPoint@@@Z	; CExGridCtrl::OnMouseWheel
PUBLIC	?OnSetFont@CExGridCtrl@@IAEJIJ@Z		; CExGridCtrl::OnSetFont
PUBLIC	?OnGetFont@CExGridCtrl@@IAEJIJ@Z		; CExGridCtrl::OnGetFont
PUBLIC	?OnImeChar@CExGridCtrl@@IAEJIJ@Z		; CExGridCtrl::OnImeChar
PUBLIC	?OnEndInPlaceEdit@CExGridCtrl@@IAEXPAUtagNMHDR@@PAJ@Z ; CExGridCtrl::OnEndInPlaceEdit
PUBLIC	?GetThisMessageMap@CExGridCtrl@@KGPBUAFX_MSGMAP@@XZ ; CExGridCtrl::GetThisMessageMap
PUBLIC	?GetMessageMap@CExGridCtrl@@MBEPBUAFX_MSGMAP@@XZ ; CExGridCtrl::GetMessageMap
PUBLIC	??_GCExGridCtrl@@UAEPAXI@Z			; CExGridCtrl::`scalar deleting destructor'
PUBLIC	??1CExLoadLib@@QAE@XZ				; CExLoadLib::~CExLoadLib
PUBLIC	?LoadProcAddress@CExLoadLib@@UAEHXZ		; CExLoadLib::LoadProcAddress
PUBLIC	??0CLoaderGridCtrl@@QAE@PAXPBD@Z		; CLoaderGridCtrl::CLoaderGridCtrl
PUBLIC	??1CLoaderGridCtrl@@UAE@XZ			; CLoaderGridCtrl::~CLoaderGridCtrl
PUBLIC	?LoadProcAddress@CLoaderGridCtrl@@UAEHXZ	; CLoaderGridCtrl::LoadProcAddress
PUBLIC	??_GCLoaderGridCtrl@@UAEPAXI@Z			; CLoaderGridCtrl::`scalar deleting destructor'
PUBLIC	??_9CExGridCtrl@@$BBJI@AE			; CExGridCtrl::`vcall'{408}'
PUBLIC	??_9CExGridCtrl@@$BBJA@AE			; CExGridCtrl::`vcall'{400}'
PUBLIC	??_9CExGridCtrl@@$BBIM@AE			; CExGridCtrl::`vcall'{396}'
PUBLIC	??_9CExGridCtrl@@$BBJE@AE			; CExGridCtrl::`vcall'{404}'
PUBLIC	?_OptionsStorage@?1??__local_stdio_printf_options@@9@4_KA ; `__local_stdio_printf_options'::`2'::_OptionsStorage
PUBLIC	??_C@_00CNPNBAHC@@				; `string'
PUBLIC	??_R0?AVCObject@@@8				; CObject `RTTI Type Descriptor'
PUBLIC	??_R3CObject@@8					; CObject::`RTTI Class Hierarchy Descriptor'
PUBLIC	??_R2CObject@@8					; CObject::`RTTI Base Class Array'
PUBLIC	??_R1A@?0A@EA@CObject@@8			; CObject::`RTTI Base Class Descriptor at (0,-1,0,64)'
PUBLIC	??_R1A@?0A@EA@CWnd@@8				; CWnd::`RTTI Base Class Descriptor at (0,-1,0,64)'
PUBLIC	??_R0?AVCWnd@@@8				; CWnd `RTTI Type Descriptor'
PUBLIC	??_R3CWnd@@8					; CWnd::`RTTI Class Hierarchy Descriptor'
PUBLIC	??_R2CWnd@@8					; CWnd::`RTTI Base Class Array'
PUBLIC	??_R1A@?0A@EA@CCmdTarget@@8			; CCmdTarget::`RTTI Base Class Descriptor at (0,-1,0,64)'
PUBLIC	??_R0?AVCCmdTarget@@@8				; CCmdTarget `RTTI Type Descriptor'
PUBLIC	??_R3CCmdTarget@@8				; CCmdTarget::`RTTI Class Hierarchy Descriptor'
PUBLIC	??_R2CCmdTarget@@8				; CCmdTarget::`RTTI Base Class Array'
PUBLIC	?classCExGridCtrl@CExGridCtrl@@2UCRuntimeClass@@B ; CExGridCtrl::classCExGridCtrl
PUBLIC	??_7CExGridCtrl@@6B@				; CExGridCtrl::`vftable'
PUBLIC	??_7CExLoadLib@@6B@				; CExLoadLib::`vftable'
PUBLIC	??_C@_0CD@INEDAMEN@DLL?$FL?$CFs?$FN?$MA?$LL?5Load?G?R?5?$LM?v?5?$LO?x?$LN?$MA?$LE?O?$LE?Y?4?5?$FL@ ; `string'
PUBLIC	??_C@_04OHDBDCPJ@?2Dev@				; `string'
PUBLIC	??_7CLoaderGridCtrl@@6B@			; CLoaderGridCtrl::`vftable'
PUBLIC	??_C@_0P@HKIIFJOH@ExGridCtrl?4dll@		; `string'
PUBLIC	??_C@_05BMGBEOOC@?$CFs?2?$CFs@			; `string'
PUBLIC	??_C@_0BB@JBDOCKKP@Ex_ActionControl@		; `string'
PUBLIC	??_C@_0BA@GMJHGOJC@Ex_InitGridCtrl@		; `string'
PUBLIC	??_C@_0BA@BFAIJPHF@Ex_ExitGridCtrl@		; `string'
PUBLIC	??_C@_09JKICPNB@Ex_Create@			; `string'
PUBLIC	??_C@_0P@HLDJAFE@Ex_GetRowCount@		; `string'
PUBLIC	??_C@_0BC@IDEBPJNH@Ex_GetColumnCount@		; `string'
PUBLIC	??_C@_0BE@BPKLHENI@Ex_GetFixedRowCount@		; `string'
PUBLIC	??_C@_0BH@ECBALFJF@Ex_GetFixedColumnCount@	; `string'
PUBLIC	??_C@_0P@IKNEGNH@Ex_SetRowCount@		; `string'
PUBLIC	??_C@_0BC@ENFPADPL@Ex_SetColumnCount@		; `string'
PUBLIC	??_C@_0BE@HLPCMKGK@Ex_SetFixedRowCount@		; `string'
PUBLIC	??_C@_0BH@OMDLPFOJ@Ex_SetFixedColumnCount@	; `string'
PUBLIC	??_C@_0BA@EJOKICAO@Ex_GetRowHeight@		; `string'
PUBLIC	??_C@_0BA@DNFEEOEC@Ex_SetRowHeight@		; `string'
PUBLIC	??_C@_0BC@ILCFAHPL@Ex_GetColumnWidth@		; `string'
PUBLIC	??_C@_0BC@EFDLPNNH@Ex_SetColumnWidth@		; `string'
PUBLIC	??_C@_0BB@MGANLAPA@Ex_GetCellOrigin@		; `string'
PUBLIC	??_C@_0BC@FAALKLNN@Ex_GetCellOrigin2@		; `string'
PUBLIC	??_C@_0P@LPJLBNIC@Ex_GetCellRect@		; `string'
PUBLIC	??_C@_0BA@OOHJCNGA@Ex_GetCellRect2@		; `string'
PUBLIC	??_C@_0P@LCOAKBB@Ex_GetTextRect@		; `string'
PUBLIC	??_C@_0BA@IHMLFKIJ@Ex_GetTextRect2@		; `string'
PUBLIC	??_C@_0BB@CIPPMECD@Ex_GetCellFromPt@		; `string'
PUBLIC	??_C@_0BF@KNPMFFOB@Ex_GetFixedRowHeight@	; `string'
PUBLIC	??_C@_0BH@EKHEELLJ@Ex_GetFixedColumnWidth@	; `string'
PUBLIC	??_C@_0BD@DFAOHHGM@Ex_GetVirtualWidth@		; `string'
PUBLIC	??_C@_0BE@FDAKIPGK@Ex_GetVirtualHeight@		; `string'
PUBLIC	??_C@_0BB@JNECFDJF@Ex_GetTextExtent@		; `string'
PUBLIC	??_C@_0BF@FBJJOBBD@Ex_GetCellTextExtent@	; `string'
PUBLIC	??_C@_0BC@HOEOKGMH@Ex_SetGridBkColor@		; `string'
PUBLIC	??_C@_0BC@LAFAFMOL@Ex_GetGridBkColor@		; `string'
PUBLIC	??_C@_0BE@FFIMAJMA@Ex_SetGridLineColor@		; `string'
PUBLIC	??_C@_0BE@DBNFLHHC@Ex_GetGridLineColor@		; `string'
PUBLIC	??_C@_0BG@ICOJDEPG@Ex_SetTitleTipBackClr@	; `string'
PUBLIC	??_C@_0BG@HIMDACBO@Ex_GetTitleTipBackClr@	; `string'
PUBLIC	??_C@_0BG@EHNDNKEC@Ex_SetTitleTipTextClr@	; `string'
PUBLIC	??_C@_0BG@LNPJOMKK@Ex_GetTitleTipTextClr@	; `string'
PUBLIC	??_C@_0BP@KEFBPEGH@Ex_SetFixedGridLineColor_Light@ ; `string'
PUBLIC	??_C@_0BO@BDFMOODF@Ex_SetFixedGridLineColor_Dark@ ; `string'
PUBLIC	??_C@_0BP@LJNJNBMD@Ex_GetFixedGridLineColor_Light@ ; `string'
PUBLIC	??_C@_0BO@CMGJCOCF@Ex_GetFixedGridLineColor_Dark@ ; `string'
PUBLIC	??_C@_0BF@OJKNEHDB@Ex_SetHighlightColor@	; `string'
PUBLIC	??_C@_0BJ@MJHPJAFF@Ex_SetHighlightTextColor@	; `string'
PUBLIC	??_C@_0BF@MMKGMMCP@Ex_GetHighlightColor@	; `string'
PUBLIC	??_C@_0BJ@DMCJEJBE@Ex_GetHighlightTextColor@	; `string'
PUBLIC	??_C@_0BH@DCGOGNFA@Ex_SetUseHighlightText@	; `string'
PUBLIC	??_C@_0BH@JMEFCNCM@Ex_GetUseHighlightText@	; `string'
PUBLIC	??_C@_0CB@NOMIDOOP@Ex_SetFixedRowSelectionHighligh@ ; `string'
PUBLIC	??_C@_0CB@FPKHIOMN@Ex_GetFixedRowSelectionHighligh@ ; `string'
PUBLIC	??_C@_0BA@MJCGEMJI@Ex_SetTextColor@		; `string'
PUBLIC	??_C@_0BA@LNJIIANE@Ex_GetTextColor@		; `string'
PUBLIC	??_C@_0BC@OGKJOACE@Ex_SetTextBkColor@		; `string'
PUBLIC	??_C@_0BC@CILHBKAI@Ex_GetTextBkColor@		; `string'
PUBLIC	??_C@_0BF@HMIFNMCF@Ex_SetFixedTextColor@	; `string'
PUBLIC	??_C@_0BF@FJIOFHDL@Ex_GetFixedTextColor@	; `string'
PUBLIC	??_C@_0BD@OCNEDHHM@Ex_SetFixedBkColor@		; `string'
PUBLIC	??_C@_0BD@NAMCEFGF@Ex_GetFixedBkColor@		; `string'
PUBLIC	??_C@_0BA@BKNBPELA@Ex_SetGridColor@		; `string'
PUBLIC	??_C@_0BA@GOGPDIPM@Ex_GetGridColor@		; `string'
PUBLIC	??_C@_0O@GBEOAJPL@Ex_SetBkColor@		; `string'
PUBLIC	??_C@_0O@HPGBLOLC@Ex_GetBkColor@		; `string'
PUBLIC	??_C@_0BE@JNONMFIP@Ex_SetDefCellMargin@		; `string'
PUBLIC	??_C@_0BE@PJLEHLDN@Ex_GetDefCellMargin@		; `string'
PUBLIC	??_C@_0BE@JGMCCAPD@Ex_GetDefCellHeight@		; `string'
PUBLIC	??_C@_0BE@PCJLJOEB@Ex_SetDefCellHeight@		; `string'
PUBLIC	??_C@_0BD@EHJKFANE@Ex_GetDefCellWidth@		; `string'
PUBLIC	??_C@_0BD@HFIMCCMN@Ex_SetDefCellWidth@		; `string'
PUBLIC	??_C@_0BE@LMNPDDGK@Ex_GetSelectedCount@		; `string'
PUBLIC	??_C@_0BB@OKNHCIID@Ex_SetFocusCell1@		; `string'
PUBLIC	??_C@_0BB@MBPKHLEA@Ex_SetFocusCell2@		; `string'
PUBLIC	??_C@_0BA@CHAPHGPC@Ex_GetFocusCell@		; `string'
PUBLIC	??_C@_0BC@GKEKHGIB@Ex_SetVirtualMode@		; `string'
PUBLIC	??_C@_0BC@KEFEIMKN@Ex_GetVirtualMode@		; `string'
PUBLIC	??_C@_0BD@HEOFKHFG@Ex_SetCallbackFunc@		; `string'
PUBLIC	??_C@_0BD@EGPDNFEP@Ex_GetCallbackFunc@		; `string'
PUBLIC	??_C@_0BA@LGEAPGNE@Ex_SetImageList@		; `string'
PUBLIC	??_C@_0BA@MCPODKJI@Ex_GetImageList@		; `string'
PUBLIC	??_C@_0BA@NKECMPNJ@Ex_SetGridLines@		; `string'
PUBLIC	??_C@_0BA@KOPMADJF@Ex_GetGridLines@		; `string'
PUBLIC	??_C@_0P@JBFLIDIG@Ex_SetEditable@		; `string'
PUBLIC	??_C@_0O@NHDOAOPK@Ex_IsEditable@		; `string'
PUBLIC	??_C@_0P@JNBLKIOM@Ex_SetListMode@		; `string'
PUBLIC	??_C@_0P@JCAFHOGP@Ex_GetListMode@		; `string'
PUBLIC	??_C@_0BJ@FIPOCOBD@Ex_SetSingleRowSelection@	; `string'
PUBLIC	??_C@_0BJ@KNKIPHFC@Ex_GetSingleRowSelection@	; `string'
PUBLIC	??_C@_0BJ@LMLIBCMD@Ex_SetSingleColSelection@	; `string'
PUBLIC	??_C@_0BJ@EJOOMLIC@Ex_GetSingleColSelection@	; `string'
PUBLIC	??_C@_0BD@OKOBKIIJ@Ex_EnableSelection@		; `string'
PUBLIC	??_C@_0BA@CEPMEDED@Ex_IsSelectable@		; `string'
PUBLIC	??_C@_0BL@LCFPINPP@Ex_SetFixedColumnSelection@	; `string'
PUBLIC	??_C@_0BL@KEDCGMJN@Ex_GetFixedColumnSelection@	; `string'
PUBLIC	??_C@_0BI@BGNHFMGH@Ex_SetFixedRowSelection@	; `string'
PUBLIC	??_C@_0BI@EPMKEKDA@Ex_GetFixedRowSelection@	; `string'
PUBLIC	??_C@_0BF@BCAACCJI@Ex_EnableDragAndDrop@	; `string'
PUBLIC	??_C@_0BC@BPGLLDNL@Ex_GetDragAndDrop@		; `string'
PUBLIC	??_C@_0BA@HIAOCBNM@Ex_SetRowResize@		; `string'
PUBLIC	??_C@_0BA@MLAONJA@Ex_GetRowResize@		; `string'
PUBLIC	??_C@_0BD@EKJDLPHK@Ex_SetColumnResize@		; `string'
PUBLIC	??_C@_0BD@HIIFMNGD@Ex_GetColumnResize@		; `string'
PUBLIC	??_C@_0BB@FNCOCAHB@Ex_SetHeaderSort@		; `string'
PUBLIC	??_C@_0BB@CCDAJDAG@Ex_GetHeaderSort@		; `string'
PUBLIC	??_C@_0BD@MAINJPHO@Ex_SetHandleTabKey@		; `string'
PUBLIC	??_C@_0BD@PCJLONGH@Ex_GetHandleTabKey@		; `string'
PUBLIC	??_C@_0BG@FADGBJJF@Ex_SetDoubleBuffering@	; `string'
PUBLIC	??_C@_0BG@KKBMCPHN@Ex_GetDoubleBuffering@	; `string'
PUBLIC	??_C@_0BD@CLEBGLOB@Ex_EnableTitleTips@		; `string'
PUBLIC	??_C@_0BA@GGIJPOKE@Ex_GetTitleTips@		; `string'
PUBLIC	??_C@_0BB@IGIKCHHB@Ex_SetSortColumn@		; `string'
PUBLIC	??_C@_0BB@PJJEJEAG@Ex_GetSortColumn@		; `string'
PUBLIC	??_C@_0BE@JAJLPMEM@Ex_SetSortAscending@		; `string'
PUBLIC	??_C@_0BE@PEMCECPO@Ex_GetSortAscending@		; `string'
PUBLIC	??_C@_0BF@GMCLPOEI@Ex_SetTrackFocusCell@	; `string'
PUBLIC	??_C@_0BF@EJCAHFFG@Ex_GetTrackFocusCell@	; `string'
PUBLIC	??_C@_0BF@DLIICIIO@Ex_SetFrameFocusCell@	; `string'
PUBLIC	??_C@_0BF@BOIDKDJA@Ex_GetFrameFocusCell@	; `string'
PUBLIC	??_C@_0BE@DLBLPDKG@Ex_SetAutoSizeStyle@		; `string'
PUBLIC	??_C@_0BE@FPECENBE@Ex_GetAutoSizeStyle@		; `string'
PUBLIC	??_C@_0BJ@OGINOEPC@Ex_EnableHiddenColUnhide@	; `string'
PUBLIC	??_C@_0BG@GLEFAPDH@Ex_GetHiddenColUnhide@	; `string'
PUBLIC	??_C@_0BJ@PDACDFJ@Ex_EnableHiddenRowUnhide@	; `string'
PUBLIC	??_C@_0BG@ICPIMIJM@Ex_GetHiddenRowUnhide@	; `string'
PUBLIC	??_C@_0BE@GPEEKGPJ@Ex_EnableColumnHide@		; `string'
PUBLIC	??_C@_0BB@GJLPNLHD@Ex_GetColumnHide@		; `string'
PUBLIC	??_C@_0BB@LLNAEOOL@Ex_EnableRowHide@		; `string'
PUBLIC	??_C@_0O@CFJHIGGA@Ex_GetRowHide@		; `string'
PUBLIC	??_C@_0BG@GKHGKAPA@Ex_SetDefaultReadOnly@	; `string'
PUBLIC	??_C@_0BF@MDNOCHF@Ex_IsDefaultReadOnly@		; `string'
PUBLIC	??_C@_0BC@HHBBOGH@Ex_GetDefaultCell@		; `string'
PUBLIC	??_C@_0L@IKFJGEFD@Ex_GetCell@			; `string'
PUBLIC	??_C@_0P@NKJNBMJC@Ex_SetModified@		; `string'
PUBLIC	??_C@_0P@NFIDMKBB@Ex_GetModified@		; `string'
PUBLIC	??_C@_0P@OIJIPHDB@Ex_IsCellFixed@		; `string'
PUBLIC	??_C@_0L@MGHHHJBH@Ex_SetItem@			; `string'
PUBLIC	??_C@_0L@DOIGEGMG@Ex_GetItem@			; `string'
PUBLIC	??_C@_0P@FEENFPGN@Ex_SetItemText@		; `string'
PUBLIC	??_C@_0P@FLFDIJOO@Ex_GetItemText@		; `string'
PUBLIC	??_C@_0BC@MAGCMHPB@Ex_SetItemTextFmt@		; `string'
PUBLIC	??_C@_0BE@ODPJHLMD@Ex_SetItemTextFmtID@		; `string'
PUBLIC	??_C@_0P@IFGAEAMI@Ex_SetItemData@		; `string'
PUBLIC	??_C@_0P@IKHOJGEL@Ex_GetItemData@		; `string'
PUBLIC	??_C@_0BA@JHJEJAOA@Ex_SetItemImage@		; `string'
PUBLIC	??_C@_0BA@ODCKFMKM@Ex_GetItemImage@		; `string'
PUBLIC	??_C@_0BA@EGEJFJMH@Ex_SetItemState@		; `string'
PUBLIC	??_C@_0BA@DCPHJFIL@Ex_GetItemState@		; `string'
PUBLIC	??_C@_0BB@BPLKLOBC@Ex_SetItemFormat@		; `string'
PUBLIC	??_C@_0BB@GAKEANGF@Ex_GetItemFormat@		; `string'
PUBLIC	??_C@_0BD@POOMAEBJ@Ex_SetItemBkColour@		; `string'
PUBLIC	??_C@_0BD@MMPKHGAA@Ex_GetItemBkColour@		; `string'
PUBLIC	??_C@_0BD@PEKPEAFK@Ex_SetItemFgColour@		; `string'
PUBLIC	??_C@_0BD@MGLJDCED@Ex_GetItemFgColour@		; `string'
PUBLIC	??_C@_0P@DJHLKECJ@Ex_SetItemFont@		; `string'
PUBLIC	??_C@_0P@DGGFHCKK@Ex_GetItemFont@		; `string'
PUBLIC	??_C@_0BB@GLGIIOMO@Ex_IsItemEditing@		; `string'
PUBLIC	??_C@_0P@GILDOILP@Ex_SetCellType@		; `string'
PUBLIC	??_C@_0BA@JFAAFLHP@Ex_InsertColumn@		; `string'
PUBLIC	??_C@_0N@JMDPIIIA@Ex_InsertRow@			; `string'
PUBLIC	??_C@_0BA@FNLLOHDN@Ex_DeleteColumn@		; `string'
PUBLIC	??_C@_0N@MFNGODEF@Ex_DeleteRow@			; `string'
PUBLIC	??_C@_0BG@MJGKPDPA@Ex_DeleteNonFixedRows@	; `string'
PUBLIC	??_C@_0BC@HJKLIKNJ@Ex_DeleteAllItems@		; `string'
PUBLIC	??_C@_0O@FMEEJLNJ@Ex_ClearCells@		; `string'
PUBLIC	??_C@_0P@CEKJHOM@Ex_AutoSizeRow@		; `string'
PUBLIC	??_C@_0BC@DJPIOCII@Ex_AutoSizeColumn@		; `string'
PUBLIC	??_C@_0BA@KNKMMOPB@Ex_AutoSizeRows@		; `string'
PUBLIC	??_C@_0BD@OHEINJMF@Ex_AutoSizeColumns@		; `string'
PUBLIC	??_C@_0M@JELJCJPC@Ex_AutoSize@			; `string'
PUBLIC	??_C@_0BG@INCAPNJM@Ex_ExpandColumnsToFit@	; `string'
PUBLIC	??_C@_0BE@EGEDCFD@Ex_ExpandLastColumn@		; `string'
PUBLIC	??_C@_0BD@PKDGNOBB@Ex_ExpandRowsToFit@		; `string'
PUBLIC	??_C@_0P@PDCDCOEO@Ex_ExpandToFit@		; `string'
PUBLIC	??_C@_0L@BPELEIPD@Ex_Refresh@			; `string'
PUBLIC	??_C@_0M@PFNAFFIL@Ex_AutoFill@			; `string'
PUBLIC	??_C@_0BB@LMOBPEEA@Ex_EnsureVisible@		; `string'
PUBLIC	??_C@_0BC@JLBAPEBF@Ex_EnsureVisible2@		; `string'
PUBLIC	??_C@_0BB@EKCEFGAG@Ex_IsCellVisible@		; `string'
PUBLIC	??_C@_0BC@EFJNFBC@Ex_IsCellVisible2@		; `string'
PUBLIC	??_C@_0BC@CLKDJBEN@Ex_IsCellEditable@		; `string'
PUBLIC	??_C@_0BD@OFDGMKMN@Ex_IsCellEditable2@		; `string'
PUBLIC	??_C@_0BC@LLBJAFFM@Ex_IsCellSelected@		; `string'
PUBLIC	??_C@_0BD@IPBGFAKL@Ex_IsCellSelected2@		; `string'
PUBLIC	??_C@_0N@JNHILCCM@Ex_SetRedraw@			; `string'
PUBLIC	??_C@_0O@BNGINBML@Ex_RedrawCell@		; `string'
PUBLIC	??_C@_0P@OBNLCHJI@Ex_RedrawCell2@		; `string'
PUBLIC	??_C@_0N@NHMBPMNF@Ex_RedrawRow@			; `string'
PUBLIC	??_C@_0BA@OOCBNEIG@Ex_RedrawColumn@		; `string'
PUBLIC	??_C@_07GNCAGGAM@Ex_Save@			; `string'
PUBLIC	??_C@_07GPDNJFNI@Ex_Load@			; `string'
PUBLIC	??_C@_0BA@CAJIFMH@Ex_GetCellRange@		; `string'
PUBLIC	??_C@_0BI@CMMIKBMP@Ex_GetSelectedCellRange@	; `string'
PUBLIC	??_C@_0BE@HECMCKIG@Ex_SetSelectedRange@		; `string'
PUBLIC	??_C@_0BF@OJNPFOEO@Ex_SetSelectedRange2@	; `string'
PUBLIC	??_C@_0L@NJKCAAKF@Ex_IsValid@			; `string'
PUBLIC	??_C@_0M@ELBFKBBG@Ex_IsValid2@			; `string'
PUBLIC	??_C@_0M@FCAOJAFH@Ex_IsValid3@			; `string'
PUBLIC	??_C@_0BD@HLADNECC@Ex_CutSelectedText@		; `string'
PUBLIC	??_C@_0BE@CDOOMMLN@Ex_CopyTextFromGrid@		; `string'
PUBLIC	??_C@_0BD@LEHFDCLN@Ex_PasteTextToGrid@		; `string'
PUBLIC	??_C@_0P@BDGAPEEH@Ex_OnBeginDrag@		; `string'
PUBLIC	??_C@_0P@LDECAKCG@Ex_OnDragEnter@		; `string'
PUBLIC	??_C@_0O@FNABDCOI@Ex_OnDragOver@		; `string'
PUBLIC	??_C@_0P@JPLJFEON@Ex_OnDragLeave@		; `string'
PUBLIC	??_C@_09CDNHNDAF@Ex_OnDrop@			; `string'
PUBLIC	??_C@_0N@MPNMBOEO@Ex_OnEditCut@			; `string'
PUBLIC	??_C@_0O@FHPLGNBB@Ex_OnEditCopy@		; `string'
PUBLIC	??_C@_0P@FCHCLGJE@Ex_OnEditPaste@		; `string'
PUBLIC	??_C@_0BD@MIFCANKK@Ex_OnEditSelectAll@		; `string'
PUBLIC	??_C@_0P@FCNIIBDN@Ex_GetNextItem@		; `string'
PUBLIC	??_C@_0O@DLONJMPE@Ex_SortItems1@		; `string'
PUBLIC	??_C@_0BC@EEHMHMIF@Ex_SortTextItems2@		; `string'
PUBLIC	??_C@_0O@BAMAMPDH@Ex_SortItems2@		; `string'
PUBLIC	??_C@_0BG@MHOCFLFP@Ex_SetCompareFunction@	; `string'
PUBLIC	??_C@_0BH@MNDJECPI@Ex_RegisterWindowClass@	; `string'
PUBLIC	??_C@_0O@HGOAHAOL@Ex_Initialise@		; `string'
PUBLIC	??_C@_0BF@CHBCJKNB@Ex_SetupDefaultCells@	; `string'
PUBLIC	??_C@_0BH@BJMGKDEJ@Ex_SendMessageToParent@	; `string'
PUBLIC	??_C@_0BO@JMHDGLFK@Ex_SendDisplayRequestToParent@ ; `string'
PUBLIC	??_C@_0BJ@CKKJCBFA@Ex_SendCacheHintToParent@	; `string'
PUBLIC	??_C@_0BG@GJJOJEMA@Ex_InvalidateCellRect@	; `string'
PUBLIC	??_C@_0BH@HGHNAIFF@Ex_InvalidateCellRect2@	; `string'
PUBLIC	??_C@_0BH@GPGGDJBE@Ex_InvalidateCellRect3@	; `string'
PUBLIC	??_C@_0O@OJPHJPOG@Ex_EraseBkgnd@		; `string'
PUBLIC	??_C@_0BE@HMEBIHKA@Ex_GetCellRangeRect@		; `string'
PUBLIC	??_C@_0L@HCKIFLIC@Ex_SetCell@			; `string'
PUBLIC	??_C@_0BA@KIIGBJKN@Ex_SetMouseMode@		; `string'
PUBLIC	??_C@_0BA@NMDINFOB@Ex_GetMouseMode@		; `string'
PUBLIC	??_C@_0BK@EGAFPHHK@Ex_MouseOverRowResizeArea@	; `string'
PUBLIC	??_C@_0BN@DBMIOGKB@Ex_MouseOverColumnResizeArea@ ; `string'
PUBLIC	??_C@_0BK@ECLDPOEH@Ex_GetTopleftNonFixedCell@	; `string'
PUBLIC	??_C@_0CE@IHAFBCPB@Ex_GetUnobstructedNonFixedCellR@ ; `string'
PUBLIC	??_C@_0BP@FKHJKLB@Ex_GetVisibleNonFixedCellRange@ ; `string'
PUBLIC	??_C@_0BE@LJEEPJAG@Ex_IsVisibleVScroll@		; `string'
PUBLIC	??_C@_0BE@NAHFNKBP@Ex_IsVisibleHScroll@		; `string'
PUBLIC	??_C@_0BG@PMKJNCHJ@Ex_ResetSelectedRange@	; `string'
PUBLIC	??_C@_0BD@FFPLEIML@Ex_ResetScrollBars@		; `string'
PUBLIC	??_C@_0BE@DCHPMGFI@Ex_EnableScrollBars@		; `string'
PUBLIC	??_C@_0BC@LMJBJEGG@Ex_GetScrollPos32@		; `string'
PUBLIC	??_C@_0BC@HCIPGOEK@Ex_SetScrollPos32@		; `string'
PUBLIC	??_C@_0BC@FNGHENME@Ex_SortTextItems3@		; `string'
PUBLIC	??_C@_0O@JNLPOHG@Ex_SortItems3@			; `string'
PUBLIC	??_C@_0BD@PGFHMGPG@Ex_GetPointClicked@		; `string'
PUBLIC	??_C@_0CB@BFOICKEE@Ex_ValidateAndModifyCellContent@ ; `string'
PUBLIC	??_C@_0BF@NICANNDI@Ex_PreSubclassWindow@	; `string'
PUBLIC	??_C@_0O@GGJGHEIK@Ex_WindowProc@		; `string'
PUBLIC	??_C@_0BD@PEEIENPP@Ex_CreateDragImage@		; `string'
PUBLIC	??_C@_0BG@KJLGFONO@Ex_OnFixedColumnClick@	; `string'
PUBLIC	??_C@_0BD@MDMMMDJH@Ex_OnFixedRowClick@		; `string'
PUBLIC	??_C@_0O@BKMPDBHF@Ex_OnEditCell@		; `string'
PUBLIC	??_C@_0BB@KNNNFNFB@Ex_OnEndEditCell@		; `string'
PUBLIC	??_C@_0BA@OHFPPEOE@Ex_ValidateEdit@		; `string'
PUBLIC	??_C@_0O@DPAODLNH@Ex_EndEditing@		; `string'
PUBLIC	??_C@_09GGAIGIMI@Ex_OnDraw@			; `string'
PUBLIC	??_C@_0O@CJNFGCCD@Ex_CreateCell@		; `string'
PUBLIC	??_C@_0P@KAMDKJMB@Ex_DestroyCell@		; `string'
PUBLIC	??_C@_0BC@GJLIJJPL@Ex_SelectAllCells@		; `string'
PUBLIC	??_C@_0BB@CBJBIHMM@Ex_SelectColumns@		; `string'
PUBLIC	??_C@_0O@OPFPOLPP@Ex_SelectRows@		; `string'
PUBLIC	??_C@_0P@DLKHGHBP@Ex_SelectCells@		; `string'
PUBLIC	??_C@_0P@NADNFEEI@Ex_OnSelecting@		; `string'
PUBLIC	??_C@_0L@LHMOODNH@Ex_OnPaint@			; `string'
PUBLIC	??_C@_0N@GMMOFGKF@Ex_OnHScroll@			; `string'
PUBLIC	??_C@_0N@FPPHFLM@Ex_OnVScroll@			; `string'
PUBLIC	??_C@_09FLFHMPIG@Ex_OnSize@			; `string'
PUBLIC	??_C@_0P@PLNMPOND@Ex_OnLButtonUp@		; `string'
PUBLIC	??_C@_0BB@PCKHDBM@Ex_OnLButtonDown@		; `string'
PUBLIC	??_C@_0P@GEIOBKAF@Ex_OnMouseMove@		; `string'
PUBLIC	??_C@_0L@MJECDFDA@Ex_OnTimer@			; `string'
PUBLIC	??_C@_0BA@BODHLALJ@Ex_OnGetDlgCode@		; `string'
PUBLIC	??_C@_0N@IHJLIDOG@Ex_OnKeyDown@			; `string'
PUBLIC	??_C@_0L@DHBECPKF@Ex_OnKeyUp@			; `string'
PUBLIC	??_C@_09JGPLPHGG@Ex_OnChar@			; `string'
PUBLIC	??_C@_0BD@BBEJDAHH@Ex_OnLButtonDblClk@		; `string'
PUBLIC	??_C@_0BA@IAGOHFI@Ex_OnEraseBkgnd@		; `string'
PUBLIC	??_C@_0BA@GDDLCHDJ@Ex_OnSysKeyDown@		; `string'
PUBLIC	??_C@_0BB@IHLBDHNK@Ex_OnContextMenu@		; `string'
PUBLIC	??_C@_0BJ@HFCLHCML@Ex_OnUpdateEditSelectAll@	; `string'
PUBLIC	??_C@_0P@IABCFNIO@Ex_OnSetCursor@		; `string'
PUBLIC	??_C@_0BB@OKADENPO@Ex_OnRButtonDown@		; `string'
PUBLIC	??_C@_0P@MCLLEPII@Ex_OnRButtonUp@		; `string'
PUBLIC	??_C@_0BE@DKNKJKBA@Ex_OnSysColorChange@		; `string'
PUBLIC	??_C@_0BE@FACNGBPD@Ex_OnCaptureChanged@		; `string'
PUBLIC	??_C@_0BE@LELLFLAI@Ex_OnUpdateEditCopy@		; `string'
PUBLIC	??_C@_0BD@OMOBBFMG@Ex_OnUpdateEditCut@		; `string'
PUBLIC	??_C@_0BF@DGPKFOGC@Ex_OnUpdateEditPaste@	; `string'
PUBLIC	??_C@_0BD@PCIBNAMK@Ex_OnSettingChange@		; `string'
PUBLIC	??_C@_0BA@OLIHFLKC@Ex_OnMouseWheel@		; `string'
PUBLIC	??_C@_0N@ENEBILOC@Ex_OnSetFont@			; `string'
PUBLIC	??_C@_0N@LFLALEDD@Ex_OnGetFont@			; `string'
PUBLIC	??_C@_0N@FDGOGOCK@Ex_OnImeChar@			; `string'
PUBLIC	??_C@_0BE@HFBOPFGB@Ex_OnEndInPlaceEdit@		; `string'
PUBLIC	??_C@_0BH@PMEHONMN@Ex_GetMouseScrollLines@	; `string'
PUBLIC	??_C@_0BG@HFPMNLJD@Ex_SetDefaultCellType@	; `string'
PUBLIC	??_C@_0BL@OADPEDKM@Ex_SetGridScrollBarVisible@	; `string'
PUBLIC	??_C@_0BD@DDNFLIJO@Ex_SetUseFocusRect@		; `string'
PUBLIC	??_C@_0BD@BMDMKIH@Ex_GetUseFocusRect@		; `string'
PUBLIC	??_C@_0BE@BKFECOID@Ex_SetDrawFixedLine@		; `string'
PUBLIC	??_C@_0M@DNKIBNMP@CExGridCtrl@			; `string'
PUBLIC	??_C@_0M@NNGINBBP@MFCGridCtrl@			; `string'
PUBLIC	??_R4CExGridCtrl@@6B@				; CExGridCtrl::`RTTI Complete Object Locator'
PUBLIC	??_R0?AVCExGridCtrl@@@8				; CExGridCtrl `RTTI Type Descriptor'
PUBLIC	??_R3CExGridCtrl@@8				; CExGridCtrl::`RTTI Class Hierarchy Descriptor'
PUBLIC	??_R2CExGridCtrl@@8				; CExGridCtrl::`RTTI Base Class Array'
PUBLIC	??_R1A@?0A@EA@CExGridCtrl@@8			; CExGridCtrl::`RTTI Base Class Descriptor at (0,-1,0,64)'
PUBLIC	??_R4CLoaderGridCtrl@@6B@			; CLoaderGridCtrl::`RTTI Complete Object Locator'
PUBLIC	??_R0?AVCLoaderGridCtrl@@@8			; CLoaderGridCtrl `RTTI Type Descriptor'
PUBLIC	??_R3CLoaderGridCtrl@@8				; CLoaderGridCtrl::`RTTI Class Hierarchy Descriptor'
PUBLIC	??_R2CLoaderGridCtrl@@8				; CLoaderGridCtrl::`RTTI Base Class Array'
PUBLIC	??_R1A@?0A@EA@CLoaderGridCtrl@@8		; CLoaderGridCtrl::`RTTI Base Class Descriptor at (0,-1,0,64)'
PUBLIC	??_R1A@?0A@EA@CExLoadLib@@8			; CExLoadLib::`RTTI Base Class Descriptor at (0,-1,0,64)'
PUBLIC	??_R0?AVCExLoadLib@@@8				; CExLoadLib `RTTI Type Descriptor'
PUBLIC	??_R3CExLoadLib@@8				; CExLoadLib::`RTTI Class Hierarchy Descriptor'
PUBLIC	??_R2CExLoadLib@@8				; CExLoadLib::`RTTI Base Class Array'
PUBLIC	??_R4CExLoadLib@@6B@				; CExLoadLib::`RTTI Complete Object Locator'
EXTRN	??2@YAPAXI@Z:PROC				; operator new
EXTRN	??3@YAXPAX@Z:PROC				; operator delete
EXTRN	??3@YAXPAXI@Z:PROC				; operator delete
EXTRN	?__global_delete@@YAXPAXI@Z:PROC		; __global_delete
EXTRN	___std_terminate:PROC
EXTRN	__imp__GetLastError@0:PROC
EXTRN	__imp__FreeLibrary@4:PROC
EXTRN	__imp__GetModuleFileNameA@12:PROC
EXTRN	__imp__GetProcAddress@8:PROC
EXTRN	__imp__LoadLibraryA@4:PROC
EXTRN	__imp__EnableWindow@8:PROC
EXTRN	__imp__GetSysColor@4:PROC
EXTRN	__imp____stdio_common_vsprintf:PROC
EXTRN	__imp_??0?$CStringT@DV?$StrTraitMFC_DLL@DV?$ChTraitsCRT@D@ATL@@@@@ATL@@QAE@XZ:PROC
EXTRN	__imp_??0?$CStringT@DV?$StrTraitMFC_DLL@DV?$ChTraitsCRT@D@ATL@@@@@ATL@@QAE@ABV01@@Z:PROC
EXTRN	__imp_??0?$CStringT@DV?$StrTraitMFC_DLL@DV?$ChTraitsCRT@D@ATL@@@@@ATL@@QAE@PBD@Z:PROC
EXTRN	__imp_??1?$CStringT@DV?$StrTraitMFC_DLL@DV?$ChTraitsCRT@D@ATL@@@@@ATL@@QAE@XZ:PROC
EXTRN	__imp_??4?$CStringT@DV?$StrTraitMFC_DLL@DV?$ChTraitsCRT@D@ATL@@@@@ATL@@QAEAAV01@ABV01@@Z:PROC
EXTRN	__imp_??4?$CStringT@DV?$StrTraitMFC_DLL@DV?$ChTraitsCRT@D@ATL@@@@@ATL@@QAEAAV01@PBD@Z:PROC
EXTRN	__imp_??Y?$CStringT@DV?$StrTraitMFC_DLL@DV?$ChTraitsCRT@D@ATL@@@@@ATL@@QAEAAV01@PBD@Z:PROC
EXTRN	__imp_?ReverseFind@?$CStringT@DV?$StrTraitMFC_DLL@DV?$ChTraitsCRT@D@ATL@@@@@ATL@@QBEHD@Z:PROC
EXTRN	__imp_?Left@?$CStringT@DV?$StrTraitMFC_DLL@DV?$ChTraitsCRT@D@ATL@@@@@ATL@@QBE?AV12@H@Z:PROC
EXTRN	?AfxGetStaticModuleState@@YGPAVAFX_MODULE_STATE@@XZ:PROC ; AfxGetStaticModuleState
EXTRN	??0AFX_MAINTAIN_STATE2@@QAE@PAVAFX_MODULE_STATE@@@Z:PROC ; AFX_MAINTAIN_STATE2::AFX_MAINTAIN_STATE2
EXTRN	??1AFX_MAINTAIN_STATE2@@QAE@XZ:PROC		; AFX_MAINTAIN_STATE2::~AFX_MAINTAIN_STATE2
EXTRN	?OnCmdMsg@CCmdTarget@@UAEHIHPAXPAUAFX_CMDHANDLERINFO@@@Z:PROC ; CCmdTarget::OnCmdMsg
EXTRN	?IsInvokeAllowed@CCmdTarget@@UAEHJ@Z:PROC	; CCmdTarget::IsInvokeAllowed
EXTRN	?GetDispatchIID@CCmdTarget@@UAEHPAU_GUID@@@Z:PROC ; CCmdTarget::GetDispatchIID
EXTRN	?GetTypeInfoCount@CCmdTarget@@UAEIXZ:PROC	; CCmdTarget::GetTypeInfoCount
EXTRN	?GetTypeLibCache@CCmdTarget@@UAEPAVCTypeLibCache@@XZ:PROC ; CCmdTarget::GetTypeLibCache
EXTRN	?GetTypeLib@CCmdTarget@@UAEJKPAPAUITypeLib@@@Z:PROC ; CCmdTarget::GetTypeLib
EXTRN	?GetCommandMap@CCmdTarget@@MBEPBUAFX_OLECMDMAP@@XZ:PROC ; CCmdTarget::GetCommandMap
EXTRN	?GetDispatchMap@CCmdTarget@@MBEPBUAFX_DISPMAP@@XZ:PROC ; CCmdTarget::GetDispatchMap
EXTRN	?GetConnectionMap@CCmdTarget@@MBEPBUAFX_CONNECTIONMAP@@XZ:PROC ; CCmdTarget::GetConnectionMap
EXTRN	?GetEventSinkMap@CCmdTarget@@MBEPBUAFX_EVENTSINKMAP@@XZ:PROC ; CCmdTarget::GetEventSinkMap
EXTRN	?OnCreateAggregates@CCmdTarget@@UAEHXZ:PROC	; CCmdTarget::OnCreateAggregates
EXTRN	?GetInterfaceHook@CCmdTarget@@UAEPAUIUnknown@@PBX@Z:PROC ; CCmdTarget::GetInterfaceHook
EXTRN	?GetExtraConnectionPoints@CCmdTarget@@MAEHPAVCPtrArray@@@Z:PROC ; CCmdTarget::GetExtraConnectionPoints
EXTRN	?GetConnectionHook@CCmdTarget@@MAEPAUIConnectionPoint@@ABU_GUID@@@Z:PROC ; CCmdTarget::GetConnectionHook
EXTRN	?GetThisClass@CWnd@@SGPAUCRuntimeClass@@XZ:PROC	; CWnd::GetThisClass
EXTRN	??0CWnd@@QAE@XZ:PROC				; CWnd::CWnd
EXTRN	?Create@CWnd@@UAEHPBD0KABUtagRECT@@PAV1@IPAUCCreateContext@@@Z:PROC ; CWnd::Create
EXTRN	?CreateEx@CWnd@@UAEHKPBD0KHHHHPAUHWND__@@PAUHMENU__@@PAX@Z:PROC ; CWnd::CreateEx
EXTRN	?CreateEx@CWnd@@UAEHKPBD0KABUtagRECT@@PAV1@IPAX@Z:PROC ; CWnd::CreateEx
EXTRN	?DestroyWindow@CWnd@@UAEHXZ:PROC		; CWnd::DestroyWindow
EXTRN	?PreCreateWindow@CWnd@@UAEHAAUtagCREATESTRUCTA@@@Z:PROC ; CWnd::PreCreateWindow
EXTRN	?CalcWindowRect@CWnd@@UAEXPAUtagRECT@@I@Z:PROC	; CWnd::CalcWindowRect
EXTRN	?GetMenu@CWnd@@UBEPAVCMenu@@XZ:PROC		; CWnd::GetMenu
EXTRN	?SetMenu@CWnd@@UAEHPAVCMenu@@@Z:PROC		; CWnd::SetMenu
EXTRN	?OnToolHitTest@CWnd@@UBEHVCPoint@@PAUtagTOOLINFOA@@@Z:PROC ; CWnd::OnToolHitTest
EXTRN	?GetScrollBarCtrl@CWnd@@UBEPAVCScrollBar@@H@Z:PROC ; CWnd::GetScrollBarCtrl
EXTRN	?WinHelpA@CWnd@@UAEXKI@Z:PROC			; CWnd::WinHelpA
EXTRN	?HtmlHelpA@CWnd@@UAEXKI@Z:PROC			; CWnd::HtmlHelpA
EXTRN	?WinHelpInternal@CWnd@@UAEXKI@Z:PROC		; CWnd::WinHelpInternal
EXTRN	?ContinueModal@CWnd@@UAEHXZ:PROC		; CWnd::ContinueModal
EXTRN	?EndModalLoop@CWnd@@UAEXH@Z:PROC		; CWnd::EndModalLoop
EXTRN	?OnDrawIconicThumbnailOrLivePreview@CWnd@@UAEXAAVCDC@@VCRect@@VCSize@@HAAH@Z:PROC ; CWnd::OnDrawIconicThumbnailOrLivePreview
EXTRN	?GetInterfaceMap@CWnd@@MBEPBUAFX_INTERFACEMAP@@XZ:PROC ; CWnd::GetInterfaceMap
EXTRN	?EnsureStdObj@CWnd@@UAEJXZ:PROC			; CWnd::EnsureStdObj
EXTRN	?get_accParent@CWnd@@UAEJPAPAUIDispatch@@@Z:PROC ; CWnd::get_accParent
EXTRN	?get_accChildCount@CWnd@@UAEJPAJ@Z:PROC		; CWnd::get_accChildCount
EXTRN	?get_accChild@CWnd@@UAEJUtagVARIANT@@PAPAUIDispatch@@@Z:PROC ; CWnd::get_accChild
EXTRN	?get_accName@CWnd@@UAEJUtagVARIANT@@PAPA_W@Z:PROC ; CWnd::get_accName
EXTRN	?get_accValue@CWnd@@UAEJUtagVARIANT@@PAPA_W@Z:PROC ; CWnd::get_accValue
EXTRN	?get_accDescription@CWnd@@UAEJUtagVARIANT@@PAPA_W@Z:PROC ; CWnd::get_accDescription
EXTRN	?get_accRole@CWnd@@UAEJUtagVARIANT@@PAU2@@Z:PROC ; CWnd::get_accRole
EXTRN	?get_accState@CWnd@@UAEJUtagVARIANT@@PAU2@@Z:PROC ; CWnd::get_accState
EXTRN	?get_accHelp@CWnd@@UAEJUtagVARIANT@@PAPA_W@Z:PROC ; CWnd::get_accHelp
EXTRN	?get_accHelpTopic@CWnd@@UAEJPAPA_WUtagVARIANT@@PAJ@Z:PROC ; CWnd::get_accHelpTopic
EXTRN	?get_accKeyboardShortcut@CWnd@@UAEJUtagVARIANT@@PAPA_W@Z:PROC ; CWnd::get_accKeyboardShortcut
EXTRN	?get_accFocus@CWnd@@UAEJPAUtagVARIANT@@@Z:PROC	; CWnd::get_accFocus
EXTRN	?get_accSelection@CWnd@@UAEJPAUtagVARIANT@@@Z:PROC ; CWnd::get_accSelection
EXTRN	?get_accDefaultAction@CWnd@@UAEJUtagVARIANT@@PAPA_W@Z:PROC ; CWnd::get_accDefaultAction
EXTRN	?accSelect@CWnd@@UAEJJUtagVARIANT@@@Z:PROC	; CWnd::accSelect
EXTRN	?accLocation@CWnd@@UAEJPAJ000UtagVARIANT@@@Z:PROC ; CWnd::accLocation
EXTRN	?accNavigate@CWnd@@UAEJJUtagVARIANT@@PAU2@@Z:PROC ; CWnd::accNavigate
EXTRN	?accHitTest@CWnd@@UAEJJJPAUtagVARIANT@@@Z:PROC	; CWnd::accHitTest
EXTRN	?accDoDefaultAction@CWnd@@UAEJUtagVARIANT@@@Z:PROC ; CWnd::accDoDefaultAction
EXTRN	?put_accName@CWnd@@UAEJUtagVARIANT@@PA_W@Z:PROC	; CWnd::put_accName
EXTRN	?put_accValue@CWnd@@UAEJUtagVARIANT@@PA_W@Z:PROC ; CWnd::put_accValue
EXTRN	?SetProxy@CWnd@@UAEJPAUIAccessibleProxy@@@Z:PROC ; CWnd::SetProxy
EXTRN	?CreateAccessibleProxy@CWnd@@UAEJIJPAJ@Z:PROC	; CWnd::CreateAccessibleProxy
EXTRN	?OnCommand@CWnd@@MAEHIJ@Z:PROC			; CWnd::OnCommand
EXTRN	?OnNotify@CWnd@@MAEHIJPAJ@Z:PROC		; CWnd::OnNotify
EXTRN	?GetSuperWndProcAddr@CWnd@@MAEPAP6GJPAUHWND__@@IIJ@ZXZ:PROC ; CWnd::GetSuperWndProcAddr
EXTRN	?PreTranslateMessage@CWnd@@UAEHPAUtagMSG@@@Z:PROC ; CWnd::PreTranslateMessage
EXTRN	?OnAmbientProperty@CWnd@@UAEHPAVCOleControlSite@@JPAUtagVARIANT@@@Z:PROC ; CWnd::OnAmbientProperty
EXTRN	?OnWndMsg@CWnd@@MAEHIIJPAJ@Z:PROC		; CWnd::OnWndMsg
EXTRN	?DefWindowProcA@CWnd@@MAEJIIJ@Z:PROC		; CWnd::DefWindowProcA
EXTRN	?PostNcDestroy@CWnd@@MAEXXZ:PROC		; CWnd::PostNcDestroy
EXTRN	?OnChildNotify@CWnd@@MAEHIIJPAJ@Z:PROC		; CWnd::OnChildNotify
EXTRN	?OnTouchInputs@CWnd@@MAEHIPAUtagTOUCHINPUT@@@Z:PROC ; CWnd::OnTouchInputs
EXTRN	?OnTouchInput@CWnd@@MAEHVCPoint@@HHPAUtagTOUCHINPUT@@@Z:PROC ; CWnd::OnTouchInput
EXTRN	?GetGestureStatus@CWnd@@MAEKVCPoint@@@Z:PROC	; CWnd::GetGestureStatus
EXTRN	?OnGestureZoom@CWnd@@MAEHVCPoint@@J@Z:PROC	; CWnd::OnGestureZoom
EXTRN	?OnGesturePan@CWnd@@MAEHVCPoint@@0@Z:PROC	; CWnd::OnGesturePan
EXTRN	?OnGestureRotate@CWnd@@MAEHVCPoint@@N@Z:PROC	; CWnd::OnGestureRotate
EXTRN	?OnGestureTwoFingerTap@CWnd@@MAEHVCPoint@@@Z:PROC ; CWnd::OnGestureTwoFingerTap
EXTRN	?OnGesturePressAndTap@CWnd@@MAEHVCPoint@@J@Z:PROC ; CWnd::OnGesturePressAndTap
EXTRN	?ResizeDynamicLayout@CWnd@@MAEXXZ:PROC		; CWnd::ResizeDynamicLayout
EXTRN	??1CWnd@@UAE@XZ:PROC				; CWnd::~CWnd
EXTRN	?CheckAutoCenter@CWnd@@UAEHXZ:PROC		; CWnd::CheckAutoCenter
EXTRN	?IsFrameWnd@CWnd@@UBEHXZ:PROC			; CWnd::IsFrameWnd
EXTRN	?OnFinalRelease@CWnd@@UAEXXZ:PROC		; CWnd::OnFinalRelease
EXTRN	?CreateControlContainer@CWnd@@MAEHPAPAVCOleControlContainer@@@Z:PROC ; CWnd::CreateControlContainer
EXTRN	?CreateControlSite@CWnd@@MAEHPAVCOleControlContainer@@PAPAVCOleControlSite@@IABU_GUID@@@Z:PROC ; CWnd::CreateControlSite
EXTRN	?SetOccDialogInfo@CWnd@@MAEHPAU_AFX_OCC_DIALOG_INFO@@@Z:PROC ; CWnd::SetOccDialogInfo
EXTRN	?GetOccDialogInfo@CWnd@@MAEPAU_AFX_OCC_DIALOG_INFO@@XZ:PROC ; CWnd::GetOccDialogInfo
EXTRN	?GetThisMessageMap@CWnd@@KGPBUAFX_MSGMAP@@XZ:PROC ; CWnd::GetThisMessageMap
EXTRN	?AfxMessageBox@@YGHPBDII@Z:PROC			; AfxMessageBox
EXTRN	?FlushClipboard@COleDataSource@@SGXXZ:PROC	; COleDataSource::FlushClipboard
EXTRN	?GetClipboardOwner@COleDataSource@@SGPAV1@XZ:PROC ; COleDataSource::GetClipboardOwner
EXTRN	??_ECExGridCtrl@@UAEPAXI@Z:PROC			; CExGridCtrl::`vector deleting destructor'
EXTRN	??_ECLoaderGridCtrl@@UAEPAXI@Z:PROC		; CLoaderGridCtrl::`vector deleting destructor'
EXTRN	@__security_check_cookie@4:PROC
EXTRN	___CxxFrameHandler3:PROC
EXTRN	_memset:PROC
EXTRN	??_7type_info@@6B@:QWORD			; type_info::`vftable'
EXTRN	___security_cookie:DWORD
;	COMDAT ?_OptionsStorage@?1??__local_stdio_printf_options@@9@4_KA
_BSS	SEGMENT
?_OptionsStorage@?1??__local_stdio_printf_options@@9@4_KA DQ 01H DUP (?) ; `__local_stdio_printf_options'::`2'::_OptionsStorage
_BSS	ENDS
;	COMDAT ??_R4CExLoadLib@@6B@
rdata$r	SEGMENT
??_R4CExLoadLib@@6B@ DD 00H				; CExLoadLib::`RTTI Complete Object Locator'
	DD	00H
	DD	00H
	DD	FLAT:??_R0?AVCExLoadLib@@@8
	DD	FLAT:??_R3CExLoadLib@@8
rdata$r	ENDS
;	COMDAT ??_R2CExLoadLib@@8
rdata$r	SEGMENT
??_R2CExLoadLib@@8 DD FLAT:??_R1A@?0A@EA@CExLoadLib@@8	; CExLoadLib::`RTTI Base Class Array'
rdata$r	ENDS
;	COMDAT ??_R3CExLoadLib@@8
rdata$r	SEGMENT
??_R3CExLoadLib@@8 DD 00H				; CExLoadLib::`RTTI Class Hierarchy Descriptor'
	DD	00H
	DD	01H
	DD	FLAT:??_R2CExLoadLib@@8
rdata$r	ENDS
;	COMDAT ??_R0?AVCExLoadLib@@@8
data$rs	SEGMENT
??_R0?AVCExLoadLib@@@8 DD FLAT:??_7type_info@@6B@	; CExLoadLib `RTTI Type Descriptor'
	DD	00H
	DB	'.?AVCExLoadLib@@', 00H
data$rs	ENDS
;	COMDAT ??_R1A@?0A@EA@CExLoadLib@@8
rdata$r	SEGMENT
??_R1A@?0A@EA@CExLoadLib@@8 DD FLAT:??_R0?AVCExLoadLib@@@8 ; CExLoadLib::`RTTI Base Class Descriptor at (0,-1,0,64)'
	DD	00H
	DD	00H
	DD	0ffffffffH
	DD	00H
	DD	040H
	DD	FLAT:??_R3CExLoadLib@@8
rdata$r	ENDS
;	COMDAT ??_R1A@?0A@EA@CLoaderGridCtrl@@8
rdata$r	SEGMENT
??_R1A@?0A@EA@CLoaderGridCtrl@@8 DD FLAT:??_R0?AVCLoaderGridCtrl@@@8 ; CLoaderGridCtrl::`RTTI Base Class Descriptor at (0,-1,0,64)'
	DD	01H
	DD	00H
	DD	0ffffffffH
	DD	00H
	DD	040H
	DD	FLAT:??_R3CLoaderGridCtrl@@8
rdata$r	ENDS
;	COMDAT ??_R2CLoaderGridCtrl@@8
rdata$r	SEGMENT
??_R2CLoaderGridCtrl@@8 DD FLAT:??_R1A@?0A@EA@CLoaderGridCtrl@@8 ; CLoaderGridCtrl::`RTTI Base Class Array'
	DD	FLAT:??_R1A@?0A@EA@CExLoadLib@@8
rdata$r	ENDS
;	COMDAT ??_R3CLoaderGridCtrl@@8
rdata$r	SEGMENT
??_R3CLoaderGridCtrl@@8 DD 00H				; CLoaderGridCtrl::`RTTI Class Hierarchy Descriptor'
	DD	00H
	DD	02H
	DD	FLAT:??_R2CLoaderGridCtrl@@8
rdata$r	ENDS
;	COMDAT ??_R0?AVCLoaderGridCtrl@@@8
data$rs	SEGMENT
??_R0?AVCLoaderGridCtrl@@@8 DD FLAT:??_7type_info@@6B@	; CLoaderGridCtrl `RTTI Type Descriptor'
	DD	00H
	DB	'.?AVCLoaderGridCtrl@@', 00H
data$rs	ENDS
;	COMDAT ??_R4CLoaderGridCtrl@@6B@
rdata$r	SEGMENT
??_R4CLoaderGridCtrl@@6B@ DD 00H			; CLoaderGridCtrl::`RTTI Complete Object Locator'
	DD	00H
	DD	00H
	DD	FLAT:??_R0?AVCLoaderGridCtrl@@@8
	DD	FLAT:??_R3CLoaderGridCtrl@@8
rdata$r	ENDS
;	COMDAT ??_R1A@?0A@EA@CExGridCtrl@@8
rdata$r	SEGMENT
??_R1A@?0A@EA@CExGridCtrl@@8 DD FLAT:??_R0?AVCExGridCtrl@@@8 ; CExGridCtrl::`RTTI Base Class Descriptor at (0,-1,0,64)'
	DD	03H
	DD	00H
	DD	0ffffffffH
	DD	00H
	DD	040H
	DD	FLAT:??_R3CExGridCtrl@@8
rdata$r	ENDS
;	COMDAT ??_R2CExGridCtrl@@8
rdata$r	SEGMENT
??_R2CExGridCtrl@@8 DD FLAT:??_R1A@?0A@EA@CExGridCtrl@@8 ; CExGridCtrl::`RTTI Base Class Array'
	DD	FLAT:??_R1A@?0A@EA@CWnd@@8
	DD	FLAT:??_R1A@?0A@EA@CCmdTarget@@8
	DD	FLAT:??_R1A@?0A@EA@CObject@@8
rdata$r	ENDS
;	COMDAT ??_R3CExGridCtrl@@8
rdata$r	SEGMENT
??_R3CExGridCtrl@@8 DD 00H				; CExGridCtrl::`RTTI Class Hierarchy Descriptor'
	DD	00H
	DD	04H
	DD	FLAT:??_R2CExGridCtrl@@8
rdata$r	ENDS
;	COMDAT ??_R0?AVCExGridCtrl@@@8
data$rs	SEGMENT
??_R0?AVCExGridCtrl@@@8 DD FLAT:??_7type_info@@6B@	; CExGridCtrl `RTTI Type Descriptor'
	DD	00H
	DB	'.?AVCExGridCtrl@@', 00H
data$rs	ENDS
;	COMDAT ??_R4CExGridCtrl@@6B@
rdata$r	SEGMENT
??_R4CExGridCtrl@@6B@ DD 00H				; CExGridCtrl::`RTTI Complete Object Locator'
	DD	00H
	DD	00H
	DD	FLAT:??_R0?AVCExGridCtrl@@@8
	DD	FLAT:??_R3CExGridCtrl@@8
rdata$r	ENDS
;	COMDAT ??_C@_0M@NNGINBBP@MFCGridCtrl@
CONST	SEGMENT
??_C@_0M@NNGINBBP@MFCGridCtrl@ DB 'MFCGridCtrl', 00H	; `string'
CONST	ENDS
;	COMDAT ?messageMap@?1??GetThisMessageMap@CExGridCtrl@@KGPBUAFX_MSGMAP@@XZ@4U3@B
CONST	SEGMENT
?messageMap@?1??GetThisMessageMap@CExGridCtrl@@KGPBUAFX_MSGMAP@@XZ@4U3@B DD FLAT:?GetThisMessageMap@CWnd@@KGPBUAFX_MSGMAP@@XZ ; `CExGridCtrl::GetThisMessageMap'::`2'::messageMap
	DD	FLAT:?_messageEntries@?1??GetThisMessageMap@CExGridCtrl@@KGPBUAFX_MSGMAP@@XZ@4QBUAFX_MSGMAP_ENTRY@@B
CONST	ENDS
;	COMDAT ?_messageEntries@?1??GetThisMessageMap@CExGridCtrl@@KGPBUAFX_MSGMAP@@XZ@4QBUAFX_MSGMAP_ENTRY@@B
CONST	SEGMENT
?_messageEntries@?1??GetThisMessageMap@CExGridCtrl@@KGPBUAFX_MSGMAP@@XZ@4QBUAFX_MSGMAP_ENTRY@@B DD 0fH ; `CExGridCtrl::GetThisMessageMap'::`2'::_messageEntries
	DD	00H
	DD	00H
	DD	00H
	DD	013H
	DD	FLAT:?OnPaint@CExGridCtrl@@IAEXXZ
	DD	0114H
	DD	00H
	DD	00H
	DD	00H
	DD	02bH
	DD	FLAT:?OnHScroll@CExGridCtrl@@IAEXIIPAVCScrollBar@@@Z
	DD	0115H
	DD	00H
	DD	00H
	DD	00H
	DD	02bH
	DD	FLAT:?OnVScroll@CExGridCtrl@@IAEXIIPAVCScrollBar@@@Z
	DD	05H
	DD	00H
	DD	00H
	DD	00H
	DD	01aH
	DD	FLAT:?OnSize@CExGridCtrl@@IAEXIHH@Z
	DD	0202H
	DD	00H
	DD	00H
	DD	00H
	DD	036H
	DD	FLAT:?OnLButtonUp@CExGridCtrl@@IAEXIVCPoint@@@Z
	DD	0201H
	DD	00H
	DD	00H
	DD	00H
	DD	036H
	DD	FLAT:?OnLButtonDown@CExGridCtrl@@IAEXIVCPoint@@@Z
	DD	0200H
	DD	00H
	DD	00H
	DD	00H
	DD	036H
	DD	FLAT:?OnMouseMove@CExGridCtrl@@IAEXIVCPoint@@@Z
	DD	0113H
	DD	00H
	DD	00H
	DD	00H
	DD	015H
	DD	FLAT:?OnTimer@CExGridCtrl@@IAEXI@Z
	DD	087H
	DD	00H
	DD	00H
	DD	00H
	DD	032H
	DD	FLAT:?OnGetDlgCode@CExGridCtrl@@IAEIXZ
	DD	0100H
	DD	00H
	DD	00H
	DD	00H
	DD	019H
	DD	FLAT:?OnKeyDown@CExGridCtrl@@IAEXIII@Z
	DD	0102H
	DD	00H
	DD	00H
	DD	00H
	DD	019H
	DD	FLAT:?OnChar@CExGridCtrl@@IAEXIII@Z
	DD	0203H
	DD	00H
	DD	00H
	DD	00H
	DD	036H
	DD	FLAT:?OnLButtonDblClk@CExGridCtrl@@IAEXIVCPoint@@@Z
	DD	014H
	DD	00H
	DD	00H
	DD	00H
	DD	01H
	DD	FLAT:?OnEraseBkgnd@CExGridCtrl@@IAEHPAVCDC@@@Z
	DD	0111H
	DD	0ffffffffH
	DD	0e12aH
	DD	0e12aH
	DD	042H
	DD	FLAT:?OnUpdateEditSelectAll@CExGridCtrl@@IAEXPAVCCmdUI@@@Z
	DD	0111H
	DD	00H
	DD	0e12aH
	DD	0e12aH
	DD	03aH
	DD	FLAT:??_9CExGridCtrl@@$BBJI@AE
	DD	0104H
	DD	00H
	DD	00H
	DD	00H
	DD	019H
	DD	FLAT:?OnSysKeyDown@CExGridCtrl@@IAEXIII@Z
	DD	07bH
	DD	00H
	DD	00H
	DD	00H
	DD	027H
	DD	FLAT:?OnContextMenu@CExGridCtrl@@IAEXPAVCWnd@@VCPoint@@@Z
	DD	020H
	DD	00H
	DD	00H
	DD	00H
	DD	05H
	DD	FLAT:?OnSetCursor@CExGridCtrl@@IAEHPAVCWnd@@II@Z
	DD	0205H
	DD	00H
	DD	00H
	DD	00H
	DD	036H
	DD	FLAT:?OnRButtonUp@CExGridCtrl@@IAEXIVCPoint@@@Z
	DD	015H
	DD	00H
	DD	00H
	DD	00H
	DD	013H
	DD	FLAT:?OnSysColorChange@CExGridCtrl@@IAEXXZ
	DD	0215H
	DD	00H
	DD	00H
	DD	00H
	DD	025H
	DD	FLAT:?OnCaptureChanged@CExGridCtrl@@IAEXPAVCWnd@@@Z
	DD	0111H
	DD	00H
	DD	0e122H
	DD	0e122H
	DD	03aH
	DD	FLAT:??_9CExGridCtrl@@$BBJA@AE
	DD	0111H
	DD	0ffffffffH
	DD	0e122H
	DD	0e122H
	DD	042H
	DD	FLAT:?OnUpdateEditCopy@CExGridCtrl@@IAEXPAVCCmdUI@@@Z
	DD	0111H
	DD	00H
	DD	0e123H
	DD	0e123H
	DD	03aH
	DD	FLAT:??_9CExGridCtrl@@$BBIM@AE
	DD	0111H
	DD	0ffffffffH
	DD	0e123H
	DD	0e123H
	DD	042H
	DD	FLAT:?OnUpdateEditCut@CExGridCtrl@@IAEXPAVCCmdUI@@@Z
	DD	0111H
	DD	00H
	DD	0e125H
	DD	0e125H
	DD	03aH
	DD	FLAT:??_9CExGridCtrl@@$BBJE@AE
	DD	0111H
	DD	0ffffffffH
	DD	0e125H
	DD	0e125H
	DD	042H
	DD	FLAT:?OnUpdateEditPaste@CExGridCtrl@@IAEXPAVCCmdUI@@@Z
	DD	020aH
	DD	00H
	DD	00H
	DD	00H
	DD	038H
	DD	FLAT:?OnMouseWheel@CExGridCtrl@@IAEHIFVCPoint@@@Z
	DD	030H
	DD	00H
	DD	00H
	DD	00H
	DD	0eH
	DD	FLAT:?OnSetFont@CExGridCtrl@@IAEJIJ@Z
	DD	031H
	DD	00H
	DD	00H
	DD	00H
	DD	0eH
	DD	FLAT:?OnGetFont@CExGridCtrl@@IAEJIJ@Z
	DD	0286H
	DD	00H
	DD	00H
	DD	00H
	DD	0eH
	DD	FLAT:?OnImeChar@CExGridCtrl@@IAEJIJ@Z
	DD	04eH
	DD	0ff96H
	DD	08H
	DD	08H
	DD	03eH
	DD	FLAT:?OnEndInPlaceEdit@CExGridCtrl@@IAEXPAUtagNMHDR@@PAJ@Z
	DD	00H
	DD	00H
	DD	00H
	DD	00H
	DD	00H
	DD	00H
CONST	ENDS
;	COMDAT ??_C@_0M@DNKIBNMP@CExGridCtrl@
CONST	SEGMENT
??_C@_0M@DNKIBNMP@CExGridCtrl@ DB 'CExGridCtrl', 00H	; `string'
CONST	ENDS
;	COMDAT ??_C@_0BE@BKFECOID@Ex_SetDrawFixedLine@
CONST	SEGMENT
??_C@_0BE@BKFECOID@Ex_SetDrawFixedLine@ DB 'Ex_SetDrawFixedLine', 00H ; `string'
CONST	ENDS
;	COMDAT ??_C@_0BD@BMDMKIH@Ex_GetUseFocusRect@
CONST	SEGMENT
??_C@_0BD@BMDMKIH@Ex_GetUseFocusRect@ DB 'Ex_GetUseFocusRect', 00H ; `string'
CONST	ENDS
;	COMDAT ??_C@_0BD@DDNFLIJO@Ex_SetUseFocusRect@
CONST	SEGMENT
??_C@_0BD@DDNFLIJO@Ex_SetUseFocusRect@ DB 'Ex_SetUseFocusRect', 00H ; `string'
CONST	ENDS
;	COMDAT ??_C@_0BL@OADPEDKM@Ex_SetGridScrollBarVisible@
CONST	SEGMENT
??_C@_0BL@OADPEDKM@Ex_SetGridScrollBarVisible@ DB 'Ex_SetGridScrollBarVis'
	DB	'ible', 00H					; `string'
CONST	ENDS
;	COMDAT ??_C@_0BG@HFPMNLJD@Ex_SetDefaultCellType@
CONST	SEGMENT
??_C@_0BG@HFPMNLJD@Ex_SetDefaultCellType@ DB 'Ex_SetDefaultCellType', 00H ; `string'
CONST	ENDS
;	COMDAT ??_C@_0BH@PMEHONMN@Ex_GetMouseScrollLines@
CONST	SEGMENT
??_C@_0BH@PMEHONMN@Ex_GetMouseScrollLines@ DB 'Ex_GetMouseScrollLines', 00H ; `string'
CONST	ENDS
;	COMDAT ??_C@_0BE@HFBOPFGB@Ex_OnEndInPlaceEdit@
CONST	SEGMENT
??_C@_0BE@HFBOPFGB@Ex_OnEndInPlaceEdit@ DB 'Ex_OnEndInPlaceEdit', 00H ; `string'
CONST	ENDS
;	COMDAT ??_C@_0N@FDGOGOCK@Ex_OnImeChar@
CONST	SEGMENT
??_C@_0N@FDGOGOCK@Ex_OnImeChar@ DB 'Ex_OnImeChar', 00H	; `string'
CONST	ENDS
;	COMDAT ??_C@_0N@LFLALEDD@Ex_OnGetFont@
CONST	SEGMENT
??_C@_0N@LFLALEDD@Ex_OnGetFont@ DB 'Ex_OnGetFont', 00H	; `string'
CONST	ENDS
;	COMDAT ??_C@_0N@ENEBILOC@Ex_OnSetFont@
CONST	SEGMENT
??_C@_0N@ENEBILOC@Ex_OnSetFont@ DB 'Ex_OnSetFont', 00H	; `string'
CONST	ENDS
;	COMDAT ??_C@_0BA@OLIHFLKC@Ex_OnMouseWheel@
CONST	SEGMENT
??_C@_0BA@OLIHFLKC@Ex_OnMouseWheel@ DB 'Ex_OnMouseWheel', 00H ; `string'
CONST	ENDS
;	COMDAT ??_C@_0BD@PCIBNAMK@Ex_OnSettingChange@
CONST	SEGMENT
??_C@_0BD@PCIBNAMK@Ex_OnSettingChange@ DB 'Ex_OnSettingChange', 00H ; `string'
CONST	ENDS
;	COMDAT ??_C@_0BF@DGPKFOGC@Ex_OnUpdateEditPaste@
CONST	SEGMENT
??_C@_0BF@DGPKFOGC@Ex_OnUpdateEditPaste@ DB 'Ex_OnUpdateEditPaste', 00H ; `string'
CONST	ENDS
;	COMDAT ??_C@_0BD@OMOBBFMG@Ex_OnUpdateEditCut@
CONST	SEGMENT
??_C@_0BD@OMOBBFMG@Ex_OnUpdateEditCut@ DB 'Ex_OnUpdateEditCut', 00H ; `string'
CONST	ENDS
;	COMDAT ??_C@_0BE@LELLFLAI@Ex_OnUpdateEditCopy@
CONST	SEGMENT
??_C@_0BE@LELLFLAI@Ex_OnUpdateEditCopy@ DB 'Ex_OnUpdateEditCopy', 00H ; `string'
CONST	ENDS
;	COMDAT ??_C@_0BE@FACNGBPD@Ex_OnCaptureChanged@
CONST	SEGMENT
??_C@_0BE@FACNGBPD@Ex_OnCaptureChanged@ DB 'Ex_OnCaptureChanged', 00H ; `string'
CONST	ENDS
;	COMDAT ??_C@_0BE@DKNKJKBA@Ex_OnSysColorChange@
CONST	SEGMENT
??_C@_0BE@DKNKJKBA@Ex_OnSysColorChange@ DB 'Ex_OnSysColorChange', 00H ; `string'
CONST	ENDS
;	COMDAT ??_C@_0P@MCLLEPII@Ex_OnRButtonUp@
CONST	SEGMENT
??_C@_0P@MCLLEPII@Ex_OnRButtonUp@ DB 'Ex_OnRButtonUp', 00H ; `string'
CONST	ENDS
;	COMDAT ??_C@_0BB@OKADENPO@Ex_OnRButtonDown@
CONST	SEGMENT
??_C@_0BB@OKADENPO@Ex_OnRButtonDown@ DB 'Ex_OnRButtonDown', 00H ; `string'
CONST	ENDS
;	COMDAT ??_C@_0P@IABCFNIO@Ex_OnSetCursor@
CONST	SEGMENT
??_C@_0P@IABCFNIO@Ex_OnSetCursor@ DB 'Ex_OnSetCursor', 00H ; `string'
CONST	ENDS
;	COMDAT ??_C@_0BJ@HFCLHCML@Ex_OnUpdateEditSelectAll@
CONST	SEGMENT
??_C@_0BJ@HFCLHCML@Ex_OnUpdateEditSelectAll@ DB 'Ex_OnUpdateEditSelectAll'
	DB	00H						; `string'
CONST	ENDS
;	COMDAT ??_C@_0BB@IHLBDHNK@Ex_OnContextMenu@
CONST	SEGMENT
??_C@_0BB@IHLBDHNK@Ex_OnContextMenu@ DB 'Ex_OnContextMenu', 00H ; `string'
CONST	ENDS
;	COMDAT ??_C@_0BA@GDDLCHDJ@Ex_OnSysKeyDown@
CONST	SEGMENT
??_C@_0BA@GDDLCHDJ@Ex_OnSysKeyDown@ DB 'Ex_OnSysKeyDown', 00H ; `string'
CONST	ENDS
;	COMDAT ??_C@_0BA@IAGOHFI@Ex_OnEraseBkgnd@
CONST	SEGMENT
??_C@_0BA@IAGOHFI@Ex_OnEraseBkgnd@ DB 'Ex_OnEraseBkgnd', 00H ; `string'
CONST	ENDS
;	COMDAT ??_C@_0BD@BBEJDAHH@Ex_OnLButtonDblClk@
CONST	SEGMENT
??_C@_0BD@BBEJDAHH@Ex_OnLButtonDblClk@ DB 'Ex_OnLButtonDblClk', 00H ; `string'
CONST	ENDS
;	COMDAT ??_C@_09JGPLPHGG@Ex_OnChar@
CONST	SEGMENT
??_C@_09JGPLPHGG@Ex_OnChar@ DB 'Ex_OnChar', 00H		; `string'
CONST	ENDS
;	COMDAT ??_C@_0L@DHBECPKF@Ex_OnKeyUp@
CONST	SEGMENT
??_C@_0L@DHBECPKF@Ex_OnKeyUp@ DB 'Ex_OnKeyUp', 00H	; `string'
CONST	ENDS
;	COMDAT ??_C@_0N@IHJLIDOG@Ex_OnKeyDown@
CONST	SEGMENT
??_C@_0N@IHJLIDOG@Ex_OnKeyDown@ DB 'Ex_OnKeyDown', 00H	; `string'
CONST	ENDS
;	COMDAT ??_C@_0BA@BODHLALJ@Ex_OnGetDlgCode@
CONST	SEGMENT
??_C@_0BA@BODHLALJ@Ex_OnGetDlgCode@ DB 'Ex_OnGetDlgCode', 00H ; `string'
CONST	ENDS
;	COMDAT ??_C@_0L@MJECDFDA@Ex_OnTimer@
CONST	SEGMENT
??_C@_0L@MJECDFDA@Ex_OnTimer@ DB 'Ex_OnTimer', 00H	; `string'
CONST	ENDS
;	COMDAT ??_C@_0P@GEIOBKAF@Ex_OnMouseMove@
CONST	SEGMENT
??_C@_0P@GEIOBKAF@Ex_OnMouseMove@ DB 'Ex_OnMouseMove', 00H ; `string'
CONST	ENDS
;	COMDAT ??_C@_0BB@PCKHDBM@Ex_OnLButtonDown@
CONST	SEGMENT
??_C@_0BB@PCKHDBM@Ex_OnLButtonDown@ DB 'Ex_OnLButtonDown', 00H ; `string'
CONST	ENDS
;	COMDAT ??_C@_0P@PLNMPOND@Ex_OnLButtonUp@
CONST	SEGMENT
??_C@_0P@PLNMPOND@Ex_OnLButtonUp@ DB 'Ex_OnLButtonUp', 00H ; `string'
CONST	ENDS
;	COMDAT ??_C@_09FLFHMPIG@Ex_OnSize@
CONST	SEGMENT
??_C@_09FLFHMPIG@Ex_OnSize@ DB 'Ex_OnSize', 00H		; `string'
CONST	ENDS
;	COMDAT ??_C@_0N@FPPHFLM@Ex_OnVScroll@
CONST	SEGMENT
??_C@_0N@FPPHFLM@Ex_OnVScroll@ DB 'Ex_OnVScroll', 00H	; `string'
CONST	ENDS
;	COMDAT ??_C@_0N@GMMOFGKF@Ex_OnHScroll@
CONST	SEGMENT
??_C@_0N@GMMOFGKF@Ex_OnHScroll@ DB 'Ex_OnHScroll', 00H	; `string'
CONST	ENDS
;	COMDAT ??_C@_0L@LHMOODNH@Ex_OnPaint@
CONST	SEGMENT
??_C@_0L@LHMOODNH@Ex_OnPaint@ DB 'Ex_OnPaint', 00H	; `string'
CONST	ENDS
;	COMDAT ??_C@_0P@NADNFEEI@Ex_OnSelecting@
CONST	SEGMENT
??_C@_0P@NADNFEEI@Ex_OnSelecting@ DB 'Ex_OnSelecting', 00H ; `string'
CONST	ENDS
;	COMDAT ??_C@_0P@DLKHGHBP@Ex_SelectCells@
CONST	SEGMENT
??_C@_0P@DLKHGHBP@Ex_SelectCells@ DB 'Ex_SelectCells', 00H ; `string'
CONST	ENDS
;	COMDAT ??_C@_0O@OPFPOLPP@Ex_SelectRows@
CONST	SEGMENT
??_C@_0O@OPFPOLPP@Ex_SelectRows@ DB 'Ex_SelectRows', 00H ; `string'
CONST	ENDS
;	COMDAT ??_C@_0BB@CBJBIHMM@Ex_SelectColumns@
CONST	SEGMENT
??_C@_0BB@CBJBIHMM@Ex_SelectColumns@ DB 'Ex_SelectColumns', 00H ; `string'
CONST	ENDS
;	COMDAT ??_C@_0BC@GJLIJJPL@Ex_SelectAllCells@
CONST	SEGMENT
??_C@_0BC@GJLIJJPL@Ex_SelectAllCells@ DB 'Ex_SelectAllCells', 00H ; `string'
CONST	ENDS
;	COMDAT ??_C@_0P@KAMDKJMB@Ex_DestroyCell@
CONST	SEGMENT
??_C@_0P@KAMDKJMB@Ex_DestroyCell@ DB 'Ex_DestroyCell', 00H ; `string'
CONST	ENDS
;	COMDAT ??_C@_0O@CJNFGCCD@Ex_CreateCell@
CONST	SEGMENT
??_C@_0O@CJNFGCCD@Ex_CreateCell@ DB 'Ex_CreateCell', 00H ; `string'
CONST	ENDS
;	COMDAT ??_C@_09GGAIGIMI@Ex_OnDraw@
CONST	SEGMENT
??_C@_09GGAIGIMI@Ex_OnDraw@ DB 'Ex_OnDraw', 00H		; `string'
CONST	ENDS
;	COMDAT ??_C@_0O@DPAODLNH@Ex_EndEditing@
CONST	SEGMENT
??_C@_0O@DPAODLNH@Ex_EndEditing@ DB 'Ex_EndEditing', 00H ; `string'
CONST	ENDS
;	COMDAT ??_C@_0BA@OHFPPEOE@Ex_ValidateEdit@
CONST	SEGMENT
??_C@_0BA@OHFPPEOE@Ex_ValidateEdit@ DB 'Ex_ValidateEdit', 00H ; `string'
CONST	ENDS
;	COMDAT ??_C@_0BB@KNNNFNFB@Ex_OnEndEditCell@
CONST	SEGMENT
??_C@_0BB@KNNNFNFB@Ex_OnEndEditCell@ DB 'Ex_OnEndEditCell', 00H ; `string'
CONST	ENDS
;	COMDAT ??_C@_0O@BKMPDBHF@Ex_OnEditCell@
CONST	SEGMENT
??_C@_0O@BKMPDBHF@Ex_OnEditCell@ DB 'Ex_OnEditCell', 00H ; `string'
CONST	ENDS
;	COMDAT ??_C@_0BD@MDMMMDJH@Ex_OnFixedRowClick@
CONST	SEGMENT
??_C@_0BD@MDMMMDJH@Ex_OnFixedRowClick@ DB 'Ex_OnFixedRowClick', 00H ; `string'
CONST	ENDS
;	COMDAT ??_C@_0BG@KJLGFONO@Ex_OnFixedColumnClick@
CONST	SEGMENT
??_C@_0BG@KJLGFONO@Ex_OnFixedColumnClick@ DB 'Ex_OnFixedColumnClick', 00H ; `string'
CONST	ENDS
;	COMDAT ??_C@_0BD@PEEIENPP@Ex_CreateDragImage@
CONST	SEGMENT
??_C@_0BD@PEEIENPP@Ex_CreateDragImage@ DB 'Ex_CreateDragImage', 00H ; `string'
CONST	ENDS
;	COMDAT ??_C@_0O@GGJGHEIK@Ex_WindowProc@
CONST	SEGMENT
??_C@_0O@GGJGHEIK@Ex_WindowProc@ DB 'Ex_WindowProc', 00H ; `string'
CONST	ENDS
;	COMDAT ??_C@_0BF@NICANNDI@Ex_PreSubclassWindow@
CONST	SEGMENT
??_C@_0BF@NICANNDI@Ex_PreSubclassWindow@ DB 'Ex_PreSubclassWindow', 00H ; `string'
CONST	ENDS
;	COMDAT ??_C@_0CB@BFOICKEE@Ex_ValidateAndModifyCellContent@
CONST	SEGMENT
??_C@_0CB@BFOICKEE@Ex_ValidateAndModifyCellContent@ DB 'Ex_ValidateAndMod'
	DB	'ifyCellContents', 00H			; `string'
CONST	ENDS
;	COMDAT ??_C@_0BD@PGFHMGPG@Ex_GetPointClicked@
CONST	SEGMENT
??_C@_0BD@PGFHMGPG@Ex_GetPointClicked@ DB 'Ex_GetPointClicked', 00H ; `string'
CONST	ENDS
;	COMDAT ??_C@_0O@JNLPOHG@Ex_SortItems3@
CONST	SEGMENT
??_C@_0O@JNLPOHG@Ex_SortItems3@ DB 'Ex_SortItems3', 00H	; `string'
CONST	ENDS
;	COMDAT ??_C@_0BC@FNGHENME@Ex_SortTextItems3@
CONST	SEGMENT
??_C@_0BC@FNGHENME@Ex_SortTextItems3@ DB 'Ex_SortTextItems3', 00H ; `string'
CONST	ENDS
;	COMDAT ??_C@_0BC@HCIPGOEK@Ex_SetScrollPos32@
CONST	SEGMENT
??_C@_0BC@HCIPGOEK@Ex_SetScrollPos32@ DB 'Ex_SetScrollPos32', 00H ; `string'
CONST	ENDS
;	COMDAT ??_C@_0BC@LMJBJEGG@Ex_GetScrollPos32@
CONST	SEGMENT
??_C@_0BC@LMJBJEGG@Ex_GetScrollPos32@ DB 'Ex_GetScrollPos32', 00H ; `string'
CONST	ENDS
;	COMDAT ??_C@_0BE@DCHPMGFI@Ex_EnableScrollBars@
CONST	SEGMENT
??_C@_0BE@DCHPMGFI@Ex_EnableScrollBars@ DB 'Ex_EnableScrollBars', 00H ; `string'
CONST	ENDS
;	COMDAT ??_C@_0BD@FFPLEIML@Ex_ResetScrollBars@
CONST	SEGMENT
??_C@_0BD@FFPLEIML@Ex_ResetScrollBars@ DB 'Ex_ResetScrollBars', 00H ; `string'
CONST	ENDS
;	COMDAT ??_C@_0BG@PMKJNCHJ@Ex_ResetSelectedRange@
CONST	SEGMENT
??_C@_0BG@PMKJNCHJ@Ex_ResetSelectedRange@ DB 'Ex_ResetSelectedRange', 00H ; `string'
CONST	ENDS
;	COMDAT ??_C@_0BE@NAHFNKBP@Ex_IsVisibleHScroll@
CONST	SEGMENT
??_C@_0BE@NAHFNKBP@Ex_IsVisibleHScroll@ DB 'Ex_IsVisibleHScroll', 00H ; `string'
CONST	ENDS
;	COMDAT ??_C@_0BE@LJEEPJAG@Ex_IsVisibleVScroll@
CONST	SEGMENT
??_C@_0BE@LJEEPJAG@Ex_IsVisibleVScroll@ DB 'Ex_IsVisibleVScroll', 00H ; `string'
CONST	ENDS
;	COMDAT ??_C@_0BP@FKHJKLB@Ex_GetVisibleNonFixedCellRange@
CONST	SEGMENT
??_C@_0BP@FKHJKLB@Ex_GetVisibleNonFixedCellRange@ DB 'Ex_GetVisibleNonFix'
	DB	'edCellRange', 00H				; `string'
CONST	ENDS
;	COMDAT ??_C@_0CE@IHAFBCPB@Ex_GetUnobstructedNonFixedCellR@
CONST	SEGMENT
??_C@_0CE@IHAFBCPB@Ex_GetUnobstructedNonFixedCellR@ DB 'Ex_GetUnobstructe'
	DB	'dNonFixedCellRange', 00H			; `string'
CONST	ENDS
;	COMDAT ??_C@_0BK@ECLDPOEH@Ex_GetTopleftNonFixedCell@
CONST	SEGMENT
??_C@_0BK@ECLDPOEH@Ex_GetTopleftNonFixedCell@ DB 'Ex_GetTopleftNonFixedCe'
	DB	'll', 00H					; `string'
CONST	ENDS
;	COMDAT ??_C@_0BN@DBMIOGKB@Ex_MouseOverColumnResizeArea@
CONST	SEGMENT
??_C@_0BN@DBMIOGKB@Ex_MouseOverColumnResizeArea@ DB 'Ex_MouseOverColumnRe'
	DB	'sizeArea', 00H				; `string'
CONST	ENDS
;	COMDAT ??_C@_0BK@EGAFPHHK@Ex_MouseOverRowResizeArea@
CONST	SEGMENT
??_C@_0BK@EGAFPHHK@Ex_MouseOverRowResizeArea@ DB 'Ex_MouseOverRowResizeAr'
	DB	'ea', 00H					; `string'
CONST	ENDS
;	COMDAT ??_C@_0BA@NMDINFOB@Ex_GetMouseMode@
CONST	SEGMENT
??_C@_0BA@NMDINFOB@Ex_GetMouseMode@ DB 'Ex_GetMouseMode', 00H ; `string'
CONST	ENDS
;	COMDAT ??_C@_0BA@KIIGBJKN@Ex_SetMouseMode@
CONST	SEGMENT
??_C@_0BA@KIIGBJKN@Ex_SetMouseMode@ DB 'Ex_SetMouseMode', 00H ; `string'
CONST	ENDS
;	COMDAT ??_C@_0L@HCKIFLIC@Ex_SetCell@
CONST	SEGMENT
??_C@_0L@HCKIFLIC@Ex_SetCell@ DB 'Ex_SetCell', 00H	; `string'
CONST	ENDS
;	COMDAT ??_C@_0BE@HMEBIHKA@Ex_GetCellRangeRect@
CONST	SEGMENT
??_C@_0BE@HMEBIHKA@Ex_GetCellRangeRect@ DB 'Ex_GetCellRangeRect', 00H ; `string'
CONST	ENDS
;	COMDAT ??_C@_0O@OJPHJPOG@Ex_EraseBkgnd@
CONST	SEGMENT
??_C@_0O@OJPHJPOG@Ex_EraseBkgnd@ DB 'Ex_EraseBkgnd', 00H ; `string'
CONST	ENDS
;	COMDAT ??_C@_0BH@GPGGDJBE@Ex_InvalidateCellRect3@
CONST	SEGMENT
??_C@_0BH@GPGGDJBE@Ex_InvalidateCellRect3@ DB 'Ex_InvalidateCellRect3', 00H ; `string'
CONST	ENDS
;	COMDAT ??_C@_0BH@HGHNAIFF@Ex_InvalidateCellRect2@
CONST	SEGMENT
??_C@_0BH@HGHNAIFF@Ex_InvalidateCellRect2@ DB 'Ex_InvalidateCellRect2', 00H ; `string'
CONST	ENDS
;	COMDAT ??_C@_0BG@GJJOJEMA@Ex_InvalidateCellRect@
CONST	SEGMENT
??_C@_0BG@GJJOJEMA@Ex_InvalidateCellRect@ DB 'Ex_InvalidateCellRect', 00H ; `string'
CONST	ENDS
;	COMDAT ??_C@_0BJ@CKKJCBFA@Ex_SendCacheHintToParent@
CONST	SEGMENT
??_C@_0BJ@CKKJCBFA@Ex_SendCacheHintToParent@ DB 'Ex_SendCacheHintToParent'
	DB	00H						; `string'
CONST	ENDS
;	COMDAT ??_C@_0BO@JMHDGLFK@Ex_SendDisplayRequestToParent@
CONST	SEGMENT
??_C@_0BO@JMHDGLFK@Ex_SendDisplayRequestToParent@ DB 'Ex_SendDisplayReque'
	DB	'stToParent', 00H				; `string'
CONST	ENDS
;	COMDAT ??_C@_0BH@BJMGKDEJ@Ex_SendMessageToParent@
CONST	SEGMENT
??_C@_0BH@BJMGKDEJ@Ex_SendMessageToParent@ DB 'Ex_SendMessageToParent', 00H ; `string'
CONST	ENDS
;	COMDAT ??_C@_0BF@CHBCJKNB@Ex_SetupDefaultCells@
CONST	SEGMENT
??_C@_0BF@CHBCJKNB@Ex_SetupDefaultCells@ DB 'Ex_SetupDefaultCells', 00H ; `string'
CONST	ENDS
;	COMDAT ??_C@_0O@HGOAHAOL@Ex_Initialise@
CONST	SEGMENT
??_C@_0O@HGOAHAOL@Ex_Initialise@ DB 'Ex_Initialise', 00H ; `string'
CONST	ENDS
;	COMDAT ??_C@_0BH@MNDJECPI@Ex_RegisterWindowClass@
CONST	SEGMENT
??_C@_0BH@MNDJECPI@Ex_RegisterWindowClass@ DB 'Ex_RegisterWindowClass', 00H ; `string'
CONST	ENDS
;	COMDAT ??_C@_0BG@MHOCFLFP@Ex_SetCompareFunction@
CONST	SEGMENT
??_C@_0BG@MHOCFLFP@Ex_SetCompareFunction@ DB 'Ex_SetCompareFunction', 00H ; `string'
CONST	ENDS
;	COMDAT ??_C@_0O@BAMAMPDH@Ex_SortItems2@
CONST	SEGMENT
??_C@_0O@BAMAMPDH@Ex_SortItems2@ DB 'Ex_SortItems2', 00H ; `string'
CONST	ENDS
;	COMDAT ??_C@_0BC@EEHMHMIF@Ex_SortTextItems2@
CONST	SEGMENT
??_C@_0BC@EEHMHMIF@Ex_SortTextItems2@ DB 'Ex_SortTextItems2', 00H ; `string'
CONST	ENDS
;	COMDAT ??_C@_0O@DLONJMPE@Ex_SortItems1@
CONST	SEGMENT
??_C@_0O@DLONJMPE@Ex_SortItems1@ DB 'Ex_SortItems1', 00H ; `string'
CONST	ENDS
;	COMDAT ??_C@_0P@FCNIIBDN@Ex_GetNextItem@
CONST	SEGMENT
??_C@_0P@FCNIIBDN@Ex_GetNextItem@ DB 'Ex_GetNextItem', 00H ; `string'
CONST	ENDS
;	COMDAT ??_C@_0BD@MIFCANKK@Ex_OnEditSelectAll@
CONST	SEGMENT
??_C@_0BD@MIFCANKK@Ex_OnEditSelectAll@ DB 'Ex_OnEditSelectAll', 00H ; `string'
CONST	ENDS
;	COMDAT ??_C@_0P@FCHCLGJE@Ex_OnEditPaste@
CONST	SEGMENT
??_C@_0P@FCHCLGJE@Ex_OnEditPaste@ DB 'Ex_OnEditPaste', 00H ; `string'
CONST	ENDS
;	COMDAT ??_C@_0O@FHPLGNBB@Ex_OnEditCopy@
CONST	SEGMENT
??_C@_0O@FHPLGNBB@Ex_OnEditCopy@ DB 'Ex_OnEditCopy', 00H ; `string'
CONST	ENDS
;	COMDAT ??_C@_0N@MPNMBOEO@Ex_OnEditCut@
CONST	SEGMENT
??_C@_0N@MPNMBOEO@Ex_OnEditCut@ DB 'Ex_OnEditCut', 00H	; `string'
CONST	ENDS
;	COMDAT ??_C@_09CDNHNDAF@Ex_OnDrop@
CONST	SEGMENT
??_C@_09CDNHNDAF@Ex_OnDrop@ DB 'Ex_OnDrop', 00H		; `string'
CONST	ENDS
;	COMDAT ??_C@_0P@JPLJFEON@Ex_OnDragLeave@
CONST	SEGMENT
??_C@_0P@JPLJFEON@Ex_OnDragLeave@ DB 'Ex_OnDragLeave', 00H ; `string'
CONST	ENDS
;	COMDAT ??_C@_0O@FNABDCOI@Ex_OnDragOver@
CONST	SEGMENT
??_C@_0O@FNABDCOI@Ex_OnDragOver@ DB 'Ex_OnDragOver', 00H ; `string'
CONST	ENDS
;	COMDAT ??_C@_0P@LDECAKCG@Ex_OnDragEnter@
CONST	SEGMENT
??_C@_0P@LDECAKCG@Ex_OnDragEnter@ DB 'Ex_OnDragEnter', 00H ; `string'
CONST	ENDS
;	COMDAT ??_C@_0P@BDGAPEEH@Ex_OnBeginDrag@
CONST	SEGMENT
??_C@_0P@BDGAPEEH@Ex_OnBeginDrag@ DB 'Ex_OnBeginDrag', 00H ; `string'
CONST	ENDS
;	COMDAT ??_C@_0BD@LEHFDCLN@Ex_PasteTextToGrid@
CONST	SEGMENT
??_C@_0BD@LEHFDCLN@Ex_PasteTextToGrid@ DB 'Ex_PasteTextToGrid', 00H ; `string'
CONST	ENDS
;	COMDAT ??_C@_0BE@CDOOMMLN@Ex_CopyTextFromGrid@
CONST	SEGMENT
??_C@_0BE@CDOOMMLN@Ex_CopyTextFromGrid@ DB 'Ex_CopyTextFromGrid', 00H ; `string'
CONST	ENDS
;	COMDAT ??_C@_0BD@HLADNECC@Ex_CutSelectedText@
CONST	SEGMENT
??_C@_0BD@HLADNECC@Ex_CutSelectedText@ DB 'Ex_CutSelectedText', 00H ; `string'
CONST	ENDS
;	COMDAT ??_C@_0M@FCAOJAFH@Ex_IsValid3@
CONST	SEGMENT
??_C@_0M@FCAOJAFH@Ex_IsValid3@ DB 'Ex_IsValid3', 00H	; `string'
CONST	ENDS
;	COMDAT ??_C@_0M@ELBFKBBG@Ex_IsValid2@
CONST	SEGMENT
??_C@_0M@ELBFKBBG@Ex_IsValid2@ DB 'Ex_IsValid2', 00H	; `string'
CONST	ENDS
;	COMDAT ??_C@_0L@NJKCAAKF@Ex_IsValid@
CONST	SEGMENT
??_C@_0L@NJKCAAKF@Ex_IsValid@ DB 'Ex_IsValid', 00H	; `string'
CONST	ENDS
;	COMDAT ??_C@_0BF@OJNPFOEO@Ex_SetSelectedRange2@
CONST	SEGMENT
??_C@_0BF@OJNPFOEO@Ex_SetSelectedRange2@ DB 'Ex_SetSelectedRange2', 00H ; `string'
CONST	ENDS
;	COMDAT ??_C@_0BE@HECMCKIG@Ex_SetSelectedRange@
CONST	SEGMENT
??_C@_0BE@HECMCKIG@Ex_SetSelectedRange@ DB 'Ex_SetSelectedRange', 00H ; `string'
CONST	ENDS
;	COMDAT ??_C@_0BI@CMMIKBMP@Ex_GetSelectedCellRange@
CONST	SEGMENT
??_C@_0BI@CMMIKBMP@Ex_GetSelectedCellRange@ DB 'Ex_GetSelectedCellRange', 00H ; `string'
CONST	ENDS
;	COMDAT ??_C@_0BA@CAJIFMH@Ex_GetCellRange@
CONST	SEGMENT
??_C@_0BA@CAJIFMH@Ex_GetCellRange@ DB 'Ex_GetCellRange', 00H ; `string'
CONST	ENDS
;	COMDAT ??_C@_07GPDNJFNI@Ex_Load@
CONST	SEGMENT
??_C@_07GPDNJFNI@Ex_Load@ DB 'Ex_Load', 00H		; `string'
CONST	ENDS
;	COMDAT ??_C@_07GNCAGGAM@Ex_Save@
CONST	SEGMENT
??_C@_07GNCAGGAM@Ex_Save@ DB 'Ex_Save', 00H		; `string'
CONST	ENDS
;	COMDAT ??_C@_0BA@OOCBNEIG@Ex_RedrawColumn@
CONST	SEGMENT
??_C@_0BA@OOCBNEIG@Ex_RedrawColumn@ DB 'Ex_RedrawColumn', 00H ; `string'
CONST	ENDS
;	COMDAT ??_C@_0N@NHMBPMNF@Ex_RedrawRow@
CONST	SEGMENT
??_C@_0N@NHMBPMNF@Ex_RedrawRow@ DB 'Ex_RedrawRow', 00H	; `string'
CONST	ENDS
;	COMDAT ??_C@_0P@OBNLCHJI@Ex_RedrawCell2@
CONST	SEGMENT
??_C@_0P@OBNLCHJI@Ex_RedrawCell2@ DB 'Ex_RedrawCell2', 00H ; `string'
CONST	ENDS
;	COMDAT ??_C@_0O@BNGINBML@Ex_RedrawCell@
CONST	SEGMENT
??_C@_0O@BNGINBML@Ex_RedrawCell@ DB 'Ex_RedrawCell', 00H ; `string'
CONST	ENDS
;	COMDAT ??_C@_0N@JNHILCCM@Ex_SetRedraw@
CONST	SEGMENT
??_C@_0N@JNHILCCM@Ex_SetRedraw@ DB 'Ex_SetRedraw', 00H	; `string'
CONST	ENDS
;	COMDAT ??_C@_0BD@IPBGFAKL@Ex_IsCellSelected2@
CONST	SEGMENT
??_C@_0BD@IPBGFAKL@Ex_IsCellSelected2@ DB 'Ex_IsCellSelected2', 00H ; `string'
CONST	ENDS
;	COMDAT ??_C@_0BC@LLBJAFFM@Ex_IsCellSelected@
CONST	SEGMENT
??_C@_0BC@LLBJAFFM@Ex_IsCellSelected@ DB 'Ex_IsCellSelected', 00H ; `string'
CONST	ENDS
;	COMDAT ??_C@_0BD@OFDGMKMN@Ex_IsCellEditable2@
CONST	SEGMENT
??_C@_0BD@OFDGMKMN@Ex_IsCellEditable2@ DB 'Ex_IsCellEditable2', 00H ; `string'
CONST	ENDS
;	COMDAT ??_C@_0BC@CLKDJBEN@Ex_IsCellEditable@
CONST	SEGMENT
??_C@_0BC@CLKDJBEN@Ex_IsCellEditable@ DB 'Ex_IsCellEditable', 00H ; `string'
CONST	ENDS
;	COMDAT ??_C@_0BC@EFJNFBC@Ex_IsCellVisible2@
CONST	SEGMENT
??_C@_0BC@EFJNFBC@Ex_IsCellVisible2@ DB 'Ex_IsCellVisible2', 00H ; `string'
CONST	ENDS
;	COMDAT ??_C@_0BB@EKCEFGAG@Ex_IsCellVisible@
CONST	SEGMENT
??_C@_0BB@EKCEFGAG@Ex_IsCellVisible@ DB 'Ex_IsCellVisible', 00H ; `string'
CONST	ENDS
;	COMDAT ??_C@_0BC@JLBAPEBF@Ex_EnsureVisible2@
CONST	SEGMENT
??_C@_0BC@JLBAPEBF@Ex_EnsureVisible2@ DB 'Ex_EnsureVisible2', 00H ; `string'
CONST	ENDS
;	COMDAT ??_C@_0BB@LMOBPEEA@Ex_EnsureVisible@
CONST	SEGMENT
??_C@_0BB@LMOBPEEA@Ex_EnsureVisible@ DB 'Ex_EnsureVisible', 00H ; `string'
CONST	ENDS
;	COMDAT ??_C@_0M@PFNAFFIL@Ex_AutoFill@
CONST	SEGMENT
??_C@_0M@PFNAFFIL@Ex_AutoFill@ DB 'Ex_AutoFill', 00H	; `string'
CONST	ENDS
;	COMDAT ??_C@_0L@BPELEIPD@Ex_Refresh@
CONST	SEGMENT
??_C@_0L@BPELEIPD@Ex_Refresh@ DB 'Ex_Refresh', 00H	; `string'
CONST	ENDS
;	COMDAT ??_C@_0P@PDCDCOEO@Ex_ExpandToFit@
CONST	SEGMENT
??_C@_0P@PDCDCOEO@Ex_ExpandToFit@ DB 'Ex_ExpandToFit', 00H ; `string'
CONST	ENDS
;	COMDAT ??_C@_0BD@PKDGNOBB@Ex_ExpandRowsToFit@
CONST	SEGMENT
??_C@_0BD@PKDGNOBB@Ex_ExpandRowsToFit@ DB 'Ex_ExpandRowsToFit', 00H ; `string'
CONST	ENDS
;	COMDAT ??_C@_0BE@EGEDCFD@Ex_ExpandLastColumn@
CONST	SEGMENT
??_C@_0BE@EGEDCFD@Ex_ExpandLastColumn@ DB 'Ex_ExpandLastColumn', 00H ; `string'
CONST	ENDS
;	COMDAT ??_C@_0BG@INCAPNJM@Ex_ExpandColumnsToFit@
CONST	SEGMENT
??_C@_0BG@INCAPNJM@Ex_ExpandColumnsToFit@ DB 'Ex_ExpandColumnsToFit', 00H ; `string'
CONST	ENDS
;	COMDAT ??_C@_0M@JELJCJPC@Ex_AutoSize@
CONST	SEGMENT
??_C@_0M@JELJCJPC@Ex_AutoSize@ DB 'Ex_AutoSize', 00H	; `string'
CONST	ENDS
;	COMDAT ??_C@_0BD@OHEINJMF@Ex_AutoSizeColumns@
CONST	SEGMENT
??_C@_0BD@OHEINJMF@Ex_AutoSizeColumns@ DB 'Ex_AutoSizeColumns', 00H ; `string'
CONST	ENDS
;	COMDAT ??_C@_0BA@KNKMMOPB@Ex_AutoSizeRows@
CONST	SEGMENT
??_C@_0BA@KNKMMOPB@Ex_AutoSizeRows@ DB 'Ex_AutoSizeRows', 00H ; `string'
CONST	ENDS
;	COMDAT ??_C@_0BC@DJPIOCII@Ex_AutoSizeColumn@
CONST	SEGMENT
??_C@_0BC@DJPIOCII@Ex_AutoSizeColumn@ DB 'Ex_AutoSizeColumn', 00H ; `string'
CONST	ENDS
;	COMDAT ??_C@_0P@CEKJHOM@Ex_AutoSizeRow@
CONST	SEGMENT
??_C@_0P@CEKJHOM@Ex_AutoSizeRow@ DB 'Ex_AutoSizeRow', 00H ; `string'
CONST	ENDS
;	COMDAT ??_C@_0O@FMEEJLNJ@Ex_ClearCells@
CONST	SEGMENT
??_C@_0O@FMEEJLNJ@Ex_ClearCells@ DB 'Ex_ClearCells', 00H ; `string'
CONST	ENDS
;	COMDAT ??_C@_0BC@HJKLIKNJ@Ex_DeleteAllItems@
CONST	SEGMENT
??_C@_0BC@HJKLIKNJ@Ex_DeleteAllItems@ DB 'Ex_DeleteAllItems', 00H ; `string'
CONST	ENDS
;	COMDAT ??_C@_0BG@MJGKPDPA@Ex_DeleteNonFixedRows@
CONST	SEGMENT
??_C@_0BG@MJGKPDPA@Ex_DeleteNonFixedRows@ DB 'Ex_DeleteNonFixedRows', 00H ; `string'
CONST	ENDS
;	COMDAT ??_C@_0N@MFNGODEF@Ex_DeleteRow@
CONST	SEGMENT
??_C@_0N@MFNGODEF@Ex_DeleteRow@ DB 'Ex_DeleteRow', 00H	; `string'
CONST	ENDS
;	COMDAT ??_C@_0BA@FNLLOHDN@Ex_DeleteColumn@
CONST	SEGMENT
??_C@_0BA@FNLLOHDN@Ex_DeleteColumn@ DB 'Ex_DeleteColumn', 00H ; `string'
CONST	ENDS
;	COMDAT ??_C@_0N@JMDPIIIA@Ex_InsertRow@
CONST	SEGMENT
??_C@_0N@JMDPIIIA@Ex_InsertRow@ DB 'Ex_InsertRow', 00H	; `string'
CONST	ENDS
;	COMDAT ??_C@_0BA@JFAAFLHP@Ex_InsertColumn@
CONST	SEGMENT
??_C@_0BA@JFAAFLHP@Ex_InsertColumn@ DB 'Ex_InsertColumn', 00H ; `string'
CONST	ENDS
;	COMDAT ??_C@_0P@GILDOILP@Ex_SetCellType@
CONST	SEGMENT
??_C@_0P@GILDOILP@Ex_SetCellType@ DB 'Ex_SetCellType', 00H ; `string'
CONST	ENDS
;	COMDAT ??_C@_0BB@GLGIIOMO@Ex_IsItemEditing@
CONST	SEGMENT
??_C@_0BB@GLGIIOMO@Ex_IsItemEditing@ DB 'Ex_IsItemEditing', 00H ; `string'
CONST	ENDS
;	COMDAT ??_C@_0P@DGGFHCKK@Ex_GetItemFont@
CONST	SEGMENT
??_C@_0P@DGGFHCKK@Ex_GetItemFont@ DB 'Ex_GetItemFont', 00H ; `string'
CONST	ENDS
;	COMDAT ??_C@_0P@DJHLKECJ@Ex_SetItemFont@
CONST	SEGMENT
??_C@_0P@DJHLKECJ@Ex_SetItemFont@ DB 'Ex_SetItemFont', 00H ; `string'
CONST	ENDS
;	COMDAT ??_C@_0BD@MGLJDCED@Ex_GetItemFgColour@
CONST	SEGMENT
??_C@_0BD@MGLJDCED@Ex_GetItemFgColour@ DB 'Ex_GetItemFgColour', 00H ; `string'
CONST	ENDS
;	COMDAT ??_C@_0BD@PEKPEAFK@Ex_SetItemFgColour@
CONST	SEGMENT
??_C@_0BD@PEKPEAFK@Ex_SetItemFgColour@ DB 'Ex_SetItemFgColour', 00H ; `string'
CONST	ENDS
;	COMDAT ??_C@_0BD@MMPKHGAA@Ex_GetItemBkColour@
CONST	SEGMENT
??_C@_0BD@MMPKHGAA@Ex_GetItemBkColour@ DB 'Ex_GetItemBkColour', 00H ; `string'
CONST	ENDS
;	COMDAT ??_C@_0BD@POOMAEBJ@Ex_SetItemBkColour@
CONST	SEGMENT
??_C@_0BD@POOMAEBJ@Ex_SetItemBkColour@ DB 'Ex_SetItemBkColour', 00H ; `string'
CONST	ENDS
;	COMDAT ??_C@_0BB@GAKEANGF@Ex_GetItemFormat@
CONST	SEGMENT
??_C@_0BB@GAKEANGF@Ex_GetItemFormat@ DB 'Ex_GetItemFormat', 00H ; `string'
CONST	ENDS
;	COMDAT ??_C@_0BB@BPLKLOBC@Ex_SetItemFormat@
CONST	SEGMENT
??_C@_0BB@BPLKLOBC@Ex_SetItemFormat@ DB 'Ex_SetItemFormat', 00H ; `string'
CONST	ENDS
;	COMDAT ??_C@_0BA@DCPHJFIL@Ex_GetItemState@
CONST	SEGMENT
??_C@_0BA@DCPHJFIL@Ex_GetItemState@ DB 'Ex_GetItemState', 00H ; `string'
CONST	ENDS
;	COMDAT ??_C@_0BA@EGEJFJMH@Ex_SetItemState@
CONST	SEGMENT
??_C@_0BA@EGEJFJMH@Ex_SetItemState@ DB 'Ex_SetItemState', 00H ; `string'
CONST	ENDS
;	COMDAT ??_C@_0BA@ODCKFMKM@Ex_GetItemImage@
CONST	SEGMENT
??_C@_0BA@ODCKFMKM@Ex_GetItemImage@ DB 'Ex_GetItemImage', 00H ; `string'
CONST	ENDS
;	COMDAT ??_C@_0BA@JHJEJAOA@Ex_SetItemImage@
CONST	SEGMENT
??_C@_0BA@JHJEJAOA@Ex_SetItemImage@ DB 'Ex_SetItemImage', 00H ; `string'
CONST	ENDS
;	COMDAT ??_C@_0P@IKHOJGEL@Ex_GetItemData@
CONST	SEGMENT
??_C@_0P@IKHOJGEL@Ex_GetItemData@ DB 'Ex_GetItemData', 00H ; `string'
CONST	ENDS
;	COMDAT ??_C@_0P@IFGAEAMI@Ex_SetItemData@
CONST	SEGMENT
??_C@_0P@IFGAEAMI@Ex_SetItemData@ DB 'Ex_SetItemData', 00H ; `string'
CONST	ENDS
;	COMDAT ??_C@_0BE@ODPJHLMD@Ex_SetItemTextFmtID@
CONST	SEGMENT
??_C@_0BE@ODPJHLMD@Ex_SetItemTextFmtID@ DB 'Ex_SetItemTextFmtID', 00H ; `string'
CONST	ENDS
;	COMDAT ??_C@_0BC@MAGCMHPB@Ex_SetItemTextFmt@
CONST	SEGMENT
??_C@_0BC@MAGCMHPB@Ex_SetItemTextFmt@ DB 'Ex_SetItemTextFmt', 00H ; `string'
CONST	ENDS
;	COMDAT ??_C@_0P@FLFDIJOO@Ex_GetItemText@
CONST	SEGMENT
??_C@_0P@FLFDIJOO@Ex_GetItemText@ DB 'Ex_GetItemText', 00H ; `string'
CONST	ENDS
;	COMDAT ??_C@_0P@FEENFPGN@Ex_SetItemText@
CONST	SEGMENT
??_C@_0P@FEENFPGN@Ex_SetItemText@ DB 'Ex_SetItemText', 00H ; `string'
CONST	ENDS
;	COMDAT ??_C@_0L@DOIGEGMG@Ex_GetItem@
CONST	SEGMENT
??_C@_0L@DOIGEGMG@Ex_GetItem@ DB 'Ex_GetItem', 00H	; `string'
CONST	ENDS
;	COMDAT ??_C@_0L@MGHHHJBH@Ex_SetItem@
CONST	SEGMENT
??_C@_0L@MGHHHJBH@Ex_SetItem@ DB 'Ex_SetItem', 00H	; `string'
CONST	ENDS
;	COMDAT ??_C@_0P@OIJIPHDB@Ex_IsCellFixed@
CONST	SEGMENT
??_C@_0P@OIJIPHDB@Ex_IsCellFixed@ DB 'Ex_IsCellFixed', 00H ; `string'
CONST	ENDS
;	COMDAT ??_C@_0P@NFIDMKBB@Ex_GetModified@
CONST	SEGMENT
??_C@_0P@NFIDMKBB@Ex_GetModified@ DB 'Ex_GetModified', 00H ; `string'
CONST	ENDS
;	COMDAT ??_C@_0P@NKJNBMJC@Ex_SetModified@
CONST	SEGMENT
??_C@_0P@NKJNBMJC@Ex_SetModified@ DB 'Ex_SetModified', 00H ; `string'
CONST	ENDS
;	COMDAT ??_C@_0L@IKFJGEFD@Ex_GetCell@
CONST	SEGMENT
??_C@_0L@IKFJGEFD@Ex_GetCell@ DB 'Ex_GetCell', 00H	; `string'
CONST	ENDS
;	COMDAT ??_C@_0BC@HHBBOGH@Ex_GetDefaultCell@
CONST	SEGMENT
??_C@_0BC@HHBBOGH@Ex_GetDefaultCell@ DB 'Ex_GetDefaultCell', 00H ; `string'
CONST	ENDS
;	COMDAT ??_C@_0BF@MDNOCHF@Ex_IsDefaultReadOnly@
CONST	SEGMENT
??_C@_0BF@MDNOCHF@Ex_IsDefaultReadOnly@ DB 'Ex_IsDefaultReadOnly', 00H ; `string'
CONST	ENDS
;	COMDAT ??_C@_0BG@GKHGKAPA@Ex_SetDefaultReadOnly@
CONST	SEGMENT
??_C@_0BG@GKHGKAPA@Ex_SetDefaultReadOnly@ DB 'Ex_SetDefaultReadOnly', 00H ; `string'
CONST	ENDS
;	COMDAT ??_C@_0O@CFJHIGGA@Ex_GetRowHide@
CONST	SEGMENT
??_C@_0O@CFJHIGGA@Ex_GetRowHide@ DB 'Ex_GetRowHide', 00H ; `string'
CONST	ENDS
;	COMDAT ??_C@_0BB@LLNAEOOL@Ex_EnableRowHide@
CONST	SEGMENT
??_C@_0BB@LLNAEOOL@Ex_EnableRowHide@ DB 'Ex_EnableRowHide', 00H ; `string'
CONST	ENDS
;	COMDAT ??_C@_0BB@GJLPNLHD@Ex_GetColumnHide@
CONST	SEGMENT
??_C@_0BB@GJLPNLHD@Ex_GetColumnHide@ DB 'Ex_GetColumnHide', 00H ; `string'
CONST	ENDS
;	COMDAT ??_C@_0BE@GPEEKGPJ@Ex_EnableColumnHide@
CONST	SEGMENT
??_C@_0BE@GPEEKGPJ@Ex_EnableColumnHide@ DB 'Ex_EnableColumnHide', 00H ; `string'
CONST	ENDS
;	COMDAT ??_C@_0BG@ICPIMIJM@Ex_GetHiddenRowUnhide@
CONST	SEGMENT
??_C@_0BG@ICPIMIJM@Ex_GetHiddenRowUnhide@ DB 'Ex_GetHiddenRowUnhide', 00H ; `string'
CONST	ENDS
;	COMDAT ??_C@_0BJ@PDACDFJ@Ex_EnableHiddenRowUnhide@
CONST	SEGMENT
??_C@_0BJ@PDACDFJ@Ex_EnableHiddenRowUnhide@ DB 'Ex_EnableHiddenRowUnhide', 00H ; `string'
CONST	ENDS
;	COMDAT ??_C@_0BG@GLEFAPDH@Ex_GetHiddenColUnhide@
CONST	SEGMENT
??_C@_0BG@GLEFAPDH@Ex_GetHiddenColUnhide@ DB 'Ex_GetHiddenColUnhide', 00H ; `string'
CONST	ENDS
;	COMDAT ??_C@_0BJ@OGINOEPC@Ex_EnableHiddenColUnhide@
CONST	SEGMENT
??_C@_0BJ@OGINOEPC@Ex_EnableHiddenColUnhide@ DB 'Ex_EnableHiddenColUnhide'
	DB	00H						; `string'
CONST	ENDS
;	COMDAT ??_C@_0BE@FPECENBE@Ex_GetAutoSizeStyle@
CONST	SEGMENT
??_C@_0BE@FPECENBE@Ex_GetAutoSizeStyle@ DB 'Ex_GetAutoSizeStyle', 00H ; `string'
CONST	ENDS
;	COMDAT ??_C@_0BE@DLBLPDKG@Ex_SetAutoSizeStyle@
CONST	SEGMENT
??_C@_0BE@DLBLPDKG@Ex_SetAutoSizeStyle@ DB 'Ex_SetAutoSizeStyle', 00H ; `string'
CONST	ENDS
;	COMDAT ??_C@_0BF@BOIDKDJA@Ex_GetFrameFocusCell@
CONST	SEGMENT
??_C@_0BF@BOIDKDJA@Ex_GetFrameFocusCell@ DB 'Ex_GetFrameFocusCell', 00H ; `string'
CONST	ENDS
;	COMDAT ??_C@_0BF@DLIICIIO@Ex_SetFrameFocusCell@
CONST	SEGMENT
??_C@_0BF@DLIICIIO@Ex_SetFrameFocusCell@ DB 'Ex_SetFrameFocusCell', 00H ; `string'
CONST	ENDS
;	COMDAT ??_C@_0BF@EJCAHFFG@Ex_GetTrackFocusCell@
CONST	SEGMENT
??_C@_0BF@EJCAHFFG@Ex_GetTrackFocusCell@ DB 'Ex_GetTrackFocusCell', 00H ; `string'
CONST	ENDS
;	COMDAT ??_C@_0BF@GMCLPOEI@Ex_SetTrackFocusCell@
CONST	SEGMENT
??_C@_0BF@GMCLPOEI@Ex_SetTrackFocusCell@ DB 'Ex_SetTrackFocusCell', 00H ; `string'
CONST	ENDS
;	COMDAT ??_C@_0BE@PEMCECPO@Ex_GetSortAscending@
CONST	SEGMENT
??_C@_0BE@PEMCECPO@Ex_GetSortAscending@ DB 'Ex_GetSortAscending', 00H ; `string'
CONST	ENDS
;	COMDAT ??_C@_0BE@JAJLPMEM@Ex_SetSortAscending@
CONST	SEGMENT
??_C@_0BE@JAJLPMEM@Ex_SetSortAscending@ DB 'Ex_SetSortAscending', 00H ; `string'
CONST	ENDS
;	COMDAT ??_C@_0BB@PJJEJEAG@Ex_GetSortColumn@
CONST	SEGMENT
??_C@_0BB@PJJEJEAG@Ex_GetSortColumn@ DB 'Ex_GetSortColumn', 00H ; `string'
CONST	ENDS
;	COMDAT ??_C@_0BB@IGIKCHHB@Ex_SetSortColumn@
CONST	SEGMENT
??_C@_0BB@IGIKCHHB@Ex_SetSortColumn@ DB 'Ex_SetSortColumn', 00H ; `string'
CONST	ENDS
;	COMDAT ??_C@_0BA@GGIJPOKE@Ex_GetTitleTips@
CONST	SEGMENT
??_C@_0BA@GGIJPOKE@Ex_GetTitleTips@ DB 'Ex_GetTitleTips', 00H ; `string'
CONST	ENDS
;	COMDAT ??_C@_0BD@CLEBGLOB@Ex_EnableTitleTips@
CONST	SEGMENT
??_C@_0BD@CLEBGLOB@Ex_EnableTitleTips@ DB 'Ex_EnableTitleTips', 00H ; `string'
CONST	ENDS
;	COMDAT ??_C@_0BG@KKBMCPHN@Ex_GetDoubleBuffering@
CONST	SEGMENT
??_C@_0BG@KKBMCPHN@Ex_GetDoubleBuffering@ DB 'Ex_GetDoubleBuffering', 00H ; `string'
CONST	ENDS
;	COMDAT ??_C@_0BG@FADGBJJF@Ex_SetDoubleBuffering@
CONST	SEGMENT
??_C@_0BG@FADGBJJF@Ex_SetDoubleBuffering@ DB 'Ex_SetDoubleBuffering', 00H ; `string'
CONST	ENDS
;	COMDAT ??_C@_0BD@PCJLONGH@Ex_GetHandleTabKey@
CONST	SEGMENT
??_C@_0BD@PCJLONGH@Ex_GetHandleTabKey@ DB 'Ex_GetHandleTabKey', 00H ; `string'
CONST	ENDS
;	COMDAT ??_C@_0BD@MAINJPHO@Ex_SetHandleTabKey@
CONST	SEGMENT
??_C@_0BD@MAINJPHO@Ex_SetHandleTabKey@ DB 'Ex_SetHandleTabKey', 00H ; `string'
CONST	ENDS
;	COMDAT ??_C@_0BB@CCDAJDAG@Ex_GetHeaderSort@
CONST	SEGMENT
??_C@_0BB@CCDAJDAG@Ex_GetHeaderSort@ DB 'Ex_GetHeaderSort', 00H ; `string'
CONST	ENDS
;	COMDAT ??_C@_0BB@FNCOCAHB@Ex_SetHeaderSort@
CONST	SEGMENT
??_C@_0BB@FNCOCAHB@Ex_SetHeaderSort@ DB 'Ex_SetHeaderSort', 00H ; `string'
CONST	ENDS
;	COMDAT ??_C@_0BD@HIIFMNGD@Ex_GetColumnResize@
CONST	SEGMENT
??_C@_0BD@HIIFMNGD@Ex_GetColumnResize@ DB 'Ex_GetColumnResize', 00H ; `string'
CONST	ENDS
;	COMDAT ??_C@_0BD@EKJDLPHK@Ex_SetColumnResize@
CONST	SEGMENT
??_C@_0BD@EKJDLPHK@Ex_SetColumnResize@ DB 'Ex_SetColumnResize', 00H ; `string'
CONST	ENDS
;	COMDAT ??_C@_0BA@MLAONJA@Ex_GetRowResize@
CONST	SEGMENT
??_C@_0BA@MLAONJA@Ex_GetRowResize@ DB 'Ex_GetRowResize', 00H ; `string'
CONST	ENDS
;	COMDAT ??_C@_0BA@HIAOCBNM@Ex_SetRowResize@
CONST	SEGMENT
??_C@_0BA@HIAOCBNM@Ex_SetRowResize@ DB 'Ex_SetRowResize', 00H ; `string'
CONST	ENDS
;	COMDAT ??_C@_0BC@BPGLLDNL@Ex_GetDragAndDrop@
CONST	SEGMENT
??_C@_0BC@BPGLLDNL@Ex_GetDragAndDrop@ DB 'Ex_GetDragAndDrop', 00H ; `string'
CONST	ENDS
;	COMDAT ??_C@_0BF@BCAACCJI@Ex_EnableDragAndDrop@
CONST	SEGMENT
??_C@_0BF@BCAACCJI@Ex_EnableDragAndDrop@ DB 'Ex_EnableDragAndDrop', 00H ; `string'
CONST	ENDS
;	COMDAT ??_C@_0BI@EPMKEKDA@Ex_GetFixedRowSelection@
CONST	SEGMENT
??_C@_0BI@EPMKEKDA@Ex_GetFixedRowSelection@ DB 'Ex_GetFixedRowSelection', 00H ; `string'
CONST	ENDS
;	COMDAT ??_C@_0BI@BGNHFMGH@Ex_SetFixedRowSelection@
CONST	SEGMENT
??_C@_0BI@BGNHFMGH@Ex_SetFixedRowSelection@ DB 'Ex_SetFixedRowSelection', 00H ; `string'
CONST	ENDS
;	COMDAT ??_C@_0BL@KEDCGMJN@Ex_GetFixedColumnSelection@
CONST	SEGMENT
??_C@_0BL@KEDCGMJN@Ex_GetFixedColumnSelection@ DB 'Ex_GetFixedColumnSelec'
	DB	'tion', 00H					; `string'
CONST	ENDS
;	COMDAT ??_C@_0BL@LCFPINPP@Ex_SetFixedColumnSelection@
CONST	SEGMENT
??_C@_0BL@LCFPINPP@Ex_SetFixedColumnSelection@ DB 'Ex_SetFixedColumnSelec'
	DB	'tion', 00H					; `string'
CONST	ENDS
;	COMDAT ??_C@_0BA@CEPMEDED@Ex_IsSelectable@
CONST	SEGMENT
??_C@_0BA@CEPMEDED@Ex_IsSelectable@ DB 'Ex_IsSelectable', 00H ; `string'
CONST	ENDS
;	COMDAT ??_C@_0BD@OKOBKIIJ@Ex_EnableSelection@
CONST	SEGMENT
??_C@_0BD@OKOBKIIJ@Ex_EnableSelection@ DB 'Ex_EnableSelection', 00H ; `string'
CONST	ENDS
;	COMDAT ??_C@_0BJ@EJOOMLIC@Ex_GetSingleColSelection@
CONST	SEGMENT
??_C@_0BJ@EJOOMLIC@Ex_GetSingleColSelection@ DB 'Ex_GetSingleColSelection'
	DB	00H						; `string'
CONST	ENDS
;	COMDAT ??_C@_0BJ@LMLIBCMD@Ex_SetSingleColSelection@
CONST	SEGMENT
??_C@_0BJ@LMLIBCMD@Ex_SetSingleColSelection@ DB 'Ex_SetSingleColSelection'
	DB	00H						; `string'
CONST	ENDS
;	COMDAT ??_C@_0BJ@KNKIPHFC@Ex_GetSingleRowSelection@
CONST	SEGMENT
??_C@_0BJ@KNKIPHFC@Ex_GetSingleRowSelection@ DB 'Ex_GetSingleRowSelection'
	DB	00H						; `string'
CONST	ENDS
;	COMDAT ??_C@_0BJ@FIPOCOBD@Ex_SetSingleRowSelection@
CONST	SEGMENT
??_C@_0BJ@FIPOCOBD@Ex_SetSingleRowSelection@ DB 'Ex_SetSingleRowSelection'
	DB	00H						; `string'
CONST	ENDS
;	COMDAT ??_C@_0P@JCAFHOGP@Ex_GetListMode@
CONST	SEGMENT
??_C@_0P@JCAFHOGP@Ex_GetListMode@ DB 'Ex_GetListMode', 00H ; `string'
CONST	ENDS
;	COMDAT ??_C@_0P@JNBLKIOM@Ex_SetListMode@
CONST	SEGMENT
??_C@_0P@JNBLKIOM@Ex_SetListMode@ DB 'Ex_SetListMode', 00H ; `string'
CONST	ENDS
;	COMDAT ??_C@_0O@NHDOAOPK@Ex_IsEditable@
CONST	SEGMENT
??_C@_0O@NHDOAOPK@Ex_IsEditable@ DB 'Ex_IsEditable', 00H ; `string'
CONST	ENDS
;	COMDAT ??_C@_0P@JBFLIDIG@Ex_SetEditable@
CONST	SEGMENT
??_C@_0P@JBFLIDIG@Ex_SetEditable@ DB 'Ex_SetEditable', 00H ; `string'
CONST	ENDS
;	COMDAT ??_C@_0BA@KOPMADJF@Ex_GetGridLines@
CONST	SEGMENT
??_C@_0BA@KOPMADJF@Ex_GetGridLines@ DB 'Ex_GetGridLines', 00H ; `string'
CONST	ENDS
;	COMDAT ??_C@_0BA@NKECMPNJ@Ex_SetGridLines@
CONST	SEGMENT
??_C@_0BA@NKECMPNJ@Ex_SetGridLines@ DB 'Ex_SetGridLines', 00H ; `string'
CONST	ENDS
;	COMDAT ??_C@_0BA@MCPODKJI@Ex_GetImageList@
CONST	SEGMENT
??_C@_0BA@MCPODKJI@Ex_GetImageList@ DB 'Ex_GetImageList', 00H ; `string'
CONST	ENDS
;	COMDAT ??_C@_0BA@LGEAPGNE@Ex_SetImageList@
CONST	SEGMENT
??_C@_0BA@LGEAPGNE@Ex_SetImageList@ DB 'Ex_SetImageList', 00H ; `string'
CONST	ENDS
;	COMDAT ??_C@_0BD@EGPDNFEP@Ex_GetCallbackFunc@
CONST	SEGMENT
??_C@_0BD@EGPDNFEP@Ex_GetCallbackFunc@ DB 'Ex_GetCallbackFunc', 00H ; `string'
CONST	ENDS
;	COMDAT ??_C@_0BD@HEOFKHFG@Ex_SetCallbackFunc@
CONST	SEGMENT
??_C@_0BD@HEOFKHFG@Ex_SetCallbackFunc@ DB 'Ex_SetCallbackFunc', 00H ; `string'
CONST	ENDS
;	COMDAT ??_C@_0BC@KEFEIMKN@Ex_GetVirtualMode@
CONST	SEGMENT
??_C@_0BC@KEFEIMKN@Ex_GetVirtualMode@ DB 'Ex_GetVirtualMode', 00H ; `string'
CONST	ENDS
;	COMDAT ??_C@_0BC@GKEKHGIB@Ex_SetVirtualMode@
CONST	SEGMENT
??_C@_0BC@GKEKHGIB@Ex_SetVirtualMode@ DB 'Ex_SetVirtualMode', 00H ; `string'
CONST	ENDS
;	COMDAT ??_C@_0BA@CHAPHGPC@Ex_GetFocusCell@
CONST	SEGMENT
??_C@_0BA@CHAPHGPC@Ex_GetFocusCell@ DB 'Ex_GetFocusCell', 00H ; `string'
CONST	ENDS
;	COMDAT ??_C@_0BB@MBPKHLEA@Ex_SetFocusCell2@
CONST	SEGMENT
??_C@_0BB@MBPKHLEA@Ex_SetFocusCell2@ DB 'Ex_SetFocusCell2', 00H ; `string'
CONST	ENDS
;	COMDAT ??_C@_0BB@OKNHCIID@Ex_SetFocusCell1@
CONST	SEGMENT
??_C@_0BB@OKNHCIID@Ex_SetFocusCell1@ DB 'Ex_SetFocusCell1', 00H ; `string'
CONST	ENDS
;	COMDAT ??_C@_0BE@LMNPDDGK@Ex_GetSelectedCount@
CONST	SEGMENT
??_C@_0BE@LMNPDDGK@Ex_GetSelectedCount@ DB 'Ex_GetSelectedCount', 00H ; `string'
CONST	ENDS
;	COMDAT ??_C@_0BD@HFIMCCMN@Ex_SetDefCellWidth@
CONST	SEGMENT
??_C@_0BD@HFIMCCMN@Ex_SetDefCellWidth@ DB 'Ex_SetDefCellWidth', 00H ; `string'
CONST	ENDS
;	COMDAT ??_C@_0BD@EHJKFANE@Ex_GetDefCellWidth@
CONST	SEGMENT
??_C@_0BD@EHJKFANE@Ex_GetDefCellWidth@ DB 'Ex_GetDefCellWidth', 00H ; `string'
CONST	ENDS
;	COMDAT ??_C@_0BE@PCJLJOEB@Ex_SetDefCellHeight@
CONST	SEGMENT
??_C@_0BE@PCJLJOEB@Ex_SetDefCellHeight@ DB 'Ex_SetDefCellHeight', 00H ; `string'
CONST	ENDS
;	COMDAT ??_C@_0BE@JGMCCAPD@Ex_GetDefCellHeight@
CONST	SEGMENT
??_C@_0BE@JGMCCAPD@Ex_GetDefCellHeight@ DB 'Ex_GetDefCellHeight', 00H ; `string'
CONST	ENDS
;	COMDAT ??_C@_0BE@PJLEHLDN@Ex_GetDefCellMargin@
CONST	SEGMENT
??_C@_0BE@PJLEHLDN@Ex_GetDefCellMargin@ DB 'Ex_GetDefCellMargin', 00H ; `string'
CONST	ENDS
;	COMDAT ??_C@_0BE@JNONMFIP@Ex_SetDefCellMargin@
CONST	SEGMENT
??_C@_0BE@JNONMFIP@Ex_SetDefCellMargin@ DB 'Ex_SetDefCellMargin', 00H ; `string'
CONST	ENDS
;	COMDAT ??_C@_0O@HPGBLOLC@Ex_GetBkColor@
CONST	SEGMENT
??_C@_0O@HPGBLOLC@Ex_GetBkColor@ DB 'Ex_GetBkColor', 00H ; `string'
CONST	ENDS
;	COMDAT ??_C@_0O@GBEOAJPL@Ex_SetBkColor@
CONST	SEGMENT
??_C@_0O@GBEOAJPL@Ex_SetBkColor@ DB 'Ex_SetBkColor', 00H ; `string'
CONST	ENDS
;	COMDAT ??_C@_0BA@GOGPDIPM@Ex_GetGridColor@
CONST	SEGMENT
??_C@_0BA@GOGPDIPM@Ex_GetGridColor@ DB 'Ex_GetGridColor', 00H ; `string'
CONST	ENDS
;	COMDAT ??_C@_0BA@BKNBPELA@Ex_SetGridColor@
CONST	SEGMENT
??_C@_0BA@BKNBPELA@Ex_SetGridColor@ DB 'Ex_SetGridColor', 00H ; `string'
CONST	ENDS
;	COMDAT ??_C@_0BD@NAMCEFGF@Ex_GetFixedBkColor@
CONST	SEGMENT
??_C@_0BD@NAMCEFGF@Ex_GetFixedBkColor@ DB 'Ex_GetFixedBkColor', 00H ; `string'
CONST	ENDS
;	COMDAT ??_C@_0BD@OCNEDHHM@Ex_SetFixedBkColor@
CONST	SEGMENT
??_C@_0BD@OCNEDHHM@Ex_SetFixedBkColor@ DB 'Ex_SetFixedBkColor', 00H ; `string'
CONST	ENDS
;	COMDAT ??_C@_0BF@FJIOFHDL@Ex_GetFixedTextColor@
CONST	SEGMENT
??_C@_0BF@FJIOFHDL@Ex_GetFixedTextColor@ DB 'Ex_GetFixedTextColor', 00H ; `string'
CONST	ENDS
;	COMDAT ??_C@_0BF@HMIFNMCF@Ex_SetFixedTextColor@
CONST	SEGMENT
??_C@_0BF@HMIFNMCF@Ex_SetFixedTextColor@ DB 'Ex_SetFixedTextColor', 00H ; `string'
CONST	ENDS
;	COMDAT ??_C@_0BC@CILHBKAI@Ex_GetTextBkColor@
CONST	SEGMENT
??_C@_0BC@CILHBKAI@Ex_GetTextBkColor@ DB 'Ex_GetTextBkColor', 00H ; `string'
CONST	ENDS
;	COMDAT ??_C@_0BC@OGKJOACE@Ex_SetTextBkColor@
CONST	SEGMENT
??_C@_0BC@OGKJOACE@Ex_SetTextBkColor@ DB 'Ex_SetTextBkColor', 00H ; `string'
CONST	ENDS
;	COMDAT ??_C@_0BA@LNJIIANE@Ex_GetTextColor@
CONST	SEGMENT
??_C@_0BA@LNJIIANE@Ex_GetTextColor@ DB 'Ex_GetTextColor', 00H ; `string'
CONST	ENDS
;	COMDAT ??_C@_0BA@MJCGEMJI@Ex_SetTextColor@
CONST	SEGMENT
??_C@_0BA@MJCGEMJI@Ex_SetTextColor@ DB 'Ex_SetTextColor', 00H ; `string'
CONST	ENDS
;	COMDAT ??_C@_0CB@FPKHIOMN@Ex_GetFixedRowSelectionHighligh@
CONST	SEGMENT
??_C@_0CB@FPKHIOMN@Ex_GetFixedRowSelectionHighligh@ DB 'Ex_GetFixedRowSel'
	DB	'ectionHighlight', 00H			; `string'
CONST	ENDS
;	COMDAT ??_C@_0CB@NOMIDOOP@Ex_SetFixedRowSelectionHighligh@
CONST	SEGMENT
??_C@_0CB@NOMIDOOP@Ex_SetFixedRowSelectionHighligh@ DB 'Ex_SetFixedRowSel'
	DB	'ectionHighlight', 00H			; `string'
CONST	ENDS
;	COMDAT ??_C@_0BH@JMEFCNCM@Ex_GetUseHighlightText@
CONST	SEGMENT
??_C@_0BH@JMEFCNCM@Ex_GetUseHighlightText@ DB 'Ex_GetUseHighlightText', 00H ; `string'
CONST	ENDS
;	COMDAT ??_C@_0BH@DCGOGNFA@Ex_SetUseHighlightText@
CONST	SEGMENT
??_C@_0BH@DCGOGNFA@Ex_SetUseHighlightText@ DB 'Ex_SetUseHighlightText', 00H ; `string'
CONST	ENDS
;	COMDAT ??_C@_0BJ@DMCJEJBE@Ex_GetHighlightTextColor@
CONST	SEGMENT
??_C@_0BJ@DMCJEJBE@Ex_GetHighlightTextColor@ DB 'Ex_GetHighlightTextColor'
	DB	00H						; `string'
CONST	ENDS
;	COMDAT ??_C@_0BF@MMKGMMCP@Ex_GetHighlightColor@
CONST	SEGMENT
??_C@_0BF@MMKGMMCP@Ex_GetHighlightColor@ DB 'Ex_GetHighlightColor', 00H ; `string'
CONST	ENDS
;	COMDAT ??_C@_0BJ@MJHPJAFF@Ex_SetHighlightTextColor@
CONST	SEGMENT
??_C@_0BJ@MJHPJAFF@Ex_SetHighlightTextColor@ DB 'Ex_SetHighlightTextColor'
	DB	00H						; `string'
CONST	ENDS
;	COMDAT ??_C@_0BF@OJKNEHDB@Ex_SetHighlightColor@
CONST	SEGMENT
??_C@_0BF@OJKNEHDB@Ex_SetHighlightColor@ DB 'Ex_SetHighlightColor', 00H ; `string'
CONST	ENDS
;	COMDAT ??_C@_0BO@CMGJCOCF@Ex_GetFixedGridLineColor_Dark@
CONST	SEGMENT
??_C@_0BO@CMGJCOCF@Ex_GetFixedGridLineColor_Dark@ DB 'Ex_GetFixedGridLine'
	DB	'Color_Dark', 00H				; `string'
CONST	ENDS
;	COMDAT ??_C@_0BP@LJNJNBMD@Ex_GetFixedGridLineColor_Light@
CONST	SEGMENT
??_C@_0BP@LJNJNBMD@Ex_GetFixedGridLineColor_Light@ DB 'Ex_GetFixedGridLin'
	DB	'eColor_Light', 00H				; `string'
CONST	ENDS
;	COMDAT ??_C@_0BO@BDFMOODF@Ex_SetFixedGridLineColor_Dark@
CONST	SEGMENT
??_C@_0BO@BDFMOODF@Ex_SetFixedGridLineColor_Dark@ DB 'Ex_SetFixedGridLine'
	DB	'Color_Dark', 00H				; `string'
CONST	ENDS
;	COMDAT ??_C@_0BP@KEFBPEGH@Ex_SetFixedGridLineColor_Light@
CONST	SEGMENT
??_C@_0BP@KEFBPEGH@Ex_SetFixedGridLineColor_Light@ DB 'Ex_SetFixedGridLin'
	DB	'eColor_Light', 00H				; `string'
CONST	ENDS
;	COMDAT ??_C@_0BG@LNPJOMKK@Ex_GetTitleTipTextClr@
CONST	SEGMENT
??_C@_0BG@LNPJOMKK@Ex_GetTitleTipTextClr@ DB 'Ex_GetTitleTipTextClr', 00H ; `string'
CONST	ENDS
;	COMDAT ??_C@_0BG@EHNDNKEC@Ex_SetTitleTipTextClr@
CONST	SEGMENT
??_C@_0BG@EHNDNKEC@Ex_SetTitleTipTextClr@ DB 'Ex_SetTitleTipTextClr', 00H ; `string'
CONST	ENDS
;	COMDAT ??_C@_0BG@HIMDACBO@Ex_GetTitleTipBackClr@
CONST	SEGMENT
??_C@_0BG@HIMDACBO@Ex_GetTitleTipBackClr@ DB 'Ex_GetTitleTipBackClr', 00H ; `string'
CONST	ENDS
;	COMDAT ??_C@_0BG@ICOJDEPG@Ex_SetTitleTipBackClr@
CONST	SEGMENT
??_C@_0BG@ICOJDEPG@Ex_SetTitleTipBackClr@ DB 'Ex_SetTitleTipBackClr', 00H ; `string'
CONST	ENDS
;	COMDAT ??_C@_0BE@DBNFLHHC@Ex_GetGridLineColor@
CONST	SEGMENT
??_C@_0BE@DBNFLHHC@Ex_GetGridLineColor@ DB 'Ex_GetGridLineColor', 00H ; `string'
CONST	ENDS
;	COMDAT ??_C@_0BE@FFIMAJMA@Ex_SetGridLineColor@
CONST	SEGMENT
??_C@_0BE@FFIMAJMA@Ex_SetGridLineColor@ DB 'Ex_SetGridLineColor', 00H ; `string'
CONST	ENDS
;	COMDAT ??_C@_0BC@LAFAFMOL@Ex_GetGridBkColor@
CONST	SEGMENT
??_C@_0BC@LAFAFMOL@Ex_GetGridBkColor@ DB 'Ex_GetGridBkColor', 00H ; `string'
CONST	ENDS
;	COMDAT ??_C@_0BC@HOEOKGMH@Ex_SetGridBkColor@
CONST	SEGMENT
??_C@_0BC@HOEOKGMH@Ex_SetGridBkColor@ DB 'Ex_SetGridBkColor', 00H ; `string'
CONST	ENDS
;	COMDAT ??_C@_0BF@FBJJOBBD@Ex_GetCellTextExtent@
CONST	SEGMENT
??_C@_0BF@FBJJOBBD@Ex_GetCellTextExtent@ DB 'Ex_GetCellTextExtent', 00H ; `string'
CONST	ENDS
;	COMDAT ??_C@_0BB@JNECFDJF@Ex_GetTextExtent@
CONST	SEGMENT
??_C@_0BB@JNECFDJF@Ex_GetTextExtent@ DB 'Ex_GetTextExtent', 00H ; `string'
CONST	ENDS
;	COMDAT ??_C@_0BE@FDAKIPGK@Ex_GetVirtualHeight@
CONST	SEGMENT
??_C@_0BE@FDAKIPGK@Ex_GetVirtualHeight@ DB 'Ex_GetVirtualHeight', 00H ; `string'
CONST	ENDS
;	COMDAT ??_C@_0BD@DFAOHHGM@Ex_GetVirtualWidth@
CONST	SEGMENT
??_C@_0BD@DFAOHHGM@Ex_GetVirtualWidth@ DB 'Ex_GetVirtualWidth', 00H ; `string'
CONST	ENDS
;	COMDAT ??_C@_0BH@EKHEELLJ@Ex_GetFixedColumnWidth@
CONST	SEGMENT
??_C@_0BH@EKHEELLJ@Ex_GetFixedColumnWidth@ DB 'Ex_GetFixedColumnWidth', 00H ; `string'
CONST	ENDS
;	COMDAT ??_C@_0BF@KNPMFFOB@Ex_GetFixedRowHeight@
CONST	SEGMENT
??_C@_0BF@KNPMFFOB@Ex_GetFixedRowHeight@ DB 'Ex_GetFixedRowHeight', 00H ; `string'
CONST	ENDS
;	COMDAT ??_C@_0BB@CIPPMECD@Ex_GetCellFromPt@
CONST	SEGMENT
??_C@_0BB@CIPPMECD@Ex_GetCellFromPt@ DB 'Ex_GetCellFromPt', 00H ; `string'
CONST	ENDS
;	COMDAT ??_C@_0BA@IHMLFKIJ@Ex_GetTextRect2@
CONST	SEGMENT
??_C@_0BA@IHMLFKIJ@Ex_GetTextRect2@ DB 'Ex_GetTextRect2', 00H ; `string'
CONST	ENDS
;	COMDAT ??_C@_0P@LCOAKBB@Ex_GetTextRect@
CONST	SEGMENT
??_C@_0P@LCOAKBB@Ex_GetTextRect@ DB 'Ex_GetTextRect', 00H ; `string'
CONST	ENDS
;	COMDAT ??_C@_0BA@OOHJCNGA@Ex_GetCellRect2@
CONST	SEGMENT
??_C@_0BA@OOHJCNGA@Ex_GetCellRect2@ DB 'Ex_GetCellRect2', 00H ; `string'
CONST	ENDS
;	COMDAT ??_C@_0P@LPJLBNIC@Ex_GetCellRect@
CONST	SEGMENT
??_C@_0P@LPJLBNIC@Ex_GetCellRect@ DB 'Ex_GetCellRect', 00H ; `string'
CONST	ENDS
;	COMDAT ??_C@_0BC@FAALKLNN@Ex_GetCellOrigin2@
CONST	SEGMENT
??_C@_0BC@FAALKLNN@Ex_GetCellOrigin2@ DB 'Ex_GetCellOrigin2', 00H ; `string'
CONST	ENDS
;	COMDAT ??_C@_0BB@MGANLAPA@Ex_GetCellOrigin@
CONST	SEGMENT
??_C@_0BB@MGANLAPA@Ex_GetCellOrigin@ DB 'Ex_GetCellOrigin', 00H ; `string'
CONST	ENDS
;	COMDAT ??_C@_0BC@EFDLPNNH@Ex_SetColumnWidth@
CONST	SEGMENT
??_C@_0BC@EFDLPNNH@Ex_SetColumnWidth@ DB 'Ex_SetColumnWidth', 00H ; `string'
CONST	ENDS
;	COMDAT ??_C@_0BC@ILCFAHPL@Ex_GetColumnWidth@
CONST	SEGMENT
??_C@_0BC@ILCFAHPL@Ex_GetColumnWidth@ DB 'Ex_GetColumnWidth', 00H ; `string'
CONST	ENDS
;	COMDAT ??_C@_0BA@DNFEEOEC@Ex_SetRowHeight@
CONST	SEGMENT
??_C@_0BA@DNFEEOEC@Ex_SetRowHeight@ DB 'Ex_SetRowHeight', 00H ; `string'
CONST	ENDS
;	COMDAT ??_C@_0BA@EJOKICAO@Ex_GetRowHeight@
CONST	SEGMENT
??_C@_0BA@EJOKICAO@Ex_GetRowHeight@ DB 'Ex_GetRowHeight', 00H ; `string'
CONST	ENDS
;	COMDAT ??_C@_0BH@OMDLPFOJ@Ex_SetFixedColumnCount@
CONST	SEGMENT
??_C@_0BH@OMDLPFOJ@Ex_SetFixedColumnCount@ DB 'Ex_SetFixedColumnCount', 00H ; `string'
CONST	ENDS
;	COMDAT ??_C@_0BE@HLPCMKGK@Ex_SetFixedRowCount@
CONST	SEGMENT
??_C@_0BE@HLPCMKGK@Ex_SetFixedRowCount@ DB 'Ex_SetFixedRowCount', 00H ; `string'
CONST	ENDS
;	COMDAT ??_C@_0BC@ENFPADPL@Ex_SetColumnCount@
CONST	SEGMENT
??_C@_0BC@ENFPADPL@Ex_SetColumnCount@ DB 'Ex_SetColumnCount', 00H ; `string'
CONST	ENDS
;	COMDAT ??_C@_0P@IKNEGNH@Ex_SetRowCount@
CONST	SEGMENT
??_C@_0P@IKNEGNH@Ex_SetRowCount@ DB 'Ex_SetRowCount', 00H ; `string'
CONST	ENDS
;	COMDAT ??_C@_0BH@ECBALFJF@Ex_GetFixedColumnCount@
CONST	SEGMENT
??_C@_0BH@ECBALFJF@Ex_GetFixedColumnCount@ DB 'Ex_GetFixedColumnCount', 00H ; `string'
CONST	ENDS
;	COMDAT ??_C@_0BE@BPKLHENI@Ex_GetFixedRowCount@
CONST	SEGMENT
??_C@_0BE@BPKLHENI@Ex_GetFixedRowCount@ DB 'Ex_GetFixedRowCount', 00H ; `string'
CONST	ENDS
;	COMDAT ??_C@_0BC@IDEBPJNH@Ex_GetColumnCount@
CONST	SEGMENT
??_C@_0BC@IDEBPJNH@Ex_GetColumnCount@ DB 'Ex_GetColumnCount', 00H ; `string'
CONST	ENDS
;	COMDAT ??_C@_0P@HLDJAFE@Ex_GetRowCount@
CONST	SEGMENT
??_C@_0P@HLDJAFE@Ex_GetRowCount@ DB 'Ex_GetRowCount', 00H ; `string'
CONST	ENDS
;	COMDAT ??_C@_09JKICPNB@Ex_Create@
CONST	SEGMENT
??_C@_09JKICPNB@Ex_Create@ DB 'Ex_Create', 00H		; `string'
CONST	ENDS
;	COMDAT ??_C@_0BA@BFAIJPHF@Ex_ExitGridCtrl@
CONST	SEGMENT
??_C@_0BA@BFAIJPHF@Ex_ExitGridCtrl@ DB 'Ex_ExitGridCtrl', 00H ; `string'
CONST	ENDS
;	COMDAT ??_C@_0BA@GMJHGOJC@Ex_InitGridCtrl@
CONST	SEGMENT
??_C@_0BA@GMJHGOJC@Ex_InitGridCtrl@ DB 'Ex_InitGridCtrl', 00H ; `string'
CONST	ENDS
;	COMDAT ??_C@_0BB@JBDOCKKP@Ex_ActionControl@
CONST	SEGMENT
??_C@_0BB@JBDOCKKP@Ex_ActionControl@ DB 'Ex_ActionControl', 00H ; `string'
CONST	ENDS
;	COMDAT ??_C@_05BMGBEOOC@?$CFs?2?$CFs@
CONST	SEGMENT
??_C@_05BMGBEOOC@?$CFs?2?$CFs@ DB '%s\%s', 00H		; `string'
CONST	ENDS
;	COMDAT ??_C@_0P@HKIIFJOH@ExGridCtrl?4dll@
CONST	SEGMENT
??_C@_0P@HKIIFJOH@ExGridCtrl?4dll@ DB 'ExGridCtrl.dll', 00H ; `string'
CONST	ENDS
;	COMDAT ??_7CLoaderGridCtrl@@6B@
CONST	SEGMENT
??_7CLoaderGridCtrl@@6B@ DD FLAT:??_R4CLoaderGridCtrl@@6B@ ; CLoaderGridCtrl::`vftable'
	DD	FLAT:?LoadProcAddress@CLoaderGridCtrl@@UAEHXZ
	DD	FLAT:??_ECLoaderGridCtrl@@UAEPAXI@Z
CONST	ENDS
;	COMDAT ??_C@_04OHDBDCPJ@?2Dev@
CONST	SEGMENT
??_C@_04OHDBDCPJ@?2Dev@ DB '\Dev', 00H			; `string'
CONST	ENDS
;	COMDAT ??_C@_0CD@INEDAMEN@DLL?$FL?$CFs?$FN?$MA?$LL?5Load?G?R?5?$LM?v?5?$LO?x?$LN?$MA?$LE?O?$LE?Y?4?5?$FL@
CONST	SEGMENT
??_C@_0CD@INEDAMEN@DLL?$FL?$CFs?$FN?$MA?$LL?5Load?G?R?5?$LM?v?5?$LO?x?$LN?$MA?$LE?O?$LE?Y?4?5?$FL@ DB 'D'
	DB	'LL[%s]', 0c0H, 0bbH, ' Load', 0c7H, 0d2H, ' ', 0bcH, 0f6H, ' '
	DB	0beH, 0f8H, 0bdH, 0c0H, 0b4H, 0cfH, 0b4H, 0d9H, '. [%d]', 00H ; `string'
CONST	ENDS
;	COMDAT ??_7CExLoadLib@@6B@
CONST	SEGMENT
??_7CExLoadLib@@6B@ DD FLAT:??_R4CExLoadLib@@6B@	; CExLoadLib::`vftable'
	DD	FLAT:?LoadProcAddress@CExLoadLib@@UAEHXZ
CONST	ENDS
;	COMDAT ??_7CExGridCtrl@@6B@
CONST	SEGMENT
??_7CExGridCtrl@@6B@ DD FLAT:??_R4CExGridCtrl@@6B@	; CExGridCtrl::`vftable'
	DD	FLAT:?GetRuntimeClass@CExGridCtrl@@UBEPAUCRuntimeClass@@XZ
	DD	FLAT:??_ECExGridCtrl@@UAEPAXI@Z
	DD	FLAT:?Serialize@CObject@@UAEXAAVCArchive@@@Z
	DD	FLAT:?AssertValid@CObject@@UBEXXZ
	DD	FLAT:?Dump@CObject@@UBEXAAVCDumpContext@@@Z
	DD	FLAT:?OnCmdMsg@CCmdTarget@@UAEHIHPAXPAUAFX_CMDHANDLERINFO@@@Z
	DD	FLAT:?OnFinalRelease@CWnd@@UAEXXZ
	DD	FLAT:?IsInvokeAllowed@CCmdTarget@@UAEHJ@Z
	DD	FLAT:?GetDispatchIID@CCmdTarget@@UAEHPAU_GUID@@@Z
	DD	FLAT:?GetTypeInfoCount@CCmdTarget@@UAEIXZ
	DD	FLAT:?GetTypeLibCache@CCmdTarget@@UAEPAVCTypeLibCache@@XZ
	DD	FLAT:?GetTypeLib@CCmdTarget@@UAEJKPAPAUITypeLib@@@Z
	DD	FLAT:?GetMessageMap@CExGridCtrl@@MBEPBUAFX_MSGMAP@@XZ
	DD	FLAT:?GetCommandMap@CCmdTarget@@MBEPBUAFX_OLECMDMAP@@XZ
	DD	FLAT:?GetDispatchMap@CCmdTarget@@MBEPBUAFX_DISPMAP@@XZ
	DD	FLAT:?GetConnectionMap@CCmdTarget@@MBEPBUAFX_CONNECTIONMAP@@XZ
	DD	FLAT:?GetInterfaceMap@CWnd@@MBEPBUAFX_INTERFACEMAP@@XZ
	DD	FLAT:?GetEventSinkMap@CCmdTarget@@MBEPBUAFX_EVENTSINKMAP@@XZ
	DD	FLAT:?OnCreateAggregates@CCmdTarget@@UAEHXZ
	DD	FLAT:?GetInterfaceHook@CCmdTarget@@UAEPAUIUnknown@@PBX@Z
	DD	FLAT:?GetExtraConnectionPoints@CCmdTarget@@MAEHPAVCPtrArray@@@Z
	DD	FLAT:?GetConnectionHook@CCmdTarget@@MAEPAUIConnectionPoint@@ABU_GUID@@@Z
	DD	FLAT:?PreSubclassWindow@CExGridCtrl@@MAEXXZ
	DD	FLAT:?Create@CWnd@@UAEHPBD0KABUtagRECT@@PAV1@IPAUCCreateContext@@@Z
	DD	FLAT:?CreateEx@CWnd@@UAEHKPBD0KABUtagRECT@@PAV1@IPAX@Z
	DD	FLAT:?CreateEx@CWnd@@UAEHKPBD0KHHHHPAUHWND__@@PAUHMENU__@@PAX@Z
	DD	FLAT:?DestroyWindow@CWnd@@UAEHXZ
	DD	FLAT:?PreCreateWindow@CWnd@@UAEHAAUtagCREATESTRUCTA@@@Z
	DD	FLAT:?CalcWindowRect@CWnd@@UAEXPAUtagRECT@@I@Z
	DD	FLAT:?GetMenu@CWnd@@UBEPAVCMenu@@XZ
	DD	FLAT:?SetMenu@CWnd@@UAEHPAVCMenu@@@Z
	DD	FLAT:?OnToolHitTest@CWnd@@UBEHVCPoint@@PAUtagTOOLINFOA@@@Z
	DD	FLAT:?GetScrollBarCtrl@CWnd@@UBEPAVCScrollBar@@H@Z
	DD	FLAT:?WinHelpA@CWnd@@UAEXKI@Z
	DD	FLAT:?HtmlHelpA@CWnd@@UAEXKI@Z
	DD	FLAT:?WinHelpInternal@CWnd@@UAEXKI@Z
	DD	FLAT:?ContinueModal@CWnd@@UAEHXZ
	DD	FLAT:?EndModalLoop@CWnd@@UAEXH@Z
	DD	FLAT:?OnDrawIconicThumbnailOrLivePreview@CWnd@@UAEXAAVCDC@@VCRect@@VCSize@@HAAH@Z
	DD	FLAT:?EnsureStdObj@CWnd@@UAEJXZ
	DD	FLAT:?get_accParent@CWnd@@UAEJPAPAUIDispatch@@@Z
	DD	FLAT:?get_accChildCount@CWnd@@UAEJPAJ@Z
	DD	FLAT:?get_accChild@CWnd@@UAEJUtagVARIANT@@PAPAUIDispatch@@@Z
	DD	FLAT:?get_accName@CWnd@@UAEJUtagVARIANT@@PAPA_W@Z
	DD	FLAT:?get_accValue@CWnd@@UAEJUtagVARIANT@@PAPA_W@Z
	DD	FLAT:?get_accDescription@CWnd@@UAEJUtagVARIANT@@PAPA_W@Z
	DD	FLAT:?get_accRole@CWnd@@UAEJUtagVARIANT@@PAU2@@Z
	DD	FLAT:?get_accState@CWnd@@UAEJUtagVARIANT@@PAU2@@Z
	DD	FLAT:?get_accHelp@CWnd@@UAEJUtagVARIANT@@PAPA_W@Z
	DD	FLAT:?get_accHelpTopic@CWnd@@UAEJPAPA_WUtagVARIANT@@PAJ@Z
	DD	FLAT:?get_accKeyboardShortcut@CWnd@@UAEJUtagVARIANT@@PAPA_W@Z
	DD	FLAT:?get_accFocus@CWnd@@UAEJPAUtagVARIANT@@@Z
	DD	FLAT:?get_accSelection@CWnd@@UAEJPAUtagVARIANT@@@Z
	DD	FLAT:?get_accDefaultAction@CWnd@@UAEJUtagVARIANT@@PAPA_W@Z
	DD	FLAT:?accSelect@CWnd@@UAEJJUtagVARIANT@@@Z
	DD	FLAT:?accLocation@CWnd@@UAEJPAJ000UtagVARIANT@@@Z
	DD	FLAT:?accNavigate@CWnd@@UAEJJUtagVARIANT@@PAU2@@Z
	DD	FLAT:?accHitTest@CWnd@@UAEJJJPAUtagVARIANT@@@Z
	DD	FLAT:?accDoDefaultAction@CWnd@@UAEJUtagVARIANT@@@Z
	DD	FLAT:?put_accName@CWnd@@UAEJUtagVARIANT@@PA_W@Z
	DD	FLAT:?put_accValue@CWnd@@UAEJUtagVARIANT@@PA_W@Z
	DD	FLAT:?SetProxy@CWnd@@UAEJPAUIAccessibleProxy@@@Z
	DD	FLAT:?CreateAccessibleProxy@CWnd@@UAEJIJPAJ@Z
	DD	FLAT:?OnCommand@CWnd@@MAEHIJ@Z
	DD	FLAT:?OnNotify@CWnd@@MAEHIJPAJ@Z
	DD	FLAT:?GetSuperWndProcAddr@CWnd@@MAEPAP6GJPAUHWND__@@IIJ@ZXZ
	DD	FLAT:?DoDataExchange@CWnd@@MAEXPAVCDataExchange@@@Z
	DD	FLAT:?BeginModalState@CWnd@@UAEXXZ
	DD	FLAT:?EndModalState@CWnd@@UAEXXZ
	DD	FLAT:?PreTranslateMessage@CWnd@@UAEHPAUtagMSG@@@Z
	DD	FLAT:?OnAmbientProperty@CWnd@@UAEHPAVCOleControlSite@@JPAUtagVARIANT@@@Z
	DD	FLAT:?WindowProc@CExGridCtrl@@MAEJIIJ@Z
	DD	FLAT:?OnWndMsg@CWnd@@MAEHIIJPAJ@Z
	DD	FLAT:?DefWindowProcA@CWnd@@MAEJIIJ@Z
	DD	FLAT:?PostNcDestroy@CWnd@@MAEXXZ
	DD	FLAT:?OnChildNotify@CWnd@@MAEHIIJPAJ@Z
	DD	FLAT:?OnTouchInputs@CWnd@@MAEHIPAUtagTOUCHINPUT@@@Z
	DD	FLAT:?OnTouchInput@CWnd@@MAEHVCPoint@@HHPAUtagTOUCHINPUT@@@Z
	DD	FLAT:?GetGestureStatus@CWnd@@MAEKVCPoint@@@Z
	DD	FLAT:?OnGestureZoom@CWnd@@MAEHVCPoint@@J@Z
	DD	FLAT:?OnGesturePan@CWnd@@MAEHVCPoint@@0@Z
	DD	FLAT:?OnGestureRotate@CWnd@@MAEHVCPoint@@N@Z
	DD	FLAT:?OnGestureTwoFingerTap@CWnd@@MAEHVCPoint@@@Z
	DD	FLAT:?OnGesturePressAndTap@CWnd@@MAEHVCPoint@@J@Z
	DD	FLAT:?ResizeDynamicLayout@CWnd@@MAEXXZ
	DD	FLAT:?CheckAutoCenter@CWnd@@UAEHXZ
	DD	FLAT:?IsFrameWnd@CWnd@@UBEHXZ
	DD	FLAT:?CreateControlContainer@CWnd@@MAEHPAPAVCOleControlContainer@@@Z
	DD	FLAT:?CreateControlSite@CWnd@@MAEHPAVCOleControlContainer@@PAPAVCOleControlSite@@IABU_GUID@@@Z
	DD	FLAT:?SetOccDialogInfo@CWnd@@MAEHPAU_AFX_OCC_DIALOG_INFO@@@Z
	DD	FLAT:?GetOccDialogInfo@CWnd@@MAEPAU_AFX_OCC_DIALOG_INFO@@XZ
	DD	FLAT:?CutSelectedText@CExGridCtrl@@UAEXXZ
	DD	FLAT:?CopyTextFromGrid@CExGridCtrl@@UAEPAVCOleDataSource@@XZ
	DD	FLAT:?PasteTextToGrid@CExGridCtrl@@UAEHVCCellID@@PAVCOleDataObject@@H@Z
	DD	FLAT:?OnBeginDrag@CExGridCtrl@@UAEXXZ
	DD	FLAT:?OnDragEnter@CExGridCtrl@@UAEKPAVCOleDataObject@@KVCPoint@@@Z
	DD	FLAT:?OnDragOver@CExGridCtrl@@UAEKPAVCOleDataObject@@KVCPoint@@@Z
	DD	FLAT:?OnDragLeave@CExGridCtrl@@UAEXXZ
	DD	FLAT:?OnDrop@CExGridCtrl@@UAEHPAVCOleDataObject@@KVCPoint@@@Z
	DD	FLAT:?OnEditCut@CExGridCtrl@@UAEXXZ
	DD	FLAT:?OnEditCopy@CExGridCtrl@@UAEXXZ
	DD	FLAT:?OnEditPaste@CExGridCtrl@@UAEXXZ
	DD	FLAT:?OnEditSelectAll@CExGridCtrl@@UAEXXZ
	DD	FLAT:?CreateDragImage@CExGridCtrl@@MAEPAVCImageList@@PAVCPoint@@@Z
	DD	FLAT:?OnFixedColumnClick@CExGridCtrl@@MAEXAAVCCellID@@@Z
	DD	FLAT:?OnFixedRowClick@CExGridCtrl@@MAEXAAVCCellID@@@Z
	DD	FLAT:?OnEditCell@CExGridCtrl@@MAEXHHVCPoint@@I@Z
	DD	FLAT:?OnEndEditCell@CExGridCtrl@@MAEXHHV?$CStringT@DV?$StrTraitMFC_DLL@DV?$ChTraitsCRT@D@ATL@@@@@ATL@@@Z
	DD	FLAT:?ValidateEdit@CExGridCtrl@@MAEHHHPBD@Z
	DD	FLAT:?EndEditing@CExGridCtrl@@MAEXXZ
	DD	FLAT:?OnDraw@CExGridCtrl@@MAEXPAVCDC@@@Z
	DD	FLAT:?CreateCell@CExGridCtrl@@MAEPAVCGridCellBase@@HH@Z
	DD	FLAT:?DestroyCell@CExGridCtrl@@MAEXHH@Z
CONST	ENDS
;	COMDAT ?classCExGridCtrl@CExGridCtrl@@2UCRuntimeClass@@B
CONST	SEGMENT
?classCExGridCtrl@CExGridCtrl@@2UCRuntimeClass@@B DD FLAT:??_C@_0M@DNKIBNMP@CExGridCtrl@ ; CExGridCtrl::classCExGridCtrl
	DD	088H
	DD	0ffffH
	DD	FLAT:?CreateObject@CExGridCtrl@@SGPAVCObject@@XZ
	DD	FLAT:?_GetBaseClass@CExGridCtrl@@KGPAUCRuntimeClass@@XZ
	DD	00H
	DD	00H
CONST	ENDS
;	COMDAT ??_R2CCmdTarget@@8
rdata$r	SEGMENT
??_R2CCmdTarget@@8 DD FLAT:??_R1A@?0A@EA@CCmdTarget@@8	; CCmdTarget::`RTTI Base Class Array'
	DD	FLAT:??_R1A@?0A@EA@CObject@@8
rdata$r	ENDS
;	COMDAT ??_R3CCmdTarget@@8
rdata$r	SEGMENT
??_R3CCmdTarget@@8 DD 00H				; CCmdTarget::`RTTI Class Hierarchy Descriptor'
	DD	00H
	DD	02H
	DD	FLAT:??_R2CCmdTarget@@8
rdata$r	ENDS
;	COMDAT ??_R0?AVCCmdTarget@@@8
data$rs	SEGMENT
??_R0?AVCCmdTarget@@@8 DD FLAT:??_7type_info@@6B@	; CCmdTarget `RTTI Type Descriptor'
	DD	00H
	DB	'.?AVCCmdTarget@@', 00H
data$rs	ENDS
;	COMDAT ??_R1A@?0A@EA@CCmdTarget@@8
rdata$r	SEGMENT
??_R1A@?0A@EA@CCmdTarget@@8 DD FLAT:??_R0?AVCCmdTarget@@@8 ; CCmdTarget::`RTTI Base Class Descriptor at (0,-1,0,64)'
	DD	01H
	DD	00H
	DD	0ffffffffH
	DD	00H
	DD	040H
	DD	FLAT:??_R3CCmdTarget@@8
rdata$r	ENDS
;	COMDAT ??_R2CWnd@@8
rdata$r	SEGMENT
??_R2CWnd@@8 DD	FLAT:??_R1A@?0A@EA@CWnd@@8		; CWnd::`RTTI Base Class Array'
	DD	FLAT:??_R1A@?0A@EA@CCmdTarget@@8
	DD	FLAT:??_R1A@?0A@EA@CObject@@8
rdata$r	ENDS
;	COMDAT ??_R3CWnd@@8
rdata$r	SEGMENT
??_R3CWnd@@8 DD	00H					; CWnd::`RTTI Class Hierarchy Descriptor'
	DD	00H
	DD	03H
	DD	FLAT:??_R2CWnd@@8
rdata$r	ENDS
;	COMDAT ??_R0?AVCWnd@@@8
data$rs	SEGMENT
??_R0?AVCWnd@@@8 DD FLAT:??_7type_info@@6B@		; CWnd `RTTI Type Descriptor'
	DD	00H
	DB	'.?AVCWnd@@', 00H
data$rs	ENDS
;	COMDAT ??_R1A@?0A@EA@CWnd@@8
rdata$r	SEGMENT
??_R1A@?0A@EA@CWnd@@8 DD FLAT:??_R0?AVCWnd@@@8		; CWnd::`RTTI Base Class Descriptor at (0,-1,0,64)'
	DD	02H
	DD	00H
	DD	0ffffffffH
	DD	00H
	DD	040H
	DD	FLAT:??_R3CWnd@@8
rdata$r	ENDS
;	COMDAT ??_R1A@?0A@EA@CObject@@8
rdata$r	SEGMENT
??_R1A@?0A@EA@CObject@@8 DD FLAT:??_R0?AVCObject@@@8	; CObject::`RTTI Base Class Descriptor at (0,-1,0,64)'
	DD	00H
	DD	00H
	DD	0ffffffffH
	DD	00H
	DD	040H
	DD	FLAT:??_R3CObject@@8
rdata$r	ENDS
;	COMDAT ??_R2CObject@@8
rdata$r	SEGMENT
??_R2CObject@@8 DD FLAT:??_R1A@?0A@EA@CObject@@8	; CObject::`RTTI Base Class Array'
rdata$r	ENDS
;	COMDAT ??_R3CObject@@8
rdata$r	SEGMENT
??_R3CObject@@8 DD 00H					; CObject::`RTTI Class Hierarchy Descriptor'
	DD	00H
	DD	01H
	DD	FLAT:??_R2CObject@@8
rdata$r	ENDS
;	COMDAT ??_R0?AVCObject@@@8
data$rs	SEGMENT
??_R0?AVCObject@@@8 DD FLAT:??_7type_info@@6B@		; CObject `RTTI Type Descriptor'
	DD	00H
	DB	'.?AVCObject@@', 00H
data$rs	ENDS
;	COMDAT ??_C@_00CNPNBAHC@@
CONST	SEGMENT
??_C@_00CNPNBAHC@@ DB 00H				; `string'
CONST	ENDS
;	COMDAT xdata$x
xdata$x	SEGMENT
__unwindtable$??_GCLoaderGridCtrl@@UAEPAXI@Z DD 0ffffffffH
	DD	FLAT:___std_terminate
__ehfuncinfo$??_GCLoaderGridCtrl@@UAEPAXI@Z DD 019930522H
	DD	01H
	DD	FLAT:__unwindtable$??_GCLoaderGridCtrl@@UAEPAXI@Z
	DD	2 DUP(00H)
	DD	2 DUP(00H)
	DD	00H
	DD	05H
xdata$x	ENDS
;	COMDAT xdata$x
xdata$x	SEGMENT
__unwindtable$?OnEndEditCell@CLoaderGridCtrl@@QAEXHHV?$CStringT@DV?$StrTraitMFC_DLL@DV?$ChTraitsCRT@D@ATL@@@@@ATL@@@Z DD 0ffffffffH
	DD	FLAT:__unwindfunclet$?OnEndEditCell@CLoaderGridCtrl@@QAEXHHV?$CStringT@DV?$StrTraitMFC_DLL@DV?$ChTraitsCRT@D@ATL@@@@@ATL@@@Z$0
__ehfuncinfo$?OnEndEditCell@CLoaderGridCtrl@@QAEXHHV?$CStringT@DV?$StrTraitMFC_DLL@DV?$ChTraitsCRT@D@ATL@@@@@ATL@@@Z DD 019930522H
	DD	01H
	DD	FLAT:__unwindtable$?OnEndEditCell@CLoaderGridCtrl@@QAEXHHV?$CStringT@DV?$StrTraitMFC_DLL@DV?$ChTraitsCRT@D@ATL@@@@@ATL@@@Z
	DD	2 DUP(00H)
	DD	2 DUP(00H)
	DD	00H
	DD	01H
xdata$x	ENDS
;	COMDAT xdata$x
xdata$x	SEGMENT
__unwindtable$?GetItemText@CLoaderGridCtrl@@QAE?AV?$CStringT@DV?$StrTraitMFC_DLL@DV?$ChTraitsCRT@D@ATL@@@@@ATL@@HH@Z DD 0ffffffffH
	DD	FLAT:__unwindfunclet$?GetItemText@CLoaderGridCtrl@@QAE?AV?$CStringT@DV?$StrTraitMFC_DLL@DV?$ChTraitsCRT@D@ATL@@@@@ATL@@HH@Z$1
__ehfuncinfo$?GetItemText@CLoaderGridCtrl@@QAE?AV?$CStringT@DV?$StrTraitMFC_DLL@DV?$ChTraitsCRT@D@ATL@@@@@ATL@@HH@Z DD 019930522H
	DD	01H
	DD	FLAT:__unwindtable$?GetItemText@CLoaderGridCtrl@@QAE?AV?$CStringT@DV?$StrTraitMFC_DLL@DV?$ChTraitsCRT@D@ATL@@@@@ATL@@HH@Z
	DD	2 DUP(00H)
	DD	2 DUP(00H)
	DD	00H
	DD	01H
xdata$x	ENDS
;	COMDAT xdata$x
xdata$x	SEGMENT
__ehfuncinfo$??1CLoaderGridCtrl@@UAE@XZ DD 019930522H
	DD	00H
	DD	00H
	DD	2 DUP(00H)
	DD	2 DUP(00H)
	DD	00H
	DD	05H
xdata$x	ENDS
;	COMDAT xdata$x
xdata$x	SEGMENT
__ehfuncinfo$??0CLoaderGridCtrl@@QAE@PAXPBD@Z DD 019930522H
	DD	05H
	DD	FLAT:__unwindtable$??0CLoaderGridCtrl@@QAE@PAXPBD@Z
	DD	2 DUP(00H)
	DD	2 DUP(00H)
	DD	00H
	DD	01H
__unwindtable$??0CLoaderGridCtrl@@QAE@PAXPBD@Z DD 0ffffffffH
	DD	FLAT:__unwindfunclet$??0CLoaderGridCtrl@@QAE@PAXPBD@Z$0
	DD	00H
	DD	FLAT:__unwindfunclet$??0CLoaderGridCtrl@@QAE@PAXPBD@Z$1
	DD	01H
	DD	FLAT:__unwindfunclet$??0CLoaderGridCtrl@@QAE@PAXPBD@Z$2
	DD	02H
	DD	FLAT:__unwindfunclet$??0CLoaderGridCtrl@@QAE@PAXPBD@Z$3
	DD	02H
	DD	FLAT:__unwindfunclet$??0CLoaderGridCtrl@@QAE@PAXPBD@Z$4
xdata$x	ENDS
;	COMDAT xdata$x
xdata$x	SEGMENT
__unwindtable$?GetDir_DrfnBin@@YAXAAV?$CStringT@DV?$StrTraitMFC_DLL@DV?$ChTraitsCRT@D@ATL@@@@@ATL@@@Z DD 0ffffffffH
	DD	FLAT:__unwindfunclet$?GetDir_DrfnBin@@YAXAAV?$CStringT@DV?$StrTraitMFC_DLL@DV?$ChTraitsCRT@D@ATL@@@@@ATL@@@Z$0
	DD	00H
	DD	FLAT:__unwindfunclet$?GetDir_DrfnBin@@YAXAAV?$CStringT@DV?$StrTraitMFC_DLL@DV?$ChTraitsCRT@D@ATL@@@@@ATL@@@Z$1
	DD	00H
	DD	FLAT:__unwindfunclet$?GetDir_DrfnBin@@YAXAAV?$CStringT@DV?$StrTraitMFC_DLL@DV?$ChTraitsCRT@D@ATL@@@@@ATL@@@Z$2
__ehfuncinfo$?GetDir_DrfnBin@@YAXAAV?$CStringT@DV?$StrTraitMFC_DLL@DV?$ChTraitsCRT@D@ATL@@@@@ATL@@@Z DD 019930522H
	DD	03H
	DD	FLAT:__unwindtable$?GetDir_DrfnBin@@YAXAAV?$CStringT@DV?$StrTraitMFC_DLL@DV?$ChTraitsCRT@D@ATL@@@@@ATL@@@Z
	DD	2 DUP(00H)
	DD	2 DUP(00H)
	DD	00H
	DD	01H
xdata$x	ENDS
;	COMDAT xdata$x
xdata$x	SEGMENT
__unwindtable$?GetDir_DrfnRoot@@YAXAAV?$CStringT@DV?$StrTraitMFC_DLL@DV?$ChTraitsCRT@D@ATL@@@@@ATL@@@Z DD 0ffffffffH
	DD	FLAT:__unwindfunclet$?GetDir_DrfnRoot@@YAXAAV?$CStringT@DV?$StrTraitMFC_DLL@DV?$ChTraitsCRT@D@ATL@@@@@ATL@@@Z$0
	DD	00H
	DD	FLAT:__unwindfunclet$?GetDir_DrfnRoot@@YAXAAV?$CStringT@DV?$StrTraitMFC_DLL@DV?$ChTraitsCRT@D@ATL@@@@@ATL@@@Z$1
	DD	00H
	DD	FLAT:__unwindfunclet$?GetDir_DrfnRoot@@YAXAAV?$CStringT@DV?$StrTraitMFC_DLL@DV?$ChTraitsCRT@D@ATL@@@@@ATL@@@Z$2
__ehfuncinfo$?GetDir_DrfnRoot@@YAXAAV?$CStringT@DV?$StrTraitMFC_DLL@DV?$ChTraitsCRT@D@ATL@@@@@ATL@@@Z DD 019930522H
	DD	03H
	DD	FLAT:__unwindtable$?GetDir_DrfnRoot@@YAXAAV?$CStringT@DV?$StrTraitMFC_DLL@DV?$ChTraitsCRT@D@ATL@@@@@ATL@@@Z
	DD	2 DUP(00H)
	DD	2 DUP(00H)
	DD	00H
	DD	01H
xdata$x	ENDS
;	COMDAT xdata$x
xdata$x	SEGMENT
__unwindtable$??_GCExGridCtrl@@UAEPAXI@Z DD 0ffffffffH
	DD	FLAT:___std_terminate
__ehfuncinfo$??_GCExGridCtrl@@UAEPAXI@Z DD 019930522H
	DD	01H
	DD	FLAT:__unwindtable$??_GCExGridCtrl@@UAEPAXI@Z
	DD	2 DUP(00H)
	DD	2 DUP(00H)
	DD	00H
	DD	05H
xdata$x	ENDS
;	COMDAT xdata$x
xdata$x	SEGMENT
__unwindtable$?OnEndEditCell@CExGridCtrl@@MAEXHHV?$CStringT@DV?$StrTraitMFC_DLL@DV?$ChTraitsCRT@D@ATL@@@@@ATL@@@Z DD 0ffffffffH
	DD	FLAT:__unwindfunclet$?OnEndEditCell@CExGridCtrl@@MAEXHHV?$CStringT@DV?$StrTraitMFC_DLL@DV?$ChTraitsCRT@D@ATL@@@@@ATL@@@Z$0
	DD	00H
	DD	FLAT:__unwindfunclet$?OnEndEditCell@CExGridCtrl@@MAEXHHV?$CStringT@DV?$StrTraitMFC_DLL@DV?$ChTraitsCRT@D@ATL@@@@@ATL@@@Z$2
__ehfuncinfo$?OnEndEditCell@CExGridCtrl@@MAEXHHV?$CStringT@DV?$StrTraitMFC_DLL@DV?$ChTraitsCRT@D@ATL@@@@@ATL@@@Z DD 019930522H
	DD	02H
	DD	FLAT:__unwindtable$?OnEndEditCell@CExGridCtrl@@MAEXHHV?$CStringT@DV?$StrTraitMFC_DLL@DV?$ChTraitsCRT@D@ATL@@@@@ATL@@@Z
	DD	2 DUP(00H)
	DD	2 DUP(00H)
	DD	00H
	DD	01H
xdata$x	ENDS
;	COMDAT xdata$x
xdata$x	SEGMENT
__ehfuncinfo$??1CExGridCtrl@@UAE@XZ DD 019930522H
	DD	00H
	DD	00H
	DD	2 DUP(00H)
	DD	2 DUP(00H)
	DD	00H
	DD	05H
xdata$x	ENDS
;	COMDAT xdata$x
xdata$x	SEGMENT
__unwindtable$?GetItemText@CExGridCtrl@@QAE?AV?$CStringT@DV?$StrTraitMFC_DLL@DV?$ChTraitsCRT@D@ATL@@@@@ATL@@HH@Z DD 0ffffffffH
	DD	FLAT:__unwindfunclet$?GetItemText@CExGridCtrl@@QAE?AV?$CStringT@DV?$StrTraitMFC_DLL@DV?$ChTraitsCRT@D@ATL@@@@@ATL@@HH@Z$2
__ehfuncinfo$?GetItemText@CExGridCtrl@@QAE?AV?$CStringT@DV?$StrTraitMFC_DLL@DV?$ChTraitsCRT@D@ATL@@@@@ATL@@HH@Z DD 019930522H
	DD	01H
	DD	FLAT:__unwindtable$?GetItemText@CExGridCtrl@@QAE?AV?$CStringT@DV?$StrTraitMFC_DLL@DV?$ChTraitsCRT@D@ATL@@@@@ATL@@HH@Z
	DD	2 DUP(00H)
	DD	2 DUP(00H)
	DD	00H
	DD	01H
xdata$x	ENDS
;	COMDAT xdata$x
xdata$x	SEGMENT
__unwindtable$?Create@CExGridCtrl@@QAEHAAUtagRECT@@PAVCWnd@@IK@Z DD 0ffffffffH
	DD	FLAT:__unwindfunclet$?Create@CExGridCtrl@@QAEHAAUtagRECT@@PAVCWnd@@IK@Z$0
__ehfuncinfo$?Create@CExGridCtrl@@QAEHAAUtagRECT@@PAVCWnd@@IK@Z DD 019930522H
	DD	01H
	DD	FLAT:__unwindtable$?Create@CExGridCtrl@@QAEHAAUtagRECT@@PAVCWnd@@IK@Z
	DD	2 DUP(00H)
	DD	2 DUP(00H)
	DD	00H
	DD	01H
xdata$x	ENDS
;	COMDAT xdata$x
xdata$x	SEGMENT
__unwindtable$??0CExGridCtrl@@QAE@HHHH@Z DD 0ffffffffH
	DD	FLAT:__unwindfunclet$??0CExGridCtrl@@QAE@HHHH@Z$0
	DD	00H
	DD	FLAT:__unwindfunclet$??0CExGridCtrl@@QAE@HHHH@Z$1
__ehfuncinfo$??0CExGridCtrl@@QAE@HHHH@Z DD 019930522H
	DD	02H
	DD	FLAT:__unwindtable$??0CExGridCtrl@@QAE@HHHH@Z
	DD	2 DUP(00H)
	DD	2 DUP(00H)
	DD	00H
	DD	01H
xdata$x	ENDS
;	COMDAT xdata$x
xdata$x	SEGMENT
__unwindtable$?CreateObject@CExGridCtrl@@SGPAVCObject@@XZ DD 0ffffffffH
	DD	FLAT:__unwindfunclet$?CreateObject@CExGridCtrl@@SGPAVCObject@@XZ$0
	DD	00H
	DD	FLAT:__unwindfunclet$?CreateObject@CExGridCtrl@@SGPAVCObject@@XZ$1
	DD	01H
	DD	FLAT:__unwindfunclet$?CreateObject@CExGridCtrl@@SGPAVCObject@@XZ$2
__ehfuncinfo$?CreateObject@CExGridCtrl@@SGPAVCObject@@XZ DD 019930522H
	DD	03H
	DD	FLAT:__unwindtable$?CreateObject@CExGridCtrl@@SGPAVCObject@@XZ
	DD	2 DUP(00H)
	DD	2 DUP(00H)
	DD	00H
	DD	01H
xdata$x	ENDS
; Function compile flags: /Odsp
;	COMDAT ??_9CExGridCtrl@@$BBJE@AE
_TEXT	SEGMENT
??_9CExGridCtrl@@$BBJE@AE PROC				; CExGridCtrl::`vcall'{404}', COMDAT
  00000	8b 01		 mov	 eax, DWORD PTR [ecx]
  00002	ff a0 94 01 00
	00		 jmp	 DWORD PTR [eax+404]
??_9CExGridCtrl@@$BBJE@AE ENDP				; CExGridCtrl::`vcall'{404}'
_TEXT	ENDS
; Function compile flags: /Odsp
;	COMDAT ??_9CExGridCtrl@@$BBIM@AE
_TEXT	SEGMENT
??_9CExGridCtrl@@$BBIM@AE PROC				; CExGridCtrl::`vcall'{396}', COMDAT
  00000	8b 01		 mov	 eax, DWORD PTR [ecx]
  00002	ff a0 8c 01 00
	00		 jmp	 DWORD PTR [eax+396]
??_9CExGridCtrl@@$BBIM@AE ENDP				; CExGridCtrl::`vcall'{396}'
_TEXT	ENDS
; Function compile flags: /Odsp
;	COMDAT ??_9CExGridCtrl@@$BBJA@AE
_TEXT	SEGMENT
??_9CExGridCtrl@@$BBJA@AE PROC				; CExGridCtrl::`vcall'{400}', COMDAT
  00000	8b 01		 mov	 eax, DWORD PTR [ecx]
  00002	ff a0 90 01 00
	00		 jmp	 DWORD PTR [eax+400]
??_9CExGridCtrl@@$BBJA@AE ENDP				; CExGridCtrl::`vcall'{400}'
_TEXT	ENDS
; Function compile flags: /Odsp
;	COMDAT ??_9CExGridCtrl@@$BBJI@AE
_TEXT	SEGMENT
??_9CExGridCtrl@@$BBJI@AE PROC				; CExGridCtrl::`vcall'{408}', COMDAT
  00000	8b 01		 mov	 eax, DWORD PTR [ecx]
  00002	ff a0 98 01 00
	00		 jmp	 DWORD PTR [eax+408]
??_9CExGridCtrl@@$BBJI@AE ENDP				; CExGridCtrl::`vcall'{408}'
_TEXT	ENDS
; Function compile flags: /Ogtp
; File D:\git\src\IBK\IBK_DRFN\ProjSrc\SrcDrfn\Chart\ExControl\Include\GirdLoadHelper.h
; File D:\git\src\IBK\IBK_DRFN\ProjSrc\SrcDrfn\Chart\ExControl\Include\BaseLoadHelper.h
;	COMDAT ??_GCLoaderGridCtrl@@UAEPAXI@Z
_TEXT	SEGMENT
__$EHRec$ = -12						; size = 12
___flags$ = 8						; size = 4
??_GCLoaderGridCtrl@@UAEPAXI@Z PROC			; CLoaderGridCtrl::`scalar deleting destructor', COMDAT
; _this$ = ecx
  00000	55		 push	 ebp
  00001	8b ec		 mov	 ebp, esp
  00003	6a ff		 push	 -1
  00005	68 00 00 00 00	 push	 __ehhandler$??_GCLoaderGridCtrl@@UAEPAXI@Z
  0000a	64 a1 00 00 00
	00		 mov	 eax, DWORD PTR fs:0
  00010	50		 push	 eax
  00011	56		 push	 esi
  00012	a1 00 00 00 00	 mov	 eax, DWORD PTR ___security_cookie
  00017	33 c5		 xor	 eax, ebp
  00019	50		 push	 eax
  0001a	8d 45 f4	 lea	 eax, DWORD PTR __$EHRec$[ebp]
  0001d	64 a3 00 00 00
	00		 mov	 DWORD PTR fs:0, eax
  00023	8b f1		 mov	 esi, ecx
; File D:\git\src\IBK\IBK_DRFN\ProjSrc\SrcDrfn\Chart\ExControl\Include\GirdLoadHelper.h

; 635  : 		if(m_hLib)

  00025	8b 46 04	 mov	 eax, DWORD PTR [esi+4]
  00028	c7 45 fc 00 00
	00 00		 mov	 DWORD PTR __$EHRec$[ebp+8], 0
  0002f	c7 06 00 00 00
	00		 mov	 DWORD PTR [esi], OFFSET ??_7CLoaderGridCtrl@@6B@
  00035	85 c0		 test	 eax, eax
  00037	74 11		 je	 SHORT $LN5@scalar

; 636  : 			pExitGridCtrl(m_lpPointer);

  00039	ff b6 0c 01 00
	00		 push	 DWORD PTR [esi+268]
  0003f	8b 86 18 01 00
	00		 mov	 eax, DWORD PTR [esi+280]
  00045	ff d0		 call	 eax
  00047	8b 46 04	 mov	 eax, DWORD PTR [esi+4]
$LN5@scalar:
; File D:\git\src\IBK\IBK_DRFN\ProjSrc\SrcDrfn\Chart\ExControl\Include\BaseLoadHelper.h

; 13   : 	{

  0004a	c7 06 00 00 00
	00		 mov	 DWORD PTR [esi], OFFSET ??_7CExLoadLib@@6B@

; 53   : 		if(!m_hLib)

  00050	85 c0		 test	 eax, eax
  00052	74 0e		 je	 SHORT $LN10@scalar

; 54   : 			return TRUE;
; 55   : 
; 56   : 		BOOL bResult = ::FreeLibrary(m_hLib);

  00054	50		 push	 eax
  00055	ff 15 00 00 00
	00		 call	 DWORD PTR __imp__FreeLibrary@4

; 57   : 		
; 58   : 		m_hLib = NULL;

  0005b	c7 46 04 00 00
	00 00		 mov	 DWORD PTR [esi+4], 0
$LN10@scalar:
  00062	f6 45 08 01	 test	 BYTE PTR ___flags$[ebp], 1
  00066	74 0e		 je	 SHORT $LN13@scalar
  00068	68 ac 05 00 00	 push	 1452			; 000005acH
  0006d	56		 push	 esi
  0006e	e8 00 00 00 00	 call	 ??3@YAXPAXI@Z		; operator delete
  00073	83 c4 08	 add	 esp, 8
$LN13@scalar:
  00076	8b c6		 mov	 eax, esi
  00078	8b 4d f4	 mov	 ecx, DWORD PTR __$EHRec$[ebp]
  0007b	64 89 0d 00 00
	00 00		 mov	 DWORD PTR fs:0, ecx
  00082	59		 pop	 ecx
  00083	5e		 pop	 esi
  00084	8b e5		 mov	 esp, ebp
  00086	5d		 pop	 ebp
  00087	c2 04 00	 ret	 4
  0008a	cc		 int	 3
  0008b	cc		 int	 3
  0008c	cc		 int	 3
  0008d	cc		 int	 3
  0008e	cc		 int	 3
_TEXT	ENDS
;	COMDAT text$x
text$x	SEGMENT
__ehhandler$??_GCLoaderGridCtrl@@UAEPAXI@Z:
  00000	90		 npad	 1
  00001	90		 npad	 1
  00002	8b 54 24 08	 mov	 edx, DWORD PTR [esp+8]
  00006	8d 42 0c	 lea	 eax, DWORD PTR [edx+12]
  00009	8b 4a f8	 mov	 ecx, DWORD PTR [edx-8]
  0000c	33 c8		 xor	 ecx, eax
  0000e	e8 00 00 00 00	 call	 @__security_check_cookie@4
  00013	b8 00 00 00 00	 mov	 eax, OFFSET __ehfuncinfo$??_GCLoaderGridCtrl@@UAEPAXI@Z
  00018	e9 00 00 00 00	 jmp	 ___CxxFrameHandler3
text$x	ENDS
??_GCLoaderGridCtrl@@UAEPAXI@Z ENDP			; CLoaderGridCtrl::`scalar deleting destructor'
; Function compile flags: /Ogtp
; File D:\git\src\IBK\IBK_DRFN\ProjSrc\SrcDrfn\Chart\ExControl\Include\GirdLoadHelper.h
;	COMDAT ?LoadProcAddress@CLoaderGridCtrl@@UAEHXZ
_TEXT	SEGMENT
?LoadProcAddress@CLoaderGridCtrl@@UAEHXZ PROC		; CLoaderGridCtrl::LoadProcAddress, COMDAT
; _this$ = ecx

; 640  : 	{

  00000	57		 push	 edi
  00001	8b f9		 mov	 edi, ecx

; 641  : 		if(!m_hLib)

  00003	8b 47 04	 mov	 eax, DWORD PTR [edi+4]
  00006	85 c0		 test	 eax, eax
  00008	75 02		 jne	 SHORT $LN2@LoadProcAd
  0000a	5f		 pop	 edi

; 944  : 	}

  0000b	c3		 ret	 0
$LN2@LoadProcAd:
  0000c	56		 push	 esi

; 642  : 		{
; 643  : 			TRACE0("CLoaderGridCtrl GetProcAddress Load ");
; 644  : 			return FALSE;
; 645  : 		}
; 646  : 
; 647  : 		pActionControl	= (FpActionControl)::GetProcAddress(m_hLib, "Ex_ActionControl");

  0000d	8b 35 00 00 00
	00		 mov	 esi, DWORD PTR __imp__GetProcAddress@8
  00013	68 00 00 00 00	 push	 OFFSET ??_C@_0BB@JBDOCKKP@Ex_ActionControl@
  00018	50		 push	 eax
  00019	ff d6		 call	 esi

; 648  : 		pInitGridCtrl	= (FpInitGridCtrl)::GetProcAddress(m_hLib, "Ex_InitGridCtrl");

  0001b	68 00 00 00 00	 push	 OFFSET ??_C@_0BA@GMJHGOJC@Ex_InitGridCtrl@
  00020	ff 77 04	 push	 DWORD PTR [edi+4]
  00023	89 87 10 01 00
	00		 mov	 DWORD PTR [edi+272], eax
  00029	ff d6		 call	 esi

; 649  : 		pExitGridCtrl	= (FpExitGridCtrl)::GetProcAddress(m_hLib, "Ex_ExitGridCtrl");

  0002b	68 00 00 00 00	 push	 OFFSET ??_C@_0BA@BFAIJPHF@Ex_ExitGridCtrl@
  00030	ff 77 04	 push	 DWORD PTR [edi+4]
  00033	89 87 14 01 00
	00		 mov	 DWORD PTR [edi+276], eax
  00039	ff d6		 call	 esi

; 650  : 		pCreate	= (FpCreate)::GetProcAddress(m_hLib, "Ex_Create");

  0003b	68 00 00 00 00	 push	 OFFSET ??_C@_09JKICPNB@Ex_Create@
  00040	ff 77 04	 push	 DWORD PTR [edi+4]
  00043	89 87 18 01 00
	00		 mov	 DWORD PTR [edi+280], eax
  00049	ff d6		 call	 esi

; 651  : 		pGetRowCount	= (FpGetRowCount)::GetProcAddress(m_hLib, "Ex_GetRowCount");

  0004b	68 00 00 00 00	 push	 OFFSET ??_C@_0P@HLDJAFE@Ex_GetRowCount@
  00050	ff 77 04	 push	 DWORD PTR [edi+4]
  00053	89 87 1c 01 00
	00		 mov	 DWORD PTR [edi+284], eax
  00059	ff d6		 call	 esi

; 652  : 		pGetColumnCount	= (FpGetColumnCount)::GetProcAddress(m_hLib, "Ex_GetColumnCount");

  0005b	68 00 00 00 00	 push	 OFFSET ??_C@_0BC@IDEBPJNH@Ex_GetColumnCount@
  00060	ff 77 04	 push	 DWORD PTR [edi+4]
  00063	89 87 20 01 00
	00		 mov	 DWORD PTR [edi+288], eax
  00069	ff d6		 call	 esi

; 653  : 		pGetFixedRowCount	= (FpGetFixedRowCount)::GetProcAddress(m_hLib, "Ex_GetFixedRowCount");

  0006b	68 00 00 00 00	 push	 OFFSET ??_C@_0BE@BPKLHENI@Ex_GetFixedRowCount@
  00070	ff 77 04	 push	 DWORD PTR [edi+4]
  00073	89 87 24 01 00
	00		 mov	 DWORD PTR [edi+292], eax
  00079	ff d6		 call	 esi

; 654  : 		pGetFixedColumnCount	= (FpGetFixedColumnCount)::GetProcAddress(m_hLib, "Ex_GetFixedColumnCount");

  0007b	68 00 00 00 00	 push	 OFFSET ??_C@_0BH@ECBALFJF@Ex_GetFixedColumnCount@
  00080	ff 77 04	 push	 DWORD PTR [edi+4]
  00083	89 87 28 01 00
	00		 mov	 DWORD PTR [edi+296], eax
  00089	ff d6		 call	 esi

; 655  : 		pSetRowCount	= (FpSetRowCount)::GetProcAddress(m_hLib, "Ex_SetRowCount");

  0008b	68 00 00 00 00	 push	 OFFSET ??_C@_0P@IKNEGNH@Ex_SetRowCount@
  00090	ff 77 04	 push	 DWORD PTR [edi+4]
  00093	89 87 2c 01 00
	00		 mov	 DWORD PTR [edi+300], eax
  00099	ff d6		 call	 esi

; 656  : 		pSetColumnCount	= (FpSetColumnCount)::GetProcAddress(m_hLib, "Ex_SetColumnCount");

  0009b	68 00 00 00 00	 push	 OFFSET ??_C@_0BC@ENFPADPL@Ex_SetColumnCount@
  000a0	ff 77 04	 push	 DWORD PTR [edi+4]
  000a3	89 87 30 01 00
	00		 mov	 DWORD PTR [edi+304], eax
  000a9	ff d6		 call	 esi

; 657  : 		pSetFixedRowCount	= (FpSetFixedRowCount)::GetProcAddress(m_hLib, "Ex_SetFixedRowCount");

  000ab	68 00 00 00 00	 push	 OFFSET ??_C@_0BE@HLPCMKGK@Ex_SetFixedRowCount@
  000b0	ff 77 04	 push	 DWORD PTR [edi+4]
  000b3	89 87 34 01 00
	00		 mov	 DWORD PTR [edi+308], eax
  000b9	ff d6		 call	 esi

; 658  : 		pSetFixedColumnCount	= (FpSetFixedColumnCount)::GetProcAddress(m_hLib, "Ex_SetFixedColumnCount");

  000bb	68 00 00 00 00	 push	 OFFSET ??_C@_0BH@OMDLPFOJ@Ex_SetFixedColumnCount@
  000c0	ff 77 04	 push	 DWORD PTR [edi+4]
  000c3	89 87 38 01 00
	00		 mov	 DWORD PTR [edi+312], eax
  000c9	ff d6		 call	 esi

; 659  : 		pGetRowHeight	= (FpGetRowHeight)::GetProcAddress(m_hLib, "Ex_GetRowHeight");

  000cb	68 00 00 00 00	 push	 OFFSET ??_C@_0BA@EJOKICAO@Ex_GetRowHeight@
  000d0	ff 77 04	 push	 DWORD PTR [edi+4]
  000d3	89 87 3c 01 00
	00		 mov	 DWORD PTR [edi+316], eax
  000d9	ff d6		 call	 esi

; 660  : 		pSetRowHeight	= (FpSetRowHeight)::GetProcAddress(m_hLib, "Ex_SetRowHeight");

  000db	68 00 00 00 00	 push	 OFFSET ??_C@_0BA@DNFEEOEC@Ex_SetRowHeight@
  000e0	ff 77 04	 push	 DWORD PTR [edi+4]
  000e3	89 87 40 01 00
	00		 mov	 DWORD PTR [edi+320], eax
  000e9	ff d6		 call	 esi

; 661  : 		pGetColumnWidth	= (FpGetColumnWidth)::GetProcAddress(m_hLib, "Ex_GetColumnWidth");

  000eb	68 00 00 00 00	 push	 OFFSET ??_C@_0BC@ILCFAHPL@Ex_GetColumnWidth@
  000f0	ff 77 04	 push	 DWORD PTR [edi+4]
  000f3	89 87 44 01 00
	00		 mov	 DWORD PTR [edi+324], eax
  000f9	ff d6		 call	 esi

; 662  : 		pSetColumnWidth	= (FpSetColumnWidth)::GetProcAddress(m_hLib, "Ex_SetColumnWidth");

  000fb	68 00 00 00 00	 push	 OFFSET ??_C@_0BC@EFDLPNNH@Ex_SetColumnWidth@
  00100	ff 77 04	 push	 DWORD PTR [edi+4]
  00103	89 87 48 01 00
	00		 mov	 DWORD PTR [edi+328], eax
  00109	ff d6		 call	 esi

; 663  : 		pGetCellOrigin	= (FpGetCellOrigin)::GetProcAddress(m_hLib, "Ex_GetCellOrigin");

  0010b	68 00 00 00 00	 push	 OFFSET ??_C@_0BB@MGANLAPA@Ex_GetCellOrigin@
  00110	ff 77 04	 push	 DWORD PTR [edi+4]
  00113	89 87 4c 01 00
	00		 mov	 DWORD PTR [edi+332], eax
  00119	ff d6		 call	 esi

; 664  : 		pGetCellOrigin2	= (FpGetCellOrigin2)::GetProcAddress(m_hLib, "Ex_GetCellOrigin2");

  0011b	68 00 00 00 00	 push	 OFFSET ??_C@_0BC@FAALKLNN@Ex_GetCellOrigin2@
  00120	ff 77 04	 push	 DWORD PTR [edi+4]
  00123	89 87 50 01 00
	00		 mov	 DWORD PTR [edi+336], eax
  00129	ff d6		 call	 esi

; 665  : 		pGetCellRect	= (FpGetCellRect)::GetProcAddress(m_hLib, "Ex_GetCellRect");

  0012b	68 00 00 00 00	 push	 OFFSET ??_C@_0P@LPJLBNIC@Ex_GetCellRect@
  00130	ff 77 04	 push	 DWORD PTR [edi+4]
  00133	89 87 54 01 00
	00		 mov	 DWORD PTR [edi+340], eax
  00139	ff d6		 call	 esi

; 666  : 		pGetCellRect2	= (FpGetCellRect2)::GetProcAddress(m_hLib, "Ex_GetCellRect2");

  0013b	68 00 00 00 00	 push	 OFFSET ??_C@_0BA@OOHJCNGA@Ex_GetCellRect2@
  00140	ff 77 04	 push	 DWORD PTR [edi+4]
  00143	89 87 58 01 00
	00		 mov	 DWORD PTR [edi+344], eax
  00149	ff d6		 call	 esi

; 667  : 		pGetTextRect	= (FpGetTextRect)::GetProcAddress(m_hLib, "Ex_GetTextRect");

  0014b	68 00 00 00 00	 push	 OFFSET ??_C@_0P@LCOAKBB@Ex_GetTextRect@
  00150	ff 77 04	 push	 DWORD PTR [edi+4]
  00153	89 87 5c 01 00
	00		 mov	 DWORD PTR [edi+348], eax
  00159	ff d6		 call	 esi

; 668  : 		pGetTextRect2	= (FpGetTextRect2)::GetProcAddress(m_hLib, "Ex_GetTextRect2");

  0015b	68 00 00 00 00	 push	 OFFSET ??_C@_0BA@IHMLFKIJ@Ex_GetTextRect2@
  00160	ff 77 04	 push	 DWORD PTR [edi+4]
  00163	89 87 60 01 00
	00		 mov	 DWORD PTR [edi+352], eax
  00169	ff d6		 call	 esi

; 669  : 		pGetCellFromPt	= (FpGetCellFromPt)::GetProcAddress(m_hLib, "Ex_GetCellFromPt");

  0016b	68 00 00 00 00	 push	 OFFSET ??_C@_0BB@CIPPMECD@Ex_GetCellFromPt@
  00170	ff 77 04	 push	 DWORD PTR [edi+4]
  00173	89 87 64 01 00
	00		 mov	 DWORD PTR [edi+356], eax
  00179	ff d6		 call	 esi

; 670  : 		pGetFixedRowHeight	= (FpGetFixedRowHeight)::GetProcAddress(m_hLib, "Ex_GetFixedRowHeight");

  0017b	68 00 00 00 00	 push	 OFFSET ??_C@_0BF@KNPMFFOB@Ex_GetFixedRowHeight@
  00180	ff 77 04	 push	 DWORD PTR [edi+4]
  00183	89 87 68 01 00
	00		 mov	 DWORD PTR [edi+360], eax
  00189	ff d6		 call	 esi

; 671  : 		pGetFixedColumnWidth	= (FpGetFixedColumnWidth)::GetProcAddress(m_hLib, "Ex_GetFixedColumnWidth");

  0018b	68 00 00 00 00	 push	 OFFSET ??_C@_0BH@EKHEELLJ@Ex_GetFixedColumnWidth@
  00190	ff 77 04	 push	 DWORD PTR [edi+4]
  00193	89 87 6c 01 00
	00		 mov	 DWORD PTR [edi+364], eax
  00199	ff d6		 call	 esi

; 672  : 		pGetVirtualWidth	= (FpGetVirtualWidth)::GetProcAddress(m_hLib, "Ex_GetVirtualWidth");

  0019b	68 00 00 00 00	 push	 OFFSET ??_C@_0BD@DFAOHHGM@Ex_GetVirtualWidth@
  001a0	ff 77 04	 push	 DWORD PTR [edi+4]
  001a3	89 87 70 01 00
	00		 mov	 DWORD PTR [edi+368], eax
  001a9	ff d6		 call	 esi

; 673  : 		pGetVirtualHeight	= (FpGetVirtualHeight)::GetProcAddress(m_hLib, "Ex_GetVirtualHeight");

  001ab	68 00 00 00 00	 push	 OFFSET ??_C@_0BE@FDAKIPGK@Ex_GetVirtualHeight@
  001b0	ff 77 04	 push	 DWORD PTR [edi+4]
  001b3	89 87 74 01 00
	00		 mov	 DWORD PTR [edi+372], eax
  001b9	ff d6		 call	 esi

; 674  : 		pGetTextExtent	= (FpGetTextExtent)::GetProcAddress(m_hLib, "Ex_GetTextExtent");

  001bb	68 00 00 00 00	 push	 OFFSET ??_C@_0BB@JNECFDJF@Ex_GetTextExtent@
  001c0	ff 77 04	 push	 DWORD PTR [edi+4]
  001c3	89 87 78 01 00
	00		 mov	 DWORD PTR [edi+376], eax
  001c9	ff d6		 call	 esi

; 675  : 		pGetCellTextExtent	= (FpGetCellTextExtent)::GetProcAddress(m_hLib, "Ex_GetCellTextExtent");

  001cb	68 00 00 00 00	 push	 OFFSET ??_C@_0BF@FBJJOBBD@Ex_GetCellTextExtent@
  001d0	ff 77 04	 push	 DWORD PTR [edi+4]
  001d3	89 87 7c 01 00
	00		 mov	 DWORD PTR [edi+380], eax
  001d9	ff d6		 call	 esi

; 676  : 		pSetGridBkColor	= (FpSetGridBkColor)::GetProcAddress(m_hLib, "Ex_SetGridBkColor");

  001db	68 00 00 00 00	 push	 OFFSET ??_C@_0BC@HOEOKGMH@Ex_SetGridBkColor@
  001e0	ff 77 04	 push	 DWORD PTR [edi+4]
  001e3	89 87 80 01 00
	00		 mov	 DWORD PTR [edi+384], eax
  001e9	ff d6		 call	 esi

; 677  : 		pGetGridBkColor	= (FpGetGridBkColor)::GetProcAddress(m_hLib, "Ex_GetGridBkColor");

  001eb	68 00 00 00 00	 push	 OFFSET ??_C@_0BC@LAFAFMOL@Ex_GetGridBkColor@
  001f0	ff 77 04	 push	 DWORD PTR [edi+4]
  001f3	89 87 84 01 00
	00		 mov	 DWORD PTR [edi+388], eax
  001f9	ff d6		 call	 esi

; 678  : 		pSetGridLineColor	= (FpSetGridLineColor)::GetProcAddress(m_hLib, "Ex_SetGridLineColor");

  001fb	68 00 00 00 00	 push	 OFFSET ??_C@_0BE@FFIMAJMA@Ex_SetGridLineColor@
  00200	ff 77 04	 push	 DWORD PTR [edi+4]
  00203	89 87 88 01 00
	00		 mov	 DWORD PTR [edi+392], eax
  00209	ff d6		 call	 esi

; 679  : 		pGetGridLineColor	= (FpGetGridLineColor)::GetProcAddress(m_hLib, "Ex_GetGridLineColor");

  0020b	68 00 00 00 00	 push	 OFFSET ??_C@_0BE@DBNFLHHC@Ex_GetGridLineColor@
  00210	ff 77 04	 push	 DWORD PTR [edi+4]
  00213	89 87 8c 01 00
	00		 mov	 DWORD PTR [edi+396], eax
  00219	ff d6		 call	 esi

; 680  : 		pSetTitleTipBackClr	= (FpSetTitleTipBackClr)::GetProcAddress(m_hLib, "Ex_SetTitleTipBackClr");

  0021b	68 00 00 00 00	 push	 OFFSET ??_C@_0BG@ICOJDEPG@Ex_SetTitleTipBackClr@
  00220	ff 77 04	 push	 DWORD PTR [edi+4]
  00223	89 87 90 01 00
	00		 mov	 DWORD PTR [edi+400], eax
  00229	ff d6		 call	 esi

; 681  : 		pGetTitleTipBackClr	= (FpGetTitleTipBackClr)::GetProcAddress(m_hLib, "Ex_GetTitleTipBackClr");

  0022b	68 00 00 00 00	 push	 OFFSET ??_C@_0BG@HIMDACBO@Ex_GetTitleTipBackClr@
  00230	ff 77 04	 push	 DWORD PTR [edi+4]
  00233	89 87 94 01 00
	00		 mov	 DWORD PTR [edi+404], eax
  00239	ff d6		 call	 esi

; 682  : 		pSetTitleTipTextClr	= (FpSetTitleTipTextClr)::GetProcAddress(m_hLib, "Ex_SetTitleTipTextClr");

  0023b	68 00 00 00 00	 push	 OFFSET ??_C@_0BG@EHNDNKEC@Ex_SetTitleTipTextClr@
  00240	ff 77 04	 push	 DWORD PTR [edi+4]
  00243	89 87 98 01 00
	00		 mov	 DWORD PTR [edi+408], eax
  00249	ff d6		 call	 esi

; 683  : 		pGetTitleTipTextClr	= (FpGetTitleTipTextClr)::GetProcAddress(m_hLib, "Ex_GetTitleTipTextClr");

  0024b	68 00 00 00 00	 push	 OFFSET ??_C@_0BG@LNPJOMKK@Ex_GetTitleTipTextClr@
  00250	ff 77 04	 push	 DWORD PTR [edi+4]
  00253	89 87 9c 01 00
	00		 mov	 DWORD PTR [edi+412], eax
  00259	ff d6		 call	 esi

; 684  : 		pSetFixedGridLineColor_Light	= (FpSetFixedGridLineColor_Light)::GetProcAddress(m_hLib, "Ex_SetFixedGridLineColor_Light");

  0025b	68 00 00 00 00	 push	 OFFSET ??_C@_0BP@KEFBPEGH@Ex_SetFixedGridLineColor_Light@
  00260	ff 77 04	 push	 DWORD PTR [edi+4]
  00263	89 87 a0 01 00
	00		 mov	 DWORD PTR [edi+416], eax
  00269	ff d6		 call	 esi

; 685  : 		pSetFixedGridLineColor_Dark	= (FpSetFixedGridLineColor_Dark)::GetProcAddress(m_hLib, "Ex_SetFixedGridLineColor_Dark");

  0026b	68 00 00 00 00	 push	 OFFSET ??_C@_0BO@BDFMOODF@Ex_SetFixedGridLineColor_Dark@
  00270	ff 77 04	 push	 DWORD PTR [edi+4]
  00273	89 87 a4 01 00
	00		 mov	 DWORD PTR [edi+420], eax
  00279	ff d6		 call	 esi

; 686  : 		pGetFixedGridLineColor_Light	= (FpGetFixedGridLineColor_Light)::GetProcAddress(m_hLib, "Ex_GetFixedGridLineColor_Light");

  0027b	68 00 00 00 00	 push	 OFFSET ??_C@_0BP@LJNJNBMD@Ex_GetFixedGridLineColor_Light@
  00280	ff 77 04	 push	 DWORD PTR [edi+4]
  00283	89 87 a8 01 00
	00		 mov	 DWORD PTR [edi+424], eax
  00289	ff d6		 call	 esi
  0028b	89 87 ac 01 00
	00		 mov	 DWORD PTR [edi+428], eax

; 687  : 		pGetFixedGridLineColor_Dark	= (FpGetFixedGridLineColor_Dark)::GetProcAddress(m_hLib, "Ex_GetFixedGridLineColor_Dark");

  00291	68 00 00 00 00	 push	 OFFSET ??_C@_0BO@CMGJCOCF@Ex_GetFixedGridLineColor_Dark@
  00296	ff 77 04	 push	 DWORD PTR [edi+4]
  00299	ff d6		 call	 esi

; 688  : 		pSetHighlightColor	= (FpSetHighlightColor)::GetProcAddress(m_hLib, "Ex_SetHighlightColor");

  0029b	68 00 00 00 00	 push	 OFFSET ??_C@_0BF@OJKNEHDB@Ex_SetHighlightColor@
  002a0	ff 77 04	 push	 DWORD PTR [edi+4]
  002a3	89 87 b0 01 00
	00		 mov	 DWORD PTR [edi+432], eax
  002a9	ff d6		 call	 esi

; 689  : 		pSetHighlightTextColor	= (FpSetHighlightTextColor)::GetProcAddress(m_hLib, "Ex_SetHighlightTextColor");

  002ab	68 00 00 00 00	 push	 OFFSET ??_C@_0BJ@MJHPJAFF@Ex_SetHighlightTextColor@
  002b0	ff 77 04	 push	 DWORD PTR [edi+4]
  002b3	89 87 b4 01 00
	00		 mov	 DWORD PTR [edi+436], eax
  002b9	ff d6		 call	 esi

; 690  : 		pGetHighlightColor	= (FpGetHighlightColor)::GetProcAddress(m_hLib, "Ex_GetHighlightColor");

  002bb	68 00 00 00 00	 push	 OFFSET ??_C@_0BF@MMKGMMCP@Ex_GetHighlightColor@
  002c0	ff 77 04	 push	 DWORD PTR [edi+4]
  002c3	89 87 b8 01 00
	00		 mov	 DWORD PTR [edi+440], eax
  002c9	ff d6		 call	 esi

; 691  : 		pGetHighlightTextColor	= (FpGetHighlightTextColor)::GetProcAddress(m_hLib, "Ex_GetHighlightTextColor");

  002cb	68 00 00 00 00	 push	 OFFSET ??_C@_0BJ@DMCJEJBE@Ex_GetHighlightTextColor@
  002d0	ff 77 04	 push	 DWORD PTR [edi+4]
  002d3	89 87 bc 01 00
	00		 mov	 DWORD PTR [edi+444], eax
  002d9	ff d6		 call	 esi

; 692  : 		pSetUseHighlightText	= (FpSetUseHighlightText)::GetProcAddress(m_hLib, "Ex_SetUseHighlightText");

  002db	68 00 00 00 00	 push	 OFFSET ??_C@_0BH@DCGOGNFA@Ex_SetUseHighlightText@
  002e0	ff 77 04	 push	 DWORD PTR [edi+4]
  002e3	89 87 c0 01 00
	00		 mov	 DWORD PTR [edi+448], eax
  002e9	ff d6		 call	 esi

; 693  : 		pGetUseHighlightText	= (FpGetUseHighlightText)::GetProcAddress(m_hLib, "Ex_GetUseHighlightText");

  002eb	68 00 00 00 00	 push	 OFFSET ??_C@_0BH@JMEFCNCM@Ex_GetUseHighlightText@
  002f0	ff 77 04	 push	 DWORD PTR [edi+4]
  002f3	89 87 c4 01 00
	00		 mov	 DWORD PTR [edi+452], eax
  002f9	ff d6		 call	 esi

; 694  : 		pSetFixedRowSelectionHighlight	= (FpSetFixedRowSelectionHighlight)::GetProcAddress(m_hLib, "Ex_SetFixedRowSelectionHighlight");

  002fb	68 00 00 00 00	 push	 OFFSET ??_C@_0CB@NOMIDOOP@Ex_SetFixedRowSelectionHighligh@
  00300	ff 77 04	 push	 DWORD PTR [edi+4]
  00303	89 87 c8 01 00
	00		 mov	 DWORD PTR [edi+456], eax
  00309	ff d6		 call	 esi

; 695  : 		pGetFixedRowSelectionHighlight	= (FpGetFixedRowSelectionHighlight)::GetProcAddress(m_hLib, "Ex_GetFixedRowSelectionHighlight");

  0030b	68 00 00 00 00	 push	 OFFSET ??_C@_0CB@FPKHIOMN@Ex_GetFixedRowSelectionHighligh@
  00310	ff 77 04	 push	 DWORD PTR [edi+4]
  00313	89 87 cc 01 00
	00		 mov	 DWORD PTR [edi+460], eax
  00319	ff d6		 call	 esi

; 696  : 		pSetTextColor	= (FpSetTextColor)::GetProcAddress(m_hLib, "Ex_SetTextColor");

  0031b	68 00 00 00 00	 push	 OFFSET ??_C@_0BA@MJCGEMJI@Ex_SetTextColor@
  00320	ff 77 04	 push	 DWORD PTR [edi+4]
  00323	89 87 d0 01 00
	00		 mov	 DWORD PTR [edi+464], eax
  00329	ff d6		 call	 esi

; 697  : 		pGetTextColor	= (FpGetTextColor)::GetProcAddress(m_hLib, "Ex_GetTextColor");

  0032b	68 00 00 00 00	 push	 OFFSET ??_C@_0BA@LNJIIANE@Ex_GetTextColor@
  00330	ff 77 04	 push	 DWORD PTR [edi+4]
  00333	89 87 d4 01 00
	00		 mov	 DWORD PTR [edi+468], eax
  00339	ff d6		 call	 esi

; 698  : 		pSetTextBkColor	= (FpSetTextBkColor)::GetProcAddress(m_hLib, "Ex_SetTextBkColor");

  0033b	68 00 00 00 00	 push	 OFFSET ??_C@_0BC@OGKJOACE@Ex_SetTextBkColor@
  00340	ff 77 04	 push	 DWORD PTR [edi+4]
  00343	89 87 d8 01 00
	00		 mov	 DWORD PTR [edi+472], eax
  00349	ff d6		 call	 esi

; 699  : 		pGetTextBkColor	= (FpGetTextBkColor)::GetProcAddress(m_hLib, "Ex_GetTextBkColor");

  0034b	68 00 00 00 00	 push	 OFFSET ??_C@_0BC@CILHBKAI@Ex_GetTextBkColor@
  00350	ff 77 04	 push	 DWORD PTR [edi+4]
  00353	89 87 dc 01 00
	00		 mov	 DWORD PTR [edi+476], eax
  00359	ff d6		 call	 esi

; 700  : 		pSetFixedTextColor	= (FpSetFixedTextColor)::GetProcAddress(m_hLib, "Ex_SetFixedTextColor");

  0035b	68 00 00 00 00	 push	 OFFSET ??_C@_0BF@HMIFNMCF@Ex_SetFixedTextColor@
  00360	ff 77 04	 push	 DWORD PTR [edi+4]
  00363	89 87 e0 01 00
	00		 mov	 DWORD PTR [edi+480], eax
  00369	ff d6		 call	 esi

; 701  : 		pGetFixedTextColor	= (FpGetFixedTextColor)::GetProcAddress(m_hLib, "Ex_GetFixedTextColor");

  0036b	68 00 00 00 00	 push	 OFFSET ??_C@_0BF@FJIOFHDL@Ex_GetFixedTextColor@
  00370	ff 77 04	 push	 DWORD PTR [edi+4]
  00373	89 87 e4 01 00
	00		 mov	 DWORD PTR [edi+484], eax
  00379	ff d6		 call	 esi

; 702  : 		pSetFixedBkColor	= (FpSetFixedBkColor)::GetProcAddress(m_hLib, "Ex_SetFixedBkColor");

  0037b	68 00 00 00 00	 push	 OFFSET ??_C@_0BD@OCNEDHHM@Ex_SetFixedBkColor@
  00380	ff 77 04	 push	 DWORD PTR [edi+4]
  00383	89 87 e8 01 00
	00		 mov	 DWORD PTR [edi+488], eax
  00389	ff d6		 call	 esi

; 703  : 		pGetFixedBkColor	= (FpGetFixedBkColor)::GetProcAddress(m_hLib, "Ex_GetFixedBkColor");

  0038b	68 00 00 00 00	 push	 OFFSET ??_C@_0BD@NAMCEFGF@Ex_GetFixedBkColor@
  00390	ff 77 04	 push	 DWORD PTR [edi+4]
  00393	89 87 ec 01 00
	00		 mov	 DWORD PTR [edi+492], eax
  00399	ff d6		 call	 esi

; 704  : 		pSetGridColor	= (FpSetGridColor)::GetProcAddress(m_hLib, "Ex_SetGridColor");

  0039b	68 00 00 00 00	 push	 OFFSET ??_C@_0BA@BKNBPELA@Ex_SetGridColor@
  003a0	ff 77 04	 push	 DWORD PTR [edi+4]
  003a3	89 87 f0 01 00
	00		 mov	 DWORD PTR [edi+496], eax
  003a9	ff d6		 call	 esi

; 705  : 		pGetGridColor	= (FpGetGridColor)::GetProcAddress(m_hLib, "Ex_GetGridColor");

  003ab	68 00 00 00 00	 push	 OFFSET ??_C@_0BA@GOGPDIPM@Ex_GetGridColor@
  003b0	ff 77 04	 push	 DWORD PTR [edi+4]
  003b3	89 87 f4 01 00
	00		 mov	 DWORD PTR [edi+500], eax
  003b9	ff d6		 call	 esi

; 706  : 		pSetBkColor	= (FpSetBkColor)::GetProcAddress(m_hLib, "Ex_SetBkColor");

  003bb	68 00 00 00 00	 push	 OFFSET ??_C@_0O@GBEOAJPL@Ex_SetBkColor@
  003c0	ff 77 04	 push	 DWORD PTR [edi+4]
  003c3	89 87 f8 01 00
	00		 mov	 DWORD PTR [edi+504], eax
  003c9	ff d6		 call	 esi
  003cb	89 87 fc 01 00
	00		 mov	 DWORD PTR [edi+508], eax

; 707  : 		pGetBkColor	= (FpGetBkColor)::GetProcAddress(m_hLib, "Ex_GetBkColor");

  003d1	68 00 00 00 00	 push	 OFFSET ??_C@_0O@HPGBLOLC@Ex_GetBkColor@
  003d6	ff 77 04	 push	 DWORD PTR [edi+4]
  003d9	ff d6		 call	 esi

; 708  : 		pSetDefCellMargin	= (FpSetDefCellMargin)::GetProcAddress(m_hLib, "Ex_SetDefCellMargin");

  003db	68 00 00 00 00	 push	 OFFSET ??_C@_0BE@JNONMFIP@Ex_SetDefCellMargin@
  003e0	ff 77 04	 push	 DWORD PTR [edi+4]
  003e3	89 87 00 02 00
	00		 mov	 DWORD PTR [edi+512], eax
  003e9	ff d6		 call	 esi

; 709  : 		pGetDefCellMargin	= (FpGetDefCellMargin)::GetProcAddress(m_hLib, "Ex_GetDefCellMargin");

  003eb	68 00 00 00 00	 push	 OFFSET ??_C@_0BE@PJLEHLDN@Ex_GetDefCellMargin@
  003f0	ff 77 04	 push	 DWORD PTR [edi+4]
  003f3	89 87 04 02 00
	00		 mov	 DWORD PTR [edi+516], eax
  003f9	ff d6		 call	 esi

; 710  : 		pGetDefCellHeight	= (FpGetDefCellHeight)::GetProcAddress(m_hLib, "Ex_GetDefCellHeight");

  003fb	68 00 00 00 00	 push	 OFFSET ??_C@_0BE@JGMCCAPD@Ex_GetDefCellHeight@
  00400	ff 77 04	 push	 DWORD PTR [edi+4]
  00403	89 87 08 02 00
	00		 mov	 DWORD PTR [edi+520], eax
  00409	ff d6		 call	 esi

; 711  : 		pSetDefCellHeight	= (FpSetDefCellHeight)::GetProcAddress(m_hLib, "Ex_SetDefCellHeight");

  0040b	68 00 00 00 00	 push	 OFFSET ??_C@_0BE@PCJLJOEB@Ex_SetDefCellHeight@
  00410	ff 77 04	 push	 DWORD PTR [edi+4]
  00413	89 87 0c 02 00
	00		 mov	 DWORD PTR [edi+524], eax
  00419	ff d6		 call	 esi

; 712  : 		pGetDefCellWidth	= (FpGetDefCellWidth)::GetProcAddress(m_hLib, "Ex_GetDefCellWidth");

  0041b	68 00 00 00 00	 push	 OFFSET ??_C@_0BD@EHJKFANE@Ex_GetDefCellWidth@
  00420	ff 77 04	 push	 DWORD PTR [edi+4]
  00423	89 87 10 02 00
	00		 mov	 DWORD PTR [edi+528], eax
  00429	ff d6		 call	 esi

; 713  : 		pSetDefCellWidth	= (FpSetDefCellWidth)::GetProcAddress(m_hLib, "Ex_SetDefCellWidth");

  0042b	68 00 00 00 00	 push	 OFFSET ??_C@_0BD@HFIMCCMN@Ex_SetDefCellWidth@
  00430	ff 77 04	 push	 DWORD PTR [edi+4]
  00433	89 87 14 02 00
	00		 mov	 DWORD PTR [edi+532], eax
  00439	ff d6		 call	 esi

; 714  : 		pGetSelectedCount	= (FpGetSelectedCount)::GetProcAddress(m_hLib, "Ex_GetSelectedCount");

  0043b	68 00 00 00 00	 push	 OFFSET ??_C@_0BE@LMNPDDGK@Ex_GetSelectedCount@
  00440	ff 77 04	 push	 DWORD PTR [edi+4]
  00443	89 87 18 02 00
	00		 mov	 DWORD PTR [edi+536], eax
  00449	ff d6		 call	 esi

; 715  : 		pSetFocusCell1	= (FpSetFocusCell1)::GetProcAddress(m_hLib, "Ex_SetFocusCell1");

  0044b	68 00 00 00 00	 push	 OFFSET ??_C@_0BB@OKNHCIID@Ex_SetFocusCell1@
  00450	ff 77 04	 push	 DWORD PTR [edi+4]
  00453	89 87 1c 02 00
	00		 mov	 DWORD PTR [edi+540], eax
  00459	ff d6		 call	 esi

; 716  : 		pSetFocusCell2	= (FpSetFocusCell2)::GetProcAddress(m_hLib, "Ex_SetFocusCell2");

  0045b	68 00 00 00 00	 push	 OFFSET ??_C@_0BB@MBPKHLEA@Ex_SetFocusCell2@
  00460	ff 77 04	 push	 DWORD PTR [edi+4]
  00463	89 87 20 02 00
	00		 mov	 DWORD PTR [edi+544], eax
  00469	ff d6		 call	 esi

; 717  : 		pGetFocusCell	= (FpGetFocusCell)::GetProcAddress(m_hLib, "Ex_GetFocusCell");

  0046b	68 00 00 00 00	 push	 OFFSET ??_C@_0BA@CHAPHGPC@Ex_GetFocusCell@
  00470	ff 77 04	 push	 DWORD PTR [edi+4]
  00473	89 87 24 02 00
	00		 mov	 DWORD PTR [edi+548], eax
  00479	ff d6		 call	 esi

; 718  : 		pSetVirtualMode	= (FpSetVirtualMode)::GetProcAddress(m_hLib, "Ex_SetVirtualMode");

  0047b	68 00 00 00 00	 push	 OFFSET ??_C@_0BC@GKEKHGIB@Ex_SetVirtualMode@
  00480	ff 77 04	 push	 DWORD PTR [edi+4]
  00483	89 87 28 02 00
	00		 mov	 DWORD PTR [edi+552], eax
  00489	ff d6		 call	 esi

; 719  : 		pGetVirtualMode	= (FpGetVirtualMode)::GetProcAddress(m_hLib, "Ex_GetVirtualMode");

  0048b	68 00 00 00 00	 push	 OFFSET ??_C@_0BC@KEFEIMKN@Ex_GetVirtualMode@
  00490	ff 77 04	 push	 DWORD PTR [edi+4]
  00493	89 87 2c 02 00
	00		 mov	 DWORD PTR [edi+556], eax
  00499	ff d6		 call	 esi

; 720  : 		pSetCallbackFunc	= (FpSetCallbackFunc)::GetProcAddress(m_hLib, "Ex_SetCallbackFunc");

  0049b	68 00 00 00 00	 push	 OFFSET ??_C@_0BD@HEOFKHFG@Ex_SetCallbackFunc@
  004a0	ff 77 04	 push	 DWORD PTR [edi+4]
  004a3	89 87 30 02 00
	00		 mov	 DWORD PTR [edi+560], eax
  004a9	ff d6		 call	 esi

; 721  : 		pGetCallbackFunc	= (FpGetCallbackFunc)::GetProcAddress(m_hLib, "Ex_GetCallbackFunc");

  004ab	68 00 00 00 00	 push	 OFFSET ??_C@_0BD@EGPDNFEP@Ex_GetCallbackFunc@
  004b0	ff 77 04	 push	 DWORD PTR [edi+4]
  004b3	89 87 34 02 00
	00		 mov	 DWORD PTR [edi+564], eax
  004b9	ff d6		 call	 esi

; 722  : 		pSetImageList	= (FpSetImageList)::GetProcAddress(m_hLib, "Ex_SetImageList");

  004bb	68 00 00 00 00	 push	 OFFSET ??_C@_0BA@LGEAPGNE@Ex_SetImageList@
  004c0	ff 77 04	 push	 DWORD PTR [edi+4]
  004c3	89 87 38 02 00
	00		 mov	 DWORD PTR [edi+568], eax
  004c9	ff d6		 call	 esi

; 723  : 		pGetImageList	= (FpGetImageList)::GetProcAddress(m_hLib, "Ex_GetImageList");

  004cb	68 00 00 00 00	 push	 OFFSET ??_C@_0BA@MCPODKJI@Ex_GetImageList@
  004d0	ff 77 04	 push	 DWORD PTR [edi+4]
  004d3	89 87 3c 02 00
	00		 mov	 DWORD PTR [edi+572], eax
  004d9	ff d6		 call	 esi

; 724  : 		pSetGridLines	= (FpSetGridLines)::GetProcAddress(m_hLib, "Ex_SetGridLines");

  004db	68 00 00 00 00	 push	 OFFSET ??_C@_0BA@NKECMPNJ@Ex_SetGridLines@
  004e0	ff 77 04	 push	 DWORD PTR [edi+4]
  004e3	89 87 40 02 00
	00		 mov	 DWORD PTR [edi+576], eax
  004e9	ff d6		 call	 esi

; 725  : 		pGetGridLines	= (FpGetGridLines)::GetProcAddress(m_hLib, "Ex_GetGridLines");

  004eb	68 00 00 00 00	 push	 OFFSET ??_C@_0BA@KOPMADJF@Ex_GetGridLines@
  004f0	ff 77 04	 push	 DWORD PTR [edi+4]
  004f3	89 87 44 02 00
	00		 mov	 DWORD PTR [edi+580], eax
  004f9	ff d6		 call	 esi

; 726  : 		pSetEditable	= (FpSetEditable)::GetProcAddress(m_hLib, "Ex_SetEditable");

  004fb	68 00 00 00 00	 push	 OFFSET ??_C@_0P@JBFLIDIG@Ex_SetEditable@
  00500	ff 77 04	 push	 DWORD PTR [edi+4]
  00503	89 87 48 02 00
	00		 mov	 DWORD PTR [edi+584], eax
  00509	ff d6		 call	 esi

; 727  : 		pIsEditable	= (FpIsEditable)::GetProcAddress(m_hLib, "Ex_IsEditable");

  0050b	68 00 00 00 00	 push	 OFFSET ??_C@_0O@NHDOAOPK@Ex_IsEditable@
  00510	ff 77 04	 push	 DWORD PTR [edi+4]
  00513	89 87 4c 02 00
	00		 mov	 DWORD PTR [edi+588], eax
  00519	ff d6		 call	 esi

; 728  : 		pSetListMode	= (FpSetListMode)::GetProcAddress(m_hLib, "Ex_SetListMode");

  0051b	68 00 00 00 00	 push	 OFFSET ??_C@_0P@JNBLKIOM@Ex_SetListMode@
  00520	ff 77 04	 push	 DWORD PTR [edi+4]
  00523	89 87 50 02 00
	00		 mov	 DWORD PTR [edi+592], eax
  00529	ff d6		 call	 esi

; 729  : 		pGetListMode	= (FpGetListMode)::GetProcAddress(m_hLib, "Ex_GetListMode");

  0052b	68 00 00 00 00	 push	 OFFSET ??_C@_0P@JCAFHOGP@Ex_GetListMode@
  00530	ff 77 04	 push	 DWORD PTR [edi+4]
  00533	89 87 54 02 00
	00		 mov	 DWORD PTR [edi+596], eax
  00539	ff d6		 call	 esi

; 730  : 		pSetSingleRowSelection	= (FpSetSingleRowSelection)::GetProcAddress(m_hLib, "Ex_SetSingleRowSelection");

  0053b	68 00 00 00 00	 push	 OFFSET ??_C@_0BJ@FIPOCOBD@Ex_SetSingleRowSelection@
  00540	ff 77 04	 push	 DWORD PTR [edi+4]
  00543	89 87 58 02 00
	00		 mov	 DWORD PTR [edi+600], eax
  00549	ff d6		 call	 esi

; 731  : 		pGetSingleRowSelection	= (FpGetSingleRowSelection)::GetProcAddress(m_hLib, "Ex_GetSingleRowSelection");

  0054b	68 00 00 00 00	 push	 OFFSET ??_C@_0BJ@KNKIPHFC@Ex_GetSingleRowSelection@
  00550	ff 77 04	 push	 DWORD PTR [edi+4]
  00553	89 87 5c 02 00
	00		 mov	 DWORD PTR [edi+604], eax
  00559	ff d6		 call	 esi

; 732  : 		pSetSingleColSelection	= (FpSetSingleColSelection)::GetProcAddress(m_hLib, "Ex_SetSingleColSelection");

  0055b	68 00 00 00 00	 push	 OFFSET ??_C@_0BJ@LMLIBCMD@Ex_SetSingleColSelection@
  00560	ff 77 04	 push	 DWORD PTR [edi+4]
  00563	89 87 60 02 00
	00		 mov	 DWORD PTR [edi+608], eax
  00569	ff d6		 call	 esi

; 733  : 		pGetSingleColSelection	= (FpGetSingleColSelection)::GetProcAddress(m_hLib, "Ex_GetSingleColSelection");

  0056b	68 00 00 00 00	 push	 OFFSET ??_C@_0BJ@EJOOMLIC@Ex_GetSingleColSelection@
  00570	ff 77 04	 push	 DWORD PTR [edi+4]
  00573	89 87 64 02 00
	00		 mov	 DWORD PTR [edi+612], eax
  00579	ff d6		 call	 esi

; 734  : 		pEnableSelection	= (FpEnableSelection)::GetProcAddress(m_hLib, "Ex_EnableSelection");

  0057b	68 00 00 00 00	 push	 OFFSET ??_C@_0BD@OKOBKIIJ@Ex_EnableSelection@
  00580	ff 77 04	 push	 DWORD PTR [edi+4]
  00583	89 87 68 02 00
	00		 mov	 DWORD PTR [edi+616], eax
  00589	ff d6		 call	 esi

; 735  : 		pIsSelectable	= (FpIsSelectable)::GetProcAddress(m_hLib, "Ex_IsSelectable");

  0058b	68 00 00 00 00	 push	 OFFSET ??_C@_0BA@CEPMEDED@Ex_IsSelectable@
  00590	ff 77 04	 push	 DWORD PTR [edi+4]
  00593	89 87 6c 02 00
	00		 mov	 DWORD PTR [edi+620], eax
  00599	ff d6		 call	 esi

; 736  : 		pSetFixedColumnSelection	= (FpSetFixedColumnSelection)::GetProcAddress(m_hLib, "Ex_SetFixedColumnSelection");

  0059b	68 00 00 00 00	 push	 OFFSET ??_C@_0BL@LCFPINPP@Ex_SetFixedColumnSelection@
  005a0	ff 77 04	 push	 DWORD PTR [edi+4]
  005a3	89 87 70 02 00
	00		 mov	 DWORD PTR [edi+624], eax
  005a9	ff d6		 call	 esi

; 737  : 		pGetFixedColumnSelection	= (FpGetFixedColumnSelection)::GetProcAddress(m_hLib, "Ex_GetFixedColumnSelection");

  005ab	68 00 00 00 00	 push	 OFFSET ??_C@_0BL@KEDCGMJN@Ex_GetFixedColumnSelection@
  005b0	ff 77 04	 push	 DWORD PTR [edi+4]
  005b3	89 87 74 02 00
	00		 mov	 DWORD PTR [edi+628], eax
  005b9	ff d6		 call	 esi

; 738  : 		pSetFixedRowSelection	= (FpSetFixedRowSelection)::GetProcAddress(m_hLib, "Ex_SetFixedRowSelection");

  005bb	68 00 00 00 00	 push	 OFFSET ??_C@_0BI@BGNHFMGH@Ex_SetFixedRowSelection@
  005c0	ff 77 04	 push	 DWORD PTR [edi+4]
  005c3	89 87 78 02 00
	00		 mov	 DWORD PTR [edi+632], eax
  005c9	ff d6		 call	 esi

; 739  : 		pGetFixedRowSelection	= (FpGetFixedRowSelection)::GetProcAddress(m_hLib, "Ex_GetFixedRowSelection");

  005cb	68 00 00 00 00	 push	 OFFSET ??_C@_0BI@EPMKEKDA@Ex_GetFixedRowSelection@
  005d0	ff 77 04	 push	 DWORD PTR [edi+4]
  005d3	89 87 7c 02 00
	00		 mov	 DWORD PTR [edi+636], eax
  005d9	ff d6		 call	 esi

; 740  : 		pEnableDragAndDrop	= (FpEnableDragAndDrop)::GetProcAddress(m_hLib, "Ex_EnableDragAndDrop");

  005db	68 00 00 00 00	 push	 OFFSET ??_C@_0BF@BCAACCJI@Ex_EnableDragAndDrop@
  005e0	ff 77 04	 push	 DWORD PTR [edi+4]
  005e3	89 87 80 02 00
	00		 mov	 DWORD PTR [edi+640], eax
  005e9	ff d6		 call	 esi

; 741  : 		pGetDragAndDrop	= (FpGetDragAndDrop)::GetProcAddress(m_hLib, "Ex_GetDragAndDrop");

  005eb	68 00 00 00 00	 push	 OFFSET ??_C@_0BC@BPGLLDNL@Ex_GetDragAndDrop@
  005f0	ff 77 04	 push	 DWORD PTR [edi+4]
  005f3	89 87 84 02 00
	00		 mov	 DWORD PTR [edi+644], eax
  005f9	ff d6		 call	 esi

; 742  : 		pSetRowResize	= (FpSetRowResize)::GetProcAddress(m_hLib, "Ex_SetRowResize");

  005fb	68 00 00 00 00	 push	 OFFSET ??_C@_0BA@HIAOCBNM@Ex_SetRowResize@
  00600	ff 77 04	 push	 DWORD PTR [edi+4]
  00603	89 87 88 02 00
	00		 mov	 DWORD PTR [edi+648], eax
  00609	ff d6		 call	 esi

; 743  : 		pGetRowResize	= (FpGetRowResize)::GetProcAddress(m_hLib, "Ex_GetRowResize");

  0060b	68 00 00 00 00	 push	 OFFSET ??_C@_0BA@MLAONJA@Ex_GetRowResize@
  00610	89 87 8c 02 00
	00		 mov	 DWORD PTR [edi+652], eax
  00616	ff 77 04	 push	 DWORD PTR [edi+4]
  00619	ff d6		 call	 esi

; 744  : 		pSetColumnResize	= (FpSetColumnResize)::GetProcAddress(m_hLib, "Ex_SetColumnResize");

  0061b	68 00 00 00 00	 push	 OFFSET ??_C@_0BD@EKJDLPHK@Ex_SetColumnResize@
  00620	89 87 90 02 00
	00		 mov	 DWORD PTR [edi+656], eax
  00626	ff 77 04	 push	 DWORD PTR [edi+4]
  00629	ff d6		 call	 esi

; 745  : 		pGetColumnResize	= (FpGetColumnResize)::GetProcAddress(m_hLib, "Ex_GetColumnResize");

  0062b	68 00 00 00 00	 push	 OFFSET ??_C@_0BD@HIIFMNGD@Ex_GetColumnResize@
  00630	89 87 94 02 00
	00		 mov	 DWORD PTR [edi+660], eax
  00636	ff 77 04	 push	 DWORD PTR [edi+4]
  00639	ff d6		 call	 esi

; 746  : 		pSetHeaderSort	= (FpSetHeaderSort)::GetProcAddress(m_hLib, "Ex_SetHeaderSort");

  0063b	68 00 00 00 00	 push	 OFFSET ??_C@_0BB@FNCOCAHB@Ex_SetHeaderSort@
  00640	89 87 98 02 00
	00		 mov	 DWORD PTR [edi+664], eax
  00646	ff 77 04	 push	 DWORD PTR [edi+4]
  00649	ff d6		 call	 esi

; 747  : 		pGetHeaderSort	= (FpGetHeaderSort)::GetProcAddress(m_hLib, "Ex_GetHeaderSort");

  0064b	68 00 00 00 00	 push	 OFFSET ??_C@_0BB@CCDAJDAG@Ex_GetHeaderSort@
  00650	89 87 9c 02 00
	00		 mov	 DWORD PTR [edi+668], eax
  00656	ff 77 04	 push	 DWORD PTR [edi+4]
  00659	ff d6		 call	 esi

; 748  : 		pSetHandleTabKey	= (FpSetHandleTabKey)::GetProcAddress(m_hLib, "Ex_SetHandleTabKey");

  0065b	68 00 00 00 00	 push	 OFFSET ??_C@_0BD@MAINJPHO@Ex_SetHandleTabKey@
  00660	89 87 a0 02 00
	00		 mov	 DWORD PTR [edi+672], eax
  00666	ff 77 04	 push	 DWORD PTR [edi+4]
  00669	ff d6		 call	 esi

; 749  : 		pGetHandleTabKey	= (FpGetHandleTabKey)::GetProcAddress(m_hLib, "Ex_GetHandleTabKey");

  0066b	68 00 00 00 00	 push	 OFFSET ??_C@_0BD@PCJLONGH@Ex_GetHandleTabKey@
  00670	89 87 a4 02 00
	00		 mov	 DWORD PTR [edi+676], eax
  00676	ff 77 04	 push	 DWORD PTR [edi+4]
  00679	ff d6		 call	 esi

; 750  : 		pSetDoubleBuffering	= (FpSetDoubleBuffering)::GetProcAddress(m_hLib, "Ex_SetDoubleBuffering");

  0067b	68 00 00 00 00	 push	 OFFSET ??_C@_0BG@FADGBJJF@Ex_SetDoubleBuffering@
  00680	89 87 a8 02 00
	00		 mov	 DWORD PTR [edi+680], eax
  00686	ff 77 04	 push	 DWORD PTR [edi+4]
  00689	ff d6		 call	 esi

; 751  : 		pGetDoubleBuffering	= (FpGetDoubleBuffering)::GetProcAddress(m_hLib, "Ex_GetDoubleBuffering");

  0068b	68 00 00 00 00	 push	 OFFSET ??_C@_0BG@KKBMCPHN@Ex_GetDoubleBuffering@
  00690	89 87 ac 02 00
	00		 mov	 DWORD PTR [edi+684], eax
  00696	ff 77 04	 push	 DWORD PTR [edi+4]
  00699	ff d6		 call	 esi

; 752  : 		pEnableTitleTips	= (FpEnableTitleTips)::GetProcAddress(m_hLib, "Ex_EnableTitleTips");

  0069b	68 00 00 00 00	 push	 OFFSET ??_C@_0BD@CLEBGLOB@Ex_EnableTitleTips@
  006a0	89 87 b0 02 00
	00		 mov	 DWORD PTR [edi+688], eax
  006a6	ff 77 04	 push	 DWORD PTR [edi+4]
  006a9	ff d6		 call	 esi

; 753  : 		pGetTitleTips	= (FpGetTitleTips)::GetProcAddress(m_hLib, "Ex_GetTitleTips");

  006ab	68 00 00 00 00	 push	 OFFSET ??_C@_0BA@GGIJPOKE@Ex_GetTitleTips@
  006b0	89 87 b4 02 00
	00		 mov	 DWORD PTR [edi+692], eax
  006b6	ff 77 04	 push	 DWORD PTR [edi+4]
  006b9	ff d6		 call	 esi

; 754  : 		pSetSortColumn	= (FpSetSortColumn)::GetProcAddress(m_hLib, "Ex_SetSortColumn");

  006bb	68 00 00 00 00	 push	 OFFSET ??_C@_0BB@IGIKCHHB@Ex_SetSortColumn@
  006c0	89 87 b8 02 00
	00		 mov	 DWORD PTR [edi+696], eax
  006c6	ff 77 04	 push	 DWORD PTR [edi+4]
  006c9	ff d6		 call	 esi

; 755  : 		pGetSortColumn	= (FpGetSortColumn)::GetProcAddress(m_hLib, "Ex_GetSortColumn");

  006cb	68 00 00 00 00	 push	 OFFSET ??_C@_0BB@PJJEJEAG@Ex_GetSortColumn@
  006d0	89 87 bc 02 00
	00		 mov	 DWORD PTR [edi+700], eax
  006d6	ff 77 04	 push	 DWORD PTR [edi+4]
  006d9	ff d6		 call	 esi

; 756  : 		pSetSortAscending	= (FpSetSortAscending)::GetProcAddress(m_hLib, "Ex_SetSortAscending");

  006db	68 00 00 00 00	 push	 OFFSET ??_C@_0BE@JAJLPMEM@Ex_SetSortAscending@
  006e0	89 87 c0 02 00
	00		 mov	 DWORD PTR [edi+704], eax
  006e6	ff 77 04	 push	 DWORD PTR [edi+4]
  006e9	ff d6		 call	 esi

; 757  : 		pGetSortAscending	= (FpGetSortAscending)::GetProcAddress(m_hLib, "Ex_GetSortAscending");

  006eb	68 00 00 00 00	 push	 OFFSET ??_C@_0BE@PEMCECPO@Ex_GetSortAscending@
  006f0	89 87 c4 02 00
	00		 mov	 DWORD PTR [edi+708], eax
  006f6	ff 77 04	 push	 DWORD PTR [edi+4]
  006f9	ff d6		 call	 esi

; 758  : 		pSetTrackFocusCell	= (FpSetTrackFocusCell)::GetProcAddress(m_hLib, "Ex_SetTrackFocusCell");

  006fb	68 00 00 00 00	 push	 OFFSET ??_C@_0BF@GMCLPOEI@Ex_SetTrackFocusCell@
  00700	89 87 c8 02 00
	00		 mov	 DWORD PTR [edi+712], eax
  00706	ff 77 04	 push	 DWORD PTR [edi+4]
  00709	ff d6		 call	 esi

; 759  : 		pGetTrackFocusCell	= (FpGetTrackFocusCell)::GetProcAddress(m_hLib, "Ex_GetTrackFocusCell");

  0070b	68 00 00 00 00	 push	 OFFSET ??_C@_0BF@EJCAHFFG@Ex_GetTrackFocusCell@
  00710	89 87 cc 02 00
	00		 mov	 DWORD PTR [edi+716], eax
  00716	ff 77 04	 push	 DWORD PTR [edi+4]
  00719	ff d6		 call	 esi

; 760  : 		pSetFrameFocusCell	= (FpSetFrameFocusCell)::GetProcAddress(m_hLib, "Ex_SetFrameFocusCell");

  0071b	68 00 00 00 00	 push	 OFFSET ??_C@_0BF@DLIICIIO@Ex_SetFrameFocusCell@
  00720	89 87 d0 02 00
	00		 mov	 DWORD PTR [edi+720], eax
  00726	ff 77 04	 push	 DWORD PTR [edi+4]
  00729	ff d6		 call	 esi

; 761  : 		pGetFrameFocusCell	= (FpGetFrameFocusCell)::GetProcAddress(m_hLib, "Ex_GetFrameFocusCell");

  0072b	68 00 00 00 00	 push	 OFFSET ??_C@_0BF@BOIDKDJA@Ex_GetFrameFocusCell@
  00730	89 87 d4 02 00
	00		 mov	 DWORD PTR [edi+724], eax
  00736	ff 77 04	 push	 DWORD PTR [edi+4]
  00739	ff d6		 call	 esi

; 762  : 		pSetAutoSizeStyle	= (FpSetAutoSizeStyle)::GetProcAddress(m_hLib, "Ex_SetAutoSizeStyle");

  0073b	68 00 00 00 00	 push	 OFFSET ??_C@_0BE@DLBLPDKG@Ex_SetAutoSizeStyle@
  00740	89 87 d8 02 00
	00		 mov	 DWORD PTR [edi+728], eax
  00746	ff 77 04	 push	 DWORD PTR [edi+4]
  00749	ff d6		 call	 esi

; 763  : 		pGetAutoSizeStyle	= (FpGetAutoSizeStyle)::GetProcAddress(m_hLib, "Ex_GetAutoSizeStyle");

  0074b	68 00 00 00 00	 push	 OFFSET ??_C@_0BE@FPECENBE@Ex_GetAutoSizeStyle@
  00750	89 87 dc 02 00
	00		 mov	 DWORD PTR [edi+732], eax
  00756	ff 77 04	 push	 DWORD PTR [edi+4]
  00759	ff d6		 call	 esi

; 764  : 		pEnableHiddenColUnhide	= (FpEnableHiddenColUnhide)::GetProcAddress(m_hLib, "Ex_EnableHiddenColUnhide");

  0075b	68 00 00 00 00	 push	 OFFSET ??_C@_0BJ@OGINOEPC@Ex_EnableHiddenColUnhide@
  00760	89 87 e0 02 00
	00		 mov	 DWORD PTR [edi+736], eax
  00766	ff 77 04	 push	 DWORD PTR [edi+4]
  00769	ff d6		 call	 esi

; 765  : 		pGetHiddenColUnhide	= (FpGetHiddenColUnhide)::GetProcAddress(m_hLib, "Ex_GetHiddenColUnhide");

  0076b	68 00 00 00 00	 push	 OFFSET ??_C@_0BG@GLEFAPDH@Ex_GetHiddenColUnhide@
  00770	89 87 e4 02 00
	00		 mov	 DWORD PTR [edi+740], eax
  00776	ff 77 04	 push	 DWORD PTR [edi+4]
  00779	ff d6		 call	 esi

; 766  : 		pEnableHiddenRowUnhide	= (FpEnableHiddenRowUnhide)::GetProcAddress(m_hLib, "Ex_EnableHiddenRowUnhide");

  0077b	68 00 00 00 00	 push	 OFFSET ??_C@_0BJ@PDACDFJ@Ex_EnableHiddenRowUnhide@
  00780	89 87 e8 02 00
	00		 mov	 DWORD PTR [edi+744], eax
  00786	ff 77 04	 push	 DWORD PTR [edi+4]
  00789	ff d6		 call	 esi

; 767  : 		pGetHiddenRowUnhide	= (FpGetHiddenRowUnhide)::GetProcAddress(m_hLib, "Ex_GetHiddenRowUnhide");

  0078b	68 00 00 00 00	 push	 OFFSET ??_C@_0BG@ICPIMIJM@Ex_GetHiddenRowUnhide@
  00790	89 87 ec 02 00
	00		 mov	 DWORD PTR [edi+748], eax
  00796	ff 77 04	 push	 DWORD PTR [edi+4]
  00799	ff d6		 call	 esi
  0079b	89 87 f0 02 00
	00		 mov	 DWORD PTR [edi+752], eax

; 768  : 		pEnableColumnHide	= (FpEnableColumnHide)::GetProcAddress(m_hLib, "Ex_EnableColumnHide");

  007a1	68 00 00 00 00	 push	 OFFSET ??_C@_0BE@GPEEKGPJ@Ex_EnableColumnHide@
  007a6	ff 77 04	 push	 DWORD PTR [edi+4]
  007a9	ff d6		 call	 esi

; 769  : 		pGetColumnHide	= (FpGetColumnHide)::GetProcAddress(m_hLib, "Ex_GetColumnHide");

  007ab	68 00 00 00 00	 push	 OFFSET ??_C@_0BB@GJLPNLHD@Ex_GetColumnHide@
  007b0	89 87 f4 02 00
	00		 mov	 DWORD PTR [edi+756], eax
  007b6	ff 77 04	 push	 DWORD PTR [edi+4]
  007b9	ff d6		 call	 esi

; 770  : 		pEnableRowHide	= (FpEnableRowHide)::GetProcAddress(m_hLib, "Ex_EnableRowHide");

  007bb	68 00 00 00 00	 push	 OFFSET ??_C@_0BB@LLNAEOOL@Ex_EnableRowHide@
  007c0	89 87 f8 02 00
	00		 mov	 DWORD PTR [edi+760], eax
  007c6	ff 77 04	 push	 DWORD PTR [edi+4]
  007c9	ff d6		 call	 esi

; 771  : 		pGetRowHide	= (FpGetRowHide)::GetProcAddress(m_hLib, "Ex_GetRowHide");

  007cb	68 00 00 00 00	 push	 OFFSET ??_C@_0O@CFJHIGGA@Ex_GetRowHide@
  007d0	89 87 fc 02 00
	00		 mov	 DWORD PTR [edi+764], eax
  007d6	ff 77 04	 push	 DWORD PTR [edi+4]
  007d9	ff d6		 call	 esi

; 772  : 		pSetDefaultReadOnly	= (FpSetDefaultReadOnly)::GetProcAddress(m_hLib, "Ex_SetDefaultReadOnly");

  007db	68 00 00 00 00	 push	 OFFSET ??_C@_0BG@GKHGKAPA@Ex_SetDefaultReadOnly@
  007e0	89 87 00 03 00
	00		 mov	 DWORD PTR [edi+768], eax
  007e6	ff 77 04	 push	 DWORD PTR [edi+4]
  007e9	ff d6		 call	 esi

; 773  : 		pIsDefaultReadOnly	= (FpIsDefaultReadOnly)::GetProcAddress(m_hLib, "Ex_IsDefaultReadOnly");

  007eb	68 00 00 00 00	 push	 OFFSET ??_C@_0BF@MDNOCHF@Ex_IsDefaultReadOnly@
  007f0	89 87 04 03 00
	00		 mov	 DWORD PTR [edi+772], eax
  007f6	ff 77 04	 push	 DWORD PTR [edi+4]
  007f9	ff d6		 call	 esi

; 774  : 		pGetDefaultCell	= (FpGetDefaultCell)::GetProcAddress(m_hLib, "Ex_GetDefaultCell");

  007fb	68 00 00 00 00	 push	 OFFSET ??_C@_0BC@HHBBOGH@Ex_GetDefaultCell@
  00800	89 87 08 03 00
	00		 mov	 DWORD PTR [edi+776], eax
  00806	ff 77 04	 push	 DWORD PTR [edi+4]
  00809	ff d6		 call	 esi

; 775  : 		pGetCell	= (FpGetCell)::GetProcAddress(m_hLib, "Ex_GetCell");

  0080b	68 00 00 00 00	 push	 OFFSET ??_C@_0L@IKFJGEFD@Ex_GetCell@
  00810	89 87 0c 03 00
	00		 mov	 DWORD PTR [edi+780], eax
  00816	ff 77 04	 push	 DWORD PTR [edi+4]
  00819	ff d6		 call	 esi

; 776  : 		pSetModified	= (FpSetModified)::GetProcAddress(m_hLib, "Ex_SetModified");

  0081b	68 00 00 00 00	 push	 OFFSET ??_C@_0P@NKJNBMJC@Ex_SetModified@
  00820	89 87 10 03 00
	00		 mov	 DWORD PTR [edi+784], eax
  00826	ff 77 04	 push	 DWORD PTR [edi+4]
  00829	ff d6		 call	 esi

; 777  : 		pGetModified	= (FpGetModified)::GetProcAddress(m_hLib, "Ex_GetModified");

  0082b	68 00 00 00 00	 push	 OFFSET ??_C@_0P@NFIDMKBB@Ex_GetModified@
  00830	89 87 14 03 00
	00		 mov	 DWORD PTR [edi+788], eax
  00836	ff 77 04	 push	 DWORD PTR [edi+4]
  00839	ff d6		 call	 esi

; 778  : 		pIsCellFixed	= (FpIsCellFixed)::GetProcAddress(m_hLib, "Ex_IsCellFixed");

  0083b	68 00 00 00 00	 push	 OFFSET ??_C@_0P@OIJIPHDB@Ex_IsCellFixed@
  00840	89 87 18 03 00
	00		 mov	 DWORD PTR [edi+792], eax
  00846	ff 77 04	 push	 DWORD PTR [edi+4]
  00849	ff d6		 call	 esi

; 779  : 		pSetItem	= (FpSetItem)::GetProcAddress(m_hLib, "Ex_SetItem");

  0084b	68 00 00 00 00	 push	 OFFSET ??_C@_0L@MGHHHJBH@Ex_SetItem@
  00850	89 87 1c 03 00
	00		 mov	 DWORD PTR [edi+796], eax
  00856	ff 77 04	 push	 DWORD PTR [edi+4]
  00859	ff d6		 call	 esi

; 780  : 		pGetItem	= (FpGetItem)::GetProcAddress(m_hLib, "Ex_GetItem");

  0085b	68 00 00 00 00	 push	 OFFSET ??_C@_0L@DOIGEGMG@Ex_GetItem@
  00860	89 87 20 03 00
	00		 mov	 DWORD PTR [edi+800], eax
  00866	ff 77 04	 push	 DWORD PTR [edi+4]
  00869	ff d6		 call	 esi

; 781  : 		pSetItemText	= (FpSetItemText)::GetProcAddress(m_hLib, "Ex_SetItemText");

  0086b	68 00 00 00 00	 push	 OFFSET ??_C@_0P@FEENFPGN@Ex_SetItemText@
  00870	89 87 24 03 00
	00		 mov	 DWORD PTR [edi+804], eax
  00876	ff 77 04	 push	 DWORD PTR [edi+4]
  00879	ff d6		 call	 esi

; 782  : 		pGetItemText	= (FpGetItemText)::GetProcAddress(m_hLib, "Ex_GetItemText");

  0087b	68 00 00 00 00	 push	 OFFSET ??_C@_0P@FLFDIJOO@Ex_GetItemText@
  00880	89 87 28 03 00
	00		 mov	 DWORD PTR [edi+808], eax
  00886	ff 77 04	 push	 DWORD PTR [edi+4]
  00889	ff d6		 call	 esi

; 783  : 		pSetItemTextFmt	= (FpSetItemTextFmt)::GetProcAddress(m_hLib, "Ex_SetItemTextFmt");

  0088b	68 00 00 00 00	 push	 OFFSET ??_C@_0BC@MAGCMHPB@Ex_SetItemTextFmt@
  00890	89 87 2c 03 00
	00		 mov	 DWORD PTR [edi+812], eax
  00896	ff 77 04	 push	 DWORD PTR [edi+4]
  00899	ff d6		 call	 esi

; 784  : 		pSetItemTextFmtID	= (FpSetItemTextFmtID)::GetProcAddress(m_hLib, "Ex_SetItemTextFmtID");

  0089b	68 00 00 00 00	 push	 OFFSET ??_C@_0BE@ODPJHLMD@Ex_SetItemTextFmtID@
  008a0	89 87 30 03 00
	00		 mov	 DWORD PTR [edi+816], eax
  008a6	ff 77 04	 push	 DWORD PTR [edi+4]
  008a9	ff d6		 call	 esi

; 785  : 		pSetItemData	= (FpSetItemData)::GetProcAddress(m_hLib, "Ex_SetItemData");

  008ab	68 00 00 00 00	 push	 OFFSET ??_C@_0P@IFGAEAMI@Ex_SetItemData@
  008b0	89 87 34 03 00
	00		 mov	 DWORD PTR [edi+820], eax
  008b6	ff 77 04	 push	 DWORD PTR [edi+4]
  008b9	ff d6		 call	 esi

; 786  : 		pGetItemData	= (FpGetItemData)::GetProcAddress(m_hLib, "Ex_GetItemData");

  008bb	68 00 00 00 00	 push	 OFFSET ??_C@_0P@IKHOJGEL@Ex_GetItemData@
  008c0	89 87 38 03 00
	00		 mov	 DWORD PTR [edi+824], eax
  008c6	ff 77 04	 push	 DWORD PTR [edi+4]
  008c9	ff d6		 call	 esi

; 787  : 		pSetItemImage	= (FpSetItemImage)::GetProcAddress(m_hLib, "Ex_SetItemImage");

  008cb	68 00 00 00 00	 push	 OFFSET ??_C@_0BA@JHJEJAOA@Ex_SetItemImage@
  008d0	89 87 3c 03 00
	00		 mov	 DWORD PTR [edi+828], eax
  008d6	ff 77 04	 push	 DWORD PTR [edi+4]
  008d9	ff d6		 call	 esi
  008db	89 87 40 03 00
	00		 mov	 DWORD PTR [edi+832], eax

; 788  : 		pGetItemImage	= (FpGetItemImage)::GetProcAddress(m_hLib, "Ex_GetItemImage");

  008e1	68 00 00 00 00	 push	 OFFSET ??_C@_0BA@ODCKFMKM@Ex_GetItemImage@
  008e6	ff 77 04	 push	 DWORD PTR [edi+4]
  008e9	ff d6		 call	 esi

; 789  : 		pSetItemState	= (FpSetItemState)::GetProcAddress(m_hLib, "Ex_SetItemState");

  008eb	68 00 00 00 00	 push	 OFFSET ??_C@_0BA@EGEJFJMH@Ex_SetItemState@
  008f0	89 87 44 03 00
	00		 mov	 DWORD PTR [edi+836], eax
  008f6	ff 77 04	 push	 DWORD PTR [edi+4]
  008f9	ff d6		 call	 esi

; 790  : 		pGetItemState	= (FpGetItemState)::GetProcAddress(m_hLib, "Ex_GetItemState");

  008fb	68 00 00 00 00	 push	 OFFSET ??_C@_0BA@DCPHJFIL@Ex_GetItemState@
  00900	89 87 48 03 00
	00		 mov	 DWORD PTR [edi+840], eax
  00906	ff 77 04	 push	 DWORD PTR [edi+4]
  00909	ff d6		 call	 esi

; 791  : 		pSetItemFormat	= (FpSetItemFormat)::GetProcAddress(m_hLib, "Ex_SetItemFormat");

  0090b	68 00 00 00 00	 push	 OFFSET ??_C@_0BB@BPLKLOBC@Ex_SetItemFormat@
  00910	89 87 4c 03 00
	00		 mov	 DWORD PTR [edi+844], eax
  00916	ff 77 04	 push	 DWORD PTR [edi+4]
  00919	ff d6		 call	 esi

; 792  : 		pGetItemFormat	= (FpGetItemFormat)::GetProcAddress(m_hLib, "Ex_GetItemFormat");

  0091b	68 00 00 00 00	 push	 OFFSET ??_C@_0BB@GAKEANGF@Ex_GetItemFormat@
  00920	89 87 50 03 00
	00		 mov	 DWORD PTR [edi+848], eax
  00926	ff 77 04	 push	 DWORD PTR [edi+4]
  00929	ff d6		 call	 esi

; 793  : 		pSetItemBkColour	= (FpSetItemBkColour)::GetProcAddress(m_hLib, "Ex_SetItemBkColour");

  0092b	68 00 00 00 00	 push	 OFFSET ??_C@_0BD@POOMAEBJ@Ex_SetItemBkColour@
  00930	89 87 54 03 00
	00		 mov	 DWORD PTR [edi+852], eax
  00936	ff 77 04	 push	 DWORD PTR [edi+4]
  00939	ff d6		 call	 esi

; 794  : 		pGetItemBkColour	= (FpGetItemBkColour)::GetProcAddress(m_hLib, "Ex_GetItemBkColour");

  0093b	68 00 00 00 00	 push	 OFFSET ??_C@_0BD@MMPKHGAA@Ex_GetItemBkColour@
  00940	89 87 58 03 00
	00		 mov	 DWORD PTR [edi+856], eax
  00946	ff 77 04	 push	 DWORD PTR [edi+4]
  00949	ff d6		 call	 esi

; 795  : 		pSetItemFgColour	= (FpSetItemFgColour)::GetProcAddress(m_hLib, "Ex_SetItemFgColour");

  0094b	68 00 00 00 00	 push	 OFFSET ??_C@_0BD@PEKPEAFK@Ex_SetItemFgColour@
  00950	89 87 5c 03 00
	00		 mov	 DWORD PTR [edi+860], eax
  00956	ff 77 04	 push	 DWORD PTR [edi+4]
  00959	ff d6		 call	 esi

; 796  : 		pGetItemFgColour	= (FpGetItemFgColour)::GetProcAddress(m_hLib, "Ex_GetItemFgColour");

  0095b	68 00 00 00 00	 push	 OFFSET ??_C@_0BD@MGLJDCED@Ex_GetItemFgColour@
  00960	89 87 60 03 00
	00		 mov	 DWORD PTR [edi+864], eax
  00966	ff 77 04	 push	 DWORD PTR [edi+4]
  00969	ff d6		 call	 esi

; 797  : 		pSetItemFont	= (FpSetItemFont)::GetProcAddress(m_hLib, "Ex_SetItemFont");

  0096b	68 00 00 00 00	 push	 OFFSET ??_C@_0P@DJHLKECJ@Ex_SetItemFont@
  00970	89 87 64 03 00
	00		 mov	 DWORD PTR [edi+868], eax
  00976	ff 77 04	 push	 DWORD PTR [edi+4]
  00979	ff d6		 call	 esi

; 798  : 		pGetItemFont	= (FpGetItemFont)::GetProcAddress(m_hLib, "Ex_GetItemFont");

  0097b	68 00 00 00 00	 push	 OFFSET ??_C@_0P@DGGFHCKK@Ex_GetItemFont@
  00980	89 87 68 03 00
	00		 mov	 DWORD PTR [edi+872], eax
  00986	ff 77 04	 push	 DWORD PTR [edi+4]
  00989	ff d6		 call	 esi

; 799  : 		pIsItemEditing	= (FpIsItemEditing)::GetProcAddress(m_hLib, "Ex_IsItemEditing");

  0098b	68 00 00 00 00	 push	 OFFSET ??_C@_0BB@GLGIIOMO@Ex_IsItemEditing@
  00990	89 87 6c 03 00
	00		 mov	 DWORD PTR [edi+876], eax
  00996	ff 77 04	 push	 DWORD PTR [edi+4]
  00999	ff d6		 call	 esi

; 800  : 		pSetCellType	= (FpSetCellType)::GetProcAddress(m_hLib, "Ex_SetCellType");

  0099b	68 00 00 00 00	 push	 OFFSET ??_C@_0P@GILDOILP@Ex_SetCellType@
  009a0	89 87 70 03 00
	00		 mov	 DWORD PTR [edi+880], eax
  009a6	ff 77 04	 push	 DWORD PTR [edi+4]
  009a9	ff d6		 call	 esi

; 801  : 		pInsertColumn	= (FpInsertColumn)::GetProcAddress(m_hLib, "Ex_InsertColumn");

  009ab	68 00 00 00 00	 push	 OFFSET ??_C@_0BA@JFAAFLHP@Ex_InsertColumn@
  009b0	89 87 74 03 00
	00		 mov	 DWORD PTR [edi+884], eax
  009b6	ff 77 04	 push	 DWORD PTR [edi+4]
  009b9	ff d6		 call	 esi

; 802  : 		pInsertRow	= (FpInsertRow)::GetProcAddress(m_hLib, "Ex_InsertRow");

  009bb	68 00 00 00 00	 push	 OFFSET ??_C@_0N@JMDPIIIA@Ex_InsertRow@
  009c0	89 87 78 03 00
	00		 mov	 DWORD PTR [edi+888], eax
  009c6	ff 77 04	 push	 DWORD PTR [edi+4]
  009c9	ff d6		 call	 esi

; 803  : 		pDeleteColumn	= (FpDeleteColumn)::GetProcAddress(m_hLib, "Ex_DeleteColumn");

  009cb	68 00 00 00 00	 push	 OFFSET ??_C@_0BA@FNLLOHDN@Ex_DeleteColumn@
  009d0	89 87 7c 03 00
	00		 mov	 DWORD PTR [edi+892], eax
  009d6	ff 77 04	 push	 DWORD PTR [edi+4]
  009d9	ff d6		 call	 esi

; 804  : 		pDeleteRow	= (FpDeleteRow)::GetProcAddress(m_hLib, "Ex_DeleteRow");

  009db	68 00 00 00 00	 push	 OFFSET ??_C@_0N@MFNGODEF@Ex_DeleteRow@
  009e0	89 87 80 03 00
	00		 mov	 DWORD PTR [edi+896], eax
  009e6	ff 77 04	 push	 DWORD PTR [edi+4]
  009e9	ff d6		 call	 esi

; 805  : 		pDeleteNonFixedRows	= (FpDeleteNonFixedRows)::GetProcAddress(m_hLib, "Ex_DeleteNonFixedRows");

  009eb	68 00 00 00 00	 push	 OFFSET ??_C@_0BG@MJGKPDPA@Ex_DeleteNonFixedRows@
  009f0	89 87 84 03 00
	00		 mov	 DWORD PTR [edi+900], eax
  009f6	ff 77 04	 push	 DWORD PTR [edi+4]
  009f9	ff d6		 call	 esi

; 806  : 		pDeleteAllItems	= (FpDeleteAllItems)::GetProcAddress(m_hLib, "Ex_DeleteAllItems");

  009fb	68 00 00 00 00	 push	 OFFSET ??_C@_0BC@HJKLIKNJ@Ex_DeleteAllItems@
  00a00	89 87 88 03 00
	00		 mov	 DWORD PTR [edi+904], eax
  00a06	ff 77 04	 push	 DWORD PTR [edi+4]
  00a09	ff d6		 call	 esi

; 807  : 		pClearCells	= (FpClearCells)::GetProcAddress(m_hLib, "Ex_ClearCells");

  00a0b	68 00 00 00 00	 push	 OFFSET ??_C@_0O@FMEEJLNJ@Ex_ClearCells@
  00a10	89 87 8c 03 00
	00		 mov	 DWORD PTR [edi+908], eax
  00a16	ff 77 04	 push	 DWORD PTR [edi+4]
  00a19	ff d6		 call	 esi

; 808  : 		pAutoSizeRow	= (FpAutoSizeRow)::GetProcAddress(m_hLib, "Ex_AutoSizeRow");

  00a1b	68 00 00 00 00	 push	 OFFSET ??_C@_0P@CEKJHOM@Ex_AutoSizeRow@
  00a20	89 87 90 03 00
	00		 mov	 DWORD PTR [edi+912], eax
  00a26	ff 77 04	 push	 DWORD PTR [edi+4]
  00a29	ff d6		 call	 esi

; 809  : 		pAutoSizeColumn	= (FpAutoSizeColumn)::GetProcAddress(m_hLib, "Ex_AutoSizeColumn");

  00a2b	68 00 00 00 00	 push	 OFFSET ??_C@_0BC@DJPIOCII@Ex_AutoSizeColumn@
  00a30	89 87 94 03 00
	00		 mov	 DWORD PTR [edi+916], eax
  00a36	ff 77 04	 push	 DWORD PTR [edi+4]
  00a39	ff d6		 call	 esi

; 810  : 		pAutoSizeRows	= (FpAutoSizeRows)::GetProcAddress(m_hLib, "Ex_AutoSizeRows");

  00a3b	68 00 00 00 00	 push	 OFFSET ??_C@_0BA@KNKMMOPB@Ex_AutoSizeRows@
  00a40	89 87 98 03 00
	00		 mov	 DWORD PTR [edi+920], eax
  00a46	ff 77 04	 push	 DWORD PTR [edi+4]
  00a49	ff d6		 call	 esi

; 811  : 		pAutoSizeColumns	= (FpAutoSizeColumns)::GetProcAddress(m_hLib, "Ex_AutoSizeColumns");

  00a4b	68 00 00 00 00	 push	 OFFSET ??_C@_0BD@OHEINJMF@Ex_AutoSizeColumns@
  00a50	89 87 9c 03 00
	00		 mov	 DWORD PTR [edi+924], eax
  00a56	ff 77 04	 push	 DWORD PTR [edi+4]
  00a59	ff d6		 call	 esi

; 812  : 		pAutoSize	= (FpAutoSize)::GetProcAddress(m_hLib, "Ex_AutoSize");

  00a5b	68 00 00 00 00	 push	 OFFSET ??_C@_0M@JELJCJPC@Ex_AutoSize@
  00a60	89 87 a0 03 00
	00		 mov	 DWORD PTR [edi+928], eax
  00a66	ff 77 04	 push	 DWORD PTR [edi+4]
  00a69	ff d6		 call	 esi

; 813  : 		pExpandColumnsToFit	= (FpExpandColumnsToFit)::GetProcAddress(m_hLib, "Ex_ExpandColumnsToFit");

  00a6b	68 00 00 00 00	 push	 OFFSET ??_C@_0BG@INCAPNJM@Ex_ExpandColumnsToFit@
  00a70	89 87 a4 03 00
	00		 mov	 DWORD PTR [edi+932], eax
  00a76	ff 77 04	 push	 DWORD PTR [edi+4]
  00a79	ff d6		 call	 esi

; 814  : 		pExpandLastColumn	= (FpExpandLastColumn)::GetProcAddress(m_hLib, "Ex_ExpandLastColumn");

  00a7b	68 00 00 00 00	 push	 OFFSET ??_C@_0BE@EGEDCFD@Ex_ExpandLastColumn@
  00a80	89 87 a8 03 00
	00		 mov	 DWORD PTR [edi+936], eax
  00a86	ff 77 04	 push	 DWORD PTR [edi+4]
  00a89	ff d6		 call	 esi

; 815  : 		pExpandRowsToFit	= (FpExpandRowsToFit)::GetProcAddress(m_hLib, "Ex_ExpandRowsToFit");

  00a8b	68 00 00 00 00	 push	 OFFSET ??_C@_0BD@PKDGNOBB@Ex_ExpandRowsToFit@
  00a90	89 87 ac 03 00
	00		 mov	 DWORD PTR [edi+940], eax
  00a96	ff 77 04	 push	 DWORD PTR [edi+4]
  00a99	ff d6		 call	 esi

; 816  : 		pExpandToFit	= (FpExpandToFit)::GetProcAddress(m_hLib, "Ex_ExpandToFit");

  00a9b	68 00 00 00 00	 push	 OFFSET ??_C@_0P@PDCDCOEO@Ex_ExpandToFit@
  00aa0	89 87 b0 03 00
	00		 mov	 DWORD PTR [edi+944], eax
  00aa6	ff 77 04	 push	 DWORD PTR [edi+4]
  00aa9	ff d6		 call	 esi

; 817  : 		pRefresh	= (FpRefresh)::GetProcAddress(m_hLib, "Ex_Refresh");

  00aab	68 00 00 00 00	 push	 OFFSET ??_C@_0L@BPELEIPD@Ex_Refresh@
  00ab0	89 87 b4 03 00
	00		 mov	 DWORD PTR [edi+948], eax
  00ab6	ff 77 04	 push	 DWORD PTR [edi+4]
  00ab9	ff d6		 call	 esi

; 818  : 		pAutoFill	= (FpAutoFill)::GetProcAddress(m_hLib, "Ex_AutoFill");

  00abb	68 00 00 00 00	 push	 OFFSET ??_C@_0M@PFNAFFIL@Ex_AutoFill@
  00ac0	89 87 b8 03 00
	00		 mov	 DWORD PTR [edi+952], eax
  00ac6	ff 77 04	 push	 DWORD PTR [edi+4]
  00ac9	ff d6		 call	 esi

; 819  : 		pEnsureVisible	= (FpEnsureVisible)::GetProcAddress(m_hLib, "Ex_EnsureVisible");

  00acb	68 00 00 00 00	 push	 OFFSET ??_C@_0BB@LMOBPEEA@Ex_EnsureVisible@
  00ad0	89 87 bc 03 00
	00		 mov	 DWORD PTR [edi+956], eax
  00ad6	ff 77 04	 push	 DWORD PTR [edi+4]
  00ad9	ff d6		 call	 esi

; 820  : 		pEnsureVisible2	= (FpEnsureVisible2)::GetProcAddress(m_hLib, "Ex_EnsureVisible2");

  00adb	68 00 00 00 00	 push	 OFFSET ??_C@_0BC@JLBAPEBF@Ex_EnsureVisible2@
  00ae0	89 87 c0 03 00
	00		 mov	 DWORD PTR [edi+960], eax
  00ae6	ff 77 04	 push	 DWORD PTR [edi+4]
  00ae9	ff d6		 call	 esi

; 821  : 		pIsCellVisible	= (FpIsCellVisible)::GetProcAddress(m_hLib, "Ex_IsCellVisible");

  00aeb	68 00 00 00 00	 push	 OFFSET ??_C@_0BB@EKCEFGAG@Ex_IsCellVisible@
  00af0	89 87 c4 03 00
	00		 mov	 DWORD PTR [edi+964], eax
  00af6	ff 77 04	 push	 DWORD PTR [edi+4]
  00af9	ff d6		 call	 esi

; 822  : 		pIsCellVisible2	= (FpIsCellVisible2)::GetProcAddress(m_hLib, "Ex_IsCellVisible2");

  00afb	68 00 00 00 00	 push	 OFFSET ??_C@_0BC@EFJNFBC@Ex_IsCellVisible2@
  00b00	89 87 c8 03 00
	00		 mov	 DWORD PTR [edi+968], eax
  00b06	ff 77 04	 push	 DWORD PTR [edi+4]
  00b09	ff d6		 call	 esi

; 823  : 		pIsCellEditable	= (FpIsCellEditable)::GetProcAddress(m_hLib, "Ex_IsCellEditable");

  00b0b	68 00 00 00 00	 push	 OFFSET ??_C@_0BC@CLKDJBEN@Ex_IsCellEditable@
  00b10	89 87 cc 03 00
	00		 mov	 DWORD PTR [edi+972], eax
  00b16	ff 77 04	 push	 DWORD PTR [edi+4]
  00b19	ff d6		 call	 esi

; 824  : 		pIsCellEditable2	= (FpIsCellEditable2)::GetProcAddress(m_hLib, "Ex_IsCellEditable2");

  00b1b	68 00 00 00 00	 push	 OFFSET ??_C@_0BD@OFDGMKMN@Ex_IsCellEditable2@
  00b20	89 87 d0 03 00
	00		 mov	 DWORD PTR [edi+976], eax
  00b26	ff 77 04	 push	 DWORD PTR [edi+4]
  00b29	ff d6		 call	 esi

; 825  : 		pIsCellSelected	= (FpIsCellSelected)::GetProcAddress(m_hLib, "Ex_IsCellSelected");

  00b2b	68 00 00 00 00	 push	 OFFSET ??_C@_0BC@LLBJAFFM@Ex_IsCellSelected@
  00b30	89 87 d4 03 00
	00		 mov	 DWORD PTR [edi+980], eax
  00b36	ff 77 04	 push	 DWORD PTR [edi+4]
  00b39	ff d6		 call	 esi

; 826  : 		pIsCellSelected2	= (FpIsCellSelected2)::GetProcAddress(m_hLib, "Ex_IsCellSelected2");

  00b3b	68 00 00 00 00	 push	 OFFSET ??_C@_0BD@IPBGFAKL@Ex_IsCellSelected2@
  00b40	89 87 d8 03 00
	00		 mov	 DWORD PTR [edi+984], eax
  00b46	ff 77 04	 push	 DWORD PTR [edi+4]
  00b49	ff d6		 call	 esi

; 827  : 		pSetRedraw	= (FpSetRedraw)::GetProcAddress(m_hLib, "Ex_SetRedraw");

  00b4b	68 00 00 00 00	 push	 OFFSET ??_C@_0N@JNHILCCM@Ex_SetRedraw@
  00b50	89 87 dc 03 00
	00		 mov	 DWORD PTR [edi+988], eax
  00b56	ff 77 04	 push	 DWORD PTR [edi+4]
  00b59	ff d6		 call	 esi

; 828  : 		pRedrawCell	= (FpRedrawCell)::GetProcAddress(m_hLib, "Ex_RedrawCell");

  00b5b	68 00 00 00 00	 push	 OFFSET ??_C@_0O@BNGINBML@Ex_RedrawCell@
  00b60	89 87 e0 03 00
	00		 mov	 DWORD PTR [edi+992], eax
  00b66	ff 77 04	 push	 DWORD PTR [edi+4]
  00b69	ff d6		 call	 esi

; 829  : 		pRedrawCell2	= (FpRedrawCell2)::GetProcAddress(m_hLib, "Ex_RedrawCell2");

  00b6b	68 00 00 00 00	 push	 OFFSET ??_C@_0P@OBNLCHJI@Ex_RedrawCell2@
  00b70	89 87 e4 03 00
	00		 mov	 DWORD PTR [edi+996], eax
  00b76	ff 77 04	 push	 DWORD PTR [edi+4]
  00b79	ff d6		 call	 esi

; 830  : 		pRedrawRow	= (FpRedrawRow)::GetProcAddress(m_hLib, "Ex_RedrawRow");

  00b7b	68 00 00 00 00	 push	 OFFSET ??_C@_0N@NHMBPMNF@Ex_RedrawRow@
  00b80	89 87 e8 03 00
	00		 mov	 DWORD PTR [edi+1000], eax
  00b86	ff 77 04	 push	 DWORD PTR [edi+4]
  00b89	ff d6		 call	 esi

; 831  : 		pRedrawColumn	= (FpRedrawColumn)::GetProcAddress(m_hLib, "Ex_RedrawColumn");

  00b8b	68 00 00 00 00	 push	 OFFSET ??_C@_0BA@OOCBNEIG@Ex_RedrawColumn@
  00b90	89 87 ec 03 00
	00		 mov	 DWORD PTR [edi+1004], eax
  00b96	ff 77 04	 push	 DWORD PTR [edi+4]
  00b99	ff d6		 call	 esi

; 832  : 		pSave	= (FpSave)::GetProcAddress(m_hLib, "Ex_Save");

  00b9b	68 00 00 00 00	 push	 OFFSET ??_C@_07GNCAGGAM@Ex_Save@
  00ba0	89 87 f0 03 00
	00		 mov	 DWORD PTR [edi+1008], eax
  00ba6	ff 77 04	 push	 DWORD PTR [edi+4]
  00ba9	ff d6		 call	 esi

; 833  : 		pLoad	= (FpLoad)::GetProcAddress(m_hLib, "Ex_Load");

  00bab	68 00 00 00 00	 push	 OFFSET ??_C@_07GPDNJFNI@Ex_Load@
  00bb0	89 87 f4 03 00
	00		 mov	 DWORD PTR [edi+1012], eax
  00bb6	ff 77 04	 push	 DWORD PTR [edi+4]
  00bb9	ff d6		 call	 esi

; 834  : 		pGetCellRange	= (FpGetCellRange)::GetProcAddress(m_hLib, "Ex_GetCellRange");

  00bbb	68 00 00 00 00	 push	 OFFSET ??_C@_0BA@CAJIFMH@Ex_GetCellRange@
  00bc0	89 87 f8 03 00
	00		 mov	 DWORD PTR [edi+1016], eax
  00bc6	ff 77 04	 push	 DWORD PTR [edi+4]
  00bc9	ff d6		 call	 esi

; 835  : 		pGetSelectedCellRange	= (FpGetSelectedCellRange)::GetProcAddress(m_hLib, "Ex_GetSelectedCellRange");

  00bcb	68 00 00 00 00	 push	 OFFSET ??_C@_0BI@CMMIKBMP@Ex_GetSelectedCellRange@
  00bd0	89 87 fc 03 00
	00		 mov	 DWORD PTR [edi+1020], eax
  00bd6	ff 77 04	 push	 DWORD PTR [edi+4]
  00bd9	ff d6		 call	 esi

; 836  : 		pSetSelectedRange	= (FpSetSelectedRange)::GetProcAddress(m_hLib, "Ex_SetSelectedRange");

  00bdb	68 00 00 00 00	 push	 OFFSET ??_C@_0BE@HECMCKIG@Ex_SetSelectedRange@
  00be0	89 87 00 04 00
	00		 mov	 DWORD PTR [edi+1024], eax
  00be6	ff 77 04	 push	 DWORD PTR [edi+4]
  00be9	ff d6		 call	 esi

; 837  : 		pSetSelectedRange2	= (FpSetSelectedRange2)::GetProcAddress(m_hLib, "Ex_SetSelectedRange2");

  00beb	68 00 00 00 00	 push	 OFFSET ??_C@_0BF@OJNPFOEO@Ex_SetSelectedRange2@
  00bf0	89 87 04 04 00
	00		 mov	 DWORD PTR [edi+1028], eax
  00bf6	ff 77 04	 push	 DWORD PTR [edi+4]
  00bf9	ff d6		 call	 esi

; 838  : 		pIsValid	= (FpIsValid)::GetProcAddress(m_hLib, "Ex_IsValid");

  00bfb	68 00 00 00 00	 push	 OFFSET ??_C@_0L@NJKCAAKF@Ex_IsValid@
  00c00	89 87 08 04 00
	00		 mov	 DWORD PTR [edi+1032], eax
  00c06	ff 77 04	 push	 DWORD PTR [edi+4]
  00c09	ff d6		 call	 esi

; 839  : 		pIsValid2	= (FpIsValid2)::GetProcAddress(m_hLib, "Ex_IsValid2");

  00c0b	68 00 00 00 00	 push	 OFFSET ??_C@_0M@ELBFKBBG@Ex_IsValid2@
  00c10	89 87 0c 04 00
	00		 mov	 DWORD PTR [edi+1036], eax
  00c16	ff 77 04	 push	 DWORD PTR [edi+4]
  00c19	ff d6		 call	 esi

; 840  : 		pIsValid3	= (FpIsValid3)::GetProcAddress(m_hLib, "Ex_IsValid3");

  00c1b	68 00 00 00 00	 push	 OFFSET ??_C@_0M@FCAOJAFH@Ex_IsValid3@
  00c20	89 87 10 04 00
	00		 mov	 DWORD PTR [edi+1040], eax
  00c26	ff 77 04	 push	 DWORD PTR [edi+4]
  00c29	ff d6		 call	 esi

; 841  : 		pCutSelectedText	= (FpCutSelectedText)::GetProcAddress(m_hLib, "Ex_CutSelectedText");

  00c2b	68 00 00 00 00	 push	 OFFSET ??_C@_0BD@HLADNECC@Ex_CutSelectedText@
  00c30	89 87 14 04 00
	00		 mov	 DWORD PTR [edi+1044], eax
  00c36	ff 77 04	 push	 DWORD PTR [edi+4]
  00c39	ff d6		 call	 esi

; 842  : 		pCopyTextFromGrid	= (FpCopyTextFromGrid)::GetProcAddress(m_hLib, "Ex_CopyTextFromGrid");

  00c3b	68 00 00 00 00	 push	 OFFSET ??_C@_0BE@CDOOMMLN@Ex_CopyTextFromGrid@
  00c40	89 87 18 04 00
	00		 mov	 DWORD PTR [edi+1048], eax
  00c46	ff 77 04	 push	 DWORD PTR [edi+4]
  00c49	ff d6		 call	 esi

; 843  : 		pPasteTextToGrid	= (FpPasteTextToGrid)::GetProcAddress(m_hLib, "Ex_PasteTextToGrid");

  00c4b	68 00 00 00 00	 push	 OFFSET ??_C@_0BD@LEHFDCLN@Ex_PasteTextToGrid@
  00c50	89 87 1c 04 00
	00		 mov	 DWORD PTR [edi+1052], eax
  00c56	ff 77 04	 push	 DWORD PTR [edi+4]
  00c59	ff d6		 call	 esi

; 844  : 		pOnBeginDrag	= (FpOnBeginDrag)::GetProcAddress(m_hLib, "Ex_OnBeginDrag");

  00c5b	68 00 00 00 00	 push	 OFFSET ??_C@_0P@BDGAPEEH@Ex_OnBeginDrag@
  00c60	89 87 20 04 00
	00		 mov	 DWORD PTR [edi+1056], eax
  00c66	ff 77 04	 push	 DWORD PTR [edi+4]
  00c69	ff d6		 call	 esi

; 845  : 		pOnDragEnter	= (FpOnDragEnter)::GetProcAddress(m_hLib, "Ex_OnDragEnter");

  00c6b	68 00 00 00 00	 push	 OFFSET ??_C@_0P@LDECAKCG@Ex_OnDragEnter@
  00c70	89 87 24 04 00
	00		 mov	 DWORD PTR [edi+1060], eax
  00c76	ff 77 04	 push	 DWORD PTR [edi+4]
  00c79	ff d6		 call	 esi

; 846  : 		pOnDragOver	= (FpOnDragOver)::GetProcAddress(m_hLib, "Ex_OnDragOver");

  00c7b	68 00 00 00 00	 push	 OFFSET ??_C@_0O@FNABDCOI@Ex_OnDragOver@
  00c80	89 87 28 04 00
	00		 mov	 DWORD PTR [edi+1064], eax
  00c86	ff 77 04	 push	 DWORD PTR [edi+4]
  00c89	ff d6		 call	 esi

; 847  : 		pOnDragLeave	= (FpOnDragLeave)::GetProcAddress(m_hLib, "Ex_OnDragLeave");

  00c8b	68 00 00 00 00	 push	 OFFSET ??_C@_0P@JPLJFEON@Ex_OnDragLeave@
  00c90	89 87 2c 04 00
	00		 mov	 DWORD PTR [edi+1068], eax
  00c96	ff 77 04	 push	 DWORD PTR [edi+4]
  00c99	ff d6		 call	 esi

; 848  : 		pOnDrop	= (FpOnDrop)::GetProcAddress(m_hLib, "Ex_OnDrop");

  00c9b	68 00 00 00 00	 push	 OFFSET ??_C@_09CDNHNDAF@Ex_OnDrop@
  00ca0	89 87 30 04 00
	00		 mov	 DWORD PTR [edi+1072], eax
  00ca6	ff 77 04	 push	 DWORD PTR [edi+4]
  00ca9	ff d6		 call	 esi
  00cab	89 87 34 04 00
	00		 mov	 DWORD PTR [edi+1076], eax

; 849  : 		pOnEditCut	= (FpOnEditCut)::GetProcAddress(m_hLib, "Ex_OnEditCut");

  00cb1	68 00 00 00 00	 push	 OFFSET ??_C@_0N@MPNMBOEO@Ex_OnEditCut@
  00cb6	ff 77 04	 push	 DWORD PTR [edi+4]
  00cb9	ff d6		 call	 esi

; 850  : 		pOnEditCopy	= (FpOnEditCopy)::GetProcAddress(m_hLib, "Ex_OnEditCopy");

  00cbb	68 00 00 00 00	 push	 OFFSET ??_C@_0O@FHPLGNBB@Ex_OnEditCopy@
  00cc0	89 87 38 04 00
	00		 mov	 DWORD PTR [edi+1080], eax
  00cc6	ff 77 04	 push	 DWORD PTR [edi+4]
  00cc9	ff d6		 call	 esi

; 851  : 		pOnEditPaste	= (FpOnEditPaste)::GetProcAddress(m_hLib, "Ex_OnEditPaste");

  00ccb	68 00 00 00 00	 push	 OFFSET ??_C@_0P@FCHCLGJE@Ex_OnEditPaste@
  00cd0	89 87 3c 04 00
	00		 mov	 DWORD PTR [edi+1084], eax
  00cd6	ff 77 04	 push	 DWORD PTR [edi+4]
  00cd9	ff d6		 call	 esi

; 852  : 		pOnEditSelectAll	= (FpOnEditSelectAll)::GetProcAddress(m_hLib, "Ex_OnEditSelectAll");

  00cdb	68 00 00 00 00	 push	 OFFSET ??_C@_0BD@MIFCANKK@Ex_OnEditSelectAll@
  00ce0	89 87 40 04 00
	00		 mov	 DWORD PTR [edi+1088], eax
  00ce6	ff 77 04	 push	 DWORD PTR [edi+4]
  00ce9	ff d6		 call	 esi

; 853  : 		pGetNextItem	= (FpGetNextItem)::GetProcAddress(m_hLib, "Ex_GetNextItem");

  00ceb	68 00 00 00 00	 push	 OFFSET ??_C@_0P@FCNIIBDN@Ex_GetNextItem@
  00cf0	89 87 44 04 00
	00		 mov	 DWORD PTR [edi+1092], eax
  00cf6	ff 77 04	 push	 DWORD PTR [edi+4]
  00cf9	ff d6		 call	 esi

; 854  : 		pSortItems1	= (FpSortItems1)::GetProcAddress(m_hLib, "Ex_SortItems1");

  00cfb	68 00 00 00 00	 push	 OFFSET ??_C@_0O@DLONJMPE@Ex_SortItems1@
  00d00	89 87 48 04 00
	00		 mov	 DWORD PTR [edi+1096], eax
  00d06	ff 77 04	 push	 DWORD PTR [edi+4]
  00d09	ff d6		 call	 esi

; 855  : 		pSortTextItems2	= (FpSortTextItems2)::GetProcAddress(m_hLib, "Ex_SortTextItems2");

  00d0b	68 00 00 00 00	 push	 OFFSET ??_C@_0BC@EEHMHMIF@Ex_SortTextItems2@
  00d10	89 87 4c 04 00
	00		 mov	 DWORD PTR [edi+1100], eax
  00d16	ff 77 04	 push	 DWORD PTR [edi+4]
  00d19	ff d6		 call	 esi

; 856  : 		pSortItems2	= (FpSortItems2)::GetProcAddress(m_hLib, "Ex_SortItems2");

  00d1b	68 00 00 00 00	 push	 OFFSET ??_C@_0O@BAMAMPDH@Ex_SortItems2@
  00d20	89 87 50 04 00
	00		 mov	 DWORD PTR [edi+1104], eax
  00d26	ff 77 04	 push	 DWORD PTR [edi+4]
  00d29	ff d6		 call	 esi

; 857  : 		pSetCompareFunction	= (FpSetCompareFunction)::GetProcAddress(m_hLib, "Ex_SetCompareFunction");

  00d2b	68 00 00 00 00	 push	 OFFSET ??_C@_0BG@MHOCFLFP@Ex_SetCompareFunction@
  00d30	89 87 54 04 00
	00		 mov	 DWORD PTR [edi+1108], eax
  00d36	ff 77 04	 push	 DWORD PTR [edi+4]
  00d39	ff d6		 call	 esi

; 858  : 		pRegisterWindowClass	= (FpRegisterWindowClass)::GetProcAddress(m_hLib, "Ex_RegisterWindowClass");

  00d3b	68 00 00 00 00	 push	 OFFSET ??_C@_0BH@MNDJECPI@Ex_RegisterWindowClass@
  00d40	89 87 58 04 00
	00		 mov	 DWORD PTR [edi+1112], eax
  00d46	ff 77 04	 push	 DWORD PTR [edi+4]
  00d49	ff d6		 call	 esi

; 859  : 		pInitialise	= (FpInitialise)::GetProcAddress(m_hLib, "Ex_Initialise");

  00d4b	68 00 00 00 00	 push	 OFFSET ??_C@_0O@HGOAHAOL@Ex_Initialise@
  00d50	89 87 5c 04 00
	00		 mov	 DWORD PTR [edi+1116], eax
  00d56	ff 77 04	 push	 DWORD PTR [edi+4]
  00d59	ff d6		 call	 esi

; 860  : 		pSetupDefaultCells	= (FpSetupDefaultCells)::GetProcAddress(m_hLib, "Ex_SetupDefaultCells");

  00d5b	68 00 00 00 00	 push	 OFFSET ??_C@_0BF@CHBCJKNB@Ex_SetupDefaultCells@
  00d60	89 87 60 04 00
	00		 mov	 DWORD PTR [edi+1120], eax
  00d66	ff 77 04	 push	 DWORD PTR [edi+4]
  00d69	ff d6		 call	 esi

; 861  : 		pSendMessageToParent	= (FpSendMessageToParent)::GetProcAddress(m_hLib, "Ex_SendMessageToParent");

  00d6b	68 00 00 00 00	 push	 OFFSET ??_C@_0BH@BJMGKDEJ@Ex_SendMessageToParent@
  00d70	89 87 64 04 00
	00		 mov	 DWORD PTR [edi+1124], eax
  00d76	ff 77 04	 push	 DWORD PTR [edi+4]
  00d79	ff d6		 call	 esi

; 862  : 		pSendDisplayRequestToParent	= (FpSendDisplayRequestToParent)::GetProcAddress(m_hLib, "Ex_SendDisplayRequestToParent");

  00d7b	68 00 00 00 00	 push	 OFFSET ??_C@_0BO@JMHDGLFK@Ex_SendDisplayRequestToParent@
  00d80	89 87 68 04 00
	00		 mov	 DWORD PTR [edi+1128], eax
  00d86	ff 77 04	 push	 DWORD PTR [edi+4]
  00d89	ff d6		 call	 esi

; 863  : 		pSendCacheHintToParent	= (FpSendCacheHintToParent)::GetProcAddress(m_hLib, "Ex_SendCacheHintToParent");

  00d8b	68 00 00 00 00	 push	 OFFSET ??_C@_0BJ@CKKJCBFA@Ex_SendCacheHintToParent@
  00d90	89 87 6c 04 00
	00		 mov	 DWORD PTR [edi+1132], eax
  00d96	ff 77 04	 push	 DWORD PTR [edi+4]
  00d99	ff d6		 call	 esi

; 864  : 		pInvalidateCellRect	= (FpInvalidateCellRect)::GetProcAddress(m_hLib, "Ex_InvalidateCellRect");

  00d9b	68 00 00 00 00	 push	 OFFSET ??_C@_0BG@GJJOJEMA@Ex_InvalidateCellRect@
  00da0	89 87 70 04 00
	00		 mov	 DWORD PTR [edi+1136], eax
  00da6	ff 77 04	 push	 DWORD PTR [edi+4]
  00da9	ff d6		 call	 esi

; 865  : 		pInvalidateCellRect2	= (FpInvalidateCellRect2)::GetProcAddress(m_hLib, "Ex_InvalidateCellRect2");

  00dab	68 00 00 00 00	 push	 OFFSET ??_C@_0BH@HGHNAIFF@Ex_InvalidateCellRect2@
  00db0	89 87 74 04 00
	00		 mov	 DWORD PTR [edi+1140], eax
  00db6	ff 77 04	 push	 DWORD PTR [edi+4]
  00db9	ff d6		 call	 esi

; 866  : 		pInvalidateCellRect3	= (FpInvalidateCellRect3)::GetProcAddress(m_hLib, "Ex_InvalidateCellRect3");

  00dbb	68 00 00 00 00	 push	 OFFSET ??_C@_0BH@GPGGDJBE@Ex_InvalidateCellRect3@
  00dc0	89 87 78 04 00
	00		 mov	 DWORD PTR [edi+1144], eax
  00dc6	ff 77 04	 push	 DWORD PTR [edi+4]
  00dc9	ff d6		 call	 esi

; 867  : 		pEraseBkgnd	= (FpEraseBkgnd)::GetProcAddress(m_hLib, "Ex_EraseBkgnd");

  00dcb	68 00 00 00 00	 push	 OFFSET ??_C@_0O@OJPHJPOG@Ex_EraseBkgnd@
  00dd0	89 87 7c 04 00
	00		 mov	 DWORD PTR [edi+1148], eax
  00dd6	ff 77 04	 push	 DWORD PTR [edi+4]
  00dd9	ff d6		 call	 esi

; 868  : 		pGetCellRangeRect	= (FpGetCellRangeRect)::GetProcAddress(m_hLib, "Ex_GetCellRangeRect");

  00ddb	68 00 00 00 00	 push	 OFFSET ??_C@_0BE@HMEBIHKA@Ex_GetCellRangeRect@
  00de0	89 87 80 04 00
	00		 mov	 DWORD PTR [edi+1152], eax
  00de6	ff 77 04	 push	 DWORD PTR [edi+4]
  00de9	ff d6		 call	 esi
  00deb	89 87 84 04 00
	00		 mov	 DWORD PTR [edi+1156], eax

; 869  : 		pSetCell	= (FpSetCell)::GetProcAddress(m_hLib, "Ex_SetCell");

  00df1	68 00 00 00 00	 push	 OFFSET ??_C@_0L@HCKIFLIC@Ex_SetCell@
  00df6	ff 77 04	 push	 DWORD PTR [edi+4]
  00df9	ff d6		 call	 esi

; 870  : 		pSetMouseMode	= (FpSetMouseMode)::GetProcAddress(m_hLib, "Ex_SetMouseMode");

  00dfb	68 00 00 00 00	 push	 OFFSET ??_C@_0BA@KIIGBJKN@Ex_SetMouseMode@
  00e00	89 87 88 04 00
	00		 mov	 DWORD PTR [edi+1160], eax
  00e06	ff 77 04	 push	 DWORD PTR [edi+4]
  00e09	ff d6		 call	 esi

; 871  : 		pGetMouseMode	= (FpGetMouseMode)::GetProcAddress(m_hLib, "Ex_GetMouseMode");

  00e0b	68 00 00 00 00	 push	 OFFSET ??_C@_0BA@NMDINFOB@Ex_GetMouseMode@
  00e10	89 87 8c 04 00
	00		 mov	 DWORD PTR [edi+1164], eax
  00e16	ff 77 04	 push	 DWORD PTR [edi+4]
  00e19	ff d6		 call	 esi

; 872  : 		pMouseOverRowResizeArea	= (FpMouseOverRowResizeArea)::GetProcAddress(m_hLib, "Ex_MouseOverRowResizeArea");

  00e1b	68 00 00 00 00	 push	 OFFSET ??_C@_0BK@EGAFPHHK@Ex_MouseOverRowResizeArea@
  00e20	89 87 90 04 00
	00		 mov	 DWORD PTR [edi+1168], eax
  00e26	ff 77 04	 push	 DWORD PTR [edi+4]
  00e29	ff d6		 call	 esi

; 873  : 		pMouseOverColumnResizeArea	= (FpMouseOverColumnResizeArea)::GetProcAddress(m_hLib, "Ex_MouseOverColumnResizeArea");

  00e2b	68 00 00 00 00	 push	 OFFSET ??_C@_0BN@DBMIOGKB@Ex_MouseOverColumnResizeArea@
  00e30	89 87 94 04 00
	00		 mov	 DWORD PTR [edi+1172], eax
  00e36	ff 77 04	 push	 DWORD PTR [edi+4]
  00e39	ff d6		 call	 esi

; 874  : 		pGetTopleftNonFixedCell	= (FpGetTopleftNonFixedCell)::GetProcAddress(m_hLib, "Ex_GetTopleftNonFixedCell");

  00e3b	68 00 00 00 00	 push	 OFFSET ??_C@_0BK@ECLDPOEH@Ex_GetTopleftNonFixedCell@
  00e40	89 87 98 04 00
	00		 mov	 DWORD PTR [edi+1176], eax
  00e46	ff 77 04	 push	 DWORD PTR [edi+4]
  00e49	ff d6		 call	 esi

; 875  : 		pGetUnobstructedNonFixedCellRange	= (FpGetUnobstructedNonFixedCellRange)::GetProcAddress(m_hLib, "Ex_GetUnobstructedNonFixedCellRange");

  00e4b	68 00 00 00 00	 push	 OFFSET ??_C@_0CE@IHAFBCPB@Ex_GetUnobstructedNonFixedCellR@
  00e50	89 87 9c 04 00
	00		 mov	 DWORD PTR [edi+1180], eax
  00e56	ff 77 04	 push	 DWORD PTR [edi+4]
  00e59	ff d6		 call	 esi

; 876  : 		pGetVisibleNonFixedCellRange	= (FpGetVisibleNonFixedCellRange)::GetProcAddress(m_hLib, "Ex_GetVisibleNonFixedCellRange");

  00e5b	68 00 00 00 00	 push	 OFFSET ??_C@_0BP@FKHJKLB@Ex_GetVisibleNonFixedCellRange@
  00e60	89 87 a0 04 00
	00		 mov	 DWORD PTR [edi+1184], eax
  00e66	ff 77 04	 push	 DWORD PTR [edi+4]
  00e69	ff d6		 call	 esi

; 877  : 		pIsVisibleVScroll	= (FpIsVisibleVScroll)::GetProcAddress(m_hLib, "Ex_IsVisibleVScroll");

  00e6b	68 00 00 00 00	 push	 OFFSET ??_C@_0BE@LJEEPJAG@Ex_IsVisibleVScroll@
  00e70	89 87 a4 04 00
	00		 mov	 DWORD PTR [edi+1188], eax
  00e76	ff 77 04	 push	 DWORD PTR [edi+4]
  00e79	ff d6		 call	 esi

; 878  : 		pIsVisibleHScroll	= (FpIsVisibleHScroll)::GetProcAddress(m_hLib, "Ex_IsVisibleHScroll");

  00e7b	68 00 00 00 00	 push	 OFFSET ??_C@_0BE@NAHFNKBP@Ex_IsVisibleHScroll@
  00e80	89 87 a8 04 00
	00		 mov	 DWORD PTR [edi+1192], eax
  00e86	ff 77 04	 push	 DWORD PTR [edi+4]
  00e89	ff d6		 call	 esi

; 879  : 		pResetSelectedRange	= (FpResetSelectedRange)::GetProcAddress(m_hLib, "Ex_ResetSelectedRange");

  00e8b	68 00 00 00 00	 push	 OFFSET ??_C@_0BG@PMKJNCHJ@Ex_ResetSelectedRange@
  00e90	89 87 ac 04 00
	00		 mov	 DWORD PTR [edi+1196], eax
  00e96	ff 77 04	 push	 DWORD PTR [edi+4]
  00e99	ff d6		 call	 esi

; 880  : 		pResetScrollBars	= (FpResetScrollBars)::GetProcAddress(m_hLib, "Ex_ResetScrollBars");

  00e9b	68 00 00 00 00	 push	 OFFSET ??_C@_0BD@FFPLEIML@Ex_ResetScrollBars@
  00ea0	89 87 b0 04 00
	00		 mov	 DWORD PTR [edi+1200], eax
  00ea6	ff 77 04	 push	 DWORD PTR [edi+4]
  00ea9	ff d6		 call	 esi

; 881  : 		pEnableScrollBars	= (FpEnableScrollBars)::GetProcAddress(m_hLib, "Ex_EnableScrollBars");

  00eab	68 00 00 00 00	 push	 OFFSET ??_C@_0BE@DCHPMGFI@Ex_EnableScrollBars@
  00eb0	89 87 b4 04 00
	00		 mov	 DWORD PTR [edi+1204], eax
  00eb6	ff 77 04	 push	 DWORD PTR [edi+4]
  00eb9	ff d6		 call	 esi

; 882  : 		pGetScrollPos32	= (FpGetScrollPos32)::GetProcAddress(m_hLib, "Ex_GetScrollPos32");

  00ebb	68 00 00 00 00	 push	 OFFSET ??_C@_0BC@LMJBJEGG@Ex_GetScrollPos32@
  00ec0	89 87 b8 04 00
	00		 mov	 DWORD PTR [edi+1208], eax
  00ec6	ff 77 04	 push	 DWORD PTR [edi+4]
  00ec9	ff d6		 call	 esi

; 883  : 		pSetScrollPos32	= (FpSetScrollPos32)::GetProcAddress(m_hLib, "Ex_SetScrollPos32");

  00ecb	68 00 00 00 00	 push	 OFFSET ??_C@_0BC@HCIPGOEK@Ex_SetScrollPos32@
  00ed0	89 87 bc 04 00
	00		 mov	 DWORD PTR [edi+1212], eax
  00ed6	ff 77 04	 push	 DWORD PTR [edi+4]
  00ed9	ff d6		 call	 esi

; 884  : 		pSortTextItems3	= (FpSortTextItems3)::GetProcAddress(m_hLib, "Ex_SortTextItems3");

  00edb	68 00 00 00 00	 push	 OFFSET ??_C@_0BC@FNGHENME@Ex_SortTextItems3@
  00ee0	89 87 c0 04 00
	00		 mov	 DWORD PTR [edi+1216], eax
  00ee6	ff 77 04	 push	 DWORD PTR [edi+4]
  00ee9	ff d6		 call	 esi

; 885  : 		pSortItems3	= (FpSortItems3)::GetProcAddress(m_hLib, "Ex_SortItems3");

  00eeb	68 00 00 00 00	 push	 OFFSET ??_C@_0O@JNLPOHG@Ex_SortItems3@
  00ef0	89 87 c4 04 00
	00		 mov	 DWORD PTR [edi+1220], eax
  00ef6	ff 77 04	 push	 DWORD PTR [edi+4]
  00ef9	ff d6		 call	 esi

; 886  : 		pGetPointClicked	= (FpGetPointClicked)::GetProcAddress(m_hLib, "Ex_GetPointClicked");

  00efb	68 00 00 00 00	 push	 OFFSET ??_C@_0BD@PGFHMGPG@Ex_GetPointClicked@
  00f00	89 87 c8 04 00
	00		 mov	 DWORD PTR [edi+1224], eax
  00f06	ff 77 04	 push	 DWORD PTR [edi+4]
  00f09	ff d6		 call	 esi

; 887  : 		pValidateAndModifyCellContents	= (FpValidateAndModifyCellContents)::GetProcAddress(m_hLib, "Ex_ValidateAndModifyCellContents");

  00f0b	68 00 00 00 00	 push	 OFFSET ??_C@_0CB@BFOICKEE@Ex_ValidateAndModifyCellContent@
  00f10	89 87 cc 04 00
	00		 mov	 DWORD PTR [edi+1228], eax
  00f16	ff 77 04	 push	 DWORD PTR [edi+4]
  00f19	ff d6		 call	 esi

; 888  : 		pPreSubclassWindow	= (FpPreSubclassWindow)::GetProcAddress(m_hLib, "Ex_PreSubclassWindow");

  00f1b	68 00 00 00 00	 push	 OFFSET ??_C@_0BF@NICANNDI@Ex_PreSubclassWindow@
  00f20	89 87 d0 04 00
	00		 mov	 DWORD PTR [edi+1232], eax
  00f26	ff 77 04	 push	 DWORD PTR [edi+4]
  00f29	ff d6		 call	 esi

; 889  : 		pWindowProc	= (FpWindowProc)::GetProcAddress(m_hLib, "Ex_WindowProc");

  00f2b	68 00 00 00 00	 push	 OFFSET ??_C@_0O@GGJGHEIK@Ex_WindowProc@
  00f30	89 87 d4 04 00
	00		 mov	 DWORD PTR [edi+1236], eax
  00f36	ff 77 04	 push	 DWORD PTR [edi+4]
  00f39	ff d6		 call	 esi

; 890  : 		pCreateDragImage	= (FpCreateDragImage)::GetProcAddress(m_hLib, "Ex_CreateDragImage");

  00f3b	68 00 00 00 00	 push	 OFFSET ??_C@_0BD@PEEIENPP@Ex_CreateDragImage@
  00f40	89 87 d8 04 00
	00		 mov	 DWORD PTR [edi+1240], eax
  00f46	ff 77 04	 push	 DWORD PTR [edi+4]
  00f49	ff d6		 call	 esi

; 891  : 		pOnFixedColumnClick	= (FpOnFixedColumnClick)::GetProcAddress(m_hLib, "Ex_OnFixedColumnClick");

  00f4b	68 00 00 00 00	 push	 OFFSET ??_C@_0BG@KJLGFONO@Ex_OnFixedColumnClick@
  00f50	89 87 dc 04 00
	00		 mov	 DWORD PTR [edi+1244], eax
  00f56	ff 77 04	 push	 DWORD PTR [edi+4]
  00f59	ff d6		 call	 esi

; 892  : 		pOnFixedRowClick	= (FpOnFixedRowClick)::GetProcAddress(m_hLib, "Ex_OnFixedRowClick");

  00f5b	68 00 00 00 00	 push	 OFFSET ??_C@_0BD@MDMMMDJH@Ex_OnFixedRowClick@
  00f60	89 87 e0 04 00
	00		 mov	 DWORD PTR [edi+1248], eax
  00f66	ff 77 04	 push	 DWORD PTR [edi+4]
  00f69	ff d6		 call	 esi

; 893  : 		pOnEditCell	= (FpOnEditCell)::GetProcAddress(m_hLib, "Ex_OnEditCell");

  00f6b	68 00 00 00 00	 push	 OFFSET ??_C@_0O@BKMPDBHF@Ex_OnEditCell@
  00f70	89 87 e4 04 00
	00		 mov	 DWORD PTR [edi+1252], eax
  00f76	ff 77 04	 push	 DWORD PTR [edi+4]
  00f79	ff d6		 call	 esi

; 894  : 		pOnEndEditCell	= (FpOnEndEditCell)::GetProcAddress(m_hLib, "Ex_OnEndEditCell");

  00f7b	68 00 00 00 00	 push	 OFFSET ??_C@_0BB@KNNNFNFB@Ex_OnEndEditCell@
  00f80	89 87 e8 04 00
	00		 mov	 DWORD PTR [edi+1256], eax
  00f86	ff 77 04	 push	 DWORD PTR [edi+4]
  00f89	ff d6		 call	 esi

; 895  : 		pValidateEdit	= (FpValidateEdit)::GetProcAddress(m_hLib, "Ex_ValidateEdit");

  00f8b	68 00 00 00 00	 push	 OFFSET ??_C@_0BA@OHFPPEOE@Ex_ValidateEdit@
  00f90	89 87 ec 04 00
	00		 mov	 DWORD PTR [edi+1260], eax
  00f96	ff 77 04	 push	 DWORD PTR [edi+4]
  00f99	ff d6		 call	 esi

; 896  : 		pEndEditing	= (FpEndEditing)::GetProcAddress(m_hLib, "Ex_EndEditing");

  00f9b	68 00 00 00 00	 push	 OFFSET ??_C@_0O@DPAODLNH@Ex_EndEditing@
  00fa0	89 87 f0 04 00
	00		 mov	 DWORD PTR [edi+1264], eax
  00fa6	ff 77 04	 push	 DWORD PTR [edi+4]
  00fa9	ff d6		 call	 esi

; 897  : 		pOnDraw	= (FpOnDraw)::GetProcAddress(m_hLib, "Ex_OnDraw");

  00fab	68 00 00 00 00	 push	 OFFSET ??_C@_09GGAIGIMI@Ex_OnDraw@
  00fb0	89 87 f4 04 00
	00		 mov	 DWORD PTR [edi+1268], eax
  00fb6	ff 77 04	 push	 DWORD PTR [edi+4]
  00fb9	ff d6		 call	 esi

; 898  : 		pCreateCell	= (FpCreateCell)::GetProcAddress(m_hLib, "Ex_CreateCell");

  00fbb	68 00 00 00 00	 push	 OFFSET ??_C@_0O@CJNFGCCD@Ex_CreateCell@
  00fc0	89 87 f8 04 00
	00		 mov	 DWORD PTR [edi+1272], eax
  00fc6	ff 77 04	 push	 DWORD PTR [edi+4]
  00fc9	ff d6		 call	 esi

; 899  : 		pDestroyCell	= (FpDestroyCell)::GetProcAddress(m_hLib, "Ex_DestroyCell");

  00fcb	68 00 00 00 00	 push	 OFFSET ??_C@_0P@KAMDKJMB@Ex_DestroyCell@
  00fd0	89 87 fc 04 00
	00		 mov	 DWORD PTR [edi+1276], eax
  00fd6	ff 77 04	 push	 DWORD PTR [edi+4]
  00fd9	ff d6		 call	 esi

; 900  : 		pSelectAllCells	= (FpSelectAllCells)::GetProcAddress(m_hLib, "Ex_SelectAllCells");

  00fdb	68 00 00 00 00	 push	 OFFSET ??_C@_0BC@GJLIJJPL@Ex_SelectAllCells@
  00fe0	89 87 00 05 00
	00		 mov	 DWORD PTR [edi+1280], eax
  00fe6	ff 77 04	 push	 DWORD PTR [edi+4]
  00fe9	ff d6		 call	 esi

; 901  : 		pSelectColumns	= (FpSelectColumns)::GetProcAddress(m_hLib, "Ex_SelectColumns");

  00feb	68 00 00 00 00	 push	 OFFSET ??_C@_0BB@CBJBIHMM@Ex_SelectColumns@
  00ff0	89 87 04 05 00
	00		 mov	 DWORD PTR [edi+1284], eax
  00ff6	ff 77 04	 push	 DWORD PTR [edi+4]
  00ff9	ff d6		 call	 esi

; 902  : 		pSelectRows	= (FpSelectRows)::GetProcAddress(m_hLib, "Ex_SelectRows");

  00ffb	68 00 00 00 00	 push	 OFFSET ??_C@_0O@OPFPOLPP@Ex_SelectRows@
  01000	89 87 08 05 00
	00		 mov	 DWORD PTR [edi+1288], eax
  01006	ff 77 04	 push	 DWORD PTR [edi+4]
  01009	ff d6		 call	 esi

; 903  : 		pSelectCells	= (FpSelectCells)::GetProcAddress(m_hLib, "Ex_SelectCells");

  0100b	68 00 00 00 00	 push	 OFFSET ??_C@_0P@DLKHGHBP@Ex_SelectCells@
  01010	89 87 0c 05 00
	00		 mov	 DWORD PTR [edi+1292], eax
  01016	ff 77 04	 push	 DWORD PTR [edi+4]
  01019	ff d6		 call	 esi

; 904  : 		pOnSelecting	= (FpOnSelecting)::GetProcAddress(m_hLib, "Ex_OnSelecting");

  0101b	68 00 00 00 00	 push	 OFFSET ??_C@_0P@NADNFEEI@Ex_OnSelecting@
  01020	89 87 10 05 00
	00		 mov	 DWORD PTR [edi+1296], eax
  01026	ff 77 04	 push	 DWORD PTR [edi+4]
  01029	ff d6		 call	 esi

; 905  : 		pOnPaint	= (FpOnPaint)::GetProcAddress(m_hLib, "Ex_OnPaint");

  0102b	68 00 00 00 00	 push	 OFFSET ??_C@_0L@LHMOODNH@Ex_OnPaint@
  01030	89 87 14 05 00
	00		 mov	 DWORD PTR [edi+1300], eax
  01036	ff 77 04	 push	 DWORD PTR [edi+4]
  01039	ff d6		 call	 esi

; 906  : 		pOnHScroll	= (FpOnHScroll)::GetProcAddress(m_hLib, "Ex_OnHScroll");

  0103b	68 00 00 00 00	 push	 OFFSET ??_C@_0N@GMMOFGKF@Ex_OnHScroll@
  01040	89 87 18 05 00
	00		 mov	 DWORD PTR [edi+1304], eax
  01046	ff 77 04	 push	 DWORD PTR [edi+4]
  01049	ff d6		 call	 esi

; 907  : 		pOnVScroll	= (FpOnVScroll)::GetProcAddress(m_hLib, "Ex_OnVScroll");

  0104b	68 00 00 00 00	 push	 OFFSET ??_C@_0N@FPPHFLM@Ex_OnVScroll@
  01050	89 87 1c 05 00
	00		 mov	 DWORD PTR [edi+1308], eax
  01056	ff 77 04	 push	 DWORD PTR [edi+4]
  01059	ff d6		 call	 esi

; 908  : 		pOnSize	= (FpOnSize)::GetProcAddress(m_hLib, "Ex_OnSize");

  0105b	68 00 00 00 00	 push	 OFFSET ??_C@_09FLFHMPIG@Ex_OnSize@
  01060	89 87 20 05 00
	00		 mov	 DWORD PTR [edi+1312], eax
  01066	ff 77 04	 push	 DWORD PTR [edi+4]
  01069	ff d6		 call	 esi

; 909  : 		pOnLButtonUp	= (FpOnLButtonUp)::GetProcAddress(m_hLib, "Ex_OnLButtonUp");

  0106b	68 00 00 00 00	 push	 OFFSET ??_C@_0P@PLNMPOND@Ex_OnLButtonUp@
  01070	89 87 24 05 00
	00		 mov	 DWORD PTR [edi+1316], eax
  01076	ff 77 04	 push	 DWORD PTR [edi+4]
  01079	ff d6		 call	 esi

; 910  : 		pOnLButtonDown	= (FpOnLButtonDown)::GetProcAddress(m_hLib, "Ex_OnLButtonDown");

  0107b	68 00 00 00 00	 push	 OFFSET ??_C@_0BB@PCKHDBM@Ex_OnLButtonDown@
  01080	89 87 28 05 00
	00		 mov	 DWORD PTR [edi+1320], eax
  01086	ff 77 04	 push	 DWORD PTR [edi+4]
  01089	ff d6		 call	 esi

; 911  : 		pOnMouseMove	= (FpOnMouseMove)::GetProcAddress(m_hLib, "Ex_OnMouseMove");

  0108b	68 00 00 00 00	 push	 OFFSET ??_C@_0P@GEIOBKAF@Ex_OnMouseMove@
  01090	89 87 2c 05 00
	00		 mov	 DWORD PTR [edi+1324], eax
  01096	ff 77 04	 push	 DWORD PTR [edi+4]
  01099	ff d6		 call	 esi

; 912  : 		pOnTimer	= (FpOnTimer)::GetProcAddress(m_hLib, "Ex_OnTimer");

  0109b	68 00 00 00 00	 push	 OFFSET ??_C@_0L@MJECDFDA@Ex_OnTimer@
  010a0	89 87 30 05 00
	00		 mov	 DWORD PTR [edi+1328], eax
  010a6	ff 77 04	 push	 DWORD PTR [edi+4]
  010a9	ff d6		 call	 esi

; 913  : 		pOnGetDlgCode	= (FpOnGetDlgCode)::GetProcAddress(m_hLib, "Ex_OnGetDlgCode");

  010ab	68 00 00 00 00	 push	 OFFSET ??_C@_0BA@BODHLALJ@Ex_OnGetDlgCode@
  010b0	89 87 34 05 00
	00		 mov	 DWORD PTR [edi+1332], eax
  010b6	ff 77 04	 push	 DWORD PTR [edi+4]
  010b9	ff d6		 call	 esi

; 914  : 		pOnKeyDown	= (FpOnKeyDown)::GetProcAddress(m_hLib, "Ex_OnKeyDown");

  010bb	68 00 00 00 00	 push	 OFFSET ??_C@_0N@IHJLIDOG@Ex_OnKeyDown@
  010c0	89 87 38 05 00
	00		 mov	 DWORD PTR [edi+1336], eax
  010c6	ff 77 04	 push	 DWORD PTR [edi+4]
  010c9	ff d6		 call	 esi

; 915  : 		pOnKeyUp	= (FpOnKeyUp)::GetProcAddress(m_hLib, "Ex_OnKeyUp");

  010cb	68 00 00 00 00	 push	 OFFSET ??_C@_0L@DHBECPKF@Ex_OnKeyUp@
  010d0	89 87 3c 05 00
	00		 mov	 DWORD PTR [edi+1340], eax
  010d6	ff 77 04	 push	 DWORD PTR [edi+4]
  010d9	ff d6		 call	 esi

; 916  : 		pOnChar	= (FpOnChar)::GetProcAddress(m_hLib, "Ex_OnChar");

  010db	68 00 00 00 00	 push	 OFFSET ??_C@_09JGPLPHGG@Ex_OnChar@
  010e0	89 87 40 05 00
	00		 mov	 DWORD PTR [edi+1344], eax
  010e6	ff 77 04	 push	 DWORD PTR [edi+4]
  010e9	ff d6		 call	 esi

; 917  : 		pOnLButtonDblClk	= (FpOnLButtonDblClk)::GetProcAddress(m_hLib, "Ex_OnLButtonDblClk");

  010eb	68 00 00 00 00	 push	 OFFSET ??_C@_0BD@BBEJDAHH@Ex_OnLButtonDblClk@
  010f0	89 87 44 05 00
	00		 mov	 DWORD PTR [edi+1348], eax
  010f6	ff 77 04	 push	 DWORD PTR [edi+4]
  010f9	ff d6		 call	 esi

; 918  : 		pOnEraseBkgnd	= (FpOnEraseBkgnd)::GetProcAddress(m_hLib, "Ex_OnEraseBkgnd");

  010fb	68 00 00 00 00	 push	 OFFSET ??_C@_0BA@IAGOHFI@Ex_OnEraseBkgnd@
  01100	89 87 48 05 00
	00		 mov	 DWORD PTR [edi+1352], eax
  01106	ff 77 04	 push	 DWORD PTR [edi+4]
  01109	ff d6		 call	 esi

; 919  : 		pOnSysKeyDown	= (FpOnSysKeyDown)::GetProcAddress(m_hLib, "Ex_OnSysKeyDown");

  0110b	68 00 00 00 00	 push	 OFFSET ??_C@_0BA@GDDLCHDJ@Ex_OnSysKeyDown@
  01110	89 87 4c 05 00
	00		 mov	 DWORD PTR [edi+1356], eax
  01116	ff 77 04	 push	 DWORD PTR [edi+4]
  01119	ff d6		 call	 esi

; 920  : 		pOnContextMenu	= (FpOnContextMenu)::GetProcAddress(m_hLib, "Ex_OnContextMenu");

  0111b	68 00 00 00 00	 push	 OFFSET ??_C@_0BB@IHLBDHNK@Ex_OnContextMenu@
  01120	89 87 50 05 00
	00		 mov	 DWORD PTR [edi+1360], eax
  01126	ff 77 04	 push	 DWORD PTR [edi+4]
  01129	ff d6		 call	 esi

; 921  : 		pOnUpdateEditSelectAll	= (FpOnUpdateEditSelectAll)::GetProcAddress(m_hLib, "Ex_OnUpdateEditSelectAll");

  0112b	68 00 00 00 00	 push	 OFFSET ??_C@_0BJ@HFCLHCML@Ex_OnUpdateEditSelectAll@
  01130	89 87 54 05 00
	00		 mov	 DWORD PTR [edi+1364], eax
  01136	ff 77 04	 push	 DWORD PTR [edi+4]
  01139	ff d6		 call	 esi

; 922  : 		pOnSetCursor	= (FpOnSetCursor)::GetProcAddress(m_hLib, "Ex_OnSetCursor");

  0113b	68 00 00 00 00	 push	 OFFSET ??_C@_0P@IABCFNIO@Ex_OnSetCursor@
  01140	89 87 58 05 00
	00		 mov	 DWORD PTR [edi+1368], eax
  01146	ff 77 04	 push	 DWORD PTR [edi+4]
  01149	ff d6		 call	 esi

; 923  : 		pOnRButtonDown	= (FpOnRButtonDown)::GetProcAddress(m_hLib, "Ex_OnRButtonDown");

  0114b	68 00 00 00 00	 push	 OFFSET ??_C@_0BB@OKADENPO@Ex_OnRButtonDown@
  01150	89 87 5c 05 00
	00		 mov	 DWORD PTR [edi+1372], eax
  01156	ff 77 04	 push	 DWORD PTR [edi+4]
  01159	ff d6		 call	 esi

; 924  : 		pOnRButtonUp	= (FpOnRButtonUp)::GetProcAddress(m_hLib, "Ex_OnRButtonUp");

  0115b	68 00 00 00 00	 push	 OFFSET ??_C@_0P@MCLLEPII@Ex_OnRButtonUp@
  01160	89 87 60 05 00
	00		 mov	 DWORD PTR [edi+1376], eax
  01166	ff 77 04	 push	 DWORD PTR [edi+4]
  01169	ff d6		 call	 esi

; 925  : 		pOnSysColorChange	= (FpOnSysColorChange)::GetProcAddress(m_hLib, "Ex_OnSysColorChange");

  0116b	68 00 00 00 00	 push	 OFFSET ??_C@_0BE@DKNKJKBA@Ex_OnSysColorChange@
  01170	89 87 64 05 00
	00		 mov	 DWORD PTR [edi+1380], eax
  01176	ff 77 04	 push	 DWORD PTR [edi+4]
  01179	ff d6		 call	 esi

; 926  : 		pOnCaptureChanged	= (FpOnCaptureChanged)::GetProcAddress(m_hLib, "Ex_OnCaptureChanged");

  0117b	68 00 00 00 00	 push	 OFFSET ??_C@_0BE@FACNGBPD@Ex_OnCaptureChanged@
  01180	89 87 68 05 00
	00		 mov	 DWORD PTR [edi+1384], eax
  01186	ff 77 04	 push	 DWORD PTR [edi+4]
  01189	ff d6		 call	 esi

; 927  : 		pOnUpdateEditCopy	= (FpOnUpdateEditCopy)::GetProcAddress(m_hLib, "Ex_OnUpdateEditCopy");

  0118b	68 00 00 00 00	 push	 OFFSET ??_C@_0BE@LELLFLAI@Ex_OnUpdateEditCopy@
  01190	89 87 6c 05 00
	00		 mov	 DWORD PTR [edi+1388], eax
  01196	ff 77 04	 push	 DWORD PTR [edi+4]
  01199	ff d6		 call	 esi

; 928  : 		pOnUpdateEditCut	= (FpOnUpdateEditCut)::GetProcAddress(m_hLib, "Ex_OnUpdateEditCut");

  0119b	68 00 00 00 00	 push	 OFFSET ??_C@_0BD@OMOBBFMG@Ex_OnUpdateEditCut@
  011a0	89 87 70 05 00
	00		 mov	 DWORD PTR [edi+1392], eax
  011a6	ff 77 04	 push	 DWORD PTR [edi+4]
  011a9	ff d6		 call	 esi

; 929  : 		pOnUpdateEditPaste	= (FpOnUpdateEditPaste)::GetProcAddress(m_hLib, "Ex_OnUpdateEditPaste");

  011ab	68 00 00 00 00	 push	 OFFSET ??_C@_0BF@DGPKFOGC@Ex_OnUpdateEditPaste@
  011b0	89 87 74 05 00
	00		 mov	 DWORD PTR [edi+1396], eax
  011b6	ff 77 04	 push	 DWORD PTR [edi+4]
  011b9	ff d6		 call	 esi
  011bb	89 87 78 05 00
	00		 mov	 DWORD PTR [edi+1400], eax

; 930  : 		pOnSettingChange	= (FpOnSettingChange)::GetProcAddress(m_hLib, "Ex_OnSettingChange");

  011c1	68 00 00 00 00	 push	 OFFSET ??_C@_0BD@PCIBNAMK@Ex_OnSettingChange@
  011c6	ff 77 04	 push	 DWORD PTR [edi+4]
  011c9	ff d6		 call	 esi

; 931  : 		pOnMouseWheel	= (FpOnMouseWheel)::GetProcAddress(m_hLib, "Ex_OnMouseWheel");

  011cb	68 00 00 00 00	 push	 OFFSET ??_C@_0BA@OLIHFLKC@Ex_OnMouseWheel@
  011d0	89 87 7c 05 00
	00		 mov	 DWORD PTR [edi+1404], eax
  011d6	ff 77 04	 push	 DWORD PTR [edi+4]
  011d9	ff d6		 call	 esi

; 932  : 		pOnSetFont	= (FpOnSetFont)::GetProcAddress(m_hLib, "Ex_OnSetFont");

  011db	68 00 00 00 00	 push	 OFFSET ??_C@_0N@ENEBILOC@Ex_OnSetFont@
  011e0	89 87 80 05 00
	00		 mov	 DWORD PTR [edi+1408], eax
  011e6	ff 77 04	 push	 DWORD PTR [edi+4]
  011e9	ff d6		 call	 esi

; 933  : 		pOnGetFont	= (FpOnGetFont)::GetProcAddress(m_hLib, "Ex_OnGetFont");

  011eb	68 00 00 00 00	 push	 OFFSET ??_C@_0N@LFLALEDD@Ex_OnGetFont@
  011f0	89 87 84 05 00
	00		 mov	 DWORD PTR [edi+1412], eax
  011f6	ff 77 04	 push	 DWORD PTR [edi+4]
  011f9	ff d6		 call	 esi

; 934  : 		pOnImeChar	= (FpOnImeChar)::GetProcAddress(m_hLib, "Ex_OnImeChar");

  011fb	68 00 00 00 00	 push	 OFFSET ??_C@_0N@FDGOGOCK@Ex_OnImeChar@
  01200	89 87 88 05 00
	00		 mov	 DWORD PTR [edi+1416], eax
  01206	ff 77 04	 push	 DWORD PTR [edi+4]
  01209	ff d6		 call	 esi

; 935  : 		pOnEndInPlaceEdit	= (FpOnEndInPlaceEdit)::GetProcAddress(m_hLib, "Ex_OnEndInPlaceEdit");

  0120b	68 00 00 00 00	 push	 OFFSET ??_C@_0BE@HFBOPFGB@Ex_OnEndInPlaceEdit@
  01210	89 87 8c 05 00
	00		 mov	 DWORD PTR [edi+1420], eax
  01216	ff 77 04	 push	 DWORD PTR [edi+4]
  01219	ff d6		 call	 esi

; 936  : 		pGetMouseScrollLines	= (FpGetMouseScrollLines)::GetProcAddress(m_hLib, "Ex_GetMouseScrollLines");

  0121b	68 00 00 00 00	 push	 OFFSET ??_C@_0BH@PMEHONMN@Ex_GetMouseScrollLines@
  01220	89 87 90 05 00
	00		 mov	 DWORD PTR [edi+1424], eax
  01226	ff 77 04	 push	 DWORD PTR [edi+4]
  01229	ff d6		 call	 esi

; 937  : 		pSetDefaultCellType	= (FpSetDefaultCellType)::GetProcAddress(m_hLib, "Ex_SetDefaultCellType");

  0122b	68 00 00 00 00	 push	 OFFSET ??_C@_0BG@HFPMNLJD@Ex_SetDefaultCellType@
  01230	89 87 94 05 00
	00		 mov	 DWORD PTR [edi+1428], eax
  01236	ff 77 04	 push	 DWORD PTR [edi+4]
  01239	ff d6		 call	 esi

; 938  : 		pSetGridScrollBarVisible	= (FpSetGridScrollBarVisible)::GetProcAddress(m_hLib, "Ex_SetGridScrollBarVisible");

  0123b	68 00 00 00 00	 push	 OFFSET ??_C@_0BL@OADPEDKM@Ex_SetGridScrollBarVisible@
  01240	89 87 98 05 00
	00		 mov	 DWORD PTR [edi+1432], eax
  01246	ff 77 04	 push	 DWORD PTR [edi+4]
  01249	ff d6		 call	 esi

; 939  : 		pSetUseFocusRect	= (FpSetUseFocusRect)::GetProcAddress(m_hLib, "Ex_SetUseFocusRect");

  0124b	68 00 00 00 00	 push	 OFFSET ??_C@_0BD@DDNFLIJO@Ex_SetUseFocusRect@
  01250	89 87 9c 05 00
	00		 mov	 DWORD PTR [edi+1436], eax
  01256	ff 77 04	 push	 DWORD PTR [edi+4]
  01259	ff d6		 call	 esi

; 940  : 		pGetUseFocusRect	= (FpGetUseFocusRect)::GetProcAddress(m_hLib, "Ex_GetUseFocusRect");

  0125b	68 00 00 00 00	 push	 OFFSET ??_C@_0BD@BMDMKIH@Ex_GetUseFocusRect@
  01260	89 87 a0 05 00
	00		 mov	 DWORD PTR [edi+1440], eax
  01266	ff 77 04	 push	 DWORD PTR [edi+4]
  01269	ff d6		 call	 esi

; 941  : 		pSetDrawFixedLine	= (FpSetDrawFixedLine)::GetProcAddress(m_hLib, "Ex_SetDrawFixedLine");

  0126b	68 00 00 00 00	 push	 OFFSET ??_C@_0BE@BKFECOID@Ex_SetDrawFixedLine@
  01270	89 87 a4 05 00
	00		 mov	 DWORD PTR [edi+1444], eax
  01276	ff 77 04	 push	 DWORD PTR [edi+4]
  01279	ff d6		 call	 esi
  0127b	89 87 a8 05 00
	00		 mov	 DWORD PTR [edi+1448], eax

; 942  : 
; 943  : 		return TRUE;

  01281	b8 01 00 00 00	 mov	 eax, 1
  01286	5e		 pop	 esi
  01287	5f		 pop	 edi

; 944  : 	}

  01288	c3		 ret	 0
?LoadProcAddress@CLoaderGridCtrl@@UAEHXZ ENDP		; CLoaderGridCtrl::LoadProcAddress
_TEXT	ENDS
; Function compile flags: /Ogtp
; File D:\git\src\IBK\IBK_DRFN\ProjSrc\SrcDrfn\Chart\ExControl\Include\GirdLoadHelper.h
; File D:\git\src\IBK\IBK_DRFN\ProjSrc\SrcDrfn\Chart\ExControl\Include\BaseLoadHelper.h
; File D:\git\src\IBK\IBK_DRFN\ProjSrc\SrcDrfn\Chart\ExControl\Include\GirdLoadHelper.h
;	COMDAT ??1CLoaderGridCtrl@@UAE@XZ
_TEXT	SEGMENT
__$EHRec$ = -12						; size = 12
??1CLoaderGridCtrl@@UAE@XZ PROC				; CLoaderGridCtrl::~CLoaderGridCtrl, COMDAT
; _this$ = ecx

; 634  : 	{

  00000	55		 push	 ebp
  00001	8b ec		 mov	 ebp, esp
  00003	6a ff		 push	 -1
  00005	68 00 00 00 00	 push	 __ehhandler$??1CLoaderGridCtrl@@UAE@XZ
  0000a	64 a1 00 00 00
	00		 mov	 eax, DWORD PTR fs:0
  00010	50		 push	 eax
  00011	56		 push	 esi
  00012	a1 00 00 00 00	 mov	 eax, DWORD PTR ___security_cookie
  00017	33 c5		 xor	 eax, ebp
  00019	50		 push	 eax
  0001a	8d 45 f4	 lea	 eax, DWORD PTR __$EHRec$[ebp]
  0001d	64 a3 00 00 00
	00		 mov	 DWORD PTR fs:0, eax
  00023	8b f1		 mov	 esi, ecx

; 635  : 		if(m_hLib)

  00025	8b 46 04	 mov	 eax, DWORD PTR [esi+4]
  00028	c7 06 00 00 00
	00		 mov	 DWORD PTR [esi], OFFSET ??_7CLoaderGridCtrl@@6B@
  0002e	85 c0		 test	 eax, eax
  00030	74 11		 je	 SHORT $LN2@CLoaderGri

; 636  : 			pExitGridCtrl(m_lpPointer);

  00032	ff b6 0c 01 00
	00		 push	 DWORD PTR [esi+268]
  00038	8b 86 18 01 00
	00		 mov	 eax, DWORD PTR [esi+280]
  0003e	ff d0		 call	 eax
  00040	8b 46 04	 mov	 eax, DWORD PTR [esi+4]
$LN2@CLoaderGri:
; File D:\git\src\IBK\IBK_DRFN\ProjSrc\SrcDrfn\Chart\ExControl\Include\BaseLoadHelper.h

; 13   : 	{

  00043	c7 06 00 00 00
	00		 mov	 DWORD PTR [esi], OFFSET ??_7CExLoadLib@@6B@

; 53   : 		if(!m_hLib)

  00049	85 c0		 test	 eax, eax
  0004b	74 0e		 je	 SHORT $LN6@CLoaderGri

; 54   : 			return TRUE;
; 55   : 
; 56   : 		BOOL bResult = ::FreeLibrary(m_hLib);

  0004d	50		 push	 eax
  0004e	ff 15 00 00 00
	00		 call	 DWORD PTR __imp__FreeLibrary@4

; 57   : 		
; 58   : 		m_hLib = NULL;

  00054	c7 46 04 00 00
	00 00		 mov	 DWORD PTR [esi+4], 0
$LN6@CLoaderGri:
; File D:\git\src\IBK\IBK_DRFN\ProjSrc\SrcDrfn\Chart\ExControl\Include\GirdLoadHelper.h

; 637  : 	}

  0005b	8b 4d f4	 mov	 ecx, DWORD PTR __$EHRec$[ebp]
  0005e	64 89 0d 00 00
	00 00		 mov	 DWORD PTR fs:0, ecx
  00065	59		 pop	 ecx
  00066	5e		 pop	 esi
  00067	8b e5		 mov	 esp, ebp
  00069	5d		 pop	 ebp
  0006a	c3		 ret	 0
  0006b	cc		 int	 3
  0006c	cc		 int	 3
  0006d	cc		 int	 3
  0006e	cc		 int	 3
  0006f	cc		 int	 3
_TEXT	ENDS
;	COMDAT text$x
text$x	SEGMENT
__ehhandler$??1CLoaderGridCtrl@@UAE@XZ:
  00000	90		 npad	 1
  00001	90		 npad	 1
  00002	8b 54 24 08	 mov	 edx, DWORD PTR [esp+8]
  00006	8d 42 0c	 lea	 eax, DWORD PTR [edx+12]
  00009	8b 4a f8	 mov	 ecx, DWORD PTR [edx-8]
  0000c	33 c8		 xor	 ecx, eax
  0000e	e8 00 00 00 00	 call	 @__security_check_cookie@4
  00013	b8 00 00 00 00	 mov	 eax, OFFSET __ehfuncinfo$??1CLoaderGridCtrl@@UAE@XZ
  00018	e9 00 00 00 00	 jmp	 ___CxxFrameHandler3
text$x	ENDS
??1CLoaderGridCtrl@@UAE@XZ ENDP				; CLoaderGridCtrl::~CLoaderGridCtrl
; Function compile flags: /Ogtp
; File D:\git\src\IBK\IBK_DRFN\ProjSrc\SrcDrfn\Chart\ExControl\Include\GirdLoadHelper.h
; File D:\git\src\IBK\IBK_DRFN\ProjSrc\SrcDrfn\Chart\ExControl\Include\BaseLoadHelper.h
; File D:\git\src\IBK\IBK_DRFN\ProjSrc\SrcDrfn\Chart\ExControl\Include\GirdLoadHelper.h
; File D:\git\src\IBK\IBK_DRFN\ProjSrc\SrcDrfn\ForSite\FS_Env.h
; File D:\git\src\IBK\IBK_DRFN\ProjSrc\SrcDrfn\Chart\ExControl\Include\GirdLoadHelper.h
; File D:\git\src\IBK\IBK_DRFN\ProjSrc\SrcDrfn\Chart\ExControl\Include\BaseLoadHelper.h
; File D:\git\src\IBK\IBK_DRFN\ProjSrc\SrcDrfn\Chart\ExControl\Include\GirdLoadHelper.h
; File D:\git\src\IBK\IBK_DRFN\ProjSrc\SrcDrfn\Chart\ExControl\Include\BaseLoadHelper.h
; File D:\git\src\IBK\IBK_DRFN\ProjSrc\SrcDrfn\Chart\ExControl\Include\GirdLoadHelper.h
;	COMDAT ??0CLoaderGridCtrl@@QAE@PAXPBD@Z
_TEXT	SEGMENT
_this$GSCopy$ = -296					; size = 4
_lpPointer$GSCopy$1$ = -292				; size = 4
_szDir$ = -288						; size = 4
_err$1$ = -284						; size = 4
$T2 = -284						; size = 4
$T3 = -284						; size = 4
_this$ = -284						; size = 4
__strRoot_$4 = -280					; size = 4
_szMsg$5 = -276						; size = 260
_szBuf$6 = -272						; size = 255
__$ArrayPad$7 = -16					; size = 4
__$EHRec$ = -12						; size = 12
_lpPointer$ = 8						; size = 4
_lpszRootPath$ = 12					; size = 4
??0CLoaderGridCtrl@@QAE@PAXPBD@Z PROC			; CLoaderGridCtrl::CLoaderGridCtrl, COMDAT
; _this$ = ecx

; 310  : 	CLoaderGridCtrl(LPVOID lpPointer, LPCSTR lpszRootPath = NULL) 

  00000	55		 push	 ebp
  00001	8b ec		 mov	 ebp, esp
  00003	6a ff		 push	 -1
  00005	68 00 00 00 00	 push	 __ehhandler$??0CLoaderGridCtrl@@QAE@PAXPBD@Z
  0000a	64 a1 00 00 00
	00		 mov	 eax, DWORD PTR fs:0
  00010	50		 push	 eax
  00011	81 ec 1c 01 00
	00		 sub	 esp, 284		; 0000011cH
  00017	a1 00 00 00 00	 mov	 eax, DWORD PTR ___security_cookie
  0001c	33 c5		 xor	 eax, ebp
  0001e	89 45 f0	 mov	 DWORD PTR __$ArrayPad$7[ebp], eax
  00021	53		 push	 ebx
  00022	56		 push	 esi
  00023	57		 push	 edi
  00024	50		 push	 eax
  00025	8d 45 f4	 lea	 eax, DWORD PTR __$EHRec$[ebp]
  00028	64 a3 00 00 00
	00		 mov	 DWORD PTR fs:0, eax
  0002e	8b f1		 mov	 esi, ecx
  00030	89 b5 e4 fe ff
	ff		 mov	 DWORD PTR _this$[ebp], esi
  00036	8b 45 08	 mov	 eax, DWORD PTR _lpPointer$[ebp]
  00039	89 b5 d8 fe ff
	ff		 mov	 DWORD PTR _this$GSCopy$[ebp], esi
  0003f	89 85 dc fe ff
	ff		 mov	 DWORD PTR _lpPointer$GSCopy$1$[ebp], eax
; File D:\git\src\IBK\IBK_DRFN\ProjSrc\SrcDrfn\Chart\ExControl\Include\BaseLoadHelper.h

; 9    : 		m_hLib = NULL;

  00045	c7 46 04 00 00
	00 00		 mov	 DWORD PTR [esi+4], 0
; File D:\git\src\IBK\IBK_DRFN\ProjSrc\SrcDrfn\Chart\ExControl\Include\GirdLoadHelper.h

; 328  : 		CString szDir;

  0004c	8d 8d e0 fe ff
	ff		 lea	 ecx, DWORD PTR _szDir$[ebp]
  00052	c7 45 fc 00 00
	00 00		 mov	 DWORD PTR __$EHRec$[ebp+8], 0
  00059	c7 06 00 00 00
	00		 mov	 DWORD PTR [esi], OFFSET ??_7CLoaderGridCtrl@@6B@
  0005f	ff 15 00 00 00
	00		 call	 DWORD PTR __imp_??0?$CStringT@DV?$StrTraitMFC_DLL@DV?$ChTraitsCRT@D@ATL@@@@@ATL@@QAE@XZ
; File D:\git\src\IBK\IBK_DRFN\ProjSrc\SrcDrfn\ForSite\FS_Env.h

; 22   : 	CString	_strRoot_;

  00065	8d 8d e8 fe ff
	ff		 lea	 ecx, DWORD PTR __strRoot_$4[ebp]
  0006b	ff 15 00 00 00
	00		 call	 DWORD PTR __imp_??0?$CStringT@DV?$StrTraitMFC_DLL@DV?$ChTraitsCRT@D@ATL@@@@@ATL@@QAE@XZ

; 15   : 	::GetModuleFileName(NULL, szBuf, 255);

  00071	68 ff 00 00 00	 push	 255			; 000000ffH
  00076	8d 85 f0 fe ff
	ff		 lea	 eax, DWORD PTR _szBuf$6[ebp]

; 22   : 	CString	_strRoot_;

  0007c	c6 45 fc 02	 mov	 BYTE PTR __$EHRec$[ebp+8], 2

; 15   : 	::GetModuleFileName(NULL, szBuf, 255);

  00080	50		 push	 eax
  00081	6a 00		 push	 0
  00083	ff 15 00 00 00
	00		 call	 DWORD PTR __imp__GetModuleFileNameA@12

; 16   : 	rString = szBuf;

  00089	8d 85 f0 fe ff
	ff		 lea	 eax, DWORD PTR _szBuf$6[ebp]
  0008f	50		 push	 eax
  00090	8d 8d e8 fe ff
	ff		 lea	 ecx, DWORD PTR __strRoot_$4[ebp]
  00096	ff 15 00 00 00
	00		 call	 DWORD PTR __imp_??4?$CStringT@DV?$StrTraitMFC_DLL@DV?$ChTraitsCRT@D@ATL@@@@@ATL@@QAEAAV01@PBD@Z

; 25   : 	int _loc_ = _strRoot_.ReverseFind('\\');

  0009c	6a 5c		 push	 92			; 0000005cH
  0009e	8d 8d e8 fe ff
	ff		 lea	 ecx, DWORD PTR __strRoot_$4[ebp]
  000a4	ff 15 00 00 00
	00		 call	 DWORD PTR __imp_?ReverseFind@?$CStringT@DV?$StrTraitMFC_DLL@DV?$ChTraitsCRT@D@ATL@@@@@ATL@@QBEHD@Z

; 26   : 	if( _loc_ > 0)

  000aa	85 c0		 test	 eax, eax
  000ac	7e 35		 jle	 SHORT $LN10@CLoaderGri

; 27   : 		_strRoot_ = _strRoot_.Left(_loc_);

  000ae	50		 push	 eax
  000af	8d 85 e4 fe ff
	ff		 lea	 eax, DWORD PTR $T3[ebp]
  000b5	50		 push	 eax
  000b6	8d 8d e8 fe ff
	ff		 lea	 ecx, DWORD PTR __strRoot_$4[ebp]
  000bc	ff 15 00 00 00
	00		 call	 DWORD PTR __imp_?Left@?$CStringT@DV?$StrTraitMFC_DLL@DV?$ChTraitsCRT@D@ATL@@@@@ATL@@QBE?AV12@H@Z
  000c2	50		 push	 eax
  000c3	8d 8d e8 fe ff
	ff		 lea	 ecx, DWORD PTR __strRoot_$4[ebp]
  000c9	c6 45 fc 03	 mov	 BYTE PTR __$EHRec$[ebp+8], 3
  000cd	ff 15 00 00 00
	00		 call	 DWORD PTR __imp_??4?$CStringT@DV?$StrTraitMFC_DLL@DV?$ChTraitsCRT@D@ATL@@@@@ATL@@QAEAAV01@ABV01@@Z
  000d3	8d 8d e4 fe ff
	ff		 lea	 ecx, DWORD PTR $T3[ebp]
  000d9	c6 45 fc 02	 mov	 BYTE PTR __$EHRec$[ebp+8], 2
  000dd	ff 15 00 00 00
	00		 call	 DWORD PTR __imp_??1?$CStringT@DV?$StrTraitMFC_DLL@DV?$ChTraitsCRT@D@ATL@@@@@ATL@@QAE@XZ
$LN10@CLoaderGri:

; 28   : 	_loc_ = _strRoot_.ReverseFind('\\');

  000e3	6a 5c		 push	 92			; 0000005cH
  000e5	8d 8d e8 fe ff
	ff		 lea	 ecx, DWORD PTR __strRoot_$4[ebp]
  000eb	ff 15 00 00 00
	00		 call	 DWORD PTR __imp_?ReverseFind@?$CStringT@DV?$StrTraitMFC_DLL@DV?$ChTraitsCRT@D@ATL@@@@@ATL@@QBEHD@Z

; 29   : 	if( _loc_ > 0)

  000f1	85 c0		 test	 eax, eax
  000f3	7e 35		 jle	 SHORT $LN11@CLoaderGri

; 30   : 		_strRoot_ = _strRoot_.Left(_loc_);

  000f5	50		 push	 eax
  000f6	8d 85 e4 fe ff
	ff		 lea	 eax, DWORD PTR $T2[ebp]
  000fc	50		 push	 eax
  000fd	8d 8d e8 fe ff
	ff		 lea	 ecx, DWORD PTR __strRoot_$4[ebp]
  00103	ff 15 00 00 00
	00		 call	 DWORD PTR __imp_?Left@?$CStringT@DV?$StrTraitMFC_DLL@DV?$ChTraitsCRT@D@ATL@@@@@ATL@@QBE?AV12@H@Z
  00109	50		 push	 eax
  0010a	8d 8d e8 fe ff
	ff		 lea	 ecx, DWORD PTR __strRoot_$4[ebp]
  00110	c6 45 fc 04	 mov	 BYTE PTR __$EHRec$[ebp+8], 4
  00114	ff 15 00 00 00
	00		 call	 DWORD PTR __imp_??4?$CStringT@DV?$StrTraitMFC_DLL@DV?$ChTraitsCRT@D@ATL@@@@@ATL@@QAEAAV01@ABV01@@Z
  0011a	8d 8d e4 fe ff
	ff		 lea	 ecx, DWORD PTR $T2[ebp]
  00120	c6 45 fc 02	 mov	 BYTE PTR __$EHRec$[ebp+8], 2
  00124	ff 15 00 00 00
	00		 call	 DWORD PTR __imp_??1?$CStringT@DV?$StrTraitMFC_DLL@DV?$ChTraitsCRT@D@ATL@@@@@ATL@@QAE@XZ
$LN11@CLoaderGri:

; 31   : 	rString = _strRoot_;

  0012a	8d 85 e8 fe ff
	ff		 lea	 eax, DWORD PTR __strRoot_$4[ebp]
  00130	50		 push	 eax
  00131	8d 8d e0 fe ff
	ff		 lea	 ecx, DWORD PTR _szDir$[ebp]
  00137	ff 15 00 00 00
	00		 call	 DWORD PTR __imp_??4?$CStringT@DV?$StrTraitMFC_DLL@DV?$ChTraitsCRT@D@ATL@@@@@ATL@@QAEAAV01@ABV01@@Z

; 32   : }

  0013d	8d 8d e8 fe ff
	ff		 lea	 ecx, DWORD PTR __strRoot_$4[ebp]
  00143	c6 45 fc 01	 mov	 BYTE PTR __$EHRec$[ebp+8], 1
  00147	ff 15 00 00 00
	00		 call	 DWORD PTR __imp_??1?$CStringT@DV?$StrTraitMFC_DLL@DV?$ChTraitsCRT@D@ATL@@@@@ATL@@QAE@XZ

; 47   : 	rString += "\\Dev";

  0014d	68 00 00 00 00	 push	 OFFSET ??_C@_04OHDBDCPJ@?2Dev@
  00152	8d 8d e0 fe ff
	ff		 lea	 ecx, DWORD PTR _szDir$[ebp]
  00158	ff 15 00 00 00
	00		 call	 DWORD PTR __imp_??Y?$CStringT@DV?$StrTraitMFC_DLL@DV?$ChTraitsCRT@D@ATL@@@@@ATL@@QAEAAV01@PBD@Z
; File D:\git\src\IBK\IBK_DRFN\ProjSrc\SrcDrfn\Chart\ExControl\Include\GirdLoadHelper.h

; 330  : 		::sprintf(m_szDllName, "%s\\%s", szDir, GRIDCTRL_DLL);

  0015e	68 00 00 00 00	 push	 OFFSET ??_C@_0P@HKIIFJOH@ExGridCtrl?4dll@
  00163	ff b5 e0 fe ff
	ff		 push	 DWORD PTR _szDir$[ebp]
  00169	8d 7e 08	 lea	 edi, DWORD PTR [esi+8]
  0016c	68 00 00 00 00	 push	 OFFSET ??_C@_05BMGBEOOC@?$CFs?2?$CFs@
  00171	57		 push	 edi
  00172	e8 00 00 00 00	 call	 _sprintf
  00177	83 c4 10	 add	 esp, 16			; 00000010H

; 331  : 		//<--Solomon-090829
; 332  : 
; 333  : 		pActionControl = NULL;

  0017a	c7 86 10 01 00
	00 00 00 00 00	 mov	 DWORD PTR [esi+272], 0

; 334  : 		pExitGridCtrl = NULL;

  00184	c7 86 18 01 00
	00 00 00 00 00	 mov	 DWORD PTR [esi+280], 0

; 335  : 		pInitGridCtrl = NULL;

  0018e	c7 86 14 01 00
	00 00 00 00 00	 mov	 DWORD PTR [esi+276], 0

; 336  : 		pCreate = NULL;

  00198	c7 86 1c 01 00
	00 00 00 00 00	 mov	 DWORD PTR [esi+284], 0

; 337  : 		pGetRowCount = NULL;

  001a2	c7 86 20 01 00
	00 00 00 00 00	 mov	 DWORD PTR [esi+288], 0

; 338  : 		pGetColumnCount = NULL;

  001ac	c7 86 24 01 00
	00 00 00 00 00	 mov	 DWORD PTR [esi+292], 0

; 339  : 		pGetFixedRowCount = NULL;

  001b6	c7 86 28 01 00
	00 00 00 00 00	 mov	 DWORD PTR [esi+296], 0

; 340  : 		pGetFixedColumnCount = NULL;

  001c0	c7 86 2c 01 00
	00 00 00 00 00	 mov	 DWORD PTR [esi+300], 0

; 341  : 		pSetRowCount = NULL;

  001ca	c7 86 30 01 00
	00 00 00 00 00	 mov	 DWORD PTR [esi+304], 0

; 342  : 		pSetColumnCount = NULL;

  001d4	c7 86 34 01 00
	00 00 00 00 00	 mov	 DWORD PTR [esi+308], 0

; 343  : 		pSetFixedRowCount = NULL;

  001de	c7 86 38 01 00
	00 00 00 00 00	 mov	 DWORD PTR [esi+312], 0

; 344  : 		pSetFixedColumnCount = NULL;

  001e8	c7 86 3c 01 00
	00 00 00 00 00	 mov	 DWORD PTR [esi+316], 0

; 345  : 		pGetRowHeight = NULL;

  001f2	c7 86 40 01 00
	00 00 00 00 00	 mov	 DWORD PTR [esi+320], 0

; 346  : 		pSetRowHeight = NULL;

  001fc	c7 86 44 01 00
	00 00 00 00 00	 mov	 DWORD PTR [esi+324], 0

; 347  : 		pGetColumnWidth = NULL;

  00206	c7 86 48 01 00
	00 00 00 00 00	 mov	 DWORD PTR [esi+328], 0

; 348  : 		pSetColumnWidth = NULL;

  00210	c7 86 4c 01 00
	00 00 00 00 00	 mov	 DWORD PTR [esi+332], 0

; 349  : 		pGetCellOrigin = NULL;

  0021a	c7 86 50 01 00
	00 00 00 00 00	 mov	 DWORD PTR [esi+336], 0

; 350  : 		pGetCellOrigin2 = NULL;

  00224	c7 86 54 01 00
	00 00 00 00 00	 mov	 DWORD PTR [esi+340], 0

; 351  : 		pGetCellRect = NULL;

  0022e	c7 86 58 01 00
	00 00 00 00 00	 mov	 DWORD PTR [esi+344], 0

; 352  : 		pGetCellRect2 = NULL;

  00238	c7 86 5c 01 00
	00 00 00 00 00	 mov	 DWORD PTR [esi+348], 0

; 353  : 		pGetTextRect = NULL;

  00242	c7 86 60 01 00
	00 00 00 00 00	 mov	 DWORD PTR [esi+352], 0

; 354  : 		pGetTextRect2 = NULL;

  0024c	c7 86 64 01 00
	00 00 00 00 00	 mov	 DWORD PTR [esi+356], 0

; 355  : 		pGetCellFromPt = NULL;

  00256	c7 86 68 01 00
	00 00 00 00 00	 mov	 DWORD PTR [esi+360], 0

; 356  : 		pGetFixedRowHeight = NULL;

  00260	c7 86 6c 01 00
	00 00 00 00 00	 mov	 DWORD PTR [esi+364], 0

; 357  : 		pGetFixedColumnWidth = NULL;

  0026a	c7 86 70 01 00
	00 00 00 00 00	 mov	 DWORD PTR [esi+368], 0

; 358  : 		pGetVirtualWidth = NULL;

  00274	c7 86 74 01 00
	00 00 00 00 00	 mov	 DWORD PTR [esi+372], 0

; 359  : 		pGetVirtualHeight = NULL;

  0027e	c7 86 78 01 00
	00 00 00 00 00	 mov	 DWORD PTR [esi+376], 0

; 360  : 		pGetTextExtent = NULL;

  00288	c7 86 7c 01 00
	00 00 00 00 00	 mov	 DWORD PTR [esi+380], 0

; 361  : 		pGetCellTextExtent = NULL;

  00292	c7 86 80 01 00
	00 00 00 00 00	 mov	 DWORD PTR [esi+384], 0

; 362  : 		pSetGridBkColor = NULL;

  0029c	c7 86 84 01 00
	00 00 00 00 00	 mov	 DWORD PTR [esi+388], 0

; 363  : 		pGetGridBkColor = NULL;

  002a6	c7 86 88 01 00
	00 00 00 00 00	 mov	 DWORD PTR [esi+392], 0

; 364  : 		pSetGridLineColor = NULL;

  002b0	c7 86 8c 01 00
	00 00 00 00 00	 mov	 DWORD PTR [esi+396], 0

; 365  : 		pGetGridLineColor = NULL;

  002ba	c7 86 90 01 00
	00 00 00 00 00	 mov	 DWORD PTR [esi+400], 0

; 366  : 		pSetTitleTipBackClr = NULL;

  002c4	c7 86 94 01 00
	00 00 00 00 00	 mov	 DWORD PTR [esi+404], 0

; 367  : 		pGetTitleTipBackClr = NULL;

  002ce	c7 86 98 01 00
	00 00 00 00 00	 mov	 DWORD PTR [esi+408], 0

; 368  : 		pSetTitleTipTextClr = NULL;

  002d8	c7 86 9c 01 00
	00 00 00 00 00	 mov	 DWORD PTR [esi+412], 0

; 369  : 		pGetTitleTipTextClr = NULL;

  002e2	c7 86 a0 01 00
	00 00 00 00 00	 mov	 DWORD PTR [esi+416], 0

; 370  : 		pSetFixedGridLineColor_Light = NULL;

  002ec	c7 86 a4 01 00
	00 00 00 00 00	 mov	 DWORD PTR [esi+420], 0

; 371  : 		pSetFixedGridLineColor_Dark = NULL;

  002f6	c7 86 a8 01 00
	00 00 00 00 00	 mov	 DWORD PTR [esi+424], 0

; 372  : 		pGetFixedGridLineColor_Light = NULL;

  00300	c7 86 ac 01 00
	00 00 00 00 00	 mov	 DWORD PTR [esi+428], 0

; 373  : 		pGetFixedGridLineColor_Dark = NULL;

  0030a	c7 86 b0 01 00
	00 00 00 00 00	 mov	 DWORD PTR [esi+432], 0

; 374  : 		pSetHighlightColor = NULL;

  00314	c7 86 b4 01 00
	00 00 00 00 00	 mov	 DWORD PTR [esi+436], 0

; 375  : 		pSetHighlightTextColor = NULL;

  0031e	c7 86 b8 01 00
	00 00 00 00 00	 mov	 DWORD PTR [esi+440], 0

; 376  : 		pGetHighlightColor = NULL;

  00328	c7 86 bc 01 00
	00 00 00 00 00	 mov	 DWORD PTR [esi+444], 0

; 377  : 		pGetHighlightTextColor = NULL;

  00332	c7 86 c0 01 00
	00 00 00 00 00	 mov	 DWORD PTR [esi+448], 0

; 378  : 		pSetUseHighlightText = NULL;

  0033c	c7 86 c4 01 00
	00 00 00 00 00	 mov	 DWORD PTR [esi+452], 0

; 379  : 		pGetUseHighlightText = NULL;

  00346	c7 86 c8 01 00
	00 00 00 00 00	 mov	 DWORD PTR [esi+456], 0

; 380  : 		pSetFixedRowSelectionHighlight = NULL;

  00350	c7 86 cc 01 00
	00 00 00 00 00	 mov	 DWORD PTR [esi+460], 0

; 381  : 		pGetFixedRowSelectionHighlight = NULL;

  0035a	c7 86 d0 01 00
	00 00 00 00 00	 mov	 DWORD PTR [esi+464], 0

; 382  : 		pSetTextColor = NULL;

  00364	c7 86 d4 01 00
	00 00 00 00 00	 mov	 DWORD PTR [esi+468], 0

; 383  : 		pGetTextColor = NULL;

  0036e	c7 86 d8 01 00
	00 00 00 00 00	 mov	 DWORD PTR [esi+472], 0

; 384  : 		pSetTextBkColor = NULL;

  00378	c7 86 dc 01 00
	00 00 00 00 00	 mov	 DWORD PTR [esi+476], 0

; 385  : 		pGetTextBkColor = NULL;

  00382	c7 86 e0 01 00
	00 00 00 00 00	 mov	 DWORD PTR [esi+480], 0

; 386  : 		pSetFixedTextColor = NULL;

  0038c	c7 86 e4 01 00
	00 00 00 00 00	 mov	 DWORD PTR [esi+484], 0

; 387  : 		pGetFixedTextColor = NULL;

  00396	c7 86 e8 01 00
	00 00 00 00 00	 mov	 DWORD PTR [esi+488], 0

; 388  : 		pSetFixedBkColor = NULL;

  003a0	c7 86 ec 01 00
	00 00 00 00 00	 mov	 DWORD PTR [esi+492], 0

; 389  : 		pGetFixedBkColor = NULL;

  003aa	c7 86 f0 01 00
	00 00 00 00 00	 mov	 DWORD PTR [esi+496], 0

; 390  : 		pSetGridColor = NULL;

  003b4	c7 86 f4 01 00
	00 00 00 00 00	 mov	 DWORD PTR [esi+500], 0

; 391  : 		pGetGridColor = NULL;

  003be	c7 86 f8 01 00
	00 00 00 00 00	 mov	 DWORD PTR [esi+504], 0

; 392  : 		pSetBkColor = NULL;

  003c8	c7 86 fc 01 00
	00 00 00 00 00	 mov	 DWORD PTR [esi+508], 0

; 393  : 		pGetBkColor = NULL;

  003d2	c7 86 00 02 00
	00 00 00 00 00	 mov	 DWORD PTR [esi+512], 0

; 394  : 		pSetDefCellMargin = NULL;

  003dc	c7 86 04 02 00
	00 00 00 00 00	 mov	 DWORD PTR [esi+516], 0

; 395  : 		pGetDefCellMargin = NULL;

  003e6	c7 86 08 02 00
	00 00 00 00 00	 mov	 DWORD PTR [esi+520], 0

; 396  : 		pGetDefCellHeight = NULL;

  003f0	c7 86 0c 02 00
	00 00 00 00 00	 mov	 DWORD PTR [esi+524], 0

; 397  : 		pSetDefCellHeight = NULL;

  003fa	c7 86 10 02 00
	00 00 00 00 00	 mov	 DWORD PTR [esi+528], 0

; 398  : 		pGetDefCellWidth = NULL;

  00404	c7 86 14 02 00
	00 00 00 00 00	 mov	 DWORD PTR [esi+532], 0

; 399  : 		pSetDefCellWidth = NULL;

  0040e	c7 86 18 02 00
	00 00 00 00 00	 mov	 DWORD PTR [esi+536], 0

; 400  : 		pGetSelectedCount = NULL;

  00418	c7 86 1c 02 00
	00 00 00 00 00	 mov	 DWORD PTR [esi+540], 0

; 401  : 		pSetFocusCell1 = NULL;

  00422	c7 86 20 02 00
	00 00 00 00 00	 mov	 DWORD PTR [esi+544], 0

; 402  : 		pSetFocusCell2 = NULL;

  0042c	c7 86 24 02 00
	00 00 00 00 00	 mov	 DWORD PTR [esi+548], 0

; 403  : 		pGetFocusCell = NULL;

  00436	c7 86 28 02 00
	00 00 00 00 00	 mov	 DWORD PTR [esi+552], 0

; 404  : 		pSetVirtualMode = NULL;

  00440	c7 86 2c 02 00
	00 00 00 00 00	 mov	 DWORD PTR [esi+556], 0

; 405  : 		pGetVirtualMode = NULL;

  0044a	c7 86 30 02 00
	00 00 00 00 00	 mov	 DWORD PTR [esi+560], 0

; 406  : 		pSetCallbackFunc = NULL;

  00454	c7 86 34 02 00
	00 00 00 00 00	 mov	 DWORD PTR [esi+564], 0

; 407  : 		pGetCallbackFunc = NULL;

  0045e	c7 86 38 02 00
	00 00 00 00 00	 mov	 DWORD PTR [esi+568], 0

; 408  : 		pSetImageList = NULL;

  00468	c7 86 3c 02 00
	00 00 00 00 00	 mov	 DWORD PTR [esi+572], 0

; 409  : 		pGetImageList = NULL;

  00472	c7 86 40 02 00
	00 00 00 00 00	 mov	 DWORD PTR [esi+576], 0

; 410  : 		pSetGridLines = NULL;

  0047c	c7 86 44 02 00
	00 00 00 00 00	 mov	 DWORD PTR [esi+580], 0

; 411  : 		pGetGridLines = NULL;

  00486	c7 86 48 02 00
	00 00 00 00 00	 mov	 DWORD PTR [esi+584], 0

; 412  : 		pSetEditable = NULL;

  00490	c7 86 4c 02 00
	00 00 00 00 00	 mov	 DWORD PTR [esi+588], 0

; 413  : 		pIsEditable = NULL;

  0049a	c7 86 50 02 00
	00 00 00 00 00	 mov	 DWORD PTR [esi+592], 0

; 414  : 		pSetListMode = NULL;

  004a4	c7 86 54 02 00
	00 00 00 00 00	 mov	 DWORD PTR [esi+596], 0

; 415  : 		pGetListMode = NULL;

  004ae	c7 86 58 02 00
	00 00 00 00 00	 mov	 DWORD PTR [esi+600], 0

; 416  : 		pSetSingleRowSelection = NULL;

  004b8	c7 86 5c 02 00
	00 00 00 00 00	 mov	 DWORD PTR [esi+604], 0

; 417  : 		pGetSingleRowSelection = NULL;

  004c2	c7 86 60 02 00
	00 00 00 00 00	 mov	 DWORD PTR [esi+608], 0

; 418  : 		pSetSingleColSelection = NULL;

  004cc	c7 86 64 02 00
	00 00 00 00 00	 mov	 DWORD PTR [esi+612], 0

; 419  : 		pGetSingleColSelection = NULL;

  004d6	c7 86 68 02 00
	00 00 00 00 00	 mov	 DWORD PTR [esi+616], 0

; 420  : 		pEnableSelection = NULL;

  004e0	c7 86 6c 02 00
	00 00 00 00 00	 mov	 DWORD PTR [esi+620], 0

; 421  : 		pIsSelectable = NULL;

  004ea	c7 86 70 02 00
	00 00 00 00 00	 mov	 DWORD PTR [esi+624], 0

; 422  : 		pSetFixedColumnSelection = NULL;

  004f4	c7 86 74 02 00
	00 00 00 00 00	 mov	 DWORD PTR [esi+628], 0

; 423  : 		pGetFixedColumnSelection = NULL;

  004fe	c7 86 78 02 00
	00 00 00 00 00	 mov	 DWORD PTR [esi+632], 0

; 424  : 		pSetFixedRowSelection = NULL;

  00508	c7 86 7c 02 00
	00 00 00 00 00	 mov	 DWORD PTR [esi+636], 0

; 425  : 		pGetFixedRowSelection = NULL;

  00512	c7 86 80 02 00
	00 00 00 00 00	 mov	 DWORD PTR [esi+640], 0

; 426  : 		pEnableDragAndDrop = NULL;

  0051c	c7 86 84 02 00
	00 00 00 00 00	 mov	 DWORD PTR [esi+644], 0

; 427  : 		pGetDragAndDrop = NULL;

  00526	c7 86 88 02 00
	00 00 00 00 00	 mov	 DWORD PTR [esi+648], 0

; 428  : 		pSetRowResize = NULL;

  00530	c7 86 8c 02 00
	00 00 00 00 00	 mov	 DWORD PTR [esi+652], 0

; 429  : 		pGetRowResize = NULL;

  0053a	c7 86 90 02 00
	00 00 00 00 00	 mov	 DWORD PTR [esi+656], 0

; 430  : 		pSetColumnResize = NULL;

  00544	c7 86 94 02 00
	00 00 00 00 00	 mov	 DWORD PTR [esi+660], 0

; 431  : 		pGetColumnResize = NULL;

  0054e	c7 86 98 02 00
	00 00 00 00 00	 mov	 DWORD PTR [esi+664], 0

; 432  : 		pSetHeaderSort = NULL;

  00558	c7 86 9c 02 00
	00 00 00 00 00	 mov	 DWORD PTR [esi+668], 0

; 433  : 		pGetHeaderSort = NULL;

  00562	c7 86 a0 02 00
	00 00 00 00 00	 mov	 DWORD PTR [esi+672], 0

; 434  : 		pSetHandleTabKey = NULL;

  0056c	c7 86 a4 02 00
	00 00 00 00 00	 mov	 DWORD PTR [esi+676], 0

; 435  : 		pGetHandleTabKey = NULL;

  00576	c7 86 a8 02 00
	00 00 00 00 00	 mov	 DWORD PTR [esi+680], 0

; 436  : 		pSetDoubleBuffering = NULL;

  00580	c7 86 ac 02 00
	00 00 00 00 00	 mov	 DWORD PTR [esi+684], 0

; 437  : 		pGetDoubleBuffering = NULL;

  0058a	c7 86 b0 02 00
	00 00 00 00 00	 mov	 DWORD PTR [esi+688], 0

; 438  : 		pEnableTitleTips = NULL;

  00594	c7 86 b4 02 00
	00 00 00 00 00	 mov	 DWORD PTR [esi+692], 0

; 439  : 		pGetTitleTips = NULL;

  0059e	c7 86 b8 02 00
	00 00 00 00 00	 mov	 DWORD PTR [esi+696], 0

; 440  : 		pSetSortColumn = NULL;

  005a8	c7 86 bc 02 00
	00 00 00 00 00	 mov	 DWORD PTR [esi+700], 0

; 441  : 		pGetSortColumn = NULL;

  005b2	c7 86 c0 02 00
	00 00 00 00 00	 mov	 DWORD PTR [esi+704], 0

; 442  : 		pSetSortAscending = NULL;

  005bc	c7 86 c4 02 00
	00 00 00 00 00	 mov	 DWORD PTR [esi+708], 0

; 443  : 		pGetSortAscending = NULL;

  005c6	c7 86 c8 02 00
	00 00 00 00 00	 mov	 DWORD PTR [esi+712], 0

; 444  : 		pSetTrackFocusCell = NULL;

  005d0	c7 86 cc 02 00
	00 00 00 00 00	 mov	 DWORD PTR [esi+716], 0

; 445  : 		pGetTrackFocusCell = NULL;

  005da	c7 86 d0 02 00
	00 00 00 00 00	 mov	 DWORD PTR [esi+720], 0

; 446  : 		pSetFrameFocusCell = NULL;

  005e4	c7 86 d4 02 00
	00 00 00 00 00	 mov	 DWORD PTR [esi+724], 0

; 447  : 		pGetFrameFocusCell = NULL;

  005ee	c7 86 d8 02 00
	00 00 00 00 00	 mov	 DWORD PTR [esi+728], 0

; 448  : 		pSetAutoSizeStyle = NULL;

  005f8	c7 86 dc 02 00
	00 00 00 00 00	 mov	 DWORD PTR [esi+732], 0

; 449  : 		pGetAutoSizeStyle = NULL;

  00602	c7 86 e0 02 00
	00 00 00 00 00	 mov	 DWORD PTR [esi+736], 0

; 450  : 		pEnableHiddenColUnhide = NULL;

  0060c	c7 86 e4 02 00
	00 00 00 00 00	 mov	 DWORD PTR [esi+740], 0

; 451  : 		pGetHiddenColUnhide = NULL;

  00616	c7 86 e8 02 00
	00 00 00 00 00	 mov	 DWORD PTR [esi+744], 0

; 452  : 		pEnableHiddenRowUnhide = NULL;

  00620	c7 86 ec 02 00
	00 00 00 00 00	 mov	 DWORD PTR [esi+748], 0

; 453  : 		pGetHiddenRowUnhide = NULL;

  0062a	c7 86 f0 02 00
	00 00 00 00 00	 mov	 DWORD PTR [esi+752], 0

; 454  : 		pEnableColumnHide = NULL;

  00634	c7 86 f4 02 00
	00 00 00 00 00	 mov	 DWORD PTR [esi+756], 0

; 455  : 		pGetColumnHide = NULL;

  0063e	c7 86 f8 02 00
	00 00 00 00 00	 mov	 DWORD PTR [esi+760], 0

; 456  : 		pEnableRowHide = NULL;

  00648	c7 86 fc 02 00
	00 00 00 00 00	 mov	 DWORD PTR [esi+764], 0

; 457  : 		pGetRowHide = NULL;

  00652	c7 86 00 03 00
	00 00 00 00 00	 mov	 DWORD PTR [esi+768], 0

; 458  : 		pSetDefaultReadOnly = NULL;

  0065c	c7 86 04 03 00
	00 00 00 00 00	 mov	 DWORD PTR [esi+772], 0

; 459  : 		pIsDefaultReadOnly = NULL;

  00666	c7 86 08 03 00
	00 00 00 00 00	 mov	 DWORD PTR [esi+776], 0

; 460  : 		pGetDefaultCell = NULL;

  00670	c7 86 0c 03 00
	00 00 00 00 00	 mov	 DWORD PTR [esi+780], 0

; 461  : 		pGetCell = NULL;

  0067a	c7 86 10 03 00
	00 00 00 00 00	 mov	 DWORD PTR [esi+784], 0

; 462  : 		pSetModified = NULL;

  00684	c7 86 14 03 00
	00 00 00 00 00	 mov	 DWORD PTR [esi+788], 0

; 463  : 		pGetModified = NULL;

  0068e	c7 86 18 03 00
	00 00 00 00 00	 mov	 DWORD PTR [esi+792], 0

; 464  : 		pIsCellFixed = NULL;

  00698	c7 86 1c 03 00
	00 00 00 00 00	 mov	 DWORD PTR [esi+796], 0

; 465  : 		pSetItem = NULL;

  006a2	c7 86 20 03 00
	00 00 00 00 00	 mov	 DWORD PTR [esi+800], 0

; 466  : 		pGetItem = NULL;

  006ac	c7 86 24 03 00
	00 00 00 00 00	 mov	 DWORD PTR [esi+804], 0

; 467  : 		pSetItemText = NULL;

  006b6	c7 86 28 03 00
	00 00 00 00 00	 mov	 DWORD PTR [esi+808], 0

; 468  : 		pGetItemText = NULL;

  006c0	c7 86 2c 03 00
	00 00 00 00 00	 mov	 DWORD PTR [esi+812], 0

; 469  : 		pSetItemTextFmt = NULL;

  006ca	c7 86 30 03 00
	00 00 00 00 00	 mov	 DWORD PTR [esi+816], 0

; 470  : 		pSetItemTextFmtID = NULL;

  006d4	c7 86 34 03 00
	00 00 00 00 00	 mov	 DWORD PTR [esi+820], 0

; 471  : 		pSetItemData = NULL;

  006de	c7 86 38 03 00
	00 00 00 00 00	 mov	 DWORD PTR [esi+824], 0

; 472  : 		pGetItemData = NULL;

  006e8	c7 86 3c 03 00
	00 00 00 00 00	 mov	 DWORD PTR [esi+828], 0

; 473  : 		pSetItemImage = NULL;

  006f2	c7 86 40 03 00
	00 00 00 00 00	 mov	 DWORD PTR [esi+832], 0

; 474  : 		pGetItemImage = NULL;

  006fc	c7 86 44 03 00
	00 00 00 00 00	 mov	 DWORD PTR [esi+836], 0

; 475  : 		pSetItemState = NULL;

  00706	c7 86 48 03 00
	00 00 00 00 00	 mov	 DWORD PTR [esi+840], 0

; 476  : 		pGetItemState = NULL;

  00710	c7 86 4c 03 00
	00 00 00 00 00	 mov	 DWORD PTR [esi+844], 0

; 477  : 		pSetItemFormat = NULL;

  0071a	c7 86 50 03 00
	00 00 00 00 00	 mov	 DWORD PTR [esi+848], 0

; 478  : 		pGetItemFormat = NULL;

  00724	c7 86 54 03 00
	00 00 00 00 00	 mov	 DWORD PTR [esi+852], 0

; 479  : 		pSetItemBkColour = NULL;

  0072e	c7 86 58 03 00
	00 00 00 00 00	 mov	 DWORD PTR [esi+856], 0

; 480  : 		pGetItemBkColour = NULL;

  00738	c7 86 5c 03 00
	00 00 00 00 00	 mov	 DWORD PTR [esi+860], 0

; 481  : 		pSetItemFgColour = NULL;

  00742	c7 86 60 03 00
	00 00 00 00 00	 mov	 DWORD PTR [esi+864], 0

; 482  : 		pGetItemFgColour = NULL;

  0074c	c7 86 64 03 00
	00 00 00 00 00	 mov	 DWORD PTR [esi+868], 0

; 483  : 		pSetItemFont = NULL;

  00756	c7 86 68 03 00
	00 00 00 00 00	 mov	 DWORD PTR [esi+872], 0

; 484  : 		pGetItemFont = NULL;

  00760	c7 86 6c 03 00
	00 00 00 00 00	 mov	 DWORD PTR [esi+876], 0

; 485  : 		pIsItemEditing = NULL;

  0076a	c7 86 70 03 00
	00 00 00 00 00	 mov	 DWORD PTR [esi+880], 0

; 486  : 		pSetCellType = NULL;

  00774	c7 86 74 03 00
	00 00 00 00 00	 mov	 DWORD PTR [esi+884], 0

; 487  : 		pInsertColumn = NULL;

  0077e	c7 86 78 03 00
	00 00 00 00 00	 mov	 DWORD PTR [esi+888], 0

; 488  : 		pInsertRow = NULL;

  00788	c7 86 7c 03 00
	00 00 00 00 00	 mov	 DWORD PTR [esi+892], 0

; 489  : 		pDeleteColumn = NULL;

  00792	c7 86 80 03 00
	00 00 00 00 00	 mov	 DWORD PTR [esi+896], 0

; 490  : 		pDeleteRow = NULL;

  0079c	c7 86 84 03 00
	00 00 00 00 00	 mov	 DWORD PTR [esi+900], 0

; 491  : 		pDeleteNonFixedRows = NULL;

  007a6	c7 86 88 03 00
	00 00 00 00 00	 mov	 DWORD PTR [esi+904], 0

; 492  : 		pDeleteAllItems = NULL;

  007b0	c7 86 8c 03 00
	00 00 00 00 00	 mov	 DWORD PTR [esi+908], 0

; 493  : 		pClearCells = NULL;

  007ba	c7 86 90 03 00
	00 00 00 00 00	 mov	 DWORD PTR [esi+912], 0

; 494  : 		pAutoSizeRow = NULL;

  007c4	c7 86 94 03 00
	00 00 00 00 00	 mov	 DWORD PTR [esi+916], 0

; 495  : 		pAutoSizeColumn = NULL;

  007ce	c7 86 98 03 00
	00 00 00 00 00	 mov	 DWORD PTR [esi+920], 0

; 496  : 		pAutoSizeRows = NULL;

  007d8	c7 86 9c 03 00
	00 00 00 00 00	 mov	 DWORD PTR [esi+924], 0

; 497  : 		pAutoSizeColumns = NULL;

  007e2	c7 86 a0 03 00
	00 00 00 00 00	 mov	 DWORD PTR [esi+928], 0

; 498  : 		pAutoSize = NULL;

  007ec	c7 86 a4 03 00
	00 00 00 00 00	 mov	 DWORD PTR [esi+932], 0

; 499  : 		pExpandColumnsToFit = NULL;

  007f6	c7 86 a8 03 00
	00 00 00 00 00	 mov	 DWORD PTR [esi+936], 0

; 500  : 		pExpandLastColumn = NULL;

  00800	c7 86 ac 03 00
	00 00 00 00 00	 mov	 DWORD PTR [esi+940], 0

; 501  : 		pExpandRowsToFit = NULL;

  0080a	c7 86 b0 03 00
	00 00 00 00 00	 mov	 DWORD PTR [esi+944], 0

; 502  : 		pExpandToFit = NULL;

  00814	c7 86 b4 03 00
	00 00 00 00 00	 mov	 DWORD PTR [esi+948], 0

; 503  : 		pRefresh = NULL;

  0081e	c7 86 b8 03 00
	00 00 00 00 00	 mov	 DWORD PTR [esi+952], 0

; 504  : 		pAutoFill = NULL;

  00828	c7 86 bc 03 00
	00 00 00 00 00	 mov	 DWORD PTR [esi+956], 0

; 505  : 		pEnsureVisible = NULL;

  00832	c7 86 c0 03 00
	00 00 00 00 00	 mov	 DWORD PTR [esi+960], 0

; 506  : 		pEnsureVisible2 = NULL;

  0083c	c7 86 c4 03 00
	00 00 00 00 00	 mov	 DWORD PTR [esi+964], 0

; 507  : 		pIsCellVisible = NULL;

  00846	c7 86 c8 03 00
	00 00 00 00 00	 mov	 DWORD PTR [esi+968], 0

; 508  : 		pIsCellVisible2 = NULL;

  00850	c7 86 cc 03 00
	00 00 00 00 00	 mov	 DWORD PTR [esi+972], 0

; 509  : 		pIsCellEditable = NULL;

  0085a	c7 86 d0 03 00
	00 00 00 00 00	 mov	 DWORD PTR [esi+976], 0

; 510  : 		pIsCellEditable2 = NULL;

  00864	c7 86 d4 03 00
	00 00 00 00 00	 mov	 DWORD PTR [esi+980], 0

; 511  : 		pIsCellSelected = NULL;

  0086e	c7 86 d8 03 00
	00 00 00 00 00	 mov	 DWORD PTR [esi+984], 0

; 512  : 		pIsCellSelected2 = NULL;

  00878	c7 86 dc 03 00
	00 00 00 00 00	 mov	 DWORD PTR [esi+988], 0

; 513  : 		pSetRedraw = NULL;

  00882	c7 86 e0 03 00
	00 00 00 00 00	 mov	 DWORD PTR [esi+992], 0

; 514  : 		pRedrawCell = NULL;

  0088c	c7 86 e4 03 00
	00 00 00 00 00	 mov	 DWORD PTR [esi+996], 0

; 515  : 		pRedrawCell2 = NULL;

  00896	c7 86 e8 03 00
	00 00 00 00 00	 mov	 DWORD PTR [esi+1000], 0

; 516  : 		pRedrawRow = NULL;

  008a0	c7 86 ec 03 00
	00 00 00 00 00	 mov	 DWORD PTR [esi+1004], 0

; 517  : 		pRedrawColumn = NULL;

  008aa	c7 86 f0 03 00
	00 00 00 00 00	 mov	 DWORD PTR [esi+1008], 0

; 518  : 		pSave = NULL;

  008b4	c7 86 f4 03 00
	00 00 00 00 00	 mov	 DWORD PTR [esi+1012], 0

; 519  : 		pLoad = NULL;

  008be	c7 86 f8 03 00
	00 00 00 00 00	 mov	 DWORD PTR [esi+1016], 0

; 520  : 		pGetCellRange = NULL;

  008c8	c7 86 fc 03 00
	00 00 00 00 00	 mov	 DWORD PTR [esi+1020], 0

; 521  : 		pGetSelectedCellRange = NULL;

  008d2	c7 86 00 04 00
	00 00 00 00 00	 mov	 DWORD PTR [esi+1024], 0

; 522  : 		pSetSelectedRange = NULL;

  008dc	c7 86 04 04 00
	00 00 00 00 00	 mov	 DWORD PTR [esi+1028], 0

; 523  : 		pSetSelectedRange2 = NULL;

  008e6	c7 86 08 04 00
	00 00 00 00 00	 mov	 DWORD PTR [esi+1032], 0

; 524  : 		pIsValid = NULL;

  008f0	c7 86 0c 04 00
	00 00 00 00 00	 mov	 DWORD PTR [esi+1036], 0

; 525  : 		pIsValid2 = NULL;

  008fa	c7 86 10 04 00
	00 00 00 00 00	 mov	 DWORD PTR [esi+1040], 0

; 526  : 		pIsValid3 = NULL;

  00904	c7 86 14 04 00
	00 00 00 00 00	 mov	 DWORD PTR [esi+1044], 0

; 527  : 		pCutSelectedText = NULL;

  0090e	c7 86 18 04 00
	00 00 00 00 00	 mov	 DWORD PTR [esi+1048], 0

; 528  : 		pCopyTextFromGrid = NULL;

  00918	c7 86 1c 04 00
	00 00 00 00 00	 mov	 DWORD PTR [esi+1052], 0

; 529  : 		pPasteTextToGrid = NULL;

  00922	c7 86 20 04 00
	00 00 00 00 00	 mov	 DWORD PTR [esi+1056], 0

; 530  : 		pOnBeginDrag = NULL;

  0092c	c7 86 24 04 00
	00 00 00 00 00	 mov	 DWORD PTR [esi+1060], 0

; 531  : 		pOnDragEnter = NULL;

  00936	c7 86 28 04 00
	00 00 00 00 00	 mov	 DWORD PTR [esi+1064], 0

; 532  : 		pOnDragOver = NULL;

  00940	c7 86 2c 04 00
	00 00 00 00 00	 mov	 DWORD PTR [esi+1068], 0

; 533  : 		pOnDragLeave = NULL;

  0094a	c7 86 30 04 00
	00 00 00 00 00	 mov	 DWORD PTR [esi+1072], 0

; 534  : 		pOnDrop = NULL;

  00954	c7 86 34 04 00
	00 00 00 00 00	 mov	 DWORD PTR [esi+1076], 0

; 535  : 		pOnEditCut = NULL;

  0095e	c7 86 38 04 00
	00 00 00 00 00	 mov	 DWORD PTR [esi+1080], 0

; 536  : 		pOnEditCopy = NULL;

  00968	c7 86 3c 04 00
	00 00 00 00 00	 mov	 DWORD PTR [esi+1084], 0

; 537  : 		pOnEditPaste = NULL;

  00972	c7 86 40 04 00
	00 00 00 00 00	 mov	 DWORD PTR [esi+1088], 0

; 538  : 		pOnEditSelectAll = NULL;

  0097c	c7 86 44 04 00
	00 00 00 00 00	 mov	 DWORD PTR [esi+1092], 0

; 539  : 		pGetNextItem = NULL;

  00986	c7 86 48 04 00
	00 00 00 00 00	 mov	 DWORD PTR [esi+1096], 0

; 540  : 		pSortItems1 = NULL;

  00990	c7 86 4c 04 00
	00 00 00 00 00	 mov	 DWORD PTR [esi+1100], 0

; 541  : 		pSortTextItems2 = NULL;

  0099a	c7 86 50 04 00
	00 00 00 00 00	 mov	 DWORD PTR [esi+1104], 0

; 542  : 		pSortItems2 = NULL;

  009a4	c7 86 54 04 00
	00 00 00 00 00	 mov	 DWORD PTR [esi+1108], 0

; 543  : 		pSetCompareFunction = NULL;

  009ae	c7 86 58 04 00
	00 00 00 00 00	 mov	 DWORD PTR [esi+1112], 0

; 544  : 		pRegisterWindowClass = NULL;

  009b8	c7 86 5c 04 00
