; Listing generated by Microsoft (R) Optimizing Compiler Version 19.29.30145.0 

	TITLE	D:\git\src\IBK\IBK_DRFN\#DRfn-CS\_Obj\ExGridLib\ExGridCtrl.obj
	.686P
	.XMM
	include listing.inc
	.model	flat

INCLUDELIB MSVCRT
INCLUDELIB OLDNAMES

PUBLIC	?__empty_global_delete@@YAXPAX@Z		; __empty_global_delete
PUBLIC	?__empty_global_delete@@YAXPAXI@Z		; __empty_global_delete
PUBLIC	___local_stdio_printf_options
PUBLIC	_sprintf
PUBLIC	??3CObject@@SGXPAX@Z				; CObject::operator delete
PUBLIC	?Serialize@CObject@@UAEXAAVCArchive@@@Z		; CObject::Serialize
PUBLIC	?AssertValid@CObject@@UBEXXZ			; CObject::AssertValid
PUBLIC	?Dump@CObject@@UBEXAAVCDumpContext@@@Z		; CObject::Dump
PUBLIC	?_AfxInitManaged@@YAHXZ				; _AfxInitManaged
PUBLIC	?DoDataExchange@CWnd@@MAEXPAVCDataExchange@@@Z	; CWnd::DoDataExchange
PUBLIC	?BeginModalState@CWnd@@UAEXXZ			; CWnd::BeginModalState
PUBLIC	?EndModalState@CWnd@@UAEXXZ			; CWnd::EndModalState
PUBLIC	?_GetBaseClass@CExGridCtrl@@KGPAUCRuntimeClass@@XZ ; CExGridCtrl::_GetBaseClass
PUBLIC	?GetThisClass@CExGridCtrl@@SGPAUCRuntimeClass@@XZ ; CExGridCtrl::GetThisClass
PUBLIC	?GetRuntimeClass@CExGridCtrl@@UBEPAUCRuntimeClass@@XZ ; CExGridCtrl::GetRuntimeClass
PUBLIC	?CreateObject@CExGridCtrl@@SGPAVCObject@@XZ	; CExGridCtrl::CreateObject
PUBLIC	?ActionControl@CExGridCtrl@@QAEJPAX@Z		; CExGridCtrl::ActionControl
PUBLIC	??0CExGridCtrl@@QAE@HHHH@Z			; CExGridCtrl::CExGridCtrl
PUBLIC	?GetMouseScrollLines@CExGridCtrl@@QAEIXZ	; CExGridCtrl::GetMouseScrollLines
PUBLIC	?Create@CExGridCtrl@@QAEHAAUtagRECT@@PAVCWnd@@IK@Z ; CExGridCtrl::Create
PUBLIC	?GetRowCount@CExGridCtrl@@QAEHXZ		; CExGridCtrl::GetRowCount
PUBLIC	?GetColumnCount@CExGridCtrl@@QAEHXZ		; CExGridCtrl::GetColumnCount
PUBLIC	?GetFixedRowCount@CExGridCtrl@@QAEHXZ		; CExGridCtrl::GetFixedRowCount
PUBLIC	?GetFixedColumnCount@CExGridCtrl@@QAEHXZ	; CExGridCtrl::GetFixedColumnCount
PUBLIC	?SetRowCount@CExGridCtrl@@QAEHH@Z		; CExGridCtrl::SetRowCount
PUBLIC	?SetColumnCount@CExGridCtrl@@QAEHH@Z		; CExGridCtrl::SetColumnCount
PUBLIC	?SetFixedRowCount@CExGridCtrl@@QAEHH@Z		; CExGridCtrl::SetFixedRowCount
PUBLIC	?SetFixedColumnCount@CExGridCtrl@@QAEHH@Z	; CExGridCtrl::SetFixedColumnCount
PUBLIC	?GetRowHeight@CExGridCtrl@@QAEHH@Z		; CExGridCtrl::GetRowHeight
PUBLIC	?SetRowHeight@CExGridCtrl@@QAEHHH@Z		; CExGridCtrl::SetRowHeight
PUBLIC	?GetColumnWidth@CExGridCtrl@@QAEHH@Z		; CExGridCtrl::GetColumnWidth
PUBLIC	?SetColumnWidth@CExGridCtrl@@QAEHHH@Z		; CExGridCtrl::SetColumnWidth
PUBLIC	?GetCellOrigin@CExGridCtrl@@QAEHHHPAUtagPOINT@@@Z ; CExGridCtrl::GetCellOrigin
PUBLIC	?GetCellOrigin@CExGridCtrl@@QAEHAAVCCellID@@PAUtagPOINT@@@Z ; CExGridCtrl::GetCellOrigin
PUBLIC	?GetCellRect@CExGridCtrl@@QAEHHHPAUtagRECT@@@Z	; CExGridCtrl::GetCellRect
PUBLIC	?GetCellRect@CExGridCtrl@@QAEHAAVCCellID@@PAUtagRECT@@@Z ; CExGridCtrl::GetCellRect
PUBLIC	?GetTextRect@CExGridCtrl@@QAEHAAVCCellID@@PAUtagRECT@@@Z ; CExGridCtrl::GetTextRect
PUBLIC	?GetTextRect@CExGridCtrl@@QAEHHHPAUtagRECT@@@Z	; CExGridCtrl::GetTextRect
PUBLIC	?GetCellFromPt@CExGridCtrl@@QAE?AVCCellID@@VCPoint@@H@Z ; CExGridCtrl::GetCellFromPt
PUBLIC	?GetFixedRowHeight@CExGridCtrl@@QAEHXZ		; CExGridCtrl::GetFixedRowHeight
PUBLIC	?GetFixedColumnWidth@CExGridCtrl@@QAEHXZ	; CExGridCtrl::GetFixedColumnWidth
PUBLIC	?GetVirtualWidth@CExGridCtrl@@QAEJXZ		; CExGridCtrl::GetVirtualWidth
PUBLIC	?GetVirtualHeight@CExGridCtrl@@QAEJXZ		; CExGridCtrl::GetVirtualHeight
PUBLIC	?GetTextExtent@CExGridCtrl@@QAE?AVCSize@@HHPBD@Z ; CExGridCtrl::GetTextExtent
PUBLIC	?SetGridBkColor@CExGridCtrl@@QAEXK@Z		; CExGridCtrl::SetGridBkColor
PUBLIC	?GetGridBkColor@CExGridCtrl@@QAEKXZ		; CExGridCtrl::GetGridBkColor
PUBLIC	?SetGridLineColor@CExGridCtrl@@QAEXK@Z		; CExGridCtrl::SetGridLineColor
PUBLIC	?GetGridLineColor@CExGridCtrl@@QAEKXZ		; CExGridCtrl::GetGridLineColor
PUBLIC	?SetTitleTipBackClr@CExGridCtrl@@QAEXK@Z	; CExGridCtrl::SetTitleTipBackClr
PUBLIC	?GetTitleTipBackClr@CExGridCtrl@@QAEKXZ		; CExGridCtrl::GetTitleTipBackClr
PUBLIC	?SetTitleTipTextClr@CExGridCtrl@@QAEXK@Z	; CExGridCtrl::SetTitleTipTextClr
PUBLIC	?GetTitleTipTextClr@CExGridCtrl@@QAEKXZ		; CExGridCtrl::GetTitleTipTextClr
PUBLIC	?SetFixedGridLineColor_Light@CExGridCtrl@@QAEXK@Z ; CExGridCtrl::SetFixedGridLineColor_Light
PUBLIC	?SetFixedGridLineColor_Dark@CExGridCtrl@@QAEXK@Z ; CExGridCtrl::SetFixedGridLineColor_Dark
PUBLIC	?GetFixedGridLineColor_Light@CExGridCtrl@@QAEKXZ ; CExGridCtrl::GetFixedGridLineColor_Light
PUBLIC	?GetFixedGridLineColor_Dark@CExGridCtrl@@QAEKXZ	; CExGridCtrl::GetFixedGridLineColor_Dark
PUBLIC	?SetHighlightColor@CExGridCtrl@@QAEXK@Z		; CExGridCtrl::SetHighlightColor
PUBLIC	?SetHighlightTextColor@CExGridCtrl@@QAEXK@Z	; CExGridCtrl::SetHighlightTextColor
PUBLIC	?GetHighlightColor@CExGridCtrl@@QAEKXZ		; CExGridCtrl::GetHighlightColor
PUBLIC	?GetHighlightTextColor@CExGridCtrl@@QAEKXZ	; CExGridCtrl::GetHighlightTextColor
PUBLIC	?SetUseHighlightText@CExGridCtrl@@QAEXH@Z	; CExGridCtrl::SetUseHighlightText
PUBLIC	?GetUseHighlightText@CExGridCtrl@@QAEHXZ	; CExGridCtrl::GetUseHighlightText
PUBLIC	?SetFixedRowSelectionHighlight@CExGridCtrl@@QAEXH@Z ; CExGridCtrl::SetFixedRowSelectionHighlight
PUBLIC	?GetFixedRowSelectionHighlight@CExGridCtrl@@QAEHXZ ; CExGridCtrl::GetFixedRowSelectionHighlight
PUBLIC	?SetGridScrollBarVisible@CExGridCtrl@@QAEXHH@Z	; CExGridCtrl::SetGridScrollBarVisible
PUBLIC	?SetTextColor@CExGridCtrl@@QAEXK@Z		; CExGridCtrl::SetTextColor
PUBLIC	?GetTextColor@CExGridCtrl@@QAEKXZ		; CExGridCtrl::GetTextColor
PUBLIC	?SetTextBkColor@CExGridCtrl@@QAEXK@Z		; CExGridCtrl::SetTextBkColor
PUBLIC	?GetTextBkColor@CExGridCtrl@@QAEKXZ		; CExGridCtrl::GetTextBkColor
PUBLIC	?SetFixedTextColor@CExGridCtrl@@QAEXK@Z		; CExGridCtrl::SetFixedTextColor
PUBLIC	?GetFixedTextColor@CExGridCtrl@@QAEKXZ		; CExGridCtrl::GetFixedTextColor
PUBLIC	?SetFixedBkColor@CExGridCtrl@@QAEXK@Z		; CExGridCtrl::SetFixedBkColor
PUBLIC	?GetFixedBkColor@CExGridCtrl@@QAEKXZ		; CExGridCtrl::GetFixedBkColor
PUBLIC	?SetGridColor@CExGridCtrl@@QAEXK@Z		; CExGridCtrl::SetGridColor
PUBLIC	?GetGridColor@CExGridCtrl@@QAEKXZ		; CExGridCtrl::GetGridColor
PUBLIC	?SetBkColor@CExGridCtrl@@QAEXK@Z		; CExGridCtrl::SetBkColor
PUBLIC	?GetBkColor@CExGridCtrl@@QAEKXZ			; CExGridCtrl::GetBkColor
PUBLIC	?SetDefCellMargin@CExGridCtrl@@QAEXH@Z		; CExGridCtrl::SetDefCellMargin
PUBLIC	?GetDefCellMargin@CExGridCtrl@@QAEHXZ		; CExGridCtrl::GetDefCellMargin
PUBLIC	?GetDefCellHeight@CExGridCtrl@@QAEHXZ		; CExGridCtrl::GetDefCellHeight
PUBLIC	?SetDefCellHeight@CExGridCtrl@@QAEXH@Z		; CExGridCtrl::SetDefCellHeight
PUBLIC	?GetDefCellWidth@CExGridCtrl@@QAEHXZ		; CExGridCtrl::GetDefCellWidth
PUBLIC	?SetDefCellWidth@CExGridCtrl@@QAEXH@Z		; CExGridCtrl::SetDefCellWidth
PUBLIC	?GetSelectedCount@CExGridCtrl@@QAEHXZ		; CExGridCtrl::GetSelectedCount
PUBLIC	?SetFocusCell@CExGridCtrl@@QAE?AVCCellID@@V2@@Z	; CExGridCtrl::SetFocusCell
PUBLIC	?SetFocusCell@CExGridCtrl@@QAE?AVCCellID@@HH@Z	; CExGridCtrl::SetFocusCell
PUBLIC	?GetFocusCell@CExGridCtrl@@QAE?AVCCellID@@XZ	; CExGridCtrl::GetFocusCell
PUBLIC	?SetVirtualMode@CExGridCtrl@@QAEXH@Z		; CExGridCtrl::SetVirtualMode
PUBLIC	?GetVirtualMode@CExGridCtrl@@QAEHXZ		; CExGridCtrl::GetVirtualMode
PUBLIC	?SetCallbackFunc@CExGridCtrl@@QAEXP6GHPAUtagGV_DISPINFO@@J@ZJ@Z ; CExGridCtrl::SetCallbackFunc
PUBLIC	?GetCallbackFunc@CExGridCtrl@@QAEP6GHPAUtagGV_DISPINFO@@J@ZXZ ; CExGridCtrl::GetCallbackFunc
PUBLIC	?SetImageList@CExGridCtrl@@QAEXPAVCImageList@@@Z ; CExGridCtrl::SetImageList
PUBLIC	?GetImageList@CExGridCtrl@@QAEPAVCImageList@@XZ	; CExGridCtrl::GetImageList
PUBLIC	?SetGridLines@CExGridCtrl@@QAEXH@Z		; CExGridCtrl::SetGridLines
PUBLIC	?GetGridLines@CExGridCtrl@@QAEHXZ		; CExGridCtrl::GetGridLines
PUBLIC	?SetEditable@CExGridCtrl@@QAEXH@Z		; CExGridCtrl::SetEditable
PUBLIC	?IsEditable@CExGridCtrl@@QAEHXZ			; CExGridCtrl::IsEditable
PUBLIC	?SetListMode@CExGridCtrl@@QAEXH@Z		; CExGridCtrl::SetListMode
PUBLIC	?GetListMode@CExGridCtrl@@QAEHXZ		; CExGridCtrl::GetListMode
PUBLIC	?SetSingleRowSelection@CExGridCtrl@@QAEXH@Z	; CExGridCtrl::SetSingleRowSelection
PUBLIC	?GetSingleRowSelection@CExGridCtrl@@QAEHXZ	; CExGridCtrl::GetSingleRowSelection
PUBLIC	?SetSingleColSelection@CExGridCtrl@@QAEXH@Z	; CExGridCtrl::SetSingleColSelection
PUBLIC	?GetSingleColSelection@CExGridCtrl@@QAEHXZ	; CExGridCtrl::GetSingleColSelection
PUBLIC	?EnableSelection@CExGridCtrl@@QAEXH@Z		; CExGridCtrl::EnableSelection
PUBLIC	?IsSelectable@CExGridCtrl@@QAEHXZ		; CExGridCtrl::IsSelectable
PUBLIC	?SetFixedColumnSelection@CExGridCtrl@@QAEXH@Z	; CExGridCtrl::SetFixedColumnSelection
PUBLIC	?GetFixedColumnSelection@CExGridCtrl@@QAEHXZ	; CExGridCtrl::GetFixedColumnSelection
PUBLIC	?SetFixedRowSelection@CExGridCtrl@@QAEXH@Z	; CExGridCtrl::SetFixedRowSelection
PUBLIC	?GetFixedRowSelection@CExGridCtrl@@QAEHXZ	; CExGridCtrl::GetFixedRowSelection
PUBLIC	?EnableDragAndDrop@CExGridCtrl@@QAEXH@Z		; CExGridCtrl::EnableDragAndDrop
PUBLIC	?GetDragAndDrop@CExGridCtrl@@QAEHXZ		; CExGridCtrl::GetDragAndDrop
PUBLIC	?SetRowResize@CExGridCtrl@@QAEXH@Z		; CExGridCtrl::SetRowResize
PUBLIC	?GetRowResize@CExGridCtrl@@QAEHXZ		; CExGridCtrl::GetRowResize
PUBLIC	?SetColumnResize@CExGridCtrl@@QAEXH@Z		; CExGridCtrl::SetColumnResize
PUBLIC	?GetColumnResize@CExGridCtrl@@QAEHXZ		; CExGridCtrl::GetColumnResize
PUBLIC	?SetHeaderSort@CExGridCtrl@@QAEXH@Z		; CExGridCtrl::SetHeaderSort
PUBLIC	?GetHeaderSort@CExGridCtrl@@QAEHXZ		; CExGridCtrl::GetHeaderSort
PUBLIC	?SetHandleTabKey@CExGridCtrl@@QAEXH@Z		; CExGridCtrl::SetHandleTabKey
PUBLIC	?GetHandleTabKey@CExGridCtrl@@QAEHXZ		; CExGridCtrl::GetHandleTabKey
PUBLIC	?SetDoubleBuffering@CExGridCtrl@@QAEXH@Z	; CExGridCtrl::SetDoubleBuffering
PUBLIC	?GetDoubleBuffering@CExGridCtrl@@QAEHXZ		; CExGridCtrl::GetDoubleBuffering
PUBLIC	?EnableTitleTips@CExGridCtrl@@QAEXH@Z		; CExGridCtrl::EnableTitleTips
PUBLIC	?GetTitleTips@CExGridCtrl@@QAEHXZ		; CExGridCtrl::GetTitleTips
PUBLIC	?SetSortColumn@CExGridCtrl@@QAEXH@Z		; CExGridCtrl::SetSortColumn
PUBLIC	?GetSortColumn@CExGridCtrl@@QAEHXZ		; CExGridCtrl::GetSortColumn
PUBLIC	?SetSortAscending@CExGridCtrl@@QAEXH@Z		; CExGridCtrl::SetSortAscending
PUBLIC	?GetSortAscending@CExGridCtrl@@QAEHXZ		; CExGridCtrl::GetSortAscending
PUBLIC	?SetTrackFocusCell@CExGridCtrl@@QAEXH@Z		; CExGridCtrl::SetTrackFocusCell
PUBLIC	?GetTrackFocusCell@CExGridCtrl@@QAEHXZ		; CExGridCtrl::GetTrackFocusCell
PUBLIC	?SetFrameFocusCell@CExGridCtrl@@QAEXH@Z		; CExGridCtrl::SetFrameFocusCell
PUBLIC	?GetFrameFocusCell@CExGridCtrl@@QAEHXZ		; CExGridCtrl::GetFrameFocusCell
PUBLIC	?SetAutoSizeStyle@CExGridCtrl@@QAEXH@Z		; CExGridCtrl::SetAutoSizeStyle
PUBLIC	?GetAutoSizeStyle@CExGridCtrl@@QAEHXZ		; CExGridCtrl::GetAutoSizeStyle
PUBLIC	?EnableHiddenColUnhide@CExGridCtrl@@QAEXH@Z	; CExGridCtrl::EnableHiddenColUnhide
PUBLIC	?GetHiddenColUnhide@CExGridCtrl@@QAEHXZ		; CExGridCtrl::GetHiddenColUnhide
PUBLIC	?EnableHiddenRowUnhide@CExGridCtrl@@QAEXH@Z	; CExGridCtrl::EnableHiddenRowUnhide
PUBLIC	?GetHiddenRowUnhide@CExGridCtrl@@QAEHXZ		; CExGridCtrl::GetHiddenRowUnhide
PUBLIC	?EnableColumnHide@CExGridCtrl@@QAEXH@Z		; CExGridCtrl::EnableColumnHide
PUBLIC	?GetColumnHide@CExGridCtrl@@QAEHXZ		; CExGridCtrl::GetColumnHide
PUBLIC	?EnableRowHide@CExGridCtrl@@QAEXH@Z		; CExGridCtrl::EnableRowHide
PUBLIC	?GetRowHide@CExGridCtrl@@QAEHXZ			; CExGridCtrl::GetRowHide
PUBLIC	?SetDefaultReadOnly@CExGridCtrl@@QAEXH@Z	; CExGridCtrl::SetDefaultReadOnly
PUBLIC	?IsDefaultReadOnly@CExGridCtrl@@QAEHXZ		; CExGridCtrl::IsDefaultReadOnly
PUBLIC	?SetUseFocusRect@CExGridCtrl@@QAEXH@Z		; CExGridCtrl::SetUseFocusRect
PUBLIC	?GetUseFocusRect@CExGridCtrl@@QAEHXZ		; CExGridCtrl::GetUseFocusRect
PUBLIC	?SetDrawFixedLine@CExGridCtrl@@QAEXH@Z		; CExGridCtrl::SetDrawFixedLine
PUBLIC	?GetDefaultCell@CExGridCtrl@@QAEPAVCGridCellBase@@HH@Z ; CExGridCtrl::GetDefaultCell
PUBLIC	?GetCell@CExGridCtrl@@QAEPAVCGridCellBase@@HH@Z	; CExGridCtrl::GetCell
PUBLIC	?SetModified@CExGridCtrl@@QAEXHHH@Z		; CExGridCtrl::SetModified
PUBLIC	?GetModified@CExGridCtrl@@QAEHHH@Z		; CExGridCtrl::GetModified
PUBLIC	?IsCellFixed@CExGridCtrl@@QAEHHH@Z		; CExGridCtrl::IsCellFixed
PUBLIC	?SetItem@CExGridCtrl@@QAEHPAU_GV_ITEM@@@Z	; CExGridCtrl::SetItem
PUBLIC	?GetItem@CExGridCtrl@@QAEHPAU_GV_ITEM@@@Z	; CExGridCtrl::GetItem
PUBLIC	?SetItemText@CExGridCtrl@@QAEHHHPBD@Z		; CExGridCtrl::SetItemText
PUBLIC	?GetItemText@CExGridCtrl@@QAE?AV?$CStringT@DV?$StrTraitMFC_DLL@DV?$ChTraitsCRT@D@ATL@@@@@ATL@@HH@Z ; CExGridCtrl::GetItemText
PUBLIC	?SetItemTextFmt@CExGridCtrl@@QAAHHHPBDZZ	; CExGridCtrl::SetItemTextFmt
PUBLIC	?SetItemTextFmtID@CExGridCtrl@@QAAHHHIZZ	; CExGridCtrl::SetItemTextFmtID
PUBLIC	?SetItemData@CExGridCtrl@@QAEHHHJ@Z		; CExGridCtrl::SetItemData
PUBLIC	?GetItemData@CExGridCtrl@@QAEJHH@Z		; CExGridCtrl::GetItemData
PUBLIC	?SetItemImage@CExGridCtrl@@QAEHHHH@Z		; CExGridCtrl::SetItemImage
PUBLIC	?GetItemImage@CExGridCtrl@@QAEHHH@Z		; CExGridCtrl::GetItemImage
PUBLIC	?SetItemState@CExGridCtrl@@QAEHHHI@Z		; CExGridCtrl::SetItemState
PUBLIC	?GetItemState@CExGridCtrl@@QAEIHH@Z		; CExGridCtrl::GetItemState
PUBLIC	?SetItemFormat@CExGridCtrl@@QAEHHHI@Z		; CExGridCtrl::SetItemFormat
PUBLIC	?GetItemFormat@CExGridCtrl@@QAEIHH@Z		; CExGridCtrl::GetItemFormat
PUBLIC	?SetItemBkColour@CExGridCtrl@@QAEHHHK@Z		; CExGridCtrl::SetItemBkColour
PUBLIC	?GetItemBkColour@CExGridCtrl@@QAEKHH@Z		; CExGridCtrl::GetItemBkColour
PUBLIC	?SetItemFgColour@CExGridCtrl@@QAEHHHK@Z		; CExGridCtrl::SetItemFgColour
PUBLIC	?GetItemFgColour@CExGridCtrl@@QAEKHH@Z		; CExGridCtrl::GetItemFgColour
PUBLIC	?SetItemFont@CExGridCtrl@@QAEHHHPAUtagLOGFONTA@@@Z ; CExGridCtrl::SetItemFont
PUBLIC	?GetItemFont@CExGridCtrl@@QAEPAUtagLOGFONTA@@HH@Z ; CExGridCtrl::GetItemFont
PUBLIC	?IsItemEditing@CExGridCtrl@@QAEHHH@Z		; CExGridCtrl::IsItemEditing
PUBLIC	?SetCellType@CExGridCtrl@@QAEHHHPAUCRuntimeClass@@@Z ; CExGridCtrl::SetCellType
PUBLIC	?SetDefaultCellType@CExGridCtrl@@QAEHPAUCRuntimeClass@@@Z ; CExGridCtrl::SetDefaultCellType
PUBLIC	?InsertColumn@CExGridCtrl@@QAEHPBDIH@Z		; CExGridCtrl::InsertColumn
PUBLIC	?InsertRow@CExGridCtrl@@QAEHPBDH@Z		; CExGridCtrl::InsertRow
PUBLIC	?DeleteColumn@CExGridCtrl@@QAEHH@Z		; CExGridCtrl::DeleteColumn
PUBLIC	?DeleteRow@CExGridCtrl@@QAEHH@Z			; CExGridCtrl::DeleteRow
PUBLIC	?DeleteNonFixedRows@CExGridCtrl@@QAEHXZ		; CExGridCtrl::DeleteNonFixedRows
PUBLIC	?DeleteAllItems@CExGridCtrl@@QAEHXZ		; CExGridCtrl::DeleteAllItems
PUBLIC	?ClearCells@CExGridCtrl@@QAEXVCCellRange@@@Z	; CExGridCtrl::ClearCells
PUBLIC	?AutoSizeRow@CExGridCtrl@@QAEHHH@Z		; CExGridCtrl::AutoSizeRow
PUBLIC	?AutoSizeColumn@CExGridCtrl@@QAEHHIH@Z		; CExGridCtrl::AutoSizeColumn
PUBLIC	?AutoSizeRows@CExGridCtrl@@QAEXXZ		; CExGridCtrl::AutoSizeRows
PUBLIC	?AutoSizeColumns@CExGridCtrl@@QAEXI@Z		; CExGridCtrl::AutoSizeColumns
PUBLIC	?AutoSize@CExGridCtrl@@QAEXI@Z			; CExGridCtrl::AutoSize
PUBLIC	?ExpandColumnsToFit@CExGridCtrl@@QAEXH@Z	; CExGridCtrl::ExpandColumnsToFit
PUBLIC	?ExpandLastColumn@CExGridCtrl@@QAEXXZ		; CExGridCtrl::ExpandLastColumn
PUBLIC	?ExpandRowsToFit@CExGridCtrl@@QAEXH@Z		; CExGridCtrl::ExpandRowsToFit
PUBLIC	?ExpandToFit@CExGridCtrl@@QAEXH@Z		; CExGridCtrl::ExpandToFit
PUBLIC	?Refresh@CExGridCtrl@@QAEXXZ			; CExGridCtrl::Refresh
PUBLIC	?AutoFill@CExGridCtrl@@QAEXXZ			; CExGridCtrl::AutoFill
PUBLIC	?EnsureVisible@CExGridCtrl@@QAEXAAVCCellID@@@Z	; CExGridCtrl::EnsureVisible
PUBLIC	?EnsureVisible@CExGridCtrl@@QAEXHH@Z		; CExGridCtrl::EnsureVisible
PUBLIC	?IsCellVisible@CExGridCtrl@@QAEHHH@Z		; CExGridCtrl::IsCellVisible
PUBLIC	?IsCellVisible@CExGridCtrl@@QAEHVCCellID@@@Z	; CExGridCtrl::IsCellVisible
PUBLIC	?IsCellEditable@CExGridCtrl@@QAEHHH@Z		; CExGridCtrl::IsCellEditable
PUBLIC	?IsCellEditable@CExGridCtrl@@QAEHAAVCCellID@@@Z	; CExGridCtrl::IsCellEditable
PUBLIC	?IsCellSelected@CExGridCtrl@@QAEHHH@Z		; CExGridCtrl::IsCellSelected
PUBLIC	?IsCellSelected@CExGridCtrl@@QAEHAAVCCellID@@@Z	; CExGridCtrl::IsCellSelected
PUBLIC	?SetRedraw@CExGridCtrl@@QAEXHH@Z		; CExGridCtrl::SetRedraw
PUBLIC	?RedrawCell@CExGridCtrl@@QAEHHHPAVCDC@@@Z	; CExGridCtrl::RedrawCell
PUBLIC	?RedrawCell@CExGridCtrl@@QAEHAAVCCellID@@PAVCDC@@@Z ; CExGridCtrl::RedrawCell
PUBLIC	?RedrawRow@CExGridCtrl@@QAEHH@Z			; CExGridCtrl::RedrawRow
PUBLIC	?RedrawColumn@CExGridCtrl@@QAEHH@Z		; CExGridCtrl::RedrawColumn
PUBLIC	?Save@CExGridCtrl@@QAEHPBDD@Z			; CExGridCtrl::Save
PUBLIC	?Load@CExGridCtrl@@QAEHPBDD@Z			; CExGridCtrl::Load
PUBLIC	?GetCellRange@CExGridCtrl@@QAE?AVCCellRange@@XZ	; CExGridCtrl::GetCellRange
PUBLIC	?GetSelectedCellRange@CExGridCtrl@@QAE?AVCCellRange@@XZ ; CExGridCtrl::GetSelectedCellRange
PUBLIC	?SetSelectedRange@CExGridCtrl@@QAEXAAVCCellRange@@HH@Z ; CExGridCtrl::SetSelectedRange
PUBLIC	?SetSelectedRange@CExGridCtrl@@QAEXHHHHHH@Z	; CExGridCtrl::SetSelectedRange
PUBLIC	?IsValid@CExGridCtrl@@QAEHHH@Z			; CExGridCtrl::IsValid
PUBLIC	?IsValid@CExGridCtrl@@QAEHAAVCCellID@@@Z	; CExGridCtrl::IsValid
PUBLIC	?IsValid@CExGridCtrl@@QAEHAAVCCellRange@@@Z	; CExGridCtrl::IsValid
PUBLIC	?CutSelectedText@CExGridCtrl@@UAEXXZ		; CExGridCtrl::CutSelectedText
PUBLIC	?CopyTextFromGrid@CExGridCtrl@@UAEPAVCOleDataSource@@XZ ; CExGridCtrl::CopyTextFromGrid
PUBLIC	?PasteTextToGrid@CExGridCtrl@@UAEHVCCellID@@PAVCOleDataObject@@H@Z ; CExGridCtrl::PasteTextToGrid
PUBLIC	?OnBeginDrag@CExGridCtrl@@UAEXXZ		; CExGridCtrl::OnBeginDrag
PUBLIC	?OnDragEnter@CExGridCtrl@@UAEKPAVCOleDataObject@@KVCPoint@@@Z ; CExGridCtrl::OnDragEnter
PUBLIC	?OnDragOver@CExGridCtrl@@UAEKPAVCOleDataObject@@KVCPoint@@@Z ; CExGridCtrl::OnDragOver
PUBLIC	?OnDragLeave@CExGridCtrl@@UAEXXZ		; CExGridCtrl::OnDragLeave
PUBLIC	?OnDrop@CExGridCtrl@@UAEHPAVCOleDataObject@@KVCPoint@@@Z ; CExGridCtrl::OnDrop
PUBLIC	?OnEditCut@CExGridCtrl@@UAEXXZ			; CExGridCtrl::OnEditCut
PUBLIC	?OnEditCopy@CExGridCtrl@@UAEXXZ			; CExGridCtrl::OnEditCopy
PUBLIC	?OnEditPaste@CExGridCtrl@@UAEXXZ		; CExGridCtrl::OnEditPaste
PUBLIC	?OnEditSelectAll@CExGridCtrl@@UAEXXZ		; CExGridCtrl::OnEditSelectAll
PUBLIC	?GetNextItem@CExGridCtrl@@QAE?AVCCellID@@AAV2@H@Z ; CExGridCtrl::GetNextItem
PUBLIC	?SortItems@CExGridCtrl@@QAEHHHJ@Z		; CExGridCtrl::SortItems
PUBLIC	?SortTextItems@CExGridCtrl@@QAEHHHJ@Z		; CExGridCtrl::SortTextItems
PUBLIC	?SortItems@CExGridCtrl@@QAEHP6GHJJJ@ZHHJ@Z	; CExGridCtrl::SortItems
PUBLIC	?SetCompareFunction@CExGridCtrl@@QAEXP6GHJJJ@Z@Z ; CExGridCtrl::SetCompareFunction
PUBLIC	??1CExGridCtrl@@UAE@XZ				; CExGridCtrl::~CExGridCtrl
PUBLIC	?RegisterWindowClass@CExGridCtrl@@IAEHXZ	; CExGridCtrl::RegisterWindowClass
PUBLIC	?Initialise@CExGridCtrl@@IAEHXZ			; CExGridCtrl::Initialise
PUBLIC	?SetupDefaultCells@CExGridCtrl@@IAEXXZ		; CExGridCtrl::SetupDefaultCells
PUBLIC	?SendMessageToParent@CExGridCtrl@@IAEJHHH@Z	; CExGridCtrl::SendMessageToParent
PUBLIC	?SendDisplayRequestToParent@CExGridCtrl@@IAEJPAUtagGV_DISPINFO@@@Z ; CExGridCtrl::SendDisplayRequestToParent
PUBLIC	?SendCacheHintToParent@CExGridCtrl@@IAEJAAVCCellRange@@@Z ; CExGridCtrl::SendCacheHintToParent
PUBLIC	?InvalidateCellRect@CExGridCtrl@@IAEHHH@Z	; CExGridCtrl::InvalidateCellRect
PUBLIC	?InvalidateCellRect@CExGridCtrl@@IAEHAAVCCellID@@@Z ; CExGridCtrl::InvalidateCellRect
PUBLIC	?InvalidateCellRect@CExGridCtrl@@IAEHAAVCCellRange@@@Z ; CExGridCtrl::InvalidateCellRect
PUBLIC	?EraseBkgnd@CExGridCtrl@@IAEXPAVCDC@@@Z		; CExGridCtrl::EraseBkgnd
PUBLIC	?GetCellRangeRect@CExGridCtrl@@IAEHAAVCCellRange@@PAUtagRECT@@@Z ; CExGridCtrl::GetCellRangeRect
PUBLIC	?SetCell@CExGridCtrl@@IAEHHHPAVCGridCellBase@@@Z ; CExGridCtrl::SetCell
PUBLIC	?SetMouseMode@CExGridCtrl@@IAEHH@Z		; CExGridCtrl::SetMouseMode
PUBLIC	?GetMouseMode@CExGridCtrl@@IAEHXZ		; CExGridCtrl::GetMouseMode
PUBLIC	?MouseOverRowResizeArea@CExGridCtrl@@IAEHAAVCPoint@@@Z ; CExGridCtrl::MouseOverRowResizeArea
PUBLIC	?MouseOverColumnResizeArea@CExGridCtrl@@IAEHAAVCPoint@@@Z ; CExGridCtrl::MouseOverColumnResizeArea
PUBLIC	?GetTopleftNonFixedCell@CExGridCtrl@@IAE?AVCCellID@@H@Z ; CExGridCtrl::GetTopleftNonFixedCell
PUBLIC	?GetUnobstructedNonFixedCellRange@CExGridCtrl@@IAE?AVCCellRange@@H@Z ; CExGridCtrl::GetUnobstructedNonFixedCellRange
PUBLIC	?GetVisibleNonFixedCellRange@CExGridCtrl@@IAE?AVCCellRange@@PAUtagRECT@@H@Z ; CExGridCtrl::GetVisibleNonFixedCellRange
PUBLIC	?IsVisibleVScroll@CExGridCtrl@@IAEHXZ		; CExGridCtrl::IsVisibleVScroll
PUBLIC	?IsVisibleHScroll@CExGridCtrl@@IAEHXZ		; CExGridCtrl::IsVisibleHScroll
PUBLIC	?ResetSelectedRange@CExGridCtrl@@IAEXXZ		; CExGridCtrl::ResetSelectedRange
PUBLIC	?ResetScrollBars@CExGridCtrl@@IAEXXZ		; CExGridCtrl::ResetScrollBars
PUBLIC	?EnableScrollBars@CExGridCtrl@@IAEXHH@Z		; CExGridCtrl::EnableScrollBars
PUBLIC	?GetScrollPos32@CExGridCtrl@@IAEHHH@Z		; CExGridCtrl::GetScrollPos32
PUBLIC	?SetScrollPos32@CExGridCtrl@@IAEHHHH@Z		; CExGridCtrl::SetScrollPos32
PUBLIC	?SortTextItems@CExGridCtrl@@IAEHHHHH@Z		; CExGridCtrl::SortTextItems
PUBLIC	?SortItems@CExGridCtrl@@IAEHP6GHJJJ@ZHHJHH@Z	; CExGridCtrl::SortItems
PUBLIC	?GetPointClicked@CExGridCtrl@@IAE?AVCPoint@@HHAAV2@@Z ; CExGridCtrl::GetPointClicked
PUBLIC	?ValidateAndModifyCellContents@CExGridCtrl@@IAEXHHPBD@Z ; CExGridCtrl::ValidateAndModifyCellContents
PUBLIC	?PreSubclassWindow@CExGridCtrl@@MAEXXZ		; CExGridCtrl::PreSubclassWindow
PUBLIC	?WindowProc@CExGridCtrl@@MAEJIIJ@Z		; CExGridCtrl::WindowProc
PUBLIC	?CreateDragImage@CExGridCtrl@@MAEPAVCImageList@@PAVCPoint@@@Z ; CExGridCtrl::CreateDragImage
PUBLIC	?OnFixedColumnClick@CExGridCtrl@@MAEXAAVCCellID@@@Z ; CExGridCtrl::OnFixedColumnClick
PUBLIC	?OnFixedRowClick@CExGridCtrl@@MAEXAAVCCellID@@@Z ; CExGridCtrl::OnFixedRowClick
PUBLIC	?OnEditCell@CExGridCtrl@@MAEXHHVCPoint@@I@Z	; CExGridCtrl::OnEditCell
PUBLIC	?OnEndEditCell@CExGridCtrl@@MAEXHHV?$CStringT@DV?$StrTraitMFC_DLL@DV?$ChTraitsCRT@D@ATL@@@@@ATL@@@Z ; CExGridCtrl::OnEndEditCell
PUBLIC	?ValidateEdit@CExGridCtrl@@MAEHHHPBD@Z		; CExGridCtrl::ValidateEdit
PUBLIC	?EndEditing@CExGridCtrl@@MAEXXZ			; CExGridCtrl::EndEditing
PUBLIC	?OnDraw@CExGridCtrl@@MAEXPAVCDC@@@Z		; CExGridCtrl::OnDraw
PUBLIC	?CreateCell@CExGridCtrl@@MAEPAVCGridCellBase@@HH@Z ; CExGridCtrl::CreateCell
PUBLIC	?DestroyCell@CExGridCtrl@@MAEXHH@Z		; CExGridCtrl::DestroyCell
PUBLIC	?SelectAllCells@CExGridCtrl@@IAEXXZ		; CExGridCtrl::SelectAllCells
PUBLIC	?SelectColumns@CExGridCtrl@@IAEXVCCellID@@HH@Z	; CExGridCtrl::SelectColumns
PUBLIC	?SelectRows@CExGridCtrl@@IAEXVCCellID@@HH@Z	; CExGridCtrl::SelectRows
PUBLIC	?SelectCells@CExGridCtrl@@IAEXVCCellID@@HH@Z	; CExGridCtrl::SelectCells
PUBLIC	?OnSelecting@CExGridCtrl@@IAEXAAVCCellID@@@Z	; CExGridCtrl::OnSelecting
PUBLIC	?OnPaint@CExGridCtrl@@IAEXXZ			; CExGridCtrl::OnPaint
PUBLIC	?OnHScroll@CExGridCtrl@@IAEXIIPAVCScrollBar@@@Z	; CExGridCtrl::OnHScroll
PUBLIC	?OnVScroll@CExGridCtrl@@IAEXIIPAVCScrollBar@@@Z	; CExGridCtrl::OnVScroll
PUBLIC	?OnSize@CExGridCtrl@@IAEXIHH@Z			; CExGridCtrl::OnSize
PUBLIC	?OnLButtonUp@CExGridCtrl@@IAEXIVCPoint@@@Z	; CExGridCtrl::OnLButtonUp
PUBLIC	?OnLButtonDown@CExGridCtrl@@IAEXIVCPoint@@@Z	; CExGridCtrl::OnLButtonDown
PUBLIC	?OnMouseMove@CExGridCtrl@@IAEXIVCPoint@@@Z	; CExGridCtrl::OnMouseMove
PUBLIC	?OnTimer@CExGridCtrl@@IAEXI@Z			; CExGridCtrl::OnTimer
PUBLIC	?OnGetDlgCode@CExGridCtrl@@IAEIXZ		; CExGridCtrl::OnGetDlgCode
PUBLIC	?OnKeyDown@CExGridCtrl@@IAEXIII@Z		; CExGridCtrl::OnKeyDown
PUBLIC	?OnKeyUp@CExGridCtrl@@IAEXIII@Z			; CExGridCtrl::OnKeyUp
PUBLIC	?OnChar@CExGridCtrl@@IAEXIII@Z			; CExGridCtrl::OnChar
PUBLIC	?OnLButtonDblClk@CExGridCtrl@@IAEXIVCPoint@@@Z	; CExGridCtrl::OnLButtonDblClk
PUBLIC	?OnEraseBkgnd@CExGridCtrl@@IAEHPAVCDC@@@Z	; CExGridCtrl::OnEraseBkgnd
PUBLIC	?OnSysKeyDown@CExGridCtrl@@IAEXIII@Z		; CExGridCtrl::OnSysKeyDown
PUBLIC	?OnContextMenu@CExGridCtrl@@IAEXPAVCWnd@@VCPoint@@@Z ; CExGridCtrl::OnContextMenu
PUBLIC	?OnUpdateEditSelectAll@CExGridCtrl@@IAEXPAVCCmdUI@@@Z ; CExGridCtrl::OnUpdateEditSelectAll
PUBLIC	?OnSetCursor@CExGridCtrl@@IAEHPAVCWnd@@II@Z	; CExGridCtrl::OnSetCursor
PUBLIC	?OnRButtonDown@CExGridCtrl@@IAEXIVCPoint@@@Z	; CExGridCtrl::OnRButtonDown
PUBLIC	?OnRButtonUp@CExGridCtrl@@IAEXIVCPoint@@@Z	; CExGridCtrl::OnRButtonUp
PUBLIC	?OnSysColorChange@CExGridCtrl@@IAEXXZ		; CExGridCtrl::OnSysColorChange
PUBLIC	?OnCaptureChanged@CExGridCtrl@@IAEXPAVCWnd@@@Z	; CExGridCtrl::OnCaptureChanged
PUBLIC	?OnUpdateEditCopy@CExGridCtrl@@IAEXPAVCCmdUI@@@Z ; CExGridCtrl::OnUpdateEditCopy
PUBLIC	?OnUpdateEditCut@CExGridCtrl@@IAEXPAVCCmdUI@@@Z	; CExGridCtrl::OnUpdateEditCut
PUBLIC	?OnUpdateEditPaste@CExGridCtrl@@IAEXPAVCCmdUI@@@Z ; CExGridCtrl::OnUpdateEditPaste
PUBLIC	?OnSettingChange@CExGridCtrl@@IAEXIPBD@Z	; CExGridCtrl::OnSettingChange
PUBLIC	?OnMouseWheel@CExGridCtrl@@IAEHIFVCPoint@@@Z	; CExGridCtrl::OnMouseWheel
PUBLIC	?OnSetFont@CExGridCtrl@@IAEJIJ@Z		; CExGridCtrl::OnSetFont
PUBLIC	?OnGetFont@CExGridCtrl@@IAEJIJ@Z		; CExGridCtrl::OnGetFont
PUBLIC	?OnImeChar@CExGridCtrl@@IAEJIJ@Z		; CExGridCtrl::OnImeChar
PUBLIC	?OnEndInPlaceEdit@CExGridCtrl@@IAEXPAUtagNMHDR@@PAJ@Z ; CExGridCtrl::OnEndInPlaceEdit
PUBLIC	?GetThisMessageMap@CExGridCtrl@@KGPBUAFX_MSGMAP@@XZ ; CExGridCtrl::GetThisMessageMap
PUBLIC	?GetMessageMap@CExGridCtrl@@MBEPBUAFX_MSGMAP@@XZ ; CExGridCtrl::GetMessageMap
PUBLIC	??_GCExGridCtrl@@UAEPAXI@Z			; CExGridCtrl::`scalar deleting destructor'
PUBLIC	??1CExLoadLib@@QAE@XZ				; CExLoadLib::~CExLoadLib
PUBLIC	?LoadProcAddress@CExLoadLib@@UAEHXZ		; CExLoadLib::LoadProcAddress
PUBLIC	??0CLoaderGridCtrl@@QAE@PAXPBD@Z		; CLoaderGridCtrl::CLoaderGridCtrl
PUBLIC	??1CLoaderGridCtrl@@UAE@XZ			; CLoaderGridCtrl::~CLoaderGridCtrl
PUBLIC	?LoadProcAddress@CLoaderGridCtrl@@UAEHXZ	; CLoaderGridCtrl::LoadProcAddress
PUBLIC	??_GCLoaderGridCtrl@@UAEPAXI@Z			; CLoaderGridCtrl::`scalar deleting destructor'
PUBLIC	??_9CExGridCtrl@@$BBJI@AE			; CExGridCtrl::`vcall'{408}'
PUBLIC	??_9CExGridCtrl@@$BBJA@AE			; CExGridCtrl::`vcall'{400}'
PUBLIC	??_9CExGridCtrl@@$BBIM@AE			; CExGridCtrl::`vcall'{396}'
PUBLIC	??_9CExGridCtrl@@$BBJE@AE			; CExGridCtrl::`vcall'{404}'
PUBLIC	?_OptionsStorage@?1??__local_stdio_printf_options@@9@4_KA ; `__local_stdio_printf_options'::`2'::_OptionsStorage
PUBLIC	??_C@_00CNPNBAHC@@				; `string'
PUBLIC	??_R0?AVCObject@@@8				; CObject `RTTI Type Descriptor'
PUBLIC	??_R3CObject@@8					; CObject::`RTTI Class Hierarchy Descriptor'
PUBLIC	??_R2CObject@@8					; CObject::`RTTI Base Class Array'
PUBLIC	??_R1A@?0A@EA@CObject@@8			; CObject::`RTTI Base Class Descriptor at (0,-1,0,64)'
PUBLIC	??_R1A@?0A@EA@CWnd@@8				; CWnd::`RTTI Base Class Descriptor at (0,-1,0,64)'
PUBLIC	??_R0?AVCWnd@@@8				; CWnd `RTTI Type Descriptor'
PUBLIC	??_R3CWnd@@8					; CWnd::`RTTI Class Hierarchy Descriptor'
PUBLIC	??_R2CWnd@@8					; CWnd::`RTTI Base Class Array'
PUBLIC	??_R1A@?0A@EA@CCmdTarget@@8			; CCmdTarget::`RTTI Base Class Descriptor at (0,-1,0,64)'
PUBLIC	??_R0?AVCCmdTarget@@@8				; CCmdTarget `RTTI Type Descriptor'
PUBLIC	??_R3CCmdTarget@@8				; CCmdTarget::`RTTI Class Hierarchy Descriptor'
PUBLIC	??_R2CCmdTarget@@8				; CCmdTarget::`RTTI Base Class Array'
PUBLIC	?classCExGridCtrl@CExGridCtrl@@2UCRuntimeClass@@B ; CExGridCtrl::classCExGridCtrl
PUBLIC	??_7CExGridCtrl@@6B@				; CExGridCtrl::`vftable'
PUBLIC	??_7CExLoadLib@@6B@				; CExLoadLib::`vftable'
PUBLIC	??_C@_0CD@INEDAMEN@DLL?$FL?$CFs?$FN?$MA?$LL?5Load?G?R?5?$LM?v?5?$LO?x?$LN?$MA?$LE?O?$LE?Y?4?5?$FL@ ; `string'
PUBLIC	??_C@_04OHDBDCPJ@?2Dev@				; `string'
PUBLIC	??_7CLoaderGridCtrl@@6B@			; CLoaderGridCtrl::`vftable'
PUBLIC	??_C@_0P@HKIIFJOH@ExGridCtrl?4dll@		; `string'
PUBLIC	??_C@_05BMGBEOOC@?$CFs?2?$CFs@			; `string'
PUBLIC	??_C@_0BB@JBDOCKKP@Ex_ActionControl@		; `string'
PUBLIC	??_C@_0BA@GMJHGOJC@Ex_InitGridCtrl@		; `string'
PUBLIC	??_C@_0BA@BFAIJPHF@Ex_ExitGridCtrl@		; `string'
PUBLIC	??_C@_09JKICPNB@Ex_Create@			; `string'
PUBLIC	??_C@_0P@HLDJAFE@Ex_GetRowCount@		; `string'
PUBLIC	??_C@_0BC@IDEBPJNH@Ex_GetColumnCount@		; `string'
PUBLIC	??_C@_0BE@BPKLHENI@Ex_GetFixedRowCount@		; `string'
PUBLIC	??_C@_0BH@ECBALFJF@Ex_GetFixedColumnCount@	; `string'
PUBLIC	??_C@_0P@IKNEGNH@Ex_SetRowCount@		; `string'
PUBLIC	??_C@_0BC@ENFPADPL@Ex_SetColumnCount@		; `string'
PUBLIC	??_C@_0BE@HLPCMKGK@Ex_SetFixedRowCount@		; `string'
PUBLIC	??_C@_0BH@OMDLPFOJ@Ex_SetFixedColumnCount@	; `string'
PUBLIC	??_C@_0BA@EJOKICAO@Ex_GetRowHeight@		; `string'
PUBLIC	??_C@_0BA@DNFEEOEC@Ex_SetRowHeight@		; `string'
PUBLIC	??_C@_0BC@ILCFAHPL@Ex_GetColumnWidth@		; `string'
PUBLIC	??_C@_0BC@EFDLPNNH@Ex_SetColumnWidth@		; `string'
PUBLIC	??_C@_0BB@MGANLAPA@Ex_GetCellOrigin@		; `string'
PUBLIC	??_C@_0BC@FAALKLNN@Ex_GetCellOrigin2@		; `string'
PUBLIC	??_C@_0P@LPJLBNIC@Ex_GetCellRect@		; `string'
PUBLIC	??_C@_0BA@OOHJCNGA@Ex_GetCellRect2@		; `string'
PUBLIC	??_C@_0P@LCOAKBB@Ex_GetTextRect@		; `string'
PUBLIC	??_C@_0BA@IHMLFKIJ@Ex_GetTextRect2@		; `string'
PUBLIC	??_C@_0BB@CIPPMECD@Ex_GetCellFromPt@		; `string'
PUBLIC	??_C@_0BF@KNPMFFOB@Ex_GetFixedRowHeight@	; `string'
PUBLIC	??_C@_0BH@EKHEELLJ@Ex_GetFixedColumnWidth@	; `string'
PUBLIC	??_C@_0BD@DFAOHHGM@Ex_GetVirtualWidth@		; `string'
PUBLIC	??_C@_0BE@FDAKIPGK@Ex_GetVirtualHeight@		; `string'
PUBLIC	??_C@_0BB@JNECFDJF@Ex_GetTextExtent@		; `string'
PUBLIC	??_C@_0BF@FBJJOBBD@Ex_GetCellTextExtent@	; `string'
PUBLIC	??_C@_0BC@HOEOKGMH@Ex_SetGridBkColor@		; `string'
PUBLIC	??_C@_0BC@LAFAFMOL@Ex_GetGridBkColor@		; `string'
PUBLIC	??_C@_0BE@FFIMAJMA@Ex_SetGridLineColor@		; `string'
PUBLIC	??_C@_0BE@DBNFLHHC@Ex_GetGridLineColor@		; `string'
PUBLIC	??_C@_0BG@ICOJDEPG@Ex_SetTitleTipBackClr@	; `string'
PUBLIC	??_C@_0BG@HIMDACBO@Ex_GetTitleTipBackClr@	; `string'
PUBLIC	??_C@_0BG@EHNDNKEC@Ex_SetTitleTipTextClr@	; `string'
PUBLIC	??_C@_0BG@LNPJOMKK@Ex_GetTitleTipTextClr@	; `string'
PUBLIC	??_C@_0BP@KEFBPEGH@Ex_SetFixedGridLineColor_Light@ ; `string'
PUBLIC	??_C@_0BO@BDFMOODF@Ex_SetFixedGridLineColor_Dark@ ; `string'
PUBLIC	??_C@_0BP@LJNJNBMD@Ex_GetFixedGridLineColor_Light@ ; `string'
PUBLIC	??_C@_0BO@CMGJCOCF@Ex_GetFixedGridLineColor_Dark@ ; `string'
PUBLIC	??_C@_0BF@OJKNEHDB@Ex_SetHighlightColor@	; `string'
PUBLIC	??_C@_0BJ@MJHPJAFF@Ex_SetHighlightTextColor@	; `string'
PUBLIC	??_C@_0BF@MMKGMMCP@Ex_GetHighlightColor@	; `string'
PUBLIC	??_C@_0BJ@DMCJEJBE@Ex_GetHighlightTextColor@	; `string'
PUBLIC	??_C@_0BH@DCGOGNFA@Ex_SetUseHighlightText@	; `string'
PUBLIC	??_C@_0BH@JMEFCNCM@Ex_GetUseHighlightText@	; `string'
PUBLIC	??_C@_0CB@NOMIDOOP@Ex_SetFixedRowSelectionHighligh@ ; `string'
PUBLIC	??_C@_0CB@FPKHIOMN@Ex_GetFixedRowSelectionHighligh@ ; `string'
PUBLIC	??_C@_0BA@MJCGEMJI@Ex_SetTextColor@		; `string'
PUBLIC	??_C@_0BA@LNJIIANE@Ex_GetTextColor@		; `string'
PUBLIC	??_C@_0BC@OGKJOACE@Ex_SetTextBkColor@		; `string'
PUBLIC	??_C@_0BC@CILHBKAI@Ex_GetTextBkColor@		; `string'
PUBLIC	??_C@_0BF@HMIFNMCF@Ex_SetFixedTextColor@	; `string'
PUBLIC	??_C@_0BF@FJIOFHDL@Ex_GetFixedTextColor@	; `string'
PUBLIC	??_C@_0BD@OCNEDHHM@Ex_SetFixedBkColor@		; `string'
PUBLIC	??_C@_0BD@NAMCEFGF@Ex_GetFixedBkColor@		; `string'
PUBLIC	??_C@_0BA@BKNBPELA@Ex_SetGridColor@		; `string'
PUBLIC	??_C@_0BA@GOGPDIPM@Ex_GetGridColor@		; `string'
PUBLIC	??_C@_0O@GBEOAJPL@Ex_SetBkColor@		; `string'
PUBLIC	??_C@_0O@HPGBLOLC@Ex_GetBkColor@		; `string'
PUBLIC	??_C@_0BE@JNONMFIP@Ex_SetDefCellMargin@		; `string'
PUBLIC	??_C@_0BE@PJLEHLDN@Ex_GetDefCellMargin@		; `string'
PUBLIC	??_C@_0BE@JGMCCAPD@Ex_GetDefCellHeight@		; `string'
PUBLIC	??_C@_0BE@PCJLJOEB@Ex_SetDefCellHeight@		; `string'
PUBLIC	??_C@_0BD@EHJKFANE@Ex_GetDefCellWidth@		; `string'
PUBLIC	??_C@_0BD@HFIMCCMN@Ex_SetDefCellWidth@		; `string'
PUBLIC	??_C@_0BE@LMNPDDGK@Ex_GetSelectedCount@		; `string'
PUBLIC	??_C@_0BB@OKNHCIID@Ex_SetFocusCell1@		; `string'
PUBLIC	??_C@_0BB@MBPKHLEA@Ex_SetFocusCell2@		; `string'
PUBLIC	??_C@_0BA@CHAPHGPC@Ex_GetFocusCell@		; `string'
PUBLIC	??_C@_0BC@GKEKHGIB@Ex_SetVirtualMode@		; `string'
PUBLIC	??_C@_0BC@KEFEIMKN@Ex_GetVirtualMode@		; `string'
PUBLIC	??_C@_0BD@HEOFKHFG@Ex_SetCallbackFunc@		; `string'
PUBLIC	??_C@_0BD@EGPDNFEP@Ex_GetCallbackFunc@		; `string'
PUBLIC	??_C@_0BA@LGEAPGNE@Ex_SetImageList@		; `string'
PUBLIC	??_C@_0BA@MCPODKJI@Ex_GetImageList@		; `string'
PUBLIC	??_C@_0BA@NKECMPNJ@Ex_SetGridLines@		; `string'
PUBLIC	??_C@_0BA@KOPMADJF@Ex_GetGridLines@		; `string'
PUBLIC	??_C@_0P@JBFLIDIG@Ex_SetEditable@		; `string'
PUBLIC	??_C@_0O@NHDOAOPK@Ex_IsEditable@		; `string'
PUBLIC	??_C@_0P@JNBLKIOM@Ex_SetListMode@		; `string'
PUBLIC	??_C@_0P@JCAFHOGP@Ex_GetListMode@		; `string'
PUBLIC	??_C@_0BJ@FIPOCOBD@Ex_SetSingleRowSelection@	; `string'
PUBLIC	??_C@_0BJ@KNKIPHFC@Ex_GetSingleRowSelection@	; `string'
PUBLIC	??_C@_0BJ@LMLIBCMD@Ex_SetSingleColSelection@	; `string'
PUBLIC	??_C@_0BJ@EJOOMLIC@Ex_GetSingleColSelection@	; `string'
PUBLIC	??_C@_0BD@OKOBKIIJ@Ex_EnableSelection@		; `string'
PUBLIC	??_C@_0BA@CEPMEDED@Ex_IsSelectable@		; `string'
PUBLIC	??_C@_0BL@LCFPINPP@Ex_SetFixedColumnSelection@	; `string'
PUBLIC	??_C@_0BL@KEDCGMJN@Ex_GetFixedColumnSelection@	; `string'
PUBLIC	??_C@_0BI@BGNHFMGH@Ex_SetFixedRowSelection@	; `string'
PUBLIC	??_C@_0BI@EPMKEKDA@Ex_GetFixedRowSelection@	; `string'
PUBLIC	??_C@_0BF@BCAACCJI@Ex_EnableDragAndDrop@	; `string'
PUBLIC	??_C@_0BC@BPGLLDNL@Ex_GetDragAndDrop@		; `string'
PUBLIC	??_C@_0BA@HIAOCBNM@Ex_SetRowResize@		; `string'
PUBLIC	??_C@_0BA@MLAONJA@Ex_GetRowResize@		; `string'
PUBLIC	??_C@_0BD@EKJDLPHK@Ex_SetColumnResize@		; `string'
PUBLIC	??_C@_0BD@HIIFMNGD@Ex_GetColumnResize@		; `string'
PUBLIC	??_C@_0BB@FNCOCAHB@Ex_SetHeaderSort@		; `string'
PUBLIC	??_C@_0BB@CCDAJDAG@Ex_GetHeaderSort@		; `string'
PUBLIC	??_C@_0BD@MAINJPHO@Ex_SetHandleTabKey@		; `string'
PUBLIC	??_C@_0BD@PCJLONGH@Ex_GetHandleTabKey@		; `string'
PUBLIC	??_C@_0BG@FADGBJJF@Ex_SetDoubleBuffering@	; `string'
PUBLIC	??_C@_0BG@KKBMCPHN@Ex_GetDoubleBuffering@	; `string'
PUBLIC	??_C@_0BD@CLEBGLOB@Ex_EnableTitleTips@		; `string'
PUBLIC	??_C@_0BA@GGIJPOKE@Ex_GetTitleTips@		; `string'
PUBLIC	??_C@_0BB@IGIKCHHB@Ex_SetSortColumn@		; `string'
PUBLIC	??_C@_0BB@PJJEJEAG@Ex_GetSortColumn@		; `string'
PUBLIC	??_C@_0BE@JAJLPMEM@Ex_SetSortAscending@		; `string'
PUBLIC	??_C@_0BE@PEMCECPO@Ex_GetSortAscending@		; `string'
PUBLIC	??_C@_0BF@GMCLPOEI@Ex_SetTrackFocusCell@	; `string'
PUBLIC	??_C@_0BF@EJCAHFFG@Ex_GetTrackFocusCell@	; `string'
PUBLIC	??_C@_0BF@DLIICIIO@Ex_SetFrameFocusCell@	; `string'
PUBLIC	??_C@_0BF@BOIDKDJA@Ex_GetFrameFocusCell@	; `string'
PUBLIC	??_C@_0BE@DLBLPDKG@Ex_SetAutoSizeStyle@		; `string'
PUBLIC	??_C@_0BE@FPECENBE@Ex_GetAutoSizeStyle@		; `string'
PUBLIC	??_C@_0BJ@OGINOEPC@Ex_EnableHiddenColUnhide@	; `string'
PUBLIC	??_C@_0BG@GLEFAPDH@Ex_GetHiddenColUnhide@	; `string'
PUBLIC	??_C@_0BJ@PDACDFJ@Ex_EnableHiddenRowUnhide@	; `string'
PUBLIC	??_C@_0BG@ICPIMIJM@Ex_GetHiddenRowUnhide@	; `string'
PUBLIC	??_C@_0BE@GPEEKGPJ@Ex_EnableColumnHide@		; `string'
PUBLIC	??_C@_0BB@GJLPNLHD@Ex_GetColumnHide@		; `string'
PUBLIC	??_C@_0BB@LLNAEOOL@Ex_EnableRowHide@		; `string'
PUBLIC	??_C@_0O@CFJHIGGA@Ex_GetRowHide@		; `string'
PUBLIC	??_C@_0BG@GKHGKAPA@Ex_SetDefaultReadOnly@	; `string'
PUBLIC	??_C@_0BF@MDNOCHF@Ex_IsDefaultReadOnly@		; `string'
PUBLIC	??_C@_0BC@HHBBOGH@Ex_GetDefaultCell@		; `string'
PUBLIC	??_C@_0L@IKFJGEFD@Ex_GetCell@			; `string'
PUBLIC	??_C@_0P@NKJNBMJC@Ex_SetModified@		; `string'
PUBLIC	??_C@_0P@NFIDMKBB@Ex_GetModified@		; `string'
PUBLIC	??_C@_0P@OIJIPHDB@Ex_IsCellFixed@		; `string'
PUBLIC	??_C@_0L@MGHHHJBH@Ex_SetItem@			; `string'
PUBLIC	??_C@_0L@DOIGEGMG@Ex_GetItem@			; `string'
PUBLIC	??_C@_0P@FEENFPGN@Ex_SetItemText@		; `string'
PUBLIC	??_C@_0P@FLFDIJOO@Ex_GetItemText@		; `string'
PUBLIC	??_C@_0BC@MAGCMHPB@Ex_SetItemTextFmt@		; `string'
PUBLIC	??_C@_0BE@ODPJHLMD@Ex_SetItemTextFmtID@		; `string'
PUBLIC	??_C@_0P@IFGAEAMI@Ex_SetItemData@		; `string'
PUBLIC	??_C@_0P@IKHOJGEL@Ex_GetItemData@		; `string'
PUBLIC	??_C@_0BA@JHJEJAOA@Ex_SetItemImage@		; `string'
PUBLIC	??_C@_0BA@ODCKFMKM@Ex_GetItemImage@		; `string'
PUBLIC	??_C@_0BA@EGEJFJMH@Ex_SetItemState@		; `string'
PUBLIC	??_C@_0BA@DCPHJFIL@Ex_GetItemState@		; `string'
PUBLIC	??_C@_0BB@BPLKLOBC@Ex_SetItemFormat@		; `string'
PUBLIC	??_C@_0BB@GAKEANGF@Ex_GetItemFormat@		; `string'
PUBLIC	??_C@_0BD@POOMAEBJ@Ex_SetItemBkColour@		; `string'
PUBLIC	??_C@_0BD@MMPKHGAA@Ex_GetItemBkColour@		; `string'
PUBLIC	??_C@_0BD@PEKPEAFK@Ex_SetItemFgColour@		; `string'
PUBLIC	??_C@_0BD@MGLJDCED@Ex_GetItemFgColour@		; `string'
PUBLIC	??_C@_0P@DJHLKECJ@Ex_SetItemFont@		; `string'
PUBLIC	??_C@_0P@DGGFHCKK@Ex_GetItemFont@		; `string'
PUBLIC	??_C@_0BB@GLGIIOMO@Ex_IsItemEditing@		; `string'
PUBLIC	??_C@_0P@GILDOILP@Ex_SetCellType@		; `string'
PUBLIC	??_C@_0BA@JFAAFLHP@Ex_InsertColumn@		; `string'
PUBLIC	??_C@_0N@JMDPIIIA@Ex_InsertRow@			; `string'
PUBLIC	??_C@_0BA@FNLLOHDN@Ex_DeleteColumn@		; `string'
PUBLIC	??_C@_0N@MFNGODEF@Ex_DeleteRow@			; `string'
PUBLIC	??_C@_0BG@MJGKPDPA@Ex_DeleteNonFixedRows@	; `string'
PUBLIC	??_C@_0BC@HJKLIKNJ@Ex_DeleteAllItems@		; `string'
PUBLIC	??_C@_0O@FMEEJLNJ@Ex_ClearCells@		; `string'
PUBLIC	??_C@_0P@CEKJHOM@Ex_AutoSizeRow@		; `string'
PUBLIC	??_C@_0BC@DJPIOCII@Ex_AutoSizeColumn@		; `string'
PUBLIC	??_C@_0BA@KNKMMOPB@Ex_AutoSizeRows@		; `string'
PUBLIC	??_C@_0BD@OHEINJMF@Ex_AutoSizeColumns@		; `string'
PUBLIC	??_C@_0M@JELJCJPC@Ex_AutoSize@			; `string'
PUBLIC	??_C@_0BG@INCAPNJM@Ex_ExpandColumnsToFit@	; `string'
PUBLIC	??_C@_0BE@EGEDCFD@Ex_ExpandLastColumn@		; `string'
PUBLIC	??_C@_0BD@PKDGNOBB@Ex_ExpandRowsToFit@		; `string'
PUBLIC	??_C@_0P@PDCDCOEO@Ex_ExpandToFit@		; `string'
PUBLIC	??_C@_0L@BPELEIPD@Ex_Refresh@			; `string'
PUBLIC	??_C@_0M@PFNAFFIL@Ex_AutoFill@			; `string'
PUBLIC	??_C@_0BB@LMOBPEEA@Ex_EnsureVisible@		; `string'
PUBLIC	??_C@_0BC@JLBAPEBF@Ex_EnsureVisible2@		; `string'
PUBLIC	??_C@_0BB@EKCEFGAG@Ex_IsCellVisible@		; `string'
PUBLIC	??_C@_0BC@EFJNFBC@Ex_IsCellVisible2@		; `string'
PUBLIC	??_C@_0BC@CLKDJBEN@Ex_IsCellEditable@		; `string'
PUBLIC	??_C@_0BD@OFDGMKMN@Ex_IsCellEditable2@		; `string'
PUBLIC	??_C@_0BC@LLBJAFFM@Ex_IsCellSelected@		; `string'
PUBLIC	??_C@_0BD@IPBGFAKL@Ex_IsCellSelected2@		; `string'
PUBLIC	??_C@_0N@JNHILCCM@Ex_SetRedraw@			; `string'
PUBLIC	??_C@_0O@BNGINBML@Ex_RedrawCell@		; `string'
PUBLIC	??_C@_0P@OBNLCHJI@Ex_RedrawCell2@		; `string'
PUBLIC	??_C@_0N@NHMBPMNF@Ex_RedrawRow@			; `string'
PUBLIC	??_C@_0BA@OOCBNEIG@Ex_RedrawColumn@		; `string'
PUBLIC	??_C@_07GNCAGGAM@Ex_Save@			; `string'
PUBLIC	??_C@_07GPDNJFNI@Ex_Load@			; `string'
PUBLIC	??_C@_0BA@CAJIFMH@Ex_GetCellRange@		; `string'
PUBLIC	??_C@_0BI@CMMIKBMP@Ex_GetSelectedCellRange@	; `string'
PUBLIC	??_C@_0BE@HECMCKIG@Ex_SetSelectedRange@		; `string'
PUBLIC	??_C@_0BF@OJNPFOEO@Ex_SetSelectedRange2@	; `string'
PUBLIC	??_C@_0L@NJKCAAKF@Ex_IsValid@			; `string'
PUBLIC	??_C@_0M@ELBFKBBG@Ex_IsValid2@			; `string'
PUBLIC	??_C@_0M@FCAOJAFH@Ex_IsValid3@			; `string'
PUBLIC	??_C@_0BD@HLADNECC@Ex_CutSelectedText@		; `string'
PUBLIC	??_C@_0BE@CDOOMMLN@Ex_CopyTextFromGrid@		; `string'
PUBLIC	??_C@_0BD@LEHFDCLN@Ex_PasteTextToGrid@		; `string'
PUBLIC	??_C@_0P@BDGAPEEH@Ex_OnBeginDrag@		; `string'
PUBLIC	??_C@_0P@LDECAKCG@Ex_OnDragEnter@		; `string'
PUBLIC	??_C@_0O@FNABDCOI@Ex_OnDragOver@		; `string'
PUBLIC	??_C@_0P@JPLJFEON@Ex_OnDragLeave@		; `string'
PUBLIC	??_C@_09CDNHNDAF@Ex_OnDrop@			; `string'
PUBLIC	??_C@_0N@MPNMBOEO@Ex_OnEditCut@			; `string'
PUBLIC	??_C@_0O@FHPLGNBB@Ex_OnEditCopy@		; `string'
PUBLIC	??_C@_0P@FCHCLGJE@Ex_OnEditPaste@		; `string'
PUBLIC	??_C@_0BD@MIFCANKK@Ex_OnEditSelectAll@		; `string'
PUBLIC	??_C@_0P@FCNIIBDN@Ex_GetNextItem@		; `string'
PUBLIC	??_C@_0O@DLONJMPE@Ex_SortItems1@		; `string'
PUBLIC	??_C@_0BC@EEHMHMIF@Ex_SortTextItems2@		; `string'
PUBLIC	??_C@_0O@BAMAMPDH@Ex_SortItems2@		; `string'
PUBLIC	??_C@_0BG@MHOCFLFP@Ex_SetCompareFunction@	; `string'
PUBLIC	??_C@_0BH@MNDJECPI@Ex_RegisterWindowClass@	; `string'
PUBLIC	??_C@_0O@HGOAHAOL@Ex_Initialise@		; `string'
PUBLIC	??_C@_0BF@CHBCJKNB@Ex_SetupDefaultCells@	; `string'
PUBLIC	??_C@_0BH@BJMGKDEJ@Ex_SendMessageToParent@	; `string'
PUBLIC	??_C@_0BO@JMHDGLFK@Ex_SendDisplayRequestToParent@ ; `string'
PUBLIC	??_C@_0BJ@CKKJCBFA@Ex_SendCacheHintToParent@	; `string'
PUBLIC	??_C@_0BG@GJJOJEMA@Ex_InvalidateCellRect@	; `string'
PUBLIC	??_C@_0BH@HGHNAIFF@Ex_InvalidateCellRect2@	; `string'
PUBLIC	??_C@_0BH@GPGGDJBE@Ex_InvalidateCellRect3@	; `string'
PUBLIC	??_C@_0O@OJPHJPOG@Ex_EraseBkgnd@		; `string'
PUBLIC	??_C@_0BE@HMEBIHKA@Ex_GetCellRangeRect@		; `string'
PUBLIC	??_C@_0L@HCKIFLIC@Ex_SetCell@			; `string'
PUBLIC	??_C@_0BA@KIIGBJKN@Ex_SetMouseMode@		; `string'
PUBLIC	??_C@_0BA@NMDINFOB@Ex_GetMouseMode@		; `string'
PUBLIC	??_C@_0BK@EGAFPHHK@Ex_MouseOverRowResizeArea@	; `string'
PUBLIC	??_C@_0BN@DBMIOGKB@Ex_MouseOverColumnResizeArea@ ; `string'
PUBLIC	??_C@_0BK@ECLDPOEH@Ex_GetTopleftNonFixedCell@	; `string'
PUBLIC	??_C@_0CE@IHAFBCPB@Ex_GetUnobstructedNonFixedCellR@ ; `string'
PUBLIC	??_C@_0BP@FKHJKLB@Ex_GetVisibleNonFixedCellRange@ ; `string'
PUBLIC	??_C@_0BE@LJEEPJAG@Ex_IsVisibleVScroll@		; `string'
PUBLIC	??_C@_0BE@NAHFNKBP@Ex_IsVisibleHScroll@		; `string'
PUBLIC	??_C@_0BG@PMKJNCHJ@Ex_ResetSelectedRange@	; `string'
PUBLIC	??_C@_0BD@FFPLEIML@Ex_ResetScrollBars@		; `string'
PUBLIC	??_C@_0BE@DCHPMGFI@Ex_EnableScrollBars@		; `string'
PUBLIC	??_C@_0BC@LMJBJEGG@Ex_GetScrollPos32@		; `string'
PUBLIC	??_C@_0BC@HCIPGOEK@Ex_SetScrollPos32@		; `string'
PUBLIC	??_C@_0BC@FNGHENME@Ex_SortTextItems3@		; `string'
PUBLIC	??_C@_0O@JNLPOHG@Ex_SortItems3@			; `string'
PUBLIC	??_C@_0BD@PGFHMGPG@Ex_GetPointClicked@		; `string'
PUBLIC	??_C@_0CB@BFOICKEE@Ex_ValidateAndModifyCellContent@ ; `string'
PUBLIC	??_C@_0BF@NICANNDI@Ex_PreSubclassWindow@	; `string'
PUBLIC	??_C@_0O@GGJGHEIK@Ex_WindowProc@		; `string'
PUBLIC	??_C@_0BD@PEEIENPP@Ex_CreateDragImage@		; `string'
PUBLIC	??_C@_0BG@KJLGFONO@Ex_OnFixedColumnClick@	; `string'
PUBLIC	??_C@_0BD@MDMMMDJH@Ex_OnFixedRowClick@		; `string'
PUBLIC	??_C@_0O@BKMPDBHF@Ex_OnEditCell@		; `string'
PUBLIC	??_C@_0BB@KNNNFNFB@Ex_OnEndEditCell@		; `string'
PUBLIC	??_C@_0BA@OHFPPEOE@Ex_ValidateEdit@		; `string'
PUBLIC	??_C@_0O@DPAODLNH@Ex_EndEditing@		; `string'
PUBLIC	??_C@_09GGAIGIMI@Ex_OnDraw@			; `string'
PUBLIC	??_C@_0O@CJNFGCCD@Ex_CreateCell@		; `string'
PUBLIC	??_C@_0P@KAMDKJMB@Ex_DestroyCell@		; `string'
PUBLIC	??_C@_0BC@GJLIJJPL@Ex_SelectAllCells@		; `string'
PUBLIC	??_C@_0BB@CBJBIHMM@Ex_SelectColumns@		; `string'
PUBLIC	??_C@_0O@OPFPOLPP@Ex_SelectRows@		; `string'
PUBLIC	??_C@_0P@DLKHGHBP@Ex_SelectCells@		; `string'
PUBLIC	??_C@_0P@NADNFEEI@Ex_OnSelecting@		; `string'
PUBLIC	??_C@_0L@LHMOODNH@Ex_OnPaint@			; `string'
PUBLIC	??_C@_0N@GMMOFGKF@Ex_OnHScroll@			; `string'
PUBLIC	??_C@_0N@FPPHFLM@Ex_OnVScroll@			; `string'
PUBLIC	??_C@_09FLFHMPIG@Ex_OnSize@			; `string'
PUBLIC	??_C@_0P@PLNMPOND@Ex_OnLButtonUp@		; `string'
PUBLIC	??_C@_0BB@PCKHDBM@Ex_OnLButtonDown@		; `string'
PUBLIC	??_C@_0P@GEIOBKAF@Ex_OnMouseMove@		; `string'
PUBLIC	??_C@_0L@MJECDFDA@Ex_OnTimer@			; `string'
PUBLIC	??_C@_0BA@BODHLALJ@Ex_OnGetDlgCode@		; `string'
PUBLIC	??_C@_0N@IHJLIDOG@Ex_OnKeyDown@			; `string'
PUBLIC	??_C@_0L@DHBECPKF@Ex_OnKeyUp@			; `string'
PUBLIC	??_C@_09JGPLPHGG@Ex_OnChar@			; `string'
PUBLIC	??_C@_0BD@BBEJDAHH@Ex_OnLButtonDblClk@		; `string'
PUBLIC	??_C@_0BA@IAGOHFI@Ex_OnEraseBkgnd@		; `string'
PUBLIC	??_C@_0BA@GDDLCHDJ@Ex_OnSysKeyDown@		; `string'
PUBLIC	??_C@_0BB@IHLBDHNK@Ex_OnContextMenu@		; `string'
PUBLIC	??_C@_0BJ@HFCLHCML@Ex_OnUpdateEditSelectAll@	; `string'
PUBLIC	??_C@_0P@IABCFNIO@Ex_OnSetCursor@		; `string'
PUBLIC	??_C@_0BB@OKADENPO@Ex_OnRButtonDown@		; `string'
PUBLIC	??_C@_0P@MCLLEPII@Ex_OnRButtonUp@		; `string'
PUBLIC	??_C@_0BE@DKNKJKBA@Ex_OnSysColorChange@		; `string'
PUBLIC	??_C@_0BE@FACNGBPD@Ex_OnCaptureChanged@		; `string'
PUBLIC	??_C@_0BE@LELLFLAI@Ex_OnUpdateEditCopy@		; `string'
PUBLIC	??_C@_0BD@OMOBBFMG@Ex_OnUpdateEditCut@		; `string'
PUBLIC	??_C@_0BF@DGPKFOGC@Ex_OnUpdateEditPaste@	; `string'
PUBLIC	??_C@_0BD@PCIBNAMK@Ex_OnSettingChange@		; `string'
PUBLIC	??_C@_0BA@OLIHFLKC@Ex_OnMouseWheel@		; `string'
PUBLIC	??_C@_0N@ENEBILOC@Ex_OnSetFont@			; `string'
PUBLIC	??_C@_0N@LFLALEDD@Ex_OnGetFont@			; `string'
PUBLIC	??_C@_0N@FDGOGOCK@Ex_OnImeChar@			; `string'
PUBLIC	??_C@_0BE@HFBOPFGB@Ex_OnEndInPlaceEdit@		; `string'
PUBLIC	??_C@_0BH@PMEHONMN@Ex_GetMouseScrollLines@	; `string'
PUBLIC	??_C@_0BG@HFPMNLJD@Ex_SetDefaultCellType@	; `string'
PUBLIC	??_C@_0BL@OADPEDKM@Ex_SetGridScrollBarVisible@	; `string'
PUBLIC	??_C@_0BD@DDNFLIJO@Ex_SetUseFocusRect@		; `string'
PUBLIC	??_C@_0BD@BMDMKIH@Ex_GetUseFocusRect@		; `string'
PUBLIC	??_C@_0BE@BKFECOID@Ex_SetDrawFixedLine@		; `string'
PUBLIC	??_C@_0M@DNKIBNMP@CExGridCtrl@			; `string'
PUBLIC	??_C@_0M@NNGINBBP@MFCGridCtrl@			; `string'
PUBLIC	??_R4CExGridCtrl@@6B@				; CExGridCtrl::`RTTI Complete Object Locator'
PUBLIC	??_R0?AVCExGridCtrl@@@8				; CExGridCtrl `RTTI Type Descriptor'
PUBLIC	??_R3CExGridCtrl@@8				; CExGridCtrl::`RTTI Class Hierarchy Descriptor'
PUBLIC	??_R2CExGridCtrl@@8				; CExGridCtrl::`RTTI Base Class Array'
PUBLIC	??_R1A@?0A@EA@CExGridCtrl@@8			; CExGridCtrl::`RTTI Base Class Descriptor at (0,-1,0,64)'
PUBLIC	??_R4CLoaderGridCtrl@@6B@			; CLoaderGridCtrl::`RTTI Complete Object Locator'
PUBLIC	??_R0?AVCLoaderGridCtrl@@@8			; CLoaderGridCtrl `RTTI Type Descriptor'
PUBLIC	??_R3CLoaderGridCtrl@@8				; CLoaderGridCtrl::`RTTI Class Hierarchy Descriptor'
PUBLIC	??_R2CLoaderGridCtrl@@8				; CLoaderGridCtrl::`RTTI Base Class Array'
PUBLIC	??_R1A@?0A@EA@CLoaderGridCtrl@@8		; CLoaderGridCtrl::`RTTI Base Class Descriptor at (0,-1,0,64)'
PUBLIC	??_R1A@?0A@EA@CExLoadLib@@8			; CExLoadLib::`RTTI Base Class Descriptor at (0,-1,0,64)'
PUBLIC	??_R0?AVCExLoadLib@@@8				; CExLoadLib `RTTI Type Descriptor'
PUBLIC	??_R3CExLoadLib@@8				; CExLoadLib::`RTTI Class Hierarchy Descriptor'
PUBLIC	??_R2CExLoadLib@@8				; CExLoadLib::`RTTI Base Class Array'
PUBLIC	??_R4CExLoadLib@@6B@				; CExLoadLib::`RTTI Complete Object Locator'
EXTRN	??2@YAPAXI@Z:PROC				; operator new
EXTRN	??3@YAXPAX@Z:PROC				; operator delete
EXTRN	??3@YAXPAXI@Z:PROC				; operator delete
EXTRN	?__global_delete@@YAXPAXI@Z:PROC		; __global_delete
EXTRN	___std_terminate:PROC
EXTRN	__imp__GetLastError@0:PROC
EXTRN	__imp__FreeLibrary@4:PROC
EXTRN	__imp__GetModuleFileNameA@12:PROC
EXTRN	__imp__GetProcAddress@8:PROC
EXTRN	__imp__LoadLibraryA@4:PROC
EXTRN	__imp__EnableWindow@8:PROC
EXTRN	__imp__GetSysColor@4:PROC
EXTRN	__imp____stdio_common_vsprintf:PROC
EXTRN	__imp_??0?$CStringT@DV?$StrTraitMFC_DLL@DV?$ChTraitsCRT@D@ATL@@@@@ATL@@QAE@XZ:PROC
EXTRN	__imp_??0?$CStringT@DV?$StrTraitMFC_DLL@DV?$ChTraitsCRT@D@ATL@@@@@ATL@@QAE@ABV01@@Z:PROC
EXTRN	__imp_??0?$CStringT@DV?$StrTraitMFC_DLL@DV?$ChTraitsCRT@D@ATL@@@@@ATL@@QAE@PBD@Z:PROC
EXTRN	__imp_??1?$CStringT@DV?$StrTraitMFC_DLL@DV?$ChTraitsCRT@D@ATL@@@@@ATL@@QAE@XZ:PROC
EXTRN	__imp_??4?$CStringT@DV?$StrTraitMFC_DLL@DV?$ChTraitsCRT@D@ATL@@@@@ATL@@QAEAAV01@ABV01@@Z:PROC
EXTRN	__imp_??4?$CStringT@DV?$StrTraitMFC_DLL@DV?$ChTraitsCRT@D@ATL@@@@@ATL@@QAEAAV01@PBD@Z:PROC
EXTRN	__imp_??Y?$CStringT@DV?$StrTraitMFC_DLL@DV?$ChTraitsCRT@D@ATL@@@@@ATL@@QAEAAV01@PBD@Z:PROC
EXTRN	__imp_?ReverseFind@?$CStringT@DV?$StrTraitMFC_DLL@DV?$ChTraitsCRT@D@ATL@@@@@ATL@@QBEHD@Z:PROC
EXTRN	__imp_?Left@?$CStringT@DV?$StrTraitMFC_DLL@DV?$ChTraitsCRT@D@ATL@@@@@ATL@@QBE?AV12@H@Z:PROC
EXTRN	?AfxGetStaticModuleState@@YGPAVAFX_MODULE_STATE@@XZ:PROC ; AfxGetStaticModuleState
EXTRN	??0AFX_MAINTAIN_STATE2@@QAE@PAVAFX_MODULE_STATE@@@Z:PROC ; AFX_MAINTAIN_STATE2::AFX_MAINTAIN_STATE2
EXTRN	??1AFX_MAINTAIN_STATE2@@QAE@XZ:PROC		; AFX_MAINTAIN_STATE2::~AFX_MAINTAIN_STATE2
EXTRN	?OnCmdMsg@CCmdTarget@@UAEHIHPAXPAUAFX_CMDHANDLERINFO@@@Z:PROC ; CCmdTarget::OnCmdMsg
EXTRN	?IsInvokeAllowed@CCmdTarget@@UAEHJ@Z:PROC	; CCmdTarget::IsInvokeAllowed
EXTRN	?GetDispatchIID@CCmdTarget@@UAEHPAU_GUID@@@Z:PROC ; CCmdTarget::GetDispatchIID
EXTRN	?GetTypeInfoCount@CCmdTarget@@UAEIXZ:PROC	; CCmdTarget::GetTypeInfoCount
EXTRN	?GetTypeLibCache@CCmdTarget@@UAEPAVCTypeLibCache@@XZ:PROC ; CCmdTarget::GetTypeLibCache
EXTRN	?GetTypeLib@CCmdTarget@@UAEJKPAPAUITypeLib@@@Z:PROC ; CCmdTarget::GetTypeLib
EXTRN	?GetCommandMap@CCmdTarget@@MBEPBUAFX_OLECMDMAP@@XZ:PROC ; CCmdTarget::GetCommandMap
EXTRN	?GetDispatchMap@CCmdTarget@@MBEPBUAFX_DISPMAP@@XZ:PROC ; CCmdTarget::GetDispatchMap
EXTRN	?GetConnectionMap@CCmdTarget@@MBEPBUAFX_CONNECTIONMAP@@XZ:PROC ; CCmdTarget::GetConnectionMap
EXTRN	?GetEventSinkMap@CCmdTarget@@MBEPBUAFX_EVENTSINKMAP@@XZ:PROC ; CCmdTarget::GetEventSinkMap
EXTRN	?OnCreateAggregates@CCmdTarget@@UAEHXZ:PROC	; CCmdTarget::OnCreateAggregates
EXTRN	?GetInterfaceHook@CCmdTarget@@UAEPAUIUnknown@@PBX@Z:PROC ; CCmdTarget::GetInterfaceHook
EXTRN	?GetExtraConnectionPoints@CCmdTarget@@MAEHPAVCPtrArray@@@Z:PROC ; CCmdTarget::GetExtraConnectionPoints
EXTRN	?GetConnectionHook@CCmdTarget@@MAEPAUIConnectionPoint@@ABU_GUID@@@Z:PROC ; CCmdTarget::GetConnectionHook
EXTRN	?GetThisClass@CWnd@@SGPAUCRuntimeClass@@XZ:PROC	; CWnd::GetThisClass
EXTRN	??0CWnd@@QAE@XZ:PROC				; CWnd::CWnd
EXTRN	?Create@CWnd@@UAEHPBD0KABUtagRECT@@PAV1@IPAUCCreateContext@@@Z:PROC ; CWnd::Create
EXTRN	?CreateEx@CWnd@@UAEHKPBD0KHHHHPAUHWND__@@PAUHMENU__@@PAX@Z:PROC ; CWnd::CreateEx
EXTRN	?CreateEx@CWnd@@UAEHKPBD0KABUtagRECT@@PAV1@IPAX@Z:PROC ; CWnd::CreateEx
EXTRN	?DestroyWindow@CWnd@@UAEHXZ:PROC		; CWnd::DestroyWindow
EXTRN	?PreCreateWindow@CWnd@@UAEHAAUtagCREATESTRUCTA@@@Z:PROC ; CWnd::PreCreateWindow
EXTRN	?CalcWindowRect@CWnd@@UAEXPAUtagRECT@@I@Z:PROC	; CWnd::CalcWindowRect
EXTRN	?GetMenu@CWnd@@UBEPAVCMenu@@XZ:PROC		; CWnd::GetMenu
EXTRN	?SetMenu@CWnd@@UAEHPAVCMenu@@@Z:PROC		; CWnd::SetMenu
EXTRN	?OnToolHitTest@CWnd@@UBEHVCPoint@@PAUtagTOOLINFOA@@@Z:PROC ; CWnd::OnToolHitTest
EXTRN	?GetScrollBarCtrl@CWnd@@UBEPAVCScrollBar@@H@Z:PROC ; CWnd::GetScrollBarCtrl
EXTRN	?WinHelpA@CWnd@@UAEXKI@Z:PROC			; CWnd::WinHelpA
EXTRN	?HtmlHelpA@CWnd@@UAEXKI@Z:PROC			; CWnd::HtmlHelpA
EXTRN	?WinHelpInternal@CWnd@@UAEXKI@Z:PROC		; CWnd::WinHelpInternal
EXTRN	?ContinueModal@CWnd@@UAEHXZ:PROC		; CWnd::ContinueModal
EXTRN	?EndModalLoop@CWnd@@UAEXH@Z:PROC		; CWnd::EndModalLoop
EXTRN	?OnDrawIconicThumbnailOrLivePreview@CWnd@@UAEXAAVCDC@@VCRect@@VCSize@@HAAH@Z:PROC ; CWnd::OnDrawIconicThumbnailOrLivePreview
EXTRN	?GetInterfaceMap@CWnd@@MBEPBUAFX_INTERFACEMAP@@XZ:PROC ; CWnd::GetInterfaceMap
EXTRN	?EnsureStdObj@CWnd@@UAEJXZ:PROC			; CWnd::EnsureStdObj
EXTRN	?get_accParent@CWnd@@UAEJPAPAUIDispatch@@@Z:PROC ; CWnd::get_accParent
EXTRN	?get_accChildCount@CWnd@@UAEJPAJ@Z:PROC		; CWnd::get_accChildCount
EXTRN	?get_accChild@CWnd@@UAEJUtagVARIANT@@PAPAUIDispatch@@@Z:PROC ; CWnd::get_accChild
EXTRN	?get_accName@CWnd@@UAEJUtagVARIANT@@PAPA_W@Z:PROC ; CWnd::get_accName
EXTRN	?get_accValue@CWnd@@UAEJUtagVARIANT@@PAPA_W@Z:PROC ; CWnd::get_accValue
EXTRN	?get_accDescription@CWnd@@UAEJUtagVARIANT@@PAPA_W@Z:PROC ; CWnd::get_accDescription
EXTRN	?get_accRole@CWnd@@UAEJUtagVARIANT@@PAU2@@Z:PROC ; CWnd::get_accRole
EXTRN	?get_accState@CWnd@@UAEJUtagVARIANT@@PAU2@@Z:PROC ; CWnd::get_accState
EXTRN	?get_accHelp@CWnd@@UAEJUtagVARIANT@@PAPA_W@Z:PROC ; CWnd::get_accHelp
EXTRN	?get_accHelpTopic@CWnd@@UAEJPAPA_WUtagVARIANT@@PAJ@Z:PROC ; CWnd::get_accHelpTopic
EXTRN	?get_accKeyboardShortcut@CWnd@@UAEJUtagVARIANT@@PAPA_W@Z:PROC ; CWnd::get_accKeyboardShortcut
EXTRN	?get_accFocus@CWnd@@UAEJPAUtagVARIANT@@@Z:PROC	; CWnd::get_accFocus
EXTRN	?get_accSelection@CWnd@@UAEJPAUtagVARIANT@@@Z:PROC ; CWnd::get_accSelection
EXTRN	?get_accDefaultAction@CWnd@@UAEJUtagVARIANT@@PAPA_W@Z:PROC ; CWnd::get_accDefaultAction
EXTRN	?accSelect@CWnd@@UAEJJUtagVARIANT@@@Z:PROC	; CWnd::accSelect
EXTRN	?accLocation@CWnd@@UAEJPAJ000UtagVARIANT@@@Z:PROC ; CWnd::accLocation
EXTRN	?accNavigate@CWnd@@UAEJJUtagVARIANT@@PAU2@@Z:PROC ; CWnd::accNavigate
EXTRN	?accHitTest@CWnd@@UAEJJJPAUtagVARIANT@@@Z:PROC	; CWnd::accHitTest
EXTRN	?accDoDefaultAction@CWnd@@UAEJUtagVARIANT@@@Z:PROC ; CWnd::accDoDefaultAction
EXTRN	?put_accName@CWnd@@UAEJUtagVARIANT@@PA_W@Z:PROC	; CWnd::put_accName
EXTRN	?put_accValue@CWnd@@UAEJUtagVARIANT@@PA_W@Z:PROC ; CWnd::put_accValue
EXTRN	?SetProxy@CWnd@@UAEJPAUIAccessibleProxy@@@Z:PROC ; CWnd::SetProxy
EXTRN	?CreateAccessibleProxy@CWnd@@UAEJIJPAJ@Z:PROC	; CWnd::CreateAccessibleProxy
EXTRN	?OnCommand@CWnd@@MAEHIJ@Z:PROC			; CWnd::OnCommand
EXTRN	?OnNotify@CWnd@@MAEHIJPAJ@Z:PROC		; CWnd::OnNotify
EXTRN	?GetSuperWndProcAddr@CWnd@@MAEPAP6GJPAUHWND__@@IIJ@ZXZ:PROC ; CWnd::GetSuperWndProcAddr
EXTRN	?PreTranslateMessage@CWnd@@UAEHPAUtagMSG@@@Z:PROC ; CWnd::PreTranslateMessage
EXTRN	?OnAmbientProperty@CWnd@@UAEHPAVCOleControlSite@@JPAUtagVARIANT@@@Z:PROC ; CWnd::OnAmbientProperty
EXTRN	?OnWndMsg@CWnd@@MAEHIIJPAJ@Z:PROC		; CWnd::OnWndMsg
EXTRN	?DefWindowProcA@CWnd@@MAEJIIJ@Z:PROC		; CWnd::DefWindowProcA
EXTRN	?PostNcDestroy@CWnd@@MAEXXZ:PROC		; CWnd::PostNcDestroy
EXTRN	?OnChildNotify@CWnd@@MAEHIIJPAJ@Z:PROC		; CWnd::OnChildNotify
EXTRN	?OnTouchInputs@CWnd@@MAEHIPAUtagTOUCHINPUT@@@Z:PROC ; CWnd::OnTouchInputs
EXTRN	?OnTouchInput@CWnd@@MAEHVCPoint@@HHPAUtagTOUCHINPUT@@@Z:PROC ; CWnd::OnTouchInput
EXTRN	?GetGestureStatus@CWnd@@MAEKVCPoint@@@Z:PROC	; CWnd::GetGestureStatus
EXTRN	?OnGestureZoom@CWnd@@MAEHVCPoint@@J@Z:PROC	; CWnd::OnGestureZoom
EXTRN	?OnGesturePan@CWnd@@MAEHVCPoint@@0@Z:PROC	; CWnd::OnGesturePan
EXTRN	?OnGestureRotate@CWnd@@MAEHVCPoint@@N@Z:PROC	; CWnd::OnGestureRotate
EXTRN	?OnGestureTwoFingerTap@CWnd@@MAEHVCPoint@@@Z:PROC ; CWnd::OnGestureTwoFingerTap
EXTRN	?OnGesturePressAndTap@CWnd@@MAEHVCPoint@@J@Z:PROC ; CWnd::OnGesturePressAndTap
EXTRN	?ResizeDynamicLayout@CWnd@@MAEXXZ:PROC		; CWnd::ResizeDynamicLayout
EXTRN	??1CWnd@@UAE@XZ:PROC				; CWnd::~CWnd
EXTRN	?CheckAutoCenter@CWnd@@UAEHXZ:PROC		; CWnd::CheckAutoCenter
EXTRN	?IsFrameWnd@CWnd@@UBEHXZ:PROC			; CWnd::IsFrameWnd
EXTRN	?OnFinalRelease@CWnd@@UAEXXZ:PROC		; CWnd::OnFinalRelease
EXTRN	?CreateControlContainer@CWnd@@MAEHPAPAVCOleControlContainer@@@Z:PROC ; CWnd::CreateControlContainer
EXTRN	?CreateControlSite@CWnd@@MAEHPAVCOleControlContainer@@PAPAVCOleControlSite@@IABU_GUID@@@Z:PROC ; CWnd::CreateControlSite
EXTRN	?SetOccDialogInfo@CWnd@@MAEHPAU_AFX_OCC_DIALOG_INFO@@@Z:PROC ; CWnd::SetOccDialogInfo
EXTRN	?GetOccDialogInfo@CWnd@@MAEPAU_AFX_OCC_DIALOG_INFO@@XZ:PROC ; CWnd::GetOccDialogInfo
EXTRN	?GetThisMessageMap@CWnd@@KGPBUAFX_MSGMAP@@XZ:PROC ; CWnd::GetThisMessageMap
EXTRN	?AfxMessageBox@@YGHPBDII@Z:PROC			; AfxMessageBox
EXTRN	?FlushClipboard@COleDataSource@@SGXXZ:PROC	; COleDataSource::FlushClipboard
EXTRN	?GetClipboardOwner@COleDataSource@@SGPAV1@XZ:PROC ; COleDataSource::GetClipboardOwner
EXTRN	??_ECExGridCtrl@@UAEPAXI@Z:PROC			; CExGridCtrl::`vector deleting destructor'
EXTRN	??_ECLoaderGridCtrl@@UAEPAXI@Z:PROC		; CLoaderGridCtrl::`vector deleting destructor'
EXTRN	@__security_check_cookie@4:PROC
EXTRN	___CxxFrameHandler3:PROC
EXTRN	_memset:PROC
EXTRN	??_7type_info@@6B@:QWORD			; type_info::`vftable'
EXTRN	___security_cookie:DWORD
;	COMDAT ?_OptionsStorage@?1??__local_stdio_printf_options@@9@4_KA
_BSS	SEGMENT
?_OptionsStorage@?1??__local_stdio_printf_options@@9@4_KA DQ 01H DUP (?) ; `__local_stdio_printf_options'::`2'::_OptionsStorage
_BSS	ENDS
;	COMDAT ??_R4CExLoadLib@@6B@
rdata$r	SEGMENT
??_R4CExLoadLib@@6B@ DD 00H				; CExLoadLib::`RTTI Complete Object Locator'
	DD	00H
	DD	00H
	DD	FLAT:??_R0?AVCExLoadLib@@@8
	DD	FLAT:??_R3CExLoadLib@@8
rdata$r	ENDS
;	COMDAT ??_R2CExLoadLib@@8
rdata$r	SEGMENT
??_R2CExLoadLib@@8 DD FLAT:??_R1A@?0A@EA@CExLoadLib@@8	; CExLoadLib::`RTTI Base Class Array'
rdata$r	ENDS
;	COMDAT ??_R3CExLoadLib@@8
rdata$r	SEGMENT
??_R3CExLoadLib@@8 DD 00H				; CExLoadLib::`RTTI Class Hierarchy Descriptor'
	DD	00H
	DD	01H
	DD	FLAT:??_R2CExLoadLib@@8
rdata$r	ENDS
;	COMDAT ??_R0?AVCExLoadLib@@@8
data$rs	SEGMENT
??_R0?AVCExLoadLib@@@8 DD FLAT:??_7type_info@@6B@	; CExLoadLib `RTTI Type Descriptor'
	DD	00H
	DB	'.?AVCExLoadLib@@', 00H
data$rs	ENDS
;	COMDAT ??_R1A@?0A@EA@CExLoadLib@@8
rdata$r	SEGMENT
??_R1A@?0A@EA@CExLoadLib@@8 DD FLAT:??_R0?AVCExLoadLib@@@8 ; CExLoadLib::`RTTI Base Class Descriptor at (0,-1,0,64)'
	DD	00H
	DD	00H
	DD	0ffffffffH
	DD	00H
	DD	040H
	DD	FLAT:??_R3CExLoadLib@@8
rdata$r	ENDS
;	COMDAT ??_R1A@?0A@EA@CLoaderGridCtrl@@8
rdata$r	SEGMENT
??_R1A@?0A@EA@CLoaderGridCtrl@@8 DD FLAT:??_R0?AVCLoaderGridCtrl@@@8 ; CLoaderGridCtrl::`RTTI Base Class Descriptor at (0,-1,0,64)'
	DD	01H
	DD	00H
	DD	0ffffffffH
	DD	00H
	DD	040H
	DD	FLAT:??_R3CLoaderGridCtrl@@8
rdata$r	ENDS
;	COMDAT ??_R2CLoaderGridCtrl@@8
rdata$r	SEGMENT
??_R2CLoaderGridCtrl@@8 DD FLAT:??_R1A@?0A@EA@CLoaderGridCtrl@@8 ; CLoaderGridCtrl::`RTTI Base Class Array'
	DD	FLAT:??_R1A@?0A@EA@CExLoadLib@@8
rdata$r	ENDS
;	COMDAT ??_R3CLoaderGridCtrl@@8
rdata$r	SEGMENT
??_R3CLoaderGridCtrl@@8 DD 00H				; CLoaderGridCtrl::`RTTI Class Hierarchy Descriptor'
	DD	00H
	DD	02H
	DD	FLAT:??_R2CLoaderGridCtrl@@8
rdata$r	ENDS
;	COMDAT ??_R0?AVCLoaderGridCtrl@@@8
data$rs	SEGMENT
??_R0?AVCLoaderGridCtrl@@@8 DD FLAT:??_7type_info@@6B@	; CLoaderGridCtrl `RTTI Type Descriptor'
	DD	00H
	DB	'.?AVCLoaderGridCtrl@@', 00H
data$rs	ENDS
;	COMDAT ??_R4CLoaderGridCtrl@@6B@
rdata$r	SEGMENT
??_R4CLoaderGridCtrl@@6B@ DD 00H			; CLoaderGridCtrl::`RTTI Complete Object Locator'
	DD	00H
	DD	00H
	DD	FLAT:??_R0?AVCLoaderGridCtrl@@@8
	DD	FLAT:??_R3CLoaderGridCtrl@@8
rdata$r	ENDS
;	COMDAT ??_R1A@?0A@EA@CExGridCtrl@@8
rdata$r	SEGMENT
??_R1A@?0A@EA@CExGridCtrl@@8 DD FLAT:??_R0?AVCExGridCtrl@@@8 ; CExGridCtrl::`RTTI Base Class Descriptor at (0,-1,0,64)'
	DD	03H
	DD	00H
	DD	0ffffffffH
	DD	00H
	DD	040H
	DD	FLAT:??_R3CExGridCtrl@@8
rdata$r	ENDS
;	COMDAT ??_R2CExGridCtrl@@8
rdata$r	SEGMENT
??_R2CExGridCtrl@@8 DD FLAT:??_R1A@?0A@EA@CExGridCtrl@@8 ; CExGridCtrl::`RTTI Base Class Array'
	DD	FLAT:??_R1A@?0A@EA@CWnd@@8
	DD	FLAT:??_R1A@?0A@EA@CCmdTarget@@8
	DD	FLAT:??_R1A@?0A@EA@CObject@@8
rdata$r	ENDS
;	COMDAT ??_R3CExGridCtrl@@8
rdata$r	SEGMENT
??_R3CExGridCtrl@@8 DD 00H				; CExGridCtrl::`RTTI Class Hierarchy Descriptor'
	DD	00H
	DD	04H
	DD	FLAT:??_R2CExGridCtrl@@8
rdata$r	ENDS
;	COMDAT ??_R0?AVCExGridCtrl@@@8
data$rs	SEGMENT
??_R0?AVCExGridCtrl@@@8 DD FLAT:??_7type_info@@6B@	; CExGridCtrl `RTTI Type Descriptor'
	DD	00H
	DB	'.?AVCExGridCtrl@@', 00H
data$rs	ENDS
;	COMDAT ??_R4CExGridCtrl@@6B@
rdata$r	SEGMENT
??_R4CExGridCtrl@@6B@ DD 00H				; CExGridCtrl::`RTTI Complete Object Locator'
	DD	00H
	DD	00H
	DD	FLAT:??_R0?AVCExGridCtrl@@@8
	DD	FLAT:??_R3CExGridCtrl@@8
rdata$r	ENDS
;	COMDAT ??_C@_0M@NNGINBBP@MFCGridCtrl@
CONST	SEGMENT
??_C@_0M@NNGINBBP@MFCGridCtrl@ DB 'MFCGridCtrl', 00H	; `string'
CONST	ENDS
;	COMDAT ?messageMap@?1??GetThisMessageMap@CExGridCtrl@@KGPBUAFX_MSGMAP@@XZ@4U3@B
CONST	SEGMENT
?messageMap@?1??GetThisMessageMap@CExGridCtrl@@KGPBUAFX_MSGMAP@@XZ@4U3@B DD FLAT:?GetThisMessageMap@CWnd@@KGPBUAFX_MSGMAP@@XZ ; `CExGridCtrl::GetThisMessageMap'::`2'::messageMap
	DD	FLAT:?_messageEntries@?1??GetThisMessageMap@CExGridCtrl@@KGPBUAFX_MSGMAP@@XZ@4QBUAFX_MSGMAP_ENTRY@@B
CONST	ENDS
;	COMDAT ?_messageEntries@?1??GetThisMessageMap@CExGridCtrl@@KGPBUAFX_MSGMAP@@XZ@4QBUAFX_MSGMAP_ENTRY@@B
CONST	SEGMENT
?_messageEntries@?1??GetThisMessageMap@CExGridCtrl@@KGPBUAFX_MSGMAP@@XZ@4QBUAFX_MSGMAP_ENTRY@@B DD 0fH ; `CExGridCtrl::GetThisMessageMap'::`2'::_messageEntries
	DD	00H
	DD	00H
	DD	00H
	DD	013H
	DD	FLAT:?OnPaint@CExGridCtrl@@IAEXXZ
	DD	0114H
	DD	00H
	DD	00H
	DD	00H
	DD	02bH
	DD	FLAT:?OnHScroll@CExGridCtrl@@IAEXIIPAVCScrollBar@@@Z
	DD	0115H
	DD	00H
	DD	00H
	DD	00H
	DD	02bH
	DD	FLAT:?OnVScroll@CExGridCtrl@@IAEXIIPAVCScrollBar@@@Z
	DD	05H
	DD	00H
	DD	00H
	DD	00H
	DD	01aH
	DD	FLAT:?OnSize@CExGridCtrl@@IAEXIHH@Z
	DD	0202H
	DD	00H
	DD	00H
	DD	00H
	DD	036H
	DD	FLAT:?OnLButtonUp@CExGridCtrl@@IAEXIVCPoint@@@Z
	DD	0201H
	DD	00H
	DD	00H
	DD	00H
	DD	036H
	DD	FLAT:?OnLButtonDown@CExGridCtrl@@IAEXIVCPoint@@@Z
	DD	0200H
	DD	00H
	DD	00H
	DD	00H
	DD	036H
	DD	FLAT:?OnMouseMove@CExGridCtrl@@IAEXIVCPoint@@@Z
	DD	0113H
	DD	00H
	DD	00H
	DD	00H
	DD	015H
	DD	FLAT:?OnTimer@CExGridCtrl@@IAEXI@Z
	DD	087H
	DD	00H
	DD	00H
	DD	00H
	DD	032H
	DD	FLAT:?OnGetDlgCode@CExGridCtrl@@IAEIXZ
	DD	0100H
	DD	00H
	DD	00H
	DD	00H
	DD	019H
	DD	FLAT:?OnKeyDown@CExGridCtrl@@IAEXIII@Z
	DD	0102H
	DD	00H
	DD	00H
	DD	00H
	DD	019H
	DD	FLAT:?OnChar@CExGridCtrl@@IAEXIII@Z
	DD	0203H
	DD	00H
	DD	00H
	DD	00H
	DD	036H
	DD	FLAT:?OnLButtonDblClk@CExGridCtrl@@IAEXIVCPoint@@@Z
	DD	014H
	DD	00H
	DD	00H
	DD	00H
	DD	01H
	DD	FLAT:?OnEraseBkgnd@CExGridCtrl@@IAEHPAVCDC@@@Z
	DD	0111H
	DD	0ffffffffH
	DD	0e12aH
	DD	0e12aH
	DD	042H
	DD	FLAT:?OnUpdateEditSelectAll@CExGridCtrl@@IAEXPAVCCmdUI@@@Z
	DD	0111H
	DD	00H
	DD	0e12aH
	DD	0e12aH
	DD	03aH
	DD	FLAT:??_9CExGridCtrl@@$BBJI@AE
	DD	0104H
	DD	00H
	DD	00H
	DD	00H
	DD	019H
	DD	FLAT:?OnSysKeyDown@CExGridCtrl@@IAEXIII@Z
	DD	07bH
	DD	00H
	DD	00H
	DD	00H
	DD	027H
	DD	FLAT:?OnContextMenu@CExGridCtrl@@IAEXPAVCWnd@@VCPoint@@@Z
	DD	020H
	DD	00H
	DD	00H
	DD	00H
	DD	05H
	DD	FLAT:?OnSetCursor@CExGridCtrl@@IAEHPAVCWnd@@II@Z
	DD	0205H
	DD	00H
	DD	00H
	DD	00H
	DD	036H
	DD	FLAT:?OnRButtonUp@CExGridCtrl@@IAEXIVCPoint@@@Z
	DD	015H
	DD	00H
	DD	00H
	DD	00H
	DD	013H
	DD	FLAT:?OnSysColorChange@CExGridCtrl@@IAEXXZ
	DD	0215H
	DD	00H
	DD	00H
	DD	00H
	DD	025H
	DD	FLAT:?OnCaptureChanged@CExGridCtrl@@IAEXPAVCWnd@@@Z
	DD	0111H
	DD	00H
	DD	0e122H
	DD	0e122H
	DD	03aH
	DD	FLAT:??_9CExGridCtrl@@$BBJA@AE
	DD	0111H
	DD	0ffffffffH
	DD	0e122H
	DD	0e122H
	DD	042H
	DD	FLAT:?OnUpdateEditCopy@CExGridCtrl@@IAEXPAVCCmdUI@@@Z
	DD	0111H
	DD	00H
	DD	0e123H
	DD	0e123H
	DD	03aH
	DD	FLAT:??_9CExGridCtrl@@$BBIM@AE
	DD	0111H
	DD	0ffffffffH
	DD	0e123H
	DD	0e123H
	DD	042H
	DD	FLAT:?OnUpdateEditCut@CExGridCtrl@@IAEXPAVCCmdUI@@@Z
	DD	0111H
	DD	00H
	DD	0e125H
	DD	0e125H
	DD	03aH
	DD	FLAT:??_9CExGridCtrl@@$BBJE@AE
	DD	0111H
	DD	0ffffffffH
	DD	0e125H
	DD	0e125H
	DD	042H
	DD	FLAT:?OnUpdateEditPaste@CExGridCtrl@@IAEXPAVCCmdUI@@@Z
	DD	020aH
	DD	00H
	DD	00H
	DD	00H
	DD	038H
	DD	FLAT:?OnMouseWheel@CExGridCtrl@@IAEHIFVCPoint@@@Z
	DD	030H
	DD	00H
	DD	00H
	DD	00H
	DD	0eH
	DD	FLAT:?OnSetFont@CExGridCtrl@@IAEJIJ@Z
	DD	031H
	DD	00H
	DD	00H
	DD	00H
	DD	0eH
	DD	FLAT:?OnGetFont@CExGridCtrl@@IAEJIJ@Z
	DD	0286H
	DD	00H
	DD	00H
	DD	00H
	DD	0eH
	DD	FLAT:?OnImeChar@CExGridCtrl@@IAEJIJ@Z
	DD	04eH
	DD	0ff96H
	DD	08H
	DD	08H
	DD	03eH
	DD	FLAT:?OnEndInPlaceEdit@CExGridCtrl@@IAEXPAUtagNMHDR@@PAJ@Z
	DD	00H
	DD	00H
	DD	00H
	DD	00H
	DD	00H
	DD	00H
CONST	ENDS
;	COMDAT ??_C@_0M@DNKIBNMP@CExGridCtrl@
CONST	SEGMENT
??_C@_0M@DNKIBNMP@CExGridCtrl@ DB 'CExGridCtrl', 00H	; `string'
CONST	ENDS
;	COMDAT ??_C@_0BE@BKFECOID@Ex_SetDrawFixedLine@
CONST	SEGMENT
??_C@_0BE@BKFECOID@Ex_SetDrawFixedLine@ DB 'Ex_SetDrawFixedLine', 00H ; `string'
CONST	ENDS
;	COMDAT ??_C@_0BD@BMDMKIH@Ex_GetUseFocusRect@
CONST	SEGMENT
??_C@_0BD@BMDMKIH@Ex_GetUseFocusRect@ DB 'Ex_GetUseFocusRect', 00H ; `string'
CONST	ENDS
;	COMDAT ??_C@_0BD@DDNFLIJO@Ex_SetUseFocusRect@
CONST	SEGMENT
??_C@_0BD@DDNFLIJO@Ex_SetUseFocusRect@ DB 'Ex_SetUseFocusRect', 00H ; `string'
CONST	ENDS
;	COMDAT ??_C@_0BL@OADPEDKM@Ex_SetGridScrollBarVisible@
CONST	SEGMENT
??_C@_0BL@OADPEDKM@Ex_SetGridScrollBarVisible@ DB 'Ex_SetGridScrollBarVis'
	DB	'ible', 00H					; `string'
CONST	ENDS
;	COMDAT ??_C@_0BG@HFPMNLJD@Ex_SetDefaultCellType@
CONST	SEGMENT
??_C@_0BG@HFPMNLJD@Ex_SetDefaultCellType@ DB 'Ex_SetDefaultCellType', 00H ; `string'
CONST	ENDS
;	COMDAT ??_C@_0BH@PMEHONMN@Ex_GetMouseScrollLines@
CONST	SEGMENT
??_C@_0BH@PMEHONMN@Ex_GetMouseScrollLines@ DB 'Ex_GetMouseScrollLines', 00H ; `string'
CONST	ENDS
;	COMDAT ??_C@_0BE@HFBOPFGB@Ex_OnEndInPlaceEdit@
CONST	SEGMENT
??_C@_0BE@HFBOPFGB@Ex_OnEndInPlaceEdit@ DB 'Ex_OnEndInPlaceEdit', 00H ; `string'
CONST	ENDS
;	COMDAT ??_C@_0N@FDGOGOCK@Ex_OnImeChar@
CONST	SEGMENT
??_C@_0N@FDGOGOCK@Ex_OnImeChar@ DB 'Ex_OnImeChar', 00H	; `string'
CONST	ENDS
;	COMDAT ??_C@_0N@LFLALEDD@Ex_OnGetFont@
CONST	SEGMENT
??_C@_0N@LFLALEDD@Ex_OnGetFont@ DB 'Ex_OnGetFont', 00H	; `string'
CONST	ENDS
;	COMDAT ??_C@_0N@ENEBILOC@Ex_OnSetFont@
CONST	SEGMENT
??_C@_0N@ENEBILOC@Ex_OnSetFont@ DB 'Ex_OnSetFont', 00H	; `string'
CONST	ENDS
;	COMDAT ??_C@_0BA@OLIHFLKC@Ex_OnMouseWheel@
CONST	SEGMENT
??_C@_0BA@OLIHFLKC@Ex_OnMouseWheel@ DB 'Ex_OnMouseWheel', 00H ; `string'
CONST	ENDS
;	COMDAT ??_C@_0BD@PCIBNAMK@Ex_OnSettingChange@
CONST	SEGMENT
??_C@_0BD@PCIBNAMK@Ex_OnSettingChange@ DB 'Ex_OnSettingChange', 00H ; `string'
CONST	ENDS
;	COMDAT ??_C@_0BF@DGPKFOGC@Ex_OnUpdateEditPaste@
CONST	SEGMENT
??_C@_0BF@DGPKFOGC@Ex_OnUpdateEditPaste@ DB 'Ex_OnUpdateEditPaste', 00H ; `string'
CONST	ENDS
;	COMDAT ??_C@_0BD@OMOBBFMG@Ex_OnUpdateEditCut@
CONST	SEGMENT
??_C@_0BD@OMOBBFMG@Ex_OnUpdateEditCut@ DB 'Ex_OnUpdateEditCut', 00H ; `string'
CONST	ENDS
;	COMDAT ??_C@_0BE@LELLFLAI@Ex_OnUpdateEditCopy@
CONST	SEGMENT
??_C@_0BE@LELLFLAI@Ex_OnUpdateEditCopy@ DB 'Ex_OnUpdateEditCopy', 00H ; `string'
CONST	ENDS
;	COMDAT ??_C@_0BE@FACNGBPD@Ex_OnCaptureChanged@
CONST	SEGMENT
??_C@_0BE@FACNGBPD@Ex_OnCaptureChanged@ DB 'Ex_OnCaptureChanged', 00H ; `string'
CONST	ENDS
;	COMDAT ??_C@_0BE@DKNKJKBA@Ex_OnSysColorChange@
CONST	SEGMENT
??_C@_0BE@DKNKJKBA@Ex_OnSysColorChange@ DB 'Ex_OnSysColorChange', 00H ; `string'
CONST	ENDS
;	COMDAT ??_C@_0P@MCLLEPII@Ex_OnRButtonUp@
CONST	SEGMENT
??_C@_0P@MCLLEPII@Ex_OnRButtonUp@ DB 'Ex_OnRButtonUp', 00H ; `string'
CONST	ENDS
;	COMDAT ??_C@_0BB@OKADENPO@Ex_OnRButtonDown@
CONST	SEGMENT
??_C@_0BB@OKADENPO@Ex_OnRButtonDown@ DB 'Ex_OnRButtonDown', 00H ; `string'
CONST	ENDS
;	COMDAT ??_C@_0P@IABCFNIO@Ex_OnSetCursor@
CONST	SEGMENT
??_C@_0P@IABCFNIO@Ex_OnSetCursor@ DB 'Ex_OnSetCursor', 00H ; `string'
CONST	ENDS
;	COMDAT ??_C@_0BJ@HFCLHCML@Ex_OnUpdateEditSelectAll@
CONST	SEGMENT
??_C@_0BJ@HFCLHCML@Ex_OnUpdateEditSelectAll@ DB 'Ex_OnUpdateEditSelectAll'
	DB	00H						; `string'
CONST	ENDS
;	COMDAT ??_C@_0BB@IHLBDHNK@Ex_OnContextMenu@
CONST	SEGMENT
??_C@_0BB@IHLBDHNK@Ex_OnContextMenu@ DB 'Ex_OnContextMenu', 00H ; `string'
CONST	ENDS
;	COMDAT ??_C@_0BA@GDDLCHDJ@Ex_OnSysKeyDown@
CONST	SEGMENT
??_C@_0BA@GDDLCHDJ@Ex_OnSysKeyDown@ DB 'Ex_OnSysKeyDown', 00H ; `string'
CONST	ENDS
;	COMDAT ??_C@_0BA@IAGOHFI@Ex_OnEraseBkgnd@
CONST	SEGMENT
??_C@_0BA@IAGOHFI@Ex_OnEraseBkgnd@ DB 'Ex_OnEraseBkgnd', 00H ; `string'
CONST	ENDS
;	COMDAT ??_C@_0BD@BBEJDAHH@Ex_OnLButtonDblClk@
CONST	SEGMENT
??_C@_0BD@BBEJDAHH@Ex_OnLButtonDblClk@ DB 'Ex_OnLButtonDblClk', 00H ; `string'
CONST	ENDS
;	COMDAT ??_C@_09JGPLPHGG@Ex_OnChar@
CONST	SEGMENT
??_C@_09JGPLPHGG@Ex_OnChar@ DB 'Ex_OnChar', 00H		; `string'
CONST	ENDS
;	COMDAT ??_C@_0L@DHBECPKF@Ex_OnKeyUp@
CONST	SEGMENT
??_C@_0L@DHBECPKF@Ex_OnKeyUp@ DB 'Ex_OnKeyUp', 00H	; `string'
CONST	ENDS
;	COMDAT ??_C@_0N@IHJLIDOG@Ex_OnKeyDown@
CONST	SEGMENT
??_C@_0N@IHJLIDOG@Ex_OnKeyDown@ DB 'Ex_OnKeyDown', 00H	; `string'
CONST	ENDS
;	COMDAT ??_C@_0BA@BODHLALJ@Ex_OnGetDlgCode@
CONST	SEGMENT
??_C@_0BA@BODHLALJ@Ex_OnGetDlgCode@ DB 'Ex_OnGetDlgCode', 00H ; `string'
CONST	ENDS
;	COMDAT ??_C@_0L@MJECDFDA@Ex_OnTimer@
CONST	SEGMENT
??_C@_0L@MJECDFDA@Ex_OnTimer@ DB 'Ex_OnTimer', 00H	; `string'
CONST	ENDS
;	COMDAT ??_C@_0P@GEIOBKAF@Ex_OnMouseMove@
CONST	SEGMENT
??_C@_0P@GEIOBKAF@Ex_OnMouseMove@ DB 'Ex_OnMouseMove', 00H ; `string'
CONST	ENDS
;	COMDAT ??_C@_0BB@PCKHDBM@Ex_OnLButtonDown@
CONST	SEGMENT
??_C@_0BB@PCKHDBM@Ex_OnLButtonDown@ DB 'Ex_OnLButtonDown', 00H ; `string'
CONST	ENDS
;	COMDAT ??_C@_0P@PLNMPOND@Ex_OnLButtonUp@
CONST	SEGMENT
??_C@_0P@PLNMPOND@Ex_OnLButtonUp@ DB 'Ex_OnLButtonUp', 00H ; `string'
CONST	ENDS
;	COMDAT ??_C@_09FLFHMPIG@Ex_OnSize@
CONST	SEGMENT
??_C@_09FLFHMPIG@Ex_OnSize@ DB 'Ex_OnSize', 00H		; `string'
CONST	ENDS
;	COMDAT ??_C@_0N@FPPHFLM@Ex_OnVScroll@
CONST	SEGMENT
??_C@_0N@FPPHFLM@Ex_OnVScroll@ DB 'Ex_OnVScroll', 00H	; `string'
CONST	ENDS
;	COMDAT ??_C@_0N@GMMOFGKF@Ex_OnHScroll@
CONST	SEGMENT
??_C@_0N@GMMOFGKF@Ex_OnHScroll@ DB 'Ex_OnHScroll', 00H	; `string'
CONST	ENDS
;	COMDAT ??_C@_0L@LHMOODNH@Ex_OnPaint@
CONST	SEGMENT
??_C@_0L@LHMOODNH@Ex_OnPaint@ DB 'Ex_OnPaint', 00H	; `string'
CONST	ENDS
;	COMDAT ??_C@_0P@NADNFEEI@Ex_OnSelecting@
CONST	SEGMENT
??_C@_0P@NADNFEEI@Ex_OnSelecting@ DB 'Ex_OnSelecting', 00H ; `string'
CONST	ENDS
;	COMDAT ??_C@_0P@DLKHGHBP@Ex_SelectCells@
CONST	SEGMENT
??_C@_0P@DLKHGHBP@Ex_SelectCells@ DB 'Ex_SelectCells', 00H ; `string'
CONST	ENDS
;	COMDAT ??_C@_0O@OPFPOLPP@Ex_SelectRows@
CONST	SEGMENT
??_C@_0O@OPFPOLPP@Ex_SelectRows@ DB 'Ex_SelectRows', 00H ; `string'
CONST	ENDS
;	COMDAT ??_C@_0BB@CBJBIHMM@Ex_SelectColumns@
CONST	SEGMENT
??_C@_0BB@CBJBIHMM@Ex_SelectColumns@ DB 'Ex_SelectColumns', 00H ; `string'
CONST	ENDS
;	COMDAT ??_C@_0BC@GJLIJJPL@Ex_SelectAllCells@
CONST	SEGMENT
??_C@_0BC@GJLIJJPL@Ex_SelectAllCells@ DB 'Ex_SelectAllCells', 00H ; `string'
CONST	ENDS
;	COMDAT ??_C@_0P@KAMDKJMB@Ex_DestroyCell@
CONST	SEGMENT
??_C@_0P@KAMDKJMB@Ex_DestroyCell@ DB 'Ex_DestroyCell', 00H ; `string'
CONST	ENDS
;	COMDAT ??_C@_0O@CJNFGCCD@Ex_CreateCell@
CONST	SEGMENT
??_C@_0O@CJNFGCCD@Ex_CreateCell@ DB 'Ex_CreateCell', 00H ; `string'
CONST	ENDS
;	COMDAT ??_C@_09GGAIGIMI@Ex_OnDraw@
CONST	SEGMENT
??_C@_09GGAIGIMI@Ex_OnDraw@ DB 'Ex_OnDraw', 00H		; `string'
CONST	ENDS
;	COMDAT ??_C@_0O@DPAODLNH@Ex_EndEditing@
CONST	SEGMENT
??_C@_0O@DPAODLNH@Ex_EndEditing@ DB 'Ex_EndEditing', 00H ; `string'
CONST	ENDS
;	COMDAT ??_C@_0BA@OHFPPEOE@Ex_ValidateEdit@
CONST	SEGMENT
??_C@_0BA@OHFPPEOE@Ex_ValidateEdit@ DB 'Ex_ValidateEdit', 00H ; `string'
CONST	ENDS
;	COMDAT ??_C@_0BB@KNNNFNFB@Ex_OnEndEditCell@
CONST	SEGMENT
??_C@_0BB@KNNNFNFB@Ex_OnEndEditCell@ DB 'Ex_OnEndEditCell', 00H ; `string'
CONST	ENDS
;	COMDAT ??_C@_0O@BKMPDBHF@Ex_OnEditCell@
CONST	SEGMENT
??_C@_0O@BKMPDBHF@Ex_OnEditCell@ DB 'Ex_OnEditCell', 00H ; `string'
CONST	ENDS
;	COMDAT ??_C@_0BD@MDMMMDJH@Ex_OnFixedRowClick@
CONST	SEGMENT
??_C@_0BD@MDMMMDJH@Ex_OnFixedRowClick@ DB 'Ex_OnFixedRowClick', 00H ; `string'
CONST	ENDS
;	COMDAT ??_C@_0BG@KJLGFONO@Ex_OnFixedColumnClick@
CONST	SEGMENT
??_C@_0BG@KJLGFONO@Ex_OnFixedColumnClick@ DB 'Ex_OnFixedColumnClick', 00H ; `string'
CONST	ENDS
;	COMDAT ??_C@_0BD@PEEIENPP@Ex_CreateDragImage@
CONST	SEGMENT
??_C@_0BD@PEEIENPP@Ex_CreateDragImage@ DB 'Ex_CreateDragImage', 00H ; `string'
CONST	ENDS
;	COMDAT ??_C@_0O@GGJGHEIK@Ex_WindowProc@
CONST	SEGMENT
??_C@_0O@GGJGHEIK@Ex_WindowProc@ DB 'Ex_WindowProc', 00H ; `string'
CONST	ENDS
;	COMDAT ??_C@_0BF@NICANNDI@Ex_PreSubclassWindow@
CONST	SEGMENT
??_C@_0BF@NICANNDI@Ex_PreSubclassWindow@ DB 'Ex_PreSubclassWindow', 00H ; `string'
CONST	ENDS
;	COMDAT ??_C@_0CB@BFOICKEE@Ex_ValidateAndModifyCellContent@
CONST	SEGMENT
??_C@_0CB@BFOICKEE@Ex_ValidateAndModifyCellContent@ DB 'Ex_ValidateAndMod'
	DB	'ifyCellContents', 00H			; `string'
CONST	ENDS
;	COMDAT ??_C@_0BD@PGFHMGPG@Ex_GetPointClicked@
CONST	SEGMENT
??_C@_0BD@PGFHMGPG@Ex_GetPointClicked@ DB 'Ex_GetPointClicked', 00H ; `string'
CONST	ENDS
;	COMDAT ??_C@_0O@JNLPOHG@Ex_SortItems3@
CONST	SEGMENT
??_C@_0O@JNLPOHG@Ex_SortItems3@ DB 'Ex_SortItems3', 00H	; `string'
CONST	ENDS
;	COMDAT ??_C@_0BC@FNGHENME@Ex_SortTextItems3@
CONST	SEGMENT
??_C@_0BC@FNGHENME@Ex_SortTextItems3@ DB 'Ex_SortTextItems3', 00H ; `string'
CONST	ENDS
;	COMDAT ??_C@_0BC@HCIPGOEK@Ex_SetScrollPos32@
CONST	SEGMENT
??_C@_0BC@HCIPGOEK@Ex_SetScrollPos32@ DB 'Ex_SetScrollPos32', 00H ; `string'
CONST	ENDS
;	COMDAT ??_C@_0BC@LMJBJEGG@Ex_GetScrollPos32@
CONST	SEGMENT
??_C@_0BC@LMJBJEGG@Ex_GetScrollPos32@ DB 'Ex_GetScrollPos32', 00H ; `string'
CONST	ENDS
;	COMDAT ??_C@_0BE@DCHPMGFI@Ex_EnableScrollBars@
CONST	SEGMENT
??_C@_0BE@DCHPMGFI@Ex_EnableScrollBars@ DB 'Ex_EnableScrollBars', 00H ; `string'
CONST	ENDS
;	COMDAT ??_C@_0BD@FFPLEIML@Ex_ResetScrollBars@
CONST	SEGMENT
??_C@_0BD@FFPLEIML@Ex_ResetScrollBars@ DB 'Ex_ResetScrollBars', 00H ; `string'
CONST	ENDS
;	COMDAT ??_C@_0BG@PMKJNCHJ@Ex_ResetSelectedRange@
CONST	SEGMENT
??_C@_0BG@PMKJNCHJ@Ex_ResetSelectedRange@ DB 'Ex_ResetSelectedRange', 00H ; `string'
CONST	ENDS
;	COMDAT ??_C@_0BE@NAHFNKBP@Ex_IsVisibleHScroll@
CONST	SEGMENT
??_C@_0BE@NAHFNKBP@Ex_IsVisibleHScroll@ DB 'Ex_IsVisibleHScroll', 00H ; `string'
CONST	ENDS
;	COMDAT ??_C@_0BE@LJEEPJAG@Ex_IsVisibleVScroll@
CONST	SEGMENT
??_C@_0BE@LJEEPJAG@Ex_IsVisibleVScroll@ DB 'Ex_IsVisibleVScroll', 00H ; `string'
CONST	ENDS
;	COMDAT ??_C@_0BP@FKHJKLB@Ex_GetVisibleNonFixedCellRange@
CONST	SEGMENT
??_C@_0BP@FKHJKLB@Ex_GetVisibleNonFixedCellRange@ DB 'Ex_GetVisibleNonFix'
	DB	'edCellRange', 00H				; `string'
CONST	ENDS
;	COMDAT ??_C@_0CE@IHAFBCPB@Ex_GetUnobstructedNonFixedCellR@
CONST	SEGMENT
??_C@_0CE@IHAFBCPB@Ex_GetUnobstructedNonFixedCellR@ DB 'Ex_GetUnobstructe'
	DB	'dNonFixedCellRange', 00H			; `string'
CONST	ENDS
;	COMDAT ??_C@_0BK@ECLDPOEH@Ex_GetTopleftNonFixedCell@
CONST	SEGMENT
??_C@_0BK@ECLDPOEH@Ex_GetTopleftNonFixedCell@ DB 'Ex_GetTopleftNonFixedCe'
	DB	'll', 00H					; `string'
CONST	ENDS
;	COMDAT ??_C@_0BN@DBMIOGKB@Ex_MouseOverColumnResizeArea@
CONST	SEGMENT
??_C@_0BN@DBMIOGKB@Ex_MouseOverColumnResizeArea@ DB 'Ex_MouseOverColumnRe'
	DB	'sizeArea', 00H				; `string'
CONST	ENDS
;	COMDAT ??_C@_0BK@EGAFPHHK@Ex_MouseOverRowResizeArea@
CONST	SEGMENT
??_C@_0BK@EGAFPHHK@Ex_MouseOverRowResizeArea@ DB 'Ex_MouseOverRowResizeAr'
	DB	'ea', 00H					; `string'
CONST	ENDS
;	COMDAT ??_C@_0BA@NMDINFOB@Ex_GetMouseMode@
CONST	SEGMENT
??_C@_0BA@NMDINFOB@Ex_GetMouseMode@ DB 'Ex_GetMouseMode', 00H ; `string'
CONST	ENDS
;	COMDAT ??_C@_0BA@KIIGBJKN@Ex_SetMouseMode@
CONST	SEGMENT
??_C@_0BA@KIIGBJKN@Ex_SetMouseMode@ DB 'Ex_SetMouseMode', 00H ; `string'
CONST	ENDS
;	COMDAT ??_C@_0L@HCKIFLIC@Ex_SetCell@
CONST	SEGMENT
??_C@_0L@HCKIFLIC@Ex_SetCell@ DB 'Ex_SetCell', 00H	; `string'
CONST	ENDS
;	COMDAT ??_C@_0BE@HMEBIHKA@Ex_GetCellRangeRect@
CONST	SEGMENT
??_C@_0BE@HMEBIHKA@Ex_GetCellRangeRect@ DB 'Ex_GetCellRangeRect', 00H ; `string'
CONST	ENDS
;	COMDAT ??_C@_0O@OJPHJPOG@Ex_EraseBkgnd@
CONST	SEGMENT
??_C@_0O@OJPHJPOG@Ex_EraseBkgnd@ DB 'Ex_EraseBkgnd', 00H ; `string'
CONST	ENDS
;	COMDAT ??_C@_0BH@GPGGDJBE@Ex_InvalidateCellRect3@
CONST	SEGMENT
??_C@_0BH@GPGGDJBE@Ex_InvalidateCellRect3@ DB 'Ex_InvalidateCellRect3', 00H ; `string'
CONST	ENDS
;	COMDAT ??_C@_0BH@HGHNAIFF@Ex_InvalidateCellRect2@
CONST	SEGMENT
??_C@_0BH@HGHNAIFF@Ex_InvalidateCellRect2@ DB 'Ex_InvalidateCellRect2', 00H ; `string'
CONST	ENDS
;	COMDAT ??_C@_0BG@GJJOJEMA@Ex_InvalidateCellRect@
CONST	SEGMENT
??_C@_0BG@GJJOJEMA@Ex_InvalidateCellRect@ DB 'Ex_InvalidateCellRect', 00H ; `string'
CONST	ENDS
;	COMDAT ??_C@_0BJ@CKKJCBFA@Ex_SendCacheHintToParent@
CONST	SEGMENT
??_C@_0BJ@CKKJCBFA@Ex_SendCacheHintToParent@ DB 'Ex_SendCacheHintToParent'
	DB	00H						; `string'
CONST	ENDS
;	COMDAT ??_C@_0BO@JMHDGLFK@Ex_SendDisplayRequestToParent@
CONST	SEGMENT
??_C@_0BO@JMHDGLFK@Ex_SendDisplayRequestToParent@ DB 'Ex_SendDisplayReque'
	DB	'stToParent', 00H				; `string'
CONST	ENDS
;	COMDAT ??_C@_0BH@BJMGKDEJ@Ex_SendMessageToParent@
CONST	SEGMENT
??_C@_0BH@BJMGKDEJ@Ex_SendMessageToParent@ DB 'Ex_SendMessageToParent', 00H ; `string'
CONST	ENDS
;	COMDAT ??_C@_0BF@CHBCJKNB@Ex_SetupDefaultCells@
CONST	SEGMENT
??_C@_0BF@CHBCJKNB@Ex_SetupDefaultCells@ DB 'Ex_SetupDefaultCells', 00H ; `string'
CONST	ENDS
;	COMDAT ??_C@_0O@HGOAHAOL@Ex_Initialise@
CONST	SEGMENT
??_C@_0O@HGOAHAOL@Ex_Initialise@ DB 'Ex_Initialise', 00H ; `string'
CONST	ENDS
;	COMDAT ??_C@_0BH@MNDJECPI@Ex_RegisterWindowClass@
CONST	SEGMENT
??_C@_0BH@MNDJECPI@Ex_RegisterWindowClass@ DB 'Ex_RegisterWindowClass', 00H ; `string'
CONST	ENDS
;	COMDAT ??_C@_0BG@MHOCFLFP@Ex_SetCompareFunction@
CONST	SEGMENT
??_C@_0BG@MHOCFLFP@Ex_SetCompareFunction@ DB 'Ex_SetCompareFunction', 00H ; `string'
CONST	ENDS
;	COMDAT ??_C@_0O@BAMAMPDH@Ex_SortItems2@
CONST	SEGMENT
??_C@_0O@BAMAMPDH@Ex_SortItems2@ DB 'Ex_SortItems2', 00H ; `string'
CONST	ENDS
;	COMDAT ??_C@_0BC@EEHMHMIF@Ex_SortTextItems2@
CONST	SEGMENT
??_C@_0BC@EEHMHMIF@Ex_SortTextItems2@ DB 'Ex_SortTextItems2', 00H ; `string'
CONST	ENDS
;	COMDAT ??_C@_0O@DLONJMPE@Ex_SortItems1@
CONST	SEGMENT
??_C@_0O@DLONJMPE@Ex_SortItems1@ DB 'Ex_SortItems1', 00H ; `string'
CONST	ENDS
;	COMDAT ??_C@_0P@FCNIIBDN@Ex_GetNextItem@
CONST	SEGMENT
??_C@_0P@FCNIIBDN@Ex_GetNextItem@ DB 'Ex_GetNextItem', 00H ; `string'
CONST	ENDS
;	COMDAT ??_C@_0BD@MIFCANKK@Ex_OnEditSelectAll@
CONST	SEGMENT
??_C@_0BD@MIFCANKK@Ex_OnEditSelectAll@ DB 'Ex_OnEditSelectAll', 00H ; `string'
CONST	ENDS
;	COMDAT ??_C@_0P@FCHCLGJE@Ex_OnEditPaste@
CONST	SEGMENT
??_C@_0P@FCHCLGJE@Ex_OnEditPaste@ DB 'Ex_OnEditPaste', 00H ; `string'
CONST	ENDS
;	COMDAT ??_C@_0O@FHPLGNBB@Ex_OnEditCopy@
CONST	SEGMENT
??_C@_0O@FHPLGNBB@Ex_OnEditCopy@ DB 'Ex_OnEditCopy', 00H ; `string'
CONST	ENDS
;	COMDAT ??_C@_0N@MPNMBOEO@Ex_OnEditCut@
CONST	SEGMENT
??_C@_0N@MPNMBOEO@Ex_OnEditCut@ DB 'Ex_OnEditCut', 00H	; `string'
CONST	ENDS
;	COMDAT ??_C@_09CDNHNDAF@Ex_OnDrop@
CONST	SEGMENT
??_C@_09CDNHNDAF@Ex_OnDrop@ DB 'Ex_OnDrop', 00H		; `string'
CONST	ENDS
;	COMDAT ??_C@_0P@JPLJFEON@Ex_OnDragLeave@
CONST	SEGMENT
??_C@_0P@JPLJFEON@Ex_OnDragLeave@ DB 'Ex_OnDragLeave', 00H ; `string'
CONST	ENDS
;	COMDAT ??_C@_0O@FNABDCOI@Ex_OnDragOver@
CONST	SEGMENT
??_C@_0O@FNABDCOI@Ex_OnDragOver@ DB 'Ex_OnDragOver', 00H ; `string'
CONST	ENDS
;	COMDAT ??_C@_0P@LDECAKCG@Ex_OnDragEnter@
CONST	SEGMENT
??_C@_0P@LDECAKCG@Ex_OnDragEnter@ DB 'Ex_OnDragEnter', 00H ; `string'
CONST	ENDS
;	COMDAT ??_C@_0P@BDGAPEEH@Ex_OnBeginDrag@
CONST	SEGMENT
??_C@_0P@BDGAPEEH@Ex_OnBeginDrag@ DB 'Ex_OnBeginDrag', 00H ; `string'
CONST	ENDS
;	COMDAT ??_C@_0BD@LEHFDCLN@Ex_PasteTextToGrid@
CONST	SEGMENT
??_C@_0BD@LEHFDCLN@Ex_PasteTextToGrid@ DB 'Ex_PasteTextToGrid', 00H ; `string'
CONST	ENDS
;	COMDAT ??_C@_0BE@CDOOMMLN@Ex_CopyTextFromGrid@
CONST	SEGMENT
??_C@_0BE@CDOOMMLN@Ex_CopyTextFromGrid@ DB 'Ex_CopyTextFromGrid', 00H ; `string'
CONST	ENDS
;	COMDAT ??_C@_0BD@HLADNECC@Ex_CutSelectedText@
CONST	SEGMENT
??_C@_0BD@HLADNECC@Ex_CutSelectedText@ DB 'Ex_CutSelectedText', 00H ; `string'
CONST	ENDS
;	COMDAT ??_C@_0M@FCAOJAFH@Ex_IsValid3@
CONST	SEGMENT
??_C@_0M@FCAOJAFH@Ex_IsValid3@ DB 'Ex_IsValid3', 00H	; `string'
CONST	ENDS
;	COMDAT ??_C@_0M@ELBFKBBG@Ex_IsValid2@
CONST	SEGMENT
??_C@_0M@ELBFKBBG@Ex_IsValid2@ DB 'Ex_IsValid2', 00H	; `string'
CONST	ENDS
;	COMDAT ??_C@_0L@NJKCAAKF@Ex_IsValid@
CONST	SEGMENT
??_C@_0L@NJKCAAKF@Ex_IsValid@ DB 'Ex_IsValid', 00H	; `string'
CONST	ENDS
;	COMDAT ??_C@_0BF@OJNPFOEO@Ex_SetSelectedRange2@
CONST	SEGMENT
??_C@_0BF@OJNPFOEO@Ex_SetSelectedRange2@ DB 'Ex_SetSelectedRange2', 00H ; `string'
CONST	ENDS
;	COMDAT ??_C@_0BE@HECMCKIG@Ex_SetSelectedRange@
CONST	SEGMENT
??_C@_0BE@HECMCKIG@Ex_SetSelectedRange@ DB 'Ex_SetSelectedRange', 00H ; `string'
CONST	ENDS
;	COMDAT ??_C@_0BI@CMMIKBMP@Ex_GetSelectedCellRange@
CONST	SEGMENT
??_C@_0BI@CMMIKBMP@Ex_GetSelectedCellRange@ DB 'Ex_GetSelectedCellRange', 00H ; `string'
CONST	ENDS
;	COMDAT ??_C@_0BA@CAJIFMH@Ex_GetCellRange@
CONST	SEGMENT
??_C@_0BA@CAJIFMH@Ex_GetCellRange@ DB 'Ex_GetCellRange', 00H ; `string'
CONST	ENDS
;	COMDAT ??_C@_07GPDNJFNI@Ex_Load@
CONST	SEGMENT
??_C@_07GPDNJFNI@Ex_Load@ DB 'Ex_Load', 00H		; `string'
CONST	ENDS
;	COMDAT ??_C@_07GNCAGGAM@Ex_Save@
CONST	SEGMENT
??_C@_07GNCAGGAM@Ex_Save@ DB 'Ex_Save', 00H		; `string'
CONST	ENDS
;	COMDAT ??_C@_0BA@OOCBNEIG@Ex_RedrawColumn@
CONST	SEGMENT
??_C@_0BA@OOCBNEIG@Ex_RedrawColumn@ DB 'Ex_RedrawColumn', 00H ; `string'
CONST	ENDS
;	COMDAT ??_C@_0N@NHMBPMNF@Ex_RedrawRow@
CONST	SEGMENT
??_C@_0N@NHMBPMNF@Ex_RedrawRow@ DB 'Ex_RedrawRow', 00H	; `string'
CONST	ENDS
;	COMDAT ??_C@_0P@OBNLCHJI@Ex_RedrawCell2@
CONST	SEGMENT
??_C@_0P@OBNLCHJI@Ex_RedrawCell2@ DB 'Ex_RedrawCell2', 00H ; `string'
CONST	ENDS
;	COMDAT ??_C@_0O@BNGINBML@Ex_RedrawCell@
CONST	SEGMENT
??_C@_0O@BNGINBML@Ex_RedrawCell@ DB 'Ex_RedrawCell', 00H ; `string'
CONST	ENDS
;	COMDAT ??_C@_0N@JNHILCCM@Ex_SetRedraw@
CONST	SEGMENT
??_C@_0N@JNHILCCM@Ex_SetRedraw@ DB 'Ex_SetRedraw', 00H	; `string'
CONST	ENDS
;	COMDAT ??_C@_0BD@IPBGFAKL@Ex_IsCellSelected2@
CONST	SEGMENT
??_C@_0BD@IPBGFAKL@Ex_IsCellSelected2@ DB 'Ex_IsCellSelected2', 00H ; `string'
CONST	ENDS
;	COMDAT ??_C@_0BC@LLBJAFFM@Ex_IsCellSelected@
CONST	SEGMENT
??_C@_0BC@LLBJAFFM@Ex_IsCellSelected@ DB 'Ex_IsCellSelected', 00H ; `string'
CONST	ENDS
;	COMDAT ??_C@_0BD@OFDGMKMN@Ex_IsCellEditable2@
CONST	SEGMENT
??_C@_0BD@OFDGMKMN@Ex_IsCellEditable2@ DB 'Ex_IsCellEditable2', 00H ; `string'
CONST	ENDS
;	COMDAT ??_C@_0BC@CLKDJBEN@Ex_IsCellEditable@
CONST	SEGMENT
??_C@_0BC@CLKDJBEN@Ex_IsCellEditable@ DB 'Ex_IsCellEditable', 00H ; `string'
CONST	ENDS
;	COMDAT ??_C@_0BC@EFJNFBC@Ex_IsCellVisible2@
CONST	SEGMENT
??_C@_0BC@EFJNFBC@Ex_IsCellVisible2@ DB 'Ex_IsCellVisible2', 00H ; `string'
CONST	ENDS
;	COMDAT ??_C@_0BB@EKCEFGAG@Ex_IsCellVisible@
CONST	SEGMENT
??_C@_0BB@EKCEFGAG@Ex_IsCellVisible@ DB 'Ex_IsCellVisible', 00H ; `string'
CONST	ENDS
;	COMDAT ??_C@_0BC@JLBAPEBF@Ex_EnsureVisible2@
CONST	SEGMENT
??_C@_0BC@JLBAPEBF@Ex_EnsureVisible2@ DB 'Ex_EnsureVisible2', 00H ; `string'
CONST	ENDS
;	COMDAT ??_C@_0BB@LMOBPEEA@Ex_EnsureVisible@
CONST	SEGMENT
??_C@_0BB@LMOBPEEA@Ex_EnsureVisible@ DB 'Ex_EnsureVisible', 00H ; `string'
CONST	ENDS
;	COMDAT ??_C@_0M@PFNAFFIL@Ex_AutoFill@
CONST	SEGMENT
??_C@_0M@PFNAFFIL@Ex_AutoFill@ DB 'Ex_AutoFill', 00H	; `string'
CONST	ENDS
;	COMDAT ??_C@_0L@BPELEIPD@Ex_Refresh@
CONST	SEGMENT
??_C@_0L@BPELEIPD@Ex_Refresh@ DB 'Ex_Refresh', 00H	; `string'
CONST	ENDS
;	COMDAT ??_C@_0P@PDCDCOEO@Ex_ExpandToFit@
CONST	SEGMENT
??_C@_0P@PDCDCOEO@Ex_ExpandToFit@ DB 'Ex_ExpandToFit', 00H ; `string'
CONST	ENDS
;	COMDAT ??_C@_0BD@PKDGNOBB@Ex_ExpandRowsToFit@
CONST	SEGMENT
??_C@_0BD@PKDGNOBB@Ex_ExpandRowsToFit@ DB 'Ex_ExpandRowsToFit', 00H ; `string'
CONST	ENDS
;	COMDAT ??_C@_0BE@EGEDCFD@Ex_ExpandLastColumn@
CONST	SEGMENT
??_C@_0BE@EGEDCFD@Ex_ExpandLastColumn@ DB 'Ex_ExpandLastColumn', 00H ; `string'
CONST	ENDS
;	COMDAT ??_C@_0BG@INCAPNJM@Ex_ExpandColumnsToFit@
CONST	SEGMENT
??_C@_0BG@INCAPNJM@Ex_ExpandColumnsToFit@ DB 'Ex_ExpandColumnsToFit', 00H ; `string'
CONST	ENDS
;	COMDAT ??_C@_0M@JELJCJPC@Ex_AutoSize@
CONST	SEGMENT
??_C@_0M@JELJCJPC@Ex_AutoSize@ DB 'Ex_AutoSize', 00H	; `string'
CONST	ENDS
;	COMDAT ??_C@_0BD@OHEINJMF@Ex_AutoSizeColumns@
CONST	SEGMENT
??_C@_0BD@OHEINJMF@Ex_AutoSizeColumns@ DB 'Ex_AutoSizeColumns', 00H ; `string'
CONST	ENDS
;	COMDAT ??_C@_0BA@KNKMMOPB@Ex_AutoSizeRows@
CONST	SEGMENT
??_C@_0BA@KNKMMOPB@Ex_AutoSizeRows@ DB 'Ex_AutoSizeRows', 00H ; `string'
CONST	ENDS
;	COMDAT ??_C@_0BC@DJPIOCII@Ex_AutoSizeColumn@
CONST	SEGMENT
??_C@_0BC@DJPIOCII@Ex_AutoSizeColumn@ DB 'Ex_AutoSizeColumn', 00H ; `string'
CONST	ENDS
;	COMDAT ??_C@_0P@CEKJHOM@Ex_AutoSizeRow@
CONST	SEGMENT
??_C@_0P@CEKJHOM@Ex_AutoSizeRow@ DB 'Ex_AutoSizeRow', 00H ; `string'
CONST	ENDS
;	COMDAT ??_C@_0O@FMEEJLNJ@Ex_ClearCells@
CONST	SEGMENT
??_C@_0O@FMEEJLNJ@Ex_ClearCells@ DB 'Ex_ClearCells', 00H ; `string'
CONST	ENDS
;	COMDAT ??_C@_0BC@HJKLIKNJ@Ex_DeleteAllItems@
CONST	SEGMENT
??_C@_0BC@HJKLIKNJ@Ex_DeleteAllItems@ DB 'Ex_DeleteAllItems', 00H ; `string'
CONST	ENDS
;	COMDAT ??_C@_0BG@MJGKPDPA@Ex_DeleteNonFixedRows@
CONST	SEGMENT
??_C@_0BG@MJGKPDPA@Ex_DeleteNonFixedRows@ DB 'Ex_DeleteNonFixedRows', 00H ; `string'
CONST	ENDS
;	COMDAT ??_C@_0N@MFNGODEF@Ex_DeleteRow@
CONST	SEGMENT
??_C@_0N@MFNGODEF@Ex_DeleteRow@ DB 'Ex_DeleteRow', 00H	; `string'
CONST	ENDS
;	COMDAT ??_C@_0BA@FNLLOHDN@Ex_DeleteColumn@
CONST	SEGMENT
??_C@_0BA@FNLLOHDN@Ex_DeleteColumn@ DB 'Ex_DeleteColumn', 00H ; `string'
CONST	ENDS
;	COMDAT ??_C@_0N@JMDPIIIA@Ex_InsertRow@
CONST	SEGMENT
??_C@_0N@JMDPIIIA@Ex_InsertRow@ DB 'Ex_InsertRow', 00H	; `string'
CONST	ENDS
;	COMDAT ??_C@_0BA@JFAAFLHP@Ex_InsertColumn@
CONST	SEGMENT
??_C@_0BA@JFAAFLHP@Ex_InsertColumn@ DB 'Ex_InsertColumn', 00H ; `string'
CONST	ENDS
;	COMDAT ??_C@_0P@GILDOILP@Ex_SetCellType@
CONST	SEGMENT
??_C@_0P@GILDOILP@Ex_SetCellType@ DB 'Ex_SetCellType', 00H ; `string'
CONST	ENDS
;	COMDAT ??_C@_0BB@GLGIIOMO@Ex_IsItemEditing@
CONST	SEGMENT
??_C@_0BB@GLGIIOMO@Ex_IsItemEditing@ DB 'Ex_IsItemEditing', 00H ; `string'
CONST	ENDS
;	COMDAT ??_C@_0P@DGGFHCKK@Ex_GetItemFont@
CONST	SEGMENT
??_C@_0P@DGGFHCKK@Ex_GetItemFont@ DB 'Ex_GetItemFont', 00H ; `string'
CONST	ENDS
;	COMDAT ??_C@_0P@DJHLKECJ@Ex_SetItemFont@
CONST	SEGMENT
??_C@_0P@DJHLKECJ@Ex_SetItemFont@ DB 'Ex_SetItemFont', 00H ; `string'
CONST	ENDS
;	COMDAT ??_C@_0BD@MGLJDCED@Ex_GetItemFgColour@
CONST	SEGMENT
??_C@_0BD@MGLJDCED@Ex_GetItemFgColour@ DB 'Ex_GetItemFgColour', 00H ; `string'
CONST	ENDS
;	COMDAT ??_C@_0BD@PEKPEAFK@Ex_SetItemFgColour@
CONST	SEGMENT
??_C@_0BD@PEKPEAFK@Ex_SetItemFgColour@ DB 'Ex_SetItemFgColour', 00H ; `string'
CONST	ENDS
;	COMDAT ??_C@_0BD@MMPKHGAA@Ex_GetItemBkColour@
CONST	SEGMENT
??_C@_0BD@MMPKHGAA@Ex_GetItemBkColour@ DB 'Ex_GetItemBkColour', 00H ; `string'
CONST	ENDS
;	COMDAT ??_C@_0BD@POOMAEBJ@Ex_SetItemBkColour@
CONST	SEGMENT
??_C@_0BD@POOMAEBJ@Ex_SetItemBkColour@ DB 'Ex_SetItemBkColour', 00H ; `string'
CONST	ENDS
;	COMDAT ??_C@_0BB@GAKEANGF@Ex_GetItemFormat@
CONST	SEGMENT
??_C@_0BB@GAKEANGF@Ex_GetItemFormat@ DB 'Ex_GetItemFormat', 00H ; `string'
CONST	ENDS
;	COMDAT ??_C@_0BB@BPLKLOBC@Ex_SetItemFormat@
CONST	SEGMENT
??_C@_0BB@BPLKLOBC@Ex_SetItemFormat@ DB 'Ex_SetItemFormat', 00H ; `string'
CONST	ENDS
;	COMDAT ??_C@_0BA@DCPHJFIL@Ex_GetItemState@
CONST	SEGMENT
??_C@_0BA@DCPHJFIL@Ex_GetItemState@ DB 'Ex_GetItemState', 00H ; `string'
CONST	ENDS
;	COMDAT ??_C@_0BA@EGEJFJMH@Ex_SetItemState@
CONST	SEGMENT
??_C@_0BA@EGEJFJMH@Ex_SetItemState@ DB 'Ex_SetItemState', 00H ; `string'
CONST	ENDS
;	COMDAT ??_C@_0BA@ODCKFMKM@Ex_GetItemImage@
CONST	SEGMENT
??_C@_0BA@ODCKFMKM@Ex_GetItemImage@ DB 'Ex_GetItemImage', 00H ; `string'
CONST	ENDS
;	COMDAT ??_C@_0BA@JHJEJAOA@Ex_SetItemImage@
CONST	SEGMENT
??_C@_0BA@JHJEJAOA@Ex_SetItemImage@ DB 'Ex_SetItemImage', 00H ; `string'
CONST	ENDS
;	COMDAT ??_C@_0P@IKHOJGEL@Ex_GetItemData@
CONST	SEGMENT
??_C@_0P@IKHOJGEL@Ex_GetItemData@ DB 'Ex_GetItemData', 00H ; `string'
CONST	ENDS
;	COMDAT ??_C@_0P@IFGAEAMI@Ex_SetItemData@
CONST	SEGMENT
??_C@_0P@IFGAEAMI@Ex_SetItemData@ DB 'Ex_SetItemData', 00H ; `string'
CONST	ENDS
;	COMDAT ??_C@_0BE@ODPJHLMD@Ex_SetItemTextFmtID@
CONST	SEGMENT
??_C@_0BE@ODPJHLMD@Ex_SetItemTextFmtID@ DB 'Ex_SetItemTextFmtID', 00H ; `string'
CONST	ENDS
;	COMDAT ??_C@_0BC@MAGCMHPB@Ex_SetItemTextFmt@
CONST	SEGMENT
??_C@_0BC@MAGCMHPB@Ex_SetItemTextFmt@ DB 'Ex_SetItemTextFmt', 00H ; `string'
CONST	ENDS
;	COMDAT ??_C@_0P@FLFDIJOO@Ex_GetItemText@
CONST	SEGMENT
??_C@_0P@FLFDIJOO@Ex_GetItemText@ DB 'Ex_GetItemText', 00H ; `string'
CONST	ENDS
;	COMDAT ??_C@_0P@FEENFPGN@Ex_SetItemText@
CONST	SEGMENT
??_C@_0P@FEENFPGN@Ex_SetItemText@ DB 'Ex_SetItemText', 00H ; `string'
CONST	ENDS
;	COMDAT ??_C@_0L@DOIGEGMG@Ex_GetItem@
CONST	SEGMENT
??_C@_0L@DOIGEGMG@Ex_GetItem@ DB 'Ex_GetItem', 00H	; `string'
CONST	ENDS
;	COMDAT ??_C@_0L@MGHHHJBH@Ex_SetItem@
CONST	SEGMENT
??_C@_0L@MGHHHJBH@Ex_SetItem@ DB 'Ex_SetItem', 00H	; `string'
CONST	ENDS
;	COMDAT ??_C@_0P@OIJIPHDB@Ex_IsCellFixed@
CONST	SEGMENT
??_C@_0P@OIJIPHDB@Ex_IsCellFixed@ DB 'Ex_IsCellFixed', 00H ; `string'
CONST	ENDS
;	COMDAT ??_C@_0P@NFIDMKBB@Ex_GetModified@
CONST	SEGMENT
??_C@_0P@NFIDMKBB@Ex_GetModified@ DB 'Ex_GetModified', 00H ; `string'
CONST	ENDS
;	COMDAT ??_C@_0P@NKJNBMJC@Ex_SetModified@
CONST	SEGMENT
??_C@_0P@NKJNBMJC@Ex_SetModified@ DB 'Ex_SetModified', 00H ; `string'
CONST	ENDS
;	COMDAT ??_C@_0L@IKFJGEFD@Ex_GetCell@
CONST	SEGMENT
??_C@_0L@IKFJGEFD@Ex_GetCell@ DB 'Ex_GetCell', 00H	; `string'
CONST	ENDS
;	COMDAT ??_C@_0BC@HHBBOGH@Ex_GetDefaultCell@
CONST	SEGMENT
??_C@_0BC@HHBBOGH@Ex_GetDefaultCell@ DB 'Ex_GetDefaultCell', 00H ; `string'
CONST	ENDS
;	COMDAT ??_C@_0BF@MDNOCHF@Ex_IsDefaultReadOnly@
CONST	SEGMENT
??_C@_0BF@MDNOCHF@Ex_IsDefaultReadOnly@ DB 'Ex_IsDefaultReadOnly', 00H ; `string'
CONST	ENDS
;	COMDAT ??_C@_0BG@GKHGKAPA@Ex_SetDefaultReadOnly@
CONST	SEGMENT
??_C@_0BG@GKHGKAPA@Ex_SetDefaultReadOnly@ DB 'Ex_SetDefaultReadOnly', 00H ; `string'
CONST	ENDS
;	COMDAT ??_C@_0O@CFJHIGGA@Ex_GetRowHide@
CONST	SEGMENT
??_C@_0O@CFJHIGGA@Ex_GetRowHide@ DB 'Ex_GetRowHide', 00H ; `string'
CONST	ENDS
;	COMDAT ??_C@_0BB@LLNAEOOL@Ex_EnableRowHide@
CONST	SEGMENT
??_C@_0BB@LLNAEOOL@Ex_EnableRowHide@ DB 'Ex_EnableRowHide', 00H ; `string'
CONST	ENDS
;	COMDAT ??_C@_0BB@GJLPNLHD@Ex_GetColumnHide@
CONST	SEGMENT
??_C@_0BB@GJLPNLHD@Ex_GetColumnHide@ DB 'Ex_GetColumnHide', 00H ; `string'
CONST	ENDS
;	COMDAT ??_C@_0BE@GPEEKGPJ@Ex_EnableColumnHide@
CONST	SEGMENT
??_C@_0BE@GPEEKGPJ@Ex_EnableColumnHide@ DB 'Ex_EnableColumnHide', 00H ; `string'
CONST	ENDS
;	COMDAT ??_C@_0BG@ICPIMIJM@Ex_GetHiddenRowUnhide@
CONST	SEGMENT
??_C@_0BG@ICPIMIJM@Ex_GetHiddenRowUnhide@ DB 'Ex_GetHiddenRowUnhide', 00H ; `string'
CONST	ENDS
;	COMDAT ??_C@_0BJ@PDACDFJ@Ex_EnableHiddenRowUnhide@
CONST	SEGMENT
??_C@_0BJ@PDACDFJ@Ex_EnableHiddenRowUnhide@ DB 'Ex_EnableHiddenRowUnhide', 00H ; `string'
CONST	ENDS
;	COMDAT ??_C@_0BG@GLEFAPDH@Ex_GetHiddenColUnhide@
CONST	SEGMENT
??_C@_0BG@GLEFAPDH@Ex_GetHiddenColUnhide@ DB 'Ex_GetHiddenColUnhide', 00H ; `string'
CONST	ENDS
;	COMDAT ??_C@_0BJ@OGINOEPC@Ex_EnableHiddenColUnhide@
CONST	SEGMENT
??_C@_0BJ@OGINOEPC@Ex_EnableHiddenColUnhide@ DB 'Ex_EnableHiddenColUnhide'
	DB	00H						; `string'
CONST	ENDS
;	COMDAT ??_C@_0BE@FPECENBE@Ex_GetAutoSizeStyle@
CONST	SEGMENT
??_C@_0BE@FPECENBE@Ex_GetAutoSizeStyle@ DB 'Ex_GetAutoSizeStyle', 00H ; `string'
CONST	ENDS
;	COMDAT ??_C@_0BE@DLBLPDKG@Ex_SetAutoSizeStyle@
CONST	SEGMENT
??_C@_0BE@DLBLPDKG@Ex_SetAutoSizeStyle@ DB 'Ex_SetAutoSizeStyle', 00H ; `string'
CONST	ENDS
;	COMDAT ??_C@_0BF@BOIDKDJA@Ex_GetFrameFocusCell@
CONST	SEGMENT
??_C@_0BF@BOIDKDJA@Ex_GetFrameFocusCell@ DB 'Ex_GetFrameFocusCell', 00H ; `string'
CONST	ENDS
;	COMDAT ??_C@_0BF@DLIICIIO@Ex_SetFrameFocusCell@
CONST	SEGMENT
??_C@_0BF@DLIICIIO@Ex_SetFrameFocusCell@ DB 'Ex_SetFrameFocusCell', 00H ; `string'
CONST	ENDS
;	COMDAT ??_C@_0BF@EJCAHFFG@Ex_GetTrackFocusCell@
CONST	SEGMENT
??_C@_0BF@EJCAHFFG@Ex_GetTrackFocusCell@ DB 'Ex_GetTrackFocusCell', 00H ; `string'
CONST	ENDS
;	COMDAT ??_C@_0BF@GMCLPOEI@Ex_SetTrackFocusCell@
CONST	SEGMENT
??_C@_0BF@GMCLPOEI@Ex_SetTrackFocusCell@ DB 'Ex_SetTrackFocusCell', 00H ; `string'
CONST	ENDS
;	COMDAT ??_C@_0BE@PEMCECPO@Ex_GetSortAscending@
CONST	SEGMENT
??_C@_0BE@PEMCECPO@Ex_GetSortAscending@ DB 'Ex_GetSortAscending', 00H ; `string'
CONST	ENDS
;	COMDAT ??_C@_0BE@JAJLPMEM@Ex_SetSortAscending@
CONST	SEGMENT
??_C@_0BE@JAJLPMEM@Ex_SetSortAscending@ DB 'Ex_SetSortAscending', 00H ; `string'
CONST	ENDS
;	COMDAT ??_C@_0BB@PJJEJEAG@Ex_GetSortColumn@
CONST	SEGMENT
??_C@_0BB@PJJEJEAG@Ex_GetSortColumn@ DB 'Ex_GetSortColumn', 00H ; `string'
CONST	ENDS
;	COMDAT ??_C@_0BB@IGIKCHHB@Ex_SetSortColumn@
CONST	SEGMENT
??_C@_0BB@IGIKCHHB@Ex_SetSortColumn@ DB 'Ex_SetSortColumn', 00H ; `string'
CONST	ENDS
;	COMDAT ??_C@_0BA@GGIJPOKE@Ex_GetTitleTips@
CONST	SEGMENT
??_C@_0BA@GGIJPOKE@Ex_GetTitleTips@ DB 'Ex_GetTitleTips', 00H ; `string'
CONST	ENDS
;	COMDAT ??_C@_0BD@CLEBGLOB@Ex_EnableTitleTips@
CONST	SEGMENT
??_C@_0BD@CLEBGLOB@Ex_EnableTitleTips@ DB 'Ex_EnableTitleTips', 00H ; `string'
CONST	ENDS
;	COMDAT ??_C@_0BG@KKBMCPHN@Ex_GetDoubleBuffering@
CONST	SEGMENT
??_C@_0BG@KKBMCPHN@Ex_GetDoubleBuffering@ DB 'Ex_GetDoubleBuffering', 00H ; `string'
CONST	ENDS
;	COMDAT ??_C@_0BG@FADGBJJF@Ex_SetDoubleBuffering@
CONST	SEGMENT
??_C@_0BG@FADGBJJF@Ex_SetDoubleBuffering@ DB 'Ex_SetDoubleBuffering', 00H ; `string'
CONST	ENDS
;	COMDAT ??_C@_0BD@PCJLONGH@Ex_GetHandleTabKey@
CONST	SEGMENT
??_C@_0BD@PCJLONGH@Ex_GetHandleTabKey@ DB 'Ex_GetHandleTabKey', 00H ; `string'
CONST	ENDS
;	COMDAT ??_C@_0BD@MAINJPHO@Ex_SetHandleTabKey@
CONST	SEGMENT
??_C@_0BD@MAINJPHO@Ex_SetHandleTabKey@ DB 'Ex_SetHandleTabKey', 00H ; `string'
CONST	ENDS
;	COMDAT ??_C@_0BB@CCDAJDAG@Ex_GetHeaderSort@
CONST	SEGMENT
??_C@_0BB@CCDAJDAG@Ex_GetHeaderSort@ DB 'Ex_GetHeaderSort', 00H ; `string'
CONST	ENDS
;	COMDAT ??_C@_0BB@FNCOCAHB@Ex_SetHeaderSort@
CONST	SEGMENT
??_C@_0BB@FNCOCAHB@Ex_SetHeaderSort@ DB 'Ex_SetHeaderSort', 00H ; `string'
CONST	ENDS
;	COMDAT ??_C@_0BD@HIIFMNGD@Ex_GetColumnResize@
CONST	SEGMENT
??_C@_0BD@HIIFMNGD@Ex_GetColumnResize@ DB 'Ex_GetColumnResize', 00H ; `string'
CONST	ENDS
;	COMDAT ??_C@_0BD@EKJDLPHK@Ex_SetColumnResize@
CONST	SEGMENT
??_C@_0BD@EKJDLPHK@Ex_SetColumnResize@ DB 'Ex_SetColumnResize', 00H ; `string'
CONST	ENDS
;	COMDAT ??_C@_0BA@MLAONJA@Ex_GetRowResize@
CONST	SEGMENT
??_C@_0BA@MLAONJA@Ex_GetRowResize@ DB 'Ex_GetRowResize', 00H ; `string'
CONST	ENDS
;	COMDAT ??_C@_0BA@HIAOCBNM@Ex_SetRowResize@
CONST	SEGMENT
??_C@_0BA@HIAOCBNM@Ex_SetRowResize@ DB 'Ex_SetRowResize', 00H ; `string'
CONST	ENDS
;	COMDAT ??_C@_0BC@BPGLLDNL@Ex_GetDragAndDrop@
CONST	SEGMENT
??_C@_0BC@BPGLLDNL@Ex_GetDragAndDrop@ DB 'Ex_GetDragAndDrop', 00H ; `string'
CONST	ENDS
;	COMDAT ??_C@_0BF@BCAACCJI@Ex_EnableDragAndDrop@
CONST	SEGMENT
??_C@_0BF@BCAACCJI@Ex_EnableDragAndDrop@ DB 'Ex_EnableDragAndDrop', 00H ; `string'
CONST	ENDS
;	COMDAT ??_C@_0BI@EPMKEKDA@Ex_GetFixedRowSelection@
CONST	SEGMENT
??_C@_0BI@EPMKEKDA@Ex_GetFixedRowSelection@ DB 'Ex_GetFixedRowSelection', 00H ; `string'
CONST	ENDS
;	COMDAT ??_C@_0BI@BGNHFMGH@Ex_SetFixedRowSelection@
CONST	SEGMENT
??_C@_0BI@BGNHFMGH@Ex_SetFixedRowSelection@ DB 'Ex_SetFixedRowSelection', 00H ; `string'
CONST	ENDS
;	COMDAT ??_C@_0BL@KEDCGMJN@Ex_GetFixedColumnSelection@
CONST	SEGMENT
??_C@_0BL@KEDCGMJN@Ex_GetFixedColumnSelection@ DB 'Ex_GetFixedColumnSelec'
	DB	'tion', 00H					; `string'
CONST	ENDS
;	COMDAT ??_C@_0BL@LCFPINPP@Ex_SetFixedColumnSelection@
CONST	SEGMENT
??_C@_0BL@LCFPINPP@Ex_SetFixedColumnSelection@ DB 'Ex_SetFixedColumnSelec'
	DB	'tion', 00H					; `string'
CONST	ENDS
;	COMDAT ??_C@_0BA@CEPMEDED@Ex_IsSelectable@
CONST	SEGMENT
??_C@_0BA@CEPMEDED@Ex_IsSelectable@ DB 'Ex_IsSelectable', 00H ; `string'
CONST	ENDS
;	COMDAT ??_C@_0BD@OKOBKIIJ@Ex_EnableSelection@
CONST	SEGMENT
??_C@_0BD@OKOBKIIJ@Ex_EnableSelection@ DB 'Ex_EnableSelection', 00H ; `string'
CONST	ENDS
;	COMDAT ??_C@_0BJ@EJOOMLIC@Ex_GetSingleColSelection@
CONST	SEGMENT
??_C@_0BJ@EJOOMLIC@Ex_GetSingleColSelection@ DB 'Ex_GetSingleColSelection'
	DB	00H						; `string'
CONST	ENDS
;	COMDAT ??_C@_0BJ@LMLIBCMD@Ex_SetSingleColSelection@
CONST	SEGMENT
??_C@_0BJ@LMLIBCMD@Ex_SetSingleColSelection@ DB 'Ex_SetSingleColSelection'
	DB	00H						; `string'
CONST	ENDS
;	COMDAT ??_C@_0BJ@KNKIPHFC@Ex_GetSingleRowSelection@
CONST	SEGMENT
??_C@_0BJ@KNKIPHFC@Ex_GetSingleRowSelection@ DB 'Ex_GetSingleRowSelection'
	DB	00H						; `string'
CONST	ENDS
;	COMDAT ??_C@_0BJ@FIPOCOBD@Ex_SetSingleRowSelection@
CONST	SEGMENT
??_C@_0BJ@FIPOCOBD@Ex_SetSingleRowSelection@ DB 'Ex_SetSingleRowSelection'
	DB	00H						; `string'
CONST	ENDS
;	COMDAT ??_C@_0P@JCAFHOGP@Ex_GetListMode@
CONST	SEGMENT
??_C@_0P@JCAFHOGP@Ex_GetListMode@ DB 'Ex_GetListMode', 00H ; `string'
CONST	ENDS
;	COMDAT ??_C@_0P@JNBLKIOM@Ex_SetListMode@
CONST	SEGMENT
??_C@_0P@JNBLKIOM@Ex_SetListMode@ DB 'Ex_SetListMode', 00H ; `string'
CONST	ENDS
;	COMDAT ??_C@_0O@NHDOAOPK@Ex_IsEditable@
CONST	SEGMENT
??_C@_0O@NHDOAOPK@Ex_IsEditable@ DB 'Ex_IsEditable', 00H ; `string'
CONST	ENDS
;	COMDAT ??_C@_0P@JBFLIDIG@Ex_SetEditable@
CONST	SEGMENT
??_C@_0P@JBFLIDIG@Ex_SetEditable@ DB 'Ex_SetEditable', 00H ; `string'
CONST	ENDS
;	COMDAT ??_C@_0BA@KOPMADJF@Ex_GetGridLines@
CONST	SEGMENT
??_C@_0BA@KOPMADJF@Ex_GetGridLines@ DB 'Ex_GetGridLines', 00H ; `string'
CONST	ENDS
;	COMDAT ??_C@_0BA@NKECMPNJ@Ex_SetGridLines@
CONST	SEGMENT
??_C@_0BA@NKECMPNJ@Ex_SetGridLines@ DB 'Ex_SetGridLines', 00H ; `string'
CONST	ENDS
;	COMDAT ??_C@_0BA@MCPODKJI@Ex_GetImageList@
CONST	SEGMENT
??_C@_0BA@MCPODKJI@Ex_GetImageList@ DB 'Ex_GetImageList', 00H ; `string'
CONST	ENDS
;	COMDAT ??_C@_0BA@LGEAPGNE@Ex_SetImageList@
CONST	SEGMENT
??_C@_0BA@LGEAPGNE@Ex_SetImageList@ DB 'Ex_SetImageList', 00H ; `string'
CONST	ENDS
;	COMDAT ??_C@_0BD@EGPDNFEP@Ex_GetCallbackFunc@
CONST	SEGMENT
??_C@_0BD@EGPDNFEP@Ex_GetCallbackFunc@ DB 'Ex_GetCallbackFunc', 00H ; `string'
CONST	ENDS
;	COMDAT ??_C@_0BD@HEOFKHFG@Ex_SetCallbackFunc@
CONST	SEGMENT
??_C@_0BD@HEOFKHFG@Ex_SetCallbackFunc@ DB 'Ex_SetCallbackFunc', 00H ; `string'
CONST	ENDS
;	COMDAT ??_C@_0BC@KEFEIMKN@Ex_GetVirtualMode@
CONST	SEGMENT
??_C@_0BC@KEFEIMKN@Ex_GetVirtualMode@ DB 'Ex_GetVirtualMode', 00H ; `string'
CONST	ENDS
;	COMDAT ??_C@_0BC@GKEKHGIB@Ex_SetVirtualMode@
CONST	SEGMENT
??_C@_0BC@GKEKHGIB@Ex_SetVirtualMode@ DB 'Ex_SetVirtualMode', 00H ; `string'
CONST	ENDS
;	COMDAT ??_C@_0BA@CHAPHGPC@Ex_GetFocusCell@
CONST	SEGMENT
??_C@_0BA@CHAPHGPC@Ex_GetFocusCell@ DB 'Ex_GetFocusCell', 00H ; `string'
CONST	ENDS
;	COMDAT ??_C@_0BB@MBPKHLEA@Ex_SetFocusCell2@
CONST	SEGMENT
??_C@_0BB@MBPKHLEA@Ex_SetFocusCell2@ DB 'Ex_SetFocusCell2', 00H ; `string'
CONST	ENDS
;	COMDAT ??_C@_0BB@OKNHCIID@Ex_SetFocusCell1@
CONST	SEGMENT
??_C@_0BB@OKNHCIID@Ex_SetFocusCell1@ DB 'Ex_SetFocusCell1', 00H ; `string'
CONST	ENDS
;	COMDAT ??_C@_0BE@LMNPDDGK@Ex_GetSelectedCount@
CONST	SEGMENT
??_C@_0BE@LMNPDDGK@Ex_GetSelectedCount@ DB 'Ex_GetSelectedCount', 00H ; `string'
CONST	ENDS
;	COMDAT ??_C@_0BD@HFIMCCMN@Ex_SetDefCellWidth@
CONST	SEGMENT
??_C@_0BD@HFIMCCMN@Ex_SetDefCellWidth@ DB 'Ex_SetDefCellWidth', 00H ; `string'
CONST	ENDS
;	COMDAT ??_C@_0BD@EHJKFANE@Ex_GetDefCellWidth@
CONST	SEGMENT
??_C@_0BD@EHJKFANE@Ex_GetDefCellWidth@ DB 'Ex_GetDefCellWidth', 00H ; `string'
CONST	ENDS
;	COMDAT ??_C@_0BE@PCJLJOEB@Ex_SetDefCellHeight@
CONST	SEGMENT
??_C@_0BE@PCJLJOEB@Ex_SetDefCellHeight@ DB 'Ex_SetDefCellHeight', 00H ; `string'
CONST	ENDS
;	COMDAT ??_C@_0BE@JGMCCAPD@Ex_GetDefCellHeight@
CONST	SEGMENT
??_C@_0BE@JGMCCAPD@Ex_GetDefCellHeight@ DB 'Ex_GetDefCellHeight', 00H ; `string'
CONST	ENDS
;	COMDAT ??_C@_0BE@PJLEHLDN@Ex_GetDefCellMargin@
CONST	SEGMENT
??_C@_0BE@PJLEHLDN@Ex_GetDefCellMargin@ DB 'Ex_GetDefCellMargin', 00H ; `string'
CONST	ENDS
;	COMDAT ??_C@_0BE@JNONMFIP@Ex_SetDefCellMargin@
CONST	SEGMENT
??_C@_0BE@JNONMFIP@Ex_SetDefCellMargin@ DB 'Ex_SetDefCellMargin', 00H ; `string'
CONST	ENDS
;	COMDAT ??_C@_0O@HPGBLOLC@Ex_GetBkColor@
CONST	SEGMENT
??_C@_0O@HPGBLOLC@Ex_GetBkColor@ DB 'Ex_GetBkColor', 00H ; `string'
CONST	ENDS
;	COMDAT ??_C@_0O@GBEOAJPL@Ex_SetBkColor@
CONST	SEGMENT
??_C@_0O@GBEOAJPL@Ex_SetBkColor@ DB 'Ex_SetBkColor', 00H ; `string'
CONST	ENDS
;	COMDAT ??_C@_0BA@GOGPDIPM@Ex_GetGridColor@
CONST	SEGMENT
??_C@_0BA@GOGPDIPM@Ex_GetGridColor@ DB 'Ex_GetGridColor', 00H ; `string'
CONST	ENDS
;	COMDAT ??_C@_0BA@BKNBPELA@Ex_SetGridColor@
CONST	SEGMENT
??_C@_0BA@BKNBPELA@Ex_SetGridColor@ DB 'Ex_SetGridColor', 00H ; `string'
CONST	ENDS
;	COMDAT ??_C@_0BD@NAMCEFGF@Ex_GetFixedBkColor@
CONST	SEGMENT
??_C@_0BD@NAMCEFGF@Ex_GetFixedBkColor@ DB 'Ex_GetFixedBkColor', 00H ; `string'
CONST	ENDS
;	COMDAT ??_C@_0BD@OCNEDHHM@Ex_SetFixedBkColor@
CONST	SEGMENT
??_C@_0BD@OCNEDHHM@Ex_SetFixedBkColor@ DB 'Ex_SetFixedBkColor', 00H ; `string'
CONST	ENDS
;	COMDAT ??_C@_0BF@FJIOFHDL@Ex_GetFixedTextColor@
CONST	SEGMENT
??_C@_0BF@FJIOFHDL@Ex_GetFixedTextColor@ DB 'Ex_GetFixedTextColor', 00H ; `string'
CONST	ENDS
;	COMDAT ??_C@_0BF@HMIFNMCF@Ex_SetFixedTextColor@
CONST	SEGMENT
??_C@_0BF@HMIFNMCF@Ex_SetFixedTextColor@ DB 'Ex_SetFixedTextColor', 00H ; `string'
CONST	ENDS
;	COMDAT ??_C@_0BC@CILHBKAI@Ex_GetTextBkColor@
CONST	SEGMENT
??_C@_0BC@CILHBKAI@Ex_GetTextBkColor@ DB 'Ex_GetTextBkColor', 00H ; `string'
CONST	ENDS
;	COMDAT ??_C@_0BC@OGKJOACE@Ex_SetTextBkColor@
CONST	SEGMENT
??_C@_0BC@OGKJOACE@Ex_SetTextBkColor@ DB 'Ex_SetTextBkColor', 00H ; `string'
CONST	ENDS
;	COMDAT ??_C@_0BA@LNJIIANE@Ex_GetTextColor@
CONST	SEGMENT
??_C@_0BA@LNJIIANE@Ex_GetTextColor@ DB 'Ex_GetTextColor', 00H ; `string'
CONST	ENDS
;	COMDAT ??_C@_0BA@MJCGEMJI@Ex_SetTextColor@
CONST	SEGMENT
??_C@_0BA@MJCGEMJI@Ex_SetTextColor@ DB 'Ex_SetTextColor', 00H ; `string'
CONST	ENDS
;	COMDAT ??_C@_0CB@FPKHIOMN@Ex_GetFixedRowSelectionHighligh@
CONST	SEGMENT
??_C@_0CB@FPKHIOMN@Ex_GetFixedRowSelectionHighligh@ DB 'Ex_GetFixedRowSel'
	DB	'ectionHighlight', 00H			; `string'
CONST	ENDS
;	COMDAT ??_C@_0CB@NOMIDOOP@Ex_SetFixedRowSelectionHighligh@
CONST	SEGMENT
??_C@_0CB@NOMIDOOP@Ex_SetFixedRowSelectionHighligh@ DB 'Ex_SetFixedRowSel'
	DB	'ectionHighlight', 00H			; `string'
CONST	ENDS
;	COMDAT ??_C@_0BH@JMEFCNCM@Ex_GetUseHighlightText@
CONST	SEGMENT
??_C@_0BH@JMEFCNCM@Ex_GetUseHighlightText@ DB 'Ex_GetUseHighlightText', 00H ; `string'
CONST	ENDS
;	COMDAT ??_C@_0BH@DCGOGNFA@Ex_SetUseHighlightText@
CONST	SEGMENT
??_C@_0BH@DCGOGNFA@Ex_SetUseHighlightText@ DB 'Ex_SetUseHighlightText', 00H ; `string'
CONST	ENDS
;	COMDAT ??_C@_0BJ@DMCJEJBE@Ex_GetHighlightTextColor@
CONST	SEGMENT
??_C@_0BJ@DMCJEJBE@Ex_GetHighlightTextColor@ DB 'Ex_GetHighlightTextColor'
	DB	00H						; `string'
CONST	ENDS
;	COMDAT ??_C@_0BF@MMKGMMCP@Ex_GetHighlightColor@
CONST	SEGMENT
??_C@_0BF@MMKGMMCP@Ex_GetHighlightColor@ DB 'Ex_GetHighlightColor', 00H ; `string'
CONST	ENDS
;	COMDAT ??_C@_0BJ@MJHPJAFF@Ex_SetHighlightTextColor@
CONST	SEGMENT
??_C@_0BJ@MJHPJAFF@Ex_SetHighlightTextColor@ DB 'Ex_SetHighlightTextColor'
	DB	00H						; `string'
CONST	ENDS
;	COMDAT ??_C@_0BF@OJKNEHDB@Ex_SetHighlightColor@
CONST	SEGMENT
??_C@_0BF@OJKNEHDB@Ex_SetHighlightColor@ DB 'Ex_SetHighlightColor', 00H ; `string'
CONST	ENDS
;	COMDAT ??_C@_0BO@CMGJCOCF@Ex_GetFixedGridLineColor_Dark@
CONST	SEGMENT
??_C@_0BO@CMGJCOCF@Ex_GetFixedGridLineColor_Dark@ DB 'Ex_GetFixedGridLine'
	DB	'Color_Dark', 00H				; `string'
CONST	ENDS
;	COMDAT ??_C@_0BP@LJNJNBMD@Ex_GetFixedGridLineColor_Light@
CONST	SEGMENT
??_C@_0BP@LJNJNBMD@Ex_GetFixedGridLineColor_Light@ DB 'Ex_GetFixedGridLin'
	DB	'eColor_Light', 00H				; `string'
CONST	ENDS
;	COMDAT ??_C@_0BO@BDFMOODF@Ex_SetFixedGridLineColor_Dark@
CONST	SEGMENT
??_C@_0BO@BDFMOODF@Ex_SetFixedGridLineColor_Dark@ DB 'Ex_SetFixedGridLine'
	DB	'Color_Dark', 00H				; `string'
CONST	ENDS
;	COMDAT ??_C@_0BP@KEFBPEGH@Ex_SetFixedGridLineColor_Light@
CONST	SEGMENT
??_C@_0BP@KEFBPEGH@Ex_SetFixedGridLineColor_Light@ DB 'Ex_SetFixedGridLin'
	DB	'eColor_Light', 00H				; `string'
CONST	ENDS
;	COMDAT ??_C@_0BG@LNPJOMKK@Ex_GetTitleTipTextClr@
CONST	SEGMENT
??_C@_0BG@LNPJOMKK@Ex_GetTitleTipTextClr@ DB 'Ex_GetTitleTipTextClr', 00H ; `string'
CONST	ENDS
;	COMDAT ??_C@_0BG@EHNDNKEC@Ex_SetTitleTipTextClr@
CONST	SEGMENT
??_C@_0BG@EHNDNKEC@Ex_SetTitleTipTextClr@ DB 'Ex_SetTitleTipTextClr', 00H ; `string'
CONST	ENDS
;	COMDAT ??_C@_0BG@HIMDACBO@Ex_GetTitleTipBackClr@
CONST	SEGMENT
??_C@_0BG@HIMDACBO@Ex_GetTitleTipBackClr@ DB 'Ex_GetTitleTipBackClr', 00H ; `string'
CONST	ENDS
;	COMDAT ??_C@_0BG@ICOJDEPG@Ex_SetTitleTipBackClr@
CONST	SEGMENT
??_C@_0BG@ICOJDEPG@Ex_SetTitleTipBackClr@ DB 'Ex_SetTitleTipBackClr', 00H ; `string'
CONST	ENDS
;	COMDAT ??_C@_0BE@DBNFLHHC@Ex_GetGridLineColor@
CONST	SEGMENT
??_C@_0BE@DBNFLHHC@Ex_GetGridLineColor@ DB 'Ex_GetGridLineColor', 00H ; `string'
CONST	ENDS
;	COMDAT ??_C@_0BE@FFIMAJMA@Ex_SetGridLineColor@
CONST	SEGMENT
??_C@_0BE@FFIMAJMA@Ex_SetGridLineColor@ DB 'Ex_SetGridLineColor', 00H ; `string'
CONST	ENDS
;	COMDAT ??_C@_0BC@LAFAFMOL@Ex_GetGridBkColor@
CONST	SEGMENT
??_C@_0BC@LAFAFMOL@Ex_GetGridBkColor@ DB 'Ex_GetGridBkColor', 00H ; `string'
CONST	ENDS
;	COMDAT ??_C@_0BC@HOEOKGMH@Ex_SetGridBkColor@
CONST	SEGMENT
??_C@_0BC@HOEOKGMH@Ex_SetGridBkColor@ DB 'Ex_SetGridBkColor', 00H ; `string'
CONST	ENDS
;	COMDAT ??_C@_0BF@FBJJOBBD@Ex_GetCellTextExtent@
CONST	SEGMENT
??_C@_0BF@FBJJOBBD@Ex_GetCellTextExtent@ DB 'Ex_GetCellTextExtent', 00H ; `string'
CONST	ENDS
;	COMDAT ??_C@_0BB@JNECFDJF@Ex_GetTextExtent@
CONST	SEGMENT
??_C@_0BB@JNECFDJF@Ex_GetTextExtent@ DB 'Ex_GetTextExtent', 00H ; `string'
CONST	ENDS
;	COMDAT ??_C@_0BE@FDAKIPGK@Ex_GetVirtualHeight@
CONST	SEGMENT
??_C@_0BE@FDAKIPGK@Ex_GetVirtualHeight@ DB 'Ex_GetVirtualHeight', 00H ; `string'
CONST	ENDS
;	COMDAT ??_C@_0BD@DFAOHHGM@Ex_GetVirtualWidth@
CONST	SEGMENT
??_C@_0BD@DFAOHHGM@Ex_GetVirtualWidth@ DB 'Ex_GetVirtualWidth', 00H ; `string'
CONST	ENDS
;	COMDAT ??_C@_0BH@EKHEELLJ@Ex_GetFixedColumnWidth@
CONST	SEGMENT
??_C@_0BH@EKHEELLJ@Ex_GetFixedColumnWidth@ DB 'Ex_GetFixedColumnWidth', 00H ; `string'
CONST	ENDS
;	COMDAT ??_C@_0BF@KNPMFFOB@Ex_GetFixedRowHeight@
CONST	SEGMENT
??_C@_0BF@KNPMFFOB@Ex_GetFixedRowHeight@ DB 'Ex_GetFixedRowHeight', 00H ; `string'
CONST	ENDS
;	COMDAT ??_C@_0BB@CIPPMECD@Ex_GetCellFromPt@
CONST	SEGMENT
??_C@_0BB@CIPPMECD@Ex_GetCellFromPt@ DB 'Ex_GetCellFromPt', 00H ; `string'
CONST	ENDS
;	COMDAT ??_C@_0BA@IHMLFKIJ@Ex_GetTextRect2@
CONST	SEGMENT
??_C@_0BA@IHMLFKIJ@Ex_GetTextRect2@ DB 'Ex_GetTextRect2', 00H ; `string'
CONST	ENDS
;	COMDAT ??_C@_0P@LCOAKBB@Ex_GetTextRect@
CONST	SEGMENT
??_C@_0P@LCOAKBB@Ex_GetTextRect@ DB 'Ex_GetTextRect', 00H ; `string'
CONST	ENDS
;	COMDAT ??_C@_0BA@OOHJCNGA@Ex_GetCellRect2@
CONST	SEGMENT
??_C@_0BA@OOHJCNGA@Ex_GetCellRect2@ DB 'Ex_GetCellRect2', 00H ; `string'
CONST	ENDS
;	COMDAT ??_C@_0P@LPJLBNIC@Ex_GetCellRect@
CONST	SEGMENT
??_C@_0P@LPJLBNIC@Ex_GetCellRect@ DB 'Ex_GetCellRect', 00H ; `string'
CONST	ENDS
;	COMDAT ??_C@_0BC@FAALKLNN@Ex_GetCellOrigin2@
CONST	SEGMENT
??_C@_0BC@FAALKLNN@Ex_GetCellOrigin2@ DB 'Ex_GetCellOrigin2', 00H ; `string'
CONST	ENDS
;	COMDAT ??_C@_0BB@MGANLAPA@Ex_GetCellOrigin@
CONST	SEGMENT
??_C@_0BB@MGANLAPA@Ex_GetCellOrigin@ DB 'Ex_GetCellOrigin', 00H ; `string'
CONST	ENDS
;	COMDAT ??_C@_0BC@EFDLPNNH@Ex_SetColumnWidth@
CONST	SEGMENT
??_C@_0BC@EFDLPNNH@Ex_SetColumnWidth@ DB 'Ex_SetColumnWidth', 00H ; `string'
CONST	ENDS
;	COMDAT ??_C@_0BC@ILCFAHPL@Ex_GetColumnWidth@
CONST	SEGMENT
??_C@_0BC@ILCFAHPL@Ex_GetColumnWidth@ DB 'Ex_GetColumnWidth', 00H ; `string'
CONST	ENDS
;	COMDAT ??_C@_0BA@DNFEEOEC@Ex_SetRowHeight@
CONST	SEGMENT
??_C@_0BA@DNFEEOEC@Ex_SetRowHeight@ DB 'Ex_SetRowHeight', 00H ; `string'
CONST	ENDS
;	COMDAT ??_C@_0BA@EJOKICAO@Ex_GetRowHeight@
CONST	SEGMENT
??_C@_0BA@EJOKICAO@Ex_GetRowHeight@ DB 'Ex_GetRowHeight', 00H ; `string'
CONST	ENDS
;	COMDAT ??_C@_0BH@OMDLPFOJ@Ex_SetFixedColumnCount@
CONST	SEGMENT
??_C@_0BH@OMDLPFOJ@Ex_SetFixedColumnCount@ DB 'Ex_SetFixedColumnCount', 00H ; `string'
CONST	ENDS
;	COMDAT ??_C@_0BE@HLPCMKGK@Ex_SetFixedRowCount@
CONST	SEGMENT
??_C@_0BE@HLPCMKGK@Ex_SetFixedRowCount@ DB 'Ex_SetFixedRowCount', 00H ; `string'
CONST	ENDS
;	COMDAT ??_C@_0BC@ENFPADPL@Ex_SetColumnCount@
CONST	SEGMENT
??_C@_0BC@ENFPADPL@Ex_SetColumnCount@ DB 'Ex_SetColumnCount', 00H ; `string'
CONST	ENDS
;	COMDAT ??_C@_0P@IKNEGNH@Ex_SetRowCount@
CONST	SEGMENT
??_C@_0P@IKNEGNH@Ex_SetRowCount@ DB 'Ex_SetRowCount', 00H ; `string'
CONST	ENDS
;	COMDAT ??_C@_0BH@ECBALFJF@Ex_GetFixedColumnCount@
CONST	SEGMENT
??_C@_0BH@ECBALFJF@Ex_GetFixedColumnCount@ DB 'Ex_GetFixedColumnCount', 00H ; `string'
CONST	ENDS
;	COMDAT ??_C@_0BE@BPKLHENI@Ex_GetFixedRowCount@
CONST	SEGMENT
??_C@_0BE@BPKLHENI@Ex_GetFixedRowCount@ DB 'Ex_GetFixedRowCount', 00H ; `string'
CONST	ENDS
;	COMDAT ??_C@_0BC@IDEBPJNH@Ex_GetColumnCount@
CONST	SEGMENT
??_C@_0BC@IDEBPJNH@Ex_GetColumnCount@ DB 'Ex_GetColumnCount', 00H ; `string'
CONST	ENDS
;	COMDAT ??_C@_0P@HLDJAFE@Ex_GetRowCount@
CONST	SEGMENT
??_C@_0P@HLDJAFE@Ex_GetRowCount@ DB 'Ex_GetRowCount', 00H ; `string'
CONST	ENDS
;	COMDAT ??_C@_09JKICPNB@Ex_Create@
CONST	SEGMENT
??_C@_09JKICPNB@Ex_Create@ DB 'Ex_Create', 00H		; `string'
CONST	ENDS
;	COMDAT ??_C@_0BA@BFAIJPHF@Ex_ExitGridCtrl@
CONST	SEGMENT
??_C@_0BA@BFAIJPHF@Ex_ExitGridCtrl@ DB 'Ex_ExitGridCtrl', 00H ; `string'
CONST	ENDS
;	COMDAT ??_C@_0BA@GMJHGOJC@Ex_InitGridCtrl@
CONST	SEGMENT
??_C@_0BA@GMJHGOJC@Ex_InitGridCtrl@ DB 'Ex_InitGridCtrl', 00H ; `string'
CONST	ENDS
;	COMDAT ??_C@_0BB@JBDOCKKP@Ex_ActionControl@
CONST	SEGMENT
??_C@_0BB@JBDOCKKP@Ex_ActionControl@ DB 'Ex_ActionControl', 00H ; `string'
CONST	ENDS
;	COMDAT ??_C@_05BMGBEOOC@?$CFs?2?$CFs@
CONST	SEGMENT
??_C@_05BMGBEOOC@?$CFs?2?$CFs@ DB '%s\%s', 00H		; `string'
CONST	ENDS
;	COMDAT ??_C@_0P@HKIIFJOH@ExGridCtrl?4dll@
CONST	SEGMENT
??_C@_0P@HKIIFJOH@ExGridCtrl?4dll@ DB 'ExGridCtrl.dll', 00H ; `string'
CONST	ENDS
;	COMDAT ??_7CLoaderGridCtrl@@6B@
CONST	SEGMENT
??_7CLoaderGridCtrl@@6B@ DD FLAT:??_R4CLoaderGridCtrl@@6B@ ; CLoaderGridCtrl::`vftable'
	DD	FLAT:?LoadProcAddress@CLoaderGridCtrl@@UAEHXZ
	DD	FLAT:??_ECLoaderGridCtrl@@UAEPAXI@Z
CONST	ENDS
;	COMDAT ??_C@_04OHDBDCPJ@?2Dev@
CONST	SEGMENT
??_C@_04OHDBDCPJ@?2Dev@ DB '\Dev', 00H			; `string'
CONST	ENDS
;	COMDAT ??_C@_0CD@INEDAMEN@DLL?$FL?$CFs?$FN?$MA?$LL?5Load?G?R?5?$LM?v?5?$LO?x?$LN?$MA?$LE?O?$LE?Y?4?5?$FL@
CONST	SEGMENT
??_C@_0CD@INEDAMEN@DLL?$FL?$CFs?$FN?$MA?$LL?5Load?G?R?5?$LM?v?5?$LO?x?$LN?$MA?$LE?O?$LE?Y?4?5?$FL@ DB 'D'
	DB	'LL[%s]', 0c0H, 0bbH, ' Load', 0c7H, 0d2H, ' ', 0bcH, 0f6H, ' '
	DB	0beH, 0f8H, 0bdH, 0c0H, 0b4H, 0cfH, 0b4H, 0d9H, '. [%d]', 00H ; `string'
CONST	ENDS
;	COMDAT ??_7CExLoadLib@@6B@
CONST	SEGMENT
??_7CExLoadLib@@6B@ DD FLAT:??_R4CExLoadLib@@6B@	; CExLoadLib::`vftable'
	DD	FLAT:?LoadProcAddress@CExLoadLib@@UAEHXZ
CONST	ENDS
;	COMDAT ??_7CExGridCtrl@@6B@
CONST	SEGMENT
??_7CExGridCtrl@@6B@ DD FLAT:??_R4CExGridCtrl@@6B@	; CExGridCtrl::`vftable'
	DD	FLAT:?GetRuntimeClass@CExGridCtrl@@UBEPAUCRuntimeClass@@XZ
	DD	FLAT:??_ECExGridCtrl@@UAEPAXI@Z
	DD	FLAT:?Serialize@CObject@@UAEXAAVCArchive@@@Z
	DD	FLAT:?AssertValid@CObject@@UBEXXZ
	DD	FLAT:?Dump@CObject@@UBEXAAVCDumpContext@@@Z
	DD	FLAT:?OnCmdMsg@CCmdTarget@@UAEHIHPAXPAUAFX_CMDHANDLERINFO@@@Z
	DD	FLAT:?OnFinalRelease@CWnd@@UAEXXZ
	DD	FLAT:?IsInvokeAllowed@CCmdTarget@@UAEHJ@Z
	DD	FLAT:?GetDispatchIID@CCmdTarget@@UAEHPAU_GUID@@@Z
	DD	FLAT:?GetTypeInfoCount@CCmdTarget@@UAEIXZ
	DD	FLAT:?GetTypeLibCache@CCmdTarget@@UAEPAVCTypeLibCache@@XZ
	DD	FLAT:?GetTypeLib@CCmdTarget@@UAEJKPAPAUITypeLib@@@Z
	DD	FLAT:?GetMessageMap@CExGridCtrl@@MBEPBUAFX_MSGMAP@@XZ
	DD	FLAT:?GetCommandMap@CCmdTarget@@MBEPBUAFX_OLECMDMAP@@XZ
	DD	FLAT:?GetDispatchMap@CCmdTarget@@MBEPBUAFX_DISPMAP@@XZ
	DD	FLAT:?GetConnectionMap@CCmdTarget@@MBEPBUAFX_CONNECTIONMAP@@XZ
	DD	FLAT:?GetInterfaceMap@CWnd@@MBEPBUAFX_INTERFACEMAP@@XZ
	DD	FLAT:?GetEventSinkMap@CCmdTarget@@MBEPBUAFX_EVENTSINKMAP@@XZ
	DD	FLAT:?OnCreateAggregates@CCmdTarget@@UAEHXZ
	DD	FLAT:?GetInterfaceHook@CCmdTarget@@UAEPAUIUnknown@@PBX@Z
	DD	FLAT:?GetExtraConnectionPoints@CCmdTarget@@MAEHPAVCPtrArray@@@Z
	DD	FLAT:?GetConnectionHook@CCmdTarget@@MAEPAUIConnectionPoint@@ABU_GUID@@@Z
	DD	FLAT:?PreSubclassWindow@CExGridCtrl@@MAEXXZ
	DD	FLAT:?Create@CWnd@@UAEHPBD0KABUtagRECT@@PAV1@IPAUCCreateContext@@@Z
	DD	FLAT:?CreateEx@CWnd@@UAEHKPBD0KABUtagRECT@@PAV1@IPAX@Z
	DD	FLAT:?CreateEx@CWnd@@UAEHKPBD0KHHHHPAUHWND__@@PAUHMENU__@@PAX@Z
	DD	FLAT:?DestroyWindow@CWnd@@UAEHXZ
	DD	FLAT:?PreCreateWindow@CWnd@@UAEHAAUtagCREATESTRUCTA@@@Z
	DD	FLAT:?CalcWindowRect@CWnd@@UAEXPAUtagRECT@@I@Z
	DD	FLAT:?GetMenu@CWnd@@UBEPAVCMenu@@XZ
	DD	FLAT:?SetMenu@CWnd@@UAEHPAVCMenu@@@Z
	DD	FLAT:?OnToolHitTest@CWnd@@UBEHVCPoint@@PAUtagTOOLINFOA@@@Z
	DD	FLAT:?GetScrollBarCtrl@CWnd@@UBEPAVCScrollBar@@H@Z
	DD	FLAT:?WinHelpA@CWnd@@UAEXKI@Z
	DD	FLAT:?HtmlHelpA@CWnd@@UAEXKI@Z
	DD	FLAT:?WinHelpInternal@CWnd@@UAEXKI@Z
	DD	FLAT:?ContinueModal@CWnd@@UAEHXZ
	DD	FLAT:?EndModalLoop@CWnd@@UAEXH@Z
	DD	FLAT:?OnDrawIconicThumbnailOrLivePreview@CWnd@@UAEXAAVCDC@@VCRect@@VCSize@@HAAH@Z
	DD	FLAT:?EnsureStdObj@CWnd@@UAEJXZ
	DD	FLAT:?get_accParent@CWnd@@UAEJPAPAUIDispatch@@@Z
	DD	FLAT:?get_accChildCount@CWnd@@UAEJPAJ@Z
	DD	FLAT:?get_accChild@CWnd@@UAEJUtagVARIANT@@PAPAUIDispatch@@@Z
	DD	FLAT:?get_accName@CWnd@@UAEJUtagVARIANT@@PAPA_W@Z
	DD	FLAT:?get_accValue@CWnd@@UAEJUtagVARIANT@@PAPA_W@Z
	DD	FLAT:?get_accDescription@CWnd@@UAEJUtagVARIANT@@PAPA_W@Z
	DD	FLAT:?get_accRole@CWnd@@UAEJUtagVARIANT@@PAU2@@Z
	DD	FLAT:?get_accState@CWnd@@UAEJUtagVARIANT@@PAU2@@Z
	DD	FLAT:?get_accHelp@CWnd@@UAEJUtagVARIANT@@PAPA_W@Z
	DD	FLAT:?get_accHelpTopic@CWnd@@UAEJPAPA_WUtagVARIANT@@PAJ@Z
	DD	FLAT:?get_accKeyboardShortcut@CWnd@@UAEJUtagVARIANT@@PAPA_W@Z
	DD	FLAT:?get_accFocus@CWnd@@UAEJPAUtagVARIANT@@@Z
	DD	FLAT:?get_accSelection@CWnd@@UAEJPAUtagVARIANT@@@Z
	DD	FLAT:?get_accDefaultAction@CWnd@@UAEJUtagVARIANT@@PAPA_W@Z
	DD	FLAT:?accSelect@CWnd@@UAEJJUtagVARIANT@@@Z
	DD	FLAT:?accLocation@CWnd@@UAEJPAJ000UtagVARIANT@@@Z
	DD	FLAT:?accNavigate@CWnd@@UAEJJUtagVARIANT@@PAU2@@Z
	DD	FLAT:?accHitTest@CWnd@@UAEJJJPAUtagVARIANT@@@Z
	DD	FLAT:?accDoDefaultAction@CWnd@@UAEJUtagVARIANT@@@Z
	DD	FLAT:?put_accName@CWnd@@UAEJUtagVARIANT@@PA_W@Z
	DD	FLAT:?put_accValue@CWnd@@UAEJUtagVARIANT@@PA_W@Z
	DD	FLAT:?SetProxy@CWnd@@UAEJPAUIAccessibleProxy@@@Z
	DD	FLAT:?CreateAccessibleProxy@CWnd@@UAEJIJPAJ@Z
	DD	FLAT:?OnCommand@CWnd@@MAEHIJ@Z
	DD	FLAT:?OnNotify@CWnd@@MAEHIJPAJ@Z
	DD	FLAT:?GetSuperWndProcAddr@CWnd@@MAEPAP6GJPAUHWND__@@IIJ@ZXZ
	DD	FLAT:?DoDataExchange@CWnd@@MAEXPAVCDataExchange@@@Z
	DD	FLAT:?BeginModalState@CWnd@@UAEXXZ
	DD	FLAT:?EndModalState@CWnd@@UAEXXZ
	DD	FLAT:?PreTranslateMessage@CWnd@@UAEHPAUtagMSG@@@Z
	DD	FLAT:?OnAmbientProperty@CWnd@@UAEHPAVCOleControlSite@@JPAUtagVARIANT@@@Z
	DD	FLAT:?WindowProc@CExGridCtrl@@MAEJIIJ@Z
	DD	FLAT:?OnWndMsg@CWnd@@MAEHIIJPAJ@Z
	DD	FLAT:?DefWindowProcA@CWnd@@MAEJIIJ@Z
	DD	FLAT:?PostNcDestroy@CWnd@@MAEXXZ
	DD	FLAT:?OnChildNotify@CWnd@@MAEHIIJPAJ@Z
	DD	FLAT:?OnTouchInputs@CWnd@@MAEHIPAUtagTOUCHINPUT@@@Z
	DD	FLAT:?OnTouchInput@CWnd@@MAEHVCPoint@@HHPAUtagTOUCHINPUT@@@Z
	DD	FLAT:?GetGestureStatus@CWnd@@MAEKVCPoint@@@Z
	DD	FLAT:?OnGestureZoom@CWnd@@MAEHVCPoint@@J@Z
	DD	FLAT:?OnGesturePan@CWnd@@MAEHVCPoint@@0@Z
	DD	FLAT:?OnGestureRotate@CWnd@@MAEHVCPoint@@N@Z
	DD	FLAT:?OnGestureTwoFingerTap@CWnd@@MAEHVCPoint@@@Z
	DD	FLAT:?OnGesturePressAndTap@CWnd@@MAEHVCPoint@@J@Z
	DD	FLAT:?ResizeDynamicLayout@CWnd@@MAEXXZ
	DD	FLAT:?CheckAutoCenter@CWnd@@UAEHXZ
	DD	FLAT:?IsFrameWnd@CWnd@@UBEHXZ
	DD	FLAT:?CreateControlContainer@CWnd@@MAEHPAPAVCOleControlContainer@@@Z
	DD	FLAT:?CreateControlSite@CWnd@@MAEHPAVCOleControlContainer@@PAPAVCOleControlSite@@IABU_GUID@@@Z
	DD	FLAT:?SetOccDialogInfo@CWnd@@MAEHPAU_AFX_OCC_DIALOG_INFO@@@Z
	DD	FLAT:?GetOccDialogInfo@CWnd@@MAEPAU_AFX_OCC_DIALOG_INFO@@XZ
	DD	FLAT:?CutSelectedText@CExGridCtrl@@UAEXXZ
	DD	FLAT:?CopyTextFromGrid@CExGridCtrl@@UAEPAVCOleDataSource@@XZ
	DD	FLAT:?PasteTextToGrid@CExGridCtrl@@UAEHVCCellID@@PAVCOleDataObject@@H@Z
	DD	FLAT:?OnBeginDrag@CExGridCtrl@@UAEXXZ
	DD	FLAT:?OnDragEnter@CExGridCtrl@@UAEKPAVCOleDataObject@@KVCPoint@@@Z
	DD	FLAT:?OnDragOver@CExGridCtrl@@UAEKPAVCOleDataObject@@KVCPoint@@@Z
	DD	FLAT:?OnDragLeave@CExGridCtrl@@UAEXXZ
	DD	FLAT:?OnDrop@CExGridCtrl@@UAEHPAVCOleDataObject@@KVCPoint@@@Z
	DD	FLAT:?OnEditCut@CExGridCtrl@@UAEXXZ
	DD	FLAT:?OnEditCopy@CExGridCtrl@@UAEXXZ
	DD	FLAT:?OnEditPaste@CExGridCtrl@@UAEXXZ
	DD	FLAT:?OnEditSelectAll@CExGridCtrl@@UAEXXZ
	DD	FLAT:?CreateDragImage@CExGridCtrl@@MAEPAVCImageList@@PAVCPoint@@@Z
	DD	FLAT:?OnFixedColumnClick@CExGridCtrl@@MAEXAAVCCellID@@@Z
	DD	FLAT:?OnFixedRowClick@CExGridCtrl@@MAEXAAVCCellID@@@Z
	DD	FLAT:?OnEditCell@CExGridCtrl@@MAEXHHVCPoint@@I@Z
	DD	FLAT:?OnEndEditCell@CExGridCtrl@@MAEXHHV?$CStringT@DV?$StrTraitMFC_DLL@DV?$ChTraitsCRT@D@ATL@@@@@ATL@@@Z
	DD	FLAT:?ValidateEdit@CExGridCtrl@@MAEHHHPBD@Z
	DD	FLAT:?EndEditing@CExGridCtrl@@MAEXXZ
	DD	FLAT:?OnDraw@CExGridCtrl@@MAEXPAVCDC@@@Z
	DD	FLAT:?CreateCell@CExGridCtrl@@MAEPAVCGridCellBase@@HH@Z
	DD	FLAT:?DestroyCell@CExGridCtrl@@MAEXHH@Z
CONST	ENDS
;	COMDAT ?classCExGridCtrl@CExGridCtrl@@2UCRuntimeClass@@B
CONST	SEGMENT
?classCExGridCtrl@CExGridCtrl@@2UCRuntimeClass@@B DD FLAT:??_C@_0M@DNKIBNMP@CExGridCtrl@ ; CExGridCtrl::classCExGridCtrl
	DD	088H
	DD	0ffffH
	DD	FLAT:?CreateObject@CExGridCtrl@@SGPAVCObject@@XZ
	DD	FLAT:?_GetBaseClass@CExGridCtrl@@KGPAUCRuntimeClass@@XZ
	DD	00H
	DD	00H
CONST	ENDS
;	COMDAT ??_R2CCmdTarget@@8
rdata$r	SEGMENT
??_R2CCmdTarget@@8 DD FLAT:??_R1A@?0A@EA@CCmdTarget@@8	; CCmdTarget::`RTTI Base Class Array'
	DD	FLAT:??_R1A@?0A@EA@CObject@@8
rdata$r	ENDS
;	COMDAT ??_R3CCmdTarget@@8
rdata$r	SEGMENT
??_R3CCmdTarget@@8 DD 00H				; CCmdTarget::`RTTI Class Hierarchy Descriptor'
	DD	00H
	DD	02H
	DD	FLAT:??_R2CCmdTarget@@8
rdata$r	ENDS
;	COMDAT ??_R0?AVCCmdTarget@@@8
data$rs	SEGMENT
??_R0?AVCCmdTarget@@@8 DD FLAT:??_7type_info@@6B@	; CCmdTarget `RTTI Type Descriptor'
	DD	00H
	DB	'.?AVCCmdTarget@@', 00H
data$rs	ENDS
;	COMDAT ??_R1A@?0A@EA@CCmdTarget@@8
rdata$r	SEGMENT
??_R1A@?0A@EA@CCmdTarget@@8 DD FLAT:??_R0?AVCCmdTarget@@@8 ; CCmdTarget::`RTTI Base Class Descriptor at (0,-1,0,64)'
	DD	01H
	DD	00H
	DD	0ffffffffH
	DD	00H
	DD	040H
	DD	FLAT:??_R3CCmdTarget@@8
rdata$r	ENDS
;	COMDAT ??_R2CWnd@@8
rdata$r	SEGMENT
??_R2CWnd@@8 DD	FLAT:??_R1A@?0A@EA@CWnd@@8		; CWnd::`RTTI Base Class Array'
	DD	FLAT:??_R1A@?0A@EA@CCmdTarget@@8
	DD	FLAT:??_R1A@?0A@EA@CObject@@8
rdata$r	ENDS
;	COMDAT ??_R3CWnd@@8
rdata$r	SEGMENT
??_R3CWnd@@8 DD	00H					; CWnd::`RTTI Class Hierarchy Descriptor'
	DD	00H
	DD	03H
	DD	FLAT:??_R2CWnd@@8
rdata$r	ENDS
;	COMDAT ??_R0?AVCWnd@@@8
data$rs	SEGMENT
??_R0?AVCWnd@@@8 DD FLAT:??_7type_info@@6B@		; CWnd `RTTI Type Descriptor'
	DD	00H
	DB	'.?AVCWnd@@', 00H
data$rs	ENDS
;	COMDAT ??_R1A@?0A@EA@CWnd@@8
rdata$r	SEGMENT
??_R1A@?0A@EA@CWnd@@8 DD FLAT:??_R0?AVCWnd@@@8		; CWnd::`RTTI Base Class Descriptor at (0,-1,0,64)'
	DD	02H
	DD	00H
	DD	0ffffffffH
	DD	00H
	DD	040H
	DD	FLAT:??_R3CWnd@@8
rdata$r	ENDS
;	COMDAT ??_R1A@?0A@EA@CObject@@8
rdata$r	SEGMENT
??_R1A@?0A@EA@CObject@@8 DD FLAT:??_R0?AVCObject@@@8	; CObject::`RTTI Base Class Descriptor at (0,-1,0,64)'
	DD	00H
	DD	00H
	DD	0ffffffffH
	DD	00H
	DD	040H
	DD	FLAT:??_R3CObject@@8
rdata$r	ENDS
;	COMDAT ??_R2CObject@@8
rdata$r	SEGMENT
??_R2CObject@@8 DD FLAT:??_R1A@?0A@EA@CObject@@8	; CObject::`RTTI Base Class Array'
rdata$r	ENDS
;	COMDAT ??_R3CObject@@8
rdata$r	SEGMENT
??_R3CObject@@8 DD 00H					; CObject::`RTTI Class Hierarchy Descriptor'
	DD	00H
	DD	01H
	DD	FLAT:??_R2CObject@@8
rdata$r	ENDS
;	COMDAT ??_R0?AVCObject@@@8
data$rs	SEGMENT
??_R0?AVCObject@@@8 DD FLAT:??_7type_info@@6B@		; CObject `RTTI Type Descriptor'
	DD	00H
	DB	'.?AVCObject@@', 00H
data$rs	ENDS
;	COMDAT ??_C@_00CNPNBAHC@@
CONST	SEGMENT
??_C@_00CNPNBAHC@@ DB 00H				; `string'
CONST	ENDS
;	COMDAT xdata$x
xdata$x	SEGMENT
__unwindtable$??_GCLoaderGridCtrl@@UAEPAXI@Z DD 0ffffffffH
	DD	FLAT:___std_terminate
__ehfuncinfo$??_GCLoaderGridCtrl@@UAEPAXI@Z DD 019930522H
	DD	01H
	DD	FLAT:__unwindtable$??_GCLoaderGridCtrl@@UAEPAXI@Z
	DD	2 DUP(00H)
	DD	2 DUP(00H)
	DD	00H
	DD	05H
xdata$x	ENDS
;	COMDAT xdata$x
xdata$x	SEGMENT
__unwindtable$?OnEndEditCell@CLoaderGridCtrl@@QAEXHHV?$CStringT@DV?$StrTraitMFC_DLL@DV?$ChTraitsCRT@D@ATL@@@@@ATL@@@Z DD 0ffffffffH
	DD	FLAT:__unwindfunclet$?OnEndEditCell@CLoaderGridCtrl@@QAEXHHV?$CStringT@DV?$StrTraitMFC_DLL@DV?$ChTraitsCRT@D@ATL@@@@@ATL@@@Z$0
__ehfuncinfo$?OnEndEditCell@CLoaderGridCtrl@@QAEXHHV?$CStringT@DV?$StrTraitMFC_DLL@DV?$ChTraitsCRT@D@ATL@@@@@ATL@@@Z DD 019930522H
	DD	01H
	DD	FLAT:__unwindtable$?OnEndEditCell@CLoaderGridCtrl@@QAEXHHV?$CStringT@DV?$StrTraitMFC_DLL@DV?$ChTraitsCRT@D@ATL@@@@@ATL@@@Z
	DD	2 DUP(00H)
	DD	2 DUP(00H)
	DD	00H
	DD	01H
xdata$x	ENDS
;	COMDAT xdata$x
xdata$x	SEGMENT
__unwindtable$?GetItemText@CLoaderGridCtrl@@QAE?AV?$CStringT@DV?$StrTraitMFC_DLL@DV?$ChTraitsCRT@D@ATL@@@@@ATL@@HH@Z DD 0ffffffffH
	DD	FLAT:__unwindfunclet$?GetItemText@CLoaderGridCtrl@@QAE?AV?$CStringT@DV?$StrTraitMFC_DLL@DV?$ChTraitsCRT@D@ATL@@@@@ATL@@HH@Z$1
__ehfuncinfo$?GetItemText@CLoaderGridCtrl@@QAE?AV?$CStringT@DV?$StrTraitMFC_DLL@DV?$ChTraitsCRT@D@ATL@@@@@ATL@@HH@Z DD 019930522H
	DD	01H
	DD	FLAT:__unwindtable$?GetItemText@CLoaderGridCtrl@@QAE?AV?$CStringT@DV?$StrTraitMFC_DLL@DV?$ChTraitsCRT@D@ATL@@@@@ATL@@HH@Z
	DD	2 DUP(00H)
	DD	2 DUP(00H)
	DD	00H
	DD	01H
xdata$x	ENDS
;	COMDAT xdata$x
xdata$x	SEGMENT
__ehfuncinfo$??1CLoaderGridCtrl@@UAE@XZ DD 019930522H
	DD	00H
	DD	00H
	DD	2 DUP(00H)
	DD	2 DUP(00H)
	DD	00H
	DD	05H
xdata$x	ENDS
;	COMDAT xdata$x
xdata$x	SEGMENT
__ehfuncinfo$??0CLoaderGridCtrl@@QAE@PAXPBD@Z DD 019930522H
	DD	05H
	DD	FLAT:__unwindtable$??0CLoaderGridCtrl@@QAE@PAXPBD@Z
	DD	2 DUP(00H)
	DD	2 DUP(00H)
	DD	00H
	DD	01H
__unwindtable$??0CLoaderGridCtrl@@QAE@PAXPBD@Z DD 0ffffffffH
	DD	FLAT:__unwindfunclet$??0CLoaderGridCtrl@@QAE@PAXPBD@Z$0
	DD	00H
	DD	FLAT:__unwindfunclet$??0CLoaderGridCtrl@@QAE@PAXPBD@Z$1
	DD	01H
	DD	FLAT:__unwindfunclet$??0CLoaderGridCtrl@@QAE@PAXPBD@Z$2
	DD	02H
	DD	FLAT:__unwindfunclet$??0CLoaderGridCtrl@@QAE@PAXPBD@Z$3
	DD	02H
	DD	FLAT:__unwindfunclet$??0CLoaderGridCtrl@@QAE@PAXPBD@Z$4
xdata$x	ENDS
;	COMDAT xdata$x
xdata$x	SEGMENT
__unwindtable$?GetDir_DrfnBin@@YAXAAV?$CStringT@DV?$StrTraitMFC_DLL@DV?$ChTraitsCRT@D@ATL@@@@@ATL@@@Z DD 0ffffffffH
	DD	FLAT:__unwindfunclet$?GetDir_DrfnBin@@YAXAAV?$CStringT@DV?$StrTraitMFC_DLL@DV?$ChTraitsCRT@D@ATL@@@@@ATL@@@Z$0
	DD	00H
	DD	FLAT:__unwindfunclet$?GetDir_DrfnBin@@YAXAAV?$CStringT@DV?$StrTraitMFC_DLL@DV?$ChTraitsCRT@D@ATL@@@@@ATL@@@Z$1
	DD	00H
	DD	FLAT:__unwindfunclet$?GetDir_DrfnBin@@YAXAAV?$CStringT@DV?$StrTraitMFC_DLL@DV?$ChTraitsCRT@D@ATL@@@@@ATL@@@Z$2
__ehfuncinfo$?GetDir_DrfnBin@@YAXAAV?$CStringT@DV?$StrTraitMFC_DLL@DV?$ChTraitsCRT@D@ATL@@@@@ATL@@@Z DD 019930522H
	DD	03H
	DD	FLAT:__unwindtable$?GetDir_DrfnBin@@YAXAAV?$CStringT@DV?$StrTraitMFC_DLL@DV?$ChTraitsCRT@D@ATL@@@@@ATL@@@Z
	DD	2 DUP(00H)
	DD	2 DUP(00H)
	DD	00H
	DD	01H
xdata$x	ENDS
;	COMDAT xdata$x
xdata$x	SEGMENT
__unwindtable$?GetDir_DrfnRoot@@YAXAAV?$CStringT@DV?$StrTraitMFC_DLL@DV?$ChTraitsCRT@D@ATL@@@@@ATL@@@Z DD 0ffffffffH
	DD	FLAT:__unwindfunclet$?GetDir_DrfnRoot@@YAXAAV?$CStringT@DV?$StrTraitMFC_DLL@DV?$ChTraitsCRT@D@ATL@@@@@ATL@@@Z$0
	DD	00H
	DD	FLAT:__unwindfunclet$?GetDir_DrfnRoot@@YAXAAV?$CStringT@DV?$StrTraitMFC_DLL@DV?$ChTraitsCRT@D@ATL@@@@@ATL@@@Z$1
	DD	00H
	DD	FLAT:__unwindfunclet$?GetDir_DrfnRoot@@YAXAAV?$CStringT@DV?$StrTraitMFC_DLL@DV?$ChTraitsCRT@D@ATL@@@@@ATL@@@Z$2
__ehfuncinfo$?GetDir_DrfnRoot@@YAXAAV?$CStringT@DV?$StrTraitMFC_DLL@DV?$ChTraitsCRT@D@ATL@@@@@ATL@@@Z DD 019930522H
	DD	03H
	DD	FLAT:__unwindtable$?GetDir_DrfnRoot@@YAXAAV?$CStringT@DV?$StrTraitMFC_DLL@DV?$ChTraitsCRT@D@ATL@@@@@ATL@@@Z
	DD	2 DUP(00H)
	DD	2 DUP(00H)
	DD	00H
	DD	01H
xdata$x	ENDS
;	COMDAT xdata$x
xdata$x	SEGMENT
__unwindtable$??_GCExGridCtrl@@UAEPAXI@Z DD 0ffffffffH
	DD	FLAT:___std_terminate
__ehfuncinfo$??_GCExGridCtrl@@UAEPAXI@Z DD 019930522H
	DD	01H
	DD	FLAT:__unwindtable$??_GCExGridCtrl@@UAEPAXI@Z
	DD	2 DUP(00H)
	DD	2 DUP(00H)
	DD	00H
	DD	05H
xdata$x	ENDS
;	COMDAT xdata$x
xdata$x	SEGMENT
__unwindtable$?OnEndEditCell@CExGridCtrl@@MAEXHHV?$CStringT@DV?$StrTraitMFC_DLL@DV?$ChTraitsCRT@D@ATL@@@@@ATL@@@Z DD 0ffffffffH
	DD	FLAT:__unwindfunclet$?OnEndEditCell@CExGridCtrl@@MAEXHHV?$CStringT@DV?$StrTraitMFC_DLL@DV?$ChTraitsCRT@D@ATL@@@@@ATL@@@Z$0
	DD	00H
	DD	FLAT:__unwindfunclet$?OnEndEditCell@CExGridCtrl@@MAEXHHV?$CStringT@DV?$StrTraitMFC_DLL@DV?$ChTraitsCRT@D@ATL@@@@@ATL@@@Z$2
__ehfuncinfo$?OnEndEditCell@CExGridCtrl@@MAEXHHV?$CStringT@DV?$StrTraitMFC_DLL@DV?$ChTraitsCRT@D@ATL@@@@@ATL@@@Z DD 019930522H
	DD	02H
	DD	FLAT:__unwindtable$?OnEndEditCell@CExGridCtrl@@MAEXHHV?$CStringT@DV?$StrTraitMFC_DLL@DV?$ChTraitsCRT@D@ATL@@@@@ATL@@@Z
	DD	2 DUP(00H)
	DD	2 DUP(00H)
	DD	00H
	DD	01H
xdata$x	ENDS
;	COMDAT xdata$x
xdata$x	SEGMENT
__ehfuncinfo$??1CExGridCtrl@@UAE@XZ DD 019930522H
	DD	00H
	DD	00H
	DD	2 DUP(00H)
	DD	2 DUP(00H)
	DD	00H
	DD	05H
xdata$x	ENDS
;	COMDAT xdata$x
xdata$x	SEGMENT
__unwindtable$?GetItemText@CExGridCtrl@@QAE?AV?$CStringT@DV?$StrTraitMFC_DLL@DV?$ChTraitsCRT@D@ATL@@@@@ATL@@HH@Z DD 0ffffffffH
	DD	FLAT:__unwindfunclet$?GetItemText@CExGridCtrl@@QAE?AV?$CStringT@DV?$StrTraitMFC_DLL@DV?$ChTraitsCRT@D@ATL@@@@@ATL@@HH@Z$2
__ehfuncinfo$?GetItemText@CExGridCtrl@@QAE?AV?$CStringT@DV?$StrTraitMFC_DLL@DV?$ChTraitsCRT@D@ATL@@@@@ATL@@HH@Z DD 019930522H
	DD	01H
	DD	FLAT:__unwindtable$?GetItemText@CExGridCtrl@@QAE?AV?$CStringT@DV?$StrTraitMFC_DLL@DV?$ChTraitsCRT@D@ATL@@@@@ATL@@HH@Z
	DD	2 DUP(00H)
	DD	2 DUP(00H)
	DD	00H
	DD	01H
xdata$x	ENDS
;	COMDAT xdata$x
xdata$x	SEGMENT
__unwindtable$?Create@CExGridCtrl@@QAEHAAUtagRECT@@PAVCWnd@@IK@Z DD 0ffffffffH
	DD	FLAT:__unwindfunclet$?Create@CExGridCtrl@@QAEHAAUtagRECT@@PAVCWnd@@IK@Z$0
__ehfuncinfo$?Create@CExGridCtrl@@QAEHAAUtagRECT@@PAVCWnd@@IK@Z DD 019930522H
	DD	01H
	DD	FLAT:__unwindtable$?Create@CExGridCtrl@@QAEHAAUtagRECT@@PAVCWnd@@IK@Z
	DD	2 DUP(00H)
	DD	2 DUP(00H)
	DD	00H
	DD	01H
xdata$x	ENDS
;	COMDAT xdata$x
xdata$x	SEGMENT
__unwindtable$??0CExGridCtrl@@QAE@HHHH@Z DD 0ffffffffH
	DD	FLAT:__unwindfunclet$??0CExGridCtrl@@QAE@HHHH@Z$0
	DD	00H
	DD	FLAT:__unwindfunclet$??0CExGridCtrl@@QAE@HHHH@Z$1
__ehfuncinfo$??0CExGridCtrl@@QAE@HHHH@Z DD 019930522H
	DD	02H
	DD	FLAT:__unwindtable$??0CExGridCtrl@@QAE@HHHH@Z
	DD	2 DUP(00H)
	DD	2 DUP(00H)
	DD	00H
	DD	01H
xdata$x	ENDS
;	COMDAT xdata$x
xdata$x	SEGMENT
__unwindtable$?CreateObject@CExGridCtrl@@SGPAVCObject@@XZ DD 0ffffffffH
	DD	FLAT:__unwindfunclet$?CreateObject@CExGridCtrl@@SGPAVCObject@@XZ$0
	DD	00H
	DD	FLAT:__unwindfunclet$?CreateObject@CExGridCtrl@@SGPAVCObject@@XZ$1
	DD	01H
	DD	FLAT:__unwindfunclet$?CreateObject@CExGridCtrl@@SGPAVCObject@@XZ$2
__ehfuncinfo$?CreateObject@CExGridCtrl@@SGPAVCObject@@XZ DD 019930522H
	DD	03H
	DD	FLAT:__unwindtable$?CreateObject@CExGridCtrl@@SGPAVCObject@@XZ
	DD	2 DUP(00H)
	DD	2 DUP(00H)
	DD	00H
	DD	01H
xdata$x	ENDS
; Function compile flags: /Odsp
;	COMDAT ??_9CExGridCtrl@@$BBJE@AE
_TEXT	SEGMENT
??_9CExGridCtrl@@$BBJE@AE PROC				; CExGridCtrl::`vcall'{404}', COMDAT
  00000	8b 01		 mov	 eax, DWORD PTR [ecx]
  00002	ff a0 94 01 00
	00		 jmp	 DWORD PTR [eax+404]
??_9CExGridCtrl@@$BBJE@AE ENDP				; CExGridCtrl::`vcall'{404}'
_TEXT	ENDS
; Function compile flags: /Odsp
;	COMDAT ??_9CExGridCtrl@@$BBIM@AE
_TEXT	SEGMENT
??_9CExGridCtrl@@$BBIM@AE PROC				; CExGridCtrl::`vcall'{396}', COMDAT
  00000	8b 01		 mov	 eax, DWORD PTR [ecx]
  00002	ff a0 8c 01 00
	00		 jmp	 DWORD PTR [eax+396]
??_9CExGridCtrl@@$BBIM@AE ENDP				; CExGridCtrl::`vcall'{396}'
_TEXT	ENDS
; Function compile flags: /Odsp
;	COMDAT ??_9CExGridCtrl@@$BBJA@AE
_TEXT	SEGMENT
??_9CExGridCtrl@@$BBJA@AE PROC				; CExGridCtrl::`vcall'{400}', COMDAT
  00000	8b 01		 mov	 eax, DWORD PTR [ecx]
  00002	ff a0 90 01 00
	00		 jmp	 DWORD PTR [eax+400]
??_9CExGridCtrl@@$BBJA@AE ENDP				; CExGridCtrl::`vcall'{400}'
_TEXT	ENDS
; Function compile flags: /Odsp
;	COMDAT ??_9CExGridCtrl@@$BBJI@AE
_TEXT	SEGMENT
??_9CExGridCtrl@@$BBJI@AE PROC				; CExGridCtrl::`vcall'{408}', COMDAT
  00000	8b 01		 mov	 eax, DWORD PTR [ecx]
  00002	ff a0 98 01 00
	00		 jmp	 DWORD PTR [eax+408]
??_9CExGridCtrl@@$BBJI@AE ENDP				; CExGridCtrl::`vcall'{408}'
_TEXT	ENDS
; Function compile flags: /Ogtp
; File D:\git\src\IBK\IBK_DRFN\ProjSrc\SrcDrfn\Chart\ExControl\Include\GirdLoadHelper.h
; File D:\git\src\IBK\IBK_DRFN\ProjSrc\SrcDrfn\Chart\ExControl\Include\BaseLoadHelper.h
;	COMDAT ??_GCLoaderGridCtrl@@UAEPAXI@Z
_TEXT	SEGMENT
__$EHRec$ = -12						; size = 12
___flags$ = 8						; size = 4
??_GCLoaderGridCtrl@@UAEPAXI@Z PROC			; CLoaderGridCtrl::`scalar deleting destructor', COMDAT
; _this$ = ecx
  00000	55		 push	 ebp
  00001	8b ec		 mov	 ebp, esp
  00003	6a ff		 push	 -1
  00005	68 00 00 00 00	 push	 __ehhandler$??_GCLoaderGridCtrl@@UAEPAXI@Z
  0000a	64 a1 00 00 00
	00		 mov	 eax, DWORD PTR fs:0
  00010	50		 push	 eax
  00011	56		 push	 esi
  00012	a1 00 00 00 00	 mov	 eax, DWORD PTR ___security_cookie
  00017	33 c5		 xor	 eax, ebp
  00019	50		 push	 eax
  0001a	8d 45 f4	 lea	 eax, DWORD PTR __$EHRec$[ebp]
  0001d	64 a3 00 00 00
	00		 mov	 DWORD PTR fs:0, eax
  00023	8b f1		 mov	 esi, ecx
; File D:\git\src\IBK\IBK_DRFN\ProjSrc\SrcDrfn\Chart\ExControl\Include\GirdLoadHelper.h

; 635  : 		if(m_hLib)

  00025	8b 46 04	 mov	 eax, DWORD PTR [esi+4]
  00028	c7 45 fc 00 00
	00 00		 mov	 DWORD PTR __$EHRec$[ebp+8], 0
  0002f	c7 06 00 00 00
	00		 mov	 DWORD PTR [esi], OFFSET ??_7CLoaderGridCtrl@@6B@
  00035	85 c0		 test	 eax, eax
  00037	74 11		 je	 SHORT $LN5@scalar

; 636  : 			pExitGridCtrl(m_lpPointer);

  00039	ff b6 0c 01 00
	00		 push	 DWORD PTR [esi+268]
  0003f	8b 86 18 01 00
	00		 mov	 eax, DWORD PTR [esi+280]
  00045	ff d0		 call	 eax
  00047	8b 46 04	 mov	 eax, DWORD PTR [esi+4]
$LN5@scalar:
; File D:\git\src\IBK\IBK_DRFN\ProjSrc\SrcDrfn\Chart\ExControl\Include\BaseLoadHelper.h

; 13   : 	{

  0004a	c7 06 00 00 00
	00		 mov	 DWORD PTR [esi], OFFSET ??_7CExLoadLib@@6B@

; 53   : 		if(!m_hLib)

  00050	85 c0		 test	 eax, eax
  00052	74 0e		 je	 SHORT $LN10@scalar

; 54   : 			return TRUE;
; 55   : 
; 56   : 		BOOL bResult = ::FreeLibrary(m_hLib);

  00054	50		 push	 eax
  00055	ff 15 00 00 00
	00		 call	 DWORD PTR __imp__FreeLibrary@4

; 57   : 		
; 58   : 		m_hLib = NULL;

  0005b	c7 46 04 00 00
	00 00		 mov	 DWORD PTR [esi+4], 0
$LN10@scalar:
  00062	f6 45 08 01	 test	 BYTE PTR ___flags$[ebp], 1
  00066	74 0e		 je	 SHORT $LN13@scalar
  00068	68 ac 05 00 00	 push	 1452			; 000005acH
  0006d	56		 push	 esi
  0006e	e8 00 00 00 00	 call	 ??3@YAXPAXI@Z		; operator delete
  00073	83 c4 08	 add	 esp, 8
$LN13@scalar:
  00076	8b c6		 mov	 eax, esi
  00078	8b 4d f4	 mov	 ecx, DWORD PTR __$EHRec$[ebp]
  0007b	64 89 0d 00 00
	00 00		 mov	 DWORD PTR fs:0, ecx
  00082	59		 pop	 ecx
  00083	5e		 pop	 esi
  00084	8b e5		 mov	 esp, ebp
  00086	5d		 pop	 ebp
  00087	c2 04 00	 ret	 4
  0008a	cc		 int	 3
  0008b	cc		 int	 3
  0008c	cc		 int	 3
  0008d	cc		 int	 3
  0008e	cc		 int	 3
_TEXT	ENDS
;	COMDAT text$x
text$x	SEGMENT
__ehhandler$??_GCLoaderGridCtrl@@UAEPAXI@Z:
  00000	90		 npad	 1
  00001	90		 npad	 1
  00002	8b 54 24 08	 mov	 edx, DWORD PTR [esp+8]
  00006	8d 42 0c	 lea	 eax, DWORD PTR [edx+12]
  00009	8b 4a f8	 mov	 ecx, DWORD PTR [edx-8]
  0000c	33 c8		 xor	 ecx, eax
  0000e	e8 00 00 00 00	 call	 @__security_check_cookie@4
  00013	b8 00 00 00 00	 mov	 eax, OFFSET __ehfuncinfo$??_GCLoaderGridCtrl@@UAEPAXI@Z
  00018	e9 00 00 00 00	 jmp	 ___CxxFrameHandler3
text$x	ENDS
??_GCLoaderGridCtrl@@UAEPAXI@Z ENDP			; CLoaderGridCtrl::`scalar deleting destructor'
; Function compile flags: /Ogtp
; File D:\git\src\IBK\IBK_DRFN\ProjSrc\SrcDrfn\Chart\ExControl\Include\GirdLoadHelper.h
;	COMDAT ?LoadProcAddress@CLoaderGridCtrl@@UAEHXZ
_TEXT	SEGMENT
?LoadProcAddress@CLoaderGridCtrl@@UAEHXZ PROC		; CLoaderGridCtrl::LoadProcAddress, COMDAT
; _this$ = ecx

; 640  : 	{

  00000	57		 push	 edi
  00001	8b f9		 mov	 edi, ecx

; 641  : 		if(!m_hLib)

  00003	8b 47 04	 mov	 eax, DWORD PTR [edi+4]
  00006	85 c0		 test	 eax, eax
  00008	75 02		 jne	 SHORT $LN2@LoadProcAd
  0000a	5f		 pop	 edi

; 944  : 	}

  0000b	c3		 ret	 0
$LN2@LoadProcAd:
  0000c	56		 push	 esi

; 642  : 		{
; 643  : 			TRACE0("CLoaderGridCtrl GetProcAddress Load ");
; 644  : 			return FALSE;
; 645  : 		}
; 646  : 
; 647  : 		pActionControl	= (FpActionControl)::GetProcAddress(m_hLib, "Ex_ActionControl");

  0000d	8b 35 00 00 00
	00		 mov	 esi, DWORD PTR __imp__GetProcAddress@8
  00013	68 00 00 00 00	 push	 OFFSET ??_C@_0BB@JBDOCKKP@Ex_ActionControl@
  00018	50		 push	 eax
  00019	ff d6		 call	 esi

; 648  : 		pInitGridCtrl	= (FpInitGridCtrl)::GetProcAddress(m_hLib, "Ex_InitGridCtrl");

  0001b	68 00 00 00 00	 push	 OFFSET ??_C@_0BA@GMJHGOJC@Ex_InitGridCtrl@
  00020	ff 77 04	 push	 DWORD PTR [edi+4]
  00023	89 87 10 01 00
	00		 mov	 DWORD PTR [edi+272], eax
  00029	ff d6		 call	 esi

; 649  : 		pExitGridCtrl	= (FpExitGridCtrl)::GetProcAddress(m_hLib, "Ex_ExitGridCtrl");

  0002b	68 00 00 00 00	 push	 OFFSET ??_C@_0BA@BFAIJPHF@Ex_ExitGridCtrl@
  00030	ff 77 04	 push	 DWORD PTR [edi+4]
  00033	89 87 14 01 00
	00		 mov	 DWORD PTR [edi+276], eax
  00039	ff d6		 call	 esi

; 650  : 		pCreate	= (FpCreate)::GetProcAddress(m_hLib, "Ex_Create");

  0003b	68 00 00 00 00	 push	 OFFSET ??_C@_09JKICPNB@Ex_Create@
  00040	ff 77 04	 push	 DWORD PTR [edi+4]
  00043	89 87 18 01 00
	00		 mov	 DWORD PTR [edi+280], eax
  00049	ff d6		 call	 esi

; 651  : 		pGetRowCount	= (FpGetRowCount)::GetProcAddress(m_hLib, "Ex_GetRowCount");

  0004b	68 00 00 00 00	 push	 OFFSET ??_C@_0P@HLDJAFE@Ex_GetRowCount@
  00050	ff 77 04	 push	 DWORD PTR [edi+4]
  00053	89 87 1c 01 00
	00		 mov	 DWORD PTR [edi+284], eax
  00059	ff d6		 call	 esi

; 652  : 		pGetColumnCount	= (FpGetColumnCount)::GetProcAddress(m_hLib, "Ex_GetColumnCount");

  0005b	68 00 00 00 00	 push	 OFFSET ??_C@_0BC@IDEBPJNH@Ex_GetColumnCount@
  00060	ff 77 04	 push	 DWORD PTR [edi+4]
  00063	89 87 20 01 00
	00		 mov	 DWORD PTR [edi+288], eax
  00069	ff d6		 call	 esi

; 653  : 		pGetFixedRowCount	= (FpGetFixedRowCount)::GetProcAddress(m_hLib, "Ex_GetFixedRowCount");

  0006b	68 00 00 00 00	 push	 OFFSET ??_C@_0BE@BPKLHENI@Ex_GetFixedRowCount@
  00070	ff 77 04	 push	 DWORD PTR [edi+4]
  00073	89 87 24 01 00
	00		 mov	 DWORD PTR [edi+292], eax
  00079	ff d6		 call	 esi

; 654  : 		pGetFixedColumnCount	= (FpGetFixedColumnCount)::GetProcAddress(m_hLib, "Ex_GetFixedColumnCount");

  0007b	68 00 00 00 00	 push	 OFFSET ??_C@_0BH@ECBALFJF@Ex_GetFixedColumnCount@
  00080	ff 77 04	 push	 DWORD PTR [edi+4]
  00083	89 87 28 01 00
	00		 mov	 DWORD PTR [edi+296], eax
  00089	ff d6		 call	 esi

; 655  : 		pSetRowCount	= (FpSetRowCount)::GetProcAddress(m_hLib, "Ex_SetRowCount");

  0008b	68 00 00 00 00	 push	 OFFSET ??_C@_0P@IKNEGNH@Ex_SetRowCount@
  00090	ff 77 04	 push	 DWORD PTR [edi+4]
  00093	89 87 2c 01 00
	00		 mov	 DWORD PTR [edi+300], eax
  00099	ff d6		 call	 esi

; 656  : 		pSetColumnCount	= (FpSetColumnCount)::GetProcAddress(m_hLib, "Ex_SetColumnCount");

  0009b	68 00 00 00 00	 push	 OFFSET ??_C@_0BC@ENFPADPL@Ex_SetColumnCount@
  000a0	ff 77 04	 push	 DWORD PTR [edi+4]
  000a3	89 87 30 01 00
	00		 mov	 DWORD PTR [edi+304], eax
  000a9	ff d6		 call	 esi

; 657  : 		pSetFixedRowCount	= (FpSetFixedRowCount)::GetProcAddress(m_hLib, "Ex_SetFixedRowCount");

  000ab	68 00 00 00 00	 push	 OFFSET ??_C@_0BE@HLPCMKGK@Ex_SetFixedRowCount@
  000b0	ff 77 04	 push	 DWORD PTR [edi+4]
  000b3	89 87 34 01 00
	00		 mov	 DWORD PTR [edi+308], eax
  000b9	ff d6		 call	 esi

; 658  : 		pSetFixedColumnCount	= (FpSetFixedColumnCount)::GetProcAddress(m_hLib, "Ex_SetFixedColumnCount");

  000bb	68 00 00 00 00	 push	 OFFSET ??_C@_0BH@OMDLPFOJ@Ex_SetFixedColumnCount@
  000c0	ff 77 04	 push	 DWORD PTR [edi+4]
  000c3	89 87 38 01 00
	00		 mov	 DWORD PTR [edi+312], eax
  000c9	ff d6		 call	 esi

; 659  : 		pGetRowHeight	= (FpGetRowHeight)::GetProcAddress(m_hLib, "Ex_GetRowHeight");

  000cb	68 00 00 00 00	 push	 OFFSET ??_C@_0BA@EJOKICAO@Ex_GetRowHeight@
  000d0	ff 77 04	 push	 DWORD PTR [edi+4]
  000d3	89 87 3c 01 00
	00		 mov	 DWORD PTR [edi+316], eax
  000d9	ff d6		 call	 esi

; 660  : 		pSetRowHeight	= (FpSetRowHeight)::GetProcAddress(m_hLib, "Ex_SetRowHeight");

  000db	68 00 00 00 00	 push	 OFFSET ??_C@_0BA@DNFEEOEC@Ex_SetRowHeight@
  000e0	ff 77 04	 push	 DWORD PTR [edi+4]
  000e3	89 87 40 01 00
	00		 mov	 DWORD PTR [edi+320], eax
  000e9	ff d6		 call	 esi

; 661  : 		pGetColumnWidth	= (FpGetColumnWidth)::GetProcAddress(m_hLib, "Ex_GetColumnWidth");

  000eb	68 00 00 00 00	 push	 OFFSET ??_C@_0BC@ILCFAHPL@Ex_GetColumnWidth@
  000f0	ff 77 04	 push	 DWORD PTR [edi+4]
  000f3	89 87 44 01 00
	00		 mov	 DWORD PTR [edi+324], eax
  000f9	ff d6		 call	 esi

; 662  : 		pSetColumnWidth	= (FpSetColumnWidth)::GetProcAddress(m_hLib, "Ex_SetColumnWidth");

  000fb	68 00 00 00 00	 push	 OFFSET ??_C@_0BC@EFDLPNNH@Ex_SetColumnWidth@
  00100	ff 77 04	 push	 DWORD PTR [edi+4]
  00103	89 87 48 01 00
	00		 mov	 DWORD PTR [edi+328], eax
  00109	ff d6		 call	 esi

; 663  : 		pGetCellOrigin	= (FpGetCellOrigin)::GetProcAddress(m_hLib, "Ex_GetCellOrigin");

  0010b	68 00 00 00 00	 push	 OFFSET ??_C@_0BB@MGANLAPA@Ex_GetCellOrigin@
  00110	ff 77 04	 push	 DWORD PTR [edi+4]
  00113	89 87 4c 01 00
	00		 mov	 DWORD PTR [edi+332], eax
  00119	ff d6		 call	 esi

; 664  : 		pGetCellOrigin2	= (FpGetCellOrigin2)::GetProcAddress(m_hLib, "Ex_GetCellOrigin2");

  0011b	68 00 00 00 00	 push	 OFFSET ??_C@_0BC@FAALKLNN@Ex_GetCellOrigin2@
  00120	ff 77 04	 push	 DWORD PTR [edi+4]
  00123	89 87 50 01 00
	00		 mov	 DWORD PTR [edi+336], eax
  00129	ff d6		 call	 esi

; 665  : 		pGetCellRect	= (FpGetCellRect)::GetProcAddress(m_hLib, "Ex_GetCellRect");

  0012b	68 00 00 00 00	 push	 OFFSET ??_C@_0P@LPJLBNIC@Ex_GetCellRect@
  00130	ff 77 04	 push	 DWORD PTR [edi+4]
  00133	89 87 54 01 00
	00		 mov	 DWORD PTR [edi+340], eax
  00139	ff d6		 call	 esi

; 666  : 		pGetCellRect2	= (FpGetCellRect2)::GetProcAddress(m_hLib, "Ex_GetCellRect2");

  0013b	68 00 00 00 00	 push	 OFFSET ??_C@_0BA@OOHJCNGA@Ex_GetCellRect2@
  00140	ff 77 04	 push	 DWORD PTR [edi+4]
  00143	89 87 58 01 00
	00		 mov	 DWORD PTR [edi+344], eax
  00149	ff d6		 call	 esi

; 667  : 		pGetTextRect	= (FpGetTextRect)::GetProcAddress(m_hLib, "Ex_GetTextRect");

  0014b	68 00 00 00 00	 push	 OFFSET ??_C@_0P@LCOAKBB@Ex_GetTextRect@
  00150	ff 77 04	 push	 DWORD PTR [edi+4]
  00153	89 87 5c 01 00
	00		 mov	 DWORD PTR [edi+348], eax
  00159	ff d6		 call	 esi

; 668  : 		pGetTextRect2	= (FpGetTextRect2)::GetProcAddress(m_hLib, "Ex_GetTextRect2");

  0015b	68 00 00 00 00	 push	 OFFSET ??_C@_0BA@IHMLFKIJ@Ex_GetTextRect2@
  00160	ff 77 04	 push	 DWORD PTR [edi+4]
  00163	89 87 60 01 00
	00		 mov	 DWORD PTR [edi+352], eax
  00169	ff d6		 call	 esi

; 669  : 		pGetCellFromPt	= (FpGetCellFromPt)::GetProcAddress(m_hLib, "Ex_GetCellFromPt");

  0016b	68 00 00 00 00	 push	 OFFSET ??_C@_0BB@CIPPMECD@Ex_GetCellFromPt@
  00170	ff 77 04	 push	 DWORD PTR [edi+4]
  00173	89 87 64 01 00
	00		 mov	 DWORD PTR [edi+356], eax
  00179	ff d6		 call	 esi

; 670  : 		pGetFixedRowHeight	= (FpGetFixedRowHeight)::GetProcAddress(m_hLib, "Ex_GetFixedRowHeight");

  0017b	68 00 00 00 00	 push	 OFFSET ??_C@_0BF@KNPMFFOB@Ex_GetFixedRowHeight@
  00180	ff 77 04	 push	 DWORD PTR [edi+4]
  00183	89 87 68 01 00
	00		 mov	 DWORD PTR [edi+360], eax
  00189	ff d6		 call	 esi

; 671  : 		pGetFixedColumnWidth	= (FpGetFixedColumnWidth)::GetProcAddress(m_hLib, "Ex_GetFixedColumnWidth");

  0018b	68 00 00 00 00	 push	 OFFSET ??_C@_0BH@EKHEELLJ@Ex_GetFixedColumnWidth@
  00190	ff 77 04	 push	 DWORD PTR [edi+4]
  00193	89 87 6c 01 00
	00		 mov	 DWORD PTR [edi+364], eax
  00199	ff d6		 call	 esi

; 672  : 		pGetVirtualWidth	= (FpGetVirtualWidth)::GetProcAddress(m_hLib, "Ex_GetVirtualWidth");

  0019b	68 00 00 00 00	 push	 OFFSET ??_C@_0BD@DFAOHHGM@Ex_GetVirtualWidth@
  001a0	ff 77 04	 push	 DWORD PTR [edi+4]
  001a3	89 87 70 01 00
	00		 mov	 DWORD PTR [edi+368], eax
  001a9	ff d6		 call	 esi

; 673  : 		pGetVirtualHeight	= (FpGetVirtualHeight)::GetProcAddress(m_hLib, "Ex_GetVirtualHeight");

  001ab	68 00 00 00 00	 push	 OFFSET ??_C@_0BE@FDAKIPGK@Ex_GetVirtualHeight@
  001b0	ff 77 04	 push	 DWORD PTR [edi+4]
  001b3	89 87 74 01 00
	00		 mov	 DWORD PTR [edi+372], eax
  001b9	ff d6		 call	 esi

; 674  : 		pGetTextExtent	= (FpGetTextExtent)::GetProcAddress(m_hLib, "Ex_GetTextExtent");

  001bb	68 00 00 00 00	 push	 OFFSET ??_C@_0BB@JNECFDJF@Ex_GetTextExtent@
  001c0	ff 77 04	 push	 DWORD PTR [edi+4]
  001c3	89 87 78 01 00
	00		 mov	 DWORD PTR [edi+376], eax
  001c9	ff d6		 call	 esi

; 675  : 		pGetCellTextExtent	= (FpGetCellTextExtent)::GetProcAddress(m_hLib, "Ex_GetCellTextExtent");

  001cb	68 00 00 00 00	 push	 OFFSET ??_C@_0BF@FBJJOBBD@Ex_GetCellTextExtent@
  001d0	ff 77 04	 push	 DWORD PTR [edi+4]
  001d3	89 87 7c 01 00
	00		 mov	 DWORD PTR [edi+380], eax
  001d9	ff d6		 call	 esi

; 676  : 		pSetGridBkColor	= (FpSetGridBkColor)::GetProcAddress(m_hLib, "Ex_SetGridBkColor");

  001db	68 00 00 00 00	 push	 OFFSET ??_C@_0BC@HOEOKGMH@Ex_SetGridBkColor@
  001e0	ff 77 04	 push	 DWORD PTR [edi+4]
  001e3	89 87 80 01 00
	00		 mov	 DWORD PTR [edi+384], eax
  001e9	ff d6		 call	 esi

; 677  : 		pGetGridBkColor	= (FpGetGridBkColor)::GetProcAddress(m_hLib, "Ex_GetGridBkColor");

  001eb	68 00 00 00 00	 push	 OFFSET ??_C@_0BC@LAFAFMOL@Ex_GetGridBkColor@
  001f0	ff 77 04	 push	 DWORD PTR [edi+4]
  001f3	89 87 84 01 00
	00		 mov	 DWORD PTR [edi+388], eax
  001f9	ff d6		 call	 esi

; 678  : 		pSetGridLineColor	= (FpSetGridLineColor)::GetProcAddress(m_hLib, "Ex_SetGridLineColor");

  001fb	68 00 00 00 00	 push	 OFFSET ??_C@_0BE@FFIMAJMA@Ex_SetGridLineColor@
  00200	ff 77 04	 push	 DWORD PTR [edi+4]
  00203	89 87 88 01 00
	00		 mov	 DWORD PTR [edi+392], eax
  00209	ff d6		 call	 esi

; 679  : 		pGetGridLineColor	= (FpGetGridLineColor)::GetProcAddress(m_hLib, "Ex_GetGridLineColor");

  0020b	68 00 00 00 00	 push	 OFFSET ??_C@_0BE@DBNFLHHC@Ex_GetGridLineColor@
  00210	ff 77 04	 push	 DWORD PTR [edi+4]
  00213	89 87 8c 01 00
	00		 mov	 DWORD PTR [edi+396], eax
  00219	ff d6		 call	 esi

; 680  : 		pSetTitleTipBackClr	= (FpSetTitleTipBackClr)::GetProcAddress(m_hLib, "Ex_SetTitleTipBackClr");

  0021b	68 00 00 00 00	 push	 OFFSET ??_C@_0BG@ICOJDEPG@Ex_SetTitleTipBackClr@
  00220	ff 77 04	 push	 DWORD PTR [edi+4]
  00223	89 87 90 01 00
	00		 mov	 DWORD PTR [edi+400], eax
  00229	ff d6		 call	 esi

; 681  : 		pGetTitleTipBackClr	= (FpGetTitleTipBackClr)::GetProcAddress(m_hLib, "Ex_GetTitleTipBackClr");

  0022b	68 00 00 00 00	 push	 OFFSET ??_C@_0BG@HIMDACBO@Ex_GetTitleTipBackClr@
  00230	ff 77 04	 push	 DWORD PTR [edi+4]
  00233	89 87 94 01 00
	00		 mov	 DWORD PTR [edi+404], eax
  00239	ff d6		 call	 esi

; 682  : 		pSetTitleTipTextClr	= (FpSetTitleTipTextClr)::GetProcAddress(m_hLib, "Ex_SetTitleTipTextClr");

  0023b	68 00 00 00 00	 push	 OFFSET ??_C@_0BG@EHNDNKEC@Ex_SetTitleTipTextClr@
  00240	ff 77 04	 push	 DWORD PTR [edi+4]
  00243	89 87 98 01 00
	00		 mov	 DWORD PTR [edi+408], eax
  00249	ff d6		 call	 esi

; 683  : 		pGetTitleTipTextClr	= (FpGetTitleTipTextClr)::GetProcAddress(m_hLib, "Ex_GetTitleTipTextClr");

  0024b	68 00 00 00 00	 push	 OFFSET ??_C@_0BG@LNPJOMKK@Ex_GetTitleTipTextClr@
  00250	ff 77 04	 push	 DWORD PTR [edi+4]
  00253	89 87 9c 01 00
	00		 mov	 DWORD PTR [edi+412], eax
  00259	ff d6		 call	 esi

; 684  : 		pSetFixedGridLineColor_Light	= (FpSetFixedGridLineColor_Light)::GetProcAddress(m_hLib, "Ex_SetFixedGridLineColor_Light");

  0025b	68 00 00 00 00	 push	 OFFSET ??_C@_0BP@KEFBPEGH@Ex_SetFixedGridLineColor_Light@
  00260	ff 77 04	 push	 DWORD PTR [edi+4]
  00263	89 87 a0 01 00
	00		 mov	 DWORD PTR [edi+416], eax
  00269	ff d6		 call	 esi

; 685  : 		pSetFixedGridLineColor_Dark	= (FpSetFixedGridLineColor_Dark)::GetProcAddress(m_hLib, "Ex_SetFixedGridLineColor_Dark");

  0026b	68 00 00 00 00	 push	 OFFSET ??_C@_0BO@BDFMOODF@Ex_SetFixedGridLineColor_Dark@
  00270	ff 77 04	 push	 DWORD PTR [edi+4]
  00273	89 87 a4 01 00
	00		 mov	 DWORD PTR [edi+420], eax
  00279	ff d6		 call	 esi

; 686  : 		pGetFixedGridLineColor_Light	= (FpGetFixedGridLineColor_Light)::GetProcAddress(m_hLib, "Ex_GetFixedGridLineColor_Light");

  0027b	68 00 00 00 00	 push	 OFFSET ??_C@_0BP@LJNJNBMD@Ex_GetFixedGridLineColor_Light@
  00280	ff 77 04	 push	 DWORD PTR [edi+4]
  00283	89 87 a8 01 00
	00		 mov	 DWORD PTR [edi+424], eax
  00289	ff d6		 call	 esi
  0028b	89 87 ac 01 00
	00		 mov	 DWORD PTR [edi+428], eax

; 687  : 		pGetFixedGridLineColor_Dark	= (FpGetFixedGridLineColor_Dark)::GetProcAddress(m_hLib, "Ex_GetFixedGridLineColor_Dark");

  00291	68 00 00 00 00	 push	 OFFSET ??_C@_0BO@CMGJCOCF@Ex_GetFixedGridLineColor_Dark@
  00296	ff 77 04	 push	 DWORD PTR [edi+4]
  00299	ff d6		 call	 esi

; 688  : 		pSetHighlightColor	= (FpSetHighlightColor)::GetProcAddress(m_hLib, "Ex_SetHighlightColor");

  0029b	68 00 00 00 00	 push	 OFFSET ??_C@_0BF@OJKNEHDB@Ex_SetHighlightColor@
  002a0	ff 77 04	 push	 DWORD PTR [edi+4]
  002a3	89 87 b0 01 00
	00		 mov	 DWORD PTR [edi+432], eax
  002a9	ff d6		 call	 esi

; 689  : 		pSetHighlightTextColor	= (FpSetHighlightTextColor)::GetProcAddress(m_hLib, "Ex_SetHighlightTextColor");

  002ab	68 00 00 00 00	 push	 OFFSET ??_C@_0BJ@MJHPJAFF@Ex_SetHighlightTextColor@
  002b0	ff 77 04	 push	 DWORD PTR [edi+4]
  002b3	89 87 b4 01 00
	00		 mov	 DWORD PTR [edi+436], eax
  002b9	ff d6		 call	 esi

; 690  : 		pGetHighlightColor	= (FpGetHighlightColor)::GetProcAddress(m_hLib, "Ex_GetHighlightColor");

  002bb	68 00 00 00 00	 push	 OFFSET ??_C@_0BF@MMKGMMCP@Ex_GetHighlightColor@
  002c0	ff 77 04	 push	 DWORD PTR [edi+4]
  002c3	89 87 b8 01 00
	00		 mov	 DWORD PTR [edi+440], eax
  002c9	ff d6		 call	 esi

; 691  : 		pGetHighlightTextColor	= (FpGetHighlightTextColor)::GetProcAddress(m_hLib, "Ex_GetHighlightTextColor");

  002cb	68 00 00 00 00	 push	 OFFSET ??_C@_0BJ@DMCJEJBE@Ex_GetHighlightTextColor@
  002d0	ff 77 04	 push	 DWORD PTR [edi+4]
  002d3	89 87 bc 01 00
	00		 mov	 DWORD PTR [edi+444], eax
  002d9	ff d6		 call	 esi

; 692  : 		pSetUseHighlightText	= (FpSetUseHighlightText)::GetProcAddress(m_hLib, "Ex_SetUseHighlightText");

  002db	68 00 00 00 00	 push	 OFFSET ??_C@_0BH@DCGOGNFA@Ex_SetUseHighlightText@
  002e0	ff 77 04	 push	 DWORD PTR [edi+4]
  002e3	89 87 c0 01 00
	00		 mov	 DWORD PTR [edi+448], eax
  002e9	ff d6		 call	 esi

; 693  : 		pGetUseHighlightText	= (FpGetUseHighlightText)::GetProcAddress(m_hLib, "Ex_GetUseHighlightText");

  002eb	68 00 00 00 00	 push	 OFFSET ??_C@_0BH@JMEFCNCM@Ex_GetUseHighlightText@
  002f0	ff 77 04	 push	 DWORD PTR [edi+4]
  002f3	89 87 c4 01 00
	00		 mov	 DWORD PTR [edi+452], eax
  002f9	ff d6		 call	 esi

; 694  : 		pSetFixedRowSelectionHighlight	= (FpSetFixedRowSelectionHighlight)::GetProcAddress(m_hLib, "Ex_SetFixedRowSelectionHighlight");

  002fb	68 00 00 00 00	 push	 OFFSET ??_C@_0CB@NOMIDOOP@Ex_SetFixedRowSelectionHighligh@
  00300	ff 77 04	 push	 DWORD PTR [edi+4]
  00303	89 87 c8 01 00
	00		 mov	 DWORD PTR [edi+456], eax
  00309	ff d6		 call	 esi

; 695  : 		pGetFixedRowSelectionHighlight	= (FpGetFixedRowSelectionHighlight)::GetProcAddress(m_hLib, "Ex_GetFixedRowSelectionHighlight");

  0030b	68 00 00 00 00	 push	 OFFSET ??_C@_0CB@FPKHIOMN@Ex_GetFixedRowSelectionHighligh@
  00310	ff 77 04	 push	 DWORD PTR [edi+4]
  00313	89 87 cc 01 00
	00		 mov	 DWORD PTR [edi+460], eax
  00319	ff d6		 call	 esi

; 696  : 		pSetTextColor	= (FpSetTextColor)::GetProcAddress(m_hLib, "Ex_SetTextColor");

  0031b	68 00 00 00 00	 push	 OFFSET ??_C@_0BA@MJCGEMJI@Ex_SetTextColor@
  00320	ff 77 04	 push	 DWORD PTR [edi+4]
  00323	89 87 d0 01 00
	00		 mov	 DWORD PTR [edi+464], eax
  00329	ff d6		 call	 esi

; 697  : 		pGetTextColor	= (FpGetTextColor)::GetProcAddress(m_hLib, "Ex_GetTextColor");

  0032b	68 00 00 00 00	 push	 OFFSET ??_C@_0BA@LNJIIANE@Ex_GetTextColor@
  00330	ff 77 04	 push	 DWORD PTR [edi+4]
  00333	89 87 d4 01 00
	00		 mov	 DWORD PTR [edi+468], eax
  00339	ff d6		 call	 esi

; 698  : 		pSetTextBkColor	= (FpSetTextBkColor)::GetProcAddress(m_hLib, "Ex_SetTextBkColor");

  0033b	68 00 00 00 00	 push	 OFFSET ??_C@_0BC@OGKJOACE@Ex_SetTextBkColor@
  00340	ff 77 04	 push	 DWORD PTR [edi+4]
  00343	89 87 d8 01 00
	00		 mov	 DWORD PTR [edi+472], eax
  00349	ff d6		 call	 esi

; 699  : 		pGetTextBkColor	= (FpGetTextBkColor)::GetProcAddress(m_hLib, "Ex_GetTextBkColor");

  0034b	68 00 00 00 00	 push	 OFFSET ??_C@_0BC@CILHBKAI@Ex_GetTextBkColor@
  00350	ff 77 04	 push	 DWORD PTR [edi+4]
  00353	89 87 dc 01 00
	00		 mov	 DWORD PTR [edi+476], eax
  00359	ff d6		 call	 esi

; 700  : 		pSetFixedTextColor	= (FpSetFixedTextColor)::GetProcAddress(m_hLib, "Ex_SetFixedTextColor");

  0035b	68 00 00 00 00	 push	 OFFSET ??_C@_0BF@HMIFNMCF@Ex_SetFixedTextColor@
  00360	ff 77 04	 push	 DWORD PTR [edi+4]
  00363	89 87 e0 01 00
	00		 mov	 DWORD PTR [edi+480], eax
  00369	ff d6		 call	 esi

; 701  : 		pGetFixedTextColor	= (FpGetFixedTextColor)::GetProcAddress(m_hLib, "Ex_GetFixedTextColor");

  0036b	68 00 00 00 00	 push	 OFFSET ??_C@_0BF@FJIOFHDL@Ex_GetFixedTextColor@
  00370	ff 77 04	 push	 DWORD PTR [edi+4]
  00373	89 87 e4 01 00
	00		 mov	 DWORD PTR [edi+484], eax
  00379	ff d6		 call	 esi

; 702  : 		pSetFixedBkColor	= (FpSetFixedBkColor)::GetProcAddress(m_hLib, "Ex_SetFixedBkColor");

  0037b	68 00 00 00 00	 push	 OFFSET ??_C@_0BD@OCNEDHHM@Ex_SetFixedBkColor@
  00380	ff 77 04	 push	 DWORD PTR [edi+4]
  00383	89 87 e8 01 00
	00		 mov	 DWORD PTR [edi+488], eax
  00389	ff d6		 call	 esi

; 703  : 		pGetFixedBkColor	= (FpGetFixedBkColor)::GetProcAddress(m_hLib, "Ex_GetFixedBkColor");

  0038b	68 00 00 00 00	 push	 OFFSET ??_C@_0BD@NAMCEFGF@Ex_GetFixedBkColor@
  00390	ff 77 04	 push	 DWORD PTR [edi+4]
  00393	89 87 ec 01 00
	00		 mov	 DWORD PTR [edi+492], eax
  00399	ff d6		 call	 esi

; 704  : 		pSetGridColor	= (FpSetGridColor)::GetProcAddress(m_hLib, "Ex_SetGridColor");

  0039b	68 00 00 00 00	 push	 OFFSET ??_C@_0BA@BKNBPELA@Ex_SetGridColor@
  003a0	ff 77 04	 push	 DWORD PTR [edi+4]
  003a3	89 87 f0 01 00
	00		 mov	 DWORD PTR [edi+496], eax
  003a9	ff d6		 call	 esi

; 705  : 		pGetGridColor	= (FpGetGridColor)::GetProcAddress(m_hLib, "Ex_GetGridColor");

  003ab	68 00 00 00 00	 push	 OFFSET ??_C@_0BA@GOGPDIPM@Ex_GetGridColor@
  003b0	ff 77 04	 push	 DWORD PTR [edi+4]
  003b3	89 87 f4 01 00
	00		 mov	 DWORD PTR [edi+500], eax
  003b9	ff d6		 call	 esi

; 706  : 		pSetBkColor	= (FpSetBkColor)::GetProcAddress(m_hLib, "Ex_SetBkColor");

  003bb	68 00 00 00 00	 push	 OFFSET ??_C@_0O@GBEOAJPL@Ex_SetBkColor@
  003c0	ff 77 04	 push	 DWORD PTR [edi+4]
  003c3	89 87 f8 01 00
	00		 mov	 DWORD PTR [edi+504], eax
  003c9	ff d6		 call	 esi
  003cb	89 87 fc 01 00
	00		 mov	 DWORD PTR [edi+508], eax

; 707  : 		pGetBkColor	= (FpGetBkColor)::GetProcAddress(m_hLib, "Ex_GetBkColor");

  003d1	68 00 00 00 00	 push	 OFFSET ??_C@_0O@HPGBLOLC@Ex_GetBkColor@
  003d6	ff 77 04	 push	 DWORD PTR [edi+4]
  003d9	ff d6		 call	 esi

; 708  : 		pSetDefCellMargin	= (FpSetDefCellMargin)::GetProcAddress(m_hLib, "Ex_SetDefCellMargin");

  003db	68 00 00 00 00	 push	 OFFSET ??_C@_0BE@JNONMFIP@Ex_SetDefCellMargin@
  003e0	ff 77 04	 push	 DWORD PTR [edi+4]
  003e3	89 87 00 02 00
	00		 mov	 DWORD PTR [edi+512], eax
  003e9	ff d6		 call	 esi

; 709  : 		pGetDefCellMargin	= (FpGetDefCellMargin)::GetProcAddress(m_hLib, "Ex_GetDefCellMargin");

  003eb	68 00 00 00 00	 push	 OFFSET ??_C@_0BE@PJLEHLDN@Ex_GetDefCellMargin@
  003f0	ff 77 04	 push	 DWORD PTR [edi+4]
  003f3	89 87 04 02 00
	00		 mov	 DWORD PTR [edi+516], eax
  003f9	ff d6		 call	 esi

; 710  : 		pGetDefCellHeight	= (FpGetDefCellHeight)::GetProcAddress(m_hLib, "Ex_GetDefCellHeight");

  003fb	68 00 00 00 00	 push	 OFFSET ??_C@_0BE@JGMCCAPD@Ex_GetDefCellHeight@
  00400	ff 77 04	 push	 DWORD PTR [edi+4]
  00403	89 87 08 02 00
	00		 mov	 DWORD PTR [edi+520], eax
  00409	ff d6		 call	 esi

; 711  : 		pSetDefCellHeight	= (FpSetDefCellHeight)::GetProcAddress(m_hLib, "Ex_SetDefCellHeight");

  0040b	68 00 00 00 00	 push	 OFFSET ??_C@_0BE@PCJLJOEB@Ex_SetDefCellHeight@
  00410	ff 77 04	 push	 DWORD PTR [edi+4]
  00413	89 87 0c 02 00
	00		 mov	 DWORD PTR [edi+524], eax
  00419	ff d6		 call	 esi

; 712  : 		pGetDefCellWidth	= (FpGetDefCellWidth)::GetProcAddress(m_hLib, "Ex_GetDefCellWidth");

  0041b	68 00 00 00 00	 push	 OFFSET ??_C@_0BD@EHJKFANE@Ex_GetDefCellWidth@
  00420	ff 77 04	 push	 DWORD PTR [edi+4]
  00423	89 87 10 02 00
	00		 mov	 DWORD PTR [edi+528], eax
  00429	ff d6		 call	 esi

; 713  : 		pSetDefCellWidth	= (FpSetDefCellWidth)::GetProcAddress(m_hLib, "Ex_SetDefCellWidth");

  0042b	68 00 00 00 00	 push	 OFFSET ??_C@_0BD@HFIMCCMN@Ex_SetDefCellWidth@
  00430	ff 77 04	 push	 DWORD PTR [edi+4]
  00433	89 87 14 02 00
	00		 mov	 DWORD PTR [edi+532], eax
  00439	ff d6		 call	 esi

; 714  : 		pGetSelectedCount	= (FpGetSelectedCount)::GetProcAddress(m_hLib, "Ex_GetSelectedCount");

  0043b	68 00 00 00 00	 push	 OFFSET ??_C@_0BE@LMNPDDGK@Ex_GetSelectedCount@
  00440	ff 77 04	 push	 DWORD PTR [edi+4]
  00443	89 87 18 02 00
	00		 mov	 DWORD PTR [edi+536], eax
  00449	ff d6		 call	 esi

; 715  : 		pSetFocusCell1	= (FpSetFocusCell1)::GetProcAddress(m_hLib, "Ex_SetFocusCell1");

  0044b	68 00 00 00 00	 push	 OFFSET ??_C@_0BB@OKNHCIID@Ex_SetFocusCell1@
  00450	ff 77 04	 push	 DWORD PTR [edi+4]
  00453	89 87 1c 02 00
	00		 mov	 DWORD PTR [edi+540], eax
  00459	ff d6		 call	 esi

; 716  : 		pSetFocusCell2	= (FpSetFocusCell2)::GetProcAddress(m_hLib, "Ex_SetFocusCell2");

  0045b	68 00 00 00 00	 push	 OFFSET ??_C@_0BB@MBPKHLEA@Ex_SetFocusCell2@
  00460	ff 77 04	 push	 DWORD PTR [edi+4]
  00463	89 87 20 02 00
	00		 mov	 DWORD PTR [edi+544], eax
  00469	ff d6		 call	 esi

; 717  : 		pGetFocusCell	= (FpGetFocusCell)::GetProcAddress(m_hLib, "Ex_GetFocusCell");

  0046b	68 00 00 00 00	 push	 OFFSET ??_C@_0BA@CHAPHGPC@Ex_GetFocusCell@
  00470	ff 77 04	 push	 DWORD PTR [edi+4]
  00473	89 87 24 02 00
	00		 mov	 DWORD PTR [edi+548], eax
  00479	ff d6		 call	 esi

; 718  : 		pSetVirtualMode	= (FpSetVirtualMode)::GetProcAddress(m_hLib, "Ex_SetVirtualMode");

  0047b	68 00 00 00 00	 push	 OFFSET ??_C@_0BC@GKEKHGIB@Ex_SetVirtualMode@
  00480	ff 77 04	 push	 DWORD PTR [edi+4]
  00483	89 87 28 02 00
	00		 mov	 DWORD PTR [edi+552], eax
  00489	ff d6		 call	 esi

; 719  : 		pGetVirtualMode	= (FpGetVirtualMode)::GetProcAddress(m_hLib, "Ex_GetVirtualMode");

  0048b	68 00 00 00 00	 push	 OFFSET ??_C@_0BC@KEFEIMKN@Ex_GetVirtualMode@
  00490	ff 77 04	 push	 DWORD PTR [edi+4]
  00493	89 87 2c 02 00
	00		 mov	 DWORD PTR [edi+556], eax
  00499	ff d6		 call	 esi

; 720  : 		pSetCallbackFunc	= (FpSetCallbackFunc)::GetProcAddress(m_hLib, "Ex_SetCallbackFunc");

  0049b	68 00 00 00 00	 push	 OFFSET ??_C@_0BD@HEOFKHFG@Ex_SetCallbackFunc@
  004a0	ff 77 04	 push	 DWORD PTR [edi+4]
  004a3	89 87 30 02 00
	00		 mov	 DWORD PTR [edi+560], eax
  004a9	ff d6		 call	 esi

; 721  : 		pGetCallbackFunc	= (FpGetCallbackFunc)::GetProcAddress(m_hLib, "Ex_GetCallbackFunc");

  004ab	68 00 00 00 00	 push	 OFFSET ??_C@_0BD@EGPDNFEP@Ex_GetCallbackFunc@
  004b0	ff 77 04	 push	 DWORD PTR [edi+4]
  004b3	89 87 34 02 00
	00		 mov	 DWORD PTR [edi+564], eax
  004b9	ff d6		 call	 esi

; 722  : 		pSetImageList	= (FpSetImageList)::GetProcAddress(m_hLib, "Ex_SetImageList");

  004bb	68 00 00 00 00	 push	 OFFSET ??_C@_0BA@LGEAPGNE@Ex_SetImageList@
  004c0	ff 77 04	 push	 DWORD PTR [edi+4]
  004c3	89 87 38 02 00
	00		 mov	 DWORD PTR [edi+568], eax
  004c9	ff d6		 call	 esi

; 723  : 		pGetImageList	= (FpGetImageList)::GetProcAddress(m_hLib, "Ex_GetImageList");

  004cb	68 00 00 00 00	 push	 OFFSET ??_C@_0BA@MCPODKJI@Ex_GetImageList@
  004d0	ff 77 04	 push	 DWORD PTR [edi+4]
  004d3	89 87 3c 02 00
	00		 mov	 DWORD PTR [edi+572], eax
  004d9	ff d6		 call	 esi

; 724  : 		pSetGridLines	= (FpSetGridLines)::GetProcAddress(m_hLib, "Ex_SetGridLines");

  004db	68 00 00 00 00	 push	 OFFSET ??_C@_0BA@NKECMPNJ@Ex_SetGridLines@
  004e0	ff 77 04	 push	 DWORD PTR [edi+4]
  004e3	89 87 40 02 00
	00		 mov	 DWORD PTR [edi+576], eax
  004e9	ff d6		 call	 esi

; 725  : 		pGetGridLines	= (FpGetGridLines)::GetProcAddress(m_hLib, "Ex_GetGridLines");

  004eb	68 00 00 00 00	 push	 OFFSET ??_C@_0BA@KOPMADJF@Ex_GetGridLines@
  004f0	ff 77 04	 push	 DWORD PTR [edi+4]
  004f3	89 87 44 02 00
	00		 mov	 DWORD PTR [edi+580], eax
  004f9	ff d6		 call	 esi

; 726  : 		pSetEditable	= (FpSetEditable)::GetProcAddress(m_hLib, "Ex_SetEditable");

  004fb	68 00 00 00 00	 push	 OFFSET ??_C@_0P@JBFLIDIG@Ex_SetEditable@
  00500	ff 77 04	 push	 DWORD PTR [edi+4]
  00503	89 87 48 02 00
	00		 mov	 DWORD PTR [edi+584], eax
  00509	ff d6		 call	 esi

; 727  : 		pIsEditable	= (FpIsEditable)::GetProcAddress(m_hLib, "Ex_IsEditable");

  0050b	68 00 00 00 00	 push	 OFFSET ??_C@_0O@NHDOAOPK@Ex_IsEditable@
  00510	ff 77 04	 push	 DWORD PTR [edi+4]
  00513	89 87 4c 02 00
	00		 mov	 DWORD PTR [edi+588], eax
  00519	ff d6		 call	 esi

; 728  : 		pSetListMode	= (FpSetListMode)::GetProcAddress(m_hLib, "Ex_SetListMode");

  0051b	68 00 00 00 00	 push	 OFFSET ??_C@_0P@JNBLKIOM@Ex_SetListMode@
  00520	ff 77 04	 push	 DWORD PTR [edi+4]
  00523	89 87 50 02 00
	00		 mov	 DWORD PTR [edi+592], eax
  00529	ff d6		 call	 esi

; 729  : 		pGetListMode	= (FpGetListMode)::GetProcAddress(m_hLib, "Ex_GetListMode");

  0052b	68 00 00 00 00	 push	 OFFSET ??_C@_0P@JCAFHOGP@Ex_GetListMode@
  00530	ff 77 04	 push	 DWORD PTR [edi+4]
  00533	89 87 54 02 00
	00		 mov	 DWORD PTR [edi+596], eax
  00539	ff d6		 call	 esi

; 730  : 		pSetSingleRowSelection	= (FpSetSingleRowSelection)::GetProcAddress(m_hLib, "Ex_SetSingleRowSelection");

  0053b	68 00 00 00 00	 push	 OFFSET ??_C@_0BJ@FIPOCOBD@Ex_SetSingleRowSelection@
  00540	ff 77 04	 push	 DWORD PTR [edi+4]
  00543	89 87 58 02 00
	00		 mov	 DWORD PTR [edi+600], eax
  00549	ff d6		 call	 esi

; 731  : 		pGetSingleRowSelection	= (FpGetSingleRowSelection)::GetProcAddress(m_hLib, "Ex_GetSingleRowSelection");

  0054b	68 00 00 00 00	 push	 OFFSET ??_C@_0BJ@KNKIPHFC@Ex_GetSingleRowSelection@
  00550	ff 77 04	 push	 DWORD PTR [edi+4]
  00553	89 87 5c 02 00
	00		 mov	 DWORD PTR [edi+604], eax
  00559	ff d6		 call	 esi

; 732  : 		pSetSingleColSelection	= (FpSetSingleColSelection)::GetProcAddress(m_hLib, "Ex_SetSingleColSelection");

  0055b	68 00 00 00 00	 push	 OFFSET ??_C@_0BJ@LMLIBCMD@Ex_SetSingleColSelection@
  00560	ff 77 04	 push	 DWORD PTR [edi+4]
  00563	89 87 60 02 00
	00		 mov	 DWORD PTR [edi+608], eax
  00569	ff d6		 call	 esi

; 733  : 		pGetSingleColSelection	= (FpGetSingleColSelection)::GetProcAddress(m_hLib, "Ex_GetSingleColSelection");

  0056b	68 00 00 00 00	 push	 OFFSET ??_C@_0BJ@EJOOMLIC@Ex_GetSingleColSelection@
  00570	ff 77 04	 push	 DWORD PTR [edi+4]
  00573	89 87 64 02 00
	00		 mov	 DWORD PTR [edi+612], eax
  00579	ff d6		 call	 esi

; 734  : 		pEnableSelection	= (FpEnableSelection)::GetProcAddress(m_hLib, "Ex_EnableSelection");

  0057b	68 00 00 00 00	 push	 OFFSET ??_C@_0BD@OKOBKIIJ@Ex_EnableSelection@
  00580	ff 77 04	 push	 DWORD PTR [edi+4]
  00583	89 87 68 02 00
	00		 mov	 DWORD PTR [edi+616], eax
  00589	ff d6		 call	 esi

; 735  : 		pIsSelectable	= (FpIsSelectable)::GetProcAddress(m_hLib, "Ex_IsSelectable");

  0058b	68 00 00 00 00	 push	 OFFSET ??_C@_0BA@CEPMEDED@Ex_IsSelectable@
  00590	ff 77 04	 push	 DWORD PTR [edi+4]
  00593	89 87 6c 02 00
	00		 mov	 DWORD PTR [edi+620], eax
  00599	ff d6		 call	 esi

; 736  : 		pSetFixedColumnSelection	= (FpSetFixedColumnSelection)::GetProcAddress(m_hLib, "Ex_SetFixedColumnSelection");

  0059b	68 00 00 00 00	 push	 OFFSET ??_C@_0BL@LCFPINPP@Ex_SetFixedColumnSelection@
  005a0	ff 77 04	 push	 DWORD PTR [edi+4]
  005a3	89 87 70 02 00
	00		 mov	 DWORD PTR [edi+624], eax
  005a9	ff d6		 call	 esi

; 737  : 		pGetFixedColumnSelection	= (FpGetFixedColumnSelection)::GetProcAddress(m_hLib, "Ex_GetFixedColumnSelection");

  005ab	68 00 00 00 00	 push	 OFFSET ??_C@_0BL@KEDCGMJN@Ex_GetFixedColumnSelection@
  005b0	ff 77 04	 push	 DWORD PTR [edi+4]
  005b3	89 87 74 02 00
	00		 mov	 DWORD PTR [edi+628], eax
  005b9	ff d6		 call	 esi

; 738  : 		pSetFixedRowSelection	= (FpSetFixedRowSelection)::GetProcAddress(m_hLib, "Ex_SetFixedRowSelection");

  005bb	68 00 00 00 00	 push	 OFFSET ??_C@_0BI@BGNHFMGH@Ex_SetFixedRowSelection@
  005c0	ff 77 04	 push	 DWORD PTR [edi+4]
  005c3	89 87 78 02 00
	00		 mov	 DWORD PTR [edi+632], eax
  005c9	ff d6		 call	 esi

; 739  : 		pGetFixedRowSelection	= (FpGetFixedRowSelection)::GetProcAddress(m_hLib, "Ex_GetFixedRowSelection");

  005cb	68 00 00 00 00	 push	 OFFSET ??_C@_0BI@EPMKEKDA@Ex_GetFixedRowSelection@
  005d0	ff 77 04	 push	 DWORD PTR [edi+4]
  005d3	89 87 7c 02 00
	00		 mov	 DWORD PTR [edi+636], eax
  005d9	ff d6		 call	 esi

; 740  : 		pEnableDragAndDrop	= (FpEnableDragAndDrop)::GetProcAddress(m_hLib, "Ex_EnableDragAndDrop");

  005db	68 00 00 00 00	 push	 OFFSET ??_C@_0BF@BCAACCJI@Ex_EnableDragAndDrop@
  005e0	ff 77 04	 push	 DWORD PTR [edi+4]
  005e3	89 87 80 02 00
	00		 mov	 DWORD PTR [edi+640], eax
  005e9	ff d6		 call	 esi

; 741  : 		pGetDragAndDrop	= (FpGetDragAndDrop)::GetProcAddress(m_hLib, "Ex_GetDragAndDrop");

  005eb	68 00 00 00 00	 push	 OFFSET ??_C@_0BC@BPGLLDNL@Ex_GetDragAndDrop@
  005f0	ff 77 04	 push	 DWORD PTR [edi+4]
  005f3	89 87 84 02 00
	00		 mov	 DWORD PTR [edi+644], eax
  005f9	ff d6		 call	 esi

; 742  : 		pSetRowResize	= (FpSetRowResize)::GetProcAddress(m_hLib, "Ex_SetRowResize");

  005fb	68 00 00 00 00	 push	 OFFSET ??_C@_0BA@HIAOCBNM@Ex_SetRowResize@
  00600	ff 77 04	 push	 DWORD PTR [edi+4]
  00603	89 87 88 02 00
	00		 mov	 DWORD PTR [edi+648], eax
  00609	ff d6		 call	 esi

; 743  : 		pGetRowResize	= (FpGetRowResize)::GetProcAddress(m_hLib, "Ex_GetRowResize");

  0060b	68 00 00 00 00	 push	 OFFSET ??_C@_0BA@MLAONJA@Ex_GetRowResize@
  00610	89 87 8c 02 00
	00		 mov	 DWORD PTR [edi+652], eax
  00616	ff 77 04	 push	 DWORD PTR [edi+4]
  00619	ff d6		 call	 esi

; 744  : 		pSetColumnResize	= (FpSetColumnResize)::GetProcAddress(m_hLib, "Ex_SetColumnResize");

  0061b	68 00 00 00 00	 push	 OFFSET ??_C@_0BD@EKJDLPHK@Ex_SetColumnResize@
  00620	89 87 90 02 00
	00		 mov	 DWORD PTR [edi+656], eax
  00626	ff 77 04	 push	 DWORD PTR [edi+4]
  00629	ff d6		 call	 esi

; 745  : 		pGetColumnResize	= (FpGetColumnResize)::GetProcAddress(m_hLib, "Ex_GetColumnResize");

  0062b	68 00 00 00 00	 push	 OFFSET ??_C@_0BD@HIIFMNGD@Ex_GetColumnResize@
  00630	89 87 94 02 00
	00		 mov	 DWORD PTR [edi+660], eax
  00636	ff 77 04	 push	 DWORD PTR [edi+4]
  00639	ff d6		 call	 esi

; 746  : 		pSetHeaderSort	= (FpSetHeaderSort)::GetProcAddress(m_hLib, "Ex_SetHeaderSort");

  0063b	68 00 00 00 00	 push	 OFFSET ??_C@_0BB@FNCOCAHB@Ex_SetHeaderSort@
  00640	89 87 98 02 00
	00		 mov	 DWORD PTR [edi+664], eax
  00646	ff 77 04	 push	 DWORD PTR [edi+4]
  00649	ff d6		 call	 esi

; 747  : 		pGetHeaderSort	= (FpGetHeaderSort)::GetProcAddress(m_hLib, "Ex_GetHeaderSort");

  0064b	68 00 00 00 00	 push	 OFFSET ??_C@_0BB@CCDAJDAG@Ex_GetHeaderSort@
  00650	89 87 9c 02 00
	00		 mov	 DWORD PTR [edi+668], eax
  00656	ff 77 04	 push	 DWORD PTR [edi+4]
  00659	ff d6		 call	 esi

; 748  : 		pSetHandleTabKey	= (FpSetHandleTabKey)::GetProcAddress(m_hLib, "Ex_SetHandleTabKey");

  0065b	68 00 00 00 00	 push	 OFFSET ??_C@_0BD@MAINJPHO@Ex_SetHandleTabKey@
  00660	89 87 a0 02 00
	00		 mov	 DWORD PTR [edi+672], eax
  00666	ff 77 04	 push	 DWORD PTR [edi+4]
  00669	ff d6		 call	 esi

; 749  : 		pGetHandleTabKey	= (FpGetHandleTabKey)::GetProcAddress(m_hLib, "Ex_GetHandleTabKey");

  0066b	68 00 00 00 00	 push	 OFFSET ??_C@_0BD@PCJLONGH@Ex_GetHandleTabKey@
  00670	89 87 a4 02 00
	00		 mov	 DWORD PTR [edi+676], eax
  00676	ff 77 04	 push	 DWORD PTR [edi+4]
  00679	ff d6		 call	 esi

; 750  : 		pSetDoubleBuffering	= (FpSetDoubleBuffering)::GetProcAddress(m_hLib, "Ex_SetDoubleBuffering");

  0067b	68 00 00 00 00	 push	 OFFSET ??_C@_0BG@FADGBJJF@Ex_SetDoubleBuffering@
  00680	89 87 a8 02 00
	00		 mov	 DWORD PTR [edi+680], eax
  00686	ff 77 04	 push	 DWORD PTR [edi+4]
  00689	ff d6		 call	 esi

; 751  : 		pGetDoubleBuffering	= (FpGetDoubleBuffering)::GetProcAddress(m_hLib, "Ex_GetDoubleBuffering");

  0068b	68 00 00 00 00	 push	 OFFSET ??_C@_0BG@KKBMCPHN@Ex_GetDoubleBuffering@
  00690	89 87 ac 02 00
	00		 mov	 DWORD PTR [edi+684], eax
  00696	ff 77 04	 push	 DWORD PTR [edi+4]
  00699	ff d6		 call	 esi

; 752  : 		pEnableTitleTips	= (FpEnableTitleTips)::GetProcAddress(m_hLib, "Ex_EnableTitleTips");

  0069b	68 00 00 00 00	 push	 OFFSET ??_C@_0BD@CLEBGLOB@Ex_EnableTitleTips@
  006a0	89 87 b0 02 00
	00		 mov	 DWORD PTR [edi+688], eax
  006a6	ff 77 04	 push	 DWORD PTR [edi+4]
  006a9	ff d6		 call	 esi

; 753  : 		pGetTitleTips	= (FpGetTitleTips)::GetProcAddress(m_hLib, "Ex_GetTitleTips");

  006ab	68 00 00 00 00	 push	 OFFSET ??_C@_0BA@GGIJPOKE@Ex_GetTitleTips@
  006b0	89 87 b4 02 00
	00		 mov	 DWORD PTR [edi+692], eax
  006b6	ff 77 04	 push	 DWORD PTR [edi+4]
  006b9	ff d6		 call	 esi

; 754  : 		pSetSortColumn	= (FpSetSortColumn)::GetProcAddress(m_hLib, "Ex_SetSortColumn");

  006bb	68 00 00 00 00	 push	 OFFSET ??_C@_0BB@IGIKCHHB@Ex_SetSortColumn@
  006c0	89 87 b8 02 00
	00		 mov	 DWORD PTR [edi+696], eax
  006c6	ff 77 04	 push	 DWORD PTR [edi+4]
  006c9	ff d6		 call	 esi

; 755  : 		pGetSortColumn	= (FpGetSortColumn)::GetProcAddress(m_hLib, "Ex_GetSortColumn");

  006cb	68 00 00 00 00	 push	 OFFSET ??_C@_0BB@PJJEJEAG@Ex_GetSortColumn@
  006d0	89 87 bc 02 00
	00		 mov	 DWORD PTR [edi+700], eax
  006d6	ff 77 04	 push	 DWORD PTR [edi+4]
  006d9	ff d6		 call	 esi

; 756  : 		pSetSortAscending	= (FpSetSortAscending)::GetProcAddress(m_hLib, "Ex_SetSortAscending");

  006db	68 00 00 00 00	 push	 OFFSET ??_C@_0BE@JAJLPMEM@Ex_SetSortAscending@
  006e0	89 87 c0 02 00
	00		 mov	 DWORD PTR [edi+704], eax
  006e6	ff 77 04	 push	 DWORD PTR [edi+4]
  006e9	ff d6		 call	 esi

; 757  : 		pGetSortAscending	= (FpGetSortAscending)::GetProcAddress(m_hLib, "Ex_GetSortAscending");

  006eb	68 00 00 00 00	 push	 OFFSET ??_C@_0BE@PEMCECPO@Ex_GetSortAscending@
  006f0	89 87 c4 02 00
	00		 mov	 DWORD PTR [edi+708], eax
  006f6	ff 77 04	 push	 DWORD PTR [edi+4]
  006f9	ff d6		 call	 esi

; 758  : 		pSetTrackFocusCell	= (FpSetTrackFocusCell)::GetProcAddress(m_hLib, "Ex_SetTrackFocusCell");

  006fb	68 00 00 00 00	 push	 OFFSET ??_C@_0BF@GMCLPOEI@Ex_SetTrackFocusCell@
  00700	89 87 c8 02 00
	00		 mov	 DWORD PTR [edi+712], eax
  00706	ff 77 04	 push	 DWORD PTR [edi+4]
  00709	ff d6		 call	 esi

; 759  : 		pGetTrackFocusCell	= (FpGetTrackFocusCell)::GetProcAddress(m_hLib, "Ex_GetTrackFocusCell");

  0070b	68 00 00 00 00	 push	 OFFSET ??_C@_0BF@EJCAHFFG@Ex_GetTrackFocusCell@
  00710	89 87 cc 02 00
	00		 mov	 DWORD PTR [edi+716], eax
  00716	ff 77 04	 push	 DWORD PTR [edi+4]
  00719	ff d6		 call	 esi

; 760  : 		pSetFrameFocusCell	= (FpSetFrameFocusCell)::GetProcAddress(m_hLib, "Ex_SetFrameFocusCell");

  0071b	68 00 00 00 00	 push	 OFFSET ??_C@_0BF@DLIICIIO@Ex_SetFrameFocusCell@
  00720	89 87 d0 02 00
	00		 mov	 DWORD PTR [edi+720], eax
  00726	ff 77 04	 push	 DWORD PTR [edi+4]
  00729	ff d6		 call	 esi

; 761  : 		pGetFrameFocusCell	= (FpGetFrameFocusCell)::GetProcAddress(m_hLib, "Ex_GetFrameFocusCell");

  0072b	68 00 00 00 00	 push	 OFFSET ??_C@_0BF@BOIDKDJA@Ex_GetFrameFocusCell@
  00730	89 87 d4 02 00
	00		 mov	 DWORD PTR [edi+724], eax
  00736	ff 77 04	 push	 DWORD PTR [edi+4]
  00739	ff d6		 call	 esi

; 762  : 		pSetAutoSizeStyle	= (FpSetAutoSizeStyle)::GetProcAddress(m_hLib, "Ex_SetAutoSizeStyle");

  0073b	68 00 00 00 00	 push	 OFFSET ??_C@_0BE@DLBLPDKG@Ex_SetAutoSizeStyle@
  00740	89 87 d8 02 00
	00		 mov	 DWORD PTR [edi+728], eax
  00746	ff 77 04	 push	 DWORD PTR [edi+4]
  00749	ff d6		 call	 esi

; 763  : 		pGetAutoSizeStyle	= (FpGetAutoSizeStyle)::GetProcAddress(m_hLib, "Ex_GetAutoSizeStyle");

  0074b	68 00 00 00 00	 push	 OFFSET ??_C@_0BE@FPECENBE@Ex_GetAutoSizeStyle@
  00750	89 87 dc 02 00
	00		 mov	 DWORD PTR [edi+732], eax
  00756	ff 77 04	 push	 DWORD PTR [edi+4]
  00759	ff d6		 call	 esi

; 764  : 		pEnableHiddenColUnhide	= (FpEnableHiddenColUnhide)::GetProcAddress(m_hLib, "Ex_EnableHiddenColUnhide");

  0075b	68 00 00 00 00	 push	 OFFSET ??_C@_0BJ@OGINOEPC@Ex_EnableHiddenColUnhide@
  00760	89 87 e0 02 00
	00		 mov	 DWORD PTR [edi+736], eax
  00766	ff 77 04	 push	 DWORD PTR [edi+4]
  00769	ff d6		 call	 esi

; 765  : 		pGetHiddenColUnhide	= (FpGetHiddenColUnhide)::GetProcAddress(m_hLib, "Ex_GetHiddenColUnhide");

  0076b	68 00 00 00 00	 push	 OFFSET ??_C@_0BG@GLEFAPDH@Ex_GetHiddenColUnhide@
  00770	89 87 e4 02 00
	00		 mov	 DWORD PTR [edi+740], eax
  00776	ff 77 04	 push	 DWORD PTR [edi+4]
  00779	ff d6		 call	 esi

; 766  : 		pEnableHiddenRowUnhide	= (FpEnableHiddenRowUnhide)::GetProcAddress(m_hLib, "Ex_EnableHiddenRowUnhide");

  0077b	68 00 00 00 00	 push	 OFFSET ??_C@_0BJ@PDACDFJ@Ex_EnableHiddenRowUnhide@
  00780	89 87 e8 02 00
	00		 mov	 DWORD PTR [edi+744], eax
  00786	ff 77 04	 push	 DWORD PTR [edi+4]
  00789	ff d6		 call	 esi

; 767  : 		pGetHiddenRowUnhide	= (FpGetHiddenRowUnhide)::GetProcAddress(m_hLib, "Ex_GetHiddenRowUnhide");

  0078b	68 00 00 00 00	 push	 OFFSET ??_C@_0BG@ICPIMIJM@Ex_GetHiddenRowUnhide@
  00790	89 87 ec 02 00
	00		 mov	 DWORD PTR [edi+748], eax
  00796	ff 77 04	 push	 DWORD PTR [edi+4]
  00799	ff d6		 call	 esi
  0079b	89 87 f0 02 00
	00		 mov	 DWORD PTR [edi+752], eax

; 768  : 		pEnableColumnHide	= (FpEnableColumnHide)::GetProcAddress(m_hLib, "Ex_EnableColumnHide");

  007a1	68 00 00 00 00	 push	 OFFSET ??_C@_0BE@GPEEKGPJ@Ex_EnableColumnHide@
  007a6	ff 77 04	 push	 DWORD PTR [edi+4]
  007a9	ff d6		 call	 esi

; 769  : 		pGetColumnHide	= (FpGetColumnHide)::GetProcAddress(m_hLib, "Ex_GetColumnHide");

  007ab	68 00 00 00 00	 push	 OFFSET ??_C@_0BB@GJLPNLHD@Ex_GetColumnHide@
  007b0	89 87 f4 02 00
	00		 mov	 DWORD PTR [edi+756], eax
  007b6	ff 77 04	 push	 DWORD PTR [edi+4]
  007b9	ff d6		 call	 esi

; 770  : 		pEnableRowHide	= (FpEnableRowHide)::GetProcAddress(m_hLib, "Ex_EnableRowHide");

  007bb	68 00 00 00 00	 push	 OFFSET ??_C@_0BB@LLNAEOOL@Ex_EnableRowHide@
  007c0	89 87 f8 02 00
	00		 mov	 DWORD PTR [edi+760], eax
  007c6	ff 77 04	 push	 DWORD PTR [edi+4]
  007c9	ff d6		 call	 esi

; 771  : 		pGetRowHide	= (FpGetRowHide)::GetProcAddress(m_hLib, "Ex_GetRowHide");

  007cb	68 00 00 00 00	 push	 OFFSET ??_C@_0O@CFJHIGGA@Ex_GetRowHide@
  007d0	89 87 fc 02 00
	00		 mov	 DWORD PTR [edi+764], eax
  007d6	ff 77 04	 push	 DWORD PTR [edi+4]
  007d9	ff d6		 call	 esi

; 772  : 		pSetDefaultReadOnly	= (FpSetDefaultReadOnly)::GetProcAddress(m_hLib, "Ex_SetDefaultReadOnly");

  007db	68 00 00 00 00	 push	 OFFSET ??_C@_0BG@GKHGKAPA@Ex_SetDefaultReadOnly@
  007e0	89 87 00 03 00
	00		 mov	 DWORD PTR [edi+768], eax
  007e6	ff 77 04	 push	 DWORD PTR [edi+4]
  007e9	ff d6		 call	 esi

; 773  : 		pIsDefaultReadOnly	= (FpIsDefaultReadOnly)::GetProcAddress(m_hLib, "Ex_IsDefaultReadOnly");

  007eb	68 00 00 00 00	 push	 OFFSET ??_C@_0BF@MDNOCHF@Ex_IsDefaultReadOnly@
  007f0	89 87 04 03 00
	00		 mov	 DWORD PTR [edi+772], eax
  007f6	ff 77 04	 push	 DWORD PTR [edi+4]
  007f9	ff d6		 call	 esi

; 774  : 		pGetDefaultCell	= (FpGetDefaultCell)::GetProcAddress(m_hLib, "Ex_GetDefaultCell");

  007fb	68 00 00 00 00	 push	 OFFSET ??_C@_0BC@HHBBOGH@Ex_GetDefaultCell@
  00800	89 87 08 03 00
	00		 mov	 DWORD PTR [edi+776], eax
  00806	ff 77 04	 push	 DWORD PTR [edi+4]
  00809	ff d6		 call	 esi

; 775  : 		pGetCell	= (FpGetCell)::GetProcAddress(m_hLib, "Ex_GetCell");

  0080b	68 00 00 00 00	 push	 OFFSET ??_C@_0L@IKFJGEFD@Ex_GetCell@
  00810	89 87 0c 03 00
	00		 mov	 DWORD PTR [edi+780], eax
  00816	ff 77 04	 push	 DWORD PTR [edi+4]
  00819	ff d6		 call	 esi

; 776  : 		pSetModified	= (FpSetModified)::GetProcAddress(m_hLib, "Ex_SetModified");

  0081b	68 00 00 00 00	 push	 OFFSET ??_C@_0P@NKJNBMJC@Ex_SetModified@
  00820	89 87 10 03 00
	00		 mov	 DWORD PTR [edi+784], eax
  00826	ff 77 04	 push	 DWORD PTR [edi+4]
  00829	ff d6		 call	 esi

; 777  : 		pGetModified	= (FpGetModified)::GetProcAddress(m_hLib, "Ex_GetModified");

  0082b	68 00 00 00 00	 push	 OFFSET ??_C@_0P@NFIDMKBB@Ex_GetModified@
  00830	89 87 14 03 00
	00		 mov	 DWORD PTR [edi+788], eax
  00836	ff 77 04	 push	 DWORD PTR [edi+4]
  00839	ff d6		 call	 esi

; 778  : 		pIsCellFixed	= (FpIsCellFixed)::GetProcAddress(m_hLib, "Ex_IsCellFixed");

  0083b	68 00 00 00 00	 push	 OFFSET ??_C@_0P@OIJIPHDB@Ex_IsCellFixed@
  00840	89 87 18 03 00
	00		 mov	 DWORD PTR [edi+792], eax
  00846	ff 77 04	 push	 DWORD PTR [edi+4]
  00849	ff d6		 call	 esi

; 779  : 		pSetItem	= (FpSetItem)::GetProcAddress(m_hLib, "Ex_SetItem");

  0084b	68 00 00 00 00	 push	 OFFSET ??_C@_0L@MGHHHJBH@Ex_SetItem@
  00850	89 87 1c 03 00
	00		 mov	 DWORD PTR [edi+796], eax
  00856	ff 77 04	 push	 DWORD PTR [edi+4]
  00859	ff d6		 call	 esi

; 780  : 		pGetItem	= (FpGetItem)::GetProcAddress(m_hLib, "Ex_GetItem");

  0085b	68 00 00 00 00	 push	 OFFSET ??_C@_0L@DOIGEGMG@Ex_GetItem@
  00860	89 87 20 03 00
	00		 mov	 DWORD PTR [edi+800], eax
  00866	ff 77 04	 push	 DWORD PTR [edi+4]
  00869	ff d6		 call	 esi

; 781  : 		pSetItemText	= (FpSetItemText)::GetProcAddress(m_hLib, "Ex_SetItemText");

  0086b	68 00 00 00 00	 push	 OFFSET ??_C@_0P@FEENFPGN@Ex_SetItemText@
  00870	89 87 24 03 00
	00		 mov	 DWORD PTR [edi+804], eax
  00876	ff 77 04	 push	 DWORD PTR [edi+4]
  00879	ff d6		 call	 esi

; 782  : 		pGetItemText	= (FpGetItemText)::GetProcAddress(m_hLib, "Ex_GetItemText");

  0087b	68 00 00 00 00	 push	 OFFSET ??_C@_0P@FLFDIJOO@Ex_GetItemText@
  00880	89 87 28 03 00
	00		 mov	 DWORD PTR [edi+808], eax
  00886	ff 77 04	 push	 DWORD PTR [edi+4]
  00889	ff d6		 call	 esi

; 783  : 		pSetItemTextFmt	= (FpSetItemTextFmt)::GetProcAddress(m_hLib, "Ex_SetItemTextFmt");

  0088b	68 00 00 00 00	 push	 OFFSET ??_C@_0BC@MAGCMHPB@Ex_SetItemTextFmt@
  00890	89 87 2c 03 00
	00		 mov	 DWORD PTR [edi+812], eax
  00896	ff 77 04	 push	 DWORD PTR [edi+4]
  00899	ff d6		 call	 esi

; 784  : 		pSetItemTextFmtID	= (FpSetItemTextFmtID)::GetProcAddress(m_hLib, "Ex_SetItemTextFmtID");

  0089b	68 00 00 00 00	 push	 OFFSET ??_C@_0BE@ODPJHLMD@Ex_SetItemTextFmtID@
  008a0	89 87 30 03 00
	00		 mov	 DWORD PTR [edi+816], eax
  008a6	ff 77 04	 push	 DWORD PTR [edi+4]
  008a9	ff d6		 call	 esi

; 785  : 		pSetItemData	= (FpSetItemData)::GetProcAddress(m_hLib, "Ex_SetItemData");

  008ab	68 00 00 00 00	 push	 OFFSET ??_C@_0P@IFGAEAMI@Ex_SetItemData@
  008b0	89 87 34 03 00
	00		 mov	 DWORD PTR [edi+820], eax
  008b6	ff 77 04	 push	 DWORD PTR [edi+4]
  008b9	ff d6		 call	 esi

; 786  : 		pGetItemData	= (FpGetItemData)::GetProcAddress(m_hLib, "Ex_GetItemData");

  008bb	68 00 00 00 00	 push	 OFFSET ??_C@_0P@IKHOJGEL@Ex_GetItemData@
  008c0	89 87 38 03 00
	00		 mov	 DWORD PTR [edi+824], eax
  008c6	ff 77 04	 push	 DWORD PTR [edi+4]
  008c9	ff d6		 call	 esi

; 787  : 		pSetItemImage	= (FpSetItemImage)::GetProcAddress(m_hLib, "Ex_SetItemImage");

  008cb	68 00 00 00 00	 push	 OFFSET ??_C@_0BA@JHJEJAOA@Ex_SetItemImage@
  008d0	89 87 3c 03 00
	00		 mov	 DWORD PTR [edi+828], eax
  008d6	ff 77 04	 push	 DWORD PTR [edi+4]
  008d9	ff d6		 call	 esi
  008db	89 87 40 03 00
	00		 mov	 DWORD PTR [edi+832], eax

; 788  : 		pGetItemImage	= (FpGetItemImage)::GetProcAddress(m_hLib, "Ex_GetItemImage");

  008e1	68 00 00 00 00	 push	 OFFSET ??_C@_0BA@ODCKFMKM@Ex_GetItemImage@
  008e6	ff 77 04	 push	 DWORD PTR [edi+4]
  008e9	ff d6		 call	 esi

; 789  : 		pSetItemState	= (FpSetItemState)::GetProcAddress(m_hLib, "Ex_SetItemState");

  008eb	68 00 00 00 00	 push	 OFFSET ??_C@_0BA@EGEJFJMH@Ex_SetItemState@
  008f0	89 87 44 03 00
	00		 mov	 DWORD PTR [edi+836], eax
  008f6	ff 77 04	 push	 DWORD PTR [edi+4]
  008f9	ff d6		 call	 esi

; 790  : 		pGetItemState	= (FpGetItemState)::GetProcAddress(m_hLib, "Ex_GetItemState");

  008fb	68 00 00 00 00	 push	 OFFSET ??_C@_0BA@DCPHJFIL@Ex_GetItemState@
  00900	89 87 48 03 00
	00		 mov	 DWORD PTR [edi+840], eax
  00906	ff 77 04	 push	 DWORD PTR [edi+4]
  00909	ff d6		 call	 esi

; 791  : 		pSetItemFormat	= (FpSetItemFormat)::GetProcAddress(m_hLib, "Ex_SetItemFormat");

  0090b	68 00 00 00 00	 push	 OFFSET ??_C@_0BB@BPLKLOBC@Ex_SetItemFormat@
  00910	89 87 4c 03 00
	00		 mov	 DWORD PTR [edi+844], eax
  00916	ff 77 04	 push	 DWORD PTR [edi+4]
  00919	ff d6		 call	 esi

; 792  : 		pGetItemFormat	= (FpGetItemFormat)::GetProcAddress(m_hLib, "Ex_GetItemFormat");

  0091b	68 00 00 00 00	 push	 OFFSET ??_C@_0BB@GAKEANGF@Ex_GetItemFormat@
  00920	89 87 50 03 00
	00		 mov	 DWORD PTR [edi+848], eax
  00926	ff 77 04	 push	 DWORD PTR [edi+4]
  00929	ff d6		 call	 esi

; 793  : 		pSetItemBkColour	= (FpSetItemBkColour)::GetProcAddress(m_hLib, "Ex_SetItemBkColour");

  0092b	68 00 00 00 00	 push	 OFFSET ??_C@_0BD@POOMAEBJ@Ex_SetItemBkColour@
  00930	89 87 54 03 00
	00		 mov	 DWORD PTR [edi+852], eax
  00936	ff 77 04	 push	 DWORD PTR [edi+4]
  00939	ff d6		 call	 esi

; 794  : 		pGetItemBkColour	= (FpGetItemBkColour)::GetProcAddress(m_hLib, "Ex_GetItemBkColour");

  0093b	68 00 00 00 00	 push	 OFFSET ??_C@_0BD@MMPKHGAA@Ex_GetItemBkColour@
  00940	89 87 58 03 00
	00		 mov	 DWORD PTR [edi+856], eax
  00946	ff 77 04	 push	 DWORD PTR [edi+4]
  00949	ff d6		 call	 esi

; 795  : 		pSetItemFgColour	= (FpSetItemFgColour)::GetProcAddress(m_hLib, "Ex_SetItemFgColour");

  0094b	68 00 00 00 00	 push	 OFFSET ??_C@_0BD@PEKPEAFK@Ex_SetItemFgColour@
  00950	89 87 5c 03 00
	00		 mov	 DWORD PTR [edi+860], eax
  00956	ff 77 04	 push	 DWORD PTR [edi+4]
  00959	ff d6		 call	 esi

; 796  : 		pGetItemFgColour	= (FpGetItemFgColour)::GetProcAddress(m_hLib, "Ex_GetItemFgColour");

  0095b	68 00 00 00 00	 push	 OFFSET ??_C@_0BD@MGLJDCED@Ex_GetItemFgColour@
  00960	89 87 60 03 00
	00		 mov	 DWORD PTR [edi+864], eax
  00966	ff 77 04	 push	 DWORD PTR [edi+4]
  00969	ff d6		 call	 esi

; 797  : 		pSetItemFont	= (FpSetItemFont)::GetProcAddress(m_hLib, "Ex_SetItemFont");

  0096b	68 00 00 00 00	 push	 OFFSET ??_C@_0P@DJHLKECJ@Ex_SetItemFont@
  00970	89 87 64 03 00
	00		 mov	 DWORD PTR [edi+868], eax
  00976	ff 77 04	 push	 DWORD PTR [edi+4]
  00979	ff d6		 call	 esi

; 798  : 		pGetItemFont	= (FpGetItemFont)::GetProcAddress(m_hLib, "Ex_GetItemFont");

  0097b	68 00 00 00 00	 push	 OFFSET ??_C@_0P@DGGFHCKK@Ex_GetItemFont@
  00980	89 87 68 03 00
	00		 mov	 DWORD PTR [edi+872], eax
  00986	ff 77 04	 push	 DWORD PTR [edi+4]
  00989	ff d6		 call	 esi

; 799  : 		pIsItemEditing	= (FpIsItemEditing)::GetProcAddress(m_hLib, "Ex_IsItemEditing");

  0098b	68 00 00 00 00	 push	 OFFSET ??_C@_0BB@GLGIIOMO@Ex_IsItemEditing@
  00990	89 87 6c 03 00
	00		 mov	 DWORD PTR [edi+876], eax
  00996	ff 77 04	 push	 DWORD PTR [edi+4]
  00999	ff d6		 call	 esi

; 800  : 		pSetCellType	= (FpSetCellType)::GetProcAddress(m_hLib, "Ex_SetCellType");

  0099b	68 00 00 00 00	 push	 OFFSET ??_C@_0P@GILDOILP@Ex_SetCellType@
  009a0	89 87 70 03 00
	00		 mov	 DWORD PTR [edi+880], eax
  009a6	ff 77 04	 push	 DWORD PTR [edi+4]
  009a9	ff d6		 call	 esi

; 801  : 		pInsertColumn	= (FpInsertColumn)::GetProcAddress(m_hLib, "Ex_InsertColumn");

  009ab	68 00 00 00 00	 push	 OFFSET ??_C@_0BA@JFAAFLHP@Ex_InsertColumn@
  009b0	89 87 74 03 00
	00		 mov	 DWORD PTR [edi+884], eax
  009b6	ff 77 04	 push	 DWORD PTR [edi+4]
  009b9	ff d6		 call	 esi

; 802  : 		pInsertRow	= (FpInsertRow)::GetProcAddress(m_hLib, "Ex_InsertRow");

  009bb	68 00 00 00 00	 push	 OFFSET ??_C@_0N@JMDPIIIA@Ex_InsertRow@
  009c0	89 87 78 03 00
	00		 mov	 DWORD PTR [edi+888], eax
  009c6	ff 77 04	 push	 DWORD PTR [edi+4]
  009c9	ff d6		 call	 esi

; 803  : 		pDeleteColumn	= (FpDeleteColumn)::GetProcAddress(m_hLib, "Ex_DeleteColumn");

  009cb	68 00 00 00 00	 push	 OFFSET ??_C@_0BA@FNLLOHDN@Ex_DeleteColumn@
  009d0	89 87 7c 03 00
	00		 mov	 DWORD PTR [edi+892], eax
  009d6	ff 77 04	 push	 DWORD PTR [edi+4]
  009d9	ff d6		 call	 esi

; 804  : 		pDeleteRow	= (FpDeleteRow)::GetProcAddress(m_hLib, "Ex_DeleteRow");

  009db	68 00 00 00 00	 push	 OFFSET ??_C@_0N@MFNGODEF@Ex_DeleteRow@
  009e0	89 87 80 03 00
	00		 mov	 DWORD PTR [edi+896], eax
  009e6	ff 77 04	 push	 DWORD PTR [edi+4]
  009e9	ff d6		 call	 esi

; 805  : 		pDeleteNonFixedRows	= (FpDeleteNonFixedRows)::GetProcAddress(m_hLib, "Ex_DeleteNonFixedRows");

  009eb	68 00 00 00 00	 push	 OFFSET ??_C@_0BG@MJGKPDPA@Ex_DeleteNonFixedRows@
  009f0	89 87 84 03 00
	00		 mov	 DWORD PTR [edi+900], eax
  009f6	ff 77 04	 push	 DWORD PTR [edi+4]
  009f9	ff d6		 call	 esi

; 806  : 		pDeleteAllItems	= (FpDeleteAllItems)::GetProcAddress(m_hLib, "Ex_DeleteAllItems");

  009fb	68 00 00 00 00	 push	 OFFSET ??_C@_0BC@HJKLIKNJ@Ex_DeleteAllItems@
  00a00	89 87 88 03 00
	00		 mov	 DWORD PTR [edi+904], eax
  00a06	ff 77 04	 push	 DWORD PTR [edi+4]
  00a09	ff d6		 call	 esi

; 807  : 		pClearCells	= (FpClearCells)::GetProcAddress(m_hLib, "Ex_ClearCells");

  00a0b	68 00 00 00 00	 push	 OFFSET ??_C@_0O@FMEEJLNJ@Ex_ClearCells@
  00a10	89 87 8c 03 00
	00		 mov	 DWORD PTR [edi+908], eax
  00a16	ff 77 04	 push	 DWORD PTR [edi+4]
  00a19	ff d6		 call	 esi

; 808  : 		pAutoSizeRow	= (FpAutoSizeRow)::GetProcAddress(m_hLib, "Ex_AutoSizeRow");

  00a1b	68 00 00 00 00	 push	 OFFSET ??_C@_0P@CEKJHOM@Ex_AutoSizeRow@
  00a20	89 87 90 03 00
	00		 mov	 DWORD PTR [edi+912], eax
  00a26	ff 77 04	 push	 DWORD PTR [edi+4]
  00a29	ff d6		 call	 esi

; 809  : 		pAutoSizeColumn	= (FpAutoSizeColumn)::GetProcAddress(m_hLib, "Ex_AutoSizeColumn");

  00a2b	68 00 00 00 00	 push	 OFFSET ??_C@_0BC@DJPIOCII@Ex_AutoSizeColumn@
  00a30	89 87 94 03 00
	00		 mov	 DWORD PTR [edi+916], eax
  00a36	ff 77 04	 push	 DWORD PTR [edi+4]
  00a39	ff d6		 call	 esi

; 810  : 		pAutoSizeRows	= (FpAutoSizeRows)::GetProcAddress(m_hLib, "Ex_AutoSizeRows");

  00a3b	68 00 00 00 00	 push	 OFFSET ??_C@_0BA@KNKMMOPB@Ex_AutoSizeRows@
  00a40	89 87 98 03 00
	00		 mov	 DWORD PTR [edi+920], eax
  00a46	ff 77 04	 push	 DWORD PTR [edi+4]
  00a49	ff d6		 call	 esi

; 811  : 		pAutoSizeColumns	= (FpAutoSizeColumns)::GetProcAddress(m_hLib, "Ex_AutoSizeColumns");

  00a4b	68 00 00 00 00	 push	 OFFSET ??_C@_0BD@OHEINJMF@Ex_AutoSizeColumns@
  00a50	89 87 9c 03 00
	00		 mov	 DWORD PTR [edi+924], eax
  00a56	ff 77 04	 push	 DWORD PTR [edi+4]
  00a59	ff d6		 call	 esi

; 812  : 		pAutoSize	= (FpAutoSize)::GetProcAddress(m_hLib, "Ex_AutoSize");

  00a5b	68 00 00 00 00	 push	 OFFSET ??_C@_0M@JELJCJPC@Ex_AutoSize@
  00a60	89 87 a0 03 00
	00		 mov	 DWORD PTR [edi+928], eax
  00a66	ff 77 04	 push	 DWORD PTR [edi+4]
  00a69	ff d6		 call	 esi

; 813  : 		pExpandColumnsToFit	= (FpExpandColumnsToFit)::GetProcAddress(m_hLib, "Ex_ExpandColumnsToFit");

  00a6b	68 00 00 00 00	 push	 OFFSET ??_C@_0BG@INCAPNJM@Ex_ExpandColumnsToFit@
  00a70	89 87 a4 03 00
	00		 mov	 DWORD PTR [edi+932], eax
  00a76	ff 77 04	 push	 DWORD PTR [edi+4]
  00a79	ff d6		 call	 esi

; 814  : 		pExpandLastColumn	= (FpExpandLastColumn)::GetProcAddress(m_hLib, "Ex_ExpandLastColumn");

  00a7b	68 00 00 00 00	 push	 OFFSET ??_C@_0BE@EGEDCFD@Ex_ExpandLastColumn@
  00a80	89 87 a8 03 00
	00		 mov	 DWORD PTR [edi+936], eax
  00a86	ff 77 04	 push	 DWORD PTR [edi+4]
  00a89	ff d6		 call	 esi

; 815  : 		pExpandRowsToFit	= (FpExpandRowsToFit)::GetProcAddress(m_hLib, "Ex_ExpandRowsToFit");

  00a8b	68 00 00 00 00	 push	 OFFSET ??_C@_0BD@PKDGNOBB@Ex_ExpandRowsToFit@
  00a90	89 87 ac 03 00
	00		 mov	 DWORD PTR [edi+940], eax
  00a96	ff 77 04	 push	 DWORD PTR [edi+4]
  00a99	ff d6		 call	 esi

; 816  : 		pExpandToFit	= (FpExpandToFit)::GetProcAddress(m_hLib, "Ex_ExpandToFit");

  00a9b	68 00 00 00 00	 push	 OFFSET ??_C@_0P@PDCDCOEO@Ex_ExpandToFit@
  00aa0	89 87 b0 03 00
	00		 mov	 DWORD PTR [edi+944], eax
  00aa6	ff 77 04	 push	 DWORD PTR [edi+4]
  00aa9	ff d6		 call	 esi

; 817  : 		pRefresh	= (FpRefresh)::GetProcAddress(m_hLib, "Ex_Refresh");

  00aab	68 00 00 00 00	 push	 OFFSET ??_C@_0L@BPELEIPD@Ex_Refresh@
  00ab0	89 87 b4 03 00
	00		 mov	 DWORD PTR [edi+948], eax
  00ab6	ff 77 04	 push	 DWORD PTR [edi+4]
  00ab9	ff d6		 call	 esi

; 818  : 		pAutoFill	= (FpAutoFill)::GetProcAddress(m_hLib, "Ex_AutoFill");

  00abb	68 00 00 00 00	 push	 OFFSET ??_C@_0M@PFNAFFIL@Ex_AutoFill@
  00ac0	89 87 b8 03 00
	00		 mov	 DWORD PTR [edi+952], eax
  00ac6	ff 77 04	 push	 DWORD PTR [edi+4]
  00ac9	ff d6		 call	 esi

; 819  : 		pEnsureVisible	= (FpEnsureVisible)::GetProcAddress(m_hLib, "Ex_EnsureVisible");

  00acb	68 00 00 00 00	 push	 OFFSET ??_C@_0BB@LMOBPEEA@Ex_EnsureVisible@
  00ad0	89 87 bc 03 00
	00		 mov	 DWORD PTR [edi+956], eax
  00ad6	ff 77 04	 push	 DWORD PTR [edi+4]
  00ad9	ff d6		 call	 esi

; 820  : 		pEnsureVisible2	= (FpEnsureVisible2)::GetProcAddress(m_hLib, "Ex_EnsureVisible2");

  00adb	68 00 00 00 00	 push	 OFFSET ??_C@_0BC@JLBAPEBF@Ex_EnsureVisible2@
  00ae0	89 87 c0 03 00
	00		 mov	 DWORD PTR [edi+960], eax
  00ae6	ff 77 04	 push	 DWORD PTR [edi+4]
  00ae9	ff d6		 call	 esi

; 821  : 		pIsCellVisible	= (FpIsCellVisible)::GetProcAddress(m_hLib, "Ex_IsCellVisible");

  00aeb	68 00 00 00 00	 push	 OFFSET ??_C@_0BB@EKCEFGAG@Ex_IsCellVisible@
  00af0	89 87 c4 03 00
	00		 mov	 DWORD PTR [edi+964], eax
  00af6	ff 77 04	 push	 DWORD PTR [edi+4]
  00af9	ff d6		 call	 esi

; 822  : 		pIsCellVisible2	= (FpIsCellVisible2)::GetProcAddress(m_hLib, "Ex_IsCellVisible2");

  00afb	68 00 00 00 00	 push	 OFFSET ??_C@_0BC@EFJNFBC@Ex_IsCellVisible2@
  00b00	89 87 c8 03 00
	00		 mov	 DWORD PTR [edi+968], eax
  00b06	ff 77 04	 push	 DWORD PTR [edi+4]
  00b09	ff d6		 call	 esi

; 823  : 		pIsCellEditable	= (FpIsCellEditable)::GetProcAddress(m_hLib, "Ex_IsCellEditable");

  00b0b	68 00 00 00 00	 push	 OFFSET ??_C@_0BC@CLKDJBEN@Ex_IsCellEditable@
  00b10	89 87 cc 03 00
	00		 mov	 DWORD PTR [edi+972], eax
  00b16	ff 77 04	 push	 DWORD PTR [edi+4]
  00b19	ff d6		 call	 esi

; 824  : 		pIsCellEditable2	= (FpIsCellEditable2)::GetProcAddress(m_hLib, "Ex_IsCellEditable2");

  00b1b	68 00 00 00 00	 push	 OFFSET ??_C@_0BD@OFDGMKMN@Ex_IsCellEditable2@
  00b20	89 87 d0 03 00
	00		 mov	 DWORD PTR [edi+976], eax
  00b26	ff 77 04	 push	 DWORD PTR [edi+4]
  00b29	ff d6		 call	 esi

; 825  : 		pIsCellSelected	= (FpIsCellSelected)::GetProcAddress(m_hLib, "Ex_IsCellSelected");

  00b2b	68 00 00 00 00	 push	 OFFSET ??_C@_0BC@LLBJAFFM@Ex_IsCellSelected@
  00b30	89 87 d4 03 00
	00		 mov	 DWORD PTR [edi+980], eax
  00b36	ff 77 04	 push	 DWORD PTR [edi+4]
  00b39	ff d6		 call	 esi

; 826  : 		pIsCellSelected2	= (FpIsCellSelected2)::GetProcAddress(m_hLib, "Ex_IsCellSelected2");

  00b3b	68 00 00 00 00	 push	 OFFSET ??_C@_0BD@IPBGFAKL@Ex_IsCellSelected2@
  00b40	89 87 d8 03 00
	00		 mov	 DWORD PTR [edi+984], eax
  00b46	ff 77 04	 push	 DWORD PTR [edi+4]
  00b49	ff d6		 call	 esi

; 827  : 		pSetRedraw	= (FpSetRedraw)::GetProcAddress(m_hLib, "Ex_SetRedraw");

  00b4b	68 00 00 00 00	 push	 OFFSET ??_C@_0N@JNHILCCM@Ex_SetRedraw@
  00b50	89 87 dc 03 00
	00		 mov	 DWORD PTR [edi+988], eax
  00b56	ff 77 04	 push	 DWORD PTR [edi+4]
  00b59	ff d6		 call	 esi

; 828  : 		pRedrawCell	= (FpRedrawCell)::GetProcAddress(m_hLib, "Ex_RedrawCell");

  00b5b	68 00 00 00 00	 push	 OFFSET ??_C@_0O@BNGINBML@Ex_RedrawCell@
  00b60	89 87 e0 03 00
	00		 mov	 DWORD PTR [edi+992], eax
  00b66	ff 77 04	 push	 DWORD PTR [edi+4]
  00b69	ff d6		 call	 esi

; 829  : 		pRedrawCell2	= (FpRedrawCell2)::GetProcAddress(m_hLib, "Ex_RedrawCell2");

  00b6b	68 00 00 00 00	 push	 OFFSET ??_C@_0P@OBNLCHJI@Ex_RedrawCell2@
  00b70	89 87 e4 03 00
	00		 mov	 DWORD PTR [edi+996], eax
  00b76	ff 77 04	 push	 DWORD PTR [edi+4]
  00b79	ff d6		 call	 esi

; 830  : 		pRedrawRow	= (FpRedrawRow)::GetProcAddress(m_hLib, "Ex_RedrawRow");

  00b7b	68 00 00 00 00	 push	 OFFSET ??_C@_0N@NHMBPMNF@Ex_RedrawRow@
  00b80	89 87 e8 03 00
	00		 mov	 DWORD PTR [edi+1000], eax
  00b86	ff 77 04	 push	 DWORD PTR [edi+4]
  00b89	ff d6		 call	 esi

; 831  : 		pRedrawColumn	= (FpRedrawColumn)::GetProcAddress(m_hLib, "Ex_RedrawColumn");

  00b8b	68 00 00 00 00	 push	 OFFSET ??_C@_0BA@OOCBNEIG@Ex_RedrawColumn@
  00b90	89 87 ec 03 00
	00		 mov	 DWORD PTR [edi+1004], eax
  00b96	ff 77 04	 push	 DWORD PTR [edi+4]
  00b99	ff d6		 call	 esi

; 832  : 		pSave	= (FpSave)::GetProcAddress(m_hLib, "Ex_Save");

  00b9b	68 00 00 00 00	 push	 OFFSET ??_C@_07GNCAGGAM@Ex_Save@
  00ba0	89 87 f0 03 00
	00		 mov	 DWORD PTR [edi+1008], eax
  00ba6	ff 77 04	 push	 DWORD PTR [edi+4]
  00ba9	ff d6		 call	 esi

; 833  : 		pLoad	= (FpLoad)::GetProcAddress(m_hLib, "Ex_Load");

  00bab	68 00 00 00 00	 push	 OFFSET ??_C@_07GPDNJFNI@Ex_Load@
  00bb0	89 87 f4 03 00
	00		 mov	 DWORD PTR [edi+1012], eax
  00bb6	ff 77 04	 push	 DWORD PTR [edi+4]
  00bb9	ff d6		 call	 esi

; 834  : 		pGetCellRange	= (FpGetCellRange)::GetProcAddress(m_hLib, "Ex_GetCellRange");

  00bbb	68 00 00 00 00	 push	 OFFSET ??_C@_0BA@CAJIFMH@Ex_GetCellRange@
  00bc0	89 87 f8 03 00
	00		 mov	 DWORD PTR [edi+1016], eax
  00bc6	ff 77 04	 push	 DWORD PTR [edi+4]
  00bc9	ff d6		 call	 esi

; 835  : 		pGetSelectedCellRange	= (FpGetSelectedCellRange)::GetProcAddress(m_hLib, "Ex_GetSelectedCellRange");

  00bcb	68 00 00 00 00	 push	 OFFSET ??_C@_0BI@CMMIKBMP@Ex_GetSelectedCellRange@
  00bd0	89 87 fc 03 00
	00		 mov	 DWORD PTR [edi+1020], eax
  00bd6	ff 77 04	 push	 DWORD PTR [edi+4]
  00bd9	ff d6		 call	 esi

; 836  : 		pSetSelectedRange	= (FpSetSelectedRange)::GetProcAddress(m_hLib, "Ex_SetSelectedRange");

  00bdb	68 00 00 00 00	 push	 OFFSET ??_C@_0BE@HECMCKIG@Ex_SetSelectedRange@
  00be0	89 87 00 04 00
	00		 mov	 DWORD PTR [edi+1024], eax
  00be6	ff 77 04	 push	 DWORD PTR [edi+4]
  00be9	ff d6		 call	 esi

; 837  : 		pSetSelectedRange2	= (FpSetSelectedRange2)::GetProcAddress(m_hLib, "Ex_SetSelectedRange2");

  00beb	68 00 00 00 00	 push	 OFFSET ??_C@_0BF@OJNPFOEO@Ex_SetSelectedRange2@
  00bf0	89 87 04 04 00
	00		 mov	 DWORD PTR [edi+1028], eax
  00bf6	ff 77 04	 push	 DWORD PTR [edi+4]
  00bf9	ff d6		 call	 esi

; 838  : 		pIsValid	= (FpIsValid)::GetProcAddress(m_hLib, "Ex_IsValid");

  00bfb	68 00 00 00 00	 push	 OFFSET ??_C@_0L@NJKCAAKF@Ex_IsValid@
  00c00	89 87 08 04 00
	00		 mov	 DWORD PTR [edi+1032], eax
  00c06	ff 77 04	 push	 DWORD PTR [edi+4]
  00c09	ff d6		 call	 esi

; 839  : 		pIsValid2	= (FpIsValid2)::GetProcAddress(m_hLib, "Ex_IsValid2");

  00c0b	68 00 00 00 00	 push	 OFFSET ??_C@_0M@ELBFKBBG@Ex_IsValid2@
  00c10	89 87 0c 04 00
	00		 mov	 DWORD PTR [edi+1036], eax
  00c16	ff 77 04	 push	 DWORD PTR [edi+4]
  00c19	ff d6		 call	 esi

; 840  : 		pIsValid3	= (FpIsValid3)::GetProcAddress(m_hLib, "Ex_IsValid3");

  00c1b	68 00 00 00 00	 push	 OFFSET ??_C@_0M@FCAOJAFH@Ex_IsValid3@
  00c20	89 87 10 04 00
	00		 mov	 DWORD PTR [edi+1040], eax
  00c26	ff 77 04	 push	 DWORD PTR [edi+4]
  00c29	ff d6		 call	 esi

; 841  : 		pCutSelectedText	= (FpCutSelectedText)::GetProcAddress(m_hLib, "Ex_CutSelectedText");

  00c2b	68 00 00 00 00	 push	 OFFSET ??_C@_0BD@HLADNECC@Ex_CutSelectedText@
  00c30	89 87 14 04 00
	00		 mov	 DWORD PTR [edi+1044], eax
  00c36	ff 77 04	 push	 DWORD PTR [edi+4]
  00c39	ff d6		 call	 esi

; 842  : 		pCopyTextFromGrid	= (FpCopyTextFromGrid)::GetProcAddress(m_hLib, "Ex_CopyTextFromGrid");

  00c3b	68 00 00 00 00	 push	 OFFSET ??_C@_0BE@CDOOMMLN@Ex_CopyTextFromGrid@
  00c40	89 87 18 04 00
	00		 mov	 DWORD PTR [edi+1048], eax
  00c46	ff 77 04	 push	 DWORD PTR [edi+4]
  00c49	ff d6		 call	 esi

; 843  : 		pPasteTextToGrid	= (FpPasteTextToGrid)::GetProcAddress(m_hLib, "Ex_PasteTextToGrid");

  00c4b	68 00 00 00 00	 push	 OFFSET ??_C@_0BD@LEHFDCLN@Ex_PasteTextToGrid@
  00c50	89 87 1c 04 00
	00		 mov	 DWORD PTR [edi+1052], eax
  00c56	ff 77 04	 push	 DWORD PTR [edi+4]
  00c59	ff d6		 call	 esi

; 844  : 		pOnBeginDrag	= (FpOnBeginDrag)::GetProcAddress(m_hLib, "Ex_OnBeginDrag");

  00c5b	68 00 00 00 00	 push	 OFFSET ??_C@_0P@BDGAPEEH@Ex_OnBeginDrag@
  00c60	89 87 20 04 00
	00		 mov	 DWORD PTR [edi+1056], eax
  00c66	ff 77 04	 push	 DWORD PTR [edi+4]
  00c69	ff d6		 call	 esi

; 845  : 		pOnDragEnter	= (FpOnDragEnter)::GetProcAddress(m_hLib, "Ex_OnDragEnter");

  00c6b	68 00 00 00 00	 push	 OFFSET ??_C@_0P@LDECAKCG@Ex_OnDragEnter@
  00c70	89 87 24 04 00
	00		 mov	 DWORD PTR [edi+1060], eax
  00c76	ff 77 04	 push	 DWORD PTR [edi+4]
  00c79	ff d6		 call	 esi

; 846  : 		pOnDragOver	= (FpOnDragOver)::GetProcAddress(m_hLib, "Ex_OnDragOver");

  00c7b	68 00 00 00 00	 push	 OFFSET ??_C@_0O@FNABDCOI@Ex_OnDragOver@
  00c80	89 87 28 04 00
	00		 mov	 DWORD PTR [edi+1064], eax
  00c86	ff 77 04	 push	 DWORD PTR [edi+4]
  00c89	ff d6		 call	 esi

; 847  : 		pOnDragLeave	= (FpOnDragLeave)::GetProcAddress(m_hLib, "Ex_OnDragLeave");

  00c8b	68 00 00 00 00	 push	 OFFSET ??_C@_0P@JPLJFEON@Ex_OnDragLeave@
  00c90	89 87 2c 04 00
	00		 mov	 DWORD PTR [edi+1068], eax
  00c96	ff 77 04	 push	 DWORD PTR [edi+4]
  00c99	ff d6		 call	 esi

; 848  : 		pOnDrop	= (FpOnDrop)::GetProcAddress(m_hLib, "Ex_OnDrop");

  00c9b	68 00 00 00 00	 push	 OFFSET ??_C@_09CDNHNDAF@Ex_OnDrop@
  00ca0	89 87 30 04 00
	00		 mov	 DWORD PTR [edi+1072], eax
  00ca6	ff 77 04	 push	 DWORD PTR [edi+4]
  00ca9	ff d6		 call	 esi
  00cab	89 87 34 04 00
	00		 mov	 DWORD PTR [edi+1076], eax

; 849  : 		pOnEditCut	= (FpOnEditCut)::GetProcAddress(m_hLib, "Ex_OnEditCut");

  00cb1	68 00 00 00 00	 push	 OFFSET ??_C@_0N@MPNMBOEO@Ex_OnEditCut@
  00cb6	ff 77 04	 push	 DWORD PTR [edi+4]
  00cb9	ff d6		 call	 esi

; 850  : 		pOnEditCopy	= (FpOnEditCopy)::GetProcAddress(m_hLib, "Ex_OnEditCopy");

  00cbb	68 00 00 00 00	 push	 OFFSET ??_C@_0O@FHPLGNBB@Ex_OnEditCopy@
  00cc0	89 87 38 04 00
	00		 mov	 DWORD PTR [edi+1080], eax
  00cc6	ff 77 04	 push	 DWORD PTR [edi+4]
  00cc9	ff d6		 call	 esi

; 851  : 		pOnEditPaste	= (FpOnEditPaste)::GetProcAddress(m_hLib, "Ex_OnEditPaste");

  00ccb	68 00 00 00 00	 push	 OFFSET ??_C@_0P@FCHCLGJE@Ex_OnEditPaste@
  00cd0	89 87 3c 04 00
	00		 mov	 DWORD PTR [edi+1084], eax
  00cd6	ff 77 04	 push	 DWORD PTR [edi+4]
  00cd9	ff d6		 call	 esi

; 852  : 		pOnEditSelectAll	= (FpOnEditSelectAll)::GetProcAddress(m_hLib, "Ex_OnEditSelectAll");

  00cdb	68 00 00 00 00	 push	 OFFSET ??_C@_0BD@MIFCANKK@Ex_OnEditSelectAll@
  00ce0	89 87 40 04 00
	00		 mov	 DWORD PTR [edi+1088], eax
  00ce6	ff 77 04	 push	 DWORD PTR [edi+4]
  00ce9	ff d6		 call	 esi

; 853  : 		pGetNextItem	= (FpGetNextItem)::GetProcAddress(m_hLib, "Ex_GetNextItem");

  00ceb	68 00 00 00 00	 push	 OFFSET ??_C@_0P@FCNIIBDN@Ex_GetNextItem@
  00cf0	89 87 44 04 00
	00		 mov	 DWORD PTR [edi+1092], eax
  00cf6	ff 77 04	 push	 DWORD PTR [edi+4]
  00cf9	ff d6		 call	 esi

; 854  : 		pSortItems1	= (FpSortItems1)::GetProcAddress(m_hLib, "Ex_SortItems1");

  00cfb	68 00 00 00 00	 push	 OFFSET ??_C@_0O@DLONJMPE@Ex_SortItems1@
  00d00	89 87 48 04 00
	00		 mov	 DWORD PTR [edi+1096], eax
  00d06	ff 77 04	 push	 DWORD PTR [edi+4]
  00d09	ff d6		 call	 esi

; 855  : 		pSortTextItems2	= (FpSortTextItems2)::GetProcAddress(m_hLib, "Ex_SortTextItems2");

  00d0b	68 00 00 00 00	 push	 OFFSET ??_C@_0BC@EEHMHMIF@Ex_SortTextItems2@
  00d10	89 87 4c 04 00
	00		 mov	 DWORD PTR [edi+1100], eax
  00d16	ff 77 04	 push	 DWORD PTR [edi+4]
  00d19	ff d6		 call	 esi

; 856  : 		pSortItems2	= (FpSortItems2)::GetProcAddress(m_hLib, "Ex_SortItems2");

  00d1b	68 00 00 00 00	 push	 OFFSET ??_C@_0O@BAMAMPDH@Ex_SortItems2@
  00d20	89 87 50 04 00
	00		 mov	 DWORD PTR [edi+1104], eax
  00d26	ff 77 04	 push	 DWORD PTR [edi+4]
  00d29	ff d6		 call	 esi

; 857  : 		pSetCompareFunction	= (FpSetCompareFunction)::GetProcAddress(m_hLib, "Ex_SetCompareFunction");

  00d2b	68 00 00 00 00	 push	 OFFSET ??_C@_0BG@MHOCFLFP@Ex_SetCompareFunction@
  00d30	89 87 54 04 00
	00		 mov	 DWORD PTR [edi+1108], eax
  00d36	ff 77 04	 push	 DWORD PTR [edi+4]
  00d39	ff d6		 call	 esi

; 858  : 		pRegisterWindowClass	= (FpRegisterWindowClass)::GetProcAddress(m_hLib, "Ex_RegisterWindowClass");

  00d3b	68 00 00 00 00	 push	 OFFSET ??_C@_0BH@MNDJECPI@Ex_RegisterWindowClass@
  00d40	89 87 58 04 00
	00		 mov	 DWORD PTR [edi+1112], eax
  00d46	ff 77 04	 push	 DWORD PTR [edi+4]
  00d49	ff d6		 call	 esi

; 859  : 		pInitialise	= (FpInitialise)::GetProcAddress(m_hLib, "Ex_Initialise");

  00d4b	68 00 00 00 00	 push	 OFFSET ??_C@_0O@HGOAHAOL@Ex_Initialise@
  00d50	89 87 5c 04 00
	00		 mov	 DWORD PTR [edi+1116], eax
  00d56	ff 77 04	 push	 DWORD PTR [edi+4]
  00d59	ff d6		 call	 esi

; 860  : 		pSetupDefaultCells	= (FpSetupDefaultCells)::GetProcAddress(m_hLib, "Ex_SetupDefaultCells");

  00d5b	68 00 00 00 00	 push	 OFFSET ??_C@_0BF@CHBCJKNB@Ex_SetupDefaultCells@
  00d60	89 87 60 04 00
	00		 mov	 DWORD PTR [edi+1120], eax
  00d66	ff 77 04	 push	 DWORD PTR [edi+4]
  00d69	ff d6		 call	 esi

; 861  : 		pSendMessageToParent	= (FpSendMessageToParent)::GetProcAddress(m_hLib, "Ex_SendMessageToParent");

  00d6b	68 00 00 00 00	 push	 OFFSET ??_C@_0BH@BJMGKDEJ@Ex_SendMessageToParent@
  00d70	89 87 64 04 00
	00		 mov	 DWORD PTR [edi+1124], eax
  00d76	ff 77 04	 push	 DWORD PTR [edi+4]
  00d79	ff d6		 call	 esi

; 862  : 		pSendDisplayRequestToParent	= (FpSendDisplayRequestToParent)::GetProcAddress(m_hLib, "Ex_SendDisplayRequestToParent");

  00d7b	68 00 00 00 00	 push	 OFFSET ??_C@_0BO@JMHDGLFK@Ex_SendDisplayRequestToParent@
  00d80	89 87 68 04 00
	00		 mov	 DWORD PTR [edi+1128], eax
  00d86	ff 77 04	 push	 DWORD PTR [edi+4]
  00d89	ff d6		 call	 esi

; 863  : 		pSendCacheHintToParent	= (FpSendCacheHintToParent)::GetProcAddress(m_hLib, "Ex_SendCacheHintToParent");

  00d8b	68 00 00 00 00	 push	 OFFSET ??_C@_0BJ@CKKJCBFA@Ex_SendCacheHintToParent@
  00d90	89 87 6c 04 00
	00		 mov	 DWORD PTR [edi+1132], eax
  00d96	ff 77 04	 push	 DWORD PTR [edi+4]
  00d99	ff d6		 call	 esi

; 864  : 		pInvalidateCellRect	= (FpInvalidateCellRect)::GetProcAddress(m_hLib, "Ex_InvalidateCellRect");

  00d9b	68 00 00 00 00	 push	 OFFSET ??_C@_0BG@GJJOJEMA@Ex_InvalidateCellRect@
  00da0	89 87 70 04 00
	00		 mov	 DWORD PTR [edi+1136], eax
  00da6	ff 77 04	 push	 DWORD PTR [edi+4]
  00da9	ff d6		 call	 esi

; 865  : 		pInvalidateCellRect2	= (FpInvalidateCellRect2)::GetProcAddress(m_hLib, "Ex_InvalidateCellRect2");

  00dab	68 00 00 00 00	 push	 OFFSET ??_C@_0BH@HGHNAIFF@Ex_InvalidateCellRect2@
  00db0	89 87 74 04 00
	00		 mov	 DWORD PTR [edi+1140], eax
  00db6	ff 77 04	 push	 DWORD PTR [edi+4]
  00db9	ff d6		 call	 esi

; 866  : 		pInvalidateCellRect3	= (FpInvalidateCellRect3)::GetProcAddress(m_hLib, "Ex_InvalidateCellRect3");

  00dbb	68 00 00 00 00	 push	 OFFSET ??_C@_0BH@GPGGDJBE@Ex_InvalidateCellRect3@
  00dc0	89 87 78 04 00
	00		 mov	 DWORD PTR [edi+1144], eax
  00dc6	ff 77 04	 push	 DWORD PTR [edi+4]
  00dc9	ff d6		 call	 esi

; 867  : 		pEraseBkgnd	= (FpEraseBkgnd)::GetProcAddress(m_hLib, "Ex_EraseBkgnd");

  00dcb	68 00 00 00 00	 push	 OFFSET ??_C@_0O@OJPHJPOG@Ex_EraseBkgnd@
  00dd0	89 87 7c 04 00
	00		 mov	 DWORD PTR [edi+1148], eax
  00dd6	ff 77 04	 push	 DWORD PTR [edi+4]
  00dd9	ff d6		 call	 esi

; 868  : 		pGetCellRangeRect	= (FpGetCellRangeRect)::GetProcAddress(m_hLib, "Ex_GetCellRangeRect");

  00ddb	68 00 00 00 00	 push	 OFFSET ??_C@_0BE@HMEBIHKA@Ex_GetCellRangeRect@
  00de0	89 87 80 04 00
	00		 mov	 DWORD PTR [edi+1152], eax
  00de6	ff 77 04	 push	 DWORD PTR [edi+4]
  00de9	ff d6		 call	 esi
  00deb	89 87 84 04 00
	00		 mov	 DWORD PTR [edi+1156], eax

; 869  : 		pSetCell	= (FpSetCell)::GetProcAddress(m_hLib, "Ex_SetCell");

  00df1	68 00 00 00 00	 push	 OFFSET ??_C@_0L@HCKIFLIC@Ex_SetCell@
  00df6	ff 77 04	 push	 DWORD PTR [edi+4]
  00df9	ff d6		 call	 esi

; 870  : 		pSetMouseMode	= (FpSetMouseMode)::GetProcAddress(m_hLib, "Ex_SetMouseMode");

  00dfb	68 00 00 00 00	 push	 OFFSET ??_C@_0BA@KIIGBJKN@Ex_SetMouseMode@
  00e00	89 87 88 04 00
	00		 mov	 DWORD PTR [edi+1160], eax
  00e06	ff 77 04	 push	 DWORD PTR [edi+4]
  00e09	ff d6		 call	 esi

; 871  : 		pGetMouseMode	= (FpGetMouseMode)::GetProcAddress(m_hLib, "Ex_GetMouseMode");

  00e0b	68 00 00 00 00	 push	 OFFSET ??_C@_0BA@NMDINFOB@Ex_GetMouseMode@
  00e10	89 87 8c 04 00
	00		 mov	 DWORD PTR [edi+1164], eax
  00e16	ff 77 04	 push	 DWORD PTR [edi+4]
  00e19	ff d6		 call	 esi

; 872  : 		pMouseOverRowResizeArea	= (FpMouseOverRowResizeArea)::GetProcAddress(m_hLib, "Ex_MouseOverRowResizeArea");

  00e1b	68 00 00 00 00	 push	 OFFSET ??_C@_0BK@EGAFPHHK@Ex_MouseOverRowResizeArea@
  00e20	89 87 90 04 00
	00		 mov	 DWORD PTR [edi+1168], eax
  00e26	ff 77 04	 push	 DWORD PTR [edi+4]
  00e29	ff d6		 call	 esi

; 873  : 		pMouseOverColumnResizeArea	= (FpMouseOverColumnResizeArea)::GetProcAddress(m_hLib, "Ex_MouseOverColumnResizeArea");

  00e2b	68 00 00 00 00	 push	 OFFSET ??_C@_0BN@DBMIOGKB@Ex_MouseOverColumnResizeArea@
  00e30	89 87 94 04 00
	00		 mov	 DWORD PTR [edi+1172], eax
  00e36	ff 77 04	 push	 DWORD PTR [edi+4]
  00e39	ff d6		 call	 esi

; 874  : 		pGetTopleftNonFixedCell	= (FpGetTopleftNonFixedCell)::GetProcAddress(m_hLib, "Ex_GetTopleftNonFixedCell");

  00e3b	68 00 00 00 00	 push	 OFFSET ??_C@_0BK@ECLDPOEH@Ex_GetTopleftNonFixedCell@
  00e40	89 87 98 04 00
	00		 mov	 DWORD PTR [edi+1176], eax
  00e46	ff 77 04	 push	 DWORD PTR [edi+4]
  00e49	ff d6		 call	 esi

; 875  : 		pGetUnobstructedNonFixedCellRange	= (FpGetUnobstructedNonFixedCellRange)::GetProcAddress(m_hLib, "Ex_GetUnobstructedNonFixedCellRange");

  00e4b	68 00 00 00 00	 push	 OFFSET ??_C@_0CE@IHAFBCPB@Ex_GetUnobstructedNonFixedCellR@
  00e50	89 87 9c 04 00
	00		 mov	 DWORD PTR [edi+1180], eax
  00e56	ff 77 04	 push	 DWORD PTR [edi+4]
  00e59	ff d6		 call	 esi

; 876  : 		pGetVisibleNonFixedCellRange	= (FpGetVisibleNonFixedCellRange)::GetProcAddress(m_hLib, "Ex_GetVisibleNonFixedCellRange");

  00e5b	68 00 00 00 00	 push	 OFFSET ??_C@_0BP@FKHJKLB@Ex_GetVisibleNonFixedCellRange@
  00e60	89 87 a0 04 00
	00		 mov	 DWORD PTR [edi+1184], eax
  00e66	ff 77 04	 push	 DWORD PTR [edi+4]
  00e69	ff d6		 call	 esi

; 877  : 		pIsVisibleVScroll	= (FpIsVisibleVScroll)::GetProcAddress(m_hLib, "Ex_IsVisibleVScroll");

  00e6b	68 00 00 00 00	 push	 OFFSET ??_C@_0BE@LJEEPJAG@Ex_IsVisibleVScroll@
  00e70	89 87 a4 04 00
	00		 mov	 DWORD PTR [edi+1188], eax
  00e76	ff 77 04	 push	 DWORD PTR [edi+4]
  00e79	ff d6		 call	 esi

; 878  : 		pIsVisibleHScroll	= (FpIsVisibleHScroll)::GetProcAddress(m_hLib, "Ex_IsVisibleHScroll");

  00e7b	68 00 00 00 00	 push	 OFFSET ??_C@_0BE@NAHFNKBP@Ex_IsVisibleHScroll@
  00e80	89 87 a8 04 00
	00		 mov	 DWORD PTR [edi+1192], eax
  00e86	ff 77 04	 push	 DWORD PTR [edi+4]
  00e89	ff d6		 call	 esi

; 879  : 		pResetSelectedRange	= (FpResetSelectedRange)::GetProcAddress(m_hLib, "Ex_ResetSelectedRange");

  00e8b	68 00 00 00 00	 push	 OFFSET ??_C@_0BG@PMKJNCHJ@Ex_ResetSelectedRange@
  00e90	89 87 ac 04 00
	00		 mov	 DWORD PTR [edi+1196], eax
  00e96	ff 77 04	 push	 DWORD PTR [edi+4]
  00e99	ff d6		 call	 esi

; 880  : 		pResetScrollBars	= (FpResetScrollBars)::GetProcAddress(m_hLib, "Ex_ResetScrollBars");

  00e9b	68 00 00 00 00	 push	 OFFSET ??_C@_0BD@FFPLEIML@Ex_ResetScrollBars@
  00ea0	89 87 b0 04 00
	00		 mov	 DWORD PTR [edi+1200], eax
  00ea6	ff 77 04	 push	 DWORD PTR [edi+4]
  00ea9	ff d6		 call	 esi

; 881  : 		pEnableScrollBars	= (FpEnableScrollBars)::GetProcAddress(m_hLib, "Ex_EnableScrollBars");

  00eab	68 00 00 00 00	 push	 OFFSET ??_C@_0BE@DCHPMGFI@Ex_EnableScrollBars@
  00eb0	89 87 b4 04 00
	00		 mov	 DWORD PTR [edi+1204], eax
  00eb6	ff 77 04	 push	 DWORD PTR [edi+4]
  00eb9	ff d6		 call	 esi

; 882  : 		pGetScrollPos32	= (FpGetScrollPos32)::GetProcAddress(m_hLib, "Ex_GetScrollPos32");

  00ebb	68 00 00 00 00	 push	 OFFSET ??_C@_0BC@LMJBJEGG@Ex_GetScrollPos32@
  00ec0	89 87 b8 04 00
	00		 mov	 DWORD PTR [edi+1208], eax
  00ec6	ff 77 04	 push	 DWORD PTR [edi+4]
  00ec9	ff d6		 call	 esi

; 883  : 		pSetScrollPos32	= (FpSetScrollPos32)::GetProcAddress(m_hLib, "Ex_SetScrollPos32");

  00ecb	68 00 00 00 00	 push	 OFFSET ??_C@_0BC@HCIPGOEK@Ex_SetScrollPos32@
  00ed0	89 87 bc 04 00
	00		 mov	 DWORD PTR [edi+1212], eax
  00ed6	ff 77 04	 push	 DWORD PTR [edi+4]
  00ed9	ff d6		 call	 esi

; 884  : 		pSortTextItems3	= (FpSortTextItems3)::GetProcAddress(m_hLib, "Ex_SortTextItems3");

  00edb	68 00 00 00 00	 push	 OFFSET ??_C@_0BC@FNGHENME@Ex_SortTextItems3@
  00ee0	89 87 c0 04 00
	00		 mov	 DWORD PTR [edi+1216], eax
  00ee6	ff 77 04	 push	 DWORD PTR [edi+4]
  00ee9	ff d6		 call	 esi

; 885  : 		pSortItems3	= (FpSortItems3)::GetProcAddress(m_hLib, "Ex_SortItems3");

  00eeb	68 00 00 00 00	 push	 OFFSET ??_C@_0O@JNLPOHG@Ex_SortItems3@
  00ef0	89 87 c4 04 00
	00		 mov	 DWORD PTR [edi+1220], eax
  00ef6	ff 77 04	 push	 DWORD PTR [edi+4]
  00ef9	ff d6		 call	 esi

; 886  : 		pGetPointClicked	= (FpGetPointClicked)::GetProcAddress(m_hLib, "Ex_GetPointClicked");

  00efb	68 00 00 00 00	 push	 OFFSET ??_C@_0BD@PGFHMGPG@Ex_GetPointClicked@
  00f00	89 87 c8 04 00
	00		 mov	 DWORD PTR [edi+1224], eax
  00f06	ff 77 04	 push	 DWORD PTR [edi+4]
  00f09	ff d6		 call	 esi

; 887  : 		pValidateAndModifyCellContents	= (FpValidateAndModifyCellContents)::GetProcAddress(m_hLib, "Ex_ValidateAndModifyCellContents");

  00f0b	68 00 00 00 00	 push	 OFFSET ??_C@_0CB@BFOICKEE@Ex_ValidateAndModifyCellContent@
  00f10	89 87 cc 04 00
	00		 mov	 DWORD PTR [edi+1228], eax
  00f16	ff 77 04	 push	 DWORD PTR [edi+4]
  00f19	ff d6		 call	 esi

; 888  : 		pPreSubclassWindow	= (FpPreSubclassWindow)::GetProcAddress(m_hLib, "Ex_PreSubclassWindow");

  00f1b	68 00 00 00 00	 push	 OFFSET ??_C@_0BF@NICANNDI@Ex_PreSubclassWindow@
  00f20	89 87 d0 04 00
	00		 mov	 DWORD PTR [edi+1232], eax
  00f26	ff 77 04	 push	 DWORD PTR [edi+4]
  00f29	ff d6		 call	 esi

; 889  : 		pWindowProc	= (FpWindowProc)::GetProcAddress(m_hLib, "Ex_WindowProc");

  00f2b	68 00 00 00 00	 push	 OFFSET ??_C@_0O@GGJGHEIK@Ex_WindowProc@
  00f30	89 87 d4 04 00
	00		 mov	 DWORD PTR [edi+1236], eax
  00f36	ff 77 04	 push	 DWORD PTR [edi+4]
  00f39	ff d6		 call	 esi

; 890  : 		pCreateDragImage	= (FpCreateDragImage)::GetProcAddress(m_hLib, "Ex_CreateDragImage");

  00f3b	68 00 00 00 00	 push	 OFFSET ??_C@_0BD@PEEIENPP@Ex_CreateDragImage@
  00f40	89 87 d8 04 00
	00		 mov	 DWORD PTR [edi+1240], eax
  00f46	ff 77 04	 push	 DWORD PTR [edi+4]
  00f49	ff d6		 call	 esi

; 891  : 		pOnFixedColumnClick	= (FpOnFixedColumnClick)::GetProcAddress(m_hLib, "Ex_OnFixedColumnClick");

  00f4b	68 00 00 00 00	 push	 OFFSET ??_C@_0BG@KJLGFONO@Ex_OnFixedColumnClick@
  00f50	89 87 dc 04 00
	00		 mov	 DWORD PTR [edi+1244], eax
  00f56	ff 77 04	 push	 DWORD PTR [edi+4]
  00f59	ff d6		 call	 esi

; 892  : 		pOnFixedRowClick	= (FpOnFixedRowClick)::GetProcAddress(m_hLib, "Ex_OnFixedRowClick");

  00f5b	68 00 00 00 00	 push	 OFFSET ??_C@_0BD@MDMMMDJH@Ex_OnFixedRowClick@
  00f60	89 87 e0 04 00
	00		 mov	 DWORD PTR [edi+1248], eax
  00f66	ff 77 04	 push	 DWORD PTR [edi+4]
  00f69	ff d6		 call	 esi

; 893  : 		pOnEditCell	= (FpOnEditCell)::GetProcAddress(m_hLib, "Ex_OnEditCell");

  00f6b	68 00 00 00 00	 push	 OFFSET ??_C@_0O@BKMPDBHF@Ex_OnEditCell@
  00f70	89 87 e4 04 00
	00		 mov	 DWORD PTR [edi+1252], eax
  00f76	ff 77 04	 push	 DWORD PTR [edi+4]
  00f79	ff d6		 call	 esi

; 894  : 		pOnEndEditCell	= (FpOnEndEditCell)::GetProcAddress(m_hLib, "Ex_OnEndEditCell");

  00f7b	68 00 00 00 00	 push	 OFFSET ??_C@_0BB@KNNNFNFB@Ex_OnEndEditCell@
  00f80	89 87 e8 04 00
	00		 mov	 DWORD PTR [edi+1256], eax
  00f86	ff 77 04	 push	 DWORD PTR [edi+4]
  00f89	ff d6		 call	 esi

; 895  : 		pValidateEdit	= (FpValidateEdit)::GetProcAddress(m_hLib, "Ex_ValidateEdit");

  00f8b	68 00 00 00 00	 push	 OFFSET ??_C@_0BA@OHFPPEOE@Ex_ValidateEdit@
  00f90	89 87 ec 04 00
	00		 mov	 DWORD PTR [edi+1260], eax
  00f96	ff 77 04	 push	 DWORD PTR [edi+4]
  00f99	ff d6		 call	 esi

; 896  : 		pEndEditing	= (FpEndEditing)::GetProcAddress(m_hLib, "Ex_EndEditing");

  00f9b	68 00 00 00 00	 push	 OFFSET ??_C@_0O@DPAODLNH@Ex_EndEditing@
  00fa0	89 87 f0 04 00
	00		 mov	 DWORD PTR [edi+1264], eax
  00fa6	ff 77 04	 push	 DWORD PTR [edi+4]
  00fa9	ff d6		 call	 esi

; 897  : 		pOnDraw	= (FpOnDraw)::GetProcAddress(m_hLib, "Ex_OnDraw");

  00fab	68 00 00 00 00	 push	 OFFSET ??_C@_09GGAIGIMI@Ex_OnDraw@
  00fb0	89 87 f4 04 00
	00		 mov	 DWORD PTR [edi+1268], eax
  00fb6	ff 77 04	 push	 DWORD PTR [edi+4]
  00fb9	ff d6		 call	 esi

; 898  : 		pCreateCell	= (FpCreateCell)::GetProcAddress(m_hLib, "Ex_CreateCell");

  00fbb	68 00 00 00 00	 push	 OFFSET ??_C@_0O@CJNFGCCD@Ex_CreateCell@
  00fc0	89 87 f8 04 00
	00		 mov	 DWORD PTR [edi+1272], eax
  00fc6	ff 77 04	 push	 DWORD PTR [edi+4]
  00fc9	ff d6		 call	 esi

; 899  : 		pDestroyCell	= (FpDestroyCell)::GetProcAddress(m_hLib, "Ex_DestroyCell");

  00fcb	68 00 00 00 00	 push	 OFFSET ??_C@_0P@KAMDKJMB@Ex_DestroyCell@
  00fd0	89 87 fc 04 00
	00		 mov	 DWORD PTR [edi+1276], eax
  00fd6	ff 77 04	 push	 DWORD PTR [edi+4]
  00fd9	ff d6		 call	 esi

; 900  : 		pSelectAllCells	= (FpSelectAllCells)::GetProcAddress(m_hLib, "Ex_SelectAllCells");

  00fdb	68 00 00 00 00	 push	 OFFSET ??_C@_0BC@GJLIJJPL@Ex_SelectAllCells@
  00fe0	89 87 00 05 00
	00		 mov	 DWORD PTR [edi+1280], eax
  00fe6	ff 77 04	 push	 DWORD PTR [edi+4]
  00fe9	ff d6		 call	 esi

; 901  : 		pSelectColumns	= (FpSelectColumns)::GetProcAddress(m_hLib, "Ex_SelectColumns");

  00feb	68 00 00 00 00	 push	 OFFSET ??_C@_0BB@CBJBIHMM@Ex_SelectColumns@
  00ff0	89 87 04 05 00
	00		 mov	 DWORD PTR [edi+1284], eax
  00ff6	ff 77 04	 push	 DWORD PTR [edi+4]
  00ff9	ff d6		 call	 esi

; 902  : 		pSelectRows	= (FpSelectRows)::GetProcAddress(m_hLib, "Ex_SelectRows");

  00ffb	68 00 00 00 00	 push	 OFFSET ??_C@_0O@OPFPOLPP@Ex_SelectRows@
  01000	89 87 08 05 00
	00		 mov	 DWORD PTR [edi+1288], eax
  01006	ff 77 04	 push	 DWORD PTR [edi+4]
  01009	ff d6		 call	 esi

; 903  : 		pSelectCells	= (FpSelectCells)::GetProcAddress(m_hLib, "Ex_SelectCells");

  0100b	68 00 00 00 00	 push	 OFFSET ??_C@_0P@DLKHGHBP@Ex_SelectCells@
  01010	89 87 0c 05 00
	00		 mov	 DWORD PTR [edi+1292], eax
  01016	ff 77 04	 push	 DWORD PTR [edi+4]
  01019	ff d6		 call	 esi

; 904  : 		pOnSelecting	= (FpOnSelecting)::GetProcAddress(m_hLib, "Ex_OnSelecting");

  0101b	68 00 00 00 00	 push	 OFFSET ??_C@_0P@NADNFEEI@Ex_OnSelecting@
  01020	89 87 10 05 00
	00		 mov	 DWORD PTR [edi+1296], eax
  01026	ff 77 04	 push	 DWORD PTR [edi+4]
  01029	ff d6		 call	 esi

; 905  : 		pOnPaint	= (FpOnPaint)::GetProcAddress(m_hLib, "Ex_OnPaint");

  0102b	68 00 00 00 00	 push	 OFFSET ??_C@_0L@LHMOODNH@Ex_OnPaint@
  01030	89 87 14 05 00
	00		 mov	 DWORD PTR [edi+1300], eax
  01036	ff 77 04	 push	 DWORD PTR [edi+4]
  01039	ff d6		 call	 esi

; 906  : 		pOnHScroll	= (FpOnHScroll)::GetProcAddress(m_hLib, "Ex_OnHScroll");

  0103b	68 00 00 00 00	 push	 OFFSET ??_C@_0N@GMMOFGKF@Ex_OnHScroll@
  01040	89 87 18 05 00
	00		 mov	 DWORD PTR [edi+1304], eax
  01046	ff 77 04	 push	 DWORD PTR [edi+4]
  01049	ff d6		 call	 esi

; 907  : 		pOnVScroll	= (FpOnVScroll)::GetProcAddress(m_hLib, "Ex_OnVScroll");

  0104b	68 00 00 00 00	 push	 OFFSET ??_C@_0N@FPPHFLM@Ex_OnVScroll@
  01050	89 87 1c 05 00
	00		 mov	 DWORD PTR [edi+1308], eax
  01056	ff 77 04	 push	 DWORD PTR [edi+4]
  01059	ff d6		 call	 esi

; 908  : 		pOnSize	= (FpOnSize)::GetProcAddress(m_hLib, "Ex_OnSize");

  0105b	68 00 00 00 00	 push	 OFFSET ??_C@_09FLFHMPIG@Ex_OnSize@
  01060	89 87 20 05 00
	00		 mov	 DWORD PTR [edi+1312], eax
  01066	ff 77 04	 push	 DWORD PTR [edi+4]
  01069	ff d6		 call	 esi

; 909  : 		pOnLButtonUp	= (FpOnLButtonUp)::GetProcAddress(m_hLib, "Ex_OnLButtonUp");

  0106b	68 00 00 00 00	 push	 OFFSET ??_C@_0P@PLNMPOND@Ex_OnLButtonUp@
  01070	89 87 24 05 00
	00		 mov	 DWORD PTR [edi+1316], eax
  01076	ff 77 04	 push	 DWORD PTR [edi+4]
  01079	ff d6		 call	 esi

; 910  : 		pOnLButtonDown	= (FpOnLButtonDown)::GetProcAddress(m_hLib, "Ex_OnLButtonDown");

  0107b	68 00 00 00 00	 push	 OFFSET ??_C@_0BB@PCKHDBM@Ex_OnLButtonDown@
  01080	89 87 28 05 00
	00		 mov	 DWORD PTR [edi+1320], eax
  01086	ff 77 04	 push	 DWORD PTR [edi+4]
  01089	ff d6		 call	 esi

; 911  : 		pOnMouseMove	= (FpOnMouseMove)::GetProcAddress(m_hLib, "Ex_OnMouseMove");

  0108b	68 00 00 00 00	 push	 OFFSET ??_C@_0P@GEIOBKAF@Ex_OnMouseMove@
  01090	89 87 2c 05 00
	00		 mov	 DWORD PTR [edi+1324], eax
  01096	ff 77 04	 push	 DWORD PTR [edi+4]
  01099	ff d6		 call	 esi

; 912  : 		pOnTimer	= (FpOnTimer)::GetProcAddress(m_hLib, "Ex_OnTimer");

  0109b	68 00 00 00 00	 push	 OFFSET ??_C@_0L@MJECDFDA@Ex_OnTimer@
  010a0	89 87 30 05 00
	00		 mov	 DWORD PTR [edi+1328], eax
  010a6	ff 77 04	 push	 DWORD PTR [edi+4]
  010a9	ff d6		 call	 esi

; 913  : 		pOnGetDlgCode	= (FpOnGetDlgCode)::GetProcAddress(m_hLib, "Ex_OnGetDlgCode");

  010ab	68 00 00 00 00	 push	 OFFSET ??_C@_0BA@BODHLALJ@Ex_OnGetDlgCode@
  010b0	89 87 34 05 00
	00		 mov	 DWORD PTR [edi+1332], eax
  010b6	ff 77 04	 push	 DWORD PTR [edi+4]
  010b9	ff d6		 call	 esi

; 914  : 		pOnKeyDown	= (FpOnKeyDown)::GetProcAddress(m_hLib, "Ex_OnKeyDown");

  010bb	68 00 00 00 00	 push	 OFFSET ??_C@_0N@IHJLIDOG@Ex_OnKeyDown@
  010c0	89 87 38 05 00
	00		 mov	 DWORD PTR [edi+1336], eax
  010c6	ff 77 04	 push	 DWORD PTR [edi+4]
  010c9	ff d6		 call	 esi

; 915  : 		pOnKeyUp	= (FpOnKeyUp)::GetProcAddress(m_hLib, "Ex_OnKeyUp");

  010cb	68 00 00 00 00	 push	 OFFSET ??_C@_0L@DHBECPKF@Ex_OnKeyUp@
  010d0	89 87 3c 05 00
	00		 mov	 DWORD PTR [edi+1340], eax
  010d6	ff 77 04	 push	 DWORD PTR [edi+4]
  010d9	ff d6		 call	 esi

; 916  : 		pOnChar	= (FpOnChar)::GetProcAddress(m_hLib, "Ex_OnChar");

  010db	68 00 00 00 00	 push	 OFFSET ??_C@_09JGPLPHGG@Ex_OnChar@
  010e0	89 87 40 05 00
	00		 mov	 DWORD PTR [edi+1344], eax
  010e6	ff 77 04	 push	 DWORD PTR [edi+4]
  010e9	ff d6		 call	 esi

; 917  : 		pOnLButtonDblClk	= (FpOnLButtonDblClk)::GetProcAddress(m_hLib, "Ex_OnLButtonDblClk");

  010eb	68 00 00 00 00	 push	 OFFSET ??_C@_0BD@BBEJDAHH@Ex_OnLButtonDblClk@
  010f0	89 87 44 05 00
	00		 mov	 DWORD PTR [edi+1348], eax
  010f6	ff 77 04	 push	 DWORD PTR [edi+4]
  010f9	ff d6		 call	 esi

; 918  : 		pOnEraseBkgnd	= (FpOnEraseBkgnd)::GetProcAddress(m_hLib, "Ex_OnEraseBkgnd");

  010fb	68 00 00 00 00	 push	 OFFSET ??_C@_0BA@IAGOHFI@Ex_OnEraseBkgnd@
  01100	89 87 48 05 00
	00		 mov	 DWORD PTR [edi+1352], eax
  01106	ff 77 04	 push	 DWORD PTR [edi+4]
  01109	ff d6		 call	 esi

; 919  : 		pOnSysKeyDown	= (FpOnSysKeyDown)::GetProcAddress(m_hLib, "Ex_OnSysKeyDown");

  0110b	68 00 00 00 00	 push	 OFFSET ??_C@_0BA@GDDLCHDJ@Ex_OnSysKeyDown@
  01110	89 87 4c 05 00
	00		 mov	 DWORD PTR [edi+1356], eax
  01116	ff 77 04	 push	 DWORD PTR [edi+4]
  01119	ff d6		 call	 esi

; 920  : 		pOnContextMenu	= (FpOnContextMenu)::GetProcAddress(m_hLib, "Ex_OnContextMenu");

  0111b	68 00 00 00 00	 push	 OFFSET ??_C@_0BB@IHLBDHNK@Ex_OnContextMenu@
  01120	89 87 50 05 00
	00		 mov	 DWORD PTR [edi+1360], eax
  01126	ff 77 04	 push	 DWORD PTR [edi+4]
  01129	ff d6		 call	 esi

; 921  : 		pOnUpdateEditSelectAll	= (FpOnUpdateEditSelectAll)::GetProcAddress(m_hLib, "Ex_OnUpdateEditSelectAll");

  0112b	68 00 00 00 00	 push	 OFFSET ??_C@_0BJ@HFCLHCML@Ex_OnUpdateEditSelectAll@
  01130	89 87 54 05 00
	00		 mov	 DWORD PTR [edi+1364], eax
  01136	ff 77 04	 push	 DWORD PTR [edi+4]
  01139	ff d6		 call	 esi

; 922  : 		pOnSetCursor	= (FpOnSetCursor)::GetProcAddress(m_hLib, "Ex_OnSetCursor");

  0113b	68 00 00 00 00	 push	 OFFSET ??_C@_0P@IABCFNIO@Ex_OnSetCursor@
  01140	89 87 58 05 00
	00		 mov	 DWORD PTR [edi+1368], eax
  01146	ff 77 04	 push	 DWORD PTR [edi+4]
  01149	ff d6		 call	 esi

; 923  : 		pOnRButtonDown	= (FpOnRButtonDown)::GetProcAddress(m_hLib, "Ex_OnRButtonDown");

  0114b	68 00 00 00 00	 push	 OFFSET ??_C@_0BB@OKADENPO@Ex_OnRButtonDown@
  01150	89 87 5c 05 00
	00		 mov	 DWORD PTR [edi+1372], eax
  01156	ff 77 04	 push	 DWORD PTR [edi+4]
  01159	ff d6		 call	 esi

; 924  : 		pOnRButtonUp	= (FpOnRButtonUp)::GetProcAddress(m_hLib, "Ex_OnRButtonUp");

  0115b	68 00 00 00 00	 push	 OFFSET ??_C@_0P@MCLLEPII@Ex_OnRButtonUp@
  01160	89 87 60 05 00
	00		 mov	 DWORD PTR [edi+1376], eax
  01166	ff 77 04	 push	 DWORD PTR [edi+4]
  01169	ff d6		 call	 esi

; 925  : 		pOnSysColorChange	= (FpOnSysColorChange)::GetProcAddress(m_hLib, "Ex_OnSysColorChange");

  0116b	68 00 00 00 00	 push	 OFFSET ??_C@_0BE@DKNKJKBA@Ex_OnSysColorChange@
  01170	89 87 64 05 00
	00		 mov	 DWORD PTR [edi+1380], eax
  01176	ff 77 04	 push	 DWORD PTR [edi+4]
  01179	ff d6		 call	 esi

; 926  : 		pOnCaptureChanged	= (FpOnCaptureChanged)::GetProcAddress(m_hLib, "Ex_OnCaptureChanged");

  0117b	68 00 00 00 00	 push	 OFFSET ??_C@_0BE@FACNGBPD@Ex_OnCaptureChanged@
  01180	89 87 68 05 00
	00		 mov	 DWORD PTR [edi+1384], eax
  01186	ff 77 04	 push	 DWORD PTR [edi+4]
  01189	ff d6		 call	 esi

; 927  : 		pOnUpdateEditCopy	= (FpOnUpdateEditCopy)::GetProcAddress(m_hLib, "Ex_OnUpdateEditCopy");

  0118b	68 00 00 00 00	 push	 OFFSET ??_C@_0BE@LELLFLAI@Ex_OnUpdateEditCopy@
  01190	89 87 6c 05 00
	00		 mov	 DWORD PTR [edi+1388], eax
  01196	ff 77 04	 push	 DWORD PTR [edi+4]
  01199	ff d6		 call	 esi

; 928  : 		pOnUpdateEditCut	= (FpOnUpdateEditCut)::GetProcAddress(m_hLib, "Ex_OnUpdateEditCut");

  0119b	68 00 00 00 00	 push	 OFFSET ??_C@_0BD@OMOBBFMG@Ex_OnUpdateEditCut@
  011a0	89 87 70 05 00
	00		 mov	 DWORD PTR [edi+1392], eax
  011a6	ff 77 04	 push	 DWORD PTR [edi+4]
  011a9	ff d6		 call	 esi

; 929  : 		pOnUpdateEditPaste	= (FpOnUpdateEditPaste)::GetProcAddress(m_hLib, "Ex_OnUpdateEditPaste");

  011ab	68 00 00 00 00	 push	 OFFSET ??_C@_0BF@DGPKFOGC@Ex_OnUpdateEditPaste@
  011b0	89 87 74 05 00
	00		 mov	 DWORD PTR [edi+1396], eax
  011b6	ff 77 04	 push	 DWORD PTR [edi+4]
  011b9	ff d6		 call	 esi
  011bb	89 87 78 05 00
	00		 mov	 DWORD PTR [edi+1400], eax

; 930  : 		pOnSettingChange	= (FpOnSettingChange)::GetProcAddress(m_hLib, "Ex_OnSettingChange");

  011c1	68 00 00 00 00	 push	 OFFSET ??_C@_0BD@PCIBNAMK@Ex_OnSettingChange@
  011c6	ff 77 04	 push	 DWORD PTR [edi+4]
  011c9	ff d6		 call	 esi

; 931  : 		pOnMouseWheel	= (FpOnMouseWheel)::GetProcAddress(m_hLib, "Ex_OnMouseWheel");

  011cb	68 00 00 00 00	 push	 OFFSET ??_C@_0BA@OLIHFLKC@Ex_OnMouseWheel@
  011d0	89 87 7c 05 00
	00		 mov	 DWORD PTR [edi+1404], eax
  011d6	ff 77 04	 push	 DWORD PTR [edi+4]
  011d9	ff d6		 call	 esi

; 932  : 		pOnSetFont	= (FpOnSetFont)::GetProcAddress(m_hLib, "Ex_OnSetFont");

  011db	68 00 00 00 00	 push	 OFFSET ??_C@_0N@ENEBILOC@Ex_OnSetFont@
  011e0	89 87 80 05 00
	00		 mov	 DWORD PTR [edi+1408], eax
  011e6	ff 77 04	 push	 DWORD PTR [edi+4]
  011e9	ff d6		 call	 esi

; 933  : 		pOnGetFont	= (FpOnGetFont)::GetProcAddress(m_hLib, "Ex_OnGetFont");

  011eb	68 00 00 00 00	 push	 OFFSET ??_C@_0N@LFLALEDD@Ex_OnGetFont@
  011f0	89 87 84 05 00
	00		 mov	 DWORD PTR [edi+1412], eax
  011f6	ff 77 04	 push	 DWORD PTR [edi+4]
  011f9	ff d6		 call	 esi

; 934  : 		pOnImeChar	= (FpOnImeChar)::GetProcAddress(m_hLib, "Ex_OnImeChar");

  011fb	68 00 00 00 00	 push	 OFFSET ??_C@_0N@FDGOGOCK@Ex_OnImeChar@
  01200	89 87 88 05 00
	00		 mov	 DWORD PTR [edi+1416], eax
  01206	ff 77 04	 push	 DWORD PTR [edi+4]
  01209	ff d6		 call	 esi

; 935  : 		pOnEndInPlaceEdit	= (FpOnEndInPlaceEdit)::GetProcAddress(m_hLib, "Ex_OnEndInPlaceEdit");

  0120b	68 00 00 00 00	 push	 OFFSET ??_C@_0BE@HFBOPFGB@Ex_OnEndInPlaceEdit@
  01210	89 87 8c 05 00
	00		 mov	 DWORD PTR [edi+1420], eax
  01216	ff 77 04	 push	 DWORD PTR [edi+4]
  01219	ff d6		 call	 esi

; 936  : 		pGetMouseScrollLines	= (FpGetMouseScrollLines)::GetProcAddress(m_hLib, "Ex_GetMouseScrollLines");

  0121b	68 00 00 00 00	 push	 OFFSET ??_C@_0BH@PMEHONMN@Ex_GetMouseScrollLines@
  01220	89 87 90 05 00
	00		 mov	 DWORD PTR [edi+1424], eax
  01226	ff 77 04	 push	 DWORD PTR [edi+4]
  01229	ff d6		 call	 esi

; 937  : 		pSetDefaultCellType	= (FpSetDefaultCellType)::GetProcAddress(m_hLib, "Ex_SetDefaultCellType");

  0122b	68 00 00 00 00	 push	 OFFSET ??_C@_0BG@HFPMNLJD@Ex_SetDefaultCellType@
  01230	89 87 94 05 00
	00		 mov	 DWORD PTR [edi+1428], eax
  01236	ff 77 04	 push	 DWORD PTR [edi+4]
  01239	ff d6		 call	 esi

; 938  : 		pSetGridScrollBarVisible	= (FpSetGridScrollBarVisible)::GetProcAddress(m_hLib, "Ex_SetGridScrollBarVisible");

  0123b	68 00 00 00 00	 push	 OFFSET ??_C@_0BL@OADPEDKM@Ex_SetGridScrollBarVisible@
  01240	89 87 98 05 00
	00		 mov	 DWORD PTR [edi+1432], eax
  01246	ff 77 04	 push	 DWORD PTR [edi+4]
  01249	ff d6		 call	 esi

; 939  : 		pSetUseFocusRect	= (FpSetUseFocusRect)::GetProcAddress(m_hLib, "Ex_SetUseFocusRect");

  0124b	68 00 00 00 00	 push	 OFFSET ??_C@_0BD@DDNFLIJO@Ex_SetUseFocusRect@
  01250	89 87 9c 05 00
	00		 mov	 DWORD PTR [edi+1436], eax
  01256	ff 77 04	 push	 DWORD PTR [edi+4]
  01259	ff d6		 call	 esi

; 940  : 		pGetUseFocusRect	= (FpGetUseFocusRect)::GetProcAddress(m_hLib, "Ex_GetUseFocusRect");

  0125b	68 00 00 00 00	 push	 OFFSET ??_C@_0BD@BMDMKIH@Ex_GetUseFocusRect@
  01260	89 87 a0 05 00
	00		 mov	 DWORD PTR [edi+1440], eax
  01266	ff 77 04	 push	 DWORD PTR [edi+4]
  01269	ff d6		 call	 esi

; 941  : 		pSetDrawFixedLine	= (FpSetDrawFixedLine)::GetProcAddress(m_hLib, "Ex_SetDrawFixedLine");

  0126b	68 00 00 00 00	 push	 OFFSET ??_C@_0BE@BKFECOID@Ex_SetDrawFixedLine@
  01270	89 87 a4 05 00
	00		 mov	 DWORD PTR [edi+1444], eax
  01276	ff 77 04	 push	 DWORD PTR [edi+4]
  01279	ff d6		 call	 esi
  0127b	89 87 a8 05 00
	00		 mov	 DWORD PTR [edi+1448], eax

; 942  : 
; 943  : 		return TRUE;

  01281	b8 01 00 00 00	 mov	 eax, 1
  01286	5e		 pop	 esi
  01287	5f		 pop	 edi

; 944  : 	}

  01288	c3		 ret	 0
?LoadProcAddress@CLoaderGridCtrl@@UAEHXZ ENDP		; CLoaderGridCtrl::LoadProcAddress
_TEXT	ENDS
; Function compile flags: /Ogtp
; File D:\git\src\IBK\IBK_DRFN\ProjSrc\SrcDrfn\Chart\ExControl\Include\GirdLoadHelper.h
; File D:\git\src\IBK\IBK_DRFN\ProjSrc\SrcDrfn\Chart\ExControl\Include\BaseLoadHelper.h
; File D:\git\src\IBK\IBK_DRFN\ProjSrc\SrcDrfn\Chart\ExControl\Include\GirdLoadHelper.h
;	COMDAT ??1CLoaderGridCtrl@@UAE@XZ
_TEXT	SEGMENT
__$EHRec$ = -12						; size = 12
??1CLoaderGridCtrl@@UAE@XZ PROC				; CLoaderGridCtrl::~CLoaderGridCtrl, COMDAT
; _this$ = ecx

; 634  : 	{

  00000	55		 push	 ebp
  00001	8b ec		 mov	 ebp, esp
  00003	6a ff		 push	 -1
  00005	68 00 00 00 00	 push	 __ehhandler$??1CLoaderGridCtrl@@UAE@XZ
  0000a	64 a1 00 00 00
	00		 mov	 eax, DWORD PTR fs:0
  00010	50		 push	 eax
  00011	56		 push	 esi
  00012	a1 00 00 00 00	 mov	 eax, DWORD PTR ___security_cookie
  00017	33 c5		 xor	 eax, ebp
  00019	50		 push	 eax
  0001a	8d 45 f4	 lea	 eax, DWORD PTR __$EHRec$[ebp]
  0001d	64 a3 00 00 00
	00		 mov	 DWORD PTR fs:0, eax
  00023	8b f1		 mov	 esi, ecx

; 635  : 		if(m_hLib)

  00025	8b 46 04	 mov	 eax, DWORD PTR [esi+4]
  00028	c7 06 00 00 00
	00		 mov	 DWORD PTR [esi], OFFSET ??_7CLoaderGridCtrl@@6B@
  0002e	85 c0		 test	 eax, eax
  00030	74 11		 je	 SHORT $LN2@CLoaderGri

; 636  : 			pExitGridCtrl(m_lpPointer);

  00032	ff b6 0c 01 00
	00		 push	 DWORD PTR [esi+268]
  00038	8b 86 18 01 00
	00		 mov	 eax, DWORD PTR [esi+280]
  0003e	ff d0		 call	 eax
  00040	8b 46 04	 mov	 eax, DWORD PTR [esi+4]
$LN2@CLoaderGri:
; File D:\git\src\IBK\IBK_DRFN\ProjSrc\SrcDrfn\Chart\ExControl\Include\BaseLoadHelper.h

; 13   : 	{

  00043	c7 06 00 00 00
	00		 mov	 DWORD PTR [esi], OFFSET ??_7CExLoadLib@@6B@

; 53   : 		if(!m_hLib)

  00049	85 c0		 test	 eax, eax
  0004b	74 0e		 je	 SHORT $LN6@CLoaderGri

; 54   : 			return TRUE;
; 55   : 
; 56   : 		BOOL bResult = ::FreeLibrary(m_hLib);

  0004d	50		 push	 eax
  0004e	ff 15 00 00 00
	00		 call	 DWORD PTR __imp__FreeLibrary@4

; 57   : 		
; 58   : 		m_hLib = NULL;

  00054	c7 46 04 00 00
	00 00		 mov	 DWORD PTR [esi+4], 0
$LN6@CLoaderGri:
; File D:\git\src\IBK\IBK_DRFN\ProjSrc\SrcDrfn\Chart\ExControl\Include\GirdLoadHelper.h

; 637  : 	}

  0005b	8b 4d f4	 mov	 ecx, DWORD PTR __$EHRec$[ebp]
  0005e	64 89 0d 00 00
	00 00		 mov	 DWORD PTR fs:0, ecx
  00065	59		 pop	 ecx
  00066	5e		 pop	 esi
  00067	8b e5		 mov	 esp, ebp
  00069	5d		 pop	 ebp
  0006a	c3		 ret	 0
  0006b	cc		 int	 3
  0006c	cc		 int	 3
  0006d	cc		 int	 3
  0006e	cc		 int	 3
  0006f	cc		 int	 3
_TEXT	ENDS
;	COMDAT text$x
text$x	SEGMENT
__ehhandler$??1CLoaderGridCtrl@@UAE@XZ:
  00000	90		 npad	 1
  00001	90		 npad	 1
  00002	8b 54 24 08	 mov	 edx, DWORD PTR [esp+8]
  00006	8d 42 0c	 lea	 eax, DWORD PTR [edx+12]
  00009	8b 4a f8	 mov	 ecx, DWORD PTR [edx-8]
  0000c	33 c8		 xor	 ecx, eax
  0000e	e8 00 00 00 00	 call	 @__security_check_cookie@4
  00013	b8 00 00 00 00	 mov	 eax, OFFSET __ehfuncinfo$??1CLoaderGridCtrl@@UAE@XZ
  00018	e9 00 00 00 00	 jmp	 ___CxxFrameHandler3
text$x	ENDS
??1CLoaderGridCtrl@@UAE@XZ ENDP				; CLoaderGridCtrl::~CLoaderGridCtrl
; Function compile flags: /Ogtp
; File D:\git\src\IBK\IBK_DRFN\ProjSrc\SrcDrfn\Chart\ExControl\Include\GirdLoadHelper.h
; File D:\git\src\IBK\IBK_DRFN\ProjSrc\SrcDrfn\Chart\ExControl\Include\BaseLoadHelper.h
; File D:\git\src\IBK\IBK_DRFN\ProjSrc\SrcDrfn\Chart\ExControl\Include\GirdLoadHelper.h
; File D:\git\src\IBK\IBK_DRFN\ProjSrc\SrcDrfn\ForSite\FS_Env.h
; File D:\git\src\IBK\IBK_DRFN\ProjSrc\SrcDrfn\Chart\ExControl\Include\GirdLoadHelper.h
; File D:\git\src\IBK\IBK_DRFN\ProjSrc\SrcDrfn\Chart\ExControl\Include\BaseLoadHelper.h
; File D:\git\src\IBK\IBK_DRFN\ProjSrc\SrcDrfn\Chart\ExControl\Include\GirdLoadHelper.h
; File D:\git\src\IBK\IBK_DRFN\ProjSrc\SrcDrfn\Chart\ExControl\Include\BaseLoadHelper.h
; File D:\git\src\IBK\IBK_DRFN\ProjSrc\SrcDrfn\Chart\ExControl\Include\GirdLoadHelper.h
;	COMDAT ??0CLoaderGridCtrl@@QAE@PAXPBD@Z
_TEXT	SEGMENT
_this$GSCopy$ = -296					; size = 4
_lpPointer$GSCopy$1$ = -292				; size = 4
_szDir$ = -288						; size = 4
_err$1$ = -284						; size = 4
$T2 = -284						; size = 4
$T3 = -284						; size = 4
_this$ = -284						; size = 4
__strRoot_$4 = -280					; size = 4
_szMsg$5 = -276						; size = 260
_szBuf$6 = -272						; size = 255
__$ArrayPad$7 = -16					; size = 4
__$EHRec$ = -12						; size = 12
_lpPointer$ = 8						; size = 4
_lpszRootPath$ = 12					; size = 4
??0CLoaderGridCtrl@@QAE@PAXPBD@Z PROC			; CLoaderGridCtrl::CLoaderGridCtrl, COMDAT
; _this$ = ecx

; 310  : 	CLoaderGridCtrl(LPVOID lpPointer, LPCSTR lpszRootPath = NULL) 

  00000	55		 push	 ebp
  00001	8b ec		 mov	 ebp, esp
  00003	6a ff		 push	 -1
  00005	68 00 00 00 00	 push	 __ehhandler$??0CLoaderGridCtrl@@QAE@PAXPBD@Z
  0000a	64 a1 00 00 00
	00		 mov	 eax, DWORD PTR fs:0
  00010	50		 push	 eax
  00011	81 ec 1c 01 00
	00		 sub	 esp, 284		; 0000011cH
  00017	a1 00 00 00 00	 mov	 eax, DWORD PTR ___security_cookie
  0001c	33 c5		 xor	 eax, ebp
  0001e	89 45 f0	 mov	 DWORD PTR __$ArrayPad$7[ebp], eax
  00021	53		 push	 ebx
  00022	56		 push	 esi
  00023	57		 push	 edi
  00024	50		 push	 eax
  00025	8d 45 f4	 lea	 eax, DWORD PTR __$EHRec$[ebp]
  00028	64 a3 00 00 00
	00		 mov	 DWORD PTR fs:0, eax
  0002e	8b f1		 mov	 esi, ecx
  00030	89 b5 e4 fe ff
	ff		 mov	 DWORD PTR _this$[ebp], esi
  00036	8b 45 08	 mov	 eax, DWORD PTR _lpPointer$[ebp]
  00039	89 b5 d8 fe ff
	ff		 mov	 DWORD PTR _this$GSCopy$[ebp], esi
  0003f	89 85 dc fe ff
	ff		 mov	 DWORD PTR _lpPointer$GSCopy$1$[ebp], eax
; File D:\git\src\IBK\IBK_DRFN\ProjSrc\SrcDrfn\Chart\ExControl\Include\BaseLoadHelper.h

; 9    : 		m_hLib = NULL;

  00045	c7 46 04 00 00
	00 00		 mov	 DWORD PTR [esi+4], 0
; File D:\git\src\IBK\IBK_DRFN\ProjSrc\SrcDrfn\Chart\ExControl\Include\GirdLoadHelper.h

; 328  : 		CString szDir;

  0004c	8d 8d e0 fe ff
	ff		 lea	 ecx, DWORD PTR _szDir$[ebp]
  00052	c7 45 fc 00 00
	00 00		 mov	 DWORD PTR __$EHRec$[ebp+8], 0
  00059	c7 06 00 00 00
	00		 mov	 DWORD PTR [esi], OFFSET ??_7CLoaderGridCtrl@@6B@
  0005f	ff 15 00 00 00
	00		 call	 DWORD PTR __imp_??0?$CStringT@DV?$StrTraitMFC_DLL@DV?$ChTraitsCRT@D@ATL@@@@@ATL@@QAE@XZ
; File D:\git\src\IBK\IBK_DRFN\ProjSrc\SrcDrfn\ForSite\FS_Env.h

; 22   : 	CString	_strRoot_;

  00065	8d 8d e8 fe ff
	ff		 lea	 ecx, DWORD PTR __strRoot_$4[ebp]
  0006b	ff 15 00 00 00
	00		 call	 DWORD PTR __imp_??0?$CStringT@DV?$StrTraitMFC_DLL@DV?$ChTraitsCRT@D@ATL@@@@@ATL@@QAE@XZ

; 15   : 	::GetModuleFileName(NULL, szBuf, 255);

  00071	68 ff 00 00 00	 push	 255			; 000000ffH
  00076	8d 85 f0 fe ff
	ff		 lea	 eax, DWORD PTR _szBuf$6[ebp]

; 22   : 	CString	_strRoot_;

  0007c	c6 45 fc 02	 mov	 BYTE PTR __$EHRec$[ebp+8], 2

; 15   : 	::GetModuleFileName(NULL, szBuf, 255);

  00080	50		 push	 eax
  00081	6a 00		 push	 0
  00083	ff 15 00 00 00
	00		 call	 DWORD PTR __imp__GetModuleFileNameA@12

; 16   : 	rString = szBuf;

  00089	8d 85 f0 fe ff
	ff		 lea	 eax, DWORD PTR _szBuf$6[ebp]
  0008f	50		 push	 eax
  00090	8d 8d e8 fe ff
	ff		 lea	 ecx, DWORD PTR __strRoot_$4[ebp]
  00096	ff 15 00 00 00
	00		 call	 DWORD PTR __imp_??4?$CStringT@DV?$StrTraitMFC_DLL@DV?$ChTraitsCRT@D@ATL@@@@@ATL@@QAEAAV01@PBD@Z

; 25   : 	int _loc_ = _strRoot_.ReverseFind('\\');

  0009c	6a 5c		 push	 92			; 0000005cH
  0009e	8d 8d e8 fe ff
	ff		 lea	 ecx, DWORD PTR __strRoot_$4[ebp]
  000a4	ff 15 00 00 00
	00		 call	 DWORD PTR __imp_?ReverseFind@?$CStringT@DV?$StrTraitMFC_DLL@DV?$ChTraitsCRT@D@ATL@@@@@ATL@@QBEHD@Z

; 26   : 	if( _loc_ > 0)

  000aa	85 c0		 test	 eax, eax
  000ac	7e 35		 jle	 SHORT $LN10@CLoaderGri

; 27   : 		_strRoot_ = _strRoot_.Left(_loc_);

  000ae	50		 push	 eax
  000af	8d 85 e4 fe ff
	ff		 lea	 eax, DWORD PTR $T3[ebp]
  000b5	50		 push	 eax
  000b6	8d 8d e8 fe ff
	ff		 lea	 ecx, DWORD PTR __strRoot_$4[ebp]
  000bc	ff 15 00 00 00
	00		 call	 DWORD PTR __imp_?Left@?$CStringT@DV?$StrTraitMFC_DLL@DV?$ChTraitsCRT@D@ATL@@@@@ATL@@QBE?AV12@H@Z
  000c2	50		 push	 eax
  000c3	8d 8d e8 fe ff
	ff		 lea	 ecx, DWORD PTR __strRoot_$4[ebp]
  000c9	c6 45 fc 03	 mov	 BYTE PTR __$EHRec$[ebp+8], 3
  000cd	ff 15 00 00 00
	00		 call	 DWORD PTR __imp_??4?$CStringT@DV?$StrTraitMFC_DLL@DV?$ChTraitsCRT@D@ATL@@@@@ATL@@QAEAAV01@ABV01@@Z
  000d3	8d 8d e4 fe ff
	ff		 lea	 ecx, DWORD PTR $T3[ebp]
  000d9	c6 45 fc 02	 mov	 BYTE PTR __$EHRec$[ebp+8], 2
  000dd	ff 15 00 00 00
	00		 call	 DWORD PTR __imp_??1?$CStringT@DV?$StrTraitMFC_DLL@DV?$ChTraitsCRT@D@ATL@@@@@ATL@@QAE@XZ
$LN10@CLoaderGri:

; 28   : 	_loc_ = _strRoot_.ReverseFind('\\');

  000e3	6a 5c		 push	 92			; 0000005cH
  000e5	8d 8d e8 fe ff
	ff		 lea	 ecx, DWORD PTR __strRoot_$4[ebp]
  000eb	ff 15 00 00 00
	00		 call	 DWORD PTR __imp_?ReverseFind@?$CStringT@DV?$StrTraitMFC_DLL@DV?$ChTraitsCRT@D@ATL@@@@@ATL@@QBEHD@Z

; 29   : 	if( _loc_ > 0)

  000f1	85 c0		 test	 eax, eax
  000f3	7e 35		 jle	 SHORT $LN11@CLoaderGri

; 30   : 		_strRoot_ = _strRoot_.Left(_loc_);

  000f5	50		 push	 eax
  000f6	8d 85 e4 fe ff
	ff		 lea	 eax, DWORD PTR $T2[ebp]
  000fc	50		 push	 eax
  000fd	8d 8d e8 fe ff
	ff		 lea	 ecx, DWORD PTR __strRoot_$4[ebp]
  00103	ff 15 00 00 00
	00		 call	 DWORD PTR __imp_?Left@?$CStringT@DV?$StrTraitMFC_DLL@DV?$ChTraitsCRT@D@ATL@@@@@ATL@@QBE?AV12@H@Z
  00109	50		 push	 eax
  0010a	8d 8d e8 fe ff
	ff		 lea	 ecx, DWORD PTR __strRoot_$4[ebp]
  00110	c6 45 fc 04	 mov	 BYTE PTR __$EHRec$[ebp+8], 4
  00114	ff 15 00 00 00
	00		 call	 DWORD PTR __imp_??4?$CStringT@DV?$StrTraitMFC_DLL@DV?$ChTraitsCRT@D@ATL@@@@@ATL@@QAEAAV01@ABV01@@Z
  0011a	8d 8d e4 fe ff
	ff		 lea	 ecx, DWORD PTR $T2[ebp]
  00120	c6 45 fc 02	 mov	 BYTE PTR __$EHRec$[ebp+8], 2
  00124	ff 15 00 00 00
	00		 call	 DWORD PTR __imp_??1?$CStringT@DV?$StrTraitMFC_DLL@DV?$ChTraitsCRT@D@ATL@@@@@ATL@@QAE@XZ
$LN11@CLoaderGri:

; 31   : 	rString = _strRoot_;

  0012a	8d 85 e8 fe ff
	ff		 lea	 eax, DWORD PTR __strRoot_$4[ebp]
  00130	50		 push	 eax
  00131	8d 8d e0 fe ff
	ff		 lea	 ecx, DWORD PTR _szDir$[ebp]
  00137	ff 15 00 00 00
	00		 call	 DWORD PTR __imp_??4?$CStringT@DV?$StrTraitMFC_DLL@DV?$ChTraitsCRT@D@ATL@@@@@ATL@@QAEAAV01@ABV01@@Z

; 32   : }

  0013d	8d 8d e8 fe ff
	ff		 lea	 ecx, DWORD PTR __strRoot_$4[ebp]
  00143	c6 45 fc 01	 mov	 BYTE PTR __$EHRec$[ebp+8], 1
  00147	ff 15 00 00 00
	00		 call	 DWORD PTR __imp_??1?$CStringT@DV?$StrTraitMFC_DLL@DV?$ChTraitsCRT@D@ATL@@@@@ATL@@QAE@XZ

; 47   : 	rString += "\\Dev";

  0014d	68 00 00 00 00	 push	 OFFSET ??_C@_04OHDBDCPJ@?2Dev@
  00152	8d 8d e0 fe ff
	ff		 lea	 ecx, DWORD PTR _szDir$[ebp]
  00158	ff 15 00 00 00
	00		 call	 DWORD PTR __imp_??Y?$CStringT@DV?$StrTraitMFC_DLL@DV?$ChTraitsCRT@D@ATL@@@@@ATL@@QAEAAV01@PBD@Z
; File D:\git\src\IBK\IBK_DRFN\ProjSrc\SrcDrfn\Chart\ExControl\Include\GirdLoadHelper.h

; 330  : 		::sprintf(m_szDllName, "%s\\%s", szDir, GRIDCTRL_DLL);

  0015e	68 00 00 00 00	 push	 OFFSET ??_C@_0P@HKIIFJOH@ExGridCtrl?4dll@
  00163	ff b5 e0 fe ff
	ff		 push	 DWORD PTR _szDir$[ebp]
  00169	8d 7e 08	 lea	 edi, DWORD PTR [esi+8]
  0016c	68 00 00 00 00	 push	 OFFSET ??_C@_05BMGBEOOC@?$CFs?2?$CFs@
  00171	57		 push	 edi
  00172	e8 00 00 00 00	 call	 _sprintf
  00177	83 c4 10	 add	 esp, 16			; 00000010H

; 331  : 		//<--Solomon-090829
; 332  : 
; 333  : 		pActionControl = NULL;

  0017a	c7 86 10 01 00
	00 00 00 00 00	 mov	 DWORD PTR [esi+272], 0

; 334  : 		pExitGridCtrl = NULL;

  00184	c7 86 18 01 00
	00 00 00 00 00	 mov	 DWORD PTR [esi+280], 0

; 335  : 		pInitGridCtrl = NULL;

  0018e	c7 86 14 01 00
	00 00 00 00 00	 mov	 DWORD PTR [esi+276], 0

; 336  : 		pCreate = NULL;

  00198	c7 86 1c 01 00
	00 00 00 00 00	 mov	 DWORD PTR [esi+284], 0

; 337  : 		pGetRowCount = NULL;

  001a2	c7 86 20 01 00
	00 00 00 00 00	 mov	 DWORD PTR [esi+288], 0

; 338  : 		pGetColumnCount = NULL;

  001ac	c7 86 24 01 00
	00 00 00 00 00	 mov	 DWORD PTR [esi+292], 0

; 339  : 		pGetFixedRowCount = NULL;

  001b6	c7 86 28 01 00
	00 00 00 00 00	 mov	 DWORD PTR [esi+296], 0

; 340  : 		pGetFixedColumnCount = NULL;

  001c0	c7 86 2c 01 00
	00 00 00 00 00	 mov	 DWORD PTR [esi+300], 0

; 341  : 		pSetRowCount = NULL;

  001ca	c7 86 30 01 00
	00 00 00 00 00	 mov	 DWORD PTR [esi+304], 0

; 342  : 		pSetColumnCount = NULL;

  001d4	c7 86 34 01 00
	00 00 00 00 00	 mov	 DWORD PTR [esi+308], 0

; 343  : 		pSetFixedRowCount = NULL;

  001de	c7 86 38 01 00
	00 00 00 00 00	 mov	 DWORD PTR [esi+312], 0

; 344  : 		pSetFixedColumnCount = NULL;

  001e8	c7 86 3c 01 00
	00 00 00 00 00	 mov	 DWORD PTR [esi+316], 0

; 345  : 		pGetRowHeight = NULL;

  001f2	c7 86 40 01 00
	00 00 00 00 00	 mov	 DWORD PTR [esi+320], 0

; 346  : 		pSetRowHeight = NULL;

  001fc	c7 86 44 01 00
	00 00 00 00 00	 mov	 DWORD PTR [esi+324], 0

; 347  : 		pGetColumnWidth = NULL;

  00206	c7 86 48 01 00
	00 00 00 00 00	 mov	 DWORD PTR [esi+328], 0

; 348  : 		pSetColumnWidth = NULL;

  00210	c7 86 4c 01 00
	00 00 00 00 00	 mov	 DWORD PTR [esi+332], 0

; 349  : 		pGetCellOrigin = NULL;

  0021a	c7 86 50 01 00
	00 00 00 00 00	 mov	 DWORD PTR [esi+336], 0

; 350  : 		pGetCellOrigin2 = NULL;

  00224	c7 86 54 01 00
	00 00 00 00 00	 mov	 DWORD PTR [esi+340], 0

; 351  : 		pGetCellRect = NULL;

  0022e	c7 86 58 01 00
	00 00 00 00 00	 mov	 DWORD PTR [esi+344], 0

; 352  : 		pGetCellRect2 = NULL;

  00238	c7 86 5c 01 00
	00 00 00 00 00	 mov	 DWORD PTR [esi+348], 0

; 353  : 		pGetTextRect = NULL;

  00242	c7 86 60 01 00
	00 00 00 00 00	 mov	 DWORD PTR [esi+352], 0

; 354  : 		pGetTextRect2 = NULL;

  0024c	c7 86 64 01 00
	00 00 00 00 00	 mov	 DWORD PTR [esi+356], 0

; 355  : 		pGetCellFromPt = NULL;

  00256	c7 86 68 01 00
	00 00 00 00 00	 mov	 DWORD PTR [esi+360], 0

; 356  : 		pGetFixedRowHeight = NULL;

  00260	c7 86 6c 01 00
	00 00 00 00 00	 mov	 DWORD PTR [esi+364], 0

; 357  : 		pGetFixedColumnWidth = NULL;

  0026a	c7 86 70 01 00
	00 00 00 00 00	 mov	 DWORD PTR [esi+368], 0

; 358  : 		pGetVirtualWidth = NULL;

  00274	c7 86 74 01 00
	00 00 00 00 00	 mov	 DWORD PTR [esi+372], 0

; 359  : 		pGetVirtualHeight = NULL;

  0027e	c7 86 78 01 00
	00 00 00 00 00	 mov	 DWORD PTR [esi+376], 0

; 360  : 		pGetTextExtent = NULL;

  00288	c7 86 7c 01 00
	00 00 00 00 00	 mov	 DWORD PTR [esi+380], 0

; 361  : 		pGetCellTextExtent = NULL;

  00292	c7 86 80 01 00
	00 00 00 00 00	 mov	 DWORD PTR [esi+384], 0

; 362  : 		pSetGridBkColor = NULL;

  0029c	c7 86 84 01 00
	00 00 00 00 00	 mov	 DWORD PTR [esi+388], 0

; 363  : 		pGetGridBkColor = NULL;

  002a6	c7 86 88 01 00
	00 00 00 00 00	 mov	 DWORD PTR [esi+392], 0

; 364  : 		pSetGridLineColor = NULL;

  002b0	c7 86 8c 01 00
	00 00 00 00 00	 mov	 DWORD PTR [esi+396], 0

; 365  : 		pGetGridLineColor = NULL;

  002ba	c7 86 90 01 00
	00 00 00 00 00	 mov	 DWORD PTR [esi+400], 0

; 366  : 		pSetTitleTipBackClr = NULL;

  002c4	c7 86 94 01 00
	00 00 00 00 00	 mov	 DWORD PTR [esi+404], 0

; 367  : 		pGetTitleTipBackClr = NULL;

  002ce	c7 86 98 01 00
	00 00 00 00 00	 mov	 DWORD PTR [esi+408], 0

; 368  : 		pSetTitleTipTextClr = NULL;

  002d8	c7 86 9c 01 00
	00 00 00 00 00	 mov	 DWORD PTR [esi+412], 0

; 369  : 		pGetTitleTipTextClr = NULL;

  002e2	c7 86 a0 01 00
	00 00 00 00 00	 mov	 DWORD PTR [esi+416], 0

; 370  : 		pSetFixedGridLineColor_Light = NULL;

  002ec	c7 86 a4 01 00
	00 00 00 00 00	 mov	 DWORD PTR [esi+420], 0

; 371  : 		pSetFixedGridLineColor_Dark = NULL;

  002f6	c7 86 a8 01 00
	00 00 00 00 00	 mov	 DWORD PTR [esi+424], 0

; 372  : 		pGetFixedGridLineColor_Light = NULL;

  00300	c7 86 ac 01 00
	00 00 00 00 00	 mov	 DWORD PTR [esi+428], 0

; 373  : 		pGetFixedGridLineColor_Dark = NULL;

  0030a	c7 86 b0 01 00
	00 00 00 00 00	 mov	 DWORD PTR [esi+432], 0

; 374  : 		pSetHighlightColor = NULL;

  00314	c7 86 b4 01 00
	00 00 00 00 00	 mov	 DWORD PTR [esi+436], 0

; 375  : 		pSetHighlightTextColor = NULL;

  0031e	c7 86 b8 01 00
	00 00 00 00 00	 mov	 DWORD PTR [esi+440], 0

; 376  : 		pGetHighlightColor = NULL;

  00328	c7 86 bc 01 00
	00 00 00 00 00	 mov	 DWORD PTR [esi+444], 0

; 377  : 		pGetHighlightTextColor = NULL;

  00332	c7 86 c0 01 00
	00 00 00 00 00	 mov	 DWORD PTR [esi+448], 0

; 378  : 		pSetUseHighlightText = NULL;

  0033c	c7 86 c4 01 00
	00 00 00 00 00	 mov	 DWORD PTR [esi+452], 0

; 379  : 		pGetUseHighlightText = NULL;

  00346	c7 86 c8 01 00
	00 00 00 00 00	 mov	 DWORD PTR [esi+456], 0

; 380  : 		pSetFixedRowSelectionHighlight = NULL;

  00350	c7 86 cc 01 00
	00 00 00 00 00	 mov	 DWORD PTR [esi+460], 0

; 381  : 		pGetFixedRowSelectionHighlight = NULL;

  0035a	c7 86 d0 01 00
	00 00 00 00 00	 mov	 DWORD PTR [esi+464], 0

; 382  : 		pSetTextColor = NULL;

  00364	c7 86 d4 01 00
	00 00 00 00 00	 mov	 DWORD PTR [esi+468], 0

; 383  : 		pGetTextColor = NULL;

  0036e	c7 86 d8 01 00
	00 00 00 00 00	 mov	 DWORD PTR [esi+472], 0

; 384  : 		pSetTextBkColor = NULL;

  00378	c7 86 dc 01 00
	00 00 00 00 00	 mov	 DWORD PTR [esi+476], 0

; 385  : 		pGetTextBkColor = NULL;

  00382	c7 86 e0 01 00
	00 00 00 00 00	 mov	 DWORD PTR [esi+480], 0

; 386  : 		pSetFixedTextColor = NULL;

  0038c	c7 86 e4 01 00
	00 00 00 00 00	 mov	 DWORD PTR [esi+484], 0

; 387  : 		pGetFixedTextColor = NULL;

  00396	c7 86 e8 01 00
	00 00 00 00 00	 mov	 DWORD PTR [esi+488], 0

; 388  : 		pSetFixedBkColor = NULL;

  003a0	c7 86 ec 01 00
	00 00 00 00 00	 mov	 DWORD PTR [esi+492], 0

; 389  : 		pGetFixedBkColor = NULL;

  003aa	c7 86 f0 01 00
	00 00 00 00 00	 mov	 DWORD PTR [esi+496], 0

; 390  : 		pSetGridColor = NULL;

  003b4	c7 86 f4 01 00
	00 00 00 00 00	 mov	 DWORD PTR [esi+500], 0

; 391  : 		pGetGridColor = NULL;

  003be	c7 86 f8 01 00
	00 00 00 00 00	 mov	 DWORD PTR [esi+504], 0

; 392  : 		pSetBkColor = NULL;

  003c8	c7 86 fc 01 00
	00 00 00 00 00	 mov	 DWORD PTR [esi+508], 0

; 393  : 		pGetBkColor = NULL;

  003d2	c7 86 00 02 00
	00 00 00 00 00	 mov	 DWORD PTR [esi+512], 0

; 394  : 		pSetDefCellMargin = NULL;

  003dc	c7 86 04 02 00
	00 00 00 00 00	 mov	 DWORD PTR [esi+516], 0

; 395  : 		pGetDefCellMargin = NULL;

  003e6	c7 86 08 02 00
	00 00 00 00 00	 mov	 DWORD PTR [esi+520], 0

; 396  : 		pGetDefCellHeight = NULL;

  003f0	c7 86 0c 02 00
	00 00 00 00 00	 mov	 DWORD PTR [esi+524], 0

; 397  : 		pSetDefCellHeight = NULL;

  003fa	c7 86 10 02 00
	00 00 00 00 00	 mov	 DWORD PTR [esi+528], 0

; 398  : 		pGetDefCellWidth = NULL;

  00404	c7 86 14 02 00
	00 00 00 00 00	 mov	 DWORD PTR [esi+532], 0

; 399  : 		pSetDefCellWidth = NULL;

  0040e	c7 86 18 02 00
	00 00 00 00 00	 mov	 DWORD PTR [esi+536], 0

; 400  : 		pGetSelectedCount = NULL;

  00418	c7 86 1c 02 00
	00 00 00 00 00	 mov	 DWORD PTR [esi+540], 0

; 401  : 		pSetFocusCell1 = NULL;

  00422	c7 86 20 02 00
	00 00 00 00 00	 mov	 DWORD PTR [esi+544], 0

; 402  : 		pSetFocusCell2 = NULL;

  0042c	c7 86 24 02 00
	00 00 00 00 00	 mov	 DWORD PTR [esi+548], 0

; 403  : 		pGetFocusCell = NULL;

  00436	c7 86 28 02 00
	00 00 00 00 00	 mov	 DWORD PTR [esi+552], 0

; 404  : 		pSetVirtualMode = NULL;

  00440	c7 86 2c 02 00
	00 00 00 00 00	 mov	 DWORD PTR [esi+556], 0

; 405  : 		pGetVirtualMode = NULL;

  0044a	c7 86 30 02 00
	00 00 00 00 00	 mov	 DWORD PTR [esi+560], 0

; 406  : 		pSetCallbackFunc = NULL;

  00454	c7 86 34 02 00
	00 00 00 00 00	 mov	 DWORD PTR [esi+564], 0

; 407  : 		pGetCallbackFunc = NULL;

  0045e	c7 86 38 02 00
	00 00 00 00 00	 mov	 DWORD PTR [esi+568], 0

; 408  : 		pSetImageList = NULL;

  00468	c7 86 3c 02 00
	00 00 00 00 00	 mov	 DWORD PTR [esi+572], 0

; 409  : 		pGetImageList = NULL;

  00472	c7 86 40 02 00
	00 00 00 00 00	 mov	 DWORD PTR [esi+576], 0

; 410  : 		pSetGridLines = NULL;

  0047c	c7 86 44 02 00
	00 00 00 00 00	 mov	 DWORD PTR [esi+580], 0

; 411  : 		pGetGridLines = NULL;

  00486	c7 86 48 02 00
	00 00 00 00 00	 mov	 DWORD PTR [esi+584], 0

; 412  : 		pSetEditable = NULL;

  00490	c7 86 4c 02 00
	00 00 00 00 00	 mov	 DWORD PTR [esi+588], 0

; 413  : 		pIsEditable = NULL;

  0049a	c7 86 50 02 00
	00 00 00 00 00	 mov	 DWORD PTR [esi+592], 0

; 414  : 		pSetListMode = NULL;

  004a4	c7 86 54 02 00
	00 00 00 00 00	 mov	 DWORD PTR [esi+596], 0

; 415  : 		pGetListMode = NULL;

  004ae	c7 86 58 02 00
	00 00 00 00 00	 mov	 DWORD PTR [esi+600], 0

; 416  : 		pSetSingleRowSelection = NULL;

  004b8	c7 86 5c 02 00
	00 00 00 00 00	 mov	 DWORD PTR [esi+604], 0

; 417  : 		pGetSingleRowSelection = NULL;

  004c2	c7 86 60 02 00
	00 00 00 00 00	 mov	 DWORD PTR [esi+608], 0

; 418  : 		pSetSingleColSelection = NULL;

  004cc	c7 86 64 02 00
	00 00 00 00 00	 mov	 DWORD PTR [esi+612], 0

; 419  : 		pGetSingleColSelection = NULL;

  004d6	c7 86 68 02 00
	00 00 00 00 00	 mov	 DWORD PTR [esi+616], 0

; 420  : 		pEnableSelection = NULL;

  004e0	c7 86 6c 02 00
	00 00 00 00 00	 mov	 DWORD PTR [esi+620], 0

; 421  : 		pIsSelectable = NULL;

  004ea	c7 86 70 02 00
	00 00 00 00 00	 mov	 DWORD PTR [esi+624], 0

; 422  : 		pSetFixedColumnSelection = NULL;

  004f4	c7 86 74 02 00
	00 00 00 00 00	 mov	 DWORD PTR [esi+628], 0

; 423  : 		pGetFixedColumnSelection = NULL;

  004fe	c7 86 78 02 00
	00 00 00 00 00	 mov	 DWORD PTR [esi+632], 0

; 424  : 		pSetFixedRowSelection = NULL;

  00508	c7 86 7c 02 00
	00 00 00 00 00	 mov	 DWORD PTR [esi+636], 0

; 425  : 		pGetFixedRowSelection = NULL;

  00512	c7 86 80 02 00
	00 00 00 00 00	 mov	 DWORD PTR [esi+640], 0

; 426  : 		pEnableDragAndDrop = NULL;

  0051c	c7 86 84 02 00
	00 00 00 00 00	 mov	 DWORD PTR [esi+644], 0

; 427  : 		pGetDragAndDrop = NULL;

  00526	c7 86 88 02 00
	00 00 00 00 00	 mov	 DWORD PTR [esi+648], 0

; 428  : 		pSetRowResize = NULL;

  00530	c7 86 8c 02 00
	00 00 00 00 00	 mov	 DWORD PTR [esi+652], 0

; 429  : 		pGetRowResize = NULL;

  0053a	c7 86 90 02 00
	00 00 00 00 00	 mov	 DWORD PTR [esi+656], 0

; 430  : 		pSetColumnResize = NULL;

  00544	c7 86 94 02 00
	00 00 00 00 00	 mov	 DWORD PTR [esi+660], 0

; 431  : 		pGetColumnResize = NULL;

  0054e	c7 86 98 02 00
	00 00 00 00 00	 mov	 DWORD PTR [esi+664], 0

; 432  : 		pSetHeaderSort = NULL;

  00558	c7 86 9c 02 00
	00 00 00 00 00	 mov	 DWORD PTR [esi+668], 0

; 433  : 		pGetHeaderSort = NULL;

  00562	c7 86 a0 02 00
	00 00 00 00 00	 mov	 DWORD PTR [esi+672], 0

; 434  : 		pSetHandleTabKey = NULL;

  0056c	c7 86 a4 02 00
	00 00 00 00 00	 mov	 DWORD PTR [esi+676], 0

; 435  : 		pGetHandleTabKey = NULL;

  00576	c7 86 a8 02 00
	00 00 00 00 00	 mov	 DWORD PTR [esi+680], 0

; 436  : 		pSetDoubleBuffering = NULL;

  00580	c7 86 ac 02 00
	00 00 00 00 00	 mov	 DWORD PTR [esi+684], 0

; 437  : 		pGetDoubleBuffering = NULL;

  0058a	c7 86 b0 02 00
	00 00 00 00 00	 mov	 DWORD PTR [esi+688], 0

; 438  : 		pEnableTitleTips = NULL;

  00594	c7 86 b4 02 00
	00 00 00 00 00	 mov	 DWORD PTR [esi+692], 0

; 439  : 		pGetTitleTips = NULL;

  0059e	c7 86 b8 02 00
	00 00 00 00 00	 mov	 DWORD PTR [esi+696], 0

; 440  : 		pSetSortColumn = NULL;

  005a8	c7 86 bc 02 00
	00 00 00 00 00	 mov	 DWORD PTR [esi+700], 0

; 441  : 		pGetSortColumn = NULL;

  005b2	c7 86 c0 02 00
	00 00 00 00 00	 mov	 DWORD PTR [esi+704], 0

; 442  : 		pSetSortAscending = NULL;

  005bc	c7 86 c4 02 00
	00 00 00 00 00	 mov	 DWORD PTR [esi+708], 0

; 443  : 		pGetSortAscending = NULL;

  005c6	c7 86 c8 02 00
	00 00 00 00 00	 mov	 DWORD PTR [esi+712], 0

; 444  : 		pSetTrackFocusCell = NULL;

  005d0	c7 86 cc 02 00
	00 00 00 00 00	 mov	 DWORD PTR [esi+716], 0

; 445  : 		pGetTrackFocusCell = NULL;

  005da	c7 86 d0 02 00
	00 00 00 00 00	 mov	 DWORD PTR [esi+720], 0

; 446  : 		pSetFrameFocusCell = NULL;

  005e4	c7 86 d4 02 00
	00 00 00 00 00	 mov	 DWORD PTR [esi+724], 0

; 447  : 		pGetFrameFocusCell = NULL;

  005ee	c7 86 d8 02 00
	00 00 00 00 00	 mov	 DWORD PTR [esi+728], 0

; 448  : 		pSetAutoSizeStyle = NULL;

  005f8	c7 86 dc 02 00
	00 00 00 00 00	 mov	 DWORD PTR [esi+732], 0

; 449  : 		pGetAutoSizeStyle = NULL;

  00602	c7 86 e0 02 00
	00 00 00 00 00	 mov	 DWORD PTR [esi+736], 0

; 450  : 		pEnableHiddenColUnhide = NULL;

  0060c	c7 86 e4 02 00
	00 00 00 00 00	 mov	 DWORD PTR [esi+740], 0

; 451  : 		pGetHiddenColUnhide = NULL;

  00616	c7 86 e8 02 00
	00 00 00 00 00	 mov	 DWORD PTR [esi+744], 0

; 452  : 		pEnableHiddenRowUnhide = NULL;

  00620	c7 86 ec 02 00
	00 00 00 00 00	 mov	 DWORD PTR [esi+748], 0

; 453  : 		pGetHiddenRowUnhide = NULL;

  0062a	c7 86 f0 02 00
	00 00 00 00 00	 mov	 DWORD PTR [esi+752], 0

; 454  : 		pEnableColumnHide = NULL;

  00634	c7 86 f4 02 00
	00 00 00 00 00	 mov	 DWORD PTR [esi+756], 0

; 455  : 		pGetColumnHide = NULL;

  0063e	c7 86 f8 02 00
	00 00 00 00 00	 mov	 DWORD PTR [esi+760], 0

; 456  : 		pEnableRowHide = NULL;

  00648	c7 86 fc 02 00
	00 00 00 00 00	 mov	 DWORD PTR [esi+764], 0

; 457  : 		pGetRowHide = NULL;

  00652	c7 86 00 03 00
	00 00 00 00 00	 mov	 DWORD PTR [esi+768], 0

; 458  : 		pSetDefaultReadOnly = NULL;

  0065c	c7 86 04 03 00
	00 00 00 00 00	 mov	 DWORD PTR [esi+772], 0

; 459  : 		pIsDefaultReadOnly = NULL;

  00666	c7 86 08 03 00
	00 00 00 00 00	 mov	 DWORD PTR [esi+776], 0

; 460  : 		pGetDefaultCell = NULL;

  00670	c7 86 0c 03 00
	00 00 00 00 00	 mov	 DWORD PTR [esi+780], 0

; 461  : 		pGetCell = NULL;

  0067a	c7 86 10 03 00
	00 00 00 00 00	 mov	 DWORD PTR [esi+784], 0

; 462  : 		pSetModified = NULL;

  00684	c7 86 14 03 00
	00 00 00 00 00	 mov	 DWORD PTR [esi+788], 0

; 463  : 		pGetModified = NULL;

  0068e	c7 86 18 03 00
	00 00 00 00 00	 mov	 DWORD PTR [esi+792], 0

; 464  : 		pIsCellFixed = NULL;

  00698	c7 86 1c 03 00
	00 00 00 00 00	 mov	 DWORD PTR [esi+796], 0

; 465  : 		pSetItem = NULL;

  006a2	c7 86 20 03 00
	00 00 00 00 00	 mov	 DWORD PTR [esi+800], 0

; 466  : 		pGetItem = NULL;

  006ac	c7 86 24 03 00
	00 00 00 00 00	 mov	 DWORD PTR [esi+804], 0

; 467  : 		pSetItemText = NULL;

  006b6	c7 86 28 03 00
	00 00 00 00 00	 mov	 DWORD PTR [esi+808], 0

; 468  : 		pGetItemText = NULL;

  006c0	c7 86 2c 03 00
	00 00 00 00 00	 mov	 DWORD PTR [esi+812], 0

; 469  : 		pSetItemTextFmt = NULL;

  006ca	c7 86 30 03 00
	00 00 00 00 00	 mov	 DWORD PTR [esi+816], 0

; 470  : 		pSetItemTextFmtID = NULL;

  006d4	c7 86 34 03 00
	00 00 00 00 00	 mov	 DWORD PTR [esi+820], 0

; 471  : 		pSetItemData = NULL;

  006de	c7 86 38 03 00
	00 00 00 00 00	 mov	 DWORD PTR [esi+824], 0

; 472  : 		pGetItemData = NULL;

  006e8	c7 86 3c 03 00
	00 00 00 00 00	 mov	 DWORD PTR [esi+828], 0

; 473  : 		pSetItemImage = NULL;

  006f2	c7 86 40 03 00
	00 00 00 00 00	 mov	 DWORD PTR [esi+832], 0

; 474  : 		pGetItemImage = NULL;

  006fc	c7 86 44 03 00
	00 00 00 00 00	 mov	 DWORD PTR [esi+836], 0

; 475  : 		pSetItemState = NULL;

  00706	c7 86 48 03 00
	00 00 00 00 00	 mov	 DWORD PTR [esi+840], 0

; 476  : 		pGetItemState = NULL;

  00710	c7 86 4c 03 00
	00 00 00 00 00	 mov	 DWORD PTR [esi+844], 0

; 477  : 		pSetItemFormat = NULL;

  0071a	c7 86 50 03 00
	00 00 00 00 00	 mov	 DWORD PTR [esi+848], 0

; 478  : 		pGetItemFormat = NULL;

  00724	c7 86 54 03 00
	00 00 00 00 00	 mov	 DWORD PTR [esi+852], 0

; 479  : 		pSetItemBkColour = NULL;

  0072e	c7 86 58 03 00
	00 00 00 00 00	 mov	 DWORD PTR [esi+856], 0

; 480  : 		pGetItemBkColour = NULL;

  00738	c7 86 5c 03 00
	00 00 00 00 00	 mov	 DWORD PTR [esi+860], 0

; 481  : 		pSetItemFgColour = NULL;

  00742	c7 86 60 03 00
	00 00 00 00 00	 mov	 DWORD PTR [esi+864], 0

; 482  : 		pGetItemFgColour = NULL;

  0074c	c7 86 64 03 00
	00 00 00 00 00	 mov	 DWORD PTR [esi+868], 0

; 483  : 		pSetItemFont = NULL;

  00756	c7 86 68 03 00
	00 00 00 00 00	 mov	 DWORD PTR [esi+872], 0

; 484  : 		pGetItemFont = NULL;

  00760	c7 86 6c 03 00
	00 00 00 00 00	 mov	 DWORD PTR [esi+876], 0

; 485  : 		pIsItemEditing = NULL;

  0076a	c7 86 70 03 00
	00 00 00 00 00	 mov	 DWORD PTR [esi+880], 0

; 486  : 		pSetCellType = NULL;

  00774	c7 86 74 03 00
	00 00 00 00 00	 mov	 DWORD PTR [esi+884], 0

; 487  : 		pInsertColumn = NULL;

  0077e	c7 86 78 03 00
	00 00 00 00 00	 mov	 DWORD PTR [esi+888], 0

; 488  : 		pInsertRow = NULL;

  00788	c7 86 7c 03 00
	00 00 00 00 00	 mov	 DWORD PTR [esi+892], 0

; 489  : 		pDeleteColumn = NULL;

  00792	c7 86 80 03 00
	00 00 00 00 00	 mov	 DWORD PTR [esi+896], 0

; 490  : 		pDeleteRow = NULL;

  0079c	c7 86 84 03 00
	00 00 00 00 00	 mov	 DWORD PTR [esi+900], 0

; 491  : 		pDeleteNonFixedRows = NULL;

  007a6	c7 86 88 03 00
	00 00 00 00 00	 mov	 DWORD PTR [esi+904], 0

; 492  : 		pDeleteAllItems = NULL;

  007b0	c7 86 8c 03 00
	00 00 00 00 00	 mov	 DWORD PTR [esi+908], 0

; 493  : 		pClearCells = NULL;

  007ba	c7 86 90 03 00
	00 00 00 00 00	 mov	 DWORD PTR [esi+912], 0

; 494  : 		pAutoSizeRow = NULL;

  007c4	c7 86 94 03 00
	00 00 00 00 00	 mov	 DWORD PTR [esi+916], 0

; 495  : 		pAutoSizeColumn = NULL;

  007ce	c7 86 98 03 00
	00 00 00 00 00	 mov	 DWORD PTR [esi+920], 0

; 496  : 		pAutoSizeRows = NULL;

  007d8	c7 86 9c 03 00
	00 00 00 00 00	 mov	 DWORD PTR [esi+924], 0

; 497  : 		pAutoSizeColumns = NULL;

  007e2	c7 86 a0 03 00
	00 00 00 00 00	 mov	 DWORD PTR [esi+928], 0

; 498  : 		pAutoSize = NULL;

  007ec	c7 86 a4 03 00
	00 00 00 00 00	 mov	 DWORD PTR [esi+932], 0

; 499  : 		pExpandColumnsToFit = NULL;

  007f6	c7 86 a8 03 00
	00 00 00 00 00	 mov	 DWORD PTR [esi+936], 0

; 500  : 		pExpandLastColumn = NULL;

  00800	c7 86 ac 03 00
	00 00 00 00 00	 mov	 DWORD PTR [esi+940], 0

; 501  : 		pExpandRowsToFit = NULL;

  0080a	c7 86 b0 03 00
	00 00 00 00 00	 mov	 DWORD PTR [esi+944], 0

; 502  : 		pExpandToFit = NULL;

  00814	c7 86 b4 03 00
	00 00 00 00 00	 mov	 DWORD PTR [esi+948], 0

; 503  : 		pRefresh = NULL;

  0081e	c7 86 b8 03 00
	00 00 00 00 00	 mov	 DWORD PTR [esi+952], 0

; 504  : 		pAutoFill = NULL;

  00828	c7 86 bc 03 00
	00 00 00 00 00	 mov	 DWORD PTR [esi+956], 0

; 505  : 		pEnsureVisible = NULL;

  00832	c7 86 c0 03 00
	00 00 00 00 00	 mov	 DWORD PTR [esi+960], 0

; 506  : 		pEnsureVisible2 = NULL;

  0083c	c7 86 c4 03 00
	00 00 00 00 00	 mov	 DWORD PTR [esi+964], 0

; 507  : 		pIsCellVisible = NULL;

  00846	c7 86 c8 03 00
	00 00 00 00 00	 mov	 DWORD PTR [esi+968], 0

; 508  : 		pIsCellVisible2 = NULL;

  00850	c7 86 cc 03 00
	00 00 00 00 00	 mov	 DWORD PTR [esi+972], 0

; 509  : 		pIsCellEditable = NULL;

  0085a	c7 86 d0 03 00
	00 00 00 00 00	 mov	 DWORD PTR [esi+976], 0

; 510  : 		pIsCellEditable2 = NULL;

  00864	c7 86 d4 03 00
	00 00 00 00 00	 mov	 DWORD PTR [esi+980], 0

; 511  : 		pIsCellSelected = NULL;

  0086e	c7 86 d8 03 00
	00 00 00 00 00	 mov	 DWORD PTR [esi+984], 0

; 512  : 		pIsCellSelected2 = NULL;

  00878	c7 86 dc 03 00
	00 00 00 00 00	 mov	 DWORD PTR [esi+988], 0

; 513  : 		pSetRedraw = NULL;

  00882	c7 86 e0 03 00
	00 00 00 00 00	 mov	 DWORD PTR [esi+992], 0

; 514  : 		pRedrawCell = NULL;

  0088c	c7 86 e4 03 00
	00 00 00 00 00	 mov	 DWORD PTR [esi+996], 0

; 515  : 		pRedrawCell2 = NULL;

  00896	c7 86 e8 03 00
	00 00 00 00 00	 mov	 DWORD PTR [esi+1000], 0

; 516  : 		pRedrawRow = NULL;

  008a0	c7 86 ec 03 00
	00 00 00 00 00	 mov	 DWORD PTR [esi+1004], 0

; 517  : 		pRedrawColumn = NULL;

  008aa	c7 86 f0 03 00
	00 00 00 00 00	 mov	 DWORD PTR [esi+1008], 0

; 518  : 		pSave = NULL;

  008b4	c7 86 f4 03 00
	00 00 00 00 00	 mov	 DWORD PTR [esi+1012], 0

; 519  : 		pLoad = NULL;

  008be	c7 86 f8 03 00
	00 00 00 00 00	 mov	 DWORD PTR [esi+1016], 0

; 520  : 		pGetCellRange = NULL;

  008c8	c7 86 fc 03 00
	00 00 00 00 00	 mov	 DWORD PTR [esi+1020], 0

; 521  : 		pGetSelectedCellRange = NULL;

  008d2	c7 86 00 04 00
	00 00 00 00 00	 mov	 DWORD PTR [esi+1024], 0

; 522  : 		pSetSelectedRange = NULL;

  008dc	c7 86 04 04 00
	00 00 00 00 00	 mov	 DWORD PTR [esi+1028], 0

; 523  : 		pSetSelectedRange2 = NULL;

  008e6	c7 86 08 04 00
	00 00 00 00 00	 mov	 DWORD PTR [esi+1032], 0

; 524  : 		pIsValid = NULL;

  008f0	c7 86 0c 04 00
	00 00 00 00 00	 mov	 DWORD PTR [esi+1036], 0

; 525  : 		pIsValid2 = NULL;

  008fa	c7 86 10 04 00
	00 00 00 00 00	 mov	 DWORD PTR [esi+1040], 0

; 526  : 		pIsValid3 = NULL;

  00904	c7 86 14 04 00
	00 00 00 00 00	 mov	 DWORD PTR [esi+1044], 0

; 527  : 		pCutSelectedText = NULL;

  0090e	c7 86 18 04 00
	00 00 00 00 00	 mov	 DWORD PTR [esi+1048], 0

; 528  : 		pCopyTextFromGrid = NULL;

  00918	c7 86 1c 04 00
	00 00 00 00 00	 mov	 DWORD PTR [esi+1052], 0

; 529  : 		pPasteTextToGrid = NULL;

  00922	c7 86 20 04 00
	00 00 00 00 00	 mov	 DWORD PTR [esi+1056], 0

; 530  : 		pOnBeginDrag = NULL;

  0092c	c7 86 24 04 00
	00 00 00 00 00	 mov	 DWORD PTR [esi+1060], 0

; 531  : 		pOnDragEnter = NULL;

  00936	c7 86 28 04 00
	00 00 00 00 00	 mov	 DWORD PTR [esi+1064], 0

; 532  : 		pOnDragOver = NULL;

  00940	c7 86 2c 04 00
	00 00 00 00 00	 mov	 DWORD PTR [esi+1068], 0

; 533  : 		pOnDragLeave = NULL;

  0094a	c7 86 30 04 00
	00 00 00 00 00	 mov	 DWORD PTR [esi+1072], 0

; 534  : 		pOnDrop = NULL;

  00954	c7 86 34 04 00
	00 00 00 00 00	 mov	 DWORD PTR [esi+1076], 0

; 535  : 		pOnEditCut = NULL;

  0095e	c7 86 38 04 00
	00 00 00 00 00	 mov	 DWORD PTR [esi+1080], 0

; 536  : 		pOnEditCopy = NULL;

  00968	c7 86 3c 04 00
	00 00 00 00 00	 mov	 DWORD PTR [esi+1084], 0

; 537  : 		pOnEditPaste = NULL;

  00972	c7 86 40 04 00
	00 00 00 00 00	 mov	 DWORD PTR [esi+1088], 0

; 538  : 		pOnEditSelectAll = NULL;

  0097c	c7 86 44 04 00
	00 00 00 00 00	 mov	 DWORD PTR [esi+1092], 0

; 539  : 		pGetNextItem = NULL;

  00986	c7 86 48 04 00
	00 00 00 00 00	 mov	 DWORD PTR [esi+1096], 0

; 540  : 		pSortItems1 = NULL;

  00990	c7 86 4c 04 00
	00 00 00 00 00	 mov	 DWORD PTR [esi+1100], 0

; 541  : 		pSortTextItems2 = NULL;

  0099a	c7 86 50 04 00
	00 00 00 00 00	 mov	 DWORD PTR [esi+1104], 0

; 542  : 		pSortItems2 = NULL;

  009a4	c7 86 54 04 00
	00 00 00 00 00	 mov	 DWORD PTR [esi+1108], 0

; 543  : 		pSetCompareFunction = NULL;

  009ae	c7 86 58 04 00
	00 00 00 00 00	 mov	 DWORD PTR [esi+1112], 0

; 544  : 		pRegisterWindowClass = NULL;

  009b8	c7 86 5c 04 00
	00 00 00 00 00	 mov	 DWORD PTR [esi+1116], 0

; 545  : 		pInitialise = NULL;

  009c2	c7 86 60 04 00
	00 00 00 00 00	 mov	 DWORD PTR [esi+1120], 0

; 546  : 		pSetupDefaultCells = NULL;

  009cc	c7 86 64 04 00
	00 00 00 00 00	 mov	 DWORD PTR [esi+1124], 0

; 547  : 		pSendMessageToParent = NULL;

  009d6	c7 86 68 04 00
	00 00 00 00 00	 mov	 DWORD PTR [esi+1128], 0

; 548  : 		pSendDisplayRequestToParent = NULL;

  009e0	c7 86 6c 04 00
	00 00 00 00 00	 mov	 DWORD PTR [esi+1132], 0

; 549  : 		pSendCacheHintToParent = NULL;

  009ea	c7 86 70 04 00
	00 00 00 00 00	 mov	 DWORD PTR [esi+1136], 0

; 550  : 		pInvalidateCellRect = NULL;

  009f4	c7 86 74 04 00
	00 00 00 00 00	 mov	 DWORD PTR [esi+1140], 0

; 551  : 		pInvalidateCellRect2 = NULL;

  009fe	c7 86 78 04 00
	00 00 00 00 00	 mov	 DWORD PTR [esi+1144], 0

; 552  : 		pInvalidateCellRect3 = NULL;

  00a08	c7 86 7c 04 00
	00 00 00 00 00	 mov	 DWORD PTR [esi+1148], 0

; 553  : 		pEraseBkgnd = NULL;

  00a12	c7 86 80 04 00
	00 00 00 00 00	 mov	 DWORD PTR [esi+1152], 0

; 554  : 		pGetCellRangeRect = NULL;

  00a1c	c7 86 84 04 00
	00 00 00 00 00	 mov	 DWORD PTR [esi+1156], 0

; 555  : 		pSetCell = NULL;

  00a26	c7 86 88 04 00
	00 00 00 00 00	 mov	 DWORD PTR [esi+1160], 0

; 556  : 		pSetMouseMode = NULL;

  00a30	c7 86 8c 04 00
	00 00 00 00 00	 mov	 DWORD PTR [esi+1164], 0

; 557  : 		pGetMouseMode = NULL;

  00a3a	c7 86 90 04 00
	00 00 00 00 00	 mov	 DWORD PTR [esi+1168], 0

; 558  : 		pMouseOverRowResizeArea = NULL;

  00a44	c7 86 94 04 00
	00 00 00 00 00	 mov	 DWORD PTR [esi+1172], 0

; 559  : 		pMouseOverColumnResizeArea = NULL;

  00a4e	c7 86 98 04 00
	00 00 00 00 00	 mov	 DWORD PTR [esi+1176], 0

; 560  : 		pGetTopleftNonFixedCell = NULL;

  00a58	c7 86 9c 04 00
	00 00 00 00 00	 mov	 DWORD PTR [esi+1180], 0

; 561  : 		pGetUnobstructedNonFixedCellRange = NULL;

  00a62	c7 86 a0 04 00
	00 00 00 00 00	 mov	 DWORD PTR [esi+1184], 0

; 562  : 		pGetVisibleNonFixedCellRange = NULL;

  00a6c	c7 86 a4 04 00
	00 00 00 00 00	 mov	 DWORD PTR [esi+1188], 0

; 563  : 		pIsVisibleVScroll = NULL;

  00a76	c7 86 a8 04 00
	00 00 00 00 00	 mov	 DWORD PTR [esi+1192], 0

; 564  : 		pIsVisibleHScroll = NULL;

  00a80	c7 86 ac 04 00
	00 00 00 00 00	 mov	 DWORD PTR [esi+1196], 0

; 565  : 		pResetSelectedRange = NULL;

  00a8a	c7 86 b0 04 00
	00 00 00 00 00	 mov	 DWORD PTR [esi+1200], 0

; 566  : 		pResetScrollBars = NULL;

  00a94	c7 86 b4 04 00
	00 00 00 00 00	 mov	 DWORD PTR [esi+1204], 0

; 567  : 		pEnableScrollBars = NULL;

  00a9e	c7 86 b8 04 00
	00 00 00 00 00	 mov	 DWORD PTR [esi+1208], 0

; 568  : 		pGetScrollPos32 = NULL;

  00aa8	c7 86 bc 04 00
	00 00 00 00 00	 mov	 DWORD PTR [esi+1212], 0

; 569  : 		pSetScrollPos32 = NULL;

  00ab2	c7 86 c0 04 00
	00 00 00 00 00	 mov	 DWORD PTR [esi+1216], 0

; 570  : 		pSortTextItems3 = NULL;

  00abc	c7 86 c4 04 00
	00 00 00 00 00	 mov	 DWORD PTR [esi+1220], 0

; 571  : 		pSortItems3 = NULL;

  00ac6	c7 86 c8 04 00
	00 00 00 00 00	 mov	 DWORD PTR [esi+1224], 0

; 572  : 		pGetPointClicked = NULL;

  00ad0	c7 86 cc 04 00
	00 00 00 00 00	 mov	 DWORD PTR [esi+1228], 0

; 573  : 		pValidateAndModifyCellContents = NULL;

  00ada	c7 86 d0 04 00
	00 00 00 00 00	 mov	 DWORD PTR [esi+1232], 0

; 574  : 		pPreSubclassWindow = NULL;

  00ae4	c7 86 d4 04 00
	00 00 00 00 00	 mov	 DWORD PTR [esi+1236], 0

; 575  : 		pWindowProc = NULL;

  00aee	c7 86 d8 04 00
	00 00 00 00 00	 mov	 DWORD PTR [esi+1240], 0

; 576  : 		pCreateDragImage = NULL;

  00af8	c7 86 dc 04 00
	00 00 00 00 00	 mov	 DWORD PTR [esi+1244], 0

; 577  : 		pOnFixedColumnClick = NULL;

  00b02	c7 86 e0 04 00
	00 00 00 00 00	 mov	 DWORD PTR [esi+1248], 0

; 578  : 		pOnFixedRowClick = NULL;

  00b0c	c7 86 e4 04 00
	00 00 00 00 00	 mov	 DWORD PTR [esi+1252], 0

; 579  : 		pOnEditCell = NULL;

  00b16	c7 86 e8 04 00
	00 00 00 00 00	 mov	 DWORD PTR [esi+1256], 0

; 580  : 		pOnEndEditCell = NULL;

  00b20	c7 86 ec 04 00
	00 00 00 00 00	 mov	 DWORD PTR [esi+1260], 0

; 581  : 		pValidateEdit = NULL;

  00b2a	c7 86 f0 04 00
	00 00 00 00 00	 mov	 DWORD PTR [esi+1264], 0

; 582  : 		pEndEditing = NULL;

  00b34	c7 86 f4 04 00
	00 00 00 00 00	 mov	 DWORD PTR [esi+1268], 0

; 583  : 		pOnDraw = NULL;

  00b3e	c7 86 f8 04 00
	00 00 00 00 00	 mov	 DWORD PTR [esi+1272], 0

; 584  : 		pCreateCell = NULL;

  00b48	c7 86 fc 04 00
	00 00 00 00 00	 mov	 DWORD PTR [esi+1276], 0

; 585  : 		pDestroyCell = NULL;

  00b52	c7 86 00 05 00
	00 00 00 00 00	 mov	 DWORD PTR [esi+1280], 0

; 586  : 		pSelectAllCells = NULL;

  00b5c	c7 86 04 05 00
	00 00 00 00 00	 mov	 DWORD PTR [esi+1284], 0

; 587  : 		pSelectColumns = NULL;

  00b66	c7 86 08 05 00
	00 00 00 00 00	 mov	 DWORD PTR [esi+1288], 0

; 588  : 		pSelectRows = NULL;

  00b70	c7 86 0c 05 00
	00 00 00 00 00	 mov	 DWORD PTR [esi+1292], 0

; 589  : 		pSelectCells = NULL;

  00b7a	c7 86 10 05 00
	00 00 00 00 00	 mov	 DWORD PTR [esi+1296], 0

; 590  : 		pOnSelecting = NULL;

  00b84	c7 86 14 05 00
	00 00 00 00 00	 mov	 DWORD PTR [esi+1300], 0

; 591  : 		pOnPaint = NULL;

  00b8e	c7 86 18 05 00
	00 00 00 00 00	 mov	 DWORD PTR [esi+1304], 0

; 592  : 		pOnHScroll = NULL;

  00b98	c7 86 1c 05 00
	00 00 00 00 00	 mov	 DWORD PTR [esi+1308], 0

; 593  : 		pOnVScroll = NULL;

  00ba2	c7 86 20 05 00
	00 00 00 00 00	 mov	 DWORD PTR [esi+1312], 0

; 594  : 		pOnSize = NULL;

  00bac	c7 86 24 05 00
	00 00 00 00 00	 mov	 DWORD PTR [esi+1316], 0

; 595  : 		pOnLButtonUp = NULL;

  00bb6	c7 86 28 05 00
	00 00 00 00 00	 mov	 DWORD PTR [esi+1320], 0

; 596  : 		pOnLButtonDown = NULL;

  00bc0	c7 86 2c 05 00
	00 00 00 00 00	 mov	 DWORD PTR [esi+1324], 0

; 597  : 		pOnMouseMove = NULL;

  00bca	c7 86 30 05 00
	00 00 00 00 00	 mov	 DWORD PTR [esi+1328], 0

; 598  : 		pOnTimer = NULL;

  00bd4	c7 86 34 05 00
	00 00 00 00 00	 mov	 DWORD PTR [esi+1332], 0

; 599  : 		pOnGetDlgCode = NULL;

  00bde	c7 86 38 05 00
	00 00 00 00 00	 mov	 DWORD PTR [esi+1336], 0

; 600  : 		pOnKeyDown = NULL;

  00be8	c7 86 3c 05 00
	00 00 00 00 00	 mov	 DWORD PTR [esi+1340], 0

; 601  : 		pOnKeyUp = NULL;

  00bf2	c7 86 40 05 00
	00 00 00 00 00	 mov	 DWORD PTR [esi+1344], 0

; 602  : 		pOnChar = NULL;

  00bfc	c7 86 44 05 00
	00 00 00 00 00	 mov	 DWORD PTR [esi+1348], 0

; 603  : 		pOnLButtonDblClk = NULL;

  00c06	c7 86 48 05 00
	00 00 00 00 00	 mov	 DWORD PTR [esi+1352], 0

; 604  : 		pOnEraseBkgnd = NULL;

  00c10	c7 86 4c 05 00
	00 00 00 00 00	 mov	 DWORD PTR [esi+1356], 0

; 605  : 		pOnSysKeyDown = NULL;

  00c1a	c7 86 50 05 00
	00 00 00 00 00	 mov	 DWORD PTR [esi+1360], 0

; 606  : 		pOnContextMenu = NULL;

  00c24	c7 86 54 05 00
	00 00 00 00 00	 mov	 DWORD PTR [esi+1364], 0

; 607  : 		pOnUpdateEditSelectAll = NULL;

  00c2e	c7 86 58 05 00
	00 00 00 00 00	 mov	 DWORD PTR [esi+1368], 0

; 608  : 		pOnSetCursor = NULL;

  00c38	c7 86 5c 05 00
	00 00 00 00 00	 mov	 DWORD PTR [esi+1372], 0

; 609  : 		pOnRButtonDown = NULL;

  00c42	c7 86 60 05 00
	00 00 00 00 00	 mov	 DWORD PTR [esi+1376], 0

; 610  : 		pOnRButtonUp = NULL;

  00c4c	c7 86 64 05 00
	00 00 00 00 00	 mov	 DWORD PTR [esi+1380], 0

; 611  : 		pOnSysColorChange = NULL;

  00c56	c7 86 68 05 00
	00 00 00 00 00	 mov	 DWORD PTR [esi+1384], 0

; 612  : 		pOnCaptureChanged = NULL;

  00c60	c7 86 6c 05 00
	00 00 00 00 00	 mov	 DWORD PTR [esi+1388], 0

; 613  : 		pOnUpdateEditCopy = NULL;

  00c6a	c7 86 70 05 00
	00 00 00 00 00	 mov	 DWORD PTR [esi+1392], 0

; 614  : 		pOnUpdateEditCut = NULL;

  00c74	c7 86 74 05 00
	00 00 00 00 00	 mov	 DWORD PTR [esi+1396], 0

; 615  : 		pOnUpdateEditPaste = NULL;

  00c7e	c7 86 78 05 00
	00 00 00 00 00	 mov	 DWORD PTR [esi+1400], 0

; 616  : 		pOnSettingChange = NULL;

  00c88	c7 86 7c 05 00
	00 00 00 00 00	 mov	 DWORD PTR [esi+1404], 0

; 617  : 		pOnMouseWheel = NULL;

  00c92	c7 86 80 05 00
	00 00 00 00 00	 mov	 DWORD PTR [esi+1408], 0

; 618  : 		pOnSetFont = NULL;

  00c9c	c7 86 84 05 00
	00 00 00 00 00	 mov	 DWORD PTR [esi+1412], 0

; 619  : 		pOnGetFont = NULL;

  00ca6	c7 86 88 05 00
	00 00 00 00 00	 mov	 DWORD PTR [esi+1416], 0

; 620  : 		pOnImeChar = NULL;

  00cb0	c7 86 8c 05 00
	00 00 00 00 00	 mov	 DWORD PTR [esi+1420], 0

; 621  : 		pOnEndInPlaceEdit = NULL;

  00cba	c7 86 90 05 00
	00 00 00 00 00	 mov	 DWORD PTR [esi+1424], 0

; 622  : 		pGetMouseScrollLines = NULL;

  00cc4	c7 86 94 05 00
	00 00 00 00 00	 mov	 DWORD PTR [esi+1428], 0

; 623  : 		pSetDefaultCellType = NULL;

  00cce	c7 86 98 05 00
	00 00 00 00 00	 mov	 DWORD PTR [esi+1432], 0

; 624  : 		pSetGridScrollBarVisible = NULL;

  00cd8	c7 86 9c 05 00
	00 00 00 00 00	 mov	 DWORD PTR [esi+1436], 0

; 625  : 		pSetUseFocusRect = NULL;

  00ce2	c7 86 a0 05 00
	00 00 00 00 00	 mov	 DWORD PTR [esi+1440], 0

; 626  : 		pGetUseFocusRect = NULL;

  00cec	c7 86 a4 05 00
	00 00 00 00 00	 mov	 DWORD PTR [esi+1444], 0
; File D:\git\src\IBK\IBK_DRFN\ProjSrc\SrcDrfn\Chart\ExControl\Include\BaseLoadHelper.h

; 26   : 		hLib = ::LoadLibrary(m_szDllName);

  00cf6	57		 push	 edi
; File D:\git\src\IBK\IBK_DRFN\ProjSrc\SrcDrfn\Chart\ExControl\Include\GirdLoadHelper.h

; 627  : 		pSetDrawFixedLine = NULL;

  00cf7	c7 86 a8 05 00
	00 00 00 00 00	 mov	 DWORD PTR [esi+1448], 0
; File D:\git\src\IBK\IBK_DRFN\ProjSrc\SrcDrfn\Chart\ExControl\Include\BaseLoadHelper.h

; 26   : 		hLib = ::LoadLibrary(m_szDllName);

  00d01	ff 15 00 00 00
	00		 call	 DWORD PTR __imp__LoadLibraryA@4
  00d07	8b d8		 mov	 ebx, eax

; 27   : 
; 28   : 		DWORD err = GetLastError();

  00d09	ff 15 00 00 00
	00		 call	 DWORD PTR __imp__GetLastError@0
  00d0f	89 85 e4 fe ff
	ff		 mov	 DWORD PTR _err$1$[ebp], eax

; 29   : 
; 30   : 		if(!hLib) 

  00d15	85 db		 test	 ebx, ebx
  00d17	75 3d		 jne	 SHORT $LN19@CLoaderGri

; 31   : 		{
; 32   : 			char szMsg[MAX_PATH] = {0, };

  00d19	68 04 01 00 00	 push	 260			; 00000104H
  00d1e	8d 85 ec fe ff
	ff		 lea	 eax, DWORD PTR _szMsg$5[ebp]
  00d24	53		 push	 ebx
  00d25	50		 push	 eax
  00d26	e8 00 00 00 00	 call	 _memset

; 33   : 			::sprintf(szMsg, "DLL[%s] Load  . [%d]", m_szDllName, err);

  00d2b	ff b5 e4 fe ff
	ff		 push	 DWORD PTR _err$1$[ebp]
  00d31	8d 85 ec fe ff
	ff		 lea	 eax, DWORD PTR _szMsg$5[ebp]
  00d37	57		 push	 edi
  00d38	68 00 00 00 00	 push	 OFFSET ??_C@_0CD@INEDAMEN@DLL?$FL?$CFs?$FN?$MA?$LL?5Load?G?R?5?$LM?v?5?$LO?x?$LN?$MA?$LE?O?$LE?Y?4?5?$FL@
  00d3d	50		 push	 eax
  00d3e	e8 00 00 00 00	 call	 _sprintf
  00d43	83 c4 1c	 add	 esp, 28			; 0000001cH

; 34   : 			AfxMessageBox(szMsg);

  00d46	8d 85 ec fe ff
	ff		 lea	 eax, DWORD PTR _szMsg$5[ebp]
  00d4c	53		 push	 ebx
  00d4d	53		 push	 ebx
  00d4e	50		 push	 eax
  00d4f	e8 00 00 00 00	 call	 ?AfxMessageBox@@YGHPBDII@Z ; AfxMessageBox

; 35   : 
; 36   : 			return NULL;

  00d54	eb 32		 jmp	 SHORT $LN24@CLoaderGri
$LN19@CLoaderGri:

; 37   : 		}
; 38   : 
; 39   : 		m_hLib = hLib;
; 40   : 
; 41   : 		if(!LoadProcAddress()) 

  00d56	8b 06		 mov	 eax, DWORD PTR [esi]
  00d58	8b ce		 mov	 ecx, esi
  00d5a	89 5e 04	 mov	 DWORD PTR [esi+4], ebx
  00d5d	8b 00		 mov	 eax, DWORD PTR [eax]
  00d5f	3d 00 00 00 00	 cmp	 eax, OFFSET ?LoadProcAddress@CLoaderGridCtrl@@UAEHXZ ; CLoaderGridCtrl::LoadProcAddress
  00d64	75 07		 jne	 SHORT $LN23@CLoaderGri
  00d66	e8 00 00 00 00	 call	 ?LoadProcAddress@CLoaderGridCtrl@@UAEHXZ ; CLoaderGridCtrl::LoadProcAddress
  00d6b	eb 02		 jmp	 SHORT $LN22@CLoaderGri
$LN23@CLoaderGri:
  00d6d	ff d0		 call	 eax
$LN22@CLoaderGri:
  00d6f	85 c0		 test	 eax, eax
  00d71	75 15		 jne	 SHORT $LN24@CLoaderGri

; 53   : 		if(!m_hLib)

  00d73	8b 46 04	 mov	 eax, DWORD PTR [esi+4]
  00d76	85 c0		 test	 eax, eax
  00d78	74 0e		 je	 SHORT $LN24@CLoaderGri

; 54   : 			return TRUE;
; 55   : 
; 56   : 		BOOL bResult = ::FreeLibrary(m_hLib);

  00d7a	50		 push	 eax
  00d7b	ff 15 00 00 00
	00		 call	 DWORD PTR __imp__FreeLibrary@4

; 57   : 		
; 58   : 		m_hLib = NULL;

  00d81	c7 46 04 00 00
	00 00		 mov	 DWORD PTR [esi+4], 0
$LN24@CLoaderGri:
; File D:\git\src\IBK\IBK_DRFN\ProjSrc\SrcDrfn\Chart\ExControl\Include\GirdLoadHelper.h

; 630  : 		m_lpPointer = pInitGridCtrl(lpPointer);

  00d88	ff b5 dc fe ff
	ff		 push	 DWORD PTR _lpPointer$GSCopy$1$[ebp]
  00d8e	8b 8e 14 01 00
	00		 mov	 ecx, DWORD PTR [esi+276]
  00d94	ff d1		 call	 ecx

; 631  : 	}

  00d96	8d 8d e0 fe ff
	ff		 lea	 ecx, DWORD PTR _szDir$[ebp]
  00d9c	89 86 0c 01 00
	00		 mov	 DWORD PTR [esi+268], eax
  00da2	ff 15 00 00 00
	00		 call	 DWORD PTR __imp_??1?$CStringT@DV?$StrTraitMFC_DLL@DV?$ChTraitsCRT@D@ATL@@@@@ATL@@QAE@XZ
  00da8	8b c6		 mov	 eax, esi
  00daa	8b 4d f4	 mov	 ecx, DWORD PTR __$EHRec$[ebp]
  00dad	64 89 0d 00 00
	00 00		 mov	 DWORD PTR fs:0, ecx
  00db4	59		 pop	 ecx
  00db5	5f		 pop	 edi
  00db6	5e		 pop	 esi
  00db7	5b		 pop	 ebx
  00db8	8b 4d f0	 mov	 ecx, DWORD PTR __$ArrayPad$7[ebp]
  00dbb	33 cd		 xor	 ecx, ebp
  00dbd	e8 00 00 00 00	 call	 @__security_check_cookie@4
  00dc2	8b e5		 mov	 esp, ebp
  00dc4	5d		 pop	 ebp
  00dc5	c2 08 00	 ret	 8
_TEXT	ENDS
;	COMDAT text$x
text$x	SEGMENT
__unwindfunclet$??0CLoaderGridCtrl@@QAE@PAXPBD@Z$0:
  00000	8b 8d d8 fe ff
	ff		 mov	 ecx, DWORD PTR _this$GSCopy$[ebp]
  00006	e9 00 00 00 00	 jmp	 ??1CExLoadLib@@QAE@XZ	; CExLoadLib::~CExLoadLib
__unwindfunclet$??0CLoaderGridCtrl@@QAE@PAXPBD@Z$1:
  0000b	8d 8d e0 fe ff
	ff		 lea	 ecx, DWORD PTR _szDir$[ebp]
  00011	ff 25 00 00 00
	00		 jmp	 DWORD PTR __imp_??1?$CStringT@DV?$StrTraitMFC_DLL@DV?$ChTraitsCRT@D@ATL@@@@@ATL@@QAE@XZ
__unwindfunclet$??0CLoaderGridCtrl@@QAE@PAXPBD@Z$2:
  00017	8d 8d e8 fe ff
	ff		 lea	 ecx, DWORD PTR __strRoot_$4[ebp]
  0001d	ff 25 00 00 00
	00		 jmp	 DWORD PTR __imp_??1?$CStringT@DV?$StrTraitMFC_DLL@DV?$ChTraitsCRT@D@ATL@@@@@ATL@@QAE@XZ
__unwindfunclet$??0CLoaderGridCtrl@@QAE@PAXPBD@Z$3:
  00023	8d 8d e4 fe ff
	ff		 lea	 ecx, DWORD PTR $T3[ebp]
  00029	ff 25 00 00 00
	00		 jmp	 DWORD PTR __imp_??1?$CStringT@DV?$StrTraitMFC_DLL@DV?$ChTraitsCRT@D@ATL@@@@@ATL@@QAE@XZ
__unwindfunclet$??0CLoaderGridCtrl@@QAE@PAXPBD@Z$4:
  0002f	8d 8d e4 fe ff
	ff		 lea	 ecx, DWORD PTR $T2[ebp]
  00035	ff 25 00 00 00
	00		 jmp	 DWORD PTR __imp_??1?$CStringT@DV?$StrTraitMFC_DLL@DV?$ChTraitsCRT@D@ATL@@@@@ATL@@QAE@XZ
  0003b	cc		 int	 3
  0003c	cc		 int	 3
  0003d	cc		 int	 3
  0003e	cc		 int	 3
  0003f	cc		 int	 3
__ehhandler$??0CLoaderGridCtrl@@QAE@PAXPBD@Z:
  00040	90		 npad	 1
  00041	90		 npad	 1
  00042	8b 54 24 08	 mov	 edx, DWORD PTR [esp+8]
  00046	8d 42 0c	 lea	 eax, DWORD PTR [edx+12]
  00049	8b 8a d4 fe ff
	ff		 mov	 ecx, DWORD PTR [edx-300]
  0004f	33 c8		 xor	 ecx, eax
  00051	e8 00 00 00 00	 call	 @__security_check_cookie@4
  00056	8b 4a fc	 mov	 ecx, DWORD PTR [edx-4]
  00059	33 c8		 xor	 ecx, eax
  0005b	e8 00 00 00 00	 call	 @__security_check_cookie@4
  00060	b8 00 00 00 00	 mov	 eax, OFFSET __ehfuncinfo$??0CLoaderGridCtrl@@QAE@PAXPBD@Z
  00065	e9 00 00 00 00	 jmp	 ___CxxFrameHandler3
text$x	ENDS
??0CLoaderGridCtrl@@QAE@PAXPBD@Z ENDP			; CLoaderGridCtrl::CLoaderGridCtrl
; Function compile flags: /Ogtp
; File D:\git\src\IBK\IBK_DRFN\ProjSrc\SrcDrfn\Chart\ExControl\Include\BaseLoadHelper.h
;	COMDAT ?LoadProcAddress@CExLoadLib@@UAEHXZ
_TEXT	SEGMENT
?LoadProcAddress@CExLoadLib@@UAEHXZ PROC		; CExLoadLib::LoadProcAddress, COMDAT
; _this$ = ecx

; 19   : 		ASSERT(FALSE); 
; 20   : 		return FALSE;

  00000	33 c0		 xor	 eax, eax

; 21   : 	}

  00002	c3		 ret	 0
?LoadProcAddress@CExLoadLib@@UAEHXZ ENDP		; CExLoadLib::LoadProcAddress
_TEXT	ENDS
; Function compile flags: /Ogtp
; File D:\git\src\IBK\IBK_DRFN\ProjSrc\SrcDrfn\Chart\ExControl\Include\BaseLoadHelper.h
;	COMDAT ??1CExLoadLib@@QAE@XZ
_TEXT	SEGMENT
??1CExLoadLib@@QAE@XZ PROC				; CExLoadLib::~CExLoadLib, COMDAT
; _this$ = ecx

; 13   : 	{

  00000	56		 push	 esi
  00001	8b f1		 mov	 esi, ecx

; 53   : 		if(!m_hLib)

  00003	8b 46 04	 mov	 eax, DWORD PTR [esi+4]

; 13   : 	{

  00006	c7 06 00 00 00
	00		 mov	 DWORD PTR [esi], OFFSET ??_7CExLoadLib@@6B@

; 53   : 		if(!m_hLib)

  0000c	85 c0		 test	 eax, eax
  0000e	74 0e		 je	 SHORT $LN3@CExLoadLib

; 54   : 			return TRUE;
; 55   : 
; 56   : 		BOOL bResult = ::FreeLibrary(m_hLib);

  00010	50		 push	 eax
  00011	ff 15 00 00 00
	00		 call	 DWORD PTR __imp__FreeLibrary@4

; 57   : 		
; 58   : 		m_hLib = NULL;

  00017	c7 46 04 00 00
	00 00		 mov	 DWORD PTR [esi+4], 0
$LN3@CExLoadLib:
  0001e	5e		 pop	 esi

; 14   : 		UnLoadLib();
; 15   : 	}

  0001f	c3		 ret	 0
??1CExLoadLib@@QAE@XZ ENDP				; CExLoadLib::~CExLoadLib
_TEXT	ENDS
; Function compile flags: /Ogtp
; File D:\git\src\IBK\IBK_DRFN\ProjSrc\SrcDrfn\Chart\ExControl\ExGridCtrl.cpp
; File D:\git\src\IBK\IBK_DRFN\ProjSrc\SrcDrfn\Chart\ExControl\Include\GirdLoadHelper.h
; File D:\git\src\IBK\IBK_DRFN\ProjSrc\SrcDrfn\Chart\ExControl\ExGridCtrl.cpp
; File C:\Program Files (x86)\Microsoft Visual Studio\2019\Community\VC\Tools\MSVC\14.29.30133\atlmfc\include\afx.inl
;	COMDAT ??_GCExGridCtrl@@UAEPAXI@Z
_TEXT	SEGMENT
__$EHRec$ = -12						; size = 12
___flags$ = 8						; size = 4
??_GCExGridCtrl@@UAEPAXI@Z PROC				; CExGridCtrl::`scalar deleting destructor', COMDAT
; _this$ = ecx
  00000	55		 push	 ebp
  00001	8b ec		 mov	 ebp, esp
  00003	6a ff		 push	 -1
  00005	68 00 00 00 00	 push	 __ehhandler$??_GCExGridCtrl@@UAEPAXI@Z
  0000a	64 a1 00 00 00
	00		 mov	 eax, DWORD PTR fs:0
  00010	50		 push	 eax
  00011	56		 push	 esi
  00012	a1 00 00 00 00	 mov	 eax, DWORD PTR ___security_cookie
  00017	33 c5		 xor	 eax, ebp
  00019	50		 push	 eax
  0001a	8d 45 f4	 lea	 eax, DWORD PTR __$EHRec$[ebp]
  0001d	64 a3 00 00 00
	00		 mov	 DWORD PTR fs:0, eax
  00023	8b f1		 mov	 esi, ecx
; File D:\git\src\IBK\IBK_DRFN\ProjSrc\SrcDrfn\Chart\ExControl\ExGridCtrl.cpp

; 1256 : 	return m_pLoader->DeleteAllItems();

  00025	8b 86 80 00 00
	00		 mov	 eax, DWORD PTR [esi+128]

; 61   : {

  0002b	c7 06 00 00 00
	00		 mov	 DWORD PTR [esi], OFFSET ??_7CExGridCtrl@@6B@
  00031	c7 45 fc 00 00
	00 00		 mov	 DWORD PTR __$EHRec$[ebp+8], 0
; File D:\git\src\IBK\IBK_DRFN\ProjSrc\SrcDrfn\Chart\ExControl\Include\GirdLoadHelper.h

; 2520 : 		if(!m_hLib)

  00038	83 78 04 00	 cmp	 DWORD PTR [eax+4], 0
  0003c	74 0e		 je	 SHORT $LN15@scalar

; 2521 : 			return FALSE;
; 2522 : 
; 2523 : 		return pDeleteAllItems(m_lpPointer);

  0003e	ff b0 0c 01 00
	00		 push	 DWORD PTR [eax+268]
  00044	8b 80 8c 03 00
	00		 mov	 eax, DWORD PTR [eax+908]
  0004a	ff d0		 call	 eax
$LN15@scalar:
; File D:\git\src\IBK\IBK_DRFN\ProjSrc\SrcDrfn\Chart\ExControl\ExGridCtrl.cpp

; 64   :     DestroyWindow();

  0004c	8b ce		 mov	 ecx, esi
  0004e	e8 00 00 00 00	 call	 ?DestroyWindow@CWnd@@UAEHXZ ; CWnd::DestroyWindow

; 65   : 
; 66   : #if !defined(GRIDCONTROL_NO_DRAGDROP) || !defined(GRIDCONTROL_NO_CLIPBOARD)
; 67   :     // BUG FIX - EFW
; 68   :     COleDataSource *pSource = COleDataSource::GetClipboardOwner();

  00053	e8 00 00 00 00	 call	 ?GetClipboardOwner@COleDataSource@@SGPAV1@XZ ; COleDataSource::GetClipboardOwner

; 69   :     if(pSource)

  00058	85 c0		 test	 eax, eax
  0005a	74 05		 je	 SHORT $LN8@scalar

; 70   :         COleDataSource::FlushClipboard();

  0005c	e8 00 00 00 00	 call	 ?FlushClipboard@COleDataSource@@SGXXZ ; COleDataSource::FlushClipboard
$LN8@scalar:

; 71   : #endif
; 72   : 
; 73   : 	delete m_pLoader;

  00061	8b 8e 80 00 00
	00		 mov	 ecx, DWORD PTR [esi+128]
  00067	85 c9		 test	 ecx, ecx
  00069	74 07		 je	 SHORT $LN10@scalar
  0006b	8b 01		 mov	 eax, DWORD PTR [ecx]
  0006d	6a 01		 push	 1
  0006f	ff 50 04	 call	 DWORD PTR [eax+4]
$LN10@scalar:

; 74   : }

  00072	8b ce		 mov	 ecx, esi
  00074	e8 00 00 00 00	 call	 ??1CWnd@@UAE@XZ		; CWnd::~CWnd
  00079	8b 45 08	 mov	 eax, DWORD PTR ___flags$[ebp]
  0007c	a8 01		 test	 al, 1
  0007e	74 2f		 je	 SHORT $LN20@scalar
  00080	a8 04		 test	 al, 4
  00082	75 1d		 jne	 SHORT $LN3@scalar
; File C:\Program Files (x86)\Microsoft Visual Studio\2019\Community\VC\Tools\MSVC\14.29.30133\atlmfc\include\afx.inl

; 112  : 	{ ::operator delete(p); }

  00084	56		 push	 esi
  00085	e8 00 00 00 00	 call	 ??3@YAXPAX@Z		; operator delete
  0008a	83 c4 04	 add	 esp, 4
  0008d	8b c6		 mov	 eax, esi
  0008f	8b 4d f4	 mov	 ecx, DWORD PTR __$EHRec$[ebp]
  00092	64 89 0d 00 00
	00 00		 mov	 DWORD PTR fs:0, ecx
  00099	59		 pop	 ecx
  0009a	5e		 pop	 esi
  0009b	8b e5		 mov	 esp, ebp
  0009d	5d		 pop	 ebp
  0009e	c2 04 00	 ret	 4
$LN3@scalar:
  000a1	68 88 00 00 00	 push	 136			; 00000088H
  000a6	56		 push	 esi
  000a7	e8 00 00 00 00	 call	 ?__global_delete@@YAXPAXI@Z ; __global_delete
  000ac	83 c4 08	 add	 esp, 8
$LN20@scalar:
  000af	8b c6		 mov	 eax, esi
  000b1	8b 4d f4	 mov	 ecx, DWORD PTR __$EHRec$[ebp]
  000b4	64 89 0d 00 00
	00 00		 mov	 DWORD PTR fs:0, ecx
  000bb	59		 pop	 ecx
  000bc	5e		 pop	 esi
  000bd	8b e5		 mov	 esp, ebp
  000bf	5d		 pop	 ebp
  000c0	c2 04 00	 ret	 4
  000c3	cc		 int	 3
  000c4	cc		 int	 3
  000c5	cc		 int	 3
  000c6	cc		 int	 3
  000c7	cc		 int	 3
_TEXT	ENDS
;	COMDAT text$x
text$x	SEGMENT
__ehhandler$??_GCExGridCtrl@@UAEPAXI@Z:
  00000	90		 npad	 1
  00001	90		 npad	 1
  00002	8b 54 24 08	 mov	 edx, DWORD PTR [esp+8]
  00006	8d 42 0c	 lea	 eax, DWORD PTR [edx+12]
  00009	8b 4a f8	 mov	 ecx, DWORD PTR [edx-8]
  0000c	33 c8		 xor	 ecx, eax
  0000e	e8 00 00 00 00	 call	 @__security_check_cookie@4
  00013	b8 00 00 00 00	 mov	 eax, OFFSET __ehfuncinfo$??_GCExGridCtrl@@UAEPAXI@Z
  00018	e9 00 00 00 00	 jmp	 ___CxxFrameHandler3
text$x	ENDS
??_GCExGridCtrl@@UAEPAXI@Z ENDP				; CExGridCtrl::`scalar deleting destructor'
; Function compile flags: /Ogtp
; File D:\git\src\IBK\IBK_DRFN\ProjSrc\SrcDrfn\Chart\ExControl\ExGridCtrl.cpp
;	COMDAT ?GetMessageMap@CExGridCtrl@@MBEPBUAFX_MSGMAP@@XZ
_TEXT	SEGMENT
?GetMessageMap@CExGridCtrl@@MBEPBUAFX_MSGMAP@@XZ PROC	; CExGridCtrl::GetMessageMap, COMDAT
; _this$ = ecx

; 76   : BEGIN_MESSAGE_MAP(CExGridCtrl, CWnd)

  00000	b8 00 00 00 00	 mov	 eax, OFFSET ?messageMap@?1??GetThisMessageMap@CExGridCtrl@@KGPBUAFX_MSGMAP@@XZ@4U3@B
  00005	c3		 ret	 0
?GetMessageMap@CExGridCtrl@@MBEPBUAFX_MSGMAP@@XZ ENDP	; CExGridCtrl::GetMessageMap
_TEXT	ENDS
; Function compile flags: /Ogtp
; File D:\git\src\IBK\IBK_DRFN\ProjSrc\SrcDrfn\Chart\ExControl\ExGridCtrl.cpp
;	COMDAT ?GetThisMessageMap@CExGridCtrl@@KGPBUAFX_MSGMAP@@XZ
_TEXT	SEGMENT
?GetThisMessageMap@CExGridCtrl@@KGPBUAFX_MSGMAP@@XZ PROC ; CExGridCtrl::GetThisMessageMap, COMDAT

; 77   : //EFW - Added ON_WM_RBUTTONUP
; 78   : //{{AFX_MSG_MAP(CExGridCtrl)
; 79   :     ON_WM_PAINT()
; 80   :     ON_WM_HSCROLL()
; 81   :     ON_WM_VSCROLL()
; 82   :     ON_WM_SIZE()
; 83   :     ON_WM_LBUTTONUP()
; 84   :     ON_WM_LBUTTONDOWN()
; 85   :     ON_WM_MOUSEMOVE()
; 86   :     ON_WM_TIMER()
; 87   :     ON_WM_GETDLGCODE()
; 88   :     ON_WM_KEYDOWN()
; 89   :     ON_WM_CHAR()
; 90   :     ON_WM_LBUTTONDBLCLK()
; 91   :     ON_WM_ERASEBKGND()
; 92   :     ON_UPDATE_COMMAND_UI(ID_EDIT_SELECT_ALL, OnUpdateEditSelectAll)
; 93   :     ON_COMMAND(ID_EDIT_SELECT_ALL, OnEditSelectAll)
; 94   :     ON_WM_SYSKEYDOWN()
; 95   : 	ON_WM_CONTEXTMENU()
; 96   : //}}AFX_MSG_MAP
; 97   : #ifndef _WIN32_WCE_NO_CURSOR
; 98   :     ON_WM_SETCURSOR()
; 99   : #endif
; 100  : #ifndef _WIN32_WCE
; 101  :     ON_WM_RBUTTONUP()
; 102  :     ON_WM_SYSCOLORCHANGE()
; 103  :     ON_WM_CAPTURECHANGED()
; 104  : #endif
; 105  : #ifndef GRIDCONTROL_NO_CLIPBOARD
; 106  :     ON_COMMAND(ID_EDIT_COPY, OnEditCopy)
; 107  :     ON_UPDATE_COMMAND_UI(ID_EDIT_COPY, OnUpdateEditCopy)
; 108  :     ON_COMMAND(ID_EDIT_CUT, OnEditCut)
; 109  :     ON_UPDATE_COMMAND_UI(ID_EDIT_CUT, OnUpdateEditCut)
; 110  :     ON_COMMAND(ID_EDIT_PASTE, OnEditPaste)
; 111  :     ON_UPDATE_COMMAND_UI(ID_EDIT_PASTE, OnUpdateEditPaste)
; 112  : #endif
; 113  : #if (_WIN32_WCE >= 210)
; 114  :     ON_WM_SETTINGCHANGE()
; 115  : #endif
; 116  : #if !defined(_WIN32_WCE) && (_MFC_VER >= 0x0421)
; 117  :     ON_WM_MOUSEWHEEL()
; 118  : #endif
; 119  :     ON_MESSAGE(WM_SETFONT, OnSetFont)
; 120  :     ON_MESSAGE(WM_GETFONT, OnGetFont)
; 121  :     ON_MESSAGE(WM_IME_CHAR, OnImeChar)
; 122  :     ON_NOTIFY(GVN_ENDLABELEDIT, IDC_INPLACE_CONTROL, OnEndInPlaceEdit)
; 123  : END_MESSAGE_MAP()

  00000	b8 00 00 00 00	 mov	 eax, OFFSET ?messageMap@?1??GetThisMessageMap@CExGridCtrl@@KGPBUAFX_MSGMAP@@XZ@4U3@B
  00005	c3		 ret	 0
?GetThisMessageMap@CExGridCtrl@@KGPBUAFX_MSGMAP@@XZ ENDP ; CExGridCtrl::GetThisMessageMap
_TEXT	ENDS
; Function compile flags: /Ogtp
; File D:\git\src\IBK\IBK_DRFN\ProjSrc\SrcDrfn\Chart\ExControl\ExGridCtrl.cpp
; File D:\git\src\IBK\IBK_DRFN\ProjSrc\SrcDrfn\Chart\ExControl\Include\GirdLoadHelper.h
; File D:\git\src\IBK\IBK_DRFN\ProjSrc\SrcDrfn\Chart\ExControl\ExGridCtrl.cpp
;	COMDAT ?OnEndInPlaceEdit@CExGridCtrl@@IAEXPAUtagNMHDR@@PAJ@Z
_TEXT	SEGMENT
_pNMHDR$ = 8						; size = 4
_pResult$ = 12						; size = 4
?OnEndInPlaceEdit@CExGridCtrl@@IAEXPAUtagNMHDR@@PAJ@Z PROC ; CExGridCtrl::OnEndInPlaceEdit, COMDAT
; _this$ = ecx

; 795  : {

  00000	55		 push	 ebp
  00001	8b ec		 mov	 ebp, esp

; 796  : 	m_pLoader->OnEndInPlaceEdit(pNMHDR, pResult);

  00003	8b 81 80 00 00
	00		 mov	 eax, DWORD PTR [ecx+128]
; File D:\git\src\IBK\IBK_DRFN\ProjSrc\SrcDrfn\Chart\ExControl\Include\GirdLoadHelper.h

; 3553 : 		if(!m_hLib)

  00009	83 78 04 00	 cmp	 DWORD PTR [eax+4], 0
  0000d	74 14		 je	 SHORT $LN3@OnEndInPla

; 3554 : 			return;
; 3555 : 
; 3556 : 		pOnEndInPlaceEdit(m_lpPointer, pNMHDR, pResult);

  0000f	ff 75 0c	 push	 DWORD PTR _pResult$[ebp]
  00012	ff 75 08	 push	 DWORD PTR _pNMHDR$[ebp]
  00015	ff b0 0c 01 00
	00		 push	 DWORD PTR [eax+268]
  0001b	8b 80 90 05 00
	00		 mov	 eax, DWORD PTR [eax+1424]
  00021	ff d0		 call	 eax
$LN3@OnEndInPla:
; File D:\git\src\IBK\IBK_DRFN\ProjSrc\SrcDrfn\Chart\ExControl\ExGridCtrl.cpp

; 797  : }

  00023	5d		 pop	 ebp
  00024	c2 08 00	 ret	 8
?OnEndInPlaceEdit@CExGridCtrl@@IAEXPAUtagNMHDR@@PAJ@Z ENDP ; CExGridCtrl::OnEndInPlaceEdit
_TEXT	ENDS
; Function compile flags: /Ogtp
; File D:\git\src\IBK\IBK_DRFN\ProjSrc\SrcDrfn\Chart\ExControl\ExGridCtrl.cpp
; File D:\git\src\IBK\IBK_DRFN\ProjSrc\SrcDrfn\Chart\ExControl\Include\GirdLoadHelper.h
; File D:\git\src\IBK\IBK_DRFN\ProjSrc\SrcDrfn\Chart\ExControl\ExGridCtrl.cpp
; File D:\git\src\IBK\IBK_DRFN\ProjSrc\SrcDrfn\Chart\ExControl\Include\GirdLoadHelper.h
; File D:\git\src\IBK\IBK_DRFN\ProjSrc\SrcDrfn\Chart\ExControl\ExGridCtrl.cpp
;	COMDAT ?OnImeChar@CExGridCtrl@@IAEJIJ@Z
_TEXT	SEGMENT
_wCharCode$ = 8						; size = 4
_lParam$ = 12						; size = 4
?OnImeChar@CExGridCtrl@@IAEJIJ@Z PROC			; CExGridCtrl::OnImeChar, COMDAT
; _this$ = ecx

; 787  : {

  00000	55		 push	 ebp
  00001	8b ec		 mov	 ebp, esp

; 788  : 	return m_pLoader->OnImeChar(wCharCode, lParam);

  00003	8b 81 80 00 00
	00		 mov	 eax, DWORD PTR [ecx+128]
; File D:\git\src\IBK\IBK_DRFN\ProjSrc\SrcDrfn\Chart\ExControl\Include\GirdLoadHelper.h

; 3545 : 		if(!m_hLib)

  00009	83 78 04 00	 cmp	 DWORD PTR [eax+4], 0
  0000d	75 06		 jne	 SHORT $LN4@OnImeChar
; File D:\git\src\IBK\IBK_DRFN\ProjSrc\SrcDrfn\Chart\ExControl\ExGridCtrl.cpp

; 788  : 	return m_pLoader->OnImeChar(wCharCode, lParam);

  0000f	33 c0		 xor	 eax, eax

; 789  : }

  00011	5d		 pop	 ebp
  00012	c2 08 00	 ret	 8
$LN4@OnImeChar:
; File D:\git\src\IBK\IBK_DRFN\ProjSrc\SrcDrfn\Chart\ExControl\Include\GirdLoadHelper.h

; 3548 : 		return pOnImeChar(m_lpPointer, wCharCode, lParam);

  00015	ff 75 0c	 push	 DWORD PTR _lParam$[ebp]
  00018	ff 75 08	 push	 DWORD PTR _wCharCode$[ebp]
  0001b	ff b0 0c 01 00
	00		 push	 DWORD PTR [eax+268]
  00021	8b 80 8c 05 00
	00		 mov	 eax, DWORD PTR [eax+1420]
  00027	ff d0		 call	 eax
; File D:\git\src\IBK\IBK_DRFN\ProjSrc\SrcDrfn\Chart\ExControl\ExGridCtrl.cpp

; 789  : }

  00029	5d		 pop	 ebp
  0002a	c2 08 00	 ret	 8
?OnImeChar@CExGridCtrl@@IAEJIJ@Z ENDP			; CExGridCtrl::OnImeChar
_TEXT	ENDS
; Function compile flags: /Ogtp
; File D:\git\src\IBK\IBK_DRFN\ProjSrc\SrcDrfn\Chart\ExControl\ExGridCtrl.cpp
; File D:\git\src\IBK\IBK_DRFN\ProjSrc\SrcDrfn\Chart\ExControl\Include\GirdLoadHelper.h
; File D:\git\src\IBK\IBK_DRFN\ProjSrc\SrcDrfn\Chart\ExControl\ExGridCtrl.cpp
; File D:\git\src\IBK\IBK_DRFN\ProjSrc\SrcDrfn\Chart\ExControl\Include\GirdLoadHelper.h
; File D:\git\src\IBK\IBK_DRFN\ProjSrc\SrcDrfn\Chart\ExControl\ExGridCtrl.cpp
;	COMDAT ?OnGetFont@CExGridCtrl@@IAEJIJ@Z
_TEXT	SEGMENT
_wParam$ = 8						; size = 4
_lParam$ = 12						; size = 4
?OnGetFont@CExGridCtrl@@IAEJIJ@Z PROC			; CExGridCtrl::OnGetFont, COMDAT
; _this$ = ecx

; 1166 : {

  00000	55		 push	 ebp
  00001	8b ec		 mov	 ebp, esp

; 1167 : 	return m_pLoader->OnGetFont(wParam, lParam);

  00003	8b 81 80 00 00
	00		 mov	 eax, DWORD PTR [ecx+128]
; File D:\git\src\IBK\IBK_DRFN\ProjSrc\SrcDrfn\Chart\ExControl\Include\GirdLoadHelper.h

; 3537 : 		if(!m_hLib)

  00009	83 78 04 00	 cmp	 DWORD PTR [eax+4], 0
  0000d	75 06		 jne	 SHORT $LN4@OnGetFont
; File D:\git\src\IBK\IBK_DRFN\ProjSrc\SrcDrfn\Chart\ExControl\ExGridCtrl.cpp

; 1167 : 	return m_pLoader->OnGetFont(wParam, lParam);

  0000f	33 c0		 xor	 eax, eax

; 1168 : }

  00011	5d		 pop	 ebp
  00012	c2 08 00	 ret	 8
$LN4@OnGetFont:
; File D:\git\src\IBK\IBK_DRFN\ProjSrc\SrcDrfn\Chart\ExControl\Include\GirdLoadHelper.h

; 3540 : 		return pOnGetFont(m_lpPointer, hFont, lParam);

  00015	ff 75 0c	 push	 DWORD PTR _lParam$[ebp]
  00018	ff 75 08	 push	 DWORD PTR _wParam$[ebp]
  0001b	ff b0 0c 01 00
	00		 push	 DWORD PTR [eax+268]
  00021	8b 80 88 05 00
	00		 mov	 eax, DWORD PTR [eax+1416]
  00027	ff d0		 call	 eax
; File D:\git\src\IBK\IBK_DRFN\ProjSrc\SrcDrfn\Chart\ExControl\ExGridCtrl.cpp

; 1168 : }

  00029	5d		 pop	 ebp
  0002a	c2 08 00	 ret	 8
?OnGetFont@CExGridCtrl@@IAEJIJ@Z ENDP			; CExGridCtrl::OnGetFont
_TEXT	ENDS
; Function compile flags: /Ogtp
; File D:\git\src\IBK\IBK_DRFN\ProjSrc\SrcDrfn\Chart\ExControl\ExGridCtrl.cpp
; File D:\git\src\IBK\IBK_DRFN\ProjSrc\SrcDrfn\Chart\ExControl\Include\GirdLoadHelper.h
; File D:\git\src\IBK\IBK_DRFN\ProjSrc\SrcDrfn\Chart\ExControl\ExGridCtrl.cpp
; File D:\git\src\IBK\IBK_DRFN\ProjSrc\SrcDrfn\Chart\ExControl\Include\GirdLoadHelper.h
; File D:\git\src\IBK\IBK_DRFN\ProjSrc\SrcDrfn\Chart\ExControl\ExGridCtrl.cpp
;	COMDAT ?OnSetFont@CExGridCtrl@@IAEJIJ@Z
_TEXT	SEGMENT
_hFont$ = 8						; size = 4
_lParam$ = 12						; size = 4
?OnSetFont@CExGridCtrl@@IAEJIJ@Z PROC			; CExGridCtrl::OnSetFont, COMDAT
; _this$ = ecx

; 1161 : {

  00000	55		 push	 ebp
  00001	8b ec		 mov	 ebp, esp

; 1162 : 	return m_pLoader->OnSetFont(hFont, lParam);

  00003	8b 81 80 00 00
	00		 mov	 eax, DWORD PTR [ecx+128]
; File D:\git\src\IBK\IBK_DRFN\ProjSrc\SrcDrfn\Chart\ExControl\Include\GirdLoadHelper.h

; 3529 : 		if(!m_hLib)

  00009	83 78 04 00	 cmp	 DWORD PTR [eax+4], 0
  0000d	75 06		 jne	 SHORT $LN4@OnSetFont
; File D:\git\src\IBK\IBK_DRFN\ProjSrc\SrcDrfn\Chart\ExControl\ExGridCtrl.cpp

; 1162 : 	return m_pLoader->OnSetFont(hFont, lParam);

  0000f	33 c0		 xor	 eax, eax

; 1163 : }

  00011	5d		 pop	 ebp
  00012	c2 08 00	 ret	 8
$LN4@OnSetFont:
; File D:\git\src\IBK\IBK_DRFN\ProjSrc\SrcDrfn\Chart\ExControl\Include\GirdLoadHelper.h

; 3532 : 		return pOnSetFont(m_lpPointer, hFont, lParam);

  00015	ff 75 0c	 push	 DWORD PTR _lParam$[ebp]
  00018	ff 75 08	 push	 DWORD PTR _hFont$[ebp]
  0001b	ff b0 0c 01 00
	00		 push	 DWORD PTR [eax+268]
  00021	8b 80 84 05 00
	00		 mov	 eax, DWORD PTR [eax+1412]
  00027	ff d0		 call	 eax
; File D:\git\src\IBK\IBK_DRFN\ProjSrc\SrcDrfn\Chart\ExControl\ExGridCtrl.cpp

; 1163 : }

  00029	5d		 pop	 ebp
  0002a	c2 08 00	 ret	 8
?OnSetFont@CExGridCtrl@@IAEJIJ@Z ENDP			; CExGridCtrl::OnSetFont
_TEXT	ENDS
; Function compile flags: /Ogtp
; File D:\git\src\IBK\IBK_DRFN\ProjSrc\SrcDrfn\Chart\ExControl\ExGridCtrl.cpp
; File D:\git\src\IBK\IBK_DRFN\ProjSrc\SrcDrfn\Chart\ExControl\Include\GirdLoadHelper.h
; File D:\git\src\IBK\IBK_DRFN\ProjSrc\SrcDrfn\Chart\ExControl\ExGridCtrl.cpp
; File D:\git\src\IBK\IBK_DRFN\ProjSrc\SrcDrfn\Chart\ExControl\Include\GirdLoadHelper.h
; File D:\git\src\IBK\IBK_DRFN\ProjSrc\SrcDrfn\Chart\ExControl\ExGridCtrl.cpp
;	COMDAT ?OnMouseWheel@CExGridCtrl@@IAEHIFVCPoint@@@Z
_TEXT	SEGMENT
_nFlags$ = 8						; size = 4
_zDelta$ = 12						; size = 2
_pt$ = 16						; size = 8
?OnMouseWheel@CExGridCtrl@@IAEHIFVCPoint@@@Z PROC	; CExGridCtrl::OnMouseWheel, COMDAT
; _this$ = ecx

; 1613 : {

  00000	55		 push	 ebp
  00001	8b ec		 mov	 ebp, esp

; 1614 : 	return m_pLoader->OnMouseWheel(nFlags, zDelta, pt);

  00003	8b 81 80 00 00
	00		 mov	 eax, DWORD PTR [ecx+128]
; File D:\git\src\IBK\IBK_DRFN\ProjSrc\SrcDrfn\Chart\ExControl\Include\GirdLoadHelper.h

; 3521 : 		if(!m_hLib)

  00009	83 78 04 00	 cmp	 DWORD PTR [eax+4], 0
  0000d	75 06		 jne	 SHORT $LN4@OnMouseWhe
; File D:\git\src\IBK\IBK_DRFN\ProjSrc\SrcDrfn\Chart\ExControl\ExGridCtrl.cpp

; 1614 : 	return m_pLoader->OnMouseWheel(nFlags, zDelta, pt);

  0000f	33 c0		 xor	 eax, eax

; 1615 : }

  00011	5d		 pop	 ebp
  00012	c2 10 00	 ret	 16			; 00000010H
$LN4@OnMouseWhe:
; File D:\git\src\IBK\IBK_DRFN\ProjSrc\SrcDrfn\Chart\ExControl\Include\GirdLoadHelper.h

; 3524 : 		return pOnMouseWheel(m_lpPointer, nFlags, zDelta, pt);

  00015	ff 75 14	 push	 DWORD PTR _pt$[ebp+4]
  00018	ff 75 10	 push	 DWORD PTR _pt$[ebp]
  0001b	ff 75 0c	 push	 DWORD PTR _zDelta$[ebp]
  0001e	ff 75 08	 push	 DWORD PTR _nFlags$[ebp]
  00021	ff b0 0c 01 00
	00		 push	 DWORD PTR [eax+268]
  00027	8b 80 80 05 00
	00		 mov	 eax, DWORD PTR [eax+1408]
  0002d	ff d0		 call	 eax
; File D:\git\src\IBK\IBK_DRFN\ProjSrc\SrcDrfn\Chart\ExControl\ExGridCtrl.cpp

; 1615 : }

  0002f	5d		 pop	 ebp
  00030	c2 10 00	 ret	 16			; 00000010H
?OnMouseWheel@CExGridCtrl@@IAEHIFVCPoint@@@Z ENDP	; CExGridCtrl::OnMouseWheel
_TEXT	ENDS
; Function compile flags: /Ogtp
; File D:\git\src\IBK\IBK_DRFN\ProjSrc\SrcDrfn\Chart\ExControl\ExGridCtrl.cpp
; File D:\git\src\IBK\IBK_DRFN\ProjSrc\SrcDrfn\Chart\ExControl\Include\GirdLoadHelper.h
; File D:\git\src\IBK\IBK_DRFN\ProjSrc\SrcDrfn\Chart\ExControl\ExGridCtrl.cpp
;	COMDAT ?OnSettingChange@CExGridCtrl@@IAEXIPBD@Z
_TEXT	SEGMENT
_uFlags$ = 8						; size = 4
_lpszSection$ = 12					; size = 4
?OnSettingChange@CExGridCtrl@@IAEXIPBD@Z PROC		; CExGridCtrl::OnSettingChange, COMDAT
; _this$ = ecx

; 751  : {

  00000	55		 push	 ebp
  00001	8b ec		 mov	 ebp, esp

; 752  : 	m_pLoader->OnSettingChange(uFlags, lpszSection);

  00003	8b 81 80 00 00
	00		 mov	 eax, DWORD PTR [ecx+128]
; File D:\git\src\IBK\IBK_DRFN\ProjSrc\SrcDrfn\Chart\ExControl\Include\GirdLoadHelper.h

; 3513 : 		if(!m_hLib)

  00009	83 78 04 00	 cmp	 DWORD PTR [eax+4], 0
  0000d	74 14		 je	 SHORT $LN3@OnSettingC

; 3514 : 			return;
; 3515 : 
; 3516 : 		pOnSettingChange(m_lpPointer, uFlags, lpszSection);

  0000f	ff 75 0c	 push	 DWORD PTR _lpszSection$[ebp]
  00012	ff 75 08	 push	 DWORD PTR _uFlags$[ebp]
  00015	ff b0 0c 01 00
	00		 push	 DWORD PTR [eax+268]
  0001b	8b 80 7c 05 00
	00		 mov	 eax, DWORD PTR [eax+1404]
  00021	ff d0		 call	 eax
$LN3@OnSettingC:
; File D:\git\src\IBK\IBK_DRFN\ProjSrc\SrcDrfn\Chart\ExControl\ExGridCtrl.cpp

; 753  : }

  00023	5d		 pop	 ebp
  00024	c2 08 00	 ret	 8
?OnSettingChange@CExGridCtrl@@IAEXIPBD@Z ENDP		; CExGridCtrl::OnSettingChange
_TEXT	ENDS
; Function compile flags: /Ogtp
; File D:\git\src\IBK\IBK_DRFN\ProjSrc\SrcDrfn\Chart\ExControl\ExGridCtrl.cpp
; File D:\git\src\IBK\IBK_DRFN\ProjSrc\SrcDrfn\Chart\ExControl\Include\GirdLoadHelper.h
; File D:\git\src\IBK\IBK_DRFN\ProjSrc\SrcDrfn\Chart\ExControl\ExGridCtrl.cpp
;	COMDAT ?OnUpdateEditPaste@CExGridCtrl@@IAEXPAVCCmdUI@@@Z
_TEXT	SEGMENT
_pCmdUI$ = 8						; size = 4
?OnUpdateEditPaste@CExGridCtrl@@IAEXPAVCCmdUI@@@Z PROC	; CExGridCtrl::OnUpdateEditPaste, COMDAT
; _this$ = ecx

; 1026 : {

  00000	55		 push	 ebp
  00001	8b ec		 mov	 ebp, esp

; 1027 : 	m_pLoader->OnUpdateEditPaste(pCmdUI);

  00003	8b 81 80 00 00
	00		 mov	 eax, DWORD PTR [ecx+128]
; File D:\git\src\IBK\IBK_DRFN\ProjSrc\SrcDrfn\Chart\ExControl\Include\GirdLoadHelper.h

; 3505 : 		if(!m_hLib)

  00009	83 78 04 00	 cmp	 DWORD PTR [eax+4], 0
  0000d	74 11		 je	 SHORT $LN3@OnUpdateEd

; 3506 : 			return;
; 3507 : 
; 3508 : 		pOnUpdateEditPaste(m_lpPointer, pCmdUI);

  0000f	ff 75 08	 push	 DWORD PTR _pCmdUI$[ebp]
  00012	ff b0 0c 01 00
	00		 push	 DWORD PTR [eax+268]
  00018	8b 80 78 05 00
	00		 mov	 eax, DWORD PTR [eax+1400]
  0001e	ff d0		 call	 eax
$LN3@OnUpdateEd:
; File D:\git\src\IBK\IBK_DRFN\ProjSrc\SrcDrfn\Chart\ExControl\ExGridCtrl.cpp

; 1028 : }

  00020	5d		 pop	 ebp
  00021	c2 04 00	 ret	 4
?OnUpdateEditPaste@CExGridCtrl@@IAEXPAVCCmdUI@@@Z ENDP	; CExGridCtrl::OnUpdateEditPaste
_TEXT	ENDS
; Function compile flags: /Ogtp
; File D:\git\src\IBK\IBK_DRFN\ProjSrc\SrcDrfn\Chart\ExControl\ExGridCtrl.cpp
; File D:\git\src\IBK\IBK_DRFN\ProjSrc\SrcDrfn\Chart\ExControl\Include\GirdLoadHelper.h
; File D:\git\src\IBK\IBK_DRFN\ProjSrc\SrcDrfn\Chart\ExControl\ExGridCtrl.cpp
;	COMDAT ?OnUpdateEditCut@CExGridCtrl@@IAEXPAVCCmdUI@@@Z
_TEXT	SEGMENT
_pCmdUI$ = 8						; size = 4
?OnUpdateEditCut@CExGridCtrl@@IAEXPAVCCmdUI@@@Z PROC	; CExGridCtrl::OnUpdateEditCut, COMDAT
; _this$ = ecx

; 1021 : {

  00000	55		 push	 ebp
  00001	8b ec		 mov	 ebp, esp

; 1022 : 	m_pLoader->OnUpdateEditCut(pCmdUI);

  00003	8b 81 80 00 00
	00		 mov	 eax, DWORD PTR [ecx+128]
; File D:\git\src\IBK\IBK_DRFN\ProjSrc\SrcDrfn\Chart\ExControl\Include\GirdLoadHelper.h

; 3497 : 		if(!m_hLib)

  00009	83 78 04 00	 cmp	 DWORD PTR [eax+4], 0
  0000d	74 11		 je	 SHORT $LN3@OnUpdateEd

; 3498 : 			return;
; 3499 : 
; 3500 : 		pOnUpdateEditCut(m_lpPointer, pCmdUI);

  0000f	ff 75 08	 push	 DWORD PTR _pCmdUI$[ebp]
  00012	ff b0 0c 01 00
	00		 push	 DWORD PTR [eax+268]
  00018	8b 80 74 05 00
	00		 mov	 eax, DWORD PTR [eax+1396]
  0001e	ff d0		 call	 eax
$LN3@OnUpdateEd:
; File D:\git\src\IBK\IBK_DRFN\ProjSrc\SrcDrfn\Chart\ExControl\ExGridCtrl.cpp

; 1023 : }

  00020	5d		 pop	 ebp
  00021	c2 04 00	 ret	 4
?OnUpdateEditCut@CExGridCtrl@@IAEXPAVCCmdUI@@@Z ENDP	; CExGridCtrl::OnUpdateEditCut
_TEXT	ENDS
; Function compile flags: /Ogtp
; File D:\git\src\IBK\IBK_DRFN\ProjSrc\SrcDrfn\Chart\ExControl\ExGridCtrl.cpp
; File D:\git\src\IBK\IBK_DRFN\ProjSrc\SrcDrfn\Chart\ExControl\Include\GirdLoadHelper.h
; File D:\git\src\IBK\IBK_DRFN\ProjSrc\SrcDrfn\Chart\ExControl\ExGridCtrl.cpp
;	COMDAT ?OnUpdateEditCopy@CExGridCtrl@@IAEXPAVCCmdUI@@@Z
_TEXT	SEGMENT
_pCmdUI$ = 8						; size = 4
?OnUpdateEditCopy@CExGridCtrl@@IAEXPAVCCmdUI@@@Z PROC	; CExGridCtrl::OnUpdateEditCopy, COMDAT
; _this$ = ecx

; 1016 : {

  00000	55		 push	 ebp
  00001	8b ec		 mov	 ebp, esp

; 1017 : 	m_pLoader->OnUpdateEditCopy(pCmdUI);

  00003	8b 81 80 00 00
	00		 mov	 eax, DWORD PTR [ecx+128]
; File D:\git\src\IBK\IBK_DRFN\ProjSrc\SrcDrfn\Chart\ExControl\Include\GirdLoadHelper.h

; 3489 : 		if(!m_hLib)

  00009	83 78 04 00	 cmp	 DWORD PTR [eax+4], 0
  0000d	74 11		 je	 SHORT $LN3@OnUpdateEd

; 3490 : 			return;
; 3491 : 
; 3492 : 		pOnUpdateEditCopy(m_lpPointer, pCmdUI);

  0000f	ff 75 08	 push	 DWORD PTR _pCmdUI$[ebp]
  00012	ff b0 0c 01 00
	00		 push	 DWORD PTR [eax+268]
  00018	8b 80 70 05 00
	00		 mov	 eax, DWORD PTR [eax+1392]
  0001e	ff d0		 call	 eax
$LN3@OnUpdateEd:
; File D:\git\src\IBK\IBK_DRFN\ProjSrc\SrcDrfn\Chart\ExControl\ExGridCtrl.cpp

; 1018 : }

  00020	5d		 pop	 ebp
  00021	c2 04 00	 ret	 4
?OnUpdateEditCopy@CExGridCtrl@@IAEXPAVCCmdUI@@@Z ENDP	; CExGridCtrl::OnUpdateEditCopy
_TEXT	ENDS
; Function compile flags: /Ogtp
; File D:\git\src\IBK\IBK_DRFN\ProjSrc\SrcDrfn\Chart\ExControl\ExGridCtrl.cpp
; File D:\git\src\IBK\IBK_DRFN\ProjSrc\SrcDrfn\Chart\ExControl\Include\GirdLoadHelper.h
; File D:\git\src\IBK\IBK_DRFN\ProjSrc\SrcDrfn\Chart\ExControl\ExGridCtrl.cpp
;	COMDAT ?OnCaptureChanged@CExGridCtrl@@IAEXPAVCWnd@@@Z
_TEXT	SEGMENT
_pWnd$ = 8						; size = 4
?OnCaptureChanged@CExGridCtrl@@IAEXPAVCWnd@@@Z PROC	; CExGridCtrl::OnCaptureChanged, COMDAT
; _this$ = ecx

; 743  : {

  00000	55		 push	 ebp
  00001	8b ec		 mov	 ebp, esp

; 744  : 	m_pLoader->OnCaptureChanged(pWnd);

  00003	8b 81 80 00 00
	00		 mov	 eax, DWORD PTR [ecx+128]
; File D:\git\src\IBK\IBK_DRFN\ProjSrc\SrcDrfn\Chart\ExControl\Include\GirdLoadHelper.h

; 3481 : 		if(!m_hLib)

  00009	83 78 04 00	 cmp	 DWORD PTR [eax+4], 0
  0000d	74 11		 je	 SHORT $LN3@OnCaptureC

; 3482 : 			return;
; 3483 : 
; 3484 : 		pOnCaptureChanged(m_lpPointer, pWnd);

  0000f	ff 75 08	 push	 DWORD PTR _pWnd$[ebp]
  00012	ff b0 0c 01 00
	00		 push	 DWORD PTR [eax+268]
  00018	8b 80 6c 05 00
	00		 mov	 eax, DWORD PTR [eax+1388]
  0001e	ff d0		 call	 eax
$LN3@OnCaptureC:
; File D:\git\src\IBK\IBK_DRFN\ProjSrc\SrcDrfn\Chart\ExControl\ExGridCtrl.cpp

; 745  : }

  00020	5d		 pop	 ebp
  00021	c2 04 00	 ret	 4
?OnCaptureChanged@CExGridCtrl@@IAEXPAVCWnd@@@Z ENDP	; CExGridCtrl::OnCaptureChanged
_TEXT	ENDS
; Function compile flags: /Ogtp
; File D:\git\src\IBK\IBK_DRFN\ProjSrc\SrcDrfn\Chart\ExControl\ExGridCtrl.cpp
; File D:\git\src\IBK\IBK_DRFN\ProjSrc\SrcDrfn\Chart\ExControl\Include\GirdLoadHelper.h
; File D:\git\src\IBK\IBK_DRFN\ProjSrc\SrcDrfn\Chart\ExControl\ExGridCtrl.cpp
;	COMDAT ?OnSysColorChange@CExGridCtrl@@IAEXXZ
_TEXT	SEGMENT
?OnSysColorChange@CExGridCtrl@@IAEXXZ PROC		; CExGridCtrl::OnSysColorChange, COMDAT
; _this$ = ecx

; 736  : 	m_pLoader->OnSysColorChange();

  00000	8b 81 80 00 00
	00		 mov	 eax, DWORD PTR [ecx+128]
; File D:\git\src\IBK\IBK_DRFN\ProjSrc\SrcDrfn\Chart\ExControl\Include\GirdLoadHelper.h

; 3473 : 		if(!m_hLib)

  00006	83 78 04 00	 cmp	 DWORD PTR [eax+4], 0
  0000a	74 0e		 je	 SHORT $LN3@OnSysColor

; 3474 : 			return;
; 3475 : 
; 3476 : 		pOnSysColorChange(m_lpPointer);

  0000c	ff b0 0c 01 00
	00		 push	 DWORD PTR [eax+268]
  00012	8b 80 68 05 00
	00		 mov	 eax, DWORD PTR [eax+1384]
  00018	ff d0		 call	 eax
$LN3@OnSysColor:
; File D:\git\src\IBK\IBK_DRFN\ProjSrc\SrcDrfn\Chart\ExControl\ExGridCtrl.cpp

; 737  : }

  0001a	c3		 ret	 0
?OnSysColorChange@CExGridCtrl@@IAEXXZ ENDP		; CExGridCtrl::OnSysColorChange
_TEXT	ENDS
; Function compile flags: /Ogtp
; File D:\git\src\IBK\IBK_DRFN\ProjSrc\SrcDrfn\Chart\ExControl\ExGridCtrl.cpp
; File D:\git\src\IBK\IBK_DRFN\ProjSrc\SrcDrfn\Chart\ExControl\Include\GirdLoadHelper.h
; File D:\git\src\IBK\IBK_DRFN\ProjSrc\SrcDrfn\Chart\ExControl\ExGridCtrl.cpp
;	COMDAT ?OnRButtonUp@CExGridCtrl@@IAEXIVCPoint@@@Z
_TEXT	SEGMENT
_nFlags$ = 8						; size = 4
_point$ = 12						; size = 8
?OnRButtonUp@CExGridCtrl@@IAEXIVCPoint@@@Z PROC		; CExGridCtrl::OnRButtonUp, COMDAT
; _this$ = ecx

; 1652 : {

  00000	55		 push	 ebp
  00001	8b ec		 mov	 ebp, esp

; 1653 : 	m_pLoader->OnRButtonUp(nFlags, point);

  00003	8b 81 80 00 00
	00		 mov	 eax, DWORD PTR [ecx+128]
; File D:\git\src\IBK\IBK_DRFN\ProjSrc\SrcDrfn\Chart\ExControl\Include\GirdLoadHelper.h

; 3465 : 		if(!m_hLib)

  00009	83 78 04 00	 cmp	 DWORD PTR [eax+4], 0
  0000d	74 17		 je	 SHORT $LN3@OnRButtonU

; 3466 : 			return;
; 3467 : 
; 3468 : 		pOnRButtonUp(m_lpPointer, nFlags, point);

  0000f	ff 75 10	 push	 DWORD PTR _point$[ebp+4]
  00012	ff 75 0c	 push	 DWORD PTR _point$[ebp]
  00015	ff 75 08	 push	 DWORD PTR _nFlags$[ebp]
  00018	ff b0 0c 01 00
	00		 push	 DWORD PTR [eax+268]
  0001e	8b 80 64 05 00
	00		 mov	 eax, DWORD PTR [eax+1380]
  00024	ff d0		 call	 eax
$LN3@OnRButtonU:
; File D:\git\src\IBK\IBK_DRFN\ProjSrc\SrcDrfn\Chart\ExControl\ExGridCtrl.cpp

; 1654 : }

  00026	5d		 pop	 ebp
  00027	c2 0c 00	 ret	 12			; 0000000cH
?OnRButtonUp@CExGridCtrl@@IAEXIVCPoint@@@Z ENDP		; CExGridCtrl::OnRButtonUp
_TEXT	ENDS
; Function compile flags: /Ogtp
; File D:\git\src\IBK\IBK_DRFN\ProjSrc\SrcDrfn\Chart\ExControl\ExGridCtrl.cpp
; File D:\git\src\IBK\IBK_DRFN\ProjSrc\SrcDrfn\Chart\ExControl\Include\GirdLoadHelper.h
; File D:\git\src\IBK\IBK_DRFN\ProjSrc\SrcDrfn\Chart\ExControl\ExGridCtrl.cpp
;	COMDAT ?OnRButtonDown@CExGridCtrl@@IAEXIVCPoint@@@Z
_TEXT	SEGMENT
_nFlags$ = 8						; size = 4
_point$ = 12						; size = 8
?OnRButtonDown@CExGridCtrl@@IAEXIVCPoint@@@Z PROC	; CExGridCtrl::OnRButtonDown, COMDAT
; _this$ = ecx

; 1645 : {

  00000	55		 push	 ebp
  00001	8b ec		 mov	 ebp, esp

; 1646 : 	m_pLoader->OnRButtonDown(nFlags, point);

  00003	8b 81 80 00 00
	00		 mov	 eax, DWORD PTR [ecx+128]
; File D:\git\src\IBK\IBK_DRFN\ProjSrc\SrcDrfn\Chart\ExControl\Include\GirdLoadHelper.h

; 3457 : 		if(!m_hLib)

  00009	83 78 04 00	 cmp	 DWORD PTR [eax+4], 0
  0000d	74 17		 je	 SHORT $LN3@OnRButtonD

; 3458 : 			return;
; 3459 : 
; 3460 : 		pOnRButtonDown(m_lpPointer, nFlags, point);

  0000f	ff 75 10	 push	 DWORD PTR _point$[ebp+4]
  00012	ff 75 0c	 push	 DWORD PTR _point$[ebp]
  00015	ff 75 08	 push	 DWORD PTR _nFlags$[ebp]
  00018	ff b0 0c 01 00
	00		 push	 DWORD PTR [eax+268]
  0001e	8b 80 60 05 00
	00		 mov	 eax, DWORD PTR [eax+1376]
  00024	ff d0		 call	 eax
$LN3@OnRButtonD:
; File D:\git\src\IBK\IBK_DRFN\ProjSrc\SrcDrfn\Chart\ExControl\ExGridCtrl.cpp

; 1647 : }

  00026	5d		 pop	 ebp
  00027	c2 0c 00	 ret	 12			; 0000000cH
?OnRButtonDown@CExGridCtrl@@IAEXIVCPoint@@@Z ENDP	; CExGridCtrl::OnRButtonDown
_TEXT	ENDS
; Function compile flags: /Ogtp
; File D:\git\src\IBK\IBK_DRFN\ProjSrc\SrcDrfn\Chart\ExControl\ExGridCtrl.cpp
; File D:\git\src\IBK\IBK_DRFN\ProjSrc\SrcDrfn\Chart\ExControl\Include\GirdLoadHelper.h
; File D:\git\src\IBK\IBK_DRFN\ProjSrc\SrcDrfn\Chart\ExControl\ExGridCtrl.cpp
; File D:\git\src\IBK\IBK_DRFN\ProjSrc\SrcDrfn\Chart\ExControl\Include\GirdLoadHelper.h
; File D:\git\src\IBK\IBK_DRFN\ProjSrc\SrcDrfn\Chart\ExControl\ExGridCtrl.cpp
;	COMDAT ?OnSetCursor@CExGridCtrl@@IAEHPAVCWnd@@II@Z
_TEXT	SEGMENT
_pWnd$ = 8						; size = 4
_nHitTest$ = 12						; size = 4
_message$ = 16						; size = 4
?OnSetCursor@CExGridCtrl@@IAEHPAVCWnd@@II@Z PROC	; CExGridCtrl::OnSetCursor, COMDAT
; _this$ = ecx

; 1172 : {

  00000	55		 push	 ebp
  00001	8b ec		 mov	 ebp, esp

; 1173 : 	return m_pLoader->OnSetCursor(pWnd, nHitTest, message);

  00003	8b 81 80 00 00
	00		 mov	 eax, DWORD PTR [ecx+128]
; File D:\git\src\IBK\IBK_DRFN\ProjSrc\SrcDrfn\Chart\ExControl\Include\GirdLoadHelper.h

; 3449 : 		if(!m_hLib)

  00009	83 78 04 00	 cmp	 DWORD PTR [eax+4], 0
  0000d	75 06		 jne	 SHORT $LN4@OnSetCurso
; File D:\git\src\IBK\IBK_DRFN\ProjSrc\SrcDrfn\Chart\ExControl\ExGridCtrl.cpp

; 1173 : 	return m_pLoader->OnSetCursor(pWnd, nHitTest, message);

  0000f	33 c0		 xor	 eax, eax

; 1174 : }

  00011	5d		 pop	 ebp
  00012	c2 0c 00	 ret	 12			; 0000000cH
$LN4@OnSetCurso:
; File D:\git\src\IBK\IBK_DRFN\ProjSrc\SrcDrfn\Chart\ExControl\Include\GirdLoadHelper.h

; 3452 : 		return pOnSetCursor(m_lpPointer, pWnd, nHitTest, message);

  00015	ff 75 10	 push	 DWORD PTR _message$[ebp]
  00018	ff 75 0c	 push	 DWORD PTR _nHitTest$[ebp]
  0001b	ff 75 08	 push	 DWORD PTR _pWnd$[ebp]
  0001e	ff b0 0c 01 00
	00		 push	 DWORD PTR [eax+268]
  00024	8b 80 5c 05 00
	00		 mov	 eax, DWORD PTR [eax+1372]
  0002a	ff d0		 call	 eax
; File D:\git\src\IBK\IBK_DRFN\ProjSrc\SrcDrfn\Chart\ExControl\ExGridCtrl.cpp

; 1174 : }

  0002c	5d		 pop	 ebp
  0002d	c2 0c 00	 ret	 12			; 0000000cH
?OnSetCursor@CExGridCtrl@@IAEHPAVCWnd@@II@Z ENDP	; CExGridCtrl::OnSetCursor
_TEXT	ENDS
; Function compile flags: /Ogtp
; File D:\git\src\IBK\IBK_DRFN\ProjSrc\SrcDrfn\Chart\ExControl\ExGridCtrl.cpp
; File D:\git\src\IBK\IBK_DRFN\ProjSrc\SrcDrfn\Chart\ExControl\Include\GirdLoadHelper.h
; File D:\git\src\IBK\IBK_DRFN\ProjSrc\SrcDrfn\Chart\ExControl\ExGridCtrl.cpp
;	COMDAT ?OnUpdateEditSelectAll@CExGridCtrl@@IAEXPAVCCmdUI@@@Z
_TEXT	SEGMENT
_pCmdUI$ = 8						; size = 4
?OnUpdateEditSelectAll@CExGridCtrl@@IAEXPAVCCmdUI@@@Z PROC ; CExGridCtrl::OnUpdateEditSelectAll, COMDAT
; _this$ = ecx

; 1032 : {

  00000	55		 push	 ebp
  00001	8b ec		 mov	 ebp, esp

; 1033 : 	m_pLoader->OnUpdateEditSelectAll(pCmdUI);

  00003	8b 81 80 00 00
	00		 mov	 eax, DWORD PTR [ecx+128]
; File D:\git\src\IBK\IBK_DRFN\ProjSrc\SrcDrfn\Chart\ExControl\Include\GirdLoadHelper.h

; 3441 : 		if(!m_hLib)

  00009	83 78 04 00	 cmp	 DWORD PTR [eax+4], 0
  0000d	74 11		 je	 SHORT $LN3@OnUpdateEd

; 3442 : 			return;
; 3443 : 
; 3444 : 		pOnUpdateEditSelectAll(m_lpPointer, pCmdUI);

  0000f	ff 75 08	 push	 DWORD PTR _pCmdUI$[ebp]
  00012	ff b0 0c 01 00
	00		 push	 DWORD PTR [eax+268]
  00018	8b 80 58 05 00
	00		 mov	 eax, DWORD PTR [eax+1368]
  0001e	ff d0		 call	 eax
$LN3@OnUpdateEd:
; File D:\git\src\IBK\IBK_DRFN\ProjSrc\SrcDrfn\Chart\ExControl\ExGridCtrl.cpp

; 1034 : }

  00020	5d		 pop	 ebp
  00021	c2 04 00	 ret	 4
?OnUpdateEditSelectAll@CExGridCtrl@@IAEXPAVCCmdUI@@@Z ENDP ; CExGridCtrl::OnUpdateEditSelectAll
_TEXT	ENDS
; Function compile flags: /Ogtp
; File D:\git\src\IBK\IBK_DRFN\ProjSrc\SrcDrfn\Chart\ExControl\ExGridCtrl.cpp
; File D:\git\src\IBK\IBK_DRFN\ProjSrc\SrcDrfn\Chart\ExControl\Include\GirdLoadHelper.h
; File D:\git\src\IBK\IBK_DRFN\ProjSrc\SrcDrfn\Chart\ExControl\ExGridCtrl.cpp
;	COMDAT ?OnContextMenu@CExGridCtrl@@IAEXPAVCWnd@@VCPoint@@@Z
_TEXT	SEGMENT
_pWnd$ = 8						; size = 4
_point$ = 12						; size = 8
?OnContextMenu@CExGridCtrl@@IAEXPAVCWnd@@VCPoint@@@Z PROC ; CExGridCtrl::OnContextMenu, COMDAT
; _this$ = ecx

; 684  : {

  00000	55		 push	 ebp
  00001	8b ec		 mov	 ebp, esp

; 685  : 	m_pLoader->OnContextMenu(pWnd, point) ;

  00003	8b 81 80 00 00
	00		 mov	 eax, DWORD PTR [ecx+128]
; File D:\git\src\IBK\IBK_DRFN\ProjSrc\SrcDrfn\Chart\ExControl\Include\GirdLoadHelper.h

; 3433 : 		if(!m_hLib)

  00009	83 78 04 00	 cmp	 DWORD PTR [eax+4], 0
  0000d	74 17		 je	 SHORT $LN3@OnContextM

; 3434 : 			return;
; 3435 : 
; 3436 : 		pOnContextMenu(m_lpPointer, pWnd, point);

  0000f	ff 75 10	 push	 DWORD PTR _point$[ebp+4]
  00012	ff 75 0c	 push	 DWORD PTR _point$[ebp]
  00015	ff 75 08	 push	 DWORD PTR _pWnd$[ebp]
  00018	ff b0 0c 01 00
	00		 push	 DWORD PTR [eax+268]
  0001e	8b 80 54 05 00
	00		 mov	 eax, DWORD PTR [eax+1364]
  00024	ff d0		 call	 eax
$LN3@OnContextM:
; File D:\git\src\IBK\IBK_DRFN\ProjSrc\SrcDrfn\Chart\ExControl\ExGridCtrl.cpp

; 686  : }

  00026	5d		 pop	 ebp
  00027	c2 0c 00	 ret	 12			; 0000000cH
?OnContextMenu@CExGridCtrl@@IAEXPAVCWnd@@VCPoint@@@Z ENDP ; CExGridCtrl::OnContextMenu
_TEXT	ENDS
; Function compile flags: /Ogtp
; File D:\git\src\IBK\IBK_DRFN\ProjSrc\SrcDrfn\Chart\ExControl\ExGridCtrl.cpp
; File D:\git\src\IBK\IBK_DRFN\ProjSrc\SrcDrfn\Chart\ExControl\Include\GirdLoadHelper.h
; File D:\git\src\IBK\IBK_DRFN\ProjSrc\SrcDrfn\Chart\ExControl\ExGridCtrl.cpp
;	COMDAT ?OnSysKeyDown@CExGridCtrl@@IAEXIII@Z
_TEXT	SEGMENT
_nChar$ = 8						; size = 4
_nRepCnt$ = 12						; size = 4
_nFlags$ = 16						; size = 4
?OnSysKeyDown@CExGridCtrl@@IAEXIII@Z PROC		; CExGridCtrl::OnSysKeyDown, COMDAT
; _this$ = ecx

; 775  : {

  00000	55		 push	 ebp
  00001	8b ec		 mov	 ebp, esp

; 776  : 	m_pLoader->OnSysKeyDown(nChar, nRepCnt, nFlags);

  00003	8b 81 80 00 00
	00		 mov	 eax, DWORD PTR [ecx+128]
; File D:\git\src\IBK\IBK_DRFN\ProjSrc\SrcDrfn\Chart\ExControl\Include\GirdLoadHelper.h

; 3425 : 		if(!m_hLib)

  00009	83 78 04 00	 cmp	 DWORD PTR [eax+4], 0
  0000d	74 17		 je	 SHORT $LN3@OnSysKeyDo

; 3426 : 			return;
; 3427 : 
; 3428 : 		pOnSysKeyDown(m_lpPointer, nChar, nRepCnt, nFlags);

  0000f	ff 75 10	 push	 DWORD PTR _nFlags$[ebp]
  00012	ff 75 0c	 push	 DWORD PTR _nRepCnt$[ebp]
  00015	ff 75 08	 push	 DWORD PTR _nChar$[ebp]
  00018	ff b0 0c 01 00
	00		 push	 DWORD PTR [eax+268]
  0001e	8b 80 50 05 00
	00		 mov	 eax, DWORD PTR [eax+1360]
  00024	ff d0		 call	 eax
$LN3@OnSysKeyDo:
; File D:\git\src\IBK\IBK_DRFN\ProjSrc\SrcDrfn\Chart\ExControl\ExGridCtrl.cpp

; 777  : }

  00026	5d		 pop	 ebp
  00027	c2 0c 00	 ret	 12			; 0000000cH
?OnSysKeyDown@CExGridCtrl@@IAEXIII@Z ENDP		; CExGridCtrl::OnSysKeyDown
_TEXT	ENDS
; Function compile flags: /Ogtp
; File D:\git\src\IBK\IBK_DRFN\ProjSrc\SrcDrfn\Chart\ExControl\ExGridCtrl.cpp
; File D:\git\src\IBK\IBK_DRFN\ProjSrc\SrcDrfn\Chart\ExControl\Include\GirdLoadHelper.h
; File D:\git\src\IBK\IBK_DRFN\ProjSrc\SrcDrfn\Chart\ExControl\ExGridCtrl.cpp
; File D:\git\src\IBK\IBK_DRFN\ProjSrc\SrcDrfn\Chart\ExControl\Include\GirdLoadHelper.h
; File D:\git\src\IBK\IBK_DRFN\ProjSrc\SrcDrfn\Chart\ExControl\ExGridCtrl.cpp
;	COMDAT ?OnEraseBkgnd@CExGridCtrl@@IAEHPAVCDC@@@Z
_TEXT	SEGMENT
_pDC$ = 8						; size = 4
?OnEraseBkgnd@CExGridCtrl@@IAEHPAVCDC@@@Z PROC		; CExGridCtrl::OnEraseBkgnd, COMDAT
; _this$ = ecx

; 709  : {

  00000	55		 push	 ebp
  00001	8b ec		 mov	 ebp, esp

; 710  : 	return m_pLoader->OnEraseBkgnd(pDC);

  00003	8b 81 80 00 00
	00		 mov	 eax, DWORD PTR [ecx+128]
; File D:\git\src\IBK\IBK_DRFN\ProjSrc\SrcDrfn\Chart\ExControl\Include\GirdLoadHelper.h

; 3417 : 		if(!m_hLib)

  00009	83 78 04 00	 cmp	 DWORD PTR [eax+4], 0
  0000d	75 06		 jne	 SHORT $LN4@OnEraseBkg
; File D:\git\src\IBK\IBK_DRFN\ProjSrc\SrcDrfn\Chart\ExControl\ExGridCtrl.cpp

; 710  : 	return m_pLoader->OnEraseBkgnd(pDC);

  0000f	33 c0		 xor	 eax, eax

; 711  : }

  00011	5d		 pop	 ebp
  00012	c2 04 00	 ret	 4
$LN4@OnEraseBkg:
; File D:\git\src\IBK\IBK_DRFN\ProjSrc\SrcDrfn\Chart\ExControl\Include\GirdLoadHelper.h

; 3420 : 		return pOnEraseBkgnd(m_lpPointer, pDC);

  00015	ff 75 08	 push	 DWORD PTR _pDC$[ebp]
  00018	ff b0 0c 01 00
	00		 push	 DWORD PTR [eax+268]
  0001e	8b 80 4c 05 00
	00		 mov	 eax, DWORD PTR [eax+1356]
  00024	ff d0		 call	 eax
; File D:\git\src\IBK\IBK_DRFN\ProjSrc\SrcDrfn\Chart\ExControl\ExGridCtrl.cpp

; 711  : }

  00026	5d		 pop	 ebp
  00027	c2 04 00	 ret	 4
?OnEraseBkgnd@CExGridCtrl@@IAEHPAVCDC@@@Z ENDP		; CExGridCtrl::OnEraseBkgnd
_TEXT	ENDS
; Function compile flags: /Ogtp
; File D:\git\src\IBK\IBK_DRFN\ProjSrc\SrcDrfn\Chart\ExControl\ExGridCtrl.cpp
; File D:\git\src\IBK\IBK_DRFN\ProjSrc\SrcDrfn\Chart\ExControl\Include\GirdLoadHelper.h
; File D:\git\src\IBK\IBK_DRFN\ProjSrc\SrcDrfn\Chart\ExControl\ExGridCtrl.cpp
;	COMDAT ?OnLButtonDblClk@CExGridCtrl@@IAEXIVCPoint@@@Z
_TEXT	SEGMENT
_nFlags$ = 8						; size = 4
_point$ = 12						; size = 8
?OnLButtonDblClk@CExGridCtrl@@IAEXIVCPoint@@@Z PROC	; CExGridCtrl::OnLButtonDblClk, COMDAT
; _this$ = ecx

; 1629 : {

  00000	55		 push	 ebp
  00001	8b ec		 mov	 ebp, esp

; 1630 : 	m_pLoader->OnLButtonDblClk(nFlags, point);

  00003	8b 81 80 00 00
	00		 mov	 eax, DWORD PTR [ecx+128]
; File D:\git\src\IBK\IBK_DRFN\ProjSrc\SrcDrfn\Chart\ExControl\Include\GirdLoadHelper.h

; 3409 : 		if(!m_hLib)

  00009	83 78 04 00	 cmp	 DWORD PTR [eax+4], 0
  0000d	74 17		 je	 SHORT $LN3@OnLButtonD

; 3410 : 			return;
; 3411 : 
; 3412 : 		pOnLButtonDblClk(m_lpPointer, nFlags, point);

  0000f	ff 75 10	 push	 DWORD PTR _point$[ebp+4]
  00012	ff 75 0c	 push	 DWORD PTR _point$[ebp]
  00015	ff 75 08	 push	 DWORD PTR _nFlags$[ebp]
  00018	ff b0 0c 01 00
	00		 push	 DWORD PTR [eax+268]
  0001e	8b 80 48 05 00
	00		 mov	 eax, DWORD PTR [eax+1352]
  00024	ff d0		 call	 eax
$LN3@OnLButtonD:
; File D:\git\src\IBK\IBK_DRFN\ProjSrc\SrcDrfn\Chart\ExControl\ExGridCtrl.cpp

; 1631 : }

  00026	5d		 pop	 ebp
  00027	c2 0c 00	 ret	 12			; 0000000cH
?OnLButtonDblClk@CExGridCtrl@@IAEXIVCPoint@@@Z ENDP	; CExGridCtrl::OnLButtonDblClk
_TEXT	ENDS
; Function compile flags: /Ogtp
; File D:\git\src\IBK\IBK_DRFN\ProjSrc\SrcDrfn\Chart\ExControl\ExGridCtrl.cpp
; File D:\git\src\IBK\IBK_DRFN\ProjSrc\SrcDrfn\Chart\ExControl\Include\GirdLoadHelper.h
; File D:\git\src\IBK\IBK_DRFN\ProjSrc\SrcDrfn\Chart\ExControl\ExGridCtrl.cpp
;	COMDAT ?OnChar@CExGridCtrl@@IAEXIII@Z
_TEXT	SEGMENT
_nChar$ = 8						; size = 4
_nRepCnt$ = 12						; size = 4
_nFlags$ = 16						; size = 4
?OnChar@CExGridCtrl@@IAEXIII@Z PROC			; CExGridCtrl::OnChar, COMDAT
; _this$ = ecx

; 781  : {

  00000	55		 push	 ebp
  00001	8b ec		 mov	 ebp, esp

; 782  : 	m_pLoader->OnChar(nChar, nRepCnt, nFlags);

  00003	8b 81 80 00 00
	00		 mov	 eax, DWORD PTR [ecx+128]
; File D:\git\src\IBK\IBK_DRFN\ProjSrc\SrcDrfn\Chart\ExControl\Include\GirdLoadHelper.h

; 3401 : 		if(!m_hLib)

  00009	83 78 04 00	 cmp	 DWORD PTR [eax+4], 0
  0000d	74 17		 je	 SHORT $LN3@OnChar

; 3402 : 			return;
; 3403 : 
; 3404 : 		pOnChar(m_lpPointer, nChar, nRepCnt, nFlags);

  0000f	ff 75 10	 push	 DWORD PTR _nFlags$[ebp]
  00012	ff 75 0c	 push	 DWORD PTR _nRepCnt$[ebp]
  00015	ff 75 08	 push	 DWORD PTR _nChar$[ebp]
  00018	ff b0 0c 01 00
	00		 push	 DWORD PTR [eax+268]
  0001e	8b 80 44 05 00
	00		 mov	 eax, DWORD PTR [eax+1348]
  00024	ff d0		 call	 eax
$LN3@OnChar:
; File D:\git\src\IBK\IBK_DRFN\ProjSrc\SrcDrfn\Chart\ExControl\ExGridCtrl.cpp

; 783  : }

  00026	5d		 pop	 ebp
  00027	c2 0c 00	 ret	 12			; 0000000cH
?OnChar@CExGridCtrl@@IAEXIII@Z ENDP			; CExGridCtrl::OnChar
_TEXT	ENDS
; Function compile flags: /Ogtp
; File D:\git\src\IBK\IBK_DRFN\ProjSrc\SrcDrfn\Chart\ExControl\ExGridCtrl.cpp
; File D:\git\src\IBK\IBK_DRFN\ProjSrc\SrcDrfn\Chart\ExControl\Include\GirdLoadHelper.h
; File D:\git\src\IBK\IBK_DRFN\ProjSrc\SrcDrfn\Chart\ExControl\ExGridCtrl.cpp
;	COMDAT ?OnKeyUp@CExGridCtrl@@IAEXIII@Z
_TEXT	SEGMENT
_nChar$ = 8						; size = 4
_nRepCnt$ = 12						; size = 4
_nFlags$ = 16						; size = 4
?OnKeyUp@CExGridCtrl@@IAEXIII@Z PROC			; CExGridCtrl::OnKeyUp, COMDAT
; _this$ = ecx

; 770  : {

  00000	55		 push	 ebp
  00001	8b ec		 mov	 ebp, esp

; 771  : 	m_pLoader->OnKeyUp(nChar, nRepCnt, nFlags);

  00003	8b 81 80 00 00
	00		 mov	 eax, DWORD PTR [ecx+128]
; File D:\git\src\IBK\IBK_DRFN\ProjSrc\SrcDrfn\Chart\ExControl\Include\GirdLoadHelper.h

; 3393 : 		if(!m_hLib)

  00009	83 78 04 00	 cmp	 DWORD PTR [eax+4], 0
  0000d	74 17		 je	 SHORT $LN3@OnKeyUp

; 3394 : 			return;
; 3395 : 
; 3396 : 		pOnKeyUp(m_lpPointer, nChar, nRepCnt, nFlags);

  0000f	ff 75 10	 push	 DWORD PTR _nFlags$[ebp]
  00012	ff 75 0c	 push	 DWORD PTR _nRepCnt$[ebp]
  00015	ff 75 08	 push	 DWORD PTR _nChar$[ebp]
  00018	ff b0 0c 01 00
	00		 push	 DWORD PTR [eax+268]
  0001e	8b 80 40 05 00
	00		 mov	 eax, DWORD PTR [eax+1344]
  00024	ff d0		 call	 eax
$LN3@OnKeyUp:
; File D:\git\src\IBK\IBK_DRFN\ProjSrc\SrcDrfn\Chart\ExControl\ExGridCtrl.cpp

; 772  : }

  00026	5d		 pop	 ebp
  00027	c2 0c 00	 ret	 12			; 0000000cH
?OnKeyUp@CExGridCtrl@@IAEXIII@Z ENDP			; CExGridCtrl::OnKeyUp
_TEXT	ENDS
; Function compile flags: /Ogtp
; File D:\git\src\IBK\IBK_DRFN\ProjSrc\SrcDrfn\Chart\ExControl\ExGridCtrl.cpp
; File D:\git\src\IBK\IBK_DRFN\ProjSrc\SrcDrfn\Chart\ExControl\Include\GirdLoadHelper.h
; File D:\git\src\IBK\IBK_DRFN\ProjSrc\SrcDrfn\Chart\ExControl\ExGridCtrl.cpp
;	COMDAT ?OnKeyDown@CExGridCtrl@@IAEXIII@Z
_TEXT	SEGMENT
_nChar$ = 8						; size = 4
_nRepCnt$ = 12						; size = 4
_nFlags$ = 16						; size = 4
?OnKeyDown@CExGridCtrl@@IAEXIII@Z PROC			; CExGridCtrl::OnKeyDown, COMDAT
; _this$ = ecx

; 765  : {

  00000	55		 push	 ebp
  00001	8b ec		 mov	 ebp, esp

; 766  : 	m_pLoader->OnKeyDown(nChar, nRepCnt, nFlags);

  00003	8b 81 80 00 00
	00		 mov	 eax, DWORD PTR [ecx+128]
; File D:\git\src\IBK\IBK_DRFN\ProjSrc\SrcDrfn\Chart\ExControl\Include\GirdLoadHelper.h

; 3385 : 		if(!m_hLib)

  00009	83 78 04 00	 cmp	 DWORD PTR [eax+4], 0
  0000d	74 17		 je	 SHORT $LN3@OnKeyDown

; 3386 : 			return;
; 3387 : 
; 3388 : 		pOnKeyDown(m_lpPointer, nChar, nRepCnt, nFlags);

  0000f	ff 75 10	 push	 DWORD PTR _nFlags$[ebp]
  00012	ff 75 0c	 push	 DWORD PTR _nRepCnt$[ebp]
  00015	ff 75 08	 push	 DWORD PTR _nChar$[ebp]
  00018	ff b0 0c 01 00
	00		 push	 DWORD PTR [eax+268]
  0001e	8b 80 3c 05 00
	00		 mov	 eax, DWORD PTR [eax+1340]
  00024	ff d0		 call	 eax
$LN3@OnKeyDown:
; File D:\git\src\IBK\IBK_DRFN\ProjSrc\SrcDrfn\Chart\ExControl\ExGridCtrl.cpp

; 767  : }

  00026	5d		 pop	 ebp
  00027	c2 0c 00	 ret	 12			; 0000000cH
?OnKeyDown@CExGridCtrl@@IAEXIII@Z ENDP			; CExGridCtrl::OnKeyDown
_TEXT	ENDS
; Function compile flags: /Ogtp
; File D:\git\src\IBK\IBK_DRFN\ProjSrc\SrcDrfn\Chart\ExControl\ExGridCtrl.cpp
; File D:\git\src\IBK\IBK_DRFN\ProjSrc\SrcDrfn\Chart\ExControl\Include\GirdLoadHelper.h
; File D:\git\src\IBK\IBK_DRFN\ProjSrc\SrcDrfn\Chart\ExControl\ExGridCtrl.cpp
; File D:\git\src\IBK\IBK_DRFN\ProjSrc\SrcDrfn\Chart\ExControl\Include\GirdLoadHelper.h
; File D:\git\src\IBK\IBK_DRFN\ProjSrc\SrcDrfn\Chart\ExControl\ExGridCtrl.cpp
;	COMDAT ?OnGetDlgCode@CExGridCtrl@@IAEIXZ
_TEXT	SEGMENT
?OnGetDlgCode@CExGridCtrl@@IAEIXZ PROC			; CExGridCtrl::OnGetDlgCode, COMDAT
; _this$ = ecx

; 729  : 	return m_pLoader->OnGetDlgCode();

  00000	8b 81 80 00 00
	00		 mov	 eax, DWORD PTR [ecx+128]
; File D:\git\src\IBK\IBK_DRFN\ProjSrc\SrcDrfn\Chart\ExControl\Include\GirdLoadHelper.h

; 3377 : 		if(!m_hLib)

  00006	83 78 04 00	 cmp	 DWORD PTR [eax+4], 0
  0000a	75 03		 jne	 SHORT $LN4@OnGetDlgCo
; File D:\git\src\IBK\IBK_DRFN\ProjSrc\SrcDrfn\Chart\ExControl\ExGridCtrl.cpp

; 729  : 	return m_pLoader->OnGetDlgCode();

  0000c	33 c0		 xor	 eax, eax

; 730  : }

  0000e	c3		 ret	 0
$LN4@OnGetDlgCo:
; File D:\git\src\IBK\IBK_DRFN\ProjSrc\SrcDrfn\Chart\ExControl\Include\GirdLoadHelper.h

; 3380 : 		return pOnGetDlgCode(m_lpPointer);

  0000f	ff b0 0c 01 00
	00		 push	 DWORD PTR [eax+268]
  00015	8b 80 38 05 00
	00		 mov	 eax, DWORD PTR [eax+1336]
  0001b	ff d0		 call	 eax
; File D:\git\src\IBK\IBK_DRFN\ProjSrc\SrcDrfn\Chart\ExControl\ExGridCtrl.cpp

; 730  : }

  0001d	c3		 ret	 0
?OnGetDlgCode@CExGridCtrl@@IAEIXZ ENDP			; CExGridCtrl::OnGetDlgCode
_TEXT	ENDS
; Function compile flags: /Ogtp
; File D:\git\src\IBK\IBK_DRFN\ProjSrc\SrcDrfn\Chart\ExControl\ExGridCtrl.cpp
; File D:\git\src\IBK\IBK_DRFN\ProjSrc\SrcDrfn\Chart\ExControl\Include\GirdLoadHelper.h
; File D:\git\src\IBK\IBK_DRFN\ProjSrc\SrcDrfn\Chart\ExControl\ExGridCtrl.cpp
;	COMDAT ?OnTimer@CExGridCtrl@@IAEXI@Z
_TEXT	SEGMENT
_nIDEvent$ = 8						; size = 4
?OnTimer@CExGridCtrl@@IAEXI@Z PROC			; CExGridCtrl::OnTimer, COMDAT
; _this$ = ecx

; 759  : {

  00000	55		 push	 ebp
  00001	8b ec		 mov	 ebp, esp

; 760  : 	m_pLoader->OnTimer(nIDEvent);

  00003	8b 81 80 00 00
	00		 mov	 eax, DWORD PTR [ecx+128]
; File D:\git\src\IBK\IBK_DRFN\ProjSrc\SrcDrfn\Chart\ExControl\Include\GirdLoadHelper.h

; 3369 : 		if(!m_hLib)

  00009	83 78 04 00	 cmp	 DWORD PTR [eax+4], 0
  0000d	74 11		 je	 SHORT $LN3@OnTimer

; 3370 : 			return;
; 3371 : 
; 3372 : 		pOnTimer(m_lpPointer, nIDEvent);

  0000f	ff 75 08	 push	 DWORD PTR _nIDEvent$[ebp]
  00012	ff b0 0c 01 00
	00		 push	 DWORD PTR [eax+268]
  00018	8b 80 34 05 00
	00		 mov	 eax, DWORD PTR [eax+1332]
  0001e	ff d0		 call	 eax
$LN3@OnTimer:
; File D:\git\src\IBK\IBK_DRFN\ProjSrc\SrcDrfn\Chart\ExControl\ExGridCtrl.cpp

; 761  : }

  00020	5d		 pop	 ebp
  00021	c2 04 00	 ret	 4
?OnTimer@CExGridCtrl@@IAEXI@Z ENDP			; CExGridCtrl::OnTimer
_TEXT	ENDS
; Function compile flags: /Ogtp
; File D:\git\src\IBK\IBK_DRFN\ProjSrc\SrcDrfn\Chart\ExControl\ExGridCtrl.cpp
; File D:\git\src\IBK\IBK_DRFN\ProjSrc\SrcDrfn\Chart\ExControl\Include\GirdLoadHelper.h
; File D:\git\src\IBK\IBK_DRFN\ProjSrc\SrcDrfn\Chart\ExControl\ExGridCtrl.cpp
;	COMDAT ?OnMouseMove@CExGridCtrl@@IAEXIVCPoint@@@Z
_TEXT	SEGMENT
_nFlags$ = 8						; size = 4
_point$ = 12						; size = 8
?OnMouseMove@CExGridCtrl@@IAEXIVCPoint@@@Z PROC		; CExGridCtrl::OnMouseMove, COMDAT
; _this$ = ecx

; 1619 : {

  00000	55		 push	 ebp
  00001	8b ec		 mov	 ebp, esp

; 1620 : 	m_pLoader->OnMouseMove(nFlags, point);

  00003	8b 81 80 00 00
	00		 mov	 eax, DWORD PTR [ecx+128]
; File D:\git\src\IBK\IBK_DRFN\ProjSrc\SrcDrfn\Chart\ExControl\Include\GirdLoadHelper.h

; 3361 : 		if(!m_hLib)

  00009	83 78 04 00	 cmp	 DWORD PTR [eax+4], 0
  0000d	74 17		 je	 SHORT $LN3@OnMouseMov

; 3362 : 			return;
; 3363 : 
; 3364 : 		pOnMouseMove(m_lpPointer, nFlags, point);

  0000f	ff 75 10	 push	 DWORD PTR _point$[ebp+4]
  00012	ff 75 0c	 push	 DWORD PTR _point$[ebp]
  00015	ff 75 08	 push	 DWORD PTR _nFlags$[ebp]
  00018	ff b0 0c 01 00
	00		 push	 DWORD PTR [eax+268]
  0001e	8b 80 30 05 00
	00		 mov	 eax, DWORD PTR [eax+1328]
  00024	ff d0		 call	 eax
$LN3@OnMouseMov:
; File D:\git\src\IBK\IBK_DRFN\ProjSrc\SrcDrfn\Chart\ExControl\ExGridCtrl.cpp

; 1621 : }

  00026	5d		 pop	 ebp
  00027	c2 0c 00	 ret	 12			; 0000000cH
?OnMouseMove@CExGridCtrl@@IAEXIVCPoint@@@Z ENDP		; CExGridCtrl::OnMouseMove
_TEXT	ENDS
; Function compile flags: /Ogtp
; File D:\git\src\IBK\IBK_DRFN\ProjSrc\SrcDrfn\Chart\ExControl\ExGridCtrl.cpp
; File D:\git\src\IBK\IBK_DRFN\ProjSrc\SrcDrfn\Chart\ExControl\Include\GirdLoadHelper.h
; File D:\git\src\IBK\IBK_DRFN\ProjSrc\SrcDrfn\Chart\ExControl\ExGridCtrl.cpp
;	COMDAT ?OnLButtonDown@CExGridCtrl@@IAEXIVCPoint@@@Z
_TEXT	SEGMENT
_nFlags$ = 8						; size = 4
_point$ = 12						; size = 8
?OnLButtonDown@CExGridCtrl@@IAEXIVCPoint@@@Z PROC	; CExGridCtrl::OnLButtonDown, COMDAT
; _this$ = ecx

; 1634 : {

  00000	55		 push	 ebp
  00001	8b ec		 mov	 ebp, esp

; 1635 : 	m_pLoader->OnLButtonDown(nFlags, point);

  00003	8b 81 80 00 00
	00		 mov	 eax, DWORD PTR [ecx+128]
; File D:\git\src\IBK\IBK_DRFN\ProjSrc\SrcDrfn\Chart\ExControl\Include\GirdLoadHelper.h

; 3353 : 		if(!m_hLib)

  00009	83 78 04 00	 cmp	 DWORD PTR [eax+4], 0
  0000d	74 17		 je	 SHORT $LN3@OnLButtonD

; 3354 : 			return;
; 3355 : 
; 3356 : 		pOnLButtonDown(m_lpPointer, nFlags, point);

  0000f	ff 75 10	 push	 DWORD PTR _point$[ebp+4]
  00012	ff 75 0c	 push	 DWORD PTR _point$[ebp]
  00015	ff 75 08	 push	 DWORD PTR _nFlags$[ebp]
  00018	ff b0 0c 01 00
	00		 push	 DWORD PTR [eax+268]
  0001e	8b 80 2c 05 00
	00		 mov	 eax, DWORD PTR [eax+1324]
  00024	ff d0		 call	 eax
$LN3@OnLButtonD:
; File D:\git\src\IBK\IBK_DRFN\ProjSrc\SrcDrfn\Chart\ExControl\ExGridCtrl.cpp

; 1636 : }

  00026	5d		 pop	 ebp
  00027	c2 0c 00	 ret	 12			; 0000000cH
?OnLButtonDown@CExGridCtrl@@IAEXIVCPoint@@@Z ENDP	; CExGridCtrl::OnLButtonDown
_TEXT	ENDS
; Function compile flags: /Ogtp
; File D:\git\src\IBK\IBK_DRFN\ProjSrc\SrcDrfn\Chart\ExControl\ExGridCtrl.cpp
; File D:\git\src\IBK\IBK_DRFN\ProjSrc\SrcDrfn\Chart\ExControl\Include\GirdLoadHelper.h
; File D:\git\src\IBK\IBK_DRFN\ProjSrc\SrcDrfn\Chart\ExControl\ExGridCtrl.cpp
;	COMDAT ?OnLButtonUp@CExGridCtrl@@IAEXIVCPoint@@@Z
_TEXT	SEGMENT
_nFlags$ = 8						; size = 4
_point$ = 12						; size = 8
?OnLButtonUp@CExGridCtrl@@IAEXIVCPoint@@@Z PROC		; CExGridCtrl::OnLButtonUp, COMDAT
; _this$ = ecx

; 1639 : {

  00000	55		 push	 ebp
  00001	8b ec		 mov	 ebp, esp

; 1640 : 	m_pLoader->OnLButtonUp(nFlags, point);

  00003	8b 81 80 00 00
	00		 mov	 eax, DWORD PTR [ecx+128]
; File D:\git\src\IBK\IBK_DRFN\ProjSrc\SrcDrfn\Chart\ExControl\Include\GirdLoadHelper.h

; 3345 : 		if(!m_hLib)

  00009	83 78 04 00	 cmp	 DWORD PTR [eax+4], 0
  0000d	74 17		 je	 SHORT $LN3@OnLButtonU

; 3346 : 			return;
; 3347 : 
; 3348 : 		pOnLButtonUp(m_lpPointer, nFlags, point);

  0000f	ff 75 10	 push	 DWORD PTR _point$[ebp+4]
  00012	ff 75 0c	 push	 DWORD PTR _point$[ebp]
  00015	ff 75 08	 push	 DWORD PTR _nFlags$[ebp]
  00018	ff b0 0c 01 00
	00		 push	 DWORD PTR [eax+268]
  0001e	8b 80 28 05 00
	00		 mov	 eax, DWORD PTR [eax+1320]
  00024	ff d0		 call	 eax
$LN3@OnLButtonU:
; File D:\git\src\IBK\IBK_DRFN\ProjSrc\SrcDrfn\Chart\ExControl\ExGridCtrl.cpp

; 1641 : }

  00026	5d		 pop	 ebp
  00027	c2 0c 00	 ret	 12			; 0000000cH
?OnLButtonUp@CExGridCtrl@@IAEXIVCPoint@@@Z ENDP		; CExGridCtrl::OnLButtonUp
_TEXT	ENDS
; Function compile flags: /Ogtp
; File D:\git\src\IBK\IBK_DRFN\ProjSrc\SrcDrfn\Chart\ExControl\ExGridCtrl.cpp
; File D:\git\src\IBK\IBK_DRFN\ProjSrc\SrcDrfn\Chart\ExControl\Include\GirdLoadHelper.h
; File D:\git\src\IBK\IBK_DRFN\ProjSrc\SrcDrfn\Chart\ExControl\ExGridCtrl.cpp
;	COMDAT ?OnSize@CExGridCtrl@@IAEXIHH@Z
_TEXT	SEGMENT
_nType$ = 8						; size = 4
_cx$ = 12						; size = 4
_cy$ = 16						; size = 4
?OnSize@CExGridCtrl@@IAEXIHH@Z PROC			; CExGridCtrl::OnSize, COMDAT
; _this$ = ecx

; 723  : {

  00000	55		 push	 ebp
  00001	8b ec		 mov	 ebp, esp

; 724  : 	m_pLoader->OnSize(nType, cx, cy);

  00003	8b 81 80 00 00
	00		 mov	 eax, DWORD PTR [ecx+128]
; File D:\git\src\IBK\IBK_DRFN\ProjSrc\SrcDrfn\Chart\ExControl\Include\GirdLoadHelper.h

; 3337 : 		if(!m_hLib)

  00009	83 78 04 00	 cmp	 DWORD PTR [eax+4], 0
  0000d	74 17		 je	 SHORT $LN3@OnSize

; 3338 : 			return;
; 3339 : 
; 3340 : 		pOnSize(m_lpPointer, nType, cx, cy);

  0000f	ff 75 10	 push	 DWORD PTR _cy$[ebp]
  00012	ff 75 0c	 push	 DWORD PTR _cx$[ebp]
  00015	ff 75 08	 push	 DWORD PTR _nType$[ebp]
  00018	ff b0 0c 01 00
	00		 push	 DWORD PTR [eax+268]
  0001e	8b 80 24 05 00
	00		 mov	 eax, DWORD PTR [eax+1316]
  00024	ff d0		 call	 eax
$LN3@OnSize:
; File D:\git\src\IBK\IBK_DRFN\ProjSrc\SrcDrfn\Chart\ExControl\ExGridCtrl.cpp

; 725  : }

  00026	5d		 pop	 ebp
  00027	c2 0c 00	 ret	 12			; 0000000cH
?OnSize@CExGridCtrl@@IAEXIHH@Z ENDP			; CExGridCtrl::OnSize
_TEXT	ENDS
; Function compile flags: /Ogtp
; File D:\git\src\IBK\IBK_DRFN\ProjSrc\SrcDrfn\Chart\ExControl\ExGridCtrl.cpp
; File D:\git\src\IBK\IBK_DRFN\ProjSrc\SrcDrfn\Chart\ExControl\Include\GirdLoadHelper.h
; File D:\git\src\IBK\IBK_DRFN\ProjSrc\SrcDrfn\Chart\ExControl\ExGridCtrl.cpp
;	COMDAT ?OnVScroll@CExGridCtrl@@IAEXIIPAVCScrollBar@@@Z
_TEXT	SEGMENT
_nSBCode$ = 8						; size = 4
_nPos$ = 12						; size = 4
_pScrollBar$ = 16					; size = 4
?OnVScroll@CExGridCtrl@@IAEXIIPAVCScrollBar@@@Z PROC	; CExGridCtrl::OnVScroll, COMDAT
; _this$ = ecx

; 807  : {

  00000	55		 push	 ebp
  00001	8b ec		 mov	 ebp, esp

; 808  : 	m_pLoader->OnVScroll(nSBCode, nPos, pScrollBar);

  00003	8b 81 80 00 00
	00		 mov	 eax, DWORD PTR [ecx+128]
; File D:\git\src\IBK\IBK_DRFN\ProjSrc\SrcDrfn\Chart\ExControl\Include\GirdLoadHelper.h

; 3329 : 		if(!m_hLib)

  00009	83 78 04 00	 cmp	 DWORD PTR [eax+4], 0
  0000d	74 17		 je	 SHORT $LN3@OnVScroll

; 3330 : 			return;
; 3331 : 
; 3332 : 		pOnVScroll(m_lpPointer, nSBCode, nPos, pScrollBar);

  0000f	ff 75 10	 push	 DWORD PTR _pScrollBar$[ebp]
  00012	ff 75 0c	 push	 DWORD PTR _nPos$[ebp]
  00015	ff 75 08	 push	 DWORD PTR _nSBCode$[ebp]
  00018	ff b0 0c 01 00
	00		 push	 DWORD PTR [eax+268]
  0001e	8b 80 20 05 00
	00		 mov	 eax, DWORD PTR [eax+1312]
  00024	ff d0		 call	 eax
$LN3@OnVScroll:
; File D:\git\src\IBK\IBK_DRFN\ProjSrc\SrcDrfn\Chart\ExControl\ExGridCtrl.cpp

; 809  : }

  00026	5d		 pop	 ebp
  00027	c2 0c 00	 ret	 12			; 0000000cH
?OnVScroll@CExGridCtrl@@IAEXIIPAVCScrollBar@@@Z ENDP	; CExGridCtrl::OnVScroll
_TEXT	ENDS
; Function compile flags: /Ogtp
; File D:\git\src\IBK\IBK_DRFN\ProjSrc\SrcDrfn\Chart\ExControl\ExGridCtrl.cpp
; File D:\git\src\IBK\IBK_DRFN\ProjSrc\SrcDrfn\Chart\ExControl\Include\GirdLoadHelper.h
; File D:\git\src\IBK\IBK_DRFN\ProjSrc\SrcDrfn\Chart\ExControl\ExGridCtrl.cpp
;	COMDAT ?OnHScroll@CExGridCtrl@@IAEXIIPAVCScrollBar@@@Z
_TEXT	SEGMENT
_nSBCode$ = 8						; size = 4
_nPos$ = 12						; size = 4
_pScrollBar$ = 16					; size = 4
?OnHScroll@CExGridCtrl@@IAEXIIPAVCScrollBar@@@Z PROC	; CExGridCtrl::OnHScroll, COMDAT
; _this$ = ecx

; 801  : {

  00000	55		 push	 ebp
  00001	8b ec		 mov	 ebp, esp

; 802  : 	m_pLoader->OnHScroll(nSBCode, nPos, pScrollBar);

  00003	8b 81 80 00 00
	00		 mov	 eax, DWORD PTR [ecx+128]
; File D:\git\src\IBK\IBK_DRFN\ProjSrc\SrcDrfn\Chart\ExControl\Include\GirdLoadHelper.h

; 3321 : 		if(!m_hLib)

  00009	83 78 04 00	 cmp	 DWORD PTR [eax+4], 0
  0000d	74 17		 je	 SHORT $LN3@OnHScroll

; 3322 : 			return;
; 3323 : 
; 3324 : 		pOnHScroll(m_lpPointer, nSBCode, nPos, pScrollBar);

  0000f	ff 75 10	 push	 DWORD PTR _pScrollBar$[ebp]
  00012	ff 75 0c	 push	 DWORD PTR _nPos$[ebp]
  00015	ff 75 08	 push	 DWORD PTR _nSBCode$[ebp]
  00018	ff b0 0c 01 00
	00		 push	 DWORD PTR [eax+268]
  0001e	8b 80 1c 05 00
	00		 mov	 eax, DWORD PTR [eax+1308]
  00024	ff d0		 call	 eax
$LN3@OnHScroll:
; File D:\git\src\IBK\IBK_DRFN\ProjSrc\SrcDrfn\Chart\ExControl\ExGridCtrl.cpp

; 803  : }

  00026	5d		 pop	 ebp
  00027	c2 0c 00	 ret	 12			; 0000000cH
?OnHScroll@CExGridCtrl@@IAEXIIPAVCScrollBar@@@Z ENDP	; CExGridCtrl::OnHScroll
_TEXT	ENDS
; Function compile flags: /Ogtp
; File D:\git\src\IBK\IBK_DRFN\ProjSrc\SrcDrfn\Chart\ExControl\ExGridCtrl.cpp
; File D:\git\src\IBK\IBK_DRFN\ProjSrc\SrcDrfn\Chart\ExControl\Include\GirdLoadHelper.h
; File D:\git\src\IBK\IBK_DRFN\ProjSrc\SrcDrfn\Chart\ExControl\ExGridCtrl.cpp
;	COMDAT ?OnPaint@CExGridCtrl@@IAEXXZ
_TEXT	SEGMENT
?OnPaint@CExGridCtrl@@IAEXXZ PROC			; CExGridCtrl::OnPaint, COMDAT
; _this$ = ecx

; 705  : 	m_pLoader->OnPaint();

  00000	8b 81 80 00 00
	00		 mov	 eax, DWORD PTR [ecx+128]
; File D:\git\src\IBK\IBK_DRFN\ProjSrc\SrcDrfn\Chart\ExControl\Include\GirdLoadHelper.h

; 3313 : 		if(!m_hLib)

  00006	83 78 04 00	 cmp	 DWORD PTR [eax+4], 0
  0000a	74 0e		 je	 SHORT $LN3@OnPaint

; 3314 : 			return;
; 3315 : 
; 3316 : 		pOnPaint(m_lpPointer);

  0000c	ff b0 0c 01 00
	00		 push	 DWORD PTR [eax+268]
  00012	8b 80 18 05 00
	00		 mov	 eax, DWORD PTR [eax+1304]
  00018	ff d0		 call	 eax
$LN3@OnPaint:
; File D:\git\src\IBK\IBK_DRFN\ProjSrc\SrcDrfn\Chart\ExControl\ExGridCtrl.cpp

; 706  : }

  0001a	c3		 ret	 0
?OnPaint@CExGridCtrl@@IAEXXZ ENDP			; CExGridCtrl::OnPaint
_TEXT	ENDS
; Function compile flags: /Ogtp
; File D:\git\src\IBK\IBK_DRFN\ProjSrc\SrcDrfn\Chart\ExControl\ExGridCtrl.cpp
; File D:\git\src\IBK\IBK_DRFN\ProjSrc\SrcDrfn\Chart\ExControl\Include\GirdLoadHelper.h
; File D:\git\src\IBK\IBK_DRFN\ProjSrc\SrcDrfn\Chart\ExControl\ExGridCtrl.cpp
;	COMDAT ?OnSelecting@CExGridCtrl@@IAEXAAVCCellID@@@Z
_TEXT	SEGMENT
_currentCell$ = 8					; size = 4
?OnSelecting@CExGridCtrl@@IAEXAAVCCellID@@@Z PROC	; CExGridCtrl::OnSelecting, COMDAT
; _this$ = ecx

; 921  : {

  00000	55		 push	 ebp
  00001	8b ec		 mov	 ebp, esp

; 922  : 	m_pLoader->OnSelecting(currentCell);

  00003	8b 81 80 00 00
	00		 mov	 eax, DWORD PTR [ecx+128]
; File D:\git\src\IBK\IBK_DRFN\ProjSrc\SrcDrfn\Chart\ExControl\Include\GirdLoadHelper.h

; 3305 : 		if(!m_hLib)

  00009	83 78 04 00	 cmp	 DWORD PTR [eax+4], 0
  0000d	74 11		 je	 SHORT $LN3@OnSelectin

; 3306 : 			return;
; 3307 : 
; 3308 : 		pOnSelecting(m_lpPointer, currentCell);

  0000f	ff 75 08	 push	 DWORD PTR _currentCell$[ebp]
  00012	ff b0 0c 01 00
	00		 push	 DWORD PTR [eax+268]
  00018	8b 80 14 05 00
	00		 mov	 eax, DWORD PTR [eax+1300]
  0001e	ff d0		 call	 eax
$LN3@OnSelectin:
; File D:\git\src\IBK\IBK_DRFN\ProjSrc\SrcDrfn\Chart\ExControl\ExGridCtrl.cpp

; 923  : }

  00020	5d		 pop	 ebp
  00021	c2 04 00	 ret	 4
?OnSelecting@CExGridCtrl@@IAEXAAVCCellID@@@Z ENDP	; CExGridCtrl::OnSelecting
_TEXT	ENDS
; Function compile flags: /Ogtp
; File D:\git\src\IBK\IBK_DRFN\ProjSrc\SrcDrfn\Chart\ExControl\ExGridCtrl.cpp
; File D:\git\src\IBK\IBK_DRFN\ProjSrc\SrcDrfn\Chart\ExControl\Include\GirdLoadHelper.h
; File D:\git\src\IBK\IBK_DRFN\ProjSrc\SrcDrfn\Chart\ExControl\ExGridCtrl.cpp
;	COMDAT ?SelectCells@CExGridCtrl@@IAEXVCCellID@@HH@Z
_TEXT	SEGMENT
_currentCell$ = 8					; size = 8
_bForceRedraw$ = 16					; size = 4
_bSelectCells$ = 20					; size = 4
?SelectCells@CExGridCtrl@@IAEXVCCellID@@HH@Z PROC	; CExGridCtrl::SelectCells, COMDAT
; _this$ = ecx

; 915  : {

  00000	55		 push	 ebp
  00001	8b ec		 mov	 ebp, esp

; 916  : 	m_pLoader->SelectCells(currentCell, bForceRedraw, bSelectCells);

  00003	8b 81 80 00 00
	00		 mov	 eax, DWORD PTR [ecx+128]
; File D:\git\src\IBK\IBK_DRFN\ProjSrc\SrcDrfn\Chart\ExControl\Include\GirdLoadHelper.h

; 3297 : 		if(!m_hLib)

  00009	83 78 04 00	 cmp	 DWORD PTR [eax+4], 0
  0000d	74 1a		 je	 SHORT $LN3@SelectCell

; 3298 : 			return;
; 3299 : 
; 3300 : 		pSelectCells(m_lpPointer, currentCell, bForceRedraw, bSelectCells);

  0000f	ff 75 14	 push	 DWORD PTR _bSelectCells$[ebp]
  00012	ff 75 10	 push	 DWORD PTR _bForceRedraw$[ebp]
  00015	ff 75 0c	 push	 DWORD PTR _currentCell$[ebp+4]
  00018	ff 75 08	 push	 DWORD PTR _currentCell$[ebp]
  0001b	ff b0 0c 01 00
	00		 push	 DWORD PTR [eax+268]
  00021	8b 80 10 05 00
	00		 mov	 eax, DWORD PTR [eax+1296]
  00027	ff d0		 call	 eax
$LN3@SelectCell:
; File D:\git\src\IBK\IBK_DRFN\ProjSrc\SrcDrfn\Chart\ExControl\ExGridCtrl.cpp

; 917  : }

  00029	5d		 pop	 ebp
  0002a	c2 10 00	 ret	 16			; 00000010H
?SelectCells@CExGridCtrl@@IAEXVCCellID@@HH@Z ENDP	; CExGridCtrl::SelectCells
_TEXT	ENDS
; Function compile flags: /Ogtp
; File D:\git\src\IBK\IBK_DRFN\ProjSrc\SrcDrfn\Chart\ExControl\ExGridCtrl.cpp
; File D:\git\src\IBK\IBK_DRFN\ProjSrc\SrcDrfn\Chart\ExControl\Include\GirdLoadHelper.h
; File D:\git\src\IBK\IBK_DRFN\ProjSrc\SrcDrfn\Chart\ExControl\ExGridCtrl.cpp
;	COMDAT ?SelectRows@CExGridCtrl@@IAEXVCCellID@@HH@Z
_TEXT	SEGMENT
_currentCell$ = 8					; size = 8
_bForceRedraw$ = 16					; size = 4
_bSelectCells$ = 20					; size = 4
?SelectRows@CExGridCtrl@@IAEXVCCellID@@HH@Z PROC	; CExGridCtrl::SelectRows, COMDAT
; _this$ = ecx

; 909  : {

  00000	55		 push	 ebp
  00001	8b ec		 mov	 ebp, esp

; 910  : 	m_pLoader->SelectRows(currentCell, bForceRedraw , bSelectCells);

  00003	8b 81 80 00 00
	00		 mov	 eax, DWORD PTR [ecx+128]
; File D:\git\src\IBK\IBK_DRFN\ProjSrc\SrcDrfn\Chart\ExControl\Include\GirdLoadHelper.h

; 3289 : 		if(!m_hLib)

  00009	83 78 04 00	 cmp	 DWORD PTR [eax+4], 0
  0000d	74 1a		 je	 SHORT $LN3@SelectRows

; 3290 : 			return;
; 3291 : 
; 3292 : 		pSelectRows(m_lpPointer, currentCell, bForceRedraw, bSelectCells);

  0000f	ff 75 14	 push	 DWORD PTR _bSelectCells$[ebp]
  00012	ff 75 10	 push	 DWORD PTR _bForceRedraw$[ebp]
  00015	ff 75 0c	 push	 DWORD PTR _currentCell$[ebp+4]
  00018	ff 75 08	 push	 DWORD PTR _currentCell$[ebp]
  0001b	ff b0 0c 01 00
	00		 push	 DWORD PTR [eax+268]
  00021	8b 80 0c 05 00
	00		 mov	 eax, DWORD PTR [eax+1292]
  00027	ff d0		 call	 eax
$LN3@SelectRows:
; File D:\git\src\IBK\IBK_DRFN\ProjSrc\SrcDrfn\Chart\ExControl\ExGridCtrl.cpp

; 911  : }

  00029	5d		 pop	 ebp
  0002a	c2 10 00	 ret	 16			; 00000010H
?SelectRows@CExGridCtrl@@IAEXVCCellID@@HH@Z ENDP	; CExGridCtrl::SelectRows
_TEXT	ENDS
; Function compile flags: /Ogtp
; File D:\git\src\IBK\IBK_DRFN\ProjSrc\SrcDrfn\Chart\ExControl\ExGridCtrl.cpp
; File D:\git\src\IBK\IBK_DRFN\ProjSrc\SrcDrfn\Chart\ExControl\Include\GirdLoadHelper.h
; File D:\git\src\IBK\IBK_DRFN\ProjSrc\SrcDrfn\Chart\ExControl\ExGridCtrl.cpp
;	COMDAT ?SelectColumns@CExGridCtrl@@IAEXVCCellID@@HH@Z
_TEXT	SEGMENT
_currentCell$ = 8					; size = 8
_bForceRedraw$ = 16					; size = 4
_bSelectCells$ = 20					; size = 4
?SelectColumns@CExGridCtrl@@IAEXVCCellID@@HH@Z PROC	; CExGridCtrl::SelectColumns, COMDAT
; _this$ = ecx

; 903  : {

  00000	55		 push	 ebp
  00001	8b ec		 mov	 ebp, esp

; 904  : 	m_pLoader->SelectColumns(currentCell, bForceRedraw, bSelectCells);

  00003	8b 81 80 00 00
	00		 mov	 eax, DWORD PTR [ecx+128]
; File D:\git\src\IBK\IBK_DRFN\ProjSrc\SrcDrfn\Chart\ExControl\Include\GirdLoadHelper.h

; 3281 : 		if(!m_hLib)

  00009	83 78 04 00	 cmp	 DWORD PTR [eax+4], 0
  0000d	74 1a		 je	 SHORT $LN3@SelectColu

; 3282 : 			return;
; 3283 : 
; 3284 : 		pSelectColumns(m_lpPointer, currentCell, bForceRedraw, bSelectCells);

  0000f	ff 75 14	 push	 DWORD PTR _bSelectCells$[ebp]
  00012	ff 75 10	 push	 DWORD PTR _bForceRedraw$[ebp]
  00015	ff 75 0c	 push	 DWORD PTR _currentCell$[ebp+4]
  00018	ff 75 08	 push	 DWORD PTR _currentCell$[ebp]
  0001b	ff b0 0c 01 00
	00		 push	 DWORD PTR [eax+268]
  00021	8b 80 08 05 00
	00		 mov	 eax, DWORD PTR [eax+1288]
  00027	ff d0		 call	 eax
$LN3@SelectColu:
; File D:\git\src\IBK\IBK_DRFN\ProjSrc\SrcDrfn\Chart\ExControl\ExGridCtrl.cpp

; 905  : }

  00029	5d		 pop	 ebp
  0002a	c2 10 00	 ret	 16			; 00000010H
?SelectColumns@CExGridCtrl@@IAEXVCCellID@@HH@Z ENDP	; CExGridCtrl::SelectColumns
_TEXT	ENDS
; Function compile flags: /Ogtp
; File D:\git\src\IBK\IBK_DRFN\ProjSrc\SrcDrfn\Chart\ExControl\ExGridCtrl.cpp
; File D:\git\src\IBK\IBK_DRFN\ProjSrc\SrcDrfn\Chart\ExControl\Include\GirdLoadHelper.h
; File D:\git\src\IBK\IBK_DRFN\ProjSrc\SrcDrfn\Chart\ExControl\ExGridCtrl.cpp
;	COMDAT ?SelectAllCells@CExGridCtrl@@IAEXXZ
_TEXT	SEGMENT
?SelectAllCells@CExGridCtrl@@IAEXXZ PROC		; CExGridCtrl::SelectAllCells, COMDAT
; _this$ = ecx

; 898  : 	m_pLoader->SelectAllCells();

  00000	8b 81 80 00 00
	00		 mov	 eax, DWORD PTR [ecx+128]
; File D:\git\src\IBK\IBK_DRFN\ProjSrc\SrcDrfn\Chart\ExControl\Include\GirdLoadHelper.h

; 3273 : 		if(!m_hLib)

  00006	83 78 04 00	 cmp	 DWORD PTR [eax+4], 0
  0000a	74 0e		 je	 SHORT $LN3@SelectAllC

; 3274 : 			return;
; 3275 : 
; 3276 : 		pSelectAllCells(m_lpPointer);

  0000c	ff b0 0c 01 00
	00		 push	 DWORD PTR [eax+268]
  00012	8b 80 04 05 00
	00		 mov	 eax, DWORD PTR [eax+1284]
  00018	ff d0		 call	 eax
$LN3@SelectAllC:
; File D:\git\src\IBK\IBK_DRFN\ProjSrc\SrcDrfn\Chart\ExControl\ExGridCtrl.cpp

; 899  : }

  0001a	c3		 ret	 0
?SelectAllCells@CExGridCtrl@@IAEXXZ ENDP		; CExGridCtrl::SelectAllCells
_TEXT	ENDS
; Function compile flags: /Ogtp
; File D:\git\src\IBK\IBK_DRFN\ProjSrc\SrcDrfn\Chart\ExControl\ExGridCtrl.cpp
; File D:\git\src\IBK\IBK_DRFN\ProjSrc\SrcDrfn\Chart\ExControl\Include\GirdLoadHelper.h
; File D:\git\src\IBK\IBK_DRFN\ProjSrc\SrcDrfn\Chart\ExControl\ExGridCtrl.cpp
;	COMDAT ?DestroyCell@CExGridCtrl@@MAEXHH@Z
_TEXT	SEGMENT
_nRow$ = 8						; size = 4
_nCol$ = 12						; size = 4
?DestroyCell@CExGridCtrl@@MAEXHH@Z PROC			; CExGridCtrl::DestroyCell, COMDAT
; _this$ = ecx

; 1233 : {

  00000	55		 push	 ebp
  00001	8b ec		 mov	 ebp, esp

; 1234 : 	m_pLoader->DestroyCell(nRow, nCol);

  00003	8b 81 80 00 00
	00		 mov	 eax, DWORD PTR [ecx+128]
; File D:\git\src\IBK\IBK_DRFN\ProjSrc\SrcDrfn\Chart\ExControl\Include\GirdLoadHelper.h

; 3265 : 		if(!m_hLib)

  00009	83 78 04 00	 cmp	 DWORD PTR [eax+4], 0
  0000d	74 14		 je	 SHORT $LN3@DestroyCel

; 3266 : 			return;
; 3267 : 
; 3268 : 		pDestroyCell(m_lpPointer, nRow, nCol);

  0000f	ff 75 0c	 push	 DWORD PTR _nCol$[ebp]
  00012	ff 75 08	 push	 DWORD PTR _nRow$[ebp]
  00015	ff b0 0c 01 00
	00		 push	 DWORD PTR [eax+268]
  0001b	8b 80 00 05 00
	00		 mov	 eax, DWORD PTR [eax+1280]
  00021	ff d0		 call	 eax
$LN3@DestroyCel:
; File D:\git\src\IBK\IBK_DRFN\ProjSrc\SrcDrfn\Chart\ExControl\ExGridCtrl.cpp

; 1235 : }

  00023	5d		 pop	 ebp
  00024	c2 08 00	 ret	 8
?DestroyCell@CExGridCtrl@@MAEXHH@Z ENDP			; CExGridCtrl::DestroyCell
_TEXT	ENDS
; Function compile flags: /Ogtp
; File D:\git\src\IBK\IBK_DRFN\ProjSrc\SrcDrfn\Chart\ExControl\ExGridCtrl.cpp
; File D:\git\src\IBK\IBK_DRFN\ProjSrc\SrcDrfn\Chart\ExControl\Include\GirdLoadHelper.h
; File D:\git\src\IBK\IBK_DRFN\ProjSrc\SrcDrfn\Chart\ExControl\ExGridCtrl.cpp
; File D:\git\src\IBK\IBK_DRFN\ProjSrc\SrcDrfn\Chart\ExControl\Include\GirdLoadHelper.h
; File D:\git\src\IBK\IBK_DRFN\ProjSrc\SrcDrfn\Chart\ExControl\ExGridCtrl.cpp
;	COMDAT ?CreateCell@CExGridCtrl@@MAEPAVCGridCellBase@@HH@Z
_TEXT	SEGMENT
_nRow$ = 8						; size = 4
_nCol$ = 12						; size = 4
?CreateCell@CExGridCtrl@@MAEPAVCGridCellBase@@HH@Z PROC	; CExGridCtrl::CreateCell, COMDAT
; _this$ = ecx

; 1227 : {

  00000	55		 push	 ebp
  00001	8b ec		 mov	 ebp, esp

; 1228 : 	return m_pLoader->CreateCell(nRow, nCol);

  00003	8b 81 80 00 00
	00		 mov	 eax, DWORD PTR [ecx+128]
; File D:\git\src\IBK\IBK_DRFN\ProjSrc\SrcDrfn\Chart\ExControl\Include\GirdLoadHelper.h

; 3257 : 		if(!m_hLib)

  00009	83 78 04 00	 cmp	 DWORD PTR [eax+4], 0
  0000d	75 06		 jne	 SHORT $LN4@CreateCell
; File D:\git\src\IBK\IBK_DRFN\ProjSrc\SrcDrfn\Chart\ExControl\ExGridCtrl.cpp

; 1228 : 	return m_pLoader->CreateCell(nRow, nCol);

  0000f	33 c0		 xor	 eax, eax

; 1229 : }

  00011	5d		 pop	 ebp
  00012	c2 08 00	 ret	 8
$LN4@CreateCell:
; File D:\git\src\IBK\IBK_DRFN\ProjSrc\SrcDrfn\Chart\ExControl\Include\GirdLoadHelper.h

; 3260 : 		return pCreateCell(m_lpPointer, nRow, nCol);

  00015	ff 75 0c	 push	 DWORD PTR _nCol$[ebp]
  00018	ff 75 08	 push	 DWORD PTR _nRow$[ebp]
  0001b	ff b0 0c 01 00
	00		 push	 DWORD PTR [eax+268]
  00021	8b 80 fc 04 00
	00		 mov	 eax, DWORD PTR [eax+1276]
  00027	ff d0		 call	 eax
; File D:\git\src\IBK\IBK_DRFN\ProjSrc\SrcDrfn\Chart\ExControl\ExGridCtrl.cpp

; 1229 : }

  00029	5d		 pop	 ebp
  0002a	c2 08 00	 ret	 8
?CreateCell@CExGridCtrl@@MAEPAVCGridCellBase@@HH@Z ENDP	; CExGridCtrl::CreateCell
_TEXT	ENDS
; Function compile flags: /Ogtp
; File D:\git\src\IBK\IBK_DRFN\ProjSrc\SrcDrfn\Chart\ExControl\ExGridCtrl.cpp
; File D:\git\src\IBK\IBK_DRFN\ProjSrc\SrcDrfn\Chart\ExControl\Include\GirdLoadHelper.h
; File D:\git\src\IBK\IBK_DRFN\ProjSrc\SrcDrfn\Chart\ExControl\ExGridCtrl.cpp
;	COMDAT ?OnDraw@CExGridCtrl@@MAEXPAVCDC@@@Z
_TEXT	SEGMENT
_pDC$ = 8						; size = 4
?OnDraw@CExGridCtrl@@MAEXPAVCDC@@@Z PROC		; CExGridCtrl::OnDraw, COMDAT
; _this$ = ecx

; 815  : {

  00000	55		 push	 ebp
  00001	8b ec		 mov	 ebp, esp

; 816  : 	m_pLoader->OnDraw(pDC);

  00003	8b 81 80 00 00
	00		 mov	 eax, DWORD PTR [ecx+128]
; File D:\git\src\IBK\IBK_DRFN\ProjSrc\SrcDrfn\Chart\ExControl\Include\GirdLoadHelper.h

; 3249 : 		if(!m_hLib)

  00009	83 78 04 00	 cmp	 DWORD PTR [eax+4], 0
  0000d	74 11		 je	 SHORT $LN3@OnDraw

; 3250 : 			return;
; 3251 : 
; 3252 : 		pOnDraw(m_lpPointer, pDC);

  0000f	ff 75 08	 push	 DWORD PTR _pDC$[ebp]
  00012	ff b0 0c 01 00
	00		 push	 DWORD PTR [eax+268]
  00018	8b 80 f8 04 00
	00		 mov	 eax, DWORD PTR [eax+1272]
  0001e	ff d0		 call	 eax
$LN3@OnDraw:
; File D:\git\src\IBK\IBK_DRFN\ProjSrc\SrcDrfn\Chart\ExControl\ExGridCtrl.cpp

; 817  : }

  00020	5d		 pop	 ebp
  00021	c2 04 00	 ret	 4
?OnDraw@CExGridCtrl@@MAEXPAVCDC@@@Z ENDP		; CExGridCtrl::OnDraw
_TEXT	ENDS
; Function compile flags: /Ogtp
; File D:\git\src\IBK\IBK_DRFN\ProjSrc\SrcDrfn\Chart\ExControl\ExGridCtrl.cpp
; File D:\git\src\IBK\IBK_DRFN\ProjSrc\SrcDrfn\Chart\ExControl\Include\GirdLoadHelper.h
; File D:\git\src\IBK\IBK_DRFN\ProjSrc\SrcDrfn\Chart\ExControl\ExGridCtrl.cpp
;	COMDAT ?EndEditing@CExGridCtrl@@MAEXXZ
_TEXT	SEGMENT
?EndEditing@CExGridCtrl@@MAEXXZ PROC			; CExGridCtrl::EndEditing, COMDAT
; _this$ = ecx

; 1710 : 	m_pLoader->EndEditing();

  00000	8b 81 80 00 00
	00		 mov	 eax, DWORD PTR [ecx+128]
; File D:\git\src\IBK\IBK_DRFN\ProjSrc\SrcDrfn\Chart\ExControl\Include\GirdLoadHelper.h

; 3241 : 		if(!m_hLib)

  00006	83 78 04 00	 cmp	 DWORD PTR [eax+4], 0
  0000a	74 0e		 je	 SHORT $LN3@EndEditing

; 3242 : 			return;
; 3243 : 
; 3244 : 		pEndEditing(m_lpPointer);

  0000c	ff b0 0c 01 00
	00		 push	 DWORD PTR [eax+268]
  00012	8b 80 f4 04 00
	00		 mov	 eax, DWORD PTR [eax+1268]
  00018	ff d0		 call	 eax
$LN3@EndEditing:
; File D:\git\src\IBK\IBK_DRFN\ProjSrc\SrcDrfn\Chart\ExControl\ExGridCtrl.cpp

; 1711 : }

  0001a	c3		 ret	 0
?EndEditing@CExGridCtrl@@MAEXXZ ENDP			; CExGridCtrl::EndEditing
_TEXT	ENDS
; Function compile flags: /Ogtp
; File D:\git\src\IBK\IBK_DRFN\ProjSrc\SrcDrfn\Chart\ExControl\ExGridCtrl.cpp
; File D:\git\src\IBK\IBK_DRFN\ProjSrc\SrcDrfn\Chart\ExControl\Include\GirdLoadHelper.h
; File D:\git\src\IBK\IBK_DRFN\ProjSrc\SrcDrfn\Chart\ExControl\ExGridCtrl.cpp
; File D:\git\src\IBK\IBK_DRFN\ProjSrc\SrcDrfn\Chart\ExControl\Include\GirdLoadHelper.h
; File D:\git\src\IBK\IBK_DRFN\ProjSrc\SrcDrfn\Chart\ExControl\ExGridCtrl.cpp
;	COMDAT ?ValidateEdit@CExGridCtrl@@MAEHHHPBD@Z
_TEXT	SEGMENT
_nRow$ = 8						; size = 4
_nCol$ = 12						; size = 4
_str$ = 16						; size = 4
?ValidateEdit@CExGridCtrl@@MAEHHHPBD@Z PROC		; CExGridCtrl::ValidateEdit, COMDAT
; _this$ = ecx

; 1722 : {

  00000	55		 push	 ebp
  00001	8b ec		 mov	 ebp, esp

; 1723 : 	return m_pLoader->ValidateEdit(nRow, nCol, str);

  00003	8b 81 80 00 00
	00		 mov	 eax, DWORD PTR [ecx+128]
; File D:\git\src\IBK\IBK_DRFN\ProjSrc\SrcDrfn\Chart\ExControl\Include\GirdLoadHelper.h

; 3233 : 		if(!m_hLib)

  00009	83 78 04 00	 cmp	 DWORD PTR [eax+4], 0
  0000d	75 06		 jne	 SHORT $LN4@ValidateEd
; File D:\git\src\IBK\IBK_DRFN\ProjSrc\SrcDrfn\Chart\ExControl\ExGridCtrl.cpp

; 1723 : 	return m_pLoader->ValidateEdit(nRow, nCol, str);

  0000f	33 c0		 xor	 eax, eax

; 1724 : }

  00011	5d		 pop	 ebp
  00012	c2 0c 00	 ret	 12			; 0000000cH
$LN4@ValidateEd:
; File D:\git\src\IBK\IBK_DRFN\ProjSrc\SrcDrfn\Chart\ExControl\Include\GirdLoadHelper.h

; 3236 : 		return pValidateEdit(m_lpPointer, nRow, nCol, str);

  00015	ff 75 10	 push	 DWORD PTR _str$[ebp]
  00018	ff 75 0c	 push	 DWORD PTR _nCol$[ebp]
  0001b	ff 75 08	 push	 DWORD PTR _nRow$[ebp]
  0001e	ff b0 0c 01 00
	00		 push	 DWORD PTR [eax+268]
  00024	8b 80 f0 04 00
	00		 mov	 eax, DWORD PTR [eax+1264]
  0002a	ff d0		 call	 eax
; File D:\git\src\IBK\IBK_DRFN\ProjSrc\SrcDrfn\Chart\ExControl\ExGridCtrl.cpp

; 1724 : }

  0002c	5d		 pop	 ebp
  0002d	c2 0c 00	 ret	 12			; 0000000cH
?ValidateEdit@CExGridCtrl@@MAEHHHPBD@Z ENDP		; CExGridCtrl::ValidateEdit
_TEXT	ENDS
; Function compile flags: /Ogtp
; File D:\git\src\IBK\IBK_DRFN\ProjSrc\SrcDrfn\Chart\ExControl\ExGridCtrl.cpp
; File D:\git\src\IBK\IBK_DRFN\ProjSrc\SrcDrfn\Chart\ExControl\Include\GirdLoadHelper.h
; File D:\git\src\IBK\IBK_DRFN\ProjSrc\SrcDrfn\Chart\ExControl\ExGridCtrl.cpp
;	COMDAT ?OnEndEditCell@CExGridCtrl@@MAEXHHV?$CStringT@DV?$StrTraitMFC_DLL@DV?$ChTraitsCRT@D@ATL@@@@@ATL@@@Z
_TEXT	SEGMENT
$T2 = -16						; size = 4
__$EHRec$ = -12						; size = 12
_nRow$ = 8						; size = 4
_nCol$ = 12						; size = 4
_str$ = 16						; size = 4
?OnEndEditCell@CExGridCtrl@@MAEXHHV?$CStringT@DV?$StrTraitMFC_DLL@DV?$ChTraitsCRT@D@ATL@@@@@ATL@@@Z PROC ; CExGridCtrl::OnEndEditCell, COMDAT
; _this$ = ecx

; 1715 : {

  00000	55		 push	 ebp
  00001	8b ec		 mov	 ebp, esp
  00003	6a ff		 push	 -1
  00005	68 00 00 00 00	 push	 __ehhandler$?OnEndEditCell@CExGridCtrl@@MAEXHHV?$CStringT@DV?$StrTraitMFC_DLL@DV?$ChTraitsCRT@D@ATL@@@@@ATL@@@Z
  0000a	64 a1 00 00 00
	00		 mov	 eax, DWORD PTR fs:0
  00010	50		 push	 eax
  00011	83 ec 08	 sub	 esp, 8
  00014	56		 push	 esi
  00015	a1 00 00 00 00	 mov	 eax, DWORD PTR ___security_cookie
  0001a	33 c5		 xor	 eax, ebp
  0001c	50		 push	 eax
  0001d	8d 45 f4	 lea	 eax, DWORD PTR __$EHRec$[ebp]
  00020	64 a3 00 00 00
	00		 mov	 DWORD PTR fs:0, eax
  00026	8b f1		 mov	 esi, ecx

; 1716 : 	m_pLoader->OnEndEditCell(nRow, nCol, str);

  00028	8d 45 10	 lea	 eax, DWORD PTR _str$[ebp]
  0002b	c7 45 fc 00 00
	00 00		 mov	 DWORD PTR __$EHRec$[ebp+8], 0
  00032	50		 push	 eax
  00033	8d 4d f0	 lea	 ecx, DWORD PTR $T2[ebp]
  00036	ff 15 00 00 00
	00		 call	 DWORD PTR __imp_??0?$CStringT@DV?$StrTraitMFC_DLL@DV?$ChTraitsCRT@D@ATL@@@@@ATL@@QAE@ABV01@@Z
  0003c	8b b6 80 00 00
	00		 mov	 esi, DWORD PTR [esi+128]
; File D:\git\src\IBK\IBK_DRFN\ProjSrc\SrcDrfn\Chart\ExControl\Include\GirdLoadHelper.h

; 3225 : 		if(!m_hLib)

  00042	83 7e 04 00	 cmp	 DWORD PTR [esi+4], 0
  00046	c6 45 fc 01	 mov	 BYTE PTR __$EHRec$[ebp+8], 1
  0004a	74 21		 je	 SHORT $LN11@OnEndEditC

; 3226 : 			return;
; 3227 : 
; 3228 : 		pOnEndEditCell(m_lpPointer, nRow, nCol, str);

  0004c	51		 push	 ecx
  0004d	8d 45 f0	 lea	 eax, DWORD PTR $T2[ebp]
  00050	8b cc		 mov	 ecx, esp
  00052	50		 push	 eax
  00053	ff 15 00 00 00
	00		 call	 DWORD PTR __imp_??0?$CStringT@DV?$StrTraitMFC_DLL@DV?$ChTraitsCRT@D@ATL@@@@@ATL@@QAE@ABV01@@Z
  00059	ff 75 0c	 push	 DWORD PTR _nCol$[ebp]
  0005c	8b 86 ec 04 00
	00		 mov	 eax, DWORD PTR [esi+1260]
  00062	ff 75 08	 push	 DWORD PTR _nRow$[ebp]
  00065	ff b6 0c 01 00
	00		 push	 DWORD PTR [esi+268]
  0006b	ff d0		 call	 eax
$LN11@OnEndEditC:
; File D:\git\src\IBK\IBK_DRFN\ProjSrc\SrcDrfn\Chart\ExControl\ExGridCtrl.cpp

; 1717 : }

  0006d	8d 4d f0	 lea	 ecx, DWORD PTR $T2[ebp]
  00070	ff 15 00 00 00
	00		 call	 DWORD PTR __imp_??1?$CStringT@DV?$StrTraitMFC_DLL@DV?$ChTraitsCRT@D@ATL@@@@@ATL@@QAE@XZ
  00076	8d 4d 10	 lea	 ecx, DWORD PTR _str$[ebp]
  00079	ff 15 00 00 00
	00		 call	 DWORD PTR __imp_??1?$CStringT@DV?$StrTraitMFC_DLL@DV?$ChTraitsCRT@D@ATL@@@@@ATL@@QAE@XZ
  0007f	8b 4d f4	 mov	 ecx, DWORD PTR __$EHRec$[ebp]
  00082	64 89 0d 00 00
	00 00		 mov	 DWORD PTR fs:0, ecx
  00089	59		 pop	 ecx
  0008a	5e		 pop	 esi
  0008b	8b e5		 mov	 esp, ebp
  0008d	5d		 pop	 ebp
  0008e	c2 0c 00	 ret	 12			; 0000000cH
_TEXT	ENDS
;	COMDAT text$x
text$x	SEGMENT
__unwindfunclet$?OnEndEditCell@CExGridCtrl@@MAEXHHV?$CStringT@DV?$StrTraitMFC_DLL@DV?$ChTraitsCRT@D@ATL@@@@@ATL@@@Z$0:
  00000	8d 4d 10	 lea	 ecx, DWORD PTR _str$[ebp]
  00003	ff 25 00 00 00
	00		 jmp	 DWORD PTR __imp_??1?$CStringT@DV?$StrTraitMFC_DLL@DV?$ChTraitsCRT@D@ATL@@@@@ATL@@QAE@XZ
__unwindfunclet$?OnEndEditCell@CExGridCtrl@@MAEXHHV?$CStringT@DV?$StrTraitMFC_DLL@DV?$ChTraitsCRT@D@ATL@@@@@ATL@@@Z$2:
  00009	8d 4d f0	 lea	 ecx, DWORD PTR $T2[ebp]
  0000c	ff 25 00 00 00
	00		 jmp	 DWORD PTR __imp_??1?$CStringT@DV?$StrTraitMFC_DLL@DV?$ChTraitsCRT@D@ATL@@@@@ATL@@QAE@XZ
  00012	cc		 int	 3
  00013	cc		 int	 3
  00014	cc		 int	 3
  00015	cc		 int	 3
  00016	cc		 int	 3
__ehhandler$?OnEndEditCell@CExGridCtrl@@MAEXHHV?$CStringT@DV?$StrTraitMFC_DLL@DV?$ChTraitsCRT@D@ATL@@@@@ATL@@@Z:
  00017	90		 npad	 1
  00018	90		 npad	 1
  00019	8b 54 24 08	 mov	 edx, DWORD PTR [esp+8]
  0001d	8d 42 0c	 lea	 eax, DWORD PTR [edx+12]
  00020	8b 4a f0	 mov	 ecx, DWORD PTR [edx-16]
  00023	33 c8		 xor	 ecx, eax
  00025	e8 00 00 00 00	 call	 @__security_check_cookie@4
  0002a	b8 00 00 00 00	 mov	 eax, OFFSET __ehfuncinfo$?OnEndEditCell@CExGridCtrl@@MAEXHHV?$CStringT@DV?$StrTraitMFC_DLL@DV?$ChTraitsCRT@D@ATL@@@@@ATL@@@Z
  0002f	e9 00 00 00 00	 jmp	 ___CxxFrameHandler3
text$x	ENDS
?OnEndEditCell@CExGridCtrl@@MAEXHHV?$CStringT@DV?$StrTraitMFC_DLL@DV?$ChTraitsCRT@D@ATL@@@@@ATL@@@Z ENDP ; CExGridCtrl::OnEndEditCell
; Function compile flags: /Ogtp
; File D:\git\src\IBK\IBK_DRFN\ProjSrc\SrcDrfn\Chart\ExControl\ExGridCtrl.cpp
; File D:\git\src\IBK\IBK_DRFN\ProjSrc\SrcDrfn\Chart\ExControl\Include\GirdLoadHelper.h
; File D:\git\src\IBK\IBK_DRFN\ProjSrc\SrcDrfn\Chart\ExControl\ExGridCtrl.cpp
;	COMDAT ?OnEditCell@CExGridCtrl@@MAEXHHVCPoint@@I@Z
_TEXT	SEGMENT
_nRow$ = 8						; size = 4
_nCol$ = 12						; size = 4
_point$ = 16						; size = 8
_nChar$ = 24						; size = 4
?OnEditCell@CExGridCtrl@@MAEXHHVCPoint@@I@Z PROC	; CExGridCtrl::OnEditCell, COMDAT
; _this$ = ecx

; 1703 : {

  00000	55		 push	 ebp
  00001	8b ec		 mov	 ebp, esp

; 1704 : 	m_pLoader->OnEditCell(nRow, nCol, point, nChar);

  00003	8b 81 80 00 00
	00		 mov	 eax, DWORD PTR [ecx+128]
; File D:\git\src\IBK\IBK_DRFN\ProjSrc\SrcDrfn\Chart\ExControl\Include\GirdLoadHelper.h

; 3217 : 		if(!m_hLib)

  00009	83 78 04 00	 cmp	 DWORD PTR [eax+4], 0
  0000d	74 1d		 je	 SHORT $LN3@OnEditCell

; 3218 : 			return;
; 3219 : 
; 3220 : 		pOnEditCell(m_lpPointer, nRow, nCol, point, nChar);

  0000f	ff 75 18	 push	 DWORD PTR _nChar$[ebp]
  00012	ff 75 14	 push	 DWORD PTR _point$[ebp+4]
  00015	ff 75 10	 push	 DWORD PTR _point$[ebp]
  00018	ff 75 0c	 push	 DWORD PTR _nCol$[ebp]
  0001b	ff 75 08	 push	 DWORD PTR _nRow$[ebp]
  0001e	ff b0 0c 01 00
	00		 push	 DWORD PTR [eax+268]
  00024	8b 80 e8 04 00
	00		 mov	 eax, DWORD PTR [eax+1256]
  0002a	ff d0		 call	 eax
$LN3@OnEditCell:
; File D:\git\src\IBK\IBK_DRFN\ProjSrc\SrcDrfn\Chart\ExControl\ExGridCtrl.cpp

; 1705 : }

  0002c	5d		 pop	 ebp
  0002d	c2 14 00	 ret	 20			; 00000014H
?OnEditCell@CExGridCtrl@@MAEXHHVCPoint@@I@Z ENDP	; CExGridCtrl::OnEditCell
_TEXT	ENDS
; Function compile flags: /Ogtp
; File D:\git\src\IBK\IBK_DRFN\ProjSrc\SrcDrfn\Chart\ExControl\ExGridCtrl.cpp
; File D:\git\src\IBK\IBK_DRFN\ProjSrc\SrcDrfn\Chart\ExControl\Include\GirdLoadHelper.h
; File D:\git\src\IBK\IBK_DRFN\ProjSrc\SrcDrfn\Chart\ExControl\ExGridCtrl.cpp
;	COMDAT ?OnFixedRowClick@CExGridCtrl@@MAEXAAVCCellID@@@Z
_TEXT	SEGMENT
_cell$ = 8						; size = 4
?OnFixedRowClick@CExGridCtrl@@MAEXAAVCCellID@@@Z PROC	; CExGridCtrl::OnFixedRowClick, COMDAT
; _this$ = ecx

; 1685 : {

  00000	55		 push	 ebp
  00001	8b ec		 mov	 ebp, esp

; 1686 : 	m_pLoader->OnFixedRowClick(cell);

  00003	8b 81 80 00 00
	00		 mov	 eax, DWORD PTR [ecx+128]
; File D:\git\src\IBK\IBK_DRFN\ProjSrc\SrcDrfn\Chart\ExControl\Include\GirdLoadHelper.h

; 3209 : 		if(!m_hLib)

  00009	83 78 04 00	 cmp	 DWORD PTR [eax+4], 0
  0000d	74 11		 je	 SHORT $LN3@OnFixedRow

; 3210 : 			return;
; 3211 : 
; 3212 : 		pOnFixedRowClick(m_lpPointer, cell);

  0000f	ff 75 08	 push	 DWORD PTR _cell$[ebp]
  00012	ff b0 0c 01 00
	00		 push	 DWORD PTR [eax+268]
  00018	8b 80 e4 04 00
	00		 mov	 eax, DWORD PTR [eax+1252]
  0001e	ff d0		 call	 eax
$LN3@OnFixedRow:
; File D:\git\src\IBK\IBK_DRFN\ProjSrc\SrcDrfn\Chart\ExControl\ExGridCtrl.cpp

; 1687 : }

  00020	5d		 pop	 ebp
  00021	c2 04 00	 ret	 4
?OnFixedRowClick@CExGridCtrl@@MAEXAAVCCellID@@@Z ENDP	; CExGridCtrl::OnFixedRowClick
_TEXT	ENDS
; Function compile flags: /Ogtp
; File D:\git\src\IBK\IBK_DRFN\ProjSrc\SrcDrfn\Chart\ExControl\ExGridCtrl.cpp
; File D:\git\src\IBK\IBK_DRFN\ProjSrc\SrcDrfn\Chart\ExControl\Include\GirdLoadHelper.h
; File D:\git\src\IBK\IBK_DRFN\ProjSrc\SrcDrfn\Chart\ExControl\ExGridCtrl.cpp
;	COMDAT ?OnFixedColumnClick@CExGridCtrl@@MAEXAAVCCellID@@@Z
_TEXT	SEGMENT
_cell$ = 8						; size = 4
?OnFixedColumnClick@CExGridCtrl@@MAEXAAVCCellID@@@Z PROC ; CExGridCtrl::OnFixedColumnClick, COMDAT
; _this$ = ecx

; 1690 : {

  00000	55		 push	 ebp
  00001	8b ec		 mov	 ebp, esp

; 1691 : 	m_pLoader->OnFixedColumnClick(cell);

  00003	8b 81 80 00 00
	00		 mov	 eax, DWORD PTR [ecx+128]
; File D:\git\src\IBK\IBK_DRFN\ProjSrc\SrcDrfn\Chart\ExControl\Include\GirdLoadHelper.h

; 3201 : 		if(!m_hLib)

  00009	83 78 04 00	 cmp	 DWORD PTR [eax+4], 0
  0000d	74 11		 je	 SHORT $LN3@OnFixedCol

; 3202 : 			return;
; 3203 : 
; 3204 : 		pOnFixedColumnClick(m_lpPointer, cell);

  0000f	ff 75 08	 push	 DWORD PTR _cell$[ebp]
  00012	ff b0 0c 01 00
	00		 push	 DWORD PTR [eax+268]
  00018	8b 80 e0 04 00
	00		 mov	 eax, DWORD PTR [eax+1248]
  0001e	ff d0		 call	 eax
$LN3@OnFixedCol:
; File D:\git\src\IBK\IBK_DRFN\ProjSrc\SrcDrfn\Chart\ExControl\ExGridCtrl.cpp

; 1692 : }

  00020	5d		 pop	 ebp
  00021	c2 04 00	 ret	 4
?OnFixedColumnClick@CExGridCtrl@@MAEXAAVCCellID@@@Z ENDP ; CExGridCtrl::OnFixedColumnClick
_TEXT	ENDS
; Function compile flags: /Ogtp
; File D:\git\src\IBK\IBK_DRFN\ProjSrc\SrcDrfn\Chart\ExControl\ExGridCtrl.cpp
; File D:\git\src\IBK\IBK_DRFN\ProjSrc\SrcDrfn\Chart\ExControl\Include\GirdLoadHelper.h
; File D:\git\src\IBK\IBK_DRFN\ProjSrc\SrcDrfn\Chart\ExControl\ExGridCtrl.cpp
; File D:\git\src\IBK\IBK_DRFN\ProjSrc\SrcDrfn\Chart\ExControl\Include\GirdLoadHelper.h
; File D:\git\src\IBK\IBK_DRFN\ProjSrc\SrcDrfn\Chart\ExControl\ExGridCtrl.cpp
;	COMDAT ?CreateDragImage@CExGridCtrl@@MAEPAVCImageList@@PAVCPoint@@@Z
_TEXT	SEGMENT
_pHotSpot$ = 8						; size = 4
?CreateDragImage@CExGridCtrl@@MAEPAVCImageList@@PAVCPoint@@@Z PROC ; CExGridCtrl::CreateDragImage, COMDAT
; _this$ = ecx

; 1679 : {

  00000	55		 push	 ebp
  00001	8b ec		 mov	 ebp, esp

; 1680 : 	return m_pLoader->CreateDragImage(pHotSpot);

  00003	8b 81 80 00 00
	00		 mov	 eax, DWORD PTR [ecx+128]
; File D:\git\src\IBK\IBK_DRFN\ProjSrc\SrcDrfn\Chart\ExControl\Include\GirdLoadHelper.h

; 3193 : 		if(!m_hLib)

  00009	83 78 04 00	 cmp	 DWORD PTR [eax+4], 0
  0000d	75 06		 jne	 SHORT $LN4@CreateDrag
; File D:\git\src\IBK\IBK_DRFN\ProjSrc\SrcDrfn\Chart\ExControl\ExGridCtrl.cpp

; 1680 : 	return m_pLoader->CreateDragImage(pHotSpot);

  0000f	33 c0		 xor	 eax, eax

; 1681 : }

  00011	5d		 pop	 ebp
  00012	c2 04 00	 ret	 4
$LN4@CreateDrag:
; File D:\git\src\IBK\IBK_DRFN\ProjSrc\SrcDrfn\Chart\ExControl\Include\GirdLoadHelper.h

; 3196 : 		return pCreateDragImage(m_lpPointer, pHotSpot);

  00015	ff 75 08	 push	 DWORD PTR _pHotSpot$[ebp]
  00018	ff b0 0c 01 00
	00		 push	 DWORD PTR [eax+268]
  0001e	8b 80 dc 04 00
	00		 mov	 eax, DWORD PTR [eax+1244]
  00024	ff d0		 call	 eax
; File D:\git\src\IBK\IBK_DRFN\ProjSrc\SrcDrfn\Chart\ExControl\ExGridCtrl.cpp

; 1681 : }

  00026	5d		 pop	 ebp
  00027	c2 04 00	 ret	 4
?CreateDragImage@CExGridCtrl@@MAEPAVCImageList@@PAVCPoint@@@Z ENDP ; CExGridCtrl::CreateDragImage
_TEXT	ENDS
; Function compile flags: /Ogtp
; File D:\git\src\IBK\IBK_DRFN\ProjSrc\SrcDrfn\Chart\ExControl\ExGridCtrl.cpp
; File D:\git\src\IBK\IBK_DRFN\ProjSrc\SrcDrfn\Chart\ExControl\Include\GirdLoadHelper.h
; File D:\git\src\IBK\IBK_DRFN\ProjSrc\SrcDrfn\Chart\ExControl\ExGridCtrl.cpp
; File D:\git\src\IBK\IBK_DRFN\ProjSrc\SrcDrfn\Chart\ExControl\Include\GirdLoadHelper.h
; File D:\git\src\IBK\IBK_DRFN\ProjSrc\SrcDrfn\Chart\ExControl\ExGridCtrl.cpp
;	COMDAT ?WindowProc@CExGridCtrl@@MAEJIIJ@Z
_TEXT	SEGMENT
_message$ = 8						; size = 4
_wParam$ = 12						; size = 4
_lParam$ = 16						; size = 4
?WindowProc@CExGridCtrl@@MAEJIIJ@Z PROC			; CExGridCtrl::WindowProc, COMDAT
; _this$ = ecx

; 672  : {

  00000	55		 push	 ebp
  00001	8b ec		 mov	 ebp, esp

; 673  : 	return m_pLoader->WindowProc(message, wParam, lParam);

  00003	8b 81 80 00 00
	00		 mov	 eax, DWORD PTR [ecx+128]
; File D:\git\src\IBK\IBK_DRFN\ProjSrc\SrcDrfn\Chart\ExControl\Include\GirdLoadHelper.h

; 3185 : 		if(!m_hLib)

  00009	83 78 04 00	 cmp	 DWORD PTR [eax+4], 0
  0000d	75 06		 jne	 SHORT $LN4@WindowProc
; File D:\git\src\IBK\IBK_DRFN\ProjSrc\SrcDrfn\Chart\ExControl\ExGridCtrl.cpp

; 673  : 	return m_pLoader->WindowProc(message, wParam, lParam);

  0000f	33 c0		 xor	 eax, eax

; 674  : }

  00011	5d		 pop	 ebp
  00012	c2 0c 00	 ret	 12			; 0000000cH
$LN4@WindowProc:
; File D:\git\src\IBK\IBK_DRFN\ProjSrc\SrcDrfn\Chart\ExControl\Include\GirdLoadHelper.h

; 3188 : 		return pWindowProc(m_lpPointer, message, wParam, lParam);

  00015	ff 75 10	 push	 DWORD PTR _lParam$[ebp]
  00018	ff 75 0c	 push	 DWORD PTR _wParam$[ebp]
  0001b	ff 75 08	 push	 DWORD PTR _message$[ebp]
  0001e	ff b0 0c 01 00
	00		 push	 DWORD PTR [eax+268]
  00024	8b 80 d8 04 00
	00		 mov	 eax, DWORD PTR [eax+1240]
  0002a	ff d0		 call	 eax
; File D:\git\src\IBK\IBK_DRFN\ProjSrc\SrcDrfn\Chart\ExControl\ExGridCtrl.cpp

; 674  : }

  0002c	5d		 pop	 ebp
  0002d	c2 0c 00	 ret	 12			; 0000000cH
?WindowProc@CExGridCtrl@@MAEJIIJ@Z ENDP			; CExGridCtrl::WindowProc
_TEXT	ENDS
; Function compile flags: /Ogtp
; File D:\git\src\IBK\IBK_DRFN\ProjSrc\SrcDrfn\Chart\ExControl\ExGridCtrl.cpp
; File D:\git\src\IBK\IBK_DRFN\ProjSrc\SrcDrfn\Chart\ExControl\Include\GirdLoadHelper.h
; File D:\git\src\IBK\IBK_DRFN\ProjSrc\SrcDrfn\Chart\ExControl\ExGridCtrl.cpp
;	COMDAT ?PreSubclassWindow@CExGridCtrl@@MAEXXZ
_TEXT	SEGMENT
?PreSubclassWindow@CExGridCtrl@@MAEXXZ PROC		; CExGridCtrl::PreSubclassWindow, COMDAT
; _this$ = ecx

; 667  : 	m_pLoader->PreSubclassWindow();

  00000	8b 81 80 00 00
	00		 mov	 eax, DWORD PTR [ecx+128]
; File D:\git\src\IBK\IBK_DRFN\ProjSrc\SrcDrfn\Chart\ExControl\Include\GirdLoadHelper.h

; 3177 : 		if(!m_hLib)

  00006	83 78 04 00	 cmp	 DWORD PTR [eax+4], 0
  0000a	74 0e		 je	 SHORT $LN3@PreSubclas

; 3178 : 			return;
; 3179 : 
; 3180 : 		pPreSubclassWindow(m_lpPointer);

  0000c	ff b0 0c 01 00
	00		 push	 DWORD PTR [eax+268]
  00012	8b 80 d4 04 00
	00		 mov	 eax, DWORD PTR [eax+1236]
  00018	ff d0		 call	 eax
$LN3@PreSubclas:
; File D:\git\src\IBK\IBK_DRFN\ProjSrc\SrcDrfn\Chart\ExControl\ExGridCtrl.cpp

; 668  : }

  0001a	c3		 ret	 0
?PreSubclassWindow@CExGridCtrl@@MAEXXZ ENDP		; CExGridCtrl::PreSubclassWindow
_TEXT	ENDS
; Function compile flags: /Ogtp
; File D:\git\src\IBK\IBK_DRFN\ProjSrc\SrcDrfn\Chart\ExControl\ExGridCtrl.cpp
; File D:\git\src\IBK\IBK_DRFN\ProjSrc\SrcDrfn\Chart\ExControl\Include\GirdLoadHelper.h
; File D:\git\src\IBK\IBK_DRFN\ProjSrc\SrcDrfn\Chart\ExControl\ExGridCtrl.cpp
;	COMDAT ?ValidateAndModifyCellContents@CExGridCtrl@@IAEXHHPBD@Z
_TEXT	SEGMENT
_nRow$ = 8						; size = 4
_nCol$ = 12						; size = 4
_strText$ = 16						; size = 4
?ValidateAndModifyCellContents@CExGridCtrl@@IAEXHHPBD@Z PROC ; CExGridCtrl::ValidateAndModifyCellContents, COMDAT
; _this$ = ecx

; 926  : {

  00000	55		 push	 ebp
  00001	8b ec		 mov	 ebp, esp

; 927  : 	m_pLoader->ValidateAndModifyCellContents(nRow, nCol, strText);

  00003	8b 81 80 00 00
	00		 mov	 eax, DWORD PTR [ecx+128]
; File D:\git\src\IBK\IBK_DRFN\ProjSrc\SrcDrfn\Chart\ExControl\Include\GirdLoadHelper.h

; 3169 : 		if(!m_hLib)

  00009	83 78 04 00	 cmp	 DWORD PTR [eax+4], 0
  0000d	74 17		 je	 SHORT $LN3@ValidateAn

; 3170 : 			return;
; 3171 : 
; 3172 : 		pValidateAndModifyCellContents(m_lpPointer, nRow, nCol, strText);

  0000f	ff 75 10	 push	 DWORD PTR _strText$[ebp]
  00012	ff 75 0c	 push	 DWORD PTR _nCol$[ebp]
  00015	ff 75 08	 push	 DWORD PTR _nRow$[ebp]
  00018	ff b0 0c 01 00
	00		 push	 DWORD PTR [eax+268]
  0001e	8b 80 d0 04 00
	00		 mov	 eax, DWORD PTR [eax+1232]
  00024	ff d0		 call	 eax
$LN3@ValidateAn:
; File D:\git\src\IBK\IBK_DRFN\ProjSrc\SrcDrfn\Chart\ExControl\ExGridCtrl.cpp

; 928  : }

  00026	5d		 pop	 ebp
  00027	c2 0c 00	 ret	 12			; 0000000cH
?ValidateAndModifyCellContents@CExGridCtrl@@IAEXHHPBD@Z ENDP ; CExGridCtrl::ValidateAndModifyCellContents
_TEXT	ENDS
; Function compile flags: /Ogtp
; File D:\git\src\IBK\IBK_DRFN\ProjSrc\SrcDrfn\Chart\ExControl\ExGridCtrl.cpp
; File D:\git\src\IBK\IBK_DRFN\ProjSrc\SrcDrfn\Chart\ExControl\Include\GirdLoadHelper.h
; File C:\Program Files (x86)\Microsoft Visual Studio\2019\Community\VC\Tools\MSVC\14.29.30133\atlmfc\include\atltypes.h
; File D:\git\src\IBK\IBK_DRFN\ProjSrc\SrcDrfn\Chart\ExControl\ExGridCtrl.cpp
; File D:\git\src\IBK\IBK_DRFN\ProjSrc\SrcDrfn\Chart\ExControl\Include\GirdLoadHelper.h
; File D:\git\src\IBK\IBK_DRFN\ProjSrc\SrcDrfn\Chart\ExControl\ExGridCtrl.cpp
;	COMDAT ?GetPointClicked@CExGridCtrl@@IAE?AVCPoint@@HHAAV2@@Z
_TEXT	SEGMENT
$T1 = -8						; size = 8
___$ReturnUdt$ = 8					; size = 4
_nRow$ = 12						; size = 4
_nCol$ = 16						; size = 4
_point$ = 20						; size = 4
?GetPointClicked@CExGridCtrl@@IAE?AVCPoint@@HHAAV2@@Z PROC ; CExGridCtrl::GetPointClicked, COMDAT
; _this$ = ecx

; 1624 : {

  00000	55		 push	 ebp
  00001	8b ec		 mov	 ebp, esp

; 1625 : 	return m_pLoader->GetPointClicked(nRow, nCol, point);

  00003	8b 81 80 00 00
	00		 mov	 eax, DWORD PTR [ecx+128]
  00009	83 ec 08	 sub	 esp, 8
; File D:\git\src\IBK\IBK_DRFN\ProjSrc\SrcDrfn\Chart\ExControl\Include\GirdLoadHelper.h

; 3161 : 		if(!m_hLib)

  0000c	83 78 04 00	 cmp	 DWORD PTR [eax+4], 0
  00010	75 16		 jne	 SHORT $LN4@GetPointCl
; File C:\Program Files (x86)\Microsoft Visual Studio\2019\Community\VC\Tools\MSVC\14.29.30133\atlmfc\include\atltypes.h

; 424  : 	x = (short)LOWORD(dwPoint);

  00012	8b 45 08	 mov	 eax, DWORD PTR ___$ReturnUdt$[ebp]
  00015	c7 00 00 00 00
	00		 mov	 DWORD PTR [eax], 0

; 425  : 	y = (short)HIWORD(dwPoint);

  0001b	c7 40 04 00 00
	00 00		 mov	 DWORD PTR [eax+4], 0
; File D:\git\src\IBK\IBK_DRFN\ProjSrc\SrcDrfn\Chart\ExControl\ExGridCtrl.cpp

; 1626 : }

  00022	8b e5		 mov	 esp, ebp
  00024	5d		 pop	 ebp
  00025	c2 10 00	 ret	 16			; 00000010H
$LN4@GetPointCl:
; File D:\git\src\IBK\IBK_DRFN\ProjSrc\SrcDrfn\Chart\ExControl\Include\GirdLoadHelper.h

; 3164 : 		return pGetPointClicked(m_lpPointer, nRow, nCol, point);

  00028	ff 75 14	 push	 DWORD PTR _point$[ebp]
  0002b	8d 4d f8	 lea	 ecx, DWORD PTR $T1[ebp]
  0002e	ff 75 10	 push	 DWORD PTR _nCol$[ebp]
  00031	ff 75 0c	 push	 DWORD PTR _nRow$[ebp]
  00034	ff b0 0c 01 00
	00		 push	 DWORD PTR [eax+268]
  0003a	8b 80 cc 04 00
	00		 mov	 eax, DWORD PTR [eax+1228]
  00040	51		 push	 ecx
  00041	ff d0		 call	 eax
  00043	8b 08		 mov	 ecx, DWORD PTR [eax]
  00045	8b 50 04	 mov	 edx, DWORD PTR [eax+4]
  00048	8b 45 08	 mov	 eax, DWORD PTR ___$ReturnUdt$[ebp]
  0004b	89 08		 mov	 DWORD PTR [eax], ecx
  0004d	89 50 04	 mov	 DWORD PTR [eax+4], edx
; File D:\git\src\IBK\IBK_DRFN\ProjSrc\SrcDrfn\Chart\ExControl\ExGridCtrl.cpp

; 1626 : }

  00050	8b e5		 mov	 esp, ebp
  00052	5d		 pop	 ebp
  00053	c2 10 00	 ret	 16			; 00000010H
?GetPointClicked@CExGridCtrl@@IAE?AVCPoint@@HHAAV2@@Z ENDP ; CExGridCtrl::GetPointClicked
_TEXT	ENDS
; Function compile flags: /Ogtp
; File D:\git\src\IBK\IBK_DRFN\ProjSrc\SrcDrfn\Chart\ExControl\ExGridCtrl.cpp
; File D:\git\src\IBK\IBK_DRFN\ProjSrc\SrcDrfn\Chart\ExControl\Include\GirdLoadHelper.h
; File D:\git\src\IBK\IBK_DRFN\ProjSrc\SrcDrfn\Chart\ExControl\ExGridCtrl.cpp
; File D:\git\src\IBK\IBK_DRFN\ProjSrc\SrcDrfn\Chart\ExControl\Include\GirdLoadHelper.h
; File D:\git\src\IBK\IBK_DRFN\ProjSrc\SrcDrfn\Chart\ExControl\ExGridCtrl.cpp
;	COMDAT ?SortItems@CExGridCtrl@@IAEHP6GHJJJ@ZHHJHH@Z
_TEXT	SEGMENT
_pfnCompare$ = 8					; size = 4
_nCol$ = 12						; size = 4
_bAscending$ = 16					; size = 4
_data$ = 20						; size = 4
_low$ = 24						; size = 4
_high$ = 28						; size = 4
?SortItems@CExGridCtrl@@IAEHP6GHJJJ@ZHHJHH@Z PROC	; CExGridCtrl::SortItems, COMDAT
; _this$ = ecx

; 1299 : {

  00000	55		 push	 ebp
  00001	8b ec		 mov	 ebp, esp

; 1300 : 	return m_pLoader->SortItems(pfnCompare, nCol, bAscending, data, low, high);

  00003	8b 81 80 00 00
	00		 mov	 eax, DWORD PTR [ecx+128]
; File D:\git\src\IBK\IBK_DRFN\ProjSrc\SrcDrfn\Chart\ExControl\Include\GirdLoadHelper.h

; 3153 : 		if(!m_hLib)

  00009	83 78 04 00	 cmp	 DWORD PTR [eax+4], 0
  0000d	75 06		 jne	 SHORT $LN4@SortItems
; File D:\git\src\IBK\IBK_DRFN\ProjSrc\SrcDrfn\Chart\ExControl\ExGridCtrl.cpp

; 1300 : 	return m_pLoader->SortItems(pfnCompare, nCol, bAscending, data, low, high);

  0000f	33 c0		 xor	 eax, eax

; 1301 : }

  00011	5d		 pop	 ebp
  00012	c2 18 00	 ret	 24			; 00000018H
$LN4@SortItems:
; File D:\git\src\IBK\IBK_DRFN\ProjSrc\SrcDrfn\Chart\ExControl\Include\GirdLoadHelper.h

; 3156 : 		return pSortItems3(m_lpPointer, pfnCompare, nCol, bAscending, data, low, high);

  00015	ff 75 1c	 push	 DWORD PTR _high$[ebp]
  00018	ff 75 18	 push	 DWORD PTR _low$[ebp]
  0001b	ff 75 14	 push	 DWORD PTR _data$[ebp]
  0001e	ff 75 10	 push	 DWORD PTR _bAscending$[ebp]
  00021	ff 75 0c	 push	 DWORD PTR _nCol$[ebp]
  00024	ff 75 08	 push	 DWORD PTR _pfnCompare$[ebp]
  00027	ff b0 0c 01 00
	00		 push	 DWORD PTR [eax+268]
  0002d	8b 80 c8 04 00
	00		 mov	 eax, DWORD PTR [eax+1224]
  00033	ff d0		 call	 eax
; File D:\git\src\IBK\IBK_DRFN\ProjSrc\SrcDrfn\Chart\ExControl\ExGridCtrl.cpp

; 1301 : }

  00035	5d		 pop	 ebp
  00036	c2 18 00	 ret	 24			; 00000018H
?SortItems@CExGridCtrl@@IAEHP6GHJJJ@ZHHJHH@Z ENDP	; CExGridCtrl::SortItems
_TEXT	ENDS
; Function compile flags: /Ogtp
; File D:\git\src\IBK\IBK_DRFN\ProjSrc\SrcDrfn\Chart\ExControl\ExGridCtrl.cpp
; File D:\git\src\IBK\IBK_DRFN\ProjSrc\SrcDrfn\Chart\ExControl\Include\GirdLoadHelper.h
; File D:\git\src\IBK\IBK_DRFN\ProjSrc\SrcDrfn\Chart\ExControl\ExGridCtrl.cpp
; File D:\git\src\IBK\IBK_DRFN\ProjSrc\SrcDrfn\Chart\ExControl\Include\GirdLoadHelper.h
; File D:\git\src\IBK\IBK_DRFN\ProjSrc\SrcDrfn\Chart\ExControl\ExGridCtrl.cpp
;	COMDAT ?SortTextItems@CExGridCtrl@@IAEHHHHH@Z
_TEXT	SEGMENT
_nCol$ = 8						; size = 4
_bAscending$ = 12					; size = 4
_low$ = 16						; size = 4
_high$ = 20						; size = 4
?SortTextItems@CExGridCtrl@@IAEHHHHH@Z PROC		; CExGridCtrl::SortTextItems, COMDAT
; _this$ = ecx

; 1754 : {

  00000	55		 push	 ebp
  00001	8b ec		 mov	 ebp, esp

; 1755 : 	return m_pLoader->SortTextItems(nCol, bAscending, low, high);

  00003	8b 81 80 00 00
	00		 mov	 eax, DWORD PTR [ecx+128]
; File D:\git\src\IBK\IBK_DRFN\ProjSrc\SrcDrfn\Chart\ExControl\Include\GirdLoadHelper.h

; 3145 : 		if(!m_hLib)

  00009	83 78 04 00	 cmp	 DWORD PTR [eax+4], 0
  0000d	75 06		 jne	 SHORT $LN4@SortTextIt
; File D:\git\src\IBK\IBK_DRFN\ProjSrc\SrcDrfn\Chart\ExControl\ExGridCtrl.cpp

; 1755 : 	return m_pLoader->SortTextItems(nCol, bAscending, low, high);

  0000f	33 c0		 xor	 eax, eax

; 1756 : }

  00011	5d		 pop	 ebp
  00012	c2 10 00	 ret	 16			; 00000010H
$LN4@SortTextIt:
; File D:\git\src\IBK\IBK_DRFN\ProjSrc\SrcDrfn\Chart\ExControl\Include\GirdLoadHelper.h

; 3148 : 		return pSortTextItems3(m_lpPointer, nCol, bAscending, low, high);

  00015	ff 75 14	 push	 DWORD PTR _high$[ebp]
  00018	ff 75 10	 push	 DWORD PTR _low$[ebp]
  0001b	ff 75 0c	 push	 DWORD PTR _bAscending$[ebp]
  0001e	ff 75 08	 push	 DWORD PTR _nCol$[ebp]
  00021	ff b0 0c 01 00
	00		 push	 DWORD PTR [eax+268]
  00027	8b 80 c4 04 00
	00		 mov	 eax, DWORD PTR [eax+1220]
  0002d	ff d0		 call	 eax
; File D:\git\src\IBK\IBK_DRFN\ProjSrc\SrcDrfn\Chart\ExControl\ExGridCtrl.cpp

; 1756 : }

  0002f	5d		 pop	 ebp
  00030	c2 10 00	 ret	 16			; 00000010H
?SortTextItems@CExGridCtrl@@IAEHHHHH@Z ENDP		; CExGridCtrl::SortTextItems
_TEXT	ENDS
; Function compile flags: /Ogtp
; File D:\git\src\IBK\IBK_DRFN\ProjSrc\SrcDrfn\Chart\ExControl\ExGridCtrl.cpp
; File D:\git\src\IBK\IBK_DRFN\ProjSrc\SrcDrfn\Chart\ExControl\Include\GirdLoadHelper.h
; File D:\git\src\IBK\IBK_DRFN\ProjSrc\SrcDrfn\Chart\ExControl\ExGridCtrl.cpp
; File D:\git\src\IBK\IBK_DRFN\ProjSrc\SrcDrfn\Chart\ExControl\Include\GirdLoadHelper.h
; File D:\git\src\IBK\IBK_DRFN\ProjSrc\SrcDrfn\Chart\ExControl\ExGridCtrl.cpp
;	COMDAT ?SetScrollPos32@CExGridCtrl@@IAEHHHH@Z
_TEXT	SEGMENT
_nBar$ = 8						; size = 4
_nPos$ = 12						; size = 4
_bRedraw$ = 16						; size = 4
?SetScrollPos32@CExGridCtrl@@IAEHHHH@Z PROC		; CExGridCtrl::SetScrollPos32, COMDAT
; _this$ = ecx

; 1104 : {

  00000	55		 push	 ebp
  00001	8b ec		 mov	 ebp, esp

; 1105 : 	return m_pLoader->SetScrollPos32(nBar, nPos, bRedraw);

  00003	8b 81 80 00 00
	00		 mov	 eax, DWORD PTR [ecx+128]
; File D:\git\src\IBK\IBK_DRFN\ProjSrc\SrcDrfn\Chart\ExControl\Include\GirdLoadHelper.h

; 3137 : 		if(!m_hLib)

  00009	83 78 04 00	 cmp	 DWORD PTR [eax+4], 0
  0000d	75 06		 jne	 SHORT $LN4@SetScrollP
; File D:\git\src\IBK\IBK_DRFN\ProjSrc\SrcDrfn\Chart\ExControl\ExGridCtrl.cpp

; 1105 : 	return m_pLoader->SetScrollPos32(nBar, nPos, bRedraw);

  0000f	33 c0		 xor	 eax, eax

; 1106 : }

  00011	5d		 pop	 ebp
  00012	c2 0c 00	 ret	 12			; 0000000cH
$LN4@SetScrollP:
; File D:\git\src\IBK\IBK_DRFN\ProjSrc\SrcDrfn\Chart\ExControl\Include\GirdLoadHelper.h

; 3140 : 		return pSetScrollPos32(m_lpPointer, nBar, nPos, bRedraw);

  00015	ff 75 10	 push	 DWORD PTR _bRedraw$[ebp]
  00018	ff 75 0c	 push	 DWORD PTR _nPos$[ebp]
  0001b	ff 75 08	 push	 DWORD PTR _nBar$[ebp]
  0001e	ff b0 0c 01 00
	00		 push	 DWORD PTR [eax+268]
  00024	8b 80 c0 04 00
	00		 mov	 eax, DWORD PTR [eax+1216]
  0002a	ff d0		 call	 eax
; File D:\git\src\IBK\IBK_DRFN\ProjSrc\SrcDrfn\Chart\ExControl\ExGridCtrl.cpp

; 1106 : }

  0002c	5d		 pop	 ebp
  0002d	c2 0c 00	 ret	 12			; 0000000cH
?SetScrollPos32@CExGridCtrl@@IAEHHHH@Z ENDP		; CExGridCtrl::SetScrollPos32
_TEXT	ENDS
; Function compile flags: /Ogtp
; File D:\git\src\IBK\IBK_DRFN\ProjSrc\SrcDrfn\Chart\ExControl\ExGridCtrl.cpp
; File D:\git\src\IBK\IBK_DRFN\ProjSrc\SrcDrfn\Chart\ExControl\Include\GirdLoadHelper.h
; File D:\git\src\IBK\IBK_DRFN\ProjSrc\SrcDrfn\Chart\ExControl\ExGridCtrl.cpp
; File D:\git\src\IBK\IBK_DRFN\ProjSrc\SrcDrfn\Chart\ExControl\Include\GirdLoadHelper.h
; File D:\git\src\IBK\IBK_DRFN\ProjSrc\SrcDrfn\Chart\ExControl\ExGridCtrl.cpp
;	COMDAT ?GetScrollPos32@CExGridCtrl@@IAEHHH@Z
_TEXT	SEGMENT
_nBar$ = 8						; size = 4
_bGetTrackPos$ = 12					; size = 4
?GetScrollPos32@CExGridCtrl@@IAEHHH@Z PROC		; CExGridCtrl::GetScrollPos32, COMDAT
; _this$ = ecx

; 1099 : {

  00000	55		 push	 ebp
  00001	8b ec		 mov	 ebp, esp

; 1100 : 	return m_pLoader->GetScrollPos32(nBar, bGetTrackPos);

  00003	8b 81 80 00 00
	00		 mov	 eax, DWORD PTR [ecx+128]
; File D:\git\src\IBK\IBK_DRFN\ProjSrc\SrcDrfn\Chart\ExControl\Include\GirdLoadHelper.h

; 3129 : 		if(!m_hLib)

  00009	83 78 04 00	 cmp	 DWORD PTR [eax+4], 0
  0000d	75 06		 jne	 SHORT $LN4@GetScrollP
; File D:\git\src\IBK\IBK_DRFN\ProjSrc\SrcDrfn\Chart\ExControl\ExGridCtrl.cpp

; 1100 : 	return m_pLoader->GetScrollPos32(nBar, bGetTrackPos);

  0000f	33 c0		 xor	 eax, eax

; 1101 : }

  00011	5d		 pop	 ebp
  00012	c2 08 00	 ret	 8
$LN4@GetScrollP:
; File D:\git\src\IBK\IBK_DRFN\ProjSrc\SrcDrfn\Chart\ExControl\Include\GirdLoadHelper.h

; 3132 : 		return pGetScrollPos32(m_lpPointer, nBar, bGetTrackPos);

  00015	ff 75 0c	 push	 DWORD PTR _bGetTrackPos$[ebp]
  00018	ff 75 08	 push	 DWORD PTR _nBar$[ebp]
  0001b	ff b0 0c 01 00
	00		 push	 DWORD PTR [eax+268]
  00021	8b 80 bc 04 00
	00		 mov	 eax, DWORD PTR [eax+1212]
  00027	ff d0		 call	 eax
; File D:\git\src\IBK\IBK_DRFN\ProjSrc\SrcDrfn\Chart\ExControl\ExGridCtrl.cpp

; 1101 : }

  00029	5d		 pop	 ebp
  0002a	c2 08 00	 ret	 8
?GetScrollPos32@CExGridCtrl@@IAEHHH@Z ENDP		; CExGridCtrl::GetScrollPos32
_TEXT	ENDS
; Function compile flags: /Ogtp
; File D:\git\src\IBK\IBK_DRFN\ProjSrc\SrcDrfn\Chart\ExControl\ExGridCtrl.cpp
; File D:\git\src\IBK\IBK_DRFN\ProjSrc\SrcDrfn\Chart\ExControl\Include\GirdLoadHelper.h
; File D:\git\src\IBK\IBK_DRFN\ProjSrc\SrcDrfn\Chart\ExControl\ExGridCtrl.cpp
;	COMDAT ?EnableScrollBars@CExGridCtrl@@IAEXHH@Z
_TEXT	SEGMENT
_nBar$ = 8						; size = 4
_bEnable$ = 12						; size = 4
?EnableScrollBars@CExGridCtrl@@IAEXHH@Z PROC		; CExGridCtrl::EnableScrollBars, COMDAT
; _this$ = ecx

; 1109 : {

  00000	55		 push	 ebp
  00001	8b ec		 mov	 ebp, esp

; 1110 : 	m_pLoader->EnableScrollBars(nBar, bEnable);

  00003	8b 81 80 00 00
	00		 mov	 eax, DWORD PTR [ecx+128]
; File D:\git\src\IBK\IBK_DRFN\ProjSrc\SrcDrfn\Chart\ExControl\Include\GirdLoadHelper.h

; 3121 : 		if(!m_hLib)

  00009	83 78 04 00	 cmp	 DWORD PTR [eax+4], 0
  0000d	74 14		 je	 SHORT $LN3@EnableScro

; 3122 : 			return;
; 3123 : 
; 3124 : 		pEnableScrollBars(m_lpPointer, nBar, bEnable);

  0000f	ff 75 0c	 push	 DWORD PTR _bEnable$[ebp]
  00012	ff 75 08	 push	 DWORD PTR _nBar$[ebp]
  00015	ff b0 0c 01 00
	00		 push	 DWORD PTR [eax+268]
  0001b	8b 80 b8 04 00
	00		 mov	 eax, DWORD PTR [eax+1208]
  00021	ff d0		 call	 eax
$LN3@EnableScro:
; File D:\git\src\IBK\IBK_DRFN\ProjSrc\SrcDrfn\Chart\ExControl\ExGridCtrl.cpp

; 1111 : }

  00023	5d		 pop	 ebp
  00024	c2 08 00	 ret	 8
?EnableScrollBars@CExGridCtrl@@IAEXHH@Z ENDP		; CExGridCtrl::EnableScrollBars
_TEXT	ENDS
; Function compile flags: /Ogtp
; File D:\git\src\IBK\IBK_DRFN\ProjSrc\SrcDrfn\Chart\ExControl\ExGridCtrl.cpp
; File D:\git\src\IBK\IBK_DRFN\ProjSrc\SrcDrfn\Chart\ExControl\Include\GirdLoadHelper.h
; File D:\git\src\IBK\IBK_DRFN\ProjSrc\SrcDrfn\Chart\ExControl\ExGridCtrl.cpp
;	COMDAT ?ResetScrollBars@CExGridCtrl@@IAEXXZ
_TEXT	SEGMENT
?ResetScrollBars@CExGridCtrl@@IAEXXZ PROC		; CExGridCtrl::ResetScrollBars, COMDAT
; _this$ = ecx

; 1116 : 	m_pLoader->ResetScrollBars();

  00000	8b 81 80 00 00
	00		 mov	 eax, DWORD PTR [ecx+128]
; File D:\git\src\IBK\IBK_DRFN\ProjSrc\SrcDrfn\Chart\ExControl\Include\GirdLoadHelper.h

; 3113 : 		if(!m_hLib)

  00006	83 78 04 00	 cmp	 DWORD PTR [eax+4], 0
  0000a	74 0e		 je	 SHORT $LN3@ResetScrol

; 3114 : 			return;
; 3115 : 
; 3116 : 		pResetScrollBars(m_lpPointer);

  0000c	ff b0 0c 01 00
	00		 push	 DWORD PTR [eax+268]
  00012	8b 80 b4 04 00
	00		 mov	 eax, DWORD PTR [eax+1204]
  00018	ff d0		 call	 eax
$LN3@ResetScrol:
; File D:\git\src\IBK\IBK_DRFN\ProjSrc\SrcDrfn\Chart\ExControl\ExGridCtrl.cpp

; 1117 : }

  0001a	c3		 ret	 0
?ResetScrollBars@CExGridCtrl@@IAEXXZ ENDP		; CExGridCtrl::ResetScrollBars
_TEXT	ENDS
; Function compile flags: /Ogtp
; File D:\git\src\IBK\IBK_DRFN\ProjSrc\SrcDrfn\Chart\ExControl\ExGridCtrl.cpp
; File D:\git\src\IBK\IBK_DRFN\ProjSrc\SrcDrfn\Chart\ExControl\Include\GirdLoadHelper.h
; File D:\git\src\IBK\IBK_DRFN\ProjSrc\SrcDrfn\Chart\ExControl\ExGridCtrl.cpp
;	COMDAT ?ResetSelectedRange@CExGridCtrl@@IAEXXZ
_TEXT	SEGMENT
?ResetSelectedRange@CExGridCtrl@@IAEXXZ PROC		; CExGridCtrl::ResetSelectedRange, COMDAT
; _this$ = ecx

; 1094 : 	m_pLoader->ResetSelectedRange();

  00000	8b 81 80 00 00
	00		 mov	 eax, DWORD PTR [ecx+128]
; File D:\git\src\IBK\IBK_DRFN\ProjSrc\SrcDrfn\Chart\ExControl\Include\GirdLoadHelper.h

; 3105 : 		if(!m_hLib)

  00006	83 78 04 00	 cmp	 DWORD PTR [eax+4], 0
  0000a	74 0e		 je	 SHORT $LN3@ResetSelec

; 3106 : 			return;
; 3107 : 
; 3108 : 		pResetSelectedRange(m_lpPointer);

  0000c	ff b0 0c 01 00
	00		 push	 DWORD PTR [eax+268]
  00012	8b 80 b0 04 00
	00		 mov	 eax, DWORD PTR [eax+1200]
  00018	ff d0		 call	 eax
$LN3@ResetSelec:
; File D:\git\src\IBK\IBK_DRFN\ProjSrc\SrcDrfn\Chart\ExControl\ExGridCtrl.cpp

; 1095 : }

  0001a	c3		 ret	 0
?ResetSelectedRange@CExGridCtrl@@IAEXXZ ENDP		; CExGridCtrl::ResetSelectedRange
_TEXT	ENDS
; Function compile flags: /Ogtp
; File D:\git\src\IBK\IBK_DRFN\ProjSrc\SrcDrfn\Chart\ExControl\ExGridCtrl.cpp
; File D:\git\src\IBK\IBK_DRFN\ProjSrc\SrcDrfn\Chart\ExControl\Include\GirdLoadHelper.h
; File D:\git\src\IBK\IBK_DRFN\ProjSrc\SrcDrfn\Chart\ExControl\ExGridCtrl.cpp
; File D:\git\src\IBK\IBK_DRFN\ProjSrc\SrcDrfn\Chart\ExControl\Include\GirdLoadHelper.h
; File D:\git\src\IBK\IBK_DRFN\ProjSrc\SrcDrfn\Chart\ExControl\ExGridCtrl.cpp
;	COMDAT ?IsVisibleHScroll@CExGridCtrl@@IAEHXZ
_TEXT	SEGMENT
?IsVisibleHScroll@CExGridCtrl@@IAEHXZ PROC		; CExGridCtrl::IsVisibleHScroll, COMDAT
; _this$ = ecx

; 637  : 	return m_pLoader->IsVisibleHScroll();

  00000	8b 81 80 00 00
	00		 mov	 eax, DWORD PTR [ecx+128]
; File D:\git\src\IBK\IBK_DRFN\ProjSrc\SrcDrfn\Chart\ExControl\Include\GirdLoadHelper.h

; 3097 : 		if(!m_hLib)

  00006	83 78 04 00	 cmp	 DWORD PTR [eax+4], 0
  0000a	75 03		 jne	 SHORT $LN4@IsVisibleH
; File D:\git\src\IBK\IBK_DRFN\ProjSrc\SrcDrfn\Chart\ExControl\ExGridCtrl.cpp

; 637  : 	return m_pLoader->IsVisibleHScroll();

  0000c	33 c0		 xor	 eax, eax

; 638  : }

  0000e	c3		 ret	 0
$LN4@IsVisibleH:
; File D:\git\src\IBK\IBK_DRFN\ProjSrc\SrcDrfn\Chart\ExControl\Include\GirdLoadHelper.h

; 3100 : 		return pIsVisibleHScroll(m_lpPointer);

  0000f	ff b0 0c 01 00
	00		 push	 DWORD PTR [eax+268]
  00015	8b 80 ac 04 00
	00		 mov	 eax, DWORD PTR [eax+1196]
  0001b	ff d0		 call	 eax
; File D:\git\src\IBK\IBK_DRFN\ProjSrc\SrcDrfn\Chart\ExControl\ExGridCtrl.cpp

; 638  : }

  0001d	c3		 ret	 0
?IsVisibleHScroll@CExGridCtrl@@IAEHXZ ENDP		; CExGridCtrl::IsVisibleHScroll
_TEXT	ENDS
; Function compile flags: /Ogtp
; File D:\git\src\IBK\IBK_DRFN\ProjSrc\SrcDrfn\Chart\ExControl\ExGridCtrl.cpp
; File D:\git\src\IBK\IBK_DRFN\ProjSrc\SrcDrfn\Chart\ExControl\Include\GirdLoadHelper.h
; File D:\git\src\IBK\IBK_DRFN\ProjSrc\SrcDrfn\Chart\ExControl\ExGridCtrl.cpp
; File D:\git\src\IBK\IBK_DRFN\ProjSrc\SrcDrfn\Chart\ExControl\Include\GirdLoadHelper.h
; File D:\git\src\IBK\IBK_DRFN\ProjSrc\SrcDrfn\Chart\ExControl\ExGridCtrl.cpp
;	COMDAT ?IsVisibleVScroll@CExGridCtrl@@IAEHXZ
_TEXT	SEGMENT
?IsVisibleVScroll@CExGridCtrl@@IAEHXZ PROC		; CExGridCtrl::IsVisibleVScroll, COMDAT
; _this$ = ecx

; 632  : 	return m_pLoader->IsVisibleVScroll();

  00000	8b 81 80 00 00
	00		 mov	 eax, DWORD PTR [ecx+128]
; File D:\git\src\IBK\IBK_DRFN\ProjSrc\SrcDrfn\Chart\ExControl\Include\GirdLoadHelper.h

; 3089 : 		if(!m_hLib)

  00006	83 78 04 00	 cmp	 DWORD PTR [eax+4], 0
  0000a	75 03		 jne	 SHORT $LN4@IsVisibleV
; File D:\git\src\IBK\IBK_DRFN\ProjSrc\SrcDrfn\Chart\ExControl\ExGridCtrl.cpp

; 632  : 	return m_pLoader->IsVisibleVScroll();

  0000c	33 c0		 xor	 eax, eax

; 633  : } 

  0000e	c3		 ret	 0
$LN4@IsVisibleV:
; File D:\git\src\IBK\IBK_DRFN\ProjSrc\SrcDrfn\Chart\ExControl\Include\GirdLoadHelper.h

; 3092 : 		return pIsVisibleVScroll(m_lpPointer);

  0000f	ff b0 0c 01 00
	00		 push	 DWORD PTR [eax+268]
  00015	8b 80 a8 04 00
	00		 mov	 eax, DWORD PTR [eax+1192]
  0001b	ff d0		 call	 eax
; File D:\git\src\IBK\IBK_DRFN\ProjSrc\SrcDrfn\Chart\ExControl\ExGridCtrl.cpp

; 633  : } 

  0001d	c3		 ret	 0
?IsVisibleVScroll@CExGridCtrl@@IAEHXZ ENDP		; CExGridCtrl::IsVisibleVScroll
_TEXT	ENDS
; Function compile flags: /Ogtp
; File D:\git\src\IBK\IBK_DRFN\ProjSrc\SrcDrfn\Chart\ExControl\ExGridCtrl.cpp
; File D:\git\src\IBK\IBK_DRFN\ProjSrc\SrcDrfn\Chart\ExControl\Include\GirdLoadHelper.h
; File D:\git\src\IBK\IBK_DRFN\ProjSrc\SrcDrfn\Inc\_COMMON\CellRange.h
; File D:\git\src\IBK\IBK_DRFN\ProjSrc\SrcDrfn\Chart\ExControl\ExGridCtrl.cpp
; File D:\git\src\IBK\IBK_DRFN\ProjSrc\SrcDrfn\Chart\ExControl\Include\GirdLoadHelper.h
; File D:\git\src\IBK\IBK_DRFN\ProjSrc\SrcDrfn\Chart\ExControl\ExGridCtrl.cpp
;	COMDAT ?GetVisibleNonFixedCellRange@CExGridCtrl@@IAE?AVCCellRange@@PAUtagRECT@@H@Z
_TEXT	SEGMENT
$T1 = -16						; size = 16
___$ReturnUdt$ = 8					; size = 4
_pRect$ = 12						; size = 4
_bForceRecalculation$ = 16				; size = 4
?GetVisibleNonFixedCellRange@CExGridCtrl@@IAE?AVCCellRange@@PAUtagRECT@@H@Z PROC ; CExGridCtrl::GetVisibleNonFixedCellRange, COMDAT
; _this$ = ecx

; 1070 : {

  00000	55		 push	 ebp
  00001	8b ec		 mov	 ebp, esp

; 1071 : 	return m_pLoader->GetVisibleNonFixedCellRange(pRect, bForceRecalculation);

  00003	8b 81 80 00 00
	00		 mov	 eax, DWORD PTR [ecx+128]
  00009	83 ec 10	 sub	 esp, 16			; 00000010H
; File D:\git\src\IBK\IBK_DRFN\ProjSrc\SrcDrfn\Chart\ExControl\Include\GirdLoadHelper.h

; 3081 : 		if(!m_hLib)

  0000c	83 78 04 00	 cmp	 DWORD PTR [eax+4], 0
  00010	75 24		 jne	 SHORT $LN4@GetVisible
; File D:\git\src\IBK\IBK_DRFN\ProjSrc\SrcDrfn\Inc\_COMMON\CellRange.h

; 99   :      m_nMinRow = minRow;

  00012	8b 45 08	 mov	 eax, DWORD PTR ___$ReturnUdt$[ebp]
  00015	c7 00 ff ff ff
	ff		 mov	 DWORD PTR [eax], -1

; 100  :      m_nMinCol = minCol;

  0001b	c7 40 04 ff ff
	ff ff		 mov	 DWORD PTR [eax+4], -1

; 101  :      m_nMaxRow = maxRow;

  00022	c7 40 08 ff ff
	ff ff		 mov	 DWORD PTR [eax+8], -1

; 102  :      m_nMaxCol = maxCol;

  00029	c7 40 0c ff ff
	ff ff		 mov	 DWORD PTR [eax+12], -1
; File D:\git\src\IBK\IBK_DRFN\ProjSrc\SrcDrfn\Chart\ExControl\ExGridCtrl.cpp

; 1072 : }

  00030	8b e5		 mov	 esp, ebp
  00032	5d		 pop	 ebp
  00033	c2 0c 00	 ret	 12			; 0000000cH
$LN4@GetVisible:
; File D:\git\src\IBK\IBK_DRFN\ProjSrc\SrcDrfn\Chart\ExControl\Include\GirdLoadHelper.h

; 3084 : 		return pGetVisibleNonFixedCellRange(m_lpPointer, pRect, bForceRecalculation);

  00036	ff 75 10	 push	 DWORD PTR _bForceRecalculation$[ebp]
  00039	8d 4d f0	 lea	 ecx, DWORD PTR $T1[ebp]
  0003c	ff 75 0c	 push	 DWORD PTR _pRect$[ebp]
  0003f	ff b0 0c 01 00
	00		 push	 DWORD PTR [eax+268]
  00045	8b 80 a4 04 00
	00		 mov	 eax, DWORD PTR [eax+1188]
  0004b	51		 push	 ecx
  0004c	ff d0		 call	 eax
  0004e	0f 10 00	 movups	 xmm0, XMMWORD PTR [eax]
  00051	8b 45 08	 mov	 eax, DWORD PTR ___$ReturnUdt$[ebp]
  00054	0f 11 00	 movups	 XMMWORD PTR [eax], xmm0
; File D:\git\src\IBK\IBK_DRFN\ProjSrc\SrcDrfn\Chart\ExControl\ExGridCtrl.cpp

; 1072 : }

  00057	8b e5		 mov	 esp, ebp
  00059	5d		 pop	 ebp
  0005a	c2 0c 00	 ret	 12			; 0000000cH
?GetVisibleNonFixedCellRange@CExGridCtrl@@IAE?AVCCellRange@@PAUtagRECT@@H@Z ENDP ; CExGridCtrl::GetVisibleNonFixedCellRange
_TEXT	ENDS
; Function compile flags: /Ogtp
; File D:\git\src\IBK\IBK_DRFN\ProjSrc\SrcDrfn\Chart\ExControl\ExGridCtrl.cpp
; File D:\git\src\IBK\IBK_DRFN\ProjSrc\SrcDrfn\Chart\ExControl\Include\GirdLoadHelper.h
; File D:\git\src\IBK\IBK_DRFN\ProjSrc\SrcDrfn\Inc\_COMMON\CellRange.h
; File D:\git\src\IBK\IBK_DRFN\ProjSrc\SrcDrfn\Chart\ExControl\ExGridCtrl.cpp
; File D:\git\src\IBK\IBK_DRFN\ProjSrc\SrcDrfn\Chart\ExControl\Include\GirdLoadHelper.h
; File D:\git\src\IBK\IBK_DRFN\ProjSrc\SrcDrfn\Chart\ExControl\ExGridCtrl.cpp
;	COMDAT ?GetUnobstructedNonFixedCellRange@CExGridCtrl@@IAE?AVCCellRange@@H@Z
_TEXT	SEGMENT
$T1 = -16						; size = 16
___$ReturnUdt$ = 8					; size = 4
_bForceRecalculation$ = 12				; size = 4
?GetUnobstructedNonFixedCellRange@CExGridCtrl@@IAE?AVCCellRange@@H@Z PROC ; CExGridCtrl::GetUnobstructedNonFixedCellRange, COMDAT
; _this$ = ecx

; 1076 : {

  00000	55		 push	 ebp
  00001	8b ec		 mov	 ebp, esp

; 1077 : 	return m_pLoader->GetUnobstructedNonFixedCellRange(bForceRecalculation);

  00003	8b 81 80 00 00
	00		 mov	 eax, DWORD PTR [ecx+128]
  00009	83 ec 10	 sub	 esp, 16			; 00000010H
; File D:\git\src\IBK\IBK_DRFN\ProjSrc\SrcDrfn\Chart\ExControl\Include\GirdLoadHelper.h

; 3073 : 		if(!m_hLib)

  0000c	83 78 04 00	 cmp	 DWORD PTR [eax+4], 0
  00010	75 24		 jne	 SHORT $LN4@GetUnobstr
; File D:\git\src\IBK\IBK_DRFN\ProjSrc\SrcDrfn\Inc\_COMMON\CellRange.h

; 99   :      m_nMinRow = minRow;

  00012	8b 45 08	 mov	 eax, DWORD PTR ___$ReturnUdt$[ebp]
  00015	c7 00 ff ff ff
	ff		 mov	 DWORD PTR [eax], -1

; 100  :      m_nMinCol = minCol;

  0001b	c7 40 04 ff ff
	ff ff		 mov	 DWORD PTR [eax+4], -1

; 101  :      m_nMaxRow = maxRow;

  00022	c7 40 08 ff ff
	ff ff		 mov	 DWORD PTR [eax+8], -1

; 102  :      m_nMaxCol = maxCol;

  00029	c7 40 0c ff ff
	ff ff		 mov	 DWORD PTR [eax+12], -1
; File D:\git\src\IBK\IBK_DRFN\ProjSrc\SrcDrfn\Chart\ExControl\ExGridCtrl.cpp

; 1078 : }

  00030	8b e5		 mov	 esp, ebp
  00032	5d		 pop	 ebp
  00033	c2 08 00	 ret	 8
$LN4@GetUnobstr:
; File D:\git\src\IBK\IBK_DRFN\ProjSrc\SrcDrfn\Chart\ExControl\Include\GirdLoadHelper.h

; 3076 : 		return pGetUnobstructedNonFixedCellRange(m_lpPointer, bForceRecalculation);

  00036	ff 75 0c	 push	 DWORD PTR _bForceRecalculation$[ebp]
  00039	8d 4d f0	 lea	 ecx, DWORD PTR $T1[ebp]
  0003c	ff b0 0c 01 00
	00		 push	 DWORD PTR [eax+268]
  00042	8b 80 a0 04 00
	00		 mov	 eax, DWORD PTR [eax+1184]
  00048	51		 push	 ecx
  00049	ff d0		 call	 eax
  0004b	0f 10 00	 movups	 xmm0, XMMWORD PTR [eax]
  0004e	8b 45 08	 mov	 eax, DWORD PTR ___$ReturnUdt$[ebp]
  00051	0f 11 00	 movups	 XMMWORD PTR [eax], xmm0
; File D:\git\src\IBK\IBK_DRFN\ProjSrc\SrcDrfn\Chart\ExControl\ExGridCtrl.cpp

; 1078 : }

  00054	8b e5		 mov	 esp, ebp
  00056	5d		 pop	 ebp
  00057	c2 08 00	 ret	 8
?GetUnobstructedNonFixedCellRange@CExGridCtrl@@IAE?AVCCellRange@@H@Z ENDP ; CExGridCtrl::GetUnobstructedNonFixedCellRange
_TEXT	ENDS
; Function compile flags: /Ogtp
; File D:\git\src\IBK\IBK_DRFN\ProjSrc\SrcDrfn\Chart\ExControl\ExGridCtrl.cpp
; File D:\git\src\IBK\IBK_DRFN\ProjSrc\SrcDrfn\Chart\ExControl\Include\GirdLoadHelper.h
; File D:\git\src\IBK\IBK_DRFN\ProjSrc\SrcDrfn\Inc\_COMMON\CellRange.h
; File D:\git\src\IBK\IBK_DRFN\ProjSrc\SrcDrfn\Chart\ExControl\ExGridCtrl.cpp
; File D:\git\src\IBK\IBK_DRFN\ProjSrc\SrcDrfn\Chart\ExControl\Include\GirdLoadHelper.h
; File D:\git\src\IBK\IBK_DRFN\ProjSrc\SrcDrfn\Chart\ExControl\ExGridCtrl.cpp
;	COMDAT ?GetTopleftNonFixedCell@CExGridCtrl@@IAE?AVCCellID@@H@Z
_TEXT	SEGMENT
$T1 = -8						; size = 8
___$ReturnUdt$ = 8					; size = 4
_bForceRecalculation$ = 12				; size = 4
?GetTopleftNonFixedCell@CExGridCtrl@@IAE?AVCCellID@@H@Z PROC ; CExGridCtrl::GetTopleftNonFixedCell, COMDAT
; _this$ = ecx

; 1064 : {

  00000	55		 push	 ebp
  00001	8b ec		 mov	 ebp, esp

; 1065 : 	return m_pLoader->GetTopleftNonFixedCell(bForceRecalculation);

  00003	8b 81 80 00 00
	00		 mov	 eax, DWORD PTR [ecx+128]
  00009	83 ec 08	 sub	 esp, 8
; File D:\git\src\IBK\IBK_DRFN\ProjSrc\SrcDrfn\Chart\ExControl\Include\GirdLoadHelper.h

; 3064 : 		if(!m_hLib)

  0000c	83 78 04 00	 cmp	 DWORD PTR [eax+4], 0
  00010	75 16		 jne	 SHORT $LN4@GetTopleft
; File D:\git\src\IBK\IBK_DRFN\ProjSrc\SrcDrfn\Inc\_COMMON\CellRange.h

; 45   :     explicit CCellID(int nRow = -1, int nCol = -1) : row(nRow), col(nCol) {}

  00012	8b 45 08	 mov	 eax, DWORD PTR ___$ReturnUdt$[ebp]
  00015	c7 00 ff ff ff
	ff		 mov	 DWORD PTR [eax], -1
  0001b	c7 40 04 ff ff
	ff ff		 mov	 DWORD PTR [eax+4], -1
; File D:\git\src\IBK\IBK_DRFN\ProjSrc\SrcDrfn\Chart\ExControl\ExGridCtrl.cpp

; 1066 : }

  00022	8b e5		 mov	 esp, ebp
  00024	5d		 pop	 ebp
  00025	c2 08 00	 ret	 8
$LN4@GetTopleft:
; File D:\git\src\IBK\IBK_DRFN\ProjSrc\SrcDrfn\Chart\ExControl\Include\GirdLoadHelper.h

; 3068 : 		return pGetTopleftNonFixedCell(m_lpPointer, bForceRecalculation);

  00028	ff 75 0c	 push	 DWORD PTR _bForceRecalculation$[ebp]
  0002b	8d 4d f8	 lea	 ecx, DWORD PTR $T1[ebp]
  0002e	ff b0 0c 01 00
	00		 push	 DWORD PTR [eax+268]
  00034	8b 80 9c 04 00
	00		 mov	 eax, DWORD PTR [eax+1180]
  0003a	51		 push	 ecx
  0003b	ff d0		 call	 eax
  0003d	8b 08		 mov	 ecx, DWORD PTR [eax]
  0003f	8b 50 04	 mov	 edx, DWORD PTR [eax+4]
  00042	8b 45 08	 mov	 eax, DWORD PTR ___$ReturnUdt$[ebp]
  00045	89 08		 mov	 DWORD PTR [eax], ecx
  00047	89 50 04	 mov	 DWORD PTR [eax+4], edx
; File D:\git\src\IBK\IBK_DRFN\ProjSrc\SrcDrfn\Chart\ExControl\ExGridCtrl.cpp

; 1066 : }

  0004a	8b e5		 mov	 esp, ebp
  0004c	5d		 pop	 ebp
  0004d	c2 08 00	 ret	 8
?GetTopleftNonFixedCell@CExGridCtrl@@IAE?AVCCellID@@H@Z ENDP ; CExGridCtrl::GetTopleftNonFixedCell
_TEXT	ENDS
; Function compile flags: /Ogtp
; File D:\git\src\IBK\IBK_DRFN\ProjSrc\SrcDrfn\Chart\ExControl\ExGridCtrl.cpp
; File D:\git\src\IBK\IBK_DRFN\ProjSrc\SrcDrfn\Chart\ExControl\Include\GirdLoadHelper.h
; File D:\git\src\IBK\IBK_DRFN\ProjSrc\SrcDrfn\Chart\ExControl\ExGridCtrl.cpp
; File D:\git\src\IBK\IBK_DRFN\ProjSrc\SrcDrfn\Chart\ExControl\Include\GirdLoadHelper.h
; File D:\git\src\IBK\IBK_DRFN\ProjSrc\SrcDrfn\Chart\ExControl\ExGridCtrl.cpp
;	COMDAT ?MouseOverColumnResizeArea@CExGridCtrl@@IAEHAAVCPoint@@@Z
_TEXT	SEGMENT
_point$ = 8						; size = 4
?MouseOverColumnResizeArea@CExGridCtrl@@IAEHAAVCPoint@@@Z PROC ; CExGridCtrl::MouseOverColumnResizeArea, COMDAT
; _this$ = ecx

; 1047 : {

  00000	55		 push	 ebp
  00001	8b ec		 mov	 ebp, esp

; 1048 : 	return m_pLoader->MouseOverColumnResizeArea(point);

  00003	8b 81 80 00 00
	00		 mov	 eax, DWORD PTR [ecx+128]
; File D:\git\src\IBK\IBK_DRFN\ProjSrc\SrcDrfn\Chart\ExControl\Include\GirdLoadHelper.h

; 3056 : 		if(!m_hLib)

  00009	83 78 04 00	 cmp	 DWORD PTR [eax+4], 0
  0000d	75 06		 jne	 SHORT $LN4@MouseOverC
; File D:\git\src\IBK\IBK_DRFN\ProjSrc\SrcDrfn\Chart\ExControl\ExGridCtrl.cpp

; 1048 : 	return m_pLoader->MouseOverColumnResizeArea(point);

  0000f	33 c0		 xor	 eax, eax

; 1049 : }

  00011	5d		 pop	 ebp
  00012	c2 04 00	 ret	 4
$LN4@MouseOverC:
; File D:\git\src\IBK\IBK_DRFN\ProjSrc\SrcDrfn\Chart\ExControl\Include\GirdLoadHelper.h

; 3059 : 		return pMouseOverColumnResizeArea(m_lpPointer, point);

  00015	ff 75 08	 push	 DWORD PTR _point$[ebp]
  00018	ff b0 0c 01 00
	00		 push	 DWORD PTR [eax+268]
  0001e	8b 80 98 04 00
	00		 mov	 eax, DWORD PTR [eax+1176]
  00024	ff d0		 call	 eax
; File D:\git\src\IBK\IBK_DRFN\ProjSrc\SrcDrfn\Chart\ExControl\ExGridCtrl.cpp

; 1049 : }

  00026	5d		 pop	 ebp
  00027	c2 04 00	 ret	 4
?MouseOverColumnResizeArea@CExGridCtrl@@IAEHAAVCPoint@@@Z ENDP ; CExGridCtrl::MouseOverColumnResizeArea
_TEXT	ENDS
; Function compile flags: /Ogtp
; File D:\git\src\IBK\IBK_DRFN\ProjSrc\SrcDrfn\Chart\ExControl\ExGridCtrl.cpp
; File D:\git\src\IBK\IBK_DRFN\ProjSrc\SrcDrfn\Chart\ExControl\Include\GirdLoadHelper.h
; File D:\git\src\IBK\IBK_DRFN\ProjSrc\SrcDrfn\Chart\ExControl\ExGridCtrl.cpp
; File D:\git\src\IBK\IBK_DRFN\ProjSrc\SrcDrfn\Chart\ExControl\Include\GirdLoadHelper.h
; File D:\git\src\IBK\IBK_DRFN\ProjSrc\SrcDrfn\Chart\ExControl\ExGridCtrl.cpp
;	COMDAT ?MouseOverRowResizeArea@CExGridCtrl@@IAEHAAVCPoint@@@Z
_TEXT	SEGMENT
_point$ = 8						; size = 4
?MouseOverRowResizeArea@CExGridCtrl@@IAEHAAVCPoint@@@Z PROC ; CExGridCtrl::MouseOverRowResizeArea, COMDAT
; _this$ = ecx

; 1041 : {

  00000	55		 push	 ebp
  00001	8b ec		 mov	 ebp, esp

; 1042 : 	return m_pLoader->MouseOverRowResizeArea(point);

  00003	8b 81 80 00 00
	00		 mov	 eax, DWORD PTR [ecx+128]
; File D:\git\src\IBK\IBK_DRFN\ProjSrc\SrcDrfn\Chart\ExControl\Include\GirdLoadHelper.h

; 3048 : 		if(!m_hLib)

  00009	83 78 04 00	 cmp	 DWORD PTR [eax+4], 0
  0000d	75 06		 jne	 SHORT $LN4@MouseOverR
; File D:\git\src\IBK\IBK_DRFN\ProjSrc\SrcDrfn\Chart\ExControl\ExGridCtrl.cpp

; 1042 : 	return m_pLoader->MouseOverRowResizeArea(point);

  0000f	33 c0		 xor	 eax, eax

; 1043 : }

  00011	5d		 pop	 ebp
  00012	c2 04 00	 ret	 4
$LN4@MouseOverR:
; File D:\git\src\IBK\IBK_DRFN\ProjSrc\SrcDrfn\Chart\ExControl\Include\GirdLoadHelper.h

; 3051 : 		return pMouseOverRowResizeArea(m_lpPointer, point);

  00015	ff 75 08	 push	 DWORD PTR _point$[ebp]
  00018	ff b0 0c 01 00
	00		 push	 DWORD PTR [eax+268]
  0001e	8b 80 94 04 00
	00		 mov	 eax, DWORD PTR [eax+1172]
  00024	ff d0		 call	 eax
; File D:\git\src\IBK\IBK_DRFN\ProjSrc\SrcDrfn\Chart\ExControl\ExGridCtrl.cpp

; 1043 : }

  00026	5d		 pop	 ebp
  00027	c2 04 00	 ret	 4
?MouseOverRowResizeArea@CExGridCtrl@@IAEHAAVCPoint@@@Z ENDP ; CExGridCtrl::MouseOverRowResizeArea
_TEXT	ENDS
; Function compile flags: /Ogtp
; File D:\git\src\IBK\IBK_DRFN\ProjSrc\SrcDrfn\Chart\ExControl\ExGridCtrl.cpp
; File D:\git\src\IBK\IBK_DRFN\ProjSrc\SrcDrfn\Chart\ExControl\Include\GirdLoadHelper.h
; File D:\git\src\IBK\IBK_DRFN\ProjSrc\SrcDrfn\Chart\ExControl\ExGridCtrl.cpp
; File D:\git\src\IBK\IBK_DRFN\ProjSrc\SrcDrfn\Chart\ExControl\Include\GirdLoadHelper.h
; File D:\git\src\IBK\IBK_DRFN\ProjSrc\SrcDrfn\Chart\ExControl\ExGridCtrl.cpp
;	COMDAT ?GetMouseMode@CExGridCtrl@@IAEHXZ
_TEXT	SEGMENT
?GetMouseMode@CExGridCtrl@@IAEHXZ PROC			; CExGridCtrl::GetMouseMode, COMDAT
; _this$ = ecx

; 627  : 	return m_pLoader->GetMouseMode();

  00000	8b 81 80 00 00
	00		 mov	 eax, DWORD PTR [ecx+128]
; File D:\git\src\IBK\IBK_DRFN\ProjSrc\SrcDrfn\Chart\ExControl\Include\GirdLoadHelper.h

; 3040 : 		if(!m_hLib)

  00006	83 78 04 00	 cmp	 DWORD PTR [eax+4], 0
  0000a	75 03		 jne	 SHORT $LN4@GetMouseMo
; File D:\git\src\IBK\IBK_DRFN\ProjSrc\SrcDrfn\Chart\ExControl\ExGridCtrl.cpp

; 627  : 	return m_pLoader->GetMouseMode();

  0000c	33 c0		 xor	 eax, eax

; 628  : }

  0000e	c3		 ret	 0
$LN4@GetMouseMo:
; File D:\git\src\IBK\IBK_DRFN\ProjSrc\SrcDrfn\Chart\ExControl\Include\GirdLoadHelper.h

; 3043 : 		return pGetMouseMode(m_lpPointer);

  0000f	ff b0 0c 01 00
	00		 push	 DWORD PTR [eax+268]
  00015	8b 80 90 04 00
	00		 mov	 eax, DWORD PTR [eax+1168]
  0001b	ff d0		 call	 eax
; File D:\git\src\IBK\IBK_DRFN\ProjSrc\SrcDrfn\Chart\ExControl\ExGridCtrl.cpp

; 628  : }

  0001d	c3		 ret	 0
?GetMouseMode@CExGridCtrl@@IAEHXZ ENDP			; CExGridCtrl::GetMouseMode
_TEXT	ENDS
; Function compile flags: /Ogtp
; File D:\git\src\IBK\IBK_DRFN\ProjSrc\SrcDrfn\Chart\ExControl\ExGridCtrl.cpp
; File D:\git\src\IBK\IBK_DRFN\ProjSrc\SrcDrfn\Chart\ExControl\Include\GirdLoadHelper.h
; File D:\git\src\IBK\IBK_DRFN\ProjSrc\SrcDrfn\Chart\ExControl\ExGridCtrl.cpp
; File D:\git\src\IBK\IBK_DRFN\ProjSrc\SrcDrfn\Chart\ExControl\Include\GirdLoadHelper.h
; File D:\git\src\IBK\IBK_DRFN\ProjSrc\SrcDrfn\Chart\ExControl\ExGridCtrl.cpp
;	COMDAT ?SetMouseMode@CExGridCtrl@@IAEHH@Z
_TEXT	SEGMENT
_nMode$ = 8						; size = 4
?SetMouseMode@CExGridCtrl@@IAEHH@Z PROC			; CExGridCtrl::SetMouseMode, COMDAT
; _this$ = ecx

; 621  : {

  00000	55		 push	 ebp
  00001	8b ec		 mov	 ebp, esp

; 622  : 	return m_pLoader->SetMouseMode(nMode);

  00003	8b 81 80 00 00
	00		 mov	 eax, DWORD PTR [ecx+128]
; File D:\git\src\IBK\IBK_DRFN\ProjSrc\SrcDrfn\Chart\ExControl\Include\GirdLoadHelper.h

; 3032 : 		if(!m_hLib)

  00009	83 78 04 00	 cmp	 DWORD PTR [eax+4], 0
  0000d	75 06		 jne	 SHORT $LN4@SetMouseMo
; File D:\git\src\IBK\IBK_DRFN\ProjSrc\SrcDrfn\Chart\ExControl\ExGridCtrl.cpp

; 622  : 	return m_pLoader->SetMouseMode(nMode);

  0000f	33 c0		 xor	 eax, eax

; 623  : }

  00011	5d		 pop	 ebp
  00012	c2 04 00	 ret	 4
$LN4@SetMouseMo:
; File D:\git\src\IBK\IBK_DRFN\ProjSrc\SrcDrfn\Chart\ExControl\Include\GirdLoadHelper.h

; 3035 : 		return pSetMouseMode(m_lpPointer, nMode);

  00015	ff 75 08	 push	 DWORD PTR _nMode$[ebp]
  00018	ff b0 0c 01 00
	00		 push	 DWORD PTR [eax+268]
  0001e	8b 80 8c 04 00
	00		 mov	 eax, DWORD PTR [eax+1164]
  00024	ff d0		 call	 eax
; File D:\git\src\IBK\IBK_DRFN\ProjSrc\SrcDrfn\Chart\ExControl\ExGridCtrl.cpp

; 623  : }

  00026	5d		 pop	 ebp
  00027	c2 04 00	 ret	 4
?SetMouseMode@CExGridCtrl@@IAEHH@Z ENDP			; CExGridCtrl::SetMouseMode
_TEXT	ENDS
; Function compile flags: /Ogtp
; File D:\git\src\IBK\IBK_DRFN\ProjSrc\SrcDrfn\Chart\ExControl\ExGridCtrl.cpp
; File D:\git\src\IBK\IBK_DRFN\ProjSrc\SrcDrfn\Chart\ExControl\Include\GirdLoadHelper.h
; File D:\git\src\IBK\IBK_DRFN\ProjSrc\SrcDrfn\Chart\ExControl\ExGridCtrl.cpp
; File D:\git\src\IBK\IBK_DRFN\ProjSrc\SrcDrfn\Chart\ExControl\Include\GirdLoadHelper.h
; File D:\git\src\IBK\IBK_DRFN\ProjSrc\SrcDrfn\Chart\ExControl\ExGridCtrl.cpp
;	COMDAT ?SetCell@CExGridCtrl@@IAEHHHPAVCGridCellBase@@@Z
_TEXT	SEGMENT
_nRow$ = 8						; size = 4
_nCol$ = 12						; size = 4
_pCell$ = 16						; size = 4
?SetCell@CExGridCtrl@@IAEHHHPAVCGridCellBase@@@Z PROC	; CExGridCtrl::SetCell, COMDAT
; _this$ = ecx

; 1743 : {

  00000	55		 push	 ebp
  00001	8b ec		 mov	 ebp, esp

; 1744 : 	return m_pLoader->SetCell(nRow, nCol, pCell);

  00003	8b 81 80 00 00
	00		 mov	 eax, DWORD PTR [ecx+128]
; File D:\git\src\IBK\IBK_DRFN\ProjSrc\SrcDrfn\Chart\ExControl\Include\GirdLoadHelper.h

; 3024 : 		if(!m_hLib)

  00009	83 78 04 00	 cmp	 DWORD PTR [eax+4], 0
  0000d	75 06		 jne	 SHORT $LN4@SetCell
; File D:\git\src\IBK\IBK_DRFN\ProjSrc\SrcDrfn\Chart\ExControl\ExGridCtrl.cpp

; 1744 : 	return m_pLoader->SetCell(nRow, nCol, pCell);

  0000f	33 c0		 xor	 eax, eax

; 1745 : }

  00011	5d		 pop	 ebp
  00012	c2 0c 00	 ret	 12			; 0000000cH
$LN4@SetCell:
; File D:\git\src\IBK\IBK_DRFN\ProjSrc\SrcDrfn\Chart\ExControl\Include\GirdLoadHelper.h

; 3027 : 		return pSetCell(m_lpPointer, nRow, nCol, pCell);

  00015	ff 75 10	 push	 DWORD PTR _pCell$[ebp]
  00018	ff 75 0c	 push	 DWORD PTR _nCol$[ebp]
  0001b	ff 75 08	 push	 DWORD PTR _nRow$[ebp]
  0001e	ff b0 0c 01 00
	00		 push	 DWORD PTR [eax+268]
  00024	8b 80 88 04 00
	00		 mov	 eax, DWORD PTR [eax+1160]
  0002a	ff d0		 call	 eax
; File D:\git\src\IBK\IBK_DRFN\ProjSrc\SrcDrfn\Chart\ExControl\ExGridCtrl.cpp

; 1745 : }

  0002c	5d		 pop	 ebp
  0002d	c2 0c 00	 ret	 12			; 0000000cH
?SetCell@CExGridCtrl@@IAEHHHPAVCGridCellBase@@@Z ENDP	; CExGridCtrl::SetCell
_TEXT	ENDS
; Function compile flags: /Ogtp
; File D:\git\src\IBK\IBK_DRFN\ProjSrc\SrcDrfn\Chart\ExControl\ExGridCtrl.cpp
; File D:\git\src\IBK\IBK_DRFN\ProjSrc\SrcDrfn\Chart\ExControl\Include\GirdLoadHelper.h
; File D:\git\src\IBK\IBK_DRFN\ProjSrc\SrcDrfn\Chart\ExControl\ExGridCtrl.cpp
; File D:\git\src\IBK\IBK_DRFN\ProjSrc\SrcDrfn\Chart\ExControl\Include\GirdLoadHelper.h
; File D:\git\src\IBK\IBK_DRFN\ProjSrc\SrcDrfn\Chart\ExControl\ExGridCtrl.cpp
;	COMDAT ?GetCellRangeRect@CExGridCtrl@@IAEHAAVCCellRange@@PAUtagRECT@@@Z
_TEXT	SEGMENT
_cellRange$ = 8						; size = 4
_lpRect$ = 12						; size = 4
?GetCellRangeRect@CExGridCtrl@@IAEHAAVCCellRange@@PAUtagRECT@@@Z PROC ; CExGridCtrl::GetCellRangeRect, COMDAT
; _this$ = ecx

; 1153 : {

  00000	55		 push	 ebp
  00001	8b ec		 mov	 ebp, esp

; 1154 : 	return m_pLoader->GetCellRangeRect(cellRange, lpRect);

  00003	8b 81 80 00 00
	00		 mov	 eax, DWORD PTR [ecx+128]
; File D:\git\src\IBK\IBK_DRFN\ProjSrc\SrcDrfn\Chart\ExControl\Include\GirdLoadHelper.h

; 3016 : 		if(!m_hLib)

  00009	83 78 04 00	 cmp	 DWORD PTR [eax+4], 0
  0000d	75 06		 jne	 SHORT $LN4@GetCellRan
; File D:\git\src\IBK\IBK_DRFN\ProjSrc\SrcDrfn\Chart\ExControl\ExGridCtrl.cpp

; 1154 : 	return m_pLoader->GetCellRangeRect(cellRange, lpRect);

  0000f	33 c0		 xor	 eax, eax

; 1155 : }

  00011	5d		 pop	 ebp
  00012	c2 08 00	 ret	 8
$LN4@GetCellRan:
; File D:\git\src\IBK\IBK_DRFN\ProjSrc\SrcDrfn\Chart\ExControl\Include\GirdLoadHelper.h

; 3019 : 		return pGetCellRangeRect(m_lpPointer, cellRange, lpRect);

  00015	ff 75 0c	 push	 DWORD PTR _lpRect$[ebp]
  00018	ff 75 08	 push	 DWORD PTR _cellRange$[ebp]
  0001b	ff b0 0c 01 00
	00		 push	 DWORD PTR [eax+268]
  00021	8b 80 84 04 00
	00		 mov	 eax, DWORD PTR [eax+1156]
  00027	ff d0		 call	 eax
; File D:\git\src\IBK\IBK_DRFN\ProjSrc\SrcDrfn\Chart\ExControl\ExGridCtrl.cpp

; 1155 : }

  00029	5d		 pop	 ebp
  0002a	c2 08 00	 ret	 8
?GetCellRangeRect@CExGridCtrl@@IAEHAAVCCellRange@@PAUtagRECT@@@Z ENDP ; CExGridCtrl::GetCellRangeRect
_TEXT	ENDS
; Function compile flags: /Ogtp
; File D:\git\src\IBK\IBK_DRFN\ProjSrc\SrcDrfn\Chart\ExControl\ExGridCtrl.cpp
; File D:\git\src\IBK\IBK_DRFN\ProjSrc\SrcDrfn\Chart\ExControl\Include\GirdLoadHelper.h
; File D:\git\src\IBK\IBK_DRFN\ProjSrc\SrcDrfn\Chart\ExControl\ExGridCtrl.cpp
;	COMDAT ?EraseBkgnd@CExGridCtrl@@IAEXPAVCDC@@@Z
_TEXT	SEGMENT
_pDC$ = 8						; size = 4
?EraseBkgnd@CExGridCtrl@@IAEXPAVCDC@@@Z PROC		; CExGridCtrl::EraseBkgnd, COMDAT
; _this$ = ecx

; 718  : {

  00000	55		 push	 ebp
  00001	8b ec		 mov	 ebp, esp

; 719  : 	m_pLoader->EraseBkgnd(pDC);

  00003	8b 81 80 00 00
	00		 mov	 eax, DWORD PTR [ecx+128]
; File D:\git\src\IBK\IBK_DRFN\ProjSrc\SrcDrfn\Chart\ExControl\Include\GirdLoadHelper.h

; 3008 : 		if(!m_hLib)

  00009	83 78 04 00	 cmp	 DWORD PTR [eax+4], 0
  0000d	74 11		 je	 SHORT $LN3@EraseBkgnd

; 3009 : 			return;
; 3010 : 
; 3011 : 		pEraseBkgnd(m_lpPointer, pDC);

  0000f	ff 75 08	 push	 DWORD PTR _pDC$[ebp]
  00012	ff b0 0c 01 00
	00		 push	 DWORD PTR [eax+268]
  00018	8b 80 80 04 00
	00		 mov	 eax, DWORD PTR [eax+1152]
  0001e	ff d0		 call	 eax
$LN3@EraseBkgnd:
; File D:\git\src\IBK\IBK_DRFN\ProjSrc\SrcDrfn\Chart\ExControl\ExGridCtrl.cpp

; 720  : }

  00020	5d		 pop	 ebp
  00021	c2 04 00	 ret	 4
?EraseBkgnd@CExGridCtrl@@IAEXPAVCDC@@@Z ENDP		; CExGridCtrl::EraseBkgnd
_TEXT	ENDS
; Function compile flags: /Ogtp
; File D:\git\src\IBK\IBK_DRFN\ProjSrc\SrcDrfn\Chart\ExControl\ExGridCtrl.cpp
; File D:\git\src\IBK\IBK_DRFN\ProjSrc\SrcDrfn\Chart\ExControl\Include\GirdLoadHelper.h
; File D:\git\src\IBK\IBK_DRFN\ProjSrc\SrcDrfn\Chart\ExControl\ExGridCtrl.cpp
; File D:\git\src\IBK\IBK_DRFN\ProjSrc\SrcDrfn\Chart\ExControl\Include\GirdLoadHelper.h
; File D:\git\src\IBK\IBK_DRFN\ProjSrc\SrcDrfn\Chart\ExControl\ExGridCtrl.cpp
;	COMDAT ?InvalidateCellRect@CExGridCtrl@@IAEHAAVCCellRange@@@Z
_TEXT	SEGMENT
_cellRange$ = 8						; size = 4
?InvalidateCellRect@CExGridCtrl@@IAEHAAVCCellRange@@@Z PROC ; CExGridCtrl::InvalidateCellRect, COMDAT
; _this$ = ecx

; 1602 : {

  00000	55		 push	 ebp
  00001	8b ec		 mov	 ebp, esp

; 1603 : 	return m_pLoader->InvalidateCellRect(cellRange);

  00003	8b 81 80 00 00
	00		 mov	 eax, DWORD PTR [ecx+128]
; File D:\git\src\IBK\IBK_DRFN\ProjSrc\SrcDrfn\Chart\ExControl\Include\GirdLoadHelper.h

; 3000 : 		if(!m_hLib)

  00009	83 78 04 00	 cmp	 DWORD PTR [eax+4], 0
  0000d	75 06		 jne	 SHORT $LN4@Invalidate
; File D:\git\src\IBK\IBK_DRFN\ProjSrc\SrcDrfn\Chart\ExControl\ExGridCtrl.cpp

; 1603 : 	return m_pLoader->InvalidateCellRect(cellRange);

  0000f	33 c0		 xor	 eax, eax

; 1604 : }

  00011	5d		 pop	 ebp
  00012	c2 04 00	 ret	 4
$LN4@Invalidate:
; File D:\git\src\IBK\IBK_DRFN\ProjSrc\SrcDrfn\Chart\ExControl\Include\GirdLoadHelper.h

; 3003 : 		return pInvalidateCellRect3(m_lpPointer, cellRange);

  00015	ff 75 08	 push	 DWORD PTR _cellRange$[ebp]
  00018	ff b0 0c 01 00
	00		 push	 DWORD PTR [eax+268]
  0001e	8b 80 7c 04 00
	00		 mov	 eax, DWORD PTR [eax+1148]
  00024	ff d0		 call	 eax
; File D:\git\src\IBK\IBK_DRFN\ProjSrc\SrcDrfn\Chart\ExControl\ExGridCtrl.cpp

; 1604 : }

  00026	5d		 pop	 ebp
  00027	c2 04 00	 ret	 4
?InvalidateCellRect@CExGridCtrl@@IAEHAAVCCellRange@@@Z ENDP ; CExGridCtrl::InvalidateCellRect
_TEXT	ENDS
; Function compile flags: /Ogtp
; File D:\git\src\IBK\IBK_DRFN\ProjSrc\SrcDrfn\Chart\ExControl\ExGridCtrl.cpp
; File D:\git\src\IBK\IBK_DRFN\ProjSrc\SrcDrfn\Chart\ExControl\Include\GirdLoadHelper.h
; File D:\git\src\IBK\IBK_DRFN\ProjSrc\SrcDrfn\Chart\ExControl\ExGridCtrl.cpp
; File D:\git\src\IBK\IBK_DRFN\ProjSrc\SrcDrfn\Chart\ExControl\Include\GirdLoadHelper.h
; File D:\git\src\IBK\IBK_DRFN\ProjSrc\SrcDrfn\Chart\ExControl\ExGridCtrl.cpp
;	COMDAT ?InvalidateCellRect@CExGridCtrl@@IAEHAAVCCellID@@@Z
_TEXT	SEGMENT
_cell$ = 8						; size = 4
?InvalidateCellRect@CExGridCtrl@@IAEHAAVCCellID@@@Z PROC ; CExGridCtrl::InvalidateCellRect, COMDAT
; _this$ = ecx

; 1592 : {

  00000	55		 push	 ebp
  00001	8b ec		 mov	 ebp, esp

; 1593 : 	return m_pLoader->InvalidateCellRect(cell);

  00003	8b 81 80 00 00
	00		 mov	 eax, DWORD PTR [ecx+128]
; File D:\git\src\IBK\IBK_DRFN\ProjSrc\SrcDrfn\Chart\ExControl\Include\GirdLoadHelper.h

; 2992 : 		if(!m_hLib)

  00009	83 78 04 00	 cmp	 DWORD PTR [eax+4], 0
  0000d	75 06		 jne	 SHORT $LN4@Invalidate
; File D:\git\src\IBK\IBK_DRFN\ProjSrc\SrcDrfn\Chart\ExControl\ExGridCtrl.cpp

; 1593 : 	return m_pLoader->InvalidateCellRect(cell);

  0000f	33 c0		 xor	 eax, eax

; 1594 : }

  00011	5d		 pop	 ebp
  00012	c2 04 00	 ret	 4
$LN4@Invalidate:
; File D:\git\src\IBK\IBK_DRFN\ProjSrc\SrcDrfn\Chart\ExControl\Include\GirdLoadHelper.h

; 2995 : 		return pInvalidateCellRect2(m_lpPointer, cell);

  00015	ff 75 08	 push	 DWORD PTR _cell$[ebp]
  00018	ff b0 0c 01 00
	00		 push	 DWORD PTR [eax+268]
  0001e	8b 80 78 04 00
	00		 mov	 eax, DWORD PTR [eax+1144]
  00024	ff d0		 call	 eax
; File D:\git\src\IBK\IBK_DRFN\ProjSrc\SrcDrfn\Chart\ExControl\ExGridCtrl.cpp

; 1594 : }

  00026	5d		 pop	 ebp
  00027	c2 04 00	 ret	 4
?InvalidateCellRect@CExGridCtrl@@IAEHAAVCCellID@@@Z ENDP ; CExGridCtrl::InvalidateCellRect
_TEXT	ENDS
; Function compile flags: /Ogtp
; File D:\git\src\IBK\IBK_DRFN\ProjSrc\SrcDrfn\Chart\ExControl\ExGridCtrl.cpp
; File D:\git\src\IBK\IBK_DRFN\ProjSrc\SrcDrfn\Chart\ExControl\Include\GirdLoadHelper.h
; File D:\git\src\IBK\IBK_DRFN\ProjSrc\SrcDrfn\Chart\ExControl\ExGridCtrl.cpp
; File D:\git\src\IBK\IBK_DRFN\ProjSrc\SrcDrfn\Chart\ExControl\Include\GirdLoadHelper.h
; File D:\git\src\IBK\IBK_DRFN\ProjSrc\SrcDrfn\Chart\ExControl\ExGridCtrl.cpp
;	COMDAT ?InvalidateCellRect@CExGridCtrl@@IAEHHH@Z
_TEXT	SEGMENT
_row$ = 8						; size = 4
_col$ = 12						; size = 4
?InvalidateCellRect@CExGridCtrl@@IAEHHH@Z PROC		; CExGridCtrl::InvalidateCellRect, COMDAT
; _this$ = ecx

; 1597 : {

  00000	55		 push	 ebp
  00001	8b ec		 mov	 ebp, esp

; 1598 : 	return m_pLoader->InvalidateCellRect(row, col);

  00003	8b 81 80 00 00
	00		 mov	 eax, DWORD PTR [ecx+128]
; File D:\git\src\IBK\IBK_DRFN\ProjSrc\SrcDrfn\Chart\ExControl\Include\GirdLoadHelper.h

; 2984 : 		if(!m_hLib)

  00009	83 78 04 00	 cmp	 DWORD PTR [eax+4], 0
  0000d	75 06		 jne	 SHORT $LN4@Invalidate
; File D:\git\src\IBK\IBK_DRFN\ProjSrc\SrcDrfn\Chart\ExControl\ExGridCtrl.cpp

; 1598 : 	return m_pLoader->InvalidateCellRect(row, col);

  0000f	33 c0		 xor	 eax, eax

; 1599 : }

  00011	5d		 pop	 ebp
  00012	c2 08 00	 ret	 8
$LN4@Invalidate:
; File D:\git\src\IBK\IBK_DRFN\ProjSrc\SrcDrfn\Chart\ExControl\Include\GirdLoadHelper.h

; 2987 : 		return pInvalidateCellRect(m_lpPointer, row, col);

  00015	ff 75 0c	 push	 DWORD PTR _col$[ebp]
  00018	ff 75 08	 push	 DWORD PTR _row$[ebp]
  0001b	ff b0 0c 01 00
	00		 push	 DWORD PTR [eax+268]
  00021	8b 80 74 04 00
	00		 mov	 eax, DWORD PTR [eax+1140]
  00027	ff d0		 call	 eax
; File D:\git\src\IBK\IBK_DRFN\ProjSrc\SrcDrfn\Chart\ExControl\ExGridCtrl.cpp

; 1599 : }

  00029	5d		 pop	 ebp
  0002a	c2 08 00	 ret	 8
?InvalidateCellRect@CExGridCtrl@@IAEHHH@Z ENDP		; CExGridCtrl::InvalidateCellRect
_TEXT	ENDS
; Function compile flags: /Ogtp
; File D:\git\src\IBK\IBK_DRFN\ProjSrc\SrcDrfn\Chart\ExControl\ExGridCtrl.cpp
; File D:\git\src\IBK\IBK_DRFN\ProjSrc\SrcDrfn\Chart\ExControl\Include\GirdLoadHelper.h
; File D:\git\src\IBK\IBK_DRFN\ProjSrc\SrcDrfn\Chart\ExControl\ExGridCtrl.cpp
; File D:\git\src\IBK\IBK_DRFN\ProjSrc\SrcDrfn\Chart\ExControl\Include\GirdLoadHelper.h
; File D:\git\src\IBK\IBK_DRFN\ProjSrc\SrcDrfn\Chart\ExControl\ExGridCtrl.cpp
;	COMDAT ?SendCacheHintToParent@CExGridCtrl@@IAEJAAVCCellRange@@@Z
_TEXT	SEGMENT
_range$ = 8						; size = 4
?SendCacheHintToParent@CExGridCtrl@@IAEJAAVCCellRange@@@Z PROC ; CExGridCtrl::SendCacheHintToParent, COMDAT
; _this$ = ecx

; 696  : {

  00000	55		 push	 ebp
  00001	8b ec		 mov	 ebp, esp

; 697  : 	return m_pLoader->SendCacheHintToParent(range);

  00003	8b 81 80 00 00
	00		 mov	 eax, DWORD PTR [ecx+128]
; File D:\git\src\IBK\IBK_DRFN\ProjSrc\SrcDrfn\Chart\ExControl\Include\GirdLoadHelper.h

; 2976 : 		if(!m_hLib)

  00009	83 78 04 00	 cmp	 DWORD PTR [eax+4], 0
  0000d	75 06		 jne	 SHORT $LN4@SendCacheH
; File D:\git\src\IBK\IBK_DRFN\ProjSrc\SrcDrfn\Chart\ExControl\ExGridCtrl.cpp

; 697  : 	return m_pLoader->SendCacheHintToParent(range);

  0000f	33 c0		 xor	 eax, eax

; 698  : }

  00011	5d		 pop	 ebp
  00012	c2 04 00	 ret	 4
$LN4@SendCacheH:
; File D:\git\src\IBK\IBK_DRFN\ProjSrc\SrcDrfn\Chart\ExControl\Include\GirdLoadHelper.h

; 2979 : 		return pSendCacheHintToParent(m_lpPointer, range);

  00015	ff 75 08	 push	 DWORD PTR _range$[ebp]
  00018	ff b0 0c 01 00
	00		 push	 DWORD PTR [eax+268]
  0001e	8b 80 70 04 00
	00		 mov	 eax, DWORD PTR [eax+1136]
  00024	ff d0		 call	 eax
; File D:\git\src\IBK\IBK_DRFN\ProjSrc\SrcDrfn\Chart\ExControl\ExGridCtrl.cpp

; 698  : }

  00026	5d		 pop	 ebp
  00027	c2 04 00	 ret	 4
?SendCacheHintToParent@CExGridCtrl@@IAEJAAVCCellRange@@@Z ENDP ; CExGridCtrl::SendCacheHintToParent
_TEXT	ENDS
; Function compile flags: /Ogtp
; File D:\git\src\IBK\IBK_DRFN\ProjSrc\SrcDrfn\Chart\ExControl\ExGridCtrl.cpp
; File D:\git\src\IBK\IBK_DRFN\ProjSrc\SrcDrfn\Chart\ExControl\Include\GirdLoadHelper.h
; File D:\git\src\IBK\IBK_DRFN\ProjSrc\SrcDrfn\Chart\ExControl\ExGridCtrl.cpp
; File D:\git\src\IBK\IBK_DRFN\ProjSrc\SrcDrfn\Chart\ExControl\Include\GirdLoadHelper.h
; File D:\git\src\IBK\IBK_DRFN\ProjSrc\SrcDrfn\Chart\ExControl\ExGridCtrl.cpp
;	COMDAT ?SendDisplayRequestToParent@CExGridCtrl@@IAEJPAUtagGV_DISPINFO@@@Z
_TEXT	SEGMENT
_pDisplayInfo$ = 8					; size = 4
?SendDisplayRequestToParent@CExGridCtrl@@IAEJPAUtagGV_DISPINFO@@@Z PROC ; CExGridCtrl::SendDisplayRequestToParent, COMDAT
; _this$ = ecx

; 690  : {

  00000	55		 push	 ebp
  00001	8b ec		 mov	 ebp, esp

; 691  : 	return m_pLoader->SendDisplayRequestToParent(pDisplayInfo);

  00003	8b 81 80 00 00
	00		 mov	 eax, DWORD PTR [ecx+128]
; File D:\git\src\IBK\IBK_DRFN\ProjSrc\SrcDrfn\Chart\ExControl\Include\GirdLoadHelper.h

; 2968 : 		if(!m_hLib)

  00009	83 78 04 00	 cmp	 DWORD PTR [eax+4], 0
  0000d	75 06		 jne	 SHORT $LN4@SendDispla
; File D:\git\src\IBK\IBK_DRFN\ProjSrc\SrcDrfn\Chart\ExControl\ExGridCtrl.cpp

; 691  : 	return m_pLoader->SendDisplayRequestToParent(pDisplayInfo);

  0000f	33 c0		 xor	 eax, eax

; 692  : }

  00011	5d		 pop	 ebp
  00012	c2 04 00	 ret	 4
$LN4@SendDispla:
; File D:\git\src\IBK\IBK_DRFN\ProjSrc\SrcDrfn\Chart\ExControl\Include\GirdLoadHelper.h

; 2971 : 		return pSendDisplayRequestToParent(m_lpPointer, pDisplayInfo);

  00015	ff 75 08	 push	 DWORD PTR _pDisplayInfo$[ebp]
  00018	ff b0 0c 01 00
	00		 push	 DWORD PTR [eax+268]
  0001e	8b 80 6c 04 00
	00		 mov	 eax, DWORD PTR [eax+1132]
  00024	ff d0		 call	 eax
; File D:\git\src\IBK\IBK_DRFN\ProjSrc\SrcDrfn\Chart\ExControl\ExGridCtrl.cpp

; 692  : }

  00026	5d		 pop	 ebp
  00027	c2 04 00	 ret	 4
?SendDisplayRequestToParent@CExGridCtrl@@IAEJPAUtagGV_DISPINFO@@@Z ENDP ; CExGridCtrl::SendDisplayRequestToParent
_TEXT	ENDS
; Function compile flags: /Ogtp
; File D:\git\src\IBK\IBK_DRFN\ProjSrc\SrcDrfn\Chart\ExControl\ExGridCtrl.cpp
; File D:\git\src\IBK\IBK_DRFN\ProjSrc\SrcDrfn\Chart\ExControl\Include\GirdLoadHelper.h
; File D:\git\src\IBK\IBK_DRFN\ProjSrc\SrcDrfn\Chart\ExControl\ExGridCtrl.cpp
; File D:\git\src\IBK\IBK_DRFN\ProjSrc\SrcDrfn\Chart\ExControl\Include\GirdLoadHelper.h
; File D:\git\src\IBK\IBK_DRFN\ProjSrc\SrcDrfn\Chart\ExControl\ExGridCtrl.cpp
;	COMDAT ?SendMessageToParent@CExGridCtrl@@IAEJHHH@Z
_TEXT	SEGMENT
_nRow$ = 8						; size = 4
_nCol$ = 12						; size = 4
_nMessage$ = 16						; size = 4
?SendMessageToParent@CExGridCtrl@@IAEJHHH@Z PROC	; CExGridCtrl::SendMessageToParent, COMDAT
; _this$ = ecx

; 679  : {

  00000	55		 push	 ebp
  00001	8b ec		 mov	 ebp, esp

; 680  : 	return m_pLoader->SendMessageToParent(nRow, nCol, nMessage);

  00003	8b 81 80 00 00
	00		 mov	 eax, DWORD PTR [ecx+128]
; File D:\git\src\IBK\IBK_DRFN\ProjSrc\SrcDrfn\Chart\ExControl\Include\GirdLoadHelper.h

; 2960 : 		if(!m_hLib)

  00009	83 78 04 00	 cmp	 DWORD PTR [eax+4], 0
  0000d	75 06		 jne	 SHORT $LN4@SendMessag
; File D:\git\src\IBK\IBK_DRFN\ProjSrc\SrcDrfn\Chart\ExControl\ExGridCtrl.cpp

; 680  : 	return m_pLoader->SendMessageToParent(nRow, nCol, nMessage);

  0000f	33 c0		 xor	 eax, eax

; 681  : }

  00011	5d		 pop	 ebp
  00012	c2 0c 00	 ret	 12			; 0000000cH
$LN4@SendMessag:
; File D:\git\src\IBK\IBK_DRFN\ProjSrc\SrcDrfn\Chart\ExControl\Include\GirdLoadHelper.h

; 2963 : 		return pSendMessageToParent(m_lpPointer, nRow, nCol, nMessage);

  00015	ff 75 10	 push	 DWORD PTR _nMessage$[ebp]
  00018	ff 75 0c	 push	 DWORD PTR _nCol$[ebp]
  0001b	ff 75 08	 push	 DWORD PTR _nRow$[ebp]
  0001e	ff b0 0c 01 00
	00		 push	 DWORD PTR [eax+268]
  00024	8b 80 68 04 00
	00		 mov	 eax, DWORD PTR [eax+1128]
  0002a	ff d0		 call	 eax
; File D:\git\src\IBK\IBK_DRFN\ProjSrc\SrcDrfn\Chart\ExControl\ExGridCtrl.cpp

; 681  : }

  0002c	5d		 pop	 ebp
  0002d	c2 0c 00	 ret	 12			; 0000000cH
?SendMessageToParent@CExGridCtrl@@IAEJHHH@Z ENDP	; CExGridCtrl::SendMessageToParent
_TEXT	ENDS
; Function compile flags: /Ogtp
; File D:\git\src\IBK\IBK_DRFN\ProjSrc\SrcDrfn\Chart\ExControl\ExGridCtrl.cpp
; File D:\git\src\IBK\IBK_DRFN\ProjSrc\SrcDrfn\Chart\ExControl\Include\GirdLoadHelper.h
; File D:\git\src\IBK\IBK_DRFN\ProjSrc\SrcDrfn\Chart\ExControl\ExGridCtrl.cpp
;	COMDAT ?SetupDefaultCells@CExGridCtrl@@IAEXXZ
_TEXT	SEGMENT
?SetupDefaultCells@CExGridCtrl@@IAEXXZ PROC		; CExGridCtrl::SetupDefaultCells, COMDAT
; _this$ = ecx

; 662  : 	m_pLoader->SetupDefaultCells();

  00000	8b 81 80 00 00
	00		 mov	 eax, DWORD PTR [ecx+128]
; File D:\git\src\IBK\IBK_DRFN\ProjSrc\SrcDrfn\Chart\ExControl\Include\GirdLoadHelper.h

; 2952 : 		if(!m_hLib)

  00006	83 78 04 00	 cmp	 DWORD PTR [eax+4], 0
  0000a	74 0e		 je	 SHORT $LN3@SetupDefau

; 2953 : 			return;
; 2954 : 
; 2955 : 		pSetupDefaultCells(m_lpPointer);

  0000c	ff b0 0c 01 00
	00		 push	 DWORD PTR [eax+268]
  00012	8b 80 64 04 00
	00		 mov	 eax, DWORD PTR [eax+1124]
  00018	ff d0		 call	 eax
$LN3@SetupDefau:
; File D:\git\src\IBK\IBK_DRFN\ProjSrc\SrcDrfn\Chart\ExControl\ExGridCtrl.cpp

; 663  : }

  0001a	c3		 ret	 0
?SetupDefaultCells@CExGridCtrl@@IAEXXZ ENDP		; CExGridCtrl::SetupDefaultCells
_TEXT	ENDS
; Function compile flags: /Ogtp
; File D:\git\src\IBK\IBK_DRFN\ProjSrc\SrcDrfn\Chart\ExControl\ExGridCtrl.cpp
; File D:\git\src\IBK\IBK_DRFN\ProjSrc\SrcDrfn\Chart\ExControl\Include\GirdLoadHelper.h
; File D:\git\src\IBK\IBK_DRFN\ProjSrc\SrcDrfn\Chart\ExControl\ExGridCtrl.cpp
; File D:\git\src\IBK\IBK_DRFN\ProjSrc\SrcDrfn\Chart\ExControl\Include\GirdLoadHelper.h
; File D:\git\src\IBK\IBK_DRFN\ProjSrc\SrcDrfn\Chart\ExControl\ExGridCtrl.cpp
;	COMDAT ?Initialise@CExGridCtrl@@IAEHXZ
_TEXT	SEGMENT
?Initialise@CExGridCtrl@@IAEHXZ PROC			; CExGridCtrl::Initialise, COMDAT
; _this$ = ecx

; 647  : 	return m_pLoader->Initialise();

  00000	8b 81 80 00 00
	00		 mov	 eax, DWORD PTR [ecx+128]
; File D:\git\src\IBK\IBK_DRFN\ProjSrc\SrcDrfn\Chart\ExControl\Include\GirdLoadHelper.h

; 2944 : 		if(!m_hLib)

  00006	83 78 04 00	 cmp	 DWORD PTR [eax+4], 0
  0000a	75 03		 jne	 SHORT $LN4@Initialise
; File D:\git\src\IBK\IBK_DRFN\ProjSrc\SrcDrfn\Chart\ExControl\ExGridCtrl.cpp

; 647  : 	return m_pLoader->Initialise();

  0000c	33 c0		 xor	 eax, eax

; 648  : }

  0000e	c3		 ret	 0
$LN4@Initialise:
; File D:\git\src\IBK\IBK_DRFN\ProjSrc\SrcDrfn\Chart\ExControl\Include\GirdLoadHelper.h

; 2947 : 		return pInitialise(m_lpPointer);

  0000f	ff b0 0c 01 00
	00		 push	 DWORD PTR [eax+268]
  00015	8b 80 60 04 00
	00		 mov	 eax, DWORD PTR [eax+1120]
  0001b	ff d0		 call	 eax
; File D:\git\src\IBK\IBK_DRFN\ProjSrc\SrcDrfn\Chart\ExControl\ExGridCtrl.cpp

; 648  : }

  0001d	c3		 ret	 0
?Initialise@CExGridCtrl@@IAEHXZ ENDP			; CExGridCtrl::Initialise
_TEXT	ENDS
; Function compile flags: /Ogtp
; File D:\git\src\IBK\IBK_DRFN\ProjSrc\SrcDrfn\Chart\ExControl\ExGridCtrl.cpp
; File D:\git\src\IBK\IBK_DRFN\ProjSrc\SrcDrfn\Chart\ExControl\Include\GirdLoadHelper.h
; File D:\git\src\IBK\IBK_DRFN\ProjSrc\SrcDrfn\Chart\ExControl\ExGridCtrl.cpp
; File D:\git\src\IBK\IBK_DRFN\ProjSrc\SrcDrfn\Chart\ExControl\Include\GirdLoadHelper.h
; File D:\git\src\IBK\IBK_DRFN\ProjSrc\SrcDrfn\Chart\ExControl\ExGridCtrl.cpp
;	COMDAT ?RegisterWindowClass@CExGridCtrl@@IAEHXZ
_TEXT	SEGMENT
?RegisterWindowClass@CExGridCtrl@@IAEHXZ PROC		; CExGridCtrl::RegisterWindowClass, COMDAT
; _this$ = ecx

; 642  : 	return m_pLoader->RegisterWindowClass();

  00000	8b 81 80 00 00
	00		 mov	 eax, DWORD PTR [ecx+128]
; File D:\git\src\IBK\IBK_DRFN\ProjSrc\SrcDrfn\Chart\ExControl\Include\GirdLoadHelper.h

; 2936 : 		if(!m_hLib)

  00006	83 78 04 00	 cmp	 DWORD PTR [eax+4], 0
  0000a	75 03		 jne	 SHORT $LN4@RegisterWi
; File D:\git\src\IBK\IBK_DRFN\ProjSrc\SrcDrfn\Chart\ExControl\ExGridCtrl.cpp

; 642  : 	return m_pLoader->RegisterWindowClass();

  0000c	33 c0		 xor	 eax, eax

; 643  : }

  0000e	c3		 ret	 0
$LN4@RegisterWi:
; File D:\git\src\IBK\IBK_DRFN\ProjSrc\SrcDrfn\Chart\ExControl\Include\GirdLoadHelper.h

; 2939 : 		return pRegisterWindowClass(m_lpPointer);

  0000f	ff b0 0c 01 00
	00		 push	 DWORD PTR [eax+268]
  00015	8b 80 5c 04 00
	00		 mov	 eax, DWORD PTR [eax+1116]
  0001b	ff d0		 call	 eax
; File D:\git\src\IBK\IBK_DRFN\ProjSrc\SrcDrfn\Chart\ExControl\ExGridCtrl.cpp

; 643  : }

  0001d	c3		 ret	 0
?RegisterWindowClass@CExGridCtrl@@IAEHXZ ENDP		; CExGridCtrl::RegisterWindowClass
_TEXT	ENDS
; Function compile flags: /Ogtp
; File D:\git\src\IBK\IBK_DRFN\ProjSrc\SrcDrfn\Chart\ExControl\ExGridCtrl.cpp
; File D:\git\src\IBK\IBK_DRFN\ProjSrc\SrcDrfn\Chart\ExControl\Include\GirdLoadHelper.h
; File D:\git\src\IBK\IBK_DRFN\ProjSrc\SrcDrfn\Chart\ExControl\ExGridCtrl.cpp
;	COMDAT ??1CExGridCtrl@@UAE@XZ
_TEXT	SEGMENT
__$EHRec$ = -12						; size = 12
??1CExGridCtrl@@UAE@XZ PROC				; CExGridCtrl::~CExGridCtrl, COMDAT
; _this$ = ecx

; 61   : {

  00000	55		 push	 ebp
  00001	8b ec		 mov	 ebp, esp
  00003	6a ff		 push	 -1
  00005	68 00 00 00 00	 push	 __ehhandler$??1CExGridCtrl@@UAE@XZ
  0000a	64 a1 00 00 00
	00		 mov	 eax, DWORD PTR fs:0
  00010	50		 push	 eax
  00011	56		 push	 esi
  00012	a1 00 00 00 00	 mov	 eax, DWORD PTR ___security_cookie
  00017	33 c5		 xor	 eax, ebp
  00019	50		 push	 eax
  0001a	8d 45 f4	 lea	 eax, DWORD PTR __$EHRec$[ebp]
  0001d	64 a3 00 00 00
	00		 mov	 DWORD PTR fs:0, eax
  00023	8b f1		 mov	 esi, ecx

; 1256 : 	return m_pLoader->DeleteAllItems();

  00025	8b 86 80 00 00
	00		 mov	 eax, DWORD PTR [esi+128]

; 61   : {

  0002b	c7 06 00 00 00
	00		 mov	 DWORD PTR [esi], OFFSET ??_7CExGridCtrl@@6B@
; File D:\git\src\IBK\IBK_DRFN\ProjSrc\SrcDrfn\Chart\ExControl\Include\GirdLoadHelper.h

; 2520 : 		if(!m_hLib)

  00031	83 78 04 00	 cmp	 DWORD PTR [eax+4], 0
  00035	74 0e		 je	 SHORT $LN8@CExGridCtr

; 2521 : 			return FALSE;
; 2522 : 
; 2523 : 		return pDeleteAllItems(m_lpPointer);

  00037	ff b0 0c 01 00
	00		 push	 DWORD PTR [eax+268]
  0003d	8b 80 8c 03 00
	00		 mov	 eax, DWORD PTR [eax+908]
  00043	ff d0		 call	 eax
$LN8@CExGridCtr:
; File D:\git\src\IBK\IBK_DRFN\ProjSrc\SrcDrfn\Chart\ExControl\ExGridCtrl.cpp

; 64   :     DestroyWindow();

  00045	8b ce		 mov	 ecx, esi
  00047	e8 00 00 00 00	 call	 ?DestroyWindow@CWnd@@UAEHXZ ; CWnd::DestroyWindow

; 65   : 
; 66   : #if !defined(GRIDCONTROL_NO_DRAGDROP) || !defined(GRIDCONTROL_NO_CLIPBOARD)
; 67   :     // BUG FIX - EFW
; 68   :     COleDataSource *pSource = COleDataSource::GetClipboardOwner();

  0004c	e8 00 00 00 00	 call	 ?GetClipboardOwner@COleDataSource@@SGPAV1@XZ ; COleDataSource::GetClipboardOwner

; 69   :     if(pSource)

  00051	85 c0		 test	 eax, eax
  00053	74 05		 je	 SHORT $LN2@CExGridCtr

; 70   :         COleDataSource::FlushClipboard();

  00055	e8 00 00 00 00	 call	 ?FlushClipboard@COleDataSource@@SGXXZ ; COleDataSource::FlushClipboard
$LN2@CExGridCtr:

; 71   : #endif
; 72   : 
; 73   : 	delete m_pLoader;

  0005a	8b 8e 80 00 00
	00		 mov	 ecx, DWORD PTR [esi+128]
  00060	85 c9		 test	 ecx, ecx
  00062	74 07		 je	 SHORT $LN4@CExGridCtr
  00064	8b 01		 mov	 eax, DWORD PTR [ecx]
  00066	6a 01		 push	 1
  00068	ff 50 04	 call	 DWORD PTR [eax+4]
$LN4@CExGridCtr:

; 74   : }

  0006b	8b ce		 mov	 ecx, esi
  0006d	e8 00 00 00 00	 call	 ??1CWnd@@UAE@XZ		; CWnd::~CWnd
  00072	8b 4d f4	 mov	 ecx, DWORD PTR __$EHRec$[ebp]
  00075	64 89 0d 00 00
	00 00		 mov	 DWORD PTR fs:0, ecx
  0007c	59		 pop	 ecx
  0007d	5e		 pop	 esi
  0007e	8b e5		 mov	 esp, ebp
  00080	5d		 pop	 ebp
  00081	c3		 ret	 0
  00082	cc		 int	 3
  00083	cc		 int	 3
  00084	cc		 int	 3
  00085	cc		 int	 3
  00086	cc		 int	 3
_TEXT	ENDS
;	COMDAT text$x
text$x	SEGMENT
__ehhandler$??1CExGridCtrl@@UAE@XZ:
  00000	90		 npad	 1
  00001	90		 npad	 1
  00002	8b 54 24 08	 mov	 edx, DWORD PTR [esp+8]
  00006	8d 42 0c	 lea	 eax, DWORD PTR [edx+12]
  00009	8b 4a f8	 mov	 ecx, DWORD PTR [edx-8]
  0000c	33 c8		 xor	 ecx, eax
  0000e	e8 00 00 00 00	 call	 @__security_check_cookie@4
  00013	b8 00 00 00 00	 mov	 eax, OFFSET __ehfuncinfo$??1CExGridCtrl@@UAE@XZ
  00018	e9 00 00 00 00	 jmp	 ___CxxFrameHandler3
text$x	ENDS
??1CExGridCtrl@@UAE@XZ ENDP				; CExGridCtrl::~CExGridCtrl
; Function compile flags: /Ogtp
; File D:\git\src\IBK\IBK_DRFN\ProjSrc\SrcDrfn\Chart\ExControl\ExGridCtrl.cpp
; File D:\git\src\IBK\IBK_DRFN\ProjSrc\SrcDrfn\Chart\ExControl\Include\GirdLoadHelper.h
; File D:\git\src\IBK\IBK_DRFN\ProjSrc\SrcDrfn\Chart\ExControl\ExGridCtrl.cpp
;	COMDAT ?SetCompareFunction@CExGridCtrl@@QAEXP6GHJJJ@Z@Z
_TEXT	SEGMENT
_pfnCompare$ = 8					; size = 4
?SetCompareFunction@CExGridCtrl@@QAEXP6GHJJJ@Z@Z PROC	; CExGridCtrl::SetCompareFunction, COMDAT
; _this$ = ecx

; 1280 : {

  00000	55		 push	 ebp
  00001	8b ec		 mov	 ebp, esp

; 1281 : 	m_pLoader->SetCompareFunction(pfnCompare);

  00003	8b 81 80 00 00
	00		 mov	 eax, DWORD PTR [ecx+128]
; File D:\git\src\IBK\IBK_DRFN\ProjSrc\SrcDrfn\Chart\ExControl\Include\GirdLoadHelper.h

; 2928 : 		if(!m_hLib)

  00009	83 78 04 00	 cmp	 DWORD PTR [eax+4], 0
  0000d	74 11		 je	 SHORT $LN3@SetCompare

; 2929 : 			return;
; 2930 : 
; 2931 : 		pSetCompareFunction(m_lpPointer, pfnCompare);

  0000f	ff 75 08	 push	 DWORD PTR _pfnCompare$[ebp]
  00012	ff b0 0c 01 00
	00		 push	 DWORD PTR [eax+268]
  00018	8b 80 58 04 00
	00		 mov	 eax, DWORD PTR [eax+1112]
  0001e	ff d0		 call	 eax
$LN3@SetCompare:
; File D:\git\src\IBK\IBK_DRFN\ProjSrc\SrcDrfn\Chart\ExControl\ExGridCtrl.cpp

; 1282 : }

  00020	5d		 pop	 ebp
  00021	c2 04 00	 ret	 4
?SetCompareFunction@CExGridCtrl@@QAEXP6GHJJJ@Z@Z ENDP	; CExGridCtrl::SetCompareFunction
_TEXT	ENDS
; Function compile flags: /Ogtp
; File D:\git\src\IBK\IBK_DRFN\ProjSrc\SrcDrfn\Chart\ExControl\ExGridCtrl.cpp
; File D:\git\src\IBK\IBK_DRFN\ProjSrc\SrcDrfn\Chart\ExControl\Include\GirdLoadHelper.h
; File D:\git\src\IBK\IBK_DRFN\ProjSrc\SrcDrfn\Chart\ExControl\ExGridCtrl.cpp
; File D:\git\src\IBK\IBK_DRFN\ProjSrc\SrcDrfn\Chart\ExControl\Include\GirdLoadHelper.h
; File D:\git\src\IBK\IBK_DRFN\ProjSrc\SrcDrfn\Chart\ExControl\ExGridCtrl.cpp
;	COMDAT ?SortItems@CExGridCtrl@@QAEHP6GHJJJ@ZHHJ@Z
_TEXT	SEGMENT
_pfnCompare$ = 8					; size = 4
_nCol$ = 12						; size = 4
_bAscending$ = 16					; size = 4
_data$ = 20						; size = 4
?SortItems@CExGridCtrl@@QAEHP6GHJJJ@ZHHJ@Z PROC		; CExGridCtrl::SortItems, COMDAT
; _this$ = ecx

; 1293 : {

  00000	55		 push	 ebp
  00001	8b ec		 mov	 ebp, esp

; 1294 : 	return m_pLoader->SortItems(pfnCompare, nCol, bAscending, data);

  00003	8b 81 80 00 00
	00		 mov	 eax, DWORD PTR [ecx+128]
; File D:\git\src\IBK\IBK_DRFN\ProjSrc\SrcDrfn\Chart\ExControl\Include\GirdLoadHelper.h

; 2920 : 		if(!m_hLib)

  00009	83 78 04 00	 cmp	 DWORD PTR [eax+4], 0
  0000d	75 06		 jne	 SHORT $LN4@SortItems
; File D:\git\src\IBK\IBK_DRFN\ProjSrc\SrcDrfn\Chart\ExControl\ExGridCtrl.cpp

; 1294 : 	return m_pLoader->SortItems(pfnCompare, nCol, bAscending, data);

  0000f	33 c0		 xor	 eax, eax

; 1295 : }

  00011	5d		 pop	 ebp
  00012	c2 10 00	 ret	 16			; 00000010H
$LN4@SortItems:
; File D:\git\src\IBK\IBK_DRFN\ProjSrc\SrcDrfn\Chart\ExControl\Include\GirdLoadHelper.h

; 2923 : 		return pSortItems2(m_lpPointer, pfnCompare, nCol, bAscending, data);

  00015	ff 75 14	 push	 DWORD PTR _data$[ebp]
  00018	ff 75 10	 push	 DWORD PTR _bAscending$[ebp]
  0001b	ff 75 0c	 push	 DWORD PTR _nCol$[ebp]
  0001e	ff 75 08	 push	 DWORD PTR _pfnCompare$[ebp]
  00021	ff b0 0c 01 00
	00		 push	 DWORD PTR [eax+268]
  00027	8b 80 54 04 00
	00		 mov	 eax, DWORD PTR [eax+1108]
  0002d	ff d0		 call	 eax
; File D:\git\src\IBK\IBK_DRFN\ProjSrc\SrcDrfn\Chart\ExControl\ExGridCtrl.cpp

; 1295 : }

  0002f	5d		 pop	 ebp
  00030	c2 10 00	 ret	 16			; 00000010H
?SortItems@CExGridCtrl@@QAEHP6GHJJJ@ZHHJ@Z ENDP		; CExGridCtrl::SortItems
_TEXT	ENDS
; Function compile flags: /Ogtp
; File D:\git\src\IBK\IBK_DRFN\ProjSrc\SrcDrfn\Chart\ExControl\ExGridCtrl.cpp
; File D:\git\src\IBK\IBK_DRFN\ProjSrc\SrcDrfn\Chart\ExControl\Include\GirdLoadHelper.h
; File D:\git\src\IBK\IBK_DRFN\ProjSrc\SrcDrfn\Chart\ExControl\ExGridCtrl.cpp
; File D:\git\src\IBK\IBK_DRFN\ProjSrc\SrcDrfn\Chart\ExControl\Include\GirdLoadHelper.h
; File D:\git\src\IBK\IBK_DRFN\ProjSrc\SrcDrfn\Chart\ExControl\ExGridCtrl.cpp
;	COMDAT ?SortTextItems@CExGridCtrl@@QAEHHHJ@Z
_TEXT	SEGMENT
_nCol$ = 8						; size = 4
_bAscending$ = 12					; size = 4
_data$ = 16						; size = 4
?SortTextItems@CExGridCtrl@@QAEHHHJ@Z PROC		; CExGridCtrl::SortTextItems, COMDAT
; _this$ = ecx

; 1275 : {

  00000	55		 push	 ebp
  00001	8b ec		 mov	 ebp, esp

; 1276 : 	return m_pLoader->SortTextItems(nCol, bAscending, data);

  00003	8b 81 80 00 00
	00		 mov	 eax, DWORD PTR [ecx+128]
; File D:\git\src\IBK\IBK_DRFN\ProjSrc\SrcDrfn\Chart\ExControl\Include\GirdLoadHelper.h

; 2912 : 		if(!m_hLib)

  00009	83 78 04 00	 cmp	 DWORD PTR [eax+4], 0
  0000d	75 06		 jne	 SHORT $LN4@SortTextIt
; File D:\git\src\IBK\IBK_DRFN\ProjSrc\SrcDrfn\Chart\ExControl\ExGridCtrl.cpp

; 1276 : 	return m_pLoader->SortTextItems(nCol, bAscending, data);

  0000f	33 c0		 xor	 eax, eax

; 1277 : }

  00011	5d		 pop	 ebp
  00012	c2 0c 00	 ret	 12			; 0000000cH
$LN4@SortTextIt:
; File D:\git\src\IBK\IBK_DRFN\ProjSrc\SrcDrfn\Chart\ExControl\Include\GirdLoadHelper.h

; 2915 : 		return pSortTextItems2(m_lpPointer, nCol, bAscending, data);

  00015	ff 75 10	 push	 DWORD PTR _data$[ebp]
  00018	ff 75 0c	 push	 DWORD PTR _bAscending$[ebp]
  0001b	ff 75 08	 push	 DWORD PTR _nCol$[ebp]
  0001e	ff b0 0c 01 00
	00		 push	 DWORD PTR [eax+268]
  00024	8b 80 50 04 00
	00		 mov	 eax, DWORD PTR [eax+1104]
  0002a	ff d0		 call	 eax
; File D:\git\src\IBK\IBK_DRFN\ProjSrc\SrcDrfn\Chart\ExControl\ExGridCtrl.cpp

; 1277 : }

  0002c	5d		 pop	 ebp
  0002d	c2 0c 00	 ret	 12			; 0000000cH
?SortTextItems@CExGridCtrl@@QAEHHHJ@Z ENDP		; CExGridCtrl::SortTextItems
_TEXT	ENDS
; Function compile flags: /Ogtp
; File D:\git\src\IBK\IBK_DRFN\ProjSrc\SrcDrfn\Chart\ExControl\ExGridCtrl.cpp
; File D:\git\src\IBK\IBK_DRFN\ProjSrc\SrcDrfn\Chart\ExControl\Include\GirdLoadHelper.h
; File D:\git\src\IBK\IBK_DRFN\ProjSrc\SrcDrfn\Chart\ExControl\ExGridCtrl.cpp
; File D:\git\src\IBK\IBK_DRFN\ProjSrc\SrcDrfn\Chart\ExControl\Include\GirdLoadHelper.h
; File D:\git\src\IBK\IBK_DRFN\ProjSrc\SrcDrfn\Chart\ExControl\ExGridCtrl.cpp
;	COMDAT ?SortItems@CExGridCtrl@@QAEHHHJ@Z
_TEXT	SEGMENT
_nCol$ = 8						; size = 4
_bAscending$ = 12					; size = 4
_data$ = 16						; size = 4
?SortItems@CExGridCtrl@@QAEHHHJ@Z PROC			; CExGridCtrl::SortItems, COMDAT
; _this$ = ecx

; 1287 : {

  00000	55		 push	 ebp
  00001	8b ec		 mov	 ebp, esp

; 1288 : 	return m_pLoader->SortItems(nCol, bAscending, data);

  00003	8b 81 80 00 00
	00		 mov	 eax, DWORD PTR [ecx+128]
; File D:\git\src\IBK\IBK_DRFN\ProjSrc\SrcDrfn\Chart\ExControl\Include\GirdLoadHelper.h

; 2904 : 		if(!m_hLib)

  00009	83 78 04 00	 cmp	 DWORD PTR [eax+4], 0
  0000d	75 06		 jne	 SHORT $LN4@SortItems
; File D:\git\src\IBK\IBK_DRFN\ProjSrc\SrcDrfn\Chart\ExControl\ExGridCtrl.cpp

; 1288 : 	return m_pLoader->SortItems(nCol, bAscending, data);

  0000f	33 c0		 xor	 eax, eax

; 1289 : }

  00011	5d		 pop	 ebp
  00012	c2 0c 00	 ret	 12			; 0000000cH
$LN4@SortItems:
; File D:\git\src\IBK\IBK_DRFN\ProjSrc\SrcDrfn\Chart\ExControl\Include\GirdLoadHelper.h

; 2907 : 		return pSortItems1(m_lpPointer, nCol, bAscending, data);

  00015	ff 75 10	 push	 DWORD PTR _data$[ebp]
  00018	ff 75 0c	 push	 DWORD PTR _bAscending$[ebp]
  0001b	ff 75 08	 push	 DWORD PTR _nCol$[ebp]
  0001e	ff b0 0c 01 00
	00		 push	 DWORD PTR [eax+268]
  00024	8b 80 4c 04 00
	00		 mov	 eax, DWORD PTR [eax+1100]
  0002a	ff d0		 call	 eax
; File D:\git\src\IBK\IBK_DRFN\ProjSrc\SrcDrfn\Chart\ExControl\ExGridCtrl.cpp

; 1289 : }

  0002c	5d		 pop	 ebp
  0002d	c2 0c 00	 ret	 12			; 0000000cH
?SortItems@CExGridCtrl@@QAEHHHJ@Z ENDP			; CExGridCtrl::SortItems
_TEXT	ENDS
; Function compile flags: /Ogtp
; File D:\git\src\IBK\IBK_DRFN\ProjSrc\SrcDrfn\Chart\ExControl\ExGridCtrl.cpp
; File D:\git\src\IBK\IBK_DRFN\ProjSrc\SrcDrfn\Chart\ExControl\Include\GirdLoadHelper.h
; File D:\git\src\IBK\IBK_DRFN\ProjSrc\SrcDrfn\Inc\_COMMON\CellRange.h
; File D:\git\src\IBK\IBK_DRFN\ProjSrc\SrcDrfn\Chart\ExControl\ExGridCtrl.cpp
; File D:\git\src\IBK\IBK_DRFN\ProjSrc\SrcDrfn\Chart\ExControl\Include\GirdLoadHelper.h
; File D:\git\src\IBK\IBK_DRFN\ProjSrc\SrcDrfn\Chart\ExControl\ExGridCtrl.cpp
;	COMDAT ?GetNextItem@CExGridCtrl@@QAE?AVCCellID@@AAV2@H@Z
_TEXT	SEGMENT
$T1 = -8						; size = 8
___$ReturnUdt$ = 8					; size = 4
_cell$ = 12						; size = 4
_nFlags$ = 16						; size = 4
?GetNextItem@CExGridCtrl@@QAE?AVCCellID@@AAV2@H@Z PROC	; CExGridCtrl::GetNextItem, COMDAT
; _this$ = ecx

; 1269 : {

  00000	55		 push	 ebp
  00001	8b ec		 mov	 ebp, esp

; 1270 : 	return m_pLoader->GetNextItem(cell, nFlags);

  00003	8b 81 80 00 00
	00		 mov	 eax, DWORD PTR [ecx+128]
  00009	83 ec 08	 sub	 esp, 8
; File D:\git\src\IBK\IBK_DRFN\ProjSrc\SrcDrfn\Chart\ExControl\Include\GirdLoadHelper.h

; 2896 : 		if(!m_hLib)

  0000c	83 78 04 00	 cmp	 DWORD PTR [eax+4], 0
  00010	75 16		 jne	 SHORT $LN4@GetNextIte
; File D:\git\src\IBK\IBK_DRFN\ProjSrc\SrcDrfn\Inc\_COMMON\CellRange.h

; 45   :     explicit CCellID(int nRow = -1, int nCol = -1) : row(nRow), col(nCol) {}

  00012	8b 45 08	 mov	 eax, DWORD PTR ___$ReturnUdt$[ebp]
  00015	c7 00 ff ff ff
	ff		 mov	 DWORD PTR [eax], -1
  0001b	c7 40 04 ff ff
	ff ff		 mov	 DWORD PTR [eax+4], -1
; File D:\git\src\IBK\IBK_DRFN\ProjSrc\SrcDrfn\Chart\ExControl\ExGridCtrl.cpp

; 1271 : }

  00022	8b e5		 mov	 esp, ebp
  00024	5d		 pop	 ebp
  00025	c2 0c 00	 ret	 12			; 0000000cH
$LN4@GetNextIte:
; File D:\git\src\IBK\IBK_DRFN\ProjSrc\SrcDrfn\Chart\ExControl\Include\GirdLoadHelper.h

; 2899 : 		return pGetNextItem(m_lpPointer, cell, nFlags);

  00028	ff 75 10	 push	 DWORD PTR _nFlags$[ebp]
  0002b	8d 4d f8	 lea	 ecx, DWORD PTR $T1[ebp]
  0002e	ff 75 0c	 push	 DWORD PTR _cell$[ebp]
  00031	ff b0 0c 01 00
	00		 push	 DWORD PTR [eax+268]
  00037	8b 80 48 04 00
	00		 mov	 eax, DWORD PTR [eax+1096]
  0003d	51		 push	 ecx
  0003e	ff d0		 call	 eax
  00040	8b 08		 mov	 ecx, DWORD PTR [eax]
  00042	8b 50 04	 mov	 edx, DWORD PTR [eax+4]
  00045	8b 45 08	 mov	 eax, DWORD PTR ___$ReturnUdt$[ebp]
  00048	89 08		 mov	 DWORD PTR [eax], ecx
  0004a	89 50 04	 mov	 DWORD PTR [eax+4], edx
; File D:\git\src\IBK\IBK_DRFN\ProjSrc\SrcDrfn\Chart\ExControl\ExGridCtrl.cpp

; 1271 : }

  0004d	8b e5		 mov	 esp, ebp
  0004f	5d		 pop	 ebp
  00050	c2 0c 00	 ret	 12			; 0000000cH
?GetNextItem@CExGridCtrl@@QAE?AVCCellID@@AAV2@H@Z ENDP	; CExGridCtrl::GetNextItem
_TEXT	ENDS
; Function compile flags: /Ogtp
; File D:\git\src\IBK\IBK_DRFN\ProjSrc\SrcDrfn\Chart\ExControl\ExGridCtrl.cpp
; File D:\git\src\IBK\IBK_DRFN\ProjSrc\SrcDrfn\Chart\ExControl\Include\GirdLoadHelper.h
; File D:\git\src\IBK\IBK_DRFN\ProjSrc\SrcDrfn\Chart\ExControl\ExGridCtrl.cpp
;	COMDAT ?OnEditSelectAll@CExGridCtrl@@UAEXXZ
_TEXT	SEGMENT
?OnEditSelectAll@CExGridCtrl@@UAEXXZ PROC		; CExGridCtrl::OnEditSelectAll, COMDAT
; _this$ = ecx

; 1011 : 	m_pLoader->OnEditSelectAll();

  00000	8b 81 80 00 00
	00		 mov	 eax, DWORD PTR [ecx+128]
; File D:\git\src\IBK\IBK_DRFN\ProjSrc\SrcDrfn\Chart\ExControl\Include\GirdLoadHelper.h

; 2888 : 		if(!m_hLib)

  00006	83 78 04 00	 cmp	 DWORD PTR [eax+4], 0
  0000a	74 0e		 je	 SHORT $LN3@OnEditSele

; 2889 : 			return;
; 2890 : 
; 2891 : 		pOnEditSelectAll(m_lpPointer);

  0000c	ff b0 0c 01 00
	00		 push	 DWORD PTR [eax+268]
  00012	8b 80 44 04 00
	00		 mov	 eax, DWORD PTR [eax+1092]
  00018	ff d0		 call	 eax
$LN3@OnEditSele:
; File D:\git\src\IBK\IBK_DRFN\ProjSrc\SrcDrfn\Chart\ExControl\ExGridCtrl.cpp

; 1012 : }

  0001a	c3		 ret	 0
?OnEditSelectAll@CExGridCtrl@@UAEXXZ ENDP		; CExGridCtrl::OnEditSelectAll
_TEXT	ENDS
; Function compile flags: /Ogtp
; File D:\git\src\IBK\IBK_DRFN\ProjSrc\SrcDrfn\Chart\ExControl\ExGridCtrl.cpp
; File D:\git\src\IBK\IBK_DRFN\ProjSrc\SrcDrfn\Chart\ExControl\Include\GirdLoadHelper.h
; File D:\git\src\IBK\IBK_DRFN\ProjSrc\SrcDrfn\Chart\ExControl\ExGridCtrl.cpp
;	COMDAT ?OnEditPaste@CExGridCtrl@@UAEXXZ
_TEXT	SEGMENT
?OnEditPaste@CExGridCtrl@@UAEXXZ PROC			; CExGridCtrl::OnEditPaste, COMDAT
; _this$ = ecx

; 1005 : 	m_pLoader->OnEditPaste();

  00000	8b 81 80 00 00
	00		 mov	 eax, DWORD PTR [ecx+128]
; File D:\git\src\IBK\IBK_DRFN\ProjSrc\SrcDrfn\Chart\ExControl\Include\GirdLoadHelper.h

; 2880 : 		if(!m_hLib)

  00006	83 78 04 00	 cmp	 DWORD PTR [eax+4], 0
  0000a	74 0e		 je	 SHORT $LN3@OnEditPast

; 2881 : 			return;
; 2882 : 
; 2883 : 		pOnEditPaste(m_lpPointer);

  0000c	ff b0 0c 01 00
	00		 push	 DWORD PTR [eax+268]
  00012	8b 80 40 04 00
	00		 mov	 eax, DWORD PTR [eax+1088]
  00018	ff d0		 call	 eax
$LN3@OnEditPast:
; File D:\git\src\IBK\IBK_DRFN\ProjSrc\SrcDrfn\Chart\ExControl\ExGridCtrl.cpp

; 1006 : }

  0001a	c3		 ret	 0
?OnEditPaste@CExGridCtrl@@UAEXXZ ENDP			; CExGridCtrl::OnEditPaste
_TEXT	ENDS
; Function compile flags: /Ogtp
; File D:\git\src\IBK\IBK_DRFN\ProjSrc\SrcDrfn\Chart\ExControl\ExGridCtrl.cpp
; File D:\git\src\IBK\IBK_DRFN\ProjSrc\SrcDrfn\Chart\ExControl\Include\GirdLoadHelper.h
; File D:\git\src\IBK\IBK_DRFN\ProjSrc\SrcDrfn\Chart\ExControl\ExGridCtrl.cpp
;	COMDAT ?OnEditCopy@CExGridCtrl@@UAEXXZ
_TEXT	SEGMENT
?OnEditCopy@CExGridCtrl@@UAEXXZ PROC			; CExGridCtrl::OnEditCopy, COMDAT
; _this$ = ecx

; 1000 : 	m_pLoader->OnEditCopy();

  00000	8b 81 80 00 00
	00		 mov	 eax, DWORD PTR [ecx+128]
; File D:\git\src\IBK\IBK_DRFN\ProjSrc\SrcDrfn\Chart\ExControl\Include\GirdLoadHelper.h

; 2872 : 		if(!m_hLib)

  00006	83 78 04 00	 cmp	 DWORD PTR [eax+4], 0
  0000a	74 0e		 je	 SHORT $LN3@OnEditCopy

; 2873 : 			return;
; 2874 : 
; 2875 : 		pOnEditCopy(m_lpPointer);

  0000c	ff b0 0c 01 00
	00		 push	 DWORD PTR [eax+268]
  00012	8b 80 3c 04 00
	00		 mov	 eax, DWORD PTR [eax+1084]
  00018	ff d0		 call	 eax
$LN3@OnEditCopy:
; File D:\git\src\IBK\IBK_DRFN\ProjSrc\SrcDrfn\Chart\ExControl\ExGridCtrl.cpp

; 1001 : }

  0001a	c3		 ret	 0
?OnEditCopy@CExGridCtrl@@UAEXXZ ENDP			; CExGridCtrl::OnEditCopy
_TEXT	ENDS
; Function compile flags: /Ogtp
; File D:\git\src\IBK\IBK_DRFN\ProjSrc\SrcDrfn\Chart\ExControl\ExGridCtrl.cpp
; File D:\git\src\IBK\IBK_DRFN\ProjSrc\SrcDrfn\Chart\ExControl\Include\GirdLoadHelper.h
; File D:\git\src\IBK\IBK_DRFN\ProjSrc\SrcDrfn\Chart\ExControl\ExGridCtrl.cpp
;	COMDAT ?OnEditCut@CExGridCtrl@@UAEXXZ
_TEXT	SEGMENT
?OnEditCut@CExGridCtrl@@UAEXXZ PROC			; CExGridCtrl::OnEditCut, COMDAT
; _this$ = ecx

; 995  : 	m_pLoader->OnEditCut();

  00000	8b 81 80 00 00
	00		 mov	 eax, DWORD PTR [ecx+128]
; File D:\git\src\IBK\IBK_DRFN\ProjSrc\SrcDrfn\Chart\ExControl\Include\GirdLoadHelper.h

; 2864 : 		if(!m_hLib)

  00006	83 78 04 00	 cmp	 DWORD PTR [eax+4], 0
  0000a	74 0e		 je	 SHORT $LN3@OnEditCut

; 2865 : 			return;
; 2866 : 
; 2867 : 		pOnEditCut(m_lpPointer);

  0000c	ff b0 0c 01 00
	00		 push	 DWORD PTR [eax+268]
  00012	8b 80 38 04 00
	00		 mov	 eax, DWORD PTR [eax+1080]
  00018	ff d0		 call	 eax
$LN3@OnEditCut:
; File D:\git\src\IBK\IBK_DRFN\ProjSrc\SrcDrfn\Chart\ExControl\ExGridCtrl.cpp

; 996  : }

  0001a	c3		 ret	 0
?OnEditCut@CExGridCtrl@@UAEXXZ ENDP			; CExGridCtrl::OnEditCut
_TEXT	ENDS
; Function compile flags: /Ogtp
; File D:\git\src\IBK\IBK_DRFN\ProjSrc\SrcDrfn\Chart\ExControl\ExGridCtrl.cpp
; File D:\git\src\IBK\IBK_DRFN\ProjSrc\SrcDrfn\Chart\ExControl\Include\GirdLoadHelper.h
; File D:\git\src\IBK\IBK_DRFN\ProjSrc\SrcDrfn\Chart\ExControl\ExGridCtrl.cpp
; File D:\git\src\IBK\IBK_DRFN\ProjSrc\SrcDrfn\Chart\ExControl\Include\GirdLoadHelper.h
; File D:\git\src\IBK\IBK_DRFN\ProjSrc\SrcDrfn\Chart\ExControl\ExGridCtrl.cpp
;	COMDAT ?OnDrop@CExGridCtrl@@UAEHPAVCOleDataObject@@KVCPoint@@@Z
_TEXT	SEGMENT
_pDataObject$ = 8					; size = 4
_dropEffect$ = 12					; size = 4
_point$ = 16						; size = 8
?OnDrop@CExGridCtrl@@UAEHPAVCOleDataObject@@KVCPoint@@@Z PROC ; CExGridCtrl::OnDrop, COMDAT
; _this$ = ecx

; 987  : {

  00000	55		 push	 ebp
  00001	8b ec		 mov	 ebp, esp

; 988  : 	return m_pLoader->OnDrop(pDataObject, dropEffect, point);

  00003	8b 81 80 00 00
	00		 mov	 eax, DWORD PTR [ecx+128]
; File D:\git\src\IBK\IBK_DRFN\ProjSrc\SrcDrfn\Chart\ExControl\Include\GirdLoadHelper.h

; 2856 : 		if(!m_hLib)

  00009	83 78 04 00	 cmp	 DWORD PTR [eax+4], 0
  0000d	75 06		 jne	 SHORT $LN4@OnDrop
; File D:\git\src\IBK\IBK_DRFN\ProjSrc\SrcDrfn\Chart\ExControl\ExGridCtrl.cpp

; 988  : 	return m_pLoader->OnDrop(pDataObject, dropEffect, point);

  0000f	33 c0		 xor	 eax, eax

; 989  : }

  00011	5d		 pop	 ebp
  00012	c2 10 00	 ret	 16			; 00000010H
$LN4@OnDrop:
; File D:\git\src\IBK\IBK_DRFN\ProjSrc\SrcDrfn\Chart\ExControl\Include\GirdLoadHelper.h

; 2859 : 		return pOnDrop(m_lpPointer, pDataObject, dwKeyState, point);

  00015	ff 75 14	 push	 DWORD PTR _point$[ebp+4]
  00018	ff 75 10	 push	 DWORD PTR _point$[ebp]
  0001b	ff 75 0c	 push	 DWORD PTR _dropEffect$[ebp]
  0001e	ff 75 08	 push	 DWORD PTR _pDataObject$[ebp]
  00021	ff b0 0c 01 00
	00		 push	 DWORD PTR [eax+268]
  00027	8b 80 34 04 00
	00		 mov	 eax, DWORD PTR [eax+1076]
  0002d	ff d0		 call	 eax
; File D:\git\src\IBK\IBK_DRFN\ProjSrc\SrcDrfn\Chart\ExControl\ExGridCtrl.cpp

; 989  : }

  0002f	5d		 pop	 ebp
  00030	c2 10 00	 ret	 16			; 00000010H
?OnDrop@CExGridCtrl@@UAEHPAVCOleDataObject@@KVCPoint@@@Z ENDP ; CExGridCtrl::OnDrop
_TEXT	ENDS
; Function compile flags: /Ogtp
; File D:\git\src\IBK\IBK_DRFN\ProjSrc\SrcDrfn\Chart\ExControl\ExGridCtrl.cpp
; File D:\git\src\IBK\IBK_DRFN\ProjSrc\SrcDrfn\Chart\ExControl\Include\GirdLoadHelper.h
; File D:\git\src\IBK\IBK_DRFN\ProjSrc\SrcDrfn\Chart\ExControl\ExGridCtrl.cpp
;	COMDAT ?OnDragLeave@CExGridCtrl@@UAEXXZ
_TEXT	SEGMENT
?OnDragLeave@CExGridCtrl@@UAEXXZ PROC			; CExGridCtrl::OnDragLeave, COMDAT
; _this$ = ecx

; 982  : 	m_pLoader->OnDragLeave();

  00000	8b 81 80 00 00
	00		 mov	 eax, DWORD PTR [ecx+128]
; File D:\git\src\IBK\IBK_DRFN\ProjSrc\SrcDrfn\Chart\ExControl\Include\GirdLoadHelper.h

; 2848 : 		if(!m_hLib)

  00006	83 78 04 00	 cmp	 DWORD PTR [eax+4], 0
  0000a	74 0e		 je	 SHORT $LN3@OnDragLeav

; 2849 : 			return;
; 2850 : 
; 2851 : 		pOnDragLeave(m_lpPointer);

  0000c	ff b0 0c 01 00
	00		 push	 DWORD PTR [eax+268]
  00012	8b 80 30 04 00
	00		 mov	 eax, DWORD PTR [eax+1072]
  00018	ff d0		 call	 eax
$LN3@OnDragLeav:
; File D:\git\src\IBK\IBK_DRFN\ProjSrc\SrcDrfn\Chart\ExControl\ExGridCtrl.cpp

; 983  : }

  0001a	c3		 ret	 0
?OnDragLeave@CExGridCtrl@@UAEXXZ ENDP			; CExGridCtrl::OnDragLeave
_TEXT	ENDS
; Function compile flags: /Ogtp
; File D:\git\src\IBK\IBK_DRFN\ProjSrc\SrcDrfn\Chart\ExControl\ExGridCtrl.cpp
; File D:\git\src\IBK\IBK_DRFN\ProjSrc\SrcDrfn\Chart\ExControl\Include\GirdLoadHelper.h
; File D:\git\src\IBK\IBK_DRFN\ProjSrc\SrcDrfn\Chart\ExControl\ExGridCtrl.cpp
; File D:\git\src\IBK\IBK_DRFN\ProjSrc\SrcDrfn\Chart\ExControl\Include\GirdLoadHelper.h
; File D:\git\src\IBK\IBK_DRFN\ProjSrc\SrcDrfn\Chart\ExControl\ExGridCtrl.cpp
;	COMDAT ?OnDragOver@CExGridCtrl@@UAEKPAVCOleDataObject@@KVCPoint@@@Z
_TEXT	SEGMENT
_pDataObject$ = 8					; size = 4
_dwKeyState$ = 12					; size = 4
_point$ = 16						; size = 8
?OnDragOver@CExGridCtrl@@UAEKPAVCOleDataObject@@KVCPoint@@@Z PROC ; CExGridCtrl::OnDragOver, COMDAT
; _this$ = ecx

; 969  : {

  00000	55		 push	 ebp
  00001	8b ec		 mov	 ebp, esp

; 970  : 	return m_pLoader->OnDragOver(pDataObject, dwKeyState, point);

  00003	8b 81 80 00 00
	00		 mov	 eax, DWORD PTR [ecx+128]
; File D:\git\src\IBK\IBK_DRFN\ProjSrc\SrcDrfn\Chart\ExControl\Include\GirdLoadHelper.h

; 2840 : 		if(!m_hLib)

  00009	83 78 04 00	 cmp	 DWORD PTR [eax+4], 0
  0000d	75 06		 jne	 SHORT $LN4@OnDragOver
; File D:\git\src\IBK\IBK_DRFN\ProjSrc\SrcDrfn\Chart\ExControl\ExGridCtrl.cpp

; 970  : 	return m_pLoader->OnDragOver(pDataObject, dwKeyState, point);

  0000f	33 c0		 xor	 eax, eax

; 971  : }

  00011	5d		 pop	 ebp
  00012	c2 10 00	 ret	 16			; 00000010H
$LN4@OnDragOver:
; File D:\git\src\IBK\IBK_DRFN\ProjSrc\SrcDrfn\Chart\ExControl\Include\GirdLoadHelper.h

; 2843 : 		return pOnDragOver(m_lpPointer, pDataObject, dwKeyState, point);

  00015	ff 75 14	 push	 DWORD PTR _point$[ebp+4]
  00018	ff 75 10	 push	 DWORD PTR _point$[ebp]
  0001b	ff 75 0c	 push	 DWORD PTR _dwKeyState$[ebp]
  0001e	ff 75 08	 push	 DWORD PTR _pDataObject$[ebp]
  00021	ff b0 0c 01 00
	00		 push	 DWORD PTR [eax+268]
  00027	8b 80 2c 04 00
	00		 mov	 eax, DWORD PTR [eax+1068]
  0002d	ff d0		 call	 eax
; File D:\git\src\IBK\IBK_DRFN\ProjSrc\SrcDrfn\Chart\ExControl\ExGridCtrl.cpp

; 971  : }

  0002f	5d		 pop	 ebp
  00030	c2 10 00	 ret	 16			; 00000010H
?OnDragOver@CExGridCtrl@@UAEKPAVCOleDataObject@@KVCPoint@@@Z ENDP ; CExGridCtrl::OnDragOver
_TEXT	ENDS
; Function compile flags: /Ogtp
; File D:\git\src\IBK\IBK_DRFN\ProjSrc\SrcDrfn\Chart\ExControl\ExGridCtrl.cpp
; File D:\git\src\IBK\IBK_DRFN\ProjSrc\SrcDrfn\Chart\ExControl\Include\GirdLoadHelper.h
; File D:\git\src\IBK\IBK_DRFN\ProjSrc\SrcDrfn\Chart\ExControl\ExGridCtrl.cpp
; File D:\git\src\IBK\IBK_DRFN\ProjSrc\SrcDrfn\Chart\ExControl\Include\GirdLoadHelper.h
; File D:\git\src\IBK\IBK_DRFN\ProjSrc\SrcDrfn\Chart\ExControl\ExGridCtrl.cpp
;	COMDAT ?OnDragEnter@CExGridCtrl@@UAEKPAVCOleDataObject@@KVCPoint@@@Z
_TEXT	SEGMENT
_pDataObject$ = 8					; size = 4
_dwKeyState$ = 12					; size = 4
_point$ = 16						; size = 8
?OnDragEnter@CExGridCtrl@@UAEKPAVCOleDataObject@@KVCPoint@@@Z PROC ; CExGridCtrl::OnDragEnter, COMDAT
; _this$ = ecx

; 975  : {

  00000	55		 push	 ebp
  00001	8b ec		 mov	 ebp, esp

; 976  : 	return m_pLoader->OnDragEnter(pDataObject, dwKeyState, point);

  00003	8b 81 80 00 00
	00		 mov	 eax, DWORD PTR [ecx+128]
; File D:\git\src\IBK\IBK_DRFN\ProjSrc\SrcDrfn\Chart\ExControl\Include\GirdLoadHelper.h

; 2832 : 		if(!m_hLib)

  00009	83 78 04 00	 cmp	 DWORD PTR [eax+4], 0
  0000d	75 06		 jne	 SHORT $LN4@OnDragEnte
; File D:\git\src\IBK\IBK_DRFN\ProjSrc\SrcDrfn\Chart\ExControl\ExGridCtrl.cpp

; 976  : 	return m_pLoader->OnDragEnter(pDataObject, dwKeyState, point);

  0000f	33 c0		 xor	 eax, eax

; 977  : }

  00011	5d		 pop	 ebp
  00012	c2 10 00	 ret	 16			; 00000010H
$LN4@OnDragEnte:
; File D:\git\src\IBK\IBK_DRFN\ProjSrc\SrcDrfn\Chart\ExControl\Include\GirdLoadHelper.h

; 2835 : 		return pOnDragEnter(m_lpPointer, pDataObject, dwKeyState, point);

  00015	ff 75 14	 push	 DWORD PTR _point$[ebp+4]
  00018	ff 75 10	 push	 DWORD PTR _point$[ebp]
  0001b	ff 75 0c	 push	 DWORD PTR _dwKeyState$[ebp]
  0001e	ff 75 08	 push	 DWORD PTR _pDataObject$[ebp]
  00021	ff b0 0c 01 00
	00		 push	 DWORD PTR [eax+268]
  00027	8b 80 28 04 00
	00		 mov	 eax, DWORD PTR [eax+1064]
  0002d	ff d0		 call	 eax
; File D:\git\src\IBK\IBK_DRFN\ProjSrc\SrcDrfn\Chart\ExControl\ExGridCtrl.cpp

; 977  : }

  0002f	5d		 pop	 ebp
  00030	c2 10 00	 ret	 16			; 00000010H
?OnDragEnter@CExGridCtrl@@UAEKPAVCOleDataObject@@KVCPoint@@@Z ENDP ; CExGridCtrl::OnDragEnter
_TEXT	ENDS
; Function compile flags: /Ogtp
; File D:\git\src\IBK\IBK_DRFN\ProjSrc\SrcDrfn\Chart\ExControl\ExGridCtrl.cpp
; File D:\git\src\IBK\IBK_DRFN\ProjSrc\SrcDrfn\Chart\ExControl\Include\GirdLoadHelper.h
; File D:\git\src\IBK\IBK_DRFN\ProjSrc\SrcDrfn\Chart\ExControl\ExGridCtrl.cpp
;	COMDAT ?OnBeginDrag@CExGridCtrl@@UAEXXZ
_TEXT	SEGMENT
?OnBeginDrag@CExGridCtrl@@UAEXXZ PROC			; CExGridCtrl::OnBeginDrag, COMDAT
; _this$ = ecx

; 964  : 	m_pLoader->OnBeginDrag();

  00000	8b 81 80 00 00
	00		 mov	 eax, DWORD PTR [ecx+128]
; File D:\git\src\IBK\IBK_DRFN\ProjSrc\SrcDrfn\Chart\ExControl\Include\GirdLoadHelper.h

; 2824 : 		if(!m_hLib)

  00006	83 78 04 00	 cmp	 DWORD PTR [eax+4], 0
  0000a	74 0e		 je	 SHORT $LN3@OnBeginDra

; 2825 : 			return;
; 2826 : 
; 2827 : 		pOnBeginDrag(m_lpPointer);

  0000c	ff b0 0c 01 00
	00		 push	 DWORD PTR [eax+268]
  00012	8b 80 24 04 00
	00		 mov	 eax, DWORD PTR [eax+1060]
  00018	ff d0		 call	 eax
$LN3@OnBeginDra:
; File D:\git\src\IBK\IBK_DRFN\ProjSrc\SrcDrfn\Chart\ExControl\ExGridCtrl.cpp

; 965  : }

  0001a	c3		 ret	 0
?OnBeginDrag@CExGridCtrl@@UAEXXZ ENDP			; CExGridCtrl::OnBeginDrag
_TEXT	ENDS
; Function compile flags: /Ogtp
; File D:\git\src\IBK\IBK_DRFN\ProjSrc\SrcDrfn\Chart\ExControl\ExGridCtrl.cpp
; File D:\git\src\IBK\IBK_DRFN\ProjSrc\SrcDrfn\Chart\ExControl\Include\GirdLoadHelper.h
; File D:\git\src\IBK\IBK_DRFN\ProjSrc\SrcDrfn\Chart\ExControl\ExGridCtrl.cpp
; File D:\git\src\IBK\IBK_DRFN\ProjSrc\SrcDrfn\Chart\ExControl\Include\GirdLoadHelper.h
; File D:\git\src\IBK\IBK_DRFN\ProjSrc\SrcDrfn\Chart\ExControl\ExGridCtrl.cpp
;	COMDAT ?PasteTextToGrid@CExGridCtrl@@UAEHVCCellID@@PAVCOleDataObject@@H@Z
_TEXT	SEGMENT
_cell$ = 8						; size = 8
_pDataObject$ = 16					; size = 4
_bSelectPastedCells$ = 20				; size = 4
?PasteTextToGrid@CExGridCtrl@@UAEHVCCellID@@PAVCOleDataObject@@H@Z PROC ; CExGridCtrl::PasteTextToGrid, COMDAT
; _this$ = ecx

; 954  : {

  00000	55		 push	 ebp
  00001	8b ec		 mov	 ebp, esp

; 955  : 	return m_pLoader->PasteTextToGrid(cell, pDataObject, bSelectPastedCells);

  00003	8b 81 80 00 00
	00		 mov	 eax, DWORD PTR [ecx+128]
; File D:\git\src\IBK\IBK_DRFN\ProjSrc\SrcDrfn\Chart\ExControl\Include\GirdLoadHelper.h

; 2816 : 		if(!m_hLib)

  00009	83 78 04 00	 cmp	 DWORD PTR [eax+4], 0
  0000d	75 06		 jne	 SHORT $LN4@PasteTextT
; File D:\git\src\IBK\IBK_DRFN\ProjSrc\SrcDrfn\Chart\ExControl\ExGridCtrl.cpp

; 955  : 	return m_pLoader->PasteTextToGrid(cell, pDataObject, bSelectPastedCells);

  0000f	33 c0		 xor	 eax, eax

; 956  : }

  00011	5d		 pop	 ebp
  00012	c2 10 00	 ret	 16			; 00000010H
$LN4@PasteTextT:
; File D:\git\src\IBK\IBK_DRFN\ProjSrc\SrcDrfn\Chart\ExControl\Include\GirdLoadHelper.h

; 2819 : 		return pPasteTextToGrid(m_lpPointer, cell, pDataObject, bSelectPastedCells);

  00015	ff 75 14	 push	 DWORD PTR _bSelectPastedCells$[ebp]
  00018	ff 75 10	 push	 DWORD PTR _pDataObject$[ebp]
  0001b	ff 75 0c	 push	 DWORD PTR _cell$[ebp+4]
  0001e	ff 75 08	 push	 DWORD PTR _cell$[ebp]
  00021	ff b0 0c 01 00
	00		 push	 DWORD PTR [eax+268]
  00027	8b 80 20 04 00
	00		 mov	 eax, DWORD PTR [eax+1056]
  0002d	ff d0		 call	 eax
; File D:\git\src\IBK\IBK_DRFN\ProjSrc\SrcDrfn\Chart\ExControl\ExGridCtrl.cpp

; 956  : }

  0002f	5d		 pop	 ebp
  00030	c2 10 00	 ret	 16			; 00000010H
?PasteTextToGrid@CExGridCtrl@@UAEHVCCellID@@PAVCOleDataObject@@H@Z ENDP ; CExGridCtrl::PasteTextToGrid
_TEXT	ENDS
; Function compile flags: /Ogtp
; File D:\git\src\IBK\IBK_DRFN\ProjSrc\SrcDrfn\Chart\ExControl\ExGridCtrl.cpp
; File D:\git\src\IBK\IBK_DRFN\ProjSrc\SrcDrfn\Chart\ExControl\Include\GirdLoadHelper.h
; File D:\git\src\IBK\IBK_DRFN\ProjSrc\SrcDrfn\Chart\ExControl\ExGridCtrl.cpp
; File D:\git\src\IBK\IBK_DRFN\ProjSrc\SrcDrfn\Chart\ExControl\Include\GirdLoadHelper.h
; File D:\git\src\IBK\IBK_DRFN\ProjSrc\SrcDrfn\Chart\ExControl\ExGridCtrl.cpp
;	COMDAT ?CopyTextFromGrid@CExGridCtrl@@UAEPAVCOleDataSource@@XZ
_TEXT	SEGMENT
?CopyTextFromGrid@CExGridCtrl@@UAEPAVCOleDataSource@@XZ PROC ; CExGridCtrl::CopyTextFromGrid, COMDAT
; _this$ = ecx

; 949  : 	return m_pLoader->CopyTextFromGrid();

  00000	8b 81 80 00 00
	00		 mov	 eax, DWORD PTR [ecx+128]
; File D:\git\src\IBK\IBK_DRFN\ProjSrc\SrcDrfn\Chart\ExControl\Include\GirdLoadHelper.h

; 2808 : 		if(!m_hLib)

  00006	83 78 04 00	 cmp	 DWORD PTR [eax+4], 0
  0000a	75 03		 jne	 SHORT $LN4@CopyTextFr
; File D:\git\src\IBK\IBK_DRFN\ProjSrc\SrcDrfn\Chart\ExControl\ExGridCtrl.cpp

; 949  : 	return m_pLoader->CopyTextFromGrid();

  0000c	33 c0		 xor	 eax, eax

; 950  : }

  0000e	c3		 ret	 0
$LN4@CopyTextFr:
; File D:\git\src\IBK\IBK_DRFN\ProjSrc\SrcDrfn\Chart\ExControl\Include\GirdLoadHelper.h

; 2811 : 		return pCopyTextFromGrid(m_lpPointer);

  0000f	ff b0 0c 01 00
	00		 push	 DWORD PTR [eax+268]
  00015	8b 80 1c 04 00
	00		 mov	 eax, DWORD PTR [eax+1052]
  0001b	ff d0		 call	 eax
; File D:\git\src\IBK\IBK_DRFN\ProjSrc\SrcDrfn\Chart\ExControl\ExGridCtrl.cpp

; 950  : }

  0001d	c3		 ret	 0
?CopyTextFromGrid@CExGridCtrl@@UAEPAVCOleDataSource@@XZ ENDP ; CExGridCtrl::CopyTextFromGrid
_TEXT	ENDS
; Function compile flags: /Ogtp
; File D:\git\src\IBK\IBK_DRFN\ProjSrc\SrcDrfn\Chart\ExControl\ExGridCtrl.cpp
; File D:\git\src\IBK\IBK_DRFN\ProjSrc\SrcDrfn\Chart\ExControl\Include\GirdLoadHelper.h
; File D:\git\src\IBK\IBK_DRFN\ProjSrc\SrcDrfn\Chart\ExControl\ExGridCtrl.cpp
;	COMDAT ?CutSelectedText@CExGridCtrl@@UAEXXZ
_TEXT	SEGMENT
?CutSelectedText@CExGridCtrl@@UAEXXZ PROC		; CExGridCtrl::CutSelectedText, COMDAT
; _this$ = ecx

; 943  : 	m_pLoader->CutSelectedText();

  00000	8b 81 80 00 00
	00		 mov	 eax, DWORD PTR [ecx+128]
; File D:\git\src\IBK\IBK_DRFN\ProjSrc\SrcDrfn\Chart\ExControl\Include\GirdLoadHelper.h

; 2800 : 		if(!m_hLib)

  00006	83 78 04 00	 cmp	 DWORD PTR [eax+4], 0
  0000a	74 0e		 je	 SHORT $LN3@CutSelecte

; 2801 : 			return;
; 2802 : 
; 2803 : 		pCutSelectedText(m_lpPointer);

  0000c	ff b0 0c 01 00
	00		 push	 DWORD PTR [eax+268]
  00012	8b 80 18 04 00
	00		 mov	 eax, DWORD PTR [eax+1048]
  00018	ff d0		 call	 eax
$LN3@CutSelecte:
; File D:\git\src\IBK\IBK_DRFN\ProjSrc\SrcDrfn\Chart\ExControl\ExGridCtrl.cpp

; 944  : }

  0001a	c3		 ret	 0
?CutSelectedText@CExGridCtrl@@UAEXXZ ENDP		; CExGridCtrl::CutSelectedText
_TEXT	ENDS
; Function compile flags: /Ogtp
; File D:\git\src\IBK\IBK_DRFN\ProjSrc\SrcDrfn\Chart\ExControl\ExGridCtrl.cpp
; File D:\git\src\IBK\IBK_DRFN\ProjSrc\SrcDrfn\Chart\ExControl\Include\GirdLoadHelper.h
; File D:\git\src\IBK\IBK_DRFN\ProjSrc\SrcDrfn\Chart\ExControl\ExGridCtrl.cpp
; File D:\git\src\IBK\IBK_DRFN\ProjSrc\SrcDrfn\Chart\ExControl\Include\GirdLoadHelper.h
; File D:\git\src\IBK\IBK_DRFN\ProjSrc\SrcDrfn\Chart\ExControl\ExGridCtrl.cpp
;	COMDAT ?IsValid@CExGridCtrl@@QAEHAAVCCellRange@@@Z
_TEXT	SEGMENT
_range$ = 8						; size = 4
?IsValid@CExGridCtrl@@QAEHAAVCCellRange@@@Z PROC	; CExGridCtrl::IsValid, COMDAT
; _this$ = ecx

; 837  : {

  00000	55		 push	 ebp
  00001	8b ec		 mov	 ebp, esp

; 838  : 	return m_pLoader->IsValid(range);

  00003	8b 81 80 00 00
	00		 mov	 eax, DWORD PTR [ecx+128]
; File D:\git\src\IBK\IBK_DRFN\ProjSrc\SrcDrfn\Chart\ExControl\Include\GirdLoadHelper.h

; 2792 : 		if(!m_hLib)

  00009	83 78 04 00	 cmp	 DWORD PTR [eax+4], 0
  0000d	75 06		 jne	 SHORT $LN4@IsValid
; File D:\git\src\IBK\IBK_DRFN\ProjSrc\SrcDrfn\Chart\ExControl\ExGridCtrl.cpp

; 838  : 	return m_pLoader->IsValid(range);

  0000f	33 c0		 xor	 eax, eax

; 839  : }

  00011	5d		 pop	 ebp
  00012	c2 04 00	 ret	 4
$LN4@IsValid:
; File D:\git\src\IBK\IBK_DRFN\ProjSrc\SrcDrfn\Chart\ExControl\Include\GirdLoadHelper.h

; 2795 : 		return pIsValid3(m_lpPointer, range);

  00015	ff 75 08	 push	 DWORD PTR _range$[ebp]
  00018	ff b0 0c 01 00
	00		 push	 DWORD PTR [eax+268]
  0001e	8b 80 14 04 00
	00		 mov	 eax, DWORD PTR [eax+1044]
  00024	ff d0		 call	 eax
; File D:\git\src\IBK\IBK_DRFN\ProjSrc\SrcDrfn\Chart\ExControl\ExGridCtrl.cpp

; 839  : }

  00026	5d		 pop	 ebp
  00027	c2 04 00	 ret	 4
?IsValid@CExGridCtrl@@QAEHAAVCCellRange@@@Z ENDP	; CExGridCtrl::IsValid
_TEXT	ENDS
; Function compile flags: /Ogtp
; File D:\git\src\IBK\IBK_DRFN\ProjSrc\SrcDrfn\Chart\ExControl\ExGridCtrl.cpp
; File D:\git\src\IBK\IBK_DRFN\ProjSrc\SrcDrfn\Chart\ExControl\Include\GirdLoadHelper.h
; File D:\git\src\IBK\IBK_DRFN\ProjSrc\SrcDrfn\Chart\ExControl\ExGridCtrl.cpp
; File D:\git\src\IBK\IBK_DRFN\ProjSrc\SrcDrfn\Chart\ExControl\Include\GirdLoadHelper.h
; File D:\git\src\IBK\IBK_DRFN\ProjSrc\SrcDrfn\Chart\ExControl\ExGridCtrl.cpp
;	COMDAT ?IsValid@CExGridCtrl@@QAEHAAVCCellID@@@Z
_TEXT	SEGMENT
_cell$ = 8						; size = 4
?IsValid@CExGridCtrl@@QAEHAAVCCellID@@@Z PROC		; CExGridCtrl::IsValid, COMDAT
; _this$ = ecx

; 830  : {

  00000	55		 push	 ebp
  00001	8b ec		 mov	 ebp, esp

; 831  : 	return m_pLoader->IsValid(cell);

  00003	8b 81 80 00 00
	00		 mov	 eax, DWORD PTR [ecx+128]
; File D:\git\src\IBK\IBK_DRFN\ProjSrc\SrcDrfn\Chart\ExControl\Include\GirdLoadHelper.h

; 2784 : 		if(!m_hLib)

  00009	83 78 04 00	 cmp	 DWORD PTR [eax+4], 0
  0000d	75 06		 jne	 SHORT $LN4@IsValid
; File D:\git\src\IBK\IBK_DRFN\ProjSrc\SrcDrfn\Chart\ExControl\ExGridCtrl.cpp

; 831  : 	return m_pLoader->IsValid(cell);

  0000f	33 c0		 xor	 eax, eax

; 832  : }

  00011	5d		 pop	 ebp
  00012	c2 04 00	 ret	 4
$LN4@IsValid:
; File D:\git\src\IBK\IBK_DRFN\ProjSrc\SrcDrfn\Chart\ExControl\Include\GirdLoadHelper.h

; 2787 : 		return pIsValid2(m_lpPointer, cell);

  00015	ff 75 08	 push	 DWORD PTR _cell$[ebp]
  00018	ff b0 0c 01 00
	00		 push	 DWORD PTR [eax+268]
  0001e	8b 80 10 04 00
	00		 mov	 eax, DWORD PTR [eax+1040]
  00024	ff d0		 call	 eax
; File D:\git\src\IBK\IBK_DRFN\ProjSrc\SrcDrfn\Chart\ExControl\ExGridCtrl.cpp

; 832  : }

  00026	5d		 pop	 ebp
  00027	c2 04 00	 ret	 4
?IsValid@CExGridCtrl@@QAEHAAVCCellID@@@Z ENDP		; CExGridCtrl::IsValid
_TEXT	ENDS
; Function compile flags: /Ogtp
; File D:\git\src\IBK\IBK_DRFN\ProjSrc\SrcDrfn\Chart\ExControl\ExGridCtrl.cpp
; File D:\git\src\IBK\IBK_DRFN\ProjSrc\SrcDrfn\Chart\ExControl\Include\GirdLoadHelper.h
; File D:\git\src\IBK\IBK_DRFN\ProjSrc\SrcDrfn\Chart\ExControl\ExGridCtrl.cpp
; File D:\git\src\IBK\IBK_DRFN\ProjSrc\SrcDrfn\Chart\ExControl\Include\GirdLoadHelper.h
; File D:\git\src\IBK\IBK_DRFN\ProjSrc\SrcDrfn\Chart\ExControl\ExGridCtrl.cpp
;	COMDAT ?IsValid@CExGridCtrl@@QAEHHH@Z
_TEXT	SEGMENT
_nRow$ = 8						; size = 4
_nCol$ = 12						; size = 4
?IsValid@CExGridCtrl@@QAEHHH@Z PROC			; CExGridCtrl::IsValid, COMDAT
; _this$ = ecx

; 825  : {

  00000	55		 push	 ebp
  00001	8b ec		 mov	 ebp, esp

; 826  : 	return m_pLoader->IsValid(nRow, nCol);

  00003	8b 81 80 00 00
	00		 mov	 eax, DWORD PTR [ecx+128]
; File D:\git\src\IBK\IBK_DRFN\ProjSrc\SrcDrfn\Chart\ExControl\Include\GirdLoadHelper.h

; 2776 : 		if(!m_hLib)

  00009	83 78 04 00	 cmp	 DWORD PTR [eax+4], 0
  0000d	75 06		 jne	 SHORT $LN4@IsValid
; File D:\git\src\IBK\IBK_DRFN\ProjSrc\SrcDrfn\Chart\ExControl\ExGridCtrl.cpp

; 826  : 	return m_pLoader->IsValid(nRow, nCol);

  0000f	33 c0		 xor	 eax, eax

; 827  : }

  00011	5d		 pop	 ebp
  00012	c2 08 00	 ret	 8
$LN4@IsValid:
; File D:\git\src\IBK\IBK_DRFN\ProjSrc\SrcDrfn\Chart\ExControl\Include\GirdLoadHelper.h

; 2779 : 		 return pIsValid(m_lpPointer, nRow, nCol);

  00015	ff 75 0c	 push	 DWORD PTR _nCol$[ebp]
  00018	ff 75 08	 push	 DWORD PTR _nRow$[ebp]
  0001b	ff b0 0c 01 00
	00		 push	 DWORD PTR [eax+268]
  00021	8b 80 0c 04 00
	00		 mov	 eax, DWORD PTR [eax+1036]
  00027	ff d0		 call	 eax
; File D:\git\src\IBK\IBK_DRFN\ProjSrc\SrcDrfn\Chart\ExControl\ExGridCtrl.cpp

; 827  : }

  00029	5d		 pop	 ebp
  0002a	c2 08 00	 ret	 8
?IsValid@CExGridCtrl@@QAEHHH@Z ENDP			; CExGridCtrl::IsValid
_TEXT	ENDS
; Function compile flags: /Ogtp
; File D:\git\src\IBK\IBK_DRFN\ProjSrc\SrcDrfn\Chart\ExControl\ExGridCtrl.cpp
; File D:\git\src\IBK\IBK_DRFN\ProjSrc\SrcDrfn\Chart\ExControl\Include\GirdLoadHelper.h
; File D:\git\src\IBK\IBK_DRFN\ProjSrc\SrcDrfn\Chart\ExControl\ExGridCtrl.cpp
;	COMDAT ?SetSelectedRange@CExGridCtrl@@QAEXHHHHHH@Z
_TEXT	SEGMENT
_nMinRow$ = 8						; size = 4
_nMinCol$ = 12						; size = 4
_nMaxRow$ = 16						; size = 4
_nMaxCol$ = 20						; size = 4
_bForceRepaint$ = 24					; size = 4
_bSelectCells$ = 28					; size = 4
?SetSelectedRange@CExGridCtrl@@QAEXHHHHHH@Z PROC	; CExGridCtrl::SetSelectedRange, COMDAT
; _this$ = ecx

; 891  : {

  00000	55		 push	 ebp
  00001	8b ec		 mov	 ebp, esp

; 892  : 	m_pLoader->SetSelectedRange(nMinRow, nMinCol, nMaxRow, nMaxCol, bForceRepaint, bSelectCells);

  00003	8b 81 80 00 00
	00		 mov	 eax, DWORD PTR [ecx+128]
; File D:\git\src\IBK\IBK_DRFN\ProjSrc\SrcDrfn\Chart\ExControl\Include\GirdLoadHelper.h

; 2768 : 		if(!m_hLib)

  00009	83 78 04 00	 cmp	 DWORD PTR [eax+4], 0
  0000d	74 20		 je	 SHORT $LN3@SetSelecte

; 2769 : 			return;
; 2770 : 
; 2771 : 		pSetSelectedRange2(m_lpPointer, nMinRow, nMinCol, nMaxRow, nMaxCol, bForceRepaint, bSelectCells);

  0000f	ff 75 1c	 push	 DWORD PTR _bSelectCells$[ebp]
  00012	ff 75 18	 push	 DWORD PTR _bForceRepaint$[ebp]
  00015	ff 75 14	 push	 DWORD PTR _nMaxCol$[ebp]
  00018	ff 75 10	 push	 DWORD PTR _nMaxRow$[ebp]
  0001b	ff 75 0c	 push	 DWORD PTR _nMinCol$[ebp]
  0001e	ff 75 08	 push	 DWORD PTR _nMinRow$[ebp]
  00021	ff b0 0c 01 00
	00		 push	 DWORD PTR [eax+268]
  00027	8b 80 08 04 00
	00		 mov	 eax, DWORD PTR [eax+1032]
  0002d	ff d0		 call	 eax
$LN3@SetSelecte:
; File D:\git\src\IBK\IBK_DRFN\ProjSrc\SrcDrfn\Chart\ExControl\ExGridCtrl.cpp

; 893  : }

  0002f	5d		 pop	 ebp
  00030	c2 18 00	 ret	 24			; 00000018H
?SetSelectedRange@CExGridCtrl@@QAEXHHHHHH@Z ENDP	; CExGridCtrl::SetSelectedRange
_TEXT	ENDS
; Function compile flags: /Ogtp
; File D:\git\src\IBK\IBK_DRFN\ProjSrc\SrcDrfn\Chart\ExControl\ExGridCtrl.cpp
; File D:\git\src\IBK\IBK_DRFN\ProjSrc\SrcDrfn\Chart\ExControl\Include\GirdLoadHelper.h
; File D:\git\src\IBK\IBK_DRFN\ProjSrc\SrcDrfn\Chart\ExControl\ExGridCtrl.cpp
;	COMDAT ?SetSelectedRange@CExGridCtrl@@QAEXAAVCCellRange@@HH@Z
_TEXT	SEGMENT
_Range$ = 8						; size = 4
_bForceRepaint$ = 12					; size = 4
_bSelectCells$ = 16					; size = 4
?SetSelectedRange@CExGridCtrl@@QAEXAAVCCellRange@@HH@Z PROC ; CExGridCtrl::SetSelectedRange, COMDAT
; _this$ = ecx

; 886  : {

  00000	55		 push	 ebp
  00001	8b ec		 mov	 ebp, esp

; 887  : 	m_pLoader->SetSelectedRange(Range, bForceRepaint, bSelectCells);

  00003	8b 81 80 00 00
	00		 mov	 eax, DWORD PTR [ecx+128]
; File D:\git\src\IBK\IBK_DRFN\ProjSrc\SrcDrfn\Chart\ExControl\Include\GirdLoadHelper.h

; 2760 : 		if(!m_hLib)

  00009	83 78 04 00	 cmp	 DWORD PTR [eax+4], 0
  0000d	74 17		 je	 SHORT $LN3@SetSelecte

; 2761 : 			return;
; 2762 : 
; 2763 : 		pSetSelectedRange(m_lpPointer, Range, bForceRepaint, bSelectCells);

  0000f	ff 75 10	 push	 DWORD PTR _bSelectCells$[ebp]
  00012	ff 75 0c	 push	 DWORD PTR _bForceRepaint$[ebp]
  00015	ff 75 08	 push	 DWORD PTR _Range$[ebp]
  00018	ff b0 0c 01 00
	00		 push	 DWORD PTR [eax+268]
  0001e	8b 80 04 04 00
	00		 mov	 eax, DWORD PTR [eax+1028]
  00024	ff d0		 call	 eax
$LN3@SetSelecte:
; File D:\git\src\IBK\IBK_DRFN\ProjSrc\SrcDrfn\Chart\ExControl\ExGridCtrl.cpp

; 888  : }

  00026	5d		 pop	 ebp
  00027	c2 0c 00	 ret	 12			; 0000000cH
?SetSelectedRange@CExGridCtrl@@QAEXAAVCCellRange@@HH@Z ENDP ; CExGridCtrl::SetSelectedRange
_TEXT	ENDS
; Function compile flags: /Ogtp
; File D:\git\src\IBK\IBK_DRFN\ProjSrc\SrcDrfn\Chart\ExControl\ExGridCtrl.cpp
; File D:\git\src\IBK\IBK_DRFN\ProjSrc\SrcDrfn\Chart\ExControl\Include\GirdLoadHelper.h
; File D:\git\src\IBK\IBK_DRFN\ProjSrc\SrcDrfn\Inc\_COMMON\CellRange.h
; File D:\git\src\IBK\IBK_DRFN\ProjSrc\SrcDrfn\Chart\ExControl\ExGridCtrl.cpp
; File D:\git\src\IBK\IBK_DRFN\ProjSrc\SrcDrfn\Chart\ExControl\Include\GirdLoadHelper.h
; File D:\git\src\IBK\IBK_DRFN\ProjSrc\SrcDrfn\Chart\ExControl\ExGridCtrl.cpp
;	COMDAT ?GetSelectedCellRange@CExGridCtrl@@QAE?AVCCellRange@@XZ
_TEXT	SEGMENT
$T1 = -16						; size = 16
___$ReturnUdt$ = 8					; size = 4
?GetSelectedCellRange@CExGridCtrl@@QAE?AVCCellRange@@XZ PROC ; CExGridCtrl::GetSelectedCellRange, COMDAT
; _this$ = ecx

; 1082 : {

  00000	55		 push	 ebp
  00001	8b ec		 mov	 ebp, esp

; 1083 : 	return m_pLoader->GetSelectedCellRange();

  00003	8b 81 80 00 00
	00		 mov	 eax, DWORD PTR [ecx+128]
  00009	83 ec 10	 sub	 esp, 16			; 00000010H
; File D:\git\src\IBK\IBK_DRFN\ProjSrc\SrcDrfn\Chart\ExControl\Include\GirdLoadHelper.h

; 2752 : 		if(!m_hLib)

  0000c	83 78 04 00	 cmp	 DWORD PTR [eax+4], 0
  00010	75 24		 jne	 SHORT $LN4@GetSelecte
; File D:\git\src\IBK\IBK_DRFN\ProjSrc\SrcDrfn\Inc\_COMMON\CellRange.h

; 99   :      m_nMinRow = minRow;

  00012	8b 45 08	 mov	 eax, DWORD PTR ___$ReturnUdt$[ebp]
  00015	c7 00 ff ff ff
	ff		 mov	 DWORD PTR [eax], -1

; 100  :      m_nMinCol = minCol;

  0001b	c7 40 04 ff ff
	ff ff		 mov	 DWORD PTR [eax+4], -1

; 101  :      m_nMaxRow = maxRow;

  00022	c7 40 08 ff ff
	ff ff		 mov	 DWORD PTR [eax+8], -1

; 102  :      m_nMaxCol = maxCol;

  00029	c7 40 0c ff ff
	ff ff		 mov	 DWORD PTR [eax+12], -1
; File D:\git\src\IBK\IBK_DRFN\ProjSrc\SrcDrfn\Chart\ExControl\ExGridCtrl.cpp

; 1084 : }

  00030	8b e5		 mov	 esp, ebp
  00032	5d		 pop	 ebp
  00033	c2 04 00	 ret	 4
$LN4@GetSelecte:
; File D:\git\src\IBK\IBK_DRFN\ProjSrc\SrcDrfn\Chart\ExControl\Include\GirdLoadHelper.h

; 2755 : 		return pGetSelectedCellRange(m_lpPointer);

  00036	ff b0 0c 01 00
	00		 push	 DWORD PTR [eax+268]
  0003c	8b 80 00 04 00
	00		 mov	 eax, DWORD PTR [eax+1024]
  00042	8d 4d f0	 lea	 ecx, DWORD PTR $T1[ebp]
  00045	51		 push	 ecx
  00046	ff d0		 call	 eax
  00048	0f 10 00	 movups	 xmm0, XMMWORD PTR [eax]
  0004b	8b 45 08	 mov	 eax, DWORD PTR ___$ReturnUdt$[ebp]
  0004e	0f 11 00	 movups	 XMMWORD PTR [eax], xmm0
; File D:\git\src\IBK\IBK_DRFN\ProjSrc\SrcDrfn\Chart\ExControl\ExGridCtrl.cpp

; 1084 : }

  00051	8b e5		 mov	 esp, ebp
  00053	5d		 pop	 ebp
  00054	c2 04 00	 ret	 4
?GetSelectedCellRange@CExGridCtrl@@QAE?AVCCellRange@@XZ ENDP ; CExGridCtrl::GetSelectedCellRange
_TEXT	ENDS
; Function compile flags: /Ogtp
; File D:\git\src\IBK\IBK_DRFN\ProjSrc\SrcDrfn\Chart\ExControl\ExGridCtrl.cpp
; File D:\git\src\IBK\IBK_DRFN\ProjSrc\SrcDrfn\Chart\ExControl\Include\GirdLoadHelper.h
; File D:\git\src\IBK\IBK_DRFN\ProjSrc\SrcDrfn\Inc\_COMMON\CellRange.h
; File D:\git\src\IBK\IBK_DRFN\ProjSrc\SrcDrfn\Chart\ExControl\ExGridCtrl.cpp
; File D:\git\src\IBK\IBK_DRFN\ProjSrc\SrcDrfn\Chart\ExControl\Include\GirdLoadHelper.h
; File D:\git\src\IBK\IBK_DRFN\ProjSrc\SrcDrfn\Chart\ExControl\ExGridCtrl.cpp
;	COMDAT ?GetCellRange@CExGridCtrl@@QAE?AVCCellRange@@XZ
_TEXT	SEGMENT
$T1 = -16						; size = 16
___$ReturnUdt$ = 8					; size = 4
?GetCellRange@CExGridCtrl@@QAE?AVCCellRange@@XZ PROC	; CExGridCtrl::GetCellRange, COMDAT
; _this$ = ecx

; 1087 : {

  00000	55		 push	 ebp
  00001	8b ec		 mov	 ebp, esp

; 1088 : 	return m_pLoader->GetCellRange();

  00003	8b 81 80 00 00
	00		 mov	 eax, DWORD PTR [ecx+128]
  00009	83 ec 10	 sub	 esp, 16			; 00000010H
; File D:\git\src\IBK\IBK_DRFN\ProjSrc\SrcDrfn\Chart\ExControl\Include\GirdLoadHelper.h

; 2744 : 		if(!m_hLib)

  0000c	83 78 04 00	 cmp	 DWORD PTR [eax+4], 0
  00010	75 24		 jne	 SHORT $LN4@GetCellRan
; File D:\git\src\IBK\IBK_DRFN\ProjSrc\SrcDrfn\Inc\_COMMON\CellRange.h

; 99   :      m_nMinRow = minRow;

  00012	8b 45 08	 mov	 eax, DWORD PTR ___$ReturnUdt$[ebp]
  00015	c7 00 ff ff ff
	ff		 mov	 DWORD PTR [eax], -1

; 100  :      m_nMinCol = minCol;

  0001b	c7 40 04 ff ff
	ff ff		 mov	 DWORD PTR [eax+4], -1

; 101  :      m_nMaxRow = maxRow;

  00022	c7 40 08 ff ff
	ff ff		 mov	 DWORD PTR [eax+8], -1

; 102  :      m_nMaxCol = maxCol;

  00029	c7 40 0c ff ff
	ff ff		 mov	 DWORD PTR [eax+12], -1
; File D:\git\src\IBK\IBK_DRFN\ProjSrc\SrcDrfn\Chart\ExControl\ExGridCtrl.cpp

; 1089 : }

  00030	8b e5		 mov	 esp, ebp
  00032	5d		 pop	 ebp
  00033	c2 04 00	 ret	 4
$LN4@GetCellRan:
; File D:\git\src\IBK\IBK_DRFN\ProjSrc\SrcDrfn\Chart\ExControl\Include\GirdLoadHelper.h

; 2747 : 		return pGetCellRange(m_lpPointer);

  00036	ff b0 0c 01 00
	00		 push	 DWORD PTR [eax+268]
  0003c	8b 80 fc 03 00
	00		 mov	 eax, DWORD PTR [eax+1020]
  00042	8d 4d f0	 lea	 ecx, DWORD PTR $T1[ebp]
  00045	51		 push	 ecx
  00046	ff d0		 call	 eax
  00048	0f 10 00	 movups	 xmm0, XMMWORD PTR [eax]
  0004b	8b 45 08	 mov	 eax, DWORD PTR ___$ReturnUdt$[ebp]
  0004e	0f 11 00	 movups	 XMMWORD PTR [eax], xmm0
; File D:\git\src\IBK\IBK_DRFN\ProjSrc\SrcDrfn\Chart\ExControl\ExGridCtrl.cpp

; 1089 : }

  00051	8b e5		 mov	 esp, ebp
  00053	5d		 pop	 ebp
  00054	c2 04 00	 ret	 4
?GetCellRange@CExGridCtrl@@QAE?AVCCellRange@@XZ ENDP	; CExGridCtrl::GetCellRange
_TEXT	ENDS
; Function compile flags: /Ogtp
; File D:\git\src\IBK\IBK_DRFN\ProjSrc\SrcDrfn\Chart\ExControl\ExGridCtrl.cpp
; File D:\git\src\IBK\IBK_DRFN\ProjSrc\SrcDrfn\Chart\ExControl\Include\GirdLoadHelper.h
; File D:\git\src\IBK\IBK_DRFN\ProjSrc\SrcDrfn\Chart\ExControl\ExGridCtrl.cpp
; File D:\git\src\IBK\IBK_DRFN\ProjSrc\SrcDrfn\Chart\ExControl\Include\GirdLoadHelper.h
; File D:\git\src\IBK\IBK_DRFN\ProjSrc\SrcDrfn\Chart\ExControl\ExGridCtrl.cpp
;	COMDAT ?Load@CExGridCtrl@@QAEHPBDD@Z
_TEXT	SEGMENT
_filename$ = 8						; size = 4
_chSeparator$ = 12					; size = 1
?Load@CExGridCtrl@@QAEHPBDD@Z PROC			; CExGridCtrl::Load, COMDAT
; _this$ = ecx

; 1667 : {

  00000	55		 push	 ebp
  00001	8b ec		 mov	 ebp, esp

; 1668 : 	return m_pLoader->Load(filename, chSeparator);

  00003	8b 81 80 00 00
	00		 mov	 eax, DWORD PTR [ecx+128]
; File D:\git\src\IBK\IBK_DRFN\ProjSrc\SrcDrfn\Chart\ExControl\Include\GirdLoadHelper.h

; 2736 : 		if(!m_hLib)

  00009	83 78 04 00	 cmp	 DWORD PTR [eax+4], 0
  0000d	75 06		 jne	 SHORT $LN4@Load
; File D:\git\src\IBK\IBK_DRFN\ProjSrc\SrcDrfn\Chart\ExControl\ExGridCtrl.cpp

; 1668 : 	return m_pLoader->Load(filename, chSeparator);

  0000f	33 c0		 xor	 eax, eax

; 1669 : }

  00011	5d		 pop	 ebp
  00012	c2 08 00	 ret	 8
$LN4@Load:
; File D:\git\src\IBK\IBK_DRFN\ProjSrc\SrcDrfn\Chart\ExControl\Include\GirdLoadHelper.h

; 2739 : 		return pLoad(m_lpPointer, filename, chSeparator);

  00015	ff 75 0c	 push	 DWORD PTR _chSeparator$[ebp]
  00018	ff 75 08	 push	 DWORD PTR _filename$[ebp]
  0001b	ff b0 0c 01 00
	00		 push	 DWORD PTR [eax+268]
  00021	8b 80 f8 03 00
	00		 mov	 eax, DWORD PTR [eax+1016]
  00027	ff d0		 call	 eax
; File D:\git\src\IBK\IBK_DRFN\ProjSrc\SrcDrfn\Chart\ExControl\ExGridCtrl.cpp

; 1669 : }

  00029	5d		 pop	 ebp
  0002a	c2 08 00	 ret	 8
?Load@CExGridCtrl@@QAEHPBDD@Z ENDP			; CExGridCtrl::Load
_TEXT	ENDS
; Function compile flags: /Ogtp
; File D:\git\src\IBK\IBK_DRFN\ProjSrc\SrcDrfn\Chart\ExControl\ExGridCtrl.cpp
; File D:\git\src\IBK\IBK_DRFN\ProjSrc\SrcDrfn\Chart\ExControl\Include\GirdLoadHelper.h
; File D:\git\src\IBK\IBK_DRFN\ProjSrc\SrcDrfn\Chart\ExControl\ExGridCtrl.cpp
; File D:\git\src\IBK\IBK_DRFN\ProjSrc\SrcDrfn\Chart\ExControl\Include\GirdLoadHelper.h
; File D:\git\src\IBK\IBK_DRFN\ProjSrc\SrcDrfn\Chart\ExControl\ExGridCtrl.cpp
;	COMDAT ?Save@CExGridCtrl@@QAEHPBDD@Z
_TEXT	SEGMENT
_filename$ = 8						; size = 4
_chSeparator$ = 12					; size = 1
?Save@CExGridCtrl@@QAEHPBDD@Z PROC			; CExGridCtrl::Save, COMDAT
; _this$ = ecx

; 1662 : {

  00000	55		 push	 ebp
  00001	8b ec		 mov	 ebp, esp

; 1663 : 	return m_pLoader->Save(filename, chSeparator);

  00003	8b 81 80 00 00
	00		 mov	 eax, DWORD PTR [ecx+128]
; File D:\git\src\IBK\IBK_DRFN\ProjSrc\SrcDrfn\Chart\ExControl\Include\GirdLoadHelper.h

; 2728 : 		if(!m_hLib)

  00009	83 78 04 00	 cmp	 DWORD PTR [eax+4], 0
  0000d	75 06		 jne	 SHORT $LN4@Save
; File D:\git\src\IBK\IBK_DRFN\ProjSrc\SrcDrfn\Chart\ExControl\ExGridCtrl.cpp

; 1663 : 	return m_pLoader->Save(filename, chSeparator);

  0000f	33 c0		 xor	 eax, eax

; 1664 : }

  00011	5d		 pop	 ebp
  00012	c2 08 00	 ret	 8
$LN4@Save:
; File D:\git\src\IBK\IBK_DRFN\ProjSrc\SrcDrfn\Chart\ExControl\Include\GirdLoadHelper.h

; 2731 : 		return pSave(m_lpPointer, filename, chSeparator);

  00015	ff 75 0c	 push	 DWORD PTR _chSeparator$[ebp]
  00018	ff 75 08	 push	 DWORD PTR _filename$[ebp]
  0001b	ff b0 0c 01 00
	00		 push	 DWORD PTR [eax+268]
  00021	8b 80 f4 03 00
	00		 mov	 eax, DWORD PTR [eax+1012]
  00027	ff d0		 call	 eax
; File D:\git\src\IBK\IBK_DRFN\ProjSrc\SrcDrfn\Chart\ExControl\ExGridCtrl.cpp

; 1664 : }

  00029	5d		 pop	 ebp
  0002a	c2 08 00	 ret	 8
?Save@CExGridCtrl@@QAEHPBDD@Z ENDP			; CExGridCtrl::Save
_TEXT	ENDS
; Function compile flags: /Ogtp
; File D:\git\src\IBK\IBK_DRFN\ProjSrc\SrcDrfn\Chart\ExControl\ExGridCtrl.cpp
; File D:\git\src\IBK\IBK_DRFN\ProjSrc\SrcDrfn\Chart\ExControl\Include\GirdLoadHelper.h
; File D:\git\src\IBK\IBK_DRFN\ProjSrc\SrcDrfn\Chart\ExControl\ExGridCtrl.cpp
; File D:\git\src\IBK\IBK_DRFN\ProjSrc\SrcDrfn\Chart\ExControl\Include\GirdLoadHelper.h
; File D:\git\src\IBK\IBK_DRFN\ProjSrc\SrcDrfn\Chart\ExControl\ExGridCtrl.cpp
;	COMDAT ?RedrawColumn@CExGridCtrl@@QAEHH@Z
_TEXT	SEGMENT
_col$ = 8						; size = 4
?RedrawColumn@CExGridCtrl@@QAEHH@Z PROC			; CExGridCtrl::RedrawColumn, COMDAT
; _this$ = ecx

; 868  : {

  00000	55		 push	 ebp
  00001	8b ec		 mov	 ebp, esp

; 869  : 	return m_pLoader->RedrawColumn(col);

  00003	8b 81 80 00 00
	00		 mov	 eax, DWORD PTR [ecx+128]
; File D:\git\src\IBK\IBK_DRFN\ProjSrc\SrcDrfn\Chart\ExControl\Include\GirdLoadHelper.h

; 2720 : 		if(!m_hLib)

  00009	83 78 04 00	 cmp	 DWORD PTR [eax+4], 0
  0000d	75 06		 jne	 SHORT $LN4@RedrawColu
; File D:\git\src\IBK\IBK_DRFN\ProjSrc\SrcDrfn\Chart\ExControl\ExGridCtrl.cpp

; 869  : 	return m_pLoader->RedrawColumn(col);

  0000f	33 c0		 xor	 eax, eax

; 870  : }

  00011	5d		 pop	 ebp
  00012	c2 04 00	 ret	 4
$LN4@RedrawColu:
; File D:\git\src\IBK\IBK_DRFN\ProjSrc\SrcDrfn\Chart\ExControl\Include\GirdLoadHelper.h

; 2723 : 		return pRedrawColumn(m_lpPointer, col);

  00015	ff 75 08	 push	 DWORD PTR _col$[ebp]
  00018	ff b0 0c 01 00
	00		 push	 DWORD PTR [eax+268]
  0001e	8b 80 f0 03 00
	00		 mov	 eax, DWORD PTR [eax+1008]
  00024	ff d0		 call	 eax
; File D:\git\src\IBK\IBK_DRFN\ProjSrc\SrcDrfn\Chart\ExControl\ExGridCtrl.cpp

; 870  : }

  00026	5d		 pop	 ebp
  00027	c2 04 00	 ret	 4
?RedrawColumn@CExGridCtrl@@QAEHH@Z ENDP			; CExGridCtrl::RedrawColumn
_TEXT	ENDS
; Function compile flags: /Ogtp
; File D:\git\src\IBK\IBK_DRFN\ProjSrc\SrcDrfn\Chart\ExControl\ExGridCtrl.cpp
; File D:\git\src\IBK\IBK_DRFN\ProjSrc\SrcDrfn\Chart\ExControl\Include\GirdLoadHelper.h
; File D:\git\src\IBK\IBK_DRFN\ProjSrc\SrcDrfn\Chart\ExControl\ExGridCtrl.cpp
; File D:\git\src\IBK\IBK_DRFN\ProjSrc\SrcDrfn\Chart\ExControl\Include\GirdLoadHelper.h
; File D:\git\src\IBK\IBK_DRFN\ProjSrc\SrcDrfn\Chart\ExControl\ExGridCtrl.cpp
;	COMDAT ?RedrawRow@CExGridCtrl@@QAEHH@Z
_TEXT	SEGMENT
_row$ = 8						; size = 4
?RedrawRow@CExGridCtrl@@QAEHH@Z PROC			; CExGridCtrl::RedrawRow, COMDAT
; _this$ = ecx

; 862  : {

  00000	55		 push	 ebp
  00001	8b ec		 mov	 ebp, esp

; 863  : 	return m_pLoader->RedrawRow(row);

  00003	8b 81 80 00 00
	00		 mov	 eax, DWORD PTR [ecx+128]
; File D:\git\src\IBK\IBK_DRFN\ProjSrc\SrcDrfn\Chart\ExControl\Include\GirdLoadHelper.h

; 2712 : 		if(!m_hLib)

  00009	83 78 04 00	 cmp	 DWORD PTR [eax+4], 0
  0000d	75 06		 jne	 SHORT $LN4@RedrawRow
; File D:\git\src\IBK\IBK_DRFN\ProjSrc\SrcDrfn\Chart\ExControl\ExGridCtrl.cpp

; 863  : 	return m_pLoader->RedrawRow(row);

  0000f	33 c0		 xor	 eax, eax

; 864  : }

  00011	5d		 pop	 ebp
  00012	c2 04 00	 ret	 4
$LN4@RedrawRow:
; File D:\git\src\IBK\IBK_DRFN\ProjSrc\SrcDrfn\Chart\ExControl\Include\GirdLoadHelper.h

; 2715 : 		return pRedrawRow(m_lpPointer, row);

  00015	ff 75 08	 push	 DWORD PTR _row$[ebp]
  00018	ff b0 0c 01 00
	00		 push	 DWORD PTR [eax+268]
  0001e	8b 80 ec 03 00
	00		 mov	 eax, DWORD PTR [eax+1004]
  00024	ff d0		 call	 eax
; File D:\git\src\IBK\IBK_DRFN\ProjSrc\SrcDrfn\Chart\ExControl\ExGridCtrl.cpp

; 864  : }

  00026	5d		 pop	 ebp
  00027	c2 04 00	 ret	 4
?RedrawRow@CExGridCtrl@@QAEHH@Z ENDP			; CExGridCtrl::RedrawRow
_TEXT	ENDS
; Function compile flags: /Ogtp
; File D:\git\src\IBK\IBK_DRFN\ProjSrc\SrcDrfn\Chart\ExControl\ExGridCtrl.cpp
; File D:\git\src\IBK\IBK_DRFN\ProjSrc\SrcDrfn\Chart\ExControl\Include\GirdLoadHelper.h
; File D:\git\src\IBK\IBK_DRFN\ProjSrc\SrcDrfn\Chart\ExControl\ExGridCtrl.cpp
; File D:\git\src\IBK\IBK_DRFN\ProjSrc\SrcDrfn\Chart\ExControl\Include\GirdLoadHelper.h
; File D:\git\src\IBK\IBK_DRFN\ProjSrc\SrcDrfn\Chart\ExControl\ExGridCtrl.cpp
;	COMDAT ?RedrawCell@CExGridCtrl@@QAEHAAVCCellID@@PAVCDC@@@Z
_TEXT	SEGMENT
_cell$ = 8						; size = 4
_pDC$ = 12						; size = 4
?RedrawCell@CExGridCtrl@@QAEHAAVCCellID@@PAVCDC@@@Z PROC ; CExGridCtrl::RedrawCell, COMDAT
; _this$ = ecx

; 851  : {

  00000	55		 push	 ebp
  00001	8b ec		 mov	 ebp, esp

; 852  : 	return m_pLoader->RedrawCell(cell, pDC);

  00003	8b 81 80 00 00
	00		 mov	 eax, DWORD PTR [ecx+128]
; File D:\git\src\IBK\IBK_DRFN\ProjSrc\SrcDrfn\Chart\ExControl\Include\GirdLoadHelper.h

; 2704 : 		if(!m_hLib)

  00009	83 78 04 00	 cmp	 DWORD PTR [eax+4], 0
  0000d	75 06		 jne	 SHORT $LN4@RedrawCell
; File D:\git\src\IBK\IBK_DRFN\ProjSrc\SrcDrfn\Chart\ExControl\ExGridCtrl.cpp

; 852  : 	return m_pLoader->RedrawCell(cell, pDC);

  0000f	33 c0		 xor	 eax, eax

; 853  : }

  00011	5d		 pop	 ebp
  00012	c2 08 00	 ret	 8
$LN4@RedrawCell:
; File D:\git\src\IBK\IBK_DRFN\ProjSrc\SrcDrfn\Chart\ExControl\Include\GirdLoadHelper.h

; 2707 : 		return pRedrawCell2(m_lpPointer, cell, pDC);

  00015	ff 75 0c	 push	 DWORD PTR _pDC$[ebp]
  00018	ff 75 08	 push	 DWORD PTR _cell$[ebp]
  0001b	ff b0 0c 01 00
	00		 push	 DWORD PTR [eax+268]
  00021	8b 80 e8 03 00
	00		 mov	 eax, DWORD PTR [eax+1000]
  00027	ff d0		 call	 eax
; File D:\git\src\IBK\IBK_DRFN\ProjSrc\SrcDrfn\Chart\ExControl\ExGridCtrl.cpp

; 853  : }

  00029	5d		 pop	 ebp
  0002a	c2 08 00	 ret	 8
?RedrawCell@CExGridCtrl@@QAEHAAVCCellID@@PAVCDC@@@Z ENDP ; CExGridCtrl::RedrawCell
_TEXT	ENDS
; Function compile flags: /Ogtp
; File D:\git\src\IBK\IBK_DRFN\ProjSrc\SrcDrfn\Chart\ExControl\ExGridCtrl.cpp
; File D:\git\src\IBK\IBK_DRFN\ProjSrc\SrcDrfn\Chart\ExControl\Include\GirdLoadHelper.h
; File D:\git\src\IBK\IBK_DRFN\ProjSrc\SrcDrfn\Chart\ExControl\ExGridCtrl.cpp
; File D:\git\src\IBK\IBK_DRFN\ProjSrc\SrcDrfn\Chart\ExControl\Include\GirdLoadHelper.h
; File D:\git\src\IBK\IBK_DRFN\ProjSrc\SrcDrfn\Chart\ExControl\ExGridCtrl.cpp
;	COMDAT ?RedrawCell@CExGridCtrl@@QAEHHHPAVCDC@@@Z
_TEXT	SEGMENT
_nRow$ = 8						; size = 4
_nCol$ = 12						; size = 4
_pDC$ = 16						; size = 4
?RedrawCell@CExGridCtrl@@QAEHHHPAVCDC@@@Z PROC		; CExGridCtrl::RedrawCell, COMDAT
; _this$ = ecx

; 856  : {

  00000	55		 push	 ebp
  00001	8b ec		 mov	 ebp, esp

; 857  : 	return m_pLoader->RedrawCell(nRow, nCol, pDC);

  00003	8b 81 80 00 00
	00		 mov	 eax, DWORD PTR [ecx+128]
; File D:\git\src\IBK\IBK_DRFN\ProjSrc\SrcDrfn\Chart\ExControl\Include\GirdLoadHelper.h

; 2696 : 		if(!m_hLib)

  00009	83 78 04 00	 cmp	 DWORD PTR [eax+4], 0
  0000d	75 06		 jne	 SHORT $LN4@RedrawCell
; File D:\git\src\IBK\IBK_DRFN\ProjSrc\SrcDrfn\Chart\ExControl\ExGridCtrl.cpp

; 857  : 	return m_pLoader->RedrawCell(nRow, nCol, pDC);

  0000f	33 c0		 xor	 eax, eax

; 858  : }

  00011	5d		 pop	 ebp
  00012	c2 0c 00	 ret	 12			; 0000000cH
$LN4@RedrawCell:
; File D:\git\src\IBK\IBK_DRFN\ProjSrc\SrcDrfn\Chart\ExControl\Include\GirdLoadHelper.h

; 2699 : 		return pRedrawCell(m_lpPointer, nRow, nCol, pDC);

  00015	ff 75 10	 push	 DWORD PTR _pDC$[ebp]
  00018	ff 75 0c	 push	 DWORD PTR _nCol$[ebp]
  0001b	ff 75 08	 push	 DWORD PTR _nRow$[ebp]
  0001e	ff b0 0c 01 00
	00		 push	 DWORD PTR [eax+268]
  00024	8b 80 e4 03 00
	00		 mov	 eax, DWORD PTR [eax+996]
  0002a	ff d0		 call	 eax
; File D:\git\src\IBK\IBK_DRFN\ProjSrc\SrcDrfn\Chart\ExControl\ExGridCtrl.cpp

; 858  : }

  0002c	5d		 pop	 ebp
  0002d	c2 0c 00	 ret	 12			; 0000000cH
?RedrawCell@CExGridCtrl@@QAEHHHPAVCDC@@@Z ENDP		; CExGridCtrl::RedrawCell
_TEXT	ENDS
; Function compile flags: /Ogtp
; File D:\git\src\IBK\IBK_DRFN\ProjSrc\SrcDrfn\Chart\ExControl\ExGridCtrl.cpp
; File D:\git\src\IBK\IBK_DRFN\ProjSrc\SrcDrfn\Chart\ExControl\Include\GirdLoadHelper.h
; File D:\git\src\IBK\IBK_DRFN\ProjSrc\SrcDrfn\Chart\ExControl\ExGridCtrl.cpp
;	COMDAT ?SetRedraw@CExGridCtrl@@QAEXHH@Z
_TEXT	SEGMENT
_bAllowDraw$ = 8					; size = 4
_bResetScrollBars$ = 12					; size = 4
?SetRedraw@CExGridCtrl@@QAEXHH@Z PROC			; CExGridCtrl::SetRedraw, COMDAT
; _this$ = ecx

; 844  : {

  00000	55		 push	 ebp
  00001	8b ec		 mov	 ebp, esp

; 845  : 	m_pLoader->SetRedraw(bAllowDraw, bResetScrollBars);

  00003	8b 81 80 00 00
	00		 mov	 eax, DWORD PTR [ecx+128]
; File D:\git\src\IBK\IBK_DRFN\ProjSrc\SrcDrfn\Chart\ExControl\Include\GirdLoadHelper.h

; 2688 : 		if(!m_hLib)

  00009	83 78 04 00	 cmp	 DWORD PTR [eax+4], 0
  0000d	74 14		 je	 SHORT $LN3@SetRedraw

; 2689 : 			return;
; 2690 : 
; 2691 : 		pSetRedraw(m_lpPointer, bAllowDraw, bResetScrollBars);

  0000f	ff 75 0c	 push	 DWORD PTR _bResetScrollBars$[ebp]
  00012	ff 75 08	 push	 DWORD PTR _bAllowDraw$[ebp]
  00015	ff b0 0c 01 00
	00		 push	 DWORD PTR [eax+268]
  0001b	8b 80 e0 03 00
	00		 mov	 eax, DWORD PTR [eax+992]
  00021	ff d0		 call	 eax
$LN3@SetRedraw:
; File D:\git\src\IBK\IBK_DRFN\ProjSrc\SrcDrfn\Chart\ExControl\ExGridCtrl.cpp

; 846  : }

  00023	5d		 pop	 ebp
  00024	c2 08 00	 ret	 8
?SetRedraw@CExGridCtrl@@QAEXHH@Z ENDP			; CExGridCtrl::SetRedraw
_TEXT	ENDS
; Function compile flags: /Ogtp
; File D:\git\src\IBK\IBK_DRFN\ProjSrc\SrcDrfn\Chart\ExControl\ExGridCtrl.cpp
; File D:\git\src\IBK\IBK_DRFN\ProjSrc\SrcDrfn\Chart\ExControl\Include\GirdLoadHelper.h
; File D:\git\src\IBK\IBK_DRFN\ProjSrc\SrcDrfn\Chart\ExControl\ExGridCtrl.cpp
; File D:\git\src\IBK\IBK_DRFN\ProjSrc\SrcDrfn\Chart\ExControl\Include\GirdLoadHelper.h
; File D:\git\src\IBK\IBK_DRFN\ProjSrc\SrcDrfn\Chart\ExControl\ExGridCtrl.cpp
;	COMDAT ?IsCellSelected@CExGridCtrl@@QAEHAAVCCellID@@@Z
_TEXT	SEGMENT
_cell$ = 8						; size = 4
?IsCellSelected@CExGridCtrl@@QAEHAAVCCellID@@@Z PROC	; CExGridCtrl::IsCellSelected, COMDAT
; _this$ = ecx

; 1572 : {

  00000	55		 push	 ebp
  00001	8b ec		 mov	 ebp, esp

; 1573 : 	return m_pLoader->IsCellSelected(cell);

  00003	8b 81 80 00 00
	00		 mov	 eax, DWORD PTR [ecx+128]
; File D:\git\src\IBK\IBK_DRFN\ProjSrc\SrcDrfn\Chart\ExControl\Include\GirdLoadHelper.h

; 2680 : 		if(!m_hLib)

  00009	83 78 04 00	 cmp	 DWORD PTR [eax+4], 0
  0000d	75 06		 jne	 SHORT $LN4@IsCellSele
; File D:\git\src\IBK\IBK_DRFN\ProjSrc\SrcDrfn\Chart\ExControl\ExGridCtrl.cpp

; 1573 : 	return m_pLoader->IsCellSelected(cell);

  0000f	33 c0		 xor	 eax, eax

; 1574 : }

  00011	5d		 pop	 ebp
  00012	c2 04 00	 ret	 4
$LN4@IsCellSele:
; File D:\git\src\IBK\IBK_DRFN\ProjSrc\SrcDrfn\Chart\ExControl\Include\GirdLoadHelper.h

; 2683 : 		return pIsCellSelected2(m_lpPointer, cell);

  00015	ff 75 08	 push	 DWORD PTR _cell$[ebp]
  00018	ff b0 0c 01 00
	00		 push	 DWORD PTR [eax+268]
  0001e	8b 80 dc 03 00
	00		 mov	 eax, DWORD PTR [eax+988]
  00024	ff d0		 call	 eax
; File D:\git\src\IBK\IBK_DRFN\ProjSrc\SrcDrfn\Chart\ExControl\ExGridCtrl.cpp

; 1574 : }

  00026	5d		 pop	 ebp
  00027	c2 04 00	 ret	 4
?IsCellSelected@CExGridCtrl@@QAEHAAVCCellID@@@Z ENDP	; CExGridCtrl::IsCellSelected
_TEXT	ENDS
; Function compile flags: /Ogtp
; File D:\git\src\IBK\IBK_DRFN\ProjSrc\SrcDrfn\Chart\ExControl\ExGridCtrl.cpp
; File D:\git\src\IBK\IBK_DRFN\ProjSrc\SrcDrfn\Chart\ExControl\Include\GirdLoadHelper.h
; File D:\git\src\IBK\IBK_DRFN\ProjSrc\SrcDrfn\Chart\ExControl\ExGridCtrl.cpp
; File D:\git\src\IBK\IBK_DRFN\ProjSrc\SrcDrfn\Chart\ExControl\Include\GirdLoadHelper.h
; File D:\git\src\IBK\IBK_DRFN\ProjSrc\SrcDrfn\Chart\ExControl\ExGridCtrl.cpp
;	COMDAT ?IsCellSelected@CExGridCtrl@@QAEHHH@Z
_TEXT	SEGMENT
_nRow$ = 8						; size = 4
_nCol$ = 12						; size = 4
?IsCellSelected@CExGridCtrl@@QAEHHH@Z PROC		; CExGridCtrl::IsCellSelected, COMDAT
; _this$ = ecx

; 1577 : {

  00000	55		 push	 ebp
  00001	8b ec		 mov	 ebp, esp

; 1578 : 	return m_pLoader->IsCellSelected(nRow, nCol);

  00003	8b 81 80 00 00
	00		 mov	 eax, DWORD PTR [ecx+128]
; File D:\git\src\IBK\IBK_DRFN\ProjSrc\SrcDrfn\Chart\ExControl\Include\GirdLoadHelper.h

; 2672 : 		if(!m_hLib)

  00009	83 78 04 00	 cmp	 DWORD PTR [eax+4], 0
  0000d	75 06		 jne	 SHORT $LN4@IsCellSele
; File D:\git\src\IBK\IBK_DRFN\ProjSrc\SrcDrfn\Chart\ExControl\ExGridCtrl.cpp

; 1578 : 	return m_pLoader->IsCellSelected(nRow, nCol);

  0000f	33 c0		 xor	 eax, eax

; 1579 : }

  00011	5d		 pop	 ebp
  00012	c2 08 00	 ret	 8
$LN4@IsCellSele:
; File D:\git\src\IBK\IBK_DRFN\ProjSrc\SrcDrfn\Chart\ExControl\Include\GirdLoadHelper.h

; 2675 : 		return pIsCellSelected(m_lpPointer, nRow, nCol);

  00015	ff 75 0c	 push	 DWORD PTR _nCol$[ebp]
  00018	ff 75 08	 push	 DWORD PTR _nRow$[ebp]
  0001b	ff b0 0c 01 00
	00		 push	 DWORD PTR [eax+268]
  00021	8b 80 d8 03 00
	00		 mov	 eax, DWORD PTR [eax+984]
  00027	ff d0		 call	 eax
; File D:\git\src\IBK\IBK_DRFN\ProjSrc\SrcDrfn\Chart\ExControl\ExGridCtrl.cpp

; 1579 : }

  00029	5d		 pop	 ebp
  0002a	c2 08 00	 ret	 8
?IsCellSelected@CExGridCtrl@@QAEHHH@Z ENDP		; CExGridCtrl::IsCellSelected
_TEXT	ENDS
; Function compile flags: /Ogtp
; File D:\git\src\IBK\IBK_DRFN\ProjSrc\SrcDrfn\Chart\ExControl\ExGridCtrl.cpp
; File D:\git\src\IBK\IBK_DRFN\ProjSrc\SrcDrfn\Chart\ExControl\Include\GirdLoadHelper.h
; File D:\git\src\IBK\IBK_DRFN\ProjSrc\SrcDrfn\Chart\ExControl\ExGridCtrl.cpp
; File D:\git\src\IBK\IBK_DRFN\ProjSrc\SrcDrfn\Chart\ExControl\Include\GirdLoadHelper.h
; File D:\git\src\IBK\IBK_DRFN\ProjSrc\SrcDrfn\Chart\ExControl\ExGridCtrl.cpp
;	COMDAT ?IsCellEditable@CExGridCtrl@@QAEHAAVCCellID@@@Z
_TEXT	SEGMENT
_cell$ = 8						; size = 4
?IsCellEditable@CExGridCtrl@@QAEHAAVCCellID@@@Z PROC	; CExGridCtrl::IsCellEditable, COMDAT
; _this$ = ecx

; 1562 : {

  00000	55		 push	 ebp
  00001	8b ec		 mov	 ebp, esp

; 1563 : 	return m_pLoader->IsCellEditable(cell);

  00003	8b 81 80 00 00
	00		 mov	 eax, DWORD PTR [ecx+128]
; File D:\git\src\IBK\IBK_DRFN\ProjSrc\SrcDrfn\Chart\ExControl\Include\GirdLoadHelper.h

; 2664 : 		if(!m_hLib)

  00009	83 78 04 00	 cmp	 DWORD PTR [eax+4], 0
  0000d	75 06		 jne	 SHORT $LN4@IsCellEdit
; File D:\git\src\IBK\IBK_DRFN\ProjSrc\SrcDrfn\Chart\ExControl\ExGridCtrl.cpp

; 1563 : 	return m_pLoader->IsCellEditable(cell);

  0000f	33 c0		 xor	 eax, eax

; 1564 : }

  00011	5d		 pop	 ebp
  00012	c2 04 00	 ret	 4
$LN4@IsCellEdit:
; File D:\git\src\IBK\IBK_DRFN\ProjSrc\SrcDrfn\Chart\ExControl\Include\GirdLoadHelper.h

; 2667 : 		return pIsCellEditable2(m_lpPointer, cell);

  00015	ff 75 08	 push	 DWORD PTR _cell$[ebp]
  00018	ff b0 0c 01 00
	00		 push	 DWORD PTR [eax+268]
  0001e	8b 80 d4 03 00
	00		 mov	 eax, DWORD PTR [eax+980]
  00024	ff d0		 call	 eax
; File D:\git\src\IBK\IBK_DRFN\ProjSrc\SrcDrfn\Chart\ExControl\ExGridCtrl.cpp

; 1564 : }

  00026	5d		 pop	 ebp
  00027	c2 04 00	 ret	 4
?IsCellEditable@CExGridCtrl@@QAEHAAVCCellID@@@Z ENDP	; CExGridCtrl::IsCellEditable
_TEXT	ENDS
; Function compile flags: /Ogtp
; File D:\git\src\IBK\IBK_DRFN\ProjSrc\SrcDrfn\Chart\ExControl\ExGridCtrl.cpp
; File D:\git\src\IBK\IBK_DRFN\ProjSrc\SrcDrfn\Chart\ExControl\Include\GirdLoadHelper.h
; File D:\git\src\IBK\IBK_DRFN\ProjSrc\SrcDrfn\Chart\ExControl\ExGridCtrl.cpp
; File D:\git\src\IBK\IBK_DRFN\ProjSrc\SrcDrfn\Chart\ExControl\Include\GirdLoadHelper.h
; File D:\git\src\IBK\IBK_DRFN\ProjSrc\SrcDrfn\Chart\ExControl\ExGridCtrl.cpp
;	COMDAT ?IsCellEditable@CExGridCtrl@@QAEHHH@Z
_TEXT	SEGMENT
_nRow$ = 8						; size = 4
_nCol$ = 12						; size = 4
?IsCellEditable@CExGridCtrl@@QAEHHH@Z PROC		; CExGridCtrl::IsCellEditable, COMDAT
; _this$ = ecx

; 1567 : {

  00000	55		 push	 ebp
  00001	8b ec		 mov	 ebp, esp

; 1568 : 	return m_pLoader->IsCellEditable(nRow, nCol);

  00003	8b 81 80 00 00
	00		 mov	 eax, DWORD PTR [ecx+128]
; File D:\git\src\IBK\IBK_DRFN\ProjSrc\SrcDrfn\Chart\ExControl\Include\GirdLoadHelper.h

; 2656 : 		if(!m_hLib)

  00009	83 78 04 00	 cmp	 DWORD PTR [eax+4], 0
  0000d	75 06		 jne	 SHORT $LN4@IsCellEdit
; File D:\git\src\IBK\IBK_DRFN\ProjSrc\SrcDrfn\Chart\ExControl\ExGridCtrl.cpp

; 1568 : 	return m_pLoader->IsCellEditable(nRow, nCol);

  0000f	33 c0		 xor	 eax, eax

; 1569 : }

  00011	5d		 pop	 ebp
  00012	c2 08 00	 ret	 8
$LN4@IsCellEdit:
; File D:\git\src\IBK\IBK_DRFN\ProjSrc\SrcDrfn\Chart\ExControl\Include\GirdLoadHelper.h

; 2659 : 		return pIsCellEditable(m_lpPointer, nRow, nCol);

  00015	ff 75 0c	 push	 DWORD PTR _nCol$[ebp]
  00018	ff 75 08	 push	 DWORD PTR _nRow$[ebp]
  0001b	ff b0 0c 01 00
	00		 push	 DWORD PTR [eax+268]
  00021	8b 80 d0 03 00
	00		 mov	 eax, DWORD PTR [eax+976]
  00027	ff d0		 call	 eax
; File D:\git\src\IBK\IBK_DRFN\ProjSrc\SrcDrfn\Chart\ExControl\ExGridCtrl.cpp

; 1569 : }

  00029	5d		 pop	 ebp
  0002a	c2 08 00	 ret	 8
?IsCellEditable@CExGridCtrl@@QAEHHH@Z ENDP		; CExGridCtrl::IsCellEditable
_TEXT	ENDS
; Function compile flags: /Ogtp
; File D:\git\src\IBK\IBK_DRFN\ProjSrc\SrcDrfn\Chart\ExControl\ExGridCtrl.cpp
; File D:\git\src\IBK\IBK_DRFN\ProjSrc\SrcDrfn\Chart\ExControl\Include\GirdLoadHelper.h
; File D:\git\src\IBK\IBK_DRFN\ProjSrc\SrcDrfn\Chart\ExControl\ExGridCtrl.cpp
; File D:\git\src\IBK\IBK_DRFN\ProjSrc\SrcDrfn\Chart\ExControl\Include\GirdLoadHelper.h
; File D:\git\src\IBK\IBK_DRFN\ProjSrc\SrcDrfn\Chart\ExControl\ExGridCtrl.cpp
;	COMDAT ?IsCellVisible@CExGridCtrl@@QAEHVCCellID@@@Z
_TEXT	SEGMENT
_cell$ = 8						; size = 8
?IsCellVisible@CExGridCtrl@@QAEHVCCellID@@@Z PROC	; CExGridCtrl::IsCellVisible, COMDAT
; _this$ = ecx

; 1582 : {

  00000	55		 push	 ebp
  00001	8b ec		 mov	 ebp, esp

; 1583 : 	return m_pLoader->IsCellVisible(cell) ;

  00003	8b 81 80 00 00
	00		 mov	 eax, DWORD PTR [ecx+128]
; File D:\git\src\IBK\IBK_DRFN\ProjSrc\SrcDrfn\Chart\ExControl\Include\GirdLoadHelper.h

; 2648 : 		if(!m_hLib)

  00009	83 78 04 00	 cmp	 DWORD PTR [eax+4], 0
  0000d	75 06		 jne	 SHORT $LN4@IsCellVisi
; File D:\git\src\IBK\IBK_DRFN\ProjSrc\SrcDrfn\Chart\ExControl\ExGridCtrl.cpp

; 1583 : 	return m_pLoader->IsCellVisible(cell) ;

  0000f	33 c0		 xor	 eax, eax

; 1584 : }

  00011	5d		 pop	 ebp
  00012	c2 08 00	 ret	 8
$LN4@IsCellVisi:
; File D:\git\src\IBK\IBK_DRFN\ProjSrc\SrcDrfn\Chart\ExControl\Include\GirdLoadHelper.h

; 2651 : 		return pIsCellVisible2(m_lpPointer, cell);

  00015	ff 75 0c	 push	 DWORD PTR _cell$[ebp+4]
  00018	ff 75 08	 push	 DWORD PTR _cell$[ebp]
  0001b	ff b0 0c 01 00
	00		 push	 DWORD PTR [eax+268]
  00021	8b 80 cc 03 00
	00		 mov	 eax, DWORD PTR [eax+972]
  00027	ff d0		 call	 eax
; File D:\git\src\IBK\IBK_DRFN\ProjSrc\SrcDrfn\Chart\ExControl\ExGridCtrl.cpp

; 1584 : }

  00029	5d		 pop	 ebp
  0002a	c2 08 00	 ret	 8
?IsCellVisible@CExGridCtrl@@QAEHVCCellID@@@Z ENDP	; CExGridCtrl::IsCellVisible
_TEXT	ENDS
; Function compile flags: /Ogtp
; File D:\git\src\IBK\IBK_DRFN\ProjSrc\SrcDrfn\Chart\ExControl\ExGridCtrl.cpp
; File D:\git\src\IBK\IBK_DRFN\ProjSrc\SrcDrfn\Chart\ExControl\Include\GirdLoadHelper.h
; File D:\git\src\IBK\IBK_DRFN\ProjSrc\SrcDrfn\Chart\ExControl\ExGridCtrl.cpp
; File D:\git\src\IBK\IBK_DRFN\ProjSrc\SrcDrfn\Chart\ExControl\Include\GirdLoadHelper.h
; File D:\git\src\IBK\IBK_DRFN\ProjSrc\SrcDrfn\Chart\ExControl\ExGridCtrl.cpp
;	COMDAT ?IsCellVisible@CExGridCtrl@@QAEHHH@Z
_TEXT	SEGMENT
_nRow$ = 8						; size = 4
_nCol$ = 12						; size = 4
?IsCellVisible@CExGridCtrl@@QAEHHH@Z PROC		; CExGridCtrl::IsCellVisible, COMDAT
; _this$ = ecx

; 1587 : {

  00000	55		 push	 ebp
  00001	8b ec		 mov	 ebp, esp

; 1588 : 	return m_pLoader->IsCellVisible(nRow, nCol);

  00003	8b 81 80 00 00
	00		 mov	 eax, DWORD PTR [ecx+128]
; File D:\git\src\IBK\IBK_DRFN\ProjSrc\SrcDrfn\Chart\ExControl\Include\GirdLoadHelper.h

; 2640 : 		if(!m_hLib)

  00009	83 78 04 00	 cmp	 DWORD PTR [eax+4], 0
  0000d	75 06		 jne	 SHORT $LN4@IsCellVisi
; File D:\git\src\IBK\IBK_DRFN\ProjSrc\SrcDrfn\Chart\ExControl\ExGridCtrl.cpp

; 1588 : 	return m_pLoader->IsCellVisible(nRow, nCol);

  0000f	33 c0		 xor	 eax, eax

; 1589 : }

  00011	5d		 pop	 ebp
  00012	c2 08 00	 ret	 8
$LN4@IsCellVisi:
; File D:\git\src\IBK\IBK_DRFN\ProjSrc\SrcDrfn\Chart\ExControl\Include\GirdLoadHelper.h

; 2643 : 		return pIsCellVisible(m_lpPointer, nRow, nCol);

  00015	ff 75 0c	 push	 DWORD PTR _nCol$[ebp]
  00018	ff 75 08	 push	 DWORD PTR _nRow$[ebp]
  0001b	ff b0 0c 01 00
	00		 push	 DWORD PTR [eax+268]
  00021	8b 80 c8 03 00
	00		 mov	 eax, DWORD PTR [eax+968]
  00027	ff d0		 call	 eax
; File D:\git\src\IBK\IBK_DRFN\ProjSrc\SrcDrfn\Chart\ExControl\ExGridCtrl.cpp

; 1589 : }

  00029	5d		 pop	 ebp
  0002a	c2 08 00	 ret	 8
?IsCellVisible@CExGridCtrl@@QAEHHH@Z ENDP		; CExGridCtrl::IsCellVisible
_TEXT	ENDS
; Function compile flags: /Ogtp
; File D:\git\src\IBK\IBK_DRFN\ProjSrc\SrcDrfn\Chart\ExControl\ExGridCtrl.cpp
; File D:\git\src\IBK\IBK_DRFN\ProjSrc\SrcDrfn\Chart\ExControl\Include\GirdLoadHelper.h
; File D:\git\src\IBK\IBK_DRFN\ProjSrc\SrcDrfn\Chart\ExControl\ExGridCtrl.cpp
;	COMDAT ?EnsureVisible@CExGridCtrl@@QAEXHH@Z
_TEXT	SEGMENT
_nRow$ = 8						; size = 4
_nCol$ = 12						; size = 4
?EnsureVisible@CExGridCtrl@@QAEXHH@Z PROC		; CExGridCtrl::EnsureVisible, COMDAT
; _this$ = ecx

; 1557 : {

  00000	55		 push	 ebp
  00001	8b ec		 mov	 ebp, esp

; 1558 : 	m_pLoader->EnsureVisible(nRow, nCol);

  00003	8b 81 80 00 00
	00		 mov	 eax, DWORD PTR [ecx+128]
; File D:\git\src\IBK\IBK_DRFN\ProjSrc\SrcDrfn\Chart\ExControl\Include\GirdLoadHelper.h

; 2632 : 		if(!m_hLib)

  00009	83 78 04 00	 cmp	 DWORD PTR [eax+4], 0
  0000d	74 14		 je	 SHORT $LN3@EnsureVisi

; 2633 : 			return;
; 2634 : 
; 2635 : 		pEnsureVisible2(m_lpPointer, nRow, nCol);

  0000f	ff 75 0c	 push	 DWORD PTR _nCol$[ebp]
  00012	ff 75 08	 push	 DWORD PTR _nRow$[ebp]
  00015	ff b0 0c 01 00
	00		 push	 DWORD PTR [eax+268]
  0001b	8b 80 c4 03 00
	00		 mov	 eax, DWORD PTR [eax+964]
  00021	ff d0		 call	 eax
$LN3@EnsureVisi:
; File D:\git\src\IBK\IBK_DRFN\ProjSrc\SrcDrfn\Chart\ExControl\ExGridCtrl.cpp

; 1559 : }

  00023	5d		 pop	 ebp
  00024	c2 08 00	 ret	 8
?EnsureVisible@CExGridCtrl@@QAEXHH@Z ENDP		; CExGridCtrl::EnsureVisible
_TEXT	ENDS
; Function compile flags: /Ogtp
; File D:\git\src\IBK\IBK_DRFN\ProjSrc\SrcDrfn\Chart\ExControl\ExGridCtrl.cpp
; File D:\git\src\IBK\IBK_DRFN\ProjSrc\SrcDrfn\Chart\ExControl\Include\GirdLoadHelper.h
; File D:\git\src\IBK\IBK_DRFN\ProjSrc\SrcDrfn\Chart\ExControl\ExGridCtrl.cpp
;	COMDAT ?EnsureVisible@CExGridCtrl@@QAEXAAVCCellID@@@Z
_TEXT	SEGMENT
_cell$ = 8						; size = 4
?EnsureVisible@CExGridCtrl@@QAEXAAVCCellID@@@Z PROC	; CExGridCtrl::EnsureVisible, COMDAT
; _this$ = ecx

; 616  : {

  00000	55		 push	 ebp
  00001	8b ec		 mov	 ebp, esp

; 617  : 	m_pLoader->EnsureVisible(cell);

  00003	8b 81 80 00 00
	00		 mov	 eax, DWORD PTR [ecx+128]
; File D:\git\src\IBK\IBK_DRFN\ProjSrc\SrcDrfn\Chart\ExControl\Include\GirdLoadHelper.h

; 2624 : 		if(!m_hLib)

  00009	83 78 04 00	 cmp	 DWORD PTR [eax+4], 0
  0000d	74 11		 je	 SHORT $LN3@EnsureVisi

; 2625 : 			return;
; 2626 : 
; 2627 : 		pEnsureVisible(m_lpPointer, cell);

  0000f	ff 75 08	 push	 DWORD PTR _cell$[ebp]
  00012	ff b0 0c 01 00
	00		 push	 DWORD PTR [eax+268]
  00018	8b 80 c0 03 00
	00		 mov	 eax, DWORD PTR [eax+960]
  0001e	ff d0		 call	 eax
$LN3@EnsureVisi:
; File D:\git\src\IBK\IBK_DRFN\ProjSrc\SrcDrfn\Chart\ExControl\ExGridCtrl.cpp

; 618  : }

  00020	5d		 pop	 ebp
  00021	c2 04 00	 ret	 4
?EnsureVisible@CExGridCtrl@@QAEXAAVCCellID@@@Z ENDP	; CExGridCtrl::EnsureVisible
_TEXT	ENDS
; Function compile flags: /Ogtp
; File D:\git\src\IBK\IBK_DRFN\ProjSrc\SrcDrfn\Chart\ExControl\ExGridCtrl.cpp
; File D:\git\src\IBK\IBK_DRFN\ProjSrc\SrcDrfn\Chart\ExControl\Include\GirdLoadHelper.h
; File D:\git\src\IBK\IBK_DRFN\ProjSrc\SrcDrfn\Chart\ExControl\ExGridCtrl.cpp
;	COMDAT ?AutoFill@CExGridCtrl@@QAEXXZ
_TEXT	SEGMENT
?AutoFill@CExGridCtrl@@QAEXXZ PROC			; CExGridCtrl::AutoFill, COMDAT
; _this$ = ecx

; 1261 : 	m_pLoader->AutoFill();

  00000	8b 81 80 00 00
	00		 mov	 eax, DWORD PTR [ecx+128]
; File D:\git\src\IBK\IBK_DRFN\ProjSrc\SrcDrfn\Chart\ExControl\Include\GirdLoadHelper.h

; 2616 : 		if(!m_hLib)

  00006	83 78 04 00	 cmp	 DWORD PTR [eax+4], 0
  0000a	74 0e		 je	 SHORT $LN3@AutoFill

; 2617 : 			return;
; 2618 : 
; 2619 : 		pAutoFill(m_lpPointer);

  0000c	ff b0 0c 01 00
	00		 push	 DWORD PTR [eax+268]
  00012	8b 80 bc 03 00
	00		 mov	 eax, DWORD PTR [eax+956]
  00018	ff d0		 call	 eax
$LN3@AutoFill:
; File D:\git\src\IBK\IBK_DRFN\ProjSrc\SrcDrfn\Chart\ExControl\ExGridCtrl.cpp

; 1262 : }

  0001a	c3		 ret	 0
?AutoFill@CExGridCtrl@@QAEXXZ ENDP			; CExGridCtrl::AutoFill
_TEXT	ENDS
; Function compile flags: /Ogtp
; File D:\git\src\IBK\IBK_DRFN\ProjSrc\SrcDrfn\Chart\ExControl\ExGridCtrl.cpp
; File D:\git\src\IBK\IBK_DRFN\ProjSrc\SrcDrfn\Chart\ExControl\Include\GirdLoadHelper.h
; File D:\git\src\IBK\IBK_DRFN\ProjSrc\SrcDrfn\Chart\ExControl\ExGridCtrl.cpp
;	COMDAT ?Refresh@CExGridCtrl@@QAEXXZ
_TEXT	SEGMENT
?Refresh@CExGridCtrl@@QAEXXZ PROC			; CExGridCtrl::Refresh, COMDAT
; _this$ = ecx

; 1552 : 	m_pLoader->Refresh();

  00000	8b 81 80 00 00
	00		 mov	 eax, DWORD PTR [ecx+128]
; File D:\git\src\IBK\IBK_DRFN\ProjSrc\SrcDrfn\Chart\ExControl\Include\GirdLoadHelper.h

; 2608 : 		if(!m_hLib)

  00006	83 78 04 00	 cmp	 DWORD PTR [eax+4], 0
  0000a	74 0e		 je	 SHORT $LN3@Refresh

; 2609 : 			return;
; 2610 : 
; 2611 : 		pRefresh(m_lpPointer);

  0000c	ff b0 0c 01 00
	00		 push	 DWORD PTR [eax+268]
  00012	8b 80 b8 03 00
	00		 mov	 eax, DWORD PTR [eax+952]
  00018	ff d0		 call	 eax
$LN3@Refresh:
; File D:\git\src\IBK\IBK_DRFN\ProjSrc\SrcDrfn\Chart\ExControl\ExGridCtrl.cpp

; 1553 : }

  0001a	c3		 ret	 0
?Refresh@CExGridCtrl@@QAEXXZ ENDP			; CExGridCtrl::Refresh
_TEXT	ENDS
; Function compile flags: /Ogtp
; File D:\git\src\IBK\IBK_DRFN\ProjSrc\SrcDrfn\Chart\ExControl\ExGridCtrl.cpp
; File D:\git\src\IBK\IBK_DRFN\ProjSrc\SrcDrfn\Chart\ExControl\Include\GirdLoadHelper.h
; File D:\git\src\IBK\IBK_DRFN\ProjSrc\SrcDrfn\Chart\ExControl\ExGridCtrl.cpp
;	COMDAT ?ExpandToFit@CExGridCtrl@@QAEXH@Z
_TEXT	SEGMENT
_bExpandFixed$ = 8					; size = 4
?ExpandToFit@CExGridCtrl@@QAEXH@Z PROC			; CExGridCtrl::ExpandToFit, COMDAT
; _this$ = ecx

; 1505 : {

  00000	55		 push	 ebp
  00001	8b ec		 mov	 ebp, esp

; 1506 : 	m_pLoader->ExpandToFit(bExpandFixed);

  00003	8b 81 80 00 00
	00		 mov	 eax, DWORD PTR [ecx+128]
; File D:\git\src\IBK\IBK_DRFN\ProjSrc\SrcDrfn\Chart\ExControl\Include\GirdLoadHelper.h

; 2600 : 		if(!m_hLib)

  00009	83 78 04 00	 cmp	 DWORD PTR [eax+4], 0
  0000d	74 11		 je	 SHORT $LN3@ExpandToFi

; 2601 : 			return;
; 2602 : 
; 2603 : 		pExpandToFit(m_lpPointer, bExpandFixed);

  0000f	ff 75 08	 push	 DWORD PTR _bExpandFixed$[ebp]
  00012	ff b0 0c 01 00
	00		 push	 DWORD PTR [eax+268]
  00018	8b 80 b4 03 00
	00		 mov	 eax, DWORD PTR [eax+948]
  0001e	ff d0		 call	 eax
$LN3@ExpandToFi:
; File D:\git\src\IBK\IBK_DRFN\ProjSrc\SrcDrfn\Chart\ExControl\ExGridCtrl.cpp

; 1507 : }

  00020	5d		 pop	 ebp
  00021	c2 04 00	 ret	 4
?ExpandToFit@CExGridCtrl@@QAEXH@Z ENDP			; CExGridCtrl::ExpandToFit
_TEXT	ENDS
; Function compile flags: /Ogtp
; File D:\git\src\IBK\IBK_DRFN\ProjSrc\SrcDrfn\Chart\ExControl\ExGridCtrl.cpp
; File D:\git\src\IBK\IBK_DRFN\ProjSrc\SrcDrfn\Chart\ExControl\Include\GirdLoadHelper.h
; File D:\git\src\IBK\IBK_DRFN\ProjSrc\SrcDrfn\Chart\ExControl\ExGridCtrl.cpp
;	COMDAT ?ExpandRowsToFit@CExGridCtrl@@QAEXH@Z
_TEXT	SEGMENT
_bExpandFixed$ = 8					; size = 4
?ExpandRowsToFit@CExGridCtrl@@QAEXH@Z PROC		; CExGridCtrl::ExpandRowsToFit, COMDAT
; _this$ = ecx

; 1498 : {

  00000	55		 push	 ebp
  00001	8b ec		 mov	 ebp, esp

; 1499 : 	m_pLoader->ExpandRowsToFit(bExpandFixed);

  00003	8b 81 80 00 00
	00		 mov	 eax, DWORD PTR [ecx+128]
; File D:\git\src\IBK\IBK_DRFN\ProjSrc\SrcDrfn\Chart\ExControl\Include\GirdLoadHelper.h

; 2592 : 		if(!m_hLib)

  00009	83 78 04 00	 cmp	 DWORD PTR [eax+4], 0
  0000d	74 11		 je	 SHORT $LN3@ExpandRows

; 2593 : 			return;
; 2594 : 
; 2595 : 		pExpandRowsToFit(m_lpPointer, bExpandFixed);

  0000f	ff 75 08	 push	 DWORD PTR _bExpandFixed$[ebp]
  00012	ff b0 0c 01 00
	00		 push	 DWORD PTR [eax+268]
  00018	8b 80 b0 03 00
	00		 mov	 eax, DWORD PTR [eax+944]
  0001e	ff d0		 call	 eax
$LN3@ExpandRows:
; File D:\git\src\IBK\IBK_DRFN\ProjSrc\SrcDrfn\Chart\ExControl\ExGridCtrl.cpp

; 1500 : }

  00020	5d		 pop	 ebp
  00021	c2 04 00	 ret	 4
?ExpandRowsToFit@CExGridCtrl@@QAEXH@Z ENDP		; CExGridCtrl::ExpandRowsToFit
_TEXT	ENDS
; Function compile flags: /Ogtp
; File D:\git\src\IBK\IBK_DRFN\ProjSrc\SrcDrfn\Chart\ExControl\ExGridCtrl.cpp
; File D:\git\src\IBK\IBK_DRFN\ProjSrc\SrcDrfn\Chart\ExControl\Include\GirdLoadHelper.h
; File D:\git\src\IBK\IBK_DRFN\ProjSrc\SrcDrfn\Chart\ExControl\ExGridCtrl.cpp
;	COMDAT ?ExpandLastColumn@CExGridCtrl@@QAEXXZ
_TEXT	SEGMENT
?ExpandLastColumn@CExGridCtrl@@QAEXXZ PROC		; CExGridCtrl::ExpandLastColumn, COMDAT
; _this$ = ecx

; 1492 : 	m_pLoader->ExpandLastColumn();

  00000	8b 81 80 00 00
	00		 mov	 eax, DWORD PTR [ecx+128]
; File D:\git\src\IBK\IBK_DRFN\ProjSrc\SrcDrfn\Chart\ExControl\Include\GirdLoadHelper.h

; 2584 : 		if(!m_hLib)

  00006	83 78 04 00	 cmp	 DWORD PTR [eax+4], 0
  0000a	74 0e		 je	 SHORT $LN3@ExpandLast

; 2585 : 			return;
; 2586 : 
; 2587 : 		pExpandLastColumn(m_lpPointer);

  0000c	ff b0 0c 01 00
	00		 push	 DWORD PTR [eax+268]
  00012	8b 80 ac 03 00
	00		 mov	 eax, DWORD PTR [eax+940]
  00018	ff d0		 call	 eax
$LN3@ExpandLast:
; File D:\git\src\IBK\IBK_DRFN\ProjSrc\SrcDrfn\Chart\ExControl\ExGridCtrl.cpp

; 1493 : }

  0001a	c3		 ret	 0
?ExpandLastColumn@CExGridCtrl@@QAEXXZ ENDP		; CExGridCtrl::ExpandLastColumn
_TEXT	ENDS
; Function compile flags: /Ogtp
; File D:\git\src\IBK\IBK_DRFN\ProjSrc\SrcDrfn\Chart\ExControl\ExGridCtrl.cpp
; File D:\git\src\IBK\IBK_DRFN\ProjSrc\SrcDrfn\Chart\ExControl\Include\GirdLoadHelper.h
; File D:\git\src\IBK\IBK_DRFN\ProjSrc\SrcDrfn\Chart\ExControl\ExGridCtrl.cpp
;	COMDAT ?ExpandColumnsToFit@CExGridCtrl@@QAEXH@Z
_TEXT	SEGMENT
_bExpandFixed$ = 8					; size = 4
?ExpandColumnsToFit@CExGridCtrl@@QAEXH@Z PROC		; CExGridCtrl::ExpandColumnsToFit, COMDAT
; _this$ = ecx

; 1486 : {

  00000	55		 push	 ebp
  00001	8b ec		 mov	 ebp, esp

; 1487 : 	m_pLoader->ExpandColumnsToFit(bExpandFixed);

  00003	8b 81 80 00 00
	00		 mov	 eax, DWORD PTR [ecx+128]
; File D:\git\src\IBK\IBK_DRFN\ProjSrc\SrcDrfn\Chart\ExControl\Include\GirdLoadHelper.h

; 2576 : 		if(!m_hLib)

  00009	83 78 04 00	 cmp	 DWORD PTR [eax+4], 0
  0000d	74 11		 je	 SHORT $LN3@ExpandColu

; 2577 : 			return;
; 2578 : 
; 2579 : 		pExpandColumnsToFit(m_lpPointer, bExpandFixed);

  0000f	ff 75 08	 push	 DWORD PTR _bExpandFixed$[ebp]
  00012	ff b0 0c 01 00
	00		 push	 DWORD PTR [eax+268]
  00018	8b 80 a8 03 00
	00		 mov	 eax, DWORD PTR [eax+936]
  0001e	ff d0		 call	 eax
$LN3@ExpandColu:
; File D:\git\src\IBK\IBK_DRFN\ProjSrc\SrcDrfn\Chart\ExControl\ExGridCtrl.cpp

; 1488 : }

  00020	5d		 pop	 ebp
  00021	c2 04 00	 ret	 4
?ExpandColumnsToFit@CExGridCtrl@@QAEXH@Z ENDP		; CExGridCtrl::ExpandColumnsToFit
_TEXT	ENDS
; Function compile flags: /Ogtp
; File D:\git\src\IBK\IBK_DRFN\ProjSrc\SrcDrfn\Chart\ExControl\ExGridCtrl.cpp
; File D:\git\src\IBK\IBK_DRFN\ProjSrc\SrcDrfn\Chart\ExControl\Include\GirdLoadHelper.h
; File D:\git\src\IBK\IBK_DRFN\ProjSrc\SrcDrfn\Chart\ExControl\ExGridCtrl.cpp
;	COMDAT ?AutoSize@CExGridCtrl@@QAEXI@Z
_TEXT	SEGMENT
_nAutoSizeStyle$ = 8					; size = 4
?AutoSize@CExGridCtrl@@QAEXI@Z PROC			; CExGridCtrl::AutoSize, COMDAT
; _this$ = ecx

; 1479 : {

  00000	55		 push	 ebp
  00001	8b ec		 mov	 ebp, esp

; 1480 : 	m_pLoader->AutoSize(nAutoSizeStyle);

  00003	8b 81 80 00 00
	00		 mov	 eax, DWORD PTR [ecx+128]
; File D:\git\src\IBK\IBK_DRFN\ProjSrc\SrcDrfn\Chart\ExControl\Include\GirdLoadHelper.h

; 2568 : 		if(!m_hLib)

  00009	83 78 04 00	 cmp	 DWORD PTR [eax+4], 0
  0000d	74 11		 je	 SHORT $LN3@AutoSize

; 2569 : 			return;
; 2570 : 
; 2571 : 		pAutoSize(m_lpPointer, nAutoSizeStyle);

  0000f	ff 75 08	 push	 DWORD PTR _nAutoSizeStyle$[ebp]
  00012	ff b0 0c 01 00
	00		 push	 DWORD PTR [eax+268]
  00018	8b 80 a4 03 00
	00		 mov	 eax, DWORD PTR [eax+932]
  0001e	ff d0		 call	 eax
$LN3@AutoSize:
; File D:\git\src\IBK\IBK_DRFN\ProjSrc\SrcDrfn\Chart\ExControl\ExGridCtrl.cpp

; 1481 : }

  00020	5d		 pop	 ebp
  00021	c2 04 00	 ret	 4
?AutoSize@CExGridCtrl@@QAEXI@Z ENDP			; CExGridCtrl::AutoSize
_TEXT	ENDS
; Function compile flags: /Ogtp
; File D:\git\src\IBK\IBK_DRFN\ProjSrc\SrcDrfn\Chart\ExControl\ExGridCtrl.cpp
; File D:\git\src\IBK\IBK_DRFN\ProjSrc\SrcDrfn\Chart\ExControl\Include\GirdLoadHelper.h
; File D:\git\src\IBK\IBK_DRFN\ProjSrc\SrcDrfn\Chart\ExControl\ExGridCtrl.cpp
;	COMDAT ?AutoSizeColumns@CExGridCtrl@@QAEXI@Z
_TEXT	SEGMENT
_nAutoSizeStyle$ = 8					; size = 4
?AutoSizeColumns@CExGridCtrl@@QAEXI@Z PROC		; CExGridCtrl::AutoSizeColumns, COMDAT
; _this$ = ecx

; 1467 : {

  00000	55		 push	 ebp
  00001	8b ec		 mov	 ebp, esp

; 1468 : 	m_pLoader->AutoSizeColumns(nAutoSizeStyle);

  00003	8b 81 80 00 00
	00		 mov	 eax, DWORD PTR [ecx+128]
; File D:\git\src\IBK\IBK_DRFN\ProjSrc\SrcDrfn\Chart\ExControl\Include\GirdLoadHelper.h

; 2560 : 		if(!m_hLib)

  00009	83 78 04 00	 cmp	 DWORD PTR [eax+4], 0
  0000d	74 11		 je	 SHORT $LN3@AutoSizeCo

; 2561 : 			return;
; 2562 : 
; 2563 : 		pAutoSizeColumns(m_lpPointer, nAutoSizeStyle);

  0000f	ff 75 08	 push	 DWORD PTR _nAutoSizeStyle$[ebp]
  00012	ff b0 0c 01 00
	00		 push	 DWORD PTR [eax+268]
  00018	8b 80 a0 03 00
	00		 mov	 eax, DWORD PTR [eax+928]
  0001e	ff d0		 call	 eax
$LN3@AutoSizeCo:
; File D:\git\src\IBK\IBK_DRFN\ProjSrc\SrcDrfn\Chart\ExControl\ExGridCtrl.cpp

; 1469 : }

  00020	5d		 pop	 ebp
  00021	c2 04 00	 ret	 4
?AutoSizeColumns@CExGridCtrl@@QAEXI@Z ENDP		; CExGridCtrl::AutoSizeColumns
_TEXT	ENDS
; Function compile flags: /Ogtp
; File D:\git\src\IBK\IBK_DRFN\ProjSrc\SrcDrfn\Chart\ExControl\ExGridCtrl.cpp
; File D:\git\src\IBK\IBK_DRFN\ProjSrc\SrcDrfn\Chart\ExControl\Include\GirdLoadHelper.h
; File D:\git\src\IBK\IBK_DRFN\ProjSrc\SrcDrfn\Chart\ExControl\ExGridCtrl.cpp
;	COMDAT ?AutoSizeRows@CExGridCtrl@@QAEXXZ
_TEXT	SEGMENT
?AutoSizeRows@CExGridCtrl@@QAEXXZ PROC			; CExGridCtrl::AutoSizeRows, COMDAT
; _this$ = ecx

; 1473 : 	m_pLoader->AutoSizeRows();

  00000	8b 81 80 00 00
	00		 mov	 eax, DWORD PTR [ecx+128]
; File D:\git\src\IBK\IBK_DRFN\ProjSrc\SrcDrfn\Chart\ExControl\Include\GirdLoadHelper.h

; 2552 : 		if(!m_hLib)

  00006	83 78 04 00	 cmp	 DWORD PTR [eax+4], 0
  0000a	74 0e		 je	 SHORT $LN3@AutoSizeRo

; 2553 : 			return;
; 2554 : 
; 2555 : 		pAutoSizeRows(m_lpPointer);

  0000c	ff b0 0c 01 00
	00		 push	 DWORD PTR [eax+268]
  00012	8b 80 9c 03 00
	00		 mov	 eax, DWORD PTR [eax+924]
  00018	ff d0		 call	 eax
$LN3@AutoSizeRo:
; File D:\git\src\IBK\IBK_DRFN\ProjSrc\SrcDrfn\Chart\ExControl\ExGridCtrl.cpp

; 1474 : }

  0001a	c3		 ret	 0
?AutoSizeRows@CExGridCtrl@@QAEXXZ ENDP			; CExGridCtrl::AutoSizeRows
_TEXT	ENDS
; Function compile flags: /Ogtp
; File D:\git\src\IBK\IBK_DRFN\ProjSrc\SrcDrfn\Chart\ExControl\ExGridCtrl.cpp
; File D:\git\src\IBK\IBK_DRFN\ProjSrc\SrcDrfn\Chart\ExControl\Include\GirdLoadHelper.h
; File D:\git\src\IBK\IBK_DRFN\ProjSrc\SrcDrfn\Chart\ExControl\ExGridCtrl.cpp
; File D:\git\src\IBK\IBK_DRFN\ProjSrc\SrcDrfn\Chart\ExControl\Include\GirdLoadHelper.h
; File D:\git\src\IBK\IBK_DRFN\ProjSrc\SrcDrfn\Chart\ExControl\ExGridCtrl.cpp
;	COMDAT ?AutoSizeColumn@CExGridCtrl@@QAEHHIH@Z
_TEXT	SEGMENT
_nCol$ = 8						; size = 4
_nAutoSizeStyle$ = 12					; size = 4
_bResetScroll$ = 16					; size = 4
?AutoSizeColumn@CExGridCtrl@@QAEHHIH@Z PROC		; CExGridCtrl::AutoSizeColumn, COMDAT
; _this$ = ecx

; 1457 : {

  00000	55		 push	 ebp
  00001	8b ec		 mov	 ebp, esp

; 1458 : 	return m_pLoader->AutoSizeColumn(nCol, nAutoSizeStyle, bResetScroll);

  00003	8b 81 80 00 00
	00		 mov	 eax, DWORD PTR [ecx+128]
; File D:\git\src\IBK\IBK_DRFN\ProjSrc\SrcDrfn\Chart\ExControl\Include\GirdLoadHelper.h

; 2544 : 		if(!m_hLib)

  00009	83 78 04 00	 cmp	 DWORD PTR [eax+4], 0
  0000d	75 06		 jne	 SHORT $LN4@AutoSizeCo
; File D:\git\src\IBK\IBK_DRFN\ProjSrc\SrcDrfn\Chart\ExControl\ExGridCtrl.cpp

; 1458 : 	return m_pLoader->AutoSizeColumn(nCol, nAutoSizeStyle, bResetScroll);

  0000f	33 c0		 xor	 eax, eax

; 1459 : }

  00011	5d		 pop	 ebp
  00012	c2 0c 00	 ret	 12			; 0000000cH
$LN4@AutoSizeCo:
; File D:\git\src\IBK\IBK_DRFN\ProjSrc\SrcDrfn\Chart\ExControl\Include\GirdLoadHelper.h

; 2547 : 		return pAutoSizeColumn(m_lpPointer, nCol, nAutoSizeStyle, bResetScroll);

  00015	ff 75 10	 push	 DWORD PTR _bResetScroll$[ebp]
  00018	ff 75 0c	 push	 DWORD PTR _nAutoSizeStyle$[ebp]
  0001b	ff 75 08	 push	 DWORD PTR _nCol$[ebp]
  0001e	ff b0 0c 01 00
	00		 push	 DWORD PTR [eax+268]
  00024	8b 80 98 03 00
	00		 mov	 eax, DWORD PTR [eax+920]
  0002a	ff d0		 call	 eax
; File D:\git\src\IBK\IBK_DRFN\ProjSrc\SrcDrfn\Chart\ExControl\ExGridCtrl.cpp

; 1459 : }

  0002c	5d		 pop	 ebp
  0002d	c2 0c 00	 ret	 12			; 0000000cH
?AutoSizeColumn@CExGridCtrl@@QAEHHIH@Z ENDP		; CExGridCtrl::AutoSizeColumn
_TEXT	ENDS
; Function compile flags: /Ogtp
; File D:\git\src\IBK\IBK_DRFN\ProjSrc\SrcDrfn\Chart\ExControl\ExGridCtrl.cpp
; File D:\git\src\IBK\IBK_DRFN\ProjSrc\SrcDrfn\Chart\ExControl\Include\GirdLoadHelper.h
; File D:\git\src\IBK\IBK_DRFN\ProjSrc\SrcDrfn\Chart\ExControl\ExGridCtrl.cpp
; File D:\git\src\IBK\IBK_DRFN\ProjSrc\SrcDrfn\Chart\ExControl\Include\GirdLoadHelper.h
; File D:\git\src\IBK\IBK_DRFN\ProjSrc\SrcDrfn\Chart\ExControl\ExGridCtrl.cpp
;	COMDAT ?AutoSizeRow@CExGridCtrl@@QAEHHH@Z
_TEXT	SEGMENT
_nRow$ = 8						; size = 4
_bResetScroll$ = 12					; size = 4
?AutoSizeRow@CExGridCtrl@@QAEHHH@Z PROC			; CExGridCtrl::AutoSizeRow, COMDAT
; _this$ = ecx

; 1462 : {

  00000	55		 push	 ebp
  00001	8b ec		 mov	 ebp, esp

; 1463 : 	return m_pLoader->AutoSizeRow(nRow, bResetScroll);

  00003	8b 81 80 00 00
	00		 mov	 eax, DWORD PTR [ecx+128]
; File D:\git\src\IBK\IBK_DRFN\ProjSrc\SrcDrfn\Chart\ExControl\Include\GirdLoadHelper.h

; 2536 : 		if(!m_hLib)

  00009	83 78 04 00	 cmp	 DWORD PTR [eax+4], 0
  0000d	75 06		 jne	 SHORT $LN4@AutoSizeRo
; File D:\git\src\IBK\IBK_DRFN\ProjSrc\SrcDrfn\Chart\ExControl\ExGridCtrl.cpp

; 1463 : 	return m_pLoader->AutoSizeRow(nRow, bResetScroll);

  0000f	33 c0		 xor	 eax, eax

; 1464 : }

  00011	5d		 pop	 ebp
  00012	c2 08 00	 ret	 8
$LN4@AutoSizeRo:
; File D:\git\src\IBK\IBK_DRFN\ProjSrc\SrcDrfn\Chart\ExControl\Include\GirdLoadHelper.h

; 2539 : 		return pAutoSizeRow(m_lpPointer, nRow, bResetScroll);

  00015	ff 75 0c	 push	 DWORD PTR _bResetScroll$[ebp]
  00018	ff 75 08	 push	 DWORD PTR _nRow$[ebp]
  0001b	ff b0 0c 01 00
	00		 push	 DWORD PTR [eax+268]
  00021	8b 80 94 03 00
	00		 mov	 eax, DWORD PTR [eax+916]
  00027	ff d0		 call	 eax
; File D:\git\src\IBK\IBK_DRFN\ProjSrc\SrcDrfn\Chart\ExControl\ExGridCtrl.cpp

; 1464 : }

  00029	5d		 pop	 ebp
  0002a	c2 08 00	 ret	 8
?AutoSizeRow@CExGridCtrl@@QAEHHH@Z ENDP			; CExGridCtrl::AutoSizeRow
_TEXT	ENDS
; Function compile flags: /Ogtp
; File D:\git\src\IBK\IBK_DRFN\ProjSrc\SrcDrfn\Chart\ExControl\ExGridCtrl.cpp
; File D:\git\src\IBK\IBK_DRFN\ProjSrc\SrcDrfn\Chart\ExControl\Include\GirdLoadHelper.h
; File D:\git\src\IBK\IBK_DRFN\ProjSrc\SrcDrfn\Chart\ExControl\ExGridCtrl.cpp
;	COMDAT ?ClearCells@CExGridCtrl@@QAEXVCCellRange@@@Z
_TEXT	SEGMENT
_Selection$ = 8						; size = 16
?ClearCells@CExGridCtrl@@QAEXVCCellRange@@@Z PROC	; CExGridCtrl::ClearCells, COMDAT
; _this$ = ecx

; 931  : {

  00000	55		 push	 ebp
  00001	8b ec		 mov	 ebp, esp

; 932  : 	m_pLoader->ClearCells(Selection);

  00003	8b 89 80 00 00
	00		 mov	 ecx, DWORD PTR [ecx+128]
; File D:\git\src\IBK\IBK_DRFN\ProjSrc\SrcDrfn\Chart\ExControl\Include\GirdLoadHelper.h

; 2528 : 		if(!m_hLib)

  00009	83 79 04 00	 cmp	 DWORD PTR [ecx+4], 0
  0000d	74 1a		 je	 SHORT $LN3@ClearCells

; 2529 : 			return;
; 2530 : 
; 2531 : 		pClearCells(m_lpPointer, Selection);

  0000f	0f 10 45 08	 movups	 xmm0, XMMWORD PTR _Selection$[ebp]
  00013	83 ec 10	 sub	 esp, 16			; 00000010H
  00016	8b c4		 mov	 eax, esp
  00018	ff b1 0c 01 00
	00		 push	 DWORD PTR [ecx+268]
  0001e	0f 11 00	 movups	 XMMWORD PTR [eax], xmm0
  00021	8b 81 90 03 00
	00		 mov	 eax, DWORD PTR [ecx+912]
  00027	ff d0		 call	 eax
$LN3@ClearCells:
; File D:\git\src\IBK\IBK_DRFN\ProjSrc\SrcDrfn\Chart\ExControl\ExGridCtrl.cpp

; 933  : }

  00029	5d		 pop	 ebp
  0002a	c2 10 00	 ret	 16			; 00000010H
?ClearCells@CExGridCtrl@@QAEXVCCellRange@@@Z ENDP	; CExGridCtrl::ClearCells
_TEXT	ENDS
; Function compile flags: /Ogtp
; File D:\git\src\IBK\IBK_DRFN\ProjSrc\SrcDrfn\Chart\ExControl\ExGridCtrl.cpp
; File D:\git\src\IBK\IBK_DRFN\ProjSrc\SrcDrfn\Chart\ExControl\Include\GirdLoadHelper.h
; File D:\git\src\IBK\IBK_DRFN\ProjSrc\SrcDrfn\Chart\ExControl\ExGridCtrl.cpp
; File D:\git\src\IBK\IBK_DRFN\ProjSrc\SrcDrfn\Chart\ExControl\Include\GirdLoadHelper.h
; File D:\git\src\IBK\IBK_DRFN\ProjSrc\SrcDrfn\Chart\ExControl\ExGridCtrl.cpp
;	COMDAT ?DeleteAllItems@CExGridCtrl@@QAEHXZ
_TEXT	SEGMENT
?DeleteAllItems@CExGridCtrl@@QAEHXZ PROC		; CExGridCtrl::DeleteAllItems, COMDAT
; _this$ = ecx

; 1256 : 	return m_pLoader->DeleteAllItems();

  00000	8b 81 80 00 00
	00		 mov	 eax, DWORD PTR [ecx+128]
; File D:\git\src\IBK\IBK_DRFN\ProjSrc\SrcDrfn\Chart\ExControl\Include\GirdLoadHelper.h

; 2520 : 		if(!m_hLib)

  00006	83 78 04 00	 cmp	 DWORD PTR [eax+4], 0
  0000a	75 03		 jne	 SHORT $LN4@DeleteAllI
; File D:\git\src\IBK\IBK_DRFN\ProjSrc\SrcDrfn\Chart\ExControl\ExGridCtrl.cpp

; 1256 : 	return m_pLoader->DeleteAllItems();

  0000c	33 c0		 xor	 eax, eax

; 1257 : }

  0000e	c3		 ret	 0
$LN4@DeleteAllI:
; File D:\git\src\IBK\IBK_DRFN\ProjSrc\SrcDrfn\Chart\ExControl\Include\GirdLoadHelper.h

; 2523 : 		return pDeleteAllItems(m_lpPointer);

  0000f	ff b0 0c 01 00
	00		 push	 DWORD PTR [eax+268]
  00015	8b 80 8c 03 00
	00		 mov	 eax, DWORD PTR [eax+908]
  0001b	ff d0		 call	 eax
; File D:\git\src\IBK\IBK_DRFN\ProjSrc\SrcDrfn\Chart\ExControl\ExGridCtrl.cpp

; 1257 : }

  0001d	c3		 ret	 0
?DeleteAllItems@CExGridCtrl@@QAEHXZ ENDP		; CExGridCtrl::DeleteAllItems
_TEXT	ENDS
; Function compile flags: /Ogtp
; File D:\git\src\IBK\IBK_DRFN\ProjSrc\SrcDrfn\Chart\ExControl\ExGridCtrl.cpp
; File D:\git\src\IBK\IBK_DRFN\ProjSrc\SrcDrfn\Chart\ExControl\Include\GirdLoadHelper.h
; File D:\git\src\IBK\IBK_DRFN\ProjSrc\SrcDrfn\Chart\ExControl\ExGridCtrl.cpp
; File D:\git\src\IBK\IBK_DRFN\ProjSrc\SrcDrfn\Chart\ExControl\Include\GirdLoadHelper.h
; File D:\git\src\IBK\IBK_DRFN\ProjSrc\SrcDrfn\Chart\ExControl\ExGridCtrl.cpp
;	COMDAT ?DeleteNonFixedRows@CExGridCtrl@@QAEHXZ
_TEXT	SEGMENT
?DeleteNonFixedRows@CExGridCtrl@@QAEHXZ PROC		; CExGridCtrl::DeleteNonFixedRows, COMDAT
; _this$ = ecx

; 1250 : 	return m_pLoader->DeleteNonFixedRows();

  00000	8b 81 80 00 00
	00		 mov	 eax, DWORD PTR [ecx+128]
; File D:\git\src\IBK\IBK_DRFN\ProjSrc\SrcDrfn\Chart\ExControl\Include\GirdLoadHelper.h

; 2512 : 		if(!m_hLib)

  00006	83 78 04 00	 cmp	 DWORD PTR [eax+4], 0
  0000a	75 03		 jne	 SHORT $LN4@DeleteNonF
; File D:\git\src\IBK\IBK_DRFN\ProjSrc\SrcDrfn\Chart\ExControl\ExGridCtrl.cpp

; 1250 : 	return m_pLoader->DeleteNonFixedRows();

  0000c	33 c0		 xor	 eax, eax

; 1251 : }

  0000e	c3		 ret	 0
$LN4@DeleteNonF:
; File D:\git\src\IBK\IBK_DRFN\ProjSrc\SrcDrfn\Chart\ExControl\Include\GirdLoadHelper.h

; 2515 : 		return pDeleteNonFixedRows(m_lpPointer);

  0000f	ff b0 0c 01 00
	00		 push	 DWORD PTR [eax+268]
  00015	8b 80 88 03 00
	00		 mov	 eax, DWORD PTR [eax+904]
  0001b	ff d0		 call	 eax
; File D:\git\src\IBK\IBK_DRFN\ProjSrc\SrcDrfn\Chart\ExControl\ExGridCtrl.cpp

; 1251 : }

  0001d	c3		 ret	 0
?DeleteNonFixedRows@CExGridCtrl@@QAEHXZ ENDP		; CExGridCtrl::DeleteNonFixedRows
_TEXT	ENDS
; Function compile flags: /Ogtp
; File D:\git\src\IBK\IBK_DRFN\ProjSrc\SrcDrfn\Chart\ExControl\ExGridCtrl.cpp
; File D:\git\src\IBK\IBK_DRFN\ProjSrc\SrcDrfn\Chart\ExControl\Include\GirdLoadHelper.h
; File D:\git\src\IBK\IBK_DRFN\ProjSrc\SrcDrfn\Chart\ExControl\ExGridCtrl.cpp
; File D:\git\src\IBK\IBK_DRFN\ProjSrc\SrcDrfn\Chart\ExControl\Include\GirdLoadHelper.h
; File D:\git\src\IBK\IBK_DRFN\ProjSrc\SrcDrfn\Chart\ExControl\ExGridCtrl.cpp
;	COMDAT ?DeleteRow@CExGridCtrl@@QAEHH@Z
_TEXT	SEGMENT
_nRow$ = 8						; size = 4
?DeleteRow@CExGridCtrl@@QAEHH@Z PROC			; CExGridCtrl::DeleteRow, COMDAT
; _this$ = ecx

; 1243 : {

  00000	55		 push	 ebp
  00001	8b ec		 mov	 ebp, esp

; 1244 : 	return m_pLoader->DeleteRow(nRow);

  00003	8b 81 80 00 00
	00		 mov	 eax, DWORD PTR [ecx+128]
; File D:\git\src\IBK\IBK_DRFN\ProjSrc\SrcDrfn\Chart\ExControl\Include\GirdLoadHelper.h

; 2504 : 		if(!m_hLib)

  00009	83 78 04 00	 cmp	 DWORD PTR [eax+4], 0
  0000d	75 06		 jne	 SHORT $LN4@DeleteRow
; File D:\git\src\IBK\IBK_DRFN\ProjSrc\SrcDrfn\Chart\ExControl\ExGridCtrl.cpp

; 1244 : 	return m_pLoader->DeleteRow(nRow);

  0000f	33 c0		 xor	 eax, eax

; 1245 : }

  00011	5d		 pop	 ebp
  00012	c2 04 00	 ret	 4
$LN4@DeleteRow:
; File D:\git\src\IBK\IBK_DRFN\ProjSrc\SrcDrfn\Chart\ExControl\Include\GirdLoadHelper.h

; 2507 : 		return pDeleteRow(m_lpPointer, nRow);

  00015	ff 75 08	 push	 DWORD PTR _nRow$[ebp]
  00018	ff b0 0c 01 00
	00		 push	 DWORD PTR [eax+268]
  0001e	8b 80 84 03 00
	00		 mov	 eax, DWORD PTR [eax+900]
  00024	ff d0		 call	 eax
; File D:\git\src\IBK\IBK_DRFN\ProjSrc\SrcDrfn\Chart\ExControl\ExGridCtrl.cpp

; 1245 : }

  00026	5d		 pop	 ebp
  00027	c2 04 00	 ret	 4
?DeleteRow@CExGridCtrl@@QAEHH@Z ENDP			; CExGridCtrl::DeleteRow
_TEXT	ENDS
; Function compile flags: /Ogtp
; File D:\git\src\IBK\IBK_DRFN\ProjSrc\SrcDrfn\Chart\ExControl\ExGridCtrl.cpp
; File D:\git\src\IBK\IBK_DRFN\ProjSrc\SrcDrfn\Chart\ExControl\Include\GirdLoadHelper.h
; File D:\git\src\IBK\IBK_DRFN\ProjSrc\SrcDrfn\Chart\ExControl\ExGridCtrl.cpp
; File D:\git\src\IBK\IBK_DRFN\ProjSrc\SrcDrfn\Chart\ExControl\Include\GirdLoadHelper.h
; File D:\git\src\IBK\IBK_DRFN\ProjSrc\SrcDrfn\Chart\ExControl\ExGridCtrl.cpp
;	COMDAT ?DeleteColumn@CExGridCtrl@@QAEHH@Z
_TEXT	SEGMENT
_nColumn$ = 8						; size = 4
?DeleteColumn@CExGridCtrl@@QAEHH@Z PROC			; CExGridCtrl::DeleteColumn, COMDAT
; _this$ = ecx

; 1238 : {

  00000	55		 push	 ebp
  00001	8b ec		 mov	 ebp, esp

; 1239 : 	return m_pLoader->DeleteColumn(nColumn);

  00003	8b 81 80 00 00
	00		 mov	 eax, DWORD PTR [ecx+128]
; File D:\git\src\IBK\IBK_DRFN\ProjSrc\SrcDrfn\Chart\ExControl\Include\GirdLoadHelper.h

; 2496 : 		if(!m_hLib)

  00009	83 78 04 00	 cmp	 DWORD PTR [eax+4], 0
  0000d	75 06		 jne	 SHORT $LN4@DeleteColu
; File D:\git\src\IBK\IBK_DRFN\ProjSrc\SrcDrfn\Chart\ExControl\ExGridCtrl.cpp

; 1239 : 	return m_pLoader->DeleteColumn(nColumn);

  0000f	33 c0		 xor	 eax, eax

; 1240 : }

  00011	5d		 pop	 ebp
  00012	c2 04 00	 ret	 4
$LN4@DeleteColu:
; File D:\git\src\IBK\IBK_DRFN\ProjSrc\SrcDrfn\Chart\ExControl\Include\GirdLoadHelper.h

; 2499 : 		return pDeleteColumn(m_lpPointer, nColumn);

  00015	ff 75 08	 push	 DWORD PTR _nColumn$[ebp]
  00018	ff b0 0c 01 00
	00		 push	 DWORD PTR [eax+268]
  0001e	8b 80 80 03 00
	00		 mov	 eax, DWORD PTR [eax+896]
  00024	ff d0		 call	 eax
; File D:\git\src\IBK\IBK_DRFN\ProjSrc\SrcDrfn\Chart\ExControl\ExGridCtrl.cpp

; 1240 : }

  00026	5d		 pop	 ebp
  00027	c2 04 00	 ret	 4
?DeleteColumn@CExGridCtrl@@QAEHH@Z ENDP			; CExGridCtrl::DeleteColumn
_TEXT	ENDS
; Function compile flags: /Ogtp
; File D:\git\src\IBK\IBK_DRFN\ProjSrc\SrcDrfn\Chart\ExControl\ExGridCtrl.cpp
; File D:\git\src\IBK\IBK_DRFN\ProjSrc\SrcDrfn\Chart\ExControl\Include\GirdLoadHelper.h
; File D:\git\src\IBK\IBK_DRFN\ProjSrc\SrcDrfn\Chart\ExControl\ExGridCtrl.cpp
; File D:\git\src\IBK\IBK_DRFN\ProjSrc\SrcDrfn\Chart\ExControl\Include\GirdLoadHelper.h
; File D:\git\src\IBK\IBK_DRFN\ProjSrc\SrcDrfn\Chart\ExControl\ExGridCtrl.cpp
;	COMDAT ?InsertRow@CExGridCtrl@@QAEHPBDH@Z
_TEXT	SEGMENT
_strHeading$ = 8					; size = 4
_nRow$ = 12						; size = 4
?InsertRow@CExGridCtrl@@QAEHPBDH@Z PROC			; CExGridCtrl::InsertRow, COMDAT
; _this$ = ecx

; 1208 : {

  00000	55		 push	 ebp
  00001	8b ec		 mov	 ebp, esp

; 1209 : 	return m_pLoader->InsertRow(strHeading, nRow);

  00003	8b 81 80 00 00
	00		 mov	 eax, DWORD PTR [ecx+128]
; File D:\git\src\IBK\IBK_DRFN\ProjSrc\SrcDrfn\Chart\ExControl\Include\GirdLoadHelper.h

; 2488 : 		if(!m_hLib)

  00009	83 78 04 00	 cmp	 DWORD PTR [eax+4], 0
  0000d	75 07		 jne	 SHORT $LN4@InsertRow
; File D:\git\src\IBK\IBK_DRFN\ProjSrc\SrcDrfn\Chart\ExControl\ExGridCtrl.cpp

; 1209 : 	return m_pLoader->InsertRow(strHeading, nRow);

  0000f	83 c8 ff	 or	 eax, -1

; 1210 : }

  00012	5d		 pop	 ebp
  00013	c2 08 00	 ret	 8
$LN4@InsertRow:
; File D:\git\src\IBK\IBK_DRFN\ProjSrc\SrcDrfn\Chart\ExControl\Include\GirdLoadHelper.h

; 2491 : 		return pInsertRow(m_lpPointer, strHeading, nRow);

  00016	ff 75 0c	 push	 DWORD PTR _nRow$[ebp]
  00019	ff 75 08	 push	 DWORD PTR _strHeading$[ebp]
  0001c	ff b0 0c 01 00
	00		 push	 DWORD PTR [eax+268]
  00022	8b 80 7c 03 00
	00		 mov	 eax, DWORD PTR [eax+892]
  00028	ff d0		 call	 eax
; File D:\git\src\IBK\IBK_DRFN\ProjSrc\SrcDrfn\Chart\ExControl\ExGridCtrl.cpp

; 1210 : }

  0002a	5d		 pop	 ebp
  0002b	c2 08 00	 ret	 8
?InsertRow@CExGridCtrl@@QAEHPBDH@Z ENDP			; CExGridCtrl::InsertRow
_TEXT	ENDS
; Function compile flags: /Ogtp
; File D:\git\src\IBK\IBK_DRFN\ProjSrc\SrcDrfn\Chart\ExControl\ExGridCtrl.cpp
; File D:\git\src\IBK\IBK_DRFN\ProjSrc\SrcDrfn\Chart\ExControl\Include\GirdLoadHelper.h
; File D:\git\src\IBK\IBK_DRFN\ProjSrc\SrcDrfn\Chart\ExControl\ExGridCtrl.cpp
; File D:\git\src\IBK\IBK_DRFN\ProjSrc\SrcDrfn\Chart\ExControl\Include\GirdLoadHelper.h
; File D:\git\src\IBK\IBK_DRFN\ProjSrc\SrcDrfn\Chart\ExControl\ExGridCtrl.cpp
;	COMDAT ?InsertColumn@CExGridCtrl@@QAEHPBDIH@Z
_TEXT	SEGMENT
_strHeading$ = 8					; size = 4
_nFormat$ = 12						; size = 4
_nColumn$ = 16						; size = 4
?InsertColumn@CExGridCtrl@@QAEHPBDIH@Z PROC		; CExGridCtrl::InsertColumn, COMDAT
; _this$ = ecx

; 1202 : {

  00000	55		 push	 ebp
  00001	8b ec		 mov	 ebp, esp

; 1203 : 	return m_pLoader->InsertColumn(strHeading, nFormat, nColumn);

  00003	8b 81 80 00 00
	00		 mov	 eax, DWORD PTR [ecx+128]
; File D:\git\src\IBK\IBK_DRFN\ProjSrc\SrcDrfn\Chart\ExControl\Include\GirdLoadHelper.h

; 2480 : 		if(!m_hLib)

  00009	83 78 04 00	 cmp	 DWORD PTR [eax+4], 0
  0000d	75 07		 jne	 SHORT $LN4@InsertColu
; File D:\git\src\IBK\IBK_DRFN\ProjSrc\SrcDrfn\Chart\ExControl\ExGridCtrl.cpp

; 1203 : 	return m_pLoader->InsertColumn(strHeading, nFormat, nColumn);

  0000f	83 c8 ff	 or	 eax, -1

; 1204 : }

  00012	5d		 pop	 ebp
  00013	c2 0c 00	 ret	 12			; 0000000cH
$LN4@InsertColu:
; File D:\git\src\IBK\IBK_DRFN\ProjSrc\SrcDrfn\Chart\ExControl\Include\GirdLoadHelper.h

; 2483 : 		return pInsertColumn(m_lpPointer, strHeading, nFormat, nColumn);

  00016	ff 75 10	 push	 DWORD PTR _nColumn$[ebp]
  00019	ff 75 0c	 push	 DWORD PTR _nFormat$[ebp]
  0001c	ff 75 08	 push	 DWORD PTR _strHeading$[ebp]
  0001f	ff b0 0c 01 00
	00		 push	 DWORD PTR [eax+268]
  00025	8b 80 78 03 00
	00		 mov	 eax, DWORD PTR [eax+888]
  0002b	ff d0		 call	 eax
; File D:\git\src\IBK\IBK_DRFN\ProjSrc\SrcDrfn\Chart\ExControl\ExGridCtrl.cpp

; 1204 : }

  0002d	5d		 pop	 ebp
  0002e	c2 0c 00	 ret	 12			; 0000000cH
?InsertColumn@CExGridCtrl@@QAEHPBDIH@Z ENDP		; CExGridCtrl::InsertColumn
_TEXT	ENDS
; Function compile flags: /Ogtp
; File D:\git\src\IBK\IBK_DRFN\ProjSrc\SrcDrfn\Chart\ExControl\ExGridCtrl.cpp
; File D:\git\src\IBK\IBK_DRFN\ProjSrc\SrcDrfn\Chart\ExControl\Include\GirdLoadHelper.h
; File D:\git\src\IBK\IBK_DRFN\ProjSrc\SrcDrfn\Chart\ExControl\ExGridCtrl.cpp
; File D:\git\src\IBK\IBK_DRFN\ProjSrc\SrcDrfn\Chart\ExControl\Include\GirdLoadHelper.h
; File D:\git\src\IBK\IBK_DRFN\ProjSrc\SrcDrfn\Chart\ExControl\ExGridCtrl.cpp
;	COMDAT ?SetDefaultCellType@CExGridCtrl@@QAEHPAUCRuntimeClass@@@Z
_TEXT	SEGMENT
_pRuntimeClass$ = 8					; size = 4
?SetDefaultCellType@CExGridCtrl@@QAEHPAUCRuntimeClass@@@Z PROC ; CExGridCtrl::SetDefaultCellType, COMDAT
; _this$ = ecx

; 1221 : {

  00000	55		 push	 ebp
  00001	8b ec		 mov	 ebp, esp

; 1222 : 	return m_pLoader->SetDefaultCellType(pRuntimeClass);

  00003	8b 81 80 00 00
	00		 mov	 eax, DWORD PTR [ecx+128]
; File D:\git\src\IBK\IBK_DRFN\ProjSrc\SrcDrfn\Chart\ExControl\Include\GirdLoadHelper.h

; 3569 : 		if(!m_hLib)

  00009	83 78 04 00	 cmp	 DWORD PTR [eax+4], 0
  0000d	75 06		 jne	 SHORT $LN4@SetDefault
; File D:\git\src\IBK\IBK_DRFN\ProjSrc\SrcDrfn\Chart\ExControl\ExGridCtrl.cpp

; 1222 : 	return m_pLoader->SetDefaultCellType(pRuntimeClass);

  0000f	33 c0		 xor	 eax, eax

; 1223 : }

  00011	5d		 pop	 ebp
  00012	c2 04 00	 ret	 4
$LN4@SetDefault:
; File D:\git\src\IBK\IBK_DRFN\ProjSrc\SrcDrfn\Chart\ExControl\Include\GirdLoadHelper.h

; 3572 : 		return pSetDefaultCellType(m_lpPointer, pRuntimeClass);

  00015	ff 75 08	 push	 DWORD PTR _pRuntimeClass$[ebp]
  00018	ff b0 0c 01 00
	00		 push	 DWORD PTR [eax+268]
  0001e	8b 80 98 05 00
	00		 mov	 eax, DWORD PTR [eax+1432]
  00024	ff d0		 call	 eax
; File D:\git\src\IBK\IBK_DRFN\ProjSrc\SrcDrfn\Chart\ExControl\ExGridCtrl.cpp

; 1223 : }

  00026	5d		 pop	 ebp
  00027	c2 04 00	 ret	 4
?SetDefaultCellType@CExGridCtrl@@QAEHPAUCRuntimeClass@@@Z ENDP ; CExGridCtrl::SetDefaultCellType
_TEXT	ENDS
; Function compile flags: /Ogtp
; File D:\git\src\IBK\IBK_DRFN\ProjSrc\SrcDrfn\Chart\ExControl\ExGridCtrl.cpp
; File D:\git\src\IBK\IBK_DRFN\ProjSrc\SrcDrfn\Chart\ExControl\Include\GirdLoadHelper.h
; File D:\git\src\IBK\IBK_DRFN\ProjSrc\SrcDrfn\Chart\ExControl\ExGridCtrl.cpp
; File D:\git\src\IBK\IBK_DRFN\ProjSrc\SrcDrfn\Chart\ExControl\Include\GirdLoadHelper.h
; File D:\git\src\IBK\IBK_DRFN\ProjSrc\SrcDrfn\Chart\ExControl\ExGridCtrl.cpp
;	COMDAT ?SetCellType@CExGridCtrl@@QAEHHHPAUCRuntimeClass@@@Z
_TEXT	SEGMENT
_nRow$ = 8						; size = 4
_nCol$ = 12						; size = 4
_pRuntimeClass$ = 16					; size = 4
?SetCellType@CExGridCtrl@@QAEHHHPAUCRuntimeClass@@@Z PROC ; CExGridCtrl::SetCellType, COMDAT
; _this$ = ecx

; 1216 : {

  00000	55		 push	 ebp
  00001	8b ec		 mov	 ebp, esp

; 1217 : 	return m_pLoader->SetCellType(nRow, nCol, pRuntimeClass);

  00003	8b 81 80 00 00
	00		 mov	 eax, DWORD PTR [ecx+128]
; File D:\git\src\IBK\IBK_DRFN\ProjSrc\SrcDrfn\Chart\ExControl\Include\GirdLoadHelper.h

; 2472 : 		if(!m_hLib)

  00009	83 78 04 00	 cmp	 DWORD PTR [eax+4], 0
  0000d	75 06		 jne	 SHORT $LN4@SetCellTyp
; File D:\git\src\IBK\IBK_DRFN\ProjSrc\SrcDrfn\Chart\ExControl\ExGridCtrl.cpp

; 1217 : 	return m_pLoader->SetCellType(nRow, nCol, pRuntimeClass);

  0000f	33 c0		 xor	 eax, eax

; 1218 : }

  00011	5d		 pop	 ebp
  00012	c2 0c 00	 ret	 12			; 0000000cH
$LN4@SetCellTyp:
; File D:\git\src\IBK\IBK_DRFN\ProjSrc\SrcDrfn\Chart\ExControl\Include\GirdLoadHelper.h

; 2475 : 		return pSetCellType(m_lpPointer, nRow, nCol, pRuntimeClass);

  00015	ff 75 10	 push	 DWORD PTR _pRuntimeClass$[ebp]
  00018	ff 75 0c	 push	 DWORD PTR _nCol$[ebp]
  0001b	ff 75 08	 push	 DWORD PTR _nRow$[ebp]
  0001e	ff b0 0c 01 00
	00		 push	 DWORD PTR [eax+268]
  00024	8b 80 74 03 00
	00		 mov	 eax, DWORD PTR [eax+884]
  0002a	ff d0		 call	 eax
; File D:\git\src\IBK\IBK_DRFN\ProjSrc\SrcDrfn\Chart\ExControl\ExGridCtrl.cpp

; 1218 : }

  0002c	5d		 pop	 ebp
  0002d	c2 0c 00	 ret	 12			; 0000000cH
?SetCellType@CExGridCtrl@@QAEHHHPAUCRuntimeClass@@@Z ENDP ; CExGridCtrl::SetCellType
_TEXT	ENDS
; Function compile flags: /Ogtp
; File D:\git\src\IBK\IBK_DRFN\ProjSrc\SrcDrfn\Chart\ExControl\ExGridCtrl.cpp
; File D:\git\src\IBK\IBK_DRFN\ProjSrc\SrcDrfn\Chart\ExControl\Include\GirdLoadHelper.h
; File D:\git\src\IBK\IBK_DRFN\ProjSrc\SrcDrfn\Chart\ExControl\ExGridCtrl.cpp
; File D:\git\src\IBK\IBK_DRFN\ProjSrc\SrcDrfn\Chart\ExControl\Include\GirdLoadHelper.h
; File D:\git\src\IBK\IBK_DRFN\ProjSrc\SrcDrfn\Chart\ExControl\ExGridCtrl.cpp
;	COMDAT ?IsItemEditing@CExGridCtrl@@QAEHHH@Z
_TEXT	SEGMENT
_nRow$ = 8						; size = 4
_nCol$ = 12						; size = 4
?IsItemEditing@CExGridCtrl@@QAEHHH@Z PROC		; CExGridCtrl::IsItemEditing, COMDAT
; _this$ = ecx

; 1409 : {

  00000	55		 push	 ebp
  00001	8b ec		 mov	 ebp, esp

; 1410 : 	return m_pLoader->IsItemEditing(nRow, nCol);

  00003	8b 81 80 00 00
	00		 mov	 eax, DWORD PTR [ecx+128]
; File D:\git\src\IBK\IBK_DRFN\ProjSrc\SrcDrfn\Chart\ExControl\Include\GirdLoadHelper.h

; 2464 : 		if(!m_hLib)

  00009	83 78 04 00	 cmp	 DWORD PTR [eax+4], 0
  0000d	75 06		 jne	 SHORT $LN4@IsItemEdit
; File D:\git\src\IBK\IBK_DRFN\ProjSrc\SrcDrfn\Chart\ExControl\ExGridCtrl.cpp

; 1410 : 	return m_pLoader->IsItemEditing(nRow, nCol);

  0000f	33 c0		 xor	 eax, eax

; 1411 : }

  00011	5d		 pop	 ebp
  00012	c2 08 00	 ret	 8
$LN4@IsItemEdit:
; File D:\git\src\IBK\IBK_DRFN\ProjSrc\SrcDrfn\Chart\ExControl\Include\GirdLoadHelper.h

; 2467 : 		return pIsItemEditing(m_lpPointer, nRow, nCol);

  00015	ff 75 0c	 push	 DWORD PTR _nCol$[ebp]
  00018	ff 75 08	 push	 DWORD PTR _nRow$[ebp]
  0001b	ff b0 0c 01 00
	00		 push	 DWORD PTR [eax+268]
  00021	8b 80 70 03 00
	00		 mov	 eax, DWORD PTR [eax+880]
  00027	ff d0		 call	 eax
; File D:\git\src\IBK\IBK_DRFN\ProjSrc\SrcDrfn\Chart\ExControl\ExGridCtrl.cpp

; 1411 : }

  00029	5d		 pop	 ebp
  0002a	c2 08 00	 ret	 8
?IsItemEditing@CExGridCtrl@@QAEHHH@Z ENDP		; CExGridCtrl::IsItemEditing
_TEXT	ENDS
; Function compile flags: /Ogtp
; File D:\git\src\IBK\IBK_DRFN\ProjSrc\SrcDrfn\Chart\ExControl\ExGridCtrl.cpp
; File D:\git\src\IBK\IBK_DRFN\ProjSrc\SrcDrfn\Chart\ExControl\Include\GirdLoadHelper.h
; File D:\git\src\IBK\IBK_DRFN\ProjSrc\SrcDrfn\Chart\ExControl\ExGridCtrl.cpp
; File D:\git\src\IBK\IBK_DRFN\ProjSrc\SrcDrfn\Chart\ExControl\Include\GirdLoadHelper.h
; File D:\git\src\IBK\IBK_DRFN\ProjSrc\SrcDrfn\Chart\ExControl\ExGridCtrl.cpp
;	COMDAT ?GetItemFont@CExGridCtrl@@QAEPAUtagLOGFONTA@@HH@Z
_TEXT	SEGMENT
_nRow$ = 8						; size = 4
_nCol$ = 12						; size = 4
?GetItemFont@CExGridCtrl@@QAEPAUtagLOGFONTA@@HH@Z PROC	; CExGridCtrl::GetItemFont, COMDAT
; _this$ = ecx

; 1404 : {

  00000	55		 push	 ebp
  00001	8b ec		 mov	 ebp, esp

; 1405 : 	return m_pLoader->GetItemFont(nRow, nCol);

  00003	8b 81 80 00 00
	00		 mov	 eax, DWORD PTR [ecx+128]
; File D:\git\src\IBK\IBK_DRFN\ProjSrc\SrcDrfn\Chart\ExControl\Include\GirdLoadHelper.h

; 2456 : 		if(!m_hLib)

  00009	83 78 04 00	 cmp	 DWORD PTR [eax+4], 0
  0000d	75 06		 jne	 SHORT $LN4@GetItemFon
; File D:\git\src\IBK\IBK_DRFN\ProjSrc\SrcDrfn\Chart\ExControl\ExGridCtrl.cpp

; 1405 : 	return m_pLoader->GetItemFont(nRow, nCol);

  0000f	33 c0		 xor	 eax, eax

; 1406 : }

  00011	5d		 pop	 ebp
  00012	c2 08 00	 ret	 8
$LN4@GetItemFon:
; File D:\git\src\IBK\IBK_DRFN\ProjSrc\SrcDrfn\Chart\ExControl\Include\GirdLoadHelper.h

; 2459 : 		return pGetItemFont(m_lpPointer, nRow, nCol);

  00015	ff 75 0c	 push	 DWORD PTR _nCol$[ebp]
  00018	ff 75 08	 push	 DWORD PTR _nRow$[ebp]
  0001b	ff b0 0c 01 00
	00		 push	 DWORD PTR [eax+268]
  00021	8b 80 6c 03 00
	00		 mov	 eax, DWORD PTR [eax+876]
  00027	ff d0		 call	 eax
; File D:\git\src\IBK\IBK_DRFN\ProjSrc\SrcDrfn\Chart\ExControl\ExGridCtrl.cpp

; 1406 : }

  00029	5d		 pop	 ebp
  0002a	c2 08 00	 ret	 8
?GetItemFont@CExGridCtrl@@QAEPAUtagLOGFONTA@@HH@Z ENDP	; CExGridCtrl::GetItemFont
_TEXT	ENDS
; Function compile flags: /Ogtp
; File D:\git\src\IBK\IBK_DRFN\ProjSrc\SrcDrfn\Chart\ExControl\ExGridCtrl.cpp
; File D:\git\src\IBK\IBK_DRFN\ProjSrc\SrcDrfn\Chart\ExControl\Include\GirdLoadHelper.h
; File D:\git\src\IBK\IBK_DRFN\ProjSrc\SrcDrfn\Chart\ExControl\ExGridCtrl.cpp
; File D:\git\src\IBK\IBK_DRFN\ProjSrc\SrcDrfn\Chart\ExControl\Include\GirdLoadHelper.h
; File D:\git\src\IBK\IBK_DRFN\ProjSrc\SrcDrfn\Chart\ExControl\ExGridCtrl.cpp
;	COMDAT ?SetItemFont@CExGridCtrl@@QAEHHHPAUtagLOGFONTA@@@Z
_TEXT	SEGMENT
_nRow$ = 8						; size = 4
_nCol$ = 12						; size = 4
_plf$ = 16						; size = 4
?SetItemFont@CExGridCtrl@@QAEHHHPAUtagLOGFONTA@@@Z PROC	; CExGridCtrl::SetItemFont, COMDAT
; _this$ = ecx

; 1399 : {

  00000	55		 push	 ebp
  00001	8b ec		 mov	 ebp, esp

; 1400 : 	return m_pLoader->SetItemFont(nRow, nCol, plf);

  00003	8b 81 80 00 00
	00		 mov	 eax, DWORD PTR [ecx+128]
; File D:\git\src\IBK\IBK_DRFN\ProjSrc\SrcDrfn\Chart\ExControl\Include\GirdLoadHelper.h

; 2448 : 		if(!m_hLib)

  00009	83 78 04 00	 cmp	 DWORD PTR [eax+4], 0
  0000d	75 06		 jne	 SHORT $LN4@SetItemFon
; File D:\git\src\IBK\IBK_DRFN\ProjSrc\SrcDrfn\Chart\ExControl\ExGridCtrl.cpp

; 1400 : 	return m_pLoader->SetItemFont(nRow, nCol, plf);

  0000f	33 c0		 xor	 eax, eax

; 1401 : }

  00011	5d		 pop	 ebp
  00012	c2 0c 00	 ret	 12			; 0000000cH
$LN4@SetItemFon:
; File D:\git\src\IBK\IBK_DRFN\ProjSrc\SrcDrfn\Chart\ExControl\Include\GirdLoadHelper.h

; 2451 : 		return pSetItemFont(m_lpPointer, nRow, nCol, lf);

  00015	ff 75 10	 push	 DWORD PTR _plf$[ebp]
  00018	ff 75 0c	 push	 DWORD PTR _nCol$[ebp]
  0001b	ff 75 08	 push	 DWORD PTR _nRow$[ebp]
  0001e	ff b0 0c 01 00
	00		 push	 DWORD PTR [eax+268]
  00024	8b 80 68 03 00
	00		 mov	 eax, DWORD PTR [eax+872]
  0002a	ff d0		 call	 eax
; File D:\git\src\IBK\IBK_DRFN\ProjSrc\SrcDrfn\Chart\ExControl\ExGridCtrl.cpp

; 1401 : }

  0002c	5d		 pop	 ebp
  0002d	c2 0c 00	 ret	 12			; 0000000cH
?SetItemFont@CExGridCtrl@@QAEHHHPAUtagLOGFONTA@@@Z ENDP	; CExGridCtrl::SetItemFont
_TEXT	ENDS
; Function compile flags: /Ogtp
; File D:\git\src\IBK\IBK_DRFN\ProjSrc\SrcDrfn\Chart\ExControl\ExGridCtrl.cpp
; File D:\git\src\IBK\IBK_DRFN\ProjSrc\SrcDrfn\Chart\ExControl\Include\GirdLoadHelper.h
; File D:\git\src\IBK\IBK_DRFN\ProjSrc\SrcDrfn\Chart\ExControl\ExGridCtrl.cpp
; File D:\git\src\IBK\IBK_DRFN\ProjSrc\SrcDrfn\Chart\ExControl\Include\GirdLoadHelper.h
; File D:\git\src\IBK\IBK_DRFN\ProjSrc\SrcDrfn\Chart\ExControl\ExGridCtrl.cpp
;	COMDAT ?GetItemFgColour@CExGridCtrl@@QAEKHH@Z
_TEXT	SEGMENT
_nRow$ = 8						; size = 4
_nCol$ = 12						; size = 4
?GetItemFgColour@CExGridCtrl@@QAEKHH@Z PROC		; CExGridCtrl::GetItemFgColour, COMDAT
; _this$ = ecx

; 1394 : {

  00000	55		 push	 ebp
  00001	8b ec		 mov	 ebp, esp

; 1395 : 	return m_pLoader->GetItemFgColour(nRow, nCol);

  00003	8b 81 80 00 00
	00		 mov	 eax, DWORD PTR [ecx+128]
; File D:\git\src\IBK\IBK_DRFN\ProjSrc\SrcDrfn\Chart\ExControl\Include\GirdLoadHelper.h

; 2440 : 		if(!m_hLib)

  00009	83 78 04 00	 cmp	 DWORD PTR [eax+4], 0
  0000d	75 06		 jne	 SHORT $LN4@GetItemFgC
; File D:\git\src\IBK\IBK_DRFN\ProjSrc\SrcDrfn\Chart\ExControl\ExGridCtrl.cpp

; 1395 : 	return m_pLoader->GetItemFgColour(nRow, nCol);

  0000f	33 c0		 xor	 eax, eax

; 1396 : }

  00011	5d		 pop	 ebp
  00012	c2 08 00	 ret	 8
$LN4@GetItemFgC:
; File D:\git\src\IBK\IBK_DRFN\ProjSrc\SrcDrfn\Chart\ExControl\Include\GirdLoadHelper.h

; 2443 : 		return pGetItemFgColour(m_lpPointer, nRow, nCol);

  00015	ff 75 0c	 push	 DWORD PTR _nCol$[ebp]
  00018	ff 75 08	 push	 DWORD PTR _nRow$[ebp]
  0001b	ff b0 0c 01 00
	00		 push	 DWORD PTR [eax+268]
  00021	8b 80 64 03 00
	00		 mov	 eax, DWORD PTR [eax+868]
  00027	ff d0		 call	 eax
; File D:\git\src\IBK\IBK_DRFN\ProjSrc\SrcDrfn\Chart\ExControl\ExGridCtrl.cpp

; 1396 : }

  00029	5d		 pop	 ebp
  0002a	c2 08 00	 ret	 8
?GetItemFgColour@CExGridCtrl@@QAEKHH@Z ENDP		; CExGridCtrl::GetItemFgColour
_TEXT	ENDS
; Function compile flags: /Ogtp
; File D:\git\src\IBK\IBK_DRFN\ProjSrc\SrcDrfn\Chart\ExControl\ExGridCtrl.cpp
; File D:\git\src\IBK\IBK_DRFN\ProjSrc\SrcDrfn\Chart\ExControl\Include\GirdLoadHelper.h
; File D:\git\src\IBK\IBK_DRFN\ProjSrc\SrcDrfn\Chart\ExControl\ExGridCtrl.cpp
; File D:\git\src\IBK\IBK_DRFN\ProjSrc\SrcDrfn\Chart\ExControl\Include\GirdLoadHelper.h
; File D:\git\src\IBK\IBK_DRFN\ProjSrc\SrcDrfn\Chart\ExControl\ExGridCtrl.cpp
;	COMDAT ?SetItemFgColour@CExGridCtrl@@QAEHHHK@Z
_TEXT	SEGMENT
_nRow$ = 8						; size = 4
_nCol$ = 12						; size = 4
_cr$ = 16						; size = 4
?SetItemFgColour@CExGridCtrl@@QAEHHHK@Z PROC		; CExGridCtrl::SetItemFgColour, COMDAT
; _this$ = ecx

; 1389 : {

  00000	55		 push	 ebp
  00001	8b ec		 mov	 ebp, esp

; 1390 : 	return m_pLoader->SetItemFgColour(nRow, nCol, cr);

  00003	8b 81 80 00 00
	00		 mov	 eax, DWORD PTR [ecx+128]
; File D:\git\src\IBK\IBK_DRFN\ProjSrc\SrcDrfn\Chart\ExControl\Include\GirdLoadHelper.h

; 2432 : 		if(!m_hLib)

  00009	83 78 04 00	 cmp	 DWORD PTR [eax+4], 0
  0000d	75 06		 jne	 SHORT $LN4@SetItemFgC
; File D:\git\src\IBK\IBK_DRFN\ProjSrc\SrcDrfn\Chart\ExControl\ExGridCtrl.cpp

; 1390 : 	return m_pLoader->SetItemFgColour(nRow, nCol, cr);

  0000f	33 c0		 xor	 eax, eax

; 1391 : }

  00011	5d		 pop	 ebp
  00012	c2 0c 00	 ret	 12			; 0000000cH
$LN4@SetItemFgC:
; File D:\git\src\IBK\IBK_DRFN\ProjSrc\SrcDrfn\Chart\ExControl\Include\GirdLoadHelper.h

; 2435 : 		return pSetItemFgColour(m_lpPointer, nRow, nCol, cr);

  00015	ff 75 10	 push	 DWORD PTR _cr$[ebp]
  00018	ff 75 0c	 push	 DWORD PTR _nCol$[ebp]
  0001b	ff 75 08	 push	 DWORD PTR _nRow$[ebp]
  0001e	ff b0 0c 01 00
	00		 push	 DWORD PTR [eax+268]
  00024	8b 80 60 03 00
	00		 mov	 eax, DWORD PTR [eax+864]
  0002a	ff d0		 call	 eax
; File D:\git\src\IBK\IBK_DRFN\ProjSrc\SrcDrfn\Chart\ExControl\ExGridCtrl.cpp

; 1391 : }

  0002c	5d		 pop	 ebp
  0002d	c2 0c 00	 ret	 12			; 0000000cH
?SetItemFgColour@CExGridCtrl@@QAEHHHK@Z ENDP		; CExGridCtrl::SetItemFgColour
_TEXT	ENDS
; Function compile flags: /Ogtp
; File D:\git\src\IBK\IBK_DRFN\ProjSrc\SrcDrfn\Chart\ExControl\ExGridCtrl.cpp
; File D:\git\src\IBK\IBK_DRFN\ProjSrc\SrcDrfn\Chart\ExControl\Include\GirdLoadHelper.h
; File D:\git\src\IBK\IBK_DRFN\ProjSrc\SrcDrfn\Chart\ExControl\ExGridCtrl.cpp
; File D:\git\src\IBK\IBK_DRFN\ProjSrc\SrcDrfn\Chart\ExControl\Include\GirdLoadHelper.h
; File D:\git\src\IBK\IBK_DRFN\ProjSrc\SrcDrfn\Chart\ExControl\ExGridCtrl.cpp
;	COMDAT ?GetItemBkColour@CExGridCtrl@@QAEKHH@Z
_TEXT	SEGMENT
_nRow$ = 8						; size = 4
_nCol$ = 12						; size = 4
?GetItemBkColour@CExGridCtrl@@QAEKHH@Z PROC		; CExGridCtrl::GetItemBkColour, COMDAT
; _this$ = ecx

; 1384 : {

  00000	55		 push	 ebp
  00001	8b ec		 mov	 ebp, esp

; 1385 : 	return m_pLoader->GetItemBkColour(nRow, nCol);

  00003	8b 81 80 00 00
	00		 mov	 eax, DWORD PTR [ecx+128]
; File D:\git\src\IBK\IBK_DRFN\ProjSrc\SrcDrfn\Chart\ExControl\Include\GirdLoadHelper.h

; 2424 : 		if(!m_hLib)

  00009	83 78 04 00	 cmp	 DWORD PTR [eax+4], 0
  0000d	75 06		 jne	 SHORT $LN4@GetItemBkC
; File D:\git\src\IBK\IBK_DRFN\ProjSrc\SrcDrfn\Chart\ExControl\ExGridCtrl.cpp

; 1385 : 	return m_pLoader->GetItemBkColour(nRow, nCol);

  0000f	33 c0		 xor	 eax, eax

; 1386 : }

  00011	5d		 pop	 ebp
  00012	c2 08 00	 ret	 8
$LN4@GetItemBkC:
; File D:\git\src\IBK\IBK_DRFN\ProjSrc\SrcDrfn\Chart\ExControl\Include\GirdLoadHelper.h

; 2427 : 		return pGetItemBkColour(m_lpPointer, nRow, nCol);

  00015	ff 75 0c	 push	 DWORD PTR _nCol$[ebp]
  00018	ff 75 08	 push	 DWORD PTR _nRow$[ebp]
  0001b	ff b0 0c 01 00
	00		 push	 DWORD PTR [eax+268]
  00021	8b 80 5c 03 00
	00		 mov	 eax, DWORD PTR [eax+860]
  00027	ff d0		 call	 eax
; File D:\git\src\IBK\IBK_DRFN\ProjSrc\SrcDrfn\Chart\ExControl\ExGridCtrl.cpp

; 1386 : }

  00029	5d		 pop	 ebp
  0002a	c2 08 00	 ret	 8
?GetItemBkColour@CExGridCtrl@@QAEKHH@Z ENDP		; CExGridCtrl::GetItemBkColour
_TEXT	ENDS
; Function compile flags: /Ogtp
; File D:\git\src\IBK\IBK_DRFN\ProjSrc\SrcDrfn\Chart\ExControl\ExGridCtrl.cpp
; File D:\git\src\IBK\IBK_DRFN\ProjSrc\SrcDrfn\Chart\ExControl\Include\GirdLoadHelper.h
; File D:\git\src\IBK\IBK_DRFN\ProjSrc\SrcDrfn\Chart\ExControl\ExGridCtrl.cpp
; File D:\git\src\IBK\IBK_DRFN\ProjSrc\SrcDrfn\Chart\ExControl\Include\GirdLoadHelper.h
; File D:\git\src\IBK\IBK_DRFN\ProjSrc\SrcDrfn\Chart\ExControl\ExGridCtrl.cpp
;	COMDAT ?SetItemBkColour@CExGridCtrl@@QAEHHHK@Z
_TEXT	SEGMENT
_nRow$ = 8						; size = 4
_nCol$ = 12						; size = 4
_cr$ = 16						; size = 4
?SetItemBkColour@CExGridCtrl@@QAEHHHK@Z PROC		; CExGridCtrl::SetItemBkColour, COMDAT
; _this$ = ecx

; 1379 : {

  00000	55		 push	 ebp
  00001	8b ec		 mov	 ebp, esp

; 1380 : 	return m_pLoader->SetItemBkColour(nRow, nCol, cr);

  00003	8b 81 80 00 00
	00		 mov	 eax, DWORD PTR [ecx+128]
; File D:\git\src\IBK\IBK_DRFN\ProjSrc\SrcDrfn\Chart\ExControl\Include\GirdLoadHelper.h

; 2416 : 		if(!m_hLib)

  00009	83 78 04 00	 cmp	 DWORD PTR [eax+4], 0
  0000d	75 06		 jne	 SHORT $LN4@SetItemBkC
; File D:\git\src\IBK\IBK_DRFN\ProjSrc\SrcDrfn\Chart\ExControl\ExGridCtrl.cpp

; 1380 : 	return m_pLoader->SetItemBkColour(nRow, nCol, cr);

  0000f	33 c0		 xor	 eax, eax

; 1381 : }

  00011	5d		 pop	 ebp
  00012	c2 0c 00	 ret	 12			; 0000000cH
$LN4@SetItemBkC:
; File D:\git\src\IBK\IBK_DRFN\ProjSrc\SrcDrfn\Chart\ExControl\Include\GirdLoadHelper.h

; 2419 : 		return pSetItemBkColour(m_lpPointer, nRow, nCol, cr);

  00015	ff 75 10	 push	 DWORD PTR _cr$[ebp]
  00018	ff 75 0c	 push	 DWORD PTR _nCol$[ebp]
  0001b	ff 75 08	 push	 DWORD PTR _nRow$[ebp]
  0001e	ff b0 0c 01 00
	00		 push	 DWORD PTR [eax+268]
  00024	8b 80 58 03 00
	00		 mov	 eax, DWORD PTR [eax+856]
  0002a	ff d0		 call	 eax
; File D:\git\src\IBK\IBK_DRFN\ProjSrc\SrcDrfn\Chart\ExControl\ExGridCtrl.cpp

; 1381 : }

  0002c	5d		 pop	 ebp
  0002d	c2 0c 00	 ret	 12			; 0000000cH
?SetItemBkColour@CExGridCtrl@@QAEHHHK@Z ENDP		; CExGridCtrl::SetItemBkColour
_TEXT	ENDS
; Function compile flags: /Ogtp
; File D:\git\src\IBK\IBK_DRFN\ProjSrc\SrcDrfn\Chart\ExControl\ExGridCtrl.cpp
; File D:\git\src\IBK\IBK_DRFN\ProjSrc\SrcDrfn\Chart\ExControl\Include\GirdLoadHelper.h
; File D:\git\src\IBK\IBK_DRFN\ProjSrc\SrcDrfn\Chart\ExControl\ExGridCtrl.cpp
; File D:\git\src\IBK\IBK_DRFN\ProjSrc\SrcDrfn\Chart\ExControl\Include\GirdLoadHelper.h
; File D:\git\src\IBK\IBK_DRFN\ProjSrc\SrcDrfn\Chart\ExControl\ExGridCtrl.cpp
;	COMDAT ?GetItemFormat@CExGridCtrl@@QAEIHH@Z
_TEXT	SEGMENT
_nRow$ = 8						; size = 4
_nCol$ = 12						; size = 4
?GetItemFormat@CExGridCtrl@@QAEIHH@Z PROC		; CExGridCtrl::GetItemFormat, COMDAT
; _this$ = ecx

; 1374 : {

  00000	55		 push	 ebp
  00001	8b ec		 mov	 ebp, esp

; 1375 : 	return m_pLoader->GetItemFormat(nRow, nCol);

  00003	8b 81 80 00 00
	00		 mov	 eax, DWORD PTR [ecx+128]
; File D:\git\src\IBK\IBK_DRFN\ProjSrc\SrcDrfn\Chart\ExControl\Include\GirdLoadHelper.h

; 2408 : 		if(!m_hLib)

  00009	83 78 04 00	 cmp	 DWORD PTR [eax+4], 0
  0000d	75 06		 jne	 SHORT $LN4@GetItemFor
; File D:\git\src\IBK\IBK_DRFN\ProjSrc\SrcDrfn\Chart\ExControl\ExGridCtrl.cpp

; 1375 : 	return m_pLoader->GetItemFormat(nRow, nCol);

  0000f	33 c0		 xor	 eax, eax

; 1376 : }

  00011	5d		 pop	 ebp
  00012	c2 08 00	 ret	 8
$LN4@GetItemFor:
; File D:\git\src\IBK\IBK_DRFN\ProjSrc\SrcDrfn\Chart\ExControl\Include\GirdLoadHelper.h

; 2411 : 		return pGetItemFormat(m_lpPointer, nRow, nCol);

  00015	ff 75 0c	 push	 DWORD PTR _nCol$[ebp]
  00018	ff 75 08	 push	 DWORD PTR _nRow$[ebp]
  0001b	ff b0 0c 01 00
	00		 push	 DWORD PTR [eax+268]
  00021	8b 80 54 03 00
	00		 mov	 eax, DWORD PTR [eax+852]
  00027	ff d0		 call	 eax
; File D:\git\src\IBK\IBK_DRFN\ProjSrc\SrcDrfn\Chart\ExControl\ExGridCtrl.cpp

; 1376 : }

  00029	5d		 pop	 ebp
  0002a	c2 08 00	 ret	 8
?GetItemFormat@CExGridCtrl@@QAEIHH@Z ENDP		; CExGridCtrl::GetItemFormat
_TEXT	ENDS
; Function compile flags: /Ogtp
; File D:\git\src\IBK\IBK_DRFN\ProjSrc\SrcDrfn\Chart\ExControl\ExGridCtrl.cpp
; File D:\git\src\IBK\IBK_DRFN\ProjSrc\SrcDrfn\Chart\ExControl\Include\GirdLoadHelper.h
; File D:\git\src\IBK\IBK_DRFN\ProjSrc\SrcDrfn\Chart\ExControl\ExGridCtrl.cpp
; File D:\git\src\IBK\IBK_DRFN\ProjSrc\SrcDrfn\Chart\ExControl\Include\GirdLoadHelper.h
; File D:\git\src\IBK\IBK_DRFN\ProjSrc\SrcDrfn\Chart\ExControl\ExGridCtrl.cpp
;	COMDAT ?SetItemFormat@CExGridCtrl@@QAEHHHI@Z
_TEXT	SEGMENT
_nRow$ = 8						; size = 4
_nCol$ = 12						; size = 4
_nFormat$ = 16						; size = 4
?SetItemFormat@CExGridCtrl@@QAEHHHI@Z PROC		; CExGridCtrl::SetItemFormat, COMDAT
; _this$ = ecx

; 1369 : {

  00000	55		 push	 ebp
  00001	8b ec		 mov	 ebp, esp

; 1370 : 	return m_pLoader->SetItemFormat(nRow, nCol, nFormat);

  00003	8b 81 80 00 00
	00		 mov	 eax, DWORD PTR [ecx+128]
; File D:\git\src\IBK\IBK_DRFN\ProjSrc\SrcDrfn\Chart\ExControl\Include\GirdLoadHelper.h

; 2400 : 		if(!m_hLib)

  00009	83 78 04 00	 cmp	 DWORD PTR [eax+4], 0
  0000d	75 06		 jne	 SHORT $LN4@SetItemFor
; File D:\git\src\IBK\IBK_DRFN\ProjSrc\SrcDrfn\Chart\ExControl\ExGridCtrl.cpp

; 1370 : 	return m_pLoader->SetItemFormat(nRow, nCol, nFormat);

  0000f	33 c0		 xor	 eax, eax

; 1371 : }

  00011	5d		 pop	 ebp
  00012	c2 0c 00	 ret	 12			; 0000000cH
$LN4@SetItemFor:
; File D:\git\src\IBK\IBK_DRFN\ProjSrc\SrcDrfn\Chart\ExControl\Include\GirdLoadHelper.h

; 2403 : 		return pSetItemFormat(m_lpPointer, nRow, nCol, nFormat);

  00015	ff 75 10	 push	 DWORD PTR _nFormat$[ebp]
  00018	ff 75 0c	 push	 DWORD PTR _nCol$[ebp]
  0001b	ff 75 08	 push	 DWORD PTR _nRow$[ebp]
  0001e	ff b0 0c 01 00
	00		 push	 DWORD PTR [eax+268]
  00024	8b 80 50 03 00
	00		 mov	 eax, DWORD PTR [eax+848]
  0002a	ff d0		 call	 eax
; File D:\git\src\IBK\IBK_DRFN\ProjSrc\SrcDrfn\Chart\ExControl\ExGridCtrl.cpp

; 1371 : }

  0002c	5d		 pop	 ebp
  0002d	c2 0c 00	 ret	 12			; 0000000cH
?SetItemFormat@CExGridCtrl@@QAEHHHI@Z ENDP		; CExGridCtrl::SetItemFormat
_TEXT	ENDS
; Function compile flags: /Ogtp
; File D:\git\src\IBK\IBK_DRFN\ProjSrc\SrcDrfn\Chart\ExControl\ExGridCtrl.cpp
; File D:\git\src\IBK\IBK_DRFN\ProjSrc\SrcDrfn\Chart\ExControl\Include\GirdLoadHelper.h
; File D:\git\src\IBK\IBK_DRFN\ProjSrc\SrcDrfn\Chart\ExControl\ExGridCtrl.cpp
; File D:\git\src\IBK\IBK_DRFN\ProjSrc\SrcDrfn\Chart\ExControl\Include\GirdLoadHelper.h
; File D:\git\src\IBK\IBK_DRFN\ProjSrc\SrcDrfn\Chart\ExControl\ExGridCtrl.cpp
;	COMDAT ?GetItemState@CExGridCtrl@@QAEIHH@Z
_TEXT	SEGMENT
_nRow$ = 8						; size = 4
_nCol$ = 12						; size = 4
?GetItemState@CExGridCtrl@@QAEIHH@Z PROC		; CExGridCtrl::GetItemState, COMDAT
; _this$ = ecx

; 1364 : {

  00000	55		 push	 ebp
  00001	8b ec		 mov	 ebp, esp

; 1365 : 	return m_pLoader->GetItemState(nRow, nCol);

  00003	8b 81 80 00 00
	00		 mov	 eax, DWORD PTR [ecx+128]
; File D:\git\src\IBK\IBK_DRFN\ProjSrc\SrcDrfn\Chart\ExControl\Include\GirdLoadHelper.h

; 2392 : 		if(!m_hLib)

  00009	83 78 04 00	 cmp	 DWORD PTR [eax+4], 0
  0000d	75 06		 jne	 SHORT $LN4@GetItemSta
; File D:\git\src\IBK\IBK_DRFN\ProjSrc\SrcDrfn\Chart\ExControl\ExGridCtrl.cpp

; 1365 : 	return m_pLoader->GetItemState(nRow, nCol);

  0000f	33 c0		 xor	 eax, eax

; 1366 : }

  00011	5d		 pop	 ebp
  00012	c2 08 00	 ret	 8
$LN4@GetItemSta:
; File D:\git\src\IBK\IBK_DRFN\ProjSrc\SrcDrfn\Chart\ExControl\Include\GirdLoadHelper.h

; 2395 : 		return pGetItemState(m_lpPointer, nRow, nCol);

  00015	ff 75 0c	 push	 DWORD PTR _nCol$[ebp]
  00018	ff 75 08	 push	 DWORD PTR _nRow$[ebp]
  0001b	ff b0 0c 01 00
	00		 push	 DWORD PTR [eax+268]
  00021	8b 80 4c 03 00
	00		 mov	 eax, DWORD PTR [eax+844]
  00027	ff d0		 call	 eax
; File D:\git\src\IBK\IBK_DRFN\ProjSrc\SrcDrfn\Chart\ExControl\ExGridCtrl.cpp

; 1366 : }

  00029	5d		 pop	 ebp
  0002a	c2 08 00	 ret	 8
?GetItemState@CExGridCtrl@@QAEIHH@Z ENDP		; CExGridCtrl::GetItemState
_TEXT	ENDS
; Function compile flags: /Ogtp
; File D:\git\src\IBK\IBK_DRFN\ProjSrc\SrcDrfn\Chart\ExControl\ExGridCtrl.cpp
; File D:\git\src\IBK\IBK_DRFN\ProjSrc\SrcDrfn\Chart\ExControl\Include\GirdLoadHelper.h
; File D:\git\src\IBK\IBK_DRFN\ProjSrc\SrcDrfn\Chart\ExControl\ExGridCtrl.cpp
; File D:\git\src\IBK\IBK_DRFN\ProjSrc\SrcDrfn\Chart\ExControl\Include\GirdLoadHelper.h
; File D:\git\src\IBK\IBK_DRFN\ProjSrc\SrcDrfn\Chart\ExControl\ExGridCtrl.cpp
;	COMDAT ?SetItemState@CExGridCtrl@@QAEHHHI@Z
_TEXT	SEGMENT
_nRow$ = 8						; size = 4
_nCol$ = 12						; size = 4
_state$ = 16						; size = 4
?SetItemState@CExGridCtrl@@QAEHHHI@Z PROC		; CExGridCtrl::SetItemState, COMDAT
; _this$ = ecx

; 1359 : {

  00000	55		 push	 ebp
  00001	8b ec		 mov	 ebp, esp

; 1360 : 	return m_pLoader->SetItemState(nRow, nCol, state);

  00003	8b 81 80 00 00
	00		 mov	 eax, DWORD PTR [ecx+128]
; File D:\git\src\IBK\IBK_DRFN\ProjSrc\SrcDrfn\Chart\ExControl\Include\GirdLoadHelper.h

; 2384 : 		if(!m_hLib)

  00009	83 78 04 00	 cmp	 DWORD PTR [eax+4], 0
  0000d	75 06		 jne	 SHORT $LN4@SetItemSta
; File D:\git\src\IBK\IBK_DRFN\ProjSrc\SrcDrfn\Chart\ExControl\ExGridCtrl.cpp

; 1360 : 	return m_pLoader->SetItemState(nRow, nCol, state);

  0000f	33 c0		 xor	 eax, eax

; 1361 : }

  00011	5d		 pop	 ebp
  00012	c2 0c 00	 ret	 12			; 0000000cH
$LN4@SetItemSta:
; File D:\git\src\IBK\IBK_DRFN\ProjSrc\SrcDrfn\Chart\ExControl\Include\GirdLoadHelper.h

; 2387 : 		return pSetItemState(m_lpPointer, nRow, nCol, state);

  00015	ff 75 10	 push	 DWORD PTR _state$[ebp]
  00018	ff 75 0c	 push	 DWORD PTR _nCol$[ebp]
  0001b	ff 75 08	 push	 DWORD PTR _nRow$[ebp]
  0001e	ff b0 0c 01 00
	00		 push	 DWORD PTR [eax+268]
  00024	8b 80 48 03 00
	00		 mov	 eax, DWORD PTR [eax+840]
  0002a	ff d0		 call	 eax
; File D:\git\src\IBK\IBK_DRFN\ProjSrc\SrcDrfn\Chart\ExControl\ExGridCtrl.cpp

; 1361 : }

  0002c	5d		 pop	 ebp
  0002d	c2 0c 00	 ret	 12			; 0000000cH
?SetItemState@CExGridCtrl@@QAEHHHI@Z ENDP		; CExGridCtrl::SetItemState
_TEXT	ENDS
; Function compile flags: /Ogtp
; File D:\git\src\IBK\IBK_DRFN\ProjSrc\SrcDrfn\Chart\ExControl\ExGridCtrl.cpp
; File D:\git\src\IBK\IBK_DRFN\ProjSrc\SrcDrfn\Chart\ExControl\Include\GirdLoadHelper.h
; File D:\git\src\IBK\IBK_DRFN\ProjSrc\SrcDrfn\Chart\ExControl\ExGridCtrl.cpp
; File D:\git\src\IBK\IBK_DRFN\ProjSrc\SrcDrfn\Chart\ExControl\Include\GirdLoadHelper.h
; File D:\git\src\IBK\IBK_DRFN\ProjSrc\SrcDrfn\Chart\ExControl\ExGridCtrl.cpp
;	COMDAT ?GetItemImage@CExGridCtrl@@QAEHHH@Z
_TEXT	SEGMENT
_nRow$ = 8						; size = 4
_nCol$ = 12						; size = 4
?GetItemImage@CExGridCtrl@@QAEHHH@Z PROC		; CExGridCtrl::GetItemImage, COMDAT
; _this$ = ecx

; 1354 : {

  00000	55		 push	 ebp
  00001	8b ec		 mov	 ebp, esp

; 1355 : 	return m_pLoader->GetItemImage(nRow, nCol);

  00003	8b 81 80 00 00
	00		 mov	 eax, DWORD PTR [ecx+128]
; File D:\git\src\IBK\IBK_DRFN\ProjSrc\SrcDrfn\Chart\ExControl\Include\GirdLoadHelper.h

; 2376 : 		if(!m_hLib)

  00009	83 78 04 00	 cmp	 DWORD PTR [eax+4], 0
  0000d	75 07		 jne	 SHORT $LN4@GetItemIma
; File D:\git\src\IBK\IBK_DRFN\ProjSrc\SrcDrfn\Chart\ExControl\ExGridCtrl.cpp

; 1355 : 	return m_pLoader->GetItemImage(nRow, nCol);

  0000f	83 c8 ff	 or	 eax, -1

; 1356 : }

  00012	5d		 pop	 ebp
  00013	c2 08 00	 ret	 8
$LN4@GetItemIma:
; File D:\git\src\IBK\IBK_DRFN\ProjSrc\SrcDrfn\Chart\ExControl\Include\GirdLoadHelper.h

; 2379 : 		return pGetItemImage(m_lpPointer, nRow, nCol);

  00016	ff 75 0c	 push	 DWORD PTR _nCol$[ebp]
  00019	ff 75 08	 push	 DWORD PTR _nRow$[ebp]
  0001c	ff b0 0c 01 00
	00		 push	 DWORD PTR [eax+268]
  00022	8b 80 44 03 00
	00		 mov	 eax, DWORD PTR [eax+836]
  00028	ff d0		 call	 eax
; File D:\git\src\IBK\IBK_DRFN\ProjSrc\SrcDrfn\Chart\ExControl\ExGridCtrl.cpp

; 1356 : }

  0002a	5d		 pop	 ebp
  0002b	c2 08 00	 ret	 8
?GetItemImage@CExGridCtrl@@QAEHHH@Z ENDP		; CExGridCtrl::GetItemImage
_TEXT	ENDS
; Function compile flags: /Ogtp
; File D:\git\src\IBK\IBK_DRFN\ProjSrc\SrcDrfn\Chart\ExControl\ExGridCtrl.cpp
; File D:\git\src\IBK\IBK_DRFN\ProjSrc\SrcDrfn\Chart\ExControl\Include\GirdLoadHelper.h
; File D:\git\src\IBK\IBK_DRFN\ProjSrc\SrcDrfn\Chart\ExControl\ExGridCtrl.cpp
; File D:\git\src\IBK\IBK_DRFN\ProjSrc\SrcDrfn\Chart\ExControl\Include\GirdLoadHelper.h
; File D:\git\src\IBK\IBK_DRFN\ProjSrc\SrcDrfn\Chart\ExControl\ExGridCtrl.cpp
;	COMDAT ?SetItemImage@CExGridCtrl@@QAEHHHH@Z
_TEXT	SEGMENT
_nRow$ = 8						; size = 4
_nCol$ = 12						; size = 4
_iImage$ = 16						; size = 4
?SetItemImage@CExGridCtrl@@QAEHHHH@Z PROC		; CExGridCtrl::SetItemImage, COMDAT
; _this$ = ecx

; 1349 : {

  00000	55		 push	 ebp
  00001	8b ec		 mov	 ebp, esp

; 1350 : 	return m_pLoader->SetItemImage(nRow, nCol, iImage);

  00003	8b 81 80 00 00
	00		 mov	 eax, DWORD PTR [ecx+128]
; File D:\git\src\IBK\IBK_DRFN\ProjSrc\SrcDrfn\Chart\ExControl\Include\GirdLoadHelper.h

; 2368 : 		if(!m_hLib)

  00009	83 78 04 00	 cmp	 DWORD PTR [eax+4], 0
  0000d	75 06		 jne	 SHORT $LN4@SetItemIma
; File D:\git\src\IBK\IBK_DRFN\ProjSrc\SrcDrfn\Chart\ExControl\ExGridCtrl.cpp

; 1350 : 	return m_pLoader->SetItemImage(nRow, nCol, iImage);

  0000f	33 c0		 xor	 eax, eax

; 1351 : }

  00011	5d		 pop	 ebp
  00012	c2 0c 00	 ret	 12			; 0000000cH
$LN4@SetItemIma:
; File D:\git\src\IBK\IBK_DRFN\ProjSrc\SrcDrfn\Chart\ExControl\Include\GirdLoadHelper.h

; 2371 : 		return pSetItemImage(m_lpPointer, nRow, nCol, iImage);

  00015	ff 75 10	 push	 DWORD PTR _iImage$[ebp]
  00018	ff 75 0c	 push	 DWORD PTR _nCol$[ebp]
  0001b	ff 75 08	 push	 DWORD PTR _nRow$[ebp]
  0001e	ff b0 0c 01 00
	00		 push	 DWORD PTR [eax+268]
  00024	8b 80 40 03 00
	00		 mov	 eax, DWORD PTR [eax+832]
  0002a	ff d0		 call	 eax
; File D:\git\src\IBK\IBK_DRFN\ProjSrc\SrcDrfn\Chart\ExControl\ExGridCtrl.cpp

; 1351 : }

  0002c	5d		 pop	 ebp
  0002d	c2 0c 00	 ret	 12			; 0000000cH
?SetItemImage@CExGridCtrl@@QAEHHHH@Z ENDP		; CExGridCtrl::SetItemImage
_TEXT	ENDS
; Function compile flags: /Ogtp
; File D:\git\src\IBK\IBK_DRFN\ProjSrc\SrcDrfn\Chart\ExControl\ExGridCtrl.cpp
; File D:\git\src\IBK\IBK_DRFN\ProjSrc\SrcDrfn\Chart\ExControl\Include\GirdLoadHelper.h
; File D:\git\src\IBK\IBK_DRFN\ProjSrc\SrcDrfn\Chart\ExControl\ExGridCtrl.cpp
; File D:\git\src\IBK\IBK_DRFN\ProjSrc\SrcDrfn\Chart\ExControl\Include\GirdLoadHelper.h
; File D:\git\src\IBK\IBK_DRFN\ProjSrc\SrcDrfn\Chart\ExControl\ExGridCtrl.cpp
;	COMDAT ?GetItemData@CExGridCtrl@@QAEJHH@Z
_TEXT	SEGMENT
_nRow$ = 8						; size = 4
_nCol$ = 12						; size = 4
?GetItemData@CExGridCtrl@@QAEJHH@Z PROC			; CExGridCtrl::GetItemData, COMDAT
; _this$ = ecx

; 1344 : {

  00000	55		 push	 ebp
  00001	8b ec		 mov	 ebp, esp

; 1345 : 	return m_pLoader->GetItemData(nRow, nCol);

  00003	8b 81 80 00 00
	00		 mov	 eax, DWORD PTR [ecx+128]
; File D:\git\src\IBK\IBK_DRFN\ProjSrc\SrcDrfn\Chart\ExControl\Include\GirdLoadHelper.h

; 2360 : 		if(!m_hLib)

  00009	83 78 04 00	 cmp	 DWORD PTR [eax+4], 0
  0000d	75 06		 jne	 SHORT $LN4@GetItemDat
; File D:\git\src\IBK\IBK_DRFN\ProjSrc\SrcDrfn\Chart\ExControl\ExGridCtrl.cpp

; 1345 : 	return m_pLoader->GetItemData(nRow, nCol);

  0000f	33 c0		 xor	 eax, eax

; 1346 : }

  00011	5d		 pop	 ebp
  00012	c2 08 00	 ret	 8
$LN4@GetItemDat:
; File D:\git\src\IBK\IBK_DRFN\ProjSrc\SrcDrfn\Chart\ExControl\Include\GirdLoadHelper.h

; 2363 : 		return pGetItemData(m_lpPointer, nRow, nCol);

  00015	ff 75 0c	 push	 DWORD PTR _nCol$[ebp]
  00018	ff 75 08	 push	 DWORD PTR _nRow$[ebp]
  0001b	ff b0 0c 01 00
	00		 push	 DWORD PTR [eax+268]
  00021	8b 80 3c 03 00
	00		 mov	 eax, DWORD PTR [eax+828]
  00027	ff d0		 call	 eax
; File D:\git\src\IBK\IBK_DRFN\ProjSrc\SrcDrfn\Chart\ExControl\ExGridCtrl.cpp

; 1346 : }

  00029	5d		 pop	 ebp
  0002a	c2 08 00	 ret	 8
?GetItemData@CExGridCtrl@@QAEJHH@Z ENDP			; CExGridCtrl::GetItemData
_TEXT	ENDS
; Function compile flags: /Ogtp
; File D:\git\src\IBK\IBK_DRFN\ProjSrc\SrcDrfn\Chart\ExControl\ExGridCtrl.cpp
; File D:\git\src\IBK\IBK_DRFN\ProjSrc\SrcDrfn\Chart\ExControl\Include\GirdLoadHelper.h
; File D:\git\src\IBK\IBK_DRFN\ProjSrc\SrcDrfn\Chart\ExControl\ExGridCtrl.cpp
; File D:\git\src\IBK\IBK_DRFN\ProjSrc\SrcDrfn\Chart\ExControl\Include\GirdLoadHelper.h
; File D:\git\src\IBK\IBK_DRFN\ProjSrc\SrcDrfn\Chart\ExControl\ExGridCtrl.cpp
;	COMDAT ?SetItemData@CExGridCtrl@@QAEHHHJ@Z
_TEXT	SEGMENT
_nRow$ = 8						; size = 4
_nCol$ = 12						; size = 4
_lParam$ = 16						; size = 4
?SetItemData@CExGridCtrl@@QAEHHHJ@Z PROC		; CExGridCtrl::SetItemData, COMDAT
; _this$ = ecx

; 1339 : {

  00000	55		 push	 ebp
  00001	8b ec		 mov	 ebp, esp

; 1340 : 	return m_pLoader->SetItemData(nRow, nCol, lParam);

  00003	8b 81 80 00 00
	00		 mov	 eax, DWORD PTR [ecx+128]
; File D:\git\src\IBK\IBK_DRFN\ProjSrc\SrcDrfn\Chart\ExControl\Include\GirdLoadHelper.h

; 2352 : 		if(!m_hLib)

  00009	83 78 04 00	 cmp	 DWORD PTR [eax+4], 0
  0000d	75 06		 jne	 SHORT $LN4@SetItemDat
; File D:\git\src\IBK\IBK_DRFN\ProjSrc\SrcDrfn\Chart\ExControl\ExGridCtrl.cpp

; 1340 : 	return m_pLoader->SetItemData(nRow, nCol, lParam);

  0000f	33 c0		 xor	 eax, eax

; 1341 : }

  00011	5d		 pop	 ebp
  00012	c2 0c 00	 ret	 12			; 0000000cH
$LN4@SetItemDat:
; File D:\git\src\IBK\IBK_DRFN\ProjSrc\SrcDrfn\Chart\ExControl\Include\GirdLoadHelper.h

; 2355 : 		return pSetItemData(m_lpPointer, nRow, nCol, lParam);

  00015	ff 75 10	 push	 DWORD PTR _lParam$[ebp]
  00018	ff 75 0c	 push	 DWORD PTR _nCol$[ebp]
  0001b	ff 75 08	 push	 DWORD PTR _nRow$[ebp]
  0001e	ff b0 0c 01 00
	00		 push	 DWORD PTR [eax+268]
  00024	8b 80 38 03 00
	00		 mov	 eax, DWORD PTR [eax+824]
  0002a	ff d0		 call	 eax
; File D:\git\src\IBK\IBK_DRFN\ProjSrc\SrcDrfn\Chart\ExControl\ExGridCtrl.cpp

; 1341 : }

  0002c	5d		 pop	 ebp
  0002d	c2 0c 00	 ret	 12			; 0000000cH
?SetItemData@CExGridCtrl@@QAEHHHJ@Z ENDP		; CExGridCtrl::SetItemData
_TEXT	ENDS
; Function compile flags: /Ogtp
; File D:\git\src\IBK\IBK_DRFN\ProjSrc\SrcDrfn\Chart\ExControl\ExGridCtrl.cpp
;	COMDAT ?SetItemTextFmtID@CExGridCtrl@@QAAHHHIZZ
_TEXT	SEGMENT
_this$ = 8						; size = 4
_nRow$ = 12						; size = 4
_nCol$ = 16						; size = 4
_nID$ = 20						; size = 4
?SetItemTextFmtID@CExGridCtrl@@QAAHHHIZZ PROC		; CExGridCtrl::SetItemTextFmtID, COMDAT

; 1333 : 	return FALSE;

  00000	33 c0		 xor	 eax, eax

; 1334 : //	return m_pLoader->SetItemTextFmtID(int nRow, int nCol, UINT nID, ...);
; 1335 : }

  00002	c3		 ret	 0
?SetItemTextFmtID@CExGridCtrl@@QAAHHHIZZ ENDP		; CExGridCtrl::SetItemTextFmtID
_TEXT	ENDS
; Function compile flags: /Ogtp
; File D:\git\src\IBK\IBK_DRFN\ProjSrc\SrcDrfn\Chart\ExControl\ExGridCtrl.cpp
;	COMDAT ?SetItemTextFmt@CExGridCtrl@@QAAHHHPBDZZ
_TEXT	SEGMENT
_this$ = 8						; size = 4
_nRow$ = 12						; size = 4
_nCol$ = 16						; size = 4
_szFmt$ = 20						; size = 4
?SetItemTextFmt@CExGridCtrl@@QAAHHHPBDZZ PROC		; CExGridCtrl::SetItemTextFmt, COMDAT

; 1325 : 	return FALSE;

  00000	33 c0		 xor	 eax, eax

; 1326 : //	return m_pLoader->SetItemTextFmt(int nRow, int nCol, LPCTSTR szFmt, ...);
; 1327 : }

  00002	c3		 ret	 0
?SetItemTextFmt@CExGridCtrl@@QAAHHHPBDZZ ENDP		; CExGridCtrl::SetItemTextFmt
_TEXT	ENDS
; Function compile flags: /Ogtp
; File D:\git\src\IBK\IBK_DRFN\ProjSrc\SrcDrfn\Chart\ExControl\ExGridCtrl.cpp
; File D:\git\src\IBK\IBK_DRFN\ProjSrc\SrcDrfn\Chart\ExControl\Include\GirdLoadHelper.h
; File D:\git\src\IBK\IBK_DRFN\ProjSrc\SrcDrfn\Chart\ExControl\ExGridCtrl.cpp
;	COMDAT ?GetItemText@CExGridCtrl@@QAE?AV?$CStringT@DV?$StrTraitMFC_DLL@DV?$ChTraitsCRT@D@ATL@@@@@ATL@@HH@Z
_TEXT	SEGMENT
__$EHRec$ = -12						; size = 12
___$ReturnUdt$ = 8					; size = 4
_nRow$ = 12						; size = 4
$T2 = 16						; size = 4
_nCol$ = 16						; size = 4
?GetItemText@CExGridCtrl@@QAE?AV?$CStringT@DV?$StrTraitMFC_DLL@DV?$ChTraitsCRT@D@ATL@@@@@ATL@@HH@Z PROC ; CExGridCtrl::GetItemText, COMDAT
; _this$ = ecx

; 1728 : {

  00000	55		 push	 ebp
  00001	8b ec		 mov	 ebp, esp
  00003	6a ff		 push	 -1
  00005	68 00 00 00 00	 push	 __ehhandler$?GetItemText@CExGridCtrl@@QAE?AV?$CStringT@DV?$StrTraitMFC_DLL@DV?$ChTraitsCRT@D@ATL@@@@@ATL@@HH@Z
  0000a	64 a1 00 00 00
	00		 mov	 eax, DWORD PTR fs:0
  00010	50		 push	 eax
  00011	56		 push	 esi
  00012	a1 00 00 00 00	 mov	 eax, DWORD PTR ___security_cookie
  00017	33 c5		 xor	 eax, ebp
  00019	50		 push	 eax
  0001a	8d 45 f4	 lea	 eax, DWORD PTR __$EHRec$[ebp]
  0001d	64 a3 00 00 00
	00		 mov	 DWORD PTR fs:0, eax

; 1729 : 	return m_pLoader->GetItemText(nRow, nCol);

  00023	8b 81 80 00 00
	00		 mov	 eax, DWORD PTR [ecx+128]
; File D:\git\src\IBK\IBK_DRFN\ProjSrc\SrcDrfn\Chart\ExControl\Include\GirdLoadHelper.h

; 2324 : 		if(!m_hLib)

  00029	83 78 04 00	 cmp	 DWORD PTR [eax+4], 0
  0002d	75 10		 jne	 SHORT $LN6@GetItemTex

; 2325 : 			return _T("");

  0002f	8b 4d 08	 mov	 ecx, DWORD PTR ___$ReturnUdt$[ebp]
  00032	68 00 00 00 00	 push	 OFFSET ??_C@_00CNPNBAHC@@
  00037	ff 15 00 00 00
	00		 call	 DWORD PTR __imp_??0?$CStringT@DV?$StrTraitMFC_DLL@DV?$ChTraitsCRT@D@ATL@@@@@ATL@@QAE@PBD@Z
  0003d	eb 32		 jmp	 SHORT $LN12@GetItemTex
$LN6@GetItemTex:

; 2326 : 
; 2327 : 		return pGetItemText(m_lpPointer, nRow, nCol);

  0003f	ff 75 10	 push	 DWORD PTR _nCol$[ebp]
  00042	8d 4d 10	 lea	 ecx, DWORD PTR $T2[ebp]
  00045	ff 75 0c	 push	 DWORD PTR _nRow$[ebp]
  00048	ff b0 0c 01 00
	00		 push	 DWORD PTR [eax+268]
  0004e	8b 80 2c 03 00
	00		 mov	 eax, DWORD PTR [eax+812]
  00054	51		 push	 ecx
  00055	ff d0		 call	 eax
  00057	8b 4d 08	 mov	 ecx, DWORD PTR ___$ReturnUdt$[ebp]
  0005a	50		 push	 eax
  0005b	c7 45 fc 00 00
	00 00		 mov	 DWORD PTR __$EHRec$[ebp+8], 0
  00062	ff 15 00 00 00
	00		 call	 DWORD PTR __imp_??0?$CStringT@DV?$StrTraitMFC_DLL@DV?$ChTraitsCRT@D@ATL@@@@@ATL@@QAE@ABV01@@Z
  00068	8d 4d 10	 lea	 ecx, DWORD PTR $T2[ebp]
  0006b	ff 15 00 00 00
	00		 call	 DWORD PTR __imp_??1?$CStringT@DV?$StrTraitMFC_DLL@DV?$ChTraitsCRT@D@ATL@@@@@ATL@@QAE@XZ
$LN12@GetItemTex:
; File D:\git\src\IBK\IBK_DRFN\ProjSrc\SrcDrfn\Chart\ExControl\ExGridCtrl.cpp

; 1730 : }

  00071	8b 45 08	 mov	 eax, DWORD PTR ___$ReturnUdt$[ebp]
  00074	8b 4d f4	 mov	 ecx, DWORD PTR __$EHRec$[ebp]
  00077	64 89 0d 00 00
	00 00		 mov	 DWORD PTR fs:0, ecx
  0007e	59		 pop	 ecx
  0007f	5e		 pop	 esi
  00080	8b e5		 mov	 esp, ebp
  00082	5d		 pop	 ebp
  00083	c2 0c 00	 ret	 12			; 0000000cH
_TEXT	ENDS
;	COMDAT text$x
text$x	SEGMENT
__unwindfunclet$?GetItemText@CExGridCtrl@@QAE?AV?$CStringT@DV?$StrTraitMFC_DLL@DV?$ChTraitsCRT@D@ATL@@@@@ATL@@HH@Z$2:
  00000	8d 4d 10	 lea	 ecx, DWORD PTR $T2[ebp]
  00003	ff 25 00 00 00
	00		 jmp	 DWORD PTR __imp_??1?$CStringT@DV?$StrTraitMFC_DLL@DV?$ChTraitsCRT@D@ATL@@@@@ATL@@QAE@XZ
  00009	cc		 int	 3
  0000a	cc		 int	 3
  0000b	cc		 int	 3
  0000c	cc		 int	 3
  0000d	cc		 int	 3
__ehhandler$?GetItemText@CExGridCtrl@@QAE?AV?$CStringT@DV?$StrTraitMFC_DLL@DV?$ChTraitsCRT@D@ATL@@@@@ATL@@HH@Z:
  0000e	90		 npad	 1
  0000f	90		 npad	 1
  00010	8b 54 24 08	 mov	 edx, DWORD PTR [esp+8]
  00014	8d 42 0c	 lea	 eax, DWORD PTR [edx+12]
  00017	8b 4a f8	 mov	 ecx, DWORD PTR [edx-8]
  0001a	33 c8		 xor	 ecx, eax
  0001c	e8 00 00 00 00	 call	 @__security_check_cookie@4
  00021	b8 00 00 00 00	 mov	 eax, OFFSET __ehfuncinfo$?GetItemText@CExGridCtrl@@QAE?AV?$CStringT@DV?$StrTraitMFC_DLL@DV?$ChTraitsCRT@D@ATL@@@@@ATL@@HH@Z
  00026	e9 00 00 00 00	 jmp	 ___CxxFrameHandler3
text$x	ENDS
?GetItemText@CExGridCtrl@@QAE?AV?$CStringT@DV?$StrTraitMFC_DLL@DV?$ChTraitsCRT@D@ATL@@@@@ATL@@HH@Z ENDP ; CExGridCtrl::GetItemText
; Function compile flags: /Ogtp
; File D:\git\src\IBK\IBK_DRFN\ProjSrc\SrcDrfn\Chart\ExControl\ExGridCtrl.cpp
; File D:\git\src\IBK\IBK_DRFN\ProjSrc\SrcDrfn\Chart\ExControl\Include\GirdLoadHelper.h
; File D:\git\src\IBK\IBK_DRFN\ProjSrc\SrcDrfn\Chart\ExControl\ExGridCtrl.cpp
; File D:\git\src\IBK\IBK_DRFN\ProjSrc\SrcDrfn\Chart\ExControl\Include\GirdLoadHelper.h
; File D:\git\src\IBK\IBK_DRFN\ProjSrc\SrcDrfn\Chart\ExControl\ExGridCtrl.cpp
;	COMDAT ?SetItemText@CExGridCtrl@@QAEHHHPBD@Z
_TEXT	SEGMENT
_nRow$ = 8						; size = 4
_nCol$ = 12						; size = 4
_str$ = 16						; size = 4
?SetItemText@CExGridCtrl@@QAEHHHPBD@Z PROC		; CExGridCtrl::SetItemText, COMDAT
; _this$ = ecx

; 1317 : {

  00000	55		 push	 ebp
  00001	8b ec		 mov	 ebp, esp

; 1318 : 	return m_pLoader->SetItemText(nRow, nCol, str);

  00003	8b 81 80 00 00
	00		 mov	 eax, DWORD PTR [ecx+128]
; File D:\git\src\IBK\IBK_DRFN\ProjSrc\SrcDrfn\Chart\ExControl\Include\GirdLoadHelper.h

; 2316 : 		if(!m_hLib)

  00009	83 78 04 00	 cmp	 DWORD PTR [eax+4], 0
  0000d	75 06		 jne	 SHORT $LN4@SetItemTex
; File D:\git\src\IBK\IBK_DRFN\ProjSrc\SrcDrfn\Chart\ExControl\ExGridCtrl.cpp

; 1318 : 	return m_pLoader->SetItemText(nRow, nCol, str);

  0000f	33 c0		 xor	 eax, eax

; 1319 : }

  00011	5d		 pop	 ebp
  00012	c2 0c 00	 ret	 12			; 0000000cH
$LN4@SetItemTex:
; File D:\git\src\IBK\IBK_DRFN\ProjSrc\SrcDrfn\Chart\ExControl\Include\GirdLoadHelper.h

; 2319 : 		return pSetItemText(m_lpPointer, nRow, nCol, str);

  00015	ff 75 10	 push	 DWORD PTR _str$[ebp]
  00018	ff 75 0c	 push	 DWORD PTR _nCol$[ebp]
  0001b	ff 75 08	 push	 DWORD PTR _nRow$[ebp]
  0001e	ff b0 0c 01 00
	00		 push	 DWORD PTR [eax+268]
  00024	8b 80 28 03 00
	00		 mov	 eax, DWORD PTR [eax+808]
  0002a	ff d0		 call	 eax
; File D:\git\src\IBK\IBK_DRFN\ProjSrc\SrcDrfn\Chart\ExControl\ExGridCtrl.cpp

; 1319 : }

  0002c	5d		 pop	 ebp
  0002d	c2 0c 00	 ret	 12			; 0000000cH
?SetItemText@CExGridCtrl@@QAEHHHPBD@Z ENDP		; CExGridCtrl::SetItemText
_TEXT	ENDS
; Function compile flags: /Ogtp
; File D:\git\src\IBK\IBK_DRFN\ProjSrc\SrcDrfn\Chart\ExControl\ExGridCtrl.cpp
; File D:\git\src\IBK\IBK_DRFN\ProjSrc\SrcDrfn\Chart\ExControl\Include\GirdLoadHelper.h
; File D:\git\src\IBK\IBK_DRFN\ProjSrc\SrcDrfn\Chart\ExControl\ExGridCtrl.cpp
; File D:\git\src\IBK\IBK_DRFN\ProjSrc\SrcDrfn\Chart\ExControl\Include\GirdLoadHelper.h
; File D:\git\src\IBK\IBK_DRFN\ProjSrc\SrcDrfn\Chart\ExControl\ExGridCtrl.cpp
;	COMDAT ?GetItem@CExGridCtrl@@QAEHPAU_GV_ITEM@@@Z
_TEXT	SEGMENT
_pItem$ = 8						; size = 4
?GetItem@CExGridCtrl@@QAEHPAU_GV_ITEM@@@Z PROC		; CExGridCtrl::GetItem, COMDAT
; _this$ = ecx

; 1312 : {

  00000	55		 push	 ebp
  00001	8b ec		 mov	 ebp, esp

; 1313 : 	return m_pLoader->GetItem(pItem);

  00003	8b 81 80 00 00
	00		 mov	 eax, DWORD PTR [ecx+128]
; File D:\git\src\IBK\IBK_DRFN\ProjSrc\SrcDrfn\Chart\ExControl\Include\GirdLoadHelper.h

; 2308 : 		if(!m_hLib)

  00009	83 78 04 00	 cmp	 DWORD PTR [eax+4], 0
  0000d	75 06		 jne	 SHORT $LN4@GetItem
; File D:\git\src\IBK\IBK_DRFN\ProjSrc\SrcDrfn\Chart\ExControl\ExGridCtrl.cpp

; 1313 : 	return m_pLoader->GetItem(pItem);

  0000f	33 c0		 xor	 eax, eax

; 1314 : }

  00011	5d		 pop	 ebp
  00012	c2 04 00	 ret	 4
$LN4@GetItem:
; File D:\git\src\IBK\IBK_DRFN\ProjSrc\SrcDrfn\Chart\ExControl\Include\GirdLoadHelper.h

; 2311 : 		return pGetItem(m_lpPointer, pItem);

  00015	ff 75 08	 push	 DWORD PTR _pItem$[ebp]
  00018	ff b0 0c 01 00
	00		 push	 DWORD PTR [eax+268]
  0001e	8b 80 24 03 00
	00		 mov	 eax, DWORD PTR [eax+804]
  00024	ff d0		 call	 eax
; File D:\git\src\IBK\IBK_DRFN\ProjSrc\SrcDrfn\Chart\ExControl\ExGridCtrl.cpp

; 1314 : }

  00026	5d		 pop	 ebp
  00027	c2 04 00	 ret	 4
?GetItem@CExGridCtrl@@QAEHPAU_GV_ITEM@@@Z ENDP		; CExGridCtrl::GetItem
_TEXT	ENDS
; Function compile flags: /Ogtp
; File D:\git\src\IBK\IBK_DRFN\ProjSrc\SrcDrfn\Chart\ExControl\ExGridCtrl.cpp
; File D:\git\src\IBK\IBK_DRFN\ProjSrc\SrcDrfn\Chart\ExControl\Include\GirdLoadHelper.h
; File D:\git\src\IBK\IBK_DRFN\ProjSrc\SrcDrfn\Chart\ExControl\ExGridCtrl.cpp
; File D:\git\src\IBK\IBK_DRFN\ProjSrc\SrcDrfn\Chart\ExControl\Include\GirdLoadHelper.h
; File D:\git\src\IBK\IBK_DRFN\ProjSrc\SrcDrfn\Chart\ExControl\ExGridCtrl.cpp
;	COMDAT ?SetItem@CExGridCtrl@@QAEHPAU_GV_ITEM@@@Z
_TEXT	SEGMENT
_pItem$ = 8						; size = 4
?SetItem@CExGridCtrl@@QAEHPAU_GV_ITEM@@@Z PROC		; CExGridCtrl::SetItem, COMDAT
; _this$ = ecx

; 1307 : {

  00000	55		 push	 ebp
  00001	8b ec		 mov	 ebp, esp

; 1308 : 	return m_pLoader->SetItem(pItem);

  00003	8b 81 80 00 00
	00		 mov	 eax, DWORD PTR [ecx+128]
; File D:\git\src\IBK\IBK_DRFN\ProjSrc\SrcDrfn\Chart\ExControl\Include\GirdLoadHelper.h

; 2300 : 		if(!m_hLib)

  00009	83 78 04 00	 cmp	 DWORD PTR [eax+4], 0
  0000d	75 06		 jne	 SHORT $LN4@SetItem
; File D:\git\src\IBK\IBK_DRFN\ProjSrc\SrcDrfn\Chart\ExControl\ExGridCtrl.cpp

; 1308 : 	return m_pLoader->SetItem(pItem);

  0000f	33 c0		 xor	 eax, eax

; 1309 : }

  00011	5d		 pop	 ebp
  00012	c2 04 00	 ret	 4
$LN4@SetItem:
; File D:\git\src\IBK\IBK_DRFN\ProjSrc\SrcDrfn\Chart\ExControl\Include\GirdLoadHelper.h

; 2303 : 		return pSetItem(m_lpPointer, pItem);

  00015	ff 75 08	 push	 DWORD PTR _pItem$[ebp]
  00018	ff b0 0c 01 00
	00		 push	 DWORD PTR [eax+268]
  0001e	8b 80 20 03 00
	00		 mov	 eax, DWORD PTR [eax+800]
  00024	ff d0		 call	 eax
; File D:\git\src\IBK\IBK_DRFN\ProjSrc\SrcDrfn\Chart\ExControl\ExGridCtrl.cpp

; 1309 : }

  00026	5d		 pop	 ebp
  00027	c2 04 00	 ret	 4
?SetItem@CExGridCtrl@@QAEHPAU_GV_ITEM@@@Z ENDP		; CExGridCtrl::SetItem
_TEXT	ENDS
; Function compile flags: /Ogtp
; File D:\git\src\IBK\IBK_DRFN\ProjSrc\SrcDrfn\Chart\ExControl\ExGridCtrl.cpp
; File D:\git\src\IBK\IBK_DRFN\ProjSrc\SrcDrfn\Chart\ExControl\Include\GirdLoadHelper.h
; File D:\git\src\IBK\IBK_DRFN\ProjSrc\SrcDrfn\Chart\ExControl\ExGridCtrl.cpp
; File D:\git\src\IBK\IBK_DRFN\ProjSrc\SrcDrfn\Chart\ExControl\Include\GirdLoadHelper.h
; File D:\git\src\IBK\IBK_DRFN\ProjSrc\SrcDrfn\Chart\ExControl\ExGridCtrl.cpp
;	COMDAT ?IsCellFixed@CExGridCtrl@@QAEHHH@Z
_TEXT	SEGMENT
_nRow$ = 8						; size = 4
_nCol$ = 12						; size = 4
?IsCellFixed@CExGridCtrl@@QAEHHH@Z PROC			; CExGridCtrl::IsCellFixed, COMDAT
; _this$ = ecx

; 1533 : {

  00000	55		 push	 ebp
  00001	8b ec		 mov	 ebp, esp

; 1534 : 	return m_pLoader->IsCellFixed(nRow, nCol);

  00003	8b 81 80 00 00
	00		 mov	 eax, DWORD PTR [ecx+128]
; File D:\git\src\IBK\IBK_DRFN\ProjSrc\SrcDrfn\Chart\ExControl\Include\GirdLoadHelper.h

; 2292 : 		if(!m_hLib)

  00009	83 78 04 00	 cmp	 DWORD PTR [eax+4], 0
  0000d	75 06		 jne	 SHORT $LN4@IsCellFixe
; File D:\git\src\IBK\IBK_DRFN\ProjSrc\SrcDrfn\Chart\ExControl\ExGridCtrl.cpp

; 1534 : 	return m_pLoader->IsCellFixed(nRow, nCol);

  0000f	33 c0		 xor	 eax, eax

; 1535 : }

  00011	5d		 pop	 ebp
  00012	c2 08 00	 ret	 8
$LN4@IsCellFixe:
; File D:\git\src\IBK\IBK_DRFN\ProjSrc\SrcDrfn\Chart\ExControl\Include\GirdLoadHelper.h

; 2295 : 		return pIsCellFixed(m_lpPointer, nRow, nCol);

  00015	ff 75 0c	 push	 DWORD PTR _nCol$[ebp]
  00018	ff 75 08	 push	 DWORD PTR _nRow$[ebp]
  0001b	ff b0 0c 01 00
	00		 push	 DWORD PTR [eax+268]
  00021	8b 80 1c 03 00
	00		 mov	 eax, DWORD PTR [eax+796]
  00027	ff d0		 call	 eax
; File D:\git\src\IBK\IBK_DRFN\ProjSrc\SrcDrfn\Chart\ExControl\ExGridCtrl.cpp

; 1535 : }

  00029	5d		 pop	 ebp
  0002a	c2 08 00	 ret	 8
?IsCellFixed@CExGridCtrl@@QAEHHH@Z ENDP			; CExGridCtrl::IsCellFixed
_TEXT	ENDS
; Function compile flags: /Ogtp
; File D:\git\src\IBK\IBK_DRFN\ProjSrc\SrcDrfn\Chart\ExControl\ExGridCtrl.cpp
; File D:\git\src\IBK\IBK_DRFN\ProjSrc\SrcDrfn\Chart\ExControl\Include\GirdLoadHelper.h
; File D:\git\src\IBK\IBK_DRFN\ProjSrc\SrcDrfn\Chart\ExControl\ExGridCtrl.cpp
; File D:\git\src\IBK\IBK_DRFN\ProjSrc\SrcDrfn\Chart\ExControl\Include\GirdLoadHelper.h
; File D:\git\src\IBK\IBK_DRFN\ProjSrc\SrcDrfn\Chart\ExControl\ExGridCtrl.cpp
;	COMDAT ?GetModified@CExGridCtrl@@QAEHHH@Z
_TEXT	SEGMENT
_nRow$ = 8						; size = 4
_nCol$ = 12						; size = 4
?GetModified@CExGridCtrl@@QAEHHH@Z PROC			; CExGridCtrl::GetModified, COMDAT
; _this$ = ecx

; 1543 : {

  00000	55		 push	 ebp
  00001	8b ec		 mov	 ebp, esp

; 1544 : 	return m_pLoader->GetModified(nRow, nCol);

  00003	8b 81 80 00 00
	00		 mov	 eax, DWORD PTR [ecx+128]
; File D:\git\src\IBK\IBK_DRFN\ProjSrc\SrcDrfn\Chart\ExControl\Include\GirdLoadHelper.h

; 2284 : 		if(!m_hLib)

  00009	83 78 04 00	 cmp	 DWORD PTR [eax+4], 0
  0000d	75 06		 jne	 SHORT $LN4@GetModifie
; File D:\git\src\IBK\IBK_DRFN\ProjSrc\SrcDrfn\Chart\ExControl\ExGridCtrl.cpp

; 1544 : 	return m_pLoader->GetModified(nRow, nCol);

  0000f	33 c0		 xor	 eax, eax

; 1545 : }

  00011	5d		 pop	 ebp
  00012	c2 08 00	 ret	 8
$LN4@GetModifie:
; File D:\git\src\IBK\IBK_DRFN\ProjSrc\SrcDrfn\Chart\ExControl\Include\GirdLoadHelper.h

; 2287 : 		return pGetModified(m_lpPointer, nRow, nCol);

  00015	ff 75 0c	 push	 DWORD PTR _nCol$[ebp]
  00018	ff 75 08	 push	 DWORD PTR _nRow$[ebp]
  0001b	ff b0 0c 01 00
	00		 push	 DWORD PTR [eax+268]
  00021	8b 80 18 03 00
	00		 mov	 eax, DWORD PTR [eax+792]
  00027	ff d0		 call	 eax
; File D:\git\src\IBK\IBK_DRFN\ProjSrc\SrcDrfn\Chart\ExControl\ExGridCtrl.cpp

; 1545 : }

  00029	5d		 pop	 ebp
  0002a	c2 08 00	 ret	 8
?GetModified@CExGridCtrl@@QAEHHH@Z ENDP			; CExGridCtrl::GetModified
_TEXT	ENDS
; Function compile flags: /Ogtp
; File D:\git\src\IBK\IBK_DRFN\ProjSrc\SrcDrfn\Chart\ExControl\ExGridCtrl.cpp
; File D:\git\src\IBK\IBK_DRFN\ProjSrc\SrcDrfn\Chart\ExControl\Include\GirdLoadHelper.h
; File D:\git\src\IBK\IBK_DRFN\ProjSrc\SrcDrfn\Chart\ExControl\ExGridCtrl.cpp
;	COMDAT ?SetModified@CExGridCtrl@@QAEXHHH@Z
_TEXT	SEGMENT
_bModified$ = 8						; size = 4
_nRow$ = 12						; size = 4
_nCol$ = 16						; size = 4
?SetModified@CExGridCtrl@@QAEXHHH@Z PROC		; CExGridCtrl::SetModified, COMDAT
; _this$ = ecx

; 1538 : {

  00000	55		 push	 ebp
  00001	8b ec		 mov	 ebp, esp

; 1539 : 	m_pLoader->SetModified(bModified, nRow, nCol);

  00003	8b 81 80 00 00
	00		 mov	 eax, DWORD PTR [ecx+128]
; File D:\git\src\IBK\IBK_DRFN\ProjSrc\SrcDrfn\Chart\ExControl\Include\GirdLoadHelper.h

; 2276 : 		if(!m_hLib)

  00009	83 78 04 00	 cmp	 DWORD PTR [eax+4], 0
  0000d	74 17		 je	 SHORT $LN3@SetModifie

; 2277 : 			return;
; 2278 : 
; 2279 : 		pSetModified(m_lpPointer, bModified, nRow, nCol);

  0000f	ff 75 10	 push	 DWORD PTR _nCol$[ebp]
  00012	ff 75 0c	 push	 DWORD PTR _nRow$[ebp]
  00015	ff 75 08	 push	 DWORD PTR _bModified$[ebp]
  00018	ff b0 0c 01 00
	00		 push	 DWORD PTR [eax+268]
  0001e	8b 80 14 03 00
	00		 mov	 eax, DWORD PTR [eax+788]
  00024	ff d0		 call	 eax
$LN3@SetModifie:
; File D:\git\src\IBK\IBK_DRFN\ProjSrc\SrcDrfn\Chart\ExControl\ExGridCtrl.cpp

; 1540 : }

  00026	5d		 pop	 ebp
  00027	c2 0c 00	 ret	 12			; 0000000cH
?SetModified@CExGridCtrl@@QAEXHHH@Z ENDP		; CExGridCtrl::SetModified
_TEXT	ENDS
; Function compile flags: /Ogtp
; File D:\git\src\IBK\IBK_DRFN\ProjSrc\SrcDrfn\Chart\ExControl\ExGridCtrl.cpp
; File D:\git\src\IBK\IBK_DRFN\ProjSrc\SrcDrfn\Chart\ExControl\Include\GirdLoadHelper.h
; File D:\git\src\IBK\IBK_DRFN\ProjSrc\SrcDrfn\Chart\ExControl\ExGridCtrl.cpp
; File D:\git\src\IBK\IBK_DRFN\ProjSrc\SrcDrfn\Chart\ExControl\Include\GirdLoadHelper.h
; File D:\git\src\IBK\IBK_DRFN\ProjSrc\SrcDrfn\Chart\ExControl\ExGridCtrl.cpp
;	COMDAT ?GetCell@CExGridCtrl@@QAEPAVCGridCellBase@@HH@Z
_TEXT	SEGMENT
_nRow$ = 8						; size = 4
_nCol$ = 12						; size = 4
?GetCell@CExGridCtrl@@QAEPAVCGridCellBase@@HH@Z PROC	; CExGridCtrl::GetCell, COMDAT
; _this$ = ecx

; 1738 : {

  00000	55		 push	 ebp
  00001	8b ec		 mov	 ebp, esp

; 1739 : 	return m_pLoader->GetCell(nRow, nCol);

  00003	8b 81 80 00 00
	00		 mov	 eax, DWORD PTR [ecx+128]
; File D:\git\src\IBK\IBK_DRFN\ProjSrc\SrcDrfn\Chart\ExControl\Include\GirdLoadHelper.h

; 2268 : 		if(!m_hLib)

  00009	83 78 04 00	 cmp	 DWORD PTR [eax+4], 0
  0000d	75 06		 jne	 SHORT $LN4@GetCell
; File D:\git\src\IBK\IBK_DRFN\ProjSrc\SrcDrfn\Chart\ExControl\ExGridCtrl.cpp

; 1739 : 	return m_pLoader->GetCell(nRow, nCol);

  0000f	33 c0		 xor	 eax, eax

; 1740 : }

  00011	5d		 pop	 ebp
  00012	c2 08 00	 ret	 8
$LN4@GetCell:
; File D:\git\src\IBK\IBK_DRFN\ProjSrc\SrcDrfn\Chart\ExControl\Include\GirdLoadHelper.h

; 2271 : 		return pGetCell(m_lpPointer, nRow, nCol);

  00015	ff 75 0c	 push	 DWORD PTR _nCol$[ebp]
  00018	ff 75 08	 push	 DWORD PTR _nRow$[ebp]
  0001b	ff b0 0c 01 00
	00		 push	 DWORD PTR [eax+268]
  00021	8b 80 10 03 00
	00		 mov	 eax, DWORD PTR [eax+784]
  00027	ff d0		 call	 eax
; File D:\git\src\IBK\IBK_DRFN\ProjSrc\SrcDrfn\Chart\ExControl\ExGridCtrl.cpp

; 1740 : }

  00029	5d		 pop	 ebp
  0002a	c2 08 00	 ret	 8
?GetCell@CExGridCtrl@@QAEPAVCGridCellBase@@HH@Z ENDP	; CExGridCtrl::GetCell
_TEXT	ENDS
; Function compile flags: /Ogtp
; File D:\git\src\IBK\IBK_DRFN\ProjSrc\SrcDrfn\Chart\ExControl\ExGridCtrl.cpp
; File D:\git\src\IBK\IBK_DRFN\ProjSrc\SrcDrfn\Chart\ExControl\Include\GirdLoadHelper.h
; File D:\git\src\IBK\IBK_DRFN\ProjSrc\SrcDrfn\Chart\ExControl\ExGridCtrl.cpp
; File D:\git\src\IBK\IBK_DRFN\ProjSrc\SrcDrfn\Chart\ExControl\Include\GirdLoadHelper.h
; File D:\git\src\IBK\IBK_DRFN\ProjSrc\SrcDrfn\Chart\ExControl\ExGridCtrl.cpp
;	COMDAT ?GetDefaultCell@CExGridCtrl@@QAEPAVCGridCellBase@@HH@Z
_TEXT	SEGMENT
_bFixedRow$ = 8						; size = 4
_bFixedCol$ = 12					; size = 4
?GetDefaultCell@CExGridCtrl@@QAEPAVCGridCellBase@@HH@Z PROC ; CExGridCtrl::GetDefaultCell, COMDAT
; _this$ = ecx

; 1733 : {

  00000	55		 push	 ebp
  00001	8b ec		 mov	 ebp, esp

; 1734 : 	return m_pLoader->GetDefaultCell(bFixedRow, bFixedCol);

  00003	8b 81 80 00 00
	00		 mov	 eax, DWORD PTR [ecx+128]
; File D:\git\src\IBK\IBK_DRFN\ProjSrc\SrcDrfn\Chart\ExControl\Include\GirdLoadHelper.h

; 2260 : 		if(!m_hLib)

  00009	83 78 04 00	 cmp	 DWORD PTR [eax+4], 0
  0000d	75 06		 jne	 SHORT $LN4@GetDefault
; File D:\git\src\IBK\IBK_DRFN\ProjSrc\SrcDrfn\Chart\ExControl\ExGridCtrl.cpp

; 1734 : 	return m_pLoader->GetDefaultCell(bFixedRow, bFixedCol);

  0000f	33 c0		 xor	 eax, eax

; 1735 : }

  00011	5d		 pop	 ebp
  00012	c2 08 00	 ret	 8
$LN4@GetDefault:
; File D:\git\src\IBK\IBK_DRFN\ProjSrc\SrcDrfn\Chart\ExControl\Include\GirdLoadHelper.h

; 2263 : 		return pGetDefaultCell(m_lpPointer, bFixedRow, bFixedCol);

  00015	ff 75 0c	 push	 DWORD PTR _bFixedCol$[ebp]
  00018	ff 75 08	 push	 DWORD PTR _bFixedRow$[ebp]
  0001b	ff b0 0c 01 00
	00		 push	 DWORD PTR [eax+268]
  00021	8b 80 0c 03 00
	00		 mov	 eax, DWORD PTR [eax+780]
  00027	ff d0		 call	 eax
; File D:\git\src\IBK\IBK_DRFN\ProjSrc\SrcDrfn\Chart\ExControl\ExGridCtrl.cpp

; 1735 : }

  00029	5d		 pop	 ebp
  0002a	c2 08 00	 ret	 8
?GetDefaultCell@CExGridCtrl@@QAEPAVCGridCellBase@@HH@Z ENDP ; CExGridCtrl::GetDefaultCell
_TEXT	ENDS
; Function compile flags: /Ogtp
; File D:\git\src\IBK\IBK_DRFN\ProjSrc\SrcDrfn\Chart\ExControl\ExGridCtrl.cpp
; File D:\git\src\IBK\IBK_DRFN\ProjSrc\SrcDrfn\Chart\ExControl\Include\GirdLoadHelper.h
; File D:\git\src\IBK\IBK_DRFN\ProjSrc\SrcDrfn\Chart\ExControl\ExGridCtrl.cpp
;	COMDAT ?SetDrawFixedLine@CExGridCtrl@@QAEXH@Z
_TEXT	SEGMENT
_bDraw$ = 8						; size = 4
?SetDrawFixedLine@CExGridCtrl@@QAEXH@Z PROC		; CExGridCtrl::SetDrawFixedLine, COMDAT
; _this$ = ecx

; 1774 : {

  00000	55		 push	 ebp
  00001	8b ec		 mov	 ebp, esp

; 1775 : 	m_pLoader->SetDrawFixedLine(bDraw);

  00003	8b 81 80 00 00
	00		 mov	 eax, DWORD PTR [ecx+128]
; File D:\git\src\IBK\IBK_DRFN\ProjSrc\SrcDrfn\Chart\ExControl\Include\GirdLoadHelper.h

; 3601 : 		if(!m_hLib)

  00009	83 78 04 00	 cmp	 DWORD PTR [eax+4], 0
  0000d	74 11		 je	 SHORT $LN3@SetDrawFix

; 3602 : 			return;
; 3603 : 
; 3604 : 		pSetDrawFixedLine(m_lpPointer, bDraw);

  0000f	ff 75 08	 push	 DWORD PTR _bDraw$[ebp]
  00012	ff b0 0c 01 00
	00		 push	 DWORD PTR [eax+268]
  00018	8b 80 a8 05 00
	00		 mov	 eax, DWORD PTR [eax+1448]
  0001e	ff d0		 call	 eax
$LN3@SetDrawFix:
; File D:\git\src\IBK\IBK_DRFN\ProjSrc\SrcDrfn\Chart\ExControl\ExGridCtrl.cpp

; 1776 : }

  00020	5d		 pop	 ebp
  00021	c2 04 00	 ret	 4
?SetDrawFixedLine@CExGridCtrl@@QAEXH@Z ENDP		; CExGridCtrl::SetDrawFixedLine
_TEXT	ENDS
; Function compile flags: /Ogtp
; File D:\git\src\IBK\IBK_DRFN\ProjSrc\SrcDrfn\Chart\ExControl\ExGridCtrl.cpp
; File D:\git\src\IBK\IBK_DRFN\ProjSrc\SrcDrfn\Chart\ExControl\Include\GirdLoadHelper.h
; File D:\git\src\IBK\IBK_DRFN\ProjSrc\SrcDrfn\Chart\ExControl\ExGridCtrl.cpp
; File D:\git\src\IBK\IBK_DRFN\ProjSrc\SrcDrfn\Chart\ExControl\Include\GirdLoadHelper.h
; File D:\git\src\IBK\IBK_DRFN\ProjSrc\SrcDrfn\Chart\ExControl\ExGridCtrl.cpp
;	COMDAT ?GetUseFocusRect@CExGridCtrl@@QAEHXZ
_TEXT	SEGMENT
?GetUseFocusRect@CExGridCtrl@@QAEHXZ PROC		; CExGridCtrl::GetUseFocusRect, COMDAT
; _this$ = ecx

; 1770 : 	return m_pLoader->GetUseFocusRect();

  00000	8b 81 80 00 00
	00		 mov	 eax, DWORD PTR [ecx+128]
; File D:\git\src\IBK\IBK_DRFN\ProjSrc\SrcDrfn\Chart\ExControl\Include\GirdLoadHelper.h

; 3593 : 		if(!m_hLib)

  00006	83 78 04 00	 cmp	 DWORD PTR [eax+4], 0
  0000a	75 03		 jne	 SHORT $LN4@GetUseFocu
; File D:\git\src\IBK\IBK_DRFN\ProjSrc\SrcDrfn\Chart\ExControl\ExGridCtrl.cpp

; 1770 : 	return m_pLoader->GetUseFocusRect();

  0000c	33 c0		 xor	 eax, eax

; 1771 : }

  0000e	c3		 ret	 0
$LN4@GetUseFocu:
; File D:\git\src\IBK\IBK_DRFN\ProjSrc\SrcDrfn\Chart\ExControl\Include\GirdLoadHelper.h

; 3596 : 		return pGetUseFocusRect(m_lpPointer);

  0000f	ff b0 0c 01 00
	00		 push	 DWORD PTR [eax+268]
  00015	8b 80 a4 05 00
	00		 mov	 eax, DWORD PTR [eax+1444]
  0001b	ff d0		 call	 eax
; File D:\git\src\IBK\IBK_DRFN\ProjSrc\SrcDrfn\Chart\ExControl\ExGridCtrl.cpp

; 1771 : }

  0001d	c3		 ret	 0
?GetUseFocusRect@CExGridCtrl@@QAEHXZ ENDP		; CExGridCtrl::GetUseFocusRect
_TEXT	ENDS
; Function compile flags: /Ogtp
; File D:\git\src\IBK\IBK_DRFN\ProjSrc\SrcDrfn\Chart\ExControl\ExGridCtrl.cpp
; File D:\git\src\IBK\IBK_DRFN\ProjSrc\SrcDrfn\Chart\ExControl\Include\GirdLoadHelper.h
; File D:\git\src\IBK\IBK_DRFN\ProjSrc\SrcDrfn\Chart\ExControl\ExGridCtrl.cpp
;	COMDAT ?SetUseFocusRect@CExGridCtrl@@QAEXH@Z
_TEXT	SEGMENT
_bUse$ = 8						; size = 4
?SetUseFocusRect@CExGridCtrl@@QAEXH@Z PROC		; CExGridCtrl::SetUseFocusRect, COMDAT
; _this$ = ecx

; 1764 : {

  00000	55		 push	 ebp
  00001	8b ec		 mov	 ebp, esp

; 1765 : 	m_pLoader->SetUseFocusRect(bUse);

  00003	8b 81 80 00 00
	00		 mov	 eax, DWORD PTR [ecx+128]
; File D:\git\src\IBK\IBK_DRFN\ProjSrc\SrcDrfn\Chart\ExControl\Include\GirdLoadHelper.h

; 3585 : 		if(!m_hLib)

  00009	83 78 04 00	 cmp	 DWORD PTR [eax+4], 0
  0000d	74 11		 je	 SHORT $LN3@SetUseFocu

; 3586 : 			return;
; 3587 : 
; 3588 : 		pSetUseFocusRect(m_lpPointer, bUse);

  0000f	ff 75 08	 push	 DWORD PTR _bUse$[ebp]
  00012	ff b0 0c 01 00
	00		 push	 DWORD PTR [eax+268]
  00018	8b 80 a0 05 00
	00		 mov	 eax, DWORD PTR [eax+1440]
  0001e	ff d0		 call	 eax
$LN3@SetUseFocu:
; File D:\git\src\IBK\IBK_DRFN\ProjSrc\SrcDrfn\Chart\ExControl\ExGridCtrl.cpp

; 1766 : }

  00020	5d		 pop	 ebp
  00021	c2 04 00	 ret	 4
?SetUseFocusRect@CExGridCtrl@@QAEXH@Z ENDP		; CExGridCtrl::SetUseFocusRect
_TEXT	ENDS
; Function compile flags: /Ogtp
; File D:\git\src\IBK\IBK_DRFN\ProjSrc\SrcDrfn\Chart\ExControl\ExGridCtrl.cpp
; File D:\git\src\IBK\IBK_DRFN\ProjSrc\SrcDrfn\Chart\ExControl\Include\GirdLoadHelper.h
; File D:\git\src\IBK\IBK_DRFN\ProjSrc\SrcDrfn\Chart\ExControl\ExGridCtrl.cpp
; File D:\git\src\IBK\IBK_DRFN\ProjSrc\SrcDrfn\Chart\ExControl\Include\GirdLoadHelper.h
; File D:\git\src\IBK\IBK_DRFN\ProjSrc\SrcDrfn\Chart\ExControl\ExGridCtrl.cpp
;	COMDAT ?IsDefaultReadOnly@CExGridCtrl@@QAEHXZ
_TEXT	SEGMENT
?IsDefaultReadOnly@CExGridCtrl@@QAEHXZ PROC		; CExGridCtrl::IsDefaultReadOnly, COMDAT
; _this$ = ecx

; 612  : 	return m_pLoader->IsDefaultReadOnly();

  00000	8b 81 80 00 00
	00		 mov	 eax, DWORD PTR [ecx+128]
; File D:\git\src\IBK\IBK_DRFN\ProjSrc\SrcDrfn\Chart\ExControl\Include\GirdLoadHelper.h

; 2252 : 		if(!m_hLib)

  00006	83 78 04 00	 cmp	 DWORD PTR [eax+4], 0
  0000a	75 03		 jne	 SHORT $LN4@IsDefaultR
; File D:\git\src\IBK\IBK_DRFN\ProjSrc\SrcDrfn\Chart\ExControl\ExGridCtrl.cpp

; 612  : 	return m_pLoader->IsDefaultReadOnly();

  0000c	33 c0		 xor	 eax, eax

; 613  : }

  0000e	c3		 ret	 0
$LN4@IsDefaultR:
; File D:\git\src\IBK\IBK_DRFN\ProjSrc\SrcDrfn\Chart\ExControl\Include\GirdLoadHelper.h

; 2255 : 		return pIsDefaultReadOnly(m_lpPointer);

  0000f	ff b0 0c 01 00
	00		 push	 DWORD PTR [eax+268]
  00015	8b 80 08 03 00
	00		 mov	 eax, DWORD PTR [eax+776]
  0001b	ff d0		 call	 eax
; File D:\git\src\IBK\IBK_DRFN\ProjSrc\SrcDrfn\Chart\ExControl\ExGridCtrl.cpp

; 613  : }

  0001d	c3		 ret	 0
?IsDefaultReadOnly@CExGridCtrl@@QAEHXZ ENDP		; CExGridCtrl::IsDefaultReadOnly
_TEXT	ENDS
; Function compile flags: /Ogtp
; File D:\git\src\IBK\IBK_DRFN\ProjSrc\SrcDrfn\Chart\ExControl\ExGridCtrl.cpp
; File D:\git\src\IBK\IBK_DRFN\ProjSrc\SrcDrfn\Chart\ExControl\Include\GirdLoadHelper.h
; File D:\git\src\IBK\IBK_DRFN\ProjSrc\SrcDrfn\Chart\ExControl\ExGridCtrl.cpp
;	COMDAT ?SetDefaultReadOnly@CExGridCtrl@@QAEXH@Z
_TEXT	SEGMENT
_bReadOnly$ = 8						; size = 4
?SetDefaultReadOnly@CExGridCtrl@@QAEXH@Z PROC		; CExGridCtrl::SetDefaultReadOnly, COMDAT
; _this$ = ecx

; 606  : {

  00000	55		 push	 ebp
  00001	8b ec		 mov	 ebp, esp

; 607  : 	m_pLoader->SetDefaultReadOnly(bReadOnly);

  00003	8b 81 80 00 00
	00		 mov	 eax, DWORD PTR [ecx+128]
; File D:\git\src\IBK\IBK_DRFN\ProjSrc\SrcDrfn\Chart\ExControl\Include\GirdLoadHelper.h

; 2244 : 		if(!m_hLib)

  00009	83 78 04 00	 cmp	 DWORD PTR [eax+4], 0
  0000d	74 11		 je	 SHORT $LN3@SetDefault

; 2245 : 			return;
; 2246 : 
; 2247 : 		pSetDefaultReadOnly(m_lpPointer, bReadOnly);

  0000f	ff 75 08	 push	 DWORD PTR _bReadOnly$[ebp]
  00012	ff b0 0c 01 00
	00		 push	 DWORD PTR [eax+268]
  00018	8b 80 04 03 00
	00		 mov	 eax, DWORD PTR [eax+772]
  0001e	ff d0		 call	 eax
$LN3@SetDefault:
; File D:\git\src\IBK\IBK_DRFN\ProjSrc\SrcDrfn\Chart\ExControl\ExGridCtrl.cpp

; 608  : }

  00020	5d		 pop	 ebp
  00021	c2 04 00	 ret	 4
?SetDefaultReadOnly@CExGridCtrl@@QAEXH@Z ENDP		; CExGridCtrl::SetDefaultReadOnly
_TEXT	ENDS
; Function compile flags: /Ogtp
; File D:\git\src\IBK\IBK_DRFN\ProjSrc\SrcDrfn\Chart\ExControl\ExGridCtrl.cpp
; File D:\git\src\IBK\IBK_DRFN\ProjSrc\SrcDrfn\Chart\ExControl\Include\GirdLoadHelper.h
; File D:\git\src\IBK\IBK_DRFN\ProjSrc\SrcDrfn\Chart\ExControl\ExGridCtrl.cpp
; File D:\git\src\IBK\IBK_DRFN\ProjSrc\SrcDrfn\Chart\ExControl\Include\GirdLoadHelper.h
; File D:\git\src\IBK\IBK_DRFN\ProjSrc\SrcDrfn\Chart\ExControl\ExGridCtrl.cpp
;	COMDAT ?GetRowHide@CExGridCtrl@@QAEHXZ
_TEXT	SEGMENT
?GetRowHide@CExGridCtrl@@QAEHXZ PROC			; CExGridCtrl::GetRowHide, COMDAT
; _this$ = ecx

; 602  : 	return m_pLoader->GetRowHide();

  00000	8b 81 80 00 00
	00		 mov	 eax, DWORD PTR [ecx+128]
; File D:\git\src\IBK\IBK_DRFN\ProjSrc\SrcDrfn\Chart\ExControl\Include\GirdLoadHelper.h

; 2236 : 		if(!m_hLib)

  00006	83 78 04 00	 cmp	 DWORD PTR [eax+4], 0
  0000a	75 03		 jne	 SHORT $LN4@GetRowHide
; File D:\git\src\IBK\IBK_DRFN\ProjSrc\SrcDrfn\Chart\ExControl\ExGridCtrl.cpp

; 602  : 	return m_pLoader->GetRowHide();

  0000c	33 c0		 xor	 eax, eax

; 603  : }

  0000e	c3		 ret	 0
$LN4@GetRowHide:
; File D:\git\src\IBK\IBK_DRFN\ProjSrc\SrcDrfn\Chart\ExControl\Include\GirdLoadHelper.h

; 2239 : 		return pGetRowHide(m_lpPointer);

  0000f	ff b0 0c 01 00
	00		 push	 DWORD PTR [eax+268]
  00015	8b 80 00 03 00
	00		 mov	 eax, DWORD PTR [eax+768]
  0001b	ff d0		 call	 eax
; File D:\git\src\IBK\IBK_DRFN\ProjSrc\SrcDrfn\Chart\ExControl\ExGridCtrl.cpp

; 603  : }

  0001d	c3		 ret	 0
?GetRowHide@CExGridCtrl@@QAEHXZ ENDP			; CExGridCtrl::GetRowHide
_TEXT	ENDS
; Function compile flags: /Ogtp
; File D:\git\src\IBK\IBK_DRFN\ProjSrc\SrcDrfn\Chart\ExControl\ExGridCtrl.cpp
; File D:\git\src\IBK\IBK_DRFN\ProjSrc\SrcDrfn\Chart\ExControl\Include\GirdLoadHelper.h
; File D:\git\src\IBK\IBK_DRFN\ProjSrc\SrcDrfn\Chart\ExControl\ExGridCtrl.cpp
;	COMDAT ?EnableRowHide@CExGridCtrl@@QAEXH@Z
_TEXT	SEGMENT
_bEnable$ = 8						; size = 4
?EnableRowHide@CExGridCtrl@@QAEXH@Z PROC		; CExGridCtrl::EnableRowHide, COMDAT
; _this$ = ecx

; 596  : {

  00000	55		 push	 ebp
  00001	8b ec		 mov	 ebp, esp

; 597  : 	m_pLoader->EnableRowHide(bEnable);

  00003	8b 81 80 00 00
	00		 mov	 eax, DWORD PTR [ecx+128]
; File D:\git\src\IBK\IBK_DRFN\ProjSrc\SrcDrfn\Chart\ExControl\Include\GirdLoadHelper.h

; 2228 : 		if(!m_hLib)

  00009	83 78 04 00	 cmp	 DWORD PTR [eax+4], 0
  0000d	74 11		 je	 SHORT $LN3@EnableRowH

; 2229 : 			return;
; 2230 : 
; 2231 : 		pEnableRowHide(m_lpPointer, bEnable);

  0000f	ff 75 08	 push	 DWORD PTR _bEnable$[ebp]
  00012	ff b0 0c 01 00
	00		 push	 DWORD PTR [eax+268]
  00018	8b 80 fc 02 00
	00		 mov	 eax, DWORD PTR [eax+764]
  0001e	ff d0		 call	 eax
$LN3@EnableRowH:
; File D:\git\src\IBK\IBK_DRFN\ProjSrc\SrcDrfn\Chart\ExControl\ExGridCtrl.cpp

; 598  : }

  00020	5d		 pop	 ebp
  00021	c2 04 00	 ret	 4
?EnableRowHide@CExGridCtrl@@QAEXH@Z ENDP		; CExGridCtrl::EnableRowHide
_TEXT	ENDS
; Function compile flags: /Ogtp
; File D:\git\src\IBK\IBK_DRFN\ProjSrc\SrcDrfn\Chart\ExControl\ExGridCtrl.cpp
; File D:\git\src\IBK\IBK_DRFN\ProjSrc\SrcDrfn\Chart\ExControl\Include\GirdLoadHelper.h
; File D:\git\src\IBK\IBK_DRFN\ProjSrc\SrcDrfn\Chart\ExControl\ExGridCtrl.cpp
; File D:\git\src\IBK\IBK_DRFN\ProjSrc\SrcDrfn\Chart\ExControl\Include\GirdLoadHelper.h
; File D:\git\src\IBK\IBK_DRFN\ProjSrc\SrcDrfn\Chart\ExControl\ExGridCtrl.cpp
;	COMDAT ?GetColumnHide@CExGridCtrl@@QAEHXZ
_TEXT	SEGMENT
?GetColumnHide@CExGridCtrl@@QAEHXZ PROC			; CExGridCtrl::GetColumnHide, COMDAT
; _this$ = ecx

; 592  : 	return m_pLoader->GetColumnHide();

  00000	8b 81 80 00 00
	00		 mov	 eax, DWORD PTR [ecx+128]
; File D:\git\src\IBK\IBK_DRFN\ProjSrc\SrcDrfn\Chart\ExControl\Include\GirdLoadHelper.h

; 2220 : 		if(!m_hLib)

  00006	83 78 04 00	 cmp	 DWORD PTR [eax+4], 0
  0000a	75 03		 jne	 SHORT $LN4@GetColumnH
; File D:\git\src\IBK\IBK_DRFN\ProjSrc\SrcDrfn\Chart\ExControl\ExGridCtrl.cpp

; 592  : 	return m_pLoader->GetColumnHide();

  0000c	33 c0		 xor	 eax, eax

; 593  : }

  0000e	c3		 ret	 0
$LN4@GetColumnH:
; File D:\git\src\IBK\IBK_DRFN\ProjSrc\SrcDrfn\Chart\ExControl\Include\GirdLoadHelper.h

; 2223 : 		return pGetColumnHide(m_lpPointer);

  0000f	ff b0 0c 01 00
	00		 push	 DWORD PTR [eax+268]
  00015	8b 80 f8 02 00
	00		 mov	 eax, DWORD PTR [eax+760]
  0001b	ff d0		 call	 eax
; File D:\git\src\IBK\IBK_DRFN\ProjSrc\SrcDrfn\Chart\ExControl\ExGridCtrl.cpp

; 593  : }

  0001d	c3		 ret	 0
?GetColumnHide@CExGridCtrl@@QAEHXZ ENDP			; CExGridCtrl::GetColumnHide
_TEXT	ENDS
; Function compile flags: /Ogtp
; File D:\git\src\IBK\IBK_DRFN\ProjSrc\SrcDrfn\Chart\ExControl\ExGridCtrl.cpp
; File D:\git\src\IBK\IBK_DRFN\ProjSrc\SrcDrfn\Chart\ExControl\Include\GirdLoadHelper.h
; File D:\git\src\IBK\IBK_DRFN\ProjSrc\SrcDrfn\Chart\ExControl\ExGridCtrl.cpp
;	COMDAT ?EnableColumnHide@CExGridCtrl@@QAEXH@Z
_TEXT	SEGMENT
_bEnable$ = 8						; size = 4
?EnableColumnHide@CExGridCtrl@@QAEXH@Z PROC		; CExGridCtrl::EnableColumnHide, COMDAT
; _this$ = ecx

; 586  : {

  00000	55		 push	 ebp
  00001	8b ec		 mov	 ebp, esp

; 587  : 	m_pLoader->EnableColumnHide(bEnable);

  00003	8b 81 80 00 00
	00		 mov	 eax, DWORD PTR [ecx+128]
; File D:\git\src\IBK\IBK_DRFN\ProjSrc\SrcDrfn\Chart\ExControl\Include\GirdLoadHelper.h

; 2212 : 		if(!m_hLib)

  00009	83 78 04 00	 cmp	 DWORD PTR [eax+4], 0
  0000d	74 11		 je	 SHORT $LN3@EnableColu

; 2213 : 			return;
; 2214 : 
; 2215 : 		pEnableColumnHide(m_lpPointer, bEnable);

  0000f	ff 75 08	 push	 DWORD PTR _bEnable$[ebp]
  00012	ff b0 0c 01 00
	00		 push	 DWORD PTR [eax+268]
  00018	8b 80 f4 02 00
	00		 mov	 eax, DWORD PTR [eax+756]
  0001e	ff d0		 call	 eax
$LN3@EnableColu:
; File D:\git\src\IBK\IBK_DRFN\ProjSrc\SrcDrfn\Chart\ExControl\ExGridCtrl.cpp

; 588  : }

  00020	5d		 pop	 ebp
  00021	c2 04 00	 ret	 4
?EnableColumnHide@CExGridCtrl@@QAEXH@Z ENDP		; CExGridCtrl::EnableColumnHide
_TEXT	ENDS
; Function compile flags: /Ogtp
; File D:\git\src\IBK\IBK_DRFN\ProjSrc\SrcDrfn\Chart\ExControl\ExGridCtrl.cpp
; File D:\git\src\IBK\IBK_DRFN\ProjSrc\SrcDrfn\Chart\ExControl\Include\GirdLoadHelper.h
; File D:\git\src\IBK\IBK_DRFN\ProjSrc\SrcDrfn\Chart\ExControl\ExGridCtrl.cpp
; File D:\git\src\IBK\IBK_DRFN\ProjSrc\SrcDrfn\Chart\ExControl\Include\GirdLoadHelper.h
; File D:\git\src\IBK\IBK_DRFN\ProjSrc\SrcDrfn\Chart\ExControl\ExGridCtrl.cpp
;	COMDAT ?GetHiddenRowUnhide@CExGridCtrl@@QAEHXZ
_TEXT	SEGMENT
?GetHiddenRowUnhide@CExGridCtrl@@QAEHXZ PROC		; CExGridCtrl::GetHiddenRowUnhide, COMDAT
; _this$ = ecx

; 582  : 	return m_pLoader->GetHiddenRowUnhide();

  00000	8b 81 80 00 00
	00		 mov	 eax, DWORD PTR [ecx+128]
; File D:\git\src\IBK\IBK_DRFN\ProjSrc\SrcDrfn\Chart\ExControl\Include\GirdLoadHelper.h

; 2204 : 		if(!m_hLib)

  00006	83 78 04 00	 cmp	 DWORD PTR [eax+4], 0
  0000a	75 03		 jne	 SHORT $LN4@GetHiddenR
; File D:\git\src\IBK\IBK_DRFN\ProjSrc\SrcDrfn\Chart\ExControl\ExGridCtrl.cpp

; 582  : 	return m_pLoader->GetHiddenRowUnhide();

  0000c	33 c0		 xor	 eax, eax

; 583  : }

  0000e	c3		 ret	 0
$LN4@GetHiddenR:
; File D:\git\src\IBK\IBK_DRFN\ProjSrc\SrcDrfn\Chart\ExControl\Include\GirdLoadHelper.h

; 2207 : 		return pGetHiddenRowUnhide(m_lpPointer);

  0000f	ff b0 0c 01 00
	00		 push	 DWORD PTR [eax+268]
  00015	8b 80 f0 02 00
	00		 mov	 eax, DWORD PTR [eax+752]
  0001b	ff d0		 call	 eax
; File D:\git\src\IBK\IBK_DRFN\ProjSrc\SrcDrfn\Chart\ExControl\ExGridCtrl.cpp

; 583  : }

  0001d	c3		 ret	 0
?GetHiddenRowUnhide@CExGridCtrl@@QAEHXZ ENDP		; CExGridCtrl::GetHiddenRowUnhide
_TEXT	ENDS
; Function compile flags: /Ogtp
; File D:\git\src\IBK\IBK_DRFN\ProjSrc\SrcDrfn\Chart\ExControl\ExGridCtrl.cpp
; File D:\git\src\IBK\IBK_DRFN\ProjSrc\SrcDrfn\Chart\ExControl\Include\GirdLoadHelper.h
; File D:\git\src\IBK\IBK_DRFN\ProjSrc\SrcDrfn\Chart\ExControl\ExGridCtrl.cpp
;	COMDAT ?EnableHiddenRowUnhide@CExGridCtrl@@QAEXH@Z
_TEXT	SEGMENT
_bEnable$ = 8						; size = 4
?EnableHiddenRowUnhide@CExGridCtrl@@QAEXH@Z PROC	; CExGridCtrl::EnableHiddenRowUnhide, COMDAT
; _this$ = ecx

; 576  : {

  00000	55		 push	 ebp
  00001	8b ec		 mov	 ebp, esp

; 577  : 	m_pLoader->EnableHiddenRowUnhide(bEnable);

  00003	8b 81 80 00 00
	00		 mov	 eax, DWORD PTR [ecx+128]
; File D:\git\src\IBK\IBK_DRFN\ProjSrc\SrcDrfn\Chart\ExControl\Include\GirdLoadHelper.h

; 2196 : 		if(!m_hLib)

  00009	83 78 04 00	 cmp	 DWORD PTR [eax+4], 0
  0000d	74 11		 je	 SHORT $LN3@EnableHidd

; 2197 : 			return;
; 2198 : 
; 2199 : 		pEnableHiddenRowUnhide(m_lpPointer, bEnable);

  0000f	ff 75 08	 push	 DWORD PTR _bEnable$[ebp]
  00012	ff b0 0c 01 00
	00		 push	 DWORD PTR [eax+268]
  00018	8b 80 ec 02 00
	00		 mov	 eax, DWORD PTR [eax+748]
  0001e	ff d0		 call	 eax
$LN3@EnableHidd:
; File D:\git\src\IBK\IBK_DRFN\ProjSrc\SrcDrfn\Chart\ExControl\ExGridCtrl.cpp

; 578  : }

  00020	5d		 pop	 ebp
  00021	c2 04 00	 ret	 4
?EnableHiddenRowUnhide@CExGridCtrl@@QAEXH@Z ENDP	; CExGridCtrl::EnableHiddenRowUnhide
_TEXT	ENDS
; Function compile flags: /Ogtp
; File D:\git\src\IBK\IBK_DRFN\ProjSrc\SrcDrfn\Chart\ExControl\ExGridCtrl.cpp
; File D:\git\src\IBK\IBK_DRFN\ProjSrc\SrcDrfn\Chart\ExControl\Include\GirdLoadHelper.h
; File D:\git\src\IBK\IBK_DRFN\ProjSrc\SrcDrfn\Chart\ExControl\ExGridCtrl.cpp
; File D:\git\src\IBK\IBK_DRFN\ProjSrc\SrcDrfn\Chart\ExControl\Include\GirdLoadHelper.h
; File D:\git\src\IBK\IBK_DRFN\ProjSrc\SrcDrfn\Chart\ExControl\ExGridCtrl.cpp
;	COMDAT ?GetHiddenColUnhide@CExGridCtrl@@QAEHXZ
_TEXT	SEGMENT
?GetHiddenColUnhide@CExGridCtrl@@QAEHXZ PROC		; CExGridCtrl::GetHiddenColUnhide, COMDAT
; _this$ = ecx

; 572  : 	return m_pLoader->GetHiddenColUnhide();

  00000	8b 81 80 00 00
	00		 mov	 eax, DWORD PTR [ecx+128]
; File D:\git\src\IBK\IBK_DRFN\ProjSrc\SrcDrfn\Chart\ExControl\Include\GirdLoadHelper.h

; 2188 : 		if(!m_hLib)

  00006	83 78 04 00	 cmp	 DWORD PTR [eax+4], 0
  0000a	75 03		 jne	 SHORT $LN4@GetHiddenC
; File D:\git\src\IBK\IBK_DRFN\ProjSrc\SrcDrfn\Chart\ExControl\ExGridCtrl.cpp

; 572  : 	return m_pLoader->GetHiddenColUnhide();

  0000c	33 c0		 xor	 eax, eax

; 573  : }

  0000e	c3		 ret	 0
$LN4@GetHiddenC:
; File D:\git\src\IBK\IBK_DRFN\ProjSrc\SrcDrfn\Chart\ExControl\Include\GirdLoadHelper.h

; 2191 : 		return pGetHiddenColUnhide(m_lpPointer);

  0000f	ff b0 0c 01 00
	00		 push	 DWORD PTR [eax+268]
  00015	8b 80 e8 02 00
	00		 mov	 eax, DWORD PTR [eax+744]
  0001b	ff d0		 call	 eax
; File D:\git\src\IBK\IBK_DRFN\ProjSrc\SrcDrfn\Chart\ExControl\ExGridCtrl.cpp

; 573  : }

  0001d	c3		 ret	 0
?GetHiddenColUnhide@CExGridCtrl@@QAEHXZ ENDP		; CExGridCtrl::GetHiddenColUnhide
_TEXT	ENDS
; Function compile flags: /Ogtp
; File D:\git\src\IBK\IBK_DRFN\ProjSrc\SrcDrfn\Chart\ExControl\ExGridCtrl.cpp
; File D:\git\src\IBK\IBK_DRFN\ProjSrc\SrcDrfn\Chart\ExControl\Include\GirdLoadHelper.h
; File D:\git\src\IBK\IBK_DRFN\ProjSrc\SrcDrfn\Chart\ExControl\ExGridCtrl.cpp
;	COMDAT ?EnableHiddenColUnhide@CExGridCtrl@@QAEXH@Z
_TEXT	SEGMENT
_bEnable$ = 8						; size = 4
?EnableHiddenColUnhide@CExGridCtrl@@QAEXH@Z PROC	; CExGridCtrl::EnableHiddenColUnhide, COMDAT
; _this$ = ecx

; 566  : {

  00000	55		 push	 ebp
  00001	8b ec		 mov	 ebp, esp

; 567  : 	m_pLoader->EnableHiddenColUnhide(bEnable);

  00003	8b 81 80 00 00
	00		 mov	 eax, DWORD PTR [ecx+128]
; File D:\git\src\IBK\IBK_DRFN\ProjSrc\SrcDrfn\Chart\ExControl\Include\GirdLoadHelper.h

; 2180 : 		if(!m_hLib)

  00009	83 78 04 00	 cmp	 DWORD PTR [eax+4], 0
  0000d	74 11		 je	 SHORT $LN3@EnableHidd

; 2181 : 			return;
; 2182 : 
; 2183 : 		pEnableHiddenColUnhide(m_lpPointer, bEnable);

  0000f	ff 75 08	 push	 DWORD PTR _bEnable$[ebp]
  00012	ff b0 0c 01 00
	00		 push	 DWORD PTR [eax+268]
  00018	8b 80 e4 02 00
	00		 mov	 eax, DWORD PTR [eax+740]
  0001e	ff d0		 call	 eax
$LN3@EnableHidd:
; File D:\git\src\IBK\IBK_DRFN\ProjSrc\SrcDrfn\Chart\ExControl\ExGridCtrl.cpp

; 568  : }

  00020	5d		 pop	 ebp
  00021	c2 04 00	 ret	 4
?EnableHiddenColUnhide@CExGridCtrl@@QAEXH@Z ENDP	; CExGridCtrl::EnableHiddenColUnhide
_TEXT	ENDS
; Function compile flags: /Ogtp
; File D:\git\src\IBK\IBK_DRFN\ProjSrc\SrcDrfn\Chart\ExControl\ExGridCtrl.cpp
; File D:\git\src\IBK\IBK_DRFN\ProjSrc\SrcDrfn\Chart\ExControl\Include\GirdLoadHelper.h
; File D:\git\src\IBK\IBK_DRFN\ProjSrc\SrcDrfn\Chart\ExControl\ExGridCtrl.cpp
; File D:\git\src\IBK\IBK_DRFN\ProjSrc\SrcDrfn\Chart\ExControl\Include\GirdLoadHelper.h
; File D:\git\src\IBK\IBK_DRFN\ProjSrc\SrcDrfn\Chart\ExControl\ExGridCtrl.cpp
;	COMDAT ?GetAutoSizeStyle@CExGridCtrl@@QAEHXZ
_TEXT	SEGMENT
?GetAutoSizeStyle@CExGridCtrl@@QAEHXZ PROC		; CExGridCtrl::GetAutoSizeStyle, COMDAT
; _this$ = ecx

; 562  : 	return m_pLoader->GetAutoSizeStyle();

  00000	8b 81 80 00 00
	00		 mov	 eax, DWORD PTR [ecx+128]
; File D:\git\src\IBK\IBK_DRFN\ProjSrc\SrcDrfn\Chart\ExControl\Include\GirdLoadHelper.h

; 2172 : 		if(!m_hLib)

  00006	83 78 04 00	 cmp	 DWORD PTR [eax+4], 0
  0000a	75 03		 jne	 SHORT $LN4@GetAutoSiz
; File D:\git\src\IBK\IBK_DRFN\ProjSrc\SrcDrfn\Chart\ExControl\ExGridCtrl.cpp

; 562  : 	return m_pLoader->GetAutoSizeStyle();

  0000c	33 c0		 xor	 eax, eax

; 563  : }

  0000e	c3		 ret	 0
$LN4@GetAutoSiz:
; File D:\git\src\IBK\IBK_DRFN\ProjSrc\SrcDrfn\Chart\ExControl\Include\GirdLoadHelper.h

; 2175 : 		return pGetAutoSizeStyle(m_lpPointer);

  0000f	ff b0 0c 01 00
	00		 push	 DWORD PTR [eax+268]
  00015	8b 80 e0 02 00
	00		 mov	 eax, DWORD PTR [eax+736]
  0001b	ff d0		 call	 eax
; File D:\git\src\IBK\IBK_DRFN\ProjSrc\SrcDrfn\Chart\ExControl\ExGridCtrl.cpp

; 563  : }

  0001d	c3		 ret	 0
?GetAutoSizeStyle@CExGridCtrl@@QAEHXZ ENDP		; CExGridCtrl::GetAutoSizeStyle
_TEXT	ENDS
; Function compile flags: /Ogtp
; File D:\git\src\IBK\IBK_DRFN\ProjSrc\SrcDrfn\Chart\ExControl\ExGridCtrl.cpp
; File D:\git\src\IBK\IBK_DRFN\ProjSrc\SrcDrfn\Chart\ExControl\Include\GirdLoadHelper.h
; File D:\git\src\IBK\IBK_DRFN\ProjSrc\SrcDrfn\Chart\ExControl\ExGridCtrl.cpp
;	COMDAT ?SetAutoSizeStyle@CExGridCtrl@@QAEXH@Z
_TEXT	SEGMENT
_nStyle$ = 8						; size = 4
?SetAutoSizeStyle@CExGridCtrl@@QAEXH@Z PROC		; CExGridCtrl::SetAutoSizeStyle, COMDAT
; _this$ = ecx

; 556  : {

  00000	55		 push	 ebp
  00001	8b ec		 mov	 ebp, esp

; 557  : 	m_pLoader->SetAutoSizeStyle(nStyle);

  00003	8b 81 80 00 00
	00		 mov	 eax, DWORD PTR [ecx+128]
; File D:\git\src\IBK\IBK_DRFN\ProjSrc\SrcDrfn\Chart\ExControl\Include\GirdLoadHelper.h

; 2164 : 		if(!m_hLib)

  00009	83 78 04 00	 cmp	 DWORD PTR [eax+4], 0
  0000d	74 11		 je	 SHORT $LN3@SetAutoSiz

; 2165 : 			return;
; 2166 : 
; 2167 : 		pSetAutoSizeStyle(m_lpPointer, nStyle);

  0000f	ff 75 08	 push	 DWORD PTR _nStyle$[ebp]
  00012	ff b0 0c 01 00
	00		 push	 DWORD PTR [eax+268]
  00018	8b 80 dc 02 00
	00		 mov	 eax, DWORD PTR [eax+732]
  0001e	ff d0		 call	 eax
$LN3@SetAutoSiz:
; File D:\git\src\IBK\IBK_DRFN\ProjSrc\SrcDrfn\Chart\ExControl\ExGridCtrl.cpp

; 558  : }

  00020	5d		 pop	 ebp
  00021	c2 04 00	 ret	 4
?SetAutoSizeStyle@CExGridCtrl@@QAEXH@Z ENDP		; CExGridCtrl::SetAutoSizeStyle
_TEXT	ENDS
; Function compile flags: /Ogtp
; File D:\git\src\IBK\IBK_DRFN\ProjSrc\SrcDrfn\Chart\ExControl\ExGridCtrl.cpp
; File D:\git\src\IBK\IBK_DRFN\ProjSrc\SrcDrfn\Chart\ExControl\Include\GirdLoadHelper.h
; File D:\git\src\IBK\IBK_DRFN\ProjSrc\SrcDrfn\Chart\ExControl\ExGridCtrl.cpp
; File D:\git\src\IBK\IBK_DRFN\ProjSrc\SrcDrfn\Chart\ExControl\Include\GirdLoadHelper.h
; File D:\git\src\IBK\IBK_DRFN\ProjSrc\SrcDrfn\Chart\ExControl\ExGridCtrl.cpp
;	COMDAT ?GetFrameFocusCell@CExGridCtrl@@QAEHXZ
_TEXT	SEGMENT
?GetFrameFocusCell@CExGridCtrl@@QAEHXZ PROC		; CExGridCtrl::GetFrameFocusCell, COMDAT
; _this$ = ecx

; 552  : 	return m_pLoader->GetFrameFocusCell();

  00000	8b 81 80 00 00
	00		 mov	 eax, DWORD PTR [ecx+128]
; File D:\git\src\IBK\IBK_DRFN\ProjSrc\SrcDrfn\Chart\ExControl\Include\GirdLoadHelper.h

; 2156 : 		if(!m_hLib)

  00006	83 78 04 00	 cmp	 DWORD PTR [eax+4], 0
  0000a	75 03		 jne	 SHORT $LN4@GetFrameFo
; File D:\git\src\IBK\IBK_DRFN\ProjSrc\SrcDrfn\Chart\ExControl\ExGridCtrl.cpp

; 552  : 	return m_pLoader->GetFrameFocusCell();

  0000c	33 c0		 xor	 eax, eax

; 553  : }

  0000e	c3		 ret	 0
$LN4@GetFrameFo:
; File D:\git\src\IBK\IBK_DRFN\ProjSrc\SrcDrfn\Chart\ExControl\Include\GirdLoadHelper.h

; 2159 : 		return pGetFrameFocusCell(m_lpPointer);

  0000f	ff b0 0c 01 00
	00		 push	 DWORD PTR [eax+268]
  00015	8b 80 d8 02 00
	00		 mov	 eax, DWORD PTR [eax+728]
  0001b	ff d0		 call	 eax
; File D:\git\src\IBK\IBK_DRFN\ProjSrc\SrcDrfn\Chart\ExControl\ExGridCtrl.cpp

; 553  : }

  0001d	c3		 ret	 0
?GetFrameFocusCell@CExGridCtrl@@QAEHXZ ENDP		; CExGridCtrl::GetFrameFocusCell
_TEXT	ENDS
; Function compile flags: /Ogtp
; File D:\git\src\IBK\IBK_DRFN\ProjSrc\SrcDrfn\Chart\ExControl\ExGridCtrl.cpp
; File D:\git\src\IBK\IBK_DRFN\ProjSrc\SrcDrfn\Chart\ExControl\Include\GirdLoadHelper.h
; File D:\git\src\IBK\IBK_DRFN\ProjSrc\SrcDrfn\Chart\ExControl\ExGridCtrl.cpp
;	COMDAT ?SetFrameFocusCell@CExGridCtrl@@QAEXH@Z
_TEXT	SEGMENT
_bFrame$ = 8						; size = 4
?SetFrameFocusCell@CExGridCtrl@@QAEXH@Z PROC		; CExGridCtrl::SetFrameFocusCell, COMDAT
; _this$ = ecx

; 546  : {

  00000	55		 push	 ebp
  00001	8b ec		 mov	 ebp, esp

; 547  : 	m_pLoader->SetFrameFocusCell(bFrame);

  00003	8b 81 80 00 00
	00		 mov	 eax, DWORD PTR [ecx+128]
; File D:\git\src\IBK\IBK_DRFN\ProjSrc\SrcDrfn\Chart\ExControl\Include\GirdLoadHelper.h

; 2148 : 		if(!m_hLib)

  00009	83 78 04 00	 cmp	 DWORD PTR [eax+4], 0
  0000d	74 11		 je	 SHORT $LN3@SetFrameFo

; 2149 : 			return;
; 2150 : 
; 2151 : 		pSetFrameFocusCell(m_lpPointer, bFrame);

  0000f	ff 75 08	 push	 DWORD PTR _bFrame$[ebp]
  00012	ff b0 0c 01 00
	00		 push	 DWORD PTR [eax+268]
  00018	8b 80 d4 02 00
	00		 mov	 eax, DWORD PTR [eax+724]
  0001e	ff d0		 call	 eax
$LN3@SetFrameFo:
; File D:\git\src\IBK\IBK_DRFN\ProjSrc\SrcDrfn\Chart\ExControl\ExGridCtrl.cpp

; 548  : }

  00020	5d		 pop	 ebp
  00021	c2 04 00	 ret	 4
?SetFrameFocusCell@CExGridCtrl@@QAEXH@Z ENDP		; CExGridCtrl::SetFrameFocusCell
_TEXT	ENDS
; Function compile flags: /Ogtp
; File D:\git\src\IBK\IBK_DRFN\ProjSrc\SrcDrfn\Chart\ExControl\ExGridCtrl.cpp
; File D:\git\src\IBK\IBK_DRFN\ProjSrc\SrcDrfn\Chart\ExControl\Include\GirdLoadHelper.h
; File D:\git\src\IBK\IBK_DRFN\ProjSrc\SrcDrfn\Chart\ExControl\ExGridCtrl.cpp
; File D:\git\src\IBK\IBK_DRFN\ProjSrc\SrcDrfn\Chart\ExControl\Include\GirdLoadHelper.h
; File D:\git\src\IBK\IBK_DRFN\ProjSrc\SrcDrfn\Chart\ExControl\ExGridCtrl.cpp
;	COMDAT ?GetTrackFocusCell@CExGridCtrl@@QAEHXZ
_TEXT	SEGMENT
?GetTrackFocusCell@CExGridCtrl@@QAEHXZ PROC		; CExGridCtrl::GetTrackFocusCell, COMDAT
; _this$ = ecx

; 542  : 	return m_pLoader->GetTrackFocusCell();

  00000	8b 81 80 00 00
	00		 mov	 eax, DWORD PTR [ecx+128]
; File D:\git\src\IBK\IBK_DRFN\ProjSrc\SrcDrfn\Chart\ExControl\Include\GirdLoadHelper.h

; 2140 : 		if(!m_hLib)

  00006	83 78 04 00	 cmp	 DWORD PTR [eax+4], 0
  0000a	75 03		 jne	 SHORT $LN4@GetTrackFo
; File D:\git\src\IBK\IBK_DRFN\ProjSrc\SrcDrfn\Chart\ExControl\ExGridCtrl.cpp

; 542  : 	return m_pLoader->GetTrackFocusCell();

  0000c	33 c0		 xor	 eax, eax

; 543  : }

  0000e	c3		 ret	 0
$LN4@GetTrackFo:
; File D:\git\src\IBK\IBK_DRFN\ProjSrc\SrcDrfn\Chart\ExControl\Include\GirdLoadHelper.h

; 2143 : 		return pGetTrackFocusCell(m_lpPointer);

  0000f	ff b0 0c 01 00
	00		 push	 DWORD PTR [eax+268]
  00015	8b 80 d0 02 00
	00		 mov	 eax, DWORD PTR [eax+720]
  0001b	ff d0		 call	 eax
; File D:\git\src\IBK\IBK_DRFN\ProjSrc\SrcDrfn\Chart\ExControl\ExGridCtrl.cpp

; 543  : }

  0001d	c3		 ret	 0
?GetTrackFocusCell@CExGridCtrl@@QAEHXZ ENDP		; CExGridCtrl::GetTrackFocusCell
_TEXT	ENDS
; Function compile flags: /Ogtp
; File D:\git\src\IBK\IBK_DRFN\ProjSrc\SrcDrfn\Chart\ExControl\ExGridCtrl.cpp
; File D:\git\src\IBK\IBK_DRFN\ProjSrc\SrcDrfn\Chart\ExControl\Include\GirdLoadHelper.h
; File D:\git\src\IBK\IBK_DRFN\ProjSrc\SrcDrfn\Chart\ExControl\ExGridCtrl.cpp
;	COMDAT ?SetTrackFocusCell@CExGridCtrl@@QAEXH@Z
_TEXT	SEGMENT
_bTrack$ = 8						; size = 4
?SetTrackFocusCell@CExGridCtrl@@QAEXH@Z PROC		; CExGridCtrl::SetTrackFocusCell, COMDAT
; _this$ = ecx

; 536  : {

  00000	55		 push	 ebp
  00001	8b ec		 mov	 ebp, esp

; 537  : 	m_pLoader->SetTrackFocusCell(bTrack);

  00003	8b 81 80 00 00
	00		 mov	 eax, DWORD PTR [ecx+128]
; File D:\git\src\IBK\IBK_DRFN\ProjSrc\SrcDrfn\Chart\ExControl\Include\GirdLoadHelper.h

; 2132 : 		if(!m_hLib)

  00009	83 78 04 00	 cmp	 DWORD PTR [eax+4], 0
  0000d	74 11		 je	 SHORT $LN3@SetTrackFo

; 2133 : 			return;
; 2134 : 
; 2135 : 		pSetTrackFocusCell(m_lpPointer, bTrack);

  0000f	ff 75 08	 push	 DWORD PTR _bTrack$[ebp]
  00012	ff b0 0c 01 00
	00		 push	 DWORD PTR [eax+268]
  00018	8b 80 cc 02 00
	00		 mov	 eax, DWORD PTR [eax+716]
  0001e	ff d0		 call	 eax
$LN3@SetTrackFo:
; File D:\git\src\IBK\IBK_DRFN\ProjSrc\SrcDrfn\Chart\ExControl\ExGridCtrl.cpp

; 538  : }

  00020	5d		 pop	 ebp
  00021	c2 04 00	 ret	 4
?SetTrackFocusCell@CExGridCtrl@@QAEXH@Z ENDP		; CExGridCtrl::SetTrackFocusCell
_TEXT	ENDS
; Function compile flags: /Ogtp
; File D:\git\src\IBK\IBK_DRFN\ProjSrc\SrcDrfn\Chart\ExControl\ExGridCtrl.cpp
; File D:\git\src\IBK\IBK_DRFN\ProjSrc\SrcDrfn\Chart\ExControl\Include\GirdLoadHelper.h
; File D:\git\src\IBK\IBK_DRFN\ProjSrc\SrcDrfn\Chart\ExControl\ExGridCtrl.cpp
; File D:\git\src\IBK\IBK_DRFN\ProjSrc\SrcDrfn\Chart\ExControl\Include\GirdLoadHelper.h
; File D:\git\src\IBK\IBK_DRFN\ProjSrc\SrcDrfn\Chart\ExControl\ExGridCtrl.cpp
;	COMDAT ?GetSortAscending@CExGridCtrl@@QAEHXZ
_TEXT	SEGMENT
?GetSortAscending@CExGridCtrl@@QAEHXZ PROC		; CExGridCtrl::GetSortAscending, COMDAT
; _this$ = ecx

; 532  : 	return m_pLoader->GetSortAscending();

  00000	8b 81 80 00 00
	00		 mov	 eax, DWORD PTR [ecx+128]
; File D:\git\src\IBK\IBK_DRFN\ProjSrc\SrcDrfn\Chart\ExControl\Include\GirdLoadHelper.h

; 2124 : 		if(!m_hLib)

  00006	83 78 04 00	 cmp	 DWORD PTR [eax+4], 0
  0000a	75 06		 jne	 SHORT $LN4@GetSortAsc
; File D:\git\src\IBK\IBK_DRFN\ProjSrc\SrcDrfn\Chart\ExControl\ExGridCtrl.cpp

; 532  : 	return m_pLoader->GetSortAscending();

  0000c	b8 01 00 00 00	 mov	 eax, 1

; 533  : }

  00011	c3		 ret	 0
$LN4@GetSortAsc:
; File D:\git\src\IBK\IBK_DRFN\ProjSrc\SrcDrfn\Chart\ExControl\Include\GirdLoadHelper.h

; 2127 : 		return pGetSortAscending(m_lpPointer);

  00012	ff b0 0c 01 00
	00		 push	 DWORD PTR [eax+268]
  00018	8b 80 c8 02 00
	00		 mov	 eax, DWORD PTR [eax+712]
  0001e	ff d0		 call	 eax
; File D:\git\src\IBK\IBK_DRFN\ProjSrc\SrcDrfn\Chart\ExControl\ExGridCtrl.cpp

; 533  : }

  00020	c3		 ret	 0
?GetSortAscending@CExGridCtrl@@QAEHXZ ENDP		; CExGridCtrl::GetSortAscending
_TEXT	ENDS
; Function compile flags: /Ogtp
; File D:\git\src\IBK\IBK_DRFN\ProjSrc\SrcDrfn\Chart\ExControl\ExGridCtrl.cpp
; File D:\git\src\IBK\IBK_DRFN\ProjSrc\SrcDrfn\Chart\ExControl\Include\GirdLoadHelper.h
; File D:\git\src\IBK\IBK_DRFN\ProjSrc\SrcDrfn\Chart\ExControl\ExGridCtrl.cpp
;	COMDAT ?SetSortAscending@CExGridCtrl@@QAEXH@Z
_TEXT	SEGMENT
_bAscending$ = 8					; size = 4
?SetSortAscending@CExGridCtrl@@QAEXH@Z PROC		; CExGridCtrl::SetSortAscending, COMDAT
; _this$ = ecx

; 526  : {

  00000	55		 push	 ebp
  00001	8b ec		 mov	 ebp, esp

; 527  : 	m_pLoader->SetSortAscending(bAscending);

  00003	8b 81 80 00 00
	00		 mov	 eax, DWORD PTR [ecx+128]
; File D:\git\src\IBK\IBK_DRFN\ProjSrc\SrcDrfn\Chart\ExControl\Include\GirdLoadHelper.h

; 2116 : 		if(!m_hLib)

  00009	83 78 04 00	 cmp	 DWORD PTR [eax+4], 0
  0000d	74 11		 je	 SHORT $LN3@SetSortAsc

; 2117 : 			return;
; 2118 : 
; 2119 : 		pSetSortAscending(m_lpPointer, bAscending);

  0000f	ff 75 08	 push	 DWORD PTR _bAscending$[ebp]
  00012	ff b0 0c 01 00
	00		 push	 DWORD PTR [eax+268]
  00018	8b 80 c4 02 00
	00		 mov	 eax, DWORD PTR [eax+708]
  0001e	ff d0		 call	 eax
$LN3@SetSortAsc:
; File D:\git\src\IBK\IBK_DRFN\ProjSrc\SrcDrfn\Chart\ExControl\ExGridCtrl.cpp

; 528  : }

  00020	5d		 pop	 ebp
  00021	c2 04 00	 ret	 4
?SetSortAscending@CExGridCtrl@@QAEXH@Z ENDP		; CExGridCtrl::SetSortAscending
_TEXT	ENDS
; Function compile flags: /Ogtp
; File D:\git\src\IBK\IBK_DRFN\ProjSrc\SrcDrfn\Chart\ExControl\ExGridCtrl.cpp
; File D:\git\src\IBK\IBK_DRFN\ProjSrc\SrcDrfn\Chart\ExControl\Include\GirdLoadHelper.h
; File D:\git\src\IBK\IBK_DRFN\ProjSrc\SrcDrfn\Chart\ExControl\ExGridCtrl.cpp
; File D:\git\src\IBK\IBK_DRFN\ProjSrc\SrcDrfn\Chart\ExControl\Include\GirdLoadHelper.h
; File D:\git\src\IBK\IBK_DRFN\ProjSrc\SrcDrfn\Chart\ExControl\ExGridCtrl.cpp
;	COMDAT ?GetSortColumn@CExGridCtrl@@QAEHXZ
_TEXT	SEGMENT
?GetSortColumn@CExGridCtrl@@QAEHXZ PROC			; CExGridCtrl::GetSortColumn, COMDAT
; _this$ = ecx

; 522  : 	return m_pLoader->GetSortColumn();

  00000	8b 81 80 00 00
	00		 mov	 eax, DWORD PTR [ecx+128]
; File D:\git\src\IBK\IBK_DRFN\ProjSrc\SrcDrfn\Chart\ExControl\Include\GirdLoadHelper.h

; 2108 : 		if(!m_hLib)

  00006	83 78 04 00	 cmp	 DWORD PTR [eax+4], 0
  0000a	75 04		 jne	 SHORT $LN4@GetSortCol
; File D:\git\src\IBK\IBK_DRFN\ProjSrc\SrcDrfn\Chart\ExControl\ExGridCtrl.cpp

; 522  : 	return m_pLoader->GetSortColumn();

  0000c	83 c8 ff	 or	 eax, -1

; 523  : }

  0000f	c3		 ret	 0
$LN4@GetSortCol:
; File D:\git\src\IBK\IBK_DRFN\ProjSrc\SrcDrfn\Chart\ExControl\Include\GirdLoadHelper.h

; 2111 : 		return pGetSortColumn(m_lpPointer);

  00010	ff b0 0c 01 00
	00		 push	 DWORD PTR [eax+268]
  00016	8b 80 c0 02 00
	00		 mov	 eax, DWORD PTR [eax+704]
  0001c	ff d0		 call	 eax
; File D:\git\src\IBK\IBK_DRFN\ProjSrc\SrcDrfn\Chart\ExControl\ExGridCtrl.cpp

; 523  : }

  0001e	c3		 ret	 0
?GetSortColumn@CExGridCtrl@@QAEHXZ ENDP			; CExGridCtrl::GetSortColumn
_TEXT	ENDS
; Function compile flags: /Ogtp
; File D:\git\src\IBK\IBK_DRFN\ProjSrc\SrcDrfn\Chart\ExControl\ExGridCtrl.cpp
; File D:\git\src\IBK\IBK_DRFN\ProjSrc\SrcDrfn\Chart\ExControl\Include\GirdLoadHelper.h
; File D:\git\src\IBK\IBK_DRFN\ProjSrc\SrcDrfn\Chart\ExControl\ExGridCtrl.cpp
;	COMDAT ?SetSortColumn@CExGridCtrl@@QAEXH@Z
_TEXT	SEGMENT
_nCol$ = 8						; size = 4
?SetSortColumn@CExGridCtrl@@QAEXH@Z PROC		; CExGridCtrl::SetSortColumn, COMDAT
; _this$ = ecx

; 1528 : {

  00000	55		 push	 ebp
  00001	8b ec		 mov	 ebp, esp

; 1529 : 	m_pLoader->SetSortColumn(nCol);

  00003	8b 81 80 00 00
	00		 mov	 eax, DWORD PTR [ecx+128]
; File D:\git\src\IBK\IBK_DRFN\ProjSrc\SrcDrfn\Chart\ExControl\Include\GirdLoadHelper.h

; 2100 : 		if(!m_hLib)

  00009	83 78 04 00	 cmp	 DWORD PTR [eax+4], 0
  0000d	74 11		 je	 SHORT $LN3@SetSortCol

; 2101 : 			return;
; 2102 : 
; 2103 : 		pSetSortColumn(m_lpPointer, nCol);

  0000f	ff 75 08	 push	 DWORD PTR _nCol$[ebp]
  00012	ff b0 0c 01 00
	00		 push	 DWORD PTR [eax+268]
  00018	8b 80 bc 02 00
	00		 mov	 eax, DWORD PTR [eax+700]
  0001e	ff d0		 call	 eax
$LN3@SetSortCol:
; File D:\git\src\IBK\IBK_DRFN\ProjSrc\SrcDrfn\Chart\ExControl\ExGridCtrl.cpp

; 1530 : }

  00020	5d		 pop	 ebp
  00021	c2 04 00	 ret	 4
?SetSortColumn@CExGridCtrl@@QAEXH@Z ENDP		; CExGridCtrl::SetSortColumn
_TEXT	ENDS
; Function compile flags: /Ogtp
; File D:\git\src\IBK\IBK_DRFN\ProjSrc\SrcDrfn\Chart\ExControl\ExGridCtrl.cpp
; File D:\git\src\IBK\IBK_DRFN\ProjSrc\SrcDrfn\Chart\ExControl\Include\GirdLoadHelper.h
; File D:\git\src\IBK\IBK_DRFN\ProjSrc\SrcDrfn\Chart\ExControl\ExGridCtrl.cpp
; File D:\git\src\IBK\IBK_DRFN\ProjSrc\SrcDrfn\Chart\ExControl\Include\GirdLoadHelper.h
; File D:\git\src\IBK\IBK_DRFN\ProjSrc\SrcDrfn\Chart\ExControl\ExGridCtrl.cpp
;	COMDAT ?GetTitleTips@CExGridCtrl@@QAEHXZ
_TEXT	SEGMENT
?GetTitleTips@CExGridCtrl@@QAEHXZ PROC			; CExGridCtrl::GetTitleTips, COMDAT
; _this$ = ecx

; 517  : 	return m_pLoader->GetTitleTips();

  00000	8b 81 80 00 00
	00		 mov	 eax, DWORD PTR [ecx+128]
; File D:\git\src\IBK\IBK_DRFN\ProjSrc\SrcDrfn\Chart\ExControl\Include\GirdLoadHelper.h

; 2092 : 		if(!m_hLib)

  00006	83 78 04 00	 cmp	 DWORD PTR [eax+4], 0
  0000a	75 03		 jne	 SHORT $LN4@GetTitleTi
; File D:\git\src\IBK\IBK_DRFN\ProjSrc\SrcDrfn\Chart\ExControl\ExGridCtrl.cpp

; 517  : 	return m_pLoader->GetTitleTips();

  0000c	33 c0		 xor	 eax, eax

; 518  : }

  0000e	c3		 ret	 0
$LN4@GetTitleTi:
; File D:\git\src\IBK\IBK_DRFN\ProjSrc\SrcDrfn\Chart\ExControl\Include\GirdLoadHelper.h

; 2095 : 		return pGetTitleTips(m_lpPointer);

  0000f	ff b0 0c 01 00
	00		 push	 DWORD PTR [eax+268]
  00015	8b 80 b8 02 00
	00		 mov	 eax, DWORD PTR [eax+696]
  0001b	ff d0		 call	 eax
; File D:\git\src\IBK\IBK_DRFN\ProjSrc\SrcDrfn\Chart\ExControl\ExGridCtrl.cpp

; 518  : }

  0001d	c3		 ret	 0
?GetTitleTips@CExGridCtrl@@QAEHXZ ENDP			; CExGridCtrl::GetTitleTips
_TEXT	ENDS
; Function compile flags: /Ogtp
; File D:\git\src\IBK\IBK_DRFN\ProjSrc\SrcDrfn\Chart\ExControl\ExGridCtrl.cpp
; File D:\git\src\IBK\IBK_DRFN\ProjSrc\SrcDrfn\Chart\ExControl\Include\GirdLoadHelper.h
; File D:\git\src\IBK\IBK_DRFN\ProjSrc\SrcDrfn\Chart\ExControl\ExGridCtrl.cpp
;	COMDAT ?EnableTitleTips@CExGridCtrl@@QAEXH@Z
_TEXT	SEGMENT
_bEnable$ = 8						; size = 4
?EnableTitleTips@CExGridCtrl@@QAEXH@Z PROC		; CExGridCtrl::EnableTitleTips, COMDAT
; _this$ = ecx

; 511  : {

  00000	55		 push	 ebp
  00001	8b ec		 mov	 ebp, esp

; 512  : 	m_pLoader->EnableTitleTips(bEnable);

  00003	8b 81 80 00 00
	00		 mov	 eax, DWORD PTR [ecx+128]
; File D:\git\src\IBK\IBK_DRFN\ProjSrc\SrcDrfn\Chart\ExControl\Include\GirdLoadHelper.h

; 2084 : 		if(!m_hLib)

  00009	83 78 04 00	 cmp	 DWORD PTR [eax+4], 0
  0000d	74 11		 je	 SHORT $LN3@EnableTitl

; 2085 : 			return;
; 2086 : 
; 2087 : 		pEnableTitleTips(m_lpPointer, bEnable);

  0000f	ff 75 08	 push	 DWORD PTR _bEnable$[ebp]
  00012	ff b0 0c 01 00
	00		 push	 DWORD PTR [eax+268]
  00018	8b 80 b4 02 00
	00		 mov	 eax, DWORD PTR [eax+692]
  0001e	ff d0		 call	 eax
$LN3@EnableTitl:
; File D:\git\src\IBK\IBK_DRFN\ProjSrc\SrcDrfn\Chart\ExControl\ExGridCtrl.cpp

; 513  : }

  00020	5d		 pop	 ebp
  00021	c2 04 00	 ret	 4
?EnableTitleTips@CExGridCtrl@@QAEXH@Z ENDP		; CExGridCtrl::EnableTitleTips
_TEXT	ENDS
; Function compile flags: /Ogtp
; File D:\git\src\IBK\IBK_DRFN\ProjSrc\SrcDrfn\Chart\ExControl\ExGridCtrl.cpp
; File D:\git\src\IBK\IBK_DRFN\ProjSrc\SrcDrfn\Chart\ExControl\Include\GirdLoadHelper.h
; File D:\git\src\IBK\IBK_DRFN\ProjSrc\SrcDrfn\Chart\ExControl\ExGridCtrl.cpp
; File D:\git\src\IBK\IBK_DRFN\ProjSrc\SrcDrfn\Chart\ExControl\Include\GirdLoadHelper.h
; File D:\git\src\IBK\IBK_DRFN\ProjSrc\SrcDrfn\Chart\ExControl\ExGridCtrl.cpp
;	COMDAT ?GetDoubleBuffering@CExGridCtrl@@QAEHXZ
_TEXT	SEGMENT
?GetDoubleBuffering@CExGridCtrl@@QAEHXZ PROC		; CExGridCtrl::GetDoubleBuffering, COMDAT
; _this$ = ecx

; 507  : 	return m_pLoader->GetDoubleBuffering();

  00000	8b 81 80 00 00
	00		 mov	 eax, DWORD PTR [ecx+128]
; File D:\git\src\IBK\IBK_DRFN\ProjSrc\SrcDrfn\Chart\ExControl\Include\GirdLoadHelper.h

; 2076 : 		if(!m_hLib)

  00006	83 78 04 00	 cmp	 DWORD PTR [eax+4], 0
  0000a	75 03		 jne	 SHORT $LN4@GetDoubleB
; File D:\git\src\IBK\IBK_DRFN\ProjSrc\SrcDrfn\Chart\ExControl\ExGridCtrl.cpp

; 507  : 	return m_pLoader->GetDoubleBuffering();

  0000c	33 c0		 xor	 eax, eax

; 508  : }

  0000e	c3		 ret	 0
$LN4@GetDoubleB:
; File D:\git\src\IBK\IBK_DRFN\ProjSrc\SrcDrfn\Chart\ExControl\Include\GirdLoadHelper.h

; 2079 : 		return pGetDoubleBuffering(m_lpPointer);

  0000f	ff b0 0c 01 00
	00		 push	 DWORD PTR [eax+268]
  00015	8b 80 b0 02 00
	00		 mov	 eax, DWORD PTR [eax+688]
  0001b	ff d0		 call	 eax
; File D:\git\src\IBK\IBK_DRFN\ProjSrc\SrcDrfn\Chart\ExControl\ExGridCtrl.cpp

; 508  : }

  0001d	c3		 ret	 0
?GetDoubleBuffering@CExGridCtrl@@QAEHXZ ENDP		; CExGridCtrl::GetDoubleBuffering
_TEXT	ENDS
; Function compile flags: /Ogtp
; File D:\git\src\IBK\IBK_DRFN\ProjSrc\SrcDrfn\Chart\ExControl\ExGridCtrl.cpp
; File D:\git\src\IBK\IBK_DRFN\ProjSrc\SrcDrfn\Chart\ExControl\Include\GirdLoadHelper.h
; File D:\git\src\IBK\IBK_DRFN\ProjSrc\SrcDrfn\Chart\ExControl\ExGridCtrl.cpp
;	COMDAT ?SetDoubleBuffering@CExGridCtrl@@QAEXH@Z
_TEXT	SEGMENT
_bBuffer$ = 8						; size = 4
?SetDoubleBuffering@CExGridCtrl@@QAEXH@Z PROC		; CExGridCtrl::SetDoubleBuffering, COMDAT
; _this$ = ecx

; 501  : {

  00000	55		 push	 ebp
  00001	8b ec		 mov	 ebp, esp

; 502  : 	m_pLoader->SetDoubleBuffering(bBuffer);

  00003	8b 81 80 00 00
	00		 mov	 eax, DWORD PTR [ecx+128]
; File D:\git\src\IBK\IBK_DRFN\ProjSrc\SrcDrfn\Chart\ExControl\Include\GirdLoadHelper.h

; 2068 : 		if(!m_hLib)

  00009	83 78 04 00	 cmp	 DWORD PTR [eax+4], 0
  0000d	74 11		 je	 SHORT $LN3@SetDoubleB

; 2069 : 			return;
; 2070 : 
; 2071 : 		pSetDoubleBuffering(m_lpPointer, bBuffer);

  0000f	ff 75 08	 push	 DWORD PTR _bBuffer$[ebp]
  00012	ff b0 0c 01 00
	00		 push	 DWORD PTR [eax+268]
  00018	8b 80 ac 02 00
	00		 mov	 eax, DWORD PTR [eax+684]
  0001e	ff d0		 call	 eax
$LN3@SetDoubleB:
; File D:\git\src\IBK\IBK_DRFN\ProjSrc\SrcDrfn\Chart\ExControl\ExGridCtrl.cpp

; 503  : }

  00020	5d		 pop	 ebp
  00021	c2 04 00	 ret	 4
?SetDoubleBuffering@CExGridCtrl@@QAEXH@Z ENDP		; CExGridCtrl::SetDoubleBuffering
_TEXT	ENDS
; Function compile flags: /Ogtp
; File D:\git\src\IBK\IBK_DRFN\ProjSrc\SrcDrfn\Chart\ExControl\ExGridCtrl.cpp
; File D:\git\src\IBK\IBK_DRFN\ProjSrc\SrcDrfn\Chart\ExControl\Include\GirdLoadHelper.h
; File D:\git\src\IBK\IBK_DRFN\ProjSrc\SrcDrfn\Chart\ExControl\ExGridCtrl.cpp
; File D:\git\src\IBK\IBK_DRFN\ProjSrc\SrcDrfn\Chart\ExControl\Include\GirdLoadHelper.h
; File D:\git\src\IBK\IBK_DRFN\ProjSrc\SrcDrfn\Chart\ExControl\ExGridCtrl.cpp
;	COMDAT ?GetHandleTabKey@CExGridCtrl@@QAEHXZ
_TEXT	SEGMENT
?GetHandleTabKey@CExGridCtrl@@QAEHXZ PROC		; CExGridCtrl::GetHandleTabKey, COMDAT
; _this$ = ecx

; 497  : 	return m_pLoader->GetHandleTabKey();

  00000	8b 81 80 00 00
	00		 mov	 eax, DWORD PTR [ecx+128]
; File D:\git\src\IBK\IBK_DRFN\ProjSrc\SrcDrfn\Chart\ExControl\Include\GirdLoadHelper.h

; 2060 : 		if(!m_hLib)

  00006	83 78 04 00	 cmp	 DWORD PTR [eax+4], 0
  0000a	75 03		 jne	 SHORT $LN4@GetHandleT
; File D:\git\src\IBK\IBK_DRFN\ProjSrc\SrcDrfn\Chart\ExControl\ExGridCtrl.cpp

; 497  : 	return m_pLoader->GetHandleTabKey();

  0000c	33 c0		 xor	 eax, eax

; 498  : }

  0000e	c3		 ret	 0
$LN4@GetHandleT:
; File D:\git\src\IBK\IBK_DRFN\ProjSrc\SrcDrfn\Chart\ExControl\Include\GirdLoadHelper.h

; 2063 : 		return pGetHandleTabKey(m_lpPointer);

  0000f	ff b0 0c 01 00
	00		 push	 DWORD PTR [eax+268]
  00015	8b 80 a8 02 00
	00		 mov	 eax, DWORD PTR [eax+680]
  0001b	ff d0		 call	 eax
; File D:\git\src\IBK\IBK_DRFN\ProjSrc\SrcDrfn\Chart\ExControl\ExGridCtrl.cpp

; 498  : }

  0001d	c3		 ret	 0
?GetHandleTabKey@CExGridCtrl@@QAEHXZ ENDP		; CExGridCtrl::GetHandleTabKey
_TEXT	ENDS
; Function compile flags: /Ogtp
; File D:\git\src\IBK\IBK_DRFN\ProjSrc\SrcDrfn\Chart\ExControl\ExGridCtrl.cpp
; File D:\git\src\IBK\IBK_DRFN\ProjSrc\SrcDrfn\Chart\ExControl\Include\GirdLoadHelper.h
; File D:\git\src\IBK\IBK_DRFN\ProjSrc\SrcDrfn\Chart\ExControl\ExGridCtrl.cpp
;	COMDAT ?SetHandleTabKey@CExGridCtrl@@QAEXH@Z
_TEXT	SEGMENT
_bHandleTab$ = 8					; size = 4
?SetHandleTabKey@CExGridCtrl@@QAEXH@Z PROC		; CExGridCtrl::SetHandleTabKey, COMDAT
; _this$ = ecx

; 491  : {

  00000	55		 push	 ebp
  00001	8b ec		 mov	 ebp, esp

; 492  : 	m_pLoader->SetHandleTabKey(bHandleTab);

  00003	8b 81 80 00 00
	00		 mov	 eax, DWORD PTR [ecx+128]
; File D:\git\src\IBK\IBK_DRFN\ProjSrc\SrcDrfn\Chart\ExControl\Include\GirdLoadHelper.h

; 2052 : 		if(!m_hLib)

  00009	83 78 04 00	 cmp	 DWORD PTR [eax+4], 0
  0000d	74 11		 je	 SHORT $LN3@SetHandleT

; 2053 : 			return;
; 2054 : 
; 2055 : 		pSetHandleTabKey(m_lpPointer, bHandleTab);

  0000f	ff 75 08	 push	 DWORD PTR _bHandleTab$[ebp]
  00012	ff b0 0c 01 00
	00		 push	 DWORD PTR [eax+268]
  00018	8b 80 a4 02 00
	00		 mov	 eax, DWORD PTR [eax+676]
  0001e	ff d0		 call	 eax
$LN3@SetHandleT:
; File D:\git\src\IBK\IBK_DRFN\ProjSrc\SrcDrfn\Chart\ExControl\ExGridCtrl.cpp

; 493  : }

  00020	5d		 pop	 ebp
  00021	c2 04 00	 ret	 4
?SetHandleTabKey@CExGridCtrl@@QAEXH@Z ENDP		; CExGridCtrl::SetHandleTabKey
_TEXT	ENDS
; Function compile flags: /Ogtp
; File D:\git\src\IBK\IBK_DRFN\ProjSrc\SrcDrfn\Chart\ExControl\ExGridCtrl.cpp
; File D:\git\src\IBK\IBK_DRFN\ProjSrc\SrcDrfn\Chart\ExControl\Include\GirdLoadHelper.h
; File D:\git\src\IBK\IBK_DRFN\ProjSrc\SrcDrfn\Chart\ExControl\ExGridCtrl.cpp
; File D:\git\src\IBK\IBK_DRFN\ProjSrc\SrcDrfn\Chart\ExControl\Include\GirdLoadHelper.h
; File D:\git\src\IBK\IBK_DRFN\ProjSrc\SrcDrfn\Chart\ExControl\ExGridCtrl.cpp
;	COMDAT ?GetHeaderSort@CExGridCtrl@@QAEHXZ
_TEXT	SEGMENT
?GetHeaderSort@CExGridCtrl@@QAEHXZ PROC			; CExGridCtrl::GetHeaderSort, COMDAT
; _this$ = ecx

; 487  : 	return m_pLoader->GetHeaderSort();

  00000	8b 81 80 00 00
	00		 mov	 eax, DWORD PTR [ecx+128]
; File D:\git\src\IBK\IBK_DRFN\ProjSrc\SrcDrfn\Chart\ExControl\Include\GirdLoadHelper.h

; 2044 : 		if(!m_hLib)

  00006	83 78 04 00	 cmp	 DWORD PTR [eax+4], 0
  0000a	75 03		 jne	 SHORT $LN4@GetHeaderS
; File D:\git\src\IBK\IBK_DRFN\ProjSrc\SrcDrfn\Chart\ExControl\ExGridCtrl.cpp

; 487  : 	return m_pLoader->GetHeaderSort();

  0000c	33 c0		 xor	 eax, eax

; 488  : }

  0000e	c3		 ret	 0
$LN4@GetHeaderS:
; File D:\git\src\IBK\IBK_DRFN\ProjSrc\SrcDrfn\Chart\ExControl\Include\GirdLoadHelper.h

; 2047 : 		return pGetHeaderSort(m_lpPointer);

  0000f	ff b0 0c 01 00
	00		 push	 DWORD PTR [eax+268]
  00015	8b 80 a0 02 00
	00		 mov	 eax, DWORD PTR [eax+672]
  0001b	ff d0		 call	 eax
; File D:\git\src\IBK\IBK_DRFN\ProjSrc\SrcDrfn\Chart\ExControl\ExGridCtrl.cpp

; 488  : }

  0001d	c3		 ret	 0
?GetHeaderSort@CExGridCtrl@@QAEHXZ ENDP			; CExGridCtrl::GetHeaderSort
_TEXT	ENDS
; Function compile flags: /Ogtp
; File D:\git\src\IBK\IBK_DRFN\ProjSrc\SrcDrfn\Chart\ExControl\ExGridCtrl.cpp
; File D:\git\src\IBK\IBK_DRFN\ProjSrc\SrcDrfn\Chart\ExControl\Include\GirdLoadHelper.h
; File D:\git\src\IBK\IBK_DRFN\ProjSrc\SrcDrfn\Chart\ExControl\ExGridCtrl.cpp
;	COMDAT ?SetHeaderSort@CExGridCtrl@@QAEXH@Z
_TEXT	SEGMENT
_bSortOnClick$ = 8					; size = 4
?SetHeaderSort@CExGridCtrl@@QAEXH@Z PROC		; CExGridCtrl::SetHeaderSort, COMDAT
; _this$ = ecx

; 481  : {

  00000	55		 push	 ebp
  00001	8b ec		 mov	 ebp, esp

; 482  : 	m_pLoader->SetHeaderSort(bSortOnClick);

  00003	8b 81 80 00 00
	00		 mov	 eax, DWORD PTR [ecx+128]
; File D:\git\src\IBK\IBK_DRFN\ProjSrc\SrcDrfn\Chart\ExControl\Include\GirdLoadHelper.h

; 2036 : 		if(!m_hLib)

  00009	83 78 04 00	 cmp	 DWORD PTR [eax+4], 0
  0000d	74 11		 je	 SHORT $LN3@SetHeaderS

; 2037 : 			return;
; 2038 : 
; 2039 : 		pSetHeaderSort(m_lpPointer, bSortOnClick);

  0000f	ff 75 08	 push	 DWORD PTR _bSortOnClick$[ebp]
  00012	ff b0 0c 01 00
	00		 push	 DWORD PTR [eax+268]
  00018	8b 80 9c 02 00
	00		 mov	 eax, DWORD PTR [eax+668]
  0001e	ff d0		 call	 eax
$LN3@SetHeaderS:
; File D:\git\src\IBK\IBK_DRFN\ProjSrc\SrcDrfn\Chart\ExControl\ExGridCtrl.cpp

; 483  : }

  00020	5d		 pop	 ebp
  00021	c2 04 00	 ret	 4
?SetHeaderSort@CExGridCtrl@@QAEXH@Z ENDP		; CExGridCtrl::SetHeaderSort
_TEXT	ENDS
; Function compile flags: /Ogtp
; File D:\git\src\IBK\IBK_DRFN\ProjSrc\SrcDrfn\Chart\ExControl\ExGridCtrl.cpp
; File D:\git\src\IBK\IBK_DRFN\ProjSrc\SrcDrfn\Chart\ExControl\Include\GirdLoadHelper.h
; File D:\git\src\IBK\IBK_DRFN\ProjSrc\SrcDrfn\Chart\ExControl\ExGridCtrl.cpp
; File D:\git\src\IBK\IBK_DRFN\ProjSrc\SrcDrfn\Chart\ExControl\Include\GirdLoadHelper.h
; File D:\git\src\IBK\IBK_DRFN\ProjSrc\SrcDrfn\Chart\ExControl\ExGridCtrl.cpp
;	COMDAT ?GetColumnResize@CExGridCtrl@@QAEHXZ
_TEXT	SEGMENT
?GetColumnResize@CExGridCtrl@@QAEHXZ PROC		; CExGridCtrl::GetColumnResize, COMDAT
; _this$ = ecx

; 477  : 	return m_pLoader->GetColumnResize();

  00000	8b 81 80 00 00
	00		 mov	 eax, DWORD PTR [ecx+128]
; File D:\git\src\IBK\IBK_DRFN\ProjSrc\SrcDrfn\Chart\ExControl\Include\GirdLoadHelper.h

; 2028 : 		if(!m_hLib)

  00006	83 78 04 00	 cmp	 DWORD PTR [eax+4], 0
  0000a	75 03		 jne	 SHORT $LN4@GetColumnR
; File D:\git\src\IBK\IBK_DRFN\ProjSrc\SrcDrfn\Chart\ExControl\ExGridCtrl.cpp

; 477  : 	return m_pLoader->GetColumnResize();

  0000c	33 c0		 xor	 eax, eax

; 478  : }

  0000e	c3		 ret	 0
$LN4@GetColumnR:
; File D:\git\src\IBK\IBK_DRFN\ProjSrc\SrcDrfn\Chart\ExControl\Include\GirdLoadHelper.h

; 2031 : 		return pGetColumnResize(m_lpPointer);

  0000f	ff b0 0c 01 00
	00		 push	 DWORD PTR [eax+268]
  00015	8b 80 98 02 00
	00		 mov	 eax, DWORD PTR [eax+664]
  0001b	ff d0		 call	 eax
; File D:\git\src\IBK\IBK_DRFN\ProjSrc\SrcDrfn\Chart\ExControl\ExGridCtrl.cpp

; 478  : }

  0001d	c3		 ret	 0
?GetColumnResize@CExGridCtrl@@QAEHXZ ENDP		; CExGridCtrl::GetColumnResize
_TEXT	ENDS
; Function compile flags: /Ogtp
; File D:\git\src\IBK\IBK_DRFN\ProjSrc\SrcDrfn\Chart\ExControl\ExGridCtrl.cpp
; File D:\git\src\IBK\IBK_DRFN\ProjSrc\SrcDrfn\Chart\ExControl\Include\GirdLoadHelper.h
; File D:\git\src\IBK\IBK_DRFN\ProjSrc\SrcDrfn\Chart\ExControl\ExGridCtrl.cpp
;	COMDAT ?SetColumnResize@CExGridCtrl@@QAEXH@Z
_TEXT	SEGMENT
_bResize$ = 8						; size = 4
?SetColumnResize@CExGridCtrl@@QAEXH@Z PROC		; CExGridCtrl::SetColumnResize, COMDAT
; _this$ = ecx

; 471  : {

  00000	55		 push	 ebp
  00001	8b ec		 mov	 ebp, esp

; 472  : 	m_pLoader->SetColumnResize(bResize);

  00003	8b 81 80 00 00
	00		 mov	 eax, DWORD PTR [ecx+128]
; File D:\git\src\IBK\IBK_DRFN\ProjSrc\SrcDrfn\Chart\ExControl\Include\GirdLoadHelper.h

; 2020 : 		if(!m_hLib)

  00009	83 78 04 00	 cmp	 DWORD PTR [eax+4], 0
  0000d	74 11		 je	 SHORT $LN3@SetColumnR

; 2021 : 			return;
; 2022 : 
; 2023 : 		pSetColumnResize(m_lpPointer, bResize);

  0000f	ff 75 08	 push	 DWORD PTR _bResize$[ebp]
  00012	ff b0 0c 01 00
	00		 push	 DWORD PTR [eax+268]
  00018	8b 80 94 02 00
	00		 mov	 eax, DWORD PTR [eax+660]
  0001e	ff d0		 call	 eax
$LN3@SetColumnR:
; File D:\git\src\IBK\IBK_DRFN\ProjSrc\SrcDrfn\Chart\ExControl\ExGridCtrl.cpp

; 473  : }

  00020	5d		 pop	 ebp
  00021	c2 04 00	 ret	 4
?SetColumnResize@CExGridCtrl@@QAEXH@Z ENDP		; CExGridCtrl::SetColumnResize
_TEXT	ENDS
; Function compile flags: /Ogtp
; File D:\git\src\IBK\IBK_DRFN\ProjSrc\SrcDrfn\Chart\ExControl\ExGridCtrl.cpp
; File D:\git\src\IBK\IBK_DRFN\ProjSrc\SrcDrfn\Chart\ExControl\Include\GirdLoadHelper.h
; File D:\git\src\IBK\IBK_DRFN\ProjSrc\SrcDrfn\Chart\ExControl\ExGridCtrl.cpp
; File D:\git\src\IBK\IBK_DRFN\ProjSrc\SrcDrfn\Chart\ExControl\Include\GirdLoadHelper.h
; File D:\git\src\IBK\IBK_DRFN\ProjSrc\SrcDrfn\Chart\ExControl\ExGridCtrl.cpp
;	COMDAT ?GetRowResize@CExGridCtrl@@QAEHXZ
_TEXT	SEGMENT
?GetRowResize@CExGridCtrl@@QAEHXZ PROC			; CExGridCtrl::GetRowResize, COMDAT
; _this$ = ecx

; 467  : 	return m_pLoader->GetRowResize();

  00000	8b 81 80 00 00
	00		 mov	 eax, DWORD PTR [ecx+128]
; File D:\git\src\IBK\IBK_DRFN\ProjSrc\SrcDrfn\Chart\ExControl\Include\GirdLoadHelper.h

; 2012 : 		if(!m_hLib)

  00006	83 78 04 00	 cmp	 DWORD PTR [eax+4], 0
  0000a	75 03		 jne	 SHORT $LN4@GetRowResi
; File D:\git\src\IBK\IBK_DRFN\ProjSrc\SrcDrfn\Chart\ExControl\ExGridCtrl.cpp

; 467  : 	return m_pLoader->GetRowResize();

  0000c	33 c0		 xor	 eax, eax

; 468  : }

  0000e	c3		 ret	 0
$LN4@GetRowResi:
; File D:\git\src\IBK\IBK_DRFN\ProjSrc\SrcDrfn\Chart\ExControl\Include\GirdLoadHelper.h

; 2015 : 		return pGetRowResize(m_lpPointer);

  0000f	ff b0 0c 01 00
	00		 push	 DWORD PTR [eax+268]
  00015	8b 80 90 02 00
	00		 mov	 eax, DWORD PTR [eax+656]
  0001b	ff d0		 call	 eax
; File D:\git\src\IBK\IBK_DRFN\ProjSrc\SrcDrfn\Chart\ExControl\ExGridCtrl.cpp

; 468  : }

  0001d	c3		 ret	 0
?GetRowResize@CExGridCtrl@@QAEHXZ ENDP			; CExGridCtrl::GetRowResize
_TEXT	ENDS
; Function compile flags: /Ogtp
; File D:\git\src\IBK\IBK_DRFN\ProjSrc\SrcDrfn\Chart\ExControl\ExGridCtrl.cpp
; File D:\git\src\IBK\IBK_DRFN\ProjSrc\SrcDrfn\Chart\ExControl\Include\GirdLoadHelper.h
; File D:\git\src\IBK\IBK_DRFN\ProjSrc\SrcDrfn\Chart\ExControl\ExGridCtrl.cpp
;	COMDAT ?SetRowResize@CExGridCtrl@@QAEXH@Z
_TEXT	SEGMENT
_bResize$ = 8						; size = 4
?SetRowResize@CExGridCtrl@@QAEXH@Z PROC			; CExGridCtrl::SetRowResize, COMDAT
; _this$ = ecx

; 461  : {

  00000	55		 push	 ebp
  00001	8b ec		 mov	 ebp, esp

; 462  : 	m_pLoader->SetRowResize(bResize);

  00003	8b 81 80 00 00
	00		 mov	 eax, DWORD PTR [ecx+128]
; File D:\git\src\IBK\IBK_DRFN\ProjSrc\SrcDrfn\Chart\ExControl\Include\GirdLoadHelper.h

; 2004 : 		if(!m_hLib)

  00009	83 78 04 00	 cmp	 DWORD PTR [eax+4], 0
  0000d	74 11		 je	 SHORT $LN3@SetRowResi

; 2005 : 			return;
; 2006 : 
; 2007 : 		pSetRowResize(m_lpPointer, bResize);

  0000f	ff 75 08	 push	 DWORD PTR _bResize$[ebp]
  00012	ff b0 0c 01 00
	00		 push	 DWORD PTR [eax+268]
  00018	8b 80 8c 02 00
	00		 mov	 eax, DWORD PTR [eax+652]
  0001e	ff d0		 call	 eax
$LN3@SetRowResi:
; File D:\git\src\IBK\IBK_DRFN\ProjSrc\SrcDrfn\Chart\ExControl\ExGridCtrl.cpp

; 463  : }

  00020	5d		 pop	 ebp
  00021	c2 04 00	 ret	 4
?SetRowResize@CExGridCtrl@@QAEXH@Z ENDP			; CExGridCtrl::SetRowResize
_TEXT	ENDS
; Function compile flags: /Ogtp
; File D:\git\src\IBK\IBK_DRFN\ProjSrc\SrcDrfn\Chart\ExControl\ExGridCtrl.cpp
; File D:\git\src\IBK\IBK_DRFN\ProjSrc\SrcDrfn\Chart\ExControl\Include\GirdLoadHelper.h
; File D:\git\src\IBK\IBK_DRFN\ProjSrc\SrcDrfn\Chart\ExControl\ExGridCtrl.cpp
; File D:\git\src\IBK\IBK_DRFN\ProjSrc\SrcDrfn\Chart\ExControl\Include\GirdLoadHelper.h
; File D:\git\src\IBK\IBK_DRFN\ProjSrc\SrcDrfn\Chart\ExControl\ExGridCtrl.cpp
;	COMDAT ?GetDragAndDrop@CExGridCtrl@@QAEHXZ
_TEXT	SEGMENT
?GetDragAndDrop@CExGridCtrl@@QAEHXZ PROC		; CExGridCtrl::GetDragAndDrop, COMDAT
; _this$ = ecx

; 457  : 	return m_pLoader->GetDragAndDrop();

  00000	8b 81 80 00 00
	00		 mov	 eax, DWORD PTR [ecx+128]
; File D:\git\src\IBK\IBK_DRFN\ProjSrc\SrcDrfn\Chart\ExControl\Include\GirdLoadHelper.h

; 1996 : 		if(!m_hLib)

  00006	83 78 04 00	 cmp	 DWORD PTR [eax+4], 0
  0000a	75 03		 jne	 SHORT $LN4@GetDragAnd
; File D:\git\src\IBK\IBK_DRFN\ProjSrc\SrcDrfn\Chart\ExControl\ExGridCtrl.cpp

; 457  : 	return m_pLoader->GetDragAndDrop();

  0000c	33 c0		 xor	 eax, eax

; 458  : }

  0000e	c3		 ret	 0
$LN4@GetDragAnd:
; File D:\git\src\IBK\IBK_DRFN\ProjSrc\SrcDrfn\Chart\ExControl\Include\GirdLoadHelper.h

; 1999 : 		return pGetDragAndDrop(m_lpPointer);

  0000f	ff b0 0c 01 00
	00		 push	 DWORD PTR [eax+268]
  00015	8b 80 88 02 00
	00		 mov	 eax, DWORD PTR [eax+648]
  0001b	ff d0		 call	 eax
; File D:\git\src\IBK\IBK_DRFN\ProjSrc\SrcDrfn\Chart\ExControl\ExGridCtrl.cpp

; 458  : }

  0001d	c3		 ret	 0
?GetDragAndDrop@CExGridCtrl@@QAEHXZ ENDP		; CExGridCtrl::GetDragAndDrop
_TEXT	ENDS
; Function compile flags: /Ogtp
; File D:\git\src\IBK\IBK_DRFN\ProjSrc\SrcDrfn\Chart\ExControl\ExGridCtrl.cpp
; File D:\git\src\IBK\IBK_DRFN\ProjSrc\SrcDrfn\Chart\ExControl\Include\GirdLoadHelper.h
; File D:\git\src\IBK\IBK_DRFN\ProjSrc\SrcDrfn\Chart\ExControl\ExGridCtrl.cpp
;	COMDAT ?EnableDragAndDrop@CExGridCtrl@@QAEXH@Z
_TEXT	SEGMENT
_bAllow$ = 8						; size = 4
?EnableDragAndDrop@CExGridCtrl@@QAEXH@Z PROC		; CExGridCtrl::EnableDragAndDrop, COMDAT
; _this$ = ecx

; 451  : {

  00000	55		 push	 ebp
  00001	8b ec		 mov	 ebp, esp

; 452  : 	m_pLoader->EnableDragAndDrop(bAllow);

  00003	8b 81 80 00 00
	00		 mov	 eax, DWORD PTR [ecx+128]
; File D:\git\src\IBK\IBK_DRFN\ProjSrc\SrcDrfn\Chart\ExControl\Include\GirdLoadHelper.h

; 1988 : 		if(!m_hLib)

  00009	83 78 04 00	 cmp	 DWORD PTR [eax+4], 0
  0000d	74 11		 je	 SHORT $LN3@EnableDrag

; 1989 : 			return;
; 1990 : 
; 1991 : 		pEnableDragAndDrop(m_lpPointer, bAllow);

  0000f	ff 75 08	 push	 DWORD PTR _bAllow$[ebp]
  00012	ff b0 0c 01 00
	00		 push	 DWORD PTR [eax+268]
  00018	8b 80 84 02 00
	00		 mov	 eax, DWORD PTR [eax+644]
  0001e	ff d0		 call	 eax
$LN3@EnableDrag:
; File D:\git\src\IBK\IBK_DRFN\ProjSrc\SrcDrfn\Chart\ExControl\ExGridCtrl.cpp

; 453  : }

  00020	5d		 pop	 ebp
  00021	c2 04 00	 ret	 4
?EnableDragAndDrop@CExGridCtrl@@QAEXH@Z ENDP		; CExGridCtrl::EnableDragAndDrop
_TEXT	ENDS
; Function compile flags: /Ogtp
; File D:\git\src\IBK\IBK_DRFN\ProjSrc\SrcDrfn\Chart\ExControl\ExGridCtrl.cpp
; File D:\git\src\IBK\IBK_DRFN\ProjSrc\SrcDrfn\Chart\ExControl\Include\GirdLoadHelper.h
; File D:\git\src\IBK\IBK_DRFN\ProjSrc\SrcDrfn\Chart\ExControl\ExGridCtrl.cpp
; File D:\git\src\IBK\IBK_DRFN\ProjSrc\SrcDrfn\Chart\ExControl\Include\GirdLoadHelper.h
; File D:\git\src\IBK\IBK_DRFN\ProjSrc\SrcDrfn\Chart\ExControl\ExGridCtrl.cpp
;	COMDAT ?GetFixedRowSelection@CExGridCtrl@@QAEHXZ
_TEXT	SEGMENT
?GetFixedRowSelection@CExGridCtrl@@QAEHXZ PROC		; CExGridCtrl::GetFixedRowSelection, COMDAT
; _this$ = ecx

; 447  : 	return m_pLoader->GetFixedRowSelection();

  00000	8b 81 80 00 00
	00		 mov	 eax, DWORD PTR [ecx+128]
; File D:\git\src\IBK\IBK_DRFN\ProjSrc\SrcDrfn\Chart\ExControl\Include\GirdLoadHelper.h

; 1980 : 		if(!m_hLib)

  00006	83 78 04 00	 cmp	 DWORD PTR [eax+4], 0
  0000a	75 03		 jne	 SHORT $LN4@GetFixedRo
; File D:\git\src\IBK\IBK_DRFN\ProjSrc\SrcDrfn\Chart\ExControl\ExGridCtrl.cpp

; 447  : 	return m_pLoader->GetFixedRowSelection();

  0000c	33 c0		 xor	 eax, eax

; 448  : }

  0000e	c3		 ret	 0
$LN4@GetFixedRo:
; File D:\git\src\IBK\IBK_DRFN\ProjSrc\SrcDrfn\Chart\ExControl\Include\GirdLoadHelper.h

; 1983 : 		return pGetFixedRowSelection(m_lpPointer);

  0000f	ff b0 0c 01 00
	00		 push	 DWORD PTR [eax+268]
  00015	8b 80 80 02 00
	00		 mov	 eax, DWORD PTR [eax+640]
  0001b	ff d0		 call	 eax
; File D:\git\src\IBK\IBK_DRFN\ProjSrc\SrcDrfn\Chart\ExControl\ExGridCtrl.cpp

; 448  : }

  0001d	c3		 ret	 0
?GetFixedRowSelection@CExGridCtrl@@QAEHXZ ENDP		; CExGridCtrl::GetFixedRowSelection
_TEXT	ENDS
; Function compile flags: /Ogtp
; File D:\git\src\IBK\IBK_DRFN\ProjSrc\SrcDrfn\Chart\ExControl\ExGridCtrl.cpp
; File D:\git\src\IBK\IBK_DRFN\ProjSrc\SrcDrfn\Chart\ExControl\Include\GirdLoadHelper.h
; File D:\git\src\IBK\IBK_DRFN\ProjSrc\SrcDrfn\Chart\ExControl\ExGridCtrl.cpp
;	COMDAT ?SetFixedRowSelection@CExGridCtrl@@QAEXH@Z
_TEXT	SEGMENT
_bSelect$ = 8						; size = 4
?SetFixedRowSelection@CExGridCtrl@@QAEXH@Z PROC		; CExGridCtrl::SetFixedRowSelection, COMDAT
; _this$ = ecx

; 441  : {

  00000	55		 push	 ebp
  00001	8b ec		 mov	 ebp, esp

; 442  : 	m_pLoader->SetFixedRowSelection(bSelect);

  00003	8b 81 80 00 00
	00		 mov	 eax, DWORD PTR [ecx+128]
; File D:\git\src\IBK\IBK_DRFN\ProjSrc\SrcDrfn\Chart\ExControl\Include\GirdLoadHelper.h

; 1972 : 		if(!m_hLib)

  00009	83 78 04 00	 cmp	 DWORD PTR [eax+4], 0
  0000d	74 11		 je	 SHORT $LN3@SetFixedRo

; 1973 : 			return;
; 1974 : 
; 1975 : 		pSetFixedRowSelection(m_lpPointer, bSelect);

  0000f	ff 75 08	 push	 DWORD PTR _bSelect$[ebp]
  00012	ff b0 0c 01 00
	00		 push	 DWORD PTR [eax+268]
  00018	8b 80 7c 02 00
	00		 mov	 eax, DWORD PTR [eax+636]
  0001e	ff d0		 call	 eax
$LN3@SetFixedRo:
; File D:\git\src\IBK\IBK_DRFN\ProjSrc\SrcDrfn\Chart\ExControl\ExGridCtrl.cpp

; 443  : }

  00020	5d		 pop	 ebp
  00021	c2 04 00	 ret	 4
?SetFixedRowSelection@CExGridCtrl@@QAEXH@Z ENDP		; CExGridCtrl::SetFixedRowSelection
_TEXT	ENDS
; Function compile flags: /Ogtp
; File D:\git\src\IBK\IBK_DRFN\ProjSrc\SrcDrfn\Chart\ExControl\ExGridCtrl.cpp
; File D:\git\src\IBK\IBK_DRFN\ProjSrc\SrcDrfn\Chart\ExControl\Include\GirdLoadHelper.h
; File D:\git\src\IBK\IBK_DRFN\ProjSrc\SrcDrfn\Chart\ExControl\ExGridCtrl.cpp
; File D:\git\src\IBK\IBK_DRFN\ProjSrc\SrcDrfn\Chart\ExControl\Include\GirdLoadHelper.h
; File D:\git\src\IBK\IBK_DRFN\ProjSrc\SrcDrfn\Chart\ExControl\ExGridCtrl.cpp
;	COMDAT ?GetFixedColumnSelection@CExGridCtrl@@QAEHXZ
_TEXT	SEGMENT
?GetFixedColumnSelection@CExGridCtrl@@QAEHXZ PROC	; CExGridCtrl::GetFixedColumnSelection, COMDAT
; _this$ = ecx

; 437  : 	return m_pLoader->GetFixedColumnSelection();

  00000	8b 81 80 00 00
	00		 mov	 eax, DWORD PTR [ecx+128]
; File D:\git\src\IBK\IBK_DRFN\ProjSrc\SrcDrfn\Chart\ExControl\Include\GirdLoadHelper.h

; 1964 : 		if(!m_hLib)

  00006	83 78 04 00	 cmp	 DWORD PTR [eax+4], 0
  0000a	75 03		 jne	 SHORT $LN4@GetFixedCo
; File D:\git\src\IBK\IBK_DRFN\ProjSrc\SrcDrfn\Chart\ExControl\ExGridCtrl.cpp

; 437  : 	return m_pLoader->GetFixedColumnSelection();

  0000c	33 c0		 xor	 eax, eax

; 438  : }

  0000e	c3		 ret	 0
$LN4@GetFixedCo:
; File D:\git\src\IBK\IBK_DRFN\ProjSrc\SrcDrfn\Chart\ExControl\Include\GirdLoadHelper.h

; 1967 : 		return pGetFixedColumnSelection(m_lpPointer);

  0000f	ff b0 0c 01 00
	00		 push	 DWORD PTR [eax+268]
  00015	8b 80 78 02 00
	00		 mov	 eax, DWORD PTR [eax+632]
  0001b	ff d0		 call	 eax
; File D:\git\src\IBK\IBK_DRFN\ProjSrc\SrcDrfn\Chart\ExControl\ExGridCtrl.cpp

; 438  : }

  0001d	c3		 ret	 0
?GetFixedColumnSelection@CExGridCtrl@@QAEHXZ ENDP	; CExGridCtrl::GetFixedColumnSelection
_TEXT	ENDS
; Function compile flags: /Ogtp
; File D:\git\src\IBK\IBK_DRFN\ProjSrc\SrcDrfn\Chart\ExControl\ExGridCtrl.cpp
; File D:\git\src\IBK\IBK_DRFN\ProjSrc\SrcDrfn\Chart\ExControl\Include\GirdLoadHelper.h
; File D:\git\src\IBK\IBK_DRFN\ProjSrc\SrcDrfn\Chart\ExControl\ExGridCtrl.cpp
;	COMDAT ?SetFixedColumnSelection@CExGridCtrl@@QAEXH@Z
_TEXT	SEGMENT
_bSelect$ = 8						; size = 4
?SetFixedColumnSelection@CExGridCtrl@@QAEXH@Z PROC	; CExGridCtrl::SetFixedColumnSelection, COMDAT
; _this$ = ecx

; 431  : {

  00000	55		 push	 ebp
  00001	8b ec		 mov	 ebp, esp

; 432  : 	m_pLoader->SetFixedColumnSelection(bSelect);

  00003	8b 81 80 00 00
	00		 mov	 eax, DWORD PTR [ecx+128]
; File D:\git\src\IBK\IBK_DRFN\ProjSrc\SrcDrfn\Chart\ExControl\Include\GirdLoadHelper.h

; 1956 : 		if(!m_hLib)

  00009	83 78 04 00	 cmp	 DWORD PTR [eax+4], 0
  0000d	74 11		 je	 SHORT $LN3@SetFixedCo

; 1957 : 			return;
; 1958 : 
; 1959 : 		pSetFixedColumnSelection(m_lpPointer, bSelect);

  0000f	ff 75 08	 push	 DWORD PTR _bSelect$[ebp]
  00012	ff b0 0c 01 00
	00		 push	 DWORD PTR [eax+268]
  00018	8b 80 74 02 00
	00		 mov	 eax, DWORD PTR [eax+628]
  0001e	ff d0		 call	 eax
$LN3@SetFixedCo:
; File D:\git\src\IBK\IBK_DRFN\ProjSrc\SrcDrfn\Chart\ExControl\ExGridCtrl.cpp

; 433  : }

  00020	5d		 pop	 ebp
  00021	c2 04 00	 ret	 4
?SetFixedColumnSelection@CExGridCtrl@@QAEXH@Z ENDP	; CExGridCtrl::SetFixedColumnSelection
_TEXT	ENDS
; Function compile flags: /Ogtp
; File D:\git\src\IBK\IBK_DRFN\ProjSrc\SrcDrfn\Chart\ExControl\ExGridCtrl.cpp
; File D:\git\src\IBK\IBK_DRFN\ProjSrc\SrcDrfn\Chart\ExControl\Include\GirdLoadHelper.h
; File D:\git\src\IBK\IBK_DRFN\ProjSrc\SrcDrfn\Chart\ExControl\ExGridCtrl.cpp
; File D:\git\src\IBK\IBK_DRFN\ProjSrc\SrcDrfn\Chart\ExControl\Include\GirdLoadHelper.h
; File D:\git\src\IBK\IBK_DRFN\ProjSrc\SrcDrfn\Chart\ExControl\ExGridCtrl.cpp
;	COMDAT ?IsSelectable@CExGridCtrl@@QAEHXZ
_TEXT	SEGMENT
?IsSelectable@CExGridCtrl@@QAEHXZ PROC			; CExGridCtrl::IsSelectable, COMDAT
; _this$ = ecx

; 427  : 	return m_pLoader->IsSelectable();

  00000	8b 81 80 00 00
	00		 mov	 eax, DWORD PTR [ecx+128]
; File D:\git\src\IBK\IBK_DRFN\ProjSrc\SrcDrfn\Chart\ExControl\Include\GirdLoadHelper.h

; 1948 : 		if(!m_hLib)

  00006	83 78 04 00	 cmp	 DWORD PTR [eax+4], 0
  0000a	75 03		 jne	 SHORT $LN4@IsSelectab
; File D:\git\src\IBK\IBK_DRFN\ProjSrc\SrcDrfn\Chart\ExControl\ExGridCtrl.cpp

; 427  : 	return m_pLoader->IsSelectable();

  0000c	33 c0		 xor	 eax, eax

; 428  : }

  0000e	c3		 ret	 0
$LN4@IsSelectab:
; File D:\git\src\IBK\IBK_DRFN\ProjSrc\SrcDrfn\Chart\ExControl\Include\GirdLoadHelper.h

; 1951 : 		return pIsSelectable(m_lpPointer);

  0000f	ff b0 0c 01 00
	00		 push	 DWORD PTR [eax+268]
  00015	8b 80 70 02 00
	00		 mov	 eax, DWORD PTR [eax+624]
  0001b	ff d0		 call	 eax
; File D:\git\src\IBK\IBK_DRFN\ProjSrc\SrcDrfn\Chart\ExControl\ExGridCtrl.cpp

; 428  : }

  0001d	c3		 ret	 0
?IsSelectable@CExGridCtrl@@QAEHXZ ENDP			; CExGridCtrl::IsSelectable
_TEXT	ENDS
; Function compile flags: /Ogtp
; File D:\git\src\IBK\IBK_DRFN\ProjSrc\SrcDrfn\Chart\ExControl\ExGridCtrl.cpp
; File D:\git\src\IBK\IBK_DRFN\ProjSrc\SrcDrfn\Chart\ExControl\Include\GirdLoadHelper.h
; File D:\git\src\IBK\IBK_DRFN\ProjSrc\SrcDrfn\Chart\ExControl\ExGridCtrl.cpp
;	COMDAT ?EnableSelection@CExGridCtrl@@QAEXH@Z
_TEXT	SEGMENT
_bEnable$ = 8						; size = 4
?EnableSelection@CExGridCtrl@@QAEXH@Z PROC		; CExGridCtrl::EnableSelection, COMDAT
; _this$ = ecx

; 421  : {

  00000	55		 push	 ebp
  00001	8b ec		 mov	 ebp, esp

; 422  : 	m_pLoader->EnableSelection(bEnable);

  00003	8b 81 80 00 00
	00		 mov	 eax, DWORD PTR [ecx+128]
; File D:\git\src\IBK\IBK_DRFN\ProjSrc\SrcDrfn\Chart\ExControl\Include\GirdLoadHelper.h

; 1940 : 		if(!m_hLib)

  00009	83 78 04 00	 cmp	 DWORD PTR [eax+4], 0
  0000d	74 11		 je	 SHORT $LN3@EnableSele

; 1941 : 			return;
; 1942 : 
; 1943 : 		pEnableSelection(m_lpPointer, bEnable);

  0000f	ff 75 08	 push	 DWORD PTR _bEnable$[ebp]
  00012	ff b0 0c 01 00
	00		 push	 DWORD PTR [eax+268]
  00018	8b 80 6c 02 00
	00		 mov	 eax, DWORD PTR [eax+620]
  0001e	ff d0		 call	 eax
$LN3@EnableSele:
; File D:\git\src\IBK\IBK_DRFN\ProjSrc\SrcDrfn\Chart\ExControl\ExGridCtrl.cpp

; 423  : }

  00020	5d		 pop	 ebp
  00021	c2 04 00	 ret	 4
?EnableSelection@CExGridCtrl@@QAEXH@Z ENDP		; CExGridCtrl::EnableSelection
_TEXT	ENDS
; Function compile flags: /Ogtp
; File D:\git\src\IBK\IBK_DRFN\ProjSrc\SrcDrfn\Chart\ExControl\ExGridCtrl.cpp
; File D:\git\src\IBK\IBK_DRFN\ProjSrc\SrcDrfn\Chart\ExControl\Include\GirdLoadHelper.h
; File D:\git\src\IBK\IBK_DRFN\ProjSrc\SrcDrfn\Chart\ExControl\ExGridCtrl.cpp
; File D:\git\src\IBK\IBK_DRFN\ProjSrc\SrcDrfn\Chart\ExControl\Include\GirdLoadHelper.h
; File D:\git\src\IBK\IBK_DRFN\ProjSrc\SrcDrfn\Chart\ExControl\ExGridCtrl.cpp
;	COMDAT ?GetSingleColSelection@CExGridCtrl@@QAEHXZ
_TEXT	SEGMENT
?GetSingleColSelection@CExGridCtrl@@QAEHXZ PROC		; CExGridCtrl::GetSingleColSelection, COMDAT
; _this$ = ecx

; 417  : 	return m_pLoader->GetSingleColSelection();

  00000	8b 81 80 00 00
	00		 mov	 eax, DWORD PTR [ecx+128]
; File D:\git\src\IBK\IBK_DRFN\ProjSrc\SrcDrfn\Chart\ExControl\Include\GirdLoadHelper.h

; 1932 : 		if(!m_hLib)

  00006	83 78 04 00	 cmp	 DWORD PTR [eax+4], 0
  0000a	75 06		 jne	 SHORT $LN4@GetSingleC
; File D:\git\src\IBK\IBK_DRFN\ProjSrc\SrcDrfn\Chart\ExControl\ExGridCtrl.cpp

; 417  : 	return m_pLoader->GetSingleColSelection();

  0000c	b8 01 00 00 00	 mov	 eax, 1

; 418  : }

  00011	c3		 ret	 0
$LN4@GetSingleC:
; File D:\git\src\IBK\IBK_DRFN\ProjSrc\SrcDrfn\Chart\ExControl\Include\GirdLoadHelper.h

; 1935 : 		return pGetSingleColSelection(m_lpPointer);

  00012	ff b0 0c 01 00
	00		 push	 DWORD PTR [eax+268]
  00018	8b 80 68 02 00
	00		 mov	 eax, DWORD PTR [eax+616]
  0001e	ff d0		 call	 eax
; File D:\git\src\IBK\IBK_DRFN\ProjSrc\SrcDrfn\Chart\ExControl\ExGridCtrl.cpp

; 418  : }

  00020	c3		 ret	 0
?GetSingleColSelection@CExGridCtrl@@QAEHXZ ENDP		; CExGridCtrl::GetSingleColSelection
_TEXT	ENDS
; Function compile flags: /Ogtp
; File D:\git\src\IBK\IBK_DRFN\ProjSrc\SrcDrfn\Chart\ExControl\ExGridCtrl.cpp
; File D:\git\src\IBK\IBK_DRFN\ProjSrc\SrcDrfn\Chart\ExControl\Include\GirdLoadHelper.h
; File D:\git\src\IBK\IBK_DRFN\ProjSrc\SrcDrfn\Chart\ExControl\ExGridCtrl.cpp
;	COMDAT ?SetSingleColSelection@CExGridCtrl@@QAEXH@Z
_TEXT	SEGMENT
_bSing$ = 8						; size = 4
?SetSingleColSelection@CExGridCtrl@@QAEXH@Z PROC	; CExGridCtrl::SetSingleColSelection, COMDAT
; _this$ = ecx

; 411  : {

  00000	55		 push	 ebp
  00001	8b ec		 mov	 ebp, esp

; 412  : 	m_pLoader->SetSingleColSelection(bSing);

  00003	8b 81 80 00 00
	00		 mov	 eax, DWORD PTR [ecx+128]
; File D:\git\src\IBK\IBK_DRFN\ProjSrc\SrcDrfn\Chart\ExControl\Include\GirdLoadHelper.h

; 1924 : 		if(!m_hLib)

  00009	83 78 04 00	 cmp	 DWORD PTR [eax+4], 0
  0000d	74 11		 je	 SHORT $LN3@SetSingleC

; 1925 : 			return;
; 1926 : 
; 1927 : 		pSetSingleColSelection(m_lpPointer, bSing);

  0000f	ff 75 08	 push	 DWORD PTR _bSing$[ebp]
  00012	ff b0 0c 01 00
	00		 push	 DWORD PTR [eax+268]
  00018	8b 80 64 02 00
	00		 mov	 eax, DWORD PTR [eax+612]
  0001e	ff d0		 call	 eax
$LN3@SetSingleC:
; File D:\git\src\IBK\IBK_DRFN\ProjSrc\SrcDrfn\Chart\ExControl\ExGridCtrl.cpp

; 413  : }

  00020	5d		 pop	 ebp
  00021	c2 04 00	 ret	 4
?SetSingleColSelection@CExGridCtrl@@QAEXH@Z ENDP	; CExGridCtrl::SetSingleColSelection
_TEXT	ENDS
; Function compile flags: /Ogtp
; File D:\git\src\IBK\IBK_DRFN\ProjSrc\SrcDrfn\Chart\ExControl\ExGridCtrl.cpp
; File D:\git\src\IBK\IBK_DRFN\ProjSrc\SrcDrfn\Chart\ExControl\Include\GirdLoadHelper.h
; File D:\git\src\IBK\IBK_DRFN\ProjSrc\SrcDrfn\Chart\ExControl\ExGridCtrl.cpp
; File D:\git\src\IBK\IBK_DRFN\ProjSrc\SrcDrfn\Chart\ExControl\Include\GirdLoadHelper.h
; File D:\git\src\IBK\IBK_DRFN\ProjSrc\SrcDrfn\Chart\ExControl\ExGridCtrl.cpp
;	COMDAT ?GetSingleRowSelection@CExGridCtrl@@QAEHXZ
_TEXT	SEGMENT
?GetSingleRowSelection@CExGridCtrl@@QAEHXZ PROC		; CExGridCtrl::GetSingleRowSelection, COMDAT
; _this$ = ecx

; 407  : 	return m_pLoader->GetSingleRowSelection();

  00000	8b 81 80 00 00
	00		 mov	 eax, DWORD PTR [ecx+128]
; File D:\git\src\IBK\IBK_DRFN\ProjSrc\SrcDrfn\Chart\ExControl\Include\GirdLoadHelper.h

; 1916 : 		if(!m_hLib)

  00006	83 78 04 00	 cmp	 DWORD PTR [eax+4], 0
  0000a	75 06		 jne	 SHORT $LN4@GetSingleR
; File D:\git\src\IBK\IBK_DRFN\ProjSrc\SrcDrfn\Chart\ExControl\ExGridCtrl.cpp

; 407  : 	return m_pLoader->GetSingleRowSelection();

  0000c	b8 01 00 00 00	 mov	 eax, 1

; 408  : }

  00011	c3		 ret	 0
$LN4@GetSingleR:
; File D:\git\src\IBK\IBK_DRFN\ProjSrc\SrcDrfn\Chart\ExControl\Include\GirdLoadHelper.h

; 1919 : 		return pGetSingleRowSelection(m_lpPointer);

  00012	ff b0 0c 01 00
	00		 push	 DWORD PTR [eax+268]
  00018	8b 80 60 02 00
	00		 mov	 eax, DWORD PTR [eax+608]
  0001e	ff d0		 call	 eax
; File D:\git\src\IBK\IBK_DRFN\ProjSrc\SrcDrfn\Chart\ExControl\ExGridCtrl.cpp

; 408  : }

  00020	c3		 ret	 0
?GetSingleRowSelection@CExGridCtrl@@QAEHXZ ENDP		; CExGridCtrl::GetSingleRowSelection
_TEXT	ENDS
; Function compile flags: /Ogtp
; File D:\git\src\IBK\IBK_DRFN\ProjSrc\SrcDrfn\Chart\ExControl\ExGridCtrl.cpp
; File D:\git\src\IBK\IBK_DRFN\ProjSrc\SrcDrfn\Chart\ExControl\Include\GirdLoadHelper.h
; File D:\git\src\IBK\IBK_DRFN\ProjSrc\SrcDrfn\Chart\ExControl\ExGridCtrl.cpp
;	COMDAT ?SetSingleRowSelection@CExGridCtrl@@QAEXH@Z
_TEXT	SEGMENT
_bSing$ = 8						; size = 4
?SetSingleRowSelection@CExGridCtrl@@QAEXH@Z PROC	; CExGridCtrl::SetSingleRowSelection, COMDAT
; _this$ = ecx

; 401  : {

  00000	55		 push	 ebp
  00001	8b ec		 mov	 ebp, esp

; 402  : 	m_pLoader->SetSingleRowSelection(bSing);

  00003	8b 81 80 00 00
	00		 mov	 eax, DWORD PTR [ecx+128]
; File D:\git\src\IBK\IBK_DRFN\ProjSrc\SrcDrfn\Chart\ExControl\Include\GirdLoadHelper.h

; 1908 : 		if(!m_hLib)

  00009	83 78 04 00	 cmp	 DWORD PTR [eax+4], 0
  0000d	74 11		 je	 SHORT $LN3@SetSingleR

; 1909 : 			return;
; 1910 : 
; 1911 : 		pSetSingleRowSelection(m_lpPointer, bSing);

  0000f	ff 75 08	 push	 DWORD PTR _bSing$[ebp]
  00012	ff b0 0c 01 00
	00		 push	 DWORD PTR [eax+268]
  00018	8b 80 5c 02 00
	00		 mov	 eax, DWORD PTR [eax+604]
  0001e	ff d0		 call	 eax
$LN3@SetSingleR:
; File D:\git\src\IBK\IBK_DRFN\ProjSrc\SrcDrfn\Chart\ExControl\ExGridCtrl.cpp

; 403  : }

  00020	5d		 pop	 ebp
  00021	c2 04 00	 ret	 4
?SetSingleRowSelection@CExGridCtrl@@QAEXH@Z ENDP	; CExGridCtrl::SetSingleRowSelection
_TEXT	ENDS
; Function compile flags: /Ogtp
; File D:\git\src\IBK\IBK_DRFN\ProjSrc\SrcDrfn\Chart\ExControl\ExGridCtrl.cpp
; File D:\git\src\IBK\IBK_DRFN\ProjSrc\SrcDrfn\Chart\ExControl\Include\GirdLoadHelper.h
; File D:\git\src\IBK\IBK_DRFN\ProjSrc\SrcDrfn\Chart\ExControl\ExGridCtrl.cpp
; File D:\git\src\IBK\IBK_DRFN\ProjSrc\SrcDrfn\Chart\ExControl\Include\GirdLoadHelper.h
; File D:\git\src\IBK\IBK_DRFN\ProjSrc\SrcDrfn\Chart\ExControl\ExGridCtrl.cpp
;	COMDAT ?GetListMode@CExGridCtrl@@QAEHXZ
_TEXT	SEGMENT
?GetListMode@CExGridCtrl@@QAEHXZ PROC			; CExGridCtrl::GetListMode, COMDAT
; _this$ = ecx

; 397  : 	return m_pLoader->GetListMode();

  00000	8b 81 80 00 00
	00		 mov	 eax, DWORD PTR [ecx+128]
; File D:\git\src\IBK\IBK_DRFN\ProjSrc\SrcDrfn\Chart\ExControl\Include\GirdLoadHelper.h

; 1900 : 		if(!m_hLib)

  00006	83 78 04 00	 cmp	 DWORD PTR [eax+4], 0
  0000a	75 03		 jne	 SHORT $LN4@GetListMod
; File D:\git\src\IBK\IBK_DRFN\ProjSrc\SrcDrfn\Chart\ExControl\ExGridCtrl.cpp

; 397  : 	return m_pLoader->GetListMode();

  0000c	33 c0		 xor	 eax, eax

; 398  : }

  0000e	c3		 ret	 0
$LN4@GetListMod:
; File D:\git\src\IBK\IBK_DRFN\ProjSrc\SrcDrfn\Chart\ExControl\Include\GirdLoadHelper.h

; 1903 : 		return pGetListMode(m_lpPointer);

  0000f	ff b0 0c 01 00
	00		 push	 DWORD PTR [eax+268]
  00015	8b 80 58 02 00
	00		 mov	 eax, DWORD PTR [eax+600]
  0001b	ff d0		 call	 eax
; File D:\git\src\IBK\IBK_DRFN\ProjSrc\SrcDrfn\Chart\ExControl\ExGridCtrl.cpp

; 398  : }

  0001d	c3		 ret	 0
?GetListMode@CExGridCtrl@@QAEHXZ ENDP			; CExGridCtrl::GetListMode
_TEXT	ENDS
; Function compile flags: /Ogtp
; File D:\git\src\IBK\IBK_DRFN\ProjSrc\SrcDrfn\Chart\ExControl\ExGridCtrl.cpp
; File D:\git\src\IBK\IBK_DRFN\ProjSrc\SrcDrfn\Chart\ExControl\Include\GirdLoadHelper.h
; File D:\git\src\IBK\IBK_DRFN\ProjSrc\SrcDrfn\Chart\ExControl\ExGridCtrl.cpp
;	COMDAT ?SetListMode@CExGridCtrl@@QAEXH@Z
_TEXT	SEGMENT
_bEnableListMode$ = 8					; size = 4
?SetListMode@CExGridCtrl@@QAEXH@Z PROC			; CExGridCtrl::SetListMode, COMDAT
; _this$ = ecx

; 1523 : {

  00000	55		 push	 ebp
  00001	8b ec		 mov	 ebp, esp

; 1524 : 	m_pLoader->SetListMode(bEnableListMode);

  00003	8b 81 80 00 00
	00		 mov	 eax, DWORD PTR [ecx+128]
; File D:\git\src\IBK\IBK_DRFN\ProjSrc\SrcDrfn\Chart\ExControl\Include\GirdLoadHelper.h

; 1892 : 		if(!m_hLib)

  00009	83 78 04 00	 cmp	 DWORD PTR [eax+4], 0
  0000d	74 11		 je	 SHORT $LN3@SetListMod

; 1893 : 			return;
; 1894 : 
; 1895 : 		pSetListMode(m_lpPointer, bEnableListMode);

  0000f	ff 75 08	 push	 DWORD PTR _bEnableListMode$[ebp]
  00012	ff b0 0c 01 00
	00		 push	 DWORD PTR [eax+268]
  00018	8b 80 54 02 00
	00		 mov	 eax, DWORD PTR [eax+596]
  0001e	ff d0		 call	 eax
$LN3@SetListMod:
; File D:\git\src\IBK\IBK_DRFN\ProjSrc\SrcDrfn\Chart\ExControl\ExGridCtrl.cpp

; 1525 : }

  00020	5d		 pop	 ebp
  00021	c2 04 00	 ret	 4
?SetListMode@CExGridCtrl@@QAEXH@Z ENDP			; CExGridCtrl::SetListMode
_TEXT	ENDS
; Function compile flags: /Ogtp
; File D:\git\src\IBK\IBK_DRFN\ProjSrc\SrcDrfn\Chart\ExControl\ExGridCtrl.cpp
; File D:\git\src\IBK\IBK_DRFN\ProjSrc\SrcDrfn\Chart\ExControl\Include\GirdLoadHelper.h
; File D:\git\src\IBK\IBK_DRFN\ProjSrc\SrcDrfn\Chart\ExControl\ExGridCtrl.cpp
; File D:\git\src\IBK\IBK_DRFN\ProjSrc\SrcDrfn\Chart\ExControl\Include\GirdLoadHelper.h
; File D:\git\src\IBK\IBK_DRFN\ProjSrc\SrcDrfn\Chart\ExControl\ExGridCtrl.cpp
;	COMDAT ?IsEditable@CExGridCtrl@@QAEHXZ
_TEXT	SEGMENT
?IsEditable@CExGridCtrl@@QAEHXZ PROC			; CExGridCtrl::IsEditable, COMDAT
; _this$ = ecx

; 392  : 	return m_pLoader->IsEditable();

  00000	8b 81 80 00 00
	00		 mov	 eax, DWORD PTR [ecx+128]
; File D:\git\src\IBK\IBK_DRFN\ProjSrc\SrcDrfn\Chart\ExControl\Include\GirdLoadHelper.h

; 1884 : 		if(!m_hLib)

  00006	83 78 04 00	 cmp	 DWORD PTR [eax+4], 0
  0000a	75 03		 jne	 SHORT $LN4@IsEditable
; File D:\git\src\IBK\IBK_DRFN\ProjSrc\SrcDrfn\Chart\ExControl\ExGridCtrl.cpp

; 392  : 	return m_pLoader->IsEditable();

  0000c	33 c0		 xor	 eax, eax

; 393  : }

  0000e	c3		 ret	 0
$LN4@IsEditable:
; File D:\git\src\IBK\IBK_DRFN\ProjSrc\SrcDrfn\Chart\ExControl\Include\GirdLoadHelper.h

; 1887 : 		return pIsEditable(m_lpPointer);

  0000f	ff b0 0c 01 00
	00		 push	 DWORD PTR [eax+268]
  00015	8b 80 50 02 00
	00		 mov	 eax, DWORD PTR [eax+592]
  0001b	ff d0		 call	 eax
; File D:\git\src\IBK\IBK_DRFN\ProjSrc\SrcDrfn\Chart\ExControl\ExGridCtrl.cpp

; 393  : }

  0001d	c3		 ret	 0
?IsEditable@CExGridCtrl@@QAEHXZ ENDP			; CExGridCtrl::IsEditable
_TEXT	ENDS
; Function compile flags: /Ogtp
; File D:\git\src\IBK\IBK_DRFN\ProjSrc\SrcDrfn\Chart\ExControl\ExGridCtrl.cpp
; File D:\git\src\IBK\IBK_DRFN\ProjSrc\SrcDrfn\Chart\ExControl\Include\GirdLoadHelper.h
; File D:\git\src\IBK\IBK_DRFN\ProjSrc\SrcDrfn\Chart\ExControl\ExGridCtrl.cpp
;	COMDAT ?SetEditable@CExGridCtrl@@QAEXH@Z
_TEXT	SEGMENT
_bEditable$ = 8						; size = 4
?SetEditable@CExGridCtrl@@QAEXH@Z PROC			; CExGridCtrl::SetEditable, COMDAT
; _this$ = ecx

; 386  : {

  00000	55		 push	 ebp
  00001	8b ec		 mov	 ebp, esp

; 387  : 	m_pLoader->SetEditable(bEditable);

  00003	8b 81 80 00 00
	00		 mov	 eax, DWORD PTR [ecx+128]
; File D:\git\src\IBK\IBK_DRFN\ProjSrc\SrcDrfn\Chart\ExControl\Include\GirdLoadHelper.h

; 1876 : 		if(!m_hLib)

  00009	83 78 04 00	 cmp	 DWORD PTR [eax+4], 0
  0000d	74 11		 je	 SHORT $LN3@SetEditabl

; 1877 : 			return;
; 1878 : 
; 1879 : 		pSetEditable(m_lpPointer, bEditable);

  0000f	ff 75 08	 push	 DWORD PTR _bEditable$[ebp]
  00012	ff b0 0c 01 00
	00		 push	 DWORD PTR [eax+268]
  00018	8b 80 4c 02 00
	00		 mov	 eax, DWORD PTR [eax+588]
  0001e	ff d0		 call	 eax
$LN3@SetEditabl:
; File D:\git\src\IBK\IBK_DRFN\ProjSrc\SrcDrfn\Chart\ExControl\ExGridCtrl.cpp

; 388  : }

  00020	5d		 pop	 ebp
  00021	c2 04 00	 ret	 4
?SetEditable@CExGridCtrl@@QAEXH@Z ENDP			; CExGridCtrl::SetEditable
_TEXT	ENDS
; Function compile flags: /Ogtp
; File D:\git\src\IBK\IBK_DRFN\ProjSrc\SrcDrfn\Chart\ExControl\ExGridCtrl.cpp
; File D:\git\src\IBK\IBK_DRFN\ProjSrc\SrcDrfn\Chart\ExControl\Include\GirdLoadHelper.h
; File D:\git\src\IBK\IBK_DRFN\ProjSrc\SrcDrfn\Chart\ExControl\ExGridCtrl.cpp
; File D:\git\src\IBK\IBK_DRFN\ProjSrc\SrcDrfn\Chart\ExControl\Include\GirdLoadHelper.h
; File D:\git\src\IBK\IBK_DRFN\ProjSrc\SrcDrfn\Chart\ExControl\ExGridCtrl.cpp
;	COMDAT ?GetGridLines@CExGridCtrl@@QAEHXZ
_TEXT	SEGMENT
?GetGridLines@CExGridCtrl@@QAEHXZ PROC			; CExGridCtrl::GetGridLines, COMDAT
; _this$ = ecx

; 382  : 	return m_pLoader->GetGridLines();

  00000	8b 81 80 00 00
	00		 mov	 eax, DWORD PTR [ecx+128]
; File D:\git\src\IBK\IBK_DRFN\ProjSrc\SrcDrfn\Chart\ExControl\Include\GirdLoadHelper.h

; 1868 : 		if(!m_hLib)

  00006	83 78 04 00	 cmp	 DWORD PTR [eax+4], 0
  0000a	75 03		 jne	 SHORT $LN4@GetGridLin
; File D:\git\src\IBK\IBK_DRFN\ProjSrc\SrcDrfn\Chart\ExControl\ExGridCtrl.cpp

; 382  : 	return m_pLoader->GetGridLines();

  0000c	33 c0		 xor	 eax, eax

; 383  : }

  0000e	c3		 ret	 0
$LN4@GetGridLin:
; File D:\git\src\IBK\IBK_DRFN\ProjSrc\SrcDrfn\Chart\ExControl\Include\GirdLoadHelper.h

; 1871 : 		return pGetGridLines(m_lpPointer);

  0000f	ff b0 0c 01 00
	00		 push	 DWORD PTR [eax+268]
  00015	8b 80 48 02 00
	00		 mov	 eax, DWORD PTR [eax+584]
  0001b	ff d0		 call	 eax
; File D:\git\src\IBK\IBK_DRFN\ProjSrc\SrcDrfn\Chart\ExControl\ExGridCtrl.cpp

; 383  : }

  0001d	c3		 ret	 0
?GetGridLines@CExGridCtrl@@QAEHXZ ENDP			; CExGridCtrl::GetGridLines
_TEXT	ENDS
; Function compile flags: /Ogtp
; File D:\git\src\IBK\IBK_DRFN\ProjSrc\SrcDrfn\Chart\ExControl\ExGridCtrl.cpp
; File D:\git\src\IBK\IBK_DRFN\ProjSrc\SrcDrfn\Chart\ExControl\Include\GirdLoadHelper.h
; File D:\git\src\IBK\IBK_DRFN\ProjSrc\SrcDrfn\Chart\ExControl\ExGridCtrl.cpp
;	COMDAT ?SetGridLines@CExGridCtrl@@QAEXH@Z
_TEXT	SEGMENT
_nWhichLines$ = 8					; size = 4
?SetGridLines@CExGridCtrl@@QAEXH@Z PROC			; CExGridCtrl::SetGridLines, COMDAT
; _this$ = ecx

; 1518 : {

  00000	55		 push	 ebp
  00001	8b ec		 mov	 ebp, esp

; 1519 : 	m_pLoader->SetGridLines(nWhichLines) ;

  00003	8b 81 80 00 00
	00		 mov	 eax, DWORD PTR [ecx+128]
; File D:\git\src\IBK\IBK_DRFN\ProjSrc\SrcDrfn\Chart\ExControl\Include\GirdLoadHelper.h

; 1860 : 		if(!m_hLib)

  00009	83 78 04 00	 cmp	 DWORD PTR [eax+4], 0
  0000d	74 11		 je	 SHORT $LN3@SetGridLin

; 1861 : 			return;
; 1862 : 
; 1863 : 		pSetGridLines(m_lpPointer, nWhichLines);

  0000f	ff 75 08	 push	 DWORD PTR _nWhichLines$[ebp]
  00012	ff b0 0c 01 00
	00		 push	 DWORD PTR [eax+268]
  00018	8b 80 44 02 00
	00		 mov	 eax, DWORD PTR [eax+580]
  0001e	ff d0		 call	 eax
$LN3@SetGridLin:
; File D:\git\src\IBK\IBK_DRFN\ProjSrc\SrcDrfn\Chart\ExControl\ExGridCtrl.cpp

; 1520 : }

  00020	5d		 pop	 ebp
  00021	c2 04 00	 ret	 4
?SetGridLines@CExGridCtrl@@QAEXH@Z ENDP			; CExGridCtrl::SetGridLines
_TEXT	ENDS
; Function compile flags: /Ogtp
; File D:\git\src\IBK\IBK_DRFN\ProjSrc\SrcDrfn\Chart\ExControl\ExGridCtrl.cpp
; File D:\git\src\IBK\IBK_DRFN\ProjSrc\SrcDrfn\Chart\ExControl\Include\GirdLoadHelper.h
; File D:\git\src\IBK\IBK_DRFN\ProjSrc\SrcDrfn\Chart\ExControl\ExGridCtrl.cpp
; File D:\git\src\IBK\IBK_DRFN\ProjSrc\SrcDrfn\Chart\ExControl\Include\GirdLoadHelper.h
; File D:\git\src\IBK\IBK_DRFN\ProjSrc\SrcDrfn\Chart\ExControl\ExGridCtrl.cpp
;	COMDAT ?GetImageList@CExGridCtrl@@QAEPAVCImageList@@XZ
_TEXT	SEGMENT
?GetImageList@CExGridCtrl@@QAEPAVCImageList@@XZ PROC	; CExGridCtrl::GetImageList, COMDAT
; _this$ = ecx

; 377  : 	return m_pLoader->GetImageList();

  00000	8b 81 80 00 00
	00		 mov	 eax, DWORD PTR [ecx+128]
; File D:\git\src\IBK\IBK_DRFN\ProjSrc\SrcDrfn\Chart\ExControl\Include\GirdLoadHelper.h

; 1852 : 		if(!m_hLib)

  00006	83 78 04 00	 cmp	 DWORD PTR [eax+4], 0
  0000a	75 03		 jne	 SHORT $LN4@GetImageLi
; File D:\git\src\IBK\IBK_DRFN\ProjSrc\SrcDrfn\Chart\ExControl\ExGridCtrl.cpp

; 377  : 	return m_pLoader->GetImageList();

  0000c	33 c0		 xor	 eax, eax

; 378  : }

  0000e	c3		 ret	 0
$LN4@GetImageLi:
; File D:\git\src\IBK\IBK_DRFN\ProjSrc\SrcDrfn\Chart\ExControl\Include\GirdLoadHelper.h

; 1855 : 		return pGetImageList(m_lpPointer);

  0000f	ff b0 0c 01 00
	00		 push	 DWORD PTR [eax+268]
  00015	8b 80 40 02 00
	00		 mov	 eax, DWORD PTR [eax+576]
  0001b	ff d0		 call	 eax
; File D:\git\src\IBK\IBK_DRFN\ProjSrc\SrcDrfn\Chart\ExControl\ExGridCtrl.cpp

; 378  : }

  0001d	c3		 ret	 0
?GetImageList@CExGridCtrl@@QAEPAVCImageList@@XZ ENDP	; CExGridCtrl::GetImageList
_TEXT	ENDS
; Function compile flags: /Ogtp
; File D:\git\src\IBK\IBK_DRFN\ProjSrc\SrcDrfn\Chart\ExControl\ExGridCtrl.cpp
; File D:\git\src\IBK\IBK_DRFN\ProjSrc\SrcDrfn\Chart\ExControl\Include\GirdLoadHelper.h
; File D:\git\src\IBK\IBK_DRFN\ProjSrc\SrcDrfn\Chart\ExControl\ExGridCtrl.cpp
;	COMDAT ?SetImageList@CExGridCtrl@@QAEXPAVCImageList@@@Z
_TEXT	SEGMENT
_pList$ = 8						; size = 4
?SetImageList@CExGridCtrl@@QAEXPAVCImageList@@@Z PROC	; CExGridCtrl::SetImageList, COMDAT
; _this$ = ecx

; 371  : {

  00000	55		 push	 ebp
  00001	8b ec		 mov	 ebp, esp

; 372  : 	m_pLoader->SetImageList(pList);

  00003	8b 81 80 00 00
	00		 mov	 eax, DWORD PTR [ecx+128]
; File D:\git\src\IBK\IBK_DRFN\ProjSrc\SrcDrfn\Chart\ExControl\Include\GirdLoadHelper.h

; 1844 : 		if(!m_hLib)

  00009	83 78 04 00	 cmp	 DWORD PTR [eax+4], 0
  0000d	74 11		 je	 SHORT $LN3@SetImageLi

; 1845 : 			return;
; 1846 : 
; 1847 : 		pSetImageList(m_lpPointer, pList);

  0000f	ff 75 08	 push	 DWORD PTR _pList$[ebp]
  00012	ff b0 0c 01 00
	00		 push	 DWORD PTR [eax+268]
  00018	8b 80 3c 02 00
	00		 mov	 eax, DWORD PTR [eax+572]
  0001e	ff d0		 call	 eax
$LN3@SetImageLi:
; File D:\git\src\IBK\IBK_DRFN\ProjSrc\SrcDrfn\Chart\ExControl\ExGridCtrl.cpp

; 373  : }

  00020	5d		 pop	 ebp
  00021	c2 04 00	 ret	 4
?SetImageList@CExGridCtrl@@QAEXPAVCImageList@@@Z ENDP	; CExGridCtrl::SetImageList
_TEXT	ENDS
; Function compile flags: /Ogtp
; File D:\git\src\IBK\IBK_DRFN\ProjSrc\SrcDrfn\Chart\ExControl\ExGridCtrl.cpp
; File D:\git\src\IBK\IBK_DRFN\ProjSrc\SrcDrfn\Chart\ExControl\Include\GirdLoadHelper.h
; File D:\git\src\IBK\IBK_DRFN\ProjSrc\SrcDrfn\Chart\ExControl\ExGridCtrl.cpp
; File D:\git\src\IBK\IBK_DRFN\ProjSrc\SrcDrfn\Chart\ExControl\Include\GirdLoadHelper.h
; File D:\git\src\IBK\IBK_DRFN\ProjSrc\SrcDrfn\Chart\ExControl\ExGridCtrl.cpp
;	COMDAT ?GetCallbackFunc@CExGridCtrl@@QAEP6GHPAUtagGV_DISPINFO@@J@ZXZ
_TEXT	SEGMENT
?GetCallbackFunc@CExGridCtrl@@QAEP6GHPAUtagGV_DISPINFO@@J@ZXZ PROC ; CExGridCtrl::GetCallbackFunc, COMDAT
; _this$ = ecx

; 367  : 	return m_pLoader->GetCallbackFunc();

  00000	8b 81 80 00 00
	00		 mov	 eax, DWORD PTR [ecx+128]
; File D:\git\src\IBK\IBK_DRFN\ProjSrc\SrcDrfn\Chart\ExControl\Include\GirdLoadHelper.h

; 1836 : 		if(!m_hLib)

  00006	83 78 04 00	 cmp	 DWORD PTR [eax+4], 0
  0000a	75 03		 jne	 SHORT $LN4@GetCallbac
; File D:\git\src\IBK\IBK_DRFN\ProjSrc\SrcDrfn\Chart\ExControl\ExGridCtrl.cpp

; 367  : 	return m_pLoader->GetCallbackFunc();

  0000c	33 c0		 xor	 eax, eax

; 368  : }

  0000e	c3		 ret	 0
$LN4@GetCallbac:
; File D:\git\src\IBK\IBK_DRFN\ProjSrc\SrcDrfn\Chart\ExControl\Include\GirdLoadHelper.h

; 1839 : 		return pGetCallbackFunc(m_lpPointer);

  0000f	ff b0 0c 01 00
	00		 push	 DWORD PTR [eax+268]
  00015	8b 80 38 02 00
	00		 mov	 eax, DWORD PTR [eax+568]
  0001b	ff d0		 call	 eax
; File D:\git\src\IBK\IBK_DRFN\ProjSrc\SrcDrfn\Chart\ExControl\ExGridCtrl.cpp

; 368  : }

  0001d	c3		 ret	 0
?GetCallbackFunc@CExGridCtrl@@QAEP6GHPAUtagGV_DISPINFO@@J@ZXZ ENDP ; CExGridCtrl::GetCallbackFunc
_TEXT	ENDS
; Function compile flags: /Ogtp
; File D:\git\src\IBK\IBK_DRFN\ProjSrc\SrcDrfn\Chart\ExControl\ExGridCtrl.cpp
; File D:\git\src\IBK\IBK_DRFN\ProjSrc\SrcDrfn\Chart\ExControl\Include\GirdLoadHelper.h
; File D:\git\src\IBK\IBK_DRFN\ProjSrc\SrcDrfn\Chart\ExControl\ExGridCtrl.cpp
;	COMDAT ?SetCallbackFunc@CExGridCtrl@@QAEXP6GHPAUtagGV_DISPINFO@@J@ZJ@Z
_TEXT	SEGMENT
_pCallback$ = 8						; size = 4
_lParam$ = 12						; size = 4
?SetCallbackFunc@CExGridCtrl@@QAEXP6GHPAUtagGV_DISPINFO@@J@ZJ@Z PROC ; CExGridCtrl::SetCallbackFunc, COMDAT
; _this$ = ecx

; 361  : {

  00000	55		 push	 ebp
  00001	8b ec		 mov	 ebp, esp

; 362  : 	m_pLoader->SetCallbackFunc(pCallback, lParam);

  00003	8b 81 80 00 00
	00		 mov	 eax, DWORD PTR [ecx+128]
; File D:\git\src\IBK\IBK_DRFN\ProjSrc\SrcDrfn\Chart\ExControl\Include\GirdLoadHelper.h

; 1828 : 		if(!m_hLib)

  00009	83 78 04 00	 cmp	 DWORD PTR [eax+4], 0
  0000d	74 14		 je	 SHORT $LN3@SetCallbac

; 1829 : 			return;
; 1830 : 
; 1831 : 		pSetCallbackFunc(m_lpPointer, pCallback, lParam);

  0000f	ff 75 0c	 push	 DWORD PTR _lParam$[ebp]
  00012	ff 75 08	 push	 DWORD PTR _pCallback$[ebp]
  00015	ff b0 0c 01 00
	00		 push	 DWORD PTR [eax+268]
  0001b	8b 80 34 02 00
	00		 mov	 eax, DWORD PTR [eax+564]
  00021	ff d0		 call	 eax
$LN3@SetCallbac:
; File D:\git\src\IBK\IBK_DRFN\ProjSrc\SrcDrfn\Chart\ExControl\ExGridCtrl.cpp

; 363  : }

  00023	5d		 pop	 ebp
  00024	c2 08 00	 ret	 8
?SetCallbackFunc@CExGridCtrl@@QAEXP6GHPAUtagGV_DISPINFO@@J@ZJ@Z ENDP ; CExGridCtrl::SetCallbackFunc
_TEXT	ENDS
; Function compile flags: /Ogtp
; File D:\git\src\IBK\IBK_DRFN\ProjSrc\SrcDrfn\Chart\ExControl\ExGridCtrl.cpp
; File D:\git\src\IBK\IBK_DRFN\ProjSrc\SrcDrfn\Chart\ExControl\Include\GirdLoadHelper.h
; File D:\git\src\IBK\IBK_DRFN\ProjSrc\SrcDrfn\Chart\ExControl\ExGridCtrl.cpp
; File D:\git\src\IBK\IBK_DRFN\ProjSrc\SrcDrfn\Chart\ExControl\Include\GirdLoadHelper.h
; File D:\git\src\IBK\IBK_DRFN\ProjSrc\SrcDrfn\Chart\ExControl\ExGridCtrl.cpp
;	COMDAT ?GetVirtualMode@CExGridCtrl@@QAEHXZ
_TEXT	SEGMENT
?GetVirtualMode@CExGridCtrl@@QAEHXZ PROC		; CExGridCtrl::GetVirtualMode, COMDAT
; _this$ = ecx

; 357  : 	return m_pLoader->GetVirtualMode();

  00000	8b 81 80 00 00
	00		 mov	 eax, DWORD PTR [ecx+128]
; File D:\git\src\IBK\IBK_DRFN\ProjSrc\SrcDrfn\Chart\ExControl\Include\GirdLoadHelper.h

; 1820 : 		if(!m_hLib)

  00006	83 78 04 00	 cmp	 DWORD PTR [eax+4], 0
  0000a	75 03		 jne	 SHORT $LN4@GetVirtual
; File D:\git\src\IBK\IBK_DRFN\ProjSrc\SrcDrfn\Chart\ExControl\ExGridCtrl.cpp

; 357  : 	return m_pLoader->GetVirtualMode();

  0000c	33 c0		 xor	 eax, eax

; 358  : }

  0000e	c3		 ret	 0
$LN4@GetVirtual:
; File D:\git\src\IBK\IBK_DRFN\ProjSrc\SrcDrfn\Chart\ExControl\Include\GirdLoadHelper.h

; 1823 : 		return pGetVirtualMode(m_lpPointer);

  0000f	ff b0 0c 01 00
	00		 push	 DWORD PTR [eax+268]
  00015	8b 80 30 02 00
	00		 mov	 eax, DWORD PTR [eax+560]
  0001b	ff d0		 call	 eax
; File D:\git\src\IBK\IBK_DRFN\ProjSrc\SrcDrfn\Chart\ExControl\ExGridCtrl.cpp

; 358  : }

  0001d	c3		 ret	 0
?GetVirtualMode@CExGridCtrl@@QAEHXZ ENDP		; CExGridCtrl::GetVirtualMode
_TEXT	ENDS
; Function compile flags: /Ogtp
; File D:\git\src\IBK\IBK_DRFN\ProjSrc\SrcDrfn\Chart\ExControl\ExGridCtrl.cpp
; File D:\git\src\IBK\IBK_DRFN\ProjSrc\SrcDrfn\Chart\ExControl\Include\GirdLoadHelper.h
; File D:\git\src\IBK\IBK_DRFN\ProjSrc\SrcDrfn\Chart\ExControl\ExGridCtrl.cpp
;	COMDAT ?SetVirtualMode@CExGridCtrl@@QAEXH@Z
_TEXT	SEGMENT
_bVirtual$ = 8						; size = 4
?SetVirtualMode@CExGridCtrl@@QAEXH@Z PROC		; CExGridCtrl::SetVirtualMode, COMDAT
; _this$ = ecx

; 1513 : {

  00000	55		 push	 ebp
  00001	8b ec		 mov	 ebp, esp

; 1514 : 	m_pLoader->SetVirtualMode(bVirtual);

  00003	8b 81 80 00 00
	00		 mov	 eax, DWORD PTR [ecx+128]
; File D:\git\src\IBK\IBK_DRFN\ProjSrc\SrcDrfn\Chart\ExControl\Include\GirdLoadHelper.h

; 1812 : 		if(!m_hLib)

  00009	83 78 04 00	 cmp	 DWORD PTR [eax+4], 0
  0000d	74 11		 je	 SHORT $LN3@SetVirtual

; 1813 : 			return;
; 1814 : 
; 1815 : 		pSetVirtualMode(m_lpPointer, bVirtual);

  0000f	ff 75 08	 push	 DWORD PTR _bVirtual$[ebp]
  00012	ff b0 0c 01 00
	00		 push	 DWORD PTR [eax+268]
  00018	8b 80 2c 02 00
	00		 mov	 eax, DWORD PTR [eax+556]
  0001e	ff d0		 call	 eax
$LN3@SetVirtual:
; File D:\git\src\IBK\IBK_DRFN\ProjSrc\SrcDrfn\Chart\ExControl\ExGridCtrl.cpp

; 1515 : }

  00020	5d		 pop	 ebp
  00021	c2 04 00	 ret	 4
?SetVirtualMode@CExGridCtrl@@QAEXH@Z ENDP		; CExGridCtrl::SetVirtualMode
_TEXT	ENDS
; Function compile flags: /Ogtp
; File D:\git\src\IBK\IBK_DRFN\ProjSrc\SrcDrfn\Chart\ExControl\ExGridCtrl.cpp
; File D:\git\src\IBK\IBK_DRFN\ProjSrc\SrcDrfn\Chart\ExControl\Include\GirdLoadHelper.h
; File D:\git\src\IBK\IBK_DRFN\ProjSrc\SrcDrfn\Chart\ExControl\ExGridCtrl.cpp
; File D:\git\src\IBK\IBK_DRFN\ProjSrc\SrcDrfn\Chart\ExControl\Include\GirdLoadHelper.h
; File D:\git\src\IBK\IBK_DRFN\ProjSrc\SrcDrfn\Chart\ExControl\ExGridCtrl.cpp
;	COMDAT ?GetFocusCell@CExGridCtrl@@QAE?AVCCellID@@XZ
_TEXT	SEGMENT
$T1 = -8						; size = 8
___$ReturnUdt$ = 8					; size = 4
?GetFocusCell@CExGridCtrl@@QAE?AVCCellID@@XZ PROC	; CExGridCtrl::GetFocusCell, COMDAT
; _this$ = ecx

; 351  : {

  00000	55		 push	 ebp
  00001	8b ec		 mov	 ebp, esp

; 352  : 	return m_pLoader->GetFocusCell();

  00003	8b 81 80 00 00
	00		 mov	 eax, DWORD PTR [ecx+128]
  00009	83 ec 08	 sub	 esp, 8
; File D:\git\src\IBK\IBK_DRFN\ProjSrc\SrcDrfn\Chart\ExControl\Include\GirdLoadHelper.h

; 1801 : 		if(!m_hLib)

  0000c	83 78 04 00	 cmp	 DWORD PTR [eax+4], 0
  00010	75 16		 jne	 SHORT $LN4@GetFocusCe

; 1802 : 		{
; 1803 : 			CCellID rCell;
; 1804 : 			return rCell;

  00012	8b 45 08	 mov	 eax, DWORD PTR ___$ReturnUdt$[ebp]
  00015	c7 00 ff ff ff
	ff		 mov	 DWORD PTR [eax], -1
  0001b	c7 40 04 ff ff
	ff ff		 mov	 DWORD PTR [eax+4], -1
; File D:\git\src\IBK\IBK_DRFN\ProjSrc\SrcDrfn\Chart\ExControl\ExGridCtrl.cpp

; 353  : }

  00022	8b e5		 mov	 esp, ebp
  00024	5d		 pop	 ebp
  00025	c2 04 00	 ret	 4
$LN4@GetFocusCe:
; File D:\git\src\IBK\IBK_DRFN\ProjSrc\SrcDrfn\Chart\ExControl\Include\GirdLoadHelper.h

; 1807 : 		return pGetFocusCell(m_lpPointer);

  00028	ff b0 0c 01 00
	00		 push	 DWORD PTR [eax+268]
  0002e	8b 80 28 02 00
	00		 mov	 eax, DWORD PTR [eax+552]
  00034	8d 4d f8	 lea	 ecx, DWORD PTR $T1[ebp]
  00037	51		 push	 ecx
  00038	ff d0		 call	 eax
  0003a	8b 08		 mov	 ecx, DWORD PTR [eax]
  0003c	8b 50 04	 mov	 edx, DWORD PTR [eax+4]
  0003f	8b 45 08	 mov	 eax, DWORD PTR ___$ReturnUdt$[ebp]
  00042	89 08		 mov	 DWORD PTR [eax], ecx
  00044	89 50 04	 mov	 DWORD PTR [eax+4], edx
; File D:\git\src\IBK\IBK_DRFN\ProjSrc\SrcDrfn\Chart\ExControl\ExGridCtrl.cpp

; 353  : }

  00047	8b e5		 mov	 esp, ebp
  00049	5d		 pop	 ebp
  0004a	c2 04 00	 ret	 4
?GetFocusCell@CExGridCtrl@@QAE?AVCCellID@@XZ ENDP	; CExGridCtrl::GetFocusCell
_TEXT	ENDS
; Function compile flags: /Ogtp
; File D:\git\src\IBK\IBK_DRFN\ProjSrc\SrcDrfn\Chart\ExControl\ExGridCtrl.cpp
; File D:\git\src\IBK\IBK_DRFN\ProjSrc\SrcDrfn\Chart\ExControl\Include\GirdLoadHelper.h
; File D:\git\src\IBK\IBK_DRFN\ProjSrc\SrcDrfn\Chart\ExControl\ExGridCtrl.cpp
; File D:\git\src\IBK\IBK_DRFN\ProjSrc\SrcDrfn\Chart\ExControl\Include\GirdLoadHelper.h
; File D:\git\src\IBK\IBK_DRFN\ProjSrc\SrcDrfn\Chart\ExControl\ExGridCtrl.cpp
;	COMDAT ?SetFocusCell@CExGridCtrl@@QAE?AVCCellID@@HH@Z
_TEXT	SEGMENT
$T1 = -8						; size = 8
___$ReturnUdt$ = 8					; size = 4
_nRow$ = 12						; size = 4
_nCol$ = 16						; size = 4
?SetFocusCell@CExGridCtrl@@QAE?AVCCellID@@HH@Z PROC	; CExGridCtrl::SetFocusCell, COMDAT
; _this$ = ecx

; 875  : {

  00000	55		 push	 ebp
  00001	8b ec		 mov	 ebp, esp

; 876  : 	return m_pLoader->SetFocusCell(nRow, nCol);

  00003	8b 81 80 00 00
	00		 mov	 eax, DWORD PTR [ecx+128]
  00009	83 ec 08	 sub	 esp, 8
; File D:\git\src\IBK\IBK_DRFN\ProjSrc\SrcDrfn\Chart\ExControl\Include\GirdLoadHelper.h

; 1790 : 		if(!m_hLib)

  0000c	83 78 04 00	 cmp	 DWORD PTR [eax+4], 0
  00010	75 16		 jne	 SHORT $LN4@SetFocusCe

; 1791 : 		{
; 1792 : 			CCellID rCell;
; 1793 : 			return rCell;

  00012	8b 45 08	 mov	 eax, DWORD PTR ___$ReturnUdt$[ebp]
  00015	c7 00 ff ff ff
	ff		 mov	 DWORD PTR [eax], -1
  0001b	c7 40 04 ff ff
	ff ff		 mov	 DWORD PTR [eax+4], -1
; File D:\git\src\IBK\IBK_DRFN\ProjSrc\SrcDrfn\Chart\ExControl\ExGridCtrl.cpp

; 877  : }

  00022	8b e5		 mov	 esp, ebp
  00024	5d		 pop	 ebp
  00025	c2 0c 00	 ret	 12			; 0000000cH
$LN4@SetFocusCe:
; File D:\git\src\IBK\IBK_DRFN\ProjSrc\SrcDrfn\Chart\ExControl\Include\GirdLoadHelper.h

; 1796 : 		return pSetFocusCell2(m_lpPointer, nRow, nCol);

  00028	ff 75 10	 push	 DWORD PTR _nCol$[ebp]
  0002b	8d 4d f8	 lea	 ecx, DWORD PTR $T1[ebp]
  0002e	ff 75 0c	 push	 DWORD PTR _nRow$[ebp]
  00031	ff b0 0c 01 00
	00		 push	 DWORD PTR [eax+268]
  00037	8b 80 24 02 00
	00		 mov	 eax, DWORD PTR [eax+548]
  0003d	51		 push	 ecx
  0003e	ff d0		 call	 eax
  00040	8b 08		 mov	 ecx, DWORD PTR [eax]
  00042	8b 50 04	 mov	 edx, DWORD PTR [eax+4]
  00045	8b 45 08	 mov	 eax, DWORD PTR ___$ReturnUdt$[ebp]
  00048	89 08		 mov	 DWORD PTR [eax], ecx
  0004a	89 50 04	 mov	 DWORD PTR [eax+4], edx
; File D:\git\src\IBK\IBK_DRFN\ProjSrc\SrcDrfn\Chart\ExControl\ExGridCtrl.cpp

; 877  : }

  0004d	8b e5		 mov	 esp, ebp
  0004f	5d		 pop	 ebp
  00050	c2 0c 00	 ret	 12			; 0000000cH
?SetFocusCell@CExGridCtrl@@QAE?AVCCellID@@HH@Z ENDP	; CExGridCtrl::SetFocusCell
_TEXT	ENDS
; Function compile flags: /Ogtp
; File D:\git\src\IBK\IBK_DRFN\ProjSrc\SrcDrfn\Chart\ExControl\ExGridCtrl.cpp
; File D:\git\src\IBK\IBK_DRFN\ProjSrc\SrcDrfn\Chart\ExControl\Include\GirdLoadHelper.h
; File D:\git\src\IBK\IBK_DRFN\ProjSrc\SrcDrfn\Chart\ExControl\ExGridCtrl.cpp
; File D:\git\src\IBK\IBK_DRFN\ProjSrc\SrcDrfn\Chart\ExControl\Include\GirdLoadHelper.h
; File D:\git\src\IBK\IBK_DRFN\ProjSrc\SrcDrfn\Chart\ExControl\ExGridCtrl.cpp
;	COMDAT ?SetFocusCell@CExGridCtrl@@QAE?AVCCellID@@V2@@Z
_TEXT	SEGMENT
$T1 = -8						; size = 8
___$ReturnUdt$ = 8					; size = 4
_cell$ = 12						; size = 8
?SetFocusCell@CExGridCtrl@@QAE?AVCCellID@@V2@@Z PROC	; CExGridCtrl::SetFocusCell, COMDAT
; _this$ = ecx

; 880  : {

  00000	55		 push	 ebp
  00001	8b ec		 mov	 ebp, esp

; 881  : 	return m_pLoader->SetFocusCell(cell);

  00003	8b 81 80 00 00
	00		 mov	 eax, DWORD PTR [ecx+128]
  00009	83 ec 08	 sub	 esp, 8
; File D:\git\src\IBK\IBK_DRFN\ProjSrc\SrcDrfn\Chart\ExControl\Include\GirdLoadHelper.h

; 1779 : 		if(!m_hLib)

  0000c	83 78 04 00	 cmp	 DWORD PTR [eax+4], 0
  00010	75 16		 jne	 SHORT $LN4@SetFocusCe

; 1780 : 		{
; 1781 : 			CCellID rCell;
; 1782 : 			return rCell;

  00012	8b 45 08	 mov	 eax, DWORD PTR ___$ReturnUdt$[ebp]
  00015	c7 00 ff ff ff
	ff		 mov	 DWORD PTR [eax], -1
  0001b	c7 40 04 ff ff
	ff ff		 mov	 DWORD PTR [eax+4], -1
; File D:\git\src\IBK\IBK_DRFN\ProjSrc\SrcDrfn\Chart\ExControl\ExGridCtrl.cpp

; 882  : }

  00022	8b e5		 mov	 esp, ebp
  00024	5d		 pop	 ebp
  00025	c2 0c 00	 ret	 12			; 0000000cH
$LN4@SetFocusCe:
; File D:\git\src\IBK\IBK_DRFN\ProjSrc\SrcDrfn\Chart\ExControl\Include\GirdLoadHelper.h

; 1785 : 		return pSetFocusCell1(m_lpPointer, cell);

  00028	ff 75 10	 push	 DWORD PTR _cell$[ebp+4]
  0002b	8d 4d f8	 lea	 ecx, DWORD PTR $T1[ebp]
  0002e	ff 75 0c	 push	 DWORD PTR _cell$[ebp]
  00031	ff b0 0c 01 00
	00		 push	 DWORD PTR [eax+268]
  00037	8b 80 20 02 00
	00		 mov	 eax, DWORD PTR [eax+544]
  0003d	51		 push	 ecx
  0003e	ff d0		 call	 eax
  00040	8b 08		 mov	 ecx, DWORD PTR [eax]
  00042	8b 50 04	 mov	 edx, DWORD PTR [eax+4]
  00045	8b 45 08	 mov	 eax, DWORD PTR ___$ReturnUdt$[ebp]
  00048	89 08		 mov	 DWORD PTR [eax], ecx
  0004a	89 50 04	 mov	 DWORD PTR [eax+4], edx
; File D:\git\src\IBK\IBK_DRFN\ProjSrc\SrcDrfn\Chart\ExControl\ExGridCtrl.cpp

; 882  : }

  0004d	8b e5		 mov	 esp, ebp
  0004f	5d		 pop	 ebp
  00050	c2 0c 00	 ret	 12			; 0000000cH
?SetFocusCell@CExGridCtrl@@QAE?AVCCellID@@V2@@Z ENDP	; CExGridCtrl::SetFocusCell
_TEXT	ENDS
; Function compile flags: /Ogtp
; File D:\git\src\IBK\IBK_DRFN\ProjSrc\SrcDrfn\Chart\ExControl\ExGridCtrl.cpp
; File D:\git\src\IBK\IBK_DRFN\ProjSrc\SrcDrfn\Chart\ExControl\Include\GirdLoadHelper.h
; File D:\git\src\IBK\IBK_DRFN\ProjSrc\SrcDrfn\Chart\ExControl\ExGridCtrl.cpp
; File D:\git\src\IBK\IBK_DRFN\ProjSrc\SrcDrfn\Chart\ExControl\Include\GirdLoadHelper.h
; File D:\git\src\IBK\IBK_DRFN\ProjSrc\SrcDrfn\Chart\ExControl\ExGridCtrl.cpp
;	COMDAT ?GetSelectedCount@CExGridCtrl@@QAEHXZ
_TEXT	SEGMENT
?GetSelectedCount@CExGridCtrl@@QAEHXZ PROC		; CExGridCtrl::GetSelectedCount, COMDAT
; _this$ = ecx

; 347  : 	return m_pLoader->GetSelectedCount();

  00000	8b 81 80 00 00
	00		 mov	 eax, DWORD PTR [ecx+128]
; File D:\git\src\IBK\IBK_DRFN\ProjSrc\SrcDrfn\Chart\ExControl\Include\GirdLoadHelper.h

; 1771 : 		if(!m_hLib)

  00006	83 78 04 00	 cmp	 DWORD PTR [eax+4], 0
  0000a	75 03		 jne	 SHORT $LN4@GetSelecte
; File D:\git\src\IBK\IBK_DRFN\ProjSrc\SrcDrfn\Chart\ExControl\ExGridCtrl.cpp

; 347  : 	return m_pLoader->GetSelectedCount();

  0000c	33 c0		 xor	 eax, eax

; 348  : }

  0000e	c3		 ret	 0
$LN4@GetSelecte:
; File D:\git\src\IBK\IBK_DRFN\ProjSrc\SrcDrfn\Chart\ExControl\Include\GirdLoadHelper.h

; 1774 : 		return pGetSelectedCount(m_lpPointer);

  0000f	ff b0 0c 01 00
	00		 push	 DWORD PTR [eax+268]
  00015	8b 80 1c 02 00
	00		 mov	 eax, DWORD PTR [eax+540]
  0001b	ff d0		 call	 eax
; File D:\git\src\IBK\IBK_DRFN\ProjSrc\SrcDrfn\Chart\ExControl\ExGridCtrl.cpp

; 348  : }

  0001d	c3		 ret	 0
?GetSelectedCount@CExGridCtrl@@QAEHXZ ENDP		; CExGridCtrl::GetSelectedCount
_TEXT	ENDS
; Function compile flags: /Ogtp
; File D:\git\src\IBK\IBK_DRFN\ProjSrc\SrcDrfn\Chart\ExControl\ExGridCtrl.cpp
; File D:\git\src\IBK\IBK_DRFN\ProjSrc\SrcDrfn\Chart\ExControl\Include\GirdLoadHelper.h
; File D:\git\src\IBK\IBK_DRFN\ProjSrc\SrcDrfn\Chart\ExControl\ExGridCtrl.cpp
;	COMDAT ?SetDefCellWidth@CExGridCtrl@@QAEXH@Z
_TEXT	SEGMENT
_nWidth$ = 8						; size = 4
?SetDefCellWidth@CExGridCtrl@@QAEXH@Z PROC		; CExGridCtrl::SetDefCellWidth, COMDAT
; _this$ = ecx

; 341  : {

  00000	55		 push	 ebp
  00001	8b ec		 mov	 ebp, esp

; 342  : 	m_pLoader->SetDefCellWidth(nWidth);

  00003	8b 81 80 00 00
	00		 mov	 eax, DWORD PTR [ecx+128]
; File D:\git\src\IBK\IBK_DRFN\ProjSrc\SrcDrfn\Chart\ExControl\Include\GirdLoadHelper.h

; 1763 : 		if(!m_hLib)

  00009	83 78 04 00	 cmp	 DWORD PTR [eax+4], 0
  0000d	74 11		 je	 SHORT $LN3@SetDefCell

; 1764 : 			return;
; 1765 : 
; 1766 : 		pSetDefCellWidth(m_lpPointer, nWidth);

  0000f	ff 75 08	 push	 DWORD PTR _nWidth$[ebp]
  00012	ff b0 0c 01 00
	00		 push	 DWORD PTR [eax+268]
  00018	8b 80 18 02 00
	00		 mov	 eax, DWORD PTR [eax+536]
  0001e	ff d0		 call	 eax
$LN3@SetDefCell:
; File D:\git\src\IBK\IBK_DRFN\ProjSrc\SrcDrfn\Chart\ExControl\ExGridCtrl.cpp

; 343  : }

  00020	5d		 pop	 ebp
  00021	c2 04 00	 ret	 4
?SetDefCellWidth@CExGridCtrl@@QAEXH@Z ENDP		; CExGridCtrl::SetDefCellWidth
_TEXT	ENDS
; Function compile flags: /Ogtp
; File D:\git\src\IBK\IBK_DRFN\ProjSrc\SrcDrfn\Chart\ExControl\ExGridCtrl.cpp
; File D:\git\src\IBK\IBK_DRFN\ProjSrc\SrcDrfn\Chart\ExControl\Include\GirdLoadHelper.h
; File D:\git\src\IBK\IBK_DRFN\ProjSrc\SrcDrfn\Chart\ExControl\ExGridCtrl.cpp
; File D:\git\src\IBK\IBK_DRFN\ProjSrc\SrcDrfn\Chart\ExControl\Include\GirdLoadHelper.h
; File D:\git\src\IBK\IBK_DRFN\ProjSrc\SrcDrfn\Chart\ExControl\ExGridCtrl.cpp
;	COMDAT ?GetDefCellWidth@CExGridCtrl@@QAEHXZ
_TEXT	SEGMENT
?GetDefCellWidth@CExGridCtrl@@QAEHXZ PROC		; CExGridCtrl::GetDefCellWidth, COMDAT
; _this$ = ecx

; 337  : 	return m_pLoader->GetDefCellWidth();

  00000	8b 81 80 00 00
	00		 mov	 eax, DWORD PTR [ecx+128]
; File D:\git\src\IBK\IBK_DRFN\ProjSrc\SrcDrfn\Chart\ExControl\Include\GirdLoadHelper.h

; 1755 : 		if(!m_hLib)

  00006	83 78 04 00	 cmp	 DWORD PTR [eax+4], 0
  0000a	75 03		 jne	 SHORT $LN4@GetDefCell
; File D:\git\src\IBK\IBK_DRFN\ProjSrc\SrcDrfn\Chart\ExControl\ExGridCtrl.cpp

; 337  : 	return m_pLoader->GetDefCellWidth();

  0000c	33 c0		 xor	 eax, eax

; 338  : }

  0000e	c3		 ret	 0
$LN4@GetDefCell:
; File D:\git\src\IBK\IBK_DRFN\ProjSrc\SrcDrfn\Chart\ExControl\Include\GirdLoadHelper.h

; 1758 : 		return pGetDefCellWidth(m_lpPointer);

  0000f	ff b0 0c 01 00
	00		 push	 DWORD PTR [eax+268]
  00015	8b 80 14 02 00
	00		 mov	 eax, DWORD PTR [eax+532]
  0001b	ff d0		 call	 eax
; File D:\git\src\IBK\IBK_DRFN\ProjSrc\SrcDrfn\Chart\ExControl\ExGridCtrl.cpp

; 338  : }

  0001d	c3		 ret	 0
?GetDefCellWidth@CExGridCtrl@@QAEHXZ ENDP		; CExGridCtrl::GetDefCellWidth
_TEXT	ENDS
; Function compile flags: /Ogtp
; File D:\git\src\IBK\IBK_DRFN\ProjSrc\SrcDrfn\Chart\ExControl\ExGridCtrl.cpp
; File D:\git\src\IBK\IBK_DRFN\ProjSrc\SrcDrfn\Chart\ExControl\Include\GirdLoadHelper.h
; File D:\git\src\IBK\IBK_DRFN\ProjSrc\SrcDrfn\Chart\ExControl\ExGridCtrl.cpp
;	COMDAT ?SetDefCellHeight@CExGridCtrl@@QAEXH@Z
_TEXT	SEGMENT
_nHeight$ = 8						; size = 4
?SetDefCellHeight@CExGridCtrl@@QAEXH@Z PROC		; CExGridCtrl::SetDefCellHeight, COMDAT
; _this$ = ecx

; 331  : {

  00000	55		 push	 ebp
  00001	8b ec		 mov	 ebp, esp

; 332  : 	m_pLoader->SetDefCellHeight(nHeight);

  00003	8b 81 80 00 00
	00		 mov	 eax, DWORD PTR [ecx+128]
; File D:\git\src\IBK\IBK_DRFN\ProjSrc\SrcDrfn\Chart\ExControl\Include\GirdLoadHelper.h

; 1747 : 		if(!m_hLib)

  00009	83 78 04 00	 cmp	 DWORD PTR [eax+4], 0
  0000d	74 11		 je	 SHORT $LN3@SetDefCell

; 1748 : 			return;
; 1749 : 
; 1750 : 		pSetDefCellHeight(m_lpPointer, nHeight);

  0000f	ff 75 08	 push	 DWORD PTR _nHeight$[ebp]
  00012	ff b0 0c 01 00
	00		 push	 DWORD PTR [eax+268]
  00018	8b 80 10 02 00
	00		 mov	 eax, DWORD PTR [eax+528]
  0001e	ff d0		 call	 eax
$LN3@SetDefCell:
; File D:\git\src\IBK\IBK_DRFN\ProjSrc\SrcDrfn\Chart\ExControl\ExGridCtrl.cpp

; 333  : }

  00020	5d		 pop	 ebp
  00021	c2 04 00	 ret	 4
?SetDefCellHeight@CExGridCtrl@@QAEXH@Z ENDP		; CExGridCtrl::SetDefCellHeight
_TEXT	ENDS
; Function compile flags: /Ogtp
; File D:\git\src\IBK\IBK_DRFN\ProjSrc\SrcDrfn\Chart\ExControl\ExGridCtrl.cpp
; File D:\git\src\IBK\IBK_DRFN\ProjSrc\SrcDrfn\Chart\ExControl\Include\GirdLoadHelper.h
; File D:\git\src\IBK\IBK_DRFN\ProjSrc\SrcDrfn\Chart\ExControl\ExGridCtrl.cpp
; File D:\git\src\IBK\IBK_DRFN\ProjSrc\SrcDrfn\Chart\ExControl\Include\GirdLoadHelper.h
; File D:\git\src\IBK\IBK_DRFN\ProjSrc\SrcDrfn\Chart\ExControl\ExGridCtrl.cpp
;	COMDAT ?GetDefCellHeight@CExGridCtrl@@QAEHXZ
_TEXT	SEGMENT
?GetDefCellHeight@CExGridCtrl@@QAEHXZ PROC		; CExGridCtrl::GetDefCellHeight, COMDAT
; _this$ = ecx

; 327  : 	return m_pLoader->GetDefCellHeight();

  00000	8b 81 80 00 00
	00		 mov	 eax, DWORD PTR [ecx+128]
; File D:\git\src\IBK\IBK_DRFN\ProjSrc\SrcDrfn\Chart\ExControl\Include\GirdLoadHelper.h

; 1739 : 		if(!m_hLib)

  00006	83 78 04 00	 cmp	 DWORD PTR [eax+4], 0
  0000a	75 03		 jne	 SHORT $LN4@GetDefCell
; File D:\git\src\IBK\IBK_DRFN\ProjSrc\SrcDrfn\Chart\ExControl\ExGridCtrl.cpp

; 327  : 	return m_pLoader->GetDefCellHeight();

  0000c	33 c0		 xor	 eax, eax

; 328  : }

  0000e	c3		 ret	 0
$LN4@GetDefCell:
; File D:\git\src\IBK\IBK_DRFN\ProjSrc\SrcDrfn\Chart\ExControl\Include\GirdLoadHelper.h

; 1742 : 		return pGetDefCellHeight(m_lpPointer);

  0000f	ff b0 0c 01 00
	00		 push	 DWORD PTR [eax+268]
  00015	8b 80 0c 02 00
	00		 mov	 eax, DWORD PTR [eax+524]
  0001b	ff d0		 call	 eax
; File D:\git\src\IBK\IBK_DRFN\ProjSrc\SrcDrfn\Chart\ExControl\ExGridCtrl.cpp

; 328  : }

  0001d	c3		 ret	 0
?GetDefCellHeight@CExGridCtrl@@QAEHXZ ENDP		; CExGridCtrl::GetDefCellHeight
_TEXT	ENDS
; Function compile flags: /Ogtp
; File D:\git\src\IBK\IBK_DRFN\ProjSrc\SrcDrfn\Chart\ExControl\ExGridCtrl.cpp
; File D:\git\src\IBK\IBK_DRFN\ProjSrc\SrcDrfn\Chart\ExControl\Include\GirdLoadHelper.h
; File D:\git\src\IBK\IBK_DRFN\ProjSrc\SrcDrfn\Chart\ExControl\ExGridCtrl.cpp
; File D:\git\src\IBK\IBK_DRFN\ProjSrc\SrcDrfn\Chart\ExControl\Include\GirdLoadHelper.h
; File D:\git\src\IBK\IBK_DRFN\ProjSrc\SrcDrfn\Chart\ExControl\ExGridCtrl.cpp
;	COMDAT ?GetDefCellMargin@CExGridCtrl@@QAEHXZ
_TEXT	SEGMENT
?GetDefCellMargin@CExGridCtrl@@QAEHXZ PROC		; CExGridCtrl::GetDefCellMargin, COMDAT
; _this$ = ecx

; 322  : 	return m_pLoader->GetDefCellMargin();

  00000	8b 81 80 00 00
	00		 mov	 eax, DWORD PTR [ecx+128]
; File D:\git\src\IBK\IBK_DRFN\ProjSrc\SrcDrfn\Chart\ExControl\Include\GirdLoadHelper.h

; 1731 : 		if(!m_hLib)

  00006	83 78 04 00	 cmp	 DWORD PTR [eax+4], 0
  0000a	75 03		 jne	 SHORT $LN4@GetDefCell
; File D:\git\src\IBK\IBK_DRFN\ProjSrc\SrcDrfn\Chart\ExControl\ExGridCtrl.cpp

; 322  : 	return m_pLoader->GetDefCellMargin();

  0000c	33 c0		 xor	 eax, eax

; 323  : }

  0000e	c3		 ret	 0
$LN4@GetDefCell:
; File D:\git\src\IBK\IBK_DRFN\ProjSrc\SrcDrfn\Chart\ExControl\Include\GirdLoadHelper.h

; 1734 : 		return pGetDefCellMargin(m_lpPointer);

  0000f	ff b0 0c 01 00
	00		 push	 DWORD PTR [eax+268]
  00015	8b 80 08 02 00
	00		 mov	 eax, DWORD PTR [eax+520]
  0001b	ff d0		 call	 eax
; File D:\git\src\IBK\IBK_DRFN\ProjSrc\SrcDrfn\Chart\ExControl\ExGridCtrl.cpp

; 323  : }

  0001d	c3		 ret	 0
?GetDefCellMargin@CExGridCtrl@@QAEHXZ ENDP		; CExGridCtrl::GetDefCellMargin
_TEXT	ENDS
; Function compile flags: /Ogtp
; File D:\git\src\IBK\IBK_DRFN\ProjSrc\SrcDrfn\Chart\ExControl\ExGridCtrl.cpp
; File D:\git\src\IBK\IBK_DRFN\ProjSrc\SrcDrfn\Chart\ExControl\Include\GirdLoadHelper.h
; File D:\git\src\IBK\IBK_DRFN\ProjSrc\SrcDrfn\Chart\ExControl\ExGridCtrl.cpp
;	COMDAT ?SetDefCellMargin@CExGridCtrl@@QAEXH@Z
_TEXT	SEGMENT
_nMargin$ = 8						; size = 4
?SetDefCellMargin@CExGridCtrl@@QAEXH@Z PROC		; CExGridCtrl::SetDefCellMargin, COMDAT
; _this$ = ecx

; 316  : {

  00000	55		 push	 ebp
  00001	8b ec		 mov	 ebp, esp

; 317  : 	m_pLoader->SetDefCellMargin(nMargin);

  00003	8b 81 80 00 00
	00		 mov	 eax, DWORD PTR [ecx+128]
; File D:\git\src\IBK\IBK_DRFN\ProjSrc\SrcDrfn\Chart\ExControl\Include\GirdLoadHelper.h

; 1723 : 		if(!m_hLib)

  00009	83 78 04 00	 cmp	 DWORD PTR [eax+4], 0
  0000d	74 11		 je	 SHORT $LN3@SetDefCell

; 1724 : 			return;
; 1725 : 
; 1726 : 		pSetDefCellMargin(m_lpPointer, nMargin);

  0000f	ff 75 08	 push	 DWORD PTR _nMargin$[ebp]
  00012	ff b0 0c 01 00
	00		 push	 DWORD PTR [eax+268]
  00018	8b 80 04 02 00
	00		 mov	 eax, DWORD PTR [eax+516]
  0001e	ff d0		 call	 eax
$LN3@SetDefCell:
; File D:\git\src\IBK\IBK_DRFN\ProjSrc\SrcDrfn\Chart\ExControl\ExGridCtrl.cpp

; 318  : }

  00020	5d		 pop	 ebp
  00021	c2 04 00	 ret	 4
?SetDefCellMargin@CExGridCtrl@@QAEXH@Z ENDP		; CExGridCtrl::SetDefCellMargin
_TEXT	ENDS
; Function compile flags: /Ogtp
; File D:\git\src\IBK\IBK_DRFN\ProjSrc\SrcDrfn\Chart\ExControl\ExGridCtrl.cpp
; File D:\git\src\IBK\IBK_DRFN\ProjSrc\SrcDrfn\Chart\ExControl\Include\GirdLoadHelper.h
; File D:\git\src\IBK\IBK_DRFN\ProjSrc\SrcDrfn\Chart\ExControl\ExGridCtrl.cpp
; File D:\git\src\IBK\IBK_DRFN\ProjSrc\SrcDrfn\Chart\ExControl\Include\GirdLoadHelper.h
; File D:\git\src\IBK\IBK_DRFN\ProjSrc\SrcDrfn\Chart\ExControl\ExGridCtrl.cpp
;	COMDAT ?GetBkColor@CExGridCtrl@@QAEKXZ
_TEXT	SEGMENT
?GetBkColor@CExGridCtrl@@QAEKXZ PROC			; CExGridCtrl::GetBkColor, COMDAT
; _this$ = ecx

; 312  : 	return m_pLoader->GetBkColor();

  00000	8b 81 80 00 00
	00		 mov	 eax, DWORD PTR [ecx+128]
; File D:\git\src\IBK\IBK_DRFN\ProjSrc\SrcDrfn\Chart\ExControl\Include\GirdLoadHelper.h

; 1715 : 		if(!m_hLib)

  00006	83 78 04 00	 cmp	 DWORD PTR [eax+4], 0
  0000a	75 03		 jne	 SHORT $LN4@GetBkColor
; File D:\git\src\IBK\IBK_DRFN\ProjSrc\SrcDrfn\Chart\ExControl\ExGridCtrl.cpp

; 312  : 	return m_pLoader->GetBkColor();

  0000c	33 c0		 xor	 eax, eax

; 313  : }

  0000e	c3		 ret	 0
$LN4@GetBkColor:
; File D:\git\src\IBK\IBK_DRFN\ProjSrc\SrcDrfn\Chart\ExControl\Include\GirdLoadHelper.h

; 1718 : 		return pGetBkColor(m_lpPointer);

  0000f	ff b0 0c 01 00
	00		 push	 DWORD PTR [eax+268]
  00015	8b 80 00 02 00
	00		 mov	 eax, DWORD PTR [eax+512]
  0001b	ff d0		 call	 eax
; File D:\git\src\IBK\IBK_DRFN\ProjSrc\SrcDrfn\Chart\ExControl\ExGridCtrl.cpp

; 313  : }

  0001d	c3		 ret	 0
?GetBkColor@CExGridCtrl@@QAEKXZ ENDP			; CExGridCtrl::GetBkColor
_TEXT	ENDS
; Function compile flags: /Ogtp
; File D:\git\src\IBK\IBK_DRFN\ProjSrc\SrcDrfn\Chart\ExControl\ExGridCtrl.cpp
; File D:\git\src\IBK\IBK_DRFN\ProjSrc\SrcDrfn\Chart\ExControl\Include\GirdLoadHelper.h
; File D:\git\src\IBK\IBK_DRFN\ProjSrc\SrcDrfn\Chart\ExControl\ExGridCtrl.cpp
;	COMDAT ?SetBkColor@CExGridCtrl@@QAEXK@Z
_TEXT	SEGMENT
_clr$ = 8						; size = 4
?SetBkColor@CExGridCtrl@@QAEXK@Z PROC			; CExGridCtrl::SetBkColor, COMDAT
; _this$ = ecx

; 306  : {

  00000	55		 push	 ebp
  00001	8b ec		 mov	 ebp, esp

; 307  : 	m_pLoader->SetBkColor(clr);

  00003	8b 81 80 00 00
	00		 mov	 eax, DWORD PTR [ecx+128]
; File D:\git\src\IBK\IBK_DRFN\ProjSrc\SrcDrfn\Chart\ExControl\Include\GirdLoadHelper.h

; 1707 : 		if(!m_hLib)

  00009	83 78 04 00	 cmp	 DWORD PTR [eax+4], 0
  0000d	74 11		 je	 SHORT $LN3@SetBkColor

; 1708 : 			return;
; 1709 : 
; 1710 : 		pSetBkColor(m_lpPointer, clr);

  0000f	ff 75 08	 push	 DWORD PTR _clr$[ebp]
  00012	ff b0 0c 01 00
	00		 push	 DWORD PTR [eax+268]
  00018	8b 80 fc 01 00
	00		 mov	 eax, DWORD PTR [eax+508]
  0001e	ff d0		 call	 eax
$LN3@SetBkColor:
; File D:\git\src\IBK\IBK_DRFN\ProjSrc\SrcDrfn\Chart\ExControl\ExGridCtrl.cpp

; 308  : }

  00020	5d		 pop	 ebp
  00021	c2 04 00	 ret	 4
?SetBkColor@CExGridCtrl@@QAEXK@Z ENDP			; CExGridCtrl::SetBkColor
_TEXT	ENDS
; Function compile flags: /Ogtp
; File D:\git\src\IBK\IBK_DRFN\ProjSrc\SrcDrfn\Chart\ExControl\ExGridCtrl.cpp
; File D:\git\src\IBK\IBK_DRFN\ProjSrc\SrcDrfn\Chart\ExControl\Include\GirdLoadHelper.h
; File D:\git\src\IBK\IBK_DRFN\ProjSrc\SrcDrfn\Chart\ExControl\ExGridCtrl.cpp
; File D:\git\src\IBK\IBK_DRFN\ProjSrc\SrcDrfn\Chart\ExControl\Include\GirdLoadHelper.h
; File D:\git\src\IBK\IBK_DRFN\ProjSrc\SrcDrfn\Chart\ExControl\ExGridCtrl.cpp
;	COMDAT ?GetGridColor@CExGridCtrl@@QAEKXZ
_TEXT	SEGMENT
?GetGridColor@CExGridCtrl@@QAEKXZ PROC			; CExGridCtrl::GetGridColor, COMDAT
; _this$ = ecx

; 302  : 	return m_pLoader->GetGridColor();

  00000	8b 81 80 00 00
	00		 mov	 eax, DWORD PTR [ecx+128]
; File D:\git\src\IBK\IBK_DRFN\ProjSrc\SrcDrfn\Chart\ExControl\Include\GirdLoadHelper.h

; 1699 : 		if(!m_hLib)

  00006	83 78 04 00	 cmp	 DWORD PTR [eax+4], 0
  0000a	75 03		 jne	 SHORT $LN4@GetGridCol
; File D:\git\src\IBK\IBK_DRFN\ProjSrc\SrcDrfn\Chart\ExControl\ExGridCtrl.cpp

; 302  : 	return m_pLoader->GetGridColor();

  0000c	33 c0		 xor	 eax, eax

; 303  : }

  0000e	c3		 ret	 0
$LN4@GetGridCol:
; File D:\git\src\IBK\IBK_DRFN\ProjSrc\SrcDrfn\Chart\ExControl\Include\GirdLoadHelper.h

; 1702 : 		return pGetGridColor(m_lpPointer);

  0000f	ff b0 0c 01 00
	00		 push	 DWORD PTR [eax+268]
  00015	8b 80 f8 01 00
	00		 mov	 eax, DWORD PTR [eax+504]
  0001b	ff d0		 call	 eax
; File D:\git\src\IBK\IBK_DRFN\ProjSrc\SrcDrfn\Chart\ExControl\ExGridCtrl.cpp

; 303  : }

  0001d	c3		 ret	 0
?GetGridColor@CExGridCtrl@@QAEKXZ ENDP			; CExGridCtrl::GetGridColor
_TEXT	ENDS
; Function compile flags: /Ogtp
; File D:\git\src\IBK\IBK_DRFN\ProjSrc\SrcDrfn\Chart\ExControl\ExGridCtrl.cpp
; File D:\git\src\IBK\IBK_DRFN\ProjSrc\SrcDrfn\Chart\ExControl\Include\GirdLoadHelper.h
; File D:\git\src\IBK\IBK_DRFN\ProjSrc\SrcDrfn\Chart\ExControl\ExGridCtrl.cpp
;	COMDAT ?SetGridColor@CExGridCtrl@@QAEXK@Z
_TEXT	SEGMENT
_clr$ = 8						; size = 4
?SetGridColor@CExGridCtrl@@QAEXK@Z PROC			; CExGridCtrl::SetGridColor, COMDAT
; _this$ = ecx

; 296  : {

  00000	55		 push	 ebp
  00001	8b ec		 mov	 ebp, esp

; 297  : 	m_pLoader->SetGridColor(clr);

  00003	8b 81 80 00 00
	00		 mov	 eax, DWORD PTR [ecx+128]
; File D:\git\src\IBK\IBK_DRFN\ProjSrc\SrcDrfn\Chart\ExControl\Include\GirdLoadHelper.h

; 1691 : 		if(!m_hLib)

  00009	83 78 04 00	 cmp	 DWORD PTR [eax+4], 0
  0000d	74 11		 je	 SHORT $LN3@SetGridCol

; 1692 : 			return;
; 1693 : 
; 1694 : 		pSetGridColor(m_lpPointer, clr);

  0000f	ff 75 08	 push	 DWORD PTR _clr$[ebp]
  00012	ff b0 0c 01 00
	00		 push	 DWORD PTR [eax+268]
  00018	8b 80 f4 01 00
	00		 mov	 eax, DWORD PTR [eax+500]
  0001e	ff d0		 call	 eax
$LN3@SetGridCol:
; File D:\git\src\IBK\IBK_DRFN\ProjSrc\SrcDrfn\Chart\ExControl\ExGridCtrl.cpp

; 298  : }

  00020	5d		 pop	 ebp
  00021	c2 04 00	 ret	 4
?SetGridColor@CExGridCtrl@@QAEXK@Z ENDP			; CExGridCtrl::SetGridColor
_TEXT	ENDS
; Function compile flags: /Ogtp
; File D:\git\src\IBK\IBK_DRFN\ProjSrc\SrcDrfn\Chart\ExControl\ExGridCtrl.cpp
; File D:\git\src\IBK\IBK_DRFN\ProjSrc\SrcDrfn\Chart\ExControl\Include\GirdLoadHelper.h
; File D:\git\src\IBK\IBK_DRFN\ProjSrc\SrcDrfn\Chart\ExControl\ExGridCtrl.cpp
; File D:\git\src\IBK\IBK_DRFN\ProjSrc\SrcDrfn\Chart\ExControl\Include\GirdLoadHelper.h
; File D:\git\src\IBK\IBK_DRFN\ProjSrc\SrcDrfn\Chart\ExControl\ExGridCtrl.cpp
;	COMDAT ?GetFixedBkColor@CExGridCtrl@@QAEKXZ
_TEXT	SEGMENT
?GetFixedBkColor@CExGridCtrl@@QAEKXZ PROC		; CExGridCtrl::GetFixedBkColor, COMDAT
; _this$ = ecx

; 1749 : 	return m_pLoader->GetFixedBkColor();

  00000	8b 81 80 00 00
	00		 mov	 eax, DWORD PTR [ecx+128]
; File D:\git\src\IBK\IBK_DRFN\ProjSrc\SrcDrfn\Chart\ExControl\Include\GirdLoadHelper.h

; 1683 : 		if(!m_hLib)

  00006	83 78 04 00	 cmp	 DWORD PTR [eax+4], 0
  0000a	75 03		 jne	 SHORT $LN4@GetFixedBk
; File D:\git\src\IBK\IBK_DRFN\ProjSrc\SrcDrfn\Chart\ExControl\ExGridCtrl.cpp

; 1749 : 	return m_pLoader->GetFixedBkColor();

  0000c	33 c0		 xor	 eax, eax

; 1750 : }

  0000e	c3		 ret	 0
$LN4@GetFixedBk:
; File D:\git\src\IBK\IBK_DRFN\ProjSrc\SrcDrfn\Chart\ExControl\Include\GirdLoadHelper.h

; 1686 : 		return pGetFixedBkColor(m_lpPointer);

  0000f	ff b0 0c 01 00
	00		 push	 DWORD PTR [eax+268]
  00015	8b 80 f0 01 00
	00		 mov	 eax, DWORD PTR [eax+496]
  0001b	ff d0		 call	 eax
; File D:\git\src\IBK\IBK_DRFN\ProjSrc\SrcDrfn\Chart\ExControl\ExGridCtrl.cpp

; 1750 : }

  0001d	c3		 ret	 0
?GetFixedBkColor@CExGridCtrl@@QAEKXZ ENDP		; CExGridCtrl::GetFixedBkColor
_TEXT	ENDS
; Function compile flags: /Ogtp
; File D:\git\src\IBK\IBK_DRFN\ProjSrc\SrcDrfn\Chart\ExControl\ExGridCtrl.cpp
; File D:\git\src\IBK\IBK_DRFN\ProjSrc\SrcDrfn\Chart\ExControl\Include\GirdLoadHelper.h
; File D:\git\src\IBK\IBK_DRFN\ProjSrc\SrcDrfn\Chart\ExControl\ExGridCtrl.cpp
;	COMDAT ?SetFixedBkColor@CExGridCtrl@@QAEXK@Z
_TEXT	SEGMENT
_clr$ = 8						; size = 4
?SetFixedBkColor@CExGridCtrl@@QAEXK@Z PROC		; CExGridCtrl::SetFixedBkColor, COMDAT
; _this$ = ecx

; 291  : {

  00000	55		 push	 ebp
  00001	8b ec		 mov	 ebp, esp

; 292  : 	m_pLoader->SetFixedBkColor(clr);

  00003	8b 81 80 00 00
	00		 mov	 eax, DWORD PTR [ecx+128]
; File D:\git\src\IBK\IBK_DRFN\ProjSrc\SrcDrfn\Chart\ExControl\Include\GirdLoadHelper.h

; 1675 : 		if(!m_hLib)

  00009	83 78 04 00	 cmp	 DWORD PTR [eax+4], 0
  0000d	74 11		 je	 SHORT $LN3@SetFixedBk

; 1676 : 			return;
; 1677 : 
; 1678 : 		pSetFixedBkColor(m_lpPointer, clr);

  0000f	ff 75 08	 push	 DWORD PTR _clr$[ebp]
  00012	ff b0 0c 01 00
	00		 push	 DWORD PTR [eax+268]
  00018	8b 80 ec 01 00
	00		 mov	 eax, DWORD PTR [eax+492]
  0001e	ff d0		 call	 eax
$LN3@SetFixedBk:
; File D:\git\src\IBK\IBK_DRFN\ProjSrc\SrcDrfn\Chart\ExControl\ExGridCtrl.cpp

; 293  : }

  00020	5d		 pop	 ebp
  00021	c2 04 00	 ret	 4
?SetFixedBkColor@CExGridCtrl@@QAEXK@Z ENDP		; CExGridCtrl::SetFixedBkColor
_TEXT	ENDS
; Function compile flags: /Ogtp
; File D:\git\src\IBK\IBK_DRFN\ProjSrc\SrcDrfn\Chart\ExControl\ExGridCtrl.cpp
; File D:\git\src\IBK\IBK_DRFN\ProjSrc\SrcDrfn\Chart\ExControl\Include\GirdLoadHelper.h
; File D:\git\src\IBK\IBK_DRFN\ProjSrc\SrcDrfn\Chart\ExControl\ExGridCtrl.cpp
; File D:\git\src\IBK\IBK_DRFN\ProjSrc\SrcDrfn\Chart\ExControl\Include\GirdLoadHelper.h
; File D:\git\src\IBK\IBK_DRFN\ProjSrc\SrcDrfn\Chart\ExControl\ExGridCtrl.cpp
;	COMDAT ?GetFixedTextColor@CExGridCtrl@@QAEKXZ
_TEXT	SEGMENT
?GetFixedTextColor@CExGridCtrl@@QAEKXZ PROC		; CExGridCtrl::GetFixedTextColor, COMDAT
; _this$ = ecx

; 287  : 	return m_pLoader->GetFixedTextColor();

  00000	8b 81 80 00 00
	00		 mov	 eax, DWORD PTR [ecx+128]
; File D:\git\src\IBK\IBK_DRFN\ProjSrc\SrcDrfn\Chart\ExControl\Include\GirdLoadHelper.h

; 1667 : 		if(!m_hLib)

  00006	83 78 04 00	 cmp	 DWORD PTR [eax+4], 0
  0000a	75 03		 jne	 SHORT $LN4@GetFixedTe
; File D:\git\src\IBK\IBK_DRFN\ProjSrc\SrcDrfn\Chart\ExControl\ExGridCtrl.cpp

; 287  : 	return m_pLoader->GetFixedTextColor();

  0000c	33 c0		 xor	 eax, eax

; 288  : }

  0000e	c3		 ret	 0
$LN4@GetFixedTe:
; File D:\git\src\IBK\IBK_DRFN\ProjSrc\SrcDrfn\Chart\ExControl\Include\GirdLoadHelper.h

; 1670 : 		return pGetFixedTextColor(m_lpPointer);

  0000f	ff b0 0c 01 00
	00		 push	 DWORD PTR [eax+268]
  00015	8b 80 e8 01 00
	00		 mov	 eax, DWORD PTR [eax+488]
  0001b	ff d0		 call	 eax
; File D:\git\src\IBK\IBK_DRFN\ProjSrc\SrcDrfn\Chart\ExControl\ExGridCtrl.cpp

; 288  : }

  0001d	c3		 ret	 0
?GetFixedTextColor@CExGridCtrl@@QAEKXZ ENDP		; CExGridCtrl::GetFixedTextColor
_TEXT	ENDS
; Function compile flags: /Ogtp
; File D:\git\src\IBK\IBK_DRFN\ProjSrc\SrcDrfn\Chart\ExControl\ExGridCtrl.cpp
; File D:\git\src\IBK\IBK_DRFN\ProjSrc\SrcDrfn\Chart\ExControl\Include\GirdLoadHelper.h
; File D:\git\src\IBK\IBK_DRFN\ProjSrc\SrcDrfn\Chart\ExControl\ExGridCtrl.cpp
;	COMDAT ?SetFixedTextColor@CExGridCtrl@@QAEXK@Z
_TEXT	SEGMENT
_clr$ = 8						; size = 4
?SetFixedTextColor@CExGridCtrl@@QAEXK@Z PROC		; CExGridCtrl::SetFixedTextColor, COMDAT
; _this$ = ecx

; 281  : {

  00000	55		 push	 ebp
  00001	8b ec		 mov	 ebp, esp

; 282  : 	m_pLoader->SetFixedTextColor(clr);

  00003	8b 81 80 00 00
	00		 mov	 eax, DWORD PTR [ecx+128]
; File D:\git\src\IBK\IBK_DRFN\ProjSrc\SrcDrfn\Chart\ExControl\Include\GirdLoadHelper.h

; 1659 : 		if(!m_hLib)

  00009	83 78 04 00	 cmp	 DWORD PTR [eax+4], 0
  0000d	74 11		 je	 SHORT $LN3@SetFixedTe

; 1660 : 			return;
; 1661 : 
; 1662 : 		pSetFixedTextColor(m_lpPointer, clr);

  0000f	ff 75 08	 push	 DWORD PTR _clr$[ebp]
  00012	ff b0 0c 01 00
	00		 push	 DWORD PTR [eax+268]
  00018	8b 80 e4 01 00
	00		 mov	 eax, DWORD PTR [eax+484]
  0001e	ff d0		 call	 eax
$LN3@SetFixedTe:
; File D:\git\src\IBK\IBK_DRFN\ProjSrc\SrcDrfn\Chart\ExControl\ExGridCtrl.cpp

; 283  : }

  00020	5d		 pop	 ebp
  00021	c2 04 00	 ret	 4
?SetFixedTextColor@CExGridCtrl@@QAEXK@Z ENDP		; CExGridCtrl::SetFixedTextColor
_TEXT	ENDS
; Function compile flags: /Ogtp
; File D:\git\src\IBK\IBK_DRFN\ProjSrc\SrcDrfn\Chart\ExControl\ExGridCtrl.cpp
; File D:\git\src\IBK\IBK_DRFN\ProjSrc\SrcDrfn\Chart\ExControl\Include\GirdLoadHelper.h
; File D:\git\src\IBK\IBK_DRFN\ProjSrc\SrcDrfn\Chart\ExControl\ExGridCtrl.cpp
; File D:\git\src\IBK\IBK_DRFN\ProjSrc\SrcDrfn\Chart\ExControl\Include\GirdLoadHelper.h
; File D:\git\src\IBK\IBK_DRFN\ProjSrc\SrcDrfn\Chart\ExControl\ExGridCtrl.cpp
;	COMDAT ?GetTextBkColor@CExGridCtrl@@QAEKXZ
_TEXT	SEGMENT
?GetTextBkColor@CExGridCtrl@@QAEKXZ PROC		; CExGridCtrl::GetTextBkColor, COMDAT
; _this$ = ecx

; 277  : 	return m_pLoader->GetTextBkColor();

  00000	8b 81 80 00 00
	00		 mov	 eax, DWORD PTR [ecx+128]
; File D:\git\src\IBK\IBK_DRFN\ProjSrc\SrcDrfn\Chart\ExControl\Include\GirdLoadHelper.h

; 1651 : 		if(!m_hLib)

  00006	83 78 04 00	 cmp	 DWORD PTR [eax+4], 0
  0000a	75 03		 jne	 SHORT $LN4@GetTextBkC
; File D:\git\src\IBK\IBK_DRFN\ProjSrc\SrcDrfn\Chart\ExControl\ExGridCtrl.cpp

; 277  : 	return m_pLoader->GetTextBkColor();

  0000c	33 c0		 xor	 eax, eax

; 278  : }

  0000e	c3		 ret	 0
$LN4@GetTextBkC:
; File D:\git\src\IBK\IBK_DRFN\ProjSrc\SrcDrfn\Chart\ExControl\Include\GirdLoadHelper.h

; 1654 : 		return pGetTextBkColor(m_lpPointer);

  0000f	ff b0 0c 01 00
	00		 push	 DWORD PTR [eax+268]
  00015	8b 80 e0 01 00
	00		 mov	 eax, DWORD PTR [eax+480]
  0001b	ff d0		 call	 eax
; File D:\git\src\IBK\IBK_DRFN\ProjSrc\SrcDrfn\Chart\ExControl\ExGridCtrl.cpp

; 278  : }

  0001d	c3		 ret	 0
?GetTextBkColor@CExGridCtrl@@QAEKXZ ENDP		; CExGridCtrl::GetTextBkColor
_TEXT	ENDS
; Function compile flags: /Ogtp
; File D:\git\src\IBK\IBK_DRFN\ProjSrc\SrcDrfn\Chart\ExControl\ExGridCtrl.cpp
; File D:\git\src\IBK\IBK_DRFN\ProjSrc\SrcDrfn\Chart\ExControl\Include\GirdLoadHelper.h
; File D:\git\src\IBK\IBK_DRFN\ProjSrc\SrcDrfn\Chart\ExControl\ExGridCtrl.cpp
;	COMDAT ?SetTextBkColor@CExGridCtrl@@QAEXK@Z
_TEXT	SEGMENT
_clr$ = 8						; size = 4
?SetTextBkColor@CExGridCtrl@@QAEXK@Z PROC		; CExGridCtrl::SetTextBkColor, COMDAT
; _this$ = ecx

; 271  : {

  00000	55		 push	 ebp
  00001	8b ec		 mov	 ebp, esp

; 272  : 	m_pLoader->SetTextBkColor(clr);

  00003	8b 81 80 00 00
	00		 mov	 eax, DWORD PTR [ecx+128]
; File D:\git\src\IBK\IBK_DRFN\ProjSrc\SrcDrfn\Chart\ExControl\Include\GirdLoadHelper.h

; 1643 : 		if(!m_hLib)

  00009	83 78 04 00	 cmp	 DWORD PTR [eax+4], 0
  0000d	74 11		 je	 SHORT $LN3@SetTextBkC

; 1644 : 			return;
; 1645 : 
; 1646 : 		pSetTextBkColor(m_lpPointer, clr);

  0000f	ff 75 08	 push	 DWORD PTR _clr$[ebp]
  00012	ff b0 0c 01 00
	00		 push	 DWORD PTR [eax+268]
  00018	8b 80 dc 01 00
	00		 mov	 eax, DWORD PTR [eax+476]
  0001e	ff d0		 call	 eax
$LN3@SetTextBkC:
; File D:\git\src\IBK\IBK_DRFN\ProjSrc\SrcDrfn\Chart\ExControl\ExGridCtrl.cpp

; 273  : }

  00020	5d		 pop	 ebp
  00021	c2 04 00	 ret	 4
?SetTextBkColor@CExGridCtrl@@QAEXK@Z ENDP		; CExGridCtrl::SetTextBkColor
_TEXT	ENDS
; Function compile flags: /Ogtp
; File D:\git\src\IBK\IBK_DRFN\ProjSrc\SrcDrfn\Chart\ExControl\ExGridCtrl.cpp
; File D:\git\src\IBK\IBK_DRFN\ProjSrc\SrcDrfn\Chart\ExControl\Include\GirdLoadHelper.h
; File D:\git\src\IBK\IBK_DRFN\ProjSrc\SrcDrfn\Chart\ExControl\ExGridCtrl.cpp
; File D:\git\src\IBK\IBK_DRFN\ProjSrc\SrcDrfn\Chart\ExControl\Include\GirdLoadHelper.h
; File D:\git\src\IBK\IBK_DRFN\ProjSrc\SrcDrfn\Chart\ExControl\ExGridCtrl.cpp
;	COMDAT ?GetTextColor@CExGridCtrl@@QAEKXZ
_TEXT	SEGMENT
?GetTextColor@CExGridCtrl@@QAEKXZ PROC			; CExGridCtrl::GetTextColor, COMDAT
; _this$ = ecx

; 267  : 	return m_pLoader->GetTextColor();

  00000	8b 81 80 00 00
	00		 mov	 eax, DWORD PTR [ecx+128]
; File D:\git\src\IBK\IBK_DRFN\ProjSrc\SrcDrfn\Chart\ExControl\Include\GirdLoadHelper.h

; 1635 : 		if(!m_hLib)

  00006	83 78 04 00	 cmp	 DWORD PTR [eax+4], 0
  0000a	75 03		 jne	 SHORT $LN4@GetTextCol
; File D:\git\src\IBK\IBK_DRFN\ProjSrc\SrcDrfn\Chart\ExControl\ExGridCtrl.cpp

; 267  : 	return m_pLoader->GetTextColor();

  0000c	33 c0		 xor	 eax, eax

; 268  : }

  0000e	c3		 ret	 0
$LN4@GetTextCol:
; File D:\git\src\IBK\IBK_DRFN\ProjSrc\SrcDrfn\Chart\ExControl\Include\GirdLoadHelper.h

; 1638 : 		return pGetTextColor(m_lpPointer);

  0000f	ff b0 0c 01 00
	00		 push	 DWORD PTR [eax+268]
  00015	8b 80 d8 01 00
	00		 mov	 eax, DWORD PTR [eax+472]
  0001b	ff d0		 call	 eax
; File D:\git\src\IBK\IBK_DRFN\ProjSrc\SrcDrfn\Chart\ExControl\ExGridCtrl.cpp

; 268  : }

  0001d	c3		 ret	 0
?GetTextColor@CExGridCtrl@@QAEKXZ ENDP			; CExGridCtrl::GetTextColor
_TEXT	ENDS
; Function compile flags: /Ogtp
; File D:\git\src\IBK\IBK_DRFN\ProjSrc\SrcDrfn\Chart\ExControl\ExGridCtrl.cpp
; File D:\git\src\IBK\IBK_DRFN\ProjSrc\SrcDrfn\Chart\ExControl\Include\GirdLoadHelper.h
; File D:\git\src\IBK\IBK_DRFN\ProjSrc\SrcDrfn\Chart\ExControl\ExGridCtrl.cpp
;	COMDAT ?SetTextColor@CExGridCtrl@@QAEXK@Z
_TEXT	SEGMENT
_clr$ = 8						; size = 4
?SetTextColor@CExGridCtrl@@QAEXK@Z PROC			; CExGridCtrl::SetTextColor, COMDAT
; _this$ = ecx

; 261  : {

  00000	55		 push	 ebp
  00001	8b ec		 mov	 ebp, esp

; 262  : 	m_pLoader->SetTextColor(clr);

  00003	8b 81 80 00 00
	00		 mov	 eax, DWORD PTR [ecx+128]
; File D:\git\src\IBK\IBK_DRFN\ProjSrc\SrcDrfn\Chart\ExControl\Include\GirdLoadHelper.h

; 1627 : 		if(!m_hLib)

  00009	83 78 04 00	 cmp	 DWORD PTR [eax+4], 0
  0000d	74 11		 je	 SHORT $LN3@SetTextCol

; 1628 : 			return;
; 1629 : 
; 1630 : 		pSetTextColor(m_lpPointer, clr);

  0000f	ff 75 08	 push	 DWORD PTR _clr$[ebp]
  00012	ff b0 0c 01 00
	00		 push	 DWORD PTR [eax+268]
  00018	8b 80 d4 01 00
	00		 mov	 eax, DWORD PTR [eax+468]
  0001e	ff d0		 call	 eax
$LN3@SetTextCol:
; File D:\git\src\IBK\IBK_DRFN\ProjSrc\SrcDrfn\Chart\ExControl\ExGridCtrl.cpp

; 263  : }

  00020	5d		 pop	 ebp
  00021	c2 04 00	 ret	 4
?SetTextColor@CExGridCtrl@@QAEXK@Z ENDP			; CExGridCtrl::SetTextColor
_TEXT	ENDS
; Function compile flags: /Ogtp
; File D:\git\src\IBK\IBK_DRFN\ProjSrc\SrcDrfn\Chart\ExControl\ExGridCtrl.cpp
; File D:\git\src\IBK\IBK_DRFN\ProjSrc\SrcDrfn\Chart\ExControl\Include\GirdLoadHelper.h
; File D:\git\src\IBK\IBK_DRFN\ProjSrc\SrcDrfn\Chart\ExControl\ExGridCtrl.cpp
;	COMDAT ?SetGridScrollBarVisible@CExGridCtrl@@QAEXHH@Z
_TEXT	SEGMENT
_bHScroll$ = 8						; size = 4
_bVScroll$ = 12						; size = 4
?SetGridScrollBarVisible@CExGridCtrl@@QAEXHH@Z PROC	; CExGridCtrl::SetGridScrollBarVisible, COMDAT
; _this$ = ecx

; 1759 : {

  00000	55		 push	 ebp
  00001	8b ec		 mov	 ebp, esp

; 1760 : 	m_pLoader->SetGridScrollBarVisible(bHScroll, bVScroll);

  00003	8b 81 80 00 00
	00		 mov	 eax, DWORD PTR [ecx+128]
; File D:\git\src\IBK\IBK_DRFN\ProjSrc\SrcDrfn\Chart\ExControl\Include\GirdLoadHelper.h

; 3577 : 		if(!m_hLib)

  00009	83 78 04 00	 cmp	 DWORD PTR [eax+4], 0
  0000d	74 14		 je	 SHORT $LN3@SetGridScr

; 3578 : 			return;
; 3579 : 
; 3580 : 		pSetGridScrollBarVisible(m_lpPointer, bHScroll, bVScroll);

  0000f	ff 75 0c	 push	 DWORD PTR _bVScroll$[ebp]
  00012	ff 75 08	 push	 DWORD PTR _bHScroll$[ebp]
  00015	ff b0 0c 01 00
	00		 push	 DWORD PTR [eax+268]
  0001b	8b 80 9c 05 00
	00		 mov	 eax, DWORD PTR [eax+1436]
  00021	ff d0		 call	 eax
$LN3@SetGridScr:
; File D:\git\src\IBK\IBK_DRFN\ProjSrc\SrcDrfn\Chart\ExControl\ExGridCtrl.cpp

; 1761 : }

  00023	5d		 pop	 ebp
  00024	c2 08 00	 ret	 8
?SetGridScrollBarVisible@CExGridCtrl@@QAEXHH@Z ENDP	; CExGridCtrl::SetGridScrollBarVisible
_TEXT	ENDS
; Function compile flags: /Ogtp
; File D:\git\src\IBK\IBK_DRFN\ProjSrc\SrcDrfn\Chart\ExControl\ExGridCtrl.cpp
; File D:\git\src\IBK\IBK_DRFN\ProjSrc\SrcDrfn\Chart\ExControl\Include\GirdLoadHelper.h
; File D:\git\src\IBK\IBK_DRFN\ProjSrc\SrcDrfn\Chart\ExControl\ExGridCtrl.cpp
; File D:\git\src\IBK\IBK_DRFN\ProjSrc\SrcDrfn\Chart\ExControl\Include\GirdLoadHelper.h
; File D:\git\src\IBK\IBK_DRFN\ProjSrc\SrcDrfn\Chart\ExControl\ExGridCtrl.cpp
;	COMDAT ?GetFixedRowSelectionHighlight@CExGridCtrl@@QAEHXZ
_TEXT	SEGMENT
?GetFixedRowSelectionHighlight@CExGridCtrl@@QAEHXZ PROC	; CExGridCtrl::GetFixedRowSelectionHighlight, COMDAT
; _this$ = ecx

; 257  : 	return m_pLoader->GetFixedRowSelectionHighlight();

  00000	8b 81 80 00 00
	00		 mov	 eax, DWORD PTR [ecx+128]
; File D:\git\src\IBK\IBK_DRFN\ProjSrc\SrcDrfn\Chart\ExControl\Include\GirdLoadHelper.h

; 1619 : 		if(!m_hLib)

  00006	83 78 04 00	 cmp	 DWORD PTR [eax+4], 0
  0000a	75 03		 jne	 SHORT $LN4@GetFixedRo
; File D:\git\src\IBK\IBK_DRFN\ProjSrc\SrcDrfn\Chart\ExControl\ExGridCtrl.cpp

; 257  : 	return m_pLoader->GetFixedRowSelectionHighlight();

  0000c	33 c0		 xor	 eax, eax

; 258  : }

  0000e	c3		 ret	 0
$LN4@GetFixedRo:
; File D:\git\src\IBK\IBK_DRFN\ProjSrc\SrcDrfn\Chart\ExControl\Include\GirdLoadHelper.h

; 1622 : 		return pGetFixedRowSelectionHighlight(m_lpPointer);

  0000f	ff b0 0c 01 00
	00		 push	 DWORD PTR [eax+268]
  00015	8b 80 d0 01 00
	00		 mov	 eax, DWORD PTR [eax+464]
  0001b	ff d0		 call	 eax
; File D:\git\src\IBK\IBK_DRFN\ProjSrc\SrcDrfn\Chart\ExControl\ExGridCtrl.cpp

; 258  : }

  0001d	c3		 ret	 0
?GetFixedRowSelectionHighlight@CExGridCtrl@@QAEHXZ ENDP	; CExGridCtrl::GetFixedRowSelectionHighlight
_TEXT	ENDS
; Function compile flags: /Ogtp
; File D:\git\src\IBK\IBK_DRFN\ProjSrc\SrcDrfn\Chart\ExControl\ExGridCtrl.cpp
; File D:\git\src\IBK\IBK_DRFN\ProjSrc\SrcDrfn\Chart\ExControl\Include\GirdLoadHelper.h
; File D:\git\src\IBK\IBK_DRFN\ProjSrc\SrcDrfn\Chart\ExControl\ExGridCtrl.cpp
;	COMDAT ?SetFixedRowSelectionHighlight@CExGridCtrl@@QAEXH@Z
_TEXT	SEGMENT
_bUse$ = 8						; size = 4
?SetFixedRowSelectionHighlight@CExGridCtrl@@QAEXH@Z PROC ; CExGridCtrl::SetFixedRowSelectionHighlight, COMDAT
; _this$ = ecx

; 251  : {

  00000	55		 push	 ebp
  00001	8b ec		 mov	 ebp, esp

; 252  : 	m_pLoader->SetFixedRowSelectionHighlight(bUse);

  00003	8b 81 80 00 00
	00		 mov	 eax, DWORD PTR [ecx+128]
; File D:\git\src\IBK\IBK_DRFN\ProjSrc\SrcDrfn\Chart\ExControl\Include\GirdLoadHelper.h

; 1611 : 		if(!m_hLib)

  00009	83 78 04 00	 cmp	 DWORD PTR [eax+4], 0
  0000d	74 11		 je	 SHORT $LN3@SetFixedRo

; 1612 : 			return;
; 1613 : 
; 1614 : 		pSetFixedRowSelectionHighlight(m_lpPointer, bUse);

  0000f	ff 75 08	 push	 DWORD PTR _bUse$[ebp]
  00012	ff b0 0c 01 00
	00		 push	 DWORD PTR [eax+268]
  00018	8b 80 cc 01 00
	00		 mov	 eax, DWORD PTR [eax+460]
  0001e	ff d0		 call	 eax
$LN3@SetFixedRo:
; File D:\git\src\IBK\IBK_DRFN\ProjSrc\SrcDrfn\Chart\ExControl\ExGridCtrl.cpp

; 253  : }

  00020	5d		 pop	 ebp
  00021	c2 04 00	 ret	 4
?SetFixedRowSelectionHighlight@CExGridCtrl@@QAEXH@Z ENDP ; CExGridCtrl::SetFixedRowSelectionHighlight
_TEXT	ENDS
; Function compile flags: /Ogtp
; File D:\git\src\IBK\IBK_DRFN\ProjSrc\SrcDrfn\Chart\ExControl\ExGridCtrl.cpp
; File D:\git\src\IBK\IBK_DRFN\ProjSrc\SrcDrfn\Chart\ExControl\Include\GirdLoadHelper.h
; File D:\git\src\IBK\IBK_DRFN\ProjSrc\SrcDrfn\Chart\ExControl\ExGridCtrl.cpp
; File D:\git\src\IBK\IBK_DRFN\ProjSrc\SrcDrfn\Chart\ExControl\Include\GirdLoadHelper.h
; File D:\git\src\IBK\IBK_DRFN\ProjSrc\SrcDrfn\Chart\ExControl\ExGridCtrl.cpp
;	COMDAT ?GetUseHighlightText@CExGridCtrl@@QAEHXZ
_TEXT	SEGMENT
?GetUseHighlightText@CExGridCtrl@@QAEHXZ PROC		; CExGridCtrl::GetUseHighlightText, COMDAT
; _this$ = ecx

; 247  : 	return m_pLoader->GetUseHighlightText();

  00000	8b 81 80 00 00
	00		 mov	 eax, DWORD PTR [ecx+128]
; File D:\git\src\IBK\IBK_DRFN\ProjSrc\SrcDrfn\Chart\ExControl\Include\GirdLoadHelper.h

; 1603 : 		if(!m_hLib)

  00006	83 78 04 00	 cmp	 DWORD PTR [eax+4], 0
  0000a	75 03		 jne	 SHORT $LN4@GetUseHigh
; File D:\git\src\IBK\IBK_DRFN\ProjSrc\SrcDrfn\Chart\ExControl\ExGridCtrl.cpp

; 247  : 	return m_pLoader->GetUseHighlightText();

  0000c	33 c0		 xor	 eax, eax

; 248  : }

  0000e	c3		 ret	 0
$LN4@GetUseHigh:
; File D:\git\src\IBK\IBK_DRFN\ProjSrc\SrcDrfn\Chart\ExControl\Include\GirdLoadHelper.h

; 1606 : 		return pGetUseHighlightText(m_lpPointer);

  0000f	ff b0 0c 01 00
	00		 push	 DWORD PTR [eax+268]
  00015	8b 80 c8 01 00
	00		 mov	 eax, DWORD PTR [eax+456]
  0001b	ff d0		 call	 eax
; File D:\git\src\IBK\IBK_DRFN\ProjSrc\SrcDrfn\Chart\ExControl\ExGridCtrl.cpp

; 248  : }

  0001d	c3		 ret	 0
?GetUseHighlightText@CExGridCtrl@@QAEHXZ ENDP		; CExGridCtrl::GetUseHighlightText
_TEXT	ENDS
; Function compile flags: /Ogtp
; File D:\git\src\IBK\IBK_DRFN\ProjSrc\SrcDrfn\Chart\ExControl\ExGridCtrl.cpp
; File D:\git\src\IBK\IBK_DRFN\ProjSrc\SrcDrfn\Chart\ExControl\Include\GirdLoadHelper.h
; File D:\git\src\IBK\IBK_DRFN\ProjSrc\SrcDrfn\Chart\ExControl\ExGridCtrl.cpp
;	COMDAT ?SetUseHighlightText@CExGridCtrl@@QAEXH@Z
_TEXT	SEGMENT
_bUse$ = 8						; size = 4
?SetUseHighlightText@CExGridCtrl@@QAEXH@Z PROC		; CExGridCtrl::SetUseHighlightText, COMDAT
; _this$ = ecx

; 241  : {

  00000	55		 push	 ebp
  00001	8b ec		 mov	 ebp, esp

; 242  : 	m_pLoader->SetUseHighlightText(bUse);

  00003	8b 81 80 00 00
	00		 mov	 eax, DWORD PTR [ecx+128]
; File D:\git\src\IBK\IBK_DRFN\ProjSrc\SrcDrfn\Chart\ExControl\Include\GirdLoadHelper.h

; 1595 : 		if(!m_hLib)

  00009	83 78 04 00	 cmp	 DWORD PTR [eax+4], 0
  0000d	74 11		 je	 SHORT $LN3@SetUseHigh

; 1596 : 			return;
; 1597 : 
; 1598 : 		pSetUseHighlightText(m_lpPointer, bUse);

  0000f	ff 75 08	 push	 DWORD PTR _bUse$[ebp]
  00012	ff b0 0c 01 00
	00		 push	 DWORD PTR [eax+268]
  00018	8b 80 c4 01 00
	00		 mov	 eax, DWORD PTR [eax+452]
  0001e	ff d0		 call	 eax
$LN3@SetUseHigh:
; File D:\git\src\IBK\IBK_DRFN\ProjSrc\SrcDrfn\Chart\ExControl\ExGridCtrl.cpp

; 243  : } 

  00020	5d		 pop	 ebp
  00021	c2 04 00	 ret	 4
?SetUseHighlightText@CExGridCtrl@@QAEXH@Z ENDP		; CExGridCtrl::SetUseHighlightText
_TEXT	ENDS
; Function compile flags: /Ogtp
; File D:\git\src\IBK\IBK_DRFN\ProjSrc\SrcDrfn\Chart\ExControl\ExGridCtrl.cpp
; File D:\git\src\IBK\IBK_DRFN\ProjSrc\SrcDrfn\Chart\ExControl\Include\GirdLoadHelper.h
; File D:\git\src\IBK\IBK_DRFN\ProjSrc\SrcDrfn\Chart\ExControl\ExGridCtrl.cpp
; File D:\git\src\IBK\IBK_DRFN\ProjSrc\SrcDrfn\Chart\ExControl\Include\GirdLoadHelper.h
; File D:\git\src\IBK\IBK_DRFN\ProjSrc\SrcDrfn\Chart\ExControl\ExGridCtrl.cpp
;	COMDAT ?GetHighlightTextColor@CExGridCtrl@@QAEKXZ
_TEXT	SEGMENT
?GetHighlightTextColor@CExGridCtrl@@QAEKXZ PROC		; CExGridCtrl::GetHighlightTextColor, COMDAT
; _this$ = ecx

; 237  : 	return m_pLoader->GetHighlightTextColor();

  00000	8b 81 80 00 00
	00		 mov	 eax, DWORD PTR [ecx+128]
; File D:\git\src\IBK\IBK_DRFN\ProjSrc\SrcDrfn\Chart\ExControl\Include\GirdLoadHelper.h

; 1587 : 		if(!m_hLib)

  00006	83 78 04 00	 cmp	 DWORD PTR [eax+4], 0
  0000a	75 03		 jne	 SHORT $LN4@GetHighlig
; File D:\git\src\IBK\IBK_DRFN\ProjSrc\SrcDrfn\Chart\ExControl\ExGridCtrl.cpp

; 237  : 	return m_pLoader->GetHighlightTextColor();

  0000c	33 c0		 xor	 eax, eax

; 238  : }

  0000e	c3		 ret	 0
$LN4@GetHighlig:
; File D:\git\src\IBK\IBK_DRFN\ProjSrc\SrcDrfn\Chart\ExControl\Include\GirdLoadHelper.h

; 1590 : 		return pGetHighlightTextColor(m_lpPointer);

  0000f	ff b0 0c 01 00
	00		 push	 DWORD PTR [eax+268]
  00015	8b 80 c0 01 00
	00		 mov	 eax, DWORD PTR [eax+448]
  0001b	ff d0		 call	 eax
; File D:\git\src\IBK\IBK_DRFN\ProjSrc\SrcDrfn\Chart\ExControl\ExGridCtrl.cpp

; 238  : }

  0001d	c3		 ret	 0
?GetHighlightTextColor@CExGridCtrl@@QAEKXZ ENDP		; CExGridCtrl::GetHighlightTextColor
_TEXT	ENDS
; Function compile flags: /Ogtp
; File D:\git\src\IBK\IBK_DRFN\ProjSrc\SrcDrfn\Chart\ExControl\ExGridCtrl.cpp
; File D:\git\src\IBK\IBK_DRFN\ProjSrc\SrcDrfn\Chart\ExControl\Include\GirdLoadHelper.h
; File D:\git\src\IBK\IBK_DRFN\ProjSrc\SrcDrfn\Chart\ExControl\ExGridCtrl.cpp
; File D:\git\src\IBK\IBK_DRFN\ProjSrc\SrcDrfn\Chart\ExControl\Include\GirdLoadHelper.h
; File D:\git\src\IBK\IBK_DRFN\ProjSrc\SrcDrfn\Chart\ExControl\ExGridCtrl.cpp
;	COMDAT ?GetHighlightColor@CExGridCtrl@@QAEKXZ
_TEXT	SEGMENT
?GetHighlightColor@CExGridCtrl@@QAEKXZ PROC		; CExGridCtrl::GetHighlightColor, COMDAT
; _this$ = ecx

; 232  : 	return m_pLoader->GetHighlightColor();

  00000	8b 81 80 00 00
	00		 mov	 eax, DWORD PTR [ecx+128]
; File D:\git\src\IBK\IBK_DRFN\ProjSrc\SrcDrfn\Chart\ExControl\Include\GirdLoadHelper.h

; 1579 : 		if(!m_hLib)

  00006	83 78 04 00	 cmp	 DWORD PTR [eax+4], 0
  0000a	75 03		 jne	 SHORT $LN4@GetHighlig
; File D:\git\src\IBK\IBK_DRFN\ProjSrc\SrcDrfn\Chart\ExControl\ExGridCtrl.cpp

; 232  : 	return m_pLoader->GetHighlightColor();

  0000c	33 c0		 xor	 eax, eax

; 233  : }

  0000e	c3		 ret	 0
$LN4@GetHighlig:
; File D:\git\src\IBK\IBK_DRFN\ProjSrc\SrcDrfn\Chart\ExControl\Include\GirdLoadHelper.h

; 1582 : 		return pGetHighlightColor(m_lpPointer);

  0000f	ff b0 0c 01 00
	00		 push	 DWORD PTR [eax+268]
  00015	8b 80 bc 01 00
	00		 mov	 eax, DWORD PTR [eax+444]
  0001b	ff d0		 call	 eax
; File D:\git\src\IBK\IBK_DRFN\ProjSrc\SrcDrfn\Chart\ExControl\ExGridCtrl.cpp

; 233  : }

  0001d	c3		 ret	 0
?GetHighlightColor@CExGridCtrl@@QAEKXZ ENDP		; CExGridCtrl::GetHighlightColor
_TEXT	ENDS
; Function compile flags: /Ogtp
; File D:\git\src\IBK\IBK_DRFN\ProjSrc\SrcDrfn\Chart\ExControl\ExGridCtrl.cpp
; File D:\git\src\IBK\IBK_DRFN\ProjSrc\SrcDrfn\Chart\ExControl\Include\GirdLoadHelper.h
; File D:\git\src\IBK\IBK_DRFN\ProjSrc\SrcDrfn\Chart\ExControl\ExGridCtrl.cpp
;	COMDAT ?SetHighlightTextColor@CExGridCtrl@@QAEXK@Z
_TEXT	SEGMENT
_clr$ = 8						; size = 4
?SetHighlightTextColor@CExGridCtrl@@QAEXK@Z PROC	; CExGridCtrl::SetHighlightTextColor, COMDAT
; _this$ = ecx

; 226  : {

  00000	55		 push	 ebp
  00001	8b ec		 mov	 ebp, esp

; 227  : 	m_pLoader->SetHighlightTextColor(clr);

  00003	8b 81 80 00 00
	00		 mov	 eax, DWORD PTR [ecx+128]
; File D:\git\src\IBK\IBK_DRFN\ProjSrc\SrcDrfn\Chart\ExControl\Include\GirdLoadHelper.h

; 1571 : 		if(!m_hLib)

  00009	83 78 04 00	 cmp	 DWORD PTR [eax+4], 0
  0000d	74 11		 je	 SHORT $LN3@SetHighlig

; 1572 : 			return;
; 1573 : 
; 1574 : 		pSetHighlightTextColor(m_lpPointer, clr);

  0000f	ff 75 08	 push	 DWORD PTR _clr$[ebp]
  00012	ff b0 0c 01 00
	00		 push	 DWORD PTR [eax+268]
  00018	8b 80 b8 01 00
	00		 mov	 eax, DWORD PTR [eax+440]
  0001e	ff d0		 call	 eax
$LN3@SetHighlig:
; File D:\git\src\IBK\IBK_DRFN\ProjSrc\SrcDrfn\Chart\ExControl\ExGridCtrl.cpp

; 228  : }

  00020	5d		 pop	 ebp
  00021	c2 04 00	 ret	 4
?SetHighlightTextColor@CExGridCtrl@@QAEXK@Z ENDP	; CExGridCtrl::SetHighlightTextColor
_TEXT	ENDS
; Function compile flags: /Ogtp
; File D:\git\src\IBK\IBK_DRFN\ProjSrc\SrcDrfn\Chart\ExControl\ExGridCtrl.cpp
; File D:\git\src\IBK\IBK_DRFN\ProjSrc\SrcDrfn\Chart\ExControl\Include\GirdLoadHelper.h
; File D:\git\src\IBK\IBK_DRFN\ProjSrc\SrcDrfn\Chart\ExControl\ExGridCtrl.cpp
;	COMDAT ?SetHighlightColor@CExGridCtrl@@QAEXK@Z
_TEXT	SEGMENT
_clr$ = 8						; size = 4
?SetHighlightColor@CExGridCtrl@@QAEXK@Z PROC		; CExGridCtrl::SetHighlightColor, COMDAT
; _this$ = ecx

; 221  : {

  00000	55		 push	 ebp
  00001	8b ec		 mov	 ebp, esp

; 222  : 	m_pLoader->SetHighlightColor(clr);

  00003	8b 81 80 00 00
	00		 mov	 eax, DWORD PTR [ecx+128]
; File D:\git\src\IBK\IBK_DRFN\ProjSrc\SrcDrfn\Chart\ExControl\Include\GirdLoadHelper.h

; 1563 : 		if(!m_hLib)

  00009	83 78 04 00	 cmp	 DWORD PTR [eax+4], 0
  0000d	74 11		 je	 SHORT $LN3@SetHighlig

; 1564 : 			return;
; 1565 : 
; 1566 : 		pSetHighlightColor(m_lpPointer, clr);

  0000f	ff 75 08	 push	 DWORD PTR _clr$[ebp]
  00012	ff b0 0c 01 00
	00		 push	 DWORD PTR [eax+268]
  00018	8b 80 b4 01 00
	00		 mov	 eax, DWORD PTR [eax+436]
  0001e	ff d0		 call	 eax
$LN3@SetHighlig:
; File D:\git\src\IBK\IBK_DRFN\ProjSrc\SrcDrfn\Chart\ExControl\ExGridCtrl.cpp

; 223  : }

  00020	5d		 pop	 ebp
  00021	c2 04 00	 ret	 4
?SetHighlightColor@CExGridCtrl@@QAEXK@Z ENDP		; CExGridCtrl::SetHighlightColor
_TEXT	ENDS
; Function compile flags: /Ogtp
; File D:\git\src\IBK\IBK_DRFN\ProjSrc\SrcDrfn\Chart\ExControl\ExGridCtrl.cpp
; File D:\git\src\IBK\IBK_DRFN\ProjSrc\SrcDrfn\Chart\ExControl\Include\GirdLoadHelper.h
; File D:\git\src\IBK\IBK_DRFN\ProjSrc\SrcDrfn\Chart\ExControl\ExGridCtrl.cpp
; File D:\git\src\IBK\IBK_DRFN\ProjSrc\SrcDrfn\Chart\ExControl\Include\GirdLoadHelper.h
; File D:\git\src\IBK\IBK_DRFN\ProjSrc\SrcDrfn\Chart\ExControl\ExGridCtrl.cpp
;	COMDAT ?GetFixedGridLineColor_Dark@CExGridCtrl@@QAEKXZ
_TEXT	SEGMENT
?GetFixedGridLineColor_Dark@CExGridCtrl@@QAEKXZ PROC	; CExGridCtrl::GetFixedGridLineColor_Dark, COMDAT
; _this$ = ecx

; 217  : 	return m_pLoader->GetFixedGridLineColor_Dark();

  00000	8b 81 80 00 00
	00		 mov	 eax, DWORD PTR [ecx+128]
; File D:\git\src\IBK\IBK_DRFN\ProjSrc\SrcDrfn\Chart\ExControl\Include\GirdLoadHelper.h

; 1555 : 		if(!m_hLib)

  00006	83 78 04 00	 cmp	 DWORD PTR [eax+4], 0
  0000a	75 03		 jne	 SHORT $LN4@GetFixedGr
; File D:\git\src\IBK\IBK_DRFN\ProjSrc\SrcDrfn\Chart\ExControl\ExGridCtrl.cpp

; 217  : 	return m_pLoader->GetFixedGridLineColor_Dark();

  0000c	33 c0		 xor	 eax, eax

; 218  : }

  0000e	c3		 ret	 0
$LN4@GetFixedGr:
; File D:\git\src\IBK\IBK_DRFN\ProjSrc\SrcDrfn\Chart\ExControl\Include\GirdLoadHelper.h

; 1558 : 		return pGetFixedGridLineColor_Dark(m_lpPointer);

  0000f	ff b0 0c 01 00
	00		 push	 DWORD PTR [eax+268]
  00015	8b 80 b0 01 00
	00		 mov	 eax, DWORD PTR [eax+432]
  0001b	ff d0		 call	 eax
; File D:\git\src\IBK\IBK_DRFN\ProjSrc\SrcDrfn\Chart\ExControl\ExGridCtrl.cpp

; 218  : }

  0001d	c3		 ret	 0
?GetFixedGridLineColor_Dark@CExGridCtrl@@QAEKXZ ENDP	; CExGridCtrl::GetFixedGridLineColor_Dark
_TEXT	ENDS
; Function compile flags: /Ogtp
; File D:\git\src\IBK\IBK_DRFN\ProjSrc\SrcDrfn\Chart\ExControl\ExGridCtrl.cpp
; File D:\git\src\IBK\IBK_DRFN\ProjSrc\SrcDrfn\Chart\ExControl\Include\GirdLoadHelper.h
; File D:\git\src\IBK\IBK_DRFN\ProjSrc\SrcDrfn\Chart\ExControl\ExGridCtrl.cpp
; File D:\git\src\IBK\IBK_DRFN\ProjSrc\SrcDrfn\Chart\ExControl\Include\GirdLoadHelper.h
; File D:\git\src\IBK\IBK_DRFN\ProjSrc\SrcDrfn\Chart\ExControl\ExGridCtrl.cpp
;	COMDAT ?GetFixedGridLineColor_Light@CExGridCtrl@@QAEKXZ
_TEXT	SEGMENT
?GetFixedGridLineColor_Light@CExGridCtrl@@QAEKXZ PROC	; CExGridCtrl::GetFixedGridLineColor_Light, COMDAT
; _this$ = ecx

; 212  : 	return m_pLoader->GetFixedGridLineColor_Light();

  00000	8b 81 80 00 00
	00		 mov	 eax, DWORD PTR [ecx+128]
; File D:\git\src\IBK\IBK_DRFN\ProjSrc\SrcDrfn\Chart\ExControl\Include\GirdLoadHelper.h

; 1547 : 		if(!m_hLib)

  00006	83 78 04 00	 cmp	 DWORD PTR [eax+4], 0
  0000a	75 03		 jne	 SHORT $LN4@GetFixedGr
; File D:\git\src\IBK\IBK_DRFN\ProjSrc\SrcDrfn\Chart\ExControl\ExGridCtrl.cpp

; 212  : 	return m_pLoader->GetFixedGridLineColor_Light();

  0000c	33 c0		 xor	 eax, eax

; 213  : }

  0000e	c3		 ret	 0
$LN4@GetFixedGr:
; File D:\git\src\IBK\IBK_DRFN\ProjSrc\SrcDrfn\Chart\ExControl\Include\GirdLoadHelper.h

; 1550 : 		return pGetFixedGridLineColor_Light(m_lpPointer);

  0000f	ff b0 0c 01 00
	00		 push	 DWORD PTR [eax+268]
  00015	8b 80 ac 01 00
	00		 mov	 eax, DWORD PTR [eax+428]
  0001b	ff d0		 call	 eax
; File D:\git\src\IBK\IBK_DRFN\ProjSrc\SrcDrfn\Chart\ExControl\ExGridCtrl.cpp

; 213  : }

  0001d	c3		 ret	 0
?GetFixedGridLineColor_Light@CExGridCtrl@@QAEKXZ ENDP	; CExGridCtrl::GetFixedGridLineColor_Light
_TEXT	ENDS
; Function compile flags: /Ogtp
; File D:\git\src\IBK\IBK_DRFN\ProjSrc\SrcDrfn\Chart\ExControl\ExGridCtrl.cpp
; File D:\git\src\IBK\IBK_DRFN\ProjSrc\SrcDrfn\Chart\ExControl\Include\GirdLoadHelper.h
; File D:\git\src\IBK\IBK_DRFN\ProjSrc\SrcDrfn\Chart\ExControl\ExGridCtrl.cpp
;	COMDAT ?SetFixedGridLineColor_Dark@CExGridCtrl@@QAEXK@Z
_TEXT	SEGMENT
_clr$ = 8						; size = 4
?SetFixedGridLineColor_Dark@CExGridCtrl@@QAEXK@Z PROC	; CExGridCtrl::SetFixedGridLineColor_Dark, COMDAT
; _this$ = ecx

; 206  : {

  00000	55		 push	 ebp
  00001	8b ec		 mov	 ebp, esp

; 207  : 	m_pLoader->SetFixedGridLineColor_Dark(clr);

  00003	8b 81 80 00 00
	00		 mov	 eax, DWORD PTR [ecx+128]
; File D:\git\src\IBK\IBK_DRFN\ProjSrc\SrcDrfn\Chart\ExControl\Include\GirdLoadHelper.h

; 1539 : 		if(!m_hLib)

  00009	83 78 04 00	 cmp	 DWORD PTR [eax+4], 0
  0000d	74 11		 je	 SHORT $LN3@SetFixedGr

; 1540 : 			return;
; 1541 : 
; 1542 : 		pSetFixedGridLineColor_Dark(m_lpPointer, clr);

  0000f	ff 75 08	 push	 DWORD PTR _clr$[ebp]
  00012	ff b0 0c 01 00
	00		 push	 DWORD PTR [eax+268]
  00018	8b 80 a8 01 00
	00		 mov	 eax, DWORD PTR [eax+424]
  0001e	ff d0		 call	 eax
$LN3@SetFixedGr:
; File D:\git\src\IBK\IBK_DRFN\ProjSrc\SrcDrfn\Chart\ExControl\ExGridCtrl.cpp

; 208  : }

  00020	5d		 pop	 ebp
  00021	c2 04 00	 ret	 4
?SetFixedGridLineColor_Dark@CExGridCtrl@@QAEXK@Z ENDP	; CExGridCtrl::SetFixedGridLineColor_Dark
_TEXT	ENDS
; Function compile flags: /Ogtp
; File D:\git\src\IBK\IBK_DRFN\ProjSrc\SrcDrfn\Chart\ExControl\ExGridCtrl.cpp
; File D:\git\src\IBK\IBK_DRFN\ProjSrc\SrcDrfn\Chart\ExControl\Include\GirdLoadHelper.h
; File D:\git\src\IBK\IBK_DRFN\ProjSrc\SrcDrfn\Chart\ExControl\ExGridCtrl.cpp
;	COMDAT ?SetFixedGridLineColor_Light@CExGridCtrl@@QAEXK@Z
_TEXT	SEGMENT
_clr$ = 8						; size = 4
?SetFixedGridLineColor_Light@CExGridCtrl@@QAEXK@Z PROC	; CExGridCtrl::SetFixedGridLineColor_Light, COMDAT
; _this$ = ecx

; 201  : {

  00000	55		 push	 ebp
  00001	8b ec		 mov	 ebp, esp

; 202  : 	m_pLoader->SetFixedGridLineColor_Light(clr);

  00003	8b 81 80 00 00
	00		 mov	 eax, DWORD PTR [ecx+128]
; File D:\git\src\IBK\IBK_DRFN\ProjSrc\SrcDrfn\Chart\ExControl\Include\GirdLoadHelper.h

; 1531 : 		if(!m_hLib)

  00009	83 78 04 00	 cmp	 DWORD PTR [eax+4], 0
  0000d	74 11		 je	 SHORT $LN3@SetFixedGr

; 1532 : 			return;
; 1533 : 
; 1534 : 		pSetFixedGridLineColor_Light(m_lpPointer, clr);

  0000f	ff 75 08	 push	 DWORD PTR _clr$[ebp]
  00012	ff b0 0c 01 00
	00		 push	 DWORD PTR [eax+268]
  00018	8b 80 a4 01 00
	00		 mov	 eax, DWORD PTR [eax+420]
  0001e	ff d0		 call	 eax
$LN3@SetFixedGr:
; File D:\git\src\IBK\IBK_DRFN\ProjSrc\SrcDrfn\Chart\ExControl\ExGridCtrl.cpp

; 203  : }

  00020	5d		 pop	 ebp
  00021	c2 04 00	 ret	 4
?SetFixedGridLineColor_Light@CExGridCtrl@@QAEXK@Z ENDP	; CExGridCtrl::SetFixedGridLineColor_Light
_TEXT	ENDS
; Function compile flags: /Ogtp
; File D:\git\src\IBK\IBK_DRFN\ProjSrc\SrcDrfn\Chart\ExControl\ExGridCtrl.cpp
; File D:\git\src\IBK\IBK_DRFN\ProjSrc\SrcDrfn\Chart\ExControl\Include\GirdLoadHelper.h
; File D:\git\src\IBK\IBK_DRFN\ProjSrc\SrcDrfn\Chart\ExControl\ExGridCtrl.cpp
; File D:\git\src\IBK\IBK_DRFN\ProjSrc\SrcDrfn\Chart\ExControl\Include\GirdLoadHelper.h
; File D:\git\src\IBK\IBK_DRFN\ProjSrc\SrcDrfn\Chart\ExControl\ExGridCtrl.cpp
;	COMDAT ?GetTitleTipTextClr@CExGridCtrl@@QAEKXZ
_TEXT	SEGMENT
?GetTitleTipTextClr@CExGridCtrl@@QAEKXZ PROC		; CExGridCtrl::GetTitleTipTextClr, COMDAT
; _this$ = ecx

; 197  : 	return m_pLoader->GetTitleTipTextClr();

  00000	8b 81 80 00 00
	00		 mov	 eax, DWORD PTR [ecx+128]
; File D:\git\src\IBK\IBK_DRFN\ProjSrc\SrcDrfn\Chart\ExControl\Include\GirdLoadHelper.h

; 1523 : 		if(!m_hLib)

  00006	83 78 04 00	 cmp	 DWORD PTR [eax+4], 0
  0000a	75 03		 jne	 SHORT $LN4@GetTitleTi
; File D:\git\src\IBK\IBK_DRFN\ProjSrc\SrcDrfn\Chart\ExControl\ExGridCtrl.cpp

; 197  : 	return m_pLoader->GetTitleTipTextClr();

  0000c	33 c0		 xor	 eax, eax

; 198  : }

  0000e	c3		 ret	 0
$LN4@GetTitleTi:
; File D:\git\src\IBK\IBK_DRFN\ProjSrc\SrcDrfn\Chart\ExControl\Include\GirdLoadHelper.h

; 1526 : 		return pGetTitleTipTextClr(m_lpPointer);

  0000f	ff b0 0c 01 00
	00		 push	 DWORD PTR [eax+268]
  00015	8b 80 a0 01 00
	00		 mov	 eax, DWORD PTR [eax+416]
  0001b	ff d0		 call	 eax
; File D:\git\src\IBK\IBK_DRFN\ProjSrc\SrcDrfn\Chart\ExControl\ExGridCtrl.cpp

; 198  : }

  0001d	c3		 ret	 0
?GetTitleTipTextClr@CExGridCtrl@@QAEKXZ ENDP		; CExGridCtrl::GetTitleTipTextClr
_TEXT	ENDS
; Function compile flags: /Ogtp
; File D:\git\src\IBK\IBK_DRFN\ProjSrc\SrcDrfn\Chart\ExControl\ExGridCtrl.cpp
; File D:\git\src\IBK\IBK_DRFN\ProjSrc\SrcDrfn\Chart\ExControl\Include\GirdLoadHelper.h
; File D:\git\src\IBK\IBK_DRFN\ProjSrc\SrcDrfn\Chart\ExControl\ExGridCtrl.cpp
;	COMDAT ?SetTitleTipTextClr@CExGridCtrl@@QAEXK@Z
_TEXT	SEGMENT
_clr$ = 8						; size = 4
?SetTitleTipTextClr@CExGridCtrl@@QAEXK@Z PROC		; CExGridCtrl::SetTitleTipTextClr, COMDAT
; _this$ = ecx

; 191  : {

  00000	55		 push	 ebp
  00001	8b ec		 mov	 ebp, esp

; 192  : 	m_pLoader->SetTitleTipTextClr(clr);

  00003	8b 81 80 00 00
	00		 mov	 eax, DWORD PTR [ecx+128]
; File D:\git\src\IBK\IBK_DRFN\ProjSrc\SrcDrfn\Chart\ExControl\Include\GirdLoadHelper.h

; 1515 : 		if(!m_hLib)

  00009	83 78 04 00	 cmp	 DWORD PTR [eax+4], 0
  0000d	74 11		 je	 SHORT $LN3@SetTitleTi

; 1516 : 			return;
; 1517 : 
; 1518 : 		pSetTitleTipTextClr(m_lpPointer, clr);

  0000f	ff 75 08	 push	 DWORD PTR _clr$[ebp]
  00012	ff b0 0c 01 00
	00		 push	 DWORD PTR [eax+268]
  00018	8b 80 9c 01 00
	00		 mov	 eax, DWORD PTR [eax+412]
  0001e	ff d0		 call	 eax
$LN3@SetTitleTi:
; File D:\git\src\IBK\IBK_DRFN\ProjSrc\SrcDrfn\Chart\ExControl\ExGridCtrl.cpp

; 193  : }

  00020	5d		 pop	 ebp
  00021	c2 04 00	 ret	 4
?SetTitleTipTextClr@CExGridCtrl@@QAEXK@Z ENDP		; CExGridCtrl::SetTitleTipTextClr
_TEXT	ENDS
; Function compile flags: /Ogtp
; File D:\git\src\IBK\IBK_DRFN\ProjSrc\SrcDrfn\Chart\ExControl\ExGridCtrl.cpp
; File D:\git\src\IBK\IBK_DRFN\ProjSrc\SrcDrfn\Chart\ExControl\Include\GirdLoadHelper.h
; File D:\git\src\IBK\IBK_DRFN\ProjSrc\SrcDrfn\Chart\ExControl\ExGridCtrl.cpp
; File D:\git\src\IBK\IBK_DRFN\ProjSrc\SrcDrfn\Chart\ExControl\Include\GirdLoadHelper.h
; File D:\git\src\IBK\IBK_DRFN\ProjSrc\SrcDrfn\Chart\ExControl\ExGridCtrl.cpp
;	COMDAT ?GetTitleTipBackClr@CExGridCtrl@@QAEKXZ
_TEXT	SEGMENT
?GetTitleTipBackClr@CExGridCtrl@@QAEKXZ PROC		; CExGridCtrl::GetTitleTipBackClr, COMDAT
; _this$ = ecx

; 187  : 	return m_pLoader->GetTitleTipBackClr();

  00000	8b 81 80 00 00
	00		 mov	 eax, DWORD PTR [ecx+128]
; File D:\git\src\IBK\IBK_DRFN\ProjSrc\SrcDrfn\Chart\ExControl\Include\GirdLoadHelper.h

; 1507 : 		if(!m_hLib)

  00006	83 78 04 00	 cmp	 DWORD PTR [eax+4], 0
  0000a	75 03		 jne	 SHORT $LN4@GetTitleTi
; File D:\git\src\IBK\IBK_DRFN\ProjSrc\SrcDrfn\Chart\ExControl\ExGridCtrl.cpp

; 187  : 	return m_pLoader->GetTitleTipBackClr();

  0000c	33 c0		 xor	 eax, eax

; 188  : }

  0000e	c3		 ret	 0
$LN4@GetTitleTi:
; File D:\git\src\IBK\IBK_DRFN\ProjSrc\SrcDrfn\Chart\ExControl\Include\GirdLoadHelper.h

; 1510 : 		return pGetTitleTipBackClr(m_lpPointer);

  0000f	ff b0 0c 01 00
	00		 push	 DWORD PTR [eax+268]
  00015	8b 80 98 01 00
	00		 mov	 eax, DWORD PTR [eax+408]
  0001b	ff d0		 call	 eax
; File D:\git\src\IBK\IBK_DRFN\ProjSrc\SrcDrfn\Chart\ExControl\ExGridCtrl.cpp

; 188  : }

  0001d	c3		 ret	 0
?GetTitleTipBackClr@CExGridCtrl@@QAEKXZ ENDP		; CExGridCtrl::GetTitleTipBackClr
_TEXT	ENDS
; Function compile flags: /Ogtp
; File D:\git\src\IBK\IBK_DRFN\ProjSrc\SrcDrfn\Chart\ExControl\ExGridCtrl.cpp
; File D:\git\src\IBK\IBK_DRFN\ProjSrc\SrcDrfn\Chart\ExControl\Include\GirdLoadHelper.h
; File D:\git\src\IBK\IBK_DRFN\ProjSrc\SrcDrfn\Chart\ExControl\ExGridCtrl.cpp
;	COMDAT ?SetTitleTipBackClr@CExGridCtrl@@QAEXK@Z
_TEXT	SEGMENT
_clr$ = 8						; size = 4
?SetTitleTipBackClr@CExGridCtrl@@QAEXK@Z PROC		; CExGridCtrl::SetTitleTipBackClr, COMDAT
; _this$ = ecx

; 181  : {

  00000	55		 push	 ebp
  00001	8b ec		 mov	 ebp, esp

; 182  : 	m_pLoader->SetTitleTipBackClr(clr);

  00003	8b 81 80 00 00
	00		 mov	 eax, DWORD PTR [ecx+128]
; File D:\git\src\IBK\IBK_DRFN\ProjSrc\SrcDrfn\Chart\ExControl\Include\GirdLoadHelper.h

; 1499 : 		if(!m_hLib)

  00009	83 78 04 00	 cmp	 DWORD PTR [eax+4], 0
  0000d	74 11		 je	 SHORT $LN3@SetTitleTi

; 1500 : 			return;
; 1501 : 
; 1502 : 		pSetTitleTipBackClr(m_lpPointer, clr);

  0000f	ff 75 08	 push	 DWORD PTR _clr$[ebp]
  00012	ff b0 0c 01 00
	00		 push	 DWORD PTR [eax+268]
  00018	8b 80 94 01 00
	00		 mov	 eax, DWORD PTR [eax+404]
  0001e	ff d0		 call	 eax
$LN3@SetTitleTi:
; File D:\git\src\IBK\IBK_DRFN\ProjSrc\SrcDrfn\Chart\ExControl\ExGridCtrl.cpp

; 183  : }

  00020	5d		 pop	 ebp
  00021	c2 04 00	 ret	 4
?SetTitleTipBackClr@CExGridCtrl@@QAEXK@Z ENDP		; CExGridCtrl::SetTitleTipBackClr
_TEXT	ENDS
; Function compile flags: /Ogtp
; File D:\git\src\IBK\IBK_DRFN\ProjSrc\SrcDrfn\Chart\ExControl\ExGridCtrl.cpp
; File D:\git\src\IBK\IBK_DRFN\ProjSrc\SrcDrfn\Chart\ExControl\Include\GirdLoadHelper.h
; File D:\git\src\IBK\IBK_DRFN\ProjSrc\SrcDrfn\Chart\ExControl\ExGridCtrl.cpp
; File D:\git\src\IBK\IBK_DRFN\ProjSrc\SrcDrfn\Chart\ExControl\Include\GirdLoadHelper.h
; File D:\git\src\IBK\IBK_DRFN\ProjSrc\SrcDrfn\Chart\ExControl\ExGridCtrl.cpp
;	COMDAT ?GetGridLineColor@CExGridCtrl@@QAEKXZ
_TEXT	SEGMENT
?GetGridLineColor@CExGridCtrl@@QAEKXZ PROC		; CExGridCtrl::GetGridLineColor, COMDAT
; _this$ = ecx

; 172  : 	return m_pLoader->GetGridLineColor();

  00000	8b 81 80 00 00
	00		 mov	 eax, DWORD PTR [ecx+128]
; File D:\git\src\IBK\IBK_DRFN\ProjSrc\SrcDrfn\Chart\ExControl\Include\GirdLoadHelper.h

; 1491 : 		if(!m_hLib)

  00006	83 78 04 00	 cmp	 DWORD PTR [eax+4], 0
  0000a	75 03		 jne	 SHORT $LN4@GetGridLin
; File D:\git\src\IBK\IBK_DRFN\ProjSrc\SrcDrfn\Chart\ExControl\ExGridCtrl.cpp

; 172  : 	return m_pLoader->GetGridLineColor();

  0000c	33 c0		 xor	 eax, eax

; 173  : }

  0000e	c3		 ret	 0
$LN4@GetGridLin:
; File D:\git\src\IBK\IBK_DRFN\ProjSrc\SrcDrfn\Chart\ExControl\Include\GirdLoadHelper.h

; 1494 : 		return pGetGridLineColor(m_lpPointer);

  0000f	ff b0 0c 01 00
	00		 push	 DWORD PTR [eax+268]
  00015	8b 80 90 01 00
	00		 mov	 eax, DWORD PTR [eax+400]
  0001b	ff d0		 call	 eax
; File D:\git\src\IBK\IBK_DRFN\ProjSrc\SrcDrfn\Chart\ExControl\ExGridCtrl.cpp

; 173  : }

  0001d	c3		 ret	 0
?GetGridLineColor@CExGridCtrl@@QAEKXZ ENDP		; CExGridCtrl::GetGridLineColor
_TEXT	ENDS
; Function compile flags: /Ogtp
; File D:\git\src\IBK\IBK_DRFN\ProjSrc\SrcDrfn\Chart\ExControl\ExGridCtrl.cpp
; File D:\git\src\IBK\IBK_DRFN\ProjSrc\SrcDrfn\Chart\ExControl\Include\GirdLoadHelper.h
; File D:\git\src\IBK\IBK_DRFN\ProjSrc\SrcDrfn\Chart\ExControl\ExGridCtrl.cpp
;	COMDAT ?SetGridLineColor@CExGridCtrl@@QAEXK@Z
_TEXT	SEGMENT
_clr$ = 8						; size = 4
?SetGridLineColor@CExGridCtrl@@QAEXK@Z PROC		; CExGridCtrl::SetGridLineColor, COMDAT
; _this$ = ecx

; 166  : {

  00000	55		 push	 ebp
  00001	8b ec		 mov	 ebp, esp

; 167  : 	m_pLoader->SetGridLineColor(clr);

  00003	8b 81 80 00 00
	00		 mov	 eax, DWORD PTR [ecx+128]
; File D:\git\src\IBK\IBK_DRFN\ProjSrc\SrcDrfn\Chart\ExControl\Include\GirdLoadHelper.h

; 1483 : 		if(!m_hLib)

  00009	83 78 04 00	 cmp	 DWORD PTR [eax+4], 0
  0000d	74 11		 je	 SHORT $LN3@SetGridLin

; 1484 : 			return;
; 1485 : 
; 1486 : 		pSetGridLineColor(m_lpPointer, clr);

  0000f	ff 75 08	 push	 DWORD PTR _clr$[ebp]
  00012	ff b0 0c 01 00
	00		 push	 DWORD PTR [eax+268]
  00018	8b 80 8c 01 00
	00		 mov	 eax, DWORD PTR [eax+396]
  0001e	ff d0		 call	 eax
$LN3@SetGridLin:
; File D:\git\src\IBK\IBK_DRFN\ProjSrc\SrcDrfn\Chart\ExControl\ExGridCtrl.cpp

; 168  : }

  00020	5d		 pop	 ebp
  00021	c2 04 00	 ret	 4
?SetGridLineColor@CExGridCtrl@@QAEXK@Z ENDP		; CExGridCtrl::SetGridLineColor
_TEXT	ENDS
; Function compile flags: /Ogtp
; File D:\git\src\IBK\IBK_DRFN\ProjSrc\SrcDrfn\Chart\ExControl\ExGridCtrl.cpp
; File D:\git\src\IBK\IBK_DRFN\ProjSrc\SrcDrfn\Chart\ExControl\Include\GirdLoadHelper.h
; File D:\git\src\IBK\IBK_DRFN\ProjSrc\SrcDrfn\Chart\ExControl\ExGridCtrl.cpp
; File D:\git\src\IBK\IBK_DRFN\ProjSrc\SrcDrfn\Chart\ExControl\Include\GirdLoadHelper.h
; File D:\git\src\IBK\IBK_DRFN\ProjSrc\SrcDrfn\Chart\ExControl\ExGridCtrl.cpp
;	COMDAT ?GetGridBkColor@CExGridCtrl@@QAEKXZ
_TEXT	SEGMENT
?GetGridBkColor@CExGridCtrl@@QAEKXZ PROC		; CExGridCtrl::GetGridBkColor, COMDAT
; _this$ = ecx

; 162  : 	return m_pLoader->GetGridBkColor();

  00000	8b 81 80 00 00
	00		 mov	 eax, DWORD PTR [ecx+128]
; File D:\git\src\IBK\IBK_DRFN\ProjSrc\SrcDrfn\Chart\ExControl\Include\GirdLoadHelper.h

; 1475 : 		if(!m_hLib)

  00006	83 78 04 00	 cmp	 DWORD PTR [eax+4], 0
  0000a	75 03		 jne	 SHORT $LN4@GetGridBkC
; File D:\git\src\IBK\IBK_DRFN\ProjSrc\SrcDrfn\Chart\ExControl\ExGridCtrl.cpp

; 162  : 	return m_pLoader->GetGridBkColor();

  0000c	33 c0		 xor	 eax, eax

; 163  : }

  0000e	c3		 ret	 0
$LN4@GetGridBkC:
; File D:\git\src\IBK\IBK_DRFN\ProjSrc\SrcDrfn\Chart\ExControl\Include\GirdLoadHelper.h

; 1478 : 		return pGetGridBkColor(m_lpPointer);

  0000f	ff b0 0c 01 00
	00		 push	 DWORD PTR [eax+268]
  00015	8b 80 88 01 00
	00		 mov	 eax, DWORD PTR [eax+392]
  0001b	ff d0		 call	 eax
; File D:\git\src\IBK\IBK_DRFN\ProjSrc\SrcDrfn\Chart\ExControl\ExGridCtrl.cpp

; 163  : }

  0001d	c3		 ret	 0
?GetGridBkColor@CExGridCtrl@@QAEKXZ ENDP		; CExGridCtrl::GetGridBkColor
_TEXT	ENDS
; Function compile flags: /Ogtp
; File D:\git\src\IBK\IBK_DRFN\ProjSrc\SrcDrfn\Chart\ExControl\ExGridCtrl.cpp
; File D:\git\src\IBK\IBK_DRFN\ProjSrc\SrcDrfn\Chart\ExControl\Include\GirdLoadHelper.h
; File D:\git\src\IBK\IBK_DRFN\ProjSrc\SrcDrfn\Chart\ExControl\ExGridCtrl.cpp
;	COMDAT ?SetGridBkColor@CExGridCtrl@@QAEXK@Z
_TEXT	SEGMENT
_clr$ = 8						; size = 4
?SetGridBkColor@CExGridCtrl@@QAEXK@Z PROC		; CExGridCtrl::SetGridBkColor, COMDAT
; _this$ = ecx

; 141  : {

  00000	55		 push	 ebp
  00001	8b ec		 mov	 ebp, esp

; 142  : 	m_pLoader->SetGridBkColor( clr);

  00003	8b 81 80 00 00
	00		 mov	 eax, DWORD PTR [ecx+128]
; File D:\git\src\IBK\IBK_DRFN\ProjSrc\SrcDrfn\Chart\ExControl\Include\GirdLoadHelper.h

; 1467 : 		if(!m_hLib)

  00009	83 78 04 00	 cmp	 DWORD PTR [eax+4], 0
  0000d	74 11		 je	 SHORT $LN3@SetGridBkC

; 1468 : 			return;
; 1469 : 
; 1470 : 		pSetGridBkColor(m_lpPointer, clr);

  0000f	ff 75 08	 push	 DWORD PTR _clr$[ebp]
  00012	ff b0 0c 01 00
	00		 push	 DWORD PTR [eax+268]
  00018	8b 80 84 01 00
	00		 mov	 eax, DWORD PTR [eax+388]
  0001e	ff d0		 call	 eax
$LN3@SetGridBkC:
; File D:\git\src\IBK\IBK_DRFN\ProjSrc\SrcDrfn\Chart\ExControl\ExGridCtrl.cpp

; 143  : }

  00020	5d		 pop	 ebp
  00021	c2 04 00	 ret	 4
?SetGridBkColor@CExGridCtrl@@QAEXK@Z ENDP		; CExGridCtrl::SetGridBkColor
_TEXT	ENDS
; Function compile flags: /Ogtp
; File D:\git\src\IBK\IBK_DRFN\ProjSrc\SrcDrfn\Chart\ExControl\ExGridCtrl.cpp
; File D:\git\src\IBK\IBK_DRFN\ProjSrc\SrcDrfn\Chart\ExControl\Include\GirdLoadHelper.h
; File C:\Program Files (x86)\Microsoft Visual Studio\2019\Community\VC\Tools\MSVC\14.29.30133\atlmfc\include\atltypes.h
; File D:\git\src\IBK\IBK_DRFN\ProjSrc\SrcDrfn\Chart\ExControl\ExGridCtrl.cpp
; File D:\git\src\IBK\IBK_DRFN\ProjSrc\SrcDrfn\Chart\ExControl\Include\GirdLoadHelper.h
; File D:\git\src\IBK\IBK_DRFN\ProjSrc\SrcDrfn\Chart\ExControl\ExGridCtrl.cpp
;	COMDAT ?GetTextExtent@CExGridCtrl@@QAE?AVCSize@@HHPBD@Z
_TEXT	SEGMENT
$T1 = -8						; size = 8
___$ReturnUdt$ = 8					; size = 4
_nRow$ = 12						; size = 4
_nCol$ = 16						; size = 4
_str$ = 20						; size = 4
?GetTextExtent@CExGridCtrl@@QAE?AVCSize@@HHPBD@Z PROC	; CExGridCtrl::GetTextExtent, COMDAT
; _this$ = ecx

; 1697 : {

  00000	55		 push	 ebp
  00001	8b ec		 mov	 ebp, esp

; 1698 : 	return m_pLoader->GetTextExtent(nRow, nCol, str);

  00003	8b 81 80 00 00
	00		 mov	 eax, DWORD PTR [ecx+128]
  00009	83 ec 08	 sub	 esp, 8
; File D:\git\src\IBK\IBK_DRFN\ProjSrc\SrcDrfn\Chart\ExControl\Include\GirdLoadHelper.h

; 1451 : 		if(!m_hLib)

  0000c	83 78 04 00	 cmp	 DWORD PTR [eax+4], 0
  00010	75 16		 jne	 SHORT $LN4@GetTextExt
; File C:\Program Files (x86)\Microsoft Visual Studio\2019\Community\VC\Tools\MSVC\14.29.30133\atlmfc\include\atltypes.h

; 328  : 		cx = (short)LOWORD(dwSize);

  00012	8b 45 08	 mov	 eax, DWORD PTR ___$ReturnUdt$[ebp]
  00015	c7 00 00 00 00
	00		 mov	 DWORD PTR [eax], 0

; 329  : 		cy = (short)HIWORD(dwSize);

  0001b	c7 40 04 00 00
	00 00		 mov	 DWORD PTR [eax+4], 0
; File D:\git\src\IBK\IBK_DRFN\ProjSrc\SrcDrfn\Chart\ExControl\ExGridCtrl.cpp

; 1699 : }

  00022	8b e5		 mov	 esp, ebp
  00024	5d		 pop	 ebp
  00025	c2 10 00	 ret	 16			; 00000010H
$LN4@GetTextExt:
; File D:\git\src\IBK\IBK_DRFN\ProjSrc\SrcDrfn\Chart\ExControl\Include\GirdLoadHelper.h

; 1454 : 		return pGetTextExtent(m_lpPointer, nRow, nCol, str);

  00028	ff 75 14	 push	 DWORD PTR _str$[ebp]
  0002b	8d 4d f8	 lea	 ecx, DWORD PTR $T1[ebp]
  0002e	ff 75 10	 push	 DWORD PTR _nCol$[ebp]
  00031	ff 75 0c	 push	 DWORD PTR _nRow$[ebp]
  00034	ff b0 0c 01 00
	00		 push	 DWORD PTR [eax+268]
  0003a	8b 80 7c 01 00
	00		 mov	 eax, DWORD PTR [eax+380]
  00040	51		 push	 ecx
  00041	ff d0		 call	 eax
  00043	8b 08		 mov	 ecx, DWORD PTR [eax]
  00045	8b 50 04	 mov	 edx, DWORD PTR [eax+4]
  00048	8b 45 08	 mov	 eax, DWORD PTR ___$ReturnUdt$[ebp]
  0004b	89 08		 mov	 DWORD PTR [eax], ecx
  0004d	89 50 04	 mov	 DWORD PTR [eax+4], edx
; File D:\git\src\IBK\IBK_DRFN\ProjSrc\SrcDrfn\Chart\ExControl\ExGridCtrl.cpp

; 1699 : }

  00050	8b e5		 mov	 esp, ebp
  00052	5d		 pop	 ebp
  00053	c2 10 00	 ret	 16			; 00000010H
?GetTextExtent@CExGridCtrl@@QAE?AVCSize@@HHPBD@Z ENDP	; CExGridCtrl::GetTextExtent
_TEXT	ENDS
; Function compile flags: /Ogtp
; File D:\git\src\IBK\IBK_DRFN\ProjSrc\SrcDrfn\Chart\ExControl\ExGridCtrl.cpp
; File D:\git\src\IBK\IBK_DRFN\ProjSrc\SrcDrfn\Chart\ExControl\Include\GirdLoadHelper.h
; File D:\git\src\IBK\IBK_DRFN\ProjSrc\SrcDrfn\Chart\ExControl\ExGridCtrl.cpp
; File D:\git\src\IBK\IBK_DRFN\ProjSrc\SrcDrfn\Chart\ExControl\Include\GirdLoadHelper.h
; File D:\git\src\IBK\IBK_DRFN\ProjSrc\SrcDrfn\Chart\ExControl\ExGridCtrl.cpp
;	COMDAT ?GetVirtualHeight@CExGridCtrl@@QAEJXZ
_TEXT	SEGMENT
?GetVirtualHeight@CExGridCtrl@@QAEJXZ PROC		; CExGridCtrl::GetVirtualHeight, COMDAT
; _this$ = ecx

; 1423 : 	return m_pLoader->GetVirtualHeight();

  00000	8b 81 80 00 00
	00		 mov	 eax, DWORD PTR [ecx+128]
; File D:\git\src\IBK\IBK_DRFN\ProjSrc\SrcDrfn\Chart\ExControl\Include\GirdLoadHelper.h

; 1443 : 		if(!m_hLib)

  00006	83 78 04 00	 cmp	 DWORD PTR [eax+4], 0
  0000a	75 03		 jne	 SHORT $LN4@GetVirtual
; File D:\git\src\IBK\IBK_DRFN\ProjSrc\SrcDrfn\Chart\ExControl\ExGridCtrl.cpp

; 1423 : 	return m_pLoader->GetVirtualHeight();

  0000c	33 c0		 xor	 eax, eax

; 1424 : }

  0000e	c3		 ret	 0
$LN4@GetVirtual:
; File D:\git\src\IBK\IBK_DRFN\ProjSrc\SrcDrfn\Chart\ExControl\Include\GirdLoadHelper.h

; 1446 : 		return pGetVirtualHeight(m_lpPointer);

  0000f	ff b0 0c 01 00
	00		 push	 DWORD PTR [eax+268]
  00015	8b 80 78 01 00
	00		 mov	 eax, DWORD PTR [eax+376]
  0001b	ff d0		 call	 eax
; File D:\git\src\IBK\IBK_DRFN\ProjSrc\SrcDrfn\Chart\ExControl\ExGridCtrl.cpp

; 1424 : }

  0001d	c3		 ret	 0
?GetVirtualHeight@CExGridCtrl@@QAEJXZ ENDP		; CExGridCtrl::GetVirtualHeight
_TEXT	ENDS
; Function compile flags: /Ogtp
; File D:\git\src\IBK\IBK_DRFN\ProjSrc\SrcDrfn\Chart\ExControl\ExGridCtrl.cpp
; File D:\git\src\IBK\IBK_DRFN\ProjSrc\SrcDrfn\Chart\ExControl\Include\GirdLoadHelper.h
; File D:\git\src\IBK\IBK_DRFN\ProjSrc\SrcDrfn\Chart\ExControl\ExGridCtrl.cpp
; File D:\git\src\IBK\IBK_DRFN\ProjSrc\SrcDrfn\Chart\ExControl\Include\GirdLoadHelper.h
; File D:\git\src\IBK\IBK_DRFN\ProjSrc\SrcDrfn\Chart\ExControl\ExGridCtrl.cpp
;	COMDAT ?GetVirtualWidth@CExGridCtrl@@QAEJXZ
_TEXT	SEGMENT
?GetVirtualWidth@CExGridCtrl@@QAEJXZ PROC		; CExGridCtrl::GetVirtualWidth, COMDAT
; _this$ = ecx

; 1418 : 	return m_pLoader->GetVirtualWidth();

  00000	8b 81 80 00 00
	00		 mov	 eax, DWORD PTR [ecx+128]
; File D:\git\src\IBK\IBK_DRFN\ProjSrc\SrcDrfn\Chart\ExControl\Include\GirdLoadHelper.h

; 1435 : 		if(!m_hLib)

  00006	83 78 04 00	 cmp	 DWORD PTR [eax+4], 0
  0000a	75 03		 jne	 SHORT $LN4@GetVirtual
; File D:\git\src\IBK\IBK_DRFN\ProjSrc\SrcDrfn\Chart\ExControl\ExGridCtrl.cpp

; 1418 : 	return m_pLoader->GetVirtualWidth();

  0000c	33 c0		 xor	 eax, eax

; 1419 : }

  0000e	c3		 ret	 0
$LN4@GetVirtual:
; File D:\git\src\IBK\IBK_DRFN\ProjSrc\SrcDrfn\Chart\ExControl\Include\GirdLoadHelper.h

; 1438 : 		return pGetVirtualWidth(m_lpPointer);

  0000f	ff b0 0c 01 00
	00		 push	 DWORD PTR [eax+268]
  00015	8b 80 74 01 00
	00		 mov	 eax, DWORD PTR [eax+372]
  0001b	ff d0		 call	 eax
; File D:\git\src\IBK\IBK_DRFN\ProjSrc\SrcDrfn\Chart\ExControl\ExGridCtrl.cpp

; 1419 : }

  0001d	c3		 ret	 0
?GetVirtualWidth@CExGridCtrl@@QAEJXZ ENDP		; CExGridCtrl::GetVirtualWidth
_TEXT	ENDS
; Function compile flags: /Ogtp
; File D:\git\src\IBK\IBK_DRFN\ProjSrc\SrcDrfn\Chart\ExControl\ExGridCtrl.cpp
; File D:\git\src\IBK\IBK_DRFN\ProjSrc\SrcDrfn\Chart\ExControl\Include\GirdLoadHelper.h
; File D:\git\src\IBK\IBK_DRFN\ProjSrc\SrcDrfn\Chart\ExControl\ExGridCtrl.cpp
; File D:\git\src\IBK\IBK_DRFN\ProjSrc\SrcDrfn\Chart\ExControl\Include\GirdLoadHelper.h
; File D:\git\src\IBK\IBK_DRFN\ProjSrc\SrcDrfn\Chart\ExControl\ExGridCtrl.cpp
;	COMDAT ?GetFixedColumnWidth@CExGridCtrl@@QAEHXZ
_TEXT	SEGMENT
?GetFixedColumnWidth@CExGridCtrl@@QAEHXZ PROC		; CExGridCtrl::GetFixedColumnWidth, COMDAT
; _this$ = ecx

; 1453 : 	return m_pLoader->GetFixedColumnWidth();

  00000	8b 81 80 00 00
	00		 mov	 eax, DWORD PTR [ecx+128]
; File D:\git\src\IBK\IBK_DRFN\ProjSrc\SrcDrfn\Chart\ExControl\Include\GirdLoadHelper.h

; 1427 : 		if(!m_hLib)

  00006	83 78 04 00	 cmp	 DWORD PTR [eax+4], 0
  0000a	75 04		 jne	 SHORT $LN4@GetFixedCo
; File D:\git\src\IBK\IBK_DRFN\ProjSrc\SrcDrfn\Chart\ExControl\ExGridCtrl.cpp

; 1453 : 	return m_pLoader->GetFixedColumnWidth();

  0000c	83 c8 ff	 or	 eax, -1

; 1454 : }

  0000f	c3		 ret	 0
$LN4@GetFixedCo:
; File D:\git\src\IBK\IBK_DRFN\ProjSrc\SrcDrfn\Chart\ExControl\Include\GirdLoadHelper.h

; 1430 : 		return pGetFixedColumnWidth(m_lpPointer);

  00010	ff b0 0c 01 00
	00		 push	 DWORD PTR [eax+268]
  00016	8b 80 70 01 00
	00		 mov	 eax, DWORD PTR [eax+368]
  0001c	ff d0		 call	 eax
; File D:\git\src\IBK\IBK_DRFN\ProjSrc\SrcDrfn\Chart\ExControl\ExGridCtrl.cpp

; 1454 : }

  0001e	c3		 ret	 0
?GetFixedColumnWidth@CExGridCtrl@@QAEHXZ ENDP		; CExGridCtrl::GetFixedColumnWidth
_TEXT	ENDS
; Function compile flags: /Ogtp
; File D:\git\src\IBK\IBK_DRFN\ProjSrc\SrcDrfn\Chart\ExControl\ExGridCtrl.cpp
; File D:\git\src\IBK\IBK_DRFN\ProjSrc\SrcDrfn\Chart\ExControl\Include\GirdLoadHelper.h
; File D:\git\src\IBK\IBK_DRFN\ProjSrc\SrcDrfn\Chart\ExControl\ExGridCtrl.cpp
; File D:\git\src\IBK\IBK_DRFN\ProjSrc\SrcDrfn\Chart\ExControl\Include\GirdLoadHelper.h
; File D:\git\src\IBK\IBK_DRFN\ProjSrc\SrcDrfn\Chart\ExControl\ExGridCtrl.cpp
;	COMDAT ?GetFixedRowHeight@CExGridCtrl@@QAEHXZ
_TEXT	SEGMENT
?GetFixedRowHeight@CExGridCtrl@@QAEHXZ PROC		; CExGridCtrl::GetFixedRowHeight, COMDAT
; _this$ = ecx

; 1448 : 	return m_pLoader->GetFixedRowHeight();

  00000	8b 81 80 00 00
	00		 mov	 eax, DWORD PTR [ecx+128]
; File D:\git\src\IBK\IBK_DRFN\ProjSrc\SrcDrfn\Chart\ExControl\Include\GirdLoadHelper.h

; 1419 : 		if(!m_hLib)

  00006	83 78 04 00	 cmp	 DWORD PTR [eax+4], 0
  0000a	75 04		 jne	 SHORT $LN4@GetFixedRo
; File D:\git\src\IBK\IBK_DRFN\ProjSrc\SrcDrfn\Chart\ExControl\ExGridCtrl.cpp

; 1448 : 	return m_pLoader->GetFixedRowHeight();

  0000c	83 c8 ff	 or	 eax, -1

; 1449 : }

  0000f	c3		 ret	 0
$LN4@GetFixedRo:
; File D:\git\src\IBK\IBK_DRFN\ProjSrc\SrcDrfn\Chart\ExControl\Include\GirdLoadHelper.h

; 1422 : 		return pGetFixedRowHeight(m_lpPointer);

  00010	ff b0 0c 01 00
	00		 push	 DWORD PTR [eax+268]
  00016	8b 80 6c 01 00
	00		 mov	 eax, DWORD PTR [eax+364]
  0001c	ff d0		 call	 eax
; File D:\git\src\IBK\IBK_DRFN\ProjSrc\SrcDrfn\Chart\ExControl\ExGridCtrl.cpp

; 1449 : }

  0001e	c3		 ret	 0
?GetFixedRowHeight@CExGridCtrl@@QAEHXZ ENDP		; CExGridCtrl::GetFixedRowHeight
_TEXT	ENDS
; Function compile flags: /Ogtp
; File D:\git\src\IBK\IBK_DRFN\ProjSrc\SrcDrfn\Chart\ExControl\ExGridCtrl.cpp
; File D:\git\src\IBK\IBK_DRFN\ProjSrc\SrcDrfn\Chart\ExControl\Include\GirdLoadHelper.h
; File D:\git\src\IBK\IBK_DRFN\ProjSrc\SrcDrfn\Inc\_COMMON\CellRange.h
; File D:\git\src\IBK\IBK_DRFN\ProjSrc\SrcDrfn\Chart\ExControl\ExGridCtrl.cpp
; File D:\git\src\IBK\IBK_DRFN\ProjSrc\SrcDrfn\Chart\ExControl\Include\GirdLoadHelper.h
; File D:\git\src\IBK\IBK_DRFN\ProjSrc\SrcDrfn\Chart\ExControl\ExGridCtrl.cpp
;	COMDAT ?GetCellFromPt@CExGridCtrl@@QAE?AVCCellID@@VCPoint@@H@Z
_TEXT	SEGMENT
$T1 = -8						; size = 8
___$ReturnUdt$ = 8					; size = 4
_point$ = 12						; size = 8
_bAllowFixedCellCheck$ = 20				; size = 4
?GetCellFromPt@CExGridCtrl@@QAE?AVCCellID@@VCPoint@@H@Z PROC ; CExGridCtrl::GetCellFromPt, COMDAT
; _this$ = ecx

; 1055 : {

  00000	55		 push	 ebp
  00001	8b ec		 mov	 ebp, esp

; 1056 : 	return m_pLoader->GetCellFromPt(point, bAllowFixedCellCheck);

  00003	8b 81 80 00 00
	00		 mov	 eax, DWORD PTR [ecx+128]
  00009	83 ec 08	 sub	 esp, 8
; File D:\git\src\IBK\IBK_DRFN\ProjSrc\SrcDrfn\Chart\ExControl\Include\GirdLoadHelper.h

; 1410 : 		if(!m_hLib)

  0000c	83 78 04 00	 cmp	 DWORD PTR [eax+4], 0
  00010	75 16		 jne	 SHORT $LN4@GetCellFro
; File D:\git\src\IBK\IBK_DRFN\ProjSrc\SrcDrfn\Inc\_COMMON\CellRange.h

; 45   :     explicit CCellID(int nRow = -1, int nCol = -1) : row(nRow), col(nCol) {}

  00012	8b 45 08	 mov	 eax, DWORD PTR ___$ReturnUdt$[ebp]
  00015	c7 00 ff ff ff
	ff		 mov	 DWORD PTR [eax], -1
  0001b	c7 40 04 ff ff
	ff ff		 mov	 DWORD PTR [eax+4], -1
; File D:\git\src\IBK\IBK_DRFN\ProjSrc\SrcDrfn\Chart\ExControl\ExGridCtrl.cpp

; 1057 : }

  00022	8b e5		 mov	 esp, ebp
  00024	5d		 pop	 ebp
  00025	c2 10 00	 ret	 16			; 00000010H
$LN4@GetCellFro:
; File D:\git\src\IBK\IBK_DRFN\ProjSrc\SrcDrfn\Chart\ExControl\Include\GirdLoadHelper.h

; 1414 : 		return pGetCellFromPt(m_lpPointer, point, bAllowFixedCellCheck);

  00028	ff 75 14	 push	 DWORD PTR _bAllowFixedCellCheck$[ebp]
  0002b	8d 4d f8	 lea	 ecx, DWORD PTR $T1[ebp]
  0002e	ff 75 10	 push	 DWORD PTR _point$[ebp+4]
  00031	ff 75 0c	 push	 DWORD PTR _point$[ebp]
  00034	ff b0 0c 01 00
	00		 push	 DWORD PTR [eax+268]
  0003a	8b 80 68 01 00
	00		 mov	 eax, DWORD PTR [eax+360]
  00040	51		 push	 ecx
  00041	ff d0		 call	 eax
  00043	8b 08		 mov	 ecx, DWORD PTR [eax]
  00045	8b 50 04	 mov	 edx, DWORD PTR [eax+4]
  00048	8b 45 08	 mov	 eax, DWORD PTR ___$ReturnUdt$[ebp]
  0004b	89 08		 mov	 DWORD PTR [eax], ecx
  0004d	89 50 04	 mov	 DWORD PTR [eax+4], edx
; File D:\git\src\IBK\IBK_DRFN\ProjSrc\SrcDrfn\Chart\ExControl\ExGridCtrl.cpp

; 1057 : }

  00050	8b e5		 mov	 esp, ebp
  00052	5d		 pop	 ebp
  00053	c2 10 00	 ret	 16			; 00000010H
?GetCellFromPt@CExGridCtrl@@QAE?AVCCellID@@VCPoint@@H@Z ENDP ; CExGridCtrl::GetCellFromPt
_TEXT	ENDS
; Function compile flags: /Ogtp
; File D:\git\src\IBK\IBK_DRFN\ProjSrc\SrcDrfn\Chart\ExControl\ExGridCtrl.cpp
; File D:\git\src\IBK\IBK_DRFN\ProjSrc\SrcDrfn\Chart\ExControl\Include\GirdLoadHelper.h
; File D:\git\src\IBK\IBK_DRFN\ProjSrc\SrcDrfn\Chart\ExControl\ExGridCtrl.cpp
; File D:\git\src\IBK\IBK_DRFN\ProjSrc\SrcDrfn\Chart\ExControl\Include\GirdLoadHelper.h
; File D:\git\src\IBK\IBK_DRFN\ProjSrc\SrcDrfn\Chart\ExControl\ExGridCtrl.cpp
;	COMDAT ?GetTextRect@CExGridCtrl@@QAEHHHPAUtagRECT@@@Z
_TEXT	SEGMENT
_nRow$ = 8						; size = 4
_nCol$ = 12						; size = 4
_pRect$ = 16						; size = 4
?GetTextRect@CExGridCtrl@@QAEHHHPAUtagRECT@@@Z PROC	; CExGridCtrl::GetTextRect, COMDAT
; _this$ = ecx

; 1148 : {

  00000	55		 push	 ebp
  00001	8b ec		 mov	 ebp, esp

; 1149 : 	return m_pLoader->GetTextRect(nRow, nCol, pRect);

  00003	8b 81 80 00 00
	00		 mov	 eax, DWORD PTR [ecx+128]
; File D:\git\src\IBK\IBK_DRFN\ProjSrc\SrcDrfn\Chart\ExControl\Include\GirdLoadHelper.h

; 1402 : 		if(!m_hLib)

  00009	83 78 04 00	 cmp	 DWORD PTR [eax+4], 0
  0000d	75 06		 jne	 SHORT $LN4@GetTextRec
; File D:\git\src\IBK\IBK_DRFN\ProjSrc\SrcDrfn\Chart\ExControl\ExGridCtrl.cpp

; 1149 : 	return m_pLoader->GetTextRect(nRow, nCol, pRect);

  0000f	33 c0		 xor	 eax, eax

; 1150 : }

  00011	5d		 pop	 ebp
  00012	c2 0c 00	 ret	 12			; 0000000cH
$LN4@GetTextRec:
; File D:\git\src\IBK\IBK_DRFN\ProjSrc\SrcDrfn\Chart\ExControl\Include\GirdLoadHelper.h

; 1405 : 		return pGetTextRect2(m_lpPointer, nRow, nCol, pRect);

  00015	ff 75 10	 push	 DWORD PTR _pRect$[ebp]
  00018	ff 75 0c	 push	 DWORD PTR _nCol$[ebp]
  0001b	ff 75 08	 push	 DWORD PTR _nRow$[ebp]
  0001e	ff b0 0c 01 00
	00		 push	 DWORD PTR [eax+268]
  00024	8b 80 64 01 00
	00		 mov	 eax, DWORD PTR [eax+356]
  0002a	ff d0		 call	 eax
; File D:\git\src\IBK\IBK_DRFN\ProjSrc\SrcDrfn\Chart\ExControl\ExGridCtrl.cpp

; 1150 : }

  0002c	5d		 pop	 ebp
  0002d	c2 0c 00	 ret	 12			; 0000000cH
?GetTextRect@CExGridCtrl@@QAEHHHPAUtagRECT@@@Z ENDP	; CExGridCtrl::GetTextRect
_TEXT	ENDS
; Function compile flags: /Ogtp
; File D:\git\src\IBK\IBK_DRFN\ProjSrc\SrcDrfn\Chart\ExControl\ExGridCtrl.cpp
; File D:\git\src\IBK\IBK_DRFN\ProjSrc\SrcDrfn\Chart\ExControl\Include\GirdLoadHelper.h
; File D:\git\src\IBK\IBK_DRFN\ProjSrc\SrcDrfn\Chart\ExControl\ExGridCtrl.cpp
; File D:\git\src\IBK\IBK_DRFN\ProjSrc\SrcDrfn\Chart\ExControl\Include\GirdLoadHelper.h
; File D:\git\src\IBK\IBK_DRFN\ProjSrc\SrcDrfn\Chart\ExControl\ExGridCtrl.cpp
;	COMDAT ?GetTextRect@CExGridCtrl@@QAEHAAVCCellID@@PAUtagRECT@@@Z
_TEXT	SEGMENT
_cell$ = 8						; size = 4
_pRect$ = 12						; size = 4
?GetTextRect@CExGridCtrl@@QAEHAAVCCellID@@PAUtagRECT@@@Z PROC ; CExGridCtrl::GetTextRect, COMDAT
; _this$ = ecx

; 1143 : {

  00000	55		 push	 ebp
  00001	8b ec		 mov	 ebp, esp

; 1144 : 	return m_pLoader->GetTextRect(cell, pRect);

  00003	8b 81 80 00 00
	00		 mov	 eax, DWORD PTR [ecx+128]
; File D:\git\src\IBK\IBK_DRFN\ProjSrc\SrcDrfn\Chart\ExControl\Include\GirdLoadHelper.h

; 1394 : 		if(!m_hLib)

  00009	83 78 04 00	 cmp	 DWORD PTR [eax+4], 0
  0000d	75 06		 jne	 SHORT $LN4@GetTextRec
; File D:\git\src\IBK\IBK_DRFN\ProjSrc\SrcDrfn\Chart\ExControl\ExGridCtrl.cpp

; 1144 : 	return m_pLoader->GetTextRect(cell, pRect);

  0000f	33 c0		 xor	 eax, eax

; 1145 : }

  00011	5d		 pop	 ebp
  00012	c2 08 00	 ret	 8
$LN4@GetTextRec:
; File D:\git\src\IBK\IBK_DRFN\ProjSrc\SrcDrfn\Chart\ExControl\Include\GirdLoadHelper.h

; 1397 : 		return pGetTextRect(m_lpPointer, cell, pRect);

  00015	ff 75 0c	 push	 DWORD PTR _pRect$[ebp]
  00018	ff 75 08	 push	 DWORD PTR _cell$[ebp]
  0001b	ff b0 0c 01 00
	00		 push	 DWORD PTR [eax+268]
  00021	8b 80 60 01 00
	00		 mov	 eax, DWORD PTR [eax+352]
  00027	ff d0		 call	 eax
; File D:\git\src\IBK\IBK_DRFN\ProjSrc\SrcDrfn\Chart\ExControl\ExGridCtrl.cpp

; 1145 : }

  00029	5d		 pop	 ebp
  0002a	c2 08 00	 ret	 8
?GetTextRect@CExGridCtrl@@QAEHAAVCCellID@@PAUtagRECT@@@Z ENDP ; CExGridCtrl::GetTextRect
_TEXT	ENDS
; Function compile flags: /Ogtp
; File D:\git\src\IBK\IBK_DRFN\ProjSrc\SrcDrfn\Chart\ExControl\ExGridCtrl.cpp
; File D:\git\src\IBK\IBK_DRFN\ProjSrc\SrcDrfn\Chart\ExControl\Include\GirdLoadHelper.h
; File D:\git\src\IBK\IBK_DRFN\ProjSrc\SrcDrfn\Chart\ExControl\ExGridCtrl.cpp
; File D:\git\src\IBK\IBK_DRFN\ProjSrc\SrcDrfn\Chart\ExControl\Include\GirdLoadHelper.h
; File D:\git\src\IBK\IBK_DRFN\ProjSrc\SrcDrfn\Chart\ExControl\ExGridCtrl.cpp
;	COMDAT ?GetCellRect@CExGridCtrl@@QAEHAAVCCellID@@PAUtagRECT@@@Z
_TEXT	SEGMENT
_cell$ = 8						; size = 4
_pRect$ = 12						; size = 4
?GetCellRect@CExGridCtrl@@QAEHAAVCCellID@@PAUtagRECT@@@Z PROC ; CExGridCtrl::GetCellRect, COMDAT
; _this$ = ecx

; 1133 : {

  00000	55		 push	 ebp
  00001	8b ec		 mov	 ebp, esp

; 1134 : 	return m_pLoader->GetCellRect(cell, pRect);

  00003	8b 81 80 00 00
	00		 mov	 eax, DWORD PTR [ecx+128]
; File D:\git\src\IBK\IBK_DRFN\ProjSrc\SrcDrfn\Chart\ExControl\Include\GirdLoadHelper.h

; 1386 : 		if(!m_hLib)

  00009	83 78 04 00	 cmp	 DWORD PTR [eax+4], 0
  0000d	75 06		 jne	 SHORT $LN4@GetCellRec
; File D:\git\src\IBK\IBK_DRFN\ProjSrc\SrcDrfn\Chart\ExControl\ExGridCtrl.cpp

; 1134 : 	return m_pLoader->GetCellRect(cell, pRect);

  0000f	33 c0		 xor	 eax, eax

; 1135 : }

  00011	5d		 pop	 ebp
  00012	c2 08 00	 ret	 8
$LN4@GetCellRec:
; File D:\git\src\IBK\IBK_DRFN\ProjSrc\SrcDrfn\Chart\ExControl\Include\GirdLoadHelper.h

; 1389 : 		return pGetCellRect2(m_lpPointer, cell, pRect);

  00015	ff 75 0c	 push	 DWORD PTR _pRect$[ebp]
  00018	ff 75 08	 push	 DWORD PTR _cell$[ebp]
  0001b	ff b0 0c 01 00
	00		 push	 DWORD PTR [eax+268]
  00021	8b 80 5c 01 00
	00		 mov	 eax, DWORD PTR [eax+348]
  00027	ff d0		 call	 eax
; File D:\git\src\IBK\IBK_DRFN\ProjSrc\SrcDrfn\Chart\ExControl\ExGridCtrl.cpp

; 1135 : }

  00029	5d		 pop	 ebp
  0002a	c2 08 00	 ret	 8
?GetCellRect@CExGridCtrl@@QAEHAAVCCellID@@PAUtagRECT@@@Z ENDP ; CExGridCtrl::GetCellRect
_TEXT	ENDS
; Function compile flags: /Ogtp
; File D:\git\src\IBK\IBK_DRFN\ProjSrc\SrcDrfn\Chart\ExControl\ExGridCtrl.cpp
; File D:\git\src\IBK\IBK_DRFN\ProjSrc\SrcDrfn\Chart\ExControl\Include\GirdLoadHelper.h
; File D:\git\src\IBK\IBK_DRFN\ProjSrc\SrcDrfn\Chart\ExControl\ExGridCtrl.cpp
; File D:\git\src\IBK\IBK_DRFN\ProjSrc\SrcDrfn\Chart\ExControl\Include\GirdLoadHelper.h
; File D:\git\src\IBK\IBK_DRFN\ProjSrc\SrcDrfn\Chart\ExControl\ExGridCtrl.cpp
;	COMDAT ?GetCellRect@CExGridCtrl@@QAEHHHPAUtagRECT@@@Z
_TEXT	SEGMENT
_nRow$ = 8						; size = 4
_nCol$ = 12						; size = 4
_pRect$ = 16						; size = 4
?GetCellRect@CExGridCtrl@@QAEHHHPAUtagRECT@@@Z PROC	; CExGridCtrl::GetCellRect, COMDAT
; _this$ = ecx

; 1138 : {

  00000	55		 push	 ebp
  00001	8b ec		 mov	 ebp, esp

; 1139 : 	return m_pLoader->GetCellRect(nRow, nCol, pRect);

  00003	8b 81 80 00 00
	00		 mov	 eax, DWORD PTR [ecx+128]
; File D:\git\src\IBK\IBK_DRFN\ProjSrc\SrcDrfn\Chart\ExControl\Include\GirdLoadHelper.h

; 1378 : 		if(!m_hLib)

  00009	83 78 04 00	 cmp	 DWORD PTR [eax+4], 0
  0000d	75 06		 jne	 SHORT $LN4@GetCellRec
; File D:\git\src\IBK\IBK_DRFN\ProjSrc\SrcDrfn\Chart\ExControl\ExGridCtrl.cpp

; 1139 : 	return m_pLoader->GetCellRect(nRow, nCol, pRect);

  0000f	33 c0		 xor	 eax, eax

; 1140 : }

  00011	5d		 pop	 ebp
  00012	c2 0c 00	 ret	 12			; 0000000cH
$LN4@GetCellRec:
; File D:\git\src\IBK\IBK_DRFN\ProjSrc\SrcDrfn\Chart\ExControl\Include\GirdLoadHelper.h

; 1381 : 		return pGetCellRect(m_lpPointer, nRow, nCol, pRect);

  00015	ff 75 10	 push	 DWORD PTR _pRect$[ebp]
  00018	ff 75 0c	 push	 DWORD PTR _nCol$[ebp]
  0001b	ff 75 08	 push	 DWORD PTR _nRow$[ebp]
  0001e	ff b0 0c 01 00
	00		 push	 DWORD PTR [eax+268]
  00024	8b 80 58 01 00
	00		 mov	 eax, DWORD PTR [eax+344]
  0002a	ff d0		 call	 eax
; File D:\git\src\IBK\IBK_DRFN\ProjSrc\SrcDrfn\Chart\ExControl\ExGridCtrl.cpp

; 1140 : }

  0002c	5d		 pop	 ebp
  0002d	c2 0c 00	 ret	 12			; 0000000cH
?GetCellRect@CExGridCtrl@@QAEHHHPAUtagRECT@@@Z ENDP	; CExGridCtrl::GetCellRect
_TEXT	ENDS
; Function compile flags: /Ogtp
; File D:\git\src\IBK\IBK_DRFN\ProjSrc\SrcDrfn\Chart\ExControl\ExGridCtrl.cpp
; File D:\git\src\IBK\IBK_DRFN\ProjSrc\SrcDrfn\Chart\ExControl\Include\GirdLoadHelper.h
; File D:\git\src\IBK\IBK_DRFN\ProjSrc\SrcDrfn\Chart\ExControl\ExGridCtrl.cpp
; File D:\git\src\IBK\IBK_DRFN\ProjSrc\SrcDrfn\Chart\ExControl\Include\GirdLoadHelper.h
; File D:\git\src\IBK\IBK_DRFN\ProjSrc\SrcDrfn\Chart\ExControl\ExGridCtrl.cpp
;	COMDAT ?GetCellOrigin@CExGridCtrl@@QAEHAAVCCellID@@PAUtagPOINT@@@Z
_TEXT	SEGMENT
_cell$ = 8						; size = 4
_p$ = 12						; size = 4
?GetCellOrigin@CExGridCtrl@@QAEHAAVCCellID@@PAUtagPOINT@@@Z PROC ; CExGridCtrl::GetCellOrigin, COMDAT
; _this$ = ecx

; 1128 : {

  00000	55		 push	 ebp
  00001	8b ec		 mov	 ebp, esp

; 1129 : 	return m_pLoader->GetCellOrigin(cell, p);

  00003	8b 81 80 00 00
	00		 mov	 eax, DWORD PTR [ecx+128]
; File D:\git\src\IBK\IBK_DRFN\ProjSrc\SrcDrfn\Chart\ExControl\Include\GirdLoadHelper.h

; 1370 : 		if(!m_hLib)

  00009	83 78 04 00	 cmp	 DWORD PTR [eax+4], 0
  0000d	75 06		 jne	 SHORT $LN4@GetCellOri
; File D:\git\src\IBK\IBK_DRFN\ProjSrc\SrcDrfn\Chart\ExControl\ExGridCtrl.cpp

; 1129 : 	return m_pLoader->GetCellOrigin(cell, p);

  0000f	33 c0		 xor	 eax, eax

; 1130 : }

  00011	5d		 pop	 ebp
  00012	c2 08 00	 ret	 8
$LN4@GetCellOri:
; File D:\git\src\IBK\IBK_DRFN\ProjSrc\SrcDrfn\Chart\ExControl\Include\GirdLoadHelper.h

; 1373 : 		return pGetCellOrigin2(m_lpPointer, cell, p);

  00015	ff 75 0c	 push	 DWORD PTR _p$[ebp]
  00018	ff 75 08	 push	 DWORD PTR _cell$[ebp]
  0001b	ff b0 0c 01 00
	00		 push	 DWORD PTR [eax+268]
  00021	8b 80 54 01 00
	00		 mov	 eax, DWORD PTR [eax+340]
  00027	ff d0		 call	 eax
; File D:\git\src\IBK\IBK_DRFN\ProjSrc\SrcDrfn\Chart\ExControl\ExGridCtrl.cpp

; 1130 : }

  00029	5d		 pop	 ebp
  0002a	c2 08 00	 ret	 8
?GetCellOrigin@CExGridCtrl@@QAEHAAVCCellID@@PAUtagPOINT@@@Z ENDP ; CExGridCtrl::GetCellOrigin
_TEXT	ENDS
; Function compile flags: /Ogtp
; File D:\git\src\IBK\IBK_DRFN\ProjSrc\SrcDrfn\Chart\ExControl\ExGridCtrl.cpp
; File D:\git\src\IBK\IBK_DRFN\ProjSrc\SrcDrfn\Chart\ExControl\Include\GirdLoadHelper.h
; File D:\git\src\IBK\IBK_DRFN\ProjSrc\SrcDrfn\Chart\ExControl\ExGridCtrl.cpp
; File D:\git\src\IBK\IBK_DRFN\ProjSrc\SrcDrfn\Chart\ExControl\Include\GirdLoadHelper.h
; File D:\git\src\IBK\IBK_DRFN\ProjSrc\SrcDrfn\Chart\ExControl\ExGridCtrl.cpp
;	COMDAT ?GetCellOrigin@CExGridCtrl@@QAEHHHPAUtagPOINT@@@Z
_TEXT	SEGMENT
_nRow$ = 8						; size = 4
_nCol$ = 12						; size = 4
_p$ = 16						; size = 4
?GetCellOrigin@CExGridCtrl@@QAEHHHPAUtagPOINT@@@Z PROC	; CExGridCtrl::GetCellOrigin, COMDAT
; _this$ = ecx

; 1123 : {

  00000	55		 push	 ebp
  00001	8b ec		 mov	 ebp, esp

; 1124 : 	return m_pLoader->GetCellOrigin(nRow, nCol, p);

  00003	8b 81 80 00 00
	00		 mov	 eax, DWORD PTR [ecx+128]
; File D:\git\src\IBK\IBK_DRFN\ProjSrc\SrcDrfn\Chart\ExControl\Include\GirdLoadHelper.h

; 1362 : 		if(!m_hLib)

  00009	83 78 04 00	 cmp	 DWORD PTR [eax+4], 0
  0000d	75 06		 jne	 SHORT $LN4@GetCellOri
; File D:\git\src\IBK\IBK_DRFN\ProjSrc\SrcDrfn\Chart\ExControl\ExGridCtrl.cpp

; 1124 : 	return m_pLoader->GetCellOrigin(nRow, nCol, p);

  0000f	33 c0		 xor	 eax, eax

; 1125 : }

  00011	5d		 pop	 ebp
  00012	c2 0c 00	 ret	 12			; 0000000cH
$LN4@GetCellOri:
; File D:\git\src\IBK\IBK_DRFN\ProjSrc\SrcDrfn\Chart\ExControl\Include\GirdLoadHelper.h

; 1365 : 		return pGetCellOrigin(m_lpPointer, nRow, nCol, p);

  00015	ff 75 10	 push	 DWORD PTR _p$[ebp]
  00018	ff 75 0c	 push	 DWORD PTR _nCol$[ebp]
  0001b	ff 75 08	 push	 DWORD PTR _nRow$[ebp]
  0001e	ff b0 0c 01 00
	00		 push	 DWORD PTR [eax+268]
  00024	8b 80 50 01 00
	00		 mov	 eax, DWORD PTR [eax+336]
  0002a	ff d0		 call	 eax
; File D:\git\src\IBK\IBK_DRFN\ProjSrc\SrcDrfn\Chart\ExControl\ExGridCtrl.cpp

; 1125 : }

  0002c	5d		 pop	 ebp
  0002d	c2 0c 00	 ret	 12			; 0000000cH
?GetCellOrigin@CExGridCtrl@@QAEHHHPAUtagPOINT@@@Z ENDP	; CExGridCtrl::GetCellOrigin
_TEXT	ENDS
; Function compile flags: /Ogtp
; File D:\git\src\IBK\IBK_DRFN\ProjSrc\SrcDrfn\Chart\ExControl\ExGridCtrl.cpp
; File D:\git\src\IBK\IBK_DRFN\ProjSrc\SrcDrfn\Chart\ExControl\Include\GirdLoadHelper.h
; File D:\git\src\IBK\IBK_DRFN\ProjSrc\SrcDrfn\Chart\ExControl\ExGridCtrl.cpp
; File D:\git\src\IBK\IBK_DRFN\ProjSrc\SrcDrfn\Chart\ExControl\Include\GirdLoadHelper.h
; File D:\git\src\IBK\IBK_DRFN\ProjSrc\SrcDrfn\Chart\ExControl\ExGridCtrl.cpp
;	COMDAT ?SetColumnWidth@CExGridCtrl@@QAEHHH@Z
_TEXT	SEGMENT
_nCol$ = 8						; size = 4
_width$ = 12						; size = 4
?SetColumnWidth@CExGridCtrl@@QAEHHH@Z PROC		; CExGridCtrl::SetColumnWidth, COMDAT
; _this$ = ecx

; 1442 : {

  00000	55		 push	 ebp
  00001	8b ec		 mov	 ebp, esp

; 1443 : 	return m_pLoader->SetColumnWidth(nCol, width);

  00003	8b 81 80 00 00
	00		 mov	 eax, DWORD PTR [ecx+128]
; File D:\git\src\IBK\IBK_DRFN\ProjSrc\SrcDrfn\Chart\ExControl\Include\GirdLoadHelper.h

; 1354 : 		if(!m_hLib)

  00009	83 78 04 00	 cmp	 DWORD PTR [eax+4], 0
  0000d	75 06		 jne	 SHORT $LN4@SetColumnW
; File D:\git\src\IBK\IBK_DRFN\ProjSrc\SrcDrfn\Chart\ExControl\ExGridCtrl.cpp

; 1443 : 	return m_pLoader->SetColumnWidth(nCol, width);

  0000f	33 c0		 xor	 eax, eax

; 1444 : }

  00011	5d		 pop	 ebp
  00012	c2 08 00	 ret	 8
$LN4@SetColumnW:
; File D:\git\src\IBK\IBK_DRFN\ProjSrc\SrcDrfn\Chart\ExControl\Include\GirdLoadHelper.h

; 1357 : 		return pSetColumnWidth(m_lpPointer, col, width);

  00015	ff 75 0c	 push	 DWORD PTR _width$[ebp]
  00018	ff 75 08	 push	 DWORD PTR _nCol$[ebp]
  0001b	ff b0 0c 01 00
	00		 push	 DWORD PTR [eax+268]
  00021	8b 80 4c 01 00
	00		 mov	 eax, DWORD PTR [eax+332]
  00027	ff d0		 call	 eax
; File D:\git\src\IBK\IBK_DRFN\ProjSrc\SrcDrfn\Chart\ExControl\ExGridCtrl.cpp

; 1444 : }

  00029	5d		 pop	 ebp
  0002a	c2 08 00	 ret	 8
?SetColumnWidth@CExGridCtrl@@QAEHHH@Z ENDP		; CExGridCtrl::SetColumnWidth
_TEXT	ENDS
; Function compile flags: /Ogtp
; File D:\git\src\IBK\IBK_DRFN\ProjSrc\SrcDrfn\Chart\ExControl\ExGridCtrl.cpp
; File D:\git\src\IBK\IBK_DRFN\ProjSrc\SrcDrfn\Chart\ExControl\Include\GirdLoadHelper.h
; File D:\git\src\IBK\IBK_DRFN\ProjSrc\SrcDrfn\Chart\ExControl\ExGridCtrl.cpp
; File D:\git\src\IBK\IBK_DRFN\ProjSrc\SrcDrfn\Chart\ExControl\Include\GirdLoadHelper.h
; File D:\git\src\IBK\IBK_DRFN\ProjSrc\SrcDrfn\Chart\ExControl\ExGridCtrl.cpp
;	COMDAT ?GetColumnWidth@CExGridCtrl@@QAEHH@Z
_TEXT	SEGMENT
_nCol$ = 8						; size = 4
?GetColumnWidth@CExGridCtrl@@QAEHH@Z PROC		; CExGridCtrl::GetColumnWidth, COMDAT
; _this$ = ecx

; 1432 : {

  00000	55		 push	 ebp
  00001	8b ec		 mov	 ebp, esp

; 1433 : 	return m_pLoader->GetColumnWidth(nCol);

  00003	8b 81 80 00 00
	00		 mov	 eax, DWORD PTR [ecx+128]
; File D:\git\src\IBK\IBK_DRFN\ProjSrc\SrcDrfn\Chart\ExControl\Include\GirdLoadHelper.h

; 1346 : 		if(!m_hLib)

  00009	83 78 04 00	 cmp	 DWORD PTR [eax+4], 0
  0000d	75 07		 jne	 SHORT $LN4@GetColumnW
; File D:\git\src\IBK\IBK_DRFN\ProjSrc\SrcDrfn\Chart\ExControl\ExGridCtrl.cpp

; 1433 : 	return m_pLoader->GetColumnWidth(nCol);

  0000f	83 c8 ff	 or	 eax, -1

; 1434 : }

  00012	5d		 pop	 ebp
  00013	c2 04 00	 ret	 4
$LN4@GetColumnW:
; File D:\git\src\IBK\IBK_DRFN\ProjSrc\SrcDrfn\Chart\ExControl\Include\GirdLoadHelper.h

; 1349 : 		return pGetColumnWidth(m_lpPointer, nCol);

  00016	ff 75 08	 push	 DWORD PTR _nCol$[ebp]
  00019	ff b0 0c 01 00
	00		 push	 DWORD PTR [eax+268]
  0001f	8b 80 48 01 00
	00		 mov	 eax, DWORD PTR [eax+328]
  00025	ff d0		 call	 eax
; File D:\git\src\IBK\IBK_DRFN\ProjSrc\SrcDrfn\Chart\ExControl\ExGridCtrl.cpp

; 1434 : }

  00027	5d		 pop	 ebp
  00028	c2 04 00	 ret	 4
?GetColumnWidth@CExGridCtrl@@QAEHH@Z ENDP		; CExGridCtrl::GetColumnWidth
_TEXT	ENDS
; Function compile flags: /Ogtp
; File D:\git\src\IBK\IBK_DRFN\ProjSrc\SrcDrfn\Chart\ExControl\ExGridCtrl.cpp
; File D:\git\src\IBK\IBK_DRFN\ProjSrc\SrcDrfn\Chart\ExControl\Include\GirdLoadHelper.h
; File D:\git\src\IBK\IBK_DRFN\ProjSrc\SrcDrfn\Chart\ExControl\ExGridCtrl.cpp
; File D:\git\src\IBK\IBK_DRFN\ProjSrc\SrcDrfn\Chart\ExControl\Include\GirdLoadHelper.h
; File D:\git\src\IBK\IBK_DRFN\ProjSrc\SrcDrfn\Chart\ExControl\ExGridCtrl.cpp
;	COMDAT ?SetRowHeight@CExGridCtrl@@QAEHHH@Z
_TEXT	SEGMENT
_nRow$ = 8						; size = 4
_height$ = 12						; size = 4
?SetRowHeight@CExGridCtrl@@QAEHHH@Z PROC		; CExGridCtrl::SetRowHeight, COMDAT
; _this$ = ecx

; 1437 : {

  00000	55		 push	 ebp
  00001	8b ec		 mov	 ebp, esp

; 1438 : 	return m_pLoader->SetRowHeight(nRow, height);

  00003	8b 81 80 00 00
	00		 mov	 eax, DWORD PTR [ecx+128]
; File D:\git\src\IBK\IBK_DRFN\ProjSrc\SrcDrfn\Chart\ExControl\Include\GirdLoadHelper.h

; 1338 : 		if(!m_hLib)

  00009	83 78 04 00	 cmp	 DWORD PTR [eax+4], 0
  0000d	75 06		 jne	 SHORT $LN4@SetRowHeig
; File D:\git\src\IBK\IBK_DRFN\ProjSrc\SrcDrfn\Chart\ExControl\ExGridCtrl.cpp

; 1438 : 	return m_pLoader->SetRowHeight(nRow, height);

  0000f	33 c0		 xor	 eax, eax

; 1439 : }

  00011	5d		 pop	 ebp
  00012	c2 08 00	 ret	 8
$LN4@SetRowHeig:
; File D:\git\src\IBK\IBK_DRFN\ProjSrc\SrcDrfn\Chart\ExControl\Include\GirdLoadHelper.h

; 1341 : 		return pSetRowHeight(m_lpPointer, row, height);

  00015	ff 75 0c	 push	 DWORD PTR _height$[ebp]
  00018	ff 75 08	 push	 DWORD PTR _nRow$[ebp]
  0001b	ff b0 0c 01 00
	00		 push	 DWORD PTR [eax+268]
  00021	8b 80 44 01 00
	00		 mov	 eax, DWORD PTR [eax+324]
  00027	ff d0		 call	 eax
; File D:\git\src\IBK\IBK_DRFN\ProjSrc\SrcDrfn\Chart\ExControl\ExGridCtrl.cpp

; 1439 : }

  00029	5d		 pop	 ebp
  0002a	c2 08 00	 ret	 8
?SetRowHeight@CExGridCtrl@@QAEHHH@Z ENDP		; CExGridCtrl::SetRowHeight
_TEXT	ENDS
; Function compile flags: /Ogtp
; File D:\git\src\IBK\IBK_DRFN\ProjSrc\SrcDrfn\Chart\ExControl\ExGridCtrl.cpp
; File D:\git\src\IBK\IBK_DRFN\ProjSrc\SrcDrfn\Chart\ExControl\Include\GirdLoadHelper.h
; File D:\git\src\IBK\IBK_DRFN\ProjSrc\SrcDrfn\Chart\ExControl\ExGridCtrl.cpp
; File D:\git\src\IBK\IBK_DRFN\ProjSrc\SrcDrfn\Chart\ExControl\Include\GirdLoadHelper.h
; File D:\git\src\IBK\IBK_DRFN\ProjSrc\SrcDrfn\Chart\ExControl\ExGridCtrl.cpp
;	COMDAT ?GetRowHeight@CExGridCtrl@@QAEHH@Z
_TEXT	SEGMENT
_nRow$ = 8						; size = 4
?GetRowHeight@CExGridCtrl@@QAEHH@Z PROC			; CExGridCtrl::GetRowHeight, COMDAT
; _this$ = ecx

; 1427 : {

  00000	55		 push	 ebp
  00001	8b ec		 mov	 ebp, esp

; 1428 : 	return m_pLoader->GetRowHeight(nRow);

  00003	8b 81 80 00 00
	00		 mov	 eax, DWORD PTR [ecx+128]
; File D:\git\src\IBK\IBK_DRFN\ProjSrc\SrcDrfn\Chart\ExControl\Include\GirdLoadHelper.h

; 1330 : 		if(!m_hLib)

  00009	83 78 04 00	 cmp	 DWORD PTR [eax+4], 0
  0000d	75 07		 jne	 SHORT $LN4@GetRowHeig
; File D:\git\src\IBK\IBK_DRFN\ProjSrc\SrcDrfn\Chart\ExControl\ExGridCtrl.cpp

; 1428 : 	return m_pLoader->GetRowHeight(nRow);

  0000f	83 c8 ff	 or	 eax, -1

; 1429 : }

  00012	5d		 pop	 ebp
  00013	c2 04 00	 ret	 4
$LN4@GetRowHeig:
; File D:\git\src\IBK\IBK_DRFN\ProjSrc\SrcDrfn\Chart\ExControl\Include\GirdLoadHelper.h

; 1333 : 		return pGetRowHeight(m_lpPointer, nRow);

  00016	ff 75 08	 push	 DWORD PTR _nRow$[ebp]
  00019	ff b0 0c 01 00
	00		 push	 DWORD PTR [eax+268]
  0001f	8b 80 40 01 00
	00		 mov	 eax, DWORD PTR [eax+320]
  00025	ff d0		 call	 eax
; File D:\git\src\IBK\IBK_DRFN\ProjSrc\SrcDrfn\Chart\ExControl\ExGridCtrl.cpp

; 1429 : }

  00027	5d		 pop	 ebp
  00028	c2 04 00	 ret	 4
?GetRowHeight@CExGridCtrl@@QAEHH@Z ENDP			; CExGridCtrl::GetRowHeight
_TEXT	ENDS
; Function compile flags: /Ogtp
; File D:\git\src\IBK\IBK_DRFN\ProjSrc\SrcDrfn\Chart\ExControl\ExGridCtrl.cpp
; File D:\git\src\IBK\IBK_DRFN\ProjSrc\SrcDrfn\Chart\ExControl\Include\GirdLoadHelper.h
; File D:\git\src\IBK\IBK_DRFN\ProjSrc\SrcDrfn\Chart\ExControl\ExGridCtrl.cpp
; File D:\git\src\IBK\IBK_DRFN\ProjSrc\SrcDrfn\Chart\ExControl\Include\GirdLoadHelper.h
; File D:\git\src\IBK\IBK_DRFN\ProjSrc\SrcDrfn\Chart\ExControl\ExGridCtrl.cpp
;	COMDAT ?SetFixedColumnCount@CExGridCtrl@@QAEHH@Z
_TEXT	SEGMENT
_nFixedCols$ = 8					; size = 4
?SetFixedColumnCount@CExGridCtrl@@QAEHH@Z PROC		; CExGridCtrl::SetFixedColumnCount, COMDAT
; _this$ = ecx

; 1186 : {

  00000	55		 push	 ebp
  00001	8b ec		 mov	 ebp, esp

; 1187 : 	return m_pLoader->SetFixedColumnCount(nFixedCols);

  00003	8b 81 80 00 00
	00		 mov	 eax, DWORD PTR [ecx+128]
; File D:\git\src\IBK\IBK_DRFN\ProjSrc\SrcDrfn\Chart\ExControl\Include\GirdLoadHelper.h

; 1322 : 		if(!m_hLib)

  00009	83 78 04 00	 cmp	 DWORD PTR [eax+4], 0
  0000d	75 06		 jne	 SHORT $LN4@SetFixedCo
; File D:\git\src\IBK\IBK_DRFN\ProjSrc\SrcDrfn\Chart\ExControl\ExGridCtrl.cpp

; 1187 : 	return m_pLoader->SetFixedColumnCount(nFixedCols);

  0000f	33 c0		 xor	 eax, eax

; 1188 : }

  00011	5d		 pop	 ebp
  00012	c2 04 00	 ret	 4
$LN4@SetFixedCo:
; File D:\git\src\IBK\IBK_DRFN\ProjSrc\SrcDrfn\Chart\ExControl\Include\GirdLoadHelper.h

; 1325 : 		return pSetFixedColumnCount(m_lpPointer, nFixedCols);

  00015	ff 75 08	 push	 DWORD PTR _nFixedCols$[ebp]
  00018	ff b0 0c 01 00
	00		 push	 DWORD PTR [eax+268]
  0001e	8b 80 3c 01 00
	00		 mov	 eax, DWORD PTR [eax+316]
  00024	ff d0		 call	 eax
; File D:\git\src\IBK\IBK_DRFN\ProjSrc\SrcDrfn\Chart\ExControl\ExGridCtrl.cpp

; 1188 : }

  00026	5d		 pop	 ebp
  00027	c2 04 00	 ret	 4
?SetFixedColumnCount@CExGridCtrl@@QAEHH@Z ENDP		; CExGridCtrl::SetFixedColumnCount
_TEXT	ENDS
; Function compile flags: /Ogtp
; File D:\git\src\IBK\IBK_DRFN\ProjSrc\SrcDrfn\Chart\ExControl\ExGridCtrl.cpp
; File D:\git\src\IBK\IBK_DRFN\ProjSrc\SrcDrfn\Chart\ExControl\Include\GirdLoadHelper.h
; File D:\git\src\IBK\IBK_DRFN\ProjSrc\SrcDrfn\Chart\ExControl\ExGridCtrl.cpp
; File D:\git\src\IBK\IBK_DRFN\ProjSrc\SrcDrfn\Chart\ExControl\Include\GirdLoadHelper.h
; File D:\git\src\IBK\IBK_DRFN\ProjSrc\SrcDrfn\Chart\ExControl\ExGridCtrl.cpp
;	COMDAT ?SetFixedRowCount@CExGridCtrl@@QAEHH@Z
_TEXT	SEGMENT
_nFixedRows$ = 8					; size = 4
?SetFixedRowCount@CExGridCtrl@@QAEHH@Z PROC		; CExGridCtrl::SetFixedRowCount, COMDAT
; _this$ = ecx

; 1181 : {

  00000	55		 push	 ebp
  00001	8b ec		 mov	 ebp, esp

; 1182 : 	return m_pLoader->SetFixedRowCount(nFixedRows);

  00003	8b 81 80 00 00
	00		 mov	 eax, DWORD PTR [ecx+128]
; File D:\git\src\IBK\IBK_DRFN\ProjSrc\SrcDrfn\Chart\ExControl\Include\GirdLoadHelper.h

; 1314 : 		if(!m_hLib)

  00009	83 78 04 00	 cmp	 DWORD PTR [eax+4], 0
  0000d	75 06		 jne	 SHORT $LN4@SetFixedRo
; File D:\git\src\IBK\IBK_DRFN\ProjSrc\SrcDrfn\Chart\ExControl\ExGridCtrl.cpp

; 1182 : 	return m_pLoader->SetFixedRowCount(nFixedRows);

  0000f	33 c0		 xor	 eax, eax

; 1183 : }

  00011	5d		 pop	 ebp
  00012	c2 04 00	 ret	 4
$LN4@SetFixedRo:
; File D:\git\src\IBK\IBK_DRFN\ProjSrc\SrcDrfn\Chart\ExControl\Include\GirdLoadHelper.h

; 1317 : 		return pSetFixedRowCount(m_lpPointer, nFixedRows);

  00015	ff 75 08	 push	 DWORD PTR _nFixedRows$[ebp]
  00018	ff b0 0c 01 00
	00		 push	 DWORD PTR [eax+268]
  0001e	8b 80 38 01 00
	00		 mov	 eax, DWORD PTR [eax+312]
  00024	ff d0		 call	 eax
; File D:\git\src\IBK\IBK_DRFN\ProjSrc\SrcDrfn\Chart\ExControl\ExGridCtrl.cpp

; 1183 : }

  00026	5d		 pop	 ebp
  00027	c2 04 00	 ret	 4
?SetFixedRowCount@CExGridCtrl@@QAEHH@Z ENDP		; CExGridCtrl::SetFixedRowCount
_TEXT	ENDS
; Function compile flags: /Ogtp
; File D:\git\src\IBK\IBK_DRFN\ProjSrc\SrcDrfn\Chart\ExControl\ExGridCtrl.cpp
; File D:\git\src\IBK\IBK_DRFN\ProjSrc\SrcDrfn\Chart\ExControl\Include\GirdLoadHelper.h
; File D:\git\src\IBK\IBK_DRFN\ProjSrc\SrcDrfn\Chart\ExControl\ExGridCtrl.cpp
; File D:\git\src\IBK\IBK_DRFN\ProjSrc\SrcDrfn\Chart\ExControl\Include\GirdLoadHelper.h
; File D:\git\src\IBK\IBK_DRFN\ProjSrc\SrcDrfn\Chart\ExControl\ExGridCtrl.cpp
;	COMDAT ?SetColumnCount@CExGridCtrl@@QAEHH@Z
_TEXT	SEGMENT
_nCols$ = 8						; size = 4
?SetColumnCount@CExGridCtrl@@QAEHH@Z PROC		; CExGridCtrl::SetColumnCount, COMDAT
; _this$ = ecx

; 1196 : {

  00000	55		 push	 ebp
  00001	8b ec		 mov	 ebp, esp

; 1197 : 	return m_pLoader->SetColumnCount(nCols);

  00003	8b 81 80 00 00
	00		 mov	 eax, DWORD PTR [ecx+128]
; File D:\git\src\IBK\IBK_DRFN\ProjSrc\SrcDrfn\Chart\ExControl\Include\GirdLoadHelper.h

; 1306 : 		if(!m_hLib)

  00009	83 78 04 00	 cmp	 DWORD PTR [eax+4], 0
  0000d	75 06		 jne	 SHORT $LN4@SetColumnC
; File D:\git\src\IBK\IBK_DRFN\ProjSrc\SrcDrfn\Chart\ExControl\ExGridCtrl.cpp

; 1197 : 	return m_pLoader->SetColumnCount(nCols);

  0000f	33 c0		 xor	 eax, eax

; 1198 : }

  00011	5d		 pop	 ebp
  00012	c2 04 00	 ret	 4
$LN4@SetColumnC:
; File D:\git\src\IBK\IBK_DRFN\ProjSrc\SrcDrfn\Chart\ExControl\Include\GirdLoadHelper.h

; 1309 : 		return pSetColumnCount(m_lpPointer, nCols);

  00015	ff 75 08	 push	 DWORD PTR _nCols$[ebp]
  00018	ff b0 0c 01 00
	00		 push	 DWORD PTR [eax+268]
  0001e	8b 80 34 01 00
	00		 mov	 eax, DWORD PTR [eax+308]
  00024	ff d0		 call	 eax
; File D:\git\src\IBK\IBK_DRFN\ProjSrc\SrcDrfn\Chart\ExControl\ExGridCtrl.cpp

; 1198 : }

  00026	5d		 pop	 ebp
  00027	c2 04 00	 ret	 4
?SetColumnCount@CExGridCtrl@@QAEHH@Z ENDP		; CExGridCtrl::SetColumnCount
_TEXT	ENDS
; Function compile flags: /Ogtp
; File D:\git\src\IBK\IBK_DRFN\ProjSrc\SrcDrfn\Chart\ExControl\ExGridCtrl.cpp
; File D:\git\src\IBK\IBK_DRFN\ProjSrc\SrcDrfn\Chart\ExControl\Include\GirdLoadHelper.h
; File D:\git\src\IBK\IBK_DRFN\ProjSrc\SrcDrfn\Chart\ExControl\ExGridCtrl.cpp
; File D:\git\src\IBK\IBK_DRFN\ProjSrc\SrcDrfn\Chart\ExControl\Include\GirdLoadHelper.h
; File D:\git\src\IBK\IBK_DRFN\ProjSrc\SrcDrfn\Chart\ExControl\ExGridCtrl.cpp
;	COMDAT ?SetRowCount@CExGridCtrl@@QAEHH@Z
_TEXT	SEGMENT
_nRows$ = 8						; size = 4
?SetRowCount@CExGridCtrl@@QAEHH@Z PROC			; CExGridCtrl::SetRowCount, COMDAT
; _this$ = ecx

; 1191 : {

  00000	55		 push	 ebp
  00001	8b ec		 mov	 ebp, esp

; 1192 : 	return m_pLoader->SetRowCount(nRows);

  00003	8b 81 80 00 00
	00		 mov	 eax, DWORD PTR [ecx+128]
; File D:\git\src\IBK\IBK_DRFN\ProjSrc\SrcDrfn\Chart\ExControl\Include\GirdLoadHelper.h

; 1298 : 		if(!m_hLib)

  00009	83 78 04 00	 cmp	 DWORD PTR [eax+4], 0
  0000d	75 06		 jne	 SHORT $LN4@SetRowCoun
; File D:\git\src\IBK\IBK_DRFN\ProjSrc\SrcDrfn\Chart\ExControl\ExGridCtrl.cpp

; 1192 : 	return m_pLoader->SetRowCount(nRows);

  0000f	33 c0		 xor	 eax, eax

; 1193 : }

  00011	5d		 pop	 ebp
  00012	c2 04 00	 ret	 4
$LN4@SetRowCoun:
; File D:\git\src\IBK\IBK_DRFN\ProjSrc\SrcDrfn\Chart\ExControl\Include\GirdLoadHelper.h

; 1301 : 		return pSetRowCount(m_lpPointer, nRows);

  00015	ff 75 08	 push	 DWORD PTR _nRows$[ebp]
  00018	ff b0 0c 01 00
	00		 push	 DWORD PTR [eax+268]
  0001e	8b 80 30 01 00
	00		 mov	 eax, DWORD PTR [eax+304]
  00024	ff d0		 call	 eax
; File D:\git\src\IBK\IBK_DRFN\ProjSrc\SrcDrfn\Chart\ExControl\ExGridCtrl.cpp

; 1193 : }

  00026	5d		 pop	 ebp
  00027	c2 04 00	 ret	 4
?SetRowCount@CExGridCtrl@@QAEHH@Z ENDP			; CExGridCtrl::SetRowCount
_TEXT	ENDS
; Function compile flags: /Ogtp
; File D:\git\src\IBK\IBK_DRFN\ProjSrc\SrcDrfn\Chart\ExControl\ExGridCtrl.cpp
; File D:\git\src\IBK\IBK_DRFN\ProjSrc\SrcDrfn\Chart\ExControl\Include\GirdLoadHelper.h
; File D:\git\src\IBK\IBK_DRFN\ProjSrc\SrcDrfn\Chart\ExControl\ExGridCtrl.cpp
; File D:\git\src\IBK\IBK_DRFN\ProjSrc\SrcDrfn\Chart\ExControl\Include\GirdLoadHelper.h
; File D:\git\src\IBK\IBK_DRFN\ProjSrc\SrcDrfn\Chart\ExControl\ExGridCtrl.cpp
;	COMDAT ?GetFixedColumnCount@CExGridCtrl@@QAEHXZ
_TEXT	SEGMENT
?GetFixedColumnCount@CExGridCtrl@@QAEHXZ PROC		; CExGridCtrl::GetFixedColumnCount, COMDAT
; _this$ = ecx

; 137  : 	return m_pLoader->GetFixedColumnCount();

  00000	8b 81 80 00 00
	00		 mov	 eax, DWORD PTR [ecx+128]
; File D:\git\src\IBK\IBK_DRFN\ProjSrc\SrcDrfn\Chart\ExControl\Include\GirdLoadHelper.h

; 1290 : 		if(!m_hLib)

  00006	83 78 04 00	 cmp	 DWORD PTR [eax+4], 0
  0000a	75 04		 jne	 SHORT $LN4@GetFixedCo
; File D:\git\src\IBK\IBK_DRFN\ProjSrc\SrcDrfn\Chart\ExControl\ExGridCtrl.cpp

; 137  : 	return m_pLoader->GetFixedColumnCount();

  0000c	83 c8 ff	 or	 eax, -1

; 138  : }

  0000f	c3		 ret	 0
$LN4@GetFixedCo:
; File D:\git\src\IBK\IBK_DRFN\ProjSrc\SrcDrfn\Chart\ExControl\Include\GirdLoadHelper.h

; 1293 : 		return pGetFixedColumnCount(m_lpPointer);

  00010	ff b0 0c 01 00
	00		 push	 DWORD PTR [eax+268]
  00016	8b 80 2c 01 00
	00		 mov	 eax, DWORD PTR [eax+300]
  0001c	ff d0		 call	 eax
; File D:\git\src\IBK\IBK_DRFN\ProjSrc\SrcDrfn\Chart\ExControl\ExGridCtrl.cpp

; 138  : }

  0001e	c3		 ret	 0
?GetFixedColumnCount@CExGridCtrl@@QAEHXZ ENDP		; CExGridCtrl::GetFixedColumnCount
_TEXT	ENDS
; Function compile flags: /Ogtp
; File D:\git\src\IBK\IBK_DRFN\ProjSrc\SrcDrfn\Chart\ExControl\ExGridCtrl.cpp
; File D:\git\src\IBK\IBK_DRFN\ProjSrc\SrcDrfn\Chart\ExControl\Include\GirdLoadHelper.h
; File D:\git\src\IBK\IBK_DRFN\ProjSrc\SrcDrfn\Chart\ExControl\ExGridCtrl.cpp
; File D:\git\src\IBK\IBK_DRFN\ProjSrc\SrcDrfn\Chart\ExControl\Include\GirdLoadHelper.h
; File D:\git\src\IBK\IBK_DRFN\ProjSrc\SrcDrfn\Chart\ExControl\ExGridCtrl.cpp
;	COMDAT ?GetFixedRowCount@CExGridCtrl@@QAEHXZ
_TEXT	SEGMENT
?GetFixedRowCount@CExGridCtrl@@QAEHXZ PROC		; CExGridCtrl::GetFixedRowCount, COMDAT
; _this$ = ecx

; 157  : 	return m_pLoader->GetFixedRowCount();

  00000	8b 81 80 00 00
	00		 mov	 eax, DWORD PTR [ecx+128]
; File D:\git\src\IBK\IBK_DRFN\ProjSrc\SrcDrfn\Chart\ExControl\Include\GirdLoadHelper.h

; 1282 : 		if(!m_hLib)

  00006	83 78 04 00	 cmp	 DWORD PTR [eax+4], 0
  0000a	75 04		 jne	 SHORT $LN4@GetFixedRo
; File D:\git\src\IBK\IBK_DRFN\ProjSrc\SrcDrfn\Chart\ExControl\ExGridCtrl.cpp

; 157  : 	return m_pLoader->GetFixedRowCount();

  0000c	83 c8 ff	 or	 eax, -1

; 158  : }

  0000f	c3		 ret	 0
$LN4@GetFixedRo:
; File D:\git\src\IBK\IBK_DRFN\ProjSrc\SrcDrfn\Chart\ExControl\Include\GirdLoadHelper.h

; 1285 : 		return pGetFixedRowCount(m_lpPointer);

  00010	ff b0 0c 01 00
	00		 push	 DWORD PTR [eax+268]
  00016	8b 80 28 01 00
	00		 mov	 eax, DWORD PTR [eax+296]
  0001c	ff d0		 call	 eax
; File D:\git\src\IBK\IBK_DRFN\ProjSrc\SrcDrfn\Chart\ExControl\ExGridCtrl.cpp

; 158  : }

  0001e	c3		 ret	 0
?GetFixedRowCount@CExGridCtrl@@QAEHXZ ENDP		; CExGridCtrl::GetFixedRowCount
_TEXT	ENDS
; Function compile flags: /Ogtp
; File D:\git\src\IBK\IBK_DRFN\ProjSrc\SrcDrfn\Chart\ExControl\ExGridCtrl.cpp
; File D:\git\src\IBK\IBK_DRFN\ProjSrc\SrcDrfn\Chart\ExControl\Include\GirdLoadHelper.h
; File D:\git\src\IBK\IBK_DRFN\ProjSrc\SrcDrfn\Chart\ExControl\ExGridCtrl.cpp
; File D:\git\src\IBK\IBK_DRFN\ProjSrc\SrcDrfn\Chart\ExControl\Include\GirdLoadHelper.h
; File D:\git\src\IBK\IBK_DRFN\ProjSrc\SrcDrfn\Chart\ExControl\ExGridCtrl.cpp
;	COMDAT ?GetColumnCount@CExGridCtrl@@QAEHXZ
_TEXT	SEGMENT
?GetColumnCount@CExGridCtrl@@QAEHXZ PROC		; CExGridCtrl::GetColumnCount, COMDAT
; _this$ = ecx

; 152  : 	return m_pLoader->GetColumnCount();

  00000	8b 81 80 00 00
	00		 mov	 eax, DWORD PTR [ecx+128]
; File D:\git\src\IBK\IBK_DRFN\ProjSrc\SrcDrfn\Chart\ExControl\Include\GirdLoadHelper.h

; 1274 : 		if(!m_hLib)

  00006	83 78 04 00	 cmp	 DWORD PTR [eax+4], 0
  0000a	75 04		 jne	 SHORT $LN4@GetColumnC
; File D:\git\src\IBK\IBK_DRFN\ProjSrc\SrcDrfn\Chart\ExControl\ExGridCtrl.cpp

; 152  : 	return m_pLoader->GetColumnCount();

  0000c	83 c8 ff	 or	 eax, -1

; 153  : }

  0000f	c3		 ret	 0
$LN4@GetColumnC:
; File D:\git\src\IBK\IBK_DRFN\ProjSrc\SrcDrfn\Chart\ExControl\Include\GirdLoadHelper.h

; 1277 : 		return pGetColumnCount(m_lpPointer);

  00010	ff b0 0c 01 00
	00		 push	 DWORD PTR [eax+268]
  00016	8b 80 24 01 00
	00		 mov	 eax, DWORD PTR [eax+292]
  0001c	ff d0		 call	 eax
; File D:\git\src\IBK\IBK_DRFN\ProjSrc\SrcDrfn\Chart\ExControl\ExGridCtrl.cpp

; 153  : }

  0001e	c3		 ret	 0
?GetColumnCount@CExGridCtrl@@QAEHXZ ENDP		; CExGridCtrl::GetColumnCount
_TEXT	ENDS
; Function compile flags: /Ogtp
; File D:\git\src\IBK\IBK_DRFN\ProjSrc\SrcDrfn\Chart\ExControl\ExGridCtrl.cpp
; File D:\git\src\IBK\IBK_DRFN\ProjSrc\SrcDrfn\Chart\ExControl\Include\GirdLoadHelper.h
; File D:\git\src\IBK\IBK_DRFN\ProjSrc\SrcDrfn\Chart\ExControl\ExGridCtrl.cpp
; File D:\git\src\IBK\IBK_DRFN\ProjSrc\SrcDrfn\Chart\ExControl\Include\GirdLoadHelper.h
; File D:\git\src\IBK\IBK_DRFN\ProjSrc\SrcDrfn\Chart\ExControl\ExGridCtrl.cpp
;	COMDAT ?GetRowCount@CExGridCtrl@@QAEHXZ
_TEXT	SEGMENT
?GetRowCount@CExGridCtrl@@QAEHXZ PROC			; CExGridCtrl::GetRowCount, COMDAT
; _this$ = ecx

; 147  : 	return m_pLoader->GetRowCount();

  00000	8b 81 80 00 00
	00		 mov	 eax, DWORD PTR [ecx+128]
; File D:\git\src\IBK\IBK_DRFN\ProjSrc\SrcDrfn\Chart\ExControl\Include\GirdLoadHelper.h

; 1266 : 		if(!m_hLib)

  00006	83 78 04 00	 cmp	 DWORD PTR [eax+4], 0
  0000a	75 04		 jne	 SHORT $LN4@GetRowCoun
; File D:\git\src\IBK\IBK_DRFN\ProjSrc\SrcDrfn\Chart\ExControl\ExGridCtrl.cpp

; 147  : 	return m_pLoader->GetRowCount();

  0000c	83 c8 ff	 or	 eax, -1

; 148  : }

  0000f	c3		 ret	 0
$LN4@GetRowCoun:
; File D:\git\src\IBK\IBK_DRFN\ProjSrc\SrcDrfn\Chart\ExControl\Include\GirdLoadHelper.h

; 1269 : 		return pGetRowCount(m_lpPointer);

  00010	ff b0 0c 01 00
	00		 push	 DWORD PTR [eax+268]
  00016	8b 80 20 01 00
	00		 mov	 eax, DWORD PTR [eax+288]
  0001c	ff d0		 call	 eax
; File D:\git\src\IBK\IBK_DRFN\ProjSrc\SrcDrfn\Chart\ExControl\ExGridCtrl.cpp

; 148  : }

  0001e	c3		 ret	 0
?GetRowCount@CExGridCtrl@@QAEHXZ ENDP			; CExGridCtrl::GetRowCount
_TEXT	ENDS
; Function compile flags: /Ogtp
; File D:\git\src\IBK\IBK_DRFN\ProjSrc\SrcDrfn\Chart\ExControl\ExGridCtrl.cpp
; File D:\git\src\IBK\IBK_DRFN\ProjSrc\SrcDrfn\Chart\ExControl\Include\GirdLoadHelper.h
; File D:\git\src\IBK\IBK_DRFN\ProjSrc\SrcDrfn\Chart\ExControl\ExGridCtrl.cpp
; File D:\git\src\IBK\IBK_DRFN\ProjSrc\SrcDrfn\Chart\ExControl\Include\GirdLoadHelper.h
; File D:\git\src\IBK\IBK_DRFN\ProjSrc\SrcDrfn\Chart\ExControl\ExGridCtrl.cpp
;	COMDAT ?Create@CExGridCtrl@@QAEHAAUtagRECT@@PAVCWnd@@IK@Z
_TEXT	SEGMENT
__ctlState$ = -20					; size = 8
__$EHRec$ = -12						; size = 12
_rect$ = 8						; size = 4
_pParentWnd$ = 12					; size = 4
_nID$ = 16						; size = 4
_dwStyle$ = 20						; size = 4
?Create@CExGridCtrl@@QAEHAAUtagRECT@@PAVCWnd@@IK@Z PROC	; CExGridCtrl::Create, COMDAT
; _this$ = ecx

; 652  : {

  00000	55		 push	 ebp
  00001	8b ec		 mov	 ebp, esp
  00003	6a ff		 push	 -1
  00005	68 00 00 00 00	 push	 __ehhandler$?Create@CExGridCtrl@@QAEHAAUtagRECT@@PAVCWnd@@IK@Z
  0000a	64 a1 00 00 00
	00		 mov	 eax, DWORD PTR fs:0
  00010	50		 push	 eax
  00011	83 ec 08	 sub	 esp, 8
  00014	56		 push	 esi
  00015	a1 00 00 00 00	 mov	 eax, DWORD PTR ___security_cookie
  0001a	33 c5		 xor	 eax, ebp
  0001c	50		 push	 eax
  0001d	8d 45 f4	 lea	 eax, DWORD PTR __$EHRec$[ebp]
  00020	64 a3 00 00 00
	00		 mov	 DWORD PTR fs:0, eax
  00026	8b f1		 mov	 esi, ecx

; 653  : 	AFX_MANAGE_STATE(AfxGetStaticModuleState());

  00028	e8 00 00 00 00	 call	 ?AfxGetStaticModuleState@@YGPAVAFX_MODULE_STATE@@XZ ; AfxGetStaticModuleState
  0002d	50		 push	 eax
  0002e	8d 4d ec	 lea	 ecx, DWORD PTR __ctlState$[ebp]
  00031	e8 00 00 00 00	 call	 ??0AFX_MAINTAIN_STATE2@@QAE@PAVAFX_MODULE_STATE@@@Z ; AFX_MAINTAIN_STATE2::AFX_MAINTAIN_STATE2

; 654  : 	if(!CWnd::Create(GRIDCTRL_CLASSNAME, NULL, dwStyle, rect, pParentWnd, nID))

  00036	6a 00		 push	 0
  00038	ff 75 10	 push	 DWORD PTR _nID$[ebp]
  0003b	8b ce		 mov	 ecx, esi
  0003d	c7 45 fc 00 00
	00 00		 mov	 DWORD PTR __$EHRec$[ebp+8], 0
  00044	ff 75 0c	 push	 DWORD PTR _pParentWnd$[ebp]
  00047	ff 75 08	 push	 DWORD PTR _rect$[ebp]
  0004a	ff 75 14	 push	 DWORD PTR _dwStyle$[ebp]
  0004d	6a 00		 push	 0
  0004f	68 00 00 00 00	 push	 OFFSET ??_C@_0M@NNGINBBP@MFCGridCtrl@
  00054	e8 00 00 00 00	 call	 ?Create@CWnd@@UAEHPBD0KABUtagRECT@@PAV1@IPAUCCreateContext@@@Z ; CWnd::Create
  00059	85 c0		 test	 eax, eax
  0005b	74 0c		 je	 SHORT $LN10@Create

; 657  : 	return m_pLoader->Create(rect, pParentWnd, nID, dwStyle);

  0005d	8b 86 80 00 00
	00		 mov	 eax, DWORD PTR [esi+128]
; File D:\git\src\IBK\IBK_DRFN\ProjSrc\SrcDrfn\Chart\ExControl\Include\GirdLoadHelper.h

; 1258 : 		if(!m_hLib)

  00063	83 78 04 00	 cmp	 DWORD PTR [eax+4], 0
  00067	75 04		 jne	 SHORT $LN7@Create
$LN10@Create:
; File D:\git\src\IBK\IBK_DRFN\ProjSrc\SrcDrfn\Chart\ExControl\ExGridCtrl.cpp

; 657  : 	return m_pLoader->Create(rect, pParentWnd, nID, dwStyle);

  00069	33 f6		 xor	 esi, esi
  0006b	eb 1c		 jmp	 SHORT $LN6@Create
$LN7@Create:
; File D:\git\src\IBK\IBK_DRFN\ProjSrc\SrcDrfn\Chart\ExControl\Include\GirdLoadHelper.h

; 1261 : 		return pCreate(m_lpPointer, rect, parent, nID, dwStyle);

  0006d	ff 75 14	 push	 DWORD PTR _dwStyle$[ebp]
  00070	ff 75 10	 push	 DWORD PTR _nID$[ebp]
  00073	ff 75 0c	 push	 DWORD PTR _pParentWnd$[ebp]
  00076	ff 75 08	 push	 DWORD PTR _rect$[ebp]
  00079	ff b0 0c 01 00
	00		 push	 DWORD PTR [eax+268]
  0007f	8b 80 1c 01 00
	00		 mov	 eax, DWORD PTR [eax+284]
  00085	ff d0		 call	 eax
  00087	8b f0		 mov	 esi, eax
$LN6@Create:
; File D:\git\src\IBK\IBK_DRFN\ProjSrc\SrcDrfn\Chart\ExControl\ExGridCtrl.cpp

; 657  : 	return m_pLoader->Create(rect, pParentWnd, nID, dwStyle);

  00089	8d 4d ec	 lea	 ecx, DWORD PTR __ctlState$[ebp]
  0008c	e8 00 00 00 00	 call	 ??1AFX_MAINTAIN_STATE2@@QAE@XZ ; AFX_MAINTAIN_STATE2::~AFX_MAINTAIN_STATE2
  00091	8b c6		 mov	 eax, esi

; 658  : }

  00093	8b 4d f4	 mov	 ecx, DWORD PTR __$EHRec$[ebp]
  00096	64 89 0d 00 00
	00 00		 mov	 DWORD PTR fs:0, ecx
  0009d	59		 pop	 ecx
  0009e	5e		 pop	 esi
  0009f	8b e5		 mov	 esp, ebp
  000a1	5d		 pop	 ebp
  000a2	c2 10 00	 ret	 16			; 00000010H
_TEXT	ENDS
;	COMDAT text$x
text$x	SEGMENT
__unwindfunclet$?Create@CExGridCtrl@@QAEHAAUtagRECT@@PAVCWnd@@IK@Z$0:
  00000	8d 4d ec	 lea	 ecx, DWORD PTR __ctlState$[ebp]
  00003	e9 00 00 00 00	 jmp	 ??1AFX_MAINTAIN_STATE2@@QAE@XZ ; AFX_MAINTAIN_STATE2::~AFX_MAINTAIN_STATE2
  00008	cc		 int	 3
  00009	cc		 int	 3
  0000a	cc		 int	 3
  0000b	cc		 int	 3
  0000c	cc		 int	 3
__ehhandler$?Create@CExGridCtrl@@QAEHAAUtagRECT@@PAVCWnd@@IK@Z:
  0000d	90		 npad	 1
  0000e	90		 npad	 1
  0000f	8b 54 24 08	 mov	 edx, DWORD PTR [esp+8]
  00013	8d 42 0c	 lea	 eax, DWORD PTR [edx+12]
  00016	8b 4a f0	 mov	 ecx, DWORD PTR [edx-16]
  00019	33 c8		 xor	 ecx, eax
  0001b	e8 00 00 00 00	 call	 @__security_check_cookie@4
  00020	b8 00 00 00 00	 mov	 eax, OFFSET __ehfuncinfo$?Create@CExGridCtrl@@QAEHAAUtagRECT@@PAVCWnd@@IK@Z
  00025	e9 00 00 00 00	 jmp	 ___CxxFrameHandler3
text$x	ENDS
?Create@CExGridCtrl@@QAEHAAUtagRECT@@PAVCWnd@@IK@Z ENDP	; CExGridCtrl::Create
; Function compile flags: /Ogtp
; File D:\git\src\IBK\IBK_DRFN\ProjSrc\SrcDrfn\Chart\ExControl\ExGridCtrl.cpp
; File D:\git\src\IBK\IBK_DRFN\ProjSrc\SrcDrfn\Chart\ExControl\Include\GirdLoadHelper.h
; File D:\git\src\IBK\IBK_DRFN\ProjSrc\SrcDrfn\Chart\ExControl\ExGridCtrl.cpp
; File D:\git\src\IBK\IBK_DRFN\ProjSrc\SrcDrfn\Chart\ExControl\Include\GirdLoadHelper.h
; File D:\git\src\IBK\IBK_DRFN\ProjSrc\SrcDrfn\Chart\ExControl\ExGridCtrl.cpp
;	COMDAT ?GetMouseScrollLines@CExGridCtrl@@QAEIXZ
_TEXT	SEGMENT
?GetMouseScrollLines@CExGridCtrl@@QAEIXZ PROC		; CExGridCtrl::GetMouseScrollLines, COMDAT
; _this$ = ecx

; 132  : 	return m_pLoader->GetMouseScrollLines();

  00000	8b 81 80 00 00
	00		 mov	 eax, DWORD PTR [ecx+128]
; File D:\git\src\IBK\IBK_DRFN\ProjSrc\SrcDrfn\Chart\ExControl\Include\GirdLoadHelper.h

; 3561 : 		if(!m_hLib)

  00006	83 78 04 00	 cmp	 DWORD PTR [eax+4], 0
  0000a	75 03		 jne	 SHORT $LN4@GetMouseSc
; File D:\git\src\IBK\IBK_DRFN\ProjSrc\SrcDrfn\Chart\ExControl\ExGridCtrl.cpp

; 132  : 	return m_pLoader->GetMouseScrollLines();

  0000c	33 c0		 xor	 eax, eax

; 133  : }

  0000e	c3		 ret	 0
$LN4@GetMouseSc:
; File D:\git\src\IBK\IBK_DRFN\ProjSrc\SrcDrfn\Chart\ExControl\Include\GirdLoadHelper.h

; 3564 : 		return pGetMouseScrollLines(m_lpPointer);

  0000f	ff b0 0c 01 00
	00		 push	 DWORD PTR [eax+268]
  00015	8b 80 94 05 00
	00		 mov	 eax, DWORD PTR [eax+1428]
  0001b	ff d0		 call	 eax
; File D:\git\src\IBK\IBK_DRFN\ProjSrc\SrcDrfn\Chart\ExControl\ExGridCtrl.cpp

; 133  : }

  0001d	c3		 ret	 0
?GetMouseScrollLines@CExGridCtrl@@QAEIXZ ENDP		; CExGridCtrl::GetMouseScrollLines
_TEXT	ENDS
; Function compile flags: /Ogtp
; File D:\git\src\IBK\IBK_DRFN\ProjSrc\SrcDrfn\Chart\ExControl\ExGridCtrl.cpp
; File D:\git\src\IBK\IBK_DRFN\ProjSrc\SrcDrfn\Chart\ExControl\Include\GirdLoadHelper.h
; File D:\git\src\IBK\IBK_DRFN\ProjSrc\SrcDrfn\Chart\ExControl\ExGridCtrl.cpp
; File D:\git\src\IBK\IBK_DRFN\ProjSrc\SrcDrfn\Chart\ExControl\Include\GirdLoadHelper.h
; File D:\git\src\IBK\IBK_DRFN\ProjSrc\SrcDrfn\Chart\ExControl\ExGridCtrl.cpp
; File D:\git\src\IBK\IBK_DRFN\ProjSrc\SrcDrfn\Chart\ExControl\Include\GirdLoadHelper.h
; File D:\git\src\IBK\IBK_DRFN\ProjSrc\SrcDrfn\Chart\ExControl\ExGridCtrl.cpp
;	COMDAT ??0CExGridCtrl@@QAE@HHHH@Z
_TEXT	SEGMENT
$T2 = -20						; size = 4
_this$ = -16						; size = 4
__$EHRec$ = -12						; size = 12
_nRows$ = 8						; size = 4
_nCols$ = 12						; size = 4
_nFixedRows$ = 16					; size = 4
_nFixedCols$ = 20					; size = 4
??0CExGridCtrl@@QAE@HHHH@Z PROC				; CExGridCtrl::CExGridCtrl, COMDAT
; _this$ = ecx

; 42   : {

  00000	55		 push	 ebp
  00001	8b ec		 mov	 ebp, esp
  00003	6a ff		 push	 -1
  00005	68 00 00 00 00	 push	 __ehhandler$??0CExGridCtrl@@QAE@HHHH@Z
  0000a	64 a1 00 00 00
	00		 mov	 eax, DWORD PTR fs:0
  00010	50		 push	 eax
  00011	83 ec 08	 sub	 esp, 8
  00014	56		 push	 esi
  00015	a1 00 00 00 00	 mov	 eax, DWORD PTR ___security_cookie
  0001a	33 c5		 xor	 eax, ebp
  0001c	50		 push	 eax
  0001d	8d 45 f4	 lea	 eax, DWORD PTR __$EHRec$[ebp]
  00020	64 a3 00 00 00
	00		 mov	 DWORD PTR fs:0, eax
  00026	8b f1		 mov	 esi, ecx
  00028	89 75 f0	 mov	 DWORD PTR _this$[ebp], esi
  0002b	e8 00 00 00 00	 call	 ??0CWnd@@QAE@XZ		; CWnd::CWnd

; 43   : 	m_pLoader = new CLoaderGridCtrl(this);

  00030	68 ac 05 00 00	 push	 1452			; 000005acH
  00035	c7 45 fc 00 00
	00 00		 mov	 DWORD PTR __$EHRec$[ebp+8], 0
  0003c	c7 06 00 00 00
	00		 mov	 DWORD PTR [esi], OFFSET ??_7CExGridCtrl@@6B@
  00042	e8 00 00 00 00	 call	 ??2@YAPAXI@Z		; operator new
  00047	83 c4 04	 add	 esp, 4
  0004a	89 45 ec	 mov	 DWORD PTR $T2[ebp], eax
  0004d	c6 45 fc 01	 mov	 BYTE PTR __$EHRec$[ebp+8], 1
  00051	85 c0		 test	 eax, eax
  00053	74 0c		 je	 SHORT $LN3@CExGridCtr
  00055	6a 00		 push	 0
  00057	56		 push	 esi
  00058	8b c8		 mov	 ecx, eax
  0005a	e8 00 00 00 00	 call	 ??0CLoaderGridCtrl@@QAE@PAXPBD@Z ; CLoaderGridCtrl::CLoaderGridCtrl
  0005f	eb 02		 jmp	 SHORT $LN4@CExGridCtr
$LN3@CExGridCtr:
  00061	33 c0		 xor	 eax, eax
$LN4@CExGridCtr:
  00063	89 86 80 00 00
	00		 mov	 DWORD PTR [esi+128], eax
; File D:\git\src\IBK\IBK_DRFN\ProjSrc\SrcDrfn\Chart\ExControl\Include\GirdLoadHelper.h

; 2936 : 		if(!m_hLib)

  00069	83 78 04 00	 cmp	 DWORD PTR [eax+4], 0
; File D:\git\src\IBK\IBK_DRFN\ProjSrc\SrcDrfn\Chart\ExControl\ExGridCtrl.cpp

; 43   : 	m_pLoader = new CLoaderGridCtrl(this);

  0006d	c6 45 fc 00	 mov	 BYTE PTR __$EHRec$[ebp+8], 0
; File D:\git\src\IBK\IBK_DRFN\ProjSrc\SrcDrfn\Chart\ExControl\Include\GirdLoadHelper.h

; 2936 : 		if(!m_hLib)

  00071	74 28		 je	 SHORT $LN14@CExGridCtr

; 2937 : 			return FALSE;
; 2938 : 
; 2939 : 		return pRegisterWindowClass(m_lpPointer);

  00073	ff b0 0c 01 00
	00		 push	 DWORD PTR [eax+268]
  00079	8b 80 5c 04 00
	00		 mov	 eax, DWORD PTR [eax+1116]
  0007f	ff d0		 call	 eax
  00081	8b 86 80 00 00
	00		 mov	 eax, DWORD PTR [esi+128]

; 2952 : 		if(!m_hLib)

  00087	83 78 04 00	 cmp	 DWORD PTR [eax+4], 0
  0008b	74 0e		 je	 SHORT $LN14@CExGridCtr

; 2953 : 			return;
; 2954 : 
; 2955 : 		pSetupDefaultCells(m_lpPointer);

  0008d	ff b0 0c 01 00
	00		 push	 DWORD PTR [eax+268]
  00093	8b 80 64 04 00
	00		 mov	 eax, DWORD PTR [eax+1124]
  00099	ff d0		 call	 eax
$LN14@CExGridCtr:
; File D:\git\src\IBK\IBK_DRFN\ProjSrc\SrcDrfn\Chart\ExControl\ExGridCtrl.cpp

; 48   :     SetGridBkColor(::GetSysColor(COLOR_3DSHADOW));

  0009b	6a 10		 push	 16			; 00000010H
  0009d	ff 15 00 00 00
	00		 call	 DWORD PTR __imp__GetSysColor@4
  000a3	8b c8		 mov	 ecx, eax

; 142  : 	m_pLoader->SetGridBkColor( clr);

  000a5	8b 86 80 00 00
	00		 mov	 eax, DWORD PTR [esi+128]
; File D:\git\src\IBK\IBK_DRFN\ProjSrc\SrcDrfn\Chart\ExControl\Include\GirdLoadHelper.h

; 1467 : 		if(!m_hLib)

  000ab	83 78 04 00	 cmp	 DWORD PTR [eax+4], 0
  000af	0f 84 c9 00 00
	00		 je	 $LN52@CExGridCtr

; 1468 : 			return;
; 1469 : 
; 1470 : 		pSetGridBkColor(m_lpPointer, clr);

  000b5	51		 push	 ecx
  000b6	ff b0 0c 01 00
	00		 push	 DWORD PTR [eax+268]
  000bc	8b 80 84 01 00
	00		 mov	 eax, DWORD PTR [eax+388]
  000c2	ff d0		 call	 eax
  000c4	8b 86 80 00 00
	00		 mov	 eax, DWORD PTR [esi+128]

; 1298 : 		if(!m_hLib)

  000ca	83 78 04 00	 cmp	 DWORD PTR [eax+4], 0
  000ce	0f 84 aa 00 00
	00		 je	 $LN52@CExGridCtr

; 1299 : 			return FALSE;
; 1300 : 
; 1301 : 		return pSetRowCount(m_lpPointer, nRows);

  000d4	ff 75 08	 push	 DWORD PTR _nRows$[ebp]
  000d7	ff b0 0c 01 00
	00		 push	 DWORD PTR [eax+268]
  000dd	8b 80 30 01 00
	00		 mov	 eax, DWORD PTR [eax+304]
  000e3	ff d0		 call	 eax
  000e5	8b 86 80 00 00
	00		 mov	 eax, DWORD PTR [esi+128]

; 1306 : 		if(!m_hLib)

  000eb	83 78 04 00	 cmp	 DWORD PTR [eax+4], 0
  000ef	0f 84 89 00 00
	00		 je	 $LN52@CExGridCtr

; 1307 : 			return FALSE;
; 1308 : 
; 1309 : 		return pSetColumnCount(m_lpPointer, nCols);

  000f5	ff 75 0c	 push	 DWORD PTR _nCols$[ebp]
  000f8	ff b0 0c 01 00
	00		 push	 DWORD PTR [eax+268]
  000fe	8b 80 34 01 00
	00		 mov	 eax, DWORD PTR [eax+308]
  00104	ff d0		 call	 eax
  00106	8b 86 80 00 00
	00		 mov	 eax, DWORD PTR [esi+128]

; 1314 : 		if(!m_hLib)

  0010c	83 78 04 00	 cmp	 DWORD PTR [eax+4], 0
  00110	74 6c		 je	 SHORT $LN52@CExGridCtr

; 1315 : 			return FALSE;
; 1316 : 
; 1317 : 		return pSetFixedRowCount(m_lpPointer, nFixedRows);

  00112	ff 75 10	 push	 DWORD PTR _nFixedRows$[ebp]
  00115	ff b0 0c 01 00
	00		 push	 DWORD PTR [eax+268]
  0011b	8b 80 38 01 00
	00		 mov	 eax, DWORD PTR [eax+312]
  00121	ff d0		 call	 eax
  00123	8b 86 80 00 00
	00		 mov	 eax, DWORD PTR [esi+128]

; 1322 : 		if(!m_hLib)

  00129	83 78 04 00	 cmp	 DWORD PTR [eax+4], 0
  0012d	74 4f		 je	 SHORT $LN52@CExGridCtr

; 1323 : 			return FALSE;
; 1324 : 
; 1325 : 		return pSetFixedColumnCount(m_lpPointer, nFixedCols);

  0012f	ff 75 14	 push	 DWORD PTR _nFixedCols$[ebp]
  00132	ff b0 0c 01 00
	00		 push	 DWORD PTR [eax+268]
  00138	8b 80 3c 01 00
	00		 mov	 eax, DWORD PTR [eax+316]
  0013e	ff d0		 call	 eax
  00140	8b 86 80 00 00
	00		 mov	 eax, DWORD PTR [esi+128]

; 1515 : 		if(!m_hLib)

  00146	83 78 04 00	 cmp	 DWORD PTR [eax+4], 0
  0014a	74 32		 je	 SHORT $LN52@CExGridCtr

; 1516 : 			return;
; 1517 : 
; 1518 : 		pSetTitleTipTextClr(m_lpPointer, clr);

  0014c	68 00 00 00 ff	 push	 -16777216		; ff000000H
  00151	ff b0 0c 01 00
	00		 push	 DWORD PTR [eax+268]
  00157	8b 80 9c 01 00
	00		 mov	 eax, DWORD PTR [eax+412]
  0015d	ff d0		 call	 eax
  0015f	8b 86 80 00 00
	00		 mov	 eax, DWORD PTR [esi+128]

; 1499 : 		if(!m_hLib)

  00165	83 78 04 00	 cmp	 DWORD PTR [eax+4], 0
  00169	74 13		 je	 SHORT $LN52@CExGridCtr

; 1500 : 			return;
; 1501 : 
; 1502 : 		pSetTitleTipBackClr(m_lpPointer, clr);

  0016b	68 00 00 00 ff	 push	 -16777216		; ff000000H
  00170	ff b0 0c 01 00
	00		 push	 DWORD PTR [eax+268]
  00176	8b 80 94 01 00
	00		 mov	 eax, DWORD PTR [eax+404]
  0017c	ff d0		 call	 eax
$LN52@CExGridCtr:
; File D:\git\src\IBK\IBK_DRFN\ProjSrc\SrcDrfn\Chart\ExControl\ExGridCtrl.cpp

; 58   : }

  0017e	8b c6		 mov	 eax, esi
  00180	8b 4d f4	 mov	 ecx, DWORD PTR __$EHRec$[ebp]
  00183	64 89 0d 00 00
	00 00		 mov	 DWORD PTR fs:0, ecx
  0018a	59		 pop	 ecx
  0018b	5e		 pop	 esi
  0018c	8b e5		 mov	 esp, ebp
  0018e	5d		 pop	 ebp
  0018f	c2 10 00	 ret	 16			; 00000010H
_TEXT	ENDS
;	COMDAT text$x
text$x	SEGMENT
__unwindfunclet$??0CExGridCtrl@@QAE@HHHH@Z$0:
  00000	8b 4d f0	 mov	 ecx, DWORD PTR _this$[ebp]
  00003	e9 00 00 00 00	 jmp	 ??1CWnd@@UAE@XZ		; CWnd::~CWnd
__unwindfunclet$??0CExGridCtrl@@QAE@HHHH@Z$1:
  00008	68 ac 05 00 00	 push	 1452			; 000005acH
  0000d	8b 45 ec	 mov	 eax, DWORD PTR $T2[ebp]
  00010	50		 push	 eax
  00011	e8 00 00 00 00	 call	 ??3@YAXPAXI@Z		; operator delete
  00016	83 c4 08	 add	 esp, 8
  00019	c3		 ret	 0
  0001a	cc		 int	 3
  0001b	cc		 int	 3
  0001c	cc		 int	 3
  0001d	cc		 int	 3
  0001e	cc		 int	 3
__ehhandler$??0CExGridCtrl@@QAE@HHHH@Z:
  0001f	90		 npad	 1
  00020	90		 npad	 1
  00021	8b 54 24 08	 mov	 edx, DWORD PTR [esp+8]
  00025	8d 42 0c	 lea	 eax, DWORD PTR [edx+12]
  00028	8b 4a f0	 mov	 ecx, DWORD PTR [edx-16]
  0002b	33 c8		 xor	 ecx, eax
  0002d	e8 00 00 00 00	 call	 @__security_check_cookie@4
  00032	b8 00 00 00 00	 mov	 eax, OFFSET __ehfuncinfo$??0CExGridCtrl@@QAE@HHHH@Z
  00037	e9 00 00 00 00	 jmp	 ___CxxFrameHandler3
text$x	ENDS
??0CExGridCtrl@@QAE@HHHH@Z ENDP				; CExGridCtrl::CExGridCtrl
; Function compile flags: /Ogtp
; File D:\git\src\IBK\IBK_DRFN\ProjSrc\SrcDrfn\Chart\ExControl\ExGridCtrl.cpp
; File D:\git\src\IBK\IBK_DRFN\ProjSrc\SrcDrfn\Chart\ExControl\Include\GirdLoadHelper.h
; File D:\git\src\IBK\IBK_DRFN\ProjSrc\SrcDrfn\Chart\ExControl\ExGridCtrl.cpp
; File D:\git\src\IBK\IBK_DRFN\ProjSrc\SrcDrfn\Chart\ExControl\Include\GirdLoadHelper.h
; File D:\git\src\IBK\IBK_DRFN\ProjSrc\SrcDrfn\Chart\ExControl\ExGridCtrl.cpp
;	COMDAT ?ActionControl@CExGridCtrl@@QAEJPAX@Z
_TEXT	SEGMENT
_lpAction$ = 8						; size = 4
?ActionControl@CExGridCtrl@@QAEJPAX@Z PROC		; CExGridCtrl::ActionControl, COMDAT
; _this$ = ecx

; 126  : {

  00000	55		 push	 ebp
  00001	8b ec		 mov	 ebp, esp

; 127  : 	return m_pLoader->ActionControl(lpAction);

  00003	8b 81 80 00 00
	00		 mov	 eax, DWORD PTR [ecx+128]
; File D:\git\src\IBK\IBK_DRFN\ProjSrc\SrcDrfn\Chart\ExControl\Include\GirdLoadHelper.h

; 1250 : 		if(!m_hLib)

  00009	83 78 04 00	 cmp	 DWORD PTR [eax+4], 0
  0000d	75 06		 jne	 SHORT $LN4@ActionCont
; File D:\git\src\IBK\IBK_DRFN\ProjSrc\SrcDrfn\Chart\ExControl\ExGridCtrl.cpp

; 127  : 	return m_pLoader->ActionControl(lpAction);

  0000f	33 c0		 xor	 eax, eax

; 128  : }

  00011	5d		 pop	 ebp
  00012	c2 04 00	 ret	 4
$LN4@ActionCont:
; File D:\git\src\IBK\IBK_DRFN\ProjSrc\SrcDrfn\Chart\ExControl\Include\GirdLoadHelper.h

; 1253 : 		return pActionControl(m_lpPointer, lpAction);

  00015	ff 75 08	 push	 DWORD PTR _lpAction$[ebp]
  00018	ff b0 0c 01 00
	00		 push	 DWORD PTR [eax+268]
  0001e	8b 80 10 01 00
	00		 mov	 eax, DWORD PTR [eax+272]
  00024	ff d0		 call	 eax
; File D:\git\src\IBK\IBK_DRFN\ProjSrc\SrcDrfn\Chart\ExControl\ExGridCtrl.cpp

; 128  : }

  00026	5d		 pop	 ebp
  00027	c2 04 00	 ret	 4
?ActionControl@CExGridCtrl@@QAEJPAX@Z ENDP		; CExGridCtrl::ActionControl
_TEXT	ENDS
; Function compile flags: /Ogtp
; File D:\git\src\IBK\IBK_DRFN\ProjSrc\SrcDrfn\Chart\ExControl\ExGridCtrl.cpp
; File C:\Program Files (x86)\Microsoft Visual Studio\2019\Community\VC\Tools\MSVC\14.29.30133\atlmfc\include\afx.inl
; File D:\git\src\IBK\IBK_DRFN\ProjSrc\SrcDrfn\Chart\ExControl\ExGridCtrl.cpp
; File C:\Program Files (x86)\Microsoft Visual Studio\2019\Community\VC\Tools\MSVC\14.29.30133\atlmfc\include\afx.inl
; File D:\git\src\IBK\IBK_DRFN\ProjSrc\SrcDrfn\Chart\ExControl\ExGridCtrl.cpp
; File D:\git\src\IBK\IBK_DRFN\ProjSrc\SrcDrfn\Chart\ExControl\Include\GirdLoadHelper.h
; File D:\git\src\IBK\IBK_DRFN\ProjSrc\SrcDrfn\Chart\ExControl\ExGridCtrl.cpp
; File D:\git\src\IBK\IBK_DRFN\ProjSrc\SrcDrfn\Chart\ExControl\Include\GirdLoadHelper.h
; File D:\git\src\IBK\IBK_DRFN\ProjSrc\SrcDrfn\Chart\ExControl\ExGridCtrl.cpp
; File D:\git\src\IBK\IBK_DRFN\ProjSrc\SrcDrfn\Chart\ExControl\Include\GirdLoadHelper.h
; File D:\git\src\IBK\IBK_DRFN\ProjSrc\SrcDrfn\Chart\ExControl\ExGridCtrl.cpp
;	COMDAT ?CreateObject@CExGridCtrl@@SGPAVCObject@@XZ
_TEXT	SEGMENT
$T2 = -20						; size = 4
$T3 = -16						; size = 4
__$EHRec$ = -12						; size = 12
?CreateObject@CExGridCtrl@@SGPAVCObject@@XZ PROC	; CExGridCtrl::CreateObject, COMDAT

; 36   : IMPLEMENT_DYNCREATE(CExGridCtrl, CWnd)

  00000	55		 push	 ebp
  00001	8b ec		 mov	 ebp, esp
  00003	6a ff		 push	 -1
  00005	68 00 00 00 00	 push	 __ehhandler$?CreateObject@CExGridCtrl@@SGPAVCObject@@XZ
  0000a	64 a1 00 00 00
	00		 mov	 eax, DWORD PTR fs:0
  00010	50		 push	 eax
  00011	83 ec 08	 sub	 esp, 8
  00014	56		 push	 esi
  00015	a1 00 00 00 00	 mov	 eax, DWORD PTR ___security_cookie
  0001a	33 c5		 xor	 eax, ebp
  0001c	50		 push	 eax
  0001d	8d 45 f4	 lea	 eax, DWORD PTR __$EHRec$[ebp]
  00020	64 a3 00 00 00
	00		 mov	 DWORD PTR fs:0, eax
; File C:\Program Files (x86)\Microsoft Visual Studio\2019\Community\VC\Tools\MSVC\14.29.30133\atlmfc\include\afx.inl

; 116  : 	{ return ::operator new(nSize); }

  00026	68 88 00 00 00	 push	 136			; 00000088H
  0002b	e8 00 00 00 00	 call	 ??2@YAPAXI@Z		; operator new
; File D:\git\src\IBK\IBK_DRFN\ProjSrc\SrcDrfn\Chart\ExControl\ExGridCtrl.cpp

; 36   : IMPLEMENT_DYNCREATE(CExGridCtrl, CWnd)

  00030	8b f0		 mov	 esi, eax
; File C:\Program Files (x86)\Microsoft Visual Studio\2019\Community\VC\Tools\MSVC\14.29.30133\atlmfc\include\afx.inl

; 116  : 	{ return ::operator new(nSize); }

  00032	83 c4 04	 add	 esp, 4
; File D:\git\src\IBK\IBK_DRFN\ProjSrc\SrcDrfn\Chart\ExControl\ExGridCtrl.cpp

; 36   : IMPLEMENT_DYNCREATE(CExGridCtrl, CWnd)

  00035	89 75 f0	 mov	 DWORD PTR $T3[ebp], esi
  00038	c7 45 fc 00 00
	00 00		 mov	 DWORD PTR __$EHRec$[ebp+8], 0
  0003f	85 f6		 test	 esi, esi
  00041	0f 84 5e 01 00
	00		 je	 $LN3@CreateObje

; 42   : {

  00047	8b ce		 mov	 ecx, esi
  00049	e8 00 00 00 00	 call	 ??0CWnd@@QAE@XZ		; CWnd::CWnd

; 43   : 	m_pLoader = new CLoaderGridCtrl(this);

  0004e	68 ac 05 00 00	 push	 1452			; 000005acH
  00053	c6 45 fc 01	 mov	 BYTE PTR __$EHRec$[ebp+8], 1
  00057	c7 06 00 00 00
	00		 mov	 DWORD PTR [esi], OFFSET ??_7CExGridCtrl@@6B@
  0005d	e8 00 00 00 00	 call	 ??2@YAPAXI@Z		; operator new
  00062	83 c4 04	 add	 esp, 4
  00065	89 45 ec	 mov	 DWORD PTR $T2[ebp], eax
  00068	c6 45 fc 02	 mov	 BYTE PTR __$EHRec$[ebp+8], 2
  0006c	85 c0		 test	 eax, eax
  0006e	74 0c		 je	 SHORT $LN10@CreateObje
  00070	6a 00		 push	 0
  00072	56		 push	 esi
  00073	8b c8		 mov	 ecx, eax
  00075	e8 00 00 00 00	 call	 ??0CLoaderGridCtrl@@QAE@PAXPBD@Z ; CLoaderGridCtrl::CLoaderGridCtrl
  0007a	eb 02		 jmp	 SHORT $LN11@CreateObje
$LN10@CreateObje:
  0007c	33 c0		 xor	 eax, eax
$LN11@CreateObje:
  0007e	89 86 80 00 00
	00		 mov	 DWORD PTR [esi+128], eax
; File D:\git\src\IBK\IBK_DRFN\ProjSrc\SrcDrfn\Chart\ExControl\Include\GirdLoadHelper.h

; 2936 : 		if(!m_hLib)

  00084	83 78 04 00	 cmp	 DWORD PTR [eax+4], 0
; File D:\git\src\IBK\IBK_DRFN\ProjSrc\SrcDrfn\Chart\ExControl\ExGridCtrl.cpp

; 43   : 	m_pLoader = new CLoaderGridCtrl(this);

  00088	c6 45 fc 01	 mov	 BYTE PTR __$EHRec$[ebp+8], 1
; File D:\git\src\IBK\IBK_DRFN\ProjSrc\SrcDrfn\Chart\ExControl\Include\GirdLoadHelper.h

; 2936 : 		if(!m_hLib)

  0008c	74 28		 je	 SHORT $LN21@CreateObje

; 2937 : 			return FALSE;
; 2938 : 
; 2939 : 		return pRegisterWindowClass(m_lpPointer);

  0008e	ff b0 0c 01 00
	00		 push	 DWORD PTR [eax+268]
  00094	8b 80 5c 04 00
	00		 mov	 eax, DWORD PTR [eax+1116]
  0009a	ff d0		 call	 eax
  0009c	8b 86 80 00 00
	00		 mov	 eax, DWORD PTR [esi+128]

; 2952 : 		if(!m_hLib)

  000a2	83 78 04 00	 cmp	 DWORD PTR [eax+4], 0
  000a6	74 0e		 je	 SHORT $LN21@CreateObje

; 2953 : 			return;
; 2954 : 
; 2955 : 		pSetupDefaultCells(m_lpPointer);

  000a8	ff b0 0c 01 00
	00		 push	 DWORD PTR [eax+268]
  000ae	8b 80 64 04 00
	00		 mov	 eax, DWORD PTR [eax+1124]
  000b4	ff d0		 call	 eax
$LN21@CreateObje:
; File D:\git\src\IBK\IBK_DRFN\ProjSrc\SrcDrfn\Chart\ExControl\ExGridCtrl.cpp

; 48   :     SetGridBkColor(::GetSysColor(COLOR_3DSHADOW));

  000b6	6a 10		 push	 16			; 00000010H
  000b8	ff 15 00 00 00
	00		 call	 DWORD PTR __imp__GetSysColor@4

; 142  : 	m_pLoader->SetGridBkColor( clr);

  000be	8b 8e 80 00 00
	00		 mov	 ecx, DWORD PTR [esi+128]
; File D:\git\src\IBK\IBK_DRFN\ProjSrc\SrcDrfn\Chart\ExControl\Include\GirdLoadHelper.h

; 1467 : 		if(!m_hLib)

  000c4	83 79 04 00	 cmp	 DWORD PTR [ecx+4], 0
  000c8	0f 84 c5 00 00
	00		 je	 $LN56@CreateObje

; 1468 : 			return;
; 1469 : 
; 1470 : 		pSetGridBkColor(m_lpPointer, clr);

  000ce	50		 push	 eax
  000cf	ff b1 0c 01 00
	00		 push	 DWORD PTR [ecx+268]
  000d5	8b 81 84 01 00
	00		 mov	 eax, DWORD PTR [ecx+388]
  000db	ff d0		 call	 eax
  000dd	8b 8e 80 00 00
	00		 mov	 ecx, DWORD PTR [esi+128]

; 1298 : 		if(!m_hLib)

  000e3	83 79 04 00	 cmp	 DWORD PTR [ecx+4], 0
  000e7	0f 84 a6 00 00
	00		 je	 $LN56@CreateObje

; 1299 : 			return FALSE;
; 1300 : 
; 1301 : 		return pSetRowCount(m_lpPointer, nRows);

  000ed	8b 81 30 01 00
	00		 mov	 eax, DWORD PTR [ecx+304]
  000f3	6a 00		 push	 0
  000f5	ff b1 0c 01 00
	00		 push	 DWORD PTR [ecx+268]
  000fb	ff d0		 call	 eax
  000fd	8b 8e 80 00 00
	00		 mov	 ecx, DWORD PTR [esi+128]

; 1306 : 		if(!m_hLib)

  00103	83 79 04 00	 cmp	 DWORD PTR [ecx+4], 0
  00107	0f 84 86 00 00
	00		 je	 $LN56@CreateObje

; 1307 : 			return FALSE;
; 1308 : 
; 1309 : 		return pSetColumnCount(m_lpPointer, nCols);

  0010d	8b 81 34 01 00
	00		 mov	 eax, DWORD PTR [ecx+308]
  00113	6a 00		 push	 0
  00115	ff b1 0c 01 00
	00		 push	 DWORD PTR [ecx+268]
  0011b	ff d0		 call	 eax
  0011d	8b 8e 80 00 00
	00		 mov	 ecx, DWORD PTR [esi+128]

; 1314 : 		if(!m_hLib)

  00123	83 79 04 00	 cmp	 DWORD PTR [ecx+4], 0
  00127	74 6a		 je	 SHORT $LN56@CreateObje

; 1315 : 			return FALSE;
; 1316 : 
; 1317 : 		return pSetFixedRowCount(m_lpPointer, nFixedRows);

  00129	8b 81 38 01 00
	00		 mov	 eax, DWORD PTR [ecx+312]
  0012f	6a 00		 push	 0
  00131	ff b1 0c 01 00
	00		 push	 DWORD PTR [ecx+268]
  00137	ff d0		 call	 eax
  00139	8b 8e 80 00 00
	00		 mov	 ecx, DWORD PTR [esi+128]

; 1322 : 		if(!m_hLib)

  0013f	83 79 04 00	 cmp	 DWORD PTR [ecx+4], 0
  00143	74 4e		 je	 SHORT $LN56@CreateObje

; 1323 : 			return FALSE;
; 1324 : 
; 1325 : 		return pSetFixedColumnCount(m_lpPointer, nFixedCols);

  00145	8b 81 3c 01 00
	00		 mov	 eax, DWORD PTR [ecx+316]
  0014b	6a 00		 push	 0
  0014d	ff b1 0c 01 00
	00		 push	 DWORD PTR [ecx+268]
  00153	ff d0		 call	 eax
  00155	8b 8e 80 00 00
	00		 mov	 ecx, DWORD PTR [esi+128]

; 1515 : 		if(!m_hLib)

  0015b	83 79 04 00	 cmp	 DWORD PTR [ecx+4], 0
  0015f	74 32		 je	 SHORT $LN56@CreateObje

; 1516 : 			return;
; 1517 : 
; 1518 : 		pSetTitleTipTextClr(m_lpPointer, clr);

  00161	8b 81 9c 01 00
	00		 mov	 eax, DWORD PTR [ecx+412]
  00167	68 00 00 00 ff	 push	 -16777216		; ff000000H
  0016c	ff b1 0c 01 00
	00		 push	 DWORD PTR [ecx+268]
  00172	ff d0		 call	 eax
  00174	8b 8e 80 00 00
	00		 mov	 ecx, DWORD PTR [esi+128]

; 1499 : 		if(!m_hLib)

  0017a	83 79 04 00	 cmp	 DWORD PTR [ecx+4], 0
  0017e	74 13		 je	 SHORT $LN56@CreateObje

; 1500 : 			return;
; 1501 : 
; 1502 : 		pSetTitleTipBackClr(m_lpPointer, clr);

  00180	68 00 00 00 ff	 push	 -16777216		; ff000000H
  00185	ff b1 0c 01 00
	00		 push	 DWORD PTR [ecx+268]
  0018b	8b 89 94 01 00
	00		 mov	 ecx, DWORD PTR [ecx+404]
  00191	ff d1		 call	 ecx
$LN56@CreateObje:
; File D:\git\src\IBK\IBK_DRFN\ProjSrc\SrcDrfn\Chart\ExControl\ExGridCtrl.cpp

; 36   : IMPLEMENT_DYNCREATE(CExGridCtrl, CWnd)

  00193	8b c6		 mov	 eax, esi
  00195	8b 4d f4	 mov	 ecx, DWORD PTR __$EHRec$[ebp]
  00198	64 89 0d 00 00
	00 00		 mov	 DWORD PTR fs:0, ecx
  0019f	59		 pop	 ecx
  001a0	5e		 pop	 esi
  001a1	8b e5		 mov	 esp, ebp
  001a3	5d		 pop	 ebp
  001a4	c3		 ret	 0
$LN3@CreateObje:
  001a5	33 c0		 xor	 eax, eax
  001a7	8b 4d f4	 mov	 ecx, DWORD PTR __$EHRec$[ebp]
  001aa	64 89 0d 00 00
	00 00		 mov	 DWORD PTR fs:0, ecx
  001b1	59		 pop	 ecx
  001b2	5e		 pop	 esi
  001b3	8b e5		 mov	 esp, ebp
  001b5	5d		 pop	 ebp
  001b6	c3		 ret	 0
_TEXT	ENDS
;	COMDAT text$x
text$x	SEGMENT
__unwindfunclet$?CreateObject@CExGridCtrl@@SGPAVCObject@@XZ$0:
  00000	8b 45 f0	 mov	 eax, DWORD PTR $T3[ebp]
  00003	50		 push	 eax
  00004	e8 00 00 00 00	 call	 ??3CObject@@SGXPAX@Z	; CObject::operator delete
  00009	c3		 ret	 0
__unwindfunclet$?CreateObject@CExGridCtrl@@SGPAVCObject@@XZ$1:
  0000a	8b 4d f0	 mov	 ecx, DWORD PTR $T3[ebp]
  0000d	e9 00 00 00 00	 jmp	 ??1CWnd@@UAE@XZ		; CWnd::~CWnd
__unwindfunclet$?CreateObject@CExGridCtrl@@SGPAVCObject@@XZ$2:
  00012	68 ac 05 00 00	 push	 1452			; 000005acH
  00017	8b 45 ec	 mov	 eax, DWORD PTR $T2[ebp]
  0001a	50		 push	 eax
  0001b	e8 00 00 00 00	 call	 ??3@YAXPAXI@Z		; operator delete
  00020	83 c4 08	 add	 esp, 8
  00023	c3		 ret	 0
  00024	cc		 int	 3
  00025	cc		 int	 3
  00026	cc		 int	 3
  00027	cc		 int	 3
  00028	cc		 int	 3
__ehhandler$?CreateObject@CExGridCtrl@@SGPAVCObject@@XZ:
  00029	90		 npad	 1
  0002a	90		 npad	 1
  0002b	8b 54 24 08	 mov	 edx, DWORD PTR [esp+8]
  0002f	8d 42 0c	 lea	 eax, DWORD PTR [edx+12]
  00032	8b 4a f0	 mov	 ecx, DWORD PTR [edx-16]
  00035	33 c8		 xor	 ecx, eax
  00037	e8 00 00 00 00	 call	 @__security_check_cookie@4
  0003c	b8 00 00 00 00	 mov	 eax, OFFSET __ehfuncinfo$?CreateObject@CExGridCtrl@@SGPAVCObject@@XZ
  00041	e9 00 00 00 00	 jmp	 ___CxxFrameHandler3
text$x	ENDS
?CreateObject@CExGridCtrl@@SGPAVCObject@@XZ ENDP	; CExGridCtrl::CreateObject
; Function compile flags: /Ogtp
; File D:\git\src\IBK\IBK_DRFN\ProjSrc\SrcDrfn\Chart\ExControl\ExGridCtrl.cpp
;	COMDAT ?GetRuntimeClass@CExGridCtrl@@UBEPAUCRuntimeClass@@XZ
_TEXT	SEGMENT
?GetRuntimeClass@CExGridCtrl@@UBEPAUCRuntimeClass@@XZ PROC ; CExGridCtrl::GetRuntimeClass, COMDAT
; _this$ = ecx

; 36   : IMPLEMENT_DYNCREATE(CExGridCtrl, CWnd)

  00000	b8 00 00 00 00	 mov	 eax, OFFSET ?classCExGridCtrl@CExGridCtrl@@2UCRuntimeClass@@B ; CExGridCtrl::classCExGridCtrl
  00005	c3		 ret	 0
?GetRuntimeClass@CExGridCtrl@@UBEPAUCRuntimeClass@@XZ ENDP ; CExGridCtrl::GetRuntimeClass
_TEXT	ENDS
; Function compile flags: /Ogtp
; File D:\git\src\IBK\IBK_DRFN\ProjSrc\SrcDrfn\Chart\ExControl\ExGridCtrl.cpp
;	COMDAT ?GetThisClass@CExGridCtrl@@SGPAUCRuntimeClass@@XZ
_TEXT	SEGMENT
?GetThisClass@CExGridCtrl@@SGPAUCRuntimeClass@@XZ PROC	; CExGridCtrl::GetThisClass, COMDAT

; 36   : IMPLEMENT_DYNCREATE(CExGridCtrl, CWnd)

  00000	b8 00 00 00 00	 mov	 eax, OFFSET ?classCExGridCtrl@CExGridCtrl@@2UCRuntimeClass@@B ; CExGridCtrl::classCExGridCtrl
  00005	c3		 ret	 0
?GetThisClass@CExGridCtrl@@SGPAUCRuntimeClass@@XZ ENDP	; CExGridCtrl::GetThisClass
_TEXT	ENDS
; Function compile flags: /Ogtp
; File D:\git\src\IBK\IBK_DRFN\ProjSrc\SrcDrfn\Chart\ExControl\ExGridCtrl.cpp
;	COMDAT ?_GetBaseClass@CExGridCtrl@@KGPAUCRuntimeClass@@XZ
_TEXT	SEGMENT
?_GetBaseClass@CExGridCtrl@@KGPAUCRuntimeClass@@XZ PROC	; CExGridCtrl::_GetBaseClass, COMDAT

; 36   : IMPLEMENT_DYNCREATE(CExGridCtrl, CWnd)

  00000	e9 00 00 00 00	 jmp	 ?GetThisClass@CWnd@@SGPAUCRuntimeClass@@XZ ; CWnd::GetThisClass
?_GetBaseClass@CExGridCtrl@@KGPAUCRuntimeClass@@XZ ENDP	; CExGridCtrl::_GetBaseClass
_TEXT	ENDS
; Function compile flags: /Ogtp
; File C:\Program Files (x86)\Microsoft Visual Studio\2019\Community\VC\Tools\MSVC\14.29.30133\atlmfc\include\afxwin2.inl
;	COMDAT ?EndModalState@CWnd@@UAEXXZ
_TEXT	SEGMENT
?EndModalState@CWnd@@UAEXXZ PROC			; CWnd::EndModalState, COMDAT
; _this$ = ecx

; 567  : 	{ ::EnableWindow(m_hWnd, TRUE); }

  00000	6a 01		 push	 1
  00002	ff 71 20	 push	 DWORD PTR [ecx+32]
  00005	ff 15 00 00 00
	00		 call	 DWORD PTR __imp__EnableWindow@8
  0000b	c3		 ret	 0
?EndModalState@CWnd@@UAEXXZ ENDP			; CWnd::EndModalState
_TEXT	ENDS
; Function compile flags: /Ogtp
; File C:\Program Files (x86)\Microsoft Visual Studio\2019\Community\VC\Tools\MSVC\14.29.30133\atlmfc\include\afxwin2.inl
;	COMDAT ?BeginModalState@CWnd@@UAEXXZ
_TEXT	SEGMENT
?BeginModalState@CWnd@@UAEXXZ PROC			; CWnd::BeginModalState, COMDAT
; _this$ = ecx

; 565  : 	{ ::EnableWindow(m_hWnd, FALSE); }

  00000	6a 00		 push	 0
  00002	ff 71 20	 push	 DWORD PTR [ecx+32]
  00005	ff 15 00 00 00
	00		 call	 DWORD PTR __imp__EnableWindow@8
  0000b	c3		 ret	 0
?BeginModalState@CWnd@@UAEXXZ ENDP			; CWnd::BeginModalState
_TEXT	ENDS
; Function compile flags: /Ogtp
; File C:\Program Files (x86)\Microsoft Visual Studio\2019\Community\VC\Tools\MSVC\14.29.30133\atlmfc\include\afxwin2.inl
;	COMDAT ?DoDataExchange@CWnd@@MAEXPAVCDataExchange@@@Z
_TEXT	SEGMENT
___formal$ = 8						; size = 4
?DoDataExchange@CWnd@@MAEXPAVCDataExchange@@@Z PROC	; CWnd::DoDataExchange, COMDAT
; _this$ = ecx

; 561  : 	{ } // default does nothing

  00000	c2 04 00	 ret	 4
?DoDataExchange@CWnd@@MAEXPAVCDataExchange@@@Z ENDP	; CWnd::DoDataExchange
_TEXT	ENDS
; Function compile flags: /Ogtp
; File C:\Program Files (x86)\Microsoft Visual Studio\2019\Community\VC\Tools\MSVC\14.29.30133\atlmfc\include\afx.inl
;	COMDAT ?_AfxInitManaged@@YAHXZ
_TEXT	SEGMENT
?_AfxInitManaged@@YAHXZ PROC				; _AfxInitManaged, COMDAT

; 87   : 	return 0;

  00000	33 c0		 xor	 eax, eax

; 88   : }

  00002	c3		 ret	 0
?_AfxInitManaged@@YAHXZ ENDP				; _AfxInitManaged
_TEXT	ENDS
; Function compile flags: /Ogtp
; File C:\Program Files (x86)\Microsoft Visual Studio\2019\Community\VC\Tools\MSVC\14.29.30133\atlmfc\include\afx.inl
;	COMDAT ?Dump@CObject@@UBEXAAVCDumpContext@@@Z
_TEXT	SEGMENT
___formal$ = 8						; size = 4
?Dump@CObject@@UBEXAAVCDumpContext@@@Z PROC		; CObject::Dump, COMDAT
; _this$ = ecx

; 122  : 	{ /* no dumping in release builds */ }

  00000	c2 04 00	 ret	 4
?Dump@CObject@@UBEXAAVCDumpContext@@@Z ENDP		; CObject::Dump
_TEXT	ENDS
; Function compile flags: /Ogtp
; File C:\Program Files (x86)\Microsoft Visual Studio\2019\Community\VC\Tools\MSVC\14.29.30133\atlmfc\include\afx.inl
;	COMDAT ?AssertValid@CObject@@UBEXXZ
_TEXT	SEGMENT
?AssertValid@CObject@@UBEXXZ PROC			; CObject::AssertValid, COMDAT
; _this$ = ecx

; 120  : 	{ /* no asserts in release builds */ }

  00000	c2 00 00	 ret	 0
?AssertValid@CObject@@UBEXXZ ENDP			; CObject::AssertValid
_TEXT	ENDS
; Function compile flags: /Ogtp
; File C:\Program Files (x86)\Microsoft Visual Studio\2019\Community\VC\Tools\MSVC\14.29.30133\atlmfc\include\afx.inl
;	COMDAT ?Serialize@CObject@@UAEXAAVCArchive@@@Z
_TEXT	SEGMENT
___formal$ = 8						; size = 4
?Serialize@CObject@@UAEXAAVCArchive@@@Z PROC		; CObject::Serialize, COMDAT
; _this$ = ecx

; 106  : 	{ /* CObject does not serialize anything by default */ }

  00000	c2 04 00	 ret	 4
?Serialize@CObject@@UAEXAAVCArchive@@@Z ENDP		; CObject::Serialize
_TEXT	ENDS
; Function compile flags: /Ogtp
; File C:\Program Files (x86)\Microsoft Visual Studio\2019\Community\VC\Tools\MSVC\14.29.30133\atlmfc\include\afx.inl
;	COMDAT ??3CObject@@SGXPAX@Z
_TEXT	SEGMENT
_p$ = 8							; size = 4
??3CObject@@SGXPAX@Z PROC				; CObject::operator delete, COMDAT

; 112  : 	{ ::operator delete(p); }

  00000	55		 push	 ebp
  00001	8b ec		 mov	 ebp, esp
  00003	ff 75 08	 push	 DWORD PTR _p$[ebp]
  00006	e8 00 00 00 00	 call	 ??3@YAXPAX@Z		; operator delete
  0000b	83 c4 04	 add	 esp, 4
  0000e	5d		 pop	 ebp
  0000f	c2 04 00	 ret	 4
??3CObject@@SGXPAX@Z ENDP				; CObject::operator delete
_TEXT	ENDS
; Function compile flags: /Ogtp
; File C:\Program Files (x86)\Windows Kits\10\Include\10.0.22000.0\ucrt\stdio.h
;	COMDAT _sprintf
_TEXT	SEGMENT
__Buffer$ = 8						; size = 4
__Format$ = 12						; size = 4
_sprintf PROC						; COMDAT

; 1771 :     {

  00000	55		 push	 ebp
  00001	8b ec		 mov	 ebp, esp

; 1392 :         int const _Result = __stdio_common_vsprintf(

  00003	8d 45 10	 lea	 eax, DWORD PTR __Format$[ebp+4]
  00006	50		 push	 eax
  00007	6a 00		 push	 0
  00009	ff 75 0c	 push	 DWORD PTR __Format$[ebp]
  0000c	6a ff		 push	 -1
  0000e	ff 75 08	 push	 DWORD PTR __Buffer$[ebp]
  00011	e8 00 00 00 00	 call	 ___local_stdio_printf_options
  00016	8b 08		 mov	 ecx, DWORD PTR [eax]
  00018	ff 70 04	 push	 DWORD PTR [eax+4]
  0001b	83 c9 01	 or	 ecx, 1
  0001e	51		 push	 ecx
  0001f	ff 15 00 00 00
	00		 call	 DWORD PTR __imp____stdio_common_vsprintf

; 1393 :             _CRT_INTERNAL_LOCAL_PRINTF_OPTIONS | _CRT_INTERNAL_PRINTF_LEGACY_VSPRINTF_NULL_TERMINATION,
; 1394 :             _Buffer, _BufferCount, _Format, _Locale, _ArgList);
; 1395 : 
; 1396 :         return _Result < 0 ? -1 : _Result;

  00025	83 c9 ff	 or	 ecx, -1
  00028	83 c4 1c	 add	 esp, 28			; 0000001cH
  0002b	85 c0		 test	 eax, eax
  0002d	0f 48 c1	 cmovs	 eax, ecx

; 1772 :         int _Result;
; 1773 :         va_list _ArgList;
; 1774 :         __crt_va_start(_ArgList, _Format);
; 1775 : 
; 1776 :         _Result = _vsprintf_l(_Buffer, _Format, NULL, _ArgList);
; 1777 : 
; 1778 :         __crt_va_end(_ArgList);
; 1779 :         return _Result;
; 1780 :     }

  00030	5d		 pop	 ebp
  00031	c3		 ret	 0
_sprintf ENDP
_TEXT	ENDS
; Function compile flags: /Ogtp
; File C:\Program Files (x86)\Windows Kits\10\Include\10.0.22000.0\ucrt\corecrt_stdio_config.h
;	COMDAT ___local_stdio_printf_options
_TEXT	SEGMENT
___local_stdio_printf_options PROC			; COMDAT

; 91   :         static unsigned __int64 _OptionsStorage;
; 92   :         return &_OptionsStorage;

  00000	b8 00 00 00 00	 mov	 eax, OFFSET ?_OptionsStorage@?1??__local_stdio_printf_options@@9@4_KA ; `__local_stdio_printf_options'::`2'::_OptionsStorage

; 93   :     }

  00005	c3		 ret	 0
___local_stdio_printf_options ENDP
_TEXT	ENDS
; Function compile flags: /Ogtp
; File D:\git\src\IBK\IBK_DRFN\ProjSrc\SrcDrfn\Chart\ExControl\ExGridCtrl.cpp
;	COMDAT ?__empty_global_delete@@YAXPAXI@Z
_TEXT	SEGMENT
___formal$ = 8						; size = 4
___formal$ = 12						; size = 4
?__empty_global_delete@@YAXPAXI@Z PROC			; __empty_global_delete, COMDAT

  00000	c2 00 00	 ret	 0
?__empty_global_delete@@YAXPAXI@Z ENDP			; __empty_global_delete
_TEXT	ENDS
; Function compile flags: /Ogtp
; File D:\git\src\IBK\IBK_DRFN\ProjSrc\SrcDrfn\Chart\ExControl\ExGridCtrl.cpp
;	COMDAT ?__empty_global_delete@@YAXPAX@Z
_TEXT	SEGMENT
___formal$ = 8						; size = 4
?__empty_global_delete@@YAXPAX@Z PROC			; __empty_global_delete, COMDAT

  00000	c2 00 00	 ret	 0
?__empty_global_delete@@YAXPAX@Z ENDP			; __empty_global_delete
_TEXT	ENDS
END
