; Listing generated by Microsoft (R) Optimizing Compiler Version 19.29.30145.0 

	TITLE	D:\git\src\IBK\IBK_DRFN\#DRfn-CS\_Obj\ChartDataListViewerAddIn\ChartDataListViewerAddIn.obj
	.686P
	.XMM
	include listing.inc
	.model	flat

INCLUDELIB MSVCRT
INCLUDELIB OLDNAMES

PUBLIC	?g_nChartAddInVersion@@3HA			; g_nChartAddInVersion
PUBLIC	?g_szChartAddInIVersion@@3PADA			; g_szChartAddInIVersion
_DATA	SEGMENT
?g_nChartAddInVersion@@3HA DD 020c4dH			; g_nChartAddInVersion
?g_szChartAddInIVersion@@3PADA DB 'ChartAddIn Version : 134221', 00H ; g_szChartAddInIVersion
	ORG $+22
_DATA	ENDS
PUBLIC	?__empty_global_delete@@YAXPAX@Z		; __empty_global_delete
PUBLIC	?__empty_global_delete@@YAXPAXI@Z		; __empty_global_delete
PUBLIC	?Serialize@CObject@@UAEXAAVCArchive@@@Z		; CObject::Serialize
PUBLIC	?AssertValid@CObject@@UBEXXZ			; CObject::AssertValid
PUBLIC	?Dump@CObject@@UBEXAAVCDumpContext@@@Z		; CObject::Dump
PUBLIC	?SupportsRestartManager@CWinApp@@UBEHXZ		; CWinApp::SupportsRestartManager
PUBLIC	?SupportsApplicationRecovery@CWinApp@@UBEHXZ	; CWinApp::SupportsApplicationRecovery
PUBLIC	?SupportsAutosaveAtRestart@CWinApp@@UBEHXZ	; CWinApp::SupportsAutosaveAtRestart
PUBLIC	?SupportsAutosaveAtInterval@CWinApp@@UBEHXZ	; CWinApp::SupportsAutosaveAtInterval
PUBLIC	?ReopenPreviousFilesAtRestart@CWinApp@@UBEHXZ	; CWinApp::ReopenPreviousFilesAtRestart
PUBLIC	?RestoreAutosavedFilesAtRestart@CWinApp@@UBEHXZ	; CWinApp::RestoreAutosavedFilesAtRestart
PUBLIC	?GetApplicationRestartFlags@CWinApp@@UAEKXZ	; CWinApp::GetApplicationRestartFlags
PUBLIC	?GetApplicationRecoveryParameter@CWinApp@@UAEPAXXZ ; CWinApp::GetApplicationRecoveryParameter
PUBLIC	?GetApplicationRecoveryPingInterval@CWinApp@@UAEKXZ ; CWinApp::GetApplicationRecoveryPingInterval
PUBLIC	??0CChartDataListViewerAddInApp@@QAE@XZ		; CChartDataListViewerAddInApp::CChartDataListViewerAddInApp
PUBLIC	?GetThisMessageMap@CChartDataListViewerAddInApp@@KGPBUAFX_MSGMAP@@XZ ; CChartDataListViewerAddInApp::GetThisMessageMap
PUBLIC	?GetMessageMap@CChartDataListViewerAddInApp@@MBEPBUAFX_MSGMAP@@XZ ; CChartDataListViewerAddInApp::GetMessageMap
PUBLIC	??_GCChartDataListViewerAddInApp@@UAEPAXI@Z	; CChartDataListViewerAddInApp::`scalar deleting destructor'
PUBLIC	_GetAddInIVersion
PUBLIC	_InitAddInDll
PUBLIC	??_R0?AVCObject@@@8				; CObject `RTTI Type Descriptor'
PUBLIC	??_R3CObject@@8					; CObject::`RTTI Class Hierarchy Descriptor'
PUBLIC	??_R2CObject@@8					; CObject::`RTTI Base Class Array'
PUBLIC	??_R1A@?0A@EA@CObject@@8			; CObject::`RTTI Base Class Descriptor at (0,-1,0,64)'
PUBLIC	??_R1A@?0A@EA@CCmdTarget@@8			; CCmdTarget::`RTTI Base Class Descriptor at (0,-1,0,64)'
PUBLIC	??_R0?AVCCmdTarget@@@8				; CCmdTarget `RTTI Type Descriptor'
PUBLIC	??_R3CCmdTarget@@8				; CCmdTarget::`RTTI Class Hierarchy Descriptor'
PUBLIC	??_R2CCmdTarget@@8				; CCmdTarget::`RTTI Base Class Array'
PUBLIC	??_7CChartDataListViewerAddInApp@@6B@		; CChartDataListViewerAddInApp::`vftable'
PUBLIC	?theApp@@3VCChartDataListViewerAddInApp@@A	; theApp
PUBLIC	??_R4CChartDataListViewerAddInApp@@6B@		; CChartDataListViewerAddInApp::`RTTI Complete Object Locator'
PUBLIC	??_R0?AVCChartDataListViewerAddInApp@@@8	; CChartDataListViewerAddInApp `RTTI Type Descriptor'
PUBLIC	??_R3CChartDataListViewerAddInApp@@8		; CChartDataListViewerAddInApp::`RTTI Class Hierarchy Descriptor'
PUBLIC	??_R2CChartDataListViewerAddInApp@@8		; CChartDataListViewerAddInApp::`RTTI Base Class Array'
PUBLIC	??_R1A@?0A@EA@CChartDataListViewerAddInApp@@8	; CChartDataListViewerAddInApp::`RTTI Base Class Descriptor at (0,-1,0,64)'
PUBLIC	??_R1A@?0A@EA@CWinApp@@8			; CWinApp::`RTTI Base Class Descriptor at (0,-1,0,64)'
PUBLIC	??_R0?AVCWinApp@@@8				; CWinApp `RTTI Type Descriptor'
PUBLIC	??_R3CWinApp@@8					; CWinApp::`RTTI Class Hierarchy Descriptor'
PUBLIC	??_R2CWinApp@@8					; CWinApp::`RTTI Base Class Array'
PUBLIC	??_R1A@?0A@EA@CWinThread@@8			; CWinThread::`RTTI Base Class Descriptor at (0,-1,0,64)'
PUBLIC	??_R0?AVCWinThread@@@8				; CWinThread `RTTI Type Descriptor'
PUBLIC	??_R3CWinThread@@8				; CWinThread::`RTTI Class Hierarchy Descriptor'
PUBLIC	??_R2CWinThread@@8				; CWinThread::`RTTI Base Class Array'
EXTRN	??2@YAPAXI@Z:PROC				; operator new
EXTRN	??3@YAXPAX@Z:PROC				; operator delete
EXTRN	?__global_delete@@YAXPAXI@Z:PROC		; __global_delete
EXTRN	_atexit:PROC
EXTRN	__imp_??0?$CStringT@DV?$StrTraitMFC_DLL@DV?$ChTraitsCRT@D@ATL@@@@@ATL@@QAE@PBD@Z:PROC
EXTRN	__imp_??1?$CStringT@DV?$StrTraitMFC_DLL@DV?$ChTraitsCRT@D@ATL@@@@@ATL@@QAE@XZ:PROC
EXTRN	__imp_?Compare@?$CStringT@DV?$StrTraitMFC_DLL@DV?$ChTraitsCRT@D@ATL@@@@@ATL@@QBEHPBD@Z:PROC
EXTRN	__imp_?MakeUpper@?$CStringT@DV?$StrTraitMFC_DLL@DV?$ChTraitsCRT@D@ATL@@@@@ATL@@QAEAAV12@XZ:PROC
EXTRN	?OnCmdMsg@CCmdTarget@@UAEHIHPAXPAUAFX_CMDHANDLERINFO@@@Z:PROC ; CCmdTarget::OnCmdMsg
EXTRN	?OnFinalRelease@CCmdTarget@@UAEXXZ:PROC		; CCmdTarget::OnFinalRelease
EXTRN	?IsInvokeAllowed@CCmdTarget@@UAEHJ@Z:PROC	; CCmdTarget::IsInvokeAllowed
EXTRN	?GetDispatchIID@CCmdTarget@@UAEHPAU_GUID@@@Z:PROC ; CCmdTarget::GetDispatchIID
EXTRN	?GetTypeInfoCount@CCmdTarget@@UAEIXZ:PROC	; CCmdTarget::GetTypeInfoCount
EXTRN	?GetTypeLibCache@CCmdTarget@@UAEPAVCTypeLibCache@@XZ:PROC ; CCmdTarget::GetTypeLibCache
EXTRN	?GetTypeLib@CCmdTarget@@UAEJKPAPAUITypeLib@@@Z:PROC ; CCmdTarget::GetTypeLib
EXTRN	?GetCommandMap@CCmdTarget@@MBEPBUAFX_OLECMDMAP@@XZ:PROC ; CCmdTarget::GetCommandMap
EXTRN	?GetDispatchMap@CCmdTarget@@MBEPBUAFX_DISPMAP@@XZ:PROC ; CCmdTarget::GetDispatchMap
EXTRN	?GetConnectionMap@CCmdTarget@@MBEPBUAFX_CONNECTIONMAP@@XZ:PROC ; CCmdTarget::GetConnectionMap
EXTRN	?GetInterfaceMap@CCmdTarget@@MBEPBUAFX_INTERFACEMAP@@XZ:PROC ; CCmdTarget::GetInterfaceMap
EXTRN	?GetEventSinkMap@CCmdTarget@@MBEPBUAFX_EVENTSINKMAP@@XZ:PROC ; CCmdTarget::GetEventSinkMap
EXTRN	?OnCreateAggregates@CCmdTarget@@UAEHXZ:PROC	; CCmdTarget::OnCreateAggregates
EXTRN	?GetInterfaceHook@CCmdTarget@@UAEPAUIUnknown@@PBX@Z:PROC ; CCmdTarget::GetInterfaceHook
EXTRN	?GetExtraConnectionPoints@CCmdTarget@@MAEHPAVCPtrArray@@@Z:PROC ; CCmdTarget::GetExtraConnectionPoints
EXTRN	?GetConnectionHook@CCmdTarget@@MAEPAUIConnectionPoint@@ABU_GUID@@@Z:PROC ; CCmdTarget::GetConnectionHook
EXTRN	?PreTranslateMessage@CWinThread@@UAEHPAUtagMSG@@@Z:PROC ; CWinThread::PreTranslateMessage
EXTRN	?PumpMessage@CWinThread@@UAEHXZ:PROC		; CWinThread::PumpMessage
EXTRN	?IsIdleMessage@CWinThread@@UAEHPAUtagMSG@@@Z:PROC ; CWinThread::IsIdleMessage
EXTRN	?ProcessMessageFilter@CWinThread@@UAEHHPAUtagMSG@@@Z:PROC ; CWinThread::ProcessMessageFilter
EXTRN	?GetMainWnd@CWinThread@@UAEPAVCWnd@@XZ:PROC	; CWinThread::GetMainWnd
EXTRN	?Delete@CWinThread@@UAEXXZ:PROC			; CWinThread::Delete
EXTRN	?GetRuntimeClass@CWinApp@@UBEPAUCRuntimeClass@@XZ:PROC ; CWinApp::GetRuntimeClass
EXTRN	??0CWinApp@@QAE@PBD@Z:PROC			; CWinApp::CWinApp
EXTRN	?GetProfileIntA@CWinApp@@UAEIPBD0H@Z:PROC	; CWinApp::GetProfileIntA
EXTRN	?WriteProfileInt@CWinApp@@UAEHPBD0H@Z:PROC	; CWinApp::WriteProfileInt
EXTRN	?GetProfileStringA@CWinApp@@UAE?AV?$CStringT@DV?$StrTraitMFC_DLL@DV?$ChTraitsCRT@D@ATL@@@@@ATL@@PBD00@Z:PROC ; CWinApp::GetProfileStringA
EXTRN	?WriteProfileStringA@CWinApp@@UAEHPBD00@Z:PROC	; CWinApp::WriteProfileStringA
EXTRN	?GetProfileBinary@CWinApp@@UAEHPBD0PAPAEPAI@Z:PROC ; CWinApp::GetProfileBinary
EXTRN	?WriteProfileBinary@CWinApp@@UAEHPBD0PAEI@Z:PROC ; CWinApp::WriteProfileBinary
EXTRN	?InitLibId@CWinApp@@UAEXXZ:PROC			; CWinApp::InitLibId
EXTRN	?Register@CWinApp@@UAEHXZ:PROC			; CWinApp::Register
EXTRN	?Unregister@CWinApp@@UAEHXZ:PROC		; CWinApp::Unregister
EXTRN	?OpenDocumentFile@CWinApp@@UAEPAVCDocument@@PBD@Z:PROC ; CWinApp::OpenDocumentFile
EXTRN	?OpenDocumentFile@CWinApp@@UAEPAVCDocument@@PBDH@Z:PROC ; CWinApp::OpenDocumentFile
EXTRN	?AddToRecentFileList@CWinApp@@UAEXPBD@Z:PROC	; CWinApp::AddToRecentFileList
EXTRN	?InitApplication@CWinApp@@UAEHXZ:PROC		; CWinApp::InitApplication
EXTRN	?SaveAllModified@CWinApp@@UAEHXZ:PROC		; CWinApp::SaveAllModified
EXTRN	?DoMessageBox@CWinApp@@UAEHPBDII@Z:PROC		; CWinApp::DoMessageBox
EXTRN	?DoWaitCursor@CWinApp@@UAEXH@Z:PROC		; CWinApp::DoWaitCursor
EXTRN	?OnDDECommand@CWinApp@@UAEHPAD@Z:PROC		; CWinApp::OnDDECommand
EXTRN	?WinHelpA@CWinApp@@UAEXKI@Z:PROC		; CWinApp::WinHelpA
EXTRN	?HtmlHelpA@CWinApp@@UAEXKI@Z:PROC		; CWinApp::HtmlHelpA
EXTRN	?WinHelpInternal@CWinApp@@UAEXKI@Z:PROC		; CWinApp::WinHelpInternal
EXTRN	?RegisterWithRestartManager@CWinApp@@UAEJHABV?$CStringT@DV?$StrTraitMFC_DLL@DV?$ChTraitsCRT@D@ATL@@@@@ATL@@@Z:PROC ; CWinApp::RegisterWithRestartManager
EXTRN	?RegisterWithRestartManager@CWinApp@@UAEJPB_WKP6GKPAX@Z1KK@Z:PROC ; CWinApp::RegisterWithRestartManager
EXTRN	?ApplicationRecoveryCallback@CWinApp@@UAEKPAX@Z:PROC ; CWinApp::ApplicationRecoveryCallback
EXTRN	?GetDataRecoveryHandler@CWinApp@@UAEPAVCDataRecoveryHandler@@XZ:PROC ; CWinApp::GetDataRecoveryHandler
EXTRN	?IsTaskbarInteractionEnabled@CWinApp@@UAEHXZ:PROC ; CWinApp::IsTaskbarInteractionEnabled
EXTRN	?InitInstance@CWinApp@@UAEHXZ:PROC		; CWinApp::InitInstance
EXTRN	?ExitInstance@CWinApp@@UAEHXZ:PROC		; CWinApp::ExitInstance
EXTRN	?RestartInstance@CWinApp@@UAEHXZ:PROC		; CWinApp::RestartInstance
EXTRN	?Run@CWinApp@@UAEHXZ:PROC			; CWinApp::Run
EXTRN	?OnIdle@CWinApp@@UAEHJ@Z:PROC			; CWinApp::OnIdle
EXTRN	?ProcessWndProcException@CWinApp@@UAEJPAVCException@@PBUtagMSG@@@Z:PROC ; CWinApp::ProcessWndProcException
EXTRN	?LoadAppLangResourceDLL@CWinApp@@UAEPAUHINSTANCE__@@XZ:PROC ; CWinApp::LoadAppLangResourceDLL
EXTRN	??1CWinApp@@UAE@XZ:PROC				; CWinApp::~CWinApp
EXTRN	?GetThisMessageMap@CWinApp@@KGPBUAFX_MSGMAP@@XZ:PROC ; CWinApp::GetThisMessageMap
EXTRN	?LoadSysPolicies@CWinApp@@UAEHXZ:PROC		; CWinApp::LoadSysPolicies
EXTRN	??_ECChartDataListViewerAddInApp@@UAEPAXI@Z:PROC ; CChartDataListViewerAddInApp::`vector deleting destructor'
EXTRN	??0CChartDataListViewerAddInImp@@QAE@PAUIChartOCX134221@@PAUIAddInDllBase@@@Z:PROC ; CChartDataListViewerAddInImp::CChartDataListViewerAddInImp
EXTRN	??0CChartExcelDataImportAddInImp@@QAE@PAUIChartOCX134221@@PAUIAddInDllBase@@@Z:PROC ; CChartExcelDataImportAddInImp::CChartExcelDataImportAddInImp
EXTRN	??0CChartDataSimulatorAddInImp@@QAE@PAUIChartOCX134221@@PAUIAddInDllBase@@@Z:PROC ; CChartDataSimulatorAddInImp::CChartDataSimulatorAddInImp
EXTRN	??_7type_info@@6B@:QWORD			; type_info::`vftable'
EXTRN	?m_strAddInItemName@CChartDataListViewerAddInImp@@2V?$CStringT@DV?$StrTraitMFC_DLL@DV?$ChTraitsCRT@D@ATL@@@@@ATL@@A:DWORD ; CChartDataListViewerAddInImp::m_strAddInItemName
EXTRN	?m_strAddInItemName@CChartExcelDataImportAddInImp@@2V?$CStringT@DV?$StrTraitMFC_DLL@DV?$ChTraitsCRT@D@ATL@@@@@ATL@@A:DWORD ; CChartExcelDataImportAddInImp::m_strAddInItemName
EXTRN	?m_strAddInItemName@CChartDataSimulatorAddInImp@@2V?$CStringT@DV?$StrTraitMFC_DLL@DV?$ChTraitsCRT@D@ATL@@@@@ATL@@A:DWORD ; CChartDataSimulatorAddInImp::m_strAddInItemName
_BSS	SEGMENT
?theApp@@3VCChartDataListViewerAddInApp@@A DB 0ccH DUP (?) ; theApp
_BSS	ENDS
CRT$XCU	SEGMENT
?theApp$initializer$@@3P6AXXZA DD FLAT:??__EtheApp@@YAXXZ ; theApp$initializer$
CRT$XCU	ENDS
;	COMDAT ??_R2CWinThread@@8
rdata$r	SEGMENT
??_R2CWinThread@@8 DD FLAT:??_R1A@?0A@EA@CWinThread@@8	; CWinThread::`RTTI Base Class Array'
	DD	FLAT:??_R1A@?0A@EA@CCmdTarget@@8
	DD	FLAT:??_R1A@?0A@EA@CObject@@8
rdata$r	ENDS
;	COMDAT ??_R3CWinThread@@8
rdata$r	SEGMENT
??_R3CWinThread@@8 DD 00H				; CWinThread::`RTTI Class Hierarchy Descriptor'
	DD	00H
	DD	03H
	DD	FLAT:??_R2CWinThread@@8
rdata$r	ENDS
;	COMDAT ??_R0?AVCWinThread@@@8
data$rs	SEGMENT
??_R0?AVCWinThread@@@8 DD FLAT:??_7type_info@@6B@	; CWinThread `RTTI Type Descriptor'
	DD	00H
	DB	'.?AVCWinThread@@', 00H
data$rs	ENDS
;	COMDAT ??_R1A@?0A@EA@CWinThread@@8
rdata$r	SEGMENT
??_R1A@?0A@EA@CWinThread@@8 DD FLAT:??_R0?AVCWinThread@@@8 ; CWinThread::`RTTI Base Class Descriptor at (0,-1,0,64)'
	DD	02H
	DD	00H
	DD	0ffffffffH
	DD	00H
	DD	040H
	DD	FLAT:??_R3CWinThread@@8
rdata$r	ENDS
;	COMDAT ??_R2CWinApp@@8
rdata$r	SEGMENT
??_R2CWinApp@@8 DD FLAT:??_R1A@?0A@EA@CWinApp@@8	; CWinApp::`RTTI Base Class Array'
	DD	FLAT:??_R1A@?0A@EA@CWinThread@@8
	DD	FLAT:??_R1A@?0A@EA@CCmdTarget@@8
	DD	FLAT:??_R1A@?0A@EA@CObject@@8
rdata$r	ENDS
;	COMDAT ??_R3CWinApp@@8
rdata$r	SEGMENT
??_R3CWinApp@@8 DD 00H					; CWinApp::`RTTI Class Hierarchy Descriptor'
	DD	00H
	DD	04H
	DD	FLAT:??_R2CWinApp@@8
rdata$r	ENDS
;	COMDAT ??_R0?AVCWinApp@@@8
data$rs	SEGMENT
??_R0?AVCWinApp@@@8 DD FLAT:??_7type_info@@6B@		; CWinApp `RTTI Type Descriptor'
	DD	00H
	DB	'.?AVCWinApp@@', 00H
data$rs	ENDS
;	COMDAT ??_R1A@?0A@EA@CWinApp@@8
rdata$r	SEGMENT
??_R1A@?0A@EA@CWinApp@@8 DD FLAT:??_R0?AVCWinApp@@@8	; CWinApp::`RTTI Base Class Descriptor at (0,-1,0,64)'
	DD	03H
	DD	00H
	DD	0ffffffffH
	DD	00H
	DD	040H
	DD	FLAT:??_R3CWinApp@@8
rdata$r	ENDS
;	COMDAT ??_R1A@?0A@EA@CChartDataListViewerAddInApp@@8
rdata$r	SEGMENT
??_R1A@?0A@EA@CChartDataListViewerAddInApp@@8 DD FLAT:??_R0?AVCChartDataListViewerAddInApp@@@8 ; CChartDataListViewerAddInApp::`RTTI Base Class Descriptor at (0,-1,0,64)'
	DD	04H
	DD	00H
	DD	0ffffffffH
	DD	00H
	DD	040H
	DD	FLAT:??_R3CChartDataListViewerAddInApp@@8
rdata$r	ENDS
;	COMDAT ??_R2CChartDataListViewerAddInApp@@8
rdata$r	SEGMENT
??_R2CChartDataListViewerAddInApp@@8 DD FLAT:??_R1A@?0A@EA@CChartDataListViewerAddInApp@@8 ; CChartDataListViewerAddInApp::`RTTI Base Class Array'
	DD	FLAT:??_R1A@?0A@EA@CWinApp@@8
	DD	FLAT:??_R1A@?0A@EA@CWinThread@@8
	DD	FLAT:??_R1A@?0A@EA@CCmdTarget@@8
	DD	FLAT:??_R1A@?0A@EA@CObject@@8
rdata$r	ENDS
;	COMDAT ??_R3CChartDataListViewerAddInApp@@8
rdata$r	SEGMENT
??_R3CChartDataListViewerAddInApp@@8 DD 00H		; CChartDataListViewerAddInApp::`RTTI Class Hierarchy Descriptor'
	DD	00H
	DD	05H
	DD	FLAT:??_R2CChartDataListViewerAddInApp@@8
rdata$r	ENDS
;	COMDAT ??_R0?AVCChartDataListViewerAddInApp@@@8
data$rs	SEGMENT
??_R0?AVCChartDataListViewerAddInApp@@@8 DD FLAT:??_7type_info@@6B@ ; CChartDataListViewerAddInApp `RTTI Type Descriptor'
	DD	00H
	DB	'.?AVCChartDataListViewerAddInApp@@', 00H
data$rs	ENDS
;	COMDAT ??_R4CChartDataListViewerAddInApp@@6B@
rdata$r	SEGMENT
??_R4CChartDataListViewerAddInApp@@6B@ DD 00H		; CChartDataListViewerAddInApp::`RTTI Complete Object Locator'
	DD	00H
	DD	00H
	DD	FLAT:??_R0?AVCChartDataListViewerAddInApp@@@8
	DD	FLAT:??_R3CChartDataListViewerAddInApp@@8
rdata$r	ENDS
;	COMDAT ?messageMap@?1??GetThisMessageMap@CChartDataListViewerAddInApp@@KGPBUAFX_MSGMAP@@XZ@4U3@B
CONST	SEGMENT
?messageMap@?1??GetThisMessageMap@CChartDataListViewerAddInApp@@KGPBUAFX_MSGMAP@@XZ@4U3@B DD FLAT:?GetThisMessageMap@CWinApp@@KGPBUAFX_MSGMAP@@XZ ; `CChartDataListViewerAddInApp::GetThisMessageMap'::`2'::messageMap
	DD	FLAT:?_messageEntries@?1??GetThisMessageMap@CChartDataListViewerAddInApp@@KGPBUAFX_MSGMAP@@XZ@4QBUAFX_MSGMAP_ENTRY@@B
CONST	ENDS
;	COMDAT ?_messageEntries@?1??GetThisMessageMap@CChartDataListViewerAddInApp@@KGPBUAFX_MSGMAP@@XZ@4QBUAFX_MSGMAP_ENTRY@@B
CONST	SEGMENT
?_messageEntries@?1??GetThisMessageMap@CChartDataListViewerAddInApp@@KGPBUAFX_MSGMAP@@XZ@4QBUAFX_MSGMAP_ENTRY@@B DD 00H ; `CChartDataListViewerAddInApp::GetThisMessageMap'::`2'::_messageEntries
	DD	00H
	DD	00H
	DD	00H
	DD	00H
	DD	00H
CONST	ENDS
;	COMDAT ??_7CChartDataListViewerAddInApp@@6B@
CONST	SEGMENT
??_7CChartDataListViewerAddInApp@@6B@ DD FLAT:??_R4CChartDataListViewerAddInApp@@6B@ ; CChartDataListViewerAddInApp::`vftable'
	DD	FLAT:?GetRuntimeClass@CWinApp@@UBEPAUCRuntimeClass@@XZ
	DD	FLAT:??_ECChartDataListViewerAddInApp@@UAEPAXI@Z
	DD	FLAT:?Serialize@CObject@@UAEXAAVCArchive@@@Z
	DD	FLAT:?AssertValid@CObject@@UBEXXZ
	DD	FLAT:?Dump@CObject@@UBEXAAVCDumpContext@@@Z
	DD	FLAT:?OnCmdMsg@CCmdTarget@@UAEHIHPAXPAUAFX_CMDHANDLERINFO@@@Z
	DD	FLAT:?OnFinalRelease@CCmdTarget@@UAEXXZ
	DD	FLAT:?IsInvokeAllowed@CCmdTarget@@UAEHJ@Z
	DD	FLAT:?GetDispatchIID@CCmdTarget@@UAEHPAU_GUID@@@Z
	DD	FLAT:?GetTypeInfoCount@CCmdTarget@@UAEIXZ
	DD	FLAT:?GetTypeLibCache@CCmdTarget@@UAEPAVCTypeLibCache@@XZ
	DD	FLAT:?GetTypeLib@CCmdTarget@@UAEJKPAPAUITypeLib@@@Z
	DD	FLAT:?GetMessageMap@CChartDataListViewerAddInApp@@MBEPBUAFX_MSGMAP@@XZ
	DD	FLAT:?GetCommandMap@CCmdTarget@@MBEPBUAFX_OLECMDMAP@@XZ
	DD	FLAT:?GetDispatchMap@CCmdTarget@@MBEPBUAFX_DISPMAP@@XZ
	DD	FLAT:?GetConnectionMap@CCmdTarget@@MBEPBUAFX_CONNECTIONMAP@@XZ
	DD	FLAT:?GetInterfaceMap@CCmdTarget@@MBEPBUAFX_INTERFACEMAP@@XZ
	DD	FLAT:?GetEventSinkMap@CCmdTarget@@MBEPBUAFX_EVENTSINKMAP@@XZ
	DD	FLAT:?OnCreateAggregates@CCmdTarget@@UAEHXZ
	DD	FLAT:?GetInterfaceHook@CCmdTarget@@UAEPAUIUnknown@@PBX@Z
	DD	FLAT:?GetExtraConnectionPoints@CCmdTarget@@MAEHPAVCPtrArray@@@Z
	DD	FLAT:?GetConnectionHook@CCmdTarget@@MAEPAUIConnectionPoint@@ABU_GUID@@@Z
	DD	FLAT:?InitInstance@CWinApp@@UAEHXZ
	DD	FLAT:?Run@CWinApp@@UAEHXZ
	DD	FLAT:?PreTranslateMessage@CWinThread@@UAEHPAUtagMSG@@@Z
	DD	FLAT:?PumpMessage@CWinThread@@UAEHXZ
	DD	FLAT:?OnIdle@CWinApp@@UAEHJ@Z
	DD	FLAT:?IsIdleMessage@CWinThread@@UAEHPAUtagMSG@@@Z
	DD	FLAT:?ExitInstance@CWinApp@@UAEHXZ
	DD	FLAT:?ProcessWndProcException@CWinApp@@UAEJPAVCException@@PBUtagMSG@@@Z
	DD	FLAT:?ProcessMessageFilter@CWinThread@@UAEHHPAUtagMSG@@@Z
	DD	FLAT:?GetMainWnd@CWinThread@@UAEPAVCWnd@@XZ
	DD	FLAT:?Delete@CWinThread@@UAEXXZ
	DD	FLAT:?GetProfileIntA@CWinApp@@UAEIPBD0H@Z
	DD	FLAT:?WriteProfileInt@CWinApp@@UAEHPBD0H@Z
	DD	FLAT:?GetProfileStringA@CWinApp@@UAE?AV?$CStringT@DV?$StrTraitMFC_DLL@DV?$ChTraitsCRT@D@ATL@@@@@ATL@@PBD00@Z
	DD	FLAT:?WriteProfileStringA@CWinApp@@UAEHPBD00@Z
	DD	FLAT:?GetProfileBinary@CWinApp@@UAEHPBD0PAPAEPAI@Z
	DD	FLAT:?WriteProfileBinary@CWinApp@@UAEHPBD0PAEI@Z
	DD	FLAT:?InitLibId@CWinApp@@UAEXXZ
	DD	FLAT:?Register@CWinApp@@UAEHXZ
	DD	FLAT:?Unregister@CWinApp@@UAEHXZ
	DD	FLAT:?OpenDocumentFile@CWinApp@@UAEPAVCDocument@@PBDH@Z
	DD	FLAT:?OpenDocumentFile@CWinApp@@UAEPAVCDocument@@PBD@Z
	DD	FLAT:?AddToRecentFileList@CWinApp@@UAEXPBD@Z
	DD	FLAT:?InitApplication@CWinApp@@UAEHXZ
	DD	FLAT:?SaveAllModified@CWinApp@@UAEHXZ
	DD	FLAT:?DoMessageBox@CWinApp@@UAEHPBDII@Z
	DD	FLAT:?DoWaitCursor@CWinApp@@UAEXH@Z
	DD	FLAT:?OnDDECommand@CWinApp@@UAEHPAD@Z
	DD	FLAT:?WinHelpA@CWinApp@@UAEXKI@Z
	DD	FLAT:?HtmlHelpA@CWinApp@@UAEXKI@Z
	DD	FLAT:?WinHelpInternal@CWinApp@@UAEXKI@Z
	DD	FLAT:?RegisterWithRestartManager@CWinApp@@UAEJPB_WKP6GKPAX@Z1KK@Z
	DD	FLAT:?RegisterWithRestartManager@CWinApp@@UAEJHABV?$CStringT@DV?$StrTraitMFC_DLL@DV?$ChTraitsCRT@D@ATL@@@@@ATL@@@Z
	DD	FLAT:?ApplicationRecoveryCallback@CWinApp@@UAEKPAX@Z
	DD	FLAT:?SupportsRestartManager@CWinApp@@UBEHXZ
	DD	FLAT:?SupportsApplicationRecovery@CWinApp@@UBEHXZ
	DD	FLAT:?SupportsAutosaveAtRestart@CWinApp@@UBEHXZ
	DD	FLAT:?SupportsAutosaveAtInterval@CWinApp@@UBEHXZ
	DD	FLAT:?ReopenPreviousFilesAtRestart@CWinApp@@UBEHXZ
	DD	FLAT:?RestoreAutosavedFilesAtRestart@CWinApp@@UBEHXZ
	DD	FLAT:?GetApplicationRestartFlags@CWinApp@@UAEKXZ
	DD	FLAT:?GetApplicationRecoveryParameter@CWinApp@@UAEPAXXZ
	DD	FLAT:?GetApplicationRecoveryPingInterval@CWinApp@@UAEKXZ
	DD	FLAT:?GetDataRecoveryHandler@CWinApp@@UAEPAVCDataRecoveryHandler@@XZ
	DD	FLAT:?IsTaskbarInteractionEnabled@CWinApp@@UAEHXZ
	DD	FLAT:?RestartInstance@CWinApp@@UAEHXZ
	DD	FLAT:?LoadAppLangResourceDLL@CWinApp@@UAEPAUHINSTANCE__@@XZ
	DD	FLAT:?LoadSysPolicies@CWinApp@@UAEHXZ
CONST	ENDS
;	COMDAT ??_R2CCmdTarget@@8
rdata$r	SEGMENT
??_R2CCmdTarget@@8 DD FLAT:??_R1A@?0A@EA@CCmdTarget@@8	; CCmdTarget::`RTTI Base Class Array'
	DD	FLAT:??_R1A@?0A@EA@CObject@@8
rdata$r	ENDS
;	COMDAT ??_R3CCmdTarget@@8
rdata$r	SEGMENT
??_R3CCmdTarget@@8 DD 00H				; CCmdTarget::`RTTI Class Hierarchy Descriptor'
	DD	00H
	DD	02H
	DD	FLAT:??_R2CCmdTarget@@8
rdata$r	ENDS
;	COMDAT ??_R0?AVCCmdTarget@@@8
data$rs	SEGMENT
??_R0?AVCCmdTarget@@@8 DD FLAT:??_7type_info@@6B@	; CCmdTarget `RTTI Type Descriptor'
	DD	00H
	DB	'.?AVCCmdTarget@@', 00H
data$rs	ENDS
;	COMDAT ??_R1A@?0A@EA@CCmdTarget@@8
rdata$r	SEGMENT
??_R1A@?0A@EA@CCmdTarget@@8 DD FLAT:??_R0?AVCCmdTarget@@@8 ; CCmdTarget::`RTTI Base Class Descriptor at (0,-1,0,64)'
	DD	01H
	DD	00H
	DD	0ffffffffH
	DD	00H
	DD	040H
	DD	FLAT:??_R3CCmdTarget@@8
rdata$r	ENDS
;	COMDAT ??_R1A@?0A@EA@CObject@@8
rdata$r	SEGMENT
??_R1A@?0A@EA@CObject@@8 DD FLAT:??_R0?AVCObject@@@8	; CObject::`RTTI Base Class Descriptor at (0,-1,0,64)'
	DD	00H
	DD	00H
	DD	0ffffffffH
	DD	00H
	DD	040H
	DD	FLAT:??_R3CObject@@8
rdata$r	ENDS
;	COMDAT ??_R2CObject@@8
rdata$r	SEGMENT
??_R2CObject@@8 DD FLAT:??_R1A@?0A@EA@CObject@@8	; CObject::`RTTI Base Class Array'
rdata$r	ENDS
;	COMDAT ??_R3CObject@@8
rdata$r	SEGMENT
??_R3CObject@@8 DD 00H					; CObject::`RTTI Class Hierarchy Descriptor'
	DD	00H
	DD	01H
	DD	FLAT:??_R2CObject@@8
rdata$r	ENDS
;	COMDAT ??_R0?AVCObject@@@8
data$rs	SEGMENT
??_R0?AVCObject@@@8 DD FLAT:??_7type_info@@6B@		; CObject `RTTI Type Descriptor'
	DD	00H
	DB	'.?AVCObject@@', 00H
data$rs	ENDS
; Function compile flags: /Ogtp
; File D:\git\src\IBK\IBK_DRFN\ProjSrc\SrcChartEx\ChartAddIn\ChartDataListViewerAddIn\ChartDataListViewerAddIn\ChartDataListViewerAddIn.cpp
; File C:\Program Files (x86)\Microsoft Visual Studio\2019\Community\VC\Tools\MSVC\14.29.30133\atlmfc\include\cstringt.h
; File D:\git\src\IBK\IBK_DRFN\ProjSrc\SrcChartEx\ChartAddIn\ChartDataListViewerAddIn\ChartDataListViewerAddIn\ChartDataListViewerAddIn.cpp
; File C:\Program Files (x86)\Microsoft Visual Studio\2019\Community\VC\Tools\MSVC\14.29.30133\atlmfc\include\afx.inl
; File D:\git\src\IBK\IBK_DRFN\ProjSrc\SrcChartEx\ChartAddIn\ChartDataListViewerAddIn\ChartDataListViewerAddIn\ChartDataListViewerAddIn.cpp
; File C:\Program Files (x86)\Microsoft Visual Studio\2019\Community\VC\Tools\MSVC\14.29.30133\atlmfc\include\cstringt.h
; File D:\git\src\IBK\IBK_DRFN\ProjSrc\SrcChartEx\ChartAddIn\ChartDataListViewerAddIn\ChartDataListViewerAddIn\ChartDataListViewerAddIn.cpp
; File C:\Program Files (x86)\Microsoft Visual Studio\2019\Community\VC\Tools\MSVC\14.29.30133\atlmfc\include\afx.inl
; File D:\git\src\IBK\IBK_DRFN\ProjSrc\SrcChartEx\ChartAddIn\ChartDataListViewerAddIn\ChartDataListViewerAddIn\ChartDataListViewerAddIn.cpp
; File C:\Program Files (x86)\Microsoft Visual Studio\2019\Community\VC\Tools\MSVC\14.29.30133\atlmfc\include\cstringt.h
; File D:\git\src\IBK\IBK_DRFN\ProjSrc\SrcChartEx\ChartAddIn\ChartDataListViewerAddIn\ChartDataListViewerAddIn\ChartDataListViewerAddIn.cpp
; File C:\Program Files (x86)\Microsoft Visual Studio\2019\Community\VC\Tools\MSVC\14.29.30133\atlmfc\include\afx.inl
; File D:\git\src\IBK\IBK_DRFN\ProjSrc\SrcChartEx\ChartAddIn\ChartDataListViewerAddIn\ChartDataListViewerAddIn\ChartDataListViewerAddIn.cpp
;	COMDAT _InitAddInDll
_TEXT	SEGMENT
_strAddInItem$ = 8					; size = 4
_p_szAddInItem$ = 8					; size = 4
_p_pIAddInManager$ = 12					; size = 4
_p_pIAddInDllBase$ = 16					; size = 4
_InitAddInDll PROC					; COMDAT

; 102  : {

  00000	55		 push	 ebp
  00001	8b ec		 mov	 ebp, esp
  00003	56		 push	 esi

; 103  : 	// 0. NULL Pointer를 확인한다.
; 104  : 	// (2006/2/15 - Seung-Won, Bae) Multiple Item in DLL
; 105  : 	if( !p_szAddInItem || !p_pIAddInManager) return NULL;

  00004	8b 75 08	 mov	 esi, DWORD PTR _p_szAddInItem$[ebp]
  00007	57		 push	 edi
  00008	85 f6		 test	 esi, esi
  0000a	0f 84 3c 01 00
	00		 je	 $LN3@InitAddInD
  00010	8b 4d 0c	 mov	 ecx, DWORD PTR _p_pIAddInManager$[ebp]
  00013	85 c9		 test	 ecx, ecx
  00015	0f 84 31 01 00
	00		 je	 $LN3@InitAddInD

; 106  : 
; 107  : 	// 1. Chart Ocx의 Interface를 구한다.
; 108  : 	IChartOCX *pIChartOCX = p_pIAddInManager->GetIChartOCX();

  0001b	8b 01		 mov	 eax, DWORD PTR [ecx]
  0001d	ff 50 3c	 call	 DWORD PTR [eax+60]
  00020	8b f8		 mov	 edi, eax

; 109  : 	if( !pIChartOCX) return NULL;

  00022	85 ff		 test	 edi, edi
  00024	0f 84 22 01 00
	00		 je	 $LN3@InitAddInD

; 110  : 
; 111  : 	// 2. Chart Ocx의 Interface를 이용하여 AddIn Object를 생성한다.
; 112  : 	CString strAddInItem( p_szAddInItem);

  0002a	53		 push	 ebx
  0002b	56		 push	 esi
  0002c	8d 4d 08	 lea	 ecx, DWORD PTR _strAddInItem$[ebp]
  0002f	ff 15 00 00 00
	00		 call	 DWORD PTR __imp_??0?$CStringT@DV?$StrTraitMFC_DLL@DV?$ChTraitsCRT@D@ATL@@@@@ATL@@QAE@PBD@Z

; 113  : 	strAddInItem.MakeUpper();

  00035	8d 4d 08	 lea	 ecx, DWORD PTR _strAddInItem$[ebp]
  00038	ff 15 00 00 00
	00		 call	 DWORD PTR __imp_?MakeUpper@?$CStringT@DV?$StrTraitMFC_DLL@DV?$ChTraitsCRT@D@ATL@@@@@ATL@@QAEAAV12@XZ

; 114  : 	IChartAddIn *pIChartAddIn = NULL;
; 115  : 	WORD wID = *( WORD *)( const char *)strAddInItem;

  0003e	8b 45 08	 mov	 eax, DWORD PTR _strAddInItem$[ebp]
  00041	33 f6		 xor	 esi, esi

; 117  : 	GET_ADDIN_OBJECT( CChartDataListViewerAddInImp);

  00043	8b 0d 00 00 00
	00		 mov	 ecx, DWORD PTR ?m_strAddInItemName@CChartDataListViewerAddInImp@@2V?$CStringT@DV?$StrTraitMFC_DLL@DV?$ChTraitsCRT@D@ATL@@@@@ATL@@A ; CChartDataListViewerAddInImp::m_strAddInItemName
  00049	0f b7 18	 movzx	 ebx, WORD PTR [eax]
  0004c	66 39 19	 cmp	 WORD PTR [ecx], bx
  0004f	75 3e		 jne	 SHORT $LN57@InitAddInD
; File C:\Program Files (x86)\Microsoft Visual Studio\2019\Community\VC\Tools\MSVC\14.29.30133\atlmfc\include\cstringt.h

; 2479 : 		return(str1.Compare(str2) == 0);

  00051	50		 push	 eax
  00052	b9 00 00 00 00	 mov	 ecx, OFFSET ?m_strAddInItemName@CChartDataListViewerAddInImp@@2V?$CStringT@DV?$StrTraitMFC_DLL@DV?$ChTraitsCRT@D@ATL@@@@@ATL@@A ; CChartDataListViewerAddInImp::m_strAddInItemName
  00057	ff 15 00 00 00
	00		 call	 DWORD PTR __imp_?Compare@?$CStringT@DV?$StrTraitMFC_DLL@DV?$ChTraitsCRT@D@ATL@@@@@ATL@@QBEHPBD@Z
  0005d	85 c0		 test	 eax, eax
; File D:\git\src\IBK\IBK_DRFN\ProjSrc\SrcChartEx\ChartAddIn\ChartDataListViewerAddIn\ChartDataListViewerAddIn\ChartDataListViewerAddIn.cpp

; 117  : 	GET_ADDIN_OBJECT( CChartDataListViewerAddInImp);

  0005f	75 2e		 jne	 SHORT $LN57@InitAddInD
; File C:\Program Files (x86)\Microsoft Visual Studio\2019\Community\VC\Tools\MSVC\14.29.30133\atlmfc\include\afx.inl

; 116  : 	{ return ::operator new(nSize); }

  00061	6a 44		 push	 68			; 00000044H
  00063	e8 00 00 00 00	 call	 ??2@YAPAXI@Z		; operator new
  00068	83 c4 04	 add	 esp, 4
; File D:\git\src\IBK\IBK_DRFN\ProjSrc\SrcChartEx\ChartAddIn\ChartDataListViewerAddIn\ChartDataListViewerAddIn\ChartDataListViewerAddIn.cpp

; 117  : 	GET_ADDIN_OBJECT( CChartDataListViewerAddInImp);

  0006b	85 c0		 test	 eax, eax
  0006d	74 1e		 je	 SHORT $LN17@InitAddInD
  0006f	ff 75 10	 push	 DWORD PTR _p_pIAddInDllBase$[ebp]
  00072	8b c8		 mov	 ecx, eax
  00074	57		 push	 edi
  00075	e8 00 00 00 00	 call	 ??0CChartDataListViewerAddInImp@@QAE@PAUIChartOCX134221@@PAUIAddInDllBase@@@Z ; CChartDataListViewerAddInImp::CChartDataListViewerAddInImp
  0007a	8b f0		 mov	 esi, eax
  0007c	8d 46 08	 lea	 eax, DWORD PTR [esi+8]
  0007f	f7 de		 neg	 esi
  00081	1b f6		 sbb	 esi, esi
  00083	23 f0		 and	 esi, eax

; 118  : 	GET_ADDIN_OBJECT( CChartExcelDataImportAddInImp);

  00085	0f 85 8e 00 00
	00		 jne	 $LN13@InitAddInD
  0008b	eb 02		 jmp	 SHORT $LN57@InitAddInD
$LN17@InitAddInD:

; 117  : 	GET_ADDIN_OBJECT( CChartDataListViewerAddInImp);

  0008d	33 f6		 xor	 esi, esi
$LN57@InitAddInD:

; 118  : 	GET_ADDIN_OBJECT( CChartExcelDataImportAddInImp);

  0008f	a1 00 00 00 00	 mov	 eax, DWORD PTR ?m_strAddInItemName@CChartExcelDataImportAddInImp@@2V?$CStringT@DV?$StrTraitMFC_DLL@DV?$ChTraitsCRT@D@ATL@@@@@ATL@@A ; CChartExcelDataImportAddInImp::m_strAddInItemName
  00094	66 39 18	 cmp	 WORD PTR [eax], bx
  00097	75 3c		 jne	 SHORT $LN58@InitAddInD
; File C:\Program Files (x86)\Microsoft Visual Studio\2019\Community\VC\Tools\MSVC\14.29.30133\atlmfc\include\cstringt.h

; 2479 : 		return(str1.Compare(str2) == 0);

  00099	ff 75 08	 push	 DWORD PTR _strAddInItem$[ebp]
  0009c	b9 00 00 00 00	 mov	 ecx, OFFSET ?m_strAddInItemName@CChartExcelDataImportAddInImp@@2V?$CStringT@DV?$StrTraitMFC_DLL@DV?$ChTraitsCRT@D@ATL@@@@@ATL@@A ; CChartExcelDataImportAddInImp::m_strAddInItemName
  000a1	ff 15 00 00 00
	00		 call	 DWORD PTR __imp_?Compare@?$CStringT@DV?$StrTraitMFC_DLL@DV?$ChTraitsCRT@D@ATL@@@@@ATL@@QBEHPBD@Z
  000a7	85 c0		 test	 eax, eax
; File D:\git\src\IBK\IBK_DRFN\ProjSrc\SrcChartEx\ChartAddIn\ChartDataListViewerAddIn\ChartDataListViewerAddIn\ChartDataListViewerAddIn.cpp

; 118  : 	GET_ADDIN_OBJECT( CChartExcelDataImportAddInImp);

  000a9	75 2a		 jne	 SHORT $LN58@InitAddInD
; File C:\Program Files (x86)\Microsoft Visual Studio\2019\Community\VC\Tools\MSVC\14.29.30133\atlmfc\include\afx.inl

; 116  : 	{ return ::operator new(nSize); }

  000ab	6a 44		 push	 68			; 00000044H
  000ad	e8 00 00 00 00	 call	 ??2@YAPAXI@Z		; operator new
  000b2	83 c4 04	 add	 esp, 4
; File D:\git\src\IBK\IBK_DRFN\ProjSrc\SrcChartEx\ChartAddIn\ChartDataListViewerAddIn\ChartDataListViewerAddIn\ChartDataListViewerAddIn.cpp

; 118  : 	GET_ADDIN_OBJECT( CChartExcelDataImportAddInImp);

  000b5	85 c0		 test	 eax, eax
  000b7	74 1a		 je	 SHORT $LN21@InitAddInD
  000b9	ff 75 10	 push	 DWORD PTR _p_pIAddInDllBase$[ebp]
  000bc	8b c8		 mov	 ecx, eax
  000be	57		 push	 edi
  000bf	e8 00 00 00 00	 call	 ??0CChartExcelDataImportAddInImp@@QAE@PAUIChartOCX134221@@PAUIAddInDllBase@@@Z ; CChartExcelDataImportAddInImp::CChartExcelDataImportAddInImp
  000c4	8b f0		 mov	 esi, eax
  000c6	8d 46 08	 lea	 eax, DWORD PTR [esi+8]
  000c9	f7 de		 neg	 esi
  000cb	1b f6		 sbb	 esi, esi
  000cd	23 f0		 and	 esi, eax

; 119  : 	GET_ADDIN_OBJECT( CChartDataSimulatorAddInImp);		//20081011 이문수 데이터시뮬레이션 >>

  000cf	75 48		 jne	 SHORT $LN13@InitAddInD
  000d1	eb 02		 jmp	 SHORT $LN58@InitAddInD
$LN21@InitAddInD:

; 118  : 	GET_ADDIN_OBJECT( CChartExcelDataImportAddInImp);

  000d3	33 f6		 xor	 esi, esi
$LN58@InitAddInD:

; 119  : 	GET_ADDIN_OBJECT( CChartDataSimulatorAddInImp);		//20081011 이문수 데이터시뮬레이션 >>

  000d5	a1 00 00 00 00	 mov	 eax, DWORD PTR ?m_strAddInItemName@CChartDataSimulatorAddInImp@@2V?$CStringT@DV?$StrTraitMFC_DLL@DV?$ChTraitsCRT@D@ATL@@@@@ATL@@A ; CChartDataSimulatorAddInImp::m_strAddInItemName
  000da	66 39 18	 cmp	 WORD PTR [eax], bx
  000dd	75 3a		 jne	 SHORT $LN13@InitAddInD
; File C:\Program Files (x86)\Microsoft Visual Studio\2019\Community\VC\Tools\MSVC\14.29.30133\atlmfc\include\cstringt.h

; 2479 : 		return(str1.Compare(str2) == 0);

  000df	ff 75 08	 push	 DWORD PTR _strAddInItem$[ebp]
  000e2	b9 00 00 00 00	 mov	 ecx, OFFSET ?m_strAddInItemName@CChartDataSimulatorAddInImp@@2V?$CStringT@DV?$StrTraitMFC_DLL@DV?$ChTraitsCRT@D@ATL@@@@@ATL@@A ; CChartDataSimulatorAddInImp::m_strAddInItemName
  000e7	ff 15 00 00 00
	00		 call	 DWORD PTR __imp_?Compare@?$CStringT@DV?$StrTraitMFC_DLL@DV?$ChTraitsCRT@D@ATL@@@@@ATL@@QBEHPBD@Z
  000ed	85 c0		 test	 eax, eax
; File D:\git\src\IBK\IBK_DRFN\ProjSrc\SrcChartEx\ChartAddIn\ChartDataListViewerAddIn\ChartDataListViewerAddIn\ChartDataListViewerAddIn.cpp

; 119  : 	GET_ADDIN_OBJECT( CChartDataSimulatorAddInImp);		//20081011 이문수 데이터시뮬레이션 >>

  000ef	75 28		 jne	 SHORT $LN13@InitAddInD
; File C:\Program Files (x86)\Microsoft Visual Studio\2019\Community\VC\Tools\MSVC\14.29.30133\atlmfc\include\afx.inl

; 116  : 	{ return ::operator new(nSize); }

  000f1	6a 58		 push	 88			; 00000058H
  000f3	e8 00 00 00 00	 call	 ??2@YAPAXI@Z		; operator new
  000f8	83 c4 04	 add	 esp, 4
; File D:\git\src\IBK\IBK_DRFN\ProjSrc\SrcChartEx\ChartAddIn\ChartDataListViewerAddIn\ChartDataListViewerAddIn\ChartDataListViewerAddIn.cpp

; 119  : 	GET_ADDIN_OBJECT( CChartDataSimulatorAddInImp);		//20081011 이문수 데이터시뮬레이션 >>

  000fb	85 c0		 test	 eax, eax
  000fd	74 0f		 je	 SHORT $LN25@InitAddInD
  000ff	ff 75 10	 push	 DWORD PTR _p_pIAddInDllBase$[ebp]
  00102	8b c8		 mov	 ecx, eax
  00104	57		 push	 edi
  00105	e8 00 00 00 00	 call	 ??0CChartDataSimulatorAddInImp@@QAE@PAUIChartOCX134221@@PAUIAddInDllBase@@@Z ; CChartDataSimulatorAddInImp::CChartDataSimulatorAddInImp
  0010a	8b f0		 mov	 esi, eax
  0010c	eb 02		 jmp	 SHORT $LN26@InitAddInD
$LN25@InitAddInD:
  0010e	33 f6		 xor	 esi, esi
$LN26@InitAddInD:
  00110	8d 46 08	 lea	 eax, DWORD PTR [esi+8]
  00113	f7 de		 neg	 esi
  00115	1b f6		 sbb	 esi, esi
  00117	23 f0		 and	 esi, eax
$LN13@InitAddInD:

; 120  : 
; 121  : 	// 3. Chart Ocx의 Interface를 Release한다.
; 122  : 	pIChartOCX->Release();

  00119	8b 07		 mov	 eax, DWORD PTR [edi]
  0011b	57		 push	 edi
  0011c	ff 50 08	 call	 DWORD PTR [eax+8]

; 123  : 
; 124  : 	if( pIChartAddIn)

  0011f	5b		 pop	 ebx
  00120	85 f6		 test	 esi, esi
  00122	74 19		 je	 SHORT $LN15@InitAddInD

; 125  : 	{
; 126  : 		pIChartAddIn->AddRef();

  00124	8b 06		 mov	 eax, DWORD PTR [esi]
  00126	56		 push	 esi
  00127	ff 50 04	 call	 DWORD PTR [eax+4]

; 127  : 
; 128  : 		// (2004.10.13, 배승원) 생성한 AddIn Object에 기본 Chart Manager들이 제대로 등록되지 않으면,
; 129  : 		//		AddIn 생성을 취소시킨다.
; 130  : 		if( !pIChartAddIn->HasFullManager())

  0012a	8b 06		 mov	 eax, DWORD PTR [esi]
  0012c	8b ce		 mov	 ecx, esi
  0012e	ff 50 10	 call	 DWORD PTR [eax+16]
  00131	85 c0		 test	 eax, eax
  00133	75 08		 jne	 SHORT $LN15@InitAddInD

; 131  : 		{
; 132  : 			pIChartAddIn->Release();

  00135	8b 06		 mov	 eax, DWORD PTR [esi]
  00137	56		 push	 esi
  00138	ff 50 08	 call	 DWORD PTR [eax+8]

; 133  : 			pIChartAddIn = NULL;

  0013b	33 f6		 xor	 esi, esi
$LN15@InitAddInD:

; 134  : 		}
; 135  : 	}
; 136  : 
; 137  : 	// 4. 생성한 AddIn Object의 Interface를 Return한다.
; 138  : 	return pIChartAddIn;

  0013d	8d 4d 08	 lea	 ecx, DWORD PTR _strAddInItem$[ebp]
  00140	ff 15 00 00 00
	00		 call	 DWORD PTR __imp_??1?$CStringT@DV?$StrTraitMFC_DLL@DV?$ChTraitsCRT@D@ATL@@@@@ATL@@QAE@XZ
  00146	5f		 pop	 edi
  00147	8b c6		 mov	 eax, esi

; 139  : }

  00149	5e		 pop	 esi
  0014a	5d		 pop	 ebp
  0014b	c3		 ret	 0
$LN3@InitAddInD:
  0014c	5f		 pop	 edi

; 103  : 	// 0. NULL Pointer를 확인한다.
; 104  : 	// (2006/2/15 - Seung-Won, Bae) Multiple Item in DLL
; 105  : 	if( !p_szAddInItem || !p_pIAddInManager) return NULL;

  0014d	33 c0		 xor	 eax, eax

; 139  : }

  0014f	5e		 pop	 esi
  00150	5d		 pop	 ebp
  00151	c3		 ret	 0
_InitAddInDll ENDP
_TEXT	ENDS
; Function compile flags: /Ogtp
; File D:\git\src\IBK\IBK_DRFN\ProjSrc\SrcChartEx\ChartAddIn\ChartDataListViewerAddIn\ChartDataListViewerAddIn\ChartDataListViewerAddIn.cpp
;	COMDAT _GetAddInIVersion
_TEXT	SEGMENT
_GetAddInIVersion PROC					; COMDAT

; 91   : 	return g_nChartAddInVersion;

  00000	a1 00 00 00 00	 mov	 eax, DWORD PTR ?g_nChartAddInVersion@@3HA ; g_nChartAddInVersion

; 92   : }

  00005	c3		 ret	 0
_GetAddInIVersion ENDP
_TEXT	ENDS
; Function compile flags: /Ogtp
;	COMDAT ??__FtheApp@@YAXXZ
text$yd	SEGMENT
??__FtheApp@@YAXXZ PROC					; `dynamic atexit destructor for 'theApp'', COMDAT
  00000	b9 00 00 00 00	 mov	 ecx, OFFSET ?theApp@@3VCChartDataListViewerAddInApp@@A ; theApp
  00005	e9 00 00 00 00	 jmp	 ??1CWinApp@@UAE@XZ	; CWinApp::~CWinApp
??__FtheApp@@YAXXZ ENDP					; `dynamic atexit destructor for 'theApp''
text$yd	ENDS
; Function compile flags: /Ogtp
; File D:\git\src\IBK\IBK_DRFN\ProjSrc\SrcChartEx\ChartAddIn\ChartDataListViewerAddIn\ChartDataListViewerAddIn\ChartDataListViewerAddIn.cpp
;	COMDAT ??__EtheApp@@YAXXZ
text$di	SEGMENT
??__EtheApp@@YAXXZ PROC					; `dynamic initializer for 'theApp'', COMDAT

; 59   : {

  00000	6a 00		 push	 0
  00002	b9 00 00 00 00	 mov	 ecx, OFFSET ?theApp@@3VCChartDataListViewerAddInApp@@A ; theApp
  00007	e8 00 00 00 00	 call	 ??0CWinApp@@QAE@PBD@Z	; CWinApp::CWinApp

; 67   : CChartDataListViewerAddInApp theApp;

  0000c	68 00 00 00 00	 push	 OFFSET ??__FtheApp@@YAXXZ ; `dynamic atexit destructor for 'theApp''

; 59   : {

  00011	c7 05 00 00 00
	00 00 00 00 00	 mov	 DWORD PTR ?theApp@@3VCChartDataListViewerAddInApp@@A, OFFSET ??_7CChartDataListViewerAddInApp@@6B@

; 67   : CChartDataListViewerAddInApp theApp;

  0001b	e8 00 00 00 00	 call	 _atexit
  00020	59		 pop	 ecx
  00021	c3		 ret	 0
??__EtheApp@@YAXXZ ENDP					; `dynamic initializer for 'theApp''
text$di	ENDS
; Function compile flags: /Ogtp
; File C:\Program Files (x86)\Microsoft Visual Studio\2019\Community\VC\Tools\MSVC\14.29.30133\atlmfc\include\afx.inl
;	COMDAT ??_GCChartDataListViewerAddInApp@@UAEPAXI@Z
_TEXT	SEGMENT
___flags$ = 8						; size = 4
??_GCChartDataListViewerAddInApp@@UAEPAXI@Z PROC	; CChartDataListViewerAddInApp::`scalar deleting destructor', COMDAT
; _this$ = ecx
  00000	55		 push	 ebp
  00001	8b ec		 mov	 ebp, esp
  00003	56		 push	 esi
  00004	8b f1		 mov	 esi, ecx
  00006	e8 00 00 00 00	 call	 ??1CWinApp@@UAE@XZ	; CWinApp::~CWinApp
  0000b	8b 45 08	 mov	 eax, DWORD PTR ___flags$[ebp]
  0000e	a8 01		 test	 al, 1
  00010	74 22		 je	 SHORT $LN12@scalar
  00012	a8 04		 test	 al, 4
  00014	75 10		 jne	 SHORT $LN3@scalar

; 112  : 	{ ::operator delete(p); }

  00016	56		 push	 esi
  00017	e8 00 00 00 00	 call	 ??3@YAXPAX@Z		; operator delete
  0001c	83 c4 04	 add	 esp, 4
  0001f	8b c6		 mov	 eax, esi
  00021	5e		 pop	 esi
  00022	5d		 pop	 ebp
  00023	c2 04 00	 ret	 4
$LN3@scalar:
  00026	68 cc 00 00 00	 push	 204			; 000000ccH
  0002b	56		 push	 esi
  0002c	e8 00 00 00 00	 call	 ?__global_delete@@YAXPAXI@Z ; __global_delete
  00031	83 c4 08	 add	 esp, 8
$LN12@scalar:
  00034	8b c6		 mov	 eax, esi
  00036	5e		 pop	 esi
  00037	5d		 pop	 ebp
  00038	c2 04 00	 ret	 4
??_GCChartDataListViewerAddInApp@@UAEPAXI@Z ENDP	; CChartDataListViewerAddInApp::`scalar deleting destructor'
_TEXT	ENDS
; Function compile flags: /Ogtp
; File D:\git\src\IBK\IBK_DRFN\ProjSrc\SrcChartEx\ChartAddIn\ChartDataListViewerAddIn\ChartDataListViewerAddIn\ChartDataListViewerAddIn.cpp
;	COMDAT ?GetMessageMap@CChartDataListViewerAddInApp@@MBEPBUAFX_MSGMAP@@XZ
_TEXT	SEGMENT
?GetMessageMap@CChartDataListViewerAddInApp@@MBEPBUAFX_MSGMAP@@XZ PROC ; CChartDataListViewerAddInApp::GetMessageMap, COMDAT
; _this$ = ecx

; 48   : BEGIN_MESSAGE_MAP(CChartDataListViewerAddInApp, CWinApp)

  00000	b8 00 00 00 00	 mov	 eax, OFFSET ?messageMap@?1??GetThisMessageMap@CChartDataListViewerAddInApp@@KGPBUAFX_MSGMAP@@XZ@4U3@B
  00005	c3		 ret	 0
?GetMessageMap@CChartDataListViewerAddInApp@@MBEPBUAFX_MSGMAP@@XZ ENDP ; CChartDataListViewerAddInApp::GetMessageMap
_TEXT	ENDS
; Function compile flags: /Ogtp
; File D:\git\src\IBK\IBK_DRFN\ProjSrc\SrcChartEx\ChartAddIn\ChartDataListViewerAddIn\ChartDataListViewerAddIn\ChartDataListViewerAddIn.cpp
;	COMDAT ?GetThisMessageMap@CChartDataListViewerAddInApp@@KGPBUAFX_MSGMAP@@XZ
_TEXT	SEGMENT
?GetThisMessageMap@CChartDataListViewerAddInApp@@KGPBUAFX_MSGMAP@@XZ PROC ; CChartDataListViewerAddInApp::GetThisMessageMap, COMDAT

; 49   : 	//{{AFX_MSG_MAP(CChartDataListViewerAddInApp)
; 50   : 		// NOTE - the ClassWizard will add and remove mapping macros here.
; 51   : 		//    DO NOT EDIT what you see in these blocks of generated code!
; 52   : 	//}}AFX_MSG_MAP
; 53   : END_MESSAGE_MAP()

  00000	b8 00 00 00 00	 mov	 eax, OFFSET ?messageMap@?1??GetThisMessageMap@CChartDataListViewerAddInApp@@KGPBUAFX_MSGMAP@@XZ@4U3@B
  00005	c3		 ret	 0
?GetThisMessageMap@CChartDataListViewerAddInApp@@KGPBUAFX_MSGMAP@@XZ ENDP ; CChartDataListViewerAddInApp::GetThisMessageMap
_TEXT	ENDS
; Function compile flags: /Ogtp
; File D:\git\src\IBK\IBK_DRFN\ProjSrc\SrcChartEx\ChartAddIn\ChartDataListViewerAddIn\ChartDataListViewerAddIn\ChartDataListViewerAddIn.cpp
;	COMDAT ??0CChartDataListViewerAddInApp@@QAE@XZ
_TEXT	SEGMENT
_this$ = -4						; size = 4
??0CChartDataListViewerAddInApp@@QAE@XZ PROC		; CChartDataListViewerAddInApp::CChartDataListViewerAddInApp, COMDAT
; _this$ = ecx

; 59   : {

  00000	55		 push	 ebp
  00001	8b ec		 mov	 ebp, esp
  00003	51		 push	 ecx
  00004	56		 push	 esi
  00005	8b f1		 mov	 esi, ecx
  00007	6a 00		 push	 0
  00009	89 75 fc	 mov	 DWORD PTR _this$[ebp], esi
  0000c	e8 00 00 00 00	 call	 ??0CWinApp@@QAE@PBD@Z	; CWinApp::CWinApp
  00011	c7 06 00 00 00
	00		 mov	 DWORD PTR [esi], OFFSET ??_7CChartDataListViewerAddInApp@@6B@

; 60   : 	// TODO: add construction code here,
; 61   : 	// Place all significant initialization in InitInstance
; 62   : }

  00017	8b c6		 mov	 eax, esi
  00019	5e		 pop	 esi
  0001a	8b e5		 mov	 esp, ebp
  0001c	5d		 pop	 ebp
  0001d	c3		 ret	 0
??0CChartDataListViewerAddInApp@@QAE@XZ ENDP		; CChartDataListViewerAddInApp::CChartDataListViewerAddInApp
_TEXT	ENDS
; Function compile flags: /Ogtp
; File C:\Program Files (x86)\Microsoft Visual Studio\2019\Community\VC\Tools\MSVC\14.29.30133\atlmfc\include\afxwin.h
;	COMDAT ?GetApplicationRecoveryPingInterval@CWinApp@@UAEKXZ
_TEXT	SEGMENT
?GetApplicationRecoveryPingInterval@CWinApp@@UAEKXZ PROC ; CWinApp::GetApplicationRecoveryPingInterval, COMDAT
; _this$ = ecx

; 5370 : 	virtual DWORD GetApplicationRecoveryPingInterval() { return RECOVERY_DEFAULT_PING_INTERVAL; }  // Ping interval for RegisterApplicationRecoveryCallback

  00000	b8 88 13 00 00	 mov	 eax, 5000		; 00001388H
  00005	c3		 ret	 0
?GetApplicationRecoveryPingInterval@CWinApp@@UAEKXZ ENDP ; CWinApp::GetApplicationRecoveryPingInterval
_TEXT	ENDS
; Function compile flags: /Ogtp
; File C:\Program Files (x86)\Microsoft Visual Studio\2019\Community\VC\Tools\MSVC\14.29.30133\atlmfc\include\afxwin.h
;	COMDAT ?GetApplicationRecoveryParameter@CWinApp@@UAEPAXXZ
_TEXT	SEGMENT
?GetApplicationRecoveryParameter@CWinApp@@UAEPAXXZ PROC	; CWinApp::GetApplicationRecoveryParameter, COMDAT
; _this$ = ecx

; 5369 : 	virtual LPVOID GetApplicationRecoveryParameter() { return NULL; }  // Parameter to be passed along to RegisterApplicationRecoveryCallback

  00000	33 c0		 xor	 eax, eax
  00002	c3		 ret	 0
?GetApplicationRecoveryParameter@CWinApp@@UAEPAXXZ ENDP	; CWinApp::GetApplicationRecoveryParameter
_TEXT	ENDS
; Function compile flags: /Ogtp
; File C:\Program Files (x86)\Microsoft Visual Studio\2019\Community\VC\Tools\MSVC\14.29.30133\atlmfc\include\afxwin.h
;	COMDAT ?GetApplicationRestartFlags@CWinApp@@UAEKXZ
_TEXT	SEGMENT
?GetApplicationRestartFlags@CWinApp@@UAEKXZ PROC	; CWinApp::GetApplicationRestartFlags, COMDAT
; _this$ = ecx

; 5368 : 	virtual DWORD GetApplicationRestartFlags() { return 0; }  // Flags for RegisterApplicationRestart: default is none of RESTART_NO_CRASH/RESTART_NO_HANG/RESTART_NO_PATCH/RESTART_NO_REBOOT

  00000	33 c0		 xor	 eax, eax
  00002	c3		 ret	 0
?GetApplicationRestartFlags@CWinApp@@UAEKXZ ENDP	; CWinApp::GetApplicationRestartFlags
_TEXT	ENDS
; Function compile flags: /Ogtp
; File C:\Program Files (x86)\Microsoft Visual Studio\2019\Community\VC\Tools\MSVC\14.29.30133\atlmfc\include\afxwin.h
;	COMDAT ?RestoreAutosavedFilesAtRestart@CWinApp@@UBEHXZ
_TEXT	SEGMENT
?RestoreAutosavedFilesAtRestart@CWinApp@@UBEHXZ PROC	; CWinApp::RestoreAutosavedFilesAtRestart, COMDAT
; _this$ = ecx

; 5366 : 	virtual BOOL RestoreAutosavedFilesAtRestart() const { return m_dwRestartManagerSupportFlags & AFX_RESTART_MANAGER_RESTORE_AUTOSAVED_FILES; }

  00000	8b 81 ac 00 00
	00		 mov	 eax, DWORD PTR [ecx+172]
  00006	83 e0 20	 and	 eax, 32			; 00000020H
  00009	c3		 ret	 0
?RestoreAutosavedFilesAtRestart@CWinApp@@UBEHXZ ENDP	; CWinApp::RestoreAutosavedFilesAtRestart
_TEXT	ENDS
; Function compile flags: /Ogtp
; File C:\Program Files (x86)\Microsoft Visual Studio\2019\Community\VC\Tools\MSVC\14.29.30133\atlmfc\include\afxwin.h
;	COMDAT ?ReopenPreviousFilesAtRestart@CWinApp@@UBEHXZ
_TEXT	SEGMENT
?ReopenPreviousFilesAtRestart@CWinApp@@UBEHXZ PROC	; CWinApp::ReopenPreviousFilesAtRestart, COMDAT
; _this$ = ecx

; 5365 : 	virtual BOOL ReopenPreviousFilesAtRestart() const { return m_dwRestartManagerSupportFlags & AFX_RESTART_MANAGER_REOPEN_PREVIOUS_FILES; }

  00000	8b 81 ac 00 00
	00		 mov	 eax, DWORD PTR [ecx+172]
  00006	83 e0 10	 and	 eax, 16			; 00000010H
  00009	c3		 ret	 0
?ReopenPreviousFilesAtRestart@CWinApp@@UBEHXZ ENDP	; CWinApp::ReopenPreviousFilesAtRestart
_TEXT	ENDS
; Function compile flags: /Ogtp
; File C:\Program Files (x86)\Microsoft Visual Studio\2019\Community\VC\Tools\MSVC\14.29.30133\atlmfc\include\afxwin.h
;	COMDAT ?SupportsAutosaveAtInterval@CWinApp@@UBEHXZ
_TEXT	SEGMENT
?SupportsAutosaveAtInterval@CWinApp@@UBEHXZ PROC	; CWinApp::SupportsAutosaveAtInterval, COMDAT
; _this$ = ecx

; 5364 : 	virtual BOOL SupportsAutosaveAtInterval() const { return m_dwRestartManagerSupportFlags & AFX_RESTART_MANAGER_AUTOSAVE_AT_INTERVAL; }

  00000	8b 81 ac 00 00
	00		 mov	 eax, DWORD PTR [ecx+172]
  00006	83 e0 08	 and	 eax, 8
  00009	c3		 ret	 0
?SupportsAutosaveAtInterval@CWinApp@@UBEHXZ ENDP	; CWinApp::SupportsAutosaveAtInterval
_TEXT	ENDS
; Function compile flags: /Ogtp
; File C:\Program Files (x86)\Microsoft Visual Studio\2019\Community\VC\Tools\MSVC\14.29.30133\atlmfc\include\afxwin.h
;	COMDAT ?SupportsAutosaveAtRestart@CWinApp@@UBEHXZ
_TEXT	SEGMENT
?SupportsAutosaveAtRestart@CWinApp@@UBEHXZ PROC		; CWinApp::SupportsAutosaveAtRestart, COMDAT
; _this$ = ecx

; 5363 : 	virtual BOOL SupportsAutosaveAtRestart() const { return m_dwRestartManagerSupportFlags & AFX_RESTART_MANAGER_AUTOSAVE_AT_RESTART; }

  00000	8b 81 ac 00 00
	00		 mov	 eax, DWORD PTR [ecx+172]
  00006	83 e0 04	 and	 eax, 4
  00009	c3		 ret	 0
?SupportsAutosaveAtRestart@CWinApp@@UBEHXZ ENDP		; CWinApp::SupportsAutosaveAtRestart
_TEXT	ENDS
; Function compile flags: /Ogtp
; File C:\Program Files (x86)\Microsoft Visual Studio\2019\Community\VC\Tools\MSVC\14.29.30133\atlmfc\include\afxwin.h
;	COMDAT ?SupportsApplicationRecovery@CWinApp@@UBEHXZ
_TEXT	SEGMENT
?SupportsApplicationRecovery@CWinApp@@UBEHXZ PROC	; CWinApp::SupportsApplicationRecovery, COMDAT
; _this$ = ecx

; 5362 : 	virtual BOOL SupportsApplicationRecovery() const { return m_dwRestartManagerSupportFlags & AFX_RESTART_MANAGER_SUPPORT_RECOVERY; }

  00000	8b 81 ac 00 00
	00		 mov	 eax, DWORD PTR [ecx+172]
  00006	83 e0 02	 and	 eax, 2
  00009	c3		 ret	 0
?SupportsApplicationRecovery@CWinApp@@UBEHXZ ENDP	; CWinApp::SupportsApplicationRecovery
_TEXT	ENDS
; Function compile flags: /Ogtp
; File C:\Program Files (x86)\Microsoft Visual Studio\2019\Community\VC\Tools\MSVC\14.29.30133\atlmfc\include\afxwin.h
;	COMDAT ?SupportsRestartManager@CWinApp@@UBEHXZ
_TEXT	SEGMENT
?SupportsRestartManager@CWinApp@@UBEHXZ PROC		; CWinApp::SupportsRestartManager, COMDAT
; _this$ = ecx

; 5361 : 	virtual BOOL SupportsRestartManager() const { return m_dwRestartManagerSupportFlags & AFX_RESTART_MANAGER_SUPPORT_RESTART; }

  00000	8b 81 ac 00 00
	00		 mov	 eax, DWORD PTR [ecx+172]
  00006	83 e0 01	 and	 eax, 1
  00009	c3		 ret	 0
?SupportsRestartManager@CWinApp@@UBEHXZ ENDP		; CWinApp::SupportsRestartManager
_TEXT	ENDS
; Function compile flags: /Ogtp
; File C:\Program Files (x86)\Microsoft Visual Studio\2019\Community\VC\Tools\MSVC\14.29.30133\atlmfc\include\afx.inl
;	COMDAT ?Dump@CObject@@UBEXAAVCDumpContext@@@Z
_TEXT	SEGMENT
___formal$ = 8						; size = 4
?Dump@CObject@@UBEXAAVCDumpContext@@@Z PROC		; CObject::Dump, COMDAT
; _this$ = ecx

; 122  : 	{ /* no dumping in release builds */ }

  00000	c2 04 00	 ret	 4
?Dump@CObject@@UBEXAAVCDumpContext@@@Z ENDP		; CObject::Dump
_TEXT	ENDS
; Function compile flags: /Ogtp
; File C:\Program Files (x86)\Microsoft Visual Studio\2019\Community\VC\Tools\MSVC\14.29.30133\atlmfc\include\afx.inl
;	COMDAT ?AssertValid@CObject@@UBEXXZ
_TEXT	SEGMENT
?AssertValid@CObject@@UBEXXZ PROC			; CObject::AssertValid, COMDAT
; _this$ = ecx

; 120  : 	{ /* no asserts in release builds */ }

  00000	c2 00 00	 ret	 0
?AssertValid@CObject@@UBEXXZ ENDP			; CObject::AssertValid
_TEXT	ENDS
; Function compile flags: /Ogtp
; File C:\Program Files (x86)\Microsoft Visual Studio\2019\Community\VC\Tools\MSVC\14.29.30133\atlmfc\include\afx.inl
;	COMDAT ?Serialize@CObject@@UAEXAAVCArchive@@@Z
_TEXT	SEGMENT
___formal$ = 8						; size = 4
?Serialize@CObject@@UAEXAAVCArchive@@@Z PROC		; CObject::Serialize, COMDAT
; _this$ = ecx

; 106  : 	{ /* CObject does not serialize anything by default */ }

  00000	c2 04 00	 ret	 4
?Serialize@CObject@@UAEXAAVCArchive@@@Z ENDP		; CObject::Serialize
_TEXT	ENDS
; Function compile flags: /Ogtp
; File D:\git\src\IBK\IBK_DRFN\ProjSrc\SrcChartEx\ChartAddIn\ChartDataListViewerAddIn\ChartDataListViewerAddIn\ChartDataListViewerAddIn.cpp
;	COMDAT ?__empty_global_delete@@YAXPAXI@Z
_TEXT	SEGMENT
___formal$ = 8						; size = 4
___formal$ = 12						; size = 4
?__empty_global_delete@@YAXPAXI@Z PROC			; __empty_global_delete, COMDAT

  00000	c2 00 00	 ret	 0
?__empty_global_delete@@YAXPAXI@Z ENDP			; __empty_global_delete
_TEXT	ENDS
; Function compile flags: /Ogtp
; File D:\git\src\IBK\IBK_DRFN\ProjSrc\SrcChartEx\ChartAddIn\ChartDataListViewerAddIn\ChartDataListViewerAddIn\ChartDataListViewerAddIn.cpp
;	COMDAT ?__empty_global_delete@@YAXPAX@Z
_TEXT	SEGMENT
___formal$ = 8						; size = 4
?__empty_global_delete@@YAXPAX@Z PROC			; __empty_global_delete, COMDAT

  00000	c2 00 00	 ret	 0
?__empty_global_delete@@YAXPAX@Z ENDP			; __empty_global_delete
_TEXT	ENDS
END
