; Listing generated by Microsoft (R) Optimizing Compiler Version 19.29.30145.0 

	TITLE	D:\git\src\IBK\IBK_DRFN\#DRfn-CS\_Obj\ChartDataListViewerAddIn\ChartDataListViewerAddInImp.obj
	.686P
	.XMM
	include listing.inc
	.model	flat

INCLUDELIB MSVCRT
INCLUDELIB OLDNAMES

PUBLIC	?m_eRegisteredEventMap@CChartDataListViewerAddInImp@@1QBW4EAddInEventType@IChartAddIn134221@@B ; CChartDataListViewerAddInImp::m_eRegisteredEventMap
PUBLIC	??_C@_0M@FNOLENK@DATA_VIEWER@			; `string'
;	COMDAT ??_C@_0M@FNOLENK@DATA_VIEWER@
CONST	SEGMENT
??_C@_0M@FNOLENK@DATA_VIEWER@ DB 'DATA_VIEWER', 00H	; `string'
CONST	ENDS
CONST	SEGMENT
?m_eRegisteredEventMap@CChartDataListViewerAddInImp@@1QBW4EAddInEventType@IChartAddIn134221@@B DD 036H ; CChartDataListViewerAddInImp::m_eRegisteredEventMap
	DD	029H
	DD	02cH
	DD	02fH
	DD	037H
	DD	032H
	DD	013H
	DD	05H
	DD	03bH
	ORG $+204
CONST	ENDS
PUBLIC	?__empty_global_delete@@YAXPAX@Z		; __empty_global_delete
PUBLIC	?__empty_global_delete@@YAXPAXI@Z		; __empty_global_delete
PUBLIC	??3CObject@@SGXPAX@Z				; CObject::operator delete
PUBLIC	?Serialize@CObject@@UAEXAAVCArchive@@@Z		; CObject::Serialize
PUBLIC	?AssertValid@CObject@@UBEXXZ			; CObject::AssertValid
PUBLIC	?Dump@CObject@@UBEXAAVCDumpContext@@@Z		; CObject::Dump
PUBLIC	?_AfxInitManaged@@YAHXZ				; _AfxInitManaged
PUBLIC	?PostConstruct@CIWUnknown@@MAEXXZ		; CIWUnknown::PostConstruct
PUBLIC	?PreDestructX@CIWUnknown@@MAEXXZ		; CIWUnknown::PreDestructX
PUBLIC	?PreDestruct@CIWUnknown@@MAEXXZ			; CIWUnknown::PreDestruct
PUBLIC	?AddRef@CChartAddInBase134221@@MAGKXZ		; CChartAddInBase134221::AddRef
PUBLIC	?Release@CChartAddInBase134221@@MAGKXZ		; CChartAddInBase134221::Release
PUBLIC	?QueryInterface@CChartAddInBase134221@@MAGJABU_GUID@@PAPAX@Z ; CChartAddInBase134221::QueryInterface
PUBLIC	?GetAddInCustomInterface@CChartAddInBase134221@@MAEPAUIUnknown@@XZ ; CChartAddInBase134221::GetAddInCustomInterface
PUBLIC	?InvokeAddIn@CChartAddInBase134221@@MAEHHJ@Z	; CChartAddInBase134221::InvokeAddIn
PUBLIC	?InvokeAddInStr@CChartAddInBase134221@@MAEHPBD0@Z ; CChartAddInBase134221::InvokeAddInStr
PUBLIC	?OnOcxDestroyWindow@CChartAddInBase134221@@MAEXXZ ; CChartAddInBase134221::OnOcxDestroyWindow
PUBLIC	?OnGSharedDataChange@CChartAddInBase134221@@MAEXPBD0H@Z ; CChartAddInBase134221::OnGSharedDataChange
PUBLIC	?OnLSharedDataChange@CChartAddInBase134221@@MAEXPBD0@Z ; CChartAddInBase134221::OnLSharedDataChange
PUBLIC	?OnResetChart@CChartAddInBase134221@@MAEXXZ	; CChartAddInBase134221::OnResetChart
PUBLIC	?OnDrawBeforeGraph@CChartAddInBase134221@@MAEXPAUHDC__@@@Z ; CChartAddInBase134221::OnDrawBeforeGraph
PUBLIC	?OnDrawAfterGraph@CChartAddInBase134221@@MAEXPAUHDC__@@@Z ; CChartAddInBase134221::OnDrawAfterGraph
PUBLIC	?OnTimer@CChartAddInBase134221@@MAEXI@Z		; CChartAddInBase134221::OnTimer
PUBLIC	?OnCaptureChanged@CChartAddInBase134221@@MAEXPAUHWND__@@QAUHBITMAP__@@@Z ; CChartAddInBase134221::OnCaptureChanged
PUBLIC	?OnResetMainBlock@CChartAddInBase134221@@MAEXXZ	; CChartAddInBase134221::OnResetMainBlock
PUBLIC	?OnUserIndiatorConditionLoaded@CChartAddInBase134221@@MAEXXZ ; CChartAddInBase134221::OnUserIndiatorConditionLoaded
PUBLIC	?OnChartItemChanged@CChartAddInBase134221@@MAEXXZ ; CChartAddInBase134221::OnChartItemChanged
PUBLIC	?OnGraphDataChanged@CChartAddInBase134221@@MAEXXZ ; CChartAddInBase134221::OnGraphDataChanged
PUBLIC	?OnBlockRemoved@CChartAddInBase134221@@MAEXHH@Z	; CChartAddInBase134221::OnBlockRemoved
PUBLIC	?OnManualRealData@CChartAddInBase134221@@MAEXPBDNH@Z ; CChartAddInBase134221::OnManualRealData
PUBLIC	?OnContextMenu@CChartAddInBase134221@@MAEXPAUHWND__@@AAUtagPOINT@@@Z ; CChartAddInBase134221::OnContextMenu
PUBLIC	?OnPacketTruncated@CChartAddInBase134221@@MAEXH@Z ; CChartAddInBase134221::OnPacketTruncated
PUBLIC	?OnBlockChanged@CChartAddInBase134221@@MAEXW4BLOCKBEHAVIOR@CBlockBaseData@@HHHH@Z ; CChartAddInBase134221::OnBlockChanged
PUBLIC	?OnRealData@CChartAddInBase134221@@MAEXPBDN0@Z	; CChartAddInBase134221::OnRealData
PUBLIC	?OnIndexedRealData@CChartAddInBase134221@@MAEXPBDHN@Z ; CChartAddInBase134221::OnIndexedRealData
PUBLIC	?OnLoadEnvironment@CChartAddInBase134221@@MAEXPAUIPropertyMap@@@Z ; CChartAddInBase134221::OnLoadEnvironment
PUBLIC	?OnSaveEnvironment@CChartAddInBase134221@@MAEXPAUIPropertyMap@@@Z ; CChartAddInBase134221::OnSaveEnvironment
PUBLIC	?DrawCursor@CChartAddInBase134221@@MAE?AUtagRECT@@PAUHDC__@@@Z ; CChartAddInBase134221::DrawCursor
PUBLIC	?OnPreRealData@CChartAddInBase134221@@MAEHPBDAAN0@Z ; CChartAddInBase134221::OnPreRealData
PUBLIC	?OnPreIndexedRealData@CChartAddInBase134221@@MAEHPBDHAAN@Z ; CChartAddInBase134221::OnPreIndexedRealData
PUBLIC	?OnPreRealPacketEnd@CChartAddInBase134221@@MAEHPBD@Z ; CChartAddInBase134221::OnPreRealPacketEnd
PUBLIC	?OnAddInMsg@CChartAddInBase134221@@MAEHPBDJ@Z	; CChartAddInBase134221::OnAddInMsg
PUBLIC	?OnAddInToolCommand@CChartAddInBase134221@@MAEHW4EAICommandType@@@Z ; CChartAddInBase134221::OnAddInToolCommand
PUBLIC	?OnAddInToolCommand@CChartAddInBase134221@@MAEHW4EAICommandType@@PAUHDC__@@IAAUtagPOINT@@K@Z ; CChartAddInBase134221::OnAddInToolCommand
PUBLIC	?OnAddInToolCommand@CChartAddInBase134221@@MAEHW4EAICommandType@@PBD@Z ; CChartAddInBase134221::OnAddInToolCommand
PUBLIC	?OnAddInToolCommand@CChartAddInBase134221@@MAEHW4EAICommandType@@PBD1@Z ; CChartAddInBase134221::OnAddInToolCommand
PUBLIC	?OnAddInToolCommand@CChartAddInBase134221@@MAEHW4EAICommandType@@PBUIAddInDllBase@@@Z ; CChartAddInBase134221::OnAddInToolCommand
PUBLIC	?OnAddInToolCommand@CChartAddInBase134221@@MAEHW4EAICommandType@@J@Z ; CChartAddInBase134221::OnAddInToolCommand
PUBLIC	?OnAddInToolCommand@CChartAddInBase134221@@MAEHW4EAICommandType@@JPBD@Z ; CChartAddInBase134221::OnAddInToolCommand
PUBLIC	?OnAddInToolCommand@CChartAddInBase134221@@MAEHW4EAICommandType@@JPBD11@Z ; CChartAddInBase134221::OnAddInToolCommand
PUBLIC	?OnAddInToolCommand@CChartAddInBase134221@@MAEHW4EAICommandType@@JJ@Z ; CChartAddInBase134221::OnAddInToolCommand
PUBLIC	?OnAddInToolCommand@CChartAddInBase134221@@MAEHW4EAICommandType@@JJJJJJJJJ@Z ; CChartAddInBase134221::OnAddInToolCommand
PUBLIC	?OnAddInToolCommand@CChartAddInBase134221@@MAEHAAJW4EAICommandType@@@Z ; CChartAddInBase134221::OnAddInToolCommand
PUBLIC	?OnAddInToolCommand@CChartAddInBase134221@@MAEHAAJW4EAICommandType@@PAUIGraphInfo134221@@@Z ; CChartAddInBase134221::OnAddInToolCommand
PUBLIC	?OnAddInToolCommand@CChartAddInBase134221@@MAEHAAJW4EAICommandType@@PBD@Z ; CChartAddInBase134221::OnAddInToolCommand
PUBLIC	?OnAddInToolCommand@CChartAddInBase134221@@MAEHAAJW4EAICommandType@@PBDPAVCObject@@@Z ; CChartAddInBase134221::OnAddInToolCommand
PUBLIC	?OnAddInToolCommand@CChartAddInBase134221@@MAEHAAJW4EAICommandType@@J@Z ; CChartAddInBase134221::OnAddInToolCommand
PUBLIC	?OnAddInToolCommand@CChartAddInBase134221@@MAEHAAJW4EAICommandType@@JJ@Z ; CChartAddInBase134221::OnAddInToolCommand
PUBLIC	?OnKeyDown@CChartAddInBase134221@@MAEHIII@Z	; CChartAddInBase134221::OnKeyDown
PUBLIC	?OnKeyUp@CChartAddInBase134221@@MAEHIII@Z	; CChartAddInBase134221::OnKeyUp
PUBLIC	?OnMouseWheel@CChartAddInBase134221@@MAEHIFUtagPOINT@@K@Z ; CChartAddInBase134221::OnMouseWheel
PUBLIC	?OnMouseMove@CChartAddInBase134221@@MAEHPAUHDC__@@IAAUtagPOINT@@KQAUHBITMAP__@@@Z ; CChartAddInBase134221::OnMouseMove
PUBLIC	?OnLButtonDown@CChartAddInBase134221@@MAEHPAUHDC__@@IAAUtagPOINT@@K@Z ; CChartAddInBase134221::OnLButtonDown
PUBLIC	?OnLButtonUp@CChartAddInBase134221@@MAEHPAUHDC__@@IAAUtagPOINT@@K@Z ; CChartAddInBase134221::OnLButtonUp
PUBLIC	?OnLButtonDblClk@CChartAddInBase134221@@MAEHPAUHDC__@@IAAUtagPOINT@@K@Z ; CChartAddInBase134221::OnLButtonDblClk
PUBLIC	?OnRButtonDown@CChartAddInBase134221@@MAEHPAUHDC__@@IAAUtagPOINT@@K@Z ; CChartAddInBase134221::OnRButtonDown
PUBLIC	?OnRButtonUp@CChartAddInBase134221@@MAEHPAUHDC__@@IAAUtagPOINT@@K@Z ; CChartAddInBase134221::OnRButtonUp
PUBLIC	?OnRButtonDblClk@CChartAddInBase134221@@MAEHPAUHDC__@@IAAUtagPOINT@@K@Z ; CChartAddInBase134221::OnRButtonDblClk
PUBLIC	??0CChartDataListViewerAddInImp@@QAE@PAUIChartOCX134221@@PAUIAddInDllBase@@@Z ; CChartDataListViewerAddInImp::CChartDataListViewerAddInImp
PUBLIC	??1CChartDataListViewerAddInImp@@UAE@XZ		; CChartDataListViewerAddInImp::~CChartDataListViewerAddInImp
PUBLIC	?GetRegisteredEventMap@CChartDataListViewerAddInImp@@MBEPBW4EAddInEventType@IChartAddIn134221@@XZ ; CChartDataListViewerAddInImp::GetRegisteredEventMap
PUBLIC	?GetPacketNameList@CChartDataListViewerAddInImp@@QAE?AV?$CStringT@DV?$StrTraitMFC_DLL@DV?$ChTraitsCRT@D@ATL@@@@@ATL@@XZ ; CChartDataListViewerAddInImp::GetPacketNameList
PUBLIC	?GetIChartManager@CChartDataListViewerAddInImp@@QAEPAUIChartManager134221@@XZ ; CChartDataListViewerAddInImp::GetIChartManager
PUBLIC	?GetIChartOCX134221@CChartDataListViewerAddInImp@@QAEPAUIChartOCX134221@@XZ ; CChartDataListViewerAddInImp::GetIChartOCX134221
PUBLIC	?GetIPacketManager@CChartDataListViewerAddInImp@@QAEPAUIPacketManager134221@@XZ ; CChartDataListViewerAddInImp::GetIPacketManager
PUBLIC	?OnRecalculationComplete@CChartDataListViewerAddInImp@@MAEXXZ ; CChartDataListViewerAddInImp::OnRecalculationComplete
PUBLIC	?OnGraphAdded@CChartDataListViewerAddInImp@@MAEXPBD0@Z ; CChartDataListViewerAddInImp::OnGraphAdded
PUBLIC	?OnGraphDeleted@CChartDataListViewerAddInImp@@MAEXPBD0@Z ; CChartDataListViewerAddInImp::OnGraphDeleted
PUBLIC	?OnToolCommand@CChartDataListViewerAddInImp@@MAEXHH@Z ; CChartDataListViewerAddInImp::OnToolCommand
PUBLIC	?OnPacketDataMultiItem@CChartDataListViewerAddInImp@@MAEXPBD0H@Z ; CChartDataListViewerAddInImp::OnPacketDataMultiItem
PUBLIC	?OnRealPacketEnd@CChartDataListViewerAddInImp@@MAEXPBD@Z ; CChartDataListViewerAddInImp::OnRealPacketEnd
PUBLIC	?OnCmdMsg@CChartDataListViewerAddInImp@@MAEHIHPAUICmdUI134221@@@Z ; CChartDataListViewerAddInImp::OnCmdMsg
PUBLIC	?OnAddInToolCommand@CChartDataListViewerAddInImp@@MAEHW4EAICommandType@@PBDJ@Z ; CChartDataListViewerAddInImp::OnAddInToolCommand
PUBLIC	??_GCChartDataListViewerAddInImp@@UAEPAXI@Z	; CChartDataListViewerAddInImp::`scalar deleting destructor'
PUBLIC	?QueryInterface@CChartAddInBase134221@@O7AGJABU_GUID@@PAPAX@Z ; [thunk]:CChartAddInBase134221::QueryInterface`adjustor{8}'
PUBLIC	?AddRef@CChartAddInBase134221@@O7AGKXZ		; [thunk]:CChartAddInBase134221::AddRef`adjustor{8}'
PUBLIC	?Release@CChartAddInBase134221@@O7AGKXZ		; [thunk]:CChartAddInBase134221::Release`adjustor{8}'
PUBLIC	??_ECChartDataListViewerAddInImp@@W7AEPAXI@Z	; [thunk]:CChartDataListViewerAddInImp::`vector deleting destructor'
PUBLIC	??_C@_00CNPNBAHC@@				; `string'
PUBLIC	??_R0?AVCObject@@@8				; CObject `RTTI Type Descriptor'
PUBLIC	??_R3CObject@@8					; CObject::`RTTI Class Hierarchy Descriptor'
PUBLIC	??_R2CObject@@8					; CObject::`RTTI Base Class Array'
PUBLIC	??_R1A@?0A@EA@CObject@@8			; CObject::`RTTI Base Class Descriptor at (0,-1,0,64)'
PUBLIC	??_R0?AUIUnknown@@@8				; IUnknown `RTTI Type Descriptor'
PUBLIC	??_R3IUnknown@@8				; IUnknown::`RTTI Class Hierarchy Descriptor'
PUBLIC	??_R2IUnknown@@8				; IUnknown::`RTTI Base Class Array'
PUBLIC	??_R1A@?0A@EA@IUnknown@@8			; IUnknown::`RTTI Base Class Descriptor at (0,-1,0,64)'
PUBLIC	?m_strAddInItemName@CChartDataListViewerAddInImp@@2V?$CStringT@DV?$StrTraitMFC_DLL@DV?$ChTraitsCRT@D@ATL@@@@@ATL@@A ; CChartDataListViewerAddInImp::m_strAddInItemName
PUBLIC	??_7CChartDataListViewerAddInImp@@6BCIWUnknown@@@ ; CChartDataListViewerAddInImp::`vftable'
PUBLIC	??_7CChartDataListViewerAddInImp@@6BIChartAddIn134221@@@ ; CChartDataListViewerAddInImp::`vftable'
PUBLIC	??_R0?AUIChartAddIn134221@@@8			; IChartAddIn134221 `RTTI Type Descriptor'
PUBLIC	??_R3IChartAddIn134221@@8			; IChartAddIn134221::`RTTI Class Hierarchy Descriptor'
PUBLIC	??_R2IChartAddIn134221@@8			; IChartAddIn134221::`RTTI Base Class Array'
PUBLIC	??_R1A@?0A@EA@IChartAddIn134221@@8		; IChartAddIn134221::`RTTI Base Class Descriptor at (0,-1,0,64)'
PUBLIC	??_R4CChartDataListViewerAddInImp@@6BCIWUnknown@@@ ; CChartDataListViewerAddInImp::`RTTI Complete Object Locator'
PUBLIC	??_R0?AVCChartDataListViewerAddInImp@@@8	; CChartDataListViewerAddInImp `RTTI Type Descriptor'
PUBLIC	??_R3CChartDataListViewerAddInImp@@8		; CChartDataListViewerAddInImp::`RTTI Class Hierarchy Descriptor'
PUBLIC	??_R2CChartDataListViewerAddInImp@@8		; CChartDataListViewerAddInImp::`RTTI Base Class Array'
PUBLIC	??_R1A@?0A@EA@CChartDataListViewerAddInImp@@8	; CChartDataListViewerAddInImp::`RTTI Base Class Descriptor at (0,-1,0,64)'
PUBLIC	??_R1A@?0A@EA@CChartAddInBase134221@@8		; CChartAddInBase134221::`RTTI Base Class Descriptor at (0,-1,0,64)'
PUBLIC	??_R0?AVCChartAddInBase134221@@@8		; CChartAddInBase134221 `RTTI Type Descriptor'
PUBLIC	??_R3CChartAddInBase134221@@8			; CChartAddInBase134221::`RTTI Class Hierarchy Descriptor'
PUBLIC	??_R2CChartAddInBase134221@@8			; CChartAddInBase134221::`RTTI Base Class Array'
PUBLIC	??_R1A@?0A@EA@CIWUnknown@@8			; CIWUnknown::`RTTI Base Class Descriptor at (0,-1,0,64)'
PUBLIC	??_R0?AVCIWUnknown@@@8				; CIWUnknown `RTTI Type Descriptor'
PUBLIC	??_R3CIWUnknown@@8				; CIWUnknown::`RTTI Class Hierarchy Descriptor'
PUBLIC	??_R2CIWUnknown@@8				; CIWUnknown::`RTTI Base Class Array'
PUBLIC	??_R17?0A@EA@IChartAddIn134221@@8		; IChartAddIn134221::`RTTI Base Class Descriptor at (8,-1,0,64)'
PUBLIC	??_R17?0A@EA@IUnknown@@8			; IUnknown::`RTTI Base Class Descriptor at (8,-1,0,64)'
PUBLIC	??_R4CChartDataListViewerAddInImp@@6BIChartAddIn134221@@@ ; CChartDataListViewerAddInImp::`RTTI Complete Object Locator'
EXTRN	??2@YAPAXI@Z:PROC				; operator new
EXTRN	??3@YAXPAX@Z:PROC				; operator delete
EXTRN	?__global_delete@@YAXPAXI@Z:PROC		; __global_delete
EXTRN	_atexit:PROC
EXTRN	___std_terminate:PROC
EXTRN	__imp__IsWindow@4:PROC
EXTRN	?GetRuntimeClass@CObject@@UBEPAUCRuntimeClass@@XZ:PROC ; CObject::GetRuntimeClass
EXTRN	__imp_??0?$CStringT@DV?$StrTraitMFC_DLL@DV?$ChTraitsCRT@D@ATL@@@@@ATL@@QAE@PBD@Z:PROC
EXTRN	__imp_??1?$CStringT@DV?$StrTraitMFC_DLL@DV?$ChTraitsCRT@D@ATL@@@@@ATL@@QAE@XZ:PROC
EXTRN	?AfxGetStaticModuleState@@YGPAVAFX_MODULE_STATE@@XZ:PROC ; AfxGetStaticModuleState
EXTRN	??0AFX_MAINTAIN_STATE2@@QAE@PAVAFX_MODULE_STATE@@@Z:PROC ; AFX_MAINTAIN_STATE2::AFX_MAINTAIN_STATE2
EXTRN	??1AFX_MAINTAIN_STATE2@@QAE@XZ:PROC		; AFX_MAINTAIN_STATE2::~AFX_MAINTAIN_STATE2
EXTRN	?AddRef@CIWUnknown@@MAGKXZ:PROC			; CIWUnknown::AddRef
EXTRN	?Release@CIWUnknown@@MAGKXZ:PROC		; CIWUnknown::Release
EXTRN	??0CChartAddInBase134221@@IAE@PAUIChartOCX134221@@PAUIAddInDllBase@@@Z:PROC ; CChartAddInBase134221::CChartAddInBase134221
EXTRN	??1CChartAddInBase134221@@MAE@XZ:PROC		; CChartAddInBase134221::~CChartAddInBase134221
EXTRN	?HasFullManager@CChartAddInBase134221@@MAEHXZ:PROC ; CChartAddInBase134221::HasFullManager
EXTRN	?RegisterEventMap@CChartAddInBase134221@@UAEHH@Z:PROC ; CChartAddInBase134221::RegisterEventMap
EXTRN	?UnregisterEventMap@CChartAddInBase134221@@UAEHXZ:PROC ; CChartAddInBase134221::UnregisterEventMap
EXTRN	??_ECChartDataListViewerAddInImp@@UAEPAXI@Z:PROC ; CChartDataListViewerAddInImp::`vector deleting destructor'
EXTRN	??0CDataListViewMngWnd@@QAE@XZ:PROC		; CDataListViewMngWnd::CDataListViewMngWnd
EXTRN	?IsUpdateReady@CDataListViewMngWnd@@QAEHXZ:PROC	; CDataListViewMngWnd::IsUpdateReady
EXTRN	?SetAddInImp@CDataListViewMngWnd@@QAEXPAVCChartDataListViewerAddInImp@@@Z:PROC ; CDataListViewMngWnd::SetAddInImp
EXTRN	?Update@CDataListViewMngWnd@@QAEXXZ:PROC	; CDataListViewMngWnd::Update
EXTRN	?RealUpdate@CDataListViewMngWnd@@QAEXXZ:PROC	; CDataListViewMngWnd::RealUpdate
EXTRN	?CreateDataListView@CDataListViewMngWnd@@QAEXXZ:PROC ; CDataListViewMngWnd::CreateDataListView
EXTRN	@__security_check_cookie@4:PROC
EXTRN	___CxxFrameHandler3:PROC
EXTRN	??_7type_info@@6B@:QWORD			; type_info::`vftable'
EXTRN	___security_cookie:DWORD
_BSS	SEGMENT
?m_strAddInItemName@CChartDataListViewerAddInImp@@2V?$CStringT@DV?$StrTraitMFC_DLL@DV?$ChTraitsCRT@D@ATL@@@@@ATL@@A DD 01H DUP (?) ; CChartDataListViewerAddInImp::m_strAddInItemName
_BSS	ENDS
CRT$XCU	SEGMENT
??m_strAddInItemName$initializer$@CChartDataListViewerAddInImp@@2P6AXXZA@@3P6AXXZA DD FLAT:??__E?m_strAddInItemName@CChartDataListViewerAddInImp@@2V?$CStringT@DV?$StrTraitMFC_DLL@DV?$ChTraitsCRT@D@ATL@@@@@ATL@@A@@YAXXZ ; ??m_strAddInItemName$initializer$@CChartDataListViewerAddInImp@@2P6AXXZA@@3P6AXXZA
CRT$XCU	ENDS
;	COMDAT ??_R4CChartDataListViewerAddInImp@@6BIChartAddIn134221@@@
rdata$r	SEGMENT
??_R4CChartDataListViewerAddInImp@@6BIChartAddIn134221@@@ DD 00H ; CChartDataListViewerAddInImp::`RTTI Complete Object Locator'
	DD	08H
	DD	00H
	DD	FLAT:??_R0?AVCChartDataListViewerAddInImp@@@8
	DD	FLAT:??_R3CChartDataListViewerAddInImp@@8
rdata$r	ENDS
;	COMDAT ??_R17?0A@EA@IUnknown@@8
rdata$r	SEGMENT
??_R17?0A@EA@IUnknown@@8 DD FLAT:??_R0?AUIUnknown@@@8	; IUnknown::`RTTI Base Class Descriptor at (8,-1,0,64)'
	DD	00H
	DD	08H
	DD	0ffffffffH
	DD	00H
	DD	040H
	DD	FLAT:??_R3IUnknown@@8
rdata$r	ENDS
;	COMDAT ??_R17?0A@EA@IChartAddIn134221@@8
rdata$r	SEGMENT
??_R17?0A@EA@IChartAddIn134221@@8 DD FLAT:??_R0?AUIChartAddIn134221@@@8 ; IChartAddIn134221::`RTTI Base Class Descriptor at (8,-1,0,64)'
	DD	01H
	DD	08H
	DD	0ffffffffH
	DD	00H
	DD	040H
	DD	FLAT:??_R3IChartAddIn134221@@8
rdata$r	ENDS
;	COMDAT ??_R2CIWUnknown@@8
rdata$r	SEGMENT
??_R2CIWUnknown@@8 DD FLAT:??_R1A@?0A@EA@CIWUnknown@@8	; CIWUnknown::`RTTI Base Class Array'
	DD	FLAT:??_R1A@?0A@EA@CObject@@8
rdata$r	ENDS
;	COMDAT ??_R3CIWUnknown@@8
rdata$r	SEGMENT
??_R3CIWUnknown@@8 DD 00H				; CIWUnknown::`RTTI Class Hierarchy Descriptor'
	DD	00H
	DD	02H
	DD	FLAT:??_R2CIWUnknown@@8
rdata$r	ENDS
;	COMDAT ??_R0?AVCIWUnknown@@@8
data$rs	SEGMENT
??_R0?AVCIWUnknown@@@8 DD FLAT:??_7type_info@@6B@	; CIWUnknown `RTTI Type Descriptor'
	DD	00H
	DB	'.?AVCIWUnknown@@', 00H
data$rs	ENDS
;	COMDAT ??_R1A@?0A@EA@CIWUnknown@@8
rdata$r	SEGMENT
??_R1A@?0A@EA@CIWUnknown@@8 DD FLAT:??_R0?AVCIWUnknown@@@8 ; CIWUnknown::`RTTI Base Class Descriptor at (0,-1,0,64)'
	DD	01H
	DD	00H
	DD	0ffffffffH
	DD	00H
	DD	040H
	DD	FLAT:??_R3CIWUnknown@@8
rdata$r	ENDS
;	COMDAT ??_R2CChartAddInBase134221@@8
rdata$r	SEGMENT
??_R2CChartAddInBase134221@@8 DD FLAT:??_R1A@?0A@EA@CChartAddInBase134221@@8 ; CChartAddInBase134221::`RTTI Base Class Array'
	DD	FLAT:??_R1A@?0A@EA@CIWUnknown@@8
	DD	FLAT:??_R1A@?0A@EA@CObject@@8
	DD	FLAT:??_R17?0A@EA@IChartAddIn134221@@8
	DD	FLAT:??_R17?0A@EA@IUnknown@@8
rdata$r	ENDS
;	COMDAT ??_R3CChartAddInBase134221@@8
rdata$r	SEGMENT
??_R3CChartAddInBase134221@@8 DD 00H			; CChartAddInBase134221::`RTTI Class Hierarchy Descriptor'
	DD	01H
	DD	05H
	DD	FLAT:??_R2CChartAddInBase134221@@8
rdata$r	ENDS
;	COMDAT ??_R0?AVCChartAddInBase134221@@@8
data$rs	SEGMENT
??_R0?AVCChartAddInBase134221@@@8 DD FLAT:??_7type_info@@6B@ ; CChartAddInBase134221 `RTTI Type Descriptor'
	DD	00H
	DB	'.?AVCChartAddInBase134221@@', 00H
data$rs	ENDS
;	COMDAT ??_R1A@?0A@EA@CChartAddInBase134221@@8
rdata$r	SEGMENT
??_R1A@?0A@EA@CChartAddInBase134221@@8 DD FLAT:??_R0?AVCChartAddInBase134221@@@8 ; CChartAddInBase134221::`RTTI Base Class Descriptor at (0,-1,0,64)'
	DD	04H
	DD	00H
	DD	0ffffffffH
	DD	00H
	DD	040H
	DD	FLAT:??_R3CChartAddInBase134221@@8
rdata$r	ENDS
;	COMDAT ??_R1A@?0A@EA@CChartDataListViewerAddInImp@@8
rdata$r	SEGMENT
??_R1A@?0A@EA@CChartDataListViewerAddInImp@@8 DD FLAT:??_R0?AVCChartDataListViewerAddInImp@@@8 ; CChartDataListViewerAddInImp::`RTTI Base Class Descriptor at (0,-1,0,64)'
	DD	05H
	DD	00H
	DD	0ffffffffH
	DD	00H
	DD	040H
	DD	FLAT:??_R3CChartDataListViewerAddInImp@@8
rdata$r	ENDS
;	COMDAT ??_R2CChartDataListViewerAddInImp@@8
rdata$r	SEGMENT
??_R2CChartDataListViewerAddInImp@@8 DD FLAT:??_R1A@?0A@EA@CChartDataListViewerAddInImp@@8 ; CChartDataListViewerAddInImp::`RTTI Base Class Array'
	DD	FLAT:??_R1A@?0A@EA@CChartAddInBase134221@@8
	DD	FLAT:??_R1A@?0A@EA@CIWUnknown@@8
	DD	FLAT:??_R1A@?0A@EA@CObject@@8
	DD	FLAT:??_R17?0A@EA@IChartAddIn134221@@8
	DD	FLAT:??_R17?0A@EA@IUnknown@@8
rdata$r	ENDS
;	COMDAT ??_R3CChartDataListViewerAddInImp@@8
rdata$r	SEGMENT
??_R3CChartDataListViewerAddInImp@@8 DD 00H		; CChartDataListViewerAddInImp::`RTTI Class Hierarchy Descriptor'
	DD	01H
	DD	06H
	DD	FLAT:??_R2CChartDataListViewerAddInImp@@8
rdata$r	ENDS
;	COMDAT ??_R0?AVCChartDataListViewerAddInImp@@@8
data$rs	SEGMENT
??_R0?AVCChartDataListViewerAddInImp@@@8 DD FLAT:??_7type_info@@6B@ ; CChartDataListViewerAddInImp `RTTI Type Descriptor'
	DD	00H
	DB	'.?AVCChartDataListViewerAddInImp@@', 00H
data$rs	ENDS
;	COMDAT ??_R4CChartDataListViewerAddInImp@@6BCIWUnknown@@@
rdata$r	SEGMENT
??_R4CChartDataListViewerAddInImp@@6BCIWUnknown@@@ DD 00H ; CChartDataListViewerAddInImp::`RTTI Complete Object Locator'
	DD	00H
	DD	00H
	DD	FLAT:??_R0?AVCChartDataListViewerAddInImp@@@8
	DD	FLAT:??_R3CChartDataListViewerAddInImp@@8
rdata$r	ENDS
;	COMDAT ??_R1A@?0A@EA@IChartAddIn134221@@8
rdata$r	SEGMENT
??_R1A@?0A@EA@IChartAddIn134221@@8 DD FLAT:??_R0?AUIChartAddIn134221@@@8 ; IChartAddIn134221::`RTTI Base Class Descriptor at (0,-1,0,64)'
	DD	01H
	DD	00H
	DD	0ffffffffH
	DD	00H
	DD	040H
	DD	FLAT:??_R3IChartAddIn134221@@8
rdata$r	ENDS
;	COMDAT ??_R2IChartAddIn134221@@8
rdata$r	SEGMENT
??_R2IChartAddIn134221@@8 DD FLAT:??_R1A@?0A@EA@IChartAddIn134221@@8 ; IChartAddIn134221::`RTTI Base Class Array'
	DD	FLAT:??_R1A@?0A@EA@IUnknown@@8
rdata$r	ENDS
;	COMDAT ??_R3IChartAddIn134221@@8
rdata$r	SEGMENT
??_R3IChartAddIn134221@@8 DD 00H			; IChartAddIn134221::`RTTI Class Hierarchy Descriptor'
	DD	00H
	DD	02H
	DD	FLAT:??_R2IChartAddIn134221@@8
rdata$r	ENDS
;	COMDAT ??_R0?AUIChartAddIn134221@@@8
data$rs	SEGMENT
??_R0?AUIChartAddIn134221@@@8 DD FLAT:??_7type_info@@6B@ ; IChartAddIn134221 `RTTI Type Descriptor'
	DD	00H
	DB	'.?AUIChartAddIn134221@@', 00H
data$rs	ENDS
;	COMDAT ??_7CChartDataListViewerAddInImp@@6BIChartAddIn134221@@@
CONST	SEGMENT
??_7CChartDataListViewerAddInImp@@6BIChartAddIn134221@@@ DD FLAT:??_R4CChartDataListViewerAddInImp@@6BIChartAddIn134221@@@ ; CChartDataListViewerAddInImp::`vftable'
	DD	FLAT:?QueryInterface@CChartAddInBase134221@@O7AGJABU_GUID@@PAPAX@Z
	DD	FLAT:?AddRef@CChartAddInBase134221@@O7AGKXZ
	DD	FLAT:?Release@CChartAddInBase134221@@O7AGKXZ
	DD	FLAT:??_ECChartDataListViewerAddInImp@@W7AEPAXI@Z
	DD	FLAT:?HasFullManager@CChartAddInBase134221@@MAEHXZ
	DD	FLAT:?GetAddInCustomInterface@CChartAddInBase134221@@MAEPAUIUnknown@@XZ
	DD	FLAT:?InvokeAddIn@CChartAddInBase134221@@MAEHHJ@Z
	DD	FLAT:?InvokeAddInStr@CChartAddInBase134221@@MAEHPBD0@Z
	DD	FLAT:?OnOcxDestroyWindow@CChartAddInBase134221@@MAEXXZ
	DD	FLAT:?RegisterEventMap@CChartAddInBase134221@@UAEHH@Z
	DD	FLAT:?UnregisterEventMap@CChartAddInBase134221@@UAEHXZ
	DD	FLAT:?OnGSharedDataChange@CChartAddInBase134221@@MAEXPBD0H@Z
	DD	FLAT:?OnLSharedDataChange@CChartAddInBase134221@@MAEXPBD0@Z
	DD	FLAT:?OnResetChart@CChartAddInBase134221@@MAEXXZ
	DD	FLAT:?OnDrawBeforeGraph@CChartAddInBase134221@@MAEXPAUHDC__@@@Z
	DD	FLAT:?OnDrawAfterGraph@CChartAddInBase134221@@MAEXPAUHDC__@@@Z
	DD	FLAT:?OnPacketDataMultiItem@CChartDataListViewerAddInImp@@MAEXPBD0H@Z
	DD	FLAT:?OnTimer@CChartAddInBase134221@@MAEXI@Z
	DD	FLAT:?OnCaptureChanged@CChartAddInBase134221@@MAEXPAUHWND__@@QAUHBITMAP__@@@Z
	DD	FLAT:?OnResetMainBlock@CChartAddInBase134221@@MAEXXZ
	DD	FLAT:?OnUserIndiatorConditionLoaded@CChartAddInBase134221@@MAEXXZ
	DD	FLAT:?OnChartItemChanged@CChartAddInBase134221@@MAEXXZ
	DD	FLAT:?OnGraphDataChanged@CChartAddInBase134221@@MAEXXZ
	DD	FLAT:?OnBlockRemoved@CChartAddInBase134221@@MAEXHH@Z
	DD	FLAT:?OnGraphAdded@CChartDataListViewerAddInImp@@MAEXPBD0@Z
	DD	FLAT:?OnManualRealData@CChartAddInBase134221@@MAEXPBDNH@Z
	DD	FLAT:?OnContextMenu@CChartAddInBase134221@@MAEXPAUHWND__@@AAUtagPOINT@@@Z
	DD	FLAT:?OnGraphDeleted@CChartDataListViewerAddInImp@@MAEXPBD0@Z
	DD	FLAT:?OnPacketTruncated@CChartAddInBase134221@@MAEXH@Z
	DD	FLAT:?OnBlockChanged@CChartAddInBase134221@@MAEXW4BLOCKBEHAVIOR@CBlockBaseData@@HHHH@Z
	DD	FLAT:?OnToolCommand@CChartDataListViewerAddInImp@@MAEXHH@Z
	DD	FLAT:?OnRealData@CChartAddInBase134221@@MAEXPBDN0@Z
	DD	FLAT:?OnIndexedRealData@CChartAddInBase134221@@MAEXPBDHN@Z
	DD	FLAT:?OnRealPacketEnd@CChartDataListViewerAddInImp@@MAEXPBD@Z
	DD	FLAT:?OnLoadEnvironment@CChartAddInBase134221@@MAEXPAUIPropertyMap@@@Z
	DD	FLAT:?OnSaveEnvironment@CChartAddInBase134221@@MAEXPAUIPropertyMap@@@Z
	DD	FLAT:?DrawCursor@CChartAddInBase134221@@MAE?AUtagRECT@@PAUHDC__@@@Z
	DD	FLAT:?OnRecalculationComplete@CChartDataListViewerAddInImp@@MAEXXZ
	DD	FLAT:?OnPreRealData@CChartAddInBase134221@@MAEHPBDAAN0@Z
	DD	FLAT:?OnPreIndexedRealData@CChartAddInBase134221@@MAEHPBDHAAN@Z
	DD	FLAT:?OnPreRealPacketEnd@CChartAddInBase134221@@MAEHPBD@Z
	DD	FLAT:?OnCmdMsg@CChartDataListViewerAddInImp@@MAEHIHPAUICmdUI134221@@@Z
	DD	FLAT:?OnAddInMsg@CChartAddInBase134221@@MAEHPBDJ@Z
	DD	FLAT:?OnAddInToolCommand@CChartAddInBase134221@@MAEHAAJW4EAICommandType@@JJ@Z
	DD	FLAT:?OnAddInToolCommand@CChartAddInBase134221@@MAEHAAJW4EAICommandType@@J@Z
	DD	FLAT:?OnAddInToolCommand@CChartAddInBase134221@@MAEHAAJW4EAICommandType@@PBDPAVCObject@@@Z
	DD	FLAT:?OnAddInToolCommand@CChartAddInBase134221@@MAEHAAJW4EAICommandType@@PBD@Z
	DD	FLAT:?OnAddInToolCommand@CChartAddInBase134221@@MAEHAAJW4EAICommandType@@PAUIGraphInfo134221@@@Z
	DD	FLAT:?OnAddInToolCommand@CChartAddInBase134221@@MAEHAAJW4EAICommandType@@@Z
	DD	FLAT:?OnAddInToolCommand@CChartAddInBase134221@@MAEHW4EAICommandType@@JJJJJJJJJ@Z
	DD	FLAT:?OnAddInToolCommand@CChartAddInBase134221@@MAEHW4EAICommandType@@JJ@Z
	DD	FLAT:?OnAddInToolCommand@CChartAddInBase134221@@MAEHW4EAICommandType@@JPBD11@Z
	DD	FLAT:?OnAddInToolCommand@CChartAddInBase134221@@MAEHW4EAICommandType@@JPBD@Z
	DD	FLAT:?OnAddInToolCommand@CChartAddInBase134221@@MAEHW4EAICommandType@@J@Z
	DD	FLAT:?OnAddInToolCommand@CChartAddInBase134221@@MAEHW4EAICommandType@@PBUIAddInDllBase@@@Z
	DD	FLAT:?OnAddInToolCommand@CChartDataListViewerAddInImp@@MAEHW4EAICommandType@@PBDJ@Z
	DD	FLAT:?OnAddInToolCommand@CChartAddInBase134221@@MAEHW4EAICommandType@@PBD1@Z
	DD	FLAT:?OnAddInToolCommand@CChartAddInBase134221@@MAEHW4EAICommandType@@PBD@Z
	DD	FLAT:?OnAddInToolCommand@CChartAddInBase134221@@MAEHW4EAICommandType@@PAUHDC__@@IAAUtagPOINT@@K@Z
	DD	FLAT:?OnAddInToolCommand@CChartAddInBase134221@@MAEHW4EAICommandType@@@Z
	DD	FLAT:?OnKeyDown@CChartAddInBase134221@@MAEHIII@Z
	DD	FLAT:?OnKeyUp@CChartAddInBase134221@@MAEHIII@Z
	DD	FLAT:?OnMouseWheel@CChartAddInBase134221@@MAEHIFUtagPOINT@@K@Z
	DD	FLAT:?OnMouseMove@CChartAddInBase134221@@MAEHPAUHDC__@@IAAUtagPOINT@@KQAUHBITMAP__@@@Z
	DD	FLAT:?OnLButtonDown@CChartAddInBase134221@@MAEHPAUHDC__@@IAAUtagPOINT@@K@Z
	DD	FLAT:?OnLButtonUp@CChartAddInBase134221@@MAEHPAUHDC__@@IAAUtagPOINT@@K@Z
	DD	FLAT:?OnLButtonDblClk@CChartAddInBase134221@@MAEHPAUHDC__@@IAAUtagPOINT@@K@Z
	DD	FLAT:?OnRButtonDown@CChartAddInBase134221@@MAEHPAUHDC__@@IAAUtagPOINT@@K@Z
	DD	FLAT:?OnRButtonUp@CChartAddInBase134221@@MAEHPAUHDC__@@IAAUtagPOINT@@K@Z
	DD	FLAT:?OnRButtonDblClk@CChartAddInBase134221@@MAEHPAUHDC__@@IAAUtagPOINT@@K@Z
CONST	ENDS
;	COMDAT ??_7CChartDataListViewerAddInImp@@6BCIWUnknown@@@
CONST	SEGMENT
??_7CChartDataListViewerAddInImp@@6BCIWUnknown@@@ DD FLAT:??_R4CChartDataListViewerAddInImp@@6BCIWUnknown@@@ ; CChartDataListViewerAddInImp::`vftable'
	DD	FLAT:?GetRuntimeClass@CObject@@UBEPAUCRuntimeClass@@XZ
	DD	FLAT:??_ECChartDataListViewerAddInImp@@UAEPAXI@Z
	DD	FLAT:?Serialize@CObject@@UAEXAAVCArchive@@@Z
	DD	FLAT:?AssertValid@CObject@@UBEXXZ
	DD	FLAT:?Dump@CObject@@UBEXAAVCDumpContext@@@Z
	DD	FLAT:?AddRef@CChartAddInBase134221@@MAGKXZ
	DD	FLAT:?Release@CChartAddInBase134221@@MAGKXZ
	DD	FLAT:?QueryInterface@CChartAddInBase134221@@MAGJABU_GUID@@PAPAX@Z
	DD	FLAT:?PostConstruct@CIWUnknown@@MAEXXZ
	DD	FLAT:?PreDestructX@CIWUnknown@@MAEXXZ
	DD	FLAT:?PreDestruct@CIWUnknown@@MAEXXZ
	DD	FLAT:?GetRegisteredEventMap@CChartDataListViewerAddInImp@@MBEPBW4EAddInEventType@IChartAddIn134221@@XZ
CONST	ENDS
;	COMDAT ??_R1A@?0A@EA@IUnknown@@8
rdata$r	SEGMENT
??_R1A@?0A@EA@IUnknown@@8 DD FLAT:??_R0?AUIUnknown@@@8	; IUnknown::`RTTI Base Class Descriptor at (0,-1,0,64)'
	DD	00H
	DD	00H
	DD	0ffffffffH
	DD	00H
	DD	040H
	DD	FLAT:??_R3IUnknown@@8
rdata$r	ENDS
;	COMDAT ??_R2IUnknown@@8
rdata$r	SEGMENT
??_R2IUnknown@@8 DD FLAT:??_R1A@?0A@EA@IUnknown@@8	; IUnknown::`RTTI Base Class Array'
rdata$r	ENDS
;	COMDAT ??_R3IUnknown@@8
rdata$r	SEGMENT
??_R3IUnknown@@8 DD 00H					; IUnknown::`RTTI Class Hierarchy Descriptor'
	DD	00H
	DD	01H
	DD	FLAT:??_R2IUnknown@@8
rdata$r	ENDS
;	COMDAT ??_R0?AUIUnknown@@@8
data$rs	SEGMENT
??_R0?AUIUnknown@@@8 DD FLAT:??_7type_info@@6B@		; IUnknown `RTTI Type Descriptor'
	DD	00H
	DB	'.?AUIUnknown@@', 00H
data$rs	ENDS
;	COMDAT ??_R1A@?0A@EA@CObject@@8
rdata$r	SEGMENT
??_R1A@?0A@EA@CObject@@8 DD FLAT:??_R0?AVCObject@@@8	; CObject::`RTTI Base Class Descriptor at (0,-1,0,64)'
	DD	00H
	DD	00H
	DD	0ffffffffH
	DD	00H
	DD	040H
	DD	FLAT:??_R3CObject@@8
rdata$r	ENDS
;	COMDAT ??_R2CObject@@8
rdata$r	SEGMENT
??_R2CObject@@8 DD FLAT:??_R1A@?0A@EA@CObject@@8	; CObject::`RTTI Base Class Array'
rdata$r	ENDS
;	COMDAT ??_R3CObject@@8
rdata$r	SEGMENT
??_R3CObject@@8 DD 00H					; CObject::`RTTI Class Hierarchy Descriptor'
	DD	00H
	DD	01H
	DD	FLAT:??_R2CObject@@8
rdata$r	ENDS
;	COMDAT ??_R0?AVCObject@@@8
data$rs	SEGMENT
??_R0?AVCObject@@@8 DD FLAT:??_7type_info@@6B@		; CObject `RTTI Type Descriptor'
	DD	00H
	DB	'.?AVCObject@@', 00H
data$rs	ENDS
;	COMDAT ??_C@_00CNPNBAHC@@
CONST	SEGMENT
??_C@_00CNPNBAHC@@ DB 00H				; `string'
CONST	ENDS
;	COMDAT xdata$x
xdata$x	SEGMENT
__unwindtable$??_GCChartDataListViewerAddInImp@@UAEPAXI@Z DD 0ffffffffH
	DD	FLAT:___std_terminate
__ehfuncinfo$??_GCChartDataListViewerAddInImp@@UAEPAXI@Z DD 019930522H
	DD	01H
	DD	FLAT:__unwindtable$??_GCChartDataListViewerAddInImp@@UAEPAXI@Z
	DD	2 DUP(00H)
	DD	2 DUP(00H)
	DD	00H
	DD	05H
xdata$x	ENDS
;	COMDAT xdata$x
xdata$x	SEGMENT
__unwindtable$?OnToolCommand@CChartDataListViewerAddInImp@@MAEXHH@Z DD 0ffffffffH
	DD	FLAT:__unwindfunclet$?OnToolCommand@CChartDataListViewerAddInImp@@MAEXHH@Z$0
	DD	00H
	DD	FLAT:__unwindfunclet$?OnToolCommand@CChartDataListViewerAddInImp@@MAEXHH@Z$1
__ehfuncinfo$?OnToolCommand@CChartDataListViewerAddInImp@@MAEXHH@Z DD 019930522H
	DD	02H
	DD	FLAT:__unwindtable$?OnToolCommand@CChartDataListViewerAddInImp@@MAEXHH@Z
	DD	2 DUP(00H)
	DD	2 DUP(00H)
	DD	00H
	DD	01H
xdata$x	ENDS
;	COMDAT xdata$x
xdata$x	SEGMENT
__ehfuncinfo$??1CChartDataListViewerAddInImp@@UAE@XZ DD 019930522H
	DD	00H
	DD	00H
	DD	2 DUP(00H)
	DD	2 DUP(00H)
	DD	00H
	DD	05H
xdata$x	ENDS
; Function compile flags: /Odsp
;	COMDAT ??_ECChartDataListViewerAddInImp@@W7AEPAXI@Z
_TEXT	SEGMENT
??_ECChartDataListViewerAddInImp@@W7AEPAXI@Z PROC	; [thunk]:CChartDataListViewerAddInImp::`vector deleting destructor', COMDAT
  00000	83 e9 08	 sub	 ecx, 8
  00003	e9 00 00 00 00	 jmp	 ??_ECChartDataListViewerAddInImp@@UAEPAXI@Z
??_ECChartDataListViewerAddInImp@@W7AEPAXI@Z ENDP	; [thunk]:CChartDataListViewerAddInImp::`vector deleting destructor'
_TEXT	ENDS
; Function compile flags: /Odsp
;	COMDAT ?Release@CChartAddInBase134221@@O7AGKXZ
_TEXT	SEGMENT
?Release@CChartAddInBase134221@@O7AGKXZ PROC		; [thunk]:CChartAddInBase134221::Release`adjustor{8}', COMDAT
  00000	83 6c 24 04 08	 sub	 DWORD PTR [esp+4], 8
  00005	e9 00 00 00 00	 jmp	 ?Release@CChartAddInBase134221@@MAGKXZ ; CChartAddInBase134221::Release
?Release@CChartAddInBase134221@@O7AGKXZ ENDP		; [thunk]:CChartAddInBase134221::Release`adjustor{8}'
_TEXT	ENDS
; Function compile flags: /Odsp
;	COMDAT ?AddRef@CChartAddInBase134221@@O7AGKXZ
_TEXT	SEGMENT
?AddRef@CChartAddInBase134221@@O7AGKXZ PROC		; [thunk]:CChartAddInBase134221::AddRef`adjustor{8}', COMDAT
  00000	83 6c 24 04 08	 sub	 DWORD PTR [esp+4], 8
  00005	e9 00 00 00 00	 jmp	 ?AddRef@CChartAddInBase134221@@MAGKXZ ; CChartAddInBase134221::AddRef
?AddRef@CChartAddInBase134221@@O7AGKXZ ENDP		; [thunk]:CChartAddInBase134221::AddRef`adjustor{8}'
_TEXT	ENDS
; Function compile flags: /Odsp
;	COMDAT ?QueryInterface@CChartAddInBase134221@@O7AGJABU_GUID@@PAPAX@Z
_TEXT	SEGMENT
?QueryInterface@CChartAddInBase134221@@O7AGJABU_GUID@@PAPAX@Z PROC ; [thunk]:CChartAddInBase134221::QueryInterface`adjustor{8}', COMDAT
  00000	83 6c 24 04 08	 sub	 DWORD PTR [esp+4], 8
  00005	e9 00 00 00 00	 jmp	 ?QueryInterface@CChartAddInBase134221@@MAGJABU_GUID@@PAPAX@Z ; CChartAddInBase134221::QueryInterface
?QueryInterface@CChartAddInBase134221@@O7AGJABU_GUID@@PAPAX@Z ENDP ; [thunk]:CChartAddInBase134221::QueryInterface`adjustor{8}'
_TEXT	ENDS
; Function compile flags: /Ogtp
;	COMDAT ??__F?m_strAddInItemName@CChartDataListViewerAddInImp@@2V?$CStringT@DV?$StrTraitMFC_DLL@DV?$ChTraitsCRT@D@ATL@@@@@ATL@@A@@YAXXZ
text$yd	SEGMENT
??__F?m_strAddInItemName@CChartDataListViewerAddInImp@@2V?$CStringT@DV?$StrTraitMFC_DLL@DV?$ChTraitsCRT@D@ATL@@@@@ATL@@A@@YAXXZ PROC ; `dynamic atexit destructor for 'CChartDataListViewerAddInImp::m_strAddInItemName'', COMDAT
  00000	b9 00 00 00 00	 mov	 ecx, OFFSET ?m_strAddInItemName@CChartDataListViewerAddInImp@@2V?$CStringT@DV?$StrTraitMFC_DLL@DV?$ChTraitsCRT@D@ATL@@@@@ATL@@A ; CChartDataListViewerAddInImp::m_strAddInItemName
  00005	ff 25 00 00 00
	00		 jmp	 DWORD PTR __imp_??1?$CStringT@DV?$StrTraitMFC_DLL@DV?$ChTraitsCRT@D@ATL@@@@@ATL@@QAE@XZ
??__F?m_strAddInItemName@CChartDataListViewerAddInImp@@2V?$CStringT@DV?$StrTraitMFC_DLL@DV?$ChTraitsCRT@D@ATL@@@@@ATL@@A@@YAXXZ ENDP ; `dynamic atexit destructor for 'CChartDataListViewerAddInImp::m_strAddInItemName''
text$yd	ENDS
; Function compile flags: /Ogtp
; File D:\git\src\IBK\IBK_DRFN\ProjSrc\SrcChartEx\ChartAddIn\ChartDataListViewerAddIn\ChartDataListViewerAddIn\ChartDataListViewerAddInImp.cpp
;	COMDAT ??__E?m_strAddInItemName@CChartDataListViewerAddInImp@@2V?$CStringT@DV?$StrTraitMFC_DLL@DV?$ChTraitsCRT@D@ATL@@@@@ATL@@A@@YAXXZ
text$di	SEGMENT
??__E?m_strAddInItemName@CChartDataListViewerAddInImp@@2V?$CStringT@DV?$StrTraitMFC_DLL@DV?$ChTraitsCRT@D@ATL@@@@@ATL@@A@@YAXXZ PROC ; `dynamic initializer for 'CChartDataListViewerAddInImp::m_strAddInItemName'', COMDAT

; 63   : CString CChartDataListViewerAddInImp::m_strAddInItemName = "DATA_VIEWER";

  00000	68 00 00 00 00	 push	 OFFSET ??_C@_0M@FNOLENK@DATA_VIEWER@
  00005	b9 00 00 00 00	 mov	 ecx, OFFSET ?m_strAddInItemName@CChartDataListViewerAddInImp@@2V?$CStringT@DV?$StrTraitMFC_DLL@DV?$ChTraitsCRT@D@ATL@@@@@ATL@@A ; CChartDataListViewerAddInImp::m_strAddInItemName
  0000a	ff 15 00 00 00
	00		 call	 DWORD PTR __imp_??0?$CStringT@DV?$StrTraitMFC_DLL@DV?$ChTraitsCRT@D@ATL@@@@@ATL@@QAE@PBD@Z
  00010	68 00 00 00 00	 push	 OFFSET ??__F?m_strAddInItemName@CChartDataListViewerAddInImp@@2V?$CStringT@DV?$StrTraitMFC_DLL@DV?$ChTraitsCRT@D@ATL@@@@@ATL@@A@@YAXXZ ; `dynamic atexit destructor for 'CChartDataListViewerAddInImp::m_strAddInItemName''
  00015	e8 00 00 00 00	 call	 _atexit
  0001a	59		 pop	 ecx
  0001b	c3		 ret	 0
??__E?m_strAddInItemName@CChartDataListViewerAddInImp@@2V?$CStringT@DV?$StrTraitMFC_DLL@DV?$ChTraitsCRT@D@ATL@@@@@ATL@@A@@YAXXZ ENDP ; `dynamic initializer for 'CChartDataListViewerAddInImp::m_strAddInItemName''
text$di	ENDS
; Function compile flags: /Ogtp
; File D:\git\src\IBK\IBK_DRFN\ProjSrc\SrcChartEx\ChartAddIn\ChartDataListViewerAddIn\ChartDataListViewerAddIn\ChartDataListViewerAddInImp.cpp
; File C:\Program Files (x86)\Microsoft Visual Studio\2019\Community\VC\Tools\MSVC\14.29.30133\atlmfc\include\afxwin2.inl
; File D:\git\src\IBK\IBK_DRFN\ProjSrc\SrcChartEx\ChartAddIn\ChartDataListViewerAddIn\ChartDataListViewerAddIn\ChartDataListViewerAddInImp.cpp
; File C:\Program Files (x86)\Microsoft Visual Studio\2019\Community\VC\Tools\MSVC\14.29.30133\atlmfc\include\afx.inl
;	COMDAT ??_GCChartDataListViewerAddInImp@@UAEPAXI@Z
_TEXT	SEGMENT
__ctlState$2 = -20					; size = 8
__$EHRec$ = -12						; size = 12
___flags$ = 8						; size = 4
??_GCChartDataListViewerAddInImp@@UAEPAXI@Z PROC	; CChartDataListViewerAddInImp::`scalar deleting destructor', COMDAT
; _this$ = ecx
  00000	55		 push	 ebp
  00001	8b ec		 mov	 ebp, esp
  00003	6a ff		 push	 -1
  00005	68 00 00 00 00	 push	 __ehhandler$??_GCChartDataListViewerAddInImp@@UAEPAXI@Z
  0000a	64 a1 00 00 00
	00		 mov	 eax, DWORD PTR fs:0
  00010	50		 push	 eax
  00011	83 ec 08	 sub	 esp, 8
  00014	56		 push	 esi
  00015	a1 00 00 00 00	 mov	 eax, DWORD PTR ___security_cookie
  0001a	33 c5		 xor	 eax, ebp
  0001c	50		 push	 eax
  0001d	8d 45 f4	 lea	 eax, DWORD PTR __$EHRec$[ebp]
  00020	64 a3 00 00 00
	00		 mov	 DWORD PTR fs:0, eax
  00026	8b f1		 mov	 esi, ecx
; File D:\git\src\IBK\IBK_DRFN\ProjSrc\SrcChartEx\ChartAddIn\ChartDataListViewerAddIn\ChartDataListViewerAddIn\ChartDataListViewerAddInImp.cpp

; 41   : 	if( m_pDataListViewMngWnd)

  00028	83 7e 40 00	 cmp	 DWORD PTR [esi+64], 0
  0002c	c7 45 fc 00 00
	00 00		 mov	 DWORD PTR __$EHRec$[ebp+8], 0
  00033	c7 06 00 00 00
	00		 mov	 DWORD PTR [esi], OFFSET ??_7CChartDataListViewerAddInImp@@6BCIWUnknown@@@
  00039	c7 46 08 00 00
	00 00		 mov	 DWORD PTR [esi+8], OFFSET ??_7CChartDataListViewerAddInImp@@6BIChartAddIn134221@@@
  00040	74 48		 je	 SHORT $LN8@scalar

; 42   : 	{
; 43   : 		AFX_MANAGE_STATE(AfxGetStaticModuleState());

  00042	e8 00 00 00 00	 call	 ?AfxGetStaticModuleState@@YGPAVAFX_MODULE_STATE@@XZ ; AfxGetStaticModuleState
  00047	50		 push	 eax
  00048	8d 4d ec	 lea	 ecx, DWORD PTR __ctlState$2[ebp]
  0004b	e8 00 00 00 00	 call	 ??0AFX_MAINTAIN_STATE2@@QAE@PAVAFX_MODULE_STATE@@@Z ; AFX_MAINTAIN_STATE2::AFX_MAINTAIN_STATE2

; 44   : 		if( IsWindow( m_pDataListViewMngWnd->GetSafeHwnd())) 

  00050	8b 46 40	 mov	 eax, DWORD PTR [esi+64]
; File C:\Program Files (x86)\Microsoft Visual Studio\2019\Community\VC\Tools\MSVC\14.29.30133\atlmfc\include\afxwin2.inl

; 25   : 	{ return this == NULL ? NULL : m_hWnd; }

  00053	85 c0		 test	 eax, eax
  00055	74 03		 je	 SHORT $LN17@scalar
$LN16@scalar:
  00057	8b 40 20	 mov	 eax, DWORD PTR [eax+32]
$LN17@scalar:
; File D:\git\src\IBK\IBK_DRFN\ProjSrc\SrcChartEx\ChartAddIn\ChartDataListViewerAddIn\ChartDataListViewerAddIn\ChartDataListViewerAddInImp.cpp

; 44   : 		if( IsWindow( m_pDataListViewMngWnd->GetSafeHwnd())) 

  0005a	50		 push	 eax
  0005b	ff 15 00 00 00
	00		 call	 DWORD PTR __imp__IsWindow@4
  00061	85 c0		 test	 eax, eax
  00063	74 08		 je	 SHORT $LN9@scalar

; 45   : 			m_pDataListViewMngWnd->DestroyWindow();

  00065	8b 4e 40	 mov	 ecx, DWORD PTR [esi+64]
  00068	8b 01		 mov	 eax, DWORD PTR [ecx]
  0006a	ff 50 68	 call	 DWORD PTR [eax+104]
$LN9@scalar:

; 46   : 		delete m_pDataListViewMngWnd;

  0006d	8b 4e 40	 mov	 ecx, DWORD PTR [esi+64]
  00070	85 c9		 test	 ecx, ecx
  00072	74 07		 je	 SHORT $LN11@scalar
  00074	8b 01		 mov	 eax, DWORD PTR [ecx]
  00076	6a 01		 push	 1
  00078	ff 50 04	 call	 DWORD PTR [eax+4]
$LN11@scalar:

; 47   : 		m_pDataListViewMngWnd = NULL;
; 48   : 	}

  0007b	8d 4d ec	 lea	 ecx, DWORD PTR __ctlState$2[ebp]
  0007e	c7 46 40 00 00
	00 00		 mov	 DWORD PTR [esi+64], 0
  00085	e8 00 00 00 00	 call	 ??1AFX_MAINTAIN_STATE2@@QAE@XZ ; AFX_MAINTAIN_STATE2::~AFX_MAINTAIN_STATE2
$LN8@scalar:

; 49   : //	if( m_pDataListViewer)
; 50   : //	{
; 51   : //		AFX_MANAGE_STATE(AfxGetStaticModuleState());
; 52   : //		//AfxSetResourceHandle(ML_LANGUAGE_RES);
; 53   : //
; 54   : //		 if( IsWindow( m_pDataListViewer->GetSafeHwnd())) m_pDataListViewer->DestroyWindow();
; 55   : //		 delete m_pDataListViewer;
; 56   : //		m_pDataListViewer = NULL;
; 57   : //	}
; 58   : 
; 59   : 	//20081025 이문수 <<
; 60   : }

  0008a	8b ce		 mov	 ecx, esi
  0008c	e8 00 00 00 00	 call	 ??1CChartAddInBase134221@@MAE@XZ ; CChartAddInBase134221::~CChartAddInBase134221
  00091	8b 45 08	 mov	 eax, DWORD PTR ___flags$[ebp]
  00094	a8 01		 test	 al, 1
  00096	74 2c		 je	 SHORT $LN20@scalar
  00098	a8 04		 test	 al, 4
  0009a	75 1d		 jne	 SHORT $LN3@scalar
; File C:\Program Files (x86)\Microsoft Visual Studio\2019\Community\VC\Tools\MSVC\14.29.30133\atlmfc\include\afx.inl

; 112  : 	{ ::operator delete(p); }

  0009c	56		 push	 esi
  0009d	e8 00 00 00 00	 call	 ??3@YAXPAX@Z		; operator delete
  000a2	83 c4 04	 add	 esp, 4
  000a5	8b c6		 mov	 eax, esi
  000a7	8b 4d f4	 mov	 ecx, DWORD PTR __$EHRec$[ebp]
  000aa	64 89 0d 00 00
	00 00		 mov	 DWORD PTR fs:0, ecx
  000b1	59		 pop	 ecx
  000b2	5e		 pop	 esi
  000b3	8b e5		 mov	 esp, ebp
  000b5	5d		 pop	 ebp
  000b6	c2 04 00	 ret	 4
$LN3@scalar:
  000b9	6a 44		 push	 68			; 00000044H
  000bb	56		 push	 esi
  000bc	e8 00 00 00 00	 call	 ?__global_delete@@YAXPAXI@Z ; __global_delete
  000c1	83 c4 08	 add	 esp, 8
$LN20@scalar:
  000c4	8b c6		 mov	 eax, esi
  000c6	8b 4d f4	 mov	 ecx, DWORD PTR __$EHRec$[ebp]
  000c9	64 89 0d 00 00
	00 00		 mov	 DWORD PTR fs:0, ecx
  000d0	59		 pop	 ecx
  000d1	5e		 pop	 esi
  000d2	8b e5		 mov	 esp, ebp
  000d4	5d		 pop	 ebp
  000d5	c2 04 00	 ret	 4
  000d8	cc		 int	 3
  000d9	cc		 int	 3
  000da	cc		 int	 3
  000db	cc		 int	 3
  000dc	cc		 int	 3
_TEXT	ENDS
;	COMDAT text$x
text$x	SEGMENT
__ehhandler$??_GCChartDataListViewerAddInImp@@UAEPAXI@Z:
  00000	90		 npad	 1
  00001	90		 npad	 1
  00002	8b 54 24 08	 mov	 edx, DWORD PTR [esp+8]
  00006	8d 42 0c	 lea	 eax, DWORD PTR [edx+12]
  00009	8b 4a f0	 mov	 ecx, DWORD PTR [edx-16]
  0000c	33 c8		 xor	 ecx, eax
  0000e	e8 00 00 00 00	 call	 @__security_check_cookie@4
  00013	b8 00 00 00 00	 mov	 eax, OFFSET __ehfuncinfo$??_GCChartDataListViewerAddInImp@@UAEPAXI@Z
  00018	e9 00 00 00 00	 jmp	 ___CxxFrameHandler3
text$x	ENDS
??_GCChartDataListViewerAddInImp@@UAEPAXI@Z ENDP	; CChartDataListViewerAddInImp::`scalar deleting destructor'
; Function compile flags: /Ogtp
; File D:\git\src\IBK\IBK_DRFN\ProjSrc\SrcChartEx\ChartAddIn\ChartDataListViewerAddIn\ChartDataListViewerAddIn\ChartDataListViewerAddInImp.cpp
;	COMDAT ?OnAddInToolCommand@CChartDataListViewerAddInImp@@MAEHW4EAICommandType@@PBDJ@Z
_TEXT	SEGMENT
_p_eCommandID$ = 8					; size = 4
_p_szParam$ = 12					; size = 4
_p_lParam$ = 16						; size = 4
?OnAddInToolCommand@CChartDataListViewerAddInImp@@MAEHW4EAICommandType@@PBDJ@Z PROC ; CChartDataListViewerAddInImp::OnAddInToolCommand, COMDAT
; _this$ = ecx

; 153  : {

  00000	55		 push	 ebp
  00001	8b ec		 mov	 ebp, esp

; 154  : 	if( EAI_USER_CHANGE_TIMEDIFF == p_eCommandID)

  00003	83 7d 08 3d	 cmp	 DWORD PTR _p_eCommandID$[ebp], 61 ; 0000003dH
  00007	56		 push	 esi
  00008	8b f1		 mov	 esi, ecx
  0000a	75 42		 jne	 SHORT $LN15@OnAddInToo

; 155  : 	{
; 156  : 		if(m_pDataListViewMngWnd && IsWindow(m_pDataListViewMngWnd->GetSafeHwnd()))

  0000c	8b 46 38	 mov	 eax, DWORD PTR [esi+56]
  0000f	85 c0		 test	 eax, eax
  00011	74 3b		 je	 SHORT $LN15@OnAddInToo
  00013	ff 70 20	 push	 DWORD PTR [eax+32]
  00016	ff 15 00 00 00
	00		 call	 DWORD PTR __imp__IsWindow@4
  0001c	85 c0		 test	 eax, eax
  0001e	74 2e		 je	 SHORT $LN15@OnAddInToo

; 157  : 		{
; 158  : 			if(m_pDataListViewMngWnd->m_pDataListViewer && IsWindow(m_pDataListViewMngWnd->m_pDataListViewer->GetSafeHwnd()))

  00020	8b 46 38	 mov	 eax, DWORD PTR [esi+56]
  00023	8b 80 88 00 00
	00		 mov	 eax, DWORD PTR [eax+136]
  00029	85 c0		 test	 eax, eax
  0002b	74 21		 je	 SHORT $LN15@OnAddInToo
  0002d	ff 70 20	 push	 DWORD PTR [eax+32]
  00030	ff 15 00 00 00
	00		 call	 DWORD PTR __imp__IsWindow@4
  00036	85 c0		 test	 eax, eax
  00038	74 14		 je	 SHORT $LN15@OnAddInToo

; 159  : 			{
; 160  : 				if(m_pDataListViewMngWnd->IsUpdateReady())

  0003a	8b 4e 38	 mov	 ecx, DWORD PTR [esi+56]
  0003d	e8 00 00 00 00	 call	 ?IsUpdateReady@CDataListViewMngWnd@@QAEHXZ ; CDataListViewMngWnd::IsUpdateReady
  00042	85 c0		 test	 eax, eax
  00044	74 08		 je	 SHORT $LN15@OnAddInToo

; 161  : 					m_pDataListViewMngWnd->Update();

  00046	8b 4e 38	 mov	 ecx, DWORD PTR [esi+56]
  00049	e8 00 00 00 00	 call	 ?Update@CDataListViewMngWnd@@QAEXXZ ; CDataListViewMngWnd::Update
$LN15@OnAddInToo:

; 162  : 			}
; 163  : 		}
; 164  : 		return FALSE;
; 165  : 	}
; 166  : 	
; 167  : 	return FALSE;	
; 168  : }

  0004e	33 c0		 xor	 eax, eax
  00050	5e		 pop	 esi
  00051	5d		 pop	 ebp
  00052	c2 0c 00	 ret	 12			; 0000000cH
?OnAddInToolCommand@CChartDataListViewerAddInImp@@MAEHW4EAICommandType@@PBDJ@Z ENDP ; CChartDataListViewerAddInImp::OnAddInToolCommand
_TEXT	ENDS
; Function compile flags: /Ogtp
; File D:\git\src\IBK\IBK_DRFN\ProjSrc\SrcChartEx\ChartAddIn\ChartDataListViewerAddIn\ChartDataListViewerAddIn\ChartDataListViewerAddInImp.cpp
;	COMDAT ?OnCmdMsg@CChartDataListViewerAddInImp@@MAEHIHPAUICmdUI134221@@@Z
_TEXT	SEGMENT
_nID$ = 8						; size = 4
_nCode$ = 12						; size = 4
_p_pICmdUI$ = 16					; size = 4
?OnCmdMsg@CChartDataListViewerAddInImp@@MAEHIHPAUICmdUI134221@@@Z PROC ; CChartDataListViewerAddInImp::OnCmdMsg, COMDAT
; _this$ = ecx

; 90   : {

  00000	55		 push	 ebp
  00001	8b ec		 mov	 ebp, esp

; 91   : 	if( nID != ID_DLV_SHOW_DATA_LIST_VIEWER) return FALSE;

  00003	81 7d 08 29 a0
	00 00		 cmp	 DWORD PTR _nID$[ebp], 41001 ; 0000a029H
  0000a	75 35		 jne	 SHORT $LN7@OnCmdMsg

; 92   : 
; 93   : 	if( CN_UPDATE_COMMAND_UI == nCode)

  0000c	8b 45 0c	 mov	 eax, DWORD PTR _nCode$[ebp]
  0000f	83 f8 ff	 cmp	 eax, -1
  00012	75 17		 jne	 SHORT $LN3@OnCmdMsg

; 94   : 	{
; 95   : 		if( !p_pICmdUI) return FALSE;

  00014	8b 4d 10	 mov	 ecx, DWORD PTR _p_pICmdUI$[ebp]
  00017	85 c9		 test	 ecx, ecx
  00019	74 26		 je	 SHORT $LN7@OnCmdMsg

; 96   : 		p_pICmdUI->Enable( TRUE);

  0001b	8b 01		 mov	 eax, DWORD PTR [ecx]
  0001d	6a 01		 push	 1
  0001f	ff 50 10	 call	 DWORD PTR [eax+16]
$LN5@OnCmdMsg:

; 104  : 	}
; 105  : 
; 106  : 	return TRUE;
; 107  : }

  00022	b8 01 00 00 00	 mov	 eax, 1
  00027	5d		 pop	 ebp
  00028	c2 0c 00	 ret	 12			; 0000000cH
$LN3@OnCmdMsg:

; 97   : 		return TRUE;
; 98   : 	}
; 99   : 
; 100  : 	if( CN_COMMAND == nCode)

  0002b	85 c0		 test	 eax, eax
  0002d	75 f3		 jne	 SHORT $LN5@OnCmdMsg

; 101  : 	{
; 102  : 		OnToolCommand( CToolOptionInfo::T_DATALIST_REPORT, 1);

  0002f	8b 01		 mov	 eax, DWORD PTR [ecx]
  00031	6a 01		 push	 1
  00033	6a 03		 push	 3
  00035	ff 50 78	 call	 DWORD PTR [eax+120]

; 103  : 		return TRUE;

  00038	b8 01 00 00 00	 mov	 eax, 1

; 104  : 	}
; 105  : 
; 106  : 	return TRUE;
; 107  : }

  0003d	5d		 pop	 ebp
  0003e	c2 0c 00	 ret	 12			; 0000000cH
$LN7@OnCmdMsg:

; 94   : 	{
; 95   : 		if( !p_pICmdUI) return FALSE;

  00041	33 c0		 xor	 eax, eax

; 104  : 	}
; 105  : 
; 106  : 	return TRUE;
; 107  : }

  00043	5d		 pop	 ebp
  00044	c2 0c 00	 ret	 12			; 0000000cH
?OnCmdMsg@CChartDataListViewerAddInImp@@MAEHIHPAUICmdUI134221@@@Z ENDP ; CChartDataListViewerAddInImp::OnCmdMsg
_TEXT	ENDS
; Function compile flags: /Ogtp
; File D:\git\src\IBK\IBK_DRFN\ProjSrc\SrcChartEx\ChartAddIn\ChartDataListViewerAddIn\ChartDataListViewerAddIn\ChartDataListViewerAddInImp.cpp
; File C:\Program Files (x86)\Microsoft Visual Studio\2019\Community\VC\Tools\MSVC\14.29.30133\atlmfc\include\afxwin2.inl
; File D:\git\src\IBK\IBK_DRFN\ProjSrc\SrcChartEx\ChartAddIn\ChartDataListViewerAddIn\ChartDataListViewerAddIn\ChartDataListViewerAddInImp.cpp
; File C:\Program Files (x86)\Microsoft Visual Studio\2019\Community\VC\Tools\MSVC\14.29.30133\atlmfc\include\afxwin2.inl
; File D:\git\src\IBK\IBK_DRFN\ProjSrc\SrcChartEx\ChartAddIn\ChartDataListViewerAddIn\ChartDataListViewerAddIn\ChartDataListViewerAddInImp.cpp
;	COMDAT ?OnRealPacketEnd@CChartDataListViewerAddInImp@@MAEXPBD@Z
_TEXT	SEGMENT
_p_szRQ$ = 8						; size = 4
?OnRealPacketEnd@CChartDataListViewerAddInImp@@MAEXPBD@Z PROC ; CChartDataListViewerAddInImp::OnRealPacketEnd, COMDAT
; _this$ = ecx

; 239  : {

  00000	56		 push	 esi
  00001	8b f1		 mov	 esi, ecx

; 240  : 	//20081025 이문수 >>
; 241  : 	if( !m_pDataListViewMngWnd) return;

  00003	8b 46 38	 mov	 eax, DWORD PTR [esi+56]
  00006	85 c0		 test	 eax, eax
  00008	74 39		 je	 SHORT $LN7@OnRealPack
; File C:\Program Files (x86)\Microsoft Visual Studio\2019\Community\VC\Tools\MSVC\14.29.30133\atlmfc\include\afxwin2.inl

; 25   : 	{ return this == NULL ? NULL : m_hWnd; }

  0000a	8b 40 20	 mov	 eax, DWORD PTR [eax+32]
; File D:\git\src\IBK\IBK_DRFN\ProjSrc\SrcChartEx\ChartAddIn\ChartDataListViewerAddIn\ChartDataListViewerAddIn\ChartDataListViewerAddInImp.cpp

; 244  : 	if( !hWnd || !IsWindow( hWnd)) return;

  0000d	85 c0		 test	 eax, eax
  0000f	74 32		 je	 SHORT $LN7@OnRealPack
  00011	50		 push	 eax
  00012	ff 15 00 00 00
	00		 call	 DWORD PTR __imp__IsWindow@4
  00018	85 c0		 test	 eax, eax
  0001a	74 27		 je	 SHORT $LN7@OnRealPack

; 245  : 	if( !m_pDataListViewMngWnd->m_pDataListViewer) return;

  0001c	8b 46 38	 mov	 eax, DWORD PTR [esi+56]
  0001f	8b 80 88 00 00
	00		 mov	 eax, DWORD PTR [eax+136]
  00025	85 c0		 test	 eax, eax
  00027	74 1a		 je	 SHORT $LN7@OnRealPack
; File C:\Program Files (x86)\Microsoft Visual Studio\2019\Community\VC\Tools\MSVC\14.29.30133\atlmfc\include\afxwin2.inl

; 25   : 	{ return this == NULL ? NULL : m_hWnd; }

  00029	8b 40 20	 mov	 eax, DWORD PTR [eax+32]
; File D:\git\src\IBK\IBK_DRFN\ProjSrc\SrcChartEx\ChartAddIn\ChartDataListViewerAddIn\ChartDataListViewerAddIn\ChartDataListViewerAddInImp.cpp

; 247  : 	if(!hWnd || !IsWindow(hWnd)) return;

  0002c	85 c0		 test	 eax, eax
  0002e	74 13		 je	 SHORT $LN7@OnRealPack
  00030	50		 push	 eax
  00031	ff 15 00 00 00
	00		 call	 DWORD PTR __imp__IsWindow@4
  00037	85 c0		 test	 eax, eax
  00039	74 08		 je	 SHORT $LN7@OnRealPack

; 248  : 
; 249  : 	m_pDataListViewMngWnd->RealUpdate();		

  0003b	8b 4e 38	 mov	 ecx, DWORD PTR [esi+56]
  0003e	e8 00 00 00 00	 call	 ?RealUpdate@CDataListViewMngWnd@@QAEXXZ ; CDataListViewMngWnd::RealUpdate
$LN7@OnRealPack:

; 250  : }

  00043	5e		 pop	 esi
  00044	c2 04 00	 ret	 4
?OnRealPacketEnd@CChartDataListViewerAddInImp@@MAEXPBD@Z ENDP ; CChartDataListViewerAddInImp::OnRealPacketEnd
_TEXT	ENDS
; Function compile flags: /Ogtp
; File D:\git\src\IBK\IBK_DRFN\ProjSrc\SrcChartEx\ChartAddIn\ChartDataListViewerAddIn\ChartDataListViewerAddIn\ChartDataListViewerAddInImp.cpp
; File C:\Program Files (x86)\Microsoft Visual Studio\2019\Community\VC\Tools\MSVC\14.29.30133\atlmfc\include\afxwin2.inl
; File D:\git\src\IBK\IBK_DRFN\ProjSrc\SrcChartEx\ChartAddIn\ChartDataListViewerAddIn\ChartDataListViewerAddIn\ChartDataListViewerAddInImp.cpp
; File C:\Program Files (x86)\Microsoft Visual Studio\2019\Community\VC\Tools\MSVC\14.29.30133\atlmfc\include\afxwin2.inl
; File D:\git\src\IBK\IBK_DRFN\ProjSrc\SrcChartEx\ChartAddIn\ChartDataListViewerAddIn\ChartDataListViewerAddIn\ChartDataListViewerAddInImp.cpp
;	COMDAT ?OnPacketDataMultiItem@CChartDataListViewerAddInImp@@MAEXPBD0H@Z
_TEXT	SEGMENT
_lpszRQ$ = 8						; size = 4
_p_szPacketNames$ = 12					; size = 4
_p_bWithReset$ = 16					; size = 4
?OnPacketDataMultiItem@CChartDataListViewerAddInImp@@MAEXPBD0H@Z PROC ; CChartDataListViewerAddInImp::OnPacketDataMultiItem, COMDAT
; _this$ = ecx

; 223  : {

  00000	56		 push	 esi
  00001	8b f1		 mov	 esi, ecx

; 224  : 	//20081025 이문수 >>
; 225  : 	if( !m_pDataListViewMngWnd) return;

  00003	8b 46 38	 mov	 eax, DWORD PTR [esi+56]
  00006	85 c0		 test	 eax, eax
  00008	74 4b		 je	 SHORT $LN7@OnPacketDa
; File C:\Program Files (x86)\Microsoft Visual Studio\2019\Community\VC\Tools\MSVC\14.29.30133\atlmfc\include\afxwin2.inl

; 25   : 	{ return this == NULL ? NULL : m_hWnd; }

  0000a	8b 40 20	 mov	 eax, DWORD PTR [eax+32]
; File D:\git\src\IBK\IBK_DRFN\ProjSrc\SrcChartEx\ChartAddIn\ChartDataListViewerAddIn\ChartDataListViewerAddIn\ChartDataListViewerAddInImp.cpp

; 228  : 	if( !hWnd || !IsWindow( hWnd)) return;

  0000d	85 c0		 test	 eax, eax
  0000f	74 44		 je	 SHORT $LN7@OnPacketDa
  00011	50		 push	 eax
  00012	ff 15 00 00 00
	00		 call	 DWORD PTR __imp__IsWindow@4
  00018	85 c0		 test	 eax, eax
  0001a	74 39		 je	 SHORT $LN7@OnPacketDa

; 229  : 	if( !m_pDataListViewMngWnd->m_pDataListViewer) return;

  0001c	8b 46 38	 mov	 eax, DWORD PTR [esi+56]
  0001f	8b 80 88 00 00
	00		 mov	 eax, DWORD PTR [eax+136]
  00025	85 c0		 test	 eax, eax
  00027	74 2c		 je	 SHORT $LN7@OnPacketDa
; File C:\Program Files (x86)\Microsoft Visual Studio\2019\Community\VC\Tools\MSVC\14.29.30133\atlmfc\include\afxwin2.inl

; 25   : 	{ return this == NULL ? NULL : m_hWnd; }

  00029	8b 40 20	 mov	 eax, DWORD PTR [eax+32]
; File D:\git\src\IBK\IBK_DRFN\ProjSrc\SrcChartEx\ChartAddIn\ChartDataListViewerAddIn\ChartDataListViewerAddIn\ChartDataListViewerAddInImp.cpp

; 231  : 	if(!hWnd || !IsWindow(hWnd)) return;

  0002c	85 c0		 test	 eax, eax
  0002e	74 25		 je	 SHORT $LN7@OnPacketDa
  00030	50		 push	 eax
  00031	ff 15 00 00 00
	00		 call	 DWORD PTR __imp__IsWindow@4
  00037	85 c0		 test	 eax, eax
  00039	74 1a		 je	 SHORT $LN7@OnPacketDa

; 232  : 
; 233  : 	// (2007/1/18 - Seung-Won, Bae) Check Calculation waiting.
; 234  : 	if( m_pIChartOCX->IsEnableIndicatorCalculation()) OnToolCommand( CToolOptionInfo::T_DATALIST_REPORT, 1);

  0003b	8b 4e 04	 mov	 ecx, DWORD PTR [esi+4]
  0003e	8b 01		 mov	 eax, DWORD PTR [ecx]
  00040	ff 90 e0 00 00
	00		 call	 DWORD PTR [eax+224]
  00046	85 c0		 test	 eax, eax
  00048	74 0b		 je	 SHORT $LN7@OnPacketDa
  0004a	8b 06		 mov	 eax, DWORD PTR [esi]
  0004c	8b ce		 mov	 ecx, esi
  0004e	6a 01		 push	 1
  00050	6a 03		 push	 3
  00052	ff 50 78	 call	 DWORD PTR [eax+120]
$LN7@OnPacketDa:

; 235  : }

  00055	5e		 pop	 esi
  00056	c2 0c 00	 ret	 12			; 0000000cH
?OnPacketDataMultiItem@CChartDataListViewerAddInImp@@MAEXPBD0H@Z ENDP ; CChartDataListViewerAddInImp::OnPacketDataMultiItem
_TEXT	ENDS
; Function compile flags: /Ogtp
; File D:\git\src\IBK\IBK_DRFN\ProjSrc\SrcChartEx\ChartAddIn\ChartDataListViewerAddIn\ChartDataListViewerAddIn\ChartDataListViewerAddInImp.cpp
; File C:\Program Files (x86)\Microsoft Visual Studio\2019\Community\VC\Tools\MSVC\14.29.30133\atlmfc\include\afx.inl
; File D:\git\src\IBK\IBK_DRFN\ProjSrc\SrcChartEx\ChartAddIn\ChartDataListViewerAddIn\ChartDataListViewerAddIn\ChartDataListViewerAddInImp.cpp
;	COMDAT ?OnToolCommand@CChartDataListViewerAddInImp@@MAEXHH@Z
_TEXT	SEGMENT
__ctlState$ = -20					; size = 8
__$EHRec$ = -12						; size = 12
_p_nToolType$ = 8					; size = 4
$T2 = 12						; size = 4
_p_nCmdOption$ = 12					; size = 4
?OnToolCommand@CChartDataListViewerAddInImp@@MAEXHH@Z PROC ; CChartDataListViewerAddInImp::OnToolCommand, COMDAT
; _this$ = ecx

; 110  : {

  00000	55		 push	 ebp
  00001	8b ec		 mov	 ebp, esp
  00003	6a ff		 push	 -1
  00005	68 00 00 00 00	 push	 __ehhandler$?OnToolCommand@CChartDataListViewerAddInImp@@MAEXHH@Z
  0000a	64 a1 00 00 00
	00		 mov	 eax, DWORD PTR fs:0
  00010	50		 push	 eax
  00011	83 ec 08	 sub	 esp, 8
  00014	56		 push	 esi
  00015	a1 00 00 00 00	 mov	 eax, DWORD PTR ___security_cookie
  0001a	33 c5		 xor	 eax, ebp
  0001c	50		 push	 eax
  0001d	8d 45 f4	 lea	 eax, DWORD PTR __$EHRec$[ebp]
  00020	64 a3 00 00 00
	00		 mov	 DWORD PTR fs:0, eax
  00026	8b f1		 mov	 esi, ecx

; 111  : 	if( CToolOptionInfo::T_DATALIST_REPORT != p_nToolType) return;

  00028	83 7d 08 03	 cmp	 DWORD PTR _p_nToolType$[ebp], 3
  0002c	0f 85 fb 00 00
	00		 jne	 $LN1@OnToolComm

; 112  : 
; 113  : 	// (2006/12/29 - Seung-Won, Bae) Support modaless
; 114  : 	if( 0 == p_nCmdOption && (!m_pDataListViewMngWnd || !(m_pDataListViewMngWnd->m_pDataListViewer))) return;

  00032	83 7d 0c 00	 cmp	 DWORD PTR _p_nCmdOption$[ebp], 0
  00036	75 18		 jne	 SHORT $LN33@OnToolComm
  00038	8b 46 38	 mov	 eax, DWORD PTR [esi+56]
  0003b	85 c0		 test	 eax, eax
  0003d	0f 84 ea 00 00
	00		 je	 $LN1@OnToolComm
  00043	83 b8 88 00 00
	00 00		 cmp	 DWORD PTR [eax+136], 0
  0004a	0f 84 dd 00 00
	00		 je	 $LN1@OnToolComm
$LN33@OnToolComm:

; 115  : 
; 116  : 	// (2008/2/22 - Seung-Won, Bae) Do not skip to use m_pChartCWnd
; 117  : 	AFX_MANAGE_STATE(AfxGetStaticModuleState());

  00050	e8 00 00 00 00	 call	 ?AfxGetStaticModuleState@@YGPAVAFX_MODULE_STATE@@XZ ; AfxGetStaticModuleState
  00055	50		 push	 eax
  00056	8d 4d ec	 lea	 ecx, DWORD PTR __ctlState$[ebp]
  00059	e8 00 00 00 00	 call	 ??0AFX_MAINTAIN_STATE2@@QAE@PAVAFX_MODULE_STATE@@@Z ; AFX_MAINTAIN_STATE2::AFX_MAINTAIN_STATE2

; 118  : 
; 119  : 	//20081025 이문수 >>
; 120  : 	if( 0 == p_nCmdOption) 

  0005e	83 7d 0c 00	 cmp	 DWORD PTR _p_nCmdOption$[ebp], 0
  00062	8b 46 38	 mov	 eax, DWORD PTR [esi+56]
  00065	c7 45 fc 00 00
	00 00		 mov	 DWORD PTR __$EHRec$[ebp+8], 0
  0006c	75 37		 jne	 SHORT $LN5@OnToolComm

; 121  : 	{
; 122  : 		if(m_pDataListViewMngWnd)

  0006e	85 c0		 test	 eax, eax
  00070	0f 84 af 00 00
	00		 je	 $LN10@OnToolComm

; 123  : 		{
; 124  : 			if(IsWindow(m_pDataListViewMngWnd->GetSafeHwnd())) 

  00076	ff 70 20	 push	 DWORD PTR [eax+32]
  00079	ff 15 00 00 00
	00		 call	 DWORD PTR __imp__IsWindow@4
  0007f	85 c0		 test	 eax, eax
  00081	74 08		 je	 SHORT $LN7@OnToolComm

; 125  : 				m_pDataListViewMngWnd->DestroyWindow();

  00083	8b 4e 38	 mov	 ecx, DWORD PTR [esi+56]
  00086	8b 01		 mov	 eax, DWORD PTR [ecx]
  00088	ff 50 68	 call	 DWORD PTR [eax+104]
$LN7@OnToolComm:

; 126  : 			delete m_pDataListViewMngWnd;

  0008b	8b 4e 38	 mov	 ecx, DWORD PTR [esi+56]
  0008e	85 c9		 test	 ecx, ecx
  00090	74 07		 je	 SHORT $LN12@OnToolComm
  00092	8b 01		 mov	 eax, DWORD PTR [ecx]
  00094	6a 01		 push	 1
  00096	ff 50 04	 call	 DWORD PTR [eax+4]
$LN12@OnToolComm:

; 127  : 			m_pDataListViewMngWnd = NULL;

  00099	c7 46 38 00 00
	00 00		 mov	 DWORD PTR [esi+56], 0
  000a0	e9 80 00 00 00	 jmp	 $LN10@OnToolComm
$LN5@OnToolComm:

; 128  : 		}
; 129  : 		return;
; 130  : 	}
; 131  : 	
; 132  : 	if(!m_pDataListViewMngWnd)

  000a5	85 c0		 test	 eax, eax
  000a7	75 67		 jne	 SHORT $LN36@OnToolComm
; File C:\Program Files (x86)\Microsoft Visual Studio\2019\Community\VC\Tools\MSVC\14.29.30133\atlmfc\include\afx.inl

; 116  : 	{ return ::operator new(nSize); }

  000a9	68 90 00 00 00	 push	 144			; 00000090H
  000ae	e8 00 00 00 00	 call	 ??2@YAPAXI@Z		; operator new
  000b3	83 c4 04	 add	 esp, 4
; File D:\git\src\IBK\IBK_DRFN\ProjSrc\SrcChartEx\ChartAddIn\ChartDataListViewerAddIn\ChartDataListViewerAddIn\ChartDataListViewerAddInImp.cpp

; 134  : 		m_pDataListViewMngWnd = new CDataListViewMngWnd;

  000b6	89 45 0c	 mov	 DWORD PTR $T2[ebp], eax
  000b9	c6 45 fc 01	 mov	 BYTE PTR __$EHRec$[ebp+8], 1
  000bd	85 c0		 test	 eax, eax
  000bf	74 0b		 je	 SHORT $LN14@OnToolComm
  000c1	8b c8		 mov	 ecx, eax
  000c3	e8 00 00 00 00	 call	 ??0CDataListViewMngWnd@@QAE@XZ ; CDataListViewMngWnd::CDataListViewMngWnd
  000c8	8b c8		 mov	 ecx, eax
  000ca	eb 02		 jmp	 SHORT $LN15@OnToolComm
$LN14@OnToolComm:
  000cc	33 c9		 xor	 ecx, ecx
$LN15@OnToolComm:
  000ce	89 4e 38	 mov	 DWORD PTR [esi+56], ecx

; 135  : 		if(!m_pDataListViewMngWnd->Create(m_pChartCWnd, 2000))

  000d1	8b 01		 mov	 eax, DWORD PTR [ecx]
  000d3	68 d0 07 00 00	 push	 2000			; 000007d0H
  000d8	ff 76 08	 push	 DWORD PTR [esi+8]
  000db	c6 45 fc 00	 mov	 BYTE PTR __$EHRec$[ebp+8], 0
  000df	ff 90 6c 01 00
	00		 call	 DWORD PTR [eax+364]
  000e5	8b 4e 38	 mov	 ecx, DWORD PTR [esi+56]
  000e8	85 c0		 test	 eax, eax
  000ea	75 14		 jne	 SHORT $LN9@OnToolComm

; 136  : 		{
; 137  : 			delete m_pDataListViewMngWnd;

  000ec	85 c9		 test	 ecx, ecx
  000ee	74 07		 je	 SHORT $LN16@OnToolComm
  000f0	8b 01		 mov	 eax, DWORD PTR [ecx]
  000f2	6a 01		 push	 1
  000f4	ff 50 04	 call	 DWORD PTR [eax+4]
$LN16@OnToolComm:

; 138  : 			m_pDataListViewMngWnd = NULL;

  000f7	c7 46 38 00 00
	00 00		 mov	 DWORD PTR [esi+56], 0
  000fe	33 c9		 xor	 ecx, ecx
$LN9@OnToolComm:

; 139  : 		}
; 140  : 
; 141  : 		m_pDataListViewMngWnd->SetAddInImp(this);

  00100	8d 46 f8	 lea	 eax, DWORD PTR [esi-8]
  00103	50		 push	 eax
  00104	e8 00 00 00 00	 call	 ?SetAddInImp@CDataListViewMngWnd@@QAEXPAVCChartDataListViewerAddInImp@@@Z ; CDataListViewMngWnd::SetAddInImp
  00109	8b 46 38	 mov	 eax, DWORD PTR [esi+56]

; 142  : 	}
; 143  : 
; 144  : 	if(m_pDataListViewMngWnd && IsWindow(m_pDataListViewMngWnd->GetSafeHwnd()))

  0010c	85 c0		 test	 eax, eax
  0010e	74 15		 je	 SHORT $LN10@OnToolComm
$LN36@OnToolComm:
  00110	ff 70 20	 push	 DWORD PTR [eax+32]
  00113	ff 15 00 00 00
	00		 call	 DWORD PTR __imp__IsWindow@4
  00119	85 c0		 test	 eax, eax
  0011b	74 08		 je	 SHORT $LN10@OnToolComm

; 145  : 	{
; 146  : 		m_pDataListViewMngWnd->CreateDataListView();

  0011d	8b 4e 38	 mov	 ecx, DWORD PTR [esi+56]
  00120	e8 00 00 00 00	 call	 ?CreateDataListView@CDataListViewMngWnd@@QAEXXZ ; CDataListViewMngWnd::CreateDataListView
$LN10@OnToolComm:

; 147  : 	}
; 148  : 	return;

  00125	8d 4d ec	 lea	 ecx, DWORD PTR __ctlState$[ebp]
  00128	e8 00 00 00 00	 call	 ??1AFX_MAINTAIN_STATE2@@QAE@XZ ; AFX_MAINTAIN_STATE2::~AFX_MAINTAIN_STATE2
$LN1@OnToolComm:

; 149  : }

  0012d	8b 4d f4	 mov	 ecx, DWORD PTR __$EHRec$[ebp]
  00130	64 89 0d 00 00
	00 00		 mov	 DWORD PTR fs:0, ecx
  00137	59		 pop	 ecx
  00138	5e		 pop	 esi
  00139	8b e5		 mov	 esp, ebp
  0013b	5d		 pop	 ebp
  0013c	c2 08 00	 ret	 8
_TEXT	ENDS
;	COMDAT text$x
text$x	SEGMENT
__unwindfunclet$?OnToolCommand@CChartDataListViewerAddInImp@@MAEXHH@Z$0:
  00000	8d 4d ec	 lea	 ecx, DWORD PTR __ctlState$[ebp]
  00003	e9 00 00 00 00	 jmp	 ??1AFX_MAINTAIN_STATE2@@QAE@XZ ; AFX_MAINTAIN_STATE2::~AFX_MAINTAIN_STATE2
__unwindfunclet$?OnToolCommand@CChartDataListViewerAddInImp@@MAEXHH@Z$1:
  00008	8b 45 0c	 mov	 eax, DWORD PTR $T2[ebp]
  0000b	50		 push	 eax
  0000c	e8 00 00 00 00	 call	 ??3CObject@@SGXPAX@Z	; CObject::operator delete
  00011	c3		 ret	 0
  00012	cc		 int	 3
  00013	cc		 int	 3
  00014	cc		 int	 3
  00015	cc		 int	 3
  00016	cc		 int	 3
__ehhandler$?OnToolCommand@CChartDataListViewerAddInImp@@MAEXHH@Z:
  00017	90		 npad	 1
  00018	90		 npad	 1
  00019	8b 54 24 08	 mov	 edx, DWORD PTR [esp+8]
  0001d	8d 42 0c	 lea	 eax, DWORD PTR [edx+12]
  00020	8b 4a f0	 mov	 ecx, DWORD PTR [edx-16]
  00023	33 c8		 xor	 ecx, eax
  00025	e8 00 00 00 00	 call	 @__security_check_cookie@4
  0002a	b8 00 00 00 00	 mov	 eax, OFFSET __ehfuncinfo$?OnToolCommand@CChartDataListViewerAddInImp@@MAEXHH@Z
  0002f	e9 00 00 00 00	 jmp	 ___CxxFrameHandler3
text$x	ENDS
?OnToolCommand@CChartDataListViewerAddInImp@@MAEXHH@Z ENDP ; CChartDataListViewerAddInImp::OnToolCommand
; Function compile flags: /Ogtp
; File D:\git\src\IBK\IBK_DRFN\ProjSrc\SrcChartEx\ChartAddIn\ChartDataListViewerAddIn\ChartDataListViewerAddIn\ChartDataListViewerAddInImp.cpp
;	COMDAT ?OnGraphDeleted@CChartDataListViewerAddInImp@@MAEXPBD0@Z
_TEXT	SEGMENT
_p_szGraphName$ = 8					; size = 4
_p_szIndicatorName$ = 12				; size = 4
?OnGraphDeleted@CChartDataListViewerAddInImp@@MAEXPBD0@Z PROC ; CChartDataListViewerAddInImp::OnGraphDeleted, COMDAT
; _this$ = ecx

; 209  : {

  00000	56		 push	 esi
  00001	8b f1		 mov	 esi, ecx

; 210  : 	if(m_pDataListViewMngWnd && IsWindow(m_pDataListViewMngWnd->GetSafeHwnd()))

  00003	8b 46 38	 mov	 eax, DWORD PTR [esi+56]
  00006	85 c0		 test	 eax, eax
  00008	74 3b		 je	 SHORT $LN4@OnGraphDel
  0000a	ff 70 20	 push	 DWORD PTR [eax+32]
  0000d	ff 15 00 00 00
	00		 call	 DWORD PTR __imp__IsWindow@4
  00013	85 c0		 test	 eax, eax
  00015	74 2e		 je	 SHORT $LN4@OnGraphDel

; 211  : 	{
; 212  : 		if(m_pDataListViewMngWnd->m_pDataListViewer && IsWindow(m_pDataListViewMngWnd->m_pDataListViewer->GetSafeHwnd()))

  00017	8b 46 38	 mov	 eax, DWORD PTR [esi+56]
  0001a	8b 80 88 00 00
	00		 mov	 eax, DWORD PTR [eax+136]
  00020	85 c0		 test	 eax, eax
  00022	74 21		 je	 SHORT $LN4@OnGraphDel
  00024	ff 70 20	 push	 DWORD PTR [eax+32]
  00027	ff 15 00 00 00
	00		 call	 DWORD PTR __imp__IsWindow@4
  0002d	85 c0		 test	 eax, eax
  0002f	74 14		 je	 SHORT $LN4@OnGraphDel

; 213  : 		{
; 214  : 			if(m_pDataListViewMngWnd->IsUpdateReady())

  00031	8b 4e 38	 mov	 ecx, DWORD PTR [esi+56]
  00034	e8 00 00 00 00	 call	 ?IsUpdateReady@CDataListViewMngWnd@@QAEHXZ ; CDataListViewMngWnd::IsUpdateReady
  00039	85 c0		 test	 eax, eax
  0003b	74 08		 je	 SHORT $LN4@OnGraphDel

; 215  : 				m_pDataListViewMngWnd->Update();

  0003d	8b 4e 38	 mov	 ecx, DWORD PTR [esi+56]
  00040	e8 00 00 00 00	 call	 ?Update@CDataListViewMngWnd@@QAEXXZ ; CDataListViewMngWnd::Update
$LN4@OnGraphDel:

; 216  : 		}
; 217  : 	}
; 218  : }

  00045	5e		 pop	 esi
  00046	c2 08 00	 ret	 8
?OnGraphDeleted@CChartDataListViewerAddInImp@@MAEXPBD0@Z ENDP ; CChartDataListViewerAddInImp::OnGraphDeleted
_TEXT	ENDS
; Function compile flags: /Ogtp
; File D:\git\src\IBK\IBK_DRFN\ProjSrc\SrcChartEx\ChartAddIn\ChartDataListViewerAddIn\ChartDataListViewerAddIn\ChartDataListViewerAddInImp.cpp
;	COMDAT ?OnGraphAdded@CChartDataListViewerAddInImp@@MAEXPBD0@Z
_TEXT	SEGMENT
_p_szGraphName$ = 8					; size = 4
_p_szIndicatorName$ = 12				; size = 4
?OnGraphAdded@CChartDataListViewerAddInImp@@MAEXPBD0@Z PROC ; CChartDataListViewerAddInImp::OnGraphAdded, COMDAT
; _this$ = ecx

; 196  : {

  00000	56		 push	 esi
  00001	8b f1		 mov	 esi, ecx

; 197  : 	if(m_pDataListViewMngWnd && IsWindow(m_pDataListViewMngWnd->GetSafeHwnd()))

  00003	8b 46 38	 mov	 eax, DWORD PTR [esi+56]
  00006	85 c0		 test	 eax, eax
  00008	74 3b		 je	 SHORT $LN4@OnGraphAdd
  0000a	ff 70 20	 push	 DWORD PTR [eax+32]
  0000d	ff 15 00 00 00
	00		 call	 DWORD PTR __imp__IsWindow@4
  00013	85 c0		 test	 eax, eax
  00015	74 2e		 je	 SHORT $LN4@OnGraphAdd

; 198  : 	{
; 199  : 		if(m_pDataListViewMngWnd->m_pDataListViewer && IsWindow(m_pDataListViewMngWnd->m_pDataListViewer->GetSafeHwnd()))

  00017	8b 46 38	 mov	 eax, DWORD PTR [esi+56]
  0001a	8b 80 88 00 00
	00		 mov	 eax, DWORD PTR [eax+136]
  00020	85 c0		 test	 eax, eax
  00022	74 21		 je	 SHORT $LN4@OnGraphAdd
  00024	ff 70 20	 push	 DWORD PTR [eax+32]
  00027	ff 15 00 00 00
	00		 call	 DWORD PTR __imp__IsWindow@4
  0002d	85 c0		 test	 eax, eax
  0002f	74 14		 je	 SHORT $LN4@OnGraphAdd

; 200  : 		{
; 201  : 			if(m_pDataListViewMngWnd->IsUpdateReady())

  00031	8b 4e 38	 mov	 ecx, DWORD PTR [esi+56]
  00034	e8 00 00 00 00	 call	 ?IsUpdateReady@CDataListViewMngWnd@@QAEHXZ ; CDataListViewMngWnd::IsUpdateReady
  00039	85 c0		 test	 eax, eax
  0003b	74 08		 je	 SHORT $LN4@OnGraphAdd

; 202  : 				m_pDataListViewMngWnd->Update();

  0003d	8b 4e 38	 mov	 ecx, DWORD PTR [esi+56]
  00040	e8 00 00 00 00	 call	 ?Update@CDataListViewMngWnd@@QAEXXZ ; CDataListViewMngWnd::Update
$LN4@OnGraphAdd:

; 203  : 		}
; 204  : 	}
; 205  : }

  00045	5e		 pop	 esi
  00046	c2 08 00	 ret	 8
?OnGraphAdded@CChartDataListViewerAddInImp@@MAEXPBD0@Z ENDP ; CChartDataListViewerAddInImp::OnGraphAdded
_TEXT	ENDS
; Function compile flags: /Ogtp
; File D:\git\src\IBK\IBK_DRFN\ProjSrc\SrcChartEx\ChartAddIn\ChartDataListViewerAddIn\ChartDataListViewerAddIn\ChartDataListViewerAddInImp.cpp
;	COMDAT ?OnRecalculationComplete@CChartDataListViewerAddInImp@@MAEXXZ
_TEXT	SEGMENT
?OnRecalculationComplete@CChartDataListViewerAddInImp@@MAEXXZ PROC ; CChartDataListViewerAddInImp::OnRecalculationComplete, COMDAT
; _this$ = ecx

; 255  : 	OnPacketDataMultiItem( NULL, NULL, TRUE);

  00000	8b 01		 mov	 eax, DWORD PTR [ecx]
  00002	6a 01		 push	 1
  00004	6a 00		 push	 0
  00006	6a 00		 push	 0
  00008	ff 50 40	 call	 DWORD PTR [eax+64]

; 256  : }

  0000b	c3		 ret	 0
?OnRecalculationComplete@CChartDataListViewerAddInImp@@MAEXXZ ENDP ; CChartDataListViewerAddInImp::OnRecalculationComplete
_TEXT	ENDS
; Function compile flags: /Ogtp
; File D:\git\src\IBK\IBK_DRFN\ProjSrc\SrcChartEx\ChartAddIn\ChartDataListViewerAddIn\ChartDataListViewerAddIn\ChartDataListViewerAddInImp.cpp
;	COMDAT ?GetIPacketManager@CChartDataListViewerAddInImp@@QAEPAUIPacketManager134221@@XZ
_TEXT	SEGMENT
?GetIPacketManager@CChartDataListViewerAddInImp@@QAEPAUIPacketManager134221@@XZ PROC ; CChartDataListViewerAddInImp::GetIPacketManager, COMDAT
; _this$ = ecx

; 192  : 	return m_pIDefaultPacketManager;

  00000	8b 41 24	 mov	 eax, DWORD PTR [ecx+36]

; 193  : }

  00003	c3		 ret	 0
?GetIPacketManager@CChartDataListViewerAddInImp@@QAEPAUIPacketManager134221@@XZ ENDP ; CChartDataListViewerAddInImp::GetIPacketManager
_TEXT	ENDS
; Function compile flags: /Ogtp
; File D:\git\src\IBK\IBK_DRFN\ProjSrc\SrcChartEx\ChartAddIn\ChartDataListViewerAddIn\ChartDataListViewerAddIn\ChartDataListViewerAddInImp.cpp
;	COMDAT ?GetIChartOCX134221@CChartDataListViewerAddInImp@@QAEPAUIChartOCX134221@@XZ
_TEXT	SEGMENT
?GetIChartOCX134221@CChartDataListViewerAddInImp@@QAEPAUIChartOCX134221@@XZ PROC ; CChartDataListViewerAddInImp::GetIChartOCX134221, COMDAT
; _this$ = ecx

; 187  : 	return m_pIChartOCX;

  00000	8b 41 0c	 mov	 eax, DWORD PTR [ecx+12]

; 188  : }

  00003	c3		 ret	 0
?GetIChartOCX134221@CChartDataListViewerAddInImp@@QAEPAUIChartOCX134221@@XZ ENDP ; CChartDataListViewerAddInImp::GetIChartOCX134221
_TEXT	ENDS
; Function compile flags: /Ogtp
; File D:\git\src\IBK\IBK_DRFN\ProjSrc\SrcChartEx\ChartAddIn\ChartDataListViewerAddIn\ChartDataListViewerAddIn\ChartDataListViewerAddInImp.cpp
;	COMDAT ?GetIChartManager@CChartDataListViewerAddInImp@@QAEPAUIChartManager134221@@XZ
_TEXT	SEGMENT
?GetIChartManager@CChartDataListViewerAddInImp@@QAEPAUIChartManager134221@@XZ PROC ; CChartDataListViewerAddInImp::GetIChartManager, COMDAT
; _this$ = ecx

; 182  : 	return m_pIChartManager;

  00000	8b 41 28	 mov	 eax, DWORD PTR [ecx+40]

; 183  : }

  00003	c3		 ret	 0
?GetIChartManager@CChartDataListViewerAddInImp@@QAEPAUIChartManager134221@@XZ ENDP ; CChartDataListViewerAddInImp::GetIChartManager
_TEXT	ENDS
; Function compile flags: /Ogtp
; File D:\git\src\IBK\IBK_DRFN\ProjSrc\SrcChartEx\ChartAddIn\ChartDataListViewerAddIn\ChartDataListViewerAddIn\ChartDataListViewerAddInImp.cpp
;	COMDAT ?GetPacketNameList@CChartDataListViewerAddInImp@@QAE?AV?$CStringT@DV?$StrTraitMFC_DLL@DV?$ChTraitsCRT@D@ATL@@@@@ATL@@XZ
_TEXT	SEGMENT
___$ReturnUdt$ = 8					; size = 4
?GetPacketNameList@CChartDataListViewerAddInImp@@QAE?AV?$CStringT@DV?$StrTraitMFC_DLL@DV?$ChTraitsCRT@D@ATL@@@@@ATL@@XZ PROC ; CChartDataListViewerAddInImp::GetPacketNameList, COMDAT
; _this$ = ecx

; 173  : {

  00000	55		 push	 ebp
  00001	8b ec		 mov	 ebp, esp

; 174  : 	return "";

  00003	8b 4d 08	 mov	 ecx, DWORD PTR ___$ReturnUdt$[ebp]
  00006	68 00 00 00 00	 push	 OFFSET ??_C@_00CNPNBAHC@@
  0000b	ff 15 00 00 00
	00		 call	 DWORD PTR __imp_??0?$CStringT@DV?$StrTraitMFC_DLL@DV?$ChTraitsCRT@D@ATL@@@@@ATL@@QAE@PBD@Z
  00011	8b 45 08	 mov	 eax, DWORD PTR ___$ReturnUdt$[ebp]

; 175  : }

  00014	5d		 pop	 ebp
  00015	c2 04 00	 ret	 4
?GetPacketNameList@CChartDataListViewerAddInImp@@QAE?AV?$CStringT@DV?$StrTraitMFC_DLL@DV?$ChTraitsCRT@D@ATL@@@@@ATL@@XZ ENDP ; CChartDataListViewerAddInImp::GetPacketNameList
_TEXT	ENDS
; Function compile flags: /Ogtp
; File D:\git\src\IBK\IBK_DRFN\ProjSrc\SrcChartEx\ChartAddIn\ChartDataListViewerAddIn\ChartDataListViewerAddIn\ChartDataListViewerAddInImp.h
;	COMDAT ?GetRegisteredEventMap@CChartDataListViewerAddInImp@@MBEPBW4EAddInEventType@IChartAddIn134221@@XZ
_TEXT	SEGMENT
?GetRegisteredEventMap@CChartDataListViewerAddInImp@@MBEPBW4EAddInEventType@IChartAddIn134221@@XZ PROC ; CChartDataListViewerAddInImp::GetRegisteredEventMap, COMDAT
; _this$ = ecx

; 26   : 	DECLARE_ADDIN_EVENT_MAP()

  00000	b8 00 00 00 00	 mov	 eax, OFFSET ?m_eRegisteredEventMap@CChartDataListViewerAddInImp@@1QBW4EAddInEventType@IChartAddIn134221@@B ; CChartDataListViewerAddInImp::m_eRegisteredEventMap
  00005	c3		 ret	 0
?GetRegisteredEventMap@CChartDataListViewerAddInImp@@MBEPBW4EAddInEventType@IChartAddIn134221@@XZ ENDP ; CChartDataListViewerAddInImp::GetRegisteredEventMap
_TEXT	ENDS
; Function compile flags: /Ogtp
; File D:\git\src\IBK\IBK_DRFN\ProjSrc\SrcChartEx\ChartAddIn\ChartDataListViewerAddIn\ChartDataListViewerAddIn\ChartDataListViewerAddInImp.cpp
; File C:\Program Files (x86)\Microsoft Visual Studio\2019\Community\VC\Tools\MSVC\14.29.30133\atlmfc\include\afxwin2.inl
; File D:\git\src\IBK\IBK_DRFN\ProjSrc\SrcChartEx\ChartAddIn\ChartDataListViewerAddIn\ChartDataListViewerAddIn\ChartDataListViewerAddInImp.cpp
;	COMDAT ??1CChartDataListViewerAddInImp@@UAE@XZ
_TEXT	SEGMENT
__ctlState$2 = -20					; size = 8
__$EHRec$ = -12						; size = 12
??1CChartDataListViewerAddInImp@@UAE@XZ PROC		; CChartDataListViewerAddInImp::~CChartDataListViewerAddInImp, COMDAT
; _this$ = ecx

; 36   : {

  00000	55		 push	 ebp
  00001	8b ec		 mov	 ebp, esp
  00003	6a ff		 push	 -1
  00005	68 00 00 00 00	 push	 __ehhandler$??1CChartDataListViewerAddInImp@@UAE@XZ
  0000a	64 a1 00 00 00
	00		 mov	 eax, DWORD PTR fs:0
  00010	50		 push	 eax
  00011	83 ec 08	 sub	 esp, 8
  00014	56		 push	 esi
  00015	a1 00 00 00 00	 mov	 eax, DWORD PTR ___security_cookie
  0001a	33 c5		 xor	 eax, ebp
  0001c	50		 push	 eax
  0001d	8d 45 f4	 lea	 eax, DWORD PTR __$EHRec$[ebp]
  00020	64 a3 00 00 00
	00		 mov	 DWORD PTR fs:0, eax
  00026	8b f1		 mov	 esi, ecx

; 37   : 	// (2006/6/22 - Seung-Won, Bae) Manage DataListViwer Dialog
; 38   : 
; 39   : 	//20081025 이문수 >>
; 40   : 	
; 41   : 	if( m_pDataListViewMngWnd)

  00028	83 7e 40 00	 cmp	 DWORD PTR [esi+64], 0
  0002c	c7 06 00 00 00
	00		 mov	 DWORD PTR [esi], OFFSET ??_7CChartDataListViewerAddInImp@@6BCIWUnknown@@@
  00032	c7 46 08 00 00
	00 00		 mov	 DWORD PTR [esi+8], OFFSET ??_7CChartDataListViewerAddInImp@@6BIChartAddIn134221@@@
  00039	74 48		 je	 SHORT $LN2@CChartData

; 42   : 	{
; 43   : 		AFX_MANAGE_STATE(AfxGetStaticModuleState());

  0003b	e8 00 00 00 00	 call	 ?AfxGetStaticModuleState@@YGPAVAFX_MODULE_STATE@@XZ ; AfxGetStaticModuleState
  00040	50		 push	 eax
  00041	8d 4d ec	 lea	 ecx, DWORD PTR __ctlState$2[ebp]
  00044	e8 00 00 00 00	 call	 ??0AFX_MAINTAIN_STATE2@@QAE@PAVAFX_MODULE_STATE@@@Z ; AFX_MAINTAIN_STATE2::AFX_MAINTAIN_STATE2

; 44   : 		if( IsWindow( m_pDataListViewMngWnd->GetSafeHwnd())) 

  00049	8b 46 40	 mov	 eax, DWORD PTR [esi+64]
; File C:\Program Files (x86)\Microsoft Visual Studio\2019\Community\VC\Tools\MSVC\14.29.30133\atlmfc\include\afxwin2.inl

; 25   : 	{ return this == NULL ? NULL : m_hWnd; }

  0004c	85 c0		 test	 eax, eax
  0004e	74 03		 je	 SHORT $LN10@CChartData
$LN9@CChartData:
  00050	8b 40 20	 mov	 eax, DWORD PTR [eax+32]
$LN10@CChartData:
; File D:\git\src\IBK\IBK_DRFN\ProjSrc\SrcChartEx\ChartAddIn\ChartDataListViewerAddIn\ChartDataListViewerAddIn\ChartDataListViewerAddInImp.cpp

; 44   : 		if( IsWindow( m_pDataListViewMngWnd->GetSafeHwnd())) 

  00053	50		 push	 eax
  00054	ff 15 00 00 00
	00		 call	 DWORD PTR __imp__IsWindow@4
  0005a	85 c0		 test	 eax, eax
  0005c	74 08		 je	 SHORT $LN3@CChartData

; 45   : 			m_pDataListViewMngWnd->DestroyWindow();

  0005e	8b 4e 40	 mov	 ecx, DWORD PTR [esi+64]
  00061	8b 01		 mov	 eax, DWORD PTR [ecx]
  00063	ff 50 68	 call	 DWORD PTR [eax+104]
$LN3@CChartData:

; 46   : 		delete m_pDataListViewMngWnd;

  00066	8b 4e 40	 mov	 ecx, DWORD PTR [esi+64]
  00069	85 c9		 test	 ecx, ecx
  0006b	74 07		 je	 SHORT $LN5@CChartData
  0006d	8b 01		 mov	 eax, DWORD PTR [ecx]
  0006f	6a 01		 push	 1
  00071	ff 50 04	 call	 DWORD PTR [eax+4]
$LN5@CChartData:

; 47   : 		m_pDataListViewMngWnd = NULL;
; 48   : 	}

  00074	8d 4d ec	 lea	 ecx, DWORD PTR __ctlState$2[ebp]
  00077	c7 46 40 00 00
	00 00		 mov	 DWORD PTR [esi+64], 0
  0007e	e8 00 00 00 00	 call	 ??1AFX_MAINTAIN_STATE2@@QAE@XZ ; AFX_MAINTAIN_STATE2::~AFX_MAINTAIN_STATE2
$LN2@CChartData:

; 49   : //	if( m_pDataListViewer)
; 50   : //	{
; 51   : //		AFX_MANAGE_STATE(AfxGetStaticModuleState());
; 52   : //		//AfxSetResourceHandle(ML_LANGUAGE_RES);
; 53   : //
; 54   : //		 if( IsWindow( m_pDataListViewer->GetSafeHwnd())) m_pDataListViewer->DestroyWindow();
; 55   : //		 delete m_pDataListViewer;
; 56   : //		m_pDataListViewer = NULL;
; 57   : //	}
; 58   : 
; 59   : 	//20081025 이문수 <<
; 60   : }

  00083	8b ce		 mov	 ecx, esi
  00085	e8 00 00 00 00	 call	 ??1CChartAddInBase134221@@MAE@XZ ; CChartAddInBase134221::~CChartAddInBase134221
  0008a	8b 4d f4	 mov	 ecx, DWORD PTR __$EHRec$[ebp]
  0008d	64 89 0d 00 00
	00 00		 mov	 DWORD PTR fs:0, ecx
  00094	59		 pop	 ecx
  00095	5e		 pop	 esi
  00096	8b e5		 mov	 esp, ebp
  00098	5d		 pop	 ebp
  00099	c3		 ret	 0
  0009a	cc		 int	 3
  0009b	cc		 int	 3
  0009c	cc		 int	 3
  0009d	cc		 int	 3
  0009e	cc		 int	 3
_TEXT	ENDS
;	COMDAT text$x
text$x	SEGMENT
__ehhandler$??1CChartDataListViewerAddInImp@@UAE@XZ:
  00000	90		 npad	 1
  00001	90		 npad	 1
  00002	8b 54 24 08	 mov	 edx, DWORD PTR [esp+8]
  00006	8d 42 0c	 lea	 eax, DWORD PTR [edx+12]
  00009	8b 4a f0	 mov	 ecx, DWORD PTR [edx-16]
  0000c	33 c8		 xor	 ecx, eax
  0000e	e8 00 00 00 00	 call	 @__security_check_cookie@4
  00013	b8 00 00 00 00	 mov	 eax, OFFSET __ehfuncinfo$??1CChartDataListViewerAddInImp@@UAE@XZ
  00018	e9 00 00 00 00	 jmp	 ___CxxFrameHandler3
text$x	ENDS
??1CChartDataListViewerAddInImp@@UAE@XZ ENDP		; CChartDataListViewerAddInImp::~CChartDataListViewerAddInImp
; Function compile flags: /Ogtp
; File D:\git\src\IBK\IBK_DRFN\ProjSrc\SrcChartEx\ChartAddIn\ChartDataListViewerAddIn\ChartDataListViewerAddIn\ChartDataListViewerAddInImp.cpp
;	COMDAT ??0CChartDataListViewerAddInImp@@QAE@PAUIChartOCX134221@@PAUIAddInDllBase@@@Z
_TEXT	SEGMENT
_this$ = -4						; size = 4
_p_pIChartOCX$ = 8					; size = 4
_p_pIAddInDllBase$ = 12					; size = 4
??0CChartDataListViewerAddInImp@@QAE@PAUIChartOCX134221@@PAUIAddInDllBase@@@Z PROC ; CChartDataListViewerAddInImp::CChartDataListViewerAddInImp, COMDAT
; _this$ = ecx

; 26   : {

  00000	55		 push	 ebp
  00001	8b ec		 mov	 ebp, esp
  00003	51		 push	 ecx
  00004	56		 push	 esi
  00005	ff 75 0c	 push	 DWORD PTR _p_pIAddInDllBase$[ebp]
  00008	8b f1		 mov	 esi, ecx
  0000a	ff 75 08	 push	 DWORD PTR _p_pIChartOCX$[ebp]
  0000d	89 75 fc	 mov	 DWORD PTR _this$[ebp], esi
  00010	e8 00 00 00 00	 call	 ??0CChartAddInBase134221@@IAE@PAUIChartOCX134221@@PAUIAddInDllBase@@@Z ; CChartAddInBase134221::CChartAddInBase134221
  00015	c7 06 00 00 00
	00		 mov	 DWORD PTR [esi], OFFSET ??_7CChartDataListViewerAddInImp@@6BCIWUnknown@@@

; 27   : 	// (2006/6/22 - Seung-Won, Bae) Manage DataListViwer Dialog
; 28   : 
; 29   : 	//20081025 이문수 >>
; 30   : 	//m_pDataListViewer = NULL; //20081025 이문수 주석처리
; 31   : 	m_pDataListViewMngWnd=NULL;
; 32   : 	//20081025 이문수 <<
; 33   : }

  0001b	8b c6		 mov	 eax, esi
  0001d	c7 46 08 00 00
	00 00		 mov	 DWORD PTR [esi+8], OFFSET ??_7CChartDataListViewerAddInImp@@6BIChartAddIn134221@@@
  00024	c7 46 40 00 00
	00 00		 mov	 DWORD PTR [esi+64], 0
  0002b	5e		 pop	 esi
  0002c	8b e5		 mov	 esp, ebp
  0002e	5d		 pop	 ebp
  0002f	c2 08 00	 ret	 8
??0CChartDataListViewerAddInImp@@QAE@PAUIChartOCX134221@@PAUIAddInDllBase@@@Z ENDP ; CChartDataListViewerAddInImp::CChartDataListViewerAddInImp
_TEXT	ENDS
; Function compile flags: /Ogtp
; File D:\git\src\IBK\IBK_DRFN\ProjSrc\SrcChartEx\ChartAddIn\ChartDataListViewerAddIn\Include_AddIn_134221\I134221\_ChartAddInBase.h
;	COMDAT ?OnRButtonDblClk@CChartAddInBase134221@@MAEHPAUHDC__@@IAAUtagPOINT@@K@Z
_TEXT	SEGMENT
_p_hDC$ = 8						; size = 4
_nFlags$ = 12						; size = 4
_point$ = 16						; size = 4
_p_dwMouseActionID$ = 20				; size = 4
?OnRButtonDblClk@CChartAddInBase134221@@MAEHPAUHDC__@@IAAUtagPOINT@@K@Z PROC ; CChartAddInBase134221::OnRButtonDblClk, COMDAT
; _this$ = ecx

; 215  : 	virtual BOOL	OnRButtonDblClk(				HDC p_hDC, UINT nFlags, POINT &point, const DWORD p_dwMouseActionID)									{	return FALSE;	}

  00000	33 c0		 xor	 eax, eax
  00002	c2 10 00	 ret	 16			; 00000010H
?OnRButtonDblClk@CChartAddInBase134221@@MAEHPAUHDC__@@IAAUtagPOINT@@K@Z ENDP ; CChartAddInBase134221::OnRButtonDblClk
_TEXT	ENDS
; Function compile flags: /Ogtp
; File D:\git\src\IBK\IBK_DRFN\ProjSrc\SrcChartEx\ChartAddIn\ChartDataListViewerAddIn\Include_AddIn_134221\I134221\_ChartAddInBase.h
;	COMDAT ?OnRButtonUp@CChartAddInBase134221@@MAEHPAUHDC__@@IAAUtagPOINT@@K@Z
_TEXT	SEGMENT
_p_hDC$ = 8						; size = 4
_nFlags$ = 12						; size = 4
_point$ = 16						; size = 4
_p_dwMouseActionID$ = 20				; size = 4
?OnRButtonUp@CChartAddInBase134221@@MAEHPAUHDC__@@IAAUtagPOINT@@K@Z PROC ; CChartAddInBase134221::OnRButtonUp, COMDAT
; _this$ = ecx

; 214  : 	virtual BOOL	OnRButtonUp(					HDC p_hDC, UINT nFlags, POINT &point, const DWORD p_dwMouseActionID)									{	return FALSE;	}

  00000	33 c0		 xor	 eax, eax
  00002	c2 10 00	 ret	 16			; 00000010H
?OnRButtonUp@CChartAddInBase134221@@MAEHPAUHDC__@@IAAUtagPOINT@@K@Z ENDP ; CChartAddInBase134221::OnRButtonUp
_TEXT	ENDS
; Function compile flags: /Ogtp
; File D:\git\src\IBK\IBK_DRFN\ProjSrc\SrcChartEx\ChartAddIn\ChartDataListViewerAddIn\Include_AddIn_134221\I134221\_ChartAddInBase.h
;	COMDAT ?OnRButtonDown@CChartAddInBase134221@@MAEHPAUHDC__@@IAAUtagPOINT@@K@Z
_TEXT	SEGMENT
_p_hDC$ = 8						; size = 4
_nFlags$ = 12						; size = 4
_point$ = 16						; size = 4
_p_dwMouseActionID$ = 20				; size = 4
?OnRButtonDown@CChartAddInBase134221@@MAEHPAUHDC__@@IAAUtagPOINT@@K@Z PROC ; CChartAddInBase134221::OnRButtonDown, COMDAT
; _this$ = ecx

; 213  : 	virtual BOOL	OnRButtonDown(					HDC p_hDC, UINT nFlags, POINT &point, const DWORD p_dwMouseActionID)									{	return FALSE;	}

  00000	33 c0		 xor	 eax, eax
  00002	c2 10 00	 ret	 16			; 00000010H
?OnRButtonDown@CChartAddInBase134221@@MAEHPAUHDC__@@IAAUtagPOINT@@K@Z ENDP ; CChartAddInBase134221::OnRButtonDown
_TEXT	ENDS
; Function compile flags: /Ogtp
; File D:\git\src\IBK\IBK_DRFN\ProjSrc\SrcChartEx\ChartAddIn\ChartDataListViewerAddIn\Include_AddIn_134221\I134221\_ChartAddInBase.h
;	COMDAT ?OnLButtonDblClk@CChartAddInBase134221@@MAEHPAUHDC__@@IAAUtagPOINT@@K@Z
_TEXT	SEGMENT
_p_hDC$ = 8						; size = 4
_nFlags$ = 12						; size = 4
_point$ = 16						; size = 4
_p_dwMouseActionID$ = 20				; size = 4
?OnLButtonDblClk@CChartAddInBase134221@@MAEHPAUHDC__@@IAAUtagPOINT@@K@Z PROC ; CChartAddInBase134221::OnLButtonDblClk, COMDAT
; _this$ = ecx

; 212  : 	virtual BOOL	OnLButtonDblClk(				HDC p_hDC, UINT nFlags, POINT &point, const DWORD p_dwMouseActionID)									{	return FALSE;	}

  00000	33 c0		 xor	 eax, eax
  00002	c2 10 00	 ret	 16			; 00000010H
?OnLButtonDblClk@CChartAddInBase134221@@MAEHPAUHDC__@@IAAUtagPOINT@@K@Z ENDP ; CChartAddInBase134221::OnLButtonDblClk
_TEXT	ENDS
; Function compile flags: /Ogtp
; File D:\git\src\IBK\IBK_DRFN\ProjSrc\SrcChartEx\ChartAddIn\ChartDataListViewerAddIn\Include_AddIn_134221\I134221\_ChartAddInBase.h
;	COMDAT ?OnLButtonUp@CChartAddInBase134221@@MAEHPAUHDC__@@IAAUtagPOINT@@K@Z
_TEXT	SEGMENT
_p_hDC$ = 8						; size = 4
_nFlags$ = 12						; size = 4
_point$ = 16						; size = 4
_p_dwMouseActionID$ = 20				; size = 4
?OnLButtonUp@CChartAddInBase134221@@MAEHPAUHDC__@@IAAUtagPOINT@@K@Z PROC ; CChartAddInBase134221::OnLButtonUp, COMDAT
; _this$ = ecx

; 211  : 	virtual BOOL	OnLButtonUp(					HDC p_hDC, UINT nFlags, POINT &point, const DWORD p_dwMouseActionID)									{	return FALSE;	}

  00000	33 c0		 xor	 eax, eax
  00002	c2 10 00	 ret	 16			; 00000010H
?OnLButtonUp@CChartAddInBase134221@@MAEHPAUHDC__@@IAAUtagPOINT@@K@Z ENDP ; CChartAddInBase134221::OnLButtonUp
_TEXT	ENDS
; Function compile flags: /Ogtp
; File D:\git\src\IBK\IBK_DRFN\ProjSrc\SrcChartEx\ChartAddIn\ChartDataListViewerAddIn\Include_AddIn_134221\I134221\_ChartAddInBase.h
;	COMDAT ?OnLButtonDown@CChartAddInBase134221@@MAEHPAUHDC__@@IAAUtagPOINT@@K@Z
_TEXT	SEGMENT
_p_hDC$ = 8						; size = 4
_nFlags$ = 12						; size = 4
_point$ = 16						; size = 4
_p_dwMouseActionID$ = 20				; size = 4
?OnLButtonDown@CChartAddInBase134221@@MAEHPAUHDC__@@IAAUtagPOINT@@K@Z PROC ; CChartAddInBase134221::OnLButtonDown, COMDAT
; _this$ = ecx

; 210  : 	virtual BOOL	OnLButtonDown(					HDC p_hDC, UINT nFlags, POINT &point, const DWORD p_dwMouseActionID)									{	return FALSE;	}

  00000	33 c0		 xor	 eax, eax
  00002	c2 10 00	 ret	 16			; 00000010H
?OnLButtonDown@CChartAddInBase134221@@MAEHPAUHDC__@@IAAUtagPOINT@@K@Z ENDP ; CChartAddInBase134221::OnLButtonDown
_TEXT	ENDS
; Function compile flags: /Ogtp
; File D:\git\src\IBK\IBK_DRFN\ProjSrc\SrcChartEx\ChartAddIn\ChartDataListViewerAddIn\Include_AddIn_134221\I134221\_ChartAddInBase.h
;	COMDAT ?OnMouseMove@CChartAddInBase134221@@MAEHPAUHDC__@@IAAUtagPOINT@@KQAUHBITMAP__@@@Z
_TEXT	SEGMENT
_p_hDC$ = 8						; size = 4
_nFlags$ = 12						; size = 4
_point$ = 16						; size = 4
_p_dwMouseActionID$ = 20				; size = 4
_p_hbmpMainOSB$ = 24					; size = 4
?OnMouseMove@CChartAddInBase134221@@MAEHPAUHDC__@@IAAUtagPOINT@@KQAUHBITMAP__@@@Z PROC ; CChartAddInBase134221::OnMouseMove, COMDAT
; _this$ = ecx

; 209  : 	virtual BOOL	OnMouseMove(					HDC p_hDC, UINT nFlags, POINT &point, const DWORD p_dwMouseActionID, const HBITMAP p_hbmpMainOSB)		{	return FALSE;	}	// (2006/11/5 - Seung-Won, Bae) Support MainOSB

  00000	33 c0		 xor	 eax, eax
  00002	c2 14 00	 ret	 20			; 00000014H
?OnMouseMove@CChartAddInBase134221@@MAEHPAUHDC__@@IAAUtagPOINT@@KQAUHBITMAP__@@@Z ENDP ; CChartAddInBase134221::OnMouseMove
_TEXT	ENDS
; Function compile flags: /Ogtp
; File D:\git\src\IBK\IBK_DRFN\ProjSrc\SrcChartEx\ChartAddIn\ChartDataListViewerAddIn\Include_AddIn_134221\I134221\_ChartAddInBase.h
;	COMDAT ?OnMouseWheel@CChartAddInBase134221@@MAEHIFUtagPOINT@@K@Z
_TEXT	SEGMENT
_nFlags$ = 8						; size = 4
_zDelta$ = 12						; size = 2
_pt$ = 16						; size = 8
_p_dwMouseActionID$ = 24				; size = 4
?OnMouseWheel@CChartAddInBase134221@@MAEHIFUtagPOINT@@K@Z PROC ; CChartAddInBase134221::OnMouseWheel, COMDAT
; _this$ = ecx

; 208  : 	virtual BOOL	OnMouseWheel(					UINT nFlags, short zDelta, POINT pt, const DWORD p_dwMouseActionID)										{	return FALSE;	}

  00000	33 c0		 xor	 eax, eax
  00002	c2 14 00	 ret	 20			; 00000014H
?OnMouseWheel@CChartAddInBase134221@@MAEHIFUtagPOINT@@K@Z ENDP ; CChartAddInBase134221::OnMouseWheel
_TEXT	ENDS
; Function compile flags: /Ogtp
; File D:\git\src\IBK\IBK_DRFN\ProjSrc\SrcChartEx\ChartAddIn\ChartDataListViewerAddIn\Include_AddIn_134221\I134221\_ChartAddInBase.h
;	COMDAT ?OnKeyUp@CChartAddInBase134221@@MAEHIII@Z
_TEXT	SEGMENT
_nChar$ = 8						; size = 4
_nRepCnt$ = 12						; size = 4
_nFlags$ = 16						; size = 4
?OnKeyUp@CChartAddInBase134221@@MAEHIII@Z PROC		; CChartAddInBase134221::OnKeyUp, COMDAT
; _this$ = ecx

; 207  : 	virtual BOOL	OnKeyUp(						UINT nChar, UINT nRepCnt, UINT nFlags)																	{	return FALSE;	}

  00000	33 c0		 xor	 eax, eax
  00002	c2 0c 00	 ret	 12			; 0000000cH
?OnKeyUp@CChartAddInBase134221@@MAEHIII@Z ENDP		; CChartAddInBase134221::OnKeyUp
_TEXT	ENDS
; Function compile flags: /Ogtp
; File D:\git\src\IBK\IBK_DRFN\ProjSrc\SrcChartEx\ChartAddIn\ChartDataListViewerAddIn\Include_AddIn_134221\I134221\_ChartAddInBase.h
;	COMDAT ?OnKeyDown@CChartAddInBase134221@@MAEHIII@Z
_TEXT	SEGMENT
_nChar$ = 8						; size = 4
_nRepCnt$ = 12						; size = 4
_nFlags$ = 16						; size = 4
?OnKeyDown@CChartAddInBase134221@@MAEHIII@Z PROC	; CChartAddInBase134221::OnKeyDown, COMDAT
; _this$ = ecx

; 206  : 	virtual BOOL	OnKeyDown(						UINT nChar, UINT nRepCnt, UINT nFlags)																	{	return FALSE;	}

  00000	33 c0		 xor	 eax, eax
  00002	c2 0c 00	 ret	 12			; 0000000cH
?OnKeyDown@CChartAddInBase134221@@MAEHIII@Z ENDP	; CChartAddInBase134221::OnKeyDown
_TEXT	ENDS
; Function compile flags: /Ogtp
; File D:\git\src\IBK\IBK_DRFN\ProjSrc\SrcChartEx\ChartAddIn\ChartDataListViewerAddIn\Include_AddIn_134221\I134221\_ChartAddInBase.h
;	COMDAT ?OnAddInToolCommand@CChartAddInBase134221@@MAEHAAJW4EAICommandType@@JJ@Z
_TEXT	SEGMENT
_p_lResult$ = 8						; size = 4
_p_eCommandID$ = 12					; size = 4
_p_lParam1$ = 16					; size = 4
_p_lParam2$ = 20					; size = 4
?OnAddInToolCommand@CChartAddInBase134221@@MAEHAAJW4EAICommandType@@JJ@Z PROC ; CChartAddInBase134221::OnAddInToolCommand, COMDAT
; _this$ = ecx

; 204  : 	virtual BOOL	OnAddInToolCommand(	long &p_lResult, const EAICommandType p_eCommandID, const long p_lParam1, const long p_lParam2)			{	return FALSE;	}

  00000	33 c0		 xor	 eax, eax
  00002	c2 10 00	 ret	 16			; 00000010H
?OnAddInToolCommand@CChartAddInBase134221@@MAEHAAJW4EAICommandType@@JJ@Z ENDP ; CChartAddInBase134221::OnAddInToolCommand
_TEXT	ENDS
; Function compile flags: /Ogtp
; File D:\git\src\IBK\IBK_DRFN\ProjSrc\SrcChartEx\ChartAddIn\ChartDataListViewerAddIn\Include_AddIn_134221\I134221\_ChartAddInBase.h
;	COMDAT ?OnAddInToolCommand@CChartAddInBase134221@@MAEHAAJW4EAICommandType@@J@Z
_TEXT	SEGMENT
_p_lResult$ = 8						; size = 4
_p_eCommandID$ = 12					; size = 4
_p_lParam$ = 16						; size = 4
?OnAddInToolCommand@CChartAddInBase134221@@MAEHAAJW4EAICommandType@@J@Z PROC ; CChartAddInBase134221::OnAddInToolCommand, COMDAT
; _this$ = ecx

; 203  : 	virtual BOOL	OnAddInToolCommand(	long &p_lResult, const EAICommandType p_eCommandID, const long p_lParam)								{	return FALSE;	}

  00000	33 c0		 xor	 eax, eax
  00002	c2 0c 00	 ret	 12			; 0000000cH
?OnAddInToolCommand@CChartAddInBase134221@@MAEHAAJW4EAICommandType@@J@Z ENDP ; CChartAddInBase134221::OnAddInToolCommand
_TEXT	ENDS
; Function compile flags: /Ogtp
; File D:\git\src\IBK\IBK_DRFN\ProjSrc\SrcChartEx\ChartAddIn\ChartDataListViewerAddIn\Include_AddIn_134221\I134221\_ChartAddInBase.h
;	COMDAT ?OnAddInToolCommand@CChartAddInBase134221@@MAEHAAJW4EAICommandType@@PBDPAVCObject@@@Z
_TEXT	SEGMENT
_p_lResult$ = 8						; size = 4
_p_eCommandID$ = 12					; size = 4
_p_szParam$ = 16					; size = 4
_p_pParam$ = 20						; size = 4
?OnAddInToolCommand@CChartAddInBase134221@@MAEHAAJW4EAICommandType@@PBDPAVCObject@@@Z PROC ; CChartAddInBase134221::OnAddInToolCommand, COMDAT
; _this$ = ecx

; 202  : 	virtual BOOL	OnAddInToolCommand(	long &p_lResult, const EAICommandType p_eCommandID, const char *p_szParam, CObject *p_pParam)			{	return FALSE;	}

  00000	33 c0		 xor	 eax, eax
  00002	c2 10 00	 ret	 16			; 00000010H
?OnAddInToolCommand@CChartAddInBase134221@@MAEHAAJW4EAICommandType@@PBDPAVCObject@@@Z ENDP ; CChartAddInBase134221::OnAddInToolCommand
_TEXT	ENDS
; Function compile flags: /Ogtp
; File D:\git\src\IBK\IBK_DRFN\ProjSrc\SrcChartEx\ChartAddIn\ChartDataListViewerAddIn\Include_AddIn_134221\I134221\_ChartAddInBase.h
;	COMDAT ?OnAddInToolCommand@CChartAddInBase134221@@MAEHAAJW4EAICommandType@@PBD@Z
_TEXT	SEGMENT
_p_lResult$ = 8						; size = 4
_p_eCommandID$ = 12					; size = 4
_p_szParam$ = 16					; size = 4
?OnAddInToolCommand@CChartAddInBase134221@@MAEHAAJW4EAICommandType@@PBD@Z PROC ; CChartAddInBase134221::OnAddInToolCommand, COMDAT
; _this$ = ecx

; 201  : 	virtual BOOL	OnAddInToolCommand(	long &p_lResult, const EAICommandType p_eCommandID, const char *p_szParam)								{	return FALSE;	}

  00000	33 c0		 xor	 eax, eax
  00002	c2 0c 00	 ret	 12			; 0000000cH
?OnAddInToolCommand@CChartAddInBase134221@@MAEHAAJW4EAICommandType@@PBD@Z ENDP ; CChartAddInBase134221::OnAddInToolCommand
_TEXT	ENDS
; Function compile flags: /Ogtp
; File D:\git\src\IBK\IBK_DRFN\ProjSrc\SrcChartEx\ChartAddIn\ChartDataListViewerAddIn\Include_AddIn_134221\I134221\_ChartAddInBase.h
;	COMDAT ?OnAddInToolCommand@CChartAddInBase134221@@MAEHAAJW4EAICommandType@@PAUIGraphInfo134221@@@Z
_TEXT	SEGMENT
_p_lResult$ = 8						; size = 4
_p_eCommandID$ = 12					; size = 4
_p_pIGraphInfo$ = 16					; size = 4
?OnAddInToolCommand@CChartAddInBase134221@@MAEHAAJW4EAICommandType@@PAUIGraphInfo134221@@@Z PROC ; CChartAddInBase134221::OnAddInToolCommand, COMDAT
; _this$ = ecx

; 200  : 	virtual BOOL	OnAddInToolCommand(	long &p_lResult, const EAICommandType p_eCommandID, IGraphInfo *p_pIGraphInfo)							{	return FALSE;	}

  00000	33 c0		 xor	 eax, eax
  00002	c2 0c 00	 ret	 12			; 0000000cH
?OnAddInToolCommand@CChartAddInBase134221@@MAEHAAJW4EAICommandType@@PAUIGraphInfo134221@@@Z ENDP ; CChartAddInBase134221::OnAddInToolCommand
_TEXT	ENDS
; Function compile flags: /Ogtp
; File D:\git\src\IBK\IBK_DRFN\ProjSrc\SrcChartEx\ChartAddIn\ChartDataListViewerAddIn\Include_AddIn_134221\I134221\_ChartAddInBase.h
;	COMDAT ?OnAddInToolCommand@CChartAddInBase134221@@MAEHAAJW4EAICommandType@@@Z
_TEXT	SEGMENT
_p_lResult$ = 8						; size = 4
_p_eCommandID$ = 12					; size = 4
?OnAddInToolCommand@CChartAddInBase134221@@MAEHAAJW4EAICommandType@@@Z PROC ; CChartAddInBase134221::OnAddInToolCommand, COMDAT
; _this$ = ecx

; 199  : 	virtual BOOL	OnAddInToolCommand(	long &p_lResult, const EAICommandType p_eCommandID)														{	return FALSE;	}

  00000	33 c0		 xor	 eax, eax
  00002	c2 08 00	 ret	 8
?OnAddInToolCommand@CChartAddInBase134221@@MAEHAAJW4EAICommandType@@@Z ENDP ; CChartAddInBase134221::OnAddInToolCommand
_TEXT	ENDS
; Function compile flags: /Ogtp
; File D:\git\src\IBK\IBK_DRFN\ProjSrc\SrcChartEx\ChartAddIn\ChartDataListViewerAddIn\Include_AddIn_134221\I134221\_ChartAddInBase.h
;	COMDAT ?OnAddInToolCommand@CChartAddInBase134221@@MAEHW4EAICommandType@@JJJJJJJJJ@Z
_TEXT	SEGMENT
_p_eCommandID$ = 8					; size = 4
_p_lParam1$ = 12					; size = 4
_p_lParam2$ = 16					; size = 4
_p_lParam3$ = 20					; size = 4
_p_lParam4$ = 24					; size = 4
_p_lParam5$ = 28					; size = 4
_p_lParam6$ = 32					; size = 4
_p_lParam7$ = 36					; size = 4
_p_lParam8$ = 40					; size = 4
_p_lParam9$ = 44					; size = 4
?OnAddInToolCommand@CChartAddInBase134221@@MAEHW4EAICommandType@@JJJJJJJJJ@Z PROC ; CChartAddInBase134221::OnAddInToolCommand, COMDAT
; _this$ = ecx

; 198  : 	virtual BOOL	OnAddInToolCommand(	const EAICommandType p_eCommandID, const long p_lParam1, const long p_lParam2, const long p_lParam3, const long p_lParam4, const long p_lParam5, const long p_lParam6, const long p_lParam7, const long p_lParam8, const long p_lParam9)	{	return FALSE;	}

  00000	33 c0		 xor	 eax, eax
  00002	c2 28 00	 ret	 40			; 00000028H
?OnAddInToolCommand@CChartAddInBase134221@@MAEHW4EAICommandType@@JJJJJJJJJ@Z ENDP ; CChartAddInBase134221::OnAddInToolCommand
_TEXT	ENDS
; Function compile flags: /Ogtp
; File D:\git\src\IBK\IBK_DRFN\ProjSrc\SrcChartEx\ChartAddIn\ChartDataListViewerAddIn\Include_AddIn_134221\I134221\_ChartAddInBase.h
;	COMDAT ?OnAddInToolCommand@CChartAddInBase134221@@MAEHW4EAICommandType@@JJ@Z
_TEXT	SEGMENT
_p_eCommandID$ = 8					; size = 4
_p_lParam1$ = 12					; size = 4
_p_lParam2$ = 16					; size = 4
?OnAddInToolCommand@CChartAddInBase134221@@MAEHW4EAICommandType@@JJ@Z PROC ; CChartAddInBase134221::OnAddInToolCommand, COMDAT
; _this$ = ecx

; 197  : 	virtual BOOL	OnAddInToolCommand(	const EAICommandType p_eCommandID, const long p_lParam1, const long p_lParam2)							{	return FALSE;	}

  00000	33 c0		 xor	 eax, eax
  00002	c2 0c 00	 ret	 12			; 0000000cH
?OnAddInToolCommand@CChartAddInBase134221@@MAEHW4EAICommandType@@JJ@Z ENDP ; CChartAddInBase134221::OnAddInToolCommand
_TEXT	ENDS
; Function compile flags: /Ogtp
; File D:\git\src\IBK\IBK_DRFN\ProjSrc\SrcChartEx\ChartAddIn\ChartDataListViewerAddIn\Include_AddIn_134221\I134221\_ChartAddInBase.h
;	COMDAT ?OnAddInToolCommand@CChartAddInBase134221@@MAEHW4EAICommandType@@JPBD11@Z
_TEXT	SEGMENT
_p_eCommandID$ = 8					; size = 4
_p_lParam$ = 12						; size = 4
_p_szParam1$ = 16					; size = 4
_p_szParam2$ = 20					; size = 4
_p_szParam3$ = 24					; size = 4
?OnAddInToolCommand@CChartAddInBase134221@@MAEHW4EAICommandType@@JPBD11@Z PROC ; CChartAddInBase134221::OnAddInToolCommand, COMDAT
; _this$ = ecx

; 196  : 	virtual BOOL	OnAddInToolCommand( const EAICommandType p_eCommandID, const long p_lParam, const char *p_szParam1, const char *p_szParam2, const char *p_szParam3)	{	return FALSE;	}

  00000	33 c0		 xor	 eax, eax
  00002	c2 14 00	 ret	 20			; 00000014H
?OnAddInToolCommand@CChartAddInBase134221@@MAEHW4EAICommandType@@JPBD11@Z ENDP ; CChartAddInBase134221::OnAddInToolCommand
_TEXT	ENDS
; Function compile flags: /Ogtp
; File D:\git\src\IBK\IBK_DRFN\ProjSrc\SrcChartEx\ChartAddIn\ChartDataListViewerAddIn\Include_AddIn_134221\I134221\_ChartAddInBase.h
;	COMDAT ?OnAddInToolCommand@CChartAddInBase134221@@MAEHW4EAICommandType@@JPBD@Z
_TEXT	SEGMENT
_p_eCommandID$ = 8					; size = 4
_p_lParam$ = 12						; size = 4
_p_szParam$ = 16					; size = 4
?OnAddInToolCommand@CChartAddInBase134221@@MAEHW4EAICommandType@@JPBD@Z PROC ; CChartAddInBase134221::OnAddInToolCommand, COMDAT
; _this$ = ecx

; 195  : 	virtual BOOL	OnAddInToolCommand( const EAICommandType p_eCommandID, const long p_lParam, const char *p_szParam)							{	return FALSE;	}

  00000	33 c0		 xor	 eax, eax
  00002	c2 0c 00	 ret	 12			; 0000000cH
?OnAddInToolCommand@CChartAddInBase134221@@MAEHW4EAICommandType@@JPBD@Z ENDP ; CChartAddInBase134221::OnAddInToolCommand
_TEXT	ENDS
; Function compile flags: /Ogtp
; File D:\git\src\IBK\IBK_DRFN\ProjSrc\SrcChartEx\ChartAddIn\ChartDataListViewerAddIn\Include_AddIn_134221\I134221\_ChartAddInBase.h
;	COMDAT ?OnAddInToolCommand@CChartAddInBase134221@@MAEHW4EAICommandType@@J@Z
_TEXT	SEGMENT
_p_eCommandID$ = 8					; size = 4
_p_lParam$ = 12						; size = 4
?OnAddInToolCommand@CChartAddInBase134221@@MAEHW4EAICommandType@@J@Z PROC ; CChartAddInBase134221::OnAddInToolCommand, COMDAT
; _this$ = ecx

; 194  : 	virtual BOOL	OnAddInToolCommand(	const EAICommandType p_eCommandID, const long p_lParam)													{	return FALSE;	}

  00000	33 c0		 xor	 eax, eax
  00002	c2 08 00	 ret	 8
?OnAddInToolCommand@CChartAddInBase134221@@MAEHW4EAICommandType@@J@Z ENDP ; CChartAddInBase134221::OnAddInToolCommand
_TEXT	ENDS
; Function compile flags: /Ogtp
; File D:\git\src\IBK\IBK_DRFN\ProjSrc\SrcChartEx\ChartAddIn\ChartDataListViewerAddIn\Include_AddIn_134221\I134221\_ChartAddInBase.h
;	COMDAT ?OnAddInToolCommand@CChartAddInBase134221@@MAEHW4EAICommandType@@PBUIAddInDllBase@@@Z
_TEXT	SEGMENT
_p_eCommandID$ = 8					; size = 4
_p_pParam$ = 12						; size = 4
?OnAddInToolCommand@CChartAddInBase134221@@MAEHW4EAICommandType@@PBUIAddInDllBase@@@Z PROC ; CChartAddInBase134221::OnAddInToolCommand, COMDAT
; _this$ = ecx

; 193  : 	virtual BOOL	OnAddInToolCommand(	const EAICommandType p_eCommandID, const IAddInDllBase *p_pParam)										{	return FALSE;	}

  00000	33 c0		 xor	 eax, eax
  00002	c2 08 00	 ret	 8
?OnAddInToolCommand@CChartAddInBase134221@@MAEHW4EAICommandType@@PBUIAddInDllBase@@@Z ENDP ; CChartAddInBase134221::OnAddInToolCommand
_TEXT	ENDS
; Function compile flags: /Ogtp
; File D:\git\src\IBK\IBK_DRFN\ProjSrc\SrcChartEx\ChartAddIn\ChartDataListViewerAddIn\Include_AddIn_134221\I134221\_ChartAddInBase.h
;	COMDAT ?OnAddInToolCommand@CChartAddInBase134221@@MAEHW4EAICommandType@@PBD1@Z
_TEXT	SEGMENT
_p_eCommandID$ = 8					; size = 4
_p_szParam1$ = 12					; size = 4
_p_szParam2$ = 16					; size = 4
?OnAddInToolCommand@CChartAddInBase134221@@MAEHW4EAICommandType@@PBD1@Z PROC ; CChartAddInBase134221::OnAddInToolCommand, COMDAT
; _this$ = ecx

; 191  : 	virtual BOOL	OnAddInToolCommand(	const EAICommandType p_eCommandID, const char *p_szParam1, const char *p_szParam2)						{	return FALSE;	}

  00000	33 c0		 xor	 eax, eax
  00002	c2 0c 00	 ret	 12			; 0000000cH
?OnAddInToolCommand@CChartAddInBase134221@@MAEHW4EAICommandType@@PBD1@Z ENDP ; CChartAddInBase134221::OnAddInToolCommand
_TEXT	ENDS
; Function compile flags: /Ogtp
; File D:\git\src\IBK\IBK_DRFN\ProjSrc\SrcChartEx\ChartAddIn\ChartDataListViewerAddIn\Include_AddIn_134221\I134221\_ChartAddInBase.h
;	COMDAT ?OnAddInToolCommand@CChartAddInBase134221@@MAEHW4EAICommandType@@PBD@Z
_TEXT	SEGMENT
_p_eCommandID$ = 8					; size = 4
_p_szParam$ = 12					; size = 4
?OnAddInToolCommand@CChartAddInBase134221@@MAEHW4EAICommandType@@PBD@Z PROC ; CChartAddInBase134221::OnAddInToolCommand, COMDAT
; _this$ = ecx

; 190  : 	virtual BOOL	OnAddInToolCommand(	const EAICommandType p_eCommandID, const char *p_szParam)												{	return FALSE;	}

  00000	33 c0		 xor	 eax, eax
  00002	c2 08 00	 ret	 8
?OnAddInToolCommand@CChartAddInBase134221@@MAEHW4EAICommandType@@PBD@Z ENDP ; CChartAddInBase134221::OnAddInToolCommand
_TEXT	ENDS
; Function compile flags: /Ogtp
; File D:\git\src\IBK\IBK_DRFN\ProjSrc\SrcChartEx\ChartAddIn\ChartDataListViewerAddIn\Include_AddIn_134221\I134221\_ChartAddInBase.h
;	COMDAT ?OnAddInToolCommand@CChartAddInBase134221@@MAEHW4EAICommandType@@PAUHDC__@@IAAUtagPOINT@@K@Z
_TEXT	SEGMENT
_p_eCommandID$ = 8					; size = 4
_p_hDC$ = 12						; size = 4
_nFlags$ = 16						; size = 4
_point$ = 20						; size = 4
_p_dwMouseActionID$ = 24				; size = 4
?OnAddInToolCommand@CChartAddInBase134221@@MAEHW4EAICommandType@@PAUHDC__@@IAAUtagPOINT@@K@Z PROC ; CChartAddInBase134221::OnAddInToolCommand, COMDAT
; _this$ = ecx

; 189  : 	virtual BOOL	OnAddInToolCommand(	const EAICommandType p_eCommandID, HDC p_hDC, UINT nFlags, POINT &point, const DWORD p_dwMouseActionID)	{	return FALSE;	}

  00000	33 c0		 xor	 eax, eax
  00002	c2 14 00	 ret	 20			; 00000014H
?OnAddInToolCommand@CChartAddInBase134221@@MAEHW4EAICommandType@@PAUHDC__@@IAAUtagPOINT@@K@Z ENDP ; CChartAddInBase134221::OnAddInToolCommand
_TEXT	ENDS
; Function compile flags: /Ogtp
; File D:\git\src\IBK\IBK_DRFN\ProjSrc\SrcChartEx\ChartAddIn\ChartDataListViewerAddIn\Include_AddIn_134221\I134221\_ChartAddInBase.h
;	COMDAT ?OnAddInToolCommand@CChartAddInBase134221@@MAEHW4EAICommandType@@@Z
_TEXT	SEGMENT
_p_eCommandID$ = 8					; size = 4
?OnAddInToolCommand@CChartAddInBase134221@@MAEHW4EAICommandType@@@Z PROC ; CChartAddInBase134221::OnAddInToolCommand, COMDAT
; _this$ = ecx

; 188  : 	virtual BOOL	OnAddInToolCommand(	const EAICommandType p_eCommandID)																		{	return FALSE;	}

  00000	33 c0		 xor	 eax, eax
  00002	c2 04 00	 ret	 4
?OnAddInToolCommand@CChartAddInBase134221@@MAEHW4EAICommandType@@@Z ENDP ; CChartAddInBase134221::OnAddInToolCommand
_TEXT	ENDS
; Function compile flags: /Ogtp
; File D:\git\src\IBK\IBK_DRFN\ProjSrc\SrcChartEx\ChartAddIn\ChartDataListViewerAddIn\Include_AddIn_134221\I134221\_ChartAddInBase.h
;	COMDAT ?OnAddInMsg@CChartAddInBase134221@@MAEHPBDJ@Z
_TEXT	SEGMENT
_p_szAddInItemName$ = 8					; size = 4
_p_lParam$ = 12						; size = 4
?OnAddInMsg@CChartAddInBase134221@@MAEHPBDJ@Z PROC	; CChartAddInBase134221::OnAddInMsg, COMDAT
; _this$ = ecx

; 187  : 	virtual BOOL	OnAddInMsg(			const char *p_szAddInItemName, const long p_lParam)														{	return FALSE;	}

  00000	33 c0		 xor	 eax, eax
  00002	c2 08 00	 ret	 8
?OnAddInMsg@CChartAddInBase134221@@MAEHPBDJ@Z ENDP	; CChartAddInBase134221::OnAddInMsg
_TEXT	ENDS
; Function compile flags: /Ogtp
; File D:\git\src\IBK\IBK_DRFN\ProjSrc\SrcChartEx\ChartAddIn\ChartDataListViewerAddIn\Include_AddIn_134221\I134221\_ChartAddInBase.h
;	COMDAT ?OnPreRealPacketEnd@CChartAddInBase134221@@MAEHPBD@Z
_TEXT	SEGMENT
_p_szRQ$ = 8						; size = 4
?OnPreRealPacketEnd@CChartAddInBase134221@@MAEHPBD@Z PROC ; CChartAddInBase134221::OnPreRealPacketEnd, COMDAT
; _this$ = ecx

; 180  : 	virtual BOOL	OnPreRealPacketEnd( const char *p_szRQ = NULL)											{	return TRUE;	}

  00000	b8 01 00 00 00	 mov	 eax, 1
  00005	c2 04 00	 ret	 4
?OnPreRealPacketEnd@CChartAddInBase134221@@MAEHPBD@Z ENDP ; CChartAddInBase134221::OnPreRealPacketEnd
_TEXT	ENDS
; Function compile flags: /Ogtp
; File D:\git\src\IBK\IBK_DRFN\ProjSrc\SrcChartEx\ChartAddIn\ChartDataListViewerAddIn\Include_AddIn_134221\I134221\_ChartAddInBase.h
;	COMDAT ?OnPreIndexedRealData@CChartAddInBase134221@@MAEHPBDHAAN@Z
_TEXT	SEGMENT
_p_szPacketName$ = 8					; size = 4
_p_nIndex$ = 12						; size = 4
_p_dData$ = 16						; size = 4
?OnPreIndexedRealData@CChartAddInBase134221@@MAEHPBDHAAN@Z PROC ; CChartAddInBase134221::OnPreIndexedRealData, COMDAT
; _this$ = ecx

; 179  : 	virtual BOOL	OnPreIndexedRealData( const char *p_szPacketName, const int p_nIndex, double &p_dData)	{	return TRUE;	}

  00000	b8 01 00 00 00	 mov	 eax, 1
  00005	c2 0c 00	 ret	 12			; 0000000cH
?OnPreIndexedRealData@CChartAddInBase134221@@MAEHPBDHAAN@Z ENDP ; CChartAddInBase134221::OnPreIndexedRealData
_TEXT	ENDS
; Function compile flags: /Ogtp
; File D:\git\src\IBK\IBK_DRFN\ProjSrc\SrcChartEx\ChartAddIn\ChartDataListViewerAddIn\Include_AddIn_134221\I134221\_ChartAddInBase.h
;	COMDAT ?OnPreRealData@CChartAddInBase134221@@MAEHPBDAAN0@Z
_TEXT	SEGMENT
_p_szPacketName$ = 8					; size = 4
_p_dData$ = 12						; size = 4
_p_szRQ$ = 16						; size = 4
?OnPreRealData@CChartAddInBase134221@@MAEHPBDAAN0@Z PROC ; CChartAddInBase134221::OnPreRealData, COMDAT
; _this$ = ecx

; 178  : 	virtual BOOL	OnPreRealData( const char *p_szPacketName, double &p_dData, const char *p_szRQ = NULL)	{	return TRUE;	}

  00000	b8 01 00 00 00	 mov	 eax, 1
  00005	c2 0c 00	 ret	 12			; 0000000cH
?OnPreRealData@CChartAddInBase134221@@MAEHPBDAAN0@Z ENDP ; CChartAddInBase134221::OnPreRealData
_TEXT	ENDS
; Function compile flags: /Ogtp
; File D:\git\src\IBK\IBK_DRFN\ProjSrc\SrcChartEx\ChartAddIn\ChartDataListViewerAddIn\Include_AddIn_134221\I134221\_ChartAddInBase.h
;	COMDAT ?DrawCursor@CChartAddInBase134221@@MAE?AUtagRECT@@PAUHDC__@@@Z
_TEXT	SEGMENT
___$ReturnUdt$ = 8					; size = 4
_p_hDC$ = 12						; size = 4
?DrawCursor@CChartAddInBase134221@@MAE?AUtagRECT@@PAUHDC__@@@Z PROC ; CChartAddInBase134221::DrawCursor, COMDAT
; _this$ = ecx

; 172  : 	virtual RECT	DrawCursor( HDC p_hDC)								{	RECT rct = { 0, 0, 0, 0};	return rct;		}

  00000	55		 push	 ebp
  00001	8b ec		 mov	 ebp, esp
  00003	8b 45 08	 mov	 eax, DWORD PTR ___$ReturnUdt$[ebp]
  00006	c7 00 00 00 00
	00		 mov	 DWORD PTR [eax], 0
  0000c	c7 40 04 00 00
	00 00		 mov	 DWORD PTR [eax+4], 0
  00013	c7 40 08 00 00
	00 00		 mov	 DWORD PTR [eax+8], 0
  0001a	c7 40 0c 00 00
	00 00		 mov	 DWORD PTR [eax+12], 0
  00021	5d		 pop	 ebp
  00022	c2 08 00	 ret	 8
?DrawCursor@CChartAddInBase134221@@MAE?AUtagRECT@@PAUHDC__@@@Z ENDP ; CChartAddInBase134221::DrawCursor
_TEXT	ENDS
; Function compile flags: /Ogtp
; File D:\git\src\IBK\IBK_DRFN\ProjSrc\SrcChartEx\ChartAddIn\ChartDataListViewerAddIn\Include_AddIn_134221\I134221\_ChartAddInBase.h
;	COMDAT ?OnSaveEnvironment@CChartAddInBase134221@@MAEXPAUIPropertyMap@@@Z
_TEXT	SEGMENT
_p_pIAddInEnvMap$ = 8					; size = 4
?OnSaveEnvironment@CChartAddInBase134221@@MAEXPAUIPropertyMap@@@Z PROC ; CChartAddInBase134221::OnSaveEnvironment, COMDAT
; _this$ = ecx

; 170  : 	virtual void	OnSaveEnvironment( IPropertyMap *p_pIAddInEnvMap)	{}

  00000	c2 04 00	 ret	 4
?OnSaveEnvironment@CChartAddInBase134221@@MAEXPAUIPropertyMap@@@Z ENDP ; CChartAddInBase134221::OnSaveEnvironment
_TEXT	ENDS
; Function compile flags: /Ogtp
; File D:\git\src\IBK\IBK_DRFN\ProjSrc\SrcChartEx\ChartAddIn\ChartDataListViewerAddIn\Include_AddIn_134221\I134221\_ChartAddInBase.h
;	COMDAT ?OnLoadEnvironment@CChartAddInBase134221@@MAEXPAUIPropertyMap@@@Z
_TEXT	SEGMENT
_p_pIAddInEnvMap$ = 8					; size = 4
?OnLoadEnvironment@CChartAddInBase134221@@MAEXPAUIPropertyMap@@@Z PROC ; CChartAddInBase134221::OnLoadEnvironment, COMDAT
; _this$ = ecx

; 169  : 	virtual void	OnLoadEnvironment( IPropertyMap *p_pIAddInEnvMap)	{}

  00000	c2 04 00	 ret	 4
?OnLoadEnvironment@CChartAddInBase134221@@MAEXPAUIPropertyMap@@@Z ENDP ; CChartAddInBase134221::OnLoadEnvironment
_TEXT	ENDS
; Function compile flags: /Ogtp
; File D:\git\src\IBK\IBK_DRFN\ProjSrc\SrcChartEx\ChartAddIn\ChartDataListViewerAddIn\Include_AddIn_134221\I134221\_ChartAddInBase.h
;	COMDAT ?OnIndexedRealData@CChartAddInBase134221@@MAEXPBDHN@Z
_TEXT	SEGMENT
_p_szPacketName$ = 8					; size = 4
_p_nIndex$ = 12						; size = 4
_p_dData$ = 16						; size = 8
?OnIndexedRealData@CChartAddInBase134221@@MAEXPBDHN@Z PROC ; CChartAddInBase134221::OnIndexedRealData, COMDAT
; _this$ = ecx

; 165  : 	virtual void	OnIndexedRealData( const char *p_szPacketName, const int p_nIndex, double p_dData)		{}

  00000	c2 10 00	 ret	 16			; 00000010H
?OnIndexedRealData@CChartAddInBase134221@@MAEXPBDHN@Z ENDP ; CChartAddInBase134221::OnIndexedRealData
_TEXT	ENDS
; Function compile flags: /Ogtp
; File D:\git\src\IBK\IBK_DRFN\ProjSrc\SrcChartEx\ChartAddIn\ChartDataListViewerAddIn\Include_AddIn_134221\I134221\_ChartAddInBase.h
;	COMDAT ?OnRealData@CChartAddInBase134221@@MAEXPBDN0@Z
_TEXT	SEGMENT
_p_szPacketName$ = 8					; size = 4
_p_dData$ = 12						; size = 8
_p_szRQ$ = 20						; size = 4
?OnRealData@CChartAddInBase134221@@MAEXPBDN0@Z PROC	; CChartAddInBase134221::OnRealData, COMDAT
; _this$ = ecx

; 164  : 	virtual void	OnRealData( const char *p_szPacketName, double p_dData, const char *p_szRQ)			{}

  00000	c2 10 00	 ret	 16			; 00000010H
?OnRealData@CChartAddInBase134221@@MAEXPBDN0@Z ENDP	; CChartAddInBase134221::OnRealData
_TEXT	ENDS
; Function compile flags: /Ogtp
; File D:\git\src\IBK\IBK_DRFN\ProjSrc\SrcChartEx\ChartAddIn\ChartDataListViewerAddIn\Include_AddIn_134221\I134221\_ChartAddInBase.h
;	COMDAT ?OnBlockChanged@CChartAddInBase134221@@MAEXW4BLOCKBEHAVIOR@CBlockBaseData@@HHHH@Z
_TEXT	SEGMENT
_p_eChangeType$ = 8					; size = 4
_p_nSourceRow$ = 12					; size = 4
_p_nSourceColumn$ = 16					; size = 4
_p_nTargetRow$ = 20					; size = 4
_p_nTargetColumn$ = 24					; size = 4
?OnBlockChanged@CChartAddInBase134221@@MAEXW4BLOCKBEHAVIOR@CBlockBaseData@@HHHH@Z PROC ; CChartAddInBase134221::OnBlockChanged, COMDAT
; _this$ = ecx

; 160  : 	virtual void	OnBlockChanged( const CBlockBaseData::BLOCKBEHAVIOR p_eChangeType, const int p_nSourceRow, const int p_nSourceColumn, const int p_nTargetRow, const int p_nTargetColumn)	{}

  00000	c2 14 00	 ret	 20			; 00000014H
?OnBlockChanged@CChartAddInBase134221@@MAEXW4BLOCKBEHAVIOR@CBlockBaseData@@HHHH@Z ENDP ; CChartAddInBase134221::OnBlockChanged
_TEXT	ENDS
; Function compile flags: /Ogtp
; File D:\git\src\IBK\IBK_DRFN\ProjSrc\SrcChartEx\ChartAddIn\ChartDataListViewerAddIn\Include_AddIn_134221\I134221\_ChartAddInBase.h
;	COMDAT ?OnPacketTruncated@CChartAddInBase134221@@MAEXH@Z
_TEXT	SEGMENT
_p_nDataCount$ = 8					; size = 4
?OnPacketTruncated@CChartAddInBase134221@@MAEXH@Z PROC	; CChartAddInBase134221::OnPacketTruncated, COMDAT
; _this$ = ecx

; 158  : 	virtual void	OnPacketTruncated( const int p_nDataCount)			{}

  00000	c2 04 00	 ret	 4
?OnPacketTruncated@CChartAddInBase134221@@MAEXH@Z ENDP	; CChartAddInBase134221::OnPacketTruncated
_TEXT	ENDS
; Function compile flags: /Ogtp
; File D:\git\src\IBK\IBK_DRFN\ProjSrc\SrcChartEx\ChartAddIn\ChartDataListViewerAddIn\Include_AddIn_134221\I134221\_ChartAddInBase.h
;	COMDAT ?OnContextMenu@CChartAddInBase134221@@MAEXPAUHWND__@@AAUtagPOINT@@@Z
_TEXT	SEGMENT
_p_hWnd$ = 8						; size = 4
_p_pt$ = 12						; size = 4
?OnContextMenu@CChartAddInBase134221@@MAEXPAUHWND__@@AAUtagPOINT@@@Z PROC ; CChartAddInBase134221::OnContextMenu, COMDAT
; _this$ = ecx

; 154  : 	virtual void	OnContextMenu( HWND p_hWnd, POINT &p_pt)			{}

  00000	c2 08 00	 ret	 8
?OnContextMenu@CChartAddInBase134221@@MAEXPAUHWND__@@AAUtagPOINT@@@Z ENDP ; CChartAddInBase134221::OnContextMenu
_TEXT	ENDS
; Function compile flags: /Ogtp
; File D:\git\src\IBK\IBK_DRFN\ProjSrc\SrcChartEx\ChartAddIn\ChartDataListViewerAddIn\Include_AddIn_134221\I134221\_ChartAddInBase.h
;	COMDAT ?OnManualRealData@CChartAddInBase134221@@MAEXPBDNH@Z
_TEXT	SEGMENT
_p_szPacketName$ = 8					; size = 4
_p_dData$ = 12						; size = 8
_p_nOption$ = 20					; size = 4
?OnManualRealData@CChartAddInBase134221@@MAEXPBDNH@Z PROC ; CChartAddInBase134221::OnManualRealData, COMDAT
; _this$ = ecx

; 152  : 	virtual void	OnManualRealData( const char *p_szPacketName, const double p_dData, const int p_nOption)	{}

  00000	c2 10 00	 ret	 16			; 00000010H
?OnManualRealData@CChartAddInBase134221@@MAEXPBDNH@Z ENDP ; CChartAddInBase134221::OnManualRealData
_TEXT	ENDS
; Function compile flags: /Ogtp
; File D:\git\src\IBK\IBK_DRFN\ProjSrc\SrcChartEx\ChartAddIn\ChartDataListViewerAddIn\Include_AddIn_134221\I134221\_ChartAddInBase.h
;	COMDAT ?OnBlockRemoved@CChartAddInBase134221@@MAEXHH@Z
_TEXT	SEGMENT
_p_nRow$ = 8						; size = 4
_p_nColumn$ = 12					; size = 4
?OnBlockRemoved@CChartAddInBase134221@@MAEXHH@Z PROC	; CChartAddInBase134221::OnBlockRemoved, COMDAT
; _this$ = ecx

; 148  : 	virtual void	OnBlockRemoved( const int p_nRow, const int p_nColumn)	{}

  00000	c2 08 00	 ret	 8
?OnBlockRemoved@CChartAddInBase134221@@MAEXHH@Z ENDP	; CChartAddInBase134221::OnBlockRemoved
_TEXT	ENDS
; Function compile flags: /Ogtp
; File D:\git\src\IBK\IBK_DRFN\ProjSrc\SrcChartEx\ChartAddIn\ChartDataListViewerAddIn\Include_AddIn_134221\I134221\_ChartAddInBase.h
;	COMDAT ?OnGraphDataChanged@CChartAddInBase134221@@MAEXXZ
_TEXT	SEGMENT
?OnGraphDataChanged@CChartAddInBase134221@@MAEXXZ PROC	; CChartAddInBase134221::OnGraphDataChanged, COMDAT
; _this$ = ecx

; 146  : 	virtual void	OnGraphDataChanged( void)							{}

  00000	c2 00 00	 ret	 0
?OnGraphDataChanged@CChartAddInBase134221@@MAEXXZ ENDP	; CChartAddInBase134221::OnGraphDataChanged
_TEXT	ENDS
; Function compile flags: /Ogtp
; File D:\git\src\IBK\IBK_DRFN\ProjSrc\SrcChartEx\ChartAddIn\ChartDataListViewerAddIn\Include_AddIn_134221\I134221\_ChartAddInBase.h
;	COMDAT ?OnChartItemChanged@CChartAddInBase134221@@MAEXXZ
_TEXT	SEGMENT
?OnChartItemChanged@CChartAddInBase134221@@MAEXXZ PROC	; CChartAddInBase134221::OnChartItemChanged, COMDAT
; _this$ = ecx

; 144  : 	virtual void	OnChartItemChanged( void)							{}

  00000	c2 00 00	 ret	 0
?OnChartItemChanged@CChartAddInBase134221@@MAEXXZ ENDP	; CChartAddInBase134221::OnChartItemChanged
_TEXT	ENDS
; Function compile flags: /Ogtp
; File D:\git\src\IBK\IBK_DRFN\ProjSrc\SrcChartEx\ChartAddIn\ChartDataListViewerAddIn\Include_AddIn_134221\I134221\_ChartAddInBase.h
;	COMDAT ?OnUserIndiatorConditionLoaded@CChartAddInBase134221@@MAEXXZ
_TEXT	SEGMENT
?OnUserIndiatorConditionLoaded@CChartAddInBase134221@@MAEXXZ PROC ; CChartAddInBase134221::OnUserIndiatorConditionLoaded, COMDAT
; _this$ = ecx

; 142  : 	virtual void	OnUserIndiatorConditionLoaded( void)				{}

  00000	c2 00 00	 ret	 0
?OnUserIndiatorConditionLoaded@CChartAddInBase134221@@MAEXXZ ENDP ; CChartAddInBase134221::OnUserIndiatorConditionLoaded
_TEXT	ENDS
; Function compile flags: /Ogtp
; File D:\git\src\IBK\IBK_DRFN\ProjSrc\SrcChartEx\ChartAddIn\ChartDataListViewerAddIn\Include_AddIn_134221\I134221\_ChartAddInBase.h
;	COMDAT ?OnResetMainBlock@CChartAddInBase134221@@MAEXXZ
_TEXT	SEGMENT
?OnResetMainBlock@CChartAddInBase134221@@MAEXXZ PROC	; CChartAddInBase134221::OnResetMainBlock, COMDAT
; _this$ = ecx

; 140  : 	virtual void	OnResetMainBlock( void)								{}

  00000	c2 00 00	 ret	 0
?OnResetMainBlock@CChartAddInBase134221@@MAEXXZ ENDP	; CChartAddInBase134221::OnResetMainBlock
_TEXT	ENDS
; Function compile flags: /Ogtp
; File D:\git\src\IBK\IBK_DRFN\ProjSrc\SrcChartEx\ChartAddIn\ChartDataListViewerAddIn\Include_AddIn_134221\I134221\_ChartAddInBase.h
;	COMDAT ?OnCaptureChanged@CChartAddInBase134221@@MAEXPAUHWND__@@QAUHBITMAP__@@@Z
_TEXT	SEGMENT
_p_hWnd$ = 8						; size = 4
_p_hbmpMainOSB$ = 12					; size = 4
?OnCaptureChanged@CChartAddInBase134221@@MAEXPAUHWND__@@QAUHBITMAP__@@@Z PROC ; CChartAddInBase134221::OnCaptureChanged, COMDAT
; _this$ = ecx

; 138  : 	virtual void	OnCaptureChanged( HWND p_hWnd, const HBITMAP p_hbmpMainOSB)	{}	// (2006/11/5 - Seung-Won, Bae) Support MainOSB

  00000	c2 08 00	 ret	 8
?OnCaptureChanged@CChartAddInBase134221@@MAEXPAUHWND__@@QAUHBITMAP__@@@Z ENDP ; CChartAddInBase134221::OnCaptureChanged
_TEXT	ENDS
; Function compile flags: /Ogtp
; File D:\git\src\IBK\IBK_DRFN\ProjSrc\SrcChartEx\ChartAddIn\ChartDataListViewerAddIn\Include_AddIn_134221\I134221\_ChartAddInBase.h
;	COMDAT ?OnTimer@CChartAddInBase134221@@MAEXI@Z
_TEXT	SEGMENT
_p_uTimerID$ = 8					; size = 4
?OnTimer@CChartAddInBase134221@@MAEXI@Z PROC		; CChartAddInBase134221::OnTimer, COMDAT
; _this$ = ecx

; 133  : 	virtual void	OnTimer( UINT p_uTimerID)	{}

  00000	c2 04 00	 ret	 4
?OnTimer@CChartAddInBase134221@@MAEXI@Z ENDP		; CChartAddInBase134221::OnTimer
_TEXT	ENDS
; Function compile flags: /Ogtp
; File D:\git\src\IBK\IBK_DRFN\ProjSrc\SrcChartEx\ChartAddIn\ChartDataListViewerAddIn\Include_AddIn_134221\I134221\_ChartAddInBase.h
;	COMDAT ?OnDrawAfterGraph@CChartAddInBase134221@@MAEXPAUHDC__@@@Z
_TEXT	SEGMENT
_p_hDC$ = 8						; size = 4
?OnDrawAfterGraph@CChartAddInBase134221@@MAEXPAUHDC__@@@Z PROC ; CChartAddInBase134221::OnDrawAfterGraph, COMDAT
; _this$ = ecx

; 129  : 	virtual void	OnDrawAfterGraph( HDC p_hDC)	{}

  00000	c2 04 00	 ret	 4
?OnDrawAfterGraph@CChartAddInBase134221@@MAEXPAUHDC__@@@Z ENDP ; CChartAddInBase134221::OnDrawAfterGraph
_TEXT	ENDS
; Function compile flags: /Ogtp
; File D:\git\src\IBK\IBK_DRFN\ProjSrc\SrcChartEx\ChartAddIn\ChartDataListViewerAddIn\Include_AddIn_134221\I134221\_ChartAddInBase.h
;	COMDAT ?OnDrawBeforeGraph@CChartAddInBase134221@@MAEXPAUHDC__@@@Z
_TEXT	SEGMENT
_p_hDC$ = 8						; size = 4
?OnDrawBeforeGraph@CChartAddInBase134221@@MAEXPAUHDC__@@@Z PROC ; CChartAddInBase134221::OnDrawBeforeGraph, COMDAT
; _this$ = ecx

; 127  : 	virtual void	OnDrawBeforeGraph( HDC p_hDC)	{}

  00000	c2 04 00	 ret	 4
?OnDrawBeforeGraph@CChartAddInBase134221@@MAEXPAUHDC__@@@Z ENDP ; CChartAddInBase134221::OnDrawBeforeGraph
_TEXT	ENDS
; Function compile flags: /Ogtp
; File D:\git\src\IBK\IBK_DRFN\ProjSrc\SrcChartEx\ChartAddIn\ChartDataListViewerAddIn\Include_AddIn_134221\I134221\_ChartAddInBase.h
;	COMDAT ?OnResetChart@CChartAddInBase134221@@MAEXXZ
_TEXT	SEGMENT
?OnResetChart@CChartAddInBase134221@@MAEXXZ PROC	; CChartAddInBase134221::OnResetChart, COMDAT
; _this$ = ecx

; 125  : 	virtual void	OnResetChart( void)	{}

  00000	c2 00 00	 ret	 0
?OnResetChart@CChartAddInBase134221@@MAEXXZ ENDP	; CChartAddInBase134221::OnResetChart
_TEXT	ENDS
; Function compile flags: /Ogtp
; File D:\git\src\IBK\IBK_DRFN\ProjSrc\SrcChartEx\ChartAddIn\ChartDataListViewerAddIn\Include_AddIn_134221\I134221\_ChartAddInBase.h
;	COMDAT ?OnLSharedDataChange@CChartAddInBase134221@@MAEXPBD0@Z
_TEXT	SEGMENT
_p_szLShareKey$ = 8					; size = 4
_p_szLShareValue$ = 12					; size = 4
?OnLSharedDataChange@CChartAddInBase134221@@MAEXPBD0@Z PROC ; CChartAddInBase134221::OnLSharedDataChange, COMDAT
; _this$ = ecx

; 123  : 	virtual void	OnLSharedDataChange( const char *p_szLShareKey, const char *p_szLShareValue)	{}

  00000	c2 08 00	 ret	 8
?OnLSharedDataChange@CChartAddInBase134221@@MAEXPBD0@Z ENDP ; CChartAddInBase134221::OnLSharedDataChange
_TEXT	ENDS
; Function compile flags: /Ogtp
; File D:\git\src\IBK\IBK_DRFN\ProjSrc\SrcChartEx\ChartAddIn\ChartDataListViewerAddIn\Include_AddIn_134221\I134221\_ChartAddInBase.h
;	COMDAT ?OnGSharedDataChange@CChartAddInBase134221@@MAEXPBD0H@Z
_TEXT	SEGMENT
_p_szGShareKey$ = 8					; size = 4
_p_szGShareValue$ = 12					; size = 4
_p_bStartShare$ = 16					; size = 4
?OnGSharedDataChange@CChartAddInBase134221@@MAEXPBD0H@Z PROC ; CChartAddInBase134221::OnGSharedDataChange, COMDAT
; _this$ = ecx

; 121  : 	virtual void	OnGSharedDataChange( const char *p_szGShareKey, const char *p_szGShareValue, BOOL p_bStartShare)	{}

  00000	c2 0c 00	 ret	 12			; 0000000cH
?OnGSharedDataChange@CChartAddInBase134221@@MAEXPBD0H@Z ENDP ; CChartAddInBase134221::OnGSharedDataChange
_TEXT	ENDS
; Function compile flags: /Ogtp
; File D:\git\src\IBK\IBK_DRFN\ProjSrc\SrcChartEx\ChartAddIn\ChartDataListViewerAddIn\Include_AddIn_134221\I134221\_ChartAddInBase.h
;	COMDAT ?OnOcxDestroyWindow@CChartAddInBase134221@@MAEXXZ
_TEXT	SEGMENT
?OnOcxDestroyWindow@CChartAddInBase134221@@MAEXXZ PROC	; CChartAddInBase134221::OnOcxDestroyWindow, COMDAT
; _this$ = ecx

; 111  : 	virtual void	OnOcxDestroyWindow( void)							{	m_bOcxDestroyed = TRUE;	}

  00000	c7 41 34 01 00
	00 00		 mov	 DWORD PTR [ecx+52], 1
  00007	c3		 ret	 0
?OnOcxDestroyWindow@CChartAddInBase134221@@MAEXXZ ENDP	; CChartAddInBase134221::OnOcxDestroyWindow
_TEXT	ENDS
; Function compile flags: /Ogtp
; File D:\git\src\IBK\IBK_DRFN\ProjSrc\SrcChartEx\ChartAddIn\ChartDataListViewerAddIn\Include_AddIn_134221\I134221\_ChartAddInBase.h
;	COMDAT ?InvokeAddInStr@CChartAddInBase134221@@MAEHPBD0@Z
_TEXT	SEGMENT
_p_szCommandName$ = 8					; size = 4
_p_szData$ = 12						; size = 4
?InvokeAddInStr@CChartAddInBase134221@@MAEHPBD0@Z PROC	; CChartAddInBase134221::InvokeAddInStr, COMDAT
; _this$ = ecx

; 96   : 	virtual BOOL	InvokeAddInStr( LPCTSTR p_szCommandName, LPCTSTR p_szData)	{	return FALSE;	}	// (2005/9/2 - Seung-Won, Bae) for String Data

  00000	33 c0		 xor	 eax, eax
  00002	c2 08 00	 ret	 8
?InvokeAddInStr@CChartAddInBase134221@@MAEHPBD0@Z ENDP	; CChartAddInBase134221::InvokeAddInStr
_TEXT	ENDS
; Function compile flags: /Ogtp
; File D:\git\src\IBK\IBK_DRFN\ProjSrc\SrcChartEx\ChartAddIn\ChartDataListViewerAddIn\Include_AddIn_134221\I134221\_ChartAddInBase.h
;	COMDAT ?InvokeAddIn@CChartAddInBase134221@@MAEHHJ@Z
_TEXT	SEGMENT
_p_nCommandType$ = 8					; size = 4
_p_lData$ = 12						; size = 4
?InvokeAddIn@CChartAddInBase134221@@MAEHHJ@Z PROC	; CChartAddInBase134221::InvokeAddIn, COMDAT
; _this$ = ecx

; 95   : 	virtual BOOL	InvokeAddIn( int p_nCommandType, long p_lData)	{	return FALSE;	}

  00000	33 c0		 xor	 eax, eax
  00002	c2 08 00	 ret	 8
?InvokeAddIn@CChartAddInBase134221@@MAEHHJ@Z ENDP	; CChartAddInBase134221::InvokeAddIn
_TEXT	ENDS
; Function compile flags: /Ogtp
; File D:\git\src\IBK\IBK_DRFN\ProjSrc\SrcChartEx\ChartAddIn\ChartDataListViewerAddIn\Include_AddIn_134221\I134221\_ChartAddInBase.h
;	COMDAT ?GetAddInCustomInterface@CChartAddInBase134221@@MAEPAUIUnknown@@XZ
_TEXT	SEGMENT
?GetAddInCustomInterface@CChartAddInBase134221@@MAEPAUIUnknown@@XZ PROC ; CChartAddInBase134221::GetAddInCustomInterface, COMDAT
; _this$ = ecx

; 91   : 	virtual IUnknown *	GetAddInCustomInterface( void)				{	return NULL;	}

  00000	33 c0		 xor	 eax, eax
  00002	c3		 ret	 0
?GetAddInCustomInterface@CChartAddInBase134221@@MAEPAUIUnknown@@XZ ENDP ; CChartAddInBase134221::GetAddInCustomInterface
_TEXT	ENDS
; Function compile flags: /Ogtp
; File D:\git\src\IBK\IBK_DRFN\ProjSrc\SrcChartEx\ChartAddIn\ChartDataListViewerAddIn\Include_AddIn_134221\I134221\_ChartAddInBase.h
;	COMDAT ?QueryInterface@CChartAddInBase134221@@MAGJABU_GUID@@PAPAX@Z
_TEXT	SEGMENT
_this$ = 8						; size = 4
_iid$ = 12						; size = 4
_ppvObject$ = 16					; size = 4
?QueryInterface@CChartAddInBase134221@@MAGJABU_GUID@@PAPAX@Z PROC ; CChartAddInBase134221::QueryInterface, COMDAT

; 54   : 	_IWRAPPER_IUNKNOWN_INTERFACE()

  00000	b8 02 40 00 80	 mov	 eax, -2147467262	; 80004002H
  00005	c2 0c 00	 ret	 12			; 0000000cH
?QueryInterface@CChartAddInBase134221@@MAGJABU_GUID@@PAPAX@Z ENDP ; CChartAddInBase134221::QueryInterface
_TEXT	ENDS
; Function compile flags: /Ogtp
; File D:\git\src\IBK\IBK_DRFN\ProjSrc\SrcChartEx\ChartAddIn\ChartDataListViewerAddIn\Include_AddIn_134221\I134221\_ChartAddInBase.h
;	COMDAT ?Release@CChartAddInBase134221@@MAGKXZ
_TEXT	SEGMENT
_this$ = 8						; size = 4
?Release@CChartAddInBase134221@@MAGKXZ PROC		; CChartAddInBase134221::Release, COMDAT

; 54   : 	_IWRAPPER_IUNKNOWN_INTERFACE()

  00000	55		 push	 ebp
  00001	8b ec		 mov	 ebp, esp
  00003	5d		 pop	 ebp
  00004	e9 00 00 00 00	 jmp	 ?Release@CIWUnknown@@MAGKXZ ; CIWUnknown::Release
?Release@CChartAddInBase134221@@MAGKXZ ENDP		; CChartAddInBase134221::Release
_TEXT	ENDS
; Function compile flags: /Ogtp
; File D:\git\src\IBK\IBK_DRFN\ProjSrc\SrcChartEx\ChartAddIn\ChartDataListViewerAddIn\Include_AddIn_134221\I134221\_ChartAddInBase.h
;	COMDAT ?AddRef@CChartAddInBase134221@@MAGKXZ
_TEXT	SEGMENT
_this$ = 8						; size = 4
?AddRef@CChartAddInBase134221@@MAGKXZ PROC		; CChartAddInBase134221::AddRef, COMDAT

; 54   : 	_IWRAPPER_IUNKNOWN_INTERFACE()

  00000	55		 push	 ebp
  00001	8b ec		 mov	 ebp, esp
  00003	5d		 pop	 ebp
  00004	e9 00 00 00 00	 jmp	 ?AddRef@CIWUnknown@@MAGKXZ ; CIWUnknown::AddRef
?AddRef@CChartAddInBase134221@@MAGKXZ ENDP		; CChartAddInBase134221::AddRef
_TEXT	ENDS
; Function compile flags: /Ogtp
; File D:\git\src\IBK\IBK_DRFN\ProjSrc\SrcChartEx\ChartAddIn\ChartDataListViewerAddIn\Include_AddIn_134221\_IWUnknown.h
;	COMDAT ?PreDestruct@CIWUnknown@@MAEXXZ
_TEXT	SEGMENT
?PreDestruct@CIWUnknown@@MAEXXZ PROC			; CIWUnknown::PreDestruct, COMDAT
; _this$ = ecx

; 48   : 	virtual void	PreDestruct( void)		{}

  00000	c2 00 00	 ret	 0
?PreDestruct@CIWUnknown@@MAEXXZ ENDP			; CIWUnknown::PreDestruct
_TEXT	ENDS
; Function compile flags: /Ogtp
; File D:\git\src\IBK\IBK_DRFN\ProjSrc\SrcChartEx\ChartAddIn\ChartDataListViewerAddIn\Include_AddIn_134221\_IWUnknown.h
;	COMDAT ?PreDestructX@CIWUnknown@@MAEXXZ
_TEXT	SEGMENT
?PreDestructX@CIWUnknown@@MAEXXZ PROC			; CIWUnknown::PreDestructX, COMDAT
; _this$ = ecx

; 47   : 	virtual void	PreDestructX( void)		{}

  00000	c2 00 00	 ret	 0
?PreDestructX@CIWUnknown@@MAEXXZ ENDP			; CIWUnknown::PreDestructX
_TEXT	ENDS
; Function compile flags: /Ogtp
; File D:\git\src\IBK\IBK_DRFN\ProjSrc\SrcChartEx\ChartAddIn\ChartDataListViewerAddIn\Include_AddIn_134221\_IWUnknown.h
;	COMDAT ?PostConstruct@CIWUnknown@@MAEXXZ
_TEXT	SEGMENT
?PostConstruct@CIWUnknown@@MAEXXZ PROC			; CIWUnknown::PostConstruct, COMDAT
; _this$ = ecx

; 46   : 	virtual void	PostConstruct( void)	{}

  00000	c2 00 00	 ret	 0
?PostConstruct@CIWUnknown@@MAEXXZ ENDP			; CIWUnknown::PostConstruct
_TEXT	ENDS
; Function compile flags: /Ogtp
; File C:\Program Files (x86)\Microsoft Visual Studio\2019\Community\VC\Tools\MSVC\14.29.30133\atlmfc\include\afx.inl
;	COMDAT ?_AfxInitManaged@@YAHXZ
_TEXT	SEGMENT
?_AfxInitManaged@@YAHXZ PROC				; _AfxInitManaged, COMDAT

; 87   : 	return 0;

  00000	33 c0		 xor	 eax, eax

; 88   : }

  00002	c3		 ret	 0
?_AfxInitManaged@@YAHXZ ENDP				; _AfxInitManaged
_TEXT	ENDS
; Function compile flags: /Ogtp
; File C:\Program Files (x86)\Microsoft Visual Studio\2019\Community\VC\Tools\MSVC\14.29.30133\atlmfc\include\afx.inl
;	COMDAT ?Dump@CObject@@UBEXAAVCDumpContext@@@Z
_TEXT	SEGMENT
___formal$ = 8						; size = 4
?Dump@CObject@@UBEXAAVCDumpContext@@@Z PROC		; CObject::Dump, COMDAT
; _this$ = ecx

; 122  : 	{ /* no dumping in release builds */ }

  00000	c2 04 00	 ret	 4
?Dump@CObject@@UBEXAAVCDumpContext@@@Z ENDP		; CObject::Dump
_TEXT	ENDS
; Function compile flags: /Ogtp
; File C:\Program Files (x86)\Microsoft Visual Studio\2019\Community\VC\Tools\MSVC\14.29.30133\atlmfc\include\afx.inl
;	COMDAT ?AssertValid@CObject@@UBEXXZ
_TEXT	SEGMENT
?AssertValid@CObject@@UBEXXZ PROC			; CObject::AssertValid, COMDAT
; _this$ = ecx

; 120  : 	{ /* no asserts in release builds */ }

  00000	c2 00 00	 ret	 0
?AssertValid@CObject@@UBEXXZ ENDP			; CObject::AssertValid
_TEXT	ENDS
; Function compile flags: /Ogtp
; File C:\Program Files (x86)\Microsoft Visual Studio\2019\Community\VC\Tools\MSVC\14.29.30133\atlmfc\include\afx.inl
;	COMDAT ?Serialize@CObject@@UAEXAAVCArchive@@@Z
_TEXT	SEGMENT
___formal$ = 8						; size = 4
?Serialize@CObject@@UAEXAAVCArchive@@@Z PROC		; CObject::Serialize, COMDAT
; _this$ = ecx

; 106  : 	{ /* CObject does not serialize anything by default */ }

  00000	c2 04 00	 ret	 4
?Serialize@CObject@@UAEXAAVCArchive@@@Z ENDP		; CObject::Serialize
_TEXT	ENDS
; Function compile flags: /Ogtp
; File C:\Program Files (x86)\Microsoft Visual Studio\2019\Community\VC\Tools\MSVC\14.29.30133\atlmfc\include\afx.inl
;	COMDAT ??3CObject@@SGXPAX@Z
_TEXT	SEGMENT
_p$ = 8							; size = 4
??3CObject@@SGXPAX@Z PROC				; CObject::operator delete, COMDAT

; 112  : 	{ ::operator delete(p); }

  00000	55		 push	 ebp
  00001	8b ec		 mov	 ebp, esp
  00003	ff 75 08	 push	 DWORD PTR _p$[ebp]
  00006	e8 00 00 00 00	 call	 ??3@YAXPAX@Z		; operator delete
  0000b	83 c4 04	 add	 esp, 4
  0000e	5d		 pop	 ebp
  0000f	c2 04 00	 ret	 4
??3CObject@@SGXPAX@Z ENDP				; CObject::operator delete
_TEXT	ENDS
; Function compile flags: /Ogtp
; File D:\git\src\IBK\IBK_DRFN\ProjSrc\SrcChartEx\ChartAddIn\ChartDataListViewerAddIn\ChartDataListViewerAddIn\ChartDataListViewerAddInImp.cpp
;	COMDAT ?__empty_global_delete@@YAXPAXI@Z
_TEXT	SEGMENT
___formal$ = 8						; size = 4
___formal$ = 12						; size = 4
?__empty_global_delete@@YAXPAXI@Z PROC			; __empty_global_delete, COMDAT

  00000	c2 00 00	 ret	 0
?__empty_global_delete@@YAXPAXI@Z ENDP			; __empty_global_delete
_TEXT	ENDS
; Function compile flags: /Ogtp
; File D:\git\src\IBK\IBK_DRFN\ProjSrc\SrcChartEx\ChartAddIn\ChartDataListViewerAddIn\ChartDataListViewerAddIn\ChartDataListViewerAddInImp.cpp
;	COMDAT ?__empty_global_delete@@YAXPAX@Z
_TEXT	SEGMENT
___formal$ = 8						; size = 4
?__empty_global_delete@@YAXPAX@Z PROC			; __empty_global_delete, COMDAT

  00000	c2 00 00	 ret	 0
?__empty_global_delete@@YAXPAX@Z ENDP			; __empty_global_delete
_TEXT	ENDS
END
