; Listing generated by Microsoft (R) Optimizing Compiler Version 19.29.30145.0 

	TITLE	D:\git\src\IBK\IBK_DRFN\#DRfn-CS\_Obj\ChartDataListViewerAddIn\ChartDataSimulatorAddInImp.obj
	.686P
	.XMM
	include listing.inc
	.model	flat

INCLUDELIB MSVCRT
INCLUDELIB OLDNAMES

PUBLIC	??_C@_0P@HEOEDEBA@DATA_SIMULATOR@		; `string'
PUBLIC	?m_eRegisteredEventMap@CChartDataSimulatorAddInImp@@1QBW4EAddInEventType@IChartAddIn134221@@B ; CChartDataSimulatorAddInImp::m_eRegisteredEventMap
CONST	SEGMENT
?m_eRegisteredEventMap@CChartDataSimulatorAddInImp@@1QBW4EAddInEventType@IChartAddIn134221@@B DD 02fH ; CChartDataSimulatorAddInImp::m_eRegisteredEventMap
	DD	037H
	DD	038H
	DD	03aH
	DD	013H
	DD	01H
	DD	03bH
	ORG $+212
CONST	ENDS
;	COMDAT ??_C@_0P@HEOEDEBA@DATA_SIMULATOR@
CONST	SEGMENT
??_C@_0P@HEOEDEBA@DATA_SIMULATOR@ DB 'DATA_SIMULATOR', 00H ; `string'
CONST	ENDS
PUBLIC	??_H@YGXPAXIIP6EPAX0@Z@Z			; `vector constructor iterator'
PUBLIC	?__empty_global_delete@@YAXPAX@Z		; __empty_global_delete
PUBLIC	?__empty_global_delete@@YAXPAXI@Z		; __empty_global_delete
PUBLIC	?AfxCrtErrorCheck@@YAHH@Z			; AfxCrtErrorCheck
PUBLIC	??1CObject@@UAE@XZ				; CObject::~CObject
PUBLIC	?Serialize@CObject@@UAEXAAVCArchive@@@Z		; CObject::Serialize
PUBLIC	?AssertValid@CObject@@UBEXXZ			; CObject::AssertValid
PUBLIC	?Dump@CObject@@UBEXAAVCDumpContext@@@Z		; CObject::Dump
PUBLIC	??HATL@@YA?AV?$CStringT@DV?$StrTraitMFC_DLL@DV?$ChTraitsCRT@D@ATL@@@@@0@ABV10@0@Z ; ATL::operator+
PUBLIC	?PostConstruct@CIWUnknown@@MAEXXZ		; CIWUnknown::PostConstruct
PUBLIC	?PreDestructX@CIWUnknown@@MAEXXZ		; CIWUnknown::PreDestructX
PUBLIC	?PreDestruct@CIWUnknown@@MAEXXZ			; CIWUnknown::PreDestruct
PUBLIC	?AddRef@CChartAddInBase134221@@MAGKXZ		; CChartAddInBase134221::AddRef
PUBLIC	?Release@CChartAddInBase134221@@MAGKXZ		; CChartAddInBase134221::Release
PUBLIC	?QueryInterface@CChartAddInBase134221@@MAGJABU_GUID@@PAPAX@Z ; CChartAddInBase134221::QueryInterface
PUBLIC	?GetAddInCustomInterface@CChartAddInBase134221@@MAEPAUIUnknown@@XZ ; CChartAddInBase134221::GetAddInCustomInterface
PUBLIC	?InvokeAddIn@CChartAddInBase134221@@MAEHHJ@Z	; CChartAddInBase134221::InvokeAddIn
PUBLIC	?InvokeAddInStr@CChartAddInBase134221@@MAEHPBD0@Z ; CChartAddInBase134221::InvokeAddInStr
PUBLIC	?OnOcxDestroyWindow@CChartAddInBase134221@@MAEXXZ ; CChartAddInBase134221::OnOcxDestroyWindow
PUBLIC	?OnGSharedDataChange@CChartAddInBase134221@@MAEXPBD0H@Z ; CChartAddInBase134221::OnGSharedDataChange
PUBLIC	?OnLSharedDataChange@CChartAddInBase134221@@MAEXPBD0@Z ; CChartAddInBase134221::OnLSharedDataChange
PUBLIC	?OnResetChart@CChartAddInBase134221@@MAEXXZ	; CChartAddInBase134221::OnResetChart
PUBLIC	?OnDrawBeforeGraph@CChartAddInBase134221@@MAEXPAUHDC__@@@Z ; CChartAddInBase134221::OnDrawBeforeGraph
PUBLIC	?OnDrawAfterGraph@CChartAddInBase134221@@MAEXPAUHDC__@@@Z ; CChartAddInBase134221::OnDrawAfterGraph
PUBLIC	?OnTimer@CChartAddInBase134221@@MAEXI@Z		; CChartAddInBase134221::OnTimer
PUBLIC	?OnCaptureChanged@CChartAddInBase134221@@MAEXPAUHWND__@@QAUHBITMAP__@@@Z ; CChartAddInBase134221::OnCaptureChanged
PUBLIC	?OnResetMainBlock@CChartAddInBase134221@@MAEXXZ	; CChartAddInBase134221::OnResetMainBlock
PUBLIC	?OnUserIndiatorConditionLoaded@CChartAddInBase134221@@MAEXXZ ; CChartAddInBase134221::OnUserIndiatorConditionLoaded
PUBLIC	?OnChartItemChanged@CChartAddInBase134221@@MAEXXZ ; CChartAddInBase134221::OnChartItemChanged
PUBLIC	?OnGraphDataChanged@CChartAddInBase134221@@MAEXXZ ; CChartAddInBase134221::OnGraphDataChanged
PUBLIC	?OnBlockRemoved@CChartAddInBase134221@@MAEXHH@Z	; CChartAddInBase134221::OnBlockRemoved
PUBLIC	?OnGraphAdded@CChartAddInBase134221@@MAEXPBD0@Z	; CChartAddInBase134221::OnGraphAdded
PUBLIC	?OnManualRealData@CChartAddInBase134221@@MAEXPBDNH@Z ; CChartAddInBase134221::OnManualRealData
PUBLIC	?OnContextMenu@CChartAddInBase134221@@MAEXPAUHWND__@@AAUtagPOINT@@@Z ; CChartAddInBase134221::OnContextMenu
PUBLIC	?OnGraphDeleted@CChartAddInBase134221@@MAEXPBD0@Z ; CChartAddInBase134221::OnGraphDeleted
PUBLIC	?OnPacketTruncated@CChartAddInBase134221@@MAEXH@Z ; CChartAddInBase134221::OnPacketTruncated
PUBLIC	?OnBlockChanged@CChartAddInBase134221@@MAEXW4BLOCKBEHAVIOR@CBlockBaseData@@HHHH@Z ; CChartAddInBase134221::OnBlockChanged
PUBLIC	?OnRealData@CChartAddInBase134221@@MAEXPBDN0@Z	; CChartAddInBase134221::OnRealData
PUBLIC	?OnIndexedRealData@CChartAddInBase134221@@MAEXPBDHN@Z ; CChartAddInBase134221::OnIndexedRealData
PUBLIC	?OnRealPacketEnd@CChartAddInBase134221@@MAEXPBD@Z ; CChartAddInBase134221::OnRealPacketEnd
PUBLIC	?OnLoadEnvironment@CChartAddInBase134221@@MAEXPAUIPropertyMap@@@Z ; CChartAddInBase134221::OnLoadEnvironment
PUBLIC	?OnSaveEnvironment@CChartAddInBase134221@@MAEXPAUIPropertyMap@@@Z ; CChartAddInBase134221::OnSaveEnvironment
PUBLIC	?DrawCursor@CChartAddInBase134221@@MAE?AUtagRECT@@PAUHDC__@@@Z ; CChartAddInBase134221::DrawCursor
PUBLIC	?OnRecalculationComplete@CChartAddInBase134221@@MAEXXZ ; CChartAddInBase134221::OnRecalculationComplete
PUBLIC	?OnPreIndexedRealData@CChartAddInBase134221@@MAEHPBDHAAN@Z ; CChartAddInBase134221::OnPreIndexedRealData
PUBLIC	?OnAddInMsg@CChartAddInBase134221@@MAEHPBDJ@Z	; CChartAddInBase134221::OnAddInMsg
PUBLIC	?OnAddInToolCommand@CChartAddInBase134221@@MAEHW4EAICommandType@@PAUHDC__@@IAAUtagPOINT@@K@Z ; CChartAddInBase134221::OnAddInToolCommand
PUBLIC	?OnAddInToolCommand@CChartAddInBase134221@@MAEHW4EAICommandType@@PBD@Z ; CChartAddInBase134221::OnAddInToolCommand
PUBLIC	?OnAddInToolCommand@CChartAddInBase134221@@MAEHW4EAICommandType@@PBD1@Z ; CChartAddInBase134221::OnAddInToolCommand
PUBLIC	?OnAddInToolCommand@CChartAddInBase134221@@MAEHW4EAICommandType@@PBDJ@Z ; CChartAddInBase134221::OnAddInToolCommand
PUBLIC	?OnAddInToolCommand@CChartAddInBase134221@@MAEHW4EAICommandType@@PBUIAddInDllBase@@@Z ; CChartAddInBase134221::OnAddInToolCommand
PUBLIC	?OnAddInToolCommand@CChartAddInBase134221@@MAEHW4EAICommandType@@J@Z ; CChartAddInBase134221::OnAddInToolCommand
PUBLIC	?OnAddInToolCommand@CChartAddInBase134221@@MAEHW4EAICommandType@@JPBD@Z ; CChartAddInBase134221::OnAddInToolCommand
PUBLIC	?OnAddInToolCommand@CChartAddInBase134221@@MAEHW4EAICommandType@@JPBD11@Z ; CChartAddInBase134221::OnAddInToolCommand
PUBLIC	?OnAddInToolCommand@CChartAddInBase134221@@MAEHW4EAICommandType@@JJ@Z ; CChartAddInBase134221::OnAddInToolCommand
PUBLIC	?OnAddInToolCommand@CChartAddInBase134221@@MAEHW4EAICommandType@@JJJJJJJJJ@Z ; CChartAddInBase134221::OnAddInToolCommand
PUBLIC	?OnAddInToolCommand@CChartAddInBase134221@@MAEHAAJW4EAICommandType@@@Z ; CChartAddInBase134221::OnAddInToolCommand
PUBLIC	?OnAddInToolCommand@CChartAddInBase134221@@MAEHAAJW4EAICommandType@@PAUIGraphInfo134221@@@Z ; CChartAddInBase134221::OnAddInToolCommand
PUBLIC	?OnAddInToolCommand@CChartAddInBase134221@@MAEHAAJW4EAICommandType@@PBD@Z ; CChartAddInBase134221::OnAddInToolCommand
PUBLIC	?OnAddInToolCommand@CChartAddInBase134221@@MAEHAAJW4EAICommandType@@PBDPAVCObject@@@Z ; CChartAddInBase134221::OnAddInToolCommand
PUBLIC	?OnAddInToolCommand@CChartAddInBase134221@@MAEHAAJW4EAICommandType@@J@Z ; CChartAddInBase134221::OnAddInToolCommand
PUBLIC	?OnAddInToolCommand@CChartAddInBase134221@@MAEHAAJW4EAICommandType@@JJ@Z ; CChartAddInBase134221::OnAddInToolCommand
PUBLIC	?OnKeyDown@CChartAddInBase134221@@MAEHIII@Z	; CChartAddInBase134221::OnKeyDown
PUBLIC	?OnKeyUp@CChartAddInBase134221@@MAEHIII@Z	; CChartAddInBase134221::OnKeyUp
PUBLIC	?OnMouseWheel@CChartAddInBase134221@@MAEHIFUtagPOINT@@K@Z ; CChartAddInBase134221::OnMouseWheel
PUBLIC	?OnMouseMove@CChartAddInBase134221@@MAEHPAUHDC__@@IAAUtagPOINT@@KQAUHBITMAP__@@@Z ; CChartAddInBase134221::OnMouseMove
PUBLIC	?OnLButtonDown@CChartAddInBase134221@@MAEHPAUHDC__@@IAAUtagPOINT@@K@Z ; CChartAddInBase134221::OnLButtonDown
PUBLIC	?OnLButtonUp@CChartAddInBase134221@@MAEHPAUHDC__@@IAAUtagPOINT@@K@Z ; CChartAddInBase134221::OnLButtonUp
PUBLIC	?OnLButtonDblClk@CChartAddInBase134221@@MAEHPAUHDC__@@IAAUtagPOINT@@K@Z ; CChartAddInBase134221::OnLButtonDblClk
PUBLIC	?OnRButtonDown@CChartAddInBase134221@@MAEHPAUHDC__@@IAAUtagPOINT@@K@Z ; CChartAddInBase134221::OnRButtonDown
PUBLIC	?OnRButtonUp@CChartAddInBase134221@@MAEHPAUHDC__@@IAAUtagPOINT@@K@Z ; CChartAddInBase134221::OnRButtonUp
PUBLIC	?OnRButtonDblClk@CChartAddInBase134221@@MAEHPAUHDC__@@IAAUtagPOINT@@K@Z ; CChartAddInBase134221::OnRButtonDblClk
PUBLIC	??0?$CArray@PAVCChartDataGridHeaderInfo@@PAV1@@@QAE@XZ ; CArray<CChartDataGridHeaderInfo *,CChartDataGridHeaderInfo *>::CArray<CChartDataGridHeaderInfo *,CChartDataGridHeaderInfo *>
PUBLIC	?SetSize@?$CArray@PAVCChartDataGridHeaderInfo@@PAV1@@@QAEXHH@Z ; CArray<CChartDataGridHeaderInfo *,CChartDataGridHeaderInfo *>::SetSize
PUBLIC	?SetAtGrow@?$CArray@PAVCChartDataGridHeaderInfo@@PAV1@@@QAEXHPAVCChartDataGridHeaderInfo@@@Z ; CArray<CChartDataGridHeaderInfo *,CChartDataGridHeaderInfo *>::SetAtGrow
PUBLIC	??1?$CArray@PAVCChartDataGridHeaderInfo@@PAV1@@@UAE@XZ ; CArray<CChartDataGridHeaderInfo *,CChartDataGridHeaderInfo *>::~CArray<CChartDataGridHeaderInfo *,CChartDataGridHeaderInfo *>
PUBLIC	?Serialize@?$CArray@PAVCChartDataGridHeaderInfo@@PAV1@@@UAEXAAVCArchive@@@Z ; CArray<CChartDataGridHeaderInfo *,CChartDataGridHeaderInfo *>::Serialize
PUBLIC	??_G?$CArray@PAVCChartDataGridHeaderInfo@@PAV1@@@UAEPAXI@Z ; CArray<CChartDataGridHeaderInfo *,CChartDataGridHeaderInfo *>::`scalar deleting destructor'
PUBLIC	??0?$CList@PAVCChartRecordSet@@PAV1@@@QAE@H@Z	; CList<CChartRecordSet *,CChartRecordSet *>::CList<CChartRecordSet *,CChartRecordSet *>
PUBLIC	?RemoveHead@?$CList@PAVCChartRecordSet@@PAV1@@@QAEPAVCChartRecordSet@@XZ ; CList<CChartRecordSet *,CChartRecordSet *>::RemoveHead
PUBLIC	?RemoveTail@?$CList@PAVCChartRecordSet@@PAV1@@@QAEPAVCChartRecordSet@@XZ ; CList<CChartRecordSet *,CChartRecordSet *>::RemoveTail
PUBLIC	?AddTail@?$CList@PAVCChartRecordSet@@PAV1@@@QAEPAU__POSITION@@PAVCChartRecordSet@@@Z ; CList<CChartRecordSet *,CChartRecordSet *>::AddTail
PUBLIC	?RemoveAll@?$CList@PAVCChartRecordSet@@PAV1@@@QAEXXZ ; CList<CChartRecordSet *,CChartRecordSet *>::RemoveAll
PUBLIC	?NewNode@?$CList@PAVCChartRecordSet@@PAV1@@@IAEPAUCNode@1@PAU21@0@Z ; CList<CChartRecordSet *,CChartRecordSet *>::NewNode
PUBLIC	?FreeNode@?$CList@PAVCChartRecordSet@@PAV1@@@IAEXPAUCNode@1@@Z ; CList<CChartRecordSet *,CChartRecordSet *>::FreeNode
PUBLIC	??1?$CList@PAVCChartRecordSet@@PAV1@@@UAE@XZ	; CList<CChartRecordSet *,CChartRecordSet *>::~CList<CChartRecordSet *,CChartRecordSet *>
PUBLIC	?Serialize@?$CList@PAVCChartRecordSet@@PAV1@@@UAEXAAVCArchive@@@Z ; CList<CChartRecordSet *,CChartRecordSet *>::Serialize
PUBLIC	??_G?$CList@PAVCChartRecordSet@@PAV1@@@UAEPAXI@Z ; CList<CChartRecordSet *,CChartRecordSet *>::`scalar deleting destructor'
PUBLIC	??1CChartDataGridManager@@QAE@XZ		; CChartDataGridManager::~CChartDataGridManager
PUBLIC	??0CChartDataSimulatorAddInImp@@QAE@PAUIChartOCX134221@@PAUIAddInDllBase@@@Z ; CChartDataSimulatorAddInImp::CChartDataSimulatorAddInImp
PUBLIC	??1CChartDataSimulatorAddInImp@@UAE@XZ		; CChartDataSimulatorAddInImp::~CChartDataSimulatorAddInImp
PUBLIC	?GetRegisteredEventMap@CChartDataSimulatorAddInImp@@MBEPBW4EAddInEventType@IChartAddIn134221@@XZ ; CChartDataSimulatorAddInImp::GetRegisteredEventMap
PUBLIC	?GetDataWindowRealPacketNames@CChartDataSimulatorAddInImp@@IBE?AV?$CStringT@DV?$StrTraitMFC_DLL@DV?$ChTraitsCRT@D@ATL@@@@@ATL@@PBD0@Z ; CChartDataSimulatorAddInImp::GetDataWindowRealPacketNames
PUBLIC	?GetDataFromPacketList@CChartDataSimulatorAddInImp@@IAEHHPBD0PAVCChartDataGridManager@@H@Z ; CChartDataSimulatorAddInImp::GetDataFromPacketList
PUBLIC	?SetDataToChartOCX@CChartDataSimulatorAddInImp@@IAEHPAUIPacketManager134221@@PAVCChartDataGridManager@@V?$CStringT@DV?$StrTraitMFC_DLL@DV?$ChTraitsCRT@D@ATL@@@@@ATL@@@Z ; CChartDataSimulatorAddInImp::SetDataToChartOCX
PUBLIC	?OnToolCommand@CChartDataSimulatorAddInImp@@MAEXHH@Z ; CChartDataSimulatorAddInImp::OnToolCommand
PUBLIC	?OnPacketDataMultiItem@CChartDataSimulatorAddInImp@@MAEXPBD0H@Z ; CChartDataSimulatorAddInImp::OnPacketDataMultiItem
PUBLIC	?OnPreRealData@CChartDataSimulatorAddInImp@@MAEHPBDAAN0@Z ; CChartDataSimulatorAddInImp::OnPreRealData
PUBLIC	?OnPreRealPacketEnd@CChartDataSimulatorAddInImp@@MAEHPBD@Z ; CChartDataSimulatorAddInImp::OnPreRealPacketEnd
PUBLIC	?OnCmdMsg@CChartDataSimulatorAddInImp@@MAEHIHPAUICmdUI134221@@@Z ; CChartDataSimulatorAddInImp::OnCmdMsg
PUBLIC	?OnAddInToolCommand@CChartDataSimulatorAddInImp@@MAEHW4EAICommandType@@@Z ; CChartDataSimulatorAddInImp::OnAddInToolCommand
PUBLIC	??_GCChartDataSimulatorAddInImp@@UAEPAXI@Z	; CChartDataSimulatorAddInImp::`scalar deleting destructor'
PUBLIC	??1CMultiLanguageResourceSetter@@QAE@XZ		; CMultiLanguageResourceSetter::~CMultiLanguageResourceSetter
PUBLIC	??1ILPCSTR134221@@QAE@XZ			; ILPCSTR134221::~ILPCSTR134221
PUBLIC	??1CDlgDataSimulator@@UAE@XZ			; CDlgDataSimulator::~CDlgDataSimulator
PUBLIC	??$SerializeElements@PAVCChartRecordSet@@@@YGXAAVCArchive@@PAPAVCChartRecordSet@@H@Z ; SerializeElements<CChartRecordSet *>
PUBLIC	??$SerializeElements@PAVCChartDataGridHeaderInfo@@@@YGXAAVCArchive@@PAPAVCChartDataGridHeaderInfo@@H@Z ; SerializeElements<CChartDataGridHeaderInfo *>
PUBLIC	?QueryInterface@CChartAddInBase134221@@O7AGJABU_GUID@@PAPAX@Z ; [thunk]:CChartAddInBase134221::QueryInterface`adjustor{8}'
PUBLIC	?AddRef@CChartAddInBase134221@@O7AGKXZ		; [thunk]:CChartAddInBase134221::AddRef`adjustor{8}'
PUBLIC	?Release@CChartAddInBase134221@@O7AGKXZ		; [thunk]:CChartAddInBase134221::Release`adjustor{8}'
PUBLIC	??_ECChartDataSimulatorAddInImp@@W7AEPAXI@Z	; [thunk]:CChartDataSimulatorAddInImp::`vector deleting destructor'
PUBLIC	??_R0?AVCObject@@@8				; CObject `RTTI Type Descriptor'
PUBLIC	??_R3CObject@@8					; CObject::`RTTI Class Hierarchy Descriptor'
PUBLIC	??_R2CObject@@8					; CObject::`RTTI Base Class Array'
PUBLIC	??_R1A@?0A@EA@CObject@@8			; CObject::`RTTI Base Class Descriptor at (0,-1,0,64)'
PUBLIC	??_R0?AUIUnknown@@@8				; IUnknown `RTTI Type Descriptor'
PUBLIC	??_R3IUnknown@@8				; IUnknown::`RTTI Class Hierarchy Descriptor'
PUBLIC	??_R2IUnknown@@8				; IUnknown::`RTTI Base Class Array'
PUBLIC	??_R1A@?0A@EA@IUnknown@@8			; IUnknown::`RTTI Base Class Descriptor at (0,-1,0,64)'
PUBLIC	??_7?$CArray@PAVCChartDataGridHeaderInfo@@PAV1@@@6B@ ; CArray<CChartDataGridHeaderInfo *,CChartDataGridHeaderInfo *>::`vftable'
PUBLIC	??_7?$CList@PAVCChartRecordSet@@PAV1@@@6B@	; CList<CChartRecordSet *,CChartRecordSet *>::`vftable'
PUBLIC	?m_strAddInItemName@CChartDataSimulatorAddInImp@@2V?$CStringT@DV?$StrTraitMFC_DLL@DV?$ChTraitsCRT@D@ATL@@@@@ATL@@A ; CChartDataSimulatorAddInImp::m_strAddInItemName
PUBLIC	??_7CChartDataSimulatorAddInImp@@6BCIWUnknown@@@ ; CChartDataSimulatorAddInImp::`vftable'
PUBLIC	??_7CChartDataSimulatorAddInImp@@6BIChartAddIn134221@@@ ; CChartDataSimulatorAddInImp::`vftable'
PUBLIC	??_C@_0BA@ENJOCHIO@LoadResourceDLL@		; `string'
PUBLIC	??_C@_01IHBHIGKO@?0@				; `string'
PUBLIC	??_C@_02PONMEALH@UD@				; `string'
PUBLIC	??_C@_02LEBOFCOG@UT@				; `string'
PUBLIC	??_C@_01HIHLOKLC@1@				; `string'
PUBLIC	??_C@_02CPBOPLPO@UM@				; `string'
PUBLIC	??_C@_01EOFPKCAF@?$EA@				; `string'
PUBLIC	??_C@_01NEMOKFLO@?$DN@				; `string'
PUBLIC	??_C@_06MLGKKOBC@RDATET@			; `string'
PUBLIC	??_C@_05DGHEHLLC@UM?$DNE?$EA@			; `string'
PUBLIC	??_C@_0CD@FFIBMNLA@?$LK?$LI?A?$LG?$LI?$NO?$LM?$LM?A?v?5?$LM?$LD?A?$KE?$LP?$KB?5?$MA?L?$LL?s?$MA?L?5?$MA?V?$LN?$MA?$LE?O@ ; `string'
PUBLIC	??_C@_04PIAMNFKE@TDC?$DN@			; `string'
PUBLIC	??_R0?AUIChartAddIn134221@@@8			; IChartAddIn134221 `RTTI Type Descriptor'
PUBLIC	??_R3IChartAddIn134221@@8			; IChartAddIn134221::`RTTI Class Hierarchy Descriptor'
PUBLIC	??_R2IChartAddIn134221@@8			; IChartAddIn134221::`RTTI Base Class Array'
PUBLIC	??_R1A@?0A@EA@IChartAddIn134221@@8		; IChartAddIn134221::`RTTI Base Class Descriptor at (0,-1,0,64)'
PUBLIC	??_R4?$CList@PAVCChartRecordSet@@PAV1@@@6B@	; CList<CChartRecordSet *,CChartRecordSet *>::`RTTI Complete Object Locator'
PUBLIC	??_R0?AV?$CList@PAVCChartRecordSet@@PAV1@@@@8	; CList<CChartRecordSet *,CChartRecordSet *> `RTTI Type Descriptor'
PUBLIC	??_R3?$CList@PAVCChartRecordSet@@PAV1@@@8	; CList<CChartRecordSet *,CChartRecordSet *>::`RTTI Class Hierarchy Descriptor'
PUBLIC	??_R2?$CList@PAVCChartRecordSet@@PAV1@@@8	; CList<CChartRecordSet *,CChartRecordSet *>::`RTTI Base Class Array'
PUBLIC	??_R1A@?0A@EA@?$CList@PAVCChartRecordSet@@PAV1@@@8 ; CList<CChartRecordSet *,CChartRecordSet *>::`RTTI Base Class Descriptor at (0,-1,0,64)'
PUBLIC	??_R4?$CArray@PAVCChartDataGridHeaderInfo@@PAV1@@@6B@ ; CArray<CChartDataGridHeaderInfo *,CChartDataGridHeaderInfo *>::`RTTI Complete Object Locator'
PUBLIC	??_R0?AV?$CArray@PAVCChartDataGridHeaderInfo@@PAV1@@@@8 ; CArray<CChartDataGridHeaderInfo *,CChartDataGridHeaderInfo *> `RTTI Type Descriptor'
PUBLIC	??_R3?$CArray@PAVCChartDataGridHeaderInfo@@PAV1@@@8 ; CArray<CChartDataGridHeaderInfo *,CChartDataGridHeaderInfo *>::`RTTI Class Hierarchy Descriptor'
PUBLIC	??_R2?$CArray@PAVCChartDataGridHeaderInfo@@PAV1@@@8 ; CArray<CChartDataGridHeaderInfo *,CChartDataGridHeaderInfo *>::`RTTI Base Class Array'
PUBLIC	??_R1A@?0A@EA@?$CArray@PAVCChartDataGridHeaderInfo@@PAV1@@@8 ; CArray<CChartDataGridHeaderInfo *,CChartDataGridHeaderInfo *>::`RTTI Base Class Descriptor at (0,-1,0,64)'
PUBLIC	??_R4CChartDataSimulatorAddInImp@@6BCIWUnknown@@@ ; CChartDataSimulatorAddInImp::`RTTI Complete Object Locator'
PUBLIC	??_R0?AVCChartDataSimulatorAddInImp@@@8		; CChartDataSimulatorAddInImp `RTTI Type Descriptor'
PUBLIC	??_R3CChartDataSimulatorAddInImp@@8		; CChartDataSimulatorAddInImp::`RTTI Class Hierarchy Descriptor'
PUBLIC	??_R2CChartDataSimulatorAddInImp@@8		; CChartDataSimulatorAddInImp::`RTTI Base Class Array'
PUBLIC	??_R1A@?0A@EA@CChartDataSimulatorAddInImp@@8	; CChartDataSimulatorAddInImp::`RTTI Base Class Descriptor at (0,-1,0,64)'
PUBLIC	??_R1A@?0A@EA@CChartAddInBase134221@@8		; CChartAddInBase134221::`RTTI Base Class Descriptor at (0,-1,0,64)'
PUBLIC	??_R0?AVCChartAddInBase134221@@@8		; CChartAddInBase134221 `RTTI Type Descriptor'
PUBLIC	??_R3CChartAddInBase134221@@8			; CChartAddInBase134221::`RTTI Class Hierarchy Descriptor'
PUBLIC	??_R2CChartAddInBase134221@@8			; CChartAddInBase134221::`RTTI Base Class Array'
PUBLIC	??_R1A@?0A@EA@CIWUnknown@@8			; CIWUnknown::`RTTI Base Class Descriptor at (0,-1,0,64)'
PUBLIC	??_R0?AVCIWUnknown@@@8				; CIWUnknown `RTTI Type Descriptor'
PUBLIC	??_R3CIWUnknown@@8				; CIWUnknown::`RTTI Class Hierarchy Descriptor'
PUBLIC	??_R2CIWUnknown@@8				; CIWUnknown::`RTTI Base Class Array'
PUBLIC	??_R17?0A@EA@IChartAddIn134221@@8		; IChartAddIn134221::`RTTI Base Class Descriptor at (8,-1,0,64)'
PUBLIC	??_R17?0A@EA@IUnknown@@8			; IUnknown::`RTTI Base Class Descriptor at (8,-1,0,64)'
PUBLIC	??_R4CChartDataSimulatorAddInImp@@6BIChartAddIn134221@@@ ; CChartDataSimulatorAddInImp::`RTTI Complete Object Locator'
PUBLIC	__real@4049000000000000
PUBLIC	__real@4059000000000000
PUBLIC	__real@40c3880000000000
PUBLIC	__real@412e848000000000
PUBLIC	__real@4197d78400000000
PUBLIC	__real@4202a05f20000000
PUBLIC	__real@bff0000000000000
EXTRN	??_L@YGXPAXIIP6EX0@Z1@Z:PROC			; `eh vector constructor iterator'
EXTRN	??_M@YGXPAXIIP6EX0@Z@Z:PROC			; `eh vector destructor iterator'
EXTRN	??2@YAPAXI@Z:PROC				; operator new
EXTRN	??3@YAXPAX@Z:PROC				; operator delete
EXTRN	??3@YAXPAXI@Z:PROC				; operator delete
EXTRN	?__global_delete@@YAXPAXI@Z:PROC		; __global_delete
EXTRN	??_U@YAPAXI@Z:PROC				; operator new[]
EXTRN	??_V@YAXPAX@Z:PROC				; operator delete[]
EXTRN	_atexit:PROC
EXTRN	___std_terminate:PROC
EXTRN	__imp___invalid_parameter_noinfo:PROC
EXTRN	__imp___errno:PROC
EXTRN	__imp__GetProcAddress@8:PROC
EXTRN	__imp__atof:PROC
EXTRN	__imp__atoi:PROC
EXTRN	?AfxThrowMemoryException@@YGXXZ:PROC		; AfxThrowMemoryException
EXTRN	?AfxThrowInvalidArgException@@YGXXZ:PROC	; AfxThrowInvalidArgException
EXTRN	?AfxThrowArchiveException@@YGXHPBD@Z:PROC	; AfxThrowArchiveException
EXTRN	?GetRuntimeClass@CObject@@UBEPAUCRuntimeClass@@XZ:PROC ; CObject::GetRuntimeClass
EXTRN	__imp_?Empty@?$CSimpleStringT@D$00@ATL@@QAEXXZ:PROC
EXTRN	__imp_?GetAt@?$CSimpleStringT@D$00@ATL@@QBEDH@Z:PROC
EXTRN	__imp_?Concatenate@?$CSimpleStringT@D$00@ATL@@KAXAAV12@PBDH1H@Z:PROC
EXTRN	__imp_??0?$CStringT@DV?$StrTraitMFC_DLL@DV?$ChTraitsCRT@D@ATL@@@@@ATL@@QAE@XZ:PROC
EXTRN	__imp_??0?$CStringT@DV?$StrTraitMFC_DLL@DV?$ChTraitsCRT@D@ATL@@@@@ATL@@QAE@PAUIAtlStringMgr@1@@Z:PROC
EXTRN	__imp_??0?$CStringT@DV?$StrTraitMFC_DLL@DV?$ChTraitsCRT@D@ATL@@@@@ATL@@QAE@ABV01@@Z:PROC
EXTRN	__imp_??0?$CStringT@DV?$StrTraitMFC_DLL@DV?$ChTraitsCRT@D@ATL@@@@@ATL@@QAE@PBD@Z:PROC
EXTRN	__imp_??0?$CStringT@DV?$StrTraitMFC_DLL@DV?$ChTraitsCRT@D@ATL@@@@@ATL@@QAE@PBDH@Z:PROC
EXTRN	__imp_??1?$CStringT@DV?$StrTraitMFC_DLL@DV?$ChTraitsCRT@D@ATL@@@@@ATL@@QAE@XZ:PROC
EXTRN	__imp_??4?$CStringT@DV?$StrTraitMFC_DLL@DV?$ChTraitsCRT@D@ATL@@@@@ATL@@QAEAAV01@ABV01@@Z:PROC
EXTRN	__imp_??4?$CStringT@DV?$StrTraitMFC_DLL@DV?$ChTraitsCRT@D@ATL@@@@@ATL@@QAEAAV01@PBD@Z:PROC
EXTRN	__imp_??Y?$CStringT@DV?$StrTraitMFC_DLL@DV?$ChTraitsCRT@D@ATL@@@@@ATL@@QAEAAV01@PBD@Z:PROC
EXTRN	__imp_?GetManager@?$CStringT@DV?$StrTraitMFC_DLL@DV?$ChTraitsCRT@D@ATL@@@@@ATL@@QBEPAUIAtlStringMgr@2@XZ:PROC
EXTRN	__imp_?Compare@?$CStringT@DV?$StrTraitMFC_DLL@DV?$ChTraitsCRT@D@ATL@@@@@ATL@@QBEHPBD@Z:PROC
EXTRN	__imp_?Insert@?$CStringT@DV?$StrTraitMFC_DLL@DV?$ChTraitsCRT@D@ATL@@@@@ATL@@QAEHHPBD@Z:PROC
EXTRN	__imp_?Remove@?$CStringT@DV?$StrTraitMFC_DLL@DV?$ChTraitsCRT@D@ATL@@@@@ATL@@QAEHD@Z:PROC
EXTRN	__imp_?Find@?$CStringT@DV?$StrTraitMFC_DLL@DV?$ChTraitsCRT@D@ATL@@@@@ATL@@QBEHPBDH@Z:PROC
EXTRN	__imp_?Mid@?$CStringT@DV?$StrTraitMFC_DLL@DV?$ChTraitsCRT@D@ATL@@@@@ATL@@QBE?AV12@H@Z:PROC
EXTRN	__imp_?Right@?$CStringT@DV?$StrTraitMFC_DLL@DV?$ChTraitsCRT@D@ATL@@@@@ATL@@QBE?AV12@H@Z:PROC
EXTRN	__imp_?Left@?$CStringT@DV?$StrTraitMFC_DLL@DV?$ChTraitsCRT@D@ATL@@@@@ATL@@QBE?AV12@H@Z:PROC
EXTRN	__imp_?LoadStringA@?$CStringT@DV?$StrTraitMFC_DLL@DV?$ChTraitsCRT@D@ATL@@@@@ATL@@QAEHI@Z:PROC
EXTRN	?Read@CArchive@@QAEIPAXI@Z:PROC			; CArchive::Read
EXTRN	?Write@CArchive@@QAEXPBXI@Z:PROC		; CArchive::Write
EXTRN	?ReadCount@CArchive@@QAEKXZ:PROC		; CArchive::ReadCount
EXTRN	?WriteCount@CArchive@@QAEXK@Z:PROC		; CArchive::WriteCount
EXTRN	?AfxGetModuleState@@YGPAVAFX_MODULE_STATE@@XZ:PROC ; AfxGetModuleState
EXTRN	?AfxGetStaticModuleState@@YGPAVAFX_MODULE_STATE@@XZ:PROC ; AfxGetStaticModuleState
EXTRN	?Create@CPlex@@SGPAU1@AAPAU1@II@Z:PROC		; CPlex::Create
EXTRN	?FreeDataChain@CPlex@@QAEXXZ:PROC		; CPlex::FreeDataChain
EXTRN	?DoModal@CDialog@@UAEHXZ:PROC			; CDialog::DoModal
EXTRN	??1CDialog@@UAE@XZ:PROC				; CDialog::~CDialog
EXTRN	?AfxMessageBox@@YGHPBDII@Z:PROC			; AfxMessageBox
EXTRN	?AddRef@CIWUnknown@@MAGKXZ:PROC			; CIWUnknown::AddRef
EXTRN	?Release@CIWUnknown@@MAGKXZ:PROC		; CIWUnknown::Release
EXTRN	??0CChartAddInBase134221@@IAE@PAUIChartOCX134221@@PAUIAddInDllBase@@@Z:PROC ; CChartAddInBase134221::CChartAddInBase134221
EXTRN	??1CChartAddInBase134221@@MAE@XZ:PROC		; CChartAddInBase134221::~CChartAddInBase134221
EXTRN	?HasFullManager@CChartAddInBase134221@@MAEHXZ:PROC ; CChartAddInBase134221::HasFullManager
EXTRN	?RegisterEventMap@CChartAddInBase134221@@UAEHH@Z:PROC ; CChartAddInBase134221::RegisterEventMap
EXTRN	?UnregisterEventMap@CChartAddInBase134221@@UAEHXZ:PROC ; CChartAddInBase134221::UnregisterEventMap
EXTRN	??_E?$CArray@PAVCChartDataGridHeaderInfo@@PAV1@@@UAEPAXI@Z:PROC ; CArray<CChartDataGridHeaderInfo *,CChartDataGridHeaderInfo *>::`vector deleting destructor'
EXTRN	??_E?$CList@PAVCChartRecordSet@@PAV1@@@UAEPAXI@Z:PROC ; CList<CChartRecordSet *,CChartRecordSet *>::`vector deleting destructor'
EXTRN	??_ECChartDataSimulatorAddInImp@@UAEPAXI@Z:PROC	; CChartDataSimulatorAddInImp::`vector deleting destructor'
EXTRN	?DoubleToString@CDataConversion@@SA?AV?$CStringT@DV?$StrTraitMFC_DLL@DV?$ChTraitsCRT@D@ATL@@@@@ATL@@ABN@Z:PROC ; CDataConversion::DoubleToString
EXTRN	?GetStringFormatTrans@CDataConversion@@QAE?AV?$CStringT@DV?$StrTraitMFC_DLL@DV?$ChTraitsCRT@D@ATL@@@@@ATL@@ABV23@0@Z:PROC ; CDataConversion::GetStringFormatTrans
EXTRN	?GetDataToDec@CDataConversion@@SAHV?$CStringT@DV?$StrTraitMFC_DLL@DV?$ChTraitsCRT@D@ATL@@@@@ATL@@0AAV23@@Z:PROC ; CDataConversion::GetDataToDec
EXTRN	?GetMetaText@IMetaTable@@QAEPBDPAUHWND__@@W4E_CODEPAGE@1@PBDH@Z:PROC ; IMetaTable::GetMetaText
EXTRN	?GetLanguageText@IMetaTable@@QAEPBDPAUHWND__@@W4E_CODEPAGE@1@PBDH@Z:PROC ; IMetaTable::GetLanguageText
EXTRN	?IsSpecialGroupGraph@IMetaTable@@QAE_NPBD@Z:PROC ; IMetaTable::IsSpecialGroupGraph
EXTRN	??1CGridCtrl@@UAE@XZ:PROC			; CGridCtrl::~CGridCtrl
EXTRN	??0CDlgDataSimulator@@QAE@W4CHART_MODE@CChartInfo@@PAVCWnd@@@Z:PROC ; CDlgDataSimulator::CDlgDataSimulator
EXTRN	@__security_check_cookie@4:PROC
EXTRN	___CxxFrameHandler3:PROC
EXTRN	_memcpy:PROC
EXTRN	_memset:PROC
EXTRN	??_7type_info@@6B@:QWORD			; type_info::`vftable'
EXTRN	?g_iMetaTable@@3VIMetaTable@@A:BYTE		; g_iMetaTable
EXTRN	___security_cookie:DWORD
EXTRN	__fltused:DWORD
_BSS	SEGMENT
?m_strAddInItemName@CChartDataSimulatorAddInImp@@2V?$CStringT@DV?$StrTraitMFC_DLL@DV?$ChTraitsCRT@D@ATL@@@@@ATL@@A DD 01H DUP (?) ; CChartDataSimulatorAddInImp::m_strAddInItemName
_BSS	ENDS
CRT$XCU	SEGMENT
??m_strAddInItemName$initializer$@CChartDataSimulatorAddInImp@@2P6AXXZA@@3P6AXXZA DD FLAT:??__E?m_strAddInItemName@CChartDataSimulatorAddInImp@@2V?$CStringT@DV?$StrTraitMFC_DLL@DV?$ChTraitsCRT@D@ATL@@@@@ATL@@A@@YAXXZ ; ??m_strAddInItemName$initializer$@CChartDataSimulatorAddInImp@@2P6AXXZA@@3P6AXXZA
CRT$XCU	ENDS
;	COMDAT __real@bff0000000000000
CONST	SEGMENT
__real@bff0000000000000 DQ 0bff0000000000000r	; -1
CONST	ENDS
;	COMDAT __real@4202a05f20000000
CONST	SEGMENT
__real@4202a05f20000000 DQ 04202a05f20000000r	; 1e+10
CONST	ENDS
;	COMDAT __real@4197d78400000000
CONST	SEGMENT
__real@4197d78400000000 DQ 04197d78400000000r	; 1e+08
CONST	ENDS
;	COMDAT __real@412e848000000000
CONST	SEGMENT
__real@412e848000000000 DQ 0412e848000000000r	; 1e+06
CONST	ENDS
;	COMDAT __real@40c3880000000000
CONST	SEGMENT
__real@40c3880000000000 DQ 040c3880000000000r	; 10000
CONST	ENDS
;	COMDAT __real@4059000000000000
CONST	SEGMENT
__real@4059000000000000 DQ 04059000000000000r	; 100
CONST	ENDS
;	COMDAT __real@4049000000000000
CONST	SEGMENT
__real@4049000000000000 DQ 04049000000000000r	; 50
CONST	ENDS
;	COMDAT ??_R4CChartDataSimulatorAddInImp@@6BIChartAddIn134221@@@
rdata$r	SEGMENT
??_R4CChartDataSimulatorAddInImp@@6BIChartAddIn134221@@@ DD 00H ; CChartDataSimulatorAddInImp::`RTTI Complete Object Locator'
	DD	08H
	DD	00H
	DD	FLAT:??_R0?AVCChartDataSimulatorAddInImp@@@8
	DD	FLAT:??_R3CChartDataSimulatorAddInImp@@8
rdata$r	ENDS
;	COMDAT ??_R17?0A@EA@IUnknown@@8
rdata$r	SEGMENT
??_R17?0A@EA@IUnknown@@8 DD FLAT:??_R0?AUIUnknown@@@8	; IUnknown::`RTTI Base Class Descriptor at (8,-1,0,64)'
	DD	00H
	DD	08H
	DD	0ffffffffH
	DD	00H
	DD	040H
	DD	FLAT:??_R3IUnknown@@8
rdata$r	ENDS
;	COMDAT ??_R17?0A@EA@IChartAddIn134221@@8
rdata$r	SEGMENT
??_R17?0A@EA@IChartAddIn134221@@8 DD FLAT:??_R0?AUIChartAddIn134221@@@8 ; IChartAddIn134221::`RTTI Base Class Descriptor at (8,-1,0,64)'
	DD	01H
	DD	08H
	DD	0ffffffffH
	DD	00H
	DD	040H
	DD	FLAT:??_R3IChartAddIn134221@@8
rdata$r	ENDS
;	COMDAT ??_R2CIWUnknown@@8
rdata$r	SEGMENT
??_R2CIWUnknown@@8 DD FLAT:??_R1A@?0A@EA@CIWUnknown@@8	; CIWUnknown::`RTTI Base Class Array'
	DD	FLAT:??_R1A@?0A@EA@CObject@@8
rdata$r	ENDS
;	COMDAT ??_R3CIWUnknown@@8
rdata$r	SEGMENT
??_R3CIWUnknown@@8 DD 00H				; CIWUnknown::`RTTI Class Hierarchy Descriptor'
	DD	00H
	DD	02H
	DD	FLAT:??_R2CIWUnknown@@8
rdata$r	ENDS
;	COMDAT ??_R0?AVCIWUnknown@@@8
data$rs	SEGMENT
??_R0?AVCIWUnknown@@@8 DD FLAT:??_7type_info@@6B@	; CIWUnknown `RTTI Type Descriptor'
	DD	00H
	DB	'.?AVCIWUnknown@@', 00H
data$rs	ENDS
;	COMDAT ??_R1A@?0A@EA@CIWUnknown@@8
rdata$r	SEGMENT
??_R1A@?0A@EA@CIWUnknown@@8 DD FLAT:??_R0?AVCIWUnknown@@@8 ; CIWUnknown::`RTTI Base Class Descriptor at (0,-1,0,64)'
	DD	01H
	DD	00H
	DD	0ffffffffH
	DD	00H
	DD	040H
	DD	FLAT:??_R3CIWUnknown@@8
rdata$r	ENDS
;	COMDAT ??_R2CChartAddInBase134221@@8
rdata$r	SEGMENT
??_R2CChartAddInBase134221@@8 DD FLAT:??_R1A@?0A@EA@CChartAddInBase134221@@8 ; CChartAddInBase134221::`RTTI Base Class Array'
	DD	FLAT:??_R1A@?0A@EA@CIWUnknown@@8
	DD	FLAT:??_R1A@?0A@EA@CObject@@8
	DD	FLAT:??_R17?0A@EA@IChartAddIn134221@@8
	DD	FLAT:??_R17?0A@EA@IUnknown@@8
rdata$r	ENDS
;	COMDAT ??_R3CChartAddInBase134221@@8
rdata$r	SEGMENT
??_R3CChartAddInBase134221@@8 DD 00H			; CChartAddInBase134221::`RTTI Class Hierarchy Descriptor'
	DD	01H
	DD	05H
	DD	FLAT:??_R2CChartAddInBase134221@@8
rdata$r	ENDS
;	COMDAT ??_R0?AVCChartAddInBase134221@@@8
data$rs	SEGMENT
??_R0?AVCChartAddInBase134221@@@8 DD FLAT:??_7type_info@@6B@ ; CChartAddInBase134221 `RTTI Type Descriptor'
	DD	00H
	DB	'.?AVCChartAddInBase134221@@', 00H
data$rs	ENDS
;	COMDAT ??_R1A@?0A@EA@CChartAddInBase134221@@8
rdata$r	SEGMENT
??_R1A@?0A@EA@CChartAddInBase134221@@8 DD FLAT:??_R0?AVCChartAddInBase134221@@@8 ; CChartAddInBase134221::`RTTI Base Class Descriptor at (0,-1,0,64)'
	DD	04H
	DD	00H
	DD	0ffffffffH
	DD	00H
	DD	040H
	DD	FLAT:??_R3CChartAddInBase134221@@8
rdata$r	ENDS
;	COMDAT ??_R1A@?0A@EA@CChartDataSimulatorAddInImp@@8
rdata$r	SEGMENT
??_R1A@?0A@EA@CChartDataSimulatorAddInImp@@8 DD FLAT:??_R0?AVCChartDataSimulatorAddInImp@@@8 ; CChartDataSimulatorAddInImp::`RTTI Base Class Descriptor at (0,-1,0,64)'
	DD	05H
	DD	00H
	DD	0ffffffffH
	DD	00H
	DD	040H
	DD	FLAT:??_R3CChartDataSimulatorAddInImp@@8
rdata$r	ENDS
;	COMDAT ??_R2CChartDataSimulatorAddInImp@@8
rdata$r	SEGMENT
??_R2CChartDataSimulatorAddInImp@@8 DD FLAT:??_R1A@?0A@EA@CChartDataSimulatorAddInImp@@8 ; CChartDataSimulatorAddInImp::`RTTI Base Class Array'
	DD	FLAT:??_R1A@?0A@EA@CChartAddInBase134221@@8
	DD	FLAT:??_R1A@?0A@EA@CIWUnknown@@8
	DD	FLAT:??_R1A@?0A@EA@CObject@@8
	DD	FLAT:??_R17?0A@EA@IChartAddIn134221@@8
	DD	FLAT:??_R17?0A@EA@IUnknown@@8
rdata$r	ENDS
;	COMDAT ??_R3CChartDataSimulatorAddInImp@@8
rdata$r	SEGMENT
??_R3CChartDataSimulatorAddInImp@@8 DD 00H		; CChartDataSimulatorAddInImp::`RTTI Class Hierarchy Descriptor'
	DD	01H
	DD	06H
	DD	FLAT:??_R2CChartDataSimulatorAddInImp@@8
rdata$r	ENDS
;	COMDAT ??_R0?AVCChartDataSimulatorAddInImp@@@8
data$rs	SEGMENT
??_R0?AVCChartDataSimulatorAddInImp@@@8 DD FLAT:??_7type_info@@6B@ ; CChartDataSimulatorAddInImp `RTTI Type Descriptor'
	DD	00H
	DB	'.?AVCChartDataSimulatorAddInImp@@', 00H
data$rs	ENDS
;	COMDAT ??_R4CChartDataSimulatorAddInImp@@6BCIWUnknown@@@
rdata$r	SEGMENT
??_R4CChartDataSimulatorAddInImp@@6BCIWUnknown@@@ DD 00H ; CChartDataSimulatorAddInImp::`RTTI Complete Object Locator'
	DD	00H
	DD	00H
	DD	FLAT:??_R0?AVCChartDataSimulatorAddInImp@@@8
	DD	FLAT:??_R3CChartDataSimulatorAddInImp@@8
rdata$r	ENDS
;	COMDAT ??_R1A@?0A@EA@?$CArray@PAVCChartDataGridHeaderInfo@@PAV1@@@8
rdata$r	SEGMENT
??_R1A@?0A@EA@?$CArray@PAVCChartDataGridHeaderInfo@@PAV1@@@8 DD FLAT:??_R0?AV?$CArray@PAVCChartDataGridHeaderInfo@@PAV1@@@@8 ; CArray<CChartDataGridHeaderInfo *,CChartDataGridHeaderInfo *>::`RTTI Base Class Descriptor at (0,-1,0,64)'
	DD	01H
	DD	00H
	DD	0ffffffffH
	DD	00H
	DD	040H
	DD	FLAT:??_R3?$CArray@PAVCChartDataGridHeaderInfo@@PAV1@@@8
rdata$r	ENDS
;	COMDAT ??_R2?$CArray@PAVCChartDataGridHeaderInfo@@PAV1@@@8
rdata$r	SEGMENT
??_R2?$CArray@PAVCChartDataGridHeaderInfo@@PAV1@@@8 DD FLAT:??_R1A@?0A@EA@?$CArray@PAVCChartDataGridHeaderInfo@@PAV1@@@8 ; CArray<CChartDataGridHeaderInfo *,CChartDataGridHeaderInfo *>::`RTTI Base Class Array'
	DD	FLAT:??_R1A@?0A@EA@CObject@@8
rdata$r	ENDS
;	COMDAT ??_R3?$CArray@PAVCChartDataGridHeaderInfo@@PAV1@@@8
rdata$r	SEGMENT
??_R3?$CArray@PAVCChartDataGridHeaderInfo@@PAV1@@@8 DD 00H ; CArray<CChartDataGridHeaderInfo *,CChartDataGridHeaderInfo *>::`RTTI Class Hierarchy Descriptor'
	DD	00H
	DD	02H
	DD	FLAT:??_R2?$CArray@PAVCChartDataGridHeaderInfo@@PAV1@@@8
rdata$r	ENDS
;	COMDAT ??_R0?AV?$CArray@PAVCChartDataGridHeaderInfo@@PAV1@@@@8
data$rs	SEGMENT
??_R0?AV?$CArray@PAVCChartDataGridHeaderInfo@@PAV1@@@@8 DD FLAT:??_7type_info@@6B@ ; CArray<CChartDataGridHeaderInfo *,CChartDataGridHeaderInfo *> `RTTI Type Descriptor'
	DD	00H
	DB	'.?AV?$CArray@PAVCChartDataGridHeaderInfo@@PAV1@@@', 00H
data$rs	ENDS
;	COMDAT ??_R4?$CArray@PAVCChartDataGridHeaderInfo@@PAV1@@@6B@
rdata$r	SEGMENT
??_R4?$CArray@PAVCChartDataGridHeaderInfo@@PAV1@@@6B@ DD 00H ; CArray<CChartDataGridHeaderInfo *,CChartDataGridHeaderInfo *>::`RTTI Complete Object Locator'
	DD	00H
	DD	00H
	DD	FLAT:??_R0?AV?$CArray@PAVCChartDataGridHeaderInfo@@PAV1@@@@8
	DD	FLAT:??_R3?$CArray@PAVCChartDataGridHeaderInfo@@PAV1@@@8
rdata$r	ENDS
;	COMDAT ??_R1A@?0A@EA@?$CList@PAVCChartRecordSet@@PAV1@@@8
rdata$r	SEGMENT
??_R1A@?0A@EA@?$CList@PAVCChartRecordSet@@PAV1@@@8 DD FLAT:??_R0?AV?$CList@PAVCChartRecordSet@@PAV1@@@@8 ; CList<CChartRecordSet *,CChartRecordSet *>::`RTTI Base Class Descriptor at (0,-1,0,64)'
	DD	01H
	DD	00H
	DD	0ffffffffH
	DD	00H
	DD	040H
	DD	FLAT:??_R3?$CList@PAVCChartRecordSet@@PAV1@@@8
rdata$r	ENDS
;	COMDAT ??_R2?$CList@PAVCChartRecordSet@@PAV1@@@8
rdata$r	SEGMENT
??_R2?$CList@PAVCChartRecordSet@@PAV1@@@8 DD FLAT:??_R1A@?0A@EA@?$CList@PAVCChartRecordSet@@PAV1@@@8 ; CList<CChartRecordSet *,CChartRecordSet *>::`RTTI Base Class Array'
	DD	FLAT:??_R1A@?0A@EA@CObject@@8
rdata$r	ENDS
;	COMDAT ??_R3?$CList@PAVCChartRecordSet@@PAV1@@@8
rdata$r	SEGMENT
??_R3?$CList@PAVCChartRecordSet@@PAV1@@@8 DD 00H	; CList<CChartRecordSet *,CChartRecordSet *>::`RTTI Class Hierarchy Descriptor'
	DD	00H
	DD	02H
	DD	FLAT:??_R2?$CList@PAVCChartRecordSet@@PAV1@@@8
rdata$r	ENDS
;	COMDAT ??_R0?AV?$CList@PAVCChartRecordSet@@PAV1@@@@8
data$rs	SEGMENT
??_R0?AV?$CList@PAVCChartRecordSet@@PAV1@@@@8 DD FLAT:??_7type_info@@6B@ ; CList<CChartRecordSet *,CChartRecordSet *> `RTTI Type Descriptor'
	DD	00H
	DB	'.?AV?$CList@PAVCChartRecordSet@@PAV1@@@', 00H
data$rs	ENDS
;	COMDAT ??_R4?$CList@PAVCChartRecordSet@@PAV1@@@6B@
rdata$r	SEGMENT
??_R4?$CList@PAVCChartRecordSet@@PAV1@@@6B@ DD 00H	; CList<CChartRecordSet *,CChartRecordSet *>::`RTTI Complete Object Locator'
	DD	00H
	DD	00H
	DD	FLAT:??_R0?AV?$CList@PAVCChartRecordSet@@PAV1@@@@8
	DD	FLAT:??_R3?$CList@PAVCChartRecordSet@@PAV1@@@8
rdata$r	ENDS
;	COMDAT ??_R1A@?0A@EA@IChartAddIn134221@@8
rdata$r	SEGMENT
??_R1A@?0A@EA@IChartAddIn134221@@8 DD FLAT:??_R0?AUIChartAddIn134221@@@8 ; IChartAddIn134221::`RTTI Base Class Descriptor at (0,-1,0,64)'
	DD	01H
	DD	00H
	DD	0ffffffffH
	DD	00H
	DD	040H
	DD	FLAT:??_R3IChartAddIn134221@@8
rdata$r	ENDS
;	COMDAT ??_R2IChartAddIn134221@@8
rdata$r	SEGMENT
??_R2IChartAddIn134221@@8 DD FLAT:??_R1A@?0A@EA@IChartAddIn134221@@8 ; IChartAddIn134221::`RTTI Base Class Array'
	DD	FLAT:??_R1A@?0A@EA@IUnknown@@8
rdata$r	ENDS
;	COMDAT ??_R3IChartAddIn134221@@8
rdata$r	SEGMENT
??_R3IChartAddIn134221@@8 DD 00H			; IChartAddIn134221::`RTTI Class Hierarchy Descriptor'
	DD	00H
	DD	02H
	DD	FLAT:??_R2IChartAddIn134221@@8
rdata$r	ENDS
;	COMDAT ??_R0?AUIChartAddIn134221@@@8
data$rs	SEGMENT
??_R0?AUIChartAddIn134221@@@8 DD FLAT:??_7type_info@@6B@ ; IChartAddIn134221 `RTTI Type Descriptor'
	DD	00H
	DB	'.?AUIChartAddIn134221@@', 00H
data$rs	ENDS
;	COMDAT ??_C@_04PIAMNFKE@TDC?$DN@
CONST	SEGMENT
??_C@_04PIAMNFKE@TDC?$DN@ DB 'TDC=', 00H		; `string'
CONST	ENDS
;	COMDAT ??_C@_0CD@FFIBMNLA@?$LK?$LI?A?$LG?$LI?$NO?$LM?$LM?A?v?5?$LM?$LD?A?$KE?$LP?$KB?5?$MA?L?$LL?s?$MA?L?5?$MA?V?$LN?$MA?$LE?O@
CONST	SEGMENT
??_C@_0CD@FFIBMNLA@?$LK?$LI?A?$LG?$LI?$NO?$LM?$LM?A?v?5?$LM?$LD?A?$KE?$LP?$KB?5?$MA?L?$LL?s?$MA?L?5?$MA?V?$LN?$MA?$LE?O@ DB 0baH
	DB	0b8H, 0c1H, 0b6H, 0b8H, 0deH, 0bcH, 0bcH, 0c1H, 0f6H, ' ', 0bcH
	DB	0b3H, 0c1H, 0a4H, 0bfH, 0a1H, ' ', 0c0H, 0ccH, 0bbH, 0f3H, 0c0H
	DB	0ccH, ' ', 0c0H, 0d6H, 0bdH, 0c0H, 0b4H, 0cfH, 0b4H, 0d9H, '.', 00H ; `string'
CONST	ENDS
;	COMDAT ??_C@_05DGHEHLLC@UM?$DNE?$EA@
CONST	SEGMENT
??_C@_05DGHEHLLC@UM?$DNE?$EA@ DB 'UM=E@', 00H		; `string'
CONST	ENDS
;	COMDAT ??_C@_06MLGKKOBC@RDATET@
CONST	SEGMENT
??_C@_06MLGKKOBC@RDATET@ DB 'RDATET', 00H		; `string'
CONST	ENDS
;	COMDAT ??_C@_01NEMOKFLO@?$DN@
CONST	SEGMENT
??_C@_01NEMOKFLO@?$DN@ DB '=', 00H			; `string'
CONST	ENDS
;	COMDAT ??_C@_01EOFPKCAF@?$EA@
CONST	SEGMENT
??_C@_01EOFPKCAF@?$EA@ DB '@', 00H			; `string'
CONST	ENDS
;	COMDAT ??_C@_02CPBOPLPO@UM@
CONST	SEGMENT
??_C@_02CPBOPLPO@UM@ DB 'UM', 00H			; `string'
CONST	ENDS
;	COMDAT ??_C@_01HIHLOKLC@1@
CONST	SEGMENT
??_C@_01HIHLOKLC@1@ DB '1', 00H				; `string'
CONST	ENDS
;	COMDAT ??_C@_02LEBOFCOG@UT@
CONST	SEGMENT
??_C@_02LEBOFCOG@UT@ DB 'UT', 00H			; `string'
CONST	ENDS
;	COMDAT ??_C@_02PONMEALH@UD@
CONST	SEGMENT
??_C@_02PONMEALH@UD@ DB 'UD', 00H			; `string'
CONST	ENDS
;	COMDAT ??_C@_01IHBHIGKO@?0@
CONST	SEGMENT
??_C@_01IHBHIGKO@?0@ DB ',', 00H			; `string'
CONST	ENDS
;	COMDAT ??_C@_0BA@ENJOCHIO@LoadResourceDLL@
CONST	SEGMENT
??_C@_0BA@ENJOCHIO@LoadResourceDLL@ DB 'LoadResourceDLL', 00H ; `string'
CONST	ENDS
;	COMDAT ??_7CChartDataSimulatorAddInImp@@6BIChartAddIn134221@@@
CONST	SEGMENT
??_7CChartDataSimulatorAddInImp@@6BIChartAddIn134221@@@ DD FLAT:??_R4CChartDataSimulatorAddInImp@@6BIChartAddIn134221@@@ ; CChartDataSimulatorAddInImp::`vftable'
	DD	FLAT:?QueryInterface@CChartAddInBase134221@@O7AGJABU_GUID@@PAPAX@Z
	DD	FLAT:?AddRef@CChartAddInBase134221@@O7AGKXZ
	DD	FLAT:?Release@CChartAddInBase134221@@O7AGKXZ
	DD	FLAT:??_ECChartDataSimulatorAddInImp@@W7AEPAXI@Z
	DD	FLAT:?HasFullManager@CChartAddInBase134221@@MAEHXZ
	DD	FLAT:?GetAddInCustomInterface@CChartAddInBase134221@@MAEPAUIUnknown@@XZ
	DD	FLAT:?InvokeAddIn@CChartAddInBase134221@@MAEHHJ@Z
	DD	FLAT:?InvokeAddInStr@CChartAddInBase134221@@MAEHPBD0@Z
	DD	FLAT:?OnOcxDestroyWindow@CChartAddInBase134221@@MAEXXZ
	DD	FLAT:?RegisterEventMap@CChartAddInBase134221@@UAEHH@Z
	DD	FLAT:?UnregisterEventMap@CChartAddInBase134221@@UAEHXZ
	DD	FLAT:?OnGSharedDataChange@CChartAddInBase134221@@MAEXPBD0H@Z
	DD	FLAT:?OnLSharedDataChange@CChartAddInBase134221@@MAEXPBD0@Z
	DD	FLAT:?OnResetChart@CChartAddInBase134221@@MAEXXZ
	DD	FLAT:?OnDrawBeforeGraph@CChartAddInBase134221@@MAEXPAUHDC__@@@Z
	DD	FLAT:?OnDrawAfterGraph@CChartAddInBase134221@@MAEXPAUHDC__@@@Z
	DD	FLAT:?OnPacketDataMultiItem@CChartDataSimulatorAddInImp@@MAEXPBD0H@Z
	DD	FLAT:?OnTimer@CChartAddInBase134221@@MAEXI@Z
	DD	FLAT:?OnCaptureChanged@CChartAddInBase134221@@MAEXPAUHWND__@@QAUHBITMAP__@@@Z
	DD	FLAT:?OnResetMainBlock@CChartAddInBase134221@@MAEXXZ
	DD	FLAT:?OnUserIndiatorConditionLoaded@CChartAddInBase134221@@MAEXXZ
	DD	FLAT:?OnChartItemChanged@CChartAddInBase134221@@MAEXXZ
	DD	FLAT:?OnGraphDataChanged@CChartAddInBase134221@@MAEXXZ
	DD	FLAT:?OnBlockRemoved@CChartAddInBase134221@@MAEXHH@Z
	DD	FLAT:?OnGraphAdded@CChartAddInBase134221@@MAEXPBD0@Z
	DD	FLAT:?OnManualRealData@CChartAddInBase134221@@MAEXPBDNH@Z
	DD	FLAT:?OnContextMenu@CChartAddInBase134221@@MAEXPAUHWND__@@AAUtagPOINT@@@Z
	DD	FLAT:?OnGraphDeleted@CChartAddInBase134221@@MAEXPBD0@Z
	DD	FLAT:?OnPacketTruncated@CChartAddInBase134221@@MAEXH@Z
	DD	FLAT:?OnBlockChanged@CChartAddInBase134221@@MAEXW4BLOCKBEHAVIOR@CBlockBaseData@@HHHH@Z
	DD	FLAT:?OnToolCommand@CChartDataSimulatorAddInImp@@MAEXHH@Z
	DD	FLAT:?OnRealData@CChartAddInBase134221@@MAEXPBDN0@Z
	DD	FLAT:?OnIndexedRealData@CChartAddInBase134221@@MAEXPBDHN@Z
	DD	FLAT:?OnRealPacketEnd@CChartAddInBase134221@@MAEXPBD@Z
	DD	FLAT:?OnLoadEnvironment@CChartAddInBase134221@@MAEXPAUIPropertyMap@@@Z
	DD	FLAT:?OnSaveEnvironment@CChartAddInBase134221@@MAEXPAUIPropertyMap@@@Z
	DD	FLAT:?DrawCursor@CChartAddInBase134221@@MAE?AUtagRECT@@PAUHDC__@@@Z
	DD	FLAT:?OnRecalculationComplete@CChartAddInBase134221@@MAEXXZ
	DD	FLAT:?OnPreRealData@CChartDataSimulatorAddInImp@@MAEHPBDAAN0@Z
	DD	FLAT:?OnPreIndexedRealData@CChartAddInBase134221@@MAEHPBDHAAN@Z
	DD	FLAT:?OnPreRealPacketEnd@CChartDataSimulatorAddInImp@@MAEHPBD@Z
	DD	FLAT:?OnCmdMsg@CChartDataSimulatorAddInImp@@MAEHIHPAUICmdUI134221@@@Z
	DD	FLAT:?OnAddInMsg@CChartAddInBase134221@@MAEHPBDJ@Z
	DD	FLAT:?OnAddInToolCommand@CChartAddInBase134221@@MAEHAAJW4EAICommandType@@JJ@Z
	DD	FLAT:?OnAddInToolCommand@CChartAddInBase134221@@MAEHAAJW4EAICommandType@@J@Z
	DD	FLAT:?OnAddInToolCommand@CChartAddInBase134221@@MAEHAAJW4EAICommandType@@PBDPAVCObject@@@Z
	DD	FLAT:?OnAddInToolCommand@CChartAddInBase134221@@MAEHAAJW4EAICommandType@@PBD@Z
	DD	FLAT:?OnAddInToolCommand@CChartAddInBase134221@@MAEHAAJW4EAICommandType@@PAUIGraphInfo134221@@@Z
	DD	FLAT:?OnAddInToolCommand@CChartAddInBase134221@@MAEHAAJW4EAICommandType@@@Z
	DD	FLAT:?OnAddInToolCommand@CChartAddInBase134221@@MAEHW4EAICommandType@@JJJJJJJJJ@Z
	DD	FLAT:?OnAddInToolCommand@CChartAddInBase134221@@MAEHW4EAICommandType@@JJ@Z
	DD	FLAT:?OnAddInToolCommand@CChartAddInBase134221@@MAEHW4EAICommandType@@JPBD11@Z
	DD	FLAT:?OnAddInToolCommand@CChartAddInBase134221@@MAEHW4EAICommandType@@JPBD@Z
	DD	FLAT:?OnAddInToolCommand@CChartAddInBase134221@@MAEHW4EAICommandType@@J@Z
	DD	FLAT:?OnAddInToolCommand@CChartAddInBase134221@@MAEHW4EAICommandType@@PBUIAddInDllBase@@@Z
	DD	FLAT:?OnAddInToolCommand@CChartAddInBase134221@@MAEHW4EAICommandType@@PBDJ@Z
	DD	FLAT:?OnAddInToolCommand@CChartAddInBase134221@@MAEHW4EAICommandType@@PBD1@Z
	DD	FLAT:?OnAddInToolCommand@CChartAddInBase134221@@MAEHW4EAICommandType@@PBD@Z
	DD	FLAT:?OnAddInToolCommand@CChartAddInBase134221@@MAEHW4EAICommandType@@PAUHDC__@@IAAUtagPOINT@@K@Z
	DD	FLAT:?OnAddInToolCommand@CChartDataSimulatorAddInImp@@MAEHW4EAICommandType@@@Z
	DD	FLAT:?OnKeyDown@CChartAddInBase134221@@MAEHIII@Z
	DD	FLAT:?OnKeyUp@CChartAddInBase134221@@MAEHIII@Z
	DD	FLAT:?OnMouseWheel@CChartAddInBase134221@@MAEHIFUtagPOINT@@K@Z
	DD	FLAT:?OnMouseMove@CChartAddInBase134221@@MAEHPAUHDC__@@IAAUtagPOINT@@KQAUHBITMAP__@@@Z
	DD	FLAT:?OnLButtonDown@CChartAddInBase134221@@MAEHPAUHDC__@@IAAUtagPOINT@@K@Z
	DD	FLAT:?OnLButtonUp@CChartAddInBase134221@@MAEHPAUHDC__@@IAAUtagPOINT@@K@Z
	DD	FLAT:?OnLButtonDblClk@CChartAddInBase134221@@MAEHPAUHDC__@@IAAUtagPOINT@@K@Z
	DD	FLAT:?OnRButtonDown@CChartAddInBase134221@@MAEHPAUHDC__@@IAAUtagPOINT@@K@Z
	DD	FLAT:?OnRButtonUp@CChartAddInBase134221@@MAEHPAUHDC__@@IAAUtagPOINT@@K@Z
	DD	FLAT:?OnRButtonDblClk@CChartAddInBase134221@@MAEHPAUHDC__@@IAAUtagPOINT@@K@Z
CONST	ENDS
;	COMDAT ??_7CChartDataSimulatorAddInImp@@6BCIWUnknown@@@
CONST	SEGMENT
??_7CChartDataSimulatorAddInImp@@6BCIWUnknown@@@ DD FLAT:??_R4CChartDataSimulatorAddInImp@@6BCIWUnknown@@@ ; CChartDataSimulatorAddInImp::`vftable'
	DD	FLAT:?GetRuntimeClass@CObject@@UBEPAUCRuntimeClass@@XZ
	DD	FLAT:??_ECChartDataSimulatorAddInImp@@UAEPAXI@Z
	DD	FLAT:?Serialize@CObject@@UAEXAAVCArchive@@@Z
	DD	FLAT:?AssertValid@CObject@@UBEXXZ
	DD	FLAT:?Dump@CObject@@UBEXAAVCDumpContext@@@Z
	DD	FLAT:?AddRef@CChartAddInBase134221@@MAGKXZ
	DD	FLAT:?Release@CChartAddInBase134221@@MAGKXZ
	DD	FLAT:?QueryInterface@CChartAddInBase134221@@MAGJABU_GUID@@PAPAX@Z
	DD	FLAT:?PostConstruct@CIWUnknown@@MAEXXZ
	DD	FLAT:?PreDestructX@CIWUnknown@@MAEXXZ
	DD	FLAT:?PreDestruct@CIWUnknown@@MAEXXZ
	DD	FLAT:?GetRegisteredEventMap@CChartDataSimulatorAddInImp@@MBEPBW4EAddInEventType@IChartAddIn134221@@XZ
CONST	ENDS
;	COMDAT ??_7?$CList@PAVCChartRecordSet@@PAV1@@@6B@
CONST	SEGMENT
??_7?$CList@PAVCChartRecordSet@@PAV1@@@6B@ DD FLAT:??_R4?$CList@PAVCChartRecordSet@@PAV1@@@6B@ ; CList<CChartRecordSet *,CChartRecordSet *>::`vftable'
	DD	FLAT:?GetRuntimeClass@CObject@@UBEPAUCRuntimeClass@@XZ
	DD	FLAT:??_E?$CList@PAVCChartRecordSet@@PAV1@@@UAEPAXI@Z
	DD	FLAT:?Serialize@?$CList@PAVCChartRecordSet@@PAV1@@@UAEXAAVCArchive@@@Z
	DD	FLAT:?AssertValid@CObject@@UBEXXZ
	DD	FLAT:?Dump@CObject@@UBEXAAVCDumpContext@@@Z
CONST	ENDS
;	COMDAT ??_7?$CArray@PAVCChartDataGridHeaderInfo@@PAV1@@@6B@
CONST	SEGMENT
??_7?$CArray@PAVCChartDataGridHeaderInfo@@PAV1@@@6B@ DD FLAT:??_R4?$CArray@PAVCChartDataGridHeaderInfo@@PAV1@@@6B@ ; CArray<CChartDataGridHeaderInfo *,CChartDataGridHeaderInfo *>::`vftable'
	DD	FLAT:?GetRuntimeClass@CObject@@UBEPAUCRuntimeClass@@XZ
	DD	FLAT:??_E?$CArray@PAVCChartDataGridHeaderInfo@@PAV1@@@UAEPAXI@Z
	DD	FLAT:?Serialize@?$CArray@PAVCChartDataGridHeaderInfo@@PAV1@@@UAEXAAVCArchive@@@Z
	DD	FLAT:?AssertValid@CObject@@UBEXXZ
	DD	FLAT:?Dump@CObject@@UBEXAAVCDumpContext@@@Z
CONST	ENDS
;	COMDAT ??_R1A@?0A@EA@IUnknown@@8
rdata$r	SEGMENT
??_R1A@?0A@EA@IUnknown@@8 DD FLAT:??_R0?AUIUnknown@@@8	; IUnknown::`RTTI Base Class Descriptor at (0,-1,0,64)'
	DD	00H
	DD	00H
	DD	0ffffffffH
	DD	00H
	DD	040H
	DD	FLAT:??_R3IUnknown@@8
rdata$r	ENDS
;	COMDAT ??_R2IUnknown@@8
rdata$r	SEGMENT
??_R2IUnknown@@8 DD FLAT:??_R1A@?0A@EA@IUnknown@@8	; IUnknown::`RTTI Base Class Array'
rdata$r	ENDS
;	COMDAT ??_R3IUnknown@@8
rdata$r	SEGMENT
??_R3IUnknown@@8 DD 00H					; IUnknown::`RTTI Class Hierarchy Descriptor'
	DD	00H
	DD	01H
	DD	FLAT:??_R2IUnknown@@8
rdata$r	ENDS
;	COMDAT ??_R0?AUIUnknown@@@8
data$rs	SEGMENT
??_R0?AUIUnknown@@@8 DD FLAT:??_7type_info@@6B@		; IUnknown `RTTI Type Descriptor'
	DD	00H
	DB	'.?AUIUnknown@@', 00H
data$rs	ENDS
;	COMDAT ??_R1A@?0A@EA@CObject@@8
rdata$r	SEGMENT
??_R1A@?0A@EA@CObject@@8 DD FLAT:??_R0?AVCObject@@@8	; CObject::`RTTI Base Class Descriptor at (0,-1,0,64)'
	DD	00H
	DD	00H
	DD	0ffffffffH
	DD	00H
	DD	040H
	DD	FLAT:??_R3CObject@@8
rdata$r	ENDS
;	COMDAT ??_R2CObject@@8
rdata$r	SEGMENT
??_R2CObject@@8 DD FLAT:??_R1A@?0A@EA@CObject@@8	; CObject::`RTTI Base Class Array'
rdata$r	ENDS
;	COMDAT ??_R3CObject@@8
rdata$r	SEGMENT
??_R3CObject@@8 DD 00H					; CObject::`RTTI Class Hierarchy Descriptor'
	DD	00H
	DD	01H
	DD	FLAT:??_R2CObject@@8
rdata$r	ENDS
;	COMDAT ??_R0?AVCObject@@@8
data$rs	SEGMENT
??_R0?AVCObject@@@8 DD FLAT:??_7type_info@@6B@		; CObject `RTTI Type Descriptor'
	DD	00H
	DB	'.?AVCObject@@', 00H
data$rs	ENDS
;	COMDAT xdata$x
xdata$x	SEGMENT
__unwindtable$??1CDlgDataSimulator@@UAE@XZ DD 0ffffffffH
	DD	FLAT:___std_terminate
__ehfuncinfo$??1CDlgDataSimulator@@UAE@XZ DD 019930522H
	DD	01H
	DD	FLAT:__unwindtable$??1CDlgDataSimulator@@UAE@XZ
	DD	2 DUP(00H)
	DD	2 DUP(00H)
	DD	00H
	DD	05H
xdata$x	ENDS
;	COMDAT xdata$x
xdata$x	SEGMENT
__ehfuncinfo$??1ILPCSTR134221@@QAE@XZ DD 019930522H
	DD	00H
	DD	00H
	DD	2 DUP(00H)
	DD	2 DUP(00H)
	DD	00H
	DD	05H
xdata$x	ENDS
;	COMDAT xdata$x
xdata$x	SEGMENT
__ehfuncinfo$??1CMultiLanguageResourceSetter@@QAE@XZ DD 019930522H
	DD	00H
	DD	00H
	DD	2 DUP(00H)
	DD	2 DUP(00H)
	DD	00H
	DD	05H
xdata$x	ENDS
;	COMDAT xdata$x
xdata$x	SEGMENT
__ehfuncinfo$?OnAddInToolCommand@CChartDataSimulatorAddInImp@@MAEHW4EAICommandType@@@Z DD 019930522H
	DD	030H
	DD	FLAT:__unwindtable$?OnAddInToolCommand@CChartDataSimulatorAddInImp@@MAEHW4EAICommandType@@@Z
	DD	2 DUP(00H)
	DD	2 DUP(00H)
	DD	00H
	DD	01H
__unwindtable$?OnAddInToolCommand@CChartDataSimulatorAddInImp@@MAEHW4EAICommandType@@@Z DD 0ffffffffH
	DD	FLAT:__unwindfunclet$?OnAddInToolCommand@CChartDataSimulatorAddInImp@@MAEHW4EAICommandType@@@Z$0
	DD	0ffffffffH
	DD	00H
	DD	00H
	DD	FLAT:__unwindfunclet$?OnAddInToolCommand@CChartDataSimulatorAddInImp@@MAEHW4EAICommandType@@@Z$1
	DD	02H
	DD	FLAT:__unwindfunclet$?OnAddInToolCommand@CChartDataSimulatorAddInImp@@MAEHW4EAICommandType@@@Z$2
	DD	03H
	DD	FLAT:__unwindfunclet$?OnAddInToolCommand@CChartDataSimulatorAddInImp@@MAEHW4EAICommandType@@@Z$3
	DD	0ffffffffH
	DD	00H
	DD	03H
	DD	FLAT:__unwindfunclet$?OnAddInToolCommand@CChartDataSimulatorAddInImp@@MAEHW4EAICommandType@@@Z$4
	DD	06H
	DD	FLAT:__unwindfunclet$?OnAddInToolCommand@CChartDataSimulatorAddInImp@@MAEHW4EAICommandType@@@Z$5
	DD	07H
	DD	FLAT:__unwindfunclet$?OnAddInToolCommand@CChartDataSimulatorAddInImp@@MAEHW4EAICommandType@@@Z$6
	DD	08H
	DD	FLAT:__unwindfunclet$?OnAddInToolCommand@CChartDataSimulatorAddInImp@@MAEHW4EAICommandType@@@Z$7
	DD	07H
	DD	00H
	DD	06H
	DD	00H
	DD	0ffffffffH
	DD	00H
	DD	09H
	DD	FLAT:__unwindfunclet$?OnAddInToolCommand@CChartDataSimulatorAddInImp@@MAEHW4EAICommandType@@@Z$8
	DD	0dH
	DD	FLAT:__unwindfunclet$?OnAddInToolCommand@CChartDataSimulatorAddInImp@@MAEHW4EAICommandType@@@Z$9
	DD	0eH
	DD	FLAT:__unwindfunclet$?OnAddInToolCommand@CChartDataSimulatorAddInImp@@MAEHW4EAICommandType@@@Z$10
	DD	0fH
	DD	FLAT:__unwindfunclet$?OnAddInToolCommand@CChartDataSimulatorAddInImp@@MAEHW4EAICommandType@@@Z$11
	DD	010H
	DD	FLAT:__unwindfunclet$?OnAddInToolCommand@CChartDataSimulatorAddInImp@@MAEHW4EAICommandType@@@Z$12
	DD	011H
	DD	FLAT:__unwindfunclet$?OnAddInToolCommand@CChartDataSimulatorAddInImp@@MAEHW4EAICommandType@@@Z$13
	DD	012H
	DD	FLAT:__unwindfunclet$?OnAddInToolCommand@CChartDataSimulatorAddInImp@@MAEHW4EAICommandType@@@Z$14
	DD	013H
	DD	FLAT:__unwindfunclet$?OnAddInToolCommand@CChartDataSimulatorAddInImp@@MAEHW4EAICommandType@@@Z$15
	DD	014H
	DD	FLAT:__unwindfunclet$?OnAddInToolCommand@CChartDataSimulatorAddInImp@@MAEHW4EAICommandType@@@Z$16
	DD	012H
	DD	00H
	DD	0eH
	DD	00H
	DD	0dH
	DD	00H
	DD	07H
	DD	00H
	DD	06H
	DD	00H
	DD	0ffffffffH
	DD	00H
	DD	015H
	DD	FLAT:__unwindfunclet$?OnAddInToolCommand@CChartDataSimulatorAddInImp@@MAEHW4EAICommandType@@@Z$17
	DD	01cH
	DD	FLAT:__unwindfunclet$?OnAddInToolCommand@CChartDataSimulatorAddInImp@@MAEHW4EAICommandType@@@Z$18
	DD	01dH
	DD	FLAT:__unwindfunclet$?OnAddInToolCommand@CChartDataSimulatorAddInImp@@MAEHW4EAICommandType@@@Z$19
	DD	01dH
	DD	FLAT:__unwindfunclet$?OnAddInToolCommand@CChartDataSimulatorAddInImp@@MAEHW4EAICommandType@@@Z$20
	DD	01dH
	DD	FLAT:__unwindfunclet$?OnAddInToolCommand@CChartDataSimulatorAddInImp@@MAEHW4EAICommandType@@@Z$21
	DD	01dH
	DD	FLAT:__unwindfunclet$?OnAddInToolCommand@CChartDataSimulatorAddInImp@@MAEHW4EAICommandType@@@Z$22
	DD	021H
	DD	FLAT:__unwindfunclet$?OnAddInToolCommand@CChartDataSimulatorAddInImp@@MAEHW4EAICommandType@@@Z$40
	DD	022H
	DD	FLAT:__unwindfunclet$?OnAddInToolCommand@CChartDataSimulatorAddInImp@@MAEHW4EAICommandType@@@Z$41
	DD	023H
	DD	FLAT:__unwindfunclet$?OnAddInToolCommand@CChartDataSimulatorAddInImp@@MAEHW4EAICommandType@@@Z$42
	DD	021H
	DD	FLAT:__unwindfunclet$?OnAddInToolCommand@CChartDataSimulatorAddInImp@@MAEHW4EAICommandType@@@Z$26
	DD	025H
	DD	FLAT:__unwindfunclet$?OnAddInToolCommand@CChartDataSimulatorAddInImp@@MAEHW4EAICommandType@@@Z$27
	DD	025H
	DD	FLAT:___std_terminate
	DD	021H
	DD	FLAT:___std_terminate
	DD	012H
	DD	FLAT:___std_terminate
	DD	0eH
	DD	FLAT:___std_terminate
	DD	0dH
	DD	FLAT:___std_terminate
	DD	07H
	DD	FLAT:___std_terminate
	DD	06H
	DD	FLAT:___std_terminate
	DD	00H
	DD	FLAT:___std_terminate
	DD	0ffffffffH
	DD	FLAT:___std_terminate
xdata$x	ENDS
;	COMDAT xdata$x
xdata$x	SEGMENT
__unwindtable$?OnPreRealPacketEnd@CChartDataSimulatorAddInImp@@MAEHPBD@Z DD 0ffffffffH
	DD	FLAT:__unwindfunclet$?OnPreRealPacketEnd@CChartDataSimulatorAddInImp@@MAEHPBD@Z$0
__ehfuncinfo$?OnPreRealPacketEnd@CChartDataSimulatorAddInImp@@MAEHPBD@Z DD 019930522H
	DD	01H
	DD	FLAT:__unwindtable$?OnPreRealPacketEnd@CChartDataSimulatorAddInImp@@MAEHPBD@Z
	DD	2 DUP(00H)
	DD	2 DUP(00H)
	DD	00H
	DD	01H
xdata$x	ENDS
;	COMDAT xdata$x
xdata$x	SEGMENT
__unwindtable$?OnPreRealData@CChartDataSimulatorAddInImp@@MAEHPBDAAN0@Z DD 0ffffffffH
	DD	FLAT:__unwindfunclet$?OnPreRealData@CChartDataSimulatorAddInImp@@MAEHPBDAAN0@Z$0
__ehfuncinfo$?OnPreRealData@CChartDataSimulatorAddInImp@@MAEHPBDAAN0@Z DD 019930522H
	DD	01H
	DD	FLAT:__unwindtable$?OnPreRealData@CChartDataSimulatorAddInImp@@MAEHPBDAAN0@Z
	DD	2 DUP(00H)
	DD	2 DUP(00H)
	DD	00H
	DD	01H
xdata$x	ENDS
;	COMDAT xdata$x
xdata$x	SEGMENT
__ehfuncinfo$?SetDataToChartOCX@CChartDataSimulatorAddInImp@@IAEHPAUIPacketManager134221@@PAVCChartDataGridManager@@V?$CStringT@DV?$StrTraitMFC_DLL@DV?$ChTraitsCRT@D@ATL@@@@@ATL@@@Z DD 019930522H
	DD	0aH
	DD	FLAT:__unwindtable$?SetDataToChartOCX@CChartDataSimulatorAddInImp@@IAEHPAUIPacketManager134221@@PAVCChartDataGridManager@@V?$CStringT@DV?$StrTraitMFC_DLL@DV?$ChTraitsCRT@D@ATL@@@@@ATL@@@Z
	DD	2 DUP(00H)
	DD	2 DUP(00H)
	DD	00H
	DD	01H
__unwindtable$?SetDataToChartOCX@CChartDataSimulatorAddInImp@@IAEHPAUIPacketManager134221@@PAVCChartDataGridManager@@V?$CStringT@DV?$StrTraitMFC_DLL@DV?$ChTraitsCRT@D@ATL@@@@@ATL@@@Z DD 0ffffffffH
	DD	FLAT:__unwindfunclet$?SetDataToChartOCX@CChartDataSimulatorAddInImp@@IAEHPAUIPacketManager134221@@PAVCChartDataGridManager@@V?$CStringT@DV?$StrTraitMFC_DLL@DV?$ChTraitsCRT@D@ATL@@@@@ATL@@@Z$0
	DD	00H
	DD	FLAT:__unwindfunclet$?SetDataToChartOCX@CChartDataSimulatorAddInImp@@IAEHPAUIPacketManager134221@@PAVCChartDataGridManager@@V?$CStringT@DV?$StrTraitMFC_DLL@DV?$ChTraitsCRT@D@ATL@@@@@ATL@@@Z$1
	DD	01H
	DD	FLAT:__unwindfunclet$?SetDataToChartOCX@CChartDataSimulatorAddInImp@@IAEHPAUIPacketManager134221@@PAVCChartDataGridManager@@V?$CStringT@DV?$StrTraitMFC_DLL@DV?$ChTraitsCRT@D@ATL@@@@@ATL@@@Z$2
	DD	02H
	DD	FLAT:__unwindfunclet$?SetDataToChartOCX@CChartDataSimulatorAddInImp@@IAEHPAUIPacketManager134221@@PAVCChartDataGridManager@@V?$CStringT@DV?$StrTraitMFC_DLL@DV?$ChTraitsCRT@D@ATL@@@@@ATL@@@Z$3
	DD	03H
	DD	FLAT:__unwindfunclet$?SetDataToChartOCX@CChartDataSimulatorAddInImp@@IAEHPAUIPacketManager134221@@PAVCChartDataGridManager@@V?$CStringT@DV?$StrTraitMFC_DLL@DV?$ChTraitsCRT@D@ATL@@@@@ATL@@@Z$4
	DD	01H
	DD	FLAT:__unwindfunclet$?SetDataToChartOCX@CChartDataSimulatorAddInImp@@IAEHPAUIPacketManager134221@@PAVCChartDataGridManager@@V?$CStringT@DV?$StrTraitMFC_DLL@DV?$ChTraitsCRT@D@ATL@@@@@ATL@@@Z$5
	DD	05H
	DD	FLAT:__unwindfunclet$?SetDataToChartOCX@CChartDataSimulatorAddInImp@@IAEHPAUIPacketManager134221@@PAVCChartDataGridManager@@V?$CStringT@DV?$StrTraitMFC_DLL@DV?$ChTraitsCRT@D@ATL@@@@@ATL@@@Z$6
	DD	06H
	DD	FLAT:__unwindfunclet$?SetDataToChartOCX@CChartDataSimulatorAddInImp@@IAEHPAUIPacketManager134221@@PAVCChartDataGridManager@@V?$CStringT@DV?$StrTraitMFC_DLL@DV?$ChTraitsCRT@D@ATL@@@@@ATL@@@Z$7
	DD	07H
	DD	FLAT:__unwindfunclet$?SetDataToChartOCX@CChartDataSimulatorAddInImp@@IAEHPAUIPacketManager134221@@PAVCChartDataGridManager@@V?$CStringT@DV?$StrTraitMFC_DLL@DV?$ChTraitsCRT@D@ATL@@@@@ATL@@@Z$8
	DD	08H
	DD	FLAT:__unwindfunclet$?SetDataToChartOCX@CChartDataSimulatorAddInImp@@IAEHPAUIPacketManager134221@@PAVCChartDataGridManager@@V?$CStringT@DV?$StrTraitMFC_DLL@DV?$ChTraitsCRT@D@ATL@@@@@ATL@@@Z$9
xdata$x	ENDS
;	COMDAT xdata$x
xdata$x	SEGMENT
__ehfuncinfo$?GetDataFromPacketList@CChartDataSimulatorAddInImp@@IAEHHPBD0PAVCChartDataGridManager@@H@Z DD 019930522H
	DD	0aH
	DD	FLAT:__unwindtable$?GetDataFromPacketList@CChartDataSimulatorAddInImp@@IAEHHPBD0PAVCChartDataGridManager@@H@Z
	DD	2 DUP(00H)
	DD	2 DUP(00H)
	DD	00H
	DD	01H
__unwindtable$?GetDataFromPacketList@CChartDataSimulatorAddInImp@@IAEHHPBD0PAVCChartDataGridManager@@H@Z DD 0ffffffffH
	DD	FLAT:__unwindfunclet$?GetDataFromPacketList@CChartDataSimulatorAddInImp@@IAEHHPBD0PAVCChartDataGridManager@@H@Z$2
	DD	00H
	DD	FLAT:__unwindfunclet$?GetDataFromPacketList@CChartDataSimulatorAddInImp@@IAEHHPBD0PAVCChartDataGridManager@@H@Z$3
	DD	01H
	DD	FLAT:__unwindfunclet$?GetDataFromPacketList@CChartDataSimulatorAddInImp@@IAEHHPBD0PAVCChartDataGridManager@@H@Z$4
	DD	02H
	DD	FLAT:__unwindfunclet$?GetDataFromPacketList@CChartDataSimulatorAddInImp@@IAEHHPBD0PAVCChartDataGridManager@@H@Z$5
	DD	02H
	DD	FLAT:___std_terminate
	DD	02H
	DD	FLAT:__unwindfunclet$?GetDataFromPacketList@CChartDataSimulatorAddInImp@@IAEHHPBD0PAVCChartDataGridManager@@H@Z$6
	DD	02H
	DD	FLAT:__unwindfunclet$?GetDataFromPacketList@CChartDataSimulatorAddInImp@@IAEHHPBD0PAVCChartDataGridManager@@H@Z$7
	DD	02H
	DD	FLAT:___std_terminate
	DD	0ffffffffH
	DD	FLAT:___std_terminate
	DD	0ffffffffH
	DD	00H
xdata$x	ENDS
;	COMDAT xdata$x
xdata$x	SEGMENT
__unwindtable$?GetDataWindowRealPacketNames@CChartDataSimulatorAddInImp@@IBE?AV?$CStringT@DV?$StrTraitMFC_DLL@DV?$ChTraitsCRT@D@ATL@@@@@ATL@@PBD0@Z DD 0ffffffffH
	DD	FLAT:__unwindfunclet$?GetDataWindowRealPacketNames@CChartDataSimulatorAddInImp@@IBE?AV?$CStringT@DV?$StrTraitMFC_DLL@DV?$ChTraitsCRT@D@ATL@@@@@ATL@@PBD0@Z$0
	DD	00H
	DD	FLAT:__unwindfunclet$?GetDataWindowRealPacketNames@CChartDataSimulatorAddInImp@@IBE?AV?$CStringT@DV?$StrTraitMFC_DLL@DV?$ChTraitsCRT@D@ATL@@@@@ATL@@PBD0@Z$1
__ehfuncinfo$?GetDataWindowRealPacketNames@CChartDataSimulatorAddInImp@@IBE?AV?$CStringT@DV?$StrTraitMFC_DLL@DV?$ChTraitsCRT@D@ATL@@@@@ATL@@PBD0@Z DD 019930522H
	DD	02H
	DD	FLAT:__unwindtable$?GetDataWindowRealPacketNames@CChartDataSimulatorAddInImp@@IBE?AV?$CStringT@DV?$StrTraitMFC_DLL@DV?$ChTraitsCRT@D@ATL@@@@@ATL@@PBD0@Z
	DD	2 DUP(00H)
	DD	2 DUP(00H)
	DD	00H
	DD	01H
xdata$x	ENDS
;	COMDAT xdata$x
xdata$x	SEGMENT
__unwindtable$??1CChartDataGridManager@@QAE@XZ DD 0ffffffffH
	DD	FLAT:___std_terminate
	DD	0ffffffffH
	DD	FLAT:___std_terminate
__ehfuncinfo$??1CChartDataGridManager@@QAE@XZ DD 019930522H
	DD	02H
	DD	FLAT:__unwindtable$??1CChartDataGridManager@@QAE@XZ
	DD	2 DUP(00H)
	DD	2 DUP(00H)
	DD	00H
	DD	05H
xdata$x	ENDS
;	COMDAT xdata$x
xdata$x	SEGMENT
__unwindtable$??_G?$CList@PAVCChartRecordSet@@PAV1@@@UAEPAXI@Z DD 0ffffffffH
	DD	FLAT:___std_terminate
__ehfuncinfo$??_G?$CList@PAVCChartRecordSet@@PAV1@@@UAEPAXI@Z DD 019930522H
	DD	01H
	DD	FLAT:__unwindtable$??_G?$CList@PAVCChartRecordSet@@PAV1@@@UAEPAXI@Z
	DD	2 DUP(00H)
	DD	2 DUP(00H)
	DD	00H
	DD	05H
xdata$x	ENDS
;	COMDAT xdata$x
xdata$x	SEGMENT
__ehfuncinfo$??1?$CList@PAVCChartRecordSet@@PAV1@@@UAE@XZ DD 019930522H
	DD	00H
	DD	00H
	DD	2 DUP(00H)
	DD	2 DUP(00H)
	DD	00H
	DD	05H
xdata$x	ENDS
;	COMDAT xdata$x
xdata$x	SEGMENT
__unwindtable$??_GCChartRecordSet@@QAEPAXI@Z DD 0ffffffffH
	DD	FLAT:___std_terminate
__ehfuncinfo$??_GCChartRecordSet@@QAEPAXI@Z DD 019930522H
	DD	01H
	DD	FLAT:__unwindtable$??_GCChartRecordSet@@QAEPAXI@Z
	DD	2 DUP(00H)
	DD	2 DUP(00H)
	DD	00H
	DD	05H
xdata$x	ENDS
;	COMDAT xdata$x
xdata$x	SEGMENT
__ehfuncinfo$??1CChartRecordSet@@QAE@XZ DD 019930522H
	DD	00H
	DD	00H
	DD	2 DUP(00H)
	DD	2 DUP(00H)
	DD	00H
	DD	05H
xdata$x	ENDS
;	COMDAT xdata$x
xdata$x	SEGMENT
__ehfuncinfo$??0CChartRecordSet@@QAE@XZ DD 019930522H
	DD	00H
	DD	00H
	DD	2 DUP(00H)
	DD	2 DUP(00H)
	DD	00H
	DD	05H
xdata$x	ENDS
;	COMDAT xdata$x
xdata$x	SEGMENT
__unwindtable$??HATL@@YA?AV?$CStringT@DV?$StrTraitMFC_DLL@DV?$ChTraitsCRT@D@ATL@@@@@0@ABV10@PBD@Z DD 0ffffffffH
	DD	FLAT:__unwindfunclet$??HATL@@YA?AV?$CStringT@DV?$StrTraitMFC_DLL@DV?$ChTraitsCRT@D@ATL@@@@@0@ABV10@PBD@Z$0
__ehfuncinfo$??HATL@@YA?AV?$CStringT@DV?$StrTraitMFC_DLL@DV?$ChTraitsCRT@D@ATL@@@@@0@ABV10@PBD@Z DD 019930522H
	DD	01H
	DD	FLAT:__unwindtable$??HATL@@YA?AV?$CStringT@DV?$StrTraitMFC_DLL@DV?$ChTraitsCRT@D@ATL@@@@@0@ABV10@PBD@Z
	DD	2 DUP(00H)
	DD	2 DUP(00H)
	DD	00H
	DD	01H
xdata$x	ENDS
;	COMDAT xdata$x
xdata$x	SEGMENT
__unwindtable$??HATL@@YA?AV?$CStringT@DV?$StrTraitMFC_DLL@DV?$ChTraitsCRT@D@ATL@@@@@0@ABV10@0@Z DD 0ffffffffH
	DD	FLAT:__unwindfunclet$??HATL@@YA?AV?$CStringT@DV?$StrTraitMFC_DLL@DV?$ChTraitsCRT@D@ATL@@@@@0@ABV10@0@Z$0
__ehfuncinfo$??HATL@@YA?AV?$CStringT@DV?$StrTraitMFC_DLL@DV?$ChTraitsCRT@D@ATL@@@@@0@ABV10@0@Z DD 019930522H
	DD	01H
	DD	FLAT:__unwindtable$??HATL@@YA?AV?$CStringT@DV?$StrTraitMFC_DLL@DV?$ChTraitsCRT@D@ATL@@@@@0@ABV10@0@Z
	DD	2 DUP(00H)
	DD	2 DUP(00H)
	DD	00H
	DD	01H
xdata$x	ENDS
; Function compile flags: /Odsp
;	COMDAT ??_ECChartDataSimulatorAddInImp@@W7AEPAXI@Z
_TEXT	SEGMENT
??_ECChartDataSimulatorAddInImp@@W7AEPAXI@Z PROC	; [thunk]:CChartDataSimulatorAddInImp::`vector deleting destructor', COMDAT
  00000	83 e9 08	 sub	 ecx, 8
  00003	e9 00 00 00 00	 jmp	 ??_ECChartDataSimulatorAddInImp@@UAEPAXI@Z
??_ECChartDataSimulatorAddInImp@@W7AEPAXI@Z ENDP	; [thunk]:CChartDataSimulatorAddInImp::`vector deleting destructor'
_TEXT	ENDS
; Function compile flags: /Odsp
;	COMDAT ?Release@CChartAddInBase134221@@O7AGKXZ
_TEXT	SEGMENT
?Release@CChartAddInBase134221@@O7AGKXZ PROC		; [thunk]:CChartAddInBase134221::Release`adjustor{8}', COMDAT
  00000	83 6c 24 04 08	 sub	 DWORD PTR [esp+4], 8
  00005	e9 00 00 00 00	 jmp	 ?Release@CChartAddInBase134221@@MAGKXZ ; CChartAddInBase134221::Release
?Release@CChartAddInBase134221@@O7AGKXZ ENDP		; [thunk]:CChartAddInBase134221::Release`adjustor{8}'
_TEXT	ENDS
; Function compile flags: /Odsp
;	COMDAT ?AddRef@CChartAddInBase134221@@O7AGKXZ
_TEXT	SEGMENT
?AddRef@CChartAddInBase134221@@O7AGKXZ PROC		; [thunk]:CChartAddInBase134221::AddRef`adjustor{8}', COMDAT
  00000	83 6c 24 04 08	 sub	 DWORD PTR [esp+4], 8
  00005	e9 00 00 00 00	 jmp	 ?AddRef@CChartAddInBase134221@@MAGKXZ ; CChartAddInBase134221::AddRef
?AddRef@CChartAddInBase134221@@O7AGKXZ ENDP		; [thunk]:CChartAddInBase134221::AddRef`adjustor{8}'
_TEXT	ENDS
; Function compile flags: /Odsp
;	COMDAT ?QueryInterface@CChartAddInBase134221@@O7AGJABU_GUID@@PAPAX@Z
_TEXT	SEGMENT
?QueryInterface@CChartAddInBase134221@@O7AGJABU_GUID@@PAPAX@Z PROC ; [thunk]:CChartAddInBase134221::QueryInterface`adjustor{8}', COMDAT
  00000	83 6c 24 04 08	 sub	 DWORD PTR [esp+4], 8
  00005	e9 00 00 00 00	 jmp	 ?QueryInterface@CChartAddInBase134221@@MAGJABU_GUID@@PAPAX@Z ; CChartAddInBase134221::QueryInterface
?QueryInterface@CChartAddInBase134221@@O7AGJABU_GUID@@PAPAX@Z ENDP ; [thunk]:CChartAddInBase134221::QueryInterface`adjustor{8}'
_TEXT	ENDS
; Function compile flags: /Ogtp
; File C:\Program Files (x86)\Microsoft Visual Studio\2019\Community\VC\Tools\MSVC\14.29.30133\atlmfc\include\afxtempl.h
; File C:\Program Files (x86)\Microsoft Visual Studio\2019\Community\VC\Tools\MSVC\14.29.30133\atlmfc\include\afx.inl
; File C:\Program Files (x86)\Microsoft Visual Studio\2019\Community\VC\Tools\MSVC\14.29.30133\atlmfc\include\afxtempl.h
; File C:\Program Files (x86)\Microsoft Visual Studio\2019\Community\VC\Tools\MSVC\14.29.30133\atlmfc\include\afx.inl
; File C:\Program Files (x86)\Microsoft Visual Studio\2019\Community\VC\Tools\MSVC\14.29.30133\atlmfc\include\afxtempl.h
; File C:\Program Files (x86)\Microsoft Visual Studio\2019\Community\VC\Tools\MSVC\14.29.30133\atlmfc\include\afx.inl
; File C:\Program Files (x86)\Microsoft Visual Studio\2019\Community\VC\Tools\MSVC\14.29.30133\atlmfc\include\afxtempl.h
;	COMDAT ??$SerializeElements@PAVCChartDataGridHeaderInfo@@@@YGXAAVCArchive@@PAPAVCChartDataGridHeaderInfo@@H@Z
_TEXT	SEGMENT
_ar$ = 8						; size = 4
_pElements$ = 12					; size = 4
_nCount$ = 16						; size = 4
??$SerializeElements@PAVCChartDataGridHeaderInfo@@@@YGXAAVCArchive@@PAPAVCChartDataGridHeaderInfo@@H@Z PROC ; SerializeElements<CChartDataGridHeaderInfo *>, COMDAT

; 67   : {

  00000	55		 push	 ebp
  00001	8b ec		 mov	 ebp, esp

; 68   : 	ENSURE(nCount == 0 || pElements != NULL);

  00003	8b 4d 0c	 mov	 ecx, DWORD PTR _pElements$[ebp]
  00006	53		 push	 ebx
  00007	56		 push	 esi
  00008	8b 75 10	 mov	 esi, DWORD PTR _nCount$[ebp]
  0000b	57		 push	 edi
  0000c	85 f6		 test	 esi, esi
  0000e	74 08		 je	 SHORT $LN2@SerializeE
  00010	85 c9		 test	 ecx, ecx
  00012	0f 84 89 00 00
	00		 je	 $LN34@SerializeE
$LN2@SerializeE:
; File C:\Program Files (x86)\Microsoft Visual Studio\2019\Community\VC\Tools\MSVC\14.29.30133\atlmfc\include\afx.inl

; 212  : 	{ return (m_nMode & CArchive::load) == 0; }

  00018	8b 55 08	 mov	 edx, DWORD PTR _ar$[ebp]
  0001b	8b 42 18	 mov	 eax, DWORD PTR [edx+24]
  0001e	f7 d0		 not	 eax
  00020	a8 01		 test	 al, 1
; File C:\Program Files (x86)\Microsoft Visual Studio\2019\Community\VC\Tools\MSVC\14.29.30133\atlmfc\include\afxtempl.h

; 73   : 	if (ar.IsStoring())

  00022	74 3c		 je	 SHORT $LN10@SerializeE

; 74   : 	{
; 75   : 		TYPE* pData;
; 76   : 		UINT_PTR nElementsLeft;
; 77   : 
; 78   : 		nElementsLeft = nCount;
; 79   : 		pData = pElements;
; 80   : 		while( nElementsLeft > 0 )

  00024	85 f6		 test	 esi, esi
  00026	74 31		 je	 SHORT $LN8@SerializeE
  00028	0f 1f 84 00 00
	00 00 00	 npad	 8
$LL5@SerializeE:

; 81   : 		{
; 82   : 			UINT nElementsToWrite;
; 83   : 
; 84   : 			nElementsToWrite = UINT(__min(nElementsLeft, INT_MAX/sizeof(TYPE)));

  00030	bb ff ff ff 1f	 mov	 ebx, 536870911		; 1fffffffH
  00035	3b f3		 cmp	 esi, ebx
  00037	0f 42 de	 cmovb	 ebx, esi

; 85   : 			ar.Write(pData, nElementsToWrite*sizeof(TYPE));

  0003a	8d 3c 9d 00 00
	00 00		 lea	 edi, DWORD PTR [ebx*4]
  00041	57		 push	 edi
  00042	51		 push	 ecx
  00043	8b ca		 mov	 ecx, edx
  00045	e8 00 00 00 00	 call	 ?Write@CArchive@@QAEXPBXI@Z ; CArchive::Write

; 86   : 			nElementsLeft -= nElementsToWrite;
; 87   : 			pData += nElementsToWrite;

  0004a	8b 4d 0c	 mov	 ecx, DWORD PTR _pElements$[ebp]
  0004d	8b 55 08	 mov	 edx, DWORD PTR _ar$[ebp]
  00050	03 cf		 add	 ecx, edi
  00052	89 4d 0c	 mov	 DWORD PTR _pElements$[ebp], ecx
  00055	2b f3		 sub	 esi, ebx
  00057	75 d7		 jne	 SHORT $LL5@SerializeE
$LN8@SerializeE:
  00059	5f		 pop	 edi

; 105  : 		}
; 106  : 	}
; 107  : }

  0005a	5e		 pop	 esi
  0005b	5b		 pop	 ebx
  0005c	5d		 pop	 ebp
  0005d	c2 0c 00	 ret	 12			; 0000000cH
$LN10@SerializeE:

; 97   : 		while( nElementsLeft > 0 )

  00060	85 f6		 test	 esi, esi
  00062	74 f5		 je	 SHORT $LN8@SerializeE
$LL7@SerializeE:

; 98   : 		{
; 99   : 			UINT nElementsToRead;
; 100  : 
; 101  : 			nElementsToRead = UINT(__min(nElementsLeft, INT_MAX/sizeof(TYPE)));

  00064	bf ff ff ff 1f	 mov	 edi, 536870911		; 1fffffffH
  00069	3b f7		 cmp	 esi, edi
  0006b	0f 42 fe	 cmovb	 edi, esi

; 102  : 			ar.EnsureRead(pData, nElementsToRead*sizeof(TYPE));

  0006e	8d 1c bd 00 00
	00 00		 lea	 ebx, DWORD PTR [edi*4]
; File C:\Program Files (x86)\Microsoft Visual Studio\2019\Community\VC\Tools\MSVC\14.29.30133\atlmfc\include\afx.inl

; 399  : 	UINT nRead=Read(lpBuf, nCount);

  00075	53		 push	 ebx
  00076	51		 push	 ecx
  00077	8b ca		 mov	 ecx, edx
  00079	e8 00 00 00 00	 call	 ?Read@CArchive@@QAEIPAXI@Z ; CArchive::Read

; 400  : 	if(nRead!=nCount)

  0007e	3b c3		 cmp	 eax, ebx
  00080	75 16		 jne	 SHORT $LN23@SerializeE
; File C:\Program Files (x86)\Microsoft Visual Studio\2019\Community\VC\Tools\MSVC\14.29.30133\atlmfc\include\afxtempl.h

; 97   : 		while( nElementsLeft > 0 )

  00082	8b 4d 0c	 mov	 ecx, DWORD PTR _pElements$[ebp]
  00085	8b 55 08	 mov	 edx, DWORD PTR _ar$[ebp]

; 103  : 			nElementsLeft -= nElementsToRead;
; 104  : 			pData += nElementsToRead;

  00088	03 cb		 add	 ecx, ebx
  0008a	89 4d 0c	 mov	 DWORD PTR _pElements$[ebp], ecx
  0008d	2b f7		 sub	 esi, edi
  0008f	75 d3		 jne	 SHORT $LL7@SerializeE

; 105  : 		}
; 106  : 	}
; 107  : }

  00091	5f		 pop	 edi
  00092	5e		 pop	 esi
  00093	5b		 pop	 ebx
  00094	5d		 pop	 ebp
  00095	c2 0c 00	 ret	 12			; 0000000cH
$LN23@SerializeE:
; File C:\Program Files (x86)\Microsoft Visual Studio\2019\Community\VC\Tools\MSVC\14.29.30133\atlmfc\include\afx.inl

; 402  : 		AfxThrowArchiveException(CArchiveException::endOfFile);

  00098	6a 00		 push	 0
  0009a	6a 03		 push	 3
  0009c	e8 00 00 00 00	 call	 ?AfxThrowArchiveException@@YGXHPBD@Z ; AfxThrowArchiveException
$LN34@SerializeE:
; File C:\Program Files (x86)\Microsoft Visual Studio\2019\Community\VC\Tools\MSVC\14.29.30133\atlmfc\include\afxtempl.h

; 68   : 	ENSURE(nCount == 0 || pElements != NULL);

  000a1	e8 00 00 00 00	 call	 ?AfxThrowInvalidArgException@@YGXXZ ; AfxThrowInvalidArgException
$LN32@SerializeE:
  000a6	cc		 int	 3
??$SerializeElements@PAVCChartDataGridHeaderInfo@@@@YGXAAVCArchive@@PAPAVCChartDataGridHeaderInfo@@H@Z ENDP ; SerializeElements<CChartDataGridHeaderInfo *>
_TEXT	ENDS
; Function compile flags: /Ogtp
; File C:\Program Files (x86)\Microsoft Visual Studio\2019\Community\VC\Tools\MSVC\14.29.30133\atlmfc\include\afxtempl.h
; File C:\Program Files (x86)\Microsoft Visual Studio\2019\Community\VC\Tools\MSVC\14.29.30133\atlmfc\include\afx.inl
; File C:\Program Files (x86)\Microsoft Visual Studio\2019\Community\VC\Tools\MSVC\14.29.30133\atlmfc\include\afxtempl.h
; File C:\Program Files (x86)\Microsoft Visual Studio\2019\Community\VC\Tools\MSVC\14.29.30133\atlmfc\include\afx.inl
; File C:\Program Files (x86)\Microsoft Visual Studio\2019\Community\VC\Tools\MSVC\14.29.30133\atlmfc\include\afxtempl.h
; File C:\Program Files (x86)\Microsoft Visual Studio\2019\Community\VC\Tools\MSVC\14.29.30133\atlmfc\include\afx.inl
; File C:\Program Files (x86)\Microsoft Visual Studio\2019\Community\VC\Tools\MSVC\14.29.30133\atlmfc\include\afxtempl.h
;	COMDAT ??$SerializeElements@PAVCChartRecordSet@@@@YGXAAVCArchive@@PAPAVCChartRecordSet@@H@Z
_TEXT	SEGMENT
_ar$ = 8						; size = 4
_pElements$ = 12					; size = 4
_nCount$ = 16						; size = 4
??$SerializeElements@PAVCChartRecordSet@@@@YGXAAVCArchive@@PAPAVCChartRecordSet@@H@Z PROC ; SerializeElements<CChartRecordSet *>, COMDAT

; 67   : {

  00000	55		 push	 ebp
  00001	8b ec		 mov	 ebp, esp

; 68   : 	ENSURE(nCount == 0 || pElements != NULL);

  00003	8b 4d 0c	 mov	 ecx, DWORD PTR _pElements$[ebp]
  00006	53		 push	 ebx
  00007	56		 push	 esi
  00008	8b 75 10	 mov	 esi, DWORD PTR _nCount$[ebp]
  0000b	57		 push	 edi
  0000c	85 f6		 test	 esi, esi
  0000e	74 08		 je	 SHORT $LN2@SerializeE
  00010	85 c9		 test	 ecx, ecx
  00012	0f 84 89 00 00
	00		 je	 $LN34@SerializeE
$LN2@SerializeE:
; File C:\Program Files (x86)\Microsoft Visual Studio\2019\Community\VC\Tools\MSVC\14.29.30133\atlmfc\include\afx.inl

; 212  : 	{ return (m_nMode & CArchive::load) == 0; }

  00018	8b 55 08	 mov	 edx, DWORD PTR _ar$[ebp]
  0001b	8b 42 18	 mov	 eax, DWORD PTR [edx+24]
  0001e	f7 d0		 not	 eax
  00020	a8 01		 test	 al, 1
; File C:\Program Files (x86)\Microsoft Visual Studio\2019\Community\VC\Tools\MSVC\14.29.30133\atlmfc\include\afxtempl.h

; 73   : 	if (ar.IsStoring())

  00022	74 3c		 je	 SHORT $LN10@SerializeE

; 74   : 	{
; 75   : 		TYPE* pData;
; 76   : 		UINT_PTR nElementsLeft;
; 77   : 
; 78   : 		nElementsLeft = nCount;
; 79   : 		pData = pElements;
; 80   : 		while( nElementsLeft > 0 )

  00024	85 f6		 test	 esi, esi
  00026	74 31		 je	 SHORT $LN8@SerializeE
  00028	0f 1f 84 00 00
	00 00 00	 npad	 8
$LL5@SerializeE:

; 81   : 		{
; 82   : 			UINT nElementsToWrite;
; 83   : 
; 84   : 			nElementsToWrite = UINT(__min(nElementsLeft, INT_MAX/sizeof(TYPE)));

  00030	bb ff ff ff 1f	 mov	 ebx, 536870911		; 1fffffffH
  00035	3b f3		 cmp	 esi, ebx
  00037	0f 42 de	 cmovb	 ebx, esi

; 85   : 			ar.Write(pData, nElementsToWrite*sizeof(TYPE));

  0003a	8d 3c 9d 00 00
	00 00		 lea	 edi, DWORD PTR [ebx*4]
  00041	57		 push	 edi
  00042	51		 push	 ecx
  00043	8b ca		 mov	 ecx, edx
  00045	e8 00 00 00 00	 call	 ?Write@CArchive@@QAEXPBXI@Z ; CArchive::Write

; 86   : 			nElementsLeft -= nElementsToWrite;
; 87   : 			pData += nElementsToWrite;

  0004a	8b 4d 0c	 mov	 ecx, DWORD PTR _pElements$[ebp]
  0004d	8b 55 08	 mov	 edx, DWORD PTR _ar$[ebp]
  00050	03 cf		 add	 ecx, edi
  00052	89 4d 0c	 mov	 DWORD PTR _pElements$[ebp], ecx
  00055	2b f3		 sub	 esi, ebx
  00057	75 d7		 jne	 SHORT $LL5@SerializeE
$LN8@SerializeE:
  00059	5f		 pop	 edi

; 105  : 		}
; 106  : 	}
; 107  : }

  0005a	5e		 pop	 esi
  0005b	5b		 pop	 ebx
  0005c	5d		 pop	 ebp
  0005d	c2 0c 00	 ret	 12			; 0000000cH
$LN10@SerializeE:

; 97   : 		while( nElementsLeft > 0 )

  00060	85 f6		 test	 esi, esi
  00062	74 f5		 je	 SHORT $LN8@SerializeE
$LL7@SerializeE:

; 98   : 		{
; 99   : 			UINT nElementsToRead;
; 100  : 
; 101  : 			nElementsToRead = UINT(__min(nElementsLeft, INT_MAX/sizeof(TYPE)));

  00064	bf ff ff ff 1f	 mov	 edi, 536870911		; 1fffffffH
  00069	3b f7		 cmp	 esi, edi
  0006b	0f 42 fe	 cmovb	 edi, esi

; 102  : 			ar.EnsureRead(pData, nElementsToRead*sizeof(TYPE));

  0006e	8d 1c bd 00 00
	00 00		 lea	 ebx, DWORD PTR [edi*4]
; File C:\Program Files (x86)\Microsoft Visual Studio\2019\Community\VC\Tools\MSVC\14.29.30133\atlmfc\include\afx.inl

; 399  : 	UINT nRead=Read(lpBuf, nCount);

  00075	53		 push	 ebx
  00076	51		 push	 ecx
  00077	8b ca		 mov	 ecx, edx
  00079	e8 00 00 00 00	 call	 ?Read@CArchive@@QAEIPAXI@Z ; CArchive::Read

; 400  : 	if(nRead!=nCount)

  0007e	3b c3		 cmp	 eax, ebx
  00080	75 16		 jne	 SHORT $LN23@SerializeE
; File C:\Program Files (x86)\Microsoft Visual Studio\2019\Community\VC\Tools\MSVC\14.29.30133\atlmfc\include\afxtempl.h

; 97   : 		while( nElementsLeft > 0 )

  00082	8b 4d 0c	 mov	 ecx, DWORD PTR _pElements$[ebp]
  00085	8b 55 08	 mov	 edx, DWORD PTR _ar$[ebp]

; 103  : 			nElementsLeft -= nElementsToRead;
; 104  : 			pData += nElementsToRead;

  00088	03 cb		 add	 ecx, ebx
  0008a	89 4d 0c	 mov	 DWORD PTR _pElements$[ebp], ecx
  0008d	2b f7		 sub	 esi, edi
  0008f	75 d3		 jne	 SHORT $LL7@SerializeE

; 105  : 		}
; 106  : 	}
; 107  : }

  00091	5f		 pop	 edi
  00092	5e		 pop	 esi
  00093	5b		 pop	 ebx
  00094	5d		 pop	 ebp
  00095	c2 0c 00	 ret	 12			; 0000000cH
$LN23@SerializeE:
; File C:\Program Files (x86)\Microsoft Visual Studio\2019\Community\VC\Tools\MSVC\14.29.30133\atlmfc\include\afx.inl

; 402  : 		AfxThrowArchiveException(CArchiveException::endOfFile);

  00098	6a 00		 push	 0
  0009a	6a 03		 push	 3
  0009c	e8 00 00 00 00	 call	 ?AfxThrowArchiveException@@YGXHPBD@Z ; AfxThrowArchiveException
$LN34@SerializeE:
; File C:\Program Files (x86)\Microsoft Visual Studio\2019\Community\VC\Tools\MSVC\14.29.30133\atlmfc\include\afxtempl.h

; 68   : 	ENSURE(nCount == 0 || pElements != NULL);

  000a1	e8 00 00 00 00	 call	 ?AfxThrowInvalidArgException@@YGXXZ ; AfxThrowInvalidArgException
$LN32@SerializeE:
  000a6	cc		 int	 3
??$SerializeElements@PAVCChartRecordSet@@@@YGXAAVCArchive@@PAPAVCChartRecordSet@@H@Z ENDP ; SerializeElements<CChartRecordSet *>
_TEXT	ENDS
; Function compile flags: /Ogtp
;	COMDAT ??__F?m_strAddInItemName@CChartDataSimulatorAddInImp@@2V?$CStringT@DV?$StrTraitMFC_DLL@DV?$ChTraitsCRT@D@ATL@@@@@ATL@@A@@YAXXZ
text$yd	SEGMENT
??__F?m_strAddInItemName@CChartDataSimulatorAddInImp@@2V?$CStringT@DV?$StrTraitMFC_DLL@DV?$ChTraitsCRT@D@ATL@@@@@ATL@@A@@YAXXZ PROC ; `dynamic atexit destructor for 'CChartDataSimulatorAddInImp::m_strAddInItemName'', COMDAT
  00000	b9 00 00 00 00	 mov	 ecx, OFFSET ?m_strAddInItemName@CChartDataSimulatorAddInImp@@2V?$CStringT@DV?$StrTraitMFC_DLL@DV?$ChTraitsCRT@D@ATL@@@@@ATL@@A ; CChartDataSimulatorAddInImp::m_strAddInItemName
  00005	ff 25 00 00 00
	00		 jmp	 DWORD PTR __imp_??1?$CStringT@DV?$StrTraitMFC_DLL@DV?$ChTraitsCRT@D@ATL@@@@@ATL@@QAE@XZ
??__F?m_strAddInItemName@CChartDataSimulatorAddInImp@@2V?$CStringT@DV?$StrTraitMFC_DLL@DV?$ChTraitsCRT@D@ATL@@@@@ATL@@A@@YAXXZ ENDP ; `dynamic atexit destructor for 'CChartDataSimulatorAddInImp::m_strAddInItemName''
text$yd	ENDS
; Function compile flags: /Ogtp
; File D:\git\src\IBK\IBK_DRFN\ProjSrc\SrcChartEx\ChartAddIn\ChartDataListViewerAddIn\ChartDataListViewerAddIn\ChartDataSimulatorAddInImp.cpp
;	COMDAT ??__E?m_strAddInItemName@CChartDataSimulatorAddInImp@@2V?$CStringT@DV?$StrTraitMFC_DLL@DV?$ChTraitsCRT@D@ATL@@@@@ATL@@A@@YAXXZ
text$di	SEGMENT
??__E?m_strAddInItemName@CChartDataSimulatorAddInImp@@2V?$CStringT@DV?$StrTraitMFC_DLL@DV?$ChTraitsCRT@D@ATL@@@@@ATL@@A@@YAXXZ PROC ; `dynamic initializer for 'CChartDataSimulatorAddInImp::m_strAddInItemName'', COMDAT

; 51   : CString CChartDataSimulatorAddInImp::m_strAddInItemName = "DATA_SIMULATOR";

  00000	68 00 00 00 00	 push	 OFFSET ??_C@_0P@HEOEDEBA@DATA_SIMULATOR@
  00005	b9 00 00 00 00	 mov	 ecx, OFFSET ?m_strAddInItemName@CChartDataSimulatorAddInImp@@2V?$CStringT@DV?$StrTraitMFC_DLL@DV?$ChTraitsCRT@D@ATL@@@@@ATL@@A ; CChartDataSimulatorAddInImp::m_strAddInItemName
  0000a	ff 15 00 00 00
	00		 call	 DWORD PTR __imp_??0?$CStringT@DV?$StrTraitMFC_DLL@DV?$ChTraitsCRT@D@ATL@@@@@ATL@@QAE@PBD@Z
  00010	68 00 00 00 00	 push	 OFFSET ??__F?m_strAddInItemName@CChartDataSimulatorAddInImp@@2V?$CStringT@DV?$StrTraitMFC_DLL@DV?$ChTraitsCRT@D@ATL@@@@@ATL@@A@@YAXXZ ; `dynamic atexit destructor for 'CChartDataSimulatorAddInImp::m_strAddInItemName''
  00015	e8 00 00 00 00	 call	 _atexit
  0001a	59		 pop	 ecx
  0001b	c3		 ret	 0
??__E?m_strAddInItemName@CChartDataSimulatorAddInImp@@2V?$CStringT@DV?$StrTraitMFC_DLL@DV?$ChTraitsCRT@D@ATL@@@@@ATL@@A@@YAXXZ ENDP ; `dynamic initializer for 'CChartDataSimulatorAddInImp::m_strAddInItemName''
text$di	ENDS
; Function compile flags: /Ogtp
; File C:\Program Files (x86)\Microsoft Visual Studio\2019\Community\VC\Tools\MSVC\14.29.30133\atlmfc\include\afxtempl.h
;	COMDAT ??1CDlgDataSimulator@@UAE@XZ
_TEXT	SEGMENT
__$EHRec$ = -12						; size = 12
??1CDlgDataSimulator@@UAE@XZ PROC			; CDlgDataSimulator::~CDlgDataSimulator, COMDAT
; _this$ = ecx
  00000	55		 push	 ebp
  00001	8b ec		 mov	 ebp, esp
  00003	6a ff		 push	 -1
  00005	68 00 00 00 00	 push	 __ehhandler$??1CDlgDataSimulator@@UAE@XZ
  0000a	64 a1 00 00 00
	00		 mov	 eax, DWORD PTR fs:0
  00010	50		 push	 eax
  00011	56		 push	 esi
  00012	a1 00 00 00 00	 mov	 eax, DWORD PTR ___security_cookie
  00017	33 c5		 xor	 eax, ebp
  00019	50		 push	 eax
  0001a	8d 45 f4	 lea	 eax, DWORD PTR __$EHRec$[ebp]
  0001d	64 a3 00 00 00
	00		 mov	 DWORD PTR fs:0, eax
  00023	8b f1		 mov	 esi, ecx
  00025	8d 8e 60 05 00
	00		 lea	 ecx, DWORD PTR [esi+1376]
  0002b	ff 15 00 00 00
	00		 call	 DWORD PTR __imp_??1?$CStringT@DV?$StrTraitMFC_DLL@DV?$ChTraitsCRT@D@ATL@@@@@ATL@@QAE@XZ
  00031	8d 8e 58 05 00
	00		 lea	 ecx, DWORD PTR [esi+1368]
  00037	ff 15 00 00 00
	00		 call	 DWORD PTR __imp_??1?$CStringT@DV?$StrTraitMFC_DLL@DV?$ChTraitsCRT@D@ATL@@@@@ATL@@QAE@XZ

; 872  : 	m_pBlocks->FreeDataChain();

  0003d	8b 8e 50 05 00
	00		 mov	 ecx, DWORD PTR [esi+1360]

; 878  : {

  00043	c7 45 fc 00 00
	00 00		 mov	 DWORD PTR __$EHRec$[ebp+8], 0
  0004a	c7 86 3c 05 00
	00 00 00 00 00	 mov	 DWORD PTR [esi+1340], OFFSET ??_7?$CList@PAVCChartRecordSet@@PAV1@@@6B@

; 870  : 	m_nCount = 0;

  00054	c7 86 48 05 00
	00 00 00 00 00	 mov	 DWORD PTR [esi+1352], 0

; 871  : 	m_pNodeHead = m_pNodeTail = m_pNodeFree = NULL;

  0005e	c7 86 4c 05 00
	00 00 00 00 00	 mov	 DWORD PTR [esi+1356], 0
  00068	c7 86 44 05 00
	00 00 00 00 00	 mov	 DWORD PTR [esi+1348], 0
  00072	c7 86 40 05 00
	00 00 00 00 00	 mov	 DWORD PTR [esi+1344], 0

; 872  : 	m_pBlocks->FreeDataChain();

  0007c	e8 00 00 00 00	 call	 ?FreeDataChain@CPlex@@QAEXXZ ; CPlex::FreeDataChain
  00081	8d 8e b0 00 00
	00		 lea	 ecx, DWORD PTR [esi+176]

; 873  : 	m_pBlocks = NULL;

  00087	c7 86 50 05 00
	00 00 00 00 00	 mov	 DWORD PTR [esi+1360], 0
  00091	e8 00 00 00 00	 call	 ??1CGridCtrl@@UAE@XZ	; CGridCtrl::~CGridCtrl
  00096	8d 8e a8 00 00
	00		 lea	 ecx, DWORD PTR [esi+168]
  0009c	ff 15 00 00 00
	00		 call	 DWORD PTR __imp_??1?$CStringT@DV?$StrTraitMFC_DLL@DV?$ChTraitsCRT@D@ATL@@@@@ATL@@QAE@XZ
  000a2	8b ce		 mov	 ecx, esi
  000a4	e8 00 00 00 00	 call	 ??1CDialog@@UAE@XZ	; CDialog::~CDialog
  000a9	8b 4d f4	 mov	 ecx, DWORD PTR __$EHRec$[ebp]
  000ac	64 89 0d 00 00
	00 00		 mov	 DWORD PTR fs:0, ecx
  000b3	59		 pop	 ecx
  000b4	5e		 pop	 esi
  000b5	8b e5		 mov	 esp, ebp
  000b7	5d		 pop	 ebp
  000b8	c3		 ret	 0
  000b9	cc		 int	 3
  000ba	cc		 int	 3
  000bb	cc		 int	 3
  000bc	cc		 int	 3
  000bd	cc		 int	 3
_TEXT	ENDS
;	COMDAT text$x
text$x	SEGMENT
__ehhandler$??1CDlgDataSimulator@@UAE@XZ:
  00000	90		 npad	 1
  00001	90		 npad	 1
  00002	8b 54 24 08	 mov	 edx, DWORD PTR [esp+8]
  00006	8d 42 0c	 lea	 eax, DWORD PTR [edx+12]
  00009	8b 4a f8	 mov	 ecx, DWORD PTR [edx-8]
  0000c	33 c8		 xor	 ecx, eax
  0000e	e8 00 00 00 00	 call	 @__security_check_cookie@4
  00013	b8 00 00 00 00	 mov	 eax, OFFSET __ehfuncinfo$??1CDlgDataSimulator@@UAE@XZ
  00018	e9 00 00 00 00	 jmp	 ___CxxFrameHandler3
text$x	ENDS
??1CDlgDataSimulator@@UAE@XZ ENDP			; CDlgDataSimulator::~CDlgDataSimulator
; Function compile flags: /Ogtp
; File D:\git\src\IBK\IBK_DRFN\ProjSrc\SrcChartEx\ChartAddIn\ChartDataListViewerAddIn\Include_Addin_134221\I134221\_IString.h
;	COMDAT ??1ILPCSTR134221@@QAE@XZ
_TEXT	SEGMENT
__$EHRec$ = -12						; size = 12
??1ILPCSTR134221@@QAE@XZ PROC				; ILPCSTR134221::~ILPCSTR134221, COMDAT
; _this$ = ecx

; 44   : 	{

  00000	55		 push	 ebp
  00001	8b ec		 mov	 ebp, esp
  00003	6a ff		 push	 -1
  00005	68 00 00 00 00	 push	 __ehhandler$??1ILPCSTR134221@@QAE@XZ
  0000a	64 a1 00 00 00
	00		 mov	 eax, DWORD PTR fs:0
  00010	50		 push	 eax
  00011	56		 push	 esi
  00012	a1 00 00 00 00	 mov	 eax, DWORD PTR ___security_cookie
  00017	33 c5		 xor	 eax, ebp
  00019	50		 push	 eax
  0001a	8d 45 f4	 lea	 eax, DWORD PTR __$EHRec$[ebp]
  0001d	64 a3 00 00 00
	00		 mov	 DWORD PTR fs:0, eax
  00023	8b f1		 mov	 esi, ecx

; 45   : 		if( m_pIStrData)

  00025	8b 4e 04	 mov	 ecx, DWORD PTR [esi+4]
  00028	85 c9		 test	 ecx, ecx
  0002a	74 13		 je	 SHORT $LN2@ILPCSTR134

; 46   : 		{
; 47   : 			m_pIStrData->Release();

  0002c	8b 01		 mov	 eax, DWORD PTR [ecx]
  0002e	51		 push	 ecx
  0002f	ff 50 08	 call	 DWORD PTR [eax+8]

; 48   : 			m_pIStrData = NULL;

  00032	c7 46 04 00 00
	00 00		 mov	 DWORD PTR [esi+4], 0

; 49   : 			m_szData = NULL;

  00039	c7 06 00 00 00
	00		 mov	 DWORD PTR [esi], 0
$LN2@ILPCSTR134:

; 50   : 		}
; 51   : 	}

  0003f	8b 4d f4	 mov	 ecx, DWORD PTR __$EHRec$[ebp]
  00042	64 89 0d 00 00
	00 00		 mov	 DWORD PTR fs:0, ecx
  00049	59		 pop	 ecx
  0004a	5e		 pop	 esi
  0004b	8b e5		 mov	 esp, ebp
  0004d	5d		 pop	 ebp
  0004e	c3		 ret	 0
  0004f	cc		 int	 3
  00050	cc		 int	 3
  00051	cc		 int	 3
  00052	cc		 int	 3
  00053	cc		 int	 3
_TEXT	ENDS
;	COMDAT text$x
text$x	SEGMENT
__ehhandler$??1ILPCSTR134221@@QAE@XZ:
  00000	90		 npad	 1
  00001	90		 npad	 1
  00002	8b 54 24 08	 mov	 edx, DWORD PTR [esp+8]
  00006	8d 42 0c	 lea	 eax, DWORD PTR [edx+12]
  00009	8b 4a f8	 mov	 ecx, DWORD PTR [edx-8]
  0000c	33 c8		 xor	 ecx, eax
  0000e	e8 00 00 00 00	 call	 @__security_check_cookie@4
  00013	b8 00 00 00 00	 mov	 eax, OFFSET __ehfuncinfo$??1ILPCSTR134221@@QAE@XZ
  00018	e9 00 00 00 00	 jmp	 ___CxxFrameHandler3
text$x	ENDS
??1ILPCSTR134221@@QAE@XZ ENDP				; ILPCSTR134221::~ILPCSTR134221
; Function compile flags: /Ogtp
; File D:\git\src\IBK\IBK_DRFN\ProjSrc\SrcChartEx\ChartAddIn\ChartDataListViewerAddIn\Include_Chart\Dll_Load\IMetaTable.h
; File C:\Program Files (x86)\Microsoft Visual Studio\2019\Community\VC\Tools\MSVC\14.29.30133\atlmfc\include\afxwin1.inl
; File D:\git\src\IBK\IBK_DRFN\ProjSrc\SrcChartEx\ChartAddIn\ChartDataListViewerAddIn\Include_Chart\Dll_Load\IMetaTable.h
;	COMDAT ??1CMultiLanguageResourceSetter@@QAE@XZ
_TEXT	SEGMENT
__$EHRec$ = -12						; size = 12
??1CMultiLanguageResourceSetter@@QAE@XZ PROC		; CMultiLanguageResourceSetter::~CMultiLanguageResourceSetter, COMDAT
; _this$ = ecx

; 1036 : 	{

  00000	55		 push	 ebp
  00001	8b ec		 mov	 ebp, esp
  00003	6a ff		 push	 -1
  00005	68 00 00 00 00	 push	 __ehhandler$??1CMultiLanguageResourceSetter@@QAE@XZ
  0000a	64 a1 00 00 00
	00		 mov	 eax, DWORD PTR fs:0
  00010	50		 push	 eax
  00011	56		 push	 esi
  00012	a1 00 00 00 00	 mov	 eax, DWORD PTR ___security_cookie
  00017	33 c5		 xor	 eax, ebp
  00019	50		 push	 eax
  0001a	8d 45 f4	 lea	 eax, DWORD PTR __$EHRec$[ebp]
  0001d	64 a3 00 00 00
	00		 mov	 DWORD PTR fs:0, eax

; 1037 : 		AfxSetResourceHandle( m_hInstance);

  00023	8b 31		 mov	 esi, DWORD PTR [ecx]
; File C:\Program Files (x86)\Microsoft Visual Studio\2019\Community\VC\Tools\MSVC\14.29.30133\atlmfc\include\afxwin1.inl

; 27   : 	{ ASSERT(hInstResource != NULL); afxCurrentResourceHandle = hInstResource; }

  00025	e8 00 00 00 00	 call	 ?AfxGetModuleState@@YGPAVAFX_MODULE_STATE@@XZ ; AfxGetModuleState
  0002a	89 70 0c	 mov	 DWORD PTR [eax+12], esi
; File D:\git\src\IBK\IBK_DRFN\ProjSrc\SrcChartEx\ChartAddIn\ChartDataListViewerAddIn\Include_Chart\Dll_Load\IMetaTable.h

; 1038 : 	}

  0002d	8b 4d f4	 mov	 ecx, DWORD PTR __$EHRec$[ebp]
  00030	64 89 0d 00 00
	00 00		 mov	 DWORD PTR fs:0, ecx
  00037	59		 pop	 ecx
  00038	5e		 pop	 esi
  00039	8b e5		 mov	 esp, ebp
  0003b	5d		 pop	 ebp
  0003c	c3		 ret	 0
  0003d	cc		 int	 3
  0003e	cc		 int	 3
  0003f	cc		 int	 3
  00040	cc		 int	 3
  00041	cc		 int	 3
_TEXT	ENDS
;	COMDAT text$x
text$x	SEGMENT
__ehhandler$??1CMultiLanguageResourceSetter@@QAE@XZ:
  00000	90		 npad	 1
  00001	90		 npad	 1
  00002	8b 54 24 08	 mov	 edx, DWORD PTR [esp+8]
  00006	8d 42 0c	 lea	 eax, DWORD PTR [edx+12]
  00009	8b 4a f8	 mov	 ecx, DWORD PTR [edx-8]
  0000c	33 c8		 xor	 ecx, eax
  0000e	e8 00 00 00 00	 call	 @__security_check_cookie@4
  00013	b8 00 00 00 00	 mov	 eax, OFFSET __ehfuncinfo$??1CMultiLanguageResourceSetter@@QAE@XZ
  00018	e9 00 00 00 00	 jmp	 ___CxxFrameHandler3
text$x	ENDS
??1CMultiLanguageResourceSetter@@QAE@XZ ENDP		; CMultiLanguageResourceSetter::~CMultiLanguageResourceSetter
; Function compile flags: /Ogtp
; File D:\git\src\IBK\IBK_DRFN\ProjSrc\SrcChartEx\ChartAddIn\ChartDataListViewerAddIn\ChartDataListViewerAddIn\ChartDataSimulatorAddInImp.cpp
; File C:\Program Files (x86)\Microsoft Visual Studio\2019\Community\VC\Tools\MSVC\14.29.30133\atlmfc\include\afx.inl
;	COMDAT ??_GCChartDataSimulatorAddInImp@@UAEPAXI@Z
_TEXT	SEGMENT
___flags$ = 8						; size = 4
??_GCChartDataSimulatorAddInImp@@UAEPAXI@Z PROC		; CChartDataSimulatorAddInImp::`scalar deleting destructor', COMDAT
; _this$ = ecx
  00000	55		 push	 ebp
  00001	8b ec		 mov	 ebp, esp
; File D:\git\src\IBK\IBK_DRFN\ProjSrc\SrcChartEx\ChartAddIn\ChartDataListViewerAddIn\ChartDataListViewerAddIn\ChartDataSimulatorAddInImp.cpp

; 47   : {

  00003	56		 push	 esi
  00004	8b f1		 mov	 esi, ecx

; 48   : 
; 49   : }

  00006	8d 4e 44	 lea	 ecx, DWORD PTR [esi+68]
  00009	c7 06 00 00 00
	00		 mov	 DWORD PTR [esi], OFFSET ??_7CChartDataSimulatorAddInImp@@6BCIWUnknown@@@
  0000f	c7 46 08 00 00
	00 00		 mov	 DWORD PTR [esi+8], OFFSET ??_7CChartDataSimulatorAddInImp@@6BIChartAddIn134221@@@
  00016	ff 15 00 00 00
	00		 call	 DWORD PTR __imp_??1?$CStringT@DV?$StrTraitMFC_DLL@DV?$ChTraitsCRT@D@ATL@@@@@ATL@@QAE@XZ
  0001c	8b ce		 mov	 ecx, esi
  0001e	e8 00 00 00 00	 call	 ??1CChartAddInBase134221@@MAE@XZ ; CChartAddInBase134221::~CChartAddInBase134221
  00023	8b 45 08	 mov	 eax, DWORD PTR ___flags$[ebp]
  00026	a8 01		 test	 al, 1
  00028	74 1f		 je	 SHORT $LN12@scalar
  0002a	a8 04		 test	 al, 4
  0002c	75 10		 jne	 SHORT $LN3@scalar
; File C:\Program Files (x86)\Microsoft Visual Studio\2019\Community\VC\Tools\MSVC\14.29.30133\atlmfc\include\afx.inl

; 112  : 	{ ::operator delete(p); }

  0002e	56		 push	 esi
  0002f	e8 00 00 00 00	 call	 ??3@YAXPAX@Z		; operator delete
  00034	83 c4 04	 add	 esp, 4
  00037	8b c6		 mov	 eax, esi
  00039	5e		 pop	 esi
  0003a	5d		 pop	 ebp
  0003b	c2 04 00	 ret	 4
$LN3@scalar:
  0003e	6a 58		 push	 88			; 00000058H
  00040	56		 push	 esi
  00041	e8 00 00 00 00	 call	 ?__global_delete@@YAXPAXI@Z ; __global_delete
  00046	83 c4 08	 add	 esp, 8
$LN12@scalar:
  00049	8b c6		 mov	 eax, esi
  0004b	5e		 pop	 esi
  0004c	5d		 pop	 ebp
  0004d	c2 04 00	 ret	 4
??_GCChartDataSimulatorAddInImp@@UAEPAXI@Z ENDP		; CChartDataSimulatorAddInImp::`scalar deleting destructor'
_TEXT	ENDS
; Function compile flags: /Ogtp
; File D:\git\src\IBK\IBK_DRFN\ProjSrc\SrcChartEx\ChartAddIn\ChartDataListViewerAddIn\ChartDataListViewerAddIn\ChartDataSimulatorAddInImp.cpp
; File D:\git\src\IBK\IBK_DRFN\ProjSrc\SrcChartEx\ChartAddIn\ChartDataListViewerAddIn\Include_Chart\Dll_Load\IMetaTable.h
; File C:\Program Files (x86)\Microsoft Visual Studio\2019\Community\VC\Tools\MSVC\14.29.30133\atlmfc\include\afxwin1.inl
; File D:\git\src\IBK\IBK_DRFN\ProjSrc\SrcChartEx\ChartAddIn\ChartDataListViewerAddIn\Include_Chart\Dll_Load\IMetaTable.h
; File C:\Program Files (x86)\Microsoft Visual Studio\2019\Community\VC\Tools\MSVC\14.29.30133\atlmfc\include\afxwin1.inl
; File D:\git\src\IBK\IBK_DRFN\ProjSrc\SrcChartEx\ChartAddIn\ChartDataListViewerAddIn\ChartDataListViewerAddIn\ChartDataSimulatorAddInImp.cpp
; File D:\git\src\IBK\IBK_DRFN\ProjSrc\SrcChartEx\ChartAddIn\ChartDataListViewerAddIn\Include_Addin_134221\I134221\_IString.h
; File D:\git\src\IBK\IBK_DRFN\ProjSrc\SrcChartEx\ChartAddIn\ChartDataListViewerAddIn\ChartDataListViewerAddIn\ChartDataSimulatorAddInImp.cpp
; File D:\git\src\IBK\IBK_DRFN\ProjSrc\SrcChartEx\ChartAddIn\ChartDataListViewerAddIn\Include_Addin_134221\I134221\_IString.h
; File D:\git\src\IBK\IBK_DRFN\ProjSrc\SrcChartEx\ChartAddIn\ChartDataListViewerAddIn\ChartDataListViewerAddIn\ChartDataSimulatorAddInImp.cpp
; File D:\git\src\IBK\IBK_DRFN\ProjSrc\SrcChartEx\ChartAddIn\ChartDataListViewerAddIn\ChartDataListViewerAddIn\ChartDataSimulatorAddInImp.h
; File D:\git\src\IBK\IBK_DRFN\ProjSrc\SrcChartEx\ChartAddIn\ChartDataListViewerAddIn\ChartDataListViewerAddIn\ChartDataSimulatorAddInImp.cpp
; File D:\git\src\IBK\IBK_DRFN\ProjSrc\SrcChartEx\ChartAddIn\ChartDataListViewerAddIn\ChartDataListViewerAddIn\ChartDataSimulatorAddInImp.h
; File C:\Program Files (x86)\Microsoft Visual Studio\2019\Community\VC\Tools\MSVC\14.29.30133\atlmfc\include\afxtempl.h
; File D:\git\src\IBK\IBK_DRFN\ProjSrc\SrcChartEx\ChartAddIn\ChartDataListViewerAddIn\ChartDataListViewerAddIn\ChartDataSimulatorAddInImp.h
; File D:\git\src\IBK\IBK_DRFN\ProjSrc\SrcChartEx\ChartAddIn\ChartDataListViewerAddIn\ChartDataListViewerAddIn\ChartDataSimulatorAddInImp.cpp
; File D:\git\src\IBK\IBK_DRFN\ProjSrc\SrcChartEx\ChartAddIn\ChartDataListViewerAddIn\Include_Addin_134221\I134221\_IString.h
; File D:\git\src\IBK\IBK_DRFN\ProjSrc\SrcChartEx\ChartAddIn\ChartDataListViewerAddIn\ChartDataListViewerAddIn\ChartDataSimulatorAddInImp.cpp
; File D:\git\src\IBK\IBK_DRFN\ProjSrc\SrcChartEx\ChartAddIn\ChartDataListViewerAddIn\Include_Addin_134221\I134221\_IString.h
; File D:\git\src\IBK\IBK_DRFN\ProjSrc\SrcChartEx\ChartAddIn\ChartDataListViewerAddIn\ChartDataListViewerAddIn\ChartDataSimulatorAddInImp.cpp
; File D:\git\src\IBK\IBK_DRFN\ProjSrc\SrcChartEx\ChartAddIn\ChartDataListViewerAddIn\Include_Addin_134221\I134221\_IString.h
; File D:\git\src\IBK\IBK_DRFN\ProjSrc\SrcChartEx\ChartAddIn\ChartDataListViewerAddIn\ChartDataListViewerAddIn\ChartDataSimulatorAddInImp.cpp
; File C:\Program Files (x86)\Microsoft Visual Studio\2019\Community\VC\Tools\MSVC\14.29.30133\atlmfc\include\atlsimpstr.h
; File D:\git\src\IBK\IBK_DRFN\ProjSrc\SrcChartEx\ChartAddIn\ChartDataListViewerAddIn\ChartDataListViewerAddIn\ChartDataSimulatorAddInImp.cpp
; File C:\Program Files (x86)\Microsoft Visual Studio\2019\Community\VC\Tools\MSVC\14.29.30133\atlmfc\include\atlsimpstr.h
; File D:\git\src\IBK\IBK_DRFN\ProjSrc\SrcChartEx\ChartAddIn\ChartDataListViewerAddIn\ChartDataListViewerAddIn\ChartDataSimulatorAddInImp.cpp
; File C:\Program Files (x86)\Microsoft Visual Studio\2019\Community\VC\Tools\MSVC\14.29.30133\atlmfc\include\cstringt.h
; File D:\git\src\IBK\IBK_DRFN\ProjSrc\SrcChartEx\ChartAddIn\ChartDataListViewerAddIn\ChartDataListViewerAddIn\ChartDataSimulatorAddInImp.cpp
; File C:\Program Files (x86)\Microsoft Visual Studio\2019\Community\VC\Tools\MSVC\14.29.30133\atlmfc\include\cstringt.h
; File D:\git\src\IBK\IBK_DRFN\ProjSrc\SrcChartEx\ChartAddIn\ChartDataListViewerAddIn\ChartDataListViewerAddIn\ChartDataSimulatorAddInImp.cpp
; File C:\Program Files (x86)\Microsoft Visual Studio\2019\Community\VC\Tools\MSVC\14.29.30133\atlmfc\include\cstringt.h
; File C:\Program Files (x86)\Microsoft Visual Studio\2019\Community\VC\Tools\MSVC\14.29.30133\atlmfc\include\atlsimpstr.h
; File C:\Program Files (x86)\Microsoft Visual Studio\2019\Community\VC\Tools\MSVC\14.29.30133\atlmfc\include\cstringt.h
; File D:\git\src\IBK\IBK_DRFN\ProjSrc\SrcChartEx\ChartAddIn\ChartDataListViewerAddIn\ChartDataListViewerAddIn\ChartDataSimulatorAddInImp.cpp
; File C:\Program Files (x86)\Microsoft Visual Studio\2019\Community\VC\Tools\MSVC\14.29.30133\atlmfc\include\cstringt.h
; File C:\Program Files (x86)\Microsoft Visual Studio\2019\Community\VC\Tools\MSVC\14.29.30133\atlmfc\include\atlsimpstr.h
; File C:\Program Files (x86)\Microsoft Visual Studio\2019\Community\VC\Tools\MSVC\14.29.30133\atlmfc\include\cstringt.h
; File C:\Program Files (x86)\Microsoft Visual Studio\2019\Community\VC\Tools\MSVC\14.29.30133\atlmfc\include\atlsimpstr.h
; File C:\Program Files (x86)\Microsoft Visual Studio\2019\Community\VC\Tools\MSVC\14.29.30133\atlmfc\include\cstringt.h
; File D:\git\src\IBK\IBK_DRFN\ProjSrc\SrcChartEx\ChartAddIn\ChartDataListViewerAddIn\ChartDataListViewerAddIn\ChartDataSimulatorAddInImp.cpp
; File C:\Program Files (x86)\Microsoft Visual Studio\2019\Community\VC\Tools\MSVC\14.29.30133\atlmfc\include\cstringt.h
; File C:\Program Files (x86)\Microsoft Visual Studio\2019\Community\VC\Tools\MSVC\14.29.30133\atlmfc\include\atlsimpstr.h
; File C:\Program Files (x86)\Microsoft Visual Studio\2019\Community\VC\Tools\MSVC\14.29.30133\atlmfc\include\cstringt.h
; File D:\git\src\IBK\IBK_DRFN\ProjSrc\SrcChartEx\ChartAddIn\ChartDataListViewerAddIn\ChartDataListViewerAddIn\ChartDataSimulatorAddInImp.cpp
; File C:\Program Files (x86)\Microsoft Visual Studio\2019\Community\VC\Tools\MSVC\14.29.30133\atlmfc\include\cstringt.h
; File D:\git\src\IBK\IBK_DRFN\ProjSrc\SrcChartEx\ChartAddIn\ChartDataListViewerAddIn\ChartDataListViewerAddIn\ChartDataSimulatorAddInImp.cpp
; File D:\git\src\IBK\IBK_DRFN\ProjSrc\SrcChartEx\ChartAddIn\ChartDataListViewerAddIn\Include_Addin_134221\I134221\_IString.h
; File D:\git\src\IBK\IBK_DRFN\ProjSrc\SrcChartEx\ChartAddIn\ChartDataListViewerAddIn\ChartDataListViewerAddIn\ChartDataSimulatorAddInImp.cpp
; File C:\Program Files (x86)\Microsoft Visual Studio\2019\Community\VC\Tools\MSVC\14.29.30133\atlmfc\include\afxtempl.h
; File D:\git\src\IBK\IBK_DRFN\ProjSrc\SrcChartEx\ChartAddIn\ChartDataListViewerAddIn\Include_Addin_134221\I134221\_IString.h
; File D:\git\src\IBK\IBK_DRFN\ProjSrc\SrcChartEx\ChartAddIn\ChartDataListViewerAddIn\ChartDataListViewerAddIn\ChartDataSimulatorAddInImp.cpp
; File D:\git\src\IBK\IBK_DRFN\ProjSrc\SrcChartEx\ChartAddIn\ChartDataListViewerAddIn\Include_Addin_134221\I134221\_IString.h
; File D:\git\src\IBK\IBK_DRFN\ProjSrc\SrcChartEx\ChartAddIn\ChartDataListViewerAddIn\ChartDataListViewerAddIn\ChartDataSimulatorAddInImp.cpp
; File D:\git\src\IBK\IBK_DRFN\ProjSrc\SrcChartEx\ChartAddIn\ChartDataListViewerAddIn\Include_Addin_134221\I134221\_IString.h
; File D:\git\src\IBK\IBK_DRFN\ProjSrc\SrcChartEx\ChartAddIn\ChartDataListViewerAddIn\ChartDataListViewerAddIn\ChartDataSimulatorAddInImp.cpp
; File D:\git\src\IBK\IBK_DRFN\ProjSrc\SrcChartEx\ChartAddIn\ChartDataListViewerAddIn\Include_Addin_134221\I134221\_IString.h
; File D:\git\src\IBK\IBK_DRFN\ProjSrc\SrcChartEx\ChartAddIn\ChartDataListViewerAddIn\ChartDataListViewerAddIn\ChartDataSimulatorAddInImp.cpp
; File D:\git\src\IBK\IBK_DRFN\ProjSrc\SrcChartEx\ChartAddIn\ChartDataListViewerAddIn\Include_Addin_134221\I134221\_IString.h
; File D:\git\src\IBK\IBK_DRFN\ProjSrc\SrcChartEx\ChartAddIn\ChartDataListViewerAddIn\Include_Chart\Dll_Load\IMetaTable.h
; File C:\Program Files (x86)\Microsoft Visual Studio\2019\Community\VC\Tools\MSVC\14.29.30133\atlmfc\include\afxwin1.inl
; File D:\git\src\IBK\IBK_DRFN\ProjSrc\SrcChartEx\ChartAddIn\ChartDataListViewerAddIn\ChartDataListViewerAddIn\ChartDataSimulatorAddInImp.cpp
;	COMDAT ?OnAddInToolCommand@CChartDataSimulatorAddInImp@@MAEHW4EAICommandType@@@Z
_TEXT	SEGMENT
_IPacketType$ = -1644					; size = 8
___mlrs__$ = -1636					; size = 4
_ChartDataGridManager$ = -1632				; size = 72
_szGraphName$ = -1560					; size = 8
_strTitle$ = -1552					; size = 4
_lpcszCode$ = -1548					; size = 4
_pos$ = -1544						; size = 4
_lpcszName$ = -1540					; size = 4
_IKey$ = -1536						; size = 8
_IValue$ = -1528					; size = 8
_IUserFilePath$ = -1520					; size = 8
___mlrs__$1$ = -1516					; size = 4
_strGraphName$ = -1512					; size = 4
_IRQ$ = -1508						; size = 8
_pIPacketManager$1$ = -1500				; size = 4
_nDataType$1$ = -1500					; size = 4
_strDataType$ = -1496					; size = 4
_strItemName$ = -1492					; size = 4
_strDateTime$ = -1488					; size = 4
_this$GSCopy$1$ = -1484					; size = 4
$T2 = -1480						; size = 4
_szHelpMsg$ = -1476					; size = 8
_strRQ$ = -1468						; size = 4
_strValue$ = -1464					; size = 4
_strHelpMsg$ = -1460					; size = 4
$T3 = -1456						; size = 4
_strDataInterval$ = -1452				; size = 4
_nDataInterval$1$ = -1448				; size = 4
tv1865 = -1448						; size = 4
tv393 = -1448						; size = 4
tv353 = -1448						; size = 4
$T4 = -1444						; size = 4
$T5 = -1444						; size = 4
_strKey$ = -1440					; size = 4
_strItemCode$ = -1436					; size = 4
_nYear$1$ = -1432					; size = 4
_pCurPacketManager$1$ = -1432				; size = 4
$T6 = -1432						; size = 4
_nMonth$1$ = -1428					; size = 4
$T7 = -1428						; size = 4
$T8 = -1428						; size = 4
$T9 = -1428						; size = 4
$T10 = -1428						; size = 4
_dlg$ = -1424						; size = 1384
_szPacketName$ = -40					; size = 24
__$ArrayPad$ = -16					; size = 4
__$EHRec$ = -12						; size = 12
_p_eCommandID$ = 8					; size = 4
?OnAddInToolCommand@CChartDataSimulatorAddInImp@@MAEHW4EAICommandType@@@Z PROC ; CChartDataSimulatorAddInImp::OnAddInToolCommand, COMDAT
; _this$ = ecx

; 206  : {

  00000	55		 push	 ebp
  00001	8b ec		 mov	 ebp, esp
  00003	6a ff		 push	 -1
  00005	68 00 00 00 00	 push	 __ehhandler$?OnAddInToolCommand@CChartDataSimulatorAddInImp@@MAEHW4EAICommandType@@@Z
  0000a	64 a1 00 00 00
	00		 mov	 eax, DWORD PTR fs:0
  00010	50		 push	 eax
  00011	81 ec 60 06 00
	00		 sub	 esp, 1632		; 00000660H
  00017	a1 00 00 00 00	 mov	 eax, DWORD PTR ___security_cookie
  0001c	33 c5		 xor	 eax, ebp
  0001e	89 45 f0	 mov	 DWORD PTR __$ArrayPad$[ebp], eax
  00021	53		 push	 ebx
  00022	56		 push	 esi
  00023	57		 push	 edi
  00024	50		 push	 eax
  00025	8d 45 f4	 lea	 eax, DWORD PTR __$EHRec$[ebp]
  00028	64 a3 00 00 00
	00		 mov	 DWORD PTR fs:0, eax
  0002e	8b d9		 mov	 ebx, ecx
  00030	89 9d 34 fa ff
	ff		 mov	 DWORD PTR _this$GSCopy$1$[ebp], ebx
  00036	33 c0		 xor	 eax, eax

; 207  : 	if( EAI_DATA_SIMULATOR != p_eCommandID) return FALSE;

  00038	83 7d 08 3e	 cmp	 DWORD PTR _p_eCommandID$[ebp], 62 ; 0000003eH
  0003c	89 85 5c fa ff
	ff		 mov	 DWORD PTR $T4[ebp], eax
  00042	89 85 38 fa ff
	ff		 mov	 DWORD PTR $T2[ebp], eax
  00048	0f 85 27 0c 00
	00		 jne	 $LN1@OnAddInToo
$LN9@OnAddInToo:

; 208  : 
; 209  : 	ML_SET_LANGUAGE_RES();

  0004e	e8 00 00 00 00	 call	 ?AfxGetStaticModuleState@@YGPAVAFX_MODULE_STATE@@XZ ; AfxGetStaticModuleState
  00053	8b 7b 0c	 mov	 edi, DWORD PTR [ebx+12]
  00056	8b 70 08	 mov	 esi, DWORD PTR [eax+8]
; File D:\git\src\IBK\IBK_DRFN\ProjSrc\SrcChartEx\ChartAddIn\ChartDataListViewerAddIn\Include_Chart\Dll_Load\IMetaTable.h

; 936  : 	DECLARE_FUNCTION2(	LoadResourceDLL,				HMODULE, AfxGetStaticModuleState()->m_hCurrentInstanceHandle, HWND, HMODULE);

  00059	a1 04 00 00 00	 mov	 eax, DWORD PTR ?g_iMetaTable@@3VIMetaTable@@A+4
  0005e	85 c0		 test	 eax, eax
  00060	74 4b		 je	 SHORT $LN71@OnAddInToo
  00062	b9 80 0d 00 00	 mov	 ecx, 3456		; 00000d80H
  00067	66 3b 0d 94 00
	00 00		 cmp	 cx, WORD PTR ?g_iMetaTable@@3VIMetaTable@@A+148
  0006e	74 29		 je	 SHORT $LN290@OnAddInToo
  00070	68 00 00 00 00	 push	 OFFSET ??_C@_0BA@ENJOCHIO@LoadResourceDLL@
  00075	50		 push	 eax
  00076	c7 05 90 00 00
	00 00 00 00 00	 mov	 DWORD PTR ?g_iMetaTable@@3VIMetaTable@@A+144, 0
  00080	ff 15 00 00 00
	00		 call	 DWORD PTR __imp__GetProcAddress@8
  00086	b9 80 0d 00 00	 mov	 ecx, 3456		; 00000d80H
  0008b	a3 90 00 00 00	 mov	 DWORD PTR ?g_iMetaTable@@3VIMetaTable@@A+144, eax
  00090	66 89 0d 94 00
	00 00		 mov	 WORD PTR ?g_iMetaTable@@3VIMetaTable@@A+148, cx
  00097	eb 05		 jmp	 SHORT $LN70@OnAddInToo
$LN290@OnAddInToo:
  00099	a1 90 00 00 00	 mov	 eax, DWORD PTR ?g_iMetaTable@@3VIMetaTable@@A+144
$LN70@OnAddInToo:
  0009e	85 c0		 test	 eax, eax
  000a0	74 0b		 je	 SHORT $LN71@OnAddInToo
  000a2	56		 push	 esi
  000a3	57		 push	 edi
  000a4	ff d0		 call	 eax
  000a6	83 c4 08	 add	 esp, 8
  000a9	8b f8		 mov	 edi, eax
  000ab	eb 08		 jmp	 SHORT $LN68@OnAddInToo
$LN71@OnAddInToo:
  000ad	e8 00 00 00 00	 call	 ?AfxGetStaticModuleState@@YGPAVAFX_MODULE_STATE@@XZ ; AfxGetStaticModuleState
  000b2	8b 78 08	 mov	 edi, DWORD PTR [eax+8]
$LN68@OnAddInToo:
; File C:\Program Files (x86)\Microsoft Visual Studio\2019\Community\VC\Tools\MSVC\14.29.30133\atlmfc\include\afxwin1.inl

; 25   : 		return afxCurrentResourceHandle; }

  000b5	e8 00 00 00 00	 call	 ?AfxGetModuleState@@YGPAVAFX_MODULE_STATE@@XZ ; AfxGetModuleState
; File D:\git\src\IBK\IBK_DRFN\ProjSrc\SrcChartEx\ChartAddIn\ChartDataListViewerAddIn\Include_Chart\Dll_Load\IMetaTable.h

; 1032 : 		m_hInstance = AfxGetResourceHandle();

  000ba	8b 70 0c	 mov	 esi, DWORD PTR [eax+12]
  000bd	89 b5 14 fa ff
	ff		 mov	 DWORD PTR ___mlrs__$1$[ebp], esi
  000c3	89 b5 9c f9 ff
	ff		 mov	 DWORD PTR ___mlrs__$[ebp], esi
; File C:\Program Files (x86)\Microsoft Visual Studio\2019\Community\VC\Tools\MSVC\14.29.30133\atlmfc\include\afxwin1.inl

; 27   : 	{ ASSERT(hInstResource != NULL); afxCurrentResourceHandle = hInstResource; }

  000c9	e8 00 00 00 00	 call	 ?AfxGetModuleState@@YGPAVAFX_MODULE_STATE@@XZ ; AfxGetModuleState
  000ce	89 78 0c	 mov	 DWORD PTR [eax+12], edi
; File D:\git\src\IBK\IBK_DRFN\ProjSrc\SrcChartEx\ChartAddIn\ChartDataListViewerAddIn\ChartDataListViewerAddIn\ChartDataSimulatorAddInImp.cpp

; 211  : 	if(!m_pIChartOCX || !m_pIChartManager || !m_pIPacketListManager) return FALSE;

  000d1	83 7b 04 00	 cmp	 DWORD PTR [ebx+4], 0
  000d5	c7 45 fc 00 00
	00 00		 mov	 DWORD PTR __$EHRec$[ebp+8], 0
  000dc	0f 84 80 0b 00
	00		 je	 $LN11@OnAddInToo
  000e2	8b 4b 20	 mov	 ecx, DWORD PTR [ebx+32]
  000e5	85 c9		 test	 ecx, ecx
  000e7	0f 84 75 0b 00
	00		 je	 $LN11@OnAddInToo
  000ed	83 7b 18 00	 cmp	 DWORD PTR [ebx+24], 0
  000f1	0f 84 6b 0b 00
	00		 je	 $LN11@OnAddInToo

; 216  : 	ILPCSTR szGraphName = m_pIChartManager->GetAllIndicatorNameString();

  000f7	8b 01		 mov	 eax, DWORD PTR [ecx]
  000f9	ff 50 5c	 call	 DWORD PTR [eax+92]
; File D:\git\src\IBK\IBK_DRFN\ProjSrc\SrcChartEx\ChartAddIn\ChartDataListViewerAddIn\Include_Addin_134221\I134221\_IString.h

; 39   : 		m_pIStrData = p_pIString;	// Do not AddRef(). Because It must be Return Value.

  000fc	8b f8		 mov	 edi, eax
  000fe	89 bd ec f9 ff
	ff		 mov	 DWORD PTR _szGraphName$[ebp+4], edi

; 40   : 		if( m_pIStrData) m_szData = m_pIStrData->GetData();

  00104	85 ff		 test	 edi, edi
  00106	74 09		 je	 SHORT $LN85@OnAddInToo
  00108	8b 17		 mov	 edx, DWORD PTR [edi]
  0010a	8b cf		 mov	 ecx, edi
  0010c	ff 52 10	 call	 DWORD PTR [edx+16]
  0010f	eb 02		 jmp	 SHORT $LN294@OnAddInToo
$LN85@OnAddInToo:

; 41   : 		else m_szData = NULL;

  00111	33 c0		 xor	 eax, eax
$LN294@OnAddInToo:
; File D:\git\src\IBK\IBK_DRFN\ProjSrc\SrcChartEx\ChartAddIn\ChartDataListViewerAddIn\ChartDataListViewerAddIn\ChartDataSimulatorAddInImp.cpp

; 216  : 	ILPCSTR szGraphName = m_pIChartManager->GetAllIndicatorNameString();

  00113	89 85 e8 f9 ff
	ff		 mov	 DWORD PTR _szGraphName$[ebp], eax

; 217  : 	CString strGraphName( szGraphName);

  00119	50		 push	 eax
  0011a	8d 8d 18 fa ff
	ff		 lea	 ecx, DWORD PTR _strGraphName$[ebp]
  00120	c6 45 fc 02	 mov	 BYTE PTR __$EHRec$[ebp+8], 2
  00124	ff 15 00 00 00
	00		 call	 DWORD PTR __imp_??0?$CStringT@DV?$StrTraitMFC_DLL@DV?$ChTraitsCRT@D@ATL@@@@@ATL@@QAE@PBD@Z

; 218  : 	if( g_iMetaTable.IsSpecialGroupGraph(strGraphName.Left(strGraphName.Find(_T(","))))) return FALSE;

  0012a	6a 00		 push	 0
  0012c	68 00 00 00 00	 push	 OFFSET ??_C@_01IHBHIGKO@?0@
  00131	8d 8d 18 fa ff
	ff		 lea	 ecx, DWORD PTR _strGraphName$[ebp]
  00137	c6 45 fc 03	 mov	 BYTE PTR __$EHRec$[ebp+8], 3
  0013b	ff 15 00 00 00
	00		 call	 DWORD PTR __imp_?Find@?$CStringT@DV?$StrTraitMFC_DLL@DV?$ChTraitsCRT@D@ATL@@@@@ATL@@QBEHPBDH@Z
  00141	50		 push	 eax
  00142	8d 85 68 fa ff
	ff		 lea	 eax, DWORD PTR $T6[ebp]
  00148	50		 push	 eax
  00149	8d 8d 18 fa ff
	ff		 lea	 ecx, DWORD PTR _strGraphName$[ebp]
  0014f	ff 15 00 00 00
	00		 call	 DWORD PTR __imp_?Left@?$CStringT@DV?$StrTraitMFC_DLL@DV?$ChTraitsCRT@D@ATL@@@@@ATL@@QBE?AV12@H@Z
  00155	ff 30		 push	 DWORD PTR [eax]
  00157	b9 00 00 00 00	 mov	 ecx, OFFSET ?g_iMetaTable@@3VIMetaTable@@A ; g_iMetaTable
  0015c	c6 45 fc 04	 mov	 BYTE PTR __$EHRec$[ebp+8], 4
  00160	e8 00 00 00 00	 call	 ?IsSpecialGroupGraph@IMetaTable@@QAE_NPBD@Z ; IMetaTable::IsSpecialGroupGraph
  00165	8d 8d 68 fa ff
	ff		 lea	 ecx, DWORD PTR $T6[ebp]
  0016b	8a d8		 mov	 bl, al
  0016d	ff 15 00 00 00
	00		 call	 DWORD PTR __imp_??1?$CStringT@DV?$StrTraitMFC_DLL@DV?$ChTraitsCRT@D@ATL@@@@@ATL@@QAE@XZ
  00173	84 db		 test	 bl, bl
  00175	74 07		 je	 SHORT $LN12@OnAddInToo
  00177	33 db		 xor	 ebx, ebx
  00179	e9 c8 0a 00 00	 jmp	 $LN65@OnAddInToo
$LN12@OnAddInToo:

; 219  : 
; 220  : 	int			col;
; 221  : 	CString		strRQ;

  0017e	8d 8d 44 fa ff
	ff		 lea	 ecx, DWORD PTR _strRQ$[ebp]
  00184	ff 15 00 00 00
	00		 call	 DWORD PTR __imp_??0?$CStringT@DV?$StrTraitMFC_DLL@DV?$ChTraitsCRT@D@ATL@@@@@ATL@@QAE@XZ
; File D:\git\src\IBK\IBK_DRFN\ProjSrc\SrcChartEx\ChartAddIn\ChartDataListViewerAddIn\Include_Addin_134221\I134221\_IString.h

; 34   : 		m_szData = NULL;

  0018a	c7 85 94 f9 ff
	ff 00 00 00 00	 mov	 DWORD PTR _IPacketType$[ebp], 0

; 35   : 		m_pIStrData = NULL;

  00194	c7 85 98 f9 ff
	ff 00 00 00 00	 mov	 DWORD PTR _IPacketType$[ebp+4], 0

; 34   : 		m_szData = NULL;

  0019e	c7 85 1c fa ff
	ff 00 00 00 00	 mov	 DWORD PTR _IRQ$[ebp], 0

; 35   : 		m_pIStrData = NULL;

  001a8	c7 85 20 fa ff
	ff 00 00 00 00	 mov	 DWORD PTR _IRQ$[ebp+4], 0
; File D:\git\src\IBK\IBK_DRFN\ProjSrc\SrcChartEx\ChartAddIn\ChartDataListViewerAddIn\ChartDataListViewerAddIn\ChartDataSimulatorAddInImp.cpp

; 223  : 	LPCTSTR     szPacketName[ COL_SIZE] = { _MTEXT(C0_DATE_TIME), _MTEXT(C0_OPEN) , _MTEXT(C0_HIGH) , _MTEXT(C0_LOW) , 	_MTEXT(C0_CLOSE), _MTEXT(C0_VOLUME)};

  001b2	8b 0d 54 00 00
	00		 mov	 ecx, DWORD PTR ?g_iMetaTable@@3VIMetaTable@@A+84
  001b8	8b 01		 mov	 eax, DWORD PTR [ecx]
  001ba	89 45 d8	 mov	 DWORD PTR _szPacketName$[ebp], eax
  001bd	8b 41 08	 mov	 eax, DWORD PTR [ecx+8]
  001c0	89 45 dc	 mov	 DWORD PTR _szPacketName$[ebp+4], eax
  001c3	8b 41 0c	 mov	 eax, DWORD PTR [ecx+12]
  001c6	89 45 e0	 mov	 DWORD PTR _szPacketName$[ebp+8], eax
  001c9	8b 41 10	 mov	 eax, DWORD PTR [ecx+16]
  001cc	89 45 e4	 mov	 DWORD PTR _szPacketName$[ebp+12], eax
  001cf	8b 41 14	 mov	 eax, DWORD PTR [ecx+20]
  001d2	89 45 e8	 mov	 DWORD PTR _szPacketName$[ebp+16], eax
  001d5	8b 41 1c	 mov	 eax, DWORD PTR [ecx+28]
; File D:\git\src\IBK\IBK_DRFN\ProjSrc\SrcChartEx\ChartAddIn\ChartDataListViewerAddIn\ChartDataListViewerAddIn\ChartDataSimulatorAddInImp.h

; 83   : 	CChartDataGridManager()

  001d8	8d 8d a0 f9 ff
	ff		 lea	 ecx, DWORD PTR _ChartDataGridManager$[ebp]
; File D:\git\src\IBK\IBK_DRFN\ProjSrc\SrcChartEx\ChartAddIn\ChartDataListViewerAddIn\ChartDataListViewerAddIn\ChartDataSimulatorAddInImp.cpp

; 223  : 	LPCTSTR     szPacketName[ COL_SIZE] = { _MTEXT(C0_DATE_TIME), _MTEXT(C0_OPEN) , _MTEXT(C0_HIGH) , _MTEXT(C0_LOW) , 	_MTEXT(C0_CLOSE), _MTEXT(C0_VOLUME)};

  001de	89 45 ec	 mov	 DWORD PTR _szPacketName$[ebp+20], eax
; File D:\git\src\IBK\IBK_DRFN\ProjSrc\SrcChartEx\ChartAddIn\ChartDataListViewerAddIn\ChartDataListViewerAddIn\ChartDataSimulatorAddInImp.h

; 83   : 	CChartDataGridManager()

  001e1	ff 15 00 00 00
	00		 call	 DWORD PTR __imp_??0?$CStringT@DV?$StrTraitMFC_DLL@DV?$ChTraitsCRT@D@ATL@@@@@ATL@@QAE@XZ
  001e7	8d 8d a4 f9 ff
	ff		 lea	 ecx, DWORD PTR _ChartDataGridManager$[ebp+4]
  001ed	ff 15 00 00 00
	00		 call	 DWORD PTR __imp_??0?$CStringT@DV?$StrTraitMFC_DLL@DV?$ChTraitsCRT@D@ATL@@@@@ATL@@QAE@XZ
  001f3	8d 8d a8 f9 ff
	ff		 lea	 ecx, DWORD PTR _ChartDataGridManager$[ebp+8]
  001f9	ff 15 00 00 00
	00		 call	 DWORD PTR __imp_??0?$CStringT@DV?$StrTraitMFC_DLL@DV?$ChTraitsCRT@D@ATL@@@@@ATL@@QAE@XZ
  001ff	8d 8d b4 f9 ff
	ff		 lea	 ecx, DWORD PTR _ChartDataGridManager$[ebp+20]
  00205	ff 15 00 00 00
	00		 call	 DWORD PTR __imp_??0?$CStringT@DV?$StrTraitMFC_DLL@DV?$ChTraitsCRT@D@ATL@@@@@ATL@@QAE@XZ
; File C:\Program Files (x86)\Microsoft Visual Studio\2019\Community\VC\Tools\MSVC\14.29.30133\atlmfc\include\afxtempl.h

; 348  : {

  0020b	c7 85 b8 f9 ff
	ff 00 00 00 00	 mov	 DWORD PTR _ChartDataGridManager$[ebp+24], OFFSET ??_7?$CArray@PAVCChartDataGridHeaderInfo@@PAV1@@@6B@

; 349  : 	m_pData = NULL;

  00215	c7 85 bc f9 ff
	ff 00 00 00 00	 mov	 DWORD PTR _ChartDataGridManager$[ebp+28], 0

; 350  : 	m_nSize = m_nMaxSize = m_nGrowBy = 0;

  0021f	c7 85 c8 f9 ff
	ff 00 00 00 00	 mov	 DWORD PTR _ChartDataGridManager$[ebp+40], 0
  00229	c7 85 c4 f9 ff
	ff 00 00 00 00	 mov	 DWORD PTR _ChartDataGridManager$[ebp+36], 0
  00233	c7 85 c0 f9 ff
	ff 00 00 00 00	 mov	 DWORD PTR _ChartDataGridManager$[ebp+32], 0

; 851  : {

  0023d	c7 85 cc f9 ff
	ff 00 00 00 00	 mov	 DWORD PTR _ChartDataGridManager$[ebp+44], OFFSET ??_7?$CList@PAVCChartRecordSet@@PAV1@@@6B@

; 852  : 	ASSERT(nBlockSize > 0);
; 853  : 
; 854  : 	m_nCount = 0;

  00247	c7 85 d8 f9 ff
	ff 00 00 00 00	 mov	 DWORD PTR _ChartDataGridManager$[ebp+56], 0

; 855  : 	m_pNodeHead = m_pNodeTail = m_pNodeFree = NULL;

  00251	c7 85 dc f9 ff
	ff 00 00 00 00	 mov	 DWORD PTR _ChartDataGridManager$[ebp+60], 0
  0025b	c7 85 d4 f9 ff
	ff 00 00 00 00	 mov	 DWORD PTR _ChartDataGridManager$[ebp+52], 0
  00265	c7 85 d0 f9 ff
	ff 00 00 00 00	 mov	 DWORD PTR _ChartDataGridManager$[ebp+48], 0

; 856  : 	m_pBlocks = NULL;

  0026f	c7 85 e0 f9 ff
	ff 00 00 00 00	 mov	 DWORD PTR _ChartDataGridManager$[ebp+64], 0

; 857  : 	m_nBlockSize = nBlockSize;

  00279	c7 85 e4 f9 ff
	ff 0a 00 00 00	 mov	 DWORD PTR _ChartDataGridManager$[ebp+68], 10 ; 0000000aH
; File D:\git\src\IBK\IBK_DRFN\ProjSrc\SrcChartEx\ChartAddIn\ChartDataListViewerAddIn\ChartDataListViewerAddIn\ChartDataSimulatorAddInImp.h

; 85   : 		m_nDataType = DAY_TYPE;

  00283	c7 85 ac f9 ff
	ff 00 00 00 00	 mov	 DWORD PTR _ChartDataGridManager$[ebp+12], 0

; 86   : 		m_nDataInterval = 1;

  0028d	c7 85 b0 f9 ff
	ff 01 00 00 00	 mov	 DWORD PTR _ChartDataGridManager$[ebp+16], 1
; File D:\git\src\IBK\IBK_DRFN\ProjSrc\SrcChartEx\ChartAddIn\ChartDataListViewerAddIn\ChartDataListViewerAddIn\ChartDataSimulatorAddInImp.cpp

; 226  : 	IRQ	= m_pIChartOCX->GetCurrentRQ();

  00297	8b 9d 34 fa ff
	ff		 mov	 ebx, DWORD PTR _this$GSCopy$1$[ebp]
  0029d	c6 45 fc 09	 mov	 BYTE PTR __$EHRec$[ebp+8], 9
  002a1	8b 4b 04	 mov	 ecx, DWORD PTR [ebx+4]
  002a4	8b 01		 mov	 eax, DWORD PTR [ecx]
  002a6	ff 90 40 02 00
	00		 call	 DWORD PTR [eax+576]
; File D:\git\src\IBK\IBK_DRFN\ProjSrc\SrcChartEx\ChartAddIn\ChartDataListViewerAddIn\Include_Addin_134221\I134221\_IString.h

; 68   : 		m_pIStrData = stringSrc;	// Do not AddRef(). Because It must be Return Value.

  002ac	89 85 20 fa ff
	ff		 mov	 DWORD PTR _IRQ$[ebp+4], eax
  002b2	85 c0		 test	 eax, eax

; 69   : 		if( m_pIStrData) m_szData = m_pIStrData->GetData();

  002b4	74 09		 je	 SHORT $LN107@OnAddInToo
  002b6	8b 10		 mov	 edx, DWORD PTR [eax]
  002b8	8b c8		 mov	 ecx, eax
  002ba	ff 52 10	 call	 DWORD PTR [edx+16]
  002bd	eb 02		 jmp	 SHORT $LN295@OnAddInToo
$LN107@OnAddInToo:

; 70   : 		else m_szData = NULL;

  002bf	33 c0		 xor	 eax, eax
$LN295@OnAddInToo:
; File D:\git\src\IBK\IBK_DRFN\ProjSrc\SrcChartEx\ChartAddIn\ChartDataListViewerAddIn\ChartDataListViewerAddIn\ChartDataSimulatorAddInImp.cpp

; 227  : 	strRQ = IRQ;

  002c1	50		 push	 eax
  002c2	8d 8d 44 fa ff
	ff		 lea	 ecx, DWORD PTR _strRQ$[ebp]
  002c8	89 85 1c fa ff
	ff		 mov	 DWORD PTR _IRQ$[ebp], eax
  002ce	ff 15 00 00 00
	00		 call	 DWORD PTR __imp_??4?$CStringT@DV?$StrTraitMFC_DLL@DV?$ChTraitsCRT@D@ATL@@@@@ATL@@QAEAAV01@PBD@Z

; 228  : 	
; 229  : 	for( col = 0 ; col < COL_SIZE; col++ )

  002d4	33 ff		 xor	 edi, edi
$LL4@OnAddInToo:

; 230  : 	{
; 231  : 		// (2009/9/25 - Seung-Won, Bae) for FX
; 232  : 		if( COL_SIZE - 1 == col) if( CChartInfo::FX == m_eChartMode) break;

  002d6	83 ff 05	 cmp	 edi, 5
  002d9	75 06		 jne	 SHORT $LN14@OnAddInToo
  002db	83 7b 10 02	 cmp	 DWORD PTR [ebx+16], 2
  002df	74 30		 je	 SHORT $LN3@OnAddInToo
$LN14@OnAddInToo:

; 233  : 
; 234  : 		if(!GetDataFromPacketList(col, IRQ, szPacketName[col], &ChartDataGridManager, col == 0))

  002e1	33 c0		 xor	 eax, eax
  002e3	8d 4b f8	 lea	 ecx, DWORD PTR [ebx-8]
  002e6	85 ff		 test	 edi, edi
  002e8	0f 94 c0	 sete	 al
  002eb	50		 push	 eax
  002ec	8d 85 a0 f9 ff
	ff		 lea	 eax, DWORD PTR _ChartDataGridManager$[ebp]
  002f2	50		 push	 eax
  002f3	ff 74 bd d8	 push	 DWORD PTR _szPacketName$[ebp+edi*4]
  002f7	ff b5 1c fa ff
	ff		 push	 DWORD PTR _IRQ$[ebp]
  002fd	57		 push	 edi
  002fe	e8 00 00 00 00	 call	 ?GetDataFromPacketList@CChartDataSimulatorAddInImp@@IAEHHPBD0PAVCChartDataGridManager@@H@Z ; CChartDataSimulatorAddInImp::GetDataFromPacketList
  00303	85 c0		 test	 eax, eax
  00305	0f 84 08 09 00
	00		 je	 $LN274@OnAddInToo

; 228  : 	
; 229  : 	for( col = 0 ; col < COL_SIZE; col++ )

  0030b	47		 inc	 edi
  0030c	83 ff 06	 cmp	 edi, 6
  0030f	7c c5		 jl	 SHORT $LL4@OnAddInToo
$LN3@OnAddInToo:

; 235  : 			return FALSE;		
; 236  : 	}
; 237  : 
; 238  : 	////////////////////////////////////////////////////////////////////////////////////////////
; 239  : 	//    
; 240  : 	CString strTitle;

  00311	8d 8d f0 f9 ff
	ff		 lea	 ecx, DWORD PTR _strTitle$[ebp]
  00317	ff 15 00 00 00
	00		 call	 DWORD PTR __imp_??0?$CStringT@DV?$StrTraitMFC_DLL@DV?$ChTraitsCRT@D@ATL@@@@@ATL@@QAE@XZ
; File D:\git\src\IBK\IBK_DRFN\ProjSrc\SrcChartEx\ChartAddIn\ChartDataListViewerAddIn\Include_Addin_134221\I134221\_IString.h

; 34   : 		m_szData = NULL;

  0031d	c7 85 00 fa ff
	ff 00 00 00 00	 mov	 DWORD PTR _IKey$[ebp], 0

; 35   : 		m_pIStrData = NULL;

  00327	c7 85 04 fa ff
	ff 00 00 00 00	 mov	 DWORD PTR _IKey$[ebp+4], 0

; 34   : 		m_szData = NULL;

  00331	c7 85 08 fa ff
	ff 00 00 00 00	 mov	 DWORD PTR _IValue$[ebp], 0

; 35   : 		m_pIStrData = NULL;

  0033b	c7 85 0c fa ff
	ff 00 00 00 00	 mov	 DWORD PTR _IValue$[ebp+4], 0
; File D:\git\src\IBK\IBK_DRFN\ProjSrc\SrcChartEx\ChartAddIn\ChartDataListViewerAddIn\ChartDataListViewerAddIn\ChartDataSimulatorAddInImp.cpp

; 242  : 	CString strKey, strValue, strHelpMsg;

  00345	8d 8d 60 fa ff
	ff		 lea	 ecx, DWORD PTR _strKey$[ebp]
  0034b	ff 15 00 00 00
	00		 call	 DWORD PTR __imp_??0?$CStringT@DV?$StrTraitMFC_DLL@DV?$ChTraitsCRT@D@ATL@@@@@ATL@@QAE@XZ
  00351	8d 8d 48 fa ff
	ff		 lea	 ecx, DWORD PTR _strValue$[ebp]
  00357	ff 15 00 00 00
	00		 call	 DWORD PTR __imp_??0?$CStringT@DV?$StrTraitMFC_DLL@DV?$ChTraitsCRT@D@ATL@@@@@ATL@@QAE@XZ
  0035d	8d 8d 4c fa ff
	ff		 lea	 ecx, DWORD PTR _strHelpMsg$[ebp]
  00363	ff 15 00 00 00
	00		 call	 DWORD PTR __imp_??0?$CStringT@DV?$StrTraitMFC_DLL@DV?$ChTraitsCRT@D@ATL@@@@@ATL@@QAE@XZ
; File D:\git\src\IBK\IBK_DRFN\ProjSrc\SrcChartEx\ChartAddIn\ChartDataListViewerAddIn\Include_Addin_134221\I134221\_IString.h

; 39   : 		m_pIStrData = p_pIString;	// Do not AddRef(). Because It must be Return Value.

  00369	c7 85 40 fa ff
	ff 00 00 00 00	 mov	 DWORD PTR _szHelpMsg$[ebp+4], 0

; 41   : 		else m_szData = NULL;

  00373	c7 85 3c fa ff
	ff 00 00 00 00	 mov	 DWORD PTR _szHelpMsg$[ebp], 0
; File D:\git\src\IBK\IBK_DRFN\ProjSrc\SrcChartEx\ChartAddIn\ChartDataListViewerAddIn\ChartDataListViewerAddIn\ChartDataSimulatorAddInImp.cpp

; 244  : 	CString strDataType, strDataInterval;	

  0037d	8d 8d 28 fa ff
	ff		 lea	 ecx, DWORD PTR _strDataType$[ebp]
  00383	ff 15 00 00 00
	00		 call	 DWORD PTR __imp_??0?$CStringT@DV?$StrTraitMFC_DLL@DV?$ChTraitsCRT@D@ATL@@@@@ATL@@QAE@XZ
  00389	8d 8d 54 fa ff
	ff		 lea	 ecx, DWORD PTR _strDataInterval$[ebp]
  0038f	ff 15 00 00 00
	00		 call	 DWORD PTR __imp_??0?$CStringT@DV?$StrTraitMFC_DLL@DV?$ChTraitsCRT@D@ATL@@@@@ATL@@QAE@XZ

; 245  : 	IPacketManager * pCurPacketManager = m_pIPacketListManager->GetPacketManager(IRQ);

  00395	8b 4b 18	 mov	 ecx, DWORD PTR [ebx+24]
  00398	8b bd 1c fa ff
	ff		 mov	 edi, DWORD PTR _IRQ$[ebp]
  0039e	57		 push	 edi
  0039f	c6 45 fc 15	 mov	 BYTE PTR __$EHRec$[ebp+8], 21 ; 00000015H
  003a3	8b 01		 mov	 eax, DWORD PTR [ecx]
  003a5	ff 50 10	 call	 DWORD PTR [eax+16]
  003a8	89 85 68 fa ff
	ff		 mov	 DWORD PTR _pCurPacketManager$1$[ebp], eax

; 246  : 	if(!pCurPacketManager) return FALSE;	

  003ae	85 c0		 test	 eax, eax
  003b0	75 07		 jne	 SHORT $LN16@OnAddInToo
  003b2	33 db		 xor	 ebx, ebx
  003b4	e9 79 07 00 00	 jmp	 $LN67@OnAddInToo
$LN16@OnAddInToo:

; 247  : 
; 248  : 
; 249  : 	////////////////////////////////////////////////////////////////////////////////////////////	
; 250  : 	//   (,  )
; 251  : 	LPCTSTR lpcszCode = NULL;
; 252  : 	LPCTSTR lpcszName = NULL;
; 253  : 	CString strItemCode, strItemName;

  003b9	8d 8d 64 fa ff
	ff		 lea	 ecx, DWORD PTR _strItemCode$[ebp]
  003bf	c7 85 f4 f9 ff
	ff 00 00 00 00	 mov	 DWORD PTR _lpcszCode$[ebp], 0
  003c9	c7 85 fc f9 ff
	ff 00 00 00 00	 mov	 DWORD PTR _lpcszName$[ebp], 0
  003d3	ff 15 00 00 00
	00		 call	 DWORD PTR __imp_??0?$CStringT@DV?$StrTraitMFC_DLL@DV?$ChTraitsCRT@D@ATL@@@@@ATL@@QAE@XZ
  003d9	8d 8d 2c fa ff
	ff		 lea	 ecx, DWORD PTR _strItemName$[ebp]
  003df	ff 15 00 00 00
	00		 call	 DWORD PTR __imp_??0?$CStringT@DV?$StrTraitMFC_DLL@DV?$ChTraitsCRT@D@ATL@@@@@ATL@@QAE@XZ

; 254  : 	
; 255  : 	m_pIPacketListManager->GetItemCode(IRQ, lpcszCode, lpcszName);

  003e5	8b 4b 18	 mov	 ecx, DWORD PTR [ebx+24]
  003e8	8d 95 fc f9 ff
	ff		 lea	 edx, DWORD PTR _lpcszName$[ebp]
  003ee	52		 push	 edx
  003ef	8d 95 f4 f9 ff
	ff		 lea	 edx, DWORD PTR _lpcszCode$[ebp]
  003f5	c6 45 fc 1d	 mov	 BYTE PTR __$EHRec$[ebp+8], 29 ; 0000001dH
  003f9	52		 push	 edx
  003fa	8b 01		 mov	 eax, DWORD PTR [ecx]
  003fc	57		 push	 edi
  003fd	ff 50 20	 call	 DWORD PTR [eax+32]

; 256  : 	if(lpcszCode && strlen(lpcszCode) > 0)

  00400	8b 95 f4 f9 ff
	ff		 mov	 edx, DWORD PTR _lpcszCode$[ebp]
  00406	85 d2		 test	 edx, edx
  00408	0f 84 a5 00 00
	00		 je	 $LN18@OnAddInToo
  0040e	8b ca		 mov	 ecx, edx
  00410	8d 79 01	 lea	 edi, DWORD PTR [ecx+1]
$LL284@OnAddInToo:
  00413	8a 01		 mov	 al, BYTE PTR [ecx]
  00415	41		 inc	 ecx
  00416	84 c0		 test	 al, al
  00418	75 f9		 jne	 SHORT $LL284@OnAddInToo
  0041a	2b cf		 sub	 ecx, edi
  0041c	0f 84 91 00 00
	00		 je	 $LN18@OnAddInToo

; 257  : 	{
; 258  : 		strItemCode = CString(lpcszCode, strlen(lpcszCode));

  00422	8b ca		 mov	 ecx, edx
  00424	8d 79 01	 lea	 edi, DWORD PTR [ecx+1]
$LL285@OnAddInToo:
  00427	8a 01		 mov	 al, BYTE PTR [ecx]
  00429	41		 inc	 ecx
  0042a	84 c0		 test	 al, al
  0042c	75 f9		 jne	 SHORT $LL285@OnAddInToo
  0042e	2b cf		 sub	 ecx, edi
  00430	51		 push	 ecx
  00431	52		 push	 edx
  00432	8d 8d 6c fa ff
	ff		 lea	 ecx, DWORD PTR $T10[ebp]
  00438	ff 15 00 00 00
	00		 call	 DWORD PTR __imp_??0?$CStringT@DV?$StrTraitMFC_DLL@DV?$ChTraitsCRT@D@ATL@@@@@ATL@@QAE@PBDH@Z
  0043e	50		 push	 eax
  0043f	8d 8d 64 fa ff
	ff		 lea	 ecx, DWORD PTR _strItemCode$[ebp]
  00445	c6 45 fc 1e	 mov	 BYTE PTR __$EHRec$[ebp+8], 30 ; 0000001eH
  00449	ff 15 00 00 00
	00		 call	 DWORD PTR __imp_??4?$CStringT@DV?$StrTraitMFC_DLL@DV?$ChTraitsCRT@D@ATL@@@@@ATL@@QAEAAV01@ABV01@@Z
  0044f	8d 8d 6c fa ff
	ff		 lea	 ecx, DWORD PTR $T10[ebp]
  00455	c6 45 fc 1d	 mov	 BYTE PTR __$EHRec$[ebp+8], 29 ; 0000001dH
  00459	ff 15 00 00 00
	00		 call	 DWORD PTR __imp_??1?$CStringT@DV?$StrTraitMFC_DLL@DV?$ChTraitsCRT@D@ATL@@@@@ATL@@QAE@XZ

; 259  : 		if( strItemCode.GetAt( 0) == '|' && strItemCode.GetLength() >= 4 )

  0045f	6a 00		 push	 0
  00461	8d 8d 64 fa ff
	ff		 lea	 ecx, DWORD PTR _strItemCode$[ebp]
  00467	ff 15 00 00 00
	00		 call	 DWORD PTR __imp_?GetAt@?$CSimpleStringT@D$00@ATL@@QBEDH@Z
  0046d	3c 7c		 cmp	 al, 124			; 0000007cH
  0046f	75 42		 jne	 SHORT $LN18@OnAddInToo
; File C:\Program Files (x86)\Microsoft Visual Studio\2019\Community\VC\Tools\MSVC\14.29.30133\atlmfc\include\atlsimpstr.h

; 519  : 		return( GetData()->nDataLength );

  00471	8b 85 64 fa ff
	ff		 mov	 eax, DWORD PTR _strItemCode$[ebp]
; File D:\git\src\IBK\IBK_DRFN\ProjSrc\SrcChartEx\ChartAddIn\ChartDataListViewerAddIn\ChartDataListViewerAddIn\ChartDataSimulatorAddInImp.cpp

; 259  : 		if( strItemCode.GetAt( 0) == '|' && strItemCode.GetLength() >= 4 )

  00477	83 78 f4 04	 cmp	 DWORD PTR [eax-12], 4
  0047b	7c 36		 jl	 SHORT $LN18@OnAddInToo

; 260  : 			strItemCode = strItemCode.Mid( 3);

  0047d	6a 03		 push	 3
  0047f	8d 85 6c fa ff
	ff		 lea	 eax, DWORD PTR $T9[ebp]
  00485	50		 push	 eax
  00486	8d 8d 64 fa ff
	ff		 lea	 ecx, DWORD PTR _strItemCode$[ebp]
  0048c	ff 15 00 00 00
	00		 call	 DWORD PTR __imp_?Mid@?$CStringT@DV?$StrTraitMFC_DLL@DV?$ChTraitsCRT@D@ATL@@@@@ATL@@QBE?AV12@H@Z
  00492	50		 push	 eax
  00493	8d 8d 64 fa ff
	ff		 lea	 ecx, DWORD PTR _strItemCode$[ebp]
  00499	c6 45 fc 1f	 mov	 BYTE PTR __$EHRec$[ebp+8], 31 ; 0000001fH
  0049d	ff 15 00 00 00
	00		 call	 DWORD PTR __imp_??4?$CStringT@DV?$StrTraitMFC_DLL@DV?$ChTraitsCRT@D@ATL@@@@@ATL@@QAEAAV01@ABV01@@Z
  004a3	8d 8d 6c fa ff
	ff		 lea	 ecx, DWORD PTR $T9[ebp]
  004a9	c6 45 fc 1d	 mov	 BYTE PTR __$EHRec$[ebp+8], 29 ; 0000001dH
  004ad	ff 15 00 00 00
	00		 call	 DWORD PTR __imp_??1?$CStringT@DV?$StrTraitMFC_DLL@DV?$ChTraitsCRT@D@ATL@@@@@ATL@@QAE@XZ
$LN18@OnAddInToo:

; 261  : 	}
; 262  : 	if(lpcszName && strlen(lpcszName) > 0)

  004b3	8b 95 fc f9 ff
	ff		 mov	 edx, DWORD PTR _lpcszName$[ebp]
  004b9	85 d2		 test	 edx, edx
  004bb	74 4d		 je	 SHORT $LN19@OnAddInToo
  004bd	8b ca		 mov	 ecx, edx
  004bf	8d 79 01	 lea	 edi, DWORD PTR [ecx+1]
$LL286@OnAddInToo:
  004c2	8a 01		 mov	 al, BYTE PTR [ecx]
  004c4	41		 inc	 ecx
  004c5	84 c0		 test	 al, al
  004c7	75 f9		 jne	 SHORT $LL286@OnAddInToo
  004c9	2b cf		 sub	 ecx, edi
  004cb	74 3d		 je	 SHORT $LN19@OnAddInToo

; 263  : 		strItemName = CString(lpcszName, strlen(lpcszName));

  004cd	8b ca		 mov	 ecx, edx
  004cf	8d 79 01	 lea	 edi, DWORD PTR [ecx+1]
$LL287@OnAddInToo:
  004d2	8a 01		 mov	 al, BYTE PTR [ecx]
  004d4	41		 inc	 ecx
  004d5	84 c0		 test	 al, al
  004d7	75 f9		 jne	 SHORT $LL287@OnAddInToo
  004d9	2b cf		 sub	 ecx, edi
  004db	51		 push	 ecx
  004dc	52		 push	 edx
  004dd	8d 8d 6c fa ff
	ff		 lea	 ecx, DWORD PTR $T8[ebp]
  004e3	ff 15 00 00 00
	00		 call	 DWORD PTR __imp_??0?$CStringT@DV?$StrTraitMFC_DLL@DV?$ChTraitsCRT@D@ATL@@@@@ATL@@QAE@PBDH@Z
  004e9	50		 push	 eax
  004ea	8d 8d 2c fa ff
	ff		 lea	 ecx, DWORD PTR _strItemName$[ebp]
  004f0	c6 45 fc 20	 mov	 BYTE PTR __$EHRec$[ebp+8], 32 ; 00000020H
  004f4	ff 15 00 00 00
	00		 call	 DWORD PTR __imp_??4?$CStringT@DV?$StrTraitMFC_DLL@DV?$ChTraitsCRT@D@ATL@@@@@ATL@@QAEAAV01@ABV01@@Z
  004fa	8d 8d 6c fa ff
	ff		 lea	 ecx, DWORD PTR $T8[ebp]
  00500	c6 45 fc 1d	 mov	 BYTE PTR __$EHRec$[ebp+8], 29 ; 0000001dH
  00504	ff 15 00 00 00
	00		 call	 DWORD PTR __imp_??1?$CStringT@DV?$StrTraitMFC_DLL@DV?$ChTraitsCRT@D@ATL@@@@@ATL@@QAE@XZ
$LN19@OnAddInToo:

; 264  : 
; 265  : 	////////////////////////////////////////////////////////////////////////////////////////////
; 266  : 	//    (,,,,-)
; 267  : 	pCurPacketManager->GetHelpMessageItem( "UD", szHelpMsg);	strDataType = szHelpMsg;

  0050a	8b bd 68 fa ff
	ff		 mov	 edi, DWORD PTR _pCurPacketManager$1$[ebp]
  00510	8d 8d 3c fa ff
	ff		 lea	 ecx, DWORD PTR _szHelpMsg$[ebp]
  00516	51		 push	 ecx
  00517	68 00 00 00 00	 push	 OFFSET ??_C@_02PONMEALH@UD@
  0051c	8b cf		 mov	 ecx, edi
  0051e	8b 07		 mov	 eax, DWORD PTR [edi]
  00520	ff 50 2c	 call	 DWORD PTR [eax+44]
  00523	ff b5 3c fa ff
	ff		 push	 DWORD PTR _szHelpMsg$[ebp]
  00529	8d 8d 28 fa ff
	ff		 lea	 ecx, DWORD PTR _strDataType$[ebp]
  0052f	ff 15 00 00 00
	00		 call	 DWORD PTR __imp_??4?$CStringT@DV?$StrTraitMFC_DLL@DV?$ChTraitsCRT@D@ATL@@@@@ATL@@QAEAAV01@PBD@Z

; 268  : 	pCurPacketManager->GetHelpMessageItem( "UT", szHelpMsg);	strDataInterval=szHelpMsg;	if(strDataInterval.IsEmpty()) strDataInterval = "1";

  00535	8b 07		 mov	 eax, DWORD PTR [edi]
  00537	8d 8d 3c fa ff
	ff		 lea	 ecx, DWORD PTR _szHelpMsg$[ebp]
  0053d	51		 push	 ecx
  0053e	68 00 00 00 00	 push	 OFFSET ??_C@_02LEBOFCOG@UT@
  00543	8b cf		 mov	 ecx, edi
  00545	ff 50 2c	 call	 DWORD PTR [eax+44]
  00548	ff b5 3c fa ff
	ff		 push	 DWORD PTR _szHelpMsg$[ebp]
  0054e	8d 8d 54 fa ff
	ff		 lea	 ecx, DWORD PTR _strDataInterval$[ebp]
  00554	ff 15 00 00 00
	00		 call	 DWORD PTR __imp_??4?$CStringT@DV?$StrTraitMFC_DLL@DV?$ChTraitsCRT@D@ATL@@@@@ATL@@QAEAAV01@PBD@Z
; File C:\Program Files (x86)\Microsoft Visual Studio\2019\Community\VC\Tools\MSVC\14.29.30133\atlmfc\include\atlsimpstr.h

; 519  : 		return( GetData()->nDataLength );

  0055a	8b 85 54 fa ff
	ff		 mov	 eax, DWORD PTR _strDataInterval$[ebp]

; 533  : 		return( GetLength() == 0 );

  00560	83 78 f4 00	 cmp	 DWORD PTR [eax-12], 0
; File D:\git\src\IBK\IBK_DRFN\ProjSrc\SrcChartEx\ChartAddIn\ChartDataListViewerAddIn\ChartDataListViewerAddIn\ChartDataSimulatorAddInImp.cpp

; 268  : 	pCurPacketManager->GetHelpMessageItem( "UT", szHelpMsg);	strDataInterval=szHelpMsg;	if(strDataInterval.IsEmpty()) strDataInterval = "1";

  00564	75 11		 jne	 SHORT $LN20@OnAddInToo
  00566	68 00 00 00 00	 push	 OFFSET ??_C@_01HIHLOKLC@1@
  0056b	8d 8d 54 fa ff
	ff		 lea	 ecx, DWORD PTR _strDataInterval$[ebp]
  00571	ff 15 00 00 00
	00		 call	 DWORD PTR __imp_??4?$CStringT@DV?$StrTraitMFC_DLL@DV?$ChTraitsCRT@D@ATL@@@@@ATL@@QAEAAV01@PBD@Z
$LN20@OnAddInToo:

; 269  : 	pCurPacketManager->Release();

  00577	8b 07		 mov	 eax, DWORD PTR [edi]
  00579	57		 push	 edi
  0057a	ff 50 08	 call	 DWORD PTR [eax+8]

; 270  : 
; 271  : 	int nDataType = atoi(strDataType) - 1;	

  0057d	ff b5 28 fa ff
	ff		 push	 DWORD PTR _strDataType$[ebp]
  00583	8b 3d 00 00 00
	00		 mov	 edi, DWORD PTR __imp__atoi
  00589	ff d7		 call	 edi

; 272  : 	int nDataInterval = atoi(strDataInterval);	

  0058b	ff b5 54 fa ff
	ff		 push	 DWORD PTR _strDataInterval$[ebp]
  00591	48		 dec	 eax
  00592	89 85 24 fa ff
	ff		 mov	 DWORD PTR _nDataType$1$[ebp], eax
  00598	ff d7		 call	 edi
  0059a	83 c4 08	 add	 esp, 8
  0059d	89 85 58 fa ff
	ff		 mov	 DWORD PTR _nDataInterval$1$[ebp], eax

; 273  : 	
; 274  : 
; 275  : 	//////////////////////////////////////////////////////////////////////////
; 276  : 	//   	
; 277  : 	POSITION	pos;
; 278  : 	CString		strDateTime;

  005a3	8d 8d 30 fa ff
	ff		 lea	 ecx, DWORD PTR _strDateTime$[ebp]
  005a9	ff 15 00 00 00
	00		 call	 DWORD PTR __imp_??0?$CStringT@DV?$StrTraitMFC_DLL@DV?$ChTraitsCRT@D@ATL@@@@@ATL@@QAE@XZ

; 279  : 	IHelpMessageMap * pHelpMsgMap = pCurPacketManager->GetHelpMessageMap();

  005af	8b 85 68 fa ff
	ff		 mov	 eax, DWORD PTR _pCurPacketManager$1$[ebp]
  005b5	8b c8		 mov	 ecx, eax
  005b7	c6 45 fc 21	 mov	 BYTE PTR __$EHRec$[ebp+8], 33 ; 00000021H
  005bb	8b 10		 mov	 edx, DWORD PTR [eax]
  005bd	ff 52 30	 call	 DWORD PTR [edx+48]
  005c0	8b f8		 mov	 edi, eax

; 280  : 	if(pHelpMsgMap)

  005c2	85 ff		 test	 edi, edi
  005c4	0f 84 e5 01 00
	00		 je	 $LN21@OnAddInToo

; 281  : 	{		
; 282  : 		pos = pHelpMsgMap->GetStartPosition();

  005ca	8b 17		 mov	 edx, DWORD PTR [edi]
  005cc	8b cf		 mov	 ecx, edi
  005ce	ff 52 20	 call	 DWORD PTR [edx+32]
  005d1	89 85 f8 f9 ff
	ff		 mov	 DWORD PTR _pos$[ebp], eax

; 283  : 		while(pos)

  005d7	85 c0		 test	 eax, eax
  005d9	0f 84 b7 01 00
	00		 je	 $LN6@OnAddInToo
  005df	8b b5 5c fa ff
	ff		 mov	 esi, DWORD PTR $T4[ebp]
$LL5@OnAddInToo:

; 284  : 		{
; 285  : 			pHelpMsgMap->GetNextAssoc(pos, IKey, IValue);

  005e5	8b 07		 mov	 eax, DWORD PTR [edi]
  005e7	8d 8d 08 fa ff
	ff		 lea	 ecx, DWORD PTR _IValue$[ebp]
  005ed	51		 push	 ecx
  005ee	8d 8d 00 fa ff
	ff		 lea	 ecx, DWORD PTR _IKey$[ebp]
  005f4	51		 push	 ecx
  005f5	8d 8d f8 f9 ff
	ff		 lea	 ecx, DWORD PTR _pos$[ebp]
  005fb	51		 push	 ecx
  005fc	8b cf		 mov	 ecx, edi
  005fe	ff 50 24	 call	 DWORD PTR [eax+36]

; 286  : 			strKey = IKey;	strValue=IValue;

  00601	ff b5 00 fa ff
	ff		 push	 DWORD PTR _IKey$[ebp]
  00607	8d 8d 60 fa ff
	ff		 lea	 ecx, DWORD PTR _strKey$[ebp]
  0060d	ff 15 00 00 00
	00		 call	 DWORD PTR __imp_??4?$CStringT@DV?$StrTraitMFC_DLL@DV?$ChTraitsCRT@D@ATL@@@@@ATL@@QAEAAV01@PBD@Z
  00613	ff b5 08 fa ff
	ff		 push	 DWORD PTR _IValue$[ebp]
  00619	8d 8d 48 fa ff
	ff		 lea	 ecx, DWORD PTR _strValue$[ebp]
  0061f	ff 15 00 00 00
	00		 call	 DWORD PTR __imp_??4?$CStringT@DV?$StrTraitMFC_DLL@DV?$ChTraitsCRT@D@ATL@@@@@ATL@@QAEAAV01@PBD@Z
; File C:\Program Files (x86)\Microsoft Visual Studio\2019\Community\VC\Tools\MSVC\14.29.30133\atlmfc\include\cstringt.h

; 2567 : 		return( str1.Compare( psz2 ) != 0 );

  00625	68 00 00 00 00	 push	 OFFSET ??_C@_02CPBOPLPO@UM@
  0062a	8d 8d 60 fa ff
	ff		 lea	 ecx, DWORD PTR _strKey$[ebp]
  00630	ff 15 00 00 00
	00		 call	 DWORD PTR __imp_?Compare@?$CStringT@DV?$StrTraitMFC_DLL@DV?$ChTraitsCRT@D@ATL@@@@@ATL@@QBEHPBD@Z
  00636	85 c0		 test	 eax, eax
; File D:\git\src\IBK\IBK_DRFN\ProjSrc\SrcChartEx\ChartAddIn\ChartDataListViewerAddIn\ChartDataListViewerAddIn\ChartDataSimulatorAddInImp.cpp

; 288  : 			if( strKey != "UM") strHelpMsg.Insert(0, strKey + "=" + strValue + "@");

  00638	0f 84 1d 01 00
	00		 je	 $LN22@OnAddInToo
; File C:\Program Files (x86)\Microsoft Visual Studio\2019\Community\VC\Tools\MSVC\14.29.30133\atlmfc\include\cstringt.h

; 2401 : 		CStringT strResult( str1.GetManager() );

  0063e	8d 8d 60 fa ff
	ff		 lea	 ecx, DWORD PTR _strKey$[ebp]
; File D:\git\src\IBK\IBK_DRFN\ProjSrc\SrcChartEx\ChartAddIn\ChartDataListViewerAddIn\ChartDataListViewerAddIn\ChartDataSimulatorAddInImp.cpp

; 288  : 			if( strKey != "UM") strHelpMsg.Insert(0, strKey + "=" + strValue + "@");

  00644	c6 45 fc 22	 mov	 BYTE PTR __$EHRec$[ebp+8], 34 ; 00000022H
; File C:\Program Files (x86)\Microsoft Visual Studio\2019\Community\VC\Tools\MSVC\14.29.30133\atlmfc\include\cstringt.h

; 2401 : 		CStringT strResult( str1.GetManager() );

  00648	ff 15 00 00 00
	00		 call	 DWORD PTR __imp_?GetManager@?$CStringT@DV?$StrTraitMFC_DLL@DV?$ChTraitsCRT@D@ATL@@@@@ATL@@QBEPAUIAtlStringMgr@2@XZ
  0064e	50		 push	 eax
  0064f	8d 8d 5c fa ff
	ff		 lea	 ecx, DWORD PTR $T5[ebp]
  00655	ff 15 00 00 00
	00		 call	 DWORD PTR __imp_??0?$CStringT@DV?$StrTraitMFC_DLL@DV?$ChTraitsCRT@D@ATL@@@@@ATL@@QAE@PAUIAtlStringMgr@1@@Z
; File C:\Program Files (x86)\Microsoft Visual Studio\2019\Community\VC\Tools\MSVC\14.29.30133\atlmfc\include\atlsimpstr.h

; 519  : 		return( GetData()->nDataLength );

  0065b	8b 85 60 fa ff
	ff		 mov	 eax, DWORD PTR _strKey$[ebp]
; File C:\Program Files (x86)\Microsoft Visual Studio\2019\Community\VC\Tools\MSVC\14.29.30133\atlmfc\include\cstringt.h

; 2405 : 		return( strResult );

  00661	83 ce 01	 or	 esi, 1
  00664	6a 01		 push	 1
  00666	68 00 00 00 00	 push	 OFFSET ??_C@_01NEMOKFLO@?$DN@
  0066b	89 b5 38 fa ff
	ff		 mov	 DWORD PTR $T2[ebp], esi
  00671	ff 70 f4	 push	 DWORD PTR [eax-12]
  00674	50		 push	 eax
  00675	8d 85 5c fa ff
	ff		 lea	 eax, DWORD PTR $T5[ebp]
  0067b	50		 push	 eax
  0067c	ff 15 00 00 00
	00		 call	 DWORD PTR __imp_?Concatenate@?$CSimpleStringT@D$00@ATL@@KAXAAV12@PBDH1H@Z
  00682	83 c4 14	 add	 esp, 20			; 00000014H

; 2390 : 		CStringT strResult( str1.GetManager() );

  00685	8d 8d 5c fa ff
	ff		 lea	 ecx, DWORD PTR $T5[ebp]
; File D:\git\src\IBK\IBK_DRFN\ProjSrc\SrcChartEx\ChartAddIn\ChartDataListViewerAddIn\ChartDataListViewerAddIn\ChartDataSimulatorAddInImp.cpp

; 288  : 			if( strKey != "UM") strHelpMsg.Insert(0, strKey + "=" + strValue + "@");

  0068b	c6 45 fc 23	 mov	 BYTE PTR __$EHRec$[ebp+8], 35 ; 00000023H
; File C:\Program Files (x86)\Microsoft Visual Studio\2019\Community\VC\Tools\MSVC\14.29.30133\atlmfc\include\cstringt.h

; 2390 : 		CStringT strResult( str1.GetManager() );

  0068f	ff 15 00 00 00
	00		 call	 DWORD PTR __imp_?GetManager@?$CStringT@DV?$StrTraitMFC_DLL@DV?$ChTraitsCRT@D@ATL@@@@@ATL@@QBEPAUIAtlStringMgr@2@XZ
  00695	50		 push	 eax
  00696	8d 8d 50 fa ff
	ff		 lea	 ecx, DWORD PTR $T3[ebp]
  0069c	ff 15 00 00 00
	00		 call	 DWORD PTR __imp_??0?$CStringT@DV?$StrTraitMFC_DLL@DV?$ChTraitsCRT@D@ATL@@@@@ATL@@QAE@PAUIAtlStringMgr@1@@Z
; File C:\Program Files (x86)\Microsoft Visual Studio\2019\Community\VC\Tools\MSVC\14.29.30133\atlmfc\include\atlsimpstr.h

; 519  : 		return( GetData()->nDataLength );

  006a2	8b 85 48 fa ff
	ff		 mov	 eax, DWORD PTR _strValue$[ebp]
; File C:\Program Files (x86)\Microsoft Visual Studio\2019\Community\VC\Tools\MSVC\14.29.30133\atlmfc\include\cstringt.h

; 2394 : 		return( strResult );

  006a8	83 ce 02	 or	 esi, 2
; File C:\Program Files (x86)\Microsoft Visual Studio\2019\Community\VC\Tools\MSVC\14.29.30133\atlmfc\include\atlsimpstr.h

; 519  : 		return( GetData()->nDataLength );

  006ab	8b 8d 5c fa ff
	ff		 mov	 ecx, DWORD PTR $T5[ebp]
; File C:\Program Files (x86)\Microsoft Visual Studio\2019\Community\VC\Tools\MSVC\14.29.30133\atlmfc\include\cstringt.h

; 2394 : 		return( strResult );

  006b1	89 b5 38 fa ff
	ff		 mov	 DWORD PTR $T2[ebp], esi
  006b7	ff 70 f4	 push	 DWORD PTR [eax-12]
  006ba	50		 push	 eax
  006bb	ff 71 f4	 push	 DWORD PTR [ecx-12]
  006be	8d 85 50 fa ff
	ff		 lea	 eax, DWORD PTR $T3[ebp]
  006c4	51		 push	 ecx
  006c5	50		 push	 eax
  006c6	ff 15 00 00 00
	00		 call	 DWORD PTR __imp_?Concatenate@?$CSimpleStringT@D$00@ATL@@KAXAAV12@PBDH1H@Z
  006cc	83 c4 14	 add	 esp, 20			; 00000014H

; 2401 : 		CStringT strResult( str1.GetManager() );

  006cf	8d 8d 50 fa ff
	ff		 lea	 ecx, DWORD PTR $T3[ebp]
; File D:\git\src\IBK\IBK_DRFN\ProjSrc\SrcChartEx\ChartAddIn\ChartDataListViewerAddIn\ChartDataListViewerAddIn\ChartDataSimulatorAddInImp.cpp

; 288  : 			if( strKey != "UM") strHelpMsg.Insert(0, strKey + "=" + strValue + "@");

  006d5	c6 45 fc 24	 mov	 BYTE PTR __$EHRec$[ebp+8], 36 ; 00000024H
; File C:\Program Files (x86)\Microsoft Visual Studio\2019\Community\VC\Tools\MSVC\14.29.30133\atlmfc\include\cstringt.h

; 2401 : 		CStringT strResult( str1.GetManager() );

  006d9	ff 15 00 00 00
	00		 call	 DWORD PTR __imp_?GetManager@?$CStringT@DV?$StrTraitMFC_DLL@DV?$ChTraitsCRT@D@ATL@@@@@ATL@@QBEPAUIAtlStringMgr@2@XZ
  006df	50		 push	 eax
  006e0	8d 8d 6c fa ff
	ff		 lea	 ecx, DWORD PTR $T7[ebp]
  006e6	ff 15 00 00 00
	00		 call	 DWORD PTR __imp_??0?$CStringT@DV?$StrTraitMFC_DLL@DV?$ChTraitsCRT@D@ATL@@@@@ATL@@QAE@PAUIAtlStringMgr@1@@Z
; File C:\Program Files (x86)\Microsoft Visual Studio\2019\Community\VC\Tools\MSVC\14.29.30133\atlmfc\include\atlsimpstr.h

; 519  : 		return( GetData()->nDataLength );

  006ec	8b 85 50 fa ff
	ff		 mov	 eax, DWORD PTR $T3[ebp]
; File C:\Program Files (x86)\Microsoft Visual Studio\2019\Community\VC\Tools\MSVC\14.29.30133\atlmfc\include\cstringt.h

; 2405 : 		return( strResult );

  006f2	83 ce 04	 or	 esi, 4
  006f5	6a 01		 push	 1
  006f7	68 00 00 00 00	 push	 OFFSET ??_C@_01EOFPKCAF@?$EA@
  006fc	89 b5 38 fa ff
	ff		 mov	 DWORD PTR $T2[ebp], esi
  00702	ff 70 f4	 push	 DWORD PTR [eax-12]
  00705	50		 push	 eax
  00706	8d 85 6c fa ff
	ff		 lea	 eax, DWORD PTR $T7[ebp]
  0070c	50		 push	 eax
  0070d	ff 15 00 00 00
	00		 call	 DWORD PTR __imp_?Concatenate@?$CSimpleStringT@D$00@ATL@@KAXAAV12@PBDH1H@Z
  00713	83 c4 14	 add	 esp, 20			; 00000014H
; File D:\git\src\IBK\IBK_DRFN\ProjSrc\SrcChartEx\ChartAddIn\ChartDataListViewerAddIn\ChartDataListViewerAddIn\ChartDataSimulatorAddInImp.cpp

; 288  : 			if( strKey != "UM") strHelpMsg.Insert(0, strKey + "=" + strValue + "@");

  00716	8d 8d 4c fa ff
	ff		 lea	 ecx, DWORD PTR _strHelpMsg$[ebp]
  0071c	ff b5 6c fa ff
	ff		 push	 DWORD PTR $T7[ebp]
  00722	6a 00		 push	 0
  00724	ff 15 00 00 00
	00		 call	 DWORD PTR __imp_?Insert@?$CStringT@DV?$StrTraitMFC_DLL@DV?$ChTraitsCRT@D@ATL@@@@@ATL@@QAEHHPBD@Z
  0072a	8d 8d 6c fa ff
	ff		 lea	 ecx, DWORD PTR $T7[ebp]
  00730	83 e6 fb	 and	 esi, -5			; fffffffbH
  00733	ff 15 00 00 00
	00		 call	 DWORD PTR __imp_??1?$CStringT@DV?$StrTraitMFC_DLL@DV?$ChTraitsCRT@D@ATL@@@@@ATL@@QAE@XZ
  00739	8d 8d 50 fa ff
	ff		 lea	 ecx, DWORD PTR $T3[ebp]
  0073f	83 e6 fd	 and	 esi, -3			; fffffffdH
  00742	ff 15 00 00 00
	00		 call	 DWORD PTR __imp_??1?$CStringT@DV?$StrTraitMFC_DLL@DV?$ChTraitsCRT@D@ATL@@@@@ATL@@QAE@XZ
  00748	8d 8d 5c fa ff
	ff		 lea	 ecx, DWORD PTR $T5[ebp]
  0074e	c6 45 fc 21	 mov	 BYTE PTR __$EHRec$[ebp+8], 33 ; 00000021H
  00752	83 e6 fe	 and	 esi, -2			; fffffffeH
  00755	ff 15 00 00 00
	00		 call	 DWORD PTR __imp_??1?$CStringT@DV?$StrTraitMFC_DLL@DV?$ChTraitsCRT@D@ATL@@@@@ATL@@QAE@XZ
$LN22@OnAddInToo:
; File C:\Program Files (x86)\Microsoft Visual Studio\2019\Community\VC\Tools\MSVC\14.29.30133\atlmfc\include\cstringt.h

; 2486 : 		return(str1.Compare(psz2) == 0);

  0075b	68 00 00 00 00	 push	 OFFSET ??_C@_06MLGKKOBC@RDATET@
  00760	8d 8d 60 fa ff
	ff		 lea	 ecx, DWORD PTR _strKey$[ebp]
  00766	ff 15 00 00 00
	00		 call	 DWORD PTR __imp_?Compare@?$CStringT@DV?$StrTraitMFC_DLL@DV?$ChTraitsCRT@D@ATL@@@@@ATL@@QBEHPBD@Z
  0076c	85 c0		 test	 eax, eax
; File D:\git\src\IBK\IBK_DRFN\ProjSrc\SrcChartEx\ChartAddIn\ChartDataListViewerAddIn\ChartDataListViewerAddIn\ChartDataSimulatorAddInImp.cpp

; 289  : 			if( strKey == "RDATET") strDateTime = strValue;

  0076e	75 13		 jne	 SHORT $LN23@OnAddInToo
  00770	8d 85 48 fa ff
	ff		 lea	 eax, DWORD PTR _strValue$[ebp]
  00776	50		 push	 eax
  00777	8d 8d 30 fa ff
	ff		 lea	 ecx, DWORD PTR _strDateTime$[ebp]
  0077d	ff 15 00 00 00
	00		 call	 DWORD PTR __imp_??4?$CStringT@DV?$StrTraitMFC_DLL@DV?$ChTraitsCRT@D@ATL@@@@@ATL@@QAEAAV01@ABV01@@Z
$LN23@OnAddInToo:

; 283  : 		while(pos)

  00783	83 bd f8 f9 ff
	ff 00		 cmp	 DWORD PTR _pos$[ebp], 0
  0078a	0f 85 55 fe ff
	ff		 jne	 $LL5@OnAddInToo
  00790	8b b5 14 fa ff
	ff		 mov	 esi, DWORD PTR ___mlrs__$1$[ebp]
$LN6@OnAddInToo:

; 290  : 		}
; 291  : 		// (2008/11/3 - Seung-Won, Bae) Set UM first.
; 292  : 		strHelpMsg.Insert( 0, "UM=E@");

  00796	68 00 00 00 00	 push	 OFFSET ??_C@_05DGHEHLLC@UM?$DNE?$EA@
  0079b	6a 00		 push	 0
  0079d	8d 8d 4c fa ff
	ff		 lea	 ecx, DWORD PTR _strHelpMsg$[ebp]
  007a3	ff 15 00 00 00
	00		 call	 DWORD PTR __imp_?Insert@?$CStringT@DV?$StrTraitMFC_DLL@DV?$ChTraitsCRT@D@ATL@@@@@ATL@@QAEHHPBD@Z

; 293  : 
; 294  : 		pHelpMsgMap->Release();

  007a9	8b 07		 mov	 eax, DWORD PTR [edi]
  007ab	57		 push	 edi
  007ac	ff 50 08	 call	 DWORD PTR [eax+8]
$LN21@OnAddInToo:

; 295  : 	}
; 296  : 
; 297  : 	//////////////////////////////////////////////////////////////////////////
; 298  : 	// user file path
; 299  : 	ILPCSTR IUserFilePath = m_pIChartOCX->GetUserFilePathString();

  007af	8b 4b 04	 mov	 ecx, DWORD PTR [ebx+4]
  007b2	8b 01		 mov	 eax, DWORD PTR [ecx]
  007b4	ff 50 64	 call	 DWORD PTR [eax+100]
; File D:\git\src\IBK\IBK_DRFN\ProjSrc\SrcChartEx\ChartAddIn\ChartDataListViewerAddIn\Include_Addin_134221\I134221\_IString.h

; 39   : 		m_pIStrData = p_pIString;	// Do not AddRef(). Because It must be Return Value.

  007b7	8b f8		 mov	 edi, eax
  007b9	89 bd 14 fa ff
	ff		 mov	 DWORD PTR _IUserFilePath$[ebp+4], edi

; 40   : 		if( m_pIStrData) m_szData = m_pIStrData->GetData();

  007bf	85 ff		 test	 edi, edi
  007c1	74 0f		 je	 SHORT $LN219@OnAddInToo
  007c3	8b 17		 mov	 edx, DWORD PTR [edi]
  007c5	8b cf		 mov	 ecx, edi
  007c7	ff 52 10	 call	 DWORD PTR [edx+16]
  007ca	89 85 10 fa ff
	ff		 mov	 DWORD PTR _IUserFilePath$[ebp], eax
  007d0	eb 0a		 jmp	 SHORT $LN220@OnAddInToo
$LN219@OnAddInToo:

; 41   : 		else m_szData = NULL;

  007d2	c7 85 10 fa ff
	ff 00 00 00 00	 mov	 DWORD PTR _IUserFilePath$[ebp], 0
$LN220@OnAddInToo:
; File D:\git\src\IBK\IBK_DRFN\ProjSrc\SrcChartEx\ChartAddIn\ChartDataListViewerAddIn\ChartDataListViewerAddIn\ChartDataSimulatorAddInImp.cpp

; 303  : 	CDlgDataSimulator dlg( m_eChartMode);

  007dc	6a 00		 push	 0
  007de	ff 73 10	 push	 DWORD PTR [ebx+16]
  007e1	8d 8d 70 fa ff
	ff		 lea	 ecx, DWORD PTR _dlg$[ebp]
  007e7	c6 45 fc 25	 mov	 BYTE PTR __$EHRec$[ebp+8], 37 ; 00000025H
  007eb	e8 00 00 00 00	 call	 ??0CDlgDataSimulator@@QAE@W4CHART_MODE@CChartInfo@@PAVCWnd@@@Z ; CDlgDataSimulator::CDlgDataSimulator

; 304  : 	dlg.m_hOcxWnd						= m_hOcxWnd;

  007f0	8b 43 0c	 mov	 eax, DWORD PTR [ebx+12]

; 305  : 	dlg.m_strUserFilePath				= IUserFilePath;

  007f3	8d 4d c8	 lea	 ecx, DWORD PTR _dlg$[ebp+1368]
  007f6	ff b5 10 fa ff
	ff		 push	 DWORD PTR _IUserFilePath$[ebp]
  007fc	c6 45 fc 26	 mov	 BYTE PTR __$EHRec$[ebp+8], 38 ; 00000026H
  00800	89 85 1c fb ff
	ff		 mov	 DWORD PTR _dlg$[ebp+172], eax
  00806	ff 15 00 00 00
	00		 call	 DWORD PTR __imp_??4?$CStringT@DV?$StrTraitMFC_DLL@DV?$ChTraitsCRT@D@ATL@@@@@ATL@@QAEAAV01@PBD@Z

; 306  : 	ChartDataGridManager.m_nDataType	= nDataType;

  0080c	8b 85 24 fa ff
	ff		 mov	 eax, DWORD PTR _nDataType$1$[ebp]

; 307  : 	ChartDataGridManager.m_nDataInterval= nDataInterval;
; 308  : 	ChartDataGridManager.m_strDateTime	= strDateTime;

  00812	8d 8d a8 f9 ff
	ff		 lea	 ecx, DWORD PTR _ChartDataGridManager$[ebp+8]
  00818	89 85 ac f9 ff
	ff		 mov	 DWORD PTR _ChartDataGridManager$[ebp+12], eax
  0081e	8b 85 58 fa ff
	ff		 mov	 eax, DWORD PTR _nDataInterval$1$[ebp]
  00824	89 85 b0 f9 ff
	ff		 mov	 DWORD PTR _ChartDataGridManager$[ebp+16], eax
  0082a	8d 85 30 fa ff
	ff		 lea	 eax, DWORD PTR _strDateTime$[ebp]
  00830	50		 push	 eax
  00831	ff 15 00 00 00
	00		 call	 DWORD PTR __imp_??4?$CStringT@DV?$StrTraitMFC_DLL@DV?$ChTraitsCRT@D@ATL@@@@@ATL@@QAEAAV01@ABV01@@Z

; 309  : 	ChartDataGridManager.m_strItemCode	= strItemCode;

  00837	8d 85 64 fa ff
	ff		 lea	 eax, DWORD PTR _strItemCode$[ebp]
  0083d	50		 push	 eax
  0083e	8d 8d a0 f9 ff
	ff		 lea	 ecx, DWORD PTR _ChartDataGridManager$[ebp]
  00844	ff 15 00 00 00
	00		 call	 DWORD PTR __imp_??4?$CStringT@DV?$StrTraitMFC_DLL@DV?$ChTraitsCRT@D@ATL@@@@@ATL@@QAEAAV01@ABV01@@Z

; 310  : 	ChartDataGridManager.m_strItemName	= strItemName;	

  0084a	8d 85 2c fa ff
	ff		 lea	 eax, DWORD PTR _strItemName$[ebp]
  00850	50		 push	 eax
  00851	8d 8d a4 f9 ff
	ff		 lea	 ecx, DWORD PTR _ChartDataGridManager$[ebp+4]
  00857	ff 15 00 00 00
	00		 call	 DWORD PTR __imp_??4?$CStringT@DV?$StrTraitMFC_DLL@DV?$ChTraitsCRT@D@ATL@@@@@ATL@@QAEAAV01@ABV01@@Z

; 311  : 	ChartDataGridManager.m_strHelpMessage= strHelpMsg;

  0085d	8d 85 4c fa ff
	ff		 lea	 eax, DWORD PTR _strHelpMsg$[ebp]
  00863	50		 push	 eax
  00864	8d 8d b4 f9 ff
	ff		 lea	 ecx, DWORD PTR _ChartDataGridManager$[ebp+20]
  0086a	ff 15 00 00 00
	00		 call	 DWORD PTR __imp_??4?$CStringT@DV?$StrTraitMFC_DLL@DV?$ChTraitsCRT@D@ATL@@@@@ATL@@QAEAAV01@ABV01@@Z

; 312  : 	dlg.m_pChartDataGridManager			= &ChartDataGridManager;

  00870	8d 85 a0 f9 ff
	ff		 lea	 eax, DWORD PTR _ChartDataGridManager$[ebp]

; 313  : 	if(dlg.DoModal() == IDOK)

  00876	8d 8d 70 fa ff
	ff		 lea	 ecx, DWORD PTR _dlg$[ebp]
  0087c	89 45 a8	 mov	 DWORD PTR _dlg$[ebp+1336], eax
  0087f	e8 00 00 00 00	 call	 ?DoModal@CDialog@@UAEHXZ ; CDialog::DoModal
  00884	83 f8 01	 cmp	 eax, 1
  00887	0f 85 04 02 00
	00		 jne	 $LN25@OnAddInToo

; 314  : 	{
; 315  : 
; 316  : 		SetDataToChartOCX(pCurPacketManager, &ChartDataGridManager, dlg.m_strLastDateTime);

  0088d	51		 push	 ecx
  0088e	8d 45 d0	 lea	 eax, DWORD PTR _dlg$[ebp+1376]
  00891	8b cc		 mov	 ecx, esp
  00893	50		 push	 eax
  00894	ff 15 00 00 00
	00		 call	 DWORD PTR __imp_??0?$CStringT@DV?$StrTraitMFC_DLL@DV?$ChTraitsCRT@D@ATL@@@@@ATL@@QAE@ABV01@@Z
  0089a	8d 85 a0 f9 ff
	ff		 lea	 eax, DWORD PTR _ChartDataGridManager$[ebp]
  008a0	50		 push	 eax
  008a1	ff b5 68 fa ff
	ff		 push	 DWORD PTR _pCurPacketManager$1$[ebp]
  008a7	8d 4b f8	 lea	 ecx, DWORD PTR [ebx-8]
  008aa	e8 00 00 00 00	 call	 ?SetDataToChartOCX@CChartDataSimulatorAddInImp@@IAEHPAUIPacketManager134221@@PAVCChartDataGridManager@@V?$CStringT@DV?$StrTraitMFC_DLL@DV?$ChTraitsCRT@D@ATL@@@@@ATL@@@Z ; CChartDataSimulatorAddInImp::SetDataToChartOCX

; 317  : 		m_strSimulateRQ			= strRQ;

  008af	8d 85 44 fa ff
	ff		 lea	 eax, DWORD PTR _strRQ$[ebp]
  008b5	50		 push	 eax
  008b6	8d 4b 3c	 lea	 ecx, DWORD PTR [ebx+60]
  008b9	ff 15 00 00 00
	00		 call	 DWORD PTR __imp_??4?$CStringT@DV?$StrTraitMFC_DLL@DV?$ChTraitsCRT@D@ATL@@@@@ATL@@QAEAAV01@ABV01@@Z

; 318  : 		m_dLastSimulateDateTime = atof(dlg.m_strLastDateTime);	

  008bf	ff 75 d0	 push	 DWORD PTR _dlg$[ebp+1376]
  008c2	ff 15 00 00 00
	00		 call	 DWORD PTR __imp__atof

; 319  : 		m_nDataType				= ChartDataGridManager.m_nDataType;
; 320  : 
; 321  : 		// (2008/11/3 - Seung-Won, Bae) Modify Last Simulate DateTime to Original.
; 322  : 		IPacketManager *pIPacketManager = m_pIPacketListManager->GetPacketManager( strRQ);

  008c8	8b 4b 18	 mov	 ecx, DWORD PTR [ebx+24]
  008cb	83 c4 04	 add	 esp, 4
  008ce	8b 85 ac f9 ff
	ff		 mov	 eax, DWORD PTR _ChartDataGridManager$[ebp+12]
  008d4	dd 5b 40	 fstp	 QWORD PTR [ebx+64]
  008d7	89 43 48	 mov	 DWORD PTR [ebx+72], eax
  008da	8b 01		 mov	 eax, DWORD PTR [ecx]
  008dc	ff b5 44 fa ff
	ff		 push	 DWORD PTR _strRQ$[ebp]
  008e2	ff 50 10	 call	 DWORD PTR [eax+16]
  008e5	8b c8		 mov	 ecx, eax
  008e7	89 8d 24 fa ff
	ff		 mov	 DWORD PTR _pIPacketManager$1$[ebp], ecx

; 323  : 		if( pIPacketManager)

  008ed	85 c9		 test	 ecx, ecx
  008ef	0f 84 9c 01 00
	00		 je	 $LN25@OnAddInToo

; 324  : 		{
; 325  : 			int nYear = int( m_dLastSimulateDateTime / 10000000000.);

  008f5	f2 0f 10 63 40	 movsd	 xmm4, QWORD PTR [ebx+64]
  008fa	0f 28 c4	 movaps	 xmm0, xmm4

; 326  : 			int nMonth = int( m_dLastSimulateDateTime / 100000000. - nYear * 100) ;
; 327  : 			int nDay = int( m_dLastSimulateDateTime / 1000000. - nYear * 10000. - nMonth * 100.) ;

  008fd	f2 0f 10 2d 00
	00 00 00	 movsd	 xmm5, QWORD PTR __real@40c3880000000000
  00905	f2 0f 5e 05 00
	00 00 00	 divsd	 xmm0, QWORD PTR __real@4202a05f20000000
  0090d	0f 28 cc	 movaps	 xmm1, xmm4
  00910	f2 0f 5e 0d 00
	00 00 00	 divsd	 xmm1, QWORD PTR __real@4197d78400000000
  00918	f2 0f 2c d0	 cvttsd2si edx, xmm0
  0091c	6b c2 64	 imul	 eax, edx, 100
  0091f	89 95 68 fa ff
	ff		 mov	 DWORD PTR _nYear$1$[ebp], edx
  00925	66 0f 6e da	 movd	 xmm3, edx
  00929	f3 0f e6 db	 cvtdq2pd xmm3, xmm3
  0092d	66 0f 6e c0	 movd	 xmm0, eax
  00931	f3 0f e6 c0	 cvtdq2pd xmm0, xmm0
  00935	f2 0f 5c c8	 subsd	 xmm1, xmm0
  00939	0f 28 c3	 movaps	 xmm0, xmm3
  0093c	f2 0f 59 c5	 mulsd	 xmm0, xmm5

; 328  : 			int nHour = int( m_dLastSimulateDateTime / 10000. - nYear * 1000000. - nMonth * 10000. - nDay * 100.) ;

  00940	f2 0f 59 1d 00
	00 00 00	 mulsd	 xmm3, QWORD PTR __real@412e848000000000
  00948	f2 0f 2c c1	 cvttsd2si eax, xmm1
  0094c	0f 28 cc	 movaps	 xmm1, xmm4
  0094f	f2 0f 5e 0d 00
	00 00 00	 divsd	 xmm1, QWORD PTR __real@412e848000000000
  00957	89 85 6c fa ff
	ff		 mov	 DWORD PTR _nMonth$1$[ebp], eax
  0095d	66 0f 6e d0	 movd	 xmm2, eax
  00961	f2 0f 5c c8	 subsd	 xmm1, xmm0

; 329  : 			m_dLastSimulateDateTime -= ( nYear * 1000000. + nMonth * 10000. + nDay * 100. + nHour) * 10000.;

  00965	8b 85 34 fa ff
	ff		 mov	 eax, DWORD PTR _this$GSCopy$1$[ebp]
  0096b	f3 0f e6 d2	 cvtdq2pd xmm2, xmm2
  0096f	0f 28 c2	 movaps	 xmm0, xmm2
  00972	f2 0f 59 d5	 mulsd	 xmm2, xmm5
  00976	f2 0f 59 05 00
	00 00 00	 mulsd	 xmm0, QWORD PTR __real@4059000000000000
  0097e	f2 0f 5c c8	 subsd	 xmm1, xmm0
  00982	0f 28 c4	 movaps	 xmm0, xmm4
  00985	f2 0f 5e c5	 divsd	 xmm0, xmm5
  00989	f2 0f 2c d9	 cvttsd2si ebx, xmm1
  0098d	f2 0f 5c c3	 subsd	 xmm0, xmm3
  00991	f2 0f 58 da	 addsd	 xmm3, xmm2
  00995	66 0f 6e cb	 movd	 xmm1, ebx
  00999	f3 0f e6 c9	 cvtdq2pd xmm1, xmm1
  0099d	f2 0f 5c c2	 subsd	 xmm0, xmm2
  009a1	f2 0f 59 0d 00
	00 00 00	 mulsd	 xmm1, QWORD PTR __real@4059000000000000
  009a9	f2 0f 5c c1	 subsd	 xmm0, xmm1
  009ad	f2 0f 58 d9	 addsd	 xmm3, xmm1
  009b1	f2 0f 2c f8	 cvttsd2si edi, xmm0
  009b5	66 0f 6e c7	 movd	 xmm0, edi
  009b9	f3 0f e6 c0	 cvtdq2pd xmm0, xmm0
  009bd	f2 0f 58 d8	 addsd	 xmm3, xmm0
  009c1	f2 0f 59 dd	 mulsd	 xmm3, xmm5
  009c5	f2 0f 5c e3	 subsd	 xmm4, xmm3
  009c9	f2 0f 11 60 40	 movsd	 QWORD PTR [eax+64], xmm4

; 330  : 			nHour -= pIPacketManager->GetCalcDataTimeDifference();

  009ce	8b 01		 mov	 eax, DWORD PTR [ecx]
  009d0	ff 50 50	 call	 DWORD PTR [eax+80]

; 331  : 			if( nHour < 0)
; 332  : 			{
; 333  : 				nHour += 24;
; 334  : 				nDay--;
; 335  : 			}
; 336  : 			if( nDay < 1)

  009d3	8b 8d 6c fa ff
	ff		 mov	 ecx, DWORD PTR _nMonth$1$[ebp]
  009d9	8d 53 ff	 lea	 edx, DWORD PTR [ebx-1]
  009dc	2b f8		 sub	 edi, eax
  009de	8d 47 18	 lea	 eax, DWORD PTR [edi+24]
  009e1	0f 49 c7	 cmovns	 eax, edi
  009e4	85 ff		 test	 edi, edi
  009e6	89 85 58 fa ff
	ff		 mov	 DWORD PTR tv1865[ebp], eax
  009ec	0f 49 d3	 cmovns	 edx, ebx
  009ef	83 fa 01	 cmp	 edx, 1
  009f2	0f 8d 01 02 00
	00		 jge	 $LN7@OnAddInToo

; 337  : 			{
; 338  : 				nDay = 31;
; 339  : 				nMonth--;

  009f8	49		 dec	 ecx
  009f9	ba 1f 00 00 00	 mov	 edx, 31			; 0000001fH

; 340  : 				switch( nMonth)

  009fe	8d 41 fe	 lea	 eax, DWORD PTR [ecx-2]
  00a01	83 f8 09	 cmp	 eax, 9
  00a04	0f 87 ef 01 00
	00		 ja	 $LN7@OnAddInToo
  00a0a	0f b6 80 00 00
	00 00		 movzx	 eax, BYTE PTR $LN288@OnAddInToo[eax]
  00a11	ff 24 85 00 00
	00 00		 jmp	 DWORD PTR $LN289@OnAddInToo[eax*4]
$LN28@OnAddInToo:

; 341  : 				{
; 342  : 					case 2:	nDay = 29;

  00a18	ba 1d 00 00 00	 mov	 edx, 29			; 0000001dH
$LN292@OnAddInToo:

; 355  : 			}
; 356  : 			m_dLastSimulateDateTime += ( nYear * 1000000. + nMonth * 10000. + nDay * 100. + nHour) * 10000.;

  00a1d	8b 85 68 fa ff
	ff		 mov	 eax, DWORD PTR _nYear$1$[ebp]
$LN33@OnAddInToo:
  00a23	0f 57 c9	 xorps	 xmm1, xmm1
  00a26	0f 57 c0	 xorps	 xmm0, xmm0
  00a29	f2 0f 2a c0	 cvtsi2sd xmm0, eax
  00a2d	8b 85 34 fa ff
	ff		 mov	 eax, DWORD PTR _this$GSCopy$1$[ebp]
  00a33	f2 0f 2a c9	 cvtsi2sd xmm1, ecx

; 357  : 			pIPacketManager->Release();

  00a37	8b 8d 24 fa ff
	ff		 mov	 ecx, DWORD PTR _pIPacketManager$1$[ebp]
  00a3d	51		 push	 ecx
  00a3e	f2 0f 59 05 00
	00 00 00	 mulsd	 xmm0, QWORD PTR __real@412e848000000000
  00a46	f2 0f 59 0d 00
	00 00 00	 mulsd	 xmm1, QWORD PTR __real@40c3880000000000
  00a4e	f2 0f 58 c8	 addsd	 xmm1, xmm0
  00a52	0f 57 c0	 xorps	 xmm0, xmm0
  00a55	f2 0f 2a c2	 cvtsi2sd xmm0, edx
  00a59	f2 0f 59 05 00
	00 00 00	 mulsd	 xmm0, QWORD PTR __real@4059000000000000
  00a61	f2 0f 58 c8	 addsd	 xmm1, xmm0
  00a65	0f 57 c0	 xorps	 xmm0, xmm0
  00a68	f2 0f 2a 85 58
	fa ff ff	 cvtsi2sd xmm0, DWORD PTR tv1865[ebp]
  00a70	f2 0f 58 c8	 addsd	 xmm1, xmm0
  00a74	f2 0f 59 0d 00
	00 00 00	 mulsd	 xmm1, QWORD PTR __real@40c3880000000000
  00a7c	f2 0f 58 48 40	 addsd	 xmm1, QWORD PTR [eax+64]
  00a81	f2 0f 11 48 40	 movsd	 QWORD PTR [eax+64], xmm1
  00a86	8b 01		 mov	 eax, DWORD PTR [ecx]
  00a88	ff 50 08	 call	 DWORD PTR [eax+8]
  00a8b	8b bd 14 fa ff
	ff		 mov	 edi, DWORD PTR _IUserFilePath$[ebp+4]
$LN25@OnAddInToo:

; 362  : 	return TRUE;

  00a91	8d 4d d0	 lea	 ecx, DWORD PTR _dlg$[ebp+1376]
  00a94	bb 01 00 00 00	 mov	 ebx, 1
  00a99	ff 15 00 00 00
	00		 call	 DWORD PTR __imp_??1?$CStringT@DV?$StrTraitMFC_DLL@DV?$ChTraitsCRT@D@ATL@@@@@ATL@@QAE@XZ
  00a9f	8d 4d c8	 lea	 ecx, DWORD PTR _dlg$[ebp+1368]
  00aa2	ff 15 00 00 00
	00		 call	 DWORD PTR __imp_??1?$CStringT@DV?$StrTraitMFC_DLL@DV?$ChTraitsCRT@D@ATL@@@@@ATL@@QAE@XZ
; File C:\Program Files (x86)\Microsoft Visual Studio\2019\Community\VC\Tools\MSVC\14.29.30133\atlmfc\include\afxtempl.h

; 872  : 	m_pBlocks->FreeDataChain();

  00aa8	8b 4d c0	 mov	 ecx, DWORD PTR _dlg$[ebp+1360]

; 878  : {

  00aab	c6 45 fc 27	 mov	 BYTE PTR __$EHRec$[ebp+8], 39 ; 00000027H
  00aaf	c7 45 ac 00 00
	00 00		 mov	 DWORD PTR _dlg$[ebp+1340], OFFSET ??_7?$CList@PAVCChartRecordSet@@PAV1@@@6B@

; 870  : 	m_nCount = 0;

  00ab6	c7 45 b8 00 00
	00 00		 mov	 DWORD PTR _dlg$[ebp+1352], 0

; 871  : 	m_pNodeHead = m_pNodeTail = m_pNodeFree = NULL;

  00abd	c7 45 bc 00 00
	00 00		 mov	 DWORD PTR _dlg$[ebp+1356], 0
  00ac4	c7 45 b4 00 00
	00 00		 mov	 DWORD PTR _dlg$[ebp+1348], 0
  00acb	c7 45 b0 00 00
	00 00		 mov	 DWORD PTR _dlg$[ebp+1344], 0

; 872  : 	m_pBlocks->FreeDataChain();

  00ad2	e8 00 00 00 00	 call	 ?FreeDataChain@CPlex@@QAEXXZ ; CPlex::FreeDataChain
  00ad7	8d 8d 20 fb ff
	ff		 lea	 ecx, DWORD PTR _dlg$[ebp+176]

; 873  : 	m_pBlocks = NULL;

  00add	c7 45 c0 00 00
	00 00		 mov	 DWORD PTR _dlg$[ebp+1360], 0
  00ae4	e8 00 00 00 00	 call	 ??1CGridCtrl@@UAE@XZ	; CGridCtrl::~CGridCtrl
  00ae9	8d 8d 18 fb ff
	ff		 lea	 ecx, DWORD PTR _dlg$[ebp+168]
  00aef	ff 15 00 00 00
	00		 call	 DWORD PTR __imp_??1?$CStringT@DV?$StrTraitMFC_DLL@DV?$ChTraitsCRT@D@ATL@@@@@ATL@@QAE@XZ
  00af5	8d 8d 70 fa ff
	ff		 lea	 ecx, DWORD PTR _dlg$[ebp]
  00afb	e8 00 00 00 00	 call	 ??1CDialog@@UAE@XZ	; CDialog::~CDialog
; File D:\git\src\IBK\IBK_DRFN\ProjSrc\SrcChartEx\ChartAddIn\ChartDataListViewerAddIn\Include_Addin_134221\I134221\_IString.h

; 44   : 	{

  00b00	c6 45 fc 28	 mov	 BYTE PTR __$EHRec$[ebp+8], 40 ; 00000028H

; 45   : 		if( m_pIStrData)

  00b04	85 ff		 test	 edi, edi
  00b06	74 06		 je	 SHORT $LN238@OnAddInToo

; 46   : 		{
; 47   : 			m_pIStrData->Release();

  00b08	8b 07		 mov	 eax, DWORD PTR [edi]
  00b0a	57		 push	 edi
  00b0b	ff 50 08	 call	 DWORD PTR [eax+8]
$LN238@OnAddInToo:
; File D:\git\src\IBK\IBK_DRFN\ProjSrc\SrcChartEx\ChartAddIn\ChartDataListViewerAddIn\ChartDataListViewerAddIn\ChartDataSimulatorAddInImp.cpp

; 362  : 	return TRUE;

  00b0e	8d 8d 30 fa ff
	ff		 lea	 ecx, DWORD PTR _strDateTime$[ebp]
  00b14	ff 15 00 00 00
	00		 call	 DWORD PTR __imp_??1?$CStringT@DV?$StrTraitMFC_DLL@DV?$ChTraitsCRT@D@ATL@@@@@ATL@@QAE@XZ
  00b1a	8d 8d 2c fa ff
	ff		 lea	 ecx, DWORD PTR _strItemName$[ebp]
  00b20	ff 15 00 00 00
	00		 call	 DWORD PTR __imp_??1?$CStringT@DV?$StrTraitMFC_DLL@DV?$ChTraitsCRT@D@ATL@@@@@ATL@@QAE@XZ
  00b26	8d 8d 64 fa ff
	ff		 lea	 ecx, DWORD PTR _strItemCode$[ebp]
  00b2c	ff 15 00 00 00
	00		 call	 DWORD PTR __imp_??1?$CStringT@DV?$StrTraitMFC_DLL@DV?$ChTraitsCRT@D@ATL@@@@@ATL@@QAE@XZ
$LN67@OnAddInToo:
  00b32	8d 8d 54 fa ff
	ff		 lea	 ecx, DWORD PTR _strDataInterval$[ebp]
  00b38	ff 15 00 00 00
	00		 call	 DWORD PTR __imp_??1?$CStringT@DV?$StrTraitMFC_DLL@DV?$ChTraitsCRT@D@ATL@@@@@ATL@@QAE@XZ
  00b3e	8d 8d 28 fa ff
	ff		 lea	 ecx, DWORD PTR _strDataType$[ebp]
  00b44	ff 15 00 00 00
	00		 call	 DWORD PTR __imp_??1?$CStringT@DV?$StrTraitMFC_DLL@DV?$ChTraitsCRT@D@ATL@@@@@ATL@@QAE@XZ
; File D:\git\src\IBK\IBK_DRFN\ProjSrc\SrcChartEx\ChartAddIn\ChartDataListViewerAddIn\Include_Addin_134221\I134221\_IString.h

; 45   : 		if( m_pIStrData)

  00b4a	8b 8d 40 fa ff
	ff		 mov	 ecx, DWORD PTR _szHelpMsg$[ebp+4]
  00b50	c6 45 fc 29	 mov	 BYTE PTR __$EHRec$[ebp+8], 41 ; 00000029H
  00b54	85 c9		 test	 ecx, ecx
  00b56	74 1a		 je	 SHORT $LN242@OnAddInToo

; 46   : 		{
; 47   : 			m_pIStrData->Release();

  00b58	8b 01		 mov	 eax, DWORD PTR [ecx]
  00b5a	51		 push	 ecx
  00b5b	ff 50 08	 call	 DWORD PTR [eax+8]

; 48   : 			m_pIStrData = NULL;

  00b5e	c7 85 40 fa ff
	ff 00 00 00 00	 mov	 DWORD PTR _szHelpMsg$[ebp+4], 0

; 49   : 			m_szData = NULL;

  00b68	c7 85 3c fa ff
	ff 00 00 00 00	 mov	 DWORD PTR _szHelpMsg$[ebp], 0
$LN242@OnAddInToo:
; File D:\git\src\IBK\IBK_DRFN\ProjSrc\SrcChartEx\ChartAddIn\ChartDataListViewerAddIn\ChartDataListViewerAddIn\ChartDataSimulatorAddInImp.cpp

; 362  : 	return TRUE;

  00b72	8d 8d 4c fa ff
	ff		 lea	 ecx, DWORD PTR _strHelpMsg$[ebp]
  00b78	ff 15 00 00 00
	00		 call	 DWORD PTR __imp_??1?$CStringT@DV?$StrTraitMFC_DLL@DV?$ChTraitsCRT@D@ATL@@@@@ATL@@QAE@XZ
  00b7e	8d 8d 48 fa ff
	ff		 lea	 ecx, DWORD PTR _strValue$[ebp]
  00b84	ff 15 00 00 00
	00		 call	 DWORD PTR __imp_??1?$CStringT@DV?$StrTraitMFC_DLL@DV?$ChTraitsCRT@D@ATL@@@@@ATL@@QAE@XZ
  00b8a	8d 8d 60 fa ff
	ff		 lea	 ecx, DWORD PTR _strKey$[ebp]
  00b90	ff 15 00 00 00
	00		 call	 DWORD PTR __imp_??1?$CStringT@DV?$StrTraitMFC_DLL@DV?$ChTraitsCRT@D@ATL@@@@@ATL@@QAE@XZ
; File D:\git\src\IBK\IBK_DRFN\ProjSrc\SrcChartEx\ChartAddIn\ChartDataListViewerAddIn\Include_Addin_134221\I134221\_IString.h

; 45   : 		if( m_pIStrData)

  00b96	8b 8d 0c fa ff
	ff		 mov	 ecx, DWORD PTR _IValue$[ebp+4]
  00b9c	c6 45 fc 2a	 mov	 BYTE PTR __$EHRec$[ebp+8], 42 ; 0000002aH
  00ba0	85 c9		 test	 ecx, ecx
  00ba2	74 1a		 je	 SHORT $LN246@OnAddInToo

; 46   : 		{
; 47   : 			m_pIStrData->Release();

  00ba4	8b 01		 mov	 eax, DWORD PTR [ecx]
  00ba6	51		 push	 ecx
  00ba7	ff 50 08	 call	 DWORD PTR [eax+8]

; 48   : 			m_pIStrData = NULL;

  00baa	c7 85 0c fa ff
	ff 00 00 00 00	 mov	 DWORD PTR _IValue$[ebp+4], 0

; 49   : 			m_szData = NULL;

  00bb4	c7 85 08 fa ff
	ff 00 00 00 00	 mov	 DWORD PTR _IValue$[ebp], 0
$LN246@OnAddInToo:

; 45   : 		if( m_pIStrData)

  00bbe	8b 8d 04 fa ff
	ff		 mov	 ecx, DWORD PTR _IKey$[ebp+4]
  00bc4	c6 45 fc 2b	 mov	 BYTE PTR __$EHRec$[ebp+8], 43 ; 0000002bH
  00bc8	85 c9		 test	 ecx, ecx
  00bca	74 1a		 je	 SHORT $LN250@OnAddInToo

; 46   : 		{
; 47   : 			m_pIStrData->Release();

  00bcc	8b 01		 mov	 eax, DWORD PTR [ecx]
  00bce	51		 push	 ecx
  00bcf	ff 50 08	 call	 DWORD PTR [eax+8]

; 48   : 			m_pIStrData = NULL;

  00bd2	c7 85 04 fa ff
	ff 00 00 00 00	 mov	 DWORD PTR _IKey$[ebp+4], 0

; 49   : 			m_szData = NULL;

  00bdc	c7 85 00 fa ff
	ff 00 00 00 00	 mov	 DWORD PTR _IKey$[ebp], 0
$LN250@OnAddInToo:
; File D:\git\src\IBK\IBK_DRFN\ProjSrc\SrcChartEx\ChartAddIn\ChartDataListViewerAddIn\ChartDataListViewerAddIn\ChartDataSimulatorAddInImp.cpp

; 362  : 	return TRUE;

  00be6	8d 8d f0 f9 ff
	ff		 lea	 ecx, DWORD PTR _strTitle$[ebp]
  00bec	ff 15 00 00 00
	00		 call	 DWORD PTR __imp_??1?$CStringT@DV?$StrTraitMFC_DLL@DV?$ChTraitsCRT@D@ATL@@@@@ATL@@QAE@XZ
  00bf2	eb 21		 jmp	 SHORT $LN66@OnAddInToo
$LN29@OnAddInToo:

; 343  : 							break;
; 344  : 					case 4:
; 345  : 					case 6:
; 346  : 					case 9:
; 347  : 					case 11:	nDay = 30;

  00bf4	ba 1e 00 00 00	 mov	 edx, 30			; 0000001eH
$LN7@OnAddInToo:

; 348  : 								break;
; 349  : 				}
; 350  : 			}
; 351  : 			if( nMonth < 1)

  00bf9	83 f9 01	 cmp	 ecx, 1
  00bfc	0f 8d 1b fe ff
	ff		 jge	 $LN292@OnAddInToo

; 352  : 			{
; 353  : 				nMonth = 12;
; 354  : 				nYear--;

  00c02	8b 85 68 fa ff
	ff		 mov	 eax, DWORD PTR _nYear$1$[ebp]
  00c08	b9 0c 00 00 00	 mov	 ecx, 12			; 0000000cH
  00c0d	48		 dec	 eax
  00c0e	e9 10 fe ff ff	 jmp	 $LN33@OnAddInToo
$LN274@OnAddInToo:
  00c13	33 db		 xor	 ebx, ebx
$LN66@OnAddInToo:

; 362  : 	return TRUE;

  00c15	8d 8d a0 f9 ff
	ff		 lea	 ecx, DWORD PTR _ChartDataGridManager$[ebp]
  00c1b	e8 00 00 00 00	 call	 ??1CChartDataGridManager@@QAE@XZ ; CChartDataGridManager::~CChartDataGridManager
; File D:\git\src\IBK\IBK_DRFN\ProjSrc\SrcChartEx\ChartAddIn\ChartDataListViewerAddIn\Include_Addin_134221\I134221\_IString.h

; 45   : 		if( m_pIStrData)

  00c20	8b 8d 20 fa ff
	ff		 mov	 ecx, DWORD PTR _IRQ$[ebp+4]
  00c26	c6 45 fc 2c	 mov	 BYTE PTR __$EHRec$[ebp+8], 44 ; 0000002cH
  00c2a	85 c9		 test	 ecx, ecx
  00c2c	74 06		 je	 SHORT $LN254@OnAddInToo

; 46   : 		{
; 47   : 			m_pIStrData->Release();

  00c2e	8b 01		 mov	 eax, DWORD PTR [ecx]
  00c30	51		 push	 ecx
  00c31	ff 50 08	 call	 DWORD PTR [eax+8]
$LN254@OnAddInToo:
; File D:\git\src\IBK\IBK_DRFN\ProjSrc\SrcChartEx\ChartAddIn\ChartDataListViewerAddIn\ChartDataListViewerAddIn\ChartDataSimulatorAddInImp.cpp

; 362  : 	return TRUE;

  00c34	8d 8d 44 fa ff
	ff		 lea	 ecx, DWORD PTR _strRQ$[ebp]
  00c3a	ff 15 00 00 00
	00		 call	 DWORD PTR __imp_??1?$CStringT@DV?$StrTraitMFC_DLL@DV?$ChTraitsCRT@D@ATL@@@@@ATL@@QAE@XZ
  00c40	8b bd ec f9 ff
	ff		 mov	 edi, DWORD PTR _szGraphName$[ebp+4]
$LN65@OnAddInToo:
  00c46	8d 8d 18 fa ff
	ff		 lea	 ecx, DWORD PTR _strGraphName$[ebp]
  00c4c	ff 15 00 00 00
	00		 call	 DWORD PTR __imp_??1?$CStringT@DV?$StrTraitMFC_DLL@DV?$ChTraitsCRT@D@ATL@@@@@ATL@@QAE@XZ
; File D:\git\src\IBK\IBK_DRFN\ProjSrc\SrcChartEx\ChartAddIn\ChartDataListViewerAddIn\Include_Addin_134221\I134221\_IString.h

; 44   : 	{

  00c52	c6 45 fc 2e	 mov	 BYTE PTR __$EHRec$[ebp+8], 46 ; 0000002eH

; 45   : 		if( m_pIStrData)

  00c56	85 ff		 test	 edi, edi
  00c58	74 0a		 je	 SHORT $LN263@OnAddInToo

; 46   : 		{
; 47   : 			m_pIStrData->Release();

  00c5a	8b 07		 mov	 eax, DWORD PTR [edi]
  00c5c	57		 push	 edi
  00c5d	ff 50 08	 call	 DWORD PTR [eax+8]

; 50   : 		}
; 51   : 	}

  00c60	eb 02		 jmp	 SHORT $LN263@OnAddInToo
$LN11@OnAddInToo:
  00c62	33 db		 xor	 ebx, ebx
$LN263@OnAddInToo:
; File D:\git\src\IBK\IBK_DRFN\ProjSrc\SrcChartEx\ChartAddIn\ChartDataListViewerAddIn\Include_Chart\Dll_Load\IMetaTable.h

; 1036 : 	{

  00c64	c7 45 fc 2f 00
	00 00		 mov	 DWORD PTR __$EHRec$[ebp+8], 47 ; 0000002fH
; File C:\Program Files (x86)\Microsoft Visual Studio\2019\Community\VC\Tools\MSVC\14.29.30133\atlmfc\include\afxwin1.inl

; 27   : 	{ ASSERT(hInstResource != NULL); afxCurrentResourceHandle = hInstResource; }

  00c6b	e8 00 00 00 00	 call	 ?AfxGetModuleState@@YGPAVAFX_MODULE_STATE@@XZ ; AfxGetModuleState
  00c70	89 70 0c	 mov	 DWORD PTR [eax+12], esi
; File D:\git\src\IBK\IBK_DRFN\ProjSrc\SrcChartEx\ChartAddIn\ChartDataListViewerAddIn\ChartDataListViewerAddIn\ChartDataSimulatorAddInImp.cpp

; 362  : 	return TRUE;

  00c73	8b c3		 mov	 eax, ebx
$LN1@OnAddInToo:

; 363  : }

  00c75	8b 4d f4	 mov	 ecx, DWORD PTR __$EHRec$[ebp]
  00c78	64 89 0d 00 00
	00 00		 mov	 DWORD PTR fs:0, ecx
  00c7f	59		 pop	 ecx
  00c80	5f		 pop	 edi
  00c81	5e		 pop	 esi
  00c82	5b		 pop	 ebx
  00c83	8b 4d f0	 mov	 ecx, DWORD PTR __$ArrayPad$[ebp]
  00c86	33 cd		 xor	 ecx, ebp
  00c88	e8 00 00 00 00	 call	 @__security_check_cookie@4
  00c8d	8b e5		 mov	 esp, ebp
  00c8f	5d		 pop	 ebp
  00c90	c2 04 00	 ret	 4
  00c93	90		 npad	 1
$LN289@OnAddInToo:
  00c94	00 00 00 00	 DD	 $LN28@OnAddInToo
  00c98	00 00 00 00	 DD	 $LN29@OnAddInToo
  00c9c	00 00 00 00	 DD	 $LN7@OnAddInToo
$LN288@OnAddInToo:
  00ca0	00		 DB	 0
  00ca1	02		 DB	 2
  00ca2	01		 DB	 1
  00ca3	02		 DB	 2
  00ca4	01		 DB	 1
  00ca5	02		 DB	 2
  00ca6	02		 DB	 2
  00ca7	01		 DB	 1
  00ca8	02		 DB	 2
  00ca9	01		 DB	 1
_TEXT	ENDS
;	COMDAT text$x
text$x	SEGMENT
__unwindfunclet$?OnAddInToolCommand@CChartDataSimulatorAddInImp@@MAEHW4EAICommandType@@@Z$0:
  00000	8d 8d 9c f9 ff
	ff		 lea	 ecx, DWORD PTR ___mlrs__$[ebp]
  00006	e9 00 00 00 00	 jmp	 ??1CMultiLanguageResourceSetter@@QAE@XZ ; CMultiLanguageResourceSetter::~CMultiLanguageResourceSetter
__unwindfunclet$?OnAddInToolCommand@CChartDataSimulatorAddInImp@@MAEHW4EAICommandType@@@Z$1:
  0000b	8d 8d e8 f9 ff
	ff		 lea	 ecx, DWORD PTR _szGraphName$[ebp]
  00011	e9 00 00 00 00	 jmp	 ??1ILPCSTR134221@@QAE@XZ ; ILPCSTR134221::~ILPCSTR134221
__unwindfunclet$?OnAddInToolCommand@CChartDataSimulatorAddInImp@@MAEHW4EAICommandType@@@Z$2:
  00016	8d 8d 18 fa ff
	ff		 lea	 ecx, DWORD PTR _strGraphName$[ebp]
  0001c	ff 25 00 00 00
	00		 jmp	 DWORD PTR __imp_??1?$CStringT@DV?$StrTraitMFC_DLL@DV?$ChTraitsCRT@D@ATL@@@@@ATL@@QAE@XZ
__unwindfunclet$?OnAddInToolCommand@CChartDataSimulatorAddInImp@@MAEHW4EAICommandType@@@Z$3:
  00022	8d 8d 68 fa ff
	ff		 lea	 ecx, DWORD PTR $T6[ebp]
  00028	ff 25 00 00 00
	00		 jmp	 DWORD PTR __imp_??1?$CStringT@DV?$StrTraitMFC_DLL@DV?$ChTraitsCRT@D@ATL@@@@@ATL@@QAE@XZ
__unwindfunclet$?OnAddInToolCommand@CChartDataSimulatorAddInImp@@MAEHW4EAICommandType@@@Z$4:
  0002e	8d 8d 44 fa ff
	ff		 lea	 ecx, DWORD PTR _strRQ$[ebp]
  00034	ff 25 00 00 00
	00		 jmp	 DWORD PTR __imp_??1?$CStringT@DV?$StrTraitMFC_DLL@DV?$ChTraitsCRT@D@ATL@@@@@ATL@@QAE@XZ
__unwindfunclet$?OnAddInToolCommand@CChartDataSimulatorAddInImp@@MAEHW4EAICommandType@@@Z$5:
  0003a	8d 8d 94 f9 ff
	ff		 lea	 ecx, DWORD PTR _IPacketType$[ebp]
  00040	e9 00 00 00 00	 jmp	 ??1ILPCSTR134221@@QAE@XZ ; ILPCSTR134221::~ILPCSTR134221
__unwindfunclet$?OnAddInToolCommand@CChartDataSimulatorAddInImp@@MAEHW4EAICommandType@@@Z$6:
  00045	8d 8d 1c fa ff
	ff		 lea	 ecx, DWORD PTR _IRQ$[ebp]
  0004b	e9 00 00 00 00	 jmp	 ??1ILPCSTR134221@@QAE@XZ ; ILPCSTR134221::~ILPCSTR134221
__unwindfunclet$?OnAddInToolCommand@CChartDataSimulatorAddInImp@@MAEHW4EAICommandType@@@Z$7:
  00050	8d 8d a0 f9 ff
	ff		 lea	 ecx, DWORD PTR _ChartDataGridManager$[ebp]
  00056	e9 00 00 00 00	 jmp	 ??1CChartDataGridManager@@QAE@XZ ; CChartDataGridManager::~CChartDataGridManager
__unwindfunclet$?OnAddInToolCommand@CChartDataSimulatorAddInImp@@MAEHW4EAICommandType@@@Z$8:
  0005b	8d 8d f0 f9 ff
	ff		 lea	 ecx, DWORD PTR _strTitle$[ebp]
  00061	ff 25 00 00 00
	00		 jmp	 DWORD PTR __imp_??1?$CStringT@DV?$StrTraitMFC_DLL@DV?$ChTraitsCRT@D@ATL@@@@@ATL@@QAE@XZ
__unwindfunclet$?OnAddInToolCommand@CChartDataSimulatorAddInImp@@MAEHW4EAICommandType@@@Z$9:
  00067	8d 8d 00 fa ff
	ff		 lea	 ecx, DWORD PTR _IKey$[ebp]
  0006d	e9 00 00 00 00	 jmp	 ??1ILPCSTR134221@@QAE@XZ ; ILPCSTR134221::~ILPCSTR134221
__unwindfunclet$?OnAddInToolCommand@CChartDataSimulatorAddInImp@@MAEHW4EAICommandType@@@Z$10:
  00072	8d 8d 08 fa ff
	ff		 lea	 ecx, DWORD PTR _IValue$[ebp]
  00078	e9 00 00 00 00	 jmp	 ??1ILPCSTR134221@@QAE@XZ ; ILPCSTR134221::~ILPCSTR134221
__unwindfunclet$?OnAddInToolCommand@CChartDataSimulatorAddInImp@@MAEHW4EAICommandType@@@Z$11:
  0007d	8d 8d 60 fa ff
	ff		 lea	 ecx, DWORD PTR _strKey$[ebp]
  00083	ff 25 00 00 00
	00		 jmp	 DWORD PTR __imp_??1?$CStringT@DV?$StrTraitMFC_DLL@DV?$ChTraitsCRT@D@ATL@@@@@ATL@@QAE@XZ
__unwindfunclet$?OnAddInToolCommand@CChartDataSimulatorAddInImp@@MAEHW4EAICommandType@@@Z$12:
  00089	8d 8d 48 fa ff
	ff		 lea	 ecx, DWORD PTR _strValue$[ebp]
  0008f	ff 25 00 00 00
	00		 jmp	 DWORD PTR __imp_??1?$CStringT@DV?$StrTraitMFC_DLL@DV?$ChTraitsCRT@D@ATL@@@@@ATL@@QAE@XZ
__unwindfunclet$?OnAddInToolCommand@CChartDataSimulatorAddInImp@@MAEHW4EAICommandType@@@Z$13:
  00095	8d 8d 4c fa ff
	ff		 lea	 ecx, DWORD PTR _strHelpMsg$[ebp]
  0009b	ff 25 00 00 00
	00		 jmp	 DWORD PTR __imp_??1?$CStringT@DV?$StrTraitMFC_DLL@DV?$ChTraitsCRT@D@ATL@@@@@ATL@@QAE@XZ
__unwindfunclet$?OnAddInToolCommand@CChartDataSimulatorAddInImp@@MAEHW4EAICommandType@@@Z$14:
  000a1	8d 8d 3c fa ff
	ff		 lea	 ecx, DWORD PTR _szHelpMsg$[ebp]
  000a7	e9 00 00 00 00	 jmp	 ??1ILPCSTR134221@@QAE@XZ ; ILPCSTR134221::~ILPCSTR134221
__unwindfunclet$?OnAddInToolCommand@CChartDataSimulatorAddInImp@@MAEHW4EAICommandType@@@Z$15:
  000ac	8d 8d 28 fa ff
	ff		 lea	 ecx, DWORD PTR _strDataType$[ebp]
  000b2	ff 25 00 00 00
	00		 jmp	 DWORD PTR __imp_??1?$CStringT@DV?$StrTraitMFC_DLL@DV?$ChTraitsCRT@D@ATL@@@@@ATL@@QAE@XZ
__unwindfunclet$?OnAddInToolCommand@CChartDataSimulatorAddInImp@@MAEHW4EAICommandType@@@Z$16:
  000b8	8d 8d 54 fa ff
	ff		 lea	 ecx, DWORD PTR _strDataInterval$[ebp]
  000be	ff 25 00 00 00
	00		 jmp	 DWORD PTR __imp_??1?$CStringT@DV?$StrTraitMFC_DLL@DV?$ChTraitsCRT@D@ATL@@@@@ATL@@QAE@XZ
__unwindfunclet$?OnAddInToolCommand@CChartDataSimulatorAddInImp@@MAEHW4EAICommandType@@@Z$17:
  000c4	8d 8d 64 fa ff
	ff		 lea	 ecx, DWORD PTR _strItemCode$[ebp]
  000ca	ff 25 00 00 00
	00		 jmp	 DWORD PTR __imp_??1?$CStringT@DV?$StrTraitMFC_DLL@DV?$ChTraitsCRT@D@ATL@@@@@ATL@@QAE@XZ
__unwindfunclet$?OnAddInToolCommand@CChartDataSimulatorAddInImp@@MAEHW4EAICommandType@@@Z$18:
  000d0	8d 8d 2c fa ff
	ff		 lea	 ecx, DWORD PTR _strItemName$[ebp]
  000d6	ff 25 00 00 00
	00		 jmp	 DWORD PTR __imp_??1?$CStringT@DV?$StrTraitMFC_DLL@DV?$ChTraitsCRT@D@ATL@@@@@ATL@@QAE@XZ
__unwindfunclet$?OnAddInToolCommand@CChartDataSimulatorAddInImp@@MAEHW4EAICommandType@@@Z$19:
  000dc	8d 8d 6c fa ff
	ff		 lea	 ecx, DWORD PTR $T10[ebp]
  000e2	ff 25 00 00 00
	00		 jmp	 DWORD PTR __imp_??1?$CStringT@DV?$StrTraitMFC_DLL@DV?$ChTraitsCRT@D@ATL@@@@@ATL@@QAE@XZ
__unwindfunclet$?OnAddInToolCommand@CChartDataSimulatorAddInImp@@MAEHW4EAICommandType@@@Z$20:
  000e8	8d 8d 6c fa ff
	ff		 lea	 ecx, DWORD PTR $T9[ebp]
  000ee	ff 25 00 00 00
	00		 jmp	 DWORD PTR __imp_??1?$CStringT@DV?$StrTraitMFC_DLL@DV?$ChTraitsCRT@D@ATL@@@@@ATL@@QAE@XZ
__unwindfunclet$?OnAddInToolCommand@CChartDataSimulatorAddInImp@@MAEHW4EAICommandType@@@Z$21:
  000f4	8d 8d 6c fa ff
	ff		 lea	 ecx, DWORD PTR $T8[ebp]
  000fa	ff 25 00 00 00
	00		 jmp	 DWORD PTR __imp_??1?$CStringT@DV?$StrTraitMFC_DLL@DV?$ChTraitsCRT@D@ATL@@@@@ATL@@QAE@XZ
__unwindfunclet$?OnAddInToolCommand@CChartDataSimulatorAddInImp@@MAEHW4EAICommandType@@@Z$22:
  00100	8d 8d 30 fa ff
	ff		 lea	 ecx, DWORD PTR _strDateTime$[ebp]
  00106	ff 25 00 00 00
	00		 jmp	 DWORD PTR __imp_??1?$CStringT@DV?$StrTraitMFC_DLL@DV?$ChTraitsCRT@D@ATL@@@@@ATL@@QAE@XZ
__unwindfunclet$?OnAddInToolCommand@CChartDataSimulatorAddInImp@@MAEHW4EAICommandType@@@Z$40:
  0010c	8b 85 38 fa ff
	ff		 mov	 eax, DWORD PTR $T2[ebp]
  00112	83 e0 01	 and	 eax, 1
  00115	0f 84 13 00 00
	00		 je	 $LN175@OnAddInToo
  0011b	83 a5 38 fa ff
	ff fe		 and	 DWORD PTR $T2[ebp], -2	; fffffffeH
  00122	8d 8d 5c fa ff
	ff		 lea	 ecx, DWORD PTR $T5[ebp]
  00128	ff 25 00 00 00
	00		 jmp	 DWORD PTR __imp_??1?$CStringT@DV?$StrTraitMFC_DLL@DV?$ChTraitsCRT@D@ATL@@@@@ATL@@QAE@XZ
$LN175@OnAddInToo:
  0012e	c3		 ret	 0
__unwindfunclet$?OnAddInToolCommand@CChartDataSimulatorAddInImp@@MAEHW4EAICommandType@@@Z$41:
  0012f	8b 85 38 fa ff
	ff		 mov	 eax, DWORD PTR $T2[ebp]
  00135	83 e0 02	 and	 eax, 2
  00138	0f 84 13 00 00
	00		 je	 $LN188@OnAddInToo
  0013e	83 a5 38 fa ff
	ff fd		 and	 DWORD PTR $T2[ebp], -3	; fffffffdH
  00145	8d 8d 50 fa ff
	ff		 lea	 ecx, DWORD PTR $T3[ebp]
  0014b	ff 25 00 00 00
	00		 jmp	 DWORD PTR __imp_??1?$CStringT@DV?$StrTraitMFC_DLL@DV?$ChTraitsCRT@D@ATL@@@@@ATL@@QAE@XZ
$LN188@OnAddInToo:
  00151	c3		 ret	 0
__unwindfunclet$?OnAddInToolCommand@CChartDataSimulatorAddInImp@@MAEHW4EAICommandType@@@Z$42:
  00152	8b 85 38 fa ff
	ff		 mov	 eax, DWORD PTR $T2[ebp]
  00158	83 e0 04	 and	 eax, 4
  0015b	0f 84 13 00 00
	00		 je	 $LN204@OnAddInToo
  00161	83 a5 38 fa ff
	ff fb		 and	 DWORD PTR $T2[ebp], -5	; fffffffbH
  00168	8d 8d 6c fa ff
	ff		 lea	 ecx, DWORD PTR $T7[ebp]
  0016e	ff 25 00 00 00
	00		 jmp	 DWORD PTR __imp_??1?$CStringT@DV?$StrTraitMFC_DLL@DV?$ChTraitsCRT@D@ATL@@@@@ATL@@QAE@XZ
$LN204@OnAddInToo:
  00174	c3		 ret	 0
__unwindfunclet$?OnAddInToolCommand@CChartDataSimulatorAddInImp@@MAEHW4EAICommandType@@@Z$26:
  00175	8d 8d 10 fa ff
	ff		 lea	 ecx, DWORD PTR _IUserFilePath$[ebp]
  0017b	e9 00 00 00 00	 jmp	 ??1ILPCSTR134221@@QAE@XZ ; ILPCSTR134221::~ILPCSTR134221
__unwindfunclet$?OnAddInToolCommand@CChartDataSimulatorAddInImp@@MAEHW4EAICommandType@@@Z$27:
  00180	8d 8d 70 fa ff
	ff		 lea	 ecx, DWORD PTR _dlg$[ebp]
  00186	e9 00 00 00 00	 jmp	 ??1CDlgDataSimulator@@UAE@XZ
  0018b	cc		 int	 3
  0018c	cc		 int	 3
  0018d	cc		 int	 3
  0018e	cc		 int	 3
  0018f	cc		 int	 3
__ehhandler$?OnAddInToolCommand@CChartDataSimulatorAddInImp@@MAEHW4EAICommandType@@@Z:
  00190	90		 npad	 1
  00191	90		 npad	 1
  00192	8b 54 24 08	 mov	 edx, DWORD PTR [esp+8]
  00196	8d 42 0c	 lea	 eax, DWORD PTR [edx+12]
  00199	8b 8a 90 f9 ff
	ff		 mov	 ecx, DWORD PTR [edx-1648]
  0019f	33 c8		 xor	 ecx, eax
  001a1	e8 00 00 00 00	 call	 @__security_check_cookie@4
  001a6	8b 4a fc	 mov	 ecx, DWORD PTR [edx-4]
  001a9	33 c8		 xor	 ecx, eax
  001ab	e8 00 00 00 00	 call	 @__security_check_cookie@4
  001b0	b8 00 00 00 00	 mov	 eax, OFFSET __ehfuncinfo$?OnAddInToolCommand@CChartDataSimulatorAddInImp@@MAEHW4EAICommandType@@@Z
  001b5	e9 00 00 00 00	 jmp	 ___CxxFrameHandler3
text$x	ENDS
?OnAddInToolCommand@CChartDataSimulatorAddInImp@@MAEHW4EAICommandType@@@Z ENDP ; CChartDataSimulatorAddInImp::OnAddInToolCommand
; Function compile flags: /Ogtp
; File D:\git\src\IBK\IBK_DRFN\ProjSrc\SrcChartEx\ChartAddIn\ChartDataListViewerAddIn\ChartDataListViewerAddIn\ChartDataSimulatorAddInImp.cpp
;	COMDAT ?OnCmdMsg@CChartDataSimulatorAddInImp@@MAEHIHPAUICmdUI134221@@@Z
_TEXT	SEGMENT
_nID$ = 8						; size = 4
_nCode$ = 12						; size = 4
_p_pICmdUI$ = 16					; size = 4
?OnCmdMsg@CChartDataSimulatorAddInImp@@MAEHIHPAUICmdUI134221@@@Z PROC ; CChartDataSimulatorAddInImp::OnCmdMsg, COMDAT
; _this$ = ecx

; 82   : {

  00000	55		 push	 ebp
  00001	8b ec		 mov	 ebp, esp

; 83   : 	if( ID_DLV_DATA_SIMULATOR != nID) return FALSE;

  00003	81 7d 08 2a a0
	00 00		 cmp	 DWORD PTR _nID$[ebp], 41002 ; 0000a02aH
  0000a	74 06		 je	 SHORT $LN2@OnCmdMsg
  0000c	33 c0		 xor	 eax, eax

; 91   : }

  0000e	5d		 pop	 ebp
  0000f	c2 0c 00	 ret	 12			; 0000000cH
$LN2@OnCmdMsg:

; 84   : 	if( CN_COMMAND == nCode) return OnAddInToolCommand( EAI_DATA_SIMULATOR);

  00012	8b 45 0c	 mov	 eax, DWORD PTR _nCode$[ebp]
  00015	85 c0		 test	 eax, eax
  00017	75 0e		 jne	 SHORT $LN3@OnCmdMsg
  00019	8b 01		 mov	 eax, DWORD PTR [ecx]
  0001b	6a 3e		 push	 62			; 0000003eH
  0001d	ff 90 ec 00 00
	00		 call	 DWORD PTR [eax+236]

; 91   : }

  00023	5d		 pop	 ebp
  00024	c2 0c 00	 ret	 12			; 0000000cH
$LN3@OnCmdMsg:

; 85   : 	else if( CN_UPDATE_COMMAND_UI == nCode)

  00027	83 f8 ff	 cmp	 eax, -1
  0002a	75 0e		 jne	 SHORT $LN5@OnCmdMsg

; 86   : 	{
; 87   : 		if( p_pICmdUI) p_pICmdUI->Enable( TRUE);

  0002c	8b 4d 10	 mov	 ecx, DWORD PTR _p_pICmdUI$[ebp]
  0002f	85 c9		 test	 ecx, ecx
  00031	74 07		 je	 SHORT $LN5@OnCmdMsg
  00033	8b 01		 mov	 eax, DWORD PTR [ecx]
  00035	6a 01		 push	 1
  00037	ff 50 10	 call	 DWORD PTR [eax+16]
$LN5@OnCmdMsg:

; 88   : 		return TRUE;
; 89   : 	}
; 90   : 	return TRUE;

  0003a	b8 01 00 00 00	 mov	 eax, 1

; 91   : }

  0003f	5d		 pop	 ebp
  00040	c2 0c 00	 ret	 12			; 0000000cH
?OnCmdMsg@CChartDataSimulatorAddInImp@@MAEHIHPAUICmdUI134221@@@Z ENDP ; CChartDataSimulatorAddInImp::OnCmdMsg
_TEXT	ENDS
; Function compile flags: /Ogtp
; File D:\git\src\IBK\IBK_DRFN\ProjSrc\SrcChartEx\ChartAddIn\ChartDataListViewerAddIn\ChartDataListViewerAddIn\ChartDataSimulatorAddInImp.cpp
; File C:\Program Files (x86)\Microsoft Visual Studio\2019\Community\VC\Tools\MSVC\14.29.30133\atlmfc\include\cstringt.h
; File D:\git\src\IBK\IBK_DRFN\ProjSrc\SrcChartEx\ChartAddIn\ChartDataListViewerAddIn\ChartDataListViewerAddIn\ChartDataSimulatorAddInImp.cpp
; File C:\Program Files (x86)\Microsoft Visual Studio\2019\Community\VC\Tools\MSVC\14.29.30133\atlmfc\include\cstringt.h
; File D:\git\src\IBK\IBK_DRFN\ProjSrc\SrcChartEx\ChartAddIn\ChartDataListViewerAddIn\ChartDataListViewerAddIn\ChartDataSimulatorAddInImp.cpp
;	COMDAT ?OnPreRealPacketEnd@CChartDataSimulatorAddInImp@@MAEHPBD@Z
_TEXT	SEGMENT
__$EHRec$ = -12						; size = 12
_strRQ$ = 8						; size = 4
_p_szRQ$ = 8						; size = 4
?OnPreRealPacketEnd@CChartDataSimulatorAddInImp@@MAEHPBD@Z PROC ; CChartDataSimulatorAddInImp::OnPreRealPacketEnd, COMDAT
; _this$ = ecx

; 575  : {

  00000	55		 push	 ebp
  00001	8b ec		 mov	 ebp, esp
  00003	6a ff		 push	 -1
  00005	68 00 00 00 00	 push	 __ehhandler$?OnPreRealPacketEnd@CChartDataSimulatorAddInImp@@MAEHPBD@Z
  0000a	64 a1 00 00 00
	00		 mov	 eax, DWORD PTR fs:0
  00010	50		 push	 eax
  00011	56		 push	 esi
  00012	a1 00 00 00 00	 mov	 eax, DWORD PTR ___security_cookie
  00017	33 c5		 xor	 eax, ebp
  00019	50		 push	 eax
  0001a	8d 45 f4	 lea	 eax, DWORD PTR __$EHRec$[ebp]
  0001d	64 a3 00 00 00
	00		 mov	 DWORD PTR fs:0, eax
  00023	8b f1		 mov	 esi, ecx

; 576  : 	CString strRQ = p_szRQ;

  00025	ff 75 08	 push	 DWORD PTR _p_szRQ$[ebp]
  00028	8d 4d 08	 lea	 ecx, DWORD PTR _strRQ$[ebp]
  0002b	ff 15 00 00 00
	00		 call	 DWORD PTR __imp_??0?$CStringT@DV?$StrTraitMFC_DLL@DV?$ChTraitsCRT@D@ATL@@@@@ATL@@QAE@PBD@Z
; File C:\Program Files (x86)\Microsoft Visual Studio\2019\Community\VC\Tools\MSVC\14.29.30133\atlmfc\include\cstringt.h

; 2479 : 		return(str1.Compare(str2) == 0);

  00031	ff 75 08	 push	 DWORD PTR _strRQ$[ebp]
; File D:\git\src\IBK\IBK_DRFN\ProjSrc\SrcChartEx\ChartAddIn\ChartDataListViewerAddIn\ChartDataListViewerAddIn\ChartDataSimulatorAddInImp.cpp

; 577  : 	if(m_strSimulateRQ == strRQ)

  00034	8d 4e 3c	 lea	 ecx, DWORD PTR [esi+60]
  00037	c7 45 fc 00 00
	00 00		 mov	 DWORD PTR __$EHRec$[ebp+8], 0
; File C:\Program Files (x86)\Microsoft Visual Studio\2019\Community\VC\Tools\MSVC\14.29.30133\atlmfc\include\cstringt.h

; 2479 : 		return(str1.Compare(str2) == 0);

  0003e	ff 15 00 00 00
	00		 call	 DWORD PTR __imp_?Compare@?$CStringT@DV?$StrTraitMFC_DLL@DV?$ChTraitsCRT@D@ATL@@@@@ATL@@QBEHPBD@Z
; File D:\git\src\IBK\IBK_DRFN\ProjSrc\SrcChartEx\ChartAddIn\ChartDataListViewerAddIn\ChartDataListViewerAddIn\ChartDataSimulatorAddInImp.cpp

; 582  : 	return TRUE;

  00044	8d 4d 08	 lea	 ecx, DWORD PTR _strRQ$[ebp]
  00047	ff 15 00 00 00
	00		 call	 DWORD PTR __imp_??1?$CStringT@DV?$StrTraitMFC_DLL@DV?$ChTraitsCRT@D@ATL@@@@@ATL@@QAE@XZ
  0004d	b8 01 00 00 00	 mov	 eax, 1

; 583  : }

  00052	8b 4d f4	 mov	 ecx, DWORD PTR __$EHRec$[ebp]
  00055	64 89 0d 00 00
	00 00		 mov	 DWORD PTR fs:0, ecx
  0005c	59		 pop	 ecx
  0005d	5e		 pop	 esi
  0005e	8b e5		 mov	 esp, ebp
  00060	5d		 pop	 ebp
  00061	c2 04 00	 ret	 4
_TEXT	ENDS
;	COMDAT text$x
text$x	SEGMENT
__unwindfunclet$?OnPreRealPacketEnd@CChartDataSimulatorAddInImp@@MAEHPBD@Z$0:
  00000	8d 4d 08	 lea	 ecx, DWORD PTR _strRQ$[ebp]
  00003	ff 25 00 00 00
	00		 jmp	 DWORD PTR __imp_??1?$CStringT@DV?$StrTraitMFC_DLL@DV?$ChTraitsCRT@D@ATL@@@@@ATL@@QAE@XZ
  00009	cc		 int	 3
  0000a	cc		 int	 3
  0000b	cc		 int	 3
  0000c	cc		 int	 3
  0000d	cc		 int	 3
__ehhandler$?OnPreRealPacketEnd@CChartDataSimulatorAddInImp@@MAEHPBD@Z:
  0000e	90		 npad	 1
  0000f	90		 npad	 1
  00010	8b 54 24 08	 mov	 edx, DWORD PTR [esp+8]
  00014	8d 42 0c	 lea	 eax, DWORD PTR [edx+12]
  00017	8b 4a f8	 mov	 ecx, DWORD PTR [edx-8]
  0001a	33 c8		 xor	 ecx, eax
  0001c	e8 00 00 00 00	 call	 @__security_check_cookie@4
  00021	b8 00 00 00 00	 mov	 eax, OFFSET __ehfuncinfo$?OnPreRealPacketEnd@CChartDataSimulatorAddInImp@@MAEHPBD@Z
  00026	e9 00 00 00 00	 jmp	 ___CxxFrameHandler3
text$x	ENDS
?OnPreRealPacketEnd@CChartDataSimulatorAddInImp@@MAEHPBD@Z ENDP ; CChartDataSimulatorAddInImp::OnPreRealPacketEnd
; Function compile flags: /Ogtp
; File D:\git\src\IBK\IBK_DRFN\ProjSrc\SrcChartEx\ChartAddIn\ChartDataListViewerAddIn\ChartDataListViewerAddIn\ChartDataSimulatorAddInImp.cpp
; File C:\Program Files (x86)\Microsoft Visual Studio\2019\Community\VC\Tools\MSVC\14.29.30133\atlmfc\include\cstringt.h
; File D:\git\src\IBK\IBK_DRFN\ProjSrc\SrcChartEx\ChartAddIn\ChartDataListViewerAddIn\ChartDataListViewerAddIn\ChartDataSimulatorAddInImp.cpp
; File C:\Program Files (x86)\Microsoft Visual Studio\2019\Community\VC\Tools\MSVC\14.29.30133\atlmfc\include\cstringt.h
; File D:\git\src\IBK\IBK_DRFN\ProjSrc\SrcChartEx\ChartAddIn\ChartDataListViewerAddIn\ChartDataListViewerAddIn\ChartDataSimulatorAddInImp.cpp
;	COMDAT ?OnPreRealData@CChartDataSimulatorAddInImp@@MAEHPBDAAN0@Z
_TEXT	SEGMENT
_strRQ$ = -16						; size = 4
__$EHRec$ = -12						; size = 12
_p_szPacketName$ = 8					; size = 4
_p_dData$ = 12						; size = 4
_strPacketName$2 = 16					; size = 4
_p_szRQ$ = 16						; size = 4
?OnPreRealData@CChartDataSimulatorAddInImp@@MAEHPBDAAN0@Z PROC ; CChartDataSimulatorAddInImp::OnPreRealData, COMDAT
; _this$ = ecx

; 531  : {

  00000	55		 push	 ebp
  00001	8b ec		 mov	 ebp, esp
  00003	6a ff		 push	 -1
  00005	68 00 00 00 00	 push	 __ehhandler$?OnPreRealData@CChartDataSimulatorAddInImp@@MAEHPBDAAN0@Z
  0000a	64 a1 00 00 00
	00		 mov	 eax, DWORD PTR fs:0
  00010	50		 push	 eax
  00011	51		 push	 ecx
  00012	56		 push	 esi
  00013	a1 00 00 00 00	 mov	 eax, DWORD PTR ___security_cookie
  00018	33 c5		 xor	 eax, ebp
  0001a	50		 push	 eax
  0001b	8d 45 f4	 lea	 eax, DWORD PTR __$EHRec$[ebp]
  0001e	64 a3 00 00 00
	00		 mov	 DWORD PTR fs:0, eax
  00024	8b f1		 mov	 esi, ecx

; 532  : 	CString strRQ = p_szRQ;

  00026	ff 75 10	 push	 DWORD PTR _p_szRQ$[ebp]
  00029	8d 4d f0	 lea	 ecx, DWORD PTR _strRQ$[ebp]
  0002c	ff 15 00 00 00
	00		 call	 DWORD PTR __imp_??0?$CStringT@DV?$StrTraitMFC_DLL@DV?$ChTraitsCRT@D@ATL@@@@@ATL@@QAE@PBD@Z
; File C:\Program Files (x86)\Microsoft Visual Studio\2019\Community\VC\Tools\MSVC\14.29.30133\atlmfc\include\cstringt.h

; 2479 : 		return(str1.Compare(str2) == 0);

  00032	ff 75 f0	 push	 DWORD PTR _strRQ$[ebp]
; File D:\git\src\IBK\IBK_DRFN\ProjSrc\SrcChartEx\ChartAddIn\ChartDataListViewerAddIn\ChartDataListViewerAddIn\ChartDataSimulatorAddInImp.cpp

; 533  : 	if(m_strSimulateRQ == strRQ)

  00035	8d 4e 3c	 lea	 ecx, DWORD PTR [esi+60]
  00038	c7 45 fc 00 00
	00 00		 mov	 DWORD PTR __$EHRec$[ebp+8], 0
; File C:\Program Files (x86)\Microsoft Visual Studio\2019\Community\VC\Tools\MSVC\14.29.30133\atlmfc\include\cstringt.h

; 2479 : 		return(str1.Compare(str2) == 0);

  0003f	ff 15 00 00 00
	00		 call	 DWORD PTR __imp_?Compare@?$CStringT@DV?$StrTraitMFC_DLL@DV?$ChTraitsCRT@D@ATL@@@@@ATL@@QBEHPBD@Z
  00045	85 c0		 test	 eax, eax
; File D:\git\src\IBK\IBK_DRFN\ProjSrc\SrcChartEx\ChartAddIn\ChartDataListViewerAddIn\ChartDataListViewerAddIn\ChartDataSimulatorAddInImp.cpp

; 533  : 	if(m_strSimulateRQ == strRQ)

  00047	75 5b		 jne	 SHORT $LN2@OnPreRealD

; 534  : 	{
; 535  : //		int nPos;
; 536  : //		CString strPacketName = p_szPacketName;
; 537  : //		if((nPos = strPacketName.Find( _MTEXT( C0_DATE_TIME) )) >= 0)
; 538  : //		{
; 539  : //			if(m_dLastSimulateDateTime >= p_dData)
; 540  : //			{			
; 541  : //				m_bUpdateRealData = FALSE;
; 542  : //				return FALSE;
; 543  : //			}
; 544  : //			else
; 545  : //				m_bUpdateRealData = TRUE;
; 546  : //		}
; 547  : //		else if(!m_bUpdateRealData)
; 548  : //			return FALSE;
; 549  : 
; 550  : 		int nPos;
; 551  : 		CString strPacketName = p_szPacketName;

  00049	ff 75 08	 push	 DWORD PTR _p_szPacketName$[ebp]
  0004c	8d 4d 10	 lea	 ecx, DWORD PTR _strPacketName$2[ebp]
  0004f	ff 15 00 00 00
	00		 call	 DWORD PTR __imp_??0?$CStringT@DV?$StrTraitMFC_DLL@DV?$ChTraitsCRT@D@ATL@@@@@ATL@@QAE@PBD@Z

; 552  : 		if((nPos = strPacketName.Find( _MTEXT( C0_DATE_TIME) )) >= 0)

  00055	a1 54 00 00 00	 mov	 eax, DWORD PTR ?g_iMetaTable@@3VIMetaTable@@A+84
  0005a	8d 4d 10	 lea	 ecx, DWORD PTR _strPacketName$2[ebp]
  0005d	6a 00		 push	 0
  0005f	ff 30		 push	 DWORD PTR [eax]
  00061	ff 15 00 00 00
	00		 call	 DWORD PTR __imp_?Find@?$CStringT@DV?$StrTraitMFC_DLL@DV?$ChTraitsCRT@D@ATL@@@@@ATL@@QBEHPBDH@Z
  00067	85 c0		 test	 eax, eax
  00069	78 30		 js	 SHORT $LN9@OnPreRealD

; 553  : 		{
; 554  : 			if(m_dLastSimulateDateTime >= p_dData)

  0006b	8b 45 0c	 mov	 eax, DWORD PTR _p_dData$[ebp]
  0006e	f2 0f 10 46 40	 movsd	 xmm0, QWORD PTR [esi+64]
  00073	66 0f 2f 00	 comisd	 xmm0, QWORD PTR [eax]
  00077	72 1b		 jb	 SHORT $LN5@OnPreRealD

; 555  : 			{		
; 556  : 				if(m_nDataType == MIN_TYPE)

  00079	83 7e 48 03	 cmp	 DWORD PTR [esi+72], 3
  0007d	75 08		 jne	 SHORT $LN7@OnPreRealD

; 557  : 					p_dData = m_dLastSimulateDateTime-50;

  0007f	f2 0f 5c 05 00
	00 00 00	 subsd	 xmm0, QWORD PTR __real@4049000000000000
$LN7@OnPreRealD:

; 558  : 				else
; 559  : 					p_dData = m_dLastSimulateDateTime;
; 560  : 
; 561  : 				m_bUpdateRealData = FALSE;

  00087	f2 0f 11 00	 movsd	 QWORD PTR [eax], xmm0
  0008b	c7 46 38 00 00
	00 00		 mov	 DWORD PTR [esi+56], 0
  00092	eb 07		 jmp	 SHORT $LN9@OnPreRealD
$LN5@OnPreRealD:

; 562  : 				return TRUE;
; 563  : 			}
; 564  : 			else
; 565  : 				m_bUpdateRealData = TRUE;

  00094	c7 46 38 01 00
	00 00		 mov	 DWORD PTR [esi+56], 1
$LN9@OnPreRealD:

; 566  : 		}
; 567  : 		else if(!m_bUpdateRealData)
; 568  : 			return TRUE;
; 569  : 	}

  0009b	8d 4d 10	 lea	 ecx, DWORD PTR _strPacketName$2[ebp]
  0009e	ff 15 00 00 00
	00		 call	 DWORD PTR __imp_??1?$CStringT@DV?$StrTraitMFC_DLL@DV?$ChTraitsCRT@D@ATL@@@@@ATL@@QAE@XZ
$LN2@OnPreRealD:

; 570  : 	
; 571  : 	return TRUE;

  000a4	8d 4d f0	 lea	 ecx, DWORD PTR _strRQ$[ebp]
  000a7	ff 15 00 00 00
	00		 call	 DWORD PTR __imp_??1?$CStringT@DV?$StrTraitMFC_DLL@DV?$ChTraitsCRT@D@ATL@@@@@ATL@@QAE@XZ
  000ad	b8 01 00 00 00	 mov	 eax, 1

; 572  : }

  000b2	8b 4d f4	 mov	 ecx, DWORD PTR __$EHRec$[ebp]
  000b5	64 89 0d 00 00
	00 00		 mov	 DWORD PTR fs:0, ecx
  000bc	59		 pop	 ecx
  000bd	5e		 pop	 esi
  000be	8b e5		 mov	 esp, ebp
  000c0	5d		 pop	 ebp
  000c1	c2 0c 00	 ret	 12			; 0000000cH
_TEXT	ENDS
;	COMDAT text$x
text$x	SEGMENT
__unwindfunclet$?OnPreRealData@CChartDataSimulatorAddInImp@@MAEHPBDAAN0@Z$0:
  00000	8d 4d f0	 lea	 ecx, DWORD PTR _strRQ$[ebp]
  00003	ff 25 00 00 00
	00		 jmp	 DWORD PTR __imp_??1?$CStringT@DV?$StrTraitMFC_DLL@DV?$ChTraitsCRT@D@ATL@@@@@ATL@@QAE@XZ
  00009	cc		 int	 3
  0000a	cc		 int	 3
  0000b	cc		 int	 3
  0000c	cc		 int	 3
  0000d	cc		 int	 3
__ehhandler$?OnPreRealData@CChartDataSimulatorAddInImp@@MAEHPBDAAN0@Z:
  0000e	90		 npad	 1
  0000f	90		 npad	 1
  00010	8b 54 24 08	 mov	 edx, DWORD PTR [esp+8]
  00014	8d 42 0c	 lea	 eax, DWORD PTR [edx+12]
  00017	8b 4a f4	 mov	 ecx, DWORD PTR [edx-12]
  0001a	33 c8		 xor	 ecx, eax
  0001c	e8 00 00 00 00	 call	 @__security_check_cookie@4
  00021	b8 00 00 00 00	 mov	 eax, OFFSET __ehfuncinfo$?OnPreRealData@CChartDataSimulatorAddInImp@@MAEHPBDAAN0@Z
  00026	e9 00 00 00 00	 jmp	 ___CxxFrameHandler3
text$x	ENDS
?OnPreRealData@CChartDataSimulatorAddInImp@@MAEHPBDAAN0@Z ENDP ; CChartDataSimulatorAddInImp::OnPreRealData
; Function compile flags: /Ogtp
; File D:\git\src\IBK\IBK_DRFN\ProjSrc\SrcChartEx\ChartAddIn\ChartDataListViewerAddIn\ChartDataListViewerAddIn\ChartDataSimulatorAddInImp.cpp
;	COMDAT ?OnPacketDataMultiItem@CChartDataSimulatorAddInImp@@MAEXPBD0H@Z
_TEXT	SEGMENT
_lpszRQ$ = 8						; size = 4
_p_szPacketNames$ = 12					; size = 4
_p_bWithReset$ = 16					; size = 4
?OnPacketDataMultiItem@CChartDataSimulatorAddInImp@@MAEXPBD0H@Z PROC ; CChartDataSimulatorAddInImp::OnPacketDataMultiItem, COMDAT
; _this$ = ecx

; 586  : {

  00000	56		 push	 esi
  00001	8b f1		 mov	 esi, ecx

; 587  : 	// (2004.10.13, )    Message   .
; 588  : 	// (2004.10.22, ) /      
; 589  : 	//			      TR  .
; 590  : 	//		    / /  ,
; 591  : 	//			/     Reset    .
; 592  : 	//		    1 Graph    
; 593  : 	//			( Data  AddIn  1   .)
; 594  : 	//			 Packet     .
; 595  : 	//		*.     Class Header 
; 596  : 	
; 597  : 	//if( !( BOOL)strstr( p_szPacketNames, CString( _MTEXT( C0_CLOSE)) + ";") || !p_bWithReset) return;
; 598  : 
; 599  : 	// (2004.10.14, )     .
; 600  : 	//ILPCSTR szHelpMsg;
; 601  : 	//if( m_pIDefaultPacketManager) m_pIDefaultPacketManager->GetHelpMessageItem( "RELPSA", szHelpMsg);
; 602  : 	//ResetRELPSA( szHelpMsg);
; 603  : 
; 604  : 	m_strSimulateRQ.Empty();

  00003	8d 4e 3c	 lea	 ecx, DWORD PTR [esi+60]
  00006	ff 15 00 00 00
	00		 call	 DWORD PTR __imp_?Empty@?$CSimpleStringT@D$00@ATL@@QAEXXZ

; 605  : 	m_nDataType				= -1;
; 606  : 	m_bUpdateRealData		= TRUE;
; 607  : 	m_dLastSimulateDateTime = -1;	

  0000c	f2 0f 10 05 00
	00 00 00	 movsd	 xmm0, QWORD PTR __real@bff0000000000000
  00014	c7 46 48 ff ff
	ff ff		 mov	 DWORD PTR [esi+72], -1
  0001b	c7 46 38 01 00
	00 00		 mov	 DWORD PTR [esi+56], 1
  00022	f2 0f 11 46 40	 movsd	 QWORD PTR [esi+64], xmm0
  00027	5e		 pop	 esi

; 608  : }

  00028	c2 0c 00	 ret	 12			; 0000000cH
?OnPacketDataMultiItem@CChartDataSimulatorAddInImp@@MAEXPBD0H@Z ENDP ; CChartDataSimulatorAddInImp::OnPacketDataMultiItem
_TEXT	ENDS
; Function compile flags: /Ogtp
; File D:\git\src\IBK\IBK_DRFN\ProjSrc\SrcChartEx\ChartAddIn\ChartDataListViewerAddIn\ChartDataListViewerAddIn\ChartDataSimulatorAddInImp.cpp
;	COMDAT ?OnToolCommand@CChartDataSimulatorAddInImp@@MAEXHH@Z
_TEXT	SEGMENT
_p_nToolType$ = 8					; size = 4
_p_nCmdOption$ = 12					; size = 4
?OnToolCommand@CChartDataSimulatorAddInImp@@MAEXHH@Z PROC ; CChartDataSimulatorAddInImp::OnToolCommand, COMDAT
; _this$ = ecx

; 70   : {

  00000	55		 push	 ebp
  00001	8b ec		 mov	 ebp, esp

; 71   : 	if( p_nToolType != CToolOptionInfo::T_DATA_SIMULATOR) return;

  00003	83 7d 08 75	 cmp	 DWORD PTR _p_nToolType$[ebp], 117 ; 00000075H
  00007	75 0a		 jne	 SHORT $LN1@OnToolComm

; 72   : 	OnAddInToolCommand( EAI_DATA_SIMULATOR);

  00009	8b 01		 mov	 eax, DWORD PTR [ecx]
  0000b	6a 3e		 push	 62			; 0000003eH
  0000d	ff 90 ec 00 00
	00		 call	 DWORD PTR [eax+236]
$LN1@OnToolComm:

; 73   : }

  00013	5d		 pop	 ebp
  00014	c2 08 00	 ret	 8
?OnToolCommand@CChartDataSimulatorAddInImp@@MAEXHH@Z ENDP ; CChartDataSimulatorAddInImp::OnToolCommand
_TEXT	ENDS
; Function compile flags: /Ogtp
; File D:\git\src\IBK\IBK_DRFN\ProjSrc\SrcChartEx\ChartAddIn\ChartDataListViewerAddIn\ChartDataListViewerAddIn\ChartDataSimulatorAddInImp.cpp
; File C:\Program Files (x86)\Microsoft Visual Studio\2019\Community\VC\Tools\MSVC\14.29.30133\atlmfc\include\atlsimpstr.h
; File D:\git\src\IBK\IBK_DRFN\ProjSrc\SrcChartEx\ChartAddIn\ChartDataListViewerAddIn\ChartDataListViewerAddIn\ChartDataSimulatorAddInImp.cpp
; File C:\Program Files (x86)\Microsoft Visual Studio\2019\Community\VC\Tools\MSVC\14.29.30133\atlmfc\include\afxtempl.h
; File D:\git\src\IBK\IBK_DRFN\ProjSrc\SrcChartEx\ChartAddIn\ChartDataListViewerAddIn\ChartDataListViewerAddIn\ChartDataSimulatorAddInImp.cpp
; File C:\Program Files (x86)\Microsoft Visual Studio\2019\Community\VC\Tools\MSVC\14.29.30133\atlmfc\include\afxtempl.h
; File D:\git\src\IBK\IBK_DRFN\ProjSrc\SrcChartEx\ChartAddIn\ChartDataListViewerAddIn\ChartDataListViewerAddIn\ChartDataSimulatorAddInImp.cpp
; File C:\Program Files (x86)\Microsoft Visual Studio\2019\Community\VC\Tools\MSVC\14.29.30133\atlmfc\include\afxtempl.h
; File D:\git\src\IBK\IBK_DRFN\ProjSrc\SrcChartEx\ChartAddIn\ChartDataListViewerAddIn\ChartDataListViewerAddIn\ChartDataSimulatorAddInImp.cpp
;	COMDAT ?SetDataToChartOCX@CChartDataSimulatorAddInImp@@IAEHPAUIPacketManager134221@@PAVCChartDataGridManager@@V?$CStringT@DV?$StrTraitMFC_DLL@DV?$ChTraitsCRT@D@ATL@@@@@ATL@@@Z
_TEXT	SEGMENT
__real@0000000000000000$1$ = -84			; size = 8
$T2 = -76						; size = 8
$T3 = -68						; size = 4
_pHeaderInfo$1$ = -64					; size = 4
tv694 = -60						; size = 4
_nMaxCols$1$ = -56					; size = 4
$T4 = -56						; size = 4
_this$1$ = -52						; size = 4
_nMaxRows$1$ = -48					; size = 4
$T5 = -48						; size = 4
_i$1$ = -44						; size = 4
_pIPacket$1$ = -40					; size = 4
_p_dBuf$1$ = -36					; size = 4
_strOutput$6 = -32					; size = 4
_strDate$7 = -28					; size = 4
_strInput$8 = -24					; size = 4
_strNewMsg$9 = -24					; size = 4
_strHelpMsg$ = -20					; size = 4
_strPacketName$ = -16					; size = 4
__$EHRec$ = -12						; size = 12
_pCurPacketManager$ = 8					; size = 4
_pChartDataGridManager$ = 12				; size = 4
_strLastDateTime$ = 16					; size = 4
?SetDataToChartOCX@CChartDataSimulatorAddInImp@@IAEHPAUIPacketManager134221@@PAVCChartDataGridManager@@V?$CStringT@DV?$StrTraitMFC_DLL@DV?$ChTraitsCRT@D@ATL@@@@@ATL@@@Z PROC ; CChartDataSimulatorAddInImp::SetDataToChartOCX, COMDAT
; _this$ = ecx

; 366  : {

  00000	55		 push	 ebp
  00001	8b ec		 mov	 ebp, esp
  00003	6a ff		 push	 -1
  00005	68 00 00 00 00	 push	 __ehhandler$?SetDataToChartOCX@CChartDataSimulatorAddInImp@@IAEHPAUIPacketManager134221@@PAVCChartDataGridManager@@V?$CStringT@DV?$StrTraitMFC_DLL@DV?$ChTraitsCRT@D@ATL@@@@@ATL@@@Z
  0000a	64 a1 00 00 00
	00		 mov	 eax, DWORD PTR fs:0
  00010	50		 push	 eax
  00011	83 ec 48	 sub	 esp, 72			; 00000048H
  00014	53		 push	 ebx
  00015	56		 push	 esi
  00016	57		 push	 edi
  00017	a1 00 00 00 00	 mov	 eax, DWORD PTR ___security_cookie
  0001c	33 c5		 xor	 eax, ebp
  0001e	50		 push	 eax
  0001f	8d 45 f4	 lea	 eax, DWORD PTR __$EHRec$[ebp]
  00022	64 a3 00 00 00
	00		 mov	 DWORD PTR fs:0, eax
  00028	8b d9		 mov	 ebx, ecx
  0002a	89 5d cc	 mov	 DWORD PTR _this$1$[ebp], ebx

; 367  : 	if(!pChartDataGridManager) return FALSE;

  0002d	8b 7d 0c	 mov	 edi, DWORD PTR _pChartDataGridManager$[ebp]
  00030	c7 45 fc 00 00
	00 00		 mov	 DWORD PTR __$EHRec$[ebp+8], 0
  00037	85 ff		 test	 edi, edi
  00039	74 1a		 je	 SHORT $LN35@SetDataToC
; File C:\Program Files (x86)\Microsoft Visual Studio\2019\Community\VC\Tools\MSVC\14.29.30133\atlmfc\include\atlsimpstr.h

; 519  : 		return( GetData()->nDataLength );

  0003b	8b 47 14	 mov	 eax, DWORD PTR [edi+20]

; 800  : 		return( reinterpret_cast< CStringData* >( m_pszData )-1 );

  0003e	8d 57 14	 lea	 edx, DWORD PTR [edi+20]

; 533  : 		return( GetLength() == 0 );

  00041	83 78 f4 00	 cmp	 DWORD PTR [eax-12], 0
; File D:\git\src\IBK\IBK_DRFN\ProjSrc\SrcChartEx\ChartAddIn\ChartDataListViewerAddIn\ChartDataListViewerAddIn\ChartDataSimulatorAddInImp.cpp

; 369  : 	if(pChartDataGridManager->m_strHelpMessage.IsEmpty())

  00045	75 2f		 jne	 SHORT $LN11@SetDataToC

; 370  : 	{
; 371  : 		AfxMessageBox("   .");

  00047	6a 00		 push	 0
  00049	6a 00		 push	 0
  0004b	68 00 00 00 00	 push	 OFFSET ??_C@_0CD@FFIBMNLA@?$LK?$LI?A?$LG?$LI?$NO?$LM?$LM?A?v?5?$LM?$LD?A?$KE?$LP?$KB?5?$MA?L?$LL?s?$MA?L?5?$MA?V?$LN?$MA?$LE?O@
  00050	e8 00 00 00 00	 call	 ?AfxMessageBox@@YGHPBDII@Z ; AfxMessageBox
$LN35@SetDataToC:
  00055	33 f6		 xor	 esi, esi
$LN36@SetDataToC:

; 509  : 
; 510  : 	return TRUE;

  00057	8d 4d 10	 lea	 ecx, DWORD PTR _strLastDateTime$[ebp]
  0005a	ff 15 00 00 00
	00		 call	 DWORD PTR __imp_??1?$CStringT@DV?$StrTraitMFC_DLL@DV?$ChTraitsCRT@D@ATL@@@@@ATL@@QAE@XZ
  00060	8b c6		 mov	 eax, esi

; 511  : }

  00062	8b 4d f4	 mov	 ecx, DWORD PTR __$EHRec$[ebp]
  00065	64 89 0d 00 00
	00 00		 mov	 DWORD PTR fs:0, ecx
  0006c	59		 pop	 ecx
  0006d	5f		 pop	 edi
  0006e	5e		 pop	 esi
  0006f	5b		 pop	 ebx
  00070	8b e5		 mov	 esp, ebp
  00072	5d		 pop	 ebp
  00073	c2 0c 00	 ret	 12			; 0000000cH
$LN11@SetDataToC:

; 372  : 		return FALSE;	
; 373  : 	}
; 374  : 
; 375  : 	// (2008/10/29 - Seung-Won, Bae) Remove TDC.
; 376  : 	CString strHelpMsg( pChartDataGridManager->m_strHelpMessage);

  00076	52		 push	 edx
  00077	8d 4d ec	 lea	 ecx, DWORD PTR _strHelpMsg$[ebp]
  0007a	ff 15 00 00 00
	00		 call	 DWORD PTR __imp_??0?$CStringT@DV?$StrTraitMFC_DLL@DV?$ChTraitsCRT@D@ATL@@@@@ATL@@QAE@ABV01@@Z

; 377  : 	int nTdcStart = strHelpMsg.Find( "TDC=");

  00080	6a 00		 push	 0
  00082	68 00 00 00 00	 push	 OFFSET ??_C@_04PIAMNFKE@TDC?$DN@
  00087	8d 4d ec	 lea	 ecx, DWORD PTR _strHelpMsg$[ebp]
  0008a	c6 45 fc 01	 mov	 BYTE PTR __$EHRec$[ebp+8], 1
  0008e	ff 15 00 00 00
	00		 call	 DWORD PTR __imp_?Find@?$CStringT@DV?$StrTraitMFC_DLL@DV?$ChTraitsCRT@D@ATL@@@@@ATL@@QBEHPBDH@Z
  00094	8b f0		 mov	 esi, eax

; 378  : 	if( 0 <= nTdcStart)

  00096	85 f6		 test	 esi, esi
  00098	0f 88 89 00 00
	00		 js	 $LN12@SetDataToC

; 379  : 	{
; 380  : 		CString strNewMsg = strHelpMsg.Left( nTdcStart + 4);

  0009e	8d 4e 04	 lea	 ecx, DWORD PTR [esi+4]
  000a1	51		 push	 ecx
  000a2	8d 45 e8	 lea	 eax, DWORD PTR _strNewMsg$9[ebp]
  000a5	50		 push	 eax
  000a6	8d 4d ec	 lea	 ecx, DWORD PTR _strHelpMsg$[ebp]
  000a9	ff 15 00 00 00
	00		 call	 DWORD PTR __imp_?Left@?$CStringT@DV?$StrTraitMFC_DLL@DV?$ChTraitsCRT@D@ATL@@@@@ATL@@QBE?AV12@H@Z

; 381  : 		int nTdcEnd = strHelpMsg.Find( "@", nTdcStart);

  000af	56		 push	 esi
  000b0	68 00 00 00 00	 push	 OFFSET ??_C@_01EOFPKCAF@?$EA@
  000b5	8d 4d ec	 lea	 ecx, DWORD PTR _strHelpMsg$[ebp]
  000b8	c6 45 fc 02	 mov	 BYTE PTR __$EHRec$[ebp+8], 2
  000bc	ff 15 00 00 00
	00		 call	 DWORD PTR __imp_?Find@?$CStringT@DV?$StrTraitMFC_DLL@DV?$ChTraitsCRT@D@ATL@@@@@ATL@@QBEHPBDH@Z

; 382  : 		if( 0 <= nTdcEnd) strNewMsg = strNewMsg + strHelpMsg.Mid( nTdcEnd);

  000c2	85 c0		 test	 eax, eax
  000c4	78 47		 js	 SHORT $LN13@SetDataToC
  000c6	50		 push	 eax
  000c7	8d 45 d0	 lea	 eax, DWORD PTR $T5[ebp]
  000ca	50		 push	 eax
  000cb	8d 4d ec	 lea	 ecx, DWORD PTR _strHelpMsg$[ebp]
  000ce	ff 15 00 00 00
	00		 call	 DWORD PTR __imp_?Mid@?$CStringT@DV?$StrTraitMFC_DLL@DV?$ChTraitsCRT@D@ATL@@@@@ATL@@QBE?AV12@H@Z
  000d4	50		 push	 eax
  000d5	8d 45 e8	 lea	 eax, DWORD PTR _strNewMsg$9[ebp]
  000d8	c6 45 fc 03	 mov	 BYTE PTR __$EHRec$[ebp+8], 3
  000dc	50		 push	 eax
  000dd	8d 45 c8	 lea	 eax, DWORD PTR $T4[ebp]
  000e0	50		 push	 eax
  000e1	e8 00 00 00 00	 call	 ??HATL@@YA?AV?$CStringT@DV?$StrTraitMFC_DLL@DV?$ChTraitsCRT@D@ATL@@@@@0@ABV10@0@Z ; ATL::operator+
  000e6	83 c4 0c	 add	 esp, 12			; 0000000cH
  000e9	50		 push	 eax
  000ea	8d 4d e8	 lea	 ecx, DWORD PTR _strNewMsg$9[ebp]
  000ed	c6 45 fc 04	 mov	 BYTE PTR __$EHRec$[ebp+8], 4
  000f1	ff 15 00 00 00
	00		 call	 DWORD PTR __imp_??4?$CStringT@DV?$StrTraitMFC_DLL@DV?$ChTraitsCRT@D@ATL@@@@@ATL@@QAEAAV01@ABV01@@Z
  000f7	8d 4d c8	 lea	 ecx, DWORD PTR $T4[ebp]
  000fa	ff 15 00 00 00
	00		 call	 DWORD PTR __imp_??1?$CStringT@DV?$StrTraitMFC_DLL@DV?$ChTraitsCRT@D@ATL@@@@@ATL@@QAE@XZ
  00100	8d 4d d0	 lea	 ecx, DWORD PTR $T5[ebp]
  00103	c6 45 fc 02	 mov	 BYTE PTR __$EHRec$[ebp+8], 2
  00107	ff 15 00 00 00
	00		 call	 DWORD PTR __imp_??1?$CStringT@DV?$StrTraitMFC_DLL@DV?$ChTraitsCRT@D@ATL@@@@@ATL@@QAE@XZ
$LN13@SetDataToC:

; 383  : 		strHelpMsg = strNewMsg;

  0010d	8d 45 e8	 lea	 eax, DWORD PTR _strNewMsg$9[ebp]
  00110	50		 push	 eax
  00111	8d 4d ec	 lea	 ecx, DWORD PTR _strHelpMsg$[ebp]
  00114	ff 15 00 00 00
	00		 call	 DWORD PTR __imp_??4?$CStringT@DV?$StrTraitMFC_DLL@DV?$ChTraitsCRT@D@ATL@@@@@ATL@@QAEAAV01@ABV01@@Z

; 384  : 	}

  0011a	8d 4d e8	 lea	 ecx, DWORD PTR _strNewMsg$9[ebp]
  0011d	c6 45 fc 01	 mov	 BYTE PTR __$EHRec$[ebp+8], 1
  00121	ff 15 00 00 00
	00		 call	 DWORD PTR __imp_??1?$CStringT@DV?$StrTraitMFC_DLL@DV?$ChTraitsCRT@D@ATL@@@@@ATL@@QAE@XZ
$LN12@SetDataToC:

; 385  : 
; 386  : 
; 387  : //20081107  >>
; 388  : //  
; 389  : //	CString strKey = "DATATIME=", strReplace="DATATIME=" + strLastDateTime + "@";
; 390  : //	CString strDateTime, strDateTime2;
; 391  : //	int nPosEnd, nPosStart = strHelpMsg.Find(strKey);
; 392  : //	if(nPosStart >= 0)
; 393  : //	{
; 394  : //		if((nPosEnd = strHelpMsg.Find("@", nPosStart)) >= 0)
; 395  : //		{
; 396  : //			CString strTemp = strHelpMsg.Left(nPosStart) + strReplace + strHelpMsg.Mid(nPosEnd+1);
; 397  : //			strHelpMsg		= strTemp;
; 398  : //		}
; 399  : //		else
; 400  : //		{
; 401  : //			CString strTemp = strHelpMsg.Left(nPosStart) + strReplace;
; 402  : //			strHelpMsg		= strTemp;
; 403  : //		}
; 404  : //	}
; 405  : //	else
; 406  : //	{
; 407  : //		strHelpMsg = strReplace + strHelpMsg;
; 408  : //	}
; 409  : //	strKey = "MARKETDAY=", strReplace = "MARKETDAY=" + strLastDateTime.Left(8) + "@";
; 410  : //	nPosStart = strHelpMsg.Find(strKey);
; 411  : //	if(nPosStart >= 0)
; 412  : //	{
; 413  : //		if((nPosEnd = strHelpMsg.Find("@", nPosStart)) >= 0)
; 414  : //		{
; 415  : //			CString strTemp = strHelpMsg.Left(nPosStart) + strReplace + strHelpMsg.Mid(nPosEnd+1);
; 416  : //			strHelpMsg		= strTemp;
; 417  : //		}
; 418  : //		else
; 419  : //		{
; 420  : //			CString strTemp = strHelpMsg.Left(nPosStart) + strReplace;
; 421  : //			strHelpMsg		= strTemp;
; 422  : //		}
; 423  : //	}
; 424  : //	else
; 425  : //	{
; 426  : //		strHelpMsg = strReplace + strHelpMsg;
; 427  : //	}
; 428  : //20081107  <<
; 429  : 
; 430  : 
; 431  : 	m_pIChartOCX->SetBinTrHelpMsg( strHelpMsg);	// SetBinTr     

  00127	8b 4b 0c	 mov	 ecx, DWORD PTR [ebx+12]
  0012a	ff 75 ec	 push	 DWORD PTR _strHelpMsg$[ebp]
  0012d	8b 01		 mov	 eax, DWORD PTR [ecx]
  0012f	ff 90 30 02 00
	00		 call	 DWORD PTR [eax+560]

; 432  : 	UINT nMaxRows = pChartDataGridManager->m_ChartDataList.GetCount();

  00135	8b 77 38	 mov	 esi, DWORD PTR [edi+56]

; 433  : 	UINT nMaxCols = pChartDataGridManager->m_ChartDataGridHeaderInfoArray.GetSize();
; 434  : 	CString strPacketName;

  00138	8d 4d f0	 lea	 ecx, DWORD PTR _strPacketName$[ebp]
  0013b	8b 47 20	 mov	 eax, DWORD PTR [edi+32]
  0013e	89 75 d0	 mov	 DWORD PTR _nMaxRows$1$[ebp], esi
  00141	89 45 c8	 mov	 DWORD PTR _nMaxCols$1$[ebp], eax
  00144	ff 15 00 00 00
	00		 call	 DWORD PTR __imp_??0?$CStringT@DV?$StrTraitMFC_DLL@DV?$ChTraitsCRT@D@ATL@@@@@ATL@@QAE@XZ

; 435  : 	UINT i, j;
; 436  : 	double* p_dBuf;
; 437  : 	POSITION pos;
; 438  : 	//////////////////////////////////////////////////////////////////////////
; 439  : 	// data import
; 440  : 	for( i = 0 ;i < nMaxCols ;i++ )

  0014a	33 db		 xor	 ebx, ebx
  0014c	c6 45 fc 05	 mov	 BYTE PTR __$EHRec$[ebp+8], 5
  00150	89 5d d4	 mov	 DWORD PTR _i$1$[ebp], ebx
  00153	39 5d c8	 cmp	 DWORD PTR _nMaxCols$1$[ebp], ebx
  00156	0f 86 8c 02 00
	00		 jbe	 $LN3@SetDataToC
  0015c	0f 57 c0	 xorps	 xmm0, xmm0
  0015f	8d 53 08	 lea	 edx, DWORD PTR [ebx+8]
  00162	f2 0f 11 45 ac	 movsd	 QWORD PTR __real@0000000000000000$1$[ebp], xmm0
$LL4@SetDataToC:

; 441  : 	{
; 442  : 		p_dBuf = new double[nMaxRows];

  00167	33 c9		 xor	 ecx, ecx
  00169	8b c6		 mov	 eax, esi
  0016b	f7 e2		 mul	 edx
  0016d	0f 90 c1	 seto	 cl
  00170	f7 d9		 neg	 ecx
  00172	0b c8		 or	 ecx, eax
  00174	51		 push	 ecx
  00175	e8 00 00 00 00	 call	 ??_U@YAPAXI@Z		; operator new[]

; 443  : 		memset(p_dBuf,0,sizeof(double)*(nMaxRows));

  0017a	8d 0c f5 00 00
	00 00		 lea	 ecx, DWORD PTR [esi*8]
  00181	89 45 dc	 mov	 DWORD PTR _p_dBuf$1$[ebp], eax
  00184	51		 push	 ecx
  00185	6a 00		 push	 0
  00187	50		 push	 eax
  00188	e8 00 00 00 00	 call	 _memset
  0018d	83 c4 10	 add	 esp, 16			; 00000010H
; File C:\Program Files (x86)\Microsoft Visual Studio\2019\Community\VC\Tools\MSVC\14.29.30133\atlmfc\include\afxtempl.h

; 288  : 	if(nIndex >= 0 && nIndex < m_nSize)

  00190	85 db		 test	 ebx, ebx
  00192	0f 88 7a 02 00
	00		 js	 $LN46@SetDataToC
  00198	3b 5f 20	 cmp	 ebx, DWORD PTR [edi+32]
  0019b	0f 8d 71 02 00
	00		 jge	 $LN46@SetDataToC

; 289  : 		return m_pData[nIndex];

  001a1	8b 47 1c	 mov	 eax, DWORD PTR [edi+28]
  001a4	8d 0c 9d 00 00
	00 00		 lea	 ecx, DWORD PTR [ebx*4]
  001ab	89 4d c4	 mov	 DWORD PTR tv694[ebp], ecx
; File D:\git\src\IBK\IBK_DRFN\ProjSrc\SrcChartEx\ChartAddIn\ChartDataListViewerAddIn\ChartDataListViewerAddIn\ChartDataSimulatorAddInImp.cpp

; 446  : 		CChartDataGridHeaderInfo * pHeaderInfo = pChartDataGridManager->m_ChartDataGridHeaderInfoArray.GetAt(i);

  001ae	8b 04 08	 mov	 eax, DWORD PTR [eax+ecx]

; 447  : 		strPacketName = pHeaderInfo->m_strTitle;

  001b1	8d 4d f0	 lea	 ecx, DWORD PTR _strPacketName$[ebp]
  001b4	89 45 c0	 mov	 DWORD PTR _pHeaderInfo$1$[ebp], eax
  001b7	83 c0 04	 add	 eax, 4
  001ba	50		 push	 eax
  001bb	ff 15 00 00 00
	00		 call	 DWORD PTR __imp_??4?$CStringT@DV?$StrTraitMFC_DLL@DV?$ChTraitsCRT@D@ATL@@@@@ATL@@QAEAAV01@ABV01@@Z

; 448  : 		
; 449  : 		IPacket *pIPacket = NULL;
; 450  : 		CString strDate;

  001c1	8d 4d e4	 lea	 ecx, DWORD PTR _strDate$7[ebp]
  001c4	ff 15 00 00 00
	00		 call	 DWORD PTR __imp_??0?$CStringT@DV?$StrTraitMFC_DLL@DV?$ChTraitsCRT@D@ATL@@@@@ATL@@QAE@XZ

; 451  : 		strDate.LoadString(IDS_DATE);

  001ca	6a 04		 push	 4
  001cc	8d 4d e4	 lea	 ecx, DWORD PTR _strDate$7[ebp]
  001cf	c6 45 fc 06	 mov	 BYTE PTR __$EHRec$[ebp+8], 6
  001d3	ff 15 00 00 00
	00		 call	 DWORD PTR __imp_?LoadStringA@?$CStringT@DV?$StrTraitMFC_DLL@DV?$ChTraitsCRT@D@ATL@@@@@ATL@@QAEHI@Z

; 452  : 		if(strPacketName.Find(strDate) >= 0)

  001d9	6a 00		 push	 0
  001db	ff 75 e4	 push	 DWORD PTR _strDate$7[ebp]
  001de	8d 4d f0	 lea	 ecx, DWORD PTR _strPacketName$[ebp]
  001e1	ff 15 00 00 00
	00		 call	 DWORD PTR __imp_?Find@?$CStringT@DV?$StrTraitMFC_DLL@DV?$ChTraitsCRT@D@ATL@@@@@ATL@@QBEHPBDH@Z
  001e7	85 c0		 test	 eax, eax
  001e9	a1 54 00 00 00	 mov	 eax, DWORD PTR ?g_iMetaTable@@3VIMetaTable@@A+84
  001ee	78 25		 js	 SHORT $LN14@SetDataToC

; 453  : 		{
; 454  : 			pIPacket		= pCurPacketManager->GetPacket(_MTEXT(C0_DATE_TIME));

  001f0	8b 4d 08	 mov	 ecx, DWORD PTR _pCurPacketManager$[ebp]
  001f3	ff 30		 push	 DWORD PTR [eax]
  001f5	8b 11		 mov	 edx, DWORD PTR [ecx]
  001f7	ff 52 14	 call	 DWORD PTR [edx+20]

; 455  : 			strPacketName	= _MTEXT(C0_DATE_TIME);

  001fa	8b 0d 54 00 00
	00		 mov	 ecx, DWORD PTR ?g_iMetaTable@@3VIMetaTable@@A+84
  00200	8b f0		 mov	 esi, eax
  00202	89 75 d8	 mov	 DWORD PTR _pIPacket$1$[ebp], esi
  00205	ff 31		 push	 DWORD PTR [ecx]
  00207	8d 4d f0	 lea	 ecx, DWORD PTR _strPacketName$[ebp]
  0020a	ff 15 00 00 00
	00		 call	 DWORD PTR __imp_??4?$CStringT@DV?$StrTraitMFC_DLL@DV?$ChTraitsCRT@D@ATL@@@@@ATL@@QAEAAV01@PBD@Z

; 456  : 		}				

  00210	e9 80 00 00 00	 jmp	 $LN17@SetDataToC
$LN14@SetDataToC:

; 457  : 		else if(strPacketName.Find( _LTEXT3( C3_VOLUME)) >= 0)

  00215	8b 75 cc	 mov	 esi, DWORD PTR _this$1$[ebp]
  00218	b9 00 00 00 00	 mov	 ecx, OFFSET ?g_iMetaTable@@3VIMetaTable@@A ; g_iMetaTable
  0021d	6a 00		 push	 0
  0021f	6a 00		 push	 0
  00221	ff b0 c4 04 00
	00		 push	 DWORD PTR [eax+1220]
  00227	6a 03		 push	 3
  00229	ff 76 14	 push	 DWORD PTR [esi+20]
  0022c	e8 00 00 00 00	 call	 ?GetLanguageText@IMetaTable@@QAEPBDPAUHWND__@@W4E_CODEPAGE@1@PBDH@Z ; IMetaTable::GetLanguageText
  00231	50		 push	 eax
  00232	8d 4d f0	 lea	 ecx, DWORD PTR _strPacketName$[ebp]
  00235	ff 15 00 00 00
	00		 call	 DWORD PTR __imp_?Find@?$CStringT@DV?$StrTraitMFC_DLL@DV?$ChTraitsCRT@D@ATL@@@@@ATL@@QBEHPBDH@Z
  0023b	85 c0		 test	 eax, eax
  0023d	78 28		 js	 SHORT $LN16@SetDataToC

; 458  : 		{
; 459  : 			pIPacket		= pCurPacketManager->GetPacket(_MTEXT(C0_VOLUME));

  0023f	8b 4d 08	 mov	 ecx, DWORD PTR _pCurPacketManager$[ebp]
  00242	a1 54 00 00 00	 mov	 eax, DWORD PTR ?g_iMetaTable@@3VIMetaTable@@A+84
  00247	8b 11		 mov	 edx, DWORD PTR [ecx]
  00249	ff 70 1c	 push	 DWORD PTR [eax+28]
  0024c	ff 52 14	 call	 DWORD PTR [edx+20]
  0024f	8b f0		 mov	 esi, eax

; 460  : 			strPacketName	= _MTEXT(C0_VOLUME);

  00251	8d 4d f0	 lea	 ecx, DWORD PTR _strPacketName$[ebp]
  00254	a1 54 00 00 00	 mov	 eax, DWORD PTR ?g_iMetaTable@@3VIMetaTable@@A+84
  00259	89 75 d8	 mov	 DWORD PTR _pIPacket$1$[ebp], esi
  0025c	ff 70 1c	 push	 DWORD PTR [eax+28]
  0025f	ff 15 00 00 00
	00		 call	 DWORD PTR __imp_??4?$CStringT@DV?$StrTraitMFC_DLL@DV?$ChTraitsCRT@D@ATL@@@@@ATL@@QAEAAV01@PBD@Z

; 461  : 		}

  00265	eb 2e		 jmp	 SHORT $LN17@SetDataToC
$LN16@SetDataToC:

; 462  : 		else
; 463  : 		{
; 464  : 			strPacketName	= _LTOM0( strPacketName);

  00267	6a 00		 push	 0
  00269	ff 75 f0	 push	 DWORD PTR _strPacketName$[ebp]
  0026c	b9 00 00 00 00	 mov	 ecx, OFFSET ?g_iMetaTable@@3VIMetaTable@@A ; g_iMetaTable
  00271	6a 00		 push	 0
  00273	ff 76 14	 push	 DWORD PTR [esi+20]
  00276	e8 00 00 00 00	 call	 ?GetMetaText@IMetaTable@@QAEPBDPAUHWND__@@W4E_CODEPAGE@1@PBDH@Z ; IMetaTable::GetMetaText
  0027b	50		 push	 eax
  0027c	8d 4d f0	 lea	 ecx, DWORD PTR _strPacketName$[ebp]
  0027f	ff 15 00 00 00
	00		 call	 DWORD PTR __imp_??4?$CStringT@DV?$StrTraitMFC_DLL@DV?$ChTraitsCRT@D@ATL@@@@@ATL@@QAEAAV01@PBD@Z

; 465  : 			pIPacket		= pCurPacketManager->GetPacket( strPacketName);

  00285	8b 4d 08	 mov	 ecx, DWORD PTR _pCurPacketManager$[ebp]
  00288	ff 75 f0	 push	 DWORD PTR _strPacketName$[ebp]
  0028b	8b 01		 mov	 eax, DWORD PTR [ecx]
  0028d	ff 50 14	 call	 DWORD PTR [eax+20]
  00290	8b f0		 mov	 esi, eax
  00292	89 45 d8	 mov	 DWORD PTR _pIPacket$1$[ebp], eax
$LN17@SetDataToC:

; 466  : 		}
; 467  : 		
; 468  : 		if(!pIPacket) continue;					

  00295	85 f6		 test	 esi, esi
  00297	75 12		 jne	 SHORT $LN18@SetDataToC
  00299	8d 4d e4	 lea	 ecx, DWORD PTR _strDate$7[ebp]
  0029c	c6 45 fc 05	 mov	 BYTE PTR __$EHRec$[ebp+8], 5
  002a0	ff 15 00 00 00
	00		 call	 DWORD PTR __imp_??1?$CStringT@DV?$StrTraitMFC_DLL@DV?$ChTraitsCRT@D@ATL@@@@@ATL@@QAE@XZ
  002a6	e9 28 01 00 00	 jmp	 $LN2@SetDataToC
$LN18@SetDataToC:

; 469  : 		
; 470  : 		pIPacket->ClearData(true);

  002ab	8b 06		 mov	 eax, DWORD PTR [esi]
  002ad	8b ce		 mov	 ecx, esi
  002af	6a 01		 push	 1
  002b1	ff 50 50	 call	 DWORD PTR [eax+80]

; 471  : 		
; 472  : 
; 473  : 		for( j = 0 , pos = pChartDataGridManager->m_ChartDataList.GetHeadPosition(); pos && j < nMaxRows ; j++ )

  002b4	8b 7f 30	 mov	 edi, DWORD PTR [edi+48]
  002b7	33 f6		 xor	 esi, esi
  002b9	85 ff		 test	 edi, edi
  002bb	0f 84 d8 00 00
	00		 je	 $LN6@SetDataToC
$LL7@SetDataToC:
  002c1	3b 75 d0	 cmp	 esi, DWORD PTR _nMaxRows$1$[ebp]
  002c4	0f 83 cc 00 00
	00		 jae	 $LN71@SetDataToC

; 475  : 			CChartRecordSet * pRecordSet = pChartDataGridManager->m_ChartDataList.GetNext(pos);

  002ca	8b 47 08	 mov	 eax, DWORD PTR [edi+8]
  002cd	8b 5d c4	 mov	 ebx, DWORD PTR tv694[ebp]
; File C:\Program Files (x86)\Microsoft Visual Studio\2019\Community\VC\Tools\MSVC\14.29.30133\atlmfc\include\afxtempl.h

; 813  : 		rPosition = (POSITION) pNode->pNext;

  002d0	8b 3f		 mov	 edi, DWORD PTR [edi]
; File D:\git\src\IBK\IBK_DRFN\ProjSrc\SrcChartEx\ChartAddIn\ChartDataListViewerAddIn\ChartDataListViewerAddIn\ChartDataSimulatorAddInImp.cpp

; 475  : 			CChartRecordSet * pRecordSet = pChartDataGridManager->m_ChartDataList.GetNext(pos);

  002d2	03 d8		 add	 ebx, eax

; 476  : 
; 477  : 			switch(i)

  002d4	83 7d d4 00	 cmp	 DWORD PTR _i$1$[ebp], 0
  002d8	0f 84 9e 00 00
	00		 je	 $LN19@SetDataToC

; 483  : 				}
; 484  : 				break;
; 485  : 			default:
; 486  : 				{
; 487  : 					CString strInput;

  002de	8d 4d e8	 lea	 ecx, DWORD PTR _strInput$8[ebp]
  002e1	ff 15 00 00 00
	00		 call	 DWORD PTR __imp_??0?$CStringT@DV?$StrTraitMFC_DLL@DV?$ChTraitsCRT@D@ATL@@@@@ATL@@QAE@XZ

; 488  : 					CString strOutput;

  002e7	8d 4d e0	 lea	 ecx, DWORD PTR _strOutput$6[ebp]
  002ea	ff 15 00 00 00
	00		 call	 DWORD PTR __imp_??0?$CStringT@DV?$StrTraitMFC_DLL@DV?$ChTraitsCRT@D@ATL@@@@@ATL@@QAE@XZ

; 489  : 					strInput = pRecordSet->m_Data[i];

  002f0	53		 push	 ebx
  002f1	8d 4d e8	 lea	 ecx, DWORD PTR _strInput$8[ebp]
  002f4	c6 45 fc 08	 mov	 BYTE PTR __$EHRec$[ebp+8], 8
  002f8	ff 15 00 00 00
	00		 call	 DWORD PTR __imp_??4?$CStringT@DV?$StrTraitMFC_DLL@DV?$ChTraitsCRT@D@ATL@@@@@ATL@@QAEAAV01@ABV01@@Z

; 490  : 					strInput.Remove(',');

  002fe	6a 2c		 push	 44			; 0000002cH
  00300	8d 4d e8	 lea	 ecx, DWORD PTR _strInput$8[ebp]
  00303	ff 15 00 00 00
	00		 call	 DWORD PTR __imp_?Remove@?$CStringT@DV?$StrTraitMFC_DLL@DV?$ChTraitsCRT@D@ATL@@@@@ATL@@QAEHD@Z

; 491  : 					if(!CDataConversion::GetDataToDec(strInput, pHeaderInfo->m_strPacketType, strOutput))

  00309	8d 45 e0	 lea	 eax, DWORD PTR _strOutput$6[ebp]
  0030c	50		 push	 eax
  0030d	8b 45 c0	 mov	 eax, DWORD PTR _pHeaderInfo$1$[ebp]
  00310	51		 push	 ecx
  00311	83 c0 08	 add	 eax, 8
  00314	89 65 bc	 mov	 DWORD PTR $T3[ebp], esp
  00317	8b cc		 mov	 ecx, esp
  00319	50		 push	 eax
  0031a	ff 15 00 00 00
	00		 call	 DWORD PTR __imp_??0?$CStringT@DV?$StrTraitMFC_DLL@DV?$ChTraitsCRT@D@ATL@@@@@ATL@@QAE@ABV01@@Z
  00320	51		 push	 ecx
  00321	8d 45 e8	 lea	 eax, DWORD PTR _strInput$8[ebp]
  00324	c6 45 fc 09	 mov	 BYTE PTR __$EHRec$[ebp+8], 9
  00328	8b cc		 mov	 ecx, esp
  0032a	50		 push	 eax
  0032b	ff 15 00 00 00
	00		 call	 DWORD PTR __imp_??0?$CStringT@DV?$StrTraitMFC_DLL@DV?$ChTraitsCRT@D@ATL@@@@@ATL@@QAE@ABV01@@Z
  00331	c6 45 fc 08	 mov	 BYTE PTR __$EHRec$[ebp+8], 8
  00335	e8 00 00 00 00	 call	 ?GetDataToDec@CDataConversion@@SAHV?$CStringT@DV?$StrTraitMFC_DLL@DV?$ChTraitsCRT@D@ATL@@@@@ATL@@0AAV23@@Z ; CDataConversion::GetDataToDec
  0033a	83 c4 0c	 add	 esp, 12			; 0000000cH
  0033d	85 c0		 test	 eax, eax
  0033f	75 07		 jne	 SHORT $LN21@SetDataToC

; 492  : 						//p_dBuf[nMaxRows - 1 - j] = 0.;
; 493  : 						p_dBuf[j] = 0.;

  00341	f2 0f 10 45 ac	 movsd	 xmm0, QWORD PTR __real@0000000000000000$1$[ebp]
  00346	eb 14		 jmp	 SHORT $LN22@SetDataToC
$LN21@SetDataToC:

; 494  : 					else
; 495  : 						//p_dBuf[nMaxRows - 1 - j] = atof(strOutput);
; 496  : 						p_dBuf[j] = atof(strOutput);

  00348	ff 75 e0	 push	 DWORD PTR _strOutput$6[ebp]
  0034b	ff 15 00 00 00
	00		 call	 DWORD PTR __imp__atof
  00351	dd 5d b4	 fstp	 QWORD PTR $T2[ebp]
  00354	f2 0f 10 45 b4	 movsd	 xmm0, QWORD PTR $T2[ebp]
  00359	83 c4 04	 add	 esp, 4
$LN22@SetDataToC:

; 497  : 				}

  0035c	8b 45 dc	 mov	 eax, DWORD PTR _p_dBuf$1$[ebp]
  0035f	8d 4d e0	 lea	 ecx, DWORD PTR _strOutput$6[ebp]
  00362	f2 0f 11 04 f0	 movsd	 QWORD PTR [eax+esi*8], xmm0
  00367	ff 15 00 00 00
	00		 call	 DWORD PTR __imp_??1?$CStringT@DV?$StrTraitMFC_DLL@DV?$ChTraitsCRT@D@ATL@@@@@ATL@@QAE@XZ
  0036d	8d 4d e8	 lea	 ecx, DWORD PTR _strInput$8[ebp]
  00370	c6 45 fc 06	 mov	 BYTE PTR __$EHRec$[ebp+8], 6
  00374	ff 15 00 00 00
	00		 call	 DWORD PTR __imp_??1?$CStringT@DV?$StrTraitMFC_DLL@DV?$ChTraitsCRT@D@ATL@@@@@ATL@@QAE@XZ
  0037a	eb 11		 jmp	 SHORT $LN5@SetDataToC
$LN19@SetDataToC:

; 478  : 			{
; 479  : 			case DATE_TIME:
; 480  : 				{
; 481  : 					//p_dBuf[nMaxRows - 1 - j] = atof(pRecordSet->m_Data[i]);
; 482  : 					p_dBuf[j] = atof(pRecordSet->m_Data[i]);

  0037c	ff 33		 push	 DWORD PTR [ebx]
  0037e	ff 15 00 00 00
	00		 call	 DWORD PTR __imp__atof
  00384	8b 45 dc	 mov	 eax, DWORD PTR _p_dBuf$1$[ebp]
  00387	83 c4 04	 add	 esp, 4
  0038a	dd 1c f0	 fstp	 QWORD PTR [eax+esi*8]
$LN5@SetDataToC:

; 471  : 		
; 472  : 
; 473  : 		for( j = 0 , pos = pChartDataGridManager->m_ChartDataList.GetHeadPosition(); pos && j < nMaxRows ; j++ )

  0038d	46		 inc	 esi
  0038e	85 ff		 test	 edi, edi
  00390	0f 85 2b ff ff
	ff		 jne	 $LL7@SetDataToC
$LN71@SetDataToC:
  00396	8b 5d d4	 mov	 ebx, DWORD PTR _i$1$[ebp]
$LN6@SetDataToC:

; 498  : 				break;
; 499  : 			}
; 500  : 		}					
; 501  : 
; 502  : 		m_pIChartOCX->SetBinTrDoubleData(strPacketName, nMaxRows, p_dBuf);

  00399	8b 45 cc	 mov	 eax, DWORD PTR _this$1$[ebp]
  0039c	8b 75 dc	 mov	 esi, DWORD PTR _p_dBuf$1$[ebp]
  0039f	56		 push	 esi
  003a0	ff 75 d0	 push	 DWORD PTR _nMaxRows$1$[ebp]
  003a3	8b 48 0c	 mov	 ecx, DWORD PTR [eax+12]
  003a6	ff 75 f0	 push	 DWORD PTR _strPacketName$[ebp]
  003a9	8b 01		 mov	 eax, DWORD PTR [ecx]
  003ab	ff 90 34 02 00
	00		 call	 DWORD PTR [eax+564]

; 503  : 		delete []p_dBuf;

  003b1	56		 push	 esi
  003b2	e8 00 00 00 00	 call	 ??_V@YAXPAX@Z		; operator delete[]

; 504  : 		pIPacket->Release();

  003b7	8b 4d d8	 mov	 ecx, DWORD PTR _pIPacket$1$[ebp]
  003ba	83 c4 04	 add	 esp, 4
  003bd	8b 01		 mov	 eax, DWORD PTR [ecx]
  003bf	51		 push	 ecx
  003c0	ff 50 08	 call	 DWORD PTR [eax+8]

; 505  : 	}

  003c3	8d 4d e4	 lea	 ecx, DWORD PTR _strDate$7[ebp]
  003c6	c6 45 fc 05	 mov	 BYTE PTR __$EHRec$[ebp+8], 5
  003ca	ff 15 00 00 00
	00		 call	 DWORD PTR __imp_??1?$CStringT@DV?$StrTraitMFC_DLL@DV?$ChTraitsCRT@D@ATL@@@@@ATL@@QAE@XZ
  003d0	8b 7d 0c	 mov	 edi, DWORD PTR _pChartDataGridManager$[ebp]
$LN2@SetDataToC:

; 435  : 	UINT i, j;
; 436  : 	double* p_dBuf;
; 437  : 	POSITION pos;
; 438  : 	//////////////////////////////////////////////////////////////////////////
; 439  : 	// data import
; 440  : 	for( i = 0 ;i < nMaxCols ;i++ )

  003d3	8b 75 d0	 mov	 esi, DWORD PTR _nMaxRows$1$[ebp]
  003d6	43		 inc	 ebx
  003d7	ba 08 00 00 00	 mov	 edx, 8
  003dc	89 5d d4	 mov	 DWORD PTR _i$1$[ebp], ebx
  003df	3b 5d c8	 cmp	 ebx, DWORD PTR _nMaxCols$1$[ebp]
  003e2	0f 82 7f fd ff
	ff		 jb	 $LL4@SetDataToC
$LN3@SetDataToC:

; 506  : 	
; 507  : 	// import end
; 508  : 	m_pIChartOCX->SetBinTrEnd();

  003e8	8b 45 cc	 mov	 eax, DWORD PTR _this$1$[ebp]
  003eb	8b 48 0c	 mov	 ecx, DWORD PTR [eax+12]
  003ee	8b 01		 mov	 eax, DWORD PTR [ecx]
  003f0	ff 90 3c 02 00
	00		 call	 DWORD PTR [eax+572]

; 509  : 
; 510  : 	return TRUE;

  003f6	8d 4d f0	 lea	 ecx, DWORD PTR _strPacketName$[ebp]
  003f9	be 01 00 00 00	 mov	 esi, 1
  003fe	ff 15 00 00 00
	00		 call	 DWORD PTR __imp_??1?$CStringT@DV?$StrTraitMFC_DLL@DV?$ChTraitsCRT@D@ATL@@@@@ATL@@QAE@XZ
  00404	8d 4d ec	 lea	 ecx, DWORD PTR _strHelpMsg$[ebp]
  00407	ff 15 00 00 00
	00		 call	 DWORD PTR __imp_??1?$CStringT@DV?$StrTraitMFC_DLL@DV?$ChTraitsCRT@D@ATL@@@@@ATL@@QAE@XZ
  0040d	e9 45 fc ff ff	 jmp	 $LN36@SetDataToC
$LN46@SetDataToC:
; File C:\Program Files (x86)\Microsoft Visual Studio\2019\Community\VC\Tools\MSVC\14.29.30133\atlmfc\include\afxtempl.h

; 290  : 	AfxThrowInvalidArgException();

  00412	e8 00 00 00 00	 call	 ?AfxThrowInvalidArgException@@YGXXZ ; AfxThrowInvalidArgException
$LN73@SetDataToC:
  00417	cc		 int	 3
_TEXT	ENDS
;	COMDAT text$x
text$x	SEGMENT
__unwindfunclet$?SetDataToChartOCX@CChartDataSimulatorAddInImp@@IAEHPAUIPacketManager134221@@PAVCChartDataGridManager@@V?$CStringT@DV?$StrTraitMFC_DLL@DV?$ChTraitsCRT@D@ATL@@@@@ATL@@@Z$0:
  00000	8d 4d 10	 lea	 ecx, DWORD PTR _strLastDateTime$[ebp]
  00003	ff 25 00 00 00
	00		 jmp	 DWORD PTR __imp_??1?$CStringT@DV?$StrTraitMFC_DLL@DV?$ChTraitsCRT@D@ATL@@@@@ATL@@QAE@XZ
__unwindfunclet$?SetDataToChartOCX@CChartDataSimulatorAddInImp@@IAEHPAUIPacketManager134221@@PAVCChartDataGridManager@@V?$CStringT@DV?$StrTraitMFC_DLL@DV?$ChTraitsCRT@D@ATL@@@@@ATL@@@Z$1:
  00009	8d 4d ec	 lea	 ecx, DWORD PTR _strHelpMsg$[ebp]
  0000c	ff 25 00 00 00
	00		 jmp	 DWORD PTR __imp_??1?$CStringT@DV?$StrTraitMFC_DLL@DV?$ChTraitsCRT@D@ATL@@@@@ATL@@QAE@XZ
__unwindfunclet$?SetDataToChartOCX@CChartDataSimulatorAddInImp@@IAEHPAUIPacketManager134221@@PAVCChartDataGridManager@@V?$CStringT@DV?$StrTraitMFC_DLL@DV?$ChTraitsCRT@D@ATL@@@@@ATL@@@Z$2:
  00012	8d 4d e8	 lea	 ecx, DWORD PTR _strNewMsg$9[ebp]
  00015	ff 25 00 00 00
	00		 jmp	 DWORD PTR __imp_??1?$CStringT@DV?$StrTraitMFC_DLL@DV?$ChTraitsCRT@D@ATL@@@@@ATL@@QAE@XZ
__unwindfunclet$?SetDataToChartOCX@CChartDataSimulatorAddInImp@@IAEHPAUIPacketManager134221@@PAVCChartDataGridManager@@V?$CStringT@DV?$StrTraitMFC_DLL@DV?$ChTraitsCRT@D@ATL@@@@@ATL@@@Z$3:
  0001b	8d 4d d0	 lea	 ecx, DWORD PTR $T5[ebp]
  0001e	ff 25 00 00 00
	00		 jmp	 DWORD PTR __imp_??1?$CStringT@DV?$StrTraitMFC_DLL@DV?$ChTraitsCRT@D@ATL@@@@@ATL@@QAE@XZ
__unwindfunclet$?SetDataToChartOCX@CChartDataSimulatorAddInImp@@IAEHPAUIPacketManager134221@@PAVCChartDataGridManager@@V?$CStringT@DV?$StrTraitMFC_DLL@DV?$ChTraitsCRT@D@ATL@@@@@ATL@@@Z$4:
  00024	8d 4d c8	 lea	 ecx, DWORD PTR $T4[ebp]
  00027	ff 25 00 00 00
	00		 jmp	 DWORD PTR __imp_??1?$CStringT@DV?$StrTraitMFC_DLL@DV?$ChTraitsCRT@D@ATL@@@@@ATL@@QAE@XZ
__unwindfunclet$?SetDataToChartOCX@CChartDataSimulatorAddInImp@@IAEHPAUIPacketManager134221@@PAVCChartDataGridManager@@V?$CStringT@DV?$StrTraitMFC_DLL@DV?$ChTraitsCRT@D@ATL@@@@@ATL@@@Z$5:
  0002d	8d 4d f0	 lea	 ecx, DWORD PTR _strPacketName$[ebp]
  00030	ff 25 00 00 00
	00		 jmp	 DWORD PTR __imp_??1?$CStringT@DV?$StrTraitMFC_DLL@DV?$ChTraitsCRT@D@ATL@@@@@ATL@@QAE@XZ
__unwindfunclet$?SetDataToChartOCX@CChartDataSimulatorAddInImp@@IAEHPAUIPacketManager134221@@PAVCChartDataGridManager@@V?$CStringT@DV?$StrTraitMFC_DLL@DV?$ChTraitsCRT@D@ATL@@@@@ATL@@@Z$6:
  00036	8d 4d e4	 lea	 ecx, DWORD PTR _strDate$7[ebp]
  00039	ff 25 00 00 00
	00		 jmp	 DWORD PTR __imp_??1?$CStringT@DV?$StrTraitMFC_DLL@DV?$ChTraitsCRT@D@ATL@@@@@ATL@@QAE@XZ
__unwindfunclet$?SetDataToChartOCX@CChartDataSimulatorAddInImp@@IAEHPAUIPacketManager134221@@PAVCChartDataGridManager@@V?$CStringT@DV?$StrTraitMFC_DLL@DV?$ChTraitsCRT@D@ATL@@@@@ATL@@@Z$7:
  0003f	8d 4d e8	 lea	 ecx, DWORD PTR _strInput$8[ebp]
  00042	ff 25 00 00 00
	00		 jmp	 DWORD PTR __imp_??1?$CStringT@DV?$StrTraitMFC_DLL@DV?$ChTraitsCRT@D@ATL@@@@@ATL@@QAE@XZ
__unwindfunclet$?SetDataToChartOCX@CChartDataSimulatorAddInImp@@IAEHPAUIPacketManager134221@@PAVCChartDataGridManager@@V?$CStringT@DV?$StrTraitMFC_DLL@DV?$ChTraitsCRT@D@ATL@@@@@ATL@@@Z$8:
  00048	8d 4d e0	 lea	 ecx, DWORD PTR _strOutput$6[ebp]
  0004b	ff 25 00 00 00
	00		 jmp	 DWORD PTR __imp_??1?$CStringT@DV?$StrTraitMFC_DLL@DV?$ChTraitsCRT@D@ATL@@@@@ATL@@QAE@XZ
__unwindfunclet$?SetDataToChartOCX@CChartDataSimulatorAddInImp@@IAEHPAUIPacketManager134221@@PAVCChartDataGridManager@@V?$CStringT@DV?$StrTraitMFC_DLL@DV?$ChTraitsCRT@D@ATL@@@@@ATL@@@Z$9:
  00051	8b 4d bc	 mov	 ecx, DWORD PTR $T3[ebp]
  00054	ff 25 00 00 00
	00		 jmp	 DWORD PTR __imp_??1?$CStringT@DV?$StrTraitMFC_DLL@DV?$ChTraitsCRT@D@ATL@@@@@ATL@@QAE@XZ
  0005a	cc		 int	 3
  0005b	cc		 int	 3
  0005c	cc		 int	 3
  0005d	cc		 int	 3
  0005e	cc		 int	 3
__ehhandler$?SetDataToChartOCX@CChartDataSimulatorAddInImp@@IAEHPAUIPacketManager134221@@PAVCChartDataGridManager@@V?$CStringT@DV?$StrTraitMFC_DLL@DV?$ChTraitsCRT@D@ATL@@@@@ATL@@@Z:
  0005f	90		 npad	 1
  00060	90		 npad	 1
  00061	8b 54 24 08	 mov	 edx, DWORD PTR [esp+8]
  00065	8d 42 0c	 lea	 eax, DWORD PTR [edx+12]
  00068	8b 4a a8	 mov	 ecx, DWORD PTR [edx-88]
  0006b	33 c8		 xor	 ecx, eax
  0006d	e8 00 00 00 00	 call	 @__security_check_cookie@4
  00072	b8 00 00 00 00	 mov	 eax, OFFSET __ehfuncinfo$?SetDataToChartOCX@CChartDataSimulatorAddInImp@@IAEHPAUIPacketManager134221@@PAVCChartDataGridManager@@V?$CStringT@DV?$StrTraitMFC_DLL@DV?$ChTraitsCRT@D@ATL@@@@@ATL@@@Z
  00077	e9 00 00 00 00	 jmp	 ___CxxFrameHandler3
text$x	ENDS
?SetDataToChartOCX@CChartDataSimulatorAddInImp@@IAEHPAUIPacketManager134221@@PAVCChartDataGridManager@@V?$CStringT@DV?$StrTraitMFC_DLL@DV?$ChTraitsCRT@D@ATL@@@@@ATL@@@Z ENDP ; CChartDataSimulatorAddInImp::SetDataToChartOCX
; Function compile flags: /Ogtp
; File D:\git\src\IBK\IBK_DRFN\ProjSrc\SrcChartEx\ChartAddIn\ChartDataListViewerAddIn\ChartDataListViewerAddIn\ChartDataSimulatorAddInImp.cpp
; File D:\git\src\IBK\IBK_DRFN\ProjSrc\SrcChartEx\ChartAddIn\ChartDataListViewerAddIn\Include_Addin_134221\I134221\_IString.h
; File D:\git\src\IBK\IBK_DRFN\ProjSrc\SrcChartEx\ChartAddIn\ChartDataListViewerAddIn\ChartDataListViewerAddIn\ChartDataSimulatorAddInImp.cpp
; File C:\Program Files (x86)\Microsoft Visual Studio\2019\Community\VC\Tools\MSVC\14.29.30133\atlmfc\include\afxtempl.h
; File D:\git\src\IBK\IBK_DRFN\ProjSrc\SrcChartEx\ChartAddIn\ChartDataListViewerAddIn\ChartDataListViewerAddIn\ChartDataSimulatorAddInImp.cpp
; File C:\Program Files (x86)\Microsoft Visual Studio\2019\Community\VC\Tools\MSVC\14.29.30133\atlmfc\include\afxtempl.h
; File D:\git\src\IBK\IBK_DRFN\ProjSrc\SrcChartEx\ChartAddIn\ChartDataListViewerAddIn\ChartDataListViewerAddIn\ChartDataSimulatorAddInImp.cpp
; File C:\Program Files (x86)\Microsoft Visual Studio\2019\Community\VC\Tools\MSVC\14.29.30133\atlmfc\include\afxtempl.h
; File D:\git\src\IBK\IBK_DRFN\ProjSrc\SrcChartEx\ChartAddIn\ChartDataListViewerAddIn\ChartDataListViewerAddIn\ChartDataSimulatorAddInImp.cpp
; File C:\Program Files (x86)\Microsoft Visual Studio\2019\Community\VC\Tools\MSVC\14.29.30133\atlmfc\include\afxtempl.h
; File D:\git\src\IBK\IBK_DRFN\ProjSrc\SrcChartEx\ChartAddIn\ChartDataListViewerAddIn\ChartDataListViewerAddIn\ChartDataSimulatorAddInImp.cpp
; File D:\git\src\IBK\IBK_DRFN\ProjSrc\SrcChartEx\ChartAddIn\ChartDataListViewerAddIn\Include_Chart\Conversion.h
; File D:\git\src\IBK\IBK_DRFN\ProjSrc\SrcChartEx\ChartAddIn\ChartDataListViewerAddIn\ChartDataListViewerAddIn\ChartDataSimulatorAddInImp.cpp
; File D:\git\src\IBK\IBK_DRFN\ProjSrc\SrcChartEx\ChartAddIn\ChartDataListViewerAddIn\Include_Chart\Conversion.h
; File D:\git\src\IBK\IBK_DRFN\ProjSrc\SrcChartEx\ChartAddIn\ChartDataListViewerAddIn\ChartDataListViewerAddIn\ChartDataSimulatorAddInImp.cpp
; File C:\Program Files (x86)\Microsoft Visual Studio\2019\Community\VC\Tools\MSVC\14.29.30133\atlmfc\include\afxtempl.h
; File D:\git\src\IBK\IBK_DRFN\ProjSrc\SrcChartEx\ChartAddIn\ChartDataListViewerAddIn\ChartDataListViewerAddIn\ChartDataSimulatorAddInImp.cpp
; File C:\Program Files (x86)\Microsoft Visual Studio\2019\Community\VC\Tools\MSVC\14.29.30133\atlmfc\include\afxtempl.h
; File D:\git\src\IBK\IBK_DRFN\ProjSrc\SrcChartEx\ChartAddIn\ChartDataListViewerAddIn\ChartDataListViewerAddIn\ChartDataSimulatorAddInImp.cpp
; File C:\Program Files (x86)\Microsoft Visual Studio\2019\Community\VC\Tools\MSVC\14.29.30133\atlmfc\include\afxtempl.h
; File D:\git\src\IBK\IBK_DRFN\ProjSrc\SrcChartEx\ChartAddIn\ChartDataListViewerAddIn\ChartDataListViewerAddIn\ChartDataSimulatorAddInImp.cpp
; File C:\Program Files (x86)\Microsoft Visual Studio\2019\Community\VC\Tools\MSVC\14.29.30133\atlmfc\include\afxtempl.h
; File D:\git\src\IBK\IBK_DRFN\ProjSrc\SrcChartEx\ChartAddIn\ChartDataListViewerAddIn\ChartDataListViewerAddIn\ChartDataSimulatorAddInImp.cpp
; File C:\Program Files (x86)\Microsoft Visual Studio\2019\Community\VC\Tools\MSVC\14.29.30133\atlmfc\include\afxtempl.h
; File D:\git\src\IBK\IBK_DRFN\ProjSrc\SrcChartEx\ChartAddIn\ChartDataListViewerAddIn\ChartDataListViewerAddIn\ChartDataSimulatorAddInImp.cpp
; File D:\git\src\IBK\IBK_DRFN\ProjSrc\SrcChartEx\ChartAddIn\ChartDataListViewerAddIn\Include_Addin_134221\I134221\_IString.h
; File D:\git\src\IBK\IBK_DRFN\ProjSrc\SrcChartEx\ChartAddIn\ChartDataListViewerAddIn\ChartDataListViewerAddIn\ChartDataSimulatorAddInImp.cpp
; File C:\Program Files (x86)\Microsoft Visual Studio\2019\Community\VC\Tools\MSVC\14.29.30133\atlmfc\include\afxtempl.h
; File D:\git\src\IBK\IBK_DRFN\ProjSrc\SrcChartEx\ChartAddIn\ChartDataListViewerAddIn\ChartDataListViewerAddIn\ChartDataSimulatorAddInImp.cpp
;	COMDAT ?GetDataFromPacketList@CChartDataSimulatorAddInImp@@IAEHHPBD0PAVCChartDataGridManager@@H@Z
_TEXT	SEGMENT
$T2 = -56						; size = 8
_IPacketType$ = -48					; size = 8
_dData$ = -40						; size = 8
$T3 = -32						; size = 4
_pPacket$1$ = -28					; size = 4
_this$1$ = -24						; size = 4
_strPacketType$ = -20					; size = 4
_pos$ = -16						; size = 4
__$EHRec$ = -12						; size = 12
_nDiff$1$ = 8						; size = 4
_nColIndex$ = 8						; size = 4
_strData$ = 12						; size = 4
_szRQ$ = 12						; size = 4
_nIndex$1$ = 16						; size = 4
_posChartDataList$1$ = 16				; size = 4
_iIndex$2$ = 16						; size = 4
$T4 = 16						; size = 4
_szPacketName$ = 16					; size = 4
_iIndex$1$ = 20						; size = 4
_pOutChartDataList$1$ = 20				; size = 4
_pHeaderInfo$1$ = 20					; size = 4
_pOutChartDataGridManager$ = 20				; size = 4
$T5 = 24						; size = 4
_bAdd$ = 24						; size = 4
?GetDataFromPacketList@CChartDataSimulatorAddInImp@@IAEHHPBD0PAVCChartDataGridManager@@H@Z PROC ; CChartDataSimulatorAddInImp::GetDataFromPacketList, COMDAT
; _this$ = ecx

; 95   : {

  00000	55		 push	 ebp
  00001	8b ec		 mov	 ebp, esp
  00003	6a ff		 push	 -1
  00005	68 00 00 00 00	 push	 __ehhandler$?GetDataFromPacketList@CChartDataSimulatorAddInImp@@IAEHHPBD0PAVCChartDataGridManager@@H@Z
  0000a	64 a1 00 00 00
	00		 mov	 eax, DWORD PTR fs:0
  00010	50		 push	 eax
  00011	83 ec 2c	 sub	 esp, 44			; 0000002cH
  00014	53		 push	 ebx
  00015	56		 push	 esi
  00016	57		 push	 edi
  00017	a1 00 00 00 00	 mov	 eax, DWORD PTR ___security_cookie
  0001c	33 c5		 xor	 eax, ebp
  0001e	50		 push	 eax
  0001f	8d 45 f4	 lea	 eax, DWORD PTR __$EHRec$[ebp]
  00022	64 a3 00 00 00
	00		 mov	 DWORD PTR fs:0, eax
  00028	8b c1		 mov	 eax, ecx
  0002a	89 45 e8	 mov	 DWORD PTR _this$1$[ebp], eax

; 96   : 	if(!pOutChartDataGridManager) 

  0002d	8b 75 14	 mov	 esi, DWORD PTR _pOutChartDataGridManager$[ebp]
  00030	85 f6		 test	 esi, esi
  00032	0f 84 dc 03 00
	00		 je	 $LN114@GetDataFro

; 97   : 		return FALSE;
; 98   : 
; 99   : 	IPacket * pPacket = m_pIPacketListManager->GetPacket(szRQ, szPacketName);

  00038	8b 48 20	 mov	 ecx, DWORD PTR [eax+32]
  0003b	ff 75 10	 push	 DWORD PTR _szPacketName$[ebp]
  0003e	ff 75 0c	 push	 DWORD PTR _szRQ$[ebp]
  00041	8b 01		 mov	 eax, DWORD PTR [ecx]
  00043	ff 50 14	 call	 DWORD PTR [eax+20]
  00046	8b d8		 mov	 ebx, eax
  00048	89 5d e4	 mov	 DWORD PTR _pPacket$1$[ebp], ebx

; 100  : 	if(!pPacket) return FALSE;

  0004b	85 db		 test	 ebx, ebx
  0004d	0f 84 c1 03 00
	00		 je	 $LN114@GetDataFro

; 102  : 	ILPCSTR IPacketType	= pPacket->GetType();

  00053	8b 13		 mov	 edx, DWORD PTR [ebx]
  00055	8b cb		 mov	 ecx, ebx
  00057	6a 01		 push	 1
  00059	ff 52 1c	 call	 DWORD PTR [edx+28]
; File D:\git\src\IBK\IBK_DRFN\ProjSrc\SrcChartEx\ChartAddIn\ChartDataListViewerAddIn\Include_Addin_134221\I134221\_IString.h

; 39   : 		m_pIStrData = p_pIString;	// Do not AddRef(). Because It must be Return Value.

  0005c	89 45 d4	 mov	 DWORD PTR _IPacketType$[ebp+4], eax

; 40   : 		if( m_pIStrData) m_szData = m_pIStrData->GetData();

  0005f	85 c0		 test	 eax, eax
  00061	74 09		 je	 SHORT $LN41@GetDataFro
  00063	8b 10		 mov	 edx, DWORD PTR [eax]
  00065	8b c8		 mov	 ecx, eax
  00067	ff 52 10	 call	 DWORD PTR [edx+16]
  0006a	eb 02		 jmp	 SHORT $LN118@GetDataFro
$LN41@GetDataFro:

; 41   : 		else m_szData = NULL;

  0006c	33 c0		 xor	 eax, eax
$LN118@GetDataFro:
; File D:\git\src\IBK\IBK_DRFN\ProjSrc\SrcChartEx\ChartAddIn\ChartDataListViewerAddIn\ChartDataListViewerAddIn\ChartDataSimulatorAddInImp.cpp

; 102  : 	ILPCSTR IPacketType	= pPacket->GetType();

  0006e	89 45 d0	 mov	 DWORD PTR _IPacketType$[ebp], eax

; 103  : 	CString strPacketType=IPacketType;

  00071	50		 push	 eax
  00072	8d 4d ec	 lea	 ecx, DWORD PTR _strPacketType$[ebp]
  00075	c7 45 fc 00 00
	00 00		 mov	 DWORD PTR __$EHRec$[ebp+8], 0
  0007c	ff 15 00 00 00
	00		 call	 DWORD PTR __imp_??0?$CStringT@DV?$StrTraitMFC_DLL@DV?$ChTraitsCRT@D@ATL@@@@@ATL@@QAE@PBD@Z

; 104  : 
; 105  : 	double dData;
; 106  : 	CString strData;

  00082	8d 4d 0c	 lea	 ecx, DWORD PTR _strData$[ebp]
  00085	ff 15 00 00 00
	00		 call	 DWORD PTR __imp_??0?$CStringT@DV?$StrTraitMFC_DLL@DV?$ChTraitsCRT@D@ATL@@@@@ATL@@QAE@XZ

; 107  : 	POSITION pos, posChartDataList;
; 108  : 	CChartRecordSet * pChartRecordSet = NULL;
; 109  : 	IDoubleList * pDataList = pPacket->GetDataList();

  0008b	8b 03		 mov	 eax, DWORD PTR [ebx]
  0008d	8b cb		 mov	 ecx, ebx
  0008f	c6 45 fc 02	 mov	 BYTE PTR __$EHRec$[ebp+8], 2
  00093	ff 50 54	 call	 DWORD PTR [eax+84]
  00096	8b f8		 mov	 edi, eax

; 110  : 	if(!pDataList) 

  00098	85 ff		 test	 edi, edi
  0009a	0f 84 bc 00 00
	00		 je	 $LN119@GetDataFro

; 111  : 	{
; 112  : 		pPacket->Release();
; 113  : 		return FALSE;
; 114  : 	}
; 115  : 
; 116  : 	CChartDataGridHeaderInfo * pHeaderInfo = new CChartDataGridHeaderInfo;

  000a0	6a 0c		 push	 12			; 0000000cH
  000a2	e8 00 00 00 00	 call	 ??2@YAPAXI@Z		; operator new
  000a7	83 c4 04	 add	 esp, 4
  000aa	89 45 14	 mov	 DWORD PTR _pHeaderInfo$1$[ebp], eax
  000ad	85 c0		 test	 eax, eax
  000af	74 25		 je	 SHORT $LN25@GetDataFro
  000b1	8b c8		 mov	 ecx, eax
  000b3	ff 15 00 00 00
	00		 call	 DWORD PTR __imp_??0?$CStringT@DV?$StrTraitMFC_DLL@DV?$ChTraitsCRT@D@ATL@@@@@ATL@@QAE@XZ
  000b9	8b 4d 14	 mov	 ecx, DWORD PTR _pHeaderInfo$1$[ebp]
  000bc	8d 49 04	 lea	 ecx, DWORD PTR [ecx+4]
  000bf	ff 15 00 00 00
	00		 call	 DWORD PTR __imp_??0?$CStringT@DV?$StrTraitMFC_DLL@DV?$ChTraitsCRT@D@ATL@@@@@ATL@@QAE@XZ
  000c5	8b 4d 14	 mov	 ecx, DWORD PTR _pHeaderInfo$1$[ebp]
  000c8	8d 49 08	 lea	 ecx, DWORD PTR [ecx+8]
  000cb	ff 15 00 00 00
	00		 call	 DWORD PTR __imp_??0?$CStringT@DV?$StrTraitMFC_DLL@DV?$ChTraitsCRT@D@ATL@@@@@ATL@@QAE@XZ
  000d1	8b 45 14	 mov	 eax, DWORD PTR _pHeaderInfo$1$[ebp]
  000d4	eb 05		 jmp	 SHORT $LN26@GetDataFro
$LN25@GetDataFro:
  000d6	33 c0		 xor	 eax, eax
  000d8	89 45 14	 mov	 DWORD PTR _pHeaderInfo$1$[ebp], eax
$LN26@GetDataFro:

; 117  : 	pHeaderInfo->m_strHeader = szPacketName;	

  000db	ff 75 10	 push	 DWORD PTR _szPacketName$[ebp]
  000de	8b c8		 mov	 ecx, eax
  000e0	ff 15 00 00 00
	00		 call	 DWORD PTR __imp_??4?$CStringT@DV?$StrTraitMFC_DLL@DV?$ChTraitsCRT@D@ATL@@@@@ATL@@QAEAAV01@PBD@Z

; 118  : 	pHeaderInfo->m_strPacketType = strPacketType;

  000e6	8b 4d 14	 mov	 ecx, DWORD PTR _pHeaderInfo$1$[ebp]
  000e9	8d 45 ec	 lea	 eax, DWORD PTR _strPacketType$[ebp]
  000ec	50		 push	 eax
  000ed	8d 49 08	 lea	 ecx, DWORD PTR [ecx+8]
  000f0	ff 15 00 00 00
	00		 call	 DWORD PTR __imp_??4?$CStringT@DV?$StrTraitMFC_DLL@DV?$ChTraitsCRT@D@ATL@@@@@ATL@@QAEAAV01@ABV01@@Z

; 119  : 	pHeaderInfo->m_strTitle  = _MTOL0( szPacketName );

  000f6	8b 45 e8	 mov	 eax, DWORD PTR _this$1$[ebp]
  000f9	b9 00 00 00 00	 mov	 ecx, OFFSET ?g_iMetaTable@@3VIMetaTable@@A ; g_iMetaTable
  000fe	6a 00		 push	 0
  00100	ff 75 10	 push	 DWORD PTR _szPacketName$[ebp]
  00103	6a 00		 push	 0
  00105	ff 70 14	 push	 DWORD PTR [eax+20]
  00108	e8 00 00 00 00	 call	 ?GetLanguageText@IMetaTable@@QAEPBDPAUHWND__@@W4E_CODEPAGE@1@PBDH@Z ; IMetaTable::GetLanguageText
  0010d	8b 4d 14	 mov	 ecx, DWORD PTR _pHeaderInfo$1$[ebp]
  00110	50		 push	 eax
  00111	8d 49 04	 lea	 ecx, DWORD PTR [ecx+4]
  00114	ff 15 00 00 00
	00		 call	 DWORD PTR __imp_??4?$CStringT@DV?$StrTraitMFC_DLL@DV?$ChTraitsCRT@D@ATL@@@@@ATL@@QAEAAV01@PBD@Z
; File C:\Program Files (x86)\Microsoft Visual Studio\2019\Community\VC\Tools\MSVC\14.29.30133\atlmfc\include\afxtempl.h

; 333  : 	{ INT_PTR nIndex = m_nSize;

  0011a	8b 46 20	 mov	 eax, DWORD PTR [esi+32]
; File D:\git\src\IBK\IBK_DRFN\ProjSrc\SrcChartEx\ChartAddIn\ChartDataListViewerAddIn\ChartDataListViewerAddIn\ChartDataSimulatorAddInImp.cpp

; 120  : 	pOutChartDataGridManager->m_ChartDataGridHeaderInfoArray.Add(pHeaderInfo);

  0011d	8d 4e 18	 lea	 ecx, DWORD PTR [esi+24]
; File C:\Program Files (x86)\Microsoft Visual Studio\2019\Community\VC\Tools\MSVC\14.29.30133\atlmfc\include\afxtempl.h

; 333  : 	{ INT_PTR nIndex = m_nSize;

  00120	89 45 10	 mov	 DWORD PTR _nIndex$1$[ebp], eax

; 538  : 	if(nIndex < 0)

  00123	85 c0		 test	 eax, eax
  00125	0f 88 ff 02 00
	00		 js	 $LN100@GetDataFro

; 539  : 		AfxThrowInvalidArgException();
; 540  : 
; 541  : 	if (nIndex >= m_nSize)
; 542  : 		SetSize(nIndex+1, -1);

  0012b	6a ff		 push	 -1
  0012d	40		 inc	 eax
  0012e	50		 push	 eax
  0012f	e8 00 00 00 00	 call	 ?SetSize@?$CArray@PAVCChartDataGridHeaderInfo@@PAV1@@@QAEXHH@Z ; CArray<CChartDataGridHeaderInfo *,CChartDataGridHeaderInfo *>::SetSize
; File D:\git\src\IBK\IBK_DRFN\ProjSrc\SrcChartEx\ChartAddIn\ChartDataListViewerAddIn\ChartDataListViewerAddIn\ChartDataSimulatorAddInImp.cpp

; 125  : 	if(bAdd)

  00134	83 7d 18 00	 cmp	 DWORD PTR _bAdd$[ebp], 0
; File C:\Program Files (x86)\Microsoft Visual Studio\2019\Community\VC\Tools\MSVC\14.29.30133\atlmfc\include\afxtempl.h

; 543  : 	m_pData[nIndex] = newElement;

  00138	8b 46 1c	 mov	 eax, DWORD PTR [esi+28]
  0013b	8b 4d 10	 mov	 ecx, DWORD PTR _nIndex$1$[ebp]
  0013e	8b 55 14	 mov	 edx, DWORD PTR _pHeaderInfo$1$[ebp]
  00141	89 14 88	 mov	 DWORD PTR [eax+ecx*4], edx
; File D:\git\src\IBK\IBK_DRFN\ProjSrc\SrcChartEx\ChartAddIn\ChartDataListViewerAddIn\ChartDataListViewerAddIn\ChartDataSimulatorAddInImp.cpp

; 122  : 	CChartDataList * pOutChartDataList = &(pOutChartDataGridManager->m_ChartDataList);

  00144	8d 46 2c	 lea	 eax, DWORD PTR [esi+44]
  00147	89 45 14	 mov	 DWORD PTR _pOutChartDataList$1$[ebp], eax

; 125  : 	if(bAdd)

  0014a	8b 07		 mov	 eax, DWORD PTR [edi]
  0014c	0f 84 ca 00 00
	00		 je	 $LN14@GetDataFro

; 126  : 	{
; 127  : 		if(pOutChartDataList->GetCount() > 0) 

  00152	83 7e 38 00	 cmp	 DWORD PTR [esi+56], 0
  00156	7e 11		 jle	 SHORT $LN16@GetDataFro

; 128  : 		{
; 129  : 			pDataList->Release();

  00158	57		 push	 edi
  00159	ff 50 08	 call	 DWORD PTR [eax+8]
$LN119@GetDataFro:

; 130  : 			pPacket->Release();

  0015c	8b 03		 mov	 eax, DWORD PTR [ebx]
  0015e	53		 push	 ebx
  0015f	ff 50 08	 call	 DWORD PTR [eax+8]
  00162	33 f6		 xor	 esi, esi
  00164	e9 6f 02 00 00	 jmp	 $LN39@GetDataFro
$LN16@GetDataFro:

; 131  : 			return FALSE;
; 132  : 		}
; 133  : 		else
; 134  : 		{
; 135  : 			for(pos = pDataList->GetHeadPosition(); pos ; )

  00169	8b cf		 mov	 ecx, edi
  0016b	ff 50 34	 call	 DWORD PTR [eax+52]
  0016e	89 45 f0	 mov	 DWORD PTR _pos$[ebp], eax
  00171	85 c0		 test	 eax, eax
  00173	0f 84 4e 02 00
	00		 je	 $LN9@GetDataFro
  00179	0f 1f 80 00 00
	00 00		 npad	 7
$LL2@GetDataFro:

; 136  : 			{
; 137  : 				if(!pDataList->GetNext(pos, dData)) 

  00180	8b 07		 mov	 eax, DWORD PTR [edi]
  00182	8d 4d d8	 lea	 ecx, DWORD PTR _dData$[ebp]
  00185	51		 push	 ecx
  00186	8d 4d f0	 lea	 ecx, DWORD PTR _pos$[ebp]
  00189	51		 push	 ecx
  0018a	8b cf		 mov	 ecx, edi
  0018c	ff 50 3c	 call	 DWORD PTR [eax+60]
  0018f	85 c0		 test	 eax, eax
  00191	0f 84 a3 01 00
	00		 je	 $error$121

; 138  : 					goto error;
; 139  : 
; 140  : 				strData = CDataConversion::DoubleToString(dData);

  00197	8d 45 d8	 lea	 eax, DWORD PTR _dData$[ebp]
  0019a	50		 push	 eax
  0019b	8d 45 10	 lea	 eax, DWORD PTR $T4[ebp]
  0019e	50		 push	 eax
  0019f	e8 00 00 00 00	 call	 ?DoubleToString@CDataConversion@@SA?AV?$CStringT@DV?$StrTraitMFC_DLL@DV?$ChTraitsCRT@D@ATL@@@@@ATL@@ABN@Z ; CDataConversion::DoubleToString
  001a4	83 c4 08	 add	 esp, 8
  001a7	50		 push	 eax
  001a8	8d 4d 0c	 lea	 ecx, DWORD PTR _strData$[ebp]
  001ab	c6 45 fc 03	 mov	 BYTE PTR __$EHRec$[ebp+8], 3
  001af	ff 15 00 00 00
	00		 call	 DWORD PTR __imp_??4?$CStringT@DV?$StrTraitMFC_DLL@DV?$ChTraitsCRT@D@ATL@@@@@ATL@@QAEAAV01@ABV01@@Z
  001b5	8d 4d 10	 lea	 ecx, DWORD PTR $T4[ebp]
  001b8	c6 45 fc 02	 mov	 BYTE PTR __$EHRec$[ebp+8], 2
  001bc	ff 15 00 00 00
	00		 call	 DWORD PTR __imp_??1?$CStringT@DV?$StrTraitMFC_DLL@DV?$ChTraitsCRT@D@ATL@@@@@ATL@@QAE@XZ

; 141  : 				//strData = CDataConversion( m_hOcxWnd).GetStringFormatTrans( strData, strPacketType);
; 142  : 
; 143  : 				pChartRecordSet	= new CChartRecordSet;		

  001c2	6a 18		 push	 24			; 00000018H
  001c4	e8 00 00 00 00	 call	 ??2@YAPAXI@Z		; operator new
  001c9	8b f0		 mov	 esi, eax
  001cb	83 c4 04	 add	 esp, 4
  001ce	85 f6		 test	 esi, esi
  001d0	74 20		 je	 SHORT $LN27@GetDataFro
  001d2	ff 35 00 00 00
	00		 push	 DWORD PTR __imp_??1?$CStringT@DV?$StrTraitMFC_DLL@DV?$ChTraitsCRT@D@ATL@@@@@ATL@@QAE@XZ
  001d8	c6 45 fc 04	 mov	 BYTE PTR __$EHRec$[ebp+8], 4
  001dc	ff 35 00 00 00
	00		 push	 DWORD PTR __imp_??0?$CStringT@DV?$StrTraitMFC_DLL@DV?$ChTraitsCRT@D@ATL@@@@@ATL@@QAE@XZ
  001e2	6a 06		 push	 6
  001e4	6a 04		 push	 4
  001e6	56		 push	 esi
  001e7	e8 00 00 00 00	 call	 ??_L@YGXPAXIIP6EX0@Z1@Z
  001ec	c6 45 fc 02	 mov	 BYTE PTR __$EHRec$[ebp+8], 2
  001f0	eb 02		 jmp	 SHORT $LN28@GetDataFro
$LN27@GetDataFro:
  001f2	33 f6		 xor	 esi, esi
$LN28@GetDataFro:

; 144  : 				pChartRecordSet->m_Data[nColIndex]	= strData;								

  001f4	8d 45 0c	 lea	 eax, DWORD PTR _strData$[ebp]
  001f7	50		 push	 eax
  001f8	8b 45 08	 mov	 eax, DWORD PTR _nColIndex$[ebp]
  001fb	8d 0c 86	 lea	 ecx, DWORD PTR [esi+eax*4]
  001fe	ff 15 00 00 00
	00		 call	 DWORD PTR __imp_??4?$CStringT@DV?$StrTraitMFC_DLL@DV?$ChTraitsCRT@D@ATL@@@@@ATL@@QAEAAV01@ABV01@@Z

; 145  : 
; 146  : 				pOutChartDataList->AddTail(pChartRecordSet);

  00204	8b 4d 14	 mov	 ecx, DWORD PTR _pOutChartDataList$1$[ebp]
  00207	56		 push	 esi
  00208	e8 00 00 00 00	 call	 ?AddTail@?$CList@PAVCChartRecordSet@@PAV1@@@QAEPAU__POSITION@@PAVCChartRecordSet@@@Z ; CList<CChartRecordSet *,CChartRecordSet *>::AddTail
  0020d	83 7d f0 00	 cmp	 DWORD PTR _pos$[ebp], 0
  00211	0f 85 69 ff ff
	ff		 jne	 $LL2@GetDataFro
; File C:\Program Files (x86)\Microsoft Visual Studio\2019\Community\VC\Tools\MSVC\14.29.30133\atlmfc\include\afxtempl.h

; 1028 : 	ENSURE(m_pNodeTail != NULL);  // don't call on empty list !!!

  00217	e9 ab 01 00 00	 jmp	 $LN9@GetDataFro
$LN14@GetDataFro:
; File D:\git\src\IBK\IBK_DRFN\ProjSrc\SrcChartEx\ChartAddIn\ChartDataListViewerAddIn\ChartDataListViewerAddIn\ChartDataSimulatorAddInImp.cpp

; 164  : 			for(pos = pDataList->GetHeadPosition(), posChartDataList = pOutChartDataList->GetHeadPosition();

  0021c	8b cf		 mov	 ecx, edi
  0021e	c7 45 14 00 00
	00 00		 mov	 DWORD PTR _iIndex$1$[ebp], 0
  00225	ff 50 34	 call	 DWORD PTR [eax+52]
  00228	8b 4e 30	 mov	 ecx, DWORD PTR [esi+48]
  0022b	89 45 f0	 mov	 DWORD PTR _pos$[ebp], eax
  0022e	89 4d 10	 mov	 DWORD PTR _posChartDataList$1$[ebp], ecx

; 165  : 					pos && posChartDataList; iIndex++ )//20081117    >>

  00231	85 c0		 test	 eax, eax
  00233	0f 84 ba 00 00
	00		 je	 $LN6@GetDataFro
  00239	0f 1f 80 00 00
	00 00		 npad	 7
$LL7@GetDataFro:
  00240	85 c9		 test	 ecx, ecx
  00242	0f 84 ab 00 00
	00		 je	 $LN6@GetDataFro

; 166  : 			{
; 167  : 				if(!pDataList->GetNext(pos, dData)) 

  00248	8b 07		 mov	 eax, DWORD PTR [edi]
  0024a	8d 4d d8	 lea	 ecx, DWORD PTR _dData$[ebp]
  0024d	51		 push	 ecx
  0024e	8d 4d f0	 lea	 ecx, DWORD PTR _pos$[ebp]
  00251	51		 push	 ecx
  00252	8b cf		 mov	 ecx, edi
  00254	ff 50 3c	 call	 DWORD PTR [eax+60]
  00257	85 c0		 test	 eax, eax
  00259	0f 84 db 00 00
	00		 je	 $error$121

; 168  : 					goto error;
; 169  : 
; 170  : 				strData = CDataConversion::DoubleToString(dData);

  0025f	8d 45 d8	 lea	 eax, DWORD PTR _dData$[ebp]
  00262	50		 push	 eax
  00263	8d 45 18	 lea	 eax, DWORD PTR $T5[ebp]
  00266	50		 push	 eax
  00267	e8 00 00 00 00	 call	 ?DoubleToString@CDataConversion@@SA?AV?$CStringT@DV?$StrTraitMFC_DLL@DV?$ChTraitsCRT@D@ATL@@@@@ATL@@ABN@Z ; CDataConversion::DoubleToString
  0026c	83 c4 08	 add	 esp, 8
  0026f	50		 push	 eax
  00270	8d 4d 0c	 lea	 ecx, DWORD PTR _strData$[ebp]
  00273	c6 45 fc 05	 mov	 BYTE PTR __$EHRec$[ebp+8], 5
  00277	ff 15 00 00 00
	00		 call	 DWORD PTR __imp_??4?$CStringT@DV?$StrTraitMFC_DLL@DV?$ChTraitsCRT@D@ATL@@@@@ATL@@QAEAAV01@ABV01@@Z
  0027d	8d 4d 18	 lea	 ecx, DWORD PTR $T5[ebp]
  00280	c6 45 fc 02	 mov	 BYTE PTR __$EHRec$[ebp+8], 2
  00284	ff 15 00 00 00
	00		 call	 DWORD PTR __imp_??1?$CStringT@DV?$StrTraitMFC_DLL@DV?$ChTraitsCRT@D@ATL@@@@@ATL@@QAE@XZ

; 171  : 				strData = CDataConversion( m_hOcxWnd, m_eChartMode).GetStringFormatTrans( strData, strPacketType);				

  0028a	8b 45 e8	 mov	 eax, DWORD PTR _this$1$[ebp]
  0028d	8b 48 18	 mov	 ecx, DWORD PTR [eax+24]
; File D:\git\src\IBK\IBK_DRFN\ProjSrc\SrcChartEx\ChartAddIn\ChartDataListViewerAddIn\Include_Chart\Conversion.h

; 27   : 		{	m_hOcxWnd = p_hOcxWnd;	m_eChartMode = p_eChartMode;	}

  00290	8b 40 14	 mov	 eax, DWORD PTR [eax+20]
  00293	89 45 c8	 mov	 DWORD PTR $T2[ebp], eax
; File D:\git\src\IBK\IBK_DRFN\ProjSrc\SrcChartEx\ChartAddIn\ChartDataListViewerAddIn\ChartDataListViewerAddIn\ChartDataSimulatorAddInImp.cpp

; 171  : 				strData = CDataConversion( m_hOcxWnd, m_eChartMode).GetStringFormatTrans( strData, strPacketType);				

  00296	8d 45 ec	 lea	 eax, DWORD PTR _strPacketType$[ebp]
  00299	50		 push	 eax
  0029a	8d 45 0c	 lea	 eax, DWORD PTR _strData$[ebp]
; File D:\git\src\IBK\IBK_DRFN\ProjSrc\SrcChartEx\ChartAddIn\ChartDataListViewerAddIn\Include_Chart\Conversion.h

; 27   : 		{	m_hOcxWnd = p_hOcxWnd;	m_eChartMode = p_eChartMode;	}

  0029d	89 4d cc	 mov	 DWORD PTR $T2[ebp+4], ecx
; File D:\git\src\IBK\IBK_DRFN\ProjSrc\SrcChartEx\ChartAddIn\ChartDataListViewerAddIn\ChartDataListViewerAddIn\ChartDataSimulatorAddInImp.cpp

; 171  : 				strData = CDataConversion( m_hOcxWnd, m_eChartMode).GetStringFormatTrans( strData, strPacketType);				

  002a0	50		 push	 eax
  002a1	8d 45 e0	 lea	 eax, DWORD PTR $T3[ebp]
  002a4	50		 push	 eax
  002a5	8d 4d c8	 lea	 ecx, DWORD PTR $T2[ebp]
  002a8	e8 00 00 00 00	 call	 ?GetStringFormatTrans@CDataConversion@@QAE?AV?$CStringT@DV?$StrTraitMFC_DLL@DV?$ChTraitsCRT@D@ATL@@@@@ATL@@ABV23@0@Z ; CDataConversion::GetStringFormatTrans
  002ad	50		 push	 eax
  002ae	8d 4d 0c	 lea	 ecx, DWORD PTR _strData$[ebp]
  002b1	c6 45 fc 06	 mov	 BYTE PTR __$EHRec$[ebp+8], 6
  002b5	ff 15 00 00 00
	00		 call	 DWORD PTR __imp_??4?$CStringT@DV?$StrTraitMFC_DLL@DV?$ChTraitsCRT@D@ATL@@@@@ATL@@QAEAAV01@ABV01@@Z
  002bb	8d 4d e0	 lea	 ecx, DWORD PTR $T3[ebp]
  002be	c6 45 fc 02	 mov	 BYTE PTR __$EHRec$[ebp+8], 2
  002c2	ff 15 00 00 00
	00		 call	 DWORD PTR __imp_??1?$CStringT@DV?$StrTraitMFC_DLL@DV?$ChTraitsCRT@D@ATL@@@@@ATL@@QAE@XZ
; File C:\Program Files (x86)\Microsoft Visual Studio\2019\Community\VC\Tools\MSVC\14.29.30133\atlmfc\include\afxtempl.h

; 811  : 	{ CNode* pNode = (CNode*) rPosition;

  002c8	8b 4d 10	 mov	 ecx, DWORD PTR _posChartDataList$1$[ebp]
; File D:\git\src\IBK\IBK_DRFN\ProjSrc\SrcChartEx\ChartAddIn\ChartDataListViewerAddIn\ChartDataListViewerAddIn\ChartDataSimulatorAddInImp.cpp

; 173  : 				pChartRecordSet	= pOutChartDataList->GetNext(posChartDataList);

  002cb	8b 41 08	 mov	 eax, DWORD PTR [ecx+8]
; File C:\Program Files (x86)\Microsoft Visual Studio\2019\Community\VC\Tools\MSVC\14.29.30133\atlmfc\include\afxtempl.h

; 813  : 		rPosition = (POSITION) pNode->pNext;

  002ce	8b 09		 mov	 ecx, DWORD PTR [ecx]
  002d0	89 4d 10	 mov	 DWORD PTR _posChartDataList$1$[ebp], ecx
; File D:\git\src\IBK\IBK_DRFN\ProjSrc\SrcChartEx\ChartAddIn\ChartDataListViewerAddIn\ChartDataListViewerAddIn\ChartDataSimulatorAddInImp.cpp

; 174  : 				pChartRecordSet->m_Data[nColIndex]	= strData;

  002d3	8d 4d 0c	 lea	 ecx, DWORD PTR _strData$[ebp]
  002d6	51		 push	 ecx
  002d7	8b 4d 08	 mov	 ecx, DWORD PTR _nColIndex$[ebp]
  002da	8d 0c 88	 lea	 ecx, DWORD PTR [eax+ecx*4]
  002dd	ff 15 00 00 00
	00		 call	 DWORD PTR __imp_??4?$CStringT@DV?$StrTraitMFC_DLL@DV?$ChTraitsCRT@D@ATL@@@@@ATL@@QAEAAV01@ABV01@@Z
  002e3	ff 45 14	 inc	 DWORD PTR _iIndex$1$[ebp]
  002e6	83 7d f0 00	 cmp	 DWORD PTR _pos$[ebp], 0
  002ea	8b 4d 10	 mov	 ecx, DWORD PTR _posChartDataList$1$[ebp]
  002ed	0f 85 4d ff ff
	ff		 jne	 $LL7@GetDataFro
$LN6@GetDataFro:

; 175  : 			}
; 176  : 
; 177  : 			//20081117    >>
; 178  : 			int nDiff = pOutChartDataList->GetCount() - iIndex;

  002f3	8b 46 38	 mov	 eax, DWORD PTR [esi+56]
  002f6	2b 45 14	 sub	 eax, DWORD PTR _iIndex$1$[ebp]
  002f9	89 45 08	 mov	 DWORD PTR _nDiff$1$[ebp], eax

; 179  : 			if(nDiff > 0)

  002fc	85 c0		 test	 eax, eax
  002fe	0f 8e c3 00 00
	00		 jle	 $LN9@GetDataFro

; 181  : 				for(iIndex = 0 ; iIndex < nDiff && !pOutChartDataList->IsEmpty(); iIndex++)

  00304	c7 45 10 00 00
	00 00		 mov	 DWORD PTR _iIndex$2$[ebp], 0
  0030b	0f 1f 44 00 00	 npad	 5
$LL10@GetDataFro:
; File C:\Program Files (x86)\Microsoft Visual Studio\2019\Community\VC\Tools\MSVC\14.29.30133\atlmfc\include\afxtempl.h

; 786  : 	{ return m_nCount == 0; }

  00310	83 7e 38 00	 cmp	 DWORD PTR [esi+56], 0
; File D:\git\src\IBK\IBK_DRFN\ProjSrc\SrcChartEx\ChartAddIn\ChartDataListViewerAddIn\ChartDataListViewerAddIn\ChartDataSimulatorAddInImp.cpp

; 181  : 				for(iIndex = 0 ; iIndex < nDiff && !pOutChartDataList->IsEmpty(); iIndex++)

  00314	0f 84 aa 00 00
	00		 je	 $LN115@GetDataFro
; File C:\Program Files (x86)\Microsoft Visual Studio\2019\Community\VC\Tools\MSVC\14.29.30133\atlmfc\include\afxtempl.h

; 1028 : 	ENSURE(m_pNodeTail != NULL);  // don't call on empty list !!!

  0031a	8b 4e 34	 mov	 ecx, DWORD PTR [esi+52]
  0031d	85 c9		 test	 ecx, ecx
  0031f	0f 84 05 01 00
	00		 je	 $LN100@GetDataFro

; 1029 : 	ASSERT(AfxIsValidAddress(m_pNodeTail, sizeof(CNode)));
; 1030 : 
; 1031 : 	CNode* pOldNode = m_pNodeTail;
; 1032 : 	TYPE returnValue = pOldNode->data;
; 1033 : 
; 1034 : 	m_pNodeTail = pOldNode->pPrev;

  00325	8b 41 04	 mov	 eax, DWORD PTR [ecx+4]
  00328	8b 59 08	 mov	 ebx, DWORD PTR [ecx+8]
  0032b	89 46 34	 mov	 DWORD PTR [esi+52], eax

; 1035 : 	if (m_pNodeTail != NULL)

  0032e	85 c0		 test	 eax, eax
  00330	74 1b		 je	 SHORT $LN69@GetDataFro

; 1036 : 		m_pNodeTail->pNext = NULL;

  00332	c7 00 00 00 00
	00		 mov	 DWORD PTR [eax], 0
  00338	eb 1a		 jmp	 SHORT $LN70@GetDataFro
$error$121:
; File D:\git\src\IBK\IBK_DRFN\ProjSrc\SrcChartEx\ChartAddIn\ChartDataListViewerAddIn\ChartDataListViewerAddIn\ChartDataSimulatorAddInImp.cpp

; 198  : 		pDataList->Release();

  0033a	8b 07		 mov	 eax, DWORD PTR [edi]
  0033c	57		 push	 edi
  0033d	ff 50 08	 call	 DWORD PTR [eax+8]

; 199  : 		pPacket->Release();

  00340	8b 03		 mov	 eax, DWORD PTR [ebx]
  00342	53		 push	 ebx
  00343	ff 50 08	 call	 DWORD PTR [eax+8]

; 201  : 		return FALSE;

  00346	33 f6		 xor	 esi, esi
  00348	e9 8b 00 00 00	 jmp	 $LN39@GetDataFro
$LN69@GetDataFro:
; File C:\Program Files (x86)\Microsoft Visual Studio\2019\Community\VC\Tools\MSVC\14.29.30133\atlmfc\include\afxtempl.h

; 1038 : 		m_pNodeHead = NULL;

  0034d	c7 46 30 00 00
	00 00		 mov	 DWORD PTR [esi+48], 0
$LN70@GetDataFro:

; 938  : 	pNode->pNext = m_pNodeFree;

  00354	8b 46 3c	 mov	 eax, DWORD PTR [esi+60]
  00357	89 01		 mov	 DWORD PTR [ecx], eax

; 939  : 	m_pNodeFree = pNode;
; 940  : 	m_nCount--;

  00359	83 46 38 ff	 add	 DWORD PTR [esi+56], -1
  0035d	89 4e 3c	 mov	 DWORD PTR [esi+60], ecx

; 941  : 	ASSERT(m_nCount >= 0);  // make sure we don't underflow
; 942  : 
; 943  : 	// if no more elements, cleanup completely
; 944  : 	if (m_nCount == 0)

  00360	75 2b		 jne	 SHORT $LN73@GetDataFro

; 872  : 	m_pBlocks->FreeDataChain();

  00362	8b 4e 40	 mov	 ecx, DWORD PTR [esi+64]
  00365	c7 46 38 00 00
	00 00		 mov	 DWORD PTR [esi+56], 0
  0036c	c7 46 3c 00 00
	00 00		 mov	 DWORD PTR [esi+60], 0
  00373	c7 46 34 00 00
	00 00		 mov	 DWORD PTR [esi+52], 0
  0037a	c7 46 30 00 00
	00 00		 mov	 DWORD PTR [esi+48], 0
  00381	e8 00 00 00 00	 call	 ?FreeDataChain@CPlex@@QAEXXZ ; CPlex::FreeDataChain

; 873  : 	m_pBlocks = NULL;

  00386	c7 46 40 00 00
	00 00		 mov	 DWORD PTR [esi+64], 0
$LN73@GetDataFro:
; File D:\git\src\IBK\IBK_DRFN\ProjSrc\SrcChartEx\ChartAddIn\ChartDataListViewerAddIn\ChartDataListViewerAddIn\ChartDataSimulatorAddInImp.cpp

; 184  : 					delete pSet;

  0038d	85 db		 test	 ebx, ebx
  0038f	74 23		 je	 SHORT $LN8@GetDataFro
  00391	ff 35 00 00 00
	00		 push	 DWORD PTR __imp_??1?$CStringT@DV?$StrTraitMFC_DLL@DV?$ChTraitsCRT@D@ATL@@@@@ATL@@QAE@XZ
  00397	c6 45 fc 07	 mov	 BYTE PTR __$EHRec$[ebp+8], 7
  0039b	6a 06		 push	 6
  0039d	6a 04		 push	 4
  0039f	53		 push	 ebx
  003a0	e8 00 00 00 00	 call	 ??_M@YGXPAXIIP6EX0@Z@Z
  003a5	6a 18		 push	 24			; 00000018H
  003a7	53		 push	 ebx
  003a8	c6 45 fc 02	 mov	 BYTE PTR __$EHRec$[ebp+8], 2
  003ac	e8 00 00 00 00	 call	 ??3@YAXPAXI@Z		; operator delete
  003b1	83 c4 08	 add	 esp, 8
$LN8@GetDataFro:

; 181  : 				for(iIndex = 0 ; iIndex < nDiff && !pOutChartDataList->IsEmpty(); iIndex++)

  003b4	8b 45 10	 mov	 eax, DWORD PTR _iIndex$2$[ebp]
  003b7	40		 inc	 eax
  003b8	89 45 10	 mov	 DWORD PTR _iIndex$2$[ebp], eax
  003bb	3b 45 08	 cmp	 eax, DWORD PTR _nDiff$1$[ebp]
  003be	0f 8c 4c ff ff
	ff		 jl	 $LL10@GetDataFro
$LN115@GetDataFro:

; 185  : 				}
; 186  : 
; 187  : 			}
; 188  : 			//20081117    <<
; 189  : 		}
; 190  : 	}
; 191  : 
; 192  : 	pDataList->Release();

  003c4	8b 5d e4	 mov	 ebx, DWORD PTR _pPacket$1$[ebp]
$LN9@GetDataFro:
  003c7	8b 07		 mov	 eax, DWORD PTR [edi]
  003c9	57		 push	 edi
  003ca	ff 50 08	 call	 DWORD PTR [eax+8]

; 193  : 	pPacket->Release();

  003cd	8b 03		 mov	 eax, DWORD PTR [ebx]
  003cf	53		 push	 ebx
  003d0	ff 50 08	 call	 DWORD PTR [eax+8]

; 194  : 	return TRUE;

  003d3	be 01 00 00 00	 mov	 esi, 1
$LN39@GetDataFro:

; 201  : 		return FALSE;

  003d8	8d 4d 0c	 lea	 ecx, DWORD PTR _strData$[ebp]
  003db	ff 15 00 00 00
	00		 call	 DWORD PTR __imp_??1?$CStringT@DV?$StrTraitMFC_DLL@DV?$ChTraitsCRT@D@ATL@@@@@ATL@@QAE@XZ
  003e1	8d 4d ec	 lea	 ecx, DWORD PTR _strPacketType$[ebp]
  003e4	ff 15 00 00 00
	00		 call	 DWORD PTR __imp_??1?$CStringT@DV?$StrTraitMFC_DLL@DV?$ChTraitsCRT@D@ATL@@@@@ATL@@QAE@XZ
; File D:\git\src\IBK\IBK_DRFN\ProjSrc\SrcChartEx\ChartAddIn\ChartDataListViewerAddIn\Include_Addin_134221\I134221\_IString.h

; 45   : 		if( m_pIStrData)

  003ea	8b 45 d4	 mov	 eax, DWORD PTR _IPacketType$[ebp+4]
  003ed	c7 45 fc 08 00
	00 00		 mov	 DWORD PTR __$EHRec$[ebp+8], 8
  003f4	85 c0		 test	 eax, eax
  003f6	74 06		 je	 SHORT $LN87@GetDataFro

; 46   : 		{
; 47   : 			m_pIStrData->Release();

  003f8	8b 08		 mov	 ecx, DWORD PTR [eax]
  003fa	50		 push	 eax
  003fb	ff 51 08	 call	 DWORD PTR [ecx+8]
$LN87@GetDataFro:
; File D:\git\src\IBK\IBK_DRFN\ProjSrc\SrcChartEx\ChartAddIn\ChartDataListViewerAddIn\ChartDataListViewerAddIn\ChartDataSimulatorAddInImp.cpp

; 201  : 		return FALSE;

  003fe	8b c6		 mov	 eax, esi

; 203  : }

  00400	8b 4d f4	 mov	 ecx, DWORD PTR __$EHRec$[ebp]
  00403	64 89 0d 00 00
	00 00		 mov	 DWORD PTR fs:0, ecx
  0040a	59		 pop	 ecx
  0040b	5f		 pop	 edi
  0040c	5e		 pop	 esi
  0040d	5b		 pop	 ebx
  0040e	8b e5		 mov	 esp, ebp
  00410	5d		 pop	 ebp
  00411	c2 14 00	 ret	 20			; 00000014H
$LN114@GetDataFro:

; 100  : 	if(!pPacket) return FALSE;

  00414	33 c0		 xor	 eax, eax

; 203  : }

  00416	8b 4d f4	 mov	 ecx, DWORD PTR __$EHRec$[ebp]
  00419	64 89 0d 00 00
	00 00		 mov	 DWORD PTR fs:0, ecx
  00420	59		 pop	 ecx
  00421	5f		 pop	 edi
  00422	5e		 pop	 esi
  00423	5b		 pop	 ebx
  00424	8b e5		 mov	 esp, ebp
  00426	5d		 pop	 ebp
  00427	c2 14 00	 ret	 20			; 00000014H
$LN100@GetDataFro:
; File C:\Program Files (x86)\Microsoft Visual Studio\2019\Community\VC\Tools\MSVC\14.29.30133\atlmfc\include\afxtempl.h

; 1028 : 	ENSURE(m_pNodeTail != NULL);  // don't call on empty list !!!

  0042a	e8 00 00 00 00	 call	 ?AfxThrowInvalidArgException@@YGXXZ ; AfxThrowInvalidArgException
$LN117@GetDataFro:
  0042f	cc		 int	 3
_TEXT	ENDS
;	COMDAT text$x
text$x	SEGMENT
__unwindfunclet$?GetDataFromPacketList@CChartDataSimulatorAddInImp@@IAEHHPBD0PAVCChartDataGridManager@@H@Z$2:
  00000	8d 4d d0	 lea	 ecx, DWORD PTR _IPacketType$[ebp]
  00003	e9 00 00 00 00	 jmp	 ??1ILPCSTR134221@@QAE@XZ ; ILPCSTR134221::~ILPCSTR134221
__unwindfunclet$?GetDataFromPacketList@CChartDataSimulatorAddInImp@@IAEHHPBD0PAVCChartDataGridManager@@H@Z$3:
  00008	8d 4d ec	 lea	 ecx, DWORD PTR _strPacketType$[ebp]
  0000b	ff 25 00 00 00
	00		 jmp	 DWORD PTR __imp_??1?$CStringT@DV?$StrTraitMFC_DLL@DV?$ChTraitsCRT@D@ATL@@@@@ATL@@QAE@XZ
__unwindfunclet$?GetDataFromPacketList@CChartDataSimulatorAddInImp@@IAEHHPBD0PAVCChartDataGridManager@@H@Z$4:
  00011	8d 4d 0c	 lea	 ecx, DWORD PTR _strData$[ebp]
  00014	ff 25 00 00 00
	00		 jmp	 DWORD PTR __imp_??1?$CStringT@DV?$StrTraitMFC_DLL@DV?$ChTraitsCRT@D@ATL@@@@@ATL@@QAE@XZ
__unwindfunclet$?GetDataFromPacketList@CChartDataSimulatorAddInImp@@IAEHHPBD0PAVCChartDataGridManager@@H@Z$5:
  0001a	8d 4d 10	 lea	 ecx, DWORD PTR $T4[ebp]
  0001d	ff 25 00 00 00
	00		 jmp	 DWORD PTR __imp_??1?$CStringT@DV?$StrTraitMFC_DLL@DV?$ChTraitsCRT@D@ATL@@@@@ATL@@QAE@XZ
__unwindfunclet$?GetDataFromPacketList@CChartDataSimulatorAddInImp@@IAEHHPBD0PAVCChartDataGridManager@@H@Z$6:
  00023	8d 4d 18	 lea	 ecx, DWORD PTR $T5[ebp]
  00026	ff 25 00 00 00
	00		 jmp	 DWORD PTR __imp_??1?$CStringT@DV?$StrTraitMFC_DLL@DV?$ChTraitsCRT@D@ATL@@@@@ATL@@QAE@XZ
__unwindfunclet$?GetDataFromPacketList@CChartDataSimulatorAddInImp@@IAEHHPBD0PAVCChartDataGridManager@@H@Z$7:
  0002c	8d 4d e0	 lea	 ecx, DWORD PTR $T3[ebp]
  0002f	ff 25 00 00 00
	00		 jmp	 DWORD PTR __imp_??1?$CStringT@DV?$StrTraitMFC_DLL@DV?$ChTraitsCRT@D@ATL@@@@@ATL@@QAE@XZ
  00035	cc		 int	 3
  00036	cc		 int	 3
  00037	cc		 int	 3
  00038	cc		 int	 3
  00039	cc		 int	 3
__ehhandler$?GetDataFromPacketList@CChartDataSimulatorAddInImp@@IAEHHPBD0PAVCChartDataGridManager@@H@Z:
  0003a	90		 npad	 1
  0003b	90		 npad	 1
  0003c	8b 54 24 08	 mov	 edx, DWORD PTR [esp+8]
  00040	8d 42 0c	 lea	 eax, DWORD PTR [edx+12]
  00043	8b 4a c4	 mov	 ecx, DWORD PTR [edx-60]
  00046	33 c8		 xor	 ecx, eax
  00048	e8 00 00 00 00	 call	 @__security_check_cookie@4
  0004d	b8 00 00 00 00	 mov	 eax, OFFSET __ehfuncinfo$?GetDataFromPacketList@CChartDataSimulatorAddInImp@@IAEHHPBD0PAVCChartDataGridManager@@H@Z
  00052	e9 00 00 00 00	 jmp	 ___CxxFrameHandler3
text$x	ENDS
?GetDataFromPacketList@CChartDataSimulatorAddInImp@@IAEHHPBD0PAVCChartDataGridManager@@H@Z ENDP ; CChartDataSimulatorAddInImp::GetDataFromPacketList
; Function compile flags: /Ogtp
; File D:\git\src\IBK\IBK_DRFN\ProjSrc\SrcChartEx\ChartAddIn\ChartDataListViewerAddIn\ChartDataListViewerAddIn\ChartDataSimulatorAddInImp.cpp
; File C:\Program Files (x86)\Microsoft Visual Studio\2019\Community\VC\Tools\MSVC\14.29.30133\atlmfc\include\cstringt.h
; File D:\git\src\IBK\IBK_DRFN\ProjSrc\SrcChartEx\ChartAddIn\ChartDataListViewerAddIn\ChartDataListViewerAddIn\ChartDataSimulatorAddInImp.cpp
; File C:\Program Files (x86)\Microsoft Visual Studio\2019\Community\VC\Tools\MSVC\14.29.30133\atlmfc\include\cstringt.h
; File D:\git\src\IBK\IBK_DRFN\ProjSrc\SrcChartEx\ChartAddIn\ChartDataListViewerAddIn\ChartDataListViewerAddIn\ChartDataSimulatorAddInImp.cpp
; File C:\Program Files (x86)\Microsoft Visual Studio\2019\Community\VC\Tools\MSVC\14.29.30133\atlmfc\include\cstringt.h
; File D:\git\src\IBK\IBK_DRFN\ProjSrc\SrcChartEx\ChartAddIn\ChartDataListViewerAddIn\ChartDataListViewerAddIn\ChartDataSimulatorAddInImp.cpp
;	COMDAT ?GetDataWindowRealPacketNames@CChartDataSimulatorAddInImp@@IBE?AV?$CStringT@DV?$StrTraitMFC_DLL@DV?$ChTraitsCRT@D@ATL@@@@@ATL@@PBD0@Z
_TEXT	SEGMENT
$T2 = -16						; size = 4
__$EHRec$ = -12						; size = 12
___$ReturnUdt$ = 8					; size = 4
_szTitle$ = 12						; size = 4
$T3 = 16						; size = 4
_szPacketNames$ = 16					; size = 4
?GetDataWindowRealPacketNames@CChartDataSimulatorAddInImp@@IBE?AV?$CStringT@DV?$StrTraitMFC_DLL@DV?$ChTraitsCRT@D@ATL@@@@@ATL@@PBD0@Z PROC ; CChartDataSimulatorAddInImp::GetDataWindowRealPacketNames, COMDAT
; _this$ = ecx

; 515  : {

  00000	55		 push	 ebp
  00001	8b ec		 mov	 ebp, esp
  00003	6a ff		 push	 -1
  00005	68 00 00 00 00	 push	 __ehhandler$?GetDataWindowRealPacketNames@CChartDataSimulatorAddInImp@@IBE?AV?$CStringT@DV?$StrTraitMFC_DLL@DV?$ChTraitsCRT@D@ATL@@@@@ATL@@PBD0@Z
  0000a	64 a1 00 00 00
	00		 mov	 eax, DWORD PTR fs:0
  00010	50		 push	 eax
  00011	51		 push	 ecx
  00012	53		 push	 ebx
  00013	56		 push	 esi
  00014	57		 push	 edi
  00015	a1 00 00 00 00	 mov	 eax, DWORD PTR ___security_cookie
  0001a	33 c5		 xor	 eax, ebp
  0001c	50		 push	 eax
  0001d	8d 45 f4	 lea	 eax, DWORD PTR __$EHRec$[ebp]
  00020	64 a3 00 00 00
	00		 mov	 DWORD PTR fs:0, eax
  00026	8b d9		 mov	 ebx, ecx
  00028	c7 45 f0 00 00
	00 00		 mov	 DWORD PTR $T2[ebp], 0

; 516  : 	CString strRealPacketNames = szPacketNames;

  0002f	ff 75 10	 push	 DWORD PTR _szPacketNames$[ebp]
  00032	8b 7d 08	 mov	 edi, DWORD PTR ___$ReturnUdt$[ebp]
  00035	8b cf		 mov	 ecx, edi
  00037	c7 45 fc 00 00
	00 00		 mov	 DWORD PTR __$EHRec$[ebp+8], 0
  0003e	ff 15 00 00 00
	00		 call	 DWORD PTR __imp_??0?$CStringT@DV?$StrTraitMFC_DLL@DV?$ChTraitsCRT@D@ATL@@@@@ATL@@QAE@PBD@Z

; 526  : 	
; 527  : 	return strRealPacketNames;

  00044	8b 35 54 00 00
	00		 mov	 esi, DWORD PTR ?g_iMetaTable@@3VIMetaTable@@A+84
  0004a	8b 45 0c	 mov	 eax, DWORD PTR _szTitle$[ebp]
  0004d	c7 45 fc 00 00
	00 00		 mov	 DWORD PTR __$EHRec$[ebp+8], 0
  00054	c7 45 f0 01 00
	00 00		 mov	 DWORD PTR $T2[ebp], 1
  0005b	8b 8e b4 04 00
	00		 mov	 ecx, DWORD PTR [esi+1204]
$LL11@GetDataWin:

; 517  : 
; 518  : 	if( !strcmp( szTitle, _MTEXT( C3_PRICE)) && strRealPacketNames.Find( _MTEXT( C0_CLOSE)) > 0)

  00061	8a 10		 mov	 dl, BYTE PTR [eax]
  00063	3a 11		 cmp	 dl, BYTE PTR [ecx]
  00065	75 1a		 jne	 SHORT $LN12@GetDataWin
  00067	84 d2		 test	 dl, dl
  00069	74 12		 je	 SHORT $LN13@GetDataWin
  0006b	8a 50 01	 mov	 dl, BYTE PTR [eax+1]
  0006e	3a 51 01	 cmp	 dl, BYTE PTR [ecx+1]
  00071	75 0e		 jne	 SHORT $LN12@GetDataWin
  00073	83 c0 02	 add	 eax, 2
  00076	83 c1 02	 add	 ecx, 2
  00079	84 d2		 test	 dl, dl
  0007b	75 e4		 jne	 SHORT $LL11@GetDataWin
$LN13@GetDataWin:
  0007d	33 c0		 xor	 eax, eax
  0007f	eb 05		 jmp	 SHORT $LN14@GetDataWin
$LN12@GetDataWin:
  00081	1b c0		 sbb	 eax, eax
  00083	83 c8 01	 or	 eax, 1
$LN14@GetDataWin:
  00086	85 c0		 test	 eax, eax
  00088	75 3a		 jne	 SHORT $LN3@GetDataWin
  0008a	50		 push	 eax
  0008b	ff 76 14	 push	 DWORD PTR [esi+20]
  0008e	8b cf		 mov	 ecx, edi
  00090	ff 15 00 00 00
	00		 call	 DWORD PTR __imp_?Find@?$CStringT@DV?$StrTraitMFC_DLL@DV?$ChTraitsCRT@D@ATL@@@@@ATL@@QBEHPBDH@Z
  00096	85 c0		 test	 eax, eax
  00098	7e 2a		 jle	 SHORT $LN3@GetDataWin

; 519  : 	{
; 520  : 		if( m_pIDefaultPacketManager->GetBaseTimeDataType() == CScaleBaseData::HORZ_TICK && m_pIDefaultPacketManager->GetBaseTimeUnit() == 1)

  0009a	8b 4b 24	 mov	 ecx, DWORD PTR [ebx+36]
  0009d	8b 01		 mov	 eax, DWORD PTR [ecx]
  0009f	ff 50 40	 call	 DWORD PTR [eax+64]
  000a2	83 f8 05	 cmp	 eax, 5
  000a5	75 1d		 jne	 SHORT $LN3@GetDataWin
  000a7	8b 4b 24	 mov	 ecx, DWORD PTR [ebx+36]
  000aa	8b 01		 mov	 eax, DWORD PTR [ecx]
  000ac	ff 50 44	 call	 DWORD PTR [eax+68]
  000af	83 f8 01	 cmp	 eax, 1
  000b2	75 10		 jne	 SHORT $LN3@GetDataWin

; 521  : 			strRealPacketNames = _MTEXT( C0_CLOSE);

  000b4	a1 54 00 00 00	 mov	 eax, DWORD PTR ?g_iMetaTable@@3VIMetaTable@@A+84
  000b9	8b cf		 mov	 ecx, edi
  000bb	ff 70 14	 push	 DWORD PTR [eax+20]
  000be	ff 15 00 00 00
	00		 call	 DWORD PTR __imp_??4?$CStringT@DV?$StrTraitMFC_DLL@DV?$ChTraitsCRT@D@ATL@@@@@ATL@@QAEAAV01@PBD@Z
$LN3@GetDataWin:

; 524  : 	if(strRealPacketNames.Right(1) != ",")

  000c4	6a 01		 push	 1
  000c6	8d 45 10	 lea	 eax, DWORD PTR $T3[ebp]
  000c9	8b cf		 mov	 ecx, edi
  000cb	50		 push	 eax
  000cc	ff 15 00 00 00
	00		 call	 DWORD PTR __imp_?Right@?$CStringT@DV?$StrTraitMFC_DLL@DV?$ChTraitsCRT@D@ATL@@@@@ATL@@QBE?AV12@H@Z
; File C:\Program Files (x86)\Microsoft Visual Studio\2019\Community\VC\Tools\MSVC\14.29.30133\atlmfc\include\cstringt.h

; 2567 : 		return( str1.Compare( psz2 ) != 0 );

  000d2	68 00 00 00 00	 push	 OFFSET ??_C@_01IHBHIGKO@?0@
  000d7	8b c8		 mov	 ecx, eax
; File D:\git\src\IBK\IBK_DRFN\ProjSrc\SrcChartEx\ChartAddIn\ChartDataListViewerAddIn\ChartDataListViewerAddIn\ChartDataSimulatorAddInImp.cpp

; 524  : 	if(strRealPacketNames.Right(1) != ",")

  000d9	c7 45 fc 01 00
	00 00		 mov	 DWORD PTR __$EHRec$[ebp+8], 1
; File C:\Program Files (x86)\Microsoft Visual Studio\2019\Community\VC\Tools\MSVC\14.29.30133\atlmfc\include\cstringt.h

; 2567 : 		return( str1.Compare( psz2 ) != 0 );

  000e0	ff 15 00 00 00
	00		 call	 DWORD PTR __imp_?Compare@?$CStringT@DV?$StrTraitMFC_DLL@DV?$ChTraitsCRT@D@ATL@@@@@ATL@@QBEHPBD@Z
; File D:\git\src\IBK\IBK_DRFN\ProjSrc\SrcChartEx\ChartAddIn\ChartDataListViewerAddIn\ChartDataListViewerAddIn\ChartDataSimulatorAddInImp.cpp

; 524  : 	if(strRealPacketNames.Right(1) != ",")

  000e6	8d 4d 10	 lea	 ecx, DWORD PTR $T3[ebp]
  000e9	c6 45 fc 00	 mov	 BYTE PTR __$EHRec$[ebp+8], 0
; File C:\Program Files (x86)\Microsoft Visual Studio\2019\Community\VC\Tools\MSVC\14.29.30133\atlmfc\include\cstringt.h

; 2567 : 		return( str1.Compare( psz2 ) != 0 );

  000ed	8b f0		 mov	 esi, eax
; File D:\git\src\IBK\IBK_DRFN\ProjSrc\SrcChartEx\ChartAddIn\ChartDataListViewerAddIn\ChartDataListViewerAddIn\ChartDataSimulatorAddInImp.cpp

; 524  : 	if(strRealPacketNames.Right(1) != ",")

  000ef	ff 15 00 00 00
	00		 call	 DWORD PTR __imp_??1?$CStringT@DV?$StrTraitMFC_DLL@DV?$ChTraitsCRT@D@ATL@@@@@ATL@@QAE@XZ
  000f5	85 f6		 test	 esi, esi
  000f7	74 0d		 je	 SHORT $LN15@GetDataWin

; 525  : 		strRealPacketNames += ",";

  000f9	68 00 00 00 00	 push	 OFFSET ??_C@_01IHBHIGKO@?0@
  000fe	8b cf		 mov	 ecx, edi
  00100	ff 15 00 00 00
	00		 call	 DWORD PTR __imp_??Y?$CStringT@DV?$StrTraitMFC_DLL@DV?$ChTraitsCRT@D@ATL@@@@@ATL@@QAEAAV01@PBD@Z
$LN15@GetDataWin:

; 528  : }

  00106	8b c7		 mov	 eax, edi
  00108	8b 4d f4	 mov	 ecx, DWORD PTR __$EHRec$[ebp]
  0010b	64 89 0d 00 00
	00 00		 mov	 DWORD PTR fs:0, ecx
  00112	59		 pop	 ecx
  00113	5f		 pop	 edi
  00114	5e		 pop	 esi
  00115	5b		 pop	 ebx
  00116	8b e5		 mov	 esp, ebp
  00118	5d		 pop	 ebp
  00119	c2 0c 00	 ret	 12			; 0000000cH
_TEXT	ENDS
;	COMDAT text$x
text$x	SEGMENT
__unwindfunclet$?GetDataWindowRealPacketNames@CChartDataSimulatorAddInImp@@IBE?AV?$CStringT@DV?$StrTraitMFC_DLL@DV?$ChTraitsCRT@D@ATL@@@@@ATL@@PBD0@Z$0:
  00000	8b 45 f0	 mov	 eax, DWORD PTR $T2[ebp]
  00003	83 e0 01	 and	 eax, 1
  00006	0f 84 0d 00 00
	00		 je	 $LN7@GetDataWin
  0000c	83 65 f0 fe	 and	 DWORD PTR $T2[ebp], -2	; fffffffeH
  00010	8b 4d 08	 mov	 ecx, DWORD PTR ___$ReturnUdt$[ebp]
  00013	ff 25 00 00 00
	00		 jmp	 DWORD PTR __imp_??1?$CStringT@DV?$StrTraitMFC_DLL@DV?$ChTraitsCRT@D@ATL@@@@@ATL@@QAE@XZ
$LN7@GetDataWin:
  00019	c3		 ret	 0
__unwindfunclet$?GetDataWindowRealPacketNames@CChartDataSimulatorAddInImp@@IBE?AV?$CStringT@DV?$StrTraitMFC_DLL@DV?$ChTraitsCRT@D@ATL@@@@@ATL@@PBD0@Z$1:
  0001a	8d 4d 10	 lea	 ecx, DWORD PTR $T3[ebp]
  0001d	ff 25 00 00 00
	00		 jmp	 DWORD PTR __imp_??1?$CStringT@DV?$StrTraitMFC_DLL@DV?$ChTraitsCRT@D@ATL@@@@@ATL@@QAE@XZ
  00023	cc		 int	 3
  00024	cc		 int	 3
  00025	cc		 int	 3
  00026	cc		 int	 3
  00027	cc		 int	 3
__ehhandler$?GetDataWindowRealPacketNames@CChartDataSimulatorAddInImp@@IBE?AV?$CStringT@DV?$StrTraitMFC_DLL@DV?$ChTraitsCRT@D@ATL@@@@@ATL@@PBD0@Z:
  00028	90		 npad	 1
  00029	90		 npad	 1
  0002a	8b 54 24 08	 mov	 edx, DWORD PTR [esp+8]
  0002e	8d 42 0c	 lea	 eax, DWORD PTR [edx+12]
  00031	8b 4a ec	 mov	 ecx, DWORD PTR [edx-20]
  00034	33 c8		 xor	 ecx, eax
  00036	e8 00 00 00 00	 call	 @__security_check_cookie@4
  0003b	b8 00 00 00 00	 mov	 eax, OFFSET __ehfuncinfo$?GetDataWindowRealPacketNames@CChartDataSimulatorAddInImp@@IBE?AV?$CStringT@DV?$StrTraitMFC_DLL@DV?$ChTraitsCRT@D@ATL@@@@@ATL@@PBD0@Z
  00040	e9 00 00 00 00	 jmp	 ___CxxFrameHandler3
text$x	ENDS
?GetDataWindowRealPacketNames@CChartDataSimulatorAddInImp@@IBE?AV?$CStringT@DV?$StrTraitMFC_DLL@DV?$ChTraitsCRT@D@ATL@@@@@ATL@@PBD0@Z ENDP ; CChartDataSimulatorAddInImp::GetDataWindowRealPacketNames
; Function compile flags: /Ogtp
; File D:\git\src\IBK\IBK_DRFN\ProjSrc\SrcChartEx\ChartAddIn\ChartDataListViewerAddIn\ChartDataListViewerAddIn\ChartDataSimulatorAddInImp.h
;	COMDAT ?GetRegisteredEventMap@CChartDataSimulatorAddInImp@@MBEPBW4EAddInEventType@IChartAddIn134221@@XZ
_TEXT	SEGMENT
?GetRegisteredEventMap@CChartDataSimulatorAddInImp@@MBEPBW4EAddInEventType@IChartAddIn134221@@XZ PROC ; CChartDataSimulatorAddInImp::GetRegisteredEventMap, COMDAT
; _this$ = ecx

; 108  : 	virtual const EAddInEventType *	GetRegisteredEventMap( void) const	{	return m_eRegisteredEventMap;	}

  00000	b8 00 00 00 00	 mov	 eax, OFFSET ?m_eRegisteredEventMap@CChartDataSimulatorAddInImp@@1QBW4EAddInEventType@IChartAddIn134221@@B ; CChartDataSimulatorAddInImp::m_eRegisteredEventMap
  00005	c3		 ret	 0
?GetRegisteredEventMap@CChartDataSimulatorAddInImp@@MBEPBW4EAddInEventType@IChartAddIn134221@@XZ ENDP ; CChartDataSimulatorAddInImp::GetRegisteredEventMap
_TEXT	ENDS
; Function compile flags: /Ogtp
; File D:\git\src\IBK\IBK_DRFN\ProjSrc\SrcChartEx\ChartAddIn\ChartDataListViewerAddIn\ChartDataListViewerAddIn\ChartDataSimulatorAddInImp.cpp
;	COMDAT ??1CChartDataSimulatorAddInImp@@UAE@XZ
_TEXT	SEGMENT
??1CChartDataSimulatorAddInImp@@UAE@XZ PROC		; CChartDataSimulatorAddInImp::~CChartDataSimulatorAddInImp, COMDAT
; _this$ = ecx

; 47   : {

  00000	56		 push	 esi
  00001	8b f1		 mov	 esi, ecx

; 48   : 
; 49   : }

  00003	8d 4e 44	 lea	 ecx, DWORD PTR [esi+68]
  00006	c7 06 00 00 00
	00		 mov	 DWORD PTR [esi], OFFSET ??_7CChartDataSimulatorAddInImp@@6BCIWUnknown@@@
  0000c	c7 46 08 00 00
	00 00		 mov	 DWORD PTR [esi+8], OFFSET ??_7CChartDataSimulatorAddInImp@@6BIChartAddIn134221@@@
  00013	ff 15 00 00 00
	00		 call	 DWORD PTR __imp_??1?$CStringT@DV?$StrTraitMFC_DLL@DV?$ChTraitsCRT@D@ATL@@@@@ATL@@QAE@XZ
  00019	8b ce		 mov	 ecx, esi
  0001b	5e		 pop	 esi
  0001c	e9 00 00 00 00	 jmp	 ??1CChartAddInBase134221@@MAE@XZ ; CChartAddInBase134221::~CChartAddInBase134221
??1CChartDataSimulatorAddInImp@@UAE@XZ ENDP		; CChartDataSimulatorAddInImp::~CChartDataSimulatorAddInImp
_TEXT	ENDS
; Function compile flags: /Ogtp
; File D:\git\src\IBK\IBK_DRFN\ProjSrc\SrcChartEx\ChartAddIn\ChartDataListViewerAddIn\ChartDataListViewerAddIn\ChartDataSimulatorAddInImp.cpp
;	COMDAT ??0CChartDataSimulatorAddInImp@@QAE@PAUIChartOCX134221@@PAUIAddInDllBase@@@Z
_TEXT	SEGMENT
_this$ = -4						; size = 4
_p_pIChartOCX$ = 8					; size = 4
_p_pIAddInDllBase$ = 12					; size = 4
??0CChartDataSimulatorAddInImp@@QAE@PAUIChartOCX134221@@PAUIAddInDllBase@@@Z PROC ; CChartDataSimulatorAddInImp::CChartDataSimulatorAddInImp, COMDAT
; _this$ = ecx

; 39   : {

  00000	55		 push	 ebp
  00001	8b ec		 mov	 ebp, esp
  00003	51		 push	 ecx
  00004	56		 push	 esi
  00005	57		 push	 edi
  00006	ff 75 0c	 push	 DWORD PTR _p_pIAddInDllBase$[ebp]
  00009	8b f9		 mov	 edi, ecx
  0000b	ff 75 08	 push	 DWORD PTR _p_pIChartOCX$[ebp]
  0000e	89 7d fc	 mov	 DWORD PTR _this$[ebp], edi
  00011	e8 00 00 00 00	 call	 ??0CChartAddInBase134221@@IAE@PAUIChartOCX134221@@PAUIAddInDllBase@@@Z ; CChartAddInBase134221::CChartAddInBase134221
  00016	8d 4f 44	 lea	 ecx, DWORD PTR [edi+68]
  00019	c7 07 00 00 00
	00		 mov	 DWORD PTR [edi], OFFSET ??_7CChartDataSimulatorAddInImp@@6BCIWUnknown@@@
  0001f	c7 47 08 00 00
	00 00		 mov	 DWORD PTR [edi+8], OFFSET ??_7CChartDataSimulatorAddInImp@@6BIChartAddIn134221@@@
  00026	ff 15 00 00 00
	00		 call	 DWORD PTR __imp_??0?$CStringT@DV?$StrTraitMFC_DLL@DV?$ChTraitsCRT@D@ATL@@@@@ATL@@QAE@XZ

; 40   : 	m_strSimulateRQ.Empty();

  0002c	8d 4f 44	 lea	 ecx, DWORD PTR [edi+68]
  0002f	ff 15 00 00 00
	00		 call	 DWORD PTR __imp_?Empty@?$CSimpleStringT@D$00@ATL@@QAEXXZ

; 41   : 	m_nDataType				= -1;
; 42   : 	m_bUpdateRealData		= TRUE;
; 43   : 	m_dLastSimulateDateTime = -1;	

  00035	f2 0f 10 05 00
	00 00 00	 movsd	 xmm0, QWORD PTR __real@bff0000000000000

; 44   : }

  0003d	8b c7		 mov	 eax, edi
  0003f	c7 47 50 ff ff
	ff ff		 mov	 DWORD PTR [edi+80], -1
  00046	c7 47 40 01 00
	00 00		 mov	 DWORD PTR [edi+64], 1
  0004d	f2 0f 11 47 48	 movsd	 QWORD PTR [edi+72], xmm0
  00052	5f		 pop	 edi
  00053	5e		 pop	 esi
  00054	8b e5		 mov	 esp, ebp
  00056	5d		 pop	 ebp
  00057	c2 08 00	 ret	 8
??0CChartDataSimulatorAddInImp@@QAE@PAUIChartOCX134221@@PAUIAddInDllBase@@@Z ENDP ; CChartDataSimulatorAddInImp::CChartDataSimulatorAddInImp
_TEXT	ENDS
; Function compile flags: /Ogtp
; File D:\git\src\IBK\IBK_DRFN\ProjSrc\SrcChartEx\ChartAddIn\ChartDataListViewerAddIn\ChartDataListViewerAddIn\ChartDataSimulatorAddInImp.h
; File C:\Program Files (x86)\Microsoft Visual Studio\2019\Community\VC\Tools\MSVC\14.29.30133\atlmfc\include\afxtempl.h
; File D:\git\src\IBK\IBK_DRFN\ProjSrc\SrcChartEx\ChartAddIn\ChartDataListViewerAddIn\ChartDataListViewerAddIn\ChartDataSimulatorAddInImp.h
; File C:\Program Files (x86)\Microsoft Visual Studio\2019\Community\VC\Tools\MSVC\14.29.30133\atlmfc\include\afxtempl.h
; File D:\git\src\IBK\IBK_DRFN\ProjSrc\SrcChartEx\ChartAddIn\ChartDataListViewerAddIn\ChartDataListViewerAddIn\ChartDataSimulatorAddInImp.h
; File C:\Program Files (x86)\Microsoft Visual Studio\2019\Community\VC\Tools\MSVC\14.29.30133\atlmfc\include\afxtempl.h
; File D:\git\src\IBK\IBK_DRFN\ProjSrc\SrcChartEx\ChartAddIn\ChartDataListViewerAddIn\ChartDataListViewerAddIn\ChartDataSimulatorAddInImp.h
; File C:\Program Files (x86)\Microsoft Visual Studio\2019\Community\VC\Tools\MSVC\14.29.30133\atlmfc\include\afxtempl.h
; File D:\git\src\IBK\IBK_DRFN\ProjSrc\SrcChartEx\ChartAddIn\ChartDataListViewerAddIn\ChartDataListViewerAddIn\ChartDataSimulatorAddInImp.h
; File C:\Program Files (x86)\Microsoft Visual Studio\2019\Community\VC\Tools\MSVC\14.29.30133\atlmfc\include\afxtempl.h
; File D:\git\src\IBK\IBK_DRFN\ProjSrc\SrcChartEx\ChartAddIn\ChartDataListViewerAddIn\ChartDataListViewerAddIn\ChartDataSimulatorAddInImp.h
; File C:\Program Files (x86)\Microsoft Visual Studio\2019\Community\VC\Tools\MSVC\14.29.30133\atlmfc\include\afxtempl.h
; File D:\git\src\IBK\IBK_DRFN\ProjSrc\SrcChartEx\ChartAddIn\ChartDataListViewerAddIn\ChartDataListViewerAddIn\ChartDataSimulatorAddInImp.h
;	COMDAT ??1CChartDataGridManager@@QAE@XZ
_TEXT	SEGMENT
__$EHRec$ = -12						; size = 12
??1CChartDataGridManager@@QAE@XZ PROC			; CChartDataGridManager::~CChartDataGridManager, COMDAT
; _this$ = ecx

; 90   : 	{

  00000	55		 push	 ebp
  00001	8b ec		 mov	 ebp, esp
  00003	6a ff		 push	 -1
  00005	68 00 00 00 00	 push	 __ehhandler$??1CChartDataGridManager@@QAE@XZ
  0000a	64 a1 00 00 00
	00		 mov	 eax, DWORD PTR fs:0
  00010	50		 push	 eax
  00011	53		 push	 ebx
  00012	56		 push	 esi
  00013	57		 push	 edi
  00014	a1 00 00 00 00	 mov	 eax, DWORD PTR ___security_cookie
  00019	33 c5		 xor	 eax, ebp
  0001b	50		 push	 eax
  0001c	8d 45 f4	 lea	 eax, DWORD PTR __$EHRec$[ebp]
  0001f	64 a3 00 00 00
	00		 mov	 DWORD PTR fs:0, eax
  00025	8b f1		 mov	 esi, ecx

; 91   : 		for(int i = 0 ; i < m_ChartDataGridHeaderInfoArray.GetSize(); i++) delete m_ChartDataGridHeaderInfoArray.GetAt(i);

  00027	8b 46 20	 mov	 eax, DWORD PTR [esi+32]
  0002a	33 ff		 xor	 edi, edi
  0002c	85 c0		 test	 eax, eax
  0002e	7e 47		 jle	 SHORT $LN62@CChartData
$LL4@CChartData:
; File C:\Program Files (x86)\Microsoft Visual Studio\2019\Community\VC\Tools\MSVC\14.29.30133\atlmfc\include\afxtempl.h

; 288  : 	if(nIndex >= 0 && nIndex < m_nSize)

  00030	85 ff		 test	 edi, edi
  00032	0f 88 6c 01 00
	00		 js	 $LN66@CChartData
  00038	3b f8		 cmp	 edi, eax
  0003a	0f 8d 64 01 00
	00		 jge	 $LN66@CChartData

; 289  : 		return m_pData[nIndex];

  00040	8b 46 1c	 mov	 eax, DWORD PTR [esi+28]
; File D:\git\src\IBK\IBK_DRFN\ProjSrc\SrcChartEx\ChartAddIn\ChartDataListViewerAddIn\ChartDataListViewerAddIn\ChartDataSimulatorAddInImp.h

; 91   : 		for(int i = 0 ; i < m_ChartDataGridHeaderInfoArray.GetSize(); i++) delete m_ChartDataGridHeaderInfoArray.GetAt(i);

  00043	8b 1c b8	 mov	 ebx, DWORD PTR [eax+edi*4]
  00046	85 db		 test	 ebx, ebx
  00048	74 25		 je	 SHORT $LN2@CChartData
  0004a	8d 4b 08	 lea	 ecx, DWORD PTR [ebx+8]
  0004d	ff 15 00 00 00
	00		 call	 DWORD PTR __imp_??1?$CStringT@DV?$StrTraitMFC_DLL@DV?$ChTraitsCRT@D@ATL@@@@@ATL@@QAE@XZ
  00053	8d 4b 04	 lea	 ecx, DWORD PTR [ebx+4]
  00056	ff 15 00 00 00
	00		 call	 DWORD PTR __imp_??1?$CStringT@DV?$StrTraitMFC_DLL@DV?$ChTraitsCRT@D@ATL@@@@@ATL@@QAE@XZ
  0005c	8b cb		 mov	 ecx, ebx
  0005e	ff 15 00 00 00
	00		 call	 DWORD PTR __imp_??1?$CStringT@DV?$StrTraitMFC_DLL@DV?$ChTraitsCRT@D@ATL@@@@@ATL@@QAE@XZ
  00064	6a 0c		 push	 12			; 0000000cH
  00066	53		 push	 ebx
  00067	e8 00 00 00 00	 call	 ??3@YAXPAXI@Z		; operator delete
  0006c	83 c4 08	 add	 esp, 8
$LN2@CChartData:
  0006f	8b 46 20	 mov	 eax, DWORD PTR [esi+32]
  00072	47		 inc	 edi
  00073	3b f8		 cmp	 edi, eax
  00075	7c b9		 jl	 SHORT $LL4@CChartData
$LN62@CChartData:
; File C:\Program Files (x86)\Microsoft Visual Studio\2019\Community\VC\Tools\MSVC\14.29.30133\atlmfc\include\afxtempl.h

; 786  : 	{ return m_nCount == 0; }

  00077	83 7e 38 00	 cmp	 DWORD PTR [esi+56], 0
; File D:\git\src\IBK\IBK_DRFN\ProjSrc\SrcChartEx\ChartAddIn\ChartDataListViewerAddIn\ChartDataListViewerAddIn\ChartDataSimulatorAddInImp.h

; 92   : 		while(!m_ChartDataList.IsEmpty()) delete m_ChartDataList.RemoveHead();

  0007b	0f 84 97 00 00
	00		 je	 $LN6@CChartData
$LL5@CChartData:
; File C:\Program Files (x86)\Microsoft Visual Studio\2019\Community\VC\Tools\MSVC\14.29.30133\atlmfc\include\afxtempl.h

; 1009 : 	ENSURE(m_pNodeHead != NULL);  // don't call on empty list !!!

  00081	8b 4e 30	 mov	 ecx, DWORD PTR [esi+48]
  00084	85 c9		 test	 ecx, ecx
  00086	0f 84 18 01 00
	00		 je	 $LN66@CChartData

; 1010 : 	ASSERT(AfxIsValidAddress(m_pNodeHead, sizeof(CNode)));
; 1011 : 
; 1012 : 	CNode* pOldNode = m_pNodeHead;
; 1013 : 	TYPE returnValue = pOldNode->data;
; 1014 : 
; 1015 : 	m_pNodeHead = pOldNode->pNext;

  0008c	8b 01		 mov	 eax, DWORD PTR [ecx]
  0008e	8b 79 08	 mov	 edi, DWORD PTR [ecx+8]
  00091	89 46 30	 mov	 DWORD PTR [esi+48], eax

; 1016 : 	if (m_pNodeHead != NULL)

  00094	85 c0		 test	 eax, eax
  00096	74 09		 je	 SHORT $LN29@CChartData

; 1017 : 		m_pNodeHead->pPrev = NULL;

  00098	c7 40 04 00 00
	00 00		 mov	 DWORD PTR [eax+4], 0
  0009f	eb 07		 jmp	 SHORT $LN30@CChartData
$LN29@CChartData:

; 1018 : 	else
; 1019 : 		m_pNodeTail = NULL;

  000a1	c7 46 34 00 00
	00 00		 mov	 DWORD PTR [esi+52], 0
$LN30@CChartData:

; 938  : 	pNode->pNext = m_pNodeFree;

  000a8	8b 46 3c	 mov	 eax, DWORD PTR [esi+60]
  000ab	89 01		 mov	 DWORD PTR [ecx], eax

; 939  : 	m_pNodeFree = pNode;
; 940  : 	m_nCount--;

  000ad	83 46 38 ff	 add	 DWORD PTR [esi+56], -1
  000b1	89 4e 3c	 mov	 DWORD PTR [esi+60], ecx

; 941  : 	ASSERT(m_nCount >= 0);  // make sure we don't underflow
; 942  : 
; 943  : 	// if no more elements, cleanup completely
; 944  : 	if (m_nCount == 0)

  000b4	75 2b		 jne	 SHORT $LN76@CChartData

; 872  : 	m_pBlocks->FreeDataChain();

  000b6	8b 4e 40	 mov	 ecx, DWORD PTR [esi+64]
  000b9	c7 46 38 00 00
	00 00		 mov	 DWORD PTR [esi+56], 0
  000c0	c7 46 3c 00 00
	00 00		 mov	 DWORD PTR [esi+60], 0
  000c7	c7 46 34 00 00
	00 00		 mov	 DWORD PTR [esi+52], 0
  000ce	c7 46 30 00 00
	00 00		 mov	 DWORD PTR [esi+48], 0
  000d5	e8 00 00 00 00	 call	 ?FreeDataChain@CPlex@@QAEXXZ ; CPlex::FreeDataChain

; 873  : 	m_pBlocks = NULL;

  000da	c7 46 40 00 00
	00 00		 mov	 DWORD PTR [esi+64], 0
$LN76@CChartData:
; File D:\git\src\IBK\IBK_DRFN\ProjSrc\SrcChartEx\ChartAddIn\ChartDataListViewerAddIn\ChartDataListViewerAddIn\ChartDataSimulatorAddInImp.h

; 92   : 		while(!m_ChartDataList.IsEmpty()) delete m_ChartDataList.RemoveHead();

  000e1	85 ff		 test	 edi, edi
  000e3	74 29		 je	 SHORT $LN41@CChartData
  000e5	ff 35 00 00 00
	00		 push	 DWORD PTR __imp_??1?$CStringT@DV?$StrTraitMFC_DLL@DV?$ChTraitsCRT@D@ATL@@@@@ATL@@QAE@XZ
  000eb	c7 45 fc 00 00
	00 00		 mov	 DWORD PTR __$EHRec$[ebp+8], 0
  000f2	6a 06		 push	 6
  000f4	6a 04		 push	 4
  000f6	57		 push	 edi
  000f7	e8 00 00 00 00	 call	 ??_M@YGXPAXIIP6EX0@Z@Z
  000fc	6a 18		 push	 24			; 00000018H
  000fe	57		 push	 edi
  000ff	c7 45 fc ff ff
	ff ff		 mov	 DWORD PTR __$EHRec$[ebp+8], -1
  00106	e8 00 00 00 00	 call	 ??3@YAXPAXI@Z		; operator delete
  0010b	83 c4 08	 add	 esp, 8
$LN41@CChartData:
; File C:\Program Files (x86)\Microsoft Visual Studio\2019\Community\VC\Tools\MSVC\14.29.30133\atlmfc\include\afxtempl.h

; 786  : 	{ return m_nCount == 0; }

  0010e	83 7e 38 00	 cmp	 DWORD PTR [esi+56], 0
; File D:\git\src\IBK\IBK_DRFN\ProjSrc\SrcChartEx\ChartAddIn\ChartDataListViewerAddIn\ChartDataListViewerAddIn\ChartDataSimulatorAddInImp.h

; 92   : 		while(!m_ChartDataList.IsEmpty()) delete m_ChartDataList.RemoveHead();

  00112	0f 85 69 ff ff
	ff		 jne	 $LL5@CChartData
$LN6@CChartData:
; File C:\Program Files (x86)\Microsoft Visual Studio\2019\Community\VC\Tools\MSVC\14.29.30133\atlmfc\include\afxtempl.h

; 872  : 	m_pBlocks->FreeDataChain();

  00118	8b 4e 40	 mov	 ecx, DWORD PTR [esi+64]

; 878  : {

  0011b	c7 45 fc 01 00
	00 00		 mov	 DWORD PTR __$EHRec$[ebp+8], 1
  00122	c7 46 2c 00 00
	00 00		 mov	 DWORD PTR [esi+44], OFFSET ??_7?$CList@PAVCChartRecordSet@@PAV1@@@6B@

; 870  : 	m_nCount = 0;

  00129	c7 46 38 00 00
	00 00		 mov	 DWORD PTR [esi+56], 0

; 871  : 	m_pNodeHead = m_pNodeTail = m_pNodeFree = NULL;

  00130	c7 46 3c 00 00
	00 00		 mov	 DWORD PTR [esi+60], 0
  00137	c7 46 34 00 00
	00 00		 mov	 DWORD PTR [esi+52], 0
  0013e	c7 46 30 00 00
	00 00		 mov	 DWORD PTR [esi+48], 0

; 872  : 	m_pBlocks->FreeDataChain();

  00145	e8 00 00 00 00	 call	 ?FreeDataChain@CPlex@@QAEXXZ ; CPlex::FreeDataChain

; 873  : 	m_pBlocks = NULL;

  0014a	c7 46 40 00 00
	00 00		 mov	 DWORD PTR [esi+64], 0

; 358  : 	if (m_pData != NULL)

  00151	8b 46 1c	 mov	 eax, DWORD PTR [esi+28]
  00154	c7 46 18 00 00
	00 00		 mov	 DWORD PTR [esi+24], OFFSET ??_7?$CArray@PAVCChartDataGridHeaderInfo@@PAV1@@@6B@
  0015b	85 c0		 test	 eax, eax
  0015d	74 10		 je	 SHORT $LN58@CChartData

; 359  : 	{
; 360  : 		for( int i = 0; i < m_nSize; i++ )

  0015f	83 7e 20 00	 cmp	 DWORD PTR [esi+32], 0
  00163	0f 4f c0	 cmovg	 eax, eax

; 361  : 			(m_pData + i)->~TYPE();
; 362  : 		delete[] (BYTE*)m_pData;

  00166	50		 push	 eax
  00167	e8 00 00 00 00	 call	 ??_V@YAXPAX@Z		; operator delete[]
  0016c	83 c4 04	 add	 esp, 4
$LN58@CChartData:
; File D:\git\src\IBK\IBK_DRFN\ProjSrc\SrcChartEx\ChartAddIn\ChartDataListViewerAddIn\ChartDataListViewerAddIn\ChartDataSimulatorAddInImp.h

; 93   : 	}

  0016f	8d 4e 14	 lea	 ecx, DWORD PTR [esi+20]
  00172	ff 15 00 00 00
	00		 call	 DWORD PTR __imp_??1?$CStringT@DV?$StrTraitMFC_DLL@DV?$ChTraitsCRT@D@ATL@@@@@ATL@@QAE@XZ
  00178	8d 4e 08	 lea	 ecx, DWORD PTR [esi+8]
  0017b	ff 15 00 00 00
	00		 call	 DWORD PTR __imp_??1?$CStringT@DV?$StrTraitMFC_DLL@DV?$ChTraitsCRT@D@ATL@@@@@ATL@@QAE@XZ
  00181	8d 4e 04	 lea	 ecx, DWORD PTR [esi+4]
  00184	ff 15 00 00 00
	00		 call	 DWORD PTR __imp_??1?$CStringT@DV?$StrTraitMFC_DLL@DV?$ChTraitsCRT@D@ATL@@@@@ATL@@QAE@XZ
  0018a	8b ce		 mov	 ecx, esi
  0018c	ff 15 00 00 00
	00		 call	 DWORD PTR __imp_??1?$CStringT@DV?$StrTraitMFC_DLL@DV?$ChTraitsCRT@D@ATL@@@@@ATL@@QAE@XZ
  00192	8b 4d f4	 mov	 ecx, DWORD PTR __$EHRec$[ebp]
  00195	64 89 0d 00 00
	00 00		 mov	 DWORD PTR fs:0, ecx
  0019c	59		 pop	 ecx
  0019d	5f		 pop	 edi
  0019e	5e		 pop	 esi
  0019f	5b		 pop	 ebx
  001a0	8b e5		 mov	 esp, ebp
  001a2	5d		 pop	 ebp
  001a3	c3		 ret	 0
$LN66@CChartData:
; File C:\Program Files (x86)\Microsoft Visual Studio\2019\Community\VC\Tools\MSVC\14.29.30133\atlmfc\include\afxtempl.h

; 1009 : 	ENSURE(m_pNodeHead != NULL);  // don't call on empty list !!!

  001a4	e8 00 00 00 00	 call	 ?AfxThrowInvalidArgException@@YGXXZ ; AfxThrowInvalidArgException
$LN85@CChartData:
  001a9	cc		 int	 3
  001aa	cc		 int	 3
  001ab	cc		 int	 3
  001ac	cc		 int	 3
  001ad	cc		 int	 3
  001ae	cc		 int	 3
_TEXT	ENDS
;	COMDAT text$x
text$x	SEGMENT
__ehhandler$??1CChartDataGridManager@@QAE@XZ:
  00000	90		 npad	 1
  00001	90		 npad	 1
  00002	8b 54 24 08	 mov	 edx, DWORD PTR [esp+8]
  00006	8d 42 0c	 lea	 eax, DWORD PTR [edx+12]
  00009	8b 4a f0	 mov	 ecx, DWORD PTR [edx-16]
  0000c	33 c8		 xor	 ecx, eax
  0000e	e8 00 00 00 00	 call	 @__security_check_cookie@4
  00013	b8 00 00 00 00	 mov	 eax, OFFSET __ehfuncinfo$??1CChartDataGridManager@@QAE@XZ
  00018	e9 00 00 00 00	 jmp	 ___CxxFrameHandler3
text$x	ENDS
??1CChartDataGridManager@@QAE@XZ ENDP			; CChartDataGridManager::~CChartDataGridManager
; Function compile flags: /Ogtp
; File C:\Program Files (x86)\Microsoft Visual Studio\2019\Community\VC\Tools\MSVC\14.29.30133\atlmfc\include\afxtempl.h
; File C:\Program Files (x86)\Microsoft Visual Studio\2019\Community\VC\Tools\MSVC\14.29.30133\atlmfc\include\afx.inl
;	COMDAT ??_G?$CList@PAVCChartRecordSet@@PAV1@@@UAEPAXI@Z
_TEXT	SEGMENT
__$EHRec$ = -12						; size = 12
___flags$ = 8						; size = 4
??_G?$CList@PAVCChartRecordSet@@PAV1@@@UAEPAXI@Z PROC	; CList<CChartRecordSet *,CChartRecordSet *>::`scalar deleting destructor', COMDAT
; _this$ = ecx
  00000	55		 push	 ebp
  00001	8b ec		 mov	 ebp, esp
  00003	6a ff		 push	 -1
  00005	68 00 00 00 00	 push	 __ehhandler$??_G?$CList@PAVCChartRecordSet@@PAV1@@@UAEPAXI@Z
  0000a	64 a1 00 00 00
	00		 mov	 eax, DWORD PTR fs:0
  00010	50		 push	 eax
  00011	56		 push	 esi
  00012	a1 00 00 00 00	 mov	 eax, DWORD PTR ___security_cookie
  00017	33 c5		 xor	 eax, ebp
  00019	50		 push	 eax
  0001a	8d 45 f4	 lea	 eax, DWORD PTR __$EHRec$[ebp]
  0001d	64 a3 00 00 00
	00		 mov	 DWORD PTR fs:0, eax
  00023	8b f1		 mov	 esi, ecx
; File C:\Program Files (x86)\Microsoft Visual Studio\2019\Community\VC\Tools\MSVC\14.29.30133\atlmfc\include\afxtempl.h

; 872  : 	m_pBlocks->FreeDataChain();

  00025	8b 4e 14	 mov	 ecx, DWORD PTR [esi+20]

; 878  : {

  00028	c7 45 fc 00 00
	00 00		 mov	 DWORD PTR __$EHRec$[ebp+8], 0
  0002f	c7 06 00 00 00
	00		 mov	 DWORD PTR [esi], OFFSET ??_7?$CList@PAVCChartRecordSet@@PAV1@@@6B@

; 870  : 	m_nCount = 0;

  00035	c7 46 0c 00 00
	00 00		 mov	 DWORD PTR [esi+12], 0

; 871  : 	m_pNodeHead = m_pNodeTail = m_pNodeFree = NULL;

  0003c	c7 46 10 00 00
	00 00		 mov	 DWORD PTR [esi+16], 0
  00043	c7 46 08 00 00
	00 00		 mov	 DWORD PTR [esi+8], 0
  0004a	c7 46 04 00 00
	00 00		 mov	 DWORD PTR [esi+4], 0

; 872  : 	m_pBlocks->FreeDataChain();

  00051	e8 00 00 00 00	 call	 ?FreeDataChain@CPlex@@QAEXXZ ; CPlex::FreeDataChain

; 873  : 	m_pBlocks = NULL;

  00056	8b 45 08	 mov	 eax, DWORD PTR ___flags$[ebp]
  00059	c7 46 14 00 00
	00 00		 mov	 DWORD PTR [esi+20], 0
  00060	a8 01		 test	 al, 1
  00062	74 2c		 je	 SHORT $LN22@scalar
  00064	a8 04		 test	 al, 4
  00066	75 1d		 jne	 SHORT $LN3@scalar
; File C:\Program Files (x86)\Microsoft Visual Studio\2019\Community\VC\Tools\MSVC\14.29.30133\atlmfc\include\afx.inl

; 112  : 	{ ::operator delete(p); }

  00068	56		 push	 esi
  00069	e8 00 00 00 00	 call	 ??3@YAXPAX@Z		; operator delete
  0006e	83 c4 04	 add	 esp, 4
  00071	8b c6		 mov	 eax, esi
  00073	8b 4d f4	 mov	 ecx, DWORD PTR __$EHRec$[ebp]
  00076	64 89 0d 00 00
	00 00		 mov	 DWORD PTR fs:0, ecx
  0007d	59		 pop	 ecx
  0007e	5e		 pop	 esi
  0007f	8b e5		 mov	 esp, ebp
  00081	5d		 pop	 ebp
  00082	c2 04 00	 ret	 4
$LN3@scalar:
  00085	6a 1c		 push	 28			; 0000001cH
  00087	56		 push	 esi
  00088	e8 00 00 00 00	 call	 ?__global_delete@@YAXPAXI@Z ; __global_delete
  0008d	83 c4 08	 add	 esp, 8
$LN22@scalar:
  00090	8b c6		 mov	 eax, esi
  00092	8b 4d f4	 mov	 ecx, DWORD PTR __$EHRec$[ebp]
  00095	64 89 0d 00 00
	00 00		 mov	 DWORD PTR fs:0, ecx
  0009c	59		 pop	 ecx
  0009d	5e		 pop	 esi
  0009e	8b e5		 mov	 esp, ebp
  000a0	5d		 pop	 ebp
  000a1	c2 04 00	 ret	 4
  000a4	cc		 int	 3
  000a5	cc		 int	 3
  000a6	cc		 int	 3
  000a7	cc		 int	 3
  000a8	cc		 int	 3
_TEXT	ENDS
;	COMDAT text$x
text$x	SEGMENT
__ehhandler$??_G?$CList@PAVCChartRecordSet@@PAV1@@@UAEPAXI@Z:
  00000	90		 npad	 1
  00001	90		 npad	 1
  00002	8b 54 24 08	 mov	 edx, DWORD PTR [esp+8]
  00006	8d 42 0c	 lea	 eax, DWORD PTR [edx+12]
  00009	8b 4a f8	 mov	 ecx, DWORD PTR [edx-8]
  0000c	33 c8		 xor	 ecx, eax
  0000e	e8 00 00 00 00	 call	 @__security_check_cookie@4
  00013	b8 00 00 00 00	 mov	 eax, OFFSET __ehfuncinfo$??_G?$CList@PAVCChartRecordSet@@PAV1@@@UAEPAXI@Z
  00018	e9 00 00 00 00	 jmp	 ___CxxFrameHandler3
text$x	ENDS
??_G?$CList@PAVCChartRecordSet@@PAV1@@@UAEPAXI@Z ENDP	; CList<CChartRecordSet *,CChartRecordSet *>::`scalar deleting destructor'
; Function compile flags: /Ogtp
; File C:\Program Files (x86)\Microsoft Visual Studio\2019\Community\VC\Tools\MSVC\14.29.30133\atlmfc\include\afxtempl.h
; File C:\Program Files (x86)\Microsoft Visual Studio\2019\Community\VC\Tools\MSVC\14.29.30133\atlmfc\include\afx.inl
; File C:\Program Files (x86)\Microsoft Visual Studio\2019\Community\VC\Tools\MSVC\14.29.30133\atlmfc\include\afxtempl.h
; File C:\Program Files (x86)\Microsoft Visual Studio\2019\Community\VC\Tools\MSVC\14.29.30133\atlmfc\include\afx.inl
; File C:\Program Files (x86)\Microsoft Visual Studio\2019\Community\VC\Tools\MSVC\14.29.30133\atlmfc\include\afxtempl.h
; File C:\Program Files (x86)\Microsoft Visual Studio\2019\Community\VC\Tools\MSVC\14.29.30133\atlmfc\include\afx.inl
; File C:\Program Files (x86)\Microsoft Visual Studio\2019\Community\VC\Tools\MSVC\14.29.30133\atlmfc\include\afxtempl.h
; File C:\Program Files (x86)\Microsoft Visual Studio\2019\Community\VC\Tools\MSVC\14.29.30133\atlmfc\include\afx.inl
; File C:\Program Files (x86)\Microsoft Visual Studio\2019\Community\VC\Tools\MSVC\14.29.30133\atlmfc\include\afxtempl.h
; File C:\Program Files (x86)\Microsoft Visual Studio\2019\Community\VC\Tools\MSVC\14.29.30133\atlmfc\include\afx.inl
; File C:\Program Files (x86)\Microsoft Visual Studio\2019\Community\VC\Tools\MSVC\14.29.30133\atlmfc\include\afxtempl.h
; File C:\Program Files (x86)\Microsoft Visual Studio\2019\Community\VC\Tools\MSVC\14.29.30133\atlmfc\include\afx.inl
; File C:\Program Files (x86)\Microsoft Visual Studio\2019\Community\VC\Tools\MSVC\14.29.30133\atlmfc\include\afxtempl.h
;	COMDAT ?Serialize@?$CList@PAVCChartRecordSet@@PAV1@@@UAEXAAVCArchive@@@Z
_TEXT	SEGMENT
_nNewCount$1$ = -16					; size = 4
_newData$1 = -12					; size = 4
_pData$1$ = -8						; size = 4
_pNode$1$ = -8						; size = 4
_nElementsLeft$1$ = -4					; size = 4
_this$1$ = -4						; size = 4
_ar$ = 8						; size = 4
?Serialize@?$CList@PAVCChartRecordSet@@PAV1@@@UAEXAAVCArchive@@@Z PROC ; CList<CChartRecordSet *,CChartRecordSet *>::Serialize, COMDAT
; _this$ = ecx

; 1169 : {

  00000	55		 push	 ebp
  00001	8b ec		 mov	 ebp, esp
  00003	83 ec 10	 sub	 esp, 16			; 00000010H
  00006	53		 push	 ebx
  00007	8b d9		 mov	 ebx, ecx
; File C:\Program Files (x86)\Microsoft Visual Studio\2019\Community\VC\Tools\MSVC\14.29.30133\atlmfc\include\afx.inl

; 212  : 	{ return (m_nMode & CArchive::load) == 0; }

  00009	8b 4d 08	 mov	 ecx, DWORD PTR _ar$[ebp]
; File C:\Program Files (x86)\Microsoft Visual Studio\2019\Community\VC\Tools\MSVC\14.29.30133\atlmfc\include\afxtempl.h

; 1169 : {

  0000c	56		 push	 esi
  0000d	57		 push	 edi
  0000e	89 5d fc	 mov	 DWORD PTR _this$1$[ebp], ebx
; File C:\Program Files (x86)\Microsoft Visual Studio\2019\Community\VC\Tools\MSVC\14.29.30133\atlmfc\include\afx.inl

; 212  : 	{ return (m_nMode & CArchive::load) == 0; }

  00011	8b 41 18	 mov	 eax, DWORD PTR [ecx+24]
  00014	f7 d0		 not	 eax
  00016	a8 01		 test	 al, 1
; File C:\Program Files (x86)\Microsoft Visual Studio\2019\Community\VC\Tools\MSVC\14.29.30133\atlmfc\include\afxtempl.h

; 1174 : 	if (ar.IsStoring())

  00018	0f 84 ae 00 00
	00		 je	 $LN7@Serialize

; 1175 : 	{
; 1176 : 		ar.WriteCount(m_nCount);

  0001e	ff 73 0c	 push	 DWORD PTR [ebx+12]
  00021	e8 00 00 00 00	 call	 ?WriteCount@CArchive@@QAEXK@Z ; CArchive::WriteCount

; 1177 : 		for (CNode* pNode = m_pNodeHead; pNode != NULL; pNode = pNode->pNext)

  00026	8b 43 04	 mov	 eax, DWORD PTR [ebx+4]
  00029	89 45 f8	 mov	 DWORD PTR _pNode$1$[ebp], eax
  0002c	85 c0		 test	 eax, eax
  0002e	0f 84 43 01 00
	00		 je	 $LN68@Serialize
$LL4@Serialize:

; 1178 : 		{
; 1179 : 			ASSERT(AfxIsValidAddress(pNode, sizeof(CNode)));
; 1180 : 			TYPE* pData;
; 1181 : 			/*
; 1182 : 			 * in some cases the & operator might be overloaded, and we cannot use it to obtain
; 1183 : 			 * the address of a given object.  We then use the following trick to get the address
; 1184 : 			 */
; 1185 : 			pData = reinterpret_cast< TYPE* >( &reinterpret_cast< int& >( static_cast< TYPE& >( pNode->data ) ) );

  00034	8d 70 08	 lea	 esi, DWORD PTR [eax+8]

; 68   : 	ENSURE(nCount == 0 || pElements != NULL);

  00037	85 f6		 test	 esi, esi
  00039	0f 84 4a 01 00
	00		 je	 $LN60@Serialize
; File C:\Program Files (x86)\Microsoft Visual Studio\2019\Community\VC\Tools\MSVC\14.29.30133\atlmfc\include\afx.inl

; 212  : 	{ return (m_nMode & CArchive::load) == 0; }

  0003f	8b 4d 08	 mov	 ecx, DWORD PTR _ar$[ebp]
  00042	8b 41 18	 mov	 eax, DWORD PTR [ecx+24]
  00045	f7 d0		 not	 eax
  00047	a8 01		 test	 al, 1
; File C:\Program Files (x86)\Microsoft Visual Studio\2019\Community\VC\Tools\MSVC\14.29.30133\atlmfc\include\afxtempl.h

; 73   : 	if (ar.IsStoring())

  00049	74 33		 je	 SHORT $LN21@Serialize

; 74   : 	{
; 75   : 		TYPE* pData;
; 76   : 		UINT_PTR nElementsLeft;
; 77   : 
; 78   : 		nElementsLeft = nCount;

  0004b	b8 01 00 00 00	 mov	 eax, 1
  00050	89 45 fc	 mov	 DWORD PTR _nElementsLeft$1$[ebp], eax
$LL16@Serialize:

; 80   : 		while( nElementsLeft > 0 )
; 81   : 		{
; 82   : 			UINT nElementsToWrite;
; 83   : 
; 84   : 			nElementsToWrite = UINT(__min(nElementsLeft, INT_MAX/sizeof(TYPE)));

  00053	bb ff ff ff 1f	 mov	 ebx, 536870911		; 1fffffffH
  00058	3b c3		 cmp	 eax, ebx
  0005a	0f 42 d8	 cmovb	 ebx, eax

; 85   : 			ar.Write(pData, nElementsToWrite*sizeof(TYPE));

  0005d	8d 3c 9d 00 00
	00 00		 lea	 edi, DWORD PTR [ebx*4]
  00064	57		 push	 edi
  00065	56		 push	 esi
  00066	e8 00 00 00 00	 call	 ?Write@CArchive@@QAEXPBXI@Z ; CArchive::Write

; 86   : 			nElementsLeft -= nElementsToWrite;

  0006b	8b 45 fc	 mov	 eax, DWORD PTR _nElementsLeft$1$[ebp]

; 87   : 			pData += nElementsToWrite;

  0006e	03 f7		 add	 esi, edi
  00070	8b 4d 08	 mov	 ecx, DWORD PTR _ar$[ebp]
  00073	2b c3		 sub	 eax, ebx
  00075	89 45 fc	 mov	 DWORD PTR _nElementsLeft$1$[ebp], eax
  00078	85 c0		 test	 eax, eax
  0007a	75 d7		 jne	 SHORT $LL16@Serialize

; 88   : 		}
; 89   : 	}

  0007c	eb 35		 jmp	 SHORT $LN2@Serialize
$LN21@Serialize:

; 90   : 	else
; 91   : 	{
; 92   : 		TYPE* pData;
; 93   : 		UINT_PTR nElementsLeft;
; 94   : 
; 95   : 		nElementsLeft = nCount;

  0007e	bf 01 00 00 00	 mov	 edi, 1
$LL18@Serialize:

; 98   : 		{
; 99   : 			UINT nElementsToRead;
; 100  : 
; 101  : 			nElementsToRead = UINT(__min(nElementsLeft, INT_MAX/sizeof(TYPE)));

  00083	bb ff ff ff 1f	 mov	 ebx, 536870911		; 1fffffffH
  00088	3b fb		 cmp	 edi, ebx
  0008a	0f 42 df	 cmovb	 ebx, edi

; 102  : 			ar.EnsureRead(pData, nElementsToRead*sizeof(TYPE));

  0008d	8d 04 9d 00 00
	00 00		 lea	 eax, DWORD PTR [ebx*4]
; File C:\Program Files (x86)\Microsoft Visual Studio\2019\Community\VC\Tools\MSVC\14.29.30133\atlmfc\include\afx.inl

; 399  : 	UINT nRead=Read(lpBuf, nCount);

  00094	50		 push	 eax
  00095	56		 push	 esi
  00096	e8 00 00 00 00	 call	 ?Read@CArchive@@QAEIPAXI@Z ; CArchive::Read

; 400  : 	if(nRead!=nCount)

  0009b	8d 0c 9d 00 00
	00 00		 lea	 ecx, DWORD PTR [ebx*4]
  000a2	3b c1		 cmp	 eax, ecx
  000a4	0f 85 d6 00 00
	00		 jne	 $LN59@Serialize
; File C:\Program Files (x86)\Microsoft Visual Studio\2019\Community\VC\Tools\MSVC\14.29.30133\atlmfc\include\afxtempl.h

; 97   : 		while( nElementsLeft > 0 )

  000aa	03 f1		 add	 esi, ecx
  000ac	8b 4d 08	 mov	 ecx, DWORD PTR _ar$[ebp]

; 103  : 			nElementsLeft -= nElementsToRead;

  000af	2b fb		 sub	 edi, ebx
  000b1	75 d0		 jne	 SHORT $LL18@Serialize
$LN2@Serialize:

; 1177 : 		for (CNode* pNode = m_pNodeHead; pNode != NULL; pNode = pNode->pNext)

  000b3	8b 45 f8	 mov	 eax, DWORD PTR _pNode$1$[ebp]
  000b6	8b 00		 mov	 eax, DWORD PTR [eax]
  000b8	89 45 f8	 mov	 DWORD PTR _pNode$1$[ebp], eax
  000bb	85 c0		 test	 eax, eax
  000bd	0f 85 71 ff ff
	ff		 jne	 $LL4@Serialize

; 1197 : 		}
; 1198 : 	}
; 1199 : }

  000c3	5f		 pop	 edi
  000c4	5e		 pop	 esi
  000c5	5b		 pop	 ebx
  000c6	8b e5		 mov	 esp, ebp
  000c8	5d		 pop	 ebp
  000c9	c2 04 00	 ret	 4
$LN7@Serialize:

; 1186 : 			SerializeElements<TYPE>(ar, pData, 1);
; 1187 : 		}
; 1188 : 	}
; 1189 : 	else
; 1190 : 	{
; 1191 : 		DWORD_PTR nNewCount = ar.ReadCount();

  000cc	e8 00 00 00 00	 call	 ?ReadCount@CArchive@@QAEKXZ ; CArchive::ReadCount

; 1192 : 		while (nNewCount--)

  000d1	85 c0		 test	 eax, eax
  000d3	0f 84 9e 00 00
	00		 je	 $LN68@Serialize
  000d9	0f 1f 80 00 00
	00 00		 npad	 7
$LL5@Serialize:
  000e0	48		 dec	 eax
  000e1	89 45 f0	 mov	 DWORD PTR _nNewCount$1$[ebp], eax
; File C:\Program Files (x86)\Microsoft Visual Studio\2019\Community\VC\Tools\MSVC\14.29.30133\atlmfc\include\afx.inl

; 212  : 	{ return (m_nMode & CArchive::load) == 0; }

  000e4	8b 45 08	 mov	 eax, DWORD PTR _ar$[ebp]
  000e7	8b 48 18	 mov	 ecx, DWORD PTR [eax+24]
  000ea	f7 d1		 not	 ecx
  000ec	f6 c1 01	 test	 cl, 1
; File C:\Program Files (x86)\Microsoft Visual Studio\2019\Community\VC\Tools\MSVC\14.29.30133\atlmfc\include\afxtempl.h

; 73   : 	if (ar.IsStoring())

  000ef	74 3a		 je	 SHORT $LN42@Serialize

; 79   : 		pData = pElements;

  000f1	8d 4d f4	 lea	 ecx, DWORD PTR _newData$1[ebp]
  000f4	bb 01 00 00 00	 mov	 ebx, 1
  000f9	89 4d f8	 mov	 DWORD PTR _pData$1$[ebp], ecx
  000fc	0f 1f 40 00	 npad	 4
$LL37@Serialize:

; 80   : 		while( nElementsLeft > 0 )
; 81   : 		{
; 82   : 			UINT nElementsToWrite;
; 83   : 
; 84   : 			nElementsToWrite = UINT(__min(nElementsLeft, INT_MAX/sizeof(TYPE)));

  00100	bf ff ff ff 1f	 mov	 edi, 536870911		; 1fffffffH
  00105	3b df		 cmp	 ebx, edi
  00107	0f 42 fb	 cmovb	 edi, ebx

; 85   : 			ar.Write(pData, nElementsToWrite*sizeof(TYPE));

  0010a	8d 34 bd 00 00
	00 00		 lea	 esi, DWORD PTR [edi*4]
  00111	56		 push	 esi
  00112	51		 push	 ecx
  00113	8b c8		 mov	 ecx, eax
  00115	e8 00 00 00 00	 call	 ?Write@CArchive@@QAEXPBXI@Z ; CArchive::Write

; 87   : 			pData += nElementsToWrite;

  0011a	8b 4d f8	 mov	 ecx, DWORD PTR _pData$1$[ebp]
  0011d	8b 45 08	 mov	 eax, DWORD PTR _ar$[ebp]
  00120	03 ce		 add	 ecx, esi
  00122	89 4d f8	 mov	 DWORD PTR _pData$1$[ebp], ecx
  00125	2b df		 sub	 ebx, edi
  00127	75 d7		 jne	 SHORT $LL37@Serialize

; 88   : 		}
; 89   : 	}

  00129	eb 36		 jmp	 SHORT $LN40@Serialize
$LN42@Serialize:

; 90   : 	else
; 91   : 	{
; 92   : 		TYPE* pData;
; 93   : 		UINT_PTR nElementsLeft;
; 94   : 
; 95   : 		nElementsLeft = nCount;

  0012b	be 01 00 00 00	 mov	 esi, 1

; 96   : 		pData = pElements;

  00130	8d 5d f4	 lea	 ebx, DWORD PTR _newData$1[ebp]
$LL39@Serialize:

; 98   : 		{
; 99   : 			UINT nElementsToRead;
; 100  : 
; 101  : 			nElementsToRead = UINT(__min(nElementsLeft, INT_MAX/sizeof(TYPE)));

  00133	bf ff ff ff 1f	 mov	 edi, 536870911		; 1fffffffH
  00138	3b f7		 cmp	 esi, edi
  0013a	0f 42 fe	 cmovb	 edi, esi

; 102  : 			ar.EnsureRead(pData, nElementsToRead*sizeof(TYPE));

  0013d	8d 0c bd 00 00
	00 00		 lea	 ecx, DWORD PTR [edi*4]
; File C:\Program Files (x86)\Microsoft Visual Studio\2019\Community\VC\Tools\MSVC\14.29.30133\atlmfc\include\afx.inl

; 399  : 	UINT nRead=Read(lpBuf, nCount);

  00144	51		 push	 ecx
  00145	53		 push	 ebx
  00146	8b c8		 mov	 ecx, eax
  00148	e8 00 00 00 00	 call	 ?Read@CArchive@@QAEIPAXI@Z ; CArchive::Read

; 400  : 	if(nRead!=nCount)

  0014d	8d 0c bd 00 00
	00 00		 lea	 ecx, DWORD PTR [edi*4]
  00154	3b c1		 cmp	 eax, ecx
  00156	75 28		 jne	 SHORT $LN59@Serialize
; File C:\Program Files (x86)\Microsoft Visual Studio\2019\Community\VC\Tools\MSVC\14.29.30133\atlmfc\include\afxtempl.h

; 104  : 			pData += nElementsToRead;

  00158	8b 45 08	 mov	 eax, DWORD PTR _ar$[ebp]
  0015b	03 d9		 add	 ebx, ecx
  0015d	2b f7		 sub	 esi, edi
  0015f	75 d2		 jne	 SHORT $LL39@Serialize
$LN40@Serialize:

; 1193 : 		{
; 1194 : 			TYPE newData[1];
; 1195 : 			SerializeElements<TYPE>(ar, newData, 1);
; 1196 : 			AddTail(newData[0]);

  00161	ff 75 f4	 push	 DWORD PTR _newData$1[ebp]
  00164	8b 4d fc	 mov	 ecx, DWORD PTR _this$1$[ebp]
  00167	e8 00 00 00 00	 call	 ?AddTail@?$CList@PAVCChartRecordSet@@PAV1@@@QAEPAU__POSITION@@PAVCChartRecordSet@@@Z ; CList<CChartRecordSet *,CChartRecordSet *>::AddTail
  0016c	8b 45 f0	 mov	 eax, DWORD PTR _nNewCount$1$[ebp]
  0016f	85 c0		 test	 eax, eax
  00171	0f 85 69 ff ff
	ff		 jne	 $LL5@Serialize
$LN68@Serialize:
  00177	5f		 pop	 edi

; 1197 : 		}
; 1198 : 	}
; 1199 : }

  00178	5e		 pop	 esi
  00179	5b		 pop	 ebx
  0017a	8b e5		 mov	 esp, ebp
  0017c	5d		 pop	 ebp
  0017d	c2 04 00	 ret	 4
$LN59@Serialize:
  00180	6a 00		 push	 0
  00182	6a 03		 push	 3
  00184	e8 00 00 00 00	 call	 ?AfxThrowArchiveException@@YGXHPBD@Z ; AfxThrowArchiveException
$LN60@Serialize:

; 68   : 	ENSURE(nCount == 0 || pElements != NULL);

  00189	e8 00 00 00 00	 call	 ?AfxThrowInvalidArgException@@YGXXZ ; AfxThrowInvalidArgException
$LN85@Serialize:
  0018e	cc		 int	 3
?Serialize@?$CList@PAVCChartRecordSet@@PAV1@@@UAEXAAVCArchive@@@Z ENDP ; CList<CChartRecordSet *,CChartRecordSet *>::Serialize
_TEXT	ENDS
; Function compile flags: /Ogtp
; File C:\Program Files (x86)\Microsoft Visual Studio\2019\Community\VC\Tools\MSVC\14.29.30133\atlmfc\include\afxtempl.h
;	COMDAT ??1?$CList@PAVCChartRecordSet@@PAV1@@@UAE@XZ
_TEXT	SEGMENT
__$EHRec$ = -12						; size = 12
??1?$CList@PAVCChartRecordSet@@PAV1@@@UAE@XZ PROC	; CList<CChartRecordSet *,CChartRecordSet *>::~CList<CChartRecordSet *,CChartRecordSet *>, COMDAT
; _this$ = ecx

; 878  : {

  00000	55		 push	 ebp
  00001	8b ec		 mov	 ebp, esp
  00003	6a ff		 push	 -1
  00005	68 00 00 00 00	 push	 __ehhandler$??1?$CList@PAVCChartRecordSet@@PAV1@@@UAE@XZ
  0000a	64 a1 00 00 00
	00		 mov	 eax, DWORD PTR fs:0
  00010	50		 push	 eax
  00011	56		 push	 esi
  00012	a1 00 00 00 00	 mov	 eax, DWORD PTR ___security_cookie
  00017	33 c5		 xor	 eax, ebp
  00019	50		 push	 eax
  0001a	8d 45 f4	 lea	 eax, DWORD PTR __$EHRec$[ebp]
  0001d	64 a3 00 00 00
	00		 mov	 DWORD PTR fs:0, eax
  00023	8b f1		 mov	 esi, ecx

; 872  : 	m_pBlocks->FreeDataChain();

  00025	8b 4e 14	 mov	 ecx, DWORD PTR [esi+20]

; 878  : {

  00028	c7 06 00 00 00
	00		 mov	 DWORD PTR [esi], OFFSET ??_7?$CList@PAVCChartRecordSet@@PAV1@@@6B@

; 870  : 	m_nCount = 0;

  0002e	c7 46 0c 00 00
	00 00		 mov	 DWORD PTR [esi+12], 0

; 871  : 	m_pNodeHead = m_pNodeTail = m_pNodeFree = NULL;

  00035	c7 46 10 00 00
	00 00		 mov	 DWORD PTR [esi+16], 0
  0003c	c7 46 08 00 00
	00 00		 mov	 DWORD PTR [esi+8], 0
  00043	c7 46 04 00 00
	00 00		 mov	 DWORD PTR [esi+4], 0

; 872  : 	m_pBlocks->FreeDataChain();

  0004a	e8 00 00 00 00	 call	 ?FreeDataChain@CPlex@@QAEXXZ ; CPlex::FreeDataChain

; 873  : 	m_pBlocks = NULL;

  0004f	c7 46 14 00 00
	00 00		 mov	 DWORD PTR [esi+20], 0

; 879  : 	RemoveAll();
; 880  : 	ASSERT(m_nCount == 0);
; 881  : }

  00056	8b 4d f4	 mov	 ecx, DWORD PTR __$EHRec$[ebp]
  00059	64 89 0d 00 00
	00 00		 mov	 DWORD PTR fs:0, ecx
  00060	59		 pop	 ecx
  00061	5e		 pop	 esi
  00062	8b e5		 mov	 esp, ebp
  00064	5d		 pop	 ebp
  00065	c3		 ret	 0
  00066	cc		 int	 3
  00067	cc		 int	 3
  00068	cc		 int	 3
  00069	cc		 int	 3
  0006a	cc		 int	 3
_TEXT	ENDS
;	COMDAT text$x
text$x	SEGMENT
__ehhandler$??1?$CList@PAVCChartRecordSet@@PAV1@@@UAE@XZ:
  00000	90		 npad	 1
  00001	90		 npad	 1
  00002	8b 54 24 08	 mov	 edx, DWORD PTR [esp+8]
  00006	8d 42 0c	 lea	 eax, DWORD PTR [edx+12]
  00009	8b 4a f8	 mov	 ecx, DWORD PTR [edx-8]
  0000c	33 c8		 xor	 ecx, eax
  0000e	e8 00 00 00 00	 call	 @__security_check_cookie@4
  00013	b8 00 00 00 00	 mov	 eax, OFFSET __ehfuncinfo$??1?$CList@PAVCChartRecordSet@@PAV1@@@UAE@XZ
  00018	e9 00 00 00 00	 jmp	 ___CxxFrameHandler3
text$x	ENDS
??1?$CList@PAVCChartRecordSet@@PAV1@@@UAE@XZ ENDP	; CList<CChartRecordSet *,CChartRecordSet *>::~CList<CChartRecordSet *,CChartRecordSet *>
; Function compile flags: /Ogtp
; File C:\Program Files (x86)\Microsoft Visual Studio\2019\Community\VC\Tools\MSVC\14.29.30133\atlmfc\include\afxtempl.h
;	COMDAT ?FreeNode@?$CList@PAVCChartRecordSet@@PAV1@@@IAEXPAUCNode@1@@Z
_TEXT	SEGMENT
_pNode$ = 8						; size = 4
?FreeNode@?$CList@PAVCChartRecordSet@@PAV1@@@IAEXPAUCNode@1@@Z PROC ; CList<CChartRecordSet *,CChartRecordSet *>::FreeNode, COMDAT
; _this$ = ecx

; 936  : {

  00000	55		 push	 ebp
  00001	8b ec		 mov	 ebp, esp

; 937  : 	pNode->data.~TYPE();
; 938  : 	pNode->pNext = m_pNodeFree;

  00003	8b 55 08	 mov	 edx, DWORD PTR _pNode$[ebp]
  00006	56		 push	 esi
  00007	8b f1		 mov	 esi, ecx
  00009	8b 46 10	 mov	 eax, DWORD PTR [esi+16]
  0000c	89 02		 mov	 DWORD PTR [edx], eax

; 939  : 	m_pNodeFree = pNode;
; 940  : 	m_nCount--;

  0000e	83 46 0c ff	 add	 DWORD PTR [esi+12], -1
  00012	89 56 10	 mov	 DWORD PTR [esi+16], edx

; 941  : 	ASSERT(m_nCount >= 0);  // make sure we don't underflow
; 942  : 
; 943  : 	// if no more elements, cleanup completely
; 944  : 	if (m_nCount == 0)

  00015	75 2b		 jne	 SHORT $LN2@FreeNode

; 872  : 	m_pBlocks->FreeDataChain();

  00017	8b 4e 14	 mov	 ecx, DWORD PTR [esi+20]
  0001a	c7 46 0c 00 00
	00 00		 mov	 DWORD PTR [esi+12], 0
  00021	c7 46 10 00 00
	00 00		 mov	 DWORD PTR [esi+16], 0
  00028	c7 46 08 00 00
	00 00		 mov	 DWORD PTR [esi+8], 0
  0002f	c7 46 04 00 00
	00 00		 mov	 DWORD PTR [esi+4], 0
  00036	e8 00 00 00 00	 call	 ?FreeDataChain@CPlex@@QAEXXZ ; CPlex::FreeDataChain

; 873  : 	m_pBlocks = NULL;

  0003b	c7 46 14 00 00
	00 00		 mov	 DWORD PTR [esi+20], 0
$LN2@FreeNode:
  00042	5e		 pop	 esi

; 945  : 		RemoveAll();
; 946  : }

  00043	5d		 pop	 ebp
  00044	c2 04 00	 ret	 4
?FreeNode@?$CList@PAVCChartRecordSet@@PAV1@@@IAEXPAUCNode@1@@Z ENDP ; CList<CChartRecordSet *,CChartRecordSet *>::FreeNode
_TEXT	ENDS
; Function compile flags: /Ogtp
; File C:\Program Files (x86)\Microsoft Visual Studio\2019\Community\VC\Tools\MSVC\14.29.30133\atlmfc\include\afxtempl.h
;	COMDAT ?NewNode@?$CList@PAVCChartRecordSet@@PAV1@@@IAEPAUCNode@1@PAU21@0@Z
_TEXT	SEGMENT
_pPrev$ = 8						; size = 4
_pNext$ = 12						; size = 4
?NewNode@?$CList@PAVCChartRecordSet@@PAV1@@@IAEPAUCNode@1@PAU21@0@Z PROC ; CList<CChartRecordSet *,CChartRecordSet *>::NewNode, COMDAT
; _this$ = ecx

; 901  : {

  00000	55		 push	 ebp
  00001	8b ec		 mov	 ebp, esp
  00003	56		 push	 esi
  00004	8b f1		 mov	 esi, ecx

; 902  : 	if (m_pNodeFree == NULL)

  00006	83 7e 10 00	 cmp	 DWORD PTR [esi+16], 0
  0000a	75 34		 jne	 SHORT $LN7@NewNode

; 903  : 	{
; 904  : 		// add another block
; 905  : 		CPlex* pNewBlock = CPlex::Create(m_pBlocks, m_nBlockSize,

  0000c	6a 0c		 push	 12			; 0000000cH
  0000e	ff 76 18	 push	 DWORD PTR [esi+24]
  00011	8d 46 14	 lea	 eax, DWORD PTR [esi+20]
  00014	50		 push	 eax
  00015	e8 00 00 00 00	 call	 ?Create@CPlex@@SGPAU1@AAPAU1@II@Z ; CPlex::Create

; 906  : 				 sizeof(CNode));
; 907  : 
; 908  : 		// chain them into free list
; 909  : 		CNode* pNode = (CNode*) pNewBlock->data();
; 910  : 		// free in reverse order to make it easier to debug
; 911  : 		pNode += m_nBlockSize - 1;

  0001a	8b 56 18	 mov	 edx, DWORD PTR [esi+24]
  0001d	83 c0 08	 add	 eax, 8
  00020	8d 0c 52	 lea	 ecx, DWORD PTR [edx+edx*2]
  00023	8d 04 88	 lea	 eax, DWORD PTR [eax+ecx*4]
  00026	83 c0 f4	 add	 eax, -12		; fffffff4H

; 912  : 		for (INT_PTR i = m_nBlockSize-1; i >= 0; i--, pNode--)

  00029	83 c2 ff	 add	 edx, -1
  0002c	78 12		 js	 SHORT $LN7@NewNode
  0002e	66 90		 npad	 2
$LL4@NewNode:

; 913  : 		{
; 914  : 			pNode->pNext = m_pNodeFree;

  00030	8b 4e 10	 mov	 ecx, DWORD PTR [esi+16]
  00033	89 08		 mov	 DWORD PTR [eax], ecx

; 915  : 			m_pNodeFree = pNode;

  00035	89 46 10	 mov	 DWORD PTR [esi+16], eax
  00038	83 e8 0c	 sub	 eax, 12			; 0000000cH
  0003b	83 ea 01	 sub	 edx, 1
  0003e	79 f0		 jns	 SHORT $LL4@NewNode
$LN7@NewNode:

; 916  : 		}
; 917  : 	}
; 918  : 	ENSURE(m_pNodeFree != NULL);  // we must have something

  00040	8b 46 10	 mov	 eax, DWORD PTR [esi+16]
  00043	85 c0		 test	 eax, eax
  00045	74 18		 je	 SHORT $LN17@NewNode

; 919  : 
; 920  : 	CList::CNode* pNode = m_pNodeFree;
; 921  : 	m_pNodeFree = m_pNodeFree->pNext;

  00047	8b 08		 mov	 ecx, DWORD PTR [eax]
  00049	89 4e 10	 mov	 DWORD PTR [esi+16], ecx

; 922  : 	pNode->pPrev = pPrev;

  0004c	8b 4d 08	 mov	 ecx, DWORD PTR _pPrev$[ebp]
  0004f	89 48 04	 mov	 DWORD PTR [eax+4], ecx

; 923  : 	pNode->pNext = pNext;

  00052	8b 4d 0c	 mov	 ecx, DWORD PTR _pNext$[ebp]
  00055	89 08		 mov	 DWORD PTR [eax], ecx

; 924  : 	m_nCount++;

  00057	ff 46 0c	 inc	 DWORD PTR [esi+12]

; 925  : 	ASSERT(m_nCount > 0);  // make sure we don't overflow
; 926  : 
; 927  : #pragma push_macro("new")
; 928  : #undef new
; 929  : 	::new( (void*)( &pNode->data ) ) TYPE;
; 930  : #pragma pop_macro("new")
; 931  : 	return pNode;

  0005a	5e		 pop	 esi

; 932  : }

  0005b	5d		 pop	 ebp
  0005c	c2 08 00	 ret	 8
$LN17@NewNode:

; 916  : 		}
; 917  : 	}
; 918  : 	ENSURE(m_pNodeFree != NULL);  // we must have something

  0005f	e8 00 00 00 00	 call	 ?AfxThrowInvalidArgException@@YGXXZ ; AfxThrowInvalidArgException
$LN15@NewNode:
  00064	cc		 int	 3
?NewNode@?$CList@PAVCChartRecordSet@@PAV1@@@IAEPAUCNode@1@PAU21@0@Z ENDP ; CList<CChartRecordSet *,CChartRecordSet *>::NewNode
_TEXT	ENDS
; Function compile flags: /Ogtp
; File C:\Program Files (x86)\Microsoft Visual Studio\2019\Community\VC\Tools\MSVC\14.29.30133\atlmfc\include\afxtempl.h
;	COMDAT ?RemoveAll@?$CList@PAVCChartRecordSet@@PAV1@@@QAEXXZ
_TEXT	SEGMENT
?RemoveAll@?$CList@PAVCChartRecordSet@@PAV1@@@QAEXXZ PROC ; CList<CChartRecordSet *,CChartRecordSet *>::RemoveAll, COMDAT
; _this$ = ecx

; 862  : {

  00000	56		 push	 esi
  00001	8b f1		 mov	 esi, ecx

; 863  : 	ASSERT_VALID(this);
; 864  : 
; 865  : 	// destroy elements
; 866  : 	CNode* pNode;
; 867  : 	for (pNode = m_pNodeHead; pNode != NULL; pNode = pNode->pNext)
; 868  : 		pNode->data.~TYPE();
; 869  : 
; 870  : 	m_nCount = 0;
; 871  : 	m_pNodeHead = m_pNodeTail = m_pNodeFree = NULL;
; 872  : 	m_pBlocks->FreeDataChain();

  00003	8b 4e 14	 mov	 ecx, DWORD PTR [esi+20]
  00006	c7 46 0c 00 00
	00 00		 mov	 DWORD PTR [esi+12], 0
  0000d	c7 46 10 00 00
	00 00		 mov	 DWORD PTR [esi+16], 0
  00014	c7 46 08 00 00
	00 00		 mov	 DWORD PTR [esi+8], 0
  0001b	c7 46 04 00 00
	00 00		 mov	 DWORD PTR [esi+4], 0
  00022	e8 00 00 00 00	 call	 ?FreeDataChain@CPlex@@QAEXXZ ; CPlex::FreeDataChain

; 873  : 	m_pBlocks = NULL;

  00027	c7 46 14 00 00
	00 00		 mov	 DWORD PTR [esi+20], 0
  0002e	5e		 pop	 esi

; 874  : }

  0002f	c3		 ret	 0
?RemoveAll@?$CList@PAVCChartRecordSet@@PAV1@@@QAEXXZ ENDP ; CList<CChartRecordSet *,CChartRecordSet *>::RemoveAll
_TEXT	ENDS
; Function compile flags: /Ogtp
; File C:\Program Files (x86)\Microsoft Visual Studio\2019\Community\VC\Tools\MSVC\14.29.30133\atlmfc\include\afxtempl.h
;	COMDAT ?AddTail@?$CList@PAVCChartRecordSet@@PAV1@@@QAEPAU__POSITION@@PAVCChartRecordSet@@@Z
_TEXT	SEGMENT
_newElement$ = 8					; size = 4
?AddTail@?$CList@PAVCChartRecordSet@@PAV1@@@QAEPAU__POSITION@@PAVCChartRecordSet@@@Z PROC ; CList<CChartRecordSet *,CChartRecordSet *>::AddTail, COMDAT
; _this$ = ecx

; 965  : {

  00000	55		 push	 ebp
  00001	8b ec		 mov	 ebp, esp
  00003	56		 push	 esi
  00004	8b f1		 mov	 esi, ecx
  00006	57		 push	 edi

; 902  : 	if (m_pNodeFree == NULL)

  00007	83 7e 10 00	 cmp	 DWORD PTR [esi+16], 0

; 966  : 	ASSERT_VALID(this);
; 967  : 
; 968  : 	CNode* pNewNode = NewNode(m_pNodeTail, NULL);

  0000b	8b 7e 08	 mov	 edi, DWORD PTR [esi+8]

; 902  : 	if (m_pNodeFree == NULL)

  0000e	75 32		 jne	 SHORT $LN11@AddTail

; 903  : 	{
; 904  : 		// add another block
; 905  : 		CPlex* pNewBlock = CPlex::Create(m_pBlocks, m_nBlockSize,

  00010	6a 0c		 push	 12			; 0000000cH
  00012	ff 76 18	 push	 DWORD PTR [esi+24]
  00015	8d 46 14	 lea	 eax, DWORD PTR [esi+20]
  00018	50		 push	 eax
  00019	e8 00 00 00 00	 call	 ?Create@CPlex@@SGPAU1@AAPAU1@II@Z ; CPlex::Create

; 906  : 				 sizeof(CNode));
; 907  : 
; 908  : 		// chain them into free list
; 909  : 		CNode* pNode = (CNode*) pNewBlock->data();
; 910  : 		// free in reverse order to make it easier to debug
; 911  : 		pNode += m_nBlockSize - 1;

  0001e	8b 56 18	 mov	 edx, DWORD PTR [esi+24]
  00021	83 c0 08	 add	 eax, 8
  00024	8d 4a ff	 lea	 ecx, DWORD PTR [edx-1]

; 912  : 		for (INT_PTR i = m_nBlockSize-1; i >= 0; i--, pNode--)

  00027	83 c2 ff	 add	 edx, -1
  0002a	8d 0c 49	 lea	 ecx, DWORD PTR [ecx+ecx*2]
  0002d	8d 0c 88	 lea	 ecx, DWORD PTR [eax+ecx*4]
  00030	78 10		 js	 SHORT $LN11@AddTail
$LL8@AddTail:

; 913  : 		{
; 914  : 			pNode->pNext = m_pNodeFree;

  00032	8b 46 10	 mov	 eax, DWORD PTR [esi+16]
  00035	89 01		 mov	 DWORD PTR [ecx], eax

; 915  : 			m_pNodeFree = pNode;

  00037	89 4e 10	 mov	 DWORD PTR [esi+16], ecx
  0003a	83 e9 0c	 sub	 ecx, 12			; 0000000cH
  0003d	83 ea 01	 sub	 edx, 1
  00040	79 f0		 jns	 SHORT $LL8@AddTail
$LN11@AddTail:

; 916  : 		}
; 917  : 	}
; 918  : 	ENSURE(m_pNodeFree != NULL);  // we must have something

  00042	8b 4e 10	 mov	 ecx, DWORD PTR [esi+16]
  00045	85 c9		 test	 ecx, ecx
  00047	74 39		 je	 SHORT $LN22@AddTail

; 919  : 
; 920  : 	CList::CNode* pNode = m_pNodeFree;
; 921  : 	m_pNodeFree = m_pNodeFree->pNext;

  00049	8b 01		 mov	 eax, DWORD PTR [ecx]
  0004b	89 46 10	 mov	 DWORD PTR [esi+16], eax

; 969  : 	pNewNode->data = newElement;

  0004e	8b 45 08	 mov	 eax, DWORD PTR _newElement$[ebp]

; 922  : 	pNode->pPrev = pPrev;

  00051	89 79 04	 mov	 DWORD PTR [ecx+4], edi

; 923  : 	pNode->pNext = pNext;

  00054	c7 01 00 00 00
	00		 mov	 DWORD PTR [ecx], 0

; 924  : 	m_nCount++;

  0005a	ff 46 0c	 inc	 DWORD PTR [esi+12]

; 969  : 	pNewNode->data = newElement;

  0005d	89 41 08	 mov	 DWORD PTR [ecx+8], eax

; 970  : 	if (m_pNodeTail != NULL)

  00060	8b 46 08	 mov	 eax, DWORD PTR [esi+8]
  00063	85 c0		 test	 eax, eax
  00065	74 0d		 je	 SHORT $LN2@AddTail

; 971  : 		m_pNodeTail->pNext = pNewNode;

  00067	89 08		 mov	 DWORD PTR [eax], ecx

; 972  : 	else
; 973  : 		m_pNodeHead = pNewNode;
; 974  : 	m_pNodeTail = pNewNode;
; 975  : 	return (POSITION) pNewNode;

  00069	8b c1		 mov	 eax, ecx
  0006b	5f		 pop	 edi
  0006c	89 4e 08	 mov	 DWORD PTR [esi+8], ecx
  0006f	5e		 pop	 esi

; 976  : }

  00070	5d		 pop	 ebp
  00071	c2 04 00	 ret	 4
$LN2@AddTail:

; 972  : 	else
; 973  : 		m_pNodeHead = pNewNode;
; 974  : 	m_pNodeTail = pNewNode;
; 975  : 	return (POSITION) pNewNode;

  00074	5f		 pop	 edi
  00075	89 4e 04	 mov	 DWORD PTR [esi+4], ecx
  00078	8b c1		 mov	 eax, ecx
  0007a	89 4e 08	 mov	 DWORD PTR [esi+8], ecx
  0007d	5e		 pop	 esi

; 976  : }

  0007e	5d		 pop	 ebp
  0007f	c2 04 00	 ret	 4
$LN22@AddTail:

; 918  : 	ENSURE(m_pNodeFree != NULL);  // we must have something

  00082	e8 00 00 00 00	 call	 ?AfxThrowInvalidArgException@@YGXXZ ; AfxThrowInvalidArgException
$LN20@AddTail:
  00087	cc		 int	 3
?AddTail@?$CList@PAVCChartRecordSet@@PAV1@@@QAEPAU__POSITION@@PAVCChartRecordSet@@@Z ENDP ; CList<CChartRecordSet *,CChartRecordSet *>::AddTail
_TEXT	ENDS
; Function compile flags: /Ogtp
; File C:\Program Files (x86)\Microsoft Visual Studio\2019\Community\VC\Tools\MSVC\14.29.30133\atlmfc\include\afxtempl.h
;	COMDAT ?RemoveTail@?$CList@PAVCChartRecordSet@@PAV1@@@QAEPAVCChartRecordSet@@XZ
_TEXT	SEGMENT
?RemoveTail@?$CList@PAVCChartRecordSet@@PAV1@@@QAEPAVCChartRecordSet@@XZ PROC ; CList<CChartRecordSet *,CChartRecordSet *>::RemoveTail, COMDAT
; _this$ = ecx

; 1026 : {

  00000	56		 push	 esi
  00001	8b f1		 mov	 esi, ecx
  00003	57		 push	 edi

; 1027 : 	ASSERT_VALID(this);
; 1028 : 	ENSURE(m_pNodeTail != NULL);  // don't call on empty list !!!

  00004	8b 4e 08	 mov	 ecx, DWORD PTR [esi+8]
  00007	85 c9		 test	 ecx, ecx
  00009	74 5a		 je	 SHORT $LN24@RemoveTail

; 1029 : 	ASSERT(AfxIsValidAddress(m_pNodeTail, sizeof(CNode)));
; 1030 : 
; 1031 : 	CNode* pOldNode = m_pNodeTail;
; 1032 : 	TYPE returnValue = pOldNode->data;
; 1033 : 
; 1034 : 	m_pNodeTail = pOldNode->pPrev;

  0000b	8b 41 04	 mov	 eax, DWORD PTR [ecx+4]
  0000e	8b 79 08	 mov	 edi, DWORD PTR [ecx+8]
  00011	89 46 08	 mov	 DWORD PTR [esi+8], eax

; 1035 : 	if (m_pNodeTail != NULL)

  00014	85 c0		 test	 eax, eax
  00016	74 08		 je	 SHORT $LN6@RemoveTail

; 1036 : 		m_pNodeTail->pNext = NULL;

  00018	c7 00 00 00 00
	00		 mov	 DWORD PTR [eax], 0
  0001e	eb 07		 jmp	 SHORT $LN7@RemoveTail
$LN6@RemoveTail:

; 1037 : 	else
; 1038 : 		m_pNodeHead = NULL;

  00020	c7 46 04 00 00
	00 00		 mov	 DWORD PTR [esi+4], 0
$LN7@RemoveTail:

; 938  : 	pNode->pNext = m_pNodeFree;

  00027	8b 46 10	 mov	 eax, DWORD PTR [esi+16]
  0002a	89 01		 mov	 DWORD PTR [ecx], eax

; 939  : 	m_pNodeFree = pNode;
; 940  : 	m_nCount--;

  0002c	83 46 0c ff	 add	 DWORD PTR [esi+12], -1
  00030	89 4e 10	 mov	 DWORD PTR [esi+16], ecx

; 941  : 	ASSERT(m_nCount >= 0);  // make sure we don't underflow
; 942  : 
; 943  : 	// if no more elements, cleanup completely
; 944  : 	if (m_nCount == 0)

  00033	75 2b		 jne	 SHORT $LN10@RemoveTail

; 872  : 	m_pBlocks->FreeDataChain();

  00035	8b 4e 14	 mov	 ecx, DWORD PTR [esi+20]
  00038	c7 46 0c 00 00
	00 00		 mov	 DWORD PTR [esi+12], 0
  0003f	c7 46 10 00 00
	00 00		 mov	 DWORD PTR [esi+16], 0
  00046	c7 46 08 00 00
	00 00		 mov	 DWORD PTR [esi+8], 0
  0004d	c7 46 04 00 00
	00 00		 mov	 DWORD PTR [esi+4], 0
  00054	e8 00 00 00 00	 call	 ?FreeDataChain@CPlex@@QAEXXZ ; CPlex::FreeDataChain

; 873  : 	m_pBlocks = NULL;

  00059	c7 46 14 00 00
	00 00		 mov	 DWORD PTR [esi+20], 0
$LN10@RemoveTail:

; 1039 : 	FreeNode(pOldNode);
; 1040 : 	return returnValue;

  00060	8b c7		 mov	 eax, edi
  00062	5f		 pop	 edi
  00063	5e		 pop	 esi

; 1041 : }

  00064	c3		 ret	 0
$LN24@RemoveTail:

; 1027 : 	ASSERT_VALID(this);
; 1028 : 	ENSURE(m_pNodeTail != NULL);  // don't call on empty list !!!

  00065	e8 00 00 00 00	 call	 ?AfxThrowInvalidArgException@@YGXXZ ; AfxThrowInvalidArgException
$LN22@RemoveTail:
  0006a	cc		 int	 3
?RemoveTail@?$CList@PAVCChartRecordSet@@PAV1@@@QAEPAVCChartRecordSet@@XZ ENDP ; CList<CChartRecordSet *,CChartRecordSet *>::RemoveTail
_TEXT	ENDS
; Function compile flags: /Ogtp
; File C:\Program Files (x86)\Microsoft Visual Studio\2019\Community\VC\Tools\MSVC\14.29.30133\atlmfc\include\afxtempl.h
;	COMDAT ?RemoveHead@?$CList@PAVCChartRecordSet@@PAV1@@@QAEPAVCChartRecordSet@@XZ
_TEXT	SEGMENT
?RemoveHead@?$CList@PAVCChartRecordSet@@PAV1@@@QAEPAVCChartRecordSet@@XZ PROC ; CList<CChartRecordSet *,CChartRecordSet *>::RemoveHead, COMDAT
; _this$ = ecx

; 1007 : {

  00000	56		 push	 esi
  00001	8b f1		 mov	 esi, ecx
  00003	57		 push	 edi

; 1008 : 	ASSERT_VALID(this);
; 1009 : 	ENSURE(m_pNodeHead != NULL);  // don't call on empty list !!!

  00004	8b 4e 04	 mov	 ecx, DWORD PTR [esi+4]
  00007	85 c9		 test	 ecx, ecx
  00009	74 5a		 je	 SHORT $LN24@RemoveHead

; 1010 : 	ASSERT(AfxIsValidAddress(m_pNodeHead, sizeof(CNode)));
; 1011 : 
; 1012 : 	CNode* pOldNode = m_pNodeHead;
; 1013 : 	TYPE returnValue = pOldNode->data;
; 1014 : 
; 1015 : 	m_pNodeHead = pOldNode->pNext;

  0000b	8b 01		 mov	 eax, DWORD PTR [ecx]
  0000d	8b 79 08	 mov	 edi, DWORD PTR [ecx+8]
  00010	89 46 04	 mov	 DWORD PTR [esi+4], eax

; 1016 : 	if (m_pNodeHead != NULL)

  00013	85 c0		 test	 eax, eax
  00015	74 09		 je	 SHORT $LN6@RemoveHead

; 1017 : 		m_pNodeHead->pPrev = NULL;

  00017	c7 40 04 00 00
	00 00		 mov	 DWORD PTR [eax+4], 0
  0001e	eb 07		 jmp	 SHORT $LN7@RemoveHead
$LN6@RemoveHead:

; 1018 : 	else
; 1019 : 		m_pNodeTail = NULL;

  00020	c7 46 08 00 00
	00 00		 mov	 DWORD PTR [esi+8], 0
$LN7@RemoveHead:

; 938  : 	pNode->pNext = m_pNodeFree;

  00027	8b 46 10	 mov	 eax, DWORD PTR [esi+16]
  0002a	89 01		 mov	 DWORD PTR [ecx], eax

; 939  : 	m_pNodeFree = pNode;
; 940  : 	m_nCount--;

  0002c	83 46 0c ff	 add	 DWORD PTR [esi+12], -1
  00030	89 4e 10	 mov	 DWORD PTR [esi+16], ecx

; 941  : 	ASSERT(m_nCount >= 0);  // make sure we don't underflow
; 942  : 
; 943  : 	// if no more elements, cleanup completely
; 944  : 	if (m_nCount == 0)

  00033	75 2b		 jne	 SHORT $LN10@RemoveHead

; 872  : 	m_pBlocks->FreeDataChain();

  00035	8b 4e 14	 mov	 ecx, DWORD PTR [esi+20]
  00038	c7 46 0c 00 00
	00 00		 mov	 DWORD PTR [esi+12], 0
  0003f	c7 46 10 00 00
	00 00		 mov	 DWORD PTR [esi+16], 0
  00046	c7 46 08 00 00
	00 00		 mov	 DWORD PTR [esi+8], 0
  0004d	c7 46 04 00 00
	00 00		 mov	 DWORD PTR [esi+4], 0
  00054	e8 00 00 00 00	 call	 ?FreeDataChain@CPlex@@QAEXXZ ; CPlex::FreeDataChain

; 873  : 	m_pBlocks = NULL;

  00059	c7 46 14 00 00
	00 00		 mov	 DWORD PTR [esi+20], 0
$LN10@RemoveHead:

; 1020 : 	FreeNode(pOldNode);
; 1021 : 	return returnValue;

  00060	8b c7		 mov	 eax, edi
  00062	5f		 pop	 edi
  00063	5e		 pop	 esi

; 1022 : }

  00064	c3		 ret	 0
$LN24@RemoveHead:

; 1008 : 	ASSERT_VALID(this);
; 1009 : 	ENSURE(m_pNodeHead != NULL);  // don't call on empty list !!!

  00065	e8 00 00 00 00	 call	 ?AfxThrowInvalidArgException@@YGXXZ ; AfxThrowInvalidArgException
$LN22@RemoveHead:
  0006a	cc		 int	 3
?RemoveHead@?$CList@PAVCChartRecordSet@@PAV1@@@QAEPAVCChartRecordSet@@XZ ENDP ; CList<CChartRecordSet *,CChartRecordSet *>::RemoveHead
_TEXT	ENDS
; Function compile flags: /Ogtp
; File C:\Program Files (x86)\Microsoft Visual Studio\2019\Community\VC\Tools\MSVC\14.29.30133\atlmfc\include\afxtempl.h
;	COMDAT ??0?$CList@PAVCChartRecordSet@@PAV1@@@QAE@H@Z
_TEXT	SEGMENT
_nBlockSize$ = 8					; size = 4
??0?$CList@PAVCChartRecordSet@@PAV1@@@QAE@H@Z PROC	; CList<CChartRecordSet *,CChartRecordSet *>::CList<CChartRecordSet *,CChartRecordSet *>, COMDAT
; _this$ = ecx

; 851  : {

  00000	55		 push	 ebp
  00001	8b ec		 mov	 ebp, esp

; 852  : 	ASSERT(nBlockSize > 0);
; 853  : 
; 854  : 	m_nCount = 0;
; 855  : 	m_pNodeHead = m_pNodeTail = m_pNodeFree = NULL;
; 856  : 	m_pBlocks = NULL;
; 857  : 	m_nBlockSize = nBlockSize;

  00003	8b 45 08	 mov	 eax, DWORD PTR _nBlockSize$[ebp]
  00006	89 41 18	 mov	 DWORD PTR [ecx+24], eax

; 858  : }

  00009	8b c1		 mov	 eax, ecx
  0000b	c7 01 00 00 00
	00		 mov	 DWORD PTR [ecx], OFFSET ??_7?$CList@PAVCChartRecordSet@@PAV1@@@6B@
  00011	c7 41 0c 00 00
	00 00		 mov	 DWORD PTR [ecx+12], 0
  00018	c7 41 10 00 00
	00 00		 mov	 DWORD PTR [ecx+16], 0
  0001f	c7 41 08 00 00
	00 00		 mov	 DWORD PTR [ecx+8], 0
  00026	c7 41 04 00 00
	00 00		 mov	 DWORD PTR [ecx+4], 0
  0002d	c7 41 14 00 00
	00 00		 mov	 DWORD PTR [ecx+20], 0
  00034	5d		 pop	 ebp
  00035	c2 04 00	 ret	 4
??0?$CList@PAVCChartRecordSet@@PAV1@@@QAE@H@Z ENDP	; CList<CChartRecordSet *,CChartRecordSet *>::CList<CChartRecordSet *,CChartRecordSet *>
_TEXT	ENDS
; Function compile flags: /Ogtp
; File C:\Program Files (x86)\Microsoft Visual Studio\2019\Community\VC\Tools\MSVC\14.29.30133\atlmfc\include\afxtempl.h
; File C:\Program Files (x86)\Microsoft Visual Studio\2019\Community\VC\Tools\MSVC\14.29.30133\atlmfc\include\afx.inl
;	COMDAT ??_G?$CArray@PAVCChartDataGridHeaderInfo@@PAV1@@@UAEPAXI@Z
_TEXT	SEGMENT
___flags$ = 8						; size = 4
??_G?$CArray@PAVCChartDataGridHeaderInfo@@PAV1@@@UAEPAXI@Z PROC ; CArray<CChartDataGridHeaderInfo *,CChartDataGridHeaderInfo *>::`scalar deleting destructor', COMDAT
; _this$ = ecx
  00000	55		 push	 ebp
  00001	8b ec		 mov	 ebp, esp
; File C:\Program Files (x86)\Microsoft Visual Studio\2019\Community\VC\Tools\MSVC\14.29.30133\atlmfc\include\afxtempl.h

; 355  : {

  00003	56		 push	 esi
  00004	8b f1		 mov	 esi, ecx

; 356  : 	ASSERT_VALID(this);
; 357  : 
; 358  : 	if (m_pData != NULL)

  00006	8b 46 04	 mov	 eax, DWORD PTR [esi+4]
  00009	c7 06 00 00 00
	00		 mov	 DWORD PTR [esi], OFFSET ??_7?$CArray@PAVCChartDataGridHeaderInfo@@PAV1@@@6B@
  0000f	85 c0		 test	 eax, eax
  00011	74 09		 je	 SHORT $LN11@scalar

; 359  : 	{
; 360  : 		for( int i = 0; i < m_nSize; i++ )
; 361  : 			(m_pData + i)->~TYPE();
; 362  : 		delete[] (BYTE*)m_pData;

  00013	50		 push	 eax
  00014	e8 00 00 00 00	 call	 ??_V@YAXPAX@Z		; operator delete[]
  00019	83 c4 04	 add	 esp, 4
$LN11@scalar:
  0001c	8b 45 08	 mov	 eax, DWORD PTR ___flags$[ebp]
  0001f	a8 01		 test	 al, 1
  00021	74 1f		 je	 SHORT $LN20@scalar
  00023	a8 04		 test	 al, 4
  00025	75 10		 jne	 SHORT $LN3@scalar
; File C:\Program Files (x86)\Microsoft Visual Studio\2019\Community\VC\Tools\MSVC\14.29.30133\atlmfc\include\afx.inl

; 112  : 	{ ::operator delete(p); }

  00027	56		 push	 esi
  00028	e8 00 00 00 00	 call	 ??3@YAXPAX@Z		; operator delete
  0002d	83 c4 04	 add	 esp, 4
  00030	8b c6		 mov	 eax, esi
  00032	5e		 pop	 esi
  00033	5d		 pop	 ebp
  00034	c2 04 00	 ret	 4
$LN3@scalar:
  00037	6a 14		 push	 20			; 00000014H
  00039	56		 push	 esi
  0003a	e8 00 00 00 00	 call	 ?__global_delete@@YAXPAXI@Z ; __global_delete
  0003f	83 c4 08	 add	 esp, 8
$LN20@scalar:
  00042	8b c6		 mov	 eax, esi
  00044	5e		 pop	 esi
  00045	5d		 pop	 ebp
  00046	c2 04 00	 ret	 4
??_G?$CArray@PAVCChartDataGridHeaderInfo@@PAV1@@@UAEPAXI@Z ENDP ; CArray<CChartDataGridHeaderInfo *,CChartDataGridHeaderInfo *>::`scalar deleting destructor'
_TEXT	ENDS
; Function compile flags: /Ogtp
; File C:\Program Files (x86)\Microsoft Visual Studio\2019\Community\VC\Tools\MSVC\14.29.30133\atlmfc\include\afxtempl.h
; File C:\Program Files (x86)\Microsoft Visual Studio\2019\Community\VC\Tools\MSVC\14.29.30133\atlmfc\include\afx.inl
; File C:\Program Files (x86)\Microsoft Visual Studio\2019\Community\VC\Tools\MSVC\14.29.30133\atlmfc\include\afxtempl.h
; File C:\Program Files (x86)\Microsoft Visual Studio\2019\Community\VC\Tools\MSVC\14.29.30133\atlmfc\include\afx.inl
; File C:\Program Files (x86)\Microsoft Visual Studio\2019\Community\VC\Tools\MSVC\14.29.30133\atlmfc\include\afxtempl.h
; File C:\Program Files (x86)\Microsoft Visual Studio\2019\Community\VC\Tools\MSVC\14.29.30133\atlmfc\include\afx.inl
; File C:\Program Files (x86)\Microsoft Visual Studio\2019\Community\VC\Tools\MSVC\14.29.30133\atlmfc\include\afxtempl.h
; File C:\Program Files (x86)\Microsoft Visual Studio\2019\Community\VC\Tools\MSVC\14.29.30133\atlmfc\include\afx.inl
; File C:\Program Files (x86)\Microsoft Visual Studio\2019\Community\VC\Tools\MSVC\14.29.30133\atlmfc\include\afxtempl.h
;	COMDAT ?Serialize@?$CArray@PAVCChartDataGridHeaderInfo@@PAV1@@@UAEXAAVCArchive@@@Z
_TEXT	SEGMENT
_pData$1$ = -4						; size = 4
_ar$ = 8						; size = 4
?Serialize@?$CArray@PAVCChartDataGridHeaderInfo@@PAV1@@@UAEXAAVCArchive@@@Z PROC ; CArray<CChartDataGridHeaderInfo *,CChartDataGridHeaderInfo *>::Serialize, COMDAT
; _this$ = ecx

; 633  : {

  00000	55		 push	 ebp
  00001	8b ec		 mov	 ebp, esp
  00003	51		 push	 ecx
  00004	53		 push	 ebx
  00005	56		 push	 esi
  00006	57		 push	 edi
  00007	8b f9		 mov	 edi, ecx
; File C:\Program Files (x86)\Microsoft Visual Studio\2019\Community\VC\Tools\MSVC\14.29.30133\atlmfc\include\afx.inl

; 212  : 	{ return (m_nMode & CArchive::load) == 0; }

  00009	8b 4d 08	 mov	 ecx, DWORD PTR _ar$[ebp]
  0000c	8b 41 18	 mov	 eax, DWORD PTR [ecx+24]
  0000f	f7 d0		 not	 eax
  00011	a8 01		 test	 al, 1
; File C:\Program Files (x86)\Microsoft Visual Studio\2019\Community\VC\Tools\MSVC\14.29.30133\atlmfc\include\afxtempl.h

; 637  : 	if (ar.IsStoring())

  00013	74 0a		 je	 SHORT $LN2@Serialize

; 638  : 	{
; 639  : 		ar.WriteCount(m_nSize);

  00015	ff 77 08	 push	 DWORD PTR [edi+8]
  00018	e8 00 00 00 00	 call	 ?WriteCount@CArchive@@QAEXK@Z ; CArchive::WriteCount

; 640  : 	}

  0001d	eb 0f		 jmp	 SHORT $LN3@Serialize
$LN2@Serialize:

; 641  : 	else
; 642  : 	{
; 643  : 		DWORD_PTR nOldSize = ar.ReadCount();

  0001f	e8 00 00 00 00	 call	 ?ReadCount@CArchive@@QAEKXZ ; CArchive::ReadCount

; 644  : 		SetSize(nOldSize, -1);

  00024	6a ff		 push	 -1
  00026	50		 push	 eax
  00027	8b cf		 mov	 ecx, edi
  00029	e8 00 00 00 00	 call	 ?SetSize@?$CArray@PAVCChartDataGridHeaderInfo@@PAV1@@@QAEXHH@Z ; CArray<CChartDataGridHeaderInfo *,CChartDataGridHeaderInfo *>::SetSize
$LN3@Serialize:

; 645  : 	}
; 646  : 	SerializeElements<TYPE>(ar, m_pData, m_nSize);

  0002e	8b 77 08	 mov	 esi, DWORD PTR [edi+8]
  00031	8b 4f 04	 mov	 ecx, DWORD PTR [edi+4]
  00034	89 4d fc	 mov	 DWORD PTR _pData$1$[ebp], ecx

; 68   : 	ENSURE(nCount == 0 || pElements != NULL);

  00037	85 f6		 test	 esi, esi
  00039	74 08		 je	 SHORT $LN8@Serialize
  0003b	85 c9		 test	 ecx, ecx
  0003d	0f 84 8c 00 00
	00		 je	 $LN40@Serialize
$LN8@Serialize:
; File C:\Program Files (x86)\Microsoft Visual Studio\2019\Community\VC\Tools\MSVC\14.29.30133\atlmfc\include\afx.inl

; 212  : 	{ return (m_nMode & CArchive::load) == 0; }

  00043	8b 55 08	 mov	 edx, DWORD PTR _ar$[ebp]
  00046	8b 42 18	 mov	 eax, DWORD PTR [edx+24]
  00049	f7 d0		 not	 eax
  0004b	a8 01		 test	 al, 1
; File C:\Program Files (x86)\Microsoft Visual Studio\2019\Community\VC\Tools\MSVC\14.29.30133\atlmfc\include\afxtempl.h

; 73   : 	if (ar.IsStoring())

  0004d	74 36		 je	 SHORT $LN16@Serialize

; 74   : 	{
; 75   : 		TYPE* pData;
; 76   : 		UINT_PTR nElementsLeft;
; 77   : 
; 78   : 		nElementsLeft = nCount;
; 79   : 		pData = pElements;
; 80   : 		while( nElementsLeft > 0 )

  0004f	85 f6		 test	 esi, esi
  00051	74 29		 je	 SHORT $LN14@Serialize
$LL11@Serialize:

; 81   : 		{
; 82   : 			UINT nElementsToWrite;
; 83   : 
; 84   : 			nElementsToWrite = UINT(__min(nElementsLeft, INT_MAX/sizeof(TYPE)));

  00053	bb ff ff ff 1f	 mov	 ebx, 536870911		; 1fffffffH
  00058	3b f3		 cmp	 esi, ebx
  0005a	0f 42 de	 cmovb	 ebx, esi

; 85   : 			ar.Write(pData, nElementsToWrite*sizeof(TYPE));

  0005d	8d 3c 9d 00 00
	00 00		 lea	 edi, DWORD PTR [ebx*4]
  00064	57		 push	 edi
  00065	51		 push	 ecx
  00066	8b ca		 mov	 ecx, edx
  00068	e8 00 00 00 00	 call	 ?Write@CArchive@@QAEXPBXI@Z ; CArchive::Write

; 86   : 			nElementsLeft -= nElementsToWrite;
; 87   : 			pData += nElementsToWrite;

  0006d	8b 4d fc	 mov	 ecx, DWORD PTR _pData$1$[ebp]
  00070	8b 55 08	 mov	 edx, DWORD PTR _ar$[ebp]
  00073	03 cf		 add	 ecx, edi
  00075	89 4d fc	 mov	 DWORD PTR _pData$1$[ebp], ecx
  00078	2b f3		 sub	 esi, ebx
  0007a	75 d7		 jne	 SHORT $LL11@Serialize
$LN14@Serialize:
  0007c	5f		 pop	 edi

; 647  : }

  0007d	5e		 pop	 esi
  0007e	5b		 pop	 ebx
  0007f	8b e5		 mov	 esp, ebp
  00081	5d		 pop	 ebp
  00082	c2 04 00	 ret	 4
$LN16@Serialize:

; 97   : 		while( nElementsLeft > 0 )

  00085	85 f6		 test	 esi, esi
  00087	74 f3		 je	 SHORT $LN14@Serialize
  00089	0f 1f 80 00 00
	00 00		 npad	 7
$LL13@Serialize:

; 98   : 		{
; 99   : 			UINT nElementsToRead;
; 100  : 
; 101  : 			nElementsToRead = UINT(__min(nElementsLeft, INT_MAX/sizeof(TYPE)));

  00090	bf ff ff ff 1f	 mov	 edi, 536870911		; 1fffffffH
  00095	3b f7		 cmp	 esi, edi
  00097	0f 42 fe	 cmovb	 edi, esi

; 102  : 			ar.EnsureRead(pData, nElementsToRead*sizeof(TYPE));

  0009a	8d 1c bd 00 00
	00 00		 lea	 ebx, DWORD PTR [edi*4]
; File C:\Program Files (x86)\Microsoft Visual Studio\2019\Community\VC\Tools\MSVC\14.29.30133\atlmfc\include\afx.inl

; 399  : 	UINT nRead=Read(lpBuf, nCount);

  000a1	53		 push	 ebx
  000a2	51		 push	 ecx
  000a3	8b ca		 mov	 ecx, edx
  000a5	e8 00 00 00 00	 call	 ?Read@CArchive@@QAEIPAXI@Z ; CArchive::Read

; 400  : 	if(nRead!=nCount)

  000aa	3b c3		 cmp	 eax, ebx
  000ac	75 18		 jne	 SHORT $LN30@Serialize
; File C:\Program Files (x86)\Microsoft Visual Studio\2019\Community\VC\Tools\MSVC\14.29.30133\atlmfc\include\afxtempl.h

; 97   : 		while( nElementsLeft > 0 )

  000ae	8b 4d fc	 mov	 ecx, DWORD PTR _pData$1$[ebp]
  000b1	8b 55 08	 mov	 edx, DWORD PTR _ar$[ebp]

; 103  : 			nElementsLeft -= nElementsToRead;
; 104  : 			pData += nElementsToRead;

  000b4	03 cb		 add	 ecx, ebx
  000b6	89 4d fc	 mov	 DWORD PTR _pData$1$[ebp], ecx
  000b9	2b f7		 sub	 esi, edi
  000bb	75 d3		 jne	 SHORT $LL13@Serialize

; 647  : }

  000bd	5f		 pop	 edi
  000be	5e		 pop	 esi
  000bf	5b		 pop	 ebx
  000c0	8b e5		 mov	 esp, ebp
  000c2	5d		 pop	 ebp
  000c3	c2 04 00	 ret	 4
$LN30@Serialize:
; File C:\Program Files (x86)\Microsoft Visual Studio\2019\Community\VC\Tools\MSVC\14.29.30133\atlmfc\include\afx.inl

; 402  : 		AfxThrowArchiveException(CArchiveException::endOfFile);

  000c6	6a 00		 push	 0
  000c8	6a 03		 push	 3
  000ca	e8 00 00 00 00	 call	 ?AfxThrowArchiveException@@YGXHPBD@Z ; AfxThrowArchiveException
$LN40@Serialize:
; File C:\Program Files (x86)\Microsoft Visual Studio\2019\Community\VC\Tools\MSVC\14.29.30133\atlmfc\include\afxtempl.h

; 68   : 	ENSURE(nCount == 0 || pElements != NULL);

  000cf	e8 00 00 00 00	 call	 ?AfxThrowInvalidArgException@@YGXXZ ; AfxThrowInvalidArgException
$LN38@Serialize:
  000d4	cc		 int	 3
?Serialize@?$CArray@PAVCChartDataGridHeaderInfo@@PAV1@@@UAEXAAVCArchive@@@Z ENDP ; CArray<CChartDataGridHeaderInfo *,CChartDataGridHeaderInfo *>::Serialize
_TEXT	ENDS
; Function compile flags: /Ogtp
; File C:\Program Files (x86)\Microsoft Visual Studio\2019\Community\VC\Tools\MSVC\14.29.30133\atlmfc\include\afxtempl.h
;	COMDAT ??1?$CArray@PAVCChartDataGridHeaderInfo@@PAV1@@@UAE@XZ
_TEXT	SEGMENT
??1?$CArray@PAVCChartDataGridHeaderInfo@@PAV1@@@UAE@XZ PROC ; CArray<CChartDataGridHeaderInfo *,CChartDataGridHeaderInfo *>::~CArray<CChartDataGridHeaderInfo *,CChartDataGridHeaderInfo *>, COMDAT
; _this$ = ecx

; 356  : 	ASSERT_VALID(this);
; 357  : 
; 358  : 	if (m_pData != NULL)

  00000	8b 41 04	 mov	 eax, DWORD PTR [ecx+4]
  00003	c7 01 00 00 00
	00		 mov	 DWORD PTR [ecx], OFFSET ??_7?$CArray@PAVCChartDataGridHeaderInfo@@PAV1@@@6B@
  00009	85 c0		 test	 eax, eax
  0000b	74 07		 je	 SHORT $LN5@CArray

; 359  : 	{
; 360  : 		for( int i = 0; i < m_nSize; i++ )
; 361  : 			(m_pData + i)->~TYPE();
; 362  : 		delete[] (BYTE*)m_pData;

  0000d	50		 push	 eax
  0000e	e8 00 00 00 00	 call	 ??_V@YAXPAX@Z		; operator delete[]
  00013	59		 pop	 ecx
$LN5@CArray:

; 363  : 	}
; 364  : }

  00014	c3		 ret	 0
??1?$CArray@PAVCChartDataGridHeaderInfo@@PAV1@@@UAE@XZ ENDP ; CArray<CChartDataGridHeaderInfo *,CChartDataGridHeaderInfo *>::~CArray<CChartDataGridHeaderInfo *,CChartDataGridHeaderInfo *>
_TEXT	ENDS
; Function compile flags: /Ogtp
; File C:\Program Files (x86)\Microsoft Visual Studio\2019\Community\VC\Tools\MSVC\14.29.30133\atlmfc\include\afxtempl.h
;	COMDAT ?SetAtGrow@?$CArray@PAVCChartDataGridHeaderInfo@@PAV1@@@QAEXHPAVCChartDataGridHeaderInfo@@@Z
_TEXT	SEGMENT
_nIndex$ = 8						; size = 4
_newElement$ = 12					; size = 4
?SetAtGrow@?$CArray@PAVCChartDataGridHeaderInfo@@PAV1@@@QAEXHPAVCChartDataGridHeaderInfo@@@Z PROC ; CArray<CChartDataGridHeaderInfo *,CChartDataGridHeaderInfo *>::SetAtGrow, COMDAT
; _this$ = ecx

; 534  : {

  00000	55		 push	 ebp
  00001	8b ec		 mov	 ebp, esp
  00003	56		 push	 esi

; 535  : 	ASSERT_VALID(this);
; 536  : 	ASSERT(nIndex >= 0);
; 537  : 
; 538  : 	if(nIndex < 0)

  00004	8b 75 08	 mov	 esi, DWORD PTR _nIndex$[ebp]
  00007	57		 push	 edi
  00008	8b f9		 mov	 edi, ecx
  0000a	85 f6		 test	 esi, esi
  0000c	78 1f		 js	 SHORT $LN7@SetAtGrow

; 540  : 
; 541  : 	if (nIndex >= m_nSize)

  0000e	3b 77 08	 cmp	 esi, DWORD PTR [edi+8]
  00011	7c 0b		 jl	 SHORT $LN3@SetAtGrow

; 542  : 		SetSize(nIndex+1, -1);

  00013	6a ff		 push	 -1
  00015	8d 46 01	 lea	 eax, DWORD PTR [esi+1]
  00018	50		 push	 eax
  00019	e8 00 00 00 00	 call	 ?SetSize@?$CArray@PAVCChartDataGridHeaderInfo@@PAV1@@@QAEXHH@Z ; CArray<CChartDataGridHeaderInfo *,CChartDataGridHeaderInfo *>::SetSize
$LN3@SetAtGrow:

; 543  : 	m_pData[nIndex] = newElement;

  0001e	8b 4f 04	 mov	 ecx, DWORD PTR [edi+4]
  00021	8b 45 0c	 mov	 eax, DWORD PTR _newElement$[ebp]
  00024	5f		 pop	 edi
  00025	89 04 b1	 mov	 DWORD PTR [ecx+esi*4], eax
  00028	5e		 pop	 esi

; 544  : }

  00029	5d		 pop	 ebp
  0002a	c2 08 00	 ret	 8
$LN7@SetAtGrow:

; 539  : 		AfxThrowInvalidArgException();

  0002d	e8 00 00 00 00	 call	 ?AfxThrowInvalidArgException@@YGXXZ ; AfxThrowInvalidArgException
$LN5@SetAtGrow:
  00032	cc		 int	 3
?SetAtGrow@?$CArray@PAVCChartDataGridHeaderInfo@@PAV1@@@QAEXHPAVCChartDataGridHeaderInfo@@@Z ENDP ; CArray<CChartDataGridHeaderInfo *,CChartDataGridHeaderInfo *>::SetAtGrow
_TEXT	ENDS
; Function compile flags: /Ogtp
; File C:\Program Files (x86)\Microsoft Visual Studio\2019\Community\VC\Tools\MSVC\14.29.30133\atlmfc\include\afxtempl.h
; File C:\Program Files (x86)\Windows Kits\10\Include\10.0.22000.0\ucrt\corecrt_memcpy_s.h
; File C:\Program Files (x86)\Microsoft Visual Studio\2019\Community\VC\Tools\MSVC\14.29.30133\atlmfc\include\atlchecked.h
; File C:\Program Files (x86)\Microsoft Visual Studio\2019\Community\VC\Tools\MSVC\14.29.30133\atlmfc\include\afxtempl.h
; File C:\Program Files (x86)\Windows Kits\10\Include\10.0.22000.0\ucrt\corecrt_memcpy_s.h
; File C:\Program Files (x86)\Microsoft Visual Studio\2019\Community\VC\Tools\MSVC\14.29.30133\atlmfc\include\atlchecked.h
; File C:\Program Files (x86)\Windows Kits\10\Include\10.0.22000.0\ucrt\corecrt_memcpy_s.h
; File C:\Program Files (x86)\Microsoft Visual Studio\2019\Community\VC\Tools\MSVC\14.29.30133\atlmfc\include\afxtempl.h
;	COMDAT ?SetSize@?$CArray@PAVCChartDataGridHeaderInfo@@PAV1@@@QAEXHH@Z
_TEXT	SEGMENT
__N$1$ = -4						; size = 4
__S2$1$ = 8						; size = 4
_nNewSize$ = 8						; size = 4
_pNewData$1$ = 12					; size = 4
_nGrowBy$ = 12						; size = 4
?SetSize@?$CArray@PAVCChartDataGridHeaderInfo@@PAV1@@@QAEXHH@Z PROC ; CArray<CChartDataGridHeaderInfo *,CChartDataGridHeaderInfo *>::SetSize, COMDAT
; _this$ = ecx

; 368  : {

  00000	55		 push	 ebp
  00001	8b ec		 mov	 ebp, esp
  00003	51		 push	 ecx
  00004	53		 push	 ebx
  00005	56		 push	 esi

; 369  : 	ASSERT_VALID(this);
; 370  : 	ASSERT(nNewSize >= 0);
; 371  : 
; 372  : 	if(nNewSize < 0 )

  00006	8b 75 08	 mov	 esi, DWORD PTR _nNewSize$[ebp]
  00009	8b d9		 mov	 ebx, ecx
  0000b	57		 push	 edi
  0000c	85 f6		 test	 esi, esi
  0000e	0f 88 c2 01 00
	00		 js	 $LN70@SetSize

; 373  : 		AfxThrowInvalidArgException();
; 374  : 
; 375  : 	if (nGrowBy >= 0)

  00014	8b 45 0c	 mov	 eax, DWORD PTR _nGrowBy$[ebp]
  00017	85 c0		 test	 eax, eax
  00019	78 03		 js	 SHORT $LN69@SetSize

; 376  : 		m_nGrowBy = nGrowBy;  // set new size

  0001b	89 43 10	 mov	 DWORD PTR [ebx+16], eax
$LN69@SetSize:

; 377  : 
; 378  : 	if (nNewSize == 0)

  0001e	8b 4b 04	 mov	 ecx, DWORD PTR [ebx+4]
  00021	85 f6		 test	 esi, esi
  00023	75 27		 jne	 SHORT $LN19@SetSize

; 379  : 	{
; 380  : 		// shrink to nothing
; 381  : 		if (m_pData != NULL)

  00025	85 c9		 test	 ecx, ecx
  00027	74 0c		 je	 SHORT $LN21@SetSize

; 382  : 		{
; 383  : 			for( int i = 0; i < m_nSize; i++ )
; 384  : 				(m_pData + i)->~TYPE();
; 385  : 			delete[] (BYTE*)m_pData;

  00029	51		 push	 ecx
  0002a	e8 00 00 00 00	 call	 ??_V@YAXPAX@Z		; operator delete[]
  0002f	83 c4 04	 add	 esp, 4

; 386  : 			m_pData = NULL;

  00032	89 73 04	 mov	 DWORD PTR [ebx+4], esi
$LN21@SetSize:

; 472  : 		m_nSize = nNewSize;
; 473  : 		m_nMaxSize = nNewMax;
; 474  : 	}
; 475  : }

  00035	5f		 pop	 edi
  00036	5e		 pop	 esi
  00037	c7 43 0c 00 00
	00 00		 mov	 DWORD PTR [ebx+12], 0
  0003e	c7 43 08 00 00
	00 00		 mov	 DWORD PTR [ebx+8], 0
  00045	5b		 pop	 ebx
  00046	8b e5		 mov	 esp, ebp
  00048	5d		 pop	 ebp
  00049	c2 08 00	 ret	 8
$LN19@SetSize:

; 387  : 		}
; 388  : 		m_nSize = m_nMaxSize = 0;
; 389  : 	}
; 390  : 	else if (m_pData == NULL)

  0004c	85 c9		 test	 ecx, ecx
  0004e	75 36		 jne	 SHORT $LN22@SetSize

; 391  : 	{
; 392  : 		// create buffer big enough to hold number of requested elements or
; 393  : 		// m_nGrowBy elements, whichever is larger.
; 394  : #ifdef SIZE_T_MAX
; 395  : 		ASSERT(nNewSize <= SIZE_T_MAX/sizeof(TYPE));    // no overflow
; 396  : #endif
; 397  : 		size_t nAllocSize = __max(nNewSize, m_nGrowBy);

  00050	8b 7b 10	 mov	 edi, DWORD PTR [ebx+16]
  00053	3b f7		 cmp	 esi, edi
  00055	0f 4f fe	 cmovg	 edi, esi

; 398  : 		m_pData = (TYPE*) new BYTE[(size_t)nAllocSize * sizeof(TYPE)];

  00058	8d 34 bd 00 00
	00 00		 lea	 esi, DWORD PTR [edi*4]
  0005f	56		 push	 esi
  00060	e8 00 00 00 00	 call	 ??_U@YAPAXI@Z		; operator new[]

; 399  : 		memset((void*)m_pData, 0, (size_t)nAllocSize * sizeof(TYPE));

  00065	56		 push	 esi
  00066	6a 00		 push	 0
  00068	50		 push	 eax
  00069	89 43 04	 mov	 DWORD PTR [ebx+4], eax
  0006c	e8 00 00 00 00	 call	 _memset

; 400  : 		for( int i = 0; i < nNewSize; i++ )
; 401  : #pragma push_macro("new")
; 402  : #undef new
; 403  : 			::new( (void*)( m_pData + i ) ) TYPE;
; 404  : #pragma pop_macro("new")
; 405  : 		m_nSize = nNewSize;

  00071	8b 45 08	 mov	 eax, DWORD PTR _nNewSize$[ebp]
  00074	83 c4 10	 add	 esp, 16			; 00000010H

; 472  : 		m_nSize = nNewSize;
; 473  : 		m_nMaxSize = nNewMax;
; 474  : 	}
; 475  : }

  00077	89 7b 0c	 mov	 DWORD PTR [ebx+12], edi
  0007a	89 43 08	 mov	 DWORD PTR [ebx+8], eax
  0007d	5f		 pop	 edi
  0007e	5e		 pop	 esi
  0007f	5b		 pop	 ebx
  00080	8b e5		 mov	 esp, ebp
  00082	5d		 pop	 ebp
  00083	c2 08 00	 ret	 8
$LN22@SetSize:

; 406  : 		m_nMaxSize = nAllocSize;
; 407  : 	}
; 408  : 	else if (nNewSize <= m_nMaxSize)

  00086	8b 7b 0c	 mov	 edi, DWORD PTR [ebx+12]
  00089	3b f7		 cmp	 esi, edi
  0008b	7f 29		 jg	 SHORT $LN24@SetSize

; 409  : 	{
; 410  : 		// it fits
; 411  : 		if (nNewSize > m_nSize)

  0008d	8b 53 08	 mov	 edx, DWORD PTR [ebx+8]
  00090	3b f2		 cmp	 esi, edx
  00092	7e 16		 jle	 SHORT $LN26@SetSize

; 412  : 		{
; 413  : 			// initialize the new elements
; 414  : 			memset((void*)(m_pData + m_nSize), 0, (size_t)(nNewSize-m_nSize) * sizeof(TYPE));

  00094	8b c6		 mov	 eax, esi
  00096	2b c2		 sub	 eax, edx
  00098	c1 e0 02	 shl	 eax, 2
  0009b	50		 push	 eax
  0009c	8d 04 91	 lea	 eax, DWORD PTR [ecx+edx*4]
  0009f	6a 00		 push	 0
  000a1	50		 push	 eax
  000a2	e8 00 00 00 00	 call	 _memset
  000a7	83 c4 0c	 add	 esp, 12			; 0000000cH
$LN26@SetSize:

; 415  : 			for( int i = 0; i < nNewSize-m_nSize; i++ )
; 416  : #pragma push_macro("new")
; 417  : #undef new
; 418  : 				::new( (void*)( m_pData + m_nSize + i ) ) TYPE;
; 419  : #pragma pop_macro("new")
; 420  : 		}
; 421  : 		else if (m_nSize > nNewSize)
; 422  : 		{
; 423  : 			// destroy the old elements
; 424  : 			for( int i = 0; i < m_nSize-nNewSize; i++ )
; 425  : 				(m_pData + nNewSize + i)->~TYPE();
; 426  : 		}
; 427  : 		m_nSize = nNewSize;

  000aa	5f		 pop	 edi
  000ab	89 73 08	 mov	 DWORD PTR [ebx+8], esi

; 472  : 		m_nSize = nNewSize;
; 473  : 		m_nMaxSize = nNewMax;
; 474  : 	}
; 475  : }

  000ae	5e		 pop	 esi
  000af	5b		 pop	 ebx
  000b0	8b e5		 mov	 esp, ebp
  000b2	5d		 pop	 ebp
  000b3	c2 08 00	 ret	 8
$LN24@SetSize:

; 428  : 	}
; 429  : 	else
; 430  : 	{
; 431  : 		// otherwise, grow array
; 432  : 		nGrowBy = m_nGrowBy;

  000b6	8b 43 10	 mov	 eax, DWORD PTR [ebx+16]

; 433  : 		if (nGrowBy == 0)

  000b9	85 c0		 test	 eax, eax
  000bb	75 22		 jne	 SHORT $LN37@SetSize

; 434  : 		{
; 435  : 			// heuristically determine growth when nGrowBy == 0
; 436  : 			//  (this avoids heap fragmentation in many situations)
; 437  : 			nGrowBy = m_nSize / 8;

  000bd	8b 43 08	 mov	 eax, DWORD PTR [ebx+8]
  000c0	99		 cdq
  000c1	83 e2 07	 and	 edx, 7
  000c4	03 c2		 add	 eax, edx
  000c6	c1 f8 03	 sar	 eax, 3

; 438  : 			nGrowBy = (nGrowBy < 4) ? 4 : ((nGrowBy > 1024) ? 1024 : nGrowBy);

  000c9	83 f8 04	 cmp	 eax, 4
  000cc	7d 07		 jge	 SHORT $LN36@SetSize
  000ce	b8 04 00 00 00	 mov	 eax, 4
  000d3	eb 0a		 jmp	 SHORT $LN37@SetSize
$LN36@SetSize:
  000d5	b9 00 04 00 00	 mov	 ecx, 1024		; 00000400H
  000da	3b c1		 cmp	 eax, ecx
  000dc	0f 4f c1	 cmovg	 eax, ecx
$LN37@SetSize:

; 439  : 		}
; 440  : 		INT_PTR nNewMax;
; 441  : 		if (nNewSize < m_nMaxSize + nGrowBy)

  000df	03 f8		 add	 edi, eax
  000e1	3b f7		 cmp	 esi, edi
  000e3	7d 0b		 jge	 SHORT $LN30@SetSize

; 445  : 
; 446  : 		ASSERT(nNewMax >= m_nMaxSize);  // no wrap around
; 447  : 
; 448  : 		if(nNewMax  < m_nMaxSize)

  000e5	3b 7b 0c	 cmp	 edi, DWORD PTR [ebx+12]
  000e8	0f 8c e8 00 00
	00		 jl	 $LN70@SetSize
  000ee	eb 02		 jmp	 SHORT $LN32@SetSize
$LN30@SetSize:

; 442  : 			nNewMax = m_nMaxSize + nGrowBy;  // granularity
; 443  : 		else
; 444  : 			nNewMax = nNewSize;  // no slush

  000f0	8b fe		 mov	 edi, esi
$LN32@SetSize:

; 450  : 
; 451  : #ifdef SIZE_T_MAX
; 452  : 		ASSERT(nNewMax <= SIZE_T_MAX/sizeof(TYPE)); // no overflow
; 453  : #endif
; 454  : 		TYPE* pNewData = (TYPE*) new BYTE[(size_t)nNewMax * sizeof(TYPE)];

  000f2	8d 04 bd 00 00
	00 00		 lea	 eax, DWORD PTR [edi*4]
  000f9	50		 push	 eax
  000fa	e8 00 00 00 00	 call	 ??_U@YAPAXI@Z		; operator new[]

; 455  : 
; 456  : 		// copy new data from old
; 457  : 		::ATL::Checked::memcpy_s(pNewData, (size_t)nNewMax * sizeof(TYPE),

  000ff	8b 53 04	 mov	 edx, DWORD PTR [ebx+4]
  00102	8b c8		 mov	 ecx, eax
  00104	8b 43 08	 mov	 eax, DWORD PTR [ebx+8]
  00107	83 c4 04	 add	 esp, 4
  0010a	c1 e0 02	 shl	 eax, 2
  0010d	89 4d 0c	 mov	 DWORD PTR _pNewData$1$[ebp], ecx
  00110	89 45 fc	 mov	 DWORD PTR __N$1$[ebp], eax
  00113	89 55 08	 mov	 DWORD PTR __S2$1$[ebp], edx
; File C:\Program Files (x86)\Windows Kits\10\Include\10.0.22000.0\ucrt\corecrt_memcpy_s.h

; 46   :         if (_SourceSize == 0)

  00116	85 c0		 test	 eax, eax
  00118	74 76		 je	 SHORT $LN74@SetSize

; 47   :         {
; 48   :             return 0;
; 49   :         }
; 50   : 
; 51   :         _CRT_MEMCPY_S_VALIDATE_RETURN_ERRCODE(_Destination != NULL, EINVAL);

  0011a	85 c9		 test	 ecx, ecx
  0011c	75 56		 jne	 SHORT $LN42@SetSize
$LN73@SetSize:
; File C:\Program Files (x86)\Microsoft Visual Studio\2019\Community\VC\Tools\MSVC\14.29.30133\atlmfc\include\atlchecked.h

; 69   : 	ATLMFC_CRT_ERRORCHECK(::memcpy_s(_S1, _S1max, _S2, _N));

  0011e	ff 15 00 00 00
	00		 call	 DWORD PTR __imp___errno
  00124	c7 00 16 00 00
	00		 mov	 DWORD PTR [eax], 22	; 00000016H
  0012a	ff 15 00 00 00
	00		 call	 DWORD PTR __imp___invalid_parameter_noinfo
$LN46@SetSize:
  00130	b8 16 00 00 00	 mov	 eax, 22			; 00000016H
$LN40@SetSize:
  00135	50		 push	 eax
  00136	e8 00 00 00 00	 call	 ?AfxCrtErrorCheck@@YAHH@Z ; AfxCrtErrorCheck
; File C:\Program Files (x86)\Microsoft Visual Studio\2019\Community\VC\Tools\MSVC\14.29.30133\atlmfc\include\afxtempl.h

; 462  : 		memset((void*)(pNewData + m_nSize), 0, (size_t)(nNewSize-m_nSize) * sizeof(TYPE));

  0013b	8b 4b 08	 mov	 ecx, DWORD PTR [ebx+8]
  0013e	8b c6		 mov	 eax, esi
  00140	2b c1		 sub	 eax, ecx
  00142	c1 e0 02	 shl	 eax, 2
  00145	50		 push	 eax
  00146	8b 45 0c	 mov	 eax, DWORD PTR _pNewData$1$[ebp]
  00149	6a 00		 push	 0
  0014b	8d 04 88	 lea	 eax, DWORD PTR [eax+ecx*4]
  0014e	50		 push	 eax
  0014f	e8 00 00 00 00	 call	 _memset

; 463  : 		for( int i = 0; i < nNewSize-m_nSize; i++ )
; 464  : #pragma push_macro("new")
; 465  : #undef new
; 466  : 			::new( (void*)( pNewData + m_nSize + i ) ) TYPE;
; 467  : #pragma pop_macro("new")
; 468  : 
; 469  : 		// get rid of old stuff (note: no destructors called)
; 470  : 		delete[] (BYTE*)m_pData;

  00154	ff 73 04	 push	 DWORD PTR [ebx+4]
  00157	e8 00 00 00 00	 call	 ??_V@YAXPAX@Z		; operator delete[]

; 471  : 		m_pData = pNewData;

  0015c	8b 45 0c	 mov	 eax, DWORD PTR _pNewData$1$[ebp]
  0015f	83 c4 14	 add	 esp, 20			; 00000014H

; 472  : 		m_nSize = nNewSize;
; 473  : 		m_nMaxSize = nNewMax;
; 474  : 	}
; 475  : }

  00162	89 7b 0c	 mov	 DWORD PTR [ebx+12], edi
  00165	89 73 08	 mov	 DWORD PTR [ebx+8], esi
  00168	89 43 04	 mov	 DWORD PTR [ebx+4], eax
  0016b	5f		 pop	 edi
  0016c	5e		 pop	 esi
  0016d	5b		 pop	 ebx
  0016e	8b e5		 mov	 esp, ebp
  00170	5d		 pop	 ebp
  00171	c2 08 00	 ret	 8
$LN42@SetSize:
; File C:\Program Files (x86)\Windows Kits\10\Include\10.0.22000.0\ucrt\corecrt_memcpy_s.h

; 52   :         if (_Source == NULL || _DestinationSize < _SourceSize)

  00174	85 d2		 test	 edx, edx
  00176	8d 14 bd 00 00
	00 00		 lea	 edx, DWORD PTR [edi*4]
  0017d	74 15		 je	 SHORT $LN44@SetSize
  0017f	3b d0		 cmp	 edx, eax
  00181	72 11		 jb	 SHORT $LN44@SetSize

; 58   : 
; 59   :             // Unreachable, but required to suppress /analyze warnings:
; 60   :             return EINVAL;
; 61   :         }
; 62   :         memcpy(_Destination, _Source, _SourceSize);

  00183	50		 push	 eax
  00184	ff 75 08	 push	 DWORD PTR __S2$1$[ebp]
  00187	51		 push	 ecx
  00188	e8 00 00 00 00	 call	 _memcpy
  0018d	83 c4 0c	 add	 esp, 12			; 0000000cH
$LN74@SetSize:
; File C:\Program Files (x86)\Microsoft Visual Studio\2019\Community\VC\Tools\MSVC\14.29.30133\atlmfc\include\atlchecked.h

; 69   : 	ATLMFC_CRT_ERRORCHECK(::memcpy_s(_S1, _S1max, _S2, _N));

  00190	33 c0		 xor	 eax, eax
  00192	eb a1		 jmp	 SHORT $LN40@SetSize
$LN44@SetSize:
; File C:\Program Files (x86)\Windows Kits\10\Include\10.0.22000.0\ucrt\corecrt_memcpy_s.h

; 54   :             memset(_Destination, 0, _DestinationSize);

  00194	52		 push	 edx
  00195	6a 00		 push	 0
  00197	51		 push	 ecx
  00198	e8 00 00 00 00	 call	 _memset
  0019d	83 c4 0c	 add	 esp, 12			; 0000000cH

; 55   : 
; 56   :             _CRT_MEMCPY_S_VALIDATE_RETURN_ERRCODE(_Source != NULL,                 EINVAL);

  001a0	83 7d 08 00	 cmp	 DWORD PTR __S2$1$[ebp], 0
  001a4	0f 84 74 ff ff
	ff		 je	 $LN73@SetSize

; 57   :             _CRT_MEMCPY_S_VALIDATE_RETURN_ERRCODE(_DestinationSize >= _SourceSize, ERANGE);

  001aa	8d 04 bd 00 00
	00 00		 lea	 eax, DWORD PTR [edi*4]
  001b1	3b 45 fc	 cmp	 eax, DWORD PTR __N$1$[ebp]
  001b4	0f 83 76 ff ff
	ff		 jae	 $LN46@SetSize
  001ba	ff 15 00 00 00
	00		 call	 DWORD PTR __imp___errno
  001c0	c7 00 22 00 00
	00		 mov	 DWORD PTR [eax], 34	; 00000022H
  001c6	ff 15 00 00 00
	00		 call	 DWORD PTR __imp___invalid_parameter_noinfo
  001cc	b8 22 00 00 00	 mov	 eax, 34			; 00000022H
  001d1	e9 5f ff ff ff	 jmp	 $LN40@SetSize
$LN70@SetSize:
; File C:\Program Files (x86)\Microsoft Visual Studio\2019\Community\VC\Tools\MSVC\14.29.30133\atlmfc\include\afxtempl.h

; 449  : 			AfxThrowInvalidArgException();

  001d6	e8 00 00 00 00	 call	 ?AfxThrowInvalidArgException@@YGXXZ ; AfxThrowInvalidArgException
$LN72@SetSize:
  001db	cc		 int	 3
?SetSize@?$CArray@PAVCChartDataGridHeaderInfo@@PAV1@@@QAEXHH@Z ENDP ; CArray<CChartDataGridHeaderInfo *,CChartDataGridHeaderInfo *>::SetSize
_TEXT	ENDS
; Function compile flags: /Ogtp
; File C:\Program Files (x86)\Microsoft Visual Studio\2019\Community\VC\Tools\MSVC\14.29.30133\atlmfc\include\afxtempl.h
;	COMDAT ??0?$CArray@PAVCChartDataGridHeaderInfo@@PAV1@@@QAE@XZ
_TEXT	SEGMENT
??0?$CArray@PAVCChartDataGridHeaderInfo@@PAV1@@@QAE@XZ PROC ; CArray<CChartDataGridHeaderInfo *,CChartDataGridHeaderInfo *>::CArray<CChartDataGridHeaderInfo *,CChartDataGridHeaderInfo *>, COMDAT
; _this$ = ecx

; 348  : {

  00000	c7 01 00 00 00
	00		 mov	 DWORD PTR [ecx], OFFSET ??_7?$CArray@PAVCChartDataGridHeaderInfo@@PAV1@@@6B@

; 349  : 	m_pData = NULL;
; 350  : 	m_nSize = m_nMaxSize = m_nGrowBy = 0;
; 351  : }

  00006	8b c1		 mov	 eax, ecx
  00008	c7 41 04 00 00
	00 00		 mov	 DWORD PTR [ecx+4], 0
  0000f	c7 41 10 00 00
	00 00		 mov	 DWORD PTR [ecx+16], 0
  00016	c7 41 0c 00 00
	00 00		 mov	 DWORD PTR [ecx+12], 0
  0001d	c7 41 08 00 00
	00 00		 mov	 DWORD PTR [ecx+8], 0
  00024	c3		 ret	 0
??0?$CArray@PAVCChartDataGridHeaderInfo@@PAV1@@@QAE@XZ ENDP ; CArray<CChartDataGridHeaderInfo *,CChartDataGridHeaderInfo *>::CArray<CChartDataGridHeaderInfo *,CChartDataGridHeaderInfo *>
_TEXT	ENDS
; Function compile flags: /Ogtp
; File D:\git\src\IBK\IBK_DRFN\ProjSrc\SrcChartEx\ChartAddIn\ChartDataListViewerAddIn\Include_Addin_134221\I134221\_ChartAddInBase.h
;	COMDAT ?OnRButtonDblClk@CChartAddInBase134221@@MAEHPAUHDC__@@IAAUtagPOINT@@K@Z
_TEXT	SEGMENT
_p_hDC$ = 8						; size = 4
_nFlags$ = 12						; size = 4
_point$ = 16						; size = 4
_p_dwMouseActionID$ = 20				; size = 4
?OnRButtonDblClk@CChartAddInBase134221@@MAEHPAUHDC__@@IAAUtagPOINT@@K@Z PROC ; CChartAddInBase134221::OnRButtonDblClk, COMDAT
; _this$ = ecx

; 215  : 	virtual BOOL	OnRButtonDblClk(				HDC p_hDC, UINT nFlags, POINT &point, const DWORD p_dwMouseActionID)									{	return FALSE;	}

  00000	33 c0		 xor	 eax, eax
  00002	c2 10 00	 ret	 16			; 00000010H
?OnRButtonDblClk@CChartAddInBase134221@@MAEHPAUHDC__@@IAAUtagPOINT@@K@Z ENDP ; CChartAddInBase134221::OnRButtonDblClk
_TEXT	ENDS
; Function compile flags: /Ogtp
; File D:\git\src\IBK\IBK_DRFN\ProjSrc\SrcChartEx\ChartAddIn\ChartDataListViewerAddIn\Include_Addin_134221\I134221\_ChartAddInBase.h
;	COMDAT ?OnRButtonUp@CChartAddInBase134221@@MAEHPAUHDC__@@IAAUtagPOINT@@K@Z
_TEXT	SEGMENT
_p_hDC$ = 8						; size = 4
_nFlags$ = 12						; size = 4
_point$ = 16						; size = 4
_p_dwMouseActionID$ = 20				; size = 4
?OnRButtonUp@CChartAddInBase134221@@MAEHPAUHDC__@@IAAUtagPOINT@@K@Z PROC ; CChartAddInBase134221::OnRButtonUp, COMDAT
; _this$ = ecx

; 214  : 	virtual BOOL	OnRButtonUp(					HDC p_hDC, UINT nFlags, POINT &point, const DWORD p_dwMouseActionID)									{	return FALSE;	}

  00000	33 c0		 xor	 eax, eax
  00002	c2 10 00	 ret	 16			; 00000010H
?OnRButtonUp@CChartAddInBase134221@@MAEHPAUHDC__@@IAAUtagPOINT@@K@Z ENDP ; CChartAddInBase134221::OnRButtonUp
_TEXT	ENDS
; Function compile flags: /Ogtp
; File D:\git\src\IBK\IBK_DRFN\ProjSrc\SrcChartEx\ChartAddIn\ChartDataListViewerAddIn\Include_Addin_134221\I134221\_ChartAddInBase.h
;	COMDAT ?OnRButtonDown@CChartAddInBase134221@@MAEHPAUHDC__@@IAAUtagPOINT@@K@Z
_TEXT	SEGMENT
_p_hDC$ = 8						; size = 4
_nFlags$ = 12						; size = 4
_point$ = 16						; size = 4
_p_dwMouseActionID$ = 20				; size = 4
?OnRButtonDown@CChartAddInBase134221@@MAEHPAUHDC__@@IAAUtagPOINT@@K@Z PROC ; CChartAddInBase134221::OnRButtonDown, COMDAT
; _this$ = ecx

; 213  : 	virtual BOOL	OnRButtonDown(					HDC p_hDC, UINT nFlags, POINT &point, const DWORD p_dwMouseActionID)									{	return FALSE;	}

  00000	33 c0		 xor	 eax, eax
  00002	c2 10 00	 ret	 16			; 00000010H
?OnRButtonDown@CChartAddInBase134221@@MAEHPAUHDC__@@IAAUtagPOINT@@K@Z ENDP ; CChartAddInBase134221::OnRButtonDown
_TEXT	ENDS
; Function compile flags: /Ogtp
; File D:\git\src\IBK\IBK_DRFN\ProjSrc\SrcChartEx\ChartAddIn\ChartDataListViewerAddIn\Include_Addin_134221\I134221\_ChartAddInBase.h
;	COMDAT ?OnLButtonDblClk@CChartAddInBase134221@@MAEHPAUHDC__@@IAAUtagPOINT@@K@Z
_TEXT	SEGMENT
_p_hDC$ = 8						; size = 4
_nFlags$ = 12						; size = 4
_point$ = 16						; size = 4
_p_dwMouseActionID$ = 20				; size = 4
?OnLButtonDblClk@CChartAddInBase134221@@MAEHPAUHDC__@@IAAUtagPOINT@@K@Z PROC ; CChartAddInBase134221::OnLButtonDblClk, COMDAT
; _this$ = ecx

; 212  : 	virtual BOOL	OnLButtonDblClk(				HDC p_hDC, UINT nFlags, POINT &point, const DWORD p_dwMouseActionID)									{	return FALSE;	}

  00000	33 c0		 xor	 eax, eax
  00002	c2 10 00	 ret	 16			; 00000010H
?OnLButtonDblClk@CChartAddInBase134221@@MAEHPAUHDC__@@IAAUtagPOINT@@K@Z ENDP ; CChartAddInBase134221::OnLButtonDblClk
_TEXT	ENDS
; Function compile flags: /Ogtp
; File D:\git\src\IBK\IBK_DRFN\ProjSrc\SrcChartEx\ChartAddIn\ChartDataListViewerAddIn\Include_Addin_134221\I134221\_ChartAddInBase.h
;	COMDAT ?OnLButtonUp@CChartAddInBase134221@@MAEHPAUHDC__@@IAAUtagPOINT@@K@Z
_TEXT	SEGMENT
_p_hDC$ = 8						; size = 4
_nFlags$ = 12						; size = 4
_point$ = 16						; size = 4
_p_dwMouseActionID$ = 20				; size = 4
?OnLButtonUp@CChartAddInBase134221@@MAEHPAUHDC__@@IAAUtagPOINT@@K@Z PROC ; CChartAddInBase134221::OnLButtonUp, COMDAT
; _this$ = ecx

; 211  : 	virtual BOOL	OnLButtonUp(					HDC p_hDC, UINT nFlags, POINT &point, const DWORD p_dwMouseActionID)									{	return FALSE;	}

  00000	33 c0		 xor	 eax, eax
  00002	c2 10 00	 ret	 16			; 00000010H
?OnLButtonUp@CChartAddInBase134221@@MAEHPAUHDC__@@IAAUtagPOINT@@K@Z ENDP ; CChartAddInBase134221::OnLButtonUp
_TEXT	ENDS
; Function compile flags: /Ogtp
; File D:\git\src\IBK\IBK_DRFN\ProjSrc\SrcChartEx\ChartAddIn\ChartDataListViewerAddIn\Include_Addin_134221\I134221\_ChartAddInBase.h
;	COMDAT ?OnLButtonDown@CChartAddInBase134221@@MAEHPAUHDC__@@IAAUtagPOINT@@K@Z
_TEXT	SEGMENT
_p_hDC$ = 8						; size = 4
_nFlags$ = 12						; size = 4
_point$ = 16						; size = 4
_p_dwMouseActionID$ = 20				; size = 4
?OnLButtonDown@CChartAddInBase134221@@MAEHPAUHDC__@@IAAUtagPOINT@@K@Z PROC ; CChartAddInBase134221::OnLButtonDown, COMDAT
; _this$ = ecx

; 210  : 	virtual BOOL	OnLButtonDown(					HDC p_hDC, UINT nFlags, POINT &point, const DWORD p_dwMouseActionID)									{	return FALSE;	}

  00000	33 c0		 xor	 eax, eax
  00002	c2 10 00	 ret	 16			; 00000010H
?OnLButtonDown@CChartAddInBase134221@@MAEHPAUHDC__@@IAAUtagPOINT@@K@Z ENDP ; CChartAddInBase134221::OnLButtonDown
_TEXT	ENDS
; Function compile flags: /Ogtp
; File D:\git\src\IBK\IBK_DRFN\ProjSrc\SrcChartEx\ChartAddIn\ChartDataListViewerAddIn\Include_Addin_134221\I134221\_ChartAddInBase.h
;	COMDAT ?OnMouseMove@CChartAddInBase134221@@MAEHPAUHDC__@@IAAUtagPOINT@@KQAUHBITMAP__@@@Z
_TEXT	SEGMENT
_p_hDC$ = 8						; size = 4
_nFlags$ = 12						; size = 4
_point$ = 16						; size = 4
_p_dwMouseActionID$ = 20				; size = 4
_p_hbmpMainOSB$ = 24					; size = 4
?OnMouseMove@CChartAddInBase134221@@MAEHPAUHDC__@@IAAUtagPOINT@@KQAUHBITMAP__@@@Z PROC ; CChartAddInBase134221::OnMouseMove, COMDAT
; _this$ = ecx

; 209  : 	virtual BOOL	OnMouseMove(					HDC p_hDC, UINT nFlags, POINT &point, const DWORD p_dwMouseActionID, const HBITMAP p_hbmpMainOSB)		{	return FALSE;	}	// (2006/11/5 - Seung-Won, Bae) Support MainOSB

  00000	33 c0		 xor	 eax, eax
  00002	c2 14 00	 ret	 20			; 00000014H
?OnMouseMove@CChartAddInBase134221@@MAEHPAUHDC__@@IAAUtagPOINT@@KQAUHBITMAP__@@@Z ENDP ; CChartAddInBase134221::OnMouseMove
_TEXT	ENDS
; Function compile flags: /Ogtp
; File D:\git\src\IBK\IBK_DRFN\ProjSrc\SrcChartEx\ChartAddIn\ChartDataListViewerAddIn\Include_Addin_134221\I134221\_ChartAddInBase.h
;	COMDAT ?OnMouseWheel@CChartAddInBase134221@@MAEHIFUtagPOINT@@K@Z
_TEXT	SEGMENT
_nFlags$ = 8						; size = 4
_zDelta$ = 12						; size = 2
_pt$ = 16						; size = 8
_p_dwMouseActionID$ = 24				; size = 4
?OnMouseWheel@CChartAddInBase134221@@MAEHIFUtagPOINT@@K@Z PROC ; CChartAddInBase134221::OnMouseWheel, COMDAT
; _this$ = ecx

; 208  : 	virtual BOOL	OnMouseWheel(					UINT nFlags, short zDelta, POINT pt, const DWORD p_dwMouseActionID)										{	return FALSE;	}

  00000	33 c0		 xor	 eax, eax
  00002	c2 14 00	 ret	 20			; 00000014H
?OnMouseWheel@CChartAddInBase134221@@MAEHIFUtagPOINT@@K@Z ENDP ; CChartAddInBase134221::OnMouseWheel
_TEXT	ENDS
; Function compile flags: /Ogtp
; File D:\git\src\IBK\IBK_DRFN\ProjSrc\SrcChartEx\ChartAddIn\ChartDataListViewerAddIn\Include_Addin_134221\I134221\_ChartAddInBase.h
;	COMDAT ?OnKeyUp@CChartAddInBase134221@@MAEHIII@Z
_TEXT	SEGMENT
_nChar$ = 8						; size = 4
_nRepCnt$ = 12						; size = 4
_nFlags$ = 16						; size = 4
?OnKeyUp@CChartAddInBase134221@@MAEHIII@Z PROC		; CChartAddInBase134221::OnKeyUp, COMDAT
; _this$ = ecx

; 207  : 	virtual BOOL	OnKeyUp(						UINT nChar, UINT nRepCnt, UINT nFlags)																	{	return FALSE;	}

  00000	33 c0		 xor	 eax, eax
  00002	c2 0c 00	 ret	 12			; 0000000cH
?OnKeyUp@CChartAddInBase134221@@MAEHIII@Z ENDP		; CChartAddInBase134221::OnKeyUp
_TEXT	ENDS
; Function compile flags: /Ogtp
; File D:\git\src\IBK\IBK_DRFN\ProjSrc\SrcChartEx\ChartAddIn\ChartDataListViewerAddIn\Include_Addin_134221\I134221\_ChartAddInBase.h
;	COMDAT ?OnKeyDown@CChartAddInBase134221@@MAEHIII@Z
_TEXT	SEGMENT
_nChar$ = 8						; size = 4
_nRepCnt$ = 12						; size = 4
_nFlags$ = 16						; size = 4
?OnKeyDown@CChartAddInBase134221@@MAEHIII@Z PROC	; CChartAddInBase134221::OnKeyDown, COMDAT
; _this$ = ecx

; 206  : 	virtual BOOL	OnKeyDown(						UINT nChar, UINT nRepCnt, UINT nFlags)																	{	return FALSE;	}

  00000	33 c0		 xor	 eax, eax
  00002	c2 0c 00	 ret	 12			; 0000000cH
?OnKeyDown@CChartAddInBase134221@@MAEHIII@Z ENDP	; CChartAddInBase134221::OnKeyDown
_TEXT	ENDS
; Function compile flags: /Ogtp
; File D:\git\src\IBK\IBK_DRFN\ProjSrc\SrcChartEx\ChartAddIn\ChartDataListViewerAddIn\Include_Addin_134221\I134221\_ChartAddInBase.h
;	COMDAT ?OnAddInToolCommand@CChartAddInBase134221@@MAEHAAJW4EAICommandType@@JJ@Z
_TEXT	SEGMENT
_p_lResult$ = 8						; size = 4
_p_eCommandID$ = 12					; size = 4
_p_lParam1$ = 16					; size = 4
_p_lParam2$ = 20					; size = 4
?OnAddInToolCommand@CChartAddInBase134221@@MAEHAAJW4EAICommandType@@JJ@Z PROC ; CChartAddInBase134221::OnAddInToolCommand, COMDAT
; _this$ = ecx

; 204  : 	virtual BOOL	OnAddInToolCommand(	long &p_lResult, const EAICommandType p_eCommandID, const long p_lParam1, const long p_lParam2)			{	return FALSE;	}

  00000	33 c0		 xor	 eax, eax
  00002	c2 10 00	 ret	 16			; 00000010H
?OnAddInToolCommand@CChartAddInBase134221@@MAEHAAJW4EAICommandType@@JJ@Z ENDP ; CChartAddInBase134221::OnAddInToolCommand
_TEXT	ENDS
; Function compile flags: /Ogtp
; File D:\git\src\IBK\IBK_DRFN\ProjSrc\SrcChartEx\ChartAddIn\ChartDataListViewerAddIn\Include_Addin_134221\I134221\_ChartAddInBase.h
;	COMDAT ?OnAddInToolCommand@CChartAddInBase134221@@MAEHAAJW4EAICommandType@@J@Z
_TEXT	SEGMENT
_p_lResult$ = 8						; size = 4
_p_eCommandID$ = 12					; size = 4
_p_lParam$ = 16						; size = 4
?OnAddInToolCommand@CChartAddInBase134221@@MAEHAAJW4EAICommandType@@J@Z PROC ; CChartAddInBase134221::OnAddInToolCommand, COMDAT
; _this$ = ecx

; 203  : 	virtual BOOL	OnAddInToolCommand(	long &p_lResult, const EAICommandType p_eCommandID, const long p_lParam)								{	return FALSE;	}

  00000	33 c0		 xor	 eax, eax
  00002	c2 0c 00	 ret	 12			; 0000000cH
?OnAddInToolCommand@CChartAddInBase134221@@MAEHAAJW4EAICommandType@@J@Z ENDP ; CChartAddInBase134221::OnAddInToolCommand
_TEXT	ENDS
; Function compile flags: /Ogtp
; File D:\git\src\IBK\IBK_DRFN\ProjSrc\SrcChartEx\ChartAddIn\ChartDataListViewerAddIn\Include_Addin_134221\I134221\_ChartAddInBase.h
;	COMDAT ?OnAddInToolCommand@CChartAddInBase134221@@MAEHAAJW4EAICommandType@@PBDPAVCObject@@@Z
_TEXT	SEGMENT
_p_lResult$ = 8						; size = 4
_p_eCommandID$ = 12					; size = 4
_p_szParam$ = 16					; size = 4
_p_pParam$ = 20						; size = 4
?OnAddInToolCommand@CChartAddInBase134221@@MAEHAAJW4EAICommandType@@PBDPAVCObject@@@Z PROC ; CChartAddInBase134221::OnAddInToolCommand, COMDAT
; _this$ = ecx

; 202  : 	virtual BOOL	OnAddInToolCommand(	long &p_lResult, const EAICommandType p_eCommandID, const char *p_szParam, CObject *p_pParam)			{	return FALSE;	}

  00000	33 c0		 xor	 eax, eax
  00002	c2 10 00	 ret	 16			; 00000010H
?OnAddInToolCommand@CChartAddInBase134221@@MAEHAAJW4EAICommandType@@PBDPAVCObject@@@Z ENDP ; CChartAddInBase134221::OnAddInToolCommand
_TEXT	ENDS
; Function compile flags: /Ogtp
; File D:\git\src\IBK\IBK_DRFN\ProjSrc\SrcChartEx\ChartAddIn\ChartDataListViewerAddIn\Include_Addin_134221\I134221\_ChartAddInBase.h
;	COMDAT ?OnAddInToolCommand@CChartAddInBase134221@@MAEHAAJW4EAICommandType@@PBD@Z
_TEXT	SEGMENT
_p_lResult$ = 8						; size = 4
_p_eCommandID$ = 12					; size = 4
_p_szParam$ = 16					; size = 4
?OnAddInToolCommand@CChartAddInBase134221@@MAEHAAJW4EAICommandType@@PBD@Z PROC ; CChartAddInBase134221::OnAddInToolCommand, COMDAT
; _this$ = ecx

; 201  : 	virtual BOOL	OnAddInToolCommand(	long &p_lResult, const EAICommandType p_eCommandID, const char *p_szParam)								{	return FALSE;	}

  00000	33 c0		 xor	 eax, eax
  00002	c2 0c 00	 ret	 12			; 0000000cH
?OnAddInToolCommand@CChartAddInBase134221@@MAEHAAJW4EAICommandType@@PBD@Z ENDP ; CChartAddInBase134221::OnAddInToolCommand
_TEXT	ENDS
; Function compile flags: /Ogtp
; File D:\git\src\IBK\IBK_DRFN\ProjSrc\SrcChartEx\ChartAddIn\ChartDataListViewerAddIn\Include_Addin_134221\I134221\_ChartAddInBase.h
;	COMDAT ?OnAddInToolCommand@CChartAddInBase134221@@MAEHAAJW4EAICommandType@@PAUIGraphInfo134221@@@Z
_TEXT	SEGMENT
_p_lResult$ = 8						; size = 4
_p_eCommandID$ = 12					; size = 4
_p_pIGraphInfo$ = 16					; size = 4
?OnAddInToolCommand@CChartAddInBase134221@@MAEHAAJW4EAICommandType@@PAUIGraphInfo134221@@@Z PROC ; CChartAddInBase134221::OnAddInToolCommand, COMDAT
; _this$ = ecx

; 200  : 	virtual BOOL	OnAddInToolCommand(	long &p_lResult, const EAICommandType p_eCommandID, IGraphInfo *p_pIGraphInfo)							{	return FALSE;	}

  00000	33 c0		 xor	 eax, eax
  00002	c2 0c 00	 ret	 12			; 0000000cH
?OnAddInToolCommand@CChartAddInBase134221@@MAEHAAJW4EAICommandType@@PAUIGraphInfo134221@@@Z ENDP ; CChartAddInBase134221::OnAddInToolCommand
_TEXT	ENDS
; Function compile flags: /Ogtp
; File D:\git\src\IBK\IBK_DRFN\ProjSrc\SrcChartEx\ChartAddIn\ChartDataListViewerAddIn\Include_Addin_134221\I134221\_ChartAddInBase.h
;	COMDAT ?OnAddInToolCommand@CChartAddInBase134221@@MAEHAAJW4EAICommandType@@@Z
_TEXT	SEGMENT
_p_lResult$ = 8						; size = 4
_p_eCommandID$ = 12					; size = 4
?OnAddInToolCommand@CChartAddInBase134221@@MAEHAAJW4EAICommandType@@@Z PROC ; CChartAddInBase134221::OnAddInToolCommand, COMDAT
; _this$ = ecx

; 199  : 	virtual BOOL	OnAddInToolCommand(	long &p_lResult, const EAICommandType p_eCommandID)														{	return FALSE;	}

  00000	33 c0		 xor	 eax, eax
  00002	c2 08 00	 ret	 8
?OnAddInToolCommand@CChartAddInBase134221@@MAEHAAJW4EAICommandType@@@Z ENDP ; CChartAddInBase134221::OnAddInToolCommand
_TEXT	ENDS
; Function compile flags: /Ogtp
; File D:\git\src\IBK\IBK_DRFN\ProjSrc\SrcChartEx\ChartAddIn\ChartDataListViewerAddIn\Include_Addin_134221\I134221\_ChartAddInBase.h
;	COMDAT ?OnAddInToolCommand@CChartAddInBase134221@@MAEHW4EAICommandType@@JJJJJJJJJ@Z
_TEXT	SEGMENT
_p_eCommandID$ = 8					; size = 4
_p_lParam1$ = 12					; size = 4
_p_lParam2$ = 16					; size = 4
_p_lParam3$ = 20					; size = 4
_p_lParam4$ = 24					; size = 4
_p_lParam5$ = 28					; size = 4
_p_lParam6$ = 32					; size = 4
_p_lParam7$ = 36					; size = 4
_p_lParam8$ = 40					; size = 4
_p_lParam9$ = 44					; size = 4
?OnAddInToolCommand@CChartAddInBase134221@@MAEHW4EAICommandType@@JJJJJJJJJ@Z PROC ; CChartAddInBase134221::OnAddInToolCommand, COMDAT
; _this$ = ecx

; 198  : 	virtual BOOL	OnAddInToolCommand(	const EAICommandType p_eCommandID, const long p_lParam1, const long p_lParam2, const long p_lParam3, const long p_lParam4, const long p_lParam5, const long p_lParam6, const long p_lParam7, const long p_lParam8, const long p_lParam9)	{	return FALSE;	}

  00000	33 c0		 xor	 eax, eax
  00002	c2 28 00	 ret	 40			; 00000028H
?OnAddInToolCommand@CChartAddInBase134221@@MAEHW4EAICommandType@@JJJJJJJJJ@Z ENDP ; CChartAddInBase134221::OnAddInToolCommand
_TEXT	ENDS
; Function compile flags: /Ogtp
; File D:\git\src\IBK\IBK_DRFN\ProjSrc\SrcChartEx\ChartAddIn\ChartDataListViewerAddIn\Include_Addin_134221\I134221\_ChartAddInBase.h
;	COMDAT ?OnAddInToolCommand@CChartAddInBase134221@@MAEHW4EAICommandType@@JJ@Z
_TEXT	SEGMENT
_p_eCommandID$ = 8					; size = 4
_p_lParam1$ = 12					; size = 4
_p_lParam2$ = 16					; size = 4
?OnAddInToolCommand@CChartAddInBase134221@@MAEHW4EAICommandType@@JJ@Z PROC ; CChartAddInBase134221::OnAddInToolCommand, COMDAT
; _this$ = ecx

; 197  : 	virtual BOOL	OnAddInToolCommand(	const EAICommandType p_eCommandID, const long p_lParam1, const long p_lParam2)							{	return FALSE;	}

  00000	33 c0		 xor	 eax, eax
  00002	c2 0c 00	 ret	 12			; 0000000cH
?OnAddInToolCommand@CChartAddInBase134221@@MAEHW4EAICommandType@@JJ@Z ENDP ; CChartAddInBase134221::OnAddInToolCommand
_TEXT	ENDS
; Function compile flags: /Ogtp
; File D:\git\src\IBK\IBK_DRFN\ProjSrc\SrcChartEx\ChartAddIn\ChartDataListViewerAddIn\Include_Addin_134221\I134221\_ChartAddInBase.h
;	COMDAT ?OnAddInToolCommand@CChartAddInBase134221@@MAEHW4EAICommandType@@JPBD11@Z
_TEXT	SEGMENT
_p_eCommandID$ = 8					; size = 4
_p_lParam$ = 12						; size = 4
_p_szParam1$ = 16					; size = 4
_p_szParam2$ = 20					; size = 4
_p_szParam3$ = 24					; size = 4
?OnAddInToolCommand@CChartAddInBase134221@@MAEHW4EAICommandType@@JPBD11@Z PROC ; CChartAddInBase134221::OnAddInToolCommand, COMDAT
; _this$ = ecx

; 196  : 	virtual BOOL	OnAddInToolCommand( const EAICommandType p_eCommandID, const long p_lParam, const char *p_szParam1, const char *p_szParam2, const char *p_szParam3)	{	return FALSE;	}

  00000	33 c0		 xor	 eax, eax
  00002	c2 14 00	 ret	 20			; 00000014H
?OnAddInToolCommand@CChartAddInBase134221@@MAEHW4EAICommandType@@JPBD11@Z ENDP ; CChartAddInBase134221::OnAddInToolCommand
_TEXT	ENDS
; Function compile flags: /Ogtp
; File D:\git\src\IBK\IBK_DRFN\ProjSrc\SrcChartEx\ChartAddIn\ChartDataListViewerAddIn\Include_Addin_134221\I134221\_ChartAddInBase.h
;	COMDAT ?OnAddInToolCommand@CChartAddInBase134221@@MAEHW4EAICommandType@@JPBD@Z
_TEXT	SEGMENT
_p_eCommandID$ = 8					; size = 4
_p_lParam$ = 12						; size = 4
_p_szParam$ = 16					; size = 4
?OnAddInToolCommand@CChartAddInBase134221@@MAEHW4EAICommandType@@JPBD@Z PROC ; CChartAddInBase134221::OnAddInToolCommand, COMDAT
; _this$ = ecx

; 195  : 	virtual BOOL	OnAddInToolCommand( const EAICommandType p_eCommandID, const long p_lParam, const char *p_szParam)							{	return FALSE;	}

  00000	33 c0		 xor	 eax, eax
  00002	c2 0c 00	 ret	 12			; 0000000cH
?OnAddInToolCommand@CChartAddInBase134221@@MAEHW4EAICommandType@@JPBD@Z ENDP ; CChartAddInBase134221::OnAddInToolCommand
_TEXT	ENDS
; Function compile flags: /Ogtp
; File D:\git\src\IBK\IBK_DRFN\ProjSrc\SrcChartEx\ChartAddIn\ChartDataListViewerAddIn\Include_Addin_134221\I134221\_ChartAddInBase.h
;	COMDAT ?OnAddInToolCommand@CChartAddInBase134221@@MAEHW4EAICommandType@@J@Z
_TEXT	SEGMENT
_p_eCommandID$ = 8					; size = 4
_p_lParam$ = 12						; size = 4
?OnAddInToolCommand@CChartAddInBase134221@@MAEHW4EAICommandType@@J@Z PROC ; CChartAddInBase134221::OnAddInToolCommand, COMDAT
; _this$ = ecx

; 194  : 	virtual BOOL	OnAddInToolCommand(	const EAICommandType p_eCommandID, const long p_lParam)													{	return FALSE;	}

  00000	33 c0		 xor	 eax, eax
  00002	c2 08 00	 ret	 8
?OnAddInToolCommand@CChartAddInBase134221@@MAEHW4EAICommandType@@J@Z ENDP ; CChartAddInBase134221::OnAddInToolCommand
_TEXT	ENDS
; Function compile flags: /Ogtp
; File D:\git\src\IBK\IBK_DRFN\ProjSrc\SrcChartEx\ChartAddIn\ChartDataListViewerAddIn\Include_Addin_134221\I134221\_ChartAddInBase.h
;	COMDAT ?OnAddInToolCommand@CChartAddInBase134221@@MAEHW4EAICommandType@@PBUIAddInDllBase@@@Z
_TEXT	SEGMENT
_p_eCommandID$ = 8					; size = 4
_p_pParam$ = 12						; size = 4
?OnAddInToolCommand@CChartAddInBase134221@@MAEHW4EAICommandType@@PBUIAddInDllBase@@@Z PROC ; CChartAddInBase134221::OnAddInToolCommand, COMDAT
; _this$ = ecx

; 193  : 	virtual BOOL	OnAddInToolCommand(	const EAICommandType p_eCommandID, const IAddInDllBase *p_pParam)										{	return FALSE;	}

  00000	33 c0		 xor	 eax, eax
  00002	c2 08 00	 ret	 8
?OnAddInToolCommand@CChartAddInBase134221@@MAEHW4EAICommandType@@PBUIAddInDllBase@@@Z ENDP ; CChartAddInBase134221::OnAddInToolCommand
_TEXT	ENDS
; Function compile flags: /Ogtp
; File D:\git\src\IBK\IBK_DRFN\ProjSrc\SrcChartEx\ChartAddIn\ChartDataListViewerAddIn\Include_Addin_134221\I134221\_ChartAddInBase.h
;	COMDAT ?OnAddInToolCommand@CChartAddInBase134221@@MAEHW4EAICommandType@@PBDJ@Z
_TEXT	SEGMENT
_p_eCommandID$ = 8					; size = 4
_p_szParam$ = 12					; size = 4
_p_lParam$ = 16						; size = 4
?OnAddInToolCommand@CChartAddInBase134221@@MAEHW4EAICommandType@@PBDJ@Z PROC ; CChartAddInBase134221::OnAddInToolCommand, COMDAT
; _this$ = ecx

; 192  : 	virtual BOOL	OnAddInToolCommand( const EAICommandType p_eCommandID, const char *p_szParam, const long p_lParam)							{	return FALSE;	}

  00000	33 c0		 xor	 eax, eax
  00002	c2 0c 00	 ret	 12			; 0000000cH
?OnAddInToolCommand@CChartAddInBase134221@@MAEHW4EAICommandType@@PBDJ@Z ENDP ; CChartAddInBase134221::OnAddInToolCommand
_TEXT	ENDS
; Function compile flags: /Ogtp
; File D:\git\src\IBK\IBK_DRFN\ProjSrc\SrcChartEx\ChartAddIn\ChartDataListViewerAddIn\Include_Addin_134221\I134221\_ChartAddInBase.h
;	COMDAT ?OnAddInToolCommand@CChartAddInBase134221@@MAEHW4EAICommandType@@PBD1@Z
_TEXT	SEGMENT
_p_eCommandID$ = 8					; size = 4
_p_szParam1$ = 12					; size = 4
_p_szParam2$ = 16					; size = 4
?OnAddInToolCommand@CChartAddInBase134221@@MAEHW4EAICommandType@@PBD1@Z PROC ; CChartAddInBase134221::OnAddInToolCommand, COMDAT
; _this$ = ecx

; 191  : 	virtual BOOL	OnAddInToolCommand(	const EAICommandType p_eCommandID, const char *p_szParam1, const char *p_szParam2)						{	return FALSE;	}

  00000	33 c0		 xor	 eax, eax
  00002	c2 0c 00	 ret	 12			; 0000000cH
?OnAddInToolCommand@CChartAddInBase134221@@MAEHW4EAICommandType@@PBD1@Z ENDP ; CChartAddInBase134221::OnAddInToolCommand
_TEXT	ENDS
; Function compile flags: /Ogtp
; File D:\git\src\IBK\IBK_DRFN\ProjSrc\SrcChartEx\ChartAddIn\ChartDataListViewerAddIn\Include_Addin_134221\I134221\_ChartAddInBase.h
;	COMDAT ?OnAddInToolCommand@CChartAddInBase134221@@MAEHW4EAICommandType@@PBD@Z
_TEXT	SEGMENT
_p_eCommandID$ = 8					; size = 4
_p_szParam$ = 12					; size = 4
?OnAddInToolCommand@CChartAddInBase134221@@MAEHW4EAICommandType@@PBD@Z PROC ; CChartAddInBase134221::OnAddInToolCommand, COMDAT
; _this$ = ecx

; 190  : 	virtual BOOL	OnAddInToolCommand(	const EAICommandType p_eCommandID, const char *p_szParam)												{	return FALSE;	}

  00000	33 c0		 xor	 eax, eax
  00002	c2 08 00	 ret	 8
?OnAddInToolCommand@CChartAddInBase134221@@MAEHW4EAICommandType@@PBD@Z ENDP ; CChartAddInBase134221::OnAddInToolCommand
_TEXT	ENDS
; Function compile flags: /Ogtp
; File D:\git\src\IBK\IBK_DRFN\ProjSrc\SrcChartEx\ChartAddIn\ChartDataListViewerAddIn\Include_Addin_134221\I134221\_ChartAddInBase.h
;	COMDAT ?OnAddInToolCommand@CChartAddInBase134221@@MAEHW4EAICommandType@@PAUHDC__@@IAAUtagPOINT@@K@Z
_TEXT	SEGMENT
_p_eCommandID$ = 8					; size = 4
_p_hDC$ = 12						; size = 4
_nFlags$ = 16						; size = 4
_point$ = 20						; size = 4
_p_dwMouseActionID$ = 24				; size = 4
?OnAddInToolCommand@CChartAddInBase134221@@MAEHW4EAICommandType@@PAUHDC__@@IAAUtagPOINT@@K@Z PROC ; CChartAddInBase134221::OnAddInToolCommand, COMDAT
; _this$ = ecx

; 189  : 	virtual BOOL	OnAddInToolCommand(	const EAICommandType p_eCommandID, HDC p_hDC, UINT nFlags, POINT &point, const DWORD p_dwMouseActionID)	{	return FALSE;	}

  00000	33 c0		 xor	 eax, eax
  00002	c2 14 00	 ret	 20			; 00000014H
?OnAddInToolCommand@CChartAddInBase134221@@MAEHW4EAICommandType@@PAUHDC__@@IAAUtagPOINT@@K@Z ENDP ; CChartAddInBase134221::OnAddInToolCommand
_TEXT	ENDS
; Function compile flags: /Ogtp
; File D:\git\src\IBK\IBK_DRFN\ProjSrc\SrcChartEx\ChartAddIn\ChartDataListViewerAddIn\Include_Addin_134221\I134221\_ChartAddInBase.h
;	COMDAT ?OnAddInMsg@CChartAddInBase134221@@MAEHPBDJ@Z
_TEXT	SEGMENT
_p_szAddInItemName$ = 8					; size = 4
_p_lParam$ = 12						; size = 4
?OnAddInMsg@CChartAddInBase134221@@MAEHPBDJ@Z PROC	; CChartAddInBase134221::OnAddInMsg, COMDAT
; _this$ = ecx

; 187  : 	virtual BOOL	OnAddInMsg(			const char *p_szAddInItemName, const long p_lParam)														{	return FALSE;	}

  00000	33 c0		 xor	 eax, eax
  00002	c2 08 00	 ret	 8
?OnAddInMsg@CChartAddInBase134221@@MAEHPBDJ@Z ENDP	; CChartAddInBase134221::OnAddInMsg
_TEXT	ENDS
; Function compile flags: /Ogtp
; File D:\git\src\IBK\IBK_DRFN\ProjSrc\SrcChartEx\ChartAddIn\ChartDataListViewerAddIn\Include_Addin_134221\I134221\_ChartAddInBase.h
;	COMDAT ?OnPreIndexedRealData@CChartAddInBase134221@@MAEHPBDHAAN@Z
_TEXT	SEGMENT
_p_szPacketName$ = 8					; size = 4
_p_nIndex$ = 12						; size = 4
_p_dData$ = 16						; size = 4
?OnPreIndexedRealData@CChartAddInBase134221@@MAEHPBDHAAN@Z PROC ; CChartAddInBase134221::OnPreIndexedRealData, COMDAT
; _this$ = ecx

; 179  : 	virtual BOOL	OnPreIndexedRealData( const char *p_szPacketName, const int p_nIndex, double &p_dData)	{	return TRUE;	}

  00000	b8 01 00 00 00	 mov	 eax, 1
  00005	c2 0c 00	 ret	 12			; 0000000cH
?OnPreIndexedRealData@CChartAddInBase134221@@MAEHPBDHAAN@Z ENDP ; CChartAddInBase134221::OnPreIndexedRealData
_TEXT	ENDS
; Function compile flags: /Ogtp
; File D:\git\src\IBK\IBK_DRFN\ProjSrc\SrcChartEx\ChartAddIn\ChartDataListViewerAddIn\Include_Addin_134221\I134221\_ChartAddInBase.h
;	COMDAT ?OnRecalculationComplete@CChartAddInBase134221@@MAEXXZ
_TEXT	SEGMENT
?OnRecalculationComplete@CChartAddInBase134221@@MAEXXZ PROC ; CChartAddInBase134221::OnRecalculationComplete, COMDAT
; _this$ = ecx

; 174  : 	virtual void	OnRecalculationComplete( void)						{}

  00000	c2 00 00	 ret	 0
?OnRecalculationComplete@CChartAddInBase134221@@MAEXXZ ENDP ; CChartAddInBase134221::OnRecalculationComplete
_TEXT	ENDS
; Function compile flags: /Ogtp
; File D:\git\src\IBK\IBK_DRFN\ProjSrc\SrcChartEx\ChartAddIn\ChartDataListViewerAddIn\Include_Addin_134221\I134221\_ChartAddInBase.h
;	COMDAT ?DrawCursor@CChartAddInBase134221@@MAE?AUtagRECT@@PAUHDC__@@@Z
_TEXT	SEGMENT
___$ReturnUdt$ = 8					; size = 4
_p_hDC$ = 12						; size = 4
?DrawCursor@CChartAddInBase134221@@MAE?AUtagRECT@@PAUHDC__@@@Z PROC ; CChartAddInBase134221::DrawCursor, COMDAT
; _this$ = ecx

; 172  : 	virtual RECT	DrawCursor( HDC p_hDC)								{	RECT rct = { 0, 0, 0, 0};	return rct;		}

  00000	55		 push	 ebp
  00001	8b ec		 mov	 ebp, esp
  00003	8b 45 08	 mov	 eax, DWORD PTR ___$ReturnUdt$[ebp]
  00006	c7 00 00 00 00
	00		 mov	 DWORD PTR [eax], 0
  0000c	c7 40 04 00 00
	00 00		 mov	 DWORD PTR [eax+4], 0
  00013	c7 40 08 00 00
	00 00		 mov	 DWORD PTR [eax+8], 0
  0001a	c7 40 0c 00 00
	00 00		 mov	 DWORD PTR [eax+12], 0
  00021	5d		 pop	 ebp
  00022	c2 08 00	 ret	 8
?DrawCursor@CChartAddInBase134221@@MAE?AUtagRECT@@PAUHDC__@@@Z ENDP ; CChartAddInBase134221::DrawCursor
_TEXT	ENDS
; Function compile flags: /Ogtp
; File D:\git\src\IBK\IBK_DRFN\ProjSrc\SrcChartEx\ChartAddIn\ChartDataListViewerAddIn\Include_Addin_134221\I134221\_ChartAddInBase.h
;	COMDAT ?OnSaveEnvironment@CChartAddInBase134221@@MAEXPAUIPropertyMap@@@Z
_TEXT	SEGMENT
_p_pIAddInEnvMap$ = 8					; size = 4
?OnSaveEnvironment@CChartAddInBase134221@@MAEXPAUIPropertyMap@@@Z PROC ; CChartAddInBase134221::OnSaveEnvironment, COMDAT
; _this$ = ecx

; 170  : 	virtual void	OnSaveEnvironment( IPropertyMap *p_pIAddInEnvMap)	{}

  00000	c2 04 00	 ret	 4
?OnSaveEnvironment@CChartAddInBase134221@@MAEXPAUIPropertyMap@@@Z ENDP ; CChartAddInBase134221::OnSaveEnvironment
_TEXT	ENDS
; Function compile flags: /Ogtp
; File D:\git\src\IBK\IBK_DRFN\ProjSrc\SrcChartEx\ChartAddIn\ChartDataListViewerAddIn\Include_Addin_134221\I134221\_ChartAddInBase.h
;	COMDAT ?OnLoadEnvironment@CChartAddInBase134221@@MAEXPAUIPropertyMap@@@Z
_TEXT	SEGMENT
_p_pIAddInEnvMap$ = 8					; size = 4
?OnLoadEnvironment@CChartAddInBase134221@@MAEXPAUIPropertyMap@@@Z PROC ; CChartAddInBase134221::OnLoadEnvironment, COMDAT
; _this$ = ecx

; 169  : 	virtual void	OnLoadEnvironment( IPropertyMap *p_pIAddInEnvMap)	{}

  00000	c2 04 00	 ret	 4
?OnLoadEnvironment@CChartAddInBase134221@@MAEXPAUIPropertyMap@@@Z ENDP ; CChartAddInBase134221::OnLoadEnvironment
_TEXT	ENDS
; Function compile flags: /Ogtp
; File D:\git\src\IBK\IBK_DRFN\ProjSrc\SrcChartEx\ChartAddIn\ChartDataListViewerAddIn\Include_Addin_134221\I134221\_ChartAddInBase.h
;	COMDAT ?OnRealPacketEnd@CChartAddInBase134221@@MAEXPBD@Z
_TEXT	SEGMENT
_p_szRQ$ = 8						; size = 4
?OnRealPacketEnd@CChartAddInBase134221@@MAEXPBD@Z PROC	; CChartAddInBase134221::OnRealPacketEnd, COMDAT
; _this$ = ecx

; 167  : 	virtual void	OnRealPacketEnd( const char *p_szRQ)								{}

  00000	c2 04 00	 ret	 4
?OnRealPacketEnd@CChartAddInBase134221@@MAEXPBD@Z ENDP	; CChartAddInBase134221::OnRealPacketEnd
_TEXT	ENDS
; Function compile flags: /Ogtp
; File D:\git\src\IBK\IBK_DRFN\ProjSrc\SrcChartEx\ChartAddIn\ChartDataListViewerAddIn\Include_Addin_134221\I134221\_ChartAddInBase.h
;	COMDAT ?OnIndexedRealData@CChartAddInBase134221@@MAEXPBDHN@Z
_TEXT	SEGMENT
_p_szPacketName$ = 8					; size = 4
_p_nIndex$ = 12						; size = 4
_p_dData$ = 16						; size = 8
?OnIndexedRealData@CChartAddInBase134221@@MAEXPBDHN@Z PROC ; CChartAddInBase134221::OnIndexedRealData, COMDAT
; _this$ = ecx

; 165  : 	virtual void	OnIndexedRealData( const char *p_szPacketName, const int p_nIndex, double p_dData)		{}

  00000	c2 10 00	 ret	 16			; 00000010H
?OnIndexedRealData@CChartAddInBase134221@@MAEXPBDHN@Z ENDP ; CChartAddInBase134221::OnIndexedRealData
_TEXT	ENDS
; Function compile flags: /Ogtp
; File D:\git\src\IBK\IBK_DRFN\ProjSrc\SrcChartEx\ChartAddIn\ChartDataListViewerAddIn\Include_Addin_134221\I134221\_ChartAddInBase.h
;	COMDAT ?OnRealData@CChartAddInBase134221@@MAEXPBDN0@Z
_TEXT	SEGMENT
_p_szPacketName$ = 8					; size = 4
_p_dData$ = 12						; size = 8
_p_szRQ$ = 20						; size = 4
?OnRealData@CChartAddInBase134221@@MAEXPBDN0@Z PROC	; CChartAddInBase134221::OnRealData, COMDAT
; _this$ = ecx

; 164  : 	virtual void	OnRealData( const char *p_szPacketName, double p_dData, const char *p_szRQ)			{}

  00000	c2 10 00	 ret	 16			; 00000010H
?OnRealData@CChartAddInBase134221@@MAEXPBDN0@Z ENDP	; CChartAddInBase134221::OnRealData
_TEXT	ENDS
; Function compile flags: /Ogtp
; File D:\git\src\IBK\IBK_DRFN\ProjSrc\SrcChartEx\ChartAddIn\ChartDataListViewerAddIn\Include_Addin_134221\I134221\_ChartAddInBase.h
;	COMDAT ?OnBlockChanged@CChartAddInBase134221@@MAEXW4BLOCKBEHAVIOR@CBlockBaseData@@HHHH@Z
_TEXT	SEGMENT
_p_eChangeType$ = 8					; size = 4
_p_nSourceRow$ = 12					; size = 4
_p_nSourceColumn$ = 16					; size = 4
_p_nTargetRow$ = 20					; size = 4
_p_nTargetColumn$ = 24					; size = 4
?OnBlockChanged@CChartAddInBase134221@@MAEXW4BLOCKBEHAVIOR@CBlockBaseData@@HHHH@Z PROC ; CChartAddInBase134221::OnBlockChanged, COMDAT
; _this$ = ecx

; 160  : 	virtual void	OnBlockChanged( const CBlockBaseData::BLOCKBEHAVIOR p_eChangeType, const int p_nSourceRow, const int p_nSourceColumn, const int p_nTargetRow, const int p_nTargetColumn)	{}

  00000	c2 14 00	 ret	 20			; 00000014H
?OnBlockChanged@CChartAddInBase134221@@MAEXW4BLOCKBEHAVIOR@CBlockBaseData@@HHHH@Z ENDP ; CChartAddInBase134221::OnBlockChanged
_TEXT	ENDS
; Function compile flags: /Ogtp
; File D:\git\src\IBK\IBK_DRFN\ProjSrc\SrcChartEx\ChartAddIn\ChartDataListViewerAddIn\Include_Addin_134221\I134221\_ChartAddInBase.h
;	COMDAT ?OnPacketTruncated@CChartAddInBase134221@@MAEXH@Z
_TEXT	SEGMENT
_p_nDataCount$ = 8					; size = 4
?OnPacketTruncated@CChartAddInBase134221@@MAEXH@Z PROC	; CChartAddInBase134221::OnPacketTruncated, COMDAT
; _this$ = ecx

; 158  : 	virtual void	OnPacketTruncated( const int p_nDataCount)			{}

  00000	c2 04 00	 ret	 4
?OnPacketTruncated@CChartAddInBase134221@@MAEXH@Z ENDP	; CChartAddInBase134221::OnPacketTruncated
_TEXT	ENDS
; Function compile flags: /Ogtp
; File D:\git\src\IBK\IBK_DRFN\ProjSrc\SrcChartEx\ChartAddIn\ChartDataListViewerAddIn\Include_Addin_134221\I134221\_ChartAddInBase.h
;	COMDAT ?OnGraphDeleted@CChartAddInBase134221@@MAEXPBD0@Z
_TEXT	SEGMENT
_p_szGraphName$ = 8					; size = 4
_p_szIndicatorName$ = 12				; size = 4
?OnGraphDeleted@CChartAddInBase134221@@MAEXPBD0@Z PROC	; CChartAddInBase134221::OnGraphDeleted, COMDAT
; _this$ = ecx

; 156  : 	virtual void	OnGraphDeleted( const char *p_szGraphName, const char *p_szIndicatorName)			{}

  00000	c2 08 00	 ret	 8
?OnGraphDeleted@CChartAddInBase134221@@MAEXPBD0@Z ENDP	; CChartAddInBase134221::OnGraphDeleted
_TEXT	ENDS
; Function compile flags: /Ogtp
; File D:\git\src\IBK\IBK_DRFN\ProjSrc\SrcChartEx\ChartAddIn\ChartDataListViewerAddIn\Include_Addin_134221\I134221\_ChartAddInBase.h
;	COMDAT ?OnContextMenu@CChartAddInBase134221@@MAEXPAUHWND__@@AAUtagPOINT@@@Z
_TEXT	SEGMENT
_p_hWnd$ = 8						; size = 4
_p_pt$ = 12						; size = 4
?OnContextMenu@CChartAddInBase134221@@MAEXPAUHWND__@@AAUtagPOINT@@@Z PROC ; CChartAddInBase134221::OnContextMenu, COMDAT
; _this$ = ecx

; 154  : 	virtual void	OnContextMenu( HWND p_hWnd, POINT &p_pt)			{}

  00000	c2 08 00	 ret	 8
?OnContextMenu@CChartAddInBase134221@@MAEXPAUHWND__@@AAUtagPOINT@@@Z ENDP ; CChartAddInBase134221::OnContextMenu
_TEXT	ENDS
; Function compile flags: /Ogtp
; File D:\git\src\IBK\IBK_DRFN\ProjSrc\SrcChartEx\ChartAddIn\ChartDataListViewerAddIn\Include_Addin_134221\I134221\_ChartAddInBase.h
;	COMDAT ?OnManualRealData@CChartAddInBase134221@@MAEXPBDNH@Z
_TEXT	SEGMENT
_p_szPacketName$ = 8					; size = 4
_p_dData$ = 12						; size = 8
_p_nOption$ = 20					; size = 4
?OnManualRealData@CChartAddInBase134221@@MAEXPBDNH@Z PROC ; CChartAddInBase134221::OnManualRealData, COMDAT
; _this$ = ecx

; 152  : 	virtual void	OnManualRealData( const char *p_szPacketName, const double p_dData, const int p_nOption)	{}

  00000	c2 10 00	 ret	 16			; 00000010H
?OnManualRealData@CChartAddInBase134221@@MAEXPBDNH@Z ENDP ; CChartAddInBase134221::OnManualRealData
_TEXT	ENDS
; Function compile flags: /Ogtp
; File D:\git\src\IBK\IBK_DRFN\ProjSrc\SrcChartEx\ChartAddIn\ChartDataListViewerAddIn\Include_Addin_134221\I134221\_ChartAddInBase.h
;	COMDAT ?OnGraphAdded@CChartAddInBase134221@@MAEXPBD0@Z
_TEXT	SEGMENT
_p_szGraphName$ = 8					; size = 4
_p_szIndicatorName$ = 12				; size = 4
?OnGraphAdded@CChartAddInBase134221@@MAEXPBD0@Z PROC	; CChartAddInBase134221::OnGraphAdded, COMDAT
; _this$ = ecx

; 150  : 	virtual void	OnGraphAdded( const char *p_szGraphName, const char *p_szIndicatorName)			{}

  00000	c2 08 00	 ret	 8
?OnGraphAdded@CChartAddInBase134221@@MAEXPBD0@Z ENDP	; CChartAddInBase134221::OnGraphAdded
_TEXT	ENDS
; Function compile flags: /Ogtp
; File D:\git\src\IBK\IBK_DRFN\ProjSrc\SrcChartEx\ChartAddIn\ChartDataListViewerAddIn\Include_Addin_134221\I134221\_ChartAddInBase.h
;	COMDAT ?OnBlockRemoved@CChartAddInBase134221@@MAEXHH@Z
_TEXT	SEGMENT
_p_nRow$ = 8						; size = 4
_p_nColumn$ = 12					; size = 4
?OnBlockRemoved@CChartAddInBase134221@@MAEXHH@Z PROC	; CChartAddInBase134221::OnBlockRemoved, COMDAT
; _this$ = ecx

; 148  : 	virtual void	OnBlockRemoved( const int p_nRow, const int p_nColumn)	{}

  00000	c2 08 00	 ret	 8
?OnBlockRemoved@CChartAddInBase134221@@MAEXHH@Z ENDP	; CChartAddInBase134221::OnBlockRemoved
_TEXT	ENDS
; Function compile flags: /Ogtp
; File D:\git\src\IBK\IBK_DRFN\ProjSrc\SrcChartEx\ChartAddIn\ChartDataListViewerAddIn\Include_Addin_134221\I134221\_ChartAddInBase.h
;	COMDAT ?OnGraphDataChanged@CChartAddInBase134221@@MAEXXZ
_TEXT	SEGMENT
?OnGraphDataChanged@CChartAddInBase134221@@MAEXXZ PROC	; CChartAddInBase134221::OnGraphDataChanged, COMDAT
; _this$ = ecx

; 146  : 	virtual void	OnGraphDataChanged( void)							{}

  00000	c2 00 00	 ret	 0
?OnGraphDataChanged@CChartAddInBase134221@@MAEXXZ ENDP	; CChartAddInBase134221::OnGraphDataChanged
_TEXT	ENDS
; Function compile flags: /Ogtp
; File D:\git\src\IBK\IBK_DRFN\ProjSrc\SrcChartEx\ChartAddIn\ChartDataListViewerAddIn\Include_Addin_134221\I134221\_ChartAddInBase.h
;	COMDAT ?OnChartItemChanged@CChartAddInBase134221@@MAEXXZ
_TEXT	SEGMENT
?OnChartItemChanged@CChartAddInBase134221@@MAEXXZ PROC	; CChartAddInBase134221::OnChartItemChanged, COMDAT
; _this$ = ecx

; 144  : 	virtual void	OnChartItemChanged( void)							{}

  00000	c2 00 00	 ret	 0
?OnChartItemChanged@CChartAddInBase134221@@MAEXXZ ENDP	; CChartAddInBase134221::OnChartItemChanged
_TEXT	ENDS
; Function compile flags: /Ogtp
; File D:\git\src\IBK\IBK_DRFN\ProjSrc\SrcChartEx\ChartAddIn\ChartDataListViewerAddIn\Include_Addin_134221\I134221\_ChartAddInBase.h
;	COMDAT ?OnUserIndiatorConditionLoaded@CChartAddInBase134221@@MAEXXZ
_TEXT	SEGMENT
?OnUserIndiatorConditionLoaded@CChartAddInBase134221@@MAEXXZ PROC ; CChartAddInBase134221::OnUserIndiatorConditionLoaded, COMDAT
; _this$ = ecx

; 142  : 	virtual void	OnUserIndiatorConditionLoaded( void)				{}

  00000	c2 00 00	 ret	 0
?OnUserIndiatorConditionLoaded@CChartAddInBase134221@@MAEXXZ ENDP ; CChartAddInBase134221::OnUserIndiatorConditionLoaded
_TEXT	ENDS
; Function compile flags: /Ogtp
; File D:\git\src\IBK\IBK_DRFN\ProjSrc\SrcChartEx\ChartAddIn\ChartDataListViewerAddIn\Include_Addin_134221\I134221\_ChartAddInBase.h
;	COMDAT ?OnResetMainBlock@CChartAddInBase134221@@MAEXXZ
_TEXT	SEGMENT
?OnResetMainBlock@CChartAddInBase134221@@MAEXXZ PROC	; CChartAddInBase134221::OnResetMainBlock, COMDAT
; _this$ = ecx

; 140  : 	virtual void	OnResetMainBlock( void)								{}

  00000	c2 00 00	 ret	 0
?OnResetMainBlock@CChartAddInBase134221@@MAEXXZ ENDP	; CChartAddInBase134221::OnResetMainBlock
_TEXT	ENDS
; Function compile flags: /Ogtp
; File D:\git\src\IBK\IBK_DRFN\ProjSrc\SrcChartEx\ChartAddIn\ChartDataListViewerAddIn\Include_Addin_134221\I134221\_ChartAddInBase.h
;	COMDAT ?OnCaptureChanged@CChartAddInBase134221@@MAEXPAUHWND__@@QAUHBITMAP__@@@Z
_TEXT	SEGMENT
_p_hWnd$ = 8						; size = 4
_p_hbmpMainOSB$ = 12					; size = 4
?OnCaptureChanged@CChartAddInBase134221@@MAEXPAUHWND__@@QAUHBITMAP__@@@Z PROC ; CChartAddInBase134221::OnCaptureChanged, COMDAT
; _this$ = ecx

; 138  : 	virtual void	OnCaptureChanged( HWND p_hWnd, const HBITMAP p_hbmpMainOSB)	{}	// (2006/11/5 - Seung-Won, Bae) Support MainOSB

  00000	c2 08 00	 ret	 8
?OnCaptureChanged@CChartAddInBase134221@@MAEXPAUHWND__@@QAUHBITMAP__@@@Z ENDP ; CChartAddInBase134221::OnCaptureChanged
_TEXT	ENDS
; Function compile flags: /Ogtp
; File D:\git\src\IBK\IBK_DRFN\ProjSrc\SrcChartEx\ChartAddIn\ChartDataListViewerAddIn\Include_Addin_134221\I134221\_ChartAddInBase.h
;	COMDAT ?OnTimer@CChartAddInBase134221@@MAEXI@Z
_TEXT	SEGMENT
_p_uTimerID$ = 8					; size = 4
?OnTimer@CChartAddInBase134221@@MAEXI@Z PROC		; CChartAddInBase134221::OnTimer, COMDAT
; _this$ = ecx

; 133  : 	virtual void	OnTimer( UINT p_uTimerID)	{}

  00000	c2 04 00	 ret	 4
?OnTimer@CChartAddInBase134221@@MAEXI@Z ENDP		; CChartAddInBase134221::OnTimer
_TEXT	ENDS
; Function compile flags: /Ogtp
; File D:\git\src\IBK\IBK_DRFN\ProjSrc\SrcChartEx\ChartAddIn\ChartDataListViewerAddIn\Include_Addin_134221\I134221\_ChartAddInBase.h
;	COMDAT ?OnDrawAfterGraph@CChartAddInBase134221@@MAEXPAUHDC__@@@Z
_TEXT	SEGMENT
_p_hDC$ = 8						; size = 4
?OnDrawAfterGraph@CChartAddInBase134221@@MAEXPAUHDC__@@@Z PROC ; CChartAddInBase134221::OnDrawAfterGraph, COMDAT
; _this$ = ecx

; 129  : 	virtual void	OnDrawAfterGraph( HDC p_hDC)	{}

  00000	c2 04 00	 ret	 4
?OnDrawAfterGraph@CChartAddInBase134221@@MAEXPAUHDC__@@@Z ENDP ; CChartAddInBase134221::OnDrawAfterGraph
_TEXT	ENDS
; Function compile flags: /Ogtp
; File D:\git\src\IBK\IBK_DRFN\ProjSrc\SrcChartEx\ChartAddIn\ChartDataListViewerAddIn\Include_Addin_134221\I134221\_ChartAddInBase.h
;	COMDAT ?OnDrawBeforeGraph@CChartAddInBase134221@@MAEXPAUHDC__@@@Z
_TEXT	SEGMENT
_p_hDC$ = 8						; size = 4
?OnDrawBeforeGraph@CChartAddInBase134221@@MAEXPAUHDC__@@@Z PROC ; CChartAddInBase134221::OnDrawBeforeGraph, COMDAT
; _this$ = ecx

; 127  : 	virtual void	OnDrawBeforeGraph( HDC p_hDC)	{}

  00000	c2 04 00	 ret	 4
?OnDrawBeforeGraph@CChartAddInBase134221@@MAEXPAUHDC__@@@Z ENDP ; CChartAddInBase134221::OnDrawBeforeGraph
_TEXT	ENDS
; Function compile flags: /Ogtp
; File D:\git\src\IBK\IBK_DRFN\ProjSrc\SrcChartEx\ChartAddIn\ChartDataListViewerAddIn\Include_Addin_134221\I134221\_ChartAddInBase.h
;	COMDAT ?OnResetChart@CChartAddInBase134221@@MAEXXZ
_TEXT	SEGMENT
?OnResetChart@CChartAddInBase134221@@MAEXXZ PROC	; CChartAddInBase134221::OnResetChart, COMDAT
; _this$ = ecx

; 125  : 	virtual void	OnResetChart( void)	{}

  00000	c2 00 00	 ret	 0
?OnResetChart@CChartAddInBase134221@@MAEXXZ ENDP	; CChartAddInBase134221::OnResetChart
_TEXT	ENDS
; Function compile flags: /Ogtp
; File D:\git\src\IBK\IBK_DRFN\ProjSrc\SrcChartEx\ChartAddIn\ChartDataListViewerAddIn\Include_Addin_134221\I134221\_ChartAddInBase.h
;	COMDAT ?OnLSharedDataChange@CChartAddInBase134221@@MAEXPBD0@Z
_TEXT	SEGMENT
_p_szLShareKey$ = 8					; size = 4
_p_szLShareValue$ = 12					; size = 4
?OnLSharedDataChange@CChartAddInBase134221@@MAEXPBD0@Z PROC ; CChartAddInBase134221::OnLSharedDataChange, COMDAT
; _this$ = ecx

; 123  : 	virtual void	OnLSharedDataChange( const char *p_szLShareKey, const char *p_szLShareValue)	{}

  00000	c2 08 00	 ret	 8
?OnLSharedDataChange@CChartAddInBase134221@@MAEXPBD0@Z ENDP ; CChartAddInBase134221::OnLSharedDataChange
_TEXT	ENDS
; Function compile flags: /Ogtp
; File D:\git\src\IBK\IBK_DRFN\ProjSrc\SrcChartEx\ChartAddIn\ChartDataListViewerAddIn\Include_Addin_134221\I134221\_ChartAddInBase.h
;	COMDAT ?OnGSharedDataChange@CChartAddInBase134221@@MAEXPBD0H@Z
_TEXT	SEGMENT
_p_szGShareKey$ = 8					; size = 4
_p_szGShareValue$ = 12					; size = 4
_p_bStartShare$ = 16					; size = 4
?OnGSharedDataChange@CChartAddInBase134221@@MAEXPBD0H@Z PROC ; CChartAddInBase134221::OnGSharedDataChange, COMDAT
; _this$ = ecx

; 121  : 	virtual void	OnGSharedDataChange( const char *p_szGShareKey, const char *p_szGShareValue, BOOL p_bStartShare)	{}

  00000	c2 0c 00	 ret	 12			; 0000000cH
?OnGSharedDataChange@CChartAddInBase134221@@MAEXPBD0H@Z ENDP ; CChartAddInBase134221::OnGSharedDataChange
_TEXT	ENDS
; Function compile flags: /Ogtp
; File D:\git\src\IBK\IBK_DRFN\ProjSrc\SrcChartEx\ChartAddIn\ChartDataListViewerAddIn\Include_Addin_134221\I134221\_ChartAddInBase.h
;	COMDAT ?OnOcxDestroyWindow@CChartAddInBase134221@@MAEXXZ
_TEXT	SEGMENT
?OnOcxDestroyWindow@CChartAddInBase134221@@MAEXXZ PROC	; CChartAddInBase134221::OnOcxDestroyWindow, COMDAT
; _this$ = ecx

; 111  : 	virtual void	OnOcxDestroyWindow( void)							{	m_bOcxDestroyed = TRUE;	}

  00000	c7 41 34 01 00
	00 00		 mov	 DWORD PTR [ecx+52], 1
  00007	c3		 ret	 0
?OnOcxDestroyWindow@CChartAddInBase134221@@MAEXXZ ENDP	; CChartAddInBase134221::OnOcxDestroyWindow
_TEXT	ENDS
; Function compile flags: /Ogtp
; File D:\git\src\IBK\IBK_DRFN\ProjSrc\SrcChartEx\ChartAddIn\ChartDataListViewerAddIn\Include_Addin_134221\I134221\_ChartAddInBase.h
;	COMDAT ?InvokeAddInStr@CChartAddInBase134221@@MAEHPBD0@Z
_TEXT	SEGMENT
_p_szCommandName$ = 8					; size = 4
_p_szData$ = 12						; size = 4
?InvokeAddInStr@CChartAddInBase134221@@MAEHPBD0@Z PROC	; CChartAddInBase134221::InvokeAddInStr, COMDAT
; _this$ = ecx

; 96   : 	virtual BOOL	InvokeAddInStr( LPCTSTR p_szCommandName, LPCTSTR p_szData)	{	return FALSE;	}	// (2005/9/2 - Seung-Won, Bae) for String Data

  00000	33 c0		 xor	 eax, eax
  00002	c2 08 00	 ret	 8
?InvokeAddInStr@CChartAddInBase134221@@MAEHPBD0@Z ENDP	; CChartAddInBase134221::InvokeAddInStr
_TEXT	ENDS
; Function compile flags: /Ogtp
; File D:\git\src\IBK\IBK_DRFN\ProjSrc\SrcChartEx\ChartAddIn\ChartDataListViewerAddIn\Include_Addin_134221\I134221\_ChartAddInBase.h
;	COMDAT ?InvokeAddIn@CChartAddInBase134221@@MAEHHJ@Z
_TEXT	SEGMENT
_p_nCommandType$ = 8					; size = 4
_p_lData$ = 12						; size = 4
?InvokeAddIn@CChartAddInBase134221@@MAEHHJ@Z PROC	; CChartAddInBase134221::InvokeAddIn, COMDAT
; _this$ = ecx

; 95   : 	virtual BOOL	InvokeAddIn( int p_nCommandType, long p_lData)	{	return FALSE;	}

  00000	33 c0		 xor	 eax, eax
  00002	c2 08 00	 ret	 8
?InvokeAddIn@CChartAddInBase134221@@MAEHHJ@Z ENDP	; CChartAddInBase134221::InvokeAddIn
_TEXT	ENDS
; Function compile flags: /Ogtp
; File D:\git\src\IBK\IBK_DRFN\ProjSrc\SrcChartEx\ChartAddIn\ChartDataListViewerAddIn\Include_Addin_134221\I134221\_ChartAddInBase.h
;	COMDAT ?GetAddInCustomInterface@CChartAddInBase134221@@MAEPAUIUnknown@@XZ
_TEXT	SEGMENT
?GetAddInCustomInterface@CChartAddInBase134221@@MAEPAUIUnknown@@XZ PROC ; CChartAddInBase134221::GetAddInCustomInterface, COMDAT
; _this$ = ecx

; 91   : 	virtual IUnknown *	GetAddInCustomInterface( void)				{	return NULL;	}

  00000	33 c0		 xor	 eax, eax
  00002	c3		 ret	 0
?GetAddInCustomInterface@CChartAddInBase134221@@MAEPAUIUnknown@@XZ ENDP ; CChartAddInBase134221::GetAddInCustomInterface
_TEXT	ENDS
; Function compile flags: /Ogtp
; File D:\git\src\IBK\IBK_DRFN\ProjSrc\SrcChartEx\ChartAddIn\ChartDataListViewerAddIn\Include_Addin_134221\I134221\_ChartAddInBase.h
;	COMDAT ?QueryInterface@CChartAddInBase134221@@MAGJABU_GUID@@PAPAX@Z
_TEXT	SEGMENT
_this$ = 8						; size = 4
_iid$ = 12						; size = 4
_ppvObject$ = 16					; size = 4
?QueryInterface@CChartAddInBase134221@@MAGJABU_GUID@@PAPAX@Z PROC ; CChartAddInBase134221::QueryInterface, COMDAT

; 54   : 	_IWRAPPER_IUNKNOWN_INTERFACE()

  00000	b8 02 40 00 80	 mov	 eax, -2147467262	; 80004002H
  00005	c2 0c 00	 ret	 12			; 0000000cH
?QueryInterface@CChartAddInBase134221@@MAGJABU_GUID@@PAPAX@Z ENDP ; CChartAddInBase134221::QueryInterface
_TEXT	ENDS
; Function compile flags: /Ogtp
; File D:\git\src\IBK\IBK_DRFN\ProjSrc\SrcChartEx\ChartAddIn\ChartDataListViewerAddIn\Include_Addin_134221\I134221\_ChartAddInBase.h
;	COMDAT ?Release@CChartAddInBase134221@@MAGKXZ
_TEXT	SEGMENT
_this$ = 8						; size = 4
?Release@CChartAddInBase134221@@MAGKXZ PROC		; CChartAddInBase134221::Release, COMDAT

; 54   : 	_IWRAPPER_IUNKNOWN_INTERFACE()

  00000	55		 push	 ebp
  00001	8b ec		 mov	 ebp, esp
  00003	5d		 pop	 ebp
  00004	e9 00 00 00 00	 jmp	 ?Release@CIWUnknown@@MAGKXZ ; CIWUnknown::Release
?Release@CChartAddInBase134221@@MAGKXZ ENDP		; CChartAddInBase134221::Release
_TEXT	ENDS
; Function compile flags: /Ogtp
; File D:\git\src\IBK\IBK_DRFN\ProjSrc\SrcChartEx\ChartAddIn\ChartDataListViewerAddIn\Include_Addin_134221\I134221\_ChartAddInBase.h
;	COMDAT ?AddRef@CChartAddInBase134221@@MAGKXZ
_TEXT	SEGMENT
_this$ = 8						; size = 4
?AddRef@CChartAddInBase134221@@MAGKXZ PROC		; CChartAddInBase134221::AddRef, COMDAT

; 54   : 	_IWRAPPER_IUNKNOWN_INTERFACE()

  00000	55		 push	 ebp
  00001	8b ec		 mov	 ebp, esp
  00003	5d		 pop	 ebp
  00004	e9 00 00 00 00	 jmp	 ?AddRef@CIWUnknown@@MAGKXZ ; CIWUnknown::AddRef
?AddRef@CChartAddInBase134221@@MAGKXZ ENDP		; CChartAddInBase134221::AddRef
_TEXT	ENDS
; Function compile flags: /Ogtp
; File D:\git\src\IBK\IBK_DRFN\ProjSrc\SrcChartEx\ChartAddIn\ChartDataListViewerAddIn\Include_Addin_134221\_IWUnknown.h
;	COMDAT ?PreDestruct@CIWUnknown@@MAEXXZ
_TEXT	SEGMENT
?PreDestruct@CIWUnknown@@MAEXXZ PROC			; CIWUnknown::PreDestruct, COMDAT
; _this$ = ecx

; 48   : 	virtual void	PreDestruct( void)		{}

  00000	c2 00 00	 ret	 0
?PreDestruct@CIWUnknown@@MAEXXZ ENDP			; CIWUnknown::PreDestruct
_TEXT	ENDS
; Function compile flags: /Ogtp
; File D:\git\src\IBK\IBK_DRFN\ProjSrc\SrcChartEx\ChartAddIn\ChartDataListViewerAddIn\Include_Addin_134221\_IWUnknown.h
;	COMDAT ?PreDestructX@CIWUnknown@@MAEXXZ
_TEXT	SEGMENT
?PreDestructX@CIWUnknown@@MAEXXZ PROC			; CIWUnknown::PreDestructX, COMDAT
; _this$ = ecx

; 47   : 	virtual void	PreDestructX( void)		{}

  00000	c2 00 00	 ret	 0
?PreDestructX@CIWUnknown@@MAEXXZ ENDP			; CIWUnknown::PreDestructX
_TEXT	ENDS
; Function compile flags: /Ogtp
; File D:\git\src\IBK\IBK_DRFN\ProjSrc\SrcChartEx\ChartAddIn\ChartDataListViewerAddIn\Include_Addin_134221\_IWUnknown.h
;	COMDAT ?PostConstruct@CIWUnknown@@MAEXXZ
_TEXT	SEGMENT
?PostConstruct@CIWUnknown@@MAEXXZ PROC			; CIWUnknown::PostConstruct, COMDAT
; _this$ = ecx

; 46   : 	virtual void	PostConstruct( void)	{}

  00000	c2 00 00	 ret	 0
?PostConstruct@CIWUnknown@@MAEXXZ ENDP			; CIWUnknown::PostConstruct
_TEXT	ENDS
; Function compile flags: /Ogtp
; File C:\Program Files (x86)\Microsoft Visual Studio\2019\Community\VC\Tools\MSVC\14.29.30133\atlmfc\include\cstringt.h
; File C:\Program Files (x86)\Microsoft Visual Studio\2019\Community\VC\Tools\MSVC\14.29.30133\atlmfc\include\atlsimpstr.h
; File C:\Program Files (x86)\Microsoft Visual Studio\2019\Community\VC\Tools\MSVC\14.29.30133\atlmfc\include\cstringt.h
; File C:\Program Files (x86)\Microsoft Visual Studio\2019\Community\VC\Tools\MSVC\14.29.30133\atlmfc\include\atlsimpstr.h
; File C:\Program Files (x86)\Microsoft Visual Studio\2019\Community\VC\Tools\MSVC\14.29.30133\atlmfc\include\cstringt.h
;	COMDAT ??HATL@@YA?AV?$CStringT@DV?$StrTraitMFC_DLL@DV?$ChTraitsCRT@D@ATL@@@@@0@ABV10@0@Z
_TEXT	SEGMENT
$T2 = -16						; size = 4
__$EHRec$ = -12						; size = 12
___$ReturnUdt$ = 8					; size = 4
_str1$ = 12						; size = 4
_str2$ = 16						; size = 4
??HATL@@YA?AV?$CStringT@DV?$StrTraitMFC_DLL@DV?$ChTraitsCRT@D@ATL@@@@@0@ABV10@0@Z PROC ; ATL::operator+, COMDAT

; 2389 : 	{

  00000	55		 push	 ebp
  00001	8b ec		 mov	 ebp, esp
  00003	6a ff		 push	 -1
  00005	68 00 00 00 00	 push	 __ehhandler$??HATL@@YA?AV?$CStringT@DV?$StrTraitMFC_DLL@DV?$ChTraitsCRT@D@ATL@@@@@0@ABV10@0@Z
  0000a	64 a1 00 00 00
	00		 mov	 eax, DWORD PTR fs:0
  00010	50		 push	 eax
  00011	51		 push	 ecx
  00012	56		 push	 esi
  00013	57		 push	 edi
  00014	a1 00 00 00 00	 mov	 eax, DWORD PTR ___security_cookie
  00019	33 c5		 xor	 eax, ebp
  0001b	50		 push	 eax
  0001c	8d 45 f4	 lea	 eax, DWORD PTR __$EHRec$[ebp]
  0001f	64 a3 00 00 00
	00		 mov	 DWORD PTR fs:0, eax

; 2390 : 		CStringT strResult( str1.GetManager() );

  00025	8b 75 0c	 mov	 esi, DWORD PTR _str1$[ebp]
  00028	8b ce		 mov	 ecx, esi
  0002a	c7 45 f0 00 00
	00 00		 mov	 DWORD PTR $T2[ebp], 0
  00031	ff 15 00 00 00
	00		 call	 DWORD PTR __imp_?GetManager@?$CStringT@DV?$StrTraitMFC_DLL@DV?$ChTraitsCRT@D@ATL@@@@@ATL@@QBEPAUIAtlStringMgr@2@XZ
  00037	8b 7d 08	 mov	 edi, DWORD PTR ___$ReturnUdt$[ebp]
  0003a	8b cf		 mov	 ecx, edi
  0003c	50		 push	 eax
  0003d	ff 15 00 00 00
	00		 call	 DWORD PTR __imp_??0?$CStringT@DV?$StrTraitMFC_DLL@DV?$ChTraitsCRT@D@ATL@@@@@ATL@@QAE@PAUIAtlStringMgr@1@@Z
; File C:\Program Files (x86)\Microsoft Visual Studio\2019\Community\VC\Tools\MSVC\14.29.30133\atlmfc\include\atlsimpstr.h

; 519  : 		return( GetData()->nDataLength );

  00043	8b 45 10	 mov	 eax, DWORD PTR _str2$[ebp]
  00046	8b 16		 mov	 edx, DWORD PTR [esi]
; File C:\Program Files (x86)\Microsoft Visual Studio\2019\Community\VC\Tools\MSVC\14.29.30133\atlmfc\include\cstringt.h

; 2394 : 		return( strResult );

  00048	c7 45 fc 00 00
	00 00		 mov	 DWORD PTR __$EHRec$[ebp+8], 0
  0004f	c7 45 f0 01 00
	00 00		 mov	 DWORD PTR $T2[ebp], 1
; File C:\Program Files (x86)\Microsoft Visual Studio\2019\Community\VC\Tools\MSVC\14.29.30133\atlmfc\include\atlsimpstr.h

; 519  : 		return( GetData()->nDataLength );

  00056	8b 08		 mov	 ecx, DWORD PTR [eax]
; File C:\Program Files (x86)\Microsoft Visual Studio\2019\Community\VC\Tools\MSVC\14.29.30133\atlmfc\include\cstringt.h

; 2392 : 		CThisSimpleString::Concatenate( strResult, str1, str1.GetLength(), str2, str2.GetLength() );

  00058	ff 71 f4	 push	 DWORD PTR [ecx-12]
  0005b	51		 push	 ecx
  0005c	ff 72 f4	 push	 DWORD PTR [edx-12]
  0005f	52		 push	 edx
  00060	57		 push	 edi
  00061	ff 15 00 00 00
	00		 call	 DWORD PTR __imp_?Concatenate@?$CSimpleStringT@D$00@ATL@@KAXAAV12@PBDH1H@Z
  00067	83 c4 14	 add	 esp, 20			; 00000014H

; 2394 : 		return( strResult );

  0006a	8b c7		 mov	 eax, edi

; 2395 : 	}

  0006c	8b 4d f4	 mov	 ecx, DWORD PTR __$EHRec$[ebp]
  0006f	64 89 0d 00 00
	00 00		 mov	 DWORD PTR fs:0, ecx
  00076	59		 pop	 ecx
  00077	5f		 pop	 edi
  00078	5e		 pop	 esi
  00079	8b e5		 mov	 esp, ebp
  0007b	5d		 pop	 ebp
  0007c	c3		 ret	 0
_TEXT	ENDS
;	COMDAT text$x
text$x	SEGMENT
__unwindfunclet$??HATL@@YA?AV?$CStringT@DV?$StrTraitMFC_DLL@DV?$ChTraitsCRT@D@ATL@@@@@0@ABV10@0@Z$0:
  00000	8b 45 f0	 mov	 eax, DWORD PTR $T2[ebp]
  00003	83 e0 01	 and	 eax, 1
  00006	0f 84 0d 00 00
	00		 je	 $LN4@operator
  0000c	83 65 f0 fe	 and	 DWORD PTR $T2[ebp], -2	; fffffffeH
  00010	8b 4d 08	 mov	 ecx, DWORD PTR ___$ReturnUdt$[ebp]
  00013	ff 25 00 00 00
	00		 jmp	 DWORD PTR __imp_??1?$CStringT@DV?$StrTraitMFC_DLL@DV?$ChTraitsCRT@D@ATL@@@@@ATL@@QAE@XZ
$LN4@operator:
  00019	c3		 ret	 0
  0001a	cc		 int	 3
  0001b	cc		 int	 3
  0001c	cc		 int	 3
  0001d	cc		 int	 3
  0001e	cc		 int	 3
__ehhandler$??HATL@@YA?AV?$CStringT@DV?$StrTraitMFC_DLL@DV?$ChTraitsCRT@D@ATL@@@@@0@ABV10@0@Z:
  0001f	90		 npad	 1
  00020	90		 npad	 1
  00021	8b 54 24 08	 mov	 edx, DWORD PTR [esp+8]
  00025	8d 42 0c	 lea	 eax, DWORD PTR [edx+12]
  00028	8b 4a f0	 mov	 ecx, DWORD PTR [edx-16]
  0002b	33 c8		 xor	 ecx, eax
  0002d	e8 00 00 00 00	 call	 @__security_check_cookie@4
  00032	b8 00 00 00 00	 mov	 eax, OFFSET __ehfuncinfo$??HATL@@YA?AV?$CStringT@DV?$StrTraitMFC_DLL@DV?$ChTraitsCRT@D@ATL@@@@@0@ABV10@0@Z
  00037	e9 00 00 00 00	 jmp	 ___CxxFrameHandler3
text$x	ENDS
??HATL@@YA?AV?$CStringT@DV?$StrTraitMFC_DLL@DV?$ChTraitsCRT@D@ATL@@@@@0@ABV10@0@Z ENDP ; ATL::operator+
; Function compile flags: /Ogtp
; File C:\Program Files (x86)\Microsoft Visual Studio\2019\Community\VC\Tools\MSVC\14.29.30133\atlmfc\include\afx.inl
;	COMDAT ?Dump@CObject@@UBEXAAVCDumpContext@@@Z
_TEXT	SEGMENT
___formal$ = 8						; size = 4
?Dump@CObject@@UBEXAAVCDumpContext@@@Z PROC		; CObject::Dump, COMDAT
; _this$ = ecx

; 122  : 	{ /* no dumping in release builds */ }

  00000	c2 04 00	 ret	 4
?Dump@CObject@@UBEXAAVCDumpContext@@@Z ENDP		; CObject::Dump
_TEXT	ENDS
; Function compile flags: /Ogtp
; File C:\Program Files (x86)\Microsoft Visual Studio\2019\Community\VC\Tools\MSVC\14.29.30133\atlmfc\include\afx.inl
;	COMDAT ?AssertValid@CObject@@UBEXXZ
_TEXT	SEGMENT
?AssertValid@CObject@@UBEXXZ PROC			; CObject::AssertValid, COMDAT
; _this$ = ecx

; 120  : 	{ /* no asserts in release builds */ }

  00000	c2 00 00	 ret	 0
?AssertValid@CObject@@UBEXXZ ENDP			; CObject::AssertValid
_TEXT	ENDS
; Function compile flags: /Ogtp
; File C:\Program Files (x86)\Microsoft Visual Studio\2019\Community\VC\Tools\MSVC\14.29.30133\atlmfc\include\afx.inl
;	COMDAT ?Serialize@CObject@@UAEXAAVCArchive@@@Z
_TEXT	SEGMENT
___formal$ = 8						; size = 4
?Serialize@CObject@@UAEXAAVCArchive@@@Z PROC		; CObject::Serialize, COMDAT
; _this$ = ecx

; 106  : 	{ /* CObject does not serialize anything by default */ }

  00000	c2 04 00	 ret	 4
?Serialize@CObject@@UAEXAAVCArchive@@@Z ENDP		; CObject::Serialize
_TEXT	ENDS
; Function compile flags: /Ogtp
; File C:\Program Files (x86)\Microsoft Visual Studio\2019\Community\VC\Tools\MSVC\14.29.30133\atlmfc\include\afx.inl
;	COMDAT ??1CObject@@UAE@XZ
_TEXT	SEGMENT
??1CObject@@UAE@XZ PROC					; CObject::~CObject, COMDAT
; _this$ = ecx

; 104  : 	{ }

  00000	c2 00 00	 ret	 0
??1CObject@@UAE@XZ ENDP					; CObject::~CObject
_TEXT	ENDS
; Function compile flags: /Ogtp
; File C:\Program Files (x86)\Microsoft Visual Studio\2019\Community\VC\Tools\MSVC\14.29.30133\atlmfc\include\afx.h
;	COMDAT ?AfxCrtErrorCheck@@YAHH@Z
_TEXT	SEGMENT
_error$ = 8						; size = 4
?AfxCrtErrorCheck@@YAHH@Z PROC				; AfxCrtErrorCheck, COMDAT

; 503  : {

  00000	55		 push	 ebp
  00001	8b ec		 mov	 ebp, esp

; 504  : 	switch(error)

  00003	8b 4d 08	 mov	 ecx, DWORD PTR _error$[ebp]
  00006	83 f9 50	 cmp	 ecx, 80			; 00000050H
  00009	77 17		 ja	 SHORT $LN9@AfxCrtErro
  0000b	0f b6 81 00 00
	00 00		 movzx	 eax, BYTE PTR $LN11@AfxCrtErro[ecx]
  00012	ff 24 85 00 00
	00 00		 jmp	 DWORD PTR $LN12@AfxCrtErro[eax*4]
$LN4@AfxCrtErro:

; 505  : 	{
; 506  : 	case ENOMEM:
; 507  : 		AfxThrowMemoryException();

  00019	e9 00 00 00 00	 jmp	 ?AfxThrowMemoryException@@YGXXZ ; AfxThrowMemoryException
$LN7@AfxCrtErro:

; 518  : 		break;
; 519  : 	}
; 520  : 	return error;

  0001e	8b c1		 mov	 eax, ecx

; 521  : }

  00020	5d		 pop	 ebp
  00021	c3		 ret	 0
$LN9@AfxCrtErro:

; 508  : 		break;
; 509  : 	case EINVAL:
; 510  : 	case ERANGE:
; 511  : 		AfxThrowInvalidArgException();
; 512  : 		break;
; 513  : 	case STRUNCATE:
; 514  : 	case 0:
; 515  : 		break;
; 516  : 	default:
; 517  : 		AfxThrowInvalidArgException();

  00022	e9 00 00 00 00	 jmp	 ?AfxThrowInvalidArgException@@YGXXZ ; AfxThrowInvalidArgException
  00027	90		 npad	 1
$LN12@AfxCrtErro:

; 521  : }

  00028	00 00 00 00	 DD	 $LN7@AfxCrtErro
  0002c	00 00 00 00	 DD	 $LN4@AfxCrtErro
  00030	00 00 00 00	 DD	 $LN9@AfxCrtErro
  00034	00 00 00 00	 DD	 $LN9@AfxCrtErro
$LN11@AfxCrtErro:
  00038	00		 DB	 0
  00039	03		 DB	 3
  0003a	03		 DB	 3
  0003b	03		 DB	 3
  0003c	03		 DB	 3
  0003d	03		 DB	 3
  0003e	03		 DB	 3
  0003f	03		 DB	 3
  00040	03		 DB	 3
  00041	03		 DB	 3
  00042	03		 DB	 3
  00043	03		 DB	 3
  00044	01		 DB	 1
  00045	03		 DB	 3
  00046	03		 DB	 3
  00047	03		 DB	 3
  00048	03		 DB	 3
  00049	03		 DB	 3
  0004a	03		 DB	 3
  0004b	03		 DB	 3
  0004c	03		 DB	 3
  0004d	03		 DB	 3
  0004e	02		 DB	 2
  0004f	03		 DB	 3
  00050	03		 DB	 3
  00051	03		 DB	 3
  00052	03		 DB	 3
  00053	03		 DB	 3
  00054	03		 DB	 3
  00055	03		 DB	 3
  00056	03		 DB	 3
  00057	03		 DB	 3
  00058	03		 DB	 3
  00059	03		 DB	 3
  0005a	02		 DB	 2
  0005b	03		 DB	 3
  0005c	03		 DB	 3
  0005d	03		 DB	 3
  0005e	03		 DB	 3
  0005f	03		 DB	 3
  00060	03		 DB	 3
  00061	03		 DB	 3
  00062	03		 DB	 3
  00063	03		 DB	 3
  00064	03		 DB	 3
  00065	03		 DB	 3
  00066	03		 DB	 3
  00067	03		 DB	 3
  00068	03		 DB	 3
  00069	03		 DB	 3
  0006a	03		 DB	 3
  0006b	03		 DB	 3
  0006c	03		 DB	 3
  0006d	03		 DB	 3
  0006e	03		 DB	 3
  0006f	03		 DB	 3
  00070	03		 DB	 3
  00071	03		 DB	 3
  00072	03		 DB	 3
  00073	03		 DB	 3
  00074	03		 DB	 3
  00075	03		 DB	 3
  00076	03		 DB	 3
  00077	03		 DB	 3
  00078	03		 DB	 3
  00079	03		 DB	 3
  0007a	03		 DB	 3
  0007b	03		 DB	 3
  0007c	03		 DB	 3
  0007d	03		 DB	 3
  0007e	03		 DB	 3
  0007f	03		 DB	 3
  00080	03		 DB	 3
  00081	03		 DB	 3
  00082	03		 DB	 3
  00083	03		 DB	 3
  00084	03		 DB	 3
  00085	03		 DB	 3
  00086	03		 DB	 3
  00087	03		 DB	 3
  00088	00		 DB	 0
?AfxCrtErrorCheck@@YAHH@Z ENDP				; AfxCrtErrorCheck
_TEXT	ENDS
; Function compile flags: /Ogtp
; File D:\git\src\IBK\IBK_DRFN\ProjSrc\SrcChartEx\ChartAddIn\ChartDataListViewerAddIn\ChartDataListViewerAddIn\ChartDataSimulatorAddInImp.cpp
;	COMDAT ?__empty_global_delete@@YAXPAXI@Z
_TEXT	SEGMENT
___formal$ = 8						; size = 4
___formal$ = 12						; size = 4
?__empty_global_delete@@YAXPAXI@Z PROC			; __empty_global_delete, COMDAT

  00000	c2 00 00	 ret	 0
?__empty_global_delete@@YAXPAXI@Z ENDP			; __empty_global_delete
_TEXT	ENDS
; Function compile flags: /Ogtp
; File D:\git\src\IBK\IBK_DRFN\ProjSrc\SrcChartEx\ChartAddIn\ChartDataListViewerAddIn\ChartDataListViewerAddIn\ChartDataSimulatorAddInImp.cpp
;	COMDAT ?__empty_global_delete@@YAXPAX@Z
_TEXT	SEGMENT
___formal$ = 8						; size = 4
?__empty_global_delete@@YAXPAX@Z PROC			; __empty_global_delete, COMDAT

  00000	c2 00 00	 ret	 0
?__empty_global_delete@@YAXPAX@Z ENDP			; __empty_global_delete
_TEXT	ENDS
; Function compile flags: /Ogtp
;	COMDAT ??_H@YGXPAXIIP6EPAX0@Z@Z
_TEXT	SEGMENT
___t$ = 8						; size = 4
___s$ = 12						; size = 4
___n$ = 16						; size = 4
___f$ = 20						; size = 4
??_H@YGXPAXIIP6EPAX0@Z@Z PROC				; `vector constructor iterator', COMDAT
  00000	55		 push	 ebp
  00001	8b ec		 mov	 ebp, esp
  00003	56		 push	 esi
  00004	8b 75 10	 mov	 esi, DWORD PTR ___n$[ebp]
  00007	85 f6		 test	 esi, esi
  00009	74 16		 je	 SHORT $LN6@vector
  0000b	53		 push	 ebx
  0000c	8b 5d 14	 mov	 ebx, DWORD PTR ___f$[ebp]
  0000f	57		 push	 edi
  00010	8b 7d 08	 mov	 edi, DWORD PTR ___t$[ebp]
$LL2@vector:
  00013	8b cf		 mov	 ecx, edi
  00015	ff d3		 call	 ebx
  00017	03 7d 0c	 add	 edi, DWORD PTR ___s$[ebp]
  0001a	83 ee 01	 sub	 esi, 1
  0001d	75 f4		 jne	 SHORT $LL2@vector
  0001f	5f		 pop	 edi
  00020	5b		 pop	 ebx
$LN6@vector:
  00021	5e		 pop	 esi
  00022	5d		 pop	 ebp
  00023	c2 10 00	 ret	 16			; 00000010H
??_H@YGXPAXIIP6EPAX0@Z@Z ENDP				; `vector constructor iterator'
_TEXT	ENDS
END
