; Listing generated by Microsoft (R) Optimizing Compiler Version 19.29.30145.0 

	TITLE	D:\git\src\IBK\IBK_DRFN\#DRfn-CS\_Obj\ChartDataListViewerAddIn\ChartExcelDataImportAddInImp.obj
	.686P
	.XMM
	include listing.inc
	.model	flat

INCLUDELIB MSVCRT
INCLUDELIB OLDNAMES

PUBLIC	??_C@_0N@MBBJNJHC@EXCEL_IMPORT@			; `string'
PUBLIC	?m_eRegisteredEventMap@CChartExcelDataImportAddInImp@@1QBW4EAddInEventType@IChartAddIn134221@@B ; CChartExcelDataImportAddInImp::m_eRegisteredEventMap
CONST	SEGMENT
?_Fake_alloc@std@@3U_Fake_allocator@1@B	ORG $+1		; std::_Fake_alloc
	ORG $+7
?m_eRegisteredEventMap@CChartExcelDataImportAddInImp@@1QBW4EAddInEventType@IChartAddIn134221@@B DD 02fH ; CChartExcelDataImportAddInImp::m_eRegisteredEventMap
	DD	037H
	DD	013H
	DD	03bH
	ORG $+224
CONST	ENDS
;	COMDAT ??_C@_0N@MBBJNJHC@EXCEL_IMPORT@
CONST	SEGMENT
??_C@_0N@MBBJNJHC@EXCEL_IMPORT@ DB 'EXCEL_IMPORT', 00H	; `string'
CONST	ENDS
PUBLIC	?__empty_global_delete@@YAXPAX@Z		; __empty_global_delete
PUBLIC	?__empty_global_delete@@YAXPAXI@Z		; __empty_global_delete
PUBLIC	?Serialize@CObject@@UAEXAAVCArchive@@@Z		; CObject::Serialize
PUBLIC	?AssertValid@CObject@@UBEXXZ			; CObject::AssertValid
PUBLIC	?Dump@CObject@@UBEXAAVCDumpContext@@@Z		; CObject::Dump
PUBLIC	?_AfxInitManaged@@YAHXZ				; _AfxInitManaged
PUBLIC	?PostConstruct@CIWUnknown@@MAEXXZ		; CIWUnknown::PostConstruct
PUBLIC	?PreDestructX@CIWUnknown@@MAEXXZ		; CIWUnknown::PreDestructX
PUBLIC	?PreDestruct@CIWUnknown@@MAEXXZ			; CIWUnknown::PreDestruct
PUBLIC	?AddRef@CChartAddInBase134221@@MAGKXZ		; CChartAddInBase134221::AddRef
PUBLIC	?Release@CChartAddInBase134221@@MAGKXZ		; CChartAddInBase134221::Release
PUBLIC	?QueryInterface@CChartAddInBase134221@@MAGJABU_GUID@@PAPAX@Z ; CChartAddInBase134221::QueryInterface
PUBLIC	?GetAddInCustomInterface@CChartAddInBase134221@@MAEPAUIUnknown@@XZ ; CChartAddInBase134221::GetAddInCustomInterface
PUBLIC	?InvokeAddInStr@CChartAddInBase134221@@MAEHPBD0@Z ; CChartAddInBase134221::InvokeAddInStr
PUBLIC	?OnOcxDestroyWindow@CChartAddInBase134221@@MAEXXZ ; CChartAddInBase134221::OnOcxDestroyWindow
PUBLIC	?OnGSharedDataChange@CChartAddInBase134221@@MAEXPBD0H@Z ; CChartAddInBase134221::OnGSharedDataChange
PUBLIC	?OnLSharedDataChange@CChartAddInBase134221@@MAEXPBD0@Z ; CChartAddInBase134221::OnLSharedDataChange
PUBLIC	?OnResetChart@CChartAddInBase134221@@MAEXXZ	; CChartAddInBase134221::OnResetChart
PUBLIC	?OnDrawBeforeGraph@CChartAddInBase134221@@MAEXPAUHDC__@@@Z ; CChartAddInBase134221::OnDrawBeforeGraph
PUBLIC	?OnDrawAfterGraph@CChartAddInBase134221@@MAEXPAUHDC__@@@Z ; CChartAddInBase134221::OnDrawAfterGraph
PUBLIC	?OnTimer@CChartAddInBase134221@@MAEXI@Z		; CChartAddInBase134221::OnTimer
PUBLIC	?OnCaptureChanged@CChartAddInBase134221@@MAEXPAUHWND__@@QAUHBITMAP__@@@Z ; CChartAddInBase134221::OnCaptureChanged
PUBLIC	?OnResetMainBlock@CChartAddInBase134221@@MAEXXZ	; CChartAddInBase134221::OnResetMainBlock
PUBLIC	?OnUserIndiatorConditionLoaded@CChartAddInBase134221@@MAEXXZ ; CChartAddInBase134221::OnUserIndiatorConditionLoaded
PUBLIC	?OnChartItemChanged@CChartAddInBase134221@@MAEXXZ ; CChartAddInBase134221::OnChartItemChanged
PUBLIC	?OnGraphDataChanged@CChartAddInBase134221@@MAEXXZ ; CChartAddInBase134221::OnGraphDataChanged
PUBLIC	?OnBlockRemoved@CChartAddInBase134221@@MAEXHH@Z	; CChartAddInBase134221::OnBlockRemoved
PUBLIC	?OnGraphAdded@CChartAddInBase134221@@MAEXPBD0@Z	; CChartAddInBase134221::OnGraphAdded
PUBLIC	?OnManualRealData@CChartAddInBase134221@@MAEXPBDNH@Z ; CChartAddInBase134221::OnManualRealData
PUBLIC	?OnContextMenu@CChartAddInBase134221@@MAEXPAUHWND__@@AAUtagPOINT@@@Z ; CChartAddInBase134221::OnContextMenu
PUBLIC	?OnGraphDeleted@CChartAddInBase134221@@MAEXPBD0@Z ; CChartAddInBase134221::OnGraphDeleted
PUBLIC	?OnPacketTruncated@CChartAddInBase134221@@MAEXH@Z ; CChartAddInBase134221::OnPacketTruncated
PUBLIC	?OnBlockChanged@CChartAddInBase134221@@MAEXW4BLOCKBEHAVIOR@CBlockBaseData@@HHHH@Z ; CChartAddInBase134221::OnBlockChanged
PUBLIC	?OnRealData@CChartAddInBase134221@@MAEXPBDN0@Z	; CChartAddInBase134221::OnRealData
PUBLIC	?OnIndexedRealData@CChartAddInBase134221@@MAEXPBDHN@Z ; CChartAddInBase134221::OnIndexedRealData
PUBLIC	?OnRealPacketEnd@CChartAddInBase134221@@MAEXPBD@Z ; CChartAddInBase134221::OnRealPacketEnd
PUBLIC	?OnLoadEnvironment@CChartAddInBase134221@@MAEXPAUIPropertyMap@@@Z ; CChartAddInBase134221::OnLoadEnvironment
PUBLIC	?OnSaveEnvironment@CChartAddInBase134221@@MAEXPAUIPropertyMap@@@Z ; CChartAddInBase134221::OnSaveEnvironment
PUBLIC	?DrawCursor@CChartAddInBase134221@@MAE?AUtagRECT@@PAUHDC__@@@Z ; CChartAddInBase134221::DrawCursor
PUBLIC	?OnRecalculationComplete@CChartAddInBase134221@@MAEXXZ ; CChartAddInBase134221::OnRecalculationComplete
PUBLIC	?OnPreRealData@CChartAddInBase134221@@MAEHPBDAAN0@Z ; CChartAddInBase134221::OnPreRealData
PUBLIC	?OnPreIndexedRealData@CChartAddInBase134221@@MAEHPBDHAAN@Z ; CChartAddInBase134221::OnPreIndexedRealData
PUBLIC	?OnPreRealPacketEnd@CChartAddInBase134221@@MAEHPBD@Z ; CChartAddInBase134221::OnPreRealPacketEnd
PUBLIC	?OnAddInMsg@CChartAddInBase134221@@MAEHPBDJ@Z	; CChartAddInBase134221::OnAddInMsg
PUBLIC	?OnAddInToolCommand@CChartAddInBase134221@@MAEHW4EAICommandType@@@Z ; CChartAddInBase134221::OnAddInToolCommand
PUBLIC	?OnAddInToolCommand@CChartAddInBase134221@@MAEHW4EAICommandType@@PAUHDC__@@IAAUtagPOINT@@K@Z ; CChartAddInBase134221::OnAddInToolCommand
PUBLIC	?OnAddInToolCommand@CChartAddInBase134221@@MAEHW4EAICommandType@@PBD@Z ; CChartAddInBase134221::OnAddInToolCommand
PUBLIC	?OnAddInToolCommand@CChartAddInBase134221@@MAEHW4EAICommandType@@PBD1@Z ; CChartAddInBase134221::OnAddInToolCommand
PUBLIC	?OnAddInToolCommand@CChartAddInBase134221@@MAEHW4EAICommandType@@PBDJ@Z ; CChartAddInBase134221::OnAddInToolCommand
PUBLIC	?OnAddInToolCommand@CChartAddInBase134221@@MAEHW4EAICommandType@@PBUIAddInDllBase@@@Z ; CChartAddInBase134221::OnAddInToolCommand
PUBLIC	?OnAddInToolCommand@CChartAddInBase134221@@MAEHW4EAICommandType@@J@Z ; CChartAddInBase134221::OnAddInToolCommand
PUBLIC	?OnAddInToolCommand@CChartAddInBase134221@@MAEHW4EAICommandType@@JPBD@Z ; CChartAddInBase134221::OnAddInToolCommand
PUBLIC	?OnAddInToolCommand@CChartAddInBase134221@@MAEHW4EAICommandType@@JPBD11@Z ; CChartAddInBase134221::OnAddInToolCommand
PUBLIC	?OnAddInToolCommand@CChartAddInBase134221@@MAEHW4EAICommandType@@JJ@Z ; CChartAddInBase134221::OnAddInToolCommand
PUBLIC	?OnAddInToolCommand@CChartAddInBase134221@@MAEHW4EAICommandType@@JJJJJJJJJ@Z ; CChartAddInBase134221::OnAddInToolCommand
PUBLIC	?OnAddInToolCommand@CChartAddInBase134221@@MAEHAAJW4EAICommandType@@@Z ; CChartAddInBase134221::OnAddInToolCommand
PUBLIC	?OnAddInToolCommand@CChartAddInBase134221@@MAEHAAJW4EAICommandType@@PAUIGraphInfo134221@@@Z ; CChartAddInBase134221::OnAddInToolCommand
PUBLIC	?OnAddInToolCommand@CChartAddInBase134221@@MAEHAAJW4EAICommandType@@PBD@Z ; CChartAddInBase134221::OnAddInToolCommand
PUBLIC	?OnAddInToolCommand@CChartAddInBase134221@@MAEHAAJW4EAICommandType@@PBDPAVCObject@@@Z ; CChartAddInBase134221::OnAddInToolCommand
PUBLIC	?OnAddInToolCommand@CChartAddInBase134221@@MAEHAAJW4EAICommandType@@J@Z ; CChartAddInBase134221::OnAddInToolCommand
PUBLIC	?OnAddInToolCommand@CChartAddInBase134221@@MAEHAAJW4EAICommandType@@JJ@Z ; CChartAddInBase134221::OnAddInToolCommand
PUBLIC	?OnKeyDown@CChartAddInBase134221@@MAEHIII@Z	; CChartAddInBase134221::OnKeyDown
PUBLIC	?OnKeyUp@CChartAddInBase134221@@MAEHIII@Z	; CChartAddInBase134221::OnKeyUp
PUBLIC	?OnMouseWheel@CChartAddInBase134221@@MAEHIFUtagPOINT@@K@Z ; CChartAddInBase134221::OnMouseWheel
PUBLIC	?OnMouseMove@CChartAddInBase134221@@MAEHPAUHDC__@@IAAUtagPOINT@@KQAUHBITMAP__@@@Z ; CChartAddInBase134221::OnMouseMove
PUBLIC	?OnLButtonDown@CChartAddInBase134221@@MAEHPAUHDC__@@IAAUtagPOINT@@K@Z ; CChartAddInBase134221::OnLButtonDown
PUBLIC	?OnLButtonUp@CChartAddInBase134221@@MAEHPAUHDC__@@IAAUtagPOINT@@K@Z ; CChartAddInBase134221::OnLButtonUp
PUBLIC	?OnLButtonDblClk@CChartAddInBase134221@@MAEHPAUHDC__@@IAAUtagPOINT@@K@Z ; CChartAddInBase134221::OnLButtonDblClk
PUBLIC	?OnRButtonDown@CChartAddInBase134221@@MAEHPAUHDC__@@IAAUtagPOINT@@K@Z ; CChartAddInBase134221::OnRButtonDown
PUBLIC	?OnRButtonUp@CChartAddInBase134221@@MAEHPAUHDC__@@IAAUtagPOINT@@K@Z ; CChartAddInBase134221::OnRButtonUp
PUBLIC	?OnRButtonDblClk@CChartAddInBase134221@@MAEHPAUHDC__@@IAAUtagPOINT@@K@Z ; CChartAddInBase134221::OnRButtonDblClk
PUBLIC	??1ILPCSTR134221@@QAE@XZ			; ILPCSTR134221::~ILPCSTR134221
PUBLIC	??0CChartExcelDataImportAddInImp@@QAE@PAUIChartOCX134221@@PAUIAddInDllBase@@@Z ; CChartExcelDataImportAddInImp::CChartExcelDataImportAddInImp
PUBLIC	??1CChartExcelDataImportAddInImp@@UAE@XZ	; CChartExcelDataImportAddInImp::~CChartExcelDataImportAddInImp
PUBLIC	?GetRegisteredEventMap@CChartExcelDataImportAddInImp@@MBEPBW4EAddInEventType@IChartAddIn134221@@XZ ; CChartExcelDataImportAddInImp::GetRegisteredEventMap
PUBLIC	?LoadExcel@CChartExcelDataImportAddInImp@@QAEHXZ ; CChartExcelDataImportAddInImp::LoadExcel
PUBLIC	?InvokeAddIn@CChartExcelDataImportAddInImp@@MAEHHJ@Z ; CChartExcelDataImportAddInImp::InvokeAddIn
PUBLIC	?OnToolCommand@CChartExcelDataImportAddInImp@@MAEXHH@Z ; CChartExcelDataImportAddInImp::OnToolCommand
PUBLIC	?OnPacketDataMultiItem@CChartExcelDataImportAddInImp@@MAEXPBD0H@Z ; CChartExcelDataImportAddInImp::OnPacketDataMultiItem
PUBLIC	?OnCmdMsg@CChartExcelDataImportAddInImp@@MAEHIHPAUICmdUI134221@@@Z ; CChartExcelDataImportAddInImp::OnCmdMsg
PUBLIC	??_GCChartExcelDataImportAddInImp@@UAEPAXI@Z	; CChartExcelDataImportAddInImp::`scalar deleting destructor'
PUBLIC	?_Maklocwcs@std@@YAPA_WPB_W@Z			; std::_Maklocwcs
PUBLIC	??$_Getvals@_W@?$time_get@DV?$istreambuf_iterator@DU?$char_traits@D@std@@@std@@@std@@IAEX_WABV_Locinfo@1@@Z ; std::time_get<char,std::istreambuf_iterator<char,std::char_traits<char> > >::_Getvals<wchar_t>
PUBLIC	??$_Getvals@_W@?$time_get@_WV?$istreambuf_iterator@_WU?$char_traits@_W@std@@@std@@@std@@IAEX_WABV_Locinfo@1@@Z ; std::time_get<wchar_t,std::istreambuf_iterator<wchar_t,std::char_traits<wchar_t> > >::_Getvals<wchar_t>
PUBLIC	??$_Maklocstr@D@std@@YAPADPBDPADABU_Cvtvec@@@Z	; std::_Maklocstr<char>
PUBLIC	?QueryInterface@CChartAddInBase134221@@O7AGJABU_GUID@@PAPAX@Z ; [thunk]:CChartAddInBase134221::QueryInterface`adjustor{8}'
PUBLIC	?AddRef@CChartAddInBase134221@@O7AGKXZ		; [thunk]:CChartAddInBase134221::AddRef`adjustor{8}'
PUBLIC	?Release@CChartAddInBase134221@@O7AGKXZ		; [thunk]:CChartAddInBase134221::Release`adjustor{8}'
PUBLIC	??_ECChartExcelDataImportAddInImp@@W7AEPAXI@Z	; [thunk]:CChartExcelDataImportAddInImp::`vector deleting destructor'
PUBLIC	??_C@_00CNPNBAHC@@				; `string'
PUBLIC	??_R0?AVCObject@@@8				; CObject `RTTI Type Descriptor'
PUBLIC	??_R3CObject@@8					; CObject::`RTTI Class Hierarchy Descriptor'
PUBLIC	??_R2CObject@@8					; CObject::`RTTI Base Class Array'
PUBLIC	??_R1A@?0A@EA@CObject@@8			; CObject::`RTTI Base Class Descriptor at (0,-1,0,64)'
PUBLIC	??_R0?AUIUnknown@@@8				; IUnknown `RTTI Type Descriptor'
PUBLIC	??_R3IUnknown@@8				; IUnknown::`RTTI Class Hierarchy Descriptor'
PUBLIC	??_R2IUnknown@@8				; IUnknown::`RTTI Base Class Array'
PUBLIC	??_R1A@?0A@EA@IUnknown@@8			; IUnknown::`RTTI Base Class Descriptor at (0,-1,0,64)'
PUBLIC	?m_strAddInItemName@CChartExcelDataImportAddInImp@@2V?$CStringT@DV?$StrTraitMFC_DLL@DV?$ChTraitsCRT@D@ATL@@@@@ATL@@A ; CChartExcelDataImportAddInImp::m_strAddInItemName
PUBLIC	??_7CChartExcelDataImportAddInImp@@6BCIWUnknown@@@ ; CChartExcelDataImportAddInImp::`vftable'
PUBLIC	??_7CChartExcelDataImportAddInImp@@6BIChartAddIn134221@@@ ; CChartExcelDataImportAddInImp::`vftable'
PUBLIC	??_C@_05HNKPHJGL@?$CK?4xls@			; `string'
PUBLIC	??_C@_01EOFPKCAF@?$EA@				; `string'
PUBLIC	??_C@_01NEMOKFLO@?$DN@				; `string'
PUBLIC	??_C@_08DKDJLCMP@YYYYMMDD@			; `string'
PUBLIC	??_C@_06NFMEGGNP@YYMMDD@			; `string'
PUBLIC	??_C@_06EBMMBHJD@YYYYMM@			; `string'
PUBLIC	??_C@_04IHEOMKKL@YYMM@				; `string'
PUBLIC	??_C@_04BDEGLLOH@MMDD@				; `string'
PUBLIC	??_C@_1BK@MHIKGOKE@?$AA?3?$AAA?$AAM?$AA?3?$AAa?$AAm?$AA?3?$AAP?$AAM?$AA?3?$AAp?$AAm@ ; `string'
PUBLIC	??_R0?AUIChartAddIn134221@@@8			; IChartAddIn134221 `RTTI Type Descriptor'
PUBLIC	??_R3IChartAddIn134221@@8			; IChartAddIn134221::`RTTI Class Hierarchy Descriptor'
PUBLIC	??_R2IChartAddIn134221@@8			; IChartAddIn134221::`RTTI Base Class Array'
PUBLIC	??_R1A@?0A@EA@IChartAddIn134221@@8		; IChartAddIn134221::`RTTI Base Class Descriptor at (0,-1,0,64)'
PUBLIC	??_R4CChartExcelDataImportAddInImp@@6BCIWUnknown@@@ ; CChartExcelDataImportAddInImp::`RTTI Complete Object Locator'
PUBLIC	??_R0?AVCChartExcelDataImportAddInImp@@@8	; CChartExcelDataImportAddInImp `RTTI Type Descriptor'
PUBLIC	??_R3CChartExcelDataImportAddInImp@@8		; CChartExcelDataImportAddInImp::`RTTI Class Hierarchy Descriptor'
PUBLIC	??_R2CChartExcelDataImportAddInImp@@8		; CChartExcelDataImportAddInImp::`RTTI Base Class Array'
PUBLIC	??_R1A@?0A@EA@CChartExcelDataImportAddInImp@@8	; CChartExcelDataImportAddInImp::`RTTI Base Class Descriptor at (0,-1,0,64)'
PUBLIC	??_R1A@?0A@EA@CChartAddInBase134221@@8		; CChartAddInBase134221::`RTTI Base Class Descriptor at (0,-1,0,64)'
PUBLIC	??_R0?AVCChartAddInBase134221@@@8		; CChartAddInBase134221 `RTTI Type Descriptor'
PUBLIC	??_R3CChartAddInBase134221@@8			; CChartAddInBase134221::`RTTI Class Hierarchy Descriptor'
PUBLIC	??_R2CChartAddInBase134221@@8			; CChartAddInBase134221::`RTTI Base Class Array'
PUBLIC	??_R1A@?0A@EA@CIWUnknown@@8			; CIWUnknown::`RTTI Base Class Descriptor at (0,-1,0,64)'
PUBLIC	??_R0?AVCIWUnknown@@@8				; CIWUnknown `RTTI Type Descriptor'
PUBLIC	??_R3CIWUnknown@@8				; CIWUnknown::`RTTI Class Hierarchy Descriptor'
PUBLIC	??_R2CIWUnknown@@8				; CIWUnknown::`RTTI Base Class Array'
PUBLIC	??_R17?0A@EA@IChartAddIn134221@@8		; IChartAddIn134221::`RTTI Base Class Descriptor at (8,-1,0,64)'
PUBLIC	??_R17?0A@EA@IUnknown@@8			; IUnknown::`RTTI Base Class Descriptor at (8,-1,0,64)'
PUBLIC	??_R4CChartExcelDataImportAddInImp@@6BIChartAddIn134221@@@ ; CChartExcelDataImportAddInImp::`RTTI Complete Object Locator'
EXTRN	??3@YAXPAX@Z:PROC				; operator delete
EXTRN	?__global_delete@@YAXPAXI@Z:PROC		; __global_delete
EXTRN	??_U@YAPAXI@Z:PROC				; operator new[]
EXTRN	??_V@YAXPAX@Z:PROC				; operator delete[]
EXTRN	_atexit:PROC
EXTRN	___std_terminate:PROC
EXTRN	__imp__calloc:PROC
EXTRN	__imp__atof:PROC
EXTRN	?GetRuntimeClass@CObject@@UBEPAUCRuntimeClass@@XZ:PROC ; CObject::GetRuntimeClass
EXTRN	__imp_?Concatenate@?$CSimpleStringT@D$00@ATL@@KAXAAV12@PBDH1H@Z:PROC
EXTRN	__imp_??0?$CStringT@DV?$StrTraitMFC_DLL@DV?$ChTraitsCRT@D@ATL@@@@@ATL@@QAE@XZ:PROC
EXTRN	__imp_??0?$CStringT@DV?$StrTraitMFC_DLL@DV?$ChTraitsCRT@D@ATL@@@@@ATL@@QAE@PAUIAtlStringMgr@1@@Z:PROC
EXTRN	__imp_??0?$CStringT@DV?$StrTraitMFC_DLL@DV?$ChTraitsCRT@D@ATL@@@@@ATL@@QAE@ABV01@@Z:PROC
EXTRN	__imp_??0?$CStringT@DV?$StrTraitMFC_DLL@DV?$ChTraitsCRT@D@ATL@@@@@ATL@@QAE@PBD@Z:PROC
EXTRN	__imp_??1?$CStringT@DV?$StrTraitMFC_DLL@DV?$ChTraitsCRT@D@ATL@@@@@ATL@@QAE@XZ:PROC
EXTRN	__imp_??4?$CStringT@DV?$StrTraitMFC_DLL@DV?$ChTraitsCRT@D@ATL@@@@@ATL@@QAEAAV01@PBD@Z:PROC
EXTRN	__imp_??4?$CStringT@DV?$StrTraitMFC_DLL@DV?$ChTraitsCRT@D@ATL@@@@@ATL@@QAEAAV01@PB_W@Z:PROC
EXTRN	__imp_?GetManager@?$CStringT@DV?$StrTraitMFC_DLL@DV?$ChTraitsCRT@D@ATL@@@@@ATL@@QBEPAUIAtlStringMgr@2@XZ:PROC
EXTRN	__imp_?Compare@?$CStringT@DV?$StrTraitMFC_DLL@DV?$ChTraitsCRT@D@ATL@@@@@ATL@@QBEHPBD@Z:PROC
EXTRN	__imp_?Insert@?$CStringT@DV?$StrTraitMFC_DLL@DV?$ChTraitsCRT@D@ATL@@@@@ATL@@QAEHHPBD@Z:PROC
EXTRN	__imp_?Find@?$CStringT@DV?$StrTraitMFC_DLL@DV?$ChTraitsCRT@D@ATL@@@@@ATL@@QBEHPBDH@Z:PROC
EXTRN	__imp_?LoadStringA@?$CStringT@DV?$StrTraitMFC_DLL@DV?$ChTraitsCRT@D@ATL@@@@@ATL@@QAEHI@Z:PROC
EXTRN	?AfxGetStaticModuleState@@YGPAVAFX_MODULE_STATE@@XZ:PROC ; AfxGetStaticModuleState
EXTRN	??0AFX_MAINTAIN_STATE2@@QAE@PAVAFX_MODULE_STATE@@@Z:PROC ; AFX_MAINTAIN_STATE2::AFX_MAINTAIN_STATE2
EXTRN	??1AFX_MAINTAIN_STATE2@@QAE@XZ:PROC		; AFX_MAINTAIN_STATE2::~AFX_MAINTAIN_STATE2
EXTRN	?AfxMessageBox@@YGHPBDII@Z:PROC			; AfxMessageBox
EXTRN	??0CFileDialog@@QAE@HPBD0K0PAVCWnd@@KH@Z:PROC	; CFileDialog::CFileDialog
EXTRN	??1CFileDialog@@UAE@XZ:PROC			; CFileDialog::~CFileDialog
EXTRN	?DoModal@CFileDialog@@UAEHXZ:PROC		; CFileDialog::DoModal
EXTRN	?GetPathName@CFileDialog@@QBE?AV?$CStringT@DV?$StrTraitMFC_DLL@DV?$ChTraitsCRT@D@ATL@@@@@ATL@@XZ:PROC ; CFileDialog::GetPathName
EXTRN	?AddRef@CIWUnknown@@MAGKXZ:PROC			; CIWUnknown::AddRef
EXTRN	?Release@CIWUnknown@@MAGKXZ:PROC		; CIWUnknown::Release
EXTRN	??0CChartAddInBase134221@@IAE@PAUIChartOCX134221@@PAUIAddInDllBase@@@Z:PROC ; CChartAddInBase134221::CChartAddInBase134221
EXTRN	??1CChartAddInBase134221@@MAE@XZ:PROC		; CChartAddInBase134221::~CChartAddInBase134221
EXTRN	?HasFullManager@CChartAddInBase134221@@MAEHXZ:PROC ; CChartAddInBase134221::HasFullManager
EXTRN	?RegisterEventMap@CChartAddInBase134221@@UAEHH@Z:PROC ; CChartAddInBase134221::RegisterEventMap
EXTRN	?UnregisterEventMap@CChartAddInBase134221@@UAEHXZ:PROC ; CChartAddInBase134221::UnregisterEventMap
EXTRN	??_ECChartExcelDataImportAddInImp@@UAEPAXI@Z:PROC ; CChartExcelDataImportAddInImp::`vector deleting destructor'
EXTRN	?GetMetaText@IMetaTable@@QAEPBDPAUHWND__@@W4E_CODEPAGE@1@PBDH@Z:PROC ; IMetaTable::GetMetaText
EXTRN	?GetLanguageText@IMetaTable@@QAEPBDPAUHWND__@@W4E_CODEPAGE@1@PBDH@Z:PROC ; IMetaTable::GetLanguageText
EXTRN	?GetDataToDec@CDataConversion@@SAHV?$CStringT@DV?$StrTraitMFC_DLL@DV?$ChTraitsCRT@D@ATL@@@@@ATL@@0AAV23@@Z:PROC ; CDataConversion::GetDataToDec
EXTRN	?_Xbad_alloc@std@@YAXXZ:PROC			; std::_Xbad_alloc
EXTRN	__Mbrtowc:PROC
EXTRN	__imp_?_Getcvt@_Locinfo@std@@QBE?AU_Cvtvec@@XZ:PROC
EXTRN	__imp_?_W_Getdays@_Locinfo@std@@QBEPBGXZ:PROC
EXTRN	__imp_?_W_Getmonths@_Locinfo@std@@QBEPBGXZ:PROC
EXTRN	??0BasicExcel@YExcel@@QAE@XZ:PROC		; YExcel::BasicExcel::BasicExcel
EXTRN	??1BasicExcel@YExcel@@QAE@XZ:PROC		; YExcel::BasicExcel::~BasicExcel
EXTRN	?Load@BasicExcel@YExcel@@QAE_NPBD@Z:PROC	; YExcel::BasicExcel::Load
EXTRN	?GetWorksheet@BasicExcel@YExcel@@QAEPAVBasicExcelWorksheet@2@I@Z:PROC ; YExcel::BasicExcel::GetWorksheet
EXTRN	?GetTotalRows@BasicExcelWorksheet@YExcel@@QAEIXZ:PROC ; YExcel::BasicExcelWorksheet::GetTotalRows
EXTRN	?GetTotalCols@BasicExcelWorksheet@YExcel@@QAEIXZ:PROC ; YExcel::BasicExcelWorksheet::GetTotalCols
EXTRN	?Cell@BasicExcelWorksheet@YExcel@@QAEPAVBasicExcelCell@2@II@Z:PROC ; YExcel::BasicExcelWorksheet::Cell
EXTRN	?GetDate@BasicExcelCell@YExcel@@QAEJXZ:PROC	; YExcel::BasicExcelCell::GetDate
EXTRN	?GetTime@BasicExcelCell@YExcel@@QAEJXZ:PROC	; YExcel::BasicExcelCell::GetTime
EXTRN	?GetDouble@BasicExcelCell@YExcel@@QBENXZ:PROC	; YExcel::BasicExcelCell::GetDouble
EXTRN	?GetString@BasicExcelCell@YExcel@@QBEPBDXZ:PROC	; YExcel::BasicExcelCell::GetString
EXTRN	?GetWString@BasicExcelCell@YExcel@@QBEPB_WXZ:PROC ; YExcel::BasicExcelCell::GetWString
EXTRN	@__security_check_cookie@4:PROC
EXTRN	___CxxFrameHandler3:PROC
EXTRN	__allmul:PROC
EXTRN	_memcpy:PROC
EXTRN	_memset:PROC
EXTRN	??_7type_info@@6B@:QWORD			; type_info::`vftable'
EXTRN	?g_iMetaTable@@3VIMetaTable@@A:BYTE		; g_iMetaTable
EXTRN	___security_cookie:DWORD
EXTRN	__fltused:DWORD
_BSS	SEGMENT
?m_strAddInItemName@CChartExcelDataImportAddInImp@@2V?$CStringT@DV?$StrTraitMFC_DLL@DV?$ChTraitsCRT@D@ATL@@@@@ATL@@A DD 01H DUP (?) ; CChartExcelDataImportAddInImp::m_strAddInItemName
_BSS	ENDS
CRT$XCU	SEGMENT
??m_strAddInItemName$initializer$@CChartExcelDataImportAddInImp@@2P6AXXZA@@3P6AXXZA DD FLAT:??__E?m_strAddInItemName@CChartExcelDataImportAddInImp@@2V?$CStringT@DV?$StrTraitMFC_DLL@DV?$ChTraitsCRT@D@ATL@@@@@ATL@@A@@YAXXZ ; ??m_strAddInItemName$initializer$@CChartExcelDataImportAddInImp@@2P6AXXZA@@3P6AXXZA
CRT$XCU	ENDS
;	COMDAT ??_R4CChartExcelDataImportAddInImp@@6BIChartAddIn134221@@@
rdata$r	SEGMENT
??_R4CChartExcelDataImportAddInImp@@6BIChartAddIn134221@@@ DD 00H ; CChartExcelDataImportAddInImp::`RTTI Complete Object Locator'
	DD	08H
	DD	00H
	DD	FLAT:??_R0?AVCChartExcelDataImportAddInImp@@@8
	DD	FLAT:??_R3CChartExcelDataImportAddInImp@@8
rdata$r	ENDS
;	COMDAT ??_R17?0A@EA@IUnknown@@8
rdata$r	SEGMENT
??_R17?0A@EA@IUnknown@@8 DD FLAT:??_R0?AUIUnknown@@@8	; IUnknown::`RTTI Base Class Descriptor at (8,-1,0,64)'
	DD	00H
	DD	08H
	DD	0ffffffffH
	DD	00H
	DD	040H
	DD	FLAT:??_R3IUnknown@@8
rdata$r	ENDS
;	COMDAT ??_R17?0A@EA@IChartAddIn134221@@8
rdata$r	SEGMENT
??_R17?0A@EA@IChartAddIn134221@@8 DD FLAT:??_R0?AUIChartAddIn134221@@@8 ; IChartAddIn134221::`RTTI Base Class Descriptor at (8,-1,0,64)'
	DD	01H
	DD	08H
	DD	0ffffffffH
	DD	00H
	DD	040H
	DD	FLAT:??_R3IChartAddIn134221@@8
rdata$r	ENDS
;	COMDAT ??_R2CIWUnknown@@8
rdata$r	SEGMENT
??_R2CIWUnknown@@8 DD FLAT:??_R1A@?0A@EA@CIWUnknown@@8	; CIWUnknown::`RTTI Base Class Array'
	DD	FLAT:??_R1A@?0A@EA@CObject@@8
rdata$r	ENDS
;	COMDAT ??_R3CIWUnknown@@8
rdata$r	SEGMENT
??_R3CIWUnknown@@8 DD 00H				; CIWUnknown::`RTTI Class Hierarchy Descriptor'
	DD	00H
	DD	02H
	DD	FLAT:??_R2CIWUnknown@@8
rdata$r	ENDS
;	COMDAT ??_R0?AVCIWUnknown@@@8
data$rs	SEGMENT
??_R0?AVCIWUnknown@@@8 DD FLAT:??_7type_info@@6B@	; CIWUnknown `RTTI Type Descriptor'
	DD	00H
	DB	'.?AVCIWUnknown@@', 00H
data$rs	ENDS
;	COMDAT ??_R1A@?0A@EA@CIWUnknown@@8
rdata$r	SEGMENT
??_R1A@?0A@EA@CIWUnknown@@8 DD FLAT:??_R0?AVCIWUnknown@@@8 ; CIWUnknown::`RTTI Base Class Descriptor at (0,-1,0,64)'
	DD	01H
	DD	00H
	DD	0ffffffffH
	DD	00H
	DD	040H
	DD	FLAT:??_R3CIWUnknown@@8
rdata$r	ENDS
;	COMDAT ??_R2CChartAddInBase134221@@8
rdata$r	SEGMENT
??_R2CChartAddInBase134221@@8 DD FLAT:??_R1A@?0A@EA@CChartAddInBase134221@@8 ; CChartAddInBase134221::`RTTI Base Class Array'
	DD	FLAT:??_R1A@?0A@EA@CIWUnknown@@8
	DD	FLAT:??_R1A@?0A@EA@CObject@@8
	DD	FLAT:??_R17?0A@EA@IChartAddIn134221@@8
	DD	FLAT:??_R17?0A@EA@IUnknown@@8
rdata$r	ENDS
;	COMDAT ??_R3CChartAddInBase134221@@8
rdata$r	SEGMENT
??_R3CChartAddInBase134221@@8 DD 00H			; CChartAddInBase134221::`RTTI Class Hierarchy Descriptor'
	DD	01H
	DD	05H
	DD	FLAT:??_R2CChartAddInBase134221@@8
rdata$r	ENDS
;	COMDAT ??_R0?AVCChartAddInBase134221@@@8
data$rs	SEGMENT
??_R0?AVCChartAddInBase134221@@@8 DD FLAT:??_7type_info@@6B@ ; CChartAddInBase134221 `RTTI Type Descriptor'
	DD	00H
	DB	'.?AVCChartAddInBase134221@@', 00H
data$rs	ENDS
;	COMDAT ??_R1A@?0A@EA@CChartAddInBase134221@@8
rdata$r	SEGMENT
??_R1A@?0A@EA@CChartAddInBase134221@@8 DD FLAT:??_R0?AVCChartAddInBase134221@@@8 ; CChartAddInBase134221::`RTTI Base Class Descriptor at (0,-1,0,64)'
	DD	04H
	DD	00H
	DD	0ffffffffH
	DD	00H
	DD	040H
	DD	FLAT:??_R3CChartAddInBase134221@@8
rdata$r	ENDS
;	COMDAT ??_R1A@?0A@EA@CChartExcelDataImportAddInImp@@8
rdata$r	SEGMENT
??_R1A@?0A@EA@CChartExcelDataImportAddInImp@@8 DD FLAT:??_R0?AVCChartExcelDataImportAddInImp@@@8 ; CChartExcelDataImportAddInImp::`RTTI Base Class Descriptor at (0,-1,0,64)'
	DD	05H
	DD	00H
	DD	0ffffffffH
	DD	00H
	DD	040H
	DD	FLAT:??_R3CChartExcelDataImportAddInImp@@8
rdata$r	ENDS
;	COMDAT ??_R2CChartExcelDataImportAddInImp@@8
rdata$r	SEGMENT
??_R2CChartExcelDataImportAddInImp@@8 DD FLAT:??_R1A@?0A@EA@CChartExcelDataImportAddInImp@@8 ; CChartExcelDataImportAddInImp::`RTTI Base Class Array'
	DD	FLAT:??_R1A@?0A@EA@CChartAddInBase134221@@8
	DD	FLAT:??_R1A@?0A@EA@CIWUnknown@@8
	DD	FLAT:??_R1A@?0A@EA@CObject@@8
	DD	FLAT:??_R17?0A@EA@IChartAddIn134221@@8
	DD	FLAT:??_R17?0A@EA@IUnknown@@8
rdata$r	ENDS
;	COMDAT ??_R3CChartExcelDataImportAddInImp@@8
rdata$r	SEGMENT
??_R3CChartExcelDataImportAddInImp@@8 DD 00H		; CChartExcelDataImportAddInImp::`RTTI Class Hierarchy Descriptor'
	DD	01H
	DD	06H
	DD	FLAT:??_R2CChartExcelDataImportAddInImp@@8
rdata$r	ENDS
;	COMDAT ??_R0?AVCChartExcelDataImportAddInImp@@@8
data$rs	SEGMENT
??_R0?AVCChartExcelDataImportAddInImp@@@8 DD FLAT:??_7type_info@@6B@ ; CChartExcelDataImportAddInImp `RTTI Type Descriptor'
	DD	00H
	DB	'.?AVCChartExcelDataImportAddInImp@@', 00H
data$rs	ENDS
;	COMDAT ??_R4CChartExcelDataImportAddInImp@@6BCIWUnknown@@@
rdata$r	SEGMENT
??_R4CChartExcelDataImportAddInImp@@6BCIWUnknown@@@ DD 00H ; CChartExcelDataImportAddInImp::`RTTI Complete Object Locator'
	DD	00H
	DD	00H
	DD	FLAT:??_R0?AVCChartExcelDataImportAddInImp@@@8
	DD	FLAT:??_R3CChartExcelDataImportAddInImp@@8
rdata$r	ENDS
;	COMDAT ??_R1A@?0A@EA@IChartAddIn134221@@8
rdata$r	SEGMENT
??_R1A@?0A@EA@IChartAddIn134221@@8 DD FLAT:??_R0?AUIChartAddIn134221@@@8 ; IChartAddIn134221::`RTTI Base Class Descriptor at (0,-1,0,64)'
	DD	01H
	DD	00H
	DD	0ffffffffH
	DD	00H
	DD	040H
	DD	FLAT:??_R3IChartAddIn134221@@8
rdata$r	ENDS
;	COMDAT ??_R2IChartAddIn134221@@8
rdata$r	SEGMENT
??_R2IChartAddIn134221@@8 DD FLAT:??_R1A@?0A@EA@IChartAddIn134221@@8 ; IChartAddIn134221::`RTTI Base Class Array'
	DD	FLAT:??_R1A@?0A@EA@IUnknown@@8
rdata$r	ENDS
;	COMDAT ??_R3IChartAddIn134221@@8
rdata$r	SEGMENT
??_R3IChartAddIn134221@@8 DD 00H			; IChartAddIn134221::`RTTI Class Hierarchy Descriptor'
	DD	00H
	DD	02H
	DD	FLAT:??_R2IChartAddIn134221@@8
rdata$r	ENDS
;	COMDAT ??_R0?AUIChartAddIn134221@@@8
data$rs	SEGMENT
??_R0?AUIChartAddIn134221@@@8 DD FLAT:??_7type_info@@6B@ ; IChartAddIn134221 `RTTI Type Descriptor'
	DD	00H
	DB	'.?AUIChartAddIn134221@@', 00H
data$rs	ENDS
;	COMDAT ??_C@_1BK@MHIKGOKE@?$AA?3?$AAA?$AAM?$AA?3?$AAa?$AAm?$AA?3?$AAP?$AAM?$AA?3?$AAp?$AAm@
CONST	SEGMENT
??_C@_1BK@MHIKGOKE@?$AA?3?$AAA?$AAM?$AA?3?$AAa?$AAm?$AA?3?$AAP?$AAM?$AA?3?$AAp?$AAm@ DB ':'
	DB	00H, 'A', 00H, 'M', 00H, ':', 00H, 'a', 00H, 'm', 00H, ':', 00H
	DB	'P', 00H, 'M', 00H, ':', 00H, 'p', 00H, 'm', 00H, 00H, 00H ; `string'
CONST	ENDS
;	COMDAT ??_C@_04BDEGLLOH@MMDD@
CONST	SEGMENT
??_C@_04BDEGLLOH@MMDD@ DB 'MMDD', 00H			; `string'
CONST	ENDS
;	COMDAT ??_C@_04IHEOMKKL@YYMM@
CONST	SEGMENT
??_C@_04IHEOMKKL@YYMM@ DB 'YYMM', 00H			; `string'
CONST	ENDS
;	COMDAT ??_C@_06EBMMBHJD@YYYYMM@
CONST	SEGMENT
??_C@_06EBMMBHJD@YYYYMM@ DB 'YYYYMM', 00H		; `string'
CONST	ENDS
;	COMDAT ??_C@_06NFMEGGNP@YYMMDD@
CONST	SEGMENT
??_C@_06NFMEGGNP@YYMMDD@ DB 'YYMMDD', 00H		; `string'
CONST	ENDS
;	COMDAT ??_C@_08DKDJLCMP@YYYYMMDD@
CONST	SEGMENT
??_C@_08DKDJLCMP@YYYYMMDD@ DB 'YYYYMMDD', 00H		; `string'
CONST	ENDS
;	COMDAT ??_C@_01NEMOKFLO@?$DN@
CONST	SEGMENT
??_C@_01NEMOKFLO@?$DN@ DB '=', 00H			; `string'
CONST	ENDS
;	COMDAT ??_C@_01EOFPKCAF@?$EA@
CONST	SEGMENT
??_C@_01EOFPKCAF@?$EA@ DB '@', 00H			; `string'
CONST	ENDS
;	COMDAT ??_C@_05HNKPHJGL@?$CK?4xls@
CONST	SEGMENT
??_C@_05HNKPHJGL@?$CK?4xls@ DB '*.xls', 00H		; `string'
CONST	ENDS
;	COMDAT ??_7CChartExcelDataImportAddInImp@@6BIChartAddIn134221@@@
CONST	SEGMENT
??_7CChartExcelDataImportAddInImp@@6BIChartAddIn134221@@@ DD FLAT:??_R4CChartExcelDataImportAddInImp@@6BIChartAddIn134221@@@ ; CChartExcelDataImportAddInImp::`vftable'
	DD	FLAT:?QueryInterface@CChartAddInBase134221@@O7AGJABU_GUID@@PAPAX@Z
	DD	FLAT:?AddRef@CChartAddInBase134221@@O7AGKXZ
	DD	FLAT:?Release@CChartAddInBase134221@@O7AGKXZ
	DD	FLAT:??_ECChartExcelDataImportAddInImp@@W7AEPAXI@Z
	DD	FLAT:?HasFullManager@CChartAddInBase134221@@MAEHXZ
	DD	FLAT:?GetAddInCustomInterface@CChartAddInBase134221@@MAEPAUIUnknown@@XZ
	DD	FLAT:?InvokeAddIn@CChartExcelDataImportAddInImp@@MAEHHJ@Z
	DD	FLAT:?InvokeAddInStr@CChartAddInBase134221@@MAEHPBD0@Z
	DD	FLAT:?OnOcxDestroyWindow@CChartAddInBase134221@@MAEXXZ
	DD	FLAT:?RegisterEventMap@CChartAddInBase134221@@UAEHH@Z
	DD	FLAT:?UnregisterEventMap@CChartAddInBase134221@@UAEHXZ
	DD	FLAT:?OnGSharedDataChange@CChartAddInBase134221@@MAEXPBD0H@Z
	DD	FLAT:?OnLSharedDataChange@CChartAddInBase134221@@MAEXPBD0@Z
	DD	FLAT:?OnResetChart@CChartAddInBase134221@@MAEXXZ
	DD	FLAT:?OnDrawBeforeGraph@CChartAddInBase134221@@MAEXPAUHDC__@@@Z
	DD	FLAT:?OnDrawAfterGraph@CChartAddInBase134221@@MAEXPAUHDC__@@@Z
	DD	FLAT:?OnPacketDataMultiItem@CChartExcelDataImportAddInImp@@MAEXPBD0H@Z
	DD	FLAT:?OnTimer@CChartAddInBase134221@@MAEXI@Z
	DD	FLAT:?OnCaptureChanged@CChartAddInBase134221@@MAEXPAUHWND__@@QAUHBITMAP__@@@Z
	DD	FLAT:?OnResetMainBlock@CChartAddInBase134221@@MAEXXZ
	DD	FLAT:?OnUserIndiatorConditionLoaded@CChartAddInBase134221@@MAEXXZ
	DD	FLAT:?OnChartItemChanged@CChartAddInBase134221@@MAEXXZ
	DD	FLAT:?OnGraphDataChanged@CChartAddInBase134221@@MAEXXZ
	DD	FLAT:?OnBlockRemoved@CChartAddInBase134221@@MAEXHH@Z
	DD	FLAT:?OnGraphAdded@CChartAddInBase134221@@MAEXPBD0@Z
	DD	FLAT:?OnManualRealData@CChartAddInBase134221@@MAEXPBDNH@Z
	DD	FLAT:?OnContextMenu@CChartAddInBase134221@@MAEXPAUHWND__@@AAUtagPOINT@@@Z
	DD	FLAT:?OnGraphDeleted@CChartAddInBase134221@@MAEXPBD0@Z
	DD	FLAT:?OnPacketTruncated@CChartAddInBase134221@@MAEXH@Z
	DD	FLAT:?OnBlockChanged@CChartAddInBase134221@@MAEXW4BLOCKBEHAVIOR@CBlockBaseData@@HHHH@Z
	DD	FLAT:?OnToolCommand@CChartExcelDataImportAddInImp@@MAEXHH@Z
	DD	FLAT:?OnRealData@CChartAddInBase134221@@MAEXPBDN0@Z
	DD	FLAT:?OnIndexedRealData@CChartAddInBase134221@@MAEXPBDHN@Z
	DD	FLAT:?OnRealPacketEnd@CChartAddInBase134221@@MAEXPBD@Z
	DD	FLAT:?OnLoadEnvironment@CChartAddInBase134221@@MAEXPAUIPropertyMap@@@Z
	DD	FLAT:?OnSaveEnvironment@CChartAddInBase134221@@MAEXPAUIPropertyMap@@@Z
	DD	FLAT:?DrawCursor@CChartAddInBase134221@@MAE?AUtagRECT@@PAUHDC__@@@Z
	DD	FLAT:?OnRecalculationComplete@CChartAddInBase134221@@MAEXXZ
	DD	FLAT:?OnPreRealData@CChartAddInBase134221@@MAEHPBDAAN0@Z
	DD	FLAT:?OnPreIndexedRealData@CChartAddInBase134221@@MAEHPBDHAAN@Z
	DD	FLAT:?OnPreRealPacketEnd@CChartAddInBase134221@@MAEHPBD@Z
	DD	FLAT:?OnCmdMsg@CChartExcelDataImportAddInImp@@MAEHIHPAUICmdUI134221@@@Z
	DD	FLAT:?OnAddInMsg@CChartAddInBase134221@@MAEHPBDJ@Z
	DD	FLAT:?OnAddInToolCommand@CChartAddInBase134221@@MAEHAAJW4EAICommandType@@JJ@Z
	DD	FLAT:?OnAddInToolCommand@CChartAddInBase134221@@MAEHAAJW4EAICommandType@@J@Z
	DD	FLAT:?OnAddInToolCommand@CChartAddInBase134221@@MAEHAAJW4EAICommandType@@PBDPAVCObject@@@Z
	DD	FLAT:?OnAddInToolCommand@CChartAddInBase134221@@MAEHAAJW4EAICommandType@@PBD@Z
	DD	FLAT:?OnAddInToolCommand@CChartAddInBase134221@@MAEHAAJW4EAICommandType@@PAUIGraphInfo134221@@@Z
	DD	FLAT:?OnAddInToolCommand@CChartAddInBase134221@@MAEHAAJW4EAICommandType@@@Z
	DD	FLAT:?OnAddInToolCommand@CChartAddInBase134221@@MAEHW4EAICommandType@@JJJJJJJJJ@Z
	DD	FLAT:?OnAddInToolCommand@CChartAddInBase134221@@MAEHW4EAICommandType@@JJ@Z
	DD	FLAT:?OnAddInToolCommand@CChartAddInBase134221@@MAEHW4EAICommandType@@JPBD11@Z
	DD	FLAT:?OnAddInToolCommand@CChartAddInBase134221@@MAEHW4EAICommandType@@JPBD@Z
	DD	FLAT:?OnAddInToolCommand@CChartAddInBase134221@@MAEHW4EAICommandType@@J@Z
	DD	FLAT:?OnAddInToolCommand@CChartAddInBase134221@@MAEHW4EAICommandType@@PBUIAddInDllBase@@@Z
	DD	FLAT:?OnAddInToolCommand@CChartAddInBase134221@@MAEHW4EAICommandType@@PBDJ@Z
	DD	FLAT:?OnAddInToolCommand@CChartAddInBase134221@@MAEHW4EAICommandType@@PBD1@Z
	DD	FLAT:?OnAddInToolCommand@CChartAddInBase134221@@MAEHW4EAICommandType@@PBD@Z
	DD	FLAT:?OnAddInToolCommand@CChartAddInBase134221@@MAEHW4EAICommandType@@PAUHDC__@@IAAUtagPOINT@@K@Z
	DD	FLAT:?OnAddInToolCommand@CChartAddInBase134221@@MAEHW4EAICommandType@@@Z
	DD	FLAT:?OnKeyDown@CChartAddInBase134221@@MAEHIII@Z
	DD	FLAT:?OnKeyUp@CChartAddInBase134221@@MAEHIII@Z
	DD	FLAT:?OnMouseWheel@CChartAddInBase134221@@MAEHIFUtagPOINT@@K@Z
	DD	FLAT:?OnMouseMove@CChartAddInBase134221@@MAEHPAUHDC__@@IAAUtagPOINT@@KQAUHBITMAP__@@@Z
	DD	FLAT:?OnLButtonDown@CChartAddInBase134221@@MAEHPAUHDC__@@IAAUtagPOINT@@K@Z
	DD	FLAT:?OnLButtonUp@CChartAddInBase134221@@MAEHPAUHDC__@@IAAUtagPOINT@@K@Z
	DD	FLAT:?OnLButtonDblClk@CChartAddInBase134221@@MAEHPAUHDC__@@IAAUtagPOINT@@K@Z
	DD	FLAT:?OnRButtonDown@CChartAddInBase134221@@MAEHPAUHDC__@@IAAUtagPOINT@@K@Z
	DD	FLAT:?OnRButtonUp@CChartAddInBase134221@@MAEHPAUHDC__@@IAAUtagPOINT@@K@Z
	DD	FLAT:?OnRButtonDblClk@CChartAddInBase134221@@MAEHPAUHDC__@@IAAUtagPOINT@@K@Z
CONST	ENDS
;	COMDAT ??_7CChartExcelDataImportAddInImp@@6BCIWUnknown@@@
CONST	SEGMENT
??_7CChartExcelDataImportAddInImp@@6BCIWUnknown@@@ DD FLAT:??_R4CChartExcelDataImportAddInImp@@6BCIWUnknown@@@ ; CChartExcelDataImportAddInImp::`vftable'
	DD	FLAT:?GetRuntimeClass@CObject@@UBEPAUCRuntimeClass@@XZ
	DD	FLAT:??_ECChartExcelDataImportAddInImp@@UAEPAXI@Z
	DD	FLAT:?Serialize@CObject@@UAEXAAVCArchive@@@Z
	DD	FLAT:?AssertValid@CObject@@UBEXXZ
	DD	FLAT:?Dump@CObject@@UBEXAAVCDumpContext@@@Z
	DD	FLAT:?AddRef@CChartAddInBase134221@@MAGKXZ
	DD	FLAT:?Release@CChartAddInBase134221@@MAGKXZ
	DD	FLAT:?QueryInterface@CChartAddInBase134221@@MAGJABU_GUID@@PAPAX@Z
	DD	FLAT:?PostConstruct@CIWUnknown@@MAEXXZ
	DD	FLAT:?PreDestructX@CIWUnknown@@MAEXXZ
	DD	FLAT:?PreDestruct@CIWUnknown@@MAEXXZ
	DD	FLAT:?GetRegisteredEventMap@CChartExcelDataImportAddInImp@@MBEPBW4EAddInEventType@IChartAddIn134221@@XZ
CONST	ENDS
;	COMDAT ??_R1A@?0A@EA@IUnknown@@8
rdata$r	SEGMENT
??_R1A@?0A@EA@IUnknown@@8 DD FLAT:??_R0?AUIUnknown@@@8	; IUnknown::`RTTI Base Class Descriptor at (0,-1,0,64)'
	DD	00H
	DD	00H
	DD	0ffffffffH
	DD	00H
	DD	040H
	DD	FLAT:??_R3IUnknown@@8
rdata$r	ENDS
;	COMDAT ??_R2IUnknown@@8
rdata$r	SEGMENT
??_R2IUnknown@@8 DD FLAT:??_R1A@?0A@EA@IUnknown@@8	; IUnknown::`RTTI Base Class Array'
rdata$r	ENDS
;	COMDAT ??_R3IUnknown@@8
rdata$r	SEGMENT
??_R3IUnknown@@8 DD 00H					; IUnknown::`RTTI Class Hierarchy Descriptor'
	DD	00H
	DD	01H
	DD	FLAT:??_R2IUnknown@@8
rdata$r	ENDS
;	COMDAT ??_R0?AUIUnknown@@@8
data$rs	SEGMENT
??_R0?AUIUnknown@@@8 DD FLAT:??_7type_info@@6B@		; IUnknown `RTTI Type Descriptor'
	DD	00H
	DB	'.?AUIUnknown@@', 00H
data$rs	ENDS
;	COMDAT ??_R1A@?0A@EA@CObject@@8
rdata$r	SEGMENT
??_R1A@?0A@EA@CObject@@8 DD FLAT:??_R0?AVCObject@@@8	; CObject::`RTTI Base Class Descriptor at (0,-1,0,64)'
	DD	00H
	DD	00H
	DD	0ffffffffH
	DD	00H
	DD	040H
	DD	FLAT:??_R3CObject@@8
rdata$r	ENDS
;	COMDAT ??_R2CObject@@8
rdata$r	SEGMENT
??_R2CObject@@8 DD FLAT:??_R1A@?0A@EA@CObject@@8	; CObject::`RTTI Base Class Array'
rdata$r	ENDS
;	COMDAT ??_R3CObject@@8
rdata$r	SEGMENT
??_R3CObject@@8 DD 00H					; CObject::`RTTI Class Hierarchy Descriptor'
	DD	00H
	DD	01H
	DD	FLAT:??_R2CObject@@8
rdata$r	ENDS
;	COMDAT ??_R0?AVCObject@@@8
data$rs	SEGMENT
??_R0?AVCObject@@@8 DD FLAT:??_7type_info@@6B@		; CObject `RTTI Type Descriptor'
	DD	00H
	DB	'.?AVCObject@@', 00H
data$rs	ENDS
;	COMDAT ??_C@_00CNPNBAHC@@
CONST	SEGMENT
??_C@_00CNPNBAHC@@ DB 00H				; `string'
CONST	ENDS
;	COMDAT xdata$x
xdata$x	SEGMENT
__unwindtable$?OnToolCommand@CChartExcelDataImportAddInImp@@MAEXHH@Z DD 0ffffffffH
	DD	FLAT:__unwindfunclet$?OnToolCommand@CChartExcelDataImportAddInImp@@MAEXHH@Z$0
__ehfuncinfo$?OnToolCommand@CChartExcelDataImportAddInImp@@MAEXHH@Z DD 019930522H
	DD	01H
	DD	FLAT:__unwindtable$?OnToolCommand@CChartExcelDataImportAddInImp@@MAEXHH@Z
	DD	2 DUP(00H)
	DD	2 DUP(00H)
	DD	00H
	DD	01H
xdata$x	ENDS
;	COMDAT xdata$x
xdata$x	SEGMENT
__unwindtable$?InvokeAddIn@CChartExcelDataImportAddInImp@@MAEHHJ@Z DD 0ffffffffH
	DD	FLAT:__unwindfunclet$?InvokeAddIn@CChartExcelDataImportAddInImp@@MAEHHJ@Z$0
__ehfuncinfo$?InvokeAddIn@CChartExcelDataImportAddInImp@@MAEHHJ@Z DD 019930522H
	DD	01H
	DD	FLAT:__unwindtable$?InvokeAddIn@CChartExcelDataImportAddInImp@@MAEHHJ@Z
	DD	2 DUP(00H)
	DD	2 DUP(00H)
	DD	00H
	DD	01H
xdata$x	ENDS
;	COMDAT xdata$x
xdata$x	SEGMENT
__ehfuncinfo$?LoadExcel@CChartExcelDataImportAddInImp@@QAEHXZ DD 019930522H
	DD	022H
	DD	FLAT:__unwindtable$?LoadExcel@CChartExcelDataImportAddInImp@@QAEHXZ
	DD	2 DUP(00H)
	DD	2 DUP(00H)
	DD	00H
	DD	01H
__unwindtable$?LoadExcel@CChartExcelDataImportAddInImp@@QAEHXZ DD 0ffffffffH
	DD	FLAT:__unwindfunclet$?LoadExcel@CChartExcelDataImportAddInImp@@QAEHXZ$0
	DD	00H
	DD	FLAT:__unwindfunclet$?LoadExcel@CChartExcelDataImportAddInImp@@QAEHXZ$1
	DD	01H
	DD	FLAT:__unwindfunclet$?LoadExcel@CChartExcelDataImportAddInImp@@QAEHXZ$2
	DD	02H
	DD	FLAT:__unwindfunclet$?LoadExcel@CChartExcelDataImportAddInImp@@QAEHXZ$3
	DD	03H
	DD	FLAT:__unwindfunclet$?LoadExcel@CChartExcelDataImportAddInImp@@QAEHXZ$4
	DD	04H
	DD	FLAT:__unwindfunclet$?LoadExcel@CChartExcelDataImportAddInImp@@QAEHXZ$5
	DD	05H
	DD	FLAT:__unwindfunclet$?LoadExcel@CChartExcelDataImportAddInImp@@QAEHXZ$6
	DD	06H
	DD	FLAT:__unwindfunclet$?LoadExcel@CChartExcelDataImportAddInImp@@QAEHXZ$7
	DD	07H
	DD	FLAT:__unwindfunclet$?LoadExcel@CChartExcelDataImportAddInImp@@QAEHXZ$8
	DD	08H
	DD	FLAT:__unwindfunclet$?LoadExcel@CChartExcelDataImportAddInImp@@QAEHXZ$28
	DD	09H
	DD	FLAT:__unwindfunclet$?LoadExcel@CChartExcelDataImportAddInImp@@QAEHXZ$29
	DD	0aH
	DD	FLAT:__unwindfunclet$?LoadExcel@CChartExcelDataImportAddInImp@@QAEHXZ$30
	DD	06H
	DD	FLAT:__unwindfunclet$?LoadExcel@CChartExcelDataImportAddInImp@@QAEHXZ$12
	DD	0cH
	DD	FLAT:__unwindfunclet$?LoadExcel@CChartExcelDataImportAddInImp@@QAEHXZ$13
	DD	05H
	DD	FLAT:___std_terminate
	DD	04H
	DD	FLAT:___std_terminate
	DD	0dH
	DD	FLAT:__unwindfunclet$?LoadExcel@CChartExcelDataImportAddInImp@@QAEHXZ$14
	DD	010H
	DD	FLAT:__unwindfunclet$?LoadExcel@CChartExcelDataImportAddInImp@@QAEHXZ$15
	DD	011H
	DD	FLAT:__unwindfunclet$?LoadExcel@CChartExcelDataImportAddInImp@@QAEHXZ$16
	DD	0dH
	DD	FLAT:___std_terminate
	DD	06H
	DD	FLAT:__unwindfunclet$?LoadExcel@CChartExcelDataImportAddInImp@@QAEHXZ$17
	DD	014H
	DD	FLAT:__unwindfunclet$?LoadExcel@CChartExcelDataImportAddInImp@@QAEHXZ$18
	DD	015H
	DD	FLAT:__unwindfunclet$?LoadExcel@CChartExcelDataImportAddInImp@@QAEHXZ$19
	DD	016H
	DD	FLAT:__unwindfunclet$?LoadExcel@CChartExcelDataImportAddInImp@@QAEHXZ$20
	DD	017H
	DD	FLAT:__unwindfunclet$?LoadExcel@CChartExcelDataImportAddInImp@@QAEHXZ$21
	DD	017H
	DD	FLAT:__unwindfunclet$?LoadExcel@CChartExcelDataImportAddInImp@@QAEHXZ$22
	DD	019H
	DD	FLAT:__unwindfunclet$?LoadExcel@CChartExcelDataImportAddInImp@@QAEHXZ$23
	DD	01aH
	DD	FLAT:__unwindfunclet$?LoadExcel@CChartExcelDataImportAddInImp@@QAEHXZ$24
	DD	01bH
	DD	FLAT:__unwindfunclet$?LoadExcel@CChartExcelDataImportAddInImp@@QAEHXZ$25
	DD	01cH
	DD	FLAT:__unwindfunclet$?LoadExcel@CChartExcelDataImportAddInImp@@QAEHXZ$26
	DD	01aH
	DD	FLAT:___std_terminate
	DD	015H
	DD	FLAT:___std_terminate
	DD	05H
	DD	FLAT:___std_terminate
	DD	04H
	DD	FLAT:___std_terminate
xdata$x	ENDS
;	COMDAT xdata$x
xdata$x	SEGMENT
__ehfuncinfo$??1ILPCSTR134221@@QAE@XZ DD 019930522H
	DD	00H
	DD	00H
	DD	2 DUP(00H)
	DD	2 DUP(00H)
	DD	00H
	DD	05H
xdata$x	ENDS
;	COMDAT xdata$x
xdata$x	SEGMENT
__unwindtable$??HATL@@YA?AV?$CStringT@DV?$StrTraitMFC_DLL@DV?$ChTraitsCRT@D@ATL@@@@@0@ABV10@PBD@Z DD 0ffffffffH
	DD	FLAT:__unwindfunclet$??HATL@@YA?AV?$CStringT@DV?$StrTraitMFC_DLL@DV?$ChTraitsCRT@D@ATL@@@@@0@ABV10@PBD@Z$0
__ehfuncinfo$??HATL@@YA?AV?$CStringT@DV?$StrTraitMFC_DLL@DV?$ChTraitsCRT@D@ATL@@@@@0@ABV10@PBD@Z DD 019930522H
	DD	01H
	DD	FLAT:__unwindtable$??HATL@@YA?AV?$CStringT@DV?$StrTraitMFC_DLL@DV?$ChTraitsCRT@D@ATL@@@@@0@ABV10@PBD@Z
	DD	2 DUP(00H)
	DD	2 DUP(00H)
	DD	00H
	DD	01H
xdata$x	ENDS
;	COMDAT xdata$x
xdata$x	SEGMENT
__unwindtable$??HATL@@YA?AV?$CStringT@DV?$StrTraitMFC_DLL@DV?$ChTraitsCRT@D@ATL@@@@@0@ABV10@0@Z DD 0ffffffffH
	DD	FLAT:__unwindfunclet$??HATL@@YA?AV?$CStringT@DV?$StrTraitMFC_DLL@DV?$ChTraitsCRT@D@ATL@@@@@0@ABV10@0@Z$0
__ehfuncinfo$??HATL@@YA?AV?$CStringT@DV?$StrTraitMFC_DLL@DV?$ChTraitsCRT@D@ATL@@@@@0@ABV10@0@Z DD 019930522H
	DD	01H
	DD	FLAT:__unwindtable$??HATL@@YA?AV?$CStringT@DV?$StrTraitMFC_DLL@DV?$ChTraitsCRT@D@ATL@@@@@0@ABV10@0@Z
	DD	2 DUP(00H)
	DD	2 DUP(00H)
	DD	00H
	DD	01H
xdata$x	ENDS
; Function compile flags: /Odsp
;	COMDAT ??_ECChartExcelDataImportAddInImp@@W7AEPAXI@Z
_TEXT	SEGMENT
??_ECChartExcelDataImportAddInImp@@W7AEPAXI@Z PROC	; [thunk]:CChartExcelDataImportAddInImp::`vector deleting destructor', COMDAT
  00000	83 e9 08	 sub	 ecx, 8
  00003	e9 00 00 00 00	 jmp	 ??_ECChartExcelDataImportAddInImp@@UAEPAXI@Z
??_ECChartExcelDataImportAddInImp@@W7AEPAXI@Z ENDP	; [thunk]:CChartExcelDataImportAddInImp::`vector deleting destructor'
_TEXT	ENDS
; Function compile flags: /Odsp
;	COMDAT ?Release@CChartAddInBase134221@@O7AGKXZ
_TEXT	SEGMENT
?Release@CChartAddInBase134221@@O7AGKXZ PROC		; [thunk]:CChartAddInBase134221::Release`adjustor{8}', COMDAT
  00000	83 6c 24 04 08	 sub	 DWORD PTR [esp+4], 8
  00005	e9 00 00 00 00	 jmp	 ?Release@CChartAddInBase134221@@MAGKXZ ; CChartAddInBase134221::Release
?Release@CChartAddInBase134221@@O7AGKXZ ENDP		; [thunk]:CChartAddInBase134221::Release`adjustor{8}'
_TEXT	ENDS
; Function compile flags: /Odsp
;	COMDAT ?AddRef@CChartAddInBase134221@@O7AGKXZ
_TEXT	SEGMENT
?AddRef@CChartAddInBase134221@@O7AGKXZ PROC		; [thunk]:CChartAddInBase134221::AddRef`adjustor{8}', COMDAT
  00000	83 6c 24 04 08	 sub	 DWORD PTR [esp+4], 8
  00005	e9 00 00 00 00	 jmp	 ?AddRef@CChartAddInBase134221@@MAGKXZ ; CChartAddInBase134221::AddRef
?AddRef@CChartAddInBase134221@@O7AGKXZ ENDP		; [thunk]:CChartAddInBase134221::AddRef`adjustor{8}'
_TEXT	ENDS
; Function compile flags: /Odsp
;	COMDAT ?QueryInterface@CChartAddInBase134221@@O7AGJABU_GUID@@PAPAX@Z
_TEXT	SEGMENT
?QueryInterface@CChartAddInBase134221@@O7AGJABU_GUID@@PAPAX@Z PROC ; [thunk]:CChartAddInBase134221::QueryInterface`adjustor{8}', COMDAT
  00000	83 6c 24 04 08	 sub	 DWORD PTR [esp+4], 8
  00005	e9 00 00 00 00	 jmp	 ?QueryInterface@CChartAddInBase134221@@MAGJABU_GUID@@PAPAX@Z ; CChartAddInBase134221::QueryInterface
?QueryInterface@CChartAddInBase134221@@O7AGJABU_GUID@@PAPAX@Z ENDP ; [thunk]:CChartAddInBase134221::QueryInterface`adjustor{8}'
_TEXT	ENDS
; Function compile flags: /Ogtp
; File C:\Program Files (x86)\Microsoft Visual Studio\2019\Community\VC\Tools\MSVC\14.29.30133\include\xlocale
;	COMDAT ??$_Maklocstr@D@std@@YAPADPBDPADABU_Cvtvec@@@Z
_TEXT	SEGMENT
__Ptr$ = 8						; size = 4
___formal$ = 12						; size = 4
___formal$ = 16						; size = 4
??$_Maklocstr@D@std@@YAPADPBDPADABU_Cvtvec@@@Z PROC	; std::_Maklocstr<char>, COMDAT

; 513  : _Elem* __CRTDECL _Maklocstr(const char* _Ptr, _Elem*, const _Locinfo::_Cvtvec&) {

  00000	55		 push	 ebp
  00001	8b ec		 mov	 ebp, esp

; 514  :     // convert C string to _Elem sequence using _Cvtvec
; 515  :     size_t _Count = _CSTD strlen(_Ptr) + 1;

  00003	8b 45 08	 mov	 eax, DWORD PTR __Ptr$[ebp]
  00006	8d 50 01	 lea	 edx, DWORD PTR [eax+1]
  00009	0f 1f 80 00 00
	00 00		 npad	 7
$LL11@Maklocstr:
  00010	8a 08		 mov	 cl, BYTE PTR [eax]
  00012	40		 inc	 eax
  00013	84 c9		 test	 cl, cl
  00015	75 f9		 jne	 SHORT $LL11@Maklocstr
  00017	56		 push	 esi
  00018	2b c2		 sub	 eax, edx
  0001a	57		 push	 edi

; 516  : 
; 517  :     _Elem* _Ptrdest = static_cast<_Elem*>(_calloc_dbg(_Count, sizeof(_Elem), _CRT_BLOCK, __FILE__, __LINE__));

  0001b	6a 01		 push	 1
  0001d	8d 78 01	 lea	 edi, DWORD PTR [eax+1]
  00020	57		 push	 edi
  00021	ff 15 00 00 00
	00		 call	 DWORD PTR __imp__calloc
  00027	8b f0		 mov	 esi, eax
  00029	83 c4 08	 add	 esp, 8

; 518  : 
; 519  :     if (!_Ptrdest) {

  0002c	85 f6		 test	 esi, esi
  0002e	74 17		 je	 SHORT $LN14@Maklocstr

; 521  :     }
; 522  : 
; 523  :     for (_Elem* _Ptrnext = _Ptrdest; 0 < _Count; --_Count, ++_Ptrnext, ++_Ptr) {

  00030	85 ff		 test	 edi, edi
  00032	74 0d		 je	 SHORT $LN4@Maklocstr
  00034	57		 push	 edi
  00035	ff 75 08	 push	 DWORD PTR __Ptr$[ebp]
  00038	56		 push	 esi
  00039	e8 00 00 00 00	 call	 _memcpy
  0003e	83 c4 0c	 add	 esp, 12			; 0000000cH
$LN4@Maklocstr:

; 524  :         *_Ptrnext = static_cast<_Elem>(static_cast<unsigned char>(*_Ptr));
; 525  :     }
; 526  : 
; 527  :     return _Ptrdest;

  00041	5f		 pop	 edi
  00042	8b c6		 mov	 eax, esi
  00044	5e		 pop	 esi

; 528  : }

  00045	5d		 pop	 ebp
  00046	c3		 ret	 0
$LN14@Maklocstr:

; 520  :         _Xbad_alloc();

  00047	e8 00 00 00 00	 call	 ?_Xbad_alloc@std@@YAXXZ	; std::_Xbad_alloc
$LN12@Maklocstr:
  0004c	cc		 int	 3
??$_Maklocstr@D@std@@YAPADPBDPADABU_Cvtvec@@@Z ENDP	; std::_Maklocstr<char>
_TEXT	ENDS
; Function compile flags: /Ogtp
;	COMDAT ??__F?m_strAddInItemName@CChartExcelDataImportAddInImp@@2V?$CStringT@DV?$StrTraitMFC_DLL@DV?$ChTraitsCRT@D@ATL@@@@@ATL@@A@@YAXXZ
text$yd	SEGMENT
??__F?m_strAddInItemName@CChartExcelDataImportAddInImp@@2V?$CStringT@DV?$StrTraitMFC_DLL@DV?$ChTraitsCRT@D@ATL@@@@@ATL@@A@@YAXXZ PROC ; `dynamic atexit destructor for 'CChartExcelDataImportAddInImp::m_strAddInItemName'', COMDAT
  00000	b9 00 00 00 00	 mov	 ecx, OFFSET ?m_strAddInItemName@CChartExcelDataImportAddInImp@@2V?$CStringT@DV?$StrTraitMFC_DLL@DV?$ChTraitsCRT@D@ATL@@@@@ATL@@A ; CChartExcelDataImportAddInImp::m_strAddInItemName
  00005	ff 25 00 00 00
	00		 jmp	 DWORD PTR __imp_??1?$CStringT@DV?$StrTraitMFC_DLL@DV?$ChTraitsCRT@D@ATL@@@@@ATL@@QAE@XZ
??__F?m_strAddInItemName@CChartExcelDataImportAddInImp@@2V?$CStringT@DV?$StrTraitMFC_DLL@DV?$ChTraitsCRT@D@ATL@@@@@ATL@@A@@YAXXZ ENDP ; `dynamic atexit destructor for 'CChartExcelDataImportAddInImp::m_strAddInItemName''
text$yd	ENDS
; Function compile flags: /Ogtp
; File D:\git\src\IBK\IBK_DRFN\ProjSrc\SrcChartEx\ChartAddIn\ChartDataListViewerAddIn\ChartDataListViewerAddIn\ChartExcelDataImportAddInImp.cpp
;	COMDAT ??__E?m_strAddInItemName@CChartExcelDataImportAddInImp@@2V?$CStringT@DV?$StrTraitMFC_DLL@DV?$ChTraitsCRT@D@ATL@@@@@ATL@@A@@YAXXZ
text$di	SEGMENT
??__E?m_strAddInItemName@CChartExcelDataImportAddInImp@@2V?$CStringT@DV?$StrTraitMFC_DLL@DV?$ChTraitsCRT@D@ATL@@@@@ATL@@A@@YAXXZ PROC ; `dynamic initializer for 'CChartExcelDataImportAddInImp::m_strAddInItemName'', COMDAT

; 39   : CString CChartExcelDataImportAddInImp::m_strAddInItemName = "EXCEL_IMPORT";

  00000	68 00 00 00 00	 push	 OFFSET ??_C@_0N@MBBJNJHC@EXCEL_IMPORT@
  00005	b9 00 00 00 00	 mov	 ecx, OFFSET ?m_strAddInItemName@CChartExcelDataImportAddInImp@@2V?$CStringT@DV?$StrTraitMFC_DLL@DV?$ChTraitsCRT@D@ATL@@@@@ATL@@A ; CChartExcelDataImportAddInImp::m_strAddInItemName
  0000a	ff 15 00 00 00
	00		 call	 DWORD PTR __imp_??0?$CStringT@DV?$StrTraitMFC_DLL@DV?$ChTraitsCRT@D@ATL@@@@@ATL@@QAE@PBD@Z
  00010	68 00 00 00 00	 push	 OFFSET ??__F?m_strAddInItemName@CChartExcelDataImportAddInImp@@2V?$CStringT@DV?$StrTraitMFC_DLL@DV?$ChTraitsCRT@D@ATL@@@@@ATL@@A@@YAXXZ ; `dynamic atexit destructor for 'CChartExcelDataImportAddInImp::m_strAddInItemName''
  00015	e8 00 00 00 00	 call	 _atexit
  0001a	59		 pop	 ecx
  0001b	c3		 ret	 0
??__E?m_strAddInItemName@CChartExcelDataImportAddInImp@@2V?$CStringT@DV?$StrTraitMFC_DLL@DV?$ChTraitsCRT@D@ATL@@@@@ATL@@A@@YAXXZ ENDP ; `dynamic initializer for 'CChartExcelDataImportAddInImp::m_strAddInItemName''
text$di	ENDS
; Function compile flags: /Ogtp
; File C:\Program Files (x86)\Microsoft Visual Studio\2019\Community\VC\Tools\MSVC\14.29.30133\include\xloctime
;	COMDAT ??$_Getvals@_W@?$time_get@_WV?$istreambuf_iterator@_WU?$char_traits@_W@std@@@std@@@std@@IAEX_WABV_Locinfo@1@@Z
_TEXT	SEGMENT
$T1 = -48						; size = 44
__$ArrayPad$ = -4					; size = 4
___formal$ = 8						; size = 2
__Lobj$ = 12						; size = 4
??$_Getvals@_W@?$time_get@_WV?$istreambuf_iterator@_WU?$char_traits@_W@std@@@std@@@std@@IAEX_WABV_Locinfo@1@@Z PROC ; std::time_get<wchar_t,std::istreambuf_iterator<wchar_t,std::char_traits<wchar_t> > >::_Getvals<wchar_t>, COMDAT
; _this$ = ecx

; 171  :     void __CLR_OR_THIS_CALL _Getvals(_Elem2, const _Locinfo& _Lobj) { // get values

  00000	55		 push	 ebp
  00001	8b ec		 mov	 ebp, esp
  00003	83 ec 30	 sub	 esp, 48			; 00000030H
  00006	a1 00 00 00 00	 mov	 eax, DWORD PTR ___security_cookie
  0000b	33 c5		 xor	 eax, ebp
  0000d	89 45 fc	 mov	 DWORD PTR __$ArrayPad$[ebp], eax
  00010	56		 push	 esi
  00011	8b 75 0c	 mov	 esi, DWORD PTR __Lobj$[ebp]

; 172  :         _Cvt = _Lobj._Getcvt();

  00014	8d 45 d0	 lea	 eax, DWORD PTR $T1[ebp]
  00017	57		 push	 edi
  00018	8b f9		 mov	 edi, ecx
  0001a	8b ce		 mov	 ecx, esi
  0001c	50		 push	 eax
  0001d	ff 15 00 00 00
	00		 call	 DWORD PTR __imp_?_Getcvt@_Locinfo@std@@QBE?AU_Cvtvec@@XZ

; 173  : 
; 174  :         if (is_same_v<_Elem2, wchar_t>) {
; 175  :             _Days = reinterpret_cast<const _Elem*>(_Maklocwcs(reinterpret_cast<const wchar_t*>(_Lobj._W_Getdays())));

  00023	8b ce		 mov	 ecx, esi
  00025	0f 10 00	 movups	 xmm0, XMMWORD PTR [eax]
  00028	0f 11 47 18	 movups	 XMMWORD PTR [edi+24], xmm0
  0002c	0f 10 40 10	 movups	 xmm0, XMMWORD PTR [eax+16]
  00030	0f 11 47 28	 movups	 XMMWORD PTR [edi+40], xmm0
  00034	f3 0f 7e 40 20	 movq	 xmm0, QWORD PTR [eax+32]
  00039	66 0f d6 47 38	 movq	 QWORD PTR [edi+56], xmm0
  0003e	8b 40 28	 mov	 eax, DWORD PTR [eax+40]
  00041	89 47 40	 mov	 DWORD PTR [edi+64], eax
  00044	ff 15 00 00 00
	00		 call	 DWORD PTR __imp_?_W_Getdays@_Locinfo@std@@QBEPBGXZ
  0004a	50		 push	 eax
  0004b	e8 00 00 00 00	 call	 ?_Maklocwcs@std@@YAPA_WPB_W@Z ; std::_Maklocwcs
  00050	83 c4 04	 add	 esp, 4
  00053	89 47 08	 mov	 DWORD PTR [edi+8], eax

; 176  :             _Months =

  00056	8b ce		 mov	 ecx, esi
  00058	ff 15 00 00 00
	00		 call	 DWORD PTR __imp_?_W_Getmonths@_Locinfo@std@@QBEPBGXZ
  0005e	50		 push	 eax
  0005f	e8 00 00 00 00	 call	 ?_Maklocwcs@std@@YAPA_WPB_W@Z ; std::_Maklocwcs

; 177  :                 reinterpret_cast<const _Elem*>(_Maklocwcs(reinterpret_cast<const wchar_t*>(_Lobj._W_Getmonths())));
; 178  :             _Ampm = reinterpret_cast<const _Elem*>(_Maklocwcs(L":AM:am:PM:pm"));

  00064	68 00 00 00 00	 push	 OFFSET ??_C@_1BK@MHIKGOKE@?$AA?3?$AAA?$AAM?$AA?3?$AAa?$AAm?$AA?3?$AAP?$AAM?$AA?3?$AAp?$AAm@
  00069	89 47 0c	 mov	 DWORD PTR [edi+12], eax
  0006c	e8 00 00 00 00	 call	 ?_Maklocwcs@std@@YAPA_WPB_W@Z ; std::_Maklocwcs

; 179  :         } else {
; 180  :             _Days   = _Maklocstr(_Lobj._Getdays(), static_cast<_Elem*>(nullptr), _Cvt);
; 181  :             _Months = _Maklocstr(_Lobj._Getmonths(), static_cast<_Elem*>(nullptr), _Cvt);
; 182  :             _Ampm   = _Maklocstr(":AM:am:PM:pm", static_cast<_Elem*>(nullptr), _Cvt);
; 183  :         }
; 184  :     }

  00071	8b 4d fc	 mov	 ecx, DWORD PTR __$ArrayPad$[ebp]
  00074	83 c4 08	 add	 esp, 8
  00077	89 47 10	 mov	 DWORD PTR [edi+16], eax
  0007a	33 cd		 xor	 ecx, ebp
  0007c	5f		 pop	 edi
  0007d	5e		 pop	 esi
  0007e	e8 00 00 00 00	 call	 @__security_check_cookie@4
  00083	8b e5		 mov	 esp, ebp
  00085	5d		 pop	 ebp
  00086	c2 08 00	 ret	 8
??$_Getvals@_W@?$time_get@_WV?$istreambuf_iterator@_WU?$char_traits@_W@std@@@std@@@std@@IAEX_WABV_Locinfo@1@@Z ENDP ; std::time_get<wchar_t,std::istreambuf_iterator<wchar_t,std::char_traits<wchar_t> > >::_Getvals<wchar_t>
_TEXT	ENDS
; Function compile flags: /Ogtp
; File C:\Program Files (x86)\Microsoft Visual Studio\2019\Community\VC\Tools\MSVC\14.29.30133\include\xloctime
;	COMDAT ??$_Getvals@_W@?$time_get@DV?$istreambuf_iterator@DU?$char_traits@D@std@@@std@@@std@@IAEX_WABV_Locinfo@1@@Z
_TEXT	SEGMENT
$T1 = -48						; size = 44
__$ArrayPad$ = -4					; size = 4
___formal$ = 8						; size = 2
__Lobj$ = 12						; size = 4
??$_Getvals@_W@?$time_get@DV?$istreambuf_iterator@DU?$char_traits@D@std@@@std@@@std@@IAEX_WABV_Locinfo@1@@Z PROC ; std::time_get<char,std::istreambuf_iterator<char,std::char_traits<char> > >::_Getvals<wchar_t>, COMDAT
; _this$ = ecx

; 171  :     void __CLR_OR_THIS_CALL _Getvals(_Elem2, const _Locinfo& _Lobj) { // get values

  00000	55		 push	 ebp
  00001	8b ec		 mov	 ebp, esp
  00003	83 ec 30	 sub	 esp, 48			; 00000030H
  00006	a1 00 00 00 00	 mov	 eax, DWORD PTR ___security_cookie
  0000b	33 c5		 xor	 eax, ebp
  0000d	89 45 fc	 mov	 DWORD PTR __$ArrayPad$[ebp], eax
  00010	56		 push	 esi
  00011	8b 75 0c	 mov	 esi, DWORD PTR __Lobj$[ebp]

; 172  :         _Cvt = _Lobj._Getcvt();

  00014	8d 45 d0	 lea	 eax, DWORD PTR $T1[ebp]
  00017	57		 push	 edi
  00018	8b f9		 mov	 edi, ecx
  0001a	8b ce		 mov	 ecx, esi
  0001c	50		 push	 eax
  0001d	ff 15 00 00 00
	00		 call	 DWORD PTR __imp_?_Getcvt@_Locinfo@std@@QBE?AU_Cvtvec@@XZ

; 173  : 
; 174  :         if (is_same_v<_Elem2, wchar_t>) {
; 175  :             _Days = reinterpret_cast<const _Elem*>(_Maklocwcs(reinterpret_cast<const wchar_t*>(_Lobj._W_Getdays())));

  00023	8b ce		 mov	 ecx, esi
  00025	0f 10 00	 movups	 xmm0, XMMWORD PTR [eax]
  00028	0f 11 47 18	 movups	 XMMWORD PTR [edi+24], xmm0
  0002c	0f 10 40 10	 movups	 xmm0, XMMWORD PTR [eax+16]
  00030	0f 11 47 28	 movups	 XMMWORD PTR [edi+40], xmm0
  00034	f3 0f 7e 40 20	 movq	 xmm0, QWORD PTR [eax+32]
  00039	66 0f d6 47 38	 movq	 QWORD PTR [edi+56], xmm0
  0003e	8b 40 28	 mov	 eax, DWORD PTR [eax+40]
  00041	89 47 40	 mov	 DWORD PTR [edi+64], eax
  00044	ff 15 00 00 00
	00		 call	 DWORD PTR __imp_?_W_Getdays@_Locinfo@std@@QBEPBGXZ
  0004a	50		 push	 eax
  0004b	e8 00 00 00 00	 call	 ?_Maklocwcs@std@@YAPA_WPB_W@Z ; std::_Maklocwcs
  00050	83 c4 04	 add	 esp, 4
  00053	89 47 08	 mov	 DWORD PTR [edi+8], eax

; 176  :             _Months =

  00056	8b ce		 mov	 ecx, esi
  00058	ff 15 00 00 00
	00		 call	 DWORD PTR __imp_?_W_Getmonths@_Locinfo@std@@QBEPBGXZ
  0005e	50		 push	 eax
  0005f	e8 00 00 00 00	 call	 ?_Maklocwcs@std@@YAPA_WPB_W@Z ; std::_Maklocwcs

; 177  :                 reinterpret_cast<const _Elem*>(_Maklocwcs(reinterpret_cast<const wchar_t*>(_Lobj._W_Getmonths())));
; 178  :             _Ampm = reinterpret_cast<const _Elem*>(_Maklocwcs(L":AM:am:PM:pm"));

  00064	68 00 00 00 00	 push	 OFFSET ??_C@_1BK@MHIKGOKE@?$AA?3?$AAA?$AAM?$AA?3?$AAa?$AAm?$AA?3?$AAP?$AAM?$AA?3?$AAp?$AAm@
  00069	89 47 0c	 mov	 DWORD PTR [edi+12], eax
  0006c	e8 00 00 00 00	 call	 ?_Maklocwcs@std@@YAPA_WPB_W@Z ; std::_Maklocwcs

; 179  :         } else {
; 180  :             _Days   = _Maklocstr(_Lobj._Getdays(), static_cast<_Elem*>(nullptr), _Cvt);
; 181  :             _Months = _Maklocstr(_Lobj._Getmonths(), static_cast<_Elem*>(nullptr), _Cvt);
; 182  :             _Ampm   = _Maklocstr(":AM:am:PM:pm", static_cast<_Elem*>(nullptr), _Cvt);
; 183  :         }
; 184  :     }

  00071	8b 4d fc	 mov	 ecx, DWORD PTR __$ArrayPad$[ebp]
  00074	83 c4 08	 add	 esp, 8
  00077	89 47 10	 mov	 DWORD PTR [edi+16], eax
  0007a	33 cd		 xor	 ecx, ebp
  0007c	5f		 pop	 edi
  0007d	5e		 pop	 esi
  0007e	e8 00 00 00 00	 call	 @__security_check_cookie@4
  00083	8b e5		 mov	 esp, ebp
  00085	5d		 pop	 ebp
  00086	c2 08 00	 ret	 8
??$_Getvals@_W@?$time_get@DV?$istreambuf_iterator@DU?$char_traits@D@std@@@std@@@std@@IAEX_WABV_Locinfo@1@@Z ENDP ; std::time_get<char,std::istreambuf_iterator<char,std::char_traits<char> > >::_Getvals<wchar_t>
_TEXT	ENDS
; Function compile flags: /Ogtp
; File C:\Program Files (x86)\Microsoft Visual Studio\2019\Community\VC\Tools\MSVC\14.29.30133\include\xlocnum
; File C:\Program Files (x86)\Windows Kits\10\Include\10.0.22000.0\ucrt\wchar.h
; File C:\Program Files (x86)\Microsoft Visual Studio\2019\Community\VC\Tools\MSVC\14.29.30133\include\xlocnum
;	COMDAT ?_Maklocwcs@std@@YAPA_WPB_W@Z
_TEXT	SEGMENT
__Ptr$ = 8						; size = 4
?_Maklocwcs@std@@YAPA_WPB_W@Z PROC			; std::_Maklocwcs, COMDAT

; 85   : inline wchar_t* _Maklocwcs(const wchar_t* _Ptr) { // copy NTWCS to allocated storage

  00000	55		 push	 ebp
  00001	8b ec		 mov	 ebp, esp

; 86   :     const size_t _Count = _CSTD wcslen(_Ptr) + 1;

  00003	8b 45 08	 mov	 eax, DWORD PTR __Ptr$[ebp]
  00006	8d 50 02	 lea	 edx, DWORD PTR [eax+2]
  00009	0f 1f 80 00 00
	00 00		 npad	 7
$LL6@Maklocwcs:
  00010	66 8b 08	 mov	 cx, WORD PTR [eax]
  00013	83 c0 02	 add	 eax, 2
  00016	66 85 c9	 test	 cx, cx
  00019	75 f5		 jne	 SHORT $LL6@Maklocwcs
  0001b	2b c2		 sub	 eax, edx
  0001d	53		 push	 ebx
  0001e	d1 f8		 sar	 eax, 1
  00020	56		 push	 esi

; 87   : 
; 88   :     wchar_t* _Ptrdest = static_cast<wchar_t*>(_calloc_dbg(_Count, sizeof(wchar_t), _CRT_BLOCK, __FILE__, __LINE__));

  00021	6a 02		 push	 2
  00023	8d 58 01	 lea	 ebx, DWORD PTR [eax+1]
  00026	53		 push	 ebx
  00027	ff 15 00 00 00
	00		 call	 DWORD PTR __imp__calloc
  0002d	8b f0		 mov	 esi, eax
  0002f	83 c4 08	 add	 esp, 8

; 89   : 
; 90   :     if (!_Ptrdest) {

  00032	85 f6		 test	 esi, esi
  00034	74 16		 je	 SHORT $LN9@Maklocwcs
; File C:\Program Files (x86)\Windows Kits\10\Include\10.0.22000.0\ucrt\wchar.h

; 236  :         return (wchar_t*)memcpy(_S1, _S2, _N*sizeof(wchar_t));

  00036	8d 04 1b	 lea	 eax, DWORD PTR [ebx+ebx]
  00039	50		 push	 eax
  0003a	ff 75 08	 push	 DWORD PTR __Ptr$[ebp]
  0003d	56		 push	 esi
  0003e	e8 00 00 00 00	 call	 _memcpy
  00043	83 c4 0c	 add	 esp, 12			; 0000000cH
; File C:\Program Files (x86)\Microsoft Visual Studio\2019\Community\VC\Tools\MSVC\14.29.30133\include\xlocnum

; 95   :     return _Ptrdest;

  00046	8b c6		 mov	 eax, esi
  00048	5e		 pop	 esi
  00049	5b		 pop	 ebx

; 96   : }

  0004a	5d		 pop	 ebp
  0004b	c3		 ret	 0
$LN9@Maklocwcs:

; 91   :         _Xbad_alloc();

  0004c	e8 00 00 00 00	 call	 ?_Xbad_alloc@std@@YAXXZ	; std::_Xbad_alloc
$LN7@Maklocwcs:
  00051	cc		 int	 3
?_Maklocwcs@std@@YAPA_WPB_W@Z ENDP			; std::_Maklocwcs
_TEXT	ENDS
; Function compile flags: /Ogtp
; File D:\git\src\IBK\IBK_DRFN\ProjSrc\SrcChartEx\ChartAddIn\ChartDataListViewerAddIn\ChartDataListViewerAddIn\ChartExcelDataImportAddInImp.cpp
; File C:\Program Files (x86)\Microsoft Visual Studio\2019\Community\VC\Tools\MSVC\14.29.30133\atlmfc\include\afx.inl
;	COMDAT ??_GCChartExcelDataImportAddInImp@@UAEPAXI@Z
_TEXT	SEGMENT
___flags$ = 8						; size = 4
??_GCChartExcelDataImportAddInImp@@UAEPAXI@Z PROC	; CChartExcelDataImportAddInImp::`scalar deleting destructor', COMDAT
; _this$ = ecx
  00000	55		 push	 ebp
  00001	8b ec		 mov	 ebp, esp
; File D:\git\src\IBK\IBK_DRFN\ProjSrc\SrcChartEx\ChartAddIn\ChartDataListViewerAddIn\ChartDataListViewerAddIn\ChartExcelDataImportAddInImp.cpp

; 34   : {

  00003	56		 push	 esi
  00004	8b f1		 mov	 esi, ecx
  00006	c7 06 00 00 00
	00		 mov	 DWORD PTR [esi], OFFSET ??_7CChartExcelDataImportAddInImp@@6BCIWUnknown@@@
  0000c	c7 46 08 00 00
	00 00		 mov	 DWORD PTR [esi+8], OFFSET ??_7CChartExcelDataImportAddInImp@@6BIChartAddIn134221@@@

; 35   : 
; 36   : }

  00013	e8 00 00 00 00	 call	 ??1CChartAddInBase134221@@MAE@XZ ; CChartAddInBase134221::~CChartAddInBase134221
  00018	8b 45 08	 mov	 eax, DWORD PTR ___flags$[ebp]
  0001b	a8 01		 test	 al, 1
  0001d	74 1f		 je	 SHORT $LN12@scalar
  0001f	a8 04		 test	 al, 4
  00021	75 10		 jne	 SHORT $LN3@scalar
; File C:\Program Files (x86)\Microsoft Visual Studio\2019\Community\VC\Tools\MSVC\14.29.30133\atlmfc\include\afx.inl

; 112  : 	{ ::operator delete(p); }

  00023	56		 push	 esi
  00024	e8 00 00 00 00	 call	 ??3@YAXPAX@Z		; operator delete
  00029	83 c4 04	 add	 esp, 4
  0002c	8b c6		 mov	 eax, esi
  0002e	5e		 pop	 esi
  0002f	5d		 pop	 ebp
  00030	c2 04 00	 ret	 4
$LN3@scalar:
  00033	6a 44		 push	 68			; 00000044H
  00035	56		 push	 esi
  00036	e8 00 00 00 00	 call	 ?__global_delete@@YAXPAXI@Z ; __global_delete
  0003b	83 c4 08	 add	 esp, 8
$LN12@scalar:
  0003e	8b c6		 mov	 eax, esi
  00040	5e		 pop	 esi
  00041	5d		 pop	 ebp
  00042	c2 04 00	 ret	 4
??_GCChartExcelDataImportAddInImp@@UAEPAXI@Z ENDP	; CChartExcelDataImportAddInImp::`scalar deleting destructor'
_TEXT	ENDS
; Function compile flags: /Ogtp
; File D:\git\src\IBK\IBK_DRFN\ProjSrc\SrcChartEx\ChartAddIn\ChartDataListViewerAddIn\ChartDataListViewerAddIn\ChartExcelDataImportAddInImp.cpp
;	COMDAT ?OnCmdMsg@CChartExcelDataImportAddInImp@@MAEHIHPAUICmdUI134221@@@Z
_TEXT	SEGMENT
_nID$ = 8						; size = 4
_nCode$ = 12						; size = 4
_p_pICmdUI$ = 16					; size = 4
?OnCmdMsg@CChartExcelDataImportAddInImp@@MAEHIHPAUICmdUI134221@@@Z PROC ; CChartExcelDataImportAddInImp::OnCmdMsg, COMDAT
; _this$ = ecx

; 62   : 	return FALSE;

  00000	33 c0		 xor	 eax, eax

; 63   : #if 0	//Tool ID   .	
; 64   : 	if( nID != ID_DLV_SHOW_DATA_LIST_VIEWER) return FALSE;
; 65   : 
; 66   : 	if( CN_UPDATE_COMMAND_UI == nCode)
; 67   : 	{
; 68   : 		CCmdUI *pCmdUI = ( CCmdUI *)pExtra;
; 69   : 		if( !pCmdUI) return FALSE;
; 70   : 		pCmdUI->Enable( TRUE);
; 71   : 		return TRUE;
; 72   : 	}
; 73   : 
; 74   : 	if( CN_COMMAND == nCode)
; 75   : 	{
; 76   : 		OnAddInToolCommand( EAI_OOA_ON_TOOL_FUNCTION, CToolOptionInfo::T_DATALIST_REPORT, 1);
; 77   : 		return TRUE;
; 78   : 	}
; 79   : #endif
; 80   : 	return TRUE;
; 81   : }

  00002	c2 0c 00	 ret	 12			; 0000000cH
?OnCmdMsg@CChartExcelDataImportAddInImp@@MAEHIHPAUICmdUI134221@@@Z ENDP ; CChartExcelDataImportAddInImp::OnCmdMsg
_TEXT	ENDS
; Function compile flags: /Ogtp
; File D:\git\src\IBK\IBK_DRFN\ProjSrc\SrcChartEx\ChartAddIn\ChartDataListViewerAddIn\ChartDataListViewerAddIn\ChartExcelDataImportAddInImp.cpp
;	COMDAT ?OnPacketDataMultiItem@CChartExcelDataImportAddInImp@@MAEXPBD0H@Z
_TEXT	SEGMENT
_lpszRQ$ = 8						; size = 4
_p_szPacketNames$ = 12					; size = 4
_p_bWithReset$ = 16					; size = 4
?OnPacketDataMultiItem@CChartExcelDataImportAddInImp@@MAEXPBD0H@Z PROC ; CChartExcelDataImportAddInImp::OnPacketDataMultiItem, COMDAT
; _this$ = ecx

; 354  : {

  00000	56		 push	 esi
  00001	8b f1		 mov	 esi, ecx

; 355  : 	OnToolCommand( CToolOptionInfo::T_DATALIST_REPORT, 0);

  00003	6a 00		 push	 0
  00005	6a 03		 push	 3
  00007	8b 06		 mov	 eax, DWORD PTR [esi]
  00009	ff 50 78	 call	 DWORD PTR [eax+120]

; 356  : 	OnToolCommand( CToolOptionInfo::T_DATALIST_REPORT, 1);

  0000c	8b 06		 mov	 eax, DWORD PTR [esi]
  0000e	8b ce		 mov	 ecx, esi
  00010	6a 01		 push	 1
  00012	6a 03		 push	 3
  00014	ff 50 78	 call	 DWORD PTR [eax+120]
  00017	5e		 pop	 esi

; 357  : }

  00018	c2 0c 00	 ret	 12			; 0000000cH
?OnPacketDataMultiItem@CChartExcelDataImportAddInImp@@MAEXPBD0H@Z ENDP ; CChartExcelDataImportAddInImp::OnPacketDataMultiItem
_TEXT	ENDS
; Function compile flags: /Ogtp
; File D:\git\src\IBK\IBK_DRFN\ProjSrc\SrcChartEx\ChartAddIn\ChartDataListViewerAddIn\ChartDataListViewerAddIn\ChartExcelDataImportAddInImp.cpp
;	COMDAT ?OnToolCommand@CChartExcelDataImportAddInImp@@MAEXHH@Z
_TEXT	SEGMENT
__ctlState$ = -20					; size = 8
__$EHRec$ = -12						; size = 12
_p_nToolType$ = 8					; size = 4
_p_nCmdOption$ = 12					; size = 4
?OnToolCommand@CChartExcelDataImportAddInImp@@MAEXHH@Z PROC ; CChartExcelDataImportAddInImp::OnToolCommand, COMDAT
; _this$ = ecx

; 84   : {

  00000	55		 push	 ebp
  00001	8b ec		 mov	 ebp, esp
  00003	6a ff		 push	 -1
  00005	68 00 00 00 00	 push	 __ehhandler$?OnToolCommand@CChartExcelDataImportAddInImp@@MAEXHH@Z
  0000a	64 a1 00 00 00
	00		 mov	 eax, DWORD PTR fs:0
  00010	50		 push	 eax
  00011	83 ec 08	 sub	 esp, 8
  00014	56		 push	 esi
  00015	a1 00 00 00 00	 mov	 eax, DWORD PTR ___security_cookie
  0001a	33 c5		 xor	 eax, ebp
  0001c	50		 push	 eax
  0001d	8d 45 f4	 lea	 eax, DWORD PTR __$EHRec$[ebp]
  00020	64 a3 00 00 00
	00		 mov	 DWORD PTR fs:0, eax
  00026	8b f1		 mov	 esi, ecx

; 85   : 	if( CToolOptionInfo::T_EXCEL_IMPORT != p_nToolType) return;

  00028	83 7d 08 73	 cmp	 DWORD PTR _p_nToolType$[ebp], 115 ; 00000073H
  0002c	75 2b		 jne	 SHORT $LN1@OnToolComm

; 86   : 
; 87   : 	if(!p_nCmdOption) return;

  0002e	83 7d 0c 00	 cmp	 DWORD PTR _p_nCmdOption$[ebp], 0
  00032	74 25		 je	 SHORT $LN1@OnToolComm

; 88   : 
; 89   : 	AFX_MANAGE_STATE(AfxGetStaticModuleState());

  00034	e8 00 00 00 00	 call	 ?AfxGetStaticModuleState@@YGPAVAFX_MODULE_STATE@@XZ ; AfxGetStaticModuleState
  00039	50		 push	 eax
  0003a	8d 4d ec	 lea	 ecx, DWORD PTR __ctlState$[ebp]
  0003d	e8 00 00 00 00	 call	 ??0AFX_MAINTAIN_STATE2@@QAE@PAVAFX_MODULE_STATE@@@Z ; AFX_MAINTAIN_STATE2::AFX_MAINTAIN_STATE2

; 90   : 	LoadExcel();	

  00042	8d 4e f8	 lea	 ecx, DWORD PTR [esi-8]
  00045	c7 45 fc 00 00
	00 00		 mov	 DWORD PTR __$EHRec$[ebp+8], 0
  0004c	e8 00 00 00 00	 call	 ?LoadExcel@CChartExcelDataImportAddInImp@@QAEHXZ ; CChartExcelDataImportAddInImp::LoadExcel

; 91   : 
; 92   : 	return;

  00051	8d 4d ec	 lea	 ecx, DWORD PTR __ctlState$[ebp]
  00054	e8 00 00 00 00	 call	 ??1AFX_MAINTAIN_STATE2@@QAE@XZ ; AFX_MAINTAIN_STATE2::~AFX_MAINTAIN_STATE2
$LN1@OnToolComm:

; 93   : }

  00059	8b 4d f4	 mov	 ecx, DWORD PTR __$EHRec$[ebp]
  0005c	64 89 0d 00 00
	00 00		 mov	 DWORD PTR fs:0, ecx
  00063	59		 pop	 ecx
  00064	5e		 pop	 esi
  00065	8b e5		 mov	 esp, ebp
  00067	5d		 pop	 ebp
  00068	c2 08 00	 ret	 8
_TEXT	ENDS
;	COMDAT text$x
text$x	SEGMENT
__unwindfunclet$?OnToolCommand@CChartExcelDataImportAddInImp@@MAEXHH@Z$0:
  00000	8d 4d ec	 lea	 ecx, DWORD PTR __ctlState$[ebp]
  00003	e9 00 00 00 00	 jmp	 ??1AFX_MAINTAIN_STATE2@@QAE@XZ ; AFX_MAINTAIN_STATE2::~AFX_MAINTAIN_STATE2
  00008	cc		 int	 3
  00009	cc		 int	 3
  0000a	cc		 int	 3
  0000b	cc		 int	 3
  0000c	cc		 int	 3
__ehhandler$?OnToolCommand@CChartExcelDataImportAddInImp@@MAEXHH@Z:
  0000d	90		 npad	 1
  0000e	90		 npad	 1
  0000f	8b 54 24 08	 mov	 edx, DWORD PTR [esp+8]
  00013	8d 42 0c	 lea	 eax, DWORD PTR [edx+12]
  00016	8b 4a f0	 mov	 ecx, DWORD PTR [edx-16]
  00019	33 c8		 xor	 ecx, eax
  0001b	e8 00 00 00 00	 call	 @__security_check_cookie@4
  00020	b8 00 00 00 00	 mov	 eax, OFFSET __ehfuncinfo$?OnToolCommand@CChartExcelDataImportAddInImp@@MAEXHH@Z
  00025	e9 00 00 00 00	 jmp	 ___CxxFrameHandler3
text$x	ENDS
?OnToolCommand@CChartExcelDataImportAddInImp@@MAEXHH@Z ENDP ; CChartExcelDataImportAddInImp::OnToolCommand
; Function compile flags: /Ogtp
; File D:\git\src\IBK\IBK_DRFN\ProjSrc\SrcChartEx\ChartAddIn\ChartDataListViewerAddIn\ChartDataListViewerAddIn\ChartExcelDataImportAddInImp.cpp
;	COMDAT ?InvokeAddIn@CChartExcelDataImportAddInImp@@MAEHHJ@Z
_TEXT	SEGMENT
__ctlState$ = -20					; size = 8
__$EHRec$ = -12						; size = 12
_p_nCommandType$ = 8					; size = 4
_p_lData$ = 12						; size = 4
?InvokeAddIn@CChartExcelDataImportAddInImp@@MAEHHJ@Z PROC ; CChartExcelDataImportAddInImp::InvokeAddIn, COMDAT
; _this$ = ecx

; 96   : {

  00000	55		 push	 ebp
  00001	8b ec		 mov	 ebp, esp
  00003	6a ff		 push	 -1
  00005	68 00 00 00 00	 push	 __ehhandler$?InvokeAddIn@CChartExcelDataImportAddInImp@@MAEHHJ@Z
  0000a	64 a1 00 00 00
	00		 mov	 eax, DWORD PTR fs:0
  00010	50		 push	 eax
  00011	83 ec 08	 sub	 esp, 8
  00014	56		 push	 esi
  00015	a1 00 00 00 00	 mov	 eax, DWORD PTR ___security_cookie
  0001a	33 c5		 xor	 eax, ebp
  0001c	50		 push	 eax
  0001d	8d 45 f4	 lea	 eax, DWORD PTR __$EHRec$[ebp]
  00020	64 a3 00 00 00
	00		 mov	 DWORD PTR fs:0, eax
  00026	8b f1		 mov	 esi, ecx

; 97   : 	AFX_MANAGE_STATE( AfxGetStaticModuleState());

  00028	e8 00 00 00 00	 call	 ?AfxGetStaticModuleState@@YGPAVAFX_MODULE_STATE@@XZ ; AfxGetStaticModuleState
  0002d	50		 push	 eax
  0002e	8d 4d ec	 lea	 ecx, DWORD PTR __ctlState$[ebp]
  00031	e8 00 00 00 00	 call	 ??0AFX_MAINTAIN_STATE2@@QAE@PAVAFX_MODULE_STATE@@@Z ; AFX_MAINTAIN_STATE2::AFX_MAINTAIN_STATE2

; 98   : 
; 99   : 	if(  p_nCommandType  != 1) return FALSE;

  00036	83 7d 08 01	 cmp	 DWORD PTR _p_nCommandType$[ebp], 1
  0003a	c7 45 fc 00 00
	00 00		 mov	 DWORD PTR __$EHRec$[ebp+8], 0
  00041	74 04		 je	 SHORT $LN2@InvokeAddI
  00043	33 f6		 xor	 esi, esi
  00045	eb 0a		 jmp	 SHORT $LN5@InvokeAddI
$LN2@InvokeAddI:

; 100  : 
; 101  : 	return LoadExcel();

  00047	8d 4e f8	 lea	 ecx, DWORD PTR [esi-8]
  0004a	e8 00 00 00 00	 call	 ?LoadExcel@CChartExcelDataImportAddInImp@@QAEHXZ ; CChartExcelDataImportAddInImp::LoadExcel
  0004f	8b f0		 mov	 esi, eax
$LN5@InvokeAddI:
  00051	8d 4d ec	 lea	 ecx, DWORD PTR __ctlState$[ebp]
  00054	e8 00 00 00 00	 call	 ??1AFX_MAINTAIN_STATE2@@QAE@XZ ; AFX_MAINTAIN_STATE2::~AFX_MAINTAIN_STATE2
  00059	8b c6		 mov	 eax, esi

; 102  : }

  0005b	8b 4d f4	 mov	 ecx, DWORD PTR __$EHRec$[ebp]
  0005e	64 89 0d 00 00
	00 00		 mov	 DWORD PTR fs:0, ecx
  00065	59		 pop	 ecx
  00066	5e		 pop	 esi
  00067	8b e5		 mov	 esp, ebp
  00069	5d		 pop	 ebp
  0006a	c2 08 00	 ret	 8
_TEXT	ENDS
;	COMDAT text$x
text$x	SEGMENT
__unwindfunclet$?InvokeAddIn@CChartExcelDataImportAddInImp@@MAEHHJ@Z$0:
  00000	8d 4d ec	 lea	 ecx, DWORD PTR __ctlState$[ebp]
  00003	e9 00 00 00 00	 jmp	 ??1AFX_MAINTAIN_STATE2@@QAE@XZ ; AFX_MAINTAIN_STATE2::~AFX_MAINTAIN_STATE2
  00008	cc		 int	 3
  00009	cc		 int	 3
  0000a	cc		 int	 3
  0000b	cc		 int	 3
  0000c	cc		 int	 3
__ehhandler$?InvokeAddIn@CChartExcelDataImportAddInImp@@MAEHHJ@Z:
  0000d	90		 npad	 1
  0000e	90		 npad	 1
  0000f	8b 54 24 08	 mov	 edx, DWORD PTR [esp+8]
  00013	8d 42 0c	 lea	 eax, DWORD PTR [edx+12]
  00016	8b 4a f0	 mov	 ecx, DWORD PTR [edx-16]
  00019	33 c8		 xor	 ecx, eax
  0001b	e8 00 00 00 00	 call	 @__security_check_cookie@4
  00020	b8 00 00 00 00	 mov	 eax, OFFSET __ehfuncinfo$?InvokeAddIn@CChartExcelDataImportAddInImp@@MAEHHJ@Z
  00025	e9 00 00 00 00	 jmp	 ___CxxFrameHandler3
text$x	ENDS
?InvokeAddIn@CChartExcelDataImportAddInImp@@MAEHHJ@Z ENDP ; CChartExcelDataImportAddInImp::InvokeAddIn
; Function compile flags: /Ogtp
; File D:\git\src\IBK\IBK_DRFN\ProjSrc\SrcChartEx\ChartAddIn\ChartDataListViewerAddIn\ChartDataListViewerAddIn\ChartExcelDataImportAddInImp.cpp
; File D:\git\src\IBK\IBK_DRFN\ProjSrc\SrcChartEx\ChartAddIn\ChartDataListViewerAddIn\Include_AddIn_134221\I134221\_IString.h
; File D:\git\src\IBK\IBK_DRFN\ProjSrc\SrcChartEx\ChartAddIn\ChartDataListViewerAddIn\ChartDataListViewerAddIn\ChartExcelDataImportAddInImp.cpp
; File C:\Program Files (x86)\Microsoft Visual Studio\2019\Community\VC\Tools\MSVC\14.29.30133\atlmfc\include\cstringt.h
; File D:\git\src\IBK\IBK_DRFN\ProjSrc\SrcChartEx\ChartAddIn\ChartDataListViewerAddIn\ChartDataListViewerAddIn\ChartExcelDataImportAddInImp.cpp
; File C:\Program Files (x86)\Microsoft Visual Studio\2019\Community\VC\Tools\MSVC\14.29.30133\atlmfc\include\cstringt.h
; File C:\Program Files (x86)\Microsoft Visual Studio\2019\Community\VC\Tools\MSVC\14.29.30133\atlmfc\include\atlsimpstr.h
; File C:\Program Files (x86)\Microsoft Visual Studio\2019\Community\VC\Tools\MSVC\14.29.30133\atlmfc\include\cstringt.h
; File D:\git\src\IBK\IBK_DRFN\ProjSrc\SrcChartEx\ChartAddIn\ChartDataListViewerAddIn\ChartDataListViewerAddIn\ChartExcelDataImportAddInImp.cpp
; File C:\Program Files (x86)\Microsoft Visual Studio\2019\Community\VC\Tools\MSVC\14.29.30133\atlmfc\include\cstringt.h
; File C:\Program Files (x86)\Microsoft Visual Studio\2019\Community\VC\Tools\MSVC\14.29.30133\atlmfc\include\atlsimpstr.h
; File C:\Program Files (x86)\Microsoft Visual Studio\2019\Community\VC\Tools\MSVC\14.29.30133\atlmfc\include\cstringt.h
; File C:\Program Files (x86)\Microsoft Visual Studio\2019\Community\VC\Tools\MSVC\14.29.30133\atlmfc\include\atlsimpstr.h
; File C:\Program Files (x86)\Microsoft Visual Studio\2019\Community\VC\Tools\MSVC\14.29.30133\atlmfc\include\cstringt.h
; File D:\git\src\IBK\IBK_DRFN\ProjSrc\SrcChartEx\ChartAddIn\ChartDataListViewerAddIn\ChartDataListViewerAddIn\ChartExcelDataImportAddInImp.cpp
; File C:\Program Files (x86)\Microsoft Visual Studio\2019\Community\VC\Tools\MSVC\14.29.30133\atlmfc\include\cstringt.h
; File C:\Program Files (x86)\Microsoft Visual Studio\2019\Community\VC\Tools\MSVC\14.29.30133\atlmfc\include\atlsimpstr.h
; File C:\Program Files (x86)\Microsoft Visual Studio\2019\Community\VC\Tools\MSVC\14.29.30133\atlmfc\include\cstringt.h
; File D:\git\src\IBK\IBK_DRFN\ProjSrc\SrcChartEx\ChartAddIn\ChartDataListViewerAddIn\ChartDataListViewerAddIn\ChartExcelDataImportAddInImp.cpp
; File C:\Program Files (x86)\Microsoft Visual Studio\2019\Community\VC\Tools\MSVC\14.29.30133\atlmfc\include\cstringt.h
; File D:\git\src\IBK\IBK_DRFN\ProjSrc\SrcChartEx\ChartAddIn\ChartDataListViewerAddIn\ChartDataListViewerAddIn\ChartExcelDataImportAddInImp.cpp
; File D:\git\src\IBK\IBK_DRFN\ProjSrc\SrcChartEx\ChartAddIn\ChartDataListViewerAddIn\Include_AddIn_134221\I134221\_IString.h
; File D:\git\src\IBK\IBK_DRFN\ProjSrc\SrcChartEx\ChartAddIn\ChartDataListViewerAddIn\ChartDataListViewerAddIn\ChartExcelDataImportAddInImp.cpp
; File C:\Program Files (x86)\Microsoft Visual Studio\2019\Community\VC\Tools\MSVC\14.29.30133\atlmfc\include\cstringt.h
; File D:\git\src\IBK\IBK_DRFN\ProjSrc\SrcChartEx\ChartAddIn\ChartDataListViewerAddIn\ChartDataListViewerAddIn\ChartExcelDataImportAddInImp.cpp
; File C:\Program Files (x86)\Microsoft Visual Studio\2019\Community\VC\Tools\MSVC\14.29.30133\atlmfc\include\cstringt.h
; File D:\git\src\IBK\IBK_DRFN\ProjSrc\SrcChartEx\ChartAddIn\ChartDataListViewerAddIn\ChartDataListViewerAddIn\ChartExcelDataImportAddInImp.cpp
; File C:\Program Files (x86)\Microsoft Visual Studio\2019\Community\VC\Tools\MSVC\14.29.30133\atlmfc\include\cstringt.h
; File D:\git\src\IBK\IBK_DRFN\ProjSrc\SrcChartEx\ChartAddIn\ChartDataListViewerAddIn\ChartDataListViewerAddIn\ChartExcelDataImportAddInImp.cpp
; File C:\Program Files (x86)\Microsoft Visual Studio\2019\Community\VC\Tools\MSVC\14.29.30133\atlmfc\include\cstringt.h
; File D:\git\src\IBK\IBK_DRFN\ProjSrc\SrcChartEx\ChartAddIn\ChartDataListViewerAddIn\ChartDataListViewerAddIn\ChartExcelDataImportAddInImp.cpp
; File C:\Program Files (x86)\Microsoft Visual Studio\2019\Community\VC\Tools\MSVC\14.29.30133\atlmfc\include\cstringt.h
; File D:\git\src\IBK\IBK_DRFN\ProjSrc\SrcChartEx\ChartAddIn\ChartDataListViewerAddIn\ChartDataListViewerAddIn\ChartExcelDataImportAddInImp.cpp
; File C:\Program Files (x86)\Microsoft Visual Studio\2019\Community\VC\Tools\MSVC\14.29.30133\atlmfc\include\cstringt.h
; File D:\git\src\IBK\IBK_DRFN\ProjSrc\SrcChartEx\ChartAddIn\ChartDataListViewerAddIn\ChartDataListViewerAddIn\ChartExcelDataImportAddInImp.cpp
; File C:\Program Files (x86)\Microsoft Visual Studio\2019\Community\VC\Tools\MSVC\14.29.30133\atlmfc\include\cstringt.h
; File D:\git\src\IBK\IBK_DRFN\ProjSrc\SrcChartEx\ChartAddIn\ChartDataListViewerAddIn\ChartDataListViewerAddIn\ChartExcelDataImportAddInImp.cpp
; File C:\Program Files (x86)\Microsoft Visual Studio\2019\Community\VC\Tools\MSVC\14.29.30133\atlmfc\include\cstringt.h
; File D:\git\src\IBK\IBK_DRFN\ProjSrc\SrcChartEx\ChartAddIn\ChartDataListViewerAddIn\ChartDataListViewerAddIn\ChartExcelDataImportAddInImp.cpp
; File C:\Program Files (x86)\Microsoft Visual Studio\2019\Community\VC\Tools\MSVC\14.29.30133\atlmfc\include\cstringt.h
; File D:\git\src\IBK\IBK_DRFN\ProjSrc\SrcChartEx\ChartAddIn\ChartDataListViewerAddIn\ChartDataListViewerAddIn\ChartExcelDataImportAddInImp.cpp
; File D:\git\src\IBK\IBK_DRFN\ProjSrc\SrcChartEx\ChartAddIn\ChartDataListViewerAddIn\Include_AddIn_134221\I134221\_IString.h
; File D:\git\src\IBK\IBK_DRFN\ProjSrc\SrcChartEx\ChartAddIn\ChartDataListViewerAddIn\ChartDataListViewerAddIn\ChartExcelDataImportAddInImp.cpp
; File D:\git\src\IBK\IBK_DRFN\ProjSrc\SrcChartEx\ChartAddIn\ChartDataListViewerAddIn\Include_AddIn_134221\I134221\_IString.h
; File D:\git\src\IBK\IBK_DRFN\ProjSrc\SrcChartEx\ChartAddIn\ChartDataListViewerAddIn\ChartDataListViewerAddIn\ChartExcelDataImportAddInImp.cpp
; File D:\git\src\IBK\IBK_DRFN\ProjSrc\SrcChartEx\ChartAddIn\ChartDataListViewerAddIn\Include_AddIn_134221\I134221\_IString.h
; File D:\git\src\IBK\IBK_DRFN\ProjSrc\SrcChartEx\ChartAddIn\ChartDataListViewerAddIn\ChartDataListViewerAddIn\ChartExcelDataImportAddInImp.cpp
; File C:\Program Files (x86)\Microsoft Visual Studio\2019\Community\VC\Tools\MSVC\14.29.30133\atlmfc\include\cstringt.h
; File D:\git\src\IBK\IBK_DRFN\ProjSrc\SrcChartEx\ChartAddIn\ChartDataListViewerAddIn\ChartDataListViewerAddIn\ChartExcelDataImportAddInImp.cpp
; File C:\Program Files (x86)\Microsoft Visual Studio\2019\Community\VC\Tools\MSVC\14.29.30133\atlmfc\include\cstringt.h
; File D:\git\src\IBK\IBK_DRFN\ProjSrc\SrcChartEx\ChartAddIn\ChartDataListViewerAddIn\ChartDataListViewerAddIn\ChartExcelDataImportAddInImp.cpp
; File C:\Program Files (x86)\Microsoft Visual Studio\2019\Community\VC\Tools\MSVC\14.29.30133\atlmfc\include\cstringt.h
; File D:\git\src\IBK\IBK_DRFN\ProjSrc\SrcChartEx\ChartAddIn\ChartDataListViewerAddIn\ChartDataListViewerAddIn\ChartExcelDataImportAddInImp.cpp
; File C:\Program Files (x86)\Microsoft Visual Studio\2019\Community\VC\Tools\MSVC\14.29.30133\atlmfc\include\cstringt.h
; File D:\git\src\IBK\IBK_DRFN\ProjSrc\SrcChartEx\ChartAddIn\ChartDataListViewerAddIn\ChartDataListViewerAddIn\ChartExcelDataImportAddInImp.cpp
; File C:\Program Files (x86)\Microsoft Visual Studio\2019\Community\VC\Tools\MSVC\14.29.30133\atlmfc\include\cstringt.h
; File D:\git\src\IBK\IBK_DRFN\ProjSrc\SrcChartEx\ChartAddIn\ChartDataListViewerAddIn\ChartDataListViewerAddIn\ChartExcelDataImportAddInImp.cpp
; File C:\Program Files (x86)\Microsoft Visual Studio\2019\Community\VC\Tools\MSVC\14.29.30133\atlmfc\include\cstringt.h
; File D:\git\src\IBK\IBK_DRFN\ProjSrc\SrcChartEx\ChartAddIn\ChartDataListViewerAddIn\ChartDataListViewerAddIn\ChartExcelDataImportAddInImp.cpp
; File C:\Program Files (x86)\Microsoft Visual Studio\2019\Community\VC\Tools\MSVC\14.29.30133\atlmfc\include\cstringt.h
; File D:\git\src\IBK\IBK_DRFN\ProjSrc\SrcChartEx\ChartAddIn\ChartDataListViewerAddIn\ChartDataListViewerAddIn\ChartExcelDataImportAddInImp.cpp
; File C:\Program Files (x86)\Microsoft Visual Studio\2019\Community\VC\Tools\MSVC\14.29.30133\atlmfc\include\cstringt.h
; File D:\git\src\IBK\IBK_DRFN\ProjSrc\SrcChartEx\ChartAddIn\ChartDataListViewerAddIn\ChartDataListViewerAddIn\ChartExcelDataImportAddInImp.cpp
; File C:\Program Files (x86)\Microsoft Visual Studio\2019\Community\VC\Tools\MSVC\14.29.30133\atlmfc\include\cstringt.h
; File D:\git\src\IBK\IBK_DRFN\ProjSrc\SrcChartEx\ChartAddIn\ChartDataListViewerAddIn\ChartDataListViewerAddIn\ChartExcelDataImportAddInImp.cpp
; File C:\Program Files (x86)\Microsoft Visual Studio\2019\Community\VC\Tools\MSVC\14.29.30133\atlmfc\include\atlsimpstr.h
; File D:\git\src\IBK\IBK_DRFN\ProjSrc\SrcChartEx\ChartAddIn\ChartDataListViewerAddIn\ChartDataListViewerAddIn\ChartExcelDataImportAddInImp.cpp
; File C:\Program Files (x86)\Microsoft Visual Studio\2019\Community\VC\Tools\MSVC\14.29.30133\atlmfc\include\atlsimpstr.h
; File D:\git\src\IBK\IBK_DRFN\ProjSrc\SrcChartEx\ChartAddIn\ChartDataListViewerAddIn\ChartDataListViewerAddIn\ChartExcelDataImportAddInImp.cpp
; File D:\git\src\IBK\IBK_DRFN\ProjSrc\SrcChartEx\ChartAddIn\ChartDataListViewerAddIn\Include_AddIn_134221\I134221\_IString.h
; File D:\git\src\IBK\IBK_DRFN\ProjSrc\SrcChartEx\ChartAddIn\ChartDataListViewerAddIn\ChartDataListViewerAddIn\ChartExcelDataImportAddInImp.cpp
; File D:\git\src\IBK\IBK_DRFN\ProjSrc\SrcChartEx\ChartAddIn\ChartDataListViewerAddIn\Include_AddIn_134221\I134221\_IString.h
; File D:\git\src\IBK\IBK_DRFN\ProjSrc\SrcChartEx\ChartAddIn\ChartDataListViewerAddIn\ChartDataListViewerAddIn\ChartExcelDataImportAddInImp.cpp
; File D:\git\src\IBK\IBK_DRFN\ProjSrc\SrcChartEx\ChartAddIn\ChartDataListViewerAddIn\Include_AddIn_134221\I134221\_IString.h
; File D:\git\src\IBK\IBK_DRFN\ProjSrc\SrcChartEx\ChartAddIn\ChartDataListViewerAddIn\ChartDataListViewerAddIn\ChartExcelDataImportAddInImp.cpp
; File D:\git\src\IBK\IBK_DRFN\ProjSrc\SrcChartEx\ChartAddIn\ChartDataListViewerAddIn\Include_AddIn_134221\I134221\_IString.h
; File D:\git\src\IBK\IBK_DRFN\ProjSrc\SrcChartEx\ChartAddIn\ChartDataListViewerAddIn\ChartDataListViewerAddIn\ChartExcelDataImportAddInImp.cpp
;	COMDAT ?LoadExcel@CChartExcelDataImportAddInImp@@QAEHXZ
_TEXT	SEGMENT
__real@0000000000000000$1$ = -2076			; size = 8
$T2 = -2068						; size = 4
_szPacketType$2$ = -2064				; size = 4
_szPacketType$3 = -2060					; size = 8
_szPacketType2$4 = -2052				; size = 8
_strFilter$ = -2044					; size = 4
_maxRows$1$ = -2040					; size = 4
tv2001 = -2036						; size = 4
_pIPacket$1$ = -2032					; size = 4
_strPacketType2$5 = -2028				; size = 4
_pos$6 = -2024						; size = 4
_strFileName$7 = -2020					; size = 4
tv1972 = -2016						; size = 4
_strOutput$8 = -2012					; size = 4
_strInput$9 = -2008					; size = 4
$T10 = -2004						; size = 8
_szPacketType$11 = -2004				; size = 8
_strKey$12 = -1996					; size = 8
_strValue$13 = -1988					; size = 8
_maxCols$1$ = -1980					; size = 4
$T14 = -1980						; size = 4
_strSubMsg$15 = -1976					; size = 4
_strMsg$16 = -1972					; size = 4
_strMsg$17 = -1972					; size = 4
_this$GSCopy$1$ = -1968					; size = 4
$T18 = -1964						; size = 4
tv1985 = -1964						; size = 4
_maxRows$1$ = -1964					; size = 4
$T19 = -1964						; size = 4
_maxCols$1$ = -1960					; size = 4
_SubMsgMap$1$ = -1960					; size = 4
_strDate$20 = -1960					; size = 4
_p_dBuf$1$ = -1956					; size = 4
$T21 = -1956						; size = 4
_strDate$22 = -1956					; size = 4
_i$1$ = -1952						; size = 4
_sheet1$1$ = -1952					; size = 4
tv1970 = -1948						; size = 4
_i$1$ = -1948						; size = 4
$T23 = -1948						; size = 4
_strPacketType$24 = -1944				; size = 4
_strPacketType$25 = -1944				; size = 4
$T26 = -1944						; size = 4
_strPacketName$27 = -1940				; size = 4
_strPacketName$28 = -1940				; size = 4
$T29 = -1940						; size = 4
_e$30 = -1936						; size = 1184
_dlg$ = -752						; size = 736
__$ArrayPad$ = -16					; size = 4
__$EHRec$ = -12						; size = 12
?LoadExcel@CChartExcelDataImportAddInImp@@QAEHXZ PROC	; CChartExcelDataImportAddInImp::LoadExcel, COMDAT
; _this$ = ecx

; 111  : {

  00000	55		 push	 ebp
  00001	8b ec		 mov	 ebp, esp
  00003	6a ff		 push	 -1
  00005	68 00 00 00 00	 push	 __ehhandler$?LoadExcel@CChartExcelDataImportAddInImp@@QAEHXZ
  0000a	64 a1 00 00 00
	00		 mov	 eax, DWORD PTR fs:0
  00010	50		 push	 eax
  00011	81 ec 10 08 00
	00		 sub	 esp, 2064		; 00000810H
  00017	a1 00 00 00 00	 mov	 eax, DWORD PTR ___security_cookie
  0001c	33 c5		 xor	 eax, ebp
  0001e	89 45 f0	 mov	 DWORD PTR __$ArrayPad$[ebp], eax
  00021	53		 push	 ebx
  00022	56		 push	 esi
  00023	57		 push	 edi
  00024	50		 push	 eax
  00025	8d 45 f4	 lea	 eax, DWORD PTR __$EHRec$[ebp]
  00028	64 a3 00 00 00
	00		 mov	 DWORD PTR fs:0, eax
  0002e	8b f9		 mov	 edi, ecx
  00030	89 bd 50 f8 ff
	ff		 mov	 DWORD PTR _this$GSCopy$1$[ebp], edi
  00036	33 c0		 xor	 eax, eax

; 112  : 	CString strFilter = "*.xls";

  00038	8d 8d 04 f8 ff
	ff		 lea	 ecx, DWORD PTR _strFilter$[ebp]
  0003e	68 00 00 00 00	 push	 OFFSET ??_C@_05HNKPHJGL@?$CK?4xls@
  00043	89 85 54 f8 ff
	ff		 mov	 DWORD PTR $T18[ebp], eax
  00049	89 85 5c f8 ff
	ff		 mov	 DWORD PTR $T21[ebp], eax
  0004f	ff 15 00 00 00
	00		 call	 DWORD PTR __imp_??0?$CStringT@DV?$StrTraitMFC_DLL@DV?$ChTraitsCRT@D@ATL@@@@@ATL@@QAE@PBD@Z

; 113  : 
; 114  : 	CFileDialog dlg(TRUE, "*.xls", "*.xls", OFN_FILEMUSTEXIST, strFilter);

  00055	6a 01		 push	 1
  00057	6a 00		 push	 0
  00059	6a 00		 push	 0
  0005b	ff b5 04 f8 ff
	ff		 push	 DWORD PTR _strFilter$[ebp]
  00061	8d 8d 10 fd ff
	ff		 lea	 ecx, DWORD PTR _dlg$[ebp]
  00067	c7 45 fc 00 00
	00 00		 mov	 DWORD PTR __$EHRec$[ebp+8], 0
  0006e	68 00 10 00 00	 push	 4096			; 00001000H
  00073	68 00 00 00 00	 push	 OFFSET ??_C@_05HNKPHJGL@?$CK?4xls@
  00078	68 00 00 00 00	 push	 OFFSET ??_C@_05HNKPHJGL@?$CK?4xls@
  0007d	6a 01		 push	 1
  0007f	e8 00 00 00 00	 call	 ??0CFileDialog@@QAE@HPBD0K0PAVCWnd@@KH@Z ; CFileDialog::CFileDialog

; 115  : 	if(dlg.DoModal() == IDOK)

  00084	8d 8d 10 fd ff
	ff		 lea	 ecx, DWORD PTR _dlg$[ebp]
  0008a	c6 45 fc 01	 mov	 BYTE PTR __$EHRec$[ebp+8], 1
  0008e	e8 00 00 00 00	 call	 ?DoModal@CFileDialog@@UAEHXZ ; CFileDialog::DoModal
  00093	83 f8 01	 cmp	 eax, 1
  00096	0f 85 0a 0d 00
	00		 jne	 $LN16@LoadExcel

; 116  : 	{
; 117  : 		CString strFileName = dlg.GetPathName();

  0009c	8d 85 1c f8 ff
	ff		 lea	 eax, DWORD PTR _strFileName$7[ebp]
  000a2	50		 push	 eax
  000a3	8d 8d 10 fd ff
	ff		 lea	 ecx, DWORD PTR _dlg$[ebp]
  000a9	e8 00 00 00 00	 call	 ?GetPathName@CFileDialog@@QBE?AV?$CStringT@DV?$StrTraitMFC_DLL@DV?$ChTraitsCRT@D@ATL@@@@@ATL@@XZ ; CFileDialog::GetPathName

; 118  : 		BasicExcel e;

  000ae	8d 8d 70 f8 ff
	ff		 lea	 ecx, DWORD PTR _e$30[ebp]
  000b4	c6 45 fc 02	 mov	 BYTE PTR __$EHRec$[ebp+8], 2
  000b8	e8 00 00 00 00	 call	 ??0BasicExcel@YExcel@@QAE@XZ ; YExcel::BasicExcel::BasicExcel

; 119  : 
; 120  : 		if(!e.Load(strFileName)) return FALSE;

  000bd	ff b5 1c f8 ff
	ff		 push	 DWORD PTR _strFileName$7[ebp]
  000c3	8d 8d 70 f8 ff
	ff		 lea	 ecx, DWORD PTR _e$30[ebp]
  000c9	c6 45 fc 03	 mov	 BYTE PTR __$EHRec$[ebp+8], 3
  000cd	e8 00 00 00 00	 call	 ?Load@BasicExcel@YExcel@@QAE_NPBD@Z ; YExcel::BasicExcel::Load
  000d2	84 c0		 test	 al, al
  000d4	75 07		 jne	 SHORT $LN17@LoadExcel
  000d6	33 f6		 xor	 esi, esi
  000d8	e9 4a 06 00 00	 jmp	 $LN80@LoadExcel
$LN17@LoadExcel:

; 121  : 		//BasicExcelWorksheet* sheet1 = e.GetWorksheet("Sheet1");
; 122  : 		size_t iIndex = 0;
; 123  : 		BasicExcelWorksheet* sheet1 = e.GetWorksheet(iIndex);

  000dd	6a 00		 push	 0
  000df	8d 8d 70 f8 ff
	ff		 lea	 ecx, DWORD PTR _e$30[ebp]
  000e5	e8 00 00 00 00	 call	 ?GetWorksheet@BasicExcel@YExcel@@QAEPAVBasicExcelWorksheet@2@I@Z ; YExcel::BasicExcel::GetWorksheet
  000ea	8b d8		 mov	 ebx, eax
  000ec	89 9d 60 f8 ff
	ff		 mov	 DWORD PTR _sheet1$1$[ebp], ebx

; 124  : 		if (sheet1)

  000f2	85 db		 test	 ebx, ebx
  000f4	0f 84 95 0c 00
	00		 je	 $LN18@LoadExcel

; 125  : 		{
; 126  : 			// import start
; 127  : 			//////////////////////////////////////////////////////////////////////////
; 128  : 			//   
; 129  : 			IHelpMessageMap *SubMsgMap = m_pIDefaultPacketManager->GetHelpMessageMap();

  000fa	8b 4f 24	 mov	 ecx, DWORD PTR [edi+36]
  000fd	8b 11		 mov	 edx, DWORD PTR [ecx]
  000ff	ff 52 30	 call	 DWORD PTR [edx+48]
  00102	8b f0		 mov	 esi, eax

; 130  : 			CString strSubMsg;

  00104	8d 8d 48 f8 ff
	ff		 lea	 ecx, DWORD PTR _strSubMsg$15[ebp]
  0010a	89 b5 58 f8 ff
	ff		 mov	 DWORD PTR _SubMsgMap$1$[ebp], esi
  00110	ff 15 00 00 00
	00		 call	 DWORD PTR __imp_??0?$CStringT@DV?$StrTraitMFC_DLL@DV?$ChTraitsCRT@D@ATL@@@@@ATL@@QAE@XZ
; File D:\git\src\IBK\IBK_DRFN\ProjSrc\SrcChartEx\ChartAddIn\ChartDataListViewerAddIn\Include_AddIn_134221\I134221\_IString.h

; 34   : 		m_szData = NULL;

  00116	c7 85 34 f8 ff
	ff 00 00 00 00	 mov	 DWORD PTR _strKey$12[ebp], 0

; 35   : 		m_pIStrData = NULL;

  00120	c7 85 38 f8 ff
	ff 00 00 00 00	 mov	 DWORD PTR _strKey$12[ebp+4], 0

; 34   : 		m_szData = NULL;

  0012a	c7 85 3c f8 ff
	ff 00 00 00 00	 mov	 DWORD PTR _strValue$13[ebp], 0

; 35   : 		m_pIStrData = NULL;

  00134	c7 85 40 f8 ff
	ff 00 00 00 00	 mov	 DWORD PTR _strValue$13[ebp+4], 0
; File D:\git\src\IBK\IBK_DRFN\ProjSrc\SrcChartEx\ChartAddIn\ChartDataListViewerAddIn\ChartDataListViewerAddIn\ChartExcelDataImportAddInImp.cpp

; 132  : 			POSITION pos  = SubMsgMap->GetStartPosition();

  0013e	8b 06		 mov	 eax, DWORD PTR [esi]
  00140	8b ce		 mov	 ecx, esi
  00142	c6 45 fc 06	 mov	 BYTE PTR __$EHRec$[ebp+8], 6
  00146	ff 50 20	 call	 DWORD PTR [eax+32]
  00149	89 85 18 f8 ff
	ff		 mov	 DWORD PTR _pos$6[ebp], eax

; 133  : 			while (pos)

  0014f	85 c0		 test	 eax, eax
  00151	0f 84 99 01 00
	00		 je	 $LN3@LoadExcel
  00157	8b 9d 54 f8 ff
	ff		 mov	 ebx, DWORD PTR $T18[ebp]
  0015d	0f 1f 00	 npad	 3
$LL2@LoadExcel:

; 134  : 			{
; 135  : 				SubMsgMap->GetNextAssoc(pos, strKey, strValue);

  00160	8b 06		 mov	 eax, DWORD PTR [esi]
  00162	8d 8d 3c f8 ff
	ff		 lea	 ecx, DWORD PTR _strValue$13[ebp]
  00168	51		 push	 ecx
  00169	8d 8d 34 f8 ff
	ff		 lea	 ecx, DWORD PTR _strKey$12[ebp]
  0016f	51		 push	 ecx
  00170	8d 8d 18 f8 ff
	ff		 lea	 ecx, DWORD PTR _pos$6[ebp]
  00176	51		 push	 ecx
  00177	8b ce		 mov	 ecx, esi
  00179	ff 50 24	 call	 DWORD PTR [eax+36]

; 136  : 				strSubMsg.Insert(0,CString(strKey) + "=" + CString(strValue) + "@");

  0017c	ff b5 3c f8 ff
	ff		 push	 DWORD PTR _strValue$13[ebp]
  00182	8d 8d 44 f8 ff
	ff		 lea	 ecx, DWORD PTR $T14[ebp]
  00188	ff 15 00 00 00
	00		 call	 DWORD PTR __imp_??0?$CStringT@DV?$StrTraitMFC_DLL@DV?$ChTraitsCRT@D@ATL@@@@@ATL@@QAE@PBD@Z
  0018e	8b f8		 mov	 edi, eax
  00190	ff b5 34 f8 ff
	ff		 push	 DWORD PTR _strKey$12[ebp]
  00196	8d 8d 54 f8 ff
	ff		 lea	 ecx, DWORD PTR $T19[ebp]
  0019c	c6 45 fc 07	 mov	 BYTE PTR __$EHRec$[ebp+8], 7
  001a0	ff 15 00 00 00
	00		 call	 DWORD PTR __imp_??0?$CStringT@DV?$StrTraitMFC_DLL@DV?$ChTraitsCRT@D@ATL@@@@@ATL@@QAE@PBD@Z
  001a6	8b f0		 mov	 esi, eax
; File C:\Program Files (x86)\Microsoft Visual Studio\2019\Community\VC\Tools\MSVC\14.29.30133\atlmfc\include\cstringt.h

; 2401 : 		CStringT strResult( str1.GetManager() );

  001a8	8b ce		 mov	 ecx, esi
; File D:\git\src\IBK\IBK_DRFN\ProjSrc\SrcChartEx\ChartAddIn\ChartDataListViewerAddIn\ChartDataListViewerAddIn\ChartExcelDataImportAddInImp.cpp

; 136  : 				strSubMsg.Insert(0,CString(strKey) + "=" + CString(strValue) + "@");

  001aa	c6 45 fc 09	 mov	 BYTE PTR __$EHRec$[ebp+8], 9
; File C:\Program Files (x86)\Microsoft Visual Studio\2019\Community\VC\Tools\MSVC\14.29.30133\atlmfc\include\cstringt.h

; 2401 : 		CStringT strResult( str1.GetManager() );

  001ae	ff 15 00 00 00
	00		 call	 DWORD PTR __imp_?GetManager@?$CStringT@DV?$StrTraitMFC_DLL@DV?$ChTraitsCRT@D@ATL@@@@@ATL@@QBEPAUIAtlStringMgr@2@XZ
  001b4	50		 push	 eax
  001b5	8d 8d 68 f8 ff
	ff		 lea	 ecx, DWORD PTR $T26[ebp]
  001bb	ff 15 00 00 00
	00		 call	 DWORD PTR __imp_??0?$CStringT@DV?$StrTraitMFC_DLL@DV?$ChTraitsCRT@D@ATL@@@@@ATL@@QAE@PAUIAtlStringMgr@1@@Z
; File C:\Program Files (x86)\Microsoft Visual Studio\2019\Community\VC\Tools\MSVC\14.29.30133\atlmfc\include\atlsimpstr.h

; 519  : 		return( GetData()->nDataLength );

  001c1	8b 06		 mov	 eax, DWORD PTR [esi]
; File C:\Program Files (x86)\Microsoft Visual Studio\2019\Community\VC\Tools\MSVC\14.29.30133\atlmfc\include\cstringt.h

; 2405 : 		return( strResult );

  001c3	83 cb 01	 or	 ebx, 1
  001c6	6a 01		 push	 1
  001c8	68 00 00 00 00	 push	 OFFSET ??_C@_01NEMOKFLO@?$DN@
  001cd	89 9d 5c f8 ff
	ff		 mov	 DWORD PTR $T21[ebp], ebx
  001d3	ff 70 f4	 push	 DWORD PTR [eax-12]
  001d6	50		 push	 eax
  001d7	8d 85 68 f8 ff
	ff		 lea	 eax, DWORD PTR $T26[ebp]
  001dd	50		 push	 eax
  001de	ff 15 00 00 00
	00		 call	 DWORD PTR __imp_?Concatenate@?$CSimpleStringT@D$00@ATL@@KAXAAV12@PBDH1H@Z
  001e4	83 c4 14	 add	 esp, 20			; 00000014H

; 2390 : 		CStringT strResult( str1.GetManager() );

  001e7	8d 8d 68 f8 ff
	ff		 lea	 ecx, DWORD PTR $T26[ebp]
; File D:\git\src\IBK\IBK_DRFN\ProjSrc\SrcChartEx\ChartAddIn\ChartDataListViewerAddIn\ChartDataListViewerAddIn\ChartExcelDataImportAddInImp.cpp

; 136  : 				strSubMsg.Insert(0,CString(strKey) + "=" + CString(strValue) + "@");

  001ed	c6 45 fc 0a	 mov	 BYTE PTR __$EHRec$[ebp+8], 10 ; 0000000aH
; File C:\Program Files (x86)\Microsoft Visual Studio\2019\Community\VC\Tools\MSVC\14.29.30133\atlmfc\include\cstringt.h

; 2390 : 		CStringT strResult( str1.GetManager() );

  001f1	ff 15 00 00 00
	00		 call	 DWORD PTR __imp_?GetManager@?$CStringT@DV?$StrTraitMFC_DLL@DV?$ChTraitsCRT@D@ATL@@@@@ATL@@QBEPAUIAtlStringMgr@2@XZ
  001f7	50		 push	 eax
  001f8	8d 8d 64 f8 ff
	ff		 lea	 ecx, DWORD PTR $T23[ebp]
  001fe	ff 15 00 00 00
	00		 call	 DWORD PTR __imp_??0?$CStringT@DV?$StrTraitMFC_DLL@DV?$ChTraitsCRT@D@ATL@@@@@ATL@@QAE@PAUIAtlStringMgr@1@@Z
; File C:\Program Files (x86)\Microsoft Visual Studio\2019\Community\VC\Tools\MSVC\14.29.30133\atlmfc\include\atlsimpstr.h

; 519  : 		return( GetData()->nDataLength );

  00204	8b 0f		 mov	 ecx, DWORD PTR [edi]
; File C:\Program Files (x86)\Microsoft Visual Studio\2019\Community\VC\Tools\MSVC\14.29.30133\atlmfc\include\cstringt.h

; 2394 : 		return( strResult );

  00206	83 cb 02	 or	 ebx, 2
; File C:\Program Files (x86)\Microsoft Visual Studio\2019\Community\VC\Tools\MSVC\14.29.30133\atlmfc\include\atlsimpstr.h

; 519  : 		return( GetData()->nDataLength );

  00209	8b 85 68 f8 ff
	ff		 mov	 eax, DWORD PTR $T26[ebp]
; File C:\Program Files (x86)\Microsoft Visual Studio\2019\Community\VC\Tools\MSVC\14.29.30133\atlmfc\include\cstringt.h

; 2394 : 		return( strResult );

  0020f	89 9d 5c f8 ff
	ff		 mov	 DWORD PTR $T21[ebp], ebx
  00215	ff 71 f4	 push	 DWORD PTR [ecx-12]
  00218	51		 push	 ecx
  00219	ff 70 f4	 push	 DWORD PTR [eax-12]
  0021c	50		 push	 eax
  0021d	8d 85 64 f8 ff
	ff		 lea	 eax, DWORD PTR $T23[ebp]
  00223	50		 push	 eax
  00224	ff 15 00 00 00
	00		 call	 DWORD PTR __imp_?Concatenate@?$CSimpleStringT@D$00@ATL@@KAXAAV12@PBDH1H@Z
  0022a	83 c4 14	 add	 esp, 20			; 00000014H

; 2401 : 		CStringT strResult( str1.GetManager() );

  0022d	8d 8d 64 f8 ff
	ff		 lea	 ecx, DWORD PTR $T23[ebp]
; File D:\git\src\IBK\IBK_DRFN\ProjSrc\SrcChartEx\ChartAddIn\ChartDataListViewerAddIn\ChartDataListViewerAddIn\ChartExcelDataImportAddInImp.cpp

; 136  : 				strSubMsg.Insert(0,CString(strKey) + "=" + CString(strValue) + "@");

  00233	c6 45 fc 0b	 mov	 BYTE PTR __$EHRec$[ebp+8], 11 ; 0000000bH
; File C:\Program Files (x86)\Microsoft Visual Studio\2019\Community\VC\Tools\MSVC\14.29.30133\atlmfc\include\cstringt.h

; 2401 : 		CStringT strResult( str1.GetManager() );

  00237	ff 15 00 00 00
	00		 call	 DWORD PTR __imp_?GetManager@?$CStringT@DV?$StrTraitMFC_DLL@DV?$ChTraitsCRT@D@ATL@@@@@ATL@@QBEPAUIAtlStringMgr@2@XZ
  0023d	50		 push	 eax
  0023e	8d 8d 6c f8 ff
	ff		 lea	 ecx, DWORD PTR $T29[ebp]
  00244	ff 15 00 00 00
	00		 call	 DWORD PTR __imp_??0?$CStringT@DV?$StrTraitMFC_DLL@DV?$ChTraitsCRT@D@ATL@@@@@ATL@@QAE@PAUIAtlStringMgr@1@@Z
; File C:\Program Files (x86)\Microsoft Visual Studio\2019\Community\VC\Tools\MSVC\14.29.30133\atlmfc\include\atlsimpstr.h

; 519  : 		return( GetData()->nDataLength );

  0024a	8b 85 64 f8 ff
	ff		 mov	 eax, DWORD PTR $T23[ebp]
; File C:\Program Files (x86)\Microsoft Visual Studio\2019\Community\VC\Tools\MSVC\14.29.30133\atlmfc\include\cstringt.h

; 2405 : 		return( strResult );

  00250	83 cb 04	 or	 ebx, 4
  00253	6a 01		 push	 1
  00255	68 00 00 00 00	 push	 OFFSET ??_C@_01EOFPKCAF@?$EA@
  0025a	89 9d 5c f8 ff
	ff		 mov	 DWORD PTR $T21[ebp], ebx
  00260	ff 70 f4	 push	 DWORD PTR [eax-12]
  00263	50		 push	 eax
  00264	8d 85 6c f8 ff
	ff		 lea	 eax, DWORD PTR $T29[ebp]
  0026a	50		 push	 eax
  0026b	ff 15 00 00 00
	00		 call	 DWORD PTR __imp_?Concatenate@?$CSimpleStringT@D$00@ATL@@KAXAAV12@PBDH1H@Z
  00271	83 c4 14	 add	 esp, 20			; 00000014H
; File D:\git\src\IBK\IBK_DRFN\ProjSrc\SrcChartEx\ChartAddIn\ChartDataListViewerAddIn\ChartDataListViewerAddIn\ChartExcelDataImportAddInImp.cpp

; 136  : 				strSubMsg.Insert(0,CString(strKey) + "=" + CString(strValue) + "@");

  00274	8d 8d 48 f8 ff
	ff		 lea	 ecx, DWORD PTR _strSubMsg$15[ebp]
  0027a	ff b5 6c f8 ff
	ff		 push	 DWORD PTR $T29[ebp]
  00280	6a 00		 push	 0
  00282	ff 15 00 00 00
	00		 call	 DWORD PTR __imp_?Insert@?$CStringT@DV?$StrTraitMFC_DLL@DV?$ChTraitsCRT@D@ATL@@@@@ATL@@QAEHHPBD@Z
  00288	83 e3 fb	 and	 ebx, -5			; fffffffbH
  0028b	8d 8d 6c f8 ff
	ff		 lea	 ecx, DWORD PTR $T29[ebp]
  00291	ff 15 00 00 00
	00		 call	 DWORD PTR __imp_??1?$CStringT@DV?$StrTraitMFC_DLL@DV?$ChTraitsCRT@D@ATL@@@@@ATL@@QAE@XZ
  00297	8d 8d 64 f8 ff
	ff		 lea	 ecx, DWORD PTR $T23[ebp]
  0029d	83 e3 fd	 and	 ebx, -3			; fffffffdH
  002a0	ff 15 00 00 00
	00		 call	 DWORD PTR __imp_??1?$CStringT@DV?$StrTraitMFC_DLL@DV?$ChTraitsCRT@D@ATL@@@@@ATL@@QAE@XZ
  002a6	8d 8d 68 f8 ff
	ff		 lea	 ecx, DWORD PTR $T26[ebp]
  002ac	83 e3 fe	 and	 ebx, -2			; fffffffeH
  002af	ff 15 00 00 00
	00		 call	 DWORD PTR __imp_??1?$CStringT@DV?$StrTraitMFC_DLL@DV?$ChTraitsCRT@D@ATL@@@@@ATL@@QAE@XZ
  002b5	8d 8d 54 f8 ff
	ff		 lea	 ecx, DWORD PTR $T19[ebp]
  002bb	ff 15 00 00 00
	00		 call	 DWORD PTR __imp_??1?$CStringT@DV?$StrTraitMFC_DLL@DV?$ChTraitsCRT@D@ATL@@@@@ATL@@QAE@XZ
  002c1	8d 8d 44 f8 ff
	ff		 lea	 ecx, DWORD PTR $T14[ebp]
  002c7	c6 45 fc 06	 mov	 BYTE PTR __$EHRec$[ebp+8], 6
  002cb	ff 15 00 00 00
	00		 call	 DWORD PTR __imp_??1?$CStringT@DV?$StrTraitMFC_DLL@DV?$ChTraitsCRT@D@ATL@@@@@ATL@@QAE@XZ
  002d1	83 bd 18 f8 ff
	ff 00		 cmp	 DWORD PTR _pos$6[ebp], 0
  002d8	8b b5 58 f8 ff
	ff		 mov	 esi, DWORD PTR _SubMsgMap$1$[ebp]
  002de	0f 85 7c fe ff
	ff		 jne	 $LL2@LoadExcel
  002e4	8b 9d 60 f8 ff
	ff		 mov	 ebx, DWORD PTR _sheet1$1$[ebp]
  002ea	8b bd 50 f8 ff
	ff		 mov	 edi, DWORD PTR _this$GSCopy$1$[ebp]
$LN3@LoadExcel:

; 137  : 			}
; 138  : 			SubMsgMap->Release();

  002f0	8b 06		 mov	 eax, DWORD PTR [esi]
  002f2	56		 push	 esi
  002f3	ff 50 08	 call	 DWORD PTR [eax+8]
; File C:\Program Files (x86)\Microsoft Visual Studio\2019\Community\VC\Tools\MSVC\14.29.30133\atlmfc\include\cstringt.h

; 2486 : 		return(str1.Compare(psz2) == 0);

  002f6	68 00 00 00 00	 push	 OFFSET ??_C@_00CNPNBAHC@@
  002fb	8d 8d 48 f8 ff
	ff		 lea	 ecx, DWORD PTR _strSubMsg$15[ebp]
  00301	ff 15 00 00 00
	00		 call	 DWORD PTR __imp_?Compare@?$CStringT@DV?$StrTraitMFC_DLL@DV?$ChTraitsCRT@D@ATL@@@@@ATL@@QBEHPBD@Z
  00307	85 c0		 test	 eax, eax
; File D:\git\src\IBK\IBK_DRFN\ProjSrc\SrcChartEx\ChartAddIn\ChartDataListViewerAddIn\ChartDataListViewerAddIn\ChartExcelDataImportAddInImp.cpp

; 141  : 			if(strSubMsg == "")	//     .

  00309	0f 85 34 04 00
	00		 jne	 $LN19@LoadExcel

; 142  : 			{
; 143  : 				size_t maxRows = sheet1->GetTotalRows();

  0030f	8b cb		 mov	 ecx, ebx
  00311	e8 00 00 00 00	 call	 ?GetTotalRows@BasicExcelWorksheet@YExcel@@QAEIXZ ; YExcel::BasicExcelWorksheet::GetTotalRows

; 144  : 				size_t maxCols = sheet1->GetTotalCols();

  00316	8b cb		 mov	 ecx, ebx
  00318	89 85 54 f8 ff
	ff		 mov	 DWORD PTR _maxRows$1$[ebp], eax
  0031e	e8 00 00 00 00	 call	 ?GetTotalCols@BasicExcelWorksheet@YExcel@@QAEIXZ ; YExcel::BasicExcelWorksheet::GetTotalCols

; 145  : 				BasicExcelCell* CellPacketName;
; 146  : 				CString strPacketName;

  00323	8d 8d 6c f8 ff
	ff		 lea	 ecx, DWORD PTR _strPacketName$28[ebp]
  00329	89 85 58 f8 ff
	ff		 mov	 DWORD PTR _maxCols$1$[ebp], eax
  0032f	ff 15 00 00 00
	00		 call	 DWORD PTR __imp_??0?$CStringT@DV?$StrTraitMFC_DLL@DV?$ChTraitsCRT@D@ATL@@@@@ATL@@QAE@XZ

; 147  : 
; 148  : 				// data import
; 149  : 				for(int i=0;i<maxCols;i++)

  00335	33 f6		 xor	 esi, esi
  00337	c6 45 fc 0c	 mov	 BYTE PTR __$EHRec$[ebp+8], 12 ; 0000000cH
  0033b	89 b5 64 f8 ff
	ff		 mov	 DWORD PTR _i$1$[ebp], esi
  00341	39 b5 58 f8 ff
	ff		 cmp	 DWORD PTR _maxCols$1$[ebp], esi
  00347	0f 86 da 09 00
	00		 jbe	 $LN5@LoadExcel
  0034d	0f 1f 00	 npad	 3
$LL6@LoadExcel:

; 150  : 				{
; 151  : 					// Packet  
; 152  : 					strPacketName = "";

  00350	68 00 00 00 00	 push	 OFFSET ??_C@_00CNPNBAHC@@
  00355	8d 8d 6c f8 ff
	ff		 lea	 ecx, DWORD PTR _strPacketName$28[ebp]
  0035b	ff 15 00 00 00
	00		 call	 DWORD PTR __imp_??4?$CStringT@DV?$StrTraitMFC_DLL@DV?$ChTraitsCRT@D@ATL@@@@@ATL@@QAEAAV01@PBD@Z

; 153  : 					CellPacketName = sheet1->Cell(0,i);

  00361	56		 push	 esi
  00362	6a 00		 push	 0
  00364	8b cb		 mov	 ecx, ebx
  00366	e8 00 00 00 00	 call	 ?Cell@BasicExcelWorksheet@YExcel@@QAEPAVBasicExcelCell@2@II@Z ; YExcel::BasicExcelWorksheet::Cell

; 154  : 					strPacketName = CellPacketName->GetWString();

  0036b	8b c8		 mov	 ecx, eax
  0036d	e8 00 00 00 00	 call	 ?GetWString@BasicExcelCell@YExcel@@QBEPB_WXZ ; YExcel::BasicExcelCell::GetWString
  00372	50		 push	 eax
  00373	8d 8d 6c f8 ff
	ff		 lea	 ecx, DWORD PTR _strPacketName$28[ebp]
  00379	ff 15 00 00 00
	00		 call	 DWORD PTR __imp_??4?$CStringT@DV?$StrTraitMFC_DLL@DV?$ChTraitsCRT@D@ATL@@@@@ATL@@QAEAAV01@PB_W@Z

; 155  : 					
; 156  : 					IPacket *pIPacket = NULL;
; 157  : 					// if(strPacketName.Find("") >= 0)
; 158  : 					CString strDate;

  0037f	8d 8d 5c f8 ff
	ff		 lea	 ecx, DWORD PTR _strDate$22[ebp]
  00385	ff 15 00 00 00
	00		 call	 DWORD PTR __imp_??0?$CStringT@DV?$StrTraitMFC_DLL@DV?$ChTraitsCRT@D@ATL@@@@@ATL@@QAE@XZ

; 159  : 					strDate.LoadString(IDS_DATE);

  0038b	6a 04		 push	 4
  0038d	8d 8d 5c f8 ff
	ff		 lea	 ecx, DWORD PTR _strDate$22[ebp]
  00393	c6 45 fc 0d	 mov	 BYTE PTR __$EHRec$[ebp+8], 13 ; 0000000dH
  00397	ff 15 00 00 00
	00		 call	 DWORD PTR __imp_?LoadStringA@?$CStringT@DV?$StrTraitMFC_DLL@DV?$ChTraitsCRT@D@ATL@@@@@ATL@@QAEHI@Z

; 160  : 					if(strPacketName.Find(strDate) >= 0)

  0039d	6a 00		 push	 0
  0039f	ff b5 5c f8 ff
	ff		 push	 DWORD PTR _strDate$22[ebp]
  003a5	8d 8d 6c f8 ff
	ff		 lea	 ecx, DWORD PTR _strPacketName$28[ebp]
  003ab	ff 15 00 00 00
	00		 call	 DWORD PTR __imp_?Find@?$CStringT@DV?$StrTraitMFC_DLL@DV?$ChTraitsCRT@D@ATL@@@@@ATL@@QBEHPBDH@Z
  003b1	85 c0		 test	 eax, eax
  003b3	a1 54 00 00 00	 mov	 eax, DWORD PTR ?g_iMetaTable@@3VIMetaTable@@A+84
  003b8	78 25		 js	 SHORT $LN21@LoadExcel

; 161  : 					{
; 162  : 						//pIPacket = m_pIDefaultPacketManager->GetPacket("");
; 163  : 						//strPacketName = "";
; 164  : 						pIPacket = m_pIDefaultPacketManager->GetPacket(_MTEXT(C0_DATE_TIME));

  003ba	8b 4f 24	 mov	 ecx, DWORD PTR [edi+36]
  003bd	ff 30		 push	 DWORD PTR [eax]
  003bf	8b 11		 mov	 edx, DWORD PTR [ecx]
  003c1	ff 52 14	 call	 DWORD PTR [edx+20]

; 165  : 						strPacketName = _MTEXT(C0_DATE_TIME);

  003c4	8b 0d 54 00 00
	00		 mov	 ecx, DWORD PTR ?g_iMetaTable@@3VIMetaTable@@A+84
  003ca	8b f8		 mov	 edi, eax
  003cc	ff 31		 push	 DWORD PTR [ecx]
  003ce	8d 8d 6c f8 ff
	ff		 lea	 ecx, DWORD PTR _strPacketName$28[ebp]
  003d4	ff 15 00 00 00
	00		 call	 DWORD PTR __imp_??4?$CStringT@DV?$StrTraitMFC_DLL@DV?$ChTraitsCRT@D@ATL@@@@@ATL@@QAEAAV01@PBD@Z

; 166  : 					}

  003da	e9 86 00 00 00	 jmp	 $LN24@LoadExcel
$LN21@LoadExcel:

; 167  : 					// else if(strPacketName.Find("") >= 0)	
; 168  : 					else if(strPacketName.Find( _LTEXT3( C3_VOLUME)) >= 0)	

  003df	6a 00		 push	 0
  003e1	6a 00		 push	 0
  003e3	ff b0 c4 04 00
	00		 push	 DWORD PTR [eax+1220]
  003e9	b9 00 00 00 00	 mov	 ecx, OFFSET ?g_iMetaTable@@3VIMetaTable@@A ; g_iMetaTable
  003ee	6a 03		 push	 3
  003f0	ff 77 40	 push	 DWORD PTR [edi+64]
  003f3	e8 00 00 00 00	 call	 ?GetLanguageText@IMetaTable@@QAEPBDPAUHWND__@@W4E_CODEPAGE@1@PBDH@Z ; IMetaTable::GetLanguageText
  003f8	50		 push	 eax
  003f9	8d 8d 6c f8 ff
	ff		 lea	 ecx, DWORD PTR _strPacketName$28[ebp]
  003ff	ff 15 00 00 00
	00		 call	 DWORD PTR __imp_?Find@?$CStringT@DV?$StrTraitMFC_DLL@DV?$ChTraitsCRT@D@ATL@@@@@ATL@@QBEHPBDH@Z
  00405	85 c0		 test	 eax, eax
  00407	78 28		 js	 SHORT $LN23@LoadExcel

; 169  : 					{
; 170  : 						//pIPacket = m_pIDefaultPacketManager->GetPacket("");
; 171  : 						//strPacketName = "";
; 172  : 						pIPacket = m_pIDefaultPacketManager->GetPacket(_MTEXT(C0_VOLUME));

  00409	8b 4f 24	 mov	 ecx, DWORD PTR [edi+36]
  0040c	a1 54 00 00 00	 mov	 eax, DWORD PTR ?g_iMetaTable@@3VIMetaTable@@A+84
  00411	8b 11		 mov	 edx, DWORD PTR [ecx]
  00413	ff 70 1c	 push	 DWORD PTR [eax+28]
  00416	ff 52 14	 call	 DWORD PTR [edx+20]
  00419	8b f8		 mov	 edi, eax

; 173  : 						strPacketName = _MTEXT(C0_VOLUME);

  0041b	8d 8d 6c f8 ff
	ff		 lea	 ecx, DWORD PTR _strPacketName$28[ebp]
  00421	a1 54 00 00 00	 mov	 eax, DWORD PTR ?g_iMetaTable@@3VIMetaTable@@A+84
  00426	ff 70 1c	 push	 DWORD PTR [eax+28]
  00429	ff 15 00 00 00
	00		 call	 DWORD PTR __imp_??4?$CStringT@DV?$StrTraitMFC_DLL@DV?$ChTraitsCRT@D@ATL@@@@@ATL@@QAEAAV01@PBD@Z

; 174  : 					}

  0042f	eb 34		 jmp	 SHORT $LN24@LoadExcel
$LN23@LoadExcel:

; 175  : 					else
; 176  : 					{
; 177  : 						strPacketName = _LTOM0( strPacketName);

  00431	6a 00		 push	 0
  00433	ff b5 6c f8 ff
	ff		 push	 DWORD PTR _strPacketName$28[ebp]
  00439	b9 00 00 00 00	 mov	 ecx, OFFSET ?g_iMetaTable@@3VIMetaTable@@A ; g_iMetaTable
  0043e	6a 00		 push	 0
  00440	ff 77 40	 push	 DWORD PTR [edi+64]
  00443	e8 00 00 00 00	 call	 ?GetMetaText@IMetaTable@@QAEPBDPAUHWND__@@W4E_CODEPAGE@1@PBDH@Z ; IMetaTable::GetMetaText
  00448	50		 push	 eax
  00449	8d 8d 6c f8 ff
	ff		 lea	 ecx, DWORD PTR _strPacketName$28[ebp]
  0044f	ff 15 00 00 00
	00		 call	 DWORD PTR __imp_??4?$CStringT@DV?$StrTraitMFC_DLL@DV?$ChTraitsCRT@D@ATL@@@@@ATL@@QAEAAV01@PBD@Z

; 178  : 						pIPacket = m_pIDefaultPacketManager->GetPacket( strPacketName);

  00455	8b 4f 24	 mov	 ecx, DWORD PTR [edi+36]
  00458	ff b5 6c f8 ff
	ff		 push	 DWORD PTR _strPacketName$28[ebp]
  0045e	8b 01		 mov	 eax, DWORD PTR [ecx]
  00460	ff 50 14	 call	 DWORD PTR [eax+20]
  00463	8b f8		 mov	 edi, eax
$LN24@LoadExcel:

; 179  : 					}
; 180  : 
; 181  : 					if(!pIPacket)

  00465	85 ff		 test	 edi, edi
  00467	0f 84 41 02 00
	00		 je	 $LN247@LoadExcel

; 188  : 					}
; 189  : 
; 190  : 					pIPacket->ClearData(true);

  0046d	8b 07		 mov	 eax, DWORD PTR [edi]
  0046f	8b cf		 mov	 ecx, edi
  00471	6a 01		 push	 1
  00473	ff 50 50	 call	 DWORD PTR [eax+80]

; 191  : 					ILPCSTR szPacketType = pIPacket->GetType();

  00476	8b 07		 mov	 eax, DWORD PTR [edi]
  00478	8b cf		 mov	 ecx, edi
  0047a	6a 01		 push	 1
  0047c	ff 50 1c	 call	 DWORD PTR [eax+28]
; File D:\git\src\IBK\IBK_DRFN\ProjSrc\SrcChartEx\ChartAddIn\ChartDataListViewerAddIn\Include_AddIn_134221\I134221\_IString.h

; 39   : 		m_pIStrData = p_pIString;	// Do not AddRef(). Because It must be Return Value.

  0047f	89 85 30 f8 ff
	ff		 mov	 DWORD PTR _szPacketType$11[ebp+4], eax

; 40   : 		if( m_pIStrData) m_szData = m_pIStrData->GetData();

  00485	85 c0		 test	 eax, eax
  00487	74 09		 je	 SHORT $LN151@LoadExcel
  00489	8b 10		 mov	 edx, DWORD PTR [eax]
  0048b	8b c8		 mov	 ecx, eax
  0048d	ff 52 10	 call	 DWORD PTR [edx+16]
  00490	eb 02		 jmp	 SHORT $LN266@LoadExcel
$LN151@LoadExcel:

; 41   : 		else m_szData = NULL;

  00492	33 c0		 xor	 eax, eax
$LN266@LoadExcel:
; File D:\git\src\IBK\IBK_DRFN\ProjSrc\SrcChartEx\ChartAddIn\ChartDataListViewerAddIn\ChartDataListViewerAddIn\ChartExcelDataImportAddInImp.cpp

; 191  : 					ILPCSTR szPacketType = pIPacket->GetType();

  00494	89 85 2c f8 ff
	ff		 mov	 DWORD PTR _szPacketType$11[ebp], eax

; 192  : 					CString strPacketType( szPacketType);

  0049a	50		 push	 eax
  0049b	8d 8d 68 f8 ff
	ff		 lea	 ecx, DWORD PTR _strPacketType$25[ebp]
  004a1	c6 45 fc 10	 mov	 BYTE PTR __$EHRec$[ebp+8], 16 ; 00000010H
  004a5	ff 15 00 00 00
	00		 call	 DWORD PTR __imp_??0?$CStringT@DV?$StrTraitMFC_DLL@DV?$ChTraitsCRT@D@ATL@@@@@ATL@@QAE@PBD@Z

; 193  : 					if( strPacketType == _MTEXT( C6_CHARACTER))

  004ab	a1 54 00 00 00	 mov	 eax, DWORD PTR ?g_iMetaTable@@3VIMetaTable@@A+84
; File C:\Program Files (x86)\Microsoft Visual Studio\2019\Community\VC\Tools\MSVC\14.29.30133\atlmfc\include\cstringt.h

; 2486 : 		return(str1.Compare(psz2) == 0);

  004b0	8d 8d 68 f8 ff
	ff		 lea	 ecx, DWORD PTR _strPacketType$25[ebp]
; File D:\git\src\IBK\IBK_DRFN\ProjSrc\SrcChartEx\ChartAddIn\ChartDataListViewerAddIn\ChartDataListViewerAddIn\ChartExcelDataImportAddInImp.cpp

; 192  : 					CString strPacketType( szPacketType);

  004b6	c6 45 fc 11	 mov	 BYTE PTR __$EHRec$[ebp+8], 17 ; 00000011H
; File C:\Program Files (x86)\Microsoft Visual Studio\2019\Community\VC\Tools\MSVC\14.29.30133\atlmfc\include\cstringt.h

; 2486 : 		return(str1.Compare(psz2) == 0);

  004ba	ff b0 60 09 00
	00		 push	 DWORD PTR [eax+2400]
  004c0	ff 15 00 00 00
	00		 call	 DWORD PTR __imp_?Compare@?$CStringT@DV?$StrTraitMFC_DLL@DV?$ChTraitsCRT@D@ATL@@@@@ATL@@QBEHPBD@Z
  004c6	85 c0		 test	 eax, eax
; File D:\git\src\IBK\IBK_DRFN\ProjSrc\SrcChartEx\ChartAddIn\ChartDataListViewerAddIn\ChartDataListViewerAddIn\ChartExcelDataImportAddInImp.cpp

; 193  : 					if( strPacketType == _MTEXT( C6_CHARACTER))

  004c8	75 42		 jne	 SHORT $LN26@LoadExcel

; 194  : 					{
; 195  : 						CString strMsg;

  004ca	8d 8d 4c f8 ff
	ff		 lea	 ecx, DWORD PTR _strMsg$17[ebp]
  004d0	ff 15 00 00 00
	00		 call	 DWORD PTR __imp_??0?$CStringT@DV?$StrTraitMFC_DLL@DV?$ChTraitsCRT@D@ATL@@@@@ATL@@QAE@XZ

; 196  : 						// strMsg = "    .";
; 197  : 						strMsg.LoadString(IDS_TEXTIMPORT);

  004d6	6a 07		 push	 7
  004d8	8d 8d 4c f8 ff
	ff		 lea	 ecx, DWORD PTR _strMsg$17[ebp]
  004de	c6 45 fc 12	 mov	 BYTE PTR __$EHRec$[ebp+8], 18 ; 00000012H
  004e2	ff 15 00 00 00
	00		 call	 DWORD PTR __imp_?LoadStringA@?$CStringT@DV?$StrTraitMFC_DLL@DV?$ChTraitsCRT@D@ATL@@@@@ATL@@QAEHI@Z

; 198  : 						AfxMessageBox(strMsg);

  004e8	6a 00		 push	 0
  004ea	6a 00		 push	 0
  004ec	ff b5 4c f8 ff
	ff		 push	 DWORD PTR _strMsg$17[ebp]
  004f2	e8 00 00 00 00	 call	 ?AfxMessageBox@@YGHPBDII@Z ; AfxMessageBox

; 199  : 					}

  004f7	8d 8d 4c f8 ff
	ff		 lea	 ecx, DWORD PTR _strMsg$17[ebp]
  004fd	c6 45 fc 11	 mov	 BYTE PTR __$EHRec$[ebp+8], 17 ; 00000011H
  00501	ff 15 00 00 00
	00		 call	 DWORD PTR __imp_??1?$CStringT@DV?$StrTraitMFC_DLL@DV?$ChTraitsCRT@D@ATL@@@@@ATL@@QAE@XZ
  00507	e9 3a 01 00 00	 jmp	 $LN8@LoadExcel
$LN26@LoadExcel:

; 200  : 					else
; 201  : 					{
; 202  : 						CTimeSpan t(0, 0, 0, 0 );
; 203  : 						//for(int j=1; j<maxRows; j++)
; 204  : 						for(int j=maxRows-1; j>0; j--)

  0050c	8b 9d 54 f8 ff
	ff		 mov	 ebx, DWORD PTR _maxRows$1$[ebp]
  00512	4b		 dec	 ebx
  00513	85 db		 test	 ebx, ebx
  00515	0f 8e 25 01 00
	00		 jle	 $LN263@LoadExcel
  0051b	0f 1f 44 00 00	 npad	 5
$LL9@LoadExcel:

; 207  : 							if(strPacketName == _MTEXT(C0_DATE_TIME))

  00520	a1 54 00 00 00	 mov	 eax, DWORD PTR ?g_iMetaTable@@3VIMetaTable@@A+84
; File C:\Program Files (x86)\Microsoft Visual Studio\2019\Community\VC\Tools\MSVC\14.29.30133\atlmfc\include\cstringt.h

; 2486 : 		return(str1.Compare(psz2) == 0);

  00525	8d 8d 6c f8 ff
	ff		 lea	 ecx, DWORD PTR _strPacketName$28[ebp]
  0052b	ff 30		 push	 DWORD PTR [eax]
  0052d	ff 15 00 00 00
	00		 call	 DWORD PTR __imp_?Compare@?$CStringT@DV?$StrTraitMFC_DLL@DV?$ChTraitsCRT@D@ATL@@@@@ATL@@QBEHPBD@Z
  00533	85 c0		 test	 eax, eax
; File D:\git\src\IBK\IBK_DRFN\ProjSrc\SrcChartEx\ChartAddIn\ChartDataListViewerAddIn\ChartDataListViewerAddIn\ChartExcelDataImportAddInImp.cpp

; 207  : 							if(strPacketName == _MTEXT(C0_DATE_TIME))

  00535	0f 85 d0 00 00
	00		 jne	 $LN28@LoadExcel
; File C:\Program Files (x86)\Microsoft Visual Studio\2019\Community\VC\Tools\MSVC\14.29.30133\atlmfc\include\cstringt.h

; 2486 : 		return(str1.Compare(psz2) == 0);

  0053b	68 00 00 00 00	 push	 OFFSET ??_C@_08DKDJLCMP@YYYYMMDD@
  00540	8d 8d 68 f8 ff
	ff		 lea	 ecx, DWORD PTR _strPacketType$25[ebp]
  00546	ff 15 00 00 00
	00		 call	 DWORD PTR __imp_?Compare@?$CStringT@DV?$StrTraitMFC_DLL@DV?$ChTraitsCRT@D@ATL@@@@@ATL@@QBEHPBD@Z
  0054c	85 c0		 test	 eax, eax
; File D:\git\src\IBK\IBK_DRFN\ProjSrc\SrcChartEx\ChartAddIn\ChartDataListViewerAddIn\ChartDataListViewerAddIn\ChartExcelDataImportAddInImp.cpp

; 213  : 									( strPacketType == "YYMM") || ( strPacketType == "MMDD") )

  0054e	0f 84 9a 00 00
	00		 je	 $LN32@LoadExcel
; File C:\Program Files (x86)\Microsoft Visual Studio\2019\Community\VC\Tools\MSVC\14.29.30133\atlmfc\include\cstringt.h

; 2486 : 		return(str1.Compare(psz2) == 0);

  00554	68 00 00 00 00	 push	 OFFSET ??_C@_06NFMEGGNP@YYMMDD@
  00559	8d 8d 68 f8 ff
	ff		 lea	 ecx, DWORD PTR _strPacketType$25[ebp]
  0055f	ff 15 00 00 00
	00		 call	 DWORD PTR __imp_?Compare@?$CStringT@DV?$StrTraitMFC_DLL@DV?$ChTraitsCRT@D@ATL@@@@@ATL@@QBEHPBD@Z
  00565	85 c0		 test	 eax, eax
; File D:\git\src\IBK\IBK_DRFN\ProjSrc\SrcChartEx\ChartAddIn\ChartDataListViewerAddIn\ChartDataListViewerAddIn\ChartExcelDataImportAddInImp.cpp

; 213  : 									( strPacketType == "YYMM") || ( strPacketType == "MMDD") )

  00567	0f 84 81 00 00
	00		 je	 $LN32@LoadExcel
; File C:\Program Files (x86)\Microsoft Visual Studio\2019\Community\VC\Tools\MSVC\14.29.30133\atlmfc\include\cstringt.h

; 2486 : 		return(str1.Compare(psz2) == 0);

  0056d	68 00 00 00 00	 push	 OFFSET ??_C@_06EBMMBHJD@YYYYMM@
  00572	8d 8d 68 f8 ff
	ff		 lea	 ecx, DWORD PTR _strPacketType$25[ebp]
  00578	ff 15 00 00 00
	00		 call	 DWORD PTR __imp_?Compare@?$CStringT@DV?$StrTraitMFC_DLL@DV?$ChTraitsCRT@D@ATL@@@@@ATL@@QBEHPBD@Z
  0057e	85 c0		 test	 eax, eax
; File D:\git\src\IBK\IBK_DRFN\ProjSrc\SrcChartEx\ChartAddIn\ChartDataListViewerAddIn\ChartDataListViewerAddIn\ChartExcelDataImportAddInImp.cpp

; 213  : 									( strPacketType == "YYMM") || ( strPacketType == "MMDD") )

  00580	74 6c		 je	 SHORT $LN32@LoadExcel
; File C:\Program Files (x86)\Microsoft Visual Studio\2019\Community\VC\Tools\MSVC\14.29.30133\atlmfc\include\cstringt.h

; 2486 : 		return(str1.Compare(psz2) == 0);

  00582	68 00 00 00 00	 push	 OFFSET ??_C@_08DKDJLCMP@YYYYMMDD@
  00587	8d 8d 68 f8 ff
	ff		 lea	 ecx, DWORD PTR _strPacketType$25[ebp]
  0058d	ff 15 00 00 00
	00		 call	 DWORD PTR __imp_?Compare@?$CStringT@DV?$StrTraitMFC_DLL@DV?$ChTraitsCRT@D@ATL@@@@@ATL@@QBEHPBD@Z
  00593	85 c0		 test	 eax, eax
; File D:\git\src\IBK\IBK_DRFN\ProjSrc\SrcChartEx\ChartAddIn\ChartDataListViewerAddIn\ChartDataListViewerAddIn\ChartExcelDataImportAddInImp.cpp

; 213  : 									( strPacketType == "YYMM") || ( strPacketType == "MMDD") )

  00595	74 57		 je	 SHORT $LN32@LoadExcel
; File C:\Program Files (x86)\Microsoft Visual Studio\2019\Community\VC\Tools\MSVC\14.29.30133\atlmfc\include\cstringt.h

; 2486 : 		return(str1.Compare(psz2) == 0);

  00597	68 00 00 00 00	 push	 OFFSET ??_C@_04IHEOMKKL@YYMM@
  0059c	8d 8d 68 f8 ff
	ff		 lea	 ecx, DWORD PTR _strPacketType$25[ebp]
  005a2	ff 15 00 00 00
	00		 call	 DWORD PTR __imp_?Compare@?$CStringT@DV?$StrTraitMFC_DLL@DV?$ChTraitsCRT@D@ATL@@@@@ATL@@QBEHPBD@Z
  005a8	85 c0		 test	 eax, eax
; File D:\git\src\IBK\IBK_DRFN\ProjSrc\SrcChartEx\ChartAddIn\ChartDataListViewerAddIn\ChartDataListViewerAddIn\ChartExcelDataImportAddInImp.cpp

; 213  : 									( strPacketType == "YYMM") || ( strPacketType == "MMDD") )

  005aa	74 42		 je	 SHORT $LN32@LoadExcel
; File C:\Program Files (x86)\Microsoft Visual Studio\2019\Community\VC\Tools\MSVC\14.29.30133\atlmfc\include\cstringt.h

; 2486 : 		return(str1.Compare(psz2) == 0);

  005ac	68 00 00 00 00	 push	 OFFSET ??_C@_04BDEGLLOH@MMDD@
  005b1	8d 8d 68 f8 ff
	ff		 lea	 ecx, DWORD PTR _strPacketType$25[ebp]
  005b7	ff 15 00 00 00
	00		 call	 DWORD PTR __imp_?Compare@?$CStringT@DV?$StrTraitMFC_DLL@DV?$ChTraitsCRT@D@ATL@@@@@ATL@@QBEHPBD@Z
  005bd	85 c0		 test	 eax, eax
; File D:\git\src\IBK\IBK_DRFN\ProjSrc\SrcChartEx\ChartAddIn\ChartDataListViewerAddIn\ChartDataListViewerAddIn\ChartExcelDataImportAddInImp.cpp

; 213  : 									( strPacketType == "YYMM") || ( strPacketType == "MMDD") )

  005bf	74 2d		 je	 SHORT $LN32@LoadExcel

; 215  : 								else
; 216  : 									pIPacket->AppendData(sheet1->Cell(j,i)->GetTime());

  005c1	ff b5 64 f8 ff
	ff		 push	 DWORD PTR _i$1$[ebp]
  005c7	8b 8d 60 f8 ff
	ff		 mov	 ecx, DWORD PTR _sheet1$1$[ebp]
  005cd	8b 37		 mov	 esi, DWORD PTR [edi]
  005cf	53		 push	 ebx
  005d0	e8 00 00 00 00	 call	 ?Cell@BasicExcelWorksheet@YExcel@@QAEPAVBasicExcelCell@2@II@Z ; YExcel::BasicExcelWorksheet::Cell
  005d5	8b c8		 mov	 ecx, eax
  005d7	e8 00 00 00 00	 call	 ?GetTime@BasicExcelCell@YExcel@@QAEJXZ ; YExcel::BasicExcelCell::GetTime
$LN268@LoadExcel:

; 200  : 					else
; 201  : 					{
; 202  : 						CTimeSpan t(0, 0, 0, 0 );
; 203  : 						//for(int j=1; j<maxRows; j++)
; 204  : 						for(int j=maxRows-1; j>0; j--)

  005dc	66 0f 6e c0	 movd	 xmm0, eax
  005e0	83 ec 08	 sub	 esp, 8
  005e3	f3 0f e6 c0	 cvtdq2pd xmm0, xmm0
  005e7	f2 0f 11 04 24	 movsd	 QWORD PTR [esp], xmm0
  005ec	eb 3e		 jmp	 SHORT $LN267@LoadExcel
$LN32@LoadExcel:

; 214  : 									pIPacket->AppendData(sheet1->Cell(j,i)->GetDate());

  005ee	ff b5 64 f8 ff
	ff		 push	 DWORD PTR _i$1$[ebp]
  005f4	8b 8d 60 f8 ff
	ff		 mov	 ecx, DWORD PTR _sheet1$1$[ebp]
  005fa	8b 37		 mov	 esi, DWORD PTR [edi]
  005fc	53		 push	 ebx
  005fd	e8 00 00 00 00	 call	 ?Cell@BasicExcelWorksheet@YExcel@@QAEPAVBasicExcelCell@2@II@Z ; YExcel::BasicExcelWorksheet::Cell
  00602	8b c8		 mov	 ecx, eax
  00604	e8 00 00 00 00	 call	 ?GetDate@BasicExcelCell@YExcel@@QAEJXZ ; YExcel::BasicExcelCell::GetDate

; 217  : 							}

  00609	eb d1		 jmp	 SHORT $LN268@LoadExcel
$LN28@LoadExcel:

; 218  : 							else
; 219  : 								pIPacket->AppendData(sheet1->Cell(j,i)->GetDouble());

  0060b	ff b5 64 f8 ff
	ff		 push	 DWORD PTR _i$1$[ebp]
  00611	8b 8d 60 f8 ff
	ff		 mov	 ecx, DWORD PTR _sheet1$1$[ebp]
  00617	8b 37		 mov	 esi, DWORD PTR [edi]
  00619	53		 push	 ebx
  0061a	e8 00 00 00 00	 call	 ?Cell@BasicExcelWorksheet@YExcel@@QAEPAVBasicExcelCell@2@II@Z ; YExcel::BasicExcelWorksheet::Cell
  0061f	8b c8		 mov	 ecx, eax
  00621	e8 00 00 00 00	 call	 ?GetDouble@BasicExcelCell@YExcel@@QBENXZ ; YExcel::BasicExcelCell::GetDouble
  00626	83 ec 08	 sub	 esp, 8
  00629	dd 1c 24	 fstp	 QWORD PTR [esp]
$LN267@LoadExcel:

; 200  : 					else
; 201  : 					{
; 202  : 						CTimeSpan t(0, 0, 0, 0 );
; 203  : 						//for(int j=1; j<maxRows; j++)
; 204  : 						for(int j=maxRows-1; j>0; j--)

  0062c	8b cf		 mov	 ecx, edi
  0062e	ff 56 4c	 call	 DWORD PTR [esi+76]
  00631	4b		 dec	 ebx
  00632	85 db		 test	 ebx, ebx
  00634	0f 8f e6 fe ff
	ff		 jg	 $LL9@LoadExcel
  0063a	8b b5 64 f8 ff
	ff		 mov	 esi, DWORD PTR _i$1$[ebp]
$LN263@LoadExcel:

; 220  : 						}					
; 221  : 					}
; 222  : 					pIPacket->Release();

  00640	8b 9d 60 f8 ff
	ff		 mov	 ebx, DWORD PTR _sheet1$1$[ebp]
$LN8@LoadExcel:
  00646	8b 07		 mov	 eax, DWORD PTR [edi]
  00648	57		 push	 edi
  00649	ff 50 08	 call	 DWORD PTR [eax+8]

; 223  : 				}

  0064c	8d 8d 68 f8 ff
	ff		 lea	 ecx, DWORD PTR _strPacketType$25[ebp]
  00652	ff 15 00 00 00
	00		 call	 DWORD PTR __imp_??1?$CStringT@DV?$StrTraitMFC_DLL@DV?$ChTraitsCRT@D@ATL@@@@@ATL@@QAE@XZ
; File D:\git\src\IBK\IBK_DRFN\ProjSrc\SrcChartEx\ChartAddIn\ChartDataListViewerAddIn\Include_AddIn_134221\I134221\_IString.h

; 45   : 		if( m_pIStrData)

  00658	8b 8d 30 f8 ff
	ff		 mov	 ecx, DWORD PTR _szPacketType$11[ebp+4]
  0065e	c6 45 fc 13	 mov	 BYTE PTR __$EHRec$[ebp+8], 19 ; 00000013H
  00662	85 c9		 test	 ecx, ecx
  00664	74 1a		 je	 SHORT $LN175@LoadExcel

; 46   : 		{
; 47   : 			m_pIStrData->Release();

  00666	8b 01		 mov	 eax, DWORD PTR [ecx]
  00668	51		 push	 ecx
  00669	ff 50 08	 call	 DWORD PTR [eax+8]

; 48   : 			m_pIStrData = NULL;

  0066c	c7 85 30 f8 ff
	ff 00 00 00 00	 mov	 DWORD PTR _szPacketType$11[ebp+4], 0

; 49   : 			m_szData = NULL;

  00676	c7 85 2c f8 ff
	ff 00 00 00 00	 mov	 DWORD PTR _szPacketType$11[ebp], 0
$LN175@LoadExcel:
; File D:\git\src\IBK\IBK_DRFN\ProjSrc\SrcChartEx\ChartAddIn\ChartDataListViewerAddIn\ChartDataListViewerAddIn\ChartExcelDataImportAddInImp.cpp

; 223  : 				}

  00680	8d 8d 5c f8 ff
	ff		 lea	 ecx, DWORD PTR _strDate$22[ebp]
  00686	c6 45 fc 0c	 mov	 BYTE PTR __$EHRec$[ebp+8], 12 ; 0000000cH
  0068a	ff 15 00 00 00
	00		 call	 DWORD PTR __imp_??1?$CStringT@DV?$StrTraitMFC_DLL@DV?$ChTraitsCRT@D@ATL@@@@@ATL@@QAE@XZ
  00690	8b bd 50 f8 ff
	ff		 mov	 edi, DWORD PTR _this$GSCopy$1$[ebp]
  00696	46		 inc	 esi
  00697	89 b5 64 f8 ff
	ff		 mov	 DWORD PTR _i$1$[ebp], esi
  0069d	3b b5 58 f8 ff
	ff		 cmp	 esi, DWORD PTR _maxCols$1$[ebp]
  006a3	0f 82 a7 fc ff
	ff		 jb	 $LL6@LoadExcel

; 179  : 					}
; 180  : 
; 181  : 					if(!pIPacket)

  006a9	e9 79 06 00 00	 jmp	 $LN5@LoadExcel
$LN247@LoadExcel:

; 187  : 						return TRUE;

  006ae	8d 8d 5c f8 ff
	ff		 lea	 ecx, DWORD PTR _strDate$22[ebp]
  006b4	be 01 00 00 00	 mov	 esi, 1
  006b9	ff 15 00 00 00
	00		 call	 DWORD PTR __imp_??1?$CStringT@DV?$StrTraitMFC_DLL@DV?$ChTraitsCRT@D@ATL@@@@@ATL@@QAE@XZ
  006bf	8d 8d 6c f8 ff
	ff		 lea	 ecx, DWORD PTR _strPacketName$28[ebp]
  006c5	ff 15 00 00 00
	00		 call	 DWORD PTR __imp_??1?$CStringT@DV?$StrTraitMFC_DLL@DV?$ChTraitsCRT@D@ATL@@@@@ATL@@QAE@XZ
; File D:\git\src\IBK\IBK_DRFN\ProjSrc\SrcChartEx\ChartAddIn\ChartDataListViewerAddIn\Include_AddIn_134221\I134221\_IString.h

; 45   : 		if( m_pIStrData)

  006cb	8b 8d 40 f8 ff
	ff		 mov	 ecx, DWORD PTR _strValue$13[ebp+4]
  006d1	c6 45 fc 0e	 mov	 BYTE PTR __$EHRec$[ebp+8], 14 ; 0000000eH
  006d5	85 c9		 test	 ecx, ecx
  006d7	74 1a		 je	 SHORT $LN143@LoadExcel

; 46   : 		{
; 47   : 			m_pIStrData->Release();

  006d9	8b 01		 mov	 eax, DWORD PTR [ecx]
  006db	51		 push	 ecx
  006dc	ff 50 08	 call	 DWORD PTR [eax+8]

; 48   : 			m_pIStrData = NULL;

  006df	c7 85 40 f8 ff
	ff 00 00 00 00	 mov	 DWORD PTR _strValue$13[ebp+4], 0

; 49   : 			m_szData = NULL;

  006e9	c7 85 3c f8 ff
	ff 00 00 00 00	 mov	 DWORD PTR _strValue$13[ebp], 0
$LN143@LoadExcel:

; 45   : 		if( m_pIStrData)

  006f3	8b 8d 38 f8 ff
	ff		 mov	 ecx, DWORD PTR _strKey$12[ebp+4]
  006f9	c6 45 fc 0f	 mov	 BYTE PTR __$EHRec$[ebp+8], 15 ; 0000000fH
  006fd	85 c9		 test	 ecx, ecx
  006ff	74 1a		 je	 SHORT $LN147@LoadExcel

; 46   : 		{
; 47   : 			m_pIStrData->Release();

  00701	8b 01		 mov	 eax, DWORD PTR [ecx]
  00703	51		 push	 ecx
  00704	ff 50 08	 call	 DWORD PTR [eax+8]

; 48   : 			m_pIStrData = NULL;

  00707	c7 85 38 f8 ff
	ff 00 00 00 00	 mov	 DWORD PTR _strKey$12[ebp+4], 0

; 49   : 			m_szData = NULL;

  00711	c7 85 34 f8 ff
	ff 00 00 00 00	 mov	 DWORD PTR _strKey$12[ebp], 0
$LN147@LoadExcel:
; File D:\git\src\IBK\IBK_DRFN\ProjSrc\SrcChartEx\ChartAddIn\ChartDataListViewerAddIn\ChartDataListViewerAddIn\ChartExcelDataImportAddInImp.cpp

; 187  : 						return TRUE;

  0071b	8d 8d 48 f8 ff
	ff		 lea	 ecx, DWORD PTR _strSubMsg$15[ebp]
  00721	ff 15 00 00 00
	00		 call	 DWORD PTR __imp_??1?$CStringT@DV?$StrTraitMFC_DLL@DV?$ChTraitsCRT@D@ATL@@@@@ATL@@QAE@XZ
$LN80@LoadExcel:
  00727	8d 8d 70 f8 ff
	ff		 lea	 ecx, DWORD PTR _e$30[ebp]
  0072d	e8 00 00 00 00	 call	 ??1BasicExcel@YExcel@@QAE@XZ ; YExcel::BasicExcel::~BasicExcel
  00732	8d 8d 1c f8 ff
	ff		 lea	 ecx, DWORD PTR _strFileName$7[ebp]
  00738	ff 15 00 00 00
	00		 call	 DWORD PTR __imp_??1?$CStringT@DV?$StrTraitMFC_DLL@DV?$ChTraitsCRT@D@ATL@@@@@ATL@@QAE@XZ
  0073e	e9 68 06 00 00	 jmp	 $LN81@LoadExcel
$LN19@LoadExcel:

; 224  : 			}
; 225  : 			else
; 226  : 			{
; 227  : 				m_pIChartOCX->SetBinTrHelpMsg(strSubMsg);	// SetBinTr     

  00743	8b 4f 0c	 mov	 ecx, DWORD PTR [edi+12]
  00746	ff b5 48 f8 ff
	ff		 push	 DWORD PTR _strSubMsg$15[ebp]
  0074c	8b 01		 mov	 eax, DWORD PTR [ecx]
  0074e	ff 90 30 02 00
	00		 call	 DWORD PTR [eax+560]

; 228  : 				size_t maxRows = sheet1->GetTotalRows();

  00754	8b cb		 mov	 ecx, ebx
  00756	e8 00 00 00 00	 call	 ?GetTotalRows@BasicExcelWorksheet@YExcel@@QAEIXZ ; YExcel::BasicExcelWorksheet::GetTotalRows
  0075b	8b f0		 mov	 esi, eax

; 229  : 				size_t maxCols = sheet1->GetTotalCols();

  0075d	8b cb		 mov	 ecx, ebx
  0075f	89 b5 08 f8 ff
	ff		 mov	 DWORD PTR _maxRows$1$[ebp], esi
  00765	e8 00 00 00 00	 call	 ?GetTotalCols@BasicExcelWorksheet@YExcel@@QAEIXZ ; YExcel::BasicExcelWorksheet::GetTotalCols

; 230  : 				BasicExcelCell* CellPacketName;
; 231  : 				CString strPacketName;

  0076a	8d 8d 6c f8 ff
	ff		 lea	 ecx, DWORD PTR _strPacketName$27[ebp]
  00770	89 85 44 f8 ff
	ff		 mov	 DWORD PTR _maxCols$1$[ebp], eax
  00776	ff 15 00 00 00
	00		 call	 DWORD PTR __imp_??0?$CStringT@DV?$StrTraitMFC_DLL@DV?$ChTraitsCRT@D@ATL@@@@@ATL@@QAE@XZ

; 232  : 				
; 233  : 				double* p_dBuf;
; 234  : 				
; 235  : 				//////////////////////////////////////////////////////////////////////////
; 236  : 				// data import
; 237  : 				for(int i=0;i<maxCols;i++)

  0077c	33 ff		 xor	 edi, edi
  0077e	c6 45 fc 14	 mov	 BYTE PTR __$EHRec$[ebp+8], 20 ; 00000014H
  00782	89 bd 60 f8 ff
	ff		 mov	 DWORD PTR _i$1$[ebp], edi
  00788	39 bd 44 f8 ff
	ff		 cmp	 DWORD PTR _maxCols$1$[ebp], edi
  0078e	0f 86 82 05 00
	00		 jbe	 $LN11@LoadExcel
  00794	8d 46 ff	 lea	 eax, DWORD PTR [esi-1]
  00797	0f 57 c0	 xorps	 xmm0, xmm0
  0079a	89 85 54 f8 ff
	ff		 mov	 DWORD PTR tv1985[ebp], eax
  007a0	8d 34 c5 00 00
	00 00		 lea	 esi, DWORD PTR [eax*8]
  007a7	ba 08 00 00 00	 mov	 edx, 8
  007ac	f2 0f 11 85 e4
	f7 ff ff	 movsd	 QWORD PTR __real@0000000000000000$1$[ebp], xmm0
$LL12@LoadExcel:

; 238  : 				{
; 239  : 					p_dBuf = new double[maxRows-1];

  007b4	33 c9		 xor	 ecx, ecx
  007b6	f7 e2		 mul	 edx
  007b8	0f 90 c1	 seto	 cl
  007bb	f7 d9		 neg	 ecx
  007bd	0b c8		 or	 ecx, eax
  007bf	51		 push	 ecx
  007c0	e8 00 00 00 00	 call	 ??_U@YAPAXI@Z		; operator new[]

; 240  : 					memset(p_dBuf,0,sizeof(double)*(maxRows-1));

  007c5	56		 push	 esi
  007c6	6a 00		 push	 0
  007c8	50		 push	 eax
  007c9	89 85 5c f8 ff
	ff		 mov	 DWORD PTR _p_dBuf$1$[ebp], eax
  007cf	e8 00 00 00 00	 call	 _memset
  007d4	83 c4 10	 add	 esp, 16			; 00000010H

; 241  : 					
; 242  : 					// Packet  
; 243  : 					strPacketName = "";

  007d7	8d 8d 6c f8 ff
	ff		 lea	 ecx, DWORD PTR _strPacketName$27[ebp]
  007dd	68 00 00 00 00	 push	 OFFSET ??_C@_00CNPNBAHC@@
  007e2	ff 15 00 00 00
	00		 call	 DWORD PTR __imp_??4?$CStringT@DV?$StrTraitMFC_DLL@DV?$ChTraitsCRT@D@ATL@@@@@ATL@@QAEAAV01@PBD@Z

; 244  : 					CellPacketName = sheet1->Cell(0,i);

  007e8	57		 push	 edi
  007e9	6a 00		 push	 0
  007eb	8b cb		 mov	 ecx, ebx
  007ed	e8 00 00 00 00	 call	 ?Cell@BasicExcelWorksheet@YExcel@@QAEPAVBasicExcelCell@2@II@Z ; YExcel::BasicExcelWorksheet::Cell

; 245  : 					strPacketName = CellPacketName->GetWString();

  007f2	8b c8		 mov	 ecx, eax
  007f4	e8 00 00 00 00	 call	 ?GetWString@BasicExcelCell@YExcel@@QBEPB_WXZ ; YExcel::BasicExcelCell::GetWString
  007f9	50		 push	 eax
  007fa	8d 8d 6c f8 ff
	ff		 lea	 ecx, DWORD PTR _strPacketName$27[ebp]
  00800	ff 15 00 00 00
	00		 call	 DWORD PTR __imp_??4?$CStringT@DV?$StrTraitMFC_DLL@DV?$ChTraitsCRT@D@ATL@@@@@ATL@@QAEAAV01@PB_W@Z

; 246  : 					
; 247  : 					IPacket *pIPacket = NULL;
; 248  : 					CString strDate;

  00806	8d 8d 58 f8 ff
	ff		 lea	 ecx, DWORD PTR _strDate$20[ebp]
  0080c	ff 15 00 00 00
	00		 call	 DWORD PTR __imp_??0?$CStringT@DV?$StrTraitMFC_DLL@DV?$ChTraitsCRT@D@ATL@@@@@ATL@@QAE@XZ

; 249  : 					strDate.LoadString(IDS_DATE);

  00812	6a 04		 push	 4
  00814	8d 8d 58 f8 ff
	ff		 lea	 ecx, DWORD PTR _strDate$20[ebp]
  0081a	c6 45 fc 15	 mov	 BYTE PTR __$EHRec$[ebp+8], 21 ; 00000015H
  0081e	ff 15 00 00 00
	00		 call	 DWORD PTR __imp_?LoadStringA@?$CStringT@DV?$StrTraitMFC_DLL@DV?$ChTraitsCRT@D@ATL@@@@@ATL@@QAEHI@Z

; 250  : 					// if(strPacketName.Find("") >= 0)
; 251  : 					if(strPacketName.Find(strDate) >= 0)

  00824	6a 00		 push	 0
  00826	ff b5 58 f8 ff
	ff		 push	 DWORD PTR _strDate$20[ebp]
  0082c	8d 8d 6c f8 ff
	ff		 lea	 ecx, DWORD PTR _strPacketName$27[ebp]
  00832	ff 15 00 00 00
	00		 call	 DWORD PTR __imp_?Find@?$CStringT@DV?$StrTraitMFC_DLL@DV?$ChTraitsCRT@D@ATL@@@@@ATL@@QBEHPBDH@Z
  00838	85 c0		 test	 eax, eax
  0083a	78 30		 js	 SHORT $LN33@LoadExcel

; 252  : 					{
; 253  : 						//pIPacket = m_pIDefaultPacketManager->GetPacket("");
; 254  : 						//strPacketName = "";
; 255  : 						pIPacket = m_pIDefaultPacketManager->GetPacket(_MTEXT(C0_DATE_TIME));

  0083c	8b 85 50 f8 ff
	ff		 mov	 eax, DWORD PTR _this$GSCopy$1$[ebp]
  00842	8b 48 24	 mov	 ecx, DWORD PTR [eax+36]
  00845	a1 54 00 00 00	 mov	 eax, DWORD PTR ?g_iMetaTable@@3VIMetaTable@@A+84
  0084a	8b 11		 mov	 edx, DWORD PTR [ecx]
  0084c	ff 30		 push	 DWORD PTR [eax]
  0084e	ff 52 14	 call	 DWORD PTR [edx+20]

; 256  : 						strPacketName = _MTEXT(C0_DATE_TIME);

  00851	8b 0d 54 00 00
	00		 mov	 ecx, DWORD PTR ?g_iMetaTable@@3VIMetaTable@@A+84
  00857	8b f0		 mov	 esi, eax
  00859	ff 31		 push	 DWORD PTR [ecx]
  0085b	8d 8d 6c f8 ff
	ff		 lea	 ecx, DWORD PTR _strPacketName$27[ebp]
  00861	ff 15 00 00 00
	00		 call	 DWORD PTR __imp_??4?$CStringT@DV?$StrTraitMFC_DLL@DV?$ChTraitsCRT@D@ATL@@@@@ATL@@QAEAAV01@PBD@Z

; 257  : 					}

  00867	e9 91 00 00 00	 jmp	 $LN36@LoadExcel
$LN33@LoadExcel:

; 258  : 					// else if(strPacketName.Find("") >= 0)
; 259  : 					else if(strPacketName.Find( _LTEXT3( C3_VOLUME)) >= 0)

  0086c	a1 54 00 00 00	 mov	 eax, DWORD PTR ?g_iMetaTable@@3VIMetaTable@@A+84
  00871	b9 00 00 00 00	 mov	 ecx, OFFSET ?g_iMetaTable@@3VIMetaTable@@A ; g_iMetaTable
  00876	8b b5 50 f8 ff
	ff		 mov	 esi, DWORD PTR _this$GSCopy$1$[ebp]
  0087c	6a 00		 push	 0
  0087e	6a 00		 push	 0
  00880	ff b0 c4 04 00
	00		 push	 DWORD PTR [eax+1220]
  00886	6a 03		 push	 3
  00888	ff 76 40	 push	 DWORD PTR [esi+64]
  0088b	e8 00 00 00 00	 call	 ?GetLanguageText@IMetaTable@@QAEPBDPAUHWND__@@W4E_CODEPAGE@1@PBDH@Z ; IMetaTable::GetLanguageText
  00890	50		 push	 eax
  00891	8d 8d 6c f8 ff
	ff		 lea	 ecx, DWORD PTR _strPacketName$27[ebp]
  00897	ff 15 00 00 00
	00		 call	 DWORD PTR __imp_?Find@?$CStringT@DV?$StrTraitMFC_DLL@DV?$ChTraitsCRT@D@ATL@@@@@ATL@@QBEHPBDH@Z
  0089d	85 c0		 test	 eax, eax
  0089f	78 28		 js	 SHORT $LN35@LoadExcel

; 260  : 					{
; 261  : 						//pIPacket = m_pIDefaultPacketManager->GetPacket("");
; 262  : 						//strPacketName = "";
; 263  : 						pIPacket = m_pIDefaultPacketManager->GetPacket(_MTEXT(C0_VOLUME));

  008a1	8b 4e 24	 mov	 ecx, DWORD PTR [esi+36]
  008a4	a1 54 00 00 00	 mov	 eax, DWORD PTR ?g_iMetaTable@@3VIMetaTable@@A+84
  008a9	8b 11		 mov	 edx, DWORD PTR [ecx]
  008ab	ff 70 1c	 push	 DWORD PTR [eax+28]
  008ae	ff 52 14	 call	 DWORD PTR [edx+20]
  008b1	8b f0		 mov	 esi, eax

; 264  : 						strPacketName = _MTEXT(C0_VOLUME);

  008b3	8d 8d 6c f8 ff
	ff		 lea	 ecx, DWORD PTR _strPacketName$27[ebp]
  008b9	a1 54 00 00 00	 mov	 eax, DWORD PTR ?g_iMetaTable@@3VIMetaTable@@A+84
  008be	ff 70 1c	 push	 DWORD PTR [eax+28]
  008c1	ff 15 00 00 00
	00		 call	 DWORD PTR __imp_??4?$CStringT@DV?$StrTraitMFC_DLL@DV?$ChTraitsCRT@D@ATL@@@@@ATL@@QAEAAV01@PBD@Z

; 265  : 					}

  008c7	eb 34		 jmp	 SHORT $LN36@LoadExcel
$LN35@LoadExcel:

; 266  : 					else
; 267  : 					{
; 268  : 						strPacketName = _LTOM0( strPacketName);

  008c9	6a 00		 push	 0
  008cb	ff b5 6c f8 ff
	ff		 push	 DWORD PTR _strPacketName$27[ebp]
  008d1	b9 00 00 00 00	 mov	 ecx, OFFSET ?g_iMetaTable@@3VIMetaTable@@A ; g_iMetaTable
  008d6	6a 00		 push	 0
  008d8	ff 76 40	 push	 DWORD PTR [esi+64]
  008db	e8 00 00 00 00	 call	 ?GetMetaText@IMetaTable@@QAEPBDPAUHWND__@@W4E_CODEPAGE@1@PBDH@Z ; IMetaTable::GetMetaText
  008e0	50		 push	 eax
  008e1	8d 8d 6c f8 ff
	ff		 lea	 ecx, DWORD PTR _strPacketName$27[ebp]
  008e7	ff 15 00 00 00
	00		 call	 DWORD PTR __imp_??4?$CStringT@DV?$StrTraitMFC_DLL@DV?$ChTraitsCRT@D@ATL@@@@@ATL@@QAEAAV01@PBD@Z

; 269  : 						pIPacket = m_pIDefaultPacketManager->GetPacket( strPacketName);

  008ed	8b 4e 24	 mov	 ecx, DWORD PTR [esi+36]
  008f0	ff b5 6c f8 ff
	ff		 push	 DWORD PTR _strPacketName$27[ebp]
  008f6	8b 01		 mov	 eax, DWORD PTR [ecx]
  008f8	ff 50 14	 call	 DWORD PTR [eax+20]
  008fb	8b f0		 mov	 esi, eax
$LN36@LoadExcel:

; 270  : 					}
; 271  : 					
; 272  : 					if(!pIPacket)

  008fd	85 f6		 test	 esi, esi
  008ff	0f 84 dc 03 00
	00		 je	 $LN231@LoadExcel

; 273  : 					{
; 274  : 						//	CString strMsg;
; 275  : 						//	strMsg.Format("[%s]  .\n        .", strPacketName);
; 276  : 						//	AfxMessageBox(strMsg);
; 277  : 						continue;
; 278  : 						//return TRUE;
; 279  : 					}
; 280  : 					
; 281  : 					pIPacket->ClearData(true);

  00905	8b 06		 mov	 eax, DWORD PTR [esi]
  00907	8b ce		 mov	 ecx, esi
  00909	6a 01		 push	 1
  0090b	ff 50 50	 call	 DWORD PTR [eax+80]

; 282  : 					ILPCSTR szPacketType = pIPacket->GetType();

  0090e	8b 06		 mov	 eax, DWORD PTR [esi]
  00910	8b ce		 mov	 ecx, esi
  00912	6a 01		 push	 1
  00914	ff 50 1c	 call	 DWORD PTR [eax+28]
; File D:\git\src\IBK\IBK_DRFN\ProjSrc\SrcChartEx\ChartAddIn\ChartDataListViewerAddIn\Include_AddIn_134221\I134221\_IString.h

; 39   : 		m_pIStrData = p_pIString;	// Do not AddRef(). Because It must be Return Value.

  00917	89 85 f0 f7 ff
	ff		 mov	 DWORD PTR _szPacketType$2$[ebp], eax
  0091d	89 85 f8 f7 ff
	ff		 mov	 DWORD PTR _szPacketType$3[ebp+4], eax

; 40   : 		if( m_pIStrData) m_szData = m_pIStrData->GetData();

  00923	85 c0		 test	 eax, eax
  00925	74 09		 je	 SHORT $LN187@LoadExcel
  00927	8b 10		 mov	 edx, DWORD PTR [eax]
  00929	8b c8		 mov	 ecx, eax
  0092b	ff 52 10	 call	 DWORD PTR [edx+16]
  0092e	eb 02		 jmp	 SHORT $LN269@LoadExcel
$LN187@LoadExcel:

; 41   : 		else m_szData = NULL;

  00930	33 c0		 xor	 eax, eax
$LN269@LoadExcel:
; File D:\git\src\IBK\IBK_DRFN\ProjSrc\SrcChartEx\ChartAddIn\ChartDataListViewerAddIn\ChartDataListViewerAddIn\ChartExcelDataImportAddInImp.cpp

; 282  : 					ILPCSTR szPacketType = pIPacket->GetType();

  00932	89 85 f4 f7 ff
	ff		 mov	 DWORD PTR _szPacketType$3[ebp], eax

; 283  : 					CString strPacketType( szPacketType);

  00938	50		 push	 eax
  00939	8d 8d 68 f8 ff
	ff		 lea	 ecx, DWORD PTR _strPacketType$24[ebp]
  0093f	c6 45 fc 16	 mov	 BYTE PTR __$EHRec$[ebp+8], 22 ; 00000016H
  00943	ff 15 00 00 00
	00		 call	 DWORD PTR __imp_??0?$CStringT@DV?$StrTraitMFC_DLL@DV?$ChTraitsCRT@D@ATL@@@@@ATL@@QAE@PBD@Z

; 284  : 					if( strPacketType == _MTEXT(C6_CHARACTER))

  00949	a1 54 00 00 00	 mov	 eax, DWORD PTR ?g_iMetaTable@@3VIMetaTable@@A+84
; File C:\Program Files (x86)\Microsoft Visual Studio\2019\Community\VC\Tools\MSVC\14.29.30133\atlmfc\include\cstringt.h

; 2486 : 		return(str1.Compare(psz2) == 0);

  0094e	8d 8d 68 f8 ff
	ff		 lea	 ecx, DWORD PTR _strPacketType$24[ebp]
; File D:\git\src\IBK\IBK_DRFN\ProjSrc\SrcChartEx\ChartAddIn\ChartDataListViewerAddIn\ChartDataListViewerAddIn\ChartExcelDataImportAddInImp.cpp

; 283  : 					CString strPacketType( szPacketType);

  00954	c6 45 fc 17	 mov	 BYTE PTR __$EHRec$[ebp+8], 23 ; 00000017H
; File C:\Program Files (x86)\Microsoft Visual Studio\2019\Community\VC\Tools\MSVC\14.29.30133\atlmfc\include\cstringt.h

; 2486 : 		return(str1.Compare(psz2) == 0);

  00958	ff b0 60 09 00
	00		 push	 DWORD PTR [eax+2400]
  0095e	ff 15 00 00 00
	00		 call	 DWORD PTR __imp_?Compare@?$CStringT@DV?$StrTraitMFC_DLL@DV?$ChTraitsCRT@D@ATL@@@@@ATL@@QBEHPBD@Z
  00964	85 c0		 test	 eax, eax
; File D:\git\src\IBK\IBK_DRFN\ProjSrc\SrcChartEx\ChartAddIn\ChartDataListViewerAddIn\ChartDataListViewerAddIn\ChartExcelDataImportAddInImp.cpp

; 284  : 					if( strPacketType == _MTEXT(C6_CHARACTER))

  00966	75 42		 jne	 SHORT $LN38@LoadExcel

; 285  : 					{
; 286  : 						CString strMsg;

  00968	8d 8d 4c f8 ff
	ff		 lea	 ecx, DWORD PTR _strMsg$16[ebp]
  0096e	ff 15 00 00 00
	00		 call	 DWORD PTR __imp_??0?$CStringT@DV?$StrTraitMFC_DLL@DV?$ChTraitsCRT@D@ATL@@@@@ATL@@QAE@XZ

; 287  : 						// strMsg = "    .";
; 288  : 						strMsg.LoadString( IDS_TEXTIMPORT);

  00974	6a 07		 push	 7
  00976	8d 8d 4c f8 ff
	ff		 lea	 ecx, DWORD PTR _strMsg$16[ebp]
  0097c	c6 45 fc 18	 mov	 BYTE PTR __$EHRec$[ebp+8], 24 ; 00000018H
  00980	ff 15 00 00 00
	00		 call	 DWORD PTR __imp_?LoadStringA@?$CStringT@DV?$StrTraitMFC_DLL@DV?$ChTraitsCRT@D@ATL@@@@@ATL@@QAEHI@Z

; 289  : 						AfxMessageBox(strMsg);

  00986	6a 00		 push	 0
  00988	6a 00		 push	 0
  0098a	ff b5 4c f8 ff
	ff		 push	 DWORD PTR _strMsg$16[ebp]
  00990	e8 00 00 00 00	 call	 ?AfxMessageBox@@YGHPBDII@Z ; AfxMessageBox

; 290  : 						
; 291  : 					}

  00995	8d 8d 4c f8 ff
	ff		 lea	 ecx, DWORD PTR _strMsg$16[ebp]
  0099b	c6 45 fc 17	 mov	 BYTE PTR __$EHRec$[ebp+8], 23 ; 00000017H
  0099f	ff 15 00 00 00
	00		 call	 DWORD PTR __imp_??1?$CStringT@DV?$StrTraitMFC_DLL@DV?$ChTraitsCRT@D@ATL@@@@@ATL@@QAE@XZ
  009a5	e9 ca 02 00 00	 jmp	 $LN14@LoadExcel
$LN38@LoadExcel:

; 292  : 					else
; 293  : 					{
; 294  : 						CTimeSpan t(0, 0, 0, 0 );
; 295  : 						for(int j=0; j<maxRows-1; j++)

  009aa	8b 95 54 f8 ff
	ff		 mov	 edx, DWORD PTR tv1985[ebp]
  009b0	85 d2		 test	 edx, edx
  009b2	0f 84 bc 02 00
	00		 je	 $LN14@LoadExcel
  009b8	8b 85 08 f8 ff
	ff		 mov	 eax, DWORD PTR _maxRows$1$[ebp]
  009be	bf 01 00 00 00	 mov	 edi, 1
  009c3	89 95 0c f8 ff
	ff		 mov	 DWORD PTR tv2001[ebp], edx
  009c9	8d 04 c5 f0 ff
	ff ff		 lea	 eax, DWORD PTR [eax*8-16]
  009d0	89 85 20 f8 ff
	ff		 mov	 DWORD PTR tv1972[ebp], eax
  009d6	03 85 5c f8 ff
	ff		 add	 eax, DWORD PTR _p_dBuf$1$[ebp]
  009dc	89 85 64 f8 ff
	ff		 mov	 DWORD PTR tv1970[ebp], eax
$LL15@LoadExcel:

; 298  : 							if( strPacketName == _MTEXT(C0_DATE_TIME))

  009e2	a1 54 00 00 00	 mov	 eax, DWORD PTR ?g_iMetaTable@@3VIMetaTable@@A+84
; File C:\Program Files (x86)\Microsoft Visual Studio\2019\Community\VC\Tools\MSVC\14.29.30133\atlmfc\include\cstringt.h

; 2486 : 		return(str1.Compare(psz2) == 0);

  009e7	8d 8d 6c f8 ff
	ff		 lea	 ecx, DWORD PTR _strPacketName$27[ebp]
  009ed	ff 30		 push	 DWORD PTR [eax]
  009ef	ff 15 00 00 00
	00		 call	 DWORD PTR __imp_?Compare@?$CStringT@DV?$StrTraitMFC_DLL@DV?$ChTraitsCRT@D@ATL@@@@@ATL@@QBEHPBD@Z
  009f5	85 c0		 test	 eax, eax
; File D:\git\src\IBK\IBK_DRFN\ProjSrc\SrcChartEx\ChartAddIn\ChartDataListViewerAddIn\ChartDataListViewerAddIn\ChartExcelDataImportAddInImp.cpp

; 298  : 							if( strPacketName == _MTEXT(C0_DATE_TIME))

  009f7	0f 85 cc 00 00
	00		 jne	 $LN40@LoadExcel
; File C:\Program Files (x86)\Microsoft Visual Studio\2019\Community\VC\Tools\MSVC\14.29.30133\atlmfc\include\cstringt.h

; 2486 : 		return(str1.Compare(psz2) == 0);

  009fd	68 00 00 00 00	 push	 OFFSET ??_C@_08DKDJLCMP@YYYYMMDD@
  00a02	8d 8d 68 f8 ff
	ff		 lea	 ecx, DWORD PTR _strPacketType$24[ebp]
  00a08	ff 15 00 00 00
	00		 call	 DWORD PTR __imp_?Compare@?$CStringT@DV?$StrTraitMFC_DLL@DV?$ChTraitsCRT@D@ATL@@@@@ATL@@QBEHPBD@Z
  00a0e	85 c0		 test	 eax, eax
; File D:\git\src\IBK\IBK_DRFN\ProjSrc\SrcChartEx\ChartAddIn\ChartDataListViewerAddIn\ChartDataListViewerAddIn\ChartExcelDataImportAddInImp.cpp

; 304  : 									( strPacketType == "YYMM") || ( strPacketType == "MMDD"))

  00a10	0f 84 80 00 00
	00		 je	 $LN44@LoadExcel
; File C:\Program Files (x86)\Microsoft Visual Studio\2019\Community\VC\Tools\MSVC\14.29.30133\atlmfc\include\cstringt.h

; 2486 : 		return(str1.Compare(psz2) == 0);

  00a16	68 00 00 00 00	 push	 OFFSET ??_C@_06NFMEGGNP@YYMMDD@
  00a1b	8d 8d 68 f8 ff
	ff		 lea	 ecx, DWORD PTR _strPacketType$24[ebp]
  00a21	ff 15 00 00 00
	00		 call	 DWORD PTR __imp_?Compare@?$CStringT@DV?$StrTraitMFC_DLL@DV?$ChTraitsCRT@D@ATL@@@@@ATL@@QBEHPBD@Z
  00a27	85 c0		 test	 eax, eax
; File D:\git\src\IBK\IBK_DRFN\ProjSrc\SrcChartEx\ChartAddIn\ChartDataListViewerAddIn\ChartDataListViewerAddIn\ChartExcelDataImportAddInImp.cpp

; 304  : 									( strPacketType == "YYMM") || ( strPacketType == "MMDD"))

  00a29	74 6b		 je	 SHORT $LN44@LoadExcel
; File C:\Program Files (x86)\Microsoft Visual Studio\2019\Community\VC\Tools\MSVC\14.29.30133\atlmfc\include\cstringt.h

; 2486 : 		return(str1.Compare(psz2) == 0);

  00a2b	68 00 00 00 00	 push	 OFFSET ??_C@_06EBMMBHJD@YYYYMM@
  00a30	8d 8d 68 f8 ff
	ff		 lea	 ecx, DWORD PTR _strPacketType$24[ebp]
  00a36	ff 15 00 00 00
	00		 call	 DWORD PTR __imp_?Compare@?$CStringT@DV?$StrTraitMFC_DLL@DV?$ChTraitsCRT@D@ATL@@@@@ATL@@QBEHPBD@Z
  00a3c	85 c0		 test	 eax, eax
; File D:\git\src\IBK\IBK_DRFN\ProjSrc\SrcChartEx\ChartAddIn\ChartDataListViewerAddIn\ChartDataListViewerAddIn\ChartExcelDataImportAddInImp.cpp

; 304  : 									( strPacketType == "YYMM") || ( strPacketType == "MMDD"))

  00a3e	74 56		 je	 SHORT $LN44@LoadExcel
; File C:\Program Files (x86)\Microsoft Visual Studio\2019\Community\VC\Tools\MSVC\14.29.30133\atlmfc\include\cstringt.h

; 2486 : 		return(str1.Compare(psz2) == 0);

  00a40	68 00 00 00 00	 push	 OFFSET ??_C@_08DKDJLCMP@YYYYMMDD@
  00a45	8d 8d 68 f8 ff
	ff		 lea	 ecx, DWORD PTR _strPacketType$24[ebp]
  00a4b	ff 15 00 00 00
	00		 call	 DWORD PTR __imp_?Compare@?$CStringT@DV?$StrTraitMFC_DLL@DV?$ChTraitsCRT@D@ATL@@@@@ATL@@QBEHPBD@Z
  00a51	85 c0		 test	 eax, eax
; File D:\git\src\IBK\IBK_DRFN\ProjSrc\SrcChartEx\ChartAddIn\ChartDataListViewerAddIn\ChartDataListViewerAddIn\ChartExcelDataImportAddInImp.cpp

; 304  : 									( strPacketType == "YYMM") || ( strPacketType == "MMDD"))

  00a53	74 41		 je	 SHORT $LN44@LoadExcel
; File C:\Program Files (x86)\Microsoft Visual Studio\2019\Community\VC\Tools\MSVC\14.29.30133\atlmfc\include\cstringt.h

; 2486 : 		return(str1.Compare(psz2) == 0);

  00a55	68 00 00 00 00	 push	 OFFSET ??_C@_04IHEOMKKL@YYMM@
  00a5a	8d 8d 68 f8 ff
	ff		 lea	 ecx, DWORD PTR _strPacketType$24[ebp]
  00a60	ff 15 00 00 00
	00		 call	 DWORD PTR __imp_?Compare@?$CStringT@DV?$StrTraitMFC_DLL@DV?$ChTraitsCRT@D@ATL@@@@@ATL@@QBEHPBD@Z
  00a66	85 c0		 test	 eax, eax
; File D:\git\src\IBK\IBK_DRFN\ProjSrc\SrcChartEx\ChartAddIn\ChartDataListViewerAddIn\ChartDataListViewerAddIn\ChartExcelDataImportAddInImp.cpp

; 304  : 									( strPacketType == "YYMM") || ( strPacketType == "MMDD"))

  00a68	74 2c		 je	 SHORT $LN44@LoadExcel
; File C:\Program Files (x86)\Microsoft Visual Studio\2019\Community\VC\Tools\MSVC\14.29.30133\atlmfc\include\cstringt.h

; 2486 : 		return(str1.Compare(psz2) == 0);

  00a6a	68 00 00 00 00	 push	 OFFSET ??_C@_04BDEGLLOH@MMDD@
  00a6f	8d 8d 68 f8 ff
	ff		 lea	 ecx, DWORD PTR _strPacketType$24[ebp]
  00a75	ff 15 00 00 00
	00		 call	 DWORD PTR __imp_?Compare@?$CStringT@DV?$StrTraitMFC_DLL@DV?$ChTraitsCRT@D@ATL@@@@@ATL@@QBEHPBD@Z
  00a7b	85 c0		 test	 eax, eax
; File D:\git\src\IBK\IBK_DRFN\ProjSrc\SrcChartEx\ChartAddIn\ChartDataListViewerAddIn\ChartDataListViewerAddIn\ChartExcelDataImportAddInImp.cpp

; 304  : 									( strPacketType == "YYMM") || ( strPacketType == "MMDD"))

  00a7d	74 17		 je	 SHORT $LN44@LoadExcel

; 306  : 								else
; 307  : 									p_dBuf[maxRows-2-j] = sheet1->Cell(j+1,i)->GetTime();

  00a7f	ff b5 60 f8 ff
	ff		 push	 DWORD PTR _i$1$[ebp]
  00a85	8b cb		 mov	 ecx, ebx
  00a87	57		 push	 edi
  00a88	e8 00 00 00 00	 call	 ?Cell@BasicExcelWorksheet@YExcel@@QAEPAVBasicExcelCell@2@II@Z ; YExcel::BasicExcelWorksheet::Cell
  00a8d	8b c8		 mov	 ecx, eax
  00a8f	e8 00 00 00 00	 call	 ?GetTime@BasicExcelCell@YExcel@@QAEJXZ ; YExcel::BasicExcelCell::GetTime
  00a94	eb 15		 jmp	 SHORT $LN270@LoadExcel
$LN44@LoadExcel:

; 305  : 									p_dBuf[maxRows-2-j] = sheet1->Cell(j+1,i)->GetDate();

  00a96	ff b5 60 f8 ff
	ff		 push	 DWORD PTR _i$1$[ebp]
  00a9c	8b cb		 mov	 ecx, ebx
  00a9e	57		 push	 edi
  00a9f	e8 00 00 00 00	 call	 ?Cell@BasicExcelWorksheet@YExcel@@QAEPAVBasicExcelCell@2@II@Z ; YExcel::BasicExcelWorksheet::Cell
  00aa4	8b c8		 mov	 ecx, eax
  00aa6	e8 00 00 00 00	 call	 ?GetDate@BasicExcelCell@YExcel@@QAEJXZ ; YExcel::BasicExcelCell::GetDate
$LN270@LoadExcel:

; 308  : 							}

  00aab	8b 8d 5c f8 ff
	ff		 mov	 ecx, DWORD PTR _p_dBuf$1$[ebp]
  00ab1	66 0f 6e c0	 movd	 xmm0, eax
  00ab5	8b 85 20 f8 ff
	ff		 mov	 eax, DWORD PTR tv1972[ebp]
  00abb	f3 0f e6 c0	 cvtdq2pd xmm0, xmm0
  00abf	f2 0f 11 04 01	 movsd	 QWORD PTR [ecx+eax], xmm0
  00ac4	e9 87 01 00 00	 jmp	 $LN13@LoadExcel
$LN40@LoadExcel:

; 309  : 							else
; 310  : 							// 20081013  8/32 10 . >>
; 311  : 							{
; 312  : 								CString strOutput;			//    

  00ac9	8d 8d 24 f8 ff
	ff		 lea	 ecx, DWORD PTR _strOutput$8[ebp]
  00acf	ff 15 00 00 00
	00		 call	 DWORD PTR __imp_??0?$CStringT@DV?$StrTraitMFC_DLL@DV?$ChTraitsCRT@D@ATL@@@@@ATL@@QAE@XZ

; 313  : 								CString strInput = sheet1->Cell(j+1,i)->GetString();

  00ad5	ff b5 60 f8 ff
	ff		 push	 DWORD PTR _i$1$[ebp]
  00adb	8b cb		 mov	 ecx, ebx
  00add	c6 45 fc 19	 mov	 BYTE PTR __$EHRec$[ebp+8], 25 ; 00000019H
  00ae1	57		 push	 edi
  00ae2	e8 00 00 00 00	 call	 ?Cell@BasicExcelWorksheet@YExcel@@QAEPAVBasicExcelCell@2@II@Z ; YExcel::BasicExcelWorksheet::Cell
  00ae7	8b c8		 mov	 ecx, eax
  00ae9	e8 00 00 00 00	 call	 ?GetString@BasicExcelCell@YExcel@@QBEPBDXZ ; YExcel::BasicExcelCell::GetString
  00aee	50		 push	 eax
  00aef	8d 8d 28 f8 ff
	ff		 lea	 ecx, DWORD PTR _strInput$9[ebp]
  00af5	ff 15 00 00 00
	00		 call	 DWORD PTR __imp_??0?$CStringT@DV?$StrTraitMFC_DLL@DV?$ChTraitsCRT@D@ATL@@@@@ATL@@QAE@PBD@Z
; File C:\Program Files (x86)\Microsoft Visual Studio\2019\Community\VC\Tools\MSVC\14.29.30133\atlmfc\include\atlsimpstr.h

; 519  : 		return( GetData()->nDataLength );

  00afb	8b 85 28 f8 ff
	ff		 mov	 eax, DWORD PTR _strInput$9[ebp]
; File D:\git\src\IBK\IBK_DRFN\ProjSrc\SrcChartEx\ChartAddIn\ChartDataListViewerAddIn\ChartDataListViewerAddIn\ChartExcelDataImportAddInImp.cpp

; 313  : 								CString strInput = sheet1->Cell(j+1,i)->GetString();

  00b01	c6 45 fc 1a	 mov	 BYTE PTR __$EHRec$[ebp+8], 26 ; 0000001aH
; File C:\Program Files (x86)\Microsoft Visual Studio\2019\Community\VC\Tools\MSVC\14.29.30133\atlmfc\include\atlsimpstr.h

; 533  : 		return( GetLength() == 0 );

  00b05	83 78 f4 00	 cmp	 DWORD PTR [eax-12], 0
; File D:\git\src\IBK\IBK_DRFN\ProjSrc\SrcChartEx\ChartAddIn\ChartDataListViewerAddIn\ChartDataListViewerAddIn\ChartExcelDataImportAddInImp.cpp

; 316  : 								if( strInput.IsEmpty()) p_dBuf[maxRows-2-j] = sheet1->Cell(j+1,i)->GetDouble();

  00b09	75 22		 jne	 SHORT $LN45@LoadExcel
$LN47@LoadExcel:

; 334  : 							}

  00b0b	ff b5 60 f8 ff
	ff		 push	 DWORD PTR _i$1$[ebp]
  00b11	8b cb		 mov	 ecx, ebx
  00b13	57		 push	 edi
  00b14	e8 00 00 00 00	 call	 ?Cell@BasicExcelWorksheet@YExcel@@QAEPAVBasicExcelCell@2@II@Z ; YExcel::BasicExcelWorksheet::Cell
  00b19	8b c8		 mov	 ecx, eax
  00b1b	e8 00 00 00 00	 call	 ?GetDouble@BasicExcelCell@YExcel@@QBENXZ ; YExcel::BasicExcelCell::GetDouble
  00b20	8b 85 64 f8 ff
	ff		 mov	 eax, DWORD PTR tv1970[ebp]
  00b26	dd 18		 fstp	 QWORD PTR [eax]
  00b28	e9 01 01 00 00	 jmp	 $LN48@LoadExcel
$LN45@LoadExcel:

; 317  : 								else
; 318  : 								{
; 319  : 									//  .
; 320  : 									pIPacket = m_pIDefaultPacketManager->GetPacket(strPacketName);	

  00b2d	8b 85 50 f8 ff
	ff		 mov	 eax, DWORD PTR _this$GSCopy$1$[ebp]
  00b33	ff b5 6c f8 ff
	ff		 push	 DWORD PTR _strPacketName$27[ebp]
  00b39	8b 48 24	 mov	 ecx, DWORD PTR [eax+36]
  00b3c	8b 01		 mov	 eax, DWORD PTR [ecx]
  00b3e	ff 50 14	 call	 DWORD PTR [eax+20]
  00b41	8b f0		 mov	 esi, eax
  00b43	89 b5 10 f8 ff
	ff		 mov	 DWORD PTR _pIPacket$1$[ebp], esi

; 321  : 									if(pIPacket)

  00b49	85 f6		 test	 esi, esi
  00b4b	74 be		 je	 SHORT $LN47@LoadExcel

; 324  : 										ILPCSTR szPacketType2 = pIPacket->GetType();

  00b4d	8b 06		 mov	 eax, DWORD PTR [esi]
  00b4f	8b ce		 mov	 ecx, esi
  00b51	6a 01		 push	 1
  00b53	ff 50 1c	 call	 DWORD PTR [eax+28]
; File D:\git\src\IBK\IBK_DRFN\ProjSrc\SrcChartEx\ChartAddIn\ChartDataListViewerAddIn\Include_AddIn_134221\I134221\_IString.h

; 39   : 		m_pIStrData = p_pIString;	// Do not AddRef(). Because It must be Return Value.

  00b56	8b f0		 mov	 esi, eax
  00b58	89 b5 00 f8 ff
	ff		 mov	 DWORD PTR _szPacketType2$4[ebp+4], esi

; 40   : 		if( m_pIStrData) m_szData = m_pIStrData->GetData();

  00b5e	85 f6		 test	 esi, esi
  00b60	74 09		 je	 SHORT $LN219@LoadExcel
  00b62	8b 16		 mov	 edx, DWORD PTR [esi]
  00b64	8b ce		 mov	 ecx, esi
  00b66	ff 52 10	 call	 DWORD PTR [edx+16]
  00b69	eb 02		 jmp	 SHORT $LN271@LoadExcel
$LN219@LoadExcel:

; 41   : 		else m_szData = NULL;

  00b6b	33 c0		 xor	 eax, eax
$LN271@LoadExcel:
; File D:\git\src\IBK\IBK_DRFN\ProjSrc\SrcChartEx\ChartAddIn\ChartDataListViewerAddIn\ChartDataListViewerAddIn\ChartExcelDataImportAddInImp.cpp

; 324  : 										ILPCSTR szPacketType2 = pIPacket->GetType();

  00b6d	89 85 fc f7 ff
	ff		 mov	 DWORD PTR _szPacketType2$4[ebp], eax

; 325  : 										CString strPacketType2( szPacketType2);

  00b73	50		 push	 eax
  00b74	8d 8d 14 f8 ff
	ff		 lea	 ecx, DWORD PTR _strPacketType2$5[ebp]
  00b7a	c6 45 fc 1b	 mov	 BYTE PTR __$EHRec$[ebp+8], 27 ; 0000001bH
  00b7e	ff 15 00 00 00
	00		 call	 DWORD PTR __imp_??0?$CStringT@DV?$StrTraitMFC_DLL@DV?$ChTraitsCRT@D@ATL@@@@@ATL@@QAE@PBD@Z

; 326  : 										BOOL bResult = CDataConversion::GetDataToDec( strInput, strPacketType2, strOutput);

  00b84	8d 85 24 f8 ff
	ff		 lea	 eax, DWORD PTR _strOutput$8[ebp]
  00b8a	c6 45 fc 1c	 mov	 BYTE PTR __$EHRec$[ebp+8], 28 ; 0000001cH
  00b8e	50		 push	 eax
  00b8f	51		 push	 ecx
  00b90	8d 85 14 f8 ff
	ff		 lea	 eax, DWORD PTR _strPacketType2$5[ebp]
  00b96	89 a5 ec f7 ff
	ff		 mov	 DWORD PTR $T2[ebp], esp
  00b9c	8b cc		 mov	 ecx, esp
  00b9e	50		 push	 eax
  00b9f	ff 15 00 00 00
	00		 call	 DWORD PTR __imp_??0?$CStringT@DV?$StrTraitMFC_DLL@DV?$ChTraitsCRT@D@ATL@@@@@ATL@@QAE@ABV01@@Z
  00ba5	51		 push	 ecx
  00ba6	8d 85 28 f8 ff
	ff		 lea	 eax, DWORD PTR _strInput$9[ebp]
  00bac	c6 45 fc 1d	 mov	 BYTE PTR __$EHRec$[ebp+8], 29 ; 0000001dH
  00bb0	8b cc		 mov	 ecx, esp
  00bb2	50		 push	 eax
  00bb3	ff 15 00 00 00
	00		 call	 DWORD PTR __imp_??0?$CStringT@DV?$StrTraitMFC_DLL@DV?$ChTraitsCRT@D@ATL@@@@@ATL@@QAE@ABV01@@Z
  00bb9	c6 45 fc 1c	 mov	 BYTE PTR __$EHRec$[ebp+8], 28 ; 0000001cH
  00bbd	e8 00 00 00 00	 call	 ?GetDataToDec@CDataConversion@@SAHV?$CStringT@DV?$StrTraitMFC_DLL@DV?$ChTraitsCRT@D@ATL@@@@@ATL@@0AAV23@@Z ; CDataConversion::GetDataToDec
  00bc2	83 c4 0c	 add	 esp, 12			; 0000000cH

; 327  : 										//  double .
; 328  : 										if( bResult)	p_dBuf[maxRows-2-j] = atof(strOutput);

  00bc5	85 c0		 test	 eax, eax
  00bc7	74 1f		 je	 SHORT $LN49@LoadExcel
  00bc9	ff b5 24 f8 ff
	ff		 push	 DWORD PTR _strOutput$8[ebp]
  00bcf	ff 15 00 00 00
	00		 call	 DWORD PTR __imp__atof
  00bd5	dd 9d 2c f8 ff
	ff		 fstp	 QWORD PTR $T10[ebp]
  00bdb	f2 0f 10 85 2c
	f8 ff ff	 movsd	 xmm0, QWORD PTR $T10[ebp]
  00be3	83 c4 04	 add	 esp, 4
  00be6	eb 08		 jmp	 SHORT $LN50@LoadExcel
$LN49@LoadExcel:

; 329  : 										//   32  0 .
; 330  : 										else			p_dBuf[maxRows-2-j] = 0;

  00be8	f2 0f 10 85 e4
	f7 ff ff	 movsd	 xmm0, QWORD PTR __real@0000000000000000$1$[ebp]
$LN50@LoadExcel:

; 331  : 									}

  00bf0	8b 85 64 f8 ff
	ff		 mov	 eax, DWORD PTR tv1970[ebp]
  00bf6	8d 8d 14 f8 ff
	ff		 lea	 ecx, DWORD PTR _strPacketType2$5[ebp]
  00bfc	f2 0f 11 00	 movsd	 QWORD PTR [eax], xmm0
  00c00	ff 15 00 00 00
	00		 call	 DWORD PTR __imp_??1?$CStringT@DV?$StrTraitMFC_DLL@DV?$ChTraitsCRT@D@ATL@@@@@ATL@@QAE@XZ
; File D:\git\src\IBK\IBK_DRFN\ProjSrc\SrcChartEx\ChartAddIn\ChartDataListViewerAddIn\Include_AddIn_134221\I134221\_IString.h

; 44   : 	{

  00c06	c6 45 fc 1e	 mov	 BYTE PTR __$EHRec$[ebp+8], 30 ; 0000001eH

; 45   : 		if( m_pIStrData)

  00c0a	85 f6		 test	 esi, esi
  00c0c	74 1a		 je	 SHORT $LN264@LoadExcel

; 46   : 		{
; 47   : 			m_pIStrData->Release();

  00c0e	8b 06		 mov	 eax, DWORD PTR [esi]
  00c10	56		 push	 esi
  00c11	ff 50 08	 call	 DWORD PTR [eax+8]

; 48   : 			m_pIStrData = NULL;

  00c14	c7 85 00 f8 ff
	ff 00 00 00 00	 mov	 DWORD PTR _szPacketType2$4[ebp+4], 0

; 49   : 			m_szData = NULL;

  00c1e	c7 85 fc f7 ff
	ff 00 00 00 00	 mov	 DWORD PTR _szPacketType2$4[ebp], 0
$LN264@LoadExcel:
; File D:\git\src\IBK\IBK_DRFN\ProjSrc\SrcChartEx\ChartAddIn\ChartDataListViewerAddIn\ChartDataListViewerAddIn\ChartExcelDataImportAddInImp.cpp

; 334  : 							}

  00c28	8b b5 10 f8 ff
	ff		 mov	 esi, DWORD PTR _pIPacket$1$[ebp]
$LN48@LoadExcel:
  00c2e	8d 8d 28 f8 ff
	ff		 lea	 ecx, DWORD PTR _strInput$9[ebp]
  00c34	ff 15 00 00 00
	00		 call	 DWORD PTR __imp_??1?$CStringT@DV?$StrTraitMFC_DLL@DV?$ChTraitsCRT@D@ATL@@@@@ATL@@QAE@XZ
  00c3a	8d 8d 24 f8 ff
	ff		 lea	 ecx, DWORD PTR _strOutput$8[ebp]
  00c40	c6 45 fc 17	 mov	 BYTE PTR __$EHRec$[ebp+8], 23 ; 00000017H
  00c44	ff 15 00 00 00
	00		 call	 DWORD PTR __imp_??1?$CStringT@DV?$StrTraitMFC_DLL@DV?$ChTraitsCRT@D@ATL@@@@@ATL@@QAE@XZ
  00c4a	8b 85 20 f8 ff
	ff		 mov	 eax, DWORD PTR tv1972[ebp]
$LN13@LoadExcel:

; 292  : 					else
; 293  : 					{
; 294  : 						CTimeSpan t(0, 0, 0, 0 );
; 295  : 						for(int j=0; j<maxRows-1; j++)

  00c50	83 ad 64 f8 ff
	ff 08		 sub	 DWORD PTR tv1970[ebp], 8
  00c57	83 e8 08	 sub	 eax, 8
  00c5a	47		 inc	 edi
  00c5b	89 85 20 f8 ff
	ff		 mov	 DWORD PTR tv1972[ebp], eax
  00c61	83 ad 0c f8 ff
	ff 01		 sub	 DWORD PTR tv2001[ebp], 1
  00c68	0f 85 74 fd ff
	ff		 jne	 $LL15@LoadExcel
  00c6e	8b bd 60 f8 ff
	ff		 mov	 edi, DWORD PTR _i$1$[ebp]
$LN14@LoadExcel:

; 335  : 							// 20081013  <<
; 336  : 						}					
; 337  : 					}
; 338  : 					m_pIChartOCX->SetBinTrDoubleData(strPacketName, maxRows-1, p_dBuf);

  00c74	8b 85 50 f8 ff
	ff		 mov	 eax, DWORD PTR _this$GSCopy$1$[ebp]
  00c7a	ff b5 5c f8 ff
	ff		 push	 DWORD PTR _p_dBuf$1$[ebp]
  00c80	8b 48 0c	 mov	 ecx, DWORD PTR [eax+12]
  00c83	8b 85 08 f8 ff
	ff		 mov	 eax, DWORD PTR _maxRows$1$[ebp]
  00c89	48		 dec	 eax
  00c8a	50		 push	 eax
  00c8b	8b 11		 mov	 edx, DWORD PTR [ecx]
  00c8d	ff b5 6c f8 ff
	ff		 push	 DWORD PTR _strPacketName$27[ebp]
  00c93	ff 92 34 02 00
	00		 call	 DWORD PTR [edx+564]

; 339  : 					delete []p_dBuf;

  00c99	ff b5 5c f8 ff
	ff		 push	 DWORD PTR _p_dBuf$1$[ebp]
  00c9f	e8 00 00 00 00	 call	 ??_V@YAXPAX@Z		; operator delete[]

; 340  : 					pIPacket->Release();

  00ca4	8b 06		 mov	 eax, DWORD PTR [esi]
  00ca6	83 c4 04	 add	 esp, 4
  00ca9	56		 push	 esi
  00caa	ff 50 08	 call	 DWORD PTR [eax+8]

; 341  : 				}

  00cad	8d 8d 68 f8 ff
	ff		 lea	 ecx, DWORD PTR _strPacketType$24[ebp]
  00cb3	ff 15 00 00 00
	00		 call	 DWORD PTR __imp_??1?$CStringT@DV?$StrTraitMFC_DLL@DV?$ChTraitsCRT@D@ATL@@@@@ATL@@QAE@XZ
; File D:\git\src\IBK\IBK_DRFN\ProjSrc\SrcChartEx\ChartAddIn\ChartDataListViewerAddIn\Include_AddIn_134221\I134221\_IString.h

; 45   : 		if( m_pIStrData)

  00cb9	8b 8d f0 f7 ff
	ff		 mov	 ecx, DWORD PTR _szPacketType$2$[ebp]
  00cbf	c6 45 fc 1f	 mov	 BYTE PTR __$EHRec$[ebp+8], 31 ; 0000001fH
  00cc3	85 c9		 test	 ecx, ecx
  00cc5	74 1a		 je	 SHORT $LN231@LoadExcel

; 46   : 		{
; 47   : 			m_pIStrData->Release();

  00cc7	8b 01		 mov	 eax, DWORD PTR [ecx]
  00cc9	51		 push	 ecx
  00cca	ff 50 08	 call	 DWORD PTR [eax+8]

; 48   : 			m_pIStrData = NULL;

  00ccd	c7 85 f8 f7 ff
	ff 00 00 00 00	 mov	 DWORD PTR _szPacketType$3[ebp+4], 0

; 49   : 			m_szData = NULL;

  00cd7	c7 85 f4 f7 ff
	ff 00 00 00 00	 mov	 DWORD PTR _szPacketType$3[ebp], 0
$LN231@LoadExcel:
; File D:\git\src\IBK\IBK_DRFN\ProjSrc\SrcChartEx\ChartAddIn\ChartDataListViewerAddIn\ChartDataListViewerAddIn\ChartExcelDataImportAddInImp.cpp

; 341  : 				}

  00ce1	8d 8d 58 f8 ff
	ff		 lea	 ecx, DWORD PTR _strDate$20[ebp]
  00ce7	c6 45 fc 14	 mov	 BYTE PTR __$EHRec$[ebp+8], 20 ; 00000014H
  00ceb	ff 15 00 00 00
	00		 call	 DWORD PTR __imp_??1?$CStringT@DV?$StrTraitMFC_DLL@DV?$ChTraitsCRT@D@ATL@@@@@ATL@@QAE@XZ
  00cf1	8b 85 54 f8 ff
	ff		 mov	 eax, DWORD PTR tv1985[ebp]
  00cf7	47		 inc	 edi
  00cf8	ba 08 00 00 00	 mov	 edx, 8
  00cfd	89 bd 60 f8 ff
	ff		 mov	 DWORD PTR _i$1$[ebp], edi
  00d03	8d 34 c5 00 00
	00 00		 lea	 esi, DWORD PTR [eax*8]
  00d0a	3b bd 44 f8 ff
	ff		 cmp	 edi, DWORD PTR _maxCols$1$[ebp]
  00d10	0f 82 9e fa ff
	ff		 jb	 $LL12@LoadExcel
$LN11@LoadExcel:

; 342  : 				
; 343  : 				// import end
; 344  : 				m_pIChartOCX->SetBinTrEnd();

  00d16	8b 85 50 f8 ff
	ff		 mov	 eax, DWORD PTR _this$GSCopy$1$[ebp]
  00d1c	8b 48 0c	 mov	 ecx, DWORD PTR [eax+12]
  00d1f	8b 01		 mov	 eax, DWORD PTR [ecx]
  00d21	ff 90 3c 02 00
	00		 call	 DWORD PTR [eax+572]
$LN5@LoadExcel:
; File D:\git\src\IBK\IBK_DRFN\ProjSrc\SrcChartEx\ChartAddIn\ChartDataListViewerAddIn\Include_AddIn_134221\I134221\_IString.h

; 44   : 	{

  00d27	8d 8d 6c f8 ff
	ff		 lea	 ecx, DWORD PTR _strPacketName$27[ebp]
  00d2d	ff 15 00 00 00
	00		 call	 DWORD PTR __imp_??1?$CStringT@DV?$StrTraitMFC_DLL@DV?$ChTraitsCRT@D@ATL@@@@@ATL@@QAE@XZ

; 45   : 		if( m_pIStrData)

  00d33	8b 8d 40 f8 ff
	ff		 mov	 ecx, DWORD PTR _strValue$13[ebp+4]
  00d39	c6 45 fc 20	 mov	 BYTE PTR __$EHRec$[ebp+8], 32 ; 00000020H
  00d3d	85 c9		 test	 ecx, ecx
  00d3f	74 1a		 je	 SHORT $LN235@LoadExcel

; 46   : 		{
; 47   : 			m_pIStrData->Release();

  00d41	8b 01		 mov	 eax, DWORD PTR [ecx]
  00d43	51		 push	 ecx
  00d44	ff 50 08	 call	 DWORD PTR [eax+8]

; 48   : 			m_pIStrData = NULL;

  00d47	c7 85 40 f8 ff
	ff 00 00 00 00	 mov	 DWORD PTR _strValue$13[ebp+4], 0

; 49   : 			m_szData = NULL;

  00d51	c7 85 3c f8 ff
	ff 00 00 00 00	 mov	 DWORD PTR _strValue$13[ebp], 0
$LN235@LoadExcel:

; 45   : 		if( m_pIStrData)

  00d5b	8b 8d 38 f8 ff
	ff		 mov	 ecx, DWORD PTR _strKey$12[ebp+4]
  00d61	c6 45 fc 21	 mov	 BYTE PTR __$EHRec$[ebp+8], 33 ; 00000021H
  00d65	85 c9		 test	 ecx, ecx
  00d67	74 1a		 je	 SHORT $LN239@LoadExcel

; 46   : 		{
; 47   : 			m_pIStrData->Release();

  00d69	8b 01		 mov	 eax, DWORD PTR [ecx]
  00d6b	51		 push	 ecx
  00d6c	ff 50 08	 call	 DWORD PTR [eax+8]

; 48   : 			m_pIStrData = NULL;

  00d6f	c7 85 38 f8 ff
	ff 00 00 00 00	 mov	 DWORD PTR _strKey$12[ebp+4], 0

; 49   : 			m_szData = NULL;

  00d79	c7 85 34 f8 ff
	ff 00 00 00 00	 mov	 DWORD PTR _strKey$12[ebp], 0
$LN239@LoadExcel:
; File D:\git\src\IBK\IBK_DRFN\ProjSrc\SrcChartEx\ChartAddIn\ChartDataListViewerAddIn\ChartDataListViewerAddIn\ChartExcelDataImportAddInImp.cpp

; 346  : 		}

  00d83	8d 8d 48 f8 ff
	ff		 lea	 ecx, DWORD PTR _strSubMsg$15[ebp]
  00d89	ff 15 00 00 00
	00		 call	 DWORD PTR __imp_??1?$CStringT@DV?$StrTraitMFC_DLL@DV?$ChTraitsCRT@D@ATL@@@@@ATL@@QAE@XZ
$LN18@LoadExcel:

; 347  : 	}

  00d8f	8d 8d 70 f8 ff
	ff		 lea	 ecx, DWORD PTR _e$30[ebp]
  00d95	e8 00 00 00 00	 call	 ??1BasicExcel@YExcel@@QAE@XZ ; YExcel::BasicExcel::~BasicExcel
  00d9a	8d 8d 1c f8 ff
	ff		 lea	 ecx, DWORD PTR _strFileName$7[ebp]
  00da0	ff 15 00 00 00
	00		 call	 DWORD PTR __imp_??1?$CStringT@DV?$StrTraitMFC_DLL@DV?$ChTraitsCRT@D@ATL@@@@@ATL@@QAE@XZ
$LN16@LoadExcel:

; 348  : 
; 349  : 	return TRUE;

  00da6	be 01 00 00 00	 mov	 esi, 1
$LN81@LoadExcel:
  00dab	8d 8d 10 fd ff
	ff		 lea	 ecx, DWORD PTR _dlg$[ebp]
  00db1	e8 00 00 00 00	 call	 ??1CFileDialog@@UAE@XZ	; CFileDialog::~CFileDialog
  00db6	8d 8d 04 f8 ff
	ff		 lea	 ecx, DWORD PTR _strFilter$[ebp]
  00dbc	ff 15 00 00 00
	00		 call	 DWORD PTR __imp_??1?$CStringT@DV?$StrTraitMFC_DLL@DV?$ChTraitsCRT@D@ATL@@@@@ATL@@QAE@XZ
  00dc2	8b c6		 mov	 eax, esi

; 350  : }

  00dc4	8b 4d f4	 mov	 ecx, DWORD PTR __$EHRec$[ebp]
  00dc7	64 89 0d 00 00
	00 00		 mov	 DWORD PTR fs:0, ecx
  00dce	59		 pop	 ecx
  00dcf	5f		 pop	 edi
  00dd0	5e		 pop	 esi
  00dd1	5b		 pop	 ebx
  00dd2	8b 4d f0	 mov	 ecx, DWORD PTR __$ArrayPad$[ebp]
  00dd5	33 cd		 xor	 ecx, ebp
  00dd7	e8 00 00 00 00	 call	 @__security_check_cookie@4
  00ddc	8b e5		 mov	 esp, ebp
  00dde	5d		 pop	 ebp
  00ddf	c3		 ret	 0
_TEXT	ENDS
;	COMDAT text$x
text$x	SEGMENT
__unwindfunclet$?LoadExcel@CChartExcelDataImportAddInImp@@QAEHXZ$0:
  00000	8d 8d 04 f8 ff
	ff		 lea	 ecx, DWORD PTR _strFilter$[ebp]
  00006	ff 25 00 00 00
	00		 jmp	 DWORD PTR __imp_??1?$CStringT@DV?$StrTraitMFC_DLL@DV?$ChTraitsCRT@D@ATL@@@@@ATL@@QAE@XZ
__unwindfunclet$?LoadExcel@CChartExcelDataImportAddInImp@@QAEHXZ$1:
  0000c	8d 8d 10 fd ff
	ff		 lea	 ecx, DWORD PTR _dlg$[ebp]
  00012	e9 00 00 00 00	 jmp	 ??1CFileDialog@@UAE@XZ	; CFileDialog::~CFileDialog
__unwindfunclet$?LoadExcel@CChartExcelDataImportAddInImp@@QAEHXZ$2:
  00017	8d 8d 1c f8 ff
	ff		 lea	 ecx, DWORD PTR _strFileName$7[ebp]
  0001d	ff 25 00 00 00
	00		 jmp	 DWORD PTR __imp_??1?$CStringT@DV?$StrTraitMFC_DLL@DV?$ChTraitsCRT@D@ATL@@@@@ATL@@QAE@XZ
__unwindfunclet$?LoadExcel@CChartExcelDataImportAddInImp@@QAEHXZ$3:
  00023	8d 8d 70 f8 ff
	ff		 lea	 ecx, DWORD PTR _e$30[ebp]
  00029	e9 00 00 00 00	 jmp	 ??1BasicExcel@YExcel@@QAE@XZ ; YExcel::BasicExcel::~BasicExcel
__unwindfunclet$?LoadExcel@CChartExcelDataImportAddInImp@@QAEHXZ$4:
  0002e	8d 8d 48 f8 ff
	ff		 lea	 ecx, DWORD PTR _strSubMsg$15[ebp]
  00034	ff 25 00 00 00
	00		 jmp	 DWORD PTR __imp_??1?$CStringT@DV?$StrTraitMFC_DLL@DV?$ChTraitsCRT@D@ATL@@@@@ATL@@QAE@XZ
__unwindfunclet$?LoadExcel@CChartExcelDataImportAddInImp@@QAEHXZ$5:
  0003a	8d 8d 34 f8 ff
	ff		 lea	 ecx, DWORD PTR _strKey$12[ebp]
  00040	e9 00 00 00 00	 jmp	 ??1ILPCSTR134221@@QAE@XZ ; ILPCSTR134221::~ILPCSTR134221
__unwindfunclet$?LoadExcel@CChartExcelDataImportAddInImp@@QAEHXZ$6:
  00045	8d 8d 3c f8 ff
	ff		 lea	 ecx, DWORD PTR _strValue$13[ebp]
  0004b	e9 00 00 00 00	 jmp	 ??1ILPCSTR134221@@QAE@XZ ; ILPCSTR134221::~ILPCSTR134221
__unwindfunclet$?LoadExcel@CChartExcelDataImportAddInImp@@QAEHXZ$7:
  00050	8d 8d 44 f8 ff
	ff		 lea	 ecx, DWORD PTR $T14[ebp]
  00056	ff 25 00 00 00
	00		 jmp	 DWORD PTR __imp_??1?$CStringT@DV?$StrTraitMFC_DLL@DV?$ChTraitsCRT@D@ATL@@@@@ATL@@QAE@XZ
__unwindfunclet$?LoadExcel@CChartExcelDataImportAddInImp@@QAEHXZ$8:
  0005c	8d 8d 54 f8 ff
	ff		 lea	 ecx, DWORD PTR $T19[ebp]
  00062	ff 25 00 00 00
	00		 jmp	 DWORD PTR __imp_??1?$CStringT@DV?$StrTraitMFC_DLL@DV?$ChTraitsCRT@D@ATL@@@@@ATL@@QAE@XZ
__unwindfunclet$?LoadExcel@CChartExcelDataImportAddInImp@@QAEHXZ$28:
  00068	8b 85 5c f8 ff
	ff		 mov	 eax, DWORD PTR $T21[ebp]
  0006e	83 e0 01	 and	 eax, 1
  00071	0f 84 13 00 00
	00		 je	 $LN93@LoadExcel
  00077	83 a5 5c f8 ff
	ff fe		 and	 DWORD PTR $T21[ebp], -2	; fffffffeH
  0007e	8d 8d 68 f8 ff
	ff		 lea	 ecx, DWORD PTR $T26[ebp]
  00084	ff 25 00 00 00
	00		 jmp	 DWORD PTR __imp_??1?$CStringT@DV?$StrTraitMFC_DLL@DV?$ChTraitsCRT@D@ATL@@@@@ATL@@QAE@XZ
$LN93@LoadExcel:
  0008a	c3		 ret	 0
__unwindfunclet$?LoadExcel@CChartExcelDataImportAddInImp@@QAEHXZ$29:
  0008b	8b 85 5c f8 ff
	ff		 mov	 eax, DWORD PTR $T21[ebp]
  00091	83 e0 02	 and	 eax, 2
  00094	0f 84 13 00 00
	00		 je	 $LN106@LoadExcel
  0009a	83 a5 5c f8 ff
	ff fd		 and	 DWORD PTR $T21[ebp], -3	; fffffffdH
  000a1	8d 8d 64 f8 ff
	ff		 lea	 ecx, DWORD PTR $T23[ebp]
  000a7	ff 25 00 00 00
	00		 jmp	 DWORD PTR __imp_??1?$CStringT@DV?$StrTraitMFC_DLL@DV?$ChTraitsCRT@D@ATL@@@@@ATL@@QAE@XZ
$LN106@LoadExcel:
  000ad	c3		 ret	 0
__unwindfunclet$?LoadExcel@CChartExcelDataImportAddInImp@@QAEHXZ$30:
  000ae	8b 85 5c f8 ff
	ff		 mov	 eax, DWORD PTR $T21[ebp]
  000b4	83 e0 04	 and	 eax, 4
  000b7	0f 84 13 00 00
	00		 je	 $LN122@LoadExcel
  000bd	83 a5 5c f8 ff
	ff fb		 and	 DWORD PTR $T21[ebp], -5	; fffffffbH
  000c4	8d 8d 6c f8 ff
	ff		 lea	 ecx, DWORD PTR $T29[ebp]
  000ca	ff 25 00 00 00
	00		 jmp	 DWORD PTR __imp_??1?$CStringT@DV?$StrTraitMFC_DLL@DV?$ChTraitsCRT@D@ATL@@@@@ATL@@QAE@XZ
$LN122@LoadExcel:
  000d0	c3		 ret	 0
__unwindfunclet$?LoadExcel@CChartExcelDataImportAddInImp@@QAEHXZ$12:
  000d1	8d 8d 6c f8 ff
	ff		 lea	 ecx, DWORD PTR _strPacketName$28[ebp]
  000d7	ff 25 00 00 00
	00		 jmp	 DWORD PTR __imp_??1?$CStringT@DV?$StrTraitMFC_DLL@DV?$ChTraitsCRT@D@ATL@@@@@ATL@@QAE@XZ
__unwindfunclet$?LoadExcel@CChartExcelDataImportAddInImp@@QAEHXZ$13:
  000dd	8d 8d 5c f8 ff
	ff		 lea	 ecx, DWORD PTR _strDate$22[ebp]
  000e3	ff 25 00 00 00
	00		 jmp	 DWORD PTR __imp_??1?$CStringT@DV?$StrTraitMFC_DLL@DV?$ChTraitsCRT@D@ATL@@@@@ATL@@QAE@XZ
__unwindfunclet$?LoadExcel@CChartExcelDataImportAddInImp@@QAEHXZ$14:
  000e9	8d 8d 2c f8 ff
	ff		 lea	 ecx, DWORD PTR _szPacketType$11[ebp]
  000ef	e9 00 00 00 00	 jmp	 ??1ILPCSTR134221@@QAE@XZ ; ILPCSTR134221::~ILPCSTR134221
__unwindfunclet$?LoadExcel@CChartExcelDataImportAddInImp@@QAEHXZ$15:
  000f4	8d 8d 68 f8 ff
	ff		 lea	 ecx, DWORD PTR _strPacketType$25[ebp]
  000fa	ff 25 00 00 00
	00		 jmp	 DWORD PTR __imp_??1?$CStringT@DV?$StrTraitMFC_DLL@DV?$ChTraitsCRT@D@ATL@@@@@ATL@@QAE@XZ
__unwindfunclet$?LoadExcel@CChartExcelDataImportAddInImp@@QAEHXZ$16:
  00100	8d 8d 4c f8 ff
	ff		 lea	 ecx, DWORD PTR _strMsg$17[ebp]
  00106	ff 25 00 00 00
	00		 jmp	 DWORD PTR __imp_??1?$CStringT@DV?$StrTraitMFC_DLL@DV?$ChTraitsCRT@D@ATL@@@@@ATL@@QAE@XZ
__unwindfunclet$?LoadExcel@CChartExcelDataImportAddInImp@@QAEHXZ$17:
  0010c	8d 8d 6c f8 ff
	ff		 lea	 ecx, DWORD PTR _strPacketName$27[ebp]
  00112	ff 25 00 00 00
	00		 jmp	 DWORD PTR __imp_??1?$CStringT@DV?$StrTraitMFC_DLL@DV?$ChTraitsCRT@D@ATL@@@@@ATL@@QAE@XZ
__unwindfunclet$?LoadExcel@CChartExcelDataImportAddInImp@@QAEHXZ$18:
  00118	8d 8d 58 f8 ff
	ff		 lea	 ecx, DWORD PTR _strDate$20[ebp]
  0011e	ff 25 00 00 00
	00		 jmp	 DWORD PTR __imp_??1?$CStringT@DV?$StrTraitMFC_DLL@DV?$ChTraitsCRT@D@ATL@@@@@ATL@@QAE@XZ
__unwindfunclet$?LoadExcel@CChartExcelDataImportAddInImp@@QAEHXZ$19:
  00124	8d 8d f4 f7 ff
	ff		 lea	 ecx, DWORD PTR _szPacketType$3[ebp]
  0012a	e9 00 00 00 00	 jmp	 ??1ILPCSTR134221@@QAE@XZ ; ILPCSTR134221::~ILPCSTR134221
__unwindfunclet$?LoadExcel@CChartExcelDataImportAddInImp@@QAEHXZ$20:
  0012f	8d 8d 68 f8 ff
	ff		 lea	 ecx, DWORD PTR _strPacketType$24[ebp]
  00135	ff 25 00 00 00
	00		 jmp	 DWORD PTR __imp_??1?$CStringT@DV?$StrTraitMFC_DLL@DV?$ChTraitsCRT@D@ATL@@@@@ATL@@QAE@XZ
__unwindfunclet$?LoadExcel@CChartExcelDataImportAddInImp@@QAEHXZ$21:
  0013b	8d 8d 4c f8 ff
	ff		 lea	 ecx, DWORD PTR _strMsg$16[ebp]
  00141	ff 25 00 00 00
	00		 jmp	 DWORD PTR __imp_??1?$CStringT@DV?$StrTraitMFC_DLL@DV?$ChTraitsCRT@D@ATL@@@@@ATL@@QAE@XZ
__unwindfunclet$?LoadExcel@CChartExcelDataImportAddInImp@@QAEHXZ$22:
  00147	8d 8d 24 f8 ff
	ff		 lea	 ecx, DWORD PTR _strOutput$8[ebp]
  0014d	ff 25 00 00 00
	00		 jmp	 DWORD PTR __imp_??1?$CStringT@DV?$StrTraitMFC_DLL@DV?$ChTraitsCRT@D@ATL@@@@@ATL@@QAE@XZ
__unwindfunclet$?LoadExcel@CChartExcelDataImportAddInImp@@QAEHXZ$23:
  00153	8d 8d 28 f8 ff
	ff		 lea	 ecx, DWORD PTR _strInput$9[ebp]
  00159	ff 25 00 00 00
	00		 jmp	 DWORD PTR __imp_??1?$CStringT@DV?$StrTraitMFC_DLL@DV?$ChTraitsCRT@D@ATL@@@@@ATL@@QAE@XZ
__unwindfunclet$?LoadExcel@CChartExcelDataImportAddInImp@@QAEHXZ$24:
  0015f	8d 8d fc f7 ff
	ff		 lea	 ecx, DWORD PTR _szPacketType2$4[ebp]
  00165	e9 00 00 00 00	 jmp	 ??1ILPCSTR134221@@QAE@XZ ; ILPCSTR134221::~ILPCSTR134221
__unwindfunclet$?LoadExcel@CChartExcelDataImportAddInImp@@QAEHXZ$25:
  0016a	8d 8d 14 f8 ff
	ff		 lea	 ecx, DWORD PTR _strPacketType2$5[ebp]
  00170	ff 25 00 00 00
	00		 jmp	 DWORD PTR __imp_??1?$CStringT@DV?$StrTraitMFC_DLL@DV?$ChTraitsCRT@D@ATL@@@@@ATL@@QAE@XZ
__unwindfunclet$?LoadExcel@CChartExcelDataImportAddInImp@@QAEHXZ$26:
  00176	8b 8d ec f7 ff
	ff		 mov	 ecx, DWORD PTR $T2[ebp]
  0017c	ff 25 00 00 00
	00		 jmp	 DWORD PTR __imp_??1?$CStringT@DV?$StrTraitMFC_DLL@DV?$ChTraitsCRT@D@ATL@@@@@ATL@@QAE@XZ
  00182	cc		 int	 3
  00183	cc		 int	 3
  00184	cc		 int	 3
  00185	cc		 int	 3
  00186	cc		 int	 3
__ehhandler$?LoadExcel@CChartExcelDataImportAddInImp@@QAEHXZ:
  00187	90		 npad	 1
  00188	90		 npad	 1
  00189	8b 54 24 08	 mov	 edx, DWORD PTR [esp+8]
  0018d	8d 42 0c	 lea	 eax, DWORD PTR [edx+12]
  00190	8b 8a e0 f7 ff
	ff		 mov	 ecx, DWORD PTR [edx-2080]
  00196	33 c8		 xor	 ecx, eax
  00198	e8 00 00 00 00	 call	 @__security_check_cookie@4
  0019d	8b 4a fc	 mov	 ecx, DWORD PTR [edx-4]
  001a0	33 c8		 xor	 ecx, eax
  001a2	e8 00 00 00 00	 call	 @__security_check_cookie@4
  001a7	b8 00 00 00 00	 mov	 eax, OFFSET __ehfuncinfo$?LoadExcel@CChartExcelDataImportAddInImp@@QAEHXZ
  001ac	e9 00 00 00 00	 jmp	 ___CxxFrameHandler3
text$x	ENDS
?LoadExcel@CChartExcelDataImportAddInImp@@QAEHXZ ENDP	; CChartExcelDataImportAddInImp::LoadExcel
; Function compile flags: /Ogtp
; File D:\git\src\IBK\IBK_DRFN\ProjSrc\SrcChartEx\ChartAddIn\ChartDataListViewerAddIn\ChartDataListViewerAddIn\ChartExcelDataImportAddInImp.h
;	COMDAT ?GetRegisteredEventMap@CChartExcelDataImportAddInImp@@MBEPBW4EAddInEventType@IChartAddIn134221@@XZ
_TEXT	SEGMENT
?GetRegisteredEventMap@CChartExcelDataImportAddInImp@@MBEPBW4EAddInEventType@IChartAddIn134221@@XZ PROC ; CChartExcelDataImportAddInImp::GetRegisteredEventMap, COMDAT
; _this$ = ecx

; 21   : 	DECLARE_ADDIN_EVENT_MAP()

  00000	b8 00 00 00 00	 mov	 eax, OFFSET ?m_eRegisteredEventMap@CChartExcelDataImportAddInImp@@1QBW4EAddInEventType@IChartAddIn134221@@B ; CChartExcelDataImportAddInImp::m_eRegisteredEventMap
  00005	c3		 ret	 0
?GetRegisteredEventMap@CChartExcelDataImportAddInImp@@MBEPBW4EAddInEventType@IChartAddIn134221@@XZ ENDP ; CChartExcelDataImportAddInImp::GetRegisteredEventMap
_TEXT	ENDS
; Function compile flags: /Ogtp
; File D:\git\src\IBK\IBK_DRFN\ProjSrc\SrcChartEx\ChartAddIn\ChartDataListViewerAddIn\ChartDataListViewerAddIn\ChartExcelDataImportAddInImp.cpp
;	COMDAT ??1CChartExcelDataImportAddInImp@@UAE@XZ
_TEXT	SEGMENT
??1CChartExcelDataImportAddInImp@@UAE@XZ PROC		; CChartExcelDataImportAddInImp::~CChartExcelDataImportAddInImp, COMDAT
; _this$ = ecx

; 34   : {

  00000	c7 01 00 00 00
	00		 mov	 DWORD PTR [ecx], OFFSET ??_7CChartExcelDataImportAddInImp@@6BCIWUnknown@@@
  00006	c7 41 08 00 00
	00 00		 mov	 DWORD PTR [ecx+8], OFFSET ??_7CChartExcelDataImportAddInImp@@6BIChartAddIn134221@@@

; 35   : 
; 36   : }

  0000d	e9 00 00 00 00	 jmp	 ??1CChartAddInBase134221@@MAE@XZ ; CChartAddInBase134221::~CChartAddInBase134221
??1CChartExcelDataImportAddInImp@@UAE@XZ ENDP		; CChartExcelDataImportAddInImp::~CChartExcelDataImportAddInImp
_TEXT	ENDS
; Function compile flags: /Ogtp
; File D:\git\src\IBK\IBK_DRFN\ProjSrc\SrcChartEx\ChartAddIn\ChartDataListViewerAddIn\ChartDataListViewerAddIn\ChartExcelDataImportAddInImp.cpp
; File C:\Program Files (x86)\Microsoft Visual Studio\2019\Community\VC\Tools\MSVC\14.29.30133\atlmfc\include\afxwin2.inl
; File D:\git\src\IBK\IBK_DRFN\ProjSrc\SrcChartEx\ChartAddIn\ChartDataListViewerAddIn\ChartDataListViewerAddIn\ChartExcelDataImportAddInImp.cpp
; File C:\Program Files (x86)\Microsoft Visual Studio\2019\Community\VC\Tools\MSVC\14.29.30133\atlmfc\include\afxwin2.inl
; File D:\git\src\IBK\IBK_DRFN\ProjSrc\SrcChartEx\ChartAddIn\ChartDataListViewerAddIn\ChartDataListViewerAddIn\ChartExcelDataImportAddInImp.cpp
;	COMDAT ??0CChartExcelDataImportAddInImp@@QAE@PAUIChartOCX134221@@PAUIAddInDllBase@@@Z
_TEXT	SEGMENT
_this$ = -4						; size = 4
_p_pIChartOCX$ = 8					; size = 4
_p_pIAddInDllBase$ = 12					; size = 4
??0CChartExcelDataImportAddInImp@@QAE@PAUIChartOCX134221@@PAUIAddInDllBase@@@Z PROC ; CChartExcelDataImportAddInImp::CChartExcelDataImportAddInImp, COMDAT
; _this$ = ecx

; 28   : {

  00000	55		 push	 ebp
  00001	8b ec		 mov	 ebp, esp
  00003	51		 push	 ecx
  00004	56		 push	 esi
  00005	ff 75 0c	 push	 DWORD PTR _p_pIAddInDllBase$[ebp]
  00008	8b f1		 mov	 esi, ecx
  0000a	ff 75 08	 push	 DWORD PTR _p_pIChartOCX$[ebp]
  0000d	89 75 fc	 mov	 DWORD PTR _this$[ebp], esi
  00010	e8 00 00 00 00	 call	 ??0CChartAddInBase134221@@IAE@PAUIChartOCX134221@@PAUIAddInDllBase@@@Z ; CChartAddInBase134221::CChartAddInBase134221

; 30   : 	m_hOcxWnd = m_pChartCWnd->GetSafeHwnd();

  00015	8b 46 10	 mov	 eax, DWORD PTR [esi+16]
  00018	c7 06 00 00 00
	00		 mov	 DWORD PTR [esi], OFFSET ??_7CChartExcelDataImportAddInImp@@6BCIWUnknown@@@
  0001e	c7 46 08 00 00
	00 00		 mov	 DWORD PTR [esi+8], OFFSET ??_7CChartExcelDataImportAddInImp@@6BIChartAddIn134221@@@
; File C:\Program Files (x86)\Microsoft Visual Studio\2019\Community\VC\Tools\MSVC\14.29.30133\atlmfc\include\afxwin2.inl

; 25   : 	{ return this == NULL ? NULL : m_hWnd; }

  00025	85 c0		 test	 eax, eax
  00027	75 0c		 jne	 SHORT $LN6@CChartExce
; File D:\git\src\IBK\IBK_DRFN\ProjSrc\SrcChartEx\ChartAddIn\ChartDataListViewerAddIn\ChartDataListViewerAddIn\ChartExcelDataImportAddInImp.cpp

; 31   : }

  00029	89 46 40	 mov	 DWORD PTR [esi+64], eax
  0002c	8b c6		 mov	 eax, esi
  0002e	5e		 pop	 esi
  0002f	8b e5		 mov	 esp, ebp
  00031	5d		 pop	 ebp
  00032	c2 08 00	 ret	 8
$LN6@CChartExce:
; File C:\Program Files (x86)\Microsoft Visual Studio\2019\Community\VC\Tools\MSVC\14.29.30133\atlmfc\include\afxwin2.inl

; 25   : 	{ return this == NULL ? NULL : m_hWnd; }

  00035	8b 40 20	 mov	 eax, DWORD PTR [eax+32]
; File D:\git\src\IBK\IBK_DRFN\ProjSrc\SrcChartEx\ChartAddIn\ChartDataListViewerAddIn\ChartDataListViewerAddIn\ChartExcelDataImportAddInImp.cpp

; 30   : 	m_hOcxWnd = m_pChartCWnd->GetSafeHwnd();

  00038	89 46 40	 mov	 DWORD PTR [esi+64], eax

; 31   : }

  0003b	8b c6		 mov	 eax, esi
  0003d	5e		 pop	 esi
  0003e	8b e5		 mov	 esp, ebp
  00040	5d		 pop	 ebp
  00041	c2 08 00	 ret	 8
??0CChartExcelDataImportAddInImp@@QAE@PAUIChartOCX134221@@PAUIAddInDllBase@@@Z ENDP ; CChartExcelDataImportAddInImp::CChartExcelDataImportAddInImp
_TEXT	ENDS
; Function compile flags: /Ogtp
; File D:\git\src\IBK\IBK_DRFN\ProjSrc\SrcChartEx\ChartAddIn\ChartDataListViewerAddIn\Include_AddIn_134221\I134221\_IString.h
;	COMDAT ??1ILPCSTR134221@@QAE@XZ
_TEXT	SEGMENT
__$EHRec$ = -12						; size = 12
??1ILPCSTR134221@@QAE@XZ PROC				; ILPCSTR134221::~ILPCSTR134221, COMDAT
; _this$ = ecx

; 44   : 	{

  00000	55		 push	 ebp
  00001	8b ec		 mov	 ebp, esp
  00003	6a ff		 push	 -1
  00005	68 00 00 00 00	 push	 __ehhandler$??1ILPCSTR134221@@QAE@XZ
  0000a	64 a1 00 00 00
	00		 mov	 eax, DWORD PTR fs:0
  00010	50		 push	 eax
  00011	56		 push	 esi
  00012	a1 00 00 00 00	 mov	 eax, DWORD PTR ___security_cookie
  00017	33 c5		 xor	 eax, ebp
  00019	50		 push	 eax
  0001a	8d 45 f4	 lea	 eax, DWORD PTR __$EHRec$[ebp]
  0001d	64 a3 00 00 00
	00		 mov	 DWORD PTR fs:0, eax
  00023	8b f1		 mov	 esi, ecx

; 45   : 		if( m_pIStrData)

  00025	8b 4e 04	 mov	 ecx, DWORD PTR [esi+4]
  00028	85 c9		 test	 ecx, ecx
  0002a	74 13		 je	 SHORT $LN2@ILPCSTR134

; 46   : 		{
; 47   : 			m_pIStrData->Release();

  0002c	8b 01		 mov	 eax, DWORD PTR [ecx]
  0002e	51		 push	 ecx
  0002f	ff 50 08	 call	 DWORD PTR [eax+8]

; 48   : 			m_pIStrData = NULL;

  00032	c7 46 04 00 00
	00 00		 mov	 DWORD PTR [esi+4], 0

; 49   : 			m_szData = NULL;

  00039	c7 06 00 00 00
	00		 mov	 DWORD PTR [esi], 0
$LN2@ILPCSTR134:

; 50   : 		}
; 51   : 	}

  0003f	8b 4d f4	 mov	 ecx, DWORD PTR __$EHRec$[ebp]
  00042	64 89 0d 00 00
	00 00		 mov	 DWORD PTR fs:0, ecx
  00049	59		 pop	 ecx
  0004a	5e		 pop	 esi
  0004b	8b e5		 mov	 esp, ebp
  0004d	5d		 pop	 ebp
  0004e	c3		 ret	 0
  0004f	cc		 int	 3
  00050	cc		 int	 3
  00051	cc		 int	 3
  00052	cc		 int	 3
  00053	cc		 int	 3
_TEXT	ENDS
;	COMDAT text$x
text$x	SEGMENT
__ehhandler$??1ILPCSTR134221@@QAE@XZ:
  00000	90		 npad	 1
  00001	90		 npad	 1
  00002	8b 54 24 08	 mov	 edx, DWORD PTR [esp+8]
  00006	8d 42 0c	 lea	 eax, DWORD PTR [edx+12]
  00009	8b 4a f8	 mov	 ecx, DWORD PTR [edx-8]
  0000c	33 c8		 xor	 ecx, eax
  0000e	e8 00 00 00 00	 call	 @__security_check_cookie@4
  00013	b8 00 00 00 00	 mov	 eax, OFFSET __ehfuncinfo$??1ILPCSTR134221@@QAE@XZ
  00018	e9 00 00 00 00	 jmp	 ___CxxFrameHandler3
text$x	ENDS
??1ILPCSTR134221@@QAE@XZ ENDP				; ILPCSTR134221::~ILPCSTR134221
; Function compile flags: /Ogtp
; File D:\git\src\IBK\IBK_DRFN\ProjSrc\SrcChartEx\ChartAddIn\ChartDataListViewerAddIn\Include_AddIn_134221\I134221\_ChartAddInBase.h
;	COMDAT ?OnRButtonDblClk@CChartAddInBase134221@@MAEHPAUHDC__@@IAAUtagPOINT@@K@Z
_TEXT	SEGMENT
_p_hDC$ = 8						; size = 4
_nFlags$ = 12						; size = 4
_point$ = 16						; size = 4
_p_dwMouseActionID$ = 20				; size = 4
?OnRButtonDblClk@CChartAddInBase134221@@MAEHPAUHDC__@@IAAUtagPOINT@@K@Z PROC ; CChartAddInBase134221::OnRButtonDblClk, COMDAT
; _this$ = ecx

; 215  : 	virtual BOOL	OnRButtonDblClk(				HDC p_hDC, UINT nFlags, POINT &point, const DWORD p_dwMouseActionID)									{	return FALSE;	}

  00000	33 c0		 xor	 eax, eax
  00002	c2 10 00	 ret	 16			; 00000010H
?OnRButtonDblClk@CChartAddInBase134221@@MAEHPAUHDC__@@IAAUtagPOINT@@K@Z ENDP ; CChartAddInBase134221::OnRButtonDblClk
_TEXT	ENDS
; Function compile flags: /Ogtp
; File D:\git\src\IBK\IBK_DRFN\ProjSrc\SrcChartEx\ChartAddIn\ChartDataListViewerAddIn\Include_AddIn_134221\I134221\_ChartAddInBase.h
;	COMDAT ?OnRButtonUp@CChartAddInBase134221@@MAEHPAUHDC__@@IAAUtagPOINT@@K@Z
_TEXT	SEGMENT
_p_hDC$ = 8						; size = 4
_nFlags$ = 12						; size = 4
_point$ = 16						; size = 4
_p_dwMouseActionID$ = 20				; size = 4
?OnRButtonUp@CChartAddInBase134221@@MAEHPAUHDC__@@IAAUtagPOINT@@K@Z PROC ; CChartAddInBase134221::OnRButtonUp, COMDAT
; _this$ = ecx

; 214  : 	virtual BOOL	OnRButtonUp(					HDC p_hDC, UINT nFlags, POINT &point, const DWORD p_dwMouseActionID)									{	return FALSE;	}

  00000	33 c0		 xor	 eax, eax
  00002	c2 10 00	 ret	 16			; 00000010H
?OnRButtonUp@CChartAddInBase134221@@MAEHPAUHDC__@@IAAUtagPOINT@@K@Z ENDP ; CChartAddInBase134221::OnRButtonUp
_TEXT	ENDS
; Function compile flags: /Ogtp
; File D:\git\src\IBK\IBK_DRFN\ProjSrc\SrcChartEx\ChartAddIn\ChartDataListViewerAddIn\Include_AddIn_134221\I134221\_ChartAddInBase.h
;	COMDAT ?OnRButtonDown@CChartAddInBase134221@@MAEHPAUHDC__@@IAAUtagPOINT@@K@Z
_TEXT	SEGMENT
_p_hDC$ = 8						; size = 4
_nFlags$ = 12						; size = 4
_point$ = 16						; size = 4
_p_dwMouseActionID$ = 20				; size = 4
?OnRButtonDown@CChartAddInBase134221@@MAEHPAUHDC__@@IAAUtagPOINT@@K@Z PROC ; CChartAddInBase134221::OnRButtonDown, COMDAT
; _this$ = ecx

; 213  : 	virtual BOOL	OnRButtonDown(					HDC p_hDC, UINT nFlags, POINT &point, const DWORD p_dwMouseActionID)									{	return FALSE;	}

  00000	33 c0		 xor	 eax, eax
  00002	c2 10 00	 ret	 16			; 00000010H
?OnRButtonDown@CChartAddInBase134221@@MAEHPAUHDC__@@IAAUtagPOINT@@K@Z ENDP ; CChartAddInBase134221::OnRButtonDown
_TEXT	ENDS
; Function compile flags: /Ogtp
; File D:\git\src\IBK\IBK_DRFN\ProjSrc\SrcChartEx\ChartAddIn\ChartDataListViewerAddIn\Include_AddIn_134221\I134221\_ChartAddInBase.h
;	COMDAT ?OnLButtonDblClk@CChartAddInBase134221@@MAEHPAUHDC__@@IAAUtagPOINT@@K@Z
_TEXT	SEGMENT
_p_hDC$ = 8						; size = 4
_nFlags$ = 12						; size = 4
_point$ = 16						; size = 4
_p_dwMouseActionID$ = 20				; size = 4
?OnLButtonDblClk@CChartAddInBase134221@@MAEHPAUHDC__@@IAAUtagPOINT@@K@Z PROC ; CChartAddInBase134221::OnLButtonDblClk, COMDAT
; _this$ = ecx

; 212  : 	virtual BOOL	OnLButtonDblClk(				HDC p_hDC, UINT nFlags, POINT &point, const DWORD p_dwMouseActionID)									{	return FALSE;	}

  00000	33 c0		 xor	 eax, eax
  00002	c2 10 00	 ret	 16			; 00000010H
?OnLButtonDblClk@CChartAddInBase134221@@MAEHPAUHDC__@@IAAUtagPOINT@@K@Z ENDP ; CChartAddInBase134221::OnLButtonDblClk
_TEXT	ENDS
; Function compile flags: /Ogtp
; File D:\git\src\IBK\IBK_DRFN\ProjSrc\SrcChartEx\ChartAddIn\ChartDataListViewerAddIn\Include_AddIn_134221\I134221\_ChartAddInBase.h
;	COMDAT ?OnLButtonUp@CChartAddInBase134221@@MAEHPAUHDC__@@IAAUtagPOINT@@K@Z
_TEXT	SEGMENT
_p_hDC$ = 8						; size = 4
_nFlags$ = 12						; size = 4
_point$ = 16						; size = 4
_p_dwMouseActionID$ = 20				; size = 4
?OnLButtonUp@CChartAddInBase134221@@MAEHPAUHDC__@@IAAUtagPOINT@@K@Z PROC ; CChartAddInBase134221::OnLButtonUp, COMDAT
; _this$ = ecx

; 211  : 	virtual BOOL	OnLButtonUp(					HDC p_hDC, UINT nFlags, POINT &point, const DWORD p_dwMouseActionID)									{	return FALSE;	}

  00000	33 c0		 xor	 eax, eax
  00002	c2 10 00	 ret	 16			; 00000010H
?OnLButtonUp@CChartAddInBase134221@@MAEHPAUHDC__@@IAAUtagPOINT@@K@Z ENDP ; CChartAddInBase134221::OnLButtonUp
_TEXT	ENDS
; Function compile flags: /Ogtp
; File D:\git\src\IBK\IBK_DRFN\ProjSrc\SrcChartEx\ChartAddIn\ChartDataListViewerAddIn\Include_AddIn_134221\I134221\_ChartAddInBase.h
;	COMDAT ?OnLButtonDown@CChartAddInBase134221@@MAEHPAUHDC__@@IAAUtagPOINT@@K@Z
_TEXT	SEGMENT
_p_hDC$ = 8						; size = 4
_nFlags$ = 12						; size = 4
_point$ = 16						; size = 4
_p_dwMouseActionID$ = 20				; size = 4
?OnLButtonDown@CChartAddInBase134221@@MAEHPAUHDC__@@IAAUtagPOINT@@K@Z PROC ; CChartAddInBase134221::OnLButtonDown, COMDAT
; _this$ = ecx

; 210  : 	virtual BOOL	OnLButtonDown(					HDC p_hDC, UINT nFlags, POINT &point, const DWORD p_dwMouseActionID)									{	return FALSE;	}

  00000	33 c0		 xor	 eax, eax
  00002	c2 10 00	 ret	 16			; 00000010H
?OnLButtonDown@CChartAddInBase134221@@MAEHPAUHDC__@@IAAUtagPOINT@@K@Z ENDP ; CChartAddInBase134221::OnLButtonDown
_TEXT	ENDS
; Function compile flags: /Ogtp
; File D:\git\src\IBK\IBK_DRFN\ProjSrc\SrcChartEx\ChartAddIn\ChartDataListViewerAddIn\Include_AddIn_134221\I134221\_ChartAddInBase.h
;	COMDAT ?OnMouseMove@CChartAddInBase134221@@MAEHPAUHDC__@@IAAUtagPOINT@@KQAUHBITMAP__@@@Z
_TEXT	SEGMENT
_p_hDC$ = 8						; size = 4
_nFlags$ = 12						; size = 4
_point$ = 16						; size = 4
_p_dwMouseActionID$ = 20				; size = 4
_p_hbmpMainOSB$ = 24					; size = 4
?OnMouseMove@CChartAddInBase134221@@MAEHPAUHDC__@@IAAUtagPOINT@@KQAUHBITMAP__@@@Z PROC ; CChartAddInBase134221::OnMouseMove, COMDAT
; _this$ = ecx

; 209  : 	virtual BOOL	OnMouseMove(					HDC p_hDC, UINT nFlags, POINT &point, const DWORD p_dwMouseActionID, const HBITMAP p_hbmpMainOSB)		{	return FALSE;	}	// (2006/11/5 - Seung-Won, Bae) Support MainOSB

  00000	33 c0		 xor	 eax, eax
  00002	c2 14 00	 ret	 20			; 00000014H
?OnMouseMove@CChartAddInBase134221@@MAEHPAUHDC__@@IAAUtagPOINT@@KQAUHBITMAP__@@@Z ENDP ; CChartAddInBase134221::OnMouseMove
_TEXT	ENDS
; Function compile flags: /Ogtp
; File D:\git\src\IBK\IBK_DRFN\ProjSrc\SrcChartEx\ChartAddIn\ChartDataListViewerAddIn\Include_AddIn_134221\I134221\_ChartAddInBase.h
;	COMDAT ?OnMouseWheel@CChartAddInBase134221@@MAEHIFUtagPOINT@@K@Z
_TEXT	SEGMENT
_nFlags$ = 8						; size = 4
_zDelta$ = 12						; size = 2
_pt$ = 16						; size = 8
_p_dwMouseActionID$ = 24				; size = 4
?OnMouseWheel@CChartAddInBase134221@@MAEHIFUtagPOINT@@K@Z PROC ; CChartAddInBase134221::OnMouseWheel, COMDAT
; _this$ = ecx

; 208  : 	virtual BOOL	OnMouseWheel(					UINT nFlags, short zDelta, POINT pt, const DWORD p_dwMouseActionID)										{	return FALSE;	}

  00000	33 c0		 xor	 eax, eax
  00002	c2 14 00	 ret	 20			; 00000014H
?OnMouseWheel@CChartAddInBase134221@@MAEHIFUtagPOINT@@K@Z ENDP ; CChartAddInBase134221::OnMouseWheel
_TEXT	ENDS
; Function compile flags: /Ogtp
; File D:\git\src\IBK\IBK_DRFN\ProjSrc\SrcChartEx\ChartAddIn\ChartDataListViewerAddIn\Include_AddIn_134221\I134221\_ChartAddInBase.h
;	COMDAT ?OnKeyUp@CChartAddInBase134221@@MAEHIII@Z
_TEXT	SEGMENT
_nChar$ = 8						; size = 4
_nRepCnt$ = 12						; size = 4
_nFlags$ = 16						; size = 4
?OnKeyUp@CChartAddInBase134221@@MAEHIII@Z PROC		; CChartAddInBase134221::OnKeyUp, COMDAT
; _this$ = ecx

; 207  : 	virtual BOOL	OnKeyUp(						UINT nChar, UINT nRepCnt, UINT nFlags)																	{	return FALSE;	}

  00000	33 c0		 xor	 eax, eax
  00002	c2 0c 00	 ret	 12			; 0000000cH
?OnKeyUp@CChartAddInBase134221@@MAEHIII@Z ENDP		; CChartAddInBase134221::OnKeyUp
_TEXT	ENDS
; Function compile flags: /Ogtp
; File D:\git\src\IBK\IBK_DRFN\ProjSrc\SrcChartEx\ChartAddIn\ChartDataListViewerAddIn\Include_AddIn_134221\I134221\_ChartAddInBase.h
;	COMDAT ?OnKeyDown@CChartAddInBase134221@@MAEHIII@Z
_TEXT	SEGMENT
_nChar$ = 8						; size = 4
_nRepCnt$ = 12						; size = 4
_nFlags$ = 16						; size = 4
?OnKeyDown@CChartAddInBase134221@@MAEHIII@Z PROC	; CChartAddInBase134221::OnKeyDown, COMDAT
; _this$ = ecx

; 206  : 	virtual BOOL	OnKeyDown(						UINT nChar, UINT nRepCnt, UINT nFlags)																	{	return FALSE;	}

  00000	33 c0		 xor	 eax, eax
  00002	c2 0c 00	 ret	 12			; 0000000cH
?OnKeyDown@CChartAddInBase134221@@MAEHIII@Z ENDP	; CChartAddInBase134221::OnKeyDown
_TEXT	ENDS
; Function compile flags: /Ogtp
; File D:\git\src\IBK\IBK_DRFN\ProjSrc\SrcChartEx\ChartAddIn\ChartDataListViewerAddIn\Include_AddIn_134221\I134221\_ChartAddInBase.h
;	COMDAT ?OnAddInToolCommand@CChartAddInBase134221@@MAEHAAJW4EAICommandType@@JJ@Z
_TEXT	SEGMENT
_p_lResult$ = 8						; size = 4
_p_eCommandID$ = 12					; size = 4
_p_lParam1$ = 16					; size = 4
_p_lParam2$ = 20					; size = 4
?OnAddInToolCommand@CChartAddInBase134221@@MAEHAAJW4EAICommandType@@JJ@Z PROC ; CChartAddInBase134221::OnAddInToolCommand, COMDAT
; _this$ = ecx

; 204  : 	virtual BOOL	OnAddInToolCommand(	long &p_lResult, const EAICommandType p_eCommandID, const long p_lParam1, const long p_lParam2)			{	return FALSE;	}

  00000	33 c0		 xor	 eax, eax
  00002	c2 10 00	 ret	 16			; 00000010H
?OnAddInToolCommand@CChartAddInBase134221@@MAEHAAJW4EAICommandType@@JJ@Z ENDP ; CChartAddInBase134221::OnAddInToolCommand
_TEXT	ENDS
; Function compile flags: /Ogtp
; File D:\git\src\IBK\IBK_DRFN\ProjSrc\SrcChartEx\ChartAddIn\ChartDataListViewerAddIn\Include_AddIn_134221\I134221\_ChartAddInBase.h
;	COMDAT ?OnAddInToolCommand@CChartAddInBase134221@@MAEHAAJW4EAICommandType@@J@Z
_TEXT	SEGMENT
_p_lResult$ = 8						; size = 4
_p_eCommandID$ = 12					; size = 4
_p_lParam$ = 16						; size = 4
?OnAddInToolCommand@CChartAddInBase134221@@MAEHAAJW4EAICommandType@@J@Z PROC ; CChartAddInBase134221::OnAddInToolCommand, COMDAT
; _this$ = ecx

; 203  : 	virtual BOOL	OnAddInToolCommand(	long &p_lResult, const EAICommandType p_eCommandID, const long p_lParam)								{	return FALSE;	}

  00000	33 c0		 xor	 eax, eax
  00002	c2 0c 00	 ret	 12			; 0000000cH
?OnAddInToolCommand@CChartAddInBase134221@@MAEHAAJW4EAICommandType@@J@Z ENDP ; CChartAddInBase134221::OnAddInToolCommand
_TEXT	ENDS
; Function compile flags: /Ogtp
; File D:\git\src\IBK\IBK_DRFN\ProjSrc\SrcChartEx\ChartAddIn\ChartDataListViewerAddIn\Include_AddIn_134221\I134221\_ChartAddInBase.h
;	COMDAT ?OnAddInToolCommand@CChartAddInBase134221@@MAEHAAJW4EAICommandType@@PBDPAVCObject@@@Z
_TEXT	SEGMENT
_p_lResult$ = 8						; size = 4
_p_eCommandID$ = 12					; size = 4
_p_szParam$ = 16					; size = 4
_p_pParam$ = 20						; size = 4
?OnAddInToolCommand@CChartAddInBase134221@@MAEHAAJW4EAICommandType@@PBDPAVCObject@@@Z PROC ; CChartAddInBase134221::OnAddInToolCommand, COMDAT
; _this$ = ecx

; 202  : 	virtual BOOL	OnAddInToolCommand(	long &p_lResult, const EAICommandType p_eCommandID, const char *p_szParam, CObject *p_pParam)			{	return FALSE;	}

  00000	33 c0		 xor	 eax, eax
  00002	c2 10 00	 ret	 16			; 00000010H
?OnAddInToolCommand@CChartAddInBase134221@@MAEHAAJW4EAICommandType@@PBDPAVCObject@@@Z ENDP ; CChartAddInBase134221::OnAddInToolCommand
_TEXT	ENDS
; Function compile flags: /Ogtp
; File D:\git\src\IBK\IBK_DRFN\ProjSrc\SrcChartEx\ChartAddIn\ChartDataListViewerAddIn\Include_AddIn_134221\I134221\_ChartAddInBase.h
;	COMDAT ?OnAddInToolCommand@CChartAddInBase134221@@MAEHAAJW4EAICommandType@@PBD@Z
_TEXT	SEGMENT
_p_lResult$ = 8						; size = 4
_p_eCommandID$ = 12					; size = 4
_p_szParam$ = 16					; size = 4
?OnAddInToolCommand@CChartAddInBase134221@@MAEHAAJW4EAICommandType@@PBD@Z PROC ; CChartAddInBase134221::OnAddInToolCommand, COMDAT
; _this$ = ecx

; 201  : 	virtual BOOL	OnAddInToolCommand(	long &p_lResult, const EAICommandType p_eCommandID, const char *p_szParam)								{	return FALSE;	}

  00000	33 c0		 xor	 eax, eax
  00002	c2 0c 00	 ret	 12			; 0000000cH
?OnAddInToolCommand@CChartAddInBase134221@@MAEHAAJW4EAICommandType@@PBD@Z ENDP ; CChartAddInBase134221::OnAddInToolCommand
_TEXT	ENDS
; Function compile flags: /Ogtp
; File D:\git\src\IBK\IBK_DRFN\ProjSrc\SrcChartEx\ChartAddIn\ChartDataListViewerAddIn\Include_AddIn_134221\I134221\_ChartAddInBase.h
;	COMDAT ?OnAddInToolCommand@CChartAddInBase134221@@MAEHAAJW4EAICommandType@@PAUIGraphInfo134221@@@Z
_TEXT	SEGMENT
_p_lResult$ = 8						; size = 4
_p_eCommandID$ = 12					; size = 4
_p_pIGraphInfo$ = 16					; size = 4
?OnAddInToolCommand@CChartAddInBase134221@@MAEHAAJW4EAICommandType@@PAUIGraphInfo134221@@@Z PROC ; CChartAddInBase134221::OnAddInToolCommand, COMDAT
; _this$ = ecx

; 200  : 	virtual BOOL	OnAddInToolCommand(	long &p_lResult, const EAICommandType p_eCommandID, IGraphInfo *p_pIGraphInfo)							{	return FALSE;	}

  00000	33 c0		 xor	 eax, eax
  00002	c2 0c 00	 ret	 12			; 0000000cH
?OnAddInToolCommand@CChartAddInBase134221@@MAEHAAJW4EAICommandType@@PAUIGraphInfo134221@@@Z ENDP ; CChartAddInBase134221::OnAddInToolCommand
_TEXT	ENDS
; Function compile flags: /Ogtp
; File D:\git\src\IBK\IBK_DRFN\ProjSrc\SrcChartEx\ChartAddIn\ChartDataListViewerAddIn\Include_AddIn_134221\I134221\_ChartAddInBase.h
;	COMDAT ?OnAddInToolCommand@CChartAddInBase134221@@MAEHAAJW4EAICommandType@@@Z
_TEXT	SEGMENT
_p_lResult$ = 8						; size = 4
_p_eCommandID$ = 12					; size = 4
?OnAddInToolCommand@CChartAddInBase134221@@MAEHAAJW4EAICommandType@@@Z PROC ; CChartAddInBase134221::OnAddInToolCommand, COMDAT
; _this$ = ecx

; 199  : 	virtual BOOL	OnAddInToolCommand(	long &p_lResult, const EAICommandType p_eCommandID)														{	return FALSE;	}

  00000	33 c0		 xor	 eax, eax
  00002	c2 08 00	 ret	 8
?OnAddInToolCommand@CChartAddInBase134221@@MAEHAAJW4EAICommandType@@@Z ENDP ; CChartAddInBase134221::OnAddInToolCommand
_TEXT	ENDS
; Function compile flags: /Ogtp
; File D:\git\src\IBK\IBK_DRFN\ProjSrc\SrcChartEx\ChartAddIn\ChartDataListViewerAddIn\Include_AddIn_134221\I134221\_ChartAddInBase.h
;	COMDAT ?OnAddInToolCommand@CChartAddInBase134221@@MAEHW4EAICommandType@@JJJJJJJJJ@Z
_TEXT	SEGMENT
_p_eCommandID$ = 8					; size = 4
_p_lParam1$ = 12					; size = 4
_p_lParam2$ = 16					; size = 4
_p_lParam3$ = 20					; size = 4
_p_lParam4$ = 24					; size = 4
_p_lParam5$ = 28					; size = 4
_p_lParam6$ = 32					; size = 4
_p_lParam7$ = 36					; size = 4
_p_lParam8$ = 40					; size = 4
_p_lParam9$ = 44					; size = 4
?OnAddInToolCommand@CChartAddInBase134221@@MAEHW4EAICommandType@@JJJJJJJJJ@Z PROC ; CChartAddInBase134221::OnAddInToolCommand, COMDAT
; _this$ = ecx

; 198  : 	virtual BOOL	OnAddInToolCommand(	const EAICommandType p_eCommandID, const long p_lParam1, const long p_lParam2, const long p_lParam3, const long p_lParam4, const long p_lParam5, const long p_lParam6, const long p_lParam7, const long p_lParam8, const long p_lParam9)	{	return FALSE;	}

  00000	33 c0		 xor	 eax, eax
  00002	c2 28 00	 ret	 40			; 00000028H
?OnAddInToolCommand@CChartAddInBase134221@@MAEHW4EAICommandType@@JJJJJJJJJ@Z ENDP ; CChartAddInBase134221::OnAddInToolCommand
_TEXT	ENDS
; Function compile flags: /Ogtp
; File D:\git\src\IBK\IBK_DRFN\ProjSrc\SrcChartEx\ChartAddIn\ChartDataListViewerAddIn\Include_AddIn_134221\I134221\_ChartAddInBase.h
;	COMDAT ?OnAddInToolCommand@CChartAddInBase134221@@MAEHW4EAICommandType@@JJ@Z
_TEXT	SEGMENT
_p_eCommandID$ = 8					; size = 4
_p_lParam1$ = 12					; size = 4
_p_lParam2$ = 16					; size = 4
?OnAddInToolCommand@CChartAddInBase134221@@MAEHW4EAICommandType@@JJ@Z PROC ; CChartAddInBase134221::OnAddInToolCommand, COMDAT
; _this$ = ecx

; 197  : 	virtual BOOL	OnAddInToolCommand(	const EAICommandType p_eCommandID, const long p_lParam1, const long p_lParam2)							{	return FALSE;	}

  00000	33 c0		 xor	 eax, eax
  00002	c2 0c 00	 ret	 12			; 0000000cH
?OnAddInToolCommand@CChartAddInBase134221@@MAEHW4EAICommandType@@JJ@Z ENDP ; CChartAddInBase134221::OnAddInToolCommand
_TEXT	ENDS
; Function compile flags: /Ogtp
; File D:\git\src\IBK\IBK_DRFN\ProjSrc\SrcChartEx\ChartAddIn\ChartDataListViewerAddIn\Include_AddIn_134221\I134221\_ChartAddInBase.h
;	COMDAT ?OnAddInToolCommand@CChartAddInBase134221@@MAEHW4EAICommandType@@JPBD11@Z
_TEXT	SEGMENT
_p_eCommandID$ = 8					; size = 4
_p_lParam$ = 12						; size = 4
_p_szParam1$ = 16					; size = 4
_p_szParam2$ = 20					; size = 4
_p_szParam3$ = 24					; size = 4
?OnAddInToolCommand@CChartAddInBase134221@@MAEHW4EAICommandType@@JPBD11@Z PROC ; CChartAddInBase134221::OnAddInToolCommand, COMDAT
; _this$ = ecx

; 196  : 	virtual BOOL	OnAddInToolCommand( const EAICommandType p_eCommandID, const long p_lParam, const char *p_szParam1, const char *p_szParam2, const char *p_szParam3)	{	return FALSE;	}

  00000	33 c0		 xor	 eax, eax
  00002	c2 14 00	 ret	 20			; 00000014H
?OnAddInToolCommand@CChartAddInBase134221@@MAEHW4EAICommandType@@JPBD11@Z ENDP ; CChartAddInBase134221::OnAddInToolCommand
_TEXT	ENDS
; Function compile flags: /Ogtp
; File D:\git\src\IBK\IBK_DRFN\ProjSrc\SrcChartEx\ChartAddIn\ChartDataListViewerAddIn\Include_AddIn_134221\I134221\_ChartAddInBase.h
;	COMDAT ?OnAddInToolCommand@CChartAddInBase134221@@MAEHW4EAICommandType@@JPBD@Z
_TEXT	SEGMENT
_p_eCommandID$ = 8					; size = 4
_p_lParam$ = 12						; size = 4
_p_szParam$ = 16					; size = 4
?OnAddInToolCommand@CChartAddInBase134221@@MAEHW4EAICommandType@@JPBD@Z PROC ; CChartAddInBase134221::OnAddInToolCommand, COMDAT
; _this$ = ecx

; 195  : 	virtual BOOL	OnAddInToolCommand( const EAICommandType p_eCommandID, const long p_lParam, const char *p_szParam)							{	return FALSE;	}

  00000	33 c0		 xor	 eax, eax
  00002	c2 0c 00	 ret	 12			; 0000000cH
?OnAddInToolCommand@CChartAddInBase134221@@MAEHW4EAICommandType@@JPBD@Z ENDP ; CChartAddInBase134221::OnAddInToolCommand
_TEXT	ENDS
; Function compile flags: /Ogtp
; File D:\git\src\IBK\IBK_DRFN\ProjSrc\SrcChartEx\ChartAddIn\ChartDataListViewerAddIn\Include_AddIn_134221\I134221\_ChartAddInBase.h
;	COMDAT ?OnAddInToolCommand@CChartAddInBase134221@@MAEHW4EAICommandType@@J@Z
_TEXT	SEGMENT
_p_eCommandID$ = 8					; size = 4
_p_lParam$ = 12						; size = 4
?OnAddInToolCommand@CChartAddInBase134221@@MAEHW4EAICommandType@@J@Z PROC ; CChartAddInBase134221::OnAddInToolCommand, COMDAT
; _this$ = ecx

; 194  : 	virtual BOOL	OnAddInToolCommand(	const EAICommandType p_eCommandID, const long p_lParam)													{	return FALSE;	}

  00000	33 c0		 xor	 eax, eax
  00002	c2 08 00	 ret	 8
?OnAddInToolCommand@CChartAddInBase134221@@MAEHW4EAICommandType@@J@Z ENDP ; CChartAddInBase134221::OnAddInToolCommand
_TEXT	ENDS
; Function compile flags: /Ogtp
; File D:\git\src\IBK\IBK_DRFN\ProjSrc\SrcChartEx\ChartAddIn\ChartDataListViewerAddIn\Include_AddIn_134221\I134221\_ChartAddInBase.h
;	COMDAT ?OnAddInToolCommand@CChartAddInBase134221@@MAEHW4EAICommandType@@PBUIAddInDllBase@@@Z
_TEXT	SEGMENT
_p_eCommandID$ = 8					; size = 4
_p_pParam$ = 12						; size = 4
?OnAddInToolCommand@CChartAddInBase134221@@MAEHW4EAICommandType@@PBUIAddInDllBase@@@Z PROC ; CChartAddInBase134221::OnAddInToolCommand, COMDAT
; _this$ = ecx

; 193  : 	virtual BOOL	OnAddInToolCommand(	const EAICommandType p_eCommandID, const IAddInDllBase *p_pParam)										{	return FALSE;	}

  00000	33 c0		 xor	 eax, eax
  00002	c2 08 00	 ret	 8
?OnAddInToolCommand@CChartAddInBase134221@@MAEHW4EAICommandType@@PBUIAddInDllBase@@@Z ENDP ; CChartAddInBase134221::OnAddInToolCommand
_TEXT	ENDS
; Function compile flags: /Ogtp
; File D:\git\src\IBK\IBK_DRFN\ProjSrc\SrcChartEx\ChartAddIn\ChartDataListViewerAddIn\Include_AddIn_134221\I134221\_ChartAddInBase.h
;	COMDAT ?OnAddInToolCommand@CChartAddInBase134221@@MAEHW4EAICommandType@@PBDJ@Z
_TEXT	SEGMENT
_p_eCommandID$ = 8					; size = 4
_p_szParam$ = 12					; size = 4
_p_lParam$ = 16						; size = 4
?OnAddInToolCommand@CChartAddInBase134221@@MAEHW4EAICommandType@@PBDJ@Z PROC ; CChartAddInBase134221::OnAddInToolCommand, COMDAT
; _this$ = ecx

; 192  : 	virtual BOOL	OnAddInToolCommand( const EAICommandType p_eCommandID, const char *p_szParam, const long p_lParam)							{	return FALSE;	}

  00000	33 c0		 xor	 eax, eax
  00002	c2 0c 00	 ret	 12			; 0000000cH
?OnAddInToolCommand@CChartAddInBase134221@@MAEHW4EAICommandType@@PBDJ@Z ENDP ; CChartAddInBase134221::OnAddInToolCommand
_TEXT	ENDS
; Function compile flags: /Ogtp
; File D:\git\src\IBK\IBK_DRFN\ProjSrc\SrcChartEx\ChartAddIn\ChartDataListViewerAddIn\Include_AddIn_134221\I134221\_ChartAddInBase.h
;	COMDAT ?OnAddInToolCommand@CChartAddInBase134221@@MAEHW4EAICommandType@@PBD1@Z
_TEXT	SEGMENT
_p_eCommandID$ = 8					; size = 4
_p_szParam1$ = 12					; size = 4
_p_szParam2$ = 16					; size = 4
?OnAddInToolCommand@CChartAddInBase134221@@MAEHW4EAICommandType@@PBD1@Z PROC ; CChartAddInBase134221::OnAddInToolCommand, COMDAT
; _this$ = ecx

; 191  : 	virtual BOOL	OnAddInToolCommand(	const EAICommandType p_eCommandID, const char *p_szParam1, const char *p_szParam2)						{	return FALSE;	}

  00000	33 c0		 xor	 eax, eax
  00002	c2 0c 00	 ret	 12			; 0000000cH
?OnAddInToolCommand@CChartAddInBase134221@@MAEHW4EAICommandType@@PBD1@Z ENDP ; CChartAddInBase134221::OnAddInToolCommand
_TEXT	ENDS
; Function compile flags: /Ogtp
; File D:\git\src\IBK\IBK_DRFN\ProjSrc\SrcChartEx\ChartAddIn\ChartDataListViewerAddIn\Include_AddIn_134221\I134221\_ChartAddInBase.h
;	COMDAT ?OnAddInToolCommand@CChartAddInBase134221@@MAEHW4EAICommandType@@PBD@Z
_TEXT	SEGMENT
_p_eCommandID$ = 8					; size = 4
_p_szParam$ = 12					; size = 4
?OnAddInToolCommand@CChartAddInBase134221@@MAEHW4EAICommandType@@PBD@Z PROC ; CChartAddInBase134221::OnAddInToolCommand, COMDAT
; _this$ = ecx

; 190  : 	virtual BOOL	OnAddInToolCommand(	const EAICommandType p_eCommandID, const char *p_szParam)												{	return FALSE;	}

  00000	33 c0		 xor	 eax, eax
  00002	c2 08 00	 ret	 8
?OnAddInToolCommand@CChartAddInBase134221@@MAEHW4EAICommandType@@PBD@Z ENDP ; CChartAddInBase134221::OnAddInToolCommand
_TEXT	ENDS
; Function compile flags: /Ogtp
; File D:\git\src\IBK\IBK_DRFN\ProjSrc\SrcChartEx\ChartAddIn\ChartDataListViewerAddIn\Include_AddIn_134221\I134221\_ChartAddInBase.h
;	COMDAT ?OnAddInToolCommand@CChartAddInBase134221@@MAEHW4EAICommandType@@PAUHDC__@@IAAUtagPOINT@@K@Z
_TEXT	SEGMENT
_p_eCommandID$ = 8					; size = 4
_p_hDC$ = 12						; size = 4
_nFlags$ = 16						; size = 4
_point$ = 20						; size = 4
_p_dwMouseActionID$ = 24				; size = 4
?OnAddInToolCommand@CChartAddInBase134221@@MAEHW4EAICommandType@@PAUHDC__@@IAAUtagPOINT@@K@Z PROC ; CChartAddInBase134221::OnAddInToolCommand, COMDAT
; _this$ = ecx

; 189  : 	virtual BOOL	OnAddInToolCommand(	const EAICommandType p_eCommandID, HDC p_hDC, UINT nFlags, POINT &point, const DWORD p_dwMouseActionID)	{	return FALSE;	}

  00000	33 c0		 xor	 eax, eax
  00002	c2 14 00	 ret	 20			; 00000014H
?OnAddInToolCommand@CChartAddInBase134221@@MAEHW4EAICommandType@@PAUHDC__@@IAAUtagPOINT@@K@Z ENDP ; CChartAddInBase134221::OnAddInToolCommand
_TEXT	ENDS
; Function compile flags: /Ogtp
; File D:\git\src\IBK\IBK_DRFN\ProjSrc\SrcChartEx\ChartAddIn\ChartDataListViewerAddIn\Include_AddIn_134221\I134221\_ChartAddInBase.h
;	COMDAT ?OnAddInToolCommand@CChartAddInBase134221@@MAEHW4EAICommandType@@@Z
_TEXT	SEGMENT
_p_eCommandID$ = 8					; size = 4
?OnAddInToolCommand@CChartAddInBase134221@@MAEHW4EAICommandType@@@Z PROC ; CChartAddInBase134221::OnAddInToolCommand, COMDAT
; _this$ = ecx

; 188  : 	virtual BOOL	OnAddInToolCommand(	const EAICommandType p_eCommandID)																		{	return FALSE;	}

  00000	33 c0		 xor	 eax, eax
  00002	c2 04 00	 ret	 4
?OnAddInToolCommand@CChartAddInBase134221@@MAEHW4EAICommandType@@@Z ENDP ; CChartAddInBase134221::OnAddInToolCommand
_TEXT	ENDS
; Function compile flags: /Ogtp
; File D:\git\src\IBK\IBK_DRFN\ProjSrc\SrcChartEx\ChartAddIn\ChartDataListViewerAddIn\Include_AddIn_134221\I134221\_ChartAddInBase.h
;	COMDAT ?OnAddInMsg@CChartAddInBase134221@@MAEHPBDJ@Z
_TEXT	SEGMENT
_p_szAddInItemName$ = 8					; size = 4
_p_lParam$ = 12						; size = 4
?OnAddInMsg@CChartAddInBase134221@@MAEHPBDJ@Z PROC	; CChartAddInBase134221::OnAddInMsg, COMDAT
; _this$ = ecx

; 187  : 	virtual BOOL	OnAddInMsg(			const char *p_szAddInItemName, const long p_lParam)														{	return FALSE;	}

  00000	33 c0		 xor	 eax, eax
  00002	c2 08 00	 ret	 8
?OnAddInMsg@CChartAddInBase134221@@MAEHPBDJ@Z ENDP	; CChartAddInBase134221::OnAddInMsg
_TEXT	ENDS
; Function compile flags: /Ogtp
; File D:\git\src\IBK\IBK_DRFN\ProjSrc\SrcChartEx\ChartAddIn\ChartDataListViewerAddIn\Include_AddIn_134221\I134221\_ChartAddInBase.h
;	COMDAT ?OnPreRealPacketEnd@CChartAddInBase134221@@MAEHPBD@Z
_TEXT	SEGMENT
_p_szRQ$ = 8						; size = 4
?OnPreRealPacketEnd@CChartAddInBase134221@@MAEHPBD@Z PROC ; CChartAddInBase134221::OnPreRealPacketEnd, COMDAT
; _this$ = ecx

; 180  : 	virtual BOOL	OnPreRealPacketEnd( const char *p_szRQ = NULL)											{	return TRUE;	}

  00000	b8 01 00 00 00	 mov	 eax, 1
  00005	c2 04 00	 ret	 4
?OnPreRealPacketEnd@CChartAddInBase134221@@MAEHPBD@Z ENDP ; CChartAddInBase134221::OnPreRealPacketEnd
_TEXT	ENDS
; Function compile flags: /Ogtp
; File D:\git\src\IBK\IBK_DRFN\ProjSrc\SrcChartEx\ChartAddIn\ChartDataListViewerAddIn\Include_AddIn_134221\I134221\_ChartAddInBase.h
;	COMDAT ?OnPreIndexedRealData@CChartAddInBase134221@@MAEHPBDHAAN@Z
_TEXT	SEGMENT
_p_szPacketName$ = 8					; size = 4
_p_nIndex$ = 12						; size = 4
_p_dData$ = 16						; size = 4
?OnPreIndexedRealData@CChartAddInBase134221@@MAEHPBDHAAN@Z PROC ; CChartAddInBase134221::OnPreIndexedRealData, COMDAT
; _this$ = ecx

; 179  : 	virtual BOOL	OnPreIndexedRealData( const char *p_szPacketName, const int p_nIndex, double &p_dData)	{	return TRUE;	}

  00000	b8 01 00 00 00	 mov	 eax, 1
  00005	c2 0c 00	 ret	 12			; 0000000cH
?OnPreIndexedRealData@CChartAddInBase134221@@MAEHPBDHAAN@Z ENDP ; CChartAddInBase134221::OnPreIndexedRealData
_TEXT	ENDS
; Function compile flags: /Ogtp
; File D:\git\src\IBK\IBK_DRFN\ProjSrc\SrcChartEx\ChartAddIn\ChartDataListViewerAddIn\Include_AddIn_134221\I134221\_ChartAddInBase.h
;	COMDAT ?OnPreRealData@CChartAddInBase134221@@MAEHPBDAAN0@Z
_TEXT	SEGMENT
_p_szPacketName$ = 8					; size = 4
_p_dData$ = 12						; size = 4
_p_szRQ$ = 16						; size = 4
?OnPreRealData@CChartAddInBase134221@@MAEHPBDAAN0@Z PROC ; CChartAddInBase134221::OnPreRealData, COMDAT
; _this$ = ecx

; 178  : 	virtual BOOL	OnPreRealData( const char *p_szPacketName, double &p_dData, const char *p_szRQ = NULL)	{	return TRUE;	}

  00000	b8 01 00 00 00	 mov	 eax, 1
  00005	c2 0c 00	 ret	 12			; 0000000cH
?OnPreRealData@CChartAddInBase134221@@MAEHPBDAAN0@Z ENDP ; CChartAddInBase134221::OnPreRealData
_TEXT	ENDS
; Function compile flags: /Ogtp
; File D:\git\src\IBK\IBK_DRFN\ProjSrc\SrcChartEx\ChartAddIn\ChartDataListViewerAddIn\Include_AddIn_134221\I134221\_ChartAddInBase.h
;	COMDAT ?OnRecalculationComplete@CChartAddInBase134221@@MAEXXZ
_TEXT	SEGMENT
?OnRecalculationComplete@CChartAddInBase134221@@MAEXXZ PROC ; CChartAddInBase134221::OnRecalculationComplete, COMDAT
; _this$ = ecx

; 174  : 	virtual void	OnRecalculationComplete( void)						{}

  00000	c2 00 00	 ret	 0
?OnRecalculationComplete@CChartAddInBase134221@@MAEXXZ ENDP ; CChartAddInBase134221::OnRecalculationComplete
_TEXT	ENDS
; Function compile flags: /Ogtp
; File D:\git\src\IBK\IBK_DRFN\ProjSrc\SrcChartEx\ChartAddIn\ChartDataListViewerAddIn\Include_AddIn_134221\I134221\_ChartAddInBase.h
;	COMDAT ?DrawCursor@CChartAddInBase134221@@MAE?AUtagRECT@@PAUHDC__@@@Z
_TEXT	SEGMENT
___$ReturnUdt$ = 8					; size = 4
_p_hDC$ = 12						; size = 4
?DrawCursor@CChartAddInBase134221@@MAE?AUtagRECT@@PAUHDC__@@@Z PROC ; CChartAddInBase134221::DrawCursor, COMDAT
; _this$ = ecx

; 172  : 	virtual RECT	DrawCursor( HDC p_hDC)								{	RECT rct = { 0, 0, 0, 0};	return rct;		}

  00000	55		 push	 ebp
  00001	8b ec		 mov	 ebp, esp
  00003	8b 45 08	 mov	 eax, DWORD PTR ___$ReturnUdt$[ebp]
  00006	c7 00 00 00 00
	00		 mov	 DWORD PTR [eax], 0
  0000c	c7 40 04 00 00
	00 00		 mov	 DWORD PTR [eax+4], 0
  00013	c7 40 08 00 00
	00 00		 mov	 DWORD PTR [eax+8], 0
  0001a	c7 40 0c 00 00
	00 00		 mov	 DWORD PTR [eax+12], 0
  00021	5d		 pop	 ebp
  00022	c2 08 00	 ret	 8
?DrawCursor@CChartAddInBase134221@@MAE?AUtagRECT@@PAUHDC__@@@Z ENDP ; CChartAddInBase134221::DrawCursor
_TEXT	ENDS
; Function compile flags: /Ogtp
; File D:\git\src\IBK\IBK_DRFN\ProjSrc\SrcChartEx\ChartAddIn\ChartDataListViewerAddIn\Include_AddIn_134221\I134221\_ChartAddInBase.h
;	COMDAT ?OnSaveEnvironment@CChartAddInBase134221@@MAEXPAUIPropertyMap@@@Z
_TEXT	SEGMENT
_p_pIAddInEnvMap$ = 8					; size = 4
?OnSaveEnvironment@CChartAddInBase134221@@MAEXPAUIPropertyMap@@@Z PROC ; CChartAddInBase134221::OnSaveEnvironment, COMDAT
; _this$ = ecx

; 170  : 	virtual void	OnSaveEnvironment( IPropertyMap *p_pIAddInEnvMap)	{}

  00000	c2 04 00	 ret	 4
?OnSaveEnvironment@CChartAddInBase134221@@MAEXPAUIPropertyMap@@@Z ENDP ; CChartAddInBase134221::OnSaveEnvironment
_TEXT	ENDS
; Function compile flags: /Ogtp
; File D:\git\src\IBK\IBK_DRFN\ProjSrc\SrcChartEx\ChartAddIn\ChartDataListViewerAddIn\Include_AddIn_134221\I134221\_ChartAddInBase.h
;	COMDAT ?OnLoadEnvironment@CChartAddInBase134221@@MAEXPAUIPropertyMap@@@Z
_TEXT	SEGMENT
_p_pIAddInEnvMap$ = 8					; size = 4
?OnLoadEnvironment@CChartAddInBase134221@@MAEXPAUIPropertyMap@@@Z PROC ; CChartAddInBase134221::OnLoadEnvironment, COMDAT
; _this$ = ecx

; 169  : 	virtual void	OnLoadEnvironment( IPropertyMap *p_pIAddInEnvMap)	{}

  00000	c2 04 00	 ret	 4
?OnLoadEnvironment@CChartAddInBase134221@@MAEXPAUIPropertyMap@@@Z ENDP ; CChartAddInBase134221::OnLoadEnvironment
_TEXT	ENDS
; Function compile flags: /Ogtp
; File D:\git\src\IBK\IBK_DRFN\ProjSrc\SrcChartEx\ChartAddIn\ChartDataListViewerAddIn\Include_AddIn_134221\I134221\_ChartAddInBase.h
;	COMDAT ?OnRealPacketEnd@CChartAddInBase134221@@MAEXPBD@Z
_TEXT	SEGMENT
_p_szRQ$ = 8						; size = 4
?OnRealPacketEnd@CChartAddInBase134221@@MAEXPBD@Z PROC	; CChartAddInBase134221::OnRealPacketEnd, COMDAT
; _this$ = ecx

; 167  : 	virtual void	OnRealPacketEnd( const char *p_szRQ)								{}

  00000	c2 04 00	 ret	 4
?OnRealPacketEnd@CChartAddInBase134221@@MAEXPBD@Z ENDP	; CChartAddInBase134221::OnRealPacketEnd
_TEXT	ENDS
; Function compile flags: /Ogtp
; File D:\git\src\IBK\IBK_DRFN\ProjSrc\SrcChartEx\ChartAddIn\ChartDataListViewerAddIn\Include_AddIn_134221\I134221\_ChartAddInBase.h
;	COMDAT ?OnIndexedRealData@CChartAddInBase134221@@MAEXPBDHN@Z
_TEXT	SEGMENT
_p_szPacketName$ = 8					; size = 4
_p_nIndex$ = 12						; size = 4
_p_dData$ = 16						; size = 8
?OnIndexedRealData@CChartAddInBase134221@@MAEXPBDHN@Z PROC ; CChartAddInBase134221::OnIndexedRealData, COMDAT
; _this$ = ecx

; 165  : 	virtual void	OnIndexedRealData( const char *p_szPacketName, const int p_nIndex, double p_dData)		{}

  00000	c2 10 00	 ret	 16			; 00000010H
?OnIndexedRealData@CChartAddInBase134221@@MAEXPBDHN@Z ENDP ; CChartAddInBase134221::OnIndexedRealData
_TEXT	ENDS
; Function compile flags: /Ogtp
; File D:\git\src\IBK\IBK_DRFN\ProjSrc\SrcChartEx\ChartAddIn\ChartDataListViewerAddIn\Include_AddIn_134221\I134221\_ChartAddInBase.h
;	COMDAT ?OnRealData@CChartAddInBase134221@@MAEXPBDN0@Z
_TEXT	SEGMENT
_p_szPacketName$ = 8					; size = 4
_p_dData$ = 12						; size = 8
_p_szRQ$ = 20						; size = 4
?OnRealData@CChartAddInBase134221@@MAEXPBDN0@Z PROC	; CChartAddInBase134221::OnRealData, COMDAT
; _this$ = ecx

; 164  : 	virtual void	OnRealData( const char *p_szPacketName, double p_dData, const char *p_szRQ)			{}

  00000	c2 10 00	 ret	 16			; 00000010H
?OnRealData@CChartAddInBase134221@@MAEXPBDN0@Z ENDP	; CChartAddInBase134221::OnRealData
_TEXT	ENDS
; Function compile flags: /Ogtp
; File D:\git\src\IBK\IBK_DRFN\ProjSrc\SrcChartEx\ChartAddIn\ChartDataListViewerAddIn\Include_AddIn_134221\I134221\_ChartAddInBase.h
;	COMDAT ?OnBlockChanged@CChartAddInBase134221@@MAEXW4BLOCKBEHAVIOR@CBlockBaseData@@HHHH@Z
_TEXT	SEGMENT
_p_eChangeType$ = 8					; size = 4
_p_nSourceRow$ = 12					; size = 4
_p_nSourceColumn$ = 16					; size = 4
_p_nTargetRow$ = 20					; size = 4
_p_nTargetColumn$ = 24					; size = 4
?OnBlockChanged@CChartAddInBase134221@@MAEXW4BLOCKBEHAVIOR@CBlockBaseData@@HHHH@Z PROC ; CChartAddInBase134221::OnBlockChanged, COMDAT
; _this$ = ecx

; 160  : 	virtual void	OnBlockChanged( const CBlockBaseData::BLOCKBEHAVIOR p_eChangeType, const int p_nSourceRow, const int p_nSourceColumn, const int p_nTargetRow, const int p_nTargetColumn)	{}

  00000	c2 14 00	 ret	 20			; 00000014H
?OnBlockChanged@CChartAddInBase134221@@MAEXW4BLOCKBEHAVIOR@CBlockBaseData@@HHHH@Z ENDP ; CChartAddInBase134221::OnBlockChanged
_TEXT	ENDS
; Function compile flags: /Ogtp
; File D:\git\src\IBK\IBK_DRFN\ProjSrc\SrcChartEx\ChartAddIn\ChartDataListViewerAddIn\Include_AddIn_134221\I134221\_ChartAddInBase.h
;	COMDAT ?OnPacketTruncated@CChartAddInBase134221@@MAEXH@Z
_TEXT	SEGMENT
_p_nDataCount$ = 8					; size = 4
?OnPacketTruncated@CChartAddInBase134221@@MAEXH@Z PROC	; CChartAddInBase134221::OnPacketTruncated, COMDAT
; _this$ = ecx

; 158  : 	virtual void	OnPacketTruncated( const int p_nDataCount)			{}

  00000	c2 04 00	 ret	 4
?OnPacketTruncated@CChartAddInBase134221@@MAEXH@Z ENDP	; CChartAddInBase134221::OnPacketTruncated
_TEXT	ENDS
; Function compile flags: /Ogtp
; File D:\git\src\IBK\IBK_DRFN\ProjSrc\SrcChartEx\ChartAddIn\ChartDataListViewerAddIn\Include_AddIn_134221\I134221\_ChartAddInBase.h
;	COMDAT ?OnGraphDeleted@CChartAddInBase134221@@MAEXPBD0@Z
_TEXT	SEGMENT
_p_szGraphName$ = 8					; size = 4
_p_szIndicatorName$ = 12				; size = 4
?OnGraphDeleted@CChartAddInBase134221@@MAEXPBD0@Z PROC	; CChartAddInBase134221::OnGraphDeleted, COMDAT
; _this$ = ecx

; 156  : 	virtual void	OnGraphDeleted( const char *p_szGraphName, const char *p_szIndicatorName)			{}

  00000	c2 08 00	 ret	 8
?OnGraphDeleted@CChartAddInBase134221@@MAEXPBD0@Z ENDP	; CChartAddInBase134221::OnGraphDeleted
_TEXT	ENDS
; Function compile flags: /Ogtp
; File D:\git\src\IBK\IBK_DRFN\ProjSrc\SrcChartEx\ChartAddIn\ChartDataListViewerAddIn\Include_AddIn_134221\I134221\_ChartAddInBase.h
;	COMDAT ?OnContextMenu@CChartAddInBase134221@@MAEXPAUHWND__@@AAUtagPOINT@@@Z
_TEXT	SEGMENT
_p_hWnd$ = 8						; size = 4
_p_pt$ = 12						; size = 4
?OnContextMenu@CChartAddInBase134221@@MAEXPAUHWND__@@AAUtagPOINT@@@Z PROC ; CChartAddInBase134221::OnContextMenu, COMDAT
; _this$ = ecx

; 154  : 	virtual void	OnContextMenu( HWND p_hWnd, POINT &p_pt)			{}

  00000	c2 08 00	 ret	 8
?OnContextMenu@CChartAddInBase134221@@MAEXPAUHWND__@@AAUtagPOINT@@@Z ENDP ; CChartAddInBase134221::OnContextMenu
_TEXT	ENDS
; Function compile flags: /Ogtp
; File D:\git\src\IBK\IBK_DRFN\ProjSrc\SrcChartEx\ChartAddIn\ChartDataListViewerAddIn\Include_AddIn_134221\I134221\_ChartAddInBase.h
;	COMDAT ?OnManualRealData@CChartAddInBase134221@@MAEXPBDNH@Z
_TEXT	SEGMENT
_p_szPacketName$ = 8					; size = 4
_p_dData$ = 12						; size = 8
_p_nOption$ = 20					; size = 4
?OnManualRealData@CChartAddInBase134221@@MAEXPBDNH@Z PROC ; CChartAddInBase134221::OnManualRealData, COMDAT
; _this$ = ecx

; 152  : 	virtual void	OnManualRealData( const char *p_szPacketName, const double p_dData, const int p_nOption)	{}

  00000	c2 10 00	 ret	 16			; 00000010H
?OnManualRealData@CChartAddInBase134221@@MAEXPBDNH@Z ENDP ; CChartAddInBase134221::OnManualRealData
_TEXT	ENDS
; Function compile flags: /Ogtp
; File D:\git\src\IBK\IBK_DRFN\ProjSrc\SrcChartEx\ChartAddIn\ChartDataListViewerAddIn\Include_AddIn_134221\I134221\_ChartAddInBase.h
;	COMDAT ?OnGraphAdded@CChartAddInBase134221@@MAEXPBD0@Z
_TEXT	SEGMENT
_p_szGraphName$ = 8					; size = 4
_p_szIndicatorName$ = 12				; size = 4
?OnGraphAdded@CChartAddInBase134221@@MAEXPBD0@Z PROC	; CChartAddInBase134221::OnGraphAdded, COMDAT
; _this$ = ecx

; 150  : 	virtual void	OnGraphAdded( const char *p_szGraphName, const char *p_szIndicatorName)			{}

  00000	c2 08 00	 ret	 8
?OnGraphAdded@CChartAddInBase134221@@MAEXPBD0@Z ENDP	; CChartAddInBase134221::OnGraphAdded
_TEXT	ENDS
; Function compile flags: /Ogtp
; File D:\git\src\IBK\IBK_DRFN\ProjSrc\SrcChartEx\ChartAddIn\ChartDataListViewerAddIn\Include_AddIn_134221\I134221\_ChartAddInBase.h
;	COMDAT ?OnBlockRemoved@CChartAddInBase134221@@MAEXHH@Z
_TEXT	SEGMENT
_p_nRow$ = 8						; size = 4
_p_nColumn$ = 12					; size = 4
?OnBlockRemoved@CChartAddInBase134221@@MAEXHH@Z PROC	; CChartAddInBase134221::OnBlockRemoved, COMDAT
; _this$ = ecx

; 148  : 	virtual void	OnBlockRemoved( const int p_nRow, const int p_nColumn)	{}

  00000	c2 08 00	 ret	 8
?OnBlockRemoved@CChartAddInBase134221@@MAEXHH@Z ENDP	; CChartAddInBase134221::OnBlockRemoved
_TEXT	ENDS
; Function compile flags: /Ogtp
; File D:\git\src\IBK\IBK_DRFN\ProjSrc\SrcChartEx\ChartAddIn\ChartDataListViewerAddIn\Include_AddIn_134221\I134221\_ChartAddInBase.h
;	COMDAT ?OnGraphDataChanged@CChartAddInBase134221@@MAEXXZ
_TEXT	SEGMENT
?OnGraphDataChanged@CChartAddInBase134221@@MAEXXZ PROC	; CChartAddInBase134221::OnGraphDataChanged, COMDAT
; _this$ = ecx

; 146  : 	virtual void	OnGraphDataChanged( void)							{}

  00000	c2 00 00	 ret	 0
?OnGraphDataChanged@CChartAddInBase134221@@MAEXXZ ENDP	; CChartAddInBase134221::OnGraphDataChanged
_TEXT	ENDS
; Function compile flags: /Ogtp
; File D:\git\src\IBK\IBK_DRFN\ProjSrc\SrcChartEx\ChartAddIn\ChartDataListViewerAddIn\Include_AddIn_134221\I134221\_ChartAddInBase.h
;	COMDAT ?OnChartItemChanged@CChartAddInBase134221@@MAEXXZ
_TEXT	SEGMENT
?OnChartItemChanged@CChartAddInBase134221@@MAEXXZ PROC	; CChartAddInBase134221::OnChartItemChanged, COMDAT
; _this$ = ecx

; 144  : 	virtual void	OnChartItemChanged( void)							{}

  00000	c2 00 00	 ret	 0
?OnChartItemChanged@CChartAddInBase134221@@MAEXXZ ENDP	; CChartAddInBase134221::OnChartItemChanged
_TEXT	ENDS
; Function compile flags: /Ogtp
; File D:\git\src\IBK\IBK_DRFN\ProjSrc\SrcChartEx\ChartAddIn\ChartDataListViewerAddIn\Include_AddIn_134221\I134221\_ChartAddInBase.h
;	COMDAT ?OnUserIndiatorConditionLoaded@CChartAddInBase134221@@MAEXXZ
_TEXT	SEGMENT
?OnUserIndiatorConditionLoaded@CChartAddInBase134221@@MAEXXZ PROC ; CChartAddInBase134221::OnUserIndiatorConditionLoaded, COMDAT
; _this$ = ecx

; 142  : 	virtual void	OnUserIndiatorConditionLoaded( void)				{}

  00000	c2 00 00	 ret	 0
?OnUserIndiatorConditionLoaded@CChartAddInBase134221@@MAEXXZ ENDP ; CChartAddInBase134221::OnUserIndiatorConditionLoaded
_TEXT	ENDS
; Function compile flags: /Ogtp
; File D:\git\src\IBK\IBK_DRFN\ProjSrc\SrcChartEx\ChartAddIn\ChartDataListViewerAddIn\Include_AddIn_134221\I134221\_ChartAddInBase.h
;	COMDAT ?OnResetMainBlock@CChartAddInBase134221@@MAEXXZ
_TEXT	SEGMENT
?OnResetMainBlock@CChartAddInBase134221@@MAEXXZ PROC	; CChartAddInBase134221::OnResetMainBlock, COMDAT
; _this$ = ecx

; 140  : 	virtual void	OnResetMainBlock( void)								{}

  00000	c2 00 00	 ret	 0
?OnResetMainBlock@CChartAddInBase134221@@MAEXXZ ENDP	; CChartAddInBase134221::OnResetMainBlock
_TEXT	ENDS
; Function compile flags: /Ogtp
; File D:\git\src\IBK\IBK_DRFN\ProjSrc\SrcChartEx\ChartAddIn\ChartDataListViewerAddIn\Include_AddIn_134221\I134221\_ChartAddInBase.h
;	COMDAT ?OnCaptureChanged@CChartAddInBase134221@@MAEXPAUHWND__@@QAUHBITMAP__@@@Z
_TEXT	SEGMENT
_p_hWnd$ = 8						; size = 4
_p_hbmpMainOSB$ = 12					; size = 4
?OnCaptureChanged@CChartAddInBase134221@@MAEXPAUHWND__@@QAUHBITMAP__@@@Z PROC ; CChartAddInBase134221::OnCaptureChanged, COMDAT
; _this$ = ecx

; 138  : 	virtual void	OnCaptureChanged( HWND p_hWnd, const HBITMAP p_hbmpMainOSB)	{}	// (2006/11/5 - Seung-Won, Bae) Support MainOSB

  00000	c2 08 00	 ret	 8
?OnCaptureChanged@CChartAddInBase134221@@MAEXPAUHWND__@@QAUHBITMAP__@@@Z ENDP ; CChartAddInBase134221::OnCaptureChanged
_TEXT	ENDS
; Function compile flags: /Ogtp
; File D:\git\src\IBK\IBK_DRFN\ProjSrc\SrcChartEx\ChartAddIn\ChartDataListViewerAddIn\Include_AddIn_134221\I134221\_ChartAddInBase.h
;	COMDAT ?OnTimer@CChartAddInBase134221@@MAEXI@Z
_TEXT	SEGMENT
_p_uTimerID$ = 8					; size = 4
?OnTimer@CChartAddInBase134221@@MAEXI@Z PROC		; CChartAddInBase134221::OnTimer, COMDAT
; _this$ = ecx

; 133  : 	virtual void	OnTimer( UINT p_uTimerID)	{}

  00000	c2 04 00	 ret	 4
?OnTimer@CChartAddInBase134221@@MAEXI@Z ENDP		; CChartAddInBase134221::OnTimer
_TEXT	ENDS
; Function compile flags: /Ogtp
; File D:\git\src\IBK\IBK_DRFN\ProjSrc\SrcChartEx\ChartAddIn\ChartDataListViewerAddIn\Include_AddIn_134221\I134221\_ChartAddInBase.h
;	COMDAT ?OnDrawAfterGraph@CChartAddInBase134221@@MAEXPAUHDC__@@@Z
_TEXT	SEGMENT
_p_hDC$ = 8						; size = 4
?OnDrawAfterGraph@CChartAddInBase134221@@MAEXPAUHDC__@@@Z PROC ; CChartAddInBase134221::OnDrawAfterGraph, COMDAT
; _this$ = ecx

; 129  : 	virtual void	OnDrawAfterGraph( HDC p_hDC)	{}

  00000	c2 04 00	 ret	 4
?OnDrawAfterGraph@CChartAddInBase134221@@MAEXPAUHDC__@@@Z ENDP ; CChartAddInBase134221::OnDrawAfterGraph
_TEXT	ENDS
; Function compile flags: /Ogtp
; File D:\git\src\IBK\IBK_DRFN\ProjSrc\SrcChartEx\ChartAddIn\ChartDataListViewerAddIn\Include_AddIn_134221\I134221\_ChartAddInBase.h
;	COMDAT ?OnDrawBeforeGraph@CChartAddInBase134221@@MAEXPAUHDC__@@@Z
_TEXT	SEGMENT
_p_hDC$ = 8						; size = 4
?OnDrawBeforeGraph@CChartAddInBase134221@@MAEXPAUHDC__@@@Z PROC ; CChartAddInBase134221::OnDrawBeforeGraph, COMDAT
; _this$ = ecx

; 127  : 	virtual void	OnDrawBeforeGraph( HDC p_hDC)	{}

  00000	c2 04 00	 ret	 4
?OnDrawBeforeGraph@CChartAddInBase134221@@MAEXPAUHDC__@@@Z ENDP ; CChartAddInBase134221::OnDrawBeforeGraph
_TEXT	ENDS
; Function compile flags: /Ogtp
; File D:\git\src\IBK\IBK_DRFN\ProjSrc\SrcChartEx\ChartAddIn\ChartDataListViewerAddIn\Include_AddIn_134221\I134221\_ChartAddInBase.h
;	COMDAT ?OnResetChart@CChartAddInBase134221@@MAEXXZ
_TEXT	SEGMENT
?OnResetChart@CChartAddInBase134221@@MAEXXZ PROC	; CChartAddInBase134221::OnResetChart, COMDAT
; _this$ = ecx

; 125  : 	virtual void	OnResetChart( void)	{}

  00000	c2 00 00	 ret	 0
?OnResetChart@CChartAddInBase134221@@MAEXXZ ENDP	; CChartAddInBase134221::OnResetChart
_TEXT	ENDS
; Function compile flags: /Ogtp
; File D:\git\src\IBK\IBK_DRFN\ProjSrc\SrcChartEx\ChartAddIn\ChartDataListViewerAddIn\Include_AddIn_134221\I134221\_ChartAddInBase.h
;	COMDAT ?OnLSharedDataChange@CChartAddInBase134221@@MAEXPBD0@Z
_TEXT	SEGMENT
_p_szLShareKey$ = 8					; size = 4
_p_szLShareValue$ = 12					; size = 4
?OnLSharedDataChange@CChartAddInBase134221@@MAEXPBD0@Z PROC ; CChartAddInBase134221::OnLSharedDataChange, COMDAT
; _this$ = ecx

; 123  : 	virtual void	OnLSharedDataChange( const char *p_szLShareKey, const char *p_szLShareValue)	{}

  00000	c2 08 00	 ret	 8
?OnLSharedDataChange@CChartAddInBase134221@@MAEXPBD0@Z ENDP ; CChartAddInBase134221::OnLSharedDataChange
_TEXT	ENDS
; Function compile flags: /Ogtp
; File D:\git\src\IBK\IBK_DRFN\ProjSrc\SrcChartEx\ChartAddIn\ChartDataListViewerAddIn\Include_AddIn_134221\I134221\_ChartAddInBase.h
;	COMDAT ?OnGSharedDataChange@CChartAddInBase134221@@MAEXPBD0H@Z
_TEXT	SEGMENT
_p_szGShareKey$ = 8					; size = 4
_p_szGShareValue$ = 12					; size = 4
_p_bStartShare$ = 16					; size = 4
?OnGSharedDataChange@CChartAddInBase134221@@MAEXPBD0H@Z PROC ; CChartAddInBase134221::OnGSharedDataChange, COMDAT
; _this$ = ecx

; 121  : 	virtual void	OnGSharedDataChange( const char *p_szGShareKey, const char *p_szGShareValue, BOOL p_bStartShare)	{}

  00000	c2 0c 00	 ret	 12			; 0000000cH
?OnGSharedDataChange@CChartAddInBase134221@@MAEXPBD0H@Z ENDP ; CChartAddInBase134221::OnGSharedDataChange
_TEXT	ENDS
; Function compile flags: /Ogtp
; File D:\git\src\IBK\IBK_DRFN\ProjSrc\SrcChartEx\ChartAddIn\ChartDataListViewerAddIn\Include_AddIn_134221\I134221\_ChartAddInBase.h
;	COMDAT ?OnOcxDestroyWindow@CChartAddInBase134221@@MAEXXZ
_TEXT	SEGMENT
?OnOcxDestroyWindow@CChartAddInBase134221@@MAEXXZ PROC	; CChartAddInBase134221::OnOcxDestroyWindow, COMDAT
; _this$ = ecx

; 111  : 	virtual void	OnOcxDestroyWindow( void)							{	m_bOcxDestroyed = TRUE;	}

  00000	c7 41 34 01 00
	00 00		 mov	 DWORD PTR [ecx+52], 1
  00007	c3		 ret	 0
?OnOcxDestroyWindow@CChartAddInBase134221@@MAEXXZ ENDP	; CChartAddInBase134221::OnOcxDestroyWindow
_TEXT	ENDS
; Function compile flags: /Ogtp
; File D:\git\src\IBK\IBK_DRFN\ProjSrc\SrcChartEx\ChartAddIn\ChartDataListViewerAddIn\Include_AddIn_134221\I134221\_ChartAddInBase.h
;	COMDAT ?InvokeAddInStr@CChartAddInBase134221@@MAEHPBD0@Z
_TEXT	SEGMENT
_p_szCommandName$ = 8					; size = 4
_p_szData$ = 12						; size = 4
?InvokeAddInStr@CChartAddInBase134221@@MAEHPBD0@Z PROC	; CChartAddInBase134221::InvokeAddInStr, COMDAT
; _this$ = ecx

; 96   : 	virtual BOOL	InvokeAddInStr( LPCTSTR p_szCommandName, LPCTSTR p_szData)	{	return FALSE;	}	// (2005/9/2 - Seung-Won, Bae) for String Data

  00000	33 c0		 xor	 eax, eax
  00002	c2 08 00	 ret	 8
?InvokeAddInStr@CChartAddInBase134221@@MAEHPBD0@Z ENDP	; CChartAddInBase134221::InvokeAddInStr
_TEXT	ENDS
; Function compile flags: /Ogtp
; File D:\git\src\IBK\IBK_DRFN\ProjSrc\SrcChartEx\ChartAddIn\ChartDataListViewerAddIn\Include_AddIn_134221\I134221\_ChartAddInBase.h
;	COMDAT ?GetAddInCustomInterface@CChartAddInBase134221@@MAEPAUIUnknown@@XZ
_TEXT	SEGMENT
?GetAddInCustomInterface@CChartAddInBase134221@@MAEPAUIUnknown@@XZ PROC ; CChartAddInBase134221::GetAddInCustomInterface, COMDAT
; _this$ = ecx

; 91   : 	virtual IUnknown *	GetAddInCustomInterface( void)				{	return NULL;	}

  00000	33 c0		 xor	 eax, eax
  00002	c3		 ret	 0
?GetAddInCustomInterface@CChartAddInBase134221@@MAEPAUIUnknown@@XZ ENDP ; CChartAddInBase134221::GetAddInCustomInterface
_TEXT	ENDS
; Function compile flags: /Ogtp
; File D:\git\src\IBK\IBK_DRFN\ProjSrc\SrcChartEx\ChartAddIn\ChartDataListViewerAddIn\Include_AddIn_134221\I134221\_ChartAddInBase.h
;	COMDAT ?QueryInterface@CChartAddInBase134221@@MAGJABU_GUID@@PAPAX@Z
_TEXT	SEGMENT
_this$ = 8						; size = 4
_iid$ = 12						; size = 4
_ppvObject$ = 16					; size = 4
?QueryInterface@CChartAddInBase134221@@MAGJABU_GUID@@PAPAX@Z PROC ; CChartAddInBase134221::QueryInterface, COMDAT

; 54   : 	_IWRAPPER_IUNKNOWN_INTERFACE()

  00000	b8 02 40 00 80	 mov	 eax, -2147467262	; 80004002H
  00005	c2 0c 00	 ret	 12			; 0000000cH
?QueryInterface@CChartAddInBase134221@@MAGJABU_GUID@@PAPAX@Z ENDP ; CChartAddInBase134221::QueryInterface
_TEXT	ENDS
; Function compile flags: /Ogtp
; File D:\git\src\IBK\IBK_DRFN\ProjSrc\SrcChartEx\ChartAddIn\ChartDataListViewerAddIn\Include_AddIn_134221\I134221\_ChartAddInBase.h
;	COMDAT ?Release@CChartAddInBase134221@@MAGKXZ
_TEXT	SEGMENT
_this$ = 8						; size = 4
?Release@CChartAddInBase134221@@MAGKXZ PROC		; CChartAddInBase134221::Release, COMDAT

; 54   : 	_IWRAPPER_IUNKNOWN_INTERFACE()

  00000	55		 push	 ebp
  00001	8b ec		 mov	 ebp, esp
  00003	5d		 pop	 ebp
  00004	e9 00 00 00 00	 jmp	 ?Release@CIWUnknown@@MAGKXZ ; CIWUnknown::Release
?Release@CChartAddInBase134221@@MAGKXZ ENDP		; CChartAddInBase134221::Release
_TEXT	ENDS
; Function compile flags: /Ogtp
; File D:\git\src\IBK\IBK_DRFN\ProjSrc\SrcChartEx\ChartAddIn\ChartDataListViewerAddIn\Include_AddIn_134221\I134221\_ChartAddInBase.h
;	COMDAT ?AddRef@CChartAddInBase134221@@MAGKXZ
_TEXT	SEGMENT
_this$ = 8						; size = 4
?AddRef@CChartAddInBase134221@@MAGKXZ PROC		; CChartAddInBase134221::AddRef, COMDAT

; 54   : 	_IWRAPPER_IUNKNOWN_INTERFACE()

  00000	55		 push	 ebp
  00001	8b ec		 mov	 ebp, esp
  00003	5d		 pop	 ebp
  00004	e9 00 00 00 00	 jmp	 ?AddRef@CIWUnknown@@MAGKXZ ; CIWUnknown::AddRef
?AddRef@CChartAddInBase134221@@MAGKXZ ENDP		; CChartAddInBase134221::AddRef
_TEXT	ENDS
; Function compile flags: /Ogtp
; File D:\git\src\IBK\IBK_DRFN\ProjSrc\SrcChartEx\ChartAddIn\ChartDataListViewerAddIn\Include_AddIn_134221\_IWUnknown.h
;	COMDAT ?PreDestruct@CIWUnknown@@MAEXXZ
_TEXT	SEGMENT
?PreDestruct@CIWUnknown@@MAEXXZ PROC			; CIWUnknown::PreDestruct, COMDAT
; _this$ = ecx

; 48   : 	virtual void	PreDestruct( void)		{}

  00000	c2 00 00	 ret	 0
?PreDestruct@CIWUnknown@@MAEXXZ ENDP			; CIWUnknown::PreDestruct
_TEXT	ENDS
; Function compile flags: /Ogtp
; File D:\git\src\IBK\IBK_DRFN\ProjSrc\SrcChartEx\ChartAddIn\ChartDataListViewerAddIn\Include_AddIn_134221\_IWUnknown.h
;	COMDAT ?PreDestructX@CIWUnknown@@MAEXXZ
_TEXT	SEGMENT
?PreDestructX@CIWUnknown@@MAEXXZ PROC			; CIWUnknown::PreDestructX, COMDAT
; _this$ = ecx

; 47   : 	virtual void	PreDestructX( void)		{}

  00000	c2 00 00	 ret	 0
?PreDestructX@CIWUnknown@@MAEXXZ ENDP			; CIWUnknown::PreDestructX
_TEXT	ENDS
; Function compile flags: /Ogtp
; File D:\git\src\IBK\IBK_DRFN\ProjSrc\SrcChartEx\ChartAddIn\ChartDataListViewerAddIn\Include_AddIn_134221\_IWUnknown.h
;	COMDAT ?PostConstruct@CIWUnknown@@MAEXXZ
_TEXT	SEGMENT
?PostConstruct@CIWUnknown@@MAEXXZ PROC			; CIWUnknown::PostConstruct, COMDAT
; _this$ = ecx

; 46   : 	virtual void	PostConstruct( void)	{}

  00000	c2 00 00	 ret	 0
?PostConstruct@CIWUnknown@@MAEXXZ ENDP			; CIWUnknown::PostConstruct
_TEXT	ENDS
; Function compile flags: /Ogtp
; File C:\Program Files (x86)\Microsoft Visual Studio\2019\Community\VC\Tools\MSVC\14.29.30133\atlmfc\include\afx.inl
;	COMDAT ?_AfxInitManaged@@YAHXZ
_TEXT	SEGMENT
?_AfxInitManaged@@YAHXZ PROC				; _AfxInitManaged, COMDAT

; 87   : 	return 0;

  00000	33 c0		 xor	 eax, eax

; 88   : }

  00002	c3		 ret	 0
?_AfxInitManaged@@YAHXZ ENDP				; _AfxInitManaged
_TEXT	ENDS
; Function compile flags: /Ogtp
; File C:\Program Files (x86)\Microsoft Visual Studio\2019\Community\VC\Tools\MSVC\14.29.30133\atlmfc\include\afx.inl
;	COMDAT ?Dump@CObject@@UBEXAAVCDumpContext@@@Z
_TEXT	SEGMENT
___formal$ = 8						; size = 4
?Dump@CObject@@UBEXAAVCDumpContext@@@Z PROC		; CObject::Dump, COMDAT
; _this$ = ecx

; 122  : 	{ /* no dumping in release builds */ }

  00000	c2 04 00	 ret	 4
?Dump@CObject@@UBEXAAVCDumpContext@@@Z ENDP		; CObject::Dump
_TEXT	ENDS
; Function compile flags: /Ogtp
; File C:\Program Files (x86)\Microsoft Visual Studio\2019\Community\VC\Tools\MSVC\14.29.30133\atlmfc\include\afx.inl
;	COMDAT ?AssertValid@CObject@@UBEXXZ
_TEXT	SEGMENT
?AssertValid@CObject@@UBEXXZ PROC			; CObject::AssertValid, COMDAT
; _this$ = ecx

; 120  : 	{ /* no asserts in release builds */ }

  00000	c2 00 00	 ret	 0
?AssertValid@CObject@@UBEXXZ ENDP			; CObject::AssertValid
_TEXT	ENDS
; Function compile flags: /Ogtp
; File C:\Program Files (x86)\Microsoft Visual Studio\2019\Community\VC\Tools\MSVC\14.29.30133\atlmfc\include\afx.inl
;	COMDAT ?Serialize@CObject@@UAEXAAVCArchive@@@Z
_TEXT	SEGMENT
___formal$ = 8						; size = 4
?Serialize@CObject@@UAEXAAVCArchive@@@Z PROC		; CObject::Serialize, COMDAT
; _this$ = ecx

; 106  : 	{ /* CObject does not serialize anything by default */ }

  00000	c2 04 00	 ret	 4
?Serialize@CObject@@UAEXAAVCArchive@@@Z ENDP		; CObject::Serialize
_TEXT	ENDS
; Function compile flags: /Ogtp
; File D:\git\src\IBK\IBK_DRFN\ProjSrc\SrcChartEx\ChartAddIn\ChartDataListViewerAddIn\ChartDataListViewerAddIn\ChartExcelDataImportAddInImp.cpp
;	COMDAT ?__empty_global_delete@@YAXPAXI@Z
_TEXT	SEGMENT
___formal$ = 8						; size = 4
___formal$ = 12						; size = 4
?__empty_global_delete@@YAXPAXI@Z PROC			; __empty_global_delete, COMDAT

  00000	c2 00 00	 ret	 0
?__empty_global_delete@@YAXPAXI@Z ENDP			; __empty_global_delete
_TEXT	ENDS
; Function compile flags: /Ogtp
; File D:\git\src\IBK\IBK_DRFN\ProjSrc\SrcChartEx\ChartAddIn\ChartDataListViewerAddIn\ChartDataListViewerAddIn\ChartExcelDataImportAddInImp.cpp
;	COMDAT ?__empty_global_delete@@YAXPAX@Z
_TEXT	SEGMENT
___formal$ = 8						; size = 4
?__empty_global_delete@@YAXPAX@Z PROC			; __empty_global_delete, COMDAT

  00000	c2 00 00	 ret	 0
?__empty_global_delete@@YAXPAX@Z ENDP			; __empty_global_delete
_TEXT	ENDS
END
