; Listing generated by Microsoft (R) Optimizing Compiler Version 19.29.30145.0 

	TITLE	D:\git\src\IBK\IBK_DRFN\#DRfn-CS\_Obj\ChartDataListViewerAddIn\DlgDataListViewer.obj
	.686P
	.XMM
	include listing.inc
	.model	flat

INCLUDELIB MSVCRT
INCLUDELIB OLDNAMES

PUBLIC	?__empty_global_delete@@YAXPAX@Z		; __empty_global_delete
PUBLIC	?__empty_global_delete@@YAXPAXI@Z		; __empty_global_delete
PUBLIC	?AfxCrtErrorCheck@@YAHH@Z			; AfxCrtErrorCheck
PUBLIC	??1CObject@@UAE@XZ				; CObject::~CObject
PUBLIC	??3CObject@@SGXPAX@Z				; CObject::operator delete
PUBLIC	?Serialize@CObject@@UAEXAAVCArchive@@@Z		; CObject::Serialize
PUBLIC	?AssertValid@CObject@@UBEXXZ			; CObject::AssertValid
PUBLIC	?Dump@CObject@@UBEXAAVCDumpContext@@@Z		; CObject::Dump
PUBLIC	??1CException@@UAE@XZ				; CException::~CException
PUBLIC	??HATL@@YA?AV?$CStringT@DV?$StrTraitMFC_DLL@DV?$ChTraitsCRT@D@ATL@@@@@0@ABV10@0@Z ; ATL::operator+
PUBLIC	??1CFileException@@UAE@XZ			; CFileException::~CFileException
PUBLIC	??_GCFileException@@UAEPAXI@Z			; CFileException::`scalar deleting destructor'
PUBLIC	??1CGdiObject@@UAE@XZ				; CGdiObject::~CGdiObject
PUBLIC	??_GCGdiObject@@UAEPAXI@Z			; CGdiObject::`scalar deleting destructor'
PUBLIC	??1CBrush@@UAE@XZ				; CBrush::~CBrush
PUBLIC	??_GCBrush@@UAEPAXI@Z				; CBrush::`scalar deleting destructor'
PUBLIC	?DoDataExchange@CWnd@@MAEXPAVCDataExchange@@@Z	; CWnd::DoDataExchange
PUBLIC	?BeginModalState@CWnd@@UAEXXZ			; CWnd::BeginModalState
PUBLIC	?EndModalState@CWnd@@UAEXXZ			; CWnd::EndModalState
PUBLIC	?Create@CDialog@@UAEHIPAVCWnd@@@Z		; CDialog::Create
PUBLIC	??_GCButton@@UAEPAXI@Z				; CButton::`scalar deleting destructor'
PUBLIC	??_GCListCtrl@@UAEPAXI@Z			; CListCtrl::`scalar deleting destructor'
PUBLIC	??1ILPCSTR134221@@QAE@XZ			; ILPCSTR134221::~ILPCSTR134221
PUBLIC	?LoadExcel2@CDlgDataListViewer@@QAEXXZ		; CDlgDataListViewer::LoadExcel2
PUBLIC	?RealUpdate@CDlgDataListViewer@@QAEXXZ		; CDlgDataListViewer::RealUpdate
PUBLIC	?SetPacketNames@CDlgDataListViewer@@QAEXABV?$CStringT@DV?$StrTraitMFC_DLL@DV?$ChTraitsCRT@D@ATL@@@@@ATL@@00@Z ; CDlgDataListViewer::SetPacketNames
PUBLIC	?MouseMove@CDlgDataListViewer@@QAEXH@Z		; CDlgDataListViewer::MouseMove
PUBLIC	?SetPacketListAddr@CDlgDataListViewer@@QAEXPAUIPacketManager134221@@@Z ; CDlgDataListViewer::SetPacketListAddr
PUBLIC	??0CDlgDataListViewer@@QAE@PAVCWnd@@ABV?$CStringT@DV?$StrTraitMFC_DLL@DV?$ChTraitsCRT@D@ATL@@@@@ATL@@111PBD1_NPAVCChartDataListViewerAddInImp@@PAUHWND__@@W4CHART_MODE@CChartInfo@@@Z ; CDlgDataListViewer::CDlgDataListViewer
PUBLIC	??1CDlgDataListViewer@@UAE@XZ			; CDlgDataListViewer::~CDlgDataListViewer
PUBLIC	?DoDataExchange@CDlgDataListViewer@@MAEXPAVCDataExchange@@@Z ; CDlgDataListViewer::DoDataExchange
PUBLIC	?OnInitDialog@CDlgDataListViewer@@MAEHXZ	; CDlgDataListViewer::OnInitDialog
PUBLIC	?OnExcelFileExport@CDlgDataListViewer@@IAEXXZ	; CDlgDataListViewer::OnExcelFileExport
PUBLIC	?OnClose@CDlgDataListViewer@@IAEXXZ		; CDlgDataListViewer::OnClose
PUBLIC	?OnCtlColor@CDlgDataListViewer@@IAEPAUHBRUSH__@@PAVCDC@@PAVCWnd@@I@Z ; CDlgDataListViewer::OnCtlColor
PUBLIC	?OnUpdate@CDlgDataListViewer@@IAEXXZ		; CDlgDataListViewer::OnUpdate
PUBLIC	?OnClipboard@CDlgDataListViewer@@IAEXXZ		; CDlgDataListViewer::OnClipboard
PUBLIC	?OnGetdispinfo@CDlgDataListViewer@@IAEXPAUtagNMHDR@@PAJ@Z ; CDlgDataListViewer::OnGetdispinfo
PUBLIC	?OnReverse@CDlgDataListViewer@@IAEXXZ		; CDlgDataListViewer::OnReverse
PUBLIC	?OnCustomdrawList@CDlgDataListViewer@@IAEXPAUtagNMHDR@@PAJ@Z ; CDlgDataListViewer::OnCustomdrawList
PUBLIC	?GetThisMessageMap@CDlgDataListViewer@@KGPBUAFX_MSGMAP@@XZ ; CDlgDataListViewer::GetThisMessageMap
PUBLIC	?GetMessageMap@CDlgDataListViewer@@MBEPBUAFX_MSGMAP@@XZ ; CDlgDataListViewer::GetMessageMap
PUBLIC	?IsAllZeroData@CDlgDataListViewer@@QAE_NPAV?$CList@NN@@@Z ; CDlgDataListViewer::IsAllZeroData
PUBLIC	?GetRowandColumnCount@CDlgDataListViewer@@QAE?AVCPoint@@XZ ; CDlgDataListViewer::GetRowandColumnCount
PUBLIC	?LoadExcel@CDlgDataListViewer@@QAEXXZ		; CDlgDataListViewer::LoadExcel
PUBLIC	?GetStrValue@CDlgDataListViewer@@QAE?AV?$CStringT@DV?$StrTraitMFC_DLL@DV?$ChTraitsCRT@D@ATL@@@@@ATL@@PAUHKEY__@@V23@11@Z ; CDlgDataListViewer::GetStrValue
PUBLIC	?LoadListFocusMove@CDlgDataListViewer@@QAEXH@Z	; CDlgDataListViewer::LoadListFocusMove
PUBLIC	?InsertDatatoList@CDlgDataListViewer@@QAEXABV?$CStringT@DV?$StrTraitMFC_DLL@DV?$ChTraitsCRT@D@ATL@@@@@ATL@@00@Z ; CDlgDataListViewer::InsertDatatoList
PUBLIC	??0?$CArray@VCData@@V1@@@QAE@XZ			; CArray<CData,CData>::CArray<CData,CData>
PUBLIC	?SetSize@?$CArray@VCData@@V1@@@QAEXHH@Z		; CArray<CData,CData>::SetSize
PUBLIC	??1?$CArray@VCData@@V1@@@UAE@XZ			; CArray<CData,CData>::~CArray<CData,CData>
PUBLIC	?Serialize@?$CArray@VCData@@V1@@@UAEXAAVCArchive@@@Z ; CArray<CData,CData>::Serialize
PUBLIC	??_G?$CArray@VCData@@V1@@@UAEPAXI@Z		; CArray<CData,CData>::`scalar deleting destructor'
PUBLIC	?ReCalc_WindowSize@CDlgDataListViewer@@QAEXABV?$CStringT@DV?$StrTraitMFC_DLL@DV?$ChTraitsCRT@D@ATL@@@@@ATL@@@Z ; CDlgDataListViewer::ReCalc_WindowSize
PUBLIC	?Make_ListHeader@CDlgDataListViewer@@QAEXABV?$CStringT@DV?$StrTraitMFC_DLL@DV?$ChTraitsCRT@D@ATL@@@@@ATL@@0@Z ; CDlgDataListViewer::Make_ListHeader
PUBLIC	?UpdateRecord@CDlgDataListViewer@@QAEXH@Z	; CDlgDataListViewer::UpdateRecord
PUBLIC	?InsertRecord@CDlgDataListViewer@@QAEXH@Z	; CDlgDataListViewer::InsertRecord
PUBLIC	?MakeHeader_PacketSequence@CDlgDataListViewer@@QAEXXZ ; CDlgDataListViewer::MakeHeader_PacketSequence
PUBLIC	?InsertData_PacketSequence@CDlgDataListViewer@@QAEXXZ ; CDlgDataListViewer::InsertData_PacketSequence
PUBLIC	?GetMaxCount@CDlgDataListViewer@@QBEHXZ		; CDlgDataListViewer::GetMaxCount
PUBLIC	?EnsureVisible@CDlgDataListViewer@@QAEXXZ	; CDlgDataListViewer::EnsureVisible
PUBLIC	?CommaStr@CDlgDataListViewer@@QAE?AV?$CStringT@DV?$StrTraitMFC_DLL@DV?$ChTraitsCRT@D@ATL@@@@@ATL@@V23@@Z ; CDlgDataListViewer::CommaStr
PUBLIC	??_GCDlgDataListViewer@@UAEPAXI@Z		; CDlgDataListViewer::`scalar deleting destructor'
PUBLIC	??$SerializeElements@VCData@@@@YGXAAVCArchive@@PAVCData@@H@Z ; SerializeElements<CData>
PUBLIC	??_R0PAVCException@@@8				; CException * `RTTI Type Descriptor'
PUBLIC	??_7CFileException@@6B@				; CFileException::`vftable'
PUBLIC	??_C@_00CNPNBAHC@@				; `string'
PUBLIC	??_7CGdiObject@@6B@				; CGdiObject::`vftable'
PUBLIC	??_7CBrush@@6B@					; CBrush::`vftable'
PUBLIC	??_7CButton@@6B@				; CButton::`vftable'
PUBLIC	??_C@_0HD@JJCHHHNK@C?3?2Program?5Files?5?$CIx86?$CJ?2Microsof@ ; `string'
PUBLIC	??_C@_0BP@OIEOKIDM@Exception?5thrown?5in?5destructor@ ; `string'
PUBLIC	??_C@_0BB@HBOOMJBF@?$CFTs?5?$CI?$CFTs?3?$CFd?$CJ?6?$CFTs@ ; `string'
PUBLIC	??_C@_0N@OMEMOKLE@?$CFTs?5?$CI?$CFTs?3?$CFd?$CJ@ ; `string'
PUBLIC	??_7CListCtrl@@6B@				; CListCtrl::`vftable'
PUBLIC	??_R0?AVCObject@@@8				; CObject `RTTI Type Descriptor'
PUBLIC	??_R3CObject@@8					; CObject::`RTTI Class Hierarchy Descriptor'
PUBLIC	??_R2CObject@@8					; CObject::`RTTI Base Class Array'
PUBLIC	??_R1A@?0A@EA@CObject@@8			; CObject::`RTTI Base Class Descriptor at (0,-1,0,64)'
PUBLIC	??_R0?AVCException@@@8				; CException `RTTI Type Descriptor'
PUBLIC	??_R3CException@@8				; CException::`RTTI Class Hierarchy Descriptor'
PUBLIC	??_R2CException@@8				; CException::`RTTI Base Class Array'
PUBLIC	??_R1A@?0A@EA@CException@@8			; CException::`RTTI Base Class Descriptor at (0,-1,0,64)'
PUBLIC	??_R4CFileException@@6B@			; CFileException::`RTTI Complete Object Locator'
PUBLIC	??_R0?AVCFileException@@@8			; CFileException `RTTI Type Descriptor'
PUBLIC	??_R3CFileException@@8				; CFileException::`RTTI Class Hierarchy Descriptor'
PUBLIC	??_R2CFileException@@8				; CFileException::`RTTI Base Class Array'
PUBLIC	??_R1A@?0A@EA@CFileException@@8			; CFileException::`RTTI Base Class Descriptor at (0,-1,0,64)'
PUBLIC	??_R4CGdiObject@@6B@				; CGdiObject::`RTTI Complete Object Locator'
PUBLIC	??_R0?AVCGdiObject@@@8				; CGdiObject `RTTI Type Descriptor'
PUBLIC	??_R3CGdiObject@@8				; CGdiObject::`RTTI Class Hierarchy Descriptor'
PUBLIC	??_R2CGdiObject@@8				; CGdiObject::`RTTI Base Class Array'
PUBLIC	??_R1A@?0A@EA@CGdiObject@@8			; CGdiObject::`RTTI Base Class Descriptor at (0,-1,0,64)'
PUBLIC	??_R4CBrush@@6B@				; CBrush::`RTTI Complete Object Locator'
PUBLIC	??_R0?AVCBrush@@@8				; CBrush `RTTI Type Descriptor'
PUBLIC	??_R3CBrush@@8					; CBrush::`RTTI Class Hierarchy Descriptor'
PUBLIC	??_R2CBrush@@8					; CBrush::`RTTI Base Class Array'
PUBLIC	??_R1A@?0A@EA@CBrush@@8				; CBrush::`RTTI Base Class Descriptor at (0,-1,0,64)'
PUBLIC	??_R1A@?0A@EA@CWnd@@8				; CWnd::`RTTI Base Class Descriptor at (0,-1,0,64)'
PUBLIC	??_R0?AVCWnd@@@8				; CWnd `RTTI Type Descriptor'
PUBLIC	??_R3CWnd@@8					; CWnd::`RTTI Class Hierarchy Descriptor'
PUBLIC	??_R2CWnd@@8					; CWnd::`RTTI Base Class Array'
PUBLIC	??_R1A@?0A@EA@CCmdTarget@@8			; CCmdTarget::`RTTI Base Class Descriptor at (0,-1,0,64)'
PUBLIC	??_R0?AVCCmdTarget@@@8				; CCmdTarget `RTTI Type Descriptor'
PUBLIC	??_R3CCmdTarget@@8				; CCmdTarget::`RTTI Class Hierarchy Descriptor'
PUBLIC	??_R2CCmdTarget@@8				; CCmdTarget::`RTTI Base Class Array'
PUBLIC	??_R4CButton@@6B@				; CButton::`RTTI Complete Object Locator'
PUBLIC	??_R0?AVCButton@@@8				; CButton `RTTI Type Descriptor'
PUBLIC	??_R3CButton@@8					; CButton::`RTTI Class Hierarchy Descriptor'
PUBLIC	??_R2CButton@@8					; CButton::`RTTI Base Class Array'
PUBLIC	??_R1A@?0A@EA@CButton@@8			; CButton::`RTTI Base Class Descriptor at (0,-1,0,64)'
PUBLIC	??_R1A@?0A@EA@CDialog@@8			; CDialog::`RTTI Base Class Descriptor at (0,-1,0,64)'
PUBLIC	??_R0?AVCDialog@@@8				; CDialog `RTTI Type Descriptor'
PUBLIC	??_R3CDialog@@8					; CDialog::`RTTI Class Hierarchy Descriptor'
PUBLIC	??_R2CDialog@@8					; CDialog::`RTTI Base Class Array'
PUBLIC	??_R4CListCtrl@@6B@				; CListCtrl::`RTTI Complete Object Locator'
PUBLIC	??_R0?AVCListCtrl@@@8				; CListCtrl `RTTI Type Descriptor'
PUBLIC	??_R3CListCtrl@@8				; CListCtrl::`RTTI Class Hierarchy Descriptor'
PUBLIC	??_R2CListCtrl@@8				; CListCtrl::`RTTI Base Class Array'
PUBLIC	??_R1A@?0A@EA@CListCtrl@@8			; CListCtrl::`RTTI Base Class Descriptor at (0,-1,0,64)'
PUBLIC	??_7?$CArray@VCData@@V1@@@6B@			; CArray<CData,CData>::`vftable'
PUBLIC	??_7CDlgDataListViewer@@6B@			; CDlgDataListViewer::`vftable'
PUBLIC	??_C@_01IHBHIGKO@?0@				; `string'
PUBLIC	??_C@_01ICJEACDI@?$DL@				; `string'
PUBLIC	??_C@_0P@IMPIBBAB@YYYYMMDDHHMMSS@		; `string'
PUBLIC	??_C@_02EGJHDPJI@HH@				; `string'
PUBLIC	??_C@_03FMICJPKI@PF_@				; `string'
PUBLIC	??_C@_04MNKDIHCC@P?$CGF_@			; `string'
PUBLIC	??_C@_0BA@OJCKCJHA@ThreeLineBreak_@		; `string'
PUBLIC	??_C@_01IDAFKMJL@_@				; `string'
PUBLIC	??_C@_08DKDJLCMP@YYYYMMDD@			; `string'
PUBLIC	??_C@_06EBMMBHJD@YYYYMM@			; `string'
PUBLIC	??_C@_08KLIIINKM@MMDDHHMM@			; `string'
PUBLIC	??_C@_08JFMBEEDE@DDHHMMSS@			; `string'
PUBLIC	??_C@_09FONLIOOC@Zig_Index@			; `string'
PUBLIC	??_C@_0L@HHGLDDHE@Zig_Index?0@			; `string'
PUBLIC	??_C@_0L@EJDGIBBA@CLC_?F?w?$MA?N?F?$KO@		; `string'
PUBLIC	??_C@_0M@CEMPENEL@CLC_?F?w?$MA?N?F?$KO?0@	; `string'
PUBLIC	??_C@_0CK@HLLCJIGM@?$CFsChartData_?$CF04d?$CF02d?$CF02d_?$CF02d?$CF0@ ; `string'
PUBLIC	??_C@_01GPOEFGEJ@?7@				; `string'
PUBLIC	??_C@_02PCIJFNDE@?$AN?6@			; `string'
PUBLIC	??_C@_02NFLNFON@NO@				; `string'
PUBLIC	??_C@_0BN@JCCJDGAM@Excel?4csv?2shell?2open?2command@ ; `string'
PUBLIC	??_C@_09KIHNACBF@excel?4exe@			; `string'
PUBLIC	??_C@_01BJJEKLCA@?$CC@				; `string'
PUBLIC	??_C@_02JPEBCGCN@?5?$CC@			; `string'
PUBLIC	??_C@_09EMHCNPP@?$CFs?5?$CC?$CFs?$CC?$CFs@	; `string'
PUBLIC	??_C@_05DMPKEKII@PF_?$CFs@			; `string'
PUBLIC	??_C@_0BC@FHBJKGIO@ThreeLineBreak_?$CFs@	; `string'
PUBLIC	??_C@_05IFKLLJBC@?5?5?5?5?5@			; `string'
PUBLIC	??_C@_03HPADHAHE@N?1A@				; `string'
PUBLIC	??_C@_01LFCBOECM@?4@				; `string'
PUBLIC	??_C@_01JOAMLHOP@?9@				; `string'
PUBLIC	??_R4CDlgDataListViewer@@6B@			; CDlgDataListViewer::`RTTI Complete Object Locator'
PUBLIC	??_R0?AVCDlgDataListViewer@@@8			; CDlgDataListViewer `RTTI Type Descriptor'
PUBLIC	??_R3CDlgDataListViewer@@8			; CDlgDataListViewer::`RTTI Class Hierarchy Descriptor'
PUBLIC	??_R2CDlgDataListViewer@@8			; CDlgDataListViewer::`RTTI Base Class Array'
PUBLIC	??_R1A@?0A@EA@CDlgDataListViewer@@8		; CDlgDataListViewer::`RTTI Base Class Descriptor at (0,-1,0,64)'
PUBLIC	??_R4?$CArray@VCData@@V1@@@6B@			; CArray<CData,CData>::`RTTI Complete Object Locator'
PUBLIC	??_R0?AV?$CArray@VCData@@V1@@@@8		; CArray<CData,CData> `RTTI Type Descriptor'
PUBLIC	??_R3?$CArray@VCData@@V1@@@8			; CArray<CData,CData>::`RTTI Class Hierarchy Descriptor'
PUBLIC	??_R2?$CArray@VCData@@V1@@@8			; CArray<CData,CData>::`RTTI Base Class Array'
PUBLIC	??_R1A@?0A@EA@?$CArray@VCData@@V1@@@8		; CArray<CData,CData>::`RTTI Base Class Descriptor at (0,-1,0,64)'
PUBLIC	__real@7fefffffffffffff
PUBLIC	__real@ffefffffffffffff
EXTRN	??2@YAPAXI@Z:PROC				; operator new
EXTRN	??3@YAXPAX@Z:PROC				; operator delete
EXTRN	?__global_delete@@YAXPAXI@Z:PROC		; __global_delete
EXTRN	??_U@YAPAXI@Z:PROC				; operator new[]
EXTRN	??_V@YAXPAX@Z:PROC				; operator delete[]
EXTRN	___std_terminate:PROC
EXTRN	__imp___invalid_parameter_noinfo:PROC
EXTRN	__imp___errno:PROC
EXTRN	__imp__strncmp:PROC
EXTRN	__imp__GetSystemTime@4:PROC
EXTRN	__imp__GlobalAlloc@8:PROC
EXTRN	__imp__GlobalUnlock@4:PROC
EXTRN	__imp__GlobalLock@4:PROC
EXTRN	__imp__WinExec@8:PROC
EXTRN	__imp__lstrcpyA@8:PROC
EXTRN	__imp__CreateSolidBrush@4:PROC
EXTRN	__imp__GetTextExtentPoint32A@16:PROC
EXTRN	__imp__SendMessageA@16:PROC
EXTRN	__imp__PostMessageA@16:PROC
EXTRN	__imp__IsWindow@4:PROC
EXTRN	__imp__OpenClipboard@4:PROC
EXTRN	__imp__CloseClipboard@0:PROC
EXTRN	__imp__SetClipboardData@8:PROC
EXTRN	__imp__EmptyClipboard@0:PROC
EXTRN	__imp__EnableWindow@8:PROC
EXTRN	__imp__GetSystemMetrics@4:PROC
EXTRN	__imp__GetDC@4:PROC
EXTRN	__imp__ReleaseDC@8:PROC
EXTRN	__imp__InvalidateRect@12:PROC
EXTRN	__imp__GetWindowRect@8:PROC
EXTRN	__imp__RegCloseKey@4:PROC
EXTRN	__imp__RegOpenKeyA@12:PROC
EXTRN	__imp__RegQueryValueExA@24:PROC
EXTRN	?AfxThrowMemoryException@@YGXXZ:PROC		; AfxThrowMemoryException
EXTRN	?AfxThrowInvalidArgException@@YGXXZ:PROC	; AfxThrowInvalidArgException
EXTRN	?AfxThrowArchiveException@@YGXHPBD@Z:PROC	; AfxThrowArchiveException
EXTRN	?GetRuntimeClass@CObject@@UBEPAUCRuntimeClass@@XZ:PROC ; CObject::GetRuntimeClass
EXTRN	??0CException@@QAE@XZ:PROC			; CException::CException
EXTRN	?GetErrorMessage@CException@@UAEHPADIPAI@Z:PROC	; CException::GetErrorMessage
EXTRN	?ReportError@CException@@UAEHII@Z:PROC		; CException::ReportError
EXTRN	__imp_?Empty@?$CSimpleStringT@D$00@ATL@@QAEXXZ:PROC
EXTRN	__imp_?Concatenate@?$CSimpleStringT@D$00@ATL@@KAXAAV12@PBDH1H@Z:PROC
EXTRN	__imp_??0?$CStringT@DV?$StrTraitMFC_DLL@DV?$ChTraitsCRT@D@ATL@@@@@ATL@@QAE@XZ:PROC
EXTRN	__imp_??0?$CStringT@DV?$StrTraitMFC_DLL@DV?$ChTraitsCRT@D@ATL@@@@@ATL@@QAE@PAUIAtlStringMgr@1@@Z:PROC
EXTRN	__imp_??0?$CStringT@DV?$StrTraitMFC_DLL@DV?$ChTraitsCRT@D@ATL@@@@@ATL@@QAE@ABV01@@Z:PROC
EXTRN	__imp_??0?$CStringT@DV?$StrTraitMFC_DLL@DV?$ChTraitsCRT@D@ATL@@@@@ATL@@QAE@PBD@Z:PROC
EXTRN	__imp_??0?$CStringT@DV?$StrTraitMFC_DLL@DV?$ChTraitsCRT@D@ATL@@@@@ATL@@QAE@PBE@Z:PROC
EXTRN	__imp_??1?$CStringT@DV?$StrTraitMFC_DLL@DV?$ChTraitsCRT@D@ATL@@@@@ATL@@QAE@XZ:PROC
EXTRN	__imp_??4?$CStringT@DV?$StrTraitMFC_DLL@DV?$ChTraitsCRT@D@ATL@@@@@ATL@@QAEAAV01@ABV01@@Z:PROC
EXTRN	__imp_??4?$CStringT@DV?$StrTraitMFC_DLL@DV?$ChTraitsCRT@D@ATL@@@@@ATL@@QAEAAV01@PBD@Z:PROC
EXTRN	__imp_??Y?$CStringT@DV?$StrTraitMFC_DLL@DV?$ChTraitsCRT@D@ATL@@@@@ATL@@QAEAAV01@ABV?$CSimpleStringT@D$00@1@@Z:PROC
EXTRN	__imp_??Y?$CStringT@DV?$StrTraitMFC_DLL@DV?$ChTraitsCRT@D@ATL@@@@@ATL@@QAEAAV01@PBD@Z:PROC
EXTRN	__imp_?GetManager@?$CStringT@DV?$StrTraitMFC_DLL@DV?$ChTraitsCRT@D@ATL@@@@@ATL@@QBEPAUIAtlStringMgr@2@XZ:PROC
EXTRN	__imp_?Compare@?$CStringT@DV?$StrTraitMFC_DLL@DV?$ChTraitsCRT@D@ATL@@@@@ATL@@QBEHPBD@Z:PROC
EXTRN	__imp_?Insert@?$CStringT@DV?$StrTraitMFC_DLL@DV?$ChTraitsCRT@D@ATL@@@@@ATL@@QAEHHPBD@Z:PROC
EXTRN	__imp_?Replace@?$CStringT@DV?$StrTraitMFC_DLL@DV?$ChTraitsCRT@D@ATL@@@@@ATL@@QAEHPBD0@Z:PROC
EXTRN	__imp_?Find@?$CStringT@DV?$StrTraitMFC_DLL@DV?$ChTraitsCRT@D@ATL@@@@@ATL@@QBEHPBDH@Z:PROC
EXTRN	__imp_?MakeLower@?$CStringT@DV?$StrTraitMFC_DLL@DV?$ChTraitsCRT@D@ATL@@@@@ATL@@QAEAAV12@XZ:PROC
EXTRN	__imp_?TrimRight@?$CStringT@DV?$StrTraitMFC_DLL@DV?$ChTraitsCRT@D@ATL@@@@@ATL@@QAEAAV12@XZ:PROC
EXTRN	__imp_?TrimLeft@?$CStringT@DV?$StrTraitMFC_DLL@DV?$ChTraitsCRT@D@ATL@@@@@ATL@@QAEAAV12@XZ:PROC
EXTRN	__imp_?Mid@?$CStringT@DV?$StrTraitMFC_DLL@DV?$ChTraitsCRT@D@ATL@@@@@ATL@@QBE?AV12@H@Z:PROC
EXTRN	__imp_?Right@?$CStringT@DV?$StrTraitMFC_DLL@DV?$ChTraitsCRT@D@ATL@@@@@ATL@@QBE?AV12@H@Z:PROC
EXTRN	__imp_?Left@?$CStringT@DV?$StrTraitMFC_DLL@DV?$ChTraitsCRT@D@ATL@@@@@ATL@@QBE?AV12@H@Z:PROC
EXTRN	__imp_?Format@?$CStringT@DV?$StrTraitMFC_DLL@DV?$ChTraitsCRT@D@ATL@@@@@ATL@@QAAXPBDZZ:PROC
EXTRN	__imp_?LoadStringA@?$CStringT@DV?$StrTraitMFC_DLL@DV?$ChTraitsCRT@D@ATL@@@@@ATL@@QAEHI@Z:PROC
EXTRN	?GetRuntimeClass@CFileException@@UBEPAUCRuntimeClass@@XZ:PROC ; CFileException::GetRuntimeClass
EXTRN	?GetErrorMessage@CFileException@@UBEHPADIPAI@Z:PROC ; CFileException::GetErrorMessage
EXTRN	??_ECFileException@@UAEPAXI@Z:PROC		; CFileException::`vector deleting destructor'
EXTRN	??0CFile@@QAE@XZ:PROC				; CFile::CFile
EXTRN	?Open@CFile@@UAEHPBDIPAVCFileException@@@Z:PROC	; CFile::Open
EXTRN	?Write@CFile@@UAEXPBXI@Z:PROC			; CFile::Write
EXTRN	?Close@CFile@@UAEXXZ:PROC			; CFile::Close
EXTRN	??1CFile@@UAE@XZ:PROC				; CFile::~CFile
EXTRN	?Read@CArchive@@QAEIPAXI@Z:PROC			; CArchive::Read
EXTRN	?Write@CArchive@@QAEXPBXI@Z:PROC		; CArchive::Write
EXTRN	?ReadCount@CArchive@@QAEKXZ:PROC		; CArchive::ReadCount
EXTRN	?WriteCount@CArchive@@QAEXK@Z:PROC		; CArchive::WriteCount
EXTRN	??0CObList@@QAE@H@Z:PROC			; CObList::CObList
EXTRN	?AddTail@CObList@@QAEPAU__POSITION@@PAVCObject@@@Z:PROC ; CObList::AddTail
EXTRN	?RemoveAll@CObList@@QAEXXZ:PROC			; CObList::RemoveAll
EXTRN	?FindIndex@CObList@@QBEPAU__POSITION@@H@Z:PROC	; CObList::FindIndex
EXTRN	??1CObList@@UAE@XZ:PROC				; CObList::~CObList
EXTRN	?GetRuntimeClass@CGdiObject@@UBEPAUCRuntimeClass@@XZ:PROC ; CGdiObject::GetRuntimeClass
EXTRN	?Attach@CGdiObject@@QAEHPAX@Z:PROC		; CGdiObject::Attach
EXTRN	?DeleteObject@CGdiObject@@QAEHXZ:PROC		; CGdiObject::DeleteObject
EXTRN	??_ECGdiObject@@UAEPAXI@Z:PROC			; CGdiObject::`vector deleting destructor'
EXTRN	?GetRuntimeClass@CBrush@@UBEPAUCRuntimeClass@@XZ:PROC ; CBrush::GetRuntimeClass
EXTRN	??_ECBrush@@UAEPAXI@Z:PROC			; CBrush::`vector deleting destructor'
EXTRN	?FromHandle@CDC@@SGPAV1@PAUHDC__@@@Z:PROC	; CDC::FromHandle
EXTRN	?SetBkMode@CDC@@QAEHH@Z:PROC			; CDC::SetBkMode
EXTRN	??0CImageList@@QAE@XZ:PROC			; CImageList::CImageList
EXTRN	?Create@CImageList@@QAEHIHHK@Z:PROC		; CImageList::Create
EXTRN	?FromHandle@CImageList@@SGPAV1@PAU_IMAGELIST@@@Z:PROC ; CImageList::FromHandle
EXTRN	??1CImageList@@UAE@XZ:PROC			; CImageList::~CImageList
EXTRN	?DDX_Control@@YGXPAVCDataExchange@@HAAVCWnd@@@Z:PROC ; DDX_Control
EXTRN	?OnCmdMsg@CCmdTarget@@UAEHIHPAXPAUAFX_CMDHANDLERINFO@@@Z:PROC ; CCmdTarget::OnCmdMsg
EXTRN	?IsInvokeAllowed@CCmdTarget@@UAEHJ@Z:PROC	; CCmdTarget::IsInvokeAllowed
EXTRN	?GetDispatchIID@CCmdTarget@@UAEHPAU_GUID@@@Z:PROC ; CCmdTarget::GetDispatchIID
EXTRN	?GetTypeInfoCount@CCmdTarget@@UAEIXZ:PROC	; CCmdTarget::GetTypeInfoCount
EXTRN	?GetTypeLibCache@CCmdTarget@@UAEPAVCTypeLibCache@@XZ:PROC ; CCmdTarget::GetTypeLibCache
EXTRN	?GetTypeLib@CCmdTarget@@UAEJKPAPAUITypeLib@@@Z:PROC ; CCmdTarget::GetTypeLib
EXTRN	?GetCommandMap@CCmdTarget@@MBEPBUAFX_OLECMDMAP@@XZ:PROC ; CCmdTarget::GetCommandMap
EXTRN	?GetDispatchMap@CCmdTarget@@MBEPBUAFX_DISPMAP@@XZ:PROC ; CCmdTarget::GetDispatchMap
EXTRN	?GetConnectionMap@CCmdTarget@@MBEPBUAFX_CONNECTIONMAP@@XZ:PROC ; CCmdTarget::GetConnectionMap
EXTRN	?GetEventSinkMap@CCmdTarget@@MBEPBUAFX_EVENTSINKMAP@@XZ:PROC ; CCmdTarget::GetEventSinkMap
EXTRN	?OnCreateAggregates@CCmdTarget@@UAEHXZ:PROC	; CCmdTarget::OnCreateAggregates
EXTRN	?GetInterfaceHook@CCmdTarget@@UAEPAUIUnknown@@PBX@Z:PROC ; CCmdTarget::GetInterfaceHook
EXTRN	?GetExtraConnectionPoints@CCmdTarget@@MAEHPAVCPtrArray@@@Z:PROC ; CCmdTarget::GetExtraConnectionPoints
EXTRN	?GetConnectionHook@CCmdTarget@@MAEPAUIConnectionPoint@@ABU_GUID@@@Z:PROC ; CCmdTarget::GetConnectionHook
EXTRN	??0CWnd@@QAE@XZ:PROC				; CWnd::CWnd
EXTRN	?PreSubclassWindow@CWnd@@UAEXXZ:PROC		; CWnd::PreSubclassWindow
EXTRN	?SubclassWindow@CWnd@@QAEHPAUHWND__@@@Z:PROC	; CWnd::SubclassWindow
EXTRN	?Create@CWnd@@UAEHPBD0KABUtagRECT@@PAV1@IPAUCCreateContext@@@Z:PROC ; CWnd::Create
EXTRN	?CreateEx@CWnd@@UAEHKPBD0KHHHHPAUHWND__@@PAUHMENU__@@PAX@Z:PROC ; CWnd::CreateEx
EXTRN	?CreateEx@CWnd@@UAEHKPBD0KABUtagRECT@@PAV1@IPAX@Z:PROC ; CWnd::CreateEx
EXTRN	?DestroyWindow@CWnd@@UAEHXZ:PROC		; CWnd::DestroyWindow
EXTRN	?PreCreateWindow@CWnd@@UAEHAAUtagCREATESTRUCTA@@@Z:PROC ; CWnd::PreCreateWindow
EXTRN	?CalcWindowRect@CWnd@@UAEXPAUtagRECT@@I@Z:PROC	; CWnd::CalcWindowRect
EXTRN	?SetWindowTextA@CWnd@@QAEXPBD@Z:PROC		; CWnd::SetWindowTextA
EXTRN	?GetMenu@CWnd@@UBEPAVCMenu@@XZ:PROC		; CWnd::GetMenu
EXTRN	?SetMenu@CWnd@@UAEHPAVCMenu@@@Z:PROC		; CWnd::SetMenu
EXTRN	?SetWindowPos@CWnd@@QAEHPBV1@HHHHI@Z:PROC	; CWnd::SetWindowPos
EXTRN	?ScreenToClient@CWnd@@QBEXPAUtagRECT@@@Z:PROC	; CWnd::ScreenToClient
EXTRN	?OnToolHitTest@CWnd@@UBEHVCPoint@@PAUtagTOOLINFOA@@@Z:PROC ; CWnd::OnToolHitTest
EXTRN	?SetFocus@CWnd@@QAEPAV1@XZ:PROC			; CWnd::SetFocus
EXTRN	?GetScrollPos@CWnd@@QBEHH@Z:PROC		; CWnd::GetScrollPos
EXTRN	?GetScrollBarCtrl@CWnd@@UBEPAVCScrollBar@@H@Z:PROC ; CWnd::GetScrollBarCtrl
EXTRN	?GetScrollInfo@CWnd@@QAEHHPAUtagSCROLLINFO@@I@Z:PROC ; CWnd::GetScrollInfo
EXTRN	?UpdateData@CWnd@@QAEHH@Z:PROC			; CWnd::UpdateData
EXTRN	?WinHelpA@CWnd@@UAEXKI@Z:PROC			; CWnd::WinHelpA
EXTRN	?HtmlHelpA@CWnd@@UAEXKI@Z:PROC			; CWnd::HtmlHelpA
EXTRN	?WinHelpInternal@CWnd@@UAEXKI@Z:PROC		; CWnd::WinHelpInternal
EXTRN	?ContinueModal@CWnd@@UAEHXZ:PROC		; CWnd::ContinueModal
EXTRN	?EndModalLoop@CWnd@@UAEXH@Z:PROC		; CWnd::EndModalLoop
EXTRN	?OnDrawIconicThumbnailOrLivePreview@CWnd@@UAEXAAVCDC@@VCRect@@VCSize@@HAAH@Z:PROC ; CWnd::OnDrawIconicThumbnailOrLivePreview
EXTRN	?GetInterfaceMap@CWnd@@MBEPBUAFX_INTERFACEMAP@@XZ:PROC ; CWnd::GetInterfaceMap
EXTRN	?EnsureStdObj@CWnd@@UAEJXZ:PROC			; CWnd::EnsureStdObj
EXTRN	?get_accParent@CWnd@@UAEJPAPAUIDispatch@@@Z:PROC ; CWnd::get_accParent
EXTRN	?get_accChildCount@CWnd@@UAEJPAJ@Z:PROC		; CWnd::get_accChildCount
EXTRN	?get_accChild@CWnd@@UAEJUtagVARIANT@@PAPAUIDispatch@@@Z:PROC ; CWnd::get_accChild
EXTRN	?get_accName@CWnd@@UAEJUtagVARIANT@@PAPA_W@Z:PROC ; CWnd::get_accName
EXTRN	?get_accValue@CWnd@@UAEJUtagVARIANT@@PAPA_W@Z:PROC ; CWnd::get_accValue
EXTRN	?get_accDescription@CWnd@@UAEJUtagVARIANT@@PAPA_W@Z:PROC ; CWnd::get_accDescription
EXTRN	?get_accRole@CWnd@@UAEJUtagVARIANT@@PAU2@@Z:PROC ; CWnd::get_accRole
EXTRN	?get_accState@CWnd@@UAEJUtagVARIANT@@PAU2@@Z:PROC ; CWnd::get_accState
EXTRN	?get_accHelp@CWnd@@UAEJUtagVARIANT@@PAPA_W@Z:PROC ; CWnd::get_accHelp
EXTRN	?get_accHelpTopic@CWnd@@UAEJPAPA_WUtagVARIANT@@PAJ@Z:PROC ; CWnd::get_accHelpTopic
EXTRN	?get_accKeyboardShortcut@CWnd@@UAEJUtagVARIANT@@PAPA_W@Z:PROC ; CWnd::get_accKeyboardShortcut
EXTRN	?get_accFocus@CWnd@@UAEJPAUtagVARIANT@@@Z:PROC	; CWnd::get_accFocus
EXTRN	?get_accSelection@CWnd@@UAEJPAUtagVARIANT@@@Z:PROC ; CWnd::get_accSelection
EXTRN	?get_accDefaultAction@CWnd@@UAEJUtagVARIANT@@PAPA_W@Z:PROC ; CWnd::get_accDefaultAction
EXTRN	?accSelect@CWnd@@UAEJJUtagVARIANT@@@Z:PROC	; CWnd::accSelect
EXTRN	?accLocation@CWnd@@UAEJPAJ000UtagVARIANT@@@Z:PROC ; CWnd::accLocation
EXTRN	?accNavigate@CWnd@@UAEJJUtagVARIANT@@PAU2@@Z:PROC ; CWnd::accNavigate
EXTRN	?accHitTest@CWnd@@UAEJJJPAUtagVARIANT@@@Z:PROC	; CWnd::accHitTest
EXTRN	?accDoDefaultAction@CWnd@@UAEJUtagVARIANT@@@Z:PROC ; CWnd::accDoDefaultAction
EXTRN	?put_accName@CWnd@@UAEJUtagVARIANT@@PA_W@Z:PROC	; CWnd::put_accName
EXTRN	?put_accValue@CWnd@@UAEJUtagVARIANT@@PA_W@Z:PROC ; CWnd::put_accValue
EXTRN	?SetProxy@CWnd@@UAEJPAUIAccessibleProxy@@@Z:PROC ; CWnd::SetProxy
EXTRN	?CreateAccessibleProxy@CWnd@@UAEJIJPAJ@Z:PROC	; CWnd::CreateAccessibleProxy
EXTRN	?OnCommand@CWnd@@MAEHIJ@Z:PROC			; CWnd::OnCommand
EXTRN	?OnNotify@CWnd@@MAEHIJPAJ@Z:PROC		; CWnd::OnNotify
EXTRN	?OnCtlColor@CWnd@@IAEPAUHBRUSH__@@PAVCDC@@PAV1@I@Z:PROC ; CWnd::OnCtlColor
EXTRN	?GetSuperWndProcAddr@CWnd@@MAEPAP6GJPAUHWND__@@IIJ@ZXZ:PROC ; CWnd::GetSuperWndProcAddr
EXTRN	?PreTranslateMessage@CWnd@@UAEHPAUtagMSG@@@Z:PROC ; CWnd::PreTranslateMessage
EXTRN	?OnAmbientProperty@CWnd@@UAEHPAVCOleControlSite@@JPAUtagVARIANT@@@Z:PROC ; CWnd::OnAmbientProperty
EXTRN	?WindowProc@CWnd@@MAEJIIJ@Z:PROC		; CWnd::WindowProc
EXTRN	?OnWndMsg@CWnd@@MAEHIIJPAJ@Z:PROC		; CWnd::OnWndMsg
EXTRN	?DefWindowProcA@CWnd@@MAEJIIJ@Z:PROC		; CWnd::DefWindowProcA
EXTRN	?PostNcDestroy@CWnd@@MAEXXZ:PROC		; CWnd::PostNcDestroy
EXTRN	?OnChildNotify@CWnd@@MAEHIIJPAJ@Z:PROC		; CWnd::OnChildNotify
EXTRN	?OnTouchInputs@CWnd@@MAEHIPAUtagTOUCHINPUT@@@Z:PROC ; CWnd::OnTouchInputs
EXTRN	?OnTouchInput@CWnd@@MAEHVCPoint@@HHPAUtagTOUCHINPUT@@@Z:PROC ; CWnd::OnTouchInput
EXTRN	?GetGestureStatus@CWnd@@MAEKVCPoint@@@Z:PROC	; CWnd::GetGestureStatus
EXTRN	?OnGestureZoom@CWnd@@MAEHVCPoint@@J@Z:PROC	; CWnd::OnGestureZoom
EXTRN	?OnGesturePan@CWnd@@MAEHVCPoint@@0@Z:PROC	; CWnd::OnGesturePan
EXTRN	?OnGestureRotate@CWnd@@MAEHVCPoint@@N@Z:PROC	; CWnd::OnGestureRotate
EXTRN	?OnGestureTwoFingerTap@CWnd@@MAEHVCPoint@@@Z:PROC ; CWnd::OnGestureTwoFingerTap
EXTRN	?OnGesturePressAndTap@CWnd@@MAEHVCPoint@@J@Z:PROC ; CWnd::OnGesturePressAndTap
EXTRN	?ResizeDynamicLayout@CWnd@@MAEXXZ:PROC		; CWnd::ResizeDynamicLayout
EXTRN	?CheckAutoCenter@CWnd@@UAEHXZ:PROC		; CWnd::CheckAutoCenter
EXTRN	?IsFrameWnd@CWnd@@UBEHXZ:PROC			; CWnd::IsFrameWnd
EXTRN	?OnFinalRelease@CWnd@@UAEXXZ:PROC		; CWnd::OnFinalRelease
EXTRN	?CreateControlContainer@CWnd@@MAEHPAPAVCOleControlContainer@@@Z:PROC ; CWnd::CreateControlContainer
EXTRN	?CreateControlSite@CWnd@@MAEHPAVCOleControlContainer@@PAPAVCOleControlSite@@IABU_GUID@@@Z:PROC ; CWnd::CreateControlSite
EXTRN	?SetOccDialogInfo@CWnd@@MAEHPAU_AFX_OCC_DIALOG_INFO@@@Z:PROC ; CWnd::SetOccDialogInfo
EXTRN	?GetOccDialogInfo@CWnd@@MAEPAU_AFX_OCC_DIALOG_INFO@@XZ:PROC ; CWnd::GetOccDialogInfo
EXTRN	?GetMessageMap@CWnd@@MBEPBUAFX_MSGMAP@@XZ:PROC	; CWnd::GetMessageMap
EXTRN	?GetRuntimeClass@CDialog@@UBEPAUCRuntimeClass@@XZ:PROC ; CDialog::GetRuntimeClass
EXTRN	?Create@CDialog@@UAEHPBDPAVCWnd@@@Z:PROC	; CDialog::Create
EXTRN	?CreateIndirect@CDialog@@UAEHPBUDLGTEMPLATE@@PAVCWnd@@PAX@Z:PROC ; CDialog::CreateIndirect
EXTRN	?CreateIndirect@CDialog@@UAEHPAXPAVCWnd@@@Z:PROC ; CDialog::CreateIndirect
EXTRN	??0CDialog@@QAE@IPAVCWnd@@@Z:PROC		; CDialog::CDialog
EXTRN	?DoModal@CDialog@@UAEHXZ:PROC			; CDialog::DoModal
EXTRN	?OnInitDialog@CDialog@@UAEHXZ:PROC		; CDialog::OnInitDialog
EXTRN	?OnSetFont@CDialog@@UAEXPAVCFont@@@Z:PROC	; CDialog::OnSetFont
EXTRN	?OnOK@CDialog@@MAEXXZ:PROC			; CDialog::OnOK
EXTRN	?OnCancel@CDialog@@MAEXXZ:PROC			; CDialog::OnCancel
EXTRN	??1CDialog@@UAE@XZ:PROC				; CDialog::~CDialog
EXTRN	?PreTranslateMessage@CDialog@@UAEHPAUtagMSG@@@Z:PROC ; CDialog::PreTranslateMessage
EXTRN	?OnCmdMsg@CDialog@@UAEHIHPAXPAUAFX_CMDHANDLERINFO@@@Z:PROC ; CDialog::OnCmdMsg
EXTRN	?CheckAutoCenter@CDialog@@UAEHXZ:PROC		; CDialog::CheckAutoCenter
EXTRN	?SetOccDialogInfo@CDialog@@MAEHPAU_AFX_OCC_DIALOG_INFO@@@Z:PROC ; CDialog::SetOccDialogInfo
EXTRN	?GetOccDialogInfo@CDialog@@MAEPAU_AFX_OCC_DIALOG_INFO@@XZ:PROC ; CDialog::GetOccDialogInfo
EXTRN	?PreInitDialog@CDialog@@MAEXXZ:PROC		; CDialog::PreInitDialog
EXTRN	?GetThisMessageMap@CDialog@@KGPBUAFX_MSGMAP@@XZ:PROC ; CDialog::GetThisMessageMap
EXTRN	?GetRuntimeClass@CButton@@UBEPAUCRuntimeClass@@XZ:PROC ; CButton::GetRuntimeClass
EXTRN	?Create@CButton@@UAEHPBDKABUtagRECT@@PAVCWnd@@I@Z:PROC ; CButton::Create
EXTRN	?DrawItem@CButton@@UAEXPAUtagDRAWITEMSTRUCT@@@Z:PROC ; CButton::DrawItem
EXTRN	??1CButton@@UAE@XZ:PROC				; CButton::~CButton
EXTRN	?OnChildNotify@CButton@@MAEHIIJPAJ@Z:PROC	; CButton::OnChildNotify
EXTRN	??_ECButton@@UAEPAXI@Z:PROC			; CButton::`vector deleting destructor'
EXTRN	?AfxMessageBox@@YGHPBDII@Z:PROC			; AfxMessageBox
EXTRN	?GetRuntimeClass@CListCtrl@@UBEPAUCRuntimeClass@@XZ:PROC ; CListCtrl::GetRuntimeClass
EXTRN	?SetItemState@CListCtrl@@QAEHHII@Z:PROC		; CListCtrl::SetItemState
EXTRN	?GetItemText@CListCtrl@@QBE?AV?$CStringT@DV?$StrTraitMFC_DLL@DV?$ChTraitsCRT@D@ATL@@@@@ATL@@HH@Z:PROC ; CListCtrl::GetItemText
EXTRN	?SetIconSpacing@CListCtrl@@QAE?AVCSize@@HH@Z:PROC ; CListCtrl::SetIconSpacing
EXTRN	?GetHeaderCtrl@CListCtrl@@QBEPAVCHeaderCtrl@@XZ:PROC ; CListCtrl::GetHeaderCtrl
EXTRN	?SetItemCountEx@CListCtrl@@QAEHHK@Z:PROC	; CListCtrl::SetItemCountEx
EXTRN	?InsertColumn@CListCtrl@@QAEHHPBDHHH@Z:PROC	; CListCtrl::InsertColumn
EXTRN	?DrawItem@CListCtrl@@UAEXPAUtagDRAWITEMSTRUCT@@@Z:PROC ; CListCtrl::DrawItem
EXTRN	??1CListCtrl@@UAE@XZ:PROC			; CListCtrl::~CListCtrl
EXTRN	?OnChildNotify@CListCtrl@@MAEHIIJPAJ@Z:PROC	; CListCtrl::OnChildNotify
EXTRN	?GetMessageMap@CListCtrl@@MBEPBUAFX_MSGMAP@@XZ:PROC ; CListCtrl::GetMessageMap
EXTRN	??_ECListCtrl@@UAEPAXI@Z:PROC			; CListCtrl::`vector deleting destructor'
EXTRN	??0CHeaderCtrlEx@@QAE@XZ:PROC			; CHeaderCtrlEx::CHeaderCtrlEx
EXTRN	??1CHeaderCtrlEx@@UAE@XZ:PROC			; CHeaderCtrlEx::~CHeaderCtrlEx
EXTRN	??0CData@@QAE@XZ:PROC				; CData::CData
EXTRN	??_E?$CArray@VCData@@V1@@@UAEPAXI@Z:PROC	; CArray<CData,CData>::`vector deleting destructor'
EXTRN	??_ECDlgDataListViewer@@UAEPAXI@Z:PROC		; CDlgDataListViewer::`vector deleting destructor'
EXTRN	?GetLanguageText@IMetaTable@@QAEPBDPAUHWND__@@W4E_CODEPAGE@1@PBDH@Z:PROC ; IMetaTable::GetLanguageText
EXTRN	?DoubleToString@CDataConversion@@SA?AV?$CStringT@DV?$StrTraitMFC_DLL@DV?$ChTraitsCRT@D@ATL@@@@@ATL@@ABN@Z:PROC ; CDataConversion::DoubleToString
EXTRN	?GetStringData@CDataConversion@@SA?AV?$CStringT@DV?$StrTraitMFC_DLL@DV?$ChTraitsCRT@D@ATL@@@@@ATL@@AAV23@ABV23@_N@Z:PROC ; CDataConversion::GetStringData
EXTRN	?GetStringDataCount@CDataConversion@@SAHABV?$CStringT@DV?$StrTraitMFC_DLL@DV?$ChTraitsCRT@D@ATL@@@@@ATL@@0@Z:PROC ; CDataConversion::GetStringDataCount
EXTRN	?GetStringFormatTrans@CDataConversion@@QAE?AV?$CStringT@DV?$StrTraitMFC_DLL@DV?$ChTraitsCRT@D@ATL@@@@@ATL@@ABV23@0@Z:PROC ; CDataConversion::GetStringFormatTrans
EXTRN	?GetStringFormatTrans@CDataConversion@@QAE?AV?$CStringT@DV?$StrTraitMFC_DLL@DV?$ChTraitsCRT@D@ATL@@@@@ATL@@ABV23@000@Z:PROC ; CDataConversion::GetStringFormatTrans
EXTRN	@__security_check_cookie@4:PROC
EXTRN	___CxxFrameHandler3:PROC
EXTRN	_memcpy:PROC
EXTRN	_memset:PROC
EXTRN	??_7type_info@@6B@:QWORD			; type_info::`vftable'
EXTRN	?g_iMetaTable@@3VIMetaTable@@A:BYTE		; g_iMetaTable
EXTRN	___security_cookie:DWORD
EXTRN	__fltused:DWORD
;	COMDAT __real@ffefffffffffffff
CONST	SEGMENT
__real@ffefffffffffffff DQ 0ffefffffffffffffr	; -1.79769e+308
CONST	ENDS
;	COMDAT __real@7fefffffffffffff
CONST	SEGMENT
__real@7fefffffffffffff DQ 07fefffffffffffffr	; 1.79769e+308
CONST	ENDS
;	COMDAT ??_R1A@?0A@EA@?$CArray@VCData@@V1@@@8
rdata$r	SEGMENT
??_R1A@?0A@EA@?$CArray@VCData@@V1@@@8 DD FLAT:??_R0?AV?$CArray@VCData@@V1@@@@8 ; CArray<CData,CData>::`RTTI Base Class Descriptor at (0,-1,0,64)'
	DD	01H
	DD	00H
	DD	0ffffffffH
	DD	00H
	DD	040H
	DD	FLAT:??_R3?$CArray@VCData@@V1@@@8
rdata$r	ENDS
;	COMDAT ??_R2?$CArray@VCData@@V1@@@8
rdata$r	SEGMENT
??_R2?$CArray@VCData@@V1@@@8 DD FLAT:??_R1A@?0A@EA@?$CArray@VCData@@V1@@@8 ; CArray<CData,CData>::`RTTI Base Class Array'
	DD	FLAT:??_R1A@?0A@EA@CObject@@8
rdata$r	ENDS
;	COMDAT ??_R3?$CArray@VCData@@V1@@@8
rdata$r	SEGMENT
??_R3?$CArray@VCData@@V1@@@8 DD 00H			; CArray<CData,CData>::`RTTI Class Hierarchy Descriptor'
	DD	00H
	DD	02H
	DD	FLAT:??_R2?$CArray@VCData@@V1@@@8
rdata$r	ENDS
;	COMDAT ??_R0?AV?$CArray@VCData@@V1@@@@8
data$rs	SEGMENT
??_R0?AV?$CArray@VCData@@V1@@@@8 DD FLAT:??_7type_info@@6B@ ; CArray<CData,CData> `RTTI Type Descriptor'
	DD	00H
	DB	'.?AV?$CArray@VCData@@V1@@@', 00H
data$rs	ENDS
;	COMDAT ??_R4?$CArray@VCData@@V1@@@6B@
rdata$r	SEGMENT
??_R4?$CArray@VCData@@V1@@@6B@ DD 00H			; CArray<CData,CData>::`RTTI Complete Object Locator'
	DD	00H
	DD	00H
	DD	FLAT:??_R0?AV?$CArray@VCData@@V1@@@@8
	DD	FLAT:??_R3?$CArray@VCData@@V1@@@8
rdata$r	ENDS
;	COMDAT ??_R1A@?0A@EA@CDlgDataListViewer@@8
rdata$r	SEGMENT
??_R1A@?0A@EA@CDlgDataListViewer@@8 DD FLAT:??_R0?AVCDlgDataListViewer@@@8 ; CDlgDataListViewer::`RTTI Base Class Descriptor at (0,-1,0,64)'
	DD	04H
	DD	00H
	DD	0ffffffffH
	DD	00H
	DD	040H
	DD	FLAT:??_R3CDlgDataListViewer@@8
rdata$r	ENDS
;	COMDAT ??_R2CDlgDataListViewer@@8
rdata$r	SEGMENT
??_R2CDlgDataListViewer@@8 DD FLAT:??_R1A@?0A@EA@CDlgDataListViewer@@8 ; CDlgDataListViewer::`RTTI Base Class Array'
	DD	FLAT:??_R1A@?0A@EA@CDialog@@8
	DD	FLAT:??_R1A@?0A@EA@CWnd@@8
	DD	FLAT:??_R1A@?0A@EA@CCmdTarget@@8
	DD	FLAT:??_R1A@?0A@EA@CObject@@8
rdata$r	ENDS
;	COMDAT ??_R3CDlgDataListViewer@@8
rdata$r	SEGMENT
??_R3CDlgDataListViewer@@8 DD 00H			; CDlgDataListViewer::`RTTI Class Hierarchy Descriptor'
	DD	00H
	DD	05H
	DD	FLAT:??_R2CDlgDataListViewer@@8
rdata$r	ENDS
;	COMDAT ??_R0?AVCDlgDataListViewer@@@8
data$rs	SEGMENT
??_R0?AVCDlgDataListViewer@@@8 DD FLAT:??_7type_info@@6B@ ; CDlgDataListViewer `RTTI Type Descriptor'
	DD	00H
	DB	'.?AVCDlgDataListViewer@@', 00H
data$rs	ENDS
;	COMDAT ??_R4CDlgDataListViewer@@6B@
rdata$r	SEGMENT
??_R4CDlgDataListViewer@@6B@ DD 00H			; CDlgDataListViewer::`RTTI Complete Object Locator'
	DD	00H
	DD	00H
	DD	FLAT:??_R0?AVCDlgDataListViewer@@@8
	DD	FLAT:??_R3CDlgDataListViewer@@8
rdata$r	ENDS
;	COMDAT ??_C@_01JOAMLHOP@?9@
CONST	SEGMENT
??_C@_01JOAMLHOP@?9@ DB '-', 00H			; `string'
CONST	ENDS
;	COMDAT ??_C@_01LFCBOECM@?4@
CONST	SEGMENT
??_C@_01LFCBOECM@?4@ DB '.', 00H			; `string'
CONST	ENDS
;	COMDAT ??_C@_03HPADHAHE@N?1A@
CONST	SEGMENT
??_C@_03HPADHAHE@N?1A@ DB 'N/A', 00H			; `string'
CONST	ENDS
;	COMDAT ??_C@_05IFKLLJBC@?5?5?5?5?5@
CONST	SEGMENT
??_C@_05IFKLLJBC@?5?5?5?5?5@ DB '     ', 00H		; `string'
CONST	ENDS
;	COMDAT ??_C@_0BC@FHBJKGIO@ThreeLineBreak_?$CFs@
CONST	SEGMENT
??_C@_0BC@FHBJKGIO@ThreeLineBreak_?$CFs@ DB 'ThreeLineBreak_%s', 00H ; `string'
CONST	ENDS
;	COMDAT ??_C@_05DMPKEKII@PF_?$CFs@
CONST	SEGMENT
??_C@_05DMPKEKII@PF_?$CFs@ DB 'PF_%s', 00H		; `string'
CONST	ENDS
;	COMDAT ??_C@_09EMHCNPP@?$CFs?5?$CC?$CFs?$CC?$CFs@
CONST	SEGMENT
??_C@_09EMHCNPP@?$CFs?5?$CC?$CFs?$CC?$CFs@ DB '%s "%s"%s', 00H ; `string'
CONST	ENDS
;	COMDAT ??_C@_02JPEBCGCN@?5?$CC@
CONST	SEGMENT
??_C@_02JPEBCGCN@?5?$CC@ DB ' "', 00H			; `string'
CONST	ENDS
;	COMDAT ??_C@_01BJJEKLCA@?$CC@
CONST	SEGMENT
??_C@_01BJJEKLCA@?$CC@ DB '"', 00H			; `string'
CONST	ENDS
;	COMDAT ??_C@_09KIHNACBF@excel?4exe@
CONST	SEGMENT
??_C@_09KIHNACBF@excel?4exe@ DB 'excel.exe', 00H	; `string'
CONST	ENDS
;	COMDAT ??_C@_0BN@JCCJDGAM@Excel?4csv?2shell?2open?2command@
CONST	SEGMENT
??_C@_0BN@JCCJDGAM@Excel?4csv?2shell?2open?2command@ DB 'Excel.csv\shell\'
	DB	'open\command', 00H				; `string'
CONST	ENDS
;	COMDAT ??_C@_02NFLNFON@NO@
CONST	SEGMENT
??_C@_02NFLNFON@NO@ DB 'NO', 00H			; `string'
CONST	ENDS
;	COMDAT ??_C@_02PCIJFNDE@?$AN?6@
CONST	SEGMENT
??_C@_02PCIJFNDE@?$AN?6@ DB 0dH, 0aH, 00H		; `string'
CONST	ENDS
;	COMDAT ??_C@_01GPOEFGEJ@?7@
CONST	SEGMENT
??_C@_01GPOEFGEJ@?7@ DB 09H, 00H			; `string'
CONST	ENDS
;	COMDAT ??_C@_0CK@HLLCJIGM@?$CFsChartData_?$CF04d?$CF02d?$CF02d_?$CF02d?$CF0@
CONST	SEGMENT
??_C@_0CK@HLLCJIGM@?$CFsChartData_?$CF04d?$CF02d?$CF02d_?$CF02d?$CF0@ DB '%'
	DB	'sChartData_%04d%02d%02d_%02d%02d%02d.nc2', 00H ; `string'
CONST	ENDS
;	COMDAT ??_C@_0M@CEMPENEL@CLC_?F?w?$MA?N?F?$KO?0@
CONST	SEGMENT
??_C@_0M@CEMPENEL@CLC_?F?w?$MA?N?F?$KO?0@ DB 'CLC_', 0c6H, 0f7H, 0c0H, 0ceH
	DB	0c6H, 0aeH, ',', 00H				; `string'
CONST	ENDS
;	COMDAT ??_C@_0L@EJDGIBBA@CLC_?F?w?$MA?N?F?$KO@
CONST	SEGMENT
??_C@_0L@EJDGIBBA@CLC_?F?w?$MA?N?F?$KO@ DB 'CLC_', 0c6H, 0f7H, 0c0H, 0ceH
	DB	0c6H, 0aeH, 00H				; `string'
CONST	ENDS
;	COMDAT ??_C@_0L@HHGLDDHE@Zig_Index?0@
CONST	SEGMENT
??_C@_0L@HHGLDDHE@Zig_Index?0@ DB 'Zig_Index,', 00H	; `string'
CONST	ENDS
;	COMDAT ??_C@_09FONLIOOC@Zig_Index@
CONST	SEGMENT
??_C@_09FONLIOOC@Zig_Index@ DB 'Zig_Index', 00H		; `string'
CONST	ENDS
;	COMDAT ??_C@_08JFMBEEDE@DDHHMMSS@
CONST	SEGMENT
??_C@_08JFMBEEDE@DDHHMMSS@ DB 'DDHHMMSS', 00H		; `string'
CONST	ENDS
;	COMDAT ??_C@_08KLIIINKM@MMDDHHMM@
CONST	SEGMENT
??_C@_08KLIIINKM@MMDDHHMM@ DB 'MMDDHHMM', 00H		; `string'
CONST	ENDS
;	COMDAT ??_C@_06EBMMBHJD@YYYYMM@
CONST	SEGMENT
??_C@_06EBMMBHJD@YYYYMM@ DB 'YYYYMM', 00H		; `string'
CONST	ENDS
;	COMDAT ??_C@_08DKDJLCMP@YYYYMMDD@
CONST	SEGMENT
??_C@_08DKDJLCMP@YYYYMMDD@ DB 'YYYYMMDD', 00H		; `string'
CONST	ENDS
;	COMDAT ??_C@_01IDAFKMJL@_@
CONST	SEGMENT
??_C@_01IDAFKMJL@_@ DB '_', 00H				; `string'
CONST	ENDS
;	COMDAT ??_C@_0BA@OJCKCJHA@ThreeLineBreak_@
CONST	SEGMENT
??_C@_0BA@OJCKCJHA@ThreeLineBreak_@ DB 'ThreeLineBreak_', 00H ; `string'
CONST	ENDS
;	COMDAT ??_C@_04MNKDIHCC@P?$CGF_@
CONST	SEGMENT
??_C@_04MNKDIHCC@P?$CGF_@ DB 'P&F_', 00H		; `string'
CONST	ENDS
;	COMDAT ??_C@_03FMICJPKI@PF_@
CONST	SEGMENT
??_C@_03FMICJPKI@PF_@ DB 'PF_', 00H			; `string'
CONST	ENDS
;	COMDAT ??_C@_02EGJHDPJI@HH@
CONST	SEGMENT
??_C@_02EGJHDPJI@HH@ DB 'HH', 00H			; `string'
CONST	ENDS
;	COMDAT ??_C@_0P@IMPIBBAB@YYYYMMDDHHMMSS@
CONST	SEGMENT
??_C@_0P@IMPIBBAB@YYYYMMDDHHMMSS@ DB 'YYYYMMDDHHMMSS', 00H ; `string'
CONST	ENDS
;	COMDAT ??_C@_01ICJEACDI@?$DL@
CONST	SEGMENT
??_C@_01ICJEACDI@?$DL@ DB ';', 00H			; `string'
CONST	ENDS
;	COMDAT ??_C@_01IHBHIGKO@?0@
CONST	SEGMENT
??_C@_01IHBHIGKO@?0@ DB ',', 00H			; `string'
CONST	ENDS
;	COMDAT ?messageMap@?1??GetThisMessageMap@CDlgDataListViewer@@KGPBUAFX_MSGMAP@@XZ@4U3@B
CONST	SEGMENT
?messageMap@?1??GetThisMessageMap@CDlgDataListViewer@@KGPBUAFX_MSGMAP@@XZ@4U3@B DD FLAT:?GetThisMessageMap@CDialog@@KGPBUAFX_MSGMAP@@XZ ; `CDlgDataListViewer::GetThisMessageMap'::`2'::messageMap
	DD	FLAT:?_messageEntries@?1??GetThisMessageMap@CDlgDataListViewer@@KGPBUAFX_MSGMAP@@XZ@4QBUAFX_MSGMAP_ENTRY@@B
CONST	ENDS
;	COMDAT ?_messageEntries@?1??GetThisMessageMap@CDlgDataListViewer@@KGPBUAFX_MSGMAP@@XZ@4QBUAFX_MSGMAP_ENTRY@@B
CONST	SEGMENT
?_messageEntries@?1??GetThisMessageMap@CDlgDataListViewer@@KGPBUAFX_MSGMAP@@XZ@4QBUAFX_MSGMAP_ENTRY@@B DD 0111H ; `CDlgDataListViewer::GetThisMessageMap'::`2'::_messageEntries
	DD	00H
	DD	032c9H
	DD	032c9H
	DD	03aH
	DD	FLAT:?OnExcelFileExport@CDlgDataListViewer@@IAEXXZ
	DD	010H
	DD	00H
	DD	00H
	DD	00H
	DD	013H
	DD	FLAT:?OnClose@CDlgDataListViewer@@IAEXXZ
	DD	019H
	DD	00H
	DD	00H
	DD	00H
	DD	08H
	DD	FLAT:?OnCtlColor@CDlgDataListViewer@@IAEPAUHBRUSH__@@PAVCDC@@PAVCWnd@@I@Z
	DD	0111H
	DD	00H
	DD	032cbH
	DD	032cbH
	DD	03aH
	DD	FLAT:?OnUpdate@CDlgDataListViewer@@IAEXXZ
	DD	0111H
	DD	00H
	DD	032ccH
	DD	032ccH
	DD	03aH
	DD	FLAT:?OnClipboard@CDlgDataListViewer@@IAEXXZ
	DD	04eH
	DD	0ff6aH
	DD	032c8H
	DD	032c8H
	DD	03eH
	DD	FLAT:?OnGetdispinfo@CDlgDataListViewer@@IAEXPAUtagNMHDR@@PAJ@Z
	DD	0111H
	DD	00H
	DD	03e8H
	DD	03e8H
	DD	03aH
	DD	FLAT:?OnReverse@CDlgDataListViewer@@IAEXXZ
	DD	04eH
	DD	0fff4H
	DD	032c8H
	DD	032c8H
	DD	03eH
	DD	FLAT:?OnCustomdrawList@CDlgDataListViewer@@IAEXPAUtagNMHDR@@PAJ@Z
	DD	00H
	DD	00H
	DD	00H
	DD	00H
	DD	00H
	DD	00H
CONST	ENDS
;	COMDAT ??_7CDlgDataListViewer@@6B@
CONST	SEGMENT
??_7CDlgDataListViewer@@6B@ DD FLAT:??_R4CDlgDataListViewer@@6B@ ; CDlgDataListViewer::`vftable'
	DD	FLAT:?GetRuntimeClass@CDialog@@UBEPAUCRuntimeClass@@XZ
	DD	FLAT:??_ECDlgDataListViewer@@UAEPAXI@Z
	DD	FLAT:?Serialize@CObject@@UAEXAAVCArchive@@@Z
	DD	FLAT:?AssertValid@CObject@@UBEXXZ
	DD	FLAT:?Dump@CObject@@UBEXAAVCDumpContext@@@Z
	DD	FLAT:?OnCmdMsg@CDialog@@UAEHIHPAXPAUAFX_CMDHANDLERINFO@@@Z
	DD	FLAT:?OnFinalRelease@CWnd@@UAEXXZ
	DD	FLAT:?IsInvokeAllowed@CCmdTarget@@UAEHJ@Z
	DD	FLAT:?GetDispatchIID@CCmdTarget@@UAEHPAU_GUID@@@Z
	DD	FLAT:?GetTypeInfoCount@CCmdTarget@@UAEIXZ
	DD	FLAT:?GetTypeLibCache@CCmdTarget@@UAEPAVCTypeLibCache@@XZ
	DD	FLAT:?GetTypeLib@CCmdTarget@@UAEJKPAPAUITypeLib@@@Z
	DD	FLAT:?GetMessageMap@CDlgDataListViewer@@MBEPBUAFX_MSGMAP@@XZ
	DD	FLAT:?GetCommandMap@CCmdTarget@@MBEPBUAFX_OLECMDMAP@@XZ
	DD	FLAT:?GetDispatchMap@CCmdTarget@@MBEPBUAFX_DISPMAP@@XZ
	DD	FLAT:?GetConnectionMap@CCmdTarget@@MBEPBUAFX_CONNECTIONMAP@@XZ
	DD	FLAT:?GetInterfaceMap@CWnd@@MBEPBUAFX_INTERFACEMAP@@XZ
	DD	FLAT:?GetEventSinkMap@CCmdTarget@@MBEPBUAFX_EVENTSINKMAP@@XZ
	DD	FLAT:?OnCreateAggregates@CCmdTarget@@UAEHXZ
	DD	FLAT:?GetInterfaceHook@CCmdTarget@@UAEPAUIUnknown@@PBX@Z
	DD	FLAT:?GetExtraConnectionPoints@CCmdTarget@@MAEHPAVCPtrArray@@@Z
	DD	FLAT:?GetConnectionHook@CCmdTarget@@MAEPAUIConnectionPoint@@ABU_GUID@@@Z
	DD	FLAT:?PreSubclassWindow@CWnd@@UAEXXZ
	DD	FLAT:?Create@CWnd@@UAEHPBD0KABUtagRECT@@PAV1@IPAUCCreateContext@@@Z
	DD	FLAT:?CreateEx@CWnd@@UAEHKPBD0KABUtagRECT@@PAV1@IPAX@Z
	DD	FLAT:?CreateEx@CWnd@@UAEHKPBD0KHHHHPAUHWND__@@PAUHMENU__@@PAX@Z
	DD	FLAT:?DestroyWindow@CWnd@@UAEHXZ
	DD	FLAT:?PreCreateWindow@CWnd@@UAEHAAUtagCREATESTRUCTA@@@Z
	DD	FLAT:?CalcWindowRect@CWnd@@UAEXPAUtagRECT@@I@Z
	DD	FLAT:?GetMenu@CWnd@@UBEPAVCMenu@@XZ
	DD	FLAT:?SetMenu@CWnd@@UAEHPAVCMenu@@@Z
	DD	FLAT:?OnToolHitTest@CWnd@@UBEHVCPoint@@PAUtagTOOLINFOA@@@Z
	DD	FLAT:?GetScrollBarCtrl@CWnd@@UBEPAVCScrollBar@@H@Z
	DD	FLAT:?WinHelpA@CWnd@@UAEXKI@Z
	DD	FLAT:?HtmlHelpA@CWnd@@UAEXKI@Z
	DD	FLAT:?WinHelpInternal@CWnd@@UAEXKI@Z
	DD	FLAT:?ContinueModal@CWnd@@UAEHXZ
	DD	FLAT:?EndModalLoop@CWnd@@UAEXH@Z
	DD	FLAT:?OnDrawIconicThumbnailOrLivePreview@CWnd@@UAEXAAVCDC@@VCRect@@VCSize@@HAAH@Z
	DD	FLAT:?EnsureStdObj@CWnd@@UAEJXZ
	DD	FLAT:?get_accParent@CWnd@@UAEJPAPAUIDispatch@@@Z
	DD	FLAT:?get_accChildCount@CWnd@@UAEJPAJ@Z
	DD	FLAT:?get_accChild@CWnd@@UAEJUtagVARIANT@@PAPAUIDispatch@@@Z
	DD	FLAT:?get_accName@CWnd@@UAEJUtagVARIANT@@PAPA_W@Z
	DD	FLAT:?get_accValue@CWnd@@UAEJUtagVARIANT@@PAPA_W@Z
	DD	FLAT:?get_accDescription@CWnd@@UAEJUtagVARIANT@@PAPA_W@Z
	DD	FLAT:?get_accRole@CWnd@@UAEJUtagVARIANT@@PAU2@@Z
	DD	FLAT:?get_accState@CWnd@@UAEJUtagVARIANT@@PAU2@@Z
	DD	FLAT:?get_accHelp@CWnd@@UAEJUtagVARIANT@@PAPA_W@Z
	DD	FLAT:?get_accHelpTopic@CWnd@@UAEJPAPA_WUtagVARIANT@@PAJ@Z
	DD	FLAT:?get_accKeyboardShortcut@CWnd@@UAEJUtagVARIANT@@PAPA_W@Z
	DD	FLAT:?get_accFocus@CWnd@@UAEJPAUtagVARIANT@@@Z
	DD	FLAT:?get_accSelection@CWnd@@UAEJPAUtagVARIANT@@@Z
	DD	FLAT:?get_accDefaultAction@CWnd@@UAEJUtagVARIANT@@PAPA_W@Z
	DD	FLAT:?accSelect@CWnd@@UAEJJUtagVARIANT@@@Z
	DD	FLAT:?accLocation@CWnd@@UAEJPAJ000UtagVARIANT@@@Z
	DD	FLAT:?accNavigate@CWnd@@UAEJJUtagVARIANT@@PAU2@@Z
	DD	FLAT:?accHitTest@CWnd@@UAEJJJPAUtagVARIANT@@@Z
	DD	FLAT:?accDoDefaultAction@CWnd@@UAEJUtagVARIANT@@@Z
	DD	FLAT:?put_accName@CWnd@@UAEJUtagVARIANT@@PA_W@Z
	DD	FLAT:?put_accValue@CWnd@@UAEJUtagVARIANT@@PA_W@Z
	DD	FLAT:?SetProxy@CWnd@@UAEJPAUIAccessibleProxy@@@Z
	DD	FLAT:?CreateAccessibleProxy@CWnd@@UAEJIJPAJ@Z
	DD	FLAT:?OnCommand@CWnd@@MAEHIJ@Z
	DD	FLAT:?OnNotify@CWnd@@MAEHIJPAJ@Z
	DD	FLAT:?GetSuperWndProcAddr@CWnd@@MAEPAP6GJPAUHWND__@@IIJ@ZXZ
	DD	FLAT:?DoDataExchange@CDlgDataListViewer@@MAEXPAVCDataExchange@@@Z
	DD	FLAT:?BeginModalState@CWnd@@UAEXXZ
	DD	FLAT:?EndModalState@CWnd@@UAEXXZ
	DD	FLAT:?PreTranslateMessage@CDialog@@UAEHPAUtagMSG@@@Z
	DD	FLAT:?OnAmbientProperty@CWnd@@UAEHPAVCOleControlSite@@JPAUtagVARIANT@@@Z
	DD	FLAT:?WindowProc@CWnd@@MAEJIIJ@Z
	DD	FLAT:?OnWndMsg@CWnd@@MAEHIIJPAJ@Z
	DD	FLAT:?DefWindowProcA@CWnd@@MAEJIIJ@Z
	DD	FLAT:?PostNcDestroy@CWnd@@MAEXXZ
	DD	FLAT:?OnChildNotify@CWnd@@MAEHIIJPAJ@Z
	DD	FLAT:?OnTouchInputs@CWnd@@MAEHIPAUtagTOUCHINPUT@@@Z
	DD	FLAT:?OnTouchInput@CWnd@@MAEHVCPoint@@HHPAUtagTOUCHINPUT@@@Z
	DD	FLAT:?GetGestureStatus@CWnd@@MAEKVCPoint@@@Z
	DD	FLAT:?OnGestureZoom@CWnd@@MAEHVCPoint@@J@Z
	DD	FLAT:?OnGesturePan@CWnd@@MAEHVCPoint@@0@Z
	DD	FLAT:?OnGestureRotate@CWnd@@MAEHVCPoint@@N@Z
	DD	FLAT:?OnGestureTwoFingerTap@CWnd@@MAEHVCPoint@@@Z
	DD	FLAT:?OnGesturePressAndTap@CWnd@@MAEHVCPoint@@J@Z
	DD	FLAT:?ResizeDynamicLayout@CWnd@@MAEXXZ
	DD	FLAT:?CheckAutoCenter@CDialog@@UAEHXZ
	DD	FLAT:?IsFrameWnd@CWnd@@UBEHXZ
	DD	FLAT:?CreateControlContainer@CWnd@@MAEHPAPAVCOleControlContainer@@@Z
	DD	FLAT:?CreateControlSite@CWnd@@MAEHPAVCOleControlContainer@@PAPAVCOleControlSite@@IABU_GUID@@@Z
	DD	FLAT:?SetOccDialogInfo@CDialog@@MAEHPAU_AFX_OCC_DIALOG_INFO@@@Z
	DD	FLAT:?GetOccDialogInfo@CDialog@@MAEPAU_AFX_OCC_DIALOG_INFO@@XZ
	DD	FLAT:?Create@CDialog@@UAEHIPAVCWnd@@@Z
	DD	FLAT:?Create@CDialog@@UAEHPBDPAVCWnd@@@Z
	DD	FLAT:?CreateIndirect@CDialog@@UAEHPAXPAVCWnd@@@Z
	DD	FLAT:?CreateIndirect@CDialog@@UAEHPBUDLGTEMPLATE@@PAVCWnd@@PAX@Z
	DD	FLAT:?DoModal@CDialog@@UAEHXZ
	DD	FLAT:?OnInitDialog@CDlgDataListViewer@@MAEHXZ
	DD	FLAT:?OnSetFont@CDialog@@UAEXPAVCFont@@@Z
	DD	FLAT:?OnOK@CDialog@@MAEXXZ
	DD	FLAT:?OnCancel@CDialog@@MAEXXZ
	DD	FLAT:?PreInitDialog@CDialog@@MAEXXZ
CONST	ENDS
;	COMDAT ??_7?$CArray@VCData@@V1@@@6B@
CONST	SEGMENT
??_7?$CArray@VCData@@V1@@@6B@ DD FLAT:??_R4?$CArray@VCData@@V1@@@6B@ ; CArray<CData,CData>::`vftable'
	DD	FLAT:?GetRuntimeClass@CObject@@UBEPAUCRuntimeClass@@XZ
	DD	FLAT:??_E?$CArray@VCData@@V1@@@UAEPAXI@Z
	DD	FLAT:?Serialize@?$CArray@VCData@@V1@@@UAEXAAVCArchive@@@Z
	DD	FLAT:?AssertValid@CObject@@UBEXXZ
	DD	FLAT:?Dump@CObject@@UBEXAAVCDumpContext@@@Z
CONST	ENDS
;	COMDAT ??_R1A@?0A@EA@CListCtrl@@8
rdata$r	SEGMENT
??_R1A@?0A@EA@CListCtrl@@8 DD FLAT:??_R0?AVCListCtrl@@@8 ; CListCtrl::`RTTI Base Class Descriptor at (0,-1,0,64)'
	DD	03H
	DD	00H
	DD	0ffffffffH
	DD	00H
	DD	040H
	DD	FLAT:??_R3CListCtrl@@8
rdata$r	ENDS
;	COMDAT ??_R2CListCtrl@@8
rdata$r	SEGMENT
??_R2CListCtrl@@8 DD FLAT:??_R1A@?0A@EA@CListCtrl@@8	; CListCtrl::`RTTI Base Class Array'
	DD	FLAT:??_R1A@?0A@EA@CWnd@@8
	DD	FLAT:??_R1A@?0A@EA@CCmdTarget@@8
	DD	FLAT:??_R1A@?0A@EA@CObject@@8
rdata$r	ENDS
;	COMDAT ??_R3CListCtrl@@8
rdata$r	SEGMENT
??_R3CListCtrl@@8 DD 00H				; CListCtrl::`RTTI Class Hierarchy Descriptor'
	DD	00H
	DD	04H
	DD	FLAT:??_R2CListCtrl@@8
rdata$r	ENDS
;	COMDAT ??_R0?AVCListCtrl@@@8
data$rs	SEGMENT
??_R0?AVCListCtrl@@@8 DD FLAT:??_7type_info@@6B@	; CListCtrl `RTTI Type Descriptor'
	DD	00H
	DB	'.?AVCListCtrl@@', 00H
data$rs	ENDS
;	COMDAT ??_R4CListCtrl@@6B@
rdata$r	SEGMENT
??_R4CListCtrl@@6B@ DD 00H				; CListCtrl::`RTTI Complete Object Locator'
	DD	00H
	DD	00H
	DD	FLAT:??_R0?AVCListCtrl@@@8
	DD	FLAT:??_R3CListCtrl@@8
rdata$r	ENDS
;	COMDAT ??_R2CDialog@@8
rdata$r	SEGMENT
??_R2CDialog@@8 DD FLAT:??_R1A@?0A@EA@CDialog@@8	; CDialog::`RTTI Base Class Array'
	DD	FLAT:??_R1A@?0A@EA@CWnd@@8
	DD	FLAT:??_R1A@?0A@EA@CCmdTarget@@8
	DD	FLAT:??_R1A@?0A@EA@CObject@@8
rdata$r	ENDS
;	COMDAT ??_R3CDialog@@8
rdata$r	SEGMENT
??_R3CDialog@@8 DD 00H					; CDialog::`RTTI Class Hierarchy Descriptor'
	DD	00H
	DD	04H
	DD	FLAT:??_R2CDialog@@8
rdata$r	ENDS
;	COMDAT ??_R0?AVCDialog@@@8
data$rs	SEGMENT
??_R0?AVCDialog@@@8 DD FLAT:??_7type_info@@6B@		; CDialog `RTTI Type Descriptor'
	DD	00H
	DB	'.?AVCDialog@@', 00H
data$rs	ENDS
;	COMDAT ??_R1A@?0A@EA@CDialog@@8
rdata$r	SEGMENT
??_R1A@?0A@EA@CDialog@@8 DD FLAT:??_R0?AVCDialog@@@8	; CDialog::`RTTI Base Class Descriptor at (0,-1,0,64)'
	DD	03H
	DD	00H
	DD	0ffffffffH
	DD	00H
	DD	040H
	DD	FLAT:??_R3CDialog@@8
rdata$r	ENDS
;	COMDAT ??_R1A@?0A@EA@CButton@@8
rdata$r	SEGMENT
??_R1A@?0A@EA@CButton@@8 DD FLAT:??_R0?AVCButton@@@8	; CButton::`RTTI Base Class Descriptor at (0,-1,0,64)'
	DD	03H
	DD	00H
	DD	0ffffffffH
	DD	00H
	DD	040H
	DD	FLAT:??_R3CButton@@8
rdata$r	ENDS
;	COMDAT ??_R2CButton@@8
rdata$r	SEGMENT
??_R2CButton@@8 DD FLAT:??_R1A@?0A@EA@CButton@@8	; CButton::`RTTI Base Class Array'
	DD	FLAT:??_R1A@?0A@EA@CWnd@@8
	DD	FLAT:??_R1A@?0A@EA@CCmdTarget@@8
	DD	FLAT:??_R1A@?0A@EA@CObject@@8
rdata$r	ENDS
;	COMDAT ??_R3CButton@@8
rdata$r	SEGMENT
??_R3CButton@@8 DD 00H					; CButton::`RTTI Class Hierarchy Descriptor'
	DD	00H
	DD	04H
	DD	FLAT:??_R2CButton@@8
rdata$r	ENDS
;	COMDAT ??_R0?AVCButton@@@8
data$rs	SEGMENT
??_R0?AVCButton@@@8 DD FLAT:??_7type_info@@6B@		; CButton `RTTI Type Descriptor'
	DD	00H
	DB	'.?AVCButton@@', 00H
data$rs	ENDS
;	COMDAT ??_R4CButton@@6B@
rdata$r	SEGMENT
??_R4CButton@@6B@ DD 00H				; CButton::`RTTI Complete Object Locator'
	DD	00H
	DD	00H
	DD	FLAT:??_R0?AVCButton@@@8
	DD	FLAT:??_R3CButton@@8
rdata$r	ENDS
;	COMDAT ??_R2CCmdTarget@@8
rdata$r	SEGMENT
??_R2CCmdTarget@@8 DD FLAT:??_R1A@?0A@EA@CCmdTarget@@8	; CCmdTarget::`RTTI Base Class Array'
	DD	FLAT:??_R1A@?0A@EA@CObject@@8
rdata$r	ENDS
;	COMDAT ??_R3CCmdTarget@@8
rdata$r	SEGMENT
??_R3CCmdTarget@@8 DD 00H				; CCmdTarget::`RTTI Class Hierarchy Descriptor'
	DD	00H
	DD	02H
	DD	FLAT:??_R2CCmdTarget@@8
rdata$r	ENDS
;	COMDAT ??_R0?AVCCmdTarget@@@8
data$rs	SEGMENT
??_R0?AVCCmdTarget@@@8 DD FLAT:??_7type_info@@6B@	; CCmdTarget `RTTI Type Descriptor'
	DD	00H
	DB	'.?AVCCmdTarget@@', 00H
data$rs	ENDS
;	COMDAT ??_R1A@?0A@EA@CCmdTarget@@8
rdata$r	SEGMENT
??_R1A@?0A@EA@CCmdTarget@@8 DD FLAT:??_R0?AVCCmdTarget@@@8 ; CCmdTarget::`RTTI Base Class Descriptor at (0,-1,0,64)'
	DD	01H
	DD	00H
	DD	0ffffffffH
	DD	00H
	DD	040H
	DD	FLAT:??_R3CCmdTarget@@8
rdata$r	ENDS
;	COMDAT ??_R2CWnd@@8
rdata$r	SEGMENT
??_R2CWnd@@8 DD	FLAT:??_R1A@?0A@EA@CWnd@@8		; CWnd::`RTTI Base Class Array'
	DD	FLAT:??_R1A@?0A@EA@CCmdTarget@@8
	DD	FLAT:??_R1A@?0A@EA@CObject@@8
rdata$r	ENDS
;	COMDAT ??_R3CWnd@@8
rdata$r	SEGMENT
??_R3CWnd@@8 DD	00H					; CWnd::`RTTI Class Hierarchy Descriptor'
	DD	00H
	DD	03H
	DD	FLAT:??_R2CWnd@@8
rdata$r	ENDS
;	COMDAT ??_R0?AVCWnd@@@8
data$rs	SEGMENT
??_R0?AVCWnd@@@8 DD FLAT:??_7type_info@@6B@		; CWnd `RTTI Type Descriptor'
	DD	00H
	DB	'.?AVCWnd@@', 00H
data$rs	ENDS
;	COMDAT ??_R1A@?0A@EA@CWnd@@8
rdata$r	SEGMENT
??_R1A@?0A@EA@CWnd@@8 DD FLAT:??_R0?AVCWnd@@@8		; CWnd::`RTTI Base Class Descriptor at (0,-1,0,64)'
	DD	02H
	DD	00H
	DD	0ffffffffH
	DD	00H
	DD	040H
	DD	FLAT:??_R3CWnd@@8
rdata$r	ENDS
;	COMDAT ??_R1A@?0A@EA@CBrush@@8
rdata$r	SEGMENT
??_R1A@?0A@EA@CBrush@@8 DD FLAT:??_R0?AVCBrush@@@8	; CBrush::`RTTI Base Class Descriptor at (0,-1,0,64)'
	DD	02H
	DD	00H
	DD	0ffffffffH
	DD	00H
	DD	040H
	DD	FLAT:??_R3CBrush@@8
rdata$r	ENDS
;	COMDAT ??_R2CBrush@@8
rdata$r	SEGMENT
??_R2CBrush@@8 DD FLAT:??_R1A@?0A@EA@CBrush@@8		; CBrush::`RTTI Base Class Array'
	DD	FLAT:??_R1A@?0A@EA@CGdiObject@@8
	DD	FLAT:??_R1A@?0A@EA@CObject@@8
rdata$r	ENDS
;	COMDAT ??_R3CBrush@@8
rdata$r	SEGMENT
??_R3CBrush@@8 DD 00H					; CBrush::`RTTI Class Hierarchy Descriptor'
	DD	00H
	DD	03H
	DD	FLAT:??_R2CBrush@@8
rdata$r	ENDS
;	COMDAT ??_R0?AVCBrush@@@8
data$rs	SEGMENT
??_R0?AVCBrush@@@8 DD FLAT:??_7type_info@@6B@		; CBrush `RTTI Type Descriptor'
	DD	00H
	DB	'.?AVCBrush@@', 00H
data$rs	ENDS
;	COMDAT ??_R4CBrush@@6B@
rdata$r	SEGMENT
??_R4CBrush@@6B@ DD 00H					; CBrush::`RTTI Complete Object Locator'
	DD	00H
	DD	00H
	DD	FLAT:??_R0?AVCBrush@@@8
	DD	FLAT:??_R3CBrush@@8
rdata$r	ENDS
;	COMDAT ??_R1A@?0A@EA@CGdiObject@@8
rdata$r	SEGMENT
??_R1A@?0A@EA@CGdiObject@@8 DD FLAT:??_R0?AVCGdiObject@@@8 ; CGdiObject::`RTTI Base Class Descriptor at (0,-1,0,64)'
	DD	01H
	DD	00H
	DD	0ffffffffH
	DD	00H
	DD	040H
	DD	FLAT:??_R3CGdiObject@@8
rdata$r	ENDS
;	COMDAT ??_R2CGdiObject@@8
rdata$r	SEGMENT
??_R2CGdiObject@@8 DD FLAT:??_R1A@?0A@EA@CGdiObject@@8	; CGdiObject::`RTTI Base Class Array'
	DD	FLAT:??_R1A@?0A@EA@CObject@@8
rdata$r	ENDS
;	COMDAT ??_R3CGdiObject@@8
rdata$r	SEGMENT
??_R3CGdiObject@@8 DD 00H				; CGdiObject::`RTTI Class Hierarchy Descriptor'
	DD	00H
	DD	02H
	DD	FLAT:??_R2CGdiObject@@8
rdata$r	ENDS
;	COMDAT ??_R0?AVCGdiObject@@@8
data$rs	SEGMENT
??_R0?AVCGdiObject@@@8 DD FLAT:??_7type_info@@6B@	; CGdiObject `RTTI Type Descriptor'
	DD	00H
	DB	'.?AVCGdiObject@@', 00H
data$rs	ENDS
;	COMDAT ??_R4CGdiObject@@6B@
rdata$r	SEGMENT
??_R4CGdiObject@@6B@ DD 00H				; CGdiObject::`RTTI Complete Object Locator'
	DD	00H
	DD	00H
	DD	FLAT:??_R0?AVCGdiObject@@@8
	DD	FLAT:??_R3CGdiObject@@8
rdata$r	ENDS
;	COMDAT ??_R1A@?0A@EA@CFileException@@8
rdata$r	SEGMENT
??_R1A@?0A@EA@CFileException@@8 DD FLAT:??_R0?AVCFileException@@@8 ; CFileException::`RTTI Base Class Descriptor at (0,-1,0,64)'
	DD	02H
	DD	00H
	DD	0ffffffffH
	DD	00H
	DD	040H
	DD	FLAT:??_R3CFileException@@8
rdata$r	ENDS
;	COMDAT ??_R2CFileException@@8
rdata$r	SEGMENT
??_R2CFileException@@8 DD FLAT:??_R1A@?0A@EA@CFileException@@8 ; CFileException::`RTTI Base Class Array'
	DD	FLAT:??_R1A@?0A@EA@CException@@8
	DD	FLAT:??_R1A@?0A@EA@CObject@@8
rdata$r	ENDS
;	COMDAT ??_R3CFileException@@8
rdata$r	SEGMENT
??_R3CFileException@@8 DD 00H				; CFileException::`RTTI Class Hierarchy Descriptor'
	DD	00H
	DD	03H
	DD	FLAT:??_R2CFileException@@8
rdata$r	ENDS
;	COMDAT ??_R0?AVCFileException@@@8
data$rs	SEGMENT
??_R0?AVCFileException@@@8 DD FLAT:??_7type_info@@6B@	; CFileException `RTTI Type Descriptor'
	DD	00H
	DB	'.?AVCFileException@@', 00H
data$rs	ENDS
;	COMDAT ??_R4CFileException@@6B@
rdata$r	SEGMENT
??_R4CFileException@@6B@ DD 00H				; CFileException::`RTTI Complete Object Locator'
	DD	00H
	DD	00H
	DD	FLAT:??_R0?AVCFileException@@@8
	DD	FLAT:??_R3CFileException@@8
rdata$r	ENDS
;	COMDAT ??_R1A@?0A@EA@CException@@8
rdata$r	SEGMENT
??_R1A@?0A@EA@CException@@8 DD FLAT:??_R0?AVCException@@@8 ; CException::`RTTI Base Class Descriptor at (0,-1,0,64)'
	DD	01H
	DD	00H
	DD	0ffffffffH
	DD	00H
	DD	040H
	DD	FLAT:??_R3CException@@8
rdata$r	ENDS
;	COMDAT ??_R2CException@@8
rdata$r	SEGMENT
??_R2CException@@8 DD FLAT:??_R1A@?0A@EA@CException@@8	; CException::`RTTI Base Class Array'
	DD	FLAT:??_R1A@?0A@EA@CObject@@8
rdata$r	ENDS
;	COMDAT ??_R3CException@@8
rdata$r	SEGMENT
??_R3CException@@8 DD 00H				; CException::`RTTI Class Hierarchy Descriptor'
	DD	00H
	DD	02H
	DD	FLAT:??_R2CException@@8
rdata$r	ENDS
;	COMDAT ??_R0?AVCException@@@8
data$rs	SEGMENT
??_R0?AVCException@@@8 DD FLAT:??_7type_info@@6B@	; CException `RTTI Type Descriptor'
	DD	00H
	DB	'.?AVCException@@', 00H
data$rs	ENDS
;	COMDAT ??_R1A@?0A@EA@CObject@@8
rdata$r	SEGMENT
??_R1A@?0A@EA@CObject@@8 DD FLAT:??_R0?AVCObject@@@8	; CObject::`RTTI Base Class Descriptor at (0,-1,0,64)'
	DD	00H
	DD	00H
	DD	0ffffffffH
	DD	00H
	DD	040H
	DD	FLAT:??_R3CObject@@8
rdata$r	ENDS
;	COMDAT ??_R2CObject@@8
rdata$r	SEGMENT
??_R2CObject@@8 DD FLAT:??_R1A@?0A@EA@CObject@@8	; CObject::`RTTI Base Class Array'
rdata$r	ENDS
;	COMDAT ??_R3CObject@@8
rdata$r	SEGMENT
??_R3CObject@@8 DD 00H					; CObject::`RTTI Class Hierarchy Descriptor'
	DD	00H
	DD	01H
	DD	FLAT:??_R2CObject@@8
rdata$r	ENDS
;	COMDAT ??_R0?AVCObject@@@8
data$rs	SEGMENT
??_R0?AVCObject@@@8 DD FLAT:??_7type_info@@6B@		; CObject `RTTI Type Descriptor'
	DD	00H
	DB	'.?AVCObject@@', 00H
data$rs	ENDS
;	COMDAT ??_7CListCtrl@@6B@
CONST	SEGMENT
??_7CListCtrl@@6B@ DD FLAT:??_R4CListCtrl@@6B@		; CListCtrl::`vftable'
	DD	FLAT:?GetRuntimeClass@CListCtrl@@UBEPAUCRuntimeClass@@XZ
	DD	FLAT:??_ECListCtrl@@UAEPAXI@Z
	DD	FLAT:?Serialize@CObject@@UAEXAAVCArchive@@@Z
	DD	FLAT:?AssertValid@CObject@@UBEXXZ
	DD	FLAT:?Dump@CObject@@UBEXAAVCDumpContext@@@Z
	DD	FLAT:?OnCmdMsg@CCmdTarget@@UAEHIHPAXPAUAFX_CMDHANDLERINFO@@@Z
	DD	FLAT:?OnFinalRelease@CWnd@@UAEXXZ
	DD	FLAT:?IsInvokeAllowed@CCmdTarget@@UAEHJ@Z
	DD	FLAT:?GetDispatchIID@CCmdTarget@@UAEHPAU_GUID@@@Z
	DD	FLAT:?GetTypeInfoCount@CCmdTarget@@UAEIXZ
	DD	FLAT:?GetTypeLibCache@CCmdTarget@@UAEPAVCTypeLibCache@@XZ
	DD	FLAT:?GetTypeLib@CCmdTarget@@UAEJKPAPAUITypeLib@@@Z
	DD	FLAT:?GetMessageMap@CListCtrl@@MBEPBUAFX_MSGMAP@@XZ
	DD	FLAT:?GetCommandMap@CCmdTarget@@MBEPBUAFX_OLECMDMAP@@XZ
	DD	FLAT:?GetDispatchMap@CCmdTarget@@MBEPBUAFX_DISPMAP@@XZ
	DD	FLAT:?GetConnectionMap@CCmdTarget@@MBEPBUAFX_CONNECTIONMAP@@XZ
	DD	FLAT:?GetInterfaceMap@CWnd@@MBEPBUAFX_INTERFACEMAP@@XZ
	DD	FLAT:?GetEventSinkMap@CCmdTarget@@MBEPBUAFX_EVENTSINKMAP@@XZ
	DD	FLAT:?OnCreateAggregates@CCmdTarget@@UAEHXZ
	DD	FLAT:?GetInterfaceHook@CCmdTarget@@UAEPAUIUnknown@@PBX@Z
	DD	FLAT:?GetExtraConnectionPoints@CCmdTarget@@MAEHPAVCPtrArray@@@Z
	DD	FLAT:?GetConnectionHook@CCmdTarget@@MAEPAUIConnectionPoint@@ABU_GUID@@@Z
	DD	FLAT:?PreSubclassWindow@CWnd@@UAEXXZ
	DD	FLAT:?Create@CWnd@@UAEHPBD0KABUtagRECT@@PAV1@IPAUCCreateContext@@@Z
	DD	FLAT:?CreateEx@CWnd@@UAEHKPBD0KABUtagRECT@@PAV1@IPAX@Z
	DD	FLAT:?CreateEx@CWnd@@UAEHKPBD0KHHHHPAUHWND__@@PAUHMENU__@@PAX@Z
	DD	FLAT:?DestroyWindow@CWnd@@UAEHXZ
	DD	FLAT:?PreCreateWindow@CWnd@@UAEHAAUtagCREATESTRUCTA@@@Z
	DD	FLAT:?CalcWindowRect@CWnd@@UAEXPAUtagRECT@@I@Z
	DD	FLAT:?GetMenu@CWnd@@UBEPAVCMenu@@XZ
	DD	FLAT:?SetMenu@CWnd@@UAEHPAVCMenu@@@Z
	DD	FLAT:?OnToolHitTest@CWnd@@UBEHVCPoint@@PAUtagTOOLINFOA@@@Z
	DD	FLAT:?GetScrollBarCtrl@CWnd@@UBEPAVCScrollBar@@H@Z
	DD	FLAT:?WinHelpA@CWnd@@UAEXKI@Z
	DD	FLAT:?HtmlHelpA@CWnd@@UAEXKI@Z
	DD	FLAT:?WinHelpInternal@CWnd@@UAEXKI@Z
	DD	FLAT:?ContinueModal@CWnd@@UAEHXZ
	DD	FLAT:?EndModalLoop@CWnd@@UAEXH@Z
	DD	FLAT:?OnDrawIconicThumbnailOrLivePreview@CWnd@@UAEXAAVCDC@@VCRect@@VCSize@@HAAH@Z
	DD	FLAT:?EnsureStdObj@CWnd@@UAEJXZ
	DD	FLAT:?get_accParent@CWnd@@UAEJPAPAUIDispatch@@@Z
	DD	FLAT:?get_accChildCount@CWnd@@UAEJPAJ@Z
	DD	FLAT:?get_accChild@CWnd@@UAEJUtagVARIANT@@PAPAUIDispatch@@@Z
	DD	FLAT:?get_accName@CWnd@@UAEJUtagVARIANT@@PAPA_W@Z
	DD	FLAT:?get_accValue@CWnd@@UAEJUtagVARIANT@@PAPA_W@Z
	DD	FLAT:?get_accDescription@CWnd@@UAEJUtagVARIANT@@PAPA_W@Z
	DD	FLAT:?get_accRole@CWnd@@UAEJUtagVARIANT@@PAU2@@Z
	DD	FLAT:?get_accState@CWnd@@UAEJUtagVARIANT@@PAU2@@Z
	DD	FLAT:?get_accHelp@CWnd@@UAEJUtagVARIANT@@PAPA_W@Z
	DD	FLAT:?get_accHelpTopic@CWnd@@UAEJPAPA_WUtagVARIANT@@PAJ@Z
	DD	FLAT:?get_accKeyboardShortcut@CWnd@@UAEJUtagVARIANT@@PAPA_W@Z
	DD	FLAT:?get_accFocus@CWnd@@UAEJPAUtagVARIANT@@@Z
	DD	FLAT:?get_accSelection@CWnd@@UAEJPAUtagVARIANT@@@Z
	DD	FLAT:?get_accDefaultAction@CWnd@@UAEJUtagVARIANT@@PAPA_W@Z
	DD	FLAT:?accSelect@CWnd@@UAEJJUtagVARIANT@@@Z
	DD	FLAT:?accLocation@CWnd@@UAEJPAJ000UtagVARIANT@@@Z
	DD	FLAT:?accNavigate@CWnd@@UAEJJUtagVARIANT@@PAU2@@Z
	DD	FLAT:?accHitTest@CWnd@@UAEJJJPAUtagVARIANT@@@Z
	DD	FLAT:?accDoDefaultAction@CWnd@@UAEJUtagVARIANT@@@Z
	DD	FLAT:?put_accName@CWnd@@UAEJUtagVARIANT@@PA_W@Z
	DD	FLAT:?put_accValue@CWnd@@UAEJUtagVARIANT@@PA_W@Z
	DD	FLAT:?SetProxy@CWnd@@UAEJPAUIAccessibleProxy@@@Z
	DD	FLAT:?CreateAccessibleProxy@CWnd@@UAEJIJPAJ@Z
	DD	FLAT:?OnCommand@CWnd@@MAEHIJ@Z
	DD	FLAT:?OnNotify@CWnd@@MAEHIJPAJ@Z
	DD	FLAT:?GetSuperWndProcAddr@CWnd@@MAEPAP6GJPAUHWND__@@IIJ@ZXZ
	DD	FLAT:?DoDataExchange@CWnd@@MAEXPAVCDataExchange@@@Z
	DD	FLAT:?BeginModalState@CWnd@@UAEXXZ
	DD	FLAT:?EndModalState@CWnd@@UAEXXZ
	DD	FLAT:?PreTranslateMessage@CWnd@@UAEHPAUtagMSG@@@Z
	DD	FLAT:?OnAmbientProperty@CWnd@@UAEHPAVCOleControlSite@@JPAUtagVARIANT@@@Z
	DD	FLAT:?WindowProc@CWnd@@MAEJIIJ@Z
	DD	FLAT:?OnWndMsg@CWnd@@MAEHIIJPAJ@Z
	DD	FLAT:?DefWindowProcA@CWnd@@MAEJIIJ@Z
	DD	FLAT:?PostNcDestroy@CWnd@@MAEXXZ
	DD	FLAT:?OnChildNotify@CListCtrl@@MAEHIIJPAJ@Z
	DD	FLAT:?OnTouchInputs@CWnd@@MAEHIPAUtagTOUCHINPUT@@@Z
	DD	FLAT:?OnTouchInput@CWnd@@MAEHVCPoint@@HHPAUtagTOUCHINPUT@@@Z
	DD	FLAT:?GetGestureStatus@CWnd@@MAEKVCPoint@@@Z
	DD	FLAT:?OnGestureZoom@CWnd@@MAEHVCPoint@@J@Z
	DD	FLAT:?OnGesturePan@CWnd@@MAEHVCPoint@@0@Z
	DD	FLAT:?OnGestureRotate@CWnd@@MAEHVCPoint@@N@Z
	DD	FLAT:?OnGestureTwoFingerTap@CWnd@@MAEHVCPoint@@@Z
	DD	FLAT:?OnGesturePressAndTap@CWnd@@MAEHVCPoint@@J@Z
	DD	FLAT:?ResizeDynamicLayout@CWnd@@MAEXXZ
	DD	FLAT:?CheckAutoCenter@CWnd@@UAEHXZ
	DD	FLAT:?IsFrameWnd@CWnd@@UBEHXZ
	DD	FLAT:?CreateControlContainer@CWnd@@MAEHPAPAVCOleControlContainer@@@Z
	DD	FLAT:?CreateControlSite@CWnd@@MAEHPAVCOleControlContainer@@PAPAVCOleControlSite@@IABU_GUID@@@Z
	DD	FLAT:?SetOccDialogInfo@CWnd@@MAEHPAU_AFX_OCC_DIALOG_INFO@@@Z
	DD	FLAT:?GetOccDialogInfo@CWnd@@MAEPAU_AFX_OCC_DIALOG_INFO@@XZ
	DD	FLAT:?DrawItem@CListCtrl@@UAEXPAUtagDRAWITEMSTRUCT@@@Z
CONST	ENDS
;	COMDAT ??_C@_0N@OMEMOKLE@?$CFTs?5?$CI?$CFTs?3?$CFd?$CJ@
CONST	SEGMENT
??_C@_0N@OMEMOKLE@?$CFTs?5?$CI?$CFTs?3?$CFd?$CJ@ DB '%Ts (%Ts:%d)', 00H ; `string'
CONST	ENDS
;	COMDAT ??_C@_0BB@HBOOMJBF@?$CFTs?5?$CI?$CFTs?3?$CFd?$CJ?6?$CFTs@
CONST	SEGMENT
??_C@_0BB@HBOOMJBF@?$CFTs?5?$CI?$CFTs?3?$CFd?$CJ?6?$CFTs@ DB '%Ts (%Ts:%d'
	DB	')', 0aH, '%Ts', 00H				; `string'
CONST	ENDS
;	COMDAT ??_C@_0BP@OIEOKIDM@Exception?5thrown?5in?5destructor@
CONST	SEGMENT
??_C@_0BP@OIEOKIDM@Exception?5thrown?5in?5destructor@ DB 'Exception throw'
	DB	'n in destructor', 00H			; `string'
CONST	ENDS
;	COMDAT ??_C@_0HD@JJCHHHNK@C?3?2Program?5Files?5?$CIx86?$CJ?2Microsof@
CONST	SEGMENT
??_C@_0HD@JJCHHHNK@C?3?2Program?5Files?5?$CIx86?$CJ?2Microsof@ DB 'C:\Pro'
	DB	'gram Files (x86)\Microsoft Visual Studio\2019\Community\VC\To'
	DB	'ols\MSVC\14.29.30133\atlmfc\include\afxwin1.inl', 00H ; `string'
CONST	ENDS
;	COMDAT ??_7CButton@@6B@
CONST	SEGMENT
??_7CButton@@6B@ DD FLAT:??_R4CButton@@6B@		; CButton::`vftable'
	DD	FLAT:?GetRuntimeClass@CButton@@UBEPAUCRuntimeClass@@XZ
	DD	FLAT:??_ECButton@@UAEPAXI@Z
	DD	FLAT:?Serialize@CObject@@UAEXAAVCArchive@@@Z
	DD	FLAT:?AssertValid@CObject@@UBEXXZ
	DD	FLAT:?Dump@CObject@@UBEXAAVCDumpContext@@@Z
	DD	FLAT:?OnCmdMsg@CCmdTarget@@UAEHIHPAXPAUAFX_CMDHANDLERINFO@@@Z
	DD	FLAT:?OnFinalRelease@CWnd@@UAEXXZ
	DD	FLAT:?IsInvokeAllowed@CCmdTarget@@UAEHJ@Z
	DD	FLAT:?GetDispatchIID@CCmdTarget@@UAEHPAU_GUID@@@Z
	DD	FLAT:?GetTypeInfoCount@CCmdTarget@@UAEIXZ
	DD	FLAT:?GetTypeLibCache@CCmdTarget@@UAEPAVCTypeLibCache@@XZ
	DD	FLAT:?GetTypeLib@CCmdTarget@@UAEJKPAPAUITypeLib@@@Z
	DD	FLAT:?GetMessageMap@CWnd@@MBEPBUAFX_MSGMAP@@XZ
	DD	FLAT:?GetCommandMap@CCmdTarget@@MBEPBUAFX_OLECMDMAP@@XZ
	DD	FLAT:?GetDispatchMap@CCmdTarget@@MBEPBUAFX_DISPMAP@@XZ
	DD	FLAT:?GetConnectionMap@CCmdTarget@@MBEPBUAFX_CONNECTIONMAP@@XZ
	DD	FLAT:?GetInterfaceMap@CWnd@@MBEPBUAFX_INTERFACEMAP@@XZ
	DD	FLAT:?GetEventSinkMap@CCmdTarget@@MBEPBUAFX_EVENTSINKMAP@@XZ
	DD	FLAT:?OnCreateAggregates@CCmdTarget@@UAEHXZ
	DD	FLAT:?GetInterfaceHook@CCmdTarget@@UAEPAUIUnknown@@PBX@Z
	DD	FLAT:?GetExtraConnectionPoints@CCmdTarget@@MAEHPAVCPtrArray@@@Z
	DD	FLAT:?GetConnectionHook@CCmdTarget@@MAEPAUIConnectionPoint@@ABU_GUID@@@Z
	DD	FLAT:?PreSubclassWindow@CWnd@@UAEXXZ
	DD	FLAT:?Create@CWnd@@UAEHPBD0KABUtagRECT@@PAV1@IPAUCCreateContext@@@Z
	DD	FLAT:?CreateEx@CWnd@@UAEHKPBD0KABUtagRECT@@PAV1@IPAX@Z
	DD	FLAT:?CreateEx@CWnd@@UAEHKPBD0KHHHHPAUHWND__@@PAUHMENU__@@PAX@Z
	DD	FLAT:?DestroyWindow@CWnd@@UAEHXZ
	DD	FLAT:?PreCreateWindow@CWnd@@UAEHAAUtagCREATESTRUCTA@@@Z
	DD	FLAT:?CalcWindowRect@CWnd@@UAEXPAUtagRECT@@I@Z
	DD	FLAT:?GetMenu@CWnd@@UBEPAVCMenu@@XZ
	DD	FLAT:?SetMenu@CWnd@@UAEHPAVCMenu@@@Z
	DD	FLAT:?OnToolHitTest@CWnd@@UBEHVCPoint@@PAUtagTOOLINFOA@@@Z
	DD	FLAT:?GetScrollBarCtrl@CWnd@@UBEPAVCScrollBar@@H@Z
	DD	FLAT:?WinHelpA@CWnd@@UAEXKI@Z
	DD	FLAT:?HtmlHelpA@CWnd@@UAEXKI@Z
	DD	FLAT:?WinHelpInternal@CWnd@@UAEXKI@Z
	DD	FLAT:?ContinueModal@CWnd@@UAEHXZ
	DD	FLAT:?EndModalLoop@CWnd@@UAEXH@Z
	DD	FLAT:?OnDrawIconicThumbnailOrLivePreview@CWnd@@UAEXAAVCDC@@VCRect@@VCSize@@HAAH@Z
	DD	FLAT:?EnsureStdObj@CWnd@@UAEJXZ
	DD	FLAT:?get_accParent@CWnd@@UAEJPAPAUIDispatch@@@Z
	DD	FLAT:?get_accChildCount@CWnd@@UAEJPAJ@Z
	DD	FLAT:?get_accChild@CWnd@@UAEJUtagVARIANT@@PAPAUIDispatch@@@Z
	DD	FLAT:?get_accName@CWnd@@UAEJUtagVARIANT@@PAPA_W@Z
	DD	FLAT:?get_accValue@CWnd@@UAEJUtagVARIANT@@PAPA_W@Z
	DD	FLAT:?get_accDescription@CWnd@@UAEJUtagVARIANT@@PAPA_W@Z
	DD	FLAT:?get_accRole@CWnd@@UAEJUtagVARIANT@@PAU2@@Z
	DD	FLAT:?get_accState@CWnd@@UAEJUtagVARIANT@@PAU2@@Z
	DD	FLAT:?get_accHelp@CWnd@@UAEJUtagVARIANT@@PAPA_W@Z
	DD	FLAT:?get_accHelpTopic@CWnd@@UAEJPAPA_WUtagVARIANT@@PAJ@Z
	DD	FLAT:?get_accKeyboardShortcut@CWnd@@UAEJUtagVARIANT@@PAPA_W@Z
	DD	FLAT:?get_accFocus@CWnd@@UAEJPAUtagVARIANT@@@Z
	DD	FLAT:?get_accSelection@CWnd@@UAEJPAUtagVARIANT@@@Z
	DD	FLAT:?get_accDefaultAction@CWnd@@UAEJUtagVARIANT@@PAPA_W@Z
	DD	FLAT:?accSelect@CWnd@@UAEJJUtagVARIANT@@@Z
	DD	FLAT:?accLocation@CWnd@@UAEJPAJ000UtagVARIANT@@@Z
	DD	FLAT:?accNavigate@CWnd@@UAEJJUtagVARIANT@@PAU2@@Z
	DD	FLAT:?accHitTest@CWnd@@UAEJJJPAUtagVARIANT@@@Z
	DD	FLAT:?accDoDefaultAction@CWnd@@UAEJUtagVARIANT@@@Z
	DD	FLAT:?put_accName@CWnd@@UAEJUtagVARIANT@@PA_W@Z
	DD	FLAT:?put_accValue@CWnd@@UAEJUtagVARIANT@@PA_W@Z
	DD	FLAT:?SetProxy@CWnd@@UAEJPAUIAccessibleProxy@@@Z
	DD	FLAT:?CreateAccessibleProxy@CWnd@@UAEJIJPAJ@Z
	DD	FLAT:?OnCommand@CWnd@@MAEHIJ@Z
	DD	FLAT:?OnNotify@CWnd@@MAEHIJPAJ@Z
	DD	FLAT:?GetSuperWndProcAddr@CWnd@@MAEPAP6GJPAUHWND__@@IIJ@ZXZ
	DD	FLAT:?DoDataExchange@CWnd@@MAEXPAVCDataExchange@@@Z
	DD	FLAT:?BeginModalState@CWnd@@UAEXXZ
	DD	FLAT:?EndModalState@CWnd@@UAEXXZ
	DD	FLAT:?PreTranslateMessage@CWnd@@UAEHPAUtagMSG@@@Z
	DD	FLAT:?OnAmbientProperty@CWnd@@UAEHPAVCOleControlSite@@JPAUtagVARIANT@@@Z
	DD	FLAT:?WindowProc@CWnd@@MAEJIIJ@Z
	DD	FLAT:?OnWndMsg@CWnd@@MAEHIIJPAJ@Z
	DD	FLAT:?DefWindowProcA@CWnd@@MAEJIIJ@Z
	DD	FLAT:?PostNcDestroy@CWnd@@MAEXXZ
	DD	FLAT:?OnChildNotify@CButton@@MAEHIIJPAJ@Z
	DD	FLAT:?OnTouchInputs@CWnd@@MAEHIPAUtagTOUCHINPUT@@@Z
	DD	FLAT:?OnTouchInput@CWnd@@MAEHVCPoint@@HHPAUtagTOUCHINPUT@@@Z
	DD	FLAT:?GetGestureStatus@CWnd@@MAEKVCPoint@@@Z
	DD	FLAT:?OnGestureZoom@CWnd@@MAEHVCPoint@@J@Z
	DD	FLAT:?OnGesturePan@CWnd@@MAEHVCPoint@@0@Z
	DD	FLAT:?OnGestureRotate@CWnd@@MAEHVCPoint@@N@Z
	DD	FLAT:?OnGestureTwoFingerTap@CWnd@@MAEHVCPoint@@@Z
	DD	FLAT:?OnGesturePressAndTap@CWnd@@MAEHVCPoint@@J@Z
	DD	FLAT:?ResizeDynamicLayout@CWnd@@MAEXXZ
	DD	FLAT:?CheckAutoCenter@CWnd@@UAEHXZ
	DD	FLAT:?IsFrameWnd@CWnd@@UBEHXZ
	DD	FLAT:?CreateControlContainer@CWnd@@MAEHPAPAVCOleControlContainer@@@Z
	DD	FLAT:?CreateControlSite@CWnd@@MAEHPAVCOleControlContainer@@PAPAVCOleControlSite@@IABU_GUID@@@Z
	DD	FLAT:?SetOccDialogInfo@CWnd@@MAEHPAU_AFX_OCC_DIALOG_INFO@@@Z
	DD	FLAT:?GetOccDialogInfo@CWnd@@MAEPAU_AFX_OCC_DIALOG_INFO@@XZ
	DD	FLAT:?Create@CButton@@UAEHPBDKABUtagRECT@@PAVCWnd@@I@Z
	DD	FLAT:?DrawItem@CButton@@UAEXPAUtagDRAWITEMSTRUCT@@@Z
CONST	ENDS
;	COMDAT ??_7CBrush@@6B@
CONST	SEGMENT
??_7CBrush@@6B@ DD FLAT:??_R4CBrush@@6B@		; CBrush::`vftable'
	DD	FLAT:?GetRuntimeClass@CBrush@@UBEPAUCRuntimeClass@@XZ
	DD	FLAT:??_ECBrush@@UAEPAXI@Z
	DD	FLAT:?Serialize@CObject@@UAEXAAVCArchive@@@Z
	DD	FLAT:?AssertValid@CObject@@UBEXXZ
	DD	FLAT:?Dump@CObject@@UBEXAAVCDumpContext@@@Z
CONST	ENDS
;	COMDAT ??_7CGdiObject@@6B@
CONST	SEGMENT
??_7CGdiObject@@6B@ DD FLAT:??_R4CGdiObject@@6B@	; CGdiObject::`vftable'
	DD	FLAT:?GetRuntimeClass@CGdiObject@@UBEPAUCRuntimeClass@@XZ
	DD	FLAT:??_ECGdiObject@@UAEPAXI@Z
	DD	FLAT:?Serialize@CObject@@UAEXAAVCArchive@@@Z
	DD	FLAT:?AssertValid@CObject@@UBEXXZ
	DD	FLAT:?Dump@CObject@@UBEXAAVCDumpContext@@@Z
CONST	ENDS
;	COMDAT ??_C@_00CNPNBAHC@@
CONST	SEGMENT
??_C@_00CNPNBAHC@@ DB 00H				; `string'
CONST	ENDS
;	COMDAT ??_7CFileException@@6B@
CONST	SEGMENT
??_7CFileException@@6B@ DD FLAT:??_R4CFileException@@6B@ ; CFileException::`vftable'
	DD	FLAT:?GetRuntimeClass@CFileException@@UBEPAUCRuntimeClass@@XZ
	DD	FLAT:??_ECFileException@@UAEPAXI@Z
	DD	FLAT:?Serialize@CObject@@UAEXAAVCArchive@@@Z
	DD	FLAT:?AssertValid@CObject@@UBEXXZ
	DD	FLAT:?Dump@CObject@@UBEXAAVCDumpContext@@@Z
	DD	FLAT:?GetErrorMessage@CException@@UAEHPADIPAI@Z
	DD	FLAT:?GetErrorMessage@CFileException@@UBEHPADIPAI@Z
	DD	FLAT:?ReportError@CException@@UAEHII@Z
CONST	ENDS
;	COMDAT ??_R0PAVCException@@@8
data$r	SEGMENT
??_R0PAVCException@@@8 DD FLAT:??_7type_info@@6B@	; CException * `RTTI Type Descriptor'
	DD	00H
	DB	'.PAVCException@@', 00H
data$r	ENDS
;	COMDAT xdata$x
xdata$x	SEGMENT
__unwindtable$??_GCDlgDataListViewer@@UAEPAXI@Z DD 0ffffffffH
	DD	FLAT:___std_terminate
__ehfuncinfo$??_GCDlgDataListViewer@@UAEPAXI@Z DD 019930522H
	DD	01H
	DD	FLAT:__unwindtable$??_GCDlgDataListViewer@@UAEPAXI@Z
	DD	2 DUP(00H)
	DD	2 DUP(00H)
	DD	00H
	DD	05H
xdata$x	ENDS
;	COMDAT xdata$x
xdata$x	SEGMENT
__unwindtable$?CommaStr@CDlgDataListViewer@@QAE?AV?$CStringT@DV?$StrTraitMFC_DLL@DV?$ChTraitsCRT@D@ATL@@@@@ATL@@V23@@Z DD 0ffffffffH
	DD	FLAT:__unwindfunclet$?CommaStr@CDlgDataListViewer@@QAE?AV?$CStringT@DV?$StrTraitMFC_DLL@DV?$ChTraitsCRT@D@ATL@@@@@ATL@@V23@@Z$1
	DD	00H
	DD	FLAT:__unwindfunclet$?CommaStr@CDlgDataListViewer@@QAE?AV?$CStringT@DV?$StrTraitMFC_DLL@DV?$ChTraitsCRT@D@ATL@@@@@ATL@@V23@@Z$0
	DD	01H
	DD	FLAT:__unwindfunclet$?CommaStr@CDlgDataListViewer@@QAE?AV?$CStringT@DV?$StrTraitMFC_DLL@DV?$ChTraitsCRT@D@ATL@@@@@ATL@@V23@@Z$2
__ehfuncinfo$?CommaStr@CDlgDataListViewer@@QAE?AV?$CStringT@DV?$StrTraitMFC_DLL@DV?$ChTraitsCRT@D@ATL@@@@@ATL@@V23@@Z DD 019930522H
	DD	03H
	DD	FLAT:__unwindtable$?CommaStr@CDlgDataListViewer@@QAE?AV?$CStringT@DV?$StrTraitMFC_DLL@DV?$ChTraitsCRT@D@ATL@@@@@ATL@@V23@@Z
	DD	2 DUP(00H)
	DD	2 DUP(00H)
	DD	00H
	DD	01H
xdata$x	ENDS
;	COMDAT xdata$x
xdata$x	SEGMENT
__ehfuncinfo$?GetMaxCount@CDlgDataListViewer@@QBEHXZ DD 019930522H
	DD	06H
	DD	FLAT:__unwindtable$?GetMaxCount@CDlgDataListViewer@@QBEHXZ
	DD	2 DUP(00H)
	DD	2 DUP(00H)
	DD	00H
	DD	01H
__unwindtable$?GetMaxCount@CDlgDataListViewer@@QBEHXZ DD 0ffffffffH
	DD	FLAT:__unwindfunclet$?GetMaxCount@CDlgDataListViewer@@QBEHXZ$0
	DD	00H
	DD	FLAT:__unwindfunclet$?GetMaxCount@CDlgDataListViewer@@QBEHXZ$1
	DD	01H
	DD	FLAT:__unwindfunclet$?GetMaxCount@CDlgDataListViewer@@QBEHXZ$2
	DD	02H
	DD	FLAT:__unwindfunclet$?GetMaxCount@CDlgDataListViewer@@QBEHXZ$3
	DD	01H
	DD	FLAT:__unwindfunclet$?GetMaxCount@CDlgDataListViewer@@QBEHXZ$4
	DD	04H
	DD	FLAT:__unwindfunclet$?GetMaxCount@CDlgDataListViewer@@QBEHXZ$5
xdata$x	ENDS
;	COMDAT xdata$x
xdata$x	SEGMENT
__ehfuncinfo$?InsertData_PacketSequence@CDlgDataListViewer@@QAEXXZ DD 019930522H
	DD	05H
	DD	FLAT:__unwindtable$?InsertData_PacketSequence@CDlgDataListViewer@@QAEXXZ
	DD	2 DUP(00H)
	DD	2 DUP(00H)
	DD	00H
	DD	01H
__unwindtable$?InsertData_PacketSequence@CDlgDataListViewer@@QAEXXZ DD 0ffffffffH
	DD	FLAT:__unwindfunclet$?InsertData_PacketSequence@CDlgDataListViewer@@QAEXXZ$0
	DD	00H
	DD	FLAT:__unwindfunclet$?InsertData_PacketSequence@CDlgDataListViewer@@QAEXXZ$1
	DD	01H
	DD	FLAT:__unwindfunclet$?InsertData_PacketSequence@CDlgDataListViewer@@QAEXXZ$2
	DD	00H
	DD	FLAT:__unwindfunclet$?InsertData_PacketSequence@CDlgDataListViewer@@QAEXXZ$3
	DD	03H
	DD	FLAT:__unwindfunclet$?InsertData_PacketSequence@CDlgDataListViewer@@QAEXXZ$4
xdata$x	ENDS
;	COMDAT xdata$x
xdata$x	SEGMENT
__unwindtable$?MakeHeader_PacketSequence@CDlgDataListViewer@@QAEXXZ DD 0ffffffffH
	DD	FLAT:__unwindfunclet$?MakeHeader_PacketSequence@CDlgDataListViewer@@QAEXXZ$0
	DD	00H
	DD	FLAT:__unwindfunclet$?MakeHeader_PacketSequence@CDlgDataListViewer@@QAEXXZ$1
	DD	01H
	DD	FLAT:__unwindfunclet$?MakeHeader_PacketSequence@CDlgDataListViewer@@QAEXXZ$2
	DD	02H
	DD	FLAT:__unwindfunclet$?MakeHeader_PacketSequence@CDlgDataListViewer@@QAEXXZ$3
__ehfuncinfo$?MakeHeader_PacketSequence@CDlgDataListViewer@@QAEXXZ DD 019930522H
	DD	04H
	DD	FLAT:__unwindtable$?MakeHeader_PacketSequence@CDlgDataListViewer@@QAEXXZ
	DD	2 DUP(00H)
	DD	2 DUP(00H)
	DD	00H
	DD	01H
xdata$x	ENDS
;	COMDAT xdata$x
xdata$x	SEGMENT
__ehfuncinfo$?Make_ListHeader@CDlgDataListViewer@@QAEXABV?$CStringT@DV?$StrTraitMFC_DLL@DV?$ChTraitsCRT@D@ATL@@@@@ATL@@0@Z DD 019930522H
	DD	031H
	DD	FLAT:__unwindtable$?Make_ListHeader@CDlgDataListViewer@@QAEXABV?$CStringT@DV?$StrTraitMFC_DLL@DV?$ChTraitsCRT@D@ATL@@@@@ATL@@0@Z
	DD	2 DUP(00H)
	DD	2 DUP(00H)
	DD	00H
	DD	01H
__unwindtable$?Make_ListHeader@CDlgDataListViewer@@QAEXABV?$CStringT@DV?$StrTraitMFC_DLL@DV?$ChTraitsCRT@D@ATL@@@@@ATL@@0@Z DD 0ffffffffH
	DD	FLAT:__unwindfunclet$?Make_ListHeader@CDlgDataListViewer@@QAEXABV?$CStringT@DV?$StrTraitMFC_DLL@DV?$ChTraitsCRT@D@ATL@@@@@ATL@@0@Z$0
	DD	00H
	DD	FLAT:__unwindfunclet$?Make_ListHeader@CDlgDataListViewer@@QAEXABV?$CStringT@DV?$StrTraitMFC_DLL@DV?$ChTraitsCRT@D@ATL@@@@@ATL@@0@Z$1
	DD	01H
	DD	FLAT:__unwindfunclet$?Make_ListHeader@CDlgDataListViewer@@QAEXABV?$CStringT@DV?$StrTraitMFC_DLL@DV?$ChTraitsCRT@D@ATL@@@@@ATL@@0@Z$2
	DD	01H
	DD	FLAT:__unwindfunclet$?Make_ListHeader@CDlgDataListViewer@@QAEXABV?$CStringT@DV?$StrTraitMFC_DLL@DV?$ChTraitsCRT@D@ATL@@@@@ATL@@0@Z$3
	DD	03H
	DD	FLAT:__unwindfunclet$?Make_ListHeader@CDlgDataListViewer@@QAEXABV?$CStringT@DV?$StrTraitMFC_DLL@DV?$ChTraitsCRT@D@ATL@@@@@ATL@@0@Z$4
	DD	04H
	DD	FLAT:__unwindfunclet$?Make_ListHeader@CDlgDataListViewer@@QAEXABV?$CStringT@DV?$StrTraitMFC_DLL@DV?$ChTraitsCRT@D@ATL@@@@@ATL@@0@Z$5
	DD	03H
	DD	FLAT:__unwindfunclet$?Make_ListHeader@CDlgDataListViewer@@QAEXABV?$CStringT@DV?$StrTraitMFC_DLL@DV?$ChTraitsCRT@D@ATL@@@@@ATL@@0@Z$5
	DD	06H
	DD	FLAT:__unwindfunclet$?Make_ListHeader@CDlgDataListViewer@@QAEXABV?$CStringT@DV?$StrTraitMFC_DLL@DV?$ChTraitsCRT@D@ATL@@@@@ATL@@0@Z$6
	DD	07H
	DD	FLAT:__unwindfunclet$?Make_ListHeader@CDlgDataListViewer@@QAEXABV?$CStringT@DV?$StrTraitMFC_DLL@DV?$ChTraitsCRT@D@ATL@@@@@ATL@@0@Z$7
	DD	08H
	DD	FLAT:__unwindfunclet$?Make_ListHeader@CDlgDataListViewer@@QAEXABV?$CStringT@DV?$StrTraitMFC_DLL@DV?$ChTraitsCRT@D@ATL@@@@@ATL@@0@Z$8
	DD	09H
	DD	FLAT:__unwindfunclet$?Make_ListHeader@CDlgDataListViewer@@QAEXABV?$CStringT@DV?$StrTraitMFC_DLL@DV?$ChTraitsCRT@D@ATL@@@@@ATL@@0@Z$9
	DD	0aH
	DD	FLAT:__unwindfunclet$?Make_ListHeader@CDlgDataListViewer@@QAEXABV?$CStringT@DV?$StrTraitMFC_DLL@DV?$ChTraitsCRT@D@ATL@@@@@ATL@@0@Z$10
	DD	0bH
	DD	FLAT:__unwindfunclet$?Make_ListHeader@CDlgDataListViewer@@QAEXABV?$CStringT@DV?$StrTraitMFC_DLL@DV?$ChTraitsCRT@D@ATL@@@@@ATL@@0@Z$11
	DD	0cH
	DD	FLAT:__unwindfunclet$?Make_ListHeader@CDlgDataListViewer@@QAEXABV?$CStringT@DV?$StrTraitMFC_DLL@DV?$ChTraitsCRT@D@ATL@@@@@ATL@@0@Z$47
	DD	0cH
	DD	FLAT:__unwindfunclet$?Make_ListHeader@CDlgDataListViewer@@QAEXABV?$CStringT@DV?$StrTraitMFC_DLL@DV?$ChTraitsCRT@D@ATL@@@@@ATL@@0@Z$13
	DD	0eH
	DD	FLAT:__unwindfunclet$?Make_ListHeader@CDlgDataListViewer@@QAEXABV?$CStringT@DV?$StrTraitMFC_DLL@DV?$ChTraitsCRT@D@ATL@@@@@ATL@@0@Z$48
	DD	0fH
	DD	FLAT:__unwindfunclet$?Make_ListHeader@CDlgDataListViewer@@QAEXABV?$CStringT@DV?$StrTraitMFC_DLL@DV?$ChTraitsCRT@D@ATL@@@@@ATL@@0@Z$15
	DD	0cH
	DD	FLAT:__unwindfunclet$?Make_ListHeader@CDlgDataListViewer@@QAEXABV?$CStringT@DV?$StrTraitMFC_DLL@DV?$ChTraitsCRT@D@ATL@@@@@ATL@@0@Z$49
	DD	0cH
	DD	FLAT:__unwindfunclet$?Make_ListHeader@CDlgDataListViewer@@QAEXABV?$CStringT@DV?$StrTraitMFC_DLL@DV?$ChTraitsCRT@D@ATL@@@@@ATL@@0@Z$17
	DD	012H
	DD	FLAT:__unwindfunclet$?Make_ListHeader@CDlgDataListViewer@@QAEXABV?$CStringT@DV?$StrTraitMFC_DLL@DV?$ChTraitsCRT@D@ATL@@@@@ATL@@0@Z$50
	DD	013H
	DD	FLAT:__unwindfunclet$?Make_ListHeader@CDlgDataListViewer@@QAEXABV?$CStringT@DV?$StrTraitMFC_DLL@DV?$ChTraitsCRT@D@ATL@@@@@ATL@@0@Z$19
	DD	0cH
	DD	FLAT:__unwindfunclet$?Make_ListHeader@CDlgDataListViewer@@QAEXABV?$CStringT@DV?$StrTraitMFC_DLL@DV?$ChTraitsCRT@D@ATL@@@@@ATL@@0@Z$51
	DD	0cH
	DD	FLAT:__unwindfunclet$?Make_ListHeader@CDlgDataListViewer@@QAEXABV?$CStringT@DV?$StrTraitMFC_DLL@DV?$ChTraitsCRT@D@ATL@@@@@ATL@@0@Z$21
	DD	016H
	DD	FLAT:__unwindfunclet$?Make_ListHeader@CDlgDataListViewer@@QAEXABV?$CStringT@DV?$StrTraitMFC_DLL@DV?$ChTraitsCRT@D@ATL@@@@@ATL@@0@Z$52
	DD	017H
	DD	FLAT:__unwindfunclet$?Make_ListHeader@CDlgDataListViewer@@QAEXABV?$CStringT@DV?$StrTraitMFC_DLL@DV?$ChTraitsCRT@D@ATL@@@@@ATL@@0@Z$23
	DD	0cH
	DD	FLAT:__unwindfunclet$?Make_ListHeader@CDlgDataListViewer@@QAEXABV?$CStringT@DV?$StrTraitMFC_DLL@DV?$ChTraitsCRT@D@ATL@@@@@ATL@@0@Z$53
	DD	0cH
	DD	FLAT:__unwindfunclet$?Make_ListHeader@CDlgDataListViewer@@QAEXABV?$CStringT@DV?$StrTraitMFC_DLL@DV?$ChTraitsCRT@D@ATL@@@@@ATL@@0@Z$25
	DD	01aH
	DD	FLAT:__unwindfunclet$?Make_ListHeader@CDlgDataListViewer@@QAEXABV?$CStringT@DV?$StrTraitMFC_DLL@DV?$ChTraitsCRT@D@ATL@@@@@ATL@@0@Z$54
	DD	01bH
	DD	FLAT:__unwindfunclet$?Make_ListHeader@CDlgDataListViewer@@QAEXABV?$CStringT@DV?$StrTraitMFC_DLL@DV?$ChTraitsCRT@D@ATL@@@@@ATL@@0@Z$27
	DD	0cH
	DD	FLAT:__unwindfunclet$?Make_ListHeader@CDlgDataListViewer@@QAEXABV?$CStringT@DV?$StrTraitMFC_DLL@DV?$ChTraitsCRT@D@ATL@@@@@ATL@@0@Z$28
	DD	08H
	DD	FLAT:___std_terminate
	DD	06H
	DD	FLAT:___std_terminate
	DD	06H
	DD	FLAT:__unwindfunclet$?Make_ListHeader@CDlgDataListViewer@@QAEXABV?$CStringT@DV?$StrTraitMFC_DLL@DV?$ChTraitsCRT@D@ATL@@@@@ATL@@0@Z$31
	DD	020H
	DD	FLAT:__unwindfunclet$?Make_ListHeader@CDlgDataListViewer@@QAEXABV?$CStringT@DV?$StrTraitMFC_DLL@DV?$ChTraitsCRT@D@ATL@@@@@ATL@@0@Z$32
	DD	06H
	DD	FLAT:__unwindfunclet$?Make_ListHeader@CDlgDataListViewer@@QAEXABV?$CStringT@DV?$StrTraitMFC_DLL@DV?$ChTraitsCRT@D@ATL@@@@@ATL@@0@Z$32
	DD	022H
	DD	FLAT:__unwindfunclet$?Make_ListHeader@CDlgDataListViewer@@QAEXABV?$CStringT@DV?$StrTraitMFC_DLL@DV?$ChTraitsCRT@D@ATL@@@@@ATL@@0@Z$33
	DD	023H
	DD	FLAT:__unwindfunclet$?Make_ListHeader@CDlgDataListViewer@@QAEXABV?$CStringT@DV?$StrTraitMFC_DLL@DV?$ChTraitsCRT@D@ATL@@@@@ATL@@0@Z$34
	DD	022H
	DD	FLAT:__unwindfunclet$?Make_ListHeader@CDlgDataListViewer@@QAEXABV?$CStringT@DV?$StrTraitMFC_DLL@DV?$ChTraitsCRT@D@ATL@@@@@ATL@@0@Z$34
	DD	025H
	DD	FLAT:__unwindfunclet$?Make_ListHeader@CDlgDataListViewer@@QAEXABV?$CStringT@DV?$StrTraitMFC_DLL@DV?$ChTraitsCRT@D@ATL@@@@@ATL@@0@Z$35
	DD	026H
	DD	FLAT:__unwindfunclet$?Make_ListHeader@CDlgDataListViewer@@QAEXABV?$CStringT@DV?$StrTraitMFC_DLL@DV?$ChTraitsCRT@D@ATL@@@@@ATL@@0@Z$36
	DD	026H
	DD	FLAT:__unwindfunclet$?Make_ListHeader@CDlgDataListViewer@@QAEXABV?$CStringT@DV?$StrTraitMFC_DLL@DV?$ChTraitsCRT@D@ATL@@@@@ATL@@0@Z$38
	DD	028H
	DD	FLAT:__unwindfunclet$?Make_ListHeader@CDlgDataListViewer@@QAEXABV?$CStringT@DV?$StrTraitMFC_DLL@DV?$ChTraitsCRT@D@ATL@@@@@ATL@@0@Z$39
	DD	026H
	DD	FLAT:__unwindfunclet$?Make_ListHeader@CDlgDataListViewer@@QAEXABV?$CStringT@DV?$StrTraitMFC_DLL@DV?$ChTraitsCRT@D@ATL@@@@@ATL@@0@Z$39
	DD	02aH
	DD	FLAT:__unwindfunclet$?Make_ListHeader@CDlgDataListViewer@@QAEXABV?$CStringT@DV?$StrTraitMFC_DLL@DV?$ChTraitsCRT@D@ATL@@@@@ATL@@0@Z$40
	DD	02bH
	DD	FLAT:__unwindfunclet$?Make_ListHeader@CDlgDataListViewer@@QAEXABV?$CStringT@DV?$StrTraitMFC_DLL@DV?$ChTraitsCRT@D@ATL@@@@@ATL@@0@Z$57
	DD	02aH
	DD	FLAT:__unwindfunclet$?Make_ListHeader@CDlgDataListViewer@@QAEXABV?$CStringT@DV?$StrTraitMFC_DLL@DV?$ChTraitsCRT@D@ATL@@@@@ATL@@0@Z$42
	DD	02dH
	DD	FLAT:__unwindfunclet$?Make_ListHeader@CDlgDataListViewer@@QAEXABV?$CStringT@DV?$StrTraitMFC_DLL@DV?$ChTraitsCRT@D@ATL@@@@@ATL@@0@Z$43
	DD	02eH
	DD	FLAT:__unwindfunclet$?Make_ListHeader@CDlgDataListViewer@@QAEXABV?$CStringT@DV?$StrTraitMFC_DLL@DV?$ChTraitsCRT@D@ATL@@@@@ATL@@0@Z$58
	DD	02fH
	DD	FLAT:__unwindfunclet$?Make_ListHeader@CDlgDataListViewer@@QAEXABV?$CStringT@DV?$StrTraitMFC_DLL@DV?$ChTraitsCRT@D@ATL@@@@@ATL@@0@Z$59
xdata$x	ENDS
;	COMDAT xdata$x
xdata$x	SEGMENT
__ehfuncinfo$?InsertDatatoList@CDlgDataListViewer@@QAEXABV?$CStringT@DV?$StrTraitMFC_DLL@DV?$ChTraitsCRT@D@ATL@@@@@ATL@@00@Z DD 019930522H
	DD	014H
	DD	FLAT:__unwindtable$?InsertDatatoList@CDlgDataListViewer@@QAEXABV?$CStringT@DV?$StrTraitMFC_DLL@DV?$ChTraitsCRT@D@ATL@@@@@ATL@@00@Z
	DD	2 DUP(00H)
	DD	2 DUP(00H)
	DD	00H
	DD	01H
__unwindtable$?InsertDatatoList@CDlgDataListViewer@@QAEXABV?$CStringT@DV?$StrTraitMFC_DLL@DV?$ChTraitsCRT@D@ATL@@@@@ATL@@00@Z DD 0ffffffffH
	DD	FLAT:__unwindfunclet$?InsertDatatoList@CDlgDataListViewer@@QAEXABV?$CStringT@DV?$StrTraitMFC_DLL@DV?$ChTraitsCRT@D@ATL@@@@@ATL@@00@Z$0
	DD	00H
	DD	FLAT:__unwindfunclet$?InsertDatatoList@CDlgDataListViewer@@QAEXABV?$CStringT@DV?$StrTraitMFC_DLL@DV?$ChTraitsCRT@D@ATL@@@@@ATL@@00@Z$1
	DD	01H
	DD	FLAT:__unwindfunclet$?InsertDatatoList@CDlgDataListViewer@@QAEXABV?$CStringT@DV?$StrTraitMFC_DLL@DV?$ChTraitsCRT@D@ATL@@@@@ATL@@00@Z$2
	DD	02H
	DD	FLAT:__unwindfunclet$?InsertDatatoList@CDlgDataListViewer@@QAEXABV?$CStringT@DV?$StrTraitMFC_DLL@DV?$ChTraitsCRT@D@ATL@@@@@ATL@@00@Z$3
	DD	01H
	DD	FLAT:__unwindfunclet$?InsertDatatoList@CDlgDataListViewer@@QAEXABV?$CStringT@DV?$StrTraitMFC_DLL@DV?$ChTraitsCRT@D@ATL@@@@@ATL@@00@Z$3
	DD	04H
	DD	FLAT:__unwindfunclet$?InsertDatatoList@CDlgDataListViewer@@QAEXABV?$CStringT@DV?$StrTraitMFC_DLL@DV?$ChTraitsCRT@D@ATL@@@@@ATL@@00@Z$4
	DD	05H
	DD	FLAT:__unwindfunclet$?InsertDatatoList@CDlgDataListViewer@@QAEXABV?$CStringT@DV?$StrTraitMFC_DLL@DV?$ChTraitsCRT@D@ATL@@@@@ATL@@00@Z$5
	DD	05H
	DD	FLAT:__unwindfunclet$?InsertDatatoList@CDlgDataListViewer@@QAEXABV?$CStringT@DV?$StrTraitMFC_DLL@DV?$ChTraitsCRT@D@ATL@@@@@ATL@@00@Z$6
	DD	05H
	DD	FLAT:__unwindfunclet$?InsertDatatoList@CDlgDataListViewer@@QAEXABV?$CStringT@DV?$StrTraitMFC_DLL@DV?$ChTraitsCRT@D@ATL@@@@@ATL@@00@Z$7
	DD	05H
	DD	FLAT:___std_terminate
	DD	05H
	DD	FLAT:__unwindfunclet$?InsertDatatoList@CDlgDataListViewer@@QAEXABV?$CStringT@DV?$StrTraitMFC_DLL@DV?$ChTraitsCRT@D@ATL@@@@@ATL@@00@Z$8
	DD	0aH
	DD	FLAT:__unwindfunclet$?InsertDatatoList@CDlgDataListViewer@@QAEXABV?$CStringT@DV?$StrTraitMFC_DLL@DV?$ChTraitsCRT@D@ATL@@@@@ATL@@00@Z$9
	DD	0bH
	DD	FLAT:__unwindfunclet$?InsertDatatoList@CDlgDataListViewer@@QAEXABV?$CStringT@DV?$StrTraitMFC_DLL@DV?$ChTraitsCRT@D@ATL@@@@@ATL@@00@Z$10
	DD	0cH
	DD	FLAT:__unwindfunclet$?InsertDatatoList@CDlgDataListViewer@@QAEXABV?$CStringT@DV?$StrTraitMFC_DLL@DV?$ChTraitsCRT@D@ATL@@@@@ATL@@00@Z$11
	DD	0dH
	DD	FLAT:__unwindfunclet$?InsertDatatoList@CDlgDataListViewer@@QAEXABV?$CStringT@DV?$StrTraitMFC_DLL@DV?$ChTraitsCRT@D@ATL@@@@@ATL@@00@Z$12
	DD	0cH
	DD	FLAT:__unwindfunclet$?InsertDatatoList@CDlgDataListViewer@@QAEXABV?$CStringT@DV?$StrTraitMFC_DLL@DV?$ChTraitsCRT@D@ATL@@@@@ATL@@00@Z$13
	DD	0fH
	DD	FLAT:__unwindfunclet$?InsertDatatoList@CDlgDataListViewer@@QAEXABV?$CStringT@DV?$StrTraitMFC_DLL@DV?$ChTraitsCRT@D@ATL@@@@@ATL@@00@Z$14
	DD	0cH
	DD	FLAT:__unwindfunclet$?InsertDatatoList@CDlgDataListViewer@@QAEXABV?$CStringT@DV?$StrTraitMFC_DLL@DV?$ChTraitsCRT@D@ATL@@@@@ATL@@00@Z$15
	DD	0cH
	DD	FLAT:__unwindfunclet$?InsertDatatoList@CDlgDataListViewer@@QAEXABV?$CStringT@DV?$StrTraitMFC_DLL@DV?$ChTraitsCRT@D@ATL@@@@@ATL@@00@Z$16
	DD	0cH
	DD	FLAT:___std_terminate
xdata$x	ENDS
;	COMDAT xdata$x
xdata$x	SEGMENT
__unwindtable$?GetStrValue@CDlgDataListViewer@@QAE?AV?$CStringT@DV?$StrTraitMFC_DLL@DV?$ChTraitsCRT@D@ATL@@@@@ATL@@PAUHKEY__@@V23@11@Z DD 0ffffffffH
	DD	FLAT:__unwindfunclet$?GetStrValue@CDlgDataListViewer@@QAE?AV?$CStringT@DV?$StrTraitMFC_DLL@DV?$ChTraitsCRT@D@ATL@@@@@ATL@@PAUHKEY__@@V23@11@Z$0
	DD	00H
	DD	FLAT:__unwindfunclet$?GetStrValue@CDlgDataListViewer@@QAE?AV?$CStringT@DV?$StrTraitMFC_DLL@DV?$ChTraitsCRT@D@ATL@@@@@ATL@@PAUHKEY__@@V23@11@Z$1
	DD	01H
	DD	FLAT:__unwindfunclet$?GetStrValue@CDlgDataListViewer@@QAE?AV?$CStringT@DV?$StrTraitMFC_DLL@DV?$ChTraitsCRT@D@ATL@@@@@ATL@@PAUHKEY__@@V23@11@Z$2
	DD	02H
	DD	FLAT:__unwindfunclet$?GetStrValue@CDlgDataListViewer@@QAE?AV?$CStringT@DV?$StrTraitMFC_DLL@DV?$ChTraitsCRT@D@ATL@@@@@ATL@@PAUHKEY__@@V23@11@Z$3
__ehfuncinfo$?GetStrValue@CDlgDataListViewer@@QAE?AV?$CStringT@DV?$StrTraitMFC_DLL@DV?$ChTraitsCRT@D@ATL@@@@@ATL@@PAUHKEY__@@V23@11@Z DD 019930522H
	DD	04H
	DD	FLAT:__unwindtable$?GetStrValue@CDlgDataListViewer@@QAE?AV?$CStringT@DV?$StrTraitMFC_DLL@DV?$ChTraitsCRT@D@ATL@@@@@ATL@@PAUHKEY__@@V23@11@Z
	DD	2 DUP(00H)
	DD	2 DUP(00H)
	DD	00H
	DD	01H
xdata$x	ENDS
;	COMDAT xdata$x
xdata$x	SEGMENT
__ehfuncinfo$?LoadExcel@CDlgDataListViewer@@QAEXXZ DD 019930522H
	DD	019H
	DD	FLAT:__unwindtable$?LoadExcel@CDlgDataListViewer@@QAEXXZ
	DD	2 DUP(00H)
	DD	2 DUP(00H)
	DD	00H
	DD	01H
__unwindtable$?LoadExcel@CDlgDataListViewer@@QAEXXZ DD 0ffffffffH
	DD	FLAT:__unwindfunclet$?LoadExcel@CDlgDataListViewer@@QAEXXZ$0
	DD	00H
	DD	FLAT:__unwindfunclet$?LoadExcel@CDlgDataListViewer@@QAEXXZ$1
	DD	01H
	DD	FLAT:__unwindfunclet$?LoadExcel@CDlgDataListViewer@@QAEXXZ$21
	DD	01H
	DD	FLAT:__unwindfunclet$?LoadExcel@CDlgDataListViewer@@QAEXXZ$2
	DD	03H
	DD	FLAT:__unwindfunclet$?LoadExcel@CDlgDataListViewer@@QAEXXZ$3
	DD	04H
	DD	FLAT:__unwindfunclet$?LoadExcel@CDlgDataListViewer@@QAEXXZ$4
	DD	05H
	DD	FLAT:__unwindfunclet$?LoadExcel@CDlgDataListViewer@@QAEXXZ$5
	DD	05H
	DD	FLAT:__unwindfunclet$?LoadExcel@CDlgDataListViewer@@QAEXXZ$6
	DD	07H
	DD	FLAT:__unwindfunclet$?LoadExcel@CDlgDataListViewer@@QAEXXZ$7
	DD	08H
	DD	FLAT:__unwindfunclet$?LoadExcel@CDlgDataListViewer@@QAEXXZ$8
	DD	09H
	DD	FLAT:__unwindfunclet$?LoadExcel@CDlgDataListViewer@@QAEXXZ$9
	DD	08H
	DD	FLAT:__unwindfunclet$?LoadExcel@CDlgDataListViewer@@QAEXXZ$23
	DD	0bH
	DD	FLAT:__unwindfunclet$?LoadExcel@CDlgDataListViewer@@QAEXXZ$24
	DD	0cH
	DD	FLAT:__unwindfunclet$?LoadExcel@CDlgDataListViewer@@QAEXXZ$25
	DD	0dH
	DD	FLAT:__unwindfunclet$?LoadExcel@CDlgDataListViewer@@QAEXXZ$26
	DD	08H
	DD	FLAT:__unwindfunclet$?LoadExcel@CDlgDataListViewer@@QAEXXZ$11
	DD	08H
	DD	FLAT:__unwindfunclet$?LoadExcel@CDlgDataListViewer@@QAEXXZ$12
	DD	08H
	DD	FLAT:__unwindfunclet$?LoadExcel@CDlgDataListViewer@@QAEXXZ$13
	DD	08H
	DD	FLAT:__unwindfunclet$?LoadExcel@CDlgDataListViewer@@QAEXXZ$14
	DD	08H
	DD	FLAT:__unwindfunclet$?LoadExcel@CDlgDataListViewer@@QAEXXZ$28
	DD	013H
	DD	FLAT:__unwindfunclet$?LoadExcel@CDlgDataListViewer@@QAEXXZ$29
	DD	014H
	DD	FLAT:__unwindfunclet$?LoadExcel@CDlgDataListViewer@@QAEXXZ$30
	DD	08H
	DD	FLAT:__unwindfunclet$?LoadExcel@CDlgDataListViewer@@QAEXXZ$18
	DD	016H
	DD	FLAT:__unwindfunclet$?LoadExcel@CDlgDataListViewer@@QAEXXZ$19
	DD	017H
	DD	FLAT:__unwindfunclet$?LoadExcel@CDlgDataListViewer@@QAEXXZ$20
xdata$x	ENDS
;	COMDAT xdata$x
xdata$x	SEGMENT
__ehfuncinfo$?GetRowandColumnCount@CDlgDataListViewer@@QAE?AVCPoint@@XZ DD 019930522H
	DD	09H
	DD	FLAT:__unwindtable$?GetRowandColumnCount@CDlgDataListViewer@@QAE?AVCPoint@@XZ
	DD	2 DUP(00H)
	DD	2 DUP(00H)
	DD	00H
	DD	01H
__unwindtable$?GetRowandColumnCount@CDlgDataListViewer@@QAE?AVCPoint@@XZ DD 0ffffffffH
	DD	FLAT:__unwindfunclet$?GetRowandColumnCount@CDlgDataListViewer@@QAE?AVCPoint@@XZ$0
	DD	0ffffffffH
	DD	FLAT:__unwindfunclet$?GetRowandColumnCount@CDlgDataListViewer@@QAE?AVCPoint@@XZ$1
	DD	01H
	DD	FLAT:__unwindfunclet$?GetRowandColumnCount@CDlgDataListViewer@@QAE?AVCPoint@@XZ$2
	DD	02H
	DD	FLAT:__unwindfunclet$?GetRowandColumnCount@CDlgDataListViewer@@QAE?AVCPoint@@XZ$3
	DD	01H
	DD	FLAT:__unwindfunclet$?GetRowandColumnCount@CDlgDataListViewer@@QAE?AVCPoint@@XZ$3
	DD	04H
	DD	FLAT:__unwindfunclet$?GetRowandColumnCount@CDlgDataListViewer@@QAE?AVCPoint@@XZ$4
	DD	05H
	DD	FLAT:__unwindfunclet$?GetRowandColumnCount@CDlgDataListViewer@@QAE?AVCPoint@@XZ$5
	DD	06H
	DD	FLAT:__unwindfunclet$?GetRowandColumnCount@CDlgDataListViewer@@QAE?AVCPoint@@XZ$6
	DD	05H
	DD	FLAT:__unwindfunclet$?GetRowandColumnCount@CDlgDataListViewer@@QAE?AVCPoint@@XZ$6
xdata$x	ENDS
;	COMDAT xdata$x
xdata$x	SEGMENT
__unwindtable$?OnReverse@CDlgDataListViewer@@IAEXXZ DD 0ffffffffH
	DD	FLAT:__unwindfunclet$?OnReverse@CDlgDataListViewer@@IAEXXZ$0
	DD	0ffffffffH
	DD	FLAT:__unwindfunclet$?OnReverse@CDlgDataListViewer@@IAEXXZ$1
__ehfuncinfo$?OnReverse@CDlgDataListViewer@@IAEXXZ DD 019930522H
	DD	02H
	DD	FLAT:__unwindtable$?OnReverse@CDlgDataListViewer@@IAEXXZ
	DD	2 DUP(00H)
	DD	2 DUP(00H)
	DD	00H
	DD	01H
xdata$x	ENDS
;	COMDAT xdata$x
xdata$x	SEGMENT
__ehfuncinfo$?OnGetdispinfo@CDlgDataListViewer@@IAEXPAUtagNMHDR@@PAJ@Z DD 019930522H
	DD	018H
	DD	FLAT:__unwindtable$?OnGetdispinfo@CDlgDataListViewer@@IAEXPAUtagNMHDR@@PAJ@Z
	DD	2 DUP(00H)
	DD	2 DUP(00H)
	DD	00H
	DD	01H
__unwindtable$?OnGetdispinfo@CDlgDataListViewer@@IAEXPAUtagNMHDR@@PAJ@Z DD 0ffffffffH
	DD	FLAT:__unwindfunclet$?OnGetdispinfo@CDlgDataListViewer@@IAEXPAUtagNMHDR@@PAJ@Z$0
	DD	00H
	DD	FLAT:__unwindfunclet$?OnGetdispinfo@CDlgDataListViewer@@IAEXPAUtagNMHDR@@PAJ@Z$1
	DD	01H
	DD	FLAT:__unwindfunclet$?OnGetdispinfo@CDlgDataListViewer@@IAEXPAUtagNMHDR@@PAJ@Z$2
	DD	02H
	DD	FLAT:__unwindfunclet$?OnGetdispinfo@CDlgDataListViewer@@IAEXPAUtagNMHDR@@PAJ@Z$3
	DD	03H
	DD	FLAT:__unwindfunclet$?OnGetdispinfo@CDlgDataListViewer@@IAEXPAUtagNMHDR@@PAJ@Z$4
	DD	02H
	DD	FLAT:__unwindfunclet$?OnGetdispinfo@CDlgDataListViewer@@IAEXPAUtagNMHDR@@PAJ@Z$5
	DD	02H
	DD	FLAT:___std_terminate
	DD	02H
	DD	FLAT:__unwindfunclet$?OnGetdispinfo@CDlgDataListViewer@@IAEXPAUtagNMHDR@@PAJ@Z$6
	DD	07H
	DD	FLAT:__unwindfunclet$?OnGetdispinfo@CDlgDataListViewer@@IAEXPAUtagNMHDR@@PAJ@Z$7
	DD	08H
	DD	FLAT:__unwindfunclet$?OnGetdispinfo@CDlgDataListViewer@@IAEXPAUtagNMHDR@@PAJ@Z$8
	DD	09H
	DD	FLAT:__unwindfunclet$?OnGetdispinfo@CDlgDataListViewer@@IAEXPAUtagNMHDR@@PAJ@Z$9
	DD	0aH
	DD	FLAT:__unwindfunclet$?OnGetdispinfo@CDlgDataListViewer@@IAEXPAUtagNMHDR@@PAJ@Z$10
	DD	08H
	DD	FLAT:__unwindfunclet$?OnGetdispinfo@CDlgDataListViewer@@IAEXPAUtagNMHDR@@PAJ@Z$11
	DD	07H
	DD	FLAT:__unwindfunclet$?OnGetdispinfo@CDlgDataListViewer@@IAEXPAUtagNMHDR@@PAJ@Z$12
	DD	0dH
	DD	FLAT:__unwindfunclet$?OnGetdispinfo@CDlgDataListViewer@@IAEXPAUtagNMHDR@@PAJ@Z$13
	DD	0eH
	DD	FLAT:__unwindfunclet$?OnGetdispinfo@CDlgDataListViewer@@IAEXPAUtagNMHDR@@PAJ@Z$14
	DD	07H
	DD	FLAT:__unwindfunclet$?OnGetdispinfo@CDlgDataListViewer@@IAEXPAUtagNMHDR@@PAJ@Z$15
	DD	02H
	DD	FLAT:__unwindfunclet$?OnGetdispinfo@CDlgDataListViewer@@IAEXPAUtagNMHDR@@PAJ@Z$16
	DD	011H
	DD	FLAT:__unwindfunclet$?OnGetdispinfo@CDlgDataListViewer@@IAEXPAUtagNMHDR@@PAJ@Z$17
	DD	02H
	DD	FLAT:__unwindfunclet$?OnGetdispinfo@CDlgDataListViewer@@IAEXPAUtagNMHDR@@PAJ@Z$17
	DD	013H
	DD	FLAT:__unwindfunclet$?OnGetdispinfo@CDlgDataListViewer@@IAEXPAUtagNMHDR@@PAJ@Z$18
	DD	013H
	DD	FLAT:___std_terminate
	DD	013H
	DD	FLAT:__unwindfunclet$?OnGetdispinfo@CDlgDataListViewer@@IAEXPAUtagNMHDR@@PAJ@Z$19
	DD	016H
	DD	FLAT:__unwindfunclet$?OnGetdispinfo@CDlgDataListViewer@@IAEXPAUtagNMHDR@@PAJ@Z$20
xdata$x	ENDS
;	COMDAT xdata$x
xdata$x	SEGMENT
__unwindtable$?OnClipboard@CDlgDataListViewer@@IAEXXZ DD 0ffffffffH
	DD	FLAT:__unwindfunclet$?OnClipboard@CDlgDataListViewer@@IAEXXZ$0
	DD	00H
	DD	FLAT:__unwindfunclet$?OnClipboard@CDlgDataListViewer@@IAEXXZ$1
	DD	00H
	DD	FLAT:__unwindfunclet$?OnClipboard@CDlgDataListViewer@@IAEXXZ$2
	DD	02H
	DD	FLAT:__unwindfunclet$?OnClipboard@CDlgDataListViewer@@IAEXXZ$4
__ehfuncinfo$?OnClipboard@CDlgDataListViewer@@IAEXXZ DD 019930522H
	DD	04H
	DD	FLAT:__unwindtable$?OnClipboard@CDlgDataListViewer@@IAEXXZ
	DD	2 DUP(00H)
	DD	2 DUP(00H)
	DD	00H
	DD	01H
xdata$x	ENDS
;	COMDAT xdata$x
xdata$x	SEGMENT
__ehfuncinfo$?OnInitDialog@CDlgDataListViewer@@MAEHXZ DD 019930522H
	DD	0aH
	DD	FLAT:__unwindtable$?OnInitDialog@CDlgDataListViewer@@MAEHXZ
	DD	2 DUP(00H)
	DD	2 DUP(00H)
	DD	00H
	DD	01H
__unwindtable$?OnInitDialog@CDlgDataListViewer@@MAEHXZ DD 0ffffffffH
	DD	FLAT:__unwindfunclet$?OnInitDialog@CDlgDataListViewer@@MAEHXZ$1
	DD	00H
	DD	FLAT:__unwindfunclet$?OnInitDialog@CDlgDataListViewer@@MAEHXZ$2
	DD	01H
	DD	FLAT:__unwindfunclet$?OnInitDialog@CDlgDataListViewer@@MAEHXZ$3
	DD	02H
	DD	FLAT:__unwindfunclet$?OnInitDialog@CDlgDataListViewer@@MAEHXZ$4
	DD	0ffffffffH
	DD	FLAT:__unwindfunclet$?OnInitDialog@CDlgDataListViewer@@MAEHXZ$5
	DD	04H
	DD	FLAT:__unwindfunclet$?OnInitDialog@CDlgDataListViewer@@MAEHXZ$6
	DD	05H
	DD	FLAT:__unwindfunclet$?OnInitDialog@CDlgDataListViewer@@MAEHXZ$7
	DD	04H
	DD	FLAT:__unwindfunclet$?OnInitDialog@CDlgDataListViewer@@MAEHXZ$8
	DD	07H
	DD	FLAT:__unwindfunclet$?OnInitDialog@CDlgDataListViewer@@MAEHXZ$9
	DD	0ffffffffH
	DD	FLAT:__unwindfunclet$?OnInitDialog@CDlgDataListViewer@@MAEHXZ$0
xdata$x	ENDS
;	COMDAT xdata$x
xdata$x	SEGMENT
__ehfuncinfo$??1CDlgDataListViewer@@UAE@XZ DD 019930522H
	DD	00H
	DD	00H
	DD	2 DUP(00H)
	DD	2 DUP(00H)
	DD	00H
	DD	05H
xdata$x	ENDS
;	COMDAT xdata$x
xdata$x	SEGMENT
__ehfuncinfo$??0CDlgDataListViewer@@QAE@PAVCWnd@@ABV?$CStringT@DV?$StrTraitMFC_DLL@DV?$ChTraitsCRT@D@ATL@@@@@ATL@@111PBD1_NPAVCChartDataListViewerAddInImp@@PAUHWND__@@W4CHART_MODE@CChartInfo@@@Z DD 019930522H
	DD	011H
	DD	FLAT:__unwindtable$??0CDlgDataListViewer@@QAE@PAVCWnd@@ABV?$CStringT@DV?$StrTraitMFC_DLL@DV?$ChTraitsCRT@D@ATL@@@@@ATL@@111PBD1_NPAVCChartDataListViewerAddInImp@@PAUHWND__@@W4CHART_MODE@CChartInfo@@@Z
	DD	2 DUP(00H)
	DD	2 DUP(00H)
	DD	00H
	DD	01H
__unwindtable$??0CDlgDataListViewer@@QAE@PAVCWnd@@ABV?$CStringT@DV?$StrTraitMFC_DLL@DV?$ChTraitsCRT@D@ATL@@@@@ATL@@111PBD1_NPAVCChartDataListViewerAddInImp@@PAUHWND__@@W4CHART_MODE@CChartInfo@@@Z DD 0ffffffffH
	DD	FLAT:__unwindfunclet$??0CDlgDataListViewer@@QAE@PAVCWnd@@ABV?$CStringT@DV?$StrTraitMFC_DLL@DV?$ChTraitsCRT@D@ATL@@@@@ATL@@111PBD1_NPAVCChartDataListViewerAddInImp@@PAUHWND__@@W4CHART_MODE@CChartInfo@@@Z$0
	DD	00H
	DD	FLAT:__unwindfunclet$??0CDlgDataListViewer@@QAE@PAVCWnd@@ABV?$CStringT@DV?$StrTraitMFC_DLL@DV?$ChTraitsCRT@D@ATL@@@@@ATL@@111PBD1_NPAVCChartDataListViewerAddInImp@@PAUHWND__@@W4CHART_MODE@CChartInfo@@@Z$1
	DD	01H
	DD	FLAT:__unwindfunclet$??0CDlgDataListViewer@@QAE@PAVCWnd@@ABV?$CStringT@DV?$StrTraitMFC_DLL@DV?$ChTraitsCRT@D@ATL@@@@@ATL@@111PBD1_NPAVCChartDataListViewerAddInImp@@PAUHWND__@@W4CHART_MODE@CChartInfo@@@Z$2
	DD	02H
	DD	FLAT:__unwindfunclet$??0CDlgDataListViewer@@QAE@PAVCWnd@@ABV?$CStringT@DV?$StrTraitMFC_DLL@DV?$ChTraitsCRT@D@ATL@@@@@ATL@@111PBD1_NPAVCChartDataListViewerAddInImp@@PAUHWND__@@W4CHART_MODE@CChartInfo@@@Z$3
	DD	03H
	DD	FLAT:__unwindfunclet$??0CDlgDataListViewer@@QAE@PAVCWnd@@ABV?$CStringT@DV?$StrTraitMFC_DLL@DV?$ChTraitsCRT@D@ATL@@@@@ATL@@111PBD1_NPAVCChartDataListViewerAddInImp@@PAUHWND__@@W4CHART_MODE@CChartInfo@@@Z$4
	DD	04H
	DD	FLAT:__unwindfunclet$??0CDlgDataListViewer@@QAE@PAVCWnd@@ABV?$CStringT@DV?$StrTraitMFC_DLL@DV?$ChTraitsCRT@D@ATL@@@@@ATL@@111PBD1_NPAVCChartDataListViewerAddInImp@@PAUHWND__@@W4CHART_MODE@CChartInfo@@@Z$5
	DD	05H
	DD	FLAT:__unwindfunclet$??0CDlgDataListViewer@@QAE@PAVCWnd@@ABV?$CStringT@DV?$StrTraitMFC_DLL@DV?$ChTraitsCRT@D@ATL@@@@@ATL@@111PBD1_NPAVCChartDataListViewerAddInImp@@PAUHWND__@@W4CHART_MODE@CChartInfo@@@Z$6
	DD	06H
	DD	FLAT:__unwindfunclet$??0CDlgDataListViewer@@QAE@PAVCWnd@@ABV?$CStringT@DV?$StrTraitMFC_DLL@DV?$ChTraitsCRT@D@ATL@@@@@ATL@@111PBD1_NPAVCChartDataListViewerAddInImp@@PAUHWND__@@W4CHART_MODE@CChartInfo@@@Z$7
	DD	07H
	DD	FLAT:__unwindfunclet$??0CDlgDataListViewer@@QAE@PAVCWnd@@ABV?$CStringT@DV?$StrTraitMFC_DLL@DV?$ChTraitsCRT@D@ATL@@@@@ATL@@111PBD1_NPAVCChartDataListViewerAddInImp@@PAUHWND__@@W4CHART_MODE@CChartInfo@@@Z$8
	DD	08H
	DD	FLAT:__unwindfunclet$??0CDlgDataListViewer@@QAE@PAVCWnd@@ABV?$CStringT@DV?$StrTraitMFC_DLL@DV?$ChTraitsCRT@D@ATL@@@@@ATL@@111PBD1_NPAVCChartDataListViewerAddInImp@@PAUHWND__@@W4CHART_MODE@CChartInfo@@@Z$9
	DD	09H
	DD	FLAT:__unwindfunclet$??0CDlgDataListViewer@@QAE@PAVCWnd@@ABV?$CStringT@DV?$StrTraitMFC_DLL@DV?$ChTraitsCRT@D@ATL@@@@@ATL@@111PBD1_NPAVCChartDataListViewerAddInImp@@PAUHWND__@@W4CHART_MODE@CChartInfo@@@Z$10
	DD	0aH
	DD	FLAT:__unwindfunclet$??0CDlgDataListViewer@@QAE@PAVCWnd@@ABV?$CStringT@DV?$StrTraitMFC_DLL@DV?$ChTraitsCRT@D@ATL@@@@@ATL@@111PBD1_NPAVCChartDataListViewerAddInImp@@PAUHWND__@@W4CHART_MODE@CChartInfo@@@Z$11
	DD	0bH
	DD	FLAT:__unwindfunclet$??0CDlgDataListViewer@@QAE@PAVCWnd@@ABV?$CStringT@DV?$StrTraitMFC_DLL@DV?$ChTraitsCRT@D@ATL@@@@@ATL@@111PBD1_NPAVCChartDataListViewerAddInImp@@PAUHWND__@@W4CHART_MODE@CChartInfo@@@Z$12
	DD	0cH
	DD	FLAT:__unwindfunclet$??0CDlgDataListViewer@@QAE@PAVCWnd@@ABV?$CStringT@DV?$StrTraitMFC_DLL@DV?$ChTraitsCRT@D@ATL@@@@@ATL@@111PBD1_NPAVCChartDataListViewerAddInImp@@PAUHWND__@@W4CHART_MODE@CChartInfo@@@Z$13
	DD	0dH
	DD	FLAT:__unwindfunclet$??0CDlgDataListViewer@@QAE@PAVCWnd@@ABV?$CStringT@DV?$StrTraitMFC_DLL@DV?$ChTraitsCRT@D@ATL@@@@@ATL@@111PBD1_NPAVCChartDataListViewerAddInImp@@PAUHWND__@@W4CHART_MODE@CChartInfo@@@Z$14
	DD	0eH
	DD	FLAT:__unwindfunclet$??0CDlgDataListViewer@@QAE@PAVCWnd@@ABV?$CStringT@DV?$StrTraitMFC_DLL@DV?$ChTraitsCRT@D@ATL@@@@@ATL@@111PBD1_NPAVCChartDataListViewerAddInImp@@PAUHWND__@@W4CHART_MODE@CChartInfo@@@Z$15
	DD	0fH
	DD	FLAT:__unwindfunclet$??0CDlgDataListViewer@@QAE@PAVCWnd@@ABV?$CStringT@DV?$StrTraitMFC_DLL@DV?$ChTraitsCRT@D@ATL@@@@@ATL@@111PBD1_NPAVCChartDataListViewerAddInImp@@PAUHWND__@@W4CHART_MODE@CChartInfo@@@Z$16
xdata$x	ENDS
;	COMDAT xdata$x
xdata$x	SEGMENT
__ehfuncinfo$??1ILPCSTR134221@@QAE@XZ DD 019930522H
	DD	00H
	DD	00H
	DD	2 DUP(00H)
	DD	2 DUP(00H)
	DD	00H
	DD	05H
xdata$x	ENDS
;	COMDAT xdata$x
xdata$x	SEGMENT
__catchsym$??1CGdiObject@@UAE@XZ$3 DD 00H
	DD	FLAT:??_R0PAVCException@@@8
	DD	0fffffde4H
	DD	FLAT:__catch$??1CGdiObject@@UAE@XZ$0
__tryblocktable$??1CGdiObject@@UAE@XZ DD 00H
	DD	00H
	DD	02H
	DD	01H
	DD	FLAT:__catchsym$??1CGdiObject@@UAE@XZ$3
__unwindtable$??1CGdiObject@@UAE@XZ DD 0ffffffffH
	DD	00H
	DD	0ffffffffH
	DD	00H
	DD	01H
	DD	FLAT:__unwindfunclet$??1CGdiObject@@UAE@XZ$2
__ehfuncinfo$??1CGdiObject@@UAE@XZ DD 019930522H
	DD	03H
	DD	FLAT:__unwindtable$??1CGdiObject@@UAE@XZ
	DD	01H
	DD	FLAT:__tryblocktable$??1CGdiObject@@UAE@XZ
	DD	2 DUP(00H)
	DD	00H
	DD	05H
xdata$x	ENDS
;	COMDAT xdata$x
xdata$x	SEGMENT
__unwindtable$??0CFileException@@QAE@HJPBD@Z DD 0ffffffffH
	DD	FLAT:__unwindfunclet$??0CFileException@@QAE@HJPBD@Z$0
__ehfuncinfo$??0CFileException@@QAE@HJPBD@Z DD 019930522H
	DD	01H
	DD	FLAT:__unwindtable$??0CFileException@@QAE@HJPBD@Z
	DD	2 DUP(00H)
	DD	2 DUP(00H)
	DD	00H
	DD	01H
xdata$x	ENDS
;	COMDAT xdata$x
xdata$x	SEGMENT
__unwindtable$??HATL@@YA?AV?$CStringT@DV?$StrTraitMFC_DLL@DV?$ChTraitsCRT@D@ATL@@@@@0@PBDABV10@@Z DD 0ffffffffH
	DD	FLAT:__unwindfunclet$??HATL@@YA?AV?$CStringT@DV?$StrTraitMFC_DLL@DV?$ChTraitsCRT@D@ATL@@@@@0@PBDABV10@@Z$0
__ehfuncinfo$??HATL@@YA?AV?$CStringT@DV?$StrTraitMFC_DLL@DV?$ChTraitsCRT@D@ATL@@@@@0@PBDABV10@@Z DD 019930522H
	DD	01H
	DD	FLAT:__unwindtable$??HATL@@YA?AV?$CStringT@DV?$StrTraitMFC_DLL@DV?$ChTraitsCRT@D@ATL@@@@@0@PBDABV10@@Z
	DD	2 DUP(00H)
	DD	2 DUP(00H)
	DD	00H
	DD	01H
xdata$x	ENDS
;	COMDAT xdata$x
xdata$x	SEGMENT
__unwindtable$??HATL@@YA?AV?$CStringT@DV?$StrTraitMFC_DLL@DV?$ChTraitsCRT@D@ATL@@@@@0@ABV10@PBD@Z DD 0ffffffffH
	DD	FLAT:__unwindfunclet$??HATL@@YA?AV?$CStringT@DV?$StrTraitMFC_DLL@DV?$ChTraitsCRT@D@ATL@@@@@0@ABV10@PBD@Z$0
__ehfuncinfo$??HATL@@YA?AV?$CStringT@DV?$StrTraitMFC_DLL@DV?$ChTraitsCRT@D@ATL@@@@@0@ABV10@PBD@Z DD 019930522H
	DD	01H
	DD	FLAT:__unwindtable$??HATL@@YA?AV?$CStringT@DV?$StrTraitMFC_DLL@DV?$ChTraitsCRT@D@ATL@@@@@0@ABV10@PBD@Z
	DD	2 DUP(00H)
	DD	2 DUP(00H)
	DD	00H
	DD	01H
xdata$x	ENDS
;	COMDAT xdata$x
xdata$x	SEGMENT
__unwindtable$??HATL@@YA?AV?$CStringT@DV?$StrTraitMFC_DLL@DV?$ChTraitsCRT@D@ATL@@@@@0@ABV10@0@Z DD 0ffffffffH
	DD	FLAT:__unwindfunclet$??HATL@@YA?AV?$CStringT@DV?$StrTraitMFC_DLL@DV?$ChTraitsCRT@D@ATL@@@@@0@ABV10@0@Z$0
__ehfuncinfo$??HATL@@YA?AV?$CStringT@DV?$StrTraitMFC_DLL@DV?$ChTraitsCRT@D@ATL@@@@@0@ABV10@0@Z DD 019930522H
	DD	01H
	DD	FLAT:__unwindtable$??HATL@@YA?AV?$CStringT@DV?$StrTraitMFC_DLL@DV?$ChTraitsCRT@D@ATL@@@@@0@ABV10@0@Z
	DD	2 DUP(00H)
	DD	2 DUP(00H)
	DD	00H
	DD	01H
xdata$x	ENDS
; Function compile flags: /Ogtp
; File C:\Program Files (x86)\Microsoft Visual Studio\2019\Community\VC\Tools\MSVC\14.29.30133\atlmfc\include\afxtempl.h
; File C:\Program Files (x86)\Microsoft Visual Studio\2019\Community\VC\Tools\MSVC\14.29.30133\atlmfc\include\afx.inl
; File C:\Program Files (x86)\Microsoft Visual Studio\2019\Community\VC\Tools\MSVC\14.29.30133\atlmfc\include\afxtempl.h
; File C:\Program Files (x86)\Microsoft Visual Studio\2019\Community\VC\Tools\MSVC\14.29.30133\atlmfc\include\afx.inl
; File C:\Program Files (x86)\Microsoft Visual Studio\2019\Community\VC\Tools\MSVC\14.29.30133\atlmfc\include\afxtempl.h
; File C:\Program Files (x86)\Microsoft Visual Studio\2019\Community\VC\Tools\MSVC\14.29.30133\atlmfc\include\afx.inl
; File C:\Program Files (x86)\Microsoft Visual Studio\2019\Community\VC\Tools\MSVC\14.29.30133\atlmfc\include\afxtempl.h
;	COMDAT ??$SerializeElements@VCData@@@@YGXAAVCArchive@@PAVCData@@H@Z
_TEXT	SEGMENT
_ar$ = 8						; size = 4
_pElements$ = 12					; size = 4
_nCount$ = 16						; size = 4
??$SerializeElements@VCData@@@@YGXAAVCArchive@@PAVCData@@H@Z PROC ; SerializeElements<CData>, COMDAT

; 67   : {

  00000	55		 push	 ebp
  00001	8b ec		 mov	 ebp, esp

; 68   : 	ENSURE(nCount == 0 || pElements != NULL);

  00003	8b 4d 0c	 mov	 ecx, DWORD PTR _pElements$[ebp]
  00006	53		 push	 ebx
  00007	56		 push	 esi
  00008	8b 75 10	 mov	 esi, DWORD PTR _nCount$[ebp]
  0000b	57		 push	 edi
  0000c	85 f6		 test	 esi, esi
  0000e	74 08		 je	 SHORT $LN2@SerializeE
  00010	85 c9		 test	 ecx, ecx
  00012	0f 84 87 00 00
	00		 je	 $LN34@SerializeE
$LN2@SerializeE:
; File C:\Program Files (x86)\Microsoft Visual Studio\2019\Community\VC\Tools\MSVC\14.29.30133\atlmfc\include\afx.inl

; 212  : 	{ return (m_nMode & CArchive::load) == 0; }

  00018	8b 55 08	 mov	 edx, DWORD PTR _ar$[ebp]
  0001b	8b 42 18	 mov	 eax, DWORD PTR [edx+24]
  0001e	f7 d0		 not	 eax
  00020	a8 01		 test	 al, 1
; File C:\Program Files (x86)\Microsoft Visual Studio\2019\Community\VC\Tools\MSVC\14.29.30133\atlmfc\include\afxtempl.h

; 73   : 	if (ar.IsStoring())

  00022	74 3b		 je	 SHORT $LN10@SerializeE

; 74   : 	{
; 75   : 		TYPE* pData;
; 76   : 		UINT_PTR nElementsLeft;
; 77   : 
; 78   : 		nElementsLeft = nCount;
; 79   : 		pData = pElements;
; 80   : 		while( nElementsLeft > 0 )

  00024	85 f6		 test	 esi, esi
  00026	74 30		 je	 SHORT $LN8@SerializeE
  00028	0f 1f 84 00 00
	00 00 00	 npad	 8
$LL5@SerializeE:

; 81   : 		{
; 82   : 			UINT nElementsToWrite;
; 83   : 
; 84   : 			nElementsToWrite = UINT(__min(nElementsLeft, INT_MAX/sizeof(TYPE)));

  00030	bb 55 55 55 05	 mov	 ebx, 89478485		; 05555555H
  00035	3b f3		 cmp	 esi, ebx
  00037	0f 42 de	 cmovb	 ebx, esi

; 85   : 			ar.Write(pData, nElementsToWrite*sizeof(TYPE));

  0003a	8d 3c 5b	 lea	 edi, DWORD PTR [ebx+ebx*2]
  0003d	c1 e7 03	 shl	 edi, 3
  00040	57		 push	 edi
  00041	51		 push	 ecx
  00042	8b ca		 mov	 ecx, edx
  00044	e8 00 00 00 00	 call	 ?Write@CArchive@@QAEXPBXI@Z ; CArchive::Write

; 86   : 			nElementsLeft -= nElementsToWrite;
; 87   : 			pData += nElementsToWrite;

  00049	8b 4d 0c	 mov	 ecx, DWORD PTR _pElements$[ebp]
  0004c	8b 55 08	 mov	 edx, DWORD PTR _ar$[ebp]
  0004f	03 cf		 add	 ecx, edi
  00051	89 4d 0c	 mov	 DWORD PTR _pElements$[ebp], ecx
  00054	2b f3		 sub	 esi, ebx
  00056	75 d8		 jne	 SHORT $LL5@SerializeE
$LN8@SerializeE:
  00058	5f		 pop	 edi

; 105  : 		}
; 106  : 	}
; 107  : }

  00059	5e		 pop	 esi
  0005a	5b		 pop	 ebx
  0005b	5d		 pop	 ebp
  0005c	c2 0c 00	 ret	 12			; 0000000cH
$LN10@SerializeE:

; 97   : 		while( nElementsLeft > 0 )

  0005f	85 f6		 test	 esi, esi
  00061	74 f5		 je	 SHORT $LN8@SerializeE
$LL7@SerializeE:

; 98   : 		{
; 99   : 			UINT nElementsToRead;
; 100  : 
; 101  : 			nElementsToRead = UINT(__min(nElementsLeft, INT_MAX/sizeof(TYPE)));

  00063	bf 55 55 55 05	 mov	 edi, 89478485		; 05555555H
  00068	3b f7		 cmp	 esi, edi
  0006a	0f 42 fe	 cmovb	 edi, esi

; 102  : 			ar.EnsureRead(pData, nElementsToRead*sizeof(TYPE));

  0006d	8d 1c 7f	 lea	 ebx, DWORD PTR [edi+edi*2]
  00070	c1 e3 03	 shl	 ebx, 3
; File C:\Program Files (x86)\Microsoft Visual Studio\2019\Community\VC\Tools\MSVC\14.29.30133\atlmfc\include\afx.inl

; 399  : 	UINT nRead=Read(lpBuf, nCount);

  00073	53		 push	 ebx
  00074	51		 push	 ecx
  00075	8b ca		 mov	 ecx, edx
  00077	e8 00 00 00 00	 call	 ?Read@CArchive@@QAEIPAXI@Z ; CArchive::Read

; 400  : 	if(nRead!=nCount)

  0007c	3b c3		 cmp	 eax, ebx
  0007e	75 16		 jne	 SHORT $LN23@SerializeE
; File C:\Program Files (x86)\Microsoft Visual Studio\2019\Community\VC\Tools\MSVC\14.29.30133\atlmfc\include\afxtempl.h

; 97   : 		while( nElementsLeft > 0 )

  00080	8b 4d 0c	 mov	 ecx, DWORD PTR _pElements$[ebp]
  00083	8b 55 08	 mov	 edx, DWORD PTR _ar$[ebp]

; 103  : 			nElementsLeft -= nElementsToRead;
; 104  : 			pData += nElementsToRead;

  00086	03 cb		 add	 ecx, ebx
  00088	89 4d 0c	 mov	 DWORD PTR _pElements$[ebp], ecx
  0008b	2b f7		 sub	 esi, edi
  0008d	75 d4		 jne	 SHORT $LL7@SerializeE

; 105  : 		}
; 106  : 	}
; 107  : }

  0008f	5f		 pop	 edi
  00090	5e		 pop	 esi
  00091	5b		 pop	 ebx
  00092	5d		 pop	 ebp
  00093	c2 0c 00	 ret	 12			; 0000000cH
$LN23@SerializeE:
; File C:\Program Files (x86)\Microsoft Visual Studio\2019\Community\VC\Tools\MSVC\14.29.30133\atlmfc\include\afx.inl

; 402  : 		AfxThrowArchiveException(CArchiveException::endOfFile);

  00096	6a 00		 push	 0
  00098	6a 03		 push	 3
  0009a	e8 00 00 00 00	 call	 ?AfxThrowArchiveException@@YGXHPBD@Z ; AfxThrowArchiveException
$LN34@SerializeE:
; File C:\Program Files (x86)\Microsoft Visual Studio\2019\Community\VC\Tools\MSVC\14.29.30133\atlmfc\include\afxtempl.h

; 68   : 	ENSURE(nCount == 0 || pElements != NULL);

  0009f	e8 00 00 00 00	 call	 ?AfxThrowInvalidArgException@@YGXXZ ; AfxThrowInvalidArgException
$LN32@SerializeE:
  000a4	cc		 int	 3
??$SerializeElements@VCData@@@@YGXAAVCArchive@@PAVCData@@H@Z ENDP ; SerializeElements<CData>
_TEXT	ENDS
; Function compile flags: /Ogtp
; File D:\git\src\IBK\IBK_DRFN\ProjSrc\SrcChartEx\ChartAddIn\ChartDataListViewerAddIn\ChartDataListViewerAddIn\DlgDataListViewer.cpp
; File C:\Program Files (x86)\Microsoft Visual Studio\2019\Community\VC\Tools\MSVC\14.29.30133\atlmfc\include\afxcoll.inl
; File D:\git\src\IBK\IBK_DRFN\ProjSrc\SrcChartEx\ChartAddIn\ChartDataListViewerAddIn\ChartDataListViewerAddIn\DlgDataListViewer.cpp
; File C:\Program Files (x86)\Microsoft Visual Studio\2019\Community\VC\Tools\MSVC\14.29.30133\atlmfc\include\afxwin1.inl
; File D:\git\src\IBK\IBK_DRFN\ProjSrc\SrcChartEx\ChartAddIn\ChartDataListViewerAddIn\ChartDataListViewerAddIn\DlgDataListViewer.cpp
; File C:\Program Files (x86)\Microsoft Visual Studio\2019\Community\VC\Tools\MSVC\14.29.30133\atlmfc\include\afx.inl
;	COMDAT ??_GCDlgDataListViewer@@UAEPAXI@Z
_TEXT	SEGMENT
__$EHRec$ = -12						; size = 12
___flags$ = 8						; size = 4
??_GCDlgDataListViewer@@UAEPAXI@Z PROC			; CDlgDataListViewer::`scalar deleting destructor', COMDAT
; _this$ = ecx
  00000	55		 push	 ebp
  00001	8b ec		 mov	 ebp, esp
  00003	6a ff		 push	 -1
  00005	68 00 00 00 00	 push	 __ehhandler$??_GCDlgDataListViewer@@UAEPAXI@Z
  0000a	64 a1 00 00 00
	00		 mov	 eax, DWORD PTR fs:0
  00010	50		 push	 eax
  00011	56		 push	 esi
  00012	57		 push	 edi
  00013	a1 00 00 00 00	 mov	 eax, DWORD PTR ___security_cookie
  00018	33 c5		 xor	 eax, ebp
  0001a	50		 push	 eax
  0001b	8d 45 f4	 lea	 eax, DWORD PTR __$EHRec$[ebp]
  0001e	64 a3 00 00 00
	00		 mov	 DWORD PTR fs:0, eax
  00024	8b f9		 mov	 edi, ecx
; File D:\git\src\IBK\IBK_DRFN\ProjSrc\SrcChartEx\ChartAddIn\ChartDataListViewerAddIn\ChartDataListViewerAddIn\DlgDataListViewer.cpp

; 71   : 	if( m_pPacketList) m_pPacketList->Release();

  00026	8b 8f c0 03 00
	00		 mov	 ecx, DWORD PTR [edi+960]
  0002c	c7 45 fc 00 00
	00 00		 mov	 DWORD PTR __$EHRec$[ebp+8], 0
  00033	c7 07 00 00 00
	00		 mov	 DWORD PTR [edi], OFFSET ??_7CDlgDataListViewer@@6B@
  00039	85 c9		 test	 ecx, ecx
  0003b	74 06		 je	 SHORT $LN10@scalar
  0003d	8b 01		 mov	 eax, DWORD PTR [ecx]
  0003f	51		 push	 ecx
  00040	ff 50 08	 call	 DWORD PTR [eax+8]
$LN10@scalar:

; 72   : 	POSITION pos = m_DataList.GetHeadPosition();

  00043	8b b7 fc 03 00
	00		 mov	 esi, DWORD PTR [edi+1020]

; 73   : 	while(pos)

  00049	85 f6		 test	 esi, esi
  0004b	74 17		 je	 SHORT $LN9@scalar
  0004d	0f 1f 00	 npad	 3
$LL8@scalar:

; 76   : 		delete pData;

  00050	8b 4e 08	 mov	 ecx, DWORD PTR [esi+8]
; File C:\Program Files (x86)\Microsoft Visual Studio\2019\Community\VC\Tools\MSVC\14.29.30133\atlmfc\include\afxcoll.inl

; 432  : 		rPosition = (POSITION) pNode->pNext;

  00053	8b 36		 mov	 esi, DWORD PTR [esi]
; File D:\git\src\IBK\IBK_DRFN\ProjSrc\SrcChartEx\ChartAddIn\ChartDataListViewerAddIn\ChartDataListViewerAddIn\DlgDataListViewer.cpp

; 76   : 		delete pData;

  00055	85 c9		 test	 ecx, ecx
  00057	74 07		 je	 SHORT $LN12@scalar
  00059	8b 01		 mov	 eax, DWORD PTR [ecx]
  0005b	6a 01		 push	 1
  0005d	ff 50 04	 call	 DWORD PTR [eax+4]
$LN12@scalar:

; 73   : 	while(pos)

  00060	85 f6		 test	 esi, esi
  00062	75 ec		 jne	 SHORT $LL8@scalar
$LN9@scalar:

; 77   : 		pData = NULL;
; 78   : 	}
; 79   : 	m_DataList.RemoveAll();

  00064	8d 8f f8 03 00
	00		 lea	 ecx, DWORD PTR [edi+1016]
  0006a	e8 00 00 00 00	 call	 ?RemoveAll@CObList@@QAEXXZ ; CObList::RemoveAll

; 80   : }

  0006f	8d 8f 44 04 00
	00		 lea	 ecx, DWORD PTR [edi+1092]
  00075	ff 15 00 00 00
	00		 call	 DWORD PTR __imp_??1?$CStringT@DV?$StrTraitMFC_DLL@DV?$ChTraitsCRT@D@ATL@@@@@ATL@@QAE@XZ
  0007b	8d 8f 1c 04 00
	00		 lea	 ecx, DWORD PTR [edi+1052]
  00081	e8 00 00 00 00	 call	 ??1CObList@@UAE@XZ	; CObList::~CObList
  00086	8d 8f f8 03 00
	00		 lea	 ecx, DWORD PTR [edi+1016]
  0008c	e8 00 00 00 00	 call	 ??1CObList@@UAE@XZ	; CObList::~CObList
  00091	8d 8f e4 03 00
	00		 lea	 ecx, DWORD PTR [edi+996]
  00097	e8 00 00 00 00	 call	 ??1?$CArray@VCData@@V1@@@UAE@XZ ; CArray<CData,CData>::~CArray<CData,CData>
  0009c	8d 8f d8 03 00
	00		 lea	 ecx, DWORD PTR [edi+984]
; File C:\Program Files (x86)\Microsoft Visual Studio\2019\Community\VC\Tools\MSVC\14.29.30133\atlmfc\include\afxwin1.inl

; 130  : 	{ }

  000a2	c7 01 00 00 00
	00		 mov	 DWORD PTR [ecx], OFFSET ??_7CBrush@@6B@
  000a8	e8 00 00 00 00	 call	 ??1CGdiObject@@UAE@XZ	; CGdiObject::~CGdiObject
; File D:\git\src\IBK\IBK_DRFN\ProjSrc\SrcChartEx\ChartAddIn\ChartDataListViewerAddIn\ChartDataListViewerAddIn\DlgDataListViewer.cpp

; 80   : }

  000ad	8d 8f d0 03 00
	00		 lea	 ecx, DWORD PTR [edi+976]
  000b3	ff 15 00 00 00
	00		 call	 DWORD PTR __imp_??1?$CStringT@DV?$StrTraitMFC_DLL@DV?$ChTraitsCRT@D@ATL@@@@@ATL@@QAE@XZ
  000b9	8d 8f cc 03 00
	00		 lea	 ecx, DWORD PTR [edi+972]
  000bf	ff 15 00 00 00
	00		 call	 DWORD PTR __imp_??1?$CStringT@DV?$StrTraitMFC_DLL@DV?$ChTraitsCRT@D@ATL@@@@@ATL@@QAE@XZ
  000c5	8d 8f c8 03 00
	00		 lea	 ecx, DWORD PTR [edi+968]
  000cb	ff 15 00 00 00
	00		 call	 DWORD PTR __imp_??1?$CStringT@DV?$StrTraitMFC_DLL@DV?$ChTraitsCRT@D@ATL@@@@@ATL@@QAE@XZ
  000d1	8d 8f c4 03 00
	00		 lea	 ecx, DWORD PTR [edi+964]
  000d7	ff 15 00 00 00
	00		 call	 DWORD PTR __imp_??1?$CStringT@DV?$StrTraitMFC_DLL@DV?$ChTraitsCRT@D@ATL@@@@@ATL@@QAE@XZ
  000dd	8d 8f bc 03 00
	00		 lea	 ecx, DWORD PTR [edi+956]
  000e3	ff 15 00 00 00
	00		 call	 DWORD PTR __imp_??1?$CStringT@DV?$StrTraitMFC_DLL@DV?$ChTraitsCRT@D@ATL@@@@@ATL@@QAE@XZ
  000e9	8d 8f 38 03 00
	00		 lea	 ecx, DWORD PTR [edi+824]
  000ef	e8 00 00 00 00	 call	 ??1CHeaderCtrlEx@@UAE@XZ ; CHeaderCtrlEx::~CHeaderCtrlEx
  000f4	8d 8f b8 02 00
	00		 lea	 ecx, DWORD PTR [edi+696]
  000fa	e8 00 00 00 00	 call	 ??1CListCtrl@@UAE@XZ	; CListCtrl::~CListCtrl
  000ff	8d 8f 38 02 00
	00		 lea	 ecx, DWORD PTR [edi+568]
  00105	e8 00 00 00 00	 call	 ??1CButton@@UAE@XZ	; CButton::~CButton
  0010a	8d 8f b8 01 00
	00		 lea	 ecx, DWORD PTR [edi+440]
  00110	e8 00 00 00 00	 call	 ??1CButton@@UAE@XZ	; CButton::~CButton
  00115	8d 8f 38 01 00
	00		 lea	 ecx, DWORD PTR [edi+312]
  0011b	e8 00 00 00 00	 call	 ??1CButton@@UAE@XZ	; CButton::~CButton
  00120	8d 8f b8 00 00
	00		 lea	 ecx, DWORD PTR [edi+184]
  00126	e8 00 00 00 00	 call	 ??1CButton@@UAE@XZ	; CButton::~CButton
  0012b	8b cf		 mov	 ecx, edi
  0012d	e8 00 00 00 00	 call	 ??1CDialog@@UAE@XZ	; CDialog::~CDialog
  00132	8b 45 08	 mov	 eax, DWORD PTR ___flags$[ebp]
  00135	a8 01		 test	 al, 1
  00137	74 1d		 je	 SHORT $LN30@scalar
  00139	a8 04		 test	 al, 4
  0013b	75 0b		 jne	 SHORT $LN3@scalar
; File C:\Program Files (x86)\Microsoft Visual Studio\2019\Community\VC\Tools\MSVC\14.29.30133\atlmfc\include\afx.inl

; 112  : 	{ ::operator delete(p); }

  0013d	57		 push	 edi
  0013e	e8 00 00 00 00	 call	 ??3@YAXPAX@Z		; operator delete
  00143	83 c4 04	 add	 esp, 4
  00146	eb 0e		 jmp	 SHORT $LN30@scalar
$LN3@scalar:
  00148	68 50 04 00 00	 push	 1104			; 00000450H
  0014d	57		 push	 edi
  0014e	e8 00 00 00 00	 call	 ?__global_delete@@YAXPAXI@Z ; __global_delete
  00153	83 c4 08	 add	 esp, 8
$LN30@scalar:
  00156	8b c7		 mov	 eax, edi
  00158	8b 4d f4	 mov	 ecx, DWORD PTR __$EHRec$[ebp]
  0015b	64 89 0d 00 00
	00 00		 mov	 DWORD PTR fs:0, ecx
  00162	59		 pop	 ecx
  00163	5f		 pop	 edi
  00164	5e		 pop	 esi
  00165	8b e5		 mov	 esp, ebp
  00167	5d		 pop	 ebp
  00168	c2 04 00	 ret	 4
  0016b	cc		 int	 3
  0016c	cc		 int	 3
  0016d	cc		 int	 3
  0016e	cc		 int	 3
  0016f	cc		 int	 3
_TEXT	ENDS
;	COMDAT text$x
text$x	SEGMENT
__ehhandler$??_GCDlgDataListViewer@@UAEPAXI@Z:
  00000	90		 npad	 1
  00001	90		 npad	 1
  00002	8b 54 24 08	 mov	 edx, DWORD PTR [esp+8]
  00006	8d 42 0c	 lea	 eax, DWORD PTR [edx+12]
  00009	8b 4a f4	 mov	 ecx, DWORD PTR [edx-12]
  0000c	33 c8		 xor	 ecx, eax
  0000e	e8 00 00 00 00	 call	 @__security_check_cookie@4
  00013	b8 00 00 00 00	 mov	 eax, OFFSET __ehfuncinfo$??_GCDlgDataListViewer@@UAEPAXI@Z
  00018	e9 00 00 00 00	 jmp	 ___CxxFrameHandler3
text$x	ENDS
??_GCDlgDataListViewer@@UAEPAXI@Z ENDP			; CDlgDataListViewer::`scalar deleting destructor'
; Function compile flags: /Ogtp
; File D:\git\src\IBK\IBK_DRFN\ProjSrc\SrcChartEx\ChartAddIn\ChartDataListViewerAddIn\ChartDataListViewerAddIn\DlgDataListViewer.cpp
; File C:\Program Files (x86)\Microsoft Visual Studio\2019\Community\VC\Tools\MSVC\14.29.30133\atlmfc\include\atlsimpstr.h
; File D:\git\src\IBK\IBK_DRFN\ProjSrc\SrcChartEx\ChartAddIn\ChartDataListViewerAddIn\ChartDataListViewerAddIn\DlgDataListViewer.cpp
; File C:\Program Files (x86)\Microsoft Visual Studio\2019\Community\VC\Tools\MSVC\14.29.30133\atlmfc\include\atlsimpstr.h
; File D:\git\src\IBK\IBK_DRFN\ProjSrc\SrcChartEx\ChartAddIn\ChartDataListViewerAddIn\ChartDataListViewerAddIn\DlgDataListViewer.cpp
; File C:\Program Files (x86)\Microsoft Visual Studio\2019\Community\VC\Tools\MSVC\14.29.30133\atlmfc\include\atlsimpstr.h
; File D:\git\src\IBK\IBK_DRFN\ProjSrc\SrcChartEx\ChartAddIn\ChartDataListViewerAddIn\ChartDataListViewerAddIn\DlgDataListViewer.cpp
; File C:\Program Files (x86)\Microsoft Visual Studio\2019\Community\VC\Tools\MSVC\14.29.30133\atlmfc\include\cstringt.h
; File D:\git\src\IBK\IBK_DRFN\ProjSrc\SrcChartEx\ChartAddIn\ChartDataListViewerAddIn\ChartDataListViewerAddIn\DlgDataListViewer.cpp
; File C:\Program Files (x86)\Microsoft Visual Studio\2019\Community\VC\Tools\MSVC\14.29.30133\atlmfc\include\cstringt.h
; File D:\git\src\IBK\IBK_DRFN\ProjSrc\SrcChartEx\ChartAddIn\ChartDataListViewerAddIn\ChartDataListViewerAddIn\DlgDataListViewer.cpp
; File C:\Program Files (x86)\Microsoft Visual Studio\2019\Community\VC\Tools\MSVC\14.29.30133\atlmfc\include\cstringt.h
; File D:\git\src\IBK\IBK_DRFN\ProjSrc\SrcChartEx\ChartAddIn\ChartDataListViewerAddIn\ChartDataListViewerAddIn\DlgDataListViewer.cpp
; File C:\Program Files (x86)\Microsoft Visual Studio\2019\Community\VC\Tools\MSVC\14.29.30133\atlmfc\include\atlsimpstr.h
; File D:\git\src\IBK\IBK_DRFN\ProjSrc\SrcChartEx\ChartAddIn\ChartDataListViewerAddIn\ChartDataListViewerAddIn\DlgDataListViewer.cpp
; File C:\Program Files (x86)\Microsoft Visual Studio\2019\Community\VC\Tools\MSVC\14.29.30133\atlmfc\include\atlsimpstr.h
; File D:\git\src\IBK\IBK_DRFN\ProjSrc\SrcChartEx\ChartAddIn\ChartDataListViewerAddIn\ChartDataListViewerAddIn\DlgDataListViewer.cpp
;	COMDAT ?CommaStr@CDlgDataListViewer@@QAE?AV?$CStringT@DV?$StrTraitMFC_DLL@DV?$ChTraitsCRT@D@ATL@@@@@ATL@@V23@@Z
_TEXT	SEGMENT
_nLength$1$ = -28					; size = 4
tv295 = -24						; size = 4
$T2 = -24						; size = 4
$T3 = -24						; size = 4
$T4 = -20						; size = 4
_nUnderPoint$1$ = -16					; size = 4
__$EHRec$ = -12						; size = 12
___$ReturnUdt$ = 8					; size = 4
_in$ = 12						; size = 4
?CommaStr@CDlgDataListViewer@@QAE?AV?$CStringT@DV?$StrTraitMFC_DLL@DV?$ChTraitsCRT@D@ATL@@@@@ATL@@V23@@Z PROC ; CDlgDataListViewer::CommaStr, COMDAT
; _this$ = ecx

; 1590 : {

  00000	55		 push	 ebp
  00001	8b ec		 mov	 ebp, esp
  00003	6a ff		 push	 -1
  00005	68 00 00 00 00	 push	 __ehhandler$?CommaStr@CDlgDataListViewer@@QAE?AV?$CStringT@DV?$StrTraitMFC_DLL@DV?$ChTraitsCRT@D@ATL@@@@@ATL@@V23@@Z
  0000a	64 a1 00 00 00
	00		 mov	 eax, DWORD PTR fs:0
  00010	50		 push	 eax
  00011	83 ec 10	 sub	 esp, 16			; 00000010H
  00014	53		 push	 ebx
  00015	56		 push	 esi
  00016	57		 push	 edi
  00017	a1 00 00 00 00	 mov	 eax, DWORD PTR ___security_cookie
  0001c	33 c5		 xor	 eax, ebp
  0001e	50		 push	 eax
  0001f	8d 45 f4	 lea	 eax, DWORD PTR __$EHRec$[ebp]
  00022	64 a3 00 00 00
	00		 mov	 DWORD PTR fs:0, eax
  00028	c7 45 ec 00 00
	00 00		 mov	 DWORD PTR $T4[ebp], 0

; 1591 : 	int NumOfComma, nPoint, nUnderPoint = 0, nLength;
; 1592 : 	CString out = in;

  0002f	8b 5d 08	 mov	 ebx, DWORD PTR ___$ReturnUdt$[ebp]
  00032	8d 45 0c	 lea	 eax, DWORD PTR _in$[ebp]
  00035	33 f6		 xor	 esi, esi
  00037	c7 45 fc 01 00
	00 00		 mov	 DWORD PTR __$EHRec$[ebp+8], 1
  0003e	50		 push	 eax
  0003f	8b cb		 mov	 ecx, ebx
  00041	89 75 f0	 mov	 DWORD PTR _nUnderPoint$1$[ebp], esi
  00044	ff 15 00 00 00
	00		 call	 DWORD PTR __imp_??0?$CStringT@DV?$StrTraitMFC_DLL@DV?$ChTraitsCRT@D@ATL@@@@@ATL@@QAE@ABV01@@Z

; 1603 : 	}
; 1604 : 	return out;

  0004a	56		 push	 esi
  0004b	68 00 00 00 00	 push	 OFFSET ??_C@_01LFCBOECM@?4@
  00050	8b cb		 mov	 ecx, ebx
  00052	c7 45 ec 01 00
	00 00		 mov	 DWORD PTR $T4[ebp], 1
  00059	ff 15 00 00 00
	00		 call	 DWORD PTR __imp_?Find@?$CStringT@DV?$StrTraitMFC_DLL@DV?$ChTraitsCRT@D@ATL@@@@@ATL@@QBEHPBDH@Z
  0005f	8b c8		 mov	 ecx, eax
  00061	85 c9		 test	 ecx, ecx
  00063	78 0a		 js	 SHORT $LN5@CommaStr
; File C:\Program Files (x86)\Microsoft Visual Studio\2019\Community\VC\Tools\MSVC\14.29.30133\atlmfc\include\atlsimpstr.h

; 519  : 		return( GetData()->nDataLength );

  00065	8b 03		 mov	 eax, DWORD PTR [ebx]
  00067	8b 70 f4	 mov	 esi, DWORD PTR [eax-12]
; File D:\git\src\IBK\IBK_DRFN\ProjSrc\SrcChartEx\ChartAddIn\ChartDataListViewerAddIn\ChartDataListViewerAddIn\DlgDataListViewer.cpp

; 1595 : 	if(nPoint >= 0)	nUnderPoint = out.GetLength() - nPoint;

  0006a	2b f1		 sub	 esi, ecx
  0006c	89 75 f0	 mov	 DWORD PTR _nUnderPoint$1$[ebp], esi
$LN5@CommaStr:
; File C:\Program Files (x86)\Microsoft Visual Studio\2019\Community\VC\Tools\MSVC\14.29.30133\atlmfc\include\atlsimpstr.h

; 519  : 		return( GetData()->nDataLength );

  0006f	8b 03		 mov	 eax, DWORD PTR [ebx]
; File D:\git\src\IBK\IBK_DRFN\ProjSrc\SrcChartEx\ChartAddIn\ChartDataListViewerAddIn\ChartDataListViewerAddIn\DlgDataListViewer.cpp

; 1598 : 	NumOfComma = (nLength - ((in.Left(1) == "-")?1:0))/ 3;	//    . 

  00071	8d 4d 0c	 lea	 ecx, DWORD PTR _in$[ebp]
  00074	6a 01		 push	 1
; File C:\Program Files (x86)\Microsoft Visual Studio\2019\Community\VC\Tools\MSVC\14.29.30133\atlmfc\include\atlsimpstr.h

; 519  : 		return( GetData()->nDataLength );

  00076	8b 58 f4	 mov	 ebx, DWORD PTR [eax-12]
; File D:\git\src\IBK\IBK_DRFN\ProjSrc\SrcChartEx\ChartAddIn\ChartDataListViewerAddIn\ChartDataListViewerAddIn\DlgDataListViewer.cpp

; 1598 : 	NumOfComma = (nLength - ((in.Left(1) == "-")?1:0))/ 3;	//    . 

  00079	8d 45 e8	 lea	 eax, DWORD PTR $T3[ebp]
  0007c	2b de		 sub	 ebx, esi
  0007e	50		 push	 eax
  0007f	89 5d e4	 mov	 DWORD PTR _nLength$1$[ebp], ebx
  00082	ff 15 00 00 00
	00		 call	 DWORD PTR __imp_?Left@?$CStringT@DV?$StrTraitMFC_DLL@DV?$ChTraitsCRT@D@ATL@@@@@ATL@@QBE?AV12@H@Z
; File C:\Program Files (x86)\Microsoft Visual Studio\2019\Community\VC\Tools\MSVC\14.29.30133\atlmfc\include\cstringt.h

; 2486 : 		return(str1.Compare(psz2) == 0);

  00088	68 00 00 00 00	 push	 OFFSET ??_C@_01JOAMLHOP@?9@
  0008d	8b c8		 mov	 ecx, eax
; File D:\git\src\IBK\IBK_DRFN\ProjSrc\SrcChartEx\ChartAddIn\ChartDataListViewerAddIn\ChartDataListViewerAddIn\DlgDataListViewer.cpp

; 1598 : 	NumOfComma = (nLength - ((in.Left(1) == "-")?1:0))/ 3;	//    . 

  0008f	c6 45 fc 02	 mov	 BYTE PTR __$EHRec$[ebp+8], 2
; File C:\Program Files (x86)\Microsoft Visual Studio\2019\Community\VC\Tools\MSVC\14.29.30133\atlmfc\include\cstringt.h

; 2486 : 		return(str1.Compare(psz2) == 0);

  00093	ff 15 00 00 00
	00		 call	 DWORD PTR __imp_?Compare@?$CStringT@DV?$StrTraitMFC_DLL@DV?$ChTraitsCRT@D@ATL@@@@@ATL@@QBEHPBD@Z
; File D:\git\src\IBK\IBK_DRFN\ProjSrc\SrcChartEx\ChartAddIn\ChartDataListViewerAddIn\ChartDataListViewerAddIn\DlgDataListViewer.cpp

; 1598 : 	NumOfComma = (nLength - ((in.Left(1) == "-")?1:0))/ 3;	//    . 

  00099	f7 d8		 neg	 eax
  0009b	c6 45 fc 01	 mov	 BYTE PTR __$EHRec$[ebp+8], 1
  0009f	8b cb		 mov	 ecx, ebx
  000a1	1b c0		 sbb	 eax, eax
  000a3	40		 inc	 eax
  000a4	2b c8		 sub	 ecx, eax
  000a6	b8 56 55 55 55	 mov	 eax, 1431655766		; 55555556H
  000ab	f7 e9		 imul	 ecx
  000ad	8d 4d e8	 lea	 ecx, DWORD PTR $T3[ebp]
  000b0	8b da		 mov	 ebx, edx
  000b2	c1 eb 1f	 shr	 ebx, 31			; 0000001fH
  000b5	03 da		 add	 ebx, edx
  000b7	ff 15 00 00 00
	00		 call	 DWORD PTR __imp_??1?$CStringT@DV?$StrTraitMFC_DLL@DV?$ChTraitsCRT@D@ATL@@@@@ATL@@QAE@XZ

; 1599 : 	if((in.GetLength() - nUnderPoint - ((in.Left(1) == "-")?1:0))% 3 == 0)NumOfComma--;	//   ,   1 

  000bd	6a 01		 push	 1
  000bf	8d 45 e8	 lea	 eax, DWORD PTR $T2[ebp]
  000c2	50		 push	 eax
  000c3	8d 4d 0c	 lea	 ecx, DWORD PTR _in$[ebp]
  000c6	ff 15 00 00 00
	00		 call	 DWORD PTR __imp_?Left@?$CStringT@DV?$StrTraitMFC_DLL@DV?$ChTraitsCRT@D@ATL@@@@@ATL@@QBE?AV12@H@Z
; File C:\Program Files (x86)\Microsoft Visual Studio\2019\Community\VC\Tools\MSVC\14.29.30133\atlmfc\include\cstringt.h

; 2486 : 		return(str1.Compare(psz2) == 0);

  000cc	68 00 00 00 00	 push	 OFFSET ??_C@_01JOAMLHOP@?9@
  000d1	8b c8		 mov	 ecx, eax
  000d3	ff 15 00 00 00
	00		 call	 DWORD PTR __imp_?Compare@?$CStringT@DV?$StrTraitMFC_DLL@DV?$ChTraitsCRT@D@ATL@@@@@ATL@@QBEHPBD@Z
  000d9	8b f0		 mov	 esi, eax
; File D:\git\src\IBK\IBK_DRFN\ProjSrc\SrcChartEx\ChartAddIn\ChartDataListViewerAddIn\ChartDataListViewerAddIn\DlgDataListViewer.cpp

; 1599 : 	if((in.GetLength() - nUnderPoint - ((in.Left(1) == "-")?1:0))% 3 == 0)NumOfComma--;	//   ,   1 

  000db	8d 4d e8	 lea	 ecx, DWORD PTR $T2[ebp]
; File C:\Program Files (x86)\Microsoft Visual Studio\2019\Community\VC\Tools\MSVC\14.29.30133\atlmfc\include\atlsimpstr.h

; 519  : 		return( GetData()->nDataLength );

  000de	8b 45 0c	 mov	 eax, DWORD PTR _in$[ebp]
  000e1	8b 78 f4	 mov	 edi, DWORD PTR [eax-12]
; File D:\git\src\IBK\IBK_DRFN\ProjSrc\SrcChartEx\ChartAddIn\ChartDataListViewerAddIn\ChartDataListViewerAddIn\DlgDataListViewer.cpp

; 1599 : 	if((in.GetLength() - nUnderPoint - ((in.Left(1) == "-")?1:0))% 3 == 0)NumOfComma--;	//   ,   1 

  000e4	ff 15 00 00 00
	00		 call	 DWORD PTR __imp_??1?$CStringT@DV?$StrTraitMFC_DLL@DV?$ChTraitsCRT@D@ATL@@@@@ATL@@QAE@XZ
  000ea	33 c0		 xor	 eax, eax
  000ec	b9 03 00 00 00	 mov	 ecx, 3
  000f1	85 f6		 test	 esi, esi
  000f3	0f 94 c0	 sete	 al

; 1600 : 	for(int i=0;i<NumOfComma;i++)

  000f6	2b f8		 sub	 edi, eax
  000f8	2b 7d f0	 sub	 edi, DWORD PTR _nUnderPoint$1$[ebp]
  000fb	8b c7		 mov	 eax, edi
  000fd	8b 7d 08	 mov	 edi, DWORD PTR ___$ReturnUdt$[ebp]
  00100	99		 cdq
  00101	f7 f9		 idiv	 ecx
  00103	8d 43 ff	 lea	 eax, DWORD PTR [ebx-1]
  00106	85 d2		 test	 edx, edx
  00108	0f 45 c3	 cmovne	 eax, ebx
  0010b	8b d8		 mov	 ebx, eax
  0010d	89 45 e8	 mov	 DWORD PTR tv295[ebp], eax
  00110	85 db		 test	 ebx, ebx
  00112	7e 22		 jle	 SHORT $LN3@CommaStr
; File C:\Program Files (x86)\Microsoft Visual Studio\2019\Community\VC\Tools\MSVC\14.29.30133\atlmfc\include\atlsimpstr.h

; 519  : 		return( GetData()->nDataLength );

  00114	8b 75 e4	 mov	 esi, DWORD PTR _nLength$1$[ebp]
  00117	83 c6 fd	 add	 esi, -3			; fffffffdH
  0011a	66 0f 1f 44 00
	00		 npad	 6
$LL4@CommaStr:
; File D:\git\src\IBK\IBK_DRFN\ProjSrc\SrcChartEx\ChartAddIn\ChartDataListViewerAddIn\ChartDataListViewerAddIn\DlgDataListViewer.cpp

; 1602 : 		out.Insert(nLength - (3*i+3), ",");

  00120	68 00 00 00 00	 push	 OFFSET ??_C@_01IHBHIGKO@?0@
  00125	56		 push	 esi
  00126	8b cf		 mov	 ecx, edi
  00128	ff 15 00 00 00
	00		 call	 DWORD PTR __imp_?Insert@?$CStringT@DV?$StrTraitMFC_DLL@DV?$ChTraitsCRT@D@ATL@@@@@ATL@@QAEHHPBD@Z
  0012e	83 ee 03	 sub	 esi, 3
  00131	83 eb 01	 sub	 ebx, 1
  00134	75 ea		 jne	 SHORT $LL4@CommaStr
$LN3@CommaStr:

; 1603 : 	}
; 1604 : 	return out;

  00136	8d 4d 0c	 lea	 ecx, DWORD PTR _in$[ebp]
  00139	ff 15 00 00 00
	00		 call	 DWORD PTR __imp_??1?$CStringT@DV?$StrTraitMFC_DLL@DV?$ChTraitsCRT@D@ATL@@@@@ATL@@QAE@XZ
  0013f	8b c7		 mov	 eax, edi

; 1605 : }

  00141	8b 4d f4	 mov	 ecx, DWORD PTR __$EHRec$[ebp]
  00144	64 89 0d 00 00
	00 00		 mov	 DWORD PTR fs:0, ecx
  0014b	59		 pop	 ecx
  0014c	5f		 pop	 edi
  0014d	5e		 pop	 esi
  0014e	5b		 pop	 ebx
  0014f	8b e5		 mov	 esp, ebp
  00151	5d		 pop	 ebp
  00152	c2 08 00	 ret	 8
_TEXT	ENDS
;	COMDAT text$x
text$x	SEGMENT
__unwindfunclet$?CommaStr@CDlgDataListViewer@@QAE?AV?$CStringT@DV?$StrTraitMFC_DLL@DV?$ChTraitsCRT@D@ATL@@@@@ATL@@V23@@Z$0:
  00000	8d 4d 0c	 lea	 ecx, DWORD PTR _in$[ebp]
  00003	ff 25 00 00 00
	00		 jmp	 DWORD PTR __imp_??1?$CStringT@DV?$StrTraitMFC_DLL@DV?$ChTraitsCRT@D@ATL@@@@@ATL@@QAE@XZ
__unwindfunclet$?CommaStr@CDlgDataListViewer@@QAE?AV?$CStringT@DV?$StrTraitMFC_DLL@DV?$ChTraitsCRT@D@ATL@@@@@ATL@@V23@@Z$1:
  00009	8b 45 ec	 mov	 eax, DWORD PTR $T4[ebp]
  0000c	83 e0 01	 and	 eax, 1
  0000f	0f 84 0d 00 00
	00		 je	 $LN10@CommaStr
  00015	83 65 ec fe	 and	 DWORD PTR $T4[ebp], -2	; fffffffeH
  00019	8b 4d 08	 mov	 ecx, DWORD PTR ___$ReturnUdt$[ebp]
  0001c	ff 25 00 00 00
	00		 jmp	 DWORD PTR __imp_??1?$CStringT@DV?$StrTraitMFC_DLL@DV?$ChTraitsCRT@D@ATL@@@@@ATL@@QAE@XZ
$LN10@CommaStr:
  00022	c3		 ret	 0
__unwindfunclet$?CommaStr@CDlgDataListViewer@@QAE?AV?$CStringT@DV?$StrTraitMFC_DLL@DV?$ChTraitsCRT@D@ATL@@@@@ATL@@V23@@Z$2:
  00023	8d 4d e8	 lea	 ecx, DWORD PTR $T3[ebp]
  00026	ff 25 00 00 00
	00		 jmp	 DWORD PTR __imp_??1?$CStringT@DV?$StrTraitMFC_DLL@DV?$ChTraitsCRT@D@ATL@@@@@ATL@@QAE@XZ
  0002c	cc		 int	 3
  0002d	cc		 int	 3
  0002e	cc		 int	 3
  0002f	cc		 int	 3
  00030	cc		 int	 3
__ehhandler$?CommaStr@CDlgDataListViewer@@QAE?AV?$CStringT@DV?$StrTraitMFC_DLL@DV?$ChTraitsCRT@D@ATL@@@@@ATL@@V23@@Z:
  00031	90		 npad	 1
  00032	90		 npad	 1
  00033	8b 54 24 08	 mov	 edx, DWORD PTR [esp+8]
  00037	8d 42 0c	 lea	 eax, DWORD PTR [edx+12]
  0003a	8b 4a e0	 mov	 ecx, DWORD PTR [edx-32]
  0003d	33 c8		 xor	 ecx, eax
  0003f	e8 00 00 00 00	 call	 @__security_check_cookie@4
  00044	b8 00 00 00 00	 mov	 eax, OFFSET __ehfuncinfo$?CommaStr@CDlgDataListViewer@@QAE?AV?$CStringT@DV?$StrTraitMFC_DLL@DV?$ChTraitsCRT@D@ATL@@@@@ATL@@V23@@Z
  00049	e9 00 00 00 00	 jmp	 ___CxxFrameHandler3
text$x	ENDS
?CommaStr@CDlgDataListViewer@@QAE?AV?$CStringT@DV?$StrTraitMFC_DLL@DV?$ChTraitsCRT@D@ATL@@@@@ATL@@V23@@Z ENDP ; CDlgDataListViewer::CommaStr
; Function compile flags: /Ogtp
; File D:\git\src\IBK\IBK_DRFN\ProjSrc\SrcChartEx\ChartAddIn\ChartDataListViewerAddIn\ChartDataListViewerAddIn\DlgDataListViewer.cpp
; File C:\Program Files (x86)\Microsoft Visual Studio\2019\Community\VC\Tools\MSVC\14.29.30133\atlmfc\include\afxcmn.inl
; File D:\git\src\IBK\IBK_DRFN\ProjSrc\SrcChartEx\ChartAddIn\ChartDataListViewerAddIn\ChartDataListViewerAddIn\DlgDataListViewer.cpp
; File C:\Program Files (x86)\Microsoft Visual Studio\2019\Community\VC\Tools\MSVC\14.29.30133\atlmfc\include\afxcmn.inl
; File D:\git\src\IBK\IBK_DRFN\ProjSrc\SrcChartEx\ChartAddIn\ChartDataListViewerAddIn\ChartDataListViewerAddIn\DlgDataListViewer.cpp
; File C:\Program Files (x86)\Microsoft Visual Studio\2019\Community\VC\Tools\MSVC\14.29.30133\atlmfc\include\afxcmn.inl
; File D:\git\src\IBK\IBK_DRFN\ProjSrc\SrcChartEx\ChartAddIn\ChartDataListViewerAddIn\ChartDataListViewerAddIn\DlgDataListViewer.cpp
;	COMDAT ?EnsureVisible@CDlgDataListViewer@@QAEXXZ
_TEXT	SEGMENT
?EnsureVisible@CDlgDataListViewer@@QAEXXZ PROC		; CDlgDataListViewer::EnsureVisible, COMDAT
; _this$ = ecx

; 1334 : {

  00000	57		 push	 edi
  00001	8b f9		 mov	 edi, ecx

; 1335 : 	if(m_nFutureDateCount <= 0)

  00003	8b 87 e0 03 00
	00		 mov	 eax, DWORD PTR [edi+992]
  00009	85 c0		 test	 eax, eax
  0000b	7e 42		 jle	 SHORT $LN1@EnsureVisi
; File C:\Program Files (x86)\Microsoft Visual Studio\2019\Community\VC\Tools\MSVC\14.29.30133\atlmfc\include\afxcmn.inl

; 193  : 	{ ASSERT(::IsWindow(m_hWnd)); return (BOOL) ::SendMessage(m_hWnd, LVM_ENSUREVISIBLE, nItem, MAKELPARAM(bPartialOK, 0)); }

  0000d	56		 push	 esi
  0000e	8b 35 00 00 00
	00		 mov	 esi, DWORD PTR __imp__SendMessageA@16
  00014	6a 00		 push	 0
  00016	50		 push	 eax
  00017	68 13 10 00 00	 push	 4115			; 00001013H
  0001c	ff b7 d8 02 00
	00		 push	 DWORD PTR [edi+728]
  00022	ff d6		 call	 esi

; 229  : 	{ ASSERT(::IsWindow(m_hWnd)); return (int) ::SendMessage(m_hWnd, LVM_GETCOUNTPERPAGE, 0, 0); }

  00024	6a 00		 push	 0
  00026	6a 00		 push	 0
  00028	68 28 10 00 00	 push	 4136			; 00001028H
  0002d	ff b7 d8 02 00
	00		 push	 DWORD PTR [edi+728]
  00033	ff d6		 call	 esi
; File D:\git\src\IBK\IBK_DRFN\ProjSrc\SrcChartEx\ChartAddIn\ChartDataListViewerAddIn\ChartDataListViewerAddIn\DlgDataListViewer.cpp

; 1339 : 	int nLastIndex = m_nFutureDateCount + m_ctlList.GetCountPerPage() -1;

  00035	8b 8f e0 03 00
	00		 mov	 ecx, DWORD PTR [edi+992]
; File C:\Program Files (x86)\Microsoft Visual Studio\2019\Community\VC\Tools\MSVC\14.29.30133\atlmfc\include\afxcmn.inl

; 193  : 	{ ASSERT(::IsWindow(m_hWnd)); return (BOOL) ::SendMessage(m_hWnd, LVM_ENSUREVISIBLE, nItem, MAKELPARAM(bPartialOK, 0)); }

  0003b	6a 00		 push	 0
; File D:\git\src\IBK\IBK_DRFN\ProjSrc\SrcChartEx\ChartAddIn\ChartDataListViewerAddIn\ChartDataListViewerAddIn\DlgDataListViewer.cpp

; 1339 : 	int nLastIndex = m_nFutureDateCount + m_ctlList.GetCountPerPage() -1;

  0003d	49		 dec	 ecx
  0003e	03 c1		 add	 eax, ecx
; File C:\Program Files (x86)\Microsoft Visual Studio\2019\Community\VC\Tools\MSVC\14.29.30133\atlmfc\include\afxcmn.inl

; 193  : 	{ ASSERT(::IsWindow(m_hWnd)); return (BOOL) ::SendMessage(m_hWnd, LVM_ENSUREVISIBLE, nItem, MAKELPARAM(bPartialOK, 0)); }

  00040	50		 push	 eax
  00041	68 13 10 00 00	 push	 4115			; 00001013H
  00046	ff b7 d8 02 00
	00		 push	 DWORD PTR [edi+728]
  0004c	ff d6		 call	 esi
  0004e	5e		 pop	 esi
$LN1@EnsureVisi:
  0004f	5f		 pop	 edi
; File D:\git\src\IBK\IBK_DRFN\ProjSrc\SrcChartEx\ChartAddIn\ChartDataListViewerAddIn\ChartDataListViewerAddIn\DlgDataListViewer.cpp

; 1341 : }

  00050	c3		 ret	 0
?EnsureVisible@CDlgDataListViewer@@QAEXXZ ENDP		; CDlgDataListViewer::EnsureVisible
_TEXT	ENDS
; Function compile flags: /Ogtp
; File D:\git\src\IBK\IBK_DRFN\ProjSrc\SrcChartEx\ChartAddIn\ChartDataListViewerAddIn\ChartDataListViewerAddIn\DlgDataListViewer.cpp
;	COMDAT ?GetMaxCount@CDlgDataListViewer@@QBEHXZ
_TEXT	SEGMENT
$T2 = -36						; size = 4
_strRQs$ = -32						; size = 4
$T3 = -28						; size = 4
_strDateTimePF$ = -24					; size = 4
_strDateThreeLineBreak$ = -20				; size = 4
_strRQ$ = -16						; size = 4
__$EHRec$ = -12						; size = 12
?GetMaxCount@CDlgDataListViewer@@QBEHXZ PROC		; CDlgDataListViewer::GetMaxCount, COMDAT
; _this$ = ecx

; 1298 : {

  00000	55		 push	 ebp
  00001	8b ec		 mov	 ebp, esp
  00003	6a ff		 push	 -1
  00005	68 00 00 00 00	 push	 __ehhandler$?GetMaxCount@CDlgDataListViewer@@QBEHXZ
  0000a	64 a1 00 00 00
	00		 mov	 eax, DWORD PTR fs:0
  00010	50		 push	 eax
  00011	83 ec 18	 sub	 esp, 24			; 00000018H
  00014	53		 push	 ebx
  00015	56		 push	 esi
  00016	57		 push	 edi
  00017	a1 00 00 00 00	 mov	 eax, DWORD PTR ___security_cookie
  0001c	33 c5		 xor	 eax, ebp
  0001e	50		 push	 eax
  0001f	8d 45 f4	 lea	 eax, DWORD PTR __$EHRec$[ebp]
  00022	64 a3 00 00 00
	00		 mov	 DWORD PTR fs:0, eax
  00028	8b f9		 mov	 edi, ecx

; 1299 : 	if(m_pPacketList == NULL)

  0002a	83 bf c0 03 00
	00 00		 cmp	 DWORD PTR [edi+960], 0
  00031	75 14		 jne	 SHORT $LN2@GetMaxCoun

; 1300 : 		return 0;

  00033	33 c0		 xor	 eax, eax

; 1330 : }

  00035	8b 4d f4	 mov	 ecx, DWORD PTR __$EHRec$[ebp]
  00038	64 89 0d 00 00
	00 00		 mov	 DWORD PTR fs:0, ecx
  0003f	59		 pop	 ecx
  00040	5f		 pop	 edi
  00041	5e		 pop	 esi
  00042	5b		 pop	 ebx
  00043	8b e5		 mov	 esp, ebp
  00045	5d		 pop	 ebp
  00046	c3		 ret	 0
$LN2@GetMaxCoun:

; 1301 : 
; 1302 : 	//20081106  >>
; 1303 : 	CString strRQs = m_strRQs, strRQ;

  00047	8d 87 44 04 00
	00		 lea	 eax, DWORD PTR [edi+1092]
  0004d	50		 push	 eax
  0004e	8d 4d e0	 lea	 ecx, DWORD PTR _strRQs$[ebp]
  00051	ff 15 00 00 00
	00		 call	 DWORD PTR __imp_??0?$CStringT@DV?$StrTraitMFC_DLL@DV?$ChTraitsCRT@D@ATL@@@@@ATL@@QAE@ABV01@@Z
  00057	8d 4d f0	 lea	 ecx, DWORD PTR _strRQ$[ebp]
  0005a	c7 45 fc 00 00
	00 00		 mov	 DWORD PTR __$EHRec$[ebp+8], 0
  00061	ff 15 00 00 00
	00		 call	 DWORD PTR __imp_??0?$CStringT@DV?$StrTraitMFC_DLL@DV?$ChTraitsCRT@D@ATL@@@@@ATL@@QAE@XZ

; 1304 : 	strRQ = CDataConversion::GetStringData(strRQs, ";");

  00067	68 00 00 00 00	 push	 OFFSET ??_C@_01ICJEACDI@?$DL@
  0006c	8d 4d e4	 lea	 ecx, DWORD PTR $T3[ebp]
  0006f	c6 45 fc 01	 mov	 BYTE PTR __$EHRec$[ebp+8], 1
  00073	ff 15 00 00 00
	00		 call	 DWORD PTR __imp_??0?$CStringT@DV?$StrTraitMFC_DLL@DV?$ChTraitsCRT@D@ATL@@@@@ATL@@QAE@PBD@Z
  00079	6a 01		 push	 1
  0007b	8d 45 e4	 lea	 eax, DWORD PTR $T3[ebp]
  0007e	c6 45 fc 02	 mov	 BYTE PTR __$EHRec$[ebp+8], 2
  00082	50		 push	 eax
  00083	8d 45 e0	 lea	 eax, DWORD PTR _strRQs$[ebp]
  00086	50		 push	 eax
  00087	8d 45 dc	 lea	 eax, DWORD PTR $T2[ebp]
  0008a	50		 push	 eax
  0008b	e8 00 00 00 00	 call	 ?GetStringData@CDataConversion@@SA?AV?$CStringT@DV?$StrTraitMFC_DLL@DV?$ChTraitsCRT@D@ATL@@@@@ATL@@AAV23@ABV23@_N@Z ; CDataConversion::GetStringData
  00090	83 c4 10	 add	 esp, 16			; 00000010H
  00093	50		 push	 eax
  00094	8d 4d f0	 lea	 ecx, DWORD PTR _strRQ$[ebp]
  00097	c6 45 fc 03	 mov	 BYTE PTR __$EHRec$[ebp+8], 3
  0009b	ff 15 00 00 00
	00		 call	 DWORD PTR __imp_??4?$CStringT@DV?$StrTraitMFC_DLL@DV?$ChTraitsCRT@D@ATL@@@@@ATL@@QAEAAV01@ABV01@@Z
  000a1	8d 4d dc	 lea	 ecx, DWORD PTR $T2[ebp]
  000a4	ff 15 00 00 00
	00		 call	 DWORD PTR __imp_??1?$CStringT@DV?$StrTraitMFC_DLL@DV?$ChTraitsCRT@D@ATL@@@@@ATL@@QAE@XZ
  000aa	8d 4d e4	 lea	 ecx, DWORD PTR $T3[ebp]
  000ad	c6 45 fc 01	 mov	 BYTE PTR __$EHRec$[ebp+8], 1
  000b1	ff 15 00 00 00
	00		 call	 DWORD PTR __imp_??1?$CStringT@DV?$StrTraitMFC_DLL@DV?$ChTraitsCRT@D@ATL@@@@@ATL@@QAE@XZ

; 1305 : 	IPacket * pPacketheader = m_pPacketList->GetPacket( strRQ, m_strHorzScale);

  000b7	8b 8f c0 03 00
	00		 mov	 ecx, DWORD PTR [edi+960]
  000bd	ff b7 bc 03 00
	00		 push	 DWORD PTR [edi+956]
  000c3	ff 75 f0	 push	 DWORD PTR _strRQ$[ebp]
  000c6	8b 01		 mov	 eax, DWORD PTR [ecx]
  000c8	ff 50 10	 call	 DWORD PTR [eax+16]
  000cb	8b c8		 mov	 ecx, eax

; 1306 : 	if( !pPacketheader)

  000cd	85 c9		 test	 ecx, ecx
  000cf	75 07		 jne	 SHORT $LN3@GetMaxCoun
  000d1	33 db		 xor	 ebx, ebx
  000d3	e9 af 00 00 00	 jmp	 $LN14@GetMaxCoun
$LN3@GetMaxCoun:

; 1307 : 		return 0;
; 1308 : 	
; 1309 : 	int nMaxPacketCount = pPacketheader->GetDataCount();

  000d8	8b 01		 mov	 eax, DWORD PTR [ecx]
  000da	ff 50 2c	 call	 DWORD PTR [eax+44]

; 1310 : 	//int nMaxPacketCount = m_pPacketList->GetMaximumDataCount();
; 1311 : 	//20081106  <<
; 1312 : 	
; 1313 : 	CString strDateTimePF, strDateThreeLineBreak;

  000dd	8d 4d e8	 lea	 ecx, DWORD PTR _strDateTimePF$[ebp]
  000e0	8b d8		 mov	 ebx, eax
  000e2	ff 15 00 00 00
	00		 call	 DWORD PTR __imp_??0?$CStringT@DV?$StrTraitMFC_DLL@DV?$ChTraitsCRT@D@ATL@@@@@ATL@@QAE@XZ
  000e8	8d 4d ec	 lea	 ecx, DWORD PTR _strDateThreeLineBreak$[ebp]
  000eb	ff 15 00 00 00
	00		 call	 DWORD PTR __imp_??0?$CStringT@DV?$StrTraitMFC_DLL@DV?$ChTraitsCRT@D@ATL@@@@@ATL@@QAE@XZ

; 1314 : 	strDateTimePF.Format("PF_%s", _MTEXT(C0_DATE_TIME));

  000f1	a1 54 00 00 00	 mov	 eax, DWORD PTR ?g_iMetaTable@@3VIMetaTable@@A+84
  000f6	8b 35 00 00 00
	00		 mov	 esi, DWORD PTR __imp_?Format@?$CStringT@DV?$StrTraitMFC_DLL@DV?$ChTraitsCRT@D@ATL@@@@@ATL@@QAAXPBDZZ
  000fc	c6 45 fc 05	 mov	 BYTE PTR __$EHRec$[ebp+8], 5
  00100	ff 30		 push	 DWORD PTR [eax]
  00102	8d 45 e8	 lea	 eax, DWORD PTR _strDateTimePF$[ebp]
  00105	68 00 00 00 00	 push	 OFFSET ??_C@_05DMPKEKII@PF_?$CFs@
  0010a	50		 push	 eax
  0010b	ff d6		 call	 esi

; 1315 : 	strDateThreeLineBreak.Format("ThreeLineBreak_%s", _MTEXT(C0_DATE_TIME));

  0010d	a1 54 00 00 00	 mov	 eax, DWORD PTR ?g_iMetaTable@@3VIMetaTable@@A+84
  00112	ff 30		 push	 DWORD PTR [eax]
  00114	8d 45 ec	 lea	 eax, DWORD PTR _strDateThreeLineBreak$[ebp]
  00117	68 00 00 00 00	 push	 OFFSET ??_C@_0BC@FHBJKGIO@ThreeLineBreak_?$CFs@
  0011c	50		 push	 eax
  0011d	ff d6		 call	 esi
  0011f	83 c4 18	 add	 esp, 24			; 00000018H

; 1316 : 	// if( m_strHorzScale.Find("PF_") >= 0 || m_strHorzScale.Find( "ThreeLineBreak_") >= 0)
; 1317 : 	if( m_strHorzScale.Find(strDateTimePF) >= 0 || m_strHorzScale.Find(strDateThreeLineBreak) >= 0)

  00122	8d 8f bc 03 00
	00		 lea	 ecx, DWORD PTR [edi+956]
  00128	6a 00		 push	 0
  0012a	ff 75 e8	 push	 DWORD PTR _strDateTimePF$[ebp]
  0012d	ff 15 00 00 00
	00		 call	 DWORD PTR __imp_?Find@?$CStringT@DV?$StrTraitMFC_DLL@DV?$ChTraitsCRT@D@ATL@@@@@ATL@@QBEHPBDH@Z
  00133	85 c0		 test	 eax, eax
  00135	79 15		 jns	 SHORT $LN5@GetMaxCoun
  00137	6a 00		 push	 0
  00139	ff 75 ec	 push	 DWORD PTR _strDateThreeLineBreak$[ebp]
  0013c	8d 8f bc 03 00
	00		 lea	 ecx, DWORD PTR [edi+956]
  00142	ff 15 00 00 00
	00		 call	 DWORD PTR __imp_?Find@?$CStringT@DV?$StrTraitMFC_DLL@DV?$ChTraitsCRT@D@ATL@@@@@ATL@@QBEHPBDH@Z
  00148	85 c0		 test	 eax, eax
  0014a	78 29		 js	 SHORT $LN6@GetMaxCoun
$LN5@GetMaxCoun:

; 1318 : 	{
; 1319 : 		//20081106  >>
; 1320 : 		//IPacket * pPacketheader = m_pPacketList->GetPacket(m_strHorzScale);
; 1321 : 		IPacket * pPacketheader = m_pPacketList->GetPacket(strRQ, m_strHorzScale);

  0014c	8b 8f c0 03 00
	00		 mov	 ecx, DWORD PTR [edi+960]
  00152	ff b7 bc 03 00
	00		 push	 DWORD PTR [edi+956]
  00158	ff 75 f0	 push	 DWORD PTR _strRQ$[ebp]
  0015b	8b 01		 mov	 eax, DWORD PTR [ecx]
  0015d	ff 50 10	 call	 DWORD PTR [eax+16]
  00160	8b f0		 mov	 esi, eax

; 1322 : 		//20081106  <<
; 1323 : 		if(pPacketheader != NULL)

  00162	85 f6		 test	 esi, esi
  00164	74 0f		 je	 SHORT $LN6@GetMaxCoun

; 1324 : 		{
; 1325 : 			nMaxPacketCount = pPacketheader->GetDataCount();

  00166	8b 16		 mov	 edx, DWORD PTR [esi]
  00168	8b ce		 mov	 ecx, esi
  0016a	ff 52 2c	 call	 DWORD PTR [edx+44]

; 1326 : 			pPacketheader->Release();

  0016d	8b 0e		 mov	 ecx, DWORD PTR [esi]
  0016f	8b d8		 mov	 ebx, eax
  00171	56		 push	 esi
  00172	ff 51 08	 call	 DWORD PTR [ecx+8]
$LN6@GetMaxCoun:

; 1327 : 		}
; 1328 : 	}
; 1329 : 	return nMaxPacketCount;

  00175	8d 4d ec	 lea	 ecx, DWORD PTR _strDateThreeLineBreak$[ebp]
  00178	ff 15 00 00 00
	00		 call	 DWORD PTR __imp_??1?$CStringT@DV?$StrTraitMFC_DLL@DV?$ChTraitsCRT@D@ATL@@@@@ATL@@QAE@XZ
  0017e	8d 4d e8	 lea	 ecx, DWORD PTR _strDateTimePF$[ebp]
  00181	ff 15 00 00 00
	00		 call	 DWORD PTR __imp_??1?$CStringT@DV?$StrTraitMFC_DLL@DV?$ChTraitsCRT@D@ATL@@@@@ATL@@QAE@XZ
$LN14@GetMaxCoun:
  00187	8d 4d f0	 lea	 ecx, DWORD PTR _strRQ$[ebp]
  0018a	ff 15 00 00 00
	00		 call	 DWORD PTR __imp_??1?$CStringT@DV?$StrTraitMFC_DLL@DV?$ChTraitsCRT@D@ATL@@@@@ATL@@QAE@XZ
  00190	8d 4d e0	 lea	 ecx, DWORD PTR _strRQs$[ebp]
  00193	ff 15 00 00 00
	00		 call	 DWORD PTR __imp_??1?$CStringT@DV?$StrTraitMFC_DLL@DV?$ChTraitsCRT@D@ATL@@@@@ATL@@QAE@XZ
  00199	8b c3		 mov	 eax, ebx

; 1330 : }

  0019b	8b 4d f4	 mov	 ecx, DWORD PTR __$EHRec$[ebp]
  0019e	64 89 0d 00 00
	00 00		 mov	 DWORD PTR fs:0, ecx
  001a5	59		 pop	 ecx
  001a6	5f		 pop	 edi
  001a7	5e		 pop	 esi
  001a8	5b		 pop	 ebx
  001a9	8b e5		 mov	 esp, ebp
  001ab	5d		 pop	 ebp
  001ac	c3		 ret	 0
_TEXT	ENDS
;	COMDAT text$x
text$x	SEGMENT
__unwindfunclet$?GetMaxCount@CDlgDataListViewer@@QBEHXZ$0:
  00000	8d 4d e0	 lea	 ecx, DWORD PTR _strRQs$[ebp]
  00003	ff 25 00 00 00
	00		 jmp	 DWORD PTR __imp_??1?$CStringT@DV?$StrTraitMFC_DLL@DV?$ChTraitsCRT@D@ATL@@@@@ATL@@QAE@XZ
__unwindfunclet$?GetMaxCount@CDlgDataListViewer@@QBEHXZ$1:
  00009	8d 4d f0	 lea	 ecx, DWORD PTR _strRQ$[ebp]
  0000c	ff 25 00 00 00
	00		 jmp	 DWORD PTR __imp_??1?$CStringT@DV?$StrTraitMFC_DLL@DV?$ChTraitsCRT@D@ATL@@@@@ATL@@QAE@XZ
__unwindfunclet$?GetMaxCount@CDlgDataListViewer@@QBEHXZ$2:
  00012	8d 4d e4	 lea	 ecx, DWORD PTR $T3[ebp]
  00015	ff 25 00 00 00
	00		 jmp	 DWORD PTR __imp_??1?$CStringT@DV?$StrTraitMFC_DLL@DV?$ChTraitsCRT@D@ATL@@@@@ATL@@QAE@XZ
__unwindfunclet$?GetMaxCount@CDlgDataListViewer@@QBEHXZ$3:
  0001b	8d 4d dc	 lea	 ecx, DWORD PTR $T2[ebp]
  0001e	ff 25 00 00 00
	00		 jmp	 DWORD PTR __imp_??1?$CStringT@DV?$StrTraitMFC_DLL@DV?$ChTraitsCRT@D@ATL@@@@@ATL@@QAE@XZ
__unwindfunclet$?GetMaxCount@CDlgDataListViewer@@QBEHXZ$4:
  00024	8d 4d e8	 lea	 ecx, DWORD PTR _strDateTimePF$[ebp]
  00027	ff 25 00 00 00
	00		 jmp	 DWORD PTR __imp_??1?$CStringT@DV?$StrTraitMFC_DLL@DV?$ChTraitsCRT@D@ATL@@@@@ATL@@QAE@XZ
__unwindfunclet$?GetMaxCount@CDlgDataListViewer@@QBEHXZ$5:
  0002d	8d 4d ec	 lea	 ecx, DWORD PTR _strDateThreeLineBreak$[ebp]
  00030	ff 25 00 00 00
	00		 jmp	 DWORD PTR __imp_??1?$CStringT@DV?$StrTraitMFC_DLL@DV?$ChTraitsCRT@D@ATL@@@@@ATL@@QAE@XZ
  00036	cc		 int	 3
  00037	cc		 int	 3
  00038	cc		 int	 3
  00039	cc		 int	 3
  0003a	cc		 int	 3
__ehhandler$?GetMaxCount@CDlgDataListViewer@@QBEHXZ:
  0003b	90		 npad	 1
  0003c	90		 npad	 1
  0003d	8b 54 24 08	 mov	 edx, DWORD PTR [esp+8]
  00041	8d 42 0c	 lea	 eax, DWORD PTR [edx+12]
  00044	8b 4a d8	 mov	 ecx, DWORD PTR [edx-40]
  00047	33 c8		 xor	 ecx, eax
  00049	e8 00 00 00 00	 call	 @__security_check_cookie@4
  0004e	b8 00 00 00 00	 mov	 eax, OFFSET __ehfuncinfo$?GetMaxCount@CDlgDataListViewer@@QBEHXZ
  00053	e9 00 00 00 00	 jmp	 ___CxxFrameHandler3
text$x	ENDS
?GetMaxCount@CDlgDataListViewer@@QBEHXZ ENDP		; CDlgDataListViewer::GetMaxCount
; Function compile flags: /Ogtp
; File D:\git\src\IBK\IBK_DRFN\ProjSrc\SrcChartEx\ChartAddIn\ChartDataListViewerAddIn\ChartDataListViewerAddIn\DlgDataListViewer.cpp
;	COMDAT ?InsertData_PacketSequence@CDlgDataListViewer@@QAEXXZ
_TEXT	SEGMENT
$T2 = -24						; size = 4
$T3 = -24						; size = 4
$T4 = -20						; size = 4
$T5 = -20						; size = 4
_szPacketNames$ = -16					; size = 4
__$EHRec$ = -12						; size = 12
?InsertData_PacketSequence@CDlgDataListViewer@@QAEXXZ PROC ; CDlgDataListViewer::InsertData_PacketSequence, COMDAT
; _this$ = ecx

; 235  : {

  00000	55		 push	 ebp
  00001	8b ec		 mov	 ebp, esp
  00003	6a ff		 push	 -1
  00005	68 00 00 00 00	 push	 __ehhandler$?InsertData_PacketSequence@CDlgDataListViewer@@QAEXXZ
  0000a	64 a1 00 00 00
	00		 mov	 eax, DWORD PTR fs:0
  00010	50		 push	 eax
  00011	83 ec 0c	 sub	 esp, 12			; 0000000cH
  00014	56		 push	 esi
  00015	a1 00 00 00 00	 mov	 eax, DWORD PTR ___security_cookie
  0001a	33 c5		 xor	 eax, ebp
  0001c	50		 push	 eax
  0001d	8d 45 f4	 lea	 eax, DWORD PTR __$EHRec$[ebp]
  00020	64 a3 00 00 00
	00		 mov	 DWORD PTR fs:0, eax
  00026	8b f1		 mov	 esi, ecx

; 236  : 	if(m_pPacketList == NULL)	return;

  00028	83 be c0 03 00
	00 00		 cmp	 DWORD PTR [esi+960], 0
  0002f	0f 84 b8 00 00
	00		 je	 $LN1@InsertData

; 237  : 
; 238  : 	CString szPacketNames = m_strPacketNames;

  00035	8d 86 c8 03 00
	00		 lea	 eax, DWORD PTR [esi+968]
  0003b	50		 push	 eax
  0003c	8d 4d f0	 lea	 ecx, DWORD PTR _szPacketNames$[ebp]
  0003f	ff 15 00 00 00
	00		 call	 DWORD PTR __imp_??0?$CStringT@DV?$StrTraitMFC_DLL@DV?$ChTraitsCRT@D@ATL@@@@@ATL@@QAE@ABV01@@Z

; 239  : 	m_strHorzScale = CDataConversion::GetStringData(szPacketNames, ",");

  00045	68 00 00 00 00	 push	 OFFSET ??_C@_01IHBHIGKO@?0@
  0004a	8d 4d ec	 lea	 ecx, DWORD PTR $T5[ebp]
  0004d	c7 45 fc 00 00
	00 00		 mov	 DWORD PTR __$EHRec$[ebp+8], 0
  00054	ff 15 00 00 00
	00		 call	 DWORD PTR __imp_??0?$CStringT@DV?$StrTraitMFC_DLL@DV?$ChTraitsCRT@D@ATL@@@@@ATL@@QAE@PBD@Z
  0005a	6a 01		 push	 1
  0005c	8d 45 ec	 lea	 eax, DWORD PTR $T5[ebp]
  0005f	c6 45 fc 01	 mov	 BYTE PTR __$EHRec$[ebp+8], 1
  00063	50		 push	 eax
  00064	8d 45 f0	 lea	 eax, DWORD PTR _szPacketNames$[ebp]
  00067	50		 push	 eax
  00068	8d 45 e8	 lea	 eax, DWORD PTR $T3[ebp]
  0006b	50		 push	 eax
  0006c	e8 00 00 00 00	 call	 ?GetStringData@CDataConversion@@SA?AV?$CStringT@DV?$StrTraitMFC_DLL@DV?$ChTraitsCRT@D@ATL@@@@@ATL@@AAV23@ABV23@_N@Z ; CDataConversion::GetStringData
  00071	83 c4 10	 add	 esp, 16			; 00000010H
  00074	50		 push	 eax
  00075	8d 8e bc 03 00
	00		 lea	 ecx, DWORD PTR [esi+956]
  0007b	c6 45 fc 02	 mov	 BYTE PTR __$EHRec$[ebp+8], 2
  0007f	ff 15 00 00 00
	00		 call	 DWORD PTR __imp_??4?$CStringT@DV?$StrTraitMFC_DLL@DV?$ChTraitsCRT@D@ATL@@@@@ATL@@QAEAAV01@ABV01@@Z
  00085	8d 4d e8	 lea	 ecx, DWORD PTR $T3[ebp]
  00088	ff 15 00 00 00
	00		 call	 DWORD PTR __imp_??1?$CStringT@DV?$StrTraitMFC_DLL@DV?$ChTraitsCRT@D@ATL@@@@@ATL@@QAE@XZ
  0008e	8d 4d ec	 lea	 ecx, DWORD PTR $T5[ebp]
  00091	c6 45 fc 00	 mov	 BYTE PTR __$EHRec$[ebp+8], 0
  00095	ff 15 00 00 00
	00		 call	 DWORD PTR __imp_??1?$CStringT@DV?$StrTraitMFC_DLL@DV?$ChTraitsCRT@D@ATL@@@@@ATL@@QAE@XZ

; 240  : 	InsertDatatoList("", szPacketNames, "");

  0009b	68 00 00 00 00	 push	 OFFSET ??_C@_00CNPNBAHC@@
  000a0	8d 4d e8	 lea	 ecx, DWORD PTR $T2[ebp]
  000a3	ff 15 00 00 00
	00		 call	 DWORD PTR __imp_??0?$CStringT@DV?$StrTraitMFC_DLL@DV?$ChTraitsCRT@D@ATL@@@@@ATL@@QAE@PBD@Z
  000a9	68 00 00 00 00	 push	 OFFSET ??_C@_00CNPNBAHC@@
  000ae	8d 4d ec	 lea	 ecx, DWORD PTR $T4[ebp]
  000b1	c6 45 fc 03	 mov	 BYTE PTR __$EHRec$[ebp+8], 3
  000b5	ff 15 00 00 00
	00		 call	 DWORD PTR __imp_??0?$CStringT@DV?$StrTraitMFC_DLL@DV?$ChTraitsCRT@D@ATL@@@@@ATL@@QAE@PBD@Z
  000bb	8d 45 e8	 lea	 eax, DWORD PTR $T2[ebp]
  000be	c6 45 fc 04	 mov	 BYTE PTR __$EHRec$[ebp+8], 4
  000c2	50		 push	 eax
  000c3	8d 45 f0	 lea	 eax, DWORD PTR _szPacketNames$[ebp]
  000c6	8b ce		 mov	 ecx, esi
  000c8	50		 push	 eax
  000c9	8d 45 ec	 lea	 eax, DWORD PTR $T4[ebp]
  000cc	50		 push	 eax
  000cd	e8 00 00 00 00	 call	 ?InsertDatatoList@CDlgDataListViewer@@QAEXABV?$CStringT@DV?$StrTraitMFC_DLL@DV?$ChTraitsCRT@D@ATL@@@@@ATL@@00@Z ; CDlgDataListViewer::InsertDatatoList
  000d2	8d 4d ec	 lea	 ecx, DWORD PTR $T4[ebp]
  000d5	ff 15 00 00 00
	00		 call	 DWORD PTR __imp_??1?$CStringT@DV?$StrTraitMFC_DLL@DV?$ChTraitsCRT@D@ATL@@@@@ATL@@QAE@XZ
  000db	8d 4d e8	 lea	 ecx, DWORD PTR $T2[ebp]
  000de	ff 15 00 00 00
	00		 call	 DWORD PTR __imp_??1?$CStringT@DV?$StrTraitMFC_DLL@DV?$ChTraitsCRT@D@ATL@@@@@ATL@@QAE@XZ

; 241  : }

  000e4	8d 4d f0	 lea	 ecx, DWORD PTR _szPacketNames$[ebp]
  000e7	ff 15 00 00 00
	00		 call	 DWORD PTR __imp_??1?$CStringT@DV?$StrTraitMFC_DLL@DV?$ChTraitsCRT@D@ATL@@@@@ATL@@QAE@XZ
$LN1@InsertData:
  000ed	8b 4d f4	 mov	 ecx, DWORD PTR __$EHRec$[ebp]
  000f0	64 89 0d 00 00
	00 00		 mov	 DWORD PTR fs:0, ecx
  000f7	59		 pop	 ecx
  000f8	5e		 pop	 esi
  000f9	8b e5		 mov	 esp, ebp
  000fb	5d		 pop	 ebp
  000fc	c3		 ret	 0
_TEXT	ENDS
;	COMDAT text$x
text$x	SEGMENT
__unwindfunclet$?InsertData_PacketSequence@CDlgDataListViewer@@QAEXXZ$0:
  00000	8d 4d f0	 lea	 ecx, DWORD PTR _szPacketNames$[ebp]
  00003	ff 25 00 00 00
	00		 jmp	 DWORD PTR __imp_??1?$CStringT@DV?$StrTraitMFC_DLL@DV?$ChTraitsCRT@D@ATL@@@@@ATL@@QAE@XZ
__unwindfunclet$?InsertData_PacketSequence@CDlgDataListViewer@@QAEXXZ$1:
  00009	8d 4d ec	 lea	 ecx, DWORD PTR $T5[ebp]
  0000c	ff 25 00 00 00
	00		 jmp	 DWORD PTR __imp_??1?$CStringT@DV?$StrTraitMFC_DLL@DV?$ChTraitsCRT@D@ATL@@@@@ATL@@QAE@XZ
__unwindfunclet$?InsertData_PacketSequence@CDlgDataListViewer@@QAEXXZ$2:
  00012	8d 4d e8	 lea	 ecx, DWORD PTR $T3[ebp]
  00015	ff 25 00 00 00
	00		 jmp	 DWORD PTR __imp_??1?$CStringT@DV?$StrTraitMFC_DLL@DV?$ChTraitsCRT@D@ATL@@@@@ATL@@QAE@XZ
__unwindfunclet$?InsertData_PacketSequence@CDlgDataListViewer@@QAEXXZ$3:
  0001b	8d 4d e8	 lea	 ecx, DWORD PTR $T2[ebp]
  0001e	ff 25 00 00 00
	00		 jmp	 DWORD PTR __imp_??1?$CStringT@DV?$StrTraitMFC_DLL@DV?$ChTraitsCRT@D@ATL@@@@@ATL@@QAE@XZ
__unwindfunclet$?InsertData_PacketSequence@CDlgDataListViewer@@QAEXXZ$4:
  00024	8d 4d ec	 lea	 ecx, DWORD PTR $T4[ebp]
  00027	ff 25 00 00 00
	00		 jmp	 DWORD PTR __imp_??1?$CStringT@DV?$StrTraitMFC_DLL@DV?$ChTraitsCRT@D@ATL@@@@@ATL@@QAE@XZ
  0002d	cc		 int	 3
  0002e	cc		 int	 3
  0002f	cc		 int	 3
  00030	cc		 int	 3
  00031	cc		 int	 3
__ehhandler$?InsertData_PacketSequence@CDlgDataListViewer@@QAEXXZ:
  00032	90		 npad	 1
  00033	90		 npad	 1
  00034	8b 54 24 08	 mov	 edx, DWORD PTR [esp+8]
  00038	8d 42 0c	 lea	 eax, DWORD PTR [edx+12]
  0003b	8b 4a ec	 mov	 ecx, DWORD PTR [edx-20]
  0003e	33 c8		 xor	 ecx, eax
  00040	e8 00 00 00 00	 call	 @__security_check_cookie@4
  00045	b8 00 00 00 00	 mov	 eax, OFFSET __ehfuncinfo$?InsertData_PacketSequence@CDlgDataListViewer@@QAEXXZ
  0004a	e9 00 00 00 00	 jmp	 ___CxxFrameHandler3
text$x	ENDS
?InsertData_PacketSequence@CDlgDataListViewer@@QAEXXZ ENDP ; CDlgDataListViewer::InsertData_PacketSequence
; Function compile flags: /Ogtp
; File D:\git\src\IBK\IBK_DRFN\ProjSrc\SrcChartEx\ChartAddIn\ChartDataListViewerAddIn\ChartDataListViewerAddIn\DlgDataListViewer.cpp
; File C:\Program Files (x86)\Microsoft Visual Studio\2019\Community\VC\Tools\MSVC\14.29.30133\atlmfc\include\atlsimpstr.h
; File D:\git\src\IBK\IBK_DRFN\ProjSrc\SrcChartEx\ChartAddIn\ChartDataListViewerAddIn\ChartDataListViewerAddIn\DlgDataListViewer.cpp
; File C:\Program Files (x86)\Microsoft Visual Studio\2019\Community\VC\Tools\MSVC\14.29.30133\atlmfc\include\atlsimpstr.h
; File D:\git\src\IBK\IBK_DRFN\ProjSrc\SrcChartEx\ChartAddIn\ChartDataListViewerAddIn\ChartDataListViewerAddIn\DlgDataListViewer.cpp
; File C:\Program Files (x86)\Microsoft Visual Studio\2019\Community\VC\Tools\MSVC\14.29.30133\atlmfc\include\atlsimpstr.h
; File D:\git\src\IBK\IBK_DRFN\ProjSrc\SrcChartEx\ChartAddIn\ChartDataListViewerAddIn\ChartDataListViewerAddIn\DlgDataListViewer.cpp
; File C:\Program Files (x86)\Microsoft Visual Studio\2019\Community\VC\Tools\MSVC\14.29.30133\atlmfc\include\atlsimpstr.h
; File D:\git\src\IBK\IBK_DRFN\ProjSrc\SrcChartEx\ChartAddIn\ChartDataListViewerAddIn\ChartDataListViewerAddIn\DlgDataListViewer.cpp
;	COMDAT ?MakeHeader_PacketSequence@CDlgDataListViewer@@QAEXXZ
_TEXT	SEGMENT
$T2 = -28						; size = 4
$T3 = -24						; size = 4
_szTemp$ = -20						; size = 4
_szPackets$ = -16					; size = 4
__$EHRec$ = -12						; size = 12
?MakeHeader_PacketSequence@CDlgDataListViewer@@QAEXXZ PROC ; CDlgDataListViewer::MakeHeader_PacketSequence, COMDAT
; _this$ = ecx

; 222  : {

  00000	55		 push	 ebp
  00001	8b ec		 mov	 ebp, esp
  00003	6a ff		 push	 -1
  00005	68 00 00 00 00	 push	 __ehhandler$?MakeHeader_PacketSequence@CDlgDataListViewer@@QAEXXZ
  0000a	64 a1 00 00 00
	00		 mov	 eax, DWORD PTR fs:0
  00010	50		 push	 eax
  00011	83 ec 10	 sub	 esp, 16			; 00000010H
  00014	56		 push	 esi
  00015	57		 push	 edi
  00016	a1 00 00 00 00	 mov	 eax, DWORD PTR ___security_cookie
  0001b	33 c5		 xor	 eax, ebp
  0001d	50		 push	 eax
  0001e	8d 45 f4	 lea	 eax, DWORD PTR __$EHRec$[ebp]
  00021	64 a3 00 00 00
	00		 mov	 DWORD PTR fs:0, eax
  00027	8b f9		 mov	 edi, ecx

; 223  : 	if(m_pPacketList == NULL)	return;

  00029	83 bf c0 03 00
	00 00		 cmp	 DWORD PTR [edi+960], 0
  00030	0f 84 b7 00 00
	00		 je	 $LN1@MakeHeader

; 224  : 
; 225  : 	CString szPackets = m_strPacketNames;

  00036	8d 87 c8 03 00
	00		 lea	 eax, DWORD PTR [edi+968]
  0003c	50		 push	 eax
  0003d	8d 4d f0	 lea	 ecx, DWORD PTR _szPackets$[ebp]
  00040	ff 15 00 00 00
	00		 call	 DWORD PTR __imp_??0?$CStringT@DV?$StrTraitMFC_DLL@DV?$ChTraitsCRT@D@ATL@@@@@ATL@@QAE@ABV01@@Z

; 226  : 	CString szTemp;

  00046	8d 4d ec	 lea	 ecx, DWORD PTR _szTemp$[ebp]
  00049	c7 45 fc 00 00
	00 00		 mov	 DWORD PTR __$EHRec$[ebp+8], 0
  00050	ff 15 00 00 00
	00		 call	 DWORD PTR __imp_??0?$CStringT@DV?$StrTraitMFC_DLL@DV?$ChTraitsCRT@D@ATL@@@@@ATL@@QAE@XZ
; File C:\Program Files (x86)\Microsoft Visual Studio\2019\Community\VC\Tools\MSVC\14.29.30133\atlmfc\include\atlsimpstr.h

; 519  : 		return( GetData()->nDataLength );

  00056	8b 45 f0	 mov	 eax, DWORD PTR _szPackets$[ebp]
; File D:\git\src\IBK\IBK_DRFN\ProjSrc\SrcChartEx\ChartAddIn\ChartDataListViewerAddIn\ChartDataListViewerAddIn\DlgDataListViewer.cpp

; 227  : 	int i = 0;

  00059	33 f6		 xor	 esi, esi
  0005b	c6 45 fc 01	 mov	 BYTE PTR __$EHRec$[ebp+8], 1
; File C:\Program Files (x86)\Microsoft Visual Studio\2019\Community\VC\Tools\MSVC\14.29.30133\atlmfc\include\atlsimpstr.h

; 533  : 		return( GetLength() == 0 );

  0005f	39 70 f4	 cmp	 DWORD PTR [eax-12], esi
; File D:\git\src\IBK\IBK_DRFN\ProjSrc\SrcChartEx\ChartAddIn\ChartDataListViewerAddIn\ChartDataListViewerAddIn\DlgDataListViewer.cpp

; 228  : 	while(!szPackets.IsEmpty()) {

  00062	74 77		 je	 SHORT $LN3@MakeHeader
  00064	0f 1f 40 00 0f
	1f 84 00 00 00
	00 00		 npad	 12
$LL2@MakeHeader:

; 229  : 		szTemp = CDataConversion::GetStringData(szPackets, ",");

  00070	68 00 00 00 00	 push	 OFFSET ??_C@_01IHBHIGKO@?0@
  00075	8d 4d e8	 lea	 ecx, DWORD PTR $T3[ebp]
  00078	ff 15 00 00 00
	00		 call	 DWORD PTR __imp_??0?$CStringT@DV?$StrTraitMFC_DLL@DV?$ChTraitsCRT@D@ATL@@@@@ATL@@QAE@PBD@Z
  0007e	6a 01		 push	 1
  00080	8d 45 e8	 lea	 eax, DWORD PTR $T3[ebp]
  00083	c6 45 fc 02	 mov	 BYTE PTR __$EHRec$[ebp+8], 2
  00087	50		 push	 eax
  00088	8d 45 f0	 lea	 eax, DWORD PTR _szPackets$[ebp]
  0008b	50		 push	 eax
  0008c	8d 45 e4	 lea	 eax, DWORD PTR $T2[ebp]
  0008f	50		 push	 eax
  00090	e8 00 00 00 00	 call	 ?GetStringData@CDataConversion@@SA?AV?$CStringT@DV?$StrTraitMFC_DLL@DV?$ChTraitsCRT@D@ATL@@@@@ATL@@AAV23@ABV23@_N@Z ; CDataConversion::GetStringData
  00095	83 c4 10	 add	 esp, 16			; 00000010H
  00098	50		 push	 eax
  00099	8d 4d ec	 lea	 ecx, DWORD PTR _szTemp$[ebp]
  0009c	c6 45 fc 03	 mov	 BYTE PTR __$EHRec$[ebp+8], 3
  000a0	ff 15 00 00 00
	00		 call	 DWORD PTR __imp_??4?$CStringT@DV?$StrTraitMFC_DLL@DV?$ChTraitsCRT@D@ATL@@@@@ATL@@QAEAAV01@ABV01@@Z
  000a6	8d 4d e4	 lea	 ecx, DWORD PTR $T2[ebp]
  000a9	ff 15 00 00 00
	00		 call	 DWORD PTR __imp_??1?$CStringT@DV?$StrTraitMFC_DLL@DV?$ChTraitsCRT@D@ATL@@@@@ATL@@QAE@XZ
  000af	8d 4d e8	 lea	 ecx, DWORD PTR $T3[ebp]
  000b2	c6 45 fc 01	 mov	 BYTE PTR __$EHRec$[ebp+8], 1
  000b6	ff 15 00 00 00
	00		 call	 DWORD PTR __imp_??1?$CStringT@DV?$StrTraitMFC_DLL@DV?$ChTraitsCRT@D@ATL@@@@@ATL@@QAE@XZ

; 230  : 		m_ctlList.InsertColumn(i++, szTemp, LVCFMT_RIGHT, 100);

  000bc	6a ff		 push	 -1
  000be	6a 64		 push	 100			; 00000064H
  000c0	6a 01		 push	 1
  000c2	ff 75 ec	 push	 DWORD PTR _szTemp$[ebp]
  000c5	8d 8f b8 02 00
	00		 lea	 ecx, DWORD PTR [edi+696]
  000cb	56		 push	 esi
  000cc	e8 00 00 00 00	 call	 ?InsertColumn@CListCtrl@@QAEHHPBDHHH@Z ; CListCtrl::InsertColumn
; File C:\Program Files (x86)\Microsoft Visual Studio\2019\Community\VC\Tools\MSVC\14.29.30133\atlmfc\include\atlsimpstr.h

; 533  : 		return( GetLength() == 0 );

  000d1	8b 45 f0	 mov	 eax, DWORD PTR _szPackets$[ebp]
; File D:\git\src\IBK\IBK_DRFN\ProjSrc\SrcChartEx\ChartAddIn\ChartDataListViewerAddIn\ChartDataListViewerAddIn\DlgDataListViewer.cpp

; 230  : 		m_ctlList.InsertColumn(i++, szTemp, LVCFMT_RIGHT, 100);

  000d4	46		 inc	 esi
; File C:\Program Files (x86)\Microsoft Visual Studio\2019\Community\VC\Tools\MSVC\14.29.30133\atlmfc\include\atlsimpstr.h

; 533  : 		return( GetLength() == 0 );

  000d5	83 78 f4 00	 cmp	 DWORD PTR [eax-12], 0
; File D:\git\src\IBK\IBK_DRFN\ProjSrc\SrcChartEx\ChartAddIn\ChartDataListViewerAddIn\ChartDataListViewerAddIn\DlgDataListViewer.cpp

; 228  : 	while(!szPackets.IsEmpty()) {

  000d9	75 95		 jne	 SHORT $LL2@MakeHeader
$LN3@MakeHeader:

; 231  : 	}
; 232  : }

  000db	8d 4d ec	 lea	 ecx, DWORD PTR _szTemp$[ebp]
  000de	ff 15 00 00 00
	00		 call	 DWORD PTR __imp_??1?$CStringT@DV?$StrTraitMFC_DLL@DV?$ChTraitsCRT@D@ATL@@@@@ATL@@QAE@XZ
  000e4	8d 4d f0	 lea	 ecx, DWORD PTR _szPackets$[ebp]
  000e7	ff 15 00 00 00
	00		 call	 DWORD PTR __imp_??1?$CStringT@DV?$StrTraitMFC_DLL@DV?$ChTraitsCRT@D@ATL@@@@@ATL@@QAE@XZ
$LN1@MakeHeader:
  000ed	8b 4d f4	 mov	 ecx, DWORD PTR __$EHRec$[ebp]
  000f0	64 89 0d 00 00
	00 00		 mov	 DWORD PTR fs:0, ecx
  000f7	59		 pop	 ecx
  000f8	5f		 pop	 edi
  000f9	5e		 pop	 esi
  000fa	8b e5		 mov	 esp, ebp
  000fc	5d		 pop	 ebp
  000fd	c3		 ret	 0
_TEXT	ENDS
;	COMDAT text$x
text$x	SEGMENT
__unwindfunclet$?MakeHeader_PacketSequence@CDlgDataListViewer@@QAEXXZ$0:
  00000	8d 4d f0	 lea	 ecx, DWORD PTR _szPackets$[ebp]
  00003	ff 25 00 00 00
	00		 jmp	 DWORD PTR __imp_??1?$CStringT@DV?$StrTraitMFC_DLL@DV?$ChTraitsCRT@D@ATL@@@@@ATL@@QAE@XZ
__unwindfunclet$?MakeHeader_PacketSequence@CDlgDataListViewer@@QAEXXZ$1:
  00009	8d 4d ec	 lea	 ecx, DWORD PTR _szTemp$[ebp]
  0000c	ff 25 00 00 00
	00		 jmp	 DWORD PTR __imp_??1?$CStringT@DV?$StrTraitMFC_DLL@DV?$ChTraitsCRT@D@ATL@@@@@ATL@@QAE@XZ
__unwindfunclet$?MakeHeader_PacketSequence@CDlgDataListViewer@@QAEXXZ$2:
  00012	8d 4d e8	 lea	 ecx, DWORD PTR $T3[ebp]
  00015	ff 25 00 00 00
	00		 jmp	 DWORD PTR __imp_??1?$CStringT@DV?$StrTraitMFC_DLL@DV?$ChTraitsCRT@D@ATL@@@@@ATL@@QAE@XZ
__unwindfunclet$?MakeHeader_PacketSequence@CDlgDataListViewer@@QAEXXZ$3:
  0001b	8d 4d e4	 lea	 ecx, DWORD PTR $T2[ebp]
  0001e	ff 25 00 00 00
	00		 jmp	 DWORD PTR __imp_??1?$CStringT@DV?$StrTraitMFC_DLL@DV?$ChTraitsCRT@D@ATL@@@@@ATL@@QAE@XZ
  00024	cc		 int	 3
  00025	cc		 int	 3
  00026	cc		 int	 3
  00027	cc		 int	 3
  00028	cc		 int	 3
__ehhandler$?MakeHeader_PacketSequence@CDlgDataListViewer@@QAEXXZ:
  00029	90		 npad	 1
  0002a	90		 npad	 1
  0002b	8b 54 24 08	 mov	 edx, DWORD PTR [esp+8]
  0002f	8d 42 0c	 lea	 eax, DWORD PTR [edx+12]
  00032	8b 4a e4	 mov	 ecx, DWORD PTR [edx-28]
  00035	33 c8		 xor	 ecx, eax
  00037	e8 00 00 00 00	 call	 @__security_check_cookie@4
  0003c	b8 00 00 00 00	 mov	 eax, OFFSET __ehfuncinfo$?MakeHeader_PacketSequence@CDlgDataListViewer@@QAEXXZ
  00041	e9 00 00 00 00	 jmp	 ___CxxFrameHandler3
text$x	ENDS
?MakeHeader_PacketSequence@CDlgDataListViewer@@QAEXXZ ENDP ; CDlgDataListViewer::MakeHeader_PacketSequence
; Function compile flags: /Ogtp
; File D:\git\src\IBK\IBK_DRFN\ProjSrc\SrcChartEx\ChartAddIn\ChartDataListViewerAddIn\ChartDataListViewerAddIn\DlgDataListViewer.cpp
; File C:\Program Files (x86)\Microsoft Visual Studio\2019\Community\VC\Tools\MSVC\14.29.30133\atlmfc\include\afxcmn.inl
; File D:\git\src\IBK\IBK_DRFN\ProjSrc\SrcChartEx\ChartAddIn\ChartDataListViewerAddIn\ChartDataListViewerAddIn\DlgDataListViewer.cpp
; File C:\Program Files (x86)\Microsoft Visual Studio\2019\Community\VC\Tools\MSVC\14.29.30133\atlmfc\include\afxcmn.inl
; File D:\git\src\IBK\IBK_DRFN\ProjSrc\SrcChartEx\ChartAddIn\ChartDataListViewerAddIn\ChartDataListViewerAddIn\DlgDataListViewer.cpp
; File C:\Program Files (x86)\Microsoft Visual Studio\2019\Community\VC\Tools\MSVC\14.29.30133\atlmfc\include\afxcmn.inl
; File D:\git\src\IBK\IBK_DRFN\ProjSrc\SrcChartEx\ChartAddIn\ChartDataListViewerAddIn\ChartDataListViewerAddIn\DlgDataListViewer.cpp
; File C:\Program Files (x86)\Microsoft Visual Studio\2019\Community\VC\Tools\MSVC\14.29.30133\atlmfc\include\afxcmn.inl
; File D:\git\src\IBK\IBK_DRFN\ProjSrc\SrcChartEx\ChartAddIn\ChartDataListViewerAddIn\ChartDataListViewerAddIn\DlgDataListViewer.cpp
; File C:\Program Files (x86)\Microsoft Visual Studio\2019\Community\VC\Tools\MSVC\14.29.30133\atlmfc\include\afxcmn.inl
; File D:\git\src\IBK\IBK_DRFN\ProjSrc\SrcChartEx\ChartAddIn\ChartDataListViewerAddIn\ChartDataListViewerAddIn\DlgDataListViewer.cpp
; File C:\Program Files (x86)\Microsoft Visual Studio\2019\Community\VC\Tools\MSVC\14.29.30133\atlmfc\include\afxwin2.inl
; File D:\git\src\IBK\IBK_DRFN\ProjSrc\SrcChartEx\ChartAddIn\ChartDataListViewerAddIn\ChartDataListViewerAddIn\DlgDataListViewer.cpp
;	COMDAT ?InsertRecord@CDlgDataListViewer@@QAEXH@Z
_TEXT	SEGMENT
_nIndex$ = 8						; size = 4
?InsertRecord@CDlgDataListViewer@@QAEXH@Z PROC		; CDlgDataListViewer::InsertRecord, COMDAT
; _this$ = ecx

; 1099 : {

  00000	55		 push	 ebp
  00001	8b ec		 mov	 ebp, esp
  00003	53		 push	 ebx
; File C:\Program Files (x86)\Microsoft Visual Studio\2019\Community\VC\Tools\MSVC\14.29.30133\atlmfc\include\afxcmn.inl

; 177  : 	{ ASSERT(::IsWindow(m_hWnd)); return (int) ::SendMessage(m_hWnd, LVM_GETNEXTITEM, nItem, MAKELPARAM(nFlags, 0)); }

  00004	8b 1d 00 00 00
	00		 mov	 ebx, DWORD PTR __imp__SendMessageA@16
; File D:\git\src\IBK\IBK_DRFN\ProjSrc\SrcChartEx\ChartAddIn\ChartDataListViewerAddIn\ChartDataListViewerAddIn\DlgDataListViewer.cpp

; 1099 : {

  0000a	56		 push	 esi
  0000b	57		 push	 edi
; File C:\Program Files (x86)\Microsoft Visual Studio\2019\Community\VC\Tools\MSVC\14.29.30133\atlmfc\include\afxcmn.inl

; 177  : 	{ ASSERT(::IsWindow(m_hWnd)); return (int) ::SendMessage(m_hWnd, LVM_GETNEXTITEM, nItem, MAKELPARAM(nFlags, 0)); }

  0000c	6a 02		 push	 2
; File D:\git\src\IBK\IBK_DRFN\ProjSrc\SrcChartEx\ChartAddIn\ChartDataListViewerAddIn\ChartDataListViewerAddIn\DlgDataListViewer.cpp

; 1099 : {

  0000e	8b f9		 mov	 edi, ecx
; File C:\Program Files (x86)\Microsoft Visual Studio\2019\Community\VC\Tools\MSVC\14.29.30133\atlmfc\include\afxcmn.inl

; 177  : 	{ ASSERT(::IsWindow(m_hWnd)); return (int) ::SendMessage(m_hWnd, LVM_GETNEXTITEM, nItem, MAKELPARAM(nFlags, 0)); }

  00010	6a ff		 push	 -1
  00012	68 0c 10 00 00	 push	 4108			; 0000100cH
  00017	ff b7 d8 02 00
	00		 push	 DWORD PTR [edi+728]
  0001d	ff d3		 call	 ebx
; File D:\git\src\IBK\IBK_DRFN\ProjSrc\SrcChartEx\ChartAddIn\ChartDataListViewerAddIn\ChartDataListViewerAddIn\DlgDataListViewer.cpp

; 1101 : 	int nSelect = -1;

  0001f	be ff ff ff ff	 mov	 esi, -1
; File C:\Program Files (x86)\Microsoft Visual Studio\2019\Community\VC\Tools\MSVC\14.29.30133\atlmfc\include\afxcmn.inl

; 179  : 	{ ASSERT(::IsWindow(m_hWnd)); return (POSITION)(DWORD_PTR)(1+GetNextItem(-1, LVIS_SELECTED)); }

  00024	83 c0 01	 add	 eax, 1
; File D:\git\src\IBK\IBK_DRFN\ProjSrc\SrcChartEx\ChartAddIn\ChartDataListViewerAddIn\ChartDataListViewerAddIn\DlgDataListViewer.cpp

; 1102 : 	if( posSelect) nSelect = m_ctlList.GetNextSelectedItem( posSelect);

  00027	74 13		 je	 SHORT $LN2@InsertReco
; File C:\Program Files (x86)\Microsoft Visual Studio\2019\Community\VC\Tools\MSVC\14.29.30133\atlmfc\include\afxcmn.inl

; 177  : 	{ ASSERT(::IsWindow(m_hWnd)); return (int) ::SendMessage(m_hWnd, LVM_GETNEXTITEM, nItem, MAKELPARAM(nFlags, 0)); }

  00029	6a 02		 push	 2

; 181  : 	{ ASSERT(::IsWindow(m_hWnd)); DWORD_PTR nOldPos = (DWORD_PTR)pos-1; pos = (POSITION)(DWORD_PTR)(1+GetNextItem((UINT)nOldPos, LVIS_SELECTED)); return (UINT)nOldPos; }

  0002b	8d 70 ff	 lea	 esi, DWORD PTR [eax-1]

; 177  : 	{ ASSERT(::IsWindow(m_hWnd)); return (int) ::SendMessage(m_hWnd, LVM_GETNEXTITEM, nItem, MAKELPARAM(nFlags, 0)); }

  0002e	56		 push	 esi
  0002f	68 0c 10 00 00	 push	 4108			; 0000100cH
  00034	ff b7 d8 02 00
	00		 push	 DWORD PTR [edi+728]
  0003a	ff d3		 call	 ebx
$LN2@InsertReco:
; File D:\git\src\IBK\IBK_DRFN\ProjSrc\SrcChartEx\ChartAddIn\ChartDataListViewerAddIn\ChartDataListViewerAddIn\DlgDataListViewer.cpp

; 1103 : 	m_ctlList.SetItemCountEx( nIndex);

  0003c	8b 5d 08	 mov	 ebx, DWORD PTR _nIndex$[ebp]
  0003f	8d 8f b8 02 00
	00		 lea	 ecx, DWORD PTR [edi+696]
  00045	6a 01		 push	 1
  00047	53		 push	 ebx
  00048	e8 00 00 00 00	 call	 ?SetItemCountEx@CListCtrl@@QAEHHK@Z ; CListCtrl::SetItemCountEx

; 1104 : 	if( 0 <= nSelect) m_ctlList.SetItemState( nSelect + nIndex - m_nRowCount, 0xFFFF, LVIS_SELECTED | LVIS_FOCUSED);

  0004d	85 f6		 test	 esi, esi
  0004f	78 1b		 js	 SHORT $LN3@InsertReco
  00051	2b b7 18 04 00
	00		 sub	 esi, DWORD PTR [edi+1048]
  00057	8d 8f b8 02 00
	00		 lea	 ecx, DWORD PTR [edi+696]
  0005d	6a 03		 push	 3
  0005f	68 ff ff 00 00	 push	 65535			; 0000ffffH
  00064	03 f3		 add	 esi, ebx
  00066	56		 push	 esi
  00067	e8 00 00 00 00	 call	 ?SetItemState@CListCtrl@@QAEHHII@Z ; CListCtrl::SetItemState
$LN3@InsertReco:
; File C:\Program Files (x86)\Microsoft Visual Studio\2019\Community\VC\Tools\MSVC\14.29.30133\atlmfc\include\afxwin2.inl

; 114  : 	{ ASSERT(::IsWindow(m_hWnd)); ::InvalidateRect(m_hWnd, NULL, bErase); }

  0006c	6a 00		 push	 0
  0006e	6a 00		 push	 0
  00070	ff b7 d8 02 00
	00		 push	 DWORD PTR [edi+728]
  00076	ff 15 00 00 00
	00		 call	 DWORD PTR __imp__InvalidateRect@12
; File D:\git\src\IBK\IBK_DRFN\ProjSrc\SrcChartEx\ChartAddIn\ChartDataListViewerAddIn\ChartDataListViewerAddIn\DlgDataListViewer.cpp

; 1106 : 	m_nRowCount = nIndex;

  0007c	89 9f 18 04 00
	00		 mov	 DWORD PTR [edi+1048], ebx
  00082	5f		 pop	 edi
  00083	5e		 pop	 esi
  00084	5b		 pop	 ebx

; 1107 : }

  00085	5d		 pop	 ebp
  00086	c2 04 00	 ret	 4
?InsertRecord@CDlgDataListViewer@@QAEXH@Z ENDP		; CDlgDataListViewer::InsertRecord
_TEXT	ENDS
; Function compile flags: /Ogtp
; File D:\git\src\IBK\IBK_DRFN\ProjSrc\SrcChartEx\ChartAddIn\ChartDataListViewerAddIn\ChartDataListViewerAddIn\DlgDataListViewer.cpp
; File C:\Program Files (x86)\Microsoft Visual Studio\2019\Community\VC\Tools\MSVC\14.29.30133\atlmfc\include\afxwin2.inl
; File D:\git\src\IBK\IBK_DRFN\ProjSrc\SrcChartEx\ChartAddIn\ChartDataListViewerAddIn\ChartDataListViewerAddIn\DlgDataListViewer.cpp
;	COMDAT ?UpdateRecord@CDlgDataListViewer@@QAEXH@Z
_TEXT	SEGMENT
_nIndex$ = 8						; size = 4
?UpdateRecord@CDlgDataListViewer@@QAEXH@Z PROC		; CDlgDataListViewer::UpdateRecord, COMDAT
; _this$ = ecx
; File C:\Program Files (x86)\Microsoft Visual Studio\2019\Community\VC\Tools\MSVC\14.29.30133\atlmfc\include\afxwin2.inl

; 114  : 	{ ASSERT(::IsWindow(m_hWnd)); ::InvalidateRect(m_hWnd, NULL, bErase); }

  00000	6a 00		 push	 0
  00002	6a 00		 push	 0
  00004	ff b1 d8 02 00
	00		 push	 DWORD PTR [ecx+728]
  0000a	ff 15 00 00 00
	00		 call	 DWORD PTR __imp__InvalidateRect@12
; File D:\git\src\IBK\IBK_DRFN\ProjSrc\SrcChartEx\ChartAddIn\ChartDataListViewerAddIn\ChartDataListViewerAddIn\DlgDataListViewer.cpp

; 1115 : }

  00010	c2 04 00	 ret	 4
?UpdateRecord@CDlgDataListViewer@@QAEXH@Z ENDP		; CDlgDataListViewer::UpdateRecord
_TEXT	ENDS
; Function compile flags: /Ogtp
; File D:\git\src\IBK\IBK_DRFN\ProjSrc\SrcChartEx\ChartAddIn\ChartDataListViewerAddIn\ChartDataListViewerAddIn\DlgDataListViewer.cpp
; File C:\Program Files (x86)\Microsoft Visual Studio\2019\Community\VC\Tools\MSVC\14.29.30133\atlmfc\include\atlsimpstr.h
; File D:\git\src\IBK\IBK_DRFN\ProjSrc\SrcChartEx\ChartAddIn\ChartDataListViewerAddIn\ChartDataListViewerAddIn\DlgDataListViewer.cpp
; File C:\Program Files (x86)\Microsoft Visual Studio\2019\Community\VC\Tools\MSVC\14.29.30133\atlmfc\include\afxwin2.inl
; File D:\git\src\IBK\IBK_DRFN\ProjSrc\SrcChartEx\ChartAddIn\ChartDataListViewerAddIn\ChartDataListViewerAddIn\DlgDataListViewer.cpp
; File C:\Program Files (x86)\Microsoft Visual Studio\2019\Community\VC\Tools\MSVC\14.29.30133\atlmfc\include\afxwin2.inl
; File D:\git\src\IBK\IBK_DRFN\ProjSrc\SrcChartEx\ChartAddIn\ChartDataListViewerAddIn\ChartDataListViewerAddIn\DlgDataListViewer.cpp
; File C:\Program Files (x86)\Microsoft Visual Studio\2019\Community\VC\Tools\MSVC\14.29.30133\atlmfc\include\atlsimpstr.h
; File D:\git\src\IBK\IBK_DRFN\ProjSrc\SrcChartEx\ChartAddIn\ChartDataListViewerAddIn\ChartDataListViewerAddIn\DlgDataListViewer.cpp
; File C:\Program Files (x86)\Microsoft Visual Studio\2019\Community\VC\Tools\MSVC\14.29.30133\atlmfc\include\atlsimpstr.h
; File D:\git\src\IBK\IBK_DRFN\ProjSrc\SrcChartEx\ChartAddIn\ChartDataListViewerAddIn\ChartDataListViewerAddIn\DlgDataListViewer.cpp
; File D:\git\src\IBK\IBK_DRFN\ProjSrc\SrcChartEx\ChartAddIn\ChartDataListViewerAddIn\Include_AddIn_134221\I134221\_IString.h
; File D:\git\src\IBK\IBK_DRFN\ProjSrc\SrcChartEx\ChartAddIn\ChartDataListViewerAddIn\ChartDataListViewerAddIn\DlgDataListViewer.cpp
; File D:\git\src\IBK\IBK_DRFN\ProjSrc\SrcChartEx\ChartAddIn\ChartDataListViewerAddIn\Include_AddIn_134221\I134221\_IString.h
; File D:\git\src\IBK\IBK_DRFN\ProjSrc\SrcChartEx\ChartAddIn\ChartDataListViewerAddIn\ChartDataListViewerAddIn\DlgDataListViewer.cpp
; File C:\Program Files (x86)\Microsoft Visual Studio\2019\Community\VC\Tools\MSVC\14.29.30133\atlmfc\include\cstringt.h
; File D:\git\src\IBK\IBK_DRFN\ProjSrc\SrcChartEx\ChartAddIn\ChartDataListViewerAddIn\ChartDataListViewerAddIn\DlgDataListViewer.cpp
; File C:\Program Files (x86)\Microsoft Visual Studio\2019\Community\VC\Tools\MSVC\14.29.30133\atlmfc\include\cstringt.h
; File D:\git\src\IBK\IBK_DRFN\ProjSrc\SrcChartEx\ChartAddIn\ChartDataListViewerAddIn\ChartDataListViewerAddIn\DlgDataListViewer.cpp
; File C:\Program Files (x86)\Microsoft Visual Studio\2019\Community\VC\Tools\MSVC\14.29.30133\atlmfc\include\cstringt.h
; File D:\git\src\IBK\IBK_DRFN\ProjSrc\SrcChartEx\ChartAddIn\ChartDataListViewerAddIn\ChartDataListViewerAddIn\DlgDataListViewer.cpp
; File C:\Program Files (x86)\Microsoft Visual Studio\2019\Community\VC\Tools\MSVC\14.29.30133\atlmfc\include\cstringt.h
; File D:\git\src\IBK\IBK_DRFN\ProjSrc\SrcChartEx\ChartAddIn\ChartDataListViewerAddIn\ChartDataListViewerAddIn\DlgDataListViewer.cpp
; File C:\Program Files (x86)\Microsoft Visual Studio\2019\Community\VC\Tools\MSVC\14.29.30133\atlmfc\include\cstringt.h
; File D:\git\src\IBK\IBK_DRFN\ProjSrc\SrcChartEx\ChartAddIn\ChartDataListViewerAddIn\ChartDataListViewerAddIn\DlgDataListViewer.cpp
; File C:\Program Files (x86)\Microsoft Visual Studio\2019\Community\VC\Tools\MSVC\14.29.30133\atlmfc\include\cstringt.h
; File C:\Program Files (x86)\Microsoft Visual Studio\2019\Community\VC\Tools\MSVC\14.29.30133\atlmfc\include\atlsimpstr.h
; File C:\Program Files (x86)\Microsoft Visual Studio\2019\Community\VC\Tools\MSVC\14.29.30133\atlmfc\include\cstringt.h
; File D:\git\src\IBK\IBK_DRFN\ProjSrc\SrcChartEx\ChartAddIn\ChartDataListViewerAddIn\ChartDataListViewerAddIn\DlgDataListViewer.cpp
; File C:\Program Files (x86)\Microsoft Visual Studio\2019\Community\VC\Tools\MSVC\14.29.30133\atlmfc\include\cstringt.h
; File D:\git\src\IBK\IBK_DRFN\ProjSrc\SrcChartEx\ChartAddIn\ChartDataListViewerAddIn\ChartDataListViewerAddIn\DlgDataListViewer.cpp
; File C:\Program Files (x86)\Microsoft Visual Studio\2019\Community\VC\Tools\MSVC\14.29.30133\atlmfc\include\cstringt.h
; File D:\git\src\IBK\IBK_DRFN\ProjSrc\SrcChartEx\ChartAddIn\ChartDataListViewerAddIn\ChartDataListViewerAddIn\DlgDataListViewer.cpp
; File C:\Program Files (x86)\Microsoft Visual Studio\2019\Community\VC\Tools\MSVC\14.29.30133\atlmfc\include\cstringt.h
; File D:\git\src\IBK\IBK_DRFN\ProjSrc\SrcChartEx\ChartAddIn\ChartDataListViewerAddIn\ChartDataListViewerAddIn\DlgDataListViewer.cpp
; File C:\Program Files (x86)\Microsoft Visual Studio\2019\Community\VC\Tools\MSVC\14.29.30133\atlmfc\include\cstringt.h
; File C:\Program Files (x86)\Microsoft Visual Studio\2019\Community\VC\Tools\MSVC\14.29.30133\atlmfc\include\atlsimpstr.h
; File C:\Program Files (x86)\Microsoft Visual Studio\2019\Community\VC\Tools\MSVC\14.29.30133\atlmfc\include\cstringt.h
; File D:\git\src\IBK\IBK_DRFN\ProjSrc\SrcChartEx\ChartAddIn\ChartDataListViewerAddIn\ChartDataListViewerAddIn\DlgDataListViewer.cpp
; File C:\Program Files (x86)\Microsoft Visual Studio\2019\Community\VC\Tools\MSVC\14.29.30133\atlmfc\include\cstringt.h
; File D:\git\src\IBK\IBK_DRFN\ProjSrc\SrcChartEx\ChartAddIn\ChartDataListViewerAddIn\ChartDataListViewerAddIn\DlgDataListViewer.cpp
; File C:\Program Files (x86)\Microsoft Visual Studio\2019\Community\VC\Tools\MSVC\14.29.30133\atlmfc\include\cstringt.h
; File D:\git\src\IBK\IBK_DRFN\ProjSrc\SrcChartEx\ChartAddIn\ChartDataListViewerAddIn\ChartDataListViewerAddIn\DlgDataListViewer.cpp
; File C:\Program Files (x86)\Microsoft Visual Studio\2019\Community\VC\Tools\MSVC\14.29.30133\atlmfc\include\cstringt.h
; File D:\git\src\IBK\IBK_DRFN\ProjSrc\SrcChartEx\ChartAddIn\ChartDataListViewerAddIn\ChartDataListViewerAddIn\DlgDataListViewer.cpp
; File C:\Program Files (x86)\Microsoft Visual Studio\2019\Community\VC\Tools\MSVC\14.29.30133\atlmfc\include\cstringt.h
; File C:\Program Files (x86)\Microsoft Visual Studio\2019\Community\VC\Tools\MSVC\14.29.30133\atlmfc\include\atlsimpstr.h
; File C:\Program Files (x86)\Microsoft Visual Studio\2019\Community\VC\Tools\MSVC\14.29.30133\atlmfc\include\cstringt.h
; File D:\git\src\IBK\IBK_DRFN\ProjSrc\SrcChartEx\ChartAddIn\ChartDataListViewerAddIn\ChartDataListViewerAddIn\DlgDataListViewer.cpp
; File C:\Program Files (x86)\Microsoft Visual Studio\2019\Community\VC\Tools\MSVC\14.29.30133\atlmfc\include\cstringt.h
; File D:\git\src\IBK\IBK_DRFN\ProjSrc\SrcChartEx\ChartAddIn\ChartDataListViewerAddIn\ChartDataListViewerAddIn\DlgDataListViewer.cpp
; File C:\Program Files (x86)\Microsoft Visual Studio\2019\Community\VC\Tools\MSVC\14.29.30133\atlmfc\include\cstringt.h
; File D:\git\src\IBK\IBK_DRFN\ProjSrc\SrcChartEx\ChartAddIn\ChartDataListViewerAddIn\ChartDataListViewerAddIn\DlgDataListViewer.cpp
; File C:\Program Files (x86)\Microsoft Visual Studio\2019\Community\VC\Tools\MSVC\14.29.30133\atlmfc\include\cstringt.h
; File D:\git\src\IBK\IBK_DRFN\ProjSrc\SrcChartEx\ChartAddIn\ChartDataListViewerAddIn\ChartDataListViewerAddIn\DlgDataListViewer.cpp
; File C:\Program Files (x86)\Microsoft Visual Studio\2019\Community\VC\Tools\MSVC\14.29.30133\atlmfc\include\cstringt.h
; File C:\Program Files (x86)\Microsoft Visual Studio\2019\Community\VC\Tools\MSVC\14.29.30133\atlmfc\include\atlsimpstr.h
; File C:\Program Files (x86)\Microsoft Visual Studio\2019\Community\VC\Tools\MSVC\14.29.30133\atlmfc\include\cstringt.h
; File D:\git\src\IBK\IBK_DRFN\ProjSrc\SrcChartEx\ChartAddIn\ChartDataListViewerAddIn\ChartDataListViewerAddIn\DlgDataListViewer.cpp
; File C:\Program Files (x86)\Microsoft Visual Studio\2019\Community\VC\Tools\MSVC\14.29.30133\atlmfc\include\cstringt.h
; File D:\git\src\IBK\IBK_DRFN\ProjSrc\SrcChartEx\ChartAddIn\ChartDataListViewerAddIn\ChartDataListViewerAddIn\DlgDataListViewer.cpp
; File C:\Program Files (x86)\Microsoft Visual Studio\2019\Community\VC\Tools\MSVC\14.29.30133\atlmfc\include\cstringt.h
; File D:\git\src\IBK\IBK_DRFN\ProjSrc\SrcChartEx\ChartAddIn\ChartDataListViewerAddIn\ChartDataListViewerAddIn\DlgDataListViewer.cpp
; File C:\Program Files (x86)\Microsoft Visual Studio\2019\Community\VC\Tools\MSVC\14.29.30133\atlmfc\include\atlsimpstr.h
; File D:\git\src\IBK\IBK_DRFN\ProjSrc\SrcChartEx\ChartAddIn\ChartDataListViewerAddIn\ChartDataListViewerAddIn\DlgDataListViewer.cpp
; File C:\Program Files (x86)\Microsoft Visual Studio\2019\Community\VC\Tools\MSVC\14.29.30133\atlmfc\include\atlsimpstr.h
; File D:\git\src\IBK\IBK_DRFN\ProjSrc\SrcChartEx\ChartAddIn\ChartDataListViewerAddIn\ChartDataListViewerAddIn\DlgDataListViewer.cpp
; File C:\Program Files (x86)\Microsoft Visual Studio\2019\Community\VC\Tools\MSVC\14.29.30133\atlmfc\include\atlsimpstr.h
; File D:\git\src\IBK\IBK_DRFN\ProjSrc\SrcChartEx\ChartAddIn\ChartDataListViewerAddIn\ChartDataListViewerAddIn\DlgDataListViewer.cpp
; File C:\Program Files (x86)\Microsoft Visual Studio\2019\Community\VC\Tools\MSVC\14.29.30133\atlmfc\include\atlsimpstr.h
; File C:\Program Files (x86)\Microsoft Visual Studio\2019\Community\VC\Tools\MSVC\14.29.30133\atlmfc\include\afxwin1.inl
; File D:\git\src\IBK\IBK_DRFN\ProjSrc\SrcChartEx\ChartAddIn\ChartDataListViewerAddIn\ChartDataListViewerAddIn\DlgDataListViewer.cpp
; File C:\Program Files (x86)\Microsoft Visual Studio\2019\Community\VC\Tools\MSVC\14.29.30133\atlmfc\include\afxcmn.inl
; File D:\git\src\IBK\IBK_DRFN\ProjSrc\SrcChartEx\ChartAddIn\ChartDataListViewerAddIn\ChartDataListViewerAddIn\DlgDataListViewer.cpp
; File C:\Program Files (x86)\Microsoft Visual Studio\2019\Community\VC\Tools\MSVC\14.29.30133\atlmfc\include\afxcmn.inl
; File D:\git\src\IBK\IBK_DRFN\ProjSrc\SrcChartEx\ChartAddIn\ChartDataListViewerAddIn\ChartDataListViewerAddIn\DlgDataListViewer.cpp
; File C:\Program Files (x86)\Microsoft Visual Studio\2019\Community\VC\Tools\MSVC\14.29.30133\atlmfc\include\afxcmn.inl
; File D:\git\src\IBK\IBK_DRFN\ProjSrc\SrcChartEx\ChartAddIn\ChartDataListViewerAddIn\ChartDataListViewerAddIn\DlgDataListViewer.cpp
; File C:\Program Files (x86)\Microsoft Visual Studio\2019\Community\VC\Tools\MSVC\14.29.30133\atlmfc\include\afxcmn.inl
; File D:\git\src\IBK\IBK_DRFN\ProjSrc\SrcChartEx\ChartAddIn\ChartDataListViewerAddIn\ChartDataListViewerAddIn\DlgDataListViewer.cpp
; File D:\git\src\IBK\IBK_DRFN\ProjSrc\SrcChartEx\ChartAddIn\ChartDataListViewerAddIn\Include_AddIn_134221\I134221\_IString.h
; File D:\git\src\IBK\IBK_DRFN\ProjSrc\SrcChartEx\ChartAddIn\ChartDataListViewerAddIn\ChartDataListViewerAddIn\DlgDataListViewer.cpp
; File D:\git\src\IBK\IBK_DRFN\ProjSrc\SrcChartEx\ChartAddIn\ChartDataListViewerAddIn\Include_AddIn_134221\I134221\_IString.h
; File D:\git\src\IBK\IBK_DRFN\ProjSrc\SrcChartEx\ChartAddIn\ChartDataListViewerAddIn\ChartDataListViewerAddIn\DlgDataListViewer.cpp
; File C:\Program Files (x86)\Microsoft Visual Studio\2019\Community\VC\Tools\MSVC\14.29.30133\atlmfc\include\atlsimpstr.h
; File C:\Program Files (x86)\Microsoft Visual Studio\2019\Community\VC\Tools\MSVC\14.29.30133\atlmfc\include\afxwin1.inl
; File D:\git\src\IBK\IBK_DRFN\ProjSrc\SrcChartEx\ChartAddIn\ChartDataListViewerAddIn\ChartDataListViewerAddIn\DlgDataListViewer.cpp
; File C:\Program Files (x86)\Microsoft Visual Studio\2019\Community\VC\Tools\MSVC\14.29.30133\atlmfc\include\afxcmn.inl
; File D:\git\src\IBK\IBK_DRFN\ProjSrc\SrcChartEx\ChartAddIn\ChartDataListViewerAddIn\ChartDataListViewerAddIn\DlgDataListViewer.cpp
; File C:\Program Files (x86)\Microsoft Visual Studio\2019\Community\VC\Tools\MSVC\14.29.30133\atlmfc\include\afxcmn.inl
; File D:\git\src\IBK\IBK_DRFN\ProjSrc\SrcChartEx\ChartAddIn\ChartDataListViewerAddIn\ChartDataListViewerAddIn\DlgDataListViewer.cpp
; File C:\Program Files (x86)\Microsoft Visual Studio\2019\Community\VC\Tools\MSVC\14.29.30133\atlmfc\include\afxcmn.inl
; File D:\git\src\IBK\IBK_DRFN\ProjSrc\SrcChartEx\ChartAddIn\ChartDataListViewerAddIn\ChartDataListViewerAddIn\DlgDataListViewer.cpp
; File C:\Program Files (x86)\Microsoft Visual Studio\2019\Community\VC\Tools\MSVC\14.29.30133\atlmfc\include\afxcmn.inl
; File D:\git\src\IBK\IBK_DRFN\ProjSrc\SrcChartEx\ChartAddIn\ChartDataListViewerAddIn\ChartDataListViewerAddIn\DlgDataListViewer.cpp
; File D:\git\src\IBK\IBK_DRFN\ProjSrc\SrcChartEx\ChartAddIn\ChartDataListViewerAddIn\Include_AddIn_134221\I134221\_IString.h
; File D:\git\src\IBK\IBK_DRFN\ProjSrc\SrcChartEx\ChartAddIn\ChartDataListViewerAddIn\ChartDataListViewerAddIn\DlgDataListViewer.cpp
; File C:\Program Files (x86)\Microsoft Visual Studio\2019\Community\VC\Tools\MSVC\14.29.30133\atlmfc\include\atlsimpstr.h
; File D:\git\src\IBK\IBK_DRFN\ProjSrc\SrcChartEx\ChartAddIn\ChartDataListViewerAddIn\ChartDataListViewerAddIn\DlgDataListViewer.cpp
; File C:\Program Files (x86)\Microsoft Visual Studio\2019\Community\VC\Tools\MSVC\14.29.30133\atlmfc\include\atlsimpstr.h
; File D:\git\src\IBK\IBK_DRFN\ProjSrc\SrcChartEx\ChartAddIn\ChartDataListViewerAddIn\ChartDataListViewerAddIn\DlgDataListViewer.cpp
; File C:\Program Files (x86)\Microsoft Visual Studio\2019\Community\VC\Tools\MSVC\14.29.30133\atlmfc\include\atlsimpstr.h
; File C:\Program Files (x86)\Microsoft Visual Studio\2019\Community\VC\Tools\MSVC\14.29.30133\atlmfc\include\afxwin1.inl
; File D:\git\src\IBK\IBK_DRFN\ProjSrc\SrcChartEx\ChartAddIn\ChartDataListViewerAddIn\ChartDataListViewerAddIn\DlgDataListViewer.cpp
; File C:\Program Files (x86)\Microsoft Visual Studio\2019\Community\VC\Tools\MSVC\14.29.30133\atlmfc\include\afxcmn.inl
; File D:\git\src\IBK\IBK_DRFN\ProjSrc\SrcChartEx\ChartAddIn\ChartDataListViewerAddIn\ChartDataListViewerAddIn\DlgDataListViewer.cpp
; File C:\Program Files (x86)\Microsoft Visual Studio\2019\Community\VC\Tools\MSVC\14.29.30133\atlmfc\include\afxcmn.inl
; File D:\git\src\IBK\IBK_DRFN\ProjSrc\SrcChartEx\ChartAddIn\ChartDataListViewerAddIn\ChartDataListViewerAddIn\DlgDataListViewer.cpp
; File C:\Program Files (x86)\Microsoft Visual Studio\2019\Community\VC\Tools\MSVC\14.29.30133\atlmfc\include\afxcmn.inl
; File D:\git\src\IBK\IBK_DRFN\ProjSrc\SrcChartEx\ChartAddIn\ChartDataListViewerAddIn\ChartDataListViewerAddIn\DlgDataListViewer.cpp
; File C:\Program Files (x86)\Microsoft Visual Studio\2019\Community\VC\Tools\MSVC\14.29.30133\atlmfc\include\afxcmn.inl
; File D:\git\src\IBK\IBK_DRFN\ProjSrc\SrcChartEx\ChartAddIn\ChartDataListViewerAddIn\ChartDataListViewerAddIn\DlgDataListViewer.cpp
; File C:\Program Files (x86)\Microsoft Visual Studio\2019\Community\VC\Tools\MSVC\14.29.30133\atlmfc\include\cstringt.h
; File D:\git\src\IBK\IBK_DRFN\ProjSrc\SrcChartEx\ChartAddIn\ChartDataListViewerAddIn\ChartDataListViewerAddIn\DlgDataListViewer.cpp
; File C:\Program Files (x86)\Microsoft Visual Studio\2019\Community\VC\Tools\MSVC\14.29.30133\atlmfc\include\cstringt.h
; File D:\git\src\IBK\IBK_DRFN\ProjSrc\SrcChartEx\ChartAddIn\ChartDataListViewerAddIn\ChartDataListViewerAddIn\DlgDataListViewer.cpp
; File C:\Program Files (x86)\Microsoft Visual Studio\2019\Community\VC\Tools\MSVC\14.29.30133\atlmfc\include\cstringt.h
; File C:\Program Files (x86)\Microsoft Visual Studio\2019\Community\VC\Tools\MSVC\14.29.30133\atlmfc\include\atlsimpstr.h
; File C:\Program Files (x86)\Microsoft Visual Studio\2019\Community\VC\Tools\MSVC\14.29.30133\atlmfc\include\cstringt.h
; File C:\Program Files (x86)\Microsoft Visual Studio\2019\Community\VC\Tools\MSVC\14.29.30133\atlmfc\include\atlsimpstr.h
; File C:\Program Files (x86)\Microsoft Visual Studio\2019\Community\VC\Tools\MSVC\14.29.30133\atlmfc\include\cstringt.h
; File D:\git\src\IBK\IBK_DRFN\ProjSrc\SrcChartEx\ChartAddIn\ChartDataListViewerAddIn\ChartDataListViewerAddIn\DlgDataListViewer.cpp
; File C:\Program Files (x86)\Microsoft Visual Studio\2019\Community\VC\Tools\MSVC\14.29.30133\atlmfc\include\cstringt.h
; File D:\git\src\IBK\IBK_DRFN\ProjSrc\SrcChartEx\ChartAddIn\ChartDataListViewerAddIn\ChartDataListViewerAddIn\DlgDataListViewer.cpp
; File C:\Program Files (x86)\Microsoft Visual Studio\2019\Community\VC\Tools\MSVC\14.29.30133\atlmfc\include\cstringt.h
; File C:\Program Files (x86)\Microsoft Visual Studio\2019\Community\VC\Tools\MSVC\14.29.30133\atlmfc\include\atlsimpstr.h
; File C:\Program Files (x86)\Microsoft Visual Studio\2019\Community\VC\Tools\MSVC\14.29.30133\atlmfc\include\cstringt.h
; File D:\git\src\IBK\IBK_DRFN\ProjSrc\SrcChartEx\ChartAddIn\ChartDataListViewerAddIn\ChartDataListViewerAddIn\DlgDataListViewer.cpp
; File C:\Program Files (x86)\Microsoft Visual Studio\2019\Community\VC\Tools\MSVC\14.29.30133\atlmfc\include\cstringt.h
; File D:\git\src\IBK\IBK_DRFN\ProjSrc\SrcChartEx\ChartAddIn\ChartDataListViewerAddIn\ChartDataListViewerAddIn\DlgDataListViewer.cpp
; File C:\Program Files (x86)\Microsoft Visual Studio\2019\Community\VC\Tools\MSVC\14.29.30133\atlmfc\include\cstringt.h
; File D:\git\src\IBK\IBK_DRFN\ProjSrc\SrcChartEx\ChartAddIn\ChartDataListViewerAddIn\ChartDataListViewerAddIn\DlgDataListViewer.cpp
; File C:\Program Files (x86)\Microsoft Visual Studio\2019\Community\VC\Tools\MSVC\14.29.30133\atlmfc\include\cstringt.h
; File C:\Program Files (x86)\Microsoft Visual Studio\2019\Community\VC\Tools\MSVC\14.29.30133\atlmfc\include\atlsimpstr.h
; File C:\Program Files (x86)\Microsoft Visual Studio\2019\Community\VC\Tools\MSVC\14.29.30133\atlmfc\include\cstringt.h
; File D:\git\src\IBK\IBK_DRFN\ProjSrc\SrcChartEx\ChartAddIn\ChartDataListViewerAddIn\ChartDataListViewerAddIn\DlgDataListViewer.cpp
; File C:\Program Files (x86)\Microsoft Visual Studio\2019\Community\VC\Tools\MSVC\14.29.30133\atlmfc\include\atlsimpstr.h
; File C:\Program Files (x86)\Microsoft Visual Studio\2019\Community\VC\Tools\MSVC\14.29.30133\atlmfc\include\afxwin1.inl
; File D:\git\src\IBK\IBK_DRFN\ProjSrc\SrcChartEx\ChartAddIn\ChartDataListViewerAddIn\ChartDataListViewerAddIn\DlgDataListViewer.cpp
; File C:\Program Files (x86)\Microsoft Visual Studio\2019\Community\VC\Tools\MSVC\14.29.30133\atlmfc\include\afxcmn.inl
; File D:\git\src\IBK\IBK_DRFN\ProjSrc\SrcChartEx\ChartAddIn\ChartDataListViewerAddIn\ChartDataListViewerAddIn\DlgDataListViewer.cpp
; File C:\Program Files (x86)\Microsoft Visual Studio\2019\Community\VC\Tools\MSVC\14.29.30133\atlmfc\include\afxcmn.inl
; File D:\git\src\IBK\IBK_DRFN\ProjSrc\SrcChartEx\ChartAddIn\ChartDataListViewerAddIn\ChartDataListViewerAddIn\DlgDataListViewer.cpp
; File C:\Program Files (x86)\Microsoft Visual Studio\2019\Community\VC\Tools\MSVC\14.29.30133\atlmfc\include\afxcmn.inl
; File D:\git\src\IBK\IBK_DRFN\ProjSrc\SrcChartEx\ChartAddIn\ChartDataListViewerAddIn\ChartDataListViewerAddIn\DlgDataListViewer.cpp
; File C:\Program Files (x86)\Microsoft Visual Studio\2019\Community\VC\Tools\MSVC\14.29.30133\atlmfc\include\afxcmn.inl
; File D:\git\src\IBK\IBK_DRFN\ProjSrc\SrcChartEx\ChartAddIn\ChartDataListViewerAddIn\ChartDataListViewerAddIn\DlgDataListViewer.cpp
; File C:\Program Files (x86)\Microsoft Visual Studio\2019\Community\VC\Tools\MSVC\14.29.30133\atlmfc\include\afxwin2.inl
; File D:\git\src\IBK\IBK_DRFN\ProjSrc\SrcChartEx\ChartAddIn\ChartDataListViewerAddIn\ChartDataListViewerAddIn\DlgDataListViewer.cpp
;	COMDAT ?Make_ListHeader@CDlgDataListViewer@@QAEXABV?$CStringT@DV?$StrTraitMFC_DLL@DV?$ChTraitsCRT@D@ATL@@@@@ATL@@0@Z
_TEXT	SEGMENT
_size$2 = -184						; size = 8
_size$3 = -176						; size = 8
$T4 = -176						; size = 8
$T5 = -168						; size = 4
_szPacketName$6 = -164					; size = 8
$T7 = -160						; size = 4
_szTitles$ = -156					; size = 4
_szT$ = -152						; size = 4
_strRQs$ = -148						; size = 4
_strRQ$ = -144						; size = 4
tv2070 = -140						; size = 4
$T8 = -136						; size = 4
_strTitle$9 = -132					; size = 4
$T10 = -128						; size = 4
$T11 = -124						; size = 4
$T12 = -120						; size = 4
$T13 = -116						; size = 4
_lc$ = -112						; size = 44
_size$14 = -68						; size = 8
_size$15 = -68						; size = 8
_szPacketType$16 = -68					; size = 8
$T17 = -64						; size = 4
_ntitleCount$1$ = -60					; size = 4
_strTitle$18 = -60					; size = 4
_pDC$1$ = -56						; size = 4
_nOneRecordCount$1$ = -52				; size = 4
_eDateUnit$1$ = -52					; size = 4
$T19 = -48						; size = 4
_strTitle$20 = -48					; size = 4
_pPacketheader$1$ = -44					; size = 4
$T21 = -44						; size = 4
$T22 = -40						; size = 4
$T23 = -40						; size = 4
$T24 = -40						; size = 4
$T25 = -40						; size = 4
$T26 = -40						; size = 4
_this$1$ = -36						; size = 4
_strUIText$27 = -32					; size = 4
_strType$28 = -32					; size = 4
$T29 = -28						; size = 4
_strFormat$30 = -28					; size = 4
_maintitle$31 = -24					; size = 4
_strPacketName$32 = -24					; size = 4
$T33 = -20						; size = 4
_strThreeLineBreak$34 = -20				; size = 4
_strThreeLineBreak$35 = -20				; size = 4
_strThreeLineBreak$36 = -20				; size = 4
_strThreeLineBreak$37 = -20				; size = 4
_j$1$ = -16						; size = 4
$T38 = -16						; size = 4
$T39 = -16						; size = 4
$T40 = -16						; size = 4
$T41 = -16						; size = 4
$T42 = -16						; size = 4
$T43 = -16						; size = 4
$T44 = -16						; size = 4
$T45 = -16						; size = 4
__$EHRec$ = -12						; size = 12
_strP$46 = 8						; size = 4
_strTime$47 = 8						; size = 4
_strTitles$ = 8						; size = 4
_strName$48 = 12					; size = 4
_strTitle$49 = 12					; size = 4
_strDate$50 = 12					; size = 4
$T51 = 12						; size = 4
_strPacketNamesPerBlock$ = 12				; size = 4
?Make_ListHeader@CDlgDataListViewer@@QAEXABV?$CStringT@DV?$StrTraitMFC_DLL@DV?$ChTraitsCRT@D@ATL@@@@@ATL@@0@Z PROC ; CDlgDataListViewer::Make_ListHeader, COMDAT
; _this$ = ecx

; 244  : {

  00000	55		 push	 ebp
  00001	8b ec		 mov	 ebp, esp
  00003	6a ff		 push	 -1
  00005	68 00 00 00 00	 push	 __ehhandler$?Make_ListHeader@CDlgDataListViewer@@QAEXABV?$CStringT@DV?$StrTraitMFC_DLL@DV?$ChTraitsCRT@D@ATL@@@@@ATL@@0@Z
  0000a	64 a1 00 00 00
	00		 mov	 eax, DWORD PTR fs:0
  00010	50		 push	 eax
  00011	81 ec ac 00 00
	00		 sub	 esp, 172		; 000000acH
  00017	53		 push	 ebx
  00018	56		 push	 esi
  00019	57		 push	 edi
  0001a	a1 00 00 00 00	 mov	 eax, DWORD PTR ___security_cookie
  0001f	33 c5		 xor	 eax, ebp
  00021	50		 push	 eax
  00022	8d 45 f4	 lea	 eax, DWORD PTR __$EHRec$[ebp]
  00025	64 a3 00 00 00
	00		 mov	 DWORD PTR fs:0, eax
  0002b	8b f9		 mov	 edi, ecx
  0002d	89 7d dc	 mov	 DWORD PTR _this$1$[ebp], edi
  00030	33 db		 xor	 ebx, ebx
  00032	89 5d e4	 mov	 DWORD PTR $T29[ebp], ebx
; File C:\Program Files (x86)\Microsoft Visual Studio\2019\Community\VC\Tools\MSVC\14.29.30133\atlmfc\include\atlsimpstr.h

; 519  : 		return( GetData()->nDataLength );

  00035	8b 45 0c	 mov	 eax, DWORD PTR _strPacketNamesPerBlock$[ebp]
  00038	8b 00		 mov	 eax, DWORD PTR [eax]

; 533  : 		return( GetLength() == 0 );

  0003a	39 58 f4	 cmp	 DWORD PTR [eax-12], ebx
; File D:\git\src\IBK\IBK_DRFN\ProjSrc\SrcChartEx\ChartAddIn\ChartDataListViewerAddIn\ChartDataListViewerAddIn\DlgDataListViewer.cpp

; 245  : 	if(strPacketNamesPerBlock.IsEmpty())

  0003d	0f 84 13 0e 00
	00		 je	 $LN1@Make_ListH

; 246  : 		return ;
; 247  : 	CString szTitles = strTitles, szT = m_strPacketNamesPerBlock ;

  00043	8b 75 08	 mov	 esi, DWORD PTR _strTitles$[ebp]
  00046	8d 8d 64 ff ff
	ff		 lea	 ecx, DWORD PTR _szTitles$[ebp]
  0004c	56		 push	 esi
  0004d	ff 15 00 00 00
	00		 call	 DWORD PTR __imp_??0?$CStringT@DV?$StrTraitMFC_DLL@DV?$ChTraitsCRT@D@ATL@@@@@ATL@@QAE@ABV01@@Z
  00053	8d 87 cc 03 00
	00		 lea	 eax, DWORD PTR [edi+972]
  00059	89 5d fc	 mov	 DWORD PTR __$EHRec$[ebp+8], ebx
  0005c	50		 push	 eax
  0005d	8d 8d 68 ff ff
	ff		 lea	 ecx, DWORD PTR _szT$[ebp]
  00063	ff 15 00 00 00
	00		 call	 DWORD PTR __imp_??0?$CStringT@DV?$StrTraitMFC_DLL@DV?$ChTraitsCRT@D@ATL@@@@@ATL@@QAE@ABV01@@Z

; 248  : 
; 249  : 	int ntitleCount = CDataConversion::GetStringDataCount(strTitles, ";");

  00069	68 00 00 00 00	 push	 OFFSET ??_C@_01ICJEACDI@?$DL@
  0006e	8d 4d 0c	 lea	 ecx, DWORD PTR $T51[ebp]
  00071	c6 45 fc 01	 mov	 BYTE PTR __$EHRec$[ebp+8], 1
  00075	ff 15 00 00 00
	00		 call	 DWORD PTR __imp_??0?$CStringT@DV?$StrTraitMFC_DLL@DV?$ChTraitsCRT@D@ATL@@@@@ATL@@QAE@PBD@Z
  0007b	8d 45 0c	 lea	 eax, DWORD PTR $T51[ebp]
  0007e	c6 45 fc 02	 mov	 BYTE PTR __$EHRec$[ebp+8], 2
  00082	50		 push	 eax
  00083	56		 push	 esi
  00084	e8 00 00 00 00	 call	 ?GetStringDataCount@CDataConversion@@SAHABV?$CStringT@DV?$StrTraitMFC_DLL@DV?$ChTraitsCRT@D@ATL@@@@@ATL@@0@Z ; CDataConversion::GetStringDataCount
  00089	83 c4 08	 add	 esp, 8
  0008c	89 45 c4	 mov	 DWORD PTR _ntitleCount$1$[ebp], eax
  0008f	8d 4d 0c	 lea	 ecx, DWORD PTR $T51[ebp]
  00092	c6 45 fc 01	 mov	 BYTE PTR __$EHRec$[ebp+8], 1
  00096	ff 15 00 00 00
	00		 call	 DWORD PTR __imp_??1?$CStringT@DV?$StrTraitMFC_DLL@DV?$ChTraitsCRT@D@ATL@@@@@ATL@@QAE@XZ
; File C:\Program Files (x86)\Microsoft Visual Studio\2019\Community\VC\Tools\MSVC\14.29.30133\atlmfc\include\afxwin2.inl

; 100  : 	{ ASSERT(::IsWindow(m_hWnd)); return CDC::FromHandle(::GetDC(m_hWnd)); }

  0009c	ff 77 20	 push	 DWORD PTR [edi+32]
; File D:\git\src\IBK\IBK_DRFN\ProjSrc\SrcChartEx\ChartAddIn\ChartDataListViewerAddIn\ChartDataListViewerAddIn\DlgDataListViewer.cpp

; 254  : 	int j = 0, nStart = 0 ;

  0009f	33 f6		 xor	 esi, esi
  000a1	89 75 f0	 mov	 DWORD PTR _j$1$[ebp], esi
; File C:\Program Files (x86)\Microsoft Visual Studio\2019\Community\VC\Tools\MSVC\14.29.30133\atlmfc\include\afxwin2.inl

; 100  : 	{ ASSERT(::IsWindow(m_hWnd)); return CDC::FromHandle(::GetDC(m_hWnd)); }

  000a4	ff 15 00 00 00
	00		 call	 DWORD PTR __imp__GetDC@4
  000aa	50		 push	 eax
  000ab	e8 00 00 00 00	 call	 ?FromHandle@CDC@@SGPAV1@PAUHDC__@@@Z ; CDC::FromHandle
; File D:\git\src\IBK\IBK_DRFN\ProjSrc\SrcChartEx\ChartAddIn\ChartDataListViewerAddIn\ChartDataListViewerAddIn\DlgDataListViewer.cpp

; 259  : 	CString strRQs = m_strRQs;

  000b0	8d 8f 44 04 00
	00		 lea	 ecx, DWORD PTR [edi+1092]
  000b6	89 45 c8	 mov	 DWORD PTR _pDC$1$[ebp], eax
  000b9	51		 push	 ecx
  000ba	8d 8d 6c ff ff
	ff		 lea	 ecx, DWORD PTR _strRQs$[ebp]
  000c0	ff 15 00 00 00
	00		 call	 DWORD PTR __imp_??0?$CStringT@DV?$StrTraitMFC_DLL@DV?$ChTraitsCRT@D@ATL@@@@@ATL@@QAE@ABV01@@Z

; 260  : 	CString strRQ  = CDataConversion::GetStringData(strRQs, ";");

  000c6	68 00 00 00 00	 push	 OFFSET ??_C@_01ICJEACDI@?$DL@
  000cb	8d 4d 8c	 lea	 ecx, DWORD PTR $T13[ebp]
  000ce	c6 45 fc 03	 mov	 BYTE PTR __$EHRec$[ebp+8], 3
  000d2	ff 15 00 00 00
	00		 call	 DWORD PTR __imp_??0?$CStringT@DV?$StrTraitMFC_DLL@DV?$ChTraitsCRT@D@ATL@@@@@ATL@@QAE@PBD@Z
  000d8	6a 01		 push	 1
  000da	8d 45 8c	 lea	 eax, DWORD PTR $T13[ebp]
  000dd	c6 45 fc 04	 mov	 BYTE PTR __$EHRec$[ebp+8], 4
  000e1	50		 push	 eax
  000e2	8d 85 6c ff ff
	ff		 lea	 eax, DWORD PTR _strRQs$[ebp]
  000e8	50		 push	 eax
  000e9	8d 85 70 ff ff
	ff		 lea	 eax, DWORD PTR _strRQ$[ebp]
  000ef	50		 push	 eax
  000f0	e8 00 00 00 00	 call	 ?GetStringData@CDataConversion@@SA?AV?$CStringT@DV?$StrTraitMFC_DLL@DV?$ChTraitsCRT@D@ATL@@@@@ATL@@AAV23@ABV23@_N@Z ; CDataConversion::GetStringData
  000f5	83 c4 10	 add	 esp, 16			; 00000010H
  000f8	8d 4d 8c	 lea	 ecx, DWORD PTR $T13[ebp]
  000fb	c6 45 fc 06	 mov	 BYTE PTR __$EHRec$[ebp+8], 6
  000ff	ff 15 00 00 00
	00		 call	 DWORD PTR __imp_??1?$CStringT@DV?$StrTraitMFC_DLL@DV?$ChTraitsCRT@D@ATL@@@@@ATL@@QAE@XZ

; 261  : 	IPacket *pPacketheader = m_pPacketList->GetPacket( strRQ, m_strHorzScale);

  00105	8b 8f c0 03 00
	00		 mov	 ecx, DWORD PTR [edi+960]
; File C:\Program Files (x86)\Microsoft Visual Studio\2019\Community\VC\Tools\MSVC\14.29.30133\atlmfc\include\atlsimpstr.h

; 377  : 		return( m_pszData );

  0010b	8d 97 bc 03 00
	00		 lea	 edx, DWORD PTR [edi+956]
; File D:\git\src\IBK\IBK_DRFN\ProjSrc\SrcChartEx\ChartAddIn\ChartDataListViewerAddIn\ChartDataListViewerAddIn\DlgDataListViewer.cpp

; 261  : 	IPacket *pPacketheader = m_pPacketList->GetPacket( strRQ, m_strHorzScale);

  00111	ff 32		 push	 DWORD PTR [edx]
; File C:\Program Files (x86)\Microsoft Visual Studio\2019\Community\VC\Tools\MSVC\14.29.30133\atlmfc\include\atlsimpstr.h

; 377  : 		return( m_pszData );

  00113	89 95 74 ff ff
	ff		 mov	 DWORD PTR tv2070[ebp], edx
; File D:\git\src\IBK\IBK_DRFN\ProjSrc\SrcChartEx\ChartAddIn\ChartDataListViewerAddIn\ChartDataListViewerAddIn\DlgDataListViewer.cpp

; 261  : 	IPacket *pPacketheader = m_pPacketList->GetPacket( strRQ, m_strHorzScale);

  00119	ff b5 70 ff ff
	ff		 push	 DWORD PTR _strRQ$[ebp]
  0011f	8b 01		 mov	 eax, DWORD PTR [ecx]
  00121	ff 50 10	 call	 DWORD PTR [eax+16]

; 262  : 	//IPacket *pPacketheader = m_pPacketList->GetPacket( m_strHorzScale);
; 263  : 	//20081106  <<
; 264  : 	m_ctlList.SetIconSpacing(300, 10000);

  00124	8b 4d dc	 mov	 ecx, DWORD PTR _this$1$[ebp]
  00127	8b f8		 mov	 edi, eax
  00129	68 10 27 00 00	 push	 10000			; 00002710H
  0012e	68 2c 01 00 00	 push	 300			; 0000012cH
  00133	8d 85 50 ff ff
	ff		 lea	 eax, DWORD PTR $T4[ebp]
  00139	89 7d d4	 mov	 DWORD PTR _pPacketheader$1$[ebp], edi
  0013c	50		 push	 eax
  0013d	81 c1 b8 02 00
	00		 add	 ecx, 696		; 000002b8H
  00143	e8 00 00 00 00	 call	 ?SetIconSpacing@CListCtrl@@QAE?AVCSize@@HH@Z ; CListCtrl::SetIconSpacing

; 265  : 
; 266  : 	// 1st header
; 267  : 	if(pPacketheader)

  00148	85 ff		 test	 edi, edi
  0014a	0f 84 f8 06 00
	00		 je	 $LN307@Make_ListH

; 268  : 	{
; 269  : 		lc.mask = LVCF_FMT | LVCF_SUBITEM | LVCF_TEXT | LVCF_WIDTH ;

  00150	c7 45 90 0f 00
	00 00		 mov	 DWORD PTR _lc$[ebp], 15	; 0000000fH

; 273  : 		ILPCSTR szPacketName = pPacketheader->GetPacketNameString();

  00157	8b cf		 mov	 ecx, edi
  00159	c7 45 94 01 00
	00 00		 mov	 DWORD PTR _lc$[ebp+4], 1
  00160	8b 07		 mov	 eax, DWORD PTR [edi]
  00162	ff 50 14	 call	 DWORD PTR [eax+20]
; File D:\git\src\IBK\IBK_DRFN\ProjSrc\SrcChartEx\ChartAddIn\ChartDataListViewerAddIn\Include_AddIn_134221\I134221\_IString.h

; 39   : 		m_pIStrData = p_pIString;	// Do not AddRef(). Because It must be Return Value.

  00165	8b f0		 mov	 esi, eax
  00167	89 b5 60 ff ff
	ff		 mov	 DWORD PTR _szPacketName$6[ebp+4], esi

; 40   : 		if( m_pIStrData) m_szData = m_pIStrData->GetData();

  0016d	85 f6		 test	 esi, esi
  0016f	74 09		 je	 SHORT $LN122@Make_ListH
  00171	8b 16		 mov	 edx, DWORD PTR [esi]
  00173	8b ce		 mov	 ecx, esi
  00175	ff 52 10	 call	 DWORD PTR [edx+16]
  00178	eb 02		 jmp	 SHORT $LN428@Make_ListH
$LN122@Make_ListH:

; 41   : 		else m_szData = NULL;

  0017a	33 c0		 xor	 eax, eax
$LN428@Make_ListH:
; File D:\git\src\IBK\IBK_DRFN\ProjSrc\SrcChartEx\ChartAddIn\ChartDataListViewerAddIn\ChartDataListViewerAddIn\DlgDataListViewer.cpp

; 273  : 		ILPCSTR szPacketName = pPacketheader->GetPacketNameString();

  0017c	89 85 5c ff ff
	ff		 mov	 DWORD PTR _szPacketName$6[ebp], eax

; 274  : 		CString strPacketName( szPacketName);

  00182	50		 push	 eax
  00183	8d 4d e8	 lea	 ecx, DWORD PTR _strPacketName$32[ebp]
  00186	c6 45 fc 07	 mov	 BYTE PTR __$EHRec$[ebp+8], 7
  0018a	ff 15 00 00 00
	00		 call	 DWORD PTR __imp_??0?$CStringT@DV?$StrTraitMFC_DLL@DV?$ChTraitsCRT@D@ATL@@@@@ATL@@QAE@PBD@Z

; 275  : 		//if(strPacketName.Find("") >= 0)
; 276  : 		if(strPacketName.Find(_MTEXT(C0_DATE_TIME)) >= 0)

  00190	a1 54 00 00 00	 mov	 eax, DWORD PTR ?g_iMetaTable@@3VIMetaTable@@A+84
  00195	8d 4d e8	 lea	 ecx, DWORD PTR _strPacketName$32[ebp]
  00198	6a 00		 push	 0
  0019a	c6 45 fc 08	 mov	 BYTE PTR __$EHRec$[ebp+8], 8
  0019e	ff 30		 push	 DWORD PTR [eax]
  001a0	ff 15 00 00 00
	00		 call	 DWORD PTR __imp_?Find@?$CStringT@DV?$StrTraitMFC_DLL@DV?$ChTraitsCRT@D@ATL@@@@@ATL@@QBEHPBDH@Z
  001a6	85 c0		 test	 eax, eax
  001a8	0f 88 e6 05 00
	00		 js	 $LN12@Make_ListH

; 278  : 			ILPCSTR szPacketType = pPacketheader->GetType();

  001ae	8b 07		 mov	 eax, DWORD PTR [edi]
  001b0	8b cf		 mov	 ecx, edi
  001b2	6a 01		 push	 1
  001b4	ff 50 1c	 call	 DWORD PTR [eax+28]
; File D:\git\src\IBK\IBK_DRFN\ProjSrc\SrcChartEx\ChartAddIn\ChartDataListViewerAddIn\Include_AddIn_134221\I134221\_IString.h

; 39   : 		m_pIStrData = p_pIString;	// Do not AddRef(). Because It must be Return Value.

  001b7	8b f8		 mov	 edi, eax
  001b9	89 7d c0	 mov	 DWORD PTR _szPacketType$16[ebp+4], edi

; 40   : 		if( m_pIStrData) m_szData = m_pIStrData->GetData();

  001bc	85 ff		 test	 edi, edi
  001be	74 09		 je	 SHORT $LN126@Make_ListH
  001c0	8b 17		 mov	 edx, DWORD PTR [edi]
  001c2	8b cf		 mov	 ecx, edi
  001c4	ff 52 10	 call	 DWORD PTR [edx+16]
  001c7	eb 02		 jmp	 SHORT $LN429@Make_ListH
$LN126@Make_ListH:

; 41   : 		else m_szData = NULL;

  001c9	33 c0		 xor	 eax, eax
$LN429@Make_ListH:
; File D:\git\src\IBK\IBK_DRFN\ProjSrc\SrcChartEx\ChartAddIn\ChartDataListViewerAddIn\ChartDataListViewerAddIn\DlgDataListViewer.cpp

; 278  : 			ILPCSTR szPacketType = pPacketheader->GetType();

  001cb	89 45 bc	 mov	 DWORD PTR _szPacketType$16[ebp], eax

; 279  : 
; 280  : 			CString strType = szPacketType;

  001ce	50		 push	 eax
  001cf	8d 4d e0	 lea	 ecx, DWORD PTR _strType$28[ebp]
  001d2	c6 45 fc 09	 mov	 BYTE PTR __$EHRec$[ebp+8], 9
  001d6	ff 15 00 00 00
	00		 call	 DWORD PTR __imp_??0?$CStringT@DV?$StrTraitMFC_DLL@DV?$ChTraitsCRT@D@ATL@@@@@ATL@@QAE@PBD@Z

; 281  : 			CString strTime;

  001dc	8d 4d 08	 lea	 ecx, DWORD PTR _strTime$47[ebp]
  001df	ff 15 00 00 00
	00		 call	 DWORD PTR __imp_??0?$CStringT@DV?$StrTraitMFC_DLL@DV?$ChTraitsCRT@D@ATL@@@@@ATL@@QAE@XZ

; 282  : 			CString strDate;

  001e5	8d 4d 0c	 lea	 ecx, DWORD PTR _strDate$50[ebp]
  001e8	ff 15 00 00 00
	00		 call	 DWORD PTR __imp_??0?$CStringT@DV?$StrTraitMFC_DLL@DV?$ChTraitsCRT@D@ATL@@@@@ATL@@QAE@XZ

; 285  : 			CScaleBaseData::HORZSCALEDRAWERTYPE eDateUnit = (CScaleBaseData::HORZSCALEDRAWERTYPE)pPacketheader->GetDateUnitType();

  001ee	8b 4d d4	 mov	 ecx, DWORD PTR _pPacketheader$1$[ebp]
  001f1	c6 45 fc 0c	 mov	 BYTE PTR __$EHRec$[ebp+8], 12 ; 0000000cH
  001f5	8b 01		 mov	 eax, DWORD PTR [ecx]
  001f7	ff 50 28	 call	 DWORD PTR [eax+40]
; File C:\Program Files (x86)\Microsoft Visual Studio\2019\Community\VC\Tools\MSVC\14.29.30133\atlmfc\include\cstringt.h

; 2486 : 		return(str1.Compare(psz2) == 0);

  001fa	68 00 00 00 00	 push	 OFFSET ??_C@_0P@IMPIBBAB@YYYYMMDDHHMMSS@
  001ff	8d 4d e0	 lea	 ecx, DWORD PTR _strType$28[ebp]
; File D:\git\src\IBK\IBK_DRFN\ProjSrc\SrcChartEx\ChartAddIn\ChartDataListViewerAddIn\ChartDataListViewerAddIn\DlgDataListViewer.cpp

; 285  : 			CScaleBaseData::HORZSCALEDRAWERTYPE eDateUnit = (CScaleBaseData::HORZSCALEDRAWERTYPE)pPacketheader->GetDateUnitType();

  00202	89 45 cc	 mov	 DWORD PTR _eDateUnit$1$[ebp], eax
; File C:\Program Files (x86)\Microsoft Visual Studio\2019\Community\VC\Tools\MSVC\14.29.30133\atlmfc\include\cstringt.h

; 2486 : 		return(str1.Compare(psz2) == 0);

  00205	ff 15 00 00 00
	00		 call	 DWORD PTR __imp_?Compare@?$CStringT@DV?$StrTraitMFC_DLL@DV?$ChTraitsCRT@D@ATL@@@@@ATL@@QBEHPBD@Z
  0020b	85 c0		 test	 eax, eax
; File D:\git\src\IBK\IBK_DRFN\ProjSrc\SrcChartEx\ChartAddIn\ChartDataListViewerAddIn\ChartDataListViewerAddIn\DlgDataListViewer.cpp

; 286  : 			if (strType == _T("YYYYMMDDHHMMSS"))

  0020d	0f 85 73 02 00
	00		 jne	 $LN14@Make_ListH

; 287  : 			{
; 288  : 				int nHourType = 0;
; 289  : 				if( CScaleBaseData::HORZ_TIME_ONE	== eDateUnit || 
; 290  : 					CScaleBaseData::HORZ_TIME_TWO	== eDateUnit ||
; 291  : 					CScaleBaseData::HORZ_TICK		== eDateUnit ||

  00213	8b 45 cc	 mov	 eax, DWORD PTR _eDateUnit$1$[ebp]
  00216	83 f8 04	 cmp	 eax, 4
  00219	74 13		 je	 SHORT $LN18@Make_ListH
  0021b	83 f8 06	 cmp	 eax, 6
  0021e	74 0e		 je	 SHORT $LN18@Make_ListH
  00220	83 f8 05	 cmp	 eax, 5
  00223	74 09		 je	 SHORT $LN18@Make_ListH
  00225	83 f8 0c	 cmp	 eax, 12			; 0000000cH
  00228	0f 85 51 01 00
	00		 jne	 $LN20@Make_ListH
$LN18@Make_ListH:

; 292  : 					CScaleBaseData::HORZ_TIME_SECOND== eDateUnit)
; 293  : 				{
; 294  : 					if (strType.Find("HH") >= 0)

  0022e	6a 00		 push	 0
  00230	68 00 00 00 00	 push	 OFFSET ??_C@_02EGJHDPJI@HH@
  00235	8d 4d e0	 lea	 ecx, DWORD PTR _strType$28[ebp]
  00238	ff 15 00 00 00
	00		 call	 DWORD PTR __imp_?Find@?$CStringT@DV?$StrTraitMFC_DLL@DV?$ChTraitsCRT@D@ATL@@@@@ATL@@QBEHPBDH@Z
  0023e	85 c0		 test	 eax, eax
  00240	0f 88 39 01 00
	00		 js	 $LN20@Make_ListH

; 295  : 						nHourType = 1;
; 296  : 				}
; 297  : 				else
; 298  : 				{
; 299  : 					nHourType = 0;
; 300  : 				}
; 301  : 
; 302  : 				if (nHourType == 1)
; 303  : 				{
; 304  : 					if(strPacketName.Find("PF_") >= 0)

  00246	6a 00		 push	 0
  00248	68 00 00 00 00	 push	 OFFSET ??_C@_03FMICJPKI@PF_@
  0024d	8d 4d e8	 lea	 ecx, DWORD PTR _strPacketName$32[ebp]
  00250	ff 15 00 00 00
	00		 call	 DWORD PTR __imp_?Find@?$CStringT@DV?$StrTraitMFC_DLL@DV?$ChTraitsCRT@D@ATL@@@@@ATL@@QBEHPBDH@Z
  00256	85 c0		 test	 eax, eax
  00258	78 68		 js	 SHORT $LN22@Make_ListH

; 305  : 					{
; 306  : 						strTime.LoadString(IDS_TIME);

  0025a	6a 03		 push	 3
  0025c	8d 4d 08	 lea	 ecx, DWORD PTR _strTime$47[ebp]
  0025f	ff 15 00 00 00
	00		 call	 DWORD PTR __imp_?LoadStringA@?$CStringT@DV?$StrTraitMFC_DLL@DV?$ChTraitsCRT@D@ATL@@@@@ATL@@QAEHI@Z
; File C:\Program Files (x86)\Microsoft Visual Studio\2019\Community\VC\Tools\MSVC\14.29.30133\atlmfc\include\cstringt.h

; 2412 : 		CStringT strResult( str2.GetManager() );

  00265	8d 4d 08	 lea	 ecx, DWORD PTR _strTime$47[ebp]
; File D:\git\src\IBK\IBK_DRFN\ProjSrc\SrcChartEx\ChartAddIn\ChartDataListViewerAddIn\ChartDataListViewerAddIn\DlgDataListViewer.cpp

; 307  : 						strTime = "P&F_" + strTime;

  00268	c6 45 fc 0d	 mov	 BYTE PTR __$EHRec$[ebp+8], 13 ; 0000000dH
; File C:\Program Files (x86)\Microsoft Visual Studio\2019\Community\VC\Tools\MSVC\14.29.30133\atlmfc\include\cstringt.h

; 2412 : 		CStringT strResult( str2.GetManager() );

  0026c	ff 15 00 00 00
	00		 call	 DWORD PTR __imp_?GetManager@?$CStringT@DV?$StrTraitMFC_DLL@DV?$ChTraitsCRT@D@ATL@@@@@ATL@@QBEPAUIAtlStringMgr@2@XZ
  00272	50		 push	 eax
  00273	8d 4d f0	 lea	 ecx, DWORD PTR $T45[ebp]
  00276	ff 15 00 00 00
	00		 call	 DWORD PTR __imp_??0?$CStringT@DV?$StrTraitMFC_DLL@DV?$ChTraitsCRT@D@ATL@@@@@ATL@@QAE@PAUIAtlStringMgr@1@@Z

; 2416 : 		return( strResult );

  0027c	c7 45 e4 01 00
	00 00		 mov	 DWORD PTR $T29[ebp], 1
$LN433@Make_ListH:
; File D:\git\src\IBK\IBK_DRFN\ProjSrc\SrcChartEx\ChartAddIn\ChartDataListViewerAddIn\ChartDataListViewerAddIn\DlgDataListViewer.cpp

; 407  : 			lc.iSubItem = j ;

  00283	8b 45 08	 mov	 eax, DWORD PTR _strTime$47[ebp]
  00286	ff 70 f4	 push	 DWORD PTR [eax-12]
  00289	50		 push	 eax
  0028a	6a 04		 push	 4
  0028c	8d 45 f0	 lea	 eax, DWORD PTR $T45[ebp]
  0028f	68 00 00 00 00	 push	 OFFSET ??_C@_04MNKDIHCC@P?$CGF_@
  00294	50		 push	 eax
  00295	ff 15 00 00 00
	00		 call	 DWORD PTR __imp_?Concatenate@?$CSimpleStringT@D$00@ATL@@KAXAAV12@PBDH1H@Z
  0029b	83 c4 14	 add	 esp, 20			; 00000014H
  0029e	8d 45 f0	 lea	 eax, DWORD PTR $T45[ebp]
  002a1	8d 4d 08	 lea	 ecx, DWORD PTR _strTime$47[ebp]
  002a4	50		 push	 eax
  002a5	ff 15 00 00 00
	00		 call	 DWORD PTR __imp_??4?$CStringT@DV?$StrTraitMFC_DLL@DV?$ChTraitsCRT@D@ATL@@@@@ATL@@QAEAAV01@ABV01@@Z
  002ab	8d 4d f0	 lea	 ecx, DWORD PTR $T45[ebp]
  002ae	c6 45 fc 0c	 mov	 BYTE PTR __$EHRec$[ebp+8], 12 ; 0000000cH
  002b2	33 db		 xor	 ebx, ebx
  002b4	ff 15 00 00 00
	00		 call	 DWORD PTR __imp_??1?$CStringT@DV?$StrTraitMFC_DLL@DV?$ChTraitsCRT@D@ATL@@@@@ATL@@QAE@XZ
  002ba	8b 45 08	 mov	 eax, DWORD PTR _strTime$47[ebp]
  002bd	e9 b3 03 00 00	 jmp	 $LN430@Make_ListH
$LN22@Make_ListH:

; 308  : 						// lc.pszText = "PF_";
; 309  : 						lc.pszText = (LPSTR)(LPCTSTR)strTime;
; 310  : 					}
; 311  : 					else if(strPacketName.Find("ThreeLineBreak_") >= 0)

  002c2	6a 00		 push	 0
  002c4	68 00 00 00 00	 push	 OFFSET ??_C@_0BA@OJCKCJHA@ThreeLineBreak_@
  002c9	8d 4d e8	 lea	 ecx, DWORD PTR _strPacketName$32[ebp]
  002cc	ff 15 00 00 00
	00		 call	 DWORD PTR __imp_?Find@?$CStringT@DV?$StrTraitMFC_DLL@DV?$ChTraitsCRT@D@ATL@@@@@ATL@@QBEHPBDH@Z
  002d2	8d 4d 08	 lea	 ecx, DWORD PTR _strTime$47[ebp]
  002d5	6a 03		 push	 3
  002d7	85 c0		 test	 eax, eax
  002d9	0f 88 92 00 00
	00		 js	 $LN24@Make_ListH

; 312  : 					{
; 313  : 						strTime.LoadString(IDS_TIME);

  002df	ff 15 00 00 00
	00		 call	 DWORD PTR __imp_?LoadStringA@?$CStringT@DV?$StrTraitMFC_DLL@DV?$ChTraitsCRT@D@ATL@@@@@ATL@@QAEHI@Z

; 314  : 						CString strThreeLineBreak;

  002e5	8d 4d ec	 lea	 ecx, DWORD PTR _strThreeLineBreak$37[ebp]
  002e8	ff 15 00 00 00
	00		 call	 DWORD PTR __imp_??0?$CStringT@DV?$StrTraitMFC_DLL@DV?$ChTraitsCRT@D@ATL@@@@@ATL@@QAE@XZ

; 315  : 						strThreeLineBreak.LoadString( IDS_THREE_LINE_BREAK);

  002ee	6a 08		 push	 8
  002f0	8d 4d ec	 lea	 ecx, DWORD PTR _strThreeLineBreak$37[ebp]
  002f3	c6 45 fc 0e	 mov	 BYTE PTR __$EHRec$[ebp+8], 14 ; 0000000eH
  002f7	ff 15 00 00 00
	00		 call	 DWORD PTR __imp_?LoadStringA@?$CStringT@DV?$StrTraitMFC_DLL@DV?$ChTraitsCRT@D@ATL@@@@@ATL@@QAEHI@Z
; File C:\Program Files (x86)\Microsoft Visual Studio\2019\Community\VC\Tools\MSVC\14.29.30133\atlmfc\include\cstringt.h

; 2401 : 		CStringT strResult( str1.GetManager() );

  002fd	8d 4d ec	 lea	 ecx, DWORD PTR _strThreeLineBreak$37[ebp]
; File D:\git\src\IBK\IBK_DRFN\ProjSrc\SrcChartEx\ChartAddIn\ChartDataListViewerAddIn\ChartDataListViewerAddIn\DlgDataListViewer.cpp

; 316  : 						strTime = strThreeLineBreak + "_" + strTime;

  00300	c6 45 fc 0f	 mov	 BYTE PTR __$EHRec$[ebp+8], 15 ; 0000000fH
; File C:\Program Files (x86)\Microsoft Visual Studio\2019\Community\VC\Tools\MSVC\14.29.30133\atlmfc\include\cstringt.h

; 2401 : 		CStringT strResult( str1.GetManager() );

  00304	ff 15 00 00 00
	00		 call	 DWORD PTR __imp_?GetManager@?$CStringT@DV?$StrTraitMFC_DLL@DV?$ChTraitsCRT@D@ATL@@@@@ATL@@QBEPAUIAtlStringMgr@2@XZ
  0030a	50		 push	 eax
  0030b	8d 4d f0	 lea	 ecx, DWORD PTR $T44[ebp]
  0030e	ff 15 00 00 00
	00		 call	 DWORD PTR __imp_??0?$CStringT@DV?$StrTraitMFC_DLL@DV?$ChTraitsCRT@D@ATL@@@@@ATL@@QAE@PAUIAtlStringMgr@1@@Z
; File C:\Program Files (x86)\Microsoft Visual Studio\2019\Community\VC\Tools\MSVC\14.29.30133\atlmfc\include\atlsimpstr.h

; 519  : 		return( GetData()->nDataLength );

  00314	8b 45 ec	 mov	 eax, DWORD PTR _strThreeLineBreak$37[ebp]
; File C:\Program Files (x86)\Microsoft Visual Studio\2019\Community\VC\Tools\MSVC\14.29.30133\atlmfc\include\cstringt.h

; 2403 : 		CThisSimpleString::Concatenate( strResult, str1, str1.GetLength(), psz2, CThisSimpleString::StringLength( psz2 ) );

  00317	6a 01		 push	 1
  00319	68 00 00 00 00	 push	 OFFSET ??_C@_01IDAFKMJL@_@

; 2405 : 		return( strResult );

  0031e	c7 45 e4 02 00
	00 00		 mov	 DWORD PTR $T29[ebp], 2
  00325	ff 70 f4	 push	 DWORD PTR [eax-12]
  00328	50		 push	 eax
  00329	8d 45 f0	 lea	 eax, DWORD PTR $T44[ebp]
  0032c	50		 push	 eax
  0032d	ff 15 00 00 00
	00		 call	 DWORD PTR __imp_?Concatenate@?$CSimpleStringT@D$00@ATL@@KAXAAV12@PBDH1H@Z
; File D:\git\src\IBK\IBK_DRFN\ProjSrc\SrcChartEx\ChartAddIn\ChartDataListViewerAddIn\ChartDataListViewerAddIn\DlgDataListViewer.cpp

; 316  : 						strTime = strThreeLineBreak + "_" + strTime;

  00333	8d 45 08	 lea	 eax, DWORD PTR _strTime$47[ebp]
  00336	50		 push	 eax
  00337	8d 45 f0	 lea	 eax, DWORD PTR $T44[ebp]
  0033a	50		 push	 eax
  0033b	8d 45 d8	 lea	 eax, DWORD PTR $T26[ebp]
  0033e	50		 push	 eax
  0033f	e8 00 00 00 00	 call	 ??HATL@@YA?AV?$CStringT@DV?$StrTraitMFC_DLL@DV?$ChTraitsCRT@D@ATL@@@@@0@ABV10@0@Z ; ATL::operator+
  00344	83 c4 20	 add	 esp, 32			; 00000020H
  00347	c6 45 fc 10	 mov	 BYTE PTR __$EHRec$[ebp+8], 16 ; 00000010H
$LN438@Make_ListH:

; 407  : 			lc.iSubItem = j ;

  0034b	50		 push	 eax
  0034c	8d 4d 08	 lea	 ecx, DWORD PTR _strTime$47[ebp]
  0034f	ff 15 00 00 00
	00		 call	 DWORD PTR __imp_??4?$CStringT@DV?$StrTraitMFC_DLL@DV?$ChTraitsCRT@D@ATL@@@@@ATL@@QAEAAV01@ABV01@@Z
  00355	8d 4d d8	 lea	 ecx, DWORD PTR $T26[ebp]
  00358	ff 15 00 00 00
	00		 call	 DWORD PTR __imp_??1?$CStringT@DV?$StrTraitMFC_DLL@DV?$ChTraitsCRT@D@ATL@@@@@ATL@@QAE@XZ
  0035e	8d 4d f0	 lea	 ecx, DWORD PTR $T44[ebp]
  00361	33 db		 xor	 ebx, ebx
  00363	ff 15 00 00 00
	00		 call	 DWORD PTR __imp_??1?$CStringT@DV?$StrTraitMFC_DLL@DV?$ChTraitsCRT@D@ATL@@@@@ATL@@QAE@XZ
  00369	8b 45 08	 mov	 eax, DWORD PTR _strTime$47[ebp]
  0036c	e9 e9 02 00 00	 jmp	 $LN436@Make_ListH
$LN24@Make_ListH:

; 317  : 						// lc.pszText = "ThreeLineBreak_";
; 318  : 						lc.pszText = (LPSTR)(LPCTSTR)strTime;
; 319  : 					}
; 320  : 					else
; 321  : 					{
; 322  : 						strTime.LoadString(IDS_TIME);

  00371	ff 15 00 00 00
	00		 call	 DWORD PTR __imp_?LoadStringA@?$CStringT@DV?$StrTraitMFC_DLL@DV?$ChTraitsCRT@D@ATL@@@@@ATL@@QAEHI@Z

; 323  : 						lc.pszText = (LPSTR)(LPCTSTR)strTime;

  00377	8b 45 08	 mov	 eax, DWORD PTR _strTime$47[ebp]

; 324  : 					}
; 325  : 				}

  0037a	e9 f6 02 00 00	 jmp	 $LN430@Make_ListH
$LN20@Make_ListH:

; 326  : 				else
; 327  : 				{
; 328  : 					if(strPacketName.Find("PF_") >= 0)

  0037f	6a 00		 push	 0
  00381	68 00 00 00 00	 push	 OFFSET ??_C@_03FMICJPKI@PF_@
  00386	8d 4d e8	 lea	 ecx, DWORD PTR _strPacketName$32[ebp]
  00389	ff 15 00 00 00
	00		 call	 DWORD PTR __imp_?Find@?$CStringT@DV?$StrTraitMFC_DLL@DV?$ChTraitsCRT@D@ATL@@@@@ATL@@QBEHPBDH@Z
  0038f	85 c0		 test	 eax, eax
  00391	78 65		 js	 SHORT $LN26@Make_ListH

; 329  : 					{
; 330  : 						strDate.LoadString(IDS_DATE);

  00393	6a 04		 push	 4
  00395	8d 4d 0c	 lea	 ecx, DWORD PTR _strDate$50[ebp]
  00398	ff 15 00 00 00
	00		 call	 DWORD PTR __imp_?LoadStringA@?$CStringT@DV?$StrTraitMFC_DLL@DV?$ChTraitsCRT@D@ATL@@@@@ATL@@QAEHI@Z
; File C:\Program Files (x86)\Microsoft Visual Studio\2019\Community\VC\Tools\MSVC\14.29.30133\atlmfc\include\cstringt.h

; 2412 : 		CStringT strResult( str2.GetManager() );

  0039e	8d 4d 0c	 lea	 ecx, DWORD PTR _strDate$50[ebp]
; File D:\git\src\IBK\IBK_DRFN\ProjSrc\SrcChartEx\ChartAddIn\ChartDataListViewerAddIn\ChartDataListViewerAddIn\DlgDataListViewer.cpp

; 331  : 						strDate = "P&F_" + strDate;

  003a1	c6 45 fc 11	 mov	 BYTE PTR __$EHRec$[ebp+8], 17 ; 00000011H
; File C:\Program Files (x86)\Microsoft Visual Studio\2019\Community\VC\Tools\MSVC\14.29.30133\atlmfc\include\cstringt.h

; 2412 : 		CStringT strResult( str2.GetManager() );

  003a5	ff 15 00 00 00
	00		 call	 DWORD PTR __imp_?GetManager@?$CStringT@DV?$StrTraitMFC_DLL@DV?$ChTraitsCRT@D@ATL@@@@@ATL@@QBEPAUIAtlStringMgr@2@XZ
  003ab	50		 push	 eax
  003ac	8d 4d f0	 lea	 ecx, DWORD PTR $T43[ebp]
  003af	ff 15 00 00 00
	00		 call	 DWORD PTR __imp_??0?$CStringT@DV?$StrTraitMFC_DLL@DV?$ChTraitsCRT@D@ATL@@@@@ATL@@QAE@PAUIAtlStringMgr@1@@Z

; 2416 : 		return( strResult );

  003b5	c7 45 e4 04 00
	00 00		 mov	 DWORD PTR $T29[ebp], 4
$LN432@Make_ListH:
; File D:\git\src\IBK\IBK_DRFN\ProjSrc\SrcChartEx\ChartAddIn\ChartDataListViewerAddIn\ChartDataListViewerAddIn\DlgDataListViewer.cpp

; 407  : 			lc.iSubItem = j ;

  003bc	8b 45 0c	 mov	 eax, DWORD PTR _strDate$50[ebp]
  003bf	ff 70 f4	 push	 DWORD PTR [eax-12]
  003c2	50		 push	 eax
  003c3	6a 04		 push	 4
  003c5	8d 45 f0	 lea	 eax, DWORD PTR $T43[ebp]
  003c8	68 00 00 00 00	 push	 OFFSET ??_C@_04MNKDIHCC@P?$CGF_@
  003cd	50		 push	 eax
  003ce	ff 15 00 00 00
	00		 call	 DWORD PTR __imp_?Concatenate@?$CSimpleStringT@D$00@ATL@@KAXAAV12@PBDH1H@Z
  003d4	83 c4 14	 add	 esp, 20			; 00000014H
  003d7	8d 45 f0	 lea	 eax, DWORD PTR $T43[ebp]
  003da	8d 4d 0c	 lea	 ecx, DWORD PTR _strDate$50[ebp]
  003dd	50		 push	 eax
  003de	ff 15 00 00 00
	00		 call	 DWORD PTR __imp_??4?$CStringT@DV?$StrTraitMFC_DLL@DV?$ChTraitsCRT@D@ATL@@@@@ATL@@QAEAAV01@ABV01@@Z
  003e4	8d 4d f0	 lea	 ecx, DWORD PTR $T43[ebp]
  003e7	c6 45 fc 0c	 mov	 BYTE PTR __$EHRec$[ebp+8], 12 ; 0000000cH
  003eb	33 db		 xor	 ebx, ebx
  003ed	ff 15 00 00 00
	00		 call	 DWORD PTR __imp_??1?$CStringT@DV?$StrTraitMFC_DLL@DV?$ChTraitsCRT@D@ATL@@@@@ATL@@QAE@XZ
  003f3	e9 7a 02 00 00	 jmp	 $LN431@Make_ListH
$LN26@Make_ListH:

; 332  : 						// lc.pszText = "PF_";
; 333  : 						lc.pszText = (LPSTR)(LPCTSTR)strDate;
; 334  : 					}
; 335  : 					else if(strPacketName.Find("ThreeLineBreak_") >= 0)

  003f8	6a 00		 push	 0
  003fa	68 00 00 00 00	 push	 OFFSET ??_C@_0BA@OJCKCJHA@ThreeLineBreak_@
  003ff	8d 4d e8	 lea	 ecx, DWORD PTR _strPacketName$32[ebp]
  00402	ff 15 00 00 00
	00		 call	 DWORD PTR __imp_?Find@?$CStringT@DV?$StrTraitMFC_DLL@DV?$ChTraitsCRT@D@ATL@@@@@ATL@@QBEHPBDH@Z
  00408	8d 4d 0c	 lea	 ecx, DWORD PTR _strDate$50[ebp]
  0040b	6a 04		 push	 4
  0040d	85 c0		 test	 eax, eax
  0040f	0f 88 57 02 00
	00		 js	 $LN28@Make_ListH

; 336  : 					{
; 337  : 						strDate.LoadString(IDS_DATE);

  00415	ff 15 00 00 00
	00		 call	 DWORD PTR __imp_?LoadStringA@?$CStringT@DV?$StrTraitMFC_DLL@DV?$ChTraitsCRT@D@ATL@@@@@ATL@@QAEHI@Z

; 338  : 						CString strThreeLineBreak;

  0041b	8d 4d ec	 lea	 ecx, DWORD PTR _strThreeLineBreak$36[ebp]
  0041e	ff 15 00 00 00
	00		 call	 DWORD PTR __imp_??0?$CStringT@DV?$StrTraitMFC_DLL@DV?$ChTraitsCRT@D@ATL@@@@@ATL@@QAE@XZ

; 339  : 						strThreeLineBreak.LoadString( IDS_THREE_LINE_BREAK);

  00424	6a 08		 push	 8
  00426	8d 4d ec	 lea	 ecx, DWORD PTR _strThreeLineBreak$36[ebp]
  00429	c6 45 fc 12	 mov	 BYTE PTR __$EHRec$[ebp+8], 18 ; 00000012H
  0042d	ff 15 00 00 00
	00		 call	 DWORD PTR __imp_?LoadStringA@?$CStringT@DV?$StrTraitMFC_DLL@DV?$ChTraitsCRT@D@ATL@@@@@ATL@@QAEHI@Z
; File C:\Program Files (x86)\Microsoft Visual Studio\2019\Community\VC\Tools\MSVC\14.29.30133\atlmfc\include\cstringt.h

; 2401 : 		CStringT strResult( str1.GetManager() );

  00433	8d 4d ec	 lea	 ecx, DWORD PTR _strThreeLineBreak$36[ebp]
; File D:\git\src\IBK\IBK_DRFN\ProjSrc\SrcChartEx\ChartAddIn\ChartDataListViewerAddIn\ChartDataListViewerAddIn\DlgDataListViewer.cpp

; 340  : 						strDate = strThreeLineBreak + "_" + strDate;

  00436	c6 45 fc 13	 mov	 BYTE PTR __$EHRec$[ebp+8], 19 ; 00000013H
; File C:\Program Files (x86)\Microsoft Visual Studio\2019\Community\VC\Tools\MSVC\14.29.30133\atlmfc\include\cstringt.h

; 2401 : 		CStringT strResult( str1.GetManager() );

  0043a	ff 15 00 00 00
	00		 call	 DWORD PTR __imp_?GetManager@?$CStringT@DV?$StrTraitMFC_DLL@DV?$ChTraitsCRT@D@ATL@@@@@ATL@@QBEPAUIAtlStringMgr@2@XZ
  00440	50		 push	 eax
  00441	8d 4d f0	 lea	 ecx, DWORD PTR $T42[ebp]
  00444	ff 15 00 00 00
	00		 call	 DWORD PTR __imp_??0?$CStringT@DV?$StrTraitMFC_DLL@DV?$ChTraitsCRT@D@ATL@@@@@ATL@@QAE@PAUIAtlStringMgr@1@@Z
; File C:\Program Files (x86)\Microsoft Visual Studio\2019\Community\VC\Tools\MSVC\14.29.30133\atlmfc\include\atlsimpstr.h

; 519  : 		return( GetData()->nDataLength );

  0044a	8b 45 ec	 mov	 eax, DWORD PTR _strThreeLineBreak$36[ebp]
; File C:\Program Files (x86)\Microsoft Visual Studio\2019\Community\VC\Tools\MSVC\14.29.30133\atlmfc\include\cstringt.h

; 2403 : 		CThisSimpleString::Concatenate( strResult, str1, str1.GetLength(), psz2, CThisSimpleString::StringLength( psz2 ) );

  0044d	6a 01		 push	 1
  0044f	68 00 00 00 00	 push	 OFFSET ??_C@_01IDAFKMJL@_@

; 2405 : 		return( strResult );

  00454	c7 45 e4 08 00
	00 00		 mov	 DWORD PTR $T29[ebp], 8
  0045b	ff 70 f4	 push	 DWORD PTR [eax-12]
  0045e	50		 push	 eax
  0045f	8d 45 f0	 lea	 eax, DWORD PTR $T42[ebp]
  00462	50		 push	 eax
  00463	ff 15 00 00 00
	00		 call	 DWORD PTR __imp_?Concatenate@?$CSimpleStringT@D$00@ATL@@KAXAAV12@PBDH1H@Z
; File D:\git\src\IBK\IBK_DRFN\ProjSrc\SrcChartEx\ChartAddIn\ChartDataListViewerAddIn\ChartDataListViewerAddIn\DlgDataListViewer.cpp

; 340  : 						strDate = strThreeLineBreak + "_" + strDate;

  00469	8d 45 0c	 lea	 eax, DWORD PTR _strDate$50[ebp]
  0046c	50		 push	 eax
  0046d	8d 45 f0	 lea	 eax, DWORD PTR $T42[ebp]
  00470	50		 push	 eax
  00471	8d 45 d8	 lea	 eax, DWORD PTR $T25[ebp]
  00474	50		 push	 eax
  00475	e8 00 00 00 00	 call	 ??HATL@@YA?AV?$CStringT@DV?$StrTraitMFC_DLL@DV?$ChTraitsCRT@D@ATL@@@@@0@ABV10@0@Z ; ATL::operator+
  0047a	83 c4 20	 add	 esp, 32			; 00000020H
  0047d	c6 45 fc 14	 mov	 BYTE PTR __$EHRec$[ebp+8], 20 ; 00000014H

; 341  : 						// lc.pszText = "ThreeLineBreak_";
; 342  : 						lc.pszText = (LPSTR)(LPCTSTR)strDate;
; 343  : 					}

  00481	e9 b3 01 00 00	 jmp	 $LN435@Make_ListH
$LN14@Make_ListH:

; 344  : 					else
; 345  : 					{
; 346  : 						strDate.LoadString(IDS_DATE);
; 347  : 						// lc.pszText = "";
; 348  : 						lc.pszText = (LPSTR)(LPCTSTR)strDate;
; 349  : 					}
; 350  : 				}
; 351  : 			}
; 352  : 			else
; 353  : 			{
; 354  : 				if (strType.Find("HH") >= 0)

  00486	6a 00		 push	 0
  00488	68 00 00 00 00	 push	 OFFSET ??_C@_02EGJHDPJI@HH@
  0048d	8d 4d e0	 lea	 ecx, DWORD PTR _strType$28[ebp]
  00490	ff 15 00 00 00
	00		 call	 DWORD PTR __imp_?Find@?$CStringT@DV?$StrTraitMFC_DLL@DV?$ChTraitsCRT@D@ATL@@@@@ATL@@QBEHPBDH@Z
  00496	8d 4d e8	 lea	 ecx, DWORD PTR _strPacketName$32[ebp]
  00499	6a 00		 push	 0
  0049b	68 00 00 00 00	 push	 OFFSET ??_C@_03FMICJPKI@PF_@
  004a0	85 c0		 test	 eax, eax
  004a2	0f 88 d0 00 00
	00		 js	 $LN30@Make_ListH

; 355  : 				{
; 356  : 					if(strPacketName.Find("PF_") >= 0)

  004a8	ff 15 00 00 00
	00		 call	 DWORD PTR __imp_?Find@?$CStringT@DV?$StrTraitMFC_DLL@DV?$ChTraitsCRT@D@ATL@@@@@ATL@@QBEHPBDH@Z
  004ae	85 c0		 test	 eax, eax
  004b0	78 2e		 js	 SHORT $LN32@Make_ListH

; 357  : 					{
; 358  : 						strTime.LoadString(IDS_TIME);

  004b2	6a 03		 push	 3
  004b4	8d 4d 08	 lea	 ecx, DWORD PTR _strTime$47[ebp]
  004b7	ff 15 00 00 00
	00		 call	 DWORD PTR __imp_?LoadStringA@?$CStringT@DV?$StrTraitMFC_DLL@DV?$ChTraitsCRT@D@ATL@@@@@ATL@@QAEHI@Z
; File C:\Program Files (x86)\Microsoft Visual Studio\2019\Community\VC\Tools\MSVC\14.29.30133\atlmfc\include\cstringt.h

; 2412 : 		CStringT strResult( str2.GetManager() );

  004bd	8d 4d 08	 lea	 ecx, DWORD PTR _strTime$47[ebp]
; File D:\git\src\IBK\IBK_DRFN\ProjSrc\SrcChartEx\ChartAddIn\ChartDataListViewerAddIn\ChartDataListViewerAddIn\DlgDataListViewer.cpp

; 359  : 						strTime = "P&F_" + strTime;

  004c0	c6 45 fc 15	 mov	 BYTE PTR __$EHRec$[ebp+8], 21 ; 00000015H
; File C:\Program Files (x86)\Microsoft Visual Studio\2019\Community\VC\Tools\MSVC\14.29.30133\atlmfc\include\cstringt.h

; 2412 : 		CStringT strResult( str2.GetManager() );

  004c4	ff 15 00 00 00
	00		 call	 DWORD PTR __imp_?GetManager@?$CStringT@DV?$StrTraitMFC_DLL@DV?$ChTraitsCRT@D@ATL@@@@@ATL@@QBEPAUIAtlStringMgr@2@XZ
  004ca	50		 push	 eax
  004cb	8d 4d f0	 lea	 ecx, DWORD PTR $T41[ebp]
  004ce	ff 15 00 00 00
	00		 call	 DWORD PTR __imp_??0?$CStringT@DV?$StrTraitMFC_DLL@DV?$ChTraitsCRT@D@ATL@@@@@ATL@@QAE@PAUIAtlStringMgr@1@@Z

; 2416 : 		return( strResult );

  004d4	c7 45 e4 10 00
	00 00		 mov	 DWORD PTR $T29[ebp], 16	; 00000010H
; File D:\git\src\IBK\IBK_DRFN\ProjSrc\SrcChartEx\ChartAddIn\ChartDataListViewerAddIn\ChartDataListViewerAddIn\DlgDataListViewer.cpp

; 362  : 					}

  004db	e9 a3 fd ff ff	 jmp	 $LN433@Make_ListH
$LN32@Make_ListH:

; 363  : 					else if(strPacketName.Find("ThreeLineBreak_") >= 0)

  004e0	6a 00		 push	 0
  004e2	68 00 00 00 00	 push	 OFFSET ??_C@_0BA@OJCKCJHA@ThreeLineBreak_@
  004e7	8d 4d e8	 lea	 ecx, DWORD PTR _strPacketName$32[ebp]
  004ea	ff 15 00 00 00
	00		 call	 DWORD PTR __imp_?Find@?$CStringT@DV?$StrTraitMFC_DLL@DV?$ChTraitsCRT@D@ATL@@@@@ATL@@QBEHPBDH@Z
  004f0	8d 4d 08	 lea	 ecx, DWORD PTR _strTime$47[ebp]
  004f3	6a 03		 push	 3
  004f5	85 c0		 test	 eax, eax
  004f7	78 71		 js	 SHORT $LN34@Make_ListH

; 364  : 					{
; 365  : 						strTime.LoadString(IDS_TIME);

  004f9	ff 15 00 00 00
	00		 call	 DWORD PTR __imp_?LoadStringA@?$CStringT@DV?$StrTraitMFC_DLL@DV?$ChTraitsCRT@D@ATL@@@@@ATL@@QAEHI@Z

; 366  : 						CString strThreeLineBreak;

  004ff	8d 4d ec	 lea	 ecx, DWORD PTR _strThreeLineBreak$35[ebp]
  00502	ff 15 00 00 00
	00		 call	 DWORD PTR __imp_??0?$CStringT@DV?$StrTraitMFC_DLL@DV?$ChTraitsCRT@D@ATL@@@@@ATL@@QAE@XZ

; 367  : 						strThreeLineBreak.LoadString( IDS_THREE_LINE_BREAK);

  00508	6a 08		 push	 8
  0050a	8d 4d ec	 lea	 ecx, DWORD PTR _strThreeLineBreak$35[ebp]
  0050d	c6 45 fc 16	 mov	 BYTE PTR __$EHRec$[ebp+8], 22 ; 00000016H
  00511	ff 15 00 00 00
	00		 call	 DWORD PTR __imp_?LoadStringA@?$CStringT@DV?$StrTraitMFC_DLL@DV?$ChTraitsCRT@D@ATL@@@@@ATL@@QAEHI@Z
; File C:\Program Files (x86)\Microsoft Visual Studio\2019\Community\VC\Tools\MSVC\14.29.30133\atlmfc\include\cstringt.h

; 2401 : 		CStringT strResult( str1.GetManager() );

  00517	8d 4d ec	 lea	 ecx, DWORD PTR _strThreeLineBreak$35[ebp]
; File D:\git\src\IBK\IBK_DRFN\ProjSrc\SrcChartEx\ChartAddIn\ChartDataListViewerAddIn\ChartDataListViewerAddIn\DlgDataListViewer.cpp

; 368  : 						strTime = strThreeLineBreak + "_" + strTime;

  0051a	c6 45 fc 17	 mov	 BYTE PTR __$EHRec$[ebp+8], 23 ; 00000017H
; File C:\Program Files (x86)\Microsoft Visual Studio\2019\Community\VC\Tools\MSVC\14.29.30133\atlmfc\include\cstringt.h

; 2401 : 		CStringT strResult( str1.GetManager() );

  0051e	ff 15 00 00 00
	00		 call	 DWORD PTR __imp_?GetManager@?$CStringT@DV?$StrTraitMFC_DLL@DV?$ChTraitsCRT@D@ATL@@@@@ATL@@QBEPAUIAtlStringMgr@2@XZ
  00524	50		 push	 eax
  00525	8d 4d f0	 lea	 ecx, DWORD PTR $T40[ebp]
  00528	ff 15 00 00 00
	00		 call	 DWORD PTR __imp_??0?$CStringT@DV?$StrTraitMFC_DLL@DV?$ChTraitsCRT@D@ATL@@@@@ATL@@QAE@PAUIAtlStringMgr@1@@Z
; File C:\Program Files (x86)\Microsoft Visual Studio\2019\Community\VC\Tools\MSVC\14.29.30133\atlmfc\include\atlsimpstr.h

; 519  : 		return( GetData()->nDataLength );

  0052e	8b 45 ec	 mov	 eax, DWORD PTR _strThreeLineBreak$35[ebp]
; File C:\Program Files (x86)\Microsoft Visual Studio\2019\Community\VC\Tools\MSVC\14.29.30133\atlmfc\include\cstringt.h

; 2403 : 		CThisSimpleString::Concatenate( strResult, str1, str1.GetLength(), psz2, CThisSimpleString::StringLength( psz2 ) );

  00531	6a 01		 push	 1
  00533	68 00 00 00 00	 push	 OFFSET ??_C@_01IDAFKMJL@_@

; 2405 : 		return( strResult );

  00538	c7 45 e4 20 00
	00 00		 mov	 DWORD PTR $T29[ebp], 32	; 00000020H
  0053f	ff 70 f4	 push	 DWORD PTR [eax-12]
  00542	50		 push	 eax
  00543	8d 45 f0	 lea	 eax, DWORD PTR $T40[ebp]
  00546	50		 push	 eax
  00547	ff 15 00 00 00
	00		 call	 DWORD PTR __imp_?Concatenate@?$CSimpleStringT@D$00@ATL@@KAXAAV12@PBDH1H@Z
; File D:\git\src\IBK\IBK_DRFN\ProjSrc\SrcChartEx\ChartAddIn\ChartDataListViewerAddIn\ChartDataListViewerAddIn\DlgDataListViewer.cpp

; 368  : 						strTime = strThreeLineBreak + "_" + strTime;

  0054d	8d 45 08	 lea	 eax, DWORD PTR _strTime$47[ebp]
  00550	50		 push	 eax
  00551	8d 45 f0	 lea	 eax, DWORD PTR $T40[ebp]
  00554	50		 push	 eax
  00555	8d 45 d8	 lea	 eax, DWORD PTR $T24[ebp]
  00558	50		 push	 eax
  00559	e8 00 00 00 00	 call	 ??HATL@@YA?AV?$CStringT@DV?$StrTraitMFC_DLL@DV?$ChTraitsCRT@D@ATL@@@@@0@ABV10@0@Z ; ATL::operator+
  0055e	83 c4 20	 add	 esp, 32			; 00000020H
  00561	c6 45 fc 18	 mov	 BYTE PTR __$EHRec$[ebp+8], 24 ; 00000018H

; 369  : 						// lc.pszText = "ThreeLineBreak_";
; 370  : 						lc.pszText = (LPSTR)(LPCTSTR)strTime;
; 371  : 					}

  00565	e9 e1 fd ff ff	 jmp	 $LN438@Make_ListH
$LN34@Make_ListH:

; 372  : 					else
; 373  : 					{
; 374  : 						strTime.LoadString(IDS_TIME);

  0056a	ff 15 00 00 00
	00		 call	 DWORD PTR __imp_?LoadStringA@?$CStringT@DV?$StrTraitMFC_DLL@DV?$ChTraitsCRT@D@ATL@@@@@ATL@@QAEHI@Z

; 407  : 			lc.iSubItem = j ;

  00570	8b 45 08	 mov	 eax, DWORD PTR _strTime$47[ebp]
  00573	e9 fd 00 00 00	 jmp	 $LN430@Make_ListH
$LN30@Make_ListH:

; 375  : 						lc.pszText = (LPSTR)(LPCTSTR)strTime;
; 376  : 					}
; 377  : 				}
; 378  : 				else
; 379  : 				{
; 380  : 					if(strPacketName.Find("PF_") >= 0)

  00578	ff 15 00 00 00
	00		 call	 DWORD PTR __imp_?Find@?$CStringT@DV?$StrTraitMFC_DLL@DV?$ChTraitsCRT@D@ATL@@@@@ATL@@QBEHPBDH@Z
  0057e	85 c0		 test	 eax, eax
  00580	78 2e		 js	 SHORT $LN36@Make_ListH

; 381  : 					{
; 382  : 						strDate.LoadString(IDS_DATE);

  00582	6a 04		 push	 4
  00584	8d 4d 0c	 lea	 ecx, DWORD PTR _strDate$50[ebp]
  00587	ff 15 00 00 00
	00		 call	 DWORD PTR __imp_?LoadStringA@?$CStringT@DV?$StrTraitMFC_DLL@DV?$ChTraitsCRT@D@ATL@@@@@ATL@@QAEHI@Z
; File C:\Program Files (x86)\Microsoft Visual Studio\2019\Community\VC\Tools\MSVC\14.29.30133\atlmfc\include\cstringt.h

; 2412 : 		CStringT strResult( str2.GetManager() );

  0058d	8d 4d 0c	 lea	 ecx, DWORD PTR _strDate$50[ebp]
; File D:\git\src\IBK\IBK_DRFN\ProjSrc\SrcChartEx\ChartAddIn\ChartDataListViewerAddIn\ChartDataListViewerAddIn\DlgDataListViewer.cpp

; 383  : 						strDate = "P&F_" + strDate;

  00590	c6 45 fc 19	 mov	 BYTE PTR __$EHRec$[ebp+8], 25 ; 00000019H
; File C:\Program Files (x86)\Microsoft Visual Studio\2019\Community\VC\Tools\MSVC\14.29.30133\atlmfc\include\cstringt.h

; 2412 : 		CStringT strResult( str2.GetManager() );

  00594	ff 15 00 00 00
	00		 call	 DWORD PTR __imp_?GetManager@?$CStringT@DV?$StrTraitMFC_DLL@DV?$ChTraitsCRT@D@ATL@@@@@ATL@@QBEPAUIAtlStringMgr@2@XZ
  0059a	50		 push	 eax
  0059b	8d 4d f0	 lea	 ecx, DWORD PTR $T39[ebp]
  0059e	ff 15 00 00 00
	00		 call	 DWORD PTR __imp_??0?$CStringT@DV?$StrTraitMFC_DLL@DV?$ChTraitsCRT@D@ATL@@@@@ATL@@QAE@PAUIAtlStringMgr@1@@Z

; 2416 : 		return( strResult );

  005a4	c7 45 e4 40 00
	00 00		 mov	 DWORD PTR $T29[ebp], 64	; 00000040H
; File D:\git\src\IBK\IBK_DRFN\ProjSrc\SrcChartEx\ChartAddIn\ChartDataListViewerAddIn\ChartDataListViewerAddIn\DlgDataListViewer.cpp

; 386  : 					}

  005ab	e9 0c fe ff ff	 jmp	 $LN432@Make_ListH
$LN36@Make_ListH:

; 387  : 					else if(strPacketName.Find("ThreeLineBreak_") >= 0)

  005b0	6a 00		 push	 0
  005b2	68 00 00 00 00	 push	 OFFSET ??_C@_0BA@OJCKCJHA@ThreeLineBreak_@
  005b7	8d 4d e8	 lea	 ecx, DWORD PTR _strPacketName$32[ebp]
  005ba	ff 15 00 00 00
	00		 call	 DWORD PTR __imp_?Find@?$CStringT@DV?$StrTraitMFC_DLL@DV?$ChTraitsCRT@D@ATL@@@@@ATL@@QBEHPBDH@Z
  005c0	8d 4d 0c	 lea	 ecx, DWORD PTR _strDate$50[ebp]
  005c3	6a 04		 push	 4
  005c5	85 c0		 test	 eax, eax
  005c7	0f 88 9f 00 00
	00		 js	 $LN28@Make_ListH

; 388  : 					{
; 389  : 						strDate.LoadString(IDS_DATE);

  005cd	ff 15 00 00 00
	00		 call	 DWORD PTR __imp_?LoadStringA@?$CStringT@DV?$StrTraitMFC_DLL@DV?$ChTraitsCRT@D@ATL@@@@@ATL@@QAEHI@Z

; 390  : 						CString strThreeLineBreak;

  005d3	8d 4d ec	 lea	 ecx, DWORD PTR _strThreeLineBreak$34[ebp]
  005d6	ff 15 00 00 00
	00		 call	 DWORD PTR __imp_??0?$CStringT@DV?$StrTraitMFC_DLL@DV?$ChTraitsCRT@D@ATL@@@@@ATL@@QAE@XZ

; 391  : 						strThreeLineBreak.LoadString( IDS_THREE_LINE_BREAK);

  005dc	6a 08		 push	 8
  005de	8d 4d ec	 lea	 ecx, DWORD PTR _strThreeLineBreak$34[ebp]
  005e1	c6 45 fc 1a	 mov	 BYTE PTR __$EHRec$[ebp+8], 26 ; 0000001aH
  005e5	ff 15 00 00 00
	00		 call	 DWORD PTR __imp_?LoadStringA@?$CStringT@DV?$StrTraitMFC_DLL@DV?$ChTraitsCRT@D@ATL@@@@@ATL@@QAEHI@Z
; File C:\Program Files (x86)\Microsoft Visual Studio\2019\Community\VC\Tools\MSVC\14.29.30133\atlmfc\include\cstringt.h

; 2401 : 		CStringT strResult( str1.GetManager() );

  005eb	8d 4d ec	 lea	 ecx, DWORD PTR _strThreeLineBreak$34[ebp]
; File D:\git\src\IBK\IBK_DRFN\ProjSrc\SrcChartEx\ChartAddIn\ChartDataListViewerAddIn\ChartDataListViewerAddIn\DlgDataListViewer.cpp

; 392  : 						strDate = strThreeLineBreak + "_" + strDate;

  005ee	c6 45 fc 1b	 mov	 BYTE PTR __$EHRec$[ebp+8], 27 ; 0000001bH
; File C:\Program Files (x86)\Microsoft Visual Studio\2019\Community\VC\Tools\MSVC\14.29.30133\atlmfc\include\cstringt.h

; 2401 : 		CStringT strResult( str1.GetManager() );

  005f2	ff 15 00 00 00
	00		 call	 DWORD PTR __imp_?GetManager@?$CStringT@DV?$StrTraitMFC_DLL@DV?$ChTraitsCRT@D@ATL@@@@@ATL@@QBEPAUIAtlStringMgr@2@XZ
  005f8	50		 push	 eax
  005f9	8d 4d f0	 lea	 ecx, DWORD PTR $T38[ebp]
  005fc	ff 15 00 00 00
	00		 call	 DWORD PTR __imp_??0?$CStringT@DV?$StrTraitMFC_DLL@DV?$ChTraitsCRT@D@ATL@@@@@ATL@@QAE@PAUIAtlStringMgr@1@@Z
; File C:\Program Files (x86)\Microsoft Visual Studio\2019\Community\VC\Tools\MSVC\14.29.30133\atlmfc\include\atlsimpstr.h

; 519  : 		return( GetData()->nDataLength );

  00602	8b 45 ec	 mov	 eax, DWORD PTR _strThreeLineBreak$34[ebp]
; File C:\Program Files (x86)\Microsoft Visual Studio\2019\Community\VC\Tools\MSVC\14.29.30133\atlmfc\include\cstringt.h

; 2403 : 		CThisSimpleString::Concatenate( strResult, str1, str1.GetLength(), psz2, CThisSimpleString::StringLength( psz2 ) );

  00605	6a 01		 push	 1
  00607	68 00 00 00 00	 push	 OFFSET ??_C@_01IDAFKMJL@_@

; 2405 : 		return( strResult );

  0060c	c7 45 e4 80 00
	00 00		 mov	 DWORD PTR $T29[ebp], 128 ; 00000080H
  00613	ff 70 f4	 push	 DWORD PTR [eax-12]
  00616	50		 push	 eax
  00617	8d 45 f0	 lea	 eax, DWORD PTR $T38[ebp]
  0061a	50		 push	 eax
  0061b	ff 15 00 00 00
	00		 call	 DWORD PTR __imp_?Concatenate@?$CSimpleStringT@D$00@ATL@@KAXAAV12@PBDH1H@Z
; File D:\git\src\IBK\IBK_DRFN\ProjSrc\SrcChartEx\ChartAddIn\ChartDataListViewerAddIn\ChartDataListViewerAddIn\DlgDataListViewer.cpp

; 392  : 						strDate = strThreeLineBreak + "_" + strDate;

  00621	8d 45 0c	 lea	 eax, DWORD PTR _strDate$50[ebp]
  00624	50		 push	 eax
  00625	8d 45 f0	 lea	 eax, DWORD PTR $T38[ebp]
  00628	50		 push	 eax
  00629	8d 45 d8	 lea	 eax, DWORD PTR $T23[ebp]
  0062c	50		 push	 eax
  0062d	e8 00 00 00 00	 call	 ??HATL@@YA?AV?$CStringT@DV?$StrTraitMFC_DLL@DV?$ChTraitsCRT@D@ATL@@@@@0@ABV10@0@Z ; ATL::operator+
  00632	83 c4 20	 add	 esp, 32			; 00000020H
  00635	c6 45 fc 1c	 mov	 BYTE PTR __$EHRec$[ebp+8], 28 ; 0000001cH
$LN435@Make_ListH:

; 407  : 			lc.iSubItem = j ;

  00639	50		 push	 eax
  0063a	8d 4d 0c	 lea	 ecx, DWORD PTR _strDate$50[ebp]
  0063d	ff 15 00 00 00
	00		 call	 DWORD PTR __imp_??4?$CStringT@DV?$StrTraitMFC_DLL@DV?$ChTraitsCRT@D@ATL@@@@@ATL@@QAEAAV01@ABV01@@Z
  00643	8d 4d d8	 lea	 ecx, DWORD PTR $T23[ebp]
  00646	ff 15 00 00 00
	00		 call	 DWORD PTR __imp_??1?$CStringT@DV?$StrTraitMFC_DLL@DV?$ChTraitsCRT@D@ATL@@@@@ATL@@QAE@XZ
  0064c	8d 4d f0	 lea	 ecx, DWORD PTR $T38[ebp]
  0064f	33 db		 xor	 ebx, ebx
  00651	ff 15 00 00 00
	00		 call	 DWORD PTR __imp_??1?$CStringT@DV?$StrTraitMFC_DLL@DV?$ChTraitsCRT@D@ATL@@@@@ATL@@QAE@XZ
  00657	8b 45 0c	 mov	 eax, DWORD PTR _strDate$50[ebp]
$LN436@Make_ListH:
  0065a	8d 4d ec	 lea	 ecx, DWORD PTR _strThreeLineBreak$34[ebp]
  0065d	89 45 9c	 mov	 DWORD PTR _lc$[ebp+12], eax
  00660	c6 45 fc 0c	 mov	 BYTE PTR __$EHRec$[ebp+8], 12 ; 0000000cH
  00664	ff 15 00 00 00
	00		 call	 DWORD PTR __imp_??1?$CStringT@DV?$StrTraitMFC_DLL@DV?$ChTraitsCRT@D@ATL@@@@@ATL@@QAE@XZ
  0066a	eb 0c		 jmp	 SHORT $LN39@Make_ListH
$LN28@Make_ListH:
  0066c	ff 15 00 00 00
	00		 call	 DWORD PTR __imp_?LoadStringA@?$CStringT@DV?$StrTraitMFC_DLL@DV?$ChTraitsCRT@D@ATL@@@@@ATL@@QAEHI@Z
$LN431@Make_ListH:
  00672	8b 45 0c	 mov	 eax, DWORD PTR _strDate$50[ebp]
$LN430@Make_ListH:
  00675	89 45 9c	 mov	 DWORD PTR _lc$[ebp+12], eax
$LN39@Make_ListH:
; File C:\Program Files (x86)\Microsoft Visual Studio\2019\Community\VC\Tools\MSVC\14.29.30133\atlmfc\include\cstringt.h

; 2486 : 		return(str1.Compare(psz2) == 0);

  00678	68 00 00 00 00	 push	 OFFSET ??_C@_0P@IMPIBBAB@YYYYMMDDHHMMSS@
  0067d	8d 4d e0	 lea	 ecx, DWORD PTR _strType$28[ebp]
; File D:\git\src\IBK\IBK_DRFN\ProjSrc\SrcChartEx\ChartAddIn\ChartDataListViewerAddIn\ChartDataListViewerAddIn\DlgDataListViewer.cpp

; 407  : 			lc.iSubItem = j ;

  00680	c7 45 a4 00 00
	00 00		 mov	 DWORD PTR _lc$[ebp+20], 0
; File C:\Program Files (x86)\Microsoft Visual Studio\2019\Community\VC\Tools\MSVC\14.29.30133\atlmfc\include\cstringt.h

; 2486 : 		return(str1.Compare(psz2) == 0);

  00687	ff 15 00 00 00
	00		 call	 DWORD PTR __imp_?Compare@?$CStringT@DV?$StrTraitMFC_DLL@DV?$ChTraitsCRT@D@ATL@@@@@ATL@@QBEHPBD@Z
  0068d	85 c0		 test	 eax, eax
; File D:\git\src\IBK\IBK_DRFN\ProjSrc\SrcChartEx\ChartAddIn\ChartDataListViewerAddIn\ChartDataListViewerAddIn\DlgDataListViewer.cpp

; 412  : 			if(strType == "YYYYMMDDHHMMSS")

  0068f	75 6a		 jne	 SHORT $LN40@Make_ListH

; 413  : 			{
; 414  : 				CString strFormat = _T("YYYYMMDD");	// 

  00691	68 00 00 00 00	 push	 OFFSET ??_C@_08DKDJLCMP@YYYYMMDD@
  00696	8d 4d e4	 lea	 ecx, DWORD PTR _strFormat$30[ebp]
  00699	ff 15 00 00 00
	00		 call	 DWORD PTR __imp_??0?$CStringT@DV?$StrTraitMFC_DLL@DV?$ChTraitsCRT@D@ATL@@@@@ATL@@QAE@PBD@Z

; 415  : 				
; 416  : 				// nDataUnit (0:nontype, 1:, 2:, 3:, 4:, 5:, 6:Text)
; 417  : 				switch(eDateUnit)

  0069f	8b 45 cc	 mov	 eax, DWORD PTR _eDateUnit$1$[ebp]
  006a2	48		 dec	 eax
  006a3	c6 45 fc 1d	 mov	 BYTE PTR __$EHRec$[ebp+8], 29 ; 0000001dH
  006a7	83 f8 0b	 cmp	 eax, 11			; 0000000bH
  006aa	77 31		 ja	 SHORT $LN2@Make_ListH
  006ac	0f b6 80 00 00
	00 00		 movzx	 eax, BYTE PTR $LN421@Make_ListH[eax]
  006b3	ff 24 85 00 00
	00 00		 jmp	 DWORD PTR $LN422@Make_ListH[eax*4]
$LN42@Make_ListH:

; 418  : 				{
; 419  : 				case CScaleBaseData::HORZ_DAILY:		// 
; 420  : 				case CScaleBaseData::HORZ_WEEKLEY:		//  
; 421  : 					strFormat = _T("YYYYMMDD");		

  006ba	68 00 00 00 00	 push	 OFFSET ??_C@_08DKDJLCMP@YYYYMMDD@

; 422  : 					break;

  006bf	eb 13		 jmp	 SHORT $LN437@Make_ListH
$LN44@Make_ListH:

; 423  : 				case CScaleBaseData::HORZ_MONTHLY:		//  
; 424  : 					strFormat = _T("YYYYMM");		

  006c1	68 00 00 00 00	 push	 OFFSET ??_C@_06EBMMBHJD@YYYYMM@

; 425  : 					break;

  006c6	eb 0c		 jmp	 SHORT $LN437@Make_ListH
$LN45@Make_ListH:

; 426  : 				case CScaleBaseData::HORZ_TIME_ONE:		// 
; 427  : 				case CScaleBaseData::HORZ_TIME_TWO:
; 428  : 					strFormat = _T("MMDDHHMM");

  006c8	68 00 00 00 00	 push	 OFFSET ??_C@_08KLIIINKM@MMDDHHMM@

; 429  : 					break;

  006cd	eb 05		 jmp	 SHORT $LN437@Make_ListH
$LN47@Make_ListH:

; 430  : 				case CScaleBaseData::HORZ_TICK:			//  
; 431  : 				case CScaleBaseData::HORZ_TIME_SECOND:
; 432  : 					strFormat = _T("DDHHMMSS");

  006cf	68 00 00 00 00	 push	 OFFSET ??_C@_08JFMBEEDE@DDHHMMSS@
$LN437@Make_ListH:
; File C:\Program Files (x86)\Microsoft Visual Studio\2019\Community\VC\Tools\MSVC\14.29.30133\atlmfc\include\atlsimpstr.h

; 519  : 		return( GetData()->nDataLength );

  006d4	8d 4d e4	 lea	 ecx, DWORD PTR _strFormat$30[ebp]
  006d7	ff 15 00 00 00
	00		 call	 DWORD PTR __imp_??4?$CStringT@DV?$StrTraitMFC_DLL@DV?$ChTraitsCRT@D@ATL@@@@@ATL@@QAEAAV01@PBD@Z
$LN2@Make_ListH:
  006dd	8b 45 e4	 mov	 eax, DWORD PTR _strFormat$30[ebp]
; File D:\git\src\IBK\IBK_DRFN\ProjSrc\SrcChartEx\ChartAddIn\ChartDataListViewerAddIn\ChartDataListViewerAddIn\DlgDataListViewer.cpp

; 437  : 			}

  006e0	8d 4d e4	 lea	 ecx, DWORD PTR _strFormat$30[ebp]
  006e3	c6 45 fc 0c	 mov	 BYTE PTR __$EHRec$[ebp+8], 12 ; 0000000cH
; File C:\Program Files (x86)\Microsoft Visual Studio\2019\Community\VC\Tools\MSVC\14.29.30133\atlmfc\include\atlsimpstr.h

; 519  : 		return( GetData()->nDataLength );

  006e7	8b 40 f4	 mov	 eax, DWORD PTR [eax-12]
; File D:\git\src\IBK\IBK_DRFN\ProjSrc\SrcChartEx\ChartAddIn\ChartDataListViewerAddIn\ChartDataListViewerAddIn\DlgDataListViewer.cpp

; 436  : 				lc.cx = (strFormat.GetLength() * 9) + 10;

  006ea	8d 04 c0	 lea	 eax, DWORD PTR [eax+eax*8]
  006ed	83 c0 0a	 add	 eax, 10			; 0000000aH
  006f0	89 45 98	 mov	 DWORD PTR _lc$[ebp+8], eax

; 437  : 			}

  006f3	ff 15 00 00 00
	00		 call	 DWORD PTR __imp_??1?$CStringT@DV?$StrTraitMFC_DLL@DV?$ChTraitsCRT@D@ATL@@@@@ATL@@QAE@XZ
  006f9	eb 0f		 jmp	 SHORT $LN41@Make_ListH
$LN40@Make_ListH:
; File C:\Program Files (x86)\Microsoft Visual Studio\2019\Community\VC\Tools\MSVC\14.29.30133\atlmfc\include\atlsimpstr.h

; 519  : 		return( GetData()->nDataLength );

  006fb	8b 45 e0	 mov	 eax, DWORD PTR _strType$28[ebp]
  006fe	8b 40 f4	 mov	 eax, DWORD PTR [eax-12]
; File D:\git\src\IBK\IBK_DRFN\ProjSrc\SrcChartEx\ChartAddIn\ChartDataListViewerAddIn\ChartDataListViewerAddIn\DlgDataListViewer.cpp

; 440  : 				lc.cx = (strType.GetLength() * 9) + 10;

  00701	8d 04 c0	 lea	 eax, DWORD PTR [eax+eax*8]
  00704	83 c0 0a	 add	 eax, 10			; 0000000aH
  00707	89 45 98	 mov	 DWORD PTR _lc$[ebp+8], eax
$LN41@Make_ListH:

; 441  : 			}
; 442  : 			// 2011.01.24 by SYS <<
; 443  : 
; 444  : 			//if(strType == "YYYYMMDDHHMMSS")
; 445  : 			//	lc.cx = (8 * 9) + 10;
; 446  : 			//else
; 447  : 			//	// 2011.01.06 by SYS <<
; 448  : 			//	lc.cx = (strType.GetLength() * 9) + 10;
; 449  : 
; 450  : 			//20081025  >>
; 451  : 			CSize szTitle;
; 452  : 			CString strTitle= lc.pszText;

  0070a	ff 75 9c	 push	 DWORD PTR _lc$[ebp+12]
  0070d	8d 4d d0	 lea	 ecx, DWORD PTR _strTitle$20[ebp]
  00710	ff 15 00 00 00
	00		 call	 DWORD PTR __imp_??0?$CStringT@DV?$StrTraitMFC_DLL@DV?$ChTraitsCRT@D@ATL@@@@@ATL@@QAE@PBD@Z
; File C:\Program Files (x86)\Microsoft Visual Studio\2019\Community\VC\Tools\MSVC\14.29.30133\atlmfc\include\atlsimpstr.h

; 519  : 		return( GetData()->nDataLength );

  00716	8b 45 d0	 mov	 eax, DWORD PTR _strTitle$20[ebp]
; File C:\Program Files (x86)\Microsoft Visual Studio\2019\Community\VC\Tools\MSVC\14.29.30133\atlmfc\include\afxwin1.inl

; 639  : 		VERIFY(::GetTextExtentPoint32(m_hAttribDC, str, (int)str.GetLength(), &size));

  00719	8d 4d bc	 lea	 ecx, DWORD PTR _size$15[ebp]
  0071c	51		 push	 ecx
  0071d	ff 70 f4	 push	 DWORD PTR [eax-12]
  00720	50		 push	 eax
  00721	8b 45 c8	 mov	 eax, DWORD PTR _pDC$1$[ebp]
  00724	ff 70 08	 push	 DWORD PTR [eax+8]
  00727	a1 00 00 00 00	 mov	 eax, DWORD PTR __imp__GetTextExtentPoint32A@16
  0072c	ff d0		 call	 eax
; File D:\git\src\IBK\IBK_DRFN\ProjSrc\SrcChartEx\ChartAddIn\ChartDataListViewerAddIn\ChartDataListViewerAddIn\DlgDataListViewer.cpp

; 454  : 			lc.cx			= (lc.cx < szTitle.cx) ? szTitle.cx : lc.cx;

  0072e	8b 4d 98	 mov	 ecx, DWORD PTR _lc$[ebp+8]
; File C:\Program Files (x86)\Microsoft Visual Studio\2019\Community\VC\Tools\MSVC\14.29.30133\atlmfc\include\afxcmn.inl

; 209  : 	{ ASSERT(::IsWindow(m_hWnd)); return (int) ::SendMessage(m_hWnd, LVM_INSERTCOLUMN, nCol, (LPARAM)pColumn); }

  00731	8d 45 90	 lea	 eax, DWORD PTR _lc$[ebp]
; File D:\git\src\IBK\IBK_DRFN\ProjSrc\SrcChartEx\ChartAddIn\ChartDataListViewerAddIn\ChartDataListViewerAddIn\DlgDataListViewer.cpp

; 454  : 			lc.cx			= (lc.cx < szTitle.cx) ? szTitle.cx : lc.cx;

  00734	3b 4d bc	 cmp	 ecx, DWORD PTR _size$15[ebp]
; File C:\Program Files (x86)\Microsoft Visual Studio\2019\Community\VC\Tools\MSVC\14.29.30133\atlmfc\include\afxcmn.inl

; 209  : 	{ ASSERT(::IsWindow(m_hWnd)); return (int) ::SendMessage(m_hWnd, LVM_INSERTCOLUMN, nCol, (LPARAM)pColumn); }

  00737	50		 push	 eax
  00738	8b 45 dc	 mov	 eax, DWORD PTR _this$1$[ebp]
; File D:\git\src\IBK\IBK_DRFN\ProjSrc\SrcChartEx\ChartAddIn\ChartDataListViewerAddIn\ChartDataListViewerAddIn\DlgDataListViewer.cpp

; 454  : 			lc.cx			= (lc.cx < szTitle.cx) ? szTitle.cx : lc.cx;

  0073b	0f 4c 4d bc	 cmovl	 ecx, DWORD PTR _size$15[ebp]
; File C:\Program Files (x86)\Microsoft Visual Studio\2019\Community\VC\Tools\MSVC\14.29.30133\atlmfc\include\afxcmn.inl

; 209  : 	{ ASSERT(::IsWindow(m_hWnd)); return (int) ::SendMessage(m_hWnd, LVM_INSERTCOLUMN, nCol, (LPARAM)pColumn); }

  0073f	6a 01		 push	 1
  00741	68 1b 10 00 00	 push	 4123			; 0000101bH
  00746	ff b0 d8 02 00
	00		 push	 DWORD PTR [eax+728]
  0074c	a1 00 00 00 00	 mov	 eax, DWORD PTR __imp__SendMessageA@16
; File D:\git\src\IBK\IBK_DRFN\ProjSrc\SrcChartEx\ChartAddIn\ChartDataListViewerAddIn\ChartDataListViewerAddIn\DlgDataListViewer.cpp

; 454  : 			lc.cx			= (lc.cx < szTitle.cx) ? szTitle.cx : lc.cx;

  00751	89 4d 98	 mov	 DWORD PTR _lc$[ebp+8], ecx
; File C:\Program Files (x86)\Microsoft Visual Studio\2019\Community\VC\Tools\MSVC\14.29.30133\atlmfc\include\afxcmn.inl

; 209  : 	{ ASSERT(::IsWindow(m_hWnd)); return (int) ::SendMessage(m_hWnd, LVM_INSERTCOLUMN, nCol, (LPARAM)pColumn); }

  00754	ff d0		 call	 eax
; File D:\git\src\IBK\IBK_DRFN\ProjSrc\SrcChartEx\ChartAddIn\ChartDataListViewerAddIn\ChartDataListViewerAddIn\DlgDataListViewer.cpp

; 459  : 		}

  00756	8d 4d d0	 lea	 ecx, DWORD PTR _strTitle$20[ebp]
  00759	ff 15 00 00 00
	00		 call	 DWORD PTR __imp_??1?$CStringT@DV?$StrTraitMFC_DLL@DV?$ChTraitsCRT@D@ATL@@@@@ATL@@QAE@XZ
  0075f	8d 4d 0c	 lea	 ecx, DWORD PTR _strDate$50[ebp]
  00762	ff 15 00 00 00
	00		 call	 DWORD PTR __imp_??1?$CStringT@DV?$StrTraitMFC_DLL@DV?$ChTraitsCRT@D@ATL@@@@@ATL@@QAE@XZ
  00768	8d 4d 08	 lea	 ecx, DWORD PTR _strTime$47[ebp]
  0076b	ff 15 00 00 00
	00		 call	 DWORD PTR __imp_??1?$CStringT@DV?$StrTraitMFC_DLL@DV?$ChTraitsCRT@D@ATL@@@@@ATL@@QAE@XZ
  00771	8d 4d e0	 lea	 ecx, DWORD PTR _strType$28[ebp]
  00774	ff 15 00 00 00
	00		 call	 DWORD PTR __imp_??1?$CStringT@DV?$StrTraitMFC_DLL@DV?$ChTraitsCRT@D@ATL@@@@@ATL@@QAE@XZ
; File D:\git\src\IBK\IBK_DRFN\ProjSrc\SrcChartEx\ChartAddIn\ChartDataListViewerAddIn\Include_AddIn_134221\I134221\_IString.h

; 44   : 	{

  0077a	c6 45 fc 1e	 mov	 BYTE PTR __$EHRec$[ebp+8], 30 ; 0000001eH

; 45   : 		if( m_pIStrData)

  0077e	85 ff		 test	 edi, edi
  00780	74 06		 je	 SHORT $LN284@Make_ListH

; 46   : 		{
; 47   : 			m_pIStrData->Release();

  00782	8b 07		 mov	 eax, DWORD PTR [edi]
  00784	57		 push	 edi
  00785	ff 50 08	 call	 DWORD PTR [eax+8]
$LN284@Make_ListH:
; File D:\git\src\IBK\IBK_DRFN\ProjSrc\SrcChartEx\ChartAddIn\ChartDataListViewerAddIn\ChartDataListViewerAddIn\DlgDataListViewer.cpp

; 459  : 		}

  00788	8b 7d d4	 mov	 edi, DWORD PTR _pPacketheader$1$[ebp]
; File D:\git\src\IBK\IBK_DRFN\ProjSrc\SrcChartEx\ChartAddIn\ChartDataListViewerAddIn\Include_AddIn_134221\I134221\_IString.h

; 51   : 	}

  0078b	c6 45 fc 08	 mov	 BYTE PTR __$EHRec$[ebp+8], 8
; File D:\git\src\IBK\IBK_DRFN\ProjSrc\SrcChartEx\ChartAddIn\ChartDataListViewerAddIn\ChartDataListViewerAddIn\DlgDataListViewer.cpp

; 459  : 		}

  0078f	e9 8b 00 00 00	 jmp	 $LN13@Make_ListH
$LN12@Make_ListH:

; 460  : 		else
; 461  : 		{
; 462  : 			// (2008/10/28 - Seung-Won, Bae) for MultiLanguage
; 463  : 			strPacketName = _MTOL0( strPacketName);

  00794	8b 45 dc	 mov	 eax, DWORD PTR _this$1$[ebp]
  00797	b9 00 00 00 00	 mov	 ecx, OFFSET ?g_iMetaTable@@3VIMetaTable@@A ; g_iMetaTable
  0079c	6a 00		 push	 0
  0079e	ff 75 e8	 push	 DWORD PTR _strPacketName$32[ebp]
  007a1	6a 00		 push	 0
  007a3	ff b0 48 04 00
	00		 push	 DWORD PTR [eax+1096]
  007a9	e8 00 00 00 00	 call	 ?GetLanguageText@IMetaTable@@QAEPBDPAUHWND__@@W4E_CODEPAGE@1@PBDH@Z ; IMetaTable::GetLanguageText
  007ae	50		 push	 eax
  007af	8d 4d e8	 lea	 ecx, DWORD PTR _strPacketName$32[ebp]
  007b2	ff 15 00 00 00
	00		 call	 DWORD PTR __imp_??4?$CStringT@DV?$StrTraitMFC_DLL@DV?$ChTraitsCRT@D@ATL@@@@@ATL@@QAEAAV01@PBD@Z

; 464  : 
; 465  : 			lc.iSubItem = j ;
; 466  : 			j++;
; 467  : 			lc.cx = 67;
; 468  : 			lc.pszText = (LPSTR)(LPCTSTR)strPacketName;

  007b8	8b 45 e8	 mov	 eax, DWORD PTR _strPacketName$32[ebp]

; 469  : 
; 470  : 			//20081025  >>
; 471  : 			CSize szTitle;
; 472  : 			CString strTitle= lc.pszText;

  007bb	8d 4d 0c	 lea	 ecx, DWORD PTR _strTitle$49[ebp]
  007be	50		 push	 eax
  007bf	c7 45 a4 00 00
	00 00		 mov	 DWORD PTR _lc$[ebp+20], 0
  007c6	c7 45 98 43 00
	00 00		 mov	 DWORD PTR _lc$[ebp+8], 67 ; 00000043H
  007cd	89 45 9c	 mov	 DWORD PTR _lc$[ebp+12], eax
  007d0	ff 15 00 00 00
	00		 call	 DWORD PTR __imp_??0?$CStringT@DV?$StrTraitMFC_DLL@DV?$ChTraitsCRT@D@ATL@@@@@ATL@@QAE@PBD@Z
; File C:\Program Files (x86)\Microsoft Visual Studio\2019\Community\VC\Tools\MSVC\14.29.30133\atlmfc\include\atlsimpstr.h

; 519  : 		return( GetData()->nDataLength );

  007d6	8b 45 0c	 mov	 eax, DWORD PTR _strTitle$49[ebp]
; File C:\Program Files (x86)\Microsoft Visual Studio\2019\Community\VC\Tools\MSVC\14.29.30133\atlmfc\include\afxwin1.inl

; 639  : 		VERIFY(::GetTextExtentPoint32(m_hAttribDC, str, (int)str.GetLength(), &size));

  007d9	8d 4d bc	 lea	 ecx, DWORD PTR _size$14[ebp]
  007dc	51		 push	 ecx
  007dd	ff 70 f4	 push	 DWORD PTR [eax-12]
  007e0	50		 push	 eax
  007e1	8b 45 c8	 mov	 eax, DWORD PTR _pDC$1$[ebp]
  007e4	ff 70 08	 push	 DWORD PTR [eax+8]
  007e7	a1 00 00 00 00	 mov	 eax, DWORD PTR __imp__GetTextExtentPoint32A@16
  007ec	ff d0		 call	 eax
; File D:\git\src\IBK\IBK_DRFN\ProjSrc\SrcChartEx\ChartAddIn\ChartDataListViewerAddIn\ChartDataListViewerAddIn\DlgDataListViewer.cpp

; 474  : 			lc.cx			= (lc.cx < szTitle.cx) ? szTitle.cx : lc.cx;

  007ee	8b 4d 98	 mov	 ecx, DWORD PTR _lc$[ebp+8]
; File C:\Program Files (x86)\Microsoft Visual Studio\2019\Community\VC\Tools\MSVC\14.29.30133\atlmfc\include\afxcmn.inl

; 209  : 	{ ASSERT(::IsWindow(m_hWnd)); return (int) ::SendMessage(m_hWnd, LVM_INSERTCOLUMN, nCol, (LPARAM)pColumn); }

  007f1	8d 45 90	 lea	 eax, DWORD PTR _lc$[ebp]
; File D:\git\src\IBK\IBK_DRFN\ProjSrc\SrcChartEx\ChartAddIn\ChartDataListViewerAddIn\ChartDataListViewerAddIn\DlgDataListViewer.cpp

; 474  : 			lc.cx			= (lc.cx < szTitle.cx) ? szTitle.cx : lc.cx;

  007f4	3b 4d bc	 cmp	 ecx, DWORD PTR _size$14[ebp]
; File C:\Program Files (x86)\Microsoft Visual Studio\2019\Community\VC\Tools\MSVC\14.29.30133\atlmfc\include\afxcmn.inl

; 209  : 	{ ASSERT(::IsWindow(m_hWnd)); return (int) ::SendMessage(m_hWnd, LVM_INSERTCOLUMN, nCol, (LPARAM)pColumn); }

  007f7	50		 push	 eax
  007f8	8b 45 dc	 mov	 eax, DWORD PTR _this$1$[ebp]
; File D:\git\src\IBK\IBK_DRFN\ProjSrc\SrcChartEx\ChartAddIn\ChartDataListViewerAddIn\ChartDataListViewerAddIn\DlgDataListViewer.cpp

; 474  : 			lc.cx			= (lc.cx < szTitle.cx) ? szTitle.cx : lc.cx;

  007fb	0f 4c 4d bc	 cmovl	 ecx, DWORD PTR _size$14[ebp]
; File C:\Program Files (x86)\Microsoft Visual Studio\2019\Community\VC\Tools\MSVC\14.29.30133\atlmfc\include\afxcmn.inl

; 209  : 	{ ASSERT(::IsWindow(m_hWnd)); return (int) ::SendMessage(m_hWnd, LVM_INSERTCOLUMN, nCol, (LPARAM)pColumn); }

  007ff	6a 01		 push	 1
  00801	68 1b 10 00 00	 push	 4123			; 0000101bH
  00806	ff b0 d8 02 00
	00		 push	 DWORD PTR [eax+728]
  0080c	a1 00 00 00 00	 mov	 eax, DWORD PTR __imp__SendMessageA@16
; File D:\git\src\IBK\IBK_DRFN\ProjSrc\SrcChartEx\ChartAddIn\ChartDataListViewerAddIn\ChartDataListViewerAddIn\DlgDataListViewer.cpp

; 474  : 			lc.cx			= (lc.cx < szTitle.cx) ? szTitle.cx : lc.cx;

  00811	89 4d 98	 mov	 DWORD PTR _lc$[ebp+8], ecx
; File C:\Program Files (x86)\Microsoft Visual Studio\2019\Community\VC\Tools\MSVC\14.29.30133\atlmfc\include\afxcmn.inl

; 209  : 	{ ASSERT(::IsWindow(m_hWnd)); return (int) ::SendMessage(m_hWnd, LVM_INSERTCOLUMN, nCol, (LPARAM)pColumn); }

  00814	ff d0		 call	 eax
; File D:\git\src\IBK\IBK_DRFN\ProjSrc\SrcChartEx\ChartAddIn\ChartDataListViewerAddIn\ChartDataListViewerAddIn\DlgDataListViewer.cpp

; 479  : 		}

  00816	8d 4d 0c	 lea	 ecx, DWORD PTR _strTitle$49[ebp]
  00819	ff 15 00 00 00
	00		 call	 DWORD PTR __imp_??1?$CStringT@DV?$StrTraitMFC_DLL@DV?$ChTraitsCRT@D@ATL@@@@@ATL@@QAE@XZ
$LN13@Make_ListH:

; 480  : 
; 481  : 		pPacketheader->Release();

  0081f	8b 07		 mov	 eax, DWORD PTR [edi]
  00821	57		 push	 edi
  00822	ff 50 08	 call	 DWORD PTR [eax+8]

; 482  : 	}

  00825	8d 4d e8	 lea	 ecx, DWORD PTR _strPacketName$32[ebp]
  00828	ff 15 00 00 00
	00		 call	 DWORD PTR __imp_??1?$CStringT@DV?$StrTraitMFC_DLL@DV?$ChTraitsCRT@D@ATL@@@@@ATL@@QAE@XZ
; File D:\git\src\IBK\IBK_DRFN\ProjSrc\SrcChartEx\ChartAddIn\ChartDataListViewerAddIn\Include_AddIn_134221\I134221\_IString.h

; 44   : 	{

  0082e	c6 45 fc 1f	 mov	 BYTE PTR __$EHRec$[ebp+8], 31 ; 0000001fH

; 45   : 		if( m_pIStrData)

  00832	85 f6		 test	 esi, esi
  00834	74 06		 je	 SHORT $LN306@Make_ListH

; 46   : 		{
; 47   : 			m_pIStrData->Release();

  00836	8b 06		 mov	 eax, DWORD PTR [esi]
  00838	56		 push	 esi
  00839	ff 50 08	 call	 DWORD PTR [eax+8]
$LN306@Make_ListH:

; 51   : 	}

  0083c	be 01 00 00 00	 mov	 esi, 1
  00841	c6 45 fc 06	 mov	 BYTE PTR __$EHRec$[ebp+8], 6
  00845	89 75 f0	 mov	 DWORD PTR _j$1$[ebp], esi
$LN307@Make_ListH:
; File D:\git\src\IBK\IBK_DRFN\ProjSrc\SrcChartEx\ChartAddIn\ChartDataListViewerAddIn\ChartDataListViewerAddIn\DlgDataListViewer.cpp

; 484  : 	for(int i = nStart ; i < ntitleCount + nStart ; i++)

  00848	8b 7d c4	 mov	 edi, DWORD PTR _ntitleCount$1$[ebp]
  0084b	03 fe		 add	 edi, esi
  0084d	3b f7		 cmp	 esi, edi
  0084f	0f 8d bf 05 00
	00		 jge	 $LN5@Make_ListH
  00855	2b fe		 sub	 edi, esi
  00857	89 7d d8	 mov	 DWORD PTR $T22[ebp], edi
  0085a	66 0f 1f 44 00
	00		 npad	 6
$LL6@Make_ListH:

; 485  : 	{
; 486  : 		lc.mask = LVCF_FMT | LVCF_SUBITEM | LVCF_TEXT | LVCF_WIDTH ;
; 487  : 		lc.fmt = LVCFMT_RIGHT ; 
; 488  : 		CString maintitle = CDataConversion::GetStringData(szTitles, ";");

  00860	68 00 00 00 00	 push	 OFFSET ??_C@_01ICJEACDI@?$DL@
  00865	8d 4d 88	 lea	 ecx, DWORD PTR $T12[ebp]
  00868	c7 45 90 0f 00
	00 00		 mov	 DWORD PTR _lc$[ebp], 15	; 0000000fH
  0086f	c7 45 94 01 00
	00 00		 mov	 DWORD PTR _lc$[ebp+4], 1
  00876	ff 15 00 00 00
	00		 call	 DWORD PTR __imp_??0?$CStringT@DV?$StrTraitMFC_DLL@DV?$ChTraitsCRT@D@ATL@@@@@ATL@@QAE@PBD@Z
  0087c	6a 01		 push	 1
  0087e	8d 45 88	 lea	 eax, DWORD PTR $T12[ebp]
  00881	c6 45 fc 20	 mov	 BYTE PTR __$EHRec$[ebp+8], 32 ; 00000020H
  00885	50		 push	 eax
  00886	8d 85 64 ff ff
	ff		 lea	 eax, DWORD PTR _szTitles$[ebp]
  0088c	50		 push	 eax
  0088d	8d 45 e8	 lea	 eax, DWORD PTR _maintitle$31[ebp]
  00890	50		 push	 eax
  00891	e8 00 00 00 00	 call	 ?GetStringData@CDataConversion@@SA?AV?$CStringT@DV?$StrTraitMFC_DLL@DV?$ChTraitsCRT@D@ATL@@@@@ATL@@AAV23@ABV23@_N@Z ; CDataConversion::GetStringData
  00896	83 c4 10	 add	 esp, 16			; 00000010H
  00899	8d 4d 88	 lea	 ecx, DWORD PTR $T12[ebp]
  0089c	c6 45 fc 22	 mov	 BYTE PTR __$EHRec$[ebp+8], 34 ; 00000022H
  008a0	ff 15 00 00 00
	00		 call	 DWORD PTR __imp_??1?$CStringT@DV?$StrTraitMFC_DLL@DV?$ChTraitsCRT@D@ATL@@@@@ATL@@QAE@XZ

; 489  : 
; 490  : 		maintitle.TrimLeft(); maintitle.TrimRight();		

  008a6	8d 4d e8	 lea	 ecx, DWORD PTR _maintitle$31[ebp]
  008a9	ff 15 00 00 00
	00		 call	 DWORD PTR __imp_?TrimLeft@?$CStringT@DV?$StrTraitMFC_DLL@DV?$ChTraitsCRT@D@ATL@@@@@ATL@@QAEAAV12@XZ
  008af	8d 4d e8	 lea	 ecx, DWORD PTR _maintitle$31[ebp]
  008b2	ff 15 00 00 00
	00		 call	 DWORD PTR __imp_?TrimRight@?$CStringT@DV?$StrTraitMFC_DLL@DV?$ChTraitsCRT@D@ATL@@@@@ATL@@QAEAAV12@XZ

; 491  : 		CString strP = CDataConversion::GetStringData(szT, ";");

  008b8	68 00 00 00 00	 push	 OFFSET ??_C@_01ICJEACDI@?$DL@
  008bd	8d 4d 84	 lea	 ecx, DWORD PTR $T11[ebp]
  008c0	ff 15 00 00 00
	00		 call	 DWORD PTR __imp_??0?$CStringT@DV?$StrTraitMFC_DLL@DV?$ChTraitsCRT@D@ATL@@@@@ATL@@QAE@PBD@Z
  008c6	6a 01		 push	 1
  008c8	8d 45 84	 lea	 eax, DWORD PTR $T11[ebp]
  008cb	c6 45 fc 23	 mov	 BYTE PTR __$EHRec$[ebp+8], 35 ; 00000023H
  008cf	50		 push	 eax
  008d0	8d 85 68 ff ff
	ff		 lea	 eax, DWORD PTR _szT$[ebp]
  008d6	50		 push	 eax
  008d7	8d 45 08	 lea	 eax, DWORD PTR _strP$46[ebp]
  008da	50		 push	 eax
  008db	e8 00 00 00 00	 call	 ?GetStringData@CDataConversion@@SA?AV?$CStringT@DV?$StrTraitMFC_DLL@DV?$ChTraitsCRT@D@ATL@@@@@ATL@@AAV23@ABV23@_N@Z ; CDataConversion::GetStringData
  008e0	83 c4 10	 add	 esp, 16			; 00000010H
  008e3	8d 4d 84	 lea	 ecx, DWORD PTR $T11[ebp]
  008e6	c6 45 fc 25	 mov	 BYTE PTR __$EHRec$[ebp+8], 37 ; 00000025H
  008ea	ff 15 00 00 00
	00		 call	 DWORD PTR __imp_??1?$CStringT@DV?$StrTraitMFC_DLL@DV?$ChTraitsCRT@D@ATL@@@@@ATL@@QAE@XZ

; 492  : 
; 493  : 		//nami 11.15
; 494  : 		if(strP.Find("Zig_Index") >= 0)

  008f0	6a 00		 push	 0
  008f2	68 00 00 00 00	 push	 OFFSET ??_C@_09FONLIOOC@Zig_Index@
  008f7	8d 4d 08	 lea	 ecx, DWORD PTR _strP$46[ebp]
  008fa	ff 15 00 00 00
	00		 call	 DWORD PTR __imp_?Find@?$CStringT@DV?$StrTraitMFC_DLL@DV?$ChTraitsCRT@D@ATL@@@@@ATL@@QBEHPBDH@Z
  00900	85 c0		 test	 eax, eax
  00902	78 13		 js	 SHORT $LN49@Make_ListH

; 495  : 			strP.Replace("Zig_Index,", "");

  00904	68 00 00 00 00	 push	 OFFSET ??_C@_00CNPNBAHC@@
  00909	68 00 00 00 00	 push	 OFFSET ??_C@_0L@HHGLDDHE@Zig_Index?0@
  0090e	8d 4d 08	 lea	 ecx, DWORD PTR _strP$46[ebp]
  00911	ff 15 00 00 00
	00		 call	 DWORD PTR __imp_?Replace@?$CStringT@DV?$StrTraitMFC_DLL@DV?$ChTraitsCRT@D@ATL@@@@@ATL@@QAEHPBD0@Z
$LN49@Make_ListH:

; 496  : 
; 497  : 		if(strP.Find("CLC_") >= 0)

  00917	6a 00		 push	 0
  00919	68 00 00 00 00	 push	 OFFSET ??_C@_0L@EJDGIBBA@CLC_?F?w?$MA?N?F?$KO@
  0091e	8d 4d 08	 lea	 ecx, DWORD PTR _strP$46[ebp]
  00921	ff 15 00 00 00
	00		 call	 DWORD PTR __imp_?Find@?$CStringT@DV?$StrTraitMFC_DLL@DV?$ChTraitsCRT@D@ATL@@@@@ATL@@QBEHPBDH@Z
  00927	85 c0		 test	 eax, eax
  00929	78 13		 js	 SHORT $LN50@Make_ListH

; 498  : 			strP.Replace("CLC_,", "");

  0092b	68 00 00 00 00	 push	 OFFSET ??_C@_00CNPNBAHC@@
  00930	68 00 00 00 00	 push	 OFFSET ??_C@_0M@CEMPENEL@CLC_?F?w?$MA?N?F?$KO?0@
  00935	8d 4d 08	 lea	 ecx, DWORD PTR _strP$46[ebp]
  00938	ff 15 00 00 00
	00		 call	 DWORD PTR __imp_?Replace@?$CStringT@DV?$StrTraitMFC_DLL@DV?$ChTraitsCRT@D@ATL@@@@@ATL@@QAEHPBD0@Z
$LN50@Make_ListH:

; 499  : 
; 500  : 		CString strUIText;

  0093e	8d 4d e0	 lea	 ecx, DWORD PTR _strUIText$27[ebp]
  00941	ff 15 00 00 00
	00		 call	 DWORD PTR __imp_??0?$CStringT@DV?$StrTraitMFC_DLL@DV?$ChTraitsCRT@D@ATL@@@@@ATL@@QAE@XZ

; 501  : 		int nOneRecordCount = CDataConversion::GetStringDataCount(strP, ",") ;

  00947	68 00 00 00 00	 push	 OFFSET ??_C@_01IHBHIGKO@?0@
  0094c	8d 4d 80	 lea	 ecx, DWORD PTR $T10[ebp]
  0094f	c6 45 fc 26	 mov	 BYTE PTR __$EHRec$[ebp+8], 38 ; 00000026H
  00953	ff 15 00 00 00
	00		 call	 DWORD PTR __imp_??0?$CStringT@DV?$StrTraitMFC_DLL@DV?$ChTraitsCRT@D@ATL@@@@@ATL@@QAE@PBD@Z
  00959	8d 45 80	 lea	 eax, DWORD PTR $T10[ebp]
  0095c	c6 45 fc 27	 mov	 BYTE PTR __$EHRec$[ebp+8], 39 ; 00000027H
  00960	50		 push	 eax
  00961	8d 45 08	 lea	 eax, DWORD PTR _strP$46[ebp]
  00964	50		 push	 eax
  00965	e8 00 00 00 00	 call	 ?GetStringDataCount@CDataConversion@@SAHABV?$CStringT@DV?$StrTraitMFC_DLL@DV?$ChTraitsCRT@D@ATL@@@@@ATL@@0@Z ; CDataConversion::GetStringDataCount
  0096a	83 c4 08	 add	 esp, 8
  0096d	c6 45 fc 26	 mov	 BYTE PTR __$EHRec$[ebp+8], 38 ; 00000026H
  00971	8b f8		 mov	 edi, eax
  00973	8d 4d 80	 lea	 ecx, DWORD PTR $T10[ebp]
  00976	89 7d cc	 mov	 DWORD PTR _nOneRecordCount$1$[ebp], edi
  00979	ff 15 00 00 00
	00		 call	 DWORD PTR __imp_??1?$CStringT@DV?$StrTraitMFC_DLL@DV?$ChTraitsCRT@D@ATL@@@@@ATL@@QAE@XZ

; 502  : 		if(nOneRecordCount == 1 && !maintitle.IsEmpty())

  0097f	83 ff 01	 cmp	 edi, 1
  00982	0f 85 cf 00 00
	00		 jne	 $LN51@Make_ListH
; File C:\Program Files (x86)\Microsoft Visual Studio\2019\Community\VC\Tools\MSVC\14.29.30133\atlmfc\include\atlsimpstr.h

; 519  : 		return( GetData()->nDataLength );

  00988	8b 4d e8	 mov	 ecx, DWORD PTR _maintitle$31[ebp]

; 533  : 		return( GetLength() == 0 );

  0098b	83 79 f4 00	 cmp	 DWORD PTR [ecx-12], 0
; File D:\git\src\IBK\IBK_DRFN\ProjSrc\SrcChartEx\ChartAddIn\ChartDataListViewerAddIn\ChartDataListViewerAddIn\DlgDataListViewer.cpp

; 502  : 		if(nOneRecordCount == 1 && !maintitle.IsEmpty())

  0098f	0f 84 cb 00 00
	00		 je	 $LL9@Make_ListH

; 503  : 		{
; 504  : 			//lc.pszText = (LPSTR)(LPCTSTR)maintitle;
; 505  : 			strUIText = _MTOL1_N( maintitle);

  00995	57		 push	 edi
  00996	51		 push	 ecx
  00997	57		 push	 edi
  00998	8b 7d dc	 mov	 edi, DWORD PTR _this$1$[ebp]
  0099b	b9 00 00 00 00	 mov	 ecx, OFFSET ?g_iMetaTable@@3VIMetaTable@@A ; g_iMetaTable
  009a0	ff b7 48 04 00
	00		 push	 DWORD PTR [edi+1096]
  009a6	e8 00 00 00 00	 call	 ?GetLanguageText@IMetaTable@@QAEPBDPAUHWND__@@W4E_CODEPAGE@1@PBDH@Z ; IMetaTable::GetLanguageText
  009ab	50		 push	 eax
  009ac	8d 4d e0	 lea	 ecx, DWORD PTR _strUIText$27[ebp]
  009af	ff 15 00 00 00
	00		 call	 DWORD PTR __imp_??4?$CStringT@DV?$StrTraitMFC_DLL@DV?$ChTraitsCRT@D@ATL@@@@@ATL@@QAEAAV01@PBD@Z
; File C:\Program Files (x86)\Microsoft Visual Studio\2019\Community\VC\Tools\MSVC\14.29.30133\atlmfc\include\atlsimpstr.h

; 519  : 		return( GetData()->nDataLength );

  009b5	8b 45 e0	 mov	 eax, DWORD PTR _strUIText$27[ebp]

; 533  : 		return( GetLength() == 0 );

  009b8	83 78 f4 00	 cmp	 DWORD PTR [eax-12], 0
; File D:\git\src\IBK\IBK_DRFN\ProjSrc\SrcChartEx\ChartAddIn\ChartDataListViewerAddIn\ChartDataListViewerAddIn\DlgDataListViewer.cpp

; 506  : 			if( strUIText.IsEmpty()) strUIText = _MTOL3( maintitle);

  009bc	75 24		 jne	 SHORT $LN53@Make_ListH
  009be	6a 00		 push	 0
  009c0	ff 75 e8	 push	 DWORD PTR _maintitle$31[ebp]
  009c3	b9 00 00 00 00	 mov	 ecx, OFFSET ?g_iMetaTable@@3VIMetaTable@@A ; g_iMetaTable
  009c8	6a 03		 push	 3
  009ca	ff b7 48 04 00
	00		 push	 DWORD PTR [edi+1096]
  009d0	e8 00 00 00 00	 call	 ?GetLanguageText@IMetaTable@@QAEPBDPAUHWND__@@W4E_CODEPAGE@1@PBDH@Z ; IMetaTable::GetLanguageText
  009d5	50		 push	 eax
  009d6	8d 4d e0	 lea	 ecx, DWORD PTR _strUIText$27[ebp]
  009d9	ff 15 00 00 00
	00		 call	 DWORD PTR __imp_??4?$CStringT@DV?$StrTraitMFC_DLL@DV?$ChTraitsCRT@D@ATL@@@@@ATL@@QAEAAV01@PBD@Z
  009df	8b 45 e0	 mov	 eax, DWORD PTR _strUIText$27[ebp]
$LN53@Make_ListH:

; 507  : 			lc.pszText = (LPSTR)(LPCTSTR)strUIText;
; 508  : 
; 509  : 			lc.iSubItem = j ;

  009e2	89 75 a4	 mov	 DWORD PTR _lc$[ebp+20], esi

; 510  : 			j++;
; 511  : 			lc.cx = width ;
; 512  : 			
; 513  : 			//20081025  >>
; 514  : 			CSize szTitle;
; 515  : 			CString strTitle= lc.pszText;

  009e5	8d 8d 7c ff ff
	ff		 lea	 ecx, DWORD PTR _strTitle$9[ebp]
  009eb	46		 inc	 esi
  009ec	89 45 9c	 mov	 DWORD PTR _lc$[ebp+12], eax
  009ef	50		 push	 eax
  009f0	89 75 f0	 mov	 DWORD PTR _j$1$[ebp], esi
  009f3	c7 45 98 50 00
	00 00		 mov	 DWORD PTR _lc$[ebp+8], 80 ; 00000050H
  009fa	ff 15 00 00 00
	00		 call	 DWORD PTR __imp_??0?$CStringT@DV?$StrTraitMFC_DLL@DV?$ChTraitsCRT@D@ATL@@@@@ATL@@QAE@PBD@Z
; File C:\Program Files (x86)\Microsoft Visual Studio\2019\Community\VC\Tools\MSVC\14.29.30133\atlmfc\include\atlsimpstr.h

; 519  : 		return( GetData()->nDataLength );

  00a00	8b 85 7c ff ff
	ff		 mov	 eax, DWORD PTR _strTitle$9[ebp]
; File C:\Program Files (x86)\Microsoft Visual Studio\2019\Community\VC\Tools\MSVC\14.29.30133\atlmfc\include\afxwin1.inl

; 639  : 		VERIFY(::GetTextExtentPoint32(m_hAttribDC, str, (int)str.GetLength(), &size));

  00a06	8d 8d 48 ff ff
	ff		 lea	 ecx, DWORD PTR _size$2[ebp]
  00a0c	51		 push	 ecx
  00a0d	ff 70 f4	 push	 DWORD PTR [eax-12]
  00a10	50		 push	 eax
  00a11	8b 45 c8	 mov	 eax, DWORD PTR _pDC$1$[ebp]
  00a14	ff 70 08	 push	 DWORD PTR [eax+8]
  00a17	ff 15 00 00 00
	00		 call	 DWORD PTR __imp__GetTextExtentPoint32A@16
; File D:\git\src\IBK\IBK_DRFN\ProjSrc\SrcChartEx\ChartAddIn\ChartDataListViewerAddIn\ChartDataListViewerAddIn\DlgDataListViewer.cpp

; 517  : 			lc.cx			= (lc.cx < szTitle.cx) ? szTitle.cx : lc.cx;

  00a1d	8b 4d 98	 mov	 ecx, DWORD PTR _lc$[ebp+8]
; File C:\Program Files (x86)\Microsoft Visual Studio\2019\Community\VC\Tools\MSVC\14.29.30133\atlmfc\include\afxcmn.inl

; 209  : 	{ ASSERT(::IsWindow(m_hWnd)); return (int) ::SendMessage(m_hWnd, LVM_INSERTCOLUMN, nCol, (LPARAM)pColumn); }

  00a20	8d 45 90	 lea	 eax, DWORD PTR _lc$[ebp]
; File D:\git\src\IBK\IBK_DRFN\ProjSrc\SrcChartEx\ChartAddIn\ChartDataListViewerAddIn\ChartDataListViewerAddIn\DlgDataListViewer.cpp

; 517  : 			lc.cx			= (lc.cx < szTitle.cx) ? szTitle.cx : lc.cx;

  00a23	3b 8d 48 ff ff
	ff		 cmp	 ecx, DWORD PTR _size$2[ebp]
; File C:\Program Files (x86)\Microsoft Visual Studio\2019\Community\VC\Tools\MSVC\14.29.30133\atlmfc\include\afxcmn.inl

; 209  : 	{ ASSERT(::IsWindow(m_hWnd)); return (int) ::SendMessage(m_hWnd, LVM_INSERTCOLUMN, nCol, (LPARAM)pColumn); }

  00a29	50		 push	 eax
; File D:\git\src\IBK\IBK_DRFN\ProjSrc\SrcChartEx\ChartAddIn\ChartDataListViewerAddIn\ChartDataListViewerAddIn\DlgDataListViewer.cpp

; 517  : 			lc.cx			= (lc.cx < szTitle.cx) ? szTitle.cx : lc.cx;

  00a2a	0f 4c 8d 48 ff
	ff ff		 cmovl	 ecx, DWORD PTR _size$2[ebp]
; File C:\Program Files (x86)\Microsoft Visual Studio\2019\Community\VC\Tools\MSVC\14.29.30133\atlmfc\include\afxcmn.inl

; 209  : 	{ ASSERT(::IsWindow(m_hWnd)); return (int) ::SendMessage(m_hWnd, LVM_INSERTCOLUMN, nCol, (LPARAM)pColumn); }

  00a31	56		 push	 esi
  00a32	68 1b 10 00 00	 push	 4123			; 0000101bH
  00a37	ff b7 d8 02 00
	00		 push	 DWORD PTR [edi+728]
; File D:\git\src\IBK\IBK_DRFN\ProjSrc\SrcChartEx\ChartAddIn\ChartDataListViewerAddIn\ChartDataListViewerAddIn\DlgDataListViewer.cpp

; 517  : 			lc.cx			= (lc.cx < szTitle.cx) ? szTitle.cx : lc.cx;

  00a3d	89 4d 98	 mov	 DWORD PTR _lc$[ebp+8], ecx
; File C:\Program Files (x86)\Microsoft Visual Studio\2019\Community\VC\Tools\MSVC\14.29.30133\atlmfc\include\afxcmn.inl

; 209  : 	{ ASSERT(::IsWindow(m_hWnd)); return (int) ::SendMessage(m_hWnd, LVM_INSERTCOLUMN, nCol, (LPARAM)pColumn); }

  00a40	ff 15 00 00 00
	00		 call	 DWORD PTR __imp__SendMessageA@16
; File D:\git\src\IBK\IBK_DRFN\ProjSrc\SrcChartEx\ChartAddIn\ChartDataListViewerAddIn\ChartDataListViewerAddIn\DlgDataListViewer.cpp

; 521  : 		}

  00a46	8d 8d 7c ff ff
	ff		 lea	 ecx, DWORD PTR _strTitle$9[ebp]
  00a4c	ff 15 00 00 00
	00		 call	 DWORD PTR __imp_??1?$CStringT@DV?$StrTraitMFC_DLL@DV?$ChTraitsCRT@D@ATL@@@@@ATL@@QAE@XZ
  00a52	e9 94 03 00 00	 jmp	 $LN8@Make_ListH
$LN51@Make_ListH:

; 522  : 		else
; 523  : 		{
; 524  : 			for(int p = 0 ; p < nOneRecordCount ; p++)

  00a57	85 ff		 test	 edi, edi
  00a59	0f 8e 8c 03 00
	00		 jle	 $LN8@Make_ListH
  00a5f	90		 npad	 1
$LL9@Make_ListH:

; 525  : 			{
; 526  : 				CString strName = CDataConversion::GetStringData(strP, ",") ;

  00a60	68 00 00 00 00	 push	 OFFSET ??_C@_01IHBHIGKO@?0@
  00a65	8d 8d 78 ff ff
	ff		 lea	 ecx, DWORD PTR $T8[ebp]
  00a6b	ff 15 00 00 00
	00		 call	 DWORD PTR __imp_??0?$CStringT@DV?$StrTraitMFC_DLL@DV?$ChTraitsCRT@D@ATL@@@@@ATL@@QAE@PBD@Z
  00a71	6a 01		 push	 1
  00a73	8d 85 78 ff ff
	ff		 lea	 eax, DWORD PTR $T8[ebp]
  00a79	c6 45 fc 28	 mov	 BYTE PTR __$EHRec$[ebp+8], 40 ; 00000028H
  00a7d	50		 push	 eax
  00a7e	8d 45 08	 lea	 eax, DWORD PTR _strP$46[ebp]
  00a81	50		 push	 eax
  00a82	8d 45 0c	 lea	 eax, DWORD PTR _strName$48[ebp]
  00a85	50		 push	 eax
  00a86	e8 00 00 00 00	 call	 ?GetStringData@CDataConversion@@SA?AV?$CStringT@DV?$StrTraitMFC_DLL@DV?$ChTraitsCRT@D@ATL@@@@@ATL@@AAV23@ABV23@_N@Z ; CDataConversion::GetStringData
  00a8b	83 c4 10	 add	 esp, 16			; 00000010H
  00a8e	8d 8d 78 ff ff
	ff		 lea	 ecx, DWORD PTR $T8[ebp]
  00a94	c6 45 fc 2a	 mov	 BYTE PTR __$EHRec$[ebp+8], 42 ; 0000002aH
  00a98	ff 15 00 00 00
	00		 call	 DWORD PTR __imp_??1?$CStringT@DV?$StrTraitMFC_DLL@DV?$ChTraitsCRT@D@ATL@@@@@ATL@@QAE@XZ

; 530  : 					|| strName == m_strHorzScale)

  00a9e	a1 54 00 00 00	 mov	 eax, DWORD PTR ?g_iMetaTable@@3VIMetaTable@@A+84
  00aa3	8d 4d 0c	 lea	 ecx, DWORD PTR _strName$48[ebp]
  00aa6	6a 00		 push	 0
  00aa8	ff 30		 push	 DWORD PTR [eax]
  00aaa	ff 15 00 00 00
	00		 call	 DWORD PTR __imp_?Find@?$CStringT@DV?$StrTraitMFC_DLL@DV?$ChTraitsCRT@D@ATL@@@@@ATL@@QBEHPBDH@Z
  00ab0	85 c0		 test	 eax, eax
  00ab2	78 1d		 js	 SHORT $LN56@Make_ListH
  00ab4	a1 54 00 00 00	 mov	 eax, DWORD PTR ?g_iMetaTable@@3VIMetaTable@@A+84
  00ab9	8b 8d 74 ff ff
	ff		 mov	 ecx, DWORD PTR tv2070[ebp]
  00abf	6a 00		 push	 0
  00ac1	ff 30		 push	 DWORD PTR [eax]
  00ac3	ff 15 00 00 00
	00		 call	 DWORD PTR __imp_?Find@?$CStringT@DV?$StrTraitMFC_DLL@DV?$ChTraitsCRT@D@ATL@@@@@ATL@@QBEHPBDH@Z
  00ac9	85 c0		 test	 eax, eax
  00acb	0f 89 01 03 00
	00		 jns	 $LN416@Make_ListH
$LN56@Make_ListH:
; File C:\Program Files (x86)\Microsoft Visual Studio\2019\Community\VC\Tools\MSVC\14.29.30133\atlmfc\include\cstringt.h

; 2479 : 		return(str1.Compare(str2) == 0);

  00ad1	8b 85 74 ff ff
	ff		 mov	 eax, DWORD PTR tv2070[ebp]
  00ad7	8d 4d 0c	 lea	 ecx, DWORD PTR _strName$48[ebp]
  00ada	ff 30		 push	 DWORD PTR [eax]
  00adc	ff 15 00 00 00
	00		 call	 DWORD PTR __imp_?Compare@?$CStringT@DV?$StrTraitMFC_DLL@DV?$ChTraitsCRT@D@ATL@@@@@ATL@@QBEHPBD@Z
  00ae2	85 c0		 test	 eax, eax
; File D:\git\src\IBK\IBK_DRFN\ProjSrc\SrcChartEx\ChartAddIn\ChartDataListViewerAddIn\ChartDataListViewerAddIn\DlgDataListViewer.cpp

; 530  : 					|| strName == m_strHorzScale)

  00ae4	0f 84 e8 02 00
	00		 je	 $LN416@Make_ListH

; 531  : 					continue;
; 532  : 
; 533  : 				// (2008/3/21 - Seung-Won, Bae) Check Dynamic Packet Name
; 534  : 				// 1. Rainbow Chart
; 535  : 				int nPrefixLen = 0;
; 536  : 				if( !strncmp( strName, _MTEXT( C0_RAINBOW_PACKET), nPrefixLen = strlen( _MTEXT( C0_RAINBOW_PACKET))))

  00aea	a1 54 00 00 00	 mov	 eax, DWORD PTR ?g_iMetaTable@@3VIMetaTable@@A+84
  00aef	8b 88 70 01 00
	00		 mov	 ecx, DWORD PTR [eax+368]
  00af5	8b f1		 mov	 esi, ecx
  00af7	8d 56 01	 lea	 edx, DWORD PTR [esi+1]
  00afa	66 0f 1f 44 00
	00		 npad	 6
$LL423@Make_ListH:
  00b00	8a 06		 mov	 al, BYTE PTR [esi]
  00b02	46		 inc	 esi
  00b03	84 c0		 test	 al, al
  00b05	75 f9		 jne	 SHORT $LL423@Make_ListH
  00b07	2b f2		 sub	 esi, edx
  00b09	56		 push	 esi
  00b0a	51		 push	 ecx
  00b0b	ff 75 0c	 push	 DWORD PTR _strName$48[ebp]
  00b0e	ff 15 00 00 00
	00		 call	 DWORD PTR __imp__strncmp
  00b14	83 c4 0c	 add	 esp, 12			; 0000000cH
  00b17	85 c0		 test	 eax, eax
  00b19	0f 85 c1 00 00
	00		 jne	 $LN57@Make_ListH

; 537  : 					strName = _LTEXT0( C0_RAINBOW_PACKET) + strName.Mid( nPrefixLen);

  00b1f	56		 push	 esi
  00b20	8d 85 58 ff ff
	ff		 lea	 eax, DWORD PTR $T5[ebp]
  00b26	50		 push	 eax
  00b27	8d 4d 0c	 lea	 ecx, DWORD PTR _strName$48[ebp]
  00b2a	ff 15 00 00 00
	00		 call	 DWORD PTR __imp_?Mid@?$CStringT@DV?$StrTraitMFC_DLL@DV?$ChTraitsCRT@D@ATL@@@@@ATL@@QBE?AV12@H@Z
  00b30	8b f0		 mov	 esi, eax
  00b32	8b 0d 54 00 00
	00		 mov	 ecx, DWORD PTR ?g_iMetaTable@@3VIMetaTable@@A+84
  00b38	8b 45 dc	 mov	 eax, DWORD PTR _this$1$[ebp]
  00b3b	6a 00		 push	 0
  00b3d	c6 45 fc 2b	 mov	 BYTE PTR __$EHRec$[ebp+8], 43 ; 0000002bH
  00b41	ff b1 70 01 00
	00		 push	 DWORD PTR [ecx+368]
  00b47	b9 00 00 00 00	 mov	 ecx, OFFSET ?g_iMetaTable@@3VIMetaTable@@A ; g_iMetaTable
  00b4c	6a 00		 push	 0
  00b4e	ff b0 48 04 00
	00		 push	 DWORD PTR [eax+1096]
  00b54	e8 00 00 00 00	 call	 ?GetLanguageText@IMetaTable@@QAEPBDPAUHWND__@@W4E_CODEPAGE@1@PBDH@Z ; IMetaTable::GetLanguageText
  00b59	8b f8		 mov	 edi, eax
; File C:\Program Files (x86)\Microsoft Visual Studio\2019\Community\VC\Tools\MSVC\14.29.30133\atlmfc\include\cstringt.h

; 2412 : 		CStringT strResult( str2.GetManager() );

  00b5b	8b ce		 mov	 ecx, esi
; File D:\git\src\IBK\IBK_DRFN\ProjSrc\SrcChartEx\ChartAddIn\ChartDataListViewerAddIn\ChartDataListViewerAddIn\DlgDataListViewer.cpp

; 537  : 					strName = _LTEXT0( C0_RAINBOW_PACKET) + strName.Mid( nPrefixLen);

  00b5d	c6 45 fc 2c	 mov	 BYTE PTR __$EHRec$[ebp+8], 44 ; 0000002cH
; File C:\Program Files (x86)\Microsoft Visual Studio\2019\Community\VC\Tools\MSVC\14.29.30133\atlmfc\include\cstringt.h

; 2412 : 		CStringT strResult( str2.GetManager() );

  00b61	ff 15 00 00 00
	00		 call	 DWORD PTR __imp_?GetManager@?$CStringT@DV?$StrTraitMFC_DLL@DV?$ChTraitsCRT@D@ATL@@@@@ATL@@QBEPAUIAtlStringMgr@2@XZ
  00b67	50		 push	 eax
  00b68	8d 4d d4	 lea	 ecx, DWORD PTR $T21[ebp]
  00b6b	ff 15 00 00 00
	00		 call	 DWORD PTR __imp_??0?$CStringT@DV?$StrTraitMFC_DLL@DV?$ChTraitsCRT@D@ATL@@@@@ATL@@QAE@PAUIAtlStringMgr@1@@Z
; File C:\Program Files (x86)\Microsoft Visual Studio\2019\Community\VC\Tools\MSVC\14.29.30133\atlmfc\include\atlsimpstr.h

; 519  : 		return( GetData()->nDataLength );

  00b71	8b 36		 mov	 esi, DWORD PTR [esi]
; File C:\Program Files (x86)\Microsoft Visual Studio\2019\Community\VC\Tools\MSVC\14.29.30133\atlmfc\include\cstringt.h

; 2416 : 		return( strResult );

  00b73	81 cb 00 01 00
	00		 or	 ebx, 256		; 00000100H
  00b79	89 5d e4	 mov	 DWORD PTR $T29[ebp], ebx
; File C:\Program Files (x86)\Microsoft Visual Studio\2019\Community\VC\Tools\MSVC\14.29.30133\atlmfc\include\atlsimpstr.h

; 722  : 		if( psz == NULL )

  00b7c	85 ff		 test	 edi, edi
  00b7e	75 04		 jne	 SHORT $LN358@Make_ListH

; 723  : 		{
; 724  : 			return( 0 );

  00b80	33 c9		 xor	 ecx, ecx
  00b82	eb 15		 jmp	 SHORT $LN357@Make_ListH
$LN358@Make_ListH:

; 725  : 		}
; 726  : 		return( int( strlen( psz ) ) );

  00b84	8b cf		 mov	 ecx, edi
  00b86	8d 51 01	 lea	 edx, DWORD PTR [ecx+1]
  00b89	0f 1f 80 00 00
	00 00		 npad	 7
$LL424@Make_ListH:
  00b90	8a 01		 mov	 al, BYTE PTR [ecx]
  00b92	41		 inc	 ecx
  00b93	84 c0		 test	 al, al
  00b95	75 f9		 jne	 SHORT $LL424@Make_ListH
  00b97	2b ca		 sub	 ecx, edx
$LN357@Make_ListH:
; File C:\Program Files (x86)\Microsoft Visual Studio\2019\Community\VC\Tools\MSVC\14.29.30133\atlmfc\include\cstringt.h

; 2414 : 		CThisSimpleString::Concatenate( strResult, psz1, CThisSimpleString::StringLength( psz1 ), str2, str2.GetLength() );

  00b99	ff 76 f4	 push	 DWORD PTR [esi-12]
  00b9c	8d 45 d4	 lea	 eax, DWORD PTR $T21[ebp]
  00b9f	56		 push	 esi
  00ba0	51		 push	 ecx
  00ba1	57		 push	 edi
  00ba2	50		 push	 eax
  00ba3	ff 15 00 00 00
	00		 call	 DWORD PTR __imp_?Concatenate@?$CSimpleStringT@D$00@ATL@@KAXAAV12@PBDH1H@Z
  00ba9	83 c4 14	 add	 esp, 20			; 00000014H
; File D:\git\src\IBK\IBK_DRFN\ProjSrc\SrcChartEx\ChartAddIn\ChartDataListViewerAddIn\ChartDataListViewerAddIn\DlgDataListViewer.cpp

; 537  : 					strName = _LTEXT0( C0_RAINBOW_PACKET) + strName.Mid( nPrefixLen);

  00bac	8d 45 d4	 lea	 eax, DWORD PTR $T21[ebp]
  00baf	8d 4d 0c	 lea	 ecx, DWORD PTR _strName$48[ebp]
  00bb2	50		 push	 eax
  00bb3	ff 15 00 00 00
	00		 call	 DWORD PTR __imp_??4?$CStringT@DV?$StrTraitMFC_DLL@DV?$ChTraitsCRT@D@ATL@@@@@ATL@@QAEAAV01@ABV01@@Z
  00bb9	8d 4d d4	 lea	 ecx, DWORD PTR $T21[ebp]
  00bbc	81 e3 ff fe ff
	ff		 and	 ebx, -257		; fffffeffH
  00bc2	ff 15 00 00 00
	00		 call	 DWORD PTR __imp_??1?$CStringT@DV?$StrTraitMFC_DLL@DV?$ChTraitsCRT@D@ATL@@@@@ATL@@QAE@XZ
  00bc8	8d 8d 58 ff ff
	ff		 lea	 ecx, DWORD PTR $T5[ebp]
  00bce	c6 45 fc 2a	 mov	 BYTE PTR __$EHRec$[ebp+8], 42 ; 0000002aH
  00bd2	ff 15 00 00 00
	00		 call	 DWORD PTR __imp_??1?$CStringT@DV?$StrTraitMFC_DLL@DV?$ChTraitsCRT@D@ATL@@@@@ATL@@QAE@XZ
  00bd8	8b 7d cc	 mov	 edi, DWORD PTR _nOneRecordCount$1$[ebp]
  00bdb	e9 82 01 00 00	 jmp	 $LN60@Make_ListH
$LN57@Make_ListH:

; 538  : 				else
; 539  : 				// 2. Box Chart
; 540  : 				if( !strncmp( strName, _MTEXT( C2_BOX_CHART), nPrefixLen = strlen( _MTEXT( C2_BOX_CHART))))

  00be0	a1 54 00 00 00	 mov	 eax, DWORD PTR ?g_iMetaTable@@3VIMetaTable@@A+84
  00be5	8b 88 40 03 00
	00		 mov	 ecx, DWORD PTR [eax+832]
  00beb	8b f1		 mov	 esi, ecx
  00bed	8d 56 01	 lea	 edx, DWORD PTR [esi+1]
$LL425@Make_ListH:
  00bf0	8a 06		 mov	 al, BYTE PTR [esi]
  00bf2	46		 inc	 esi
  00bf3	84 c0		 test	 al, al
  00bf5	75 f9		 jne	 SHORT $LL425@Make_ListH
  00bf7	2b f2		 sub	 esi, edx
  00bf9	56		 push	 esi
  00bfa	51		 push	 ecx
  00bfb	ff 75 0c	 push	 DWORD PTR _strName$48[ebp]
  00bfe	ff 15 00 00 00
	00		 call	 DWORD PTR __imp__strncmp
  00c04	83 c4 0c	 add	 esp, 12			; 0000000cH
  00c07	85 c0		 test	 eax, eax
  00c09	0f 85 2f 01 00
	00		 jne	 $LN59@Make_ListH

; 541  : 						strName = CString( _LTEXT2( C2_BOX_CHART)) + "_" + _MTOL0( strName.Mid( nPrefixLen));

  00c0f	56		 push	 esi
  00c10	8d 85 60 ff ff
	ff		 lea	 eax, DWORD PTR $T7[ebp]
  00c16	50		 push	 eax
  00c17	8d 4d 0c	 lea	 ecx, DWORD PTR _strName$48[ebp]
  00c1a	ff 15 00 00 00
	00		 call	 DWORD PTR __imp_?Mid@?$CStringT@DV?$StrTraitMFC_DLL@DV?$ChTraitsCRT@D@ATL@@@@@ATL@@QBE?AV12@H@Z
  00c20	8b f8		 mov	 edi, eax
  00c22	8b 0d 54 00 00
	00		 mov	 ecx, DWORD PTR ?g_iMetaTable@@3VIMetaTable@@A+84
  00c28	8b 45 dc	 mov	 eax, DWORD PTR _this$1$[ebp]
  00c2b	6a 00		 push	 0
  00c2d	c6 45 fc 2d	 mov	 BYTE PTR __$EHRec$[ebp+8], 45 ; 0000002dH
  00c31	ff b1 40 03 00
	00		 push	 DWORD PTR [ecx+832]
  00c37	b9 00 00 00 00	 mov	 ecx, OFFSET ?g_iMetaTable@@3VIMetaTable@@A ; g_iMetaTable
  00c3c	6a 02		 push	 2
  00c3e	ff b0 48 04 00
	00		 push	 DWORD PTR [eax+1096]
  00c44	e8 00 00 00 00	 call	 ?GetLanguageText@IMetaTable@@QAEPBDPAUHWND__@@W4E_CODEPAGE@1@PBDH@Z ; IMetaTable::GetLanguageText
  00c49	50		 push	 eax
  00c4a	8d 4d c0	 lea	 ecx, DWORD PTR $T17[ebp]
  00c4d	ff 15 00 00 00
	00		 call	 DWORD PTR __imp_??0?$CStringT@DV?$StrTraitMFC_DLL@DV?$ChTraitsCRT@D@ATL@@@@@ATL@@QAE@PBD@Z
  00c53	8b f0		 mov	 esi, eax
; File C:\Program Files (x86)\Microsoft Visual Studio\2019\Community\VC\Tools\MSVC\14.29.30133\atlmfc\include\cstringt.h

; 2401 : 		CStringT strResult( str1.GetManager() );

  00c55	8b ce		 mov	 ecx, esi
; File D:\git\src\IBK\IBK_DRFN\ProjSrc\SrcChartEx\ChartAddIn\ChartDataListViewerAddIn\ChartDataListViewerAddIn\DlgDataListViewer.cpp

; 541  : 						strName = CString( _LTEXT2( C2_BOX_CHART)) + "_" + _MTOL0( strName.Mid( nPrefixLen));

  00c57	c6 45 fc 2f	 mov	 BYTE PTR __$EHRec$[ebp+8], 47 ; 0000002fH
; File C:\Program Files (x86)\Microsoft Visual Studio\2019\Community\VC\Tools\MSVC\14.29.30133\atlmfc\include\cstringt.h

; 2401 : 		CStringT strResult( str1.GetManager() );

  00c5b	ff 15 00 00 00
	00		 call	 DWORD PTR __imp_?GetManager@?$CStringT@DV?$StrTraitMFC_DLL@DV?$ChTraitsCRT@D@ATL@@@@@ATL@@QBEPAUIAtlStringMgr@2@XZ
  00c61	50		 push	 eax
  00c62	8d 4d ec	 lea	 ecx, DWORD PTR $T33[ebp]
  00c65	ff 15 00 00 00
	00		 call	 DWORD PTR __imp_??0?$CStringT@DV?$StrTraitMFC_DLL@DV?$ChTraitsCRT@D@ATL@@@@@ATL@@QAE@PAUIAtlStringMgr@1@@Z
; File C:\Program Files (x86)\Microsoft Visual Studio\2019\Community\VC\Tools\MSVC\14.29.30133\atlmfc\include\atlsimpstr.h

; 519  : 		return( GetData()->nDataLength );

  00c6b	8b 06		 mov	 eax, DWORD PTR [esi]
; File C:\Program Files (x86)\Microsoft Visual Studio\2019\Community\VC\Tools\MSVC\14.29.30133\atlmfc\include\cstringt.h

; 2405 : 		return( strResult );

  00c6d	81 cb 00 02 00
	00		 or	 ebx, 512		; 00000200H
  00c73	6a 01		 push	 1
  00c75	68 00 00 00 00	 push	 OFFSET ??_C@_01IDAFKMJL@_@
  00c7a	89 5d e4	 mov	 DWORD PTR $T29[ebp], ebx
  00c7d	ff 70 f4	 push	 DWORD PTR [eax-12]
  00c80	50		 push	 eax
  00c81	8d 45 ec	 lea	 eax, DWORD PTR $T33[ebp]
  00c84	50		 push	 eax
  00c85	ff 15 00 00 00
	00		 call	 DWORD PTR __imp_?Concatenate@?$CSimpleStringT@D$00@ATL@@KAXAAV12@PBDH1H@Z
; File D:\git\src\IBK\IBK_DRFN\ProjSrc\SrcChartEx\ChartAddIn\ChartDataListViewerAddIn\ChartDataListViewerAddIn\DlgDataListViewer.cpp

; 541  : 						strName = CString( _LTEXT2( C2_BOX_CHART)) + "_" + _MTOL0( strName.Mid( nPrefixLen));

  00c8b	8b 45 dc	 mov	 eax, DWORD PTR _this$1$[ebp]
; File C:\Program Files (x86)\Microsoft Visual Studio\2019\Community\VC\Tools\MSVC\14.29.30133\atlmfc\include\cstringt.h

; 2403 : 		CThisSimpleString::Concatenate( strResult, str1, str1.GetLength(), psz2, CThisSimpleString::StringLength( psz2 ) );

  00c8e	83 c4 14	 add	 esp, 20			; 00000014H
; File D:\git\src\IBK\IBK_DRFN\ProjSrc\SrcChartEx\ChartAddIn\ChartDataListViewerAddIn\ChartDataListViewerAddIn\DlgDataListViewer.cpp

; 541  : 						strName = CString( _LTEXT2( C2_BOX_CHART)) + "_" + _MTOL0( strName.Mid( nPrefixLen));

  00c91	b9 00 00 00 00	 mov	 ecx, OFFSET ?g_iMetaTable@@3VIMetaTable@@A ; g_iMetaTable
  00c96	6a 00		 push	 0
  00c98	ff 37		 push	 DWORD PTR [edi]
  00c9a	6a 00		 push	 0
  00c9c	ff b0 48 04 00
	00		 push	 DWORD PTR [eax+1096]
  00ca2	e8 00 00 00 00	 call	 ?GetLanguageText@IMetaTable@@QAEPBDPAUHWND__@@W4E_CODEPAGE@1@PBDH@Z ; IMetaTable::GetLanguageText
  00ca7	8b f0		 mov	 esi, eax
; File C:\Program Files (x86)\Microsoft Visual Studio\2019\Community\VC\Tools\MSVC\14.29.30133\atlmfc\include\cstringt.h

; 2401 : 		CStringT strResult( str1.GetManager() );

  00ca9	8d 4d ec	 lea	 ecx, DWORD PTR $T33[ebp]
; File D:\git\src\IBK\IBK_DRFN\ProjSrc\SrcChartEx\ChartAddIn\ChartDataListViewerAddIn\ChartDataListViewerAddIn\DlgDataListViewer.cpp

; 541  : 						strName = CString( _LTEXT2( C2_BOX_CHART)) + "_" + _MTOL0( strName.Mid( nPrefixLen));

  00cac	c6 45 fc 30	 mov	 BYTE PTR __$EHRec$[ebp+8], 48 ; 00000030H
; File C:\Program Files (x86)\Microsoft Visual Studio\2019\Community\VC\Tools\MSVC\14.29.30133\atlmfc\include\cstringt.h

; 2401 : 		CStringT strResult( str1.GetManager() );

  00cb0	ff 15 00 00 00
	00		 call	 DWORD PTR __imp_?GetManager@?$CStringT@DV?$StrTraitMFC_DLL@DV?$ChTraitsCRT@D@ATL@@@@@ATL@@QBEPAUIAtlStringMgr@2@XZ
  00cb6	50		 push	 eax
  00cb7	8d 4d d0	 lea	 ecx, DWORD PTR $T19[ebp]
  00cba	ff 15 00 00 00
	00		 call	 DWORD PTR __imp_??0?$CStringT@DV?$StrTraitMFC_DLL@DV?$ChTraitsCRT@D@ATL@@@@@ATL@@QAE@PAUIAtlStringMgr@1@@Z

; 2405 : 		return( strResult );

  00cc0	81 cb 00 04 00
	00		 or	 ebx, 1024		; 00000400H
  00cc6	89 5d e4	 mov	 DWORD PTR $T29[ebp], ebx
; File C:\Program Files (x86)\Microsoft Visual Studio\2019\Community\VC\Tools\MSVC\14.29.30133\atlmfc\include\atlsimpstr.h

; 722  : 		if( psz == NULL )

  00cc9	85 f6		 test	 esi, esi
  00ccb	75 04		 jne	 SHORT $LN382@Make_ListH

; 723  : 		{
; 724  : 			return( 0 );

  00ccd	33 c9		 xor	 ecx, ecx
  00ccf	eb 0e		 jmp	 SHORT $LN381@Make_ListH
$LN382@Make_ListH:

; 725  : 		}
; 726  : 		return( int( strlen( psz ) ) );

  00cd1	8b ce		 mov	 ecx, esi
  00cd3	8d 51 01	 lea	 edx, DWORD PTR [ecx+1]
$LL426@Make_ListH:
  00cd6	8a 01		 mov	 al, BYTE PTR [ecx]
  00cd8	41		 inc	 ecx
  00cd9	84 c0		 test	 al, al
  00cdb	75 f9		 jne	 SHORT $LL426@Make_ListH
  00cdd	2b ca		 sub	 ecx, edx
$LN381@Make_ListH:

; 519  : 		return( GetData()->nDataLength );

  00cdf	8b 45 ec	 mov	 eax, DWORD PTR $T33[ebp]
; File C:\Program Files (x86)\Microsoft Visual Studio\2019\Community\VC\Tools\MSVC\14.29.30133\atlmfc\include\cstringt.h

; 2403 : 		CThisSimpleString::Concatenate( strResult, str1, str1.GetLength(), psz2, CThisSimpleString::StringLength( psz2 ) );

  00ce2	51		 push	 ecx
  00ce3	56		 push	 esi
  00ce4	ff 70 f4	 push	 DWORD PTR [eax-12]
  00ce7	50		 push	 eax
  00ce8	8d 45 d0	 lea	 eax, DWORD PTR $T19[ebp]
  00ceb	50		 push	 eax
  00cec	ff 15 00 00 00
	00		 call	 DWORD PTR __imp_?Concatenate@?$CSimpleStringT@D$00@ATL@@KAXAAV12@PBDH1H@Z
  00cf2	83 c4 14	 add	 esp, 20			; 00000014H
; File D:\git\src\IBK\IBK_DRFN\ProjSrc\SrcChartEx\ChartAddIn\ChartDataListViewerAddIn\ChartDataListViewerAddIn\DlgDataListViewer.cpp

; 541  : 						strName = CString( _LTEXT2( C2_BOX_CHART)) + "_" + _MTOL0( strName.Mid( nPrefixLen));

  00cf5	8d 45 d0	 lea	 eax, DWORD PTR $T19[ebp]
  00cf8	8d 4d 0c	 lea	 ecx, DWORD PTR _strName$48[ebp]
  00cfb	50		 push	 eax
  00cfc	ff 15 00 00 00
	00		 call	 DWORD PTR __imp_??4?$CStringT@DV?$StrTraitMFC_DLL@DV?$ChTraitsCRT@D@ATL@@@@@ATL@@QAEAAV01@ABV01@@Z
  00d02	8d 4d d0	 lea	 ecx, DWORD PTR $T19[ebp]
  00d05	81 e3 ff fb ff
	ff		 and	 ebx, -1025		; fffffbffH
  00d0b	ff 15 00 00 00
	00		 call	 DWORD PTR __imp_??1?$CStringT@DV?$StrTraitMFC_DLL@DV?$ChTraitsCRT@D@ATL@@@@@ATL@@QAE@XZ
  00d11	8d 4d ec	 lea	 ecx, DWORD PTR $T33[ebp]
  00d14	81 e3 ff fd ff
	ff		 and	 ebx, -513		; fffffdffH
  00d1a	ff 15 00 00 00
	00		 call	 DWORD PTR __imp_??1?$CStringT@DV?$StrTraitMFC_DLL@DV?$ChTraitsCRT@D@ATL@@@@@ATL@@QAE@XZ
  00d20	8d 4d c0	 lea	 ecx, DWORD PTR $T17[ebp]
  00d23	ff 15 00 00 00
	00		 call	 DWORD PTR __imp_??1?$CStringT@DV?$StrTraitMFC_DLL@DV?$ChTraitsCRT@D@ATL@@@@@ATL@@QAE@XZ
  00d29	8d 8d 60 ff ff
	ff		 lea	 ecx, DWORD PTR $T7[ebp]
  00d2f	c6 45 fc 2a	 mov	 BYTE PTR __$EHRec$[ebp+8], 42 ; 0000002aH
  00d33	ff 15 00 00 00
	00		 call	 DWORD PTR __imp_??1?$CStringT@DV?$StrTraitMFC_DLL@DV?$ChTraitsCRT@D@ATL@@@@@ATL@@QAE@XZ
  00d39	8b 7d cc	 mov	 edi, DWORD PTR _nOneRecordCount$1$[ebp]
  00d3c	eb 24		 jmp	 SHORT $LN60@Make_ListH
$LN59@Make_ListH:

; 542  : 				else
; 543  : 				// 3. Others
; 544  : 					strName = _MTOL0( strName);

  00d3e	8b 45 dc	 mov	 eax, DWORD PTR _this$1$[ebp]
  00d41	b9 00 00 00 00	 mov	 ecx, OFFSET ?g_iMetaTable@@3VIMetaTable@@A ; g_iMetaTable
  00d46	6a 00		 push	 0
  00d48	ff 75 0c	 push	 DWORD PTR _strName$48[ebp]
  00d4b	6a 00		 push	 0
  00d4d	ff b0 48 04 00
	00		 push	 DWORD PTR [eax+1096]
  00d53	e8 00 00 00 00	 call	 ?GetLanguageText@IMetaTable@@QAEPBDPAUHWND__@@W4E_CODEPAGE@1@PBDH@Z ; IMetaTable::GetLanguageText
  00d58	50		 push	 eax
  00d59	8d 4d 0c	 lea	 ecx, DWORD PTR _strName$48[ebp]
  00d5c	ff 15 00 00 00
	00		 call	 DWORD PTR __imp_??4?$CStringT@DV?$StrTraitMFC_DLL@DV?$ChTraitsCRT@D@ATL@@@@@ATL@@QAEAAV01@PBD@Z
$LN60@Make_ListH:

; 545  : 
; 546  : 				lc.pszText = ( LPSTR)( LPCTSTR)strName;
; 547  : 				lc.iSubItem = j ;

  00d62	8b 75 f0	 mov	 esi, DWORD PTR _j$1$[ebp]

; 548  : 				j++;
; 549  : 				lc.cx = width ;
; 550  : 
; 551  : 				//20081025  >>
; 552  : 				CSize szTitle;
; 553  : 				CString strTitle= lc.pszText;

  00d65	8d 4d c4	 lea	 ecx, DWORD PTR _strTitle$18[ebp]
  00d68	8b 45 0c	 mov	 eax, DWORD PTR _strName$48[ebp]
  00d6b	89 75 a4	 mov	 DWORD PTR _lc$[ebp+20], esi
  00d6e	46		 inc	 esi
  00d6f	50		 push	 eax
  00d70	89 45 9c	 mov	 DWORD PTR _lc$[ebp+12], eax
  00d73	89 75 f0	 mov	 DWORD PTR _j$1$[ebp], esi
  00d76	c7 45 98 50 00
	00 00		 mov	 DWORD PTR _lc$[ebp+8], 80 ; 00000050H
  00d7d	ff 15 00 00 00
	00		 call	 DWORD PTR __imp_??0?$CStringT@DV?$StrTraitMFC_DLL@DV?$ChTraitsCRT@D@ATL@@@@@ATL@@QAE@PBD@Z
; File C:\Program Files (x86)\Microsoft Visual Studio\2019\Community\VC\Tools\MSVC\14.29.30133\atlmfc\include\atlsimpstr.h

; 519  : 		return( GetData()->nDataLength );

  00d83	8b 45 c4	 mov	 eax, DWORD PTR _strTitle$18[ebp]
; File C:\Program Files (x86)\Microsoft Visual Studio\2019\Community\VC\Tools\MSVC\14.29.30133\atlmfc\include\afxwin1.inl

; 639  : 		VERIFY(::GetTextExtentPoint32(m_hAttribDC, str, (int)str.GetLength(), &size));

  00d86	8d 8d 50 ff ff
	ff		 lea	 ecx, DWORD PTR _size$3[ebp]
  00d8c	51		 push	 ecx
  00d8d	ff 70 f4	 push	 DWORD PTR [eax-12]
  00d90	50		 push	 eax
  00d91	8b 45 c8	 mov	 eax, DWORD PTR _pDC$1$[ebp]
  00d94	ff 70 08	 push	 DWORD PTR [eax+8]
  00d97	ff 15 00 00 00
	00		 call	 DWORD PTR __imp__GetTextExtentPoint32A@16
; File D:\git\src\IBK\IBK_DRFN\ProjSrc\SrcChartEx\ChartAddIn\ChartDataListViewerAddIn\ChartDataListViewerAddIn\DlgDataListViewer.cpp

; 555  : 				lc.cx			= (lc.cx < szTitle.cx) ? szTitle.cx : lc.cx;

  00d9d	8b 4d 98	 mov	 ecx, DWORD PTR _lc$[ebp+8]
; File C:\Program Files (x86)\Microsoft Visual Studio\2019\Community\VC\Tools\MSVC\14.29.30133\atlmfc\include\afxcmn.inl

; 209  : 	{ ASSERT(::IsWindow(m_hWnd)); return (int) ::SendMessage(m_hWnd, LVM_INSERTCOLUMN, nCol, (LPARAM)pColumn); }

  00da0	8d 45 90	 lea	 eax, DWORD PTR _lc$[ebp]
; File D:\git\src\IBK\IBK_DRFN\ProjSrc\SrcChartEx\ChartAddIn\ChartDataListViewerAddIn\ChartDataListViewerAddIn\DlgDataListViewer.cpp

; 555  : 				lc.cx			= (lc.cx < szTitle.cx) ? szTitle.cx : lc.cx;

  00da3	3b 8d 50 ff ff
	ff		 cmp	 ecx, DWORD PTR _size$3[ebp]
; File C:\Program Files (x86)\Microsoft Visual Studio\2019\Community\VC\Tools\MSVC\14.29.30133\atlmfc\include\afxcmn.inl

; 209  : 	{ ASSERT(::IsWindow(m_hWnd)); return (int) ::SendMessage(m_hWnd, LVM_INSERTCOLUMN, nCol, (LPARAM)pColumn); }

  00da9	50		 push	 eax
  00daa	8b 45 dc	 mov	 eax, DWORD PTR _this$1$[ebp]
; File D:\git\src\IBK\IBK_DRFN\ProjSrc\SrcChartEx\ChartAddIn\ChartDataListViewerAddIn\ChartDataListViewerAddIn\DlgDataListViewer.cpp

; 555  : 				lc.cx			= (lc.cx < szTitle.cx) ? szTitle.cx : lc.cx;

  00dad	0f 4c 8d 50 ff
	ff ff		 cmovl	 ecx, DWORD PTR _size$3[ebp]
; File C:\Program Files (x86)\Microsoft Visual Studio\2019\Community\VC\Tools\MSVC\14.29.30133\atlmfc\include\afxcmn.inl

; 209  : 	{ ASSERT(::IsWindow(m_hWnd)); return (int) ::SendMessage(m_hWnd, LVM_INSERTCOLUMN, nCol, (LPARAM)pColumn); }

  00db4	56		 push	 esi
  00db5	68 1b 10 00 00	 push	 4123			; 0000101bH
  00dba	ff b0 d8 02 00
	00		 push	 DWORD PTR [eax+728]
; File D:\git\src\IBK\IBK_DRFN\ProjSrc\SrcChartEx\ChartAddIn\ChartDataListViewerAddIn\ChartDataListViewerAddIn\DlgDataListViewer.cpp

; 555  : 				lc.cx			= (lc.cx < szTitle.cx) ? szTitle.cx : lc.cx;

  00dc0	89 4d 98	 mov	 DWORD PTR _lc$[ebp+8], ecx
; File C:\Program Files (x86)\Microsoft Visual Studio\2019\Community\VC\Tools\MSVC\14.29.30133\atlmfc\include\afxcmn.inl

; 209  : 	{ ASSERT(::IsWindow(m_hWnd)); return (int) ::SendMessage(m_hWnd, LVM_INSERTCOLUMN, nCol, (LPARAM)pColumn); }

  00dc3	ff 15 00 00 00
	00		 call	 DWORD PTR __imp__SendMessageA@16
; File D:\git\src\IBK\IBK_DRFN\ProjSrc\SrcChartEx\ChartAddIn\ChartDataListViewerAddIn\ChartDataListViewerAddIn\DlgDataListViewer.cpp

; 559  : 			}

  00dc9	8d 4d c4	 lea	 ecx, DWORD PTR _strTitle$18[ebp]
  00dcc	ff 15 00 00 00
	00		 call	 DWORD PTR __imp_??1?$CStringT@DV?$StrTraitMFC_DLL@DV?$ChTraitsCRT@D@ATL@@@@@ATL@@QAE@XZ
$LN416@Make_ListH:

; 522  : 		else
; 523  : 		{
; 524  : 			for(int p = 0 ; p < nOneRecordCount ; p++)

  00dd2	8d 4d 0c	 lea	 ecx, DWORD PTR _strName$48[ebp]
  00dd5	c6 45 fc 26	 mov	 BYTE PTR __$EHRec$[ebp+8], 38 ; 00000026H
  00dd9	ff 15 00 00 00
	00		 call	 DWORD PTR __imp_??1?$CStringT@DV?$StrTraitMFC_DLL@DV?$ChTraitsCRT@D@ATL@@@@@ATL@@QAE@XZ
  00ddf	83 ef 01	 sub	 edi, 1
  00de2	89 7d cc	 mov	 DWORD PTR _nOneRecordCount$1$[ebp], edi
  00de5	0f 85 75 fc ff
	ff		 jne	 $LL9@Make_ListH
$LN8@Make_ListH:

; 560  : 		}
; 561  : 	}

  00deb	8d 4d e0	 lea	 ecx, DWORD PTR _strUIText$27[ebp]
  00dee	ff 15 00 00 00
	00		 call	 DWORD PTR __imp_??1?$CStringT@DV?$StrTraitMFC_DLL@DV?$ChTraitsCRT@D@ATL@@@@@ATL@@QAE@XZ
  00df4	8d 4d 08	 lea	 ecx, DWORD PTR _strP$46[ebp]
  00df7	ff 15 00 00 00
	00		 call	 DWORD PTR __imp_??1?$CStringT@DV?$StrTraitMFC_DLL@DV?$ChTraitsCRT@D@ATL@@@@@ATL@@QAE@XZ
  00dfd	8d 4d e8	 lea	 ecx, DWORD PTR _maintitle$31[ebp]
  00e00	c6 45 fc 06	 mov	 BYTE PTR __$EHRec$[ebp+8], 6
  00e04	ff 15 00 00 00
	00		 call	 DWORD PTR __imp_??1?$CStringT@DV?$StrTraitMFC_DLL@DV?$ChTraitsCRT@D@ATL@@@@@ATL@@QAE@XZ
  00e0a	83 6d d8 01	 sub	 DWORD PTR $T22[ebp], 1
  00e0e	0f 85 4c fa ff
	ff		 jne	 $LL6@Make_ListH
$LN5@Make_ListH:
; File C:\Program Files (x86)\Microsoft Visual Studio\2019\Community\VC\Tools\MSVC\14.29.30133\atlmfc\include\afxwin2.inl

; 104  : 	{ ASSERT(::IsWindow(m_hWnd)); return ::ReleaseDC(m_hWnd, pDC->m_hDC); }

  00e14	8b 45 c8	 mov	 eax, DWORD PTR _pDC$1$[ebp]
  00e17	ff 70 04	 push	 DWORD PTR [eax+4]
  00e1a	8b 45 dc	 mov	 eax, DWORD PTR _this$1$[ebp]
  00e1d	ff 70 20	 push	 DWORD PTR [eax+32]
  00e20	ff 15 00 00 00
	00		 call	 DWORD PTR __imp__ReleaseDC@8
; File D:\git\src\IBK\IBK_DRFN\ProjSrc\SrcChartEx\ChartAddIn\ChartDataListViewerAddIn\ChartDataListViewerAddIn\DlgDataListViewer.cpp

; 566  : }

  00e26	8d 8d 70 ff ff
	ff		 lea	 ecx, DWORD PTR _strRQ$[ebp]
  00e2c	ff 15 00 00 00
	00		 call	 DWORD PTR __imp_??1?$CStringT@DV?$StrTraitMFC_DLL@DV?$ChTraitsCRT@D@ATL@@@@@ATL@@QAE@XZ
  00e32	8d 8d 6c ff ff
	ff		 lea	 ecx, DWORD PTR _strRQs$[ebp]
  00e38	ff 15 00 00 00
	00		 call	 DWORD PTR __imp_??1?$CStringT@DV?$StrTraitMFC_DLL@DV?$ChTraitsCRT@D@ATL@@@@@ATL@@QAE@XZ
  00e3e	8d 8d 68 ff ff
	ff		 lea	 ecx, DWORD PTR _szT$[ebp]
  00e44	ff 15 00 00 00
	00		 call	 DWORD PTR __imp_??1?$CStringT@DV?$StrTraitMFC_DLL@DV?$ChTraitsCRT@D@ATL@@@@@ATL@@QAE@XZ
  00e4a	8d 8d 64 ff ff
	ff		 lea	 ecx, DWORD PTR _szTitles$[ebp]
  00e50	ff 15 00 00 00
	00		 call	 DWORD PTR __imp_??1?$CStringT@DV?$StrTraitMFC_DLL@DV?$ChTraitsCRT@D@ATL@@@@@ATL@@QAE@XZ
$LN1@Make_ListH:
  00e56	8b 4d f4	 mov	 ecx, DWORD PTR __$EHRec$[ebp]
  00e59	64 89 0d 00 00
	00 00		 mov	 DWORD PTR fs:0, ecx
  00e60	59		 pop	 ecx
  00e61	5f		 pop	 edi
  00e62	5e		 pop	 esi
  00e63	5b		 pop	 ebx
  00e64	8b e5		 mov	 esp, ebp
  00e66	5d		 pop	 ebp
  00e67	c2 08 00	 ret	 8
  00e6a	66 90		 npad	 2
$LN422@Make_ListH:
  00e6c	00 00 00 00	 DD	 $LN42@Make_ListH
  00e70	00 00 00 00	 DD	 $LN44@Make_ListH
  00e74	00 00 00 00	 DD	 $LN45@Make_ListH
  00e78	00 00 00 00	 DD	 $LN47@Make_ListH
  00e7c	00 00 00 00	 DD	 $LN2@Make_ListH
$LN421@Make_ListH:
  00e80	00		 DB	 0
  00e81	00		 DB	 0
  00e82	01		 DB	 1
  00e83	02		 DB	 2
  00e84	03		 DB	 3
  00e85	02		 DB	 2
  00e86	04		 DB	 4
  00e87	04		 DB	 4
  00e88	04		 DB	 4
  00e89	04		 DB	 4
  00e8a	04		 DB	 4
  00e8b	03		 DB	 3
_TEXT	ENDS
;	COMDAT text$x
text$x	SEGMENT
__unwindfunclet$?Make_ListHeader@CDlgDataListViewer@@QAEXABV?$CStringT@DV?$StrTraitMFC_DLL@DV?$ChTraitsCRT@D@ATL@@@@@ATL@@0@Z$0:
  00000	8d 8d 64 ff ff
	ff		 lea	 ecx, DWORD PTR _szTitles$[ebp]
  00006	ff 25 00 00 00
	00		 jmp	 DWORD PTR __imp_??1?$CStringT@DV?$StrTraitMFC_DLL@DV?$ChTraitsCRT@D@ATL@@@@@ATL@@QAE@XZ
__unwindfunclet$?Make_ListHeader@CDlgDataListViewer@@QAEXABV?$CStringT@DV?$StrTraitMFC_DLL@DV?$ChTraitsCRT@D@ATL@@@@@ATL@@0@Z$1:
  0000c	8d 8d 68 ff ff
	ff		 lea	 ecx, DWORD PTR _szT$[ebp]
  00012	ff 25 00 00 00
	00		 jmp	 DWORD PTR __imp_??1?$CStringT@DV?$StrTraitMFC_DLL@DV?$ChTraitsCRT@D@ATL@@@@@ATL@@QAE@XZ
__unwindfunclet$?Make_ListHeader@CDlgDataListViewer@@QAEXABV?$CStringT@DV?$StrTraitMFC_DLL@DV?$ChTraitsCRT@D@ATL@@@@@ATL@@0@Z$2:
  00018	8d 4d 0c	 lea	 ecx, DWORD PTR $T51[ebp]
  0001b	ff 25 00 00 00
	00		 jmp	 DWORD PTR __imp_??1?$CStringT@DV?$StrTraitMFC_DLL@DV?$ChTraitsCRT@D@ATL@@@@@ATL@@QAE@XZ
__unwindfunclet$?Make_ListHeader@CDlgDataListViewer@@QAEXABV?$CStringT@DV?$StrTraitMFC_DLL@DV?$ChTraitsCRT@D@ATL@@@@@ATL@@0@Z$3:
  00021	8d 8d 6c ff ff
	ff		 lea	 ecx, DWORD PTR _strRQs$[ebp]
  00027	ff 25 00 00 00
	00		 jmp	 DWORD PTR __imp_??1?$CStringT@DV?$StrTraitMFC_DLL@DV?$ChTraitsCRT@D@ATL@@@@@ATL@@QAE@XZ
__unwindfunclet$?Make_ListHeader@CDlgDataListViewer@@QAEXABV?$CStringT@DV?$StrTraitMFC_DLL@DV?$ChTraitsCRT@D@ATL@@@@@ATL@@0@Z$4:
  0002d	8d 4d 8c	 lea	 ecx, DWORD PTR $T13[ebp]
  00030	ff 25 00 00 00
	00		 jmp	 DWORD PTR __imp_??1?$CStringT@DV?$StrTraitMFC_DLL@DV?$ChTraitsCRT@D@ATL@@@@@ATL@@QAE@XZ
__unwindfunclet$?Make_ListHeader@CDlgDataListViewer@@QAEXABV?$CStringT@DV?$StrTraitMFC_DLL@DV?$ChTraitsCRT@D@ATL@@@@@ATL@@0@Z$5:
  00036	8d 8d 70 ff ff
	ff		 lea	 ecx, DWORD PTR _strRQ$[ebp]
  0003c	ff 25 00 00 00
	00		 jmp	 DWORD PTR __imp_??1?$CStringT@DV?$StrTraitMFC_DLL@DV?$ChTraitsCRT@D@ATL@@@@@ATL@@QAE@XZ
__unwindfunclet$?Make_ListHeader@CDlgDataListViewer@@QAEXABV?$CStringT@DV?$StrTraitMFC_DLL@DV?$ChTraitsCRT@D@ATL@@@@@ATL@@0@Z$6:
  00042	8d 8d 5c ff ff
	ff		 lea	 ecx, DWORD PTR _szPacketName$6[ebp]
  00048	e9 00 00 00 00	 jmp	 ??1ILPCSTR134221@@QAE@XZ ; ILPCSTR134221::~ILPCSTR134221
__unwindfunclet$?Make_ListHeader@CDlgDataListViewer@@QAEXABV?$CStringT@DV?$StrTraitMFC_DLL@DV?$ChTraitsCRT@D@ATL@@@@@ATL@@0@Z$7:
  0004d	8d 4d e8	 lea	 ecx, DWORD PTR _strPacketName$32[ebp]
  00050	ff 25 00 00 00
	00		 jmp	 DWORD PTR __imp_??1?$CStringT@DV?$StrTraitMFC_DLL@DV?$ChTraitsCRT@D@ATL@@@@@ATL@@QAE@XZ
__unwindfunclet$?Make_ListHeader@CDlgDataListViewer@@QAEXABV?$CStringT@DV?$StrTraitMFC_DLL@DV?$ChTraitsCRT@D@ATL@@@@@ATL@@0@Z$8:
  00056	8d 4d bc	 lea	 ecx, DWORD PTR _szPacketType$16[ebp]
  00059	e9 00 00 00 00	 jmp	 ??1ILPCSTR134221@@QAE@XZ ; ILPCSTR134221::~ILPCSTR134221
__unwindfunclet$?Make_ListHeader@CDlgDataListViewer@@QAEXABV?$CStringT@DV?$StrTraitMFC_DLL@DV?$ChTraitsCRT@D@ATL@@@@@ATL@@0@Z$9:
  0005e	8d 4d e0	 lea	 ecx, DWORD PTR _strType$28[ebp]
  00061	ff 25 00 00 00
	00		 jmp	 DWORD PTR __imp_??1?$CStringT@DV?$StrTraitMFC_DLL@DV?$ChTraitsCRT@D@ATL@@@@@ATL@@QAE@XZ
__unwindfunclet$?Make_ListHeader@CDlgDataListViewer@@QAEXABV?$CStringT@DV?$StrTraitMFC_DLL@DV?$ChTraitsCRT@D@ATL@@@@@ATL@@0@Z$10:
  00067	8d 4d 08	 lea	 ecx, DWORD PTR _strTime$47[ebp]
  0006a	ff 25 00 00 00
	00		 jmp	 DWORD PTR __imp_??1?$CStringT@DV?$StrTraitMFC_DLL@DV?$ChTraitsCRT@D@ATL@@@@@ATL@@QAE@XZ
__unwindfunclet$?Make_ListHeader@CDlgDataListViewer@@QAEXABV?$CStringT@DV?$StrTraitMFC_DLL@DV?$ChTraitsCRT@D@ATL@@@@@ATL@@0@Z$11:
  00070	8d 4d 0c	 lea	 ecx, DWORD PTR _strDate$50[ebp]
  00073	ff 25 00 00 00
	00		 jmp	 DWORD PTR __imp_??1?$CStringT@DV?$StrTraitMFC_DLL@DV?$ChTraitsCRT@D@ATL@@@@@ATL@@QAE@XZ
__unwindfunclet$?Make_ListHeader@CDlgDataListViewer@@QAEXABV?$CStringT@DV?$StrTraitMFC_DLL@DV?$ChTraitsCRT@D@ATL@@@@@ATL@@0@Z$47:
  00079	8b 45 e4	 mov	 eax, DWORD PTR $T29[ebp]
  0007c	83 e0 01	 and	 eax, 1
  0007f	0f 84 0d 00 00
	00		 je	 $LN134@Make_ListH
  00085	83 65 e4 fe	 and	 DWORD PTR $T29[ebp], -2	; fffffffeH
  00089	8d 4d f0	 lea	 ecx, DWORD PTR $T45[ebp]
  0008c	ff 25 00 00 00
	00		 jmp	 DWORD PTR __imp_??1?$CStringT@DV?$StrTraitMFC_DLL@DV?$ChTraitsCRT@D@ATL@@@@@ATL@@QAE@XZ
$LN134@Make_ListH:
  00092	c3		 ret	 0
__unwindfunclet$?Make_ListHeader@CDlgDataListViewer@@QAEXABV?$CStringT@DV?$StrTraitMFC_DLL@DV?$ChTraitsCRT@D@ATL@@@@@ATL@@0@Z$13:
  00093	8d 4d ec	 lea	 ecx, DWORD PTR _strThreeLineBreak$37[ebp]
  00096	ff 25 00 00 00
	00		 jmp	 DWORD PTR __imp_??1?$CStringT@DV?$StrTraitMFC_DLL@DV?$ChTraitsCRT@D@ATL@@@@@ATL@@QAE@XZ
__unwindfunclet$?Make_ListHeader@CDlgDataListViewer@@QAEXABV?$CStringT@DV?$StrTraitMFC_DLL@DV?$ChTraitsCRT@D@ATL@@@@@ATL@@0@Z$48:
  0009c	8b 45 e4	 mov	 eax, DWORD PTR $T29[ebp]
  0009f	83 e0 02	 and	 eax, 2
  000a2	0f 84 0d 00 00
	00		 je	 $LN149@Make_ListH
  000a8	83 65 e4 fd	 and	 DWORD PTR $T29[ebp], -3	; fffffffdH
  000ac	8d 4d f0	 lea	 ecx, DWORD PTR $T44[ebp]
  000af	ff 25 00 00 00
	00		 jmp	 DWORD PTR __imp_??1?$CStringT@DV?$StrTraitMFC_DLL@DV?$ChTraitsCRT@D@ATL@@@@@ATL@@QAE@XZ
$LN149@Make_ListH:
  000b5	c3		 ret	 0
__unwindfunclet$?Make_ListHeader@CDlgDataListViewer@@QAEXABV?$CStringT@DV?$StrTraitMFC_DLL@DV?$ChTraitsCRT@D@ATL@@@@@ATL@@0@Z$15:
  000b6	8d 4d d8	 lea	 ecx, DWORD PTR $T26[ebp]
  000b9	ff 25 00 00 00
	00		 jmp	 DWORD PTR __imp_??1?$CStringT@DV?$StrTraitMFC_DLL@DV?$ChTraitsCRT@D@ATL@@@@@ATL@@QAE@XZ
__unwindfunclet$?Make_ListHeader@CDlgDataListViewer@@QAEXABV?$CStringT@DV?$StrTraitMFC_DLL@DV?$ChTraitsCRT@D@ATL@@@@@ATL@@0@Z$49:
  000bf	8b 45 e4	 mov	 eax, DWORD PTR $T29[ebp]
  000c2	83 e0 04	 and	 eax, 4
  000c5	0f 84 0d 00 00
	00		 je	 $LN166@Make_ListH
  000cb	83 65 e4 fb	 and	 DWORD PTR $T29[ebp], -5	; fffffffbH
  000cf	8d 4d f0	 lea	 ecx, DWORD PTR $T43[ebp]
  000d2	ff 25 00 00 00
	00		 jmp	 DWORD PTR __imp_??1?$CStringT@DV?$StrTraitMFC_DLL@DV?$ChTraitsCRT@D@ATL@@@@@ATL@@QAE@XZ
$LN166@Make_ListH:
  000d8	c3		 ret	 0
__unwindfunclet$?Make_ListHeader@CDlgDataListViewer@@QAEXABV?$CStringT@DV?$StrTraitMFC_DLL@DV?$ChTraitsCRT@D@ATL@@@@@ATL@@0@Z$17:
  000d9	8d 4d ec	 lea	 ecx, DWORD PTR _strThreeLineBreak$36[ebp]
  000dc	ff 25 00 00 00
	00		 jmp	 DWORD PTR __imp_??1?$CStringT@DV?$StrTraitMFC_DLL@DV?$ChTraitsCRT@D@ATL@@@@@ATL@@QAE@XZ
__unwindfunclet$?Make_ListHeader@CDlgDataListViewer@@QAEXABV?$CStringT@DV?$StrTraitMFC_DLL@DV?$ChTraitsCRT@D@ATL@@@@@ATL@@0@Z$50:
  000e2	8b 45 e4	 mov	 eax, DWORD PTR $T29[ebp]
  000e5	83 e0 08	 and	 eax, 8
  000e8	0f 84 0d 00 00
	00		 je	 $LN181@Make_ListH
  000ee	83 65 e4 f7	 and	 DWORD PTR $T29[ebp], -9	; fffffff7H
  000f2	8d 4d f0	 lea	 ecx, DWORD PTR $T42[ebp]
  000f5	ff 25 00 00 00
	00		 jmp	 DWORD PTR __imp_??1?$CStringT@DV?$StrTraitMFC_DLL@DV?$ChTraitsCRT@D@ATL@@@@@ATL@@QAE@XZ
$LN181@Make_ListH:
  000fb	c3		 ret	 0
__unwindfunclet$?Make_ListHeader@CDlgDataListViewer@@QAEXABV?$CStringT@DV?$StrTraitMFC_DLL@DV?$ChTraitsCRT@D@ATL@@@@@ATL@@0@Z$19:
  000fc	8d 4d d8	 lea	 ecx, DWORD PTR $T25[ebp]
  000ff	ff 25 00 00 00
	00		 jmp	 DWORD PTR __imp_??1?$CStringT@DV?$StrTraitMFC_DLL@DV?$ChTraitsCRT@D@ATL@@@@@ATL@@QAE@XZ
__unwindfunclet$?Make_ListHeader@CDlgDataListViewer@@QAEXABV?$CStringT@DV?$StrTraitMFC_DLL@DV?$ChTraitsCRT@D@ATL@@@@@ATL@@0@Z$51:
  00105	8b 45 e4	 mov	 eax, DWORD PTR $T29[ebp]
  00108	83 e0 10	 and	 eax, 16			; 00000010H
  0010b	0f 84 0d 00 00
	00		 je	 $LN198@Make_ListH
  00111	83 65 e4 ef	 and	 DWORD PTR $T29[ebp], -17 ; ffffffefH
  00115	8d 4d f0	 lea	 ecx, DWORD PTR $T41[ebp]
  00118	ff 25 00 00 00
	00		 jmp	 DWORD PTR __imp_??1?$CStringT@DV?$StrTraitMFC_DLL@DV?$ChTraitsCRT@D@ATL@@@@@ATL@@QAE@XZ
$LN198@Make_ListH:
  0011e	c3		 ret	 0
__unwindfunclet$?Make_ListHeader@CDlgDataListViewer@@QAEXABV?$CStringT@DV?$StrTraitMFC_DLL@DV?$ChTraitsCRT@D@ATL@@@@@ATL@@0@Z$21:
  0011f	8d 4d ec	 lea	 ecx, DWORD PTR _strThreeLineBreak$35[ebp]
  00122	ff 25 00 00 00
	00		 jmp	 DWORD PTR __imp_??1?$CStringT@DV?$StrTraitMFC_DLL@DV?$ChTraitsCRT@D@ATL@@@@@ATL@@QAE@XZ
__unwindfunclet$?Make_ListHeader@CDlgDataListViewer@@QAEXABV?$CStringT@DV?$StrTraitMFC_DLL@DV?$ChTraitsCRT@D@ATL@@@@@ATL@@0@Z$52:
  00128	8b 45 e4	 mov	 eax, DWORD PTR $T29[ebp]
  0012b	83 e0 20	 and	 eax, 32			; 00000020H
  0012e	0f 84 0d 00 00
	00		 je	 $LN213@Make_ListH
  00134	83 65 e4 df	 and	 DWORD PTR $T29[ebp], -33 ; ffffffdfH
  00138	8d 4d f0	 lea	 ecx, DWORD PTR $T40[ebp]
  0013b	ff 25 00 00 00
	00		 jmp	 DWORD PTR __imp_??1?$CStringT@DV?$StrTraitMFC_DLL@DV?$ChTraitsCRT@D@ATL@@@@@ATL@@QAE@XZ
$LN213@Make_ListH:
  00141	c3		 ret	 0
__unwindfunclet$?Make_ListHeader@CDlgDataListViewer@@QAEXABV?$CStringT@DV?$StrTraitMFC_DLL@DV?$ChTraitsCRT@D@ATL@@@@@ATL@@0@Z$23:
  00142	8d 4d d8	 lea	 ecx, DWORD PTR $T24[ebp]
  00145	ff 25 00 00 00
	00		 jmp	 DWORD PTR __imp_??1?$CStringT@DV?$StrTraitMFC_DLL@DV?$ChTraitsCRT@D@ATL@@@@@ATL@@QAE@XZ
__unwindfunclet$?Make_ListHeader@CDlgDataListViewer@@QAEXABV?$CStringT@DV?$StrTraitMFC_DLL@DV?$ChTraitsCRT@D@ATL@@@@@ATL@@0@Z$53:
  0014b	8b 45 e4	 mov	 eax, DWORD PTR $T29[ebp]
  0014e	83 e0 40	 and	 eax, 64			; 00000040H
  00151	0f 84 0d 00 00
	00		 je	 $LN230@Make_ListH
  00157	83 65 e4 bf	 and	 DWORD PTR $T29[ebp], -65 ; ffffffbfH
  0015b	8d 4d f0	 lea	 ecx, DWORD PTR $T39[ebp]
  0015e	ff 25 00 00 00
	00		 jmp	 DWORD PTR __imp_??1?$CStringT@DV?$StrTraitMFC_DLL@DV?$ChTraitsCRT@D@ATL@@@@@ATL@@QAE@XZ
$LN230@Make_ListH:
  00164	c3		 ret	 0
__unwindfunclet$?Make_ListHeader@CDlgDataListViewer@@QAEXABV?$CStringT@DV?$StrTraitMFC_DLL@DV?$ChTraitsCRT@D@ATL@@@@@ATL@@0@Z$25:
  00165	8d 4d ec	 lea	 ecx, DWORD PTR _strThreeLineBreak$34[ebp]
  00168	ff 25 00 00 00
	00		 jmp	 DWORD PTR __imp_??1?$CStringT@DV?$StrTraitMFC_DLL@DV?$ChTraitsCRT@D@ATL@@@@@ATL@@QAE@XZ
__unwindfunclet$?Make_ListHeader@CDlgDataListViewer@@QAEXABV?$CStringT@DV?$StrTraitMFC_DLL@DV?$ChTraitsCRT@D@ATL@@@@@ATL@@0@Z$54:
  0016e	8b 45 e4	 mov	 eax, DWORD PTR $T29[ebp]
  00171	25 80 00 00 00	 and	 eax, 128		; 00000080H
  00176	0f 84 10 00 00
	00		 je	 $LN245@Make_ListH
  0017c	81 65 e4 7f ff
	ff ff		 and	 DWORD PTR $T29[ebp], -129 ; ffffff7fH
  00183	8d 4d f0	 lea	 ecx, DWORD PTR $T38[ebp]
  00186	ff 25 00 00 00
	00		 jmp	 DWORD PTR __imp_??1?$CStringT@DV?$StrTraitMFC_DLL@DV?$ChTraitsCRT@D@ATL@@@@@ATL@@QAE@XZ
$LN245@Make_ListH:
  0018c	c3		 ret	 0
__unwindfunclet$?Make_ListHeader@CDlgDataListViewer@@QAEXABV?$CStringT@DV?$StrTraitMFC_DLL@DV?$ChTraitsCRT@D@ATL@@@@@ATL@@0@Z$27:
  0018d	8d 4d d8	 lea	 ecx, DWORD PTR $T23[ebp]
  00190	ff 25 00 00 00
	00		 jmp	 DWORD PTR __imp_??1?$CStringT@DV?$StrTraitMFC_DLL@DV?$ChTraitsCRT@D@ATL@@@@@ATL@@QAE@XZ
__unwindfunclet$?Make_ListHeader@CDlgDataListViewer@@QAEXABV?$CStringT@DV?$StrTraitMFC_DLL@DV?$ChTraitsCRT@D@ATL@@@@@ATL@@0@Z$28:
  00196	8d 4d e4	 lea	 ecx, DWORD PTR _strFormat$30[ebp]
  00199	ff 25 00 00 00
	00		 jmp	 DWORD PTR __imp_??1?$CStringT@DV?$StrTraitMFC_DLL@DV?$ChTraitsCRT@D@ATL@@@@@ATL@@QAE@XZ
__unwindfunclet$?Make_ListHeader@CDlgDataListViewer@@QAEXABV?$CStringT@DV?$StrTraitMFC_DLL@DV?$ChTraitsCRT@D@ATL@@@@@ATL@@0@Z$31:
  0019f	8d 4d 88	 lea	 ecx, DWORD PTR $T12[ebp]
  001a2	ff 25 00 00 00
	00		 jmp	 DWORD PTR __imp_??1?$CStringT@DV?$StrTraitMFC_DLL@DV?$ChTraitsCRT@D@ATL@@@@@ATL@@QAE@XZ
__unwindfunclet$?Make_ListHeader@CDlgDataListViewer@@QAEXABV?$CStringT@DV?$StrTraitMFC_DLL@DV?$ChTraitsCRT@D@ATL@@@@@ATL@@0@Z$32:
  001a8	8d 4d e8	 lea	 ecx, DWORD PTR _maintitle$31[ebp]
  001ab	ff 25 00 00 00
	00		 jmp	 DWORD PTR __imp_??1?$CStringT@DV?$StrTraitMFC_DLL@DV?$ChTraitsCRT@D@ATL@@@@@ATL@@QAE@XZ
__unwindfunclet$?Make_ListHeader@CDlgDataListViewer@@QAEXABV?$CStringT@DV?$StrTraitMFC_DLL@DV?$ChTraitsCRT@D@ATL@@@@@ATL@@0@Z$33:
  001b1	8d 4d 84	 lea	 ecx, DWORD PTR $T11[ebp]
  001b4	ff 25 00 00 00
	00		 jmp	 DWORD PTR __imp_??1?$CStringT@DV?$StrTraitMFC_DLL@DV?$ChTraitsCRT@D@ATL@@@@@ATL@@QAE@XZ
__unwindfunclet$?Make_ListHeader@CDlgDataListViewer@@QAEXABV?$CStringT@DV?$StrTraitMFC_DLL@DV?$ChTraitsCRT@D@ATL@@@@@ATL@@0@Z$34:
  001ba	8d 4d 08	 lea	 ecx, DWORD PTR _strP$46[ebp]
  001bd	ff 25 00 00 00
	00		 jmp	 DWORD PTR __imp_??1?$CStringT@DV?$StrTraitMFC_DLL@DV?$ChTraitsCRT@D@ATL@@@@@ATL@@QAE@XZ
__unwindfunclet$?Make_ListHeader@CDlgDataListViewer@@QAEXABV?$CStringT@DV?$StrTraitMFC_DLL@DV?$ChTraitsCRT@D@ATL@@@@@ATL@@0@Z$35:
  001c3	8d 4d e0	 lea	 ecx, DWORD PTR _strUIText$27[ebp]
  001c6	ff 25 00 00 00
	00		 jmp	 DWORD PTR __imp_??1?$CStringT@DV?$StrTraitMFC_DLL@DV?$ChTraitsCRT@D@ATL@@@@@ATL@@QAE@XZ
__unwindfunclet$?Make_ListHeader@CDlgDataListViewer@@QAEXABV?$CStringT@DV?$StrTraitMFC_DLL@DV?$ChTraitsCRT@D@ATL@@@@@ATL@@0@Z$36:
  001cc	8d 4d 80	 lea	 ecx, DWORD PTR $T10[ebp]
  001cf	ff 25 00 00 00
	00		 jmp	 DWORD PTR __imp_??1?$CStringT@DV?$StrTraitMFC_DLL@DV?$ChTraitsCRT@D@ATL@@@@@ATL@@QAE@XZ
__unwindfunclet$?Make_ListHeader@CDlgDataListViewer@@QAEXABV?$CStringT@DV?$StrTraitMFC_DLL@DV?$ChTraitsCRT@D@ATL@@@@@ATL@@0@Z$38:
  001d5	8d 8d 78 ff ff
	ff		 lea	 ecx, DWORD PTR $T8[ebp]
  001db	ff 25 00 00 00
	00		 jmp	 DWORD PTR __imp_??1?$CStringT@DV?$StrTraitMFC_DLL@DV?$ChTraitsCRT@D@ATL@@@@@ATL@@QAE@XZ
__unwindfunclet$?Make_ListHeader@CDlgDataListViewer@@QAEXABV?$CStringT@DV?$StrTraitMFC_DLL@DV?$ChTraitsCRT@D@ATL@@@@@ATL@@0@Z$39:
  001e1	8d 4d 0c	 lea	 ecx, DWORD PTR _strName$48[ebp]
  001e4	ff 25 00 00 00
	00		 jmp	 DWORD PTR __imp_??1?$CStringT@DV?$StrTraitMFC_DLL@DV?$ChTraitsCRT@D@ATL@@@@@ATL@@QAE@XZ
__unwindfunclet$?Make_ListHeader@CDlgDataListViewer@@QAEXABV?$CStringT@DV?$StrTraitMFC_DLL@DV?$ChTraitsCRT@D@ATL@@@@@ATL@@0@Z$40:
  001ea	8d 8d 58 ff ff
	ff		 lea	 ecx, DWORD PTR $T5[ebp]
  001f0	ff 25 00 00 00
	00		 jmp	 DWORD PTR __imp_??1?$CStringT@DV?$StrTraitMFC_DLL@DV?$ChTraitsCRT@D@ATL@@@@@ATL@@QAE@XZ
__unwindfunclet$?Make_ListHeader@CDlgDataListViewer@@QAEXABV?$CStringT@DV?$StrTraitMFC_DLL@DV?$ChTraitsCRT@D@ATL@@@@@ATL@@0@Z$57:
  001f6	8b 45 e4	 mov	 eax, DWORD PTR $T29[ebp]
  001f9	25 00 01 00 00	 and	 eax, 256		; 00000100H
  001fe	0f 84 10 00 00
	00		 je	 $LN350@Make_ListH
  00204	81 65 e4 ff fe
	ff ff		 and	 DWORD PTR $T29[ebp], -257 ; fffffeffH
  0020b	8d 4d d4	 lea	 ecx, DWORD PTR $T21[ebp]
  0020e	ff 25 00 00 00
	00		 jmp	 DWORD PTR __imp_??1?$CStringT@DV?$StrTraitMFC_DLL@DV?$ChTraitsCRT@D@ATL@@@@@ATL@@QAE@XZ
$LN350@Make_ListH:
  00214	c3		 ret	 0
__unwindfunclet$?Make_ListHeader@CDlgDataListViewer@@QAEXABV?$CStringT@DV?$StrTraitMFC_DLL@DV?$ChTraitsCRT@D@ATL@@@@@ATL@@0@Z$42:
  00215	8d 8d 60 ff ff
	ff		 lea	 ecx, DWORD PTR $T7[ebp]
  0021b	ff 25 00 00 00
	00		 jmp	 DWORD PTR __imp_??1?$CStringT@DV?$StrTraitMFC_DLL@DV?$ChTraitsCRT@D@ATL@@@@@ATL@@QAE@XZ
__unwindfunclet$?Make_ListHeader@CDlgDataListViewer@@QAEXABV?$CStringT@DV?$StrTraitMFC_DLL@DV?$ChTraitsCRT@D@ATL@@@@@ATL@@0@Z$43:
  00221	8d 4d c0	 lea	 ecx, DWORD PTR $T17[ebp]
  00224	ff 25 00 00 00
	00		 jmp	 DWORD PTR __imp_??1?$CStringT@DV?$StrTraitMFC_DLL@DV?$ChTraitsCRT@D@ATL@@@@@ATL@@QAE@XZ
__unwindfunclet$?Make_ListHeader@CDlgDataListViewer@@QAEXABV?$CStringT@DV?$StrTraitMFC_DLL@DV?$ChTraitsCRT@D@ATL@@@@@ATL@@0@Z$58:
  0022a	8b 45 e4	 mov	 eax, DWORD PTR $T29[ebp]
  0022d	25 00 02 00 00	 and	 eax, 512		; 00000200H
  00232	0f 84 10 00 00
	00		 je	 $LN365@Make_ListH
  00238	81 65 e4 ff fd
	ff ff		 and	 DWORD PTR $T29[ebp], -513 ; fffffdffH
  0023f	8d 4d ec	 lea	 ecx, DWORD PTR $T33[ebp]
  00242	ff 25 00 00 00
	00		 jmp	 DWORD PTR __imp_??1?$CStringT@DV?$StrTraitMFC_DLL@DV?$ChTraitsCRT@D@ATL@@@@@ATL@@QAE@XZ
$LN365@Make_ListH:
  00248	c3		 ret	 0
__unwindfunclet$?Make_ListHeader@CDlgDataListViewer@@QAEXABV?$CStringT@DV?$StrTraitMFC_DLL@DV?$ChTraitsCRT@D@ATL@@@@@ATL@@0@Z$59:
  00249	8b 45 e4	 mov	 eax, DWORD PTR $T29[ebp]
  0024c	25 00 04 00 00	 and	 eax, 1024		; 00000400H
  00251	0f 84 10 00 00
	00		 je	 $LN380@Make_ListH
  00257	81 65 e4 ff fb
	ff ff		 and	 DWORD PTR $T29[ebp], -1025 ; fffffbffH
  0025e	8d 4d d0	 lea	 ecx, DWORD PTR $T19[ebp]
  00261	ff 25 00 00 00
	00		 jmp	 DWORD PTR __imp_??1?$CStringT@DV?$StrTraitMFC_DLL@DV?$ChTraitsCRT@D@ATL@@@@@ATL@@QAE@XZ
$LN380@Make_ListH:
  00267	c3		 ret	 0
  00268	cc		 int	 3
  00269	cc		 int	 3
  0026a	cc		 int	 3
  0026b	cc		 int	 3
  0026c	cc		 int	 3
__ehhandler$?Make_ListHeader@CDlgDataListViewer@@QAEXABV?$CStringT@DV?$StrTraitMFC_DLL@DV?$ChTraitsCRT@D@ATL@@@@@ATL@@0@Z:
  0026d	90		 npad	 1
  0026e	90		 npad	 1
  0026f	8b 54 24 08	 mov	 edx, DWORD PTR [esp+8]
  00273	8d 42 0c	 lea	 eax, DWORD PTR [edx+12]
  00276	8b 8a 44 ff ff
	ff		 mov	 ecx, DWORD PTR [edx-188]
  0027c	33 c8		 xor	 ecx, eax
  0027e	e8 00 00 00 00	 call	 @__security_check_cookie@4
  00283	b8 00 00 00 00	 mov	 eax, OFFSET __ehfuncinfo$?Make_ListHeader@CDlgDataListViewer@@QAEXABV?$CStringT@DV?$StrTraitMFC_DLL@DV?$ChTraitsCRT@D@ATL@@@@@ATL@@0@Z
  00288	e9 00 00 00 00	 jmp	 ___CxxFrameHandler3
text$x	ENDS
?Make_ListHeader@CDlgDataListViewer@@QAEXABV?$CStringT@DV?$StrTraitMFC_DLL@DV?$ChTraitsCRT@D@ATL@@@@@ATL@@0@Z ENDP ; CDlgDataListViewer::Make_ListHeader
; Function compile flags: /Ogtp
; File D:\git\src\IBK\IBK_DRFN\ProjSrc\SrcChartEx\ChartAddIn\ChartDataListViewerAddIn\ChartDataListViewerAddIn\DlgDataListViewer.cpp
; File C:\Program Files (x86)\Microsoft Visual Studio\2019\Community\VC\Tools\MSVC\14.29.30133\atlmfc\include\afxwin2.inl
; File D:\git\src\IBK\IBK_DRFN\ProjSrc\SrcChartEx\ChartAddIn\ChartDataListViewerAddIn\ChartDataListViewerAddIn\DlgDataListViewer.cpp
; File C:\Program Files (x86)\Microsoft Visual Studio\2019\Community\VC\Tools\MSVC\14.29.30133\atlmfc\include\afxwin2.inl
; File D:\git\src\IBK\IBK_DRFN\ProjSrc\SrcChartEx\ChartAddIn\ChartDataListViewerAddIn\ChartDataListViewerAddIn\DlgDataListViewer.cpp
; File C:\Program Files (x86)\Microsoft Visual Studio\2019\Community\VC\Tools\MSVC\14.29.30133\atlmfc\include\atltypes.h
; File C:\Program Files (x86)\Microsoft Visual Studio\2019\Community\VC\Tools\MSVC\14.29.30133\atlmfc\include\afxwin2.inl
; File C:\Program Files (x86)\Microsoft Visual Studio\2019\Community\VC\Tools\MSVC\14.29.30133\atlmfc\include\atltypes.h
; File C:\Program Files (x86)\Microsoft Visual Studio\2019\Community\VC\Tools\MSVC\14.29.30133\atlmfc\include\afxwin2.inl
; File D:\git\src\IBK\IBK_DRFN\ProjSrc\SrcChartEx\ChartAddIn\ChartDataListViewerAddIn\ChartDataListViewerAddIn\DlgDataListViewer.cpp
; File C:\Program Files (x86)\Microsoft Visual Studio\2019\Community\VC\Tools\MSVC\14.29.30133\atlmfc\include\afxwin2.inl
; File D:\git\src\IBK\IBK_DRFN\ProjSrc\SrcChartEx\ChartAddIn\ChartDataListViewerAddIn\ChartDataListViewerAddIn\DlgDataListViewer.cpp
; File C:\Program Files (x86)\Microsoft Visual Studio\2019\Community\VC\Tools\MSVC\14.29.30133\atlmfc\include\afxwin2.inl
; File D:\git\src\IBK\IBK_DRFN\ProjSrc\SrcChartEx\ChartAddIn\ChartDataListViewerAddIn\ChartDataListViewerAddIn\DlgDataListViewer.cpp
; File C:\Program Files (x86)\Microsoft Visual Studio\2019\Community\VC\Tools\MSVC\14.29.30133\atlmfc\include\afxwin2.inl
; File D:\git\src\IBK\IBK_DRFN\ProjSrc\SrcChartEx\ChartAddIn\ChartDataListViewerAddIn\ChartDataListViewerAddIn\DlgDataListViewer.cpp
; File C:\Program Files (x86)\Microsoft Visual Studio\2019\Community\VC\Tools\MSVC\14.29.30133\atlmfc\include\afxcmn.inl
; File D:\git\src\IBK\IBK_DRFN\ProjSrc\SrcChartEx\ChartAddIn\ChartDataListViewerAddIn\ChartDataListViewerAddIn\DlgDataListViewer.cpp
; File C:\Program Files (x86)\Microsoft Visual Studio\2019\Community\VC\Tools\MSVC\14.29.30133\atlmfc\include\afxcmn.inl
; File D:\git\src\IBK\IBK_DRFN\ProjSrc\SrcChartEx\ChartAddIn\ChartDataListViewerAddIn\ChartDataListViewerAddIn\DlgDataListViewer.cpp
; File C:\Program Files (x86)\Microsoft Visual Studio\2019\Community\VC\Tools\MSVC\14.29.30133\atlmfc\include\atltypes.h
; File D:\git\src\IBK\IBK_DRFN\ProjSrc\SrcChartEx\ChartAddIn\ChartDataListViewerAddIn\ChartDataListViewerAddIn\DlgDataListViewer.cpp
; File C:\Program Files (x86)\Microsoft Visual Studio\2019\Community\VC\Tools\MSVC\14.29.30133\atlmfc\include\atltypes.h
; File D:\git\src\IBK\IBK_DRFN\ProjSrc\SrcChartEx\ChartAddIn\ChartDataListViewerAddIn\ChartDataListViewerAddIn\DlgDataListViewer.cpp
;	COMDAT ?ReCalc_WindowSize@CDlgDataListViewer@@QAEXABV?$CStringT@DV?$StrTraitMFC_DLL@DV?$ChTraitsCRT@D@ATL@@@@@ATL@@@Z
_TEXT	SEGMENT
_nMinWidth$1$ = -76					; size = 4
_nColumnCount$1$ = -72					; size = 4
_rectClipboard$ = -68					; size = 16
_rectRunToExcel$ = -52					; size = 16
_rectList$ = -36					; size = 16
_rectReverse$ = -20					; size = 16
__$ArrayPad$ = -4					; size = 4
_szPacketNames$ = 8					; size = 4
?ReCalc_WindowSize@CDlgDataListViewer@@QAEXABV?$CStringT@DV?$StrTraitMFC_DLL@DV?$ChTraitsCRT@D@ATL@@@@@ATL@@@Z PROC ; CDlgDataListViewer::ReCalc_WindowSize, COMDAT
; _this$ = ecx

; 162  : {

  00000	55		 push	 ebp
  00001	8b ec		 mov	 ebp, esp
  00003	83 ec 4c	 sub	 esp, 76			; 0000004cH
  00006	a1 00 00 00 00	 mov	 eax, DWORD PTR ___security_cookie
  0000b	33 c5		 xor	 eax, ebp
  0000d	89 45 fc	 mov	 DWORD PTR __$ArrayPad$[ebp], eax
  00010	53		 push	 ebx
  00011	56		 push	 esi
; File C:\Program Files (x86)\Microsoft Visual Studio\2019\Community\VC\Tools\MSVC\14.29.30133\atlmfc\include\afxwin2.inl

; 84   : 	{ ASSERT(::IsWindow(m_hWnd)); ::GetWindowRect(m_hWnd, lpRect); }

  00012	8b 35 00 00 00
	00		 mov	 esi, DWORD PTR __imp__GetWindowRect@8
  00018	8d 45 dc	 lea	 eax, DWORD PTR _rectList$[ebp]
; File D:\git\src\IBK\IBK_DRFN\ProjSrc\SrcChartEx\ChartAddIn\ChartDataListViewerAddIn\ChartDataListViewerAddIn\DlgDataListViewer.cpp

; 162  : {

  0001b	57		 push	 edi
  0001c	8b d9		 mov	 ebx, ecx
  0001e	0f 57 c0	 xorps	 xmm0, xmm0
; File C:\Program Files (x86)\Microsoft Visual Studio\2019\Community\VC\Tools\MSVC\14.29.30133\atlmfc\include\afxwin2.inl

; 84   : 	{ ASSERT(::IsWindow(m_hWnd)); ::GetWindowRect(m_hWnd, lpRect); }

  00021	50		 push	 eax
; File D:\git\src\IBK\IBK_DRFN\ProjSrc\SrcChartEx\ChartAddIn\ChartDataListViewerAddIn\ChartDataListViewerAddIn\DlgDataListViewer.cpp

; 171  : 	int nTotalColWidth = 0;

  00022	33 ff		 xor	 edi, edi
; File C:\Program Files (x86)\Microsoft Visual Studio\2019\Community\VC\Tools\MSVC\14.29.30133\atlmfc\include\atltypes.h

; 528  : 	left = 0;

  00024	0f 11 45 dc	 movups	 XMMWORD PTR _rectList$[ebp], xmm0
; File C:\Program Files (x86)\Microsoft Visual Studio\2019\Community\VC\Tools\MSVC\14.29.30133\atlmfc\include\afxwin2.inl

; 84   : 	{ ASSERT(::IsWindow(m_hWnd)); ::GetWindowRect(m_hWnd, lpRect); }

  00028	ff b3 d8 02 00
	00		 push	 DWORD PTR [ebx+728]
; File C:\Program Files (x86)\Microsoft Visual Studio\2019\Community\VC\Tools\MSVC\14.29.30133\atlmfc\include\atltypes.h

; 528  : 	left = 0;

  0002e	0f 11 45 cc	 movups	 XMMWORD PTR _rectRunToExcel$[ebp], xmm0
  00032	0f 11 45 bc	 movups	 XMMWORD PTR _rectClipboard$[ebp], xmm0
  00036	0f 11 45 ec	 movups	 XMMWORD PTR _rectReverse$[ebp], xmm0
; File C:\Program Files (x86)\Microsoft Visual Studio\2019\Community\VC\Tools\MSVC\14.29.30133\atlmfc\include\afxwin2.inl

; 84   : 	{ ASSERT(::IsWindow(m_hWnd)); ::GetWindowRect(m_hWnd, lpRect); }

  0003a	ff d6		 call	 esi
; File D:\git\src\IBK\IBK_DRFN\ProjSrc\SrcChartEx\ChartAddIn\ChartDataListViewerAddIn\ChartDataListViewerAddIn\DlgDataListViewer.cpp

; 174  : 	m_ctlList.GetWindowRect(&rectList);				ScreenToClient(&rectList);

  0003c	8d 45 dc	 lea	 eax, DWORD PTR _rectList$[ebp]
  0003f	8b cb		 mov	 ecx, ebx
  00041	50		 push	 eax
  00042	e8 00 00 00 00	 call	 ?ScreenToClient@CWnd@@QBEXPAUtagRECT@@@Z ; CWnd::ScreenToClient
; File C:\Program Files (x86)\Microsoft Visual Studio\2019\Community\VC\Tools\MSVC\14.29.30133\atlmfc\include\afxwin2.inl

; 84   : 	{ ASSERT(::IsWindow(m_hWnd)); ::GetWindowRect(m_hWnd, lpRect); }

  00047	8d 45 cc	 lea	 eax, DWORD PTR _rectRunToExcel$[ebp]
  0004a	50		 push	 eax
  0004b	ff b3 58 02 00
	00		 push	 DWORD PTR [ebx+600]
  00051	ff d6		 call	 esi
; File D:\git\src\IBK\IBK_DRFN\ProjSrc\SrcChartEx\ChartAddIn\ChartDataListViewerAddIn\ChartDataListViewerAddIn\DlgDataListViewer.cpp

; 175  : 	m_btnRuntoExcel.GetWindowRect(&rectRunToExcel); ScreenToClient(&rectRunToExcel);

  00053	8d 45 cc	 lea	 eax, DWORD PTR _rectRunToExcel$[ebp]
  00056	8b cb		 mov	 ecx, ebx
  00058	50		 push	 eax
  00059	e8 00 00 00 00	 call	 ?ScreenToClient@CWnd@@QBEXPAUtagRECT@@@Z ; CWnd::ScreenToClient
; File C:\Program Files (x86)\Microsoft Visual Studio\2019\Community\VC\Tools\MSVC\14.29.30133\atlmfc\include\afxwin2.inl

; 84   : 	{ ASSERT(::IsWindow(m_hWnd)); ::GetWindowRect(m_hWnd, lpRect); }

  0005e	8d 45 bc	 lea	 eax, DWORD PTR _rectClipboard$[ebp]
  00061	50		 push	 eax
  00062	ff b3 58 01 00
	00		 push	 DWORD PTR [ebx+344]
  00068	ff d6		 call	 esi
; File D:\git\src\IBK\IBK_DRFN\ProjSrc\SrcChartEx\ChartAddIn\ChartDataListViewerAddIn\ChartDataListViewerAddIn\DlgDataListViewer.cpp

; 176  : 	m_btnClipboard.GetWindowRect(&rectClipboard);	ScreenToClient(&rectClipboard);

  0006a	8d 45 bc	 lea	 eax, DWORD PTR _rectClipboard$[ebp]
  0006d	8b cb		 mov	 ecx, ebx
  0006f	50		 push	 eax
  00070	e8 00 00 00 00	 call	 ?ScreenToClient@CWnd@@QBEXPAUtagRECT@@@Z ; CWnd::ScreenToClient
; File C:\Program Files (x86)\Microsoft Visual Studio\2019\Community\VC\Tools\MSVC\14.29.30133\atlmfc\include\afxwin2.inl

; 84   : 	{ ASSERT(::IsWindow(m_hWnd)); ::GetWindowRect(m_hWnd, lpRect); }

  00075	8d 45 ec	 lea	 eax, DWORD PTR _rectReverse$[ebp]
  00078	50		 push	 eax
  00079	ff b3 d8 00 00
	00		 push	 DWORD PTR [ebx+216]
  0007f	ff d6		 call	 esi
; File D:\git\src\IBK\IBK_DRFN\ProjSrc\SrcChartEx\ChartAddIn\ChartDataListViewerAddIn\ChartDataListViewerAddIn\DlgDataListViewer.cpp

; 177  : 	m_btnReverse.GetWindowRect(&rectReverse);		ScreenToClient(&rectReverse);

  00081	8d 45 ec	 lea	 eax, DWORD PTR _rectReverse$[ebp]
  00084	8b cb		 mov	 ecx, ebx
  00086	50		 push	 eax
  00087	e8 00 00 00 00	 call	 ?ScreenToClient@CWnd@@QBEXPAUtagRECT@@@Z ; CWnd::ScreenToClient

; 178  : 
; 179  : 	nMinWidth = rectReverse.right;

  0008c	8b 45 f4	 mov	 eax, DWORD PTR _rectReverse$[ebp+8]

; 180  : 
; 181  : 	CHeaderCtrl* pHeaderCtrl = m_ctlList.GetHeaderCtrl();

  0008f	8d 8b b8 02 00
	00		 lea	 ecx, DWORD PTR [ebx+696]
  00095	89 45 b4	 mov	 DWORD PTR _nMinWidth$1$[ebp], eax
  00098	e8 00 00 00 00	 call	 ?GetHeaderCtrl@CListCtrl@@QBEPAVCHeaderCtrl@@XZ ; CListCtrl::GetHeaderCtrl

; 182  : 	if (pHeaderCtrl == NULL) return;

  0009d	85 c0		 test	 eax, eax
  0009f	0f 84 e4 00 00
	00		 je	 $LN1@ReCalc_Win
; File C:\Program Files (x86)\Microsoft Visual Studio\2019\Community\VC\Tools\MSVC\14.29.30133\atlmfc\include\afxcmn.inl

; 541  : 	{ ASSERT(::IsWindow(m_hWnd)); return (int) ::SendMessage(m_hWnd, HDM_GETITEMCOUNT, 0, 0L); }

  000a5	57		 push	 edi
  000a6	57		 push	 edi
  000a7	68 00 12 00 00	 push	 4608			; 00001200H
  000ac	ff 70 20	 push	 DWORD PTR [eax+32]
  000af	ff 15 00 00 00
	00		 call	 DWORD PTR __imp__SendMessageA@16
  000b5	33 f6		 xor	 esi, esi
; File D:\git\src\IBK\IBK_DRFN\ProjSrc\SrcChartEx\ChartAddIn\ChartDataListViewerAddIn\ChartDataListViewerAddIn\DlgDataListViewer.cpp

; 183  : 	int  i, nColumnCount = pHeaderCtrl->GetItemCount();

  000b7	89 45 b8	 mov	 DWORD PTR _nColumnCount$1$[ebp], eax

; 184  : 	for( i = 0  ; i < nColumnCount ; i++ )

  000ba	85 c0		 test	 eax, eax
  000bc	7e 1e		 jle	 SHORT $LN3@ReCalc_Win
  000be	66 90		 npad	 2
$LL4@ReCalc_Win:
; File C:\Program Files (x86)\Microsoft Visual Studio\2019\Community\VC\Tools\MSVC\14.29.30133\atlmfc\include\afxcmn.inl

; 213  : 	{ ASSERT(::IsWindow(m_hWnd)); return (int) ::SendMessage(m_hWnd, LVM_GETCOLUMNWIDTH, nCol, 0); }

  000c0	6a 00		 push	 0
  000c2	56		 push	 esi
  000c3	68 1d 10 00 00	 push	 4125			; 0000101dH
  000c8	ff b3 d8 02 00
	00		 push	 DWORD PTR [ebx+728]
  000ce	ff 15 00 00 00
	00		 call	 DWORD PTR __imp__SendMessageA@16
; File D:\git\src\IBK\IBK_DRFN\ProjSrc\SrcChartEx\ChartAddIn\ChartDataListViewerAddIn\ChartDataListViewerAddIn\DlgDataListViewer.cpp

; 184  : 	for( i = 0  ; i < nColumnCount ; i++ )

  000d4	46		 inc	 esi

; 185  : 	{
; 186  : 		nTotalColWidth += m_ctlList.GetColumnWidth(i);

  000d5	03 f8		 add	 edi, eax
  000d7	3b 75 b8	 cmp	 esi, DWORD PTR _nColumnCount$1$[ebp]
  000da	7c e4		 jl	 SHORT $LL4@ReCalc_Win
$LN3@ReCalc_Win:
; File C:\Program Files (x86)\Microsoft Visual Studio\2019\Community\VC\Tools\MSVC\14.29.30133\atlmfc\include\atltypes.h

; 581  : 	return bottom - top;

  000dc	8b 75 f8	 mov	 esi, DWORD PTR _rectReverse$[ebp+12]
; File D:\git\src\IBK\IBK_DRFN\ProjSrc\SrcChartEx\ChartAddIn\ChartDataListViewerAddIn\ChartDataListViewerAddIn\DlgDataListViewer.cpp

; 189  : 	nWidth	= nTotalColWidth + 100;

  000df	83 c7 64	 add	 edi, 100		; 00000064H

; 190  : 	nWidth	= min(nMaxWidth, nWidth);

  000e2	b8 da 02 00 00	 mov	 eax, 730		; 000002daH
  000e7	3b f8		 cmp	 edi, eax

; 194  : 	nH		= rectList.top + nListHeight + nBtnAndListInterval * 2 + rectReverse.Height() + GetSystemMetrics(SM_CYCAPTION);

  000e9	6a 04		 push	 4
  000eb	0f 4f f8	 cmovg	 edi, eax
  000ee	39 7d b4	 cmp	 DWORD PTR _nMinWidth$1$[ebp], edi
  000f1	0f 4f 7d b4	 cmovg	 edi, DWORD PTR _nMinWidth$1$[ebp]
; File C:\Program Files (x86)\Microsoft Visual Studio\2019\Community\VC\Tools\MSVC\14.29.30133\atlmfc\include\atltypes.h

; 581  : 	return bottom - top;

  000f5	2b 75 f0	 sub	 esi, DWORD PTR _rectReverse$[ebp+4]
; File D:\git\src\IBK\IBK_DRFN\ProjSrc\SrcChartEx\ChartAddIn\ChartDataListViewerAddIn\ChartDataListViewerAddIn\DlgDataListViewer.cpp

; 194  : 	nH		= rectList.top + nListHeight + nBtnAndListInterval * 2 + rectReverse.Height() + GetSystemMetrics(SM_CYCAPTION);

  000f8	ff 15 00 00 00
	00		 call	 DWORD PTR __imp__GetSystemMetrics@4
  000fe	8b 4d e0	 mov	 ecx, DWORD PTR _rectList$[ebp+4]
  00101	03 c6		 add	 eax, esi

; 195  : 	SetWindowPos(NULL, 0, 0, nW, nH, SWP_NOZORDER | SWP_NOMOVE);

  00103	6a 06		 push	 6
  00105	81 c1 a8 01 00
	00		 add	 ecx, 424		; 000001a8H
  0010b	03 c1		 add	 eax, ecx
  0010d	8b cb		 mov	 ecx, ebx
  0010f	50		 push	 eax
  00110	8d 47 14	 lea	 eax, DWORD PTR [edi+20]
  00113	50		 push	 eax
  00114	6a 00		 push	 0
  00116	6a 00		 push	 0
  00118	6a 00		 push	 0
  0011a	e8 00 00 00 00	 call	 ?SetWindowPos@CWnd@@QAEHPBV1@HHHHI@Z ; CWnd::SetWindowPos

; 196  : 	m_ctlList.SetWindowPos(NULL,  0, 0, nWidth, nListHeight, SWP_NOZORDER | SWP_NOMOVE);

  0011f	6a 06		 push	 6
  00121	68 90 01 00 00	 push	 400			; 00000190H
  00126	57		 push	 edi
  00127	6a 00		 push	 0
  00129	6a 00		 push	 0
  0012b	6a 00		 push	 0
  0012d	8d 8b b8 02 00
	00		 lea	 ecx, DWORD PTR [ebx+696]
  00133	e8 00 00 00 00	 call	 ?SetWindowPos@CWnd@@QAEHPBV1@HHHHI@Z ; CWnd::SetWindowPos

; 197  : 	m_btnRuntoExcel.SetWindowPos(NULL,	rectRunToExcel.left, nListHeight + nBtnAndListInterval, 0, 0, SWP_NOZORDER | SWP_NOSIZE);

  00138	6a 05		 push	 5
  0013a	6a 00		 push	 0
  0013c	6a 00		 push	 0
  0013e	68 9c 01 00 00	 push	 412			; 0000019cH
  00143	ff 75 cc	 push	 DWORD PTR _rectRunToExcel$[ebp]
  00146	8d 8b 38 02 00
	00		 lea	 ecx, DWORD PTR [ebx+568]
  0014c	6a 00		 push	 0
  0014e	e8 00 00 00 00	 call	 ?SetWindowPos@CWnd@@QAEHPBV1@HHHHI@Z ; CWnd::SetWindowPos

; 198  : 	m_btnClipboard.SetWindowPos(NULL,	rectClipboard.left,	 nListHeight + nBtnAndListInterval, 0, 0, SWP_NOZORDER | SWP_NOSIZE);

  00153	6a 05		 push	 5
  00155	6a 00		 push	 0
  00157	6a 00		 push	 0
  00159	68 9c 01 00 00	 push	 412			; 0000019cH
  0015e	ff 75 bc	 push	 DWORD PTR _rectClipboard$[ebp]
  00161	8d 8b 38 01 00
	00		 lea	 ecx, DWORD PTR [ebx+312]
  00167	6a 00		 push	 0
  00169	e8 00 00 00 00	 call	 ?SetWindowPos@CWnd@@QAEHPBV1@HHHHI@Z ; CWnd::SetWindowPos

; 199  : 	m_btnReverse.SetWindowPos(NULL,		rectReverse.left,    nListHeight + nBtnAndListInterval, 0, 0, SWP_NOZORDER | SWP_NOSIZE);

  0016e	6a 05		 push	 5
  00170	6a 00		 push	 0
  00172	6a 00		 push	 0
  00174	68 9c 01 00 00	 push	 412			; 0000019cH
  00179	ff 75 ec	 push	 DWORD PTR _rectReverse$[ebp]
  0017c	8d 8b b8 00 00
	00		 lea	 ecx, DWORD PTR [ebx+184]
  00182	6a 00		 push	 0
  00184	e8 00 00 00 00	 call	 ?SetWindowPos@CWnd@@QAEHPBV1@HHHHI@Z ; CWnd::SetWindowPos
$LN1@ReCalc_Win:

; 200  : 
; 201  : //	int nColumnCount = CDataConversion::GetStringDataCount(m_strPacketNamesPerBlock, ",") ;	
; 202  : //	int nWidth = 70*nColumnCount + 100;
; 203  : //	if(nWidth > 730)
; 204  : //		nWidth = 730;	
; 205  : //	if( nWidth < 205) nWidth = 205;
; 206  : //	SetWindowPos(NULL, 0, 0, nWidth + 20, 400+70, SWP_NOMOVE);
; 207  : //	m_btnRuntoExcel.SetWindowPos(NULL, 10, 412, 0, 0, SWP_NOSIZE);
; 208  : //	m_btnClipboard.SetWindowPos(NULL, 145, 412, 0, 0, SWP_NOSIZE);
; 209  : //	m_btnReverse.SetWindowPos(NULL, 252, 412, 0, 0, SWP_NOSIZE);
; 210  : //	m_ctlList.SetWindowPos(NULL, 0, 0, nWidth, 400, SWP_NOMOVE);
; 211  : 	//20081025  <<
; 212  : }

  00189	8b 4d fc	 mov	 ecx, DWORD PTR __$ArrayPad$[ebp]
  0018c	5f		 pop	 edi
  0018d	5e		 pop	 esi
  0018e	33 cd		 xor	 ecx, ebp
  00190	5b		 pop	 ebx
  00191	e8 00 00 00 00	 call	 @__security_check_cookie@4
  00196	8b e5		 mov	 esp, ebp
  00198	5d		 pop	 ebp
  00199	c2 04 00	 ret	 4
?ReCalc_WindowSize@CDlgDataListViewer@@QAEXABV?$CStringT@DV?$StrTraitMFC_DLL@DV?$ChTraitsCRT@D@ATL@@@@@ATL@@@Z ENDP ; CDlgDataListViewer::ReCalc_WindowSize
_TEXT	ENDS
; Function compile flags: /Ogtp
; File C:\Program Files (x86)\Microsoft Visual Studio\2019\Community\VC\Tools\MSVC\14.29.30133\atlmfc\include\afx.inl
;	COMDAT ??_G?$CArray@VCData@@V1@@@UAEPAXI@Z
_TEXT	SEGMENT
___flags$ = 8						; size = 4
??_G?$CArray@VCData@@V1@@@UAEPAXI@Z PROC		; CArray<CData,CData>::`scalar deleting destructor', COMDAT
; _this$ = ecx
  00000	55		 push	 ebp
  00001	8b ec		 mov	 ebp, esp
  00003	56		 push	 esi
  00004	8b f1		 mov	 esi, ecx
  00006	e8 00 00 00 00	 call	 ??1?$CArray@VCData@@V1@@@UAE@XZ ; CArray<CData,CData>::~CArray<CData,CData>
  0000b	8b 45 08	 mov	 eax, DWORD PTR ___flags$[ebp]
  0000e	a8 01		 test	 al, 1
  00010	74 1f		 je	 SHORT $LN9@scalar
  00012	a8 04		 test	 al, 4
  00014	75 10		 jne	 SHORT $LN3@scalar

; 112  : 	{ ::operator delete(p); }

  00016	56		 push	 esi
  00017	e8 00 00 00 00	 call	 ??3@YAXPAX@Z		; operator delete
  0001c	83 c4 04	 add	 esp, 4
  0001f	8b c6		 mov	 eax, esi
  00021	5e		 pop	 esi
  00022	5d		 pop	 ebp
  00023	c2 04 00	 ret	 4
$LN3@scalar:
  00026	6a 14		 push	 20			; 00000014H
  00028	56		 push	 esi
  00029	e8 00 00 00 00	 call	 ?__global_delete@@YAXPAXI@Z ; __global_delete
  0002e	83 c4 08	 add	 esp, 8
$LN9@scalar:
  00031	8b c6		 mov	 eax, esi
  00033	5e		 pop	 esi
  00034	5d		 pop	 ebp
  00035	c2 04 00	 ret	 4
??_G?$CArray@VCData@@V1@@@UAEPAXI@Z ENDP		; CArray<CData,CData>::`scalar deleting destructor'
_TEXT	ENDS
; Function compile flags: /Ogtp
; File C:\Program Files (x86)\Microsoft Visual Studio\2019\Community\VC\Tools\MSVC\14.29.30133\atlmfc\include\afxtempl.h
; File C:\Program Files (x86)\Microsoft Visual Studio\2019\Community\VC\Tools\MSVC\14.29.30133\atlmfc\include\afx.inl
; File C:\Program Files (x86)\Microsoft Visual Studio\2019\Community\VC\Tools\MSVC\14.29.30133\atlmfc\include\afxtempl.h
; File C:\Program Files (x86)\Microsoft Visual Studio\2019\Community\VC\Tools\MSVC\14.29.30133\atlmfc\include\afx.inl
; File C:\Program Files (x86)\Microsoft Visual Studio\2019\Community\VC\Tools\MSVC\14.29.30133\atlmfc\include\afxtempl.h
; File C:\Program Files (x86)\Microsoft Visual Studio\2019\Community\VC\Tools\MSVC\14.29.30133\atlmfc\include\afx.inl
; File C:\Program Files (x86)\Microsoft Visual Studio\2019\Community\VC\Tools\MSVC\14.29.30133\atlmfc\include\afxtempl.h
; File C:\Program Files (x86)\Microsoft Visual Studio\2019\Community\VC\Tools\MSVC\14.29.30133\atlmfc\include\afx.inl
; File C:\Program Files (x86)\Microsoft Visual Studio\2019\Community\VC\Tools\MSVC\14.29.30133\atlmfc\include\afxtempl.h
;	COMDAT ?Serialize@?$CArray@VCData@@V1@@@UAEXAAVCArchive@@@Z
_TEXT	SEGMENT
_pData$1$ = -4						; size = 4
_ar$ = 8						; size = 4
?Serialize@?$CArray@VCData@@V1@@@UAEXAAVCArchive@@@Z PROC ; CArray<CData,CData>::Serialize, COMDAT
; _this$ = ecx

; 633  : {

  00000	55		 push	 ebp
  00001	8b ec		 mov	 ebp, esp
  00003	51		 push	 ecx
  00004	53		 push	 ebx
  00005	56		 push	 esi
  00006	57		 push	 edi
  00007	8b f9		 mov	 edi, ecx
; File C:\Program Files (x86)\Microsoft Visual Studio\2019\Community\VC\Tools\MSVC\14.29.30133\atlmfc\include\afx.inl

; 212  : 	{ return (m_nMode & CArchive::load) == 0; }

  00009	8b 4d 08	 mov	 ecx, DWORD PTR _ar$[ebp]
  0000c	8b 41 18	 mov	 eax, DWORD PTR [ecx+24]
  0000f	f7 d0		 not	 eax
  00011	a8 01		 test	 al, 1
; File C:\Program Files (x86)\Microsoft Visual Studio\2019\Community\VC\Tools\MSVC\14.29.30133\atlmfc\include\afxtempl.h

; 637  : 	if (ar.IsStoring())

  00013	74 0a		 je	 SHORT $LN2@Serialize

; 638  : 	{
; 639  : 		ar.WriteCount(m_nSize);

  00015	ff 77 08	 push	 DWORD PTR [edi+8]
  00018	e8 00 00 00 00	 call	 ?WriteCount@CArchive@@QAEXK@Z ; CArchive::WriteCount

; 640  : 	}

  0001d	eb 0f		 jmp	 SHORT $LN3@Serialize
$LN2@Serialize:

; 641  : 	else
; 642  : 	{
; 643  : 		DWORD_PTR nOldSize = ar.ReadCount();

  0001f	e8 00 00 00 00	 call	 ?ReadCount@CArchive@@QAEKXZ ; CArchive::ReadCount

; 644  : 		SetSize(nOldSize, -1);

  00024	6a ff		 push	 -1
  00026	50		 push	 eax
  00027	8b cf		 mov	 ecx, edi
  00029	e8 00 00 00 00	 call	 ?SetSize@?$CArray@VCData@@V1@@@QAEXHH@Z ; CArray<CData,CData>::SetSize
$LN3@Serialize:

; 645  : 	}
; 646  : 	SerializeElements<TYPE>(ar, m_pData, m_nSize);

  0002e	8b 77 08	 mov	 esi, DWORD PTR [edi+8]
  00031	8b 4f 04	 mov	 ecx, DWORD PTR [edi+4]
  00034	89 4d fc	 mov	 DWORD PTR _pData$1$[ebp], ecx

; 68   : 	ENSURE(nCount == 0 || pElements != NULL);

  00037	85 f6		 test	 esi, esi
  00039	74 08		 je	 SHORT $LN8@Serialize
  0003b	85 c9		 test	 ecx, ecx
  0003d	0f 84 8b 00 00
	00		 je	 $LN40@Serialize
$LN8@Serialize:
; File C:\Program Files (x86)\Microsoft Visual Studio\2019\Community\VC\Tools\MSVC\14.29.30133\atlmfc\include\afx.inl

; 212  : 	{ return (m_nMode & CArchive::load) == 0; }

  00043	8b 55 08	 mov	 edx, DWORD PTR _ar$[ebp]
  00046	8b 42 18	 mov	 eax, DWORD PTR [edx+24]
  00049	f7 d0		 not	 eax
  0004b	a8 01		 test	 al, 1
; File C:\Program Files (x86)\Microsoft Visual Studio\2019\Community\VC\Tools\MSVC\14.29.30133\atlmfc\include\afxtempl.h

; 73   : 	if (ar.IsStoring())

  0004d	74 35		 je	 SHORT $LN16@Serialize

; 74   : 	{
; 75   : 		TYPE* pData;
; 76   : 		UINT_PTR nElementsLeft;
; 77   : 
; 78   : 		nElementsLeft = nCount;
; 79   : 		pData = pElements;
; 80   : 		while( nElementsLeft > 0 )

  0004f	85 f6		 test	 esi, esi
  00051	74 28		 je	 SHORT $LN14@Serialize
$LL11@Serialize:

; 81   : 		{
; 82   : 			UINT nElementsToWrite;
; 83   : 
; 84   : 			nElementsToWrite = UINT(__min(nElementsLeft, INT_MAX/sizeof(TYPE)));

  00053	bb 55 55 55 05	 mov	 ebx, 89478485		; 05555555H
  00058	3b f3		 cmp	 esi, ebx
  0005a	0f 42 de	 cmovb	 ebx, esi

; 85   : 			ar.Write(pData, nElementsToWrite*sizeof(TYPE));

  0005d	8d 3c 5b	 lea	 edi, DWORD PTR [ebx+ebx*2]
  00060	c1 e7 03	 shl	 edi, 3
  00063	57		 push	 edi
  00064	51		 push	 ecx
  00065	8b ca		 mov	 ecx, edx
  00067	e8 00 00 00 00	 call	 ?Write@CArchive@@QAEXPBXI@Z ; CArchive::Write

; 86   : 			nElementsLeft -= nElementsToWrite;
; 87   : 			pData += nElementsToWrite;

  0006c	8b 4d fc	 mov	 ecx, DWORD PTR _pData$1$[ebp]
  0006f	8b 55 08	 mov	 edx, DWORD PTR _ar$[ebp]
  00072	03 cf		 add	 ecx, edi
  00074	89 4d fc	 mov	 DWORD PTR _pData$1$[ebp], ecx
  00077	2b f3		 sub	 esi, ebx
  00079	75 d8		 jne	 SHORT $LL11@Serialize
$LN14@Serialize:
  0007b	5f		 pop	 edi

; 647  : }

  0007c	5e		 pop	 esi
  0007d	5b		 pop	 ebx
  0007e	8b e5		 mov	 esp, ebp
  00080	5d		 pop	 ebp
  00081	c2 04 00	 ret	 4
$LN16@Serialize:

; 97   : 		while( nElementsLeft > 0 )

  00084	85 f6		 test	 esi, esi
  00086	74 f3		 je	 SHORT $LN14@Serialize
  00088	0f 1f 84 00 00
	00 00 00	 npad	 8
$LL13@Serialize:

; 98   : 		{
; 99   : 			UINT nElementsToRead;
; 100  : 
; 101  : 			nElementsToRead = UINT(__min(nElementsLeft, INT_MAX/sizeof(TYPE)));

  00090	bf 55 55 55 05	 mov	 edi, 89478485		; 05555555H
  00095	3b f7		 cmp	 esi, edi
  00097	0f 42 fe	 cmovb	 edi, esi

; 102  : 			ar.EnsureRead(pData, nElementsToRead*sizeof(TYPE));

  0009a	8d 1c 7f	 lea	 ebx, DWORD PTR [edi+edi*2]
  0009d	c1 e3 03	 shl	 ebx, 3
; File C:\Program Files (x86)\Microsoft Visual Studio\2019\Community\VC\Tools\MSVC\14.29.30133\atlmfc\include\afx.inl

; 399  : 	UINT nRead=Read(lpBuf, nCount);

  000a0	53		 push	 ebx
  000a1	51		 push	 ecx
  000a2	8b ca		 mov	 ecx, edx
  000a4	e8 00 00 00 00	 call	 ?Read@CArchive@@QAEIPAXI@Z ; CArchive::Read

; 400  : 	if(nRead!=nCount)

  000a9	3b c3		 cmp	 eax, ebx
  000ab	75 18		 jne	 SHORT $LN30@Serialize
; File C:\Program Files (x86)\Microsoft Visual Studio\2019\Community\VC\Tools\MSVC\14.29.30133\atlmfc\include\afxtempl.h

; 97   : 		while( nElementsLeft > 0 )

  000ad	8b 4d fc	 mov	 ecx, DWORD PTR _pData$1$[ebp]
  000b0	8b 55 08	 mov	 edx, DWORD PTR _ar$[ebp]

; 103  : 			nElementsLeft -= nElementsToRead;
; 104  : 			pData += nElementsToRead;

  000b3	03 cb		 add	 ecx, ebx
  000b5	89 4d fc	 mov	 DWORD PTR _pData$1$[ebp], ecx
  000b8	2b f7		 sub	 esi, edi
  000ba	75 d4		 jne	 SHORT $LL13@Serialize

; 647  : }

  000bc	5f		 pop	 edi
  000bd	5e		 pop	 esi
  000be	5b		 pop	 ebx
  000bf	8b e5		 mov	 esp, ebp
  000c1	5d		 pop	 ebp
  000c2	c2 04 00	 ret	 4
$LN30@Serialize:
; File C:\Program Files (x86)\Microsoft Visual Studio\2019\Community\VC\Tools\MSVC\14.29.30133\atlmfc\include\afx.inl

; 402  : 		AfxThrowArchiveException(CArchiveException::endOfFile);

  000c5	6a 00		 push	 0
  000c7	6a 03		 push	 3
  000c9	e8 00 00 00 00	 call	 ?AfxThrowArchiveException@@YGXHPBD@Z ; AfxThrowArchiveException
$LN40@Serialize:
; File C:\Program Files (x86)\Microsoft Visual Studio\2019\Community\VC\Tools\MSVC\14.29.30133\atlmfc\include\afxtempl.h

; 68   : 	ENSURE(nCount == 0 || pElements != NULL);

  000ce	e8 00 00 00 00	 call	 ?AfxThrowInvalidArgException@@YGXXZ ; AfxThrowInvalidArgException
$LN38@Serialize:
  000d3	cc		 int	 3
?Serialize@?$CArray@VCData@@V1@@@UAEXAAVCArchive@@@Z ENDP ; CArray<CData,CData>::Serialize
_TEXT	ENDS
; Function compile flags: /Ogtp
; File C:\Program Files (x86)\Microsoft Visual Studio\2019\Community\VC\Tools\MSVC\14.29.30133\atlmfc\include\afxtempl.h
;	COMDAT ??1?$CArray@VCData@@V1@@@UAE@XZ
_TEXT	SEGMENT
??1?$CArray@VCData@@V1@@@UAE@XZ PROC			; CArray<CData,CData>::~CArray<CData,CData>, COMDAT
; _this$ = ecx

; 355  : {

  00000	56		 push	 esi
  00001	8b f1		 mov	 esi, ecx

; 356  : 	ASSERT_VALID(this);
; 357  : 
; 358  : 	if (m_pData != NULL)

  00003	8b 46 04	 mov	 eax, DWORD PTR [esi+4]
  00006	c7 06 00 00 00
	00		 mov	 DWORD PTR [esi], OFFSET ??_7?$CArray@VCData@@V1@@@6B@
  0000c	85 c0		 test	 eax, eax
  0000e	74 33		 je	 SHORT $LN5@CArray

; 359  : 	{
; 360  : 		for( int i = 0; i < m_nSize; i++ )

  00010	53		 push	 ebx
  00011	33 db		 xor	 ebx, ebx
  00013	39 5e 08	 cmp	 DWORD PTR [esi+8], ebx
  00016	7e 21		 jle	 SHORT $LN3@CArray
  00018	57		 push	 edi
  00019	33 ff		 xor	 edi, edi
  0001b	0f 1f 44 00 00	 npad	 5
$LL4@CArray:

; 361  : 			(m_pData + i)->~TYPE();

  00020	8b 4e 04	 mov	 ecx, DWORD PTR [esi+4]
  00023	03 cf		 add	 ecx, edi
  00025	6a 00		 push	 0
  00027	8b 01		 mov	 eax, DWORD PTR [ecx]
  00029	ff 50 04	 call	 DWORD PTR [eax+4]
  0002c	43		 inc	 ebx
  0002d	83 c7 18	 add	 edi, 24			; 00000018H
  00030	3b 5e 08	 cmp	 ebx, DWORD PTR [esi+8]
  00033	7c eb		 jl	 SHORT $LL4@CArray
  00035	8b 46 04	 mov	 eax, DWORD PTR [esi+4]
  00038	5f		 pop	 edi
$LN3@CArray:

; 362  : 		delete[] (BYTE*)m_pData;

  00039	50		 push	 eax
  0003a	e8 00 00 00 00	 call	 ??_V@YAXPAX@Z		; operator delete[]
  0003f	83 c4 04	 add	 esp, 4
  00042	5b		 pop	 ebx
$LN5@CArray:

; 363  : 	}
; 364  : }

  00043	5e		 pop	 esi
  00044	c3		 ret	 0
??1?$CArray@VCData@@V1@@@UAE@XZ ENDP			; CArray<CData,CData>::~CArray<CData,CData>
_TEXT	ENDS
; Function compile flags: /Ogtp
; File C:\Program Files (x86)\Microsoft Visual Studio\2019\Community\VC\Tools\MSVC\14.29.30133\atlmfc\include\afxtempl.h
; File C:\Program Files (x86)\Windows Kits\10\Include\10.0.22000.0\ucrt\corecrt_memcpy_s.h
; File C:\Program Files (x86)\Microsoft Visual Studio\2019\Community\VC\Tools\MSVC\14.29.30133\atlmfc\include\atlchecked.h
; File C:\Program Files (x86)\Microsoft Visual Studio\2019\Community\VC\Tools\MSVC\14.29.30133\atlmfc\include\afxtempl.h
; File C:\Program Files (x86)\Windows Kits\10\Include\10.0.22000.0\ucrt\corecrt_memcpy_s.h
; File C:\Program Files (x86)\Microsoft Visual Studio\2019\Community\VC\Tools\MSVC\14.29.30133\atlmfc\include\afxtempl.h
;	COMDAT ?SetSize@?$CArray@VCData@@V1@@@QAEXHH@Z
_TEXT	SEGMENT
__N$1$ = -12						; size = 4
__S2$1$ = -8						; size = 4
_nNewMax$1$ = -4					; size = 4
_nAllocSize$1$ = -4					; size = 4
__S1max$1$ = 8						; size = 4
_i$1$ = 8						; size = 4
_nNewSize$ = 8						; size = 4
_pNewData$1$ = 12					; size = 4
tv640 = 12						; size = 4
_nGrowBy$ = 12						; size = 4
?SetSize@?$CArray@VCData@@V1@@@QAEXHH@Z PROC		; CArray<CData,CData>::SetSize, COMDAT
; _this$ = ecx

; 368  : {

  00000	55		 push	 ebp
  00001	8b ec		 mov	 ebp, esp
  00003	83 ec 0c	 sub	 esp, 12			; 0000000cH
  00006	53		 push	 ebx
  00007	8b 5d 08	 mov	 ebx, DWORD PTR _nNewSize$[ebp]
  0000a	56		 push	 esi
  0000b	57		 push	 edi
  0000c	8b f9		 mov	 edi, ecx

; 369  : 	ASSERT_VALID(this);
; 370  : 	ASSERT(nNewSize >= 0);
; 371  : 
; 372  : 	if(nNewSize < 0 )

  0000e	85 db		 test	 ebx, ebx
  00010	0f 88 b5 02 00
	00		 js	 $LN70@SetSize

; 373  : 		AfxThrowInvalidArgException();
; 374  : 
; 375  : 	if (nGrowBy >= 0)

  00016	8b 45 0c	 mov	 eax, DWORD PTR _nGrowBy$[ebp]
  00019	85 c0		 test	 eax, eax
  0001b	78 03		 js	 SHORT $LN69@SetSize

; 376  : 		m_nGrowBy = nGrowBy;  // set new size

  0001d	89 47 10	 mov	 DWORD PTR [edi+16], eax
$LN69@SetSize:

; 377  : 
; 378  : 	if (nNewSize == 0)

  00020	8b 57 04	 mov	 edx, DWORD PTR [edi+4]
  00023	85 db		 test	 ebx, ebx
  00025	75 4a		 jne	 SHORT $LN19@SetSize

; 379  : 	{
; 380  : 		// shrink to nothing
; 381  : 		if (m_pData != NULL)

  00027	85 d2		 test	 edx, edx
  00029	74 2f		 je	 SHORT $LN21@SetSize

; 382  : 		{
; 383  : 			for( int i = 0; i < m_nSize; i++ )

  0002b	39 5f 08	 cmp	 DWORD PTR [edi+8], ebx
  0002e	7e 1a		 jle	 SHORT $LN3@SetSize
  00030	33 f6		 xor	 esi, esi
$LL4@SetSize:

; 384  : 				(m_pData + i)->~TYPE();

  00032	8b 4f 04	 mov	 ecx, DWORD PTR [edi+4]
  00035	03 ce		 add	 ecx, esi
  00037	6a 00		 push	 0
  00039	8b 01		 mov	 eax, DWORD PTR [ecx]
  0003b	ff 50 04	 call	 DWORD PTR [eax+4]
  0003e	43		 inc	 ebx
  0003f	83 c6 18	 add	 esi, 24			; 00000018H
  00042	3b 5f 08	 cmp	 ebx, DWORD PTR [edi+8]
  00045	7c eb		 jl	 SHORT $LL4@SetSize
  00047	8b 57 04	 mov	 edx, DWORD PTR [edi+4]
$LN3@SetSize:

; 385  : 			delete[] (BYTE*)m_pData;

  0004a	52		 push	 edx
  0004b	e8 00 00 00 00	 call	 ??_V@YAXPAX@Z		; operator delete[]
  00050	83 c4 04	 add	 esp, 4

; 386  : 			m_pData = NULL;

  00053	c7 47 04 00 00
	00 00		 mov	 DWORD PTR [edi+4], 0
$LN21@SetSize:

; 387  : 		}
; 388  : 		m_nSize = m_nMaxSize = 0;

  0005a	c7 47 0c 00 00
	00 00		 mov	 DWORD PTR [edi+12], 0
  00061	c7 47 08 00 00
	00 00		 mov	 DWORD PTR [edi+8], 0
  00068	5f		 pop	 edi

; 472  : 		m_nSize = nNewSize;
; 473  : 		m_nMaxSize = nNewMax;
; 474  : 	}
; 475  : }

  00069	5e		 pop	 esi
  0006a	5b		 pop	 ebx
  0006b	8b e5		 mov	 esp, ebp
  0006d	5d		 pop	 ebp
  0006e	c2 08 00	 ret	 8
$LN19@SetSize:

; 389  : 	}
; 390  : 	else if (m_pData == NULL)

  00071	85 d2		 test	 edx, edx
  00073	75 53		 jne	 SHORT $LN22@SetSize

; 391  : 	{
; 392  : 		// create buffer big enough to hold number of requested elements or
; 393  : 		// m_nGrowBy elements, whichever is larger.
; 394  : #ifdef SIZE_T_MAX
; 395  : 		ASSERT(nNewSize <= SIZE_T_MAX/sizeof(TYPE));    // no overflow
; 396  : #endif
; 397  : 		size_t nAllocSize = __max(nNewSize, m_nGrowBy);

  00075	8b 47 10	 mov	 eax, DWORD PTR [edi+16]
  00078	3b d8		 cmp	 ebx, eax
  0007a	0f 4f c3	 cmovg	 eax, ebx
  0007d	89 45 fc	 mov	 DWORD PTR _nAllocSize$1$[ebp], eax

; 398  : 		m_pData = (TYPE*) new BYTE[(size_t)nAllocSize * sizeof(TYPE)];

  00080	8d 34 40	 lea	 esi, DWORD PTR [eax+eax*2]
  00083	c1 e6 03	 shl	 esi, 3
  00086	56		 push	 esi
  00087	e8 00 00 00 00	 call	 ??_U@YAPAXI@Z		; operator new[]

; 399  : 		memset((void*)m_pData, 0, (size_t)nAllocSize * sizeof(TYPE));

  0008c	56		 push	 esi
  0008d	6a 00		 push	 0
  0008f	50		 push	 eax
  00090	89 47 04	 mov	 DWORD PTR [edi+4], eax
  00093	e8 00 00 00 00	 call	 _memset
  00098	83 c4 10	 add	 esp, 16			; 00000010H

; 400  : 		for( int i = 0; i < nNewSize; i++ )

  0009b	85 db		 test	 ebx, ebx
  0009d	7e 17		 jle	 SHORT $LN6@SetSize

; 398  : 		m_pData = (TYPE*) new BYTE[(size_t)nAllocSize * sizeof(TYPE)];

  0009f	33 f6		 xor	 esi, esi
$LL7@SetSize:

; 401  : #pragma push_macro("new")
; 402  : #undef new
; 403  : 			::new( (void*)( m_pData + i ) ) TYPE;

  000a1	8b 4f 04	 mov	 ecx, DWORD PTR [edi+4]
  000a4	03 ce		 add	 ecx, esi
  000a6	e8 00 00 00 00	 call	 ??0CData@@QAE@XZ	; CData::CData
  000ab	83 c6 18	 add	 esi, 24			; 00000018H
  000ae	83 eb 01	 sub	 ebx, 1
  000b1	75 ee		 jne	 SHORT $LL7@SetSize
  000b3	8b 5d 08	 mov	 ebx, DWORD PTR _nNewSize$[ebp]
$LN6@SetSize:

; 472  : 		m_nSize = nNewSize;
; 473  : 		m_nMaxSize = nNewMax;
; 474  : 	}
; 475  : }

  000b6	8b 45 fc	 mov	 eax, DWORD PTR _nNewMax$1$[ebp]
  000b9	89 47 0c	 mov	 DWORD PTR [edi+12], eax
$LN12@SetSize:
  000bc	89 5f 08	 mov	 DWORD PTR [edi+8], ebx
  000bf	5f		 pop	 edi
  000c0	5e		 pop	 esi
  000c1	5b		 pop	 ebx
  000c2	8b e5		 mov	 esp, ebp
  000c4	5d		 pop	 ebp
  000c5	c2 08 00	 ret	 8
$LN22@SetSize:

; 404  : #pragma pop_macro("new")
; 405  : 		m_nSize = nNewSize;
; 406  : 		m_nMaxSize = nAllocSize;
; 407  : 	}
; 408  : 	else if (nNewSize <= m_nMaxSize)

  000c8	8b 4f 0c	 mov	 ecx, DWORD PTR [edi+12]
  000cb	3b d9		 cmp	 ebx, ecx
  000cd	0f 8f 98 00 00
	00		 jg	 $LN24@SetSize

; 409  : 	{
; 410  : 		// it fits
; 411  : 		if (nNewSize > m_nSize)

  000d3	8b 4f 08	 mov	 ecx, DWORD PTR [edi+8]
  000d6	3b d9		 cmp	 ebx, ecx
  000d8	7e 50		 jle	 SHORT $LN26@SetSize

; 412  : 		{
; 413  : 			// initialize the new elements
; 414  : 			memset((void*)(m_pData + m_nSize), 0, (size_t)(nNewSize-m_nSize) * sizeof(TYPE));

  000da	8b c3		 mov	 eax, ebx
  000dc	2b c1		 sub	 eax, ecx
  000de	8d 04 40	 lea	 eax, DWORD PTR [eax+eax*2]
  000e1	c1 e0 03	 shl	 eax, 3
  000e4	50		 push	 eax
  000e5	8d 04 49	 lea	 eax, DWORD PTR [ecx+ecx*2]
  000e8	8d 04 c2	 lea	 eax, DWORD PTR [edx+eax*8]
  000eb	6a 00		 push	 0
  000ed	50		 push	 eax
  000ee	e8 00 00 00 00	 call	 _memset

; 415  : 			for( int i = 0; i < nNewSize-m_nSize; i++ )

  000f3	8b c3		 mov	 eax, ebx
  000f5	83 c4 0c	 add	 esp, 12			; 0000000cH
  000f8	2b 47 08	 sub	 eax, DWORD PTR [edi+8]
  000fb	33 f6		 xor	 esi, esi
  000fd	85 c0		 test	 eax, eax
  000ff	7e bb		 jle	 SHORT $LN12@SetSize
$LL10@SetSize:

; 416  : #pragma push_macro("new")
; 417  : #undef new
; 418  : 				::new( (void*)( m_pData + m_nSize + i ) ) TYPE;

  00101	8b 47 08	 mov	 eax, DWORD PTR [edi+8]
  00104	03 c6		 add	 eax, esi
  00106	8d 0c 40	 lea	 ecx, DWORD PTR [eax+eax*2]
  00109	8b 47 04	 mov	 eax, DWORD PTR [edi+4]
  0010c	8d 0c c8	 lea	 ecx, DWORD PTR [eax+ecx*8]
  0010f	e8 00 00 00 00	 call	 ??0CData@@QAE@XZ	; CData::CData
  00114	8b c3		 mov	 eax, ebx
  00116	46		 inc	 esi
  00117	2b 47 08	 sub	 eax, DWORD PTR [edi+8]
  0011a	3b f0		 cmp	 esi, eax
  0011c	7c e3		 jl	 SHORT $LL10@SetSize

; 472  : 		m_nSize = nNewSize;
; 473  : 		m_nMaxSize = nNewMax;
; 474  : 	}
; 475  : }

  0011e	89 5f 08	 mov	 DWORD PTR [edi+8], ebx
  00121	5f		 pop	 edi
  00122	5e		 pop	 esi
  00123	5b		 pop	 ebx
  00124	8b e5		 mov	 esp, ebp
  00126	5d		 pop	 ebp
  00127	c2 08 00	 ret	 8
$LN26@SetSize:

; 419  : #pragma pop_macro("new")
; 420  : 		}
; 421  : 		else if (m_nSize > nNewSize)

  0012a	7d 90		 jge	 SHORT $LN12@SetSize

; 422  : 		{
; 423  : 			// destroy the old elements
; 424  : 			for( int i = 0; i < m_nSize-nNewSize; i++ )

  0012c	2b cb		 sub	 ecx, ebx
  0012e	c7 45 08 00 00
	00 00		 mov	 DWORD PTR _i$1$[ebp], 0
  00135	85 c9		 test	 ecx, ecx
  00137	7e 83		 jle	 SHORT $LN12@SetSize
  00139	8d 34 5b	 lea	 esi, DWORD PTR [ebx+ebx*2]
  0013c	c1 e6 03	 shl	 esi, 3
  0013f	90		 npad	 1
$LL13@SetSize:

; 425  : 				(m_pData + nNewSize + i)->~TYPE();

  00140	8b 4f 04	 mov	 ecx, DWORD PTR [edi+4]
  00143	03 ce		 add	 ecx, esi
  00145	6a 00		 push	 0
  00147	8b 01		 mov	 eax, DWORD PTR [ecx]
  00149	ff 50 04	 call	 DWORD PTR [eax+4]
  0014c	8b 4d 08	 mov	 ecx, DWORD PTR _i$1$[ebp]
  0014f	83 c6 18	 add	 esi, 24			; 00000018H
  00152	8b 47 08	 mov	 eax, DWORD PTR [edi+8]
  00155	41		 inc	 ecx
  00156	2b c3		 sub	 eax, ebx
  00158	89 4d 08	 mov	 DWORD PTR _i$1$[ebp], ecx
  0015b	3b c8		 cmp	 ecx, eax
  0015d	7c e1		 jl	 SHORT $LL13@SetSize

; 472  : 		m_nSize = nNewSize;
; 473  : 		m_nMaxSize = nNewMax;
; 474  : 	}
; 475  : }

  0015f	89 5f 08	 mov	 DWORD PTR [edi+8], ebx
  00162	5f		 pop	 edi
  00163	5e		 pop	 esi
  00164	5b		 pop	 ebx
  00165	8b e5		 mov	 esp, ebp
  00167	5d		 pop	 ebp
  00168	c2 08 00	 ret	 8
$LN24@SetSize:

; 426  : 		}
; 427  : 		m_nSize = nNewSize;
; 428  : 	}
; 429  : 	else
; 430  : 	{
; 431  : 		// otherwise, grow array
; 432  : 		nGrowBy = m_nGrowBy;

  0016b	8b 47 10	 mov	 eax, DWORD PTR [edi+16]

; 433  : 		if (nGrowBy == 0)

  0016e	85 c0		 test	 eax, eax
  00170	75 22		 jne	 SHORT $LN37@SetSize

; 434  : 		{
; 435  : 			// heuristically determine growth when nGrowBy == 0
; 436  : 			//  (this avoids heap fragmentation in many situations)
; 437  : 			nGrowBy = m_nSize / 8;

  00172	8b 47 08	 mov	 eax, DWORD PTR [edi+8]
  00175	99		 cdq
  00176	83 e2 07	 and	 edx, 7
  00179	03 c2		 add	 eax, edx
  0017b	c1 f8 03	 sar	 eax, 3

; 438  : 			nGrowBy = (nGrowBy < 4) ? 4 : ((nGrowBy > 1024) ? 1024 : nGrowBy);

  0017e	83 f8 04	 cmp	 eax, 4
  00181	7d 07		 jge	 SHORT $LN36@SetSize
  00183	b8 04 00 00 00	 mov	 eax, 4
  00188	eb 0a		 jmp	 SHORT $LN37@SetSize
$LN36@SetSize:
  0018a	ba 00 04 00 00	 mov	 edx, 1024		; 00000400H
  0018f	3b c2		 cmp	 eax, edx
  00191	0f 4f c2	 cmovg	 eax, edx
$LN37@SetSize:

; 439  : 		}
; 440  : 		INT_PTR nNewMax;
; 441  : 		if (nNewSize < m_nMaxSize + nGrowBy)

  00194	03 c1		 add	 eax, ecx
  00196	89 45 fc	 mov	 DWORD PTR _nNewMax$1$[ebp], eax
  00199	3b d8		 cmp	 ebx, eax
  0019b	7d 0a		 jge	 SHORT $LN30@SetSize

; 445  : 
; 446  : 		ASSERT(nNewMax >= m_nMaxSize);  // no wrap around
; 447  : 
; 448  : 		if(nNewMax  < m_nMaxSize)

  0019d	3b c1		 cmp	 eax, ecx
  0019f	0f 8c 26 01 00
	00		 jl	 $LN70@SetSize
  001a5	eb 05		 jmp	 SHORT $LN32@SetSize
$LN30@SetSize:

; 442  : 			nNewMax = m_nMaxSize + nGrowBy;  // granularity
; 443  : 		else
; 444  : 			nNewMax = nNewSize;  // no slush

  001a7	8b c3		 mov	 eax, ebx
  001a9	89 5d fc	 mov	 DWORD PTR _nNewMax$1$[ebp], ebx
$LN32@SetSize:

; 450  : 
; 451  : #ifdef SIZE_T_MAX
; 452  : 		ASSERT(nNewMax <= SIZE_T_MAX/sizeof(TYPE)); // no overflow
; 453  : #endif
; 454  : 		TYPE* pNewData = (TYPE*) new BYTE[(size_t)nNewMax * sizeof(TYPE)];

  001ac	8d 04 40	 lea	 eax, DWORD PTR [eax+eax*2]
  001af	c1 e0 03	 shl	 eax, 3
  001b2	50		 push	 eax
  001b3	89 45 08	 mov	 DWORD PTR __S1max$1$[ebp], eax
  001b6	e8 00 00 00 00	 call	 ??_U@YAPAXI@Z		; operator new[]

; 455  : 
; 456  : 		// copy new data from old
; 457  : 		::ATL::Checked::memcpy_s(pNewData, (size_t)nNewMax * sizeof(TYPE),

  001bb	8b 4f 08	 mov	 ecx, DWORD PTR [edi+8]
  001be	83 c4 04	 add	 esp, 4
  001c1	8b 57 04	 mov	 edx, DWORD PTR [edi+4]
  001c4	8b f0		 mov	 esi, eax
  001c6	89 75 0c	 mov	 DWORD PTR _pNewData$1$[ebp], esi
  001c9	89 55 f8	 mov	 DWORD PTR __S2$1$[ebp], edx
  001cc	8d 0c 49	 lea	 ecx, DWORD PTR [ecx+ecx*2]
  001cf	c1 e1 03	 shl	 ecx, 3
  001d2	89 4d f4	 mov	 DWORD PTR __N$1$[ebp], ecx
; File C:\Program Files (x86)\Windows Kits\10\Include\10.0.22000.0\ucrt\corecrt_memcpy_s.h

; 46   :         if (_SourceSize == 0)

  001d5	85 c9		 test	 ecx, ecx
  001d7	75 04		 jne	 SHORT $LN41@SetSize

; 47   :         {
; 48   :             return 0;

  001d9	33 c0		 xor	 eax, eax
  001db	eb 1f		 jmp	 SHORT $LN40@SetSize
$LN41@SetSize:

; 49   :         }
; 50   : 
; 51   :         _CRT_MEMCPY_S_VALIDATE_RETURN_ERRCODE(_Destination != NULL, EINVAL);

  001dd	85 f6		 test	 esi, esi
  001df	0f 85 8b 00 00
	00		 jne	 $LN42@SetSize
$LN73@SetSize:
; File C:\Program Files (x86)\Microsoft Visual Studio\2019\Community\VC\Tools\MSVC\14.29.30133\atlmfc\include\atlchecked.h

; 69   : 	ATLMFC_CRT_ERRORCHECK(::memcpy_s(_S1, _S1max, _S2, _N));

  001e5	ff 15 00 00 00
	00		 call	 DWORD PTR __imp___errno
  001eb	c7 00 16 00 00
	00		 mov	 DWORD PTR [eax], 22	; 00000016H
  001f1	ff 15 00 00 00
	00		 call	 DWORD PTR __imp___invalid_parameter_noinfo
$LN46@SetSize:
  001f7	b8 16 00 00 00	 mov	 eax, 22			; 00000016H
$LN40@SetSize:
  001fc	50		 push	 eax
  001fd	e8 00 00 00 00	 call	 ?AfxCrtErrorCheck@@YAHH@Z ; AfxCrtErrorCheck
; File C:\Program Files (x86)\Microsoft Visual Studio\2019\Community\VC\Tools\MSVC\14.29.30133\atlmfc\include\afxtempl.h

; 462  : 		memset((void*)(pNewData + m_nSize), 0, (size_t)(nNewSize-m_nSize) * sizeof(TYPE));

  00202	8b 4f 08	 mov	 ecx, DWORD PTR [edi+8]
  00205	8b c3		 mov	 eax, ebx
  00207	2b c1		 sub	 eax, ecx
  00209	8d 04 40	 lea	 eax, DWORD PTR [eax+eax*2]
  0020c	c1 e0 03	 shl	 eax, 3
  0020f	50		 push	 eax
  00210	8d 04 49	 lea	 eax, DWORD PTR [ecx+ecx*2]
  00213	8d 04 c6	 lea	 eax, DWORD PTR [esi+eax*8]
  00216	6a 00		 push	 0
  00218	50		 push	 eax
  00219	e8 00 00 00 00	 call	 _memset

; 463  : 		for( int i = 0; i < nNewSize-m_nSize; i++ )

  0021e	8b c3		 mov	 eax, ebx
  00220	83 c4 10	 add	 esp, 16			; 00000010H
  00223	2b 47 08	 sub	 eax, DWORD PTR [edi+8]
  00226	33 f6		 xor	 esi, esi
  00228	85 c0		 test	 eax, eax
  0022a	7e 21		 jle	 SHORT $LN15@SetSize
  0022c	0f 1f 40 00	 npad	 4
$LL16@SetSize:

; 464  : #pragma push_macro("new")
; 465  : #undef new
; 466  : 			::new( (void*)( pNewData + m_nSize + i ) ) TYPE;

  00230	8b 47 08	 mov	 eax, DWORD PTR [edi+8]
  00233	8b 4d 0c	 mov	 ecx, DWORD PTR _pNewData$1$[ebp]
  00236	03 c6		 add	 eax, esi
  00238	8d 04 40	 lea	 eax, DWORD PTR [eax+eax*2]
  0023b	8d 0c c1	 lea	 ecx, DWORD PTR [ecx+eax*8]
  0023e	e8 00 00 00 00	 call	 ??0CData@@QAE@XZ	; CData::CData
  00243	8b c3		 mov	 eax, ebx
  00245	46		 inc	 esi
  00246	2b 47 08	 sub	 eax, DWORD PTR [edi+8]
  00249	3b f0		 cmp	 esi, eax
  0024b	7c e3		 jl	 SHORT $LL16@SetSize
$LN15@SetSize:

; 467  : #pragma pop_macro("new")
; 468  : 
; 469  : 		// get rid of old stuff (note: no destructors called)
; 470  : 		delete[] (BYTE*)m_pData;

  0024d	ff 77 04	 push	 DWORD PTR [edi+4]
  00250	e8 00 00 00 00	 call	 ??_V@YAXPAX@Z		; operator delete[]

; 471  : 		m_pData = pNewData;

  00255	8b 45 0c	 mov	 eax, DWORD PTR _pNewData$1$[ebp]
  00258	83 c4 04	 add	 esp, 4
  0025b	89 47 04	 mov	 DWORD PTR [edi+4], eax

; 472  : 		m_nSize = nNewSize;
; 473  : 		m_nMaxSize = nNewMax;
; 474  : 	}
; 475  : }

  0025e	8b 45 fc	 mov	 eax, DWORD PTR _nNewMax$1$[ebp]
  00261	89 5f 08	 mov	 DWORD PTR [edi+8], ebx
  00264	89 47 0c	 mov	 DWORD PTR [edi+12], eax
  00267	5f		 pop	 edi
  00268	5e		 pop	 esi
  00269	5b		 pop	 ebx
  0026a	8b e5		 mov	 esp, ebp
  0026c	5d		 pop	 ebp
  0026d	c2 08 00	 ret	 8
$LN42@SetSize:
; File C:\Program Files (x86)\Windows Kits\10\Include\10.0.22000.0\ucrt\corecrt_memcpy_s.h

; 52   :         if (_Source == NULL || _DestinationSize < _SourceSize)

  00270	8b 45 08	 mov	 eax, DWORD PTR __S1max$1$[ebp]
  00273	85 d2		 test	 edx, edx
  00275	74 16		 je	 SHORT $LN44@SetSize
  00277	3b c1		 cmp	 eax, ecx
  00279	72 12		 jb	 SHORT $LN44@SetSize

; 58   : 
; 59   :             // Unreachable, but required to suppress /analyze warnings:
; 60   :             return EINVAL;
; 61   :         }
; 62   :         memcpy(_Destination, _Source, _SourceSize);

  0027b	51		 push	 ecx
  0027c	52		 push	 edx
  0027d	56		 push	 esi
  0027e	e8 00 00 00 00	 call	 _memcpy
  00283	83 c4 0c	 add	 esp, 12			; 0000000cH

; 63   :         return 0;

  00286	33 c0		 xor	 eax, eax
  00288	e9 6f ff ff ff	 jmp	 $LN40@SetSize
$LN44@SetSize:

; 53   :         {
; 54   :             memset(_Destination, 0, _DestinationSize);

  0028d	50		 push	 eax
  0028e	6a 00		 push	 0
  00290	56		 push	 esi
  00291	e8 00 00 00 00	 call	 _memset
  00296	83 c4 0c	 add	 esp, 12			; 0000000cH

; 55   : 
; 56   :             _CRT_MEMCPY_S_VALIDATE_RETURN_ERRCODE(_Source != NULL,                 EINVAL);

  00299	83 7d f8 00	 cmp	 DWORD PTR __S2$1$[ebp], 0
  0029d	0f 84 42 ff ff
	ff		 je	 $LN73@SetSize

; 57   :             _CRT_MEMCPY_S_VALIDATE_RETURN_ERRCODE(_DestinationSize >= _SourceSize, ERANGE);

  002a3	8b 45 f4	 mov	 eax, DWORD PTR __N$1$[ebp]
  002a6	39 45 08	 cmp	 DWORD PTR __S1max$1$[ebp], eax
  002a9	0f 83 48 ff ff
	ff		 jae	 $LN46@SetSize
  002af	ff 15 00 00 00
	00		 call	 DWORD PTR __imp___errno
  002b5	c7 00 22 00 00
	00		 mov	 DWORD PTR [eax], 34	; 00000022H
  002bb	ff 15 00 00 00
	00		 call	 DWORD PTR __imp___invalid_parameter_noinfo
  002c1	b8 22 00 00 00	 mov	 eax, 34			; 00000022H
  002c6	e9 31 ff ff ff	 jmp	 $LN40@SetSize
$LN70@SetSize:
; File C:\Program Files (x86)\Microsoft Visual Studio\2019\Community\VC\Tools\MSVC\14.29.30133\atlmfc\include\afxtempl.h

; 449  : 			AfxThrowInvalidArgException();

  002cb	e8 00 00 00 00	 call	 ?AfxThrowInvalidArgException@@YGXXZ ; AfxThrowInvalidArgException
$LN72@SetSize:
  002d0	cc		 int	 3
?SetSize@?$CArray@VCData@@V1@@@QAEXHH@Z ENDP		; CArray<CData,CData>::SetSize
_TEXT	ENDS
; Function compile flags: /Ogtp
; File C:\Program Files (x86)\Microsoft Visual Studio\2019\Community\VC\Tools\MSVC\14.29.30133\atlmfc\include\afxtempl.h
;	COMDAT ??0?$CArray@VCData@@V1@@@QAE@XZ
_TEXT	SEGMENT
??0?$CArray@VCData@@V1@@@QAE@XZ PROC			; CArray<CData,CData>::CArray<CData,CData>, COMDAT
; _this$ = ecx

; 348  : {

  00000	c7 01 00 00 00
	00		 mov	 DWORD PTR [ecx], OFFSET ??_7?$CArray@VCData@@V1@@@6B@

; 349  : 	m_pData = NULL;
; 350  : 	m_nSize = m_nMaxSize = m_nGrowBy = 0;
; 351  : }

  00006	8b c1		 mov	 eax, ecx
  00008	c7 41 04 00 00
	00 00		 mov	 DWORD PTR [ecx+4], 0
  0000f	c7 41 10 00 00
	00 00		 mov	 DWORD PTR [ecx+16], 0
  00016	c7 41 0c 00 00
	00 00		 mov	 DWORD PTR [ecx+12], 0
  0001d	c7 41 08 00 00
	00 00		 mov	 DWORD PTR [ecx+8], 0
  00024	c3		 ret	 0
??0?$CArray@VCData@@V1@@@QAE@XZ ENDP			; CArray<CData,CData>::CArray<CData,CData>
_TEXT	ENDS
; Function compile flags: /Ogtp
; File D:\git\src\IBK\IBK_DRFN\ProjSrc\SrcChartEx\ChartAddIn\ChartDataListViewerAddIn\ChartDataListViewerAddIn\DlgDataListViewer.cpp
; File C:\Program Files (x86)\Microsoft Visual Studio\2019\Community\VC\Tools\MSVC\14.29.30133\atlmfc\include\atlsimpstr.h
; File D:\git\src\IBK\IBK_DRFN\ProjSrc\SrcChartEx\ChartAddIn\ChartDataListViewerAddIn\ChartDataListViewerAddIn\DlgDataListViewer.cpp
; File C:\Program Files (x86)\Microsoft Visual Studio\2019\Community\VC\Tools\MSVC\14.29.30133\atlmfc\include\atlsimpstr.h
; File D:\git\src\IBK\IBK_DRFN\ProjSrc\SrcChartEx\ChartAddIn\ChartDataListViewerAddIn\ChartDataListViewerAddIn\DlgDataListViewer.cpp
; File C:\Program Files (x86)\Microsoft Visual Studio\2019\Community\VC\Tools\MSVC\14.29.30133\atlmfc\include\atlsimpstr.h
; File D:\git\src\IBK\IBK_DRFN\ProjSrc\SrcChartEx\ChartAddIn\ChartDataListViewerAddIn\ChartDataListViewerAddIn\DlgDataListViewer.cpp
; File C:\Program Files (x86)\Microsoft Visual Studio\2019\Community\VC\Tools\MSVC\14.29.30133\atlmfc\include\afx.inl
; File D:\git\src\IBK\IBK_DRFN\ProjSrc\SrcChartEx\ChartAddIn\ChartDataListViewerAddIn\ChartDataListViewerAddIn\DlgDataListViewer.cpp
; File C:\Program Files (x86)\Microsoft Visual Studio\2019\Community\VC\Tools\MSVC\14.29.30133\atlmfc\include\afx.inl
; File D:\git\src\IBK\IBK_DRFN\ProjSrc\SrcChartEx\ChartAddIn\ChartDataListViewerAddIn\ChartDataListViewerAddIn\DlgDataListViewer.cpp
; File D:\git\src\IBK\IBK_DRFN\ProjSrc\SrcChartEx\ChartAddIn\ChartDataListViewerAddIn\Include_AddIn_134221\I134221\_IString.h
; File D:\git\src\IBK\IBK_DRFN\ProjSrc\SrcChartEx\ChartAddIn\ChartDataListViewerAddIn\ChartDataListViewerAddIn\DlgDataListViewer.cpp
; File C:\Program Files (x86)\Microsoft Visual Studio\2019\Community\VC\Tools\MSVC\14.29.30133\atlmfc\include\cstringt.h
; File D:\git\src\IBK\IBK_DRFN\ProjSrc\SrcChartEx\ChartAddIn\ChartDataListViewerAddIn\ChartDataListViewerAddIn\DlgDataListViewer.cpp
; File C:\Program Files (x86)\Microsoft Visual Studio\2019\Community\VC\Tools\MSVC\14.29.30133\atlmfc\include\cstringt.h
; File D:\git\src\IBK\IBK_DRFN\ProjSrc\SrcChartEx\ChartAddIn\ChartDataListViewerAddIn\ChartDataListViewerAddIn\DlgDataListViewer.cpp
; File D:\git\src\IBK\IBK_DRFN\ProjSrc\SrcChartEx\ChartAddIn\ChartDataListViewerAddIn\Include_AddIn_134221\I134221\_IString.h
; File D:\git\src\IBK\IBK_DRFN\ProjSrc\SrcChartEx\ChartAddIn\ChartDataListViewerAddIn\ChartDataListViewerAddIn\DlgDataListViewer.cpp
; File D:\git\src\IBK\IBK_DRFN\ProjSrc\SrcChartEx\ChartAddIn\ChartDataListViewerAddIn\Include_AddIn_134221\I134221\_IString.h
; File D:\git\src\IBK\IBK_DRFN\ProjSrc\SrcChartEx\ChartAddIn\ChartDataListViewerAddIn\ChartDataListViewerAddIn\DlgDataListViewer.cpp
; File C:\Program Files (x86)\Microsoft Visual Studio\2019\Community\VC\Tools\MSVC\14.29.30133\atlmfc\include\cstringt.h
; File D:\git\src\IBK\IBK_DRFN\ProjSrc\SrcChartEx\ChartAddIn\ChartDataListViewerAddIn\ChartDataListViewerAddIn\DlgDataListViewer.cpp
; File C:\Program Files (x86)\Microsoft Visual Studio\2019\Community\VC\Tools\MSVC\14.29.30133\atlmfc\include\afx.inl
; File D:\git\src\IBK\IBK_DRFN\ProjSrc\SrcChartEx\ChartAddIn\ChartDataListViewerAddIn\ChartDataListViewerAddIn\DlgDataListViewer.cpp
; File D:\git\src\IBK\IBK_DRFN\ProjSrc\SrcChartEx\ChartAddIn\ChartDataListViewerAddIn\Include_AddIn_134221\I134221\_IString.h
; File D:\git\src\IBK\IBK_DRFN\ProjSrc\SrcChartEx\ChartAddIn\ChartDataListViewerAddIn\ChartDataListViewerAddIn\DlgDataListViewer.cpp
; File C:\Program Files (x86)\Microsoft Visual Studio\2019\Community\VC\Tools\MSVC\14.29.30133\atlmfc\include\cstringt.h
; File D:\git\src\IBK\IBK_DRFN\ProjSrc\SrcChartEx\ChartAddIn\ChartDataListViewerAddIn\ChartDataListViewerAddIn\DlgDataListViewer.cpp
; File C:\Program Files (x86)\Microsoft Visual Studio\2019\Community\VC\Tools\MSVC\14.29.30133\atlmfc\include\cstringt.h
; File D:\git\src\IBK\IBK_DRFN\ProjSrc\SrcChartEx\ChartAddIn\ChartDataListViewerAddIn\ChartDataListViewerAddIn\DlgDataListViewer.cpp
; File D:\git\src\IBK\IBK_DRFN\ProjSrc\SrcChartEx\ChartAddIn\ChartDataListViewerAddIn\Include_AddIn_134221\I134221\_IString.h
; File D:\git\src\IBK\IBK_DRFN\ProjSrc\SrcChartEx\ChartAddIn\ChartDataListViewerAddIn\ChartDataListViewerAddIn\DlgDataListViewer.cpp
; File D:\git\src\IBK\IBK_DRFN\ProjSrc\SrcChartEx\ChartAddIn\ChartDataListViewerAddIn\Include_AddIn_134221\I134221\_IString.h
; File D:\git\src\IBK\IBK_DRFN\ProjSrc\SrcChartEx\ChartAddIn\ChartDataListViewerAddIn\ChartDataListViewerAddIn\DlgDataListViewer.cpp
; File C:\Program Files (x86)\Microsoft Visual Studio\2019\Community\VC\Tools\MSVC\14.29.30133\atlmfc\include\afxwin2.inl
; File D:\git\src\IBK\IBK_DRFN\ProjSrc\SrcChartEx\ChartAddIn\ChartDataListViewerAddIn\ChartDataListViewerAddIn\DlgDataListViewer.cpp
;	COMDAT ?InsertDatatoList@CDlgDataListViewer@@QAEXABV?$CStringT@DV?$StrTraitMFC_DLL@DV?$ChTraitsCRT@D@ATL@@@@@ATL@@00@Z
_TEXT	SEGMENT
_szPacketType$2 = -92					; size = 8
_szPacketType$3 = -92					; size = 8
_value$4 = -84						; size = 8
$T5 = -80						; size = 4
tv869 = -76						; size = 4
tv870 = -72						; size = 4
$T6 = -68						; size = 4
_szPacketNames$ = -64					; size = 4
_sRQs$ = -60						; size = 4
_sRQ$ = -56						; size = 4
_strPT$ = -52						; size = 4
_strRQs$ = -48						; size = 4
tv876 = -44						; size = 4
_this$1$ = -40						; size = 4
_nPacketCount$1$ = -36					; size = 4
$T7 = -36						; size = 4
_strRQ$ = -32						; size = 4
_nShowRowCount$1$ = -28					; size = 4
$T8 = -28						; size = 4
_i$1$ = -24						; size = 4
_pPacketheader$1$ = -20					; size = 4
$T9 = -20						; size = 4
_strPacketName$ = -16					; size = 4
__$EHRec$ = -12						; size = 12
_strTitles$ = 8						; size = 4
$T10 = 12						; size = 4
$T11 = 12						; size = 4
$T12 = 12						; size = 4
$T13 = 12						; size = 4
_strPacketNames$ = 12					; size = 4
_strPacketNamesPerBlock$ = 16				; size = 4
?InsertDatatoList@CDlgDataListViewer@@QAEXABV?$CStringT@DV?$StrTraitMFC_DLL@DV?$ChTraitsCRT@D@ATL@@@@@ATL@@00@Z PROC ; CDlgDataListViewer::InsertDatatoList, COMDAT
; _this$ = ecx

; 569  : {

  00000	55		 push	 ebp
  00001	8b ec		 mov	 ebp, esp
  00003	6a ff		 push	 -1
  00005	68 00 00 00 00	 push	 __ehhandler$?InsertDatatoList@CDlgDataListViewer@@QAEXABV?$CStringT@DV?$StrTraitMFC_DLL@DV?$ChTraitsCRT@D@ATL@@@@@ATL@@00@Z
  0000a	64 a1 00 00 00
	00		 mov	 eax, DWORD PTR fs:0
  00010	50		 push	 eax
  00011	83 ec 50	 sub	 esp, 80			; 00000050H
  00014	53		 push	 ebx
  00015	56		 push	 esi
  00016	57		 push	 edi
  00017	a1 00 00 00 00	 mov	 eax, DWORD PTR ___security_cookie
  0001c	33 c5		 xor	 eax, ebp
  0001e	50		 push	 eax
  0001f	8d 45 f4	 lea	 eax, DWORD PTR __$EHRec$[ebp]
  00022	64 a3 00 00 00
	00		 mov	 DWORD PTR fs:0, eax
  00028	8b f9		 mov	 edi, ecx
  0002a	89 7d d8	 mov	 DWORD PTR _this$1$[ebp], edi
; File C:\Program Files (x86)\Microsoft Visual Studio\2019\Community\VC\Tools\MSVC\14.29.30133\atlmfc\include\atlsimpstr.h

; 519  : 		return( GetData()->nDataLength );

  0002d	8b 4d 0c	 mov	 ecx, DWORD PTR _strPacketNames$[ebp]
  00030	8b 01		 mov	 eax, DWORD PTR [ecx]

; 533  : 		return( GetLength() == 0 );

  00032	83 78 f4 00	 cmp	 DWORD PTR [eax-12], 0
; File D:\git\src\IBK\IBK_DRFN\ProjSrc\SrcChartEx\ChartAddIn\ChartDataListViewerAddIn\ChartDataListViewerAddIn\DlgDataListViewer.cpp

; 570  : 	if(strPacketNames.IsEmpty()) return ;

  00036	0f 84 18 05 00
	00		 je	 $LN1@InsertData

; 571  : 	CString szPacketNames = strPacketNames;

  0003c	51		 push	 ecx
  0003d	8d 4d c0	 lea	 ecx, DWORD PTR _szPacketNames$[ebp]
  00040	ff 15 00 00 00
	00		 call	 DWORD PTR __imp_??0?$CStringT@DV?$StrTraitMFC_DLL@DV?$ChTraitsCRT@D@ATL@@@@@ATL@@QAE@ABV01@@Z

; 572  : 
; 573  : 	int j = 0, nStart = 0 ;
; 574  : 	
; 575  : 	//20081106  >>
; 576  : 	CString sRQs = m_strRQs;

  00046	8d 87 44 04 00
	00		 lea	 eax, DWORD PTR [edi+1092]
  0004c	c7 45 fc 00 00
	00 00		 mov	 DWORD PTR __$EHRec$[ebp+8], 0
  00053	33 db		 xor	 ebx, ebx
  00055	8d 4d c4	 lea	 ecx, DWORD PTR _sRQs$[ebp]
  00058	50		 push	 eax
  00059	89 5d e8	 mov	 DWORD PTR _i$1$[ebp], ebx
  0005c	ff 15 00 00 00
	00		 call	 DWORD PTR __imp_??0?$CStringT@DV?$StrTraitMFC_DLL@DV?$ChTraitsCRT@D@ATL@@@@@ATL@@QAE@ABV01@@Z

; 577  : 	CString sRQ  = CDataConversion::GetStringData(sRQs, ";");

  00062	68 00 00 00 00	 push	 OFFSET ??_C@_01ICJEACDI@?$DL@
  00067	8d 4d e4	 lea	 ecx, DWORD PTR $T8[ebp]
  0006a	c6 45 fc 01	 mov	 BYTE PTR __$EHRec$[ebp+8], 1
  0006e	ff 15 00 00 00
	00		 call	 DWORD PTR __imp_??0?$CStringT@DV?$StrTraitMFC_DLL@DV?$ChTraitsCRT@D@ATL@@@@@ATL@@QAE@PBD@Z
  00074	6a 01		 push	 1
  00076	8d 45 e4	 lea	 eax, DWORD PTR $T8[ebp]
  00079	c6 45 fc 02	 mov	 BYTE PTR __$EHRec$[ebp+8], 2
  0007d	50		 push	 eax
  0007e	8d 45 c4	 lea	 eax, DWORD PTR _sRQs$[ebp]
  00081	50		 push	 eax
  00082	8d 45 c8	 lea	 eax, DWORD PTR _sRQ$[ebp]
  00085	50		 push	 eax
  00086	e8 00 00 00 00	 call	 ?GetStringData@CDataConversion@@SA?AV?$CStringT@DV?$StrTraitMFC_DLL@DV?$ChTraitsCRT@D@ATL@@@@@ATL@@AAV23@ABV23@_N@Z ; CDataConversion::GetStringData
  0008b	83 c4 10	 add	 esp, 16			; 00000010H
  0008e	8d 4d e4	 lea	 ecx, DWORD PTR $T8[ebp]
  00091	c6 45 fc 04	 mov	 BYTE PTR __$EHRec$[ebp+8], 4
  00095	ff 15 00 00 00
	00		 call	 DWORD PTR __imp_??1?$CStringT@DV?$StrTraitMFC_DLL@DV?$ChTraitsCRT@D@ATL@@@@@ATL@@QAE@XZ

; 578  : 	IPacket * pPacketheader = m_pPacketList->GetPacket( sRQ, m_strHorzScale);

  0009b	8b 8f c0 03 00
	00		 mov	 ecx, DWORD PTR [edi+960]
; File C:\Program Files (x86)\Microsoft Visual Studio\2019\Community\VC\Tools\MSVC\14.29.30133\atlmfc\include\atlsimpstr.h

; 377  : 		return( m_pszData );

  000a1	8d 97 bc 03 00
	00		 lea	 edx, DWORD PTR [edi+956]
; File D:\git\src\IBK\IBK_DRFN\ProjSrc\SrcChartEx\ChartAddIn\ChartDataListViewerAddIn\ChartDataListViewerAddIn\DlgDataListViewer.cpp

; 578  : 	IPacket * pPacketheader = m_pPacketList->GetPacket( sRQ, m_strHorzScale);

  000a7	ff 32		 push	 DWORD PTR [edx]
; File C:\Program Files (x86)\Microsoft Visual Studio\2019\Community\VC\Tools\MSVC\14.29.30133\atlmfc\include\atlsimpstr.h

; 377  : 		return( m_pszData );

  000a9	89 55 d4	 mov	 DWORD PTR tv876[ebp], edx
; File D:\git\src\IBK\IBK_DRFN\ProjSrc\SrcChartEx\ChartAddIn\ChartDataListViewerAddIn\ChartDataListViewerAddIn\DlgDataListViewer.cpp

; 578  : 	IPacket * pPacketheader = m_pPacketList->GetPacket( sRQ, m_strHorzScale);

  000ac	ff 75 c8	 push	 DWORD PTR _sRQ$[ebp]
  000af	8b 01		 mov	 eax, DWORD PTR [ecx]
  000b1	ff 50 10	 call	 DWORD PTR [eax+16]
  000b4	8b f0		 mov	 esi, eax
  000b6	89 75 ec	 mov	 DWORD PTR _pPacketheader$1$[ebp], esi

; 579  : 	//IPacket * pPacketheader = m_pPacketList->GetPacket( m_strHorzScale);
; 580  : 	//20081106  <<
; 581  : 
; 582  : 	if( pPacketheader)

  000b9	85 f6		 test	 esi, esi
  000bb	74 0e		 je	 SHORT $LN9@InsertData

; 583  : 	{
; 584  : 		nStart++ ;

  000bd	bb 01 00 00 00	 mov	 ebx, 1
  000c2	89 5d e8	 mov	 DWORD PTR _i$1$[ebp], ebx

; 585  : 		m_bPacketHeader = TRUE;

  000c5	89 9f b4 00 00
	00		 mov	 DWORD PTR [edi+180], ebx
$LN9@InsertData:

; 586  : 	}
; 587  : 	// insert data value
; 588  : 	CString strPT = strPacketNames;

  000cb	ff 75 0c	 push	 DWORD PTR _strPacketNames$[ebp]
  000ce	8d 4d cc	 lea	 ecx, DWORD PTR _strPT$[ebp]
  000d1	ff 15 00 00 00
	00		 call	 DWORD PTR __imp_??0?$CStringT@DV?$StrTraitMFC_DLL@DV?$ChTraitsCRT@D@ATL@@@@@ATL@@QAE@ABV01@@Z

; 589  : 	int nPacketCount = CDataConversion::GetStringDataCount(szPacketNames, ",");

  000d7	68 00 00 00 00	 push	 OFFSET ??_C@_01IHBHIGKO@?0@
  000dc	8d 4d 0c	 lea	 ecx, DWORD PTR $T13[ebp]
  000df	c6 45 fc 05	 mov	 BYTE PTR __$EHRec$[ebp+8], 5
  000e3	ff 15 00 00 00
	00		 call	 DWORD PTR __imp_??0?$CStringT@DV?$StrTraitMFC_DLL@DV?$ChTraitsCRT@D@ATL@@@@@ATL@@QAE@PBD@Z
  000e9	8d 45 0c	 lea	 eax, DWORD PTR $T13[ebp]
  000ec	c6 45 fc 06	 mov	 BYTE PTR __$EHRec$[ebp+8], 6
  000f0	50		 push	 eax
  000f1	8d 45 c0	 lea	 eax, DWORD PTR _szPacketNames$[ebp]
  000f4	50		 push	 eax
  000f5	e8 00 00 00 00	 call	 ?GetStringDataCount@CDataConversion@@SAHABV?$CStringT@DV?$StrTraitMFC_DLL@DV?$ChTraitsCRT@D@ATL@@@@@ATL@@0@Z ; CDataConversion::GetStringDataCount
  000fa	83 c4 08	 add	 esp, 8
  000fd	89 45 dc	 mov	 DWORD PTR _nPacketCount$1$[ebp], eax
  00100	8d 4d 0c	 lea	 ecx, DWORD PTR $T13[ebp]
  00103	c6 45 fc 05	 mov	 BYTE PTR __$EHRec$[ebp+8], 5
  00107	ff 15 00 00 00
	00		 call	 DWORD PTR __imp_??1?$CStringT@DV?$StrTraitMFC_DLL@DV?$ChTraitsCRT@D@ATL@@@@@ATL@@QAE@XZ

; 592  : 	int nRowCount = pPacketheader->GetDataCount();

  0010d	8b 16		 mov	 edx, DWORD PTR [esi]
  0010f	8b ce		 mov	 ecx, esi
  00111	ff 52 2c	 call	 DWORD PTR [edx+44]
  00114	8b c8		 mov	 ecx, eax

; 593  : 	//nRowCount = m_pPacketList->GetMaximumDataCount( szPacketNames);
; 594  : 	//20081106  <<
; 595  : 
; 596  : 	// row
; 597  : 	// 1st column data
; 598  : 	m_nPacketCount = nPacketCount;

  00116	8b 45 dc	 mov	 eax, DWORD PTR _nPacketCount$1$[ebp]
; File C:\Program Files (x86)\Microsoft Visual Studio\2019\Community\VC\Tools\MSVC\14.29.30133\atlmfc\include\afx.inl

; 116  : 	{ return ::operator new(nSize); }

  00119	6a 18		 push	 24			; 00000018H
; File D:\git\src\IBK\IBK_DRFN\ProjSrc\SrcChartEx\ChartAddIn\ChartDataListViewerAddIn\ChartDataListViewerAddIn\DlgDataListViewer.cpp

; 592  : 	int nRowCount = pPacketheader->GetDataCount();

  0011b	89 4d e4	 mov	 DWORD PTR _nShowRowCount$1$[ebp], ecx

; 593  : 	//nRowCount = m_pPacketList->GetMaximumDataCount( szPacketNames);
; 594  : 	//20081106  <<
; 595  : 
; 596  : 	// row
; 597  : 	// 1st column data
; 598  : 	m_nPacketCount = nPacketCount;

  0011e	89 87 14 04 00
	00		 mov	 DWORD PTR [edi+1044], eax

; 599  : 	m_nRowCount = nRowCount;

  00124	89 8f 18 04 00
	00		 mov	 DWORD PTR [edi+1048], ecx
; File C:\Program Files (x86)\Microsoft Visual Studio\2019\Community\VC\Tools\MSVC\14.29.30133\atlmfc\include\afx.inl

; 116  : 	{ return ::operator new(nSize); }

  0012a	e8 00 00 00 00	 call	 ??2@YAPAXI@Z		; operator new
  0012f	83 c4 04	 add	 esp, 4
; File D:\git\src\IBK\IBK_DRFN\ProjSrc\SrcChartEx\ChartAddIn\ChartDataListViewerAddIn\ChartDataListViewerAddIn\DlgDataListViewer.cpp

; 607  : 		pData = new CData;

  00132	89 45 0c	 mov	 DWORD PTR $T12[ebp], eax
  00135	c6 45 fc 07	 mov	 BYTE PTR __$EHRec$[ebp+8], 7
  00139	85 c0		 test	 eax, eax
  0013b	74 0c		 je	 SHORT $LN28@InsertData
  0013d	8b c8		 mov	 ecx, eax
  0013f	e8 00 00 00 00	 call	 ??0CData@@QAE@XZ	; CData::CData
  00144	89 45 0c	 mov	 DWORD PTR $T10[ebp], eax
  00147	eb 07		 jmp	 SHORT $LN29@InsertData
$LN28@InsertData:
  00149	c7 45 0c 00 00
	00 00		 mov	 DWORD PTR $T10[ebp], 0
$LN29@InsertData:

; 608  : 		ILPCSTR szPacketType = pPacketheader->GetType();

  00150	8b 06		 mov	 eax, DWORD PTR [esi]
  00152	8b ce		 mov	 ecx, esi
  00154	6a 01		 push	 1
  00156	c6 45 fc 05	 mov	 BYTE PTR __$EHRec$[ebp+8], 5
  0015a	ff 50 1c	 call	 DWORD PTR [eax+28]
; File D:\git\src\IBK\IBK_DRFN\ProjSrc\SrcChartEx\ChartAddIn\ChartDataListViewerAddIn\Include_AddIn_134221\I134221\_IString.h

; 39   : 		m_pIStrData = p_pIString;	// Do not AddRef(). Because It must be Return Value.

  0015d	89 45 a8	 mov	 DWORD PTR _szPacketType$3[ebp+4], eax

; 40   : 		if( m_pIStrData) m_szData = m_pIStrData->GetData();

  00160	85 c0		 test	 eax, eax
  00162	74 0b		 je	 SHORT $LN64@InsertData
  00164	8b 10		 mov	 edx, DWORD PTR [eax]
  00166	8b c8		 mov	 ecx, eax
  00168	ff 52 10	 call	 DWORD PTR [edx+16]
  0016b	8b c8		 mov	 ecx, eax
  0016d	eb 02		 jmp	 SHORT $LN105@InsertData
$LN64@InsertData:

; 41   : 		else m_szData = NULL;

  0016f	33 c9		 xor	 ecx, ecx
$LN105@InsertData:
; File D:\git\src\IBK\IBK_DRFN\ProjSrc\SrcChartEx\ChartAddIn\ChartDataListViewerAddIn\ChartDataListViewerAddIn\DlgDataListViewer.cpp

; 608  : 		ILPCSTR szPacketType = pPacketheader->GetType();

  00171	89 4d a4	 mov	 DWORD PTR _szPacketType$3[ebp], ecx

; 609  : 		pData->m_strPacketType = szPacketType;

  00174	8b 75 0c	 mov	 esi, DWORD PTR $T10[ebp]
  00177	51		 push	 ecx
  00178	c6 45 fc 08	 mov	 BYTE PTR __$EHRec$[ebp+8], 8
  0017c	8d 4e 0c	 lea	 ecx, DWORD PTR [esi+12]
  0017f	ff 15 00 00 00
	00		 call	 DWORD PTR __imp_??4?$CStringT@DV?$StrTraitMFC_DLL@DV?$ChTraitsCRT@D@ATL@@@@@ATL@@QAEAAV01@PBD@Z

; 610  : 		pData->m_lDataCount = pPacketheader->GetDataCount();

  00185	8b 4d ec	 mov	 ecx, DWORD PTR _pPacketheader$1$[ebp]
  00188	8b 01		 mov	 eax, DWORD PTR [ecx]
  0018a	ff 50 2c	 call	 DWORD PTR [eax+44]
  0018d	8b ce		 mov	 ecx, esi
  0018f	89 41 04	 mov	 DWORD PTR [ecx+4], eax
; File C:\Program Files (x86)\Microsoft Visual Studio\2019\Community\VC\Tools\MSVC\14.29.30133\atlmfc\include\cstringt.h

; 2486 : 		return(str1.Compare(psz2) == 0);

  00192	8d 4e 0c	 lea	 ecx, DWORD PTR [esi+12]
; File D:\git\src\IBK\IBK_DRFN\ProjSrc\SrcChartEx\ChartAddIn\ChartDataListViewerAddIn\ChartDataListViewerAddIn\DlgDataListViewer.cpp

; 612  : 		if( pData->m_strPacketType == _MTEXT(C6_CHARACTER))

  00195	a1 54 00 00 00	 mov	 eax, DWORD PTR ?g_iMetaTable@@3VIMetaTable@@A+84
; File C:\Program Files (x86)\Microsoft Visual Studio\2019\Community\VC\Tools\MSVC\14.29.30133\atlmfc\include\cstringt.h

; 2486 : 		return(str1.Compare(psz2) == 0);

  0019a	ff b0 60 09 00
	00		 push	 DWORD PTR [eax+2400]
  001a0	ff 15 00 00 00
	00		 call	 DWORD PTR __imp_?Compare@?$CStringT@DV?$StrTraitMFC_DLL@DV?$ChTraitsCRT@D@ATL@@@@@ATL@@QBEHPBD@Z
  001a6	85 c0		 test	 eax, eax
; File D:\git\src\IBK\IBK_DRFN\ProjSrc\SrcChartEx\ChartAddIn\ChartDataListViewerAddIn\ChartDataListViewerAddIn\DlgDataListViewer.cpp

; 612  : 		if( pData->m_strPacketType == _MTEXT(C6_CHARACTER))

  001a8	75 1a		 jne	 SHORT $LN11@InsertData

; 613  : 		{
; 614  : 			if( pData->m_pistrDataList) pData->m_pistrDataList->Release();

  001aa	8b 4e 10	 mov	 ecx, DWORD PTR [esi+16]
  001ad	85 c9		 test	 ecx, ecx
  001af	74 06		 je	 SHORT $LN13@InsertData
  001b1	8b 01		 mov	 eax, DWORD PTR [ecx]
  001b3	51		 push	 ecx
  001b4	ff 50 08	 call	 DWORD PTR [eax+8]
$LN13@InsertData:

; 615  : 			pData->m_pistrDataList = pPacketheader->GetStrDataList();

  001b7	8b 4d ec	 mov	 ecx, DWORD PTR _pPacketheader$1$[ebp]
  001ba	8b 01		 mov	 eax, DWORD PTR [ecx]
  001bc	ff 50 58	 call	 DWORD PTR [eax+88]
  001bf	89 46 10	 mov	 DWORD PTR [esi+16], eax

; 616  : 		}

  001c2	eb 73		 jmp	 SHORT $LN3@InsertData
$LN11@InsertData:

; 617  : 		else
; 618  : 		{
; 619  : 			if( pData->m_pidDataList) pData->m_pidDataList->Release();

  001c4	8b 4e 14	 mov	 ecx, DWORD PTR [esi+20]
  001c7	85 c9		 test	 ecx, ecx
  001c9	74 06		 je	 SHORT $LN14@InsertData
  001cb	8b 01		 mov	 eax, DWORD PTR [ecx]
  001cd	51		 push	 ecx
  001ce	ff 50 08	 call	 DWORD PTR [eax+8]
$LN14@InsertData:

; 620  : 			pData->m_pidDataList = pPacketheader->GetDataList();

  001d1	8b 4d ec	 mov	 ecx, DWORD PTR _pPacketheader$1$[ebp]
  001d4	8b 01		 mov	 eax, DWORD PTR [ecx]
  001d6	ff 50 54	 call	 DWORD PTR [eax+84]
  001d9	89 46 14	 mov	 DWORD PTR [esi+20], eax

; 621  : 			for(j = 0; j < m_nRowCount; j++)

  001dc	33 f6		 xor	 esi, esi
  001de	39 b7 18 04 00
	00		 cmp	 DWORD PTR [edi+1048], esi
  001e4	7e 51		 jle	 SHORT $LN3@InsertData
  001e6	8b 5d ec	 mov	 ebx, DWORD PTR _pPacketheader$1$[ebp]
  001e9	0f 1f 80 00 00
	00 00		 npad	 7
$LL4@InsertData:

; 622  : 			{
; 623  : 				double value = 0.0;
; 624  : 				pPacketheader->GetData(j, value);

  001f0	8b 03		 mov	 eax, DWORD PTR [ebx]
  001f2	8d 4d ac	 lea	 ecx, DWORD PTR _value$4[ebp]
  001f5	51		 push	 ecx
  001f6	0f 57 c0	 xorps	 xmm0, xmm0
  001f9	8b cb		 mov	 ecx, ebx
  001fb	56		 push	 esi
  001fc	f2 0f 11 45 ac	 movsd	 QWORD PTR _value$4[ebp], xmm0
  00201	ff 50 40	 call	 DWORD PTR [eax+64]

; 625  : 				//sy 2004.2.16.
; 626  : 				//->   .    .
; 627  : 				if(value == ERRORVALUE || value == -ERRORVALUE)

  00204	f2 0f 10 45 ac	 movsd	 xmm0, QWORD PTR _value$4[ebp]
  00209	66 0f 2e 05 00
	00 00 00	 ucomisd xmm0, QWORD PTR __real@ffefffffffffffff
  00211	9f		 lahf
  00212	f6 c4 44	 test	 ah, 68			; 00000044H
  00215	7b 0e		 jnp	 SHORT $LN16@InsertData
  00217	66 0f 2e 05 00
	00 00 00	 ucomisd xmm0, QWORD PTR __real@7fefffffffffffff
  0021f	9f		 lahf
  00220	f6 c4 44	 test	 ah, 68			; 00000044H
  00223	7a 06		 jp	 SHORT $LN2@InsertData
$LN16@InsertData:

; 628  : 					m_nFutureDateCount++;

  00225	ff 87 e0 03 00
	00		 inc	 DWORD PTR [edi+992]
$LN2@InsertData:

; 621  : 			for(j = 0; j < m_nRowCount; j++)

  0022b	46		 inc	 esi
  0022c	3b b7 18 04 00
	00		 cmp	 esi, DWORD PTR [edi+1048]
  00232	7c bc		 jl	 SHORT $LL4@InsertData
  00234	8b 5d e8	 mov	 ebx, DWORD PTR _i$1$[ebp]
$LN3@InsertData:

; 629  : 			}
; 630  : 		}
; 631  : 
; 632  : 		m_DataList.AddTail(pData);

  00237	ff 75 0c	 push	 DWORD PTR $T10[ebp]
  0023a	8d 87 f8 03 00
	00		 lea	 eax, DWORD PTR [edi+1016]
  00240	8b c8		 mov	 ecx, eax
  00242	89 45 b8	 mov	 DWORD PTR tv870[ebp], eax
  00245	e8 00 00 00 00	 call	 ?AddTail@CObList@@QAEPAU__POSITION@@PAVCObject@@@Z ; CObList::AddTail

; 633  : 		pPacketheader->Release();

  0024a	8b 4d ec	 mov	 ecx, DWORD PTR _pPacketheader$1$[ebp]
  0024d	51		 push	 ecx
  0024e	8b 01		 mov	 eax, DWORD PTR [ecx]
  00250	ff 50 08	 call	 DWORD PTR [eax+8]
; File D:\git\src\IBK\IBK_DRFN\ProjSrc\SrcChartEx\ChartAddIn\ChartDataListViewerAddIn\Include_AddIn_134221\I134221\_IString.h

; 45   : 		if( m_pIStrData)

  00253	8b 4d a8	 mov	 ecx, DWORD PTR _szPacketType$3[ebp+4]
  00256	c6 45 fc 09	 mov	 BYTE PTR __$EHRec$[ebp+8], 9
  0025a	85 c9		 test	 ecx, ecx
  0025c	74 06		 je	 SHORT $LN70@InsertData

; 46   : 		{
; 47   : 			m_pIStrData->Release();

  0025e	8b 01		 mov	 eax, DWORD PTR [ecx]
  00260	51		 push	 ecx
  00261	ff 50 08	 call	 DWORD PTR [eax+8]
$LN70@InsertData:
; File D:\git\src\IBK\IBK_DRFN\ProjSrc\SrcChartEx\ChartAddIn\ChartDataListViewerAddIn\ChartDataListViewerAddIn\DlgDataListViewer.cpp

; 637  : 	CString strRQs = m_strRQs;

  00264	8d 87 44 04 00
	00		 lea	 eax, DWORD PTR [edi+1092]
; File D:\git\src\IBK\IBK_DRFN\ProjSrc\SrcChartEx\ChartAddIn\ChartDataListViewerAddIn\Include_AddIn_134221\I134221\_IString.h

; 51   : 	}

  0026a	c6 45 fc 05	 mov	 BYTE PTR __$EHRec$[ebp+8], 5
; File D:\git\src\IBK\IBK_DRFN\ProjSrc\SrcChartEx\ChartAddIn\ChartDataListViewerAddIn\ChartDataListViewerAddIn\DlgDataListViewer.cpp

; 637  : 	CString strRQs = m_strRQs;

  0026e	50		 push	 eax
  0026f	8d 4d d0	 lea	 ecx, DWORD PTR _strRQs$[ebp]
  00272	ff 15 00 00 00
	00		 call	 DWORD PTR __imp_??0?$CStringT@DV?$StrTraitMFC_DLL@DV?$ChTraitsCRT@D@ATL@@@@@ATL@@QAE@ABV01@@Z

; 638  : 	CString strPacketName, strRQ;

  00278	8d 4d f0	 lea	 ecx, DWORD PTR _strPacketName$[ebp]
  0027b	ff 15 00 00 00
	00		 call	 DWORD PTR __imp_??0?$CStringT@DV?$StrTraitMFC_DLL@DV?$ChTraitsCRT@D@ATL@@@@@ATL@@QAE@XZ
  00281	8d 4d e0	 lea	 ecx, DWORD PTR _strRQ$[ebp]
  00284	ff 15 00 00 00
	00		 call	 DWORD PTR __imp_??0?$CStringT@DV?$StrTraitMFC_DLL@DV?$ChTraitsCRT@D@ATL@@@@@ATL@@QAE@XZ

; 640  : 	for(int i = nStart ; i < nPacketCount + nStart ; i++)

  0028a	8b 45 dc	 mov	 eax, DWORD PTR _nPacketCount$1$[ebp]
  0028d	03 c3		 add	 eax, ebx
  0028f	c6 45 fc 0c	 mov	 BYTE PTR __$EHRec$[ebp+8], 12 ; 0000000cH
  00293	89 45 b4	 mov	 DWORD PTR tv869[ebp], eax
  00296	3b d8		 cmp	 ebx, eax
  00298	0f 8d 42 02 00
	00		 jge	 $LN6@InsertData
  0029e	8d b7 bc 03 00
	00		 lea	 esi, DWORD PTR [edi+956]
  002a4	0f 1f 40 00 0f
	1f 84 00 00 00
	00 00		 npad	 12
$LL7@InsertData:

; 641  : 	{
; 642  : 		strPacketName = CDataConversion::GetStringData(strPT, ",");

  002b0	68 00 00 00 00	 push	 OFFSET ??_C@_01IHBHIGKO@?0@
  002b5	8d 4d 0c	 lea	 ecx, DWORD PTR $T11[ebp]
  002b8	ff 15 00 00 00
	00		 call	 DWORD PTR __imp_??0?$CStringT@DV?$StrTraitMFC_DLL@DV?$ChTraitsCRT@D@ATL@@@@@ATL@@QAE@PBD@Z
  002be	6a 01		 push	 1
  002c0	8d 45 0c	 lea	 eax, DWORD PTR $T11[ebp]
  002c3	c6 45 fc 0d	 mov	 BYTE PTR __$EHRec$[ebp+8], 13 ; 0000000dH
  002c7	50		 push	 eax
  002c8	8d 45 cc	 lea	 eax, DWORD PTR _strPT$[ebp]
  002cb	50		 push	 eax
  002cc	8d 45 ec	 lea	 eax, DWORD PTR $T9[ebp]
  002cf	50		 push	 eax
  002d0	e8 00 00 00 00	 call	 ?GetStringData@CDataConversion@@SA?AV?$CStringT@DV?$StrTraitMFC_DLL@DV?$ChTraitsCRT@D@ATL@@@@@ATL@@AAV23@ABV23@_N@Z ; CDataConversion::GetStringData
  002d5	83 c4 10	 add	 esp, 16			; 00000010H
  002d8	50		 push	 eax
  002d9	8d 4d f0	 lea	 ecx, DWORD PTR _strPacketName$[ebp]
  002dc	c6 45 fc 0e	 mov	 BYTE PTR __$EHRec$[ebp+8], 14 ; 0000000eH
  002e0	ff 15 00 00 00
	00		 call	 DWORD PTR __imp_??4?$CStringT@DV?$StrTraitMFC_DLL@DV?$ChTraitsCRT@D@ATL@@@@@ATL@@QAEAAV01@ABV01@@Z
  002e6	8d 4d ec	 lea	 ecx, DWORD PTR $T9[ebp]
  002e9	ff 15 00 00 00
	00		 call	 DWORD PTR __imp_??1?$CStringT@DV?$StrTraitMFC_DLL@DV?$ChTraitsCRT@D@ATL@@@@@ATL@@QAE@XZ
  002ef	8d 4d 0c	 lea	 ecx, DWORD PTR $T11[ebp]
  002f2	c6 45 fc 0c	 mov	 BYTE PTR __$EHRec$[ebp+8], 12 ; 0000000cH
  002f6	ff 15 00 00 00
	00		 call	 DWORD PTR __imp_??1?$CStringT@DV?$StrTraitMFC_DLL@DV?$ChTraitsCRT@D@ATL@@@@@ATL@@QAE@XZ

; 647  : 			|| strPacketName == m_strHorzScale)

  002fc	a1 54 00 00 00	 mov	 eax, DWORD PTR ?g_iMetaTable@@3VIMetaTable@@A+84
  00301	8d 4d f0	 lea	 ecx, DWORD PTR _strPacketName$[ebp]
  00304	6a 00		 push	 0
  00306	ff 30		 push	 DWORD PTR [eax]
  00308	ff 15 00 00 00
	00		 call	 DWORD PTR __imp_?Find@?$CStringT@DV?$StrTraitMFC_DLL@DV?$ChTraitsCRT@D@ATL@@@@@ATL@@QBEHPBDH@Z
  0030e	85 c0		 test	 eax, eax
  00310	78 15		 js	 SHORT $LN19@InsertData
  00312	a1 54 00 00 00	 mov	 eax, DWORD PTR ?g_iMetaTable@@3VIMetaTable@@A+84
  00317	8b ce		 mov	 ecx, esi
  00319	6a 00		 push	 0
  0031b	ff 30		 push	 DWORD PTR [eax]
  0031d	ff 15 00 00 00
	00		 call	 DWORD PTR __imp_?Find@?$CStringT@DV?$StrTraitMFC_DLL@DV?$ChTraitsCRT@D@ATL@@@@@ATL@@QBEHPBDH@Z
  00323	85 c0		 test	 eax, eax
  00325	79 19		 jns	 SHORT $LN18@InsertData
$LN19@InsertData:
; File C:\Program Files (x86)\Microsoft Visual Studio\2019\Community\VC\Tools\MSVC\14.29.30133\atlmfc\include\cstringt.h

; 2479 : 		return(str1.Compare(str2) == 0);

  00327	ff b7 bc 03 00
	00		 push	 DWORD PTR [edi+956]
  0032d	8d 4d f0	 lea	 ecx, DWORD PTR _strPacketName$[ebp]
  00330	ff 15 00 00 00
	00		 call	 DWORD PTR __imp_?Compare@?$CStringT@DV?$StrTraitMFC_DLL@DV?$ChTraitsCRT@D@ATL@@@@@ATL@@QBEHPBD@Z
  00336	85 c0		 test	 eax, eax
; File D:\git\src\IBK\IBK_DRFN\ProjSrc\SrcChartEx\ChartAddIn\ChartDataListViewerAddIn\ChartDataListViewerAddIn\DlgDataListViewer.cpp

; 647  : 			|| strPacketName == m_strHorzScale)

  00338	75 0c		 jne	 SHORT $LN17@InsertData
  0033a	8d b7 bc 03 00
	00		 lea	 esi, DWORD PTR [edi+956]
$LN18@InsertData:

; 648  : 		{
; 649  : 			i--;

  00340	4b		 dec	 ebx

; 650  : 			continue;

  00341	e9 8d 01 00 00	 jmp	 $LN5@InsertData
$LN17@InsertData:

; 651  : 		}
; 652  : 
; 653  : 		if((strPacketName.Find("Zig_Index") >= 0) || (strPacketName.Find("CLC_") >= 0))

  00346	6a 00		 push	 0
  00348	68 00 00 00 00	 push	 OFFSET ??_C@_09FONLIOOC@Zig_Index@
  0034d	8d 4d f0	 lea	 ecx, DWORD PTR _strPacketName$[ebp]
  00350	ff 15 00 00 00
	00		 call	 DWORD PTR __imp_?Find@?$CStringT@DV?$StrTraitMFC_DLL@DV?$ChTraitsCRT@D@ATL@@@@@ATL@@QBEHPBDH@Z
  00356	85 c0		 test	 eax, eax
  00358	0f 89 0a 02 00
	00		 jns	 $LN21@InsertData
  0035e	6a 00		 push	 0
  00360	68 00 00 00 00	 push	 OFFSET ??_C@_0L@EJDGIBBA@CLC_?F?w?$MA?N?F?$KO@
  00365	8d 4d f0	 lea	 ecx, DWORD PTR _strPacketName$[ebp]
  00368	ff 15 00 00 00
	00		 call	 DWORD PTR __imp_?Find@?$CStringT@DV?$StrTraitMFC_DLL@DV?$ChTraitsCRT@D@ATL@@@@@ATL@@QBEHPBDH@Z
  0036e	85 c0		 test	 eax, eax
  00370	0f 89 f2 01 00
	00		 jns	 $LN21@InsertData

; 656  : 			continue;
; 657  : 		}
; 658  : 		//{{2007.05.16 by LYH  	
; 659  : 		//IPacket * pPacket = m_pPacketList->GetPacket(strPacketName);
; 660  : 		strRQ = CDataConversion::GetStringData(strRQs, ";");

  00376	68 00 00 00 00	 push	 OFFSET ??_C@_01ICJEACDI@?$DL@
  0037b	8d 4d dc	 lea	 ecx, DWORD PTR $T7[ebp]
  0037e	ff 15 00 00 00
	00		 call	 DWORD PTR __imp_??0?$CStringT@DV?$StrTraitMFC_DLL@DV?$ChTraitsCRT@D@ATL@@@@@ATL@@QAE@PBD@Z
  00384	6a 01		 push	 1
  00386	8d 45 dc	 lea	 eax, DWORD PTR $T7[ebp]
  00389	c6 45 fc 0f	 mov	 BYTE PTR __$EHRec$[ebp+8], 15 ; 0000000fH
  0038d	50		 push	 eax
  0038e	8d 45 d0	 lea	 eax, DWORD PTR _strRQs$[ebp]
  00391	50		 push	 eax
  00392	8d 45 bc	 lea	 eax, DWORD PTR $T6[ebp]
  00395	50		 push	 eax
  00396	e8 00 00 00 00	 call	 ?GetStringData@CDataConversion@@SA?AV?$CStringT@DV?$StrTraitMFC_DLL@DV?$ChTraitsCRT@D@ATL@@@@@ATL@@AAV23@ABV23@_N@Z ; CDataConversion::GetStringData
  0039b	83 c4 10	 add	 esp, 16			; 00000010H
  0039e	50		 push	 eax
  0039f	8d 4d e0	 lea	 ecx, DWORD PTR _strRQ$[ebp]
  003a2	c6 45 fc 10	 mov	 BYTE PTR __$EHRec$[ebp+8], 16 ; 00000010H
  003a6	ff 15 00 00 00
	00		 call	 DWORD PTR __imp_??4?$CStringT@DV?$StrTraitMFC_DLL@DV?$ChTraitsCRT@D@ATL@@@@@ATL@@QAEAAV01@ABV01@@Z
  003ac	8d 4d bc	 lea	 ecx, DWORD PTR $T6[ebp]
  003af	ff 15 00 00 00
	00		 call	 DWORD PTR __imp_??1?$CStringT@DV?$StrTraitMFC_DLL@DV?$ChTraitsCRT@D@ATL@@@@@ATL@@QAE@XZ
  003b5	8d 4d dc	 lea	 ecx, DWORD PTR $T7[ebp]
  003b8	c6 45 fc 0c	 mov	 BYTE PTR __$EHRec$[ebp+8], 12 ; 0000000cH
  003bc	ff 15 00 00 00
	00		 call	 DWORD PTR __imp_??1?$CStringT@DV?$StrTraitMFC_DLL@DV?$ChTraitsCRT@D@ATL@@@@@ATL@@QAE@XZ

; 661  : 		IPacket * pPacket = m_pPacketList->GetPacket(strRQ, strPacketName);

  003c2	8b 8f c0 03 00
	00		 mov	 ecx, DWORD PTR [edi+960]
  003c8	ff 75 f0	 push	 DWORD PTR _strPacketName$[ebp]
  003cb	ff 75 e0	 push	 DWORD PTR _strRQ$[ebp]
  003ce	8b 01		 mov	 eax, DWORD PTR [ecx]
  003d0	ff 50 10	 call	 DWORD PTR [eax+16]
  003d3	8b f8		 mov	 edi, eax

; 662  : 		//}}
; 663  : 		if(!pPacket) continue;

  003d5	85 ff		 test	 edi, edi
  003d7	0f 84 f0 00 00
	00		 je	 $LN103@InsertData
; File C:\Program Files (x86)\Microsoft Visual Studio\2019\Community\VC\Tools\MSVC\14.29.30133\atlmfc\include\afx.inl

; 116  : 	{ return ::operator new(nSize); }

  003dd	6a 18		 push	 24			; 00000018H
  003df	e8 00 00 00 00	 call	 ??2@YAPAXI@Z		; operator new
  003e4	83 c4 04	 add	 esp, 4
; File D:\git\src\IBK\IBK_DRFN\ProjSrc\SrcChartEx\ChartAddIn\ChartDataListViewerAddIn\ChartDataListViewerAddIn\DlgDataListViewer.cpp

; 665  : 		pData = new CData;

  003e7	89 45 b0	 mov	 DWORD PTR $T5[ebp], eax
  003ea	c6 45 fc 11	 mov	 BYTE PTR __$EHRec$[ebp+8], 17 ; 00000011H
  003ee	85 c0		 test	 eax, eax
  003f0	74 0b		 je	 SHORT $LN30@InsertData
  003f2	8b c8		 mov	 ecx, eax
  003f4	e8 00 00 00 00	 call	 ??0CData@@QAE@XZ	; CData::CData
  003f9	8b d8		 mov	 ebx, eax
  003fb	eb 02		 jmp	 SHORT $LN31@InsertData
$LN30@InsertData:
  003fd	33 db		 xor	 ebx, ebx
$LN31@InsertData:

; 666  : 		ILPCSTR szPacketType = pPacket->GetType();

  003ff	8b 07		 mov	 eax, DWORD PTR [edi]
  00401	8b cf		 mov	 ecx, edi
  00403	6a 01		 push	 1
  00405	c6 45 fc 0c	 mov	 BYTE PTR __$EHRec$[ebp+8], 12 ; 0000000cH
  00409	ff 50 1c	 call	 DWORD PTR [eax+28]
; File D:\git\src\IBK\IBK_DRFN\ProjSrc\SrcChartEx\ChartAddIn\ChartDataListViewerAddIn\Include_AddIn_134221\I134221\_IString.h

; 39   : 		m_pIStrData = p_pIString;	// Do not AddRef(). Because It must be Return Value.

  0040c	89 45 a8	 mov	 DWORD PTR _szPacketType$2[ebp+4], eax

; 40   : 		if( m_pIStrData) m_szData = m_pIStrData->GetData();

  0040f	85 c0		 test	 eax, eax
  00411	74 09		 je	 SHORT $LN84@InsertData
  00413	8b 10		 mov	 edx, DWORD PTR [eax]
  00415	8b c8		 mov	 ecx, eax
  00417	ff 52 10	 call	 DWORD PTR [edx+16]
  0041a	eb 02		 jmp	 SHORT $LN106@InsertData
$LN84@InsertData:

; 41   : 		else m_szData = NULL;

  0041c	33 c0		 xor	 eax, eax
$LN106@InsertData:
; File D:\git\src\IBK\IBK_DRFN\ProjSrc\SrcChartEx\ChartAddIn\ChartDataListViewerAddIn\ChartDataListViewerAddIn\DlgDataListViewer.cpp

; 666  : 		ILPCSTR szPacketType = pPacket->GetType();

  0041e	89 45 a4	 mov	 DWORD PTR _szPacketType$2[ebp], eax

; 667  : 		pData->m_strPacketType = szPacketType;

  00421	50		 push	 eax
  00422	8d 4b 0c	 lea	 ecx, DWORD PTR [ebx+12]
  00425	c6 45 fc 12	 mov	 BYTE PTR __$EHRec$[ebp+8], 18 ; 00000012H
  00429	ff 15 00 00 00
	00		 call	 DWORD PTR __imp_??4?$CStringT@DV?$StrTraitMFC_DLL@DV?$ChTraitsCRT@D@ATL@@@@@ATL@@QAEAAV01@PBD@Z

; 668  : 		pData->m_strPacketName = strPacketName;

  0042f	8d 45 f0	 lea	 eax, DWORD PTR _strPacketName$[ebp]
  00432	50		 push	 eax
  00433	8d 4b 08	 lea	 ecx, DWORD PTR [ebx+8]
  00436	ff 15 00 00 00
	00		 call	 DWORD PTR __imp_??4?$CStringT@DV?$StrTraitMFC_DLL@DV?$ChTraitsCRT@D@ATL@@@@@ATL@@QAEAAV01@ABV01@@Z

; 669  : 		pData->m_lDataCount = pPacket->GetDataCount();

  0043c	8b 07		 mov	 eax, DWORD PTR [edi]
  0043e	8b cf		 mov	 ecx, edi
  00440	ff 50 2c	 call	 DWORD PTR [eax+44]

; 673  : 		if( pData->m_strPacketType == _MTEXT(C6_CHARACTER))

  00443	39 45 e4	 cmp	 DWORD PTR _nShowRowCount$1$[ebp], eax
; File C:\Program Files (x86)\Microsoft Visual Studio\2019\Community\VC\Tools\MSVC\14.29.30133\atlmfc\include\cstringt.h

; 2486 : 		return(str1.Compare(psz2) == 0);

  00446	8d 4b 0c	 lea	 ecx, DWORD PTR [ebx+12]
; File D:\git\src\IBK\IBK_DRFN\ProjSrc\SrcChartEx\ChartAddIn\ChartDataListViewerAddIn\ChartDataListViewerAddIn\DlgDataListViewer.cpp

; 669  : 		pData->m_lDataCount = pPacket->GetDataCount();

  00449	89 43 04	 mov	 DWORD PTR [ebx+4], eax

; 673  : 		if( pData->m_strPacketType == _MTEXT(C6_CHARACTER))

  0044c	0f 4f 45 e4	 cmovg	 eax, DWORD PTR _nShowRowCount$1$[ebp]
  00450	89 45 e4	 mov	 DWORD PTR _nShowRowCount$1$[ebp], eax
  00453	a1 54 00 00 00	 mov	 eax, DWORD PTR ?g_iMetaTable@@3VIMetaTable@@A+84
; File C:\Program Files (x86)\Microsoft Visual Studio\2019\Community\VC\Tools\MSVC\14.29.30133\atlmfc\include\cstringt.h

; 2486 : 		return(str1.Compare(psz2) == 0);

  00458	ff b0 60 09 00
	00		 push	 DWORD PTR [eax+2400]
  0045e	ff 15 00 00 00
	00		 call	 DWORD PTR __imp_?Compare@?$CStringT@DV?$StrTraitMFC_DLL@DV?$ChTraitsCRT@D@ATL@@@@@ATL@@QBEHPBD@Z
  00464	85 c0		 test	 eax, eax
; File D:\git\src\IBK\IBK_DRFN\ProjSrc\SrcChartEx\ChartAddIn\ChartDataListViewerAddIn\ChartDataListViewerAddIn\DlgDataListViewer.cpp

; 673  : 		if( pData->m_strPacketType == _MTEXT(C6_CHARACTER))

  00466	75 19		 jne	 SHORT $LN23@InsertData

; 674  : 		{
; 675  : 			if( pData->m_pistrDataList) pData->m_pistrDataList->Release();

  00468	8b 4b 10	 mov	 ecx, DWORD PTR [ebx+16]
  0046b	85 c9		 test	 ecx, ecx
  0046d	74 06		 je	 SHORT $LN25@InsertData
  0046f	8b 01		 mov	 eax, DWORD PTR [ecx]
  00471	51		 push	 ecx
  00472	ff 50 08	 call	 DWORD PTR [eax+8]
$LN25@InsertData:

; 676  : 			pData->m_pistrDataList = pPacket->GetStrDataList();

  00475	8b 07		 mov	 eax, DWORD PTR [edi]
  00477	8b cf		 mov	 ecx, edi
  00479	ff 50 58	 call	 DWORD PTR [eax+88]
  0047c	89 43 10	 mov	 DWORD PTR [ebx+16], eax

; 677  : 		}

  0047f	eb 17		 jmp	 SHORT $LN24@InsertData
$LN23@InsertData:

; 678  : 		else
; 679  : 		{
; 680  : 			if( pData->m_pidDataList) pData->m_pidDataList->Release();

  00481	8b 4b 14	 mov	 ecx, DWORD PTR [ebx+20]
  00484	85 c9		 test	 ecx, ecx
  00486	74 06		 je	 SHORT $LN26@InsertData
  00488	8b 01		 mov	 eax, DWORD PTR [ecx]
  0048a	51		 push	 ecx
  0048b	ff 50 08	 call	 DWORD PTR [eax+8]
$LN26@InsertData:

; 681  : 			pData->m_pidDataList = pPacket->GetDataList();

  0048e	8b 07		 mov	 eax, DWORD PTR [edi]
  00490	8b cf		 mov	 ecx, edi
  00492	ff 50 54	 call	 DWORD PTR [eax+84]
  00495	89 43 14	 mov	 DWORD PTR [ebx+20], eax
$LN24@InsertData:

; 682  : 		}
; 683  : 
; 684  : 		m_DataList.AddTail(pData);

  00498	8b 4d b8	 mov	 ecx, DWORD PTR tv870[ebp]
  0049b	53		 push	 ebx
  0049c	e8 00 00 00 00	 call	 ?AddTail@CObList@@QAEPAU__POSITION@@PAVCObject@@@Z ; CObList::AddTail

; 685  : 		pPacket->Release();

  004a1	8b 07		 mov	 eax, DWORD PTR [edi]
  004a3	57		 push	 edi
  004a4	ff 50 08	 call	 DWORD PTR [eax+8]
; File D:\git\src\IBK\IBK_DRFN\ProjSrc\SrcChartEx\ChartAddIn\ChartDataListViewerAddIn\Include_AddIn_134221\I134221\_IString.h

; 45   : 		if( m_pIStrData)

  004a7	8b 4d a8	 mov	 ecx, DWORD PTR _szPacketType$2[ebp+4]
  004aa	c6 45 fc 13	 mov	 BYTE PTR __$EHRec$[ebp+8], 19 ; 00000013H
  004ae	85 c9		 test	 ecx, ecx
  004b0	74 14		 je	 SHORT $LN90@InsertData

; 46   : 		{
; 47   : 			m_pIStrData->Release();

  004b2	8b 01		 mov	 eax, DWORD PTR [ecx]
  004b4	51		 push	 ecx
  004b5	ff 50 08	 call	 DWORD PTR [eax+8]

; 48   : 			m_pIStrData = NULL;

  004b8	c7 45 a8 00 00
	00 00		 mov	 DWORD PTR _szPacketType$2[ebp+4], 0

; 49   : 			m_szData = NULL;

  004bf	c7 45 a4 00 00
	00 00		 mov	 DWORD PTR _szPacketType$2[ebp], 0
$LN90@InsertData:
; File D:\git\src\IBK\IBK_DRFN\ProjSrc\SrcChartEx\ChartAddIn\ChartDataListViewerAddIn\ChartDataListViewerAddIn\DlgDataListViewer.cpp

; 686  : 	}

  004c6	8b 5d e8	 mov	 ebx, DWORD PTR _i$1$[ebp]
; File D:\git\src\IBK\IBK_DRFN\ProjSrc\SrcChartEx\ChartAddIn\ChartDataListViewerAddIn\Include_AddIn_134221\I134221\_IString.h

; 51   : 	}

  004c9	c6 45 fc 0c	 mov	 BYTE PTR __$EHRec$[ebp+8], 12 ; 0000000cH
$LN103@InsertData:
; File D:\git\src\IBK\IBK_DRFN\ProjSrc\SrcChartEx\ChartAddIn\ChartDataListViewerAddIn\ChartDataListViewerAddIn\DlgDataListViewer.cpp

; 640  : 	for(int i = nStart ; i < nPacketCount + nStart ; i++)

  004cd	8b 75 d4	 mov	 esi, DWORD PTR tv876[ebp]
  004d0	8b 7d d8	 mov	 edi, DWORD PTR _this$1$[ebp]
$LN5@InsertData:
  004d3	43		 inc	 ebx
  004d4	89 5d e8	 mov	 DWORD PTR _i$1$[ebp], ebx
  004d7	3b 5d b4	 cmp	 ebx, DWORD PTR tv869[ebp]
  004da	0f 8c d0 fd ff
	ff		 jl	 $LL7@InsertData
$LN6@InsertData:

; 687  : 
; 688  : 	// 1  2  . -->
; 689  : 	//m_ctlList.SetItemCountEx(nRowCount);
; 690  : 	m_nFutureDateCount = nShowRowCount - m_nRowCount;

  004e0	8b 4d e4	 mov	 ecx, DWORD PTR _nShowRowCount$1$[ebp]
  004e3	8b c1		 mov	 eax, ecx
  004e5	2b 87 18 04 00
	00		 sub	 eax, DWORD PTR [edi+1048]

; 691  : 	m_nRowCount = nShowRowCount;	
; 692  : 	m_ctlList.SetItemCountEx(nShowRowCount);

  004eb	6a 01		 push	 1
  004ed	89 8f 18 04 00
	00		 mov	 DWORD PTR [edi+1048], ecx
  004f3	51		 push	 ecx
  004f4	8d 8f b8 02 00
	00		 lea	 ecx, DWORD PTR [edi+696]
  004fa	89 87 e0 03 00
	00		 mov	 DWORD PTR [edi+992], eax
  00500	e8 00 00 00 00	 call	 ?SetItemCountEx@CListCtrl@@QAEHHK@Z ; CListCtrl::SetItemCountEx
; File C:\Program Files (x86)\Microsoft Visual Studio\2019\Community\VC\Tools\MSVC\14.29.30133\atlmfc\include\afxwin2.inl

; 114  : 	{ ASSERT(::IsWindow(m_hWnd)); ::InvalidateRect(m_hWnd, NULL, bErase); }

  00505	6a 01		 push	 1
  00507	6a 00		 push	 0
  00509	ff b7 d8 02 00
	00		 push	 DWORD PTR [edi+728]
  0050f	ff 15 00 00 00
	00		 call	 DWORD PTR __imp__InvalidateRect@12
; File D:\git\src\IBK\IBK_DRFN\ProjSrc\SrcChartEx\ChartAddIn\ChartDataListViewerAddIn\ChartDataListViewerAddIn\DlgDataListViewer.cpp

; 697  : }

  00515	8d 4d e0	 lea	 ecx, DWORD PTR _strRQ$[ebp]
  00518	ff 15 00 00 00
	00		 call	 DWORD PTR __imp_??1?$CStringT@DV?$StrTraitMFC_DLL@DV?$ChTraitsCRT@D@ATL@@@@@ATL@@QAE@XZ
  0051e	8d 4d f0	 lea	 ecx, DWORD PTR _strPacketName$[ebp]
  00521	ff 15 00 00 00
	00		 call	 DWORD PTR __imp_??1?$CStringT@DV?$StrTraitMFC_DLL@DV?$ChTraitsCRT@D@ATL@@@@@ATL@@QAE@XZ
  00527	8d 4d d0	 lea	 ecx, DWORD PTR _strRQs$[ebp]
  0052a	ff 15 00 00 00
	00		 call	 DWORD PTR __imp_??1?$CStringT@DV?$StrTraitMFC_DLL@DV?$ChTraitsCRT@D@ATL@@@@@ATL@@QAE@XZ
  00530	8d 4d cc	 lea	 ecx, DWORD PTR _strPT$[ebp]
  00533	ff 15 00 00 00
	00		 call	 DWORD PTR __imp_??1?$CStringT@DV?$StrTraitMFC_DLL@DV?$ChTraitsCRT@D@ATL@@@@@ATL@@QAE@XZ
  00539	8d 4d c8	 lea	 ecx, DWORD PTR _sRQ$[ebp]
  0053c	ff 15 00 00 00
	00		 call	 DWORD PTR __imp_??1?$CStringT@DV?$StrTraitMFC_DLL@DV?$ChTraitsCRT@D@ATL@@@@@ATL@@QAE@XZ
  00542	8d 4d c4	 lea	 ecx, DWORD PTR _sRQs$[ebp]
  00545	ff 15 00 00 00
	00		 call	 DWORD PTR __imp_??1?$CStringT@DV?$StrTraitMFC_DLL@DV?$ChTraitsCRT@D@ATL@@@@@ATL@@QAE@XZ
  0054b	8d 4d c0	 lea	 ecx, DWORD PTR _szPacketNames$[ebp]
  0054e	ff 15 00 00 00
	00		 call	 DWORD PTR __imp_??1?$CStringT@DV?$StrTraitMFC_DLL@DV?$ChTraitsCRT@D@ATL@@@@@ATL@@QAE@XZ
$LN1@InsertData:
  00554	8b 4d f4	 mov	 ecx, DWORD PTR __$EHRec$[ebp]
  00557	64 89 0d 00 00
	00 00		 mov	 DWORD PTR fs:0, ecx
  0055e	59		 pop	 ecx
  0055f	5f		 pop	 edi
  00560	5e		 pop	 esi
  00561	5b		 pop	 ebx
  00562	8b e5		 mov	 esp, ebp
  00564	5d		 pop	 ebp
  00565	c2 0c 00	 ret	 12			; 0000000cH
$LN21@InsertData:

; 654  : 		{
; 655  : 			i--;

  00568	4b		 dec	 ebx

; 662  : 		//}}
; 663  : 		if(!pPacket) continue;

  00569	8d b7 bc 03 00
	00		 lea	 esi, DWORD PTR [edi+956]
  0056f	e9 5f ff ff ff	 jmp	 $LN5@InsertData
_TEXT	ENDS
;	COMDAT text$x
text$x	SEGMENT
__unwindfunclet$?InsertDatatoList@CDlgDataListViewer@@QAEXABV?$CStringT@DV?$StrTraitMFC_DLL@DV?$ChTraitsCRT@D@ATL@@@@@ATL@@00@Z$0:
  00000	8d 4d c0	 lea	 ecx, DWORD PTR _szPacketNames$[ebp]
  00003	ff 25 00 00 00
	00		 jmp	 DWORD PTR __imp_??1?$CStringT@DV?$StrTraitMFC_DLL@DV?$ChTraitsCRT@D@ATL@@@@@ATL@@QAE@XZ
__unwindfunclet$?InsertDatatoList@CDlgDataListViewer@@QAEXABV?$CStringT@DV?$StrTraitMFC_DLL@DV?$ChTraitsCRT@D@ATL@@@@@ATL@@00@Z$1:
  00009	8d 4d c4	 lea	 ecx, DWORD PTR _sRQs$[ebp]
  0000c	ff 25 00 00 00
	00		 jmp	 DWORD PTR __imp_??1?$CStringT@DV?$StrTraitMFC_DLL@DV?$ChTraitsCRT@D@ATL@@@@@ATL@@QAE@XZ
__unwindfunclet$?InsertDatatoList@CDlgDataListViewer@@QAEXABV?$CStringT@DV?$StrTraitMFC_DLL@DV?$ChTraitsCRT@D@ATL@@@@@ATL@@00@Z$2:
  00012	8d 4d e4	 lea	 ecx, DWORD PTR $T8[ebp]
  00015	ff 25 00 00 00
	00		 jmp	 DWORD PTR __imp_??1?$CStringT@DV?$StrTraitMFC_DLL@DV?$ChTraitsCRT@D@ATL@@@@@ATL@@QAE@XZ
__unwindfunclet$?InsertDatatoList@CDlgDataListViewer@@QAEXABV?$CStringT@DV?$StrTraitMFC_DLL@DV?$ChTraitsCRT@D@ATL@@@@@ATL@@00@Z$3:
  0001b	8d 4d c8	 lea	 ecx, DWORD PTR _sRQ$[ebp]
  0001e	ff 25 00 00 00
	00		 jmp	 DWORD PTR __imp_??1?$CStringT@DV?$StrTraitMFC_DLL@DV?$ChTraitsCRT@D@ATL@@@@@ATL@@QAE@XZ
__unwindfunclet$?InsertDatatoList@CDlgDataListViewer@@QAEXABV?$CStringT@DV?$StrTraitMFC_DLL@DV?$ChTraitsCRT@D@ATL@@@@@ATL@@00@Z$4:
  00024	8d 4d cc	 lea	 ecx, DWORD PTR _strPT$[ebp]
  00027	ff 25 00 00 00
	00		 jmp	 DWORD PTR __imp_??1?$CStringT@DV?$StrTraitMFC_DLL@DV?$ChTraitsCRT@D@ATL@@@@@ATL@@QAE@XZ
__unwindfunclet$?InsertDatatoList@CDlgDataListViewer@@QAEXABV?$CStringT@DV?$StrTraitMFC_DLL@DV?$ChTraitsCRT@D@ATL@@@@@ATL@@00@Z$5:
  0002d	8d 4d 0c	 lea	 ecx, DWORD PTR $T13[ebp]
  00030	ff 25 00 00 00
	00		 jmp	 DWORD PTR __imp_??1?$CStringT@DV?$StrTraitMFC_DLL@DV?$ChTraitsCRT@D@ATL@@@@@ATL@@QAE@XZ
__unwindfunclet$?InsertDatatoList@CDlgDataListViewer@@QAEXABV?$CStringT@DV?$StrTraitMFC_DLL@DV?$ChTraitsCRT@D@ATL@@@@@ATL@@00@Z$6:
  00036	8b 45 0c	 mov	 eax, DWORD PTR $T12[ebp]
  00039	50		 push	 eax
  0003a	e8 00 00 00 00	 call	 ??3CObject@@SGXPAX@Z	; CObject::operator delete
  0003f	c3		 ret	 0
__unwindfunclet$?InsertDatatoList@CDlgDataListViewer@@QAEXABV?$CStringT@DV?$StrTraitMFC_DLL@DV?$ChTraitsCRT@D@ATL@@@@@ATL@@00@Z$7:
  00040	8d 4d a4	 lea	 ecx, DWORD PTR _szPacketType$3[ebp]
  00043	e9 00 00 00 00	 jmp	 ??1ILPCSTR134221@@QAE@XZ ; ILPCSTR134221::~ILPCSTR134221
__unwindfunclet$?InsertDatatoList@CDlgDataListViewer@@QAEXABV?$CStringT@DV?$StrTraitMFC_DLL@DV?$ChTraitsCRT@D@ATL@@@@@ATL@@00@Z$8:
  00048	8d 4d d0	 lea	 ecx, DWORD PTR _strRQs$[ebp]
  0004b	ff 25 00 00 00
	00		 jmp	 DWORD PTR __imp_??1?$CStringT@DV?$StrTraitMFC_DLL@DV?$ChTraitsCRT@D@ATL@@@@@ATL@@QAE@XZ
__unwindfunclet$?InsertDatatoList@CDlgDataListViewer@@QAEXABV?$CStringT@DV?$StrTraitMFC_DLL@DV?$ChTraitsCRT@D@ATL@@@@@ATL@@00@Z$9:
  00051	8d 4d f0	 lea	 ecx, DWORD PTR _strPacketName$[ebp]
  00054	ff 25 00 00 00
	00		 jmp	 DWORD PTR __imp_??1?$CStringT@DV?$StrTraitMFC_DLL@DV?$ChTraitsCRT@D@ATL@@@@@ATL@@QAE@XZ
__unwindfunclet$?InsertDatatoList@CDlgDataListViewer@@QAEXABV?$CStringT@DV?$StrTraitMFC_DLL@DV?$ChTraitsCRT@D@ATL@@@@@ATL@@00@Z$10:
  0005a	8d 4d e0	 lea	 ecx, DWORD PTR _strRQ$[ebp]
  0005d	ff 25 00 00 00
	00		 jmp	 DWORD PTR __imp_??1?$CStringT@DV?$StrTraitMFC_DLL@DV?$ChTraitsCRT@D@ATL@@@@@ATL@@QAE@XZ
__unwindfunclet$?InsertDatatoList@CDlgDataListViewer@@QAEXABV?$CStringT@DV?$StrTraitMFC_DLL@DV?$ChTraitsCRT@D@ATL@@@@@ATL@@00@Z$11:
  00063	8d 4d 0c	 lea	 ecx, DWORD PTR $T11[ebp]
  00066	ff 25 00 00 00
	00		 jmp	 DWORD PTR __imp_??1?$CStringT@DV?$StrTraitMFC_DLL@DV?$ChTraitsCRT@D@ATL@@@@@ATL@@QAE@XZ
__unwindfunclet$?InsertDatatoList@CDlgDataListViewer@@QAEXABV?$CStringT@DV?$StrTraitMFC_DLL@DV?$ChTraitsCRT@D@ATL@@@@@ATL@@00@Z$12:
  0006c	8d 4d ec	 lea	 ecx, DWORD PTR $T9[ebp]
  0006f	ff 25 00 00 00
	00		 jmp	 DWORD PTR __imp_??1?$CStringT@DV?$StrTraitMFC_DLL@DV?$ChTraitsCRT@D@ATL@@@@@ATL@@QAE@XZ
__unwindfunclet$?InsertDatatoList@CDlgDataListViewer@@QAEXABV?$CStringT@DV?$StrTraitMFC_DLL@DV?$ChTraitsCRT@D@ATL@@@@@ATL@@00@Z$13:
  00075	8d 4d dc	 lea	 ecx, DWORD PTR $T7[ebp]
  00078	ff 25 00 00 00
	00		 jmp	 DWORD PTR __imp_??1?$CStringT@DV?$StrTraitMFC_DLL@DV?$ChTraitsCRT@D@ATL@@@@@ATL@@QAE@XZ
__unwindfunclet$?InsertDatatoList@CDlgDataListViewer@@QAEXABV?$CStringT@DV?$StrTraitMFC_DLL@DV?$ChTraitsCRT@D@ATL@@@@@ATL@@00@Z$14:
  0007e	8d 4d bc	 lea	 ecx, DWORD PTR $T6[ebp]
  00081	ff 25 00 00 00
	00		 jmp	 DWORD PTR __imp_??1?$CStringT@DV?$StrTraitMFC_DLL@DV?$ChTraitsCRT@D@ATL@@@@@ATL@@QAE@XZ
__unwindfunclet$?InsertDatatoList@CDlgDataListViewer@@QAEXABV?$CStringT@DV?$StrTraitMFC_DLL@DV?$ChTraitsCRT@D@ATL@@@@@ATL@@00@Z$15:
  00087	8b 45 b0	 mov	 eax, DWORD PTR $T5[ebp]
  0008a	50		 push	 eax
  0008b	e8 00 00 00 00	 call	 ??3CObject@@SGXPAX@Z	; CObject::operator delete
  00090	c3		 ret	 0
__unwindfunclet$?InsertDatatoList@CDlgDataListViewer@@QAEXABV?$CStringT@DV?$StrTraitMFC_DLL@DV?$ChTraitsCRT@D@ATL@@@@@ATL@@00@Z$16:
  00091	8d 4d a4	 lea	 ecx, DWORD PTR _szPacketType$2[ebp]
  00094	e9 00 00 00 00	 jmp	 ??1ILPCSTR134221@@QAE@XZ ; ILPCSTR134221::~ILPCSTR134221
  00099	cc		 int	 3
  0009a	cc		 int	 3
  0009b	cc		 int	 3
  0009c	cc		 int	 3
  0009d	cc		 int	 3
__ehhandler$?InsertDatatoList@CDlgDataListViewer@@QAEXABV?$CStringT@DV?$StrTraitMFC_DLL@DV?$ChTraitsCRT@D@ATL@@@@@ATL@@00@Z:
  0009e	90		 npad	 1
  0009f	90		 npad	 1
  000a0	8b 54 24 08	 mov	 edx, DWORD PTR [esp+8]
  000a4	8d 42 0c	 lea	 eax, DWORD PTR [edx+12]
  000a7	8b 4a a0	 mov	 ecx, DWORD PTR [edx-96]
  000aa	33 c8		 xor	 ecx, eax
  000ac	e8 00 00 00 00	 call	 @__security_check_cookie@4
  000b1	b8 00 00 00 00	 mov	 eax, OFFSET __ehfuncinfo$?InsertDatatoList@CDlgDataListViewer@@QAEXABV?$CStringT@DV?$StrTraitMFC_DLL@DV?$ChTraitsCRT@D@ATL@@@@@ATL@@00@Z
  000b6	e9 00 00 00 00	 jmp	 ___CxxFrameHandler3
text$x	ENDS
?InsertDatatoList@CDlgDataListViewer@@QAEXABV?$CStringT@DV?$StrTraitMFC_DLL@DV?$ChTraitsCRT@D@ATL@@@@@ATL@@00@Z ENDP ; CDlgDataListViewer::InsertDatatoList
; Function compile flags: /Ogtp
; File D:\git\src\IBK\IBK_DRFN\ProjSrc\SrcChartEx\ChartAddIn\ChartDataListViewerAddIn\ChartDataListViewerAddIn\DlgDataListViewer.cpp
; File C:\Program Files (x86)\Microsoft Visual Studio\2019\Community\VC\Tools\MSVC\14.29.30133\atlmfc\include\afxcmn2.inl
; File D:\git\src\IBK\IBK_DRFN\ProjSrc\SrcChartEx\ChartAddIn\ChartDataListViewerAddIn\ChartDataListViewerAddIn\DlgDataListViewer.cpp
; File C:\Program Files (x86)\Microsoft Visual Studio\2019\Community\VC\Tools\MSVC\14.29.30133\atlmfc\include\afxwin2.inl
; File D:\git\src\IBK\IBK_DRFN\ProjSrc\SrcChartEx\ChartAddIn\ChartDataListViewerAddIn\ChartDataListViewerAddIn\DlgDataListViewer.cpp
; File C:\Program Files (x86)\Microsoft Visual Studio\2019\Community\VC\Tools\MSVC\14.29.30133\atlmfc\include\afxwin2.inl
; File D:\git\src\IBK\IBK_DRFN\ProjSrc\SrcChartEx\ChartAddIn\ChartDataListViewerAddIn\ChartDataListViewerAddIn\DlgDataListViewer.cpp
; File C:\Program Files (x86)\Microsoft Visual Studio\2019\Community\VC\Tools\MSVC\14.29.30133\atlmfc\include\afxwin2.inl
; File D:\git\src\IBK\IBK_DRFN\ProjSrc\SrcChartEx\ChartAddIn\ChartDataListViewerAddIn\ChartDataListViewerAddIn\DlgDataListViewer.cpp
; File C:\Program Files (x86)\Microsoft Visual Studio\2019\Community\VC\Tools\MSVC\14.29.30133\atlmfc\include\afxwin2.inl
; File D:\git\src\IBK\IBK_DRFN\ProjSrc\SrcChartEx\ChartAddIn\ChartDataListViewerAddIn\ChartDataListViewerAddIn\DlgDataListViewer.cpp
;	COMDAT ?LoadListFocusMove@CDlgDataListViewer@@QAEXH@Z
_TEXT	SEGMENT
_nLine$1$ = -40						; size = 4
_nLine$2$ = -36						; size = 4
_sInfo$ = -32						; size = 28
__$ArrayPad$ = -4					; size = 4
_nIndex$ = 8						; size = 4
?LoadListFocusMove@CDlgDataListViewer@@QAEXH@Z PROC	; CDlgDataListViewer::LoadListFocusMove, COMDAT
; _this$ = ecx

; 701  : {

  00000	55		 push	 ebp
  00001	8b ec		 mov	 ebp, esp
  00003	83 ec 28	 sub	 esp, 40			; 00000028H
  00006	a1 00 00 00 00	 mov	 eax, DWORD PTR ___security_cookie
  0000b	33 c5		 xor	 eax, ebp
  0000d	89 45 fc	 mov	 DWORD PTR __$ArrayPad$[ebp], eax
  00010	53		 push	 ebx

; 702  : 	if(nIndex < 0)

  00011	8b 5d 08	 mov	 ebx, DWORD PTR _nIndex$[ebp]
  00014	57		 push	 edi
  00015	8b f9		 mov	 edi, ecx
  00017	85 db		 test	 ebx, ebx
  00019	0f 88 f8 00 00
	00		 js	 $LN12@LoadListFo

; 703  : 		return ;
; 704  : 
; 705  : 	m_ctlList.SetItemState(nIndex, 0xFFFF, LVIS_SELECTED | LVIS_FOCUSED);

  0001f	56		 push	 esi
  00020	6a 03		 push	 3
  00022	68 ff ff 00 00	 push	 65535			; 0000ffffH
  00027	53		 push	 ebx
  00028	8d 8f b8 02 00
	00		 lea	 ecx, DWORD PTR [edi+696]
  0002e	e8 00 00 00 00	 call	 ?SetItemState@CListCtrl@@QAEHHII@Z ; CListCtrl::SetItemState
; File C:\Program Files (x86)\Microsoft Visual Studio\2019\Community\VC\Tools\MSVC\14.29.30133\atlmfc\include\afxcmn2.inl

; 147  : 	{ ASSERT(::IsWindow(m_hWnd)); return (int) ::SendMessage(m_hWnd, LVM_SETSELECTIONMARK, 0, (LPARAM) iIndex); }

  00033	53		 push	 ebx
  00034	8b 1d 00 00 00
	00		 mov	 ebx, DWORD PTR __imp__SendMessageA@16
  0003a	6a 00		 push	 0
  0003c	68 43 10 00 00	 push	 4163			; 00001043H
  00041	ff b7 d8 02 00
	00		 push	 DWORD PTR [edi+728]
  00047	ff d3		 call	 ebx
; File D:\git\src\IBK\IBK_DRFN\ProjSrc\SrcChartEx\ChartAddIn\ChartDataListViewerAddIn\ChartDataListViewerAddIn\DlgDataListViewer.cpp

; 712  : 	m_ctlList.GetScrollInfo(SB_VERT, &sInfo);

  00049	6a 17		 push	 23			; 00000017H
  0004b	8d 45 e0	 lea	 eax, DWORD PTR _sInfo$[ebp]
  0004e	50		 push	 eax
  0004f	6a 01		 push	 1
  00051	8d 8f b8 02 00
	00		 lea	 ecx, DWORD PTR [edi+696]
  00057	e8 00 00 00 00	 call	 ?GetScrollInfo@CWnd@@QAEHHPAUtagSCROLLINFO@@I@Z ; CWnd::GetScrollInfo

; 713  : 	pos = m_ctlList.GetScrollPos(SB_VERT);

  0005c	6a 01		 push	 1
  0005e	8d 8f b8 02 00
	00		 lea	 ecx, DWORD PTR [edi+696]
  00064	e8 00 00 00 00	 call	 ?GetScrollPos@CWnd@@QBEHH@Z ; CWnd::GetScrollPos
  00069	8b c8		 mov	 ecx, eax

; 714  : 	if(pos < nIndex){

  0006b	33 d2		 xor	 edx, edx
  0006d	8b 45 08	 mov	 eax, DWORD PTR _nIndex$[ebp]
  00070	3b c8		 cmp	 ecx, eax
  00072	7d 56		 jge	 SHORT $LN15@LoadListFo

; 715  : 		nPage = (nIndex - pos) / sInfo.nPage;

  00074	2b c1		 sub	 eax, ecx
  00076	f7 75 f0	 div	 DWORD PTR _sInfo$[ebp+16]
  00079	8b f2		 mov	 esi, edx
  0007b	89 75 d8	 mov	 DWORD PTR _nLine$1$[ebp], esi

; 717  : 		for(j=0; j<nPage; j++)

  0007e	85 c0		 test	 eax, eax
  00080	7e 1b		 jle	 SHORT $LN3@LoadListFo
  00082	8b f0		 mov	 esi, eax
$LL4@LoadListFo:
; File C:\Program Files (x86)\Microsoft Visual Studio\2019\Community\VC\Tools\MSVC\14.29.30133\atlmfc\include\afxwin2.inl

; 32   : 	{ ASSERT(::IsWindow(m_hWnd)); return ::SendMessage(m_hWnd, message, wParam, lParam); }

  00084	6a 00		 push	 0
  00086	6a 03		 push	 3
  00088	68 15 01 00 00	 push	 277			; 00000115H
  0008d	ff b7 d8 02 00
	00		 push	 DWORD PTR [edi+728]
  00093	ff d3		 call	 ebx
; File D:\git\src\IBK\IBK_DRFN\ProjSrc\SrcChartEx\ChartAddIn\ChartDataListViewerAddIn\ChartDataListViewerAddIn\DlgDataListViewer.cpp

; 717  : 		for(j=0; j<nPage; j++)

  00095	83 ee 01	 sub	 esi, 1
  00098	75 ea		 jne	 SHORT $LL4@LoadListFo
  0009a	8b 75 d8	 mov	 esi, DWORD PTR _nLine$1$[ebp]
$LN3@LoadListFo:

; 719  : 		for(j=0; j<nLine; j++)

  0009d	85 f6		 test	 esi, esi
  0009f	7e 75		 jle	 SHORT $LN44@LoadListFo
$LL7@LoadListFo:
; File C:\Program Files (x86)\Microsoft Visual Studio\2019\Community\VC\Tools\MSVC\14.29.30133\atlmfc\include\afxwin2.inl

; 32   : 	{ ASSERT(::IsWindow(m_hWnd)); return ::SendMessage(m_hWnd, message, wParam, lParam); }

  000a1	6a 00		 push	 0
  000a3	6a 01		 push	 1
  000a5	68 15 01 00 00	 push	 277			; 00000115H
  000aa	ff b7 d8 02 00
	00		 push	 DWORD PTR [edi+728]
  000b0	ff d3		 call	 ebx
; File D:\git\src\IBK\IBK_DRFN\ProjSrc\SrcChartEx\ChartAddIn\ChartDataListViewerAddIn\ChartDataListViewerAddIn\DlgDataListViewer.cpp

; 719  : 		for(j=0; j<nLine; j++)

  000b2	83 ee 01	 sub	 esi, 1
  000b5	75 ea		 jne	 SHORT $LL7@LoadListFo

; 728  : 			m_ctlList.SendMessage(WM_VSCROLL, SB_LINEUP, NULL);
; 729  : 	}
; 730  : }

  000b7	5e		 pop	 esi
  000b8	5f		 pop	 edi
  000b9	5b		 pop	 ebx
  000ba	8b 4d fc	 mov	 ecx, DWORD PTR __$ArrayPad$[ebp]
  000bd	33 cd		 xor	 ecx, ebp
  000bf	e8 00 00 00 00	 call	 @__security_check_cookie@4
  000c4	8b e5		 mov	 esp, ebp
  000c6	5d		 pop	 ebp
  000c7	c2 04 00	 ret	 4
$LN15@LoadListFo:

; 720  : 			m_ctlList.SendMessage(WM_VSCROLL, SB_LINEDOWN, NULL);
; 721  : 	}
; 722  : 	else{
; 723  : 		nPage = (pos - nIndex) / sInfo.nPage;

  000ca	2b c8		 sub	 ecx, eax
  000cc	8b c1		 mov	 eax, ecx
  000ce	f7 75 f0	 div	 DWORD PTR _sInfo$[ebp+16]
  000d1	8b f2		 mov	 esi, edx
  000d3	89 75 dc	 mov	 DWORD PTR _nLine$2$[ebp], esi

; 725  : 		for(j=0; j<nPage; j++)

  000d6	85 c0		 test	 eax, eax
  000d8	7e 1f		 jle	 SHORT $LN9@LoadListFo
  000da	8b f0		 mov	 esi, eax
  000dc	0f 1f 40 00	 npad	 4
$LL10@LoadListFo:
; File C:\Program Files (x86)\Microsoft Visual Studio\2019\Community\VC\Tools\MSVC\14.29.30133\atlmfc\include\afxwin2.inl

; 32   : 	{ ASSERT(::IsWindow(m_hWnd)); return ::SendMessage(m_hWnd, message, wParam, lParam); }

  000e0	6a 00		 push	 0
  000e2	6a 02		 push	 2
  000e4	68 15 01 00 00	 push	 277			; 00000115H
  000e9	ff b7 d8 02 00
	00		 push	 DWORD PTR [edi+728]
  000ef	ff d3		 call	 ebx
; File D:\git\src\IBK\IBK_DRFN\ProjSrc\SrcChartEx\ChartAddIn\ChartDataListViewerAddIn\ChartDataListViewerAddIn\DlgDataListViewer.cpp

; 725  : 		for(j=0; j<nPage; j++)

  000f1	83 ee 01	 sub	 esi, 1
  000f4	75 ea		 jne	 SHORT $LL10@LoadListFo
  000f6	8b 75 dc	 mov	 esi, DWORD PTR _nLine$2$[ebp]
$LN9@LoadListFo:

; 727  : 		for(j=0; j<nLine; j++)

  000f9	85 f6		 test	 esi, esi
  000fb	7e 19		 jle	 SHORT $LN44@LoadListFo
  000fd	0f 1f 00	 npad	 3
$LL13@LoadListFo:
; File C:\Program Files (x86)\Microsoft Visual Studio\2019\Community\VC\Tools\MSVC\14.29.30133\atlmfc\include\afxwin2.inl

; 32   : 	{ ASSERT(::IsWindow(m_hWnd)); return ::SendMessage(m_hWnd, message, wParam, lParam); }

  00100	6a 00		 push	 0
  00102	6a 00		 push	 0
  00104	68 15 01 00 00	 push	 277			; 00000115H
  00109	ff b7 d8 02 00
	00		 push	 DWORD PTR [edi+728]
  0010f	ff d3		 call	 ebx
; File D:\git\src\IBK\IBK_DRFN\ProjSrc\SrcChartEx\ChartAddIn\ChartDataListViewerAddIn\ChartDataListViewerAddIn\DlgDataListViewer.cpp

; 727  : 		for(j=0; j<nLine; j++)

  00111	83 ee 01	 sub	 esi, 1
  00114	75 ea		 jne	 SHORT $LL13@LoadListFo
$LN44@LoadListFo:
  00116	5e		 pop	 esi
$LN12@LoadListFo:

; 728  : 			m_ctlList.SendMessage(WM_VSCROLL, SB_LINEUP, NULL);
; 729  : 	}
; 730  : }

  00117	8b 4d fc	 mov	 ecx, DWORD PTR __$ArrayPad$[ebp]
  0011a	5f		 pop	 edi
  0011b	33 cd		 xor	 ecx, ebp
  0011d	5b		 pop	 ebx
  0011e	e8 00 00 00 00	 call	 @__security_check_cookie@4
  00123	8b e5		 mov	 esp, ebp
  00125	5d		 pop	 ebp
  00126	c2 04 00	 ret	 4
?LoadListFocusMove@CDlgDataListViewer@@QAEXH@Z ENDP	; CDlgDataListViewer::LoadListFocusMove
_TEXT	ENDS
; Function compile flags: /Ogtp
; File D:\git\src\IBK\IBK_DRFN\ProjSrc\SrcChartEx\ChartAddIn\ChartDataListViewerAddIn\ChartDataListViewerAddIn\DlgDataListViewer.cpp
;	COMDAT ?GetStrValue@CDlgDataListViewer@@QAE?AV?$CStringT@DV?$StrTraitMFC_DLL@DV?$ChTraitsCRT@D@ATL@@@@@ATL@@PAUHKEY__@@V23@11@Z
_TEXT	SEGMENT
_type$ = -160						; size = 4
___$ReturnUdt$GSCopy$ = -156				; size = 4
_size$ = -156						; size = 4
_str$2 = -152						; size = 4
_openKey$ = -148					; size = 4
_Data$ = -144						; size = 128
__$ArrayPad$ = -16					; size = 4
__$EHRec$ = -12						; size = 12
___$ReturnUdt$ = 8					; size = 4
_Hkey$ = 12						; size = 4
_strkey$ = 16						; size = 4
_strsubkey$ = 20					; size = 4
_strRValue$ = 24					; size = 4
?GetStrValue@CDlgDataListViewer@@QAE?AV?$CStringT@DV?$StrTraitMFC_DLL@DV?$ChTraitsCRT@D@ATL@@@@@ATL@@PAUHKEY__@@V23@11@Z PROC ; CDlgDataListViewer::GetStrValue, COMDAT
; _this$ = ecx

; 952  : {

  00000	55		 push	 ebp
  00001	8b ec		 mov	 ebp, esp
  00003	6a ff		 push	 -1
  00005	68 00 00 00 00	 push	 __ehhandler$?GetStrValue@CDlgDataListViewer@@QAE?AV?$CStringT@DV?$StrTraitMFC_DLL@DV?$ChTraitsCRT@D@ATL@@@@@ATL@@PAUHKEY__@@V23@11@Z
  0000a	64 a1 00 00 00
	00		 mov	 eax, DWORD PTR fs:0
  00010	50		 push	 eax
  00011	81 ec 94 00 00
	00		 sub	 esp, 148		; 00000094H
  00017	a1 00 00 00 00	 mov	 eax, DWORD PTR ___security_cookie
  0001c	33 c5		 xor	 eax, ebp
  0001e	89 45 f0	 mov	 DWORD PTR __$ArrayPad$[ebp], eax
  00021	56		 push	 esi
  00022	50		 push	 eax
  00023	8d 45 f4	 lea	 eax, DWORD PTR __$EHRec$[ebp]
  00026	64 a3 00 00 00
	00		 mov	 DWORD PTR fs:0, eax
  0002c	8b 75 08	 mov	 esi, DWORD PTR ___$ReturnUdt$[ebp]
  0002f	8b 45 0c	 mov	 eax, DWORD PTR _Hkey$[ebp]
  00032	89 b5 64 ff ff
	ff		 mov	 DWORD PTR ___$ReturnUdt$GSCopy$[ebp], esi

; 953  : 	LONG err;
; 954  :    HKEY openKey;
; 955  :    BYTE Data[128];
; 956  :    DWORD type;
; 957  :    DWORD size=sizeof(Data);
; 958  : 
; 959  :    err=RegOpenKey(Hkey,strkey,&openKey);

  00038	8d 8d 6c ff ff
	ff		 lea	 ecx, DWORD PTR _openKey$[ebp]
  0003e	c7 45 fc 02 00
	00 00		 mov	 DWORD PTR __$EHRec$[ebp+8], 2
  00045	51		 push	 ecx
  00046	ff 75 10	 push	 DWORD PTR _strkey$[ebp]
  00049	c7 85 64 ff ff
	ff 80 00 00 00	 mov	 DWORD PTR _size$[ebp], 128 ; 00000080H
  00053	50		 push	 eax
  00054	ff 15 00 00 00
	00		 call	 DWORD PTR __imp__RegOpenKeyA@12

; 960  : 
; 961  :    if(ERROR ==err)

  0005a	85 c0		 test	 eax, eax
  0005c	75 6a		 jne	 SHORT $LN3@GetStrValu

; 962  : 	   err=RegQueryValueEx(openKey,strsubkey,0,&type,Data,&size);

  0005e	8d 85 64 ff ff
	ff		 lea	 eax, DWORD PTR _size$[ebp]
  00064	50		 push	 eax
  00065	8d 85 70 ff ff
	ff		 lea	 eax, DWORD PTR _Data$[ebp]
  0006b	50		 push	 eax
  0006c	8d 85 60 ff ff
	ff		 lea	 eax, DWORD PTR _type$[ebp]
  00072	50		 push	 eax
  00073	6a 00		 push	 0
  00075	ff 75 14	 push	 DWORD PTR _strsubkey$[ebp]
  00078	ff b5 6c ff ff
	ff		 push	 DWORD PTR _openKey$[ebp]
  0007e	ff 15 00 00 00
	00		 call	 DWORD PTR __imp__RegQueryValueExA@24

; 963  : 	 
; 964  :    if(err==ERROR_SUCCESS)

  00084	85 c0		 test	 eax, eax
  00086	75 40		 jne	 SHORT $LN3@GetStrValu

; 965  : 	{
; 966  : 	   RegCloseKey(openKey);

  00088	ff b5 6c ff ff
	ff		 push	 DWORD PTR _openKey$[ebp]
  0008e	ff 15 00 00 00
	00		 call	 DWORD PTR __imp__RegCloseKey@4

; 967  : 		CString str(Data);

  00094	8d 85 70 ff ff
	ff		 lea	 eax, DWORD PTR _Data$[ebp]
  0009a	50		 push	 eax
  0009b	8d 8d 68 ff ff
	ff		 lea	 ecx, DWORD PTR _str$2[ebp]
  000a1	ff 15 00 00 00
	00		 call	 DWORD PTR __imp_??0?$CStringT@DV?$StrTraitMFC_DLL@DV?$ChTraitsCRT@D@ATL@@@@@ATL@@QAE@PBE@Z

; 968  : 		return str;

  000a7	8d 85 68 ff ff
	ff		 lea	 eax, DWORD PTR _str$2[ebp]
  000ad	c6 45 fc 03	 mov	 BYTE PTR __$EHRec$[ebp+8], 3
  000b1	50		 push	 eax
  000b2	8b ce		 mov	 ecx, esi
  000b4	ff 15 00 00 00
	00		 call	 DWORD PTR __imp_??0?$CStringT@DV?$StrTraitMFC_DLL@DV?$ChTraitsCRT@D@ATL@@@@@ATL@@QAE@ABV01@@Z
  000ba	8d 8d 68 ff ff
	ff		 lea	 ecx, DWORD PTR _str$2[ebp]
  000c0	ff 15 00 00 00
	00		 call	 DWORD PTR __imp_??1?$CStringT@DV?$StrTraitMFC_DLL@DV?$ChTraitsCRT@D@ATL@@@@@ATL@@QAE@XZ
  000c6	eb 18		 jmp	 SHORT $LN16@GetStrValu
$LN3@GetStrValu:

; 969  : 	}
; 970  : 	
; 971  :    RegCloseKey(openKey);

  000c8	ff b5 6c ff ff
	ff		 push	 DWORD PTR _openKey$[ebp]
  000ce	ff 15 00 00 00
	00		 call	 DWORD PTR __imp__RegCloseKey@4

; 972  : 	return strRValue;

  000d4	8d 45 18	 lea	 eax, DWORD PTR _strRValue$[ebp]
  000d7	8b ce		 mov	 ecx, esi
  000d9	50		 push	 eax
  000da	ff 15 00 00 00
	00		 call	 DWORD PTR __imp_??0?$CStringT@DV?$StrTraitMFC_DLL@DV?$ChTraitsCRT@D@ATL@@@@@ATL@@QAE@ABV01@@Z
$LN16@GetStrValu:

; 973  : 
; 974  : }

  000e0	8d 4d 10	 lea	 ecx, DWORD PTR _strkey$[ebp]
  000e3	ff 15 00 00 00
	00		 call	 DWORD PTR __imp_??1?$CStringT@DV?$StrTraitMFC_DLL@DV?$ChTraitsCRT@D@ATL@@@@@ATL@@QAE@XZ
  000e9	8d 4d 14	 lea	 ecx, DWORD PTR _strsubkey$[ebp]
  000ec	ff 15 00 00 00
	00		 call	 DWORD PTR __imp_??1?$CStringT@DV?$StrTraitMFC_DLL@DV?$ChTraitsCRT@D@ATL@@@@@ATL@@QAE@XZ
  000f2	8d 4d 18	 lea	 ecx, DWORD PTR _strRValue$[ebp]
  000f5	ff 15 00 00 00
	00		 call	 DWORD PTR __imp_??1?$CStringT@DV?$StrTraitMFC_DLL@DV?$ChTraitsCRT@D@ATL@@@@@ATL@@QAE@XZ
  000fb	8b c6		 mov	 eax, esi
  000fd	8b 4d f4	 mov	 ecx, DWORD PTR __$EHRec$[ebp]
  00100	64 89 0d 00 00
	00 00		 mov	 DWORD PTR fs:0, ecx
  00107	59		 pop	 ecx
  00108	5e		 pop	 esi
  00109	8b 4d f0	 mov	 ecx, DWORD PTR __$ArrayPad$[ebp]
  0010c	33 cd		 xor	 ecx, ebp
  0010e	e8 00 00 00 00	 call	 @__security_check_cookie@4
  00113	8b e5		 mov	 esp, ebp
  00115	5d		 pop	 ebp
  00116	c2 14 00	 ret	 20			; 00000014H
_TEXT	ENDS
;	COMDAT text$x
text$x	SEGMENT
__unwindfunclet$?GetStrValue@CDlgDataListViewer@@QAE?AV?$CStringT@DV?$StrTraitMFC_DLL@DV?$ChTraitsCRT@D@ATL@@@@@ATL@@PAUHKEY__@@V23@11@Z$0:
  00000	8d 4d 18	 lea	 ecx, DWORD PTR _strRValue$[ebp]
  00003	ff 25 00 00 00
	00		 jmp	 DWORD PTR __imp_??1?$CStringT@DV?$StrTraitMFC_DLL@DV?$ChTraitsCRT@D@ATL@@@@@ATL@@QAE@XZ
__unwindfunclet$?GetStrValue@CDlgDataListViewer@@QAE?AV?$CStringT@DV?$StrTraitMFC_DLL@DV?$ChTraitsCRT@D@ATL@@@@@ATL@@PAUHKEY__@@V23@11@Z$1:
  00009	8d 4d 14	 lea	 ecx, DWORD PTR _strsubkey$[ebp]
  0000c	ff 25 00 00 00
	00		 jmp	 DWORD PTR __imp_??1?$CStringT@DV?$StrTraitMFC_DLL@DV?$ChTraitsCRT@D@ATL@@@@@ATL@@QAE@XZ
__unwindfunclet$?GetStrValue@CDlgDataListViewer@@QAE?AV?$CStringT@DV?$StrTraitMFC_DLL@DV?$ChTraitsCRT@D@ATL@@@@@ATL@@PAUHKEY__@@V23@11@Z$2:
  00012	8d 4d 10	 lea	 ecx, DWORD PTR _strkey$[ebp]
  00015	ff 25 00 00 00
	00		 jmp	 DWORD PTR __imp_??1?$CStringT@DV?$StrTraitMFC_DLL@DV?$ChTraitsCRT@D@ATL@@@@@ATL@@QAE@XZ
__unwindfunclet$?GetStrValue@CDlgDataListViewer@@QAE?AV?$CStringT@DV?$StrTraitMFC_DLL@DV?$ChTraitsCRT@D@ATL@@@@@ATL@@PAUHKEY__@@V23@11@Z$3:
  0001b	8d 8d 68 ff ff
	ff		 lea	 ecx, DWORD PTR _str$2[ebp]
  00021	ff 25 00 00 00
	00		 jmp	 DWORD PTR __imp_??1?$CStringT@DV?$StrTraitMFC_DLL@DV?$ChTraitsCRT@D@ATL@@@@@ATL@@QAE@XZ
  00027	cc		 int	 3
  00028	cc		 int	 3
  00029	cc		 int	 3
  0002a	cc		 int	 3
  0002b	cc		 int	 3
__ehhandler$?GetStrValue@CDlgDataListViewer@@QAE?AV?$CStringT@DV?$StrTraitMFC_DLL@DV?$ChTraitsCRT@D@ATL@@@@@ATL@@PAUHKEY__@@V23@11@Z:
  0002c	90		 npad	 1
  0002d	90		 npad	 1
  0002e	8b 54 24 08	 mov	 edx, DWORD PTR [esp+8]
  00032	8d 42 0c	 lea	 eax, DWORD PTR [edx+12]
  00035	8b 8a 64 ff ff
	ff		 mov	 ecx, DWORD PTR [edx-156]
  0003b	33 c8		 xor	 ecx, eax
  0003d	e8 00 00 00 00	 call	 @__security_check_cookie@4
  00042	8b 4a fc	 mov	 ecx, DWORD PTR [edx-4]
  00045	33 c8		 xor	 ecx, eax
  00047	e8 00 00 00 00	 call	 @__security_check_cookie@4
  0004c	b8 00 00 00 00	 mov	 eax, OFFSET __ehfuncinfo$?GetStrValue@CDlgDataListViewer@@QAE?AV?$CStringT@DV?$StrTraitMFC_DLL@DV?$ChTraitsCRT@D@ATL@@@@@ATL@@PAUHKEY__@@V23@11@Z
  00051	e9 00 00 00 00	 jmp	 ___CxxFrameHandler3
text$x	ENDS
?GetStrValue@CDlgDataListViewer@@QAE?AV?$CStringT@DV?$StrTraitMFC_DLL@DV?$ChTraitsCRT@D@ATL@@@@@ATL@@PAUHKEY__@@V23@11@Z ENDP ; CDlgDataListViewer::GetStrValue
; Function compile flags: /Ogtp
; File D:\git\src\IBK\IBK_DRFN\ProjSrc\SrcChartEx\ChartAddIn\ChartDataListViewerAddIn\ChartDataListViewerAddIn\DlgDataListViewer.cpp
; File C:\Program Files (x86)\Microsoft Visual Studio\2019\Community\VC\Tools\MSVC\14.29.30133\atlmfc\include\afx.inl
; File D:\git\src\IBK\IBK_DRFN\ProjSrc\SrcChartEx\ChartAddIn\ChartDataListViewerAddIn\ChartDataListViewerAddIn\DlgDataListViewer.cpp
; File C:\Program Files (x86)\Microsoft Visual Studio\2019\Community\VC\Tools\MSVC\14.29.30133\atlmfc\include\afx.inl
; File D:\git\src\IBK\IBK_DRFN\ProjSrc\SrcChartEx\ChartAddIn\ChartDataListViewerAddIn\ChartDataListViewerAddIn\DlgDataListViewer.cpp
; File C:\Program Files (x86)\Microsoft Visual Studio\2019\Community\VC\Tools\MSVC\14.29.30133\atlmfc\include\afxcmn.inl
; File D:\git\src\IBK\IBK_DRFN\ProjSrc\SrcChartEx\ChartAddIn\ChartDataListViewerAddIn\ChartDataListViewerAddIn\DlgDataListViewer.cpp
; File C:\Program Files (x86)\Microsoft Visual Studio\2019\Community\VC\Tools\MSVC\14.29.30133\atlmfc\include\afxcmn.inl
; File D:\git\src\IBK\IBK_DRFN\ProjSrc\SrcChartEx\ChartAddIn\ChartDataListViewerAddIn\ChartDataListViewerAddIn\DlgDataListViewer.cpp
; File C:\Program Files (x86)\Microsoft Visual Studio\2019\Community\VC\Tools\MSVC\14.29.30133\atlmfc\include\afxcmn.inl
; File D:\git\src\IBK\IBK_DRFN\ProjSrc\SrcChartEx\ChartAddIn\ChartDataListViewerAddIn\ChartDataListViewerAddIn\DlgDataListViewer.cpp
; File C:\Program Files (x86)\Microsoft Visual Studio\2019\Community\VC\Tools\MSVC\14.29.30133\atlmfc\include\afxcmn.inl
; File D:\git\src\IBK\IBK_DRFN\ProjSrc\SrcChartEx\ChartAddIn\ChartDataListViewerAddIn\ChartDataListViewerAddIn\DlgDataListViewer.cpp
; File C:\Program Files (x86)\Microsoft Visual Studio\2019\Community\VC\Tools\MSVC\14.29.30133\atlmfc\include\atlsimpstr.h
; File D:\git\src\IBK\IBK_DRFN\ProjSrc\SrcChartEx\ChartAddIn\ChartDataListViewerAddIn\ChartDataListViewerAddIn\DlgDataListViewer.cpp
; File C:\Program Files (x86)\Microsoft Visual Studio\2019\Community\VC\Tools\MSVC\14.29.30133\atlmfc\include\atlsimpstr.h
; File D:\git\src\IBK\IBK_DRFN\ProjSrc\SrcChartEx\ChartAddIn\ChartDataListViewerAddIn\ChartDataListViewerAddIn\DlgDataListViewer.cpp
; File C:\Program Files (x86)\Microsoft Visual Studio\2019\Community\VC\Tools\MSVC\14.29.30133\atlmfc\include\atlsimpstr.h
; File D:\git\src\IBK\IBK_DRFN\ProjSrc\SrcChartEx\ChartAddIn\ChartDataListViewerAddIn\ChartDataListViewerAddIn\DlgDataListViewer.cpp
; File C:\Program Files (x86)\Microsoft Visual Studio\2019\Community\VC\Tools\MSVC\14.29.30133\atlmfc\include\atlsimpstr.h
; File D:\git\src\IBK\IBK_DRFN\ProjSrc\SrcChartEx\ChartAddIn\ChartDataListViewerAddIn\ChartDataListViewerAddIn\DlgDataListViewer.cpp
; File C:\Program Files (x86)\Microsoft Visual Studio\2019\Community\VC\Tools\MSVC\14.29.30133\atlmfc\include\cstringt.h
; File D:\git\src\IBK\IBK_DRFN\ProjSrc\SrcChartEx\ChartAddIn\ChartDataListViewerAddIn\ChartDataListViewerAddIn\DlgDataListViewer.cpp
; File C:\Program Files (x86)\Microsoft Visual Studio\2019\Community\VC\Tools\MSVC\14.29.30133\atlmfc\include\cstringt.h
; File C:\Program Files (x86)\Microsoft Visual Studio\2019\Community\VC\Tools\MSVC\14.29.30133\atlmfc\include\atlsimpstr.h
; File C:\Program Files (x86)\Microsoft Visual Studio\2019\Community\VC\Tools\MSVC\14.29.30133\atlmfc\include\cstringt.h
; File D:\git\src\IBK\IBK_DRFN\ProjSrc\SrcChartEx\ChartAddIn\ChartDataListViewerAddIn\ChartDataListViewerAddIn\DlgDataListViewer.cpp
; File C:\Program Files (x86)\Microsoft Visual Studio\2019\Community\VC\Tools\MSVC\14.29.30133\atlmfc\include\cstringt.h
; File C:\Program Files (x86)\Microsoft Visual Studio\2019\Community\VC\Tools\MSVC\14.29.30133\atlmfc\include\atlsimpstr.h
; File C:\Program Files (x86)\Microsoft Visual Studio\2019\Community\VC\Tools\MSVC\14.29.30133\atlmfc\include\cstringt.h
; File C:\Program Files (x86)\Microsoft Visual Studio\2019\Community\VC\Tools\MSVC\14.29.30133\atlmfc\include\atlsimpstr.h
; File C:\Program Files (x86)\Microsoft Visual Studio\2019\Community\VC\Tools\MSVC\14.29.30133\atlmfc\include\cstringt.h
; File D:\git\src\IBK\IBK_DRFN\ProjSrc\SrcChartEx\ChartAddIn\ChartDataListViewerAddIn\ChartDataListViewerAddIn\DlgDataListViewer.cpp
; File C:\Program Files (x86)\Microsoft Visual Studio\2019\Community\VC\Tools\MSVC\14.29.30133\atlmfc\include\cstringt.h
; File C:\Program Files (x86)\Microsoft Visual Studio\2019\Community\VC\Tools\MSVC\14.29.30133\atlmfc\include\atlsimpstr.h
; File C:\Program Files (x86)\Microsoft Visual Studio\2019\Community\VC\Tools\MSVC\14.29.30133\atlmfc\include\cstringt.h
; File D:\git\src\IBK\IBK_DRFN\ProjSrc\SrcChartEx\ChartAddIn\ChartDataListViewerAddIn\ChartDataListViewerAddIn\DlgDataListViewer.cpp
; File C:\Program Files (x86)\Microsoft Visual Studio\2019\Community\VC\Tools\MSVC\14.29.30133\atlmfc\include\afx.inl
; File D:\git\src\IBK\IBK_DRFN\ProjSrc\SrcChartEx\ChartAddIn\ChartDataListViewerAddIn\ChartDataListViewerAddIn\DlgDataListViewer.cpp
;	COMDAT ?LoadExcel@CDlgDataListViewer@@QAEXXZ
_TEXT	SEGMENT
_hdi$2 = -448						; size = 48
_file$ = -400						; size = 20
_e$ = -380						; size = 20
_ptRowAndCol$ = -360					; size = 8
_type$3 = -356						; size = 4
_strKey$ = -352						; size = 4
_szMsg$ = -348						; size = 4
_strFileSave1$ = -344					; size = 4
_strFileSave2$ = -340					; size = 4
$T4 = -336						; size = 4
$T5 = -332						; size = 4
_this$GSCopy$1$ = -328					; size = 4
_str$6 = -328						; size = 4
$T7 = -324						; size = 4
_szFilePath$ = -320					; size = 4
_szTmp$ = -316						; size = 4
_size$8 = -312						; size = 4
$T9 = -312						; size = 4
$T10 = -312						; size = 4
$T11 = -312						; size = 4
_openKey$12 = -308					; size = 4
$T13 = -308						; size = 4
$T14 = -304						; size = 4
$T15 = -304						; size = 4
$T16 = -300						; size = 4
$T17 = -300						; size = 4
$T18 = -300						; size = 4
_szData$ = -296						; size = 4
_szExcel$ = -292					; size = 4
_sTime$ = -288						; size = 16
_lpBuffer$19 = -272					; size = 256
_Data$20 = -144						; size = 128
__$ArrayPad$ = -16					; size = 4
__$EHRec$ = -12						; size = 12
?LoadExcel@CDlgDataListViewer@@QAEXXZ PROC		; CDlgDataListViewer::LoadExcel, COMDAT
; _this$ = ecx

; 753  : {

  00000	55		 push	 ebp
  00001	8b ec		 mov	 ebp, esp
  00003	6a ff		 push	 -1
  00005	68 00 00 00 00	 push	 __ehhandler$?LoadExcel@CDlgDataListViewer@@QAEXXZ
  0000a	64 a1 00 00 00
	00		 mov	 eax, DWORD PTR fs:0
  00010	50		 push	 eax
  00011	81 ec b4 01 00
	00		 sub	 esp, 436		; 000001b4H
  00017	a1 00 00 00 00	 mov	 eax, DWORD PTR ___security_cookie
  0001c	33 c5		 xor	 eax, ebp
  0001e	89 45 f0	 mov	 DWORD PTR __$ArrayPad$[ebp], eax
  00021	53		 push	 ebx
  00022	56		 push	 esi
  00023	57		 push	 edi
  00024	50		 push	 eax
  00025	8d 45 f4	 lea	 eax, DWORD PTR __$EHRec$[ebp]
  00028	64 a3 00 00 00
	00		 mov	 DWORD PTR fs:0, eax
  0002e	8b d9		 mov	 ebx, ecx
  00030	89 9d b8 fe ff
	ff		 mov	 DWORD PTR _this$GSCopy$1$[ebp], ebx

; 754  : 	SYSTEMTIME sTime;
; 755  : 	GetSystemTime(&sTime);

  00036	8d 85 e0 fe ff
	ff		 lea	 eax, DWORD PTR _sTime$[ebp]
  0003c	c7 85 bc fe ff
	ff 00 00 00 00	 mov	 DWORD PTR $T7[ebp], 0
  00046	50		 push	 eax
  00047	ff 15 00 00 00
	00		 call	 DWORD PTR __imp__GetSystemTime@4

; 756  : 
; 757  : 	CString  szFilePath ;

  0004d	8d 8d c0 fe ff
	ff		 lea	 ecx, DWORD PTR _szFilePath$[ebp]
  00053	ff 15 00 00 00
	00		 call	 DWORD PTR __imp_??0?$CStringT@DV?$StrTraitMFC_DLL@DV?$ChTraitsCRT@D@ATL@@@@@ATL@@QAE@XZ

; 758  : 	//szFilePath.Format("%sChartData_%04d%02d%02d_%02d%02d%02d.xls", m_strFilePath, 
; 759  : 	szFilePath.Format("%sChartData_%04d%02d%02d_%02d%02d%02d.nc2", m_strFilePath, 

  00059	0f b7 85 ec fe
	ff ff		 movzx	 eax, WORD PTR _sTime$[ebp+12]
  00060	50		 push	 eax
  00061	0f b7 85 ea fe
	ff ff		 movzx	 eax, WORD PTR _sTime$[ebp+10]
  00068	50		 push	 eax
  00069	0f b7 85 e8 fe
	ff ff		 movzx	 eax, WORD PTR _sTime$[ebp+8]
  00070	83 c0 09	 add	 eax, 9
  00073	c7 45 fc 00 00
	00 00		 mov	 DWORD PTR __$EHRec$[ebp+8], 0
  0007a	50		 push	 eax
  0007b	0f b7 85 e6 fe
	ff ff		 movzx	 eax, WORD PTR _sTime$[ebp+6]
  00082	50		 push	 eax
  00083	0f b7 85 e2 fe
	ff ff		 movzx	 eax, WORD PTR _sTime$[ebp+2]
  0008a	50		 push	 eax
  0008b	0f b7 85 e0 fe
	ff ff		 movzx	 eax, WORD PTR _sTime$[ebp]
  00092	50		 push	 eax
  00093	ff b3 d0 03 00
	00		 push	 DWORD PTR [ebx+976]
  00099	8d 85 c0 fe ff
	ff		 lea	 eax, DWORD PTR _szFilePath$[ebp]
  0009f	68 00 00 00 00	 push	 OFFSET ??_C@_0CK@HLLCJIGM@?$CFsChartData_?$CF04d?$CF02d?$CF02d_?$CF02d?$CF0@
  000a4	50		 push	 eax
  000a5	ff 15 00 00 00
	00		 call	 DWORD PTR __imp_?Format@?$CStringT@DV?$StrTraitMFC_DLL@DV?$ChTraitsCRT@D@ATL@@@@@ATL@@QAAXPBDZZ
  000ab	83 c4 24	 add	 esp, 36			; 00000024H

; 763  : 	CFile file;

  000ae	8d 8d 70 fe ff
	ff		 lea	 ecx, DWORD PTR _file$[ebp]
  000b4	e8 00 00 00 00	 call	 ??0CFile@@QAE@XZ	; CFile::CFile
; File C:\Program Files (x86)\Microsoft Visual Studio\2019\Community\VC\Tools\MSVC\14.29.30133\atlmfc\include\afx.inl

; 168  : 	{ m_cause = cause; m_lOsError = lOsError; m_strFileName = pstrFileName; }

  000b9	8d 8d 84 fe ff
	ff		 lea	 ecx, DWORD PTR _e$[ebp]
; File D:\git\src\IBK\IBK_DRFN\ProjSrc\SrcChartEx\ChartAddIn\ChartDataListViewerAddIn\ChartDataListViewerAddIn\DlgDataListViewer.cpp

; 763  : 	CFile file;

  000bf	c6 45 fc 01	 mov	 BYTE PTR __$EHRec$[ebp+8], 1
; File C:\Program Files (x86)\Microsoft Visual Studio\2019\Community\VC\Tools\MSVC\14.29.30133\atlmfc\include\afx.inl

; 168  : 	{ m_cause = cause; m_lOsError = lOsError; m_strFileName = pstrFileName; }

  000c3	e8 00 00 00 00	 call	 ??0CException@@QAE@XZ	; CException::CException
  000c8	8d 8d 94 fe ff
	ff		 lea	 ecx, DWORD PTR _e$[ebp+16]
  000ce	c7 85 84 fe ff
	ff 00 00 00 00	 mov	 DWORD PTR _e$[ebp], OFFSET ??_7CFileException@@6B@
  000d8	ff 15 00 00 00
	00		 call	 DWORD PTR __imp_??0?$CStringT@DV?$StrTraitMFC_DLL@DV?$ChTraitsCRT@D@ATL@@@@@ATL@@QAE@XZ
  000de	6a 00		 push	 0
  000e0	8d 8d 94 fe ff
	ff		 lea	 ecx, DWORD PTR _e$[ebp+16]
  000e6	c6 45 fc 02	 mov	 BYTE PTR __$EHRec$[ebp+8], 2
  000ea	c7 85 8c fe ff
	ff 00 00 00 00	 mov	 DWORD PTR _e$[ebp+8], 0
  000f4	c7 85 90 fe ff
	ff ff ff ff ff	 mov	 DWORD PTR _e$[ebp+12], -1
  000fe	ff 15 00 00 00
	00		 call	 DWORD PTR __imp_??4?$CStringT@DV?$StrTraitMFC_DLL@DV?$ChTraitsCRT@D@ATL@@@@@ATL@@QAEAAV01@PBD@Z
; File D:\git\src\IBK\IBK_DRFN\ProjSrc\SrcChartEx\ChartAddIn\ChartDataListViewerAddIn\ChartDataListViewerAddIn\DlgDataListViewer.cpp

; 765  : 	if( !file.Open( szFilePath, CFile::modeCreate | CFile::modeWrite, &e ) )

  00104	8d 85 84 fe ff
	ff		 lea	 eax, DWORD PTR _e$[ebp]
  0010a	c6 45 fc 03	 mov	 BYTE PTR __$EHRec$[ebp+8], 3
  0010e	50		 push	 eax
  0010f	68 01 10 00 00	 push	 4097			; 00001001H
  00114	ff b5 c0 fe ff
	ff		 push	 DWORD PTR _szFilePath$[ebp]
  0011a	8d 8d 70 fe ff
	ff		 lea	 ecx, DWORD PTR _file$[ebp]
  00120	e8 00 00 00 00	 call	 ?Open@CFile@@UAEHPBDIPAVCFileException@@@Z ; CFile::Open
  00125	85 c0		 test	 eax, eax
  00127	0f 84 3c 06 00
	00		 je	 $LN37@LoadExcel

; 766  : 	{
; 767  : #ifdef _DEBUG
; 768  : 		afxDump << "File could not be opened " << e.m_cause << "\n";
; 769  : #endif
; 770  : 		return;
; 771  : 	}
; 772  : 
; 773  : 	CString szData, szTmp;

  0012d	8d 8d d8 fe ff
	ff		 lea	 ecx, DWORD PTR _szData$[ebp]
  00133	ff 15 00 00 00
	00		 call	 DWORD PTR __imp_??0?$CStringT@DV?$StrTraitMFC_DLL@DV?$ChTraitsCRT@D@ATL@@@@@ATL@@QAE@XZ
  00139	8d 8d c4 fe ff
	ff		 lea	 ecx, DWORD PTR _szTmp$[ebp]
  0013f	ff 15 00 00 00
	00		 call	 DWORD PTR __imp_??0?$CStringT@DV?$StrTraitMFC_DLL@DV?$ChTraitsCRT@D@ATL@@@@@ATL@@QAE@XZ

; 774  : 	
; 775  : 	CPoint ptRowAndCol = GetRowandColumnCount();

  00145	8d 85 98 fe ff
	ff		 lea	 eax, DWORD PTR _ptRowAndCol$[ebp]
  0014b	c6 45 fc 05	 mov	 BYTE PTR __$EHRec$[ebp+8], 5
  0014f	50		 push	 eax
  00150	8b cb		 mov	 ecx, ebx
  00152	e8 00 00 00 00	 call	 ?GetRowandColumnCount@CDlgDataListViewer@@QAE?AVCPoint@@XZ ; CDlgDataListViewer::GetRowandColumnCount

; 776  : 
; 777  : 	// header column
; 778  : 	szData.Empty();

  00157	8d 8d d8 fe ff
	ff		 lea	 ecx, DWORD PTR _szData$[ebp]
  0015d	ff 15 00 00 00
	00		 call	 DWORD PTR __imp_?Empty@?$CSimpleStringT@D$00@ATL@@QAEXXZ

; 780  : 	pHeader = m_ctlList.GetHeaderCtrl();

  00163	8d 8b b8 02 00
	00		 lea	 ecx, DWORD PTR [ebx+696]
  00169	e8 00 00 00 00	 call	 ?GetHeaderCtrl@CListCtrl@@QBEPAVCHeaderCtrl@@XZ ; CListCtrl::GetHeaderCtrl
; File C:\Program Files (x86)\Microsoft Visual Studio\2019\Community\VC\Tools\MSVC\14.29.30133\atlmfc\include\afxcmn.inl

; 541  : 	{ ASSERT(::IsWindow(m_hWnd)); return (int) ::SendMessage(m_hWnd, HDM_GETITEMCOUNT, 0, 0L); }

  0016e	6a 00		 push	 0
; File D:\git\src\IBK\IBK_DRFN\ProjSrc\SrcChartEx\ChartAddIn\ChartDataListViewerAddIn\ChartDataListViewerAddIn\DlgDataListViewer.cpp

; 780  : 	pHeader = m_ctlList.GetHeaderCtrl();

  00170	8b f8		 mov	 edi, eax
; File C:\Program Files (x86)\Microsoft Visual Studio\2019\Community\VC\Tools\MSVC\14.29.30133\atlmfc\include\afxcmn.inl

; 541  : 	{ ASSERT(::IsWindow(m_hWnd)); return (int) ::SendMessage(m_hWnd, HDM_GETITEMCOUNT, 0, 0L); }

  00172	6a 00		 push	 0
  00174	68 00 12 00 00	 push	 4608			; 00001200H
  00179	ff 77 20	 push	 DWORD PTR [edi+32]
  0017c	ff 15 00 00 00
	00		 call	 DWORD PTR __imp__SendMessageA@16
; File D:\git\src\IBK\IBK_DRFN\ProjSrc\SrcChartEx\ChartAddIn\ChartDataListViewerAddIn\ChartDataListViewerAddIn\DlgDataListViewer.cpp

; 781  : 	ptRowAndCol.y = pHeader->GetItemCount();

  00182	8b d8		 mov	 ebx, eax
  00184	33 f6		 xor	 esi, esi

; 782  : 	for(int col = 0 ; col < ptRowAndCol.y ; col++) 

  00186	85 db		 test	 ebx, ebx
  00188	7e 77		 jle	 SHORT $LN3@LoadExcel
  0018a	66 0f 1f 44 00
	00		 npad	 6
$LL4@LoadExcel:

; 783  : 	{
; 784  : 		HDITEM hdi;
; 785  : 		TCHAR  lpBuffer[256];
; 786  : 
; 787  : 		hdi.mask = HDI_TEXT;
; 788  : 		hdi.pszText = lpBuffer;

  00190	8d 85 f0 fe ff
	ff		 lea	 eax, DWORD PTR _lpBuffer$19[ebp]
  00196	c7 85 40 fe ff
	ff 02 00 00 00	 mov	 DWORD PTR _hdi$2[ebp], 2
  001a0	89 85 48 fe ff
	ff		 mov	 DWORD PTR _hdi$2[ebp+8], eax
; File C:\Program Files (x86)\Microsoft Visual Studio\2019\Community\VC\Tools\MSVC\14.29.30133\atlmfc\include\afxcmn.inl

; 547  : 	{ ASSERT(::IsWindow(m_hWnd)); return (BOOL)::SendMessage(m_hWnd, HDM_GETITEM, nPos, (LPARAM)pHeaderItem); }

  001a6	8d 85 40 fe ff
	ff		 lea	 eax, DWORD PTR _hdi$2[ebp]
  001ac	50		 push	 eax
  001ad	56		 push	 esi
  001ae	68 03 12 00 00	 push	 4611			; 00001203H
  001b3	ff 77 20	 push	 DWORD PTR [edi+32]
; File D:\git\src\IBK\IBK_DRFN\ProjSrc\SrcChartEx\ChartAddIn\ChartDataListViewerAddIn\ChartDataListViewerAddIn\DlgDataListViewer.cpp

; 789  : 		hdi.cchTextMax = 256;

  001b6	c7 85 50 fe ff
	ff 00 01 00 00	 mov	 DWORD PTR _hdi$2[ebp+16], 256 ; 00000100H
; File C:\Program Files (x86)\Microsoft Visual Studio\2019\Community\VC\Tools\MSVC\14.29.30133\atlmfc\include\afxcmn.inl

; 547  : 	{ ASSERT(::IsWindow(m_hWnd)); return (BOOL)::SendMessage(m_hWnd, HDM_GETITEM, nPos, (LPARAM)pHeaderItem); }

  001c0	ff 15 00 00 00
	00		 call	 DWORD PTR __imp__SendMessageA@16
; File D:\git\src\IBK\IBK_DRFN\ProjSrc\SrcChartEx\ChartAddIn\ChartDataListViewerAddIn\ChartDataListViewerAddIn\DlgDataListViewer.cpp

; 791  : 		szTmp = hdi.pszText;

  001c6	ff b5 48 fe ff
	ff		 push	 DWORD PTR _hdi$2[ebp+8]
  001cc	8d 8d c4 fe ff
	ff		 lea	 ecx, DWORD PTR _szTmp$[ebp]
  001d2	ff 15 00 00 00
	00		 call	 DWORD PTR __imp_??4?$CStringT@DV?$StrTraitMFC_DLL@DV?$ChTraitsCRT@D@ATL@@@@@ATL@@QAEAAV01@PBD@Z

; 792  : 		szData += szTmp;

  001d8	8d 85 c4 fe ff
	ff		 lea	 eax, DWORD PTR _szTmp$[ebp]
  001de	50		 push	 eax
  001df	8d 8d d8 fe ff
	ff		 lea	 ecx, DWORD PTR _szData$[ebp]
  001e5	ff 15 00 00 00
	00		 call	 DWORD PTR __imp_??Y?$CStringT@DV?$StrTraitMFC_DLL@DV?$ChTraitsCRT@D@ATL@@@@@ATL@@QAEAAV01@ABV?$CSimpleStringT@D$00@1@@Z

; 793  : 		szData += _T("\t");

  001eb	68 00 00 00 00	 push	 OFFSET ??_C@_01GPOEFGEJ@?7@
  001f0	8d 8d d8 fe ff
	ff		 lea	 ecx, DWORD PTR _szData$[ebp]
  001f6	ff 15 00 00 00
	00		 call	 DWORD PTR __imp_??Y?$CStringT@DV?$StrTraitMFC_DLL@DV?$ChTraitsCRT@D@ATL@@@@@ATL@@QAEAAV01@PBD@Z
  001fc	46		 inc	 esi
  001fd	3b f3		 cmp	 esi, ebx
  001ff	7c 8f		 jl	 SHORT $LL4@LoadExcel
$LN3@LoadExcel:

; 794  : 	}
; 795  : 	szData += _T("\r\n");

  00201	68 00 00 00 00	 push	 OFFSET ??_C@_02PCIJFNDE@?$AN?6@
  00206	8d 8d d8 fe ff
	ff		 lea	 ecx, DWORD PTR _szData$[ebp]
  0020c	ff 15 00 00 00
	00		 call	 DWORD PTR __imp_??Y?$CStringT@DV?$StrTraitMFC_DLL@DV?$ChTraitsCRT@D@ATL@@@@@ATL@@QAEAAV01@PBD@Z
; File C:\Program Files (x86)\Microsoft Visual Studio\2019\Community\VC\Tools\MSVC\14.29.30133\atlmfc\include\atlsimpstr.h

; 519  : 		return( GetData()->nDataLength );

  00212	8b 85 d8 fe ff
	ff		 mov	 eax, DWORD PTR _szData$[ebp]
; File D:\git\src\IBK\IBK_DRFN\ProjSrc\SrcChartEx\ChartAddIn\ChartDataListViewerAddIn\ChartDataListViewerAddIn\DlgDataListViewer.cpp

; 796  : 	file.Write(szData, szData.GetLength());

  00218	8d 8d 70 fe ff
	ff		 lea	 ecx, DWORD PTR _file$[ebp]
  0021e	ff 70 f4	 push	 DWORD PTR [eax-12]
  00221	50		 push	 eax
  00222	e8 00 00 00 00	 call	 ?Write@CFile@@UAEXPBXI@Z ; CFile::Write

; 797  : 
; 798  : 	for(int row = 0  ; row <= ptRowAndCol.x ; row++) 

  00227	33 ff		 xor	 edi, edi
  00229	39 bd 98 fe ff
	ff		 cmp	 DWORD PTR _ptRowAndCol$[ebp], edi
  0022f	0f 8c b4 00 00
	00		 jl	 $LN6@LoadExcel
  00235	66 66 66 0f 1f
	84 00 00 00 00
	00		 npad	 11
$LL7@LoadExcel:

; 799  : 	{
; 800  : 		szData.Empty();

  00240	8d 8d d8 fe ff
	ff		 lea	 ecx, DWORD PTR _szData$[ebp]
  00246	ff 15 00 00 00
	00		 call	 DWORD PTR __imp_?Empty@?$CSimpleStringT@D$00@ATL@@QAEXXZ

; 801  : 
; 802  : 		for(int col = 0 ; col < ptRowAndCol.y ; col++) 

  0024c	33 f6		 xor	 esi, esi
  0024e	85 db		 test	 ebx, ebx
  00250	7e 64		 jle	 SHORT $LN9@LoadExcel
$LL10@LoadExcel:

; 803  : 		{
; 804  : 			szTmp = m_ctlList.GetItemText(row, col);

  00252	8b 8d b8 fe ff
	ff		 mov	 ecx, DWORD PTR _this$GSCopy$1$[ebp]
  00258	8d 85 d4 fe ff
	ff		 lea	 eax, DWORD PTR $T18[ebp]
  0025e	56		 push	 esi
  0025f	57		 push	 edi
  00260	50		 push	 eax
  00261	8d 89 b8 02 00
	00		 lea	 ecx, DWORD PTR [ecx+696]
  00267	e8 00 00 00 00	 call	 ?GetItemText@CListCtrl@@QBE?AV?$CStringT@DV?$StrTraitMFC_DLL@DV?$ChTraitsCRT@D@ATL@@@@@ATL@@HH@Z ; CListCtrl::GetItemText
  0026c	50		 push	 eax
  0026d	8d 8d c4 fe ff
	ff		 lea	 ecx, DWORD PTR _szTmp$[ebp]
  00273	c6 45 fc 06	 mov	 BYTE PTR __$EHRec$[ebp+8], 6
  00277	ff 15 00 00 00
	00		 call	 DWORD PTR __imp_??4?$CStringT@DV?$StrTraitMFC_DLL@DV?$ChTraitsCRT@D@ATL@@@@@ATL@@QAEAAV01@ABV01@@Z
  0027d	8d 8d d4 fe ff
	ff		 lea	 ecx, DWORD PTR $T18[ebp]
  00283	c6 45 fc 05	 mov	 BYTE PTR __$EHRec$[ebp+8], 5
  00287	ff 15 00 00 00
	00		 call	 DWORD PTR __imp_??1?$CStringT@DV?$StrTraitMFC_DLL@DV?$ChTraitsCRT@D@ATL@@@@@ATL@@QAE@XZ

; 805  : 			szData += szTmp;

  0028d	8d 85 c4 fe ff
	ff		 lea	 eax, DWORD PTR _szTmp$[ebp]
  00293	50		 push	 eax
  00294	8d 8d d8 fe ff
	ff		 lea	 ecx, DWORD PTR _szData$[ebp]
  0029a	ff 15 00 00 00
	00		 call	 DWORD PTR __imp_??Y?$CStringT@DV?$StrTraitMFC_DLL@DV?$ChTraitsCRT@D@ATL@@@@@ATL@@QAEAAV01@ABV?$CSimpleStringT@D$00@1@@Z

; 806  : 			szData += _T("\t");

  002a0	68 00 00 00 00	 push	 OFFSET ??_C@_01GPOEFGEJ@?7@
  002a5	8d 8d d8 fe ff
	ff		 lea	 ecx, DWORD PTR _szData$[ebp]
  002ab	ff 15 00 00 00
	00		 call	 DWORD PTR __imp_??Y?$CStringT@DV?$StrTraitMFC_DLL@DV?$ChTraitsCRT@D@ATL@@@@@ATL@@QAEAAV01@PBD@Z
  002b1	46		 inc	 esi
  002b2	3b f3		 cmp	 esi, ebx
  002b4	7c 9c		 jl	 SHORT $LL10@LoadExcel
$LN9@LoadExcel:

; 807  : 		}
; 808  : 		szData +=_T("\r\n");

  002b6	68 00 00 00 00	 push	 OFFSET ??_C@_02PCIJFNDE@?$AN?6@
  002bb	8d 8d d8 fe ff
	ff		 lea	 ecx, DWORD PTR _szData$[ebp]
  002c1	ff 15 00 00 00
	00		 call	 DWORD PTR __imp_??Y?$CStringT@DV?$StrTraitMFC_DLL@DV?$ChTraitsCRT@D@ATL@@@@@ATL@@QAEAAV01@PBD@Z
; File C:\Program Files (x86)\Microsoft Visual Studio\2019\Community\VC\Tools\MSVC\14.29.30133\atlmfc\include\atlsimpstr.h

; 519  : 		return( GetData()->nDataLength );

  002c7	8b 85 d8 fe ff
	ff		 mov	 eax, DWORD PTR _szData$[ebp]
; File D:\git\src\IBK\IBK_DRFN\ProjSrc\SrcChartEx\ChartAddIn\ChartDataListViewerAddIn\ChartDataListViewerAddIn\DlgDataListViewer.cpp

; 809  : 		file.Write(szData, szData.GetLength());

  002cd	8d 8d 70 fe ff
	ff		 lea	 ecx, DWORD PTR _file$[ebp]
  002d3	ff 70 f4	 push	 DWORD PTR [eax-12]
  002d6	50		 push	 eax
  002d7	e8 00 00 00 00	 call	 ?Write@CFile@@UAEXPBXI@Z ; CFile::Write
  002dc	47		 inc	 edi
  002dd	3b bd 98 fe ff
	ff		 cmp	 edi, DWORD PTR _ptRowAndCol$[ebp]
  002e3	0f 8e 57 ff ff
	ff		 jle	 $LL7@LoadExcel
$LN6@LoadExcel:

; 810  : 	}
; 811  : 	file.Close();

  002e9	8d 8d 70 fe ff
	ff		 lea	 ecx, DWORD PTR _file$[ebp]
  002ef	e8 00 00 00 00	 call	 ?Close@CFile@@UAEXXZ	; CFile::Close

; 812  : 
; 813  : 	CString szExcel = "NO" ;

  002f4	68 00 00 00 00	 push	 OFFSET ??_C@_02NFLNFON@NO@
  002f9	8d 8d dc fe ff
	ff		 lea	 ecx, DWORD PTR _szExcel$[ebp]
  002ff	ff 15 00 00 00
	00		 call	 DWORD PTR __imp_??0?$CStringT@DV?$StrTraitMFC_DLL@DV?$ChTraitsCRT@D@ATL@@@@@ATL@@QAE@PBD@Z

; 814  : 	CString strKey = "Excel.csv\\shell\\open\\command" ;

  00305	68 00 00 00 00	 push	 OFFSET ??_C@_0BN@JCCJDGAM@Excel?4csv?2shell?2open?2command@
  0030a	8d 8d a0 fe ff
	ff		 lea	 ecx, DWORD PTR _strKey$[ebp]
  00310	c6 45 fc 07	 mov	 BYTE PTR __$EHRec$[ebp+8], 7
  00314	ff 15 00 00 00
	00		 call	 DWORD PTR __imp_??0?$CStringT@DV?$StrTraitMFC_DLL@DV?$ChTraitsCRT@D@ATL@@@@@ATL@@QAE@PBD@Z

; 815  : 	int Ver = 60 ;
; 816  : 	HKEY hkey = HKEY_CLASSES_ROOT ;
; 817  : 	szExcel = GetStrValue(hkey, strKey, "", "NO") ;

  0031a	68 00 00 00 00	 push	 OFFSET ??_C@_02NFLNFON@NO@
  0031f	8d 8d b0 fe ff
	ff		 lea	 ecx, DWORD PTR $T4[ebp]
  00325	c6 45 fc 08	 mov	 BYTE PTR __$EHRec$[ebp+8], 8
  00329	ff 15 00 00 00
	00		 call	 DWORD PTR __imp_??0?$CStringT@DV?$StrTraitMFC_DLL@DV?$ChTraitsCRT@D@ATL@@@@@ATL@@QAE@PBD@Z
  0032f	68 00 00 00 00	 push	 OFFSET ??_C@_00CNPNBAHC@@
  00334	8d 8d b4 fe ff
	ff		 lea	 ecx, DWORD PTR $T5[ebp]
  0033a	c6 45 fc 09	 mov	 BYTE PTR __$EHRec$[ebp+8], 9
  0033e	ff 15 00 00 00
	00		 call	 DWORD PTR __imp_??0?$CStringT@DV?$StrTraitMFC_DLL@DV?$ChTraitsCRT@D@ATL@@@@@ATL@@QAE@PBD@Z
  00344	8d 85 a0 fe ff
	ff		 lea	 eax, DWORD PTR _strKey$[ebp]
  0034a	c6 45 fc 0a	 mov	 BYTE PTR __$EHRec$[ebp+8], 10 ; 0000000aH
  0034e	50		 push	 eax
  0034f	8d 8d d0 fe ff
	ff		 lea	 ecx, DWORD PTR $T14[ebp]
  00355	ff 15 00 00 00
	00		 call	 DWORD PTR __imp_??0?$CStringT@DV?$StrTraitMFC_DLL@DV?$ChTraitsCRT@D@ATL@@@@@ATL@@QAE@ABV01@@Z

; 959  :    err=RegOpenKey(Hkey,strkey,&openKey);

  0035b	8d 85 cc fe ff
	ff		 lea	 eax, DWORD PTR _openKey$12[ebp]
  00361	c6 45 fc 0d	 mov	 BYTE PTR __$EHRec$[ebp+8], 13 ; 0000000dH
  00365	50		 push	 eax
  00366	ff b5 d0 fe ff
	ff		 push	 DWORD PTR $T14[ebp]
  0036c	c7 85 c8 fe ff
	ff 80 00 00 00	 mov	 DWORD PTR _size$8[ebp], 128 ; 00000080H
  00376	68 00 00 00 80	 push	 -2147483648		; 80000000H
  0037b	ff 15 00 00 00
	00		 call	 DWORD PTR __imp__RegOpenKeyA@12

; 960  : 
; 961  :    if(ERROR ==err)

  00381	85 c0		 test	 eax, eax
  00383	75 71		 jne	 SHORT $LN65@LoadExcel

; 962  : 	   err=RegQueryValueEx(openKey,strsubkey,0,&type,Data,&size);

  00385	8d 85 c8 fe ff
	ff		 lea	 eax, DWORD PTR _size$8[ebp]
  0038b	50		 push	 eax
  0038c	8d 85 70 ff ff
	ff		 lea	 eax, DWORD PTR _Data$20[ebp]
  00392	50		 push	 eax
  00393	8d 85 9c fe ff
	ff		 lea	 eax, DWORD PTR _type$3[ebp]
  00399	50		 push	 eax
  0039a	6a 00		 push	 0
  0039c	ff b5 b4 fe ff
	ff		 push	 DWORD PTR $T5[ebp]
  003a2	ff b5 cc fe ff
	ff		 push	 DWORD PTR _openKey$12[ebp]
  003a8	ff 15 00 00 00
	00		 call	 DWORD PTR __imp__RegQueryValueExA@24

; 963  : 	 
; 964  :    if(err==ERROR_SUCCESS)

  003ae	85 c0		 test	 eax, eax
  003b0	75 44		 jne	 SHORT $LN65@LoadExcel

; 965  : 	{
; 966  : 	   RegCloseKey(openKey);

  003b2	ff b5 cc fe ff
	ff		 push	 DWORD PTR _openKey$12[ebp]
  003b8	ff 15 00 00 00
	00		 call	 DWORD PTR __imp__RegCloseKey@4

; 967  : 		CString str(Data);

  003be	8d 85 70 ff ff
	ff		 lea	 eax, DWORD PTR _Data$20[ebp]
  003c4	50		 push	 eax
  003c5	8d 8d b8 fe ff
	ff		 lea	 ecx, DWORD PTR _str$6[ebp]
  003cb	ff 15 00 00 00
	00		 call	 DWORD PTR __imp_??0?$CStringT@DV?$StrTraitMFC_DLL@DV?$ChTraitsCRT@D@ATL@@@@@ATL@@QAE@PBE@Z

; 968  : 		return str;

  003d1	8d 85 b8 fe ff
	ff		 lea	 eax, DWORD PTR _str$6[ebp]
  003d7	c6 45 fc 0e	 mov	 BYTE PTR __$EHRec$[ebp+8], 14 ; 0000000eH
  003db	50		 push	 eax
  003dc	8d 8d d4 fe ff
	ff		 lea	 ecx, DWORD PTR $T17[ebp]
  003e2	ff 15 00 00 00
	00		 call	 DWORD PTR __imp_??0?$CStringT@DV?$StrTraitMFC_DLL@DV?$ChTraitsCRT@D@ATL@@@@@ATL@@QAE@ABV01@@Z
  003e8	8d 8d b8 fe ff
	ff		 lea	 ecx, DWORD PTR _str$6[ebp]
  003ee	ff 15 00 00 00
	00		 call	 DWORD PTR __imp_??1?$CStringT@DV?$StrTraitMFC_DLL@DV?$ChTraitsCRT@D@ATL@@@@@ATL@@QAE@XZ
  003f4	eb 1f		 jmp	 SHORT $LN153@LoadExcel
$LN65@LoadExcel:

; 969  : 	}
; 970  : 	
; 971  :    RegCloseKey(openKey);

  003f6	ff b5 cc fe ff
	ff		 push	 DWORD PTR _openKey$12[ebp]
  003fc	ff 15 00 00 00
	00		 call	 DWORD PTR __imp__RegCloseKey@4

; 972  : 	return strRValue;

  00402	8d 85 b0 fe ff
	ff		 lea	 eax, DWORD PTR $T4[ebp]
  00408	50		 push	 eax
  00409	8d 8d d4 fe ff
	ff		 lea	 ecx, DWORD PTR $T17[ebp]
  0040f	ff 15 00 00 00
	00		 call	 DWORD PTR __imp_??0?$CStringT@DV?$StrTraitMFC_DLL@DV?$ChTraitsCRT@D@ATL@@@@@ATL@@QAE@ABV01@@Z
$LN153@LoadExcel:

; 815  : 	int Ver = 60 ;
; 816  : 	HKEY hkey = HKEY_CLASSES_ROOT ;
; 817  : 	szExcel = GetStrValue(hkey, strKey, "", "NO") ;

  00415	8d 8d d0 fe ff
	ff		 lea	 ecx, DWORD PTR $T14[ebp]
  0041b	ff 15 00 00 00
	00		 call	 DWORD PTR __imp_??1?$CStringT@DV?$StrTraitMFC_DLL@DV?$ChTraitsCRT@D@ATL@@@@@ATL@@QAE@XZ
  00421	8d 8d b4 fe ff
	ff		 lea	 ecx, DWORD PTR $T5[ebp]
  00427	ff 15 00 00 00
	00		 call	 DWORD PTR __imp_??1?$CStringT@DV?$StrTraitMFC_DLL@DV?$ChTraitsCRT@D@ATL@@@@@ATL@@QAE@XZ
  0042d	8d 8d b0 fe ff
	ff		 lea	 ecx, DWORD PTR $T4[ebp]
  00433	ff 15 00 00 00
	00		 call	 DWORD PTR __imp_??1?$CStringT@DV?$StrTraitMFC_DLL@DV?$ChTraitsCRT@D@ATL@@@@@ATL@@QAE@XZ
  00439	8d 85 d4 fe ff
	ff		 lea	 eax, DWORD PTR $T17[ebp]
  0043f	c6 45 fc 0f	 mov	 BYTE PTR __$EHRec$[ebp+8], 15 ; 0000000fH
  00443	50		 push	 eax
  00444	8d 8d dc fe ff
	ff		 lea	 ecx, DWORD PTR _szExcel$[ebp]
  0044a	ff 15 00 00 00
	00		 call	 DWORD PTR __imp_??4?$CStringT@DV?$StrTraitMFC_DLL@DV?$ChTraitsCRT@D@ATL@@@@@ATL@@QAEAAV01@ABV01@@Z
  00450	8d 8d d4 fe ff
	ff		 lea	 ecx, DWORD PTR $T17[ebp]
  00456	c6 45 fc 08	 mov	 BYTE PTR __$EHRec$[ebp+8], 8
  0045a	ff 15 00 00 00
	00		 call	 DWORD PTR __imp_??1?$CStringT@DV?$StrTraitMFC_DLL@DV?$ChTraitsCRT@D@ATL@@@@@ATL@@QAE@XZ

; 818  : 	if( strcmp( szExcel, "NO"))

  00460	8b 85 dc fe ff
	ff		 mov	 eax, DWORD PTR _szExcel$[ebp]
  00466	b9 00 00 00 00	 mov	 ecx, OFFSET ??_C@_02NFLNFON@NO@
  0046b	0f 1f 44 00 00	 npad	 5
$LL147@LoadExcel:
  00470	8a 10		 mov	 dl, BYTE PTR [eax]
  00472	3a 11		 cmp	 dl, BYTE PTR [ecx]
  00474	75 1a		 jne	 SHORT $LN148@LoadExcel
  00476	84 d2		 test	 dl, dl
  00478	74 12		 je	 SHORT $LN149@LoadExcel
  0047a	8a 50 01	 mov	 dl, BYTE PTR [eax+1]
  0047d	3a 51 01	 cmp	 dl, BYTE PTR [ecx+1]
  00480	75 0e		 jne	 SHORT $LN148@LoadExcel
  00482	83 c0 02	 add	 eax, 2
  00485	83 c1 02	 add	 ecx, 2
  00488	84 d2		 test	 dl, dl
  0048a	75 e4		 jne	 SHORT $LL147@LoadExcel
$LN149@LoadExcel:
  0048c	33 c0		 xor	 eax, eax
  0048e	eb 05		 jmp	 SHORT $LN150@LoadExcel
$LN148@LoadExcel:
  00490	1b c0		 sbb	 eax, eax
  00492	83 c8 01	 or	 eax, 1
$LN150@LoadExcel:
  00495	85 c0		 test	 eax, eax
  00497	0f 84 fe 01 00
	00		 je	 $LN14@LoadExcel

; 819  : 	{
; 820  : 		szExcel.MakeLower() ;

  0049d	8d 8d dc fe ff
	ff		 lea	 ecx, DWORD PTR _szExcel$[ebp]
  004a3	ff 15 00 00 00
	00		 call	 DWORD PTR __imp_?MakeLower@?$CStringT@DV?$StrTraitMFC_DLL@DV?$ChTraitsCRT@D@ATL@@@@@ATL@@QAEAAV12@XZ

; 821  : 		int start = szExcel.Find("excel.exe") ;

  004a9	6a 00		 push	 0
  004ab	68 00 00 00 00	 push	 OFFSET ??_C@_09KIHNACBF@excel?4exe@
  004b0	8d 8d dc fe ff
	ff		 lea	 ecx, DWORD PTR _szExcel$[ebp]
  004b6	ff 15 00 00 00
	00		 call	 DWORD PTR __imp_?Find@?$CStringT@DV?$StrTraitMFC_DLL@DV?$ChTraitsCRT@D@ATL@@@@@ATL@@QBEHPBDH@Z

; 822  : 		szExcel = szExcel.Left(start + 9) ;

  004bc	83 c0 09	 add	 eax, 9
  004bf	8d 8d dc fe ff
	ff		 lea	 ecx, DWORD PTR _szExcel$[ebp]
  004c5	50		 push	 eax
  004c6	8d 85 c8 fe ff
	ff		 lea	 eax, DWORD PTR $T11[ebp]
  004cc	50		 push	 eax
  004cd	ff 15 00 00 00
	00		 call	 DWORD PTR __imp_?Left@?$CStringT@DV?$StrTraitMFC_DLL@DV?$ChTraitsCRT@D@ATL@@@@@ATL@@QBE?AV12@H@Z
  004d3	50		 push	 eax
  004d4	8d 8d dc fe ff
	ff		 lea	 ecx, DWORD PTR _szExcel$[ebp]
  004da	c6 45 fc 10	 mov	 BYTE PTR __$EHRec$[ebp+8], 16 ; 00000010H
  004de	ff 15 00 00 00
	00		 call	 DWORD PTR __imp_??4?$CStringT@DV?$StrTraitMFC_DLL@DV?$ChTraitsCRT@D@ATL@@@@@ATL@@QAEAAV01@ABV01@@Z
  004e4	8d 8d c8 fe ff
	ff		 lea	 ecx, DWORD PTR $T11[ebp]
  004ea	c6 45 fc 08	 mov	 BYTE PTR __$EHRec$[ebp+8], 8
  004ee	ff 15 00 00 00
	00		 call	 DWORD PTR __imp_??1?$CStringT@DV?$StrTraitMFC_DLL@DV?$ChTraitsCRT@D@ATL@@@@@ATL@@QAE@XZ

; 823  : 		if(szExcel.Left(1).Compare("\"") == 0)

  004f4	6a 01		 push	 1
  004f6	8d 85 c8 fe ff
	ff		 lea	 eax, DWORD PTR $T10[ebp]
  004fc	50		 push	 eax
  004fd	8d 8d dc fe ff
	ff		 lea	 ecx, DWORD PTR _szExcel$[ebp]
  00503	ff 15 00 00 00
	00		 call	 DWORD PTR __imp_?Left@?$CStringT@DV?$StrTraitMFC_DLL@DV?$ChTraitsCRT@D@ATL@@@@@ATL@@QBE?AV12@H@Z
  00509	68 00 00 00 00	 push	 OFFSET ??_C@_01BJJEKLCA@?$CC@
  0050e	8b c8		 mov	 ecx, eax
  00510	c6 45 fc 11	 mov	 BYTE PTR __$EHRec$[ebp+8], 17 ; 00000011H
  00514	ff 15 00 00 00
	00		 call	 DWORD PTR __imp_?Compare@?$CStringT@DV?$StrTraitMFC_DLL@DV?$ChTraitsCRT@D@ATL@@@@@ATL@@QBEHPBD@Z
  0051a	8d 8d c8 fe ff
	ff		 lea	 ecx, DWORD PTR $T10[ebp]
  00520	c6 45 fc 08	 mov	 BYTE PTR __$EHRec$[ebp+8], 8
  00524	8b f0		 mov	 esi, eax
  00526	ff 15 00 00 00
	00		 call	 DWORD PTR __imp_??1?$CStringT@DV?$StrTraitMFC_DLL@DV?$ChTraitsCRT@D@ATL@@@@@ATL@@QAE@XZ
  0052c	85 f6		 test	 esi, esi
  0052e	75 3b		 jne	 SHORT $LN13@LoadExcel
; File C:\Program Files (x86)\Microsoft Visual Studio\2019\Community\VC\Tools\MSVC\14.29.30133\atlmfc\include\atlsimpstr.h

; 519  : 		return( GetData()->nDataLength );

  00530	8b 85 dc fe ff
	ff		 mov	 eax, DWORD PTR _szExcel$[ebp]
; File D:\git\src\IBK\IBK_DRFN\ProjSrc\SrcChartEx\ChartAddIn\ChartDataListViewerAddIn\ChartDataListViewerAddIn\DlgDataListViewer.cpp

; 824  : 			szExcel = szExcel.Right(szExcel.GetLength() - 1) ;

  00536	8d 8d dc fe ff
	ff		 lea	 ecx, DWORD PTR _szExcel$[ebp]
; File C:\Program Files (x86)\Microsoft Visual Studio\2019\Community\VC\Tools\MSVC\14.29.30133\atlmfc\include\atlsimpstr.h

; 519  : 		return( GetData()->nDataLength );

  0053c	8b 40 f4	 mov	 eax, DWORD PTR [eax-12]
; File D:\git\src\IBK\IBK_DRFN\ProjSrc\SrcChartEx\ChartAddIn\ChartDataListViewerAddIn\ChartDataListViewerAddIn\DlgDataListViewer.cpp

; 824  : 			szExcel = szExcel.Right(szExcel.GetLength() - 1) ;

  0053f	48		 dec	 eax
  00540	50		 push	 eax
  00541	8d 85 c8 fe ff
	ff		 lea	 eax, DWORD PTR $T9[ebp]
  00547	50		 push	 eax
  00548	ff 15 00 00 00
	00		 call	 DWORD PTR __imp_?Right@?$CStringT@DV?$StrTraitMFC_DLL@DV?$ChTraitsCRT@D@ATL@@@@@ATL@@QBE?AV12@H@Z
  0054e	50		 push	 eax
  0054f	8d 8d dc fe ff
	ff		 lea	 ecx, DWORD PTR _szExcel$[ebp]
  00555	c6 45 fc 12	 mov	 BYTE PTR __$EHRec$[ebp+8], 18 ; 00000012H
  00559	ff 15 00 00 00
	00		 call	 DWORD PTR __imp_??4?$CStringT@DV?$StrTraitMFC_DLL@DV?$ChTraitsCRT@D@ATL@@@@@ATL@@QAEAAV01@ABV01@@Z
  0055f	8d 8d c8 fe ff
	ff		 lea	 ecx, DWORD PTR $T9[ebp]
  00565	ff 15 00 00 00
	00		 call	 DWORD PTR __imp_??1?$CStringT@DV?$StrTraitMFC_DLL@DV?$ChTraitsCRT@D@ATL@@@@@ATL@@QAE@XZ
$LN13@LoadExcel:
; File C:\Program Files (x86)\Microsoft Visual Studio\2019\Community\VC\Tools\MSVC\14.29.30133\atlmfc\include\cstringt.h

; 2401 : 		CStringT strResult( str1.GetManager() );

  0056b	8d 8d dc fe ff
	ff		 lea	 ecx, DWORD PTR _szExcel$[ebp]
; File D:\git\src\IBK\IBK_DRFN\ProjSrc\SrcChartEx\ChartAddIn\ChartDataListViewerAddIn\ChartDataListViewerAddIn\DlgDataListViewer.cpp

; 827  : 		szExcel = szExcel + " \"" + szFilePath + "\"";	

  00571	c6 45 fc 13	 mov	 BYTE PTR __$EHRec$[ebp+8], 19 ; 00000013H
; File C:\Program Files (x86)\Microsoft Visual Studio\2019\Community\VC\Tools\MSVC\14.29.30133\atlmfc\include\cstringt.h

; 2401 : 		CStringT strResult( str1.GetManager() );

  00575	ff 15 00 00 00
	00		 call	 DWORD PTR __imp_?GetManager@?$CStringT@DV?$StrTraitMFC_DLL@DV?$ChTraitsCRT@D@ATL@@@@@ATL@@QBEPAUIAtlStringMgr@2@XZ
  0057b	50		 push	 eax
  0057c	8d 8d cc fe ff
	ff		 lea	 ecx, DWORD PTR $T13[ebp]
  00582	ff 15 00 00 00
	00		 call	 DWORD PTR __imp_??0?$CStringT@DV?$StrTraitMFC_DLL@DV?$ChTraitsCRT@D@ATL@@@@@ATL@@QAE@PAUIAtlStringMgr@1@@Z
; File C:\Program Files (x86)\Microsoft Visual Studio\2019\Community\VC\Tools\MSVC\14.29.30133\atlmfc\include\atlsimpstr.h

; 519  : 		return( GetData()->nDataLength );

  00588	8b 85 dc fe ff
	ff		 mov	 eax, DWORD PTR _szExcel$[ebp]
; File C:\Program Files (x86)\Microsoft Visual Studio\2019\Community\VC\Tools\MSVC\14.29.30133\atlmfc\include\cstringt.h

; 2405 : 		return( strResult );

  0058e	8b 9d bc fe ff
	ff		 mov	 ebx, DWORD PTR $T7[ebp]
  00594	6a 02		 push	 2
  00596	68 00 00 00 00	 push	 OFFSET ??_C@_02JPEBCGCN@?5?$CC@
  0059b	ff 70 f4	 push	 DWORD PTR [eax-12]
  0059e	83 cb 03	 or	 ebx, 3
  005a1	50		 push	 eax
  005a2	8d 85 cc fe ff
	ff		 lea	 eax, DWORD PTR $T13[ebp]
  005a8	89 9d bc fe ff
	ff		 mov	 DWORD PTR $T7[ebp], ebx
  005ae	50		 push	 eax
  005af	ff 15 00 00 00
	00		 call	 DWORD PTR __imp_?Concatenate@?$CSimpleStringT@D$00@ATL@@KAXAAV12@PBDH1H@Z
  005b5	83 c4 14	 add	 esp, 20			; 00000014H

; 2390 : 		CStringT strResult( str1.GetManager() );

  005b8	8d 8d cc fe ff
	ff		 lea	 ecx, DWORD PTR $T13[ebp]
; File D:\git\src\IBK\IBK_DRFN\ProjSrc\SrcChartEx\ChartAddIn\ChartDataListViewerAddIn\ChartDataListViewerAddIn\DlgDataListViewer.cpp

; 827  : 		szExcel = szExcel + " \"" + szFilePath + "\"";	

  005be	c6 45 fc 14	 mov	 BYTE PTR __$EHRec$[ebp+8], 20 ; 00000014H
; File C:\Program Files (x86)\Microsoft Visual Studio\2019\Community\VC\Tools\MSVC\14.29.30133\atlmfc\include\cstringt.h

; 2390 : 		CStringT strResult( str1.GetManager() );

  005c2	ff 15 00 00 00
	00		 call	 DWORD PTR __imp_?GetManager@?$CStringT@DV?$StrTraitMFC_DLL@DV?$ChTraitsCRT@D@ATL@@@@@ATL@@QBEPAUIAtlStringMgr@2@XZ
  005c8	50		 push	 eax
  005c9	8d 8d d0 fe ff
	ff		 lea	 ecx, DWORD PTR $T15[ebp]
  005cf	ff 15 00 00 00
	00		 call	 DWORD PTR __imp_??0?$CStringT@DV?$StrTraitMFC_DLL@DV?$ChTraitsCRT@D@ATL@@@@@ATL@@QAE@PAUIAtlStringMgr@1@@Z
; File C:\Program Files (x86)\Microsoft Visual Studio\2019\Community\VC\Tools\MSVC\14.29.30133\atlmfc\include\atlsimpstr.h

; 519  : 		return( GetData()->nDataLength );

  005d5	8b 85 c0 fe ff
	ff		 mov	 eax, DWORD PTR _szFilePath$[ebp]
; File C:\Program Files (x86)\Microsoft Visual Studio\2019\Community\VC\Tools\MSVC\14.29.30133\atlmfc\include\cstringt.h

; 2394 : 		return( strResult );

  005db	83 cb 04	 or	 ebx, 4
; File C:\Program Files (x86)\Microsoft Visual Studio\2019\Community\VC\Tools\MSVC\14.29.30133\atlmfc\include\atlsimpstr.h

; 519  : 		return( GetData()->nDataLength );

  005de	8b 8d cc fe ff
	ff		 mov	 ecx, DWORD PTR $T13[ebp]
; File C:\Program Files (x86)\Microsoft Visual Studio\2019\Community\VC\Tools\MSVC\14.29.30133\atlmfc\include\cstringt.h

; 2394 : 		return( strResult );

  005e4	89 9d bc fe ff
	ff		 mov	 DWORD PTR $T7[ebp], ebx
  005ea	ff 70 f4	 push	 DWORD PTR [eax-12]
  005ed	50		 push	 eax
  005ee	ff 71 f4	 push	 DWORD PTR [ecx-12]
  005f1	8d 85 d0 fe ff
	ff		 lea	 eax, DWORD PTR $T15[ebp]
  005f7	51		 push	 ecx
  005f8	50		 push	 eax
  005f9	ff 15 00 00 00
	00		 call	 DWORD PTR __imp_?Concatenate@?$CSimpleStringT@D$00@ATL@@KAXAAV12@PBDH1H@Z
  005ff	83 c4 14	 add	 esp, 20			; 00000014H

; 2401 : 		CStringT strResult( str1.GetManager() );

  00602	8d 8d d0 fe ff
	ff		 lea	 ecx, DWORD PTR $T15[ebp]
; File D:\git\src\IBK\IBK_DRFN\ProjSrc\SrcChartEx\ChartAddIn\ChartDataListViewerAddIn\ChartDataListViewerAddIn\DlgDataListViewer.cpp

; 827  : 		szExcel = szExcel + " \"" + szFilePath + "\"";	

  00608	c6 45 fc 15	 mov	 BYTE PTR __$EHRec$[ebp+8], 21 ; 00000015H
; File C:\Program Files (x86)\Microsoft Visual Studio\2019\Community\VC\Tools\MSVC\14.29.30133\atlmfc\include\cstringt.h

; 2401 : 		CStringT strResult( str1.GetManager() );

  0060c	ff 15 00 00 00
	00		 call	 DWORD PTR __imp_?GetManager@?$CStringT@DV?$StrTraitMFC_DLL@DV?$ChTraitsCRT@D@ATL@@@@@ATL@@QBEPAUIAtlStringMgr@2@XZ
  00612	50		 push	 eax
  00613	8d 8d d4 fe ff
	ff		 lea	 ecx, DWORD PTR $T16[ebp]
  00619	ff 15 00 00 00
	00		 call	 DWORD PTR __imp_??0?$CStringT@DV?$StrTraitMFC_DLL@DV?$ChTraitsCRT@D@ATL@@@@@ATL@@QAE@PAUIAtlStringMgr@1@@Z
; File C:\Program Files (x86)\Microsoft Visual Studio\2019\Community\VC\Tools\MSVC\14.29.30133\atlmfc\include\atlsimpstr.h

; 519  : 		return( GetData()->nDataLength );

  0061f	8b 85 d0 fe ff
	ff		 mov	 eax, DWORD PTR $T15[ebp]
; File C:\Program Files (x86)\Microsoft Visual Studio\2019\Community\VC\Tools\MSVC\14.29.30133\atlmfc\include\cstringt.h

; 2405 : 		return( strResult );

  00625	83 cb 08	 or	 ebx, 8
  00628	6a 01		 push	 1
  0062a	68 00 00 00 00	 push	 OFFSET ??_C@_01BJJEKLCA@?$CC@
  0062f	89 9d bc fe ff
	ff		 mov	 DWORD PTR $T7[ebp], ebx
  00635	ff 70 f4	 push	 DWORD PTR [eax-12]
  00638	50		 push	 eax
  00639	8d 85 d4 fe ff
	ff		 lea	 eax, DWORD PTR $T16[ebp]
  0063f	50		 push	 eax
  00640	ff 15 00 00 00
	00		 call	 DWORD PTR __imp_?Concatenate@?$CSimpleStringT@D$00@ATL@@KAXAAV12@PBDH1H@Z
  00646	83 c4 14	 add	 esp, 20			; 00000014H
; File D:\git\src\IBK\IBK_DRFN\ProjSrc\SrcChartEx\ChartAddIn\ChartDataListViewerAddIn\ChartDataListViewerAddIn\DlgDataListViewer.cpp

; 827  : 		szExcel = szExcel + " \"" + szFilePath + "\"";	

  00649	8d 85 d4 fe ff
	ff		 lea	 eax, DWORD PTR $T16[ebp]
  0064f	8d 8d dc fe ff
	ff		 lea	 ecx, DWORD PTR _szExcel$[ebp]
  00655	50		 push	 eax
  00656	ff 15 00 00 00
	00		 call	 DWORD PTR __imp_??4?$CStringT@DV?$StrTraitMFC_DLL@DV?$ChTraitsCRT@D@ATL@@@@@ATL@@QAEAAV01@ABV01@@Z
  0065c	8d 8d d4 fe ff
	ff		 lea	 ecx, DWORD PTR $T16[ebp]
  00662	ff 15 00 00 00
	00		 call	 DWORD PTR __imp_??1?$CStringT@DV?$StrTraitMFC_DLL@DV?$ChTraitsCRT@D@ATL@@@@@ATL@@QAE@XZ
  00668	8d 8d d0 fe ff
	ff		 lea	 ecx, DWORD PTR $T15[ebp]
  0066e	ff 15 00 00 00
	00		 call	 DWORD PTR __imp_??1?$CStringT@DV?$StrTraitMFC_DLL@DV?$ChTraitsCRT@D@ATL@@@@@ATL@@QAE@XZ
  00674	8d 8d cc fe ff
	ff		 lea	 ecx, DWORD PTR $T13[ebp]
  0067a	c6 45 fc 08	 mov	 BYTE PTR __$EHRec$[ebp+8], 8
  0067e	ff 15 00 00 00
	00		 call	 DWORD PTR __imp_??1?$CStringT@DV?$StrTraitMFC_DLL@DV?$ChTraitsCRT@D@ATL@@@@@ATL@@QAE@XZ

; 828  : 
; 829  : 		if(::WinExec((LPCTSTR)szExcel, SW_SHOW) > 31)

  00684	6a 05		 push	 5
  00686	ff b5 dc fe ff
	ff		 push	 DWORD PTR _szExcel$[ebp]
  0068c	ff 15 00 00 00
	00		 call	 DWORD PTR __imp__WinExec@8
  00692	83 f8 1f	 cmp	 eax, 31			; 0000001fH
  00695	0f 87 9e 00 00
	00		 ja	 $LN38@LoadExcel
$LN14@LoadExcel:

; 830  : 			return;
; 831  : 	}
; 832  : 
; 833  : 	CString szMsg, strFileSave1, strFileSave2;

  0069b	8d 8d a4 fe ff
	ff		 lea	 ecx, DWORD PTR _szMsg$[ebp]
  006a1	ff 15 00 00 00
	00		 call	 DWORD PTR __imp_??0?$CStringT@DV?$StrTraitMFC_DLL@DV?$ChTraitsCRT@D@ATL@@@@@ATL@@QAE@XZ
  006a7	8d 8d a8 fe ff
	ff		 lea	 ecx, DWORD PTR _strFileSave1$[ebp]
  006ad	ff 15 00 00 00
	00		 call	 DWORD PTR __imp_??0?$CStringT@DV?$StrTraitMFC_DLL@DV?$ChTraitsCRT@D@ATL@@@@@ATL@@QAE@XZ
  006b3	8d 8d ac fe ff
	ff		 lea	 ecx, DWORD PTR _strFileSave2$[ebp]
  006b9	ff 15 00 00 00
	00		 call	 DWORD PTR __imp_??0?$CStringT@DV?$StrTraitMFC_DLL@DV?$ChTraitsCRT@D@ATL@@@@@ATL@@QAE@XZ

; 834  : 	strFileSave1.LoadString(IDS_FILESAVE1);

  006bf	6a 05		 push	 5
  006c1	8d 8d a8 fe ff
	ff		 lea	 ecx, DWORD PTR _strFileSave1$[ebp]
  006c7	c6 45 fc 18	 mov	 BYTE PTR __$EHRec$[ebp+8], 24 ; 00000018H
  006cb	ff 15 00 00 00
	00		 call	 DWORD PTR __imp_?LoadStringA@?$CStringT@DV?$StrTraitMFC_DLL@DV?$ChTraitsCRT@D@ATL@@@@@ATL@@QAEHI@Z

; 835  : 	strFileSave2.LoadString(IDS_FILESAVE2);

  006d1	6a 06		 push	 6
  006d3	8d 8d ac fe ff
	ff		 lea	 ecx, DWORD PTR _strFileSave2$[ebp]
  006d9	ff 15 00 00 00
	00		 call	 DWORD PTR __imp_?LoadStringA@?$CStringT@DV?$StrTraitMFC_DLL@DV?$ChTraitsCRT@D@ATL@@@@@ATL@@QAEHI@Z

; 836  : 	szMsg.Format("%s \"%s\"%s", strFileSave1, szFilePath, strFileSave2);

  006df	ff b5 ac fe ff
	ff		 push	 DWORD PTR _strFileSave2$[ebp]
  006e5	8d 85 a4 fe ff
	ff		 lea	 eax, DWORD PTR _szMsg$[ebp]
  006eb	ff b5 c0 fe ff
	ff		 push	 DWORD PTR _szFilePath$[ebp]
  006f1	ff b5 a8 fe ff
	ff		 push	 DWORD PTR _strFileSave1$[ebp]
  006f7	68 00 00 00 00	 push	 OFFSET ??_C@_09EMHCNPP@?$CFs?5?$CC?$CFs?$CC?$CFs@
  006fc	50		 push	 eax
  006fd	ff 15 00 00 00
	00		 call	 DWORD PTR __imp_?Format@?$CStringT@DV?$StrTraitMFC_DLL@DV?$ChTraitsCRT@D@ATL@@@@@ATL@@QAAXPBDZZ
  00703	83 c4 14	 add	 esp, 20			; 00000014H

; 837  : 	AfxMessageBox( szMsg )	;//, "Chart") ;

  00706	6a 00		 push	 0
  00708	6a 00		 push	 0
  0070a	ff b5 a4 fe ff
	ff		 push	 DWORD PTR _szMsg$[ebp]
  00710	e8 00 00 00 00	 call	 ?AfxMessageBox@@YGHPBDII@Z ; AfxMessageBox

; 838  : 	return;

  00715	8d 8d ac fe ff
	ff		 lea	 ecx, DWORD PTR _strFileSave2$[ebp]
  0071b	ff 15 00 00 00
	00		 call	 DWORD PTR __imp_??1?$CStringT@DV?$StrTraitMFC_DLL@DV?$ChTraitsCRT@D@ATL@@@@@ATL@@QAE@XZ
  00721	8d 8d a8 fe ff
	ff		 lea	 ecx, DWORD PTR _strFileSave1$[ebp]
  00727	ff 15 00 00 00
	00		 call	 DWORD PTR __imp_??1?$CStringT@DV?$StrTraitMFC_DLL@DV?$ChTraitsCRT@D@ATL@@@@@ATL@@QAE@XZ
  0072d	8d 8d a4 fe ff
	ff		 lea	 ecx, DWORD PTR _szMsg$[ebp]
  00733	ff 15 00 00 00
	00		 call	 DWORD PTR __imp_??1?$CStringT@DV?$StrTraitMFC_DLL@DV?$ChTraitsCRT@D@ATL@@@@@ATL@@QAE@XZ
$LN38@LoadExcel:
  00739	8d 8d a0 fe ff
	ff		 lea	 ecx, DWORD PTR _strKey$[ebp]
  0073f	ff 15 00 00 00
	00		 call	 DWORD PTR __imp_??1?$CStringT@DV?$StrTraitMFC_DLL@DV?$ChTraitsCRT@D@ATL@@@@@ATL@@QAE@XZ
  00745	8d 8d dc fe ff
	ff		 lea	 ecx, DWORD PTR _szExcel$[ebp]
  0074b	ff 15 00 00 00
	00		 call	 DWORD PTR __imp_??1?$CStringT@DV?$StrTraitMFC_DLL@DV?$ChTraitsCRT@D@ATL@@@@@ATL@@QAE@XZ
  00751	8d 8d c4 fe ff
	ff		 lea	 ecx, DWORD PTR _szTmp$[ebp]
  00757	ff 15 00 00 00
	00		 call	 DWORD PTR __imp_??1?$CStringT@DV?$StrTraitMFC_DLL@DV?$ChTraitsCRT@D@ATL@@@@@ATL@@QAE@XZ
  0075d	8d 8d d8 fe ff
	ff		 lea	 ecx, DWORD PTR _szData$[ebp]
  00763	ff 15 00 00 00
	00		 call	 DWORD PTR __imp_??1?$CStringT@DV?$StrTraitMFC_DLL@DV?$ChTraitsCRT@D@ATL@@@@@ATL@@QAE@XZ
$LN37@LoadExcel:
; File C:\Program Files (x86)\Microsoft Visual Studio\2019\Community\VC\Tools\MSVC\14.29.30133\atlmfc\include\afx.inl

; 170  : 	{ }

  00769	8d 8d 94 fe ff
	ff		 lea	 ecx, DWORD PTR _e$[ebp+16]
  0076f	c7 85 84 fe ff
	ff 00 00 00 00	 mov	 DWORD PTR _e$[ebp], OFFSET ??_7CFileException@@6B@
  00779	ff 15 00 00 00
	00		 call	 DWORD PTR __imp_??1?$CStringT@DV?$StrTraitMFC_DLL@DV?$ChTraitsCRT@D@ATL@@@@@ATL@@QAE@XZ
; File D:\git\src\IBK\IBK_DRFN\ProjSrc\SrcChartEx\ChartAddIn\ChartDataListViewerAddIn\ChartDataListViewerAddIn\DlgDataListViewer.cpp

; 838  : 	return;

  0077f	8d 8d 70 fe ff
	ff		 lea	 ecx, DWORD PTR _file$[ebp]
  00785	e8 00 00 00 00	 call	 ??1CFile@@UAE@XZ	; CFile::~CFile
  0078a	8d 8d c0 fe ff
	ff		 lea	 ecx, DWORD PTR _szFilePath$[ebp]
  00790	ff 15 00 00 00
	00		 call	 DWORD PTR __imp_??1?$CStringT@DV?$StrTraitMFC_DLL@DV?$ChTraitsCRT@D@ATL@@@@@ATL@@QAE@XZ

; 839  : }

  00796	8b 4d f4	 mov	 ecx, DWORD PTR __$EHRec$[ebp]
  00799	64 89 0d 00 00
	00 00		 mov	 DWORD PTR fs:0, ecx
  007a0	59		 pop	 ecx
  007a1	5f		 pop	 edi
  007a2	5e		 pop	 esi
  007a3	5b		 pop	 ebx
  007a4	8b 4d f0	 mov	 ecx, DWORD PTR __$ArrayPad$[ebp]
  007a7	33 cd		 xor	 ecx, ebp
  007a9	e8 00 00 00 00	 call	 @__security_check_cookie@4
  007ae	8b e5		 mov	 esp, ebp
  007b0	5d		 pop	 ebp
  007b1	c3		 ret	 0
_TEXT	ENDS
;	COMDAT text$x
text$x	SEGMENT
__unwindfunclet$?LoadExcel@CDlgDataListViewer@@QAEXXZ$0:
  00000	8d 8d c0 fe ff
	ff		 lea	 ecx, DWORD PTR _szFilePath$[ebp]
  00006	ff 25 00 00 00
	00		 jmp	 DWORD PTR __imp_??1?$CStringT@DV?$StrTraitMFC_DLL@DV?$ChTraitsCRT@D@ATL@@@@@ATL@@QAE@XZ
__unwindfunclet$?LoadExcel@CDlgDataListViewer@@QAEXXZ$1:
  0000c	8d 8d 70 fe ff
	ff		 lea	 ecx, DWORD PTR _file$[ebp]
  00012	e9 00 00 00 00	 jmp	 ??1CFile@@UAE@XZ	; CFile::~CFile
__unwindfunclet$?LoadExcel@CDlgDataListViewer@@QAEXXZ$21:
  00017	8d 8d 94 fe ff
	ff		 lea	 ecx, DWORD PTR _e$[ebp+16]
  0001d	ff 25 00 00 00
	00		 jmp	 DWORD PTR __imp_??1?$CStringT@DV?$StrTraitMFC_DLL@DV?$ChTraitsCRT@D@ATL@@@@@ATL@@QAE@XZ
__unwindfunclet$?LoadExcel@CDlgDataListViewer@@QAEXXZ$2:
  00023	8d 8d 84 fe ff
	ff		 lea	 ecx, DWORD PTR _e$[ebp]
  00029	e9 00 00 00 00	 jmp	 ??1CFileException@@UAE@XZ ; CFileException::~CFileException
__unwindfunclet$?LoadExcel@CDlgDataListViewer@@QAEXXZ$3:
  0002e	8d 8d d8 fe ff
	ff		 lea	 ecx, DWORD PTR _szData$[ebp]
  00034	ff 25 00 00 00
	00		 jmp	 DWORD PTR __imp_??1?$CStringT@DV?$StrTraitMFC_DLL@DV?$ChTraitsCRT@D@ATL@@@@@ATL@@QAE@XZ
__unwindfunclet$?LoadExcel@CDlgDataListViewer@@QAEXXZ$4:
  0003a	8d 8d c4 fe ff
	ff		 lea	 ecx, DWORD PTR _szTmp$[ebp]
  00040	ff 25 00 00 00
	00		 jmp	 DWORD PTR __imp_??1?$CStringT@DV?$StrTraitMFC_DLL@DV?$ChTraitsCRT@D@ATL@@@@@ATL@@QAE@XZ
__unwindfunclet$?LoadExcel@CDlgDataListViewer@@QAEXXZ$5:
  00046	8d 8d d4 fe ff
	ff		 lea	 ecx, DWORD PTR $T18[ebp]
  0004c	ff 25 00 00 00
	00		 jmp	 DWORD PTR __imp_??1?$CStringT@DV?$StrTraitMFC_DLL@DV?$ChTraitsCRT@D@ATL@@@@@ATL@@QAE@XZ
__unwindfunclet$?LoadExcel@CDlgDataListViewer@@QAEXXZ$6:
  00052	8d 8d dc fe ff
	ff		 lea	 ecx, DWORD PTR _szExcel$[ebp]
  00058	ff 25 00 00 00
	00		 jmp	 DWORD PTR __imp_??1?$CStringT@DV?$StrTraitMFC_DLL@DV?$ChTraitsCRT@D@ATL@@@@@ATL@@QAE@XZ
__unwindfunclet$?LoadExcel@CDlgDataListViewer@@QAEXXZ$7:
  0005e	8d 8d a0 fe ff
	ff		 lea	 ecx, DWORD PTR _strKey$[ebp]
  00064	ff 25 00 00 00
	00		 jmp	 DWORD PTR __imp_??1?$CStringT@DV?$StrTraitMFC_DLL@DV?$ChTraitsCRT@D@ATL@@@@@ATL@@QAE@XZ
__unwindfunclet$?LoadExcel@CDlgDataListViewer@@QAEXXZ$8:
  0006a	8d 8d b0 fe ff
	ff		 lea	 ecx, DWORD PTR $T4[ebp]
  00070	ff 25 00 00 00
	00		 jmp	 DWORD PTR __imp_??1?$CStringT@DV?$StrTraitMFC_DLL@DV?$ChTraitsCRT@D@ATL@@@@@ATL@@QAE@XZ
__unwindfunclet$?LoadExcel@CDlgDataListViewer@@QAEXXZ$9:
  00076	8d 8d b4 fe ff
	ff		 lea	 ecx, DWORD PTR $T5[ebp]
  0007c	ff 25 00 00 00
	00		 jmp	 DWORD PTR __imp_??1?$CStringT@DV?$StrTraitMFC_DLL@DV?$ChTraitsCRT@D@ATL@@@@@ATL@@QAE@XZ
__unwindfunclet$?LoadExcel@CDlgDataListViewer@@QAEXXZ$23:
  00082	8d 8d b0 fe ff
	ff		 lea	 ecx, DWORD PTR $T4[ebp]
  00088	ff 25 00 00 00
	00		 jmp	 DWORD PTR __imp_??1?$CStringT@DV?$StrTraitMFC_DLL@DV?$ChTraitsCRT@D@ATL@@@@@ATL@@QAE@XZ
__unwindfunclet$?LoadExcel@CDlgDataListViewer@@QAEXXZ$24:
  0008e	8d 8d b4 fe ff
	ff		 lea	 ecx, DWORD PTR $T5[ebp]
  00094	ff 25 00 00 00
	00		 jmp	 DWORD PTR __imp_??1?$CStringT@DV?$StrTraitMFC_DLL@DV?$ChTraitsCRT@D@ATL@@@@@ATL@@QAE@XZ
__unwindfunclet$?LoadExcel@CDlgDataListViewer@@QAEXXZ$25:
  0009a	8d 8d d0 fe ff
	ff		 lea	 ecx, DWORD PTR $T14[ebp]
  000a0	ff 25 00 00 00
	00		 jmp	 DWORD PTR __imp_??1?$CStringT@DV?$StrTraitMFC_DLL@DV?$ChTraitsCRT@D@ATL@@@@@ATL@@QAE@XZ
__unwindfunclet$?LoadExcel@CDlgDataListViewer@@QAEXXZ$26:
  000a6	8d 8d b8 fe ff
	ff		 lea	 ecx, DWORD PTR _str$6[ebp]
  000ac	ff 25 00 00 00
	00		 jmp	 DWORD PTR __imp_??1?$CStringT@DV?$StrTraitMFC_DLL@DV?$ChTraitsCRT@D@ATL@@@@@ATL@@QAE@XZ
__unwindfunclet$?LoadExcel@CDlgDataListViewer@@QAEXXZ$11:
  000b2	8d 8d d4 fe ff
	ff		 lea	 ecx, DWORD PTR $T17[ebp]
  000b8	ff 25 00 00 00
	00		 jmp	 DWORD PTR __imp_??1?$CStringT@DV?$StrTraitMFC_DLL@DV?$ChTraitsCRT@D@ATL@@@@@ATL@@QAE@XZ
__unwindfunclet$?LoadExcel@CDlgDataListViewer@@QAEXXZ$12:
  000be	8d 8d c8 fe ff
	ff		 lea	 ecx, DWORD PTR $T11[ebp]
  000c4	ff 25 00 00 00
	00		 jmp	 DWORD PTR __imp_??1?$CStringT@DV?$StrTraitMFC_DLL@DV?$ChTraitsCRT@D@ATL@@@@@ATL@@QAE@XZ
__unwindfunclet$?LoadExcel@CDlgDataListViewer@@QAEXXZ$13:
  000ca	8d 8d c8 fe ff
	ff		 lea	 ecx, DWORD PTR $T10[ebp]
  000d0	ff 25 00 00 00
	00		 jmp	 DWORD PTR __imp_??1?$CStringT@DV?$StrTraitMFC_DLL@DV?$ChTraitsCRT@D@ATL@@@@@ATL@@QAE@XZ
__unwindfunclet$?LoadExcel@CDlgDataListViewer@@QAEXXZ$14:
  000d6	8d 8d c8 fe ff
	ff		 lea	 ecx, DWORD PTR $T9[ebp]
  000dc	ff 25 00 00 00
	00		 jmp	 DWORD PTR __imp_??1?$CStringT@DV?$StrTraitMFC_DLL@DV?$ChTraitsCRT@D@ATL@@@@@ATL@@QAE@XZ
__unwindfunclet$?LoadExcel@CDlgDataListViewer@@QAEXXZ$28:
  000e2	8b 85 bc fe ff
	ff		 mov	 eax, DWORD PTR $T7[ebp]
  000e8	83 e0 02	 and	 eax, 2
  000eb	0f 84 13 00 00
	00		 je	 $LN86@LoadExcel
  000f1	83 a5 bc fe ff
	ff fd		 and	 DWORD PTR $T7[ebp], -3	; fffffffdH
  000f8	8d 8d cc fe ff
	ff		 lea	 ecx, DWORD PTR $T13[ebp]
  000fe	ff 25 00 00 00
	00		 jmp	 DWORD PTR __imp_??1?$CStringT@DV?$StrTraitMFC_DLL@DV?$ChTraitsCRT@D@ATL@@@@@ATL@@QAE@XZ
$LN86@LoadExcel:
  00104	c3		 ret	 0
__unwindfunclet$?LoadExcel@CDlgDataListViewer@@QAEXXZ$29:
  00105	8b 85 bc fe ff
	ff		 mov	 eax, DWORD PTR $T7[ebp]
  0010b	83 e0 04	 and	 eax, 4
  0010e	0f 84 13 00 00
	00		 je	 $LN99@LoadExcel
  00114	83 a5 bc fe ff
	ff fb		 and	 DWORD PTR $T7[ebp], -5	; fffffffbH
  0011b	8d 8d d0 fe ff
	ff		 lea	 ecx, DWORD PTR $T15[ebp]
  00121	ff 25 00 00 00
	00		 jmp	 DWORD PTR __imp_??1?$CStringT@DV?$StrTraitMFC_DLL@DV?$ChTraitsCRT@D@ATL@@@@@ATL@@QAE@XZ
$LN99@LoadExcel:
  00127	c3		 ret	 0
__unwindfunclet$?LoadExcel@CDlgDataListViewer@@QAEXXZ$30:
  00128	8b 85 bc fe ff
	ff		 mov	 eax, DWORD PTR $T7[ebp]
  0012e	83 e0 08	 and	 eax, 8
  00131	0f 84 13 00 00
	00		 je	 $LN115@LoadExcel
  00137	83 a5 bc fe ff
	ff f7		 and	 DWORD PTR $T7[ebp], -9	; fffffff7H
  0013e	8d 8d d4 fe ff
	ff		 lea	 ecx, DWORD PTR $T16[ebp]
  00144	ff 25 00 00 00
	00		 jmp	 DWORD PTR __imp_??1?$CStringT@DV?$StrTraitMFC_DLL@DV?$ChTraitsCRT@D@ATL@@@@@ATL@@QAE@XZ
$LN115@LoadExcel:
  0014a	c3		 ret	 0
__unwindfunclet$?LoadExcel@CDlgDataListViewer@@QAEXXZ$18:
  0014b	8d 8d a4 fe ff
	ff		 lea	 ecx, DWORD PTR _szMsg$[ebp]
  00151	ff 25 00 00 00
	00		 jmp	 DWORD PTR __imp_??1?$CStringT@DV?$StrTraitMFC_DLL@DV?$ChTraitsCRT@D@ATL@@@@@ATL@@QAE@XZ
__unwindfunclet$?LoadExcel@CDlgDataListViewer@@QAEXXZ$19:
  00157	8d 8d a8 fe ff
	ff		 lea	 ecx, DWORD PTR _strFileSave1$[ebp]
  0015d	ff 25 00 00 00
	00		 jmp	 DWORD PTR __imp_??1?$CStringT@DV?$StrTraitMFC_DLL@DV?$ChTraitsCRT@D@ATL@@@@@ATL@@QAE@XZ
__unwindfunclet$?LoadExcel@CDlgDataListViewer@@QAEXXZ$20:
  00163	8d 8d ac fe ff
	ff		 lea	 ecx, DWORD PTR _strFileSave2$[ebp]
  00169	ff 25 00 00 00
	00		 jmp	 DWORD PTR __imp_??1?$CStringT@DV?$StrTraitMFC_DLL@DV?$ChTraitsCRT@D@ATL@@@@@ATL@@QAE@XZ
  0016f	cc		 int	 3
  00170	cc		 int	 3
  00171	cc		 int	 3
  00172	cc		 int	 3
  00173	cc		 int	 3
__ehhandler$?LoadExcel@CDlgDataListViewer@@QAEXXZ:
  00174	90		 npad	 1
  00175	90		 npad	 1
  00176	8b 54 24 08	 mov	 edx, DWORD PTR [esp+8]
  0017a	8d 42 0c	 lea	 eax, DWORD PTR [edx+12]
  0017d	8b 8a 3c fe ff
	ff		 mov	 ecx, DWORD PTR [edx-452]
  00183	33 c8		 xor	 ecx, eax
  00185	e8 00 00 00 00	 call	 @__security_check_cookie@4
  0018a	8b 4a fc	 mov	 ecx, DWORD PTR [edx-4]
  0018d	33 c8		 xor	 ecx, eax
  0018f	e8 00 00 00 00	 call	 @__security_check_cookie@4
  00194	b8 00 00 00 00	 mov	 eax, OFFSET __ehfuncinfo$?LoadExcel@CDlgDataListViewer@@QAEXXZ
  00199	e9 00 00 00 00	 jmp	 ___CxxFrameHandler3
text$x	ENDS
?LoadExcel@CDlgDataListViewer@@QAEXXZ ENDP		; CDlgDataListViewer::LoadExcel
; Function compile flags: /Ogtp
; File D:\git\src\IBK\IBK_DRFN\ProjSrc\SrcChartEx\ChartAddIn\ChartDataListViewerAddIn\ChartDataListViewerAddIn\DlgDataListViewer.cpp
; File C:\Program Files (x86)\Microsoft Visual Studio\2019\Community\VC\Tools\MSVC\14.29.30133\atlmfc\include\atltypes.h
; File D:\git\src\IBK\IBK_DRFN\ProjSrc\SrcChartEx\ChartAddIn\ChartDataListViewerAddIn\ChartDataListViewerAddIn\DlgDataListViewer.cpp
; File C:\Program Files (x86)\Microsoft Visual Studio\2019\Community\VC\Tools\MSVC\14.29.30133\atlmfc\include\atltypes.h
; File D:\git\src\IBK\IBK_DRFN\ProjSrc\SrcChartEx\ChartAddIn\ChartDataListViewerAddIn\ChartDataListViewerAddIn\DlgDataListViewer.cpp
; File C:\Program Files (x86)\Microsoft Visual Studio\2019\Community\VC\Tools\MSVC\14.29.30133\atlmfc\include\atltypes.h
; File D:\git\src\IBK\IBK_DRFN\ProjSrc\SrcChartEx\ChartAddIn\ChartDataListViewerAddIn\ChartDataListViewerAddIn\DlgDataListViewer.cpp
;	COMDAT ?GetRowandColumnCount@CDlgDataListViewer@@QAE?AVCPoint@@XZ
_TEXT	SEGMENT
_strRQs$ = -36						; size = 4
_pPacketheader$1$ = -32					; size = 4
_strT$2 = -32						; size = 4
_strPacketName$3 = -28					; size = 4
$T4 = -24						; size = 4
$T5 = -20						; size = 4
$T6 = -20						; size = 4
_strRQ$ = -16						; size = 4
__$EHRec$ = -12						; size = 12
___$ReturnUdt$ = 8					; size = 4
?GetRowandColumnCount@CDlgDataListViewer@@QAE?AVCPoint@@XZ PROC ; CDlgDataListViewer::GetRowandColumnCount, COMDAT
; _this$ = ecx

; 978  : {

  00000	55		 push	 ebp
  00001	8b ec		 mov	 ebp, esp
  00003	6a ff		 push	 -1
  00005	68 00 00 00 00	 push	 __ehhandler$?GetRowandColumnCount@CDlgDataListViewer@@QAE?AVCPoint@@XZ
  0000a	64 a1 00 00 00
	00		 mov	 eax, DWORD PTR fs:0
  00010	50		 push	 eax
  00011	83 ec 18	 sub	 esp, 24			; 00000018H
  00014	53		 push	 ebx
  00015	56		 push	 esi
  00016	57		 push	 edi
  00017	a1 00 00 00 00	 mov	 eax, DWORD PTR ___security_cookie
  0001c	33 c5		 xor	 eax, ebp
  0001e	50		 push	 eax
  0001f	8d 45 f4	 lea	 eax, DWORD PTR __$EHRec$[ebp]
  00022	64 a3 00 00 00
	00		 mov	 DWORD PTR fs:0, eax
  00028	8b f1		 mov	 esi, ecx

; 979  : 	int nColumnCount = CDataConversion::GetStringDataCount(m_strTitles, ";");

  0002a	68 00 00 00 00	 push	 OFFSET ??_C@_01ICJEACDI@?$DL@
  0002f	8d 4d ec	 lea	 ecx, DWORD PTR $T6[ebp]
  00032	ff 15 00 00 00
	00		 call	 DWORD PTR __imp_??0?$CStringT@DV?$StrTraitMFC_DLL@DV?$ChTraitsCRT@D@ATL@@@@@ATL@@QAE@PBD@Z
  00038	8d 45 ec	 lea	 eax, DWORD PTR $T6[ebp]
  0003b	c7 45 fc 00 00
	00 00		 mov	 DWORD PTR __$EHRec$[ebp+8], 0
  00042	50		 push	 eax
  00043	8d 86 c4 03 00
	00		 lea	 eax, DWORD PTR [esi+964]
  00049	50		 push	 eax
  0004a	e8 00 00 00 00	 call	 ?GetStringDataCount@CDataConversion@@SAHABV?$CStringT@DV?$StrTraitMFC_DLL@DV?$ChTraitsCRT@D@ATL@@@@@ATL@@0@Z ; CDataConversion::GetStringDataCount
  0004f	83 c4 08	 add	 esp, 8
  00052	c7 45 fc ff ff
	ff ff		 mov	 DWORD PTR __$EHRec$[ebp+8], -1
  00059	8d 4d ec	 lea	 ecx, DWORD PTR $T6[ebp]
  0005c	8b d8		 mov	 ebx, eax
  0005e	ff 15 00 00 00
	00		 call	 DWORD PTR __imp_??1?$CStringT@DV?$StrTraitMFC_DLL@DV?$ChTraitsCRT@D@ATL@@@@@ATL@@QAE@XZ

; 980  : 	int nRowCount = 0;

  00064	33 ff		 xor	 edi, edi

; 981  : 
; 982  : 	if(!m_pPacketList)	return CPoint(0, nColumnCount);

  00066	39 be c0 03 00
	00		 cmp	 DWORD PTR [esi+960], edi
  0006c	75 1c		 jne	 SHORT $LN2@GetRowandC
; File C:\Program Files (x86)\Microsoft Visual Studio\2019\Community\VC\Tools\MSVC\14.29.30133\atlmfc\include\atltypes.h

; 408  : 	x = initX;

  0006e	8b 45 08	 mov	 eax, DWORD PTR ___$ReturnUdt$[ebp]
  00071	89 38		 mov	 DWORD PTR [eax], edi

; 409  : 	y = initY;

  00073	89 58 04	 mov	 DWORD PTR [eax+4], ebx
; File D:\git\src\IBK\IBK_DRFN\ProjSrc\SrcChartEx\ChartAddIn\ChartDataListViewerAddIn\ChartDataListViewerAddIn\DlgDataListViewer.cpp

; 1015 : }

  00076	8b 4d f4	 mov	 ecx, DWORD PTR __$EHRec$[ebp]
  00079	64 89 0d 00 00
	00 00		 mov	 DWORD PTR fs:0, ecx
  00080	59		 pop	 ecx
  00081	5f		 pop	 edi
  00082	5e		 pop	 esi
  00083	5b		 pop	 ebx
  00084	8b e5		 mov	 esp, ebp
  00086	5d		 pop	 ebp
  00087	c2 04 00	 ret	 4
$LN2@GetRowandC:

; 983  : 
; 984  : 	//20081106  >>
; 985  : 	//IPacket * pPacketheader = m_pPacketList->GetPacket(m_strHorzScale);
; 986  : 	CString strRQs = m_strRQs;

  0008a	8d 86 44 04 00
	00		 lea	 eax, DWORD PTR [esi+1092]
  00090	50		 push	 eax
  00091	8d 4d dc	 lea	 ecx, DWORD PTR _strRQs$[ebp]
  00094	ff 15 00 00 00
	00		 call	 DWORD PTR __imp_??0?$CStringT@DV?$StrTraitMFC_DLL@DV?$ChTraitsCRT@D@ATL@@@@@ATL@@QAE@ABV01@@Z

; 987  : 	CString strRQ  = CDataConversion::GetStringData(strRQs, ";");

  0009a	68 00 00 00 00	 push	 OFFSET ??_C@_01ICJEACDI@?$DL@
  0009f	8d 4d ec	 lea	 ecx, DWORD PTR $T5[ebp]
  000a2	c7 45 fc 01 00
	00 00		 mov	 DWORD PTR __$EHRec$[ebp+8], 1
  000a9	ff 15 00 00 00
	00		 call	 DWORD PTR __imp_??0?$CStringT@DV?$StrTraitMFC_DLL@DV?$ChTraitsCRT@D@ATL@@@@@ATL@@QAE@PBD@Z
  000af	6a 01		 push	 1
  000b1	8d 45 ec	 lea	 eax, DWORD PTR $T5[ebp]
  000b4	c6 45 fc 02	 mov	 BYTE PTR __$EHRec$[ebp+8], 2
  000b8	50		 push	 eax
  000b9	8d 45 dc	 lea	 eax, DWORD PTR _strRQs$[ebp]
  000bc	50		 push	 eax
  000bd	8d 45 f0	 lea	 eax, DWORD PTR _strRQ$[ebp]
  000c0	50		 push	 eax
  000c1	e8 00 00 00 00	 call	 ?GetStringData@CDataConversion@@SA?AV?$CStringT@DV?$StrTraitMFC_DLL@DV?$ChTraitsCRT@D@ATL@@@@@ATL@@AAV23@ABV23@_N@Z ; CDataConversion::GetStringData
  000c6	83 c4 10	 add	 esp, 16			; 00000010H
  000c9	8d 4d ec	 lea	 ecx, DWORD PTR $T5[ebp]
  000cc	c6 45 fc 04	 mov	 BYTE PTR __$EHRec$[ebp+8], 4
  000d0	ff 15 00 00 00
	00		 call	 DWORD PTR __imp_??1?$CStringT@DV?$StrTraitMFC_DLL@DV?$ChTraitsCRT@D@ATL@@@@@ATL@@QAE@XZ

; 988  : 	IPacket * pPacketheader = m_pPacketList->GetPacket(strRQ, m_strHorzScale);

  000d6	8b 8e c0 03 00
	00		 mov	 ecx, DWORD PTR [esi+960]
  000dc	ff b6 bc 03 00
	00		 push	 DWORD PTR [esi+956]
  000e2	ff 75 f0	 push	 DWORD PTR _strRQ$[ebp]
  000e5	8b 01		 mov	 eax, DWORD PTR [ecx]
  000e7	ff 50 10	 call	 DWORD PTR [eax+16]
  000ea	89 45 e0	 mov	 DWORD PTR _pPacketheader$1$[ebp], eax

; 989  : 	//20081106  <<
; 990  : 
; 991  : 	if( pPacketheader)

  000ed	85 c0		 test	 eax, eax
  000ef	74 1e		 je	 SHORT $LN3@GetRowandC

; 992  : 	{
; 993  : 		nColumnCount ++;
; 994  : 		nRowCount = pPacketheader->GetDataCount();

  000f1	8b 10		 mov	 edx, DWORD PTR [eax]
  000f3	8b c8		 mov	 ecx, eax
  000f5	43		 inc	 ebx
  000f6	ff 52 2c	 call	 DWORD PTR [edx+44]
  000f9	8b f8		 mov	 edi, eax

; 995  : 		pPacketheader->Release();

  000fb	8b 45 e0	 mov	 eax, DWORD PTR _pPacketheader$1$[ebp]
  000fe	50		 push	 eax
  000ff	8b 08		 mov	 ecx, DWORD PTR [eax]
  00101	ff 51 08	 call	 DWORD PTR [ecx+8]

; 996  : 
; 997  : 		nRowCount += m_nFutureDateCount;	// 1  2  .

  00104	03 be e0 03 00
	00		 add	 edi, DWORD PTR [esi+992]

; 998  : 	}

  0010a	e9 81 00 00 00	 jmp	 $LN4@GetRowandC
$LN3@GetRowandC:

; 999  : 	else	{
; 1000 : 		CString strT = m_strPacketNames;

  0010f	8d 86 c8 03 00
	00		 lea	 eax, DWORD PTR [esi+968]
  00115	50		 push	 eax
  00116	8d 4d e0	 lea	 ecx, DWORD PTR _strT$2[ebp]
  00119	ff 15 00 00 00
	00		 call	 DWORD PTR __imp_??0?$CStringT@DV?$StrTraitMFC_DLL@DV?$ChTraitsCRT@D@ATL@@@@@ATL@@QAE@ABV01@@Z

; 1001 : 		CString strPacketName = CDataConversion::GetStringData(strT, ",");

  0011f	68 00 00 00 00	 push	 OFFSET ??_C@_01IHBHIGKO@?0@
  00124	8d 4d e8	 lea	 ecx, DWORD PTR $T4[ebp]
  00127	c6 45 fc 05	 mov	 BYTE PTR __$EHRec$[ebp+8], 5
  0012b	ff 15 00 00 00
	00		 call	 DWORD PTR __imp_??0?$CStringT@DV?$StrTraitMFC_DLL@DV?$ChTraitsCRT@D@ATL@@@@@ATL@@QAE@PBD@Z
  00131	6a 01		 push	 1
  00133	8d 45 e8	 lea	 eax, DWORD PTR $T4[ebp]
  00136	c6 45 fc 06	 mov	 BYTE PTR __$EHRec$[ebp+8], 6
  0013a	50		 push	 eax
  0013b	8d 45 e0	 lea	 eax, DWORD PTR _strT$2[ebp]
  0013e	50		 push	 eax
  0013f	8d 45 e4	 lea	 eax, DWORD PTR _strPacketName$3[ebp]
  00142	50		 push	 eax
  00143	e8 00 00 00 00	 call	 ?GetStringData@CDataConversion@@SA?AV?$CStringT@DV?$StrTraitMFC_DLL@DV?$ChTraitsCRT@D@ATL@@@@@ATL@@AAV23@ABV23@_N@Z ; CDataConversion::GetStringData
  00148	83 c4 10	 add	 esp, 16			; 00000010H
  0014b	8d 4d e8	 lea	 ecx, DWORD PTR $T4[ebp]
  0014e	c6 45 fc 08	 mov	 BYTE PTR __$EHRec$[ebp+8], 8
  00152	ff 15 00 00 00
	00		 call	 DWORD PTR __imp_??1?$CStringT@DV?$StrTraitMFC_DLL@DV?$ChTraitsCRT@D@ATL@@@@@ATL@@QAE@XZ

; 1002 : 
; 1003 : 		//20081106  >>
; 1004 : 		IPacket * pPacket = m_pPacketList->GetPacket(strRQ, strPacketName);	

  00158	8b 8e c0 03 00
	00		 mov	 ecx, DWORD PTR [esi+960]
  0015e	ff 75 e4	 push	 DWORD PTR _strPacketName$3[ebp]
  00161	ff 75 f0	 push	 DWORD PTR _strRQ$[ebp]
  00164	8b 01		 mov	 eax, DWORD PTR [ecx]
  00166	ff 50 10	 call	 DWORD PTR [eax+16]
  00169	8b f0		 mov	 esi, eax

; 1005 : 		//IPacket * pPacket = m_pPacketList->GetPacket(strPacketName);	
; 1006 : 		//20081106  <<
; 1007 : 		if( pPacket)

  0016b	85 f6		 test	 esi, esi
  0016d	74 0f		 je	 SHORT $LN5@GetRowandC

; 1008 : 		{
; 1009 : 			nRowCount = pPacket->GetDataCount();

  0016f	8b 16		 mov	 edx, DWORD PTR [esi]
  00171	8b ce		 mov	 ecx, esi
  00173	ff 52 2c	 call	 DWORD PTR [edx+44]

; 1010 : 			pPacket->Release();

  00176	8b 0e		 mov	 ecx, DWORD PTR [esi]
  00178	8b f8		 mov	 edi, eax
  0017a	56		 push	 esi
  0017b	ff 51 08	 call	 DWORD PTR [ecx+8]
$LN5@GetRowandC:

; 1011 : 		}
; 1012 : 	}

  0017e	8d 4d e4	 lea	 ecx, DWORD PTR _strPacketName$3[ebp]
  00181	ff 15 00 00 00
	00		 call	 DWORD PTR __imp_??1?$CStringT@DV?$StrTraitMFC_DLL@DV?$ChTraitsCRT@D@ATL@@@@@ATL@@QAE@XZ
  00187	8d 4d e0	 lea	 ecx, DWORD PTR _strT$2[ebp]
  0018a	ff 15 00 00 00
	00		 call	 DWORD PTR __imp_??1?$CStringT@DV?$StrTraitMFC_DLL@DV?$ChTraitsCRT@D@ATL@@@@@ATL@@QAE@XZ
$LN4@GetRowandC:
; File C:\Program Files (x86)\Microsoft Visual Studio\2019\Community\VC\Tools\MSVC\14.29.30133\atlmfc\include\atltypes.h

; 408  : 	x = initX;

  00190	8b 75 08	 mov	 esi, DWORD PTR ___$ReturnUdt$[ebp]
; File D:\git\src\IBK\IBK_DRFN\ProjSrc\SrcChartEx\ChartAddIn\ChartDataListViewerAddIn\ChartDataListViewerAddIn\DlgDataListViewer.cpp

; 1014 : 	return CPoint(nRowCount, nColumnCount);

  00193	8d 4d f0	 lea	 ecx, DWORD PTR _strRQ$[ebp]
; File C:\Program Files (x86)\Microsoft Visual Studio\2019\Community\VC\Tools\MSVC\14.29.30133\atlmfc\include\atltypes.h

; 408  : 	x = initX;

  00196	89 3e		 mov	 DWORD PTR [esi], edi

; 409  : 	y = initY;

  00198	89 5e 04	 mov	 DWORD PTR [esi+4], ebx
; File D:\git\src\IBK\IBK_DRFN\ProjSrc\SrcChartEx\ChartAddIn\ChartDataListViewerAddIn\ChartDataListViewerAddIn\DlgDataListViewer.cpp

; 1014 : 	return CPoint(nRowCount, nColumnCount);

  0019b	ff 15 00 00 00
	00		 call	 DWORD PTR __imp_??1?$CStringT@DV?$StrTraitMFC_DLL@DV?$ChTraitsCRT@D@ATL@@@@@ATL@@QAE@XZ
  001a1	8d 4d dc	 lea	 ecx, DWORD PTR _strRQs$[ebp]
  001a4	ff 15 00 00 00
	00		 call	 DWORD PTR __imp_??1?$CStringT@DV?$StrTraitMFC_DLL@DV?$ChTraitsCRT@D@ATL@@@@@ATL@@QAE@XZ
  001aa	8b c6		 mov	 eax, esi

; 1015 : }

  001ac	8b 4d f4	 mov	 ecx, DWORD PTR __$EHRec$[ebp]
  001af	64 89 0d 00 00
	00 00		 mov	 DWORD PTR fs:0, ecx
  001b6	59		 pop	 ecx
  001b7	5f		 pop	 edi
  001b8	5e		 pop	 esi
  001b9	5b		 pop	 ebx
  001ba	8b e5		 mov	 esp, ebp
  001bc	5d		 pop	 ebp
  001bd	c2 04 00	 ret	 4
_TEXT	ENDS
;	COMDAT text$x
text$x	SEGMENT
__unwindfunclet$?GetRowandColumnCount@CDlgDataListViewer@@QAE?AVCPoint@@XZ$0:
  00000	8d 4d ec	 lea	 ecx, DWORD PTR $T6[ebp]
  00003	ff 25 00 00 00
	00		 jmp	 DWORD PTR __imp_??1?$CStringT@DV?$StrTraitMFC_DLL@DV?$ChTraitsCRT@D@ATL@@@@@ATL@@QAE@XZ
__unwindfunclet$?GetRowandColumnCount@CDlgDataListViewer@@QAE?AVCPoint@@XZ$1:
  00009	8d 4d dc	 lea	 ecx, DWORD PTR _strRQs$[ebp]
  0000c	ff 25 00 00 00
	00		 jmp	 DWORD PTR __imp_??1?$CStringT@DV?$StrTraitMFC_DLL@DV?$ChTraitsCRT@D@ATL@@@@@ATL@@QAE@XZ
__unwindfunclet$?GetRowandColumnCount@CDlgDataListViewer@@QAE?AVCPoint@@XZ$2:
  00012	8d 4d ec	 lea	 ecx, DWORD PTR $T5[ebp]
  00015	ff 25 00 00 00
	00		 jmp	 DWORD PTR __imp_??1?$CStringT@DV?$StrTraitMFC_DLL@DV?$ChTraitsCRT@D@ATL@@@@@ATL@@QAE@XZ
__unwindfunclet$?GetRowandColumnCount@CDlgDataListViewer@@QAE?AVCPoint@@XZ$3:
  0001b	8d 4d f0	 lea	 ecx, DWORD PTR _strRQ$[ebp]
  0001e	ff 25 00 00 00
	00		 jmp	 DWORD PTR __imp_??1?$CStringT@DV?$StrTraitMFC_DLL@DV?$ChTraitsCRT@D@ATL@@@@@ATL@@QAE@XZ
__unwindfunclet$?GetRowandColumnCount@CDlgDataListViewer@@QAE?AVCPoint@@XZ$4:
  00024	8d 4d e0	 lea	 ecx, DWORD PTR _strT$2[ebp]
  00027	ff 25 00 00 00
	00		 jmp	 DWORD PTR __imp_??1?$CStringT@DV?$StrTraitMFC_DLL@DV?$ChTraitsCRT@D@ATL@@@@@ATL@@QAE@XZ
__unwindfunclet$?GetRowandColumnCount@CDlgDataListViewer@@QAE?AVCPoint@@XZ$5:
  0002d	8d 4d e8	 lea	 ecx, DWORD PTR $T4[ebp]
  00030	ff 25 00 00 00
	00		 jmp	 DWORD PTR __imp_??1?$CStringT@DV?$StrTraitMFC_DLL@DV?$ChTraitsCRT@D@ATL@@@@@ATL@@QAE@XZ
__unwindfunclet$?GetRowandColumnCount@CDlgDataListViewer@@QAE?AVCPoint@@XZ$6:
  00036	8d 4d e4	 lea	 ecx, DWORD PTR _strPacketName$3[ebp]
  00039	ff 25 00 00 00
	00		 jmp	 DWORD PTR __imp_??1?$CStringT@DV?$StrTraitMFC_DLL@DV?$ChTraitsCRT@D@ATL@@@@@ATL@@QAE@XZ
  0003f	cc		 int	 3
  00040	cc		 int	 3
  00041	cc		 int	 3
  00042	cc		 int	 3
  00043	cc		 int	 3
__ehhandler$?GetRowandColumnCount@CDlgDataListViewer@@QAE?AVCPoint@@XZ:
  00044	90		 npad	 1
  00045	90		 npad	 1
  00046	8b 54 24 08	 mov	 edx, DWORD PTR [esp+8]
  0004a	8d 42 0c	 lea	 eax, DWORD PTR [edx+12]
  0004d	8b 4a d8	 mov	 ecx, DWORD PTR [edx-40]
  00050	33 c8		 xor	 ecx, eax
  00052	e8 00 00 00 00	 call	 @__security_check_cookie@4
  00057	b8 00 00 00 00	 mov	 eax, OFFSET __ehfuncinfo$?GetRowandColumnCount@CDlgDataListViewer@@QAE?AVCPoint@@XZ
  0005c	e9 00 00 00 00	 jmp	 ___CxxFrameHandler3
text$x	ENDS
?GetRowandColumnCount@CDlgDataListViewer@@QAE?AVCPoint@@XZ ENDP ; CDlgDataListViewer::GetRowandColumnCount
; Function compile flags: /Ogtp
; File D:\git\src\IBK\IBK_DRFN\ProjSrc\SrcChartEx\ChartAddIn\ChartDataListViewerAddIn\ChartDataListViewerAddIn\DlgDataListViewer.cpp
; File C:\Program Files (x86)\Microsoft Visual Studio\2019\Community\VC\Tools\MSVC\14.29.30133\atlmfc\include\afxtempl.h
; File D:\git\src\IBK\IBK_DRFN\ProjSrc\SrcChartEx\ChartAddIn\ChartDataListViewerAddIn\ChartDataListViewerAddIn\DlgDataListViewer.cpp
;	COMDAT ?IsAllZeroData@CDlgDataListViewer@@QAE_NPAV?$CList@NN@@@Z
_TEXT	SEGMENT
_datalist$ = 8						; size = 4
?IsAllZeroData@CDlgDataListViewer@@QAE_NPAV?$CList@NN@@@Z PROC ; CDlgDataListViewer::IsAllZeroData, COMDAT
; _this$ = ecx

; 1279 : {

  00000	55		 push	 ebp
  00001	8b ec		 mov	 ebp, esp

; 1280 : 	POSITION pos = datalist->GetHeadPosition();

  00003	8b 45 08	 mov	 eax, DWORD PTR _datalist$[ebp]
  00006	8b 48 04	 mov	 ecx, DWORD PTR [eax+4]

; 1281 : 	while(pos) {

  00009	85 c9		 test	 ecx, ecx
  0000b	74 1a		 je	 SHORT $LN3@IsAllZeroD
  0000d	0f 57 c9	 xorps	 xmm1, xmm1
$LL2@IsAllZeroD:
; File C:\Program Files (x86)\Microsoft Visual Studio\2019\Community\VC\Tools\MSVC\14.29.30133\atlmfc\include\afxtempl.h

; 811  : 	{ CNode* pNode = (CNode*) rPosition;

  00010	8b c1		 mov	 eax, ecx

; 812  : 		ASSERT(AfxIsValidAddress(pNode, sizeof(CNode)));
; 813  : 		rPosition = (POSITION) pNode->pNext;

  00012	8b 09		 mov	 ecx, DWORD PTR [ecx]
; File D:\git\src\IBK\IBK_DRFN\ProjSrc\SrcChartEx\ChartAddIn\ChartDataListViewerAddIn\ChartDataListViewerAddIn\DlgDataListViewer.cpp

; 1283 : 		if(data) 

  00014	f2 0f 10 40 08	 movsd	 xmm0, QWORD PTR [eax+8]
  00019	66 0f 2e c1	 ucomisd xmm0, xmm1
  0001d	9f		 lahf
  0001e	f6 c4 44	 test	 ah, 68			; 00000044H
  00021	7a 0a		 jp	 SHORT $LN9@IsAllZeroD

; 1281 : 	while(pos) {

  00023	85 c9		 test	 ecx, ecx
  00025	75 e9		 jne	 SHORT $LL2@IsAllZeroD
$LN3@IsAllZeroD:

; 1285 : 	}
; 1286 : 	return true;

  00027	b0 01		 mov	 al, 1

; 1287 : }

  00029	5d		 pop	 ebp
  0002a	c2 04 00	 ret	 4
$LN9@IsAllZeroD:

; 1284 : 			return false;

  0002d	32 c0		 xor	 al, al

; 1287 : }

  0002f	5d		 pop	 ebp
  00030	c2 04 00	 ret	 4
?IsAllZeroData@CDlgDataListViewer@@QAE_NPAV?$CList@NN@@@Z ENDP ; CDlgDataListViewer::IsAllZeroData
_TEXT	ENDS
; Function compile flags: /Ogtp
; File D:\git\src\IBK\IBK_DRFN\ProjSrc\SrcChartEx\ChartAddIn\ChartDataListViewerAddIn\ChartDataListViewerAddIn\DlgDataListViewer.cpp
;	COMDAT ?GetMessageMap@CDlgDataListViewer@@MBEPBUAFX_MSGMAP@@XZ
_TEXT	SEGMENT
?GetMessageMap@CDlgDataListViewer@@MBEPBUAFX_MSGMAP@@XZ PROC ; CDlgDataListViewer::GetMessageMap, COMDAT
; _this$ = ecx

; 96   : BEGIN_MESSAGE_MAP(CDlgDataListViewer, CDialog)

  00000	b8 00 00 00 00	 mov	 eax, OFFSET ?messageMap@?1??GetThisMessageMap@CDlgDataListViewer@@KGPBUAFX_MSGMAP@@XZ@4U3@B
  00005	c3		 ret	 0
?GetMessageMap@CDlgDataListViewer@@MBEPBUAFX_MSGMAP@@XZ ENDP ; CDlgDataListViewer::GetMessageMap
_TEXT	ENDS
; Function compile flags: /Ogtp
; File D:\git\src\IBK\IBK_DRFN\ProjSrc\SrcChartEx\ChartAddIn\ChartDataListViewerAddIn\ChartDataListViewerAddIn\DlgDataListViewer.cpp
;	COMDAT ?GetThisMessageMap@CDlgDataListViewer@@KGPBUAFX_MSGMAP@@XZ
_TEXT	SEGMENT
?GetThisMessageMap@CDlgDataListViewer@@KGPBUAFX_MSGMAP@@XZ PROC ; CDlgDataListViewer::GetThisMessageMap, COMDAT

; 97   : 	//{{AFX_MSG_MAP(CDlgDataListViewer)
; 98   : 	ON_BN_CLICKED(IDC_EXCEL_FILE_EXPORT, OnExcelFileExport)
; 99   : 	ON_WM_CLOSE()
; 100  : 	ON_WM_CTLCOLOR()
; 101  : 	ON_BN_CLICKED(IDC_UPDATE, OnUpdate)
; 102  : 	ON_BN_CLICKED(IDC_CLIPBOARD, OnClipboard)
; 103  : 	ON_NOTIFY(LVN_GETDISPINFO, IDC_LIST1, OnGetdispinfo)
; 104  : 	ON_BN_CLICKED(IDC_REVERSE, OnReverse)
; 105  : 	//}}AFX_MSG_MAP
; 106  : 	ON_NOTIFY(NM_CUSTOMDRAW, IDC_LIST1, OnCustomdrawList)
; 107  : END_MESSAGE_MAP()

  00000	b8 00 00 00 00	 mov	 eax, OFFSET ?messageMap@?1??GetThisMessageMap@CDlgDataListViewer@@KGPBUAFX_MSGMAP@@XZ@4U3@B
  00005	c3		 ret	 0
?GetThisMessageMap@CDlgDataListViewer@@KGPBUAFX_MSGMAP@@XZ ENDP ; CDlgDataListViewer::GetThisMessageMap
_TEXT	ENDS
; Function compile flags: /Ogtp
; File D:\git\src\IBK\IBK_DRFN\ProjSrc\SrcChartEx\ChartAddIn\ChartDataListViewerAddIn\ChartDataListViewerAddIn\DlgDataListViewer.cpp
;	COMDAT ?OnCustomdrawList@CDlgDataListViewer@@IAEXPAUtagNMHDR@@PAJ@Z
_TEXT	SEGMENT
_pNMHDR$ = 8						; size = 4
_pResult$ = 12						; size = 4
?OnCustomdrawList@CDlgDataListViewer@@IAEXPAUtagNMHDR@@PAJ@Z PROC ; CDlgDataListViewer::OnCustomdrawList, COMDAT
; _this$ = ecx

; 1025 : {

  00000	55		 push	 ebp
  00001	8b ec		 mov	 ebp, esp

; 1026 : 	NMLVCUSTOMDRAW* pLVCD = reinterpret_cast<NMLVCUSTOMDRAW*>( pNMHDR );
; 1027 : 
; 1028 :     // Take the default processing unless we set this to something else below.
; 1029 :     *pResult = 0;

  00003	8b 4d 0c	 mov	 ecx, DWORD PTR _pResult$[ebp]

; 1030 : 
; 1031 :     // First thing - check the draw stage. If it's the control's prepaint
; 1032 :     // stage, then tell Windows we want messages for every item.
; 1033 : 
; 1034 :     if ( CDDS_PREPAINT == pLVCD->nmcd.dwDrawStage )

  00006	8b 55 08	 mov	 edx, DWORD PTR _pNMHDR$[ebp]
  00009	c7 01 00 00 00
	00		 mov	 DWORD PTR [ecx], 0
  0000f	8b 42 0c	 mov	 eax, DWORD PTR [edx+12]
  00012	83 f8 01	 cmp	 eax, 1
  00015	74 2e		 je	 SHORT $LN10@OnCustomdr

; 1035 :     {
; 1036 : 		*pResult = CDRF_NOTIFYITEMDRAW;
; 1037 :     }
; 1038 :     else if ( CDDS_ITEMPREPAINT == pLVCD->nmcd.dwDrawStage )

  00017	3d 01 00 01 00	 cmp	 eax, 65537		; 00010001H
  0001c	74 27		 je	 SHORT $LN10@OnCustomdr

; 1041 :     }
; 1042 :     else if ( (CDDS_ITEMPREPAINT | CDDS_SUBITEM) == pLVCD->nmcd.dwDrawStage )

  0001e	3d 01 00 03 00	 cmp	 eax, 196609		; 00030001H
  00023	75 26		 jne	 SHORT $LN6@OnCustomdr

; 1043 :     {
; 1044 : 		COLORREF crBkgnd;
; 1045 : 		if((pLVCD->nmcd.dwItemSpec % 2) == 0)

  00025	f6 42 24 01	 test	 BYTE PTR [edx+36], 1

; 1046 : 			crBkgnd = RGB(255,255,255);
; 1047 : 		else
; 1048 : 			crBkgnd = RGB(237,241,245);
; 1049 : 
; 1050 : 		pLVCD->clrTextBk = crBkgnd;

  00029	b8 ff ff ff 00	 mov	 eax, 16777215		; 00ffffffH
  0002e	56		 push	 esi
  0002f	be ed f1 f5 00	 mov	 esi, 16118253		; 00f5f1edH
  00034	0f 45 c6	 cmovne	 eax, esi
  00037	89 42 34	 mov	 DWORD PTR [edx+52], eax

; 1051 : 
; 1052 : 		// Tell Windows to paint the control itself.
; 1053 : 		*pResult = CDRF_DODEFAULT;

  0003a	c7 01 00 00 00
	00		 mov	 DWORD PTR [ecx], 0
  00040	5e		 pop	 esi

; 1054 : 	}
; 1055 : }

  00041	5d		 pop	 ebp
  00042	c2 08 00	 ret	 8
$LN10@OnCustomdr:

; 1039 :     {
; 1040 : 		*pResult = CDRF_NOTIFYSUBITEMDRAW;

  00045	c7 01 20 00 00
	00		 mov	 DWORD PTR [ecx], 32	; 00000020H
$LN6@OnCustomdr:

; 1054 : 	}
; 1055 : }

  0004b	5d		 pop	 ebp
  0004c	c2 08 00	 ret	 8
?OnCustomdrawList@CDlgDataListViewer@@IAEXPAUtagNMHDR@@PAJ@Z ENDP ; CDlgDataListViewer::OnCustomdrawList
_TEXT	ENDS
; Function compile flags: /Ogtp
; File D:\git\src\IBK\IBK_DRFN\ProjSrc\SrcChartEx\ChartAddIn\ChartDataListViewerAddIn\ChartDataListViewerAddIn\DlgDataListViewer.cpp
; File C:\Program Files (x86)\Microsoft Visual Studio\2019\Community\VC\Tools\MSVC\14.29.30133\atlmfc\include\afxwin2.inl
; File D:\git\src\IBK\IBK_DRFN\ProjSrc\SrcChartEx\ChartAddIn\ChartDataListViewerAddIn\ChartDataListViewerAddIn\DlgDataListViewer.cpp
;	COMDAT ?OnReverse@CDlgDataListViewer@@IAEXXZ
_TEXT	SEGMENT
_strPrev$2 = -16					; size = 4
_strRecent$3 = -16					; size = 4
__$EHRec$ = -12						; size = 12
?OnReverse@CDlgDataListViewer@@IAEXXZ PROC		; CDlgDataListViewer::OnReverse, COMDAT
; _this$ = ecx

; 1568 : {

  00000	55		 push	 ebp
  00001	8b ec		 mov	 ebp, esp
  00003	6a ff		 push	 -1
  00005	68 00 00 00 00	 push	 __ehhandler$?OnReverse@CDlgDataListViewer@@IAEXXZ
  0000a	64 a1 00 00 00
	00		 mov	 eax, DWORD PTR fs:0
  00010	50		 push	 eax
  00011	51		 push	 ecx
  00012	56		 push	 esi
  00013	57		 push	 edi
  00014	a1 00 00 00 00	 mov	 eax, DWORD PTR ___security_cookie
  00019	33 c5		 xor	 eax, ebp
  0001b	50		 push	 eax
  0001c	8d 45 f4	 lea	 eax, DWORD PTR __$EHRec$[ebp]
  0001f	64 a3 00 00 00
	00		 mov	 DWORD PTR fs:0, eax
  00025	8b f1		 mov	 esi, ecx

; 1569 : 	m_bReverse = !m_bReverse;

  00027	8b 96 40 04 00
	00		 mov	 edx, DWORD PTR [esi+1088]

; 1570 : 	if(m_bReverse)

  0002d	8d 4d f0	 lea	 ecx, DWORD PTR _strRecent$3[ebp]
  00030	33 c0		 xor	 eax, eax
  00032	85 d2		 test	 edx, edx
  00034	0f 94 c0	 sete	 al
  00037	89 86 40 04 00
	00		 mov	 DWORD PTR [esi+1088], eax
  0003d	85 d2		 test	 edx, edx
  0003f	75 11		 jne	 SHORT $LN2@OnReverse

; 1571 : 	{
; 1572 : 		CString strRecent;

  00041	ff 15 00 00 00
	00		 call	 DWORD PTR __imp_??0?$CStringT@DV?$StrTraitMFC_DLL@DV?$ChTraitsCRT@D@ATL@@@@@ATL@@QAE@XZ
  00047	c7 45 fc 00 00
	00 00		 mov	 DWORD PTR __$EHRec$[ebp+8], 0

; 1573 : 		strRecent.LoadString(IDS_RECENTLY);

  0004e	6a 01		 push	 1

; 1574 : 		// m_btnReverse.SetWindowText("  ");
; 1575 : 		m_btnReverse.SetWindowText(strRecent);
; 1576 : 	}

  00050	eb 0f		 jmp	 SHORT $LN14@OnReverse
$LN2@OnReverse:

; 1577 : 	else
; 1578 : 	{
; 1579 : 		CString strPrev;

  00052	ff 15 00 00 00
	00		 call	 DWORD PTR __imp_??0?$CStringT@DV?$StrTraitMFC_DLL@DV?$ChTraitsCRT@D@ATL@@@@@ATL@@QAE@XZ
  00058	c7 45 fc 01 00
	00 00		 mov	 DWORD PTR __$EHRec$[ebp+8], 1

; 1580 : 		strPrev.LoadString(IDS_PREVIOUSLY);

  0005f	6a 02		 push	 2
$LN14@OnReverse:
; File C:\Program Files (x86)\Microsoft Visual Studio\2019\Community\VC\Tools\MSVC\14.29.30133\atlmfc\include\afxwin2.inl

; 114  : 	{ ASSERT(::IsWindow(m_hWnd)); ::InvalidateRect(m_hWnd, NULL, bErase); }

  00061	8d 4d f0	 lea	 ecx, DWORD PTR _strPrev$2[ebp]
  00064	ff 15 00 00 00
	00		 call	 DWORD PTR __imp_?LoadStringA@?$CStringT@DV?$StrTraitMFC_DLL@DV?$ChTraitsCRT@D@ATL@@@@@ATL@@QAEHI@Z
  0006a	ff 75 f0	 push	 DWORD PTR _strPrev$2[ebp]
  0006d	8d 8e b8 00 00
	00		 lea	 ecx, DWORD PTR [esi+184]
  00073	e8 00 00 00 00	 call	 ?SetWindowTextA@CWnd@@QAEXPBD@Z ; CWnd::SetWindowTextA
  00078	8d 4d f0	 lea	 ecx, DWORD PTR _strPrev$2[ebp]
  0007b	ff 15 00 00 00
	00		 call	 DWORD PTR __imp_??1?$CStringT@DV?$StrTraitMFC_DLL@DV?$ChTraitsCRT@D@ATL@@@@@ATL@@QAE@XZ
  00081	6a 01		 push	 1
  00083	6a 00		 push	 0
  00085	ff b6 d8 02 00
	00		 push	 DWORD PTR [esi+728]
  0008b	ff 15 00 00 00
	00		 call	 DWORD PTR __imp__InvalidateRect@12
; File D:\git\src\IBK\IBK_DRFN\ProjSrc\SrcChartEx\ChartAddIn\ChartDataListViewerAddIn\ChartDataListViewerAddIn\DlgDataListViewer.cpp

; 1585 : }

  00091	8b 4d f4	 mov	 ecx, DWORD PTR __$EHRec$[ebp]
  00094	64 89 0d 00 00
	00 00		 mov	 DWORD PTR fs:0, ecx
  0009b	59		 pop	 ecx
  0009c	5f		 pop	 edi
  0009d	5e		 pop	 esi
  0009e	8b e5		 mov	 esp, ebp
  000a0	5d		 pop	 ebp
  000a1	c3		 ret	 0
_TEXT	ENDS
;	COMDAT text$x
text$x	SEGMENT
__unwindfunclet$?OnReverse@CDlgDataListViewer@@IAEXXZ$0:
  00000	8d 4d f0	 lea	 ecx, DWORD PTR _strRecent$3[ebp]
  00003	ff 25 00 00 00
	00		 jmp	 DWORD PTR __imp_??1?$CStringT@DV?$StrTraitMFC_DLL@DV?$ChTraitsCRT@D@ATL@@@@@ATL@@QAE@XZ
__unwindfunclet$?OnReverse@CDlgDataListViewer@@IAEXXZ$1:
  00009	8d 4d f0	 lea	 ecx, DWORD PTR _strPrev$2[ebp]
  0000c	ff 25 00 00 00
	00		 jmp	 DWORD PTR __imp_??1?$CStringT@DV?$StrTraitMFC_DLL@DV?$ChTraitsCRT@D@ATL@@@@@ATL@@QAE@XZ
  00012	cc		 int	 3
  00013	cc		 int	 3
  00014	cc		 int	 3
  00015	cc		 int	 3
  00016	cc		 int	 3
__ehhandler$?OnReverse@CDlgDataListViewer@@IAEXXZ:
  00017	90		 npad	 1
  00018	90		 npad	 1
  00019	8b 54 24 08	 mov	 edx, DWORD PTR [esp+8]
  0001d	8d 42 0c	 lea	 eax, DWORD PTR [edx+12]
  00020	8b 4a f0	 mov	 ecx, DWORD PTR [edx-16]
  00023	33 c8		 xor	 ecx, eax
  00025	e8 00 00 00 00	 call	 @__security_check_cookie@4
  0002a	b8 00 00 00 00	 mov	 eax, OFFSET __ehfuncinfo$?OnReverse@CDlgDataListViewer@@IAEXXZ
  0002f	e9 00 00 00 00	 jmp	 ___CxxFrameHandler3
text$x	ENDS
?OnReverse@CDlgDataListViewer@@IAEXXZ ENDP		; CDlgDataListViewer::OnReverse
; Function compile flags: /Ogtp
; File D:\git\src\IBK\IBK_DRFN\ProjSrc\SrcChartEx\ChartAddIn\ChartDataListViewerAddIn\ChartDataListViewerAddIn\DlgDataListViewer.cpp
; File C:\Program Files (x86)\Microsoft Visual Studio\2019\Community\VC\Tools\MSVC\14.29.30133\atlmfc\include\cstringt.h
; File D:\git\src\IBK\IBK_DRFN\ProjSrc\SrcChartEx\ChartAddIn\ChartDataListViewerAddIn\ChartDataListViewerAddIn\DlgDataListViewer.cpp
; File D:\git\src\IBK\IBK_DRFN\ProjSrc\SrcChartEx\ChartAddIn\ChartDataListViewerAddIn\Include_AddIn_134221\I134221\_IString.h
; File D:\git\src\IBK\IBK_DRFN\ProjSrc\SrcChartEx\ChartAddIn\ChartDataListViewerAddIn\ChartDataListViewerAddIn\DlgDataListViewer.cpp
; File D:\git\src\IBK\IBK_DRFN\ProjSrc\SrcChartEx\ChartAddIn\ChartDataListViewerAddIn\Include_AddIn_134221\I134221\_IString.h
; File D:\git\src\IBK\IBK_DRFN\ProjSrc\SrcChartEx\ChartAddIn\ChartDataListViewerAddIn\ChartDataListViewerAddIn\DlgDataListViewer.cpp
; File C:\Program Files (x86)\Microsoft Visual Studio\2019\Community\VC\Tools\MSVC\14.29.30133\atlmfc\include\cstringt.h
; File D:\git\src\IBK\IBK_DRFN\ProjSrc\SrcChartEx\ChartAddIn\ChartDataListViewerAddIn\ChartDataListViewerAddIn\DlgDataListViewer.cpp
; File C:\Program Files (x86)\Microsoft Visual Studio\2019\Community\VC\Tools\MSVC\14.29.30133\atlmfc\include\cstringt.h
; File D:\git\src\IBK\IBK_DRFN\ProjSrc\SrcChartEx\ChartAddIn\ChartDataListViewerAddIn\ChartDataListViewerAddIn\DlgDataListViewer.cpp
; File D:\git\src\IBK\IBK_DRFN\ProjSrc\SrcChartEx\ChartAddIn\ChartDataListViewerAddIn\Include_Chart\Conversion.h
; File D:\git\src\IBK\IBK_DRFN\ProjSrc\SrcChartEx\ChartAddIn\ChartDataListViewerAddIn\ChartDataListViewerAddIn\DlgDataListViewer.cpp
; File D:\git\src\IBK\IBK_DRFN\ProjSrc\SrcChartEx\ChartAddIn\ChartDataListViewerAddIn\Include_Chart\Conversion.h
; File D:\git\src\IBK\IBK_DRFN\ProjSrc\SrcChartEx\ChartAddIn\ChartDataListViewerAddIn\ChartDataListViewerAddIn\DlgDataListViewer.cpp
; File D:\git\src\IBK\IBK_DRFN\ProjSrc\SrcChartEx\ChartAddIn\ChartDataListViewerAddIn\Include_Chart\Conversion.h
; File D:\git\src\IBK\IBK_DRFN\ProjSrc\SrcChartEx\ChartAddIn\ChartDataListViewerAddIn\ChartDataListViewerAddIn\DlgDataListViewer.cpp
; File D:\git\src\IBK\IBK_DRFN\ProjSrc\SrcChartEx\ChartAddIn\ChartDataListViewerAddIn\Include_Chart\Conversion.h
; File D:\git\src\IBK\IBK_DRFN\ProjSrc\SrcChartEx\ChartAddIn\ChartDataListViewerAddIn\ChartDataListViewerAddIn\DlgDataListViewer.cpp
; File D:\git\src\IBK\IBK_DRFN\ProjSrc\SrcChartEx\ChartAddIn\ChartDataListViewerAddIn\Include_Chart\Conversion.h
; File D:\git\src\IBK\IBK_DRFN\ProjSrc\SrcChartEx\ChartAddIn\ChartDataListViewerAddIn\ChartDataListViewerAddIn\DlgDataListViewer.cpp
; File D:\git\src\IBK\IBK_DRFN\ProjSrc\SrcChartEx\ChartAddIn\ChartDataListViewerAddIn\Include_Chart\Conversion.h
; File D:\git\src\IBK\IBK_DRFN\ProjSrc\SrcChartEx\ChartAddIn\ChartDataListViewerAddIn\ChartDataListViewerAddIn\DlgDataListViewer.cpp
; File D:\git\src\IBK\IBK_DRFN\ProjSrc\SrcChartEx\ChartAddIn\ChartDataListViewerAddIn\Include_Chart\Conversion.h
; File D:\git\src\IBK\IBK_DRFN\ProjSrc\SrcChartEx\ChartAddIn\ChartDataListViewerAddIn\ChartDataListViewerAddIn\DlgDataListViewer.cpp
; File D:\git\src\IBK\IBK_DRFN\ProjSrc\SrcChartEx\ChartAddIn\ChartDataListViewerAddIn\Include_Chart\Conversion.h
; File D:\git\src\IBK\IBK_DRFN\ProjSrc\SrcChartEx\ChartAddIn\ChartDataListViewerAddIn\ChartDataListViewerAddIn\DlgDataListViewer.cpp
; File D:\git\src\IBK\IBK_DRFN\ProjSrc\SrcChartEx\ChartAddIn\ChartDataListViewerAddIn\Include_Chart\Conversion.h
; File D:\git\src\IBK\IBK_DRFN\ProjSrc\SrcChartEx\ChartAddIn\ChartDataListViewerAddIn\ChartDataListViewerAddIn\DlgDataListViewer.cpp
; File D:\git\src\IBK\IBK_DRFN\ProjSrc\SrcChartEx\ChartAddIn\ChartDataListViewerAddIn\Include_Chart\Conversion.h
; File D:\git\src\IBK\IBK_DRFN\ProjSrc\SrcChartEx\ChartAddIn\ChartDataListViewerAddIn\ChartDataListViewerAddIn\DlgDataListViewer.cpp
; File D:\git\src\IBK\IBK_DRFN\ProjSrc\SrcChartEx\ChartAddIn\ChartDataListViewerAddIn\Include_Chart\Conversion.h
; File D:\git\src\IBK\IBK_DRFN\ProjSrc\SrcChartEx\ChartAddIn\ChartDataListViewerAddIn\ChartDataListViewerAddIn\DlgDataListViewer.cpp
; File D:\git\src\IBK\IBK_DRFN\ProjSrc\SrcChartEx\ChartAddIn\ChartDataListViewerAddIn\Include_Chart\Conversion.h
; File D:\git\src\IBK\IBK_DRFN\ProjSrc\SrcChartEx\ChartAddIn\ChartDataListViewerAddIn\ChartDataListViewerAddIn\DlgDataListViewer.cpp
; File C:\Program Files (x86)\Microsoft Visual Studio\2019\Community\VC\Tools\MSVC\14.29.30133\atlmfc\include\cstringt.h
; File D:\git\src\IBK\IBK_DRFN\ProjSrc\SrcChartEx\ChartAddIn\ChartDataListViewerAddIn\ChartDataListViewerAddIn\DlgDataListViewer.cpp
; File D:\git\src\IBK\IBK_DRFN\ProjSrc\SrcChartEx\ChartAddIn\ChartDataListViewerAddIn\Include_AddIn_134221\I134221\_IString.h
; File D:\git\src\IBK\IBK_DRFN\ProjSrc\SrcChartEx\ChartAddIn\ChartDataListViewerAddIn\ChartDataListViewerAddIn\DlgDataListViewer.cpp
; File D:\git\src\IBK\IBK_DRFN\ProjSrc\SrcChartEx\ChartAddIn\ChartDataListViewerAddIn\Include_AddIn_134221\I134221\_IString.h
; File D:\git\src\IBK\IBK_DRFN\ProjSrc\SrcChartEx\ChartAddIn\ChartDataListViewerAddIn\ChartDataListViewerAddIn\DlgDataListViewer.cpp
; File C:\Program Files (x86)\Microsoft Visual Studio\2019\Community\VC\Tools\MSVC\14.29.30133\atlmfc\include\cstringt.h
; File D:\git\src\IBK\IBK_DRFN\ProjSrc\SrcChartEx\ChartAddIn\ChartDataListViewerAddIn\ChartDataListViewerAddIn\DlgDataListViewer.cpp
; File D:\git\src\IBK\IBK_DRFN\ProjSrc\SrcChartEx\ChartAddIn\ChartDataListViewerAddIn\Include_Chart\Conversion.h
; File D:\git\src\IBK\IBK_DRFN\ProjSrc\SrcChartEx\ChartAddIn\ChartDataListViewerAddIn\ChartDataListViewerAddIn\DlgDataListViewer.cpp
; File D:\git\src\IBK\IBK_DRFN\ProjSrc\SrcChartEx\ChartAddIn\ChartDataListViewerAddIn\Include_Chart\Conversion.h
; File D:\git\src\IBK\IBK_DRFN\ProjSrc\SrcChartEx\ChartAddIn\ChartDataListViewerAddIn\ChartDataListViewerAddIn\DlgDataListViewer.cpp
; File D:\git\src\IBK\IBK_DRFN\ProjSrc\SrcChartEx\ChartAddIn\ChartDataListViewerAddIn\Include_Chart\Conversion.h
; File D:\git\src\IBK\IBK_DRFN\ProjSrc\SrcChartEx\ChartAddIn\ChartDataListViewerAddIn\ChartDataListViewerAddIn\DlgDataListViewer.cpp
;	COMDAT ?OnGetdispinfo@CDlgDataListViewer@@IAEXPAUtagNMHDR@@PAJ@Z
_TEXT	SEGMENT
$T2 = -72						; size = 8
$T3 = -72						; size = 8
$T4 = -72						; size = 8
$T5 = -72						; size = 8
$T6 = -72						; size = 8
_value1$7 = -64						; size = 8
_value$ = -56						; size = 8
_szStr$8 = -48						; size = 8
_szStr$9 = -48						; size = 8
$T10 = -44						; size = 4
$T11 = -44						; size = 4
$T12 = -44						; size = 4
$T13 = -44						; size = 4
$T14 = -44						; size = 4
_strPT$ = -40						; size = 4
_strRQs$ = -36						; size = 4
tv999 = -32						; size = 4
_pPacket$1$ = -32					; size = 4
$T15 = -32						; size = 4
$T16 = -32						; size = 4
$T17 = -32						; size = 4
_strRQ$ = -28						; size = 4
_pData$1$ = -24						; size = 4
_strv$18 = -24						; size = 4
$T19 = -24						; size = 4
$T20 = -24						; size = 4
_pPacketheader$1$ = -20					; size = 4
_strPacketName$21 = -20					; size = 4
$T22 = -20						; size = 4
_nRowIndex$1$ = -16					; size = 4
$T23 = -16						; size = 4
_strFormat$24 = -16					; size = 4
__$EHRec$ = -12						; size = 12
_strv$25 = 8						; size = 4
_pNMHDR$ = 8						; size = 4
_pResult$ = 12						; size = 4
?OnGetdispinfo@CDlgDataListViewer@@IAEXPAUtagNMHDR@@PAJ@Z PROC ; CDlgDataListViewer::OnGetdispinfo, COMDAT
; _this$ = ecx

; 1376 : {

  00000	55		 push	 ebp
  00001	8b ec		 mov	 ebp, esp
  00003	6a ff		 push	 -1
  00005	68 00 00 00 00	 push	 __ehhandler$?OnGetdispinfo@CDlgDataListViewer@@IAEXPAUtagNMHDR@@PAJ@Z
  0000a	64 a1 00 00 00
	00		 mov	 eax, DWORD PTR fs:0
  00010	50		 push	 eax
  00011	83 ec 3c	 sub	 esp, 60			; 0000003cH
  00014	53		 push	 ebx
  00015	56		 push	 esi
  00016	57		 push	 edi
  00017	a1 00 00 00 00	 mov	 eax, DWORD PTR ___security_cookie
  0001c	33 c5		 xor	 eax, ebp
  0001e	50		 push	 eax
  0001f	8d 45 f4	 lea	 eax, DWORD PTR __$EHRec$[ebp]
  00022	64 a3 00 00 00
	00		 mov	 DWORD PTR fs:0, eax
  00028	8b d9		 mov	 ebx, ecx

; 1377 : 	LV_DISPINFO* pDispInfo = (LV_DISPINFO*)pNMHDR;
; 1378 : 	LV_ITEM* pItem= &(pDispInfo)->item;

  0002a	8b 7d 08	 mov	 edi, DWORD PTR _pNMHDR$[ebp]

; 1379 : 
; 1380 : 	POSITION pos, pos2;
; 1381 : 	double value;
; 1382 : 	CString strPT = m_strPacketNames;

  0002d	8d 83 c8 03 00
	00		 lea	 eax, DWORD PTR [ebx+968]
  00033	50		 push	 eax
  00034	8d 4d d8	 lea	 ecx, DWORD PTR _strPT$[ebp]
  00037	ff 15 00 00 00
	00		 call	 DWORD PTR __imp_??0?$CStringT@DV?$StrTraitMFC_DLL@DV?$ChTraitsCRT@D@ATL@@@@@ATL@@QAE@ABV01@@Z

; 1383 : 
; 1384 : 	pos = m_DataList.FindIndex(pItem->iSubItem);

  0003d	ff 77 14	 push	 DWORD PTR [edi+20]
  00040	8d 8b f8 03 00
	00		 lea	 ecx, DWORD PTR [ebx+1016]
  00046	c7 45 fc 00 00
	00 00		 mov	 DWORD PTR __$EHRec$[ebp+8], 0
  0004d	e8 00 00 00 00	 call	 ?FindIndex@CObList@@QBEPAU__POSITION@@H@Z ; CObList::FindIndex

; 1385 : 	if(!pos)

  00052	85 c0		 test	 eax, eax
  00054	0f 84 86 06 00
	00		 je	 $LN65@OnGetdispi

; 1386 : 	{
; 1387 : 		*pResult = 0;
; 1388 : 		return;
; 1389 : 	}
; 1390 : 	
; 1391 : 	CData* pData = (CData*)m_DataList.GetAt(pos);

  0005a	8b 70 08	 mov	 esi, DWORD PTR [eax+8]
  0005d	89 75 e8	 mov	 DWORD PTR _pData$1$[ebp], esi

; 1392 : 	if(!pData)

  00060	85 f6		 test	 esi, esi
  00062	0f 84 78 06 00
	00		 je	 $LN65@OnGetdispi

; 1393 : 	{
; 1394 : 		*pResult = 0;
; 1395 : 		return;
; 1396 : 	}
; 1397 : 	int nRowIndex = m_bReverse?pItem->iItem:m_nRowCount - pItem->iItem - 1;

  00068	83 bb 40 04 00
	00 00		 cmp	 DWORD PTR [ebx+1088], 0
  0006f	74 08		 je	 SHORT $LN42@OnGetdispi
  00071	8b 47 10	 mov	 eax, DWORD PTR [edi+16]
  00074	89 45 f0	 mov	 DWORD PTR _nRowIndex$1$[ebp], eax
  00077	eb 10		 jmp	 SHORT $LN43@OnGetdispi
$LN42@OnGetdispi:
  00079	8b b3 18 04 00
	00		 mov	 esi, DWORD PTR [ebx+1048]
  0007f	2b 77 10	 sub	 esi, DWORD PTR [edi+16]
  00082	4e		 dec	 esi
  00083	89 75 f0	 mov	 DWORD PTR _nRowIndex$1$[ebp], esi
  00086	8b 75 e8	 mov	 esi, DWORD PTR _pData$1$[ebp]
$LN43@OnGetdispi:

; 1398 : 
; 1399 : 	//20081106  >>
; 1400 : 	CString strRQs = m_strRQs, strRQ;

  00089	8d 83 44 04 00
	00		 lea	 eax, DWORD PTR [ebx+1092]
  0008f	50		 push	 eax
  00090	8d 4d dc	 lea	 ecx, DWORD PTR _strRQs$[ebp]
  00093	ff 15 00 00 00
	00		 call	 DWORD PTR __imp_??0?$CStringT@DV?$StrTraitMFC_DLL@DV?$ChTraitsCRT@D@ATL@@@@@ATL@@QAE@ABV01@@Z
  00099	8d 4d e4	 lea	 ecx, DWORD PTR _strRQ$[ebp]
  0009c	ff 15 00 00 00
	00		 call	 DWORD PTR __imp_??0?$CStringT@DV?$StrTraitMFC_DLL@DV?$ChTraitsCRT@D@ATL@@@@@ATL@@QAE@XZ

; 1401 : 	strRQ = CDataConversion::GetStringData(strRQs, ";");

  000a2	68 00 00 00 00	 push	 OFFSET ??_C@_01ICJEACDI@?$DL@
  000a7	8d 4d e0	 lea	 ecx, DWORD PTR $T17[ebp]
  000aa	c6 45 fc 02	 mov	 BYTE PTR __$EHRec$[ebp+8], 2
  000ae	ff 15 00 00 00
	00		 call	 DWORD PTR __imp_??0?$CStringT@DV?$StrTraitMFC_DLL@DV?$ChTraitsCRT@D@ATL@@@@@ATL@@QAE@PBD@Z
  000b4	6a 01		 push	 1
  000b6	8d 45 e0	 lea	 eax, DWORD PTR $T17[ebp]
  000b9	c6 45 fc 03	 mov	 BYTE PTR __$EHRec$[ebp+8], 3
  000bd	50		 push	 eax
  000be	8d 45 dc	 lea	 eax, DWORD PTR _strRQs$[ebp]
  000c1	50		 push	 eax
  000c2	8d 45 ec	 lea	 eax, DWORD PTR $T22[ebp]
  000c5	50		 push	 eax
  000c6	e8 00 00 00 00	 call	 ?GetStringData@CDataConversion@@SA?AV?$CStringT@DV?$StrTraitMFC_DLL@DV?$ChTraitsCRT@D@ATL@@@@@ATL@@AAV23@ABV23@_N@Z ; CDataConversion::GetStringData
  000cb	83 c4 10	 add	 esp, 16			; 00000010H
  000ce	50		 push	 eax
  000cf	8d 4d e4	 lea	 ecx, DWORD PTR _strRQ$[ebp]
  000d2	c6 45 fc 04	 mov	 BYTE PTR __$EHRec$[ebp+8], 4
  000d6	ff 15 00 00 00
	00		 call	 DWORD PTR __imp_??4?$CStringT@DV?$StrTraitMFC_DLL@DV?$ChTraitsCRT@D@ATL@@@@@ATL@@QAEAAV01@ABV01@@Z
  000dc	8d 4d ec	 lea	 ecx, DWORD PTR $T22[ebp]
  000df	ff 15 00 00 00
	00		 call	 DWORD PTR __imp_??1?$CStringT@DV?$StrTraitMFC_DLL@DV?$ChTraitsCRT@D@ATL@@@@@ATL@@QAE@XZ
  000e5	8d 4d e0	 lea	 ecx, DWORD PTR $T17[ebp]
  000e8	c6 45 fc 02	 mov	 BYTE PTR __$EHRec$[ebp+8], 2
  000ec	ff 15 00 00 00
	00		 call	 DWORD PTR __imp_??1?$CStringT@DV?$StrTraitMFC_DLL@DV?$ChTraitsCRT@D@ATL@@@@@ATL@@QAE@XZ

; 1402 : 	IPacket * pPacket = m_pPacketList->GetPacket(strRQ, pData->m_strPacketName);

  000f2	8b 8b c0 03 00
	00		 mov	 ecx, DWORD PTR [ebx+960]
  000f8	ff 76 08	 push	 DWORD PTR [esi+8]
  000fb	ff 75 e4	 push	 DWORD PTR _strRQ$[ebp]
  000fe	8b 01		 mov	 eax, DWORD PTR [ecx]
  00100	ff 50 10	 call	 DWORD PTR [eax+16]
  00103	89 45 e0	 mov	 DWORD PTR _pPacket$1$[ebp], eax

; 1403 : 	//IPacket * pPacket = m_pPacketList->GetPacket(pData->m_strPacketName);
; 1404 : 	//20081106  <<
; 1405 : 	if(pPacket)

  00106	85 c0		 test	 eax, eax
  00108	74 1e		 je	 SHORT $LN7@OnGetdispi

; 1406 : 	{
; 1407 : 		// (2007/2/3 - Seung-Won, Bae) Skip Indent Data
; 1408 : 		int nStartIndex = pPacket->GetIndexOfRealDataStart();

  0010a	8b 10		 mov	 edx, DWORD PTR [eax]
  0010c	8b c8		 mov	 ecx, eax
  0010e	ff 52 20	 call	 DWORD PTR [edx+32]
  00111	8b f0		 mov	 esi, eax

; 1409 : 		pPacket->Release();

  00113	8b 45 e0	 mov	 eax, DWORD PTR _pPacket$1$[ebp]
  00116	50		 push	 eax
  00117	8b 08		 mov	 ecx, DWORD PTR [eax]
  00119	ff 51 08	 call	 DWORD PTR [ecx+8]

; 1410 : 		if(nRowIndex < nStartIndex)

  0011c	39 75 f0	 cmp	 DWORD PTR _nRowIndex$1$[ebp], esi
  0011f	0f 8c e9 03 00
	00		 jl	 $LN11@OnGetdispi
  00125	8b 75 e8	 mov	 esi, DWORD PTR _pData$1$[ebp]
$LN7@OnGetdispi:

; 1411 : 		{
; 1412 : 			*pResult = 0;
; 1413 : 			return;
; 1414 : 		}
; 1415 : 	}
; 1416 : 
; 1417 : 	if(pItem->iItem == 0)

  00128	83 7f 10 00	 cmp	 DWORD PTR [edi+16], 0
  0012c	75 07		 jne	 SHORT $LN8@OnGetdispi

; 1418 : 		pItem->state = LVIS_SELECTED;

  0012e	c7 47 18 02 00
	00 00		 mov	 DWORD PTR [edi+24], 2
$LN8@OnGetdispi:

; 1419 : 	if (pItem->mask & LVIF_TEXT)

  00135	f6 47 0c 01	 test	 BYTE PTR [edi+12], 1
  00139	0f 84 cf 03 00
	00		 je	 $LN11@OnGetdispi

; 1420 : 	{
; 1421 : 		if(m_bPacketHeader && (pItem->iSubItem == 0))	// header  

  0013f	83 bb b4 00 00
	00 00		 cmp	 DWORD PTR [ebx+180], 0
  00146	0f 84 e2 03 00
	00		 je	 $LN10@OnGetdispi
  0014c	83 7f 14 00	 cmp	 DWORD PTR [edi+20], 0
  00150	0f 85 d8 03 00
	00		 jne	 $LN10@OnGetdispi

; 1422 : 		{
; 1423 : 			//20081106  >>
; 1424 : 			IPacket * pPacketheader = m_pPacketList->GetPacket( strRQ, m_strHorzScale);

  00156	8b 8b c0 03 00
	00		 mov	 ecx, DWORD PTR [ebx+960]
  0015c	ff b3 bc 03 00
	00		 push	 DWORD PTR [ebx+956]
  00162	ff 75 e4	 push	 DWORD PTR _strRQ$[ebp]
  00165	8b 01		 mov	 eax, DWORD PTR [ecx]
  00167	ff 50 10	 call	 DWORD PTR [eax+16]

; 1429 : 			if(pData->m_strPacketType == _MTEXT(C6_CHARACTER))

  0016a	8b 0d 54 00 00
	00		 mov	 ecx, DWORD PTR ?g_iMetaTable@@3VIMetaTable@@A+84
  00170	89 45 ec	 mov	 DWORD PTR _pPacketheader$1$[ebp], eax
  00173	8d 46 0c	 lea	 eax, DWORD PTR [esi+12]
  00176	89 45 e0	 mov	 DWORD PTR tv999[ebp], eax
; File C:\Program Files (x86)\Microsoft Visual Studio\2019\Community\VC\Tools\MSVC\14.29.30133\atlmfc\include\cstringt.h

; 2486 : 		return(str1.Compare(psz2) == 0);

  00179	ff b1 60 09 00
	00		 push	 DWORD PTR [ecx+2400]
  0017f	8b c8		 mov	 ecx, eax
  00181	ff 15 00 00 00
	00		 call	 DWORD PTR __imp_?Compare@?$CStringT@DV?$StrTraitMFC_DLL@DV?$ChTraitsCRT@D@ATL@@@@@ATL@@QBEHPBD@Z
  00187	85 c0		 test	 eax, eax
; File D:\git\src\IBK\IBK_DRFN\ProjSrc\SrcChartEx\ChartAddIn\ChartDataListViewerAddIn\ChartDataListViewerAddIn\DlgDataListViewer.cpp

; 1429 : 			if(pData->m_strPacketType == _MTEXT(C6_CHARACTER))

  00189	75 5a		 jne	 SHORT $LN12@OnGetdispi

; 1430 : 			{
; 1431 : 				pos2 = pData->m_pistrDataList->FindIndex(nRowIndex);

  0018b	8b 4e 10	 mov	 ecx, DWORD PTR [esi+16]
  0018e	ff 75 f0	 push	 DWORD PTR _nRowIndex$1$[ebp]
  00191	8b 01		 mov	 eax, DWORD PTR [ecx]
  00193	ff 50 5c	 call	 DWORD PTR [eax+92]
  00196	8b d0		 mov	 edx, eax

; 1432 : 				if(!pos2)

  00198	85 d2		 test	 edx, edx
  0019a	0f 84 6e 03 00
	00		 je	 $LN11@OnGetdispi
; File D:\git\src\IBK\IBK_DRFN\ProjSrc\SrcChartEx\ChartAddIn\ChartDataListViewerAddIn\Include_AddIn_134221\I134221\_IString.h

; 34   : 		m_szData = NULL;

  001a0	c7 45 d0 00 00
	00 00		 mov	 DWORD PTR _szStr$9[ebp], 0

; 35   : 		m_pIStrData = NULL;

  001a7	c7 45 d4 00 00
	00 00		 mov	 DWORD PTR _szStr$9[ebp+4], 0
; File D:\git\src\IBK\IBK_DRFN\ProjSrc\SrcChartEx\ChartAddIn\ChartDataListViewerAddIn\ChartDataListViewerAddIn\DlgDataListViewer.cpp

; 1439 : 				pData->m_pistrDataList->GetAt( pos2, szStr);

  001ae	8b 4e 10	 mov	 ecx, DWORD PTR [esi+16]
  001b1	8d 75 d0	 lea	 esi, DWORD PTR _szStr$9[ebp]
  001b4	56		 push	 esi
  001b5	52		 push	 edx
  001b6	c6 45 fc 05	 mov	 BYTE PTR __$EHRec$[ebp+8], 5
  001ba	8b 01		 mov	 eax, DWORD PTR [ecx]
  001bc	ff 50 44	 call	 DWORD PTR [eax+68]

; 1440 : 				lstrcpy(pItem->pszText, szStr);

  001bf	ff 75 d0	 push	 DWORD PTR _szStr$9[ebp]
  001c2	ff 77 20	 push	 DWORD PTR [edi+32]
  001c5	ff 15 00 00 00
	00		 call	 DWORD PTR __imp__lstrcpyA@8
; File D:\git\src\IBK\IBK_DRFN\ProjSrc\SrcChartEx\ChartAddIn\ChartDataListViewerAddIn\Include_AddIn_134221\I134221\_IString.h

; 45   : 		if( m_pIStrData)

  001cb	8b 4d d4	 mov	 ecx, DWORD PTR _szStr$9[ebp+4]
  001ce	c6 45 fc 06	 mov	 BYTE PTR __$EHRec$[ebp+8], 6
  001d2	85 c9		 test	 ecx, ecx
  001d4	74 06		 je	 SHORT $LN90@OnGetdispi

; 46   : 		{
; 47   : 			m_pIStrData->Release();

  001d6	8b 01		 mov	 eax, DWORD PTR [ecx]
  001d8	51		 push	 ecx
  001d9	ff 50 08	 call	 DWORD PTR [eax+8]
$LN90@OnGetdispi:

; 48   : 			m_pIStrData = NULL;
; 49   : 			m_szData = NULL;
; 50   : 		}
; 51   : 	}

  001dc	c6 45 fc 02	 mov	 BYTE PTR __$EHRec$[ebp+8], 2
; File D:\git\src\IBK\IBK_DRFN\ProjSrc\SrcChartEx\ChartAddIn\ChartDataListViewerAddIn\ChartDataListViewerAddIn\DlgDataListViewer.cpp

; 1441 : 			}

  001e0	e9 20 03 00 00	 jmp	 $LN19@OnGetdispi
$LN12@OnGetdispi:

; 1442 : 			else
; 1443 : 			{
; 1444 : 				pos2 = pData->m_pidDataList->FindIndex(nRowIndex);

  001e5	8b 4e 14	 mov	 ecx, DWORD PTR [esi+20]
  001e8	8b 75 f0	 mov	 esi, DWORD PTR _nRowIndex$1$[ebp]
  001eb	56		 push	 esi
  001ec	8b 01		 mov	 eax, DWORD PTR [ecx]
  001ee	ff 50 5c	 call	 DWORD PTR [eax+92]

; 1445 : 				if(pos2) pData->m_pidDataList->GetAt( pos2, value);

  001f1	85 c0		 test	 eax, eax
  001f3	74 13		 je	 SHORT $LN15@OnGetdispi
  001f5	8b 4d e8	 mov	 ecx, DWORD PTR _pData$1$[ebp]
  001f8	8d 7d c8	 lea	 edi, DWORD PTR _value$[ebp]
  001fb	57		 push	 edi
  001fc	50		 push	 eax
  001fd	8b 49 14	 mov	 ecx, DWORD PTR [ecx+20]
  00200	8b 11		 mov	 edx, DWORD PTR [ecx]
  00202	ff 52 44	 call	 DWORD PTR [edx+68]
  00205	8b 7d 08	 mov	 edi, DWORD PTR _pNMHDR$[ebp]
$LN15@OnGetdispi:

; 1446 : 
; 1447 : 				//->   .    .
; 1448 : 				double value1 = 0.0;
; 1449 : 				pPacketheader->GetData( nRowIndex, value1);

  00208	8b 4d ec	 mov	 ecx, DWORD PTR _pPacketheader$1$[ebp]
  0020b	8d 55 c0	 lea	 edx, DWORD PTR _value1$7[ebp]
  0020e	52		 push	 edx
  0020f	0f 57 c0	 xorps	 xmm0, xmm0
  00212	56		 push	 esi
  00213	8b 01		 mov	 eax, DWORD PTR [ecx]
  00215	f2 0f 11 45 c0	 movsd	 QWORD PTR _value1$7[ebp], xmm0
  0021a	ff 50 40	 call	 DWORD PTR [eax+64]

; 1450 : 				//sy 2004.2.16.
; 1451 : 				//->   .    .
; 1452 : 				if(value1 == ERRORVALUE || value1 == -ERRORVALUE)

  0021d	f2 0f 10 45 c0	 movsd	 xmm0, QWORD PTR _value1$7[ebp]
  00222	66 0f 2e 05 00
	00 00 00	 ucomisd xmm0, QWORD PTR __real@ffefffffffffffff
  0022a	f2 0f 10 0d 00
	00 00 00	 movsd	 xmm1, QWORD PTR __real@7fefffffffffffff
  00232	9f		 lahf
  00233	f6 c4 44	 test	 ah, 68			; 00000044H
  00236	7b 0a		 jnp	 SHORT $LN17@OnGetdispi
  00238	66 0f 2e c1	 ucomisd xmm0, xmm1
  0023c	9f		 lahf
  0023d	f6 c4 44	 test	 ah, 68			; 00000044H
  00240	7a 1c		 jp	 SHORT $LN121@OnGetdispi
$LN17@OnGetdispi:

; 1453 : 					pPacketheader->GetDataPastandFuture( nRowIndex, value);

  00242	8b 45 ec	 mov	 eax, DWORD PTR _pPacketheader$1$[ebp]
  00245	8d 4d c8	 lea	 ecx, DWORD PTR _value$[ebp]
  00248	51		 push	 ecx
  00249	56		 push	 esi
  0024a	8b 75 ec	 mov	 esi, DWORD PTR _pPacketheader$1$[ebp]
  0024d	8b ce		 mov	 ecx, esi
  0024f	8b 00		 mov	 eax, DWORD PTR [eax]
  00251	ff 50 44	 call	 DWORD PTR [eax+68]
  00254	f2 0f 10 0d 00
	00 00 00	 movsd	 xmm1, QWORD PTR __real@7fefffffffffffff
  0025c	eb 03		 jmp	 SHORT $LN16@OnGetdispi
$LN121@OnGetdispi:

; 1450 : 				//sy 2004.2.16.
; 1451 : 				//->   .    .
; 1452 : 				if(value1 == ERRORVALUE || value1 == -ERRORVALUE)

  0025e	8b 75 ec	 mov	 esi, DWORD PTR _pPacketheader$1$[ebp]
$LN16@OnGetdispi:

; 1454 : 
; 1455 : 				if(value != ERRORVALUE && value != -ERRORVALUE)

  00261	f2 0f 10 45 c8	 movsd	 xmm0, QWORD PTR _value$[ebp]
  00266	66 0f 2e 05 00
	00 00 00	 ucomisd xmm0, QWORD PTR __real@ffefffffffffffff
  0026e	9f		 lahf
  0026f	f6 c4 44	 test	 ah, 68			; 00000044H
  00272	0f 8b 7f 02 00
	00		 jnp	 $LN18@OnGetdispi
  00278	66 0f 2e c1	 ucomisd xmm0, xmm1
  0027c	9f		 lahf
  0027d	f6 c4 44	 test	 ah, 68			; 00000044H
  00280	0f 8b 71 02 00
	00		 jnp	 $LN18@OnGetdispi

; 1458 : 					CString strv = CDataConversion::DoubleToString(value);

  00286	8d 45 c8	 lea	 eax, DWORD PTR _value$[ebp]
  00289	50		 push	 eax
  0028a	8d 45 08	 lea	 eax, DWORD PTR _strv$25[ebp]
  0028d	50		 push	 eax
  0028e	e8 00 00 00 00	 call	 ?DoubleToString@CDataConversion@@SA?AV?$CStringT@DV?$StrTraitMFC_DLL@DV?$ChTraitsCRT@D@ATL@@@@@ATL@@ABN@Z ; CDataConversion::DoubleToString
  00293	83 c4 08	 add	 esp, 8
; File C:\Program Files (x86)\Microsoft Visual Studio\2019\Community\VC\Tools\MSVC\14.29.30133\atlmfc\include\cstringt.h

; 2486 : 		return(str1.Compare(psz2) == 0);

  00296	8b 4d e0	 mov	 ecx, DWORD PTR tv999[ebp]
  00299	68 00 00 00 00	 push	 OFFSET ??_C@_0P@IMPIBBAB@YYYYMMDDHHMMSS@
; File D:\git\src\IBK\IBK_DRFN\ProjSrc\SrcChartEx\ChartAddIn\ChartDataListViewerAddIn\ChartDataListViewerAddIn\DlgDataListViewer.cpp

; 1458 : 					CString strv = CDataConversion::DoubleToString(value);

  0029e	c6 45 fc 07	 mov	 BYTE PTR __$EHRec$[ebp+8], 7
; File C:\Program Files (x86)\Microsoft Visual Studio\2019\Community\VC\Tools\MSVC\14.29.30133\atlmfc\include\cstringt.h

; 2486 : 		return(str1.Compare(psz2) == 0);

  002a2	ff 15 00 00 00
	00		 call	 DWORD PTR __imp_?Compare@?$CStringT@DV?$StrTraitMFC_DLL@DV?$ChTraitsCRT@D@ATL@@@@@ATL@@QBEHPBD@Z
  002a8	85 c0		 test	 eax, eax
; File D:\git\src\IBK\IBK_DRFN\ProjSrc\SrcChartEx\ChartAddIn\ChartDataListViewerAddIn\ChartDataListViewerAddIn\DlgDataListViewer.cpp

; 1462 : 					if (pData->m_strPacketType == _T("YYYYMMDDHHMMSS"))

  002aa	0f 85 4e 01 00
	00		 jne	 $LN20@OnGetdispi

; 1463 : 					{
; 1464 : 						// nDataUnit (0:nontype, 1:, 2:, 3:, 4:, 5:, 6:Text)
; 1465 : 						CScaleBaseData::HORZSCALEDRAWERTYPE eDateUnit = (CScaleBaseData::HORZSCALEDRAWERTYPE)pPacketheader->GetDateUnitType();

  002b0	8b 06		 mov	 eax, DWORD PTR [esi]
  002b2	8b ce		 mov	 ecx, esi
  002b4	ff 50 28	 call	 DWORD PTR [eax+40]

; 1466 : 
; 1467 : 						CString strFormat = _T("YYYYMMDD");	// 

  002b7	68 00 00 00 00	 push	 OFFSET ??_C@_08DKDJLCMP@YYYYMMDD@
  002bc	8d 4d f0	 lea	 ecx, DWORD PTR _strFormat$24[ebp]

; 1468 : 						switch(eDateUnit)

  002bf	8d 70 ff	 lea	 esi, DWORD PTR [eax-1]
  002c2	ff 15 00 00 00
	00		 call	 DWORD PTR __imp_??0?$CStringT@DV?$StrTraitMFC_DLL@DV?$ChTraitsCRT@D@ATL@@@@@ATL@@QAE@PBD@Z
  002c8	c6 45 fc 08	 mov	 BYTE PTR __$EHRec$[ebp+8], 8
  002cc	83 fe 0b	 cmp	 esi, 11			; 0000000bH
  002cf	77 31		 ja	 SHORT $LN2@OnGetdispi
  002d1	0f b6 86 00 00
	00 00		 movzx	 eax, BYTE PTR $LN119@OnGetdispi[esi]
  002d8	ff 24 85 00 00
	00 00		 jmp	 DWORD PTR $LN120@OnGetdispi[eax*4]
$LN22@OnGetdispi:

; 1469 : 						{
; 1470 : 						case CScaleBaseData::HORZ_DAILY:		// 
; 1471 : 						case CScaleBaseData::HORZ_WEEKLEY:		//  
; 1472 : 							strFormat = _T("YYYYMMDD");		

  002df	68 00 00 00 00	 push	 OFFSET ??_C@_08DKDJLCMP@YYYYMMDD@

; 1473 : 							break;

  002e4	eb 13		 jmp	 SHORT $LN123@OnGetdispi
$LN24@OnGetdispi:

; 1474 : 						case CScaleBaseData::HORZ_MONTHLY:		//  
; 1475 : 							strFormat = _T("YYYYMM");		

  002e6	68 00 00 00 00	 push	 OFFSET ??_C@_06EBMMBHJD@YYYYMM@

; 1476 : 							break;

  002eb	eb 0c		 jmp	 SHORT $LN123@OnGetdispi
$LN25@OnGetdispi:

; 1477 : 						case CScaleBaseData::HORZ_TIME_ONE:		// 
; 1478 : 						case CScaleBaseData::HORZ_TIME_TWO:
; 1479 : 							strFormat = _T("MMDDHHMM");

  002ed	68 00 00 00 00	 push	 OFFSET ??_C@_08KLIIINKM@MMDDHHMM@

; 1480 : 							break;

  002f2	eb 05		 jmp	 SHORT $LN123@OnGetdispi
$LN27@OnGetdispi:

; 1481 : 						case CScaleBaseData::HORZ_TICK:			//  
; 1482 : 						case CScaleBaseData::HORZ_TIME_SECOND:
; 1483 : 							strFormat = _T("DDHHMMSS");

  002f4	68 00 00 00 00	 push	 OFFSET ??_C@_08JFMBEEDE@DDHHMMSS@
$LN123@OnGetdispi:

; 1484 : 							break;
; 1485 : 						}
; 1486 : 
; 1487 : 						if((m_strHorzScale.Find(_MTEXT(C0_DATE_TIME)) >= 0) && m_bPacketHeader && (pItem->iSubItem == 0))

  002f9	8d 4d f0	 lea	 ecx, DWORD PTR _strFormat$24[ebp]
  002fc	ff 15 00 00 00
	00		 call	 DWORD PTR __imp_??4?$CStringT@DV?$StrTraitMFC_DLL@DV?$ChTraitsCRT@D@ATL@@@@@ATL@@QAEAAV01@PBD@Z
$LN2@OnGetdispi:
  00302	a1 54 00 00 00	 mov	 eax, DWORD PTR ?g_iMetaTable@@3VIMetaTable@@A+84
  00307	8d 8b bc 03 00
	00		 lea	 ecx, DWORD PTR [ebx+956]
  0030d	6a 00		 push	 0
  0030f	ff 30		 push	 DWORD PTR [eax]
  00311	ff 15 00 00 00
	00		 call	 DWORD PTR __imp_?Find@?$CStringT@DV?$StrTraitMFC_DLL@DV?$ChTraitsCRT@D@ATL@@@@@ATL@@QBEHPBDH@Z
  00317	85 c0		 test	 eax, eax
  00319	0f 88 9a 00 00
	00		 js	 $LN29@OnGetdispi
  0031f	83 bb b4 00 00
	00 00		 cmp	 DWORD PTR [ebx+180], 0
  00326	0f 84 8d 00 00
	00		 je	 $LN29@OnGetdispi
  0032c	83 7f 14 00	 cmp	 DWORD PTR [edi+20], 0
  00330	0f 85 83 00 00
	00		 jne	 $LN29@OnGetdispi

; 1488 : 							strv = CDataConversion( m_hOcxWnd, m_eChartMode).GetStringFormatTrans(strv, strFormat, "");

  00336	68 00 00 00 00	 push	 OFFSET ??_C@_00CNPNBAHC@@
  0033b	8d 4d e8	 lea	 ecx, DWORD PTR $T20[ebp]
  0033e	ff 15 00 00 00
	00		 call	 DWORD PTR __imp_??0?$CStringT@DV?$StrTraitMFC_DLL@DV?$ChTraitsCRT@D@ATL@@@@@ATL@@QAE@PBD@Z
  00344	68 00 00 00 00	 push	 OFFSET ??_C@_00CNPNBAHC@@
  00349	8d 4d e0	 lea	 ecx, DWORD PTR $T16[ebp]
  0034c	c6 45 fc 09	 mov	 BYTE PTR __$EHRec$[ebp+8], 9
  00350	ff 15 00 00 00
	00		 call	 DWORD PTR __imp_??0?$CStringT@DV?$StrTraitMFC_DLL@DV?$ChTraitsCRT@D@ATL@@@@@ATL@@QAE@PBD@Z
; File D:\git\src\IBK\IBK_DRFN\ProjSrc\SrcChartEx\ChartAddIn\ChartDataListViewerAddIn\Include_Chart\Conversion.h

; 27   : 		{	m_hOcxWnd = p_hOcxWnd;	m_eChartMode = p_eChartMode;	}

  00356	8b 83 48 04 00
	00		 mov	 eax, DWORD PTR [ebx+1096]
; File D:\git\src\IBK\IBK_DRFN\ProjSrc\SrcChartEx\ChartAddIn\ChartDataListViewerAddIn\ChartDataListViewerAddIn\DlgDataListViewer.cpp

; 1488 : 							strv = CDataConversion( m_hOcxWnd, m_eChartMode).GetStringFormatTrans(strv, strFormat, "");

  0035c	8b 8b 4c 04 00
	00		 mov	 ecx, DWORD PTR [ebx+1100]
; File D:\git\src\IBK\IBK_DRFN\ProjSrc\SrcChartEx\ChartAddIn\ChartDataListViewerAddIn\Include_Chart\Conversion.h

; 27   : 		{	m_hOcxWnd = p_hOcxWnd;	m_eChartMode = p_eChartMode;	}

  00362	89 45 b8	 mov	 DWORD PTR $T6[ebp], eax
; File D:\git\src\IBK\IBK_DRFN\ProjSrc\SrcChartEx\ChartAddIn\ChartDataListViewerAddIn\ChartDataListViewerAddIn\DlgDataListViewer.cpp

; 1488 : 							strv = CDataConversion( m_hOcxWnd, m_eChartMode).GetStringFormatTrans(strv, strFormat, "");

  00365	8d 45 e8	 lea	 eax, DWORD PTR $T20[ebp]
  00368	50		 push	 eax
  00369	8d 45 e0	 lea	 eax, DWORD PTR $T16[ebp]
; File D:\git\src\IBK\IBK_DRFN\ProjSrc\SrcChartEx\ChartAddIn\ChartDataListViewerAddIn\Include_Chart\Conversion.h

; 27   : 		{	m_hOcxWnd = p_hOcxWnd;	m_eChartMode = p_eChartMode;	}

  0036c	89 4d bc	 mov	 DWORD PTR $T6[ebp+4], ecx
; File D:\git\src\IBK\IBK_DRFN\ProjSrc\SrcChartEx\ChartAddIn\ChartDataListViewerAddIn\ChartDataListViewerAddIn\DlgDataListViewer.cpp

; 1488 : 							strv = CDataConversion( m_hOcxWnd, m_eChartMode).GetStringFormatTrans(strv, strFormat, "");

  0036f	50		 push	 eax
  00370	8d 45 f0	 lea	 eax, DWORD PTR _strFormat$24[ebp]
  00373	c6 45 fc 0a	 mov	 BYTE PTR __$EHRec$[ebp+8], 10 ; 0000000aH
  00377	50		 push	 eax
  00378	8d 45 08	 lea	 eax, DWORD PTR _strv$25[ebp]
  0037b	50		 push	 eax
  0037c	8d 45 d4	 lea	 eax, DWORD PTR $T14[ebp]
  0037f	50		 push	 eax
  00380	8d 4d b8	 lea	 ecx, DWORD PTR $T6[ebp]
  00383	e8 00 00 00 00	 call	 ?GetStringFormatTrans@CDataConversion@@QAE?AV?$CStringT@DV?$StrTraitMFC_DLL@DV?$ChTraitsCRT@D@ATL@@@@@ATL@@ABV23@000@Z ; CDataConversion::GetStringFormatTrans
  00388	50		 push	 eax
  00389	8d 4d 08	 lea	 ecx, DWORD PTR _strv$25[ebp]
  0038c	c6 45 fc 0b	 mov	 BYTE PTR __$EHRec$[ebp+8], 11 ; 0000000bH
  00390	ff 15 00 00 00
	00		 call	 DWORD PTR __imp_??4?$CStringT@DV?$StrTraitMFC_DLL@DV?$ChTraitsCRT@D@ATL@@@@@ATL@@QAEAAV01@ABV01@@Z
  00396	8d 4d d4	 lea	 ecx, DWORD PTR $T14[ebp]
  00399	ff 15 00 00 00
	00		 call	 DWORD PTR __imp_??1?$CStringT@DV?$StrTraitMFC_DLL@DV?$ChTraitsCRT@D@ATL@@@@@ATL@@QAE@XZ
  0039f	8d 4d e0	 lea	 ecx, DWORD PTR $T16[ebp]
  003a2	ff 15 00 00 00
	00		 call	 DWORD PTR __imp_??1?$CStringT@DV?$StrTraitMFC_DLL@DV?$ChTraitsCRT@D@ATL@@@@@ATL@@QAE@XZ
  003a8	8d 4d e8	 lea	 ecx, DWORD PTR $T20[ebp]

; 1491 : 						//strv = CommaStr(strv);
; 1492 : 					}

  003ab	ff 15 00 00 00
	00		 call	 DWORD PTR __imp_??1?$CStringT@DV?$StrTraitMFC_DLL@DV?$ChTraitsCRT@D@ATL@@@@@ATL@@QAE@XZ
  003b1	8d 4d f0	 lea	 ecx, DWORD PTR _strFormat$24[ebp]
  003b4	e9 1d 01 00 00	 jmp	 $LN125@OnGetdispi
$LN29@OnGetdispi:
; File D:\git\src\IBK\IBK_DRFN\ProjSrc\SrcChartEx\ChartAddIn\ChartDataListViewerAddIn\Include_Chart\Conversion.h

; 27   : 		{	m_hOcxWnd = p_hOcxWnd;	m_eChartMode = p_eChartMode;	}

  003b9	8b 83 48 04 00
	00		 mov	 eax, DWORD PTR [ebx+1096]
; File D:\git\src\IBK\IBK_DRFN\ProjSrc\SrcChartEx\ChartAddIn\ChartDataListViewerAddIn\ChartDataListViewerAddIn\DlgDataListViewer.cpp

; 1490 : 							strv = CDataConversion( m_hOcxWnd, m_eChartMode).GetStringFormatTrans(strv, strFormat);

  003bf	8b 8b 4c 04 00
	00		 mov	 ecx, DWORD PTR [ebx+1100]
; File D:\git\src\IBK\IBK_DRFN\ProjSrc\SrcChartEx\ChartAddIn\ChartDataListViewerAddIn\Include_Chart\Conversion.h

; 27   : 		{	m_hOcxWnd = p_hOcxWnd;	m_eChartMode = p_eChartMode;	}

  003c5	89 45 b8	 mov	 DWORD PTR $T5[ebp], eax
; File D:\git\src\IBK\IBK_DRFN\ProjSrc\SrcChartEx\ChartAddIn\ChartDataListViewerAddIn\ChartDataListViewerAddIn\DlgDataListViewer.cpp

; 1490 : 							strv = CDataConversion( m_hOcxWnd, m_eChartMode).GetStringFormatTrans(strv, strFormat);

  003c8	8d 45 f0	 lea	 eax, DWORD PTR _strFormat$24[ebp]
  003cb	50		 push	 eax
  003cc	8d 45 08	 lea	 eax, DWORD PTR _strv$25[ebp]
; File D:\git\src\IBK\IBK_DRFN\ProjSrc\SrcChartEx\ChartAddIn\ChartDataListViewerAddIn\Include_Chart\Conversion.h

; 27   : 		{	m_hOcxWnd = p_hOcxWnd;	m_eChartMode = p_eChartMode;	}

  003cf	89 4d bc	 mov	 DWORD PTR $T5[ebp+4], ecx
; File D:\git\src\IBK\IBK_DRFN\ProjSrc\SrcChartEx\ChartAddIn\ChartDataListViewerAddIn\ChartDataListViewerAddIn\DlgDataListViewer.cpp

; 1490 : 							strv = CDataConversion( m_hOcxWnd, m_eChartMode).GetStringFormatTrans(strv, strFormat);

  003d2	50		 push	 eax
  003d3	8d 45 d4	 lea	 eax, DWORD PTR $T13[ebp]
  003d6	50		 push	 eax
  003d7	8d 4d b8	 lea	 ecx, DWORD PTR $T5[ebp]
  003da	e8 00 00 00 00	 call	 ?GetStringFormatTrans@CDataConversion@@QAE?AV?$CStringT@DV?$StrTraitMFC_DLL@DV?$ChTraitsCRT@D@ATL@@@@@ATL@@ABV23@0@Z ; CDataConversion::GetStringFormatTrans
  003df	50		 push	 eax
  003e0	8d 4d 08	 lea	 ecx, DWORD PTR _strv$25[ebp]
  003e3	c6 45 fc 0c	 mov	 BYTE PTR __$EHRec$[ebp+8], 12 ; 0000000cH
  003e7	ff 15 00 00 00
	00		 call	 DWORD PTR __imp_??4?$CStringT@DV?$StrTraitMFC_DLL@DV?$ChTraitsCRT@D@ATL@@@@@ATL@@QAEAAV01@ABV01@@Z
  003ed	8d 4d d4	 lea	 ecx, DWORD PTR $T13[ebp]

; 1491 : 						//strv = CommaStr(strv);
; 1492 : 					}

  003f0	ff 15 00 00 00
	00		 call	 DWORD PTR __imp_??1?$CStringT@DV?$StrTraitMFC_DLL@DV?$ChTraitsCRT@D@ATL@@@@@ATL@@QAE@XZ
  003f6	8d 4d f0	 lea	 ecx, DWORD PTR _strFormat$24[ebp]
  003f9	e9 d8 00 00 00	 jmp	 $LN125@OnGetdispi
$LN20@OnGetdispi:

; 1493 : 					else
; 1494 : 					{
; 1495 : 						if((m_strHorzScale.Find(_MTEXT(C0_DATE_TIME)) >= 0) && m_bPacketHeader && (pItem->iSubItem == 0))

  003fe	a1 54 00 00 00	 mov	 eax, DWORD PTR ?g_iMetaTable@@3VIMetaTable@@A+84
  00403	8d 8b bc 03 00
	00		 lea	 ecx, DWORD PTR [ebx+956]
  00409	6a 00		 push	 0
  0040b	ff 30		 push	 DWORD PTR [eax]
  0040d	ff 15 00 00 00
	00		 call	 DWORD PTR __imp_?Find@?$CStringT@DV?$StrTraitMFC_DLL@DV?$ChTraitsCRT@D@ATL@@@@@ATL@@QBEHPBDH@Z
  00413	85 c0		 test	 eax, eax
  00415	0f 88 85 00 00
	00		 js	 $LN31@OnGetdispi
  0041b	83 bb b4 00 00
	00 00		 cmp	 DWORD PTR [ebx+180], 0
  00422	74 7c		 je	 SHORT $LN31@OnGetdispi
  00424	83 7f 14 00	 cmp	 DWORD PTR [edi+20], 0
  00428	75 76		 jne	 SHORT $LN31@OnGetdispi

; 1496 : 							strv = CDataConversion( m_hOcxWnd, m_eChartMode).GetStringFormatTrans(strv, pData->m_strPacketType, "");

  0042a	68 00 00 00 00	 push	 OFFSET ??_C@_00CNPNBAHC@@
  0042f	8d 4d f0	 lea	 ecx, DWORD PTR $T23[ebp]
  00432	ff 15 00 00 00
	00		 call	 DWORD PTR __imp_??0?$CStringT@DV?$StrTraitMFC_DLL@DV?$ChTraitsCRT@D@ATL@@@@@ATL@@QAE@PBD@Z
  00438	68 00 00 00 00	 push	 OFFSET ??_C@_00CNPNBAHC@@
  0043d	8d 4d e8	 lea	 ecx, DWORD PTR $T19[ebp]
  00440	c6 45 fc 0d	 mov	 BYTE PTR __$EHRec$[ebp+8], 13 ; 0000000dH
  00444	ff 15 00 00 00
	00		 call	 DWORD PTR __imp_??0?$CStringT@DV?$StrTraitMFC_DLL@DV?$ChTraitsCRT@D@ATL@@@@@ATL@@QAE@PBD@Z
; File D:\git\src\IBK\IBK_DRFN\ProjSrc\SrcChartEx\ChartAddIn\ChartDataListViewerAddIn\Include_Chart\Conversion.h

; 27   : 		{	m_hOcxWnd = p_hOcxWnd;	m_eChartMode = p_eChartMode;	}

  0044a	8b 83 48 04 00
	00		 mov	 eax, DWORD PTR [ebx+1096]
; File D:\git\src\IBK\IBK_DRFN\ProjSrc\SrcChartEx\ChartAddIn\ChartDataListViewerAddIn\ChartDataListViewerAddIn\DlgDataListViewer.cpp

; 1496 : 							strv = CDataConversion( m_hOcxWnd, m_eChartMode).GetStringFormatTrans(strv, pData->m_strPacketType, "");

  00450	8b 8b 4c 04 00
	00		 mov	 ecx, DWORD PTR [ebx+1100]
; File D:\git\src\IBK\IBK_DRFN\ProjSrc\SrcChartEx\ChartAddIn\ChartDataListViewerAddIn\Include_Chart\Conversion.h

; 27   : 		{	m_hOcxWnd = p_hOcxWnd;	m_eChartMode = p_eChartMode;	}

  00456	89 45 b8	 mov	 DWORD PTR $T4[ebp], eax
; File D:\git\src\IBK\IBK_DRFN\ProjSrc\SrcChartEx\ChartAddIn\ChartDataListViewerAddIn\ChartDataListViewerAddIn\DlgDataListViewer.cpp

; 1496 : 							strv = CDataConversion( m_hOcxWnd, m_eChartMode).GetStringFormatTrans(strv, pData->m_strPacketType, "");

  00459	8d 45 f0	 lea	 eax, DWORD PTR $T23[ebp]
  0045c	50		 push	 eax
  0045d	8d 45 e8	 lea	 eax, DWORD PTR $T19[ebp]
; File D:\git\src\IBK\IBK_DRFN\ProjSrc\SrcChartEx\ChartAddIn\ChartDataListViewerAddIn\Include_Chart\Conversion.h

; 27   : 		{	m_hOcxWnd = p_hOcxWnd;	m_eChartMode = p_eChartMode;	}

  00460	89 4d bc	 mov	 DWORD PTR $T4[ebp+4], ecx
; File D:\git\src\IBK\IBK_DRFN\ProjSrc\SrcChartEx\ChartAddIn\ChartDataListViewerAddIn\ChartDataListViewerAddIn\DlgDataListViewer.cpp

; 1496 : 							strv = CDataConversion( m_hOcxWnd, m_eChartMode).GetStringFormatTrans(strv, pData->m_strPacketType, "");

  00463	50		 push	 eax
  00464	ff 75 e0	 push	 DWORD PTR tv999[ebp]
  00467	8d 45 08	 lea	 eax, DWORD PTR _strv$25[ebp]
  0046a	c6 45 fc 0e	 mov	 BYTE PTR __$EHRec$[ebp+8], 14 ; 0000000eH
  0046e	50		 push	 eax
  0046f	8d 45 d4	 lea	 eax, DWORD PTR $T12[ebp]
  00472	50		 push	 eax
  00473	8d 4d b8	 lea	 ecx, DWORD PTR $T4[ebp]
  00476	e8 00 00 00 00	 call	 ?GetStringFormatTrans@CDataConversion@@QAE?AV?$CStringT@DV?$StrTraitMFC_DLL@DV?$ChTraitsCRT@D@ATL@@@@@ATL@@ABV23@000@Z ; CDataConversion::GetStringFormatTrans
  0047b	50		 push	 eax
  0047c	8d 4d 08	 lea	 ecx, DWORD PTR _strv$25[ebp]
  0047f	c6 45 fc 0f	 mov	 BYTE PTR __$EHRec$[ebp+8], 15 ; 0000000fH
  00483	ff 15 00 00 00
	00		 call	 DWORD PTR __imp_??4?$CStringT@DV?$StrTraitMFC_DLL@DV?$ChTraitsCRT@D@ATL@@@@@ATL@@QAEAAV01@ABV01@@Z
  00489	8d 4d d4	 lea	 ecx, DWORD PTR $T12[ebp]
  0048c	ff 15 00 00 00
	00		 call	 DWORD PTR __imp_??1?$CStringT@DV?$StrTraitMFC_DLL@DV?$ChTraitsCRT@D@ATL@@@@@ATL@@QAE@XZ
  00492	8d 4d e8	 lea	 ecx, DWORD PTR $T19[ebp]
  00495	ff 15 00 00 00
	00		 call	 DWORD PTR __imp_??1?$CStringT@DV?$StrTraitMFC_DLL@DV?$ChTraitsCRT@D@ATL@@@@@ATL@@QAE@XZ
  0049b	8d 4d f0	 lea	 ecx, DWORD PTR $T23[ebp]
  0049e	eb 36		 jmp	 SHORT $LN125@OnGetdispi
$LN31@OnGetdispi:
; File D:\git\src\IBK\IBK_DRFN\ProjSrc\SrcChartEx\ChartAddIn\ChartDataListViewerAddIn\Include_Chart\Conversion.h

; 27   : 		{	m_hOcxWnd = p_hOcxWnd;	m_eChartMode = p_eChartMode;	}

  004a0	8b 83 48 04 00
	00		 mov	 eax, DWORD PTR [ebx+1096]
; File D:\git\src\IBK\IBK_DRFN\ProjSrc\SrcChartEx\ChartAddIn\ChartDataListViewerAddIn\ChartDataListViewerAddIn\DlgDataListViewer.cpp

; 1498 : 							strv = CDataConversion( m_hOcxWnd, m_eChartMode).GetStringFormatTrans(strv, pData->m_strPacketType);

  004a6	ff 75 e0	 push	 DWORD PTR tv999[ebp]
  004a9	8b 8b 4c 04 00
	00		 mov	 ecx, DWORD PTR [ebx+1100]
; File D:\git\src\IBK\IBK_DRFN\ProjSrc\SrcChartEx\ChartAddIn\ChartDataListViewerAddIn\Include_Chart\Conversion.h

; 27   : 		{	m_hOcxWnd = p_hOcxWnd;	m_eChartMode = p_eChartMode;	}

  004af	89 45 b8	 mov	 DWORD PTR $T3[ebp], eax
; File D:\git\src\IBK\IBK_DRFN\ProjSrc\SrcChartEx\ChartAddIn\ChartDataListViewerAddIn\ChartDataListViewerAddIn\DlgDataListViewer.cpp

; 1498 : 							strv = CDataConversion( m_hOcxWnd, m_eChartMode).GetStringFormatTrans(strv, pData->m_strPacketType);

  004b2	8d 45 08	 lea	 eax, DWORD PTR _strv$25[ebp]
  004b5	50		 push	 eax
  004b6	8d 45 d4	 lea	 eax, DWORD PTR $T11[ebp]
; File D:\git\src\IBK\IBK_DRFN\ProjSrc\SrcChartEx\ChartAddIn\ChartDataListViewerAddIn\Include_Chart\Conversion.h

; 27   : 		{	m_hOcxWnd = p_hOcxWnd;	m_eChartMode = p_eChartMode;	}

  004b9	89 4d bc	 mov	 DWORD PTR $T3[ebp+4], ecx
; File D:\git\src\IBK\IBK_DRFN\ProjSrc\SrcChartEx\ChartAddIn\ChartDataListViewerAddIn\ChartDataListViewerAddIn\DlgDataListViewer.cpp

; 1498 : 							strv = CDataConversion( m_hOcxWnd, m_eChartMode).GetStringFormatTrans(strv, pData->m_strPacketType);

  004bc	50		 push	 eax
  004bd	8d 4d b8	 lea	 ecx, DWORD PTR $T3[ebp]
  004c0	e8 00 00 00 00	 call	 ?GetStringFormatTrans@CDataConversion@@QAE?AV?$CStringT@DV?$StrTraitMFC_DLL@DV?$ChTraitsCRT@D@ATL@@@@@ATL@@ABV23@0@Z ; CDataConversion::GetStringFormatTrans
  004c5	50		 push	 eax
  004c6	8d 4d 08	 lea	 ecx, DWORD PTR _strv$25[ebp]
  004c9	c6 45 fc 10	 mov	 BYTE PTR __$EHRec$[ebp+8], 16 ; 00000010H
  004cd	ff 15 00 00 00
	00		 call	 DWORD PTR __imp_??4?$CStringT@DV?$StrTraitMFC_DLL@DV?$ChTraitsCRT@D@ATL@@@@@ATL@@QAEAAV01@ABV01@@Z
  004d3	8d 4d d4	 lea	 ecx, DWORD PTR $T11[ebp]
$LN125@OnGetdispi:

; 1499 : 							//strv = CommaStr(strv);
; 1500 : 					}
; 1501 : 					// 2011.01.24 by SYS <<
; 1502 : 					lstrcpy(pItem->pszText, strv);

  004d6	ff 15 00 00 00
	00		 call	 DWORD PTR __imp_??1?$CStringT@DV?$StrTraitMFC_DLL@DV?$ChTraitsCRT@D@ATL@@@@@ATL@@QAE@XZ
  004dc	ff 75 08	 push	 DWORD PTR _strv$25[ebp]
  004df	ff 77 20	 push	 DWORD PTR [edi+32]
  004e2	ff 15 00 00 00
	00		 call	 DWORD PTR __imp__lstrcpyA@8

; 1503 : 
; 1504 : 				}

  004e8	8d 4d 08	 lea	 ecx, DWORD PTR _strv$25[ebp]
  004eb	c6 45 fc 02	 mov	 BYTE PTR __$EHRec$[ebp+8], 2
  004ef	ff 15 00 00 00
	00		 call	 DWORD PTR __imp_??1?$CStringT@DV?$StrTraitMFC_DLL@DV?$ChTraitsCRT@D@ATL@@@@@ATL@@QAE@XZ
  004f5	eb 0e		 jmp	 SHORT $LN19@OnGetdispi
$LN18@OnGetdispi:

; 1505 : 				else
; 1506 : 				{
; 1507 : 					lstrcpy(pItem->pszText, "N/A");

  004f7	68 00 00 00 00	 push	 OFFSET ??_C@_03HPADHAHE@N?1A@
  004fc	ff 77 20	 push	 DWORD PTR [edi+32]
  004ff	ff 15 00 00 00
	00		 call	 DWORD PTR __imp__lstrcpyA@8
$LN19@OnGetdispi:

; 1508 : 				}
; 1509 : 			}
; 1510 : 			pPacketheader->Release();

  00505	8b 4d ec	 mov	 ecx, DWORD PTR _pPacketheader$1$[ebp]
  00508	51		 push	 ecx
  00509	8b 01		 mov	 eax, DWORD PTR [ecx]
  0050b	ff 50 08	 call	 DWORD PTR [eax+8]
$LN11@OnGetdispi:

; 1557 : 	}
; 1558 : 
; 1559 : 	if (pItem->mask & LVIF_STATE)
; 1560 : 	{
; 1561 : 		TRACE("test");
; 1562 : 	}
; 1563 : 
; 1564 : 	*pResult = 0;
; 1565 : }

  0050e	8b 45 0c	 mov	 eax, DWORD PTR _pResult$[ebp]
  00511	c7 00 00 00 00
	00		 mov	 DWORD PTR [eax], 0
$LN72@OnGetdispi:
  00517	8d 4d e4	 lea	 ecx, DWORD PTR _strRQ$[ebp]
  0051a	ff 15 00 00 00
	00		 call	 DWORD PTR __imp_??1?$CStringT@DV?$StrTraitMFC_DLL@DV?$ChTraitsCRT@D@ATL@@@@@ATL@@QAE@XZ
  00520	8d 4d dc	 lea	 ecx, DWORD PTR _strRQs$[ebp]
  00523	ff 15 00 00 00
	00		 call	 DWORD PTR __imp_??1?$CStringT@DV?$StrTraitMFC_DLL@DV?$ChTraitsCRT@D@ATL@@@@@ATL@@QAE@XZ
  00529	e9 bb 01 00 00	 jmp	 $LN66@OnGetdispi
$LN10@OnGetdispi:

; 1511 : 		}
; 1512 : 		else
; 1513 : 		{
; 1514 : 			CString strPacketName = CDataConversion::GetStringData(strPT, ",");

  0052e	68 00 00 00 00	 push	 OFFSET ??_C@_01IHBHIGKO@?0@
  00533	8d 4d e0	 lea	 ecx, DWORD PTR $T15[ebp]
  00536	ff 15 00 00 00
	00		 call	 DWORD PTR __imp_??0?$CStringT@DV?$StrTraitMFC_DLL@DV?$ChTraitsCRT@D@ATL@@@@@ATL@@QAE@PBD@Z
  0053c	6a 01		 push	 1
  0053e	8d 45 e0	 lea	 eax, DWORD PTR $T15[ebp]
  00541	c6 45 fc 11	 mov	 BYTE PTR __$EHRec$[ebp+8], 17 ; 00000011H
  00545	50		 push	 eax
  00546	8d 45 d8	 lea	 eax, DWORD PTR _strPT$[ebp]
  00549	50		 push	 eax
  0054a	8d 45 ec	 lea	 eax, DWORD PTR _strPacketName$21[ebp]
  0054d	50		 push	 eax
  0054e	e8 00 00 00 00	 call	 ?GetStringData@CDataConversion@@SA?AV?$CStringT@DV?$StrTraitMFC_DLL@DV?$ChTraitsCRT@D@ATL@@@@@ATL@@AAV23@ABV23@_N@Z ; CDataConversion::GetStringData
  00553	83 c4 10	 add	 esp, 16			; 00000010H
  00556	8d 4d e0	 lea	 ecx, DWORD PTR $T15[ebp]
  00559	c6 45 fc 13	 mov	 BYTE PTR __$EHRec$[ebp+8], 19 ; 00000013H
  0055d	ff 15 00 00 00
	00		 call	 DWORD PTR __imp_??1?$CStringT@DV?$StrTraitMFC_DLL@DV?$ChTraitsCRT@D@ATL@@@@@ATL@@QAE@XZ

; 1515 : 
; 1516 : 			if((strPacketName.Find("Zig_Index") >= 0) || (strPacketName.Find("CLC_") >= 0))

  00563	6a 00		 push	 0
  00565	68 00 00 00 00	 push	 OFFSET ??_C@_09FONLIOOC@Zig_Index@
  0056a	8d 4d ec	 lea	 ecx, DWORD PTR _strPacketName$21[ebp]
  0056d	ff 15 00 00 00
	00		 call	 DWORD PTR __imp_?Find@?$CStringT@DV?$StrTraitMFC_DLL@DV?$ChTraitsCRT@D@ATL@@@@@ATL@@QBEHPBDH@Z
  00573	85 c0		 test	 eax, eax
  00575	0f 89 4e 01 00
	00		 jns	 $LN34@OnGetdispi
  0057b	6a 00		 push	 0
  0057d	68 00 00 00 00	 push	 OFFSET ??_C@_0L@EJDGIBBA@CLC_?F?w?$MA?N?F?$KO@
  00582	8d 4d ec	 lea	 ecx, DWORD PTR _strPacketName$21[ebp]
  00585	ff 15 00 00 00
	00		 call	 DWORD PTR __imp_?Find@?$CStringT@DV?$StrTraitMFC_DLL@DV?$ChTraitsCRT@D@ATL@@@@@ATL@@QBEHPBDH@Z
  0058b	85 c0		 test	 eax, eax
  0058d	0f 89 36 01 00
	00		 jns	 $LN34@OnGetdispi

; 1523 : 			if(pData->m_strPacketType == _MTEXT(C6_CHARACTER))

  00593	a1 54 00 00 00	 mov	 eax, DWORD PTR ?g_iMetaTable@@3VIMetaTable@@A+84
  00598	8d 4e 0c	 lea	 ecx, DWORD PTR [esi+12]
; File C:\Program Files (x86)\Microsoft Visual Studio\2019\Community\VC\Tools\MSVC\14.29.30133\atlmfc\include\cstringt.h

; 2486 : 		return(str1.Compare(psz2) == 0);

  0059b	ff b0 60 09 00
	00		 push	 DWORD PTR [eax+2400]
  005a1	ff 15 00 00 00
	00		 call	 DWORD PTR __imp_?Compare@?$CStringT@DV?$StrTraitMFC_DLL@DV?$ChTraitsCRT@D@ATL@@@@@ATL@@QBEHPBD@Z
  005a7	85 c0		 test	 eax, eax
; File D:\git\src\IBK\IBK_DRFN\ProjSrc\SrcChartEx\ChartAddIn\ChartDataListViewerAddIn\ChartDataListViewerAddIn\DlgDataListViewer.cpp

; 1523 : 			if(pData->m_strPacketType == _MTEXT(C6_CHARACTER))

  005a9	75 61		 jne	 SHORT $LN35@OnGetdispi

; 1524 : 			{
; 1525 : 				pos2 = pData->m_pistrDataList->FindIndex(nRowIndex);

  005ab	8b 4e 10	 mov	 ecx, DWORD PTR [esi+16]
  005ae	ff 75 f0	 push	 DWORD PTR _nRowIndex$1$[ebp]
  005b1	8b 01		 mov	 eax, DWORD PTR [ecx]
  005b3	ff 50 5c	 call	 DWORD PTR [eax+92]

; 1526 : 				if(!pos2)

  005b6	85 c0		 test	 eax, eax
  005b8	0f 84 0b 01 00
	00		 je	 $LN34@OnGetdispi
; File D:\git\src\IBK\IBK_DRFN\ProjSrc\SrcChartEx\ChartAddIn\ChartDataListViewerAddIn\Include_AddIn_134221\I134221\_IString.h

; 34   : 		m_szData = NULL;

  005be	c7 45 d0 00 00
	00 00		 mov	 DWORD PTR _szStr$8[ebp], 0

; 35   : 		m_pIStrData = NULL;

  005c5	c7 45 d4 00 00
	00 00		 mov	 DWORD PTR _szStr$8[ebp+4], 0
; File D:\git\src\IBK\IBK_DRFN\ProjSrc\SrcChartEx\ChartAddIn\ChartDataListViewerAddIn\ChartDataListViewerAddIn\DlgDataListViewer.cpp

; 1532 : 				pData->m_pistrDataList->GetAt( pos2, szStr);

  005cc	8b 4e 10	 mov	 ecx, DWORD PTR [esi+16]
  005cf	8d 75 d0	 lea	 esi, DWORD PTR _szStr$8[ebp]
  005d2	56		 push	 esi
  005d3	50		 push	 eax
  005d4	c6 45 fc 14	 mov	 BYTE PTR __$EHRec$[ebp+8], 20 ; 00000014H
  005d8	8b 11		 mov	 edx, DWORD PTR [ecx]
  005da	ff 52 44	 call	 DWORD PTR [edx+68]

; 1533 : 				lstrcpy(pItem->pszText, szStr);

  005dd	ff 75 d0	 push	 DWORD PTR _szStr$8[ebp]
  005e0	ff 77 20	 push	 DWORD PTR [edi+32]
  005e3	ff 15 00 00 00
	00		 call	 DWORD PTR __imp__lstrcpyA@8
; File D:\git\src\IBK\IBK_DRFN\ProjSrc\SrcChartEx\ChartAddIn\ChartDataListViewerAddIn\Include_AddIn_134221\I134221\_IString.h

; 45   : 		if( m_pIStrData)

  005e9	8b 4d d4	 mov	 ecx, DWORD PTR _szStr$8[ebp+4]
  005ec	c6 45 fc 15	 mov	 BYTE PTR __$EHRec$[ebp+8], 21 ; 00000015H
  005f0	85 c9		 test	 ecx, ecx
  005f2	0f 84 c3 00 00
	00		 je	 $LN36@OnGetdispi

; 46   : 		{
; 47   : 			m_pIStrData->Release();

  005f8	8b 01		 mov	 eax, DWORD PTR [ecx]
  005fa	51		 push	 ecx
  005fb	ff 50 08	 call	 DWORD PTR [eax+8]
; File D:\git\src\IBK\IBK_DRFN\ProjSrc\SrcChartEx\ChartAddIn\ChartDataListViewerAddIn\ChartDataListViewerAddIn\DlgDataListViewer.cpp

; 1556 : 		}

  005fe	8d 4d ec	 lea	 ecx, DWORD PTR _strPacketName$21[ebp]
  00601	ff 15 00 00 00
	00		 call	 DWORD PTR __imp_??1?$CStringT@DV?$StrTraitMFC_DLL@DV?$ChTraitsCRT@D@ATL@@@@@ATL@@QAE@XZ
  00607	e9 02 ff ff ff	 jmp	 $LN11@OnGetdispi
$LN35@OnGetdispi:

; 1538 : 				if( (strPacketName == _MTEXT( C2_OVERHANGING_SUPPLY)) && (pItem->iItem >= pData->m_lDataCount - 2) )

  0060c	a1 54 00 00 00	 mov	 eax, DWORD PTR ?g_iMetaTable@@3VIMetaTable@@A+84
; File C:\Program Files (x86)\Microsoft Visual Studio\2019\Community\VC\Tools\MSVC\14.29.30133\atlmfc\include\cstringt.h

; 2486 : 		return(str1.Compare(psz2) == 0);

  00611	8d 4d ec	 lea	 ecx, DWORD PTR _strPacketName$21[ebp]
  00614	ff b0 34 03 00
	00		 push	 DWORD PTR [eax+820]
  0061a	ff 15 00 00 00
	00		 call	 DWORD PTR __imp_?Compare@?$CStringT@DV?$StrTraitMFC_DLL@DV?$ChTraitsCRT@D@ATL@@@@@ATL@@QBEHPBD@Z
  00620	85 c0		 test	 eax, eax
; File D:\git\src\IBK\IBK_DRFN\ProjSrc\SrcChartEx\ChartAddIn\ChartDataListViewerAddIn\ChartDataListViewerAddIn\DlgDataListViewer.cpp

; 1538 : 				if( (strPacketName == _MTEXT( C2_OVERHANGING_SUPPLY)) && (pItem->iItem >= pData->m_lDataCount - 2) )

  00622	75 0f		 jne	 SHORT $LN38@OnGetdispi
  00624	8b 46 04	 mov	 eax, DWORD PTR [esi+4]
  00627	83 e8 02	 sub	 eax, 2
  0062a	39 47 10	 cmp	 DWORD PTR [edi+16], eax
  0062d	0f 8d 96 00 00
	00		 jge	 $LN34@OnGetdispi
$LN38@OnGetdispi:

; 1539 : 				{
; 1540 : 					*pResult = 0;
; 1541 : 					return;
; 1542 : 				}
; 1543 : 				pos2 = pData->m_pidDataList->FindIndex(nRowIndex);

  00633	8b 4e 14	 mov	 ecx, DWORD PTR [esi+20]
  00636	ff 75 f0	 push	 DWORD PTR _nRowIndex$1$[ebp]
  00639	8b 01		 mov	 eax, DWORD PTR [ecx]
  0063b	ff 50 5c	 call	 DWORD PTR [eax+92]

; 1544 : 				if(!pos2)

  0063e	85 c0		 test	 eax, eax
  00640	0f 84 83 00 00
	00		 je	 $LN34@OnGetdispi

; 1548 : 				}
; 1549 : 				pData->m_pidDataList->GetAt(pos2, value);

  00646	8b 4e 14	 mov	 ecx, DWORD PTR [esi+20]
  00649	8d 7d c8	 lea	 edi, DWORD PTR _value$[ebp]
  0064c	57		 push	 edi
  0064d	50		 push	 eax
  0064e	8b 11		 mov	 edx, DWORD PTR [ecx]
  00650	ff 52 44	 call	 DWORD PTR [edx+68]

; 1550 : 				CString strv = CDataConversion::DoubleToString(value);

  00653	8b c7		 mov	 eax, edi
  00655	50		 push	 eax
  00656	8d 45 e8	 lea	 eax, DWORD PTR _strv$18[ebp]
  00659	50		 push	 eax
  0065a	e8 00 00 00 00	 call	 ?DoubleToString@CDataConversion@@SA?AV?$CStringT@DV?$StrTraitMFC_DLL@DV?$ChTraitsCRT@D@ATL@@@@@ATL@@ABN@Z ; CDataConversion::DoubleToString
  0065f	83 c4 08	 add	 esp, 8
; File D:\git\src\IBK\IBK_DRFN\ProjSrc\SrcChartEx\ChartAddIn\ChartDataListViewerAddIn\Include_Chart\Conversion.h

; 27   : 		{	m_hOcxWnd = p_hOcxWnd;	m_eChartMode = p_eChartMode;	}

  00662	8b 83 48 04 00
	00		 mov	 eax, DWORD PTR [ebx+1096]
; File D:\git\src\IBK\IBK_DRFN\ProjSrc\SrcChartEx\ChartAddIn\ChartDataListViewerAddIn\ChartDataListViewerAddIn\DlgDataListViewer.cpp

; 1552 : 				strv = CDataConversion( m_hOcxWnd, m_eChartMode).GetStringFormatTrans(strv, pData->m_strPacketType);

  00668	8b 8b 4c 04 00
	00		 mov	 ecx, DWORD PTR [ebx+1100]
; File D:\git\src\IBK\IBK_DRFN\ProjSrc\SrcChartEx\ChartAddIn\ChartDataListViewerAddIn\Include_Chart\Conversion.h

; 27   : 		{	m_hOcxWnd = p_hOcxWnd;	m_eChartMode = p_eChartMode;	}

  0066e	89 45 b8	 mov	 DWORD PTR $T2[ebp], eax
; File D:\git\src\IBK\IBK_DRFN\ProjSrc\SrcChartEx\ChartAddIn\ChartDataListViewerAddIn\ChartDataListViewerAddIn\DlgDataListViewer.cpp

; 1552 : 				strv = CDataConversion( m_hOcxWnd, m_eChartMode).GetStringFormatTrans(strv, pData->m_strPacketType);

  00671	8d 46 0c	 lea	 eax, DWORD PTR [esi+12]
  00674	50		 push	 eax
  00675	8d 45 e8	 lea	 eax, DWORD PTR _strv$18[ebp]
; File D:\git\src\IBK\IBK_DRFN\ProjSrc\SrcChartEx\ChartAddIn\ChartDataListViewerAddIn\Include_Chart\Conversion.h

; 27   : 		{	m_hOcxWnd = p_hOcxWnd;	m_eChartMode = p_eChartMode;	}

  00678	89 4d bc	 mov	 DWORD PTR $T2[ebp+4], ecx
; File D:\git\src\IBK\IBK_DRFN\ProjSrc\SrcChartEx\ChartAddIn\ChartDataListViewerAddIn\ChartDataListViewerAddIn\DlgDataListViewer.cpp

; 1552 : 				strv = CDataConversion( m_hOcxWnd, m_eChartMode).GetStringFormatTrans(strv, pData->m_strPacketType);

  0067b	50		 push	 eax
  0067c	8d 45 d4	 lea	 eax, DWORD PTR $T10[ebp]
  0067f	c6 45 fc 16	 mov	 BYTE PTR __$EHRec$[ebp+8], 22 ; 00000016H
  00683	50		 push	 eax
  00684	8d 4d b8	 lea	 ecx, DWORD PTR $T2[ebp]
  00687	e8 00 00 00 00	 call	 ?GetStringFormatTrans@CDataConversion@@QAE?AV?$CStringT@DV?$StrTraitMFC_DLL@DV?$ChTraitsCRT@D@ATL@@@@@ATL@@ABV23@0@Z ; CDataConversion::GetStringFormatTrans
  0068c	50		 push	 eax
  0068d	8d 4d e8	 lea	 ecx, DWORD PTR _strv$18[ebp]
  00690	c6 45 fc 17	 mov	 BYTE PTR __$EHRec$[ebp+8], 23 ; 00000017H
  00694	ff 15 00 00 00
	00		 call	 DWORD PTR __imp_??4?$CStringT@DV?$StrTraitMFC_DLL@DV?$ChTraitsCRT@D@ATL@@@@@ATL@@QAEAAV01@ABV01@@Z
  0069a	8d 4d d4	 lea	 ecx, DWORD PTR $T10[ebp]
  0069d	ff 15 00 00 00
	00		 call	 DWORD PTR __imp_??1?$CStringT@DV?$StrTraitMFC_DLL@DV?$ChTraitsCRT@D@ATL@@@@@ATL@@QAE@XZ

; 1553 : 				//strv = CommaStr(strv);
; 1554 : 				lstrcpy(pItem->pszText, strv);

  006a3	8b 7d 08	 mov	 edi, DWORD PTR _pNMHDR$[ebp]
  006a6	ff 75 e8	 push	 DWORD PTR _strv$18[ebp]
  006a9	ff 77 20	 push	 DWORD PTR [edi+32]
  006ac	ff 15 00 00 00
	00		 call	 DWORD PTR __imp__lstrcpyA@8

; 1555 : 			}

  006b2	8d 4d e8	 lea	 ecx, DWORD PTR _strv$18[ebp]
  006b5	ff 15 00 00 00
	00		 call	 DWORD PTR __imp_??1?$CStringT@DV?$StrTraitMFC_DLL@DV?$ChTraitsCRT@D@ATL@@@@@ATL@@QAE@XZ
$LN36@OnGetdispi:

; 1556 : 		}

  006bb	8d 4d ec	 lea	 ecx, DWORD PTR _strPacketName$21[ebp]
  006be	ff 15 00 00 00
	00		 call	 DWORD PTR __imp_??1?$CStringT@DV?$StrTraitMFC_DLL@DV?$ChTraitsCRT@D@ATL@@@@@ATL@@QAE@XZ
  006c4	e9 45 fe ff ff	 jmp	 $LN11@OnGetdispi
$LN34@OnGetdispi:

; 1517 : 			{
; 1518 : 				*pResult = 0;

  006c9	8b 45 0c	 mov	 eax, DWORD PTR _pResult$[ebp]

; 1545 : 				{
; 1546 : 					*pResult = 0;
; 1547 : 					return;

  006cc	8d 4d ec	 lea	 ecx, DWORD PTR _strPacketName$21[ebp]
  006cf	c7 00 00 00 00
	00		 mov	 DWORD PTR [eax], 0
  006d5	ff 15 00 00 00
	00		 call	 DWORD PTR __imp_??1?$CStringT@DV?$StrTraitMFC_DLL@DV?$ChTraitsCRT@D@ATL@@@@@ATL@@QAE@XZ
  006db	e9 37 fe ff ff	 jmp	 $LN72@OnGetdispi
$LN65@OnGetdispi:
  006e0	8b 45 0c	 mov	 eax, DWORD PTR _pResult$[ebp]
  006e3	c7 00 00 00 00
	00		 mov	 DWORD PTR [eax], 0
$LN66@OnGetdispi:

; 1557 : 	}
; 1558 : 
; 1559 : 	if (pItem->mask & LVIF_STATE)
; 1560 : 	{
; 1561 : 		TRACE("test");
; 1562 : 	}
; 1563 : 
; 1564 : 	*pResult = 0;
; 1565 : }

  006e9	8d 4d d8	 lea	 ecx, DWORD PTR _strPT$[ebp]
  006ec	ff 15 00 00 00
	00		 call	 DWORD PTR __imp_??1?$CStringT@DV?$StrTraitMFC_DLL@DV?$ChTraitsCRT@D@ATL@@@@@ATL@@QAE@XZ
  006f2	8b 4d f4	 mov	 ecx, DWORD PTR __$EHRec$[ebp]
  006f5	64 89 0d 00 00
	00 00		 mov	 DWORD PTR fs:0, ecx
  006fc	59		 pop	 ecx
  006fd	5f		 pop	 edi
  006fe	5e		 pop	 esi
  006ff	5b		 pop	 ebx
  00700	8b e5		 mov	 esp, ebp
  00702	5d		 pop	 ebp
  00703	c2 08 00	 ret	 8
  00706	66 90		 npad	 2
$LN120@OnGetdispi:
  00708	00 00 00 00	 DD	 $LN22@OnGetdispi
  0070c	00 00 00 00	 DD	 $LN24@OnGetdispi
  00710	00 00 00 00	 DD	 $LN25@OnGetdispi
  00714	00 00 00 00	 DD	 $LN27@OnGetdispi
  00718	00 00 00 00	 DD	 $LN2@OnGetdispi
$LN119@OnGetdispi:
  0071c	00		 DB	 0
  0071d	00		 DB	 0
  0071e	01		 DB	 1
  0071f	02		 DB	 2
  00720	03		 DB	 3
  00721	02		 DB	 2
  00722	04		 DB	 4
  00723	04		 DB	 4
  00724	04		 DB	 4
  00725	04		 DB	 4
  00726	04		 DB	 4
  00727	03		 DB	 3
_TEXT	ENDS
;	COMDAT text$x
text$x	SEGMENT
__unwindfunclet$?OnGetdispinfo@CDlgDataListViewer@@IAEXPAUtagNMHDR@@PAJ@Z$0:
  00000	8d 4d d8	 lea	 ecx, DWORD PTR _strPT$[ebp]
  00003	ff 25 00 00 00
	00		 jmp	 DWORD PTR __imp_??1?$CStringT@DV?$StrTraitMFC_DLL@DV?$ChTraitsCRT@D@ATL@@@@@ATL@@QAE@XZ
__unwindfunclet$?OnGetdispinfo@CDlgDataListViewer@@IAEXPAUtagNMHDR@@PAJ@Z$1:
  00009	8d 4d dc	 lea	 ecx, DWORD PTR _strRQs$[ebp]
  0000c	ff 25 00 00 00
	00		 jmp	 DWORD PTR __imp_??1?$CStringT@DV?$StrTraitMFC_DLL@DV?$ChTraitsCRT@D@ATL@@@@@ATL@@QAE@XZ
__unwindfunclet$?OnGetdispinfo@CDlgDataListViewer@@IAEXPAUtagNMHDR@@PAJ@Z$2:
  00012	8d 4d e4	 lea	 ecx, DWORD PTR _strRQ$[ebp]
  00015	ff 25 00 00 00
	00		 jmp	 DWORD PTR __imp_??1?$CStringT@DV?$StrTraitMFC_DLL@DV?$ChTraitsCRT@D@ATL@@@@@ATL@@QAE@XZ
__unwindfunclet$?OnGetdispinfo@CDlgDataListViewer@@IAEXPAUtagNMHDR@@PAJ@Z$3:
  0001b	8d 4d e0	 lea	 ecx, DWORD PTR $T17[ebp]
  0001e	ff 25 00 00 00
	00		 jmp	 DWORD PTR __imp_??1?$CStringT@DV?$StrTraitMFC_DLL@DV?$ChTraitsCRT@D@ATL@@@@@ATL@@QAE@XZ
__unwindfunclet$?OnGetdispinfo@CDlgDataListViewer@@IAEXPAUtagNMHDR@@PAJ@Z$4:
  00024	8d 4d ec	 lea	 ecx, DWORD PTR $T22[ebp]
  00027	ff 25 00 00 00
	00		 jmp	 DWORD PTR __imp_??1?$CStringT@DV?$StrTraitMFC_DLL@DV?$ChTraitsCRT@D@ATL@@@@@ATL@@QAE@XZ
__unwindfunclet$?OnGetdispinfo@CDlgDataListViewer@@IAEXPAUtagNMHDR@@PAJ@Z$5:
  0002d	8d 4d d0	 lea	 ecx, DWORD PTR _szStr$9[ebp]
  00030	e9 00 00 00 00	 jmp	 ??1ILPCSTR134221@@QAE@XZ ; ILPCSTR134221::~ILPCSTR134221
__unwindfunclet$?OnGetdispinfo@CDlgDataListViewer@@IAEXPAUtagNMHDR@@PAJ@Z$6:
  00035	8d 4d 08	 lea	 ecx, DWORD PTR _strv$25[ebp]
  00038	ff 25 00 00 00
	00		 jmp	 DWORD PTR __imp_??1?$CStringT@DV?$StrTraitMFC_DLL@DV?$ChTraitsCRT@D@ATL@@@@@ATL@@QAE@XZ
__unwindfunclet$?OnGetdispinfo@CDlgDataListViewer@@IAEXPAUtagNMHDR@@PAJ@Z$7:
  0003e	8d 4d f0	 lea	 ecx, DWORD PTR _strFormat$24[ebp]
  00041	ff 25 00 00 00
	00		 jmp	 DWORD PTR __imp_??1?$CStringT@DV?$StrTraitMFC_DLL@DV?$ChTraitsCRT@D@ATL@@@@@ATL@@QAE@XZ
__unwindfunclet$?OnGetdispinfo@CDlgDataListViewer@@IAEXPAUtagNMHDR@@PAJ@Z$8:
  00047	8d 4d e8	 lea	 ecx, DWORD PTR $T20[ebp]
  0004a	ff 25 00 00 00
	00		 jmp	 DWORD PTR __imp_??1?$CStringT@DV?$StrTraitMFC_DLL@DV?$ChTraitsCRT@D@ATL@@@@@ATL@@QAE@XZ
__unwindfunclet$?OnGetdispinfo@CDlgDataListViewer@@IAEXPAUtagNMHDR@@PAJ@Z$9:
  00050	8d 4d e0	 lea	 ecx, DWORD PTR $T16[ebp]
  00053	ff 25 00 00 00
	00		 jmp	 DWORD PTR __imp_??1?$CStringT@DV?$StrTraitMFC_DLL@DV?$ChTraitsCRT@D@ATL@@@@@ATL@@QAE@XZ
__unwindfunclet$?OnGetdispinfo@CDlgDataListViewer@@IAEXPAUtagNMHDR@@PAJ@Z$10:
  00059	8d 4d d4	 lea	 ecx, DWORD PTR $T14[ebp]
  0005c	ff 25 00 00 00
	00		 jmp	 DWORD PTR __imp_??1?$CStringT@DV?$StrTraitMFC_DLL@DV?$ChTraitsCRT@D@ATL@@@@@ATL@@QAE@XZ
__unwindfunclet$?OnGetdispinfo@CDlgDataListViewer@@IAEXPAUtagNMHDR@@PAJ@Z$11:
  00062	8d 4d d4	 lea	 ecx, DWORD PTR $T13[ebp]
  00065	ff 25 00 00 00
	00		 jmp	 DWORD PTR __imp_??1?$CStringT@DV?$StrTraitMFC_DLL@DV?$ChTraitsCRT@D@ATL@@@@@ATL@@QAE@XZ
__unwindfunclet$?OnGetdispinfo@CDlgDataListViewer@@IAEXPAUtagNMHDR@@PAJ@Z$12:
  0006b	8d 4d f0	 lea	 ecx, DWORD PTR $T23[ebp]
  0006e	ff 25 00 00 00
	00		 jmp	 DWORD PTR __imp_??1?$CStringT@DV?$StrTraitMFC_DLL@DV?$ChTraitsCRT@D@ATL@@@@@ATL@@QAE@XZ
__unwindfunclet$?OnGetdispinfo@CDlgDataListViewer@@IAEXPAUtagNMHDR@@PAJ@Z$13:
  00074	8d 4d e8	 lea	 ecx, DWORD PTR $T19[ebp]
  00077	ff 25 00 00 00
	00		 jmp	 DWORD PTR __imp_??1?$CStringT@DV?$StrTraitMFC_DLL@DV?$ChTraitsCRT@D@ATL@@@@@ATL@@QAE@XZ
__unwindfunclet$?OnGetdispinfo@CDlgDataListViewer@@IAEXPAUtagNMHDR@@PAJ@Z$14:
  0007d	8d 4d d4	 lea	 ecx, DWORD PTR $T12[ebp]
  00080	ff 25 00 00 00
	00		 jmp	 DWORD PTR __imp_??1?$CStringT@DV?$StrTraitMFC_DLL@DV?$ChTraitsCRT@D@ATL@@@@@ATL@@QAE@XZ
__unwindfunclet$?OnGetdispinfo@CDlgDataListViewer@@IAEXPAUtagNMHDR@@PAJ@Z$15:
  00086	8d 4d d4	 lea	 ecx, DWORD PTR $T11[ebp]
  00089	ff 25 00 00 00
	00		 jmp	 DWORD PTR __imp_??1?$CStringT@DV?$StrTraitMFC_DLL@DV?$ChTraitsCRT@D@ATL@@@@@ATL@@QAE@XZ
__unwindfunclet$?OnGetdispinfo@CDlgDataListViewer@@IAEXPAUtagNMHDR@@PAJ@Z$16:
  0008f	8d 4d e0	 lea	 ecx, DWORD PTR $T15[ebp]
  00092	ff 25 00 00 00
	00		 jmp	 DWORD PTR __imp_??1?$CStringT@DV?$StrTraitMFC_DLL@DV?$ChTraitsCRT@D@ATL@@@@@ATL@@QAE@XZ
__unwindfunclet$?OnGetdispinfo@CDlgDataListViewer@@IAEXPAUtagNMHDR@@PAJ@Z$17:
  00098	8d 4d ec	 lea	 ecx, DWORD PTR _strPacketName$21[ebp]
  0009b	ff 25 00 00 00
	00		 jmp	 DWORD PTR __imp_??1?$CStringT@DV?$StrTraitMFC_DLL@DV?$ChTraitsCRT@D@ATL@@@@@ATL@@QAE@XZ
__unwindfunclet$?OnGetdispinfo@CDlgDataListViewer@@IAEXPAUtagNMHDR@@PAJ@Z$18:
  000a1	8d 4d d0	 lea	 ecx, DWORD PTR _szStr$8[ebp]
  000a4	e9 00 00 00 00	 jmp	 ??1ILPCSTR134221@@QAE@XZ ; ILPCSTR134221::~ILPCSTR134221
__unwindfunclet$?OnGetdispinfo@CDlgDataListViewer@@IAEXPAUtagNMHDR@@PAJ@Z$19:
  000a9	8d 4d e8	 lea	 ecx, DWORD PTR _strv$18[ebp]
  000ac	ff 25 00 00 00
	00		 jmp	 DWORD PTR __imp_??1?$CStringT@DV?$StrTraitMFC_DLL@DV?$ChTraitsCRT@D@ATL@@@@@ATL@@QAE@XZ
__unwindfunclet$?OnGetdispinfo@CDlgDataListViewer@@IAEXPAUtagNMHDR@@PAJ@Z$20:
  000b2	8d 4d d4	 lea	 ecx, DWORD PTR $T10[ebp]
  000b5	ff 25 00 00 00
	00		 jmp	 DWORD PTR __imp_??1?$CStringT@DV?$StrTraitMFC_DLL@DV?$ChTraitsCRT@D@ATL@@@@@ATL@@QAE@XZ
  000bb	cc		 int	 3
  000bc	cc		 int	 3
  000bd	cc		 int	 3
  000be	cc		 int	 3
  000bf	cc		 int	 3
__ehhandler$?OnGetdispinfo@CDlgDataListViewer@@IAEXPAUtagNMHDR@@PAJ@Z:
  000c0	90		 npad	 1
  000c1	90		 npad	 1
  000c2	8b 54 24 08	 mov	 edx, DWORD PTR [esp+8]
  000c6	8d 42 0c	 lea	 eax, DWORD PTR [edx+12]
  000c9	8b 4a b4	 mov	 ecx, DWORD PTR [edx-76]
  000cc	33 c8		 xor	 ecx, eax
  000ce	e8 00 00 00 00	 call	 @__security_check_cookie@4
  000d3	b8 00 00 00 00	 mov	 eax, OFFSET __ehfuncinfo$?OnGetdispinfo@CDlgDataListViewer@@IAEXPAUtagNMHDR@@PAJ@Z
  000d8	e9 00 00 00 00	 jmp	 ___CxxFrameHandler3
text$x	ENDS
?OnGetdispinfo@CDlgDataListViewer@@IAEXPAUtagNMHDR@@PAJ@Z ENDP ; CDlgDataListViewer::OnGetdispinfo
; Function compile flags: /Ogtp
; File D:\git\src\IBK\IBK_DRFN\ProjSrc\SrcChartEx\ChartAddIn\ChartDataListViewerAddIn\ChartDataListViewerAddIn\DlgDataListViewer.cpp
; File C:\Program Files (x86)\Microsoft Visual Studio\2019\Community\VC\Tools\MSVC\14.29.30133\atlmfc\include\afxwin2.inl
; File D:\git\src\IBK\IBK_DRFN\ProjSrc\SrcChartEx\ChartAddIn\ChartDataListViewerAddIn\ChartDataListViewerAddIn\DlgDataListViewer.cpp
; File C:\Program Files (x86)\Microsoft Visual Studio\2019\Community\VC\Tools\MSVC\14.29.30133\atlmfc\include\afxwin2.inl
; File D:\git\src\IBK\IBK_DRFN\ProjSrc\SrcChartEx\ChartAddIn\ChartDataListViewerAddIn\ChartDataListViewerAddIn\DlgDataListViewer.cpp
; File C:\Program Files (x86)\Microsoft Visual Studio\2019\Community\VC\Tools\MSVC\14.29.30133\atlmfc\include\cstringt.h
; File D:\git\src\IBK\IBK_DRFN\ProjSrc\SrcChartEx\ChartAddIn\ChartDataListViewerAddIn\ChartDataListViewerAddIn\DlgDataListViewer.cpp
; File C:\Program Files (x86)\Microsoft Visual Studio\2019\Community\VC\Tools\MSVC\14.29.30133\atlmfc\include\cstringt.h
; File C:\Program Files (x86)\Microsoft Visual Studio\2019\Community\VC\Tools\MSVC\14.29.30133\atlmfc\include\atlsimpstr.h
; File C:\Program Files (x86)\Microsoft Visual Studio\2019\Community\VC\Tools\MSVC\14.29.30133\atlmfc\include\cstringt.h
; File D:\git\src\IBK\IBK_DRFN\ProjSrc\SrcChartEx\ChartAddIn\ChartDataListViewerAddIn\ChartDataListViewerAddIn\DlgDataListViewer.cpp
; File C:\Program Files (x86)\Microsoft Visual Studio\2019\Community\VC\Tools\MSVC\14.29.30133\atlmfc\include\atlsimpstr.h
; File D:\git\src\IBK\IBK_DRFN\ProjSrc\SrcChartEx\ChartAddIn\ChartDataListViewerAddIn\ChartDataListViewerAddIn\DlgDataListViewer.cpp
; File C:\Program Files (x86)\Microsoft Visual Studio\2019\Community\VC\Tools\MSVC\14.29.30133\atlmfc\include\atlsimpstr.h
; File D:\git\src\IBK\IBK_DRFN\ProjSrc\SrcChartEx\ChartAddIn\ChartDataListViewerAddIn\ChartDataListViewerAddIn\DlgDataListViewer.cpp
;	COMDAT ?OnClipboard@CDlgDataListViewer@@IAEXXZ
_TEXT	SEGMENT
_nRowCount$1$ = -48					; size = 4
_this$1$ = -44						; size = 4
tv333 = -40						; size = 4
$T2 = -36						; size = 4
$T3 = -32						; size = 4
tv334 = -28						; size = 4
_nPacketCount$1$ = -28					; size = 4
_i$1$ = -24						; size = 4
$T4 = -24						; size = 4
$T5 = -20						; size = 4
_source$ = -16						; size = 4
__$EHRec$ = -12						; size = 12
?OnClipboard@CDlgDataListViewer@@IAEXXZ PROC		; CDlgDataListViewer::OnClipboard, COMDAT
; _this$ = ecx

; 1345 : {

  00000	55		 push	 ebp
  00001	8b ec		 mov	 ebp, esp
  00003	6a ff		 push	 -1
  00005	68 00 00 00 00	 push	 __ehhandler$?OnClipboard@CDlgDataListViewer@@IAEXXZ
  0000a	64 a1 00 00 00
	00		 mov	 eax, DWORD PTR fs:0
  00010	50		 push	 eax
  00011	83 ec 24	 sub	 esp, 36			; 00000024H
  00014	53		 push	 ebx
  00015	56		 push	 esi
  00016	57		 push	 edi
  00017	a1 00 00 00 00	 mov	 eax, DWORD PTR ___security_cookie
  0001c	33 c5		 xor	 eax, ebp
  0001e	50		 push	 eax
  0001f	8d 45 f4	 lea	 eax, DWORD PTR __$EHRec$[ebp]
  00022	64 a3 00 00 00
	00		 mov	 DWORD PTR fs:0, eax
  00028	8b f9		 mov	 edi, ecx
  0002a	89 7d d4	 mov	 DWORD PTR _this$1$[ebp], edi
  0002d	33 db		 xor	 ebx, ebx

; 1346 : 	CString source = _T("");

  0002f	8d 4d f0	 lea	 ecx, DWORD PTR _source$[ebp]
  00032	68 00 00 00 00	 push	 OFFSET ??_C@_00CNPNBAHC@@
  00037	89 5d e0	 mov	 DWORD PTR $T3[ebp], ebx
  0003a	ff 15 00 00 00
	00		 call	 DWORD PTR __imp_??0?$CStringT@DV?$StrTraitMFC_DLL@DV?$ChTraitsCRT@D@ATL@@@@@ATL@@QAE@PBD@Z
; File C:\Program Files (x86)\Microsoft Visual Studio\2019\Community\VC\Tools\MSVC\14.29.30133\atlmfc\include\afxwin2.inl

; 231  : 	{ ASSERT(::IsWindow(m_hWnd)); return ::OpenClipboard(m_hWnd); }

  00040	ff 77 20	 push	 DWORD PTR [edi+32]
; File D:\git\src\IBK\IBK_DRFN\ProjSrc\SrcChartEx\ChartAddIn\ChartDataListViewerAddIn\ChartDataListViewerAddIn\DlgDataListViewer.cpp

; 1346 : 	CString source = _T("");

  00043	89 5d fc	 mov	 DWORD PTR __$EHRec$[ebp+8], ebx
; File C:\Program Files (x86)\Microsoft Visual Studio\2019\Community\VC\Tools\MSVC\14.29.30133\atlmfc\include\afxwin2.inl

; 231  : 	{ ASSERT(::IsWindow(m_hWnd)); return ::OpenClipboard(m_hWnd); }

  00046	ff 15 00 00 00
	00		 call	 DWORD PTR __imp__OpenClipboard@4
; File D:\git\src\IBK\IBK_DRFN\ProjSrc\SrcChartEx\ChartAddIn\ChartDataListViewerAddIn\ChartDataListViewerAddIn\DlgDataListViewer.cpp

; 1348 : 	if(OpenClipboard())

  0004c	85 c0		 test	 eax, eax
  0004e	0f 84 54 01 00
	00		 je	 $LN8@OnClipboar

; 1349 : 	{
; 1350 : 		HGLOBAL clipbuffer;
; 1351 : 		char * buffer;
; 1352 : 
; 1353 : 	int nPacketCount = CDataConversion::GetStringDataCount(m_strPacketNames, ",");

  00054	68 00 00 00 00	 push	 OFFSET ??_C@_01IHBHIGKO@?0@
  00059	8d 4d e8	 lea	 ecx, DWORD PTR $T4[ebp]
  0005c	ff 15 00 00 00
	00		 call	 DWORD PTR __imp_??0?$CStringT@DV?$StrTraitMFC_DLL@DV?$ChTraitsCRT@D@ATL@@@@@ATL@@QAE@PBD@Z
  00062	8d 45 e8	 lea	 eax, DWORD PTR $T4[ebp]
  00065	c6 45 fc 01	 mov	 BYTE PTR __$EHRec$[ebp+8], 1
  00069	50		 push	 eax
  0006a	8d b7 c8 03 00
	00		 lea	 esi, DWORD PTR [edi+968]
  00070	56		 push	 esi
  00071	e8 00 00 00 00	 call	 ?GetStringDataCount@CDataConversion@@SAHABV?$CStringT@DV?$StrTraitMFC_DLL@DV?$ChTraitsCRT@D@ATL@@@@@ATL@@0@Z ; CDataConversion::GetStringDataCount
  00076	83 c4 08	 add	 esp, 8
  00079	89 45 e4	 mov	 DWORD PTR _nPacketCount$1$[ebp], eax
  0007c	8d 4d e8	 lea	 ecx, DWORD PTR $T4[ebp]
  0007f	88 5d fc	 mov	 BYTE PTR __$EHRec$[ebp+8], bl
  00082	ff 15 00 00 00
	00		 call	 DWORD PTR __imp_??1?$CStringT@DV?$StrTraitMFC_DLL@DV?$ChTraitsCRT@D@ATL@@@@@ATL@@QAE@XZ

; 1354 : 	int nRowCount = m_pPacketList->GetMaximumDataCount( m_strPacketNames);

  00088	8b 8f c0 03 00
	00		 mov	 ecx, DWORD PTR [edi+960]
  0008e	68 00 00 00 00	 push	 OFFSET ??_C@_01IHBHIGKO@?0@
  00093	ff 36		 push	 DWORD PTR [esi]
  00095	8b 11		 mov	 edx, DWORD PTR [ecx]
  00097	ff 52 38	 call	 DWORD PTR [edx+56]
  0009a	8b c8		 mov	 ecx, eax

; 1355 : 
; 1356 : 		for(int i=0; i<nRowCount; i++ )

  0009c	33 c0		 xor	 eax, eax
  0009e	89 4d d0	 mov	 DWORD PTR _nRowCount$1$[ebp], ecx
  000a1	89 45 e8	 mov	 DWORD PTR _i$1$[ebp], eax
  000a4	85 c9		 test	 ecx, ecx
  000a6	0f 8e b3 00 00
	00		 jle	 $LN3@OnClipboar
  000ac	8b 4d e4	 mov	 ecx, DWORD PTR _nPacketCount$1$[ebp]
  000af	41		 inc	 ecx
  000b0	89 4d e4	 mov	 DWORD PTR tv334[ebp], ecx
$LL4@OnClipboar:

; 1357 : 		{
; 1358 : 			for(int j=0; j<nPacketCount+1; j++)

  000b3	33 f6		 xor	 esi, esi
  000b5	85 c9		 test	 ecx, ecx
  000b7	0f 8e 81 00 00
	00		 jle	 $LN6@OnClipboar
  000bd	8d 8f b8 02 00
	00		 lea	 ecx, DWORD PTR [edi+696]
  000c3	89 4d d8	 mov	 DWORD PTR tv333[ebp], ecx
$LL7@OnClipboar:

; 1360 : 				source += m_ctlList.GetItemText(i, j) + _T("     ");

  000c6	56		 push	 esi
  000c7	50		 push	 eax
  000c8	8d 45 dc	 lea	 eax, DWORD PTR $T2[ebp]
  000cb	50		 push	 eax
  000cc	e8 00 00 00 00	 call	 ?GetItemText@CListCtrl@@QBE?AV?$CStringT@DV?$StrTraitMFC_DLL@DV?$ChTraitsCRT@D@ATL@@@@@ATL@@HH@Z ; CListCtrl::GetItemText
  000d1	8b f8		 mov	 edi, eax
; File C:\Program Files (x86)\Microsoft Visual Studio\2019\Community\VC\Tools\MSVC\14.29.30133\atlmfc\include\cstringt.h

; 2401 : 		CStringT strResult( str1.GetManager() );

  000d3	8b cf		 mov	 ecx, edi
; File D:\git\src\IBK\IBK_DRFN\ProjSrc\SrcChartEx\ChartAddIn\ChartDataListViewerAddIn\ChartDataListViewerAddIn\DlgDataListViewer.cpp

; 1360 : 				source += m_ctlList.GetItemText(i, j) + _T("     ");

  000d5	c6 45 fc 03	 mov	 BYTE PTR __$EHRec$[ebp+8], 3
; File C:\Program Files (x86)\Microsoft Visual Studio\2019\Community\VC\Tools\MSVC\14.29.30133\atlmfc\include\cstringt.h

; 2401 : 		CStringT strResult( str1.GetManager() );

  000d9	ff 15 00 00 00
	00		 call	 DWORD PTR __imp_?GetManager@?$CStringT@DV?$StrTraitMFC_DLL@DV?$ChTraitsCRT@D@ATL@@@@@ATL@@QBEPAUIAtlStringMgr@2@XZ
  000df	50		 push	 eax
  000e0	8d 4d ec	 lea	 ecx, DWORD PTR $T5[ebp]
  000e3	ff 15 00 00 00
	00		 call	 DWORD PTR __imp_??0?$CStringT@DV?$StrTraitMFC_DLL@DV?$ChTraitsCRT@D@ATL@@@@@ATL@@QAE@PAUIAtlStringMgr@1@@Z
; File C:\Program Files (x86)\Microsoft Visual Studio\2019\Community\VC\Tools\MSVC\14.29.30133\atlmfc\include\atlsimpstr.h

; 519  : 		return( GetData()->nDataLength );

  000e9	8b 07		 mov	 eax, DWORD PTR [edi]
; File C:\Program Files (x86)\Microsoft Visual Studio\2019\Community\VC\Tools\MSVC\14.29.30133\atlmfc\include\cstringt.h

; 2405 : 		return( strResult );

  000eb	83 cb 01	 or	 ebx, 1
  000ee	6a 05		 push	 5
  000f0	68 00 00 00 00	 push	 OFFSET ??_C@_05IFKLLJBC@?5?5?5?5?5@
  000f5	89 5d e0	 mov	 DWORD PTR $T3[ebp], ebx
  000f8	ff 70 f4	 push	 DWORD PTR [eax-12]
  000fb	50		 push	 eax
  000fc	8d 45 ec	 lea	 eax, DWORD PTR $T5[ebp]
  000ff	50		 push	 eax
  00100	ff 15 00 00 00
	00		 call	 DWORD PTR __imp_?Concatenate@?$CSimpleStringT@D$00@ATL@@KAXAAV12@PBDH1H@Z
  00106	83 c4 14	 add	 esp, 20			; 00000014H
; File D:\git\src\IBK\IBK_DRFN\ProjSrc\SrcChartEx\ChartAddIn\ChartDataListViewerAddIn\ChartDataListViewerAddIn\DlgDataListViewer.cpp

; 1360 : 				source += m_ctlList.GetItemText(i, j) + _T("     ");

  00109	8d 45 ec	 lea	 eax, DWORD PTR $T5[ebp]
  0010c	8d 4d f0	 lea	 ecx, DWORD PTR _source$[ebp]
  0010f	50		 push	 eax
  00110	ff 15 00 00 00
	00		 call	 DWORD PTR __imp_??Y?$CStringT@DV?$StrTraitMFC_DLL@DV?$ChTraitsCRT@D@ATL@@@@@ATL@@QAEAAV01@ABV?$CSimpleStringT@D$00@1@@Z
  00116	8d 4d ec	 lea	 ecx, DWORD PTR $T5[ebp]
  00119	83 e3 fe	 and	 ebx, -2			; fffffffeH
  0011c	ff 15 00 00 00
	00		 call	 DWORD PTR __imp_??1?$CStringT@DV?$StrTraitMFC_DLL@DV?$ChTraitsCRT@D@ATL@@@@@ATL@@QAE@XZ
  00122	8d 4d dc	 lea	 ecx, DWORD PTR $T2[ebp]
  00125	c6 45 fc 00	 mov	 BYTE PTR __$EHRec$[ebp+8], 0
  00129	ff 15 00 00 00
	00		 call	 DWORD PTR __imp_??1?$CStringT@DV?$StrTraitMFC_DLL@DV?$ChTraitsCRT@D@ATL@@@@@ATL@@QAE@XZ
  0012f	8b 45 e8	 mov	 eax, DWORD PTR _i$1$[ebp]
  00132	46		 inc	 esi
  00133	8b 4d d8	 mov	 ecx, DWORD PTR tv333[ebp]
  00136	3b 75 e4	 cmp	 esi, DWORD PTR tv334[ebp]
  00139	7c 8b		 jl	 SHORT $LL7@OnClipboar
  0013b	8b 7d d4	 mov	 edi, DWORD PTR _this$1$[ebp]
$LN6@OnClipboar:

; 1361 : 			}
; 1362 : 			source += _T("\r\n");

  0013e	68 00 00 00 00	 push	 OFFSET ??_C@_02PCIJFNDE@?$AN?6@
  00143	8d 4d f0	 lea	 ecx, DWORD PTR _source$[ebp]
  00146	ff 15 00 00 00
	00		 call	 DWORD PTR __imp_??Y?$CStringT@DV?$StrTraitMFC_DLL@DV?$ChTraitsCRT@D@ATL@@@@@ATL@@QAEAAV01@PBD@Z
  0014c	8b 45 e8	 mov	 eax, DWORD PTR _i$1$[ebp]
  0014f	8b 4d e4	 mov	 ecx, DWORD PTR tv334[ebp]
  00152	40		 inc	 eax
  00153	89 45 e8	 mov	 DWORD PTR _i$1$[ebp], eax
  00156	3b 45 d0	 cmp	 eax, DWORD PTR _nRowCount$1$[ebp]
  00159	0f 8c 54 ff ff
	ff		 jl	 $LL4@OnClipboar
$LN3@OnClipboar:

; 1363 : 		}
; 1364 : 
; 1365 : 		EmptyClipboard();

  0015f	ff 15 00 00 00
	00		 call	 DWORD PTR __imp__EmptyClipboard@0
; File C:\Program Files (x86)\Microsoft Visual Studio\2019\Community\VC\Tools\MSVC\14.29.30133\atlmfc\include\atlsimpstr.h

; 519  : 		return( GetData()->nDataLength );

  00165	8b 45 f0	 mov	 eax, DWORD PTR _source$[ebp]
  00168	8b 40 f4	 mov	 eax, DWORD PTR [eax-12]
; File D:\git\src\IBK\IBK_DRFN\ProjSrc\SrcChartEx\ChartAddIn\ChartDataListViewerAddIn\ChartDataListViewerAddIn\DlgDataListViewer.cpp

; 1366 : 		clipbuffer = GlobalAlloc(GMEM_DDESHARE, source.GetLength()+1);

  0016b	40		 inc	 eax
  0016c	50		 push	 eax
  0016d	68 00 20 00 00	 push	 8192			; 00002000H
  00172	ff 15 00 00 00
	00		 call	 DWORD PTR __imp__GlobalAlloc@8
  00178	8b f0		 mov	 esi, eax

; 1367 : 		buffer = (char*)GlobalLock(clipbuffer);

  0017a	56		 push	 esi
  0017b	ff 15 00 00 00
	00		 call	 DWORD PTR __imp__GlobalLock@4
; File C:\Program Files (x86)\Microsoft Visual Studio\2019\Community\VC\Tools\MSVC\14.29.30133\atlmfc\include\atlsimpstr.h

; 377  : 		return( m_pszData );

  00181	8b 55 f0	 mov	 edx, DWORD PTR _source$[ebp]
$LL10@OnClipboar:
; File D:\git\src\IBK\IBK_DRFN\ProjSrc\SrcChartEx\ChartAddIn\ChartDataListViewerAddIn\ChartDataListViewerAddIn\DlgDataListViewer.cpp

; 1368 : 		strcpy(buffer, LPCSTR(source));

  00184	8a 0a		 mov	 cl, BYTE PTR [edx]
  00186	8d 52 01	 lea	 edx, DWORD PTR [edx+1]
  00189	88 08		 mov	 BYTE PTR [eax], cl
  0018b	8d 40 01	 lea	 eax, DWORD PTR [eax+1]
  0018e	84 c9		 test	 cl, cl
  00190	75 f2		 jne	 SHORT $LL10@OnClipboar

; 1369 : 		GlobalUnlock(clipbuffer);

  00192	56		 push	 esi
  00193	ff 15 00 00 00
	00		 call	 DWORD PTR __imp__GlobalUnlock@4

; 1370 : 		SetClipboardData(CF_TEXT,clipbuffer);

  00199	56		 push	 esi
  0019a	6a 01		 push	 1
  0019c	ff 15 00 00 00
	00		 call	 DWORD PTR __imp__SetClipboardData@8

; 1371 : 		CloseClipboard();

  001a2	ff 15 00 00 00
	00		 call	 DWORD PTR __imp__CloseClipboard@0
$LN8@OnClipboar:

; 1372 : 	}		
; 1373 : }

  001a8	8d 4d f0	 lea	 ecx, DWORD PTR _source$[ebp]
  001ab	ff 15 00 00 00
	00		 call	 DWORD PTR __imp_??1?$CStringT@DV?$StrTraitMFC_DLL@DV?$ChTraitsCRT@D@ATL@@@@@ATL@@QAE@XZ
  001b1	8b 4d f4	 mov	 ecx, DWORD PTR __$EHRec$[ebp]
  001b4	64 89 0d 00 00
	00 00		 mov	 DWORD PTR fs:0, ecx
  001bb	59		 pop	 ecx
  001bc	5f		 pop	 edi
  001bd	5e		 pop	 esi
  001be	5b		 pop	 ebx
  001bf	8b e5		 mov	 esp, ebp
  001c1	5d		 pop	 ebp
  001c2	c3		 ret	 0
_TEXT	ENDS
;	COMDAT text$x
text$x	SEGMENT
__unwindfunclet$?OnClipboard@CDlgDataListViewer@@IAEXXZ$0:
  00000	8d 4d f0	 lea	 ecx, DWORD PTR _source$[ebp]
  00003	ff 25 00 00 00
	00		 jmp	 DWORD PTR __imp_??1?$CStringT@DV?$StrTraitMFC_DLL@DV?$ChTraitsCRT@D@ATL@@@@@ATL@@QAE@XZ
__unwindfunclet$?OnClipboard@CDlgDataListViewer@@IAEXXZ$1:
  00009	8d 4d e8	 lea	 ecx, DWORD PTR $T4[ebp]
  0000c	ff 25 00 00 00
	00		 jmp	 DWORD PTR __imp_??1?$CStringT@DV?$StrTraitMFC_DLL@DV?$ChTraitsCRT@D@ATL@@@@@ATL@@QAE@XZ
__unwindfunclet$?OnClipboard@CDlgDataListViewer@@IAEXXZ$2:
  00012	8d 4d dc	 lea	 ecx, DWORD PTR $T2[ebp]
  00015	ff 25 00 00 00
	00		 jmp	 DWORD PTR __imp_??1?$CStringT@DV?$StrTraitMFC_DLL@DV?$ChTraitsCRT@D@ATL@@@@@ATL@@QAE@XZ
__unwindfunclet$?OnClipboard@CDlgDataListViewer@@IAEXXZ$4:
  0001b	8b 45 e0	 mov	 eax, DWORD PTR $T3[ebp]
  0001e	83 e0 01	 and	 eax, 1
  00021	0f 84 0d 00 00
	00		 je	 $LN22@OnClipboar
  00027	83 65 e0 fe	 and	 DWORD PTR $T3[ebp], -2	; fffffffeH
  0002b	8d 4d ec	 lea	 ecx, DWORD PTR $T5[ebp]
  0002e	ff 25 00 00 00
	00		 jmp	 DWORD PTR __imp_??1?$CStringT@DV?$StrTraitMFC_DLL@DV?$ChTraitsCRT@D@ATL@@@@@ATL@@QAE@XZ
$LN22@OnClipboar:
  00034	c3		 ret	 0
  00035	cc		 int	 3
  00036	cc		 int	 3
  00037	cc		 int	 3
  00038	cc		 int	 3
  00039	cc		 int	 3
__ehhandler$?OnClipboard@CDlgDataListViewer@@IAEXXZ:
  0003a	90		 npad	 1
  0003b	90		 npad	 1
  0003c	8b 54 24 08	 mov	 edx, DWORD PTR [esp+8]
  00040	8d 42 0c	 lea	 eax, DWORD PTR [edx+12]
  00043	8b 4a cc	 mov	 ecx, DWORD PTR [edx-52]
  00046	33 c8		 xor	 ecx, eax
  00048	e8 00 00 00 00	 call	 @__security_check_cookie@4
  0004d	b8 00 00 00 00	 mov	 eax, OFFSET __ehfuncinfo$?OnClipboard@CDlgDataListViewer@@IAEXXZ
  00052	e9 00 00 00 00	 jmp	 ___CxxFrameHandler3
text$x	ENDS
?OnClipboard@CDlgDataListViewer@@IAEXXZ ENDP		; CDlgDataListViewer::OnClipboard
; Function compile flags: /Ogtp
; File D:\git\src\IBK\IBK_DRFN\ProjSrc\SrcChartEx\ChartAddIn\ChartDataListViewerAddIn\ChartDataListViewerAddIn\DlgDataListViewer.cpp
; File C:\Program Files (x86)\Microsoft Visual Studio\2019\Community\VC\Tools\MSVC\14.29.30133\atlmfc\include\afxcmn.inl
; File D:\git\src\IBK\IBK_DRFN\ProjSrc\SrcChartEx\ChartAddIn\ChartDataListViewerAddIn\ChartDataListViewerAddIn\DlgDataListViewer.cpp
; File C:\Program Files (x86)\Microsoft Visual Studio\2019\Community\VC\Tools\MSVC\14.29.30133\atlmfc\include\afxcmn.inl
; File D:\git\src\IBK\IBK_DRFN\ProjSrc\SrcChartEx\ChartAddIn\ChartDataListViewerAddIn\ChartDataListViewerAddIn\DlgDataListViewer.cpp
;	COMDAT ?OnUpdate@CDlgDataListViewer@@IAEXXZ
_TEXT	SEGMENT
?OnUpdate@CDlgDataListViewer@@IAEXXZ PROC		; CDlgDataListViewer::OnUpdate, COMDAT
; _this$ = ecx

; 1290 : {

  00000	56		 push	 esi
; File C:\Program Files (x86)\Microsoft Visual Studio\2019\Community\VC\Tools\MSVC\14.29.30133\atlmfc\include\afxcmn.inl

; 171  : 	{ ASSERT(::IsWindow(m_hWnd)); return (BOOL) ::SendMessage(m_hWnd, LVM_DELETEALLITEMS, 0, 0L); }

  00001	6a 00		 push	 0
; File D:\git\src\IBK\IBK_DRFN\ProjSrc\SrcChartEx\ChartAddIn\ChartDataListViewerAddIn\ChartDataListViewerAddIn\DlgDataListViewer.cpp

; 1290 : {

  00003	8b f1		 mov	 esi, ecx
; File C:\Program Files (x86)\Microsoft Visual Studio\2019\Community\VC\Tools\MSVC\14.29.30133\atlmfc\include\afxcmn.inl

; 171  : 	{ ASSERT(::IsWindow(m_hWnd)); return (BOOL) ::SendMessage(m_hWnd, LVM_DELETEALLITEMS, 0, 0L); }

  00005	6a 00		 push	 0
  00007	68 09 10 00 00	 push	 4105			; 00001009H
  0000c	ff b6 d8 02 00
	00		 push	 DWORD PTR [esi+728]
  00012	ff 15 00 00 00
	00		 call	 DWORD PTR __imp__SendMessageA@16
; File D:\git\src\IBK\IBK_DRFN\ProjSrc\SrcChartEx\ChartAddIn\ChartDataListViewerAddIn\ChartDataListViewerAddIn\DlgDataListViewer.cpp

; 1293 : 	InsertDatatoList(m_strTitles, m_strPacketNames, m_strPacketNamesPerBlock);	

  00018	8d 86 cc 03 00
	00		 lea	 eax, DWORD PTR [esi+972]
  0001e	8b ce		 mov	 ecx, esi
  00020	50		 push	 eax
  00021	8d 86 c8 03 00
	00		 lea	 eax, DWORD PTR [esi+968]
  00027	50		 push	 eax
  00028	8d 86 c4 03 00
	00		 lea	 eax, DWORD PTR [esi+964]
  0002e	50		 push	 eax
  0002f	e8 00 00 00 00	 call	 ?InsertDatatoList@CDlgDataListViewer@@QAEXABV?$CStringT@DV?$StrTraitMFC_DLL@DV?$ChTraitsCRT@D@ATL@@@@@ATL@@00@Z ; CDlgDataListViewer::InsertDatatoList
  00034	5e		 pop	 esi

; 1294 : }

  00035	c3		 ret	 0
?OnUpdate@CDlgDataListViewer@@IAEXXZ ENDP		; CDlgDataListViewer::OnUpdate
_TEXT	ENDS
; Function compile flags: /Ogtp
; File D:\git\src\IBK\IBK_DRFN\ProjSrc\SrcChartEx\ChartAddIn\ChartDataListViewerAddIn\ChartDataListViewerAddIn\DlgDataListViewer.cpp
;	COMDAT ?OnCtlColor@CDlgDataListViewer@@IAEPAUHBRUSH__@@PAVCDC@@PAVCWnd@@I@Z
_TEXT	SEGMENT
_pDC$ = 8						; size = 4
_pWnd$ = 12						; size = 4
_nCtlColor$ = 16					; size = 4
?OnCtlColor@CDlgDataListViewer@@IAEPAUHBRUSH__@@PAVCDC@@PAVCWnd@@I@Z PROC ; CDlgDataListViewer::OnCtlColor, COMDAT
; _this$ = ecx

; 1058 : {

  00000	55		 push	 ebp
  00001	8b ec		 mov	 ebp, esp
  00003	53		 push	 ebx

; 1059 : 	HBRUSH hbr = CDialog::OnCtlColor(pDC, pWnd, nCtlColor);

  00004	8b 5d 08	 mov	 ebx, DWORD PTR _pDC$[ebp]
  00007	57		 push	 edi
  00008	ff 75 10	 push	 DWORD PTR _nCtlColor$[ebp]
  0000b	8b f9		 mov	 edi, ecx
  0000d	ff 75 0c	 push	 DWORD PTR _pWnd$[ebp]
  00010	53		 push	 ebx
  00011	e8 00 00 00 00	 call	 ?OnCtlColor@CWnd@@IAEPAUHBRUSH__@@PAVCDC@@PAV1@I@Z ; CWnd::OnCtlColor

; 1060 : 
; 1061 : 	if(nCtlColor == CTLCOLOR_BTN)	{

  00016	6a 01		 push	 1
  00018	8b cb		 mov	 ecx, ebx
  0001a	81 c7 d8 03 00
	00		 add	 edi, 984		; 000003d8H
  00020	e8 00 00 00 00	 call	 ?SetBkMode@CDC@@QAEHH@Z	; CDC::SetBkMode

; 1062 : 		pDC->SetBkMode(TRANSPARENT) ;		
; 1063 : 		return (HBRUSH)m_brBkColor ;
; 1064 : 	}
; 1065 : 
; 1066 : 	pDC->SetBkMode(TRANSPARENT) ;		
; 1067 : 	return (HBRUSH)m_brBkColor ;
; 1068 : 
; 1069 : 	return hbr;
; 1070 : }

  00025	85 ff		 test	 edi, edi
  00027	75 08		 jne	 SHORT $LN10@OnCtlColor
  00029	5f		 pop	 edi
  0002a	33 c0		 xor	 eax, eax
  0002c	5b		 pop	 ebx
  0002d	5d		 pop	 ebp
  0002e	c2 0c 00	 ret	 12			; 0000000cH
$LN10@OnCtlColor:
  00031	8b 47 04	 mov	 eax, DWORD PTR [edi+4]
  00034	5f		 pop	 edi
  00035	5b		 pop	 ebx
  00036	5d		 pop	 ebp
  00037	c2 0c 00	 ret	 12			; 0000000cH
?OnCtlColor@CDlgDataListViewer@@IAEPAUHBRUSH__@@PAVCDC@@PAVCWnd@@I@Z ENDP ; CDlgDataListViewer::OnCtlColor
_TEXT	ENDS
; Function compile flags: /Ogtp
; File D:\git\src\IBK\IBK_DRFN\ProjSrc\SrcChartEx\ChartAddIn\ChartDataListViewerAddIn\ChartDataListViewerAddIn\DlgDataListViewer.cpp
; File C:\Program Files (x86)\Microsoft Visual Studio\2019\Community\VC\Tools\MSVC\14.29.30133\atlmfc\include\afxwin2.inl
; File D:\git\src\IBK\IBK_DRFN\ProjSrc\SrcChartEx\ChartAddIn\ChartDataListViewerAddIn\ChartDataListViewerAddIn\DlgDataListViewer.cpp
;	COMDAT ?OnClose@CDlgDataListViewer@@IAEXXZ
_TEXT	SEGMENT
?OnClose@CDlgDataListViewer@@IAEXXZ PROC		; CDlgDataListViewer::OnClose, COMDAT
; _this$ = ecx

; 1018 : {

  00000	56		 push	 esi
  00001	8b f1		 mov	 esi, ecx

; 1019 : 	if(m_pDataListViewMngWnd && IsWindow(m_pDataListViewMngWnd->GetSafeHwnd()))

  00003	8b 86 a8 00 00
	00		 mov	 eax, DWORD PTR [esi+168]
  00009	85 c0		 test	 eax, eax
  0000b	74 25		 je	 SHORT $LN2@OnClose
  0000d	ff 70 20	 push	 DWORD PTR [eax+32]
  00010	ff 15 00 00 00
	00		 call	 DWORD PTR __imp__IsWindow@4
  00016	85 c0		 test	 eax, eax
  00018	74 18		 je	 SHORT $LN2@OnClose
; File C:\Program Files (x86)\Microsoft Visual Studio\2019\Community\VC\Tools\MSVC\14.29.30133\atlmfc\include\afxwin2.inl

; 39   : 	{ ASSERT(::IsWindow(m_hWnd)); return ::PostMessage(m_hWnd, message, wParam, lParam); }

  0001a	8b 86 a8 00 00
	00		 mov	 eax, DWORD PTR [esi+168]
  00020	6a 00		 push	 0
  00022	6a 00		 push	 0
  00024	68 cf 08 00 00	 push	 2255			; 000008cfH
  00029	ff 70 20	 push	 DWORD PTR [eax+32]
  0002c	ff 15 00 00 00
	00		 call	 DWORD PTR __imp__PostMessageA@16
$LN2@OnClose:
  00032	5e		 pop	 esi
; File D:\git\src\IBK\IBK_DRFN\ProjSrc\SrcChartEx\ChartAddIn\ChartDataListViewerAddIn\ChartDataListViewerAddIn\DlgDataListViewer.cpp

; 1021 : }

  00033	c3		 ret	 0
?OnClose@CDlgDataListViewer@@IAEXXZ ENDP		; CDlgDataListViewer::OnClose
_TEXT	ENDS
; Function compile flags: /Ogtp
; File D:\git\src\IBK\IBK_DRFN\ProjSrc\SrcChartEx\ChartAddIn\ChartDataListViewerAddIn\ChartDataListViewerAddIn\DlgDataListViewer.cpp
;	COMDAT ?OnExcelFileExport@CDlgDataListViewer@@IAEXXZ
_TEXT	SEGMENT
?OnExcelFileExport@CDlgDataListViewer@@IAEXXZ PROC	; CDlgDataListViewer::OnExcelFileExport, COMDAT
; _this$ = ecx

; 747  : {

  00000	56		 push	 esi

; 748  : 	UpdateData();

  00001	6a 01		 push	 1
  00003	8b f1		 mov	 esi, ecx
  00005	e8 00 00 00 00	 call	 ?UpdateData@CWnd@@QAEHH@Z ; CWnd::UpdateData

; 749  : 	LoadExcel();

  0000a	8b ce		 mov	 ecx, esi
  0000c	5e		 pop	 esi
  0000d	e9 00 00 00 00	 jmp	 ?LoadExcel@CDlgDataListViewer@@QAEXXZ ; CDlgDataListViewer::LoadExcel
?OnExcelFileExport@CDlgDataListViewer@@IAEXXZ ENDP	; CDlgDataListViewer::OnExcelFileExport
_TEXT	ENDS
; Function compile flags: /Ogtp
; File D:\git\src\IBK\IBK_DRFN\ProjSrc\SrcChartEx\ChartAddIn\ChartDataListViewerAddIn\ChartDataListViewerAddIn\DlgDataListViewer.cpp
; File C:\Program Files (x86)\Microsoft Visual Studio\2019\Community\VC\Tools\MSVC\14.29.30133\atlmfc\include\afxwin2.inl
; File D:\git\src\IBK\IBK_DRFN\ProjSrc\SrcChartEx\ChartAddIn\ChartDataListViewerAddIn\ChartDataListViewerAddIn\DlgDataListViewer.cpp
; File C:\Program Files (x86)\Microsoft Visual Studio\2019\Community\VC\Tools\MSVC\14.29.30133\atlmfc\include\atlsimpstr.h
; File D:\git\src\IBK\IBK_DRFN\ProjSrc\SrcChartEx\ChartAddIn\ChartDataListViewerAddIn\ChartDataListViewerAddIn\DlgDataListViewer.cpp
; File C:\Program Files (x86)\Microsoft Visual Studio\2019\Community\VC\Tools\MSVC\14.29.30133\atlmfc\include\atlsimpstr.h
; File D:\git\src\IBK\IBK_DRFN\ProjSrc\SrcChartEx\ChartAddIn\ChartDataListViewerAddIn\ChartDataListViewerAddIn\DlgDataListViewer.cpp
; File C:\Program Files (x86)\Microsoft Visual Studio\2019\Community\VC\Tools\MSVC\14.29.30133\atlmfc\include\atlsimpstr.h
; File D:\git\src\IBK\IBK_DRFN\ProjSrc\SrcChartEx\ChartAddIn\ChartDataListViewerAddIn\ChartDataListViewerAddIn\DlgDataListViewer.cpp
; File C:\Program Files (x86)\Microsoft Visual Studio\2019\Community\VC\Tools\MSVC\14.29.30133\atlmfc\include\atlsimpstr.h
; File D:\git\src\IBK\IBK_DRFN\ProjSrc\SrcChartEx\ChartAddIn\ChartDataListViewerAddIn\ChartDataListViewerAddIn\DlgDataListViewer.cpp
; File C:\Program Files (x86)\Microsoft Visual Studio\2019\Community\VC\Tools\MSVC\14.29.30133\atlmfc\include\afxcmn.inl
; File C:\Program Files (x86)\Microsoft Visual Studio\2019\Community\VC\Tools\MSVC\14.29.30133\atlmfc\include\afxcmn2.inl
; File D:\git\src\IBK\IBK_DRFN\ProjSrc\SrcChartEx\ChartAddIn\ChartDataListViewerAddIn\ChartDataListViewerAddIn\DlgDataListViewer.cpp
; File C:\Program Files (x86)\Microsoft Visual Studio\2019\Community\VC\Tools\MSVC\14.29.30133\atlmfc\include\afxcmn.inl
; File D:\git\src\IBK\IBK_DRFN\ProjSrc\SrcChartEx\ChartAddIn\ChartDataListViewerAddIn\ChartDataListViewerAddIn\DlgDataListViewer.cpp
; File C:\Program Files (x86)\Microsoft Visual Studio\2019\Community\VC\Tools\MSVC\14.29.30133\atlmfc\include\afxcmn.inl
; File D:\git\src\IBK\IBK_DRFN\ProjSrc\SrcChartEx\ChartAddIn\ChartDataListViewerAddIn\ChartDataListViewerAddIn\DlgDataListViewer.cpp
; File C:\Program Files (x86)\Microsoft Visual Studio\2019\Community\VC\Tools\MSVC\14.29.30133\atlmfc\include\afxcmn.inl
; File D:\git\src\IBK\IBK_DRFN\ProjSrc\SrcChartEx\ChartAddIn\ChartDataListViewerAddIn\ChartDataListViewerAddIn\DlgDataListViewer.cpp
;	COMDAT ?OnInitDialog@CDlgDataListViewer@@MAEHXZ
_TEXT	SEGMENT
_m_ImageList$ = -40					; size = 8
$T2 = -32						; size = 4
$T3 = -32						; size = 4
$T4 = -32						; size = 4
$T5 = -28						; size = 4
_szPacketNames$6 = -24					; size = 4
$T7 = -24						; size = 4
$T8 = -20						; size = 4
_szTemp$9 = -20						; size = 4
_szPackets$10 = -16					; size = 4
__$EHRec$ = -12						; size = 12
?OnInitDialog@CDlgDataListViewer@@MAEHXZ PROC		; CDlgDataListViewer::OnInitDialog, COMDAT
; _this$ = ecx

; 113  : {

  00000	55		 push	 ebp
  00001	8b ec		 mov	 ebp, esp
  00003	6a ff		 push	 -1
  00005	68 00 00 00 00	 push	 __ehhandler$?OnInitDialog@CDlgDataListViewer@@MAEHXZ
  0000a	64 a1 00 00 00
	00		 mov	 eax, DWORD PTR fs:0
  00010	50		 push	 eax
  00011	83 ec 1c	 sub	 esp, 28			; 0000001cH
  00014	53		 push	 ebx
  00015	56		 push	 esi
  00016	57		 push	 edi
  00017	a1 00 00 00 00	 mov	 eax, DWORD PTR ___security_cookie
  0001c	33 c5		 xor	 eax, ebp
  0001e	50		 push	 eax
  0001f	8d 45 f4	 lea	 eax, DWORD PTR __$EHRec$[ebp]
  00022	64 a3 00 00 00
	00		 mov	 DWORD PTR fs:0, eax
  00028	8b d9		 mov	 ebx, ecx

; 114  : 	CDialog::OnInitDialog();

  0002a	e8 00 00 00 00	 call	 ?OnInitDialog@CDialog@@UAEHXZ ; CDialog::OnInitDialog
; File C:\Program Files (x86)\Microsoft Visual Studio\2019\Community\VC\Tools\MSVC\14.29.30133\atlmfc\include\afxwin2.inl

; 32   : 	{ ASSERT(::IsWindow(m_hWnd)); return ::SendMessage(m_hWnd, message, wParam, lParam); }

  0002f	8b 3d 00 00 00
	00		 mov	 edi, DWORD PTR __imp__SendMessageA@16
  00035	6a 32		 push	 50			; 00000032H
  00037	6a 00		 push	 0
  00039	68 36 10 00 00	 push	 4150			; 00001036H
  0003e	ff b3 d8 02 00
	00		 push	 DWORD PTR [ebx+728]
  00044	ff d7		 call	 edi
; File D:\git\src\IBK\IBK_DRFN\ProjSrc\SrcChartEx\ChartAddIn\ChartDataListViewerAddIn\ChartDataListViewerAddIn\DlgDataListViewer.cpp

; 124  : 	if(m_bViewPacketSequence) {

  00046	80 bb b8 03 00
	00 00		 cmp	 BYTE PTR [ebx+952], 0
  0004d	0f 84 96 01 00
	00		 je	 $LN2@OnInitDial

; 223  : 	if(m_pPacketList == NULL)	return;

  00053	8b 83 c0 03 00
	00		 mov	 eax, DWORD PTR [ebx+960]
  00059	85 c0		 test	 eax, eax
  0005b	0f 84 bb 01 00
	00		 je	 $LN3@OnInitDial

; 224  : 
; 225  : 	CString szPackets = m_strPacketNames;

  00061	8d 83 c8 03 00
	00		 lea	 eax, DWORD PTR [ebx+968]
  00067	50		 push	 eax
  00068	8d 4d f0	 lea	 ecx, DWORD PTR _szPackets$10[ebp]
  0006b	ff 15 00 00 00
	00		 call	 DWORD PTR __imp_??0?$CStringT@DV?$StrTraitMFC_DLL@DV?$ChTraitsCRT@D@ATL@@@@@ATL@@QAE@ABV01@@Z

; 226  : 	CString szTemp;

  00071	8d 4d ec	 lea	 ecx, DWORD PTR _szTemp$9[ebp]
  00074	c7 45 fc 00 00
	00 00		 mov	 DWORD PTR __$EHRec$[ebp+8], 0
  0007b	ff 15 00 00 00
	00		 call	 DWORD PTR __imp_??0?$CStringT@DV?$StrTraitMFC_DLL@DV?$ChTraitsCRT@D@ATL@@@@@ATL@@QAE@XZ
; File C:\Program Files (x86)\Microsoft Visual Studio\2019\Community\VC\Tools\MSVC\14.29.30133\atlmfc\include\atlsimpstr.h

; 519  : 		return( GetData()->nDataLength );

  00081	8b 45 f0	 mov	 eax, DWORD PTR _szPackets$10[ebp]
; File D:\git\src\IBK\IBK_DRFN\ProjSrc\SrcChartEx\ChartAddIn\ChartDataListViewerAddIn\ChartDataListViewerAddIn\DlgDataListViewer.cpp

; 227  : 	int i = 0;

  00084	33 f6		 xor	 esi, esi
  00086	c6 45 fc 01	 mov	 BYTE PTR __$EHRec$[ebp+8], 1
; File C:\Program Files (x86)\Microsoft Visual Studio\2019\Community\VC\Tools\MSVC\14.29.30133\atlmfc\include\atlsimpstr.h

; 533  : 		return( GetLength() == 0 );

  0008a	39 70 f4	 cmp	 DWORD PTR [eax-12], esi
; File D:\git\src\IBK\IBK_DRFN\ProjSrc\SrcChartEx\ChartAddIn\ChartDataListViewerAddIn\ChartDataListViewerAddIn\DlgDataListViewer.cpp

; 228  : 	while(!szPackets.IsEmpty()) {

  0008d	74 72		 je	 SHORT $LN11@OnInitDial
  0008f	90		 npad	 1
$LL10@OnInitDial:

; 229  : 		szTemp = CDataConversion::GetStringData(szPackets, ",");

  00090	68 00 00 00 00	 push	 OFFSET ??_C@_01IHBHIGKO@?0@
  00095	8d 4d e8	 lea	 ecx, DWORD PTR $T7[ebp]
  00098	ff 15 00 00 00
	00		 call	 DWORD PTR __imp_??0?$CStringT@DV?$StrTraitMFC_DLL@DV?$ChTraitsCRT@D@ATL@@@@@ATL@@QAE@PBD@Z
  0009e	6a 01		 push	 1
  000a0	8d 45 e8	 lea	 eax, DWORD PTR $T7[ebp]
  000a3	c6 45 fc 02	 mov	 BYTE PTR __$EHRec$[ebp+8], 2
  000a7	50		 push	 eax
  000a8	8d 45 f0	 lea	 eax, DWORD PTR _szPackets$10[ebp]
  000ab	50		 push	 eax
  000ac	8d 45 e0	 lea	 eax, DWORD PTR $T4[ebp]
  000af	50		 push	 eax
  000b0	e8 00 00 00 00	 call	 ?GetStringData@CDataConversion@@SA?AV?$CStringT@DV?$StrTraitMFC_DLL@DV?$ChTraitsCRT@D@ATL@@@@@ATL@@AAV23@ABV23@_N@Z ; CDataConversion::GetStringData
  000b5	83 c4 10	 add	 esp, 16			; 00000010H
  000b8	50		 push	 eax
  000b9	8d 4d ec	 lea	 ecx, DWORD PTR _szTemp$9[ebp]
  000bc	c6 45 fc 03	 mov	 BYTE PTR __$EHRec$[ebp+8], 3
  000c0	ff 15 00 00 00
	00		 call	 DWORD PTR __imp_??4?$CStringT@DV?$StrTraitMFC_DLL@DV?$ChTraitsCRT@D@ATL@@@@@ATL@@QAEAAV01@ABV01@@Z
  000c6	8d 4d e0	 lea	 ecx, DWORD PTR $T4[ebp]
  000c9	ff 15 00 00 00
	00		 call	 DWORD PTR __imp_??1?$CStringT@DV?$StrTraitMFC_DLL@DV?$ChTraitsCRT@D@ATL@@@@@ATL@@QAE@XZ
  000cf	8d 4d e8	 lea	 ecx, DWORD PTR $T7[ebp]
  000d2	c6 45 fc 01	 mov	 BYTE PTR __$EHRec$[ebp+8], 1
  000d6	ff 15 00 00 00
	00		 call	 DWORD PTR __imp_??1?$CStringT@DV?$StrTraitMFC_DLL@DV?$ChTraitsCRT@D@ATL@@@@@ATL@@QAE@XZ

; 230  : 		m_ctlList.InsertColumn(i++, szTemp, LVCFMT_RIGHT, 100);

  000dc	6a ff		 push	 -1
  000de	6a 64		 push	 100			; 00000064H
  000e0	6a 01		 push	 1
  000e2	ff 75 ec	 push	 DWORD PTR _szTemp$9[ebp]
  000e5	8d 8b b8 02 00
	00		 lea	 ecx, DWORD PTR [ebx+696]
  000eb	56		 push	 esi
  000ec	e8 00 00 00 00	 call	 ?InsertColumn@CListCtrl@@QAEHHPBDHHH@Z ; CListCtrl::InsertColumn
; File C:\Program Files (x86)\Microsoft Visual Studio\2019\Community\VC\Tools\MSVC\14.29.30133\atlmfc\include\atlsimpstr.h

; 519  : 		return( GetData()->nDataLength );

  000f1	8b 45 f0	 mov	 eax, DWORD PTR _szPackets$10[ebp]
; File D:\git\src\IBK\IBK_DRFN\ProjSrc\SrcChartEx\ChartAddIn\ChartDataListViewerAddIn\ChartDataListViewerAddIn\DlgDataListViewer.cpp

; 230  : 		m_ctlList.InsertColumn(i++, szTemp, LVCFMT_RIGHT, 100);

  000f4	46		 inc	 esi
; File C:\Program Files (x86)\Microsoft Visual Studio\2019\Community\VC\Tools\MSVC\14.29.30133\atlmfc\include\atlsimpstr.h

; 533  : 		return( GetLength() == 0 );

  000f5	83 78 f4 00	 cmp	 DWORD PTR [eax-12], 0
; File D:\git\src\IBK\IBK_DRFN\ProjSrc\SrcChartEx\ChartAddIn\ChartDataListViewerAddIn\ChartDataListViewerAddIn\DlgDataListViewer.cpp

; 228  : 	while(!szPackets.IsEmpty()) {

  000f9	75 95		 jne	 SHORT $LL10@OnInitDial
  000fb	8b 3d 00 00 00
	00		 mov	 edi, DWORD PTR __imp__SendMessageA@16
$LN11@OnInitDial:

; 231  : 	}
; 232  : }

  00101	8d 4d ec	 lea	 ecx, DWORD PTR _szTemp$9[ebp]
  00104	ff 15 00 00 00
	00		 call	 DWORD PTR __imp_??1?$CStringT@DV?$StrTraitMFC_DLL@DV?$ChTraitsCRT@D@ATL@@@@@ATL@@QAE@XZ
  0010a	8d 4d f0	 lea	 ecx, DWORD PTR _szPackets$10[ebp]
  0010d	c7 45 fc ff ff
	ff ff		 mov	 DWORD PTR __$EHRec$[ebp+8], -1
  00114	ff 15 00 00 00
	00		 call	 DWORD PTR __imp_??1?$CStringT@DV?$StrTraitMFC_DLL@DV?$ChTraitsCRT@D@ATL@@@@@ATL@@QAE@XZ
  0011a	8b 83 c0 03 00
	00		 mov	 eax, DWORD PTR [ebx+960]

; 236  : 	if(m_pPacketList == NULL)	return;

  00120	85 c0		 test	 eax, eax
  00122	0f 84 f4 00 00
	00		 je	 $LN3@OnInitDial

; 237  : 
; 238  : 	CString szPacketNames = m_strPacketNames;

  00128	8d 83 c8 03 00
	00		 lea	 eax, DWORD PTR [ebx+968]
  0012e	50		 push	 eax
  0012f	8d 4d e8	 lea	 ecx, DWORD PTR _szPacketNames$6[ebp]
  00132	ff 15 00 00 00
	00		 call	 DWORD PTR __imp_??0?$CStringT@DV?$StrTraitMFC_DLL@DV?$ChTraitsCRT@D@ATL@@@@@ATL@@QAE@ABV01@@Z

; 239  : 	m_strHorzScale = CDataConversion::GetStringData(szPacketNames, ",");

  00138	68 00 00 00 00	 push	 OFFSET ??_C@_01IHBHIGKO@?0@
  0013d	8d 4d ec	 lea	 ecx, DWORD PTR $T8[ebp]
  00140	c7 45 fc 04 00
	00 00		 mov	 DWORD PTR __$EHRec$[ebp+8], 4
  00147	ff 15 00 00 00
	00		 call	 DWORD PTR __imp_??0?$CStringT@DV?$StrTraitMFC_DLL@DV?$ChTraitsCRT@D@ATL@@@@@ATL@@QAE@PBD@Z
  0014d	6a 01		 push	 1
  0014f	8d 45 ec	 lea	 eax, DWORD PTR $T8[ebp]
  00152	c6 45 fc 05	 mov	 BYTE PTR __$EHRec$[ebp+8], 5
  00156	50		 push	 eax
  00157	8d 45 e8	 lea	 eax, DWORD PTR _szPacketNames$6[ebp]
  0015a	50		 push	 eax
  0015b	8d 45 e0	 lea	 eax, DWORD PTR $T3[ebp]
  0015e	50		 push	 eax
  0015f	e8 00 00 00 00	 call	 ?GetStringData@CDataConversion@@SA?AV?$CStringT@DV?$StrTraitMFC_DLL@DV?$ChTraitsCRT@D@ATL@@@@@ATL@@AAV23@ABV23@_N@Z ; CDataConversion::GetStringData
  00164	83 c4 10	 add	 esp, 16			; 00000010H
  00167	50		 push	 eax
  00168	8d 8b bc 03 00
	00		 lea	 ecx, DWORD PTR [ebx+956]
  0016e	c6 45 fc 06	 mov	 BYTE PTR __$EHRec$[ebp+8], 6
  00172	ff 15 00 00 00
	00		 call	 DWORD PTR __imp_??4?$CStringT@DV?$StrTraitMFC_DLL@DV?$ChTraitsCRT@D@ATL@@@@@ATL@@QAEAAV01@ABV01@@Z
  00178	8d 4d e0	 lea	 ecx, DWORD PTR $T3[ebp]
  0017b	ff 15 00 00 00
	00		 call	 DWORD PTR __imp_??1?$CStringT@DV?$StrTraitMFC_DLL@DV?$ChTraitsCRT@D@ATL@@@@@ATL@@QAE@XZ
  00181	8d 4d ec	 lea	 ecx, DWORD PTR $T8[ebp]
  00184	c6 45 fc 04	 mov	 BYTE PTR __$EHRec$[ebp+8], 4
  00188	ff 15 00 00 00
	00		 call	 DWORD PTR __imp_??1?$CStringT@DV?$StrTraitMFC_DLL@DV?$ChTraitsCRT@D@ATL@@@@@ATL@@QAE@XZ

; 240  : 	InsertDatatoList("", szPacketNames, "");

  0018e	68 00 00 00 00	 push	 OFFSET ??_C@_00CNPNBAHC@@
  00193	8d 4d e0	 lea	 ecx, DWORD PTR $T2[ebp]
  00196	ff 15 00 00 00
	00		 call	 DWORD PTR __imp_??0?$CStringT@DV?$StrTraitMFC_DLL@DV?$ChTraitsCRT@D@ATL@@@@@ATL@@QAE@PBD@Z
  0019c	68 00 00 00 00	 push	 OFFSET ??_C@_00CNPNBAHC@@
  001a1	8d 4d e4	 lea	 ecx, DWORD PTR $T5[ebp]
  001a4	c6 45 fc 07	 mov	 BYTE PTR __$EHRec$[ebp+8], 7
  001a8	ff 15 00 00 00
	00		 call	 DWORD PTR __imp_??0?$CStringT@DV?$StrTraitMFC_DLL@DV?$ChTraitsCRT@D@ATL@@@@@ATL@@QAE@PBD@Z
  001ae	8d 45 e0	 lea	 eax, DWORD PTR $T2[ebp]
  001b1	c6 45 fc 08	 mov	 BYTE PTR __$EHRec$[ebp+8], 8
  001b5	50		 push	 eax
  001b6	8d 45 e8	 lea	 eax, DWORD PTR _szPacketNames$6[ebp]
  001b9	8b cb		 mov	 ecx, ebx
  001bb	50		 push	 eax
  001bc	8d 45 e4	 lea	 eax, DWORD PTR $T5[ebp]
  001bf	50		 push	 eax
  001c0	e8 00 00 00 00	 call	 ?InsertDatatoList@CDlgDataListViewer@@QAEXABV?$CStringT@DV?$StrTraitMFC_DLL@DV?$ChTraitsCRT@D@ATL@@@@@ATL@@00@Z ; CDlgDataListViewer::InsertDatatoList
  001c5	8d 4d e4	 lea	 ecx, DWORD PTR $T5[ebp]
  001c8	ff 15 00 00 00
	00		 call	 DWORD PTR __imp_??1?$CStringT@DV?$StrTraitMFC_DLL@DV?$ChTraitsCRT@D@ATL@@@@@ATL@@QAE@XZ
  001ce	8d 4d e0	 lea	 ecx, DWORD PTR $T2[ebp]
  001d1	ff 15 00 00 00
	00		 call	 DWORD PTR __imp_??1?$CStringT@DV?$StrTraitMFC_DLL@DV?$ChTraitsCRT@D@ATL@@@@@ATL@@QAE@XZ

; 241  : }

  001d7	8d 4d e8	 lea	 ecx, DWORD PTR _szPacketNames$6[ebp]
  001da	c7 45 fc ff ff
	ff ff		 mov	 DWORD PTR __$EHRec$[ebp+8], -1
  001e1	ff 15 00 00 00
	00		 call	 DWORD PTR __imp_??1?$CStringT@DV?$StrTraitMFC_DLL@DV?$ChTraitsCRT@D@ATL@@@@@ATL@@QAE@XZ

; 125  : 		MakeHeader_PacketSequence();
; 126  : 		InsertData_PacketSequence();
; 127  : 	}

  001e7	eb 33		 jmp	 SHORT $LN3@OnInitDial
$LN2@OnInitDial:

; 128  : 	else {
; 129  : 
; 130  : 		//20081025  >>
; 131  : 		//ReCalc_WindowSize(m_strPacketNamesPerBlock);
; 132  : 		Make_ListHeader(m_strTitles, m_strPacketNamesPerBlock);

  001e9	8d b3 cc 03 00
	00		 lea	 esi, DWORD PTR [ebx+972]
  001ef	8b cb		 mov	 ecx, ebx
  001f1	56		 push	 esi
  001f2	8d bb c4 03 00
	00		 lea	 edi, DWORD PTR [ebx+964]
  001f8	57		 push	 edi
  001f9	e8 00 00 00 00	 call	 ?Make_ListHeader@CDlgDataListViewer@@QAEXABV?$CStringT@DV?$StrTraitMFC_DLL@DV?$ChTraitsCRT@D@ATL@@@@@ATL@@0@Z ; CDlgDataListViewer::Make_ListHeader

; 133  : 		ReCalc_WindowSize(m_strPacketNamesPerBlock);

  001fe	56		 push	 esi
  001ff	8b cb		 mov	 ecx, ebx
  00201	e8 00 00 00 00	 call	 ?ReCalc_WindowSize@CDlgDataListViewer@@QAEXABV?$CStringT@DV?$StrTraitMFC_DLL@DV?$ChTraitsCRT@D@ATL@@@@@ATL@@@Z ; CDlgDataListViewer::ReCalc_WindowSize

; 134  : 		//20081025  <<
; 135  : 
; 136  : 		InsertDatatoList(m_strTitles, m_strPacketNames, m_strPacketNamesPerBlock);	

  00206	56		 push	 esi
  00207	8d 83 c8 03 00
	00		 lea	 eax, DWORD PTR [ebx+968]
  0020d	8b cb		 mov	 ecx, ebx
  0020f	50		 push	 eax
  00210	57		 push	 edi
  00211	e8 00 00 00 00	 call	 ?InsertDatatoList@CDlgDataListViewer@@QAEXABV?$CStringT@DV?$StrTraitMFC_DLL@DV?$ChTraitsCRT@D@ATL@@@@@ATL@@00@Z ; CDlgDataListViewer::InsertDatatoList
  00216	8b 3d 00 00 00
	00		 mov	 edi, DWORD PTR __imp__SendMessageA@16
$LN3@OnInitDial:

; 137  : 	}
; 138  : 
; 139  : 	CHeaderCtrl* pHeader = NULL;
; 140  : 	pHeader = m_ctlList.GetHeaderCtrl();

  0021c	8d 8b b8 02 00
	00		 lea	 ecx, DWORD PTR [ebx+696]
  00222	e8 00 00 00 00	 call	 ?GetHeaderCtrl@CListCtrl@@QBEPAVCHeaderCtrl@@XZ ; CListCtrl::GetHeaderCtrl

; 141  : 
; 142  : 	if(pHeader == NULL)

  00227	85 c0		 test	 eax, eax
  00229	0f 84 cb 00 00
	00		 je	 $LN61@OnInitDial

; 143  : 		return TRUE;
; 144  : 	
; 145  : 	VERIFY(m_HeaderCtrl.SubclassWindow(pHeader->m_hWnd));	

  0022f	ff 70 20	 push	 DWORD PTR [eax+32]
  00232	8d 8b 38 03 00
	00		 lea	 ecx, DWORD PTR [ebx+824]
  00238	e8 00 00 00 00	 call	 ?SubclassWindow@CWnd@@QAEHPAUHWND__@@@Z ; CWnd::SubclassWindow

; 146  : 
; 147  : 	//  item      
; 148  : 	CImageList m_ImageList;

  0023d	8d 4d d8	 lea	 ecx, DWORD PTR _m_ImageList$[ebp]
  00240	e8 00 00 00 00	 call	 ??0CImageList@@QAE@XZ	; CImageList::CImageList

; 149  : 	m_ImageList.Create(IDB_TEMP, 1, 1, RGB(172, 172, 172));

  00245	68 ac ac ac 00	 push	 11316396		; 00acacacH
  0024a	6a 01		 push	 1
  0024c	6a 01		 push	 1
  0024e	68 cf 32 00 00	 push	 13007			; 000032cfH
  00253	8d 4d d8	 lea	 ecx, DWORD PTR _m_ImageList$[ebp]
  00256	c7 45 fc 09 00
	00 00		 mov	 DWORD PTR __$EHRec$[ebp+8], 9
  0025d	e8 00 00 00 00	 call	 ?Create@CImageList@@QAEHIHHK@Z ; CImageList::Create
; File C:\Program Files (x86)\Microsoft Visual Studio\2019\Community\VC\Tools\MSVC\14.29.30133\atlmfc\include\afxcmn.inl

; 153  : 	{ ASSERT(::IsWindow(m_hWnd)); return CImageList::FromHandle((HIMAGELIST) ::SendMessage(m_hWnd, LVM_SETIMAGELIST, nImageList, (LPARAM)pImageList->GetSafeHandle())); }

  00262	ff 75 dc	 push	 DWORD PTR _m_ImageList$[ebp+4]
  00265	6a 01		 push	 1
  00267	68 03 10 00 00	 push	 4099			; 00001003H
  0026c	ff b3 d8 02 00
	00		 push	 DWORD PTR [ebx+728]
  00272	ff d7		 call	 edi
  00274	50		 push	 eax
  00275	e8 00 00 00 00	 call	 ?FromHandle@CImageList@@SGPAV1@PAU_IMAGELIST@@@Z ; CImageList::FromHandle
; File C:\Program Files (x86)\Microsoft Visual Studio\2019\Community\VC\Tools\MSVC\14.29.30133\atlmfc\include\afxcmn2.inl

; 164  : 	{ ASSERT(::IsWindow(m_hWnd)); return CImageList::FromHandle((HIMAGELIST) ::SendMessage(m_hWnd, HDM_SETIMAGELIST, nImageList, (LPARAM)pImageList->GetSafeHandle())); }

  0027a	ff 75 dc	 push	 DWORD PTR _m_ImageList$[ebp+4]
  0027d	6a 00		 push	 0
  0027f	68 08 12 00 00	 push	 4616			; 00001208H
  00284	ff b3 58 03 00
	00		 push	 DWORD PTR [ebx+856]
  0028a	ff d7		 call	 edi
  0028c	50		 push	 eax
  0028d	e8 00 00 00 00	 call	 ?FromHandle@CImageList@@SGPAV1@PAU_IMAGELIST@@@Z ; CImageList::FromHandle
; File D:\git\src\IBK\IBK_DRFN\ProjSrc\SrcChartEx\ChartAddIn\ChartDataListViewerAddIn\ChartDataListViewerAddIn\DlgDataListViewer.cpp

; 152  : 	m_ctlList.SetFocus();

  00292	8d 8b b8 02 00
	00		 lea	 ecx, DWORD PTR [ebx+696]
  00298	e8 00 00 00 00	 call	 ?SetFocus@CWnd@@QAEPAV1@XZ ; CWnd::SetFocus

; 153  : 	m_ctlList.SetItemState( 0, LVIS_SELECTED, LVIS_SELECTED);

  0029d	6a 02		 push	 2
  0029f	6a 02		 push	 2
  002a1	6a 00		 push	 0
  002a3	8d 8b b8 02 00
	00		 lea	 ecx, DWORD PTR [ebx+696]
  002a9	e8 00 00 00 00	 call	 ?SetItemState@CListCtrl@@QAEHHII@Z ; CListCtrl::SetItemState

; 1335 : 	if(m_nFutureDateCount <= 0)

  002ae	8b 83 e0 03 00
	00		 mov	 eax, DWORD PTR [ebx+992]
  002b4	85 c0		 test	 eax, eax
  002b6	7e 3a		 jle	 SHORT $LN46@OnInitDial
; File C:\Program Files (x86)\Microsoft Visual Studio\2019\Community\VC\Tools\MSVC\14.29.30133\atlmfc\include\afxcmn.inl

; 193  : 	{ ASSERT(::IsWindow(m_hWnd)); return (BOOL) ::SendMessage(m_hWnd, LVM_ENSUREVISIBLE, nItem, MAKELPARAM(bPartialOK, 0)); }

  002b8	6a 00		 push	 0
  002ba	50		 push	 eax
  002bb	68 13 10 00 00	 push	 4115			; 00001013H
  002c0	ff b3 d8 02 00
	00		 push	 DWORD PTR [ebx+728]
  002c6	ff d7		 call	 edi

; 229  : 	{ ASSERT(::IsWindow(m_hWnd)); return (int) ::SendMessage(m_hWnd, LVM_GETCOUNTPERPAGE, 0, 0); }

  002c8	6a 00		 push	 0
  002ca	6a 00		 push	 0
  002cc	68 28 10 00 00	 push	 4136			; 00001028H
  002d1	ff b3 d8 02 00
	00		 push	 DWORD PTR [ebx+728]
  002d7	ff d7		 call	 edi
; File D:\git\src\IBK\IBK_DRFN\ProjSrc\SrcChartEx\ChartAddIn\ChartDataListViewerAddIn\ChartDataListViewerAddIn\DlgDataListViewer.cpp

; 1339 : 	int nLastIndex = m_nFutureDateCount + m_ctlList.GetCountPerPage() -1;

  002d9	8b 8b e0 03 00
	00		 mov	 ecx, DWORD PTR [ebx+992]
; File C:\Program Files (x86)\Microsoft Visual Studio\2019\Community\VC\Tools\MSVC\14.29.30133\atlmfc\include\afxcmn.inl

; 193  : 	{ ASSERT(::IsWindow(m_hWnd)); return (BOOL) ::SendMessage(m_hWnd, LVM_ENSUREVISIBLE, nItem, MAKELPARAM(bPartialOK, 0)); }

  002df	6a 00		 push	 0
; File D:\git\src\IBK\IBK_DRFN\ProjSrc\SrcChartEx\ChartAddIn\ChartDataListViewerAddIn\ChartDataListViewerAddIn\DlgDataListViewer.cpp

; 1339 : 	int nLastIndex = m_nFutureDateCount + m_ctlList.GetCountPerPage() -1;

  002e1	49		 dec	 ecx
  002e2	03 c1		 add	 eax, ecx
; File C:\Program Files (x86)\Microsoft Visual Studio\2019\Community\VC\Tools\MSVC\14.29.30133\atlmfc\include\afxcmn.inl

; 193  : 	{ ASSERT(::IsWindow(m_hWnd)); return (BOOL) ::SendMessage(m_hWnd, LVM_ENSUREVISIBLE, nItem, MAKELPARAM(bPartialOK, 0)); }

  002e4	50		 push	 eax
  002e5	68 13 10 00 00	 push	 4115			; 00001013H
  002ea	ff b3 d8 02 00
	00		 push	 DWORD PTR [ebx+728]
  002f0	ff d7		 call	 edi
$LN46@OnInitDial:
; File D:\git\src\IBK\IBK_DRFN\ProjSrc\SrcChartEx\ChartAddIn\ChartDataListViewerAddIn\ChartDataListViewerAddIn\DlgDataListViewer.cpp

; 157  : 	return TRUE;  // return TRUE unless you set the focus to a control

  002f2	8d 4d d8	 lea	 ecx, DWORD PTR _m_ImageList$[ebp]
  002f5	e8 00 00 00 00	 call	 ??1CImageList@@UAE@XZ	; CImageList::~CImageList
$LN61@OnInitDial:

; 158  : 	              // EXCEPTION: OCX Property Pages should return FALSE
; 159  : }

  002fa	b8 01 00 00 00	 mov	 eax, 1
  002ff	8b 4d f4	 mov	 ecx, DWORD PTR __$EHRec$[ebp]
  00302	64 89 0d 00 00
	00 00		 mov	 DWORD PTR fs:0, ecx
  00309	59		 pop	 ecx
  0030a	5f		 pop	 edi
  0030b	5e		 pop	 esi
  0030c	5b		 pop	 ebx
  0030d	8b e5		 mov	 esp, ebp
  0030f	5d		 pop	 ebp
  00310	c3		 ret	 0
_TEXT	ENDS
;	COMDAT text$x
text$x	SEGMENT
__unwindfunclet$?OnInitDialog@CDlgDataListViewer@@MAEHXZ$1:
  00000	8d 4d f0	 lea	 ecx, DWORD PTR _szPackets$10[ebp]
  00003	ff 25 00 00 00
	00		 jmp	 DWORD PTR __imp_??1?$CStringT@DV?$StrTraitMFC_DLL@DV?$ChTraitsCRT@D@ATL@@@@@ATL@@QAE@XZ
__unwindfunclet$?OnInitDialog@CDlgDataListViewer@@MAEHXZ$2:
  00009	8d 4d ec	 lea	 ecx, DWORD PTR _szTemp$9[ebp]
  0000c	ff 25 00 00 00
	00		 jmp	 DWORD PTR __imp_??1?$CStringT@DV?$StrTraitMFC_DLL@DV?$ChTraitsCRT@D@ATL@@@@@ATL@@QAE@XZ
__unwindfunclet$?OnInitDialog@CDlgDataListViewer@@MAEHXZ$3:
  00012	8d 4d e8	 lea	 ecx, DWORD PTR $T7[ebp]
  00015	ff 25 00 00 00
	00		 jmp	 DWORD PTR __imp_??1?$CStringT@DV?$StrTraitMFC_DLL@DV?$ChTraitsCRT@D@ATL@@@@@ATL@@QAE@XZ
__unwindfunclet$?OnInitDialog@CDlgDataListViewer@@MAEHXZ$4:
  0001b	8d 4d e0	 lea	 ecx, DWORD PTR $T4[ebp]
  0001e	ff 25 00 00 00
	00		 jmp	 DWORD PTR __imp_??1?$CStringT@DV?$StrTraitMFC_DLL@DV?$ChTraitsCRT@D@ATL@@@@@ATL@@QAE@XZ
__unwindfunclet$?OnInitDialog@CDlgDataListViewer@@MAEHXZ$5:
  00024	8d 4d e8	 lea	 ecx, DWORD PTR _szPacketNames$6[ebp]
  00027	ff 25 00 00 00
	00		 jmp	 DWORD PTR __imp_??1?$CStringT@DV?$StrTraitMFC_DLL@DV?$ChTraitsCRT@D@ATL@@@@@ATL@@QAE@XZ
__unwindfunclet$?OnInitDialog@CDlgDataListViewer@@MAEHXZ$6:
  0002d	8d 4d ec	 lea	 ecx, DWORD PTR $T8[ebp]
  00030	ff 25 00 00 00
	00		 jmp	 DWORD PTR __imp_??1?$CStringT@DV?$StrTraitMFC_DLL@DV?$ChTraitsCRT@D@ATL@@@@@ATL@@QAE@XZ
__unwindfunclet$?OnInitDialog@CDlgDataListViewer@@MAEHXZ$7:
  00036	8d 4d e0	 lea	 ecx, DWORD PTR $T3[ebp]
  00039	ff 25 00 00 00
	00		 jmp	 DWORD PTR __imp_??1?$CStringT@DV?$StrTraitMFC_DLL@DV?$ChTraitsCRT@D@ATL@@@@@ATL@@QAE@XZ
__unwindfunclet$?OnInitDialog@CDlgDataListViewer@@MAEHXZ$8:
  0003f	8d 4d e0	 lea	 ecx, DWORD PTR $T2[ebp]
  00042	ff 25 00 00 00
	00		 jmp	 DWORD PTR __imp_??1?$CStringT@DV?$StrTraitMFC_DLL@DV?$ChTraitsCRT@D@ATL@@@@@ATL@@QAE@XZ
__unwindfunclet$?OnInitDialog@CDlgDataListViewer@@MAEHXZ$9:
  00048	8d 4d e4	 lea	 ecx, DWORD PTR $T5[ebp]
  0004b	ff 25 00 00 00
	00		 jmp	 DWORD PTR __imp_??1?$CStringT@DV?$StrTraitMFC_DLL@DV?$ChTraitsCRT@D@ATL@@@@@ATL@@QAE@XZ
__unwindfunclet$?OnInitDialog@CDlgDataListViewer@@MAEHXZ$0:
  00051	8d 4d d8	 lea	 ecx, DWORD PTR _m_ImageList$[ebp]
  00054	e9 00 00 00 00	 jmp	 ??1CImageList@@UAE@XZ	; CImageList::~CImageList
  00059	cc		 int	 3
  0005a	cc		 int	 3
  0005b	cc		 int	 3
  0005c	cc		 int	 3
  0005d	cc		 int	 3
__ehhandler$?OnInitDialog@CDlgDataListViewer@@MAEHXZ:
  0005e	90		 npad	 1
  0005f	90		 npad	 1
  00060	8b 54 24 08	 mov	 edx, DWORD PTR [esp+8]
  00064	8d 42 0c	 lea	 eax, DWORD PTR [edx+12]
  00067	8b 4a d4	 mov	 ecx, DWORD PTR [edx-44]
  0006a	33 c8		 xor	 ecx, eax
  0006c	e8 00 00 00 00	 call	 @__security_check_cookie@4
  00071	b8 00 00 00 00	 mov	 eax, OFFSET __ehfuncinfo$?OnInitDialog@CDlgDataListViewer@@MAEHXZ
  00076	e9 00 00 00 00	 jmp	 ___CxxFrameHandler3
text$x	ENDS
?OnInitDialog@CDlgDataListViewer@@MAEHXZ ENDP		; CDlgDataListViewer::OnInitDialog
; Function compile flags: /Ogtp
; File D:\git\src\IBK\IBK_DRFN\ProjSrc\SrcChartEx\ChartAddIn\ChartDataListViewerAddIn\ChartDataListViewerAddIn\DlgDataListViewer.cpp
;	COMDAT ?DoDataExchange@CDlgDataListViewer@@MAEXPAVCDataExchange@@@Z
_TEXT	SEGMENT
_pDX$ = 8						; size = 4
?DoDataExchange@CDlgDataListViewer@@MAEXPAVCDataExchange@@@Z PROC ; CDlgDataListViewer::DoDataExchange, COMDAT
; _this$ = ecx

; 84   : {

  00000	55		 push	 ebp
  00001	8b ec		 mov	 ebp, esp
  00003	56		 push	 esi

; 85   : 	CDialog::DoDataExchange(pDX);
; 86   : 	//{{AFX_DATA_MAP(CDlgDataListViewer)
; 87   : 	DDX_Control(pDX, IDC_CLIPBOARD, m_btnClipboard);

  00004	8b 75 08	 mov	 esi, DWORD PTR _pDX$[ebp]
  00007	57		 push	 edi
  00008	8b f9		 mov	 edi, ecx
  0000a	8d 87 38 01 00
	00		 lea	 eax, DWORD PTR [edi+312]
  00010	50		 push	 eax
  00011	68 cc 32 00 00	 push	 13004			; 000032ccH
  00016	56		 push	 esi
  00017	e8 00 00 00 00	 call	 ?DDX_Control@@YGXPAVCDataExchange@@HAAVCWnd@@@Z ; DDX_Control

; 88   : 	DDX_Control(pDX, IDC_UPDATE, m_btnUpdate);

  0001c	8d 87 b8 01 00
	00		 lea	 eax, DWORD PTR [edi+440]
  00022	50		 push	 eax
  00023	68 cb 32 00 00	 push	 13003			; 000032cbH
  00028	56		 push	 esi
  00029	e8 00 00 00 00	 call	 ?DDX_Control@@YGXPAVCDataExchange@@HAAVCWnd@@@Z ; DDX_Control

; 89   : 	DDX_Control(pDX, IDC_EXCEL_FILE_EXPORT, m_btnRuntoExcel);

  0002e	8d 87 38 02 00
	00		 lea	 eax, DWORD PTR [edi+568]
  00034	50		 push	 eax
  00035	68 c9 32 00 00	 push	 13001			; 000032c9H
  0003a	56		 push	 esi
  0003b	e8 00 00 00 00	 call	 ?DDX_Control@@YGXPAVCDataExchange@@HAAVCWnd@@@Z ; DDX_Control

; 90   : 	DDX_Control(pDX, IDC_LIST1, m_ctlList);

  00040	8d 87 b8 02 00
	00		 lea	 eax, DWORD PTR [edi+696]
  00046	50		 push	 eax
  00047	68 c8 32 00 00	 push	 13000			; 000032c8H
  0004c	56		 push	 esi
  0004d	e8 00 00 00 00	 call	 ?DDX_Control@@YGXPAVCDataExchange@@HAAVCWnd@@@Z ; DDX_Control

; 91   : 	DDX_Control(pDX, IDC_REVERSE, m_btnReverse);

  00052	8d 87 b8 00 00
	00		 lea	 eax, DWORD PTR [edi+184]
  00058	50		 push	 eax
  00059	68 e8 03 00 00	 push	 1000			; 000003e8H
  0005e	56		 push	 esi
  0005f	e8 00 00 00 00	 call	 ?DDX_Control@@YGXPAVCDataExchange@@HAAVCWnd@@@Z ; DDX_Control
  00064	5f		 pop	 edi
  00065	5e		 pop	 esi

; 92   : 	//}}AFX_DATA_MAP
; 93   : }

  00066	5d		 pop	 ebp
  00067	c2 04 00	 ret	 4
?DoDataExchange@CDlgDataListViewer@@MAEXPAVCDataExchange@@@Z ENDP ; CDlgDataListViewer::DoDataExchange
_TEXT	ENDS
; Function compile flags: /Ogtp
; File D:\git\src\IBK\IBK_DRFN\ProjSrc\SrcChartEx\ChartAddIn\ChartDataListViewerAddIn\ChartDataListViewerAddIn\DlgDataListViewer.cpp
; File C:\Program Files (x86)\Microsoft Visual Studio\2019\Community\VC\Tools\MSVC\14.29.30133\atlmfc\include\afxcoll.inl
; File D:\git\src\IBK\IBK_DRFN\ProjSrc\SrcChartEx\ChartAddIn\ChartDataListViewerAddIn\ChartDataListViewerAddIn\DlgDataListViewer.cpp
; File C:\Program Files (x86)\Microsoft Visual Studio\2019\Community\VC\Tools\MSVC\14.29.30133\atlmfc\include\afxwin1.inl
; File D:\git\src\IBK\IBK_DRFN\ProjSrc\SrcChartEx\ChartAddIn\ChartDataListViewerAddIn\ChartDataListViewerAddIn\DlgDataListViewer.cpp
;	COMDAT ??1CDlgDataListViewer@@UAE@XZ
_TEXT	SEGMENT
__$EHRec$ = -12						; size = 12
??1CDlgDataListViewer@@UAE@XZ PROC			; CDlgDataListViewer::~CDlgDataListViewer, COMDAT
; _this$ = ecx

; 70   : {

  00000	55		 push	 ebp
  00001	8b ec		 mov	 ebp, esp
  00003	6a ff		 push	 -1
  00005	68 00 00 00 00	 push	 __ehhandler$??1CDlgDataListViewer@@UAE@XZ
  0000a	64 a1 00 00 00
	00		 mov	 eax, DWORD PTR fs:0
  00010	50		 push	 eax
  00011	56		 push	 esi
  00012	57		 push	 edi
  00013	a1 00 00 00 00	 mov	 eax, DWORD PTR ___security_cookie
  00018	33 c5		 xor	 eax, ebp
  0001a	50		 push	 eax
  0001b	8d 45 f4	 lea	 eax, DWORD PTR __$EHRec$[ebp]
  0001e	64 a3 00 00 00
	00		 mov	 DWORD PTR fs:0, eax
  00024	8b f9		 mov	 edi, ecx

; 71   : 	if( m_pPacketList) m_pPacketList->Release();

  00026	8b 8f c0 03 00
	00		 mov	 ecx, DWORD PTR [edi+960]
  0002c	c7 07 00 00 00
	00		 mov	 DWORD PTR [edi], OFFSET ??_7CDlgDataListViewer@@6B@
  00032	85 c9		 test	 ecx, ecx
  00034	74 06		 je	 SHORT $LN4@CDlgDataLi
  00036	8b 01		 mov	 eax, DWORD PTR [ecx]
  00038	51		 push	 ecx
  00039	ff 50 08	 call	 DWORD PTR [eax+8]
$LN4@CDlgDataLi:

; 72   : 	POSITION pos = m_DataList.GetHeadPosition();

  0003c	8b b7 fc 03 00
	00		 mov	 esi, DWORD PTR [edi+1020]

; 73   : 	while(pos)

  00042	85 f6		 test	 esi, esi
  00044	74 14		 je	 SHORT $LN3@CDlgDataLi
$LL2@CDlgDataLi:

; 76   : 		delete pData;

  00046	8b 4e 08	 mov	 ecx, DWORD PTR [esi+8]
; File C:\Program Files (x86)\Microsoft Visual Studio\2019\Community\VC\Tools\MSVC\14.29.30133\atlmfc\include\afxcoll.inl

; 432  : 		rPosition = (POSITION) pNode->pNext;

  00049	8b 36		 mov	 esi, DWORD PTR [esi]
; File D:\git\src\IBK\IBK_DRFN\ProjSrc\SrcChartEx\ChartAddIn\ChartDataListViewerAddIn\ChartDataListViewerAddIn\DlgDataListViewer.cpp

; 76   : 		delete pData;

  0004b	85 c9		 test	 ecx, ecx
  0004d	74 07		 je	 SHORT $LN6@CDlgDataLi
  0004f	8b 01		 mov	 eax, DWORD PTR [ecx]
  00051	6a 01		 push	 1
  00053	ff 50 04	 call	 DWORD PTR [eax+4]
$LN6@CDlgDataLi:

; 73   : 	while(pos)

  00056	85 f6		 test	 esi, esi
  00058	75 ec		 jne	 SHORT $LL2@CDlgDataLi
$LN3@CDlgDataLi:

; 77   : 		pData = NULL;
; 78   : 	}
; 79   : 	m_DataList.RemoveAll();

  0005a	8d 8f f8 03 00
	00		 lea	 ecx, DWORD PTR [edi+1016]
  00060	e8 00 00 00 00	 call	 ?RemoveAll@CObList@@QAEXXZ ; CObList::RemoveAll

; 80   : }

  00065	8d 8f 44 04 00
	00		 lea	 ecx, DWORD PTR [edi+1092]
  0006b	ff 15 00 00 00
	00		 call	 DWORD PTR __imp_??1?$CStringT@DV?$StrTraitMFC_DLL@DV?$ChTraitsCRT@D@ATL@@@@@ATL@@QAE@XZ
  00071	8d 8f 1c 04 00
	00		 lea	 ecx, DWORD PTR [edi+1052]
  00077	e8 00 00 00 00	 call	 ??1CObList@@UAE@XZ	; CObList::~CObList
  0007c	8d 8f f8 03 00
	00		 lea	 ecx, DWORD PTR [edi+1016]
  00082	e8 00 00 00 00	 call	 ??1CObList@@UAE@XZ	; CObList::~CObList
  00087	8d 8f e4 03 00
	00		 lea	 ecx, DWORD PTR [edi+996]
  0008d	e8 00 00 00 00	 call	 ??1?$CArray@VCData@@V1@@@UAE@XZ ; CArray<CData,CData>::~CArray<CData,CData>
  00092	8d 8f d8 03 00
	00		 lea	 ecx, DWORD PTR [edi+984]
; File C:\Program Files (x86)\Microsoft Visual Studio\2019\Community\VC\Tools\MSVC\14.29.30133\atlmfc\include\afxwin1.inl

; 130  : 	{ }

  00098	c7 01 00 00 00
	00		 mov	 DWORD PTR [ecx], OFFSET ??_7CBrush@@6B@
  0009e	e8 00 00 00 00	 call	 ??1CGdiObject@@UAE@XZ	; CGdiObject::~CGdiObject
; File D:\git\src\IBK\IBK_DRFN\ProjSrc\SrcChartEx\ChartAddIn\ChartDataListViewerAddIn\ChartDataListViewerAddIn\DlgDataListViewer.cpp

; 80   : }

  000a3	8d 8f d0 03 00
	00		 lea	 ecx, DWORD PTR [edi+976]
  000a9	ff 15 00 00 00
	00		 call	 DWORD PTR __imp_??1?$CStringT@DV?$StrTraitMFC_DLL@DV?$ChTraitsCRT@D@ATL@@@@@ATL@@QAE@XZ
  000af	8d 8f cc 03 00
	00		 lea	 ecx, DWORD PTR [edi+972]
  000b5	ff 15 00 00 00
	00		 call	 DWORD PTR __imp_??1?$CStringT@DV?$StrTraitMFC_DLL@DV?$ChTraitsCRT@D@ATL@@@@@ATL@@QAE@XZ
  000bb	8d 8f c8 03 00
	00		 lea	 ecx, DWORD PTR [edi+968]
  000c1	ff 15 00 00 00
	00		 call	 DWORD PTR __imp_??1?$CStringT@DV?$StrTraitMFC_DLL@DV?$ChTraitsCRT@D@ATL@@@@@ATL@@QAE@XZ
  000c7	8d 8f c4 03 00
	00		 lea	 ecx, DWORD PTR [edi+964]
  000cd	ff 15 00 00 00
	00		 call	 DWORD PTR __imp_??1?$CStringT@DV?$StrTraitMFC_DLL@DV?$ChTraitsCRT@D@ATL@@@@@ATL@@QAE@XZ
  000d3	8d 8f bc 03 00
	00		 lea	 ecx, DWORD PTR [edi+956]
  000d9	ff 15 00 00 00
	00		 call	 DWORD PTR __imp_??1?$CStringT@DV?$StrTraitMFC_DLL@DV?$ChTraitsCRT@D@ATL@@@@@ATL@@QAE@XZ
  000df	8d 8f 38 03 00
	00		 lea	 ecx, DWORD PTR [edi+824]
  000e5	e8 00 00 00 00	 call	 ??1CHeaderCtrlEx@@UAE@XZ ; CHeaderCtrlEx::~CHeaderCtrlEx
  000ea	8d 8f b8 02 00
	00		 lea	 ecx, DWORD PTR [edi+696]
  000f0	e8 00 00 00 00	 call	 ??1CListCtrl@@UAE@XZ	; CListCtrl::~CListCtrl
  000f5	8d 8f 38 02 00
	00		 lea	 ecx, DWORD PTR [edi+568]
  000fb	e8 00 00 00 00	 call	 ??1CButton@@UAE@XZ	; CButton::~CButton
  00100	8d 8f b8 01 00
	00		 lea	 ecx, DWORD PTR [edi+440]
  00106	e8 00 00 00 00	 call	 ??1CButton@@UAE@XZ	; CButton::~CButton
  0010b	8d 8f 38 01 00
	00		 lea	 ecx, DWORD PTR [edi+312]
  00111	e8 00 00 00 00	 call	 ??1CButton@@UAE@XZ	; CButton::~CButton
  00116	8d 8f b8 00 00
	00		 lea	 ecx, DWORD PTR [edi+184]
  0011c	e8 00 00 00 00	 call	 ??1CButton@@UAE@XZ	; CButton::~CButton
  00121	8b cf		 mov	 ecx, edi
  00123	e8 00 00 00 00	 call	 ??1CDialog@@UAE@XZ	; CDialog::~CDialog
  00128	8b 4d f4	 mov	 ecx, DWORD PTR __$EHRec$[ebp]
  0012b	64 89 0d 00 00
	00 00		 mov	 DWORD PTR fs:0, ecx
  00132	59		 pop	 ecx
  00133	5f		 pop	 edi
  00134	5e		 pop	 esi
  00135	8b e5		 mov	 esp, ebp
  00137	5d		 pop	 ebp
  00138	c3		 ret	 0
  00139	cc		 int	 3
  0013a	cc		 int	 3
  0013b	cc		 int	 3
  0013c	cc		 int	 3
  0013d	cc		 int	 3
_TEXT	ENDS
;	COMDAT text$x
text$x	SEGMENT
__ehhandler$??1CDlgDataListViewer@@UAE@XZ:
  00000	90		 npad	 1
  00001	90		 npad	 1
  00002	8b 54 24 08	 mov	 edx, DWORD PTR [esp+8]
  00006	8d 42 0c	 lea	 eax, DWORD PTR [edx+12]
  00009	8b 4a f4	 mov	 ecx, DWORD PTR [edx-12]
  0000c	33 c8		 xor	 ecx, eax
  0000e	e8 00 00 00 00	 call	 @__security_check_cookie@4
  00013	b8 00 00 00 00	 mov	 eax, OFFSET __ehfuncinfo$??1CDlgDataListViewer@@UAE@XZ
  00018	e9 00 00 00 00	 jmp	 ___CxxFrameHandler3
text$x	ENDS
??1CDlgDataListViewer@@UAE@XZ ENDP			; CDlgDataListViewer::~CDlgDataListViewer
; Function compile flags: /Ogtp
; File D:\git\src\IBK\IBK_DRFN\ProjSrc\SrcChartEx\ChartAddIn\ChartDataListViewerAddIn\ChartDataListViewerAddIn\DlgDataListViewer.cpp
; File C:\Program Files (x86)\Microsoft Visual Studio\2019\Community\VC\Tools\MSVC\14.29.30133\atlmfc\include\afxwin2.inl
; File D:\git\src\IBK\IBK_DRFN\ProjSrc\SrcChartEx\ChartAddIn\ChartDataListViewerAddIn\ChartDataListViewerAddIn\DlgDataListViewer.cpp
; File C:\Program Files (x86)\Microsoft Visual Studio\2019\Community\VC\Tools\MSVC\14.29.30133\atlmfc\include\afxwin2.inl
; File D:\git\src\IBK\IBK_DRFN\ProjSrc\SrcChartEx\ChartAddIn\ChartDataListViewerAddIn\ChartDataListViewerAddIn\DlgDataListViewer.cpp
; File C:\Program Files (x86)\Microsoft Visual Studio\2019\Community\VC\Tools\MSVC\14.29.30133\atlmfc\include\afxwin2.inl
; File D:\git\src\IBK\IBK_DRFN\ProjSrc\SrcChartEx\ChartAddIn\ChartDataListViewerAddIn\ChartDataListViewerAddIn\DlgDataListViewer.cpp
; File C:\Program Files (x86)\Microsoft Visual Studio\2019\Community\VC\Tools\MSVC\14.29.30133\atlmfc\include\afxwin2.inl
; File D:\git\src\IBK\IBK_DRFN\ProjSrc\SrcChartEx\ChartAddIn\ChartDataListViewerAddIn\ChartDataListViewerAddIn\DlgDataListViewer.cpp
; File C:\Program Files (x86)\Microsoft Visual Studio\2019\Community\VC\Tools\MSVC\14.29.30133\atlmfc\include\afxwin2.inl
; File D:\git\src\IBK\IBK_DRFN\ProjSrc\SrcChartEx\ChartAddIn\ChartDataListViewerAddIn\ChartDataListViewerAddIn\DlgDataListViewer.cpp
; File C:\Program Files (x86)\Microsoft Visual Studio\2019\Community\VC\Tools\MSVC\14.29.30133\atlmfc\include\afxwin2.inl
; File D:\git\src\IBK\IBK_DRFN\ProjSrc\SrcChartEx\ChartAddIn\ChartDataListViewerAddIn\ChartDataListViewerAddIn\DlgDataListViewer.cpp
; File C:\Program Files (x86)\Microsoft Visual Studio\2019\Community\VC\Tools\MSVC\14.29.30133\atlmfc\include\afxwin2.inl
; File D:\git\src\IBK\IBK_DRFN\ProjSrc\SrcChartEx\ChartAddIn\ChartDataListViewerAddIn\ChartDataListViewerAddIn\DlgDataListViewer.cpp
; File C:\Program Files (x86)\Microsoft Visual Studio\2019\Community\VC\Tools\MSVC\14.29.30133\atlmfc\include\afxwin2.inl
; File D:\git\src\IBK\IBK_DRFN\ProjSrc\SrcChartEx\ChartAddIn\ChartDataListViewerAddIn\ChartDataListViewerAddIn\DlgDataListViewer.cpp
; File C:\Program Files (x86)\Microsoft Visual Studio\2019\Community\VC\Tools\MSVC\14.29.30133\atlmfc\include\afxcmn.inl
; File D:\git\src\IBK\IBK_DRFN\ProjSrc\SrcChartEx\ChartAddIn\ChartDataListViewerAddIn\ChartDataListViewerAddIn\DlgDataListViewer.cpp
; File C:\Program Files (x86)\Microsoft Visual Studio\2019\Community\VC\Tools\MSVC\14.29.30133\atlmfc\include\afxcmn.inl
; File D:\git\src\IBK\IBK_DRFN\ProjSrc\SrcChartEx\ChartAddIn\ChartDataListViewerAddIn\ChartDataListViewerAddIn\DlgDataListViewer.cpp
; File C:\Program Files (x86)\Microsoft Visual Studio\2019\Community\VC\Tools\MSVC\14.29.30133\atlmfc\include\afxwin1.inl
; File C:\Program Files (x86)\Microsoft Visual Studio\2019\Community\VC\Tools\MSVC\14.29.30133\atlmfc\include\afxtempl.h
; File D:\git\src\IBK\IBK_DRFN\ProjSrc\SrcChartEx\ChartAddIn\ChartDataListViewerAddIn\ChartDataListViewerAddIn\DlgDataListViewer.cpp
; File C:\Program Files (x86)\Microsoft Visual Studio\2019\Community\VC\Tools\MSVC\14.29.30133\atlmfc\include\afxwin1.inl
; File D:\git\src\IBK\IBK_DRFN\ProjSrc\SrcChartEx\ChartAddIn\ChartDataListViewerAddIn\ChartDataListViewerAddIn\DlgDataListViewer.cpp
; File C:\Program Files (x86)\Microsoft Visual Studio\2019\Community\VC\Tools\MSVC\14.29.30133\atlmfc\include\afxwin1.inl
; File D:\git\src\IBK\IBK_DRFN\ProjSrc\SrcChartEx\ChartAddIn\ChartDataListViewerAddIn\ChartDataListViewerAddIn\DlgDataListViewer.cpp
;	COMDAT ??0CDlgDataListViewer@@QAE@PAVCWnd@@ABV?$CStringT@DV?$StrTraitMFC_DLL@DV?$ChTraitsCRT@D@ATL@@@@@ATL@@111PBD1_NPAVCChartDataListViewerAddInImp@@PAUHWND__@@W4CHART_MODE@CChartInfo@@@Z
_TEXT	SEGMENT
_this$ = -20						; size = 4
_this$ = -20						; size = 4
_this$ = -20						; size = 4
_this$ = -20						; size = 4
_this$ = -20						; size = 4
_this$ = -16						; size = 4
__$EHRec$ = -12						; size = 12
_pParent$ = 8						; size = 4
_strTitle$ = 12						; size = 4
_strHorzScale$ = 16					; size = 4
_strPacketNamesPerBlock$ = 20				; size = 4
_strPacketNames$ = 24					; size = 4
_p_szSaveFilePath$ = 28					; size = 4
_strRQs$ = 32						; size = 4
_bViewPacketSequence$ = 36				; size = 1
_pAddIn$ = 40						; size = 4
_p_hOcxWnd$ = 44					; size = 4
_p_eChartMode$ = 48					; size = 4
??0CDlgDataListViewer@@QAE@PAVCWnd@@ABV?$CStringT@DV?$StrTraitMFC_DLL@DV?$ChTraitsCRT@D@ATL@@@@@ATL@@111PBD1_NPAVCChartDataListViewerAddInImp@@PAUHWND__@@W4CHART_MODE@CChartInfo@@@Z PROC ; CDlgDataListViewer::CDlgDataListViewer, COMDAT
; _this$ = ecx

; 35   : {

  00000	55		 push	 ebp
  00001	8b ec		 mov	 ebp, esp
  00003	6a ff		 push	 -1
  00005	68 00 00 00 00	 push	 __ehhandler$??0CDlgDataListViewer@@QAE@PAVCWnd@@ABV?$CStringT@DV?$StrTraitMFC_DLL@DV?$ChTraitsCRT@D@ATL@@@@@ATL@@111PBD1_NPAVCChartDataListViewerAddInImp@@PAUHWND__@@W4CHART_MODE@CChartInfo@@@Z
  0000a	64 a1 00 00 00
	00		 mov	 eax, DWORD PTR fs:0
  00010	50		 push	 eax
  00011	83 ec 08	 sub	 esp, 8
  00014	53		 push	 ebx
  00015	56		 push	 esi
  00016	57		 push	 edi
  00017	a1 00 00 00 00	 mov	 eax, DWORD PTR ___security_cookie
  0001c	33 c5		 xor	 eax, ebp
  0001e	50		 push	 eax
  0001f	8d 45 f4	 lea	 eax, DWORD PTR __$EHRec$[ebp]
  00022	64 a3 00 00 00
	00		 mov	 DWORD PTR fs:0, eax
  00028	8b d9		 mov	 ebx, ecx
  0002a	89 5d f0	 mov	 DWORD PTR _this$[ebp], ebx

; 34   : 	: CDialog(CDlgDataListViewer::IDD, pParent)

  0002d	ff 75 08	 push	 DWORD PTR _pParent$[ebp]
  00030	68 c8 32 00 00	 push	 13000			; 000032c8H
  00035	e8 00 00 00 00	 call	 ??0CDialog@@QAE@IPAVCWnd@@@Z ; CDialog::CDialog

; 35   : {

  0003a	8d b3 b8 00 00
	00		 lea	 esi, DWORD PTR [ebx+184]
  00040	c7 45 fc 00 00
	00 00		 mov	 DWORD PTR __$EHRec$[ebp+8], 0
; File C:\Program Files (x86)\Microsoft Visual Studio\2019\Community\VC\Tools\MSVC\14.29.30133\atlmfc\include\afxwin2.inl

; 622  : 	{ }

  00047	8b ce		 mov	 ecx, esi
; File D:\git\src\IBK\IBK_DRFN\ProjSrc\SrcChartEx\ChartAddIn\ChartDataListViewerAddIn\ChartDataListViewerAddIn\DlgDataListViewer.cpp

; 35   : {

  00049	c7 03 00 00 00
	00		 mov	 DWORD PTR [ebx], OFFSET ??_7CDlgDataListViewer@@6B@
  0004f	89 75 ec	 mov	 DWORD PTR _this$[ebp], esi
; File C:\Program Files (x86)\Microsoft Visual Studio\2019\Community\VC\Tools\MSVC\14.29.30133\atlmfc\include\afxwin2.inl

; 622  : 	{ }

  00052	e8 00 00 00 00	 call	 ??0CWnd@@QAE@XZ		; CWnd::CWnd
  00057	c7 06 00 00 00
	00		 mov	 DWORD PTR [esi], OFFSET ??_7CButton@@6B@
; File D:\git\src\IBK\IBK_DRFN\ProjSrc\SrcChartEx\ChartAddIn\ChartDataListViewerAddIn\ChartDataListViewerAddIn\DlgDataListViewer.cpp

; 35   : {

  0005d	8d b3 38 01 00
	00		 lea	 esi, DWORD PTR [ebx+312]
  00063	c6 45 fc 01	 mov	 BYTE PTR __$EHRec$[ebp+8], 1
; File C:\Program Files (x86)\Microsoft Visual Studio\2019\Community\VC\Tools\MSVC\14.29.30133\atlmfc\include\afxwin2.inl

; 622  : 	{ }

  00067	8b ce		 mov	 ecx, esi
; File D:\git\src\IBK\IBK_DRFN\ProjSrc\SrcChartEx\ChartAddIn\ChartDataListViewerAddIn\ChartDataListViewerAddIn\DlgDataListViewer.cpp

; 35   : {

  00069	89 75 ec	 mov	 DWORD PTR _this$[ebp], esi
; File C:\Program Files (x86)\Microsoft Visual Studio\2019\Community\VC\Tools\MSVC\14.29.30133\atlmfc\include\afxwin2.inl

; 622  : 	{ }

  0006c	e8 00 00 00 00	 call	 ??0CWnd@@QAE@XZ		; CWnd::CWnd
  00071	c7 06 00 00 00
	00		 mov	 DWORD PTR [esi], OFFSET ??_7CButton@@6B@
; File D:\git\src\IBK\IBK_DRFN\ProjSrc\SrcChartEx\ChartAddIn\ChartDataListViewerAddIn\ChartDataListViewerAddIn\DlgDataListViewer.cpp

; 35   : {

  00077	8d b3 b8 01 00
	00		 lea	 esi, DWORD PTR [ebx+440]
  0007d	c6 45 fc 02	 mov	 BYTE PTR __$EHRec$[ebp+8], 2
; File C:\Program Files (x86)\Microsoft Visual Studio\2019\Community\VC\Tools\MSVC\14.29.30133\atlmfc\include\afxwin2.inl

; 622  : 	{ }

  00081	8b ce		 mov	 ecx, esi
; File D:\git\src\IBK\IBK_DRFN\ProjSrc\SrcChartEx\ChartAddIn\ChartDataListViewerAddIn\ChartDataListViewerAddIn\DlgDataListViewer.cpp

; 35   : {

  00083	89 75 ec	 mov	 DWORD PTR _this$[ebp], esi
; File C:\Program Files (x86)\Microsoft Visual Studio\2019\Community\VC\Tools\MSVC\14.29.30133\atlmfc\include\afxwin2.inl

; 622  : 	{ }

  00086	e8 00 00 00 00	 call	 ??0CWnd@@QAE@XZ		; CWnd::CWnd
  0008b	c7 06 00 00 00
	00		 mov	 DWORD PTR [esi], OFFSET ??_7CButton@@6B@
; File D:\git\src\IBK\IBK_DRFN\ProjSrc\SrcChartEx\ChartAddIn\ChartDataListViewerAddIn\ChartDataListViewerAddIn\DlgDataListViewer.cpp

; 35   : {

  00091	8d b3 38 02 00
	00		 lea	 esi, DWORD PTR [ebx+568]
  00097	c6 45 fc 03	 mov	 BYTE PTR __$EHRec$[ebp+8], 3
; File C:\Program Files (x86)\Microsoft Visual Studio\2019\Community\VC\Tools\MSVC\14.29.30133\atlmfc\include\afxwin2.inl

; 622  : 	{ }

  0009b	8b ce		 mov	 ecx, esi
; File D:\git\src\IBK\IBK_DRFN\ProjSrc\SrcChartEx\ChartAddIn\ChartDataListViewerAddIn\ChartDataListViewerAddIn\DlgDataListViewer.cpp

; 35   : {

  0009d	89 75 ec	 mov	 DWORD PTR _this$[ebp], esi
; File C:\Program Files (x86)\Microsoft Visual Studio\2019\Community\VC\Tools\MSVC\14.29.30133\atlmfc\include\afxwin2.inl

; 622  : 	{ }

  000a0	e8 00 00 00 00	 call	 ??0CWnd@@QAE@XZ		; CWnd::CWnd
  000a5	c7 06 00 00 00
	00		 mov	 DWORD PTR [esi], OFFSET ??_7CButton@@6B@
; File D:\git\src\IBK\IBK_DRFN\ProjSrc\SrcChartEx\ChartAddIn\ChartDataListViewerAddIn\ChartDataListViewerAddIn\DlgDataListViewer.cpp

; 35   : {

  000ab	8d b3 b8 02 00
	00		 lea	 esi, DWORD PTR [ebx+696]
  000b1	c6 45 fc 04	 mov	 BYTE PTR __$EHRec$[ebp+8], 4
; File C:\Program Files (x86)\Microsoft Visual Studio\2019\Community\VC\Tools\MSVC\14.29.30133\atlmfc\include\afxcmn.inl

; 141  : 	{ }

  000b5	8b ce		 mov	 ecx, esi
; File D:\git\src\IBK\IBK_DRFN\ProjSrc\SrcChartEx\ChartAddIn\ChartDataListViewerAddIn\ChartDataListViewerAddIn\DlgDataListViewer.cpp

; 35   : {

  000b7	89 75 ec	 mov	 DWORD PTR _this$[ebp], esi
; File C:\Program Files (x86)\Microsoft Visual Studio\2019\Community\VC\Tools\MSVC\14.29.30133\atlmfc\include\afxcmn.inl

; 141  : 	{ }

  000ba	e8 00 00 00 00	 call	 ??0CWnd@@QAE@XZ		; CWnd::CWnd
  000bf	c7 06 00 00 00
	00		 mov	 DWORD PTR [esi], OFFSET ??_7CListCtrl@@6B@
; File D:\git\src\IBK\IBK_DRFN\ProjSrc\SrcChartEx\ChartAddIn\ChartDataListViewerAddIn\ChartDataListViewerAddIn\DlgDataListViewer.cpp

; 35   : {

  000c5	8d 8b 38 03 00
	00		 lea	 ecx, DWORD PTR [ebx+824]
  000cb	c6 45 fc 05	 mov	 BYTE PTR __$EHRec$[ebp+8], 5
  000cf	e8 00 00 00 00	 call	 ??0CHeaderCtrlEx@@QAE@XZ ; CHeaderCtrlEx::CHeaderCtrlEx
  000d4	8d 8b bc 03 00
	00		 lea	 ecx, DWORD PTR [ebx+956]
  000da	ff 15 00 00 00
	00		 call	 DWORD PTR __imp_??0?$CStringT@DV?$StrTraitMFC_DLL@DV?$ChTraitsCRT@D@ATL@@@@@ATL@@QAE@XZ
  000e0	8d 8b c4 03 00
	00		 lea	 ecx, DWORD PTR [ebx+964]
  000e6	ff 15 00 00 00
	00		 call	 DWORD PTR __imp_??0?$CStringT@DV?$StrTraitMFC_DLL@DV?$ChTraitsCRT@D@ATL@@@@@ATL@@QAE@XZ
  000ec	8d 8b c8 03 00
	00		 lea	 ecx, DWORD PTR [ebx+968]
  000f2	ff 15 00 00 00
	00		 call	 DWORD PTR __imp_??0?$CStringT@DV?$StrTraitMFC_DLL@DV?$ChTraitsCRT@D@ATL@@@@@ATL@@QAE@XZ
  000f8	8d 8b cc 03 00
	00		 lea	 ecx, DWORD PTR [ebx+972]
  000fe	ff 15 00 00 00
	00		 call	 DWORD PTR __imp_??0?$CStringT@DV?$StrTraitMFC_DLL@DV?$ChTraitsCRT@D@ATL@@@@@ATL@@QAE@XZ
  00104	8b f3		 mov	 esi, ebx
  00106	8d 8e d0 03 00
	00		 lea	 ecx, DWORD PTR [esi+976]
  0010c	ff 15 00 00 00
	00		 call	 DWORD PTR __imp_??0?$CStringT@DV?$StrTraitMFC_DLL@DV?$ChTraitsCRT@D@ATL@@@@@ATL@@QAE@XZ
; File C:\Program Files (x86)\Microsoft Visual Studio\2019\Community\VC\Tools\MSVC\14.29.30133\atlmfc\include\afxwin1.inl

; 70   : 	{ m_hObject = NULL; }

  00112	c7 86 dc 03 00
	00 00 00 00 00	 mov	 DWORD PTR [esi+988], 0

; 128  : 	{ }

  0011c	c7 86 d8 03 00
	00 00 00 00 00	 mov	 DWORD PTR [esi+984], OFFSET ??_7CBrush@@6B@
; File C:\Program Files (x86)\Microsoft Visual Studio\2019\Community\VC\Tools\MSVC\14.29.30133\atlmfc\include\afxtempl.h

; 348  : {

  00126	c7 86 e4 03 00
	00 00 00 00 00	 mov	 DWORD PTR [esi+996], OFFSET ??_7?$CArray@VCData@@V1@@@6B@

; 349  : 	m_pData = NULL;

  00130	c7 86 e8 03 00
	00 00 00 00 00	 mov	 DWORD PTR [esi+1000], 0

; 350  : 	m_nSize = m_nMaxSize = m_nGrowBy = 0;

  0013a	c7 86 f4 03 00
	00 00 00 00 00	 mov	 DWORD PTR [esi+1012], 0
  00144	c7 86 f0 03 00
	00 00 00 00 00	 mov	 DWORD PTR [esi+1008], 0
  0014e	c7 86 ec 03 00
	00 00 00 00 00	 mov	 DWORD PTR [esi+1004], 0
; File D:\git\src\IBK\IBK_DRFN\ProjSrc\SrcChartEx\ChartAddIn\ChartDataListViewerAddIn\ChartDataListViewerAddIn\DlgDataListViewer.cpp

; 35   : {

  00158	6a 0a		 push	 10			; 0000000aH
  0015a	8d 8e f8 03 00
	00		 lea	 ecx, DWORD PTR [esi+1016]
  00160	c6 45 fc 0d	 mov	 BYTE PTR __$EHRec$[ebp+8], 13 ; 0000000dH
  00164	e8 00 00 00 00	 call	 ??0CObList@@QAE@H@Z	; CObList::CObList
  00169	6a 0a		 push	 10			; 0000000aH
  0016b	8d 8e 1c 04 00
	00		 lea	 ecx, DWORD PTR [esi+1052]
  00171	c6 45 fc 0e	 mov	 BYTE PTR __$EHRec$[ebp+8], 14 ; 0000000eH
  00175	e8 00 00 00 00	 call	 ??0CObList@@QAE@H@Z	; CObList::CObList
  0017a	8d 8e 44 04 00
	00		 lea	 ecx, DWORD PTR [esi+1092]
  00180	ff 15 00 00 00
	00		 call	 DWORD PTR __imp_??0?$CStringT@DV?$StrTraitMFC_DLL@DV?$ChTraitsCRT@D@ATL@@@@@ATL@@QAE@XZ

; 36   : 	//{{AFX_DATA_INIT(CDlgDataListViewer)
; 37   : 	m_pOcxWnd = pParent;

  00186	8b 45 08	 mov	 eax, DWORD PTR _pParent$[ebp]
  00189	8b cb		 mov	 ecx, ebx

; 38   : 	m_bReverse = FALSE;
; 39   : 	//}}AFX_DATA_INIT
; 40   : 
; 41   : 	m_strTitles = strTitle;

  0018b	ff 75 0c	 push	 DWORD PTR _strTitle$[ebp]
  0018e	c6 45 fc 10	 mov	 BYTE PTR __$EHRec$[ebp+8], 16 ; 00000010H
  00192	89 81 d4 03 00
	00		 mov	 DWORD PTR [ecx+980], eax
  00198	c7 81 40 04 00
	00 00 00 00 00	 mov	 DWORD PTR [ecx+1088], 0
  001a2	8d 8b c4 03 00
	00		 lea	 ecx, DWORD PTR [ebx+964]
  001a8	ff 15 00 00 00
	00		 call	 DWORD PTR __imp_??4?$CStringT@DV?$StrTraitMFC_DLL@DV?$ChTraitsCRT@D@ATL@@@@@ATL@@QAEAAV01@ABV01@@Z

; 42   : 	m_strHorzScale = strHorzScale;

  001ae	ff 75 10	 push	 DWORD PTR _strHorzScale$[ebp]
  001b1	8b fb		 mov	 edi, ebx
  001b3	8d 8f bc 03 00
	00		 lea	 ecx, DWORD PTR [edi+956]
  001b9	ff 15 00 00 00
	00		 call	 DWORD PTR __imp_??4?$CStringT@DV?$StrTraitMFC_DLL@DV?$ChTraitsCRT@D@ATL@@@@@ATL@@QAEAAV01@ABV01@@Z

; 43   : 	m_strPacketNamesPerBlock = strPacketNamesPerBlock;

  001bf	ff 75 14	 push	 DWORD PTR _strPacketNamesPerBlock$[ebp]
  001c2	8d 8b cc 03 00
	00		 lea	 ecx, DWORD PTR [ebx+972]
  001c8	ff 15 00 00 00
	00		 call	 DWORD PTR __imp_??4?$CStringT@DV?$StrTraitMFC_DLL@DV?$ChTraitsCRT@D@ATL@@@@@ATL@@QAEAAV01@ABV01@@Z

; 44   : 	m_strPacketNames = strPacketNames;

  001ce	ff 75 18	 push	 DWORD PTR _strPacketNames$[ebp]
  001d1	8d 8f c8 03 00
	00		 lea	 ecx, DWORD PTR [edi+968]
  001d7	ff 15 00 00 00
	00		 call	 DWORD PTR __imp_??4?$CStringT@DV?$StrTraitMFC_DLL@DV?$ChTraitsCRT@D@ATL@@@@@ATL@@QAEAAV01@ABV01@@Z

; 45   : 	m_strFilePath = p_szSaveFilePath;

  001dd	ff 75 1c	 push	 DWORD PTR _p_szSaveFilePath$[ebp]
  001e0	8d 8f d0 03 00
	00		 lea	 ecx, DWORD PTR [edi+976]
  001e6	ff 15 00 00 00
	00		 call	 DWORD PTR __imp_??4?$CStringT@DV?$StrTraitMFC_DLL@DV?$ChTraitsCRT@D@ATL@@@@@ATL@@QAEAAV01@PBD@Z

; 46   : 	m_bViewPacketSequence = bViewPacketSequence;

  001ec	8a 45 24	 mov	 al, BYTE PTR _bViewPacketSequence$[ebp]
; File C:\Program Files (x86)\Microsoft Visual Studio\2019\Community\VC\Tools\MSVC\14.29.30133\atlmfc\include\afxwin1.inl

; 132  : 	{ return Attach(::CreateSolidBrush(crColor)); }

  001ef	68 c8 c8 c8 00	 push	 13158600		; 00c8c8c8H
; File D:\git\src\IBK\IBK_DRFN\ProjSrc\SrcChartEx\ChartAddIn\ChartDataListViewerAddIn\ChartDataListViewerAddIn\DlgDataListViewer.cpp

; 46   : 	m_bViewPacketSequence = bViewPacketSequence;

  001f4	88 87 b8 03 00
	00		 mov	 BYTE PTR [edi+952], al
; File C:\Program Files (x86)\Microsoft Visual Studio\2019\Community\VC\Tools\MSVC\14.29.30133\atlmfc\include\afxwin1.inl

; 132  : 	{ return Attach(::CreateSolidBrush(crColor)); }

  001fa	ff 15 00 00 00
	00		 call	 DWORD PTR __imp__CreateSolidBrush@4
  00200	50		 push	 eax
  00201	8d 8f d8 03 00
	00		 lea	 ecx, DWORD PTR [edi+984]
  00207	e8 00 00 00 00	 call	 ?Attach@CGdiObject@@QAEHPAX@Z ; CGdiObject::Attach
; File D:\git\src\IBK\IBK_DRFN\ProjSrc\SrcChartEx\ChartAddIn\ChartDataListViewerAddIn\ChartDataListViewerAddIn\DlgDataListViewer.cpp

; 56   : 	m_strRQs = strRQs;

  0020c	ff 75 20	 push	 DWORD PTR _strRQs$[ebp]
  0020f	8d 8e 44 04 00
	00		 lea	 ecx, DWORD PTR [esi+1092]
  00215	c7 87 e0 03 00
	00 00 00 00 00	 mov	 DWORD PTR [edi+992], 0
  0021f	c7 87 c0 03 00
	00 00 00 00 00	 mov	 DWORD PTR [edi+960], 0
  00229	c7 87 b4 00 00
	00 00 00 00 00	 mov	 DWORD PTR [edi+180], 0
  00233	c7 87 40 04 00
	00 00 00 00 00	 mov	 DWORD PTR [edi+1088], 0
  0023d	c7 87 b0 00 00
	00 ff ff ff ff	 mov	 DWORD PTR [edi+176], -1
  00247	ff 15 00 00 00
	00		 call	 DWORD PTR __imp_??4?$CStringT@DV?$StrTraitMFC_DLL@DV?$ChTraitsCRT@D@ATL@@@@@ATL@@QAEAAV01@ABV01@@Z

; 57   : 
; 58   : 	//20081023  >>
; 59   : 	m_pAddInImp = pAddIn;

  0024d	8b 45 28	 mov	 eax, DWORD PTR _pAddIn$[ebp]
  00250	89 87 ac 00 00
	00		 mov	 DWORD PTR [edi+172], eax

; 60   : 	m_pDataListViewMngWnd = pParent;

  00256	8b 45 08	 mov	 eax, DWORD PTR _pParent$[ebp]
  00259	89 87 a8 00 00
	00		 mov	 DWORD PTR [edi+168], eax

; 61   : 	//20081023  <<
; 62   : 
; 63   : 	// (2008/5/14 - Seung-Won, Bae) for Multi-Language of Special Date or Price Unit Text
; 64   : 	m_hOcxWnd = p_hOcxWnd;

  0025f	8b 45 2c	 mov	 eax, DWORD PTR _p_hOcxWnd$[ebp]
  00262	89 87 48 04 00
	00		 mov	 DWORD PTR [edi+1096], eax

; 65   : 
; 66   : 	// (2009/9/15 - Seung-Won, Bae) Do not support special time for WorldOn.
; 67   : 	m_eChartMode = p_eChartMode;

  00268	8b 45 30	 mov	 eax, DWORD PTR _p_eChartMode$[ebp]
  0026b	89 87 4c 04 00
	00		 mov	 DWORD PTR [edi+1100], eax

; 68   : }

  00271	8b c7		 mov	 eax, edi
  00273	8b 4d f4	 mov	 ecx, DWORD PTR __$EHRec$[ebp]
  00276	64 89 0d 00 00
	00 00		 mov	 DWORD PTR fs:0, ecx
  0027d	59		 pop	 ecx
  0027e	5f		 pop	 edi
  0027f	5e		 pop	 esi
  00280	5b		 pop	 ebx
  00281	8b e5		 mov	 esp, ebp
  00283	5d		 pop	 ebp
  00284	c2 2c 00	 ret	 44			; 0000002cH
_TEXT	ENDS
;	COMDAT text$x
text$x	SEGMENT
__unwindfunclet$??0CDlgDataListViewer@@QAE@PAVCWnd@@ABV?$CStringT@DV?$StrTraitMFC_DLL@DV?$ChTraitsCRT@D@ATL@@@@@ATL@@111PBD1_NPAVCChartDataListViewerAddInImp@@PAUHWND__@@W4CHART_MODE@CChartInfo@@@Z$0:
  00000	8b 4d f0	 mov	 ecx, DWORD PTR _this$[ebp]
  00003	e9 00 00 00 00	 jmp	 ??1CDialog@@UAE@XZ	; CDialog::~CDialog
__unwindfunclet$??0CDlgDataListViewer@@QAE@PAVCWnd@@ABV?$CStringT@DV?$StrTraitMFC_DLL@DV?$ChTraitsCRT@D@ATL@@@@@ATL@@111PBD1_NPAVCChartDataListViewerAddInImp@@PAUHWND__@@W4CHART_MODE@CChartInfo@@@Z$1:
  00008	8b 4d f0	 mov	 ecx, DWORD PTR _this$[ebp]
  0000b	81 c1 b8 00 00
	00		 add	 ecx, 184		; 000000b8H
  00011	e9 00 00 00 00	 jmp	 ??1CButton@@UAE@XZ	; CButton::~CButton
__unwindfunclet$??0CDlgDataListViewer@@QAE@PAVCWnd@@ABV?$CStringT@DV?$StrTraitMFC_DLL@DV?$ChTraitsCRT@D@ATL@@@@@ATL@@111PBD1_NPAVCChartDataListViewerAddInImp@@PAUHWND__@@W4CHART_MODE@CChartInfo@@@Z$2:
  00016	8b 4d f0	 mov	 ecx, DWORD PTR _this$[ebp]
  00019	81 c1 38 01 00
	00		 add	 ecx, 312		; 00000138H
  0001f	e9 00 00 00 00	 jmp	 ??1CButton@@UAE@XZ	; CButton::~CButton
__unwindfunclet$??0CDlgDataListViewer@@QAE@PAVCWnd@@ABV?$CStringT@DV?$StrTraitMFC_DLL@DV?$ChTraitsCRT@D@ATL@@@@@ATL@@111PBD1_NPAVCChartDataListViewerAddInImp@@PAUHWND__@@W4CHART_MODE@CChartInfo@@@Z$3:
  00024	8b 4d f0	 mov	 ecx, DWORD PTR _this$[ebp]
  00027	81 c1 b8 01 00
	00		 add	 ecx, 440		; 000001b8H
  0002d	e9 00 00 00 00	 jmp	 ??1CButton@@UAE@XZ	; CButton::~CButton
__unwindfunclet$??0CDlgDataListViewer@@QAE@PAVCWnd@@ABV?$CStringT@DV?$StrTraitMFC_DLL@DV?$ChTraitsCRT@D@ATL@@@@@ATL@@111PBD1_NPAVCChartDataListViewerAddInImp@@PAUHWND__@@W4CHART_MODE@CChartInfo@@@Z$4:
  00032	8b 4d f0	 mov	 ecx, DWORD PTR _this$[ebp]
  00035	81 c1 38 02 00
	00		 add	 ecx, 568		; 00000238H
  0003b	e9 00 00 00 00	 jmp	 ??1CButton@@UAE@XZ	; CButton::~CButton
__unwindfunclet$??0CDlgDataListViewer@@QAE@PAVCWnd@@ABV?$CStringT@DV?$StrTraitMFC_DLL@DV?$ChTraitsCRT@D@ATL@@@@@ATL@@111PBD1_NPAVCChartDataListViewerAddInImp@@PAUHWND__@@W4CHART_MODE@CChartInfo@@@Z$5:
  00040	8b 4d f0	 mov	 ecx, DWORD PTR _this$[ebp]
  00043	81 c1 b8 02 00
	00		 add	 ecx, 696		; 000002b8H
  00049	e9 00 00 00 00	 jmp	 ??1CListCtrl@@UAE@XZ	; CListCtrl::~CListCtrl
__unwindfunclet$??0CDlgDataListViewer@@QAE@PAVCWnd@@ABV?$CStringT@DV?$StrTraitMFC_DLL@DV?$ChTraitsCRT@D@ATL@@@@@ATL@@111PBD1_NPAVCChartDataListViewerAddInImp@@PAUHWND__@@W4CHART_MODE@CChartInfo@@@Z$6:
  0004e	8b 4d f0	 mov	 ecx, DWORD PTR _this$[ebp]
  00051	81 c1 38 03 00
	00		 add	 ecx, 824		; 00000338H
  00057	e9 00 00 00 00	 jmp	 ??1CHeaderCtrlEx@@UAE@XZ ; CHeaderCtrlEx::~CHeaderCtrlEx
__unwindfunclet$??0CDlgDataListViewer@@QAE@PAVCWnd@@ABV?$CStringT@DV?$StrTraitMFC_DLL@DV?$ChTraitsCRT@D@ATL@@@@@ATL@@111PBD1_NPAVCChartDataListViewerAddInImp@@PAUHWND__@@W4CHART_MODE@CChartInfo@@@Z$7:
  0005c	8b 4d f0	 mov	 ecx, DWORD PTR _this$[ebp]
  0005f	81 c1 bc 03 00
	00		 add	 ecx, 956		; 000003bcH
  00065	ff 25 00 00 00
	00		 jmp	 DWORD PTR __imp_??1?$CStringT@DV?$StrTraitMFC_DLL@DV?$ChTraitsCRT@D@ATL@@@@@ATL@@QAE@XZ
__unwindfunclet$??0CDlgDataListViewer@@QAE@PAVCWnd@@ABV?$CStringT@DV?$StrTraitMFC_DLL@DV?$ChTraitsCRT@D@ATL@@@@@ATL@@111PBD1_NPAVCChartDataListViewerAddInImp@@PAUHWND__@@W4CHART_MODE@CChartInfo@@@Z$8:
  0006b	8b 4d f0	 mov	 ecx, DWORD PTR _this$[ebp]
  0006e	81 c1 c4 03 00
	00		 add	 ecx, 964		; 000003c4H
  00074	ff 25 00 00 00
	00		 jmp	 DWORD PTR __imp_??1?$CStringT@DV?$StrTraitMFC_DLL@DV?$ChTraitsCRT@D@ATL@@@@@ATL@@QAE@XZ
__unwindfunclet$??0CDlgDataListViewer@@QAE@PAVCWnd@@ABV?$CStringT@DV?$StrTraitMFC_DLL@DV?$ChTraitsCRT@D@ATL@@@@@ATL@@111PBD1_NPAVCChartDataListViewerAddInImp@@PAUHWND__@@W4CHART_MODE@CChartInfo@@@Z$9:
  0007a	8b 4d f0	 mov	 ecx, DWORD PTR _this$[ebp]
  0007d	81 c1 c8 03 00
	00		 add	 ecx, 968		; 000003c8H
  00083	ff 25 00 00 00
	00		 jmp	 DWORD PTR __imp_??1?$CStringT@DV?$StrTraitMFC_DLL@DV?$ChTraitsCRT@D@ATL@@@@@ATL@@QAE@XZ
__unwindfunclet$??0CDlgDataListViewer@@QAE@PAVCWnd@@ABV?$CStringT@DV?$StrTraitMFC_DLL@DV?$ChTraitsCRT@D@ATL@@@@@ATL@@111PBD1_NPAVCChartDataListViewerAddInImp@@PAUHWND__@@W4CHART_MODE@CChartInfo@@@Z$10:
  00089	8b 4d f0	 mov	 ecx, DWORD PTR _this$[ebp]
  0008c	81 c1 cc 03 00
	00		 add	 ecx, 972		; 000003ccH
  00092	ff 25 00 00 00
	00		 jmp	 DWORD PTR __imp_??1?$CStringT@DV?$StrTraitMFC_DLL@DV?$ChTraitsCRT@D@ATL@@@@@ATL@@QAE@XZ
__unwindfunclet$??0CDlgDataListViewer@@QAE@PAVCWnd@@ABV?$CStringT@DV?$StrTraitMFC_DLL@DV?$ChTraitsCRT@D@ATL@@@@@ATL@@111PBD1_NPAVCChartDataListViewerAddInImp@@PAUHWND__@@W4CHART_MODE@CChartInfo@@@Z$11:
  00098	8b 4d f0	 mov	 ecx, DWORD PTR _this$[ebp]
  0009b	81 c1 d0 03 00
	00		 add	 ecx, 976		; 000003d0H
  000a1	ff 25 00 00 00
	00		 jmp	 DWORD PTR __imp_??1?$CStringT@DV?$StrTraitMFC_DLL@DV?$ChTraitsCRT@D@ATL@@@@@ATL@@QAE@XZ
__unwindfunclet$??0CDlgDataListViewer@@QAE@PAVCWnd@@ABV?$CStringT@DV?$StrTraitMFC_DLL@DV?$ChTraitsCRT@D@ATL@@@@@ATL@@111PBD1_NPAVCChartDataListViewerAddInImp@@PAUHWND__@@W4CHART_MODE@CChartInfo@@@Z$12:
  000a7	8b 4d f0	 mov	 ecx, DWORD PTR _this$[ebp]
  000aa	81 c1 d8 03 00
	00		 add	 ecx, 984		; 000003d8H
  000b0	e9 00 00 00 00	 jmp	 ??1CBrush@@UAE@XZ	; CBrush::~CBrush
__unwindfunclet$??0CDlgDataListViewer@@QAE@PAVCWnd@@ABV?$CStringT@DV?$StrTraitMFC_DLL@DV?$ChTraitsCRT@D@ATL@@@@@ATL@@111PBD1_NPAVCChartDataListViewerAddInImp@@PAUHWND__@@W4CHART_MODE@CChartInfo@@@Z$13:
  000b5	8b 4d f0	 mov	 ecx, DWORD PTR _this$[ebp]
  000b8	81 c1 e4 03 00
	00		 add	 ecx, 996		; 000003e4H
  000be	e9 00 00 00 00	 jmp	 ??1?$CArray@VCData@@V1@@@UAE@XZ ; CArray<CData,CData>::~CArray<CData,CData>
__unwindfunclet$??0CDlgDataListViewer@@QAE@PAVCWnd@@ABV?$CStringT@DV?$StrTraitMFC_DLL@DV?$ChTraitsCRT@D@ATL@@@@@ATL@@111PBD1_NPAVCChartDataListViewerAddInImp@@PAUHWND__@@W4CHART_MODE@CChartInfo@@@Z$14:
  000c3	8b 4d f0	 mov	 ecx, DWORD PTR _this$[ebp]
  000c6	81 c1 f8 03 00
	00		 add	 ecx, 1016		; 000003f8H
  000cc	e9 00 00 00 00	 jmp	 ??1CObList@@UAE@XZ	; CObList::~CObList
__unwindfunclet$??0CDlgDataListViewer@@QAE@PAVCWnd@@ABV?$CStringT@DV?$StrTraitMFC_DLL@DV?$ChTraitsCRT@D@ATL@@@@@ATL@@111PBD1_NPAVCChartDataListViewerAddInImp@@PAUHWND__@@W4CHART_MODE@CChartInfo@@@Z$15:
  000d1	8b 4d f0	 mov	 ecx, DWORD PTR _this$[ebp]
  000d4	81 c1 1c 04 00
	00		 add	 ecx, 1052		; 0000041cH
  000da	e9 00 00 00 00	 jmp	 ??1CObList@@UAE@XZ	; CObList::~CObList
__unwindfunclet$??0CDlgDataListViewer@@QAE@PAVCWnd@@ABV?$CStringT@DV?$StrTraitMFC_DLL@DV?$ChTraitsCRT@D@ATL@@@@@ATL@@111PBD1_NPAVCChartDataListViewerAddInImp@@PAUHWND__@@W4CHART_MODE@CChartInfo@@@Z$16:
  000df	8b 4d f0	 mov	 ecx, DWORD PTR _this$[ebp]
  000e2	81 c1 44 04 00
	00		 add	 ecx, 1092		; 00000444H
  000e8	ff 25 00 00 00
	00		 jmp	 DWORD PTR __imp_??1?$CStringT@DV?$StrTraitMFC_DLL@DV?$ChTraitsCRT@D@ATL@@@@@ATL@@QAE@XZ
  000ee	cc		 int	 3
  000ef	cc		 int	 3
  000f0	cc		 int	 3
  000f1	cc		 int	 3
  000f2	cc		 int	 3
__ehhandler$??0CDlgDataListViewer@@QAE@PAVCWnd@@ABV?$CStringT@DV?$StrTraitMFC_DLL@DV?$ChTraitsCRT@D@ATL@@@@@ATL@@111PBD1_NPAVCChartDataListViewerAddInImp@@PAUHWND__@@W4CHART_MODE@CChartInfo@@@Z:
  000f3	90		 npad	 1
  000f4	90		 npad	 1
  000f5	8b 54 24 08	 mov	 edx, DWORD PTR [esp+8]
  000f9	8d 42 0c	 lea	 eax, DWORD PTR [edx+12]
  000fc	8b 4a e8	 mov	 ecx, DWORD PTR [edx-24]
  000ff	33 c8		 xor	 ecx, eax
  00101	e8 00 00 00 00	 call	 @__security_check_cookie@4
  00106	b8 00 00 00 00	 mov	 eax, OFFSET __ehfuncinfo$??0CDlgDataListViewer@@QAE@PAVCWnd@@ABV?$CStringT@DV?$StrTraitMFC_DLL@DV?$ChTraitsCRT@D@ATL@@@@@ATL@@111PBD1_NPAVCChartDataListViewerAddInImp@@PAUHWND__@@W4CHART_MODE@CChartInfo@@@Z
  0010b	e9 00 00 00 00	 jmp	 ___CxxFrameHandler3
text$x	ENDS
??0CDlgDataListViewer@@QAE@PAVCWnd@@ABV?$CStringT@DV?$StrTraitMFC_DLL@DV?$ChTraitsCRT@D@ATL@@@@@ATL@@111PBD1_NPAVCChartDataListViewerAddInImp@@PAUHWND__@@W4CHART_MODE@CChartInfo@@@Z ENDP ; CDlgDataListViewer::CDlgDataListViewer
; Function compile flags: /Ogtp
; File D:\git\src\IBK\IBK_DRFN\ProjSrc\SrcChartEx\ChartAddIn\ChartDataListViewerAddIn\ChartDataListViewerAddIn\DlgDataListViewer.cpp
;	COMDAT ?SetPacketListAddr@CDlgDataListViewer@@QAEXPAUIPacketManager134221@@@Z
_TEXT	SEGMENT
_pPacketList$ = 8					; size = 4
?SetPacketListAddr@CDlgDataListViewer@@QAEXPAUIPacketManager134221@@@Z PROC ; CDlgDataListViewer::SetPacketListAddr, COMDAT
; _this$ = ecx

; 215  : {

  00000	55		 push	 ebp
  00001	8b ec		 mov	 ebp, esp
  00003	56		 push	 esi
  00004	8b f1		 mov	 esi, ecx

; 216  : 	if( m_pPacketList) m_pPacketList->Release();

  00006	8b 96 c0 03 00
	00		 mov	 edx, DWORD PTR [esi+960]
  0000c	85 d2		 test	 edx, edx
  0000e	74 06		 je	 SHORT $LN2@SetPacketL
  00010	8b 02		 mov	 eax, DWORD PTR [edx]
  00012	52		 push	 edx
  00013	ff 50 08	 call	 DWORD PTR [eax+8]
$LN2@SetPacketL:

; 217  : 	m_pPacketList = pPacketList;

  00016	8b 4d 08	 mov	 ecx, DWORD PTR _pPacketList$[ebp]
  00019	89 8e c0 03 00
	00		 mov	 DWORD PTR [esi+960], ecx
  0001f	5e		 pop	 esi

; 218  : 	if( m_pPacketList) m_pPacketList->AddRef();

  00020	85 c9		 test	 ecx, ecx
  00022	74 09		 je	 SHORT $LN3@SetPacketL
  00024	8b 01		 mov	 eax, DWORD PTR [ecx]
  00026	89 4d 08	 mov	 DWORD PTR _pPacketList$[ebp], ecx

; 219  : }

  00029	5d		 pop	 ebp

; 218  : 	if( m_pPacketList) m_pPacketList->AddRef();

  0002a	ff 60 04	 jmp	 DWORD PTR [eax+4]
$LN3@SetPacketL:

; 219  : }

  0002d	5d		 pop	 ebp
  0002e	c2 04 00	 ret	 4
?SetPacketListAddr@CDlgDataListViewer@@QAEXPAUIPacketManager134221@@@Z ENDP ; CDlgDataListViewer::SetPacketListAddr
_TEXT	ENDS
; Function compile flags: /Ogtp
; File D:\git\src\IBK\IBK_DRFN\ProjSrc\SrcChartEx\ChartAddIn\ChartDataListViewerAddIn\ChartDataListViewerAddIn\DlgDataListViewer.cpp
; File C:\Program Files (x86)\Microsoft Visual Studio\2019\Community\VC\Tools\MSVC\14.29.30133\atlmfc\include\afxcmn2.inl
; File D:\git\src\IBK\IBK_DRFN\ProjSrc\SrcChartEx\ChartAddIn\ChartDataListViewerAddIn\ChartDataListViewerAddIn\DlgDataListViewer.cpp
; File C:\Program Files (x86)\Microsoft Visual Studio\2019\Community\VC\Tools\MSVC\14.29.30133\atlmfc\include\afxwin2.inl
; File D:\git\src\IBK\IBK_DRFN\ProjSrc\SrcChartEx\ChartAddIn\ChartDataListViewerAddIn\ChartDataListViewerAddIn\DlgDataListViewer.cpp
; File C:\Program Files (x86)\Microsoft Visual Studio\2019\Community\VC\Tools\MSVC\14.29.30133\atlmfc\include\afxwin2.inl
; File D:\git\src\IBK\IBK_DRFN\ProjSrc\SrcChartEx\ChartAddIn\ChartDataListViewerAddIn\ChartDataListViewerAddIn\DlgDataListViewer.cpp
; File C:\Program Files (x86)\Microsoft Visual Studio\2019\Community\VC\Tools\MSVC\14.29.30133\atlmfc\include\afxwin2.inl
; File D:\git\src\IBK\IBK_DRFN\ProjSrc\SrcChartEx\ChartAddIn\ChartDataListViewerAddIn\ChartDataListViewerAddIn\DlgDataListViewer.cpp
; File C:\Program Files (x86)\Microsoft Visual Studio\2019\Community\VC\Tools\MSVC\14.29.30133\atlmfc\include\afxwin2.inl
; File D:\git\src\IBK\IBK_DRFN\ProjSrc\SrcChartEx\ChartAddIn\ChartDataListViewerAddIn\ChartDataListViewerAddIn\DlgDataListViewer.cpp
;	COMDAT ?MouseMove@CDlgDataListViewer@@QAEXH@Z
_TEXT	SEGMENT
_nLine$1$ = -40						; size = 4
_nLine$2$ = -36						; size = 4
_nIndex$1$ = -36					; size = 4
_sInfo$1 = -32						; size = 28
__$ArrayPad$ = -4					; size = 4
_nIndex$ = 8						; size = 4
?MouseMove@CDlgDataListViewer@@QAEXH@Z PROC		; CDlgDataListViewer::MouseMove, COMDAT
; _this$ = ecx

; 733  : {

  00000	55		 push	 ebp
  00001	8b ec		 mov	 ebp, esp
  00003	83 ec 28	 sub	 esp, 40			; 00000028H
  00006	a1 00 00 00 00	 mov	 eax, DWORD PTR ___security_cookie
  0000b	33 c5		 xor	 eax, ebp
  0000d	89 45 fc	 mov	 DWORD PTR __$ArrayPad$[ebp], eax
  00010	53		 push	 ebx
  00011	57		 push	 edi
  00012	8b f9		 mov	 edi, ecx

; 734  : 	LoadListFocusMove(m_pPacketList->GetMaximumDataCount() - nIndex - 1) ;

  00014	8b 8f c0 03 00
	00		 mov	 ecx, DWORD PTR [edi+960]
  0001a	8b 01		 mov	 eax, DWORD PTR [ecx]
  0001c	ff 50 3c	 call	 DWORD PTR [eax+60]
  0001f	8b d8		 mov	 ebx, eax
  00021	2b 5d 08	 sub	 ebx, DWORD PTR _nIndex$[ebp]
  00024	83 eb 01	 sub	 ebx, 1
  00027	89 5d dc	 mov	 DWORD PTR _nIndex$1$[ebp], ebx

; 702  : 	if(nIndex < 0)

  0002a	0f 88 f7 00 00
	00		 js	 $LN14@MouseMove

; 703  : 		return ;
; 704  : 
; 705  : 	m_ctlList.SetItemState(nIndex, 0xFFFF, LVIS_SELECTED | LVIS_FOCUSED);

  00030	56		 push	 esi
  00031	6a 03		 push	 3
  00033	68 ff ff 00 00	 push	 65535			; 0000ffffH
  00038	53		 push	 ebx
  00039	8d 8f b8 02 00
	00		 lea	 ecx, DWORD PTR [edi+696]
  0003f	e8 00 00 00 00	 call	 ?SetItemState@CListCtrl@@QAEHHII@Z ; CListCtrl::SetItemState
; File C:\Program Files (x86)\Microsoft Visual Studio\2019\Community\VC\Tools\MSVC\14.29.30133\atlmfc\include\afxcmn2.inl

; 147  : 	{ ASSERT(::IsWindow(m_hWnd)); return (int) ::SendMessage(m_hWnd, LVM_SETSELECTIONMARK, 0, (LPARAM) iIndex); }

  00044	53		 push	 ebx
  00045	8b 1d 00 00 00
	00		 mov	 ebx, DWORD PTR __imp__SendMessageA@16
  0004b	6a 00		 push	 0
  0004d	68 43 10 00 00	 push	 4163			; 00001043H
  00052	ff b7 d8 02 00
	00		 push	 DWORD PTR [edi+728]
  00058	ff d3		 call	 ebx
; File D:\git\src\IBK\IBK_DRFN\ProjSrc\SrcChartEx\ChartAddIn\ChartDataListViewerAddIn\ChartDataListViewerAddIn\DlgDataListViewer.cpp

; 712  : 	m_ctlList.GetScrollInfo(SB_VERT, &sInfo);

  0005a	6a 17		 push	 23			; 00000017H
  0005c	8d 45 e0	 lea	 eax, DWORD PTR _sInfo$1[ebp]
  0005f	50		 push	 eax
  00060	6a 01		 push	 1
  00062	8d 8f b8 02 00
	00		 lea	 ecx, DWORD PTR [edi+696]
  00068	e8 00 00 00 00	 call	 ?GetScrollInfo@CWnd@@QAEHHPAUtagSCROLLINFO@@I@Z ; CWnd::GetScrollInfo

; 713  : 	pos = m_ctlList.GetScrollPos(SB_VERT);

  0006d	6a 01		 push	 1
  0006f	8d 8f b8 02 00
	00		 lea	 ecx, DWORD PTR [edi+696]
  00075	e8 00 00 00 00	 call	 ?GetScrollPos@CWnd@@QBEHH@Z ; CWnd::GetScrollPos
  0007a	8b c8		 mov	 ecx, eax

; 714  : 	if(pos < nIndex){

  0007c	33 d2		 xor	 edx, edx
  0007e	8b 45 dc	 mov	 eax, DWORD PTR _nIndex$1$[ebp]
  00081	3b c8		 cmp	 ecx, eax
  00083	7d 56		 jge	 SHORT $LN17@MouseMove

; 715  : 		nPage = (nIndex - pos) / sInfo.nPage;

  00085	2b c1		 sub	 eax, ecx
  00087	f7 75 f0	 div	 DWORD PTR _sInfo$1[ebp+16]
  0008a	8b f2		 mov	 esi, edx
  0008c	89 75 d8	 mov	 DWORD PTR _nLine$1$[ebp], esi

; 717  : 		for(j=0; j<nPage; j++)

  0008f	85 c0		 test	 eax, eax
  00091	7e 1b		 jle	 SHORT $LN5@MouseMove
  00093	8b f0		 mov	 esi, eax
$LL6@MouseMove:
; File C:\Program Files (x86)\Microsoft Visual Studio\2019\Community\VC\Tools\MSVC\14.29.30133\atlmfc\include\afxwin2.inl

; 32   : 	{ ASSERT(::IsWindow(m_hWnd)); return ::SendMessage(m_hWnd, message, wParam, lParam); }

  00095	6a 00		 push	 0
  00097	6a 03		 push	 3
  00099	68 15 01 00 00	 push	 277			; 00000115H
  0009e	ff b7 d8 02 00
	00		 push	 DWORD PTR [edi+728]
  000a4	ff d3		 call	 ebx
; File D:\git\src\IBK\IBK_DRFN\ProjSrc\SrcChartEx\ChartAddIn\ChartDataListViewerAddIn\ChartDataListViewerAddIn\DlgDataListViewer.cpp

; 717  : 		for(j=0; j<nPage; j++)

  000a6	83 ee 01	 sub	 esi, 1
  000a9	75 ea		 jne	 SHORT $LL6@MouseMove
  000ab	8b 75 d8	 mov	 esi, DWORD PTR _nLine$1$[ebp]
$LN5@MouseMove:

; 719  : 		for(j=0; j<nLine; j++)

  000ae	85 f6		 test	 esi, esi
  000b0	7e 74		 jle	 SHORT $LN46@MouseMove
$LL9@MouseMove:
; File C:\Program Files (x86)\Microsoft Visual Studio\2019\Community\VC\Tools\MSVC\14.29.30133\atlmfc\include\afxwin2.inl

; 32   : 	{ ASSERT(::IsWindow(m_hWnd)); return ::SendMessage(m_hWnd, message, wParam, lParam); }

  000b2	6a 00		 push	 0
  000b4	6a 01		 push	 1
  000b6	68 15 01 00 00	 push	 277			; 00000115H
  000bb	ff b7 d8 02 00
	00		 push	 DWORD PTR [edi+728]
  000c1	ff d3		 call	 ebx
; File D:\git\src\IBK\IBK_DRFN\ProjSrc\SrcChartEx\ChartAddIn\ChartDataListViewerAddIn\ChartDataListViewerAddIn\DlgDataListViewer.cpp

; 719  : 		for(j=0; j<nLine; j++)

  000c3	83 ee 01	 sub	 esi, 1
  000c6	75 ea		 jne	 SHORT $LL9@MouseMove

; 735  : }

  000c8	5e		 pop	 esi
  000c9	5f		 pop	 edi
  000ca	5b		 pop	 ebx
  000cb	8b 4d fc	 mov	 ecx, DWORD PTR __$ArrayPad$[ebp]
  000ce	33 cd		 xor	 ecx, ebp
  000d0	e8 00 00 00 00	 call	 @__security_check_cookie@4
  000d5	8b e5		 mov	 esp, ebp
  000d7	5d		 pop	 ebp
  000d8	c2 04 00	 ret	 4
$LN17@MouseMove:

; 723  : 		nPage = (pos - nIndex) / sInfo.nPage;

  000db	2b c8		 sub	 ecx, eax
  000dd	8b c1		 mov	 eax, ecx
  000df	f7 75 f0	 div	 DWORD PTR _sInfo$1[ebp+16]
  000e2	8b f2		 mov	 esi, edx
  000e4	89 75 dc	 mov	 DWORD PTR _nLine$2$[ebp], esi

; 725  : 		for(j=0; j<nPage; j++)

  000e7	85 c0		 test	 eax, eax
  000e9	7e 1e		 jle	 SHORT $LN11@MouseMove
  000eb	8b f0		 mov	 esi, eax
  000ed	0f 1f 00	 npad	 3
$LL12@MouseMove:
; File C:\Program Files (x86)\Microsoft Visual Studio\2019\Community\VC\Tools\MSVC\14.29.30133\atlmfc\include\afxwin2.inl

; 32   : 	{ ASSERT(::IsWindow(m_hWnd)); return ::SendMessage(m_hWnd, message, wParam, lParam); }

  000f0	6a 00		 push	 0
  000f2	6a 02		 push	 2
  000f4	68 15 01 00 00	 push	 277			; 00000115H
  000f9	ff b7 d8 02 00
	00		 push	 DWORD PTR [edi+728]
  000ff	ff d3		 call	 ebx
; File D:\git\src\IBK\IBK_DRFN\ProjSrc\SrcChartEx\ChartAddIn\ChartDataListViewerAddIn\ChartDataListViewerAddIn\DlgDataListViewer.cpp

; 725  : 		for(j=0; j<nPage; j++)

  00101	83 ee 01	 sub	 esi, 1
  00104	75 ea		 jne	 SHORT $LL12@MouseMove
  00106	8b 75 dc	 mov	 esi, DWORD PTR _nLine$2$[ebp]
$LN11@MouseMove:

; 727  : 		for(j=0; j<nLine; j++)

  00109	85 f6		 test	 esi, esi
  0010b	7e 19		 jle	 SHORT $LN46@MouseMove
  0010d	0f 1f 00	 npad	 3
$LL15@MouseMove:
; File C:\Program Files (x86)\Microsoft Visual Studio\2019\Community\VC\Tools\MSVC\14.29.30133\atlmfc\include\afxwin2.inl

; 32   : 	{ ASSERT(::IsWindow(m_hWnd)); return ::SendMessage(m_hWnd, message, wParam, lParam); }

  00110	6a 00		 push	 0
  00112	6a 00		 push	 0
  00114	68 15 01 00 00	 push	 277			; 00000115H
  00119	ff b7 d8 02 00
	00		 push	 DWORD PTR [edi+728]
  0011f	ff d3		 call	 ebx
; File D:\git\src\IBK\IBK_DRFN\ProjSrc\SrcChartEx\ChartAddIn\ChartDataListViewerAddIn\ChartDataListViewerAddIn\DlgDataListViewer.cpp

; 727  : 		for(j=0; j<nLine; j++)

  00121	83 ee 01	 sub	 esi, 1
  00124	75 ea		 jne	 SHORT $LL15@MouseMove
$LN46@MouseMove:
  00126	5e		 pop	 esi
$LN14@MouseMove:

; 735  : }

  00127	8b 4d fc	 mov	 ecx, DWORD PTR __$ArrayPad$[ebp]
  0012a	5f		 pop	 edi
  0012b	33 cd		 xor	 ecx, ebp
  0012d	5b		 pop	 ebx
  0012e	e8 00 00 00 00	 call	 @__security_check_cookie@4
  00133	8b e5		 mov	 esp, ebp
  00135	5d		 pop	 ebp
  00136	c2 04 00	 ret	 4
?MouseMove@CDlgDataListViewer@@QAEXH@Z ENDP		; CDlgDataListViewer::MouseMove
_TEXT	ENDS
; Function compile flags: /Ogtp
; File D:\git\src\IBK\IBK_DRFN\ProjSrc\SrcChartEx\ChartAddIn\ChartDataListViewerAddIn\ChartDataListViewerAddIn\DlgDataListViewer.cpp
;	COMDAT ?SetPacketNames@CDlgDataListViewer@@QAEXABV?$CStringT@DV?$StrTraitMFC_DLL@DV?$ChTraitsCRT@D@ATL@@@@@ATL@@00@Z
_TEXT	SEGMENT
_strTitle$ = 8						; size = 4
_strPacketNamesPerBlock$ = 12				; size = 4
_strPacketNames$ = 16					; size = 4
?SetPacketNames@CDlgDataListViewer@@QAEXABV?$CStringT@DV?$StrTraitMFC_DLL@DV?$ChTraitsCRT@D@ATL@@@@@ATL@@00@Z PROC ; CDlgDataListViewer::SetPacketNames, COMDAT
; _this$ = ecx

; 740  : {

  00000	55		 push	 ebp
  00001	8b ec		 mov	 ebp, esp
  00003	56		 push	 esi

; 741  : 	m_strTitles = strTitle;

  00004	ff 75 08	 push	 DWORD PTR _strTitle$[ebp]
  00007	8b f1		 mov	 esi, ecx
  00009	8d 8e c4 03 00
	00		 lea	 ecx, DWORD PTR [esi+964]
  0000f	ff 15 00 00 00
	00		 call	 DWORD PTR __imp_??4?$CStringT@DV?$StrTraitMFC_DLL@DV?$ChTraitsCRT@D@ATL@@@@@ATL@@QAEAAV01@ABV01@@Z

; 742  : 	m_strPacketNamesPerBlock = strPacketNamesPerBlock;

  00015	ff 75 0c	 push	 DWORD PTR _strPacketNamesPerBlock$[ebp]
  00018	8d 8e cc 03 00
	00		 lea	 ecx, DWORD PTR [esi+972]
  0001e	ff 15 00 00 00
	00		 call	 DWORD PTR __imp_??4?$CStringT@DV?$StrTraitMFC_DLL@DV?$ChTraitsCRT@D@ATL@@@@@ATL@@QAEAAV01@ABV01@@Z

; 743  : 	m_strPacketNames = strPacketNames ;

  00024	ff 75 10	 push	 DWORD PTR _strPacketNames$[ebp]
  00027	8d 8e c8 03 00
	00		 lea	 ecx, DWORD PTR [esi+968]
  0002d	ff 15 00 00 00
	00		 call	 DWORD PTR __imp_??4?$CStringT@DV?$StrTraitMFC_DLL@DV?$ChTraitsCRT@D@ATL@@@@@ATL@@QAEAAV01@ABV01@@Z
  00033	5e		 pop	 esi

; 744  : }

  00034	5d		 pop	 ebp
  00035	c2 0c 00	 ret	 12			; 0000000cH
?SetPacketNames@CDlgDataListViewer@@QAEXABV?$CStringT@DV?$StrTraitMFC_DLL@DV?$ChTraitsCRT@D@ATL@@@@@ATL@@00@Z ENDP ; CDlgDataListViewer::SetPacketNames
_TEXT	ENDS
; Function compile flags: /Ogtp
; File D:\git\src\IBK\IBK_DRFN\ProjSrc\SrcChartEx\ChartAddIn\ChartDataListViewerAddIn\ChartDataListViewerAddIn\DlgDataListViewer.cpp
; File C:\Program Files (x86)\Microsoft Visual Studio\2019\Community\VC\Tools\MSVC\14.29.30133\atlmfc\include\afxcmn.inl
; File D:\git\src\IBK\IBK_DRFN\ProjSrc\SrcChartEx\ChartAddIn\ChartDataListViewerAddIn\ChartDataListViewerAddIn\DlgDataListViewer.cpp
; File C:\Program Files (x86)\Microsoft Visual Studio\2019\Community\VC\Tools\MSVC\14.29.30133\atlmfc\include\afxwin2.inl
; File D:\git\src\IBK\IBK_DRFN\ProjSrc\SrcChartEx\ChartAddIn\ChartDataListViewerAddIn\ChartDataListViewerAddIn\DlgDataListViewer.cpp
; File C:\Program Files (x86)\Microsoft Visual Studio\2019\Community\VC\Tools\MSVC\14.29.30133\atlmfc\include\afxwin2.inl
; File C:\Program Files (x86)\Microsoft Visual Studio\2019\Community\VC\Tools\MSVC\14.29.30133\atlmfc\include\afxcmn.inl
; File D:\git\src\IBK\IBK_DRFN\ProjSrc\SrcChartEx\ChartAddIn\ChartDataListViewerAddIn\ChartDataListViewerAddIn\DlgDataListViewer.cpp
; File C:\Program Files (x86)\Microsoft Visual Studio\2019\Community\VC\Tools\MSVC\14.29.30133\atlmfc\include\afxcmn.inl
; File D:\git\src\IBK\IBK_DRFN\ProjSrc\SrcChartEx\ChartAddIn\ChartDataListViewerAddIn\ChartDataListViewerAddIn\DlgDataListViewer.cpp
; File C:\Program Files (x86)\Microsoft Visual Studio\2019\Community\VC\Tools\MSVC\14.29.30133\atlmfc\include\afxcmn.inl
; File D:\git\src\IBK\IBK_DRFN\ProjSrc\SrcChartEx\ChartAddIn\ChartDataListViewerAddIn\ChartDataListViewerAddIn\DlgDataListViewer.cpp
; File C:\Program Files (x86)\Microsoft Visual Studio\2019\Community\VC\Tools\MSVC\14.29.30133\atlmfc\include\afxwin2.inl
; File D:\git\src\IBK\IBK_DRFN\ProjSrc\SrcChartEx\ChartAddIn\ChartDataListViewerAddIn\ChartDataListViewerAddIn\DlgDataListViewer.cpp
;	COMDAT ?RealUpdate@CDlgDataListViewer@@QAEXXZ
_TEXT	SEGMENT
?RealUpdate@CDlgDataListViewer@@QAEXXZ PROC		; CDlgDataListViewer::RealUpdate, COMDAT
; _this$ = ecx

; 1073 : {

  00000	56		 push	 esi
  00001	8b f1		 mov	 esi, ecx

; 1074 : 	if(!m_pPacketList)

  00003	83 be c0 03 00
	00 00		 cmp	 DWORD PTR [esi+960], 0
  0000a	0f 84 de 00 00
	00		 je	 $LN5@RealUpdate

; 1075 : 		return;
; 1076 : 
; 1077 : 	//sy 2003.10.30.
; 1078 : 	int nMaxPacketCount = GetMaxCount();

  00010	53		 push	 ebx
  00011	e8 00 00 00 00	 call	 ?GetMaxCount@CDlgDataListViewer@@QBEHXZ ; CDlgDataListViewer::GetMaxCount
  00016	8b d8		 mov	 ebx, eax

; 1079 : 	if(nMaxPacketCount <= 0)

  00018	85 db		 test	 ebx, ebx
  0001a	0f 8e cd 00 00
	00		 jle	 $LN33@RealUpdate
; File C:\Program Files (x86)\Microsoft Visual Studio\2019\Community\VC\Tools\MSVC\14.29.30133\atlmfc\include\afxcmn.inl

; 155  : 	{ ASSERT(::IsWindow(m_hWnd)); return (int) ::SendMessage(m_hWnd, LVM_GETITEMCOUNT, 0, 0L); }

  00020	57		 push	 edi
  00021	8b 3d 00 00 00
	00		 mov	 edi, DWORD PTR __imp__SendMessageA@16
  00027	6a 00		 push	 0
  00029	6a 00		 push	 0
  0002b	68 04 10 00 00	 push	 4100			; 00001004H
  00030	ff b6 d8 02 00
	00		 push	 DWORD PTR [esi+728]
  00036	ff d7		 call	 edi
; File D:\git\src\IBK\IBK_DRFN\ProjSrc\SrcChartEx\ChartAddIn\ChartDataListViewerAddIn\ChartDataListViewerAddIn\DlgDataListViewer.cpp

; 1083 : 	if(nListCount == (nMaxPacketCount+m_nFutureDateCount))

  00038	8b 8e e0 03 00
	00		 mov	 ecx, DWORD PTR [esi+992]
  0003e	03 cb		 add	 ecx, ebx
  00040	3b c1		 cmp	 eax, ecx
  00042	75 1f		 jne	 SHORT $LN4@RealUpdate

; 1084 : 	{
; 1085 : 		int nUpdateIndex = m_pPacketList->GetLastestRealIndex();

  00044	8b 8e c0 03 00
	00		 mov	 ecx, DWORD PTR [esi+960]
  0004a	8b 01		 mov	 eax, DWORD PTR [ecx]
  0004c	ff 50 34	 call	 DWORD PTR [eax+52]
; File C:\Program Files (x86)\Microsoft Visual Studio\2019\Community\VC\Tools\MSVC\14.29.30133\atlmfc\include\afxwin2.inl

; 114  : 	{ ASSERT(::IsWindow(m_hWnd)); ::InvalidateRect(m_hWnd, NULL, bErase); }

  0004f	6a 00		 push	 0
  00051	6a 00		 push	 0
  00053	ff b6 d8 02 00
	00		 push	 DWORD PTR [esi+728]
  00059	ff 15 00 00 00
	00		 call	 DWORD PTR __imp__InvalidateRect@12
  0005f	5f		 pop	 edi
  00060	5b		 pop	 ebx
  00061	5e		 pop	 esi
; File D:\git\src\IBK\IBK_DRFN\ProjSrc\SrcChartEx\ChartAddIn\ChartDataListViewerAddIn\ChartDataListViewerAddIn\DlgDataListViewer.cpp

; 1096 : }

  00062	c3		 ret	 0
$LN4@RealUpdate:

; 1086 : 		if(nUpdateIndex == -1)
; 1087 : 			nUpdateIndex = nMaxPacketCount-1;
; 1088 : 		UpdateRecord(nUpdateIndex);
; 1089 : 	}
; 1090 : 	else
; 1091 : 	{
; 1092 : 		// (2006/12/29 - Seung-Won, Bae) Update Previous Time Closing
; 1093 : 		if( 0 < nListCount) UpdateRecord( nListCount - 1);

  00063	85 c0		 test	 eax, eax
  00065	7e 10		 jle	 SHORT $LN7@RealUpdate
; File C:\Program Files (x86)\Microsoft Visual Studio\2019\Community\VC\Tools\MSVC\14.29.30133\atlmfc\include\afxwin2.inl

; 114  : 	{ ASSERT(::IsWindow(m_hWnd)); ::InvalidateRect(m_hWnd, NULL, bErase); }

  00067	6a 00		 push	 0
  00069	6a 00		 push	 0
  0006b	ff b6 d8 02 00
	00		 push	 DWORD PTR [esi+728]
  00071	ff 15 00 00 00
	00		 call	 DWORD PTR __imp__InvalidateRect@12
$LN7@RealUpdate:
; File C:\Program Files (x86)\Microsoft Visual Studio\2019\Community\VC\Tools\MSVC\14.29.30133\atlmfc\include\afxcmn.inl

; 177  : 	{ ASSERT(::IsWindow(m_hWnd)); return (int) ::SendMessage(m_hWnd, LVM_GETNEXTITEM, nItem, MAKELPARAM(nFlags, 0)); }

  00077	6a 02		 push	 2
  00079	6a ff		 push	 -1
  0007b	68 0c 10 00 00	 push	 4108			; 0000100cH
  00080	ff b6 d8 02 00
	00		 push	 DWORD PTR [esi+728]
  00086	ff d7		 call	 edi
; File D:\git\src\IBK\IBK_DRFN\ProjSrc\SrcChartEx\ChartAddIn\ChartDataListViewerAddIn\ChartDataListViewerAddIn\DlgDataListViewer.cpp

; 1101 : 	int nSelect = -1;

  00088	bf ff ff ff ff	 mov	 edi, -1
; File C:\Program Files (x86)\Microsoft Visual Studio\2019\Community\VC\Tools\MSVC\14.29.30133\atlmfc\include\afxcmn.inl

; 179  : 	{ ASSERT(::IsWindow(m_hWnd)); return (POSITION)(DWORD_PTR)(1+GetNextItem(-1, LVIS_SELECTED)); }

  0008d	83 c0 01	 add	 eax, 1
; File D:\git\src\IBK\IBK_DRFN\ProjSrc\SrcChartEx\ChartAddIn\ChartDataListViewerAddIn\ChartDataListViewerAddIn\DlgDataListViewer.cpp

; 1102 : 	if( posSelect) nSelect = m_ctlList.GetNextSelectedItem( posSelect);

  00090	74 17		 je	 SHORT $LN20@RealUpdate
; File C:\Program Files (x86)\Microsoft Visual Studio\2019\Community\VC\Tools\MSVC\14.29.30133\atlmfc\include\afxcmn.inl

; 177  : 	{ ASSERT(::IsWindow(m_hWnd)); return (int) ::SendMessage(m_hWnd, LVM_GETNEXTITEM, nItem, MAKELPARAM(nFlags, 0)); }

  00092	6a 02		 push	 2

; 181  : 	{ ASSERT(::IsWindow(m_hWnd)); DWORD_PTR nOldPos = (DWORD_PTR)pos-1; pos = (POSITION)(DWORD_PTR)(1+GetNextItem((UINT)nOldPos, LVIS_SELECTED)); return (UINT)nOldPos; }

  00094	8d 78 ff	 lea	 edi, DWORD PTR [eax-1]

; 177  : 	{ ASSERT(::IsWindow(m_hWnd)); return (int) ::SendMessage(m_hWnd, LVM_GETNEXTITEM, nItem, MAKELPARAM(nFlags, 0)); }

  00097	57		 push	 edi
  00098	68 0c 10 00 00	 push	 4108			; 0000100cH
  0009d	ff b6 d8 02 00
	00		 push	 DWORD PTR [esi+728]
  000a3	ff 15 00 00 00
	00		 call	 DWORD PTR __imp__SendMessageA@16
$LN20@RealUpdate:
; File D:\git\src\IBK\IBK_DRFN\ProjSrc\SrcChartEx\ChartAddIn\ChartDataListViewerAddIn\ChartDataListViewerAddIn\DlgDataListViewer.cpp

; 1103 : 	m_ctlList.SetItemCountEx( nIndex);

  000a9	6a 01		 push	 1
  000ab	8d 8e b8 02 00
	00		 lea	 ecx, DWORD PTR [esi+696]
  000b1	53		 push	 ebx
  000b2	e8 00 00 00 00	 call	 ?SetItemCountEx@CListCtrl@@QAEHHK@Z ; CListCtrl::SetItemCountEx

; 1104 : 	if( 0 <= nSelect) m_ctlList.SetItemState( nSelect + nIndex - m_nRowCount, 0xFFFF, LVIS_SELECTED | LVIS_FOCUSED);

  000b7	85 ff		 test	 edi, edi
  000b9	78 1b		 js	 SHORT $LN21@RealUpdate
  000bb	2b be 18 04 00
	00		 sub	 edi, DWORD PTR [esi+1048]
  000c1	8d 8e b8 02 00
	00		 lea	 ecx, DWORD PTR [esi+696]
  000c7	6a 03		 push	 3
  000c9	68 ff ff 00 00	 push	 65535			; 0000ffffH
  000ce	03 fb		 add	 edi, ebx
  000d0	57		 push	 edi
  000d1	e8 00 00 00 00	 call	 ?SetItemState@CListCtrl@@QAEHHII@Z ; CListCtrl::SetItemState
$LN21@RealUpdate:
; File C:\Program Files (x86)\Microsoft Visual Studio\2019\Community\VC\Tools\MSVC\14.29.30133\atlmfc\include\afxwin2.inl

; 114  : 	{ ASSERT(::IsWindow(m_hWnd)); ::InvalidateRect(m_hWnd, NULL, bErase); }

  000d6	6a 00		 push	 0
  000d8	6a 00		 push	 0
  000da	ff b6 d8 02 00
	00		 push	 DWORD PTR [esi+728]
  000e0	ff 15 00 00 00
	00		 call	 DWORD PTR __imp__InvalidateRect@12
; File D:\git\src\IBK\IBK_DRFN\ProjSrc\SrcChartEx\ChartAddIn\ChartDataListViewerAddIn\ChartDataListViewerAddIn\DlgDataListViewer.cpp

; 1106 : 	m_nRowCount = nIndex;

  000e6	89 9e 18 04 00
	00		 mov	 DWORD PTR [esi+1048], ebx
  000ec	5f		 pop	 edi
$LN33@RealUpdate:
  000ed	5b		 pop	 ebx
$LN5@RealUpdate:
  000ee	5e		 pop	 esi

; 1096 : }

  000ef	c3		 ret	 0
?RealUpdate@CDlgDataListViewer@@QAEXXZ ENDP		; CDlgDataListViewer::RealUpdate
_TEXT	ENDS
; Function compile flags: /Ogtp
; File D:\git\src\IBK\IBK_DRFN\ProjSrc\SrcChartEx\ChartAddIn\ChartDataListViewerAddIn\ChartDataListViewerAddIn\DlgDataListViewer.cpp
;	COMDAT ?LoadExcel2@CDlgDataListViewer@@QAEXXZ
_TEXT	SEGMENT
?LoadExcel2@CDlgDataListViewer@@QAEXXZ PROC		; CDlgDataListViewer::LoadExcel2, COMDAT
; _this$ = ecx

; 843  : #if 0
; 844  : 	SYSTEMTIME sTime;
; 845  : 	GetSystemTime(&sTime);
; 846  : 
; 847  : 	CString  szFilePath ;
; 848  : 	szFilePath.Format("%sChartData_%04d%02d%02d_%02d%02d%02d.xls", m_strFilePath, 
; 849  : 				sTime.wYear, sTime.wMonth, sTime.wDay, sTime.wHour+9, sTime.wMinute, sTime.wSecond);
; 850  : 
; 851  : 	CString szExcel = "NO" ;
; 852  : 	CString strKey = "Excel.csv\\shell\\open\\command" ;
; 853  : 	int Ver = 60 ;
; 854  : 	HKEY hkey = HKEY_CLASSES_ROOT ;
; 855  : 	szExcel = GetStrValue(hkey, strKey, "", "NO") ;
; 856  : 	szExcel.MakeLower() ;
; 857  : 	int start = szExcel.Find("excel.exe") ;
; 858  : 	szExcel = szExcel.Left(start + 9) ;
; 859  : 	if(szExcel.Left(1).Compare("\"") == 0)
; 860  : 		szExcel = szExcel.Right(szExcel.GetLength() - 1) ;
; 861  : 
; 862  : 	CreateDirectory("C:\\Temp", NULL) ; 
; 863  : 	CString strFileName = szFilePath;
; 864  : 	BasicExcel e;
; 865  : 
; 866  : 	e.New(1);	// sheet    
; 867  : 
; 868  : 	CString szData;
; 869  :  	CPoint ptRowAndCol = GetRowandColumnCount();
; 870  : 
; 871  : 	BasicExcelWorksheet* sheet1 = e.GetWorksheet("Sheet1");
; 872  : 	if (sheet1)
; 873  : 	{
; 874  : 		szData.Empty();
; 875  : 		CHeaderCtrl* pHeader = NULL;
; 876  : 		pHeader = m_ctlList.GetHeaderCtrl();
; 877  : 		ptRowAndCol.y = pHeader->GetItemCount();
; 878  : 		for(int col = 0 ; col < ptRowAndCol.y ; col++) 
; 879  : 		{
; 880  : 			HDITEM hdi;
; 881  : 			TCHAR  lpBuffer[256];
; 882  : 
; 883  : 			hdi.mask = HDI_TEXT;
; 884  : 			hdi.pszText = lpBuffer;
; 885  : 			hdi.cchTextMax = 256;
; 886  : 			pHeader->GetItem(col, &hdi);
; 887  : 			szData = hdi.pszText;
; 888  : 
; 889  : 			// ANSI to UNICODE
; 890  : 			int nLen = MultiByteToWideChar(CP_ACP, 0,hdi.pszText, -1, NULL, NULL);
; 891  : 			LPWSTR lpszW = new WCHAR[nLen];
; 892  : 			MultiByteToWideChar(CP_ACP, 0, hdi.pszText, -1, lpszW, nLen);
; 893  : 
; 894  : 			sheet1->Cell(0,col)->SetWString(lpszW);
; 895  : 		}
; 896  : 
; 897  : 		for(int row = 1  ; row <= ptRowAndCol.x ; row++) 
; 898  : 		{
; 899  : 			for(int col = 0 ; col < ptRowAndCol.y ; col++) 
; 900  : 			{
; 901  : 				szData = m_ctlList.GetItemText(row, col);
; 902  : 
; 903  : // 				if(pIPacket->GetType() == "")
; 904  : // 				{
; 905  : // 					// ANSI to UNICODE
; 906  : // 					int nLen = MultiByteToWideChar(CP_ACP, 0, szData, -1, NULL, NULL);
; 907  : // 					LPWSTR lpszW = new WCHAR[nLen];
; 908  : // 					MultiByteToWideChar(CP_ACP, 0, szData, -1, lpszW, nLen);
; 909  : // 					sheet1->Cell(row,col)->SetString(lpszW);
; 910  : // 				}
; 911  : // 				else
; 912  : 				{
; 913  : 					// ANSI to UNICODE
; 914  : 					int nLen = MultiByteToWideChar(CP_ACP, 0, szData, -1, NULL, NULL);
; 915  : 					LPWSTR lpszW = new WCHAR[nLen];
; 916  : 					if(szData.Find("/") >= 0)
; 917  : 					{
; 918  : 						//	szData.Replace("/","-");
; 919  : 						MultiByteToWideChar(CP_ACP, 0, szData, -1, lpszW, nLen);
; 920  : 						sheet1->Cell(row,col)->SetWString(lpszW);
; 921  : 					}
; 922  : 					else
; 923  : 					{
; 924  : 						sheet1->Cell(row,col)->SetDouble(atof(szData));
; 925  : 						MultiByteToWideChar(CP_ACP, 0, szData, -1, lpszW, nLen);
; 926  : 					}
; 927  : 				}
; 928  : 			}
; 929  : 		}		
; 930  : 	}
; 931  : 
; 932  : 	if(!e.SaveAs(szFilePath.GetBuffer(szFilePath.GetLength()))) return;
; 933  : 
; 934  : 	// 04.17.2002   (" ")  
; 935  : 	szExcel = szExcel + " \"" + szFilePath + "\"";	
; 936  : 
; 937  : 	if(::WinExec((LPCTSTR)szExcel, SW_SHOW) > 31)
; 938  : 		return;
; 939  : 	else	
; 940  : 	{
; 941  : 		CString szMsg, strFileSave;
; 942  : 		// szMsg.Format("  \"%s\"   .",szFilePath);
; 943  : 		szMsg.Format("%s \"%s\"%s", strFileSave.LoadString(IDS_FILESAVE1), szFilePath, strFileSave.LoadString(IDS_FILESAVE2));
; 944  : 		MessageBox(szMsg,"nfxChart") ;
; 945  : 		return;
; 946  : 	}
; 947  : #endif
; 948  : 	return;
; 949  : }

  00000	c2 00 00	 ret	 0
?LoadExcel2@CDlgDataListViewer@@QAEXXZ ENDP		; CDlgDataListViewer::LoadExcel2
_TEXT	ENDS
; Function compile flags: /Ogtp
; File D:\git\src\IBK\IBK_DRFN\ProjSrc\SrcChartEx\ChartAddIn\ChartDataListViewerAddIn\Include_AddIn_134221\I134221\_IString.h
;	COMDAT ??1ILPCSTR134221@@QAE@XZ
_TEXT	SEGMENT
__$EHRec$ = -12						; size = 12
??1ILPCSTR134221@@QAE@XZ PROC				; ILPCSTR134221::~ILPCSTR134221, COMDAT
; _this$ = ecx

; 44   : 	{

  00000	55		 push	 ebp
  00001	8b ec		 mov	 ebp, esp
  00003	6a ff		 push	 -1
  00005	68 00 00 00 00	 push	 __ehhandler$??1ILPCSTR134221@@QAE@XZ
  0000a	64 a1 00 00 00
	00		 mov	 eax, DWORD PTR fs:0
  00010	50		 push	 eax
  00011	56		 push	 esi
  00012	a1 00 00 00 00	 mov	 eax, DWORD PTR ___security_cookie
  00017	33 c5		 xor	 eax, ebp
  00019	50		 push	 eax
  0001a	8d 45 f4	 lea	 eax, DWORD PTR __$EHRec$[ebp]
  0001d	64 a3 00 00 00
	00		 mov	 DWORD PTR fs:0, eax
  00023	8b f1		 mov	 esi, ecx

; 45   : 		if( m_pIStrData)

  00025	8b 4e 04	 mov	 ecx, DWORD PTR [esi+4]
  00028	85 c9		 test	 ecx, ecx
  0002a	74 13		 je	 SHORT $LN2@ILPCSTR134

; 46   : 		{
; 47   : 			m_pIStrData->Release();

  0002c	8b 01		 mov	 eax, DWORD PTR [ecx]
  0002e	51		 push	 ecx
  0002f	ff 50 08	 call	 DWORD PTR [eax+8]

; 48   : 			m_pIStrData = NULL;

  00032	c7 46 04 00 00
	00 00		 mov	 DWORD PTR [esi+4], 0

; 49   : 			m_szData = NULL;

  00039	c7 06 00 00 00
	00		 mov	 DWORD PTR [esi], 0
$LN2@ILPCSTR134:

; 50   : 		}
; 51   : 	}

  0003f	8b 4d f4	 mov	 ecx, DWORD PTR __$EHRec$[ebp]
  00042	64 89 0d 00 00
	00 00		 mov	 DWORD PTR fs:0, ecx
  00049	59		 pop	 ecx
  0004a	5e		 pop	 esi
  0004b	8b e5		 mov	 esp, ebp
  0004d	5d		 pop	 ebp
  0004e	c3		 ret	 0
  0004f	cc		 int	 3
  00050	cc		 int	 3
  00051	cc		 int	 3
  00052	cc		 int	 3
  00053	cc		 int	 3
_TEXT	ENDS
;	COMDAT text$x
text$x	SEGMENT
__ehhandler$??1ILPCSTR134221@@QAE@XZ:
  00000	90		 npad	 1
  00001	90		 npad	 1
  00002	8b 54 24 08	 mov	 edx, DWORD PTR [esp+8]
  00006	8d 42 0c	 lea	 eax, DWORD PTR [edx+12]
  00009	8b 4a f8	 mov	 ecx, DWORD PTR [edx-8]
  0000c	33 c8		 xor	 ecx, eax
  0000e	e8 00 00 00 00	 call	 @__security_check_cookie@4
  00013	b8 00 00 00 00	 mov	 eax, OFFSET __ehfuncinfo$??1ILPCSTR134221@@QAE@XZ
  00018	e9 00 00 00 00	 jmp	 ___CxxFrameHandler3
text$x	ENDS
??1ILPCSTR134221@@QAE@XZ ENDP				; ILPCSTR134221::~ILPCSTR134221
; Function compile flags: /Ogtp
; File C:\Program Files (x86)\Microsoft Visual Studio\2019\Community\VC\Tools\MSVC\14.29.30133\atlmfc\include\afx.inl
;	COMDAT ??_GCListCtrl@@UAEPAXI@Z
_TEXT	SEGMENT
___flags$ = 8						; size = 4
??_GCListCtrl@@UAEPAXI@Z PROC				; CListCtrl::`scalar deleting destructor', COMDAT
; _this$ = ecx
  00000	55		 push	 ebp
  00001	8b ec		 mov	 ebp, esp
  00003	56		 push	 esi
  00004	8b f1		 mov	 esi, ecx
  00006	e8 00 00 00 00	 call	 ??1CListCtrl@@UAE@XZ	; CListCtrl::~CListCtrl
  0000b	8b 45 08	 mov	 eax, DWORD PTR ___flags$[ebp]
  0000e	a8 01		 test	 al, 1
  00010	74 22		 je	 SHORT $LN9@scalar
  00012	a8 04		 test	 al, 4
  00014	75 10		 jne	 SHORT $LN3@scalar

; 112  : 	{ ::operator delete(p); }

  00016	56		 push	 esi
  00017	e8 00 00 00 00	 call	 ??3@YAXPAX@Z		; operator delete
  0001c	83 c4 04	 add	 esp, 4
  0001f	8b c6		 mov	 eax, esi
  00021	5e		 pop	 esi
  00022	5d		 pop	 ebp
  00023	c2 04 00	 ret	 4
$LN3@scalar:
  00026	68 80 00 00 00	 push	 128			; 00000080H
  0002b	56		 push	 esi
  0002c	e8 00 00 00 00	 call	 ?__global_delete@@YAXPAXI@Z ; __global_delete
  00031	83 c4 08	 add	 esp, 8
$LN9@scalar:
  00034	8b c6		 mov	 eax, esi
  00036	5e		 pop	 esi
  00037	5d		 pop	 ebp
  00038	c2 04 00	 ret	 4
??_GCListCtrl@@UAEPAXI@Z ENDP				; CListCtrl::`scalar deleting destructor'
_TEXT	ENDS
; Function compile flags: /Ogtp
; File C:\Program Files (x86)\Microsoft Visual Studio\2019\Community\VC\Tools\MSVC\14.29.30133\atlmfc\include\afx.inl
;	COMDAT ??_GCButton@@UAEPAXI@Z
_TEXT	SEGMENT
___flags$ = 8						; size = 4
??_GCButton@@UAEPAXI@Z PROC				; CButton::`scalar deleting destructor', COMDAT
; _this$ = ecx
  00000	55		 push	 ebp
  00001	8b ec		 mov	 ebp, esp
  00003	56		 push	 esi
  00004	8b f1		 mov	 esi, ecx
  00006	e8 00 00 00 00	 call	 ??1CButton@@UAE@XZ	; CButton::~CButton
  0000b	8b 45 08	 mov	 eax, DWORD PTR ___flags$[ebp]
  0000e	a8 01		 test	 al, 1
  00010	74 22		 je	 SHORT $LN9@scalar
  00012	a8 04		 test	 al, 4
  00014	75 10		 jne	 SHORT $LN3@scalar

; 112  : 	{ ::operator delete(p); }

  00016	56		 push	 esi
  00017	e8 00 00 00 00	 call	 ??3@YAXPAX@Z		; operator delete
  0001c	83 c4 04	 add	 esp, 4
  0001f	8b c6		 mov	 eax, esi
  00021	5e		 pop	 esi
  00022	5d		 pop	 ebp
  00023	c2 04 00	 ret	 4
$LN3@scalar:
  00026	68 80 00 00 00	 push	 128			; 00000080H
  0002b	56		 push	 esi
  0002c	e8 00 00 00 00	 call	 ?__global_delete@@YAXPAXI@Z ; __global_delete
  00031	83 c4 08	 add	 esp, 8
$LN9@scalar:
  00034	8b c6		 mov	 eax, esi
  00036	5e		 pop	 esi
  00037	5d		 pop	 ebp
  00038	c2 04 00	 ret	 4
??_GCButton@@UAEPAXI@Z ENDP				; CButton::`scalar deleting destructor'
_TEXT	ENDS
; Function compile flags: /Ogtp
; File C:\Program Files (x86)\Microsoft Visual Studio\2019\Community\VC\Tools\MSVC\14.29.30133\atlmfc\include\afxwin2.inl
;	COMDAT ?Create@CDialog@@UAEHIPAVCWnd@@@Z
_TEXT	SEGMENT
_nIDTemplate$ = 8					; size = 4
_pParentWnd$ = 12					; size = 4
?Create@CDialog@@UAEHIPAVCWnd@@@Z PROC			; CDialog::Create, COMDAT
; _this$ = ecx

; 585  : 	{ return CDialog::Create(ATL_MAKEINTRESOURCE(nIDTemplate), pParentWnd); }

  00000	55		 push	 ebp
  00001	8b ec		 mov	 ebp, esp
  00003	0f b7 45 08	 movzx	 eax, WORD PTR _nIDTemplate$[ebp]
  00007	89 45 08	 mov	 DWORD PTR _nIDTemplate$[ebp], eax
  0000a	5d		 pop	 ebp
  0000b	e9 00 00 00 00	 jmp	 ?Create@CDialog@@UAEHPBDPAVCWnd@@@Z ; CDialog::Create
?Create@CDialog@@UAEHIPAVCWnd@@@Z ENDP			; CDialog::Create
_TEXT	ENDS
; Function compile flags: /Ogtp
; File C:\Program Files (x86)\Microsoft Visual Studio\2019\Community\VC\Tools\MSVC\14.29.30133\atlmfc\include\afxwin2.inl
;	COMDAT ?EndModalState@CWnd@@UAEXXZ
_TEXT	SEGMENT
?EndModalState@CWnd@@UAEXXZ PROC			; CWnd::EndModalState, COMDAT
; _this$ = ecx

; 567  : 	{ ::EnableWindow(m_hWnd, TRUE); }

  00000	6a 01		 push	 1
  00002	ff 71 20	 push	 DWORD PTR [ecx+32]
  00005	ff 15 00 00 00
	00		 call	 DWORD PTR __imp__EnableWindow@8
  0000b	c3		 ret	 0
?EndModalState@CWnd@@UAEXXZ ENDP			; CWnd::EndModalState
_TEXT	ENDS
; Function compile flags: /Ogtp
; File C:\Program Files (x86)\Microsoft Visual Studio\2019\Community\VC\Tools\MSVC\14.29.30133\atlmfc\include\afxwin2.inl
;	COMDAT ?BeginModalState@CWnd@@UAEXXZ
_TEXT	SEGMENT
?BeginModalState@CWnd@@UAEXXZ PROC			; CWnd::BeginModalState, COMDAT
; _this$ = ecx

; 565  : 	{ ::EnableWindow(m_hWnd, FALSE); }

  00000	6a 00		 push	 0
  00002	ff 71 20	 push	 DWORD PTR [ecx+32]
  00005	ff 15 00 00 00
	00		 call	 DWORD PTR __imp__EnableWindow@8
  0000b	c3		 ret	 0
?BeginModalState@CWnd@@UAEXXZ ENDP			; CWnd::BeginModalState
_TEXT	ENDS
; Function compile flags: /Ogtp
; File C:\Program Files (x86)\Microsoft Visual Studio\2019\Community\VC\Tools\MSVC\14.29.30133\atlmfc\include\afxwin2.inl
;	COMDAT ?DoDataExchange@CWnd@@MAEXPAVCDataExchange@@@Z
_TEXT	SEGMENT
___formal$ = 8						; size = 4
?DoDataExchange@CWnd@@MAEXPAVCDataExchange@@@Z PROC	; CWnd::DoDataExchange, COMDAT
; _this$ = ecx

; 561  : 	{ } // default does nothing

  00000	c2 04 00	 ret	 4
?DoDataExchange@CWnd@@MAEXPAVCDataExchange@@@Z ENDP	; CWnd::DoDataExchange
_TEXT	ENDS
; Function compile flags: /Ogtp
; File C:\Program Files (x86)\Microsoft Visual Studio\2019\Community\VC\Tools\MSVC\14.29.30133\atlmfc\include\afxwin1.inl
; File C:\Program Files (x86)\Microsoft Visual Studio\2019\Community\VC\Tools\MSVC\14.29.30133\atlmfc\include\afx.inl
;	COMDAT ??_GCBrush@@UAEPAXI@Z
_TEXT	SEGMENT
___flags$ = 8						; size = 4
??_GCBrush@@UAEPAXI@Z PROC				; CBrush::`scalar deleting destructor', COMDAT
; _this$ = ecx
  00000	55		 push	 ebp
  00001	8b ec		 mov	 ebp, esp
; File C:\Program Files (x86)\Microsoft Visual Studio\2019\Community\VC\Tools\MSVC\14.29.30133\atlmfc\include\afxwin1.inl

; 130  : 	{ }

  00003	56		 push	 esi
  00004	8b f1		 mov	 esi, ecx
  00006	c7 06 00 00 00
	00		 mov	 DWORD PTR [esi], OFFSET ??_7CBrush@@6B@
  0000c	e8 00 00 00 00	 call	 ??1CGdiObject@@UAE@XZ	; CGdiObject::~CGdiObject
  00011	8b 45 08	 mov	 eax, DWORD PTR ___flags$[ebp]
  00014	a8 01		 test	 al, 1
  00016	74 1f		 je	 SHORT $LN12@scalar
  00018	a8 04		 test	 al, 4
  0001a	75 10		 jne	 SHORT $LN3@scalar
; File C:\Program Files (x86)\Microsoft Visual Studio\2019\Community\VC\Tools\MSVC\14.29.30133\atlmfc\include\afx.inl

; 112  : 	{ ::operator delete(p); }

  0001c	56		 push	 esi
  0001d	e8 00 00 00 00	 call	 ??3@YAXPAX@Z		; operator delete
  00022	83 c4 04	 add	 esp, 4
  00025	8b c6		 mov	 eax, esi
  00027	5e		 pop	 esi
  00028	5d		 pop	 ebp
  00029	c2 04 00	 ret	 4
$LN3@scalar:
  0002c	6a 08		 push	 8
  0002e	56		 push	 esi
  0002f	e8 00 00 00 00	 call	 ?__global_delete@@YAXPAXI@Z ; __global_delete
  00034	83 c4 08	 add	 esp, 8
$LN12@scalar:
  00037	8b c6		 mov	 eax, esi
  00039	5e		 pop	 esi
  0003a	5d		 pop	 ebp
  0003b	c2 04 00	 ret	 4
??_GCBrush@@UAEPAXI@Z ENDP				; CBrush::`scalar deleting destructor'
_TEXT	ENDS
; Function compile flags: /Ogtp
; File C:\Program Files (x86)\Microsoft Visual Studio\2019\Community\VC\Tools\MSVC\14.29.30133\atlmfc\include\afxwin1.inl
;	COMDAT ??1CBrush@@UAE@XZ
_TEXT	SEGMENT
??1CBrush@@UAE@XZ PROC					; CBrush::~CBrush, COMDAT
; _this$ = ecx

; 130  : 	{ }

  00000	c7 01 00 00 00
	00		 mov	 DWORD PTR [ecx], OFFSET ??_7CBrush@@6B@
  00006	e9 00 00 00 00	 jmp	 ??1CGdiObject@@UAE@XZ	; CGdiObject::~CGdiObject
??1CBrush@@UAE@XZ ENDP					; CBrush::~CBrush
_TEXT	ENDS
; Function compile flags: /Ogtp
; File C:\Program Files (x86)\Microsoft Visual Studio\2019\Community\VC\Tools\MSVC\14.29.30133\atlmfc\include\afx.inl
;	COMDAT ??_GCGdiObject@@UAEPAXI@Z
_TEXT	SEGMENT
___flags$ = 8						; size = 4
??_GCGdiObject@@UAEPAXI@Z PROC				; CGdiObject::`scalar deleting destructor', COMDAT
; _this$ = ecx
  00000	55		 push	 ebp
  00001	8b ec		 mov	 ebp, esp
  00003	56		 push	 esi
  00004	8b f1		 mov	 esi, ecx
  00006	e8 00 00 00 00	 call	 ??1CGdiObject@@UAE@XZ	; CGdiObject::~CGdiObject
  0000b	8b 45 08	 mov	 eax, DWORD PTR ___flags$[ebp]
  0000e	a8 01		 test	 al, 1
  00010	74 1f		 je	 SHORT $LN9@scalar
  00012	a8 04		 test	 al, 4
  00014	75 10		 jne	 SHORT $LN3@scalar

; 112  : 	{ ::operator delete(p); }

  00016	56		 push	 esi
  00017	e8 00 00 00 00	 call	 ??3@YAXPAX@Z		; operator delete
  0001c	83 c4 04	 add	 esp, 4
  0001f	8b c6		 mov	 eax, esi
  00021	5e		 pop	 esi
  00022	5d		 pop	 ebp
  00023	c2 04 00	 ret	 4
$LN3@scalar:
  00026	6a 08		 push	 8
  00028	56		 push	 esi
  00029	e8 00 00 00 00	 call	 ?__global_delete@@YAXPAXI@Z ; __global_delete
  0002e	83 c4 08	 add	 esp, 8
$LN9@scalar:
  00031	8b c6		 mov	 eax, esi
  00033	5e		 pop	 esi
  00034	5d		 pop	 ebp
  00035	c2 04 00	 ret	 4
??_GCGdiObject@@UAEPAXI@Z ENDP				; CGdiObject::`scalar deleting destructor'
_TEXT	ENDS
; Function compile flags: /Ogtp
; File C:\Program Files (x86)\Microsoft Visual Studio\2019\Community\VC\Tools\MSVC\14.29.30133\atlmfc\include\afxwin1.inl
;	COMDAT ??1CGdiObject@@UAE@XZ
_TEXT	SEGMENT
_pException$2 = -540					; size = 4
_strMsg$3 = -536					; size = 4
_szErrorMessage$4 = -532				; size = 512
__$ArrayPad$ = -20					; size = 4
__$EHRec$ = -16						; size = 16
??1CGdiObject@@UAE@XZ PROC				; CGdiObject::~CGdiObject, COMDAT
; _this$ = ecx

; 74   : {

  00000	55		 push	 ebp
  00001	8b ec		 mov	 ebp, esp
  00003	6a ff		 push	 -1
  00005	68 00 00 00 00	 push	 __ehhandler$??1CGdiObject@@UAE@XZ
  0000a	64 a1 00 00 00
	00		 mov	 eax, DWORD PTR fs:0
  00010	50		 push	 eax
  00011	81 ec 10 02 00
	00		 sub	 esp, 528		; 00000210H
  00017	a1 00 00 00 00	 mov	 eax, DWORD PTR ___security_cookie
  0001c	33 c5		 xor	 eax, ebp
  0001e	89 45 ec	 mov	 DWORD PTR __$ArrayPad$[ebp], eax
  00021	53		 push	 ebx
  00022	56		 push	 esi
  00023	57		 push	 edi
  00024	50		 push	 eax
  00025	8d 45 f4	 lea	 eax, DWORD PTR __$EHRec$[ebp+4]
  00028	64 a3 00 00 00
	00		 mov	 DWORD PTR fs:0, eax
  0002e	89 65 f0	 mov	 DWORD PTR __$EHRec$[ebp], esp
  00031	c7 01 00 00 00
	00		 mov	 DWORD PTR [ecx], OFFSET ??_7CGdiObject@@6B@

; 75   : 	AFX_BEGIN_DESTRUCTOR

  00037	c7 45 fc 00 00
	00 00		 mov	 DWORD PTR __$EHRec$[ebp+12], 0

; 76   : 	DeleteObject();

  0003e	e8 00 00 00 00	 call	 ?DeleteObject@CGdiObject@@QAEHXZ ; CGdiObject::DeleteObject
$LN18@CGdiObject:

; 78   : }

  00043	8b 4d f4	 mov	 ecx, DWORD PTR __$EHRec$[ebp+4]
  00046	64 89 0d 00 00
	00 00		 mov	 DWORD PTR fs:0, ecx
  0004d	59		 pop	 ecx
  0004e	5f		 pop	 edi
  0004f	5e		 pop	 esi
  00050	5b		 pop	 ebx
  00051	8b 4d ec	 mov	 ecx, DWORD PTR __$ArrayPad$[ebp]
  00054	33 cd		 xor	 ecx, ebp
  00056	e8 00 00 00 00	 call	 @__security_check_cookie@4
  0005b	8b e5		 mov	 esp, ebp
  0005d	5d		 pop	 ebp
  0005e	c3		 ret	 0
__catch$??1CGdiObject@@UAE@XZ$0:

; 77   : 	AFX_END_DESTRUCTOR

  0005f	8d 8d e8 fd ff
	ff		 lea	 ecx, DWORD PTR _strMsg$3[ebp]
  00065	ff 15 00 00 00
	00		 call	 DWORD PTR __imp_??0?$CStringT@DV?$StrTraitMFC_DLL@DV?$ChTraitsCRT@D@ATL@@@@@ATL@@QAE@XZ
  0006b	8b b5 e4 fd ff
	ff		 mov	 esi, DWORD PTR _pException$2[ebp]
  00071	8d 8d ec fd ff
	ff		 lea	 ecx, DWORD PTR _szErrorMessage$4[ebp]
  00077	6a 00		 push	 0
  00079	68 00 02 00 00	 push	 512			; 00000200H
  0007e	51		 push	 ecx
  0007f	8b 06		 mov	 eax, DWORD PTR [esi]
  00081	8b ce		 mov	 ecx, esi
  00083	c6 45 fc 02	 mov	 BYTE PTR __$EHRec$[ebp+12], 2
  00087	ff 50 14	 call	 DWORD PTR [eax+20]
  0008a	85 c0		 test	 eax, eax
  0008c	74 2a		 je	 SHORT $LN9@CGdiObject
  0008e	8d 85 ec fd ff
	ff		 lea	 eax, DWORD PTR _szErrorMessage$4[ebp]
  00094	50		 push	 eax
  00095	6a 4d		 push	 77			; 0000004dH
  00097	68 00 00 00 00	 push	 OFFSET ??_C@_0HD@JJCHHHNK@C?3?2Program?5Files?5?$CIx86?$CJ?2Microsof@
  0009c	68 00 00 00 00	 push	 OFFSET ??_C@_0BP@OIEOKIDM@Exception?5thrown?5in?5destructor@
  000a1	8d 85 e8 fd ff
	ff		 lea	 eax, DWORD PTR _strMsg$3[ebp]
  000a7	68 00 00 00 00	 push	 OFFSET ??_C@_0BB@HBOOMJBF@?$CFTs?5?$CI?$CFTs?3?$CFd?$CJ?6?$CFTs@
  000ac	50		 push	 eax
  000ad	ff 15 00 00 00
	00		 call	 DWORD PTR __imp_?Format@?$CStringT@DV?$StrTraitMFC_DLL@DV?$ChTraitsCRT@D@ATL@@@@@ATL@@QAAXPBDZZ
  000b3	83 c4 18	 add	 esp, 24			; 00000018H
  000b6	eb 21		 jmp	 SHORT $LN10@CGdiObject
$LN9@CGdiObject:
  000b8	6a 4d		 push	 77			; 0000004dH
  000ba	68 00 00 00 00	 push	 OFFSET ??_C@_0HD@JJCHHHNK@C?3?2Program?5Files?5?$CIx86?$CJ?2Microsof@
  000bf	68 00 00 00 00	 push	 OFFSET ??_C@_0BP@OIEOKIDM@Exception?5thrown?5in?5destructor@
  000c4	8d 85 e8 fd ff
	ff		 lea	 eax, DWORD PTR _strMsg$3[ebp]
  000ca	68 00 00 00 00	 push	 OFFSET ??_C@_0N@OMEMOKLE@?$CFTs?5?$CI?$CFTs?3?$CFd?$CJ@
  000cf	50		 push	 eax
  000d0	ff 15 00 00 00
	00		 call	 DWORD PTR __imp_?Format@?$CStringT@DV?$StrTraitMFC_DLL@DV?$ChTraitsCRT@D@ATL@@@@@ATL@@QAAXPBDZZ
  000d6	83 c4 14	 add	 esp, 20			; 00000014H
$LN10@CGdiObject:
  000d9	6a 00		 push	 0
  000db	6a 00		 push	 0
  000dd	ff b5 e8 fd ff
	ff		 push	 DWORD PTR _strMsg$3[ebp]
  000e3	e8 00 00 00 00	 call	 ?AfxMessageBox@@YGHPBDII@Z ; AfxMessageBox
  000e8	8d 8d e8 fd ff
	ff		 lea	 ecx, DWORD PTR _strMsg$3[ebp]
  000ee	ff 15 00 00 00
	00		 call	 DWORD PTR __imp_??1?$CStringT@DV?$StrTraitMFC_DLL@DV?$ChTraitsCRT@D@ATL@@@@@ATL@@QAE@XZ
  000f4	8b 06		 mov	 eax, DWORD PTR [esi]
  000f6	8b ce		 mov	 ecx, esi
  000f8	6a 01		 push	 1
  000fa	ff 50 04	 call	 DWORD PTR [eax+4]
  000fd	b8 00 00 00 00	 mov	 eax, $LN18@CGdiObject
  00102	c3		 ret	 0
_TEXT	ENDS
;	COMDAT text$x
text$x	SEGMENT
__unwindfunclet$??1CGdiObject@@UAE@XZ$2:
  00000	8d 8d e8 fd ff
	ff		 lea	 ecx, DWORD PTR _strMsg$3[ebp]
  00006	ff 25 00 00 00
	00		 jmp	 DWORD PTR __imp_??1?$CStringT@DV?$StrTraitMFC_DLL@DV?$ChTraitsCRT@D@ATL@@@@@ATL@@QAE@XZ
  0000c	cc		 int	 3
  0000d	cc		 int	 3
  0000e	cc		 int	 3
  0000f	cc		 int	 3
  00010	cc		 int	 3
__ehhandler$??1CGdiObject@@UAE@XZ:
  00011	90		 npad	 1
  00012	90		 npad	 1
  00013	8b 54 24 08	 mov	 edx, DWORD PTR [esp+8]
  00017	8d 42 0c	 lea	 eax, DWORD PTR [edx+12]
  0001a	8b 8a e0 fd ff
	ff		 mov	 ecx, DWORD PTR [edx-544]
  00020	33 c8		 xor	 ecx, eax
  00022	e8 00 00 00 00	 call	 @__security_check_cookie@4
  00027	8b 4a f8	 mov	 ecx, DWORD PTR [edx-8]
  0002a	33 c8		 xor	 ecx, eax
  0002c	e8 00 00 00 00	 call	 @__security_check_cookie@4
  00031	b8 00 00 00 00	 mov	 eax, OFFSET __ehfuncinfo$??1CGdiObject@@UAE@XZ
  00036	e9 00 00 00 00	 jmp	 ___CxxFrameHandler3
text$x	ENDS
??1CGdiObject@@UAE@XZ ENDP				; CGdiObject::~CGdiObject
; Function compile flags: /Ogtp
; File C:\Program Files (x86)\Microsoft Visual Studio\2019\Community\VC\Tools\MSVC\14.29.30133\atlmfc\include\afx.inl
;	COMDAT ??_GCFileException@@UAEPAXI@Z
_TEXT	SEGMENT
___flags$ = 8						; size = 4
??_GCFileException@@UAEPAXI@Z PROC			; CFileException::`scalar deleting destructor', COMDAT
; _this$ = ecx
  00000	55		 push	 ebp
  00001	8b ec		 mov	 ebp, esp

; 170  : 	{ }

  00003	56		 push	 esi
  00004	8b f1		 mov	 esi, ecx
  00006	8d 4e 10	 lea	 ecx, DWORD PTR [esi+16]
  00009	c7 06 00 00 00
	00		 mov	 DWORD PTR [esi], OFFSET ??_7CFileException@@6B@
  0000f	ff 15 00 00 00
	00		 call	 DWORD PTR __imp_??1?$CStringT@DV?$StrTraitMFC_DLL@DV?$ChTraitsCRT@D@ATL@@@@@ATL@@QAE@XZ
  00015	8b 45 08	 mov	 eax, DWORD PTR ___flags$[ebp]
  00018	a8 01		 test	 al, 1
  0001a	74 1f		 je	 SHORT $LN12@scalar
  0001c	a8 04		 test	 al, 4
  0001e	75 10		 jne	 SHORT $LN3@scalar

; 112  : 	{ ::operator delete(p); }

  00020	56		 push	 esi
  00021	e8 00 00 00 00	 call	 ??3@YAXPAX@Z		; operator delete
  00026	83 c4 04	 add	 esp, 4
  00029	8b c6		 mov	 eax, esi
  0002b	5e		 pop	 esi
  0002c	5d		 pop	 ebp
  0002d	c2 04 00	 ret	 4
$LN3@scalar:
  00030	6a 14		 push	 20			; 00000014H
  00032	56		 push	 esi
  00033	e8 00 00 00 00	 call	 ?__global_delete@@YAXPAXI@Z ; __global_delete
  00038	83 c4 08	 add	 esp, 8
$LN12@scalar:
  0003b	8b c6		 mov	 eax, esi
  0003d	5e		 pop	 esi
  0003e	5d		 pop	 ebp
  0003f	c2 04 00	 ret	 4
??_GCFileException@@UAEPAXI@Z ENDP			; CFileException::`scalar deleting destructor'
_TEXT	ENDS
; Function compile flags: /Ogtp
; File C:\Program Files (x86)\Microsoft Visual Studio\2019\Community\VC\Tools\MSVC\14.29.30133\atlmfc\include\afx.inl
;	COMDAT ??1CFileException@@UAE@XZ
_TEXT	SEGMENT
??1CFileException@@UAE@XZ PROC				; CFileException::~CFileException, COMDAT
; _this$ = ecx

; 170  : 	{ }

  00000	c7 01 00 00 00
	00		 mov	 DWORD PTR [ecx], OFFSET ??_7CFileException@@6B@
  00006	83 c1 10	 add	 ecx, 16			; 00000010H
  00009	ff 25 00 00 00
	00		 jmp	 DWORD PTR __imp_??1?$CStringT@DV?$StrTraitMFC_DLL@DV?$ChTraitsCRT@D@ATL@@@@@ATL@@QAE@XZ
??1CFileException@@UAE@XZ ENDP				; CFileException::~CFileException
_TEXT	ENDS
; Function compile flags: /Ogtp
; File C:\Program Files (x86)\Microsoft Visual Studio\2019\Community\VC\Tools\MSVC\14.29.30133\atlmfc\include\cstringt.h
; File C:\Program Files (x86)\Microsoft Visual Studio\2019\Community\VC\Tools\MSVC\14.29.30133\atlmfc\include\atlsimpstr.h
; File C:\Program Files (x86)\Microsoft Visual Studio\2019\Community\VC\Tools\MSVC\14.29.30133\atlmfc\include\cstringt.h
; File C:\Program Files (x86)\Microsoft Visual Studio\2019\Community\VC\Tools\MSVC\14.29.30133\atlmfc\include\atlsimpstr.h
; File C:\Program Files (x86)\Microsoft Visual Studio\2019\Community\VC\Tools\MSVC\14.29.30133\atlmfc\include\cstringt.h
;	COMDAT ??HATL@@YA?AV?$CStringT@DV?$StrTraitMFC_DLL@DV?$ChTraitsCRT@D@ATL@@@@@0@ABV10@0@Z
_TEXT	SEGMENT
$T2 = -16						; size = 4
__$EHRec$ = -12						; size = 12
___$ReturnUdt$ = 8					; size = 4
_str1$ = 12						; size = 4
_str2$ = 16						; size = 4
??HATL@@YA?AV?$CStringT@DV?$StrTraitMFC_DLL@DV?$ChTraitsCRT@D@ATL@@@@@0@ABV10@0@Z PROC ; ATL::operator+, COMDAT

; 2389 : 	{

  00000	55		 push	 ebp
  00001	8b ec		 mov	 ebp, esp
  00003	6a ff		 push	 -1
  00005	68 00 00 00 00	 push	 __ehhandler$??HATL@@YA?AV?$CStringT@DV?$StrTraitMFC_DLL@DV?$ChTraitsCRT@D@ATL@@@@@0@ABV10@0@Z
  0000a	64 a1 00 00 00
	00		 mov	 eax, DWORD PTR fs:0
  00010	50		 push	 eax
  00011	51		 push	 ecx
  00012	56		 push	 esi
  00013	57		 push	 edi
  00014	a1 00 00 00 00	 mov	 eax, DWORD PTR ___security_cookie
  00019	33 c5		 xor	 eax, ebp
  0001b	50		 push	 eax
  0001c	8d 45 f4	 lea	 eax, DWORD PTR __$EHRec$[ebp]
  0001f	64 a3 00 00 00
	00		 mov	 DWORD PTR fs:0, eax

; 2390 : 		CStringT strResult( str1.GetManager() );

  00025	8b 75 0c	 mov	 esi, DWORD PTR _str1$[ebp]
  00028	8b ce		 mov	 ecx, esi
  0002a	c7 45 f0 00 00
	00 00		 mov	 DWORD PTR $T2[ebp], 0
  00031	ff 15 00 00 00
	00		 call	 DWORD PTR __imp_?GetManager@?$CStringT@DV?$StrTraitMFC_DLL@DV?$ChTraitsCRT@D@ATL@@@@@ATL@@QBEPAUIAtlStringMgr@2@XZ
  00037	8b 7d 08	 mov	 edi, DWORD PTR ___$ReturnUdt$[ebp]
  0003a	8b cf		 mov	 ecx, edi
  0003c	50		 push	 eax
  0003d	ff 15 00 00 00
	00		 call	 DWORD PTR __imp_??0?$CStringT@DV?$StrTraitMFC_DLL@DV?$ChTraitsCRT@D@ATL@@@@@ATL@@QAE@PAUIAtlStringMgr@1@@Z
; File C:\Program Files (x86)\Microsoft Visual Studio\2019\Community\VC\Tools\MSVC\14.29.30133\atlmfc\include\atlsimpstr.h

; 519  : 		return( GetData()->nDataLength );

  00043	8b 45 10	 mov	 eax, DWORD PTR _str2$[ebp]
  00046	8b 16		 mov	 edx, DWORD PTR [esi]
; File C:\Program Files (x86)\Microsoft Visual Studio\2019\Community\VC\Tools\MSVC\14.29.30133\atlmfc\include\cstringt.h

; 2394 : 		return( strResult );

  00048	c7 45 fc 00 00
	00 00		 mov	 DWORD PTR __$EHRec$[ebp+8], 0
  0004f	c7 45 f0 01 00
	00 00		 mov	 DWORD PTR $T2[ebp], 1
; File C:\Program Files (x86)\Microsoft Visual Studio\2019\Community\VC\Tools\MSVC\14.29.30133\atlmfc\include\atlsimpstr.h

; 519  : 		return( GetData()->nDataLength );

  00056	8b 08		 mov	 ecx, DWORD PTR [eax]
; File C:\Program Files (x86)\Microsoft Visual Studio\2019\Community\VC\Tools\MSVC\14.29.30133\atlmfc\include\cstringt.h

; 2392 : 		CThisSimpleString::Concatenate( strResult, str1, str1.GetLength(), str2, str2.GetLength() );

  00058	ff 71 f4	 push	 DWORD PTR [ecx-12]
  0005b	51		 push	 ecx
  0005c	ff 72 f4	 push	 DWORD PTR [edx-12]
  0005f	52		 push	 edx
  00060	57		 push	 edi
  00061	ff 15 00 00 00
	00		 call	 DWORD PTR __imp_?Concatenate@?$CSimpleStringT@D$00@ATL@@KAXAAV12@PBDH1H@Z
  00067	83 c4 14	 add	 esp, 20			; 00000014H

; 2394 : 		return( strResult );

  0006a	8b c7		 mov	 eax, edi

; 2395 : 	}

  0006c	8b 4d f4	 mov	 ecx, DWORD PTR __$EHRec$[ebp]
  0006f	64 89 0d 00 00
	00 00		 mov	 DWORD PTR fs:0, ecx
  00076	59		 pop	 ecx
  00077	5f		 pop	 edi
  00078	5e		 pop	 esi
  00079	8b e5		 mov	 esp, ebp
  0007b	5d		 pop	 ebp
  0007c	c3		 ret	 0
_TEXT	ENDS
;	COMDAT text$x
text$x	SEGMENT
__unwindfunclet$??HATL@@YA?AV?$CStringT@DV?$StrTraitMFC_DLL@DV?$ChTraitsCRT@D@ATL@@@@@0@ABV10@0@Z$0:
  00000	8b 45 f0	 mov	 eax, DWORD PTR $T2[ebp]
  00003	83 e0 01	 and	 eax, 1
  00006	0f 84 0d 00 00
	00		 je	 $LN4@operator
  0000c	83 65 f0 fe	 and	 DWORD PTR $T2[ebp], -2	; fffffffeH
  00010	8b 4d 08	 mov	 ecx, DWORD PTR ___$ReturnUdt$[ebp]
  00013	ff 25 00 00 00
	00		 jmp	 DWORD PTR __imp_??1?$CStringT@DV?$StrTraitMFC_DLL@DV?$ChTraitsCRT@D@ATL@@@@@ATL@@QAE@XZ
$LN4@operator:
  00019	c3		 ret	 0
  0001a	cc		 int	 3
  0001b	cc		 int	 3
  0001c	cc		 int	 3
  0001d	cc		 int	 3
  0001e	cc		 int	 3
__ehhandler$??HATL@@YA?AV?$CStringT@DV?$StrTraitMFC_DLL@DV?$ChTraitsCRT@D@ATL@@@@@0@ABV10@0@Z:
  0001f	90		 npad	 1
  00020	90		 npad	 1
  00021	8b 54 24 08	 mov	 edx, DWORD PTR [esp+8]
  00025	8d 42 0c	 lea	 eax, DWORD PTR [edx+12]
  00028	8b 4a f0	 mov	 ecx, DWORD PTR [edx-16]
  0002b	33 c8		 xor	 ecx, eax
  0002d	e8 00 00 00 00	 call	 @__security_check_cookie@4
  00032	b8 00 00 00 00	 mov	 eax, OFFSET __ehfuncinfo$??HATL@@YA?AV?$CStringT@DV?$StrTraitMFC_DLL@DV?$ChTraitsCRT@D@ATL@@@@@0@ABV10@0@Z
  00037	e9 00 00 00 00	 jmp	 ___CxxFrameHandler3
text$x	ENDS
??HATL@@YA?AV?$CStringT@DV?$StrTraitMFC_DLL@DV?$ChTraitsCRT@D@ATL@@@@@0@ABV10@0@Z ENDP ; ATL::operator+
; Function compile flags: /Ogtp
; File C:\Program Files (x86)\Microsoft Visual Studio\2019\Community\VC\Tools\MSVC\14.29.30133\atlmfc\include\afx.inl
;	COMDAT ??1CException@@UAE@XZ
_TEXT	SEGMENT
??1CException@@UAE@XZ PROC				; CException::~CException, COMDAT
; _this$ = ecx

; 134  : 	{ }

  00000	c2 00 00	 ret	 0
??1CException@@UAE@XZ ENDP				; CException::~CException
_TEXT	ENDS
; Function compile flags: /Ogtp
; File C:\Program Files (x86)\Microsoft Visual Studio\2019\Community\VC\Tools\MSVC\14.29.30133\atlmfc\include\afx.inl
;	COMDAT ?Dump@CObject@@UBEXAAVCDumpContext@@@Z
_TEXT	SEGMENT
___formal$ = 8						; size = 4
?Dump@CObject@@UBEXAAVCDumpContext@@@Z PROC		; CObject::Dump, COMDAT
; _this$ = ecx

; 122  : 	{ /* no dumping in release builds */ }

  00000	c2 04 00	 ret	 4
?Dump@CObject@@UBEXAAVCDumpContext@@@Z ENDP		; CObject::Dump
_TEXT	ENDS
; Function compile flags: /Ogtp
; File C:\Program Files (x86)\Microsoft Visual Studio\2019\Community\VC\Tools\MSVC\14.29.30133\atlmfc\include\afx.inl
;	COMDAT ?AssertValid@CObject@@UBEXXZ
_TEXT	SEGMENT
?AssertValid@CObject@@UBEXXZ PROC			; CObject::AssertValid, COMDAT
; _this$ = ecx

; 120  : 	{ /* no asserts in release builds */ }

  00000	c2 00 00	 ret	 0
?AssertValid@CObject@@UBEXXZ ENDP			; CObject::AssertValid
_TEXT	ENDS
; Function compile flags: /Ogtp
; File C:\Program Files (x86)\Microsoft Visual Studio\2019\Community\VC\Tools\MSVC\14.29.30133\atlmfc\include\afx.inl
;	COMDAT ?Serialize@CObject@@UAEXAAVCArchive@@@Z
_TEXT	SEGMENT
___formal$ = 8						; size = 4
?Serialize@CObject@@UAEXAAVCArchive@@@Z PROC		; CObject::Serialize, COMDAT
; _this$ = ecx

; 106  : 	{ /* CObject does not serialize anything by default */ }

  00000	c2 04 00	 ret	 4
?Serialize@CObject@@UAEXAAVCArchive@@@Z ENDP		; CObject::Serialize
_TEXT	ENDS
; Function compile flags: /Ogtp
; File C:\Program Files (x86)\Microsoft Visual Studio\2019\Community\VC\Tools\MSVC\14.29.30133\atlmfc\include\afx.inl
;	COMDAT ??3CObject@@SGXPAX@Z
_TEXT	SEGMENT
_p$ = 8							; size = 4
??3CObject@@SGXPAX@Z PROC				; CObject::operator delete, COMDAT

; 112  : 	{ ::operator delete(p); }

  00000	55		 push	 ebp
  00001	8b ec		 mov	 ebp, esp
  00003	ff 75 08	 push	 DWORD PTR _p$[ebp]
  00006	e8 00 00 00 00	 call	 ??3@YAXPAX@Z		; operator delete
  0000b	83 c4 04	 add	 esp, 4
  0000e	5d		 pop	 ebp
  0000f	c2 04 00	 ret	 4
??3CObject@@SGXPAX@Z ENDP				; CObject::operator delete
_TEXT	ENDS
; Function compile flags: /Ogtp
; File C:\Program Files (x86)\Microsoft Visual Studio\2019\Community\VC\Tools\MSVC\14.29.30133\atlmfc\include\afx.inl
;	COMDAT ??1CObject@@UAE@XZ
_TEXT	SEGMENT
??1CObject@@UAE@XZ PROC					; CObject::~CObject, COMDAT
; _this$ = ecx

; 104  : 	{ }

  00000	c2 00 00	 ret	 0
??1CObject@@UAE@XZ ENDP					; CObject::~CObject
_TEXT	ENDS
; Function compile flags: /Ogtp
; File C:\Program Files (x86)\Microsoft Visual Studio\2019\Community\VC\Tools\MSVC\14.29.30133\atlmfc\include\afx.h
;	COMDAT ?AfxCrtErrorCheck@@YAHH@Z
_TEXT	SEGMENT
_error$ = 8						; size = 4
?AfxCrtErrorCheck@@YAHH@Z PROC				; AfxCrtErrorCheck, COMDAT

; 503  : {

  00000	55		 push	 ebp
  00001	8b ec		 mov	 ebp, esp

; 504  : 	switch(error)

  00003	8b 4d 08	 mov	 ecx, DWORD PTR _error$[ebp]
  00006	83 f9 50	 cmp	 ecx, 80			; 00000050H
  00009	77 17		 ja	 SHORT $LN9@AfxCrtErro
  0000b	0f b6 81 00 00
	00 00		 movzx	 eax, BYTE PTR $LN11@AfxCrtErro[ecx]
  00012	ff 24 85 00 00
	00 00		 jmp	 DWORD PTR $LN12@AfxCrtErro[eax*4]
$LN4@AfxCrtErro:

; 505  : 	{
; 506  : 	case ENOMEM:
; 507  : 		AfxThrowMemoryException();

  00019	e9 00 00 00 00	 jmp	 ?AfxThrowMemoryException@@YGXXZ ; AfxThrowMemoryException
$LN7@AfxCrtErro:

; 518  : 		break;
; 519  : 	}
; 520  : 	return error;

  0001e	8b c1		 mov	 eax, ecx

; 521  : }

  00020	5d		 pop	 ebp
  00021	c3		 ret	 0
$LN9@AfxCrtErro:

; 508  : 		break;
; 509  : 	case EINVAL:
; 510  : 	case ERANGE:
; 511  : 		AfxThrowInvalidArgException();
; 512  : 		break;
; 513  : 	case STRUNCATE:
; 514  : 	case 0:
; 515  : 		break;
; 516  : 	default:
; 517  : 		AfxThrowInvalidArgException();

  00022	e9 00 00 00 00	 jmp	 ?AfxThrowInvalidArgException@@YGXXZ ; AfxThrowInvalidArgException
  00027	90		 npad	 1
$LN12@AfxCrtErro:

; 521  : }

  00028	00 00 00 00	 DD	 $LN7@AfxCrtErro
  0002c	00 00 00 00	 DD	 $LN4@AfxCrtErro
  00030	00 00 00 00	 DD	 $LN9@AfxCrtErro
  00034	00 00 00 00	 DD	 $LN9@AfxCrtErro
$LN11@AfxCrtErro:
  00038	00		 DB	 0
  00039	03		 DB	 3
  0003a	03		 DB	 3
  0003b	03		 DB	 3
  0003c	03		 DB	 3
  0003d	03		 DB	 3
  0003e	03		 DB	 3
  0003f	03		 DB	 3
  00040	03		 DB	 3
  00041	03		 DB	 3
  00042	03		 DB	 3
  00043	03		 DB	 3
  00044	01		 DB	 1
  00045	03		 DB	 3
  00046	03		 DB	 3
  00047	03		 DB	 3
  00048	03		 DB	 3
  00049	03		 DB	 3
  0004a	03		 DB	 3
  0004b	03		 DB	 3
  0004c	03		 DB	 3
  0004d	03		 DB	 3
  0004e	02		 DB	 2
  0004f	03		 DB	 3
  00050	03		 DB	 3
  00051	03		 DB	 3
  00052	03		 DB	 3
  00053	03		 DB	 3
  00054	03		 DB	 3
  00055	03		 DB	 3
  00056	03		 DB	 3
  00057	03		 DB	 3
  00058	03		 DB	 3
  00059	03		 DB	 3
  0005a	02		 DB	 2
  0005b	03		 DB	 3
  0005c	03		 DB	 3
  0005d	03		 DB	 3
  0005e	03		 DB	 3
  0005f	03		 DB	 3
  00060	03		 DB	 3
  00061	03		 DB	 3
  00062	03		 DB	 3
  00063	03		 DB	 3
  00064	03		 DB	 3
  00065	03		 DB	 3
  00066	03		 DB	 3
  00067	03		 DB	 3
  00068	03		 DB	 3
  00069	03		 DB	 3
  0006a	03		 DB	 3
  0006b	03		 DB	 3
  0006c	03		 DB	 3
  0006d	03		 DB	 3
  0006e	03		 DB	 3
  0006f	03		 DB	 3
  00070	03		 DB	 3
  00071	03		 DB	 3
  00072	03		 DB	 3
  00073	03		 DB	 3
  00074	03		 DB	 3
  00075	03		 DB	 3
  00076	03		 DB	 3
  00077	03		 DB	 3
  00078	03		 DB	 3
  00079	03		 DB	 3
  0007a	03		 DB	 3
  0007b	03		 DB	 3
  0007c	03		 DB	 3
  0007d	03		 DB	 3
  0007e	03		 DB	 3
  0007f	03		 DB	 3
  00080	03		 DB	 3
  00081	03		 DB	 3
  00082	03		 DB	 3
  00083	03		 DB	 3
  00084	03		 DB	 3
  00085	03		 DB	 3
  00086	03		 DB	 3
  00087	03		 DB	 3
  00088	00		 DB	 0
?AfxCrtErrorCheck@@YAHH@Z ENDP				; AfxCrtErrorCheck
_TEXT	ENDS
; Function compile flags: /Ogtp
; File D:\git\src\IBK\IBK_DRFN\ProjSrc\SrcChartEx\ChartAddIn\ChartDataListViewerAddIn\ChartDataListViewerAddIn\DlgDataListViewer.cpp
;	COMDAT ?__empty_global_delete@@YAXPAXI@Z
_TEXT	SEGMENT
___formal$ = 8						; size = 4
___formal$ = 12						; size = 4
?__empty_global_delete@@YAXPAXI@Z PROC			; __empty_global_delete, COMDAT

  00000	c2 00 00	 ret	 0
?__empty_global_delete@@YAXPAXI@Z ENDP			; __empty_global_delete
_TEXT	ENDS
; Function compile flags: /Ogtp
; File D:\git\src\IBK\IBK_DRFN\ProjSrc\SrcChartEx\ChartAddIn\ChartDataListViewerAddIn\ChartDataListViewerAddIn\DlgDataListViewer.cpp
;	COMDAT ?__empty_global_delete@@YAXPAX@Z
_TEXT	SEGMENT
___formal$ = 8						; size = 4
?__empty_global_delete@@YAXPAX@Z PROC			; __empty_global_delete, COMDAT

  00000	c2 00 00	 ret	 0
?__empty_global_delete@@YAXPAX@Z ENDP			; __empty_global_delete
_TEXT	ENDS
END
