; Listing generated by Microsoft (R) Optimizing Compiler Version 19.29.30145.0 

	TITLE	D:\git\src\IBK\IBK_DRFN\#DRfn-CS\_Obj\ChartDataListViewerAddIn\DlgDataSimulator.obj
	.686P
	.XMM
	include listing.inc
	.model	flat

INCLUDELIB MSVCRT
INCLUDELIB OLDNAMES

PUBLIC	??_H@YGXPAXIIP6EPAX0@Z@Z			; `vector constructor iterator'
PUBLIC	?__empty_global_delete@@YAXPAX@Z		; __empty_global_delete
PUBLIC	?__empty_global_delete@@YAXPAXI@Z		; __empty_global_delete
PUBLIC	?AfxCrtErrorCheck@@YAHH@Z			; AfxCrtErrorCheck
PUBLIC	??1CObject@@UAE@XZ				; CObject::~CObject
PUBLIC	?Serialize@CObject@@UAEXAAVCArchive@@@Z		; CObject::Serialize
PUBLIC	?AssertValid@CObject@@UBEXXZ			; CObject::AssertValid
PUBLIC	?Dump@CObject@@UBEXAAVCDumpContext@@@Z		; CObject::Dump
PUBLIC	??1CException@@UAE@XZ				; CException::~CException
PUBLIC	?AtlThrowImpl@ATL@@YGXJ@Z			; ATL::AtlThrowImpl
PUBLIC	??HATL@@YA?AV?$CStringT@DV?$StrTraitMFC_DLL@DV?$ChTraitsCRT@D@ATL@@@@@0@ABV10@0@Z ; ATL::operator+
PUBLIC	??1AFX_EXCEPTION_LINK@@QAE@XZ			; AFX_EXCEPTION_LINK::~AFX_EXCEPTION_LINK
PUBLIC	??1CFileException@@UAE@XZ			; CFileException::~CFileException
PUBLIC	??_GCFileException@@UAEPAXI@Z			; CFileException::`scalar deleting destructor'
PUBLIC	??0CTimeSpan@ATL@@QAE@JHHH@Z			; ATL::CTimeSpan::CTimeSpan
PUBLIC	??0CTime@ATL@@QAE@HHHHHHH@Z			; ATL::CTime::CTime
PUBLIC	?GetGmtTm@CTime@ATL@@QBEPAUtm@@PAU3@@Z		; ATL::CTime::GetGmtTm
PUBLIC	?GetYear@CTime@ATL@@QBEHXZ			; ATL::CTime::GetYear
PUBLIC	?GetMonth@CTime@ATL@@QBEHXZ			; ATL::CTime::GetMonth
PUBLIC	?GetDay@CTime@ATL@@QBEHXZ			; ATL::CTime::GetDay
PUBLIC	?GetHour@CTime@ATL@@QBEHXZ			; ATL::CTime::GetHour
PUBLIC	?GetMinute@CTime@ATL@@QBEHXZ			; ATL::CTime::GetMinute
PUBLIC	?GetSecond@CTime@ATL@@QBEHXZ			; ATL::CTime::GetSecond
PUBLIC	?DoDataExchange@CWnd@@MAEXPAVCDataExchange@@@Z	; CWnd::DoDataExchange
PUBLIC	?BeginModalState@CWnd@@UAEXXZ			; CWnd::BeginModalState
PUBLIC	?EndModalState@CWnd@@UAEXXZ			; CWnd::EndModalState
PUBLIC	?Create@CDialog@@UAEHIPAVCWnd@@@Z		; CDialog::Create
PUBLIC	??4CChartRecordSet@@QAEAAV0@AAV0@@Z		; CChartRecordSet::operator=
PUBLIC	??0CChartRecordSet@@QAE@XZ			; CChartRecordSet::CChartRecordSet
PUBLIC	??0CChartDataGridHeaderInfo@@QAE@XZ		; CChartDataGridHeaderInfo::CChartDataGridHeaderInfo
PUBLIC	??0?$CArray@PAVCChartDataGridHeaderInfo@@PAV1@@@QAE@XZ ; CArray<CChartDataGridHeaderInfo *,CChartDataGridHeaderInfo *>::CArray<CChartDataGridHeaderInfo *,CChartDataGridHeaderInfo *>
PUBLIC	?SetSize@?$CArray@PAVCChartDataGridHeaderInfo@@PAV1@@@QAEXHH@Z ; CArray<CChartDataGridHeaderInfo *,CChartDataGridHeaderInfo *>::SetSize
PUBLIC	?GetAt@?$CArray@PAVCChartDataGridHeaderInfo@@PAV1@@@QAEAAPAVCChartDataGridHeaderInfo@@H@Z ; CArray<CChartDataGridHeaderInfo *,CChartDataGridHeaderInfo *>::GetAt
PUBLIC	?SetAtGrow@?$CArray@PAVCChartDataGridHeaderInfo@@PAV1@@@QAEXHPAVCChartDataGridHeaderInfo@@@Z ; CArray<CChartDataGridHeaderInfo *,CChartDataGridHeaderInfo *>::SetAtGrow
PUBLIC	?Append@?$CArray@PAVCChartDataGridHeaderInfo@@PAV1@@@QAEHABV1@@Z ; CArray<CChartDataGridHeaderInfo *,CChartDataGridHeaderInfo *>::Append
PUBLIC	??1?$CArray@PAVCChartDataGridHeaderInfo@@PAV1@@@UAE@XZ ; CArray<CChartDataGridHeaderInfo *,CChartDataGridHeaderInfo *>::~CArray<CChartDataGridHeaderInfo *,CChartDataGridHeaderInfo *>
PUBLIC	?Serialize@?$CArray@PAVCChartDataGridHeaderInfo@@PAV1@@@UAEXAAVCArchive@@@Z ; CArray<CChartDataGridHeaderInfo *,CChartDataGridHeaderInfo *>::Serialize
PUBLIC	??_G?$CArray@PAVCChartDataGridHeaderInfo@@PAV1@@@UAEPAXI@Z ; CArray<CChartDataGridHeaderInfo *,CChartDataGridHeaderInfo *>::`scalar deleting destructor'
PUBLIC	??0?$CList@PAVCChartRecordSet@@PAV1@@@QAE@H@Z	; CList<CChartRecordSet *,CChartRecordSet *>::CList<CChartRecordSet *,CChartRecordSet *>
PUBLIC	?RemoveHead@?$CList@PAVCChartRecordSet@@PAV1@@@QAEPAVCChartRecordSet@@XZ ; CList<CChartRecordSet *,CChartRecordSet *>::RemoveHead
PUBLIC	?AddTail@?$CList@PAVCChartRecordSet@@PAV1@@@QAEPAU__POSITION@@PAVCChartRecordSet@@@Z ; CList<CChartRecordSet *,CChartRecordSet *>::AddTail
PUBLIC	?AddTail@?$CList@PAVCChartRecordSet@@PAV1@@@QAEXPAV1@@Z ; CList<CChartRecordSet *,CChartRecordSet *>::AddTail
PUBLIC	?RemoveAll@?$CList@PAVCChartRecordSet@@PAV1@@@QAEXXZ ; CList<CChartRecordSet *,CChartRecordSet *>::RemoveAll
PUBLIC	?RemoveAt@?$CList@PAVCChartRecordSet@@PAV1@@@QAEXPAU__POSITION@@@Z ; CList<CChartRecordSet *,CChartRecordSet *>::RemoveAt
PUBLIC	?FindIndex@?$CList@PAVCChartRecordSet@@PAV1@@@QBEPAU__POSITION@@H@Z ; CList<CChartRecordSet *,CChartRecordSet *>::FindIndex
PUBLIC	?NewNode@?$CList@PAVCChartRecordSet@@PAV1@@@IAEPAUCNode@1@PAU21@0@Z ; CList<CChartRecordSet *,CChartRecordSet *>::NewNode
PUBLIC	?FreeNode@?$CList@PAVCChartRecordSet@@PAV1@@@IAEXPAUCNode@1@@Z ; CList<CChartRecordSet *,CChartRecordSet *>::FreeNode
PUBLIC	??1?$CList@PAVCChartRecordSet@@PAV1@@@UAE@XZ	; CList<CChartRecordSet *,CChartRecordSet *>::~CList<CChartRecordSet *,CChartRecordSet *>
PUBLIC	?Serialize@?$CList@PAVCChartRecordSet@@PAV1@@@UAEXAAVCArchive@@@Z ; CList<CChartRecordSet *,CChartRecordSet *>::Serialize
PUBLIC	??_G?$CList@PAVCChartRecordSet@@PAV1@@@UAEPAXI@Z ; CList<CChartRecordSet *,CChartRecordSet *>::`scalar deleting destructor'
PUBLIC	??0CDlgDataSimulator@@QAE@W4CHART_MODE@CChartInfo@@PAVCWnd@@@Z ; CDlgDataSimulator::CDlgDataSimulator
PUBLIC	?InitGrid@CDlgDataSimulator@@QAEXXZ		; CDlgDataSimulator::InitGrid
PUBLIC	?MakeTitle@CDlgDataSimulator@@QAEXXZ		; CDlgDataSimulator::MakeTitle
PUBLIC	?InitChartData@CDlgDataSimulator@@QAEXXZ	; CDlgDataSimulator::InitChartData
PUBLIC	?MakeCopyChartData@CDlgDataSimulator@@QAEXXZ	; CDlgDataSimulator::MakeCopyChartData
PUBLIC	?PreTranslateMessage@CDlgDataSimulator@@UAEHPAUtagMSG@@@Z ; CDlgDataSimulator::PreTranslateMessage
PUBLIC	?DoDataExchange@CDlgDataSimulator@@MAEXPAVCDataExchange@@@Z ; CDlgDataSimulator::DoDataExchange
PUBLIC	?WindowProc@CDlgDataSimulator@@MAEJIIJ@Z	; CDlgDataSimulator::WindowProc
PUBLIC	?OnBtnAdd@CDlgDataSimulator@@IAEXXZ		; CDlgDataSimulator::OnBtnAdd
PUBLIC	?OnBtnDel@CDlgDataSimulator@@IAEXXZ		; CDlgDataSimulator::OnBtnDel
PUBLIC	?OnBtnExcelExport@CDlgDataSimulator@@IAEXXZ	; CDlgDataSimulator::OnBtnExcelExport
PUBLIC	?OnBtnExport@CDlgDataSimulator@@IAEXXZ		; CDlgDataSimulator::OnBtnExport
PUBLIC	?OnBtnImport@CDlgDataSimulator@@IAEXXZ		; CDlgDataSimulator::OnBtnImport
PUBLIC	?OnBtnInit@CDlgDataSimulator@@IAEXXZ		; CDlgDataSimulator::OnBtnInit
PUBLIC	?OnBtnRemoveAll@CDlgDataSimulator@@IAEXXZ	; CDlgDataSimulator::OnBtnRemoveAll
PUBLIC	?OnOK@CDlgDataSimulator@@MAEXXZ			; CDlgDataSimulator::OnOK
PUBLIC	?OnInitDialog@CDlgDataSimulator@@MAEHXZ		; CDlgDataSimulator::OnInitDialog
PUBLIC	?OnBtnOk@CDlgDataSimulator@@IAEXXZ		; CDlgDataSimulator::OnBtnOk
PUBLIC	?OnDestroy@CDlgDataSimulator@@IAEXXZ		; CDlgDataSimulator::OnDestroy
PUBLIC	?GetThisMessageMap@CDlgDataSimulator@@KGPBUAFX_MSGMAP@@XZ ; CDlgDataSimulator::GetThisMessageMap
PUBLIC	?GetMessageMap@CDlgDataSimulator@@MBEPBUAFX_MSGMAP@@XZ ; CDlgDataSimulator::GetMessageMap
PUBLIC	??_GCDlgDataSimulator@@UAEPAXI@Z		; CDlgDataSimulator::`scalar deleting destructor'
PUBLIC	?LoadResourceDLL@IMetaTable@@QAEPAUHINSTANCE__@@PAUHWND__@@PAU2@@Z ; IMetaTable::LoadResourceDLL
PUBLIC	??1CMultiLanguageResourceSetter@@QAE@XZ		; CMultiLanguageResourceSetter::~CMultiLanguageResourceSetter
PUBLIC	??1CDlgInputDayWeek@@UAE@XZ			; CDlgInputDayWeek::~CDlgInputDayWeek
PUBLIC	??1CDlgInputMonth@@UAE@XZ			; CDlgInputMonth::~CDlgInputMonth
PUBLIC	??1CDlgInputMin@@UAE@XZ				; CDlgInputMin::~CDlgInputMin
PUBLIC	??1CDlgInputTick@@UAE@XZ			; CDlgInputTick::~CDlgInputTick
PUBLIC	??$SerializeElements@PAVCChartRecordSet@@@@YGXAAVCArchive@@PAPAVCChartRecordSet@@H@Z ; SerializeElements<CChartRecordSet *>
PUBLIC	??$SerializeElements@PAVCChartDataGridHeaderInfo@@@@YGXAAVCArchive@@PAPAVCChartDataGridHeaderInfo@@H@Z ; SerializeElements<CChartDataGridHeaderInfo *>
PUBLIC	??_7CFileException@@6B@				; CFileException::`vftable'
PUBLIC	??_C@_00CNPNBAHC@@				; `string'
PUBLIC	??_R0?AVCObject@@@8				; CObject `RTTI Type Descriptor'
PUBLIC	??_R3CObject@@8					; CObject::`RTTI Class Hierarchy Descriptor'
PUBLIC	??_R2CObject@@8					; CObject::`RTTI Base Class Array'
PUBLIC	??_R1A@?0A@EA@CObject@@8			; CObject::`RTTI Base Class Descriptor at (0,-1,0,64)'
PUBLIC	??_R0?AVCException@@@8				; CException `RTTI Type Descriptor'
PUBLIC	??_R3CException@@8				; CException::`RTTI Class Hierarchy Descriptor'
PUBLIC	??_R2CException@@8				; CException::`RTTI Base Class Array'
PUBLIC	??_R1A@?0A@EA@CException@@8			; CException::`RTTI Base Class Descriptor at (0,-1,0,64)'
PUBLIC	??_R4CFileException@@6B@			; CFileException::`RTTI Complete Object Locator'
PUBLIC	??_R0?AVCFileException@@@8			; CFileException `RTTI Type Descriptor'
PUBLIC	??_R3CFileException@@8				; CFileException::`RTTI Class Hierarchy Descriptor'
PUBLIC	??_R2CFileException@@8				; CFileException::`RTTI Base Class Array'
PUBLIC	??_R1A@?0A@EA@CFileException@@8			; CFileException::`RTTI Base Class Descriptor at (0,-1,0,64)'
PUBLIC	??_R1A@?0A@EA@CWnd@@8				; CWnd::`RTTI Base Class Descriptor at (0,-1,0,64)'
PUBLIC	??_R0?AVCWnd@@@8				; CWnd `RTTI Type Descriptor'
PUBLIC	??_R3CWnd@@8					; CWnd::`RTTI Class Hierarchy Descriptor'
PUBLIC	??_R2CWnd@@8					; CWnd::`RTTI Base Class Array'
PUBLIC	??_R1A@?0A@EA@CCmdTarget@@8			; CCmdTarget::`RTTI Base Class Descriptor at (0,-1,0,64)'
PUBLIC	??_R0?AVCCmdTarget@@@8				; CCmdTarget `RTTI Type Descriptor'
PUBLIC	??_R3CCmdTarget@@8				; CCmdTarget::`RTTI Class Hierarchy Descriptor'
PUBLIC	??_R2CCmdTarget@@8				; CCmdTarget::`RTTI Base Class Array'
PUBLIC	??_R1A@?0A@EA@CDialog@@8			; CDialog::`RTTI Base Class Descriptor at (0,-1,0,64)'
PUBLIC	??_R0?AVCDialog@@@8				; CDialog `RTTI Type Descriptor'
PUBLIC	??_R3CDialog@@8					; CDialog::`RTTI Class Hierarchy Descriptor'
PUBLIC	??_R2CDialog@@8					; CDialog::`RTTI Base Class Array'
PUBLIC	??_7?$CArray@PAVCChartDataGridHeaderInfo@@PAV1@@@6B@ ; CArray<CChartDataGridHeaderInfo *,CChartDataGridHeaderInfo *>::`vftable'
PUBLIC	??_7?$CList@PAVCChartRecordSet@@PAV1@@@6B@	; CList<CChartRecordSet *,CChartRecordSet *>::`vftable'
PUBLIC	??_7CDlgDataSimulator@@6B@			; CDlgDataSimulator::`vftable'
PUBLIC	??_C@_0BA@ENJOCHIO@LoadResourceDLL@		; `string'
PUBLIC	??_C@_03NMJBNGBA@?5?$CJ?5@			; `string'
PUBLIC	??_C@_03NNFDLMCH@?5?$CI?5@			; `string'
PUBLIC	??_C@_01CLKCMJKC@?5@				; `string'
PUBLIC	??_C@_02NNHDHLCM@?$MA?O@			; `string'
PUBLIC	??_C@_02EHLBLIAD@?A?V@				; `string'
PUBLIC	??_C@_02LMCMFDE@?$LP?y@				; `string'
PUBLIC	??_C@_02EJEPJIDE@?$LK?P@			; `string'
PUBLIC	??_C@_02MEPHBMOK@?F?$LN@			; `string'
PUBLIC	??_C@_08JFMBEEDE@DDHHMMSS@			; `string'
PUBLIC	??_C@_02KCECDBDA@?C?J@				; `string'
PUBLIC	??_C@_07PIFFJLBE@?5?$CFd?5?$CFs?5@		; `string'
PUBLIC	??_C@_05KOHJMBID@?5?5?$HO?5?5@			; `string'
PUBLIC	??_C@_05PIKDPGJI@?5?5?$CJ?5?5@			; `string'
PUBLIC	??_C@_05EABPJBPN@?5?5?$CI?5?5@			; `string'
PUBLIC	??_C@_01FHEEJDEE@A@				; `string'
PUBLIC	??_R0PAVCMemoryException@@@8			; CMemoryException * `RTTI Type Descriptor'
PUBLIC	??_C@_0N@DEAKEBCF@?$CF04d?$CF02d?$CF02d@	; `string'
PUBLIC	??_C@_08EEGAHEEF@?$CF04d?$CF02d@		; `string'
PUBLIC	??_C@_0BB@MAGBLHLO@?$CF02d?$CF02d?$CF02d?$CF02d@ ; `string'
PUBLIC	??_C@_0CK@HLLCJIGM@?$CFsChartData_?$CF04d?$CF02d?$CF02d_?$CF02d?$CF0@ ; `string'
PUBLIC	??_C@_02NFLNFON@NO@				; `string'
PUBLIC	??_C@_0BN@JCCJDGAM@Excel?4csv?2shell?2open?2command@ ; `string'
PUBLIC	??_C@_09KIHNACBF@excel?4exe@			; `string'
PUBLIC	??_C@_01BJJEKLCA@?$CC@				; `string'
PUBLIC	??_C@_07OEMLJILH@C?3?2Temp@			; `string'
PUBLIC	??_C@_01GPOEFGEJ@?7@				; `string'
PUBLIC	??_C@_02PCIJFNDE@?$AN?6@			; `string'
PUBLIC	??_C@_02JPEBCGCN@?5?$CC@			; `string'
PUBLIC	??_C@_0BK@FAEMHIOP@DSM?5Files?5?$CI?$CK?4dsm?$CJ?$HM?$CK?4dsm?$HM?$HM@ ; `string'
PUBLIC	??_C@_08CNNAGAOE@test?4dsm@			; `string'
PUBLIC	??_C@_03OMBLIDFE@dsm@				; `string'
PUBLIC	??_C@_0O@LGGOCMPJ@HELP_MSG?$DN?$CFs?$AN?6@	; `string'
PUBLIC	??_C@_0P@OHADKMJG@DATA_TYPE?$DN?$CFd?$AN?6@	; `string'
PUBLIC	??_C@_0BD@KKDFNHFA@DATA_INTERVAL?$DN?$CFd?$AN?6@ ; `string'
PUBLIC	??_C@_0BE@FIJJNLIG@DATA_DATE_TIME?$DN?$CFs?$AN?6@ ; `string'
PUBLIC	??_C@_0BA@CNPOABKA@HEADER_CNT?$DN?$CFd?$AN?6@	; `string'
PUBLIC	??_C@_0P@PIDILPMI@HEADER_?$CFd?$DN?$CFs?$AN?6@	; `string'
PUBLIC	??_C@_0BF@KAKKDFIJ@HEADER_TITLE_?$CFd?$DN?$CFs?$AN?6@ ; `string'
PUBLIC	??_C@_0BK@HCDEIJIL@HEADER_PACKETTYPE_?$CFd?$DN?$CFs?$AN?6@ ; `string'
PUBLIC	??_C@_0P@BPKBGGJK@?$FLDATA_START?$FN?$AN?6@	; `string'
PUBLIC	??_C@_01ICJEACDI@?$DL@				; `string'
PUBLIC	??_C@_0N@CKGOABHN@?$FLDATA_START?$FN@		; `string'
PUBLIC	??_C@_08JABLAAOM@HELP_MSG@			; `string'
PUBLIC	??_C@_01NEMOKFLO@?$DN@				; `string'
PUBLIC	??_C@_09BGCBKCBH@DATA_TYPE@			; `string'
PUBLIC	??_C@_0O@DBOGNELG@DATA_INTERVAL@		; `string'
PUBLIC	??_C@_0P@IHFCANCK@DATA_DATE_TIME@		; `string'
PUBLIC	??_C@_0L@CEBKMFHP@HEADER_CNT@			; `string'
PUBLIC	??_C@_09OBFBDHKE@HEADER_?$CFd@			; `string'
PUBLIC	??_C@_0BA@FMNMKAPJ@HEADER_TITLE_?$CFd@		; `string'
PUBLIC	??_C@_0BF@JDDJJJHA@HEADER_PACKETTYPE_?$CFd@	; `string'
PUBLIC	??_C@_01GBGANLPD@0@				; `string'
PUBLIC	??_C@_0P@FLGGHACJ@99999999999999@		; `string'
PUBLIC	??_C@_08PJHPNIEK@?$CFs240000@			; `string'
PUBLIC	??_C@_0L@CKCGJOGN@?$CFs31240000@		; `string'
PUBLIC	??_C@_0L@OAPCOEDL@?$CF04d?$CF02d?$CFs@		; `string'
PUBLIC	??_C@_08BAJCMPKI@?$CF04d?$CFs00@		; `string'
PUBLIC	??_R4?$CList@PAVCChartRecordSet@@PAV1@@@6B@	; CList<CChartRecordSet *,CChartRecordSet *>::`RTTI Complete Object Locator'
PUBLIC	??_R0?AV?$CList@PAVCChartRecordSet@@PAV1@@@@8	; CList<CChartRecordSet *,CChartRecordSet *> `RTTI Type Descriptor'
PUBLIC	??_R3?$CList@PAVCChartRecordSet@@PAV1@@@8	; CList<CChartRecordSet *,CChartRecordSet *>::`RTTI Class Hierarchy Descriptor'
PUBLIC	??_R2?$CList@PAVCChartRecordSet@@PAV1@@@8	; CList<CChartRecordSet *,CChartRecordSet *>::`RTTI Base Class Array'
PUBLIC	??_R1A@?0A@EA@?$CList@PAVCChartRecordSet@@PAV1@@@8 ; CList<CChartRecordSet *,CChartRecordSet *>::`RTTI Base Class Descriptor at (0,-1,0,64)'
PUBLIC	??_R4?$CArray@PAVCChartDataGridHeaderInfo@@PAV1@@@6B@ ; CArray<CChartDataGridHeaderInfo *,CChartDataGridHeaderInfo *>::`RTTI Complete Object Locator'
PUBLIC	??_R0?AV?$CArray@PAVCChartDataGridHeaderInfo@@PAV1@@@@8 ; CArray<CChartDataGridHeaderInfo *,CChartDataGridHeaderInfo *> `RTTI Type Descriptor'
PUBLIC	??_R3?$CArray@PAVCChartDataGridHeaderInfo@@PAV1@@@8 ; CArray<CChartDataGridHeaderInfo *,CChartDataGridHeaderInfo *>::`RTTI Class Hierarchy Descriptor'
PUBLIC	??_R2?$CArray@PAVCChartDataGridHeaderInfo@@PAV1@@@8 ; CArray<CChartDataGridHeaderInfo *,CChartDataGridHeaderInfo *>::`RTTI Base Class Array'
PUBLIC	??_R1A@?0A@EA@?$CArray@PAVCChartDataGridHeaderInfo@@PAV1@@@8 ; CArray<CChartDataGridHeaderInfo *,CChartDataGridHeaderInfo *>::`RTTI Base Class Descriptor at (0,-1,0,64)'
PUBLIC	??_R4CDlgDataSimulator@@6B@			; CDlgDataSimulator::`RTTI Complete Object Locator'
PUBLIC	??_R0?AVCDlgDataSimulator@@@8			; CDlgDataSimulator `RTTI Type Descriptor'
PUBLIC	??_R3CDlgDataSimulator@@8			; CDlgDataSimulator::`RTTI Class Hierarchy Descriptor'
PUBLIC	??_R2CDlgDataSimulator@@8			; CDlgDataSimulator::`RTTI Base Class Array'
PUBLIC	??_R1A@?0A@EA@CDlgDataSimulator@@8		; CDlgDataSimulator::`RTTI Base Class Descriptor at (0,-1,0,64)'
EXTRN	??_L@YGXPAXIIP6EX0@Z1@Z:PROC			; `eh vector constructor iterator'
EXTRN	??_M@YGXPAXIIP6EX0@Z@Z:PROC			; `eh vector destructor iterator'
EXTRN	??2@YAPAXI@Z:PROC				; operator new
EXTRN	??3@YAXPAX@Z:PROC				; operator delete
EXTRN	??3@YAXPAXI@Z:PROC				; operator delete
EXTRN	?__global_delete@@YAXPAXI@Z:PROC		; __global_delete
EXTRN	??_U@YAPAXI@Z:PROC				; operator new[]
EXTRN	??_V@YAXPAX@Z:PROC				; operator delete[]
EXTRN	___std_terminate:PROC
EXTRN	__imp___invalid_parameter_noinfo:PROC
EXTRN	__imp___errno:PROC
EXTRN	__imp__CreateDirectoryA@8:PROC
EXTRN	__imp__GetSystemTime@4:PROC
EXTRN	__imp__GetProcAddress@8:PROC
EXTRN	__imp__WinExec@8:PROC
EXTRN	__imp__GetTextExtentPoint32A@16:PROC
EXTRN	__imp__SendMessageA@16:PROC
EXTRN	__imp__EnableWindow@8:PROC
EXTRN	__imp__GetSystemMetrics@4:PROC
EXTRN	__imp__GetDC@4:PROC
EXTRN	__imp__ReleaseDC@8:PROC
EXTRN	__imp__InvalidateRect@12:PROC
EXTRN	__imp__GetWindowRect@8:PROC
EXTRN	__imp__RegCloseKey@4:PROC
EXTRN	__imp__RegOpenKeyA@12:PROC
EXTRN	__imp__RegQueryValueExA@24:PROC
EXTRN	__imp__atoi:PROC
EXTRN	__imp___gmtime64_s:PROC
EXTRN	__imp___localtime64_s:PROC
EXTRN	__imp___mktime64:PROC
EXTRN	__imp___time64:PROC
EXTRN	?AfxThrowMemoryException@@YGXXZ:PROC		; AfxThrowMemoryException
EXTRN	?AfxThrowInvalidArgException@@YGXXZ:PROC	; AfxThrowInvalidArgException
EXTRN	?AfxThrowArchiveException@@YGXHPBD@Z:PROC	; AfxThrowArchiveException
EXTRN	?AfxThrowOleException@@YGXJ@Z:PROC		; AfxThrowOleException
EXTRN	?GetRuntimeClass@CObject@@UBEPAUCRuntimeClass@@XZ:PROC ; CObject::GetRuntimeClass
EXTRN	??0CException@@QAE@XZ:PROC			; CException::CException
EXTRN	?GetErrorMessage@CException@@UAEHPADIPAI@Z:PROC	; CException::GetErrorMessage
EXTRN	?ReportError@CException@@UAEHII@Z:PROC		; CException::ReportError
EXTRN	__imp_?Empty@?$CSimpleStringT@D$00@ATL@@QAEXXZ:PROC
EXTRN	__imp_?Concatenate@?$CSimpleStringT@D$00@ATL@@KAXAAV12@PBDH1H@Z:PROC
EXTRN	__imp_??0?$CStringT@DV?$StrTraitMFC_DLL@DV?$ChTraitsCRT@D@ATL@@@@@ATL@@QAE@XZ:PROC
EXTRN	__imp_??0?$CStringT@DV?$StrTraitMFC_DLL@DV?$ChTraitsCRT@D@ATL@@@@@ATL@@QAE@PAUIAtlStringMgr@1@@Z:PROC
EXTRN	__imp_??0?$CStringT@DV?$StrTraitMFC_DLL@DV?$ChTraitsCRT@D@ATL@@@@@ATL@@QAE@ABV01@@Z:PROC
EXTRN	__imp_??0?$CStringT@DV?$StrTraitMFC_DLL@DV?$ChTraitsCRT@D@ATL@@@@@ATL@@QAE@PBD@Z:PROC
EXTRN	__imp_??0?$CStringT@DV?$StrTraitMFC_DLL@DV?$ChTraitsCRT@D@ATL@@@@@ATL@@QAE@PBE@Z:PROC
EXTRN	__imp_??0?$CStringT@DV?$StrTraitMFC_DLL@DV?$ChTraitsCRT@D@ATL@@@@@ATL@@QAE@PBDH@Z:PROC
EXTRN	__imp_??1?$CStringT@DV?$StrTraitMFC_DLL@DV?$ChTraitsCRT@D@ATL@@@@@ATL@@QAE@XZ:PROC
EXTRN	__imp_??4?$CStringT@DV?$StrTraitMFC_DLL@DV?$ChTraitsCRT@D@ATL@@@@@ATL@@QAEAAV01@ABV01@@Z:PROC
EXTRN	__imp_??4?$CStringT@DV?$StrTraitMFC_DLL@DV?$ChTraitsCRT@D@ATL@@@@@ATL@@QAEAAV01@PBD@Z:PROC
EXTRN	__imp_??Y?$CStringT@DV?$StrTraitMFC_DLL@DV?$ChTraitsCRT@D@ATL@@@@@ATL@@QAEAAV01@ABV?$CSimpleStringT@D$00@1@@Z:PROC
EXTRN	__imp_??Y?$CStringT@DV?$StrTraitMFC_DLL@DV?$ChTraitsCRT@D@ATL@@@@@ATL@@QAEAAV01@PBD@Z:PROC
EXTRN	__imp_?GetManager@?$CStringT@DV?$StrTraitMFC_DLL@DV?$ChTraitsCRT@D@ATL@@@@@ATL@@QBEPAUIAtlStringMgr@2@XZ:PROC
EXTRN	__imp_?Compare@?$CStringT@DV?$StrTraitMFC_DLL@DV?$ChTraitsCRT@D@ATL@@@@@ATL@@QBEHPBD@Z:PROC
EXTRN	__imp_?Remove@?$CStringT@DV?$StrTraitMFC_DLL@DV?$ChTraitsCRT@D@ATL@@@@@ATL@@QAEHD@Z:PROC
EXTRN	__imp_?Find@?$CStringT@DV?$StrTraitMFC_DLL@DV?$ChTraitsCRT@D@ATL@@@@@ATL@@QBEHPBDH@Z:PROC
EXTRN	__imp_?MakeLower@?$CStringT@DV?$StrTraitMFC_DLL@DV?$ChTraitsCRT@D@ATL@@@@@ATL@@QAEAAV12@XZ:PROC
EXTRN	__imp_?TrimRight@?$CStringT@DV?$StrTraitMFC_DLL@DV?$ChTraitsCRT@D@ATL@@@@@ATL@@QAEAAV12@XZ:PROC
EXTRN	__imp_?TrimLeft@?$CStringT@DV?$StrTraitMFC_DLL@DV?$ChTraitsCRT@D@ATL@@@@@ATL@@QAEAAV12@XZ:PROC
EXTRN	__imp_?Mid@?$CStringT@DV?$StrTraitMFC_DLL@DV?$ChTraitsCRT@D@ATL@@@@@ATL@@QBE?AV12@HH@Z:PROC
EXTRN	__imp_?Right@?$CStringT@DV?$StrTraitMFC_DLL@DV?$ChTraitsCRT@D@ATL@@@@@ATL@@QBE?AV12@H@Z:PROC
EXTRN	__imp_?Left@?$CStringT@DV?$StrTraitMFC_DLL@DV?$ChTraitsCRT@D@ATL@@@@@ATL@@QBE?AV12@H@Z:PROC
EXTRN	__imp_?Format@?$CStringT@DV?$StrTraitMFC_DLL@DV?$ChTraitsCRT@D@ATL@@@@@ATL@@QAAXPBDZZ:PROC
EXTRN	__imp_?LoadStringA@?$CStringT@DV?$StrTraitMFC_DLL@DV?$ChTraitsCRT@D@ATL@@@@@ATL@@QAEHI@Z:PROC
EXTRN	?AfxTryCleanup@@YGXXZ:PROC			; AfxTryCleanup
EXTRN	??0AFX_EXCEPTION_LINK@@QAE@XZ:PROC		; AFX_EXCEPTION_LINK::AFX_EXCEPTION_LINK
EXTRN	?GetRuntimeClass@CFileException@@UBEPAUCRuntimeClass@@XZ:PROC ; CFileException::GetRuntimeClass
EXTRN	?GetErrorMessage@CFileException@@UBEHPADIPAI@Z:PROC ; CFileException::GetErrorMessage
EXTRN	??_ECFileException@@UAEPAXI@Z:PROC		; CFileException::`vector deleting destructor'
EXTRN	??0CFile@@QAE@XZ:PROC				; CFile::CFile
EXTRN	?Open@CFile@@UAEHPBDIPAVCFileException@@@Z:PROC	; CFile::Open
EXTRN	?GetLength@CFile@@UBE_KXZ:PROC			; CFile::GetLength
EXTRN	?Read@CFile@@UAEIPAXI@Z:PROC			; CFile::Read
EXTRN	?Write@CFile@@UAEXPBXI@Z:PROC			; CFile::Write
EXTRN	?Close@CFile@@UAEXXZ:PROC			; CFile::Close
EXTRN	??1CFile@@UAE@XZ:PROC				; CFile::~CFile
EXTRN	?Read@CArchive@@QAEIPAXI@Z:PROC			; CArchive::Read
EXTRN	?Write@CArchive@@QAEXPBXI@Z:PROC		; CArchive::Write
EXTRN	?ReadCount@CArchive@@QAEKXZ:PROC		; CArchive::ReadCount
EXTRN	?WriteCount@CArchive@@QAEXK@Z:PROC		; CArchive::WriteCount
EXTRN	??0CStringArray@@QAE@XZ:PROC			; CStringArray::CStringArray
EXTRN	?SetSize@CStringArray@@QAEXHH@Z:PROC		; CStringArray::SetSize
EXTRN	?SetAtGrow@CStringArray@@QAEXHPBD@Z:PROC	; CStringArray::SetAtGrow
EXTRN	?SetAtGrow@CStringArray@@QAEXHABV?$CStringT@DV?$StrTraitMFC_DLL@DV?$ChTraitsCRT@D@ATL@@@@@ATL@@@Z:PROC ; CStringArray::SetAtGrow
EXTRN	??1CStringArray@@UAE@XZ:PROC			; CStringArray::~CStringArray
EXTRN	?AfxGetModuleState@@YGPAVAFX_MODULE_STATE@@XZ:PROC ; AfxGetModuleState
EXTRN	?AfxGetStaticModuleState@@YGPAVAFX_MODULE_STATE@@XZ:PROC ; AfxGetStaticModuleState
EXTRN	?Create@CPlex@@SGPAU1@AAPAU1@II@Z:PROC		; CPlex::Create
EXTRN	?FreeDataChain@CPlex@@QAEXXZ:PROC		; CPlex::FreeDataChain
EXTRN	?FromHandle@CGdiObject@@SGPAV1@PAX@Z:PROC	; CGdiObject::FromHandle
EXTRN	?FromHandle@CDC@@SGPAV1@PAUHDC__@@@Z:PROC	; CDC::FromHandle
EXTRN	?DDX_Text@@YGXPAVCDataExchange@@HAAV?$CStringT@DV?$StrTraitMFC_DLL@DV?$ChTraitsCRT@D@ATL@@@@@ATL@@@Z:PROC ; DDX_Text
EXTRN	?DDX_Control@@YGXPAVCDataExchange@@HAAVCWnd@@@Z:PROC ; DDX_Control
EXTRN	?IsInvokeAllowed@CCmdTarget@@UAEHJ@Z:PROC	; CCmdTarget::IsInvokeAllowed
EXTRN	?GetDispatchIID@CCmdTarget@@UAEHPAU_GUID@@@Z:PROC ; CCmdTarget::GetDispatchIID
EXTRN	?GetTypeInfoCount@CCmdTarget@@UAEIXZ:PROC	; CCmdTarget::GetTypeInfoCount
EXTRN	?GetTypeLibCache@CCmdTarget@@UAEPAVCTypeLibCache@@XZ:PROC ; CCmdTarget::GetTypeLibCache
EXTRN	?GetTypeLib@CCmdTarget@@UAEJKPAPAUITypeLib@@@Z:PROC ; CCmdTarget::GetTypeLib
EXTRN	?GetCommandMap@CCmdTarget@@MBEPBUAFX_OLECMDMAP@@XZ:PROC ; CCmdTarget::GetCommandMap
EXTRN	?GetDispatchMap@CCmdTarget@@MBEPBUAFX_DISPMAP@@XZ:PROC ; CCmdTarget::GetDispatchMap
EXTRN	?GetConnectionMap@CCmdTarget@@MBEPBUAFX_CONNECTIONMAP@@XZ:PROC ; CCmdTarget::GetConnectionMap
EXTRN	?GetEventSinkMap@CCmdTarget@@MBEPBUAFX_EVENTSINKMAP@@XZ:PROC ; CCmdTarget::GetEventSinkMap
EXTRN	?OnCreateAggregates@CCmdTarget@@UAEHXZ:PROC	; CCmdTarget::OnCreateAggregates
EXTRN	?GetInterfaceHook@CCmdTarget@@UAEPAUIUnknown@@PBX@Z:PROC ; CCmdTarget::GetInterfaceHook
EXTRN	?GetExtraConnectionPoints@CCmdTarget@@MAEHPAVCPtrArray@@@Z:PROC ; CCmdTarget::GetExtraConnectionPoints
EXTRN	?GetConnectionHook@CCmdTarget@@MAEPAUIConnectionPoint@@ABU_GUID@@@Z:PROC ; CCmdTarget::GetConnectionHook
EXTRN	?PreSubclassWindow@CWnd@@UAEXXZ:PROC		; CWnd::PreSubclassWindow
EXTRN	?Create@CWnd@@UAEHPBD0KABUtagRECT@@PAV1@IPAUCCreateContext@@@Z:PROC ; CWnd::Create
EXTRN	?CreateEx@CWnd@@UAEHKPBD0KHHHHPAUHWND__@@PAUHMENU__@@PAX@Z:PROC ; CWnd::CreateEx
EXTRN	?CreateEx@CWnd@@UAEHKPBD0KABUtagRECT@@PAV1@IPAX@Z:PROC ; CWnd::CreateEx
EXTRN	?DestroyWindow@CWnd@@UAEHXZ:PROC		; CWnd::DestroyWindow
EXTRN	?PreCreateWindow@CWnd@@UAEHAAUtagCREATESTRUCTA@@@Z:PROC ; CWnd::PreCreateWindow
EXTRN	?CalcWindowRect@CWnd@@UAEXPAUtagRECT@@I@Z:PROC	; CWnd::CalcWindowRect
EXTRN	?GetDlgCtrlID@CWnd@@QBEHXZ:PROC			; CWnd::GetDlgCtrlID
EXTRN	?GetWindowTextA@CWnd@@QBEXAAV?$CStringT@DV?$StrTraitMFC_DLL@DV?$ChTraitsCRT@D@ATL@@@@@ATL@@@Z:PROC ; CWnd::GetWindowTextA
EXTRN	?GetMenu@CWnd@@UBEPAVCMenu@@XZ:PROC		; CWnd::GetMenu
EXTRN	?SetMenu@CWnd@@UAEHPAVCMenu@@@Z:PROC		; CWnd::SetMenu
EXTRN	?OnToolHitTest@CWnd@@UBEHVCPoint@@PAUtagTOOLINFOA@@@Z:PROC ; CWnd::OnToolHitTest
EXTRN	?GetScrollBarCtrl@CWnd@@UBEPAVCScrollBar@@H@Z:PROC ; CWnd::GetScrollBarCtrl
EXTRN	?MessageBoxA@CWnd@@QAEHPBD0I@Z:PROC		; CWnd::MessageBoxA
EXTRN	?UpdateData@CWnd@@QAEHH@Z:PROC			; CWnd::UpdateData
EXTRN	?WinHelpA@CWnd@@UAEXKI@Z:PROC			; CWnd::WinHelpA
EXTRN	?HtmlHelpA@CWnd@@UAEXKI@Z:PROC			; CWnd::HtmlHelpA
EXTRN	?WinHelpInternal@CWnd@@UAEXKI@Z:PROC		; CWnd::WinHelpInternal
EXTRN	?ContinueModal@CWnd@@UAEHXZ:PROC		; CWnd::ContinueModal
EXTRN	?EndModalLoop@CWnd@@UAEXH@Z:PROC		; CWnd::EndModalLoop
EXTRN	?OnDrawIconicThumbnailOrLivePreview@CWnd@@UAEXAAVCDC@@VCRect@@VCSize@@HAAH@Z:PROC ; CWnd::OnDrawIconicThumbnailOrLivePreview
EXTRN	?GetInterfaceMap@CWnd@@MBEPBUAFX_INTERFACEMAP@@XZ:PROC ; CWnd::GetInterfaceMap
EXTRN	?EnsureStdObj@CWnd@@UAEJXZ:PROC			; CWnd::EnsureStdObj
EXTRN	?get_accParent@CWnd@@UAEJPAPAUIDispatch@@@Z:PROC ; CWnd::get_accParent
EXTRN	?get_accChildCount@CWnd@@UAEJPAJ@Z:PROC		; CWnd::get_accChildCount
EXTRN	?get_accChild@CWnd@@UAEJUtagVARIANT@@PAPAUIDispatch@@@Z:PROC ; CWnd::get_accChild
EXTRN	?get_accName@CWnd@@UAEJUtagVARIANT@@PAPA_W@Z:PROC ; CWnd::get_accName
EXTRN	?get_accValue@CWnd@@UAEJUtagVARIANT@@PAPA_W@Z:PROC ; CWnd::get_accValue
EXTRN	?get_accDescription@CWnd@@UAEJUtagVARIANT@@PAPA_W@Z:PROC ; CWnd::get_accDescription
EXTRN	?get_accRole@CWnd@@UAEJUtagVARIANT@@PAU2@@Z:PROC ; CWnd::get_accRole
EXTRN	?get_accState@CWnd@@UAEJUtagVARIANT@@PAU2@@Z:PROC ; CWnd::get_accState
EXTRN	?get_accHelp@CWnd@@UAEJUtagVARIANT@@PAPA_W@Z:PROC ; CWnd::get_accHelp
EXTRN	?get_accHelpTopic@CWnd@@UAEJPAPA_WUtagVARIANT@@PAJ@Z:PROC ; CWnd::get_accHelpTopic
EXTRN	?get_accKeyboardShortcut@CWnd@@UAEJUtagVARIANT@@PAPA_W@Z:PROC ; CWnd::get_accKeyboardShortcut
EXTRN	?get_accFocus@CWnd@@UAEJPAUtagVARIANT@@@Z:PROC	; CWnd::get_accFocus
EXTRN	?get_accSelection@CWnd@@UAEJPAUtagVARIANT@@@Z:PROC ; CWnd::get_accSelection
EXTRN	?get_accDefaultAction@CWnd@@UAEJUtagVARIANT@@PAPA_W@Z:PROC ; CWnd::get_accDefaultAction
EXTRN	?accSelect@CWnd@@UAEJJUtagVARIANT@@@Z:PROC	; CWnd::accSelect
EXTRN	?accLocation@CWnd@@UAEJPAJ000UtagVARIANT@@@Z:PROC ; CWnd::accLocation
EXTRN	?accNavigate@CWnd@@UAEJJUtagVARIANT@@PAU2@@Z:PROC ; CWnd::accNavigate
EXTRN	?accHitTest@CWnd@@UAEJJJPAUtagVARIANT@@@Z:PROC	; CWnd::accHitTest
EXTRN	?accDoDefaultAction@CWnd@@UAEJUtagVARIANT@@@Z:PROC ; CWnd::accDoDefaultAction
EXTRN	?put_accName@CWnd@@UAEJUtagVARIANT@@PA_W@Z:PROC	; CWnd::put_accName
EXTRN	?put_accValue@CWnd@@UAEJUtagVARIANT@@PA_W@Z:PROC ; CWnd::put_accValue
EXTRN	?SetProxy@CWnd@@UAEJPAUIAccessibleProxy@@@Z:PROC ; CWnd::SetProxy
EXTRN	?CreateAccessibleProxy@CWnd@@UAEJIJPAJ@Z:PROC	; CWnd::CreateAccessibleProxy
EXTRN	?OnCommand@CWnd@@MAEHIJ@Z:PROC			; CWnd::OnCommand
EXTRN	?OnNotify@CWnd@@MAEHIJPAJ@Z:PROC		; CWnd::OnNotify
EXTRN	?OnDestroy@CWnd@@IAEXXZ:PROC			; CWnd::OnDestroy
EXTRN	?GetSuperWndProcAddr@CWnd@@MAEPAP6GJPAUHWND__@@IIJ@ZXZ:PROC ; CWnd::GetSuperWndProcAddr
EXTRN	?OnAmbientProperty@CWnd@@UAEHPAVCOleControlSite@@JPAUtagVARIANT@@@Z:PROC ; CWnd::OnAmbientProperty
EXTRN	?WindowProc@CWnd@@MAEJIIJ@Z:PROC		; CWnd::WindowProc
EXTRN	?OnWndMsg@CWnd@@MAEHIIJPAJ@Z:PROC		; CWnd::OnWndMsg
EXTRN	?DefWindowProcA@CWnd@@MAEJIIJ@Z:PROC		; CWnd::DefWindowProcA
EXTRN	?PostNcDestroy@CWnd@@MAEXXZ:PROC		; CWnd::PostNcDestroy
EXTRN	?OnChildNotify@CWnd@@MAEHIIJPAJ@Z:PROC		; CWnd::OnChildNotify
EXTRN	?OnTouchInputs@CWnd@@MAEHIPAUtagTOUCHINPUT@@@Z:PROC ; CWnd::OnTouchInputs
EXTRN	?OnTouchInput@CWnd@@MAEHVCPoint@@HHPAUtagTOUCHINPUT@@@Z:PROC ; CWnd::OnTouchInput
EXTRN	?GetGestureStatus@CWnd@@MAEKVCPoint@@@Z:PROC	; CWnd::GetGestureStatus
EXTRN	?OnGestureZoom@CWnd@@MAEHVCPoint@@J@Z:PROC	; CWnd::OnGestureZoom
EXTRN	?OnGesturePan@CWnd@@MAEHVCPoint@@0@Z:PROC	; CWnd::OnGesturePan
EXTRN	?OnGestureRotate@CWnd@@MAEHVCPoint@@N@Z:PROC	; CWnd::OnGestureRotate
EXTRN	?OnGestureTwoFingerTap@CWnd@@MAEHVCPoint@@@Z:PROC ; CWnd::OnGestureTwoFingerTap
EXTRN	?OnGesturePressAndTap@CWnd@@MAEHVCPoint@@J@Z:PROC ; CWnd::OnGesturePressAndTap
EXTRN	?ResizeDynamicLayout@CWnd@@MAEXXZ:PROC		; CWnd::ResizeDynamicLayout
EXTRN	?IsFrameWnd@CWnd@@UBEHXZ:PROC			; CWnd::IsFrameWnd
EXTRN	?OnFinalRelease@CWnd@@UAEXXZ:PROC		; CWnd::OnFinalRelease
EXTRN	?CreateControlContainer@CWnd@@MAEHPAPAVCOleControlContainer@@@Z:PROC ; CWnd::CreateControlContainer
EXTRN	?CreateControlSite@CWnd@@MAEHPAVCOleControlContainer@@PAPAVCOleControlSite@@IABU_GUID@@@Z:PROC ; CWnd::CreateControlSite
EXTRN	?GetRuntimeClass@CDialog@@UBEPAUCRuntimeClass@@XZ:PROC ; CDialog::GetRuntimeClass
EXTRN	?Create@CDialog@@UAEHPBDPAVCWnd@@@Z:PROC	; CDialog::Create
EXTRN	?CreateIndirect@CDialog@@UAEHPBUDLGTEMPLATE@@PAVCWnd@@PAX@Z:PROC ; CDialog::CreateIndirect
EXTRN	?CreateIndirect@CDialog@@UAEHPAXPAVCWnd@@@Z:PROC ; CDialog::CreateIndirect
EXTRN	??0CDialog@@QAE@IPAVCWnd@@@Z:PROC		; CDialog::CDialog
EXTRN	?DoModal@CDialog@@UAEHXZ:PROC			; CDialog::DoModal
EXTRN	?OnInitDialog@CDialog@@UAEHXZ:PROC		; CDialog::OnInitDialog
EXTRN	?OnSetFont@CDialog@@UAEXPAVCFont@@@Z:PROC	; CDialog::OnSetFont
EXTRN	?OnOK@CDialog@@MAEXXZ:PROC			; CDialog::OnOK
EXTRN	?OnCancel@CDialog@@MAEXXZ:PROC			; CDialog::OnCancel
EXTRN	??1CDialog@@UAE@XZ:PROC				; CDialog::~CDialog
EXTRN	?PreTranslateMessage@CDialog@@UAEHPAUtagMSG@@@Z:PROC ; CDialog::PreTranslateMessage
EXTRN	?OnCmdMsg@CDialog@@UAEHIHPAXPAUAFX_CMDHANDLERINFO@@@Z:PROC ; CDialog::OnCmdMsg
EXTRN	?CheckAutoCenter@CDialog@@UAEHXZ:PROC		; CDialog::CheckAutoCenter
EXTRN	?SetOccDialogInfo@CDialog@@MAEHPAU_AFX_OCC_DIALOG_INFO@@@Z:PROC ; CDialog::SetOccDialogInfo
EXTRN	?GetOccDialogInfo@CDialog@@MAEPAU_AFX_OCC_DIALOG_INFO@@XZ:PROC ; CDialog::GetOccDialogInfo
EXTRN	?PreInitDialog@CDialog@@MAEXXZ:PROC		; CDialog::PreInitDialog
EXTRN	?GetThisMessageMap@CDialog@@KGPBUAFX_MSGMAP@@XZ:PROC ; CDialog::GetThisMessageMap
EXTRN	?AfxMessageBox@@YGHPBDII@Z:PROC			; AfxMessageBox
EXTRN	??0CFileDialog@@QAE@HPBD0K0PAVCWnd@@KH@Z:PROC	; CFileDialog::CFileDialog
EXTRN	??1CFileDialog@@UAE@XZ:PROC			; CFileDialog::~CFileDialog
EXTRN	?DoModal@CFileDialog@@UAEHXZ:PROC		; CFileDialog::DoModal
EXTRN	?GetPathName@CFileDialog@@QBE?AV?$CStringT@DV?$StrTraitMFC_DLL@DV?$ChTraitsCRT@D@ATL@@@@@ATL@@XZ:PROC ; CFileDialog::GetPathName
EXTRN	??0CGridCtrl@@QAE@HHHH@Z:PROC			; CGridCtrl::CGridCtrl
EXTRN	?SetRowCount@CGridCtrl@@QAEHH@Z:PROC		; CGridCtrl::SetRowCount
EXTRN	?SetColumnCount@CGridCtrl@@QAEHH@Z:PROC		; CGridCtrl::SetColumnCount
EXTRN	?SetFixedRowCount@CGridCtrl@@QAEHH@Z:PROC	; CGridCtrl::SetFixedRowCount
EXTRN	?SetFixedColumnCount@CGridCtrl@@QAEHH@Z:PROC	; CGridCtrl::SetFixedColumnCount
EXTRN	?SetFocusCell@CGridCtrl@@QAE?AVCCellID@@HH@Z:PROC ; CGridCtrl::SetFocusCell
EXTRN	?SetVirtualMode@CGridCtrl@@QAEXH@Z:PROC		; CGridCtrl::SetVirtualMode
EXTRN	?SetGridLines@CGridCtrl@@QAEXH@Z:PROC		; CGridCtrl::SetGridLines
EXTRN	?DeleteRow@CGridCtrl@@QAEHH@Z:PROC		; CGridCtrl::DeleteRow
EXTRN	?EnsureVisible@CGridCtrl@@QAEXHH@Z:PROC		; CGridCtrl::EnsureVisible
EXTRN	??1CGridCtrl@@UAE@XZ:PROC			; CGridCtrl::~CGridCtrl
EXTRN	?ResetSelectedRange@CGridCtrl@@IAEXXZ:PROC	; CGridCtrl::ResetSelectedRange
EXTRN	??_E?$CArray@PAVCChartDataGridHeaderInfo@@PAV1@@@UAEPAXI@Z:PROC ; CArray<CChartDataGridHeaderInfo *,CChartDataGridHeaderInfo *>::`vector deleting destructor'
EXTRN	??_E?$CList@PAVCChartRecordSet@@PAV1@@@UAEPAXI@Z:PROC ; CList<CChartRecordSet *,CChartRecordSet *>::`vector deleting destructor'
EXTRN	??_ECDlgDataSimulator@@UAEPAXI@Z:PROC		; CDlgDataSimulator::`vector deleting destructor'
EXTRN	?GetStringFormatTrans@CDataConversion@@QAE?AV?$CStringT@DV?$StrTraitMFC_DLL@DV?$ChTraitsCRT@D@ATL@@@@@ATL@@ABV23@0@Z:PROC ; CDataConversion::GetStringFormatTrans
EXTRN	?IsBaseFormat@CDataConversion@@SA_NABV?$CStringT@DV?$StrTraitMFC_DLL@DV?$ChTraitsCRT@D@ATL@@@@@ATL@@@Z:PROC ; CDataConversion::IsBaseFormat
EXTRN	?GetDataToDec@CDataConversion@@SAHV?$CStringT@DV?$StrTraitMFC_DLL@DV?$ChTraitsCRT@D@ATL@@@@@ATL@@0AAV23@@Z:PROC ; CDataConversion::GetDataToDec
EXTRN	??0CDlgInputDayWeek@@QAE@PAVCWnd@@@Z:PROC	; CDlgInputDayWeek::CDlgInputDayWeek
EXTRN	??0CDlgInputMonth@@QAE@PAUHWND__@@PAVCWnd@@@Z:PROC ; CDlgInputMonth::CDlgInputMonth
EXTRN	??0CDlgInputMin@@QAE@PAUHWND__@@PAVCWnd@@@Z:PROC ; CDlgInputMin::CDlgInputMin
EXTRN	??0CDlgInputTick@@QAE@PAVCWnd@@@Z:PROC		; CDlgInputTick::CDlgInputTick
EXTRN	@__security_check_cookie@4:PROC
EXTRN	___CxxFrameHandler3:PROC
EXTRN	__allmul:PROC
EXTRN	_memcpy:PROC
EXTRN	_memset:PROC
EXTRN	??_7type_info@@6B@:QWORD			; type_info::`vftable'
EXTRN	?g_iMetaTable@@3VIMetaTable@@A:BYTE		; g_iMetaTable
EXTRN	___security_cookie:DWORD
;	COMDAT ??_R1A@?0A@EA@CDlgDataSimulator@@8
rdata$r	SEGMENT
??_R1A@?0A@EA@CDlgDataSimulator@@8 DD FLAT:??_R0?AVCDlgDataSimulator@@@8 ; CDlgDataSimulator::`RTTI Base Class Descriptor at (0,-1,0,64)'
	DD	04H
	DD	00H
	DD	0ffffffffH
	DD	00H
	DD	040H
	DD	FLAT:??_R3CDlgDataSimulator@@8
rdata$r	ENDS
;	COMDAT ??_R2CDlgDataSimulator@@8
rdata$r	SEGMENT
??_R2CDlgDataSimulator@@8 DD FLAT:??_R1A@?0A@EA@CDlgDataSimulator@@8 ; CDlgDataSimulator::`RTTI Base Class Array'
	DD	FLAT:??_R1A@?0A@EA@CDialog@@8
	DD	FLAT:??_R1A@?0A@EA@CWnd@@8
	DD	FLAT:??_R1A@?0A@EA@CCmdTarget@@8
	DD	FLAT:??_R1A@?0A@EA@CObject@@8
rdata$r	ENDS
;	COMDAT ??_R3CDlgDataSimulator@@8
rdata$r	SEGMENT
??_R3CDlgDataSimulator@@8 DD 00H			; CDlgDataSimulator::`RTTI Class Hierarchy Descriptor'
	DD	00H
	DD	05H
	DD	FLAT:??_R2CDlgDataSimulator@@8
rdata$r	ENDS
;	COMDAT ??_R0?AVCDlgDataSimulator@@@8
data$rs	SEGMENT
??_R0?AVCDlgDataSimulator@@@8 DD FLAT:??_7type_info@@6B@ ; CDlgDataSimulator `RTTI Type Descriptor'
	DD	00H
	DB	'.?AVCDlgDataSimulator@@', 00H
data$rs	ENDS
;	COMDAT ??_R4CDlgDataSimulator@@6B@
rdata$r	SEGMENT
??_R4CDlgDataSimulator@@6B@ DD 00H			; CDlgDataSimulator::`RTTI Complete Object Locator'
	DD	00H
	DD	00H
	DD	FLAT:??_R0?AVCDlgDataSimulator@@@8
	DD	FLAT:??_R3CDlgDataSimulator@@8
rdata$r	ENDS
;	COMDAT ??_R1A@?0A@EA@?$CArray@PAVCChartDataGridHeaderInfo@@PAV1@@@8
rdata$r	SEGMENT
??_R1A@?0A@EA@?$CArray@PAVCChartDataGridHeaderInfo@@PAV1@@@8 DD FLAT:??_R0?AV?$CArray@PAVCChartDataGridHeaderInfo@@PAV1@@@@8 ; CArray<CChartDataGridHeaderInfo *,CChartDataGridHeaderInfo *>::`RTTI Base Class Descriptor at (0,-1,0,64)'
	DD	01H
	DD	00H
	DD	0ffffffffH
	DD	00H
	DD	040H
	DD	FLAT:??_R3?$CArray@PAVCChartDataGridHeaderInfo@@PAV1@@@8
rdata$r	ENDS
;	COMDAT ??_R2?$CArray@PAVCChartDataGridHeaderInfo@@PAV1@@@8
rdata$r	SEGMENT
??_R2?$CArray@PAVCChartDataGridHeaderInfo@@PAV1@@@8 DD FLAT:??_R1A@?0A@EA@?$CArray@PAVCChartDataGridHeaderInfo@@PAV1@@@8 ; CArray<CChartDataGridHeaderInfo *,CChartDataGridHeaderInfo *>::`RTTI Base Class Array'
	DD	FLAT:??_R1A@?0A@EA@CObject@@8
rdata$r	ENDS
;	COMDAT ??_R3?$CArray@PAVCChartDataGridHeaderInfo@@PAV1@@@8
rdata$r	SEGMENT
??_R3?$CArray@PAVCChartDataGridHeaderInfo@@PAV1@@@8 DD 00H ; CArray<CChartDataGridHeaderInfo *,CChartDataGridHeaderInfo *>::`RTTI Class Hierarchy Descriptor'
	DD	00H
	DD	02H
	DD	FLAT:??_R2?$CArray@PAVCChartDataGridHeaderInfo@@PAV1@@@8
rdata$r	ENDS
;	COMDAT ??_R0?AV?$CArray@PAVCChartDataGridHeaderInfo@@PAV1@@@@8
data$rs	SEGMENT
??_R0?AV?$CArray@PAVCChartDataGridHeaderInfo@@PAV1@@@@8 DD FLAT:??_7type_info@@6B@ ; CArray<CChartDataGridHeaderInfo *,CChartDataGridHeaderInfo *> `RTTI Type Descriptor'
	DD	00H
	DB	'.?AV?$CArray@PAVCChartDataGridHeaderInfo@@PAV1@@@', 00H
data$rs	ENDS
;	COMDAT ??_R4?$CArray@PAVCChartDataGridHeaderInfo@@PAV1@@@6B@
rdata$r	SEGMENT
??_R4?$CArray@PAVCChartDataGridHeaderInfo@@PAV1@@@6B@ DD 00H ; CArray<CChartDataGridHeaderInfo *,CChartDataGridHeaderInfo *>::`RTTI Complete Object Locator'
	DD	00H
	DD	00H
	DD	FLAT:??_R0?AV?$CArray@PAVCChartDataGridHeaderInfo@@PAV1@@@@8
	DD	FLAT:??_R3?$CArray@PAVCChartDataGridHeaderInfo@@PAV1@@@8
rdata$r	ENDS
;	COMDAT ??_R1A@?0A@EA@?$CList@PAVCChartRecordSet@@PAV1@@@8
rdata$r	SEGMENT
??_R1A@?0A@EA@?$CList@PAVCChartRecordSet@@PAV1@@@8 DD FLAT:??_R0?AV?$CList@PAVCChartRecordSet@@PAV1@@@@8 ; CList<CChartRecordSet *,CChartRecordSet *>::`RTTI Base Class Descriptor at (0,-1,0,64)'
	DD	01H
	DD	00H
	DD	0ffffffffH
	DD	00H
	DD	040H
	DD	FLAT:??_R3?$CList@PAVCChartRecordSet@@PAV1@@@8
rdata$r	ENDS
;	COMDAT ??_R2?$CList@PAVCChartRecordSet@@PAV1@@@8
rdata$r	SEGMENT
??_R2?$CList@PAVCChartRecordSet@@PAV1@@@8 DD FLAT:??_R1A@?0A@EA@?$CList@PAVCChartRecordSet@@PAV1@@@8 ; CList<CChartRecordSet *,CChartRecordSet *>::`RTTI Base Class Array'
	DD	FLAT:??_R1A@?0A@EA@CObject@@8
rdata$r	ENDS
;	COMDAT ??_R3?$CList@PAVCChartRecordSet@@PAV1@@@8
rdata$r	SEGMENT
??_R3?$CList@PAVCChartRecordSet@@PAV1@@@8 DD 00H	; CList<CChartRecordSet *,CChartRecordSet *>::`RTTI Class Hierarchy Descriptor'
	DD	00H
	DD	02H
	DD	FLAT:??_R2?$CList@PAVCChartRecordSet@@PAV1@@@8
rdata$r	ENDS
;	COMDAT ??_R0?AV?$CList@PAVCChartRecordSet@@PAV1@@@@8
data$rs	SEGMENT
??_R0?AV?$CList@PAVCChartRecordSet@@PAV1@@@@8 DD FLAT:??_7type_info@@6B@ ; CList<CChartRecordSet *,CChartRecordSet *> `RTTI Type Descriptor'
	DD	00H
	DB	'.?AV?$CList@PAVCChartRecordSet@@PAV1@@@', 00H
data$rs	ENDS
;	COMDAT ??_R4?$CList@PAVCChartRecordSet@@PAV1@@@6B@
rdata$r	SEGMENT
??_R4?$CList@PAVCChartRecordSet@@PAV1@@@6B@ DD 00H	; CList<CChartRecordSet *,CChartRecordSet *>::`RTTI Complete Object Locator'
	DD	00H
	DD	00H
	DD	FLAT:??_R0?AV?$CList@PAVCChartRecordSet@@PAV1@@@@8
	DD	FLAT:??_R3?$CList@PAVCChartRecordSet@@PAV1@@@8
rdata$r	ENDS
;	COMDAT ??_C@_08BAJCMPKI@?$CF04d?$CFs00@
CONST	SEGMENT
??_C@_08BAJCMPKI@?$CF04d?$CFs00@ DB '%04d%s00', 00H	; `string'
CONST	ENDS
;	COMDAT ??_C@_0L@OAPCOEDL@?$CF04d?$CF02d?$CFs@
CONST	SEGMENT
??_C@_0L@OAPCOEDL@?$CF04d?$CF02d?$CFs@ DB '%04d%02d%s', 00H ; `string'
CONST	ENDS
;	COMDAT ??_C@_0L@CKCGJOGN@?$CFs31240000@
CONST	SEGMENT
??_C@_0L@CKCGJOGN@?$CFs31240000@ DB '%s31240000', 00H	; `string'
CONST	ENDS
;	COMDAT ??_C@_08PJHPNIEK@?$CFs240000@
CONST	SEGMENT
??_C@_08PJHPNIEK@?$CFs240000@ DB '%s240000', 00H	; `string'
CONST	ENDS
;	COMDAT ??_C@_0P@FLGGHACJ@99999999999999@
CONST	SEGMENT
??_C@_0P@FLGGHACJ@99999999999999@ DB '99999999999999', 00H ; `string'
CONST	ENDS
;	COMDAT ??_C@_01GBGANLPD@0@
CONST	SEGMENT
??_C@_01GBGANLPD@0@ DB '0', 00H				; `string'
CONST	ENDS
;	COMDAT ??_C@_0BF@JDDJJJHA@HEADER_PACKETTYPE_?$CFd@
CONST	SEGMENT
??_C@_0BF@JDDJJJHA@HEADER_PACKETTYPE_?$CFd@ DB 'HEADER_PACKETTYPE_%d', 00H ; `string'
CONST	ENDS
;	COMDAT ??_C@_0BA@FMNMKAPJ@HEADER_TITLE_?$CFd@
CONST	SEGMENT
??_C@_0BA@FMNMKAPJ@HEADER_TITLE_?$CFd@ DB 'HEADER_TITLE_%d', 00H ; `string'
CONST	ENDS
;	COMDAT ??_C@_09OBFBDHKE@HEADER_?$CFd@
CONST	SEGMENT
??_C@_09OBFBDHKE@HEADER_?$CFd@ DB 'HEADER_%d', 00H	; `string'
CONST	ENDS
;	COMDAT ??_C@_0L@CEBKMFHP@HEADER_CNT@
CONST	SEGMENT
??_C@_0L@CEBKMFHP@HEADER_CNT@ DB 'HEADER_CNT', 00H	; `string'
CONST	ENDS
;	COMDAT ??_C@_0P@IHFCANCK@DATA_DATE_TIME@
CONST	SEGMENT
??_C@_0P@IHFCANCK@DATA_DATE_TIME@ DB 'DATA_DATE_TIME', 00H ; `string'
CONST	ENDS
;	COMDAT ??_C@_0O@DBOGNELG@DATA_INTERVAL@
CONST	SEGMENT
??_C@_0O@DBOGNELG@DATA_INTERVAL@ DB 'DATA_INTERVAL', 00H ; `string'
CONST	ENDS
;	COMDAT ??_C@_09BGCBKCBH@DATA_TYPE@
CONST	SEGMENT
??_C@_09BGCBKCBH@DATA_TYPE@ DB 'DATA_TYPE', 00H		; `string'
CONST	ENDS
;	COMDAT ??_C@_01NEMOKFLO@?$DN@
CONST	SEGMENT
??_C@_01NEMOKFLO@?$DN@ DB '=', 00H			; `string'
CONST	ENDS
;	COMDAT ??_C@_08JABLAAOM@HELP_MSG@
CONST	SEGMENT
??_C@_08JABLAAOM@HELP_MSG@ DB 'HELP_MSG', 00H		; `string'
CONST	ENDS
;	COMDAT ??_C@_0N@CKGOABHN@?$FLDATA_START?$FN@
CONST	SEGMENT
??_C@_0N@CKGOABHN@?$FLDATA_START?$FN@ DB '[DATA_START]', 00H ; `string'
CONST	ENDS
;	COMDAT ??_C@_01ICJEACDI@?$DL@
CONST	SEGMENT
??_C@_01ICJEACDI@?$DL@ DB ';', 00H			; `string'
CONST	ENDS
;	COMDAT ??_C@_0P@BPKBGGJK@?$FLDATA_START?$FN?$AN?6@
CONST	SEGMENT
??_C@_0P@BPKBGGJK@?$FLDATA_START?$FN?$AN?6@ DB '[DATA_START]', 0dH, 0aH, 00H ; `string'
CONST	ENDS
;	COMDAT ??_C@_0BK@HCDEIJIL@HEADER_PACKETTYPE_?$CFd?$DN?$CFs?$AN?6@
CONST	SEGMENT
??_C@_0BK@HCDEIJIL@HEADER_PACKETTYPE_?$CFd?$DN?$CFs?$AN?6@ DB 'HEADER_PAC'
	DB	'KETTYPE_%d=%s', 0dH, 0aH, 00H		; `string'
CONST	ENDS
;	COMDAT ??_C@_0BF@KAKKDFIJ@HEADER_TITLE_?$CFd?$DN?$CFs?$AN?6@
CONST	SEGMENT
??_C@_0BF@KAKKDFIJ@HEADER_TITLE_?$CFd?$DN?$CFs?$AN?6@ DB 'HEADER_TITLE_%d'
	DB	'=%s', 0dH, 0aH, 00H				; `string'
CONST	ENDS
;	COMDAT ??_C@_0P@PIDILPMI@HEADER_?$CFd?$DN?$CFs?$AN?6@
CONST	SEGMENT
??_C@_0P@PIDILPMI@HEADER_?$CFd?$DN?$CFs?$AN?6@ DB 'HEADER_%d=%s', 0dH, 0aH
	DB	00H						; `string'
CONST	ENDS
;	COMDAT ??_C@_0BA@CNPOABKA@HEADER_CNT?$DN?$CFd?$AN?6@
CONST	SEGMENT
??_C@_0BA@CNPOABKA@HEADER_CNT?$DN?$CFd?$AN?6@ DB 'HEADER_CNT=%d', 0dH, 0aH
	DB	00H						; `string'
CONST	ENDS
;	COMDAT ??_C@_0BE@FIJJNLIG@DATA_DATE_TIME?$DN?$CFs?$AN?6@
CONST	SEGMENT
??_C@_0BE@FIJJNLIG@DATA_DATE_TIME?$DN?$CFs?$AN?6@ DB 'DATA_DATE_TIME=%s', 0dH
	DB	0aH, 00H					; `string'
CONST	ENDS
;	COMDAT ??_C@_0BD@KKDFNHFA@DATA_INTERVAL?$DN?$CFd?$AN?6@
CONST	SEGMENT
??_C@_0BD@KKDFNHFA@DATA_INTERVAL?$DN?$CFd?$AN?6@ DB 'DATA_INTERVAL=%d', 0dH
	DB	0aH, 00H					; `string'
CONST	ENDS
;	COMDAT ??_C@_0P@OHADKMJG@DATA_TYPE?$DN?$CFd?$AN?6@
CONST	SEGMENT
??_C@_0P@OHADKMJG@DATA_TYPE?$DN?$CFd?$AN?6@ DB 'DATA_TYPE=%d', 0dH, 0aH, 00H ; `string'
CONST	ENDS
;	COMDAT ??_C@_0O@LGGOCMPJ@HELP_MSG?$DN?$CFs?$AN?6@
CONST	SEGMENT
??_C@_0O@LGGOCMPJ@HELP_MSG?$DN?$CFs?$AN?6@ DB 'HELP_MSG=%s', 0dH, 0aH, 00H ; `string'
CONST	ENDS
;	COMDAT ??_C@_03OMBLIDFE@dsm@
CONST	SEGMENT
??_C@_03OMBLIDFE@dsm@ DB 'dsm', 00H			; `string'
CONST	ENDS
;	COMDAT ??_C@_08CNNAGAOE@test?4dsm@
CONST	SEGMENT
??_C@_08CNNAGAOE@test?4dsm@ DB 'test.dsm', 00H		; `string'
CONST	ENDS
;	COMDAT ??_C@_0BK@FAEMHIOP@DSM?5Files?5?$CI?$CK?4dsm?$CJ?$HM?$CK?4dsm?$HM?$HM@
CONST	SEGMENT
??_C@_0BK@FAEMHIOP@DSM?5Files?5?$CI?$CK?4dsm?$CJ?$HM?$CK?4dsm?$HM?$HM@ DB 'D'
	DB	'SM Files (*.dsm)|*.dsm||', 00H		; `string'
CONST	ENDS
;	COMDAT ??_C@_02JPEBCGCN@?5?$CC@
CONST	SEGMENT
??_C@_02JPEBCGCN@?5?$CC@ DB ' "', 00H			; `string'
CONST	ENDS
;	COMDAT ??_C@_02PCIJFNDE@?$AN?6@
CONST	SEGMENT
??_C@_02PCIJFNDE@?$AN?6@ DB 0dH, 0aH, 00H		; `string'
CONST	ENDS
;	COMDAT ??_C@_01GPOEFGEJ@?7@
CONST	SEGMENT
??_C@_01GPOEFGEJ@?7@ DB 09H, 00H			; `string'
CONST	ENDS
;	COMDAT ??_C@_07OEMLJILH@C?3?2Temp@
CONST	SEGMENT
??_C@_07OEMLJILH@C?3?2Temp@ DB 'C:\Temp', 00H		; `string'
CONST	ENDS
;	COMDAT ??_C@_01BJJEKLCA@?$CC@
CONST	SEGMENT
??_C@_01BJJEKLCA@?$CC@ DB '"', 00H			; `string'
CONST	ENDS
;	COMDAT ??_C@_09KIHNACBF@excel?4exe@
CONST	SEGMENT
??_C@_09KIHNACBF@excel?4exe@ DB 'excel.exe', 00H	; `string'
CONST	ENDS
;	COMDAT ??_C@_0BN@JCCJDGAM@Excel?4csv?2shell?2open?2command@
CONST	SEGMENT
??_C@_0BN@JCCJDGAM@Excel?4csv?2shell?2open?2command@ DB 'Excel.csv\shell\'
	DB	'open\command', 00H				; `string'
CONST	ENDS
;	COMDAT ??_C@_02NFLNFON@NO@
CONST	SEGMENT
??_C@_02NFLNFON@NO@ DB 'NO', 00H			; `string'
CONST	ENDS
;	COMDAT ??_C@_0CK@HLLCJIGM@?$CFsChartData_?$CF04d?$CF02d?$CF02d_?$CF02d?$CF0@
CONST	SEGMENT
??_C@_0CK@HLLCJIGM@?$CFsChartData_?$CF04d?$CF02d?$CF02d_?$CF02d?$CF0@ DB '%'
	DB	'sChartData_%04d%02d%02d_%02d%02d%02d.nc2', 00H ; `string'
CONST	ENDS
;	COMDAT ??_C@_0BB@MAGBLHLO@?$CF02d?$CF02d?$CF02d?$CF02d@
CONST	SEGMENT
??_C@_0BB@MAGBLHLO@?$CF02d?$CF02d?$CF02d?$CF02d@ DB '%02d%02d%02d%02d', 00H ; `string'
CONST	ENDS
;	COMDAT ??_C@_08EEGAHEEF@?$CF04d?$CF02d@
CONST	SEGMENT
??_C@_08EEGAHEEF@?$CF04d?$CF02d@ DB '%04d%02d', 00H	; `string'
CONST	ENDS
;	COMDAT ??_C@_0N@DEAKEBCF@?$CF04d?$CF02d?$CF02d@
CONST	SEGMENT
??_C@_0N@DEAKEBCF@?$CF04d?$CF02d?$CF02d@ DB '%04d%02d%02d', 00H ; `string'
CONST	ENDS
;	COMDAT ??_R0PAVCMemoryException@@@8
data$r	SEGMENT
??_R0PAVCMemoryException@@@8 DD FLAT:??_7type_info@@6B@	; CMemoryException * `RTTI Type Descriptor'
	DD	00H
	DB	'.PAVCMemoryException@@', 00H
data$r	ENDS
;	COMDAT ??_C@_01FHEEJDEE@A@
CONST	SEGMENT
??_C@_01FHEEJDEE@A@ DB 'A', 00H				; `string'
CONST	ENDS
;	COMDAT ??_C@_05EABPJBPN@?5?5?$CI?5?5@
CONST	SEGMENT
??_C@_05EABPJBPN@?5?5?$CI?5?5@ DB '  (  ', 00H		; `string'
CONST	ENDS
;	COMDAT ??_C@_05PIKDPGJI@?5?5?$CJ?5?5@
CONST	SEGMENT
??_C@_05PIKDPGJI@?5?5?$CJ?5?5@ DB '  )  ', 00H		; `string'
CONST	ENDS
;	COMDAT ??_C@_05KOHJMBID@?5?5?$HO?5?5@
CONST	SEGMENT
??_C@_05KOHJMBID@?5?5?$HO?5?5@ DB '  ~  ', 00H		; `string'
CONST	ENDS
;	COMDAT ??_C@_07PIFFJLBE@?5?$CFd?5?$CFs?5@
CONST	SEGMENT
??_C@_07PIFFJLBE@?5?$CFd?5?$CFs?5@ DB ' %d %s ', 00H	; `string'
CONST	ENDS
;	COMDAT ??_C@_02KCECDBDA@?C?J@
CONST	SEGMENT
??_C@_02KCECDBDA@?C?J@ DB 0c3H, 0caH, 00H		; `string'
CONST	ENDS
;	COMDAT ??_C@_08JFMBEEDE@DDHHMMSS@
CONST	SEGMENT
??_C@_08JFMBEEDE@DDHHMMSS@ DB 'DDHHMMSS', 00H		; `string'
CONST	ENDS
;	COMDAT ??_C@_02MEPHBMOK@?F?$LN@
CONST	SEGMENT
??_C@_02MEPHBMOK@?F?$LN@ DB 0c6H, 0bdH, 00H		; `string'
CONST	ENDS
;	COMDAT ??_C@_02EJEPJIDE@?$LK?P@
CONST	SEGMENT
??_C@_02EJEPJIDE@?$LK?P@ DB 0baH, 0d0H, 00H		; `string'
CONST	ENDS
;	COMDAT ??_C@_02LMCMFDE@?$LP?y@
CONST	SEGMENT
??_C@_02LMCMFDE@?$LP?y@ DB 0bfH, 0f9H, 00H		; `string'
CONST	ENDS
;	COMDAT ??_C@_02EHLBLIAD@?A?V@
CONST	SEGMENT
??_C@_02EHLBLIAD@?A?V@ DB 0c1H, 0d6H, 00H		; `string'
CONST	ENDS
;	COMDAT ??_C@_02NNHDHLCM@?$MA?O@
CONST	SEGMENT
??_C@_02NNHDHLCM@?$MA?O@ DB 0c0H, 0cfH, 00H		; `string'
CONST	ENDS
;	COMDAT ??_C@_01CLKCMJKC@?5@
CONST	SEGMENT
??_C@_01CLKCMJKC@?5@ DB ' ', 00H			; `string'
CONST	ENDS
;	COMDAT ??_C@_03NNFDLMCH@?5?$CI?5@
CONST	SEGMENT
??_C@_03NNFDLMCH@?5?$CI?5@ DB ' ( ', 00H		; `string'
CONST	ENDS
;	COMDAT ??_C@_03NMJBNGBA@?5?$CJ?5@
CONST	SEGMENT
??_C@_03NMJBNGBA@?5?$CJ?5@ DB ' ) ', 00H		; `string'
CONST	ENDS
;	COMDAT ?messageMap@?1??GetThisMessageMap@CDlgDataSimulator@@KGPBUAFX_MSGMAP@@XZ@4U3@B
CONST	SEGMENT
?messageMap@?1??GetThisMessageMap@CDlgDataSimulator@@KGPBUAFX_MSGMAP@@XZ@4U3@B DD FLAT:?GetThisMessageMap@CDialog@@KGPBUAFX_MSGMAP@@XZ ; `CDlgDataSimulator::GetThisMessageMap'::`2'::messageMap
	DD	FLAT:?_messageEntries@?1??GetThisMessageMap@CDlgDataSimulator@@KGPBUAFX_MSGMAP@@XZ@4QBUAFX_MSGMAP_ENTRY@@B
CONST	ENDS
;	COMDAT ?_messageEntries@?1??GetThisMessageMap@CDlgDataSimulator@@KGPBUAFX_MSGMAP@@XZ@4QBUAFX_MSGMAP_ENTRY@@B
CONST	SEGMENT
?_messageEntries@?1??GetThisMessageMap@CDlgDataSimulator@@KGPBUAFX_MSGMAP@@XZ@4QBUAFX_MSGMAP_ENTRY@@B DD 0111H ; `CDlgDataSimulator::GetThisMessageMap'::`2'::_messageEntries
	DD	00H
	DD	061a8H
	DD	061a8H
	DD	03aH
	DD	FLAT:?OnBtnAdd@CDlgDataSimulator@@IAEXXZ
	DD	0111H
	DD	00H
	DD	061a9H
	DD	061a9H
	DD	03aH
	DD	FLAT:?OnBtnDel@CDlgDataSimulator@@IAEXXZ
	DD	0111H
	DD	00H
	DD	061aeH
	DD	061aeH
	DD	03aH
	DD	FLAT:?OnBtnExcelExport@CDlgDataSimulator@@IAEXXZ
	DD	0111H
	DD	00H
	DD	061acH
	DD	061acH
	DD	03aH
	DD	FLAT:?OnBtnExport@CDlgDataSimulator@@IAEXXZ
	DD	0111H
	DD	00H
	DD	061adH
	DD	061adH
	DD	03aH
	DD	FLAT:?OnBtnImport@CDlgDataSimulator@@IAEXXZ
	DD	0111H
	DD	00H
	DD	061abH
	DD	061abH
	DD	03aH
	DD	FLAT:?OnBtnInit@CDlgDataSimulator@@IAEXXZ
	DD	0111H
	DD	00H
	DD	061aaH
	DD	061aaH
	DD	03aH
	DD	FLAT:?OnBtnRemoveAll@CDlgDataSimulator@@IAEXXZ
	DD	0111H
	DD	00H
	DD	061b2H
	DD	061b2H
	DD	03aH
	DD	FLAT:?OnBtnOk@CDlgDataSimulator@@IAEXXZ
	DD	02H
	DD	00H
	DD	00H
	DD	00H
	DD	013H
	DD	FLAT:?OnDestroy@CDlgDataSimulator@@IAEXXZ
	DD	00H
	DD	00H
	DD	00H
	DD	00H
	DD	00H
	DD	00H
CONST	ENDS
;	COMDAT ??_C@_0BA@ENJOCHIO@LoadResourceDLL@
CONST	SEGMENT
??_C@_0BA@ENJOCHIO@LoadResourceDLL@ DB 'LoadResourceDLL', 00H ; `string'
CONST	ENDS
;	COMDAT ??_7CDlgDataSimulator@@6B@
CONST	SEGMENT
??_7CDlgDataSimulator@@6B@ DD FLAT:??_R4CDlgDataSimulator@@6B@ ; CDlgDataSimulator::`vftable'
	DD	FLAT:?GetRuntimeClass@CDialog@@UBEPAUCRuntimeClass@@XZ
	DD	FLAT:??_ECDlgDataSimulator@@UAEPAXI@Z
	DD	FLAT:?Serialize@CObject@@UAEXAAVCArchive@@@Z
	DD	FLAT:?AssertValid@CObject@@UBEXXZ
	DD	FLAT:?Dump@CObject@@UBEXAAVCDumpContext@@@Z
	DD	FLAT:?OnCmdMsg@CDialog@@UAEHIHPAXPAUAFX_CMDHANDLERINFO@@@Z
	DD	FLAT:?OnFinalRelease@CWnd@@UAEXXZ
	DD	FLAT:?IsInvokeAllowed@CCmdTarget@@UAEHJ@Z
	DD	FLAT:?GetDispatchIID@CCmdTarget@@UAEHPAU_GUID@@@Z
	DD	FLAT:?GetTypeInfoCount@CCmdTarget@@UAEIXZ
	DD	FLAT:?GetTypeLibCache@CCmdTarget@@UAEPAVCTypeLibCache@@XZ
	DD	FLAT:?GetTypeLib@CCmdTarget@@UAEJKPAPAUITypeLib@@@Z
	DD	FLAT:?GetMessageMap@CDlgDataSimulator@@MBEPBUAFX_MSGMAP@@XZ
	DD	FLAT:?GetCommandMap@CCmdTarget@@MBEPBUAFX_OLECMDMAP@@XZ
	DD	FLAT:?GetDispatchMap@CCmdTarget@@MBEPBUAFX_DISPMAP@@XZ
	DD	FLAT:?GetConnectionMap@CCmdTarget@@MBEPBUAFX_CONNECTIONMAP@@XZ
	DD	FLAT:?GetInterfaceMap@CWnd@@MBEPBUAFX_INTERFACEMAP@@XZ
	DD	FLAT:?GetEventSinkMap@CCmdTarget@@MBEPBUAFX_EVENTSINKMAP@@XZ
	DD	FLAT:?OnCreateAggregates@CCmdTarget@@UAEHXZ
	DD	FLAT:?GetInterfaceHook@CCmdTarget@@UAEPAUIUnknown@@PBX@Z
	DD	FLAT:?GetExtraConnectionPoints@CCmdTarget@@MAEHPAVCPtrArray@@@Z
	DD	FLAT:?GetConnectionHook@CCmdTarget@@MAEPAUIConnectionPoint@@ABU_GUID@@@Z
	DD	FLAT:?PreSubclassWindow@CWnd@@UAEXXZ
	DD	FLAT:?Create@CWnd@@UAEHPBD0KABUtagRECT@@PAV1@IPAUCCreateContext@@@Z
	DD	FLAT:?CreateEx@CWnd@@UAEHKPBD0KABUtagRECT@@PAV1@IPAX@Z
	DD	FLAT:?CreateEx@CWnd@@UAEHKPBD0KHHHHPAUHWND__@@PAUHMENU__@@PAX@Z
	DD	FLAT:?DestroyWindow@CWnd@@UAEHXZ
	DD	FLAT:?PreCreateWindow@CWnd@@UAEHAAUtagCREATESTRUCTA@@@Z
	DD	FLAT:?CalcWindowRect@CWnd@@UAEXPAUtagRECT@@I@Z
	DD	FLAT:?GetMenu@CWnd@@UBEPAVCMenu@@XZ
	DD	FLAT:?SetMenu@CWnd@@UAEHPAVCMenu@@@Z
	DD	FLAT:?OnToolHitTest@CWnd@@UBEHVCPoint@@PAUtagTOOLINFOA@@@Z
	DD	FLAT:?GetScrollBarCtrl@CWnd@@UBEPAVCScrollBar@@H@Z
	DD	FLAT:?WinHelpA@CWnd@@UAEXKI@Z
	DD	FLAT:?HtmlHelpA@CWnd@@UAEXKI@Z
	DD	FLAT:?WinHelpInternal@CWnd@@UAEXKI@Z
	DD	FLAT:?ContinueModal@CWnd@@UAEHXZ
	DD	FLAT:?EndModalLoop@CWnd@@UAEXH@Z
	DD	FLAT:?OnDrawIconicThumbnailOrLivePreview@CWnd@@UAEXAAVCDC@@VCRect@@VCSize@@HAAH@Z
	DD	FLAT:?EnsureStdObj@CWnd@@UAEJXZ
	DD	FLAT:?get_accParent@CWnd@@UAEJPAPAUIDispatch@@@Z
	DD	FLAT:?get_accChildCount@CWnd@@UAEJPAJ@Z
	DD	FLAT:?get_accChild@CWnd@@UAEJUtagVARIANT@@PAPAUIDispatch@@@Z
	DD	FLAT:?get_accName@CWnd@@UAEJUtagVARIANT@@PAPA_W@Z
	DD	FLAT:?get_accValue@CWnd@@UAEJUtagVARIANT@@PAPA_W@Z
	DD	FLAT:?get_accDescription@CWnd@@UAEJUtagVARIANT@@PAPA_W@Z
	DD	FLAT:?get_accRole@CWnd@@UAEJUtagVARIANT@@PAU2@@Z
	DD	FLAT:?get_accState@CWnd@@UAEJUtagVARIANT@@PAU2@@Z
	DD	FLAT:?get_accHelp@CWnd@@UAEJUtagVARIANT@@PAPA_W@Z
	DD	FLAT:?get_accHelpTopic@CWnd@@UAEJPAPA_WUtagVARIANT@@PAJ@Z
	DD	FLAT:?get_accKeyboardShortcut@CWnd@@UAEJUtagVARIANT@@PAPA_W@Z
	DD	FLAT:?get_accFocus@CWnd@@UAEJPAUtagVARIANT@@@Z
	DD	FLAT:?get_accSelection@CWnd@@UAEJPAUtagVARIANT@@@Z
	DD	FLAT:?get_accDefaultAction@CWnd@@UAEJUtagVARIANT@@PAPA_W@Z
	DD	FLAT:?accSelect@CWnd@@UAEJJUtagVARIANT@@@Z
	DD	FLAT:?accLocation@CWnd@@UAEJPAJ000UtagVARIANT@@@Z
	DD	FLAT:?accNavigate@CWnd@@UAEJJUtagVARIANT@@PAU2@@Z
	DD	FLAT:?accHitTest@CWnd@@UAEJJJPAUtagVARIANT@@@Z
	DD	FLAT:?accDoDefaultAction@CWnd@@UAEJUtagVARIANT@@@Z
	DD	FLAT:?put_accName@CWnd@@UAEJUtagVARIANT@@PA_W@Z
	DD	FLAT:?put_accValue@CWnd@@UAEJUtagVARIANT@@PA_W@Z
	DD	FLAT:?SetProxy@CWnd@@UAEJPAUIAccessibleProxy@@@Z
	DD	FLAT:?CreateAccessibleProxy@CWnd@@UAEJIJPAJ@Z
	DD	FLAT:?OnCommand@CWnd@@MAEHIJ@Z
	DD	FLAT:?OnNotify@CWnd@@MAEHIJPAJ@Z
	DD	FLAT:?GetSuperWndProcAddr@CWnd@@MAEPAP6GJPAUHWND__@@IIJ@ZXZ
	DD	FLAT:?DoDataExchange@CDlgDataSimulator@@MAEXPAVCDataExchange@@@Z
	DD	FLAT:?BeginModalState@CWnd@@UAEXXZ
	DD	FLAT:?EndModalState@CWnd@@UAEXXZ
	DD	FLAT:?PreTranslateMessage@CDlgDataSimulator@@UAEHPAUtagMSG@@@Z
	DD	FLAT:?OnAmbientProperty@CWnd@@UAEHPAVCOleControlSite@@JPAUtagVARIANT@@@Z
	DD	FLAT:?WindowProc@CDlgDataSimulator@@MAEJIIJ@Z
	DD	FLAT:?OnWndMsg@CWnd@@MAEHIIJPAJ@Z
	DD	FLAT:?DefWindowProcA@CWnd@@MAEJIIJ@Z
	DD	FLAT:?PostNcDestroy@CWnd@@MAEXXZ
	DD	FLAT:?OnChildNotify@CWnd@@MAEHIIJPAJ@Z
	DD	FLAT:?OnTouchInputs@CWnd@@MAEHIPAUtagTOUCHINPUT@@@Z
	DD	FLAT:?OnTouchInput@CWnd@@MAEHVCPoint@@HHPAUtagTOUCHINPUT@@@Z
	DD	FLAT:?GetGestureStatus@CWnd@@MAEKVCPoint@@@Z
	DD	FLAT:?OnGestureZoom@CWnd@@MAEHVCPoint@@J@Z
	DD	FLAT:?OnGesturePan@CWnd@@MAEHVCPoint@@0@Z
	DD	FLAT:?OnGestureRotate@CWnd@@MAEHVCPoint@@N@Z
	DD	FLAT:?OnGestureTwoFingerTap@CWnd@@MAEHVCPoint@@@Z
	DD	FLAT:?OnGesturePressAndTap@CWnd@@MAEHVCPoint@@J@Z
	DD	FLAT:?ResizeDynamicLayout@CWnd@@MAEXXZ
	DD	FLAT:?CheckAutoCenter@CDialog@@UAEHXZ
	DD	FLAT:?IsFrameWnd@CWnd@@UBEHXZ
	DD	FLAT:?CreateControlContainer@CWnd@@MAEHPAPAVCOleControlContainer@@@Z
	DD	FLAT:?CreateControlSite@CWnd@@MAEHPAVCOleControlContainer@@PAPAVCOleControlSite@@IABU_GUID@@@Z
	DD	FLAT:?SetOccDialogInfo@CDialog@@MAEHPAU_AFX_OCC_DIALOG_INFO@@@Z
	DD	FLAT:?GetOccDialogInfo@CDialog@@MAEPAU_AFX_OCC_DIALOG_INFO@@XZ
	DD	FLAT:?Create@CDialog@@UAEHIPAVCWnd@@@Z
	DD	FLAT:?Create@CDialog@@UAEHPBDPAVCWnd@@@Z
	DD	FLAT:?CreateIndirect@CDialog@@UAEHPAXPAVCWnd@@@Z
	DD	FLAT:?CreateIndirect@CDialog@@UAEHPBUDLGTEMPLATE@@PAVCWnd@@PAX@Z
	DD	FLAT:?DoModal@CDialog@@UAEHXZ
	DD	FLAT:?OnInitDialog@CDlgDataSimulator@@MAEHXZ
	DD	FLAT:?OnSetFont@CDialog@@UAEXPAVCFont@@@Z
	DD	FLAT:?OnOK@CDlgDataSimulator@@MAEXXZ
	DD	FLAT:?OnCancel@CDialog@@MAEXXZ
	DD	FLAT:?PreInitDialog@CDialog@@MAEXXZ
CONST	ENDS
;	COMDAT ??_7?$CList@PAVCChartRecordSet@@PAV1@@@6B@
CONST	SEGMENT
??_7?$CList@PAVCChartRecordSet@@PAV1@@@6B@ DD FLAT:??_R4?$CList@PAVCChartRecordSet@@PAV1@@@6B@ ; CList<CChartRecordSet *,CChartRecordSet *>::`vftable'
	DD	FLAT:?GetRuntimeClass@CObject@@UBEPAUCRuntimeClass@@XZ
	DD	FLAT:??_E?$CList@PAVCChartRecordSet@@PAV1@@@UAEPAXI@Z
	DD	FLAT:?Serialize@?$CList@PAVCChartRecordSet@@PAV1@@@UAEXAAVCArchive@@@Z
	DD	FLAT:?AssertValid@CObject@@UBEXXZ
	DD	FLAT:?Dump@CObject@@UBEXAAVCDumpContext@@@Z
CONST	ENDS
;	COMDAT ??_7?$CArray@PAVCChartDataGridHeaderInfo@@PAV1@@@6B@
CONST	SEGMENT
??_7?$CArray@PAVCChartDataGridHeaderInfo@@PAV1@@@6B@ DD FLAT:??_R4?$CArray@PAVCChartDataGridHeaderInfo@@PAV1@@@6B@ ; CArray<CChartDataGridHeaderInfo *,CChartDataGridHeaderInfo *>::`vftable'
	DD	FLAT:?GetRuntimeClass@CObject@@UBEPAUCRuntimeClass@@XZ
	DD	FLAT:??_E?$CArray@PAVCChartDataGridHeaderInfo@@PAV1@@@UAEPAXI@Z
	DD	FLAT:?Serialize@?$CArray@PAVCChartDataGridHeaderInfo@@PAV1@@@UAEXAAVCArchive@@@Z
	DD	FLAT:?AssertValid@CObject@@UBEXXZ
	DD	FLAT:?Dump@CObject@@UBEXAAVCDumpContext@@@Z
CONST	ENDS
;	COMDAT ??_R2CDialog@@8
rdata$r	SEGMENT
??_R2CDialog@@8 DD FLAT:??_R1A@?0A@EA@CDialog@@8	; CDialog::`RTTI Base Class Array'
	DD	FLAT:??_R1A@?0A@EA@CWnd@@8
	DD	FLAT:??_R1A@?0A@EA@CCmdTarget@@8
	DD	FLAT:??_R1A@?0A@EA@CObject@@8
rdata$r	ENDS
;	COMDAT ??_R3CDialog@@8
rdata$r	SEGMENT
??_R3CDialog@@8 DD 00H					; CDialog::`RTTI Class Hierarchy Descriptor'
	DD	00H
	DD	04H
	DD	FLAT:??_R2CDialog@@8
rdata$r	ENDS
;	COMDAT ??_R0?AVCDialog@@@8
data$rs	SEGMENT
??_R0?AVCDialog@@@8 DD FLAT:??_7type_info@@6B@		; CDialog `RTTI Type Descriptor'
	DD	00H
	DB	'.?AVCDialog@@', 00H
data$rs	ENDS
;	COMDAT ??_R1A@?0A@EA@CDialog@@8
rdata$r	SEGMENT
??_R1A@?0A@EA@CDialog@@8 DD FLAT:??_R0?AVCDialog@@@8	; CDialog::`RTTI Base Class Descriptor at (0,-1,0,64)'
	DD	03H
	DD	00H
	DD	0ffffffffH
	DD	00H
	DD	040H
	DD	FLAT:??_R3CDialog@@8
rdata$r	ENDS
;	COMDAT ??_R2CCmdTarget@@8
rdata$r	SEGMENT
??_R2CCmdTarget@@8 DD FLAT:??_R1A@?0A@EA@CCmdTarget@@8	; CCmdTarget::`RTTI Base Class Array'
	DD	FLAT:??_R1A@?0A@EA@CObject@@8
rdata$r	ENDS
;	COMDAT ??_R3CCmdTarget@@8
rdata$r	SEGMENT
??_R3CCmdTarget@@8 DD 00H				; CCmdTarget::`RTTI Class Hierarchy Descriptor'
	DD	00H
	DD	02H
	DD	FLAT:??_R2CCmdTarget@@8
rdata$r	ENDS
;	COMDAT ??_R0?AVCCmdTarget@@@8
data$rs	SEGMENT
??_R0?AVCCmdTarget@@@8 DD FLAT:??_7type_info@@6B@	; CCmdTarget `RTTI Type Descriptor'
	DD	00H
	DB	'.?AVCCmdTarget@@', 00H
data$rs	ENDS
;	COMDAT ??_R1A@?0A@EA@CCmdTarget@@8
rdata$r	SEGMENT
??_R1A@?0A@EA@CCmdTarget@@8 DD FLAT:??_R0?AVCCmdTarget@@@8 ; CCmdTarget::`RTTI Base Class Descriptor at (0,-1,0,64)'
	DD	01H
	DD	00H
	DD	0ffffffffH
	DD	00H
	DD	040H
	DD	FLAT:??_R3CCmdTarget@@8
rdata$r	ENDS
;	COMDAT ??_R2CWnd@@8
rdata$r	SEGMENT
??_R2CWnd@@8 DD	FLAT:??_R1A@?0A@EA@CWnd@@8		; CWnd::`RTTI Base Class Array'
	DD	FLAT:??_R1A@?0A@EA@CCmdTarget@@8
	DD	FLAT:??_R1A@?0A@EA@CObject@@8
rdata$r	ENDS
;	COMDAT ??_R3CWnd@@8
rdata$r	SEGMENT
??_R3CWnd@@8 DD	00H					; CWnd::`RTTI Class Hierarchy Descriptor'
	DD	00H
	DD	03H
	DD	FLAT:??_R2CWnd@@8
rdata$r	ENDS
;	COMDAT ??_R0?AVCWnd@@@8
data$rs	SEGMENT
??_R0?AVCWnd@@@8 DD FLAT:??_7type_info@@6B@		; CWnd `RTTI Type Descriptor'
	DD	00H
	DB	'.?AVCWnd@@', 00H
data$rs	ENDS
;	COMDAT ??_R1A@?0A@EA@CWnd@@8
rdata$r	SEGMENT
??_R1A@?0A@EA@CWnd@@8 DD FLAT:??_R0?AVCWnd@@@8		; CWnd::`RTTI Base Class Descriptor at (0,-1,0,64)'
	DD	02H
	DD	00H
	DD	0ffffffffH
	DD	00H
	DD	040H
	DD	FLAT:??_R3CWnd@@8
rdata$r	ENDS
;	COMDAT ??_R1A@?0A@EA@CFileException@@8
rdata$r	SEGMENT
??_R1A@?0A@EA@CFileException@@8 DD FLAT:??_R0?AVCFileException@@@8 ; CFileException::`RTTI Base Class Descriptor at (0,-1,0,64)'
	DD	02H
	DD	00H
	DD	0ffffffffH
	DD	00H
	DD	040H
	DD	FLAT:??_R3CFileException@@8
rdata$r	ENDS
;	COMDAT ??_R2CFileException@@8
rdata$r	SEGMENT
??_R2CFileException@@8 DD FLAT:??_R1A@?0A@EA@CFileException@@8 ; CFileException::`RTTI Base Class Array'
	DD	FLAT:??_R1A@?0A@EA@CException@@8
	DD	FLAT:??_R1A@?0A@EA@CObject@@8
rdata$r	ENDS
;	COMDAT ??_R3CFileException@@8
rdata$r	SEGMENT
??_R3CFileException@@8 DD 00H				; CFileException::`RTTI Class Hierarchy Descriptor'
	DD	00H
	DD	03H
	DD	FLAT:??_R2CFileException@@8
rdata$r	ENDS
;	COMDAT ??_R0?AVCFileException@@@8
data$rs	SEGMENT
??_R0?AVCFileException@@@8 DD FLAT:??_7type_info@@6B@	; CFileException `RTTI Type Descriptor'
	DD	00H
	DB	'.?AVCFileException@@', 00H
data$rs	ENDS
;	COMDAT ??_R4CFileException@@6B@
rdata$r	SEGMENT
??_R4CFileException@@6B@ DD 00H				; CFileException::`RTTI Complete Object Locator'
	DD	00H
	DD	00H
	DD	FLAT:??_R0?AVCFileException@@@8
	DD	FLAT:??_R3CFileException@@8
rdata$r	ENDS
;	COMDAT ??_R1A@?0A@EA@CException@@8
rdata$r	SEGMENT
??_R1A@?0A@EA@CException@@8 DD FLAT:??_R0?AVCException@@@8 ; CException::`RTTI Base Class Descriptor at (0,-1,0,64)'
	DD	01H
	DD	00H
	DD	0ffffffffH
	DD	00H
	DD	040H
	DD	FLAT:??_R3CException@@8
rdata$r	ENDS
;	COMDAT ??_R2CException@@8
rdata$r	SEGMENT
??_R2CException@@8 DD FLAT:??_R1A@?0A@EA@CException@@8	; CException::`RTTI Base Class Array'
	DD	FLAT:??_R1A@?0A@EA@CObject@@8
rdata$r	ENDS
;	COMDAT ??_R3CException@@8
rdata$r	SEGMENT
??_R3CException@@8 DD 00H				; CException::`RTTI Class Hierarchy Descriptor'
	DD	00H
	DD	02H
	DD	FLAT:??_R2CException@@8
rdata$r	ENDS
;	COMDAT ??_R0?AVCException@@@8
data$rs	SEGMENT
??_R0?AVCException@@@8 DD FLAT:??_7type_info@@6B@	; CException `RTTI Type Descriptor'
	DD	00H
	DB	'.?AVCException@@', 00H
data$rs	ENDS
;	COMDAT ??_R1A@?0A@EA@CObject@@8
rdata$r	SEGMENT
??_R1A@?0A@EA@CObject@@8 DD FLAT:??_R0?AVCObject@@@8	; CObject::`RTTI Base Class Descriptor at (0,-1,0,64)'
	DD	00H
	DD	00H
	DD	0ffffffffH
	DD	00H
	DD	040H
	DD	FLAT:??_R3CObject@@8
rdata$r	ENDS
;	COMDAT ??_R2CObject@@8
rdata$r	SEGMENT
??_R2CObject@@8 DD FLAT:??_R1A@?0A@EA@CObject@@8	; CObject::`RTTI Base Class Array'
rdata$r	ENDS
;	COMDAT ??_R3CObject@@8
rdata$r	SEGMENT
??_R3CObject@@8 DD 00H					; CObject::`RTTI Class Hierarchy Descriptor'
	DD	00H
	DD	01H
	DD	FLAT:??_R2CObject@@8
rdata$r	ENDS
;	COMDAT ??_R0?AVCObject@@@8
data$rs	SEGMENT
??_R0?AVCObject@@@8 DD FLAT:??_7type_info@@6B@		; CObject `RTTI Type Descriptor'
	DD	00H
	DB	'.?AVCObject@@', 00H
data$rs	ENDS
;	COMDAT ??_C@_00CNPNBAHC@@
CONST	SEGMENT
??_C@_00CNPNBAHC@@ DB 00H				; `string'
CONST	ENDS
;	COMDAT ??_7CFileException@@6B@
CONST	SEGMENT
??_7CFileException@@6B@ DD FLAT:??_R4CFileException@@6B@ ; CFileException::`vftable'
	DD	FLAT:?GetRuntimeClass@CFileException@@UBEPAUCRuntimeClass@@XZ
	DD	FLAT:??_ECFileException@@UAEPAXI@Z
	DD	FLAT:?Serialize@CObject@@UAEXAAVCArchive@@@Z
	DD	FLAT:?AssertValid@CObject@@UBEXXZ
	DD	FLAT:?Dump@CObject@@UBEXAAVCDumpContext@@@Z
	DD	FLAT:?GetErrorMessage@CException@@UAEHPADIPAI@Z
	DD	FLAT:?GetErrorMessage@CFileException@@UBEHPADIPAI@Z
	DD	FLAT:?ReportError@CException@@UAEHII@Z
CONST	ENDS
;	COMDAT xdata$x
xdata$x	SEGMENT
__ehfuncinfo$??1CMultiLanguageResourceSetter@@QAE@XZ DD 019930522H
	DD	00H
	DD	00H
	DD	2 DUP(00H)
	DD	2 DUP(00H)
	DD	00H
	DD	05H
xdata$x	ENDS
;	COMDAT xdata$x
xdata$x	SEGMENT
__unwindtable$??_GCDlgDataSimulator@@UAEPAXI@Z DD 0ffffffffH
	DD	FLAT:___std_terminate
__ehfuncinfo$??_GCDlgDataSimulator@@UAEPAXI@Z DD 019930522H
	DD	01H
	DD	FLAT:__unwindtable$??_GCDlgDataSimulator@@UAEPAXI@Z
	DD	2 DUP(00H)
	DD	2 DUP(00H)
	DD	00H
	DD	05H
xdata$x	ENDS
;	COMDAT xdata$x
xdata$x	SEGMENT
__unwindtable$??1CDlgDataSimulator@@UAE@XZ DD 0ffffffffH
	DD	FLAT:___std_terminate
__ehfuncinfo$??1CDlgDataSimulator@@UAE@XZ DD 019930522H
	DD	01H
	DD	FLAT:__unwindtable$??1CDlgDataSimulator@@UAE@XZ
	DD	2 DUP(00H)
	DD	2 DUP(00H)
	DD	00H
	DD	05H
xdata$x	ENDS
;	COMDAT xdata$x
xdata$x	SEGMENT
__unwindtable$?OnDestroy@CDlgDataSimulator@@IAEXXZ DD 0ffffffffH
	DD	FLAT:___std_terminate
	DD	0ffffffffH
	DD	FLAT:___std_terminate
__ehfuncinfo$?OnDestroy@CDlgDataSimulator@@IAEXXZ DD 019930522H
	DD	02H
	DD	FLAT:__unwindtable$?OnDestroy@CDlgDataSimulator@@IAEXXZ
	DD	2 DUP(00H)
	DD	2 DUP(00H)
	DD	00H
	DD	01H
xdata$x	ENDS
;	COMDAT xdata$x
xdata$x	SEGMENT
__ehfuncinfo$?OnBtnOk@CDlgDataSimulator@@IAEXXZ DD 019930522H
	DD	09H
	DD	FLAT:__unwindtable$?OnBtnOk@CDlgDataSimulator@@IAEXXZ
	DD	2 DUP(00H)
	DD	2 DUP(00H)
	DD	00H
	DD	01H
__unwindtable$?OnBtnOk@CDlgDataSimulator@@IAEXXZ DD 0ffffffffH
	DD	FLAT:__unwindfunclet$?OnBtnOk@CDlgDataSimulator@@IAEXXZ$0
	DD	00H
	DD	FLAT:__unwindfunclet$?OnBtnOk@CDlgDataSimulator@@IAEXXZ$1
	DD	01H
	DD	FLAT:__unwindfunclet$?OnBtnOk@CDlgDataSimulator@@IAEXXZ$2
	DD	01H
	DD	00H
	DD	01H
	DD	FLAT:___std_terminate
	DD	01H
	DD	00H
	DD	0ffffffffH
	DD	FLAT:__unwindfunclet$?OnBtnOk@CDlgDataSimulator@@IAEXXZ$3
	DD	0ffffffffH
	DD	FLAT:__unwindfunclet$?OnBtnOk@CDlgDataSimulator@@IAEXXZ$4
	DD	0ffffffffH
	DD	FLAT:__unwindfunclet$?OnBtnOk@CDlgDataSimulator@@IAEXXZ$5
xdata$x	ENDS
;	COMDAT xdata$x
xdata$x	SEGMENT
__unwindtable$?OnInitDialog@CDlgDataSimulator@@MAEHXZ DD 0ffffffffH
	DD	FLAT:___std_terminate
__ehfuncinfo$?OnInitDialog@CDlgDataSimulator@@MAEHXZ DD 019930522H
	DD	01H
	DD	FLAT:__unwindtable$?OnInitDialog@CDlgDataSimulator@@MAEHXZ
	DD	2 DUP(00H)
	DD	2 DUP(00H)
	DD	00H
	DD	01H
xdata$x	ENDS
;	COMDAT xdata$x
xdata$x	SEGMENT
__unwindtable$?OnBtnRemoveAll@CDlgDataSimulator@@IAEXXZ DD 0ffffffffH
	DD	FLAT:___std_terminate
	DD	0ffffffffH
	DD	FLAT:___std_terminate
__ehfuncinfo$?OnBtnRemoveAll@CDlgDataSimulator@@IAEXXZ DD 019930522H
	DD	02H
	DD	FLAT:__unwindtable$?OnBtnRemoveAll@CDlgDataSimulator@@IAEXXZ
	DD	2 DUP(00H)
	DD	2 DUP(00H)
	DD	00H
	DD	01H
xdata$x	ENDS
;	COMDAT xdata$x
xdata$x	SEGMENT
__unwindtable$?OnBtnInit@CDlgDataSimulator@@IAEXXZ DD 0ffffffffH
	DD	FLAT:___std_terminate
	DD	0ffffffffH
	DD	FLAT:___std_terminate
__ehfuncinfo$?OnBtnInit@CDlgDataSimulator@@IAEXXZ DD 019930522H
	DD	02H
	DD	FLAT:__unwindtable$?OnBtnInit@CDlgDataSimulator@@IAEXXZ
	DD	2 DUP(00H)
	DD	2 DUP(00H)
	DD	00H
	DD	01H
xdata$x	ENDS
;	COMDAT xdata$x
xdata$x	SEGMENT
__ehfuncinfo$?OnBtnImport@CDlgDataSimulator@@IAEXXZ DD 019930522H
	DD	027H
	DD	FLAT:__unwindtable$?OnBtnImport@CDlgDataSimulator@@IAEXXZ
	DD	2 DUP(00H)
	DD	2 DUP(00H)
	DD	00H
	DD	01H
__unwindtable$?OnBtnImport@CDlgDataSimulator@@IAEXXZ DD 0ffffffffH
	DD	FLAT:__unwindfunclet$?OnBtnImport@CDlgDataSimulator@@IAEXXZ$27
	DD	00H
	DD	FLAT:__unwindfunclet$?OnBtnImport@CDlgDataSimulator@@IAEXXZ$28
	DD	0ffffffffH
	DD	FLAT:__unwindfunclet$?OnBtnImport@CDlgDataSimulator@@IAEXXZ$29
	DD	02H
	DD	FLAT:__unwindfunclet$?OnBtnImport@CDlgDataSimulator@@IAEXXZ$30
	DD	03H
	DD	FLAT:__unwindfunclet$?OnBtnImport@CDlgDataSimulator@@IAEXXZ$31
	DD	04H
	DD	FLAT:__unwindfunclet$?OnBtnImport@CDlgDataSimulator@@IAEXXZ$32
	DD	05H
	DD	FLAT:__unwindfunclet$?OnBtnImport@CDlgDataSimulator@@IAEXXZ$33
	DD	06H
	DD	FLAT:__unwindfunclet$?OnBtnImport@CDlgDataSimulator@@IAEXXZ$34
	DD	05H
	DD	FLAT:__unwindfunclet$?OnBtnImport@CDlgDataSimulator@@IAEXXZ$35
	DD	08H
	DD	FLAT:__unwindfunclet$?OnBtnImport@CDlgDataSimulator@@IAEXXZ$36
	DD	09H
	DD	FLAT:__unwindfunclet$?OnBtnImport@CDlgDataSimulator@@IAEXXZ$37
	DD	0aH
	DD	FLAT:__unwindfunclet$?OnBtnImport@CDlgDataSimulator@@IAEXXZ$38
	DD	0bH
	DD	FLAT:__unwindfunclet$?OnBtnImport@CDlgDataSimulator@@IAEXXZ$39
	DD	0cH
	DD	FLAT:__unwindfunclet$?OnBtnImport@CDlgDataSimulator@@IAEXXZ$40
	DD	0dH
	DD	FLAT:__unwindfunclet$?OnBtnImport@CDlgDataSimulator@@IAEXXZ$41
	DD	0eH
	DD	FLAT:__unwindfunclet$?OnBtnImport@CDlgDataSimulator@@IAEXXZ$42
	DD	0fH
	DD	FLAT:__unwindfunclet$?OnBtnImport@CDlgDataSimulator@@IAEXXZ$43
	DD	010H
	DD	FLAT:__unwindfunclet$?OnBtnImport@CDlgDataSimulator@@IAEXXZ$44
	DD	011H
	DD	FLAT:__unwindfunclet$?OnBtnImport@CDlgDataSimulator@@IAEXXZ$45
	DD	012H
	DD	FLAT:__unwindfunclet$?OnBtnImport@CDlgDataSimulator@@IAEXXZ$46
	DD	013H
	DD	FLAT:__unwindfunclet$?OnBtnImport@CDlgDataSimulator@@IAEXXZ$47
	DD	014H
	DD	FLAT:__unwindfunclet$?OnBtnImport@CDlgDataSimulator@@IAEXXZ$48
	DD	015H
	DD	FLAT:__unwindfunclet$?OnBtnImport@CDlgDataSimulator@@IAEXXZ$49
	DD	016H
	DD	FLAT:__unwindfunclet$?OnBtnImport@CDlgDataSimulator@@IAEXXZ$50
	DD	016H
	DD	FLAT:__unwindfunclet$?OnBtnImport@CDlgDataSimulator@@IAEXXZ$51
	DD	016H
	DD	FLAT:__unwindfunclet$?OnBtnImport@CDlgDataSimulator@@IAEXXZ$52
	DD	016H
	DD	FLAT:__unwindfunclet$?OnBtnImport@CDlgDataSimulator@@IAEXXZ$53
	DD	016H
	DD	FLAT:__unwindfunclet$?OnBtnImport@CDlgDataSimulator@@IAEXXZ$54
	DD	016H
	DD	FLAT:__unwindfunclet$?OnBtnImport@CDlgDataSimulator@@IAEXXZ$55
	DD	016H
	DD	FLAT:__unwindfunclet$?OnBtnImport@CDlgDataSimulator@@IAEXXZ$56
	DD	016H
	DD	FLAT:__unwindfunclet$?OnBtnImport@CDlgDataSimulator@@IAEXXZ$57
	DD	016H
	DD	FLAT:__unwindfunclet$?OnBtnImport@CDlgDataSimulator@@IAEXXZ$58
	DD	016H
	DD	FLAT:__unwindfunclet$?OnBtnImport@CDlgDataSimulator@@IAEXXZ$59
	DD	016H
	DD	FLAT:__unwindfunclet$?OnBtnImport@CDlgDataSimulator@@IAEXXZ$60
	DD	016H
	DD	FLAT:___std_terminate
	DD	016H
	DD	FLAT:___std_terminate
	DD	016H
	DD	FLAT:__unwindfunclet$?OnBtnImport@CDlgDataSimulator@@IAEXXZ$61
	DD	024H
	DD	FLAT:__unwindfunclet$?OnBtnImport@CDlgDataSimulator@@IAEXXZ$62
	DD	014H
	DD	FLAT:___std_terminate
xdata$x	ENDS
;	COMDAT xdata$x
xdata$x	SEGMENT
__ehfuncinfo$?OnBtnExport@CDlgDataSimulator@@IAEXXZ DD 019930522H
	DD	011H
	DD	FLAT:__unwindtable$?OnBtnExport@CDlgDataSimulator@@IAEXXZ
	DD	2 DUP(00H)
	DD	2 DUP(00H)
	DD	00H
	DD	01H
__unwindtable$?OnBtnExport@CDlgDataSimulator@@IAEXXZ DD 0ffffffffH
	DD	FLAT:__unwindfunclet$?OnBtnExport@CDlgDataSimulator@@IAEXXZ$0
	DD	00H
	DD	FLAT:__unwindfunclet$?OnBtnExport@CDlgDataSimulator@@IAEXXZ$1
	DD	01H
	DD	FLAT:__unwindfunclet$?OnBtnExport@CDlgDataSimulator@@IAEXXZ$2
	DD	0ffffffffH
	DD	00H
	DD	00H
	DD	FLAT:__unwindfunclet$?OnBtnExport@CDlgDataSimulator@@IAEXXZ$3
	DD	04H
	DD	FLAT:__unwindfunclet$?OnBtnExport@CDlgDataSimulator@@IAEXXZ$4
	DD	05H
	DD	FLAT:__unwindfunclet$?OnBtnExport@CDlgDataSimulator@@IAEXXZ$5
	DD	06H
	DD	FLAT:__unwindfunclet$?OnBtnExport@CDlgDataSimulator@@IAEXXZ$6
	DD	07H
	DD	FLAT:__unwindfunclet$?OnBtnExport@CDlgDataSimulator@@IAEXXZ$7
	DD	08H
	DD	FLAT:__unwindfunclet$?OnBtnExport@CDlgDataSimulator@@IAEXXZ$8
	DD	0ffffffffH
	DD	00H
	DD	07H
	DD	FLAT:__unwindfunclet$?OnBtnExport@CDlgDataSimulator@@IAEXXZ$9
	DD	0bH
	DD	FLAT:__unwindfunclet$?OnBtnExport@CDlgDataSimulator@@IAEXXZ$10
	DD	0cH
	DD	FLAT:__unwindfunclet$?OnBtnExport@CDlgDataSimulator@@IAEXXZ$16
	DD	0dH
	DD	FLAT:__unwindfunclet$?OnBtnExport@CDlgDataSimulator@@IAEXXZ$17
	DD	0cH
	DD	FLAT:__unwindfunclet$?OnBtnExport@CDlgDataSimulator@@IAEXXZ$18
	DD	0ffffffffH
	DD	FLAT:___std_terminate
xdata$x	ENDS
;	COMDAT xdata$x
xdata$x	SEGMENT
__ehfuncinfo$?OnBtnExcelExport@CDlgDataSimulator@@IAEXXZ DD 019930522H
	DD	020H
	DD	FLAT:__unwindtable$?OnBtnExcelExport@CDlgDataSimulator@@IAEXXZ
	DD	2 DUP(00H)
	DD	2 DUP(00H)
	DD	00H
	DD	01H
__unwindtable$?OnBtnExcelExport@CDlgDataSimulator@@IAEXXZ DD 0ffffffffH
	DD	FLAT:__unwindfunclet$?OnBtnExcelExport@CDlgDataSimulator@@IAEXXZ$0
	DD	00H
	DD	FLAT:__unwindfunclet$?OnBtnExcelExport@CDlgDataSimulator@@IAEXXZ$1
	DD	01H
	DD	FLAT:__unwindfunclet$?OnBtnExcelExport@CDlgDataSimulator@@IAEXXZ$2
	DD	02H
	DD	FLAT:__unwindfunclet$?OnBtnExcelExport@CDlgDataSimulator@@IAEXXZ$3
	DD	02H
	DD	FLAT:__unwindfunclet$?OnBtnExcelExport@CDlgDataSimulator@@IAEXXZ$4
	DD	02H
	DD	FLAT:__unwindfunclet$?OnBtnExcelExport@CDlgDataSimulator@@IAEXXZ$5
	DD	02H
	DD	FLAT:__unwindfunclet$?OnBtnExcelExport@CDlgDataSimulator@@IAEXXZ$6
	DD	02H
	DD	FLAT:__unwindfunclet$?OnBtnExcelExport@CDlgDataSimulator@@IAEXXZ$7
	DD	07H
	DD	FLAT:__unwindfunclet$?OnBtnExcelExport@CDlgDataSimulator@@IAEXXZ$26
	DD	07H
	DD	FLAT:__unwindfunclet$?OnBtnExcelExport@CDlgDataSimulator@@IAEXXZ$8
	DD	09H
	DD	FLAT:__unwindfunclet$?OnBtnExcelExport@CDlgDataSimulator@@IAEXXZ$9
	DD	0aH
	DD	FLAT:__unwindfunclet$?OnBtnExcelExport@CDlgDataSimulator@@IAEXXZ$10
	DD	09H
	DD	FLAT:__unwindfunclet$?OnBtnExcelExport@CDlgDataSimulator@@IAEXXZ$11
	DD	0cH
	DD	FLAT:__unwindfunclet$?OnBtnExcelExport@CDlgDataSimulator@@IAEXXZ$12
	DD	0dH
	DD	FLAT:__unwindfunclet$?OnBtnExcelExport@CDlgDataSimulator@@IAEXXZ$28
	DD	0dH
	DD	FLAT:__unwindfunclet$?OnBtnExcelExport@CDlgDataSimulator@@IAEXXZ$14
	DD	0fH
	DD	FLAT:__unwindfunclet$?OnBtnExcelExport@CDlgDataSimulator@@IAEXXZ$29
	DD	0dH
	DD	FLAT:__unwindfunclet$?OnBtnExcelExport@CDlgDataSimulator@@IAEXXZ$30
	DD	0dH
	DD	FLAT:__unwindfunclet$?OnBtnExcelExport@CDlgDataSimulator@@IAEXXZ$31
	DD	012H
	DD	FLAT:__unwindfunclet$?OnBtnExcelExport@CDlgDataSimulator@@IAEXXZ$32
	DD	013H
	DD	FLAT:__unwindfunclet$?OnBtnExcelExport@CDlgDataSimulator@@IAEXXZ$33
	DD	0dH
	DD	FLAT:__unwindfunclet$?OnBtnExcelExport@CDlgDataSimulator@@IAEXXZ$20
	DD	015H
	DD	FLAT:__unwindfunclet$?OnBtnExcelExport@CDlgDataSimulator@@IAEXXZ$21
	DD	0dH
	DD	00H
	DD	016H
	DD	FLAT:__unwindfunclet$?OnBtnExcelExport@CDlgDataSimulator@@IAEXXZ$22
	DD	018H
	DD	FLAT:__unwindfunclet$?OnBtnExcelExport@CDlgDataSimulator@@IAEXXZ$23
	DD	0dH
	DD	00H
	DD	0dH
	DD	00H
	DD	016H
	DD	00H
	DD	01cH
	DD	00H
	DD	0dH
	DD	00H
	DD	0dH
	DD	FLAT:___std_terminate
xdata$x	ENDS
;	COMDAT xdata$x
xdata$x	SEGMENT
__unwindtable$?OnBtnDel@CDlgDataSimulator@@IAEXXZ DD 0ffffffffH
	DD	FLAT:___std_terminate
__ehfuncinfo$?OnBtnDel@CDlgDataSimulator@@IAEXXZ DD 019930522H
	DD	01H
	DD	FLAT:__unwindtable$?OnBtnDel@CDlgDataSimulator@@IAEXXZ
	DD	2 DUP(00H)
	DD	2 DUP(00H)
	DD	00H
	DD	01H
xdata$x	ENDS
;	COMDAT xdata$x
xdata$x	SEGMENT
__ehfuncinfo$?OnBtnAdd@CDlgDataSimulator@@IAEXXZ DD 019930522H
	DD	03cH
	DD	FLAT:__unwindtable$?OnBtnAdd@CDlgDataSimulator@@IAEXXZ
	DD	2 DUP(00H)
	DD	2 DUP(00H)
	DD	00H
	DD	01H
__unwindtable$?OnBtnAdd@CDlgDataSimulator@@IAEXXZ DD 0ffffffffH
	DD	FLAT:__unwindfunclet$?OnBtnAdd@CDlgDataSimulator@@IAEXXZ$0
	DD	00H
	DD	FLAT:__unwindfunclet$?OnBtnAdd@CDlgDataSimulator@@IAEXXZ$1
	DD	01H
	DD	FLAT:__unwindfunclet$?OnBtnAdd@CDlgDataSimulator@@IAEXXZ$2
	DD	0ffffffffH
	DD	00H
	DD	0ffffffffH
	DD	00H
	DD	0ffffffffH
	DD	00H
	DD	02H
	DD	FLAT:__unwindfunclet$?OnBtnAdd@CDlgDataSimulator@@IAEXXZ$3
	DD	06H
	DD	FLAT:__unwindfunclet$?OnBtnAdd@CDlgDataSimulator@@IAEXXZ$4
	DD	07H
	DD	FLAT:__unwindfunclet$?OnBtnAdd@CDlgDataSimulator@@IAEXXZ$5
	DD	08H
	DD	FLAT:__unwindfunclet$?OnBtnAdd@CDlgDataSimulator@@IAEXXZ$6
	DD	09H
	DD	FLAT:__unwindfunclet$?OnBtnAdd@CDlgDataSimulator@@IAEXXZ$7
	DD	0ffffffffH
	DD	00H
	DD	08H
	DD	FLAT:__unwindfunclet$?OnBtnAdd@CDlgDataSimulator@@IAEXXZ$8
	DD	0ffffffffH
	DD	00H
	DD	0cH
	DD	FLAT:__unwindfunclet$?OnBtnAdd@CDlgDataSimulator@@IAEXXZ$9
	DD	0eH
	DD	FLAT:__unwindfunclet$?OnBtnAdd@CDlgDataSimulator@@IAEXXZ$10
	DD	0ffffffffH
	DD	00H
	DD	02H
	DD	FLAT:__unwindfunclet$?OnBtnAdd@CDlgDataSimulator@@IAEXXZ$11
	DD	011H
	DD	FLAT:__unwindfunclet$?OnBtnAdd@CDlgDataSimulator@@IAEXXZ$12
	DD	012H
	DD	FLAT:__unwindfunclet$?OnBtnAdd@CDlgDataSimulator@@IAEXXZ$13
	DD	013H
	DD	FLAT:__unwindfunclet$?OnBtnAdd@CDlgDataSimulator@@IAEXXZ$14
	DD	014H
	DD	FLAT:__unwindfunclet$?OnBtnAdd@CDlgDataSimulator@@IAEXXZ$15
	DD	0ffffffffH
	DD	00H
	DD	013H
	DD	FLAT:__unwindfunclet$?OnBtnAdd@CDlgDataSimulator@@IAEXXZ$16
	DD	0ffffffffH
	DD	00H
	DD	017H
	DD	FLAT:__unwindfunclet$?OnBtnAdd@CDlgDataSimulator@@IAEXXZ$17
	DD	019H
	DD	FLAT:__unwindfunclet$?OnBtnAdd@CDlgDataSimulator@@IAEXXZ$18
	DD	0ffffffffH
	DD	00H
	DD	02H
	DD	FLAT:__unwindfunclet$?OnBtnAdd@CDlgDataSimulator@@IAEXXZ$19
	DD	01cH
	DD	FLAT:__unwindfunclet$?OnBtnAdd@CDlgDataSimulator@@IAEXXZ$20
	DD	01dH
	DD	FLAT:__unwindfunclet$?OnBtnAdd@CDlgDataSimulator@@IAEXXZ$21
	DD	01eH
	DD	FLAT:__unwindfunclet$?OnBtnAdd@CDlgDataSimulator@@IAEXXZ$22
	DD	0ffffffffH
	DD	00H
	DD	01dH
	DD	FLAT:__unwindfunclet$?OnBtnAdd@CDlgDataSimulator@@IAEXXZ$23
	DD	0ffffffffH
	DD	00H
	DD	021H
	DD	FLAT:__unwindfunclet$?OnBtnAdd@CDlgDataSimulator@@IAEXXZ$24
	DD	023H
	DD	FLAT:__unwindfunclet$?OnBtnAdd@CDlgDataSimulator@@IAEXXZ$25
	DD	0ffffffffH
	DD	00H
	DD	02H
	DD	FLAT:__unwindfunclet$?OnBtnAdd@CDlgDataSimulator@@IAEXXZ$26
	DD	026H
	DD	FLAT:__unwindfunclet$?OnBtnAdd@CDlgDataSimulator@@IAEXXZ$27
	DD	027H
	DD	FLAT:__unwindfunclet$?OnBtnAdd@CDlgDataSimulator@@IAEXXZ$28
	DD	028H
	DD	FLAT:__unwindfunclet$?OnBtnAdd@CDlgDataSimulator@@IAEXXZ$29
	DD	029H
	DD	FLAT:__unwindfunclet$?OnBtnAdd@CDlgDataSimulator@@IAEXXZ$30
	DD	0ffffffffH
	DD	00H
	DD	0ffffffffH
	DD	00H
	DD	02H
	DD	FLAT:__unwindfunclet$?OnBtnAdd@CDlgDataSimulator@@IAEXXZ$31
	DD	02dH
	DD	FLAT:__unwindfunclet$?OnBtnAdd@CDlgDataSimulator@@IAEXXZ$32
	DD	02eH
	DD	FLAT:__unwindfunclet$?OnBtnAdd@CDlgDataSimulator@@IAEXXZ$33
	DD	02fH
	DD	FLAT:__unwindfunclet$?OnBtnAdd@CDlgDataSimulator@@IAEXXZ$34
	DD	030H
	DD	FLAT:__unwindfunclet$?OnBtnAdd@CDlgDataSimulator@@IAEXXZ$35
	DD	0ffffffffH
	DD	00H
	DD	0ffffffffH
	DD	00H
	DD	02H
	DD	FLAT:__unwindfunclet$?OnBtnAdd@CDlgDataSimulator@@IAEXXZ$36
	DD	034H
	DD	FLAT:__unwindfunclet$?OnBtnAdd@CDlgDataSimulator@@IAEXXZ$37
	DD	035H
	DD	FLAT:__unwindfunclet$?OnBtnAdd@CDlgDataSimulator@@IAEXXZ$38
	DD	036H
	DD	FLAT:__unwindfunclet$?OnBtnAdd@CDlgDataSimulator@@IAEXXZ$39
	DD	037H
	DD	FLAT:__unwindfunclet$?OnBtnAdd@CDlgDataSimulator@@IAEXXZ$40
	DD	0ffffffffH
	DD	00H
	DD	0ffffffffH
	DD	00H
	DD	0ffffffffH
	DD	FLAT:___std_terminate
xdata$x	ENDS
;	COMDAT xdata$x
xdata$x	SEGMENT
__ehfuncinfo$?WindowProc@CDlgDataSimulator@@MAEJIIJ@Z DD 019930522H
	DD	06H
	DD	FLAT:__unwindtable$?WindowProc@CDlgDataSimulator@@MAEJIIJ@Z
	DD	2 DUP(00H)
	DD	2 DUP(00H)
	DD	00H
	DD	01H
__unwindtable$?WindowProc@CDlgDataSimulator@@MAEJIIJ@Z DD 0ffffffffH
	DD	FLAT:__unwindfunclet$?WindowProc@CDlgDataSimulator@@MAEJIIJ@Z$0
	DD	0ffffffffH
	DD	FLAT:__unwindfunclet$?WindowProc@CDlgDataSimulator@@MAEJIIJ@Z$1
	DD	0ffffffffH
	DD	FLAT:__unwindfunclet$?WindowProc@CDlgDataSimulator@@MAEJIIJ@Z$2
	DD	02H
	DD	FLAT:__unwindfunclet$?WindowProc@CDlgDataSimulator@@MAEJIIJ@Z$3
	DD	03H
	DD	FLAT:__unwindfunclet$?WindowProc@CDlgDataSimulator@@MAEJIIJ@Z$4
	DD	02H
	DD	FLAT:__unwindfunclet$?WindowProc@CDlgDataSimulator@@MAEJIIJ@Z$6
xdata$x	ENDS
;	COMDAT xdata$x
xdata$x	SEGMENT
__unwindtable$?MakeCopyChartData@CDlgDataSimulator@@QAEXXZ DD 0ffffffffH
	DD	FLAT:___std_terminate
__ehfuncinfo$?MakeCopyChartData@CDlgDataSimulator@@QAEXXZ DD 019930522H
	DD	01H
	DD	FLAT:__unwindtable$?MakeCopyChartData@CDlgDataSimulator@@QAEXXZ
	DD	2 DUP(00H)
	DD	2 DUP(00H)
	DD	00H
	DD	01H
xdata$x	ENDS
;	COMDAT xdata$x
xdata$x	SEGMENT
__unwindtable$?InitChartData@CDlgDataSimulator@@QAEXXZ DD 0ffffffffH
	DD	FLAT:___std_terminate
	DD	0ffffffffH
	DD	FLAT:___std_terminate
__ehfuncinfo$?InitChartData@CDlgDataSimulator@@QAEXXZ DD 019930522H
	DD	02H
	DD	FLAT:__unwindtable$?InitChartData@CDlgDataSimulator@@QAEXXZ
	DD	2 DUP(00H)
	DD	2 DUP(00H)
	DD	00H
	DD	01H
xdata$x	ENDS
;	COMDAT xdata$x
xdata$x	SEGMENT
__ehfuncinfo$?MakeTitle@CDlgDataSimulator@@QAEXXZ DD 019930522H
	DD	012H
	DD	FLAT:__unwindtable$?MakeTitle@CDlgDataSimulator@@QAEXXZ
	DD	2 DUP(00H)
	DD	2 DUP(00H)
	DD	00H
	DD	01H
__unwindtable$?MakeTitle@CDlgDataSimulator@@QAEXXZ DD 0ffffffffH
	DD	FLAT:__unwindfunclet$?MakeTitle@CDlgDataSimulator@@QAEXXZ$0
	DD	00H
	DD	FLAT:__unwindfunclet$?MakeTitle@CDlgDataSimulator@@QAEXXZ$1
	DD	01H
	DD	FLAT:__unwindfunclet$?MakeTitle@CDlgDataSimulator@@QAEXXZ$18
	DD	02H
	DD	FLAT:__unwindfunclet$?MakeTitle@CDlgDataSimulator@@QAEXXZ$19
	DD	03H
	DD	FLAT:__unwindfunclet$?MakeTitle@CDlgDataSimulator@@QAEXXZ$20
	DD	04H
	DD	FLAT:__unwindfunclet$?MakeTitle@CDlgDataSimulator@@QAEXXZ$21
	DD	05H
	DD	FLAT:__unwindfunclet$?MakeTitle@CDlgDataSimulator@@QAEXXZ$22
	DD	01H
	DD	FLAT:__unwindfunclet$?MakeTitle@CDlgDataSimulator@@QAEXXZ$7
	DD	07H
	DD	FLAT:__unwindfunclet$?MakeTitle@CDlgDataSimulator@@QAEXXZ$8
	DD	08H
	DD	FLAT:__unwindfunclet$?MakeTitle@CDlgDataSimulator@@QAEXXZ$23
	DD	08H
	DD	FLAT:__unwindfunclet$?MakeTitle@CDlgDataSimulator@@QAEXXZ$10
	DD	0aH
	DD	FLAT:__unwindfunclet$?MakeTitle@CDlgDataSimulator@@QAEXXZ$11
	DD	0aH
	DD	FLAT:__unwindfunclet$?MakeTitle@CDlgDataSimulator@@QAEXXZ$12
	DD	0cH
	DD	FLAT:__unwindfunclet$?MakeTitle@CDlgDataSimulator@@QAEXXZ$24
	DD	0dH
	DD	FLAT:__unwindfunclet$?MakeTitle@CDlgDataSimulator@@QAEXXZ$14
	DD	0aH
	DD	FLAT:__unwindfunclet$?MakeTitle@CDlgDataSimulator@@QAEXXZ$25
	DD	0fH
	DD	FLAT:__unwindfunclet$?MakeTitle@CDlgDataSimulator@@QAEXXZ$26
	DD	010H
	DD	FLAT:__unwindfunclet$?MakeTitle@CDlgDataSimulator@@QAEXXZ$27
xdata$x	ENDS
;	COMDAT xdata$x
xdata$x	SEGMENT
__catchsym$?InitGrid@CDlgDataSimulator@@QAEXXZ$6 DD 00H
	DD	FLAT:??_R0PAVCMemoryException@@@8
	DD	0ffffffc8H
	DD	FLAT:__catch$?InitGrid@CDlgDataSimulator@@QAEXXZ$0
__tryblocktable$?InitGrid@CDlgDataSimulator@@QAEXXZ DD 01H
	DD	01H
	DD	02H
	DD	01H
	DD	FLAT:__catchsym$?InitGrid@CDlgDataSimulator@@QAEXXZ$6
__ehfuncinfo$?InitGrid@CDlgDataSimulator@@QAEXXZ DD 019930522H
	DD	05H
	DD	FLAT:__unwindtable$?InitGrid@CDlgDataSimulator@@QAEXXZ
	DD	01H
	DD	FLAT:__tryblocktable$?InitGrid@CDlgDataSimulator@@QAEXXZ
	DD	2 DUP(00H)
	DD	00H
	DD	01H
__unwindtable$?InitGrid@CDlgDataSimulator@@QAEXXZ DD 0ffffffffH
	DD	FLAT:__unwindfunclet$?InitGrid@CDlgDataSimulator@@QAEXXZ$2
	DD	00H
	DD	00H
	DD	00H
	DD	00H
	DD	0ffffffffH
	DD	FLAT:___std_terminate
	DD	0ffffffffH
	DD	FLAT:___std_terminate
xdata$x	ENDS
;	COMDAT xdata$x
xdata$x	SEGMENT
__ehfuncinfo$??0CDlgDataSimulator@@QAE@W4CHART_MODE@CChartInfo@@PAVCWnd@@@Z DD 019930522H
	DD	06H
	DD	FLAT:__unwindtable$??0CDlgDataSimulator@@QAE@W4CHART_MODE@CChartInfo@@PAVCWnd@@@Z
	DD	2 DUP(00H)
	DD	2 DUP(00H)
	DD	00H
	DD	01H
__unwindtable$??0CDlgDataSimulator@@QAE@W4CHART_MODE@CChartInfo@@PAVCWnd@@@Z DD 0ffffffffH
	DD	FLAT:__unwindfunclet$??0CDlgDataSimulator@@QAE@W4CHART_MODE@CChartInfo@@PAVCWnd@@@Z$0
	DD	00H
	DD	FLAT:__unwindfunclet$??0CDlgDataSimulator@@QAE@W4CHART_MODE@CChartInfo@@PAVCWnd@@@Z$1
	DD	01H
	DD	FLAT:__unwindfunclet$??0CDlgDataSimulator@@QAE@W4CHART_MODE@CChartInfo@@PAVCWnd@@@Z$2
	DD	02H
	DD	FLAT:__unwindfunclet$??0CDlgDataSimulator@@QAE@W4CHART_MODE@CChartInfo@@PAVCWnd@@@Z$3
	DD	03H
	DD	FLAT:__unwindfunclet$??0CDlgDataSimulator@@QAE@W4CHART_MODE@CChartInfo@@PAVCWnd@@@Z$4
	DD	04H
	DD	FLAT:__unwindfunclet$??0CDlgDataSimulator@@QAE@W4CHART_MODE@CChartInfo@@PAVCWnd@@@Z$5
xdata$x	ENDS
;	COMDAT xdata$x
xdata$x	SEGMENT
__unwindtable$??_G?$CList@PAVCChartRecordSet@@PAV1@@@UAEPAXI@Z DD 0ffffffffH
	DD	FLAT:___std_terminate
__ehfuncinfo$??_G?$CList@PAVCChartRecordSet@@PAV1@@@UAEPAXI@Z DD 019930522H
	DD	01H
	DD	FLAT:__unwindtable$??_G?$CList@PAVCChartRecordSet@@PAV1@@@UAEPAXI@Z
	DD	2 DUP(00H)
	DD	2 DUP(00H)
	DD	00H
	DD	05H
xdata$x	ENDS
;	COMDAT xdata$x
xdata$x	SEGMENT
__ehfuncinfo$??1?$CList@PAVCChartRecordSet@@PAV1@@@UAE@XZ DD 019930522H
	DD	00H
	DD	00H
	DD	2 DUP(00H)
	DD	2 DUP(00H)
	DD	00H
	DD	05H
xdata$x	ENDS
;	COMDAT xdata$x
xdata$x	SEGMENT
__unwindtable$??_GCChartRecordSet@@QAEPAXI@Z DD 0ffffffffH
	DD	FLAT:___std_terminate
__ehfuncinfo$??_GCChartRecordSet@@QAEPAXI@Z DD 019930522H
	DD	01H
	DD	FLAT:__unwindtable$??_GCChartRecordSet@@QAEPAXI@Z
	DD	2 DUP(00H)
	DD	2 DUP(00H)
	DD	00H
	DD	05H
xdata$x	ENDS
;	COMDAT xdata$x
xdata$x	SEGMENT
__ehfuncinfo$??1CChartRecordSet@@QAE@XZ DD 019930522H
	DD	00H
	DD	00H
	DD	2 DUP(00H)
	DD	2 DUP(00H)
	DD	00H
	DD	05H
xdata$x	ENDS
;	COMDAT xdata$x
xdata$x	SEGMENT
__ehfuncinfo$??0CChartRecordSet@@QAE@XZ DD 019930522H
	DD	00H
	DD	00H
	DD	2 DUP(00H)
	DD	2 DUP(00H)
	DD	00H
	DD	05H
xdata$x	ENDS
;	COMDAT xdata$x
xdata$x	SEGMENT
__unwindtable$??0CFileException@@QAE@HJPBD@Z DD 0ffffffffH
	DD	FLAT:__unwindfunclet$??0CFileException@@QAE@HJPBD@Z$0
__ehfuncinfo$??0CFileException@@QAE@HJPBD@Z DD 019930522H
	DD	01H
	DD	FLAT:__unwindtable$??0CFileException@@QAE@HJPBD@Z
	DD	2 DUP(00H)
	DD	2 DUP(00H)
	DD	00H
	DD	01H
xdata$x	ENDS
;	COMDAT xdata$x
xdata$x	SEGMENT
__ehfuncinfo$??1AFX_EXCEPTION_LINK@@QAE@XZ DD 019930522H
	DD	00H
	DD	00H
	DD	2 DUP(00H)
	DD	2 DUP(00H)
	DD	00H
	DD	05H
xdata$x	ENDS
;	COMDAT xdata$x
xdata$x	SEGMENT
__unwindtable$??HATL@@YA?AV?$CStringT@DV?$StrTraitMFC_DLL@DV?$ChTraitsCRT@D@ATL@@@@@0@PBDABV10@@Z DD 0ffffffffH
	DD	FLAT:__unwindfunclet$??HATL@@YA?AV?$CStringT@DV?$StrTraitMFC_DLL@DV?$ChTraitsCRT@D@ATL@@@@@0@PBDABV10@@Z$0
__ehfuncinfo$??HATL@@YA?AV?$CStringT@DV?$StrTraitMFC_DLL@DV?$ChTraitsCRT@D@ATL@@@@@0@PBDABV10@@Z DD 019930522H
	DD	01H
	DD	FLAT:__unwindtable$??HATL@@YA?AV?$CStringT@DV?$StrTraitMFC_DLL@DV?$ChTraitsCRT@D@ATL@@@@@0@PBDABV10@@Z
	DD	2 DUP(00H)
	DD	2 DUP(00H)
	DD	00H
	DD	01H
xdata$x	ENDS
;	COMDAT xdata$x
xdata$x	SEGMENT
__unwindtable$??HATL@@YA?AV?$CStringT@DV?$StrTraitMFC_DLL@DV?$ChTraitsCRT@D@ATL@@@@@0@ABV10@PBD@Z DD 0ffffffffH
	DD	FLAT:__unwindfunclet$??HATL@@YA?AV?$CStringT@DV?$StrTraitMFC_DLL@DV?$ChTraitsCRT@D@ATL@@@@@0@ABV10@PBD@Z$0
__ehfuncinfo$??HATL@@YA?AV?$CStringT@DV?$StrTraitMFC_DLL@DV?$ChTraitsCRT@D@ATL@@@@@0@ABV10@PBD@Z DD 019930522H
	DD	01H
	DD	FLAT:__unwindtable$??HATL@@YA?AV?$CStringT@DV?$StrTraitMFC_DLL@DV?$ChTraitsCRT@D@ATL@@@@@0@ABV10@PBD@Z
	DD	2 DUP(00H)
	DD	2 DUP(00H)
	DD	00H
	DD	01H
xdata$x	ENDS
;	COMDAT xdata$x
xdata$x	SEGMENT
__unwindtable$??HATL@@YA?AV?$CStringT@DV?$StrTraitMFC_DLL@DV?$ChTraitsCRT@D@ATL@@@@@0@ABV10@0@Z DD 0ffffffffH
	DD	FLAT:__unwindfunclet$??HATL@@YA?AV?$CStringT@DV?$StrTraitMFC_DLL@DV?$ChTraitsCRT@D@ATL@@@@@0@ABV10@0@Z$0
__ehfuncinfo$??HATL@@YA?AV?$CStringT@DV?$StrTraitMFC_DLL@DV?$ChTraitsCRT@D@ATL@@@@@0@ABV10@0@Z DD 019930522H
	DD	01H
	DD	FLAT:__unwindtable$??HATL@@YA?AV?$CStringT@DV?$StrTraitMFC_DLL@DV?$ChTraitsCRT@D@ATL@@@@@0@ABV10@0@Z
	DD	2 DUP(00H)
	DD	2 DUP(00H)
	DD	00H
	DD	01H
xdata$x	ENDS
; Function compile flags: /Ogtp
; File C:\Program Files (x86)\Microsoft Visual Studio\2019\Community\VC\Tools\MSVC\14.29.30133\atlmfc\include\afxtempl.h
; File C:\Program Files (x86)\Microsoft Visual Studio\2019\Community\VC\Tools\MSVC\14.29.30133\atlmfc\include\afx.inl
; File C:\Program Files (x86)\Microsoft Visual Studio\2019\Community\VC\Tools\MSVC\14.29.30133\atlmfc\include\afxtempl.h
; File C:\Program Files (x86)\Microsoft Visual Studio\2019\Community\VC\Tools\MSVC\14.29.30133\atlmfc\include\afx.inl
; File C:\Program Files (x86)\Microsoft Visual Studio\2019\Community\VC\Tools\MSVC\14.29.30133\atlmfc\include\afxtempl.h
; File C:\Program Files (x86)\Microsoft Visual Studio\2019\Community\VC\Tools\MSVC\14.29.30133\atlmfc\include\afx.inl
; File C:\Program Files (x86)\Microsoft Visual Studio\2019\Community\VC\Tools\MSVC\14.29.30133\atlmfc\include\afxtempl.h
;	COMDAT ??$SerializeElements@PAVCChartDataGridHeaderInfo@@@@YGXAAVCArchive@@PAPAVCChartDataGridHeaderInfo@@H@Z
_TEXT	SEGMENT
_ar$ = 8						; size = 4
_pElements$ = 12					; size = 4
_nCount$ = 16						; size = 4
??$SerializeElements@PAVCChartDataGridHeaderInfo@@@@YGXAAVCArchive@@PAPAVCChartDataGridHeaderInfo@@H@Z PROC ; SerializeElements<CChartDataGridHeaderInfo *>, COMDAT

; 67   : {

  00000	55		 push	 ebp
  00001	8b ec		 mov	 ebp, esp

; 68   : 	ENSURE(nCount == 0 || pElements != NULL);

  00003	8b 4d 0c	 mov	 ecx, DWORD PTR _pElements$[ebp]
  00006	53		 push	 ebx
  00007	56		 push	 esi
  00008	8b 75 10	 mov	 esi, DWORD PTR _nCount$[ebp]
  0000b	57		 push	 edi
  0000c	85 f6		 test	 esi, esi
  0000e	74 08		 je	 SHORT $LN2@SerializeE
  00010	85 c9		 test	 ecx, ecx
  00012	0f 84 89 00 00
	00		 je	 $LN34@SerializeE
$LN2@SerializeE:
; File C:\Program Files (x86)\Microsoft Visual Studio\2019\Community\VC\Tools\MSVC\14.29.30133\atlmfc\include\afx.inl

; 212  : 	{ return (m_nMode & CArchive::load) == 0; }

  00018	8b 55 08	 mov	 edx, DWORD PTR _ar$[ebp]
  0001b	8b 42 18	 mov	 eax, DWORD PTR [edx+24]
  0001e	f7 d0		 not	 eax
  00020	a8 01		 test	 al, 1
; File C:\Program Files (x86)\Microsoft Visual Studio\2019\Community\VC\Tools\MSVC\14.29.30133\atlmfc\include\afxtempl.h

; 73   : 	if (ar.IsStoring())

  00022	74 3c		 je	 SHORT $LN10@SerializeE

; 74   : 	{
; 75   : 		TYPE* pData;
; 76   : 		UINT_PTR nElementsLeft;
; 77   : 
; 78   : 		nElementsLeft = nCount;
; 79   : 		pData = pElements;
; 80   : 		while( nElementsLeft > 0 )

  00024	85 f6		 test	 esi, esi
  00026	74 31		 je	 SHORT $LN8@SerializeE
  00028	0f 1f 84 00 00
	00 00 00	 npad	 8
$LL5@SerializeE:

; 81   : 		{
; 82   : 			UINT nElementsToWrite;
; 83   : 
; 84   : 			nElementsToWrite = UINT(__min(nElementsLeft, INT_MAX/sizeof(TYPE)));

  00030	bb ff ff ff 1f	 mov	 ebx, 536870911		; 1fffffffH
  00035	3b f3		 cmp	 esi, ebx
  00037	0f 42 de	 cmovb	 ebx, esi

; 85   : 			ar.Write(pData, nElementsToWrite*sizeof(TYPE));

  0003a	8d 3c 9d 00 00
	00 00		 lea	 edi, DWORD PTR [ebx*4]
  00041	57		 push	 edi
  00042	51		 push	 ecx
  00043	8b ca		 mov	 ecx, edx
  00045	e8 00 00 00 00	 call	 ?Write@CArchive@@QAEXPBXI@Z ; CArchive::Write

; 86   : 			nElementsLeft -= nElementsToWrite;
; 87   : 			pData += nElementsToWrite;

  0004a	8b 4d 0c	 mov	 ecx, DWORD PTR _pElements$[ebp]
  0004d	8b 55 08	 mov	 edx, DWORD PTR _ar$[ebp]
  00050	03 cf		 add	 ecx, edi
  00052	89 4d 0c	 mov	 DWORD PTR _pElements$[ebp], ecx
  00055	2b f3		 sub	 esi, ebx
  00057	75 d7		 jne	 SHORT $LL5@SerializeE
$LN8@SerializeE:
  00059	5f		 pop	 edi

; 105  : 		}
; 106  : 	}
; 107  : }

  0005a	5e		 pop	 esi
  0005b	5b		 pop	 ebx
  0005c	5d		 pop	 ebp
  0005d	c2 0c 00	 ret	 12			; 0000000cH
$LN10@SerializeE:

; 97   : 		while( nElementsLeft > 0 )

  00060	85 f6		 test	 esi, esi
  00062	74 f5		 je	 SHORT $LN8@SerializeE
$LL7@SerializeE:

; 98   : 		{
; 99   : 			UINT nElementsToRead;
; 100  : 
; 101  : 			nElementsToRead = UINT(__min(nElementsLeft, INT_MAX/sizeof(TYPE)));

  00064	bf ff ff ff 1f	 mov	 edi, 536870911		; 1fffffffH
  00069	3b f7		 cmp	 esi, edi
  0006b	0f 42 fe	 cmovb	 edi, esi

; 102  : 			ar.EnsureRead(pData, nElementsToRead*sizeof(TYPE));

  0006e	8d 1c bd 00 00
	00 00		 lea	 ebx, DWORD PTR [edi*4]
; File C:\Program Files (x86)\Microsoft Visual Studio\2019\Community\VC\Tools\MSVC\14.29.30133\atlmfc\include\afx.inl

; 399  : 	UINT nRead=Read(lpBuf, nCount);

  00075	53		 push	 ebx
  00076	51		 push	 ecx
  00077	8b ca		 mov	 ecx, edx
  00079	e8 00 00 00 00	 call	 ?Read@CArchive@@QAEIPAXI@Z ; CArchive::Read

; 400  : 	if(nRead!=nCount)

  0007e	3b c3		 cmp	 eax, ebx
  00080	75 16		 jne	 SHORT $LN23@SerializeE
; File C:\Program Files (x86)\Microsoft Visual Studio\2019\Community\VC\Tools\MSVC\14.29.30133\atlmfc\include\afxtempl.h

; 97   : 		while( nElementsLeft > 0 )

  00082	8b 4d 0c	 mov	 ecx, DWORD PTR _pElements$[ebp]
  00085	8b 55 08	 mov	 edx, DWORD PTR _ar$[ebp]

; 103  : 			nElementsLeft -= nElementsToRead;
; 104  : 			pData += nElementsToRead;

  00088	03 cb		 add	 ecx, ebx
  0008a	89 4d 0c	 mov	 DWORD PTR _pElements$[ebp], ecx
  0008d	2b f7		 sub	 esi, edi
  0008f	75 d3		 jne	 SHORT $LL7@SerializeE

; 105  : 		}
; 106  : 	}
; 107  : }

  00091	5f		 pop	 edi
  00092	5e		 pop	 esi
  00093	5b		 pop	 ebx
  00094	5d		 pop	 ebp
  00095	c2 0c 00	 ret	 12			; 0000000cH
$LN23@SerializeE:
; File C:\Program Files (x86)\Microsoft Visual Studio\2019\Community\VC\Tools\MSVC\14.29.30133\atlmfc\include\afx.inl

; 402  : 		AfxThrowArchiveException(CArchiveException::endOfFile);

  00098	6a 00		 push	 0
  0009a	6a 03		 push	 3
  0009c	e8 00 00 00 00	 call	 ?AfxThrowArchiveException@@YGXHPBD@Z ; AfxThrowArchiveException
$LN34@SerializeE:
; File C:\Program Files (x86)\Microsoft Visual Studio\2019\Community\VC\Tools\MSVC\14.29.30133\atlmfc\include\afxtempl.h

; 68   : 	ENSURE(nCount == 0 || pElements != NULL);

  000a1	e8 00 00 00 00	 call	 ?AfxThrowInvalidArgException@@YGXXZ ; AfxThrowInvalidArgException
$LN32@SerializeE:
  000a6	cc		 int	 3
??$SerializeElements@PAVCChartDataGridHeaderInfo@@@@YGXAAVCArchive@@PAPAVCChartDataGridHeaderInfo@@H@Z ENDP ; SerializeElements<CChartDataGridHeaderInfo *>
_TEXT	ENDS
; Function compile flags: /Ogtp
; File C:\Program Files (x86)\Microsoft Visual Studio\2019\Community\VC\Tools\MSVC\14.29.30133\atlmfc\include\afxtempl.h
; File C:\Program Files (x86)\Microsoft Visual Studio\2019\Community\VC\Tools\MSVC\14.29.30133\atlmfc\include\afx.inl
; File C:\Program Files (x86)\Microsoft Visual Studio\2019\Community\VC\Tools\MSVC\14.29.30133\atlmfc\include\afxtempl.h
; File C:\Program Files (x86)\Microsoft Visual Studio\2019\Community\VC\Tools\MSVC\14.29.30133\atlmfc\include\afx.inl
; File C:\Program Files (x86)\Microsoft Visual Studio\2019\Community\VC\Tools\MSVC\14.29.30133\atlmfc\include\afxtempl.h
; File C:\Program Files (x86)\Microsoft Visual Studio\2019\Community\VC\Tools\MSVC\14.29.30133\atlmfc\include\afx.inl
; File C:\Program Files (x86)\Microsoft Visual Studio\2019\Community\VC\Tools\MSVC\14.29.30133\atlmfc\include\afxtempl.h
;	COMDAT ??$SerializeElements@PAVCChartRecordSet@@@@YGXAAVCArchive@@PAPAVCChartRecordSet@@H@Z
_TEXT	SEGMENT
_ar$ = 8						; size = 4
_pElements$ = 12					; size = 4
_nCount$ = 16						; size = 4
??$SerializeElements@PAVCChartRecordSet@@@@YGXAAVCArchive@@PAPAVCChartRecordSet@@H@Z PROC ; SerializeElements<CChartRecordSet *>, COMDAT

; 67   : {

  00000	55		 push	 ebp
  00001	8b ec		 mov	 ebp, esp

; 68   : 	ENSURE(nCount == 0 || pElements != NULL);

  00003	8b 4d 0c	 mov	 ecx, DWORD PTR _pElements$[ebp]
  00006	53		 push	 ebx
  00007	56		 push	 esi
  00008	8b 75 10	 mov	 esi, DWORD PTR _nCount$[ebp]
  0000b	57		 push	 edi
  0000c	85 f6		 test	 esi, esi
  0000e	74 08		 je	 SHORT $LN2@SerializeE
  00010	85 c9		 test	 ecx, ecx
  00012	0f 84 89 00 00
	00		 je	 $LN34@SerializeE
$LN2@SerializeE:
; File C:\Program Files (x86)\Microsoft Visual Studio\2019\Community\VC\Tools\MSVC\14.29.30133\atlmfc\include\afx.inl

; 212  : 	{ return (m_nMode & CArchive::load) == 0; }

  00018	8b 55 08	 mov	 edx, DWORD PTR _ar$[ebp]
  0001b	8b 42 18	 mov	 eax, DWORD PTR [edx+24]
  0001e	f7 d0		 not	 eax
  00020	a8 01		 test	 al, 1
; File C:\Program Files (x86)\Microsoft Visual Studio\2019\Community\VC\Tools\MSVC\14.29.30133\atlmfc\include\afxtempl.h

; 73   : 	if (ar.IsStoring())

  00022	74 3c		 je	 SHORT $LN10@SerializeE

; 74   : 	{
; 75   : 		TYPE* pData;
; 76   : 		UINT_PTR nElementsLeft;
; 77   : 
; 78   : 		nElementsLeft = nCount;
; 79   : 		pData = pElements;
; 80   : 		while( nElementsLeft > 0 )

  00024	85 f6		 test	 esi, esi
  00026	74 31		 je	 SHORT $LN8@SerializeE
  00028	0f 1f 84 00 00
	00 00 00	 npad	 8
$LL5@SerializeE:

; 81   : 		{
; 82   : 			UINT nElementsToWrite;
; 83   : 
; 84   : 			nElementsToWrite = UINT(__min(nElementsLeft, INT_MAX/sizeof(TYPE)));

  00030	bb ff ff ff 1f	 mov	 ebx, 536870911		; 1fffffffH
  00035	3b f3		 cmp	 esi, ebx
  00037	0f 42 de	 cmovb	 ebx, esi

; 85   : 			ar.Write(pData, nElementsToWrite*sizeof(TYPE));

  0003a	8d 3c 9d 00 00
	00 00		 lea	 edi, DWORD PTR [ebx*4]
  00041	57		 push	 edi
  00042	51		 push	 ecx
  00043	8b ca		 mov	 ecx, edx
  00045	e8 00 00 00 00	 call	 ?Write@CArchive@@QAEXPBXI@Z ; CArchive::Write

; 86   : 			nElementsLeft -= nElementsToWrite;
; 87   : 			pData += nElementsToWrite;

  0004a	8b 4d 0c	 mov	 ecx, DWORD PTR _pElements$[ebp]
  0004d	8b 55 08	 mov	 edx, DWORD PTR _ar$[ebp]
  00050	03 cf		 add	 ecx, edi
  00052	89 4d 0c	 mov	 DWORD PTR _pElements$[ebp], ecx
  00055	2b f3		 sub	 esi, ebx
  00057	75 d7		 jne	 SHORT $LL5@SerializeE
$LN8@SerializeE:
  00059	5f		 pop	 edi

; 105  : 		}
; 106  : 	}
; 107  : }

  0005a	5e		 pop	 esi
  0005b	5b		 pop	 ebx
  0005c	5d		 pop	 ebp
  0005d	c2 0c 00	 ret	 12			; 0000000cH
$LN10@SerializeE:

; 97   : 		while( nElementsLeft > 0 )

  00060	85 f6		 test	 esi, esi
  00062	74 f5		 je	 SHORT $LN8@SerializeE
$LL7@SerializeE:

; 98   : 		{
; 99   : 			UINT nElementsToRead;
; 100  : 
; 101  : 			nElementsToRead = UINT(__min(nElementsLeft, INT_MAX/sizeof(TYPE)));

  00064	bf ff ff ff 1f	 mov	 edi, 536870911		; 1fffffffH
  00069	3b f7		 cmp	 esi, edi
  0006b	0f 42 fe	 cmovb	 edi, esi

; 102  : 			ar.EnsureRead(pData, nElementsToRead*sizeof(TYPE));

  0006e	8d 1c bd 00 00
	00 00		 lea	 ebx, DWORD PTR [edi*4]
; File C:\Program Files (x86)\Microsoft Visual Studio\2019\Community\VC\Tools\MSVC\14.29.30133\atlmfc\include\afx.inl

; 399  : 	UINT nRead=Read(lpBuf, nCount);

  00075	53		 push	 ebx
  00076	51		 push	 ecx
  00077	8b ca		 mov	 ecx, edx
  00079	e8 00 00 00 00	 call	 ?Read@CArchive@@QAEIPAXI@Z ; CArchive::Read

; 400  : 	if(nRead!=nCount)

  0007e	3b c3		 cmp	 eax, ebx
  00080	75 16		 jne	 SHORT $LN23@SerializeE
; File C:\Program Files (x86)\Microsoft Visual Studio\2019\Community\VC\Tools\MSVC\14.29.30133\atlmfc\include\afxtempl.h

; 97   : 		while( nElementsLeft > 0 )

  00082	8b 4d 0c	 mov	 ecx, DWORD PTR _pElements$[ebp]
  00085	8b 55 08	 mov	 edx, DWORD PTR _ar$[ebp]

; 103  : 			nElementsLeft -= nElementsToRead;
; 104  : 			pData += nElementsToRead;

  00088	03 cb		 add	 ecx, ebx
  0008a	89 4d 0c	 mov	 DWORD PTR _pElements$[ebp], ecx
  0008d	2b f7		 sub	 esi, edi
  0008f	75 d3		 jne	 SHORT $LL7@SerializeE

; 105  : 		}
; 106  : 	}
; 107  : }

  00091	5f		 pop	 edi
  00092	5e		 pop	 esi
  00093	5b		 pop	 ebx
  00094	5d		 pop	 ebp
  00095	c2 0c 00	 ret	 12			; 0000000cH
$LN23@SerializeE:
; File C:\Program Files (x86)\Microsoft Visual Studio\2019\Community\VC\Tools\MSVC\14.29.30133\atlmfc\include\afx.inl

; 402  : 		AfxThrowArchiveException(CArchiveException::endOfFile);

  00098	6a 00		 push	 0
  0009a	6a 03		 push	 3
  0009c	e8 00 00 00 00	 call	 ?AfxThrowArchiveException@@YGXHPBD@Z ; AfxThrowArchiveException
$LN34@SerializeE:
; File C:\Program Files (x86)\Microsoft Visual Studio\2019\Community\VC\Tools\MSVC\14.29.30133\atlmfc\include\afxtempl.h

; 68   : 	ENSURE(nCount == 0 || pElements != NULL);

  000a1	e8 00 00 00 00	 call	 ?AfxThrowInvalidArgException@@YGXXZ ; AfxThrowInvalidArgException
$LN32@SerializeE:
  000a6	cc		 int	 3
??$SerializeElements@PAVCChartRecordSet@@@@YGXAAVCArchive@@PAPAVCChartRecordSet@@H@Z ENDP ; SerializeElements<CChartRecordSet *>
_TEXT	ENDS
; Function compile flags: /Ogtp
;	COMDAT ??1CDlgInputTick@@UAE@XZ
_TEXT	SEGMENT
??1CDlgInputTick@@UAE@XZ PROC				; CDlgInputTick::~CDlgInputTick, COMDAT
; _this$ = ecx
  00000	56		 push	 esi
  00001	8b f1		 mov	 esi, ecx
  00003	8d 8e b8 00 00
	00		 lea	 ecx, DWORD PTR [esi+184]
  00009	ff 15 00 00 00
	00		 call	 DWORD PTR __imp_??1?$CStringT@DV?$StrTraitMFC_DLL@DV?$ChTraitsCRT@D@ATL@@@@@ATL@@QAE@XZ
  0000f	8d 8e b4 00 00
	00		 lea	 ecx, DWORD PTR [esi+180]
  00015	ff 15 00 00 00
	00		 call	 DWORD PTR __imp_??1?$CStringT@DV?$StrTraitMFC_DLL@DV?$ChTraitsCRT@D@ATL@@@@@ATL@@QAE@XZ
  0001b	8d 8e b0 00 00
	00		 lea	 ecx, DWORD PTR [esi+176]
  00021	ff 15 00 00 00
	00		 call	 DWORD PTR __imp_??1?$CStringT@DV?$StrTraitMFC_DLL@DV?$ChTraitsCRT@D@ATL@@@@@ATL@@QAE@XZ
  00027	8d 8e ac 00 00
	00		 lea	 ecx, DWORD PTR [esi+172]
  0002d	ff 15 00 00 00
	00		 call	 DWORD PTR __imp_??1?$CStringT@DV?$StrTraitMFC_DLL@DV?$ChTraitsCRT@D@ATL@@@@@ATL@@QAE@XZ
  00033	8d 8e a8 00 00
	00		 lea	 ecx, DWORD PTR [esi+168]
  00039	ff 15 00 00 00
	00		 call	 DWORD PTR __imp_??1?$CStringT@DV?$StrTraitMFC_DLL@DV?$ChTraitsCRT@D@ATL@@@@@ATL@@QAE@XZ
  0003f	8b ce		 mov	 ecx, esi
  00041	5e		 pop	 esi
  00042	e9 00 00 00 00	 jmp	 ??1CDialog@@UAE@XZ	; CDialog::~CDialog
??1CDlgInputTick@@UAE@XZ ENDP				; CDlgInputTick::~CDlgInputTick
_TEXT	ENDS
; Function compile flags: /Ogtp
;	COMDAT ??1CDlgInputMin@@UAE@XZ
_TEXT	SEGMENT
??1CDlgInputMin@@UAE@XZ PROC				; CDlgInputMin::~CDlgInputMin, COMDAT
; _this$ = ecx
  00000	56		 push	 esi
  00001	8b f1		 mov	 esi, ecx
  00003	8d 8e b8 00 00
	00		 lea	 ecx, DWORD PTR [esi+184]
  00009	ff 15 00 00 00
	00		 call	 DWORD PTR __imp_??1?$CStringT@DV?$StrTraitMFC_DLL@DV?$ChTraitsCRT@D@ATL@@@@@ATL@@QAE@XZ
  0000f	8d 8e b4 00 00
	00		 lea	 ecx, DWORD PTR [esi+180]
  00015	ff 15 00 00 00
	00		 call	 DWORD PTR __imp_??1?$CStringT@DV?$StrTraitMFC_DLL@DV?$ChTraitsCRT@D@ATL@@@@@ATL@@QAE@XZ
  0001b	8d 8e b0 00 00
	00		 lea	 ecx, DWORD PTR [esi+176]
  00021	ff 15 00 00 00
	00		 call	 DWORD PTR __imp_??1?$CStringT@DV?$StrTraitMFC_DLL@DV?$ChTraitsCRT@D@ATL@@@@@ATL@@QAE@XZ
  00027	8d 8e ac 00 00
	00		 lea	 ecx, DWORD PTR [esi+172]
  0002d	ff 15 00 00 00
	00		 call	 DWORD PTR __imp_??1?$CStringT@DV?$StrTraitMFC_DLL@DV?$ChTraitsCRT@D@ATL@@@@@ATL@@QAE@XZ
  00033	8d 8e a8 00 00
	00		 lea	 ecx, DWORD PTR [esi+168]
  00039	ff 15 00 00 00
	00		 call	 DWORD PTR __imp_??1?$CStringT@DV?$StrTraitMFC_DLL@DV?$ChTraitsCRT@D@ATL@@@@@ATL@@QAE@XZ
  0003f	8b ce		 mov	 ecx, esi
  00041	5e		 pop	 esi
  00042	e9 00 00 00 00	 jmp	 ??1CDialog@@UAE@XZ	; CDialog::~CDialog
??1CDlgInputMin@@UAE@XZ ENDP				; CDlgInputMin::~CDlgInputMin
_TEXT	ENDS
; Function compile flags: /Ogtp
;	COMDAT ??1CDlgInputMonth@@UAE@XZ
_TEXT	SEGMENT
??1CDlgInputMonth@@UAE@XZ PROC				; CDlgInputMonth::~CDlgInputMonth, COMDAT
; _this$ = ecx
  00000	56		 push	 esi
  00001	8b f1		 mov	 esi, ecx
  00003	8d 8e b0 00 00
	00		 lea	 ecx, DWORD PTR [esi+176]
  00009	ff 15 00 00 00
	00		 call	 DWORD PTR __imp_??1?$CStringT@DV?$StrTraitMFC_DLL@DV?$ChTraitsCRT@D@ATL@@@@@ATL@@QAE@XZ
  0000f	8d 8e ac 00 00
	00		 lea	 ecx, DWORD PTR [esi+172]
  00015	ff 15 00 00 00
	00		 call	 DWORD PTR __imp_??1?$CStringT@DV?$StrTraitMFC_DLL@DV?$ChTraitsCRT@D@ATL@@@@@ATL@@QAE@XZ
  0001b	8d 8e a8 00 00
	00		 lea	 ecx, DWORD PTR [esi+168]
  00021	ff 15 00 00 00
	00		 call	 DWORD PTR __imp_??1?$CStringT@DV?$StrTraitMFC_DLL@DV?$ChTraitsCRT@D@ATL@@@@@ATL@@QAE@XZ
  00027	8b ce		 mov	 ecx, esi
  00029	5e		 pop	 esi
  0002a	e9 00 00 00 00	 jmp	 ??1CDialog@@UAE@XZ	; CDialog::~CDialog
??1CDlgInputMonth@@UAE@XZ ENDP				; CDlgInputMonth::~CDlgInputMonth
_TEXT	ENDS
; Function compile flags: /Ogtp
;	COMDAT ??1CDlgInputDayWeek@@UAE@XZ
_TEXT	SEGMENT
??1CDlgInputDayWeek@@UAE@XZ PROC			; CDlgInputDayWeek::~CDlgInputDayWeek, COMDAT
; _this$ = ecx
  00000	56		 push	 esi
  00001	8b f1		 mov	 esi, ecx
  00003	8d 8e b4 00 00
	00		 lea	 ecx, DWORD PTR [esi+180]
  00009	ff 15 00 00 00
	00		 call	 DWORD PTR __imp_??1?$CStringT@DV?$StrTraitMFC_DLL@DV?$ChTraitsCRT@D@ATL@@@@@ATL@@QAE@XZ
  0000f	8d 8e b0 00 00
	00		 lea	 ecx, DWORD PTR [esi+176]
  00015	ff 15 00 00 00
	00		 call	 DWORD PTR __imp_??1?$CStringT@DV?$StrTraitMFC_DLL@DV?$ChTraitsCRT@D@ATL@@@@@ATL@@QAE@XZ
  0001b	8d 8e ac 00 00
	00		 lea	 ecx, DWORD PTR [esi+172]
  00021	ff 15 00 00 00
	00		 call	 DWORD PTR __imp_??1?$CStringT@DV?$StrTraitMFC_DLL@DV?$ChTraitsCRT@D@ATL@@@@@ATL@@QAE@XZ
  00027	8d 8e a8 00 00
	00		 lea	 ecx, DWORD PTR [esi+168]
  0002d	ff 15 00 00 00
	00		 call	 DWORD PTR __imp_??1?$CStringT@DV?$StrTraitMFC_DLL@DV?$ChTraitsCRT@D@ATL@@@@@ATL@@QAE@XZ
  00033	8b ce		 mov	 ecx, esi
  00035	5e		 pop	 esi
  00036	e9 00 00 00 00	 jmp	 ??1CDialog@@UAE@XZ	; CDialog::~CDialog
??1CDlgInputDayWeek@@UAE@XZ ENDP			; CDlgInputDayWeek::~CDlgInputDayWeek
_TEXT	ENDS
; Function compile flags: /Ogtp
; File D:\git\src\IBK\IBK_DRFN\ProjSrc\SrcChartEx\ChartAddIn\ChartDataListViewerAddIn\Include_Chart\DLL_Load\IMetaTable.h
; File C:\Program Files (x86)\Microsoft Visual Studio\2019\Community\VC\Tools\MSVC\14.29.30133\atlmfc\include\afxwin1.inl
; File D:\git\src\IBK\IBK_DRFN\ProjSrc\SrcChartEx\ChartAddIn\ChartDataListViewerAddIn\Include_Chart\DLL_Load\IMetaTable.h
;	COMDAT ??1CMultiLanguageResourceSetter@@QAE@XZ
_TEXT	SEGMENT
__$EHRec$ = -12						; size = 12
??1CMultiLanguageResourceSetter@@QAE@XZ PROC		; CMultiLanguageResourceSetter::~CMultiLanguageResourceSetter, COMDAT
; _this$ = ecx

; 1036 : 	{

  00000	55		 push	 ebp
  00001	8b ec		 mov	 ebp, esp
  00003	6a ff		 push	 -1
  00005	68 00 00 00 00	 push	 __ehhandler$??1CMultiLanguageResourceSetter@@QAE@XZ
  0000a	64 a1 00 00 00
	00		 mov	 eax, DWORD PTR fs:0
  00010	50		 push	 eax
  00011	56		 push	 esi
  00012	a1 00 00 00 00	 mov	 eax, DWORD PTR ___security_cookie
  00017	33 c5		 xor	 eax, ebp
  00019	50		 push	 eax
  0001a	8d 45 f4	 lea	 eax, DWORD PTR __$EHRec$[ebp]
  0001d	64 a3 00 00 00
	00		 mov	 DWORD PTR fs:0, eax

; 1037 : 		AfxSetResourceHandle( m_hInstance);

  00023	8b 31		 mov	 esi, DWORD PTR [ecx]
; File C:\Program Files (x86)\Microsoft Visual Studio\2019\Community\VC\Tools\MSVC\14.29.30133\atlmfc\include\afxwin1.inl

; 27   : 	{ ASSERT(hInstResource != NULL); afxCurrentResourceHandle = hInstResource; }

  00025	e8 00 00 00 00	 call	 ?AfxGetModuleState@@YGPAVAFX_MODULE_STATE@@XZ ; AfxGetModuleState
  0002a	89 70 0c	 mov	 DWORD PTR [eax+12], esi
; File D:\git\src\IBK\IBK_DRFN\ProjSrc\SrcChartEx\ChartAddIn\ChartDataListViewerAddIn\Include_Chart\DLL_Load\IMetaTable.h

; 1038 : 	}

  0002d	8b 4d f4	 mov	 ecx, DWORD PTR __$EHRec$[ebp]
  00030	64 89 0d 00 00
	00 00		 mov	 DWORD PTR fs:0, ecx
  00037	59		 pop	 ecx
  00038	5e		 pop	 esi
  00039	8b e5		 mov	 esp, ebp
  0003b	5d		 pop	 ebp
  0003c	c3		 ret	 0
  0003d	cc		 int	 3
  0003e	cc		 int	 3
  0003f	cc		 int	 3
  00040	cc		 int	 3
  00041	cc		 int	 3
_TEXT	ENDS
;	COMDAT text$x
text$x	SEGMENT
__ehhandler$??1CMultiLanguageResourceSetter@@QAE@XZ:
  00000	90		 npad	 1
  00001	90		 npad	 1
  00002	8b 54 24 08	 mov	 edx, DWORD PTR [esp+8]
  00006	8d 42 0c	 lea	 eax, DWORD PTR [edx+12]
  00009	8b 4a f8	 mov	 ecx, DWORD PTR [edx-8]
  0000c	33 c8		 xor	 ecx, eax
  0000e	e8 00 00 00 00	 call	 @__security_check_cookie@4
  00013	b8 00 00 00 00	 mov	 eax, OFFSET __ehfuncinfo$??1CMultiLanguageResourceSetter@@QAE@XZ
  00018	e9 00 00 00 00	 jmp	 ___CxxFrameHandler3
text$x	ENDS
??1CMultiLanguageResourceSetter@@QAE@XZ ENDP		; CMultiLanguageResourceSetter::~CMultiLanguageResourceSetter
; Function compile flags: /Ogtp
; File D:\git\src\IBK\IBK_DRFN\ProjSrc\SrcChartEx\ChartAddIn\ChartDataListViewerAddIn\Include_Chart\DLL_Load\IMetaTable.h
;	COMDAT ?LoadResourceDLL@IMetaTable@@QAEPAUHINSTANCE__@@PAUHWND__@@PAU2@@Z
_TEXT	SEGMENT
_p1$ = 8						; size = 4
_p2$ = 12						; size = 4
?LoadResourceDLL@IMetaTable@@QAEPAUHINSTANCE__@@PAUHWND__@@PAU2@@Z PROC ; IMetaTable::LoadResourceDLL, COMDAT
; _this$ = ecx

; 936  : 	DECLARE_FUNCTION2(	LoadResourceDLL,				HMODULE, AfxGetStaticModuleState()->m_hCurrentInstanceHandle, HWND, HMODULE);

  00000	55		 push	 ebp
  00001	8b ec		 mov	 ebp, esp
  00003	56		 push	 esi
  00004	8b f1		 mov	 esi, ecx
  00006	8b 46 04	 mov	 eax, DWORD PTR [esi+4]
  00009	85 c0		 test	 eax, eax
  0000b	74 4d		 je	 SHORT $LN4@LoadResour
  0000d	57		 push	 edi
  0000e	bf 80 0d 00 00	 mov	 edi, 3456		; 00000d80H
  00013	66 3b be 94 00
	00 00		 cmp	 di, WORD PTR [esi+148]
  0001a	74 23		 je	 SHORT $LN3@LoadResour
  0001c	68 00 00 00 00	 push	 OFFSET ??_C@_0BA@ENJOCHIO@LoadResourceDLL@
  00021	50		 push	 eax
  00022	c7 86 90 00 00
	00 00 00 00 00	 mov	 DWORD PTR [esi+144], 0
  0002c	ff 15 00 00 00
	00		 call	 DWORD PTR __imp__GetProcAddress@8
  00032	89 86 90 00 00
	00		 mov	 DWORD PTR [esi+144], eax
  00038	66 89 be 94 00
	00 00		 mov	 WORD PTR [esi+148], di
$LN3@LoadResour:
  0003f	8b 86 90 00 00
	00		 mov	 eax, DWORD PTR [esi+144]
  00045	5f		 pop	 edi
  00046	85 c0		 test	 eax, eax
  00048	74 10		 je	 SHORT $LN4@LoadResour
  0004a	ff 75 0c	 push	 DWORD PTR _p2$[ebp]
  0004d	ff 75 08	 push	 DWORD PTR _p1$[ebp]
  00050	ff d0		 call	 eax
  00052	83 c4 08	 add	 esp, 8
  00055	5e		 pop	 esi
  00056	5d		 pop	 ebp
  00057	c2 08 00	 ret	 8
$LN4@LoadResour:
  0005a	e8 00 00 00 00	 call	 ?AfxGetStaticModuleState@@YGPAVAFX_MODULE_STATE@@XZ ; AfxGetStaticModuleState
  0005f	5e		 pop	 esi
  00060	8b 40 08	 mov	 eax, DWORD PTR [eax+8]
  00063	5d		 pop	 ebp
  00064	c2 08 00	 ret	 8
?LoadResourceDLL@IMetaTable@@QAEPAUHINSTANCE__@@PAUHWND__@@PAU2@@Z ENDP ; IMetaTable::LoadResourceDLL
_TEXT	ENDS
; Function compile flags: /Ogtp
; File C:\Program Files (x86)\Microsoft Visual Studio\2019\Community\VC\Tools\MSVC\14.29.30133\atlmfc\include\afxtempl.h
; File C:\Program Files (x86)\Microsoft Visual Studio\2019\Community\VC\Tools\MSVC\14.29.30133\atlmfc\include\afx.inl
;	COMDAT ??_GCDlgDataSimulator@@UAEPAXI@Z
_TEXT	SEGMENT
__$EHRec$ = -12						; size = 12
___flags$ = 8						; size = 4
??_GCDlgDataSimulator@@UAEPAXI@Z PROC			; CDlgDataSimulator::`scalar deleting destructor', COMDAT
; _this$ = ecx
  00000	55		 push	 ebp
  00001	8b ec		 mov	 ebp, esp
  00003	6a ff		 push	 -1
  00005	68 00 00 00 00	 push	 __ehhandler$??_GCDlgDataSimulator@@UAEPAXI@Z
  0000a	64 a1 00 00 00
	00		 mov	 eax, DWORD PTR fs:0
  00010	50		 push	 eax
  00011	56		 push	 esi
  00012	a1 00 00 00 00	 mov	 eax, DWORD PTR ___security_cookie
  00017	33 c5		 xor	 eax, ebp
  00019	50		 push	 eax
  0001a	8d 45 f4	 lea	 eax, DWORD PTR __$EHRec$[ebp]
  0001d	64 a3 00 00 00
	00		 mov	 DWORD PTR fs:0, eax
  00023	8b f1		 mov	 esi, ecx
  00025	8d 8e 60 05 00
	00		 lea	 ecx, DWORD PTR [esi+1376]
  0002b	ff 15 00 00 00
	00		 call	 DWORD PTR __imp_??1?$CStringT@DV?$StrTraitMFC_DLL@DV?$ChTraitsCRT@D@ATL@@@@@ATL@@QAE@XZ
  00031	8d 8e 58 05 00
	00		 lea	 ecx, DWORD PTR [esi+1368]
  00037	ff 15 00 00 00
	00		 call	 DWORD PTR __imp_??1?$CStringT@DV?$StrTraitMFC_DLL@DV?$ChTraitsCRT@D@ATL@@@@@ATL@@QAE@XZ
; File C:\Program Files (x86)\Microsoft Visual Studio\2019\Community\VC\Tools\MSVC\14.29.30133\atlmfc\include\afxtempl.h

; 872  : 	m_pBlocks->FreeDataChain();

  0003d	8b 8e 50 05 00
	00		 mov	 ecx, DWORD PTR [esi+1360]

; 878  : {

  00043	c7 45 fc 00 00
	00 00		 mov	 DWORD PTR __$EHRec$[ebp+8], 0
  0004a	c7 86 3c 05 00
	00 00 00 00 00	 mov	 DWORD PTR [esi+1340], OFFSET ??_7?$CList@PAVCChartRecordSet@@PAV1@@@6B@

; 870  : 	m_nCount = 0;

  00054	c7 86 48 05 00
	00 00 00 00 00	 mov	 DWORD PTR [esi+1352], 0

; 871  : 	m_pNodeHead = m_pNodeTail = m_pNodeFree = NULL;

  0005e	c7 86 4c 05 00
	00 00 00 00 00	 mov	 DWORD PTR [esi+1356], 0
  00068	c7 86 44 05 00
	00 00 00 00 00	 mov	 DWORD PTR [esi+1348], 0
  00072	c7 86 40 05 00
	00 00 00 00 00	 mov	 DWORD PTR [esi+1344], 0

; 872  : 	m_pBlocks->FreeDataChain();

  0007c	e8 00 00 00 00	 call	 ?FreeDataChain@CPlex@@QAEXXZ ; CPlex::FreeDataChain
  00081	8d 8e b0 00 00
	00		 lea	 ecx, DWORD PTR [esi+176]

; 873  : 	m_pBlocks = NULL;

  00087	c7 86 50 05 00
	00 00 00 00 00	 mov	 DWORD PTR [esi+1360], 0
  00091	e8 00 00 00 00	 call	 ??1CGridCtrl@@UAE@XZ	; CGridCtrl::~CGridCtrl
  00096	8d 8e a8 00 00
	00		 lea	 ecx, DWORD PTR [esi+168]
  0009c	ff 15 00 00 00
	00		 call	 DWORD PTR __imp_??1?$CStringT@DV?$StrTraitMFC_DLL@DV?$ChTraitsCRT@D@ATL@@@@@ATL@@QAE@XZ
  000a2	8b ce		 mov	 ecx, esi
  000a4	e8 00 00 00 00	 call	 ??1CDialog@@UAE@XZ	; CDialog::~CDialog
  000a9	8b 45 08	 mov	 eax, DWORD PTR ___flags$[ebp]
  000ac	a8 01		 test	 al, 1
  000ae	74 2f		 je	 SHORT $LN25@scalar
  000b0	a8 04		 test	 al, 4
  000b2	75 1d		 jne	 SHORT $LN3@scalar
; File C:\Program Files (x86)\Microsoft Visual Studio\2019\Community\VC\Tools\MSVC\14.29.30133\atlmfc\include\afx.inl

; 112  : 	{ ::operator delete(p); }

  000b4	56		 push	 esi
  000b5	e8 00 00 00 00	 call	 ??3@YAXPAX@Z		; operator delete
  000ba	83 c4 04	 add	 esp, 4
  000bd	8b c6		 mov	 eax, esi
  000bf	8b 4d f4	 mov	 ecx, DWORD PTR __$EHRec$[ebp]
  000c2	64 89 0d 00 00
	00 00		 mov	 DWORD PTR fs:0, ecx
  000c9	59		 pop	 ecx
  000ca	5e		 pop	 esi
  000cb	8b e5		 mov	 esp, ebp
  000cd	5d		 pop	 ebp
  000ce	c2 04 00	 ret	 4
$LN3@scalar:
  000d1	68 68 05 00 00	 push	 1384			; 00000568H
  000d6	56		 push	 esi
  000d7	e8 00 00 00 00	 call	 ?__global_delete@@YAXPAXI@Z ; __global_delete
  000dc	83 c4 08	 add	 esp, 8
$LN25@scalar:
  000df	8b c6		 mov	 eax, esi
  000e1	8b 4d f4	 mov	 ecx, DWORD PTR __$EHRec$[ebp]
  000e4	64 89 0d 00 00
	00 00		 mov	 DWORD PTR fs:0, ecx
  000eb	59		 pop	 ecx
  000ec	5e		 pop	 esi
  000ed	8b e5		 mov	 esp, ebp
  000ef	5d		 pop	 ebp
  000f0	c2 04 00	 ret	 4
  000f3	cc		 int	 3
  000f4	cc		 int	 3
  000f5	cc		 int	 3
  000f6	cc		 int	 3
  000f7	cc		 int	 3
_TEXT	ENDS
;	COMDAT text$x
text$x	SEGMENT
__ehhandler$??_GCDlgDataSimulator@@UAEPAXI@Z:
  00000	90		 npad	 1
  00001	90		 npad	 1
  00002	8b 54 24 08	 mov	 edx, DWORD PTR [esp+8]
  00006	8d 42 0c	 lea	 eax, DWORD PTR [edx+12]
  00009	8b 4a f8	 mov	 ecx, DWORD PTR [edx-8]
  0000c	33 c8		 xor	 ecx, eax
  0000e	e8 00 00 00 00	 call	 @__security_check_cookie@4
  00013	b8 00 00 00 00	 mov	 eax, OFFSET __ehfuncinfo$??_GCDlgDataSimulator@@UAEPAXI@Z
  00018	e9 00 00 00 00	 jmp	 ___CxxFrameHandler3
text$x	ENDS
??_GCDlgDataSimulator@@UAEPAXI@Z ENDP			; CDlgDataSimulator::`scalar deleting destructor'
; Function compile flags: /Ogtp
; File D:\git\src\IBK\IBK_DRFN\ProjSrc\SrcChartEx\ChartAddIn\ChartDataListViewerAddIn\ChartDataListViewerAddIn\DlgDataSimulator.cpp
;	COMDAT ?GetMessageMap@CDlgDataSimulator@@MBEPBUAFX_MSGMAP@@XZ
_TEXT	SEGMENT
?GetMessageMap@CDlgDataSimulator@@MBEPBUAFX_MSGMAP@@XZ PROC ; CDlgDataSimulator::GetMessageMap, COMDAT
; _this$ = ecx

; 52   : BEGIN_MESSAGE_MAP(CDlgDataSimulator, CDialog)

  00000	b8 00 00 00 00	 mov	 eax, OFFSET ?messageMap@?1??GetThisMessageMap@CDlgDataSimulator@@KGPBUAFX_MSGMAP@@XZ@4U3@B
  00005	c3		 ret	 0
?GetMessageMap@CDlgDataSimulator@@MBEPBUAFX_MSGMAP@@XZ ENDP ; CDlgDataSimulator::GetMessageMap
_TEXT	ENDS
; Function compile flags: /Ogtp
; File D:\git\src\IBK\IBK_DRFN\ProjSrc\SrcChartEx\ChartAddIn\ChartDataListViewerAddIn\ChartDataListViewerAddIn\DlgDataSimulator.cpp
;	COMDAT ?GetThisMessageMap@CDlgDataSimulator@@KGPBUAFX_MSGMAP@@XZ
_TEXT	SEGMENT
?GetThisMessageMap@CDlgDataSimulator@@KGPBUAFX_MSGMAP@@XZ PROC ; CDlgDataSimulator::GetThisMessageMap, COMDAT

; 53   : 	//{{AFX_MSG_MAP(CDlgDataSimulator)
; 54   : 	ON_BN_CLICKED(IDC_BTN_ADD,			OnBtnAdd)
; 55   : 	ON_BN_CLICKED(IDC_BTN_DEL,			OnBtnDel)
; 56   : 	ON_BN_CLICKED(IDC_BTN_EXCEL_EXPORT, OnBtnExcelExport)	
; 57   : 	ON_BN_CLICKED(IDC_BTN_EXPORT,		OnBtnExport)
; 58   : 	ON_BN_CLICKED(IDC_BTN_IMPORT,		OnBtnImport)
; 59   : 	ON_BN_CLICKED(IDC_BTN_INIT,			OnBtnInit)
; 60   : 	ON_BN_CLICKED(IDC_BTN_REMOVE_ALL,	OnBtnRemoveAll)
; 61   : 	ON_BN_CLICKED(IDM_BTN_OK, OnBtnOk)
; 62   : 	ON_WM_DESTROY()
; 63   : 	//}}AFX_MSG_MAP
; 64   : END_MESSAGE_MAP()

  00000	b8 00 00 00 00	 mov	 eax, OFFSET ?messageMap@?1??GetThisMessageMap@CDlgDataSimulator@@KGPBUAFX_MSGMAP@@XZ@4U3@B
  00005	c3		 ret	 0
?GetThisMessageMap@CDlgDataSimulator@@KGPBUAFX_MSGMAP@@XZ ENDP ; CDlgDataSimulator::GetThisMessageMap
_TEXT	ENDS
; Function compile flags: /Ogtp
; File D:\git\src\IBK\IBK_DRFN\ProjSrc\SrcChartEx\ChartAddIn\ChartDataListViewerAddIn\ChartDataListViewerAddIn\DlgDataSimulator.cpp
; File C:\Program Files (x86)\Microsoft Visual Studio\2019\Community\VC\Tools\MSVC\14.29.30133\atlmfc\include\afxtempl.h
; File D:\git\src\IBK\IBK_DRFN\ProjSrc\SrcChartEx\ChartAddIn\ChartDataListViewerAddIn\ChartDataListViewerAddIn\DlgDataSimulator.cpp
; File C:\Program Files (x86)\Microsoft Visual Studio\2019\Community\VC\Tools\MSVC\14.29.30133\atlmfc\include\afxtempl.h
; File D:\git\src\IBK\IBK_DRFN\ProjSrc\SrcChartEx\ChartAddIn\ChartDataListViewerAddIn\ChartDataListViewerAddIn\DlgDataSimulator.cpp
; File C:\Program Files (x86)\Microsoft Visual Studio\2019\Community\VC\Tools\MSVC\14.29.30133\atlmfc\include\afxtempl.h
; File D:\git\src\IBK\IBK_DRFN\ProjSrc\SrcChartEx\ChartAddIn\ChartDataListViewerAddIn\ChartDataListViewerAddIn\DlgDataSimulator.cpp
; File C:\Program Files (x86)\Microsoft Visual Studio\2019\Community\VC\Tools\MSVC\14.29.30133\atlmfc\include\afxtempl.h
; File D:\git\src\IBK\IBK_DRFN\ProjSrc\SrcChartEx\ChartAddIn\ChartDataListViewerAddIn\ChartDataListViewerAddIn\DlgDataSimulator.cpp
;	COMDAT ?OnDestroy@CDlgDataSimulator@@IAEXXZ
_TEXT	SEGMENT
__$EHRec$ = -12						; size = 12
?OnDestroy@CDlgDataSimulator@@IAEXXZ PROC		; CDlgDataSimulator::OnDestroy, COMDAT
; _this$ = ecx

; 1291 : {

  00000	55		 push	 ebp
  00001	8b ec		 mov	 ebp, esp
  00003	6a ff		 push	 -1
  00005	68 00 00 00 00	 push	 __ehhandler$?OnDestroy@CDlgDataSimulator@@IAEXXZ
  0000a	64 a1 00 00 00
	00		 mov	 eax, DWORD PTR fs:0
  00010	50		 push	 eax
  00011	56		 push	 esi
  00012	57		 push	 edi
  00013	a1 00 00 00 00	 mov	 eax, DWORD PTR ___security_cookie
  00018	33 c5		 xor	 eax, ebp
  0001a	50		 push	 eax
  0001b	8d 45 f4	 lea	 eax, DWORD PTR __$EHRec$[ebp]
  0001e	64 a3 00 00 00
	00		 mov	 DWORD PTR fs:0, eax
  00024	8b f1		 mov	 esi, ecx

; 1292 : 	CDialog::OnDestroy();

  00026	e8 00 00 00 00	 call	 ?OnDestroy@CWnd@@IAEXXZ	; CWnd::OnDestroy

; 1293 : 	
; 1294 : 	if(m_pChartLastRecordSet) 

  0002b	8b be 5c 05 00
	00		 mov	 edi, DWORD PTR [esi+1372]
  00031	85 ff		 test	 edi, edi
  00033	74 33		 je	 SHORT $LN41@OnDestroy

; 1295 : 	{
; 1296 : 		delete m_pChartLastRecordSet;
; 1297 : 		m_pChartLastRecordSet = NULL;

  00035	ff 35 00 00 00
	00		 push	 DWORD PTR __imp_??1?$CStringT@DV?$StrTraitMFC_DLL@DV?$ChTraitsCRT@D@ATL@@@@@ATL@@QAE@XZ
  0003b	c7 45 fc 00 00
	00 00		 mov	 DWORD PTR __$EHRec$[ebp+8], 0
  00042	6a 06		 push	 6
  00044	6a 04		 push	 4
  00046	57		 push	 edi
  00047	e8 00 00 00 00	 call	 ??_M@YGXPAXIIP6EX0@Z@Z
  0004c	6a 18		 push	 24			; 00000018H
  0004e	57		 push	 edi
  0004f	c7 45 fc ff ff
	ff ff		 mov	 DWORD PTR __$EHRec$[ebp+8], -1
  00056	e8 00 00 00 00	 call	 ??3@YAXPAXI@Z		; operator delete
  0005b	83 c4 08	 add	 esp, 8
  0005e	c7 86 5c 05 00
	00 00 00 00 00	 mov	 DWORD PTR [esi+1372], 0
$LN41@OnDestroy:
; File C:\Program Files (x86)\Microsoft Visual Studio\2019\Community\VC\Tools\MSVC\14.29.30133\atlmfc\include\afxtempl.h

; 786  : 	{ return m_nCount == 0; }

  00068	83 be 48 05 00
	00 00		 cmp	 DWORD PTR [esi+1352], 0
; File D:\git\src\IBK\IBK_DRFN\ProjSrc\SrcChartEx\ChartAddIn\ChartDataListViewerAddIn\ChartDataListViewerAddIn\DlgDataSimulator.cpp

; 1300 : 	while(!m_CopyChartDataList.IsEmpty()) 

  0006f	0f 84 c9 00 00
	00		 je	 $LN3@OnDestroy
  00075	66 66 66 0f 1f
	84 00 00 00 00
	00		 npad	 11
$LL2@OnDestroy:
; File C:\Program Files (x86)\Microsoft Visual Studio\2019\Community\VC\Tools\MSVC\14.29.30133\atlmfc\include\afxtempl.h

; 1009 : 	ENSURE(m_pNodeHead != NULL);  // don't call on empty list !!!

  00080	8b 8e 40 05 00
	00		 mov	 ecx, DWORD PTR [esi+1344]
  00086	85 c9		 test	 ecx, ecx
  00088	0f 84 c1 00 00
	00		 je	 $LN43@OnDestroy

; 1010 : 	ASSERT(AfxIsValidAddress(m_pNodeHead, sizeof(CNode)));
; 1011 : 
; 1012 : 	CNode* pOldNode = m_pNodeHead;
; 1013 : 	TYPE returnValue = pOldNode->data;
; 1014 : 
; 1015 : 	m_pNodeHead = pOldNode->pNext;

  0008e	8b 01		 mov	 eax, DWORD PTR [ecx]
  00090	8b 79 08	 mov	 edi, DWORD PTR [ecx+8]
  00093	89 86 40 05 00
	00		 mov	 DWORD PTR [esi+1344], eax

; 1016 : 	if (m_pNodeHead != NULL)

  00099	85 c0		 test	 eax, eax
  0009b	74 09		 je	 SHORT $LN23@OnDestroy

; 1017 : 		m_pNodeHead->pPrev = NULL;

  0009d	c7 40 04 00 00
	00 00		 mov	 DWORD PTR [eax+4], 0
  000a4	eb 0a		 jmp	 SHORT $LN24@OnDestroy
$LN23@OnDestroy:

; 1018 : 	else
; 1019 : 		m_pNodeTail = NULL;

  000a6	c7 86 44 05 00
	00 00 00 00 00	 mov	 DWORD PTR [esi+1348], 0
$LN24@OnDestroy:

; 938  : 	pNode->pNext = m_pNodeFree;

  000b0	8b 86 4c 05 00
	00		 mov	 eax, DWORD PTR [esi+1356]
  000b6	89 01		 mov	 DWORD PTR [ecx], eax

; 939  : 	m_pNodeFree = pNode;
; 940  : 	m_nCount--;

  000b8	83 86 48 05 00
	00 ff		 add	 DWORD PTR [esi+1352], -1
  000bf	89 8e 4c 05 00
	00		 mov	 DWORD PTR [esi+1356], ecx

; 941  : 	ASSERT(m_nCount >= 0);  // make sure we don't underflow
; 942  : 
; 943  : 	// if no more elements, cleanup completely
; 944  : 	if (m_nCount == 0)

  000c5	75 3d		 jne	 SHORT $LN27@OnDestroy

; 872  : 	m_pBlocks->FreeDataChain();

  000c7	8b 8e 50 05 00
	00		 mov	 ecx, DWORD PTR [esi+1360]
  000cd	c7 86 48 05 00
	00 00 00 00 00	 mov	 DWORD PTR [esi+1352], 0
  000d7	c7 86 4c 05 00
	00 00 00 00 00	 mov	 DWORD PTR [esi+1356], 0
  000e1	c7 86 44 05 00
	00 00 00 00 00	 mov	 DWORD PTR [esi+1348], 0
  000eb	c7 86 40 05 00
	00 00 00 00 00	 mov	 DWORD PTR [esi+1344], 0
  000f5	e8 00 00 00 00	 call	 ?FreeDataChain@CPlex@@QAEXXZ ; CPlex::FreeDataChain

; 873  : 	m_pBlocks = NULL;

  000fa	c7 86 50 05 00
	00 00 00 00 00	 mov	 DWORD PTR [esi+1360], 0
$LN27@OnDestroy:
; File D:\git\src\IBK\IBK_DRFN\ProjSrc\SrcChartEx\ChartAddIn\ChartDataListViewerAddIn\ChartDataListViewerAddIn\DlgDataSimulator.cpp

; 1301 : 		delete m_CopyChartDataList.RemoveHead();

  00104	85 ff		 test	 edi, edi
  00106	74 29		 je	 SHORT $LN36@OnDestroy
  00108	ff 35 00 00 00
	00		 push	 DWORD PTR __imp_??1?$CStringT@DV?$StrTraitMFC_DLL@DV?$ChTraitsCRT@D@ATL@@@@@ATL@@QAE@XZ
  0010e	c7 45 fc 01 00
	00 00		 mov	 DWORD PTR __$EHRec$[ebp+8], 1
  00115	6a 06		 push	 6
  00117	6a 04		 push	 4
  00119	57		 push	 edi
  0011a	e8 00 00 00 00	 call	 ??_M@YGXPAXIIP6EX0@Z@Z
  0011f	6a 18		 push	 24			; 00000018H
  00121	57		 push	 edi
  00122	c7 45 fc ff ff
	ff ff		 mov	 DWORD PTR __$EHRec$[ebp+8], -1
  00129	e8 00 00 00 00	 call	 ??3@YAXPAXI@Z		; operator delete
  0012e	83 c4 08	 add	 esp, 8
$LN36@OnDestroy:
; File C:\Program Files (x86)\Microsoft Visual Studio\2019\Community\VC\Tools\MSVC\14.29.30133\atlmfc\include\afxtempl.h

; 786  : 	{ return m_nCount == 0; }

  00131	83 be 48 05 00
	00 00		 cmp	 DWORD PTR [esi+1352], 0
; File D:\git\src\IBK\IBK_DRFN\ProjSrc\SrcChartEx\ChartAddIn\ChartDataListViewerAddIn\ChartDataListViewerAddIn\DlgDataSimulator.cpp

; 1300 : 	while(!m_CopyChartDataList.IsEmpty()) 

  00138	0f 85 42 ff ff
	ff		 jne	 $LL2@OnDestroy
$LN3@OnDestroy:

; 1303 : }

  0013e	8b 4d f4	 mov	 ecx, DWORD PTR __$EHRec$[ebp]
  00141	64 89 0d 00 00
	00 00		 mov	 DWORD PTR fs:0, ecx
  00148	59		 pop	 ecx
  00149	5f		 pop	 edi
  0014a	5e		 pop	 esi
  0014b	8b e5		 mov	 esp, ebp
  0014d	5d		 pop	 ebp
  0014e	c3		 ret	 0
$LN43@OnDestroy:
; File C:\Program Files (x86)\Microsoft Visual Studio\2019\Community\VC\Tools\MSVC\14.29.30133\atlmfc\include\afxtempl.h

; 1009 : 	ENSURE(m_pNodeHead != NULL);  // don't call on empty list !!!

  0014f	e8 00 00 00 00	 call	 ?AfxThrowInvalidArgException@@YGXXZ ; AfxThrowInvalidArgException
$LN51@OnDestroy:
  00154	cc		 int	 3
  00155	cc		 int	 3
  00156	cc		 int	 3
  00157	cc		 int	 3
  00158	cc		 int	 3
  00159	cc		 int	 3
_TEXT	ENDS
;	COMDAT text$x
text$x	SEGMENT
__ehhandler$?OnDestroy@CDlgDataSimulator@@IAEXXZ:
  00000	90		 npad	 1
  00001	90		 npad	 1
  00002	8b 54 24 08	 mov	 edx, DWORD PTR [esp+8]
  00006	8d 42 0c	 lea	 eax, DWORD PTR [edx+12]
  00009	8b 4a f4	 mov	 ecx, DWORD PTR [edx-12]
  0000c	33 c8		 xor	 ecx, eax
  0000e	e8 00 00 00 00	 call	 @__security_check_cookie@4
  00013	b8 00 00 00 00	 mov	 eax, OFFSET __ehfuncinfo$?OnDestroy@CDlgDataSimulator@@IAEXXZ
  00018	e9 00 00 00 00	 jmp	 ___CxxFrameHandler3
text$x	ENDS
?OnDestroy@CDlgDataSimulator@@IAEXXZ ENDP		; CDlgDataSimulator::OnDestroy
; Function compile flags: /Ogtp
; File D:\git\src\IBK\IBK_DRFN\ProjSrc\SrcChartEx\ChartAddIn\ChartDataListViewerAddIn\ChartDataListViewerAddIn\DlgDataSimulator.cpp
; File C:\Program Files (x86)\Microsoft Visual Studio\2019\Community\VC\Tools\MSVC\14.29.30133\atlmfc\include\cstringt.h
; File D:\git\src\IBK\IBK_DRFN\ProjSrc\SrcChartEx\ChartAddIn\ChartDataListViewerAddIn\ChartDataListViewerAddIn\DlgDataSimulator.cpp
; File C:\Program Files (x86)\Microsoft Visual Studio\2019\Community\VC\Tools\MSVC\14.29.30133\atlmfc\include\cstringt.h
; File D:\git\src\IBK\IBK_DRFN\ProjSrc\SrcChartEx\ChartAddIn\ChartDataListViewerAddIn\ChartDataListViewerAddIn\DlgDataSimulator.cpp
; File C:\Program Files (x86)\Microsoft Visual Studio\2019\Community\VC\Tools\MSVC\14.29.30133\atlmfc\include\atltime.h
; File D:\git\src\IBK\IBK_DRFN\ProjSrc\SrcChartEx\ChartAddIn\ChartDataListViewerAddIn\ChartDataListViewerAddIn\DlgDataSimulator.cpp
; File C:\Program Files (x86)\Microsoft Visual Studio\2019\Community\VC\Tools\MSVC\14.29.30133\atlmfc\include\atltime.h
; File D:\git\src\IBK\IBK_DRFN\ProjSrc\SrcChartEx\ChartAddIn\ChartDataListViewerAddIn\ChartDataListViewerAddIn\DlgDataSimulator.cpp
; File C:\Program Files (x86)\Microsoft Visual Studio\2019\Community\VC\Tools\MSVC\14.29.30133\atlmfc\include\atltime.h
; File D:\git\src\IBK\IBK_DRFN\ProjSrc\SrcChartEx\ChartAddIn\ChartDataListViewerAddIn\ChartDataListViewerAddIn\DlgDataSimulator.cpp
; File C:\Program Files (x86)\Microsoft Visual Studio\2019\Community\VC\Tools\MSVC\14.29.30133\atlmfc\include\afxtempl.h
; File D:\git\src\IBK\IBK_DRFN\ProjSrc\SrcChartEx\ChartAddIn\ChartDataListViewerAddIn\ChartDataListViewerAddIn\DlgDataSimulator.cpp
; File C:\Program Files (x86)\Microsoft Visual Studio\2019\Community\VC\Tools\MSVC\14.29.30133\atlmfc\include\cstringt.h
; File D:\git\src\IBK\IBK_DRFN\ProjSrc\SrcChartEx\ChartAddIn\ChartDataListViewerAddIn\ChartDataListViewerAddIn\DlgDataSimulator.cpp
; File C:\Program Files (x86)\Microsoft Visual Studio\2019\Community\VC\Tools\MSVC\14.29.30133\atlmfc\include\atltime.h
; File D:\git\src\IBK\IBK_DRFN\ProjSrc\SrcChartEx\ChartAddIn\ChartDataListViewerAddIn\ChartDataListViewerAddIn\DlgDataSimulator.cpp
; File C:\Program Files (x86)\Microsoft Visual Studio\2019\Community\VC\Tools\MSVC\14.29.30133\atlmfc\include\atltime.h
; File D:\git\src\IBK\IBK_DRFN\ProjSrc\SrcChartEx\ChartAddIn\ChartDataListViewerAddIn\ChartDataListViewerAddIn\DlgDataSimulator.cpp
; File C:\Program Files (x86)\Microsoft Visual Studio\2019\Community\VC\Tools\MSVC\14.29.30133\atlmfc\include\atltime.h
; File D:\git\src\IBK\IBK_DRFN\ProjSrc\SrcChartEx\ChartAddIn\ChartDataListViewerAddIn\ChartDataListViewerAddIn\DlgDataSimulator.cpp
; File C:\Program Files (x86)\Microsoft Visual Studio\2019\Community\VC\Tools\MSVC\14.29.30133\atlmfc\include\afxtempl.h
; File D:\git\src\IBK\IBK_DRFN\ProjSrc\SrcChartEx\ChartAddIn\ChartDataListViewerAddIn\ChartDataListViewerAddIn\DlgDataSimulator.cpp
; File C:\Program Files (x86)\Microsoft Visual Studio\2019\Community\VC\Tools\MSVC\14.29.30133\atlmfc\include\cstringt.h
; File D:\git\src\IBK\IBK_DRFN\ProjSrc\SrcChartEx\ChartAddIn\ChartDataListViewerAddIn\ChartDataListViewerAddIn\DlgDataSimulator.cpp
; File C:\Program Files (x86)\Microsoft Visual Studio\2019\Community\VC\Tools\MSVC\14.29.30133\atlmfc\include\atltime.h
; File D:\git\src\IBK\IBK_DRFN\ProjSrc\SrcChartEx\ChartAddIn\ChartDataListViewerAddIn\ChartDataListViewerAddIn\DlgDataSimulator.cpp
; File C:\Program Files (x86)\Microsoft Visual Studio\2019\Community\VC\Tools\MSVC\14.29.30133\atlmfc\include\atltime.h
; File D:\git\src\IBK\IBK_DRFN\ProjSrc\SrcChartEx\ChartAddIn\ChartDataListViewerAddIn\ChartDataListViewerAddIn\DlgDataSimulator.cpp
; File C:\Program Files (x86)\Microsoft Visual Studio\2019\Community\VC\Tools\MSVC\14.29.30133\atlmfc\include\atltime.h
; File D:\git\src\IBK\IBK_DRFN\ProjSrc\SrcChartEx\ChartAddIn\ChartDataListViewerAddIn\ChartDataListViewerAddIn\DlgDataSimulator.cpp
; File C:\Program Files (x86)\Microsoft Visual Studio\2019\Community\VC\Tools\MSVC\14.29.30133\atlmfc\include\afxtempl.h
; File D:\git\src\IBK\IBK_DRFN\ProjSrc\SrcChartEx\ChartAddIn\ChartDataListViewerAddIn\ChartDataListViewerAddIn\DlgDataSimulator.cpp
; File C:\Program Files (x86)\Microsoft Visual Studio\2019\Community\VC\Tools\MSVC\14.29.30133\atlmfc\include\cstringt.h
; File D:\git\src\IBK\IBK_DRFN\ProjSrc\SrcChartEx\ChartAddIn\ChartDataListViewerAddIn\ChartDataListViewerAddIn\DlgDataSimulator.cpp
; File C:\Program Files (x86)\Microsoft Visual Studio\2019\Community\VC\Tools\MSVC\14.29.30133\atlmfc\include\afxwin1.inl
; File D:\git\src\IBK\IBK_DRFN\ProjSrc\SrcChartEx\ChartAddIn\ChartDataListViewerAddIn\Include_Chart\DLL_Load\IMetaTable.h
; File C:\Program Files (x86)\Microsoft Visual Studio\2019\Community\VC\Tools\MSVC\14.29.30133\atlmfc\include\afxwin1.inl
; File D:\git\src\IBK\IBK_DRFN\ProjSrc\SrcChartEx\ChartAddIn\ChartDataListViewerAddIn\ChartDataListViewerAddIn\DlgDataSimulator.cpp
; File D:\git\src\IBK\IBK_DRFN\ProjSrc\SrcChartEx\ChartAddIn\ChartDataListViewerAddIn\Include_Chart\DLL_Load\IMetaTable.h
; File C:\Program Files (x86)\Microsoft Visual Studio\2019\Community\VC\Tools\MSVC\14.29.30133\atlmfc\include\afxwin1.inl
; File D:\git\src\IBK\IBK_DRFN\ProjSrc\SrcChartEx\ChartAddIn\ChartDataListViewerAddIn\ChartDataListViewerAddIn\DlgDataSimulator.cpp
; File C:\Program Files (x86)\Microsoft Visual Studio\2019\Community\VC\Tools\MSVC\14.29.30133\atlmfc\include\afxwin1.inl
; File D:\git\src\IBK\IBK_DRFN\ProjSrc\SrcChartEx\ChartAddIn\ChartDataListViewerAddIn\ChartDataListViewerAddIn\DlgDataSimulator.cpp
;	COMDAT ?OnBtnOk@CDlgDataSimulator@@IAEXXZ
_TEXT	SEGMENT
_time$2 = -36						; size = 8
_time$3 = -36						; size = 8
_time$4 = -36						; size = 8
_nY$1$ = -28						; size = 4
_nY$1$ = -28						; size = 4
_nY$1$ = -28						; size = 4
_strMsg$5 = -28						; size = 4
_this$1$ = -24						; size = 4
_nM$1$ = -20						; size = 4
_nM$1$ = -20						; size = 4
_strTitle$6 = -20					; size = 4
_strPrevDateTime$7 = -16				; size = 4
_strPrevDateTime$8 = -16				; size = 4
_strPrevDateTime$9 = -16				; size = 4
___mlrs__$10 = -16					; size = 4
__$EHRec$ = -12						; size = 12
?OnBtnOk@CDlgDataSimulator@@IAEXXZ PROC			; CDlgDataSimulator::OnBtnOk, COMDAT
; _this$ = ecx

; 1154 : {

  00000	55		 push	 ebp
  00001	8b ec		 mov	 ebp, esp
  00003	6a ff		 push	 -1
  00005	68 00 00 00 00	 push	 __ehhandler$?OnBtnOk@CDlgDataSimulator@@IAEXXZ
  0000a	64 a1 00 00 00
	00		 mov	 eax, DWORD PTR fs:0
  00010	50		 push	 eax
  00011	83 ec 18	 sub	 esp, 24			; 00000018H
  00014	53		 push	 ebx
  00015	56		 push	 esi
  00016	57		 push	 edi
  00017	a1 00 00 00 00	 mov	 eax, DWORD PTR ___security_cookie
  0001c	33 c5		 xor	 eax, ebp
  0001e	50		 push	 eax
  0001f	8d 45 f4	 lea	 eax, DWORD PTR __$EHRec$[ebp]
  00022	64 a3 00 00 00
	00		 mov	 DWORD PTR fs:0, eax
  00028	8b f9		 mov	 edi, ecx
  0002a	89 7d e8	 mov	 DWORD PTR _this$1$[ebp], edi

; 1155 : 	if(!m_pChartDataGridManager || m_pChartDataGridManager->m_ChartDataList.GetCount() <= 0)

  0002d	8b 87 38 05 00
	00		 mov	 eax, DWORD PTR [edi+1336]
  00033	85 c0		 test	 eax, eax
  00035	0f 84 ce 02 00
	00		 je	 $LN14@OnBtnOk
  0003b	83 78 38 00	 cmp	 DWORD PTR [eax+56], 0
  0003f	0f 8e c4 02 00
	00		 jle	 $LN14@OnBtnOk

; 1168 : 	}
; 1169 : 
; 1170 : 	m_strLastDateTime = "99999999999999";

  00045	8d 9f 60 05 00
	00		 lea	 ebx, DWORD PTR [edi+1376]
  0004b	68 00 00 00 00	 push	 OFFSET ??_C@_0P@FLGGHACJ@99999999999999@
  00050	8b cb		 mov	 ecx, ebx
  00052	ff 15 00 00 00
	00		 call	 DWORD PTR __imp_??4?$CStringT@DV?$StrTraitMFC_DLL@DV?$ChTraitsCRT@D@ATL@@@@@ATL@@QAEAAV01@PBD@Z

; 1171 : 
; 1172 : 	switch(m_pChartDataGridManager->m_nDataType)

  00058	8b 8f 38 05 00
	00		 mov	 ecx, DWORD PTR [edi+1336]
  0005e	8b 41 0c	 mov	 eax, DWORD PTR [ecx+12]
  00061	83 f8 04	 cmp	 eax, 4
  00064	0f 87 86 02 00
	00		 ja	 $LN2@OnBtnOk
  0006a	ff 24 85 00 00
	00 00		 jmp	 DWORD PTR $LN112@OnBtnOk[eax*4]
$LN17@OnBtnOk:

; 1173 : 	{
; 1174 : 	case DAY_TYPE: case WEEK_TYPE:
; 1175 : 		{
; 1176 : 			POSITION pos = m_pChartDataGridManager->m_ChartDataList.GetTailPosition();

  00071	8b 41 34	 mov	 eax, DWORD PTR [ecx+52]

; 1177 : 			if(pos)

  00074	85 c0		 test	 eax, eax
  00076	0f 84 74 02 00
	00		 je	 $LN2@OnBtnOk

; 1178 : 			{
; 1179 : 				CChartRecordSet * pRecord = m_pChartDataGridManager->m_ChartDataList.GetAt(pos);
; 1180 : 				m_strLastDateTime.Format("%s240000", pRecord->m_Data[DATE_TIME]);

  0007c	8b 40 08	 mov	 eax, DWORD PTR [eax+8]
  0007f	ff 30		 push	 DWORD PTR [eax]
  00081	68 00 00 00 00	 push	 OFFSET ??_C@_08PJHPNIEK@?$CFs240000@
  00086	53		 push	 ebx
  00087	ff 15 00 00 00
	00		 call	 DWORD PTR __imp_?Format@?$CStringT@DV?$StrTraitMFC_DLL@DV?$ChTraitsCRT@D@ATL@@@@@ATL@@QAAXPBDZZ
  0008d	83 c4 0c	 add	 esp, 12			; 0000000cH

; 1280 : 				}
; 1281 : 			}
; 1282 : 			m_strLastDateTime.Format("%04d%02d%s", nY, nM, strPrevDateTime);
; 1283 : 		}
; 1284 : 		break;
; 1285 : 	}
; 1286 : 
; 1287 : 	CDialog::OnOK();	

  00090	8b cf		 mov	 ecx, edi
  00092	e8 00 00 00 00	 call	 ?OnOK@CDialog@@MAEXXZ	; CDialog::OnOK

; 1288 : }

  00097	8b 4d f4	 mov	 ecx, DWORD PTR __$EHRec$[ebp]
  0009a	64 89 0d 00 00
	00 00		 mov	 DWORD PTR fs:0, ecx
  000a1	59		 pop	 ecx
  000a2	5f		 pop	 edi
  000a3	5e		 pop	 esi
  000a4	5b		 pop	 ebx
  000a5	8b e5		 mov	 esp, ebp
  000a7	5d		 pop	 ebp
  000a8	c3		 ret	 0
$LN20@OnBtnOk:

; 1181 : 			}
; 1182 : 		}
; 1183 : 		break;
; 1184 : 	case MONTH_TYPE:
; 1185 : 		{
; 1186 : 			POSITION pos = m_pChartDataGridManager->m_ChartDataList.GetTailPosition();

  000a9	8b 41 34	 mov	 eax, DWORD PTR [ecx+52]

; 1187 : 			if(pos)

  000ac	85 c0		 test	 eax, eax
  000ae	0f 84 3c 02 00
	00		 je	 $LN2@OnBtnOk

; 1188 : 			{
; 1189 : 				CChartRecordSet * pRecord = m_pChartDataGridManager->m_ChartDataList.GetAt(pos);
; 1190 : 				m_strLastDateTime.Format("%s31240000", pRecord->m_Data[DATE_TIME]);

  000b4	8b 40 08	 mov	 eax, DWORD PTR [eax+8]
  000b7	ff 30		 push	 DWORD PTR [eax]
  000b9	68 00 00 00 00	 push	 OFFSET ??_C@_0L@CKCGJOGN@?$CFs31240000@
  000be	53		 push	 ebx
  000bf	ff 15 00 00 00
	00		 call	 DWORD PTR __imp_?Format@?$CStringT@DV?$StrTraitMFC_DLL@DV?$ChTraitsCRT@D@ATL@@@@@ATL@@QAAXPBDZZ
  000c5	83 c4 0c	 add	 esp, 12			; 0000000cH

; 1280 : 				}
; 1281 : 			}
; 1282 : 			m_strLastDateTime.Format("%04d%02d%s", nY, nM, strPrevDateTime);
; 1283 : 		}
; 1284 : 		break;
; 1285 : 	}
; 1286 : 
; 1287 : 	CDialog::OnOK();	

  000c8	8b cf		 mov	 ecx, edi
  000ca	e8 00 00 00 00	 call	 ?OnOK@CDialog@@MAEXXZ	; CDialog::OnOK

; 1288 : }

  000cf	8b 4d f4	 mov	 ecx, DWORD PTR __$EHRec$[ebp]
  000d2	64 89 0d 00 00
	00 00		 mov	 DWORD PTR fs:0, ecx
  000d9	59		 pop	 ecx
  000da	5f		 pop	 edi
  000db	5e		 pop	 esi
  000dc	5b		 pop	 ebx
  000dd	8b e5		 mov	 esp, ebp
  000df	5d		 pop	 ebp
  000e0	c3		 ret	 0
$LN22@OnBtnOk:

; 1196 : 			if(m_pChartDataGridManager->m_strDateTime == "DDHHMMSS")

  000e1	83 c1 08	 add	 ecx, 8
; File C:\Program Files (x86)\Microsoft Visual Studio\2019\Community\VC\Tools\MSVC\14.29.30133\atlmfc\include\cstringt.h

; 2486 : 		return(str1.Compare(psz2) == 0);

  000e4	68 00 00 00 00	 push	 OFFSET ??_C@_08JFMBEEDE@DDHHMMSS@
  000e9	ff 15 00 00 00
	00		 call	 DWORD PTR __imp_?Compare@?$CStringT@DV?$StrTraitMFC_DLL@DV?$ChTraitsCRT@D@ATL@@@@@ATL@@QBEHPBD@Z
; File D:\git\src\IBK\IBK_DRFN\ProjSrc\SrcChartEx\ChartAddIn\ChartDataListViewerAddIn\ChartDataListViewerAddIn\DlgDataSimulator.cpp

; 1196 : 			if(m_pChartDataGridManager->m_strDateTime == "DDHHMMSS")

  000ef	8d 4d f0	 lea	 ecx, DWORD PTR _strPrevDateTime$9[ebp]
; File C:\Program Files (x86)\Microsoft Visual Studio\2019\Community\VC\Tools\MSVC\14.29.30133\atlmfc\include\cstringt.h

; 2486 : 		return(str1.Compare(psz2) == 0);

  000f2	85 c0		 test	 eax, eax
; File D:\git\src\IBK\IBK_DRFN\ProjSrc\SrcChartEx\ChartAddIn\ChartDataListViewerAddIn\ChartDataListViewerAddIn\DlgDataSimulator.cpp

; 1196 : 			if(m_pChartDataGridManager->m_strDateTime == "DDHHMMSS")

  000f4	0f 85 a2 00 00
	00		 jne	 $LN23@OnBtnOk

; 1200 : 				CString strPrevDateTime;

  000fa	ff 15 00 00 00
	00		 call	 DWORD PTR __imp_??0?$CStringT@DV?$StrTraitMFC_DLL@DV?$ChTraitsCRT@D@ATL@@@@@ATL@@QAE@XZ
; File C:\Program Files (x86)\Microsoft Visual Studio\2019\Community\VC\Tools\MSVC\14.29.30133\atlmfc\include\atltime.h

; 374  : 	return( CTime( ::_time64( NULL ) ) );

  00100	6a 00		 push	 0
; File D:\git\src\IBK\IBK_DRFN\ProjSrc\SrcChartEx\ChartAddIn\ChartDataListViewerAddIn\ChartDataListViewerAddIn\DlgDataSimulator.cpp

; 1200 : 				CString strPrevDateTime;

  00102	c7 45 fc 06 00
	00 00		 mov	 DWORD PTR __$EHRec$[ebp+8], 6
; File C:\Program Files (x86)\Microsoft Visual Studio\2019\Community\VC\Tools\MSVC\14.29.30133\atlmfc\include\atltime.h

; 374  : 	return( CTime( ::_time64( NULL ) ) );

  00109	ff 15 00 00 00
	00		 call	 DWORD PTR __imp___time64
  0010f	83 c4 04	 add	 esp, 4

; 417  : 	m_time( time )

  00112	89 45 dc	 mov	 DWORD PTR _time$4[ebp], eax
; File D:\git\src\IBK\IBK_DRFN\ProjSrc\SrcChartEx\ChartAddIn\ChartDataListViewerAddIn\ChartDataListViewerAddIn\DlgDataSimulator.cpp

; 1202 : 				nY = time.GetYear(); nM = time.GetMonth();

  00115	8d 4d dc	 lea	 ecx, DWORD PTR _time$4[ebp]
; File C:\Program Files (x86)\Microsoft Visual Studio\2019\Community\VC\Tools\MSVC\14.29.30133\atlmfc\include\atltime.h

; 417  : 	m_time( time )

  00118	89 55 e0	 mov	 DWORD PTR _time$4[ebp+4], edx
; File D:\git\src\IBK\IBK_DRFN\ProjSrc\SrcChartEx\ChartAddIn\ChartDataListViewerAddIn\ChartDataListViewerAddIn\DlgDataSimulator.cpp

; 1202 : 				nY = time.GetYear(); nM = time.GetMonth();

  0011b	e8 00 00 00 00	 call	 ?GetYear@CTime@ATL@@QBEHXZ ; ATL::CTime::GetYear
  00120	8d 4d dc	 lea	 ecx, DWORD PTR _time$4[ebp]
  00123	89 45 e4	 mov	 DWORD PTR _nY$1$[ebp], eax
  00126	e8 00 00 00 00	 call	 ?GetMonth@CTime@ATL@@QBEHXZ ; ATL::CTime::GetMonth

; 1203 : 				for(i = 0 , pos = m_pChartDataGridManager->m_ChartDataList.GetHeadPosition(); pos ; i++ )

  0012b	8b 8f 38 05 00
	00		 mov	 ecx, DWORD PTR [edi+1336]
  00131	33 db		 xor	 ebx, ebx
  00133	89 45 ec	 mov	 DWORD PTR _nM$1$[ebp], eax
  00136	8b 71 30	 mov	 esi, DWORD PTR [ecx+48]
  00139	85 f6		 test	 esi, esi
  0013b	0f 84 83 01 00
	00		 je	 $LN11@OnBtnOk
$LL6@OnBtnOk:

; 1204 : 				{
; 1205 : 					CChartRecordSet * pRecordSet = m_pChartDataGridManager->m_ChartDataList.GetNext(pos);

  00141	8b 7e 08	 mov	 edi, DWORD PTR [esi+8]

; 1206 : 					if( i == 0 )

  00144	8d 4d f0	 lea	 ecx, DWORD PTR _strPrevDateTime$9[ebp]
; File C:\Program Files (x86)\Microsoft Visual Studio\2019\Community\VC\Tools\MSVC\14.29.30133\atlmfc\include\afxtempl.h

; 813  : 		rPosition = (POSITION) pNode->pNext;

  00147	8b 36		 mov	 esi, DWORD PTR [esi]
; File D:\git\src\IBK\IBK_DRFN\ProjSrc\SrcChartEx\ChartAddIn\ChartDataListViewerAddIn\ChartDataListViewerAddIn\DlgDataSimulator.cpp

; 1206 : 					if( i == 0 )

  00149	85 db		 test	 ebx, ebx
  0014b	74 3e		 je	 SHORT $LN114@OnBtnOk
; File C:\Program Files (x86)\Microsoft Visual Studio\2019\Community\VC\Tools\MSVC\14.29.30133\atlmfc\include\cstringt.h

; 2622 : 		return( str1.Compare( str2 ) > 0 );

  0014d	ff 37		 push	 DWORD PTR [edi]
  0014f	ff 15 00 00 00
	00		 call	 DWORD PTR __imp_?Compare@?$CStringT@DV?$StrTraitMFC_DLL@DV?$ChTraitsCRT@D@ATL@@@@@ATL@@QBEHPBD@Z
  00155	85 c0		 test	 eax, eax
; File D:\git\src\IBK\IBK_DRFN\ProjSrc\SrcChartEx\ChartAddIn\ChartDataListViewerAddIn\ChartDataListViewerAddIn\DlgDataSimulator.cpp

; 1212 : 						if(strPrevDateTime > pRecordSet->m_Data[DATE_TIME])

  00157	7e 2f		 jle	 SHORT $LN27@OnBtnOk

; 1213 : 						{
; 1214 : 							int nAddMonth, nAddYear;						
; 1215 : 							nAddMonth	= ( nM + 1 ) % 12; 

  00159	8b 45 ec	 mov	 eax, DWORD PTR _nM$1$[ebp]
  0015c	b9 0c 00 00 00	 mov	 ecx, 12			; 0000000cH
  00161	40		 inc	 eax
  00162	99		 cdq
  00163	f7 f9		 idiv	 ecx

; 1216 : 							nAddMonth	= ( nAddMonth == 0) ? 12 : nAddMonth;

  00165	b8 0c 00 00 00	 mov	 eax, 12			; 0000000cH
  0016a	8b ca		 mov	 ecx, edx
  0016c	85 c9		 test	 ecx, ecx
  0016e	0f 44 c8	 cmove	 ecx, eax

; 1217 : 							nAddYear	= ( nM ) / 12 + nY;						

  00171	b8 ab aa aa 2a	 mov	 eax, 715827883		; 2aaaaaabH
  00176	f7 6d ec	 imul	 DWORD PTR _nM$1$[ebp]

; 1218 : 							nY			= nAddYear;
; 1219 : 							nM			= nAddMonth;

  00179	89 4d ec	 mov	 DWORD PTR _nM$1$[ebp], ecx
  0017c	d1 fa		 sar	 edx, 1
  0017e	8b c2		 mov	 eax, edx
  00180	c1 e8 1f	 shr	 eax, 31			; 0000001fH
  00183	03 c2		 add	 eax, edx
  00185	01 45 e4	 add	 DWORD PTR _nY$1$[ebp], eax
$LN27@OnBtnOk:

; 1220 : 						}
; 1221 : 
; 1222 : 						strPrevDateTime = pRecordSet->m_Data[DATE_TIME];

  00188	8d 4d f0	 lea	 ecx, DWORD PTR _strPrevDateTime$9[ebp]
$LN114@OnBtnOk:

; 1203 : 				for(i = 0 , pos = m_pChartDataGridManager->m_ChartDataList.GetHeadPosition(); pos ; i++ )

  0018b	57		 push	 edi
  0018c	ff 15 00 00 00
	00		 call	 DWORD PTR __imp_??4?$CStringT@DV?$StrTraitMFC_DLL@DV?$ChTraitsCRT@D@ATL@@@@@ATL@@QAEAAV01@ABV01@@Z
  00192	43		 inc	 ebx
  00193	85 f6		 test	 esi, esi
  00195	75 aa		 jne	 SHORT $LL6@OnBtnOk

; 1223 : 					}
; 1224 : 				}
; 1225 : 				m_strLastDateTime.Format("%04d%02d%s", nY, nM, strPrevDateTime);
; 1226 : 			}

  00197	e9 22 01 00 00	 jmp	 $LN115@OnBtnOk
$LN23@OnBtnOk:

; 1231 : 				CString strPrevDateTime;

  0019c	ff 15 00 00 00
	00		 call	 DWORD PTR __imp_??0?$CStringT@DV?$StrTraitMFC_DLL@DV?$ChTraitsCRT@D@ATL@@@@@ATL@@QAE@XZ
; File C:\Program Files (x86)\Microsoft Visual Studio\2019\Community\VC\Tools\MSVC\14.29.30133\atlmfc\include\atltime.h

; 374  : 	return( CTime( ::_time64( NULL ) ) );

  001a2	6a 00		 push	 0
; File D:\git\src\IBK\IBK_DRFN\ProjSrc\SrcChartEx\ChartAddIn\ChartDataListViewerAddIn\ChartDataListViewerAddIn\DlgDataSimulator.cpp

; 1231 : 				CString strPrevDateTime;

  001a4	c7 45 fc 07 00
	00 00		 mov	 DWORD PTR __$EHRec$[ebp+8], 7
; File C:\Program Files (x86)\Microsoft Visual Studio\2019\Community\VC\Tools\MSVC\14.29.30133\atlmfc\include\atltime.h

; 374  : 	return( CTime( ::_time64( NULL ) ) );

  001ab	ff 15 00 00 00
	00		 call	 DWORD PTR __imp___time64
  001b1	83 c4 04	 add	 esp, 4

; 417  : 	m_time( time )

  001b4	89 45 dc	 mov	 DWORD PTR _time$3[ebp], eax
; File D:\git\src\IBK\IBK_DRFN\ProjSrc\SrcChartEx\ChartAddIn\ChartDataListViewerAddIn\ChartDataListViewerAddIn\DlgDataSimulator.cpp

; 1233 : 				nY = time.GetYear();

  001b7	8d 4d dc	 lea	 ecx, DWORD PTR _time$3[ebp]
; File C:\Program Files (x86)\Microsoft Visual Studio\2019\Community\VC\Tools\MSVC\14.29.30133\atlmfc\include\atltime.h

; 417  : 	m_time( time )

  001ba	89 55 e0	 mov	 DWORD PTR _time$3[ebp+4], edx
; File D:\git\src\IBK\IBK_DRFN\ProjSrc\SrcChartEx\ChartAddIn\ChartDataListViewerAddIn\ChartDataListViewerAddIn\DlgDataSimulator.cpp

; 1233 : 				nY = time.GetYear();

  001bd	e8 00 00 00 00	 call	 ?GetYear@CTime@ATL@@QBEHXZ ; ATL::CTime::GetYear

; 1234 : 				for(i = 0 , pos = m_pChartDataGridManager->m_ChartDataList.GetHeadPosition(); pos ; i++ )

  001c2	8b 8f 38 05 00
	00		 mov	 ecx, DWORD PTR [edi+1336]
  001c8	33 db		 xor	 ebx, ebx
  001ca	89 45 e4	 mov	 DWORD PTR _nY$1$[ebp], eax
  001cd	8b 71 30	 mov	 esi, DWORD PTR [ecx+48]
  001d0	85 f6		 test	 esi, esi
  001d2	74 30		 je	 SHORT $LN8@OnBtnOk
$LL9@OnBtnOk:

; 1235 : 				{
; 1236 : 					CChartRecordSet * pRecordSet = m_pChartDataGridManager->m_ChartDataList.GetNext(pos);

  001d4	8b 7e 08	 mov	 edi, DWORD PTR [esi+8]

; 1237 : 					if( i == 0 )

  001d7	8d 4d f0	 lea	 ecx, DWORD PTR _strPrevDateTime$8[ebp]
; File C:\Program Files (x86)\Microsoft Visual Studio\2019\Community\VC\Tools\MSVC\14.29.30133\atlmfc\include\afxtempl.h

; 813  : 		rPosition = (POSITION) pNode->pNext;

  001da	8b 36		 mov	 esi, DWORD PTR [esi]
; File D:\git\src\IBK\IBK_DRFN\ProjSrc\SrcChartEx\ChartAddIn\ChartDataListViewerAddIn\ChartDataListViewerAddIn\DlgDataSimulator.cpp

; 1237 : 					if( i == 0 )

  001dc	85 db		 test	 ebx, ebx
  001de	74 12		 je	 SHORT $LN116@OnBtnOk
; File C:\Program Files (x86)\Microsoft Visual Studio\2019\Community\VC\Tools\MSVC\14.29.30133\atlmfc\include\cstringt.h

; 2622 : 		return( str1.Compare( str2 ) > 0 );

  001e0	ff 37		 push	 DWORD PTR [edi]
  001e2	ff 15 00 00 00
	00		 call	 DWORD PTR __imp_?Compare@?$CStringT@DV?$StrTraitMFC_DLL@DV?$ChTraitsCRT@D@ATL@@@@@ATL@@QBEHPBD@Z
  001e8	85 c0		 test	 eax, eax
; File D:\git\src\IBK\IBK_DRFN\ProjSrc\SrcChartEx\ChartAddIn\ChartDataListViewerAddIn\ChartDataListViewerAddIn\DlgDataSimulator.cpp

; 1243 : 						if(strPrevDateTime > pRecordSet->m_Data[DATE_TIME])

  001ea	7e 03		 jle	 SHORT $LN30@OnBtnOk

; 1244 : 							nY++;

  001ec	ff 45 e4	 inc	 DWORD PTR _nY$1$[ebp]
$LN30@OnBtnOk:

; 1245 : 
; 1246 : 						strPrevDateTime = pRecordSet->m_Data[DATE_TIME];

  001ef	8d 4d f0	 lea	 ecx, DWORD PTR _strPrevDateTime$8[ebp]
$LN116@OnBtnOk:

; 1234 : 				for(i = 0 , pos = m_pChartDataGridManager->m_ChartDataList.GetHeadPosition(); pos ; i++ )

  001f2	57		 push	 edi
  001f3	ff 15 00 00 00
	00		 call	 DWORD PTR __imp_??4?$CStringT@DV?$StrTraitMFC_DLL@DV?$ChTraitsCRT@D@ATL@@@@@ATL@@QAEAAV01@ABV01@@Z
  001f9	43		 inc	 ebx
  001fa	85 f6		 test	 esi, esi
  001fc	75 d6		 jne	 SHORT $LL9@OnBtnOk
  001fe	8b 45 e4	 mov	 eax, DWORD PTR _nY$1$[ebp]
  00201	8b 7d e8	 mov	 edi, DWORD PTR _this$1$[ebp]
$LN8@OnBtnOk:

; 1247 : 					}
; 1248 : 				}
; 1249 : 				m_strLastDateTime.Format("%04d%s00", nY, strPrevDateTime);

  00204	ff 75 f0	 push	 DWORD PTR _strPrevDateTime$8[ebp]
  00207	50		 push	 eax
  00208	8d 87 60 05 00
	00		 lea	 eax, DWORD PTR [edi+1376]
  0020e	68 00 00 00 00	 push	 OFFSET ??_C@_08BAJCMPKI@?$CF04d?$CFs00@
  00213	50		 push	 eax
  00214	ff 15 00 00 00
	00		 call	 DWORD PTR __imp_?Format@?$CStringT@DV?$StrTraitMFC_DLL@DV?$ChTraitsCRT@D@ATL@@@@@ATL@@QAAXPBDZZ
  0021a	83 c4 10	 add	 esp, 16			; 00000010H

; 1250 : 			}
; 1251 : 		}
; 1252 : 		break;

  0021d	e9 be 00 00 00	 jmp	 $LN117@OnBtnOk
$LN31@OnBtnOk:

; 1257 : 			CString strPrevDateTime;

  00222	8d 4d f0	 lea	 ecx, DWORD PTR _strPrevDateTime$7[ebp]
  00225	ff 15 00 00 00
	00		 call	 DWORD PTR __imp_??0?$CStringT@DV?$StrTraitMFC_DLL@DV?$ChTraitsCRT@D@ATL@@@@@ATL@@QAE@XZ
; File C:\Program Files (x86)\Microsoft Visual Studio\2019\Community\VC\Tools\MSVC\14.29.30133\atlmfc\include\atltime.h

; 374  : 	return( CTime( ::_time64( NULL ) ) );

  0022b	6a 00		 push	 0
; File D:\git\src\IBK\IBK_DRFN\ProjSrc\SrcChartEx\ChartAddIn\ChartDataListViewerAddIn\ChartDataListViewerAddIn\DlgDataSimulator.cpp

; 1257 : 			CString strPrevDateTime;

  0022d	c7 45 fc 08 00
	00 00		 mov	 DWORD PTR __$EHRec$[ebp+8], 8
; File C:\Program Files (x86)\Microsoft Visual Studio\2019\Community\VC\Tools\MSVC\14.29.30133\atlmfc\include\atltime.h

; 374  : 	return( CTime( ::_time64( NULL ) ) );

  00234	ff 15 00 00 00
	00		 call	 DWORD PTR __imp___time64
  0023a	83 c4 04	 add	 esp, 4

; 417  : 	m_time( time )

  0023d	89 45 dc	 mov	 DWORD PTR _time$2[ebp], eax
; File D:\git\src\IBK\IBK_DRFN\ProjSrc\SrcChartEx\ChartAddIn\ChartDataListViewerAddIn\ChartDataListViewerAddIn\DlgDataSimulator.cpp

; 1259 : 			nY = time.GetYear(); nM = time.GetMonth();

  00240	8d 4d dc	 lea	 ecx, DWORD PTR _time$2[ebp]
; File C:\Program Files (x86)\Microsoft Visual Studio\2019\Community\VC\Tools\MSVC\14.29.30133\atlmfc\include\atltime.h

; 417  : 	m_time( time )

  00243	89 55 e0	 mov	 DWORD PTR _time$2[ebp+4], edx
; File D:\git\src\IBK\IBK_DRFN\ProjSrc\SrcChartEx\ChartAddIn\ChartDataListViewerAddIn\ChartDataListViewerAddIn\DlgDataSimulator.cpp

; 1259 : 			nY = time.GetYear(); nM = time.GetMonth();

  00246	e8 00 00 00 00	 call	 ?GetYear@CTime@ATL@@QBEHXZ ; ATL::CTime::GetYear
  0024b	8d 4d dc	 lea	 ecx, DWORD PTR _time$2[ebp]
  0024e	89 45 e4	 mov	 DWORD PTR _nY$1$[ebp], eax
  00251	e8 00 00 00 00	 call	 ?GetMonth@CTime@ATL@@QBEHXZ ; ATL::CTime::GetMonth

; 1260 : 			for(i = 0 , pos = m_pChartDataGridManager->m_ChartDataList.GetHeadPosition(); pos ; i++ )

  00256	8b 8f 38 05 00
	00		 mov	 ecx, DWORD PTR [edi+1336]
  0025c	33 db		 xor	 ebx, ebx
  0025e	89 45 ec	 mov	 DWORD PTR _nM$1$[ebp], eax
  00261	8b 71 30	 mov	 esi, DWORD PTR [ecx+48]
  00264	85 f6		 test	 esi, esi
  00266	74 5c		 je	 SHORT $LN11@OnBtnOk
$LL12@OnBtnOk:

; 1261 : 			{
; 1262 : 				CChartRecordSet * pRecordSet = m_pChartDataGridManager->m_ChartDataList.GetNext(pos);

  00268	8b 7e 08	 mov	 edi, DWORD PTR [esi+8]

; 1263 : 				if( i == 0 )

  0026b	8d 4d f0	 lea	 ecx, DWORD PTR _strPrevDateTime$7[ebp]
; File C:\Program Files (x86)\Microsoft Visual Studio\2019\Community\VC\Tools\MSVC\14.29.30133\atlmfc\include\afxtempl.h

; 813  : 		rPosition = (POSITION) pNode->pNext;

  0026e	8b 36		 mov	 esi, DWORD PTR [esi]
; File D:\git\src\IBK\IBK_DRFN\ProjSrc\SrcChartEx\ChartAddIn\ChartDataListViewerAddIn\ChartDataListViewerAddIn\DlgDataSimulator.cpp

; 1263 : 				if( i == 0 )

  00270	85 db		 test	 ebx, ebx
  00272	74 3e		 je	 SHORT $LN118@OnBtnOk
; File C:\Program Files (x86)\Microsoft Visual Studio\2019\Community\VC\Tools\MSVC\14.29.30133\atlmfc\include\cstringt.h

; 2622 : 		return( str1.Compare( str2 ) > 0 );

  00274	ff 37		 push	 DWORD PTR [edi]
  00276	ff 15 00 00 00
	00		 call	 DWORD PTR __imp_?Compare@?$CStringT@DV?$StrTraitMFC_DLL@DV?$ChTraitsCRT@D@ATL@@@@@ATL@@QBEHPBD@Z
  0027c	85 c0		 test	 eax, eax
; File D:\git\src\IBK\IBK_DRFN\ProjSrc\SrcChartEx\ChartAddIn\ChartDataListViewerAddIn\ChartDataListViewerAddIn\DlgDataSimulator.cpp

; 1269 : 					if(strPrevDateTime > pRecordSet->m_Data[DATE_TIME])

  0027e	7e 2f		 jle	 SHORT $LN34@OnBtnOk

; 1270 : 					{
; 1271 : 						int nAddMonth, nAddYear;						
; 1272 : 						nAddMonth	= ( nM + 1 ) % 12; 

  00280	8b 45 ec	 mov	 eax, DWORD PTR _nM$1$[ebp]
  00283	b9 0c 00 00 00	 mov	 ecx, 12			; 0000000cH
  00288	40		 inc	 eax
  00289	99		 cdq
  0028a	f7 f9		 idiv	 ecx

; 1273 : 						nAddMonth	= ( nAddMonth == 0) ? 12 : nAddMonth;

  0028c	b8 0c 00 00 00	 mov	 eax, 12			; 0000000cH
  00291	8b ca		 mov	 ecx, edx
  00293	85 c9		 test	 ecx, ecx
  00295	0f 44 c8	 cmove	 ecx, eax

; 1274 : 						nAddYear	= ( nM ) / 12 + nY;						

  00298	b8 ab aa aa 2a	 mov	 eax, 715827883		; 2aaaaaabH
  0029d	f7 6d ec	 imul	 DWORD PTR _nM$1$[ebp]

; 1275 : 						nY			= nAddYear;
; 1276 : 						nM			= nAddMonth;

  002a0	89 4d ec	 mov	 DWORD PTR _nM$1$[ebp], ecx
  002a3	d1 fa		 sar	 edx, 1
  002a5	8b c2		 mov	 eax, edx
  002a7	c1 e8 1f	 shr	 eax, 31			; 0000001fH
  002aa	03 c2		 add	 eax, edx
  002ac	01 45 e4	 add	 DWORD PTR _nY$1$[ebp], eax
$LN34@OnBtnOk:

; 1277 : 					}
; 1278 : 
; 1279 : 					strPrevDateTime = pRecordSet->m_Data[DATE_TIME];

  002af	8d 4d f0	 lea	 ecx, DWORD PTR _strPrevDateTime$7[ebp]
$LN118@OnBtnOk:

; 1260 : 			for(i = 0 , pos = m_pChartDataGridManager->m_ChartDataList.GetHeadPosition(); pos ; i++ )

  002b2	57		 push	 edi
  002b3	ff 15 00 00 00
	00		 call	 DWORD PTR __imp_??4?$CStringT@DV?$StrTraitMFC_DLL@DV?$ChTraitsCRT@D@ATL@@@@@ATL@@QAEAAV01@ABV01@@Z
  002b9	43		 inc	 ebx
  002ba	85 f6		 test	 esi, esi
  002bc	75 aa		 jne	 SHORT $LL12@OnBtnOk
$LN115@OnBtnOk:

; 1280 : 				}
; 1281 : 			}
; 1282 : 			m_strLastDateTime.Format("%04d%02d%s", nY, nM, strPrevDateTime);
; 1283 : 		}
; 1284 : 		break;
; 1285 : 	}
; 1286 : 
; 1287 : 	CDialog::OnOK();	

  002be	8b 7d e8	 mov	 edi, DWORD PTR _this$1$[ebp]
  002c1	8b 45 ec	 mov	 eax, DWORD PTR _nM$1$[ebp]
$LN11@OnBtnOk:
  002c4	ff 75 f0	 push	 DWORD PTR _strPrevDateTime$7[ebp]
  002c7	50		 push	 eax
  002c8	ff 75 e4	 push	 DWORD PTR _nY$1$[ebp]
  002cb	8d 87 60 05 00
	00		 lea	 eax, DWORD PTR [edi+1376]
  002d1	68 00 00 00 00	 push	 OFFSET ??_C@_0L@OAPCOEDL@?$CF04d?$CF02d?$CFs@
  002d6	50		 push	 eax
  002d7	ff 15 00 00 00
	00		 call	 DWORD PTR __imp_?Format@?$CStringT@DV?$StrTraitMFC_DLL@DV?$ChTraitsCRT@D@ATL@@@@@ATL@@QAAXPBDZZ
  002dd	83 c4 14	 add	 esp, 20			; 00000014H
$LN117@OnBtnOk:
  002e0	8d 4d f0	 lea	 ecx, DWORD PTR _strPrevDateTime$7[ebp]
  002e3	c7 45 fc ff ff
	ff ff		 mov	 DWORD PTR __$EHRec$[ebp+8], -1
  002ea	ff 15 00 00 00
	00		 call	 DWORD PTR __imp_??1?$CStringT@DV?$StrTraitMFC_DLL@DV?$ChTraitsCRT@D@ATL@@@@@ATL@@QAE@XZ
$LN2@OnBtnOk:
  002f0	8b cf		 mov	 ecx, edi
  002f2	e8 00 00 00 00	 call	 ?OnOK@CDialog@@MAEXXZ	; CDialog::OnOK

; 1288 : }

  002f7	8b 4d f4	 mov	 ecx, DWORD PTR __$EHRec$[ebp]
  002fa	64 89 0d 00 00
	00 00		 mov	 DWORD PTR fs:0, ecx
  00301	59		 pop	 ecx
  00302	5f		 pop	 edi
  00303	5e		 pop	 esi
  00304	5b		 pop	 ebx
  00305	8b e5		 mov	 esp, ebp
  00307	5d		 pop	 ebp
  00308	c3		 ret	 0
$LN14@OnBtnOk:

; 1156 : 	{
; 1157 : 		CString strTitle, strMsg;

  00309	8d 4d ec	 lea	 ecx, DWORD PTR _strTitle$6[ebp]
  0030c	ff 15 00 00 00
	00		 call	 DWORD PTR __imp_??0?$CStringT@DV?$StrTraitMFC_DLL@DV?$ChTraitsCRT@D@ATL@@@@@ATL@@QAE@XZ
  00312	8d 4d e4	 lea	 ecx, DWORD PTR _strMsg$5[ebp]
  00315	c7 45 fc 00 00
	00 00		 mov	 DWORD PTR __$EHRec$[ebp+8], 0
  0031c	ff 15 00 00 00
	00		 call	 DWORD PTR __imp_??0?$CStringT@DV?$StrTraitMFC_DLL@DV?$ChTraitsCRT@D@ATL@@@@@ATL@@QAE@XZ

; 1158 : 		GetWindowText(strTitle);

  00322	8d 45 ec	 lea	 eax, DWORD PTR _strTitle$6[ebp]
  00325	c6 45 fc 01	 mov	 BYTE PTR __$EHRec$[ebp+8], 1
  00329	50		 push	 eax
  0032a	8b cf		 mov	 ecx, edi
  0032c	e8 00 00 00 00	 call	 ?GetWindowTextA@CWnd@@QBEXAAV?$CStringT@DV?$StrTraitMFC_DLL@DV?$ChTraitsCRT@D@ATL@@@@@ATL@@@Z ; CWnd::GetWindowTextA

; 1159 : 		ML_SET_LANGUAGE_RES();

  00331	e8 00 00 00 00	 call	 ?AfxGetStaticModuleState@@YGPAVAFX_MODULE_STATE@@XZ ; AfxGetStaticModuleState
  00336	b9 00 00 00 00	 mov	 ecx, OFFSET ?g_iMetaTable@@3VIMetaTable@@A ; g_iMetaTable
  0033b	8b 40 08	 mov	 eax, DWORD PTR [eax+8]
  0033e	50		 push	 eax
  0033f	ff b7 ac 00 00
	00		 push	 DWORD PTR [edi+172]
  00345	e8 00 00 00 00	 call	 ?LoadResourceDLL@IMetaTable@@QAEPAUHINSTANCE__@@PAUHWND__@@PAU2@@Z ; IMetaTable::LoadResourceDLL
  0034a	8b f8		 mov	 edi, eax
; File C:\Program Files (x86)\Microsoft Visual Studio\2019\Community\VC\Tools\MSVC\14.29.30133\atlmfc\include\afxwin1.inl

; 25   : 		return afxCurrentResourceHandle; }

  0034c	e8 00 00 00 00	 call	 ?AfxGetModuleState@@YGPAVAFX_MODULE_STATE@@XZ ; AfxGetModuleState
; File D:\git\src\IBK\IBK_DRFN\ProjSrc\SrcChartEx\ChartAddIn\ChartDataListViewerAddIn\Include_Chart\DLL_Load\IMetaTable.h

; 1032 : 		m_hInstance = AfxGetResourceHandle();

  00351	8b 70 0c	 mov	 esi, DWORD PTR [eax+12]
  00354	89 75 f0	 mov	 DWORD PTR ___mlrs__$10[ebp], esi
; File C:\Program Files (x86)\Microsoft Visual Studio\2019\Community\VC\Tools\MSVC\14.29.30133\atlmfc\include\afxwin1.inl

; 27   : 	{ ASSERT(hInstResource != NULL); afxCurrentResourceHandle = hInstResource; }

  00357	e8 00 00 00 00	 call	 ?AfxGetModuleState@@YGPAVAFX_MODULE_STATE@@XZ ; AfxGetModuleState
  0035c	89 78 0c	 mov	 DWORD PTR [eax+12], edi
; File D:\git\src\IBK\IBK_DRFN\ProjSrc\SrcChartEx\ChartAddIn\ChartDataListViewerAddIn\ChartDataListViewerAddIn\DlgDataSimulator.cpp

; 1160 : 		strMsg.LoadString( IDS_MSG_NO_DATA_SET_TO_CHART);

  0035f	6a 14		 push	 20			; 00000014H
  00361	8d 4d e4	 lea	 ecx, DWORD PTR _strMsg$5[ebp]
  00364	c6 45 fc 02	 mov	 BYTE PTR __$EHRec$[ebp+8], 2
  00368	ff 15 00 00 00
	00		 call	 DWORD PTR __imp_?LoadStringA@?$CStringT@DV?$StrTraitMFC_DLL@DV?$ChTraitsCRT@D@ATL@@@@@ATL@@QAEHI@Z

; 1161 : 		if(IDYES == MessageBox(strMsg, strTitle, MB_YESNO))

  0036e	8b 7d e8	 mov	 edi, DWORD PTR _this$1$[ebp]
  00371	8b cf		 mov	 ecx, edi
  00373	6a 04		 push	 4
  00375	ff 75 ec	 push	 DWORD PTR _strTitle$6[ebp]
  00378	ff 75 e4	 push	 DWORD PTR _strMsg$5[ebp]
  0037b	e8 00 00 00 00	 call	 ?MessageBoxA@CWnd@@QAEHPBD0I@Z ; CWnd::MessageBoxA
  00380	83 f8 06	 cmp	 eax, 6
  00383	75 07		 jne	 SHORT $LN15@OnBtnOk

; 1162 : 		{
; 1163 : 			CDialog::OnCancel();

  00385	8b cf		 mov	 ecx, edi
  00387	e8 00 00 00 00	 call	 ?OnCancel@CDialog@@MAEXXZ ; CDialog::OnCancel
$LN15@OnBtnOk:
; File D:\git\src\IBK\IBK_DRFN\ProjSrc\SrcChartEx\ChartAddIn\ChartDataListViewerAddIn\Include_Chart\DLL_Load\IMetaTable.h

; 1036 : 	{

  0038c	c6 45 fc 04	 mov	 BYTE PTR __$EHRec$[ebp+8], 4
; File C:\Program Files (x86)\Microsoft Visual Studio\2019\Community\VC\Tools\MSVC\14.29.30133\atlmfc\include\afxwin1.inl

; 27   : 	{ ASSERT(hInstResource != NULL); afxCurrentResourceHandle = hInstResource; }

  00390	e8 00 00 00 00	 call	 ?AfxGetModuleState@@YGPAVAFX_MODULE_STATE@@XZ ; AfxGetModuleState
; File D:\git\src\IBK\IBK_DRFN\ProjSrc\SrcChartEx\ChartAddIn\ChartDataListViewerAddIn\ChartDataListViewerAddIn\DlgDataSimulator.cpp

; 1167 : 			return;

  00395	8d 4d e4	 lea	 ecx, DWORD PTR _strMsg$5[ebp]
; File C:\Program Files (x86)\Microsoft Visual Studio\2019\Community\VC\Tools\MSVC\14.29.30133\atlmfc\include\afxwin1.inl

; 27   : 	{ ASSERT(hInstResource != NULL); afxCurrentResourceHandle = hInstResource; }

  00398	89 70 0c	 mov	 DWORD PTR [eax+12], esi
; File D:\git\src\IBK\IBK_DRFN\ProjSrc\SrcChartEx\ChartAddIn\ChartDataListViewerAddIn\ChartDataListViewerAddIn\DlgDataSimulator.cpp

; 1167 : 			return;

  0039b	ff 15 00 00 00
	00		 call	 DWORD PTR __imp_??1?$CStringT@DV?$StrTraitMFC_DLL@DV?$ChTraitsCRT@D@ATL@@@@@ATL@@QAE@XZ
  003a1	8d 4d ec	 lea	 ecx, DWORD PTR _strTitle$6[ebp]
  003a4	ff 15 00 00 00
	00		 call	 DWORD PTR __imp_??1?$CStringT@DV?$StrTraitMFC_DLL@DV?$ChTraitsCRT@D@ATL@@@@@ATL@@QAE@XZ

; 1288 : }

  003aa	8b 4d f4	 mov	 ecx, DWORD PTR __$EHRec$[ebp]
  003ad	64 89 0d 00 00
	00 00		 mov	 DWORD PTR fs:0, ecx
  003b4	59		 pop	 ecx
  003b5	5f		 pop	 edi
  003b6	5e		 pop	 esi
  003b7	5b		 pop	 ebx
  003b8	8b e5		 mov	 esp, ebp
  003ba	5d		 pop	 ebp
  003bb	c3		 ret	 0
$LN112@OnBtnOk:
  003bc	00 00 00 00	 DD	 $LN17@OnBtnOk
  003c0	00 00 00 00	 DD	 $LN17@OnBtnOk
  003c4	00 00 00 00	 DD	 $LN20@OnBtnOk
  003c8	00 00 00 00	 DD	 $LN22@OnBtnOk
  003cc	00 00 00 00	 DD	 $LN31@OnBtnOk
_TEXT	ENDS
;	COMDAT text$x
text$x	SEGMENT
__unwindfunclet$?OnBtnOk@CDlgDataSimulator@@IAEXXZ$3:
  00000	8d 4d f0	 lea	 ecx, DWORD PTR _strPrevDateTime$9[ebp]
  00003	ff 25 00 00 00
	00		 jmp	 DWORD PTR __imp_??1?$CStringT@DV?$StrTraitMFC_DLL@DV?$ChTraitsCRT@D@ATL@@@@@ATL@@QAE@XZ
__unwindfunclet$?OnBtnOk@CDlgDataSimulator@@IAEXXZ$4:
  00009	8d 4d f0	 lea	 ecx, DWORD PTR _strPrevDateTime$8[ebp]
  0000c	ff 25 00 00 00
	00		 jmp	 DWORD PTR __imp_??1?$CStringT@DV?$StrTraitMFC_DLL@DV?$ChTraitsCRT@D@ATL@@@@@ATL@@QAE@XZ
__unwindfunclet$?OnBtnOk@CDlgDataSimulator@@IAEXXZ$5:
  00012	8d 4d f0	 lea	 ecx, DWORD PTR _strPrevDateTime$7[ebp]
  00015	ff 25 00 00 00
	00		 jmp	 DWORD PTR __imp_??1?$CStringT@DV?$StrTraitMFC_DLL@DV?$ChTraitsCRT@D@ATL@@@@@ATL@@QAE@XZ
__unwindfunclet$?OnBtnOk@CDlgDataSimulator@@IAEXXZ$0:
  0001b	8d 4d ec	 lea	 ecx, DWORD PTR _strTitle$6[ebp]
  0001e	ff 25 00 00 00
	00		 jmp	 DWORD PTR __imp_??1?$CStringT@DV?$StrTraitMFC_DLL@DV?$ChTraitsCRT@D@ATL@@@@@ATL@@QAE@XZ
__unwindfunclet$?OnBtnOk@CDlgDataSimulator@@IAEXXZ$1:
  00024	8d 4d e4	 lea	 ecx, DWORD PTR _strMsg$5[ebp]
  00027	ff 25 00 00 00
	00		 jmp	 DWORD PTR __imp_??1?$CStringT@DV?$StrTraitMFC_DLL@DV?$ChTraitsCRT@D@ATL@@@@@ATL@@QAE@XZ
__unwindfunclet$?OnBtnOk@CDlgDataSimulator@@IAEXXZ$2:
  0002d	8d 4d f0	 lea	 ecx, DWORD PTR ___mlrs__$10[ebp]
  00030	e9 00 00 00 00	 jmp	 ??1CMultiLanguageResourceSetter@@QAE@XZ ; CMultiLanguageResourceSetter::~CMultiLanguageResourceSetter
  00035	cc		 int	 3
  00036	cc		 int	 3
  00037	cc		 int	 3
  00038	cc		 int	 3
  00039	cc		 int	 3
__ehhandler$?OnBtnOk@CDlgDataSimulator@@IAEXXZ:
  0003a	90		 npad	 1
  0003b	90		 npad	 1
  0003c	8b 54 24 08	 mov	 edx, DWORD PTR [esp+8]
  00040	8d 42 0c	 lea	 eax, DWORD PTR [edx+12]
  00043	8b 4a d8	 mov	 ecx, DWORD PTR [edx-40]
  00046	33 c8		 xor	 ecx, eax
  00048	e8 00 00 00 00	 call	 @__security_check_cookie@4
  0004d	b8 00 00 00 00	 mov	 eax, OFFSET __ehfuncinfo$?OnBtnOk@CDlgDataSimulator@@IAEXXZ
  00052	e9 00 00 00 00	 jmp	 ___CxxFrameHandler3
text$x	ENDS
?OnBtnOk@CDlgDataSimulator@@IAEXXZ ENDP			; CDlgDataSimulator::OnBtnOk
; Function compile flags: /Ogtp
; File D:\git\src\IBK\IBK_DRFN\ProjSrc\SrcChartEx\ChartAddIn\ChartDataListViewerAddIn\ChartDataListViewerAddIn\DlgDataSimulator.cpp
; File C:\Program Files (x86)\Microsoft Visual Studio\2019\Community\VC\Tools\MSVC\14.29.30133\atlmfc\include\afxtempl.h
; File D:\git\src\IBK\IBK_DRFN\ProjSrc\SrcChartEx\ChartAddIn\ChartDataListViewerAddIn\ChartDataListViewerAddIn\DlgDataSimulator.cpp
; File C:\Program Files (x86)\Microsoft Visual Studio\2019\Community\VC\Tools\MSVC\14.29.30133\atlmfc\include\afxtempl.h
; File D:\git\src\IBK\IBK_DRFN\ProjSrc\SrcChartEx\ChartAddIn\ChartDataListViewerAddIn\ChartDataListViewerAddIn\DlgDataSimulator.cpp
; File D:\git\src\IBK\IBK_DRFN\ProjSrc\SrcChartEx\ChartAddIn\ChartDataListViewerAddIn\ChartDataListViewerAddIn\ChartDataSimulatorAddInImp.h
; File D:\git\src\IBK\IBK_DRFN\ProjSrc\SrcChartEx\ChartAddIn\ChartDataListViewerAddIn\ChartDataListViewerAddIn\DlgDataSimulator.cpp
;	COMDAT ?OnInitDialog@CDlgDataSimulator@@MAEHXZ
_TEXT	SEGMENT
_this$1$ = -32						; size = 4
_pos$1$ = -28						; size = 4
tv227 = -24						; size = 4
_pRecordSet$1$ = -20					; size = 4
_pNewRecordSet$1$ = -16					; size = 4
__$EHRec$ = -12						; size = 12
?OnInitDialog@CDlgDataSimulator@@MAEHXZ PROC		; CDlgDataSimulator::OnInitDialog, COMDAT
; _this$ = ecx

; 70   : {

  00000	55		 push	 ebp
  00001	8b ec		 mov	 ebp, esp
  00003	6a ff		 push	 -1
  00005	68 00 00 00 00	 push	 __ehhandler$?OnInitDialog@CDlgDataSimulator@@MAEHXZ
  0000a	64 a1 00 00 00
	00		 mov	 eax, DWORD PTR fs:0
  00010	50		 push	 eax
  00011	83 ec 14	 sub	 esp, 20			; 00000014H
  00014	53		 push	 ebx
  00015	56		 push	 esi
  00016	57		 push	 edi
  00017	a1 00 00 00 00	 mov	 eax, DWORD PTR ___security_cookie
  0001c	33 c5		 xor	 eax, ebp
  0001e	50		 push	 eax
  0001f	8d 45 f4	 lea	 eax, DWORD PTR __$EHRec$[ebp]
  00022	64 a3 00 00 00
	00		 mov	 DWORD PTR fs:0, eax
  00028	8b d9		 mov	 ebx, ecx
  0002a	89 5d e0	 mov	 DWORD PTR _this$1$[ebp], ebx

; 71   : 	CDialog::OnInitDialog();

  0002d	e8 00 00 00 00	 call	 ?OnInitDialog@CDialog@@UAEHXZ ; CDialog::OnInitDialog

; 72   : 
; 73   : 	if(!m_pChartDataGridManager) return TRUE;	

  00032	83 bb 38 05 00
	00 00		 cmp	 DWORD PTR [ebx+1336], 0
  00039	0f 84 bb 00 00
	00		 je	 $LN31@OnInitDial

; 74   : 
; 75   : 	InitGrid();

  0003f	8b cb		 mov	 ecx, ebx
  00041	e8 00 00 00 00	 call	 ?InitGrid@CDlgDataSimulator@@QAEXXZ ; CDlgDataSimulator::InitGrid

; 144  : 	if(!m_pChartDataGridManager) return;

  00046	8b 8b 38 05 00
	00		 mov	 ecx, DWORD PTR [ebx+1336]
  0004c	85 c9		 test	 ecx, ecx
  0004e	0f 84 96 00 00
	00		 je	 $LN6@OnInitDial

; 145  : 	
; 146  : 	for( POSITION pos = m_pChartDataGridManager->m_ChartDataList.GetHeadPosition(); pos ; )

  00054	8b 49 30	 mov	 ecx, DWORD PTR [ecx+48]
  00057	85 c9		 test	 ecx, ecx
  00059	0f 84 8b 00 00
	00		 je	 $LN6@OnInitDial
  0005f	8d 83 3c 05 00
	00		 lea	 eax, DWORD PTR [ebx+1340]
  00065	89 45 e8	 mov	 DWORD PTR tv227[ebp], eax
$LL5@OnInitDial:

; 147  : 	{
; 148  : 		CChartRecordSet * pRecordSet	= m_pChartDataGridManager->m_ChartDataList.GetNext(pos);

  00068	8b 59 08	 mov	 ebx, DWORD PTR [ecx+8]
; File C:\Program Files (x86)\Microsoft Visual Studio\2019\Community\VC\Tools\MSVC\14.29.30133\atlmfc\include\afxtempl.h

; 813  : 		rPosition = (POSITION) pNode->pNext;

  0006b	8b 09		 mov	 ecx, DWORD PTR [ecx]
; File D:\git\src\IBK\IBK_DRFN\ProjSrc\SrcChartEx\ChartAddIn\ChartDataListViewerAddIn\ChartDataListViewerAddIn\DlgDataSimulator.cpp

; 149  : 		CChartRecordSet * pNewRecordSet = new CChartRecordSet;

  0006d	6a 18		 push	 24			; 00000018H
; File C:\Program Files (x86)\Microsoft Visual Studio\2019\Community\VC\Tools\MSVC\14.29.30133\atlmfc\include\afxtempl.h

; 813  : 		rPosition = (POSITION) pNode->pNext;

  0006f	89 4d e4	 mov	 DWORD PTR _pos$1$[ebp], ecx
; File D:\git\src\IBK\IBK_DRFN\ProjSrc\SrcChartEx\ChartAddIn\ChartDataListViewerAddIn\ChartDataListViewerAddIn\DlgDataSimulator.cpp

; 149  : 		CChartRecordSet * pNewRecordSet = new CChartRecordSet;

  00072	e8 00 00 00 00	 call	 ??2@YAPAXI@Z		; operator new
  00077	8b f8		 mov	 edi, eax
  00079	89 45 f0	 mov	 DWORD PTR _pNewRecordSet$1$[ebp], eax
  0007c	83 c4 04	 add	 esp, 4
  0007f	85 ff		 test	 edi, edi
  00081	74 26		 je	 SHORT $LN10@OnInitDial
  00083	ff 35 00 00 00
	00		 push	 DWORD PTR __imp_??1?$CStringT@DV?$StrTraitMFC_DLL@DV?$ChTraitsCRT@D@ATL@@@@@ATL@@QAE@XZ
  00089	c7 45 fc 00 00
	00 00		 mov	 DWORD PTR __$EHRec$[ebp+8], 0
  00090	ff 35 00 00 00
	00		 push	 DWORD PTR __imp_??0?$CStringT@DV?$StrTraitMFC_DLL@DV?$ChTraitsCRT@D@ATL@@@@@ATL@@QAE@XZ
  00096	6a 06		 push	 6
  00098	6a 04		 push	 4
  0009a	57		 push	 edi
  0009b	e8 00 00 00 00	 call	 ??_L@YGXPAXIIP6EX0@Z1@Z
  000a0	c7 45 fc ff ff
	ff ff		 mov	 DWORD PTR __$EHRec$[ebp+8], -1
  000a7	eb 05		 jmp	 SHORT $LN11@OnInitDial
$LN10@OnInitDial:
  000a9	33 ff		 xor	 edi, edi
  000ab	89 7d f0	 mov	 DWORD PTR _pNewRecordSet$1$[ebp], edi
$LN11@OnInitDial:
; File D:\git\src\IBK\IBK_DRFN\ProjSrc\SrcChartEx\ChartAddIn\ChartDataListViewerAddIn\ChartDataListViewerAddIn\ChartDataSimulatorAddInImp.h

; 43   : 		for(int i = 0 ; i < COL_SIZE ; i++)

  000ae	2b df		 sub	 ebx, edi
  000b0	8b f7		 mov	 esi, edi
  000b2	89 5d ec	 mov	 DWORD PTR _pRecordSet$1$[ebp], ebx
  000b5	bb 06 00 00 00	 mov	 ebx, 6
  000ba	8b 7d ec	 mov	 edi, DWORD PTR _pRecordSet$1$[ebp]
  000bd	0f 1f 00	 npad	 3
$LL20@OnInitDial:

; 44   : 			m_Data[i] = Record.m_Data[i];

  000c0	8d 04 37	 lea	 eax, DWORD PTR [edi+esi]
  000c3	8b ce		 mov	 ecx, esi
  000c5	50		 push	 eax
  000c6	ff 15 00 00 00
	00		 call	 DWORD PTR __imp_??4?$CStringT@DV?$StrTraitMFC_DLL@DV?$ChTraitsCRT@D@ATL@@@@@ATL@@QAEAAV01@ABV01@@Z
  000cc	83 c6 04	 add	 esi, 4
  000cf	83 eb 01	 sub	 ebx, 1
  000d2	75 ec		 jne	 SHORT $LL20@OnInitDial
; File D:\git\src\IBK\IBK_DRFN\ProjSrc\SrcChartEx\ChartAddIn\ChartDataListViewerAddIn\ChartDataListViewerAddIn\DlgDataSimulator.cpp

; 151  : 		m_CopyChartDataList.AddTail(pNewRecordSet);

  000d4	8b 7d f0	 mov	 edi, DWORD PTR _pNewRecordSet$1$[ebp]
  000d7	8b 4d e8	 mov	 ecx, DWORD PTR tv227[ebp]
  000da	57		 push	 edi
  000db	e8 00 00 00 00	 call	 ?AddTail@?$CList@PAVCChartRecordSet@@PAV1@@@QAEPAU__POSITION@@PAVCChartRecordSet@@@Z ; CList<CChartRecordSet *,CChartRecordSet *>::AddTail
  000e0	8b 4d e4	 mov	 ecx, DWORD PTR _pos$1$[ebp]
  000e3	85 c9		 test	 ecx, ecx
  000e5	75 81		 jne	 SHORT $LL5@OnInitDial
  000e7	8b 5d e0	 mov	 ebx, DWORD PTR _this$1$[ebp]
$LN6@OnInitDial:

; 76   : 	
; 77   : 	MakeCopyChartData();
; 78   : 
; 79   : 	MakeTitle();

  000ea	8b cb		 mov	 ecx, ebx
  000ec	e8 00 00 00 00	 call	 ?MakeTitle@CDlgDataSimulator@@QAEXXZ ; CDlgDataSimulator::MakeTitle

; 80   : 
; 81   : 	UpdateData(FALSE);

  000f1	6a 00		 push	 0
  000f3	8b cb		 mov	 ecx, ebx
  000f5	e8 00 00 00 00	 call	 ?UpdateData@CWnd@@QAEHH@Z ; CWnd::UpdateData
$LN31@OnInitDial:

; 82   : 
; 83   : 	return TRUE;  // return TRUE unless you set the focus to a control
; 84   : 	              // EXCEPTION: OCX Property Pages should return FALSE
; 85   : }

  000fa	b8 01 00 00 00	 mov	 eax, 1
  000ff	8b 4d f4	 mov	 ecx, DWORD PTR __$EHRec$[ebp]
  00102	64 89 0d 00 00
	00 00		 mov	 DWORD PTR fs:0, ecx
  00109	59		 pop	 ecx
  0010a	5f		 pop	 edi
  0010b	5e		 pop	 esi
  0010c	5b		 pop	 ebx
  0010d	8b e5		 mov	 esp, ebp
  0010f	5d		 pop	 ebp
  00110	c3		 ret	 0
  00111	cc		 int	 3
  00112	cc		 int	 3
  00113	cc		 int	 3
  00114	cc		 int	 3
  00115	cc		 int	 3
_TEXT	ENDS
;	COMDAT text$x
text$x	SEGMENT
__ehhandler$?OnInitDialog@CDlgDataSimulator@@MAEHXZ:
  00000	90		 npad	 1
  00001	90		 npad	 1
  00002	8b 54 24 08	 mov	 edx, DWORD PTR [esp+8]
  00006	8d 42 0c	 lea	 eax, DWORD PTR [edx+12]
  00009	8b 4a dc	 mov	 ecx, DWORD PTR [edx-36]
  0000c	33 c8		 xor	 ecx, eax
  0000e	e8 00 00 00 00	 call	 @__security_check_cookie@4
  00013	b8 00 00 00 00	 mov	 eax, OFFSET __ehfuncinfo$?OnInitDialog@CDlgDataSimulator@@MAEHXZ
  00018	e9 00 00 00 00	 jmp	 ___CxxFrameHandler3
text$x	ENDS
?OnInitDialog@CDlgDataSimulator@@MAEHXZ ENDP		; CDlgDataSimulator::OnInitDialog
; Function compile flags: /Ogtp
; File D:\git\src\IBK\IBK_DRFN\ProjSrc\SrcChartEx\ChartAddIn\ChartDataListViewerAddIn\ChartDataListViewerAddIn\DlgDataSimulator.cpp
;	COMDAT ?OnOK@CDlgDataSimulator@@MAEXXZ
_TEXT	SEGMENT
?OnOK@CDlgDataSimulator@@MAEXXZ PROC			; CDlgDataSimulator::OnOK, COMDAT
; _this$ = ecx

; 1005 : 	return;
; 1006 : }

  00000	c2 00 00	 ret	 0
?OnOK@CDlgDataSimulator@@MAEXXZ ENDP			; CDlgDataSimulator::OnOK
_TEXT	ENDS
; Function compile flags: /Ogtp
; File D:\git\src\IBK\IBK_DRFN\ProjSrc\SrcChartEx\ChartAddIn\ChartDataListViewerAddIn\ChartDataListViewerAddIn\DlgDataSimulator.cpp
; File D:\git\src\IBK\IBK_DRFN\ProjSrc\SrcChartEx\ChartAddIn\ChartDataListViewerAddIn\ChartDataListViewerAddIn\ChartDataSimulatorAddInImp.h
; File D:\git\src\IBK\IBK_DRFN\ProjSrc\SrcChartEx\ChartAddIn\ChartDataListViewerAddIn\ChartDataListViewerAddIn\DlgDataSimulator.cpp
; File C:\Program Files (x86)\Microsoft Visual Studio\2019\Community\VC\Tools\MSVC\14.29.30133\atlmfc\include\afxtempl.h
; File D:\git\src\IBK\IBK_DRFN\ProjSrc\SrcChartEx\ChartAddIn\ChartDataListViewerAddIn\ChartDataListViewerAddIn\DlgDataSimulator.cpp
; File C:\Program Files (x86)\Microsoft Visual Studio\2019\Community\VC\Tools\MSVC\14.29.30133\atlmfc\include\afxtempl.h
; File D:\git\src\IBK\IBK_DRFN\ProjSrc\SrcChartEx\ChartAddIn\ChartDataListViewerAddIn\ChartDataListViewerAddIn\DlgDataSimulator.cpp
; File C:\Program Files (x86)\Microsoft Visual Studio\2019\Community\VC\Tools\MSVC\14.29.30133\atlmfc\include\afxtempl.h
; File D:\git\src\IBK\IBK_DRFN\ProjSrc\SrcChartEx\ChartAddIn\ChartDataListViewerAddIn\ChartDataListViewerAddIn\DlgDataSimulator.cpp
; File C:\Program Files (x86)\Microsoft Visual Studio\2019\Community\VC\Tools\MSVC\14.29.30133\atlmfc\include\afxwin2.inl
; File D:\git\src\IBK\IBK_DRFN\ProjSrc\SrcChartEx\ChartAddIn\ChartDataListViewerAddIn\ChartDataListViewerAddIn\DlgDataSimulator.cpp
; File C:\Program Files (x86)\Microsoft Visual Studio\2019\Community\VC\Tools\MSVC\14.29.30133\atlmfc\include\afxtempl.h
; File D:\git\src\IBK\IBK_DRFN\ProjSrc\SrcChartEx\ChartAddIn\ChartDataListViewerAddIn\ChartDataListViewerAddIn\DlgDataSimulator.cpp
;	COMDAT ?OnBtnRemoveAll@CDlgDataSimulator@@IAEXXZ
_TEXT	SEGMENT
_this$1$ = -20						; size = 4
_pRecordSet$1$ = -16					; size = 4
__$EHRec$ = -12						; size = 12
?OnBtnRemoveAll@CDlgDataSimulator@@IAEXXZ PROC		; CDlgDataSimulator::OnBtnRemoveAll, COMDAT
; _this$ = ecx

; 985  : {

  00000	55		 push	 ebp
  00001	8b ec		 mov	 ebp, esp
  00003	6a ff		 push	 -1
  00005	68 00 00 00 00	 push	 __ehhandler$?OnBtnRemoveAll@CDlgDataSimulator@@IAEXXZ
  0000a	64 a1 00 00 00
	00		 mov	 eax, DWORD PTR fs:0
  00010	50		 push	 eax
  00011	83 ec 08	 sub	 esp, 8
  00014	53		 push	 ebx
  00015	56		 push	 esi
  00016	57		 push	 edi
  00017	a1 00 00 00 00	 mov	 eax, DWORD PTR ___security_cookie
  0001c	33 c5		 xor	 eax, ebp
  0001e	50		 push	 eax
  0001f	8d 45 f4	 lea	 eax, DWORD PTR __$EHRec$[ebp]
  00022	64 a3 00 00 00
	00		 mov	 DWORD PTR fs:0, eax
  00028	8b d9		 mov	 ebx, ecx
  0002a	89 5d ec	 mov	 DWORD PTR _this$1$[ebp], ebx

; 986  : 	if(!m_pChartDataGridManager) return;

  0002d	8b 83 38 05 00
	00		 mov	 eax, DWORD PTR [ebx+1336]
  00033	85 c0		 test	 eax, eax
  00035	0f 84 46 01 00
	00		 je	 $LN1@OnBtnRemov

; 987  : 
; 988  : 	//   .
; 989  : 	POSITION pos = m_pChartDataGridManager->m_ChartDataList.GetTailPosition();

  0003b	8b 40 34	 mov	 eax, DWORD PTR [eax+52]

; 990  : 	if(pos)

  0003e	85 c0		 test	 eax, eax
  00040	74 75		 je	 SHORT $LN17@OnBtnRemov

; 991  : 	{
; 992  : 		CChartRecordSet * pRecordSet= m_pChartDataGridManager->m_ChartDataList.GetAt(pos);
; 993  : 		if(!m_pChartLastRecordSet) m_pChartLastRecordSet = new CChartRecordSet;

  00042	8b b3 5c 05 00
	00		 mov	 esi, DWORD PTR [ebx+1372]
  00048	8b 40 08	 mov	 eax, DWORD PTR [eax+8]
  0004b	89 45 f0	 mov	 DWORD PTR _pRecordSet$1$[ebp], eax
  0004e	85 f6		 test	 esi, esi
  00050	75 3e		 jne	 SHORT $LN6@OnBtnRemov
  00052	6a 18		 push	 24			; 00000018H
  00054	e8 00 00 00 00	 call	 ??2@YAPAXI@Z		; operator new
  00059	8b f0		 mov	 esi, eax
  0005b	83 c4 04	 add	 esp, 4
  0005e	85 f6		 test	 esi, esi
  00060	74 26		 je	 SHORT $LN8@OnBtnRemov
  00062	ff 35 00 00 00
	00		 push	 DWORD PTR __imp_??1?$CStringT@DV?$StrTraitMFC_DLL@DV?$ChTraitsCRT@D@ATL@@@@@ATL@@QAE@XZ
  00068	c7 45 fc 00 00
	00 00		 mov	 DWORD PTR __$EHRec$[ebp+8], 0
  0006f	ff 35 00 00 00
	00		 push	 DWORD PTR __imp_??0?$CStringT@DV?$StrTraitMFC_DLL@DV?$ChTraitsCRT@D@ATL@@@@@ATL@@QAE@XZ
  00075	6a 06		 push	 6
  00077	6a 04		 push	 4
  00079	56		 push	 esi
  0007a	e8 00 00 00 00	 call	 ??_L@YGXPAXIIP6EX0@Z1@Z
  0007f	c7 45 fc ff ff
	ff ff		 mov	 DWORD PTR __$EHRec$[ebp+8], -1
  00086	eb 02		 jmp	 SHORT $LN9@OnBtnRemov
$LN8@OnBtnRemov:
  00088	33 f6		 xor	 esi, esi
$LN9@OnBtnRemov:
  0008a	89 b3 5c 05 00
	00		 mov	 DWORD PTR [ebx+1372], esi
$LN6@OnBtnRemov:

; 994  : 		*m_pChartLastRecordSet		= *pRecordSet;

  00090	8b 5d f0	 mov	 ebx, DWORD PTR _pRecordSet$1$[ebp]
  00093	bf 06 00 00 00	 mov	 edi, 6
  00098	2b de		 sub	 ebx, esi
  0009a	66 0f 1f 44 00
	00		 npad	 6
$LL18@OnBtnRemov:
; File D:\git\src\IBK\IBK_DRFN\ProjSrc\SrcChartEx\ChartAddIn\ChartDataListViewerAddIn\ChartDataListViewerAddIn\ChartDataSimulatorAddInImp.h

; 44   : 			m_Data[i] = Record.m_Data[i];

  000a0	8d 04 33	 lea	 eax, DWORD PTR [ebx+esi]
  000a3	8b ce		 mov	 ecx, esi
  000a5	50		 push	 eax
  000a6	ff 15 00 00 00
	00		 call	 DWORD PTR __imp_??4?$CStringT@DV?$StrTraitMFC_DLL@DV?$ChTraitsCRT@D@ATL@@@@@ATL@@QAEAAV01@ABV01@@Z
  000ac	83 c6 04	 add	 esi, 4
  000af	83 ef 01	 sub	 edi, 1
  000b2	75 ec		 jne	 SHORT $LL18@OnBtnRemov
  000b4	8b 5d ec	 mov	 ebx, DWORD PTR _this$1$[ebp]
$LN17@OnBtnRemov:
; File D:\git\src\IBK\IBK_DRFN\ProjSrc\SrcChartEx\ChartAddIn\ChartDataListViewerAddIn\ChartDataListViewerAddIn\DlgDataSimulator.cpp

; 997  : 	m_Grid.SetRowCount(1);

  000b7	6a 01		 push	 1
  000b9	8d 8b b0 00 00
	00		 lea	 ecx, DWORD PTR [ebx+176]
  000bf	e8 00 00 00 00	 call	 ?SetRowCount@CGridCtrl@@QAEHH@Z ; CGridCtrl::SetRowCount
; File C:\Program Files (x86)\Microsoft Visual Studio\2019\Community\VC\Tools\MSVC\14.29.30133\atlmfc\include\afxtempl.h

; 786  : 	{ return m_nCount == 0; }

  000c4	8b b3 38 05 00
	00		 mov	 esi, DWORD PTR [ebx+1336]
  000ca	83 7e 38 00	 cmp	 DWORD PTR [esi+56], 0
; File D:\git\src\IBK\IBK_DRFN\ProjSrc\SrcChartEx\ChartAddIn\ChartDataListViewerAddIn\ChartDataListViewerAddIn\DlgDataSimulator.cpp

; 998  : 	while(!m_pChartDataGridManager->m_ChartDataList.IsEmpty())

  000ce	0f 84 9d 00 00
	00		 je	 $LN3@OnBtnRemov
$LL2@OnBtnRemov:
; File C:\Program Files (x86)\Microsoft Visual Studio\2019\Community\VC\Tools\MSVC\14.29.30133\atlmfc\include\afxtempl.h

; 1009 : 	ENSURE(m_pNodeHead != NULL);  // don't call on empty list !!!

  000d4	8b 4e 30	 mov	 ecx, DWORD PTR [esi+48]
  000d7	85 c9		 test	 ecx, ecx
  000d9	0f 84 b4 00 00
	00		 je	 $LN50@OnBtnRemov

; 1010 : 	ASSERT(AfxIsValidAddress(m_pNodeHead, sizeof(CNode)));
; 1011 : 
; 1012 : 	CNode* pOldNode = m_pNodeHead;
; 1013 : 	TYPE returnValue = pOldNode->data;
; 1014 : 
; 1015 : 	m_pNodeHead = pOldNode->pNext;

  000df	8b 01		 mov	 eax, DWORD PTR [ecx]
  000e1	8b 79 08	 mov	 edi, DWORD PTR [ecx+8]
  000e4	89 46 30	 mov	 DWORD PTR [esi+48], eax

; 1016 : 	if (m_pNodeHead != NULL)

  000e7	85 c0		 test	 eax, eax
  000e9	74 09		 je	 SHORT $LN27@OnBtnRemov

; 1017 : 		m_pNodeHead->pPrev = NULL;

  000eb	c7 40 04 00 00
	00 00		 mov	 DWORD PTR [eax+4], 0
  000f2	eb 07		 jmp	 SHORT $LN28@OnBtnRemov
$LN27@OnBtnRemov:

; 1018 : 	else
; 1019 : 		m_pNodeTail = NULL;

  000f4	c7 46 34 00 00
	00 00		 mov	 DWORD PTR [esi+52], 0
$LN28@OnBtnRemov:

; 938  : 	pNode->pNext = m_pNodeFree;

  000fb	8b 46 3c	 mov	 eax, DWORD PTR [esi+60]
  000fe	89 01		 mov	 DWORD PTR [ecx], eax

; 939  : 	m_pNodeFree = pNode;
; 940  : 	m_nCount--;

  00100	83 46 38 ff	 add	 DWORD PTR [esi+56], -1
  00104	89 4e 3c	 mov	 DWORD PTR [esi+60], ecx

; 941  : 	ASSERT(m_nCount >= 0);  // make sure we don't underflow
; 942  : 
; 943  : 	// if no more elements, cleanup completely
; 944  : 	if (m_nCount == 0)

  00107	75 2b		 jne	 SHORT $LN31@OnBtnRemov

; 872  : 	m_pBlocks->FreeDataChain();

  00109	8b 4e 40	 mov	 ecx, DWORD PTR [esi+64]
  0010c	c7 46 38 00 00
	00 00		 mov	 DWORD PTR [esi+56], 0
  00113	c7 46 3c 00 00
	00 00		 mov	 DWORD PTR [esi+60], 0
  0011a	c7 46 34 00 00
	00 00		 mov	 DWORD PTR [esi+52], 0
  00121	c7 46 30 00 00
	00 00		 mov	 DWORD PTR [esi+48], 0
  00128	e8 00 00 00 00	 call	 ?FreeDataChain@CPlex@@QAEXXZ ; CPlex::FreeDataChain

; 873  : 	m_pBlocks = NULL;

  0012d	c7 46 40 00 00
	00 00		 mov	 DWORD PTR [esi+64], 0
$LN31@OnBtnRemov:
; File D:\git\src\IBK\IBK_DRFN\ProjSrc\SrcChartEx\ChartAddIn\ChartDataListViewerAddIn\ChartDataListViewerAddIn\DlgDataSimulator.cpp

; 999  : 		delete m_pChartDataGridManager->m_ChartDataList.RemoveHead();

  00134	85 ff		 test	 edi, edi
  00136	74 29		 je	 SHORT $LN40@OnBtnRemov
  00138	ff 35 00 00 00
	00		 push	 DWORD PTR __imp_??1?$CStringT@DV?$StrTraitMFC_DLL@DV?$ChTraitsCRT@D@ATL@@@@@ATL@@QAE@XZ
  0013e	c7 45 fc 01 00
	00 00		 mov	 DWORD PTR __$EHRec$[ebp+8], 1
  00145	6a 06		 push	 6
  00147	6a 04		 push	 4
  00149	57		 push	 edi
  0014a	e8 00 00 00 00	 call	 ??_M@YGXPAXIIP6EX0@Z@Z
  0014f	6a 18		 push	 24			; 00000018H
  00151	57		 push	 edi
  00152	c7 45 fc ff ff
	ff ff		 mov	 DWORD PTR __$EHRec$[ebp+8], -1
  00159	e8 00 00 00 00	 call	 ??3@YAXPAXI@Z		; operator delete
  0015e	83 c4 08	 add	 esp, 8
$LN40@OnBtnRemov:
; File C:\Program Files (x86)\Microsoft Visual Studio\2019\Community\VC\Tools\MSVC\14.29.30133\atlmfc\include\afxtempl.h

; 786  : 	{ return m_nCount == 0; }

  00161	8b b3 38 05 00
	00		 mov	 esi, DWORD PTR [ebx+1336]
  00167	83 7e 38 00	 cmp	 DWORD PTR [esi+56], 0
; File D:\git\src\IBK\IBK_DRFN\ProjSrc\SrcChartEx\ChartAddIn\ChartDataListViewerAddIn\ChartDataListViewerAddIn\DlgDataSimulator.cpp

; 998  : 	while(!m_pChartDataGridManager->m_ChartDataList.IsEmpty())

  0016b	0f 85 63 ff ff
	ff		 jne	 $LL2@OnBtnRemov
$LN3@OnBtnRemov:
; File C:\Program Files (x86)\Microsoft Visual Studio\2019\Community\VC\Tools\MSVC\14.29.30133\atlmfc\include\afxwin2.inl

; 114  : 	{ ASSERT(::IsWindow(m_hWnd)); ::InvalidateRect(m_hWnd, NULL, bErase); }

  00171	6a 01		 push	 1
  00173	6a 00		 push	 0
  00175	ff b3 d0 00 00
	00		 push	 DWORD PTR [ebx+208]
  0017b	ff 15 00 00 00
	00		 call	 DWORD PTR __imp__InvalidateRect@12
$LN1@OnBtnRemov:
; File D:\git\src\IBK\IBK_DRFN\ProjSrc\SrcChartEx\ChartAddIn\ChartDataListViewerAddIn\ChartDataListViewerAddIn\DlgDataSimulator.cpp

; 1001 : }

  00181	8b 4d f4	 mov	 ecx, DWORD PTR __$EHRec$[ebp]
  00184	64 89 0d 00 00
	00 00		 mov	 DWORD PTR fs:0, ecx
  0018b	59		 pop	 ecx
  0018c	5f		 pop	 edi
  0018d	5e		 pop	 esi
  0018e	5b		 pop	 ebx
  0018f	8b e5		 mov	 esp, ebp
  00191	5d		 pop	 ebp
  00192	c3		 ret	 0
$LN50@OnBtnRemov:
; File C:\Program Files (x86)\Microsoft Visual Studio\2019\Community\VC\Tools\MSVC\14.29.30133\atlmfc\include\afxtempl.h

; 1009 : 	ENSURE(m_pNodeHead != NULL);  // don't call on empty list !!!

  00193	e8 00 00 00 00	 call	 ?AfxThrowInvalidArgException@@YGXXZ ; AfxThrowInvalidArgException
$LN61@OnBtnRemov:
  00198	cc		 int	 3
  00199	cc		 int	 3
  0019a	cc		 int	 3
  0019b	cc		 int	 3
  0019c	cc		 int	 3
  0019d	cc		 int	 3
_TEXT	ENDS
;	COMDAT text$x
text$x	SEGMENT
__ehhandler$?OnBtnRemoveAll@CDlgDataSimulator@@IAEXXZ:
  00000	90		 npad	 1
  00001	90		 npad	 1
  00002	8b 54 24 08	 mov	 edx, DWORD PTR [esp+8]
  00006	8d 42 0c	 lea	 eax, DWORD PTR [edx+12]
  00009	8b 4a e8	 mov	 ecx, DWORD PTR [edx-24]
  0000c	33 c8		 xor	 ecx, eax
  0000e	e8 00 00 00 00	 call	 @__security_check_cookie@4
  00013	b8 00 00 00 00	 mov	 eax, OFFSET __ehfuncinfo$?OnBtnRemoveAll@CDlgDataSimulator@@IAEXXZ
  00018	e9 00 00 00 00	 jmp	 ___CxxFrameHandler3
text$x	ENDS
?OnBtnRemoveAll@CDlgDataSimulator@@IAEXXZ ENDP		; CDlgDataSimulator::OnBtnRemoveAll
; Function compile flags: /Ogtp
; File D:\git\src\IBK\IBK_DRFN\ProjSrc\SrcChartEx\ChartAddIn\ChartDataListViewerAddIn\ChartDataListViewerAddIn\DlgDataSimulator.cpp
; File C:\Program Files (x86)\Microsoft Visual Studio\2019\Community\VC\Tools\MSVC\14.29.30133\atlmfc\include\afxtempl.h
; File D:\git\src\IBK\IBK_DRFN\ProjSrc\SrcChartEx\ChartAddIn\ChartDataListViewerAddIn\ChartDataListViewerAddIn\DlgDataSimulator.cpp
; File C:\Program Files (x86)\Microsoft Visual Studio\2019\Community\VC\Tools\MSVC\14.29.30133\atlmfc\include\afxtempl.h
; File D:\git\src\IBK\IBK_DRFN\ProjSrc\SrcChartEx\ChartAddIn\ChartDataListViewerAddIn\ChartDataListViewerAddIn\DlgDataSimulator.cpp
; File C:\Program Files (x86)\Microsoft Visual Studio\2019\Community\VC\Tools\MSVC\14.29.30133\atlmfc\include\afxtempl.h
; File D:\git\src\IBK\IBK_DRFN\ProjSrc\SrcChartEx\ChartAddIn\ChartDataListViewerAddIn\ChartDataListViewerAddIn\DlgDataSimulator.cpp
; File C:\Program Files (x86)\Microsoft Visual Studio\2019\Community\VC\Tools\MSVC\14.29.30133\atlmfc\include\afxtempl.h
; File D:\git\src\IBK\IBK_DRFN\ProjSrc\SrcChartEx\ChartAddIn\ChartDataListViewerAddIn\ChartDataListViewerAddIn\DlgDataSimulator.cpp
; File C:\Program Files (x86)\Microsoft Visual Studio\2019\Community\VC\Tools\MSVC\14.29.30133\atlmfc\include\afxtempl.h
; File D:\git\src\IBK\IBK_DRFN\ProjSrc\SrcChartEx\ChartAddIn\ChartDataListViewerAddIn\ChartDataListViewerAddIn\DlgDataSimulator.cpp
; File D:\git\src\IBK\IBK_DRFN\ProjSrc\SrcChartEx\ChartAddIn\ChartDataListViewerAddIn\ChartDataListViewerAddIn\ChartDataSimulatorAddInImp.h
; File D:\git\src\IBK\IBK_DRFN\ProjSrc\SrcChartEx\ChartAddIn\ChartDataListViewerAddIn\ChartDataListViewerAddIn\DlgDataSimulator.cpp
; File C:\Program Files (x86)\Microsoft Visual Studio\2019\Community\VC\Tools\MSVC\14.29.30133\atlmfc\include\afxtempl.h
; File D:\git\src\IBK\IBK_DRFN\ProjSrc\SrcChartEx\ChartAddIn\ChartDataListViewerAddIn\ChartDataListViewerAddIn\DlgDataSimulator.cpp
;	COMDAT ?OnBtnInit@CDlgDataSimulator@@IAEXXZ
_TEXT	SEGMENT
_pos$1$ = -28						; size = 4
_this$1$ = -24						; size = 4
_pRecordSet$1$ = -20					; size = 4
_pNewRecordSet$1$ = -16					; size = 4
__$EHRec$ = -12						; size = 12
?OnBtnInit@CDlgDataSimulator@@IAEXXZ PROC		; CDlgDataSimulator::OnBtnInit, COMDAT
; _this$ = ecx

; 979  : {

  00000	55		 push	 ebp
  00001	8b ec		 mov	 ebp, esp
  00003	6a ff		 push	 -1
  00005	68 00 00 00 00	 push	 __ehhandler$?OnBtnInit@CDlgDataSimulator@@IAEXXZ
  0000a	64 a1 00 00 00
	00		 mov	 eax, DWORD PTR fs:0
  00010	50		 push	 eax
  00011	83 ec 10	 sub	 esp, 16			; 00000010H
  00014	53		 push	 ebx
  00015	56		 push	 esi
  00016	57		 push	 edi
  00017	a1 00 00 00 00	 mov	 eax, DWORD PTR ___security_cookie
  0001c	33 c5		 xor	 eax, ebp
  0001e	50		 push	 eax
  0001f	8d 45 f4	 lea	 eax, DWORD PTR __$EHRec$[ebp]
  00022	64 a3 00 00 00
	00		 mov	 DWORD PTR fs:0, eax
  00028	8b d9		 mov	 ebx, ecx
  0002a	89 5d e8	 mov	 DWORD PTR _this$1$[ebp], ebx
; File C:\Program Files (x86)\Microsoft Visual Studio\2019\Community\VC\Tools\MSVC\14.29.30133\atlmfc\include\afxtempl.h

; 786  : 	{ return m_nCount == 0; }

  0002d	8b b3 38 05 00
	00		 mov	 esi, DWORD PTR [ebx+1336]
  00033	83 7e 38 00	 cmp	 DWORD PTR [esi+56], 0
; File D:\git\src\IBK\IBK_DRFN\ProjSrc\SrcChartEx\ChartAddIn\ChartDataListViewerAddIn\ChartDataListViewerAddIn\DlgDataSimulator.cpp

; 157  : 	while(!m_pChartDataGridManager->m_ChartDataList.IsEmpty()) delete m_pChartDataGridManager->m_ChartDataList.RemoveHead();

  00037	0f 84 a0 00 00
	00		 je	 $LN5@OnBtnInit
  0003d	0f 1f 00	 npad	 3
$LL4@OnBtnInit:
; File C:\Program Files (x86)\Microsoft Visual Studio\2019\Community\VC\Tools\MSVC\14.29.30133\atlmfc\include\afxtempl.h

; 1009 : 	ENSURE(m_pNodeHead != NULL);  // don't call on empty list !!!

  00040	8b 4e 30	 mov	 ecx, DWORD PTR [esi+48]
  00043	85 c9		 test	 ecx, ecx
  00045	0f 84 47 01 00
	00		 je	 $LN54@OnBtnInit

; 1010 : 	ASSERT(AfxIsValidAddress(m_pNodeHead, sizeof(CNode)));
; 1011 : 
; 1012 : 	CNode* pOldNode = m_pNodeHead;
; 1013 : 	TYPE returnValue = pOldNode->data;
; 1014 : 
; 1015 : 	m_pNodeHead = pOldNode->pNext;

  0004b	8b 01		 mov	 eax, DWORD PTR [ecx]
  0004d	8b 79 08	 mov	 edi, DWORD PTR [ecx+8]
  00050	89 46 30	 mov	 DWORD PTR [esi+48], eax

; 1016 : 	if (m_pNodeHead != NULL)

  00053	85 c0		 test	 eax, eax
  00055	74 09		 je	 SHORT $LN21@OnBtnInit

; 1017 : 		m_pNodeHead->pPrev = NULL;

  00057	c7 40 04 00 00
	00 00		 mov	 DWORD PTR [eax+4], 0
  0005e	eb 07		 jmp	 SHORT $LN22@OnBtnInit
$LN21@OnBtnInit:

; 1018 : 	else
; 1019 : 		m_pNodeTail = NULL;

  00060	c7 46 34 00 00
	00 00		 mov	 DWORD PTR [esi+52], 0
$LN22@OnBtnInit:

; 938  : 	pNode->pNext = m_pNodeFree;

  00067	8b 46 3c	 mov	 eax, DWORD PTR [esi+60]
  0006a	89 01		 mov	 DWORD PTR [ecx], eax

; 939  : 	m_pNodeFree = pNode;
; 940  : 	m_nCount--;

  0006c	83 46 38 ff	 add	 DWORD PTR [esi+56], -1
  00070	89 4e 3c	 mov	 DWORD PTR [esi+60], ecx

; 941  : 	ASSERT(m_nCount >= 0);  // make sure we don't underflow
; 942  : 
; 943  : 	// if no more elements, cleanup completely
; 944  : 	if (m_nCount == 0)

  00073	75 2b		 jne	 SHORT $LN25@OnBtnInit

; 872  : 	m_pBlocks->FreeDataChain();

  00075	8b 4e 40	 mov	 ecx, DWORD PTR [esi+64]
  00078	c7 46 38 00 00
	00 00		 mov	 DWORD PTR [esi+56], 0
  0007f	c7 46 3c 00 00
	00 00		 mov	 DWORD PTR [esi+60], 0
  00086	c7 46 34 00 00
	00 00		 mov	 DWORD PTR [esi+52], 0
  0008d	c7 46 30 00 00
	00 00		 mov	 DWORD PTR [esi+48], 0
  00094	e8 00 00 00 00	 call	 ?FreeDataChain@CPlex@@QAEXXZ ; CPlex::FreeDataChain

; 873  : 	m_pBlocks = NULL;

  00099	c7 46 40 00 00
	00 00		 mov	 DWORD PTR [esi+64], 0
$LN25@OnBtnInit:
; File D:\git\src\IBK\IBK_DRFN\ProjSrc\SrcChartEx\ChartAddIn\ChartDataListViewerAddIn\ChartDataListViewerAddIn\DlgDataSimulator.cpp

; 157  : 	while(!m_pChartDataGridManager->m_ChartDataList.IsEmpty()) delete m_pChartDataGridManager->m_ChartDataList.RemoveHead();

  000a0	85 ff		 test	 edi, edi
  000a2	74 29		 je	 SHORT $LN34@OnBtnInit
  000a4	ff 35 00 00 00
	00		 push	 DWORD PTR __imp_??1?$CStringT@DV?$StrTraitMFC_DLL@DV?$ChTraitsCRT@D@ATL@@@@@ATL@@QAE@XZ
  000aa	c7 45 fc 00 00
	00 00		 mov	 DWORD PTR __$EHRec$[ebp+8], 0
  000b1	6a 06		 push	 6
  000b3	6a 04		 push	 4
  000b5	57		 push	 edi
  000b6	e8 00 00 00 00	 call	 ??_M@YGXPAXIIP6EX0@Z@Z
  000bb	6a 18		 push	 24			; 00000018H
  000bd	57		 push	 edi
  000be	c7 45 fc ff ff
	ff ff		 mov	 DWORD PTR __$EHRec$[ebp+8], -1
  000c5	e8 00 00 00 00	 call	 ??3@YAXPAXI@Z		; operator delete
  000ca	83 c4 08	 add	 esp, 8
$LN34@OnBtnInit:
; File C:\Program Files (x86)\Microsoft Visual Studio\2019\Community\VC\Tools\MSVC\14.29.30133\atlmfc\include\afxtempl.h

; 786  : 	{ return m_nCount == 0; }

  000cd	8b b3 38 05 00
	00		 mov	 esi, DWORD PTR [ebx+1336]
  000d3	83 7e 38 00	 cmp	 DWORD PTR [esi+56], 0
; File D:\git\src\IBK\IBK_DRFN\ProjSrc\SrcChartEx\ChartAddIn\ChartDataListViewerAddIn\ChartDataListViewerAddIn\DlgDataSimulator.cpp

; 157  : 	while(!m_pChartDataGridManager->m_ChartDataList.IsEmpty()) delete m_pChartDataGridManager->m_ChartDataList.RemoveHead();

  000d7	0f 85 63 ff ff
	ff		 jne	 $LL4@OnBtnInit
$LN5@OnBtnInit:

; 158  : 
; 159  : 	for( POSITION pos = m_CopyChartDataList.GetHeadPosition(); pos; )

  000dd	8b 8b 40 05 00
	00		 mov	 ecx, DWORD PTR [ebx+1344]
  000e3	85 c9		 test	 ecx, ecx
  000e5	0f 84 8e 00 00
	00		 je	 $LN7@OnBtnInit
  000eb	0f 1f 44 00 00	 npad	 5
$LL6@OnBtnInit:

; 160  : 	{
; 161  : 		CChartRecordSet * pRecordSet	= m_CopyChartDataList.GetNext(pos);

  000f0	8b 59 08	 mov	 ebx, DWORD PTR [ecx+8]
; File C:\Program Files (x86)\Microsoft Visual Studio\2019\Community\VC\Tools\MSVC\14.29.30133\atlmfc\include\afxtempl.h

; 813  : 		rPosition = (POSITION) pNode->pNext;

  000f3	8b 09		 mov	 ecx, DWORD PTR [ecx]
; File D:\git\src\IBK\IBK_DRFN\ProjSrc\SrcChartEx\ChartAddIn\ChartDataListViewerAddIn\ChartDataListViewerAddIn\DlgDataSimulator.cpp

; 162  : 		CChartRecordSet * pNewRecordSet = new CChartRecordSet;

  000f5	6a 18		 push	 24			; 00000018H
; File C:\Program Files (x86)\Microsoft Visual Studio\2019\Community\VC\Tools\MSVC\14.29.30133\atlmfc\include\afxtempl.h

; 813  : 		rPosition = (POSITION) pNode->pNext;

  000f7	89 4d e4	 mov	 DWORD PTR _pos$1$[ebp], ecx
; File D:\git\src\IBK\IBK_DRFN\ProjSrc\SrcChartEx\ChartAddIn\ChartDataListViewerAddIn\ChartDataListViewerAddIn\DlgDataSimulator.cpp

; 162  : 		CChartRecordSet * pNewRecordSet = new CChartRecordSet;

  000fa	e8 00 00 00 00	 call	 ??2@YAPAXI@Z		; operator new
  000ff	8b f8		 mov	 edi, eax
  00101	89 45 f0	 mov	 DWORD PTR _pNewRecordSet$1$[ebp], eax
  00104	83 c4 04	 add	 esp, 4
  00107	85 ff		 test	 edi, edi
  00109	74 26		 je	 SHORT $LN12@OnBtnInit
  0010b	ff 35 00 00 00
	00		 push	 DWORD PTR __imp_??1?$CStringT@DV?$StrTraitMFC_DLL@DV?$ChTraitsCRT@D@ATL@@@@@ATL@@QAE@XZ
  00111	c7 45 fc 01 00
	00 00		 mov	 DWORD PTR __$EHRec$[ebp+8], 1
  00118	ff 35 00 00 00
	00		 push	 DWORD PTR __imp_??0?$CStringT@DV?$StrTraitMFC_DLL@DV?$ChTraitsCRT@D@ATL@@@@@ATL@@QAE@XZ
  0011e	6a 06		 push	 6
  00120	6a 04		 push	 4
  00122	57		 push	 edi
  00123	e8 00 00 00 00	 call	 ??_L@YGXPAXIIP6EX0@Z1@Z
  00128	c7 45 fc ff ff
	ff ff		 mov	 DWORD PTR __$EHRec$[ebp+8], -1
  0012f	eb 05		 jmp	 SHORT $LN13@OnBtnInit
$LN12@OnBtnInit:
  00131	33 ff		 xor	 edi, edi
  00133	89 7d f0	 mov	 DWORD PTR _pNewRecordSet$1$[ebp], edi
$LN13@OnBtnInit:
; File D:\git\src\IBK\IBK_DRFN\ProjSrc\SrcChartEx\ChartAddIn\ChartDataListViewerAddIn\ChartDataListViewerAddIn\ChartDataSimulatorAddInImp.h

; 43   : 		for(int i = 0 ; i < COL_SIZE ; i++)

  00136	2b df		 sub	 ebx, edi
  00138	8b f7		 mov	 esi, edi
  0013a	89 5d ec	 mov	 DWORD PTR _pRecordSet$1$[ebp], ebx
  0013d	bb 06 00 00 00	 mov	 ebx, 6
  00142	8b 7d ec	 mov	 edi, DWORD PTR _pRecordSet$1$[ebp]
$LL47@OnBtnInit:

; 44   : 			m_Data[i] = Record.m_Data[i];

  00145	8d 04 37	 lea	 eax, DWORD PTR [edi+esi]
  00148	8b ce		 mov	 ecx, esi
  0014a	50		 push	 eax
  0014b	ff 15 00 00 00
	00		 call	 DWORD PTR __imp_??4?$CStringT@DV?$StrTraitMFC_DLL@DV?$ChTraitsCRT@D@ATL@@@@@ATL@@QAEAAV01@ABV01@@Z
  00151	83 c6 04	 add	 esi, 4
  00154	83 eb 01	 sub	 ebx, 1
  00157	75 ec		 jne	 SHORT $LL47@OnBtnInit
; File D:\git\src\IBK\IBK_DRFN\ProjSrc\SrcChartEx\ChartAddIn\ChartDataListViewerAddIn\ChartDataListViewerAddIn\DlgDataSimulator.cpp

; 164  : 		m_pChartDataGridManager->m_ChartDataList.AddTail(pNewRecordSet);

  00159	8b 5d e8	 mov	 ebx, DWORD PTR _this$1$[ebp]
  0015c	8b 7d f0	 mov	 edi, DWORD PTR _pNewRecordSet$1$[ebp]
  0015f	57		 push	 edi
  00160	8b 8b 38 05 00
	00		 mov	 ecx, DWORD PTR [ebx+1336]
  00166	83 c1 2c	 add	 ecx, 44			; 0000002cH
  00169	e8 00 00 00 00	 call	 ?AddTail@?$CList@PAVCChartRecordSet@@PAV1@@@QAEPAU__POSITION@@PAVCChartRecordSet@@@Z ; CList<CChartRecordSet *,CChartRecordSet *>::AddTail
  0016e	8b 4d e4	 mov	 ecx, DWORD PTR _pos$1$[ebp]
  00171	85 c9		 test	 ecx, ecx
  00173	0f 85 77 ff ff
	ff		 jne	 $LL6@OnBtnInit
$LN7@OnBtnInit:

; 980  : 	InitChartData();
; 981  : 	InitGrid();

  00179	8b cb		 mov	 ecx, ebx
  0017b	e8 00 00 00 00	 call	 ?InitGrid@CDlgDataSimulator@@QAEXXZ ; CDlgDataSimulator::InitGrid

; 982  : }

  00180	8b 4d f4	 mov	 ecx, DWORD PTR __$EHRec$[ebp]
  00183	64 89 0d 00 00
	00 00		 mov	 DWORD PTR fs:0, ecx
  0018a	59		 pop	 ecx
  0018b	5f		 pop	 edi
  0018c	5e		 pop	 esi
  0018d	5b		 pop	 ebx
  0018e	8b e5		 mov	 esp, ebp
  00190	5d		 pop	 ebp
  00191	c3		 ret	 0
$LN54@OnBtnInit:
; File C:\Program Files (x86)\Microsoft Visual Studio\2019\Community\VC\Tools\MSVC\14.29.30133\atlmfc\include\afxtempl.h

; 1009 : 	ENSURE(m_pNodeHead != NULL);  // don't call on empty list !!!

  00192	e8 00 00 00 00	 call	 ?AfxThrowInvalidArgException@@YGXXZ ; AfxThrowInvalidArgException
$LN68@OnBtnInit:
  00197	cc		 int	 3
  00198	cc		 int	 3
  00199	cc		 int	 3
  0019a	cc		 int	 3
  0019b	cc		 int	 3
  0019c	cc		 int	 3
_TEXT	ENDS
;	COMDAT text$x
text$x	SEGMENT
__ehhandler$?OnBtnInit@CDlgDataSimulator@@IAEXXZ:
  00000	90		 npad	 1
  00001	90		 npad	 1
  00002	8b 54 24 08	 mov	 edx, DWORD PTR [esp+8]
  00006	8d 42 0c	 lea	 eax, DWORD PTR [edx+12]
  00009	8b 4a e0	 mov	 ecx, DWORD PTR [edx-32]
  0000c	33 c8		 xor	 ecx, eax
  0000e	e8 00 00 00 00	 call	 @__security_check_cookie@4
  00013	b8 00 00 00 00	 mov	 eax, OFFSET __ehfuncinfo$?OnBtnInit@CDlgDataSimulator@@IAEXXZ
  00018	e9 00 00 00 00	 jmp	 ___CxxFrameHandler3
text$x	ENDS
?OnBtnInit@CDlgDataSimulator@@IAEXXZ ENDP		; CDlgDataSimulator::OnBtnInit
; Function compile flags: /Ogtp
; File D:\git\src\IBK\IBK_DRFN\ProjSrc\SrcChartEx\ChartAddIn\ChartDataListViewerAddIn\ChartDataListViewerAddIn\DlgDataSimulator.cpp
; File C:\Program Files (x86)\Microsoft Visual Studio\2019\Community\VC\Tools\MSVC\14.29.30133\atlmfc\include\afxtempl.h
; File D:\git\src\IBK\IBK_DRFN\ProjSrc\SrcChartEx\ChartAddIn\ChartDataListViewerAddIn\ChartDataListViewerAddIn\DlgDataSimulator.cpp
; File C:\Program Files (x86)\Microsoft Visual Studio\2019\Community\VC\Tools\MSVC\14.29.30133\atlmfc\include\atlsimpstr.h
; File D:\git\src\IBK\IBK_DRFN\ProjSrc\SrcChartEx\ChartAddIn\ChartDataListViewerAddIn\ChartDataListViewerAddIn\DlgDataSimulator.cpp
; File C:\Program Files (x86)\Microsoft Visual Studio\2019\Community\VC\Tools\MSVC\14.29.30133\atlmfc\include\atlsimpstr.h
; File D:\git\src\IBK\IBK_DRFN\ProjSrc\SrcChartEx\ChartAddIn\ChartDataListViewerAddIn\ChartDataListViewerAddIn\DlgDataSimulator.cpp
; File C:\Program Files (x86)\Microsoft Visual Studio\2019\Community\VC\Tools\MSVC\14.29.30133\atlmfc\include\atlsimpstr.h
; File D:\git\src\IBK\IBK_DRFN\ProjSrc\SrcChartEx\ChartAddIn\ChartDataListViewerAddIn\ChartDataListViewerAddIn\DlgDataSimulator.cpp
; File C:\Program Files (x86)\Microsoft Visual Studio\2019\Community\VC\Tools\MSVC\14.29.30133\atlmfc\include\atlsimpstr.h
; File D:\git\src\IBK\IBK_DRFN\ProjSrc\SrcChartEx\ChartAddIn\ChartDataListViewerAddIn\ChartDataListViewerAddIn\DlgDataSimulator.cpp
; File C:\Program Files (x86)\Microsoft Visual Studio\2019\Community\VC\Tools\MSVC\14.29.30133\atlmfc\include\atlsimpstr.h
; File D:\git\src\IBK\IBK_DRFN\ProjSrc\SrcChartEx\ChartAddIn\ChartDataListViewerAddIn\ChartDataListViewerAddIn\DlgDataSimulator.cpp
; File C:\Program Files (x86)\Microsoft Visual Studio\2019\Community\VC\Tools\MSVC\14.29.30133\atlmfc\include\atlsimpstr.h
; File D:\git\src\IBK\IBK_DRFN\ProjSrc\SrcChartEx\ChartAddIn\ChartDataListViewerAddIn\ChartDataListViewerAddIn\DlgDataSimulator.cpp
; File C:\Program Files (x86)\Microsoft Visual Studio\2019\Community\VC\Tools\MSVC\14.29.30133\atlmfc\include\atlsimpstr.h
; File D:\git\src\IBK\IBK_DRFN\ProjSrc\SrcChartEx\ChartAddIn\ChartDataListViewerAddIn\ChartDataListViewerAddIn\DlgDataSimulator.cpp
; File C:\Program Files (x86)\Microsoft Visual Studio\2019\Community\VC\Tools\MSVC\14.29.30133\atlmfc\include\atlsimpstr.h
; File D:\git\src\IBK\IBK_DRFN\ProjSrc\SrcChartEx\ChartAddIn\ChartDataListViewerAddIn\ChartDataListViewerAddIn\DlgDataSimulator.cpp
; File C:\Program Files (x86)\Microsoft Visual Studio\2019\Community\VC\Tools\MSVC\14.29.30133\atlmfc\include\atlsimpstr.h
; File D:\git\src\IBK\IBK_DRFN\ProjSrc\SrcChartEx\ChartAddIn\ChartDataListViewerAddIn\ChartDataListViewerAddIn\DlgDataSimulator.cpp
; File C:\Program Files (x86)\Microsoft Visual Studio\2019\Community\VC\Tools\MSVC\14.29.30133\atlmfc\include\atlsimpstr.h
; File D:\git\src\IBK\IBK_DRFN\ProjSrc\SrcChartEx\ChartAddIn\ChartDataListViewerAddIn\ChartDataListViewerAddIn\DlgDataSimulator.cpp
; File C:\Program Files (x86)\Microsoft Visual Studio\2019\Community\VC\Tools\MSVC\14.29.30133\atlmfc\include\afxtempl.h
; File D:\git\src\IBK\IBK_DRFN\ProjSrc\SrcChartEx\ChartAddIn\ChartDataListViewerAddIn\ChartDataListViewerAddIn\DlgDataSimulator.cpp
; File C:\Program Files (x86)\Microsoft Visual Studio\2019\Community\VC\Tools\MSVC\14.29.30133\atlmfc\include\afxtempl.h
; File D:\git\src\IBK\IBK_DRFN\ProjSrc\SrcChartEx\ChartAddIn\ChartDataListViewerAddIn\ChartDataListViewerAddIn\DlgDataSimulator.cpp
; File C:\Program Files (x86)\Microsoft Visual Studio\2019\Community\VC\Tools\MSVC\14.29.30133\atlmfc\include\afxcoll.inl
; File D:\git\src\IBK\IBK_DRFN\ProjSrc\SrcChartEx\ChartAddIn\ChartDataListViewerAddIn\ChartDataListViewerAddIn\DlgDataSimulator.cpp
; File C:\Program Files (x86)\Microsoft Visual Studio\2019\Community\VC\Tools\MSVC\14.29.30133\atlmfc\include\afxcoll.inl
; File C:\Program Files (x86)\Microsoft Visual Studio\2019\Community\VC\Tools\MSVC\14.29.30133\atlmfc\include\atlsimpstr.h
; File D:\git\src\IBK\IBK_DRFN\ProjSrc\SrcChartEx\ChartAddIn\ChartDataListViewerAddIn\ChartDataListViewerAddIn\DlgDataSimulator.cpp
; File C:\Program Files (x86)\Microsoft Visual Studio\2019\Community\VC\Tools\MSVC\14.29.30133\atlmfc\include\afxcoll.inl
; File D:\git\src\IBK\IBK_DRFN\ProjSrc\SrcChartEx\ChartAddIn\ChartDataListViewerAddIn\ChartDataListViewerAddIn\DlgDataSimulator.cpp
; File C:\Program Files (x86)\Microsoft Visual Studio\2019\Community\VC\Tools\MSVC\14.29.30133\atlmfc\include\afxcoll.inl
; File D:\git\src\IBK\IBK_DRFN\ProjSrc\SrcChartEx\ChartAddIn\ChartDataListViewerAddIn\ChartDataListViewerAddIn\DlgDataSimulator.cpp
; File C:\Program Files (x86)\Microsoft Visual Studio\2019\Community\VC\Tools\MSVC\14.29.30133\atlmfc\include\atlsimpstr.h
; File D:\git\src\IBK\IBK_DRFN\ProjSrc\SrcChartEx\ChartAddIn\ChartDataListViewerAddIn\ChartDataListViewerAddIn\DlgDataSimulator.cpp
; File C:\Program Files (x86)\Microsoft Visual Studio\2019\Community\VC\Tools\MSVC\14.29.30133\atlmfc\include\atlsimpstr.h
; File D:\git\src\IBK\IBK_DRFN\ProjSrc\SrcChartEx\ChartAddIn\ChartDataListViewerAddIn\ChartDataListViewerAddIn\DlgDataSimulator.cpp
; File C:\Program Files (x86)\Microsoft Visual Studio\2019\Community\VC\Tools\MSVC\14.29.30133\atlmfc\include\afxtempl.h
; File D:\git\src\IBK\IBK_DRFN\ProjSrc\SrcChartEx\ChartAddIn\ChartDataListViewerAddIn\ChartDataListViewerAddIn\DlgDataSimulator.cpp
; File C:\Program Files (x86)\Microsoft Visual Studio\2019\Community\VC\Tools\MSVC\14.29.30133\atlmfc\include\afxtempl.h
; File D:\git\src\IBK\IBK_DRFN\ProjSrc\SrcChartEx\ChartAddIn\ChartDataListViewerAddIn\ChartDataListViewerAddIn\DlgDataSimulator.cpp
; File C:\Program Files (x86)\Microsoft Visual Studio\2019\Community\VC\Tools\MSVC\14.29.30133\atlmfc\include\afxtempl.h
; File C:\Program Files (x86)\Windows Kits\10\Include\10.0.22000.0\ucrt\corecrt_memcpy_s.h
; File C:\Program Files (x86)\Microsoft Visual Studio\2019\Community\VC\Tools\MSVC\14.29.30133\atlmfc\include\atlchecked.h
; File C:\Program Files (x86)\Microsoft Visual Studio\2019\Community\VC\Tools\MSVC\14.29.30133\atlmfc\include\afxtempl.h
; File D:\git\src\IBK\IBK_DRFN\ProjSrc\SrcChartEx\ChartAddIn\ChartDataListViewerAddIn\ChartDataListViewerAddIn\DlgDataSimulator.cpp
; File C:\Program Files (x86)\Microsoft Visual Studio\2019\Community\VC\Tools\MSVC\14.29.30133\atlmfc\include\afxtempl.h
; File D:\git\src\IBK\IBK_DRFN\ProjSrc\SrcChartEx\ChartAddIn\ChartDataListViewerAddIn\ChartDataListViewerAddIn\DlgDataSimulator.cpp
; File C:\Program Files (x86)\Microsoft Visual Studio\2019\Community\VC\Tools\MSVC\14.29.30133\atlmfc\include\afxtempl.h
; File D:\git\src\IBK\IBK_DRFN\ProjSrc\SrcChartEx\ChartAddIn\ChartDataListViewerAddIn\ChartDataListViewerAddIn\DlgDataSimulator.cpp
; File C:\Program Files (x86)\Microsoft Visual Studio\2019\Community\VC\Tools\MSVC\14.29.30133\atlmfc\include\afxtempl.h
; File D:\git\src\IBK\IBK_DRFN\ProjSrc\SrcChartEx\ChartAddIn\ChartDataListViewerAddIn\ChartDataListViewerAddIn\DlgDataSimulator.cpp
; File C:\Program Files (x86)\Windows Kits\10\Include\10.0.22000.0\ucrt\corecrt_memcpy_s.h
; File D:\git\src\IBK\IBK_DRFN\ProjSrc\SrcChartEx\ChartAddIn\ChartDataListViewerAddIn\ChartDataListViewerAddIn\DlgDataSimulator.cpp
; File C:\Program Files (x86)\Microsoft Visual Studio\2019\Community\VC\Tools\MSVC\14.29.30133\atlmfc\include\afxtempl.h
; File D:\git\src\IBK\IBK_DRFN\ProjSrc\SrcChartEx\ChartAddIn\ChartDataListViewerAddIn\ChartDataListViewerAddIn\DlgDataSimulator.cpp
; File C:\Program Files (x86)\Microsoft Visual Studio\2019\Community\VC\Tools\MSVC\14.29.30133\atlmfc\include\afxtempl.h
; File D:\git\src\IBK\IBK_DRFN\ProjSrc\SrcChartEx\ChartAddIn\ChartDataListViewerAddIn\ChartDataListViewerAddIn\DlgDataSimulator.cpp
; File C:\Program Files (x86)\Microsoft Visual Studio\2019\Community\VC\Tools\MSVC\14.29.30133\atlmfc\include\afxtempl.h
; File D:\git\src\IBK\IBK_DRFN\ProjSrc\SrcChartEx\ChartAddIn\ChartDataListViewerAddIn\ChartDataListViewerAddIn\DlgDataSimulator.cpp
;	COMDAT ?OnBtnImport@CDlgDataSimulator@@IAEXXZ
_TEXT	SEGMENT
_f$2 = -936						; size = 20
_strRecordArray$3 = -916				; size = 20
_GridHeaderInfoArray$4 = -896				; size = 20
_nDataInterval$1$ = -876				; size = 4
_nDataType$1$ = -872					; size = 4
_nOldSize$1$ = -868					; size = 4
_ChartDataList$5 = -864					; size = 28
_strFilter$ = -836					; size = 4
_strFileName$6 = -832					; size = 4
tv2878 = -828						; size = 4
$T7 = -828						; size = 4
_strHelpMessage$8 = -824				; size = 4
_strHeaderInfo$9 = -820					; size = 4
_strHeaderTitle$10 = -816				; size = 4
_strHeaderPacketType$11 = -812				; size = 4
_this$GSCopy$1$ = -808					; size = 4
_pNewData$1$ = -804					; size = 4
_nHeaderCnt$1$ = -804					; size = 4
$T12 = -804						; size = 4
_strChartData$13 = -800					; size = 4
__S2$1$ = -796						; size = 4
$T14 = -796						; size = 4
_nFindStartPos$2$ = -796				; size = 4
$T15 = -796						; size = 4
_strContents$16 = -792					; size = 4
_strDevider$17 = -788					; size = 4
_strTitle$18 = -788					; size = 4
_strLine$19 = -784					; size = 4
_strMsg$20 = -784					; size = 4
_strTemp$21 = -780					; size = 4
_strLineEndKey$22 = -776				; size = 4
__S1max$1$ = -772					; size = 4
_nLineLastPos$10$ = -772				; size = 4
_strMsg$23 = -772					; size = 4
$T24 = -772						; size = 4
_strMsg$25 = -772					; size = 4
_GridHeaderInfoArray$1$ = -768				; size = 4
_strTitle$26 = -768					; size = 4
_nCount$1$ = -764					; size = 4
_strTitle$27 = -764					; size = 4
$T28 = -764						; size = 4
$T29 = -764						; size = 4
$T30 = -764						; size = 4
$T31 = -764						; size = 4
$T32 = -764						; size = 4
$T33 = -764						; size = 4
$T34 = -764						; size = 4
_strHeader$35 = -760					; size = 4
_strKey$36 = -756					; size = 4
_dlg$ = -752						; size = 736
__$ArrayPad$ = -16					; size = 4
__$EHRec$ = -12						; size = 12
?OnBtnImport@CDlgDataSimulator@@IAEXXZ PROC		; CDlgDataSimulator::OnBtnImport, COMDAT
; _this$ = ecx

; 721  : {

  00000	55		 push	 ebp
  00001	8b ec		 mov	 ebp, esp
  00003	6a ff		 push	 -1
  00005	68 00 00 00 00	 push	 __ehhandler$?OnBtnImport@CDlgDataSimulator@@IAEXXZ
  0000a	64 a1 00 00 00
	00		 mov	 eax, DWORD PTR fs:0
  00010	50		 push	 eax
  00011	81 ec 9c 03 00
	00		 sub	 esp, 924		; 0000039cH
  00017	a1 00 00 00 00	 mov	 eax, DWORD PTR ___security_cookie
  0001c	33 c5		 xor	 eax, ebp
  0001e	89 45 f0	 mov	 DWORD PTR __$ArrayPad$[ebp], eax
  00021	53		 push	 ebx
  00022	56		 push	 esi
  00023	57		 push	 edi
  00024	50		 push	 eax
  00025	8d 45 f4	 lea	 eax, DWORD PTR __$EHRec$[ebp]
  00028	64 a3 00 00 00
	00		 mov	 DWORD PTR fs:0, eax
  0002e	8b d9		 mov	 ebx, ecx
  00030	89 9d d8 fc ff
	ff		 mov	 DWORD PTR _this$GSCopy$1$[ebp], ebx

; 722  : 	if(!m_pChartDataGridManager)

  00036	83 bb 38 05 00
	00 00		 cmp	 DWORD PTR [ebx+1336], 0
  0003d	75 6b		 jne	 SHORT $LN21@OnBtnImpor

; 723  : 	{
; 724  : 		CString strMsg, strTitle;

  0003f	8d 8d f0 fc ff
	ff		 lea	 ecx, DWORD PTR _strMsg$20[ebp]
  00045	ff 15 00 00 00
	00		 call	 DWORD PTR __imp_??0?$CStringT@DV?$StrTraitMFC_DLL@DV?$ChTraitsCRT@D@ATL@@@@@ATL@@QAE@XZ
  0004b	8d 8d ec fc ff
	ff		 lea	 ecx, DWORD PTR _strTitle$18[ebp]
  00051	c7 45 fc 00 00
	00 00		 mov	 DWORD PTR __$EHRec$[ebp+8], 0
  00058	ff 15 00 00 00
	00		 call	 DWORD PTR __imp_??0?$CStringT@DV?$StrTraitMFC_DLL@DV?$ChTraitsCRT@D@ATL@@@@@ATL@@QAE@XZ

; 725  : 		strMsg.LoadString(IDS_MSG_PRICE_DATA_ERROR);

  0005e	6a 11		 push	 17			; 00000011H
  00060	8d 8d f0 fc ff
	ff		 lea	 ecx, DWORD PTR _strMsg$20[ebp]
  00066	c6 45 fc 01	 mov	 BYTE PTR __$EHRec$[ebp+8], 1
  0006a	ff 15 00 00 00
	00		 call	 DWORD PTR __imp_?LoadStringA@?$CStringT@DV?$StrTraitMFC_DLL@DV?$ChTraitsCRT@D@ATL@@@@@ATL@@QAEHI@Z

; 726  : 		GetWindowText(strTitle);

  00070	8d 85 ec fc ff
	ff		 lea	 eax, DWORD PTR _strTitle$18[ebp]
  00076	8b cb		 mov	 ecx, ebx
  00078	50		 push	 eax
  00079	e8 00 00 00 00	 call	 ?GetWindowTextA@CWnd@@QBEXAAV?$CStringT@DV?$StrTraitMFC_DLL@DV?$ChTraitsCRT@D@ATL@@@@@ATL@@@Z ; CWnd::GetWindowTextA

; 727  : 		MessageBox(strMsg, strTitle);

  0007e	6a 00		 push	 0
  00080	ff b5 ec fc ff
	ff		 push	 DWORD PTR _strTitle$18[ebp]
  00086	8b cb		 mov	 ecx, ebx
  00088	ff b5 f0 fc ff
	ff		 push	 DWORD PTR _strMsg$20[ebp]
  0008e	e8 00 00 00 00	 call	 ?MessageBoxA@CWnd@@QAEHPBD0I@Z ; CWnd::MessageBoxA

; 728  : 		return;

  00093	8d 8d ec fc ff
	ff		 lea	 ecx, DWORD PTR _strTitle$18[ebp]
  00099	ff 15 00 00 00
	00		 call	 DWORD PTR __imp_??1?$CStringT@DV?$StrTraitMFC_DLL@DV?$ChTraitsCRT@D@ATL@@@@@ATL@@QAE@XZ
  0009f	8d 8d f0 fc ff
	ff		 lea	 ecx, DWORD PTR _strMsg$20[ebp]
  000a5	e9 e6 10 00 00	 jmp	 $LN611@OnBtnImpor
$LN21@OnBtnImpor:

; 729  : 	}
; 730  : 
; 731  : 	CString strFilter = "DSM Files (*.dsm)|*.dsm||";

  000aa	68 00 00 00 00	 push	 OFFSET ??_C@_0BK@FAEMHIOP@DSM?5Files?5?$CI?$CK?4dsm?$CJ?$HM?$CK?4dsm?$HM?$HM@
  000af	8d 8d bc fc ff
	ff		 lea	 ecx, DWORD PTR _strFilter$[ebp]
  000b5	ff 15 00 00 00
	00		 call	 DWORD PTR __imp_??0?$CStringT@DV?$StrTraitMFC_DLL@DV?$ChTraitsCRT@D@ATL@@@@@ATL@@QAE@PBD@Z

; 732  : 	CFileDialog dlg(TRUE, "dsm", "test.dsm", OFN_HIDEREADONLY|OFN_FILEMUSTEXIST, strFilter);

  000bb	6a 01		 push	 1
  000bd	6a 00		 push	 0
  000bf	6a 00		 push	 0
  000c1	ff b5 bc fc ff
	ff		 push	 DWORD PTR _strFilter$[ebp]
  000c7	8d 8d 10 fd ff
	ff		 lea	 ecx, DWORD PTR _dlg$[ebp]
  000cd	c7 45 fc 02 00
	00 00		 mov	 DWORD PTR __$EHRec$[ebp+8], 2
  000d4	68 04 10 00 00	 push	 4100			; 00001004H
  000d9	68 00 00 00 00	 push	 OFFSET ??_C@_08CNNAGAOE@test?4dsm@
  000de	68 00 00 00 00	 push	 OFFSET ??_C@_03OMBLIDFE@dsm@
  000e3	6a 01		 push	 1
  000e5	e8 00 00 00 00	 call	 ??0CFileDialog@@QAE@HPBD0K0PAVCWnd@@KH@Z ; CFileDialog::CFileDialog

; 733  : 	if(dlg.DoModal() == IDOK)

  000ea	8d 8d 10 fd ff
	ff		 lea	 ecx, DWORD PTR _dlg$[ebp]
  000f0	c6 45 fc 03	 mov	 BYTE PTR __$EHRec$[ebp+8], 3
  000f4	e8 00 00 00 00	 call	 ?DoModal@CFileDialog@@UAEHXZ ; CFileDialog::DoModal
  000f9	83 f8 01	 cmp	 eax, 1
  000fc	0f 85 7d 10 00
	00		 jne	 $LN22@OnBtnImpor

; 734  : 	{
; 735  : 		CString strFileName = dlg.GetPathName();

  00102	8d 85 c0 fc ff
	ff		 lea	 eax, DWORD PTR _strFileName$6[ebp]
  00108	50		 push	 eax
  00109	8d 8d 10 fd ff
	ff		 lea	 ecx, DWORD PTR _dlg$[ebp]
  0010f	e8 00 00 00 00	 call	 ?GetPathName@CFileDialog@@QBE?AV?$CStringT@DV?$StrTraitMFC_DLL@DV?$ChTraitsCRT@D@ATL@@@@@ATL@@XZ ; CFileDialog::GetPathName

; 736  : 
; 737  : 		CFile f;

  00114	8d 8d 58 fc ff
	ff		 lea	 ecx, DWORD PTR _f$2[ebp]
  0011a	c6 45 fc 04	 mov	 BYTE PTR __$EHRec$[ebp+8], 4
  0011e	e8 00 00 00 00	 call	 ??0CFile@@QAE@XZ	; CFile::CFile

; 738  : 		if(!f.Open(strFileName, CFile::modeRead ))

  00123	6a 00		 push	 0
  00125	6a 00		 push	 0
  00127	ff b5 c0 fc ff
	ff		 push	 DWORD PTR _strFileName$6[ebp]
  0012d	8d 8d 58 fc ff
	ff		 lea	 ecx, DWORD PTR _f$2[ebp]
  00133	c6 45 fc 05	 mov	 BYTE PTR __$EHRec$[ebp+8], 5
  00137	e8 00 00 00 00	 call	 ?Open@CFile@@UAEHPBDIPAVCFileException@@@Z ; CFile::Open
  0013c	85 c0		 test	 eax, eax
  0013e	75 64		 jne	 SHORT $LN23@OnBtnImpor

; 739  : 		{
; 740  : 			CString strMsg, strTitle;

  00140	8d 8d fc fc ff
	ff		 lea	 ecx, DWORD PTR _strMsg$25[ebp]
  00146	ff 15 00 00 00
	00		 call	 DWORD PTR __imp_??0?$CStringT@DV?$StrTraitMFC_DLL@DV?$ChTraitsCRT@D@ATL@@@@@ATL@@QAE@XZ
  0014c	8d 8d 00 fd ff
	ff		 lea	 ecx, DWORD PTR _strTitle$26[ebp]
  00152	ff 15 00 00 00
	00		 call	 DWORD PTR __imp_??0?$CStringT@DV?$StrTraitMFC_DLL@DV?$ChTraitsCRT@D@ATL@@@@@ATL@@QAE@XZ

; 741  : 			GetWindowText(strTitle);

  00158	8d 85 00 fd ff
	ff		 lea	 eax, DWORD PTR _strTitle$26[ebp]
  0015e	c6 45 fc 07	 mov	 BYTE PTR __$EHRec$[ebp+8], 7
  00162	50		 push	 eax
  00163	8b cb		 mov	 ecx, ebx
  00165	e8 00 00 00 00	 call	 ?GetWindowTextA@CWnd@@QBEXAAV?$CStringT@DV?$StrTraitMFC_DLL@DV?$ChTraitsCRT@D@ATL@@@@@ATL@@@Z ; CWnd::GetWindowTextA

; 742  : 			strMsg.LoadString(IDS_FAIL_TO_OPEN_FILE);

  0016a	6a 12		 push	 18			; 00000012H
  0016c	8d 8d fc fc ff
	ff		 lea	 ecx, DWORD PTR _strMsg$25[ebp]
  00172	ff 15 00 00 00
	00		 call	 DWORD PTR __imp_?LoadStringA@?$CStringT@DV?$StrTraitMFC_DLL@DV?$ChTraitsCRT@D@ATL@@@@@ATL@@QAEHI@Z

; 743  : 			MessageBox(strMsg, strTitle);

  00178	6a 00		 push	 0
  0017a	ff b5 00 fd ff
	ff		 push	 DWORD PTR _strTitle$26[ebp]
  00180	8b cb		 mov	 ecx, ebx
  00182	ff b5 fc fc ff
	ff		 push	 DWORD PTR _strMsg$25[ebp]
  00188	e8 00 00 00 00	 call	 ?MessageBoxA@CWnd@@QAEHPBD0I@Z ; CWnd::MessageBoxA

; 744  : 			return;

  0018d	8d 8d 00 fd ff
	ff		 lea	 ecx, DWORD PTR _strTitle$26[ebp]
  00193	ff 15 00 00 00
	00		 call	 DWORD PTR __imp_??1?$CStringT@DV?$StrTraitMFC_DLL@DV?$ChTraitsCRT@D@ATL@@@@@ATL@@QAE@XZ
  00199	8d 8d fc fc ff
	ff		 lea	 ecx, DWORD PTR _strMsg$25[ebp]
  0019f	e9 be 0f 00 00	 jmp	 $LN612@OnBtnImpor
$LN23@OnBtnImpor:

; 745  : 		}
; 746  : 
; 747  : 		int		 i, nLineLastPos, nFindStartPos = 0, nDataStartPos = 0;
; 748  : 		int		 nHeaderCnt = 0, nFindPos	= 0;
; 749  : 		long lFileSize			= (long)f.GetLength();

  001a4	8d 8d 58 fc ff
	ff		 lea	 ecx, DWORD PTR _f$2[ebp]
  001aa	e8 00 00 00 00	 call	 ?GetLength@CFile@@UBE_KXZ ; CFile::GetLength
  001af	8b f0		 mov	 esi, eax

; 750  : 		char * pBuffer			= new char[lFileSize];		

  001b1	56		 push	 esi
  001b2	e8 00 00 00 00	 call	 ??_U@YAPAXI@Z		; operator new[]
  001b7	83 c4 04	 add	 esp, 4

; 751  : 		DWORD dwReadLength		= f.Read(pBuffer, lFileSize);//tour2k ReadHuge->Read

  001ba	8d 8d 58 fc ff
	ff		 lea	 ecx, DWORD PTR _f$2[ebp]
  001c0	8b f8		 mov	 edi, eax
  001c2	56		 push	 esi
  001c3	57		 push	 edi
  001c4	e8 00 00 00 00	 call	 ?Read@CFile@@UAEIPAXI@Z	; CFile::Read

; 752  : 		CString strContents		= CString(pBuffer, dwReadLength);

  001c9	50		 push	 eax
  001ca	57		 push	 edi
  001cb	8d 8d e8 fc ff
	ff		 lea	 ecx, DWORD PTR _strContents$16[ebp]
  001d1	ff 15 00 00 00
	00		 call	 DWORD PTR __imp_??0?$CStringT@DV?$StrTraitMFC_DLL@DV?$ChTraitsCRT@D@ATL@@@@@ATL@@QAE@PBDH@Z

; 753  : 		delete [] pBuffer;

  001d7	57		 push	 edi
  001d8	e8 00 00 00 00	 call	 ??_V@YAXPAX@Z		; operator delete[]
  001dd	83 c4 04	 add	 esp, 4

; 754  : 		
; 755  : 		int		nColCount,nDataType, nDataInterval;
; 756  : 		CString strDevider;

  001e0	8d 8d ec fc ff
	ff		 lea	 ecx, DWORD PTR _strDevider$17[ebp]
  001e6	ff 15 00 00 00
	00		 call	 DWORD PTR __imp_??0?$CStringT@DV?$StrTraitMFC_DLL@DV?$ChTraitsCRT@D@ATL@@@@@ATL@@QAE@XZ

; 757  : 		CStringArray	strRecordArray;

  001ec	8d 8d 6c fc ff
	ff		 lea	 ecx, DWORD PTR _strRecordArray$3[ebp]
  001f2	c6 45 fc 09	 mov	 BYTE PTR __$EHRec$[ebp+8], 9
  001f6	e8 00 00 00 00	 call	 ??0CStringArray@@QAE@XZ	; CStringArray::CStringArray

; 758  : 		CString strLine, strChartData, strTemp, strHelpMessage;		

  001fb	8d 8d f0 fc ff
	ff		 lea	 ecx, DWORD PTR _strLine$19[ebp]
  00201	ff 15 00 00 00
	00		 call	 DWORD PTR __imp_??0?$CStringT@DV?$StrTraitMFC_DLL@DV?$ChTraitsCRT@D@ATL@@@@@ATL@@QAE@XZ
  00207	8d 8d e0 fc ff
	ff		 lea	 ecx, DWORD PTR _strChartData$13[ebp]
  0020d	ff 15 00 00 00
	00		 call	 DWORD PTR __imp_??0?$CStringT@DV?$StrTraitMFC_DLL@DV?$ChTraitsCRT@D@ATL@@@@@ATL@@QAE@XZ
  00213	8d 8d f4 fc ff
	ff		 lea	 ecx, DWORD PTR _strTemp$21[ebp]
  00219	ff 15 00 00 00
	00		 call	 DWORD PTR __imp_??0?$CStringT@DV?$StrTraitMFC_DLL@DV?$ChTraitsCRT@D@ATL@@@@@ATL@@QAE@XZ
  0021f	8d 8d c8 fc ff
	ff		 lea	 ecx, DWORD PTR _strHelpMessage$8[ebp]
  00225	ff 15 00 00 00
	00		 call	 DWORD PTR __imp_??0?$CStringT@DV?$StrTraitMFC_DLL@DV?$ChTraitsCRT@D@ATL@@@@@ATL@@QAE@XZ

; 759  : 		CString strHeader, strHeaderInfo, strHeaderTitle, strHeaderPacketType;

  0022b	8d 8d 08 fd ff
	ff		 lea	 ecx, DWORD PTR _strHeader$35[ebp]
  00231	ff 15 00 00 00
	00		 call	 DWORD PTR __imp_??0?$CStringT@DV?$StrTraitMFC_DLL@DV?$ChTraitsCRT@D@ATL@@@@@ATL@@QAE@XZ
  00237	8d 8d cc fc ff
	ff		 lea	 ecx, DWORD PTR _strHeaderInfo$9[ebp]
  0023d	ff 15 00 00 00
	00		 call	 DWORD PTR __imp_??0?$CStringT@DV?$StrTraitMFC_DLL@DV?$ChTraitsCRT@D@ATL@@@@@ATL@@QAE@XZ
  00243	8d 8d d0 fc ff
	ff		 lea	 ecx, DWORD PTR _strHeaderTitle$10[ebp]
  00249	ff 15 00 00 00
	00		 call	 DWORD PTR __imp_??0?$CStringT@DV?$StrTraitMFC_DLL@DV?$ChTraitsCRT@D@ATL@@@@@ATL@@QAE@XZ
  0024f	8d 8d d4 fc ff
	ff		 lea	 ecx, DWORD PTR _strHeaderPacketType$11[ebp]
  00255	ff 15 00 00 00
	00		 call	 DWORD PTR __imp_??0?$CStringT@DV?$StrTraitMFC_DLL@DV?$ChTraitsCRT@D@ATL@@@@@ATL@@QAE@XZ

; 760  : 		CString strKey;

  0025b	8d 8d 0c fd ff
	ff		 lea	 ecx, DWORD PTR _strKey$36[ebp]
  00261	ff 15 00 00 00
	00		 call	 DWORD PTR __imp_??0?$CStringT@DV?$StrTraitMFC_DLL@DV?$ChTraitsCRT@D@ATL@@@@@ATL@@QAE@XZ

; 761  : 		CString strLineEndKey	= "\r\n";

  00267	68 00 00 00 00	 push	 OFFSET ??_C@_02PCIJFNDE@?$AN?6@
  0026c	8d 8d f8 fc ff
	ff		 lea	 ecx, DWORD PTR _strLineEndKey$22[ebp]
  00272	c6 45 fc 13	 mov	 BYTE PTR __$EHRec$[ebp+8], 19 ; 00000013H
  00276	ff 15 00 00 00
	00		 call	 DWORD PTR __imp_??0?$CStringT@DV?$StrTraitMFC_DLL@DV?$ChTraitsCRT@D@ATL@@@@@ATL@@QAE@PBD@Z
; File C:\Program Files (x86)\Microsoft Visual Studio\2019\Community\VC\Tools\MSVC\14.29.30133\atlmfc\include\afxtempl.h

; 851  : {

  0027c	c7 85 a0 fc ff
	ff 00 00 00 00	 mov	 DWORD PTR _ChartDataList$5[ebp], OFFSET ??_7?$CList@PAVCChartRecordSet@@PAV1@@@6B@

; 852  : 	ASSERT(nBlockSize > 0);
; 853  : 
; 854  : 	m_nCount = 0;

  00286	c7 85 ac fc ff
	ff 00 00 00 00	 mov	 DWORD PTR _ChartDataList$5[ebp+12], 0

; 855  : 	m_pNodeHead = m_pNodeTail = m_pNodeFree = NULL;

  00290	c7 85 b0 fc ff
	ff 00 00 00 00	 mov	 DWORD PTR _ChartDataList$5[ebp+16], 0
  0029a	c7 85 a8 fc ff
	ff 00 00 00 00	 mov	 DWORD PTR _ChartDataList$5[ebp+8], 0
  002a4	c7 85 a4 fc ff
	ff 00 00 00 00	 mov	 DWORD PTR _ChartDataList$5[ebp+4], 0

; 856  : 	m_pBlocks = NULL;

  002ae	c7 85 b4 fc ff
	ff 00 00 00 00	 mov	 DWORD PTR _ChartDataList$5[ebp+20], 0

; 857  : 	m_nBlockSize = nBlockSize;

  002b8	c7 85 b8 fc ff
	ff 0a 00 00 00	 mov	 DWORD PTR _ChartDataList$5[ebp+24], 10 ; 0000000aH

; 349  : 	m_pData = NULL;

  002c2	33 ff		 xor	 edi, edi
  002c4	c7 85 80 fc ff
	ff 00 00 00 00	 mov	 DWORD PTR _GridHeaderInfoArray$4[ebp], OFFSET ??_7?$CArray@PAVCChartDataGridHeaderInfo@@PAV1@@@6B@

; 350  : 	m_nSize = m_nMaxSize = m_nGrowBy = 0;

  002ce	33 db		 xor	 ebx, ebx
  002d0	89 bd 00 fd ff
	ff		 mov	 DWORD PTR _GridHeaderInfoArray$1$[ebp], edi
  002d6	89 bd 84 fc ff
	ff		 mov	 DWORD PTR _GridHeaderInfoArray$4[ebp+4], edi
  002dc	89 bd 90 fc ff
	ff		 mov	 DWORD PTR _GridHeaderInfoArray$4[ebp+16], edi
  002e2	89 bd 8c fc ff
	ff		 mov	 DWORD PTR _GridHeaderInfoArray$4[ebp+12], edi
  002e8	89 9d 88 fc ff
	ff		 mov	 DWORD PTR _GridHeaderInfoArray$4[ebp+8], ebx
; File D:\git\src\IBK\IBK_DRFN\ProjSrc\SrcChartEx\ChartAddIn\ChartDataListViewerAddIn\ChartDataListViewerAddIn\DlgDataSimulator.cpp

; 769  : 		strKey		 = "[DATA_START]";

  002ee	68 00 00 00 00	 push	 OFFSET ??_C@_0N@CKGOABHN@?$FLDATA_START?$FN@
  002f3	8d 8d 0c fd ff
	ff		 lea	 ecx, DWORD PTR _strKey$36[ebp]
  002f9	c6 45 fc 16	 mov	 BYTE PTR __$EHRec$[ebp+8], 22 ; 00000016H
  002fd	ff 15 00 00 00
	00		 call	 DWORD PTR __imp_??4?$CStringT@DV?$StrTraitMFC_DLL@DV?$ChTraitsCRT@D@ATL@@@@@ATL@@QAEAAV01@PBD@Z

; 770  : 		if((nFindPos = strContents.Find(strKey, nFindStartPos)) < 0)			goto file_error;

  00303	53		 push	 ebx
  00304	ff b5 0c fd ff
	ff		 push	 DWORD PTR _strKey$36[ebp]
  0030a	8d 8d e8 fc ff
	ff		 lea	 ecx, DWORD PTR _strContents$16[ebp]
  00310	ff 15 00 00 00
	00		 call	 DWORD PTR __imp_?Find@?$CStringT@DV?$StrTraitMFC_DLL@DV?$ChTraitsCRT@D@ATL@@@@@ATL@@QBEHPBDH@Z
  00316	8b f0		 mov	 esi, eax
  00318	85 f6		 test	 esi, esi
  0031a	0f 88 86 0c 00
	00		 js	 $file_error$616

; 771  : 		strHeader    = strContents.Left(nFindPos);//  .

  00320	56		 push	 esi
  00321	8d 85 04 fd ff
	ff		 lea	 eax, DWORD PTR $T34[ebp]
  00327	50		 push	 eax
  00328	8d 8d e8 fc ff
	ff		 lea	 ecx, DWORD PTR _strContents$16[ebp]
  0032e	ff 15 00 00 00
	00		 call	 DWORD PTR __imp_?Left@?$CStringT@DV?$StrTraitMFC_DLL@DV?$ChTraitsCRT@D@ATL@@@@@ATL@@QBE?AV12@H@Z
  00334	50		 push	 eax
  00335	8d 8d 08 fd ff
	ff		 lea	 ecx, DWORD PTR _strHeader$35[ebp]
  0033b	c6 45 fc 17	 mov	 BYTE PTR __$EHRec$[ebp+8], 23 ; 00000017H
  0033f	ff 15 00 00 00
	00		 call	 DWORD PTR __imp_??4?$CStringT@DV?$StrTraitMFC_DLL@DV?$ChTraitsCRT@D@ATL@@@@@ATL@@QAEAAV01@ABV01@@Z
  00345	8d 8d 04 fd ff
	ff		 lea	 ecx, DWORD PTR $T34[ebp]
  0034b	c6 45 fc 16	 mov	 BYTE PTR __$EHRec$[ebp+8], 22 ; 00000016H
  0034f	ff 15 00 00 00
	00		 call	 DWORD PTR __imp_??1?$CStringT@DV?$StrTraitMFC_DLL@DV?$ChTraitsCRT@D@ATL@@@@@ATL@@QAE@XZ

; 772  : 		nFindStartPos= nFindPos;
; 773  : 		
; 774  : 
; 775  : 		if((nLineLastPos = strContents.Find(strLineEndKey, nFindStartPos)) < 0)	goto file_error;		

  00355	56		 push	 esi
  00356	ff b5 f8 fc ff
	ff		 push	 DWORD PTR _strLineEndKey$22[ebp]
  0035c	8d 8d e8 fc ff
	ff		 lea	 ecx, DWORD PTR _strContents$16[ebp]
  00362	ff 15 00 00 00
	00		 call	 DWORD PTR __imp_?Find@?$CStringT@DV?$StrTraitMFC_DLL@DV?$ChTraitsCRT@D@ATL@@@@@ATL@@QBEHPBDH@Z
  00368	85 c0		 test	 eax, eax
  0036a	0f 88 36 0c 00
	00		 js	 $file_error$616
; File C:\Program Files (x86)\Microsoft Visual Studio\2019\Community\VC\Tools\MSVC\14.29.30133\atlmfc\include\atlsimpstr.h

; 519  : 		return( GetData()->nDataLength );

  00370	8b 8d f8 fc ff
	ff		 mov	 ecx, DWORD PTR _strLineEndKey$22[ebp]
; File D:\git\src\IBK\IBK_DRFN\ProjSrc\SrcChartEx\ChartAddIn\ChartDataListViewerAddIn\ChartDataListViewerAddIn\DlgDataSimulator.cpp

; 782  : 		strKey = "HELP_MSG";

  00376	68 00 00 00 00	 push	 OFFSET ??_C@_08JABLAAOM@HELP_MSG@
; File C:\Program Files (x86)\Microsoft Visual Studio\2019\Community\VC\Tools\MSVC\14.29.30133\atlmfc\include\atlsimpstr.h

; 519  : 		return( GetData()->nDataLength );

  0037b	8b 49 f4	 mov	 ecx, DWORD PTR [ecx-12]
; File D:\git\src\IBK\IBK_DRFN\ProjSrc\SrcChartEx\ChartAddIn\ChartDataListViewerAddIn\ChartDataListViewerAddIn\DlgDataSimulator.cpp

; 776  : 		nDataStartPos= nLineLastPos + strLineEndKey.GetLength();// 

  0037e	03 c1		 add	 eax, ecx

; 782  : 		strKey = "HELP_MSG";

  00380	8d 8d 0c fd ff
	ff		 lea	 ecx, DWORD PTR _strKey$36[ebp]
  00386	89 85 e4 fc ff
	ff		 mov	 DWORD PTR _nFindStartPos$2$[ebp], eax
  0038c	ff 15 00 00 00
	00		 call	 DWORD PTR __imp_??4?$CStringT@DV?$StrTraitMFC_DLL@DV?$ChTraitsCRT@D@ATL@@@@@ATL@@QAEAAV01@PBD@Z

; 783  : 		if((nFindPos = strHeader.Find(strKey)) < 0) goto file_error;

  00392	53		 push	 ebx
  00393	ff b5 0c fd ff
	ff		 push	 DWORD PTR _strKey$36[ebp]
  00399	8d 8d 08 fd ff
	ff		 lea	 ecx, DWORD PTR _strHeader$35[ebp]
  0039f	ff 15 00 00 00
	00		 call	 DWORD PTR __imp_?Find@?$CStringT@DV?$StrTraitMFC_DLL@DV?$ChTraitsCRT@D@ATL@@@@@ATL@@QBEHPBDH@Z
  003a5	8b f0		 mov	 esi, eax
  003a7	85 f6		 test	 esi, esi
  003a9	0f 88 f7 0b 00
	00		 js	 $file_error$616

; 784  : 		nFindStartPos= nFindPos;
; 785  : 
; 786  : 		strKey = "=";		

  003af	68 00 00 00 00	 push	 OFFSET ??_C@_01NEMOKFLO@?$DN@
  003b4	8d 8d 0c fd ff
	ff		 lea	 ecx, DWORD PTR _strKey$36[ebp]
  003ba	ff 15 00 00 00
	00		 call	 DWORD PTR __imp_??4?$CStringT@DV?$StrTraitMFC_DLL@DV?$ChTraitsCRT@D@ATL@@@@@ATL@@QAEAAV01@PBD@Z

; 787  : 		if((nFindPos = strHeader.Find(strKey, nFindStartPos)) < 0) goto file_error;		

  003c0	56		 push	 esi
  003c1	ff b5 0c fd ff
	ff		 push	 DWORD PTR _strKey$36[ebp]
  003c7	8d 8d 08 fd ff
	ff		 lea	 ecx, DWORD PTR _strHeader$35[ebp]
  003cd	ff 15 00 00 00
	00		 call	 DWORD PTR __imp_?Find@?$CStringT@DV?$StrTraitMFC_DLL@DV?$ChTraitsCRT@D@ATL@@@@@ATL@@QBEHPBDH@Z
  003d3	8b f0		 mov	 esi, eax
  003d5	85 f6		 test	 esi, esi
  003d7	0f 88 c9 0b 00
	00		 js	 $file_error$616

; 788  : 
; 789  : 		nFindStartPos   = nFindPos;
; 790  : 		if((nLineLastPos= strHeader.Find(strLineEndKey, nFindStartPos)) < 0) goto file_error;		

  003dd	56		 push	 esi
  003de	ff b5 f8 fc ff
	ff		 push	 DWORD PTR _strLineEndKey$22[ebp]
  003e4	8d 8d 08 fd ff
	ff		 lea	 ecx, DWORD PTR _strHeader$35[ebp]
  003ea	ff 15 00 00 00
	00		 call	 DWORD PTR __imp_?Find@?$CStringT@DV?$StrTraitMFC_DLL@DV?$ChTraitsCRT@D@ATL@@@@@ATL@@QBEHPBDH@Z
  003f0	85 c0		 test	 eax, eax
  003f2	0f 88 ae 0b 00
	00		 js	 $file_error$616
; File C:\Program Files (x86)\Microsoft Visual Studio\2019\Community\VC\Tools\MSVC\14.29.30133\atlmfc\include\atlsimpstr.h

; 519  : 		return( GetData()->nDataLength );

  003f8	8b 8d 0c fd ff
	ff		 mov	 ecx, DWORD PTR _strKey$36[ebp]
  003fe	8b 49 f4	 mov	 ecx, DWORD PTR [ecx-12]
; File D:\git\src\IBK\IBK_DRFN\ProjSrc\SrcChartEx\ChartAddIn\ChartDataListViewerAddIn\ChartDataListViewerAddIn\DlgDataSimulator.cpp

; 791  : 		strHelpMessage  = strHeader.Mid(nFindPos + strKey.GetLength(), nLineLastPos - (nFindStartPos + strKey.GetLength()));

  00401	2b c1		 sub	 eax, ecx
  00403	2b c6		 sub	 eax, esi
  00405	50		 push	 eax
  00406	8d 04 31	 lea	 eax, DWORD PTR [ecx+esi]
  00409	50		 push	 eax
  0040a	8d 85 04 fd ff
	ff		 lea	 eax, DWORD PTR $T33[ebp]
  00410	50		 push	 eax
  00411	8d 8d 08 fd ff
	ff		 lea	 ecx, DWORD PTR _strHeader$35[ebp]
  00417	ff 15 00 00 00
	00		 call	 DWORD PTR __imp_?Mid@?$CStringT@DV?$StrTraitMFC_DLL@DV?$ChTraitsCRT@D@ATL@@@@@ATL@@QBE?AV12@HH@Z
  0041d	50		 push	 eax
  0041e	8d 8d c8 fc ff
	ff		 lea	 ecx, DWORD PTR _strHelpMessage$8[ebp]
  00424	c6 45 fc 18	 mov	 BYTE PTR __$EHRec$[ebp+8], 24 ; 00000018H
  00428	ff 15 00 00 00
	00		 call	 DWORD PTR __imp_??4?$CStringT@DV?$StrTraitMFC_DLL@DV?$ChTraitsCRT@D@ATL@@@@@ATL@@QAEAAV01@ABV01@@Z
  0042e	8d 8d 04 fd ff
	ff		 lea	 ecx, DWORD PTR $T33[ebp]
  00434	c6 45 fc 16	 mov	 BYTE PTR __$EHRec$[ebp+8], 22 ; 00000016H
  00438	ff 15 00 00 00
	00		 call	 DWORD PTR __imp_??1?$CStringT@DV?$StrTraitMFC_DLL@DV?$ChTraitsCRT@D@ATL@@@@@ATL@@QAE@XZ

; 792  : 
; 793  : 
; 794  : 		//1.  
; 795  : 		strKey = "DATA_TYPE";

  0043e	68 00 00 00 00	 push	 OFFSET ??_C@_09BGCBKCBH@DATA_TYPE@
  00443	8d 8d 0c fd ff
	ff		 lea	 ecx, DWORD PTR _strKey$36[ebp]
  00449	ff 15 00 00 00
	00		 call	 DWORD PTR __imp_??4?$CStringT@DV?$StrTraitMFC_DLL@DV?$ChTraitsCRT@D@ATL@@@@@ATL@@QAEAAV01@PBD@Z

; 796  : 		if((nFindPos = strHeader.Find(strKey)) < 0) goto file_error;

  0044f	53		 push	 ebx
  00450	ff b5 0c fd ff
	ff		 push	 DWORD PTR _strKey$36[ebp]
  00456	8d 8d 08 fd ff
	ff		 lea	 ecx, DWORD PTR _strHeader$35[ebp]
  0045c	ff 15 00 00 00
	00		 call	 DWORD PTR __imp_?Find@?$CStringT@DV?$StrTraitMFC_DLL@DV?$ChTraitsCRT@D@ATL@@@@@ATL@@QBEHPBDH@Z
  00462	8b f0		 mov	 esi, eax
  00464	85 f6		 test	 esi, esi
  00466	0f 88 3a 0b 00
	00		 js	 $file_error$616

; 797  : 		nFindStartPos= nFindPos;
; 798  : 
; 799  : 		strKey = "=";		

  0046c	68 00 00 00 00	 push	 OFFSET ??_C@_01NEMOKFLO@?$DN@
  00471	8d 8d 0c fd ff
	ff		 lea	 ecx, DWORD PTR _strKey$36[ebp]
  00477	ff 15 00 00 00
	00		 call	 DWORD PTR __imp_??4?$CStringT@DV?$StrTraitMFC_DLL@DV?$ChTraitsCRT@D@ATL@@@@@ATL@@QAEAAV01@PBD@Z

; 800  : 		if((nFindPos = strHeader.Find(strKey, nFindStartPos)) < 0) goto file_error;		

  0047d	56		 push	 esi
  0047e	ff b5 0c fd ff
	ff		 push	 DWORD PTR _strKey$36[ebp]
  00484	8d 8d 08 fd ff
	ff		 lea	 ecx, DWORD PTR _strHeader$35[ebp]
  0048a	ff 15 00 00 00
	00		 call	 DWORD PTR __imp_?Find@?$CStringT@DV?$StrTraitMFC_DLL@DV?$ChTraitsCRT@D@ATL@@@@@ATL@@QBEHPBDH@Z
  00490	8b f0		 mov	 esi, eax
  00492	85 f6		 test	 esi, esi
  00494	0f 88 0c 0b 00
	00		 js	 $file_error$616

; 801  : 
; 802  : 		nFindStartPos   = nFindPos;
; 803  : 		if((nLineLastPos = strHeader.Find(strLineEndKey, nFindStartPos)) < 0) goto file_error;		

  0049a	56		 push	 esi
  0049b	ff b5 f8 fc ff
	ff		 push	 DWORD PTR _strLineEndKey$22[ebp]
  004a1	8d 8d 08 fd ff
	ff		 lea	 ecx, DWORD PTR _strHeader$35[ebp]
  004a7	ff 15 00 00 00
	00		 call	 DWORD PTR __imp_?Find@?$CStringT@DV?$StrTraitMFC_DLL@DV?$ChTraitsCRT@D@ATL@@@@@ATL@@QBEHPBDH@Z
  004ad	85 c0		 test	 eax, eax
  004af	0f 88 f1 0a 00
	00		 js	 $file_error$616
; File C:\Program Files (x86)\Microsoft Visual Studio\2019\Community\VC\Tools\MSVC\14.29.30133\atlmfc\include\atlsimpstr.h

; 519  : 		return( GetData()->nDataLength );

  004b5	8b 8d 0c fd ff
	ff		 mov	 ecx, DWORD PTR _strKey$36[ebp]
  004bb	8b 49 f4	 mov	 ecx, DWORD PTR [ecx-12]
; File D:\git\src\IBK\IBK_DRFN\ProjSrc\SrcChartEx\ChartAddIn\ChartDataListViewerAddIn\ChartDataListViewerAddIn\DlgDataSimulator.cpp

; 804  : 		strTemp		= strHeader.Mid(nFindPos + strKey.GetLength(), nLineLastPos - (nFindStartPos + strKey.GetLength()));

  004be	2b c1		 sub	 eax, ecx
  004c0	2b c6		 sub	 eax, esi
  004c2	50		 push	 eax
  004c3	8d 04 31	 lea	 eax, DWORD PTR [ecx+esi]
  004c6	50		 push	 eax
  004c7	8d 85 04 fd ff
	ff		 lea	 eax, DWORD PTR $T32[ebp]
  004cd	50		 push	 eax
  004ce	8d 8d 08 fd ff
	ff		 lea	 ecx, DWORD PTR _strHeader$35[ebp]
  004d4	ff 15 00 00 00
	00		 call	 DWORD PTR __imp_?Mid@?$CStringT@DV?$StrTraitMFC_DLL@DV?$ChTraitsCRT@D@ATL@@@@@ATL@@QBE?AV12@HH@Z
  004da	50		 push	 eax
  004db	8d 8d f4 fc ff
	ff		 lea	 ecx, DWORD PTR _strTemp$21[ebp]
  004e1	c6 45 fc 19	 mov	 BYTE PTR __$EHRec$[ebp+8], 25 ; 00000019H
  004e5	ff 15 00 00 00
	00		 call	 DWORD PTR __imp_??4?$CStringT@DV?$StrTraitMFC_DLL@DV?$ChTraitsCRT@D@ATL@@@@@ATL@@QAEAAV01@ABV01@@Z
  004eb	8d 8d 04 fd ff
	ff		 lea	 ecx, DWORD PTR $T32[ebp]
  004f1	c6 45 fc 16	 mov	 BYTE PTR __$EHRec$[ebp+8], 22 ; 00000016H
  004f5	ff 15 00 00 00
	00		 call	 DWORD PTR __imp_??1?$CStringT@DV?$StrTraitMFC_DLL@DV?$ChTraitsCRT@D@ATL@@@@@ATL@@QAE@XZ

; 805  : 		nDataType	= atoi(strTemp);

  004fb	ff b5 f4 fc ff
	ff		 push	 DWORD PTR _strTemp$21[ebp]
  00501	8b 3d 00 00 00
	00		 mov	 edi, DWORD PTR __imp__atoi
  00507	ff d7		 call	 edi
  00509	83 c4 04	 add	 esp, 4
  0050c	89 85 98 fc ff
	ff		 mov	 DWORD PTR _nDataType$1$[ebp], eax

; 806  : 
; 807  : 		//2.  
; 808  : 		strKey = "DATA_INTERVAL";

  00512	8d 8d 0c fd ff
	ff		 lea	 ecx, DWORD PTR _strKey$36[ebp]
  00518	68 00 00 00 00	 push	 OFFSET ??_C@_0O@DBOGNELG@DATA_INTERVAL@
  0051d	ff 15 00 00 00
	00		 call	 DWORD PTR __imp_??4?$CStringT@DV?$StrTraitMFC_DLL@DV?$ChTraitsCRT@D@ATL@@@@@ATL@@QAEAAV01@PBD@Z

; 809  : 		if((nFindPos = strHeader.Find(strKey)) < 0) goto file_error;

  00523	53		 push	 ebx
  00524	ff b5 0c fd ff
	ff		 push	 DWORD PTR _strKey$36[ebp]
  0052a	8d 8d 08 fd ff
	ff		 lea	 ecx, DWORD PTR _strHeader$35[ebp]
  00530	ff 15 00 00 00
	00		 call	 DWORD PTR __imp_?Find@?$CStringT@DV?$StrTraitMFC_DLL@DV?$ChTraitsCRT@D@ATL@@@@@ATL@@QBEHPBDH@Z
  00536	8b f0		 mov	 esi, eax
  00538	85 f6		 test	 esi, esi
  0053a	0f 88 64 0a 00
	00		 js	 $LN608@OnBtnImpor

; 810  : 		nFindStartPos= nFindPos;
; 811  : 
; 812  : 		strKey = "=";		

  00540	68 00 00 00 00	 push	 OFFSET ??_C@_01NEMOKFLO@?$DN@
  00545	8d 8d 0c fd ff
	ff		 lea	 ecx, DWORD PTR _strKey$36[ebp]
  0054b	ff 15 00 00 00
	00		 call	 DWORD PTR __imp_??4?$CStringT@DV?$StrTraitMFC_DLL@DV?$ChTraitsCRT@D@ATL@@@@@ATL@@QAEAAV01@PBD@Z

; 813  : 		if((nFindPos = strHeader.Find(strKey, nFindStartPos)) < 0) goto file_error;		

  00551	56		 push	 esi
  00552	ff b5 0c fd ff
	ff		 push	 DWORD PTR _strKey$36[ebp]
  00558	8d 8d 08 fd ff
	ff		 lea	 ecx, DWORD PTR _strHeader$35[ebp]
  0055e	ff 15 00 00 00
	00		 call	 DWORD PTR __imp_?Find@?$CStringT@DV?$StrTraitMFC_DLL@DV?$ChTraitsCRT@D@ATL@@@@@ATL@@QBEHPBDH@Z
  00564	8b f0		 mov	 esi, eax
  00566	85 f6		 test	 esi, esi
  00568	0f 88 36 0a 00
	00		 js	 $LN608@OnBtnImpor

; 814  : 
; 815  : 		nFindStartPos   = nFindPos;
; 816  : 		if((nLineLastPos= strHeader.Find(strLineEndKey, nFindStartPos)) < 0) goto file_error;

  0056e	56		 push	 esi
  0056f	ff b5 f8 fc ff
	ff		 push	 DWORD PTR _strLineEndKey$22[ebp]
  00575	8d 8d 08 fd ff
	ff		 lea	 ecx, DWORD PTR _strHeader$35[ebp]
  0057b	ff 15 00 00 00
	00		 call	 DWORD PTR __imp_?Find@?$CStringT@DV?$StrTraitMFC_DLL@DV?$ChTraitsCRT@D@ATL@@@@@ATL@@QBEHPBDH@Z
  00581	85 c0		 test	 eax, eax
  00583	0f 88 1b 0a 00
	00		 js	 $LN608@OnBtnImpor
; File C:\Program Files (x86)\Microsoft Visual Studio\2019\Community\VC\Tools\MSVC\14.29.30133\atlmfc\include\atlsimpstr.h

; 519  : 		return( GetData()->nDataLength );

  00589	8b 8d 0c fd ff
	ff		 mov	 ecx, DWORD PTR _strKey$36[ebp]
  0058f	8b 49 f4	 mov	 ecx, DWORD PTR [ecx-12]
; File D:\git\src\IBK\IBK_DRFN\ProjSrc\SrcChartEx\ChartAddIn\ChartDataListViewerAddIn\ChartDataListViewerAddIn\DlgDataSimulator.cpp

; 817  : 		strTemp			= strHeader.Mid(nFindPos + strKey.GetLength(), nLineLastPos - (nFindStartPos + strKey.GetLength()));

  00592	2b c1		 sub	 eax, ecx
  00594	2b c6		 sub	 eax, esi
  00596	50		 push	 eax
  00597	8d 04 31	 lea	 eax, DWORD PTR [ecx+esi]
  0059a	50		 push	 eax
  0059b	8d 85 04 fd ff
	ff		 lea	 eax, DWORD PTR $T31[ebp]
  005a1	50		 push	 eax
  005a2	8d 8d 08 fd ff
	ff		 lea	 ecx, DWORD PTR _strHeader$35[ebp]
  005a8	ff 15 00 00 00
	00		 call	 DWORD PTR __imp_?Mid@?$CStringT@DV?$StrTraitMFC_DLL@DV?$ChTraitsCRT@D@ATL@@@@@ATL@@QBE?AV12@HH@Z
  005ae	50		 push	 eax
  005af	8d 8d f4 fc ff
	ff		 lea	 ecx, DWORD PTR _strTemp$21[ebp]
  005b5	c6 45 fc 1a	 mov	 BYTE PTR __$EHRec$[ebp+8], 26 ; 0000001aH
  005b9	ff 15 00 00 00
	00		 call	 DWORD PTR __imp_??4?$CStringT@DV?$StrTraitMFC_DLL@DV?$ChTraitsCRT@D@ATL@@@@@ATL@@QAEAAV01@ABV01@@Z
  005bf	8d 8d 04 fd ff
	ff		 lea	 ecx, DWORD PTR $T31[ebp]
  005c5	c6 45 fc 16	 mov	 BYTE PTR __$EHRec$[ebp+8], 22 ; 00000016H
  005c9	ff 15 00 00 00
	00		 call	 DWORD PTR __imp_??1?$CStringT@DV?$StrTraitMFC_DLL@DV?$ChTraitsCRT@D@ATL@@@@@ATL@@QAE@XZ

; 818  : 		nDataInterval = atoi(strTemp);

  005cf	ff b5 f4 fc ff
	ff		 push	 DWORD PTR _strTemp$21[ebp]
  005d5	ff d7		 call	 edi
  005d7	83 c4 04	 add	 esp, 4

; 819  : 
; 820  : 		//3.   
; 821  : 		strKey = "DATA_DATE_TIME";

  005da	8d 8d 0c fd ff
	ff		 lea	 ecx, DWORD PTR _strKey$36[ebp]
  005e0	68 00 00 00 00	 push	 OFFSET ??_C@_0P@IHFCANCK@DATA_DATE_TIME@
  005e5	ff 15 00 00 00
	00		 call	 DWORD PTR __imp_??4?$CStringT@DV?$StrTraitMFC_DLL@DV?$ChTraitsCRT@D@ATL@@@@@ATL@@QAEAAV01@PBD@Z

; 822  : 		if((nFindPos = strHeader.Find(strKey)) < 0) goto file_error;

  005eb	53		 push	 ebx
  005ec	ff b5 0c fd ff
	ff		 push	 DWORD PTR _strKey$36[ebp]
  005f2	8d 8d 08 fd ff
	ff		 lea	 ecx, DWORD PTR _strHeader$35[ebp]
  005f8	ff 15 00 00 00
	00		 call	 DWORD PTR __imp_?Find@?$CStringT@DV?$StrTraitMFC_DLL@DV?$ChTraitsCRT@D@ATL@@@@@ATL@@QBEHPBDH@Z
  005fe	8b f0		 mov	 esi, eax
  00600	85 f6		 test	 esi, esi
  00602	0f 88 9c 09 00
	00		 js	 $LN608@OnBtnImpor

; 823  : 		nFindStartPos= nFindPos;
; 824  : 
; 825  : 		strKey = "=";

  00608	68 00 00 00 00	 push	 OFFSET ??_C@_01NEMOKFLO@?$DN@
  0060d	8d 8d 0c fd ff
	ff		 lea	 ecx, DWORD PTR _strKey$36[ebp]
  00613	ff 15 00 00 00
	00		 call	 DWORD PTR __imp_??4?$CStringT@DV?$StrTraitMFC_DLL@DV?$ChTraitsCRT@D@ATL@@@@@ATL@@QAEAAV01@PBD@Z

; 826  : 		if((nFindPos = strHeader.Find(strKey, nFindStartPos)) < 0) goto file_error;		

  00619	56		 push	 esi
  0061a	ff b5 0c fd ff
	ff		 push	 DWORD PTR _strKey$36[ebp]
  00620	8d 8d 08 fd ff
	ff		 lea	 ecx, DWORD PTR _strHeader$35[ebp]
  00626	ff 15 00 00 00
	00		 call	 DWORD PTR __imp_?Find@?$CStringT@DV?$StrTraitMFC_DLL@DV?$ChTraitsCRT@D@ATL@@@@@ATL@@QBEHPBDH@Z
  0062c	8b f0		 mov	 esi, eax
  0062e	85 f6		 test	 esi, esi
  00630	0f 88 6e 09 00
	00		 js	 $LN608@OnBtnImpor

; 827  : 
; 828  : 		nFindStartPos   = nFindPos;
; 829  : 		if((nLineLastPos= strHeader.Find(strLineEndKey, nFindStartPos)) < 0) goto file_error;

  00636	56		 push	 esi
  00637	ff b5 f8 fc ff
	ff		 push	 DWORD PTR _strLineEndKey$22[ebp]
  0063d	8d 8d 08 fd ff
	ff		 lea	 ecx, DWORD PTR _strHeader$35[ebp]
  00643	ff 15 00 00 00
	00		 call	 DWORD PTR __imp_?Find@?$CStringT@DV?$StrTraitMFC_DLL@DV?$ChTraitsCRT@D@ATL@@@@@ATL@@QBEHPBDH@Z
  00649	85 c0		 test	 eax, eax
  0064b	0f 88 53 09 00
	00		 js	 $LN608@OnBtnImpor
; File C:\Program Files (x86)\Microsoft Visual Studio\2019\Community\VC\Tools\MSVC\14.29.30133\atlmfc\include\atlsimpstr.h

; 519  : 		return( GetData()->nDataLength );

  00651	8b 8d 0c fd ff
	ff		 mov	 ecx, DWORD PTR _strKey$36[ebp]
  00657	8b 49 f4	 mov	 ecx, DWORD PTR [ecx-12]
; File D:\git\src\IBK\IBK_DRFN\ProjSrc\SrcChartEx\ChartAddIn\ChartDataListViewerAddIn\ChartDataListViewerAddIn\DlgDataSimulator.cpp

; 830  : 		strTemp			= strHeader.Mid(nFindPos + strKey.GetLength(), nLineLastPos - (nFindStartPos + strKey.GetLength()));

  0065a	2b c1		 sub	 eax, ecx
  0065c	2b c6		 sub	 eax, esi
  0065e	50		 push	 eax
  0065f	8d 04 31	 lea	 eax, DWORD PTR [ecx+esi]
  00662	50		 push	 eax
  00663	8d 85 04 fd ff
	ff		 lea	 eax, DWORD PTR $T30[ebp]
  00669	50		 push	 eax
  0066a	8d 8d 08 fd ff
	ff		 lea	 ecx, DWORD PTR _strHeader$35[ebp]
  00670	ff 15 00 00 00
	00		 call	 DWORD PTR __imp_?Mid@?$CStringT@DV?$StrTraitMFC_DLL@DV?$ChTraitsCRT@D@ATL@@@@@ATL@@QBE?AV12@HH@Z
  00676	50		 push	 eax
  00677	8d 8d f4 fc ff
	ff		 lea	 ecx, DWORD PTR _strTemp$21[ebp]
  0067d	c6 45 fc 1b	 mov	 BYTE PTR __$EHRec$[ebp+8], 27 ; 0000001bH
  00681	ff 15 00 00 00
	00		 call	 DWORD PTR __imp_??4?$CStringT@DV?$StrTraitMFC_DLL@DV?$ChTraitsCRT@D@ATL@@@@@ATL@@QAEAAV01@ABV01@@Z
  00687	8d 8d 04 fd ff
	ff		 lea	 ecx, DWORD PTR $T30[ebp]
  0068d	c6 45 fc 16	 mov	 BYTE PTR __$EHRec$[ebp+8], 22 ; 00000016H
  00691	ff 15 00 00 00
	00		 call	 DWORD PTR __imp_??1?$CStringT@DV?$StrTraitMFC_DLL@DV?$ChTraitsCRT@D@ATL@@@@@ATL@@QAE@XZ

; 831  : 		nDataInterval = atoi(strTemp);

  00697	ff b5 f4 fc ff
	ff		 push	 DWORD PTR _strTemp$21[ebp]
  0069d	ff d7		 call	 edi
  0069f	83 c4 04	 add	 esp, 4
  006a2	89 85 94 fc ff
	ff		 mov	 DWORD PTR _nDataInterval$1$[ebp], eax

; 832  : 
; 833  : 		//4.  .
; 834  : 		strKey = "HEADER_CNT";

  006a8	8d 8d 0c fd ff
	ff		 lea	 ecx, DWORD PTR _strKey$36[ebp]
  006ae	68 00 00 00 00	 push	 OFFSET ??_C@_0L@CEBKMFHP@HEADER_CNT@
  006b3	ff 15 00 00 00
	00		 call	 DWORD PTR __imp_??4?$CStringT@DV?$StrTraitMFC_DLL@DV?$ChTraitsCRT@D@ATL@@@@@ATL@@QAEAAV01@PBD@Z

; 835  : 		if((nFindPos = strHeader.Find(strKey)) < 0) goto file_error;

  006b9	53		 push	 ebx
  006ba	ff b5 0c fd ff
	ff		 push	 DWORD PTR _strKey$36[ebp]
  006c0	8d 8d 08 fd ff
	ff		 lea	 ecx, DWORD PTR _strHeader$35[ebp]
  006c6	ff 15 00 00 00
	00		 call	 DWORD PTR __imp_?Find@?$CStringT@DV?$StrTraitMFC_DLL@DV?$ChTraitsCRT@D@ATL@@@@@ATL@@QBEHPBDH@Z
  006cc	8b f0		 mov	 esi, eax
  006ce	85 f6		 test	 esi, esi
  006d0	0f 88 ce 08 00
	00		 js	 $LN608@OnBtnImpor

; 836  : 		nFindStartPos= nFindPos;
; 837  : 
; 838  : 		strKey = "=";		

  006d6	68 00 00 00 00	 push	 OFFSET ??_C@_01NEMOKFLO@?$DN@
  006db	8d 8d 0c fd ff
	ff		 lea	 ecx, DWORD PTR _strKey$36[ebp]
  006e1	ff 15 00 00 00
	00		 call	 DWORD PTR __imp_??4?$CStringT@DV?$StrTraitMFC_DLL@DV?$ChTraitsCRT@D@ATL@@@@@ATL@@QAEAAV01@PBD@Z

; 839  : 		if((nFindPos = strHeader.Find(strKey, nFindStartPos)) < 0) goto file_error;		

  006e7	56		 push	 esi
  006e8	ff b5 0c fd ff
	ff		 push	 DWORD PTR _strKey$36[ebp]
  006ee	8d 8d 08 fd ff
	ff		 lea	 ecx, DWORD PTR _strHeader$35[ebp]
  006f4	ff 15 00 00 00
	00		 call	 DWORD PTR __imp_?Find@?$CStringT@DV?$StrTraitMFC_DLL@DV?$ChTraitsCRT@D@ATL@@@@@ATL@@QBEHPBDH@Z
  006fa	8b f0		 mov	 esi, eax
  006fc	85 f6		 test	 esi, esi
  006fe	0f 88 a0 08 00
	00		 js	 $LN608@OnBtnImpor

; 840  : 
; 841  : 		nFindStartPos   = nFindPos;
; 842  : 		if((nLineLastPos = strHeader.Find(strLineEndKey, nFindStartPos)) < 0) goto file_error;

  00704	56		 push	 esi
  00705	ff b5 f8 fc ff
	ff		 push	 DWORD PTR _strLineEndKey$22[ebp]
  0070b	8d 8d 08 fd ff
	ff		 lea	 ecx, DWORD PTR _strHeader$35[ebp]
  00711	ff 15 00 00 00
	00		 call	 DWORD PTR __imp_?Find@?$CStringT@DV?$StrTraitMFC_DLL@DV?$ChTraitsCRT@D@ATL@@@@@ATL@@QBEHPBDH@Z
  00717	85 c0		 test	 eax, eax
  00719	0f 88 85 08 00
	00		 js	 $LN608@OnBtnImpor
; File C:\Program Files (x86)\Microsoft Visual Studio\2019\Community\VC\Tools\MSVC\14.29.30133\atlmfc\include\atlsimpstr.h

; 519  : 		return( GetData()->nDataLength );

  0071f	8b 8d 0c fd ff
	ff		 mov	 ecx, DWORD PTR _strKey$36[ebp]
  00725	8b 49 f4	 mov	 ecx, DWORD PTR [ecx-12]
; File D:\git\src\IBK\IBK_DRFN\ProjSrc\SrcChartEx\ChartAddIn\ChartDataListViewerAddIn\ChartDataListViewerAddIn\DlgDataSimulator.cpp

; 844  : 		strTemp		= strHeader.Mid(nFindPos + strKey.GetLength(), nLineLastPos - (nFindStartPos + strKey.GetLength()));

  00728	2b c1		 sub	 eax, ecx
  0072a	2b c6		 sub	 eax, esi
  0072c	50		 push	 eax
  0072d	8d 04 31	 lea	 eax, DWORD PTR [ecx+esi]
  00730	50		 push	 eax
  00731	8d 85 04 fd ff
	ff		 lea	 eax, DWORD PTR $T29[ebp]
  00737	50		 push	 eax
  00738	8d 8d 08 fd ff
	ff		 lea	 ecx, DWORD PTR _strHeader$35[ebp]
  0073e	ff 15 00 00 00
	00		 call	 DWORD PTR __imp_?Mid@?$CStringT@DV?$StrTraitMFC_DLL@DV?$ChTraitsCRT@D@ATL@@@@@ATL@@QBE?AV12@HH@Z
  00744	50		 push	 eax
  00745	8d 8d f4 fc ff
	ff		 lea	 ecx, DWORD PTR _strTemp$21[ebp]
  0074b	c6 45 fc 1c	 mov	 BYTE PTR __$EHRec$[ebp+8], 28 ; 0000001cH
  0074f	ff 15 00 00 00
	00		 call	 DWORD PTR __imp_??4?$CStringT@DV?$StrTraitMFC_DLL@DV?$ChTraitsCRT@D@ATL@@@@@ATL@@QAEAAV01@ABV01@@Z
  00755	8d 8d 04 fd ff
	ff		 lea	 ecx, DWORD PTR $T29[ebp]
  0075b	c6 45 fc 16	 mov	 BYTE PTR __$EHRec$[ebp+8], 22 ; 00000016H
  0075f	ff 15 00 00 00
	00		 call	 DWORD PTR __imp_??1?$CStringT@DV?$StrTraitMFC_DLL@DV?$ChTraitsCRT@D@ATL@@@@@ATL@@QAE@XZ

; 845  : 		nHeaderCnt  = atoi(strTemp);

  00765	ff b5 f4 fc ff
	ff		 push	 DWORD PTR _strTemp$21[ebp]
  0076b	ff d7		 call	 edi
  0076d	83 c4 04	 add	 esp, 4
  00770	89 85 dc fc ff
	ff		 mov	 DWORD PTR _nHeaderCnt$1$[ebp], eax

; 846  : 
; 847  : 		//nHeaderCnt = atoi(strHeader.Mid(nFindPos, nLineLastPos - (nFindStartPos + strKey.GetLength())));
; 848  : 		
; 849  : 		if(nHeaderCnt <= 0) 

  00776	33 ff		 xor	 edi, edi
  00778	85 c0		 test	 eax, eax
  0077a	0f 8e 26 08 00
	00		 jle	 $file_error$616
$LL4@OnBtnImpor:

; 855  : 		{
; 856  : 			strKey.Format("HEADER_%d", i);

  00780	57		 push	 edi
  00781	8d 85 0c fd ff
	ff		 lea	 eax, DWORD PTR _strKey$36[ebp]
  00787	68 00 00 00 00	 push	 OFFSET ??_C@_09OBFBDHKE@HEADER_?$CFd@
  0078c	50		 push	 eax
  0078d	ff 15 00 00 00
	00		 call	 DWORD PTR __imp_?Format@?$CStringT@DV?$StrTraitMFC_DLL@DV?$ChTraitsCRT@D@ATL@@@@@ATL@@QAAXPBDZZ
  00793	83 c4 0c	 add	 esp, 12			; 0000000cH

; 857  : 			if((nFindPos = strHeader.Find(strKey)) < 0) goto file_error;

  00796	8d 8d 08 fd ff
	ff		 lea	 ecx, DWORD PTR _strHeader$35[ebp]
  0079c	6a 00		 push	 0
  0079e	ff b5 0c fd ff
	ff		 push	 DWORD PTR _strKey$36[ebp]
  007a4	ff 15 00 00 00
	00		 call	 DWORD PTR __imp_?Find@?$CStringT@DV?$StrTraitMFC_DLL@DV?$ChTraitsCRT@D@ATL@@@@@ATL@@QBEHPBDH@Z
  007aa	8b f0		 mov	 esi, eax
  007ac	85 f6		 test	 esi, esi
  007ae	0f 88 e8 07 00
	00		 js	 $LN590@OnBtnImpor

; 858  : 			nFindStartPos= nFindPos;
; 859  : 
; 860  : 			strKey = "=";		

  007b4	68 00 00 00 00	 push	 OFFSET ??_C@_01NEMOKFLO@?$DN@
  007b9	8d 8d 0c fd ff
	ff		 lea	 ecx, DWORD PTR _strKey$36[ebp]
  007bf	ff 15 00 00 00
	00		 call	 DWORD PTR __imp_??4?$CStringT@DV?$StrTraitMFC_DLL@DV?$ChTraitsCRT@D@ATL@@@@@ATL@@QAEAAV01@PBD@Z

; 861  : 			if((nFindPos = strHeader.Find(strKey, nFindStartPos)) < 0) goto file_error;		

  007c5	56		 push	 esi
  007c6	ff b5 0c fd ff
	ff		 push	 DWORD PTR _strKey$36[ebp]
  007cc	8d 8d 08 fd ff
	ff		 lea	 ecx, DWORD PTR _strHeader$35[ebp]
  007d2	ff 15 00 00 00
	00		 call	 DWORD PTR __imp_?Find@?$CStringT@DV?$StrTraitMFC_DLL@DV?$ChTraitsCRT@D@ATL@@@@@ATL@@QBEHPBDH@Z
  007d8	8b f0		 mov	 esi, eax
  007da	85 f6		 test	 esi, esi
  007dc	0f 88 ba 07 00
	00		 js	 $LN590@OnBtnImpor

; 862  : 
; 863  : 			nFindStartPos   = nFindPos;
; 864  : 			if((nLineLastPos = strHeader.Find(strLineEndKey, nFindStartPos)) < 0) goto file_error;

  007e2	56		 push	 esi
  007e3	ff b5 f8 fc ff
	ff		 push	 DWORD PTR _strLineEndKey$22[ebp]
  007e9	8d 8d 08 fd ff
	ff		 lea	 ecx, DWORD PTR _strHeader$35[ebp]
  007ef	ff 15 00 00 00
	00		 call	 DWORD PTR __imp_?Find@?$CStringT@DV?$StrTraitMFC_DLL@DV?$ChTraitsCRT@D@ATL@@@@@ATL@@QBEHPBDH@Z
  007f5	85 c0		 test	 eax, eax
  007f7	0f 88 9f 07 00
	00		 js	 $LN590@OnBtnImpor
; File C:\Program Files (x86)\Microsoft Visual Studio\2019\Community\VC\Tools\MSVC\14.29.30133\atlmfc\include\atlsimpstr.h

; 519  : 		return( GetData()->nDataLength );

  007fd	8b 8d 0c fd ff
	ff		 mov	 ecx, DWORD PTR _strKey$36[ebp]
  00803	8b 49 f4	 mov	 ecx, DWORD PTR [ecx-12]
; File D:\git\src\IBK\IBK_DRFN\ProjSrc\SrcChartEx\ChartAddIn\ChartDataListViewerAddIn\ChartDataListViewerAddIn\DlgDataSimulator.cpp

; 865  : 			strHeaderInfo = strHeader.Mid(nFindPos + strKey.GetLength(), nLineLastPos - (nFindStartPos + strKey.GetLength()));

  00806	2b c1		 sub	 eax, ecx
  00808	2b c6		 sub	 eax, esi
  0080a	50		 push	 eax
  0080b	8d 04 31	 lea	 eax, DWORD PTR [ecx+esi]
  0080e	50		 push	 eax
  0080f	8d 85 04 fd ff
	ff		 lea	 eax, DWORD PTR $T28[ebp]
  00815	50		 push	 eax
  00816	8d 8d 08 fd ff
	ff		 lea	 ecx, DWORD PTR _strHeader$35[ebp]
  0081c	ff 15 00 00 00
	00		 call	 DWORD PTR __imp_?Mid@?$CStringT@DV?$StrTraitMFC_DLL@DV?$ChTraitsCRT@D@ATL@@@@@ATL@@QBE?AV12@HH@Z
  00822	50		 push	 eax
  00823	8d 8d cc fc ff
	ff		 lea	 ecx, DWORD PTR _strHeaderInfo$9[ebp]
  00829	c6 45 fc 1d	 mov	 BYTE PTR __$EHRec$[ebp+8], 29 ; 0000001dH
  0082d	ff 15 00 00 00
	00		 call	 DWORD PTR __imp_??4?$CStringT@DV?$StrTraitMFC_DLL@DV?$ChTraitsCRT@D@ATL@@@@@ATL@@QAEAAV01@ABV01@@Z
  00833	8d 8d 04 fd ff
	ff		 lea	 ecx, DWORD PTR $T28[ebp]
  00839	c6 45 fc 16	 mov	 BYTE PTR __$EHRec$[ebp+8], 22 ; 00000016H
  0083d	ff 15 00 00 00
	00		 call	 DWORD PTR __imp_??1?$CStringT@DV?$StrTraitMFC_DLL@DV?$ChTraitsCRT@D@ATL@@@@@ATL@@QAE@XZ

; 866  : 
; 867  : 
; 868  : 			strKey.Format("HEADER_TITLE_%d", i);

  00843	57		 push	 edi
  00844	8d 85 0c fd ff
	ff		 lea	 eax, DWORD PTR _strKey$36[ebp]
  0084a	68 00 00 00 00	 push	 OFFSET ??_C@_0BA@FMNMKAPJ@HEADER_TITLE_?$CFd@
  0084f	50		 push	 eax
  00850	ff 15 00 00 00
	00		 call	 DWORD PTR __imp_?Format@?$CStringT@DV?$StrTraitMFC_DLL@DV?$ChTraitsCRT@D@ATL@@@@@ATL@@QAAXPBDZZ
  00856	83 c4 0c	 add	 esp, 12			; 0000000cH

; 869  : 			if((nFindPos = strHeader.Find(strKey)) < 0) goto file_error;

  00859	8d 8d 08 fd ff
	ff		 lea	 ecx, DWORD PTR _strHeader$35[ebp]
  0085f	6a 00		 push	 0
  00861	ff b5 0c fd ff
	ff		 push	 DWORD PTR _strKey$36[ebp]
  00867	ff 15 00 00 00
	00		 call	 DWORD PTR __imp_?Find@?$CStringT@DV?$StrTraitMFC_DLL@DV?$ChTraitsCRT@D@ATL@@@@@ATL@@QBEHPBDH@Z
  0086d	8b f0		 mov	 esi, eax
  0086f	85 f6		 test	 esi, esi
  00871	0f 88 25 07 00
	00		 js	 $LN590@OnBtnImpor

; 870  : 			nFindStartPos= nFindPos;
; 871  : 
; 872  : 			strKey = "=";		

  00877	68 00 00 00 00	 push	 OFFSET ??_C@_01NEMOKFLO@?$DN@
  0087c	8d 8d 0c fd ff
	ff		 lea	 ecx, DWORD PTR _strKey$36[ebp]
  00882	ff 15 00 00 00
	00		 call	 DWORD PTR __imp_??4?$CStringT@DV?$StrTraitMFC_DLL@DV?$ChTraitsCRT@D@ATL@@@@@ATL@@QAEAAV01@PBD@Z

; 873  : 			if((nFindPos = strHeader.Find(strKey, nFindStartPos)) < 0) goto file_error;		

  00888	56		 push	 esi
  00889	ff b5 0c fd ff
	ff		 push	 DWORD PTR _strKey$36[ebp]
  0088f	8d 8d 08 fd ff
	ff		 lea	 ecx, DWORD PTR _strHeader$35[ebp]
  00895	ff 15 00 00 00
	00		 call	 DWORD PTR __imp_?Find@?$CStringT@DV?$StrTraitMFC_DLL@DV?$ChTraitsCRT@D@ATL@@@@@ATL@@QBEHPBDH@Z
  0089b	8b f0		 mov	 esi, eax
  0089d	85 f6		 test	 esi, esi
  0089f	0f 88 f7 06 00
	00		 js	 $LN590@OnBtnImpor

; 874  : 
; 875  : 			nFindStartPos   = nFindPos;
; 876  : 			if((nLineLastPos= strHeader.Find(strLineEndKey, nFindStartPos)) < 0) goto file_error;

  008a5	56		 push	 esi
  008a6	ff b5 f8 fc ff
	ff		 push	 DWORD PTR _strLineEndKey$22[ebp]
  008ac	8d 8d 08 fd ff
	ff		 lea	 ecx, DWORD PTR _strHeader$35[ebp]
  008b2	ff 15 00 00 00
	00		 call	 DWORD PTR __imp_?Find@?$CStringT@DV?$StrTraitMFC_DLL@DV?$ChTraitsCRT@D@ATL@@@@@ATL@@QBEHPBDH@Z
  008b8	85 c0		 test	 eax, eax
  008ba	0f 88 dc 06 00
	00		 js	 $LN590@OnBtnImpor
; File C:\Program Files (x86)\Microsoft Visual Studio\2019\Community\VC\Tools\MSVC\14.29.30133\atlmfc\include\atlsimpstr.h

; 519  : 		return( GetData()->nDataLength );

  008c0	8b 8d 0c fd ff
	ff		 mov	 ecx, DWORD PTR _strKey$36[ebp]
  008c6	8b 49 f4	 mov	 ecx, DWORD PTR [ecx-12]
; File D:\git\src\IBK\IBK_DRFN\ProjSrc\SrcChartEx\ChartAddIn\ChartDataListViewerAddIn\ChartDataListViewerAddIn\DlgDataSimulator.cpp

; 877  : 			strHeaderTitle	= strHeader.Mid(nFindPos + strKey.GetLength(), nLineLastPos - (nFindStartPos + strKey.GetLength()));

  008c9	2b c1		 sub	 eax, ecx
  008cb	2b c6		 sub	 eax, esi
  008cd	50		 push	 eax
  008ce	8d 04 31	 lea	 eax, DWORD PTR [ecx+esi]
  008d1	50		 push	 eax
  008d2	8d 85 fc fc ff
	ff		 lea	 eax, DWORD PTR $T24[ebp]
  008d8	50		 push	 eax
  008d9	8d 8d 08 fd ff
	ff		 lea	 ecx, DWORD PTR _strHeader$35[ebp]
  008df	ff 15 00 00 00
	00		 call	 DWORD PTR __imp_?Mid@?$CStringT@DV?$StrTraitMFC_DLL@DV?$ChTraitsCRT@D@ATL@@@@@ATL@@QBE?AV12@HH@Z
  008e5	50		 push	 eax
  008e6	8d 8d d0 fc ff
	ff		 lea	 ecx, DWORD PTR _strHeaderTitle$10[ebp]
  008ec	c6 45 fc 1e	 mov	 BYTE PTR __$EHRec$[ebp+8], 30 ; 0000001eH
  008f0	ff 15 00 00 00
	00		 call	 DWORD PTR __imp_??4?$CStringT@DV?$StrTraitMFC_DLL@DV?$ChTraitsCRT@D@ATL@@@@@ATL@@QAEAAV01@ABV01@@Z
  008f6	8d 8d fc fc ff
	ff		 lea	 ecx, DWORD PTR $T24[ebp]
  008fc	c6 45 fc 16	 mov	 BYTE PTR __$EHRec$[ebp+8], 22 ; 00000016H
  00900	ff 15 00 00 00
	00		 call	 DWORD PTR __imp_??1?$CStringT@DV?$StrTraitMFC_DLL@DV?$ChTraitsCRT@D@ATL@@@@@ATL@@QAE@XZ

; 878  : 
; 879  : 
; 880  : 			strKey.Format("HEADER_PACKETTYPE_%d", i);

  00906	57		 push	 edi
  00907	8d 85 0c fd ff
	ff		 lea	 eax, DWORD PTR _strKey$36[ebp]
  0090d	68 00 00 00 00	 push	 OFFSET ??_C@_0BF@JDDJJJHA@HEADER_PACKETTYPE_?$CFd@
  00912	50		 push	 eax
  00913	ff 15 00 00 00
	00		 call	 DWORD PTR __imp_?Format@?$CStringT@DV?$StrTraitMFC_DLL@DV?$ChTraitsCRT@D@ATL@@@@@ATL@@QAAXPBDZZ
  00919	83 c4 0c	 add	 esp, 12			; 0000000cH

; 881  : 			if((nFindPos = strHeader.Find(strKey)) < 0) goto file_error;

  0091c	8d 8d 08 fd ff
	ff		 lea	 ecx, DWORD PTR _strHeader$35[ebp]
  00922	6a 00		 push	 0
  00924	ff b5 0c fd ff
	ff		 push	 DWORD PTR _strKey$36[ebp]
  0092a	ff 15 00 00 00
	00		 call	 DWORD PTR __imp_?Find@?$CStringT@DV?$StrTraitMFC_DLL@DV?$ChTraitsCRT@D@ATL@@@@@ATL@@QBEHPBDH@Z
  00930	8b f0		 mov	 esi, eax
  00932	85 f6		 test	 esi, esi
  00934	0f 88 62 06 00
	00		 js	 $LN590@OnBtnImpor

; 882  : 			nFindStartPos= nFindPos;
; 883  : 
; 884  : 			strKey = "=";		

  0093a	68 00 00 00 00	 push	 OFFSET ??_C@_01NEMOKFLO@?$DN@
  0093f	8d 8d 0c fd ff
	ff		 lea	 ecx, DWORD PTR _strKey$36[ebp]
  00945	ff 15 00 00 00
	00		 call	 DWORD PTR __imp_??4?$CStringT@DV?$StrTraitMFC_DLL@DV?$ChTraitsCRT@D@ATL@@@@@ATL@@QAEAAV01@PBD@Z

; 885  : 			if((nFindPos = strHeader.Find(strKey, nFindStartPos)) < 0) goto file_error;		

  0094b	56		 push	 esi
  0094c	ff b5 0c fd ff
	ff		 push	 DWORD PTR _strKey$36[ebp]
  00952	8d 8d 08 fd ff
	ff		 lea	 ecx, DWORD PTR _strHeader$35[ebp]
  00958	ff 15 00 00 00
	00		 call	 DWORD PTR __imp_?Find@?$CStringT@DV?$StrTraitMFC_DLL@DV?$ChTraitsCRT@D@ATL@@@@@ATL@@QBEHPBDH@Z
  0095e	8b f0		 mov	 esi, eax
  00960	85 f6		 test	 esi, esi
  00962	0f 88 34 06 00
	00		 js	 $LN590@OnBtnImpor

; 886  : 
; 887  : 			nFindStartPos   = nFindPos;
; 888  : 			if((nLineLastPos= strHeader.Find(strLineEndKey, nFindStartPos)) < 0) goto file_error;

  00968	56		 push	 esi
  00969	ff b5 f8 fc ff
	ff		 push	 DWORD PTR _strLineEndKey$22[ebp]
  0096f	8d 8d 08 fd ff
	ff		 lea	 ecx, DWORD PTR _strHeader$35[ebp]
  00975	ff 15 00 00 00
	00		 call	 DWORD PTR __imp_?Find@?$CStringT@DV?$StrTraitMFC_DLL@DV?$ChTraitsCRT@D@ATL@@@@@ATL@@QBEHPBDH@Z
  0097b	85 c0		 test	 eax, eax
  0097d	0f 88 19 06 00
	00		 js	 $LN590@OnBtnImpor
; File C:\Program Files (x86)\Microsoft Visual Studio\2019\Community\VC\Tools\MSVC\14.29.30133\atlmfc\include\atlsimpstr.h

; 519  : 		return( GetData()->nDataLength );

  00983	8b 8d 0c fd ff
	ff		 mov	 ecx, DWORD PTR _strKey$36[ebp]
  00989	8b 49 f4	 mov	 ecx, DWORD PTR [ecx-12]
; File D:\git\src\IBK\IBK_DRFN\ProjSrc\SrcChartEx\ChartAddIn\ChartDataListViewerAddIn\ChartDataListViewerAddIn\DlgDataSimulator.cpp

; 889  : 			strHeaderPacketType	= strHeader.Mid(nFindPos + strKey.GetLength(), nLineLastPos - (nFindStartPos + strKey.GetLength()));

  0098c	2b c1		 sub	 eax, ecx
  0098e	2b c6		 sub	 eax, esi
  00990	50		 push	 eax
  00991	8d 04 31	 lea	 eax, DWORD PTR [ecx+esi]
  00994	50		 push	 eax
  00995	8d 85 c4 fc ff
	ff		 lea	 eax, DWORD PTR $T7[ebp]
  0099b	50		 push	 eax
  0099c	8d 8d 08 fd ff
	ff		 lea	 ecx, DWORD PTR _strHeader$35[ebp]
  009a2	ff 15 00 00 00
	00		 call	 DWORD PTR __imp_?Mid@?$CStringT@DV?$StrTraitMFC_DLL@DV?$ChTraitsCRT@D@ATL@@@@@ATL@@QBE?AV12@HH@Z
  009a8	50		 push	 eax
  009a9	8d 8d d4 fc ff
	ff		 lea	 ecx, DWORD PTR _strHeaderPacketType$11[ebp]
  009af	c6 45 fc 1f	 mov	 BYTE PTR __$EHRec$[ebp+8], 31 ; 0000001fH
  009b3	ff 15 00 00 00
	00		 call	 DWORD PTR __imp_??4?$CStringT@DV?$StrTraitMFC_DLL@DV?$ChTraitsCRT@D@ATL@@@@@ATL@@QAEAAV01@ABV01@@Z
  009b9	8d 8d c4 fc ff
	ff		 lea	 ecx, DWORD PTR $T7[ebp]
  009bf	c6 45 fc 16	 mov	 BYTE PTR __$EHRec$[ebp+8], 22 ; 00000016H
  009c3	ff 15 00 00 00
	00		 call	 DWORD PTR __imp_??1?$CStringT@DV?$StrTraitMFC_DLL@DV?$ChTraitsCRT@D@ATL@@@@@ATL@@QAE@XZ

; 890  : 
; 891  : 			pHeaderInfo = new CChartDataGridHeaderInfo;

  009c9	6a 0c		 push	 12			; 0000000cH
  009cb	e8 00 00 00 00	 call	 ??2@YAPAXI@Z		; operator new
  009d0	83 c4 04	 add	 esp, 4
  009d3	85 c0		 test	 eax, eax
  009d5	74 0b		 je	 SHORT $LN81@OnBtnImpor
  009d7	8b c8		 mov	 ecx, eax
  009d9	e8 00 00 00 00	 call	 ??0CChartDataGridHeaderInfo@@QAE@XZ
  009de	8b f0		 mov	 esi, eax
  009e0	eb 02		 jmp	 SHORT $LN82@OnBtnImpor
$LN81@OnBtnImpor:
  009e2	33 f6		 xor	 esi, esi
$LN82@OnBtnImpor:

; 892  : 			pHeaderInfo->m_strTitle = strHeaderTitle;

  009e4	8d 85 d0 fc ff
	ff		 lea	 eax, DWORD PTR _strHeaderTitle$10[ebp]
  009ea	50		 push	 eax
  009eb	8d 4e 04	 lea	 ecx, DWORD PTR [esi+4]
  009ee	ff 15 00 00 00
	00		 call	 DWORD PTR __imp_??4?$CStringT@DV?$StrTraitMFC_DLL@DV?$ChTraitsCRT@D@ATL@@@@@ATL@@QAEAAV01@ABV01@@Z

; 893  : 			pHeaderInfo->m_strHeader= strHeaderInfo;

  009f4	8d 85 cc fc ff
	ff		 lea	 eax, DWORD PTR _strHeaderInfo$9[ebp]
  009fa	8b ce		 mov	 ecx, esi
  009fc	50		 push	 eax
  009fd	ff 15 00 00 00
	00		 call	 DWORD PTR __imp_??4?$CStringT@DV?$StrTraitMFC_DLL@DV?$ChTraitsCRT@D@ATL@@@@@ATL@@QAEAAV01@ABV01@@Z

; 894  : 			pHeaderInfo->m_strPacketType=strHeaderPacketType;

  00a03	8d 85 d4 fc ff
	ff		 lea	 eax, DWORD PTR _strHeaderPacketType$11[ebp]
  00a09	50		 push	 eax
  00a0a	8d 4e 08	 lea	 ecx, DWORD PTR [esi+8]
  00a0d	ff 15 00 00 00
	00		 call	 DWORD PTR __imp_??4?$CStringT@DV?$StrTraitMFC_DLL@DV?$ChTraitsCRT@D@ATL@@@@@ATL@@QAEAAV01@ABV01@@Z
; File C:\Program Files (x86)\Microsoft Visual Studio\2019\Community\VC\Tools\MSVC\14.29.30133\atlmfc\include\afxtempl.h

; 333  : 	{ INT_PTR nIndex = m_nSize;

  00a13	85 db		 test	 ebx, ebx

; 538  : 	if(nIndex < 0)

  00a15	0f 88 97 07 00
	00		 js	 $LN570@OnBtnImpor

; 539  : 		AfxThrowInvalidArgException();
; 540  : 
; 541  : 	if (nIndex >= m_nSize)
; 542  : 		SetSize(nIndex+1, -1);

  00a1b	6a ff		 push	 -1
  00a1d	8d 43 01	 lea	 eax, DWORD PTR [ebx+1]
  00a20	50		 push	 eax
  00a21	8d 8d 80 fc ff
	ff		 lea	 ecx, DWORD PTR _GridHeaderInfoArray$4[ebp]
  00a27	e8 00 00 00 00	 call	 ?SetSize@?$CArray@PAVCChartDataGridHeaderInfo@@PAV1@@@QAEXHH@Z ; CArray<CChartDataGridHeaderInfo *,CChartDataGridHeaderInfo *>::SetSize

; 543  : 	m_pData[nIndex] = newElement;

  00a2c	8b 85 84 fc ff
	ff		 mov	 eax, DWORD PTR _GridHeaderInfoArray$4[ebp+4]
; File D:\git\src\IBK\IBK_DRFN\ProjSrc\SrcChartEx\ChartAddIn\ChartDataListViewerAddIn\ChartDataListViewerAddIn\DlgDataSimulator.cpp

; 854  : 		for( i = 0 ; i < nHeaderCnt ; i++ )

  00a32	47		 inc	 edi
; File C:\Program Files (x86)\Microsoft Visual Studio\2019\Community\VC\Tools\MSVC\14.29.30133\atlmfc\include\afxtempl.h

; 543  : 	m_pData[nIndex] = newElement;

  00a33	89 85 00 fd ff
	ff		 mov	 DWORD PTR _GridHeaderInfoArray$1$[ebp], eax
  00a39	89 34 98	 mov	 DWORD PTR [eax+ebx*4], esi
; File D:\git\src\IBK\IBK_DRFN\ProjSrc\SrcChartEx\ChartAddIn\ChartDataListViewerAddIn\ChartDataListViewerAddIn\DlgDataSimulator.cpp

; 854  : 		for( i = 0 ; i < nHeaderCnt ; i++ )

  00a3c	3b bd dc fc ff
	ff		 cmp	 edi, DWORD PTR _nHeaderCnt$1$[ebp]
  00a42	7d 0b		 jge	 SHORT $LN588@OnBtnImpor
  00a44	8b 9d 88 fc ff
	ff		 mov	 ebx, DWORD PTR _GridHeaderInfoArray$4[ebp+8]
  00a4a	e9 31 fd ff ff	 jmp	 $LL4@OnBtnImpor
$LN588@OnBtnImpor:

; 895  : 			GridHeaderInfoArray.Add(pHeaderInfo);			
; 896  : 
; 897  : 		}			
; 898  : 
; 899  : 		//  .
; 900  : 		nColCount		= GridHeaderInfoArray.GetSize();
; 901  : 		strDevider		= ";";

  00a4f	68 00 00 00 00	 push	 OFFSET ??_C@_01ICJEACDI@?$DL@
  00a54	8d 8d ec fc ff
	ff		 lea	 ecx, DWORD PTR _strDevider$17[ebp]
  00a5a	ff 15 00 00 00
	00		 call	 DWORD PTR __imp_??4?$CStringT@DV?$StrTraitMFC_DLL@DV?$ChTraitsCRT@D@ATL@@@@@ATL@@QAEAAV01@PBD@Z

; 904  : 		while((nLineLastPos = strContents.Find(strLineEndKey, nFindStartPos)) >= 0)

  00a60	8b b5 e4 fc ff
	ff		 mov	 esi, DWORD PTR _nFindStartPos$2$[ebp]
  00a66	8d 8d e8 fc ff
	ff		 lea	 ecx, DWORD PTR _strContents$16[ebp]
  00a6c	56		 push	 esi
  00a6d	ff b5 f8 fc ff
	ff		 push	 DWORD PTR _strLineEndKey$22[ebp]
  00a73	ff 15 00 00 00
	00		 call	 DWORD PTR __imp_?Find@?$CStringT@DV?$StrTraitMFC_DLL@DV?$ChTraitsCRT@D@ATL@@@@@ATL@@QBEHPBDH@Z
  00a79	8b 9d 88 fc ff
	ff		 mov	 ebx, DWORD PTR _GridHeaderInfoArray$4[ebp+8]
  00a7f	89 85 fc fc ff
	ff		 mov	 DWORD PTR _nLineLastPos$10$[ebp], eax
  00a85	89 9d 04 fd ff
	ff		 mov	 DWORD PTR _nCount$1$[ebp], ebx
  00a8b	85 c0		 test	 eax, eax
  00a8d	0f 88 9d 01 00
	00		 js	 $LN6@OnBtnImpor
$LL5@OnBtnImpor:

; 905  : 		{
; 906  : 			strLine = strContents.Mid(nFindStartPos, nLineLastPos - nFindStartPos);

  00a93	2b c6		 sub	 eax, esi
  00a95	8d 8d e8 fc ff
	ff		 lea	 ecx, DWORD PTR _strContents$16[ebp]
  00a9b	50		 push	 eax
  00a9c	56		 push	 esi
  00a9d	8d 85 e4 fc ff
	ff		 lea	 eax, DWORD PTR $T15[ebp]
  00aa3	50		 push	 eax
  00aa4	ff 15 00 00 00
	00		 call	 DWORD PTR __imp_?Mid@?$CStringT@DV?$StrTraitMFC_DLL@DV?$ChTraitsCRT@D@ATL@@@@@ATL@@QBE?AV12@HH@Z
  00aaa	50		 push	 eax
  00aab	8d 8d f0 fc ff
	ff		 lea	 ecx, DWORD PTR _strLine$19[ebp]
  00ab1	c6 45 fc 20	 mov	 BYTE PTR __$EHRec$[ebp+8], 32 ; 00000020H
  00ab5	ff 15 00 00 00
	00		 call	 DWORD PTR __imp_??4?$CStringT@DV?$StrTraitMFC_DLL@DV?$ChTraitsCRT@D@ATL@@@@@ATL@@QAEAAV01@ABV01@@Z
  00abb	8d 8d e4 fc ff
	ff		 lea	 ecx, DWORD PTR $T15[ebp]
  00ac1	c6 45 fc 16	 mov	 BYTE PTR __$EHRec$[ebp+8], 22 ; 00000016H
  00ac5	ff 15 00 00 00
	00		 call	 DWORD PTR __imp_??1?$CStringT@DV?$StrTraitMFC_DLL@DV?$ChTraitsCRT@D@ATL@@@@@ATL@@QAE@XZ
; File C:\Program Files (x86)\Microsoft Visual Studio\2019\Community\VC\Tools\MSVC\14.29.30133\atlmfc\include\afxcoll.inl

; 286  : 	{ SetSize(0); }

  00acb	6a ff		 push	 -1
  00acd	6a 00		 push	 0
  00acf	8d 8d 6c fc ff
	ff		 lea	 ecx, DWORD PTR _strRecordArray$3[ebp]
  00ad5	e8 00 00 00 00	 call	 ?SetSize@CStringArray@@QAEXHH@Z ; CStringArray::SetSize
; File D:\git\src\IBK\IBK_DRFN\ProjSrc\SrcChartEx\ChartAddIn\ChartDataListViewerAddIn\ChartDataListViewerAddIn\DlgDataSimulator.cpp

; 910  : 			for( i = 0 , nFindStartPos = 0 ; i < nColCount; i++ )

  00ada	33 ff		 xor	 edi, edi
  00adc	85 db		 test	 ebx, ebx
  00ade	0f 8e b7 00 00
	00		 jle	 $LN8@OnBtnImpor

; 905  : 		{
; 906  : 			strLine = strContents.Mid(nFindStartPos, nLineLastPos - nFindStartPos);

  00ae4	8b 85 ec fc ff
	ff		 mov	 eax, DWORD PTR _strDevider$17[ebp]
  00aea	66 0f 1f 44 00
	00		 npad	 6
$LL9@OnBtnImpor:

; 911  : 			{
; 912  : 				if((nFindPos = strLine.Find( strDevider, nFindStartPos )) < 0) 

  00af0	57		 push	 edi
  00af1	50		 push	 eax
  00af2	8d 8d f0 fc ff
	ff		 lea	 ecx, DWORD PTR _strLine$19[ebp]
  00af8	ff 15 00 00 00
	00		 call	 DWORD PTR __imp_?Find@?$CStringT@DV?$StrTraitMFC_DLL@DV?$ChTraitsCRT@D@ATL@@@@@ATL@@QBEHPBDH@Z
  00afe	8b f0		 mov	 esi, eax
  00b00	85 f6		 test	 esi, esi
  00b02	79 13		 jns	 SHORT $LN78@OnBtnImpor

; 913  : 					strChartData = "0";

  00b04	68 00 00 00 00	 push	 OFFSET ??_C@_01GBGANLPD@0@
  00b09	8d 8d e0 fc ff
	ff		 lea	 ecx, DWORD PTR _strChartData$13[ebp]
  00b0f	ff 15 00 00 00
	00		 call	 DWORD PTR __imp_??4?$CStringT@DV?$StrTraitMFC_DLL@DV?$ChTraitsCRT@D@ATL@@@@@ATL@@QAEAAV01@PBD@Z
  00b15	eb 52		 jmp	 SHORT $LN79@OnBtnImpor
$LN78@OnBtnImpor:

; 914  : 				else
; 915  : 				{
; 916  : 					strChartData = strLine.Mid(nFindStartPos, nFindPos - nFindStartPos);

  00b17	8b c6		 mov	 eax, esi
  00b19	8d 8d f0 fc ff
	ff		 lea	 ecx, DWORD PTR _strLine$19[ebp]
  00b1f	2b c7		 sub	 eax, edi
  00b21	50		 push	 eax
  00b22	57		 push	 edi
  00b23	8d 85 dc fc ff
	ff		 lea	 eax, DWORD PTR $T12[ebp]
  00b29	50		 push	 eax
  00b2a	ff 15 00 00 00
	00		 call	 DWORD PTR __imp_?Mid@?$CStringT@DV?$StrTraitMFC_DLL@DV?$ChTraitsCRT@D@ATL@@@@@ATL@@QBE?AV12@HH@Z
  00b30	50		 push	 eax
  00b31	8d 8d e0 fc ff
	ff		 lea	 ecx, DWORD PTR _strChartData$13[ebp]
  00b37	c6 45 fc 21	 mov	 BYTE PTR __$EHRec$[ebp+8], 33 ; 00000021H
  00b3b	ff 15 00 00 00
	00		 call	 DWORD PTR __imp_??4?$CStringT@DV?$StrTraitMFC_DLL@DV?$ChTraitsCRT@D@ATL@@@@@ATL@@QAEAAV01@ABV01@@Z
  00b41	8d 8d dc fc ff
	ff		 lea	 ecx, DWORD PTR $T12[ebp]
  00b47	c6 45 fc 16	 mov	 BYTE PTR __$EHRec$[ebp+8], 22 ; 00000016H
  00b4b	ff 15 00 00 00
	00		 call	 DWORD PTR __imp_??1?$CStringT@DV?$StrTraitMFC_DLL@DV?$ChTraitsCRT@D@ATL@@@@@ATL@@QAE@XZ

; 917  : 					strChartData.TrimLeft(); strChartData.TrimRight();

  00b51	8d 8d e0 fc ff
	ff		 lea	 ecx, DWORD PTR _strChartData$13[ebp]
  00b57	ff 15 00 00 00
	00		 call	 DWORD PTR __imp_?TrimLeft@?$CStringT@DV?$StrTraitMFC_DLL@DV?$ChTraitsCRT@D@ATL@@@@@ATL@@QAEAAV12@XZ
  00b5d	8d 8d e0 fc ff
	ff		 lea	 ecx, DWORD PTR _strChartData$13[ebp]
  00b63	ff 15 00 00 00
	00		 call	 DWORD PTR __imp_?TrimRight@?$CStringT@DV?$StrTraitMFC_DLL@DV?$ChTraitsCRT@D@ATL@@@@@ATL@@QAEAAV12@XZ
$LN79@OnBtnImpor:
; File C:\Program Files (x86)\Microsoft Visual Studio\2019\Community\VC\Tools\MSVC\14.29.30133\atlmfc\include\afxcoll.inl

; 321  : 		SetAtGrow(nIndex, newElement);

  00b69	8d 85 e0 fc ff
	ff		 lea	 eax, DWORD PTR _strChartData$13[ebp]
  00b6f	50		 push	 eax
  00b70	ff b5 74 fc ff
	ff		 push	 DWORD PTR _strRecordArray$3[ebp+8]
  00b76	8d 8d 6c fc ff
	ff		 lea	 ecx, DWORD PTR _strRecordArray$3[ebp]
  00b7c	e8 00 00 00 00	 call	 ?SetAtGrow@CStringArray@@QAEXHABV?$CStringT@DV?$StrTraitMFC_DLL@DV?$ChTraitsCRT@D@ATL@@@@@ATL@@@Z ; CStringArray::SetAtGrow
; File C:\Program Files (x86)\Microsoft Visual Studio\2019\Community\VC\Tools\MSVC\14.29.30133\atlmfc\include\atlsimpstr.h

; 519  : 		return( GetData()->nDataLength );

  00b81	8b 85 ec fc ff
	ff		 mov	 eax, DWORD PTR _strDevider$17[ebp]
  00b87	8b 78 f4	 mov	 edi, DWORD PTR [eax-12]
; File D:\git\src\IBK\IBK_DRFN\ProjSrc\SrcChartEx\ChartAddIn\ChartDataListViewerAddIn\ChartDataListViewerAddIn\DlgDataSimulator.cpp

; 922  : 				nFindStartPos = nFindPos + strDevider.GetLength();

  00b8a	03 fe		 add	 edi, esi
  00b8c	83 eb 01	 sub	 ebx, 1
  00b8f	0f 85 5b ff ff
	ff		 jne	 $LL9@OnBtnImpor
  00b95	8b 9d 04 fd ff
	ff		 mov	 ebx, DWORD PTR _nCount$1$[ebp]
$LN8@OnBtnImpor:

; 923  : 			}
; 924  : 			
; 925  : 			pNewRecordSet = new CChartRecordSet;

  00b9b	6a 18		 push	 24			; 00000018H
  00b9d	e8 00 00 00 00	 call	 ??2@YAPAXI@Z		; operator new
  00ba2	8b f8		 mov	 edi, eax
  00ba4	83 c4 04	 add	 esp, 4
  00ba7	85 ff		 test	 edi, edi
  00ba9	74 20		 je	 SHORT $LN83@OnBtnImpor
  00bab	ff 35 00 00 00
	00		 push	 DWORD PTR __imp_??1?$CStringT@DV?$StrTraitMFC_DLL@DV?$ChTraitsCRT@D@ATL@@@@@ATL@@QAE@XZ
  00bb1	c6 45 fc 22	 mov	 BYTE PTR __$EHRec$[ebp+8], 34 ; 00000022H
  00bb5	ff 35 00 00 00
	00		 push	 DWORD PTR __imp_??0?$CStringT@DV?$StrTraitMFC_DLL@DV?$ChTraitsCRT@D@ATL@@@@@ATL@@QAE@XZ
  00bbb	6a 06		 push	 6
  00bbd	6a 04		 push	 4
  00bbf	57		 push	 edi
  00bc0	e8 00 00 00 00	 call	 ??_L@YGXPAXIIP6EX0@Z1@Z
  00bc5	c6 45 fc 16	 mov	 BYTE PTR __$EHRec$[ebp+8], 22 ; 00000016H
  00bc9	eb 02		 jmp	 SHORT $LN84@OnBtnImpor
$LN83@OnBtnImpor:
  00bcb	33 ff		 xor	 edi, edi
$LN84@OnBtnImpor:

; 926  : 			for( i = 0 ; i < COL_SIZE && i < strRecordArray.GetSize(); i++ )

  00bcd	33 f6		 xor	 esi, esi
  00bcf	90		 npad	 1
$LL12@OnBtnImpor:
  00bd0	3b b5 74 fc ff
	ff		 cmp	 esi, DWORD PTR _strRecordArray$3[ebp+8]
  00bd6	7d 21		 jge	 SHORT $LN11@OnBtnImpor
; File C:\Program Files (x86)\Microsoft Visual Studio\2019\Community\VC\Tools\MSVC\14.29.30133\atlmfc\include\afxcoll.inl

; 289  : 		if( nIndex < 0 || nIndex >= m_nSize )

  00bd8	85 f6		 test	 esi, esi
  00bda	0f 88 d2 05 00
	00		 js	 $LN570@OnBtnImpor

; 291  : 		return m_pData[nIndex]; }

  00be0	8b 85 70 fc ff
	ff		 mov	 eax, DWORD PTR _strRecordArray$3[ebp+4]
; File D:\git\src\IBK\IBK_DRFN\ProjSrc\SrcChartEx\ChartAddIn\ChartDataListViewerAddIn\ChartDataListViewerAddIn\DlgDataSimulator.cpp

; 927  : 				pNewRecordSet->m_Data[i] = strRecordArray.GetAt(i);

  00be6	8d 0c b7	 lea	 ecx, DWORD PTR [edi+esi*4]
; File C:\Program Files (x86)\Microsoft Visual Studio\2019\Community\VC\Tools\MSVC\14.29.30133\atlmfc\include\afxcoll.inl

; 291  : 		return m_pData[nIndex]; }

  00be9	8d 04 b0	 lea	 eax, DWORD PTR [eax+esi*4]
; File D:\git\src\IBK\IBK_DRFN\ProjSrc\SrcChartEx\ChartAddIn\ChartDataListViewerAddIn\ChartDataListViewerAddIn\DlgDataSimulator.cpp

; 927  : 				pNewRecordSet->m_Data[i] = strRecordArray.GetAt(i);

  00bec	50		 push	 eax
  00bed	ff 15 00 00 00
	00		 call	 DWORD PTR __imp_??4?$CStringT@DV?$StrTraitMFC_DLL@DV?$ChTraitsCRT@D@ATL@@@@@ATL@@QAEAAV01@ABV01@@Z
  00bf3	46		 inc	 esi
  00bf4	83 fe 06	 cmp	 esi, 6
  00bf7	7c d7		 jl	 SHORT $LL12@OnBtnImpor
$LN11@OnBtnImpor:

; 928  : 			
; 929  : 			ChartDataList.AddTail(pNewRecordSet);

  00bf9	57		 push	 edi
  00bfa	8d 8d a0 fc ff
	ff		 lea	 ecx, DWORD PTR _ChartDataList$5[ebp]
  00c00	e8 00 00 00 00	 call	 ?AddTail@?$CList@PAVCChartRecordSet@@PAV1@@@QAEPAU__POSITION@@PAVCChartRecordSet@@@Z ; CList<CChartRecordSet *,CChartRecordSet *>::AddTail
; File C:\Program Files (x86)\Microsoft Visual Studio\2019\Community\VC\Tools\MSVC\14.29.30133\atlmfc\include\atlsimpstr.h

; 519  : 		return( GetData()->nDataLength );

  00c05	8b 85 f8 fc ff
	ff		 mov	 eax, DWORD PTR _strLineEndKey$22[ebp]
; File D:\git\src\IBK\IBK_DRFN\ProjSrc\SrcChartEx\ChartAddIn\ChartDataListViewerAddIn\ChartDataListViewerAddIn\DlgDataSimulator.cpp

; 904  : 		while((nLineLastPos = strContents.Find(strLineEndKey, nFindStartPos)) >= 0)

  00c0b	8d 8d e8 fc ff
	ff		 lea	 ecx, DWORD PTR _strContents$16[ebp]
; File C:\Program Files (x86)\Microsoft Visual Studio\2019\Community\VC\Tools\MSVC\14.29.30133\atlmfc\include\atlsimpstr.h

; 519  : 		return( GetData()->nDataLength );

  00c11	8b 70 f4	 mov	 esi, DWORD PTR [eax-12]
; File D:\git\src\IBK\IBK_DRFN\ProjSrc\SrcChartEx\ChartAddIn\ChartDataListViewerAddIn\ChartDataListViewerAddIn\DlgDataSimulator.cpp

; 931  : 			nFindStartPos = nLineLastPos + strLineEndKey.GetLength();

  00c14	03 b5 fc fc ff
	ff		 add	 esi, DWORD PTR _nLineLastPos$10$[ebp]
  00c1a	56		 push	 esi
  00c1b	50		 push	 eax
  00c1c	ff 15 00 00 00
	00		 call	 DWORD PTR __imp_?Find@?$CStringT@DV?$StrTraitMFC_DLL@DV?$ChTraitsCRT@D@ATL@@@@@ATL@@QBEHPBDH@Z
  00c22	89 85 fc fc ff
	ff		 mov	 DWORD PTR _nLineLastPos$10$[ebp], eax
  00c28	85 c0		 test	 eax, eax
  00c2a	0f 89 63 fe ff
	ff		 jns	 $LL5@OnBtnImpor
$LN6@OnBtnImpor:

; 932  : 		}
; 933  : 
; 934  : 
; 935  : 		for( i = 0 ; i< m_pChartDataGridManager->m_ChartDataGridHeaderInfoArray.GetSize(); i++) 

  00c30	8b 9d d8 fc ff
	ff		 mov	 ebx, DWORD PTR _this$GSCopy$1$[ebp]
  00c36	33 f6		 xor	 esi, esi
  00c38	8b bb 38 05 00
	00		 mov	 edi, DWORD PTR [ebx+1336]
  00c3e	39 77 20	 cmp	 DWORD PTR [edi+32], esi
  00c41	7e 4c		 jle	 SHORT $LN14@OnBtnImpor
$LL15@OnBtnImpor:
; File C:\Program Files (x86)\Microsoft Visual Studio\2019\Community\VC\Tools\MSVC\14.29.30133\atlmfc\include\afxtempl.h

; 288  : 	if(nIndex >= 0 && nIndex < m_nSize)

  00c43	85 f6		 test	 esi, esi
  00c45	0f 88 67 05 00
	00		 js	 $LN570@OnBtnImpor
  00c4b	3b 77 20	 cmp	 esi, DWORD PTR [edi+32]
  00c4e	0f 8d 5e 05 00
	00		 jge	 $LN570@OnBtnImpor

; 289  : 		return m_pData[nIndex];

  00c54	8b 47 1c	 mov	 eax, DWORD PTR [edi+28]
; File D:\git\src\IBK\IBK_DRFN\ProjSrc\SrcChartEx\ChartAddIn\ChartDataListViewerAddIn\ChartDataListViewerAddIn\DlgDataSimulator.cpp

; 936  : 			delete m_pChartDataGridManager->m_ChartDataGridHeaderInfoArray.GetAt(i);

  00c57	8b 3c b0	 mov	 edi, DWORD PTR [eax+esi*4]
  00c5a	85 ff		 test	 edi, edi
  00c5c	74 25		 je	 SHORT $LN13@OnBtnImpor
  00c5e	8d 4f 08	 lea	 ecx, DWORD PTR [edi+8]
  00c61	ff 15 00 00 00
	00		 call	 DWORD PTR __imp_??1?$CStringT@DV?$StrTraitMFC_DLL@DV?$ChTraitsCRT@D@ATL@@@@@ATL@@QAE@XZ
  00c67	8d 4f 04	 lea	 ecx, DWORD PTR [edi+4]
  00c6a	ff 15 00 00 00
	00		 call	 DWORD PTR __imp_??1?$CStringT@DV?$StrTraitMFC_DLL@DV?$ChTraitsCRT@D@ATL@@@@@ATL@@QAE@XZ
  00c70	8b cf		 mov	 ecx, edi
  00c72	ff 15 00 00 00
	00		 call	 DWORD PTR __imp_??1?$CStringT@DV?$StrTraitMFC_DLL@DV?$ChTraitsCRT@D@ATL@@@@@ATL@@QAE@XZ
  00c78	6a 0c		 push	 12			; 0000000cH
  00c7a	57		 push	 edi
  00c7b	e8 00 00 00 00	 call	 ??3@YAXPAXI@Z		; operator delete
  00c80	83 c4 08	 add	 esp, 8
$LN13@OnBtnImpor:

; 932  : 		}
; 933  : 
; 934  : 
; 935  : 		for( i = 0 ; i< m_pChartDataGridManager->m_ChartDataGridHeaderInfoArray.GetSize(); i++) 

  00c83	8b bb 38 05 00
	00		 mov	 edi, DWORD PTR [ebx+1336]
  00c89	46		 inc	 esi
  00c8a	3b 77 20	 cmp	 esi, DWORD PTR [edi+32]
  00c8d	7c b4		 jl	 SHORT $LL15@OnBtnImpor
$LN14@OnBtnImpor:
; File C:\Program Files (x86)\Microsoft Visual Studio\2019\Community\VC\Tools\MSVC\14.29.30133\atlmfc\include\afxtempl.h

; 381  : 		if (m_pData != NULL)

  00c8f	8b 47 1c	 mov	 eax, DWORD PTR [edi+28]
  00c92	85 c0		 test	 eax, eax
  00c94	74 10		 je	 SHORT $LN340@OnBtnImpor

; 382  : 		{
; 383  : 			for( int i = 0; i < m_nSize; i++ )
; 384  : 				(m_pData + i)->~TYPE();
; 385  : 			delete[] (BYTE*)m_pData;

  00c96	50		 push	 eax
  00c97	e8 00 00 00 00	 call	 ??_V@YAXPAX@Z		; operator delete[]
  00c9c	83 c4 04	 add	 esp, 4

; 386  : 			m_pData = NULL;

  00c9f	c7 47 1c 00 00
	00 00		 mov	 DWORD PTR [edi+28], 0
$LN340@OnBtnImpor:

; 387  : 		}
; 388  : 		m_nSize = m_nMaxSize = 0;

  00ca6	c7 47 24 00 00
	00 00		 mov	 DWORD PTR [edi+36], 0

; 483  : 	if(this == &src)

  00cad	8d 8d 80 fc ff
	ff		 lea	 ecx, DWORD PTR _GridHeaderInfoArray$4[ebp]

; 388  : 		m_nSize = m_nMaxSize = 0;

  00cb3	c7 47 20 00 00
	00 00		 mov	 DWORD PTR [edi+32], 0
; File D:\git\src\IBK\IBK_DRFN\ProjSrc\SrcChartEx\ChartAddIn\ChartDataListViewerAddIn\ChartDataListViewerAddIn\DlgDataSimulator.cpp

; 938  : 		m_pChartDataGridManager->m_ChartDataGridHeaderInfoArray.Append(GridHeaderInfoArray);

  00cba	8b 9b 38 05 00
	00		 mov	 ebx, DWORD PTR [ebx+1336]
  00cc0	8d 43 18	 lea	 eax, DWORD PTR [ebx+24]
; File C:\Program Files (x86)\Microsoft Visual Studio\2019\Community\VC\Tools\MSVC\14.29.30133\atlmfc\include\afxtempl.h

; 483  : 	if(this == &src)

  00cc3	3b c1		 cmp	 eax, ecx
  00cc5	0f 84 e7 04 00
	00		 je	 $LN570@OnBtnImpor

; 484  : 		AfxThrowInvalidArgException();
; 485  : 
; 486  : 	INT_PTR nOldSize = m_nSize;

  00ccb	8b 53 20	 mov	 edx, DWORD PTR [ebx+32]

; 487  : 	SetSize(m_nSize + src.m_nSize);

  00cce	8b b5 04 fd ff
	ff		 mov	 esi, DWORD PTR _nCount$1$[ebp]
  00cd4	03 f2		 add	 esi, edx
  00cd6	89 95 9c fc ff
	ff		 mov	 DWORD PTR _nOldSize$1$[ebp], edx
  00cdc	89 b5 e4 fc ff
	ff		 mov	 DWORD PTR $T14[ebp], esi

; 372  : 	if(nNewSize < 0 )

  00ce2	0f 88 ca 04 00
	00		 js	 $LN570@OnBtnImpor

; 377  : 
; 378  : 	if (nNewSize == 0)

  00ce8	8b 4b 1c	 mov	 ecx, DWORD PTR [ebx+28]
  00ceb	85 f6		 test	 esi, esi
  00ced	75 1e		 jne	 SHORT $LN389@OnBtnImpor

; 381  : 		if (m_pData != NULL)

  00cef	85 c9		 test	 ecx, ecx
  00cf1	74 0c		 je	 SHORT $LN391@OnBtnImpor

; 382  : 		{
; 383  : 			for( int i = 0; i < m_nSize; i++ )
; 384  : 				(m_pData + i)->~TYPE();
; 385  : 			delete[] (BYTE*)m_pData;

  00cf3	51		 push	 ecx
  00cf4	e8 00 00 00 00	 call	 ??_V@YAXPAX@Z		; operator delete[]
  00cf9	83 c4 04	 add	 esp, 4

; 386  : 			m_pData = NULL;

  00cfc	89 73 1c	 mov	 DWORD PTR [ebx+28], esi
$LN391@OnBtnImpor:

; 387  : 		}
; 388  : 		m_nSize = m_nMaxSize = 0;

  00cff	c7 43 24 00 00
	00 00		 mov	 DWORD PTR [ebx+36], 0
  00d06	33 f6		 xor	 esi, esi

; 389  : 	}

  00d08	e9 24 01 00 00	 jmp	 $LN395@OnBtnImpor
$LN389@OnBtnImpor:

; 390  : 	else if (m_pData == NULL)

  00d0d	85 c9		 test	 ecx, ecx
  00d0f	75 32		 jne	 SHORT $LN392@OnBtnImpor

; 391  : 	{
; 392  : 		// create buffer big enough to hold number of requested elements or
; 393  : 		// m_nGrowBy elements, whichever is larger.
; 394  : #ifdef SIZE_T_MAX
; 395  : 		ASSERT(nNewSize <= SIZE_T_MAX/sizeof(TYPE));    // no overflow
; 396  : #endif
; 397  : 		size_t nAllocSize = __max(nNewSize, m_nGrowBy);

  00d11	8b 7b 28	 mov	 edi, DWORD PTR [ebx+40]
  00d14	3b f7		 cmp	 esi, edi
  00d16	0f 4f fe	 cmovg	 edi, esi

; 398  : 		m_pData = (TYPE*) new BYTE[(size_t)nAllocSize * sizeof(TYPE)];

  00d19	8d 34 bd 00 00
	00 00		 lea	 esi, DWORD PTR [edi*4]
  00d20	56		 push	 esi
  00d21	e8 00 00 00 00	 call	 ??_U@YAPAXI@Z		; operator new[]

; 399  : 		memset((void*)m_pData, 0, (size_t)nAllocSize * sizeof(TYPE));

  00d26	56		 push	 esi
  00d27	6a 00		 push	 0
  00d29	50		 push	 eax
  00d2a	89 43 1c	 mov	 DWORD PTR [ebx+28], eax
  00d2d	e8 00 00 00 00	 call	 _memset

; 400  : 		for( int i = 0; i < nNewSize; i++ )
; 401  : #pragma push_macro("new")
; 402  : #undef new
; 403  : 			::new( (void*)( m_pData + i ) ) TYPE;
; 404  : #pragma pop_macro("new")
; 405  : 		m_nSize = nNewSize;
; 406  : 		m_nMaxSize = nAllocSize;
; 407  : 	}

  00d32	8b b5 e4 fc ff
	ff		 mov	 esi, DWORD PTR $T14[ebp]
  00d38	83 c4 10	 add	 esp, 16			; 00000010H
  00d3b	89 7b 24	 mov	 DWORD PTR [ebx+36], edi
  00d3e	e9 ee 00 00 00	 jmp	 $LN395@OnBtnImpor
$LN392@OnBtnImpor:

; 408  : 	else if (nNewSize <= m_nMaxSize)

  00d43	8b 7b 24	 mov	 edi, DWORD PTR [ebx+36]
  00d46	3b f7		 cmp	 esi, edi
  00d48	7f 23		 jg	 SHORT $LN394@OnBtnImpor

; 409  : 	{
; 410  : 		// it fits
; 411  : 		if (nNewSize > m_nSize)

  00d4a	3b f2		 cmp	 esi, edx
  00d4c	0f 8e df 00 00
	00		 jle	 $LN395@OnBtnImpor

; 412  : 		{
; 413  : 			// initialize the new elements
; 414  : 			memset((void*)(m_pData + m_nSize), 0, (size_t)(nNewSize-m_nSize) * sizeof(TYPE));

  00d52	8b c6		 mov	 eax, esi
  00d54	2b c2		 sub	 eax, edx
  00d56	c1 e0 02	 shl	 eax, 2
  00d59	50		 push	 eax
  00d5a	8d 04 91	 lea	 eax, DWORD PTR [ecx+edx*4]
  00d5d	6a 00		 push	 0
  00d5f	50		 push	 eax
  00d60	e8 00 00 00 00	 call	 _memset
  00d65	83 c4 0c	 add	 esp, 12			; 0000000cH

; 415  : 			for( int i = 0; i < nNewSize-m_nSize; i++ )
; 416  : #pragma push_macro("new")
; 417  : #undef new
; 418  : 				::new( (void*)( m_pData + m_nSize + i ) ) TYPE;
; 419  : #pragma pop_macro("new")
; 420  : 		}
; 421  : 		else if (m_nSize > nNewSize)
; 422  : 		{
; 423  : 			// destroy the old elements
; 424  : 			for( int i = 0; i < m_nSize-nNewSize; i++ )
; 425  : 				(m_pData + nNewSize + i)->~TYPE();
; 426  : 		}
; 427  : 		m_nSize = nNewSize;
; 428  : 	}

  00d68	e9 c4 00 00 00	 jmp	 $LN395@OnBtnImpor
$LN394@OnBtnImpor:

; 429  : 	else
; 430  : 	{
; 431  : 		// otherwise, grow array
; 432  : 		nGrowBy = m_nGrowBy;

  00d6d	8b 43 28	 mov	 eax, DWORD PTR [ebx+40]

; 433  : 		if (nGrowBy == 0)

  00d70	85 c0		 test	 eax, eax
  00d72	75 21		 jne	 SHORT $LN407@OnBtnImpor

; 434  : 		{
; 435  : 			// heuristically determine growth when nGrowBy == 0
; 436  : 			//  (this avoids heap fragmentation in many situations)
; 437  : 			nGrowBy = m_nSize / 8;

  00d74	8b c2		 mov	 eax, edx
  00d76	99		 cdq
  00d77	83 e2 07	 and	 edx, 7
  00d7a	03 c2		 add	 eax, edx
  00d7c	c1 f8 03	 sar	 eax, 3

; 438  : 			nGrowBy = (nGrowBy < 4) ? 4 : ((nGrowBy > 1024) ? 1024 : nGrowBy);

  00d7f	83 f8 04	 cmp	 eax, 4
  00d82	7d 07		 jge	 SHORT $LN406@OnBtnImpor
  00d84	b8 04 00 00 00	 mov	 eax, 4
  00d89	eb 0a		 jmp	 SHORT $LN407@OnBtnImpor
$LN406@OnBtnImpor:
  00d8b	b9 00 04 00 00	 mov	 ecx, 1024		; 00000400H
  00d90	3b c1		 cmp	 eax, ecx
  00d92	0f 4f c1	 cmovg	 eax, ecx
$LN407@OnBtnImpor:

; 439  : 		}
; 440  : 		INT_PTR nNewMax;
; 441  : 		if (nNewSize < m_nMaxSize + nGrowBy)

  00d95	03 c7		 add	 eax, edi

; 442  : 			nNewMax = m_nMaxSize + nGrowBy;  // granularity
; 443  : 		else
; 444  : 			nNewMax = nNewSize;  // no slush
; 445  : 
; 446  : 		ASSERT(nNewMax >= m_nMaxSize);  // no wrap around
; 447  : 
; 448  : 		if(nNewMax  < m_nMaxSize)

  00d97	3b f0		 cmp	 esi, eax
  00d99	0f 4d c6	 cmovge	 eax, esi
  00d9c	89 85 c4 fc ff
	ff		 mov	 DWORD PTR tv2878[ebp], eax
  00da2	3b c7		 cmp	 eax, edi
  00da4	0f 8c 08 04 00
	00		 jl	 $LN570@OnBtnImpor

; 449  : 			AfxThrowInvalidArgException();
; 450  : 
; 451  : #ifdef SIZE_T_MAX
; 452  : 		ASSERT(nNewMax <= SIZE_T_MAX/sizeof(TYPE)); // no overflow
; 453  : #endif
; 454  : 		TYPE* pNewData = (TYPE*) new BYTE[(size_t)nNewMax * sizeof(TYPE)];

  00daa	c1 e0 02	 shl	 eax, 2
  00dad	50		 push	 eax
  00dae	89 85 fc fc ff
	ff		 mov	 DWORD PTR __S1max$1$[ebp], eax
  00db4	e8 00 00 00 00	 call	 ??_U@YAPAXI@Z		; operator new[]

; 455  : 
; 456  : 		// copy new data from old
; 457  : 		::ATL::Checked::memcpy_s(pNewData, (size_t)nNewMax * sizeof(TYPE),

  00db9	8b 7b 20	 mov	 edi, DWORD PTR [ebx+32]
  00dbc	83 c4 04	 add	 esp, 4
  00dbf	8b 53 1c	 mov	 edx, DWORD PTR [ebx+28]
  00dc2	c1 e7 02	 shl	 edi, 2
  00dc5	89 85 dc fc ff
	ff		 mov	 DWORD PTR _pNewData$1$[ebp], eax
  00dcb	89 95 e4 fc ff
	ff		 mov	 DWORD PTR __S2$1$[ebp], edx
; File C:\Program Files (x86)\Windows Kits\10\Include\10.0.22000.0\ucrt\corecrt_memcpy_s.h

; 46   :         if (_SourceSize == 0)

  00dd1	85 ff		 test	 edi, edi
  00dd3	75 04		 jne	 SHORT $LN411@OnBtnImpor

; 47   :         {
; 48   :             return 0;

  00dd5	33 c0		 xor	 eax, eax
  00dd7	eb 1f		 jmp	 SHORT $LN410@OnBtnImpor
$LN411@OnBtnImpor:

; 49   :         }
; 50   : 
; 51   :         _CRT_MEMCPY_S_VALIDATE_RETURN_ERRCODE(_Destination != NULL, EINVAL);

  00dd9	85 c0		 test	 eax, eax
  00ddb	0f 85 5a 01 00
	00		 jne	 $LN412@OnBtnImpor
$LN613@OnBtnImpor:
; File C:\Program Files (x86)\Microsoft Visual Studio\2019\Community\VC\Tools\MSVC\14.29.30133\atlmfc\include\atlchecked.h

; 69   : 	ATLMFC_CRT_ERRORCHECK(::memcpy_s(_S1, _S1max, _S2, _N));

  00de1	ff 15 00 00 00
	00		 call	 DWORD PTR __imp___errno
  00de7	c7 00 16 00 00
	00		 mov	 DWORD PTR [eax], 22	; 00000016H
  00ded	ff 15 00 00 00
	00		 call	 DWORD PTR __imp___invalid_parameter_noinfo
$LN416@OnBtnImpor:
  00df3	b8 16 00 00 00	 mov	 eax, 22			; 00000016H
$LN410@OnBtnImpor:
  00df8	50		 push	 eax
  00df9	e8 00 00 00 00	 call	 ?AfxCrtErrorCheck@@YAHH@Z ; AfxCrtErrorCheck
; File C:\Program Files (x86)\Microsoft Visual Studio\2019\Community\VC\Tools\MSVC\14.29.30133\atlmfc\include\afxtempl.h

; 462  : 		memset((void*)(pNewData + m_nSize), 0, (size_t)(nNewSize-m_nSize) * sizeof(TYPE));

  00dfe	8b 4b 20	 mov	 ecx, DWORD PTR [ebx+32]
  00e01	8b c6		 mov	 eax, esi
  00e03	8b bd dc fc ff
	ff		 mov	 edi, DWORD PTR _pNewData$1$[ebp]
  00e09	2b c1		 sub	 eax, ecx
  00e0b	c1 e0 02	 shl	 eax, 2
  00e0e	50		 push	 eax
  00e0f	6a 00		 push	 0
  00e11	8d 04 8f	 lea	 eax, DWORD PTR [edi+ecx*4]
  00e14	50		 push	 eax
  00e15	e8 00 00 00 00	 call	 _memset

; 463  : 		for( int i = 0; i < nNewSize-m_nSize; i++ )
; 464  : #pragma push_macro("new")
; 465  : #undef new
; 466  : 			::new( (void*)( pNewData + m_nSize + i ) ) TYPE;
; 467  : #pragma pop_macro("new")
; 468  : 
; 469  : 		// get rid of old stuff (note: no destructors called)
; 470  : 		delete[] (BYTE*)m_pData;

  00e1a	ff 73 1c	 push	 DWORD PTR [ebx+28]
  00e1d	e8 00 00 00 00	 call	 ??_V@YAXPAX@Z		; operator delete[]

; 471  : 		m_pData = pNewData;
; 472  : 		m_nSize = nNewSize;
; 473  : 		m_nMaxSize = nNewMax;

  00e22	8b 85 c4 fc ff
	ff		 mov	 eax, DWORD PTR tv2878[ebp]
  00e28	83 c4 14	 add	 esp, 20			; 00000014H
  00e2b	89 7b 1c	 mov	 DWORD PTR [ebx+28], edi
  00e2e	89 43 24	 mov	 DWORD PTR [ebx+36], eax
$LN395@OnBtnImpor:

; 488  : 	CopyElements<TYPE>(m_pData + nOldSize, src.m_pData, src.m_nSize);

  00e31	8b 95 9c fc ff
	ff		 mov	 edx, DWORD PTR _nOldSize$1$[ebp]
  00e37	89 73 20	 mov	 DWORD PTR [ebx+32], esi
  00e3a	8b 43 1c	 mov	 eax, DWORD PTR [ebx+28]
  00e3d	8b 9d 04 fd ff
	ff		 mov	 ebx, DWORD PTR _nCount$1$[ebp]
  00e43	8b 8d 00 fd ff
	ff		 mov	 ecx, DWORD PTR _GridHeaderInfoArray$1$[ebp]
  00e49	8d 14 90	 lea	 edx, DWORD PTR [eax+edx*4]
  00e4c	85 db		 test	 ebx, ebx

; 54   : 	ENSURE(nCount == 0 || pDest != 0 && pSrc != 0);

  00e4e	74 20		 je	 SHORT $LN530@OnBtnImpor
  00e50	85 d2		 test	 edx, edx
  00e52	0f 84 5a 03 00
	00		 je	 $LN570@OnBtnImpor
  00e58	85 c9		 test	 ecx, ecx
  00e5a	0f 84 52 03 00
	00		 je	 $LN570@OnBtnImpor
$LL423@OnBtnImpor:

; 55   : 	ASSERT(nCount == 0 ||
; 56   : 		AfxIsValidAddress(pDest, (size_t)nCount * sizeof(TYPE)));
; 57   : 	ASSERT(nCount == 0 ||
; 58   : 		AfxIsValidAddress(pSrc, (size_t)nCount * sizeof(TYPE)));
; 59   : 
; 60   : 	// default is element-copy using assignment
; 61   : 	while (nCount--)
; 62   : 		*pDest++ = *pSrc++;

  00e60	8b 01		 mov	 eax, DWORD PTR [ecx]
  00e62	8d 52 04	 lea	 edx, DWORD PTR [edx+4]
  00e65	89 42 fc	 mov	 DWORD PTR [edx-4], eax
  00e68	8d 49 04	 lea	 ecx, DWORD PTR [ecx+4]
  00e6b	83 eb 01	 sub	 ebx, 1
  00e6e	75 f0		 jne	 SHORT $LL423@OnBtnImpor
$LN530@OnBtnImpor:

; 786  : 	{ return m_nCount == 0; }

  00e70	8b 9d d8 fc ff
	ff		 mov	 ebx, DWORD PTR _this$GSCopy$1$[ebp]
  00e76	8b 83 38 05 00
	00		 mov	 eax, DWORD PTR [ebx+1336]
  00e7c	83 78 38 00	 cmp	 DWORD PTR [eax+56], 0
; File D:\git\src\IBK\IBK_DRFN\ProjSrc\SrcChartEx\ChartAddIn\ChartDataListViewerAddIn\ChartDataListViewerAddIn\DlgDataSimulator.cpp

; 941  : 		while(!m_pChartDataGridManager->m_ChartDataList.IsEmpty()) delete m_pChartDataGridManager->m_ChartDataList.RemoveHead();

  00e80	74 3d		 je	 SHORT $LN17@OnBtnImpor
$LL16@OnBtnImpor:
  00e82	8d 48 2c	 lea	 ecx, DWORD PTR [eax+44]
  00e85	e8 00 00 00 00	 call	 ?RemoveHead@?$CList@PAVCChartRecordSet@@PAV1@@@QAEPAVCChartRecordSet@@XZ ; CList<CChartRecordSet *,CChartRecordSet *>::RemoveHead
  00e8a	8b f0		 mov	 esi, eax
  00e8c	85 f6		 test	 esi, esi
  00e8e	74 23		 je	 SHORT $LN433@OnBtnImpor
  00e90	ff 35 00 00 00
	00		 push	 DWORD PTR __imp_??1?$CStringT@DV?$StrTraitMFC_DLL@DV?$ChTraitsCRT@D@ATL@@@@@ATL@@QAE@XZ
  00e96	c6 45 fc 23	 mov	 BYTE PTR __$EHRec$[ebp+8], 35 ; 00000023H
  00e9a	6a 06		 push	 6
  00e9c	6a 04		 push	 4
  00e9e	56		 push	 esi
  00e9f	e8 00 00 00 00	 call	 ??_M@YGXPAXIIP6EX0@Z@Z
  00ea4	6a 18		 push	 24			; 00000018H
  00ea6	56		 push	 esi
  00ea7	c6 45 fc 16	 mov	 BYTE PTR __$EHRec$[ebp+8], 22 ; 00000016H
  00eab	e8 00 00 00 00	 call	 ??3@YAXPAXI@Z		; operator delete
  00eb0	83 c4 08	 add	 esp, 8
$LN433@OnBtnImpor:
; File C:\Program Files (x86)\Microsoft Visual Studio\2019\Community\VC\Tools\MSVC\14.29.30133\atlmfc\include\afxtempl.h

; 786  : 	{ return m_nCount == 0; }

  00eb3	8b 83 38 05 00
	00		 mov	 eax, DWORD PTR [ebx+1336]
  00eb9	83 78 38 00	 cmp	 DWORD PTR [eax+56], 0
; File D:\git\src\IBK\IBK_DRFN\ProjSrc\SrcChartEx\ChartAddIn\ChartDataListViewerAddIn\ChartDataListViewerAddIn\DlgDataSimulator.cpp

; 941  : 		while(!m_pChartDataGridManager->m_ChartDataList.IsEmpty()) delete m_pChartDataGridManager->m_ChartDataList.RemoveHead();

  00ebd	75 c3		 jne	 SHORT $LL16@OnBtnImpor
$LN17@OnBtnImpor:
; File C:\Program Files (x86)\Microsoft Visual Studio\2019\Community\VC\Tools\MSVC\14.29.30133\atlmfc\include\afxtempl.h

; 1000 : 	POSITION pos = pNewList->GetHeadPosition();

  00ebf	8b b5 a4 fc ff
	ff		 mov	 esi, DWORD PTR _ChartDataList$5[ebp+4]
; File D:\git\src\IBK\IBK_DRFN\ProjSrc\SrcChartEx\ChartAddIn\ChartDataListViewerAddIn\ChartDataListViewerAddIn\DlgDataSimulator.cpp

; 942  : 		m_pChartDataGridManager->m_ChartDataList.AddTail(&ChartDataList);

  00ec5	8d 78 2c	 lea	 edi, DWORD PTR [eax+44]
; File C:\Program Files (x86)\Microsoft Visual Studio\2019\Community\VC\Tools\MSVC\14.29.30133\atlmfc\include\afxtempl.h

; 1000 : 	POSITION pos = pNewList->GetHeadPosition();

  00ec8	85 f6		 test	 esi, esi

; 1001 : 	while (pos != NULL)

  00eca	74 1a		 je	 SHORT $LN443@OnBtnImpor
  00ecc	0f 1f 40 00	 npad	 4
$LL442@OnBtnImpor:

; 1002 : 		AddTail(pNewList->GetNext(pos));

  00ed0	ff 76 08	 push	 DWORD PTR [esi+8]

; 813  : 		rPosition = (POSITION) pNode->pNext;

  00ed3	8b 36		 mov	 esi, DWORD PTR [esi]

; 1002 : 		AddTail(pNewList->GetNext(pos));

  00ed5	8b cf		 mov	 ecx, edi
  00ed7	e8 00 00 00 00	 call	 ?AddTail@?$CList@PAVCChartRecordSet@@PAV1@@@QAEPAU__POSITION@@PAVCChartRecordSet@@@Z ; CList<CChartRecordSet *,CChartRecordSet *>::AddTail
  00edc	85 f6		 test	 esi, esi
  00ede	75 f0		 jne	 SHORT $LL442@OnBtnImpor

; 376  : 		m_nGrowBy = nGrowBy;  // set new size

  00ee0	8b 83 38 05 00
	00		 mov	 eax, DWORD PTR [ebx+1336]
$LN443@OnBtnImpor:
; File D:\git\src\IBK\IBK_DRFN\ProjSrc\SrcChartEx\ChartAddIn\ChartDataListViewerAddIn\ChartDataListViewerAddIn\DlgDataSimulator.cpp

; 944  : 		m_pChartDataGridManager->m_nDataType		= nDataType;

  00ee6	8b 8d 98 fc ff
	ff		 mov	 ecx, DWORD PTR _nDataType$1$[ebp]
  00eec	89 48 0c	 mov	 DWORD PTR [eax+12], ecx

; 945  : 
; 946  : 		m_pChartDataGridManager->m_nDataInterval	= nDataInterval;

  00eef	8b 83 38 05 00
	00		 mov	 eax, DWORD PTR [ebx+1336]
  00ef5	8b 8d 94 fc ff
	ff		 mov	 ecx, DWORD PTR _nDataInterval$1$[ebp]
  00efb	89 48 10	 mov	 DWORD PTR [eax+16], ecx

; 947  : 
; 948  : 		m_pChartDataGridManager->m_strHelpMessage	= strHelpMessage;

  00efe	8d 85 c8 fc ff
	ff		 lea	 eax, DWORD PTR _strHelpMessage$8[ebp]
  00f04	8b 8b 38 05 00
	00		 mov	 ecx, DWORD PTR [ebx+1336]
  00f0a	50		 push	 eax
  00f0b	83 c1 14	 add	 ecx, 20			; 00000014H
  00f0e	ff 15 00 00 00
	00		 call	 DWORD PTR __imp_??4?$CStringT@DV?$StrTraitMFC_DLL@DV?$ChTraitsCRT@D@ATL@@@@@ATL@@QAEAAV01@ABV01@@Z

; 949  : 
; 950  : 		f.Close();

  00f14	8d 8d 58 fc ff
	ff		 lea	 ecx, DWORD PTR _f$2[ebp]
  00f1a	e8 00 00 00 00	 call	 ?Close@CFile@@UAEXXZ	; CFile::Close

; 951  : 
; 952  : 		InitGrid();

  00f1f	8b cb		 mov	 ecx, ebx
  00f21	e8 00 00 00 00	 call	 ?InitGrid@CDlgDataSimulator@@QAEXXZ ; CDlgDataSimulator::InitGrid

; 953  : 
; 954  : 		MakeTitle();

  00f26	8b cb		 mov	 ecx, ebx
  00f28	e8 00 00 00 00	 call	 ?MakeTitle@CDlgDataSimulator@@QAEXXZ ; CDlgDataSimulator::MakeTitle

; 955  : 
; 956  : 		UpdateData(FALSE);

  00f2d	6a 00		 push	 0
  00f2f	8b cb		 mov	 ecx, ebx
  00f31	e8 00 00 00 00	 call	 ?UpdateData@CWnd@@QAEHH@Z ; CWnd::UpdateData
  00f36	e9 34 01 00 00	 jmp	 $LN128@OnBtnImpor
$LN412@OnBtnImpor:
; File C:\Program Files (x86)\Windows Kits\10\Include\10.0.22000.0\ucrt\corecrt_memcpy_s.h

; 52   :         if (_Source == NULL || _DestinationSize < _SourceSize)

  00f3b	8b 8d fc fc ff
	ff		 mov	 ecx, DWORD PTR __S1max$1$[ebp]
  00f41	85 d2		 test	 edx, edx
  00f43	74 16		 je	 SHORT $LN414@OnBtnImpor
  00f45	3b cf		 cmp	 ecx, edi
  00f47	72 12		 jb	 SHORT $LN414@OnBtnImpor

; 58   : 
; 59   :             // Unreachable, but required to suppress /analyze warnings:
; 60   :             return EINVAL;
; 61   :         }
; 62   :         memcpy(_Destination, _Source, _SourceSize);

  00f49	57		 push	 edi
  00f4a	52		 push	 edx
  00f4b	50		 push	 eax
  00f4c	e8 00 00 00 00	 call	 _memcpy
  00f51	83 c4 0c	 add	 esp, 12			; 0000000cH

; 63   :         return 0;

  00f54	33 c0		 xor	 eax, eax
  00f56	e9 9d fe ff ff	 jmp	 $LN410@OnBtnImpor
$LN414@OnBtnImpor:

; 53   :         {
; 54   :             memset(_Destination, 0, _DestinationSize);

  00f5b	51		 push	 ecx
  00f5c	6a 00		 push	 0
  00f5e	50		 push	 eax
  00f5f	e8 00 00 00 00	 call	 _memset
  00f64	83 c4 0c	 add	 esp, 12			; 0000000cH

; 55   : 
; 56   :             _CRT_MEMCPY_S_VALIDATE_RETURN_ERRCODE(_Source != NULL,                 EINVAL);

  00f67	83 bd e4 fc ff
	ff 00		 cmp	 DWORD PTR __S2$1$[ebp], 0
  00f6e	0f 84 6d fe ff
	ff		 je	 $LN613@OnBtnImpor

; 57   :             _CRT_MEMCPY_S_VALIDATE_RETURN_ERRCODE(_DestinationSize >= _SourceSize, ERANGE);

  00f74	39 bd fc fc ff
	ff		 cmp	 DWORD PTR __S1max$1$[ebp], edi
  00f7a	0f 83 73 fe ff
	ff		 jae	 $LN416@OnBtnImpor
  00f80	ff 15 00 00 00
	00		 call	 DWORD PTR __imp___errno
  00f86	c7 00 22 00 00
	00		 mov	 DWORD PTR [eax], 34	; 00000022H
  00f8c	ff 15 00 00 00
	00		 call	 DWORD PTR __imp___invalid_parameter_noinfo
  00f92	b8 22 00 00 00	 mov	 eax, 34			; 00000022H
  00f97	e9 5c fe ff ff	 jmp	 $LN410@OnBtnImpor
$LN590@OnBtnImpor:
; File D:\git\src\IBK\IBK_DRFN\ProjSrc\SrcChartEx\ChartAddIn\ChartDataListViewerAddIn\ChartDataListViewerAddIn\DlgDataSimulator.cpp

; 962  : 			for(int i = 0 ; i< GridHeaderInfoArray.GetSize(); i++) delete GridHeaderInfoArray.GetAt(i);

  00f9c	8b bd 00 fd ff
	ff		 mov	 edi, DWORD PTR _GridHeaderInfoArray$1$[ebp]
  00fa2	eb 02		 jmp	 SHORT $file_error$616
$LN608@OnBtnImpor:
  00fa4	33 ff		 xor	 edi, edi
$file_error$616:
  00fa6	33 f6		 xor	 esi, esi
  00fa8	85 db		 test	 ebx, ebx
  00faa	7e 4b		 jle	 SHORT $LN19@OnBtnImpor
  00fac	0f 1f 40 00	 npad	 4
$LL20@OnBtnImpor:
; File C:\Program Files (x86)\Microsoft Visual Studio\2019\Community\VC\Tools\MSVC\14.29.30133\atlmfc\include\afxtempl.h

; 288  : 	if(nIndex >= 0 && nIndex < m_nSize)

  00fb0	85 f6		 test	 esi, esi
  00fb2	0f 88 fa 01 00
	00		 js	 $LN570@OnBtnImpor
  00fb8	3b f3		 cmp	 esi, ebx
  00fba	0f 8d f2 01 00
	00		 jge	 $LN570@OnBtnImpor
; File D:\git\src\IBK\IBK_DRFN\ProjSrc\SrcChartEx\ChartAddIn\ChartDataListViewerAddIn\ChartDataListViewerAddIn\DlgDataSimulator.cpp

; 962  : 			for(int i = 0 ; i< GridHeaderInfoArray.GetSize(); i++) delete GridHeaderInfoArray.GetAt(i);

  00fc0	8b 3c b7	 mov	 edi, DWORD PTR [edi+esi*4]
  00fc3	85 ff		 test	 edi, edi
  00fc5	74 25		 je	 SHORT $LN18@OnBtnImpor
  00fc7	8d 4f 08	 lea	 ecx, DWORD PTR [edi+8]
  00fca	ff 15 00 00 00
	00		 call	 DWORD PTR __imp_??1?$CStringT@DV?$StrTraitMFC_DLL@DV?$ChTraitsCRT@D@ATL@@@@@ATL@@QAE@XZ
  00fd0	8d 4f 04	 lea	 ecx, DWORD PTR [edi+4]
  00fd3	ff 15 00 00 00
	00		 call	 DWORD PTR __imp_??1?$CStringT@DV?$StrTraitMFC_DLL@DV?$ChTraitsCRT@D@ATL@@@@@ATL@@QAE@XZ
  00fd9	8b cf		 mov	 ecx, edi
  00fdb	ff 15 00 00 00
	00		 call	 DWORD PTR __imp_??1?$CStringT@DV?$StrTraitMFC_DLL@DV?$ChTraitsCRT@D@ATL@@@@@ATL@@QAE@XZ
  00fe1	6a 0c		 push	 12			; 0000000cH
  00fe3	57		 push	 edi
  00fe4	e8 00 00 00 00	 call	 ??3@YAXPAXI@Z		; operator delete
  00fe9	83 c4 08	 add	 esp, 8
$LN18@OnBtnImpor:
  00fec	8b bd 00 fd ff
	ff		 mov	 edi, DWORD PTR _GridHeaderInfoArray$1$[ebp]
  00ff2	46		 inc	 esi
  00ff3	3b f3		 cmp	 esi, ebx
  00ff5	7c b9		 jl	 SHORT $LL20@OnBtnImpor
$LN19@OnBtnImpor:

; 963  : 
; 964  : 
; 965  : 			CString strMsg, strTitle;

  00ff7	8d 8d fc fc ff
	ff		 lea	 ecx, DWORD PTR _strMsg$23[ebp]
  00ffd	ff 15 00 00 00
	00		 call	 DWORD PTR __imp_??0?$CStringT@DV?$StrTraitMFC_DLL@DV?$ChTraitsCRT@D@ATL@@@@@ATL@@QAE@XZ
  01003	8d 8d 04 fd ff
	ff		 lea	 ecx, DWORD PTR _strTitle$27[ebp]
  01009	ff 15 00 00 00
	00		 call	 DWORD PTR __imp_??0?$CStringT@DV?$StrTraitMFC_DLL@DV?$ChTraitsCRT@D@ATL@@@@@ATL@@QAE@XZ

; 966  : 			GetWindowText(strTitle);

  0100f	8b 8d d8 fc ff
	ff		 mov	 ecx, DWORD PTR _this$GSCopy$1$[ebp]
  01015	8d 85 04 fd ff
	ff		 lea	 eax, DWORD PTR _strTitle$27[ebp]
  0101b	50		 push	 eax
  0101c	c6 45 fc 25	 mov	 BYTE PTR __$EHRec$[ebp+8], 37 ; 00000025H
  01020	e8 00 00 00 00	 call	 ?GetWindowTextA@CWnd@@QBEXAAV?$CStringT@DV?$StrTraitMFC_DLL@DV?$ChTraitsCRT@D@ATL@@@@@ATL@@@Z ; CWnd::GetWindowTextA

; 967  : 			strMsg.LoadString( IDS_MSG_FILE_FORMAT_ERROR);

  01025	6a 13		 push	 19			; 00000013H
  01027	8d 8d fc fc ff
	ff		 lea	 ecx, DWORD PTR _strMsg$23[ebp]
  0102d	ff 15 00 00 00
	00		 call	 DWORD PTR __imp_?LoadStringA@?$CStringT@DV?$StrTraitMFC_DLL@DV?$ChTraitsCRT@D@ATL@@@@@ATL@@QAEHI@Z

; 968  : 			MessageBox(strMsg, strTitle);

  01033	8b 8d d8 fc ff
	ff		 mov	 ecx, DWORD PTR _this$GSCopy$1$[ebp]
  01039	6a 00		 push	 0
  0103b	ff b5 04 fd ff
	ff		 push	 DWORD PTR _strTitle$27[ebp]
  01041	ff b5 fc fc ff
	ff		 push	 DWORD PTR _strMsg$23[ebp]
  01047	e8 00 00 00 00	 call	 ?MessageBoxA@CWnd@@QAEHPBD0I@Z ; CWnd::MessageBoxA

; 969  : 
; 970  : 
; 971  : 			f.Close();

  0104c	8d 8d 58 fc ff
	ff		 lea	 ecx, DWORD PTR _f$2[ebp]
  01052	e8 00 00 00 00	 call	 ?Close@CFile@@UAEXXZ	; CFile::Close

; 973  : 			return;

  01057	8d 8d 04 fd ff
	ff		 lea	 ecx, DWORD PTR _strTitle$27[ebp]
  0105d	ff 15 00 00 00
	00		 call	 DWORD PTR __imp_??1?$CStringT@DV?$StrTraitMFC_DLL@DV?$ChTraitsCRT@D@ATL@@@@@ATL@@QAE@XZ
  01063	8d 8d fc fc ff
	ff		 lea	 ecx, DWORD PTR _strMsg$23[ebp]
  01069	ff 15 00 00 00
	00		 call	 DWORD PTR __imp_??1?$CStringT@DV?$StrTraitMFC_DLL@DV?$ChTraitsCRT@D@ATL@@@@@ATL@@QAE@XZ
$LN128@OnBtnImpor:
; File C:\Program Files (x86)\Microsoft Visual Studio\2019\Community\VC\Tools\MSVC\14.29.30133\atlmfc\include\afxtempl.h

; 358  : 	if (m_pData != NULL)

  0106f	8b 85 00 fd ff
	ff		 mov	 eax, DWORD PTR _GridHeaderInfoArray$1$[ebp]
  01075	85 c0		 test	 eax, eax
  01077	74 09		 je	 SHORT $LN472@OnBtnImpor

; 359  : 	{
; 360  : 		for( int i = 0; i < m_nSize; i++ )
; 361  : 			(m_pData + i)->~TYPE();
; 362  : 		delete[] (BYTE*)m_pData;

  01079	50		 push	 eax
  0107a	e8 00 00 00 00	 call	 ??_V@YAXPAX@Z		; operator delete[]
  0107f	83 c4 04	 add	 esp, 4
$LN472@OnBtnImpor:

; 872  : 	m_pBlocks->FreeDataChain();

  01082	8b 8d b4 fc ff
	ff		 mov	 ecx, DWORD PTR _ChartDataList$5[ebp+20]

; 878  : {

  01088	c6 45 fc 26	 mov	 BYTE PTR __$EHRec$[ebp+8], 38 ; 00000026H
  0108c	c7 85 a0 fc ff
	ff 00 00 00 00	 mov	 DWORD PTR _ChartDataList$5[ebp], OFFSET ??_7?$CList@PAVCChartRecordSet@@PAV1@@@6B@

; 870  : 	m_nCount = 0;

  01096	c7 85 ac fc ff
	ff 00 00 00 00	 mov	 DWORD PTR _ChartDataList$5[ebp+12], 0

; 871  : 	m_pNodeHead = m_pNodeTail = m_pNodeFree = NULL;

  010a0	c7 85 b0 fc ff
	ff 00 00 00 00	 mov	 DWORD PTR _ChartDataList$5[ebp+16], 0
  010aa	c7 85 a8 fc ff
	ff 00 00 00 00	 mov	 DWORD PTR _ChartDataList$5[ebp+8], 0
  010b4	c7 85 a4 fc ff
	ff 00 00 00 00	 mov	 DWORD PTR _ChartDataList$5[ebp+4], 0

; 872  : 	m_pBlocks->FreeDataChain();

  010be	e8 00 00 00 00	 call	 ?FreeDataChain@CPlex@@QAEXXZ ; CPlex::FreeDataChain
; File D:\git\src\IBK\IBK_DRFN\ProjSrc\SrcChartEx\ChartAddIn\ChartDataListViewerAddIn\ChartDataListViewerAddIn\DlgDataSimulator.cpp

; 973  : 			return;

  010c3	8d 8d f8 fc ff
	ff		 lea	 ecx, DWORD PTR _strLineEndKey$22[ebp]
; File C:\Program Files (x86)\Microsoft Visual Studio\2019\Community\VC\Tools\MSVC\14.29.30133\atlmfc\include\afxtempl.h

; 873  : 	m_pBlocks = NULL;

  010c9	c7 85 b4 fc ff
	ff 00 00 00 00	 mov	 DWORD PTR _ChartDataList$5[ebp+20], 0
; File D:\git\src\IBK\IBK_DRFN\ProjSrc\SrcChartEx\ChartAddIn\ChartDataListViewerAddIn\ChartDataListViewerAddIn\DlgDataSimulator.cpp

; 973  : 			return;

  010d3	ff 15 00 00 00
	00		 call	 DWORD PTR __imp_??1?$CStringT@DV?$StrTraitMFC_DLL@DV?$ChTraitsCRT@D@ATL@@@@@ATL@@QAE@XZ
  010d9	8d 8d 0c fd ff
	ff		 lea	 ecx, DWORD PTR _strKey$36[ebp]
  010df	ff 15 00 00 00
	00		 call	 DWORD PTR __imp_??1?$CStringT@DV?$StrTraitMFC_DLL@DV?$ChTraitsCRT@D@ATL@@@@@ATL@@QAE@XZ
  010e5	8d 8d d4 fc ff
	ff		 lea	 ecx, DWORD PTR _strHeaderPacketType$11[ebp]
  010eb	ff 15 00 00 00
	00		 call	 DWORD PTR __imp_??1?$CStringT@DV?$StrTraitMFC_DLL@DV?$ChTraitsCRT@D@ATL@@@@@ATL@@QAE@XZ
  010f1	8d 8d d0 fc ff
	ff		 lea	 ecx, DWORD PTR _strHeaderTitle$10[ebp]
  010f7	ff 15 00 00 00
	00		 call	 DWORD PTR __imp_??1?$CStringT@DV?$StrTraitMFC_DLL@DV?$ChTraitsCRT@D@ATL@@@@@ATL@@QAE@XZ
  010fd	8d 8d cc fc ff
	ff		 lea	 ecx, DWORD PTR _strHeaderInfo$9[ebp]
  01103	ff 15 00 00 00
	00		 call	 DWORD PTR __imp_??1?$CStringT@DV?$StrTraitMFC_DLL@DV?$ChTraitsCRT@D@ATL@@@@@ATL@@QAE@XZ
  01109	8d 8d 08 fd ff
	ff		 lea	 ecx, DWORD PTR _strHeader$35[ebp]
  0110f	ff 15 00 00 00
	00		 call	 DWORD PTR __imp_??1?$CStringT@DV?$StrTraitMFC_DLL@DV?$ChTraitsCRT@D@ATL@@@@@ATL@@QAE@XZ
  01115	8d 8d c8 fc ff
	ff		 lea	 ecx, DWORD PTR _strHelpMessage$8[ebp]
  0111b	ff 15 00 00 00
	00		 call	 DWORD PTR __imp_??1?$CStringT@DV?$StrTraitMFC_DLL@DV?$ChTraitsCRT@D@ATL@@@@@ATL@@QAE@XZ
  01121	8d 8d f4 fc ff
	ff		 lea	 ecx, DWORD PTR _strTemp$21[ebp]
  01127	ff 15 00 00 00
	00		 call	 DWORD PTR __imp_??1?$CStringT@DV?$StrTraitMFC_DLL@DV?$ChTraitsCRT@D@ATL@@@@@ATL@@QAE@XZ
  0112d	8d 8d e0 fc ff
	ff		 lea	 ecx, DWORD PTR _strChartData$13[ebp]
  01133	ff 15 00 00 00
	00		 call	 DWORD PTR __imp_??1?$CStringT@DV?$StrTraitMFC_DLL@DV?$ChTraitsCRT@D@ATL@@@@@ATL@@QAE@XZ
  01139	8d 8d f0 fc ff
	ff		 lea	 ecx, DWORD PTR _strLine$19[ebp]
  0113f	ff 15 00 00 00
	00		 call	 DWORD PTR __imp_??1?$CStringT@DV?$StrTraitMFC_DLL@DV?$ChTraitsCRT@D@ATL@@@@@ATL@@QAE@XZ
  01145	8d 8d 6c fc ff
	ff		 lea	 ecx, DWORD PTR _strRecordArray$3[ebp]
  0114b	e8 00 00 00 00	 call	 ??1CStringArray@@UAE@XZ	; CStringArray::~CStringArray
  01150	8d 8d ec fc ff
	ff		 lea	 ecx, DWORD PTR _strDevider$17[ebp]
  01156	ff 15 00 00 00
	00		 call	 DWORD PTR __imp_??1?$CStringT@DV?$StrTraitMFC_DLL@DV?$ChTraitsCRT@D@ATL@@@@@ATL@@QAE@XZ
  0115c	8d 8d e8 fc ff
	ff		 lea	 ecx, DWORD PTR _strContents$16[ebp]
$LN612@OnBtnImpor:
  01162	ff 15 00 00 00
	00		 call	 DWORD PTR __imp_??1?$CStringT@DV?$StrTraitMFC_DLL@DV?$ChTraitsCRT@D@ATL@@@@@ATL@@QAE@XZ
  01168	8d 8d 58 fc ff
	ff		 lea	 ecx, DWORD PTR _f$2[ebp]
  0116e	e8 00 00 00 00	 call	 ??1CFile@@UAE@XZ	; CFile::~CFile
  01173	8d 8d c0 fc ff
	ff		 lea	 ecx, DWORD PTR _strFileName$6[ebp]
  01179	ff 15 00 00 00
	00		 call	 DWORD PTR __imp_??1?$CStringT@DV?$StrTraitMFC_DLL@DV?$ChTraitsCRT@D@ATL@@@@@ATL@@QAE@XZ
$LN22@OnBtnImpor:

; 974  : 		}
; 975  : 	}		
; 976  : }

  0117f	8d 8d 10 fd ff
	ff		 lea	 ecx, DWORD PTR _dlg$[ebp]
  01185	e8 00 00 00 00	 call	 ??1CFileDialog@@UAE@XZ	; CFileDialog::~CFileDialog
  0118a	8d 8d bc fc ff
	ff		 lea	 ecx, DWORD PTR _strFilter$[ebp]
$LN611@OnBtnImpor:
  01190	ff 15 00 00 00
	00		 call	 DWORD PTR __imp_??1?$CStringT@DV?$StrTraitMFC_DLL@DV?$ChTraitsCRT@D@ATL@@@@@ATL@@QAE@XZ
  01196	8b 4d f4	 mov	 ecx, DWORD PTR __$EHRec$[ebp]
  01199	64 89 0d 00 00
	00 00		 mov	 DWORD PTR fs:0, ecx
  011a0	59		 pop	 ecx
  011a1	5f		 pop	 edi
  011a2	5e		 pop	 esi
  011a3	5b		 pop	 ebx
  011a4	8b 4d f0	 mov	 ecx, DWORD PTR __$ArrayPad$[ebp]
  011a7	33 cd		 xor	 ecx, ebp
  011a9	e8 00 00 00 00	 call	 @__security_check_cookie@4
  011ae	8b e5		 mov	 esp, ebp
  011b0	5d		 pop	 ebp
  011b1	c3		 ret	 0
$LN570@OnBtnImpor:
  011b2	e8 00 00 00 00	 call	 ?AfxThrowInvalidArgException@@YGXXZ ; AfxThrowInvalidArgException
$LN610@OnBtnImpor:
  011b7	cc		 int	 3
_TEXT	ENDS
;	COMDAT text$x
text$x	SEGMENT
__unwindfunclet$?OnBtnImport@CDlgDataSimulator@@IAEXXZ$27:
  00000	8d 8d f0 fc ff
	ff		 lea	 ecx, DWORD PTR _strMsg$20[ebp]
  00006	ff 25 00 00 00
	00		 jmp	 DWORD PTR __imp_??1?$CStringT@DV?$StrTraitMFC_DLL@DV?$ChTraitsCRT@D@ATL@@@@@ATL@@QAE@XZ
__unwindfunclet$?OnBtnImport@CDlgDataSimulator@@IAEXXZ$28:
  0000c	8d 8d ec fc ff
	ff		 lea	 ecx, DWORD PTR _strTitle$18[ebp]
  00012	ff 25 00 00 00
	00		 jmp	 DWORD PTR __imp_??1?$CStringT@DV?$StrTraitMFC_DLL@DV?$ChTraitsCRT@D@ATL@@@@@ATL@@QAE@XZ
__unwindfunclet$?OnBtnImport@CDlgDataSimulator@@IAEXXZ$29:
  00018	8d 8d bc fc ff
	ff		 lea	 ecx, DWORD PTR _strFilter$[ebp]
  0001e	ff 25 00 00 00
	00		 jmp	 DWORD PTR __imp_??1?$CStringT@DV?$StrTraitMFC_DLL@DV?$ChTraitsCRT@D@ATL@@@@@ATL@@QAE@XZ
__unwindfunclet$?OnBtnImport@CDlgDataSimulator@@IAEXXZ$30:
  00024	8d 8d 10 fd ff
	ff		 lea	 ecx, DWORD PTR _dlg$[ebp]
  0002a	e9 00 00 00 00	 jmp	 ??1CFileDialog@@UAE@XZ	; CFileDialog::~CFileDialog
__unwindfunclet$?OnBtnImport@CDlgDataSimulator@@IAEXXZ$31:
  0002f	8d 8d c0 fc ff
	ff		 lea	 ecx, DWORD PTR _strFileName$6[ebp]
  00035	ff 25 00 00 00
	00		 jmp	 DWORD PTR __imp_??1?$CStringT@DV?$StrTraitMFC_DLL@DV?$ChTraitsCRT@D@ATL@@@@@ATL@@QAE@XZ
__unwindfunclet$?OnBtnImport@CDlgDataSimulator@@IAEXXZ$32:
  0003b	8d 8d 58 fc ff
	ff		 lea	 ecx, DWORD PTR _f$2[ebp]
  00041	e9 00 00 00 00	 jmp	 ??1CFile@@UAE@XZ	; CFile::~CFile
__unwindfunclet$?OnBtnImport@CDlgDataSimulator@@IAEXXZ$33:
  00046	8d 8d fc fc ff
	ff		 lea	 ecx, DWORD PTR _strMsg$25[ebp]
  0004c	ff 25 00 00 00
	00		 jmp	 DWORD PTR __imp_??1?$CStringT@DV?$StrTraitMFC_DLL@DV?$ChTraitsCRT@D@ATL@@@@@ATL@@QAE@XZ
__unwindfunclet$?OnBtnImport@CDlgDataSimulator@@IAEXXZ$34:
  00052	8d 8d 00 fd ff
	ff		 lea	 ecx, DWORD PTR _strTitle$26[ebp]
  00058	ff 25 00 00 00
	00		 jmp	 DWORD PTR __imp_??1?$CStringT@DV?$StrTraitMFC_DLL@DV?$ChTraitsCRT@D@ATL@@@@@ATL@@QAE@XZ
__unwindfunclet$?OnBtnImport@CDlgDataSimulator@@IAEXXZ$35:
  0005e	8d 8d e8 fc ff
	ff		 lea	 ecx, DWORD PTR _strContents$16[ebp]
  00064	ff 25 00 00 00
	00		 jmp	 DWORD PTR __imp_??1?$CStringT@DV?$StrTraitMFC_DLL@DV?$ChTraitsCRT@D@ATL@@@@@ATL@@QAE@XZ
__unwindfunclet$?OnBtnImport@CDlgDataSimulator@@IAEXXZ$36:
  0006a	8d 8d ec fc ff
	ff		 lea	 ecx, DWORD PTR _strDevider$17[ebp]
  00070	ff 25 00 00 00
	00		 jmp	 DWORD PTR __imp_??1?$CStringT@DV?$StrTraitMFC_DLL@DV?$ChTraitsCRT@D@ATL@@@@@ATL@@QAE@XZ
__unwindfunclet$?OnBtnImport@CDlgDataSimulator@@IAEXXZ$37:
  00076	8d 8d 6c fc ff
	ff		 lea	 ecx, DWORD PTR _strRecordArray$3[ebp]
  0007c	e9 00 00 00 00	 jmp	 ??1CStringArray@@UAE@XZ	; CStringArray::~CStringArray
__unwindfunclet$?OnBtnImport@CDlgDataSimulator@@IAEXXZ$38:
  00081	8d 8d f0 fc ff
	ff		 lea	 ecx, DWORD PTR _strLine$19[ebp]
  00087	ff 25 00 00 00
	00		 jmp	 DWORD PTR __imp_??1?$CStringT@DV?$StrTraitMFC_DLL@DV?$ChTraitsCRT@D@ATL@@@@@ATL@@QAE@XZ
__unwindfunclet$?OnBtnImport@CDlgDataSimulator@@IAEXXZ$39:
  0008d	8d 8d e0 fc ff
	ff		 lea	 ecx, DWORD PTR _strChartData$13[ebp]
  00093	ff 25 00 00 00
	00		 jmp	 DWORD PTR __imp_??1?$CStringT@DV?$StrTraitMFC_DLL@DV?$ChTraitsCRT@D@ATL@@@@@ATL@@QAE@XZ
__unwindfunclet$?OnBtnImport@CDlgDataSimulator@@IAEXXZ$40:
  00099	8d 8d f4 fc ff
	ff		 lea	 ecx, DWORD PTR _strTemp$21[ebp]
  0009f	ff 25 00 00 00
	00		 jmp	 DWORD PTR __imp_??1?$CStringT@DV?$StrTraitMFC_DLL@DV?$ChTraitsCRT@D@ATL@@@@@ATL@@QAE@XZ
__unwindfunclet$?OnBtnImport@CDlgDataSimulator@@IAEXXZ$41:
  000a5	8d 8d c8 fc ff
	ff		 lea	 ecx, DWORD PTR _strHelpMessage$8[ebp]
  000ab	ff 25 00 00 00
	00		 jmp	 DWORD PTR __imp_??1?$CStringT@DV?$StrTraitMFC_DLL@DV?$ChTraitsCRT@D@ATL@@@@@ATL@@QAE@XZ
__unwindfunclet$?OnBtnImport@CDlgDataSimulator@@IAEXXZ$42:
  000b1	8d 8d 08 fd ff
	ff		 lea	 ecx, DWORD PTR _strHeader$35[ebp]
  000b7	ff 25 00 00 00
	00		 jmp	 DWORD PTR __imp_??1?$CStringT@DV?$StrTraitMFC_DLL@DV?$ChTraitsCRT@D@ATL@@@@@ATL@@QAE@XZ
__unwindfunclet$?OnBtnImport@CDlgDataSimulator@@IAEXXZ$43:
  000bd	8d 8d cc fc ff
	ff		 lea	 ecx, DWORD PTR _strHeaderInfo$9[ebp]
  000c3	ff 25 00 00 00
	00		 jmp	 DWORD PTR __imp_??1?$CStringT@DV?$StrTraitMFC_DLL@DV?$ChTraitsCRT@D@ATL@@@@@ATL@@QAE@XZ
__unwindfunclet$?OnBtnImport@CDlgDataSimulator@@IAEXXZ$44:
  000c9	8d 8d d0 fc ff
	ff		 lea	 ecx, DWORD PTR _strHeaderTitle$10[ebp]
  000cf	ff 25 00 00 00
	00		 jmp	 DWORD PTR __imp_??1?$CStringT@DV?$StrTraitMFC_DLL@DV?$ChTraitsCRT@D@ATL@@@@@ATL@@QAE@XZ
__unwindfunclet$?OnBtnImport@CDlgDataSimulator@@IAEXXZ$45:
  000d5	8d 8d d4 fc ff
	ff		 lea	 ecx, DWORD PTR _strHeaderPacketType$11[ebp]
  000db	ff 25 00 00 00
	00		 jmp	 DWORD PTR __imp_??1?$CStringT@DV?$StrTraitMFC_DLL@DV?$ChTraitsCRT@D@ATL@@@@@ATL@@QAE@XZ
__unwindfunclet$?OnBtnImport@CDlgDataSimulator@@IAEXXZ$46:
  000e1	8d 8d 0c fd ff
	ff		 lea	 ecx, DWORD PTR _strKey$36[ebp]
  000e7	ff 25 00 00 00
	00		 jmp	 DWORD PTR __imp_??1?$CStringT@DV?$StrTraitMFC_DLL@DV?$ChTraitsCRT@D@ATL@@@@@ATL@@QAE@XZ
__unwindfunclet$?OnBtnImport@CDlgDataSimulator@@IAEXXZ$47:
  000ed	8d 8d f8 fc ff
	ff		 lea	 ecx, DWORD PTR _strLineEndKey$22[ebp]
  000f3	ff 25 00 00 00
	00		 jmp	 DWORD PTR __imp_??1?$CStringT@DV?$StrTraitMFC_DLL@DV?$ChTraitsCRT@D@ATL@@@@@ATL@@QAE@XZ
__unwindfunclet$?OnBtnImport@CDlgDataSimulator@@IAEXXZ$48:
  000f9	8d 8d a0 fc ff
	ff		 lea	 ecx, DWORD PTR _ChartDataList$5[ebp]
  000ff	e9 00 00 00 00	 jmp	 ??1?$CList@PAVCChartRecordSet@@PAV1@@@UAE@XZ ; CList<CChartRecordSet *,CChartRecordSet *>::~CList<CChartRecordSet *,CChartRecordSet *>
__unwindfunclet$?OnBtnImport@CDlgDataSimulator@@IAEXXZ$49:
  00104	8d 8d 80 fc ff
	ff		 lea	 ecx, DWORD PTR _GridHeaderInfoArray$4[ebp]
  0010a	e9 00 00 00 00	 jmp	 ??1?$CArray@PAVCChartDataGridHeaderInfo@@PAV1@@@UAE@XZ ; CArray<CChartDataGridHeaderInfo *,CChartDataGridHeaderInfo *>::~CArray<CChartDataGridHeaderInfo *,CChartDataGridHeaderInfo *>
__unwindfunclet$?OnBtnImport@CDlgDataSimulator@@IAEXXZ$50:
  0010f	8d 8d 04 fd ff
	ff		 lea	 ecx, DWORD PTR $T34[ebp]
  00115	ff 25 00 00 00
	00		 jmp	 DWORD PTR __imp_??1?$CStringT@DV?$StrTraitMFC_DLL@DV?$ChTraitsCRT@D@ATL@@@@@ATL@@QAE@XZ
__unwindfunclet$?OnBtnImport@CDlgDataSimulator@@IAEXXZ$51:
  0011b	8d 8d 04 fd ff
	ff		 lea	 ecx, DWORD PTR $T33[ebp]
  00121	ff 25 00 00 00
	00		 jmp	 DWORD PTR __imp_??1?$CStringT@DV?$StrTraitMFC_DLL@DV?$ChTraitsCRT@D@ATL@@@@@ATL@@QAE@XZ
__unwindfunclet$?OnBtnImport@CDlgDataSimulator@@IAEXXZ$52:
  00127	8d 8d 04 fd ff
	ff		 lea	 ecx, DWORD PTR $T32[ebp]
  0012d	ff 25 00 00 00
	00		 jmp	 DWORD PTR __imp_??1?$CStringT@DV?$StrTraitMFC_DLL@DV?$ChTraitsCRT@D@ATL@@@@@ATL@@QAE@XZ
__unwindfunclet$?OnBtnImport@CDlgDataSimulator@@IAEXXZ$53:
  00133	8d 8d 04 fd ff
	ff		 lea	 ecx, DWORD PTR $T31[ebp]
  00139	ff 25 00 00 00
	00		 jmp	 DWORD PTR __imp_??1?$CStringT@DV?$StrTraitMFC_DLL@DV?$ChTraitsCRT@D@ATL@@@@@ATL@@QAE@XZ
__unwindfunclet$?OnBtnImport@CDlgDataSimulator@@IAEXXZ$54:
  0013f	8d 8d 04 fd ff
	ff		 lea	 ecx, DWORD PTR $T30[ebp]
  00145	ff 25 00 00 00
	00		 jmp	 DWORD PTR __imp_??1?$CStringT@DV?$StrTraitMFC_DLL@DV?$ChTraitsCRT@D@ATL@@@@@ATL@@QAE@XZ
__unwindfunclet$?OnBtnImport@CDlgDataSimulator@@IAEXXZ$55:
  0014b	8d 8d 04 fd ff
	ff		 lea	 ecx, DWORD PTR $T29[ebp]
  00151	ff 25 00 00 00
	00		 jmp	 DWORD PTR __imp_??1?$CStringT@DV?$StrTraitMFC_DLL@DV?$ChTraitsCRT@D@ATL@@@@@ATL@@QAE@XZ
__unwindfunclet$?OnBtnImport@CDlgDataSimulator@@IAEXXZ$56:
  00157	8d 8d 04 fd ff
	ff		 lea	 ecx, DWORD PTR $T28[ebp]
  0015d	ff 25 00 00 00
	00		 jmp	 DWORD PTR __imp_??1?$CStringT@DV?$StrTraitMFC_DLL@DV?$ChTraitsCRT@D@ATL@@@@@ATL@@QAE@XZ
__unwindfunclet$?OnBtnImport@CDlgDataSimulator@@IAEXXZ$57:
  00163	8d 8d fc fc ff
	ff		 lea	 ecx, DWORD PTR $T24[ebp]
  00169	ff 25 00 00 00
	00		 jmp	 DWORD PTR __imp_??1?$CStringT@DV?$StrTraitMFC_DLL@DV?$ChTraitsCRT@D@ATL@@@@@ATL@@QAE@XZ
__unwindfunclet$?OnBtnImport@CDlgDataSimulator@@IAEXXZ$58:
  0016f	8d 8d c4 fc ff
	ff		 lea	 ecx, DWORD PTR $T7[ebp]
  00175	ff 25 00 00 00
	00		 jmp	 DWORD PTR __imp_??1?$CStringT@DV?$StrTraitMFC_DLL@DV?$ChTraitsCRT@D@ATL@@@@@ATL@@QAE@XZ
__unwindfunclet$?OnBtnImport@CDlgDataSimulator@@IAEXXZ$59:
  0017b	8d 8d e4 fc ff
	ff		 lea	 ecx, DWORD PTR $T15[ebp]
  00181	ff 25 00 00 00
	00		 jmp	 DWORD PTR __imp_??1?$CStringT@DV?$StrTraitMFC_DLL@DV?$ChTraitsCRT@D@ATL@@@@@ATL@@QAE@XZ
__unwindfunclet$?OnBtnImport@CDlgDataSimulator@@IAEXXZ$60:
  00187	8d 8d dc fc ff
	ff		 lea	 ecx, DWORD PTR $T12[ebp]
  0018d	ff 25 00 00 00
	00		 jmp	 DWORD PTR __imp_??1?$CStringT@DV?$StrTraitMFC_DLL@DV?$ChTraitsCRT@D@ATL@@@@@ATL@@QAE@XZ
__unwindfunclet$?OnBtnImport@CDlgDataSimulator@@IAEXXZ$61:
  00193	8d 8d fc fc ff
	ff		 lea	 ecx, DWORD PTR _strMsg$23[ebp]
  00199	ff 25 00 00 00
	00		 jmp	 DWORD PTR __imp_??1?$CStringT@DV?$StrTraitMFC_DLL@DV?$ChTraitsCRT@D@ATL@@@@@ATL@@QAE@XZ
__unwindfunclet$?OnBtnImport@CDlgDataSimulator@@IAEXXZ$62:
  0019f	8d 8d 04 fd ff
	ff		 lea	 ecx, DWORD PTR _strTitle$27[ebp]
  001a5	ff 25 00 00 00
	00		 jmp	 DWORD PTR __imp_??1?$CStringT@DV?$StrTraitMFC_DLL@DV?$ChTraitsCRT@D@ATL@@@@@ATL@@QAE@XZ
  001ab	cc		 int	 3
  001ac	cc		 int	 3
  001ad	cc		 int	 3
  001ae	cc		 int	 3
  001af	cc		 int	 3
__ehhandler$?OnBtnImport@CDlgDataSimulator@@IAEXXZ:
  001b0	90		 npad	 1
  001b1	90		 npad	 1
  001b2	8b 54 24 08	 mov	 edx, DWORD PTR [esp+8]
  001b6	8d 42 0c	 lea	 eax, DWORD PTR [edx+12]
  001b9	8b 8a 54 fc ff
	ff		 mov	 ecx, DWORD PTR [edx-940]
  001bf	33 c8		 xor	 ecx, eax
  001c1	e8 00 00 00 00	 call	 @__security_check_cookie@4
  001c6	8b 4a fc	 mov	 ecx, DWORD PTR [edx-4]
  001c9	33 c8		 xor	 ecx, eax
  001cb	e8 00 00 00 00	 call	 @__security_check_cookie@4
  001d0	b8 00 00 00 00	 mov	 eax, OFFSET __ehfuncinfo$?OnBtnImport@CDlgDataSimulator@@IAEXXZ
  001d5	e9 00 00 00 00	 jmp	 ___CxxFrameHandler3
text$x	ENDS
?OnBtnImport@CDlgDataSimulator@@IAEXXZ ENDP		; CDlgDataSimulator::OnBtnImport
; Function compile flags: /Ogtp
; File D:\git\src\IBK\IBK_DRFN\ProjSrc\SrcChartEx\ChartAddIn\ChartDataListViewerAddIn\ChartDataListViewerAddIn\DlgDataSimulator.cpp
; File C:\Program Files (x86)\Microsoft Visual Studio\2019\Community\VC\Tools\MSVC\14.29.30133\atlmfc\include\afxwin1.inl
; File D:\git\src\IBK\IBK_DRFN\ProjSrc\SrcChartEx\ChartAddIn\ChartDataListViewerAddIn\Include_Chart\DLL_Load\IMetaTable.h
; File C:\Program Files (x86)\Microsoft Visual Studio\2019\Community\VC\Tools\MSVC\14.29.30133\atlmfc\include\afxwin1.inl
; File D:\git\src\IBK\IBK_DRFN\ProjSrc\SrcChartEx\ChartAddIn\ChartDataListViewerAddIn\ChartDataListViewerAddIn\DlgDataSimulator.cpp
; File C:\Program Files (x86)\Microsoft Visual Studio\2019\Community\VC\Tools\MSVC\14.29.30133\atlmfc\include\afxtempl.h
; File D:\git\src\IBK\IBK_DRFN\ProjSrc\SrcChartEx\ChartAddIn\ChartDataListViewerAddIn\ChartDataListViewerAddIn\DlgDataSimulator.cpp
; File C:\Program Files (x86)\Microsoft Visual Studio\2019\Community\VC\Tools\MSVC\14.29.30133\atlmfc\include\afxtempl.h
; File D:\git\src\IBK\IBK_DRFN\ProjSrc\SrcChartEx\ChartAddIn\ChartDataListViewerAddIn\ChartDataListViewerAddIn\DlgDataSimulator.cpp
; File C:\Program Files (x86)\Microsoft Visual Studio\2019\Community\VC\Tools\MSVC\14.29.30133\atlmfc\include\cstringt.h
; File D:\git\src\IBK\IBK_DRFN\ProjSrc\SrcChartEx\ChartAddIn\ChartDataListViewerAddIn\ChartDataListViewerAddIn\DlgDataSimulator.cpp
; File C:\Program Files (x86)\Microsoft Visual Studio\2019\Community\VC\Tools\MSVC\14.29.30133\atlmfc\include\cstringt.h
; File C:\Program Files (x86)\Microsoft Visual Studio\2019\Community\VC\Tools\MSVC\14.29.30133\atlmfc\include\atlsimpstr.h
; File C:\Program Files (x86)\Microsoft Visual Studio\2019\Community\VC\Tools\MSVC\14.29.30133\atlmfc\include\cstringt.h
; File C:\Program Files (x86)\Microsoft Visual Studio\2019\Community\VC\Tools\MSVC\14.29.30133\atlmfc\include\atlsimpstr.h
; File C:\Program Files (x86)\Microsoft Visual Studio\2019\Community\VC\Tools\MSVC\14.29.30133\atlmfc\include\cstringt.h
; File D:\git\src\IBK\IBK_DRFN\ProjSrc\SrcChartEx\ChartAddIn\ChartDataListViewerAddIn\ChartDataListViewerAddIn\DlgDataSimulator.cpp
; File C:\Program Files (x86)\Microsoft Visual Studio\2019\Community\VC\Tools\MSVC\14.29.30133\atlmfc\include\cstringt.h
; File C:\Program Files (x86)\Microsoft Visual Studio\2019\Community\VC\Tools\MSVC\14.29.30133\atlmfc\include\atlsimpstr.h
; File C:\Program Files (x86)\Microsoft Visual Studio\2019\Community\VC\Tools\MSVC\14.29.30133\atlmfc\include\cstringt.h
; File D:\git\src\IBK\IBK_DRFN\ProjSrc\SrcChartEx\ChartAddIn\ChartDataListViewerAddIn\ChartDataListViewerAddIn\DlgDataSimulator.cpp
; File C:\Program Files (x86)\Microsoft Visual Studio\2019\Community\VC\Tools\MSVC\14.29.30133\atlmfc\include\cstringt.h
; File D:\git\src\IBK\IBK_DRFN\ProjSrc\SrcChartEx\ChartAddIn\ChartDataListViewerAddIn\ChartDataListViewerAddIn\DlgDataSimulator.cpp
; File C:\Program Files (x86)\Microsoft Visual Studio\2019\Community\VC\Tools\MSVC\14.29.30133\atlmfc\include\cstringt.h
; File C:\Program Files (x86)\Microsoft Visual Studio\2019\Community\VC\Tools\MSVC\14.29.30133\atlmfc\include\atlsimpstr.h
; File C:\Program Files (x86)\Microsoft Visual Studio\2019\Community\VC\Tools\MSVC\14.29.30133\atlmfc\include\cstringt.h
; File D:\git\src\IBK\IBK_DRFN\ProjSrc\SrcChartEx\ChartAddIn\ChartDataListViewerAddIn\ChartDataListViewerAddIn\DlgDataSimulator.cpp
; File C:\Program Files (x86)\Microsoft Visual Studio\2019\Community\VC\Tools\MSVC\14.29.30133\atlmfc\include\atlsimpstr.h
; File D:\git\src\IBK\IBK_DRFN\ProjSrc\SrcChartEx\ChartAddIn\ChartDataListViewerAddIn\ChartDataListViewerAddIn\DlgDataSimulator.cpp
; File D:\git\src\IBK\IBK_DRFN\ProjSrc\SrcChartEx\ChartAddIn\ChartDataListViewerAddIn\Include_Chart\DLL_Load\IMetaTable.h
; File C:\Program Files (x86)\Microsoft Visual Studio\2019\Community\VC\Tools\MSVC\14.29.30133\atlmfc\include\afxwin1.inl
; File D:\git\src\IBK\IBK_DRFN\ProjSrc\SrcChartEx\ChartAddIn\ChartDataListViewerAddIn\ChartDataListViewerAddIn\DlgDataSimulator.cpp
; File C:\Program Files (x86)\Microsoft Visual Studio\2019\Community\VC\Tools\MSVC\14.29.30133\atlmfc\include\afxtempl.h
; File D:\git\src\IBK\IBK_DRFN\ProjSrc\SrcChartEx\ChartAddIn\ChartDataListViewerAddIn\ChartDataListViewerAddIn\DlgDataSimulator.cpp
;	COMDAT ?OnBtnExport@CDlgDataSimulator@@IAEXXZ
_TEXT	SEGMENT
___mlrs__$ = -816					; size = 4
_f$2 = -812						; size = 20
___mlrs__$1$ = -792					; size = 4
_strFilter$ = -788					; size = 4
_strFileName$3 = -784					; size = 4
_pos$1$ = -780						; size = 4
$T4 = -776						; size = 4
_pRecordSet$1$ = -772					; size = 4
$T5 = -772						; size = 4
_strContents$6 = -768					; size = 4
_i$1$ = -764						; size = 4
$T7 = -764						; size = 4
_strTitle$8 = -764					; size = 4
_strTitle$9 = -764					; size = 4
_this$GSCopy$1$ = -760					; size = 4
$T10 = -760						; size = 4
_strMsg$11 = -760					; size = 4
_strMsg$12 = -760					; size = 4
_strTemp$13 = -756					; size = 4
_dlg$ = -752						; size = 736
__$ArrayPad$ = -16					; size = 4
__$EHRec$ = -12						; size = 12
?OnBtnExport@CDlgDataSimulator@@IAEXXZ PROC		; CDlgDataSimulator::OnBtnExport, COMDAT
; _this$ = ecx

; 643  : {

  00000	55		 push	 ebp
  00001	8b ec		 mov	 ebp, esp
  00003	6a ff		 push	 -1
  00005	68 00 00 00 00	 push	 __ehhandler$?OnBtnExport@CDlgDataSimulator@@IAEXXZ
  0000a	64 a1 00 00 00
	00		 mov	 eax, DWORD PTR fs:0
  00010	50		 push	 eax
  00011	81 ec 24 03 00
	00		 sub	 esp, 804		; 00000324H
  00017	a1 00 00 00 00	 mov	 eax, DWORD PTR ___security_cookie
  0001c	33 c5		 xor	 eax, ebp
  0001e	89 45 f0	 mov	 DWORD PTR __$ArrayPad$[ebp], eax
  00021	53		 push	 ebx
  00022	56		 push	 esi
  00023	57		 push	 edi
  00024	50		 push	 eax
  00025	8d 45 f4	 lea	 eax, DWORD PTR __$EHRec$[ebp]
  00028	64 a3 00 00 00
	00		 mov	 DWORD PTR fs:0, eax
  0002e	8b f1		 mov	 esi, ecx
  00030	89 b5 08 fd ff
	ff		 mov	 DWORD PTR _this$GSCopy$1$[ebp], esi
  00036	33 db		 xor	 ebx, ebx
  00038	89 9d fc fc ff
	ff		 mov	 DWORD PTR $T5[ebp], ebx

; 644  : 	ML_SET_LANGUAGE_RES();

  0003e	e8 00 00 00 00	 call	 ?AfxGetStaticModuleState@@YGPAVAFX_MODULE_STATE@@XZ ; AfxGetStaticModuleState
  00043	b9 00 00 00 00	 mov	 ecx, OFFSET ?g_iMetaTable@@3VIMetaTable@@A ; g_iMetaTable
  00048	8b 40 08	 mov	 eax, DWORD PTR [eax+8]
  0004b	50		 push	 eax
  0004c	ff b6 ac 00 00
	00		 push	 DWORD PTR [esi+172]
  00052	e8 00 00 00 00	 call	 ?LoadResourceDLL@IMetaTable@@QAEPAUHINSTANCE__@@PAUHWND__@@PAU2@@Z ; IMetaTable::LoadResourceDLL
  00057	8b f8		 mov	 edi, eax
; File C:\Program Files (x86)\Microsoft Visual Studio\2019\Community\VC\Tools\MSVC\14.29.30133\atlmfc\include\afxwin1.inl

; 25   : 		return afxCurrentResourceHandle; }

  00059	e8 00 00 00 00	 call	 ?AfxGetModuleState@@YGPAVAFX_MODULE_STATE@@XZ ; AfxGetModuleState
; File D:\git\src\IBK\IBK_DRFN\ProjSrc\SrcChartEx\ChartAddIn\ChartDataListViewerAddIn\Include_Chart\DLL_Load\IMetaTable.h

; 1032 : 		m_hInstance = AfxGetResourceHandle();

  0005e	8b 70 0c	 mov	 esi, DWORD PTR [eax+12]
  00061	89 b5 e8 fc ff
	ff		 mov	 DWORD PTR ___mlrs__$1$[ebp], esi
  00067	89 b5 d0 fc ff
	ff		 mov	 DWORD PTR ___mlrs__$[ebp], esi
; File C:\Program Files (x86)\Microsoft Visual Studio\2019\Community\VC\Tools\MSVC\14.29.30133\atlmfc\include\afxwin1.inl

; 27   : 	{ ASSERT(hInstResource != NULL); afxCurrentResourceHandle = hInstResource; }

  0006d	e8 00 00 00 00	 call	 ?AfxGetModuleState@@YGPAVAFX_MODULE_STATE@@XZ ; AfxGetModuleState
  00072	89 78 0c	 mov	 DWORD PTR [eax+12], edi
; File D:\git\src\IBK\IBK_DRFN\ProjSrc\SrcChartEx\ChartAddIn\ChartDataListViewerAddIn\ChartDataListViewerAddIn\DlgDataSimulator.cpp

; 646  : 	if(!m_pChartDataGridManager)

  00075	8b bd 08 fd ff
	ff		 mov	 edi, DWORD PTR _this$GSCopy$1$[ebp]
  0007b	89 5d fc	 mov	 DWORD PTR __$EHRec$[ebp+8], ebx
  0007e	39 9f 38 05 00
	00		 cmp	 DWORD PTR [edi+1336], ebx
  00084	75 63		 jne	 SHORT $LN11@OnBtnExpor

; 647  : 	{
; 648  : 		CString strMsg, strTitle;

  00086	8d 8d 08 fd ff
	ff		 lea	 ecx, DWORD PTR _strMsg$12[ebp]
  0008c	ff 15 00 00 00
	00		 call	 DWORD PTR __imp_??0?$CStringT@DV?$StrTraitMFC_DLL@DV?$ChTraitsCRT@D@ATL@@@@@ATL@@QAE@XZ
  00092	8d 8d 04 fd ff
	ff		 lea	 ecx, DWORD PTR _strTitle$9[ebp]
  00098	ff 15 00 00 00
	00		 call	 DWORD PTR __imp_??0?$CStringT@DV?$StrTraitMFC_DLL@DV?$ChTraitsCRT@D@ATL@@@@@ATL@@QAE@XZ

; 649  : 		strMsg.LoadString( IDS_MSG_PRICE_DATA_ERROR);

  0009e	6a 11		 push	 17			; 00000011H
  000a0	8d 8d 08 fd ff
	ff		 lea	 ecx, DWORD PTR _strMsg$12[ebp]
  000a6	c6 45 fc 02	 mov	 BYTE PTR __$EHRec$[ebp+8], 2
  000aa	ff 15 00 00 00
	00		 call	 DWORD PTR __imp_?LoadStringA@?$CStringT@DV?$StrTraitMFC_DLL@DV?$ChTraitsCRT@D@ATL@@@@@ATL@@QAEHI@Z

; 650  : 		GetWindowText(strTitle);

  000b0	8d 85 04 fd ff
	ff		 lea	 eax, DWORD PTR _strTitle$9[ebp]
  000b6	8b cf		 mov	 ecx, edi
  000b8	50		 push	 eax
  000b9	e8 00 00 00 00	 call	 ?GetWindowTextA@CWnd@@QBEXAAV?$CStringT@DV?$StrTraitMFC_DLL@DV?$ChTraitsCRT@D@ATL@@@@@ATL@@@Z ; CWnd::GetWindowTextA

; 651  : 		MessageBox(strMsg, strTitle);

  000be	53		 push	 ebx
  000bf	ff b5 04 fd ff
	ff		 push	 DWORD PTR _strTitle$9[ebp]
  000c5	8b cf		 mov	 ecx, edi
  000c7	ff b5 08 fd ff
	ff		 push	 DWORD PTR _strMsg$12[ebp]
  000cd	e8 00 00 00 00	 call	 ?MessageBoxA@CWnd@@QAEHPBD0I@Z ; CWnd::MessageBoxA

; 652  : 		return;

  000d2	8d 8d 04 fd ff
	ff		 lea	 ecx, DWORD PTR _strTitle$9[ebp]
  000d8	ff 15 00 00 00
	00		 call	 DWORD PTR __imp_??1?$CStringT@DV?$StrTraitMFC_DLL@DV?$ChTraitsCRT@D@ATL@@@@@ATL@@QAE@XZ
  000de	8d 8d 08 fd ff
	ff		 lea	 ecx, DWORD PTR _strMsg$12[ebp]
  000e4	e9 24 05 00 00	 jmp	 $LN132@OnBtnExpor
$LN11@OnBtnExpor:

; 653  : 	}
; 654  : 
; 655  : 	CString strFilter = "DSM Files (*.dsm)|*.dsm||";

  000e9	68 00 00 00 00	 push	 OFFSET ??_C@_0BK@FAEMHIOP@DSM?5Files?5?$CI?$CK?4dsm?$CJ?$HM?$CK?4dsm?$HM?$HM@
  000ee	8d 8d ec fc ff
	ff		 lea	 ecx, DWORD PTR _strFilter$[ebp]
  000f4	ff 15 00 00 00
	00		 call	 DWORD PTR __imp_??0?$CStringT@DV?$StrTraitMFC_DLL@DV?$ChTraitsCRT@D@ATL@@@@@ATL@@QAE@PBD@Z

; 656  : 	CFileDialog dlg(FALSE, "dsm", "test.dsm", OFN_HIDEREADONLY|OFN_OVERWRITEPROMPT, strFilter);

  000fa	6a 01		 push	 1
  000fc	6a 00		 push	 0
  000fe	6a 00		 push	 0
  00100	ff b5 ec fc ff
	ff		 push	 DWORD PTR _strFilter$[ebp]
  00106	8d 8d 10 fd ff
	ff		 lea	 ecx, DWORD PTR _dlg$[ebp]
  0010c	c6 45 fc 04	 mov	 BYTE PTR __$EHRec$[ebp+8], 4
  00110	6a 06		 push	 6
  00112	68 00 00 00 00	 push	 OFFSET ??_C@_08CNNAGAOE@test?4dsm@
  00117	68 00 00 00 00	 push	 OFFSET ??_C@_03OMBLIDFE@dsm@
  0011c	6a 00		 push	 0
  0011e	e8 00 00 00 00	 call	 ??0CFileDialog@@QAE@HPBD0K0PAVCWnd@@KH@Z ; CFileDialog::CFileDialog

; 657  : 	if(dlg.DoModal() == IDOK)

  00123	8d 8d 10 fd ff
	ff		 lea	 ecx, DWORD PTR _dlg$[ebp]
  00129	c6 45 fc 05	 mov	 BYTE PTR __$EHRec$[ebp+8], 5
  0012d	e8 00 00 00 00	 call	 ?DoModal@CFileDialog@@UAEHXZ ; CFileDialog::DoModal
  00132	83 f8 01	 cmp	 eax, 1
  00135	0f 85 c1 04 00
	00		 jne	 $LN12@OnBtnExpor

; 658  : 	{
; 659  : 		CString strFileName = dlg.GetPathName();

  0013b	8d 85 f0 fc ff
	ff		 lea	 eax, DWORD PTR _strFileName$3[ebp]
  00141	50		 push	 eax
  00142	8d 8d 10 fd ff
	ff		 lea	 ecx, DWORD PTR _dlg$[ebp]
  00148	e8 00 00 00 00	 call	 ?GetPathName@CFileDialog@@QBE?AV?$CStringT@DV?$StrTraitMFC_DLL@DV?$ChTraitsCRT@D@ATL@@@@@ATL@@XZ ; CFileDialog::GetPathName

; 660  : 
; 661  : 		CFile f;

  0014d	8d 8d d4 fc ff
	ff		 lea	 ecx, DWORD PTR _f$2[ebp]
  00153	c6 45 fc 06	 mov	 BYTE PTR __$EHRec$[ebp+8], 6
  00157	e8 00 00 00 00	 call	 ??0CFile@@QAE@XZ	; CFile::CFile

; 662  : 		if(!f.Open(strFileName, CFile::modeWrite | CFile::modeCreate))

  0015c	6a 00		 push	 0
  0015e	68 01 10 00 00	 push	 4097			; 00001001H
  00163	ff b5 f0 fc ff
	ff		 push	 DWORD PTR _strFileName$3[ebp]
  00169	8d 8d d4 fc ff
	ff		 lea	 ecx, DWORD PTR _f$2[ebp]
  0016f	c6 45 fc 07	 mov	 BYTE PTR __$EHRec$[ebp+8], 7
  00173	e8 00 00 00 00	 call	 ?Open@CFile@@UAEHPBDIPAVCFileException@@@Z ; CFile::Open
  00178	85 c0		 test	 eax, eax
  0017a	75 64		 jne	 SHORT $LN13@OnBtnExpor

; 663  : 		{
; 664  : 			CString strMsg, strTitle;

  0017c	8d 8d 08 fd ff
	ff		 lea	 ecx, DWORD PTR _strMsg$11[ebp]
  00182	ff 15 00 00 00
	00		 call	 DWORD PTR __imp_??0?$CStringT@DV?$StrTraitMFC_DLL@DV?$ChTraitsCRT@D@ATL@@@@@ATL@@QAE@XZ
  00188	8d 8d 04 fd ff
	ff		 lea	 ecx, DWORD PTR _strTitle$8[ebp]
  0018e	ff 15 00 00 00
	00		 call	 DWORD PTR __imp_??0?$CStringT@DV?$StrTraitMFC_DLL@DV?$ChTraitsCRT@D@ATL@@@@@ATL@@QAE@XZ

; 665  : 			GetWindowText(strTitle);

  00194	8d 85 04 fd ff
	ff		 lea	 eax, DWORD PTR _strTitle$8[ebp]
  0019a	c6 45 fc 09	 mov	 BYTE PTR __$EHRec$[ebp+8], 9
  0019e	50		 push	 eax
  0019f	8b cf		 mov	 ecx, edi
  001a1	e8 00 00 00 00	 call	 ?GetWindowTextA@CWnd@@QBEXAAV?$CStringT@DV?$StrTraitMFC_DLL@DV?$ChTraitsCRT@D@ATL@@@@@ATL@@@Z ; CWnd::GetWindowTextA

; 666  : 			strMsg.LoadString( IDS_FAIL_TO_OPEN_FILE);

  001a6	6a 12		 push	 18			; 00000012H
  001a8	8d 8d 08 fd ff
	ff		 lea	 ecx, DWORD PTR _strMsg$11[ebp]
  001ae	ff 15 00 00 00
	00		 call	 DWORD PTR __imp_?LoadStringA@?$CStringT@DV?$StrTraitMFC_DLL@DV?$ChTraitsCRT@D@ATL@@@@@ATL@@QAEHI@Z

; 667  : 			MessageBox(strMsg, strTitle);

  001b4	6a 00		 push	 0
  001b6	ff b5 04 fd ff
	ff		 push	 DWORD PTR _strTitle$8[ebp]
  001bc	8b cf		 mov	 ecx, edi
  001be	ff b5 08 fd ff
	ff		 push	 DWORD PTR _strMsg$11[ebp]
  001c4	e8 00 00 00 00	 call	 ?MessageBoxA@CWnd@@QAEHPBD0I@Z ; CWnd::MessageBoxA

; 668  : 			return;

  001c9	8d 8d 04 fd ff
	ff		 lea	 ecx, DWORD PTR _strTitle$8[ebp]
  001cf	ff 15 00 00 00
	00		 call	 DWORD PTR __imp_??1?$CStringT@DV?$StrTraitMFC_DLL@DV?$ChTraitsCRT@D@ATL@@@@@ATL@@QAE@XZ
  001d5	8d 8d 08 fd ff
	ff		 lea	 ecx, DWORD PTR _strMsg$11[ebp]
  001db	e9 ff 03 00 00	 jmp	 $LN133@OnBtnExpor
$LN13@OnBtnExpor:

; 669  : 		}
; 670  : 
; 671  : 
; 672  : 		CString strContents, strTemp;

  001e0	8d 8d 00 fd ff
	ff		 lea	 ecx, DWORD PTR _strContents$6[ebp]
  001e6	ff 15 00 00 00
	00		 call	 DWORD PTR __imp_??0?$CStringT@DV?$StrTraitMFC_DLL@DV?$ChTraitsCRT@D@ATL@@@@@ATL@@QAE@XZ
  001ec	8d 8d 0c fd ff
	ff		 lea	 ecx, DWORD PTR _strTemp$13[ebp]
  001f2	ff 15 00 00 00
	00		 call	 DWORD PTR __imp_??0?$CStringT@DV?$StrTraitMFC_DLL@DV?$ChTraitsCRT@D@ATL@@@@@ATL@@QAE@XZ

; 673  : 		int i, j, nSize = m_pChartDataGridManager->m_ChartDataGridHeaderInfoArray.GetSize();

  001f8	8b 87 38 05 00
	00		 mov	 eax, DWORD PTR [edi+1336]
  001fe	c6 45 fc 0c	 mov	 BYTE PTR __$EHRec$[ebp+8], 12 ; 0000000cH

; 674  : 
; 675  : 		strTemp.Format("HELP_MSG=%s\r\n", m_pChartDataGridManager->m_strHelpMessage);	

  00202	ff 70 14	 push	 DWORD PTR [eax+20]
  00205	8b 78 20	 mov	 edi, DWORD PTR [eax+32]
  00208	8d 85 0c fd ff
	ff		 lea	 eax, DWORD PTR _strTemp$13[ebp]
  0020e	68 00 00 00 00	 push	 OFFSET ??_C@_0O@LGGOCMPJ@HELP_MSG?$DN?$CFs?$AN?6@
  00213	50		 push	 eax
  00214	ff 15 00 00 00
	00		 call	 DWORD PTR __imp_?Format@?$CStringT@DV?$StrTraitMFC_DLL@DV?$ChTraitsCRT@D@ATL@@@@@ATL@@QAAXPBDZZ
  0021a	83 c4 0c	 add	 esp, 12			; 0000000cH

; 676  : 		strContents += strTemp;

  0021d	8d 85 0c fd ff
	ff		 lea	 eax, DWORD PTR _strTemp$13[ebp]
  00223	8d 8d 00 fd ff
	ff		 lea	 ecx, DWORD PTR _strContents$6[ebp]
  00229	50		 push	 eax
  0022a	ff 15 00 00 00
	00		 call	 DWORD PTR __imp_??Y?$CStringT@DV?$StrTraitMFC_DLL@DV?$ChTraitsCRT@D@ATL@@@@@ATL@@QAEAAV01@ABV?$CSimpleStringT@D$00@1@@Z

; 677  : 
; 678  : 		strTemp.Format("DATA_TYPE=%d\r\n", m_pChartDataGridManager->m_nDataType);		

  00230	8b 8d 08 fd ff
	ff		 mov	 ecx, DWORD PTR _this$GSCopy$1$[ebp]
  00236	8b 81 38 05 00
	00		 mov	 eax, DWORD PTR [ecx+1336]
  0023c	ff 70 0c	 push	 DWORD PTR [eax+12]
  0023f	8d 85 0c fd ff
	ff		 lea	 eax, DWORD PTR _strTemp$13[ebp]
  00245	68 00 00 00 00	 push	 OFFSET ??_C@_0P@OHADKMJG@DATA_TYPE?$DN?$CFd?$AN?6@
  0024a	50		 push	 eax
  0024b	ff 15 00 00 00
	00		 call	 DWORD PTR __imp_?Format@?$CStringT@DV?$StrTraitMFC_DLL@DV?$ChTraitsCRT@D@ATL@@@@@ATL@@QAAXPBDZZ
  00251	83 c4 0c	 add	 esp, 12			; 0000000cH

; 679  : 		strContents += strTemp;

  00254	8d 85 0c fd ff
	ff		 lea	 eax, DWORD PTR _strTemp$13[ebp]
  0025a	8d 8d 00 fd ff
	ff		 lea	 ecx, DWORD PTR _strContents$6[ebp]
  00260	50		 push	 eax
  00261	ff 15 00 00 00
	00		 call	 DWORD PTR __imp_??Y?$CStringT@DV?$StrTraitMFC_DLL@DV?$ChTraitsCRT@D@ATL@@@@@ATL@@QAEAAV01@ABV?$CSimpleStringT@D$00@1@@Z

; 680  : 
; 681  : 		strTemp.Format("DATA_INTERVAL=%d\r\n", m_pChartDataGridManager->m_nDataInterval);

  00267	8b 8d 08 fd ff
	ff		 mov	 ecx, DWORD PTR _this$GSCopy$1$[ebp]
  0026d	8b 81 38 05 00
	00		 mov	 eax, DWORD PTR [ecx+1336]
  00273	ff 70 10	 push	 DWORD PTR [eax+16]
  00276	8d 85 0c fd ff
	ff		 lea	 eax, DWORD PTR _strTemp$13[ebp]
  0027c	68 00 00 00 00	 push	 OFFSET ??_C@_0BD@KKDFNHFA@DATA_INTERVAL?$DN?$CFd?$AN?6@
  00281	50		 push	 eax
  00282	ff 15 00 00 00
	00		 call	 DWORD PTR __imp_?Format@?$CStringT@DV?$StrTraitMFC_DLL@DV?$ChTraitsCRT@D@ATL@@@@@ATL@@QAAXPBDZZ
  00288	83 c4 0c	 add	 esp, 12			; 0000000cH

; 682  : 		strContents += strTemp;

  0028b	8d 85 0c fd ff
	ff		 lea	 eax, DWORD PTR _strTemp$13[ebp]
  00291	8d 8d 00 fd ff
	ff		 lea	 ecx, DWORD PTR _strContents$6[ebp]
  00297	50		 push	 eax
  00298	ff 15 00 00 00
	00		 call	 DWORD PTR __imp_??Y?$CStringT@DV?$StrTraitMFC_DLL@DV?$ChTraitsCRT@D@ATL@@@@@ATL@@QAEAAV01@ABV?$CSimpleStringT@D$00@1@@Z

; 683  : 
; 684  : 		strTemp.Format("DATA_DATE_TIME=%s\r\n", m_pChartDataGridManager->m_strDateTime);

  0029e	8b 8d 08 fd ff
	ff		 mov	 ecx, DWORD PTR _this$GSCopy$1$[ebp]
  002a4	8b 81 38 05 00
	00		 mov	 eax, DWORD PTR [ecx+1336]
  002aa	ff 70 08	 push	 DWORD PTR [eax+8]
  002ad	8d 85 0c fd ff
	ff		 lea	 eax, DWORD PTR _strTemp$13[ebp]
  002b3	68 00 00 00 00	 push	 OFFSET ??_C@_0BE@FIJJNLIG@DATA_DATE_TIME?$DN?$CFs?$AN?6@
  002b8	50		 push	 eax
  002b9	ff 15 00 00 00
	00		 call	 DWORD PTR __imp_?Format@?$CStringT@DV?$StrTraitMFC_DLL@DV?$ChTraitsCRT@D@ATL@@@@@ATL@@QAAXPBDZZ
  002bf	83 c4 0c	 add	 esp, 12			; 0000000cH

; 685  : 		strContents += strTemp;

  002c2	8d 85 0c fd ff
	ff		 lea	 eax, DWORD PTR _strTemp$13[ebp]
  002c8	8d 8d 00 fd ff
	ff		 lea	 ecx, DWORD PTR _strContents$6[ebp]
  002ce	50		 push	 eax
  002cf	ff 15 00 00 00
	00		 call	 DWORD PTR __imp_??Y?$CStringT@DV?$StrTraitMFC_DLL@DV?$ChTraitsCRT@D@ATL@@@@@ATL@@QAEAAV01@ABV?$CSimpleStringT@D$00@1@@Z

; 686  : 
; 687  : 		strTemp.Format("HEADER_CNT=%d\r\n", nSize); 

  002d5	57		 push	 edi
  002d6	8d 85 0c fd ff
	ff		 lea	 eax, DWORD PTR _strTemp$13[ebp]
  002dc	68 00 00 00 00	 push	 OFFSET ??_C@_0BA@CNPOABKA@HEADER_CNT?$DN?$CFd?$AN?6@
  002e1	50		 push	 eax
  002e2	ff 15 00 00 00
	00		 call	 DWORD PTR __imp_?Format@?$CStringT@DV?$StrTraitMFC_DLL@DV?$ChTraitsCRT@D@ATL@@@@@ATL@@QAAXPBDZZ
  002e8	83 c4 0c	 add	 esp, 12			; 0000000cH

; 688  : 		strContents += strTemp;

  002eb	8d 85 0c fd ff
	ff		 lea	 eax, DWORD PTR _strTemp$13[ebp]
  002f1	8d 8d 00 fd ff
	ff		 lea	 ecx, DWORD PTR _strContents$6[ebp]
  002f7	50		 push	 eax
  002f8	ff 15 00 00 00
	00		 call	 DWORD PTR __imp_??Y?$CStringT@DV?$StrTraitMFC_DLL@DV?$ChTraitsCRT@D@ATL@@@@@ATL@@QAEAAV01@ABV?$CSimpleStringT@D$00@1@@Z

; 689  : 
; 690  : 		for( i = 0 ; i < m_pChartDataGridManager->m_ChartDataGridHeaderInfoArray.GetSize(); i++ )

  002fe	8b 85 08 fd ff
	ff		 mov	 eax, DWORD PTR _this$GSCopy$1$[ebp]
  00304	33 c9		 xor	 ecx, ecx
  00306	89 8d 04 fd ff
	ff		 mov	 DWORD PTR _i$1$[ebp], ecx
  0030c	8b 80 38 05 00
	00		 mov	 eax, DWORD PTR [eax+1336]
  00312	39 48 20	 cmp	 DWORD PTR [eax+32], ecx
  00315	0f 8e cb 00 00
	00		 jle	 $LN3@OnBtnExpor
  0031b	0f 1f 44 00 00	 npad	 5
$LL4@OnBtnExpor:
; File C:\Program Files (x86)\Microsoft Visual Studio\2019\Community\VC\Tools\MSVC\14.29.30133\atlmfc\include\afxtempl.h

; 288  : 	if(nIndex >= 0 && nIndex < m_nSize)

  00320	85 c9		 test	 ecx, ecx
  00322	0f 88 16 03 00
	00		 js	 $LN60@OnBtnExpor
  00328	3b 48 20	 cmp	 ecx, DWORD PTR [eax+32]
  0032b	0f 8d 0d 03 00
	00		 jge	 $LN60@OnBtnExpor

; 289  : 		return m_pData[nIndex];

  00331	8b 40 1c	 mov	 eax, DWORD PTR [eax+28]
; File D:\git\src\IBK\IBK_DRFN\ProjSrc\SrcChartEx\ChartAddIn\ChartDataListViewerAddIn\ChartDataListViewerAddIn\DlgDataSimulator.cpp

; 692  : 			CChartDataGridHeaderInfo * pHeaderInfo = m_pChartDataGridManager->m_ChartDataGridHeaderInfoArray.GetAt(i);

  00334	8b 3c 88	 mov	 edi, DWORD PTR [eax+ecx*4]

; 693  : 			
; 694  : 			strTemp.Format("HEADER_%d=%s\r\n", i, pHeaderInfo->m_strHeader);	strContents += strTemp;

  00337	8d 85 0c fd ff
	ff		 lea	 eax, DWORD PTR _strTemp$13[ebp]
  0033d	ff 37		 push	 DWORD PTR [edi]
  0033f	51		 push	 ecx
  00340	68 00 00 00 00	 push	 OFFSET ??_C@_0P@PIDILPMI@HEADER_?$CFd?$DN?$CFs?$AN?6@
  00345	50		 push	 eax
  00346	ff 15 00 00 00
	00		 call	 DWORD PTR __imp_?Format@?$CStringT@DV?$StrTraitMFC_DLL@DV?$ChTraitsCRT@D@ATL@@@@@ATL@@QAAXPBDZZ
  0034c	83 c4 10	 add	 esp, 16			; 00000010H
  0034f	8d 85 0c fd ff
	ff		 lea	 eax, DWORD PTR _strTemp$13[ebp]
  00355	8d 8d 00 fd ff
	ff		 lea	 ecx, DWORD PTR _strContents$6[ebp]
  0035b	50		 push	 eax
  0035c	ff 15 00 00 00
	00		 call	 DWORD PTR __imp_??Y?$CStringT@DV?$StrTraitMFC_DLL@DV?$ChTraitsCRT@D@ATL@@@@@ATL@@QAEAAV01@ABV?$CSimpleStringT@D$00@1@@Z

; 695  : 			strTemp.Format("HEADER_TITLE_%d=%s\r\n",  i, pHeaderInfo->m_strTitle);	strContents += strTemp;

  00362	ff 77 04	 push	 DWORD PTR [edi+4]
  00365	8d 85 0c fd ff
	ff		 lea	 eax, DWORD PTR _strTemp$13[ebp]
  0036b	ff b5 04 fd ff
	ff		 push	 DWORD PTR _i$1$[ebp]
  00371	68 00 00 00 00	 push	 OFFSET ??_C@_0BF@KAKKDFIJ@HEADER_TITLE_?$CFd?$DN?$CFs?$AN?6@
  00376	50		 push	 eax
  00377	ff 15 00 00 00
	00		 call	 DWORD PTR __imp_?Format@?$CStringT@DV?$StrTraitMFC_DLL@DV?$ChTraitsCRT@D@ATL@@@@@ATL@@QAAXPBDZZ
  0037d	83 c4 10	 add	 esp, 16			; 00000010H
  00380	8d 85 0c fd ff
	ff		 lea	 eax, DWORD PTR _strTemp$13[ebp]
  00386	8d 8d 00 fd ff
	ff		 lea	 ecx, DWORD PTR _strContents$6[ebp]
  0038c	50		 push	 eax
  0038d	ff 15 00 00 00
	00		 call	 DWORD PTR __imp_??Y?$CStringT@DV?$StrTraitMFC_DLL@DV?$ChTraitsCRT@D@ATL@@@@@ATL@@QAEAAV01@ABV?$CSimpleStringT@D$00@1@@Z

; 696  : 			strTemp.Format("HEADER_PACKETTYPE_%d=%s\r\n",i,pHeaderInfo->m_strPacketType);strContents += strTemp;

  00393	ff 77 08	 push	 DWORD PTR [edi+8]
  00396	8d 85 0c fd ff
	ff		 lea	 eax, DWORD PTR _strTemp$13[ebp]
  0039c	ff b5 04 fd ff
	ff		 push	 DWORD PTR _i$1$[ebp]
  003a2	68 00 00 00 00	 push	 OFFSET ??_C@_0BK@HCDEIJIL@HEADER_PACKETTYPE_?$CFd?$DN?$CFs?$AN?6@
  003a7	50		 push	 eax
  003a8	ff 15 00 00 00
	00		 call	 DWORD PTR __imp_?Format@?$CStringT@DV?$StrTraitMFC_DLL@DV?$ChTraitsCRT@D@ATL@@@@@ATL@@QAAXPBDZZ
  003ae	83 c4 10	 add	 esp, 16			; 00000010H
  003b1	8d 85 0c fd ff
	ff		 lea	 eax, DWORD PTR _strTemp$13[ebp]
  003b7	8d 8d 00 fd ff
	ff		 lea	 ecx, DWORD PTR _strContents$6[ebp]
  003bd	50		 push	 eax
  003be	ff 15 00 00 00
	00		 call	 DWORD PTR __imp_??Y?$CStringT@DV?$StrTraitMFC_DLL@DV?$ChTraitsCRT@D@ATL@@@@@ATL@@QAEAAV01@ABV?$CSimpleStringT@D$00@1@@Z
  003c4	8b 85 08 fd ff
	ff		 mov	 eax, DWORD PTR _this$GSCopy$1$[ebp]
  003ca	8b 8d 04 fd ff
	ff		 mov	 ecx, DWORD PTR _i$1$[ebp]
  003d0	41		 inc	 ecx
  003d1	89 8d 04 fd ff
	ff		 mov	 DWORD PTR _i$1$[ebp], ecx
  003d7	8b 80 38 05 00
	00		 mov	 eax, DWORD PTR [eax+1336]
  003dd	3b 48 20	 cmp	 ecx, DWORD PTR [eax+32]
  003e0	0f 8c 3a ff ff
	ff		 jl	 $LL4@OnBtnExpor
$LN3@OnBtnExpor:

; 697  : 		}
; 698  : 
; 699  : 		i = 0;
; 700  : 		strTemp = "[DATA_START]\r\n"; strContents += strTemp;

  003e6	68 00 00 00 00	 push	 OFFSET ??_C@_0P@BPKBGGJK@?$FLDATA_START?$FN?$AN?6@
  003eb	8d 8d 0c fd ff
	ff		 lea	 ecx, DWORD PTR _strTemp$13[ebp]
  003f1	ff 15 00 00 00
	00		 call	 DWORD PTR __imp_??4?$CStringT@DV?$StrTraitMFC_DLL@DV?$ChTraitsCRT@D@ATL@@@@@ATL@@QAEAAV01@PBD@Z
  003f7	8d 85 0c fd ff
	ff		 lea	 eax, DWORD PTR _strTemp$13[ebp]
  003fd	50		 push	 eax
  003fe	8d 8d 00 fd ff
	ff		 lea	 ecx, DWORD PTR _strContents$6[ebp]
  00404	ff 15 00 00 00
	00		 call	 DWORD PTR __imp_??Y?$CStringT@DV?$StrTraitMFC_DLL@DV?$ChTraitsCRT@D@ATL@@@@@ATL@@QAEAAV01@ABV?$CSimpleStringT@D$00@1@@Z

; 701  : 		for( POSITION pos = m_pChartDataGridManager->m_ChartDataList.GetHeadPosition(); pos ; i++)

  0040a	8b 8d 08 fd ff
	ff		 mov	 ecx, DWORD PTR _this$GSCopy$1$[ebp]
  00410	8b 81 38 05 00
	00		 mov	 eax, DWORD PTR [ecx+1336]
  00416	8b 40 30	 mov	 eax, DWORD PTR [eax+48]
  00419	85 c0		 test	 eax, eax
  0041b	0f 84 8c 01 00
	00		 je	 $LN6@OnBtnExpor
  00421	8b f0		 mov	 esi, eax
$LL7@OnBtnExpor:

; 702  : 		{
; 703  : 			strTemp = "";

  00423	68 00 00 00 00	 push	 OFFSET ??_C@_00CNPNBAHC@@
  00428	8d 8d 0c fd ff
	ff		 lea	 ecx, DWORD PTR _strTemp$13[ebp]
  0042e	ff 15 00 00 00
	00		 call	 DWORD PTR __imp_??4?$CStringT@DV?$StrTraitMFC_DLL@DV?$ChTraitsCRT@D@ATL@@@@@ATL@@QAEAAV01@PBD@Z

; 704  : 			CChartRecordSet * pRecordSet = m_pChartDataGridManager->m_ChartDataList.GetNext(pos);

  00434	8b 46 08	 mov	 eax, DWORD PTR [esi+8]

; 705  : 			for( j = 0 ; j < COL_SIZE ; j++)

  00437	33 ff		 xor	 edi, edi
; File C:\Program Files (x86)\Microsoft Visual Studio\2019\Community\VC\Tools\MSVC\14.29.30133\atlmfc\include\afxtempl.h

; 813  : 		rPosition = (POSITION) pNode->pNext;

  00439	8b 36		 mov	 esi, DWORD PTR [esi]
  0043b	89 b5 f4 fc ff
	ff		 mov	 DWORD PTR _pos$1$[ebp], esi
  00441	8b f0		 mov	 esi, eax
; File D:\git\src\IBK\IBK_DRFN\ProjSrc\SrcChartEx\ChartAddIn\ChartDataListViewerAddIn\ChartDataListViewerAddIn\DlgDataSimulator.cpp

; 704  : 			CChartRecordSet * pRecordSet = m_pChartDataGridManager->m_ChartDataList.GetNext(pos);

  00443	89 85 fc fc ff
	ff		 mov	 DWORD PTR _pRecordSet$1$[ebp], eax
  00449	0f 1f 80 00 00
	00 00		 npad	 7
$LL10@OnBtnExpor:
; File C:\Program Files (x86)\Microsoft Visual Studio\2019\Community\VC\Tools\MSVC\14.29.30133\atlmfc\include\cstringt.h

; 2390 : 		CStringT strResult( str1.GetManager() );

  00450	8d 8d 0c fd ff
	ff		 lea	 ecx, DWORD PTR _strTemp$13[ebp]
; File D:\git\src\IBK\IBK_DRFN\ProjSrc\SrcChartEx\ChartAddIn\ChartDataListViewerAddIn\ChartDataListViewerAddIn\DlgDataSimulator.cpp

; 707  : 				strTemp = strTemp + pRecordSet->m_Data[j] + ";";

  00456	c6 45 fc 0d	 mov	 BYTE PTR __$EHRec$[ebp+8], 13 ; 0000000dH
; File C:\Program Files (x86)\Microsoft Visual Studio\2019\Community\VC\Tools\MSVC\14.29.30133\atlmfc\include\cstringt.h

; 2390 : 		CStringT strResult( str1.GetManager() );

  0045a	ff 15 00 00 00
	00		 call	 DWORD PTR __imp_?GetManager@?$CStringT@DV?$StrTraitMFC_DLL@DV?$ChTraitsCRT@D@ATL@@@@@ATL@@QBEPAUIAtlStringMgr@2@XZ
  00460	50		 push	 eax
  00461	8d 8d 04 fd ff
	ff		 lea	 ecx, DWORD PTR $T7[ebp]
  00467	ff 15 00 00 00
	00		 call	 DWORD PTR __imp_??0?$CStringT@DV?$StrTraitMFC_DLL@DV?$ChTraitsCRT@D@ATL@@@@@ATL@@QAE@PAUIAtlStringMgr@1@@Z
; File C:\Program Files (x86)\Microsoft Visual Studio\2019\Community\VC\Tools\MSVC\14.29.30133\atlmfc\include\atlsimpstr.h

; 519  : 		return( GetData()->nDataLength );

  0046d	8b 0c be	 mov	 ecx, DWORD PTR [esi+edi*4]
; File C:\Program Files (x86)\Microsoft Visual Studio\2019\Community\VC\Tools\MSVC\14.29.30133\atlmfc\include\cstringt.h

; 2394 : 		return( strResult );

  00470	83 cb 01	 or	 ebx, 1
; File C:\Program Files (x86)\Microsoft Visual Studio\2019\Community\VC\Tools\MSVC\14.29.30133\atlmfc\include\atlsimpstr.h

; 519  : 		return( GetData()->nDataLength );

  00473	8b 85 0c fd ff
	ff		 mov	 eax, DWORD PTR _strTemp$13[ebp]
; File C:\Program Files (x86)\Microsoft Visual Studio\2019\Community\VC\Tools\MSVC\14.29.30133\atlmfc\include\cstringt.h

; 2394 : 		return( strResult );

  00479	89 9d fc fc ff
	ff		 mov	 DWORD PTR $T5[ebp], ebx
  0047f	ff 71 f4	 push	 DWORD PTR [ecx-12]
  00482	51		 push	 ecx
  00483	ff 70 f4	 push	 DWORD PTR [eax-12]
  00486	50		 push	 eax
  00487	8d 85 04 fd ff
	ff		 lea	 eax, DWORD PTR $T7[ebp]
  0048d	50		 push	 eax
  0048e	ff 15 00 00 00
	00		 call	 DWORD PTR __imp_?Concatenate@?$CSimpleStringT@D$00@ATL@@KAXAAV12@PBDH1H@Z
  00494	83 c4 14	 add	 esp, 20			; 00000014H

; 2401 : 		CStringT strResult( str1.GetManager() );

  00497	8d 8d 04 fd ff
	ff		 lea	 ecx, DWORD PTR $T7[ebp]
; File D:\git\src\IBK\IBK_DRFN\ProjSrc\SrcChartEx\ChartAddIn\ChartDataListViewerAddIn\ChartDataListViewerAddIn\DlgDataSimulator.cpp

; 707  : 				strTemp = strTemp + pRecordSet->m_Data[j] + ";";

  0049d	c6 45 fc 0e	 mov	 BYTE PTR __$EHRec$[ebp+8], 14 ; 0000000eH
; File C:\Program Files (x86)\Microsoft Visual Studio\2019\Community\VC\Tools\MSVC\14.29.30133\atlmfc\include\cstringt.h

; 2401 : 		CStringT strResult( str1.GetManager() );

  004a1	ff 15 00 00 00
	00		 call	 DWORD PTR __imp_?GetManager@?$CStringT@DV?$StrTraitMFC_DLL@DV?$ChTraitsCRT@D@ATL@@@@@ATL@@QBEPAUIAtlStringMgr@2@XZ
  004a7	50		 push	 eax
  004a8	8d 8d 08 fd ff
	ff		 lea	 ecx, DWORD PTR $T10[ebp]
  004ae	ff 15 00 00 00
	00		 call	 DWORD PTR __imp_??0?$CStringT@DV?$StrTraitMFC_DLL@DV?$ChTraitsCRT@D@ATL@@@@@ATL@@QAE@PAUIAtlStringMgr@1@@Z
; File C:\Program Files (x86)\Microsoft Visual Studio\2019\Community\VC\Tools\MSVC\14.29.30133\atlmfc\include\atlsimpstr.h

; 519  : 		return( GetData()->nDataLength );

  004b4	8b 85 04 fd ff
	ff		 mov	 eax, DWORD PTR $T7[ebp]
; File C:\Program Files (x86)\Microsoft Visual Studio\2019\Community\VC\Tools\MSVC\14.29.30133\atlmfc\include\cstringt.h

; 2405 : 		return( strResult );

  004ba	83 cb 02	 or	 ebx, 2
  004bd	6a 01		 push	 1
  004bf	68 00 00 00 00	 push	 OFFSET ??_C@_01ICJEACDI@?$DL@
  004c4	89 9d fc fc ff
	ff		 mov	 DWORD PTR $T5[ebp], ebx
  004ca	ff 70 f4	 push	 DWORD PTR [eax-12]
  004cd	50		 push	 eax
  004ce	8d 85 08 fd ff
	ff		 lea	 eax, DWORD PTR $T10[ebp]
  004d4	50		 push	 eax
  004d5	ff 15 00 00 00
	00		 call	 DWORD PTR __imp_?Concatenate@?$CSimpleStringT@D$00@ATL@@KAXAAV12@PBDH1H@Z
  004db	83 c4 14	 add	 esp, 20			; 00000014H
; File D:\git\src\IBK\IBK_DRFN\ProjSrc\SrcChartEx\ChartAddIn\ChartDataListViewerAddIn\ChartDataListViewerAddIn\DlgDataSimulator.cpp

; 707  : 				strTemp = strTemp + pRecordSet->m_Data[j] + ";";

  004de	8d 85 08 fd ff
	ff		 lea	 eax, DWORD PTR $T10[ebp]
  004e4	8d 8d 0c fd ff
	ff		 lea	 ecx, DWORD PTR _strTemp$13[ebp]
  004ea	50		 push	 eax
  004eb	ff 15 00 00 00
	00		 call	 DWORD PTR __imp_??4?$CStringT@DV?$StrTraitMFC_DLL@DV?$ChTraitsCRT@D@ATL@@@@@ATL@@QAEAAV01@ABV01@@Z
  004f1	8d 8d 08 fd ff
	ff		 lea	 ecx, DWORD PTR $T10[ebp]
  004f7	83 e3 fd	 and	 ebx, -3			; fffffffdH
  004fa	ff 15 00 00 00
	00		 call	 DWORD PTR __imp_??1?$CStringT@DV?$StrTraitMFC_DLL@DV?$ChTraitsCRT@D@ATL@@@@@ATL@@QAE@XZ
  00500	8d 8d 04 fd ff
	ff		 lea	 ecx, DWORD PTR $T7[ebp]
  00506	83 e3 fe	 and	 ebx, -2			; fffffffeH
  00509	ff 15 00 00 00
	00		 call	 DWORD PTR __imp_??1?$CStringT@DV?$StrTraitMFC_DLL@DV?$ChTraitsCRT@D@ATL@@@@@ATL@@QAE@XZ
  0050f	47		 inc	 edi
  00510	83 ff 06	 cmp	 edi, 6
  00513	0f 8c 37 ff ff
	ff		 jl	 $LL10@OnBtnExpor
; File C:\Program Files (x86)\Microsoft Visual Studio\2019\Community\VC\Tools\MSVC\14.29.30133\atlmfc\include\cstringt.h

; 2401 : 		CStringT strResult( str1.GetManager() );

  00519	8d 8d 0c fd ff
	ff		 lea	 ecx, DWORD PTR _strTemp$13[ebp]
; File D:\git\src\IBK\IBK_DRFN\ProjSrc\SrcChartEx\ChartAddIn\ChartDataListViewerAddIn\ChartDataListViewerAddIn\DlgDataSimulator.cpp

; 710  : 			strTemp		=	strTemp + "\r\n";

  0051f	c6 45 fc 0f	 mov	 BYTE PTR __$EHRec$[ebp+8], 15 ; 0000000fH
; File C:\Program Files (x86)\Microsoft Visual Studio\2019\Community\VC\Tools\MSVC\14.29.30133\atlmfc\include\cstringt.h

; 2401 : 		CStringT strResult( str1.GetManager() );

  00523	ff 15 00 00 00
	00		 call	 DWORD PTR __imp_?GetManager@?$CStringT@DV?$StrTraitMFC_DLL@DV?$ChTraitsCRT@D@ATL@@@@@ATL@@QBEPAUIAtlStringMgr@2@XZ
  00529	50		 push	 eax
  0052a	8d 8d f8 fc ff
	ff		 lea	 ecx, DWORD PTR $T4[ebp]
  00530	ff 15 00 00 00
	00		 call	 DWORD PTR __imp_??0?$CStringT@DV?$StrTraitMFC_DLL@DV?$ChTraitsCRT@D@ATL@@@@@ATL@@QAE@PAUIAtlStringMgr@1@@Z
; File C:\Program Files (x86)\Microsoft Visual Studio\2019\Community\VC\Tools\MSVC\14.29.30133\atlmfc\include\atlsimpstr.h

; 519  : 		return( GetData()->nDataLength );

  00536	8b 85 0c fd ff
	ff		 mov	 eax, DWORD PTR _strTemp$13[ebp]
; File C:\Program Files (x86)\Microsoft Visual Studio\2019\Community\VC\Tools\MSVC\14.29.30133\atlmfc\include\cstringt.h

; 2405 : 		return( strResult );

  0053c	83 cb 04	 or	 ebx, 4
  0053f	6a 02		 push	 2
  00541	68 00 00 00 00	 push	 OFFSET ??_C@_02PCIJFNDE@?$AN?6@
  00546	89 9d fc fc ff
	ff		 mov	 DWORD PTR $T5[ebp], ebx
  0054c	ff 70 f4	 push	 DWORD PTR [eax-12]
  0054f	50		 push	 eax
  00550	8d 85 f8 fc ff
	ff		 lea	 eax, DWORD PTR $T4[ebp]
  00556	50		 push	 eax
  00557	ff 15 00 00 00
	00		 call	 DWORD PTR __imp_?Concatenate@?$CSimpleStringT@D$00@ATL@@KAXAAV12@PBDH1H@Z
  0055d	83 c4 14	 add	 esp, 20			; 00000014H
; File D:\git\src\IBK\IBK_DRFN\ProjSrc\SrcChartEx\ChartAddIn\ChartDataListViewerAddIn\ChartDataListViewerAddIn\DlgDataSimulator.cpp

; 710  : 			strTemp		=	strTemp + "\r\n";

  00560	8d 85 f8 fc ff
	ff		 lea	 eax, DWORD PTR $T4[ebp]
  00566	8d 8d 0c fd ff
	ff		 lea	 ecx, DWORD PTR _strTemp$13[ebp]
  0056c	50		 push	 eax
  0056d	ff 15 00 00 00
	00		 call	 DWORD PTR __imp_??4?$CStringT@DV?$StrTraitMFC_DLL@DV?$ChTraitsCRT@D@ATL@@@@@ATL@@QAEAAV01@ABV01@@Z
  00573	8d 8d f8 fc ff
	ff		 lea	 ecx, DWORD PTR $T4[ebp]
  00579	c6 45 fc 0c	 mov	 BYTE PTR __$EHRec$[ebp+8], 12 ; 0000000cH
  0057d	83 e3 fb	 and	 ebx, -5			; fffffffbH
  00580	ff 15 00 00 00
	00		 call	 DWORD PTR __imp_??1?$CStringT@DV?$StrTraitMFC_DLL@DV?$ChTraitsCRT@D@ATL@@@@@ATL@@QAE@XZ

; 711  : 			strContents +=	strTemp;

  00586	8d 85 0c fd ff
	ff		 lea	 eax, DWORD PTR _strTemp$13[ebp]
  0058c	50		 push	 eax
  0058d	8d 8d 00 fd ff
	ff		 lea	 ecx, DWORD PTR _strContents$6[ebp]
  00593	ff 15 00 00 00
	00		 call	 DWORD PTR __imp_??Y?$CStringT@DV?$StrTraitMFC_DLL@DV?$ChTraitsCRT@D@ATL@@@@@ATL@@QAEAAV01@ABV?$CSimpleStringT@D$00@1@@Z
  00599	8b b5 f4 fc ff
	ff		 mov	 esi, DWORD PTR _pos$1$[ebp]
  0059f	85 f6		 test	 esi, esi
  005a1	0f 85 7c fe ff
	ff		 jne	 $LL7@OnBtnExpor
  005a7	8b b5 e8 fc ff
	ff		 mov	 esi, DWORD PTR ___mlrs__$1$[ebp]
$LN6@OnBtnExpor:
; File C:\Program Files (x86)\Microsoft Visual Studio\2019\Community\VC\Tools\MSVC\14.29.30133\atlmfc\include\atlsimpstr.h

; 519  : 		return( GetData()->nDataLength );

  005ad	8b 85 00 fd ff
	ff		 mov	 eax, DWORD PTR _strContents$6[ebp]
; File D:\git\src\IBK\IBK_DRFN\ProjSrc\SrcChartEx\ChartAddIn\ChartDataListViewerAddIn\ChartDataListViewerAddIn\DlgDataSimulator.cpp

; 714  : 		f.Write(strContents, strContents.GetLength());//tour2k WriteHuge->Write

  005b3	8d 8d d4 fc ff
	ff		 lea	 ecx, DWORD PTR _f$2[ebp]
  005b9	ff 70 f4	 push	 DWORD PTR [eax-12]
  005bc	50		 push	 eax
  005bd	e8 00 00 00 00	 call	 ?Write@CFile@@UAEXPBXI@Z ; CFile::Write

; 715  : 
; 716  : 		f.Close();

  005c2	8d 8d d4 fc ff
	ff		 lea	 ecx, DWORD PTR _f$2[ebp]
  005c8	e8 00 00 00 00	 call	 ?Close@CFile@@UAEXXZ	; CFile::Close

; 717  : 	}	

  005cd	8d 8d 0c fd ff
	ff		 lea	 ecx, DWORD PTR _strTemp$13[ebp]
  005d3	ff 15 00 00 00
	00		 call	 DWORD PTR __imp_??1?$CStringT@DV?$StrTraitMFC_DLL@DV?$ChTraitsCRT@D@ATL@@@@@ATL@@QAE@XZ
  005d9	8d 8d 00 fd ff
	ff		 lea	 ecx, DWORD PTR _strContents$6[ebp]
$LN133@OnBtnExpor:

; 718  : }

  005df	ff 15 00 00 00
	00		 call	 DWORD PTR __imp_??1?$CStringT@DV?$StrTraitMFC_DLL@DV?$ChTraitsCRT@D@ATL@@@@@ATL@@QAE@XZ
  005e5	8d 8d d4 fc ff
	ff		 lea	 ecx, DWORD PTR _f$2[ebp]
  005eb	e8 00 00 00 00	 call	 ??1CFile@@UAE@XZ	; CFile::~CFile
  005f0	8d 8d f0 fc ff
	ff		 lea	 ecx, DWORD PTR _strFileName$3[ebp]
  005f6	ff 15 00 00 00
	00		 call	 DWORD PTR __imp_??1?$CStringT@DV?$StrTraitMFC_DLL@DV?$ChTraitsCRT@D@ATL@@@@@ATL@@QAE@XZ
$LN12@OnBtnExpor:
  005fc	8d 8d 10 fd ff
	ff		 lea	 ecx, DWORD PTR _dlg$[ebp]
  00602	e8 00 00 00 00	 call	 ??1CFileDialog@@UAE@XZ	; CFileDialog::~CFileDialog
  00607	8d 8d ec fc ff
	ff		 lea	 ecx, DWORD PTR _strFilter$[ebp]
$LN132@OnBtnExpor:
; File D:\git\src\IBK\IBK_DRFN\ProjSrc\SrcChartEx\ChartAddIn\ChartDataListViewerAddIn\Include_Chart\DLL_Load\IMetaTable.h

; 1036 : 	{

  0060d	ff 15 00 00 00
	00		 call	 DWORD PTR __imp_??1?$CStringT@DV?$StrTraitMFC_DLL@DV?$ChTraitsCRT@D@ATL@@@@@ATL@@QAE@XZ
  00613	c7 45 fc 10 00
	00 00		 mov	 DWORD PTR __$EHRec$[ebp+8], 16 ; 00000010H
; File C:\Program Files (x86)\Microsoft Visual Studio\2019\Community\VC\Tools\MSVC\14.29.30133\atlmfc\include\afxwin1.inl

; 27   : 	{ ASSERT(hInstResource != NULL); afxCurrentResourceHandle = hInstResource; }

  0061a	e8 00 00 00 00	 call	 ?AfxGetModuleState@@YGPAVAFX_MODULE_STATE@@XZ ; AfxGetModuleState
  0061f	89 70 0c	 mov	 DWORD PTR [eax+12], esi
; File D:\git\src\IBK\IBK_DRFN\ProjSrc\SrcChartEx\ChartAddIn\ChartDataListViewerAddIn\ChartDataListViewerAddIn\DlgDataSimulator.cpp

; 718  : }

  00622	8b 4d f4	 mov	 ecx, DWORD PTR __$EHRec$[ebp]
  00625	64 89 0d 00 00
	00 00		 mov	 DWORD PTR fs:0, ecx
  0062c	59		 pop	 ecx
  0062d	5f		 pop	 edi
  0062e	5e		 pop	 esi
  0062f	5b		 pop	 ebx
  00630	8b 4d f0	 mov	 ecx, DWORD PTR __$ArrayPad$[ebp]
  00633	33 cd		 xor	 ecx, ebp
  00635	e8 00 00 00 00	 call	 @__security_check_cookie@4
  0063a	8b e5		 mov	 esp, ebp
  0063c	5d		 pop	 ebp
  0063d	c3		 ret	 0
$LN60@OnBtnExpor:
; File C:\Program Files (x86)\Microsoft Visual Studio\2019\Community\VC\Tools\MSVC\14.29.30133\atlmfc\include\afxtempl.h

; 290  : 	AfxThrowInvalidArgException();

  0063e	e8 00 00 00 00	 call	 ?AfxThrowInvalidArgException@@YGXXZ ; AfxThrowInvalidArgException
$LN131@OnBtnExpor:
  00643	cc		 int	 3
_TEXT	ENDS
;	COMDAT text$x
text$x	SEGMENT
__unwindfunclet$?OnBtnExport@CDlgDataSimulator@@IAEXXZ$0:
  00000	8d 8d d0 fc ff
	ff		 lea	 ecx, DWORD PTR ___mlrs__$[ebp]
  00006	e9 00 00 00 00	 jmp	 ??1CMultiLanguageResourceSetter@@QAE@XZ ; CMultiLanguageResourceSetter::~CMultiLanguageResourceSetter
__unwindfunclet$?OnBtnExport@CDlgDataSimulator@@IAEXXZ$1:
  0000b	8d 8d 08 fd ff
	ff		 lea	 ecx, DWORD PTR _strMsg$12[ebp]
  00011	ff 25 00 00 00
	00		 jmp	 DWORD PTR __imp_??1?$CStringT@DV?$StrTraitMFC_DLL@DV?$ChTraitsCRT@D@ATL@@@@@ATL@@QAE@XZ
__unwindfunclet$?OnBtnExport@CDlgDataSimulator@@IAEXXZ$2:
  00017	8d 8d 04 fd ff
	ff		 lea	 ecx, DWORD PTR _strTitle$9[ebp]
  0001d	ff 25 00 00 00
	00		 jmp	 DWORD PTR __imp_??1?$CStringT@DV?$StrTraitMFC_DLL@DV?$ChTraitsCRT@D@ATL@@@@@ATL@@QAE@XZ
__unwindfunclet$?OnBtnExport@CDlgDataSimulator@@IAEXXZ$3:
  00023	8d 8d ec fc ff
	ff		 lea	 ecx, DWORD PTR _strFilter$[ebp]
  00029	ff 25 00 00 00
	00		 jmp	 DWORD PTR __imp_??1?$CStringT@DV?$StrTraitMFC_DLL@DV?$ChTraitsCRT@D@ATL@@@@@ATL@@QAE@XZ
__unwindfunclet$?OnBtnExport@CDlgDataSimulator@@IAEXXZ$4:
  0002f	8d 8d 10 fd ff
	ff		 lea	 ecx, DWORD PTR _dlg$[ebp]
  00035	e9 00 00 00 00	 jmp	 ??1CFileDialog@@UAE@XZ	; CFileDialog::~CFileDialog
__unwindfunclet$?OnBtnExport@CDlgDataSimulator@@IAEXXZ$5:
  0003a	8d 8d f0 fc ff
	ff		 lea	 ecx, DWORD PTR _strFileName$3[ebp]
  00040	ff 25 00 00 00
	00		 jmp	 DWORD PTR __imp_??1?$CStringT@DV?$StrTraitMFC_DLL@DV?$ChTraitsCRT@D@ATL@@@@@ATL@@QAE@XZ
__unwindfunclet$?OnBtnExport@CDlgDataSimulator@@IAEXXZ$6:
  00046	8d 8d d4 fc ff
	ff		 lea	 ecx, DWORD PTR _f$2[ebp]
  0004c	e9 00 00 00 00	 jmp	 ??1CFile@@UAE@XZ	; CFile::~CFile
__unwindfunclet$?OnBtnExport@CDlgDataSimulator@@IAEXXZ$7:
  00051	8d 8d 08 fd ff
	ff		 lea	 ecx, DWORD PTR _strMsg$11[ebp]
  00057	ff 25 00 00 00
	00		 jmp	 DWORD PTR __imp_??1?$CStringT@DV?$StrTraitMFC_DLL@DV?$ChTraitsCRT@D@ATL@@@@@ATL@@QAE@XZ
__unwindfunclet$?OnBtnExport@CDlgDataSimulator@@IAEXXZ$8:
  0005d	8d 8d 04 fd ff
	ff		 lea	 ecx, DWORD PTR _strTitle$8[ebp]
  00063	ff 25 00 00 00
	00		 jmp	 DWORD PTR __imp_??1?$CStringT@DV?$StrTraitMFC_DLL@DV?$ChTraitsCRT@D@ATL@@@@@ATL@@QAE@XZ
__unwindfunclet$?OnBtnExport@CDlgDataSimulator@@IAEXXZ$9:
  00069	8d 8d 00 fd ff
	ff		 lea	 ecx, DWORD PTR _strContents$6[ebp]
  0006f	ff 25 00 00 00
	00		 jmp	 DWORD PTR __imp_??1?$CStringT@DV?$StrTraitMFC_DLL@DV?$ChTraitsCRT@D@ATL@@@@@ATL@@QAE@XZ
__unwindfunclet$?OnBtnExport@CDlgDataSimulator@@IAEXXZ$10:
  00075	8d 8d 0c fd ff
	ff		 lea	 ecx, DWORD PTR _strTemp$13[ebp]
  0007b	ff 25 00 00 00
	00		 jmp	 DWORD PTR __imp_??1?$CStringT@DV?$StrTraitMFC_DLL@DV?$ChTraitsCRT@D@ATL@@@@@ATL@@QAE@XZ
__unwindfunclet$?OnBtnExport@CDlgDataSimulator@@IAEXXZ$16:
  00081	8b 85 fc fc ff
	ff		 mov	 eax, DWORD PTR $T5[ebp]
  00087	83 e0 01	 and	 eax, 1
  0008a	0f 84 13 00 00
	00		 je	 $LN68@OnBtnExpor
  00090	83 a5 fc fc ff
	ff fe		 and	 DWORD PTR $T5[ebp], -2	; fffffffeH
  00097	8d 8d 04 fd ff
	ff		 lea	 ecx, DWORD PTR $T7[ebp]
  0009d	ff 25 00 00 00
	00		 jmp	 DWORD PTR __imp_??1?$CStringT@DV?$StrTraitMFC_DLL@DV?$ChTraitsCRT@D@ATL@@@@@ATL@@QAE@XZ
$LN68@OnBtnExpor:
  000a3	c3		 ret	 0
__unwindfunclet$?OnBtnExport@CDlgDataSimulator@@IAEXXZ$17:
  000a4	8b 85 fc fc ff
	ff		 mov	 eax, DWORD PTR $T5[ebp]
  000aa	83 e0 02	 and	 eax, 2
  000ad	0f 84 13 00 00
	00		 je	 $LN84@OnBtnExpor
  000b3	83 a5 fc fc ff
	ff fd		 and	 DWORD PTR $T5[ebp], -3	; fffffffdH
  000ba	8d 8d 08 fd ff
	ff		 lea	 ecx, DWORD PTR $T10[ebp]
  000c0	ff 25 00 00 00
	00		 jmp	 DWORD PTR __imp_??1?$CStringT@DV?$StrTraitMFC_DLL@DV?$ChTraitsCRT@D@ATL@@@@@ATL@@QAE@XZ
$LN84@OnBtnExpor:
  000c6	c3		 ret	 0
__unwindfunclet$?OnBtnExport@CDlgDataSimulator@@IAEXXZ$18:
  000c7	8b 85 fc fc ff
	ff		 mov	 eax, DWORD PTR $T5[ebp]
  000cd	83 e0 04	 and	 eax, 4
  000d0	0f 84 13 00 00
	00		 je	 $LN97@OnBtnExpor
  000d6	83 a5 fc fc ff
	ff fb		 and	 DWORD PTR $T5[ebp], -5	; fffffffbH
  000dd	8d 8d f8 fc ff
	ff		 lea	 ecx, DWORD PTR $T4[ebp]
  000e3	ff 25 00 00 00
	00		 jmp	 DWORD PTR __imp_??1?$CStringT@DV?$StrTraitMFC_DLL@DV?$ChTraitsCRT@D@ATL@@@@@ATL@@QAE@XZ
$LN97@OnBtnExpor:
  000e9	c3		 ret	 0
  000ea	cc		 int	 3
  000eb	cc		 int	 3
  000ec	cc		 int	 3
  000ed	cc		 int	 3
  000ee	cc		 int	 3
__ehhandler$?OnBtnExport@CDlgDataSimulator@@IAEXXZ:
  000ef	90		 npad	 1
  000f0	90		 npad	 1
  000f1	8b 54 24 08	 mov	 edx, DWORD PTR [esp+8]
  000f5	8d 42 0c	 lea	 eax, DWORD PTR [edx+12]
  000f8	8b 8a cc fc ff
	ff		 mov	 ecx, DWORD PTR [edx-820]
  000fe	33 c8		 xor	 ecx, eax
  00100	e8 00 00 00 00	 call	 @__security_check_cookie@4
  00105	8b 4a fc	 mov	 ecx, DWORD PTR [edx-4]
  00108	33 c8		 xor	 ecx, eax
  0010a	e8 00 00 00 00	 call	 @__security_check_cookie@4
  0010f	b8 00 00 00 00	 mov	 eax, OFFSET __ehfuncinfo$?OnBtnExport@CDlgDataSimulator@@IAEXXZ
  00114	e9 00 00 00 00	 jmp	 ___CxxFrameHandler3
text$x	ENDS
?OnBtnExport@CDlgDataSimulator@@IAEXXZ ENDP		; CDlgDataSimulator::OnBtnExport
; Function compile flags: /Ogtp
; File D:\git\src\IBK\IBK_DRFN\ProjSrc\SrcChartEx\ChartAddIn\ChartDataListViewerAddIn\ChartDataListViewerAddIn\DlgDataSimulator.cpp
; File C:\Program Files (x86)\Microsoft Visual Studio\2019\Community\VC\Tools\MSVC\14.29.30133\atlmfc\include\atlsimpstr.h
; File D:\git\src\IBK\IBK_DRFN\ProjSrc\SrcChartEx\ChartAddIn\ChartDataListViewerAddIn\ChartDataListViewerAddIn\DlgDataSimulator.cpp
; File C:\Program Files (x86)\Microsoft Visual Studio\2019\Community\VC\Tools\MSVC\14.29.30133\atlmfc\include\atlsimpstr.h
; File D:\git\src\IBK\IBK_DRFN\ProjSrc\SrcChartEx\ChartAddIn\ChartDataListViewerAddIn\ChartDataListViewerAddIn\DlgDataSimulator.cpp
; File C:\Program Files (x86)\Microsoft Visual Studio\2019\Community\VC\Tools\MSVC\14.29.30133\atlmfc\include\afx.inl
; File D:\git\src\IBK\IBK_DRFN\ProjSrc\SrcChartEx\ChartAddIn\ChartDataListViewerAddIn\ChartDataListViewerAddIn\DlgDataSimulator.cpp
; File C:\Program Files (x86)\Microsoft Visual Studio\2019\Community\VC\Tools\MSVC\14.29.30133\atlmfc\include\afx.inl
; File D:\git\src\IBK\IBK_DRFN\ProjSrc\SrcChartEx\ChartAddIn\ChartDataListViewerAddIn\ChartDataListViewerAddIn\DlgDataSimulator.cpp
; File C:\Program Files (x86)\Microsoft Visual Studio\2019\Community\VC\Tools\MSVC\14.29.30133\atlmfc\include\afxtempl.h
; File D:\git\src\IBK\IBK_DRFN\ProjSrc\SrcChartEx\ChartAddIn\ChartDataListViewerAddIn\ChartDataListViewerAddIn\DlgDataSimulator.cpp
; File C:\Program Files (x86)\Microsoft Visual Studio\2019\Community\VC\Tools\MSVC\14.29.30133\atlmfc\include\cstringt.h
; File D:\git\src\IBK\IBK_DRFN\ProjSrc\SrcChartEx\ChartAddIn\ChartDataListViewerAddIn\ChartDataListViewerAddIn\DlgDataSimulator.cpp
; File C:\Program Files (x86)\Microsoft Visual Studio\2019\Community\VC\Tools\MSVC\14.29.30133\atlmfc\include\cstringt.h
; File C:\Program Files (x86)\Microsoft Visual Studio\2019\Community\VC\Tools\MSVC\14.29.30133\atlmfc\include\atlsimpstr.h
; File C:\Program Files (x86)\Microsoft Visual Studio\2019\Community\VC\Tools\MSVC\14.29.30133\atlmfc\include\cstringt.h
; File D:\git\src\IBK\IBK_DRFN\ProjSrc\SrcChartEx\ChartAddIn\ChartDataListViewerAddIn\ChartDataListViewerAddIn\DlgDataSimulator.cpp
; File C:\Program Files (x86)\Microsoft Visual Studio\2019\Community\VC\Tools\MSVC\14.29.30133\atlmfc\include\atlsimpstr.h
; File D:\git\src\IBK\IBK_DRFN\ProjSrc\SrcChartEx\ChartAddIn\ChartDataListViewerAddIn\ChartDataListViewerAddIn\DlgDataSimulator.cpp
; File C:\Program Files (x86)\Microsoft Visual Studio\2019\Community\VC\Tools\MSVC\14.29.30133\atlmfc\include\afxtempl.h
; File D:\git\src\IBK\IBK_DRFN\ProjSrc\SrcChartEx\ChartAddIn\ChartDataListViewerAddIn\ChartDataListViewerAddIn\DlgDataSimulator.cpp
; File C:\Program Files (x86)\Microsoft Visual Studio\2019\Community\VC\Tools\MSVC\14.29.30133\atlmfc\include\afxtempl.h
; File D:\git\src\IBK\IBK_DRFN\ProjSrc\SrcChartEx\ChartAddIn\ChartDataListViewerAddIn\ChartDataListViewerAddIn\DlgDataSimulator.cpp
; File D:\git\src\IBK\IBK_DRFN\ProjSrc\SrcChartEx\ChartAddIn\ChartDataListViewerAddIn\Include_Chart\Conversion.h
; File D:\git\src\IBK\IBK_DRFN\ProjSrc\SrcChartEx\ChartAddIn\ChartDataListViewerAddIn\ChartDataListViewerAddIn\DlgDataSimulator.cpp
; File D:\git\src\IBK\IBK_DRFN\ProjSrc\SrcChartEx\ChartAddIn\ChartDataListViewerAddIn\Include_Chart\Conversion.h
; File D:\git\src\IBK\IBK_DRFN\ProjSrc\SrcChartEx\ChartAddIn\ChartDataListViewerAddIn\ChartDataListViewerAddIn\DlgDataSimulator.cpp
; File C:\Program Files (x86)\Microsoft Visual Studio\2019\Community\VC\Tools\MSVC\14.29.30133\atlmfc\include\cstringt.h
; File D:\git\src\IBK\IBK_DRFN\ProjSrc\SrcChartEx\ChartAddIn\ChartDataListViewerAddIn\ChartDataListViewerAddIn\DlgDataSimulator.cpp
; File C:\Program Files (x86)\Microsoft Visual Studio\2019\Community\VC\Tools\MSVC\14.29.30133\atlmfc\include\cstringt.h
; File C:\Program Files (x86)\Microsoft Visual Studio\2019\Community\VC\Tools\MSVC\14.29.30133\atlmfc\include\atlsimpstr.h
; File C:\Program Files (x86)\Microsoft Visual Studio\2019\Community\VC\Tools\MSVC\14.29.30133\atlmfc\include\cstringt.h
; File D:\git\src\IBK\IBK_DRFN\ProjSrc\SrcChartEx\ChartAddIn\ChartDataListViewerAddIn\ChartDataListViewerAddIn\DlgDataSimulator.cpp
; File C:\Program Files (x86)\Microsoft Visual Studio\2019\Community\VC\Tools\MSVC\14.29.30133\atlmfc\include\cstringt.h
; File D:\git\src\IBK\IBK_DRFN\ProjSrc\SrcChartEx\ChartAddIn\ChartDataListViewerAddIn\ChartDataListViewerAddIn\DlgDataSimulator.cpp
; File C:\Program Files (x86)\Microsoft Visual Studio\2019\Community\VC\Tools\MSVC\14.29.30133\atlmfc\include\cstringt.h
; File C:\Program Files (x86)\Microsoft Visual Studio\2019\Community\VC\Tools\MSVC\14.29.30133\atlmfc\include\atlsimpstr.h
; File C:\Program Files (x86)\Microsoft Visual Studio\2019\Community\VC\Tools\MSVC\14.29.30133\atlmfc\include\cstringt.h
; File D:\git\src\IBK\IBK_DRFN\ProjSrc\SrcChartEx\ChartAddIn\ChartDataListViewerAddIn\ChartDataListViewerAddIn\DlgDataSimulator.cpp
; File C:\Program Files (x86)\Microsoft Visual Studio\2019\Community\VC\Tools\MSVC\14.29.30133\atlmfc\include\atlsimpstr.h
; File D:\git\src\IBK\IBK_DRFN\ProjSrc\SrcChartEx\ChartAddIn\ChartDataListViewerAddIn\ChartDataListViewerAddIn\DlgDataSimulator.cpp
; File C:\Program Files (x86)\Microsoft Visual Studio\2019\Community\VC\Tools\MSVC\14.29.30133\atlmfc\include\cstringt.h
; File D:\git\src\IBK\IBK_DRFN\ProjSrc\SrcChartEx\ChartAddIn\ChartDataListViewerAddIn\ChartDataListViewerAddIn\DlgDataSimulator.cpp
; File C:\Program Files (x86)\Microsoft Visual Studio\2019\Community\VC\Tools\MSVC\14.29.30133\atlmfc\include\cstringt.h
; File C:\Program Files (x86)\Microsoft Visual Studio\2019\Community\VC\Tools\MSVC\14.29.30133\atlmfc\include\atlsimpstr.h
; File C:\Program Files (x86)\Microsoft Visual Studio\2019\Community\VC\Tools\MSVC\14.29.30133\atlmfc\include\cstringt.h
; File D:\git\src\IBK\IBK_DRFN\ProjSrc\SrcChartEx\ChartAddIn\ChartDataListViewerAddIn\ChartDataListViewerAddIn\DlgDataSimulator.cpp
; File C:\Program Files (x86)\Microsoft Visual Studio\2019\Community\VC\Tools\MSVC\14.29.30133\atlmfc\include\cstringt.h
; File C:\Program Files (x86)\Microsoft Visual Studio\2019\Community\VC\Tools\MSVC\14.29.30133\atlmfc\include\atlsimpstr.h
; File C:\Program Files (x86)\Microsoft Visual Studio\2019\Community\VC\Tools\MSVC\14.29.30133\atlmfc\include\cstringt.h
; File C:\Program Files (x86)\Microsoft Visual Studio\2019\Community\VC\Tools\MSVC\14.29.30133\atlmfc\include\atlsimpstr.h
; File C:\Program Files (x86)\Microsoft Visual Studio\2019\Community\VC\Tools\MSVC\14.29.30133\atlmfc\include\cstringt.h
; File D:\git\src\IBK\IBK_DRFN\ProjSrc\SrcChartEx\ChartAddIn\ChartDataListViewerAddIn\ChartDataListViewerAddIn\DlgDataSimulator.cpp
; File C:\Program Files (x86)\Microsoft Visual Studio\2019\Community\VC\Tools\MSVC\14.29.30133\atlmfc\include\cstringt.h
; File C:\Program Files (x86)\Microsoft Visual Studio\2019\Community\VC\Tools\MSVC\14.29.30133\atlmfc\include\atlsimpstr.h
; File C:\Program Files (x86)\Microsoft Visual Studio\2019\Community\VC\Tools\MSVC\14.29.30133\atlmfc\include\cstringt.h
; File D:\git\src\IBK\IBK_DRFN\ProjSrc\SrcChartEx\ChartAddIn\ChartDataListViewerAddIn\ChartDataListViewerAddIn\DlgDataSimulator.cpp
; File C:\Program Files (x86)\Microsoft Visual Studio\2019\Community\VC\Tools\MSVC\14.29.30133\atlmfc\include\afxwin1.inl
; File D:\git\src\IBK\IBK_DRFN\ProjSrc\SrcChartEx\ChartAddIn\ChartDataListViewerAddIn\Include_Chart\DLL_Load\IMetaTable.h
; File C:\Program Files (x86)\Microsoft Visual Studio\2019\Community\VC\Tools\MSVC\14.29.30133\atlmfc\include\afxwin1.inl
; File D:\git\src\IBK\IBK_DRFN\ProjSrc\SrcChartEx\ChartAddIn\ChartDataListViewerAddIn\ChartDataListViewerAddIn\DlgDataSimulator.cpp
; File D:\git\src\IBK\IBK_DRFN\ProjSrc\SrcChartEx\ChartAddIn\ChartDataListViewerAddIn\Include_Chart\DLL_Load\IMetaTable.h
; File C:\Program Files (x86)\Microsoft Visual Studio\2019\Community\VC\Tools\MSVC\14.29.30133\atlmfc\include\afxwin1.inl
; File D:\git\src\IBK\IBK_DRFN\ProjSrc\SrcChartEx\ChartAddIn\ChartDataListViewerAddIn\ChartDataListViewerAddIn\DlgDataSimulator.cpp
; File C:\Program Files (x86)\Microsoft Visual Studio\2019\Community\VC\Tools\MSVC\14.29.30133\atlmfc\include\afxwin1.inl
; File D:\git\src\IBK\IBK_DRFN\ProjSrc\SrcChartEx\ChartAddIn\ChartDataListViewerAddIn\ChartDataListViewerAddIn\DlgDataSimulator.cpp
; File C:\Program Files (x86)\Microsoft Visual Studio\2019\Community\VC\Tools\MSVC\14.29.30133\atlmfc\include\afx.inl
; File D:\git\src\IBK\IBK_DRFN\ProjSrc\SrcChartEx\ChartAddIn\ChartDataListViewerAddIn\ChartDataListViewerAddIn\DlgDataSimulator.cpp
;	COMDAT ?OnBtnExcelExport@CDlgDataSimulator@@IAEXXZ
_TEXT	SEGMENT
_type$ = -276						; size = 4
_file$ = -272						; size = 20
$T2 = -252						; size = 8
_e$ = -244						; size = 20
_szTmp$ = -224						; size = 4
_strFormat$ = -220					; size = 4
_this$GSCopy$1$ = -216					; size = 4
_size$ = -212						; size = 4
_pos$1$ = -208						; size = 4
___mlrs__$ = -208					; size = 4
_strKey$ = -204						; size = 4
_openKey$ = -200					; size = 4
_szFilePath$ = -196					; size = 4
$T3 = -192						; size = 4
_szMsg$4 = -188						; size = 4
_strDate$5 = -188					; size = 4
_pRecordSet$1$ = -184					; size = 4
$T6 = -184						; size = 4
$T7 = -184						; size = 4
$T8 = -184						; size = 4
_szData$ = -180						; size = 4
_nCols$1$ = -176					; size = 4
$T9 = -176						; size = 4
_strMsg$10 = -176					; size = 4
_szExcel$ = -172					; size = 4
$T11 = -168						; size = 4
$T12 = -168						; size = 4
$T13 = -168						; size = 4
_strDlgTitle$14 = -168					; size = 4
_i$1$ = -164						; size = 4
_strFormat$15 = -164					; size = 4
$T16 = -164						; size = 4
$T17 = -164						; size = 4
_str$18 = -164						; size = 4
_sTime$ = -160						; size = 16
_Data$ = -144						; size = 128
__$ArrayPad$ = -16					; size = 4
__$EHRec$ = -12						; size = 12
?OnBtnExcelExport@CDlgDataSimulator@@IAEXXZ PROC	; CDlgDataSimulator::OnBtnExcelExport, COMDAT
; _this$ = ecx

; 514  : {

  00000	55		 push	 ebp
  00001	8b ec		 mov	 ebp, esp
  00003	6a ff		 push	 -1
  00005	68 00 00 00 00	 push	 __ehhandler$?OnBtnExcelExport@CDlgDataSimulator@@IAEXXZ
  0000a	64 a1 00 00 00
	00		 mov	 eax, DWORD PTR fs:0
  00010	50		 push	 eax
  00011	81 ec 08 01 00
	00		 sub	 esp, 264		; 00000108H
  00017	a1 00 00 00 00	 mov	 eax, DWORD PTR ___security_cookie
  0001c	33 c5		 xor	 eax, ebp
  0001e	89 45 f0	 mov	 DWORD PTR __$ArrayPad$[ebp], eax
  00021	53		 push	 ebx
  00022	56		 push	 esi
  00023	57		 push	 edi
  00024	50		 push	 eax
  00025	8d 45 f4	 lea	 eax, DWORD PTR __$EHRec$[ebp]
  00028	64 a3 00 00 00
	00		 mov	 DWORD PTR fs:0, eax
  0002e	8b f9		 mov	 edi, ecx
  00030	89 bd 28 ff ff
	ff		 mov	 DWORD PTR _this$GSCopy$1$[ebp], edi
  00036	33 db		 xor	 ebx, ebx
  00038	89 9d 40 ff ff
	ff		 mov	 DWORD PTR $T3[ebp], ebx

; 515  : 
; 516  : 	BOOL bExcelRun = TRUE;
; 517  : 	int nCols = m_pChartDataGridManager->m_ChartDataGridHeaderInfoArray.GetSize();

  0003e	8b 87 38 05 00
	00		 mov	 eax, DWORD PTR [edi+1336]
  00044	8b 40 20	 mov	 eax, DWORD PTR [eax+32]
  00047	89 85 50 ff ff
	ff		 mov	 DWORD PTR _nCols$1$[ebp], eax

; 518  : 	int nRows = m_pChartDataGridManager->m_ChartDataList.GetCount();
; 519  : 
; 520  : 
; 521  : 	SYSTEMTIME sTime;
; 522  : 	GetSystemTime(&sTime);

  0004d	8d 85 60 ff ff
	ff		 lea	 eax, DWORD PTR _sTime$[ebp]
  00053	50		 push	 eax
  00054	ff 15 00 00 00
	00		 call	 DWORD PTR __imp__GetSystemTime@4

; 523  : 
; 524  : 	CString  szFilePath ;

  0005a	8d 8d 3c ff ff
	ff		 lea	 ecx, DWORD PTR _szFilePath$[ebp]
  00060	ff 15 00 00 00
	00		 call	 DWORD PTR __imp_??0?$CStringT@DV?$StrTraitMFC_DLL@DV?$ChTraitsCRT@D@ATL@@@@@ATL@@QAE@XZ

; 525  : 	szFilePath.Format("%sChartData_%04d%02d%02d_%02d%02d%02d.nc2", m_strUserFilePath, 

  00066	0f b7 85 6c ff
	ff ff		 movzx	 eax, WORD PTR _sTime$[ebp+12]
  0006d	50		 push	 eax
  0006e	0f b7 85 6a ff
	ff ff		 movzx	 eax, WORD PTR _sTime$[ebp+10]
  00075	50		 push	 eax
  00076	0f b7 85 68 ff
	ff ff		 movzx	 eax, WORD PTR _sTime$[ebp+8]
  0007d	83 c0 09	 add	 eax, 9
  00080	89 5d fc	 mov	 DWORD PTR __$EHRec$[ebp+8], ebx
  00083	50		 push	 eax
  00084	0f b7 85 66 ff
	ff ff		 movzx	 eax, WORD PTR _sTime$[ebp+6]
  0008b	50		 push	 eax
  0008c	0f b7 85 62 ff
	ff ff		 movzx	 eax, WORD PTR _sTime$[ebp+2]
  00093	50		 push	 eax
  00094	0f b7 85 60 ff
	ff ff		 movzx	 eax, WORD PTR _sTime$[ebp]
  0009b	50		 push	 eax
  0009c	ff b7 58 05 00
	00		 push	 DWORD PTR [edi+1368]
  000a2	8d 85 3c ff ff
	ff		 lea	 eax, DWORD PTR _szFilePath$[ebp]
  000a8	68 00 00 00 00	 push	 OFFSET ??_C@_0CK@HLLCJIGM@?$CFsChartData_?$CF04d?$CF02d?$CF02d_?$CF02d?$CF0@
  000ad	50		 push	 eax
  000ae	ff 15 00 00 00
	00		 call	 DWORD PTR __imp_?Format@?$CStringT@DV?$StrTraitMFC_DLL@DV?$ChTraitsCRT@D@ATL@@@@@ATL@@QAAXPBDZZ
  000b4	83 c4 24	 add	 esp, 36			; 00000024H

; 526  : 				sTime.wYear, sTime.wMonth, sTime.wDay, sTime.wHour+9, sTime.wMinute, sTime.wSecond);
; 527  : 
; 528  : 
; 529  : 	CString szExcel = "NO" ;

  000b7	8d 8d 54 ff ff
	ff		 lea	 ecx, DWORD PTR _szExcel$[ebp]
  000bd	68 00 00 00 00	 push	 OFFSET ??_C@_02NFLNFON@NO@
  000c2	ff 15 00 00 00
	00		 call	 DWORD PTR __imp_??0?$CStringT@DV?$StrTraitMFC_DLL@DV?$ChTraitsCRT@D@ATL@@@@@ATL@@QAE@PBD@Z

; 530  : 	CString strKey = "Excel.csv\\shell\\open\\command";

  000c8	68 00 00 00 00	 push	 OFFSET ??_C@_0BN@JCCJDGAM@Excel?4csv?2shell?2open?2command@
  000cd	8d 8d 34 ff ff
	ff		 lea	 ecx, DWORD PTR _strKey$[ebp]
  000d3	c6 45 fc 01	 mov	 BYTE PTR __$EHRec$[ebp+8], 1
  000d7	ff 15 00 00 00
	00		 call	 DWORD PTR __imp_??0?$CStringT@DV?$StrTraitMFC_DLL@DV?$ChTraitsCRT@D@ATL@@@@@ATL@@QAE@PBD@Z

; 531  : 	int Ver = 60 ;
; 532  : 	HKEY hkey = HKEY_CLASSES_ROOT ;
; 533  : 
; 534  : 	
; 535  : 	LONG err;
; 536  : 	HKEY openKey;
; 537  : 	BYTE Data[128];
; 538  : 	DWORD type;
; 539  : 	DWORD size=sizeof(Data);
; 540  : 
; 541  : 	err=RegOpenKey(hkey,strKey,&openKey);

  000dd	8d 85 38 ff ff
	ff		 lea	 eax, DWORD PTR _openKey$[ebp]
  000e3	c6 45 fc 02	 mov	 BYTE PTR __$EHRec$[ebp+8], 2
  000e7	50		 push	 eax
  000e8	ff b5 34 ff ff
	ff		 push	 DWORD PTR _strKey$[ebp]
  000ee	c7 85 2c ff ff
	ff 80 00 00 00	 mov	 DWORD PTR _size$[ebp], 128 ; 00000080H
  000f8	68 00 00 00 80	 push	 -2147483648		; 80000000H
  000fd	ff 15 00 00 00
	00		 call	 DWORD PTR __imp__RegOpenKeyA@12

; 542  : 	if(ERROR ==err)

  00103	85 c0		 test	 eax, eax
  00105	75 73		 jne	 SHORT $LN12@OnBtnExcel

; 543  : 	   err=RegQueryValueEx(openKey,"",0,&type,Data,&size);

  00107	8d 85 2c ff ff
	ff		 lea	 eax, DWORD PTR _size$[ebp]
  0010d	50		 push	 eax
  0010e	8d 85 70 ff ff
	ff		 lea	 eax, DWORD PTR _Data$[ebp]
  00114	50		 push	 eax
  00115	8d 85 ec fe ff
	ff		 lea	 eax, DWORD PTR _type$[ebp]
  0011b	50		 push	 eax
  0011c	53		 push	 ebx
  0011d	68 00 00 00 00	 push	 OFFSET ??_C@_00CNPNBAHC@@
  00122	ff b5 38 ff ff
	ff		 push	 DWORD PTR _openKey$[ebp]
  00128	ff 15 00 00 00
	00		 call	 DWORD PTR __imp__RegQueryValueExA@24

; 544  :  
; 545  : 	if(err==ERROR_SUCCESS)

  0012e	85 c0		 test	 eax, eax
  00130	75 48		 jne	 SHORT $LN12@OnBtnExcel

; 546  : 	{
; 547  : 		RegCloseKey(openKey);

  00132	ff b5 38 ff ff
	ff		 push	 DWORD PTR _openKey$[ebp]
  00138	ff 15 00 00 00
	00		 call	 DWORD PTR __imp__RegCloseKey@4

; 548  : 		CString str(Data);

  0013e	8d 85 70 ff ff
	ff		 lea	 eax, DWORD PTR _Data$[ebp]
  00144	50		 push	 eax
  00145	8d 8d 5c ff ff
	ff		 lea	 ecx, DWORD PTR _str$18[ebp]
  0014b	ff 15 00 00 00
	00		 call	 DWORD PTR __imp_??0?$CStringT@DV?$StrTraitMFC_DLL@DV?$ChTraitsCRT@D@ATL@@@@@ATL@@QAE@PBE@Z

; 549  : 		szExcel = str;

  00151	8d 85 5c ff ff
	ff		 lea	 eax, DWORD PTR _str$18[ebp]
  00157	c6 45 fc 03	 mov	 BYTE PTR __$EHRec$[ebp+8], 3
  0015b	50		 push	 eax
  0015c	8d 8d 54 ff ff
	ff		 lea	 ecx, DWORD PTR _szExcel$[ebp]
  00162	ff 15 00 00 00
	00		 call	 DWORD PTR __imp_??4?$CStringT@DV?$StrTraitMFC_DLL@DV?$ChTraitsCRT@D@ATL@@@@@ATL@@QAEAAV01@ABV01@@Z

; 550  : 	}

  00168	8d 8d 5c ff ff
	ff		 lea	 ecx, DWORD PTR _str$18[ebp]
  0016e	c6 45 fc 02	 mov	 BYTE PTR __$EHRec$[ebp+8], 2
  00172	ff 15 00 00 00
	00		 call	 DWORD PTR __imp_??1?$CStringT@DV?$StrTraitMFC_DLL@DV?$ChTraitsCRT@D@ATL@@@@@ATL@@QAE@XZ
  00178	eb 1d		 jmp	 SHORT $LN13@OnBtnExcel
$LN12@OnBtnExcel:

; 551  : 	else
; 552  : 	{
; 553  : 		RegCloseKey(openKey);

  0017a	ff b5 38 ff ff
	ff		 push	 DWORD PTR _openKey$[ebp]
  00180	ff 15 00 00 00
	00		 call	 DWORD PTR __imp__RegCloseKey@4

; 554  : 		szExcel = "NO";

  00186	68 00 00 00 00	 push	 OFFSET ??_C@_02NFLNFON@NO@
  0018b	8d 8d 54 ff ff
	ff		 lea	 ecx, DWORD PTR _szExcel$[ebp]
  00191	ff 15 00 00 00
	00		 call	 DWORD PTR __imp_??4?$CStringT@DV?$StrTraitMFC_DLL@DV?$ChTraitsCRT@D@ATL@@@@@ATL@@QAEAAV01@PBD@Z
$LN13@OnBtnExcel:

; 555  : 	}
; 556  : 
; 557  : 
; 558  : 	szExcel.MakeLower() ;

  00197	8d 8d 54 ff ff
	ff		 lea	 ecx, DWORD PTR _szExcel$[ebp]
  0019d	ff 15 00 00 00
	00		 call	 DWORD PTR __imp_?MakeLower@?$CStringT@DV?$StrTraitMFC_DLL@DV?$ChTraitsCRT@D@ATL@@@@@ATL@@QAEAAV12@XZ

; 559  : 	int start = szExcel.Find("excel.exe") ;

  001a3	6a 00		 push	 0
  001a5	68 00 00 00 00	 push	 OFFSET ??_C@_09KIHNACBF@excel?4exe@
  001aa	8d 8d 54 ff ff
	ff		 lea	 ecx, DWORD PTR _szExcel$[ebp]
  001b0	ff 15 00 00 00
	00		 call	 DWORD PTR __imp_?Find@?$CStringT@DV?$StrTraitMFC_DLL@DV?$ChTraitsCRT@D@ATL@@@@@ATL@@QBEHPBDH@Z

; 560  : 	szExcel = szExcel.Left(start + 9) ;

  001b6	83 c0 09	 add	 eax, 9
  001b9	8d 8d 54 ff ff
	ff		 lea	 ecx, DWORD PTR _szExcel$[ebp]
  001bf	50		 push	 eax
  001c0	8d 85 48 ff ff
	ff		 lea	 eax, DWORD PTR $T8[ebp]
  001c6	50		 push	 eax
  001c7	ff 15 00 00 00
	00		 call	 DWORD PTR __imp_?Left@?$CStringT@DV?$StrTraitMFC_DLL@DV?$ChTraitsCRT@D@ATL@@@@@ATL@@QBE?AV12@H@Z
  001cd	50		 push	 eax
  001ce	8d 8d 54 ff ff
	ff		 lea	 ecx, DWORD PTR _szExcel$[ebp]
  001d4	c6 45 fc 04	 mov	 BYTE PTR __$EHRec$[ebp+8], 4
  001d8	ff 15 00 00 00
	00		 call	 DWORD PTR __imp_??4?$CStringT@DV?$StrTraitMFC_DLL@DV?$ChTraitsCRT@D@ATL@@@@@ATL@@QAEAAV01@ABV01@@Z
  001de	8d 8d 48 ff ff
	ff		 lea	 ecx, DWORD PTR $T8[ebp]
  001e4	c6 45 fc 02	 mov	 BYTE PTR __$EHRec$[ebp+8], 2
  001e8	ff 15 00 00 00
	00		 call	 DWORD PTR __imp_??1?$CStringT@DV?$StrTraitMFC_DLL@DV?$ChTraitsCRT@D@ATL@@@@@ATL@@QAE@XZ

; 561  : 	if(szExcel.Left(1).Compare("\"") == 0)

  001ee	6a 01		 push	 1
  001f0	8d 85 48 ff ff
	ff		 lea	 eax, DWORD PTR $T7[ebp]
  001f6	50		 push	 eax
  001f7	8d 8d 54 ff ff
	ff		 lea	 ecx, DWORD PTR _szExcel$[ebp]
  001fd	ff 15 00 00 00
	00		 call	 DWORD PTR __imp_?Left@?$CStringT@DV?$StrTraitMFC_DLL@DV?$ChTraitsCRT@D@ATL@@@@@ATL@@QBE?AV12@H@Z
  00203	68 00 00 00 00	 push	 OFFSET ??_C@_01BJJEKLCA@?$CC@
  00208	8b c8		 mov	 ecx, eax
  0020a	c6 45 fc 05	 mov	 BYTE PTR __$EHRec$[ebp+8], 5
  0020e	ff 15 00 00 00
	00		 call	 DWORD PTR __imp_?Compare@?$CStringT@DV?$StrTraitMFC_DLL@DV?$ChTraitsCRT@D@ATL@@@@@ATL@@QBEHPBD@Z
  00214	8d 8d 48 ff ff
	ff		 lea	 ecx, DWORD PTR $T7[ebp]
  0021a	c6 45 fc 02	 mov	 BYTE PTR __$EHRec$[ebp+8], 2
  0021e	8b f0		 mov	 esi, eax
  00220	ff 15 00 00 00
	00		 call	 DWORD PTR __imp_??1?$CStringT@DV?$StrTraitMFC_DLL@DV?$ChTraitsCRT@D@ATL@@@@@ATL@@QAE@XZ
  00226	85 f6		 test	 esi, esi
  00228	75 3f		 jne	 SHORT $LN14@OnBtnExcel
; File C:\Program Files (x86)\Microsoft Visual Studio\2019\Community\VC\Tools\MSVC\14.29.30133\atlmfc\include\atlsimpstr.h

; 519  : 		return( GetData()->nDataLength );

  0022a	8b 85 54 ff ff
	ff		 mov	 eax, DWORD PTR _szExcel$[ebp]
; File D:\git\src\IBK\IBK_DRFN\ProjSrc\SrcChartEx\ChartAddIn\ChartDataListViewerAddIn\ChartDataListViewerAddIn\DlgDataSimulator.cpp

; 562  : 		szExcel = szExcel.Right(szExcel.GetLength() - 1) ;

  00230	8d 8d 54 ff ff
	ff		 lea	 ecx, DWORD PTR _szExcel$[ebp]
; File C:\Program Files (x86)\Microsoft Visual Studio\2019\Community\VC\Tools\MSVC\14.29.30133\atlmfc\include\atlsimpstr.h

; 519  : 		return( GetData()->nDataLength );

  00236	8b 40 f4	 mov	 eax, DWORD PTR [eax-12]
; File D:\git\src\IBK\IBK_DRFN\ProjSrc\SrcChartEx\ChartAddIn\ChartDataListViewerAddIn\ChartDataListViewerAddIn\DlgDataSimulator.cpp

; 562  : 		szExcel = szExcel.Right(szExcel.GetLength() - 1) ;

  00239	48		 dec	 eax
  0023a	50		 push	 eax
  0023b	8d 85 48 ff ff
	ff		 lea	 eax, DWORD PTR $T6[ebp]
  00241	50		 push	 eax
  00242	ff 15 00 00 00
	00		 call	 DWORD PTR __imp_?Right@?$CStringT@DV?$StrTraitMFC_DLL@DV?$ChTraitsCRT@D@ATL@@@@@ATL@@QBE?AV12@H@Z
  00248	50		 push	 eax
  00249	8d 8d 54 ff ff
	ff		 lea	 ecx, DWORD PTR _szExcel$[ebp]
  0024f	c6 45 fc 06	 mov	 BYTE PTR __$EHRec$[ebp+8], 6
  00253	ff 15 00 00 00
	00		 call	 DWORD PTR __imp_??4?$CStringT@DV?$StrTraitMFC_DLL@DV?$ChTraitsCRT@D@ATL@@@@@ATL@@QAEAAV01@ABV01@@Z
  00259	8d 8d 48 ff ff
	ff		 lea	 ecx, DWORD PTR $T6[ebp]
  0025f	c6 45 fc 02	 mov	 BYTE PTR __$EHRec$[ebp+8], 2
  00263	ff 15 00 00 00
	00		 call	 DWORD PTR __imp_??1?$CStringT@DV?$StrTraitMFC_DLL@DV?$ChTraitsCRT@D@ATL@@@@@ATL@@QAE@XZ
$LN14@OnBtnExcel:

; 563  : 
; 564  : 
; 565  : 	CreateDirectory("C:\\Temp", NULL) ; 

  00269	6a 00		 push	 0
  0026b	68 00 00 00 00	 push	 OFFSET ??_C@_07OEMLJILH@C?3?2Temp@
  00270	ff 15 00 00 00
	00		 call	 DWORD PTR __imp__CreateDirectoryA@8

; 566  : 	CFile file;

  00276	8d 8d f0 fe ff
	ff		 lea	 ecx, DWORD PTR _file$[ebp]
  0027c	e8 00 00 00 00	 call	 ??0CFile@@QAE@XZ	; CFile::CFile
; File C:\Program Files (x86)\Microsoft Visual Studio\2019\Community\VC\Tools\MSVC\14.29.30133\atlmfc\include\afx.inl

; 168  : 	{ m_cause = cause; m_lOsError = lOsError; m_strFileName = pstrFileName; }

  00281	8d 8d 0c ff ff
	ff		 lea	 ecx, DWORD PTR _e$[ebp]
; File D:\git\src\IBK\IBK_DRFN\ProjSrc\SrcChartEx\ChartAddIn\ChartDataListViewerAddIn\ChartDataListViewerAddIn\DlgDataSimulator.cpp

; 566  : 	CFile file;

  00287	c6 45 fc 07	 mov	 BYTE PTR __$EHRec$[ebp+8], 7
; File C:\Program Files (x86)\Microsoft Visual Studio\2019\Community\VC\Tools\MSVC\14.29.30133\atlmfc\include\afx.inl

; 168  : 	{ m_cause = cause; m_lOsError = lOsError; m_strFileName = pstrFileName; }

  0028b	e8 00 00 00 00	 call	 ??0CException@@QAE@XZ	; CException::CException
  00290	8d 8d 1c ff ff
	ff		 lea	 ecx, DWORD PTR _e$[ebp+16]
  00296	c7 85 0c ff ff
	ff 00 00 00 00	 mov	 DWORD PTR _e$[ebp], OFFSET ??_7CFileException@@6B@
  002a0	ff 15 00 00 00
	00		 call	 DWORD PTR __imp_??0?$CStringT@DV?$StrTraitMFC_DLL@DV?$ChTraitsCRT@D@ATL@@@@@ATL@@QAE@XZ
  002a6	6a 00		 push	 0
  002a8	8d 8d 1c ff ff
	ff		 lea	 ecx, DWORD PTR _e$[ebp+16]
  002ae	c6 45 fc 08	 mov	 BYTE PTR __$EHRec$[ebp+8], 8
  002b2	c7 85 14 ff ff
	ff 00 00 00 00	 mov	 DWORD PTR _e$[ebp+8], 0
  002bc	c7 85 18 ff ff
	ff ff ff ff ff	 mov	 DWORD PTR _e$[ebp+12], -1
  002c6	ff 15 00 00 00
	00		 call	 DWORD PTR __imp_??4?$CStringT@DV?$StrTraitMFC_DLL@DV?$ChTraitsCRT@D@ATL@@@@@ATL@@QAEAAV01@PBD@Z
; File D:\git\src\IBK\IBK_DRFN\ProjSrc\SrcChartEx\ChartAddIn\ChartDataListViewerAddIn\ChartDataListViewerAddIn\DlgDataSimulator.cpp

; 568  : 	if( !file.Open( szFilePath, CFile::modeCreate | CFile::modeWrite, &e ) )

  002cc	8d 85 0c ff ff
	ff		 lea	 eax, DWORD PTR _e$[ebp]
  002d2	c6 45 fc 09	 mov	 BYTE PTR __$EHRec$[ebp+8], 9
  002d6	50		 push	 eax
  002d7	68 01 10 00 00	 push	 4097			; 00001001H
  002dc	ff b5 3c ff ff
	ff		 push	 DWORD PTR _szFilePath$[ebp]
  002e2	8d 8d f0 fe ff
	ff		 lea	 ecx, DWORD PTR _file$[ebp]
  002e8	e8 00 00 00 00	 call	 ?Open@CFile@@UAEHPBDIPAVCFileException@@@Z ; CFile::Open
  002ed	85 c0		 test	 eax, eax
  002ef	75 64		 jne	 SHORT $LN15@OnBtnExcel

; 569  : 	{
; 570  : 		CString strMsg, strDlgTitle;

  002f1	8d 8d 50 ff ff
	ff		 lea	 ecx, DWORD PTR _strMsg$10[ebp]
  002f7	ff 15 00 00 00
	00		 call	 DWORD PTR __imp_??0?$CStringT@DV?$StrTraitMFC_DLL@DV?$ChTraitsCRT@D@ATL@@@@@ATL@@QAE@XZ
  002fd	8d 8d 58 ff ff
	ff		 lea	 ecx, DWORD PTR _strDlgTitle$14[ebp]
  00303	ff 15 00 00 00
	00		 call	 DWORD PTR __imp_??0?$CStringT@DV?$StrTraitMFC_DLL@DV?$ChTraitsCRT@D@ATL@@@@@ATL@@QAE@XZ

; 571  : 		GetWindowText(strDlgTitle);

  00309	8d 85 58 ff ff
	ff		 lea	 eax, DWORD PTR _strDlgTitle$14[ebp]
  0030f	c6 45 fc 0b	 mov	 BYTE PTR __$EHRec$[ebp+8], 11 ; 0000000bH
  00313	50		 push	 eax
  00314	8b cf		 mov	 ecx, edi
  00316	e8 00 00 00 00	 call	 ?GetWindowTextA@CWnd@@QBEXAAV?$CStringT@DV?$StrTraitMFC_DLL@DV?$ChTraitsCRT@D@ATL@@@@@ATL@@@Z ; CWnd::GetWindowTextA

; 572  : 		strMsg.LoadString( IDS_FAIL_TO_CREATE_FILE);

  0031b	6a 0f		 push	 15			; 0000000fH
  0031d	8d 8d 50 ff ff
	ff		 lea	 ecx, DWORD PTR _strMsg$10[ebp]
  00323	ff 15 00 00 00
	00		 call	 DWORD PTR __imp_?LoadStringA@?$CStringT@DV?$StrTraitMFC_DLL@DV?$ChTraitsCRT@D@ATL@@@@@ATL@@QAEHI@Z

; 573  : 		MessageBox(strMsg, strDlgTitle);

  00329	6a 00		 push	 0
  0032b	ff b5 58 ff ff
	ff		 push	 DWORD PTR _strDlgTitle$14[ebp]
  00331	8b cf		 mov	 ecx, edi
  00333	ff b5 50 ff ff
	ff		 push	 DWORD PTR _strMsg$10[ebp]
  00339	e8 00 00 00 00	 call	 ?MessageBoxA@CWnd@@QAEHPBD0I@Z ; CWnd::MessageBoxA

; 574  : 		return;

  0033e	8d 8d 58 ff ff
	ff		 lea	 ecx, DWORD PTR _strDlgTitle$14[ebp]
  00344	ff 15 00 00 00
	00		 call	 DWORD PTR __imp_??1?$CStringT@DV?$StrTraitMFC_DLL@DV?$ChTraitsCRT@D@ATL@@@@@ATL@@QAE@XZ
  0034a	8d 8d 50 ff ff
	ff		 lea	 ecx, DWORD PTR _strMsg$10[ebp]
  00350	e9 c9 04 00 00	 jmp	 $LN247@OnBtnExcel
$LN15@OnBtnExcel:

; 575  :     }
; 576  : 
; 577  : 	int i;
; 578  : 	CString szData, szTmp;

  00355	8d 8d 4c ff ff
	ff		 lea	 ecx, DWORD PTR _szData$[ebp]
  0035b	ff 15 00 00 00
	00		 call	 DWORD PTR __imp_??0?$CStringT@DV?$StrTraitMFC_DLL@DV?$ChTraitsCRT@D@ATL@@@@@ATL@@QAE@XZ
  00361	8d 8d 20 ff ff
	ff		 lea	 ecx, DWORD PTR _szTmp$[ebp]
  00367	ff 15 00 00 00
	00		 call	 DWORD PTR __imp_??0?$CStringT@DV?$StrTraitMFC_DLL@DV?$ChTraitsCRT@D@ATL@@@@@ATL@@QAE@XZ

; 579  : 	
; 580  : 	for( i = 0 ; i < nCols ; i++ )

  0036d	33 c9		 xor	 ecx, ecx
  0036f	c6 45 fc 0d	 mov	 BYTE PTR __$EHRec$[ebp+8], 13 ; 0000000dH
  00373	89 8d 5c ff ff
	ff		 mov	 DWORD PTR _i$1$[ebp], ecx
  00379	39 8d 50 ff ff
	ff		 cmp	 DWORD PTR _nCols$1$[ebp], ecx
  0037f	0f 8e a8 00 00
	00		 jle	 $LN3@OnBtnExcel
  00385	66 66 66 0f 1f
	84 00 00 00 00
	00		 npad	 11
$LL4@OnBtnExcel:

; 582  : 		CChartDataGridHeaderInfo * pHeaderInfo = m_pChartDataGridManager->m_ChartDataGridHeaderInfoArray.GetAt(i);

  00390	8b 87 38 05 00
	00		 mov	 eax, DWORD PTR [edi+1336]
; File C:\Program Files (x86)\Microsoft Visual Studio\2019\Community\VC\Tools\MSVC\14.29.30133\atlmfc\include\afxtempl.h

; 288  : 	if(nIndex >= 0 && nIndex < m_nSize)

  00396	85 c9		 test	 ecx, ecx
  00398	0f 88 e7 04 00
	00		 js	 $LN73@OnBtnExcel
  0039e	3b 48 20	 cmp	 ecx, DWORD PTR [eax+32]
  003a1	0f 8d de 04 00
	00		 jge	 $LN73@OnBtnExcel

; 289  : 		return m_pData[nIndex];

  003a7	8b 40 1c	 mov	 eax, DWORD PTR [eax+28]
; File D:\git\src\IBK\IBK_DRFN\ProjSrc\SrcChartEx\ChartAddIn\ChartDataListViewerAddIn\ChartDataListViewerAddIn\DlgDataSimulator.cpp

; 582  : 		CChartDataGridHeaderInfo * pHeaderInfo = m_pChartDataGridManager->m_ChartDataGridHeaderInfoArray.GetAt(i);

  003aa	8b 34 88	 mov	 esi, DWORD PTR [eax+ecx*4]
; File C:\Program Files (x86)\Microsoft Visual Studio\2019\Community\VC\Tools\MSVC\14.29.30133\atlmfc\include\cstringt.h

; 2401 : 		CStringT strResult( str1.GetManager() );

  003ad	8d 4e 04	 lea	 ecx, DWORD PTR [esi+4]
; File D:\git\src\IBK\IBK_DRFN\ProjSrc\SrcChartEx\ChartAddIn\ChartDataListViewerAddIn\ChartDataListViewerAddIn\DlgDataSimulator.cpp

; 583  : 		szData += pHeaderInfo->m_strTitle + _T("\t");

  003b0	c6 45 fc 0e	 mov	 BYTE PTR __$EHRec$[ebp+8], 14 ; 0000000eH
; File C:\Program Files (x86)\Microsoft Visual Studio\2019\Community\VC\Tools\MSVC\14.29.30133\atlmfc\include\cstringt.h

; 2401 : 		CStringT strResult( str1.GetManager() );

  003b4	ff 15 00 00 00
	00		 call	 DWORD PTR __imp_?GetManager@?$CStringT@DV?$StrTraitMFC_DLL@DV?$ChTraitsCRT@D@ATL@@@@@ATL@@QBEPAUIAtlStringMgr@2@XZ
  003ba	50		 push	 eax
  003bb	8d 8d 58 ff ff
	ff		 lea	 ecx, DWORD PTR $T13[ebp]
  003c1	ff 15 00 00 00
	00		 call	 DWORD PTR __imp_??0?$CStringT@DV?$StrTraitMFC_DLL@DV?$ChTraitsCRT@D@ATL@@@@@ATL@@QAE@PAUIAtlStringMgr@1@@Z
; File C:\Program Files (x86)\Microsoft Visual Studio\2019\Community\VC\Tools\MSVC\14.29.30133\atlmfc\include\atlsimpstr.h

; 519  : 		return( GetData()->nDataLength );

  003c7	8b 46 04	 mov	 eax, DWORD PTR [esi+4]
; File C:\Program Files (x86)\Microsoft Visual Studio\2019\Community\VC\Tools\MSVC\14.29.30133\atlmfc\include\cstringt.h

; 2405 : 		return( strResult );

  003ca	83 cb 01	 or	 ebx, 1
  003cd	6a 01		 push	 1
  003cf	68 00 00 00 00	 push	 OFFSET ??_C@_01GPOEFGEJ@?7@
  003d4	89 9d 40 ff ff
	ff		 mov	 DWORD PTR $T3[ebp], ebx
  003da	ff 70 f4	 push	 DWORD PTR [eax-12]
  003dd	50		 push	 eax
  003de	8d 85 58 ff ff
	ff		 lea	 eax, DWORD PTR $T13[ebp]
  003e4	50		 push	 eax
  003e5	ff 15 00 00 00
	00		 call	 DWORD PTR __imp_?Concatenate@?$CSimpleStringT@D$00@ATL@@KAXAAV12@PBDH1H@Z
  003eb	83 c4 14	 add	 esp, 20			; 00000014H
; File D:\git\src\IBK\IBK_DRFN\ProjSrc\SrcChartEx\ChartAddIn\ChartDataListViewerAddIn\ChartDataListViewerAddIn\DlgDataSimulator.cpp

; 583  : 		szData += pHeaderInfo->m_strTitle + _T("\t");

  003ee	8d 85 58 ff ff
	ff		 lea	 eax, DWORD PTR $T13[ebp]
  003f4	8d 8d 4c ff ff
	ff		 lea	 ecx, DWORD PTR _szData$[ebp]
  003fa	50		 push	 eax
  003fb	ff 15 00 00 00
	00		 call	 DWORD PTR __imp_??Y?$CStringT@DV?$StrTraitMFC_DLL@DV?$ChTraitsCRT@D@ATL@@@@@ATL@@QAEAAV01@ABV?$CSimpleStringT@D$00@1@@Z
  00401	8d 8d 58 ff ff
	ff		 lea	 ecx, DWORD PTR $T13[ebp]
  00407	c6 45 fc 0d	 mov	 BYTE PTR __$EHRec$[ebp+8], 13 ; 0000000dH
  0040b	83 e3 fe	 and	 ebx, -2			; fffffffeH
  0040e	ff 15 00 00 00
	00		 call	 DWORD PTR __imp_??1?$CStringT@DV?$StrTraitMFC_DLL@DV?$ChTraitsCRT@D@ATL@@@@@ATL@@QAE@XZ
  00414	8b 8d 5c ff ff
	ff		 mov	 ecx, DWORD PTR _i$1$[ebp]
  0041a	41		 inc	 ecx
  0041b	89 8d 5c ff ff
	ff		 mov	 DWORD PTR _i$1$[ebp], ecx
  00421	3b 8d 50 ff ff
	ff		 cmp	 ecx, DWORD PTR _nCols$1$[ebp]
  00427	0f 8c 63 ff ff
	ff		 jl	 $LL4@OnBtnExcel
$LN3@OnBtnExcel:

; 584  : 	}
; 585  : 	szData += _T("\r\n");

  0042d	68 00 00 00 00	 push	 OFFSET ??_C@_02PCIJFNDE@?$AN?6@
  00432	8d 8d 4c ff ff
	ff		 lea	 ecx, DWORD PTR _szData$[ebp]
  00438	ff 15 00 00 00
	00		 call	 DWORD PTR __imp_??Y?$CStringT@DV?$StrTraitMFC_DLL@DV?$ChTraitsCRT@D@ATL@@@@@ATL@@QAEAAV01@PBD@Z
; File C:\Program Files (x86)\Microsoft Visual Studio\2019\Community\VC\Tools\MSVC\14.29.30133\atlmfc\include\atlsimpstr.h

; 519  : 		return( GetData()->nDataLength );

  0043e	8b 85 4c ff ff
	ff		 mov	 eax, DWORD PTR _szData$[ebp]
; File D:\git\src\IBK\IBK_DRFN\ProjSrc\SrcChartEx\ChartAddIn\ChartDataListViewerAddIn\ChartDataListViewerAddIn\DlgDataSimulator.cpp

; 586  : 	file.Write(szData, szData.GetLength());

  00444	8d 8d f0 fe ff
	ff		 lea	 ecx, DWORD PTR _file$[ebp]
  0044a	ff 70 f4	 push	 DWORD PTR [eax-12]
  0044d	50		 push	 eax
  0044e	e8 00 00 00 00	 call	 ?Write@CFile@@UAEXPBXI@Z ; CFile::Write

; 587  : 
; 588  : 	szData.Empty();

  00453	8d 8d 4c ff ff
	ff		 lea	 ecx, DWORD PTR _szData$[ebp]
  00459	ff 15 00 00 00
	00		 call	 DWORD PTR __imp_?Empty@?$CSimpleStringT@D$00@ATL@@QAEXXZ

; 589  : 	for(POSITION pos = m_pChartDataGridManager->m_ChartDataList.GetHeadPosition(); pos ;)

  0045f	8b 87 38 05 00
	00		 mov	 eax, DWORD PTR [edi+1336]
  00465	8b 48 30	 mov	 ecx, DWORD PTR [eax+48]
  00468	85 c9		 test	 ecx, ecx
  0046a	0f 84 94 01 00
	00		 je	 $LN244@OnBtnExcel
$LL5@OnBtnExcel:

; 591  : 		CChartRecordSet * pRecordSet = m_pChartDataGridManager->m_ChartDataList.GetNext(pos);

  00470	8b 41 08	 mov	 eax, DWORD PTR [ecx+8]

; 592  : 
; 593  : 		for( i = 0 ; i < nCols && i < COL_SIZE ; i++ )

  00473	33 f6		 xor	 esi, esi
; File C:\Program Files (x86)\Microsoft Visual Studio\2019\Community\VC\Tools\MSVC\14.29.30133\atlmfc\include\afxtempl.h

; 813  : 		rPosition = (POSITION) pNode->pNext;

  00475	8b 09		 mov	 ecx, DWORD PTR [ecx]
  00477	89 8d 30 ff ff
	ff		 mov	 DWORD PTR _pos$1$[ebp], ecx
; File D:\git\src\IBK\IBK_DRFN\ProjSrc\SrcChartEx\ChartAddIn\ChartDataListViewerAddIn\ChartDataListViewerAddIn\DlgDataSimulator.cpp

; 591  : 		CChartRecordSet * pRecordSet = m_pChartDataGridManager->m_ChartDataList.GetNext(pos);

  0047d	89 85 48 ff ff
	ff		 mov	 DWORD PTR _pRecordSet$1$[ebp], eax

; 592  : 
; 593  : 		for( i = 0 ; i < nCols && i < COL_SIZE ; i++ )

  00483	39 b5 50 ff ff
	ff		 cmp	 DWORD PTR _nCols$1$[ebp], esi
  00489	0f 8e 56 01 00
	00		 jle	 $LN9@OnBtnExcel
  0048f	90		 npad	 1
$LL10@OnBtnExcel:
  00490	83 fe 06	 cmp	 esi, 6
  00493	0f 8d 4c 01 00
	00		 jge	 $LN9@OnBtnExcel

; 594  : 		{
; 595  : 			if( i == DATE_TIME )

  00499	85 f6		 test	 esi, esi
  0049b	0f 85 c3 00 00
	00		 jne	 $LN16@OnBtnExcel

; 596  : 			{
; 597  : 				CChartDataGridHeaderInfo * pHeaderInfo = m_pChartDataGridManager->m_ChartDataGridHeaderInfoArray.GetAt(i);

  004a1	8b 87 38 05 00
	00		 mov	 eax, DWORD PTR [edi+1336]
; File C:\Program Files (x86)\Microsoft Visual Studio\2019\Community\VC\Tools\MSVC\14.29.30133\atlmfc\include\afxtempl.h

; 288  : 	if(nIndex >= 0 && nIndex < m_nSize)

  004a7	39 70 20	 cmp	 DWORD PTR [eax+32], esi
  004aa	0f 8e d5 03 00
	00		 jle	 $LN73@OnBtnExcel

; 289  : 		return m_pData[nIndex];

  004b0	8b 40 1c	 mov	 eax, DWORD PTR [eax+28]
; File D:\git\src\IBK\IBK_DRFN\ProjSrc\SrcChartEx\ChartAddIn\ChartDataListViewerAddIn\ChartDataListViewerAddIn\DlgDataSimulator.cpp

; 598  : 				CString strDate = CDataConversion( m_hOcxWnd, m_eChartMode).GetStringFormatTrans( pRecordSet->m_Data[i] , pHeaderInfo->m_strPacketType);

  004b3	8b 8f 64 05 00
	00		 mov	 ecx, DWORD PTR [edi+1380]
; File D:\git\src\IBK\IBK_DRFN\ProjSrc\SrcChartEx\ChartAddIn\ChartDataListViewerAddIn\Include_Chart\Conversion.h

; 27   : 		{	m_hOcxWnd = p_hOcxWnd;	m_eChartMode = p_eChartMode;	}

  004b9	89 8d 08 ff ff
	ff		 mov	 DWORD PTR $T2[ebp+4], ecx
; File D:\git\src\IBK\IBK_DRFN\ProjSrc\SrcChartEx\ChartAddIn\ChartDataListViewerAddIn\ChartDataListViewerAddIn\DlgDataSimulator.cpp

; 598  : 				CString strDate = CDataConversion( m_hOcxWnd, m_eChartMode).GetStringFormatTrans( pRecordSet->m_Data[i] , pHeaderInfo->m_strPacketType);

  004bf	8d 8d 04 ff ff
	ff		 lea	 ecx, DWORD PTR $T2[ebp]
  004c5	8b 10		 mov	 edx, DWORD PTR [eax]
; File D:\git\src\IBK\IBK_DRFN\ProjSrc\SrcChartEx\ChartAddIn\ChartDataListViewerAddIn\Include_Chart\Conversion.h

; 27   : 		{	m_hOcxWnd = p_hOcxWnd;	m_eChartMode = p_eChartMode;	}

  004c7	8b 87 ac 00 00
	00		 mov	 eax, DWORD PTR [edi+172]
  004cd	89 85 04 ff ff
	ff		 mov	 DWORD PTR $T2[ebp], eax
; File D:\git\src\IBK\IBK_DRFN\ProjSrc\SrcChartEx\ChartAddIn\ChartDataListViewerAddIn\ChartDataListViewerAddIn\DlgDataSimulator.cpp

; 598  : 				CString strDate = CDataConversion( m_hOcxWnd, m_eChartMode).GetStringFormatTrans( pRecordSet->m_Data[i] , pHeaderInfo->m_strPacketType);

  004d3	8d 42 08	 lea	 eax, DWORD PTR [edx+8]
  004d6	50		 push	 eax
  004d7	ff b5 48 ff ff
	ff		 push	 DWORD PTR _pRecordSet$1$[ebp]
  004dd	8d 85 44 ff ff
	ff		 lea	 eax, DWORD PTR _strDate$5[ebp]
  004e3	50		 push	 eax
  004e4	e8 00 00 00 00	 call	 ?GetStringFormatTrans@CDataConversion@@QAE?AV?$CStringT@DV?$StrTraitMFC_DLL@DV?$ChTraitsCRT@D@ATL@@@@@ATL@@ABV23@0@Z ; CDataConversion::GetStringFormatTrans
; File C:\Program Files (x86)\Microsoft Visual Studio\2019\Community\VC\Tools\MSVC\14.29.30133\atlmfc\include\cstringt.h

; 2401 : 		CStringT strResult( str1.GetManager() );

  004e9	8d 8d 44 ff ff
	ff		 lea	 ecx, DWORD PTR _strDate$5[ebp]
; File D:\git\src\IBK\IBK_DRFN\ProjSrc\SrcChartEx\ChartAddIn\ChartDataListViewerAddIn\ChartDataListViewerAddIn\DlgDataSimulator.cpp

; 599  : 				szData += strDate + _T("\t");

  004ef	c6 45 fc 10	 mov	 BYTE PTR __$EHRec$[ebp+8], 16 ; 00000010H
; File C:\Program Files (x86)\Microsoft Visual Studio\2019\Community\VC\Tools\MSVC\14.29.30133\atlmfc\include\cstringt.h

; 2401 : 		CStringT strResult( str1.GetManager() );

  004f3	ff 15 00 00 00
	00		 call	 DWORD PTR __imp_?GetManager@?$CStringT@DV?$StrTraitMFC_DLL@DV?$ChTraitsCRT@D@ATL@@@@@ATL@@QBEPAUIAtlStringMgr@2@XZ
  004f9	50		 push	 eax
  004fa	8d 8d 58 ff ff
	ff		 lea	 ecx, DWORD PTR $T12[ebp]
  00500	ff 15 00 00 00
	00		 call	 DWORD PTR __imp_??0?$CStringT@DV?$StrTraitMFC_DLL@DV?$ChTraitsCRT@D@ATL@@@@@ATL@@QAE@PAUIAtlStringMgr@1@@Z
; File C:\Program Files (x86)\Microsoft Visual Studio\2019\Community\VC\Tools\MSVC\14.29.30133\atlmfc\include\atlsimpstr.h

; 519  : 		return( GetData()->nDataLength );

  00506	8b 85 44 ff ff
	ff		 mov	 eax, DWORD PTR _strDate$5[ebp]
; File C:\Program Files (x86)\Microsoft Visual Studio\2019\Community\VC\Tools\MSVC\14.29.30133\atlmfc\include\cstringt.h

; 2405 : 		return( strResult );

  0050c	83 cb 02	 or	 ebx, 2
  0050f	6a 01		 push	 1
  00511	68 00 00 00 00	 push	 OFFSET ??_C@_01GPOEFGEJ@?7@
  00516	89 9d 40 ff ff
	ff		 mov	 DWORD PTR $T3[ebp], ebx
  0051c	ff 70 f4	 push	 DWORD PTR [eax-12]
  0051f	50		 push	 eax
  00520	8d 85 58 ff ff
	ff		 lea	 eax, DWORD PTR $T12[ebp]
  00526	50		 push	 eax
  00527	ff 15 00 00 00
	00		 call	 DWORD PTR __imp_?Concatenate@?$CSimpleStringT@D$00@ATL@@KAXAAV12@PBDH1H@Z
  0052d	83 c4 14	 add	 esp, 20			; 00000014H
; File D:\git\src\IBK\IBK_DRFN\ProjSrc\SrcChartEx\ChartAddIn\ChartDataListViewerAddIn\ChartDataListViewerAddIn\DlgDataSimulator.cpp

; 599  : 				szData += strDate + _T("\t");

  00530	8d 85 58 ff ff
	ff		 lea	 eax, DWORD PTR $T12[ebp]
  00536	8d 8d 4c ff ff
	ff		 lea	 ecx, DWORD PTR _szData$[ebp]
  0053c	50		 push	 eax
  0053d	ff 15 00 00 00
	00		 call	 DWORD PTR __imp_??Y?$CStringT@DV?$StrTraitMFC_DLL@DV?$ChTraitsCRT@D@ATL@@@@@ATL@@QAEAAV01@ABV?$CSimpleStringT@D$00@1@@Z
  00543	8d 8d 58 ff ff
	ff		 lea	 ecx, DWORD PTR $T12[ebp]
  00549	83 e3 fd	 and	 ebx, -3			; fffffffdH
  0054c	ff 15 00 00 00
	00		 call	 DWORD PTR __imp_??1?$CStringT@DV?$StrTraitMFC_DLL@DV?$ChTraitsCRT@D@ATL@@@@@ATL@@QAE@XZ

; 600  : 			}

  00552	8d 8d 44 ff ff
	ff		 lea	 ecx, DWORD PTR _strDate$5[ebp]
  00558	c6 45 fc 0d	 mov	 BYTE PTR __$EHRec$[ebp+8], 13 ; 0000000dH
  0055c	ff 15 00 00 00
	00		 call	 DWORD PTR __imp_??1?$CStringT@DV?$StrTraitMFC_DLL@DV?$ChTraitsCRT@D@ATL@@@@@ATL@@QAE@XZ
  00562	eb 6e		 jmp	 SHORT $LN8@OnBtnExcel
$LN16@OnBtnExcel:

; 602  : 				szData += pRecordSet->m_Data[i] + _T("\t");

  00564	8d 3c b0	 lea	 edi, DWORD PTR [eax+esi*4]
; File C:\Program Files (x86)\Microsoft Visual Studio\2019\Community\VC\Tools\MSVC\14.29.30133\atlmfc\include\cstringt.h

; 2401 : 		CStringT strResult( str1.GetManager() );

  00567	8b cf		 mov	 ecx, edi
; File D:\git\src\IBK\IBK_DRFN\ProjSrc\SrcChartEx\ChartAddIn\ChartDataListViewerAddIn\ChartDataListViewerAddIn\DlgDataSimulator.cpp

; 602  : 				szData += pRecordSet->m_Data[i] + _T("\t");

  00569	c6 45 fc 11	 mov	 BYTE PTR __$EHRec$[ebp+8], 17 ; 00000011H
; File C:\Program Files (x86)\Microsoft Visual Studio\2019\Community\VC\Tools\MSVC\14.29.30133\atlmfc\include\cstringt.h

; 2401 : 		CStringT strResult( str1.GetManager() );

  0056d	ff 15 00 00 00
	00		 call	 DWORD PTR __imp_?GetManager@?$CStringT@DV?$StrTraitMFC_DLL@DV?$ChTraitsCRT@D@ATL@@@@@ATL@@QBEPAUIAtlStringMgr@2@XZ
  00573	50		 push	 eax
  00574	8d 8d 5c ff ff
	ff		 lea	 ecx, DWORD PTR $T17[ebp]
  0057a	ff 15 00 00 00
	00		 call	 DWORD PTR __imp_??0?$CStringT@DV?$StrTraitMFC_DLL@DV?$ChTraitsCRT@D@ATL@@@@@ATL@@QAE@PAUIAtlStringMgr@1@@Z
; File C:\Program Files (x86)\Microsoft Visual Studio\2019\Community\VC\Tools\MSVC\14.29.30133\atlmfc\include\atlsimpstr.h

; 519  : 		return( GetData()->nDataLength );

  00580	8b 07		 mov	 eax, DWORD PTR [edi]
; File C:\Program Files (x86)\Microsoft Visual Studio\2019\Community\VC\Tools\MSVC\14.29.30133\atlmfc\include\cstringt.h

; 2405 : 		return( strResult );

  00582	83 cb 04	 or	 ebx, 4
  00585	6a 01		 push	 1
  00587	68 00 00 00 00	 push	 OFFSET ??_C@_01GPOEFGEJ@?7@
  0058c	89 9d 40 ff ff
	ff		 mov	 DWORD PTR $T3[ebp], ebx
  00592	ff 70 f4	 push	 DWORD PTR [eax-12]
  00595	50		 push	 eax
  00596	8d 85 5c ff ff
	ff		 lea	 eax, DWORD PTR $T17[ebp]
  0059c	50		 push	 eax
  0059d	ff 15 00 00 00
	00		 call	 DWORD PTR __imp_?Concatenate@?$CSimpleStringT@D$00@ATL@@KAXAAV12@PBDH1H@Z
  005a3	83 c4 14	 add	 esp, 20			; 00000014H
; File D:\git\src\IBK\IBK_DRFN\ProjSrc\SrcChartEx\ChartAddIn\ChartDataListViewerAddIn\ChartDataListViewerAddIn\DlgDataSimulator.cpp

; 602  : 				szData += pRecordSet->m_Data[i] + _T("\t");

  005a6	8d 85 5c ff ff
	ff		 lea	 eax, DWORD PTR $T17[ebp]
  005ac	8d 8d 4c ff ff
	ff		 lea	 ecx, DWORD PTR _szData$[ebp]
  005b2	50		 push	 eax
  005b3	ff 15 00 00 00
	00		 call	 DWORD PTR __imp_??Y?$CStringT@DV?$StrTraitMFC_DLL@DV?$ChTraitsCRT@D@ATL@@@@@ATL@@QAEAAV01@ABV?$CSimpleStringT@D$00@1@@Z
  005b9	8d 8d 5c ff ff
	ff		 lea	 ecx, DWORD PTR $T17[ebp]
  005bf	c6 45 fc 0d	 mov	 BYTE PTR __$EHRec$[ebp+8], 13 ; 0000000dH
  005c3	83 e3 fb	 and	 ebx, -5			; fffffffbH
  005c6	ff 15 00 00 00
	00		 call	 DWORD PTR __imp_??1?$CStringT@DV?$StrTraitMFC_DLL@DV?$ChTraitsCRT@D@ATL@@@@@ATL@@QAE@XZ
  005cc	8b bd 28 ff ff
	ff		 mov	 edi, DWORD PTR _this$GSCopy$1$[ebp]
$LN8@OnBtnExcel:

; 592  : 
; 593  : 		for( i = 0 ; i < nCols && i < COL_SIZE ; i++ )

  005d2	8b 85 48 ff ff
	ff		 mov	 eax, DWORD PTR _pRecordSet$1$[ebp]
  005d8	46		 inc	 esi
  005d9	3b b5 50 ff ff
	ff		 cmp	 esi, DWORD PTR _nCols$1$[ebp]
  005df	0f 8c ab fe ff
	ff		 jl	 $LL10@OnBtnExcel
$LN9@OnBtnExcel:

; 603  : 		}
; 604  : 		szData += _T("\r\n");

  005e5	68 00 00 00 00	 push	 OFFSET ??_C@_02PCIJFNDE@?$AN?6@
  005ea	8d 8d 4c ff ff
	ff		 lea	 ecx, DWORD PTR _szData$[ebp]
  005f0	ff 15 00 00 00
	00		 call	 DWORD PTR __imp_??Y?$CStringT@DV?$StrTraitMFC_DLL@DV?$ChTraitsCRT@D@ATL@@@@@ATL@@QAEAAV01@PBD@Z
  005f6	8b 8d 30 ff ff
	ff		 mov	 ecx, DWORD PTR _pos$1$[ebp]
  005fc	85 c9		 test	 ecx, ecx
  005fe	0f 85 6c fe ff
	ff		 jne	 $LL5@OnBtnExcel
$LN244@OnBtnExcel:
; File C:\Program Files (x86)\Microsoft Visual Studio\2019\Community\VC\Tools\MSVC\14.29.30133\atlmfc\include\atlsimpstr.h

; 519  : 		return( GetData()->nDataLength );

  00604	8b 85 4c ff ff
	ff		 mov	 eax, DWORD PTR _szData$[ebp]
; File D:\git\src\IBK\IBK_DRFN\ProjSrc\SrcChartEx\ChartAddIn\ChartDataListViewerAddIn\ChartDataListViewerAddIn\DlgDataSimulator.cpp

; 606  : 	file.Write(szData, szData.GetLength());

  0060a	8d 8d f0 fe ff
	ff		 lea	 ecx, DWORD PTR _file$[ebp]
  00610	ff 70 f4	 push	 DWORD PTR [eax-12]
  00613	50		 push	 eax
  00614	e8 00 00 00 00	 call	 ?Write@CFile@@UAEXPBXI@Z ; CFile::Write

; 607  : 
; 608  : 	file.Close();

  00619	8d 8d f0 fe ff
	ff		 lea	 ecx, DWORD PTR _file$[ebp]
  0061f	e8 00 00 00 00	 call	 ?Close@CFile@@UAEXXZ	; CFile::Close
; File C:\Program Files (x86)\Microsoft Visual Studio\2019\Community\VC\Tools\MSVC\14.29.30133\atlmfc\include\cstringt.h

; 2401 : 		CStringT strResult( str1.GetManager() );

  00624	8d 8d 54 ff ff
	ff		 lea	 ecx, DWORD PTR _szExcel$[ebp]
; File D:\git\src\IBK\IBK_DRFN\ProjSrc\SrcChartEx\ChartAddIn\ChartDataListViewerAddIn\ChartDataListViewerAddIn\DlgDataSimulator.cpp

; 612  : 	szExcel = szExcel + " \"" + szFilePath + "\"";	

  0062a	c6 45 fc 12	 mov	 BYTE PTR __$EHRec$[ebp+8], 18 ; 00000012H
; File C:\Program Files (x86)\Microsoft Visual Studio\2019\Community\VC\Tools\MSVC\14.29.30133\atlmfc\include\cstringt.h

; 2401 : 		CStringT strResult( str1.GetManager() );

  0062e	ff 15 00 00 00
	00		 call	 DWORD PTR __imp_?GetManager@?$CStringT@DV?$StrTraitMFC_DLL@DV?$ChTraitsCRT@D@ATL@@@@@ATL@@QBEPAUIAtlStringMgr@2@XZ
  00634	50		 push	 eax
  00635	8d 8d 58 ff ff
	ff		 lea	 ecx, DWORD PTR $T11[ebp]
  0063b	ff 15 00 00 00
	00		 call	 DWORD PTR __imp_??0?$CStringT@DV?$StrTraitMFC_DLL@DV?$ChTraitsCRT@D@ATL@@@@@ATL@@QAE@PAUIAtlStringMgr@1@@Z
; File C:\Program Files (x86)\Microsoft Visual Studio\2019\Community\VC\Tools\MSVC\14.29.30133\atlmfc\include\atlsimpstr.h

; 519  : 		return( GetData()->nDataLength );

  00641	8b 85 54 ff ff
	ff		 mov	 eax, DWORD PTR _szExcel$[ebp]
; File C:\Program Files (x86)\Microsoft Visual Studio\2019\Community\VC\Tools\MSVC\14.29.30133\atlmfc\include\cstringt.h

; 2405 : 		return( strResult );

  00647	83 cb 08	 or	 ebx, 8
  0064a	6a 02		 push	 2
  0064c	68 00 00 00 00	 push	 OFFSET ??_C@_02JPEBCGCN@?5?$CC@
  00651	89 9d 40 ff ff
	ff		 mov	 DWORD PTR $T3[ebp], ebx
  00657	ff 70 f4	 push	 DWORD PTR [eax-12]
  0065a	50		 push	 eax
  0065b	8d 85 58 ff ff
	ff		 lea	 eax, DWORD PTR $T11[ebp]
  00661	50		 push	 eax
  00662	ff 15 00 00 00
	00		 call	 DWORD PTR __imp_?Concatenate@?$CSimpleStringT@D$00@ATL@@KAXAAV12@PBDH1H@Z
  00668	83 c4 14	 add	 esp, 20			; 00000014H

; 2390 : 		CStringT strResult( str1.GetManager() );

  0066b	8d 8d 58 ff ff
	ff		 lea	 ecx, DWORD PTR $T11[ebp]
; File D:\git\src\IBK\IBK_DRFN\ProjSrc\SrcChartEx\ChartAddIn\ChartDataListViewerAddIn\ChartDataListViewerAddIn\DlgDataSimulator.cpp

; 612  : 	szExcel = szExcel + " \"" + szFilePath + "\"";	

  00671	c6 45 fc 13	 mov	 BYTE PTR __$EHRec$[ebp+8], 19 ; 00000013H
; File C:\Program Files (x86)\Microsoft Visual Studio\2019\Community\VC\Tools\MSVC\14.29.30133\atlmfc\include\cstringt.h

; 2390 : 		CStringT strResult( str1.GetManager() );

  00675	ff 15 00 00 00
	00		 call	 DWORD PTR __imp_?GetManager@?$CStringT@DV?$StrTraitMFC_DLL@DV?$ChTraitsCRT@D@ATL@@@@@ATL@@QBEPAUIAtlStringMgr@2@XZ
  0067b	50		 push	 eax
  0067c	8d 8d 50 ff ff
	ff		 lea	 ecx, DWORD PTR $T9[ebp]
  00682	ff 15 00 00 00
	00		 call	 DWORD PTR __imp_??0?$CStringT@DV?$StrTraitMFC_DLL@DV?$ChTraitsCRT@D@ATL@@@@@ATL@@QAE@PAUIAtlStringMgr@1@@Z
; File C:\Program Files (x86)\Microsoft Visual Studio\2019\Community\VC\Tools\MSVC\14.29.30133\atlmfc\include\atlsimpstr.h

; 519  : 		return( GetData()->nDataLength );

  00688	8b 85 3c ff ff
	ff		 mov	 eax, DWORD PTR _szFilePath$[ebp]
; File C:\Program Files (x86)\Microsoft Visual Studio\2019\Community\VC\Tools\MSVC\14.29.30133\atlmfc\include\cstringt.h

; 2394 : 		return( strResult );

  0068e	83 cb 10	 or	 ebx, 16			; 00000010H
; File C:\Program Files (x86)\Microsoft Visual Studio\2019\Community\VC\Tools\MSVC\14.29.30133\atlmfc\include\atlsimpstr.h

; 519  : 		return( GetData()->nDataLength );

  00691	8b 8d 58 ff ff
	ff		 mov	 ecx, DWORD PTR $T11[ebp]
; File C:\Program Files (x86)\Microsoft Visual Studio\2019\Community\VC\Tools\MSVC\14.29.30133\atlmfc\include\cstringt.h

; 2394 : 		return( strResult );

  00697	89 9d 40 ff ff
	ff		 mov	 DWORD PTR $T3[ebp], ebx
  0069d	ff 70 f4	 push	 DWORD PTR [eax-12]
  006a0	50		 push	 eax
  006a1	ff 71 f4	 push	 DWORD PTR [ecx-12]
  006a4	8d 85 50 ff ff
	ff		 lea	 eax, DWORD PTR $T9[ebp]
  006aa	51		 push	 ecx
  006ab	50		 push	 eax
  006ac	ff 15 00 00 00
	00		 call	 DWORD PTR __imp_?Concatenate@?$CSimpleStringT@D$00@ATL@@KAXAAV12@PBDH1H@Z
  006b2	83 c4 14	 add	 esp, 20			; 00000014H

; 2401 : 		CStringT strResult( str1.GetManager() );

  006b5	8d 8d 50 ff ff
	ff		 lea	 ecx, DWORD PTR $T9[ebp]
; File D:\git\src\IBK\IBK_DRFN\ProjSrc\SrcChartEx\ChartAddIn\ChartDataListViewerAddIn\ChartDataListViewerAddIn\DlgDataSimulator.cpp

; 612  : 	szExcel = szExcel + " \"" + szFilePath + "\"";	

  006bb	c6 45 fc 14	 mov	 BYTE PTR __$EHRec$[ebp+8], 20 ; 00000014H
; File C:\Program Files (x86)\Microsoft Visual Studio\2019\Community\VC\Tools\MSVC\14.29.30133\atlmfc\include\cstringt.h

; 2401 : 		CStringT strResult( str1.GetManager() );

  006bf	ff 15 00 00 00
	00		 call	 DWORD PTR __imp_?GetManager@?$CStringT@DV?$StrTraitMFC_DLL@DV?$ChTraitsCRT@D@ATL@@@@@ATL@@QBEPAUIAtlStringMgr@2@XZ
  006c5	50		 push	 eax
  006c6	8d 8d 5c ff ff
	ff		 lea	 ecx, DWORD PTR $T16[ebp]
  006cc	ff 15 00 00 00
	00		 call	 DWORD PTR __imp_??0?$CStringT@DV?$StrTraitMFC_DLL@DV?$ChTraitsCRT@D@ATL@@@@@ATL@@QAE@PAUIAtlStringMgr@1@@Z
; File C:\Program Files (x86)\Microsoft Visual Studio\2019\Community\VC\Tools\MSVC\14.29.30133\atlmfc\include\atlsimpstr.h

; 519  : 		return( GetData()->nDataLength );

  006d2	8b 85 50 ff ff
	ff		 mov	 eax, DWORD PTR $T9[ebp]
; File C:\Program Files (x86)\Microsoft Visual Studio\2019\Community\VC\Tools\MSVC\14.29.30133\atlmfc\include\cstringt.h

; 2405 : 		return( strResult );

  006d8	83 cb 20	 or	 ebx, 32			; 00000020H
  006db	6a 01		 push	 1
  006dd	68 00 00 00 00	 push	 OFFSET ??_C@_01BJJEKLCA@?$CC@
  006e2	89 9d 40 ff ff
	ff		 mov	 DWORD PTR $T3[ebp], ebx
  006e8	ff 70 f4	 push	 DWORD PTR [eax-12]
  006eb	50		 push	 eax
  006ec	8d 85 5c ff ff
	ff		 lea	 eax, DWORD PTR $T16[ebp]
  006f2	50		 push	 eax
  006f3	ff 15 00 00 00
	00		 call	 DWORD PTR __imp_?Concatenate@?$CSimpleStringT@D$00@ATL@@KAXAAV12@PBDH1H@Z
  006f9	83 c4 14	 add	 esp, 20			; 00000014H
; File D:\git\src\IBK\IBK_DRFN\ProjSrc\SrcChartEx\ChartAddIn\ChartDataListViewerAddIn\ChartDataListViewerAddIn\DlgDataSimulator.cpp

; 612  : 	szExcel = szExcel + " \"" + szFilePath + "\"";	

  006fc	8d 85 5c ff ff
	ff		 lea	 eax, DWORD PTR $T16[ebp]
  00702	8d 8d 54 ff ff
	ff		 lea	 ecx, DWORD PTR _szExcel$[ebp]
  00708	50		 push	 eax
  00709	ff 15 00 00 00
	00		 call	 DWORD PTR __imp_??4?$CStringT@DV?$StrTraitMFC_DLL@DV?$ChTraitsCRT@D@ATL@@@@@ATL@@QAEAAV01@ABV01@@Z
  0070f	8d 8d 5c ff ff
	ff		 lea	 ecx, DWORD PTR $T16[ebp]
  00715	ff 15 00 00 00
	00		 call	 DWORD PTR __imp_??1?$CStringT@DV?$StrTraitMFC_DLL@DV?$ChTraitsCRT@D@ATL@@@@@ATL@@QAE@XZ
  0071b	8d 8d 50 ff ff
	ff		 lea	 ecx, DWORD PTR $T9[ebp]
  00721	ff 15 00 00 00
	00		 call	 DWORD PTR __imp_??1?$CStringT@DV?$StrTraitMFC_DLL@DV?$ChTraitsCRT@D@ATL@@@@@ATL@@QAE@XZ
  00727	8d 8d 58 ff ff
	ff		 lea	 ecx, DWORD PTR $T11[ebp]
  0072d	c6 45 fc 0d	 mov	 BYTE PTR __$EHRec$[ebp+8], 13 ; 0000000dH
  00731	ff 15 00 00 00
	00		 call	 DWORD PTR __imp_??1?$CStringT@DV?$StrTraitMFC_DLL@DV?$ChTraitsCRT@D@ATL@@@@@ATL@@QAE@XZ

; 613  : 
; 614  : 	ML_SET_LANGUAGE_RES();

  00737	e8 00 00 00 00	 call	 ?AfxGetStaticModuleState@@YGPAVAFX_MODULE_STATE@@XZ ; AfxGetStaticModuleState
  0073c	b9 00 00 00 00	 mov	 ecx, OFFSET ?g_iMetaTable@@3VIMetaTable@@A ; g_iMetaTable
  00741	8b 40 08	 mov	 eax, DWORD PTR [eax+8]
  00744	50		 push	 eax
  00745	ff b7 ac 00 00
	00		 push	 DWORD PTR [edi+172]
  0074b	e8 00 00 00 00	 call	 ?LoadResourceDLL@IMetaTable@@QAEPAUHINSTANCE__@@PAUHWND__@@PAU2@@Z ; IMetaTable::LoadResourceDLL
  00750	8b f8		 mov	 edi, eax
; File C:\Program Files (x86)\Microsoft Visual Studio\2019\Community\VC\Tools\MSVC\14.29.30133\atlmfc\include\afxwin1.inl

; 25   : 		return afxCurrentResourceHandle; }

  00752	e8 00 00 00 00	 call	 ?AfxGetModuleState@@YGPAVAFX_MODULE_STATE@@XZ ; AfxGetModuleState
; File D:\git\src\IBK\IBK_DRFN\ProjSrc\SrcChartEx\ChartAddIn\ChartDataListViewerAddIn\Include_Chart\DLL_Load\IMetaTable.h

; 1032 : 		m_hInstance = AfxGetResourceHandle();

  00757	8b 70 0c	 mov	 esi, DWORD PTR [eax+12]
  0075a	89 b5 30 ff ff
	ff		 mov	 DWORD PTR ___mlrs__$[ebp], esi
; File C:\Program Files (x86)\Microsoft Visual Studio\2019\Community\VC\Tools\MSVC\14.29.30133\atlmfc\include\afxwin1.inl

; 27   : 	{ ASSERT(hInstResource != NULL); afxCurrentResourceHandle = hInstResource; }

  00760	e8 00 00 00 00	 call	 ?AfxGetModuleState@@YGPAVAFX_MODULE_STATE@@XZ ; AfxGetModuleState
  00765	89 78 0c	 mov	 DWORD PTR [eax+12], edi
; File D:\git\src\IBK\IBK_DRFN\ProjSrc\SrcChartEx\ChartAddIn\ChartDataListViewerAddIn\ChartDataListViewerAddIn\DlgDataSimulator.cpp

; 615  : 	CString strFormat;

  00768	8d 8d 24 ff ff
	ff		 lea	 ecx, DWORD PTR _strFormat$[ebp]
  0076e	ff 15 00 00 00
	00		 call	 DWORD PTR __imp_??0?$CStringT@DV?$StrTraitMFC_DLL@DV?$ChTraitsCRT@D@ATL@@@@@ATL@@QAE@XZ

; 616  : 	if(bExcelRun)
; 617  : 	{
; 618  : 		if(::WinExec((LPCTSTR)szExcel, SW_SHOW) > 31)

  00774	6a 05		 push	 5
  00776	ff b5 54 ff ff
	ff		 push	 DWORD PTR _szExcel$[ebp]
  0077c	ff 15 00 00 00
	00		 call	 DWORD PTR __imp__WinExec@8
  00782	83 f8 1f	 cmp	 eax, 31			; 0000001fH
  00785	77 6d		 ja	 SHORT $LN19@OnBtnExcel

; 619  : 			return;
; 620  : 		else	
; 621  : 		{
; 622  : 			CString szMsg, strFormat;

  00787	8d 8d 44 ff ff
	ff		 lea	 ecx, DWORD PTR _szMsg$4[ebp]
  0078d	ff 15 00 00 00
	00		 call	 DWORD PTR __imp_??0?$CStringT@DV?$StrTraitMFC_DLL@DV?$ChTraitsCRT@D@ATL@@@@@ATL@@QAE@XZ
  00793	8d 8d 5c ff ff
	ff		 lea	 ecx, DWORD PTR _strFormat$15[ebp]
  00799	ff 15 00 00 00
	00		 call	 DWORD PTR __imp_??0?$CStringT@DV?$StrTraitMFC_DLL@DV?$ChTraitsCRT@D@ATL@@@@@ATL@@QAE@XZ

; 623  : 			strFormat.LoadString( IDS_MSG_FILE_SAVE);

  0079f	6a 10		 push	 16			; 00000010H
  007a1	8d 8d 5c ff ff
	ff		 lea	 ecx, DWORD PTR _strFormat$15[ebp]
  007a7	c6 45 fc 19	 mov	 BYTE PTR __$EHRec$[ebp+8], 25 ; 00000019H
  007ab	ff 15 00 00 00
	00		 call	 DWORD PTR __imp_?LoadStringA@?$CStringT@DV?$StrTraitMFC_DLL@DV?$ChTraitsCRT@D@ATL@@@@@ATL@@QAEHI@Z

; 624  : 			szMsg.Format( strFormat, szFilePath);

  007b1	ff b5 3c ff ff
	ff		 push	 DWORD PTR _szFilePath$[ebp]
  007b7	8d 85 44 ff ff
	ff		 lea	 eax, DWORD PTR _szMsg$4[ebp]
  007bd	ff b5 5c ff ff
	ff		 push	 DWORD PTR _strFormat$15[ebp]
  007c3	50		 push	 eax
  007c4	ff 15 00 00 00
	00		 call	 DWORD PTR __imp_?Format@?$CStringT@DV?$StrTraitMFC_DLL@DV?$ChTraitsCRT@D@ATL@@@@@ATL@@QAAXPBDZZ
  007ca	83 c4 0c	 add	 esp, 12			; 0000000cH

; 625  : 			AfxMessageBox(szMsg); 

  007cd	6a 00		 push	 0
  007cf	6a 00		 push	 0
  007d1	ff b5 44 ff ff
	ff		 push	 DWORD PTR _szMsg$4[ebp]
  007d7	e8 00 00 00 00	 call	 ?AfxMessageBox@@YGHPBDII@Z ; AfxMessageBox

; 626  : 			return;

  007dc	8d 8d 5c ff ff
	ff		 lea	 ecx, DWORD PTR _strFormat$15[ebp]
  007e2	ff 15 00 00 00
	00		 call	 DWORD PTR __imp_??1?$CStringT@DV?$StrTraitMFC_DLL@DV?$ChTraitsCRT@D@ATL@@@@@ATL@@QAE@XZ
  007e8	8d 8d 44 ff ff
	ff		 lea	 ecx, DWORD PTR _szMsg$4[ebp]
  007ee	ff 15 00 00 00
	00		 call	 DWORD PTR __imp_??1?$CStringT@DV?$StrTraitMFC_DLL@DV?$ChTraitsCRT@D@ATL@@@@@ATL@@QAE@XZ
$LN19@OnBtnExcel:

; 638  : }

  007f4	8d 8d 24 ff ff
	ff		 lea	 ecx, DWORD PTR _strFormat$[ebp]
  007fa	ff 15 00 00 00
	00		 call	 DWORD PTR __imp_??1?$CStringT@DV?$StrTraitMFC_DLL@DV?$ChTraitsCRT@D@ATL@@@@@ATL@@QAE@XZ
; File D:\git\src\IBK\IBK_DRFN\ProjSrc\SrcChartEx\ChartAddIn\ChartDataListViewerAddIn\Include_Chart\DLL_Load\IMetaTable.h

; 1036 : 	{

  00800	c6 45 fc 1f	 mov	 BYTE PTR __$EHRec$[ebp+8], 31 ; 0000001fH
; File C:\Program Files (x86)\Microsoft Visual Studio\2019\Community\VC\Tools\MSVC\14.29.30133\atlmfc\include\afxwin1.inl

; 27   : 	{ ASSERT(hInstResource != NULL); afxCurrentResourceHandle = hInstResource; }

  00804	e8 00 00 00 00	 call	 ?AfxGetModuleState@@YGPAVAFX_MODULE_STATE@@XZ ; AfxGetModuleState
; File D:\git\src\IBK\IBK_DRFN\ProjSrc\SrcChartEx\ChartAddIn\ChartDataListViewerAddIn\ChartDataListViewerAddIn\DlgDataSimulator.cpp

; 638  : }

  00809	8d 8d 20 ff ff
	ff		 lea	 ecx, DWORD PTR _szTmp$[ebp]
; File C:\Program Files (x86)\Microsoft Visual Studio\2019\Community\VC\Tools\MSVC\14.29.30133\atlmfc\include\afxwin1.inl

; 27   : 	{ ASSERT(hInstResource != NULL); afxCurrentResourceHandle = hInstResource; }

  0080f	89 70 0c	 mov	 DWORD PTR [eax+12], esi
; File D:\git\src\IBK\IBK_DRFN\ProjSrc\SrcChartEx\ChartAddIn\ChartDataListViewerAddIn\ChartDataListViewerAddIn\DlgDataSimulator.cpp

; 638  : }

  00812	ff 15 00 00 00
	00		 call	 DWORD PTR __imp_??1?$CStringT@DV?$StrTraitMFC_DLL@DV?$ChTraitsCRT@D@ATL@@@@@ATL@@QAE@XZ
  00818	8d 8d 4c ff ff
	ff		 lea	 ecx, DWORD PTR _szData$[ebp]
$LN247@OnBtnExcel:
; File C:\Program Files (x86)\Microsoft Visual Studio\2019\Community\VC\Tools\MSVC\14.29.30133\atlmfc\include\afx.inl

; 170  : 	{ }

  0081e	ff 15 00 00 00
	00		 call	 DWORD PTR __imp_??1?$CStringT@DV?$StrTraitMFC_DLL@DV?$ChTraitsCRT@D@ATL@@@@@ATL@@QAE@XZ
  00824	8d 8d 1c ff ff
	ff		 lea	 ecx, DWORD PTR _e$[ebp+16]
  0082a	c7 85 0c ff ff
	ff 00 00 00 00	 mov	 DWORD PTR _e$[ebp], OFFSET ??_7CFileException@@6B@
  00834	ff 15 00 00 00
	00		 call	 DWORD PTR __imp_??1?$CStringT@DV?$StrTraitMFC_DLL@DV?$ChTraitsCRT@D@ATL@@@@@ATL@@QAE@XZ
; File D:\git\src\IBK\IBK_DRFN\ProjSrc\SrcChartEx\ChartAddIn\ChartDataListViewerAddIn\ChartDataListViewerAddIn\DlgDataSimulator.cpp

; 638  : }

  0083a	8d 8d f0 fe ff
	ff		 lea	 ecx, DWORD PTR _file$[ebp]
  00840	e8 00 00 00 00	 call	 ??1CFile@@UAE@XZ	; CFile::~CFile
  00845	8d 8d 34 ff ff
	ff		 lea	 ecx, DWORD PTR _strKey$[ebp]
  0084b	ff 15 00 00 00
	00		 call	 DWORD PTR __imp_??1?$CStringT@DV?$StrTraitMFC_DLL@DV?$ChTraitsCRT@D@ATL@@@@@ATL@@QAE@XZ
  00851	8d 8d 54 ff ff
	ff		 lea	 ecx, DWORD PTR _szExcel$[ebp]
  00857	ff 15 00 00 00
	00		 call	 DWORD PTR __imp_??1?$CStringT@DV?$StrTraitMFC_DLL@DV?$ChTraitsCRT@D@ATL@@@@@ATL@@QAE@XZ
  0085d	8d 8d 3c ff ff
	ff		 lea	 ecx, DWORD PTR _szFilePath$[ebp]
  00863	ff 15 00 00 00
	00		 call	 DWORD PTR __imp_??1?$CStringT@DV?$StrTraitMFC_DLL@DV?$ChTraitsCRT@D@ATL@@@@@ATL@@QAE@XZ
  00869	8b 4d f4	 mov	 ecx, DWORD PTR __$EHRec$[ebp]
  0086c	64 89 0d 00 00
	00 00		 mov	 DWORD PTR fs:0, ecx
  00873	59		 pop	 ecx
  00874	5f		 pop	 edi
  00875	5e		 pop	 esi
  00876	5b		 pop	 ebx
  00877	8b 4d f0	 mov	 ecx, DWORD PTR __$ArrayPad$[ebp]
  0087a	33 cd		 xor	 ecx, ebp
  0087c	e8 00 00 00 00	 call	 @__security_check_cookie@4
  00881	8b e5		 mov	 esp, ebp
  00883	5d		 pop	 ebp
  00884	c3		 ret	 0
$LN73@OnBtnExcel:
  00885	e8 00 00 00 00	 call	 ?AfxThrowInvalidArgException@@YGXXZ ; AfxThrowInvalidArgException
$LN246@OnBtnExcel:
  0088a	cc		 int	 3
_TEXT	ENDS
;	COMDAT text$x
text$x	SEGMENT
__unwindfunclet$?OnBtnExcelExport@CDlgDataSimulator@@IAEXXZ$0:
  00000	8d 8d 3c ff ff
	ff		 lea	 ecx, DWORD PTR _szFilePath$[ebp]
  00006	ff 25 00 00 00
	00		 jmp	 DWORD PTR __imp_??1?$CStringT@DV?$StrTraitMFC_DLL@DV?$ChTraitsCRT@D@ATL@@@@@ATL@@QAE@XZ
__unwindfunclet$?OnBtnExcelExport@CDlgDataSimulator@@IAEXXZ$1:
  0000c	8d 8d 54 ff ff
	ff		 lea	 ecx, DWORD PTR _szExcel$[ebp]
  00012	ff 25 00 00 00
	00		 jmp	 DWORD PTR __imp_??1?$CStringT@DV?$StrTraitMFC_DLL@DV?$ChTraitsCRT@D@ATL@@@@@ATL@@QAE@XZ
__unwindfunclet$?OnBtnExcelExport@CDlgDataSimulator@@IAEXXZ$2:
  00018	8d 8d 34 ff ff
	ff		 lea	 ecx, DWORD PTR _strKey$[ebp]
  0001e	ff 25 00 00 00
	00		 jmp	 DWORD PTR __imp_??1?$CStringT@DV?$StrTraitMFC_DLL@DV?$ChTraitsCRT@D@ATL@@@@@ATL@@QAE@XZ
__unwindfunclet$?OnBtnExcelExport@CDlgDataSimulator@@IAEXXZ$3:
  00024	8d 8d 5c ff ff
	ff		 lea	 ecx, DWORD PTR _str$18[ebp]
  0002a	ff 25 00 00 00
	00		 jmp	 DWORD PTR __imp_??1?$CStringT@DV?$StrTraitMFC_DLL@DV?$ChTraitsCRT@D@ATL@@@@@ATL@@QAE@XZ
__unwindfunclet$?OnBtnExcelExport@CDlgDataSimulator@@IAEXXZ$4:
  00030	8d 8d 48 ff ff
	ff		 lea	 ecx, DWORD PTR $T8[ebp]
  00036	ff 25 00 00 00
	00		 jmp	 DWORD PTR __imp_??1?$CStringT@DV?$StrTraitMFC_DLL@DV?$ChTraitsCRT@D@ATL@@@@@ATL@@QAE@XZ
__unwindfunclet$?OnBtnExcelExport@CDlgDataSimulator@@IAEXXZ$5:
  0003c	8d 8d 48 ff ff
	ff		 lea	 ecx, DWORD PTR $T7[ebp]
  00042	ff 25 00 00 00
	00		 jmp	 DWORD PTR __imp_??1?$CStringT@DV?$StrTraitMFC_DLL@DV?$ChTraitsCRT@D@ATL@@@@@ATL@@QAE@XZ
__unwindfunclet$?OnBtnExcelExport@CDlgDataSimulator@@IAEXXZ$6:
  00048	8d 8d 48 ff ff
	ff		 lea	 ecx, DWORD PTR $T6[ebp]
  0004e	ff 25 00 00 00
	00		 jmp	 DWORD PTR __imp_??1?$CStringT@DV?$StrTraitMFC_DLL@DV?$ChTraitsCRT@D@ATL@@@@@ATL@@QAE@XZ
__unwindfunclet$?OnBtnExcelExport@CDlgDataSimulator@@IAEXXZ$7:
  00054	8d 8d f0 fe ff
	ff		 lea	 ecx, DWORD PTR _file$[ebp]
  0005a	e9 00 00 00 00	 jmp	 ??1CFile@@UAE@XZ	; CFile::~CFile
__unwindfunclet$?OnBtnExcelExport@CDlgDataSimulator@@IAEXXZ$26:
  0005f	8d 8d 1c ff ff
	ff		 lea	 ecx, DWORD PTR _e$[ebp+16]
  00065	ff 25 00 00 00
	00		 jmp	 DWORD PTR __imp_??1?$CStringT@DV?$StrTraitMFC_DLL@DV?$ChTraitsCRT@D@ATL@@@@@ATL@@QAE@XZ
__unwindfunclet$?OnBtnExcelExport@CDlgDataSimulator@@IAEXXZ$8:
  0006b	8d 8d 0c ff ff
	ff		 lea	 ecx, DWORD PTR _e$[ebp]
  00071	e9 00 00 00 00	 jmp	 ??1CFileException@@UAE@XZ ; CFileException::~CFileException
__unwindfunclet$?OnBtnExcelExport@CDlgDataSimulator@@IAEXXZ$9:
  00076	8d 8d 50 ff ff
	ff		 lea	 ecx, DWORD PTR _strMsg$10[ebp]
  0007c	ff 25 00 00 00
	00		 jmp	 DWORD PTR __imp_??1?$CStringT@DV?$StrTraitMFC_DLL@DV?$ChTraitsCRT@D@ATL@@@@@ATL@@QAE@XZ
__unwindfunclet$?OnBtnExcelExport@CDlgDataSimulator@@IAEXXZ$10:
  00082	8d 8d 58 ff ff
	ff		 lea	 ecx, DWORD PTR _strDlgTitle$14[ebp]
  00088	ff 25 00 00 00
	00		 jmp	 DWORD PTR __imp_??1?$CStringT@DV?$StrTraitMFC_DLL@DV?$ChTraitsCRT@D@ATL@@@@@ATL@@QAE@XZ
__unwindfunclet$?OnBtnExcelExport@CDlgDataSimulator@@IAEXXZ$11:
  0008e	8d 8d 4c ff ff
	ff		 lea	 ecx, DWORD PTR _szData$[ebp]
  00094	ff 25 00 00 00
	00		 jmp	 DWORD PTR __imp_??1?$CStringT@DV?$StrTraitMFC_DLL@DV?$ChTraitsCRT@D@ATL@@@@@ATL@@QAE@XZ
__unwindfunclet$?OnBtnExcelExport@CDlgDataSimulator@@IAEXXZ$12:
  0009a	8d 8d 20 ff ff
	ff		 lea	 ecx, DWORD PTR _szTmp$[ebp]
  000a0	ff 25 00 00 00
	00		 jmp	 DWORD PTR __imp_??1?$CStringT@DV?$StrTraitMFC_DLL@DV?$ChTraitsCRT@D@ATL@@@@@ATL@@QAE@XZ
__unwindfunclet$?OnBtnExcelExport@CDlgDataSimulator@@IAEXXZ$28:
  000a6	8b 85 40 ff ff
	ff		 mov	 eax, DWORD PTR $T3[ebp]
  000ac	83 e0 01	 and	 eax, 1
  000af	0f 84 13 00 00
	00		 je	 $LN79@OnBtnExcel
  000b5	83 a5 40 ff ff
	ff fe		 and	 DWORD PTR $T3[ebp], -2	; fffffffeH
  000bc	8d 8d 58 ff ff
	ff		 lea	 ecx, DWORD PTR $T13[ebp]
  000c2	ff 25 00 00 00
	00		 jmp	 DWORD PTR __imp_??1?$CStringT@DV?$StrTraitMFC_DLL@DV?$ChTraitsCRT@D@ATL@@@@@ATL@@QAE@XZ
$LN79@OnBtnExcel:
  000c8	c3		 ret	 0
__unwindfunclet$?OnBtnExcelExport@CDlgDataSimulator@@IAEXXZ$14:
  000c9	8d 8d 44 ff ff
	ff		 lea	 ecx, DWORD PTR _strDate$5[ebp]
  000cf	ff 25 00 00 00
	00		 jmp	 DWORD PTR __imp_??1?$CStringT@DV?$StrTraitMFC_DLL@DV?$ChTraitsCRT@D@ATL@@@@@ATL@@QAE@XZ
__unwindfunclet$?OnBtnExcelExport@CDlgDataSimulator@@IAEXXZ$29:
  000d5	8b 85 40 ff ff
	ff		 mov	 eax, DWORD PTR $T3[ebp]
  000db	83 e0 02	 and	 eax, 2
  000de	0f 84 13 00 00
	00		 je	 $LN105@OnBtnExcel
  000e4	83 a5 40 ff ff
	ff fd		 and	 DWORD PTR $T3[ebp], -3	; fffffffdH
  000eb	8d 8d 58 ff ff
	ff		 lea	 ecx, DWORD PTR $T12[ebp]
  000f1	ff 25 00 00 00
	00		 jmp	 DWORD PTR __imp_??1?$CStringT@DV?$StrTraitMFC_DLL@DV?$ChTraitsCRT@D@ATL@@@@@ATL@@QAE@XZ
$LN105@OnBtnExcel:
  000f7	c3		 ret	 0
__unwindfunclet$?OnBtnExcelExport@CDlgDataSimulator@@IAEXXZ$30:
  000f8	8b 85 40 ff ff
	ff		 mov	 eax, DWORD PTR $T3[ebp]
  000fe	83 e0 04	 and	 eax, 4
  00101	0f 84 13 00 00
	00		 je	 $LN118@OnBtnExcel
  00107	83 a5 40 ff ff
	ff fb		 and	 DWORD PTR $T3[ebp], -5	; fffffffbH
  0010e	8d 8d 5c ff ff
	ff		 lea	 ecx, DWORD PTR $T17[ebp]
  00114	ff 25 00 00 00
	00		 jmp	 DWORD PTR __imp_??1?$CStringT@DV?$StrTraitMFC_DLL@DV?$ChTraitsCRT@D@ATL@@@@@ATL@@QAE@XZ
$LN118@OnBtnExcel:
  0011a	c3		 ret	 0
__unwindfunclet$?OnBtnExcelExport@CDlgDataSimulator@@IAEXXZ$31:
  0011b	8b 85 40 ff ff
	ff		 mov	 eax, DWORD PTR $T3[ebp]
  00121	83 e0 08	 and	 eax, 8
  00124	0f 84 13 00 00
	00		 je	 $LN137@OnBtnExcel
  0012a	83 a5 40 ff ff
	ff f7		 and	 DWORD PTR $T3[ebp], -9	; fffffff7H
  00131	8d 8d 58 ff ff
	ff		 lea	 ecx, DWORD PTR $T11[ebp]
  00137	ff 25 00 00 00
	00		 jmp	 DWORD PTR __imp_??1?$CStringT@DV?$StrTraitMFC_DLL@DV?$ChTraitsCRT@D@ATL@@@@@ATL@@QAE@XZ
$LN137@OnBtnExcel:
  0013d	c3		 ret	 0
__unwindfunclet$?OnBtnExcelExport@CDlgDataSimulator@@IAEXXZ$32:
  0013e	8b 85 40 ff ff
	ff		 mov	 eax, DWORD PTR $T3[ebp]
  00144	83 e0 10	 and	 eax, 16			; 00000010H
  00147	0f 84 13 00 00
	00		 je	 $LN150@OnBtnExcel
  0014d	83 a5 40 ff ff
	ff ef		 and	 DWORD PTR $T3[ebp], -17	; ffffffefH
  00154	8d 8d 50 ff ff
	ff		 lea	 ecx, DWORD PTR $T9[ebp]
  0015a	ff 25 00 00 00
	00		 jmp	 DWORD PTR __imp_??1?$CStringT@DV?$StrTraitMFC_DLL@DV?$ChTraitsCRT@D@ATL@@@@@ATL@@QAE@XZ
$LN150@OnBtnExcel:
  00160	c3		 ret	 0
__unwindfunclet$?OnBtnExcelExport@CDlgDataSimulator@@IAEXXZ$33:
  00161	8b 85 40 ff ff
	ff		 mov	 eax, DWORD PTR $T3[ebp]
  00167	83 e0 20	 and	 eax, 32			; 00000020H
  0016a	0f 84 13 00 00
	00		 je	 $LN166@OnBtnExcel
  00170	83 a5 40 ff ff
	ff df		 and	 DWORD PTR $T3[ebp], -33	; ffffffdfH
  00177	8d 8d 5c ff ff
	ff		 lea	 ecx, DWORD PTR $T16[ebp]
  0017d	ff 25 00 00 00
	00		 jmp	 DWORD PTR __imp_??1?$CStringT@DV?$StrTraitMFC_DLL@DV?$ChTraitsCRT@D@ATL@@@@@ATL@@QAE@XZ
$LN166@OnBtnExcel:
  00183	c3		 ret	 0
__unwindfunclet$?OnBtnExcelExport@CDlgDataSimulator@@IAEXXZ$20:
  00184	8d 8d 30 ff ff
	ff		 lea	 ecx, DWORD PTR ___mlrs__$[ebp]
  0018a	e9 00 00 00 00	 jmp	 ??1CMultiLanguageResourceSetter@@QAE@XZ ; CMultiLanguageResourceSetter::~CMultiLanguageResourceSetter
__unwindfunclet$?OnBtnExcelExport@CDlgDataSimulator@@IAEXXZ$21:
  0018f	8d 8d 24 ff ff
	ff		 lea	 ecx, DWORD PTR _strFormat$[ebp]
  00195	ff 25 00 00 00
	00		 jmp	 DWORD PTR __imp_??1?$CStringT@DV?$StrTraitMFC_DLL@DV?$ChTraitsCRT@D@ATL@@@@@ATL@@QAE@XZ
__unwindfunclet$?OnBtnExcelExport@CDlgDataSimulator@@IAEXXZ$22:
  0019b	8d 8d 44 ff ff
	ff		 lea	 ecx, DWORD PTR _szMsg$4[ebp]
  001a1	ff 25 00 00 00
	00		 jmp	 DWORD PTR __imp_??1?$CStringT@DV?$StrTraitMFC_DLL@DV?$ChTraitsCRT@D@ATL@@@@@ATL@@QAE@XZ
__unwindfunclet$?OnBtnExcelExport@CDlgDataSimulator@@IAEXXZ$23:
  001a7	8d 8d 5c ff ff
	ff		 lea	 ecx, DWORD PTR _strFormat$15[ebp]
  001ad	ff 25 00 00 00
	00		 jmp	 DWORD PTR __imp_??1?$CStringT@DV?$StrTraitMFC_DLL@DV?$ChTraitsCRT@D@ATL@@@@@ATL@@QAE@XZ
  001b3	cc		 int	 3
  001b4	cc		 int	 3
  001b5	cc		 int	 3
  001b6	cc		 int	 3
  001b7	cc		 int	 3
__ehhandler$?OnBtnExcelExport@CDlgDataSimulator@@IAEXXZ:
  001b8	90		 npad	 1
  001b9	90		 npad	 1
  001ba	8b 54 24 08	 mov	 edx, DWORD PTR [esp+8]
  001be	8d 42 0c	 lea	 eax, DWORD PTR [edx+12]
  001c1	8b 8a e8 fe ff
	ff		 mov	 ecx, DWORD PTR [edx-280]
  001c7	33 c8		 xor	 ecx, eax
  001c9	e8 00 00 00 00	 call	 @__security_check_cookie@4
  001ce	8b 4a fc	 mov	 ecx, DWORD PTR [edx-4]
  001d1	33 c8		 xor	 ecx, eax
  001d3	e8 00 00 00 00	 call	 @__security_check_cookie@4
  001d8	b8 00 00 00 00	 mov	 eax, OFFSET __ehfuncinfo$?OnBtnExcelExport@CDlgDataSimulator@@IAEXXZ
  001dd	e9 00 00 00 00	 jmp	 ___CxxFrameHandler3
text$x	ENDS
?OnBtnExcelExport@CDlgDataSimulator@@IAEXXZ ENDP	; CDlgDataSimulator::OnBtnExcelExport
; Function compile flags: /Ogtp
; File D:\git\src\IBK\IBK_DRFN\ProjSrc\SrcChartEx\ChartAddIn\ChartDataListViewerAddIn\ChartDataListViewerAddIn\DlgDataSimulator.cpp
; File D:\git\src\IBK\IBK_DRFN\ProjSrc\SrcChartEx\ChartAddIn\ChartDataListViewerAddIn\Include_GridCtrl\GridCtrl.h
; File D:\git\src\IBK\IBK_DRFN\ProjSrc\SrcChartEx\ChartAddIn\ChartDataListViewerAddIn\ChartDataListViewerAddIn\DlgDataSimulator.cpp
; File C:\Program Files (x86)\Microsoft Visual Studio\2019\Community\VC\Tools\MSVC\14.29.30133\atlmfc\include\afxtempl.h
; File D:\git\src\IBK\IBK_DRFN\ProjSrc\SrcChartEx\ChartAddIn\ChartDataListViewerAddIn\ChartDataListViewerAddIn\DlgDataSimulator.cpp
; File C:\Program Files (x86)\Microsoft Visual Studio\2019\Community\VC\Tools\MSVC\14.29.30133\atlmfc\include\afxtempl.h
; File C:\Program Files (x86)\Microsoft Visual Studio\2019\Community\VC\Tools\MSVC\14.29.30133\atlmfc\include\afxwin2.inl
; File D:\git\src\IBK\IBK_DRFN\ProjSrc\SrcChartEx\ChartAddIn\ChartDataListViewerAddIn\ChartDataListViewerAddIn\DlgDataSimulator.cpp
;	COMDAT ?OnBtnDel@CDlgDataSimulator@@IAEXXZ
_TEXT	SEGMENT
$T2 = -32						; size = 8
_cellID$2$ = -28					; size = 4
$T3 = -24						; size = 8
_this$1$ = -20						; size = 4
_pRecordSet$1$ = -16					; size = 4
__$EHRec$ = -12						; size = 12
?OnBtnDel@CDlgDataSimulator@@IAEXXZ PROC		; CDlgDataSimulator::OnBtnDel, COMDAT
; _this$ = ecx

; 484  : {

  00000	55		 push	 ebp
  00001	8b ec		 mov	 ebp, esp
  00003	6a ff		 push	 -1
  00005	68 00 00 00 00	 push	 __ehhandler$?OnBtnDel@CDlgDataSimulator@@IAEXXZ
  0000a	64 a1 00 00 00
	00		 mov	 eax, DWORD PTR fs:0
  00010	50		 push	 eax
  00011	83 ec 14	 sub	 esp, 20			; 00000014H
  00014	53		 push	 ebx
  00015	56		 push	 esi
  00016	57		 push	 edi
  00017	a1 00 00 00 00	 mov	 eax, DWORD PTR ___security_cookie
  0001c	33 c5		 xor	 eax, ebp
  0001e	50		 push	 eax
  0001f	8d 45 f4	 lea	 eax, DWORD PTR __$EHRec$[ebp]
  00022	64 a3 00 00 00
	00		 mov	 DWORD PTR fs:0, eax
  00028	8b f9		 mov	 edi, ecx
  0002a	89 7d ec	 mov	 DWORD PTR _this$1$[ebp], edi
; File D:\git\src\IBK\IBK_DRFN\ProjSrc\SrcChartEx\ChartAddIn\ChartDataListViewerAddIn\Include_GridCtrl\GridCtrl.h

; 302  :     CCellID GetFocusCell() const                  { return m_idCurrentCell;           }

  0002d	8b 9f 7c 03 00
	00		 mov	 ebx, DWORD PTR [edi+892]
  00033	8b 87 80 03 00
	00		 mov	 eax, DWORD PTR [edi+896]
  00039	89 45 e4	 mov	 DWORD PTR _cellID$2$[ebp], eax
  0003c	85 db		 test	 ebx, ebx
; File D:\git\src\IBK\IBK_DRFN\ProjSrc\SrcChartEx\ChartAddIn\ChartDataListViewerAddIn\ChartDataListViewerAddIn\DlgDataSimulator.cpp

; 486  : 	if(cellID.row <= 0 || cellID.row >= m_Grid.GetRowCount())

  0003e	0f 8e 56 01 00
	00		 jle	 $LN3@OnBtnDel
  00044	3b 9f cc 01 00
	00		 cmp	 ebx, DWORD PTR [edi+460]
  0004a	0f 8d 4a 01 00
	00		 jge	 $LN3@OnBtnDel

; 487  : 		return;
; 488  : 
; 489  : 	if(m_Grid.DeleteRow(cellID.row))

  00050	8d 8f b0 00 00
	00		 lea	 ecx, DWORD PTR [edi+176]
  00056	53		 push	 ebx
  00057	e8 00 00 00 00	 call	 ?DeleteRow@CGridCtrl@@QAEHH@Z ; CGridCtrl::DeleteRow
  0005c	85 c0		 test	 eax, eax
  0005e	0f 84 36 01 00
	00		 je	 $LN3@OnBtnDel

; 490  : 	{
; 491  : 		POSITION pos = m_pChartDataGridManager->m_ChartDataList.FindIndex(cellID.row - 1);

  00064	8b b7 38 05 00
	00		 mov	 esi, DWORD PTR [edi+1336]
  0006a	8d 43 ff	 lea	 eax, DWORD PTR [ebx-1]
; File C:\Program Files (x86)\Microsoft Visual Studio\2019\Community\VC\Tools\MSVC\14.29.30133\atlmfc\include\afxtempl.h

; 1133 : 	if (nIndex >= m_nCount || nIndex < 0)

  0006d	8b 4e 38	 mov	 ecx, DWORD PTR [esi+56]
  00070	3b c1		 cmp	 eax, ecx
  00072	0f 8d f1 00 00
	00		 jge	 $LN36@OnBtnDel
  00078	85 c0		 test	 eax, eax
  0007a	0f 88 e9 00 00
	00		 js	 $LN36@OnBtnDel

; 1134 : 		return NULL;  // went too far
; 1135 : 
; 1136 : 	CNode* pNode = m_pNodeHead;

  00080	8b 76 30	 mov	 esi, DWORD PTR [esi+48]

; 1137 : 	while (nIndex--)

  00083	74 07		 je	 SHORT $LN47@OnBtnDel
$LL18@OnBtnDel:

; 1138 : 	{
; 1139 : 		ASSERT(AfxIsValidAddress(pNode, sizeof(CNode)));
; 1140 : 		pNode = pNode->pNext;

  00085	8b 36		 mov	 esi, DWORD PTR [esi]
  00087	83 e8 01	 sub	 eax, 1
  0008a	75 f9		 jne	 SHORT $LL18@OnBtnDel
$LN47@OnBtnDel:
; File D:\git\src\IBK\IBK_DRFN\ProjSrc\SrcChartEx\ChartAddIn\ChartDataListViewerAddIn\ChartDataListViewerAddIn\DlgDataSimulator.cpp

; 492  : 		if(pos)

  0008c	85 f6		 test	 esi, esi
  0008e	0f 84 d5 00 00
	00		 je	 $LN36@OnBtnDel

; 493  : 		{
; 494  : 			CChartRecordSet * pRecordSet = m_pChartDataGridManager->m_ChartDataList.GetAt(pos);

  00094	8b 46 08	 mov	 eax, DWORD PTR [esi+8]
  00097	89 45 f0	 mov	 DWORD PTR _pRecordSet$1$[ebp], eax

; 495  : 			if(m_pChartDataGridManager->m_ChartDataList.GetCount() == 1)

  0009a	83 f9 01	 cmp	 ecx, 1
  0009d	75 36		 jne	 SHORT $LN6@OnBtnDel

; 496  : 			{
; 497  : 				if(!m_pChartLastRecordSet) m_pChartLastRecordSet	= new CChartRecordSet;

  0009f	8b 87 5c 05 00
	00		 mov	 eax, DWORD PTR [edi+1372]
  000a5	85 c0		 test	 eax, eax
  000a7	75 1f		 jne	 SHORT $LN7@OnBtnDel
  000a9	6a 18		 push	 24			; 00000018H
  000ab	e8 00 00 00 00	 call	 ??2@YAPAXI@Z		; operator new
  000b0	83 c4 04	 add	 esp, 4
  000b3	85 c0		 test	 eax, eax
  000b5	74 09		 je	 SHORT $LN11@OnBtnDel
  000b7	8b c8		 mov	 ecx, eax
  000b9	e8 00 00 00 00	 call	 ??0CChartRecordSet@@QAE@XZ
  000be	eb 02		 jmp	 SHORT $LN12@OnBtnDel
$LN11@OnBtnDel:
  000c0	33 c0		 xor	 eax, eax
$LN12@OnBtnDel:
  000c2	89 87 5c 05 00
	00		 mov	 DWORD PTR [edi+1372], eax
$LN7@OnBtnDel:

; 498  : 				*m_pChartLastRecordSet	= *pRecordSet;				

  000c8	ff 75 f0	 push	 DWORD PTR _pRecordSet$1$[ebp]
  000cb	8b c8		 mov	 ecx, eax
  000cd	e8 00 00 00 00	 call	 ??4CChartRecordSet@@QAEAAV0@AAV0@@Z ; CChartRecordSet::operator=
  000d2	8b 45 f0	 mov	 eax, DWORD PTR _pRecordSet$1$[ebp]
$LN6@OnBtnDel:

; 499  : 			}
; 500  : 			delete pRecordSet;			

  000d5	85 c0		 test	 eax, eax
  000d7	74 2b		 je	 SHORT $LN24@OnBtnDel
  000d9	ff 35 00 00 00
	00		 push	 DWORD PTR __imp_??1?$CStringT@DV?$StrTraitMFC_DLL@DV?$ChTraitsCRT@D@ATL@@@@@ATL@@QAE@XZ
  000df	c7 45 fc 00 00
	00 00		 mov	 DWORD PTR __$EHRec$[ebp+8], 0
  000e6	6a 06		 push	 6
  000e8	6a 04		 push	 4
  000ea	50		 push	 eax
  000eb	e8 00 00 00 00	 call	 ??_M@YGXPAXIIP6EX0@Z@Z
  000f0	6a 18		 push	 24			; 00000018H
  000f2	ff 75 f0	 push	 DWORD PTR _pRecordSet$1$[ebp]
  000f5	c7 45 fc ff ff
	ff ff		 mov	 DWORD PTR __$EHRec$[ebp+8], -1
  000fc	e8 00 00 00 00	 call	 ??3@YAXPAXI@Z		; operator delete
  00101	83 c4 08	 add	 esp, 8
$LN24@OnBtnDel:

; 501  : 			m_pChartDataGridManager->m_ChartDataList.RemoveAt(pos);

  00104	8b bf 38 05 00
	00		 mov	 edi, DWORD PTR [edi+1336]
; File C:\Program Files (x86)\Microsoft Visual Studio\2019\Community\VC\Tools\MSVC\14.29.30133\atlmfc\include\afxtempl.h

; 1107 : 	if (pOldNode == m_pNodeHead)

  0010a	8b 0e		 mov	 ecx, DWORD PTR [esi]
  0010c	3b 77 30	 cmp	 esi, DWORD PTR [edi+48]
  0010f	75 05		 jne	 SHORT $LN30@OnBtnDel

; 1108 : 	{
; 1109 : 		m_pNodeHead = pOldNode->pNext;

  00111	89 4f 30	 mov	 DWORD PTR [edi+48], ecx

; 1110 : 	}

  00114	eb 05		 jmp	 SHORT $LN31@OnBtnDel
$LN30@OnBtnDel:

; 1111 : 	else
; 1112 : 	{
; 1113 : 		ASSERT(AfxIsValidAddress(pOldNode->pPrev, sizeof(CNode)));
; 1114 : 		pOldNode->pPrev->pNext = pOldNode->pNext;

  00116	8b 46 04	 mov	 eax, DWORD PTR [esi+4]
  00119	89 08		 mov	 DWORD PTR [eax], ecx
$LN31@OnBtnDel:

; 1115 : 	}
; 1116 : 	if (pOldNode == m_pNodeTail)

  0011b	8b 4e 04	 mov	 ecx, DWORD PTR [esi+4]
  0011e	3b 77 34	 cmp	 esi, DWORD PTR [edi+52]
  00121	75 05		 jne	 SHORT $LN32@OnBtnDel

; 1117 : 	{
; 1118 : 		m_pNodeTail = pOldNode->pPrev;

  00123	89 4f 34	 mov	 DWORD PTR [edi+52], ecx

; 1119 : 	}

  00126	eb 05		 jmp	 SHORT $LN33@OnBtnDel
$LN32@OnBtnDel:

; 1120 : 	else
; 1121 : 	{
; 1122 : 		ASSERT(AfxIsValidAddress(pOldNode->pNext, sizeof(CNode)));
; 1123 : 		pOldNode->pNext->pPrev = pOldNode->pPrev;

  00128	8b 06		 mov	 eax, DWORD PTR [esi]
  0012a	89 48 04	 mov	 DWORD PTR [eax+4], ecx
$LN33@OnBtnDel:

; 938  : 	pNode->pNext = m_pNodeFree;

  0012d	8b 47 3c	 mov	 eax, DWORD PTR [edi+60]
  00130	89 06		 mov	 DWORD PTR [esi], eax

; 939  : 	m_pNodeFree = pNode;
; 940  : 	m_nCount--;

  00132	83 47 38 ff	 add	 DWORD PTR [edi+56], -1
  00136	89 77 3c	 mov	 DWORD PTR [edi+60], esi

; 941  : 	ASSERT(m_nCount >= 0);  // make sure we don't underflow
; 942  : 
; 943  : 	// if no more elements, cleanup completely
; 944  : 	if (m_nCount == 0)

  00139	75 2b		 jne	 SHORT $LN55@OnBtnDel

; 872  : 	m_pBlocks->FreeDataChain();

  0013b	8b 4f 40	 mov	 ecx, DWORD PTR [edi+64]
  0013e	c7 47 38 00 00
	00 00		 mov	 DWORD PTR [edi+56], 0
  00145	c7 47 3c 00 00
	00 00		 mov	 DWORD PTR [edi+60], 0
  0014c	c7 47 34 00 00
	00 00		 mov	 DWORD PTR [edi+52], 0
  00153	c7 47 30 00 00
	00 00		 mov	 DWORD PTR [edi+48], 0
  0015a	e8 00 00 00 00	 call	 ?FreeDataChain@CPlex@@QAEXXZ ; CPlex::FreeDataChain

; 873  : 	m_pBlocks = NULL;

  0015f	c7 47 40 00 00
	00 00		 mov	 DWORD PTR [edi+64], 0
$LN55@OnBtnDel:
; File C:\Program Files (x86)\Microsoft Visual Studio\2019\Community\VC\Tools\MSVC\14.29.30133\atlmfc\include\afxwin2.inl

; 114  : 	{ ASSERT(::IsWindow(m_hWnd)); ::InvalidateRect(m_hWnd, NULL, bErase); }

  00166	8b 7d ec	 mov	 edi, DWORD PTR _this$1$[ebp]
$LN36@OnBtnDel:
  00169	6a 01		 push	 1
  0016b	6a 00		 push	 0
  0016d	ff b7 d0 00 00
	00		 push	 DWORD PTR [edi+208]
  00173	ff 15 00 00 00
	00		 call	 DWORD PTR __imp__InvalidateRect@12
; File D:\git\src\IBK\IBK_DRFN\ProjSrc\SrcChartEx\ChartAddIn\ChartDataListViewerAddIn\ChartDataListViewerAddIn\DlgDataSimulator.cpp

; 506  : 		if(m_Grid.GetRowCount() > cellID.row)

  00179	8d 8f b0 00 00
	00		 lea	 ecx, DWORD PTR [edi+176]
  0017f	ff 75 e4	 push	 DWORD PTR _cellID$2$[ebp]
  00182	39 9f cc 01 00
	00		 cmp	 DWORD PTR [edi+460], ebx
  00188	7e 05		 jle	 SHORT $LN8@OnBtnDel

; 507  : 			m_Grid.SetFocusCell(cellID.row, cellID.col);

  0018a	8d 45 e0	 lea	 eax, DWORD PTR $T2[ebp]
  0018d	eb 04		 jmp	 SHORT $LN57@OnBtnDel
$LN8@OnBtnDel:

; 508  : 		else
; 509  : 			m_Grid.SetFocusCell(--cellID.row,cellID.col);

  0018f	4b		 dec	 ebx
  00190	8d 45 e8	 lea	 eax, DWORD PTR $T3[ebp]
$LN57@OnBtnDel:

; 510  : 	}
; 511  : }

  00193	53		 push	 ebx
  00194	50		 push	 eax
  00195	e8 00 00 00 00	 call	 ?SetFocusCell@CGridCtrl@@QAE?AVCCellID@@HH@Z ; CGridCtrl::SetFocusCell
$LN3@OnBtnDel:
  0019a	8b 4d f4	 mov	 ecx, DWORD PTR __$EHRec$[ebp]
  0019d	64 89 0d 00 00
	00 00		 mov	 DWORD PTR fs:0, ecx
  001a4	59		 pop	 ecx
  001a5	5f		 pop	 edi
  001a6	5e		 pop	 esi
  001a7	5b		 pop	 ebx
  001a8	8b e5		 mov	 esp, ebp
  001aa	5d		 pop	 ebp
  001ab	c3		 ret	 0
  001ac	cc		 int	 3
  001ad	cc		 int	 3
  001ae	cc		 int	 3
  001af	cc		 int	 3
  001b0	cc		 int	 3
_TEXT	ENDS
;	COMDAT text$x
text$x	SEGMENT
__ehhandler$?OnBtnDel@CDlgDataSimulator@@IAEXXZ:
  00000	90		 npad	 1
  00001	90		 npad	 1
  00002	8b 54 24 08	 mov	 edx, DWORD PTR [esp+8]
  00006	8d 42 0c	 lea	 eax, DWORD PTR [edx+12]
  00009	8b 4a dc	 mov	 ecx, DWORD PTR [edx-36]
  0000c	33 c8		 xor	 ecx, eax
  0000e	e8 00 00 00 00	 call	 @__security_check_cookie@4
  00013	b8 00 00 00 00	 mov	 eax, OFFSET __ehfuncinfo$?OnBtnDel@CDlgDataSimulator@@IAEXXZ
  00018	e9 00 00 00 00	 jmp	 ___CxxFrameHandler3
text$x	ENDS
?OnBtnDel@CDlgDataSimulator@@IAEXXZ ENDP		; CDlgDataSimulator::OnBtnDel
; Function compile flags: /Ogtp
; File D:\git\src\IBK\IBK_DRFN\ProjSrc\SrcChartEx\ChartAddIn\ChartDataListViewerAddIn\ChartDataListViewerAddIn\DlgDataSimulator.cpp
; File C:\Program Files (x86)\Microsoft Visual Studio\2019\Community\VC\Tools\MSVC\14.29.30133\atlmfc\include\afxwin1.inl
; File D:\git\src\IBK\IBK_DRFN\ProjSrc\SrcChartEx\ChartAddIn\ChartDataListViewerAddIn\Include_Chart\DLL_Load\IMetaTable.h
; File C:\Program Files (x86)\Microsoft Visual Studio\2019\Community\VC\Tools\MSVC\14.29.30133\atlmfc\include\afxwin1.inl
; File D:\git\src\IBK\IBK_DRFN\ProjSrc\SrcChartEx\ChartAddIn\ChartDataListViewerAddIn\ChartDataListViewerAddIn\DlgDataSimulator.cpp
; File C:\Program Files (x86)\Microsoft Visual Studio\2019\Community\VC\Tools\MSVC\14.29.30133\atlmfc\include\afxtempl.h
; File D:\git\src\IBK\IBK_DRFN\ProjSrc\SrcChartEx\ChartAddIn\ChartDataListViewerAddIn\ChartDataListViewerAddIn\DlgDataSimulator.cpp
; File C:\Program Files (x86)\Microsoft Visual Studio\2019\Community\VC\Tools\MSVC\14.29.30133\atlmfc\include\atlsimpstr.h
; File D:\git\src\IBK\IBK_DRFN\ProjSrc\SrcChartEx\ChartAddIn\ChartDataListViewerAddIn\ChartDataListViewerAddIn\DlgDataSimulator.cpp
; File C:\Program Files (x86)\Microsoft Visual Studio\2019\Community\VC\Tools\MSVC\14.29.30133\atlmfc\include\atlsimpstr.h
; File D:\git\src\IBK\IBK_DRFN\ProjSrc\SrcChartEx\ChartAddIn\ChartDataListViewerAddIn\ChartDataListViewerAddIn\DlgDataSimulator.cpp
; File C:\Program Files (x86)\Microsoft Visual Studio\2019\Community\VC\Tools\MSVC\14.29.30133\atlmfc\include\atlsimpstr.h
; File D:\git\src\IBK\IBK_DRFN\ProjSrc\SrcChartEx\ChartAddIn\ChartDataListViewerAddIn\ChartDataListViewerAddIn\DlgDataSimulator.cpp
; File C:\Program Files (x86)\Microsoft Visual Studio\2019\Community\VC\Tools\MSVC\14.29.30133\atlmfc\include\atlsimpstr.h
; File D:\git\src\IBK\IBK_DRFN\ProjSrc\SrcChartEx\ChartAddIn\ChartDataListViewerAddIn\ChartDataListViewerAddIn\DlgDataSimulator.cpp
; File C:\Program Files (x86)\Microsoft Visual Studio\2019\Community\VC\Tools\MSVC\14.29.30133\atlmfc\include\atltime.h
; File D:\git\src\IBK\IBK_DRFN\ProjSrc\SrcChartEx\ChartAddIn\ChartDataListViewerAddIn\ChartDataListViewerAddIn\DlgDataSimulator.cpp
; File C:\Program Files (x86)\Microsoft Visual Studio\2019\Community\VC\Tools\MSVC\14.29.30133\atlmfc\include\atltime.h
; File D:\git\src\IBK\IBK_DRFN\ProjSrc\SrcChartEx\ChartAddIn\ChartDataListViewerAddIn\ChartDataListViewerAddIn\DlgDataSimulator.cpp
; File C:\Program Files (x86)\Microsoft Visual Studio\2019\Community\VC\Tools\MSVC\14.29.30133\atlmfc\include\cstringt.h
; File D:\git\src\IBK\IBK_DRFN\ProjSrc\SrcChartEx\ChartAddIn\ChartDataListViewerAddIn\ChartDataListViewerAddIn\DlgDataSimulator.cpp
; File C:\Program Files (x86)\Microsoft Visual Studio\2019\Community\VC\Tools\MSVC\14.29.30133\atlmfc\include\atlsimpstr.h
; File D:\git\src\IBK\IBK_DRFN\ProjSrc\SrcChartEx\ChartAddIn\ChartDataListViewerAddIn\ChartDataListViewerAddIn\DlgDataSimulator.cpp
; File C:\Program Files (x86)\Microsoft Visual Studio\2019\Community\VC\Tools\MSVC\14.29.30133\atlmfc\include\atlsimpstr.h
; File D:\git\src\IBK\IBK_DRFN\ProjSrc\SrcChartEx\ChartAddIn\ChartDataListViewerAddIn\ChartDataListViewerAddIn\DlgDataSimulator.cpp
; File C:\Program Files (x86)\Microsoft Visual Studio\2019\Community\VC\Tools\MSVC\14.29.30133\atlmfc\include\atlsimpstr.h
; File D:\git\src\IBK\IBK_DRFN\ProjSrc\SrcChartEx\ChartAddIn\ChartDataListViewerAddIn\ChartDataListViewerAddIn\DlgDataSimulator.cpp
; File C:\Program Files (x86)\Microsoft Visual Studio\2019\Community\VC\Tools\MSVC\14.29.30133\atlmfc\include\atlsimpstr.h
; File D:\git\src\IBK\IBK_DRFN\ProjSrc\SrcChartEx\ChartAddIn\ChartDataListViewerAddIn\ChartDataListViewerAddIn\DlgDataSimulator.cpp
; File C:\Program Files (x86)\Microsoft Visual Studio\2019\Community\VC\Tools\MSVC\14.29.30133\atlmfc\include\atltime.h
; File D:\git\src\IBK\IBK_DRFN\ProjSrc\SrcChartEx\ChartAddIn\ChartDataListViewerAddIn\ChartDataListViewerAddIn\DlgDataSimulator.cpp
; File C:\Program Files (x86)\Microsoft Visual Studio\2019\Community\VC\Tools\MSVC\14.29.30133\atlmfc\include\atltime.h
; File D:\git\src\IBK\IBK_DRFN\ProjSrc\SrcChartEx\ChartAddIn\ChartDataListViewerAddIn\ChartDataListViewerAddIn\DlgDataSimulator.cpp
; File C:\Program Files (x86)\Microsoft Visual Studio\2019\Community\VC\Tools\MSVC\14.29.30133\atlmfc\include\cstringt.h
; File D:\git\src\IBK\IBK_DRFN\ProjSrc\SrcChartEx\ChartAddIn\ChartDataListViewerAddIn\ChartDataListViewerAddIn\DlgDataSimulator.cpp
; File D:\git\src\IBK\IBK_DRFN\ProjSrc\SrcChartEx\ChartAddIn\ChartDataListViewerAddIn\Include_Chart\DLL_Load\IMetaTable.h
; File C:\Program Files (x86)\Microsoft Visual Studio\2019\Community\VC\Tools\MSVC\14.29.30133\atlmfc\include\afxwin1.inl
; File D:\git\src\IBK\IBK_DRFN\ProjSrc\SrcChartEx\ChartAddIn\ChartDataListViewerAddIn\ChartDataListViewerAddIn\DlgDataSimulator.cpp
; File C:\Program Files (x86)\Microsoft Visual Studio\2019\Community\VC\Tools\MSVC\14.29.30133\atlmfc\include\atlsimpstr.h
; File D:\git\src\IBK\IBK_DRFN\ProjSrc\SrcChartEx\ChartAddIn\ChartDataListViewerAddIn\ChartDataListViewerAddIn\DlgDataSimulator.cpp
; File C:\Program Files (x86)\Microsoft Visual Studio\2019\Community\VC\Tools\MSVC\14.29.30133\atlmfc\include\cstringt.h
; File D:\git\src\IBK\IBK_DRFN\ProjSrc\SrcChartEx\ChartAddIn\ChartDataListViewerAddIn\ChartDataListViewerAddIn\DlgDataSimulator.cpp
; File C:\Program Files (x86)\Microsoft Visual Studio\2019\Community\VC\Tools\MSVC\14.29.30133\atlmfc\include\cstringt.h
; File D:\git\src\IBK\IBK_DRFN\ProjSrc\SrcChartEx\ChartAddIn\ChartDataListViewerAddIn\ChartDataListViewerAddIn\DlgDataSimulator.cpp
; File C:\Program Files (x86)\Microsoft Visual Studio\2019\Community\VC\Tools\MSVC\14.29.30133\atlmfc\include\atltime.h
; File D:\git\src\IBK\IBK_DRFN\ProjSrc\SrcChartEx\ChartAddIn\ChartDataListViewerAddIn\ChartDataListViewerAddIn\DlgDataSimulator.cpp
; File C:\Program Files (x86)\Microsoft Visual Studio\2019\Community\VC\Tools\MSVC\14.29.30133\atlmfc\include\atltime.h
; File C:\Program Files (x86)\Microsoft Visual Studio\2019\Community\VC\Tools\MSVC\14.29.30133\atlmfc\include\atlsimpstr.h
; File C:\Program Files (x86)\Microsoft Visual Studio\2019\Community\VC\Tools\MSVC\14.29.30133\atlmfc\include\atltime.h
; File C:\Program Files (x86)\Microsoft Visual Studio\2019\Community\VC\Tools\MSVC\14.29.30133\atlmfc\include\atlsimpstr.h
; File D:\git\src\IBK\IBK_DRFN\ProjSrc\SrcChartEx\ChartAddIn\ChartDataListViewerAddIn\ChartDataListViewerAddIn\DlgDataSimulator.cpp
; File C:\Program Files (x86)\Microsoft Visual Studio\2019\Community\VC\Tools\MSVC\14.29.30133\atlmfc\include\atltime.h
; File C:\Program Files (x86)\Microsoft Visual Studio\2019\Community\VC\Tools\MSVC\14.29.30133\atlmfc\include\atlsimpstr.h
; File D:\git\src\IBK\IBK_DRFN\ProjSrc\SrcChartEx\ChartAddIn\ChartDataListViewerAddIn\ChartDataListViewerAddIn\DlgDataSimulator.cpp
; File C:\Program Files (x86)\Microsoft Visual Studio\2019\Community\VC\Tools\MSVC\14.29.30133\atlmfc\include\atltime.h
; File D:\git\src\IBK\IBK_DRFN\ProjSrc\SrcChartEx\ChartAddIn\ChartDataListViewerAddIn\ChartDataListViewerAddIn\DlgDataSimulator.cpp
; File C:\Program Files (x86)\Microsoft Visual Studio\2019\Community\VC\Tools\MSVC\14.29.30133\atlmfc\include\atltime.h
; File D:\git\src\IBK\IBK_DRFN\ProjSrc\SrcChartEx\ChartAddIn\ChartDataListViewerAddIn\ChartDataListViewerAddIn\DlgDataSimulator.cpp
; File C:\Program Files (x86)\Microsoft Visual Studio\2019\Community\VC\Tools\MSVC\14.29.30133\atlmfc\include\atltime.h
; File D:\git\src\IBK\IBK_DRFN\ProjSrc\SrcChartEx\ChartAddIn\ChartDataListViewerAddIn\ChartDataListViewerAddIn\DlgDataSimulator.cpp
; File C:\Program Files (x86)\Microsoft Visual Studio\2019\Community\VC\Tools\MSVC\14.29.30133\atlmfc\include\atltime.h
; File C:\Program Files (x86)\Microsoft Visual Studio\2019\Community\VC\Tools\MSVC\14.29.30133\atlmfc\include\atlsimpstr.h
; File C:\Program Files (x86)\Microsoft Visual Studio\2019\Community\VC\Tools\MSVC\14.29.30133\atlmfc\include\atltime.h
; File C:\Program Files (x86)\Microsoft Visual Studio\2019\Community\VC\Tools\MSVC\14.29.30133\atlmfc\include\atlsimpstr.h
; File D:\git\src\IBK\IBK_DRFN\ProjSrc\SrcChartEx\ChartAddIn\ChartDataListViewerAddIn\ChartDataListViewerAddIn\DlgDataSimulator.cpp
; File C:\Program Files (x86)\Microsoft Visual Studio\2019\Community\VC\Tools\MSVC\14.29.30133\atlmfc\include\atltime.h
; File C:\Program Files (x86)\Microsoft Visual Studio\2019\Community\VC\Tools\MSVC\14.29.30133\atlmfc\include\atlsimpstr.h
; File D:\git\src\IBK\IBK_DRFN\ProjSrc\SrcChartEx\ChartAddIn\ChartDataListViewerAddIn\ChartDataListViewerAddIn\DlgDataSimulator.cpp
; File C:\Program Files (x86)\Microsoft Visual Studio\2019\Community\VC\Tools\MSVC\14.29.30133\atlmfc\include\atltime.h
; File D:\git\src\IBK\IBK_DRFN\ProjSrc\SrcChartEx\ChartAddIn\ChartDataListViewerAddIn\ChartDataListViewerAddIn\DlgDataSimulator.cpp
; File C:\Program Files (x86)\Microsoft Visual Studio\2019\Community\VC\Tools\MSVC\14.29.30133\atlmfc\include\atltime.h
; File D:\git\src\IBK\IBK_DRFN\ProjSrc\SrcChartEx\ChartAddIn\ChartDataListViewerAddIn\ChartDataListViewerAddIn\DlgDataSimulator.cpp
; File C:\Program Files (x86)\Microsoft Visual Studio\2019\Community\VC\Tools\MSVC\14.29.30133\atlmfc\include\atlsimpstr.h
; File D:\git\src\IBK\IBK_DRFN\ProjSrc\SrcChartEx\ChartAddIn\ChartDataListViewerAddIn\ChartDataListViewerAddIn\DlgDataSimulator.cpp
; File C:\Program Files (x86)\Microsoft Visual Studio\2019\Community\VC\Tools\MSVC\14.29.30133\atlmfc\include\atltime.h
; File D:\git\src\IBK\IBK_DRFN\ProjSrc\SrcChartEx\ChartAddIn\ChartDataListViewerAddIn\ChartDataListViewerAddIn\DlgDataSimulator.cpp
; File C:\Program Files (x86)\Microsoft Visual Studio\2019\Community\VC\Tools\MSVC\14.29.30133\atlmfc\include\atltime.h
; File C:\Program Files (x86)\Microsoft Visual Studio\2019\Community\VC\Tools\MSVC\14.29.30133\atlmfc\include\atlsimpstr.h
; File C:\Program Files (x86)\Microsoft Visual Studio\2019\Community\VC\Tools\MSVC\14.29.30133\atlmfc\include\atltime.h
; File C:\Program Files (x86)\Microsoft Visual Studio\2019\Community\VC\Tools\MSVC\14.29.30133\atlmfc\include\atlsimpstr.h
; File D:\git\src\IBK\IBK_DRFN\ProjSrc\SrcChartEx\ChartAddIn\ChartDataListViewerAddIn\ChartDataListViewerAddIn\DlgDataSimulator.cpp
; File C:\Program Files (x86)\Microsoft Visual Studio\2019\Community\VC\Tools\MSVC\14.29.30133\atlmfc\include\atltime.h
; File C:\Program Files (x86)\Microsoft Visual Studio\2019\Community\VC\Tools\MSVC\14.29.30133\atlmfc\include\atlsimpstr.h
; File D:\git\src\IBK\IBK_DRFN\ProjSrc\SrcChartEx\ChartAddIn\ChartDataListViewerAddIn\ChartDataListViewerAddIn\DlgDataSimulator.cpp
; File C:\Program Files (x86)\Microsoft Visual Studio\2019\Community\VC\Tools\MSVC\14.29.30133\atlmfc\include\atltime.h
; File D:\git\src\IBK\IBK_DRFN\ProjSrc\SrcChartEx\ChartAddIn\ChartDataListViewerAddIn\ChartDataListViewerAddIn\DlgDataSimulator.cpp
; File C:\Program Files (x86)\Microsoft Visual Studio\2019\Community\VC\Tools\MSVC\14.29.30133\atlmfc\include\atltime.h
; File D:\git\src\IBK\IBK_DRFN\ProjSrc\SrcChartEx\ChartAddIn\ChartDataListViewerAddIn\ChartDataListViewerAddIn\DlgDataSimulator.cpp
; File C:\Program Files (x86)\Microsoft Visual Studio\2019\Community\VC\Tools\MSVC\14.29.30133\atlmfc\include\afxtempl.h
; File D:\git\src\IBK\IBK_DRFN\ProjSrc\SrcChartEx\ChartAddIn\ChartDataListViewerAddIn\ChartDataListViewerAddIn\DlgDataSimulator.cpp
;	COMDAT ?OnBtnAdd@CDlgDataSimulator@@IAEXXZ
_TEXT	SEGMENT
___mlrs__$ = -312					; size = 4
_dlg$2 = -308						; size = 192
_dlg$3 = -308						; size = 192
_dlg$4 = -308						; size = 192
_dlg$5 = -300						; size = 184
_dlg$6 = -300						; size = 184
_dlg$7 = -300						; size = 184
_pRecordSet$1$ = -116					; size = 4
_timeCur$8 = -112					; size = 8
_timeCur$9 = -112					; size = 8
_timeCur$10 = -112					; size = 8
_timeSpan$11 = -112					; size = 8
_timeSpan$12 = -112					; size = 8
_nextTime$13 = -104					; size = 8
_nextTime$14 = -104					; size = 8
_nextTime$15 = -104					; size = 8
_time$16 = -104						; size = 8
_time$17 = -104						; size = 8
_this$GSCopy$1$ = -96					; size = 4
_strMsg$18 = -96					; size = 4
_timeSpan$19 = -92					; size = 8
_timeSpan$20 = -92					; size = 8
_timeSpan$21 = -92					; size = 8
_nextTime$22 = -92					; size = 8
_nextTime$23 = -92					; size = 8
$T24 = -88						; size = 4
$T25 = -88						; size = 4
$T26 = -88						; size = 4
_time$27 = -84						; size = 8
_time$28 = -84						; size = 8
_time$29 = -84						; size = 8
$T30 = -80						; size = 4
$T31 = -80						; size = 4
$T32 = -80						; size = 4
$T33 = -80						; size = 4
_strY$34 = -80						; size = 4
_strY$35 = -80						; size = 4
_strDlgTitle$36 = -80					; size = 4
_strDlgTitle$37 = -80					; size = 4
$T38 = -76						; size = 4
_strD$39 = -76						; size = 4
_strM$40 = -76						; size = 4
_strD$41 = -76						; size = 4
_strM$42 = -76						; size = 4
_strMsg$43 = -76					; size = 4
_strH$44 = -72						; size = 4
_strD$45 = -72						; size = 4
_strH$46 = -72						; size = 4
_strM$47 = -72						; size = 4
_strD$48 = -72						; size = 4
_strD$49 = -72						; size = 4
_strNextDateTime$ = -68					; size = 4
_strLastDateTime$ = -64					; size = 4
$T50 = -60						; size = 4
_nAddMonth$2$ = -60					; size = 4
_strM$51 = -60						; size = 4
_strH$52 = -60						; size = 4
_strM$53 = -60						; size = 4
_strMsg$54 = -60					; size = 4
_strMsg$55 = -60					; size = 4
_strMsg$56 = -60					; size = 4
_strMsg$57 = -60					; size = 4
_strM$58 = -60						; size = 4
$T59 = -56						; size = 4
_pNewRecordSet$1$ = -56					; size = 4
_nAddYear$1$ = -56					; size = 4
_strS$60 = -56						; size = 4
_strm$61 = -56						; size = 4
_strS$62 = -56						; size = 4
_strDlgTitle$63 = -56					; size = 4
_strDlgTitle$64 = -56					; size = 4
_strDlgTitle$65 = -56					; size = 4
_strDlgTitle$66 = -56					; size = 4
tv92 = -56						; size = 4
_strY$67 = -56						; size = 4
_stTm$68 = -52						; size = 36
_stTm$69 = -52						; size = 36
__$ArrayPad$ = -16					; size = 4
__$EHRec$ = -12						; size = 12
?OnBtnAdd@CDlgDataSimulator@@IAEXXZ PROC		; CDlgDataSimulator::OnBtnAdd, COMDAT
; _this$ = ecx

; 228  : {

  00000	55		 push	 ebp
  00001	8b ec		 mov	 ebp, esp
  00003	6a ff		 push	 -1
  00005	68 00 00 00 00	 push	 __ehhandler$?OnBtnAdd@CDlgDataSimulator@@IAEXXZ
  0000a	64 a1 00 00 00
	00		 mov	 eax, DWORD PTR fs:0
  00010	50		 push	 eax
  00011	81 ec 2c 01 00
	00		 sub	 esp, 300		; 0000012cH
  00017	a1 00 00 00 00	 mov	 eax, DWORD PTR ___security_cookie
  0001c	33 c5		 xor	 eax, ebp
  0001e	89 45 f0	 mov	 DWORD PTR __$ArrayPad$[ebp], eax
  00021	56		 push	 esi
  00022	57		 push	 edi
  00023	50		 push	 eax
  00024	8d 45 f4	 lea	 eax, DWORD PTR __$EHRec$[ebp]
  00027	64 a3 00 00 00
	00		 mov	 DWORD PTR fs:0, eax
  0002d	8b f1		 mov	 esi, ecx
  0002f	89 75 a0	 mov	 DWORD PTR _this$GSCopy$1$[ebp], esi

; 229  : 	if(!m_pChartDataGridManager) return;

  00032	83 be 38 05 00
	00 00		 cmp	 DWORD PTR [esi+1336], 0
  00039	0f 84 21 06 00
	00		 je	 $LN376@OnBtnAdd

; 230  : 
; 231  : 	ML_SET_LANGUAGE_RES();

  0003f	e8 00 00 00 00	 call	 ?AfxGetStaticModuleState@@YGPAVAFX_MODULE_STATE@@XZ ; AfxGetStaticModuleState
  00044	b9 00 00 00 00	 mov	 ecx, OFFSET ?g_iMetaTable@@3VIMetaTable@@A ; g_iMetaTable
  00049	8b 40 08	 mov	 eax, DWORD PTR [eax+8]
  0004c	50		 push	 eax
  0004d	ff b6 ac 00 00
	00		 push	 DWORD PTR [esi+172]
  00053	e8 00 00 00 00	 call	 ?LoadResourceDLL@IMetaTable@@QAEPAUHINSTANCE__@@PAUHWND__@@PAU2@@Z ; IMetaTable::LoadResourceDLL
  00058	8b f8		 mov	 edi, eax
; File C:\Program Files (x86)\Microsoft Visual Studio\2019\Community\VC\Tools\MSVC\14.29.30133\atlmfc\include\afxwin1.inl

; 25   : 		return afxCurrentResourceHandle; }

  0005a	e8 00 00 00 00	 call	 ?AfxGetModuleState@@YGPAVAFX_MODULE_STATE@@XZ ; AfxGetModuleState
; File D:\git\src\IBK\IBK_DRFN\ProjSrc\SrcChartEx\ChartAddIn\ChartDataListViewerAddIn\Include_Chart\DLL_Load\IMetaTable.h

; 1032 : 		m_hInstance = AfxGetResourceHandle();

  0005f	8b 70 0c	 mov	 esi, DWORD PTR [eax+12]
  00062	89 b5 c8 fe ff
	ff		 mov	 DWORD PTR ___mlrs__$[ebp], esi
; File C:\Program Files (x86)\Microsoft Visual Studio\2019\Community\VC\Tools\MSVC\14.29.30133\atlmfc\include\afxwin1.inl

; 27   : 	{ ASSERT(hInstResource != NULL); afxCurrentResourceHandle = hInstResource; }

  00068	e8 00 00 00 00	 call	 ?AfxGetModuleState@@YGPAVAFX_MODULE_STATE@@XZ ; AfxGetModuleState
  0006d	89 78 0c	 mov	 DWORD PTR [eax+12], edi
; File D:\git\src\IBK\IBK_DRFN\ProjSrc\SrcChartEx\ChartAddIn\ChartDataListViewerAddIn\ChartDataListViewerAddIn\DlgDataSimulator.cpp

; 233  : 	CString strNextDateTime;

  00070	8d 4d bc	 lea	 ecx, DWORD PTR _strNextDateTime$[ebp]
  00073	c7 45 fc 00 00
	00 00		 mov	 DWORD PTR __$EHRec$[ebp+8], 0
  0007a	ff 15 00 00 00
	00		 call	 DWORD PTR __imp_??0?$CStringT@DV?$StrTraitMFC_DLL@DV?$ChTraitsCRT@D@ATL@@@@@ATL@@QAE@XZ

; 234  : 	CString strLastDateTime;

  00080	8d 4d c0	 lea	 ecx, DWORD PTR _strLastDateTime$[ebp]
  00083	ff 15 00 00 00
	00		 call	 DWORD PTR __imp_??0?$CStringT@DV?$StrTraitMFC_DLL@DV?$ChTraitsCRT@D@ATL@@@@@ATL@@QAE@XZ

; 235  : 	CChartRecordSet * pRecordSet = NULL;
; 236  : 	if(m_pChartDataGridManager->m_ChartDataList.GetCount() <= 0)

  00089	8b 7d a0	 mov	 edi, DWORD PTR _this$GSCopy$1$[ebp]
  0008c	c6 45 fc 02	 mov	 BYTE PTR __$EHRec$[ebp+8], 2
  00090	8b 87 38 05 00
	00		 mov	 eax, DWORD PTR [edi+1336]
  00096	83 78 38 00	 cmp	 DWORD PTR [eax+56], 0
  0009a	7f 13		 jg	 SHORT $LN23@OnBtnAdd

; 237  : 	{
; 238  : 		if(!m_pChartLastRecordSet) return;

  0009c	8b 87 5c 05 00
	00		 mov	 eax, DWORD PTR [edi+1372]
  000a2	89 45 8c	 mov	 DWORD PTR _pRecordSet$1$[ebp], eax
  000a5	85 c0		 test	 eax, eax
  000a7	0f 84 92 05 00
	00		 je	 $LN117@OnBtnAdd

; 239  : 		pRecordSet = m_pChartLastRecordSet;
; 240  : 	}

  000ad	eb 1b		 jmp	 SHORT $LN24@OnBtnAdd
$LN23@OnBtnAdd:

; 241  : 	else
; 242  : 	{	
; 243  : 		POSITION pos = m_pChartDataGridManager->m_ChartDataList.GetTailPosition();

  000af	8b 48 34	 mov	 ecx, DWORD PTR [eax+52]

; 244  : 		if(!pos) return;

  000b2	85 c9		 test	 ecx, ecx
  000b4	0f 84 85 05 00
	00		 je	 $LN117@OnBtnAdd
; File C:\Program Files (x86)\Microsoft Visual Studio\2019\Community\VC\Tools\MSVC\14.29.30133\atlmfc\include\afxtempl.h

; 288  : 	if(nIndex >= 0 && nIndex < m_nSize)

  000ba	83 78 20 00	 cmp	 DWORD PTR [eax+32], 0
  000be	0f 8e 00 0e 00
	00		 jle	 $LN135@OnBtnAdd
; File D:\git\src\IBK\IBK_DRFN\ProjSrc\SrcChartEx\ChartAddIn\ChartDataListViewerAddIn\ChartDataListViewerAddIn\DlgDataSimulator.cpp

; 246  : 		pRecordSet		= m_pChartDataGridManager->m_ChartDataList.GetAt(pos);		

  000c4	8b 41 08	 mov	 eax, DWORD PTR [ecx+8]
  000c7	89 45 8c	 mov	 DWORD PTR _pRecordSet$1$[ebp], eax
$LN24@OnBtnAdd:

; 247  : 	}
; 248  : 
; 249  : 	strLastDateTime = pRecordSet->m_Data[DATE_TIME];

  000ca	50		 push	 eax
  000cb	8d 4d c0	 lea	 ecx, DWORD PTR _strLastDateTime$[ebp]
  000ce	ff 15 00 00 00
	00		 call	 DWORD PTR __imp_??4?$CStringT@DV?$StrTraitMFC_DLL@DV?$ChTraitsCRT@D@ATL@@@@@ATL@@QAEAAV01@ABV01@@Z

; 250  : 
; 251  : 	switch(m_pChartDataGridManager->m_nDataType)

  000d4	8b 8f 38 05 00
	00		 mov	 ecx, DWORD PTR [edi+1336]
  000da	8b 41 0c	 mov	 eax, DWORD PTR [ecx+12]
  000dd	83 f8 04	 cmp	 eax, 4
  000e0	0f 87 62 0d 00
	00		 ja	 $LN2@OnBtnAdd
  000e6	ff 24 85 00 00
	00 00		 jmp	 DWORD PTR $LN402@OnBtnAdd[eax*4]
$LN27@OnBtnAdd:
; File C:\Program Files (x86)\Microsoft Visual Studio\2019\Community\VC\Tools\MSVC\14.29.30133\atlmfc\include\atlsimpstr.h

; 519  : 		return( GetData()->nDataLength );

  000ed	8b 45 c0	 mov	 eax, DWORD PTR _strLastDateTime$[ebp]
; File D:\git\src\IBK\IBK_DRFN\ProjSrc\SrcChartEx\ChartAddIn\ChartDataListViewerAddIn\ChartDataListViewerAddIn\DlgDataSimulator.cpp

; 255  : 			if(strLastDateTime.GetLength() < 8) return;

  000f0	83 78 f4 08	 cmp	 DWORD PTR [eax-12], 8
  000f4	0f 8c 45 05 00
	00		 jl	 $LN117@OnBtnAdd

; 256  : 			CString strY = strLastDateTime.Left(4);

  000fa	6a 04		 push	 4
  000fc	8d 45 c8	 lea	 eax, DWORD PTR _strY$67[ebp]
  000ff	50		 push	 eax
  00100	8d 4d c0	 lea	 ecx, DWORD PTR _strLastDateTime$[ebp]
  00103	ff 15 00 00 00
	00		 call	 DWORD PTR __imp_?Left@?$CStringT@DV?$StrTraitMFC_DLL@DV?$ChTraitsCRT@D@ATL@@@@@ATL@@QBE?AV12@H@Z

; 257  : 			CString strM = strLastDateTime.Mid(4,2);

  00109	6a 02		 push	 2
  0010b	6a 04		 push	 4
  0010d	8d 45 c4	 lea	 eax, DWORD PTR _strM$58[ebp]
  00110	c6 45 fc 06	 mov	 BYTE PTR __$EHRec$[ebp+8], 6
  00114	50		 push	 eax
  00115	8d 4d c0	 lea	 ecx, DWORD PTR _strLastDateTime$[ebp]
  00118	ff 15 00 00 00
	00		 call	 DWORD PTR __imp_?Mid@?$CStringT@DV?$StrTraitMFC_DLL@DV?$ChTraitsCRT@D@ATL@@@@@ATL@@QBE?AV12@HH@Z

; 258  : 			CString strD = strLastDateTime.Mid(6,2);

  0011e	6a 02		 push	 2
  00120	6a 06		 push	 6
  00122	8d 45 b8	 lea	 eax, DWORD PTR _strD$49[ebp]
  00125	c6 45 fc 07	 mov	 BYTE PTR __$EHRec$[ebp+8], 7
  00129	50		 push	 eax
  0012a	8d 4d c0	 lea	 ecx, DWORD PTR _strLastDateTime$[ebp]
  0012d	ff 15 00 00 00
	00		 call	 DWORD PTR __imp_?Mid@?$CStringT@DV?$StrTraitMFC_DLL@DV?$ChTraitsCRT@D@ATL@@@@@ATL@@QBE?AV12@HH@Z
; File C:\Program Files (x86)\Microsoft Visual Studio\2019\Community\VC\Tools\MSVC\14.29.30133\atlmfc\include\atlsimpstr.h

; 377  : 		return( m_pszData );

  00133	8b 45 c4	 mov	 eax, DWORD PTR _strM$58[ebp]
; File D:\git\src\IBK\IBK_DRFN\ProjSrc\SrcChartEx\ChartAddIn\ChartDataListViewerAddIn\ChartDataListViewerAddIn\DlgDataSimulator.cpp

; 260  : 			CTime time(atoi(strY), atoi(strM), atoi(strD), 0, 0, 0);

  00136	8b 3d 00 00 00
	00		 mov	 edi, DWORD PTR __imp__atoi
  0013c	6a ff		 push	 -1
  0013e	6a 00		 push	 0
  00140	6a 00		 push	 0
  00142	6a 00		 push	 0
  00144	ff 75 b8	 push	 DWORD PTR _strD$49[ebp]
; File C:\Program Files (x86)\Microsoft Visual Studio\2019\Community\VC\Tools\MSVC\14.29.30133\atlmfc\include\atlsimpstr.h

; 377  : 		return( m_pszData );

  00147	89 45 b4	 mov	 DWORD PTR $T38[ebp], eax
  0014a	8b 45 c8	 mov	 eax, DWORD PTR _strY$67[ebp]
; File D:\git\src\IBK\IBK_DRFN\ProjSrc\SrcChartEx\ChartAddIn\ChartDataListViewerAddIn\ChartDataListViewerAddIn\DlgDataSimulator.cpp

; 258  : 			CString strD = strLastDateTime.Mid(6,2);

  0014d	c6 45 fc 08	 mov	 BYTE PTR __$EHRec$[ebp+8], 8
; File C:\Program Files (x86)\Microsoft Visual Studio\2019\Community\VC\Tools\MSVC\14.29.30133\atlmfc\include\atlsimpstr.h

; 377  : 		return( m_pszData );

  00151	89 45 b0	 mov	 DWORD PTR $T33[ebp], eax
; File D:\git\src\IBK\IBK_DRFN\ProjSrc\SrcChartEx\ChartAddIn\ChartDataListViewerAddIn\ChartDataListViewerAddIn\DlgDataSimulator.cpp

; 260  : 			CTime time(atoi(strY), atoi(strM), atoi(strD), 0, 0, 0);

  00154	ff d7		 call	 edi
  00156	83 c4 04	 add	 esp, 4
  00159	50		 push	 eax
  0015a	ff 75 b4	 push	 DWORD PTR $T38[ebp]
  0015d	ff d7		 call	 edi
  0015f	83 c4 04	 add	 esp, 4
  00162	50		 push	 eax
  00163	ff 75 b0	 push	 DWORD PTR $T33[ebp]
  00166	ff d7		 call	 edi
  00168	83 c4 04	 add	 esp, 4
  0016b	8d 4d 98	 lea	 ecx, DWORD PTR _time$17[ebp]
  0016e	50		 push	 eax
  0016f	e8 00 00 00 00	 call	 ??0CTime@ATL@@QAE@HHHHHHH@Z ; ATL::CTime::CTime

; 261  : 			CTimeSpan timeSpan(m_pChartDataGridManager->m_nDataInterval, 0, 0, 0);

  00174	8b 7d a0	 mov	 edi, DWORD PTR _this$GSCopy$1$[ebp]
  00177	8d 4d 90	 lea	 ecx, DWORD PTR _timeSpan$12[ebp]
  0017a	6a 00		 push	 0
  0017c	6a 00		 push	 0
  0017e	6a 00		 push	 0
  00180	8b 87 38 05 00
	00		 mov	 eax, DWORD PTR [edi+1336]
  00186	ff 70 10	 push	 DWORD PTR [eax+16]
  00189	e8 00 00 00 00	 call	 ??0CTimeSpan@ATL@@QAE@JHHH@Z ; ATL::CTimeSpan::CTimeSpan
; File C:\Program Files (x86)\Microsoft Visual Studio\2019\Community\VC\Tools\MSVC\14.29.30133\atlmfc\include\atltime.h

; 553  : 	return( CTime( m_time+span.GetTimeSpan() ) );

  0018e	8b 4d 90	 mov	 ecx, DWORD PTR _timeSpan$12[ebp]
  00191	0f 57 c0	 xorps	 xmm0, xmm0
  00194	03 4d 98	 add	 ecx, DWORD PTR _time$17[ebp]
  00197	8b 45 94	 mov	 eax, DWORD PTR _timeSpan$12[ebp+4]
  0019a	13 45 9c	 adc	 eax, DWORD PTR _time$17[ebp+4]

; 417  : 	m_time( time )

  0019d	89 45 a8	 mov	 DWORD PTR _nextTime$23[ebp+4], eax
; File D:\git\src\IBK\IBK_DRFN\ProjSrc\SrcChartEx\ChartAddIn\ChartDataListViewerAddIn\ChartDataListViewerAddIn\DlgDataSimulator.cpp

; 264  : 			struct tm * pTm = nextTime.GetGmtTm(&stTm);

  001a0	8d 45 cc	 lea	 eax, DWORD PTR _stTm$69[ebp]
; File C:\Program Files (x86)\Microsoft Visual Studio\2019\Community\VC\Tools\MSVC\14.29.30133\atlmfc\include\atltime.h

; 417  : 	m_time( time )

  001a3	89 4d a4	 mov	 DWORD PTR _nextTime$23[ebp], ecx
; File D:\git\src\IBK\IBK_DRFN\ProjSrc\SrcChartEx\ChartAddIn\ChartDataListViewerAddIn\ChartDataListViewerAddIn\DlgDataSimulator.cpp

; 264  : 			struct tm * pTm = nextTime.GetGmtTm(&stTm);

  001a6	8d 4d a4	 lea	 ecx, DWORD PTR _nextTime$23[ebp]
  001a9	50		 push	 eax
  001aa	0f 11 45 cc	 movups	 XMMWORD PTR _stTm$69[ebp], xmm0
  001ae	c7 45 ec 00 00
	00 00		 mov	 DWORD PTR _stTm$69[ebp+32], 0
  001b5	0f 11 45 dc	 movups	 XMMWORD PTR _stTm$69[ebp+16], xmm0
  001b9	e8 00 00 00 00	 call	 ?GetGmtTm@CTime@ATL@@QBEPAUtm@@PAU3@@Z ; ATL::CTime::GetGmtTm

; 265  : 			if(!pTm)

  001be	85 c0		 test	 eax, eax
  001c0	75 52		 jne	 SHORT $LN29@OnBtnAdd

; 266  : 			{
; 267  : 				CString strMsg, strDlgTitle;

  001c2	8d 4d a0	 lea	 ecx, DWORD PTR _strMsg$18[ebp]
  001c5	ff 15 00 00 00
	00		 call	 DWORD PTR __imp_??0?$CStringT@DV?$StrTraitMFC_DLL@DV?$ChTraitsCRT@D@ATL@@@@@ATL@@QAE@XZ
  001cb	8d 4d b0	 lea	 ecx, DWORD PTR _strDlgTitle$37[ebp]
  001ce	ff 15 00 00 00
	00		 call	 DWORD PTR __imp_??0?$CStringT@DV?$StrTraitMFC_DLL@DV?$ChTraitsCRT@D@ATL@@@@@ATL@@QAE@XZ

; 268  : 				GetWindowText(strDlgTitle);

  001d4	8d 45 b0	 lea	 eax, DWORD PTR _strDlgTitle$37[ebp]
  001d7	c6 45 fc 0a	 mov	 BYTE PTR __$EHRec$[ebp+8], 10 ; 0000000aH
  001db	50		 push	 eax
  001dc	8b cf		 mov	 ecx, edi
  001de	e8 00 00 00 00	 call	 ?GetWindowTextA@CWnd@@QBEXAAV?$CStringT@DV?$StrTraitMFC_DLL@DV?$ChTraitsCRT@D@ATL@@@@@ATL@@@Z ; CWnd::GetWindowTextA

; 269  : 				strMsg.LoadString( IDS_MSG_ADD_DATE_MAX_ERROR);

  001e3	6a 19		 push	 25			; 00000019H
  001e5	8d 4d a0	 lea	 ecx, DWORD PTR _strMsg$18[ebp]
  001e8	ff 15 00 00 00
	00		 call	 DWORD PTR __imp_?LoadStringA@?$CStringT@DV?$StrTraitMFC_DLL@DV?$ChTraitsCRT@D@ATL@@@@@ATL@@QAEHI@Z

; 270  : 				MessageBox(strMsg, strDlgTitle);					

  001ee	6a 00		 push	 0
  001f0	ff 75 b0	 push	 DWORD PTR _strDlgTitle$37[ebp]
  001f3	8b cf		 mov	 ecx, edi
  001f5	ff 75 a0	 push	 DWORD PTR _strMsg$18[ebp]
  001f8	e8 00 00 00 00	 call	 ?MessageBoxA@CWnd@@QAEHPBD0I@Z ; CWnd::MessageBoxA

; 271  : 				return;

  001fd	8d 4d b0	 lea	 ecx, DWORD PTR _strDlgTitle$37[ebp]
  00200	ff 15 00 00 00
	00		 call	 DWORD PTR __imp_??1?$CStringT@DV?$StrTraitMFC_DLL@DV?$ChTraitsCRT@D@ATL@@@@@ATL@@QAE@XZ
  00206	8d 4d a0	 lea	 ecx, DWORD PTR _strMsg$18[ebp]
  00209	ff 15 00 00 00
	00		 call	 DWORD PTR __imp_??1?$CStringT@DV?$StrTraitMFC_DLL@DV?$ChTraitsCRT@D@ATL@@@@@ATL@@QAE@XZ
  0020f	e9 50 01 00 00	 jmp	 $LN103@OnBtnAdd
$LN29@OnBtnAdd:

; 272  : 			}
; 273  : 
; 274  : 			strNextDateTime.Format("%04d%02d%02d", nextTime.GetYear(), nextTime.GetMonth(), nextTime.GetDay());

  00214	8d 4d a4	 lea	 ecx, DWORD PTR _nextTime$23[ebp]
  00217	e8 00 00 00 00	 call	 ?GetDay@CTime@ATL@@QBEHXZ ; ATL::CTime::GetDay
  0021c	50		 push	 eax
  0021d	8d 4d a4	 lea	 ecx, DWORD PTR _nextTime$23[ebp]
  00220	e8 00 00 00 00	 call	 ?GetMonth@CTime@ATL@@QBEHXZ ; ATL::CTime::GetMonth
  00225	50		 push	 eax
  00226	8d 4d a4	 lea	 ecx, DWORD PTR _nextTime$23[ebp]
  00229	e8 00 00 00 00	 call	 ?GetYear@CTime@ATL@@QBEHXZ ; ATL::CTime::GetYear
  0022e	50		 push	 eax
  0022f	8d 45 bc	 lea	 eax, DWORD PTR _strNextDateTime$[ebp]
  00232	68 00 00 00 00	 push	 OFFSET ??_C@_0N@DEAKEBCF@?$CF04d?$CF02d?$CF02d@
  00237	50		 push	 eax
  00238	ff 15 00 00 00
	00		 call	 DWORD PTR __imp_?Format@?$CStringT@DV?$StrTraitMFC_DLL@DV?$ChTraitsCRT@D@ATL@@@@@ATL@@QAAXPBDZZ
  0023e	83 c4 14	 add	 esp, 20			; 00000014H

; 275  : 			
; 276  : 			do{		
; 277  : 
; 278  : 				CDlgInputDayWeek dlg;	

  00241	8d 8d d4 fe ff
	ff		 lea	 ecx, DWORD PTR _dlg$7[ebp]
  00247	6a 00		 push	 0
  00249	e8 00 00 00 00	 call	 ??0CDlgInputDayWeek@@QAE@PAVCWnd@@@Z ; CDlgInputDayWeek::CDlgInputDayWeek

; 279  : 				dlg.m_strCurrentDate = strNextDateTime;

  0024e	8d 45 bc	 lea	 eax, DWORD PTR _strNextDateTime$[ebp]
  00251	c6 45 fc 0c	 mov	 BYTE PTR __$EHRec$[ebp+8], 12 ; 0000000cH
  00255	50		 push	 eax
  00256	8d 4d 88	 lea	 ecx, DWORD PTR _dlg$7[ebp+180]
  00259	ff 15 00 00 00
	00		 call	 DWORD PTR __imp_??4?$CStringT@DV?$StrTraitMFC_DLL@DV?$ChTraitsCRT@D@ATL@@@@@ATL@@QAEAAV01@ABV01@@Z

; 280  : 				if(dlg.DoModal() == IDCANCEL)

  0025f	8d 8d d4 fe ff
	ff		 lea	 ecx, DWORD PTR _dlg$7[ebp]
  00265	e8 00 00 00 00	 call	 ?DoModal@CDialog@@UAEHXZ ; CDialog::DoModal
  0026a	83 f8 02	 cmp	 eax, 2
  0026d	0f 84 e6 00 00
	00		 je	 $LN383@OnBtnAdd
  00273	0f 1f 40 00 66
	0f 1f 84 00 00
	00 00 00	 npad	 13
$LL6@OnBtnAdd:

; 283  : 				if(m_pChartDataGridManager->m_ChartDataList.GetCount() <= 0 || strLastDateTime < dlg.m_strCurrentDate)

  00280	8b 87 38 05 00
	00		 mov	 eax, DWORD PTR [edi+1336]
  00286	83 78 38 00	 cmp	 DWORD PTR [eax+56], 0
  0028a	0f 8e ee 00 00
	00		 jle	 $LN400@OnBtnAdd
; File C:\Program Files (x86)\Microsoft Visual Studio\2019\Community\VC\Tools\MSVC\14.29.30133\atlmfc\include\cstringt.h

; 2601 : 		return( str1.Compare( str2 ) < 0 );

  00290	ff 75 88	 push	 DWORD PTR _dlg$7[ebp+180]
  00293	8d 4d c0	 lea	 ecx, DWORD PTR _strLastDateTime$[ebp]
  00296	ff 15 00 00 00
	00		 call	 DWORD PTR __imp_?Compare@?$CStringT@DV?$StrTraitMFC_DLL@DV?$ChTraitsCRT@D@ATL@@@@@ATL@@QBEHPBD@Z
  0029c	85 c0		 test	 eax, eax
; File D:\git\src\IBK\IBK_DRFN\ProjSrc\SrcChartEx\ChartAddIn\ChartDataListViewerAddIn\ChartDataListViewerAddIn\DlgDataSimulator.cpp

; 283  : 				if(m_pChartDataGridManager->m_ChartDataList.GetCount() <= 0 || strLastDateTime < dlg.m_strCurrentDate)

  0029e	0f 88 da 00 00
	00		 js	 $LN400@OnBtnAdd

; 287  : 				}
; 288  : 				
; 289  : 				CString strMsg, strDlgTitle;

  002a4	8d 4d b4	 lea	 ecx, DWORD PTR _strMsg$43[ebp]
  002a7	ff 15 00 00 00
	00		 call	 DWORD PTR __imp_??0?$CStringT@DV?$StrTraitMFC_DLL@DV?$ChTraitsCRT@D@ATL@@@@@ATL@@QAE@XZ
  002ad	8d 4d b0	 lea	 ecx, DWORD PTR _strDlgTitle$36[ebp]
  002b0	ff 15 00 00 00
	00		 call	 DWORD PTR __imp_??0?$CStringT@DV?$StrTraitMFC_DLL@DV?$ChTraitsCRT@D@ATL@@@@@ATL@@QAE@XZ

; 290  : 				GetWindowText(strDlgTitle);

  002b6	8d 45 b0	 lea	 eax, DWORD PTR _strDlgTitle$36[ebp]
  002b9	c6 45 fc 0f	 mov	 BYTE PTR __$EHRec$[ebp+8], 15 ; 0000000fH
  002bd	50		 push	 eax
  002be	8b cf		 mov	 ecx, edi
  002c0	e8 00 00 00 00	 call	 ?GetWindowTextA@CWnd@@QBEXAAV?$CStringT@DV?$StrTraitMFC_DLL@DV?$ChTraitsCRT@D@ATL@@@@@ATL@@@Z ; CWnd::GetWindowTextA

; 291  : 				strMsg.LoadString(IDS_MSG_ADD_DATE_ERROR);

  002c5	6a 15		 push	 21			; 00000015H
  002c7	8d 4d b4	 lea	 ecx, DWORD PTR _strMsg$43[ebp]
  002ca	ff 15 00 00 00
	00		 call	 DWORD PTR __imp_?LoadStringA@?$CStringT@DV?$StrTraitMFC_DLL@DV?$ChTraitsCRT@D@ATL@@@@@ATL@@QAEHI@Z

; 292  : 				MessageBox(strMsg, strDlgTitle);					

  002d0	6a 00		 push	 0
  002d2	ff 75 b0	 push	 DWORD PTR _strDlgTitle$36[ebp]
  002d5	8b cf		 mov	 ecx, edi
  002d7	ff 75 b4	 push	 DWORD PTR _strMsg$43[ebp]
  002da	e8 00 00 00 00	 call	 ?MessageBoxA@CWnd@@QAEHPBD0I@Z ; CWnd::MessageBoxA

; 293  : 
; 294  : 			}while(1);				

  002df	8d 4d b0	 lea	 ecx, DWORD PTR _strDlgTitle$36[ebp]
  002e2	ff 15 00 00 00
	00		 call	 DWORD PTR __imp_??1?$CStringT@DV?$StrTraitMFC_DLL@DV?$ChTraitsCRT@D@ATL@@@@@ATL@@QAE@XZ
  002e8	8d 4d b4	 lea	 ecx, DWORD PTR _strMsg$43[ebp]
  002eb	ff 15 00 00 00
	00		 call	 DWORD PTR __imp_??1?$CStringT@DV?$StrTraitMFC_DLL@DV?$ChTraitsCRT@D@ATL@@@@@ATL@@QAE@XZ
  002f1	8d 4d 88	 lea	 ecx, DWORD PTR _dlg$7[ebp+180]
  002f4	c6 45 fc 08	 mov	 BYTE PTR __$EHRec$[ebp+8], 8
  002f8	ff 15 00 00 00
	00		 call	 DWORD PTR __imp_??1?$CStringT@DV?$StrTraitMFC_DLL@DV?$ChTraitsCRT@D@ATL@@@@@ATL@@QAE@XZ
  002fe	8d 4d 84	 lea	 ecx, DWORD PTR _dlg$7[ebp+176]
  00301	ff 15 00 00 00
	00		 call	 DWORD PTR __imp_??1?$CStringT@DV?$StrTraitMFC_DLL@DV?$ChTraitsCRT@D@ATL@@@@@ATL@@QAE@XZ
  00307	8d 4d 80	 lea	 ecx, DWORD PTR _dlg$7[ebp+172]
  0030a	ff 15 00 00 00
	00		 call	 DWORD PTR __imp_??1?$CStringT@DV?$StrTraitMFC_DLL@DV?$ChTraitsCRT@D@ATL@@@@@ATL@@QAE@XZ
  00310	8d 8d 7c ff ff
	ff		 lea	 ecx, DWORD PTR _dlg$7[ebp+168]
  00316	ff 15 00 00 00
	00		 call	 DWORD PTR __imp_??1?$CStringT@DV?$StrTraitMFC_DLL@DV?$ChTraitsCRT@D@ATL@@@@@ATL@@QAE@XZ
  0031c	8d 8d d4 fe ff
	ff		 lea	 ecx, DWORD PTR _dlg$7[ebp]
  00322	e8 00 00 00 00	 call	 ??1CDialog@@UAE@XZ	; CDialog::~CDialog
  00327	6a 00		 push	 0
  00329	8d 8d d4 fe ff
	ff		 lea	 ecx, DWORD PTR _dlg$7[ebp]
  0032f	e8 00 00 00 00	 call	 ??0CDlgInputDayWeek@@QAE@PAVCWnd@@@Z ; CDlgInputDayWeek::CDlgInputDayWeek
  00334	8d 45 bc	 lea	 eax, DWORD PTR _strNextDateTime$[ebp]
  00337	c6 45 fc 0c	 mov	 BYTE PTR __$EHRec$[ebp+8], 12 ; 0000000cH
  0033b	50		 push	 eax
  0033c	8d 4d 88	 lea	 ecx, DWORD PTR _dlg$7[ebp+180]
  0033f	ff 15 00 00 00
	00		 call	 DWORD PTR __imp_??4?$CStringT@DV?$StrTraitMFC_DLL@DV?$ChTraitsCRT@D@ATL@@@@@ATL@@QAEAAV01@ABV01@@Z
  00345	8d 8d d4 fe ff
	ff		 lea	 ecx, DWORD PTR _dlg$7[ebp]
  0034b	e8 00 00 00 00	 call	 ?DoModal@CDialog@@UAEHXZ ; CDialog::DoModal
  00350	83 f8 02	 cmp	 eax, 2
  00353	0f 85 27 ff ff
	ff		 jne	 $LL6@OnBtnAdd
$LN383@OnBtnAdd:

; 281  : 					return;

  00359	8d 8d d4 fe ff
	ff		 lea	 ecx, DWORD PTR _dlg$7[ebp]
  0035f	e8 00 00 00 00	 call	 ??1CDlgInputDayWeek@@UAE@XZ
$LN103@OnBtnAdd:
  00364	8d 4d b8	 lea	 ecx, DWORD PTR _strD$49[ebp]
  00367	ff 15 00 00 00
	00		 call	 DWORD PTR __imp_??1?$CStringT@DV?$StrTraitMFC_DLL@DV?$ChTraitsCRT@D@ATL@@@@@ATL@@QAE@XZ
  0036d	8d 4d c4	 lea	 ecx, DWORD PTR _strM$58[ebp]
  00370	ff 15 00 00 00
	00		 call	 DWORD PTR __imp_??1?$CStringT@DV?$StrTraitMFC_DLL@DV?$ChTraitsCRT@D@ATL@@@@@ATL@@QAE@XZ
  00376	8d 4d c8	 lea	 ecx, DWORD PTR _strY$67[ebp]
  00379	e9 bb 02 00 00	 jmp	 $LN412@OnBtnAdd
$LN400@OnBtnAdd:

; 284  : 				{
; 285  : 					strNextDateTime = dlg.m_strCurrentDate;

  0037e	8d 45 88	 lea	 eax, DWORD PTR _dlg$7[ebp+180]
  00381	50		 push	 eax
  00382	8d 4d bc	 lea	 ecx, DWORD PTR _strNextDateTime$[ebp]
  00385	ff 15 00 00 00
	00		 call	 DWORD PTR __imp_??4?$CStringT@DV?$StrTraitMFC_DLL@DV?$ChTraitsCRT@D@ATL@@@@@ATL@@QAEAAV01@ABV01@@Z

; 286  : 					break;

  0038b	8d 8d d4 fe ff
	ff		 lea	 ecx, DWORD PTR _dlg$7[ebp]
  00391	e8 00 00 00 00	 call	 ??1CDlgInputDayWeek@@UAE@XZ

; 295  : 		}

  00396	8d 4d b8	 lea	 ecx, DWORD PTR _strD$49[ebp]
  00399	ff 15 00 00 00
	00		 call	 DWORD PTR __imp_??1?$CStringT@DV?$StrTraitMFC_DLL@DV?$ChTraitsCRT@D@ATL@@@@@ATL@@QAE@XZ
  0039f	8d 4d c4	 lea	 ecx, DWORD PTR _strM$58[ebp]
  003a2	ff 15 00 00 00
	00		 call	 DWORD PTR __imp_??1?$CStringT@DV?$StrTraitMFC_DLL@DV?$ChTraitsCRT@D@ATL@@@@@ATL@@QAE@XZ
  003a8	8d 4d c8	 lea	 ecx, DWORD PTR _strY$67[ebp]

; 296  : 		break;

  003ab	e9 8e 0a 00 00	 jmp	 $LN405@OnBtnAdd
$LN33@OnBtnAdd:
; File C:\Program Files (x86)\Microsoft Visual Studio\2019\Community\VC\Tools\MSVC\14.29.30133\atlmfc\include\atlsimpstr.h

; 519  : 		return( GetData()->nDataLength );

  003b0	8b 45 c0	 mov	 eax, DWORD PTR _strLastDateTime$[ebp]
; File D:\git\src\IBK\IBK_DRFN\ProjSrc\SrcChartEx\ChartAddIn\ChartDataListViewerAddIn\ChartDataListViewerAddIn\DlgDataSimulator.cpp

; 299  : 			if(strLastDateTime.GetLength() < 8) return;

  003b3	83 78 f4 08	 cmp	 DWORD PTR [eax-12], 8
  003b7	0f 8c 82 02 00
	00		 jl	 $LN117@OnBtnAdd

; 300  : 			CString strY = strLastDateTime.Left(4);

  003bd	6a 04		 push	 4
  003bf	8d 45 b0	 lea	 eax, DWORD PTR _strY$35[ebp]
  003c2	50		 push	 eax
  003c3	8d 4d c0	 lea	 ecx, DWORD PTR _strLastDateTime$[ebp]
  003c6	ff 15 00 00 00
	00		 call	 DWORD PTR __imp_?Left@?$CStringT@DV?$StrTraitMFC_DLL@DV?$ChTraitsCRT@D@ATL@@@@@ATL@@QBE?AV12@H@Z

; 301  : 			CString strM = strLastDateTime.Mid(4,2);

  003cc	6a 02		 push	 2
  003ce	6a 04		 push	 4
  003d0	8d 45 b4	 lea	 eax, DWORD PTR _strM$42[ebp]
  003d3	c6 45 fc 11	 mov	 BYTE PTR __$EHRec$[ebp+8], 17 ; 00000011H
  003d7	50		 push	 eax
  003d8	8d 4d c0	 lea	 ecx, DWORD PTR _strLastDateTime$[ebp]
  003db	ff 15 00 00 00
	00		 call	 DWORD PTR __imp_?Mid@?$CStringT@DV?$StrTraitMFC_DLL@DV?$ChTraitsCRT@D@ATL@@@@@ATL@@QBE?AV12@HH@Z

; 302  : 			CString strD = strLastDateTime.Mid(6,2);

  003e1	6a 02		 push	 2
  003e3	6a 06		 push	 6
  003e5	8d 45 b8	 lea	 eax, DWORD PTR _strD$48[ebp]
  003e8	c6 45 fc 12	 mov	 BYTE PTR __$EHRec$[ebp+8], 18 ; 00000012H
  003ec	50		 push	 eax
  003ed	8d 4d c0	 lea	 ecx, DWORD PTR _strLastDateTime$[ebp]
  003f0	ff 15 00 00 00
	00		 call	 DWORD PTR __imp_?Mid@?$CStringT@DV?$StrTraitMFC_DLL@DV?$ChTraitsCRT@D@ATL@@@@@ATL@@QBE?AV12@HH@Z
; File C:\Program Files (x86)\Microsoft Visual Studio\2019\Community\VC\Tools\MSVC\14.29.30133\atlmfc\include\atlsimpstr.h

; 377  : 		return( m_pszData );

  003f6	8b 45 b4	 mov	 eax, DWORD PTR _strM$42[ebp]
; File D:\git\src\IBK\IBK_DRFN\ProjSrc\SrcChartEx\ChartAddIn\ChartDataListViewerAddIn\ChartDataListViewerAddIn\DlgDataSimulator.cpp

; 303  : 			CTime time(atoi(strY), atoi(strM), atoi(strD), 0, 0, 0);

  003f9	8b 3d 00 00 00
	00		 mov	 edi, DWORD PTR __imp__atoi
  003ff	6a ff		 push	 -1
  00401	6a 00		 push	 0
  00403	6a 00		 push	 0
  00405	6a 00		 push	 0
  00407	ff 75 b8	 push	 DWORD PTR _strD$48[ebp]
; File C:\Program Files (x86)\Microsoft Visual Studio\2019\Community\VC\Tools\MSVC\14.29.30133\atlmfc\include\atlsimpstr.h

; 377  : 		return( m_pszData );

  0040a	89 45 c8	 mov	 DWORD PTR $T59[ebp], eax
  0040d	8b 45 b0	 mov	 eax, DWORD PTR _strY$35[ebp]
; File D:\git\src\IBK\IBK_DRFN\ProjSrc\SrcChartEx\ChartAddIn\ChartDataListViewerAddIn\ChartDataListViewerAddIn\DlgDataSimulator.cpp

; 302  : 			CString strD = strLastDateTime.Mid(6,2);

  00410	c6 45 fc 13	 mov	 BYTE PTR __$EHRec$[ebp+8], 19 ; 00000013H
; File C:\Program Files (x86)\Microsoft Visual Studio\2019\Community\VC\Tools\MSVC\14.29.30133\atlmfc\include\atlsimpstr.h

; 377  : 		return( m_pszData );

  00414	89 45 c4	 mov	 DWORD PTR $T50[ebp], eax
; File D:\git\src\IBK\IBK_DRFN\ProjSrc\SrcChartEx\ChartAddIn\ChartDataListViewerAddIn\ChartDataListViewerAddIn\DlgDataSimulator.cpp

; 303  : 			CTime time(atoi(strY), atoi(strM), atoi(strD), 0, 0, 0);

  00417	ff d7		 call	 edi
  00419	83 c4 04	 add	 esp, 4
  0041c	50		 push	 eax
  0041d	ff 75 c8	 push	 DWORD PTR $T59[ebp]
  00420	ff d7		 call	 edi
  00422	83 c4 04	 add	 esp, 4
  00425	50		 push	 eax
  00426	ff 75 c4	 push	 DWORD PTR $T50[ebp]
  00429	ff d7		 call	 edi
  0042b	83 c4 04	 add	 esp, 4
  0042e	8d 4d 98	 lea	 ecx, DWORD PTR _time$16[ebp]
  00431	50		 push	 eax
  00432	e8 00 00 00 00	 call	 ??0CTime@ATL@@QAE@HHHHHHH@Z ; ATL::CTime::CTime

; 304  : 			CTimeSpan timeSpan(m_pChartDataGridManager->m_nDataInterval * 7 , 0, 0, 0);

  00437	8b 7d a0	 mov	 edi, DWORD PTR _this$GSCopy$1$[ebp]
  0043a	6a 00		 push	 0
  0043c	6a 00		 push	 0
  0043e	6a 00		 push	 0
  00440	8b 87 38 05 00
	00		 mov	 eax, DWORD PTR [edi+1336]
  00446	8b 40 10	 mov	 eax, DWORD PTR [eax+16]
  00449	8d 0c c5 00 00
	00 00		 lea	 ecx, DWORD PTR [eax*8]
  00450	2b c8		 sub	 ecx, eax
  00452	51		 push	 ecx
  00453	8d 4d 90	 lea	 ecx, DWORD PTR _timeSpan$11[ebp]
  00456	e8 00 00 00 00	 call	 ??0CTimeSpan@ATL@@QAE@JHHH@Z ; ATL::CTimeSpan::CTimeSpan
; File C:\Program Files (x86)\Microsoft Visual Studio\2019\Community\VC\Tools\MSVC\14.29.30133\atlmfc\include\atltime.h

; 553  : 	return( CTime( m_time+span.GetTimeSpan() ) );

  0045b	8b 4d 90	 mov	 ecx, DWORD PTR _timeSpan$11[ebp]
  0045e	0f 57 c0	 xorps	 xmm0, xmm0
  00461	03 4d 98	 add	 ecx, DWORD PTR _time$16[ebp]
  00464	8b 45 94	 mov	 eax, DWORD PTR _timeSpan$11[ebp+4]
  00467	13 45 9c	 adc	 eax, DWORD PTR _time$16[ebp+4]

; 417  : 	m_time( time )

  0046a	89 45 a8	 mov	 DWORD PTR _nextTime$22[ebp+4], eax
; File D:\git\src\IBK\IBK_DRFN\ProjSrc\SrcChartEx\ChartAddIn\ChartDataListViewerAddIn\ChartDataListViewerAddIn\DlgDataSimulator.cpp

; 307  : 			struct tm * pTm = nextTime.GetGmtTm(&stTm);

  0046d	8d 45 cc	 lea	 eax, DWORD PTR _stTm$68[ebp]
; File C:\Program Files (x86)\Microsoft Visual Studio\2019\Community\VC\Tools\MSVC\14.29.30133\atlmfc\include\atltime.h

; 417  : 	m_time( time )

  00470	89 4d a4	 mov	 DWORD PTR _nextTime$22[ebp], ecx
; File D:\git\src\IBK\IBK_DRFN\ProjSrc\SrcChartEx\ChartAddIn\ChartDataListViewerAddIn\ChartDataListViewerAddIn\DlgDataSimulator.cpp

; 307  : 			struct tm * pTm = nextTime.GetGmtTm(&stTm);

  00473	8d 4d a4	 lea	 ecx, DWORD PTR _nextTime$22[ebp]
  00476	50		 push	 eax
  00477	0f 11 45 cc	 movups	 XMMWORD PTR _stTm$68[ebp], xmm0
  0047b	c7 45 ec 00 00
	00 00		 mov	 DWORD PTR _stTm$68[ebp+32], 0
  00482	0f 11 45 dc	 movups	 XMMWORD PTR _stTm$68[ebp+16], xmm0
  00486	e8 00 00 00 00	 call	 ?GetGmtTm@CTime@ATL@@QBEPAUtm@@PAU3@@Z ; ATL::CTime::GetGmtTm

; 308  : 			if(!pTm)

  0048b	85 c0		 test	 eax, eax
  0048d	75 52		 jne	 SHORT $LN35@OnBtnAdd

; 309  : 			{
; 310  : 				CString strMsg, strDlgTitle;

  0048f	8d 4d c4	 lea	 ecx, DWORD PTR _strMsg$57[ebp]
  00492	ff 15 00 00 00
	00		 call	 DWORD PTR __imp_??0?$CStringT@DV?$StrTraitMFC_DLL@DV?$ChTraitsCRT@D@ATL@@@@@ATL@@QAE@XZ
  00498	8d 4d c8	 lea	 ecx, DWORD PTR _strDlgTitle$66[ebp]
  0049b	ff 15 00 00 00
	00		 call	 DWORD PTR __imp_??0?$CStringT@DV?$StrTraitMFC_DLL@DV?$ChTraitsCRT@D@ATL@@@@@ATL@@QAE@XZ

; 311  : 				GetWindowText(strDlgTitle);

  004a1	8d 45 c8	 lea	 eax, DWORD PTR _strDlgTitle$66[ebp]
  004a4	c6 45 fc 15	 mov	 BYTE PTR __$EHRec$[ebp+8], 21 ; 00000015H
  004a8	50		 push	 eax
  004a9	8b cf		 mov	 ecx, edi
  004ab	e8 00 00 00 00	 call	 ?GetWindowTextA@CWnd@@QBEXAAV?$CStringT@DV?$StrTraitMFC_DLL@DV?$ChTraitsCRT@D@ATL@@@@@ATL@@@Z ; CWnd::GetWindowTextA

; 312  : 				strMsg.LoadString(IDS_MSG_ADD_DATE_MAX_ERROR);

  004b0	6a 19		 push	 25			; 00000019H
  004b2	8d 4d c4	 lea	 ecx, DWORD PTR _strMsg$57[ebp]
  004b5	ff 15 00 00 00
	00		 call	 DWORD PTR __imp_?LoadStringA@?$CStringT@DV?$StrTraitMFC_DLL@DV?$ChTraitsCRT@D@ATL@@@@@ATL@@QAEHI@Z

; 313  : 				MessageBox(strMsg, strDlgTitle);					

  004bb	6a 00		 push	 0
  004bd	ff 75 c8	 push	 DWORD PTR _strDlgTitle$66[ebp]
  004c0	8b cf		 mov	 ecx, edi
  004c2	ff 75 c4	 push	 DWORD PTR _strMsg$57[ebp]
  004c5	e8 00 00 00 00	 call	 ?MessageBoxA@CWnd@@QAEHPBD0I@Z ; CWnd::MessageBoxA

; 314  : 				return;

  004ca	8d 4d c8	 lea	 ecx, DWORD PTR _strDlgTitle$66[ebp]
  004cd	ff 15 00 00 00
	00		 call	 DWORD PTR __imp_??1?$CStringT@DV?$StrTraitMFC_DLL@DV?$ChTraitsCRT@D@ATL@@@@@ATL@@QAE@XZ
  004d3	8d 4d c4	 lea	 ecx, DWORD PTR _strMsg$57[ebp]
  004d6	ff 15 00 00 00
	00		 call	 DWORD PTR __imp_??1?$CStringT@DV?$StrTraitMFC_DLL@DV?$ChTraitsCRT@D@ATL@@@@@ATL@@QAE@XZ
  004dc	e9 43 01 00 00	 jmp	 $LN106@OnBtnAdd
$LN35@OnBtnAdd:

; 315  : 			}
; 316  : 			strNextDateTime.Format("%04d%02d%02d", nextTime.GetYear(), nextTime.GetMonth(), nextTime.GetDay());

  004e1	8d 4d a4	 lea	 ecx, DWORD PTR _nextTime$22[ebp]
  004e4	e8 00 00 00 00	 call	 ?GetDay@CTime@ATL@@QBEHXZ ; ATL::CTime::GetDay
  004e9	50		 push	 eax
  004ea	8d 4d a4	 lea	 ecx, DWORD PTR _nextTime$22[ebp]
  004ed	e8 00 00 00 00	 call	 ?GetMonth@CTime@ATL@@QBEHXZ ; ATL::CTime::GetMonth
  004f2	50		 push	 eax
  004f3	8d 4d a4	 lea	 ecx, DWORD PTR _nextTime$22[ebp]
  004f6	e8 00 00 00 00	 call	 ?GetYear@CTime@ATL@@QBEHXZ ; ATL::CTime::GetYear
  004fb	50		 push	 eax
  004fc	8d 45 bc	 lea	 eax, DWORD PTR _strNextDateTime$[ebp]
  004ff	68 00 00 00 00	 push	 OFFSET ??_C@_0N@DEAKEBCF@?$CF04d?$CF02d?$CF02d@
  00504	50		 push	 eax
  00505	ff 15 00 00 00
	00		 call	 DWORD PTR __imp_?Format@?$CStringT@DV?$StrTraitMFC_DLL@DV?$ChTraitsCRT@D@ATL@@@@@ATL@@QAAXPBDZZ
  0050b	83 c4 14	 add	 esp, 20			; 00000014H

; 317  : 
; 318  : 
; 319  : 			do{
; 320  : 
; 321  : 				CDlgInputDayWeek dlg;

  0050e	8d 8d d4 fe ff
	ff		 lea	 ecx, DWORD PTR _dlg$6[ebp]
  00514	6a 00		 push	 0
  00516	e8 00 00 00 00	 call	 ??0CDlgInputDayWeek@@QAE@PAVCWnd@@@Z ; CDlgInputDayWeek::CDlgInputDayWeek

; 322  : 				dlg.m_strCurrentDate = strNextDateTime;

  0051b	8d 45 bc	 lea	 eax, DWORD PTR _strNextDateTime$[ebp]
  0051e	c6 45 fc 17	 mov	 BYTE PTR __$EHRec$[ebp+8], 23 ; 00000017H
  00522	50		 push	 eax
  00523	8d 4d 88	 lea	 ecx, DWORD PTR _dlg$6[ebp+180]
  00526	ff 15 00 00 00
	00		 call	 DWORD PTR __imp_??4?$CStringT@DV?$StrTraitMFC_DLL@DV?$ChTraitsCRT@D@ATL@@@@@ATL@@QAEAAV01@ABV01@@Z

; 323  : 				if(dlg.DoModal() == IDCANCEL)

  0052c	8d 8d d4 fe ff
	ff		 lea	 ecx, DWORD PTR _dlg$6[ebp]
  00532	e8 00 00 00 00	 call	 ?DoModal@CDialog@@UAEHXZ ; CDialog::DoModal
  00537	83 f8 02	 cmp	 eax, 2
  0053a	0f 84 d9 00 00
	00		 je	 $LN385@OnBtnAdd
$LL9@OnBtnAdd:

; 326  : 				if(m_pChartDataGridManager->m_ChartDataList.GetCount() <= 0 || strLastDateTime < dlg.m_strCurrentDate)

  00540	8b 87 38 05 00
	00		 mov	 eax, DWORD PTR [edi+1336]
  00546	83 78 38 00	 cmp	 DWORD PTR [eax+56], 0
  0054a	0f 8e 2b 01 00
	00		 jle	 $LN401@OnBtnAdd
; File C:\Program Files (x86)\Microsoft Visual Studio\2019\Community\VC\Tools\MSVC\14.29.30133\atlmfc\include\cstringt.h

; 2601 : 		return( str1.Compare( str2 ) < 0 );

  00550	ff 75 88	 push	 DWORD PTR _dlg$6[ebp+180]
  00553	8d 4d c0	 lea	 ecx, DWORD PTR _strLastDateTime$[ebp]
  00556	ff 15 00 00 00
	00		 call	 DWORD PTR __imp_?Compare@?$CStringT@DV?$StrTraitMFC_DLL@DV?$ChTraitsCRT@D@ATL@@@@@ATL@@QBEHPBD@Z
  0055c	85 c0		 test	 eax, eax
; File D:\git\src\IBK\IBK_DRFN\ProjSrc\SrcChartEx\ChartAddIn\ChartDataListViewerAddIn\ChartDataListViewerAddIn\DlgDataSimulator.cpp

; 326  : 				if(m_pChartDataGridManager->m_ChartDataList.GetCount() <= 0 || strLastDateTime < dlg.m_strCurrentDate)

  0055e	0f 88 17 01 00
	00		 js	 $LN401@OnBtnAdd

; 330  : 				}
; 331  : 
; 332  : 				CString strMsg, strDlgTitle;

  00564	8d 4d c4	 lea	 ecx, DWORD PTR _strMsg$56[ebp]
  00567	ff 15 00 00 00
	00		 call	 DWORD PTR __imp_??0?$CStringT@DV?$StrTraitMFC_DLL@DV?$ChTraitsCRT@D@ATL@@@@@ATL@@QAE@XZ
  0056d	8d 4d c8	 lea	 ecx, DWORD PTR _strDlgTitle$65[ebp]
  00570	ff 15 00 00 00
	00		 call	 DWORD PTR __imp_??0?$CStringT@DV?$StrTraitMFC_DLL@DV?$ChTraitsCRT@D@ATL@@@@@ATL@@QAE@XZ

; 333  : 				GetWindowText(strDlgTitle);

  00576	8d 45 c8	 lea	 eax, DWORD PTR _strDlgTitle$65[ebp]
  00579	c6 45 fc 1a	 mov	 BYTE PTR __$EHRec$[ebp+8], 26 ; 0000001aH
  0057d	50		 push	 eax
  0057e	8b cf		 mov	 ecx, edi
  00580	e8 00 00 00 00	 call	 ?GetWindowTextA@CWnd@@QBEXAAV?$CStringT@DV?$StrTraitMFC_DLL@DV?$ChTraitsCRT@D@ATL@@@@@ATL@@@Z ; CWnd::GetWindowTextA

; 334  : 				strMsg.LoadString(IDS_MSG_ADD_DATE_ERROR);

  00585	6a 15		 push	 21			; 00000015H
  00587	8d 4d c4	 lea	 ecx, DWORD PTR _strMsg$56[ebp]
  0058a	ff 15 00 00 00
	00		 call	 DWORD PTR __imp_?LoadStringA@?$CStringT@DV?$StrTraitMFC_DLL@DV?$ChTraitsCRT@D@ATL@@@@@ATL@@QAEHI@Z

; 335  : 				MessageBox(strMsg, strDlgTitle);	

  00590	6a 00		 push	 0
  00592	ff 75 c8	 push	 DWORD PTR _strDlgTitle$65[ebp]
  00595	8b cf		 mov	 ecx, edi
  00597	ff 75 c4	 push	 DWORD PTR _strMsg$56[ebp]
  0059a	e8 00 00 00 00	 call	 ?MessageBoxA@CWnd@@QAEHPBD0I@Z ; CWnd::MessageBoxA

; 336  : 				
; 337  : 			}while(1);

  0059f	8d 4d c8	 lea	 ecx, DWORD PTR _strDlgTitle$65[ebp]
  005a2	ff 15 00 00 00
	00		 call	 DWORD PTR __imp_??1?$CStringT@DV?$StrTraitMFC_DLL@DV?$ChTraitsCRT@D@ATL@@@@@ATL@@QAE@XZ
  005a8	8d 4d c4	 lea	 ecx, DWORD PTR _strMsg$56[ebp]
  005ab	ff 15 00 00 00
	00		 call	 DWORD PTR __imp_??1?$CStringT@DV?$StrTraitMFC_DLL@DV?$ChTraitsCRT@D@ATL@@@@@ATL@@QAE@XZ
  005b1	8d 4d 88	 lea	 ecx, DWORD PTR _dlg$6[ebp+180]
  005b4	c6 45 fc 13	 mov	 BYTE PTR __$EHRec$[ebp+8], 19 ; 00000013H
  005b8	ff 15 00 00 00
	00		 call	 DWORD PTR __imp_??1?$CStringT@DV?$StrTraitMFC_DLL@DV?$ChTraitsCRT@D@ATL@@@@@ATL@@QAE@XZ
  005be	8d 4d 84	 lea	 ecx, DWORD PTR _dlg$6[ebp+176]
  005c1	ff 15 00 00 00
	00		 call	 DWORD PTR __imp_??1?$CStringT@DV?$StrTraitMFC_DLL@DV?$ChTraitsCRT@D@ATL@@@@@ATL@@QAE@XZ
  005c7	8d 4d 80	 lea	 ecx, DWORD PTR _dlg$6[ebp+172]
  005ca	ff 15 00 00 00
	00		 call	 DWORD PTR __imp_??1?$CStringT@DV?$StrTraitMFC_DLL@DV?$ChTraitsCRT@D@ATL@@@@@ATL@@QAE@XZ
  005d0	8d 8d 7c ff ff
	ff		 lea	 ecx, DWORD PTR _dlg$6[ebp+168]
  005d6	ff 15 00 00 00
	00		 call	 DWORD PTR __imp_??1?$CStringT@DV?$StrTraitMFC_DLL@DV?$ChTraitsCRT@D@ATL@@@@@ATL@@QAE@XZ
  005dc	8d 8d d4 fe ff
	ff		 lea	 ecx, DWORD PTR _dlg$6[ebp]
  005e2	e8 00 00 00 00	 call	 ??1CDialog@@UAE@XZ	; CDialog::~CDialog
  005e7	6a 00		 push	 0
  005e9	8d 8d d4 fe ff
	ff		 lea	 ecx, DWORD PTR _dlg$6[ebp]
  005ef	e8 00 00 00 00	 call	 ??0CDlgInputDayWeek@@QAE@PAVCWnd@@@Z ; CDlgInputDayWeek::CDlgInputDayWeek
  005f4	8d 45 bc	 lea	 eax, DWORD PTR _strNextDateTime$[ebp]
  005f7	c6 45 fc 17	 mov	 BYTE PTR __$EHRec$[ebp+8], 23 ; 00000017H
  005fb	50		 push	 eax
  005fc	8d 4d 88	 lea	 ecx, DWORD PTR _dlg$6[ebp+180]
  005ff	ff 15 00 00 00
	00		 call	 DWORD PTR __imp_??4?$CStringT@DV?$StrTraitMFC_DLL@DV?$ChTraitsCRT@D@ATL@@@@@ATL@@QAEAAV01@ABV01@@Z
  00605	8d 8d d4 fe ff
	ff		 lea	 ecx, DWORD PTR _dlg$6[ebp]
  0060b	e8 00 00 00 00	 call	 ?DoModal@CDialog@@UAEHXZ ; CDialog::DoModal
  00610	83 f8 02	 cmp	 eax, 2
  00613	0f 85 27 ff ff
	ff		 jne	 $LL9@OnBtnAdd
$LN385@OnBtnAdd:

; 324  : 					return;

  00619	8d 8d d4 fe ff
	ff		 lea	 ecx, DWORD PTR _dlg$6[ebp]
  0061f	e8 00 00 00 00	 call	 ??1CDlgInputDayWeek@@UAE@XZ
$LN106@OnBtnAdd:
  00624	8d 4d b8	 lea	 ecx, DWORD PTR _strD$48[ebp]
  00627	ff 15 00 00 00
	00		 call	 DWORD PTR __imp_??1?$CStringT@DV?$StrTraitMFC_DLL@DV?$ChTraitsCRT@D@ATL@@@@@ATL@@QAE@XZ
  0062d	8d 4d b4	 lea	 ecx, DWORD PTR _strM$42[ebp]
$LN413@OnBtnAdd:

; 481  : }

  00630	ff 15 00 00 00
	00		 call	 DWORD PTR __imp_??1?$CStringT@DV?$StrTraitMFC_DLL@DV?$ChTraitsCRT@D@ATL@@@@@ATL@@QAE@XZ
  00636	8d 4d b0	 lea	 ecx, DWORD PTR _strY$34[ebp]
$LN412@OnBtnAdd:
  00639	ff 15 00 00 00
	00		 call	 DWORD PTR __imp_??1?$CStringT@DV?$StrTraitMFC_DLL@DV?$ChTraitsCRT@D@ATL@@@@@ATL@@QAE@XZ
$LN117@OnBtnAdd:
  0063f	8d 4d c0	 lea	 ecx, DWORD PTR _strLastDateTime$[ebp]
  00642	ff 15 00 00 00
	00		 call	 DWORD PTR __imp_??1?$CStringT@DV?$StrTraitMFC_DLL@DV?$ChTraitsCRT@D@ATL@@@@@ATL@@QAE@XZ
  00648	8d 4d bc	 lea	 ecx, DWORD PTR _strNextDateTime$[ebp]
  0064b	ff 15 00 00 00
	00		 call	 DWORD PTR __imp_??1?$CStringT@DV?$StrTraitMFC_DLL@DV?$ChTraitsCRT@D@ATL@@@@@ATL@@QAE@XZ
; File D:\git\src\IBK\IBK_DRFN\ProjSrc\SrcChartEx\ChartAddIn\ChartDataListViewerAddIn\Include_Chart\DLL_Load\IMetaTable.h

; 1036 : 	{

  00651	c7 45 fc 3b 00
	00 00		 mov	 DWORD PTR __$EHRec$[ebp+8], 59 ; 0000003bH
; File C:\Program Files (x86)\Microsoft Visual Studio\2019\Community\VC\Tools\MSVC\14.29.30133\atlmfc\include\afxwin1.inl

; 27   : 	{ ASSERT(hInstResource != NULL); afxCurrentResourceHandle = hInstResource; }

  00658	e8 00 00 00 00	 call	 ?AfxGetModuleState@@YGPAVAFX_MODULE_STATE@@XZ ; AfxGetModuleState
  0065d	89 70 0c	 mov	 DWORD PTR [eax+12], esi
$LN376@OnBtnAdd:
; File D:\git\src\IBK\IBK_DRFN\ProjSrc\SrcChartEx\ChartAddIn\ChartDataListViewerAddIn\ChartDataListViewerAddIn\DlgDataSimulator.cpp

; 481  : }

  00660	8b 4d f4	 mov	 ecx, DWORD PTR __$EHRec$[ebp]
  00663	64 89 0d 00 00
	00 00		 mov	 DWORD PTR fs:0, ecx
  0066a	59		 pop	 ecx
  0066b	5f		 pop	 edi
  0066c	5e		 pop	 esi
  0066d	8b 4d f0	 mov	 ecx, DWORD PTR __$ArrayPad$[ebp]
  00670	33 cd		 xor	 ecx, ebp
  00672	e8 00 00 00 00	 call	 @__security_check_cookie@4
  00677	8b e5		 mov	 esp, ebp
  00679	5d		 pop	 ebp
  0067a	c3		 ret	 0
$LN401@OnBtnAdd:

; 327  : 				{
; 328  : 					strNextDateTime = dlg.m_strCurrentDate;

  0067b	8d 45 88	 lea	 eax, DWORD PTR _dlg$6[ebp+180]
  0067e	50		 push	 eax
  0067f	8d 4d bc	 lea	 ecx, DWORD PTR _strNextDateTime$[ebp]
  00682	ff 15 00 00 00
	00		 call	 DWORD PTR __imp_??4?$CStringT@DV?$StrTraitMFC_DLL@DV?$ChTraitsCRT@D@ATL@@@@@ATL@@QAEAAV01@ABV01@@Z

; 329  : 					break;

  00688	8d 8d d4 fe ff
	ff		 lea	 ecx, DWORD PTR _dlg$6[ebp]
  0068e	e8 00 00 00 00	 call	 ??1CDlgInputDayWeek@@UAE@XZ

; 338  : 		}

  00693	8d 4d b8	 lea	 ecx, DWORD PTR _strD$48[ebp]
  00696	ff 15 00 00 00
	00		 call	 DWORD PTR __imp_??1?$CStringT@DV?$StrTraitMFC_DLL@DV?$ChTraitsCRT@D@ATL@@@@@ATL@@QAE@XZ
  0069c	8d 4d b4	 lea	 ecx, DWORD PTR _strM$42[ebp]
  0069f	ff 15 00 00 00
	00		 call	 DWORD PTR __imp_??1?$CStringT@DV?$StrTraitMFC_DLL@DV?$ChTraitsCRT@D@ATL@@@@@ATL@@QAE@XZ
  006a5	8d 4d b0	 lea	 ecx, DWORD PTR _strY$35[ebp]

; 339  : 		break;

  006a8	e9 91 07 00 00	 jmp	 $LN405@OnBtnAdd
$LN39@OnBtnAdd:
; File C:\Program Files (x86)\Microsoft Visual Studio\2019\Community\VC\Tools\MSVC\14.29.30133\atlmfc\include\atlsimpstr.h

; 519  : 		return( GetData()->nDataLength );

  006ad	8b 45 c0	 mov	 eax, DWORD PTR _strLastDateTime$[ebp]
; File D:\git\src\IBK\IBK_DRFN\ProjSrc\SrcChartEx\ChartAddIn\ChartDataListViewerAddIn\ChartDataListViewerAddIn\DlgDataSimulator.cpp

; 343  : 			if(strLastDateTime.GetLength() < 6) return;

  006b0	83 78 f4 06	 cmp	 DWORD PTR [eax-12], 6
  006b4	7c 89		 jl	 SHORT $LN117@OnBtnAdd

; 344  : 			CString strY = strLastDateTime.Left(4);

  006b6	6a 04		 push	 4
  006b8	8d 45 b0	 lea	 eax, DWORD PTR _strY$34[ebp]
  006bb	50		 push	 eax
  006bc	8d 4d c0	 lea	 ecx, DWORD PTR _strLastDateTime$[ebp]
  006bf	ff 15 00 00 00
	00		 call	 DWORD PTR __imp_?Left@?$CStringT@DV?$StrTraitMFC_DLL@DV?$ChTraitsCRT@D@ATL@@@@@ATL@@QBE?AV12@H@Z

; 345  : 			CString strM = strLastDateTime.Mid(4,2); 

  006c5	6a 02		 push	 2
  006c7	6a 04		 push	 4
  006c9	8d 45 b8	 lea	 eax, DWORD PTR _strM$47[ebp]
  006cc	c6 45 fc 1c	 mov	 BYTE PTR __$EHRec$[ebp+8], 28 ; 0000001cH
  006d0	50		 push	 eax
  006d1	8d 4d c0	 lea	 ecx, DWORD PTR _strLastDateTime$[ebp]
  006d4	ff 15 00 00 00
	00		 call	 DWORD PTR __imp_?Mid@?$CStringT@DV?$StrTraitMFC_DLL@DV?$ChTraitsCRT@D@ATL@@@@@ATL@@QBE?AV12@HH@Z

; 346  : 			int nMonth   = atoi(strM);

  006da	ff 75 b8	 push	 DWORD PTR _strM$47[ebp]
  006dd	c6 45 fc 1d	 mov	 BYTE PTR __$EHRec$[ebp+8], 29 ; 0000001dH
  006e1	ff 15 00 00 00
	00		 call	 DWORD PTR __imp__atoi

; 347  : 			int nAddMonth= ( nMonth + m_pChartDataGridManager->m_nDataInterval ) % 12; 

  006e7	8b 8f 38 05 00
	00		 mov	 ecx, DWORD PTR [edi+1336]
  006ed	c7 45 c8 0c 00
	00 00		 mov	 DWORD PTR tv92[ebp], 12	; 0000000cH

; 348  : 			nAddMonth	 = (nAddMonth == 0) ? 12 : nAddMonth;
; 349  : 			int nAddYear = ( nMonth + m_pChartDataGridManager->m_nDataInterval - 1) / 12 ;
; 350  : 			if(nAddYear + atoi(strY) >= 2038)

  006f4	ff 75 b0	 push	 DWORD PTR _strY$34[ebp]
  006f7	8b 49 10	 mov	 ecx, DWORD PTR [ecx+16]
  006fa	03 c8		 add	 ecx, eax
  006fc	8b c1		 mov	 eax, ecx
  006fe	99		 cdq
  006ff	f7 7d c8	 idiv	 DWORD PTR tv92[ebp]
  00702	8b c2		 mov	 eax, edx
  00704	85 c0		 test	 eax, eax
  00706	0f 44 45 c8	 cmove	 eax, DWORD PTR tv92[ebp]
  0070a	49		 dec	 ecx
  0070b	89 45 c4	 mov	 DWORD PTR _nAddMonth$2$[ebp], eax
  0070e	b8 ab aa aa 2a	 mov	 eax, 715827883		; 2aaaaaabH
  00713	f7 e9		 imul	 ecx
  00715	d1 fa		 sar	 edx, 1
  00717	8b c2		 mov	 eax, edx
  00719	c1 e8 1f	 shr	 eax, 31			; 0000001fH
  0071c	03 c2		 add	 eax, edx
  0071e	89 45 c8	 mov	 DWORD PTR _nAddYear$1$[ebp], eax
  00721	ff 15 00 00 00
	00		 call	 DWORD PTR __imp__atoi
  00727	03 45 c8	 add	 eax, DWORD PTR _nAddYear$1$[ebp]
  0072a	83 c4 08	 add	 esp, 8
  0072d	3d f6 07 00 00	 cmp	 eax, 2038		; 000007f6H
  00732	7c 55		 jl	 SHORT $LN41@OnBtnAdd

; 351  : 			{
; 352  : 				CString strMsg, strDlgTitle;

  00734	8d 4d c4	 lea	 ecx, DWORD PTR _strMsg$55[ebp]
  00737	ff 15 00 00 00
	00		 call	 DWORD PTR __imp_??0?$CStringT@DV?$StrTraitMFC_DLL@DV?$ChTraitsCRT@D@ATL@@@@@ATL@@QAE@XZ
  0073d	8d 4d c8	 lea	 ecx, DWORD PTR _strDlgTitle$64[ebp]
  00740	ff 15 00 00 00
	00		 call	 DWORD PTR __imp_??0?$CStringT@DV?$StrTraitMFC_DLL@DV?$ChTraitsCRT@D@ATL@@@@@ATL@@QAE@XZ

; 353  : 				GetWindowText(strDlgTitle);

  00746	8d 45 c8	 lea	 eax, DWORD PTR _strDlgTitle$64[ebp]
  00749	c6 45 fc 1f	 mov	 BYTE PTR __$EHRec$[ebp+8], 31 ; 0000001fH
  0074d	50		 push	 eax
  0074e	8b cf		 mov	 ecx, edi
  00750	e8 00 00 00 00	 call	 ?GetWindowTextA@CWnd@@QBEXAAV?$CStringT@DV?$StrTraitMFC_DLL@DV?$ChTraitsCRT@D@ATL@@@@@ATL@@@Z ; CWnd::GetWindowTextA

; 354  : 				strMsg.LoadString(IDS_MSG_ADD_DATE_MAX_ERROR);

  00755	6a 19		 push	 25			; 00000019H
  00757	8d 4d c4	 lea	 ecx, DWORD PTR _strMsg$55[ebp]
  0075a	ff 15 00 00 00
	00		 call	 DWORD PTR __imp_?LoadStringA@?$CStringT@DV?$StrTraitMFC_DLL@DV?$ChTraitsCRT@D@ATL@@@@@ATL@@QAEHI@Z

; 355  : 				MessageBox(strMsg, strDlgTitle);					

  00760	6a 00		 push	 0
  00762	ff 75 c8	 push	 DWORD PTR _strDlgTitle$64[ebp]
  00765	8b cf		 mov	 ecx, edi
  00767	ff 75 c4	 push	 DWORD PTR _strMsg$55[ebp]
  0076a	e8 00 00 00 00	 call	 ?MessageBoxA@CWnd@@QAEHPBD0I@Z ; CWnd::MessageBoxA

; 356  : 				return;

  0076f	8d 4d c8	 lea	 ecx, DWORD PTR _strDlgTitle$64[ebp]
  00772	ff 15 00 00 00
	00		 call	 DWORD PTR __imp_??1?$CStringT@DV?$StrTraitMFC_DLL@DV?$ChTraitsCRT@D@ATL@@@@@ATL@@QAE@XZ
  00778	8d 4d c4	 lea	 ecx, DWORD PTR _strMsg$55[ebp]
  0077b	ff 15 00 00 00
	00		 call	 DWORD PTR __imp_??1?$CStringT@DV?$StrTraitMFC_DLL@DV?$ChTraitsCRT@D@ATL@@@@@ATL@@QAE@XZ

; 366  : 					return;

  00781	8d 4d b8	 lea	 ecx, DWORD PTR _strM$47[ebp]
  00784	e9 a7 fe ff ff	 jmp	 $LN413@OnBtnAdd
$LN41@OnBtnAdd:

; 357  : 			}
; 358  : 
; 359  : 			strNextDateTime.Format("%04d%02d", nAddYear + atoi(strY), nAddMonth);

  00789	ff 75 c4	 push	 DWORD PTR _nAddMonth$2$[ebp]
  0078c	ff 75 b0	 push	 DWORD PTR _strY$34[ebp]
  0078f	ff 15 00 00 00
	00		 call	 DWORD PTR __imp__atoi
  00795	03 45 c8	 add	 eax, DWORD PTR _nAddYear$1$[ebp]
  00798	83 c4 04	 add	 esp, 4
  0079b	50		 push	 eax
  0079c	8d 45 bc	 lea	 eax, DWORD PTR _strNextDateTime$[ebp]
  0079f	68 00 00 00 00	 push	 OFFSET ??_C@_08EEGAHEEF@?$CF04d?$CF02d@
  007a4	50		 push	 eax
  007a5	ff 15 00 00 00
	00		 call	 DWORD PTR __imp_?Format@?$CStringT@DV?$StrTraitMFC_DLL@DV?$ChTraitsCRT@D@ATL@@@@@ATL@@QAAXPBDZZ
  007ab	83 c4 10	 add	 esp, 16			; 00000010H

; 360  : 
; 361  : 			do{
; 362  : 
; 363  : 				CDlgInputMonth dlg( m_hOcxWnd);

  007ae	8d 8d d4 fe ff
	ff		 lea	 ecx, DWORD PTR _dlg$5[ebp]
  007b4	6a 00		 push	 0
  007b6	ff b7 ac 00 00
	00		 push	 DWORD PTR [edi+172]
  007bc	e8 00 00 00 00	 call	 ??0CDlgInputMonth@@QAE@PAUHWND__@@PAVCWnd@@@Z ; CDlgInputMonth::CDlgInputMonth

; 364  : 				dlg.m_strCurrentDate = strNextDateTime;

  007c1	8d 45 bc	 lea	 eax, DWORD PTR _strNextDateTime$[ebp]
  007c4	c6 45 fc 21	 mov	 BYTE PTR __$EHRec$[ebp+8], 33 ; 00000021H
  007c8	50		 push	 eax
  007c9	8d 4d 84	 lea	 ecx, DWORD PTR _dlg$5[ebp+176]
  007cc	ff 15 00 00 00
	00		 call	 DWORD PTR __imp_??4?$CStringT@DV?$StrTraitMFC_DLL@DV?$ChTraitsCRT@D@ATL@@@@@ATL@@QAEAAV01@ABV01@@Z

; 365  : 				if(dlg.DoModal() == IDCANCEL)

  007d2	8d 8d d4 fe ff
	ff		 lea	 ecx, DWORD PTR _dlg$5[ebp]
  007d8	e8 00 00 00 00	 call	 ?DoModal@CDialog@@UAEHXZ ; CDialog::DoModal
  007dd	83 f8 02	 cmp	 eax, 2
  007e0	0f 84 e0 00 00
	00		 je	 $LN387@OnBtnAdd
  007e6	66 66 0f 1f 84
	00 00 00 00 00	 npad	 10
$LL12@OnBtnAdd:

; 368  : 				if(m_pChartDataGridManager->m_ChartDataList.GetCount() <= 0 || strLastDateTime < dlg.m_strCurrentDate)

  007f0	8b 87 38 05 00
	00		 mov	 eax, DWORD PTR [edi+1336]
  007f6	83 78 38 00	 cmp	 DWORD PTR [eax+56], 0
  007fa	0f 8e f7 00 00
	00		 jle	 $LN388@OnBtnAdd
; File C:\Program Files (x86)\Microsoft Visual Studio\2019\Community\VC\Tools\MSVC\14.29.30133\atlmfc\include\cstringt.h

; 2601 : 		return( str1.Compare( str2 ) < 0 );

  00800	ff 75 84	 push	 DWORD PTR _dlg$5[ebp+176]
  00803	8d 4d c0	 lea	 ecx, DWORD PTR _strLastDateTime$[ebp]
  00806	ff 15 00 00 00
	00		 call	 DWORD PTR __imp_?Compare@?$CStringT@DV?$StrTraitMFC_DLL@DV?$ChTraitsCRT@D@ATL@@@@@ATL@@QBEHPBD@Z
  0080c	85 c0		 test	 eax, eax
; File D:\git\src\IBK\IBK_DRFN\ProjSrc\SrcChartEx\ChartAddIn\ChartDataListViewerAddIn\ChartDataListViewerAddIn\DlgDataSimulator.cpp

; 368  : 				if(m_pChartDataGridManager->m_ChartDataList.GetCount() <= 0 || strLastDateTime < dlg.m_strCurrentDate)

  0080e	0f 88 e3 00 00
	00		 js	 $LN388@OnBtnAdd

; 371  : 					break;
; 372  : 				}
; 373  : 
; 374  : 				CString strMsg, strDlgTitle;

  00814	8d 4d c4	 lea	 ecx, DWORD PTR _strMsg$54[ebp]
  00817	ff 15 00 00 00
	00		 call	 DWORD PTR __imp_??0?$CStringT@DV?$StrTraitMFC_DLL@DV?$ChTraitsCRT@D@ATL@@@@@ATL@@QAE@XZ
  0081d	8d 4d c8	 lea	 ecx, DWORD PTR _strDlgTitle$63[ebp]
  00820	ff 15 00 00 00
	00		 call	 DWORD PTR __imp_??0?$CStringT@DV?$StrTraitMFC_DLL@DV?$ChTraitsCRT@D@ATL@@@@@ATL@@QAE@XZ

; 375  : 				GetWindowText(strDlgTitle);

  00826	8d 45 c8	 lea	 eax, DWORD PTR _strDlgTitle$63[ebp]
  00829	c6 45 fc 24	 mov	 BYTE PTR __$EHRec$[ebp+8], 36 ; 00000024H
  0082d	50		 push	 eax
  0082e	8b cf		 mov	 ecx, edi
  00830	e8 00 00 00 00	 call	 ?GetWindowTextA@CWnd@@QBEXAAV?$CStringT@DV?$StrTraitMFC_DLL@DV?$ChTraitsCRT@D@ATL@@@@@ATL@@@Z ; CWnd::GetWindowTextA

; 376  : 				strMsg.LoadString(IDS_MSG_ADD_DATE_ERROR);

  00835	6a 15		 push	 21			; 00000015H
  00837	8d 4d c4	 lea	 ecx, DWORD PTR _strMsg$54[ebp]
  0083a	ff 15 00 00 00
	00		 call	 DWORD PTR __imp_?LoadStringA@?$CStringT@DV?$StrTraitMFC_DLL@DV?$ChTraitsCRT@D@ATL@@@@@ATL@@QAEHI@Z

; 377  : 				MessageBox(strMsg, strDlgTitle);	

  00840	6a 00		 push	 0
  00842	ff 75 c8	 push	 DWORD PTR _strDlgTitle$63[ebp]
  00845	8b cf		 mov	 ecx, edi
  00847	ff 75 c4	 push	 DWORD PTR _strMsg$54[ebp]
  0084a	e8 00 00 00 00	 call	 ?MessageBoxA@CWnd@@QAEHPBD0I@Z ; CWnd::MessageBoxA

; 378  : 				
; 379  : 			}while(1);

  0084f	8d 4d c8	 lea	 ecx, DWORD PTR _strDlgTitle$63[ebp]
  00852	ff 15 00 00 00
	00		 call	 DWORD PTR __imp_??1?$CStringT@DV?$StrTraitMFC_DLL@DV?$ChTraitsCRT@D@ATL@@@@@ATL@@QAE@XZ
  00858	8d 4d c4	 lea	 ecx, DWORD PTR _strMsg$54[ebp]
  0085b	ff 15 00 00 00
	00		 call	 DWORD PTR __imp_??1?$CStringT@DV?$StrTraitMFC_DLL@DV?$ChTraitsCRT@D@ATL@@@@@ATL@@QAE@XZ
  00861	8d 4d 84	 lea	 ecx, DWORD PTR _dlg$5[ebp+176]
  00864	c6 45 fc 1d	 mov	 BYTE PTR __$EHRec$[ebp+8], 29 ; 0000001dH
  00868	ff 15 00 00 00
	00		 call	 DWORD PTR __imp_??1?$CStringT@DV?$StrTraitMFC_DLL@DV?$ChTraitsCRT@D@ATL@@@@@ATL@@QAE@XZ
  0086e	8d 4d 80	 lea	 ecx, DWORD PTR _dlg$5[ebp+172]
  00871	ff 15 00 00 00
	00		 call	 DWORD PTR __imp_??1?$CStringT@DV?$StrTraitMFC_DLL@DV?$ChTraitsCRT@D@ATL@@@@@ATL@@QAE@XZ
  00877	8d 8d 7c ff ff
	ff		 lea	 ecx, DWORD PTR _dlg$5[ebp+168]
  0087d	ff 15 00 00 00
	00		 call	 DWORD PTR __imp_??1?$CStringT@DV?$StrTraitMFC_DLL@DV?$ChTraitsCRT@D@ATL@@@@@ATL@@QAE@XZ
  00883	8d 8d d4 fe ff
	ff		 lea	 ecx, DWORD PTR _dlg$5[ebp]
  00889	e8 00 00 00 00	 call	 ??1CDialog@@UAE@XZ	; CDialog::~CDialog
  0088e	6a 00		 push	 0
  00890	ff b7 ac 00 00
	00		 push	 DWORD PTR [edi+172]
  00896	8d 8d d4 fe ff
	ff		 lea	 ecx, DWORD PTR _dlg$5[ebp]
  0089c	e8 00 00 00 00	 call	 ??0CDlgInputMonth@@QAE@PAUHWND__@@PAVCWnd@@@Z ; CDlgInputMonth::CDlgInputMonth
  008a1	8d 45 bc	 lea	 eax, DWORD PTR _strNextDateTime$[ebp]
  008a4	c6 45 fc 21	 mov	 BYTE PTR __$EHRec$[ebp+8], 33 ; 00000021H
  008a8	50		 push	 eax
  008a9	8d 4d 84	 lea	 ecx, DWORD PTR _dlg$5[ebp+176]
  008ac	ff 15 00 00 00
	00		 call	 DWORD PTR __imp_??4?$CStringT@DV?$StrTraitMFC_DLL@DV?$ChTraitsCRT@D@ATL@@@@@ATL@@QAEAAV01@ABV01@@Z
  008b2	8d 8d d4 fe ff
	ff		 lea	 ecx, DWORD PTR _dlg$5[ebp]
  008b8	e8 00 00 00 00	 call	 ?DoModal@CDialog@@UAEHXZ ; CDialog::DoModal
  008bd	83 f8 02	 cmp	 eax, 2
  008c0	0f 85 2a ff ff
	ff		 jne	 $LL12@OnBtnAdd
$LN387@OnBtnAdd:
  008c6	8d 4d 84	 lea	 ecx, DWORD PTR _dlg$5[ebp+176]
  008c9	ff 15 00 00 00
	00		 call	 DWORD PTR __imp_??1?$CStringT@DV?$StrTraitMFC_DLL@DV?$ChTraitsCRT@D@ATL@@@@@ATL@@QAE@XZ
  008cf	8d 4d 80	 lea	 ecx, DWORD PTR _dlg$5[ebp+172]
  008d2	ff 15 00 00 00
	00		 call	 DWORD PTR __imp_??1?$CStringT@DV?$StrTraitMFC_DLL@DV?$ChTraitsCRT@D@ATL@@@@@ATL@@QAE@XZ
  008d8	8d 8d 7c ff ff
	ff		 lea	 ecx, DWORD PTR _dlg$5[ebp+168]
  008de	ff 15 00 00 00
	00		 call	 DWORD PTR __imp_??1?$CStringT@DV?$StrTraitMFC_DLL@DV?$ChTraitsCRT@D@ATL@@@@@ATL@@QAE@XZ
  008e4	8d 8d d4 fe ff
	ff		 lea	 ecx, DWORD PTR _dlg$5[ebp]
  008ea	e8 00 00 00 00	 call	 ??1CDialog@@UAE@XZ	; CDialog::~CDialog

; 366  : 					return;

  008ef	8d 4d b8	 lea	 ecx, DWORD PTR _strM$47[ebp]
  008f2	e9 39 fd ff ff	 jmp	 $LN413@OnBtnAdd
$LN388@OnBtnAdd:

; 369  : 				{
; 370  : 					strNextDateTime = dlg.m_strCurrentDate;

  008f7	8d 45 84	 lea	 eax, DWORD PTR _dlg$5[ebp+176]
  008fa	50		 push	 eax
  008fb	8d 4d bc	 lea	 ecx, DWORD PTR _strNextDateTime$[ebp]
  008fe	ff 15 00 00 00
	00		 call	 DWORD PTR __imp_??4?$CStringT@DV?$StrTraitMFC_DLL@DV?$ChTraitsCRT@D@ATL@@@@@ATL@@QAEAAV01@ABV01@@Z
  00904	8d 4d 84	 lea	 ecx, DWORD PTR _dlg$5[ebp+176]
  00907	ff 15 00 00 00
	00		 call	 DWORD PTR __imp_??1?$CStringT@DV?$StrTraitMFC_DLL@DV?$ChTraitsCRT@D@ATL@@@@@ATL@@QAE@XZ
  0090d	8d 4d 80	 lea	 ecx, DWORD PTR _dlg$5[ebp+172]
  00910	ff 15 00 00 00
	00		 call	 DWORD PTR __imp_??1?$CStringT@DV?$StrTraitMFC_DLL@DV?$ChTraitsCRT@D@ATL@@@@@ATL@@QAE@XZ
  00916	8d 8d 7c ff ff
	ff		 lea	 ecx, DWORD PTR _dlg$5[ebp+168]
  0091c	ff 15 00 00 00
	00		 call	 DWORD PTR __imp_??1?$CStringT@DV?$StrTraitMFC_DLL@DV?$ChTraitsCRT@D@ATL@@@@@ATL@@QAE@XZ
  00922	8d 8d d4 fe ff
	ff		 lea	 ecx, DWORD PTR _dlg$5[ebp]
  00928	e8 00 00 00 00	 call	 ??1CDialog@@UAE@XZ	; CDialog::~CDialog

; 380  : 		}

  0092d	8d 4d b8	 lea	 ecx, DWORD PTR _strM$47[ebp]
  00930	ff 15 00 00 00
	00		 call	 DWORD PTR __imp_??1?$CStringT@DV?$StrTraitMFC_DLL@DV?$ChTraitsCRT@D@ATL@@@@@ATL@@QAE@XZ
  00936	8d 4d b0	 lea	 ecx, DWORD PTR _strY$34[ebp]

; 381  : 		break;

  00939	e9 00 05 00 00	 jmp	 $LN405@OnBtnAdd
$LN45@OnBtnAdd:

; 386  : 			if(m_pChartDataGridManager->m_strDateTime == "DDHHMMSS")

  0093e	83 c1 08	 add	 ecx, 8
; File C:\Program Files (x86)\Microsoft Visual Studio\2019\Community\VC\Tools\MSVC\14.29.30133\atlmfc\include\cstringt.h

; 2486 : 		return(str1.Compare(psz2) == 0);

  00941	68 00 00 00 00	 push	 OFFSET ??_C@_08JFMBEEDE@DDHHMMSS@
  00946	ff 15 00 00 00
	00		 call	 DWORD PTR __imp_?Compare@?$CStringT@DV?$StrTraitMFC_DLL@DV?$ChTraitsCRT@D@ATL@@@@@ATL@@QBEHPBD@Z
  0094c	85 c0		 test	 eax, eax
; File D:\git\src\IBK\IBK_DRFN\ProjSrc\SrcChartEx\ChartAddIn\ChartDataListViewerAddIn\ChartDataListViewerAddIn\DlgDataSimulator.cpp

; 386  : 			if(m_pChartDataGridManager->m_strDateTime == "DDHHMMSS")

  0094e	8b 45 c0	 mov	 eax, DWORD PTR _strLastDateTime$[ebp]
  00951	0f 85 3e 01 00
	00		 jne	 $LN46@OnBtnAdd

; 387  : 			{
; 388  : 				if(strLastDateTime.GetLength() < 6) return;

  00957	83 78 f4 06	 cmp	 DWORD PTR [eax-12], 6
  0095b	0f 8c de fc ff
	ff		 jl	 $LN117@OnBtnAdd

; 389  : 				CString strD  = strLastDateTime.Mid(0, 2);

  00961	6a 02		 push	 2
  00963	6a 00		 push	 0
  00965	8d 45 b4	 lea	 eax, DWORD PTR _strD$41[ebp]
  00968	50		 push	 eax
  00969	8d 4d c0	 lea	 ecx, DWORD PTR _strLastDateTime$[ebp]
  0096c	ff 15 00 00 00
	00		 call	 DWORD PTR __imp_?Mid@?$CStringT@DV?$StrTraitMFC_DLL@DV?$ChTraitsCRT@D@ATL@@@@@ATL@@QBE?AV12@HH@Z

; 390  : 				CString strH  = strLastDateTime.Mid(2, 2);

  00972	6a 02		 push	 2
  00974	6a 02		 push	 2
  00976	8d 45 b8	 lea	 eax, DWORD PTR _strH$46[ebp]
  00979	c6 45 fc 26	 mov	 BYTE PTR __$EHRec$[ebp+8], 38 ; 00000026H
  0097d	50		 push	 eax
  0097e	8d 4d c0	 lea	 ecx, DWORD PTR _strLastDateTime$[ebp]
  00981	ff 15 00 00 00
	00		 call	 DWORD PTR __imp_?Mid@?$CStringT@DV?$StrTraitMFC_DLL@DV?$ChTraitsCRT@D@ATL@@@@@ATL@@QBE?AV12@HH@Z

; 391  : 				CString strM  = strLastDateTime.Mid(4, 2);

  00987	6a 02		 push	 2
  00989	6a 04		 push	 4
  0098b	8d 45 c4	 lea	 eax, DWORD PTR _strM$53[ebp]
  0098e	c6 45 fc 27	 mov	 BYTE PTR __$EHRec$[ebp+8], 39 ; 00000027H
  00992	50		 push	 eax
  00993	8d 4d c0	 lea	 ecx, DWORD PTR _strLastDateTime$[ebp]
  00996	ff 15 00 00 00
	00		 call	 DWORD PTR __imp_?Mid@?$CStringT@DV?$StrTraitMFC_DLL@DV?$ChTraitsCRT@D@ATL@@@@@ATL@@QBE?AV12@HH@Z

; 392  : 				CString strS  = strLastDateTime.Mid(6, 2);

  0099c	6a 02		 push	 2
  0099e	6a 06		 push	 6
  009a0	8d 45 c8	 lea	 eax, DWORD PTR _strS$62[ebp]
  009a3	c6 45 fc 28	 mov	 BYTE PTR __$EHRec$[ebp+8], 40 ; 00000028H
  009a7	50		 push	 eax
  009a8	8d 4d c0	 lea	 ecx, DWORD PTR _strLastDateTime$[ebp]
  009ab	ff 15 00 00 00
	00		 call	 DWORD PTR __imp_?Mid@?$CStringT@DV?$StrTraitMFC_DLL@DV?$ChTraitsCRT@D@ATL@@@@@ATL@@QBE?AV12@HH@Z
; File C:\Program Files (x86)\Microsoft Visual Studio\2019\Community\VC\Tools\MSVC\14.29.30133\atlmfc\include\atltime.h

; 374  : 	return( CTime( ::_time64( NULL ) ) );

  009b1	6a 00		 push	 0
; File D:\git\src\IBK\IBK_DRFN\ProjSrc\SrcChartEx\ChartAddIn\ChartDataListViewerAddIn\ChartDataListViewerAddIn\DlgDataSimulator.cpp

; 392  : 				CString strS  = strLastDateTime.Mid(6, 2);

  009b3	c6 45 fc 29	 mov	 BYTE PTR __$EHRec$[ebp+8], 41 ; 00000029H
; File C:\Program Files (x86)\Microsoft Visual Studio\2019\Community\VC\Tools\MSVC\14.29.30133\atlmfc\include\atltime.h

; 374  : 	return( CTime( ::_time64( NULL ) ) );

  009b7	ff 15 00 00 00
	00		 call	 DWORD PTR __imp___time64
; File C:\Program Files (x86)\Microsoft Visual Studio\2019\Community\VC\Tools\MSVC\14.29.30133\atlmfc\include\atlsimpstr.h

; 377  : 		return( m_pszData );

  009bd	8b 7d c4	 mov	 edi, DWORD PTR _strM$53[ebp]
; File C:\Program Files (x86)\Microsoft Visual Studio\2019\Community\VC\Tools\MSVC\14.29.30133\atlmfc\include\atltime.h

; 374  : 	return( CTime( ::_time64( NULL ) ) );

  009c0	83 c4 04	 add	 esp, 4

; 417  : 	m_time( time )

  009c3	89 45 90	 mov	 DWORD PTR _timeCur$10[ebp], eax
; File C:\Program Files (x86)\Microsoft Visual Studio\2019\Community\VC\Tools\MSVC\14.29.30133\atlmfc\include\atlsimpstr.h

; 377  : 		return( m_pszData );

  009c6	8b 45 b8	 mov	 eax, DWORD PTR _strH$46[ebp]
  009c9	89 45 b0	 mov	 DWORD PTR $T32[ebp], eax
  009cc	8b 45 b4	 mov	 eax, DWORD PTR _strD$41[ebp]
; File D:\git\src\IBK\IBK_DRFN\ProjSrc\SrcChartEx\ChartAddIn\ChartDataListViewerAddIn\ChartDataListViewerAddIn\DlgDataSimulator.cpp

; 396  : 				CTime time(timeCur.GetYear(), timeCur.GetMonth(), atoi(strD), atoi(strH), atoi(strM), atoi(strS));

  009cf	6a ff		 push	 -1
  009d1	ff 75 c8	 push	 DWORD PTR _strS$62[ebp]
; File C:\Program Files (x86)\Microsoft Visual Studio\2019\Community\VC\Tools\MSVC\14.29.30133\atlmfc\include\atltime.h

; 417  : 	m_time( time )

  009d4	89 55 94	 mov	 DWORD PTR _timeCur$10[ebp+4], edx
; File C:\Program Files (x86)\Microsoft Visual Studio\2019\Community\VC\Tools\MSVC\14.29.30133\atlmfc\include\atlsimpstr.h

; 377  : 		return( m_pszData );

  009d7	89 45 a8	 mov	 DWORD PTR $T26[ebp], eax
; File D:\git\src\IBK\IBK_DRFN\ProjSrc\SrcChartEx\ChartAddIn\ChartDataListViewerAddIn\ChartDataListViewerAddIn\DlgDataSimulator.cpp

; 396  : 				CTime time(timeCur.GetYear(), timeCur.GetMonth(), atoi(strD), atoi(strH), atoi(strM), atoi(strS));

  009da	ff 15 00 00 00
	00		 call	 DWORD PTR __imp__atoi
  009e0	83 c4 04	 add	 esp, 4
  009e3	50		 push	 eax
  009e4	57		 push	 edi
  009e5	8b 3d 00 00 00
	00		 mov	 edi, DWORD PTR __imp__atoi
  009eb	ff d7		 call	 edi
  009ed	83 c4 04	 add	 esp, 4
  009f0	50		 push	 eax
  009f1	ff 75 b0	 push	 DWORD PTR $T32[ebp]
  009f4	ff d7		 call	 edi
  009f6	83 c4 04	 add	 esp, 4
  009f9	50		 push	 eax
  009fa	ff 75 a8	 push	 DWORD PTR $T26[ebp]
  009fd	ff d7		 call	 edi
  009ff	83 c4 04	 add	 esp, 4
  00a02	8d 4d 90	 lea	 ecx, DWORD PTR _timeCur$10[ebp]
  00a05	50		 push	 eax
  00a06	e8 00 00 00 00	 call	 ?GetMonth@CTime@ATL@@QBEHXZ ; ATL::CTime::GetMonth
  00a0b	50		 push	 eax
  00a0c	8d 4d 90	 lea	 ecx, DWORD PTR _timeCur$10[ebp]
  00a0f	e8 00 00 00 00	 call	 ?GetYear@CTime@ATL@@QBEHXZ ; ATL::CTime::GetYear
  00a14	50		 push	 eax
  00a15	8d 4d ac	 lea	 ecx, DWORD PTR _time$29[ebp]
  00a18	e8 00 00 00 00	 call	 ??0CTime@ATL@@QAE@HHHHHHH@Z ; ATL::CTime::CTime

; 397  : 				CTimeSpan timeSpan(0, 0, 0, m_pChartDataGridManager->m_nDataInterval);

  00a1d	8b 7d a0	 mov	 edi, DWORD PTR _this$GSCopy$1$[ebp]
  00a20	8d 4d a4	 lea	 ecx, DWORD PTR _timeSpan$21[ebp]
  00a23	8b 87 38 05 00
	00		 mov	 eax, DWORD PTR [edi+1336]
  00a29	ff 70 10	 push	 DWORD PTR [eax+16]
  00a2c	6a 00		 push	 0
  00a2e	6a 00		 push	 0
  00a30	6a 00		 push	 0
  00a32	e8 00 00 00 00	 call	 ??0CTimeSpan@ATL@@QAE@JHHH@Z ; ATL::CTimeSpan::CTimeSpan
; File C:\Program Files (x86)\Microsoft Visual Studio\2019\Community\VC\Tools\MSVC\14.29.30133\atlmfc\include\atltime.h

; 553  : 	return( CTime( m_time+span.GetTimeSpan() ) );

  00a37	8b 4d a4	 mov	 ecx, DWORD PTR _timeSpan$21[ebp]
  00a3a	03 4d ac	 add	 ecx, DWORD PTR _time$29[ebp]
  00a3d	8b 45 a8	 mov	 eax, DWORD PTR _timeSpan$21[ebp+4]
  00a40	13 45 b0	 adc	 eax, DWORD PTR _time$29[ebp+4]

; 417  : 	m_time( time )

  00a43	89 4d 98	 mov	 DWORD PTR _nextTime$15[ebp], ecx
; File D:\git\src\IBK\IBK_DRFN\ProjSrc\SrcChartEx\ChartAddIn\ChartDataListViewerAddIn\ChartDataListViewerAddIn\DlgDataSimulator.cpp

; 399  : 				strNextDateTime.Format("%02d%02d%02d%02d", nextTime.GetDay(), nextTime.GetHour(), nextTime.GetMinute(), nextTime.GetSecond());

  00a46	8d 4d 98	 lea	 ecx, DWORD PTR _nextTime$15[ebp]
; File C:\Program Files (x86)\Microsoft Visual Studio\2019\Community\VC\Tools\MSVC\14.29.30133\atlmfc\include\atltime.h

; 417  : 	m_time( time )

  00a49	89 45 9c	 mov	 DWORD PTR _nextTime$15[ebp+4], eax
; File D:\git\src\IBK\IBK_DRFN\ProjSrc\SrcChartEx\ChartAddIn\ChartDataListViewerAddIn\ChartDataListViewerAddIn\DlgDataSimulator.cpp

; 399  : 				strNextDateTime.Format("%02d%02d%02d%02d", nextTime.GetDay(), nextTime.GetHour(), nextTime.GetMinute(), nextTime.GetSecond());

  00a4c	e8 00 00 00 00	 call	 ?GetSecond@CTime@ATL@@QBEHXZ ; ATL::CTime::GetSecond
  00a51	50		 push	 eax
  00a52	8d 4d 98	 lea	 ecx, DWORD PTR _nextTime$15[ebp]
  00a55	e8 00 00 00 00	 call	 ?GetMinute@CTime@ATL@@QBEHXZ ; ATL::CTime::GetMinute
  00a5a	50		 push	 eax
  00a5b	8d 4d 98	 lea	 ecx, DWORD PTR _nextTime$15[ebp]
  00a5e	e8 00 00 00 00	 call	 ?GetHour@CTime@ATL@@QBEHXZ ; ATL::CTime::GetHour
  00a63	50		 push	 eax
  00a64	8d 4d 98	 lea	 ecx, DWORD PTR _nextTime$15[ebp]
  00a67	e8 00 00 00 00	 call	 ?GetDay@CTime@ATL@@QBEHXZ ; ATL::CTime::GetDay
  00a6c	50		 push	 eax
  00a6d	8d 45 bc	 lea	 eax, DWORD PTR _strNextDateTime$[ebp]
  00a70	68 00 00 00 00	 push	 OFFSET ??_C@_0BB@MAGBLHLO@?$CF02d?$CF02d?$CF02d?$CF02d@
  00a75	50		 push	 eax
  00a76	ff 15 00 00 00
	00		 call	 DWORD PTR __imp_?Format@?$CStringT@DV?$StrTraitMFC_DLL@DV?$ChTraitsCRT@D@ATL@@@@@ATL@@QAAXPBDZZ
  00a7c	83 c4 18	 add	 esp, 24			; 00000018H

; 400  : 
; 401  : 				do{
; 402  : 
; 403  : 					CDlgInputTick dlg;

  00a7f	8d 8d cc fe ff
	ff		 lea	 ecx, DWORD PTR _dlg$4[ebp]
  00a85	6a 00		 push	 0
  00a87	e8 00 00 00 00	 call	 ??0CDlgInputTick@@QAE@PAVCWnd@@@Z ; CDlgInputTick::CDlgInputTick
  00a8c	c6 45 fc 2a	 mov	 BYTE PTR __$EHRec$[ebp+8], 42 ; 0000002aH

; 404  : 					dlg.m_strCurrentDate = strNextDateTime;
; 405  : 					if(dlg.DoModal() == IDCANCEL)
; 406  : 						return;
; 407  : 
; 408  : 					strNextDateTime = dlg.m_strCurrentDate;				
; 409  : 					break;
; 410  : 
; 411  : 				}while(1);
; 412  : 			}

  00a90	e9 46 03 00 00	 jmp	 $LN408@OnBtnAdd
$LN46@OnBtnAdd:

; 413  : 			else
; 414  : 			{			
; 415  : 				if(strLastDateTime.GetLength() < 8) return;

  00a95	83 78 f4 08	 cmp	 DWORD PTR [eax-12], 8
  00a99	0f 8c a0 fb ff
	ff		 jl	 $LN117@OnBtnAdd

; 416  : 				CString strM  = strLastDateTime.Left(2);

  00a9f	6a 02		 push	 2
  00aa1	8d 45 b4	 lea	 eax, DWORD PTR _strM$40[ebp]
  00aa4	50		 push	 eax
  00aa5	8d 4d c0	 lea	 ecx, DWORD PTR _strLastDateTime$[ebp]
  00aa8	ff 15 00 00 00
	00		 call	 DWORD PTR __imp_?Left@?$CStringT@DV?$StrTraitMFC_DLL@DV?$ChTraitsCRT@D@ATL@@@@@ATL@@QBE?AV12@H@Z

; 417  : 				CString strD  = strLastDateTime.Mid(2,2);

  00aae	6a 02		 push	 2
  00ab0	6a 02		 push	 2
  00ab2	8d 45 b8	 lea	 eax, DWORD PTR _strD$45[ebp]
  00ab5	c6 45 fc 2d	 mov	 BYTE PTR __$EHRec$[ebp+8], 45 ; 0000002dH
  00ab9	50		 push	 eax
  00aba	8d 4d c0	 lea	 ecx, DWORD PTR _strLastDateTime$[ebp]
  00abd	ff 15 00 00 00
	00		 call	 DWORD PTR __imp_?Mid@?$CStringT@DV?$StrTraitMFC_DLL@DV?$ChTraitsCRT@D@ATL@@@@@ATL@@QBE?AV12@HH@Z

; 418  : 				CString strH  = strLastDateTime.Mid(4,2);

  00ac3	6a 02		 push	 2
  00ac5	6a 04		 push	 4
  00ac7	8d 45 c4	 lea	 eax, DWORD PTR _strH$52[ebp]
  00aca	c6 45 fc 2e	 mov	 BYTE PTR __$EHRec$[ebp+8], 46 ; 0000002eH
  00ace	50		 push	 eax
  00acf	8d 4d c0	 lea	 ecx, DWORD PTR _strLastDateTime$[ebp]
  00ad2	ff 15 00 00 00
	00		 call	 DWORD PTR __imp_?Mid@?$CStringT@DV?$StrTraitMFC_DLL@DV?$ChTraitsCRT@D@ATL@@@@@ATL@@QBE?AV12@HH@Z

; 419  : 				CString strm  = strLastDateTime.Mid(6,2);

  00ad8	6a 02		 push	 2
  00ada	6a 06		 push	 6
  00adc	8d 45 c8	 lea	 eax, DWORD PTR _strm$61[ebp]
  00adf	c6 45 fc 2f	 mov	 BYTE PTR __$EHRec$[ebp+8], 47 ; 0000002fH
  00ae3	50		 push	 eax
  00ae4	8d 4d c0	 lea	 ecx, DWORD PTR _strLastDateTime$[ebp]
  00ae7	ff 15 00 00 00
	00		 call	 DWORD PTR __imp_?Mid@?$CStringT@DV?$StrTraitMFC_DLL@DV?$ChTraitsCRT@D@ATL@@@@@ATL@@QBE?AV12@HH@Z
; File C:\Program Files (x86)\Microsoft Visual Studio\2019\Community\VC\Tools\MSVC\14.29.30133\atlmfc\include\atltime.h

; 374  : 	return( CTime( ::_time64( NULL ) ) );

  00aed	6a 00		 push	 0
; File D:\git\src\IBK\IBK_DRFN\ProjSrc\SrcChartEx\ChartAddIn\ChartDataListViewerAddIn\ChartDataListViewerAddIn\DlgDataSimulator.cpp

; 419  : 				CString strm  = strLastDateTime.Mid(6,2);

  00aef	c6 45 fc 30	 mov	 BYTE PTR __$EHRec$[ebp+8], 48 ; 00000030H
; File C:\Program Files (x86)\Microsoft Visual Studio\2019\Community\VC\Tools\MSVC\14.29.30133\atlmfc\include\atltime.h

; 374  : 	return( CTime( ::_time64( NULL ) ) );

  00af3	ff 15 00 00 00
	00		 call	 DWORD PTR __imp___time64
; File C:\Program Files (x86)\Microsoft Visual Studio\2019\Community\VC\Tools\MSVC\14.29.30133\atlmfc\include\atlsimpstr.h

; 377  : 		return( m_pszData );

  00af9	8b 7d c4	 mov	 edi, DWORD PTR _strH$52[ebp]
; File C:\Program Files (x86)\Microsoft Visual Studio\2019\Community\VC\Tools\MSVC\14.29.30133\atlmfc\include\atltime.h

; 374  : 	return( CTime( ::_time64( NULL ) ) );

  00afc	83 c4 04	 add	 esp, 4

; 417  : 	m_time( time )

  00aff	89 45 90	 mov	 DWORD PTR _timeCur$9[ebp], eax
; File C:\Program Files (x86)\Microsoft Visual Studio\2019\Community\VC\Tools\MSVC\14.29.30133\atlmfc\include\atlsimpstr.h

; 377  : 		return( m_pszData );

  00b02	8b 45 b8	 mov	 eax, DWORD PTR _strD$45[ebp]
  00b05	89 45 a8	 mov	 DWORD PTR $T25[ebp], eax
  00b08	8b 45 b4	 mov	 eax, DWORD PTR _strM$40[ebp]
; File D:\git\src\IBK\IBK_DRFN\ProjSrc\SrcChartEx\ChartAddIn\ChartDataListViewerAddIn\ChartDataListViewerAddIn\DlgDataSimulator.cpp

; 423  : 				CTime time(timeCur.GetYear(), atoi(strM), atoi(strD), atoi(strH), atoi(strm), 0);

  00b0b	6a ff		 push	 -1
  00b0d	6a 00		 push	 0
  00b0f	ff 75 c8	 push	 DWORD PTR _strm$61[ebp]
; File C:\Program Files (x86)\Microsoft Visual Studio\2019\Community\VC\Tools\MSVC\14.29.30133\atlmfc\include\atltime.h

; 417  : 	m_time( time )

  00b12	89 55 94	 mov	 DWORD PTR _timeCur$9[ebp+4], edx
; File C:\Program Files (x86)\Microsoft Visual Studio\2019\Community\VC\Tools\MSVC\14.29.30133\atlmfc\include\atlsimpstr.h

; 377  : 		return( m_pszData );

  00b15	89 45 b0	 mov	 DWORD PTR $T31[ebp], eax
; File D:\git\src\IBK\IBK_DRFN\ProjSrc\SrcChartEx\ChartAddIn\ChartDataListViewerAddIn\ChartDataListViewerAddIn\DlgDataSimulator.cpp

; 423  : 				CTime time(timeCur.GetYear(), atoi(strM), atoi(strD), atoi(strH), atoi(strm), 0);

  00b18	ff 15 00 00 00
	00		 call	 DWORD PTR __imp__atoi
  00b1e	83 c4 04	 add	 esp, 4
  00b21	50		 push	 eax
  00b22	57		 push	 edi
  00b23	8b 3d 00 00 00
	00		 mov	 edi, DWORD PTR __imp__atoi
  00b29	ff d7		 call	 edi
  00b2b	83 c4 04	 add	 esp, 4
  00b2e	50		 push	 eax
  00b2f	ff 75 a8	 push	 DWORD PTR $T25[ebp]
  00b32	ff d7		 call	 edi
  00b34	83 c4 04	 add	 esp, 4
  00b37	50		 push	 eax
  00b38	ff 75 b0	 push	 DWORD PTR $T31[ebp]
  00b3b	ff d7		 call	 edi
  00b3d	83 c4 04	 add	 esp, 4
  00b40	8d 4d 90	 lea	 ecx, DWORD PTR _timeCur$9[ebp]
  00b43	50		 push	 eax
  00b44	e8 00 00 00 00	 call	 ?GetYear@CTime@ATL@@QBEHXZ ; ATL::CTime::GetYear
  00b49	50		 push	 eax
  00b4a	8d 4d ac	 lea	 ecx, DWORD PTR _time$28[ebp]
  00b4d	e8 00 00 00 00	 call	 ??0CTime@ATL@@QAE@HHHHHHH@Z ; ATL::CTime::CTime

; 424  : 				CTimeSpan timeSpan(0, 0, m_pChartDataGridManager->m_nDataInterval, 0);

  00b52	8b 7d a0	 mov	 edi, DWORD PTR _this$GSCopy$1$[ebp]
  00b55	8d 4d a4	 lea	 ecx, DWORD PTR _timeSpan$20[ebp]
  00b58	6a 00		 push	 0
  00b5a	8b 87 38 05 00
	00		 mov	 eax, DWORD PTR [edi+1336]
  00b60	ff 70 10	 push	 DWORD PTR [eax+16]
  00b63	6a 00		 push	 0
  00b65	6a 00		 push	 0
  00b67	e8 00 00 00 00	 call	 ??0CTimeSpan@ATL@@QAE@JHHH@Z ; ATL::CTimeSpan::CTimeSpan
; File C:\Program Files (x86)\Microsoft Visual Studio\2019\Community\VC\Tools\MSVC\14.29.30133\atlmfc\include\atltime.h

; 553  : 	return( CTime( m_time+span.GetTimeSpan() ) );

  00b6c	8b 4d a4	 mov	 ecx, DWORD PTR _timeSpan$20[ebp]
  00b6f	03 4d ac	 add	 ecx, DWORD PTR _time$28[ebp]
  00b72	8b 45 a8	 mov	 eax, DWORD PTR _timeSpan$20[ebp+4]
  00b75	13 45 b0	 adc	 eax, DWORD PTR _time$28[ebp+4]

; 417  : 	m_time( time )

  00b78	89 4d 98	 mov	 DWORD PTR _nextTime$14[ebp], ecx
; File D:\git\src\IBK\IBK_DRFN\ProjSrc\SrcChartEx\ChartAddIn\ChartDataListViewerAddIn\ChartDataListViewerAddIn\DlgDataSimulator.cpp

; 426  : 				strNextDateTime.Format("%02d%02d%02d%02d", nextTime.GetMonth(), nextTime.GetDay(), nextTime.GetHour(), nextTime.GetMinute());

  00b7b	8d 4d 98	 lea	 ecx, DWORD PTR _nextTime$14[ebp]
; File C:\Program Files (x86)\Microsoft Visual Studio\2019\Community\VC\Tools\MSVC\14.29.30133\atlmfc\include\atltime.h

; 417  : 	m_time( time )

  00b7e	89 45 9c	 mov	 DWORD PTR _nextTime$14[ebp+4], eax
; File D:\git\src\IBK\IBK_DRFN\ProjSrc\SrcChartEx\ChartAddIn\ChartDataListViewerAddIn\ChartDataListViewerAddIn\DlgDataSimulator.cpp

; 426  : 				strNextDateTime.Format("%02d%02d%02d%02d", nextTime.GetMonth(), nextTime.GetDay(), nextTime.GetHour(), nextTime.GetMinute());

  00b81	e8 00 00 00 00	 call	 ?GetMinute@CTime@ATL@@QBEHXZ ; ATL::CTime::GetMinute
  00b86	50		 push	 eax
  00b87	8d 4d 98	 lea	 ecx, DWORD PTR _nextTime$14[ebp]
  00b8a	e8 00 00 00 00	 call	 ?GetHour@CTime@ATL@@QBEHXZ ; ATL::CTime::GetHour
  00b8f	50		 push	 eax
  00b90	8d 4d 98	 lea	 ecx, DWORD PTR _nextTime$14[ebp]
  00b93	e8 00 00 00 00	 call	 ?GetDay@CTime@ATL@@QBEHXZ ; ATL::CTime::GetDay
  00b98	50		 push	 eax
  00b99	8d 4d 98	 lea	 ecx, DWORD PTR _nextTime$14[ebp]
  00b9c	e8 00 00 00 00	 call	 ?GetMonth@CTime@ATL@@QBEHXZ ; ATL::CTime::GetMonth
  00ba1	50		 push	 eax
  00ba2	8d 45 bc	 lea	 eax, DWORD PTR _strNextDateTime$[ebp]
  00ba5	68 00 00 00 00	 push	 OFFSET ??_C@_0BB@MAGBLHLO@?$CF02d?$CF02d?$CF02d?$CF02d@
  00baa	50		 push	 eax
  00bab	ff 15 00 00 00
	00		 call	 DWORD PTR __imp_?Format@?$CStringT@DV?$StrTraitMFC_DLL@DV?$ChTraitsCRT@D@ATL@@@@@ATL@@QAAXPBDZZ
  00bb1	83 c4 18	 add	 esp, 24			; 00000018H

; 427  : 
; 428  : 				do{
; 429  : 					CDlgInputMin dlg( m_hOcxWnd);

  00bb4	8d 8d cc fe ff
	ff		 lea	 ecx, DWORD PTR _dlg$3[ebp]
  00bba	6a 00		 push	 0
  00bbc	ff b7 ac 00 00
	00		 push	 DWORD PTR [edi+172]
  00bc2	e8 00 00 00 00	 call	 ??0CDlgInputMin@@QAE@PAUHWND__@@PAVCWnd@@@Z ; CDlgInputMin::CDlgInputMin

; 430  : 					dlg.m_strCurrentDate = strNextDateTime;

  00bc7	8d 45 bc	 lea	 eax, DWORD PTR _strNextDateTime$[ebp]
  00bca	c6 45 fc 31	 mov	 BYTE PTR __$EHRec$[ebp+8], 49 ; 00000031H
  00bce	50		 push	 eax
  00bcf	8d 4d 84	 lea	 ecx, DWORD PTR _dlg$3[ebp+184]
  00bd2	ff 15 00 00 00
	00		 call	 DWORD PTR __imp_??4?$CStringT@DV?$StrTraitMFC_DLL@DV?$ChTraitsCRT@D@ATL@@@@@ATL@@QAEAAV01@ABV01@@Z

; 431  : 					if(dlg.DoModal() == IDCANCEL)

  00bd8	8d 8d cc fe ff
	ff		 lea	 ecx, DWORD PTR _dlg$3[ebp]
  00bde	e8 00 00 00 00	 call	 ?DoModal@CDialog@@UAEHXZ ; CDialog::DoModal
  00be3	83 f8 02	 cmp	 eax, 2
  00be6	75 64		 jne	 SHORT $LN51@OnBtnAdd
  00be8	8d 4d 84	 lea	 ecx, DWORD PTR _dlg$3[ebp+184]
  00beb	ff 15 00 00 00
	00		 call	 DWORD PTR __imp_??1?$CStringT@DV?$StrTraitMFC_DLL@DV?$ChTraitsCRT@D@ATL@@@@@ATL@@QAE@XZ
  00bf1	8d 4d 80	 lea	 ecx, DWORD PTR _dlg$3[ebp+180]
  00bf4	ff 15 00 00 00
	00		 call	 DWORD PTR __imp_??1?$CStringT@DV?$StrTraitMFC_DLL@DV?$ChTraitsCRT@D@ATL@@@@@ATL@@QAE@XZ
  00bfa	8d 8d 7c ff ff
	ff		 lea	 ecx, DWORD PTR _dlg$3[ebp+176]
  00c00	ff 15 00 00 00
	00		 call	 DWORD PTR __imp_??1?$CStringT@DV?$StrTraitMFC_DLL@DV?$ChTraitsCRT@D@ATL@@@@@ATL@@QAE@XZ
  00c06	8d 8d 78 ff ff
	ff		 lea	 ecx, DWORD PTR _dlg$3[ebp+172]
  00c0c	ff 15 00 00 00
	00		 call	 DWORD PTR __imp_??1?$CStringT@DV?$StrTraitMFC_DLL@DV?$ChTraitsCRT@D@ATL@@@@@ATL@@QAE@XZ
  00c12	8d 8d 74 ff ff
	ff		 lea	 ecx, DWORD PTR _dlg$3[ebp+168]
  00c18	ff 15 00 00 00
	00		 call	 DWORD PTR __imp_??1?$CStringT@DV?$StrTraitMFC_DLL@DV?$ChTraitsCRT@D@ATL@@@@@ATL@@QAE@XZ
  00c1e	8d 8d cc fe ff
	ff		 lea	 ecx, DWORD PTR _dlg$3[ebp]
  00c24	e8 00 00 00 00	 call	 ??1CDialog@@UAE@XZ	; CDialog::~CDialog
$LN411@OnBtnAdd:

; 481  : }

  00c29	8d 4d c8	 lea	 ecx, DWORD PTR _strm$61[ebp]
  00c2c	ff 15 00 00 00
	00		 call	 DWORD PTR __imp_??1?$CStringT@DV?$StrTraitMFC_DLL@DV?$ChTraitsCRT@D@ATL@@@@@ATL@@QAE@XZ
  00c32	8d 4d c4	 lea	 ecx, DWORD PTR _strH$52[ebp]
  00c35	ff 15 00 00 00
	00		 call	 DWORD PTR __imp_??1?$CStringT@DV?$StrTraitMFC_DLL@DV?$ChTraitsCRT@D@ATL@@@@@ATL@@QAE@XZ
  00c3b	8d 4d b8	 lea	 ecx, DWORD PTR _strD$45[ebp]
  00c3e	ff 15 00 00 00
	00		 call	 DWORD PTR __imp_??1?$CStringT@DV?$StrTraitMFC_DLL@DV?$ChTraitsCRT@D@ATL@@@@@ATL@@QAE@XZ
  00c44	8d 4d b4	 lea	 ecx, DWORD PTR _strM$40[ebp]
  00c47	e9 ed f9 ff ff	 jmp	 $LN412@OnBtnAdd
$LN51@OnBtnAdd:

; 432  : 						return;
; 433  : 
; 434  : 					strNextDateTime = dlg.m_strCurrentDate;

  00c4c	8d 45 84	 lea	 eax, DWORD PTR _dlg$3[ebp+184]
  00c4f	50		 push	 eax
  00c50	8d 4d bc	 lea	 ecx, DWORD PTR _strNextDateTime$[ebp]
  00c53	ff 15 00 00 00
	00		 call	 DWORD PTR __imp_??4?$CStringT@DV?$StrTraitMFC_DLL@DV?$ChTraitsCRT@D@ATL@@@@@ATL@@QAEAAV01@ABV01@@Z
  00c59	8d 4d 84	 lea	 ecx, DWORD PTR _dlg$3[ebp+184]
  00c5c	ff 15 00 00 00
	00		 call	 DWORD PTR __imp_??1?$CStringT@DV?$StrTraitMFC_DLL@DV?$ChTraitsCRT@D@ATL@@@@@ATL@@QAE@XZ
  00c62	8d 4d 80	 lea	 ecx, DWORD PTR _dlg$3[ebp+180]
  00c65	ff 15 00 00 00
	00		 call	 DWORD PTR __imp_??1?$CStringT@DV?$StrTraitMFC_DLL@DV?$ChTraitsCRT@D@ATL@@@@@ATL@@QAE@XZ
  00c6b	8d 8d 7c ff ff
	ff		 lea	 ecx, DWORD PTR _dlg$3[ebp+176]
  00c71	ff 15 00 00 00
	00		 call	 DWORD PTR __imp_??1?$CStringT@DV?$StrTraitMFC_DLL@DV?$ChTraitsCRT@D@ATL@@@@@ATL@@QAE@XZ
  00c77	8d 8d 78 ff ff
	ff		 lea	 ecx, DWORD PTR _dlg$3[ebp+172]
  00c7d	ff 15 00 00 00
	00		 call	 DWORD PTR __imp_??1?$CStringT@DV?$StrTraitMFC_DLL@DV?$ChTraitsCRT@D@ATL@@@@@ATL@@QAE@XZ
  00c83	8d 8d 74 ff ff
	ff		 lea	 ecx, DWORD PTR _dlg$3[ebp+168]
  00c89	ff 15 00 00 00
	00		 call	 DWORD PTR __imp_??1?$CStringT@DV?$StrTraitMFC_DLL@DV?$ChTraitsCRT@D@ATL@@@@@ATL@@QAE@XZ
  00c8f	8d 8d cc fe ff
	ff		 lea	 ecx, DWORD PTR _dlg$3[ebp]
  00c95	e8 00 00 00 00	 call	 ??1CDialog@@UAE@XZ	; CDialog::~CDialog

; 435  : 					break;
; 436  : 
; 437  : 				}while(1);
; 438  : 			}
; 439  : 		}
; 440  : 		break;

  00c9a	e9 81 01 00 00	 jmp	 $LN409@OnBtnAdd
$LN52@OnBtnAdd:
; File C:\Program Files (x86)\Microsoft Visual Studio\2019\Community\VC\Tools\MSVC\14.29.30133\atlmfc\include\atlsimpstr.h

; 519  : 		return( GetData()->nDataLength );

  00c9f	8b 45 c0	 mov	 eax, DWORD PTR _strLastDateTime$[ebp]
; File D:\git\src\IBK\IBK_DRFN\ProjSrc\SrcChartEx\ChartAddIn\ChartDataListViewerAddIn\ChartDataListViewerAddIn\DlgDataSimulator.cpp

; 443  : 			if(strLastDateTime.GetLength() < 6) return;

  00ca2	83 78 f4 06	 cmp	 DWORD PTR [eax-12], 6
  00ca6	0f 8c 93 f9 ff
	ff		 jl	 $LN117@OnBtnAdd

; 444  : 			CString strD  = strLastDateTime.Mid(0, 2);

  00cac	6a 02		 push	 2
  00cae	6a 00		 push	 0
  00cb0	8d 45 b4	 lea	 eax, DWORD PTR _strD$39[ebp]
  00cb3	50		 push	 eax
  00cb4	8d 4d c0	 lea	 ecx, DWORD PTR _strLastDateTime$[ebp]
  00cb7	ff 15 00 00 00
	00		 call	 DWORD PTR __imp_?Mid@?$CStringT@DV?$StrTraitMFC_DLL@DV?$ChTraitsCRT@D@ATL@@@@@ATL@@QBE?AV12@HH@Z

; 445  : 			CString strH  = strLastDateTime.Mid(2, 2);

  00cbd	6a 02		 push	 2
  00cbf	6a 02		 push	 2
  00cc1	8d 45 b8	 lea	 eax, DWORD PTR _strH$44[ebp]
  00cc4	c6 45 fc 34	 mov	 BYTE PTR __$EHRec$[ebp+8], 52 ; 00000034H
  00cc8	50		 push	 eax
  00cc9	8d 4d c0	 lea	 ecx, DWORD PTR _strLastDateTime$[ebp]
  00ccc	ff 15 00 00 00
	00		 call	 DWORD PTR __imp_?Mid@?$CStringT@DV?$StrTraitMFC_DLL@DV?$ChTraitsCRT@D@ATL@@@@@ATL@@QBE?AV12@HH@Z

; 446  : 			CString strM  = strLastDateTime.Mid(4, 2);

  00cd2	6a 02		 push	 2
  00cd4	6a 04		 push	 4
  00cd6	8d 45 c4	 lea	 eax, DWORD PTR _strM$51[ebp]
  00cd9	c6 45 fc 35	 mov	 BYTE PTR __$EHRec$[ebp+8], 53 ; 00000035H
  00cdd	50		 push	 eax
  00cde	8d 4d c0	 lea	 ecx, DWORD PTR _strLastDateTime$[ebp]
  00ce1	ff 15 00 00 00
	00		 call	 DWORD PTR __imp_?Mid@?$CStringT@DV?$StrTraitMFC_DLL@DV?$ChTraitsCRT@D@ATL@@@@@ATL@@QBE?AV12@HH@Z

; 447  : 			CString strS  = strLastDateTime.Mid(6, 2);

  00ce7	6a 02		 push	 2
  00ce9	6a 06		 push	 6
  00ceb	8d 45 c8	 lea	 eax, DWORD PTR _strS$60[ebp]
  00cee	c6 45 fc 36	 mov	 BYTE PTR __$EHRec$[ebp+8], 54 ; 00000036H
  00cf2	50		 push	 eax
  00cf3	8d 4d c0	 lea	 ecx, DWORD PTR _strLastDateTime$[ebp]
  00cf6	ff 15 00 00 00
	00		 call	 DWORD PTR __imp_?Mid@?$CStringT@DV?$StrTraitMFC_DLL@DV?$ChTraitsCRT@D@ATL@@@@@ATL@@QBE?AV12@HH@Z
; File C:\Program Files (x86)\Microsoft Visual Studio\2019\Community\VC\Tools\MSVC\14.29.30133\atlmfc\include\atltime.h

; 374  : 	return( CTime( ::_time64( NULL ) ) );

  00cfc	6a 00		 push	 0
; File D:\git\src\IBK\IBK_DRFN\ProjSrc\SrcChartEx\ChartAddIn\ChartDataListViewerAddIn\ChartDataListViewerAddIn\DlgDataSimulator.cpp

; 447  : 			CString strS  = strLastDateTime.Mid(6, 2);

  00cfe	c6 45 fc 37	 mov	 BYTE PTR __$EHRec$[ebp+8], 55 ; 00000037H
; File C:\Program Files (x86)\Microsoft Visual Studio\2019\Community\VC\Tools\MSVC\14.29.30133\atlmfc\include\atltime.h

; 374  : 	return( CTime( ::_time64( NULL ) ) );

  00d02	ff 15 00 00 00
	00		 call	 DWORD PTR __imp___time64
; File C:\Program Files (x86)\Microsoft Visual Studio\2019\Community\VC\Tools\MSVC\14.29.30133\atlmfc\include\atlsimpstr.h

; 377  : 		return( m_pszData );

  00d08	8b 7d c4	 mov	 edi, DWORD PTR _strM$51[ebp]
; File C:\Program Files (x86)\Microsoft Visual Studio\2019\Community\VC\Tools\MSVC\14.29.30133\atlmfc\include\atltime.h

; 374  : 	return( CTime( ::_time64( NULL ) ) );

  00d0b	83 c4 04	 add	 esp, 4

; 417  : 	m_time( time )

  00d0e	89 45 90	 mov	 DWORD PTR _timeCur$8[ebp], eax
; File C:\Program Files (x86)\Microsoft Visual Studio\2019\Community\VC\Tools\MSVC\14.29.30133\atlmfc\include\atlsimpstr.h

; 377  : 		return( m_pszData );

  00d11	8b 45 b8	 mov	 eax, DWORD PTR _strH$44[ebp]
  00d14	89 45 a8	 mov	 DWORD PTR $T24[ebp], eax
  00d17	8b 45 b4	 mov	 eax, DWORD PTR _strD$39[ebp]
; File D:\git\src\IBK\IBK_DRFN\ProjSrc\SrcChartEx\ChartAddIn\ChartDataListViewerAddIn\ChartDataListViewerAddIn\DlgDataSimulator.cpp

; 451  : 			CTime time(timeCur.GetYear(), timeCur.GetMonth(), atoi(strD), atoi(strH), atoi(strM), atoi(strS));

  00d1a	6a ff		 push	 -1
  00d1c	ff 75 c8	 push	 DWORD PTR _strS$60[ebp]
; File C:\Program Files (x86)\Microsoft Visual Studio\2019\Community\VC\Tools\MSVC\14.29.30133\atlmfc\include\atltime.h

; 417  : 	m_time( time )

  00d1f	89 55 94	 mov	 DWORD PTR _timeCur$8[ebp+4], edx
; File C:\Program Files (x86)\Microsoft Visual Studio\2019\Community\VC\Tools\MSVC\14.29.30133\atlmfc\include\atlsimpstr.h

; 377  : 		return( m_pszData );

  00d22	89 45 b0	 mov	 DWORD PTR $T30[ebp], eax
; File D:\git\src\IBK\IBK_DRFN\ProjSrc\SrcChartEx\ChartAddIn\ChartDataListViewerAddIn\ChartDataListViewerAddIn\DlgDataSimulator.cpp

; 451  : 			CTime time(timeCur.GetYear(), timeCur.GetMonth(), atoi(strD), atoi(strH), atoi(strM), atoi(strS));

  00d25	ff 15 00 00 00
	00		 call	 DWORD PTR __imp__atoi
  00d2b	83 c4 04	 add	 esp, 4
  00d2e	50		 push	 eax
  00d2f	57		 push	 edi
  00d30	8b 3d 00 00 00
	00		 mov	 edi, DWORD PTR __imp__atoi
  00d36	ff d7		 call	 edi
  00d38	83 c4 04	 add	 esp, 4
  00d3b	50		 push	 eax
  00d3c	ff 75 a8	 push	 DWORD PTR $T24[ebp]
  00d3f	ff d7		 call	 edi
  00d41	83 c4 04	 add	 esp, 4
  00d44	50		 push	 eax
  00d45	ff 75 b0	 push	 DWORD PTR $T30[ebp]
  00d48	ff d7		 call	 edi
  00d4a	83 c4 04	 add	 esp, 4
  00d4d	8d 4d 90	 lea	 ecx, DWORD PTR _timeCur$8[ebp]
  00d50	50		 push	 eax
  00d51	e8 00 00 00 00	 call	 ?GetMonth@CTime@ATL@@QBEHXZ ; ATL::CTime::GetMonth
  00d56	50		 push	 eax
  00d57	8d 4d 90	 lea	 ecx, DWORD PTR _timeCur$8[ebp]
  00d5a	e8 00 00 00 00	 call	 ?GetYear@CTime@ATL@@QBEHXZ ; ATL::CTime::GetYear
  00d5f	50		 push	 eax
  00d60	8d 4d ac	 lea	 ecx, DWORD PTR _time$27[ebp]
  00d63	e8 00 00 00 00	 call	 ??0CTime@ATL@@QAE@HHHHHHH@Z ; ATL::CTime::CTime

; 452  : 			CTimeSpan timeSpan(0, 0, 0, m_pChartDataGridManager->m_nDataInterval);

  00d68	8b 7d a0	 mov	 edi, DWORD PTR _this$GSCopy$1$[ebp]
  00d6b	8d 4d a4	 lea	 ecx, DWORD PTR _timeSpan$19[ebp]
  00d6e	8b 87 38 05 00
	00		 mov	 eax, DWORD PTR [edi+1336]
  00d74	ff 70 10	 push	 DWORD PTR [eax+16]
  00d77	6a 00		 push	 0
  00d79	6a 00		 push	 0
  00d7b	6a 00		 push	 0
  00d7d	e8 00 00 00 00	 call	 ??0CTimeSpan@ATL@@QAE@JHHH@Z ; ATL::CTimeSpan::CTimeSpan
; File C:\Program Files (x86)\Microsoft Visual Studio\2019\Community\VC\Tools\MSVC\14.29.30133\atlmfc\include\atltime.h

; 553  : 	return( CTime( m_time+span.GetTimeSpan() ) );

  00d82	8b 4d a4	 mov	 ecx, DWORD PTR _timeSpan$19[ebp]
  00d85	03 4d ac	 add	 ecx, DWORD PTR _time$27[ebp]
  00d88	8b 45 a8	 mov	 eax, DWORD PTR _timeSpan$19[ebp+4]
  00d8b	13 45 b0	 adc	 eax, DWORD PTR _time$27[ebp+4]

; 417  : 	m_time( time )

  00d8e	89 4d 98	 mov	 DWORD PTR _nextTime$13[ebp], ecx
; File D:\git\src\IBK\IBK_DRFN\ProjSrc\SrcChartEx\ChartAddIn\ChartDataListViewerAddIn\ChartDataListViewerAddIn\DlgDataSimulator.cpp

; 454  : 			strNextDateTime.Format("%02d%02d%02d%02d", nextTime.GetDay(), nextTime.GetHour(), nextTime.GetMinute(), nextTime.GetSecond());

  00d91	8d 4d 98	 lea	 ecx, DWORD PTR _nextTime$13[ebp]
; File C:\Program Files (x86)\Microsoft Visual Studio\2019\Community\VC\Tools\MSVC\14.29.30133\atlmfc\include\atltime.h

; 417  : 	m_time( time )

  00d94	89 45 9c	 mov	 DWORD PTR _nextTime$13[ebp+4], eax
; File D:\git\src\IBK\IBK_DRFN\ProjSrc\SrcChartEx\ChartAddIn\ChartDataListViewerAddIn\ChartDataListViewerAddIn\DlgDataSimulator.cpp

; 454  : 			strNextDateTime.Format("%02d%02d%02d%02d", nextTime.GetDay(), nextTime.GetHour(), nextTime.GetMinute(), nextTime.GetSecond());

  00d97	e8 00 00 00 00	 call	 ?GetSecond@CTime@ATL@@QBEHXZ ; ATL::CTime::GetSecond
  00d9c	50		 push	 eax
  00d9d	8d 4d 98	 lea	 ecx, DWORD PTR _nextTime$13[ebp]
  00da0	e8 00 00 00 00	 call	 ?GetMinute@CTime@ATL@@QBEHXZ ; ATL::CTime::GetMinute
  00da5	50		 push	 eax
  00da6	8d 4d 98	 lea	 ecx, DWORD PTR _nextTime$13[ebp]
  00da9	e8 00 00 00 00	 call	 ?GetHour@CTime@ATL@@QBEHXZ ; ATL::CTime::GetHour
  00dae	50		 push	 eax
  00daf	8d 4d 98	 lea	 ecx, DWORD PTR _nextTime$13[ebp]
  00db2	e8 00 00 00 00	 call	 ?GetDay@CTime@ATL@@QBEHXZ ; ATL::CTime::GetDay
  00db7	50		 push	 eax
  00db8	8d 45 bc	 lea	 eax, DWORD PTR _strNextDateTime$[ebp]
  00dbb	68 00 00 00 00	 push	 OFFSET ??_C@_0BB@MAGBLHLO@?$CF02d?$CF02d?$CF02d?$CF02d@
  00dc0	50		 push	 eax
  00dc1	ff 15 00 00 00
	00		 call	 DWORD PTR __imp_?Format@?$CStringT@DV?$StrTraitMFC_DLL@DV?$ChTraitsCRT@D@ATL@@@@@ATL@@QAAXPBDZZ
  00dc7	83 c4 18	 add	 esp, 24			; 00000018H

; 455  : 
; 456  : 			do{
; 457  : 
; 458  : 				CDlgInputTick dlg;

  00dca	8d 8d cc fe ff
	ff		 lea	 ecx, DWORD PTR _dlg$2[ebp]
  00dd0	6a 00		 push	 0
  00dd2	e8 00 00 00 00	 call	 ??0CDlgInputTick@@QAE@PAVCWnd@@@Z ; CDlgInputTick::CDlgInputTick
  00dd7	c6 45 fc 38	 mov	 BYTE PTR __$EHRec$[ebp+8], 56 ; 00000038H
$LN408@OnBtnAdd:

; 459  : 				dlg.m_strCurrentDate = strNextDateTime;
; 460  : 				if(dlg.DoModal() == IDCANCEL)
; 461  : 					return;
; 462  : 
; 463  : 				strNextDateTime = dlg.m_strCurrentDate;				
; 464  : 				break;
; 465  : 
; 466  : 			}while(1);
; 467  : 		}
; 468  : 		break;
; 469  : 	}
; 470  : 	
; 471  : 	if(!pRecordSet) return;

  00ddb	8d 45 bc	 lea	 eax, DWORD PTR _strNextDateTime$[ebp]
  00dde	50		 push	 eax
  00ddf	8d 4d 84	 lea	 ecx, DWORD PTR _dlg$2[ebp+184]
  00de2	ff 15 00 00 00
	00		 call	 DWORD PTR __imp_??4?$CStringT@DV?$StrTraitMFC_DLL@DV?$ChTraitsCRT@D@ATL@@@@@ATL@@QAEAAV01@ABV01@@Z
  00de8	8d 8d cc fe ff
	ff		 lea	 ecx, DWORD PTR _dlg$2[ebp]
  00dee	e8 00 00 00 00	 call	 ?DoModal@CDialog@@UAEHXZ ; CDialog::DoModal
  00df3	83 f8 02	 cmp	 eax, 2
  00df6	75 10		 jne	 SHORT $LN54@OnBtnAdd
  00df8	8d 8d cc fe ff
	ff		 lea	 ecx, DWORD PTR _dlg$2[ebp]
  00dfe	e8 00 00 00 00	 call	 ??1CDlgInputTick@@UAE@XZ
  00e03	e9 21 fe ff ff	 jmp	 $LN411@OnBtnAdd
$LN54@OnBtnAdd:
  00e08	8d 45 84	 lea	 eax, DWORD PTR _dlg$2[ebp+184]
  00e0b	50		 push	 eax
  00e0c	8d 4d bc	 lea	 ecx, DWORD PTR _strNextDateTime$[ebp]
  00e0f	ff 15 00 00 00
	00		 call	 DWORD PTR __imp_??4?$CStringT@DV?$StrTraitMFC_DLL@DV?$ChTraitsCRT@D@ATL@@@@@ATL@@QAEAAV01@ABV01@@Z
  00e15	8d 8d cc fe ff
	ff		 lea	 ecx, DWORD PTR _dlg$2[ebp]
  00e1b	e8 00 00 00 00	 call	 ??1CDlgInputTick@@UAE@XZ
$LN409@OnBtnAdd:
  00e20	8d 4d c8	 lea	 ecx, DWORD PTR _strS$60[ebp]
  00e23	ff 15 00 00 00
	00		 call	 DWORD PTR __imp_??1?$CStringT@DV?$StrTraitMFC_DLL@DV?$ChTraitsCRT@D@ATL@@@@@ATL@@QAE@XZ
  00e29	8d 4d c4	 lea	 ecx, DWORD PTR _strM$51[ebp]
  00e2c	ff 15 00 00 00
	00		 call	 DWORD PTR __imp_??1?$CStringT@DV?$StrTraitMFC_DLL@DV?$ChTraitsCRT@D@ATL@@@@@ATL@@QAE@XZ
  00e32	8d 4d b8	 lea	 ecx, DWORD PTR _strH$44[ebp]
  00e35	ff 15 00 00 00
	00		 call	 DWORD PTR __imp_??1?$CStringT@DV?$StrTraitMFC_DLL@DV?$ChTraitsCRT@D@ATL@@@@@ATL@@QAE@XZ
  00e3b	8d 4d b4	 lea	 ecx, DWORD PTR _strD$39[ebp]
$LN405@OnBtnAdd:
  00e3e	c6 45 fc 02	 mov	 BYTE PTR __$EHRec$[ebp+8], 2
  00e42	ff 15 00 00 00
	00		 call	 DWORD PTR __imp_??1?$CStringT@DV?$StrTraitMFC_DLL@DV?$ChTraitsCRT@D@ATL@@@@@ATL@@QAE@XZ
$LN2@OnBtnAdd:
  00e48	83 7d 8c 00	 cmp	 DWORD PTR _pRecordSet$1$[ebp], 0
  00e4c	0f 84 ed f7 ff
	ff		 je	 $LN117@OnBtnAdd

; 472  : 
; 473  : 	CChartRecordSet * pNewRecordSet = new CChartRecordSet;

  00e52	6a 18		 push	 24			; 00000018H
  00e54	e8 00 00 00 00	 call	 ??2@YAPAXI@Z		; operator new
  00e59	83 c4 04	 add	 esp, 4
  00e5c	85 c0		 test	 eax, eax
  00e5e	74 09		 je	 SHORT $LN57@OnBtnAdd
  00e60	8b c8		 mov	 ecx, eax
  00e62	e8 00 00 00 00	 call	 ??0CChartRecordSet@@QAE@XZ
  00e67	eb 02		 jmp	 SHORT $LN410@OnBtnAdd
$LN57@OnBtnAdd:
  00e69	33 c0		 xor	 eax, eax
$LN410@OnBtnAdd:

; 474  : 	*pNewRecordSet = *pRecordSet;

  00e6b	ff 75 8c	 push	 DWORD PTR _pRecordSet$1$[ebp]
  00e6e	8b c8		 mov	 ecx, eax
  00e70	89 45 c8	 mov	 DWORD PTR _pNewRecordSet$1$[ebp], eax
  00e73	e8 00 00 00 00	 call	 ??4CChartRecordSet@@QAEAAV0@AAV0@@Z ; CChartRecordSet::operator=

; 475  : 	pNewRecordSet->m_Data[DATE_TIME]= strNextDateTime;

  00e78	8b 4d c8	 mov	 ecx, DWORD PTR _pNewRecordSet$1$[ebp]
  00e7b	8d 45 bc	 lea	 eax, DWORD PTR _strNextDateTime$[ebp]
  00e7e	50		 push	 eax
  00e7f	ff 15 00 00 00
	00		 call	 DWORD PTR __imp_??4?$CStringT@DV?$StrTraitMFC_DLL@DV?$ChTraitsCRT@D@ATL@@@@@ATL@@QAEAAV01@ABV01@@Z

; 476  : 	m_pChartDataGridManager->m_ChartDataList.AddTail(pNewRecordSet);

  00e85	8b 8f 38 05 00
	00		 mov	 ecx, DWORD PTR [edi+1336]
  00e8b	ff 75 c8	 push	 DWORD PTR _pNewRecordSet$1$[ebp]
  00e8e	83 c1 2c	 add	 ecx, 44			; 0000002cH
  00e91	e8 00 00 00 00	 call	 ?AddTail@?$CList@PAVCChartRecordSet@@PAV1@@@QAEPAU__POSITION@@PAVCChartRecordSet@@@Z ; CList<CChartRecordSet *,CChartRecordSet *>::AddTail

; 477  : 
; 478  : 	int nRowCount = m_Grid.GetRowCount();

  00e96	8b bf cc 01 00
	00		 mov	 edi, DWORD PTR [edi+460]

; 479  : 	m_Grid.SetRowCount(nRowCount+1);

  00e9c	8b 4d a0	 mov	 ecx, DWORD PTR _this$GSCopy$1$[ebp]
  00e9f	81 c1 b0 00 00
	00		 add	 ecx, 176		; 000000b0H
  00ea5	8d 47 01	 lea	 eax, DWORD PTR [edi+1]
  00ea8	50		 push	 eax
  00ea9	e8 00 00 00 00	 call	 ?SetRowCount@CGridCtrl@@QAEHH@Z ; CGridCtrl::SetRowCount

; 480  : 	m_Grid.EnsureVisible(nRowCount, 0);

  00eae	8b 4d a0	 mov	 ecx, DWORD PTR _this$GSCopy$1$[ebp]
  00eb1	6a 00		 push	 0
  00eb3	57		 push	 edi
  00eb4	8d 89 b0 00 00
	00		 lea	 ecx, DWORD PTR [ecx+176]
  00eba	e8 00 00 00 00	 call	 ?EnsureVisible@CGridCtrl@@QAEXHH@Z ; CGridCtrl::EnsureVisible
  00ebf	e9 7b f7 ff ff	 jmp	 $LN117@OnBtnAdd
$LN135@OnBtnAdd:
; File C:\Program Files (x86)\Microsoft Visual Studio\2019\Community\VC\Tools\MSVC\14.29.30133\atlmfc\include\afxtempl.h

; 290  : 	AfxThrowInvalidArgException();

  00ec4	e8 00 00 00 00	 call	 ?AfxThrowInvalidArgException@@YGXXZ ; AfxThrowInvalidArgException
$LN404@OnBtnAdd:
  00ec9	0f 1f 00	 npad	 3
$LN402@OnBtnAdd:
; File D:\git\src\IBK\IBK_DRFN\ProjSrc\SrcChartEx\ChartAddIn\ChartDataListViewerAddIn\ChartDataListViewerAddIn\DlgDataSimulator.cpp

; 481  : }

  00ecc	00 00 00 00	 DD	 $LN27@OnBtnAdd
  00ed0	00 00 00 00	 DD	 $LN33@OnBtnAdd
  00ed4	00 00 00 00	 DD	 $LN39@OnBtnAdd
  00ed8	00 00 00 00	 DD	 $LN45@OnBtnAdd
  00edc	00 00 00 00	 DD	 $LN52@OnBtnAdd
_TEXT	ENDS
;	COMDAT text$x
text$x	SEGMENT
__unwindfunclet$?OnBtnAdd@CDlgDataSimulator@@IAEXXZ$0:
  00000	8d 8d c8 fe ff
	ff		 lea	 ecx, DWORD PTR ___mlrs__$[ebp]
  00006	e9 00 00 00 00	 jmp	 ??1CMultiLanguageResourceSetter@@QAE@XZ ; CMultiLanguageResourceSetter::~CMultiLanguageResourceSetter
__unwindfunclet$?OnBtnAdd@CDlgDataSimulator@@IAEXXZ$1:
  0000b	8d 4d bc	 lea	 ecx, DWORD PTR _strNextDateTime$[ebp]
  0000e	ff 25 00 00 00
	00		 jmp	 DWORD PTR __imp_??1?$CStringT@DV?$StrTraitMFC_DLL@DV?$ChTraitsCRT@D@ATL@@@@@ATL@@QAE@XZ
__unwindfunclet$?OnBtnAdd@CDlgDataSimulator@@IAEXXZ$2:
  00014	8d 4d c0	 lea	 ecx, DWORD PTR _strLastDateTime$[ebp]
  00017	ff 25 00 00 00
	00		 jmp	 DWORD PTR __imp_??1?$CStringT@DV?$StrTraitMFC_DLL@DV?$ChTraitsCRT@D@ATL@@@@@ATL@@QAE@XZ
__unwindfunclet$?OnBtnAdd@CDlgDataSimulator@@IAEXXZ$3:
  0001d	8d 4d c8	 lea	 ecx, DWORD PTR _strY$67[ebp]
  00020	ff 25 00 00 00
	00		 jmp	 DWORD PTR __imp_??1?$CStringT@DV?$StrTraitMFC_DLL@DV?$ChTraitsCRT@D@ATL@@@@@ATL@@QAE@XZ
__unwindfunclet$?OnBtnAdd@CDlgDataSimulator@@IAEXXZ$4:
  00026	8d 4d c4	 lea	 ecx, DWORD PTR _strM$58[ebp]
  00029	ff 25 00 00 00
	00		 jmp	 DWORD PTR __imp_??1?$CStringT@DV?$StrTraitMFC_DLL@DV?$ChTraitsCRT@D@ATL@@@@@ATL@@QAE@XZ
__unwindfunclet$?OnBtnAdd@CDlgDataSimulator@@IAEXXZ$5:
  0002f	8d 4d b8	 lea	 ecx, DWORD PTR _strD$49[ebp]
  00032	ff 25 00 00 00
	00		 jmp	 DWORD PTR __imp_??1?$CStringT@DV?$StrTraitMFC_DLL@DV?$ChTraitsCRT@D@ATL@@@@@ATL@@QAE@XZ
__unwindfunclet$?OnBtnAdd@CDlgDataSimulator@@IAEXXZ$6:
  00038	8d 4d a0	 lea	 ecx, DWORD PTR _strMsg$18[ebp]
  0003b	ff 25 00 00 00
	00		 jmp	 DWORD PTR __imp_??1?$CStringT@DV?$StrTraitMFC_DLL@DV?$ChTraitsCRT@D@ATL@@@@@ATL@@QAE@XZ
__unwindfunclet$?OnBtnAdd@CDlgDataSimulator@@IAEXXZ$7:
  00041	8d 4d b0	 lea	 ecx, DWORD PTR _strDlgTitle$37[ebp]
  00044	ff 25 00 00 00
	00		 jmp	 DWORD PTR __imp_??1?$CStringT@DV?$StrTraitMFC_DLL@DV?$ChTraitsCRT@D@ATL@@@@@ATL@@QAE@XZ
__unwindfunclet$?OnBtnAdd@CDlgDataSimulator@@IAEXXZ$8:
  0004a	8d 8d d4 fe ff
	ff		 lea	 ecx, DWORD PTR _dlg$7[ebp]
  00050	e9 00 00 00 00	 jmp	 ??1CDlgInputDayWeek@@UAE@XZ
__unwindfunclet$?OnBtnAdd@CDlgDataSimulator@@IAEXXZ$9:
  00055	8d 4d b4	 lea	 ecx, DWORD PTR _strMsg$43[ebp]
  00058	ff 25 00 00 00
	00		 jmp	 DWORD PTR __imp_??1?$CStringT@DV?$StrTraitMFC_DLL@DV?$ChTraitsCRT@D@ATL@@@@@ATL@@QAE@XZ
__unwindfunclet$?OnBtnAdd@CDlgDataSimulator@@IAEXXZ$10:
  0005e	8d 4d b0	 lea	 ecx, DWORD PTR _strDlgTitle$36[ebp]
  00061	ff 25 00 00 00
	00		 jmp	 DWORD PTR __imp_??1?$CStringT@DV?$StrTraitMFC_DLL@DV?$ChTraitsCRT@D@ATL@@@@@ATL@@QAE@XZ
__unwindfunclet$?OnBtnAdd@CDlgDataSimulator@@IAEXXZ$11:
  00067	8d 4d b0	 lea	 ecx, DWORD PTR _strY$35[ebp]
  0006a	ff 25 00 00 00
	00		 jmp	 DWORD PTR __imp_??1?$CStringT@DV?$StrTraitMFC_DLL@DV?$ChTraitsCRT@D@ATL@@@@@ATL@@QAE@XZ
__unwindfunclet$?OnBtnAdd@CDlgDataSimulator@@IAEXXZ$12:
  00070	8d 4d b4	 lea	 ecx, DWORD PTR _strM$42[ebp]
  00073	ff 25 00 00 00
	00		 jmp	 DWORD PTR __imp_??1?$CStringT@DV?$StrTraitMFC_DLL@DV?$ChTraitsCRT@D@ATL@@@@@ATL@@QAE@XZ
__unwindfunclet$?OnBtnAdd@CDlgDataSimulator@@IAEXXZ$13:
  00079	8d 4d b8	 lea	 ecx, DWORD PTR _strD$48[ebp]
  0007c	ff 25 00 00 00
	00		 jmp	 DWORD PTR __imp_??1?$CStringT@DV?$StrTraitMFC_DLL@DV?$ChTraitsCRT@D@ATL@@@@@ATL@@QAE@XZ
__unwindfunclet$?OnBtnAdd@CDlgDataSimulator@@IAEXXZ$14:
  00082	8d 4d c4	 lea	 ecx, DWORD PTR _strMsg$57[ebp]
  00085	ff 25 00 00 00
	00		 jmp	 DWORD PTR __imp_??1?$CStringT@DV?$StrTraitMFC_DLL@DV?$ChTraitsCRT@D@ATL@@@@@ATL@@QAE@XZ
__unwindfunclet$?OnBtnAdd@CDlgDataSimulator@@IAEXXZ$15:
  0008b	8d 4d c8	 lea	 ecx, DWORD PTR _strDlgTitle$66[ebp]
  0008e	ff 25 00 00 00
	00		 jmp	 DWORD PTR __imp_??1?$CStringT@DV?$StrTraitMFC_DLL@DV?$ChTraitsCRT@D@ATL@@@@@ATL@@QAE@XZ
__unwindfunclet$?OnBtnAdd@CDlgDataSimulator@@IAEXXZ$16:
  00094	8d 8d d4 fe ff
	ff		 lea	 ecx, DWORD PTR _dlg$6[ebp]
  0009a	e9 00 00 00 00	 jmp	 ??1CDlgInputDayWeek@@UAE@XZ
__unwindfunclet$?OnBtnAdd@CDlgDataSimulator@@IAEXXZ$17:
  0009f	8d 4d c4	 lea	 ecx, DWORD PTR _strMsg$56[ebp]
  000a2	ff 25 00 00 00
	00		 jmp	 DWORD PTR __imp_??1?$CStringT@DV?$StrTraitMFC_DLL@DV?$ChTraitsCRT@D@ATL@@@@@ATL@@QAE@XZ
__unwindfunclet$?OnBtnAdd@CDlgDataSimulator@@IAEXXZ$18:
  000a8	8d 4d c8	 lea	 ecx, DWORD PTR _strDlgTitle$65[ebp]
  000ab	ff 25 00 00 00
	00		 jmp	 DWORD PTR __imp_??1?$CStringT@DV?$StrTraitMFC_DLL@DV?$ChTraitsCRT@D@ATL@@@@@ATL@@QAE@XZ
__unwindfunclet$?OnBtnAdd@CDlgDataSimulator@@IAEXXZ$19:
  000b1	8d 4d b0	 lea	 ecx, DWORD PTR _strY$34[ebp]
  000b4	ff 25 00 00 00
	00		 jmp	 DWORD PTR __imp_??1?$CStringT@DV?$StrTraitMFC_DLL@DV?$ChTraitsCRT@D@ATL@@@@@ATL@@QAE@XZ
__unwindfunclet$?OnBtnAdd@CDlgDataSimulator@@IAEXXZ$20:
  000ba	8d 4d b8	 lea	 ecx, DWORD PTR _strM$47[ebp]
  000bd	ff 25 00 00 00
	00		 jmp	 DWORD PTR __imp_??1?$CStringT@DV?$StrTraitMFC_DLL@DV?$ChTraitsCRT@D@ATL@@@@@ATL@@QAE@XZ
__unwindfunclet$?OnBtnAdd@CDlgDataSimulator@@IAEXXZ$21:
  000c3	8d 4d c4	 lea	 ecx, DWORD PTR _strMsg$55[ebp]
  000c6	ff 25 00 00 00
	00		 jmp	 DWORD PTR __imp_??1?$CStringT@DV?$StrTraitMFC_DLL@DV?$ChTraitsCRT@D@ATL@@@@@ATL@@QAE@XZ
__unwindfunclet$?OnBtnAdd@CDlgDataSimulator@@IAEXXZ$22:
  000cc	8d 4d c8	 lea	 ecx, DWORD PTR _strDlgTitle$64[ebp]
  000cf	ff 25 00 00 00
	00		 jmp	 DWORD PTR __imp_??1?$CStringT@DV?$StrTraitMFC_DLL@DV?$ChTraitsCRT@D@ATL@@@@@ATL@@QAE@XZ
__unwindfunclet$?OnBtnAdd@CDlgDataSimulator@@IAEXXZ$23:
  000d5	8d 8d d4 fe ff
	ff		 lea	 ecx, DWORD PTR _dlg$5[ebp]
  000db	e9 00 00 00 00	 jmp	 ??1CDlgInputMonth@@UAE@XZ
__unwindfunclet$?OnBtnAdd@CDlgDataSimulator@@IAEXXZ$24:
  000e0	8d 4d c4	 lea	 ecx, DWORD PTR _strMsg$54[ebp]
  000e3	ff 25 00 00 00
	00		 jmp	 DWORD PTR __imp_??1?$CStringT@DV?$StrTraitMFC_DLL@DV?$ChTraitsCRT@D@ATL@@@@@ATL@@QAE@XZ
__unwindfunclet$?OnBtnAdd@CDlgDataSimulator@@IAEXXZ$25:
  000e9	8d 4d c8	 lea	 ecx, DWORD PTR _strDlgTitle$63[ebp]
  000ec	ff 25 00 00 00
	00		 jmp	 DWORD PTR __imp_??1?$CStringT@DV?$StrTraitMFC_DLL@DV?$ChTraitsCRT@D@ATL@@@@@ATL@@QAE@XZ
__unwindfunclet$?OnBtnAdd@CDlgDataSimulator@@IAEXXZ$26:
  000f2	8d 4d b4	 lea	 ecx, DWORD PTR _strD$41[ebp]
  000f5	ff 25 00 00 00
	00		 jmp	 DWORD PTR __imp_??1?$CStringT@DV?$StrTraitMFC_DLL@DV?$ChTraitsCRT@D@ATL@@@@@ATL@@QAE@XZ
__unwindfunclet$?OnBtnAdd@CDlgDataSimulator@@IAEXXZ$27:
  000fb	8d 4d b8	 lea	 ecx, DWORD PTR _strH$46[ebp]
  000fe	ff 25 00 00 00
	00		 jmp	 DWORD PTR __imp_??1?$CStringT@DV?$StrTraitMFC_DLL@DV?$ChTraitsCRT@D@ATL@@@@@ATL@@QAE@XZ
__unwindfunclet$?OnBtnAdd@CDlgDataSimulator@@IAEXXZ$28:
  00104	8d 4d c4	 lea	 ecx, DWORD PTR _strM$53[ebp]
  00107	ff 25 00 00 00
	00		 jmp	 DWORD PTR __imp_??1?$CStringT@DV?$StrTraitMFC_DLL@DV?$ChTraitsCRT@D@ATL@@@@@ATL@@QAE@XZ
__unwindfunclet$?OnBtnAdd@CDlgDataSimulator@@IAEXXZ$29:
  0010d	8d 4d c8	 lea	 ecx, DWORD PTR _strS$62[ebp]
  00110	ff 25 00 00 00
	00		 jmp	 DWORD PTR __imp_??1?$CStringT@DV?$StrTraitMFC_DLL@DV?$ChTraitsCRT@D@ATL@@@@@ATL@@QAE@XZ
__unwindfunclet$?OnBtnAdd@CDlgDataSimulator@@IAEXXZ$30:
  00116	8d 8d cc fe ff
	ff		 lea	 ecx, DWORD PTR _dlg$4[ebp]
  0011c	e9 00 00 00 00	 jmp	 ??1CDlgInputTick@@UAE@XZ
__unwindfunclet$?OnBtnAdd@CDlgDataSimulator@@IAEXXZ$31:
  00121	8d 4d b4	 lea	 ecx, DWORD PTR _strM$40[ebp]
  00124	ff 25 00 00 00
	00		 jmp	 DWORD PTR __imp_??1?$CStringT@DV?$StrTraitMFC_DLL@DV?$ChTraitsCRT@D@ATL@@@@@ATL@@QAE@XZ
__unwindfunclet$?OnBtnAdd@CDlgDataSimulator@@IAEXXZ$32:
  0012a	8d 4d b8	 lea	 ecx, DWORD PTR _strD$45[ebp]
  0012d	ff 25 00 00 00
	00		 jmp	 DWORD PTR __imp_??1?$CStringT@DV?$StrTraitMFC_DLL@DV?$ChTraitsCRT@D@ATL@@@@@ATL@@QAE@XZ
__unwindfunclet$?OnBtnAdd@CDlgDataSimulator@@IAEXXZ$33:
  00133	8d 4d c4	 lea	 ecx, DWORD PTR _strH$52[ebp]
  00136	ff 25 00 00 00
	00		 jmp	 DWORD PTR __imp_??1?$CStringT@DV?$StrTraitMFC_DLL@DV?$ChTraitsCRT@D@ATL@@@@@ATL@@QAE@XZ
__unwindfunclet$?OnBtnAdd@CDlgDataSimulator@@IAEXXZ$34:
  0013c	8d 4d c8	 lea	 ecx, DWORD PTR _strm$61[ebp]
  0013f	ff 25 00 00 00
	00		 jmp	 DWORD PTR __imp_??1?$CStringT@DV?$StrTraitMFC_DLL@DV?$ChTraitsCRT@D@ATL@@@@@ATL@@QAE@XZ
__unwindfunclet$?OnBtnAdd@CDlgDataSimulator@@IAEXXZ$35:
  00145	8d 8d cc fe ff
	ff		 lea	 ecx, DWORD PTR _dlg$3[ebp]
  0014b	e9 00 00 00 00	 jmp	 ??1CDlgInputMin@@UAE@XZ
__unwindfunclet$?OnBtnAdd@CDlgDataSimulator@@IAEXXZ$36:
  00150	8d 4d b4	 lea	 ecx, DWORD PTR _strD$39[ebp]
  00153	ff 25 00 00 00
	00		 jmp	 DWORD PTR __imp_??1?$CStringT@DV?$StrTraitMFC_DLL@DV?$ChTraitsCRT@D@ATL@@@@@ATL@@QAE@XZ
__unwindfunclet$?OnBtnAdd@CDlgDataSimulator@@IAEXXZ$37:
  00159	8d 4d b8	 lea	 ecx, DWORD PTR _strH$44[ebp]
  0015c	ff 25 00 00 00
	00		 jmp	 DWORD PTR __imp_??1?$CStringT@DV?$StrTraitMFC_DLL@DV?$ChTraitsCRT@D@ATL@@@@@ATL@@QAE@XZ
__unwindfunclet$?OnBtnAdd@CDlgDataSimulator@@IAEXXZ$38:
  00162	8d 4d c4	 lea	 ecx, DWORD PTR _strM$51[ebp]
  00165	ff 25 00 00 00
	00		 jmp	 DWORD PTR __imp_??1?$CStringT@DV?$StrTraitMFC_DLL@DV?$ChTraitsCRT@D@ATL@@@@@ATL@@QAE@XZ
__unwindfunclet$?OnBtnAdd@CDlgDataSimulator@@IAEXXZ$39:
  0016b	8d 4d c8	 lea	 ecx, DWORD PTR _strS$60[ebp]
  0016e	ff 25 00 00 00
	00		 jmp	 DWORD PTR __imp_??1?$CStringT@DV?$StrTraitMFC_DLL@DV?$ChTraitsCRT@D@ATL@@@@@ATL@@QAE@XZ
__unwindfunclet$?OnBtnAdd@CDlgDataSimulator@@IAEXXZ$40:
  00174	8d 8d cc fe ff
	ff		 lea	 ecx, DWORD PTR _dlg$2[ebp]
  0017a	e9 00 00 00 00	 jmp	 ??1CDlgInputTick@@UAE@XZ
  0017f	cc		 int	 3
  00180	cc		 int	 3
  00181	cc		 int	 3
  00182	cc		 int	 3
  00183	cc		 int	 3
__ehhandler$?OnBtnAdd@CDlgDataSimulator@@IAEXXZ:
  00184	90		 npad	 1
  00185	90		 npad	 1
  00186	8b 54 24 08	 mov	 edx, DWORD PTR [esp+8]
  0018a	8d 42 0c	 lea	 eax, DWORD PTR [edx+12]
  0018d	8b 8a c8 fe ff
	ff		 mov	 ecx, DWORD PTR [edx-312]
  00193	33 c8		 xor	 ecx, eax
  00195	e8 00 00 00 00	 call	 @__security_check_cookie@4
  0019a	8b 4a fc	 mov	 ecx, DWORD PTR [edx-4]
  0019d	33 c8		 xor	 ecx, eax
  0019f	e8 00 00 00 00	 call	 @__security_check_cookie@4
  001a4	b8 00 00 00 00	 mov	 eax, OFFSET __ehfuncinfo$?OnBtnAdd@CDlgDataSimulator@@IAEXXZ
  001a9	e9 00 00 00 00	 jmp	 ___CxxFrameHandler3
text$x	ENDS
?OnBtnAdd@CDlgDataSimulator@@IAEXXZ ENDP		; CDlgDataSimulator::OnBtnAdd
; Function compile flags: /Ogtp
; File D:\git\src\IBK\IBK_DRFN\ProjSrc\SrcChartEx\ChartAddIn\ChartDataListViewerAddIn\ChartDataListViewerAddIn\DlgDataSimulator.cpp
; File D:\git\src\IBK\IBK_DRFN\ProjSrc\SrcChartEx\ChartAddIn\ChartDataListViewerAddIn\Include_Chart\Conversion.h
; File D:\git\src\IBK\IBK_DRFN\ProjSrc\SrcChartEx\ChartAddIn\ChartDataListViewerAddIn\ChartDataListViewerAddIn\DlgDataSimulator.cpp
; File D:\git\src\IBK\IBK_DRFN\ProjSrc\SrcChartEx\ChartAddIn\ChartDataListViewerAddIn\Include_Chart\Conversion.h
; File D:\git\src\IBK\IBK_DRFN\ProjSrc\SrcChartEx\ChartAddIn\ChartDataListViewerAddIn\ChartDataListViewerAddIn\DlgDataSimulator.cpp
; File D:\git\src\IBK\IBK_DRFN\ProjSrc\SrcChartEx\ChartAddIn\ChartDataListViewerAddIn\Include_Chart\Conversion.h
; File D:\git\src\IBK\IBK_DRFN\ProjSrc\SrcChartEx\ChartAddIn\ChartDataListViewerAddIn\ChartDataListViewerAddIn\DlgDataSimulator.cpp
; File D:\git\src\IBK\IBK_DRFN\ProjSrc\SrcChartEx\ChartAddIn\ChartDataListViewerAddIn\Include_Chart\Conversion.h
; File D:\git\src\IBK\IBK_DRFN\ProjSrc\SrcChartEx\ChartAddIn\ChartDataListViewerAddIn\ChartDataListViewerAddIn\DlgDataSimulator.cpp
; File D:\git\src\IBK\IBK_DRFN\ProjSrc\SrcChartEx\ChartAddIn\ChartDataListViewerAddIn\Include_Chart\Conversion.h
; File D:\git\src\IBK\IBK_DRFN\ProjSrc\SrcChartEx\ChartAddIn\ChartDataListViewerAddIn\ChartDataListViewerAddIn\DlgDataSimulator.cpp
; File D:\git\src\IBK\IBK_DRFN\ProjSrc\SrcChartEx\ChartAddIn\ChartDataListViewerAddIn\Include_Chart\Conversion.h
; File D:\git\src\IBK\IBK_DRFN\ProjSrc\SrcChartEx\ChartAddIn\ChartDataListViewerAddIn\ChartDataListViewerAddIn\DlgDataSimulator.cpp
;	COMDAT ?WindowProc@CDlgDataSimulator@@MAEJIIJ@Z
_TEXT	SEGMENT
$T2 = -28						; size = 8
$T3 = -20						; size = 8
__$EHRec$ = -12						; size = 12
_strOutput$4 = 8					; size = 4
_str$5 = 8						; size = 4
$T6 = 8							; size = 4
_message$ = 8						; size = 4
_strEdit$7 = 12						; size = 4
_wParam$ = 12						; size = 4
$T8 = 16						; size = 4
$T9 = 16						; size = 4
_lParam$ = 16						; size = 4
?WindowProc@CDlgDataSimulator@@MAEJIIJ@Z PROC		; CDlgDataSimulator::WindowProc, COMDAT
; _this$ = ecx

; 1010 : {

  00000	55		 push	 ebp
  00001	8b ec		 mov	 ebp, esp
  00003	6a ff		 push	 -1
  00005	68 00 00 00 00	 push	 __ehhandler$?WindowProc@CDlgDataSimulator@@MAEJIIJ@Z
  0000a	64 a1 00 00 00
	00		 mov	 eax, DWORD PTR fs:0
  00010	50		 push	 eax
  00011	83 ec 10	 sub	 esp, 16			; 00000010H
  00014	53		 push	 ebx
  00015	56		 push	 esi
  00016	57		 push	 edi
  00017	a1 00 00 00 00	 mov	 eax, DWORD PTR ___security_cookie
  0001c	33 c5		 xor	 eax, ebp
  0001e	50		 push	 eax
  0001f	8d 45 f4	 lea	 eax, DWORD PTR __$EHRec$[ebp]
  00022	64 a3 00 00 00
	00		 mov	 DWORD PTR fs:0, eax
  00028	8b f1		 mov	 esi, ecx

; 1011 : 	if(message == WM_NOTIFY)

  0002a	8b 5d 08	 mov	 ebx, DWORD PTR _message$[ebp]
  0002d	8b 7d 10	 mov	 edi, DWORD PTR _lParam$[ebp]
  00030	83 fb 4e	 cmp	 ebx, 78			; 0000004eH
  00033	0f 85 9f 03 00
	00		 jne	 $LN24@WindowProc

; 1012 : 	{	
; 1013 : 		if (wParam == (WPARAM)m_Grid.GetDlgCtrlID())

  00039	8d 8e b0 00 00
	00		 lea	 ecx, DWORD PTR [esi+176]
  0003f	e8 00 00 00 00	 call	 ?GetDlgCtrlID@CWnd@@QBEHXZ ; CWnd::GetDlgCtrlID
  00044	39 45 0c	 cmp	 DWORD PTR _wParam$[ebp], eax
  00047	0f 85 8b 03 00
	00		 jne	 $LN24@WindowProc

; 1014 : 		{
; 1015 : 			GV_DISPINFO *pDispInfo = (GV_DISPINFO*)lParam;
; 1016 : 			if (GVN_GETDISPINFO == pDispInfo->hdr.code)

  0004d	8b 47 08	 mov	 eax, DWORD PTR [edi+8]
  00050	3d 6a ff ff ff	 cmp	 eax, -150		; ffffff6aH
  00055	0f 85 5d 01 00
	00		 jne	 $LN4@WindowProc

; 1017 : 			{				
; 1018 : 				//
; 1019 : 				if(pDispInfo->item.row == 0)

  0005b	8b 47 0c	 mov	 eax, DWORD PTR [edi+12]
  0005e	8b 5f 10	 mov	 ebx, DWORD PTR [edi+16]
  00061	85 c0		 test	 eax, eax
  00063	75 77		 jne	 SHORT $LN6@WindowProc

; 1020 : 				{
; 1021 : 					if(pDispInfo->item.col < 0 || pDispInfo->item.col >= m_pChartDataGridManager->m_ChartDataGridHeaderInfoArray.GetSize())

  00065	85 db		 test	 ebx, ebx
  00067	78 44		 js	 SHORT $LN10@WindowProc
  00069	8b 8e 38 05 00
	00		 mov	 ecx, DWORD PTR [esi+1336]
  0006f	3b 59 20	 cmp	 ebx, DWORD PTR [ecx+32]
  00072	7d 39		 jge	 SHORT $LN10@WindowProc

; 1023 : 					else
; 1024 : 					{
; 1025 : 						CChartDataGridHeaderInfo * pHeaderInfo = m_pChartDataGridManager->m_ChartDataGridHeaderInfoArray.GetAt(pDispInfo->item.col);

  00074	53		 push	 ebx
  00075	83 c1 18	 add	 ecx, 24			; 00000018H
  00078	e8 00 00 00 00	 call	 ?GetAt@?$CArray@PAVCChartDataGridHeaderInfo@@PAV1@@@QAEAAPAVCChartDataGridHeaderInfo@@H@Z ; CArray<CChartDataGridHeaderInfo *,CChartDataGridHeaderInfo *>::GetAt

; 1026 : 						pDispInfo->item.strText = pHeaderInfo->m_strTitle;

  0007d	8d 4f 70	 lea	 ecx, DWORD PTR [edi+112]
  00080	8b 00		 mov	 eax, DWORD PTR [eax]
  00082	83 c0 04	 add	 eax, 4
  00085	50		 push	 eax
  00086	ff 15 00 00 00
	00		 call	 DWORD PTR __imp_??4?$CStringT@DV?$StrTraitMFC_DLL@DV?$ChTraitsCRT@D@ATL@@@@@ATL@@QAEAAV01@ABV01@@Z

; 1027 : 					}	
; 1028 : 					//pDispInfo->item.mask	= pDispInfo->item.mask | GVIF_FORMAT;
; 1029 : 					pDispInfo->item.nFormat= DT_CENTER|DT_VCENTER|DT_SINGLELINE|DT_NOPREFIX;

  0008c	b8 25 08 00 00	 mov	 eax, 2085		; 00000825H

; 1052 : 				}
; 1053 : 				
; 1054 : 				return TRUE;

  00091	89 47 1c	 mov	 DWORD PTR [edi+28], eax
  00094	b8 01 00 00 00	 mov	 eax, 1

; 1127 : }

  00099	8b 4d f4	 mov	 ecx, DWORD PTR __$EHRec$[ebp]
  0009c	64 89 0d 00 00
	00 00		 mov	 DWORD PTR fs:0, ecx
  000a3	59		 pop	 ecx
  000a4	5f		 pop	 edi
  000a5	5e		 pop	 esi
  000a6	5b		 pop	 ebx
  000a7	8b e5		 mov	 esp, ebp
  000a9	5d		 pop	 ebp
  000aa	c2 0c 00	 ret	 12			; 0000000cH
$LN10@WindowProc:

; 1022 : 						pDispInfo->item.strText = "";

  000ad	68 00 00 00 00	 push	 OFFSET ??_C@_00CNPNBAHC@@
  000b2	8d 4f 70	 lea	 ecx, DWORD PTR [edi+112]
  000b5	ff 15 00 00 00
	00		 call	 DWORD PTR __imp_??4?$CStringT@DV?$StrTraitMFC_DLL@DV?$ChTraitsCRT@D@ATL@@@@@ATL@@QAEAAV01@PBD@Z

; 1027 : 					}	
; 1028 : 					//pDispInfo->item.mask	= pDispInfo->item.mask | GVIF_FORMAT;
; 1029 : 					pDispInfo->item.nFormat= DT_CENTER|DT_VCENTER|DT_SINGLELINE|DT_NOPREFIX;

  000bb	b8 25 08 00 00	 mov	 eax, 2085		; 00000825H

; 1052 : 				}
; 1053 : 				
; 1054 : 				return TRUE;

  000c0	89 47 1c	 mov	 DWORD PTR [edi+28], eax
  000c3	b8 01 00 00 00	 mov	 eax, 1

; 1127 : }

  000c8	8b 4d f4	 mov	 ecx, DWORD PTR __$EHRec$[ebp]
  000cb	64 89 0d 00 00
	00 00		 mov	 DWORD PTR fs:0, ecx
  000d2	59		 pop	 ecx
  000d3	5f		 pop	 edi
  000d4	5e		 pop	 esi
  000d5	5b		 pop	 ebx
  000d6	8b e5		 mov	 esp, ebp
  000d8	5d		 pop	 ebp
  000d9	c2 0c 00	 ret	 12			; 0000000cH
$LN6@WindowProc:

; 1030 : 				}
; 1031 : 
; 1032 : 				//
; 1033 : 				else
; 1034 : 				{
; 1035 : 					if(pDispInfo->item.col < 0 || pDispInfo->item.col >= COL_SIZE)

  000dc	83 fb 05	 cmp	 ebx, 5
  000df	0f 87 a4 00 00
	00		 ja	 $LN13@WindowProc

; 1037 : 					else
; 1038 : 					{
; 1039 : 						POSITION pos = m_pChartDataGridManager->m_ChartDataList.FindIndex(pDispInfo->item.row - 1);

  000e5	8b 8e 38 05 00
	00		 mov	 ecx, DWORD PTR [esi+1336]
  000eb	48		 dec	 eax
  000ec	50		 push	 eax
  000ed	83 c1 2c	 add	 ecx, 44			; 0000002cH
  000f0	e8 00 00 00 00	 call	 ?FindIndex@?$CList@PAVCChartRecordSet@@PAV1@@@QBEPAU__POSITION@@H@Z ; CList<CChartRecordSet *,CChartRecordSet *>::FindIndex

; 1040 : 						if(pos)

  000f5	85 c0		 test	 eax, eax
  000f7	0f 84 9a 00 00
	00		 je	 $LN15@WindowProc

; 1041 : 						{
; 1042 : 							CChartRecordSet * pChartRecordSet = m_pChartDataGridManager->m_ChartDataList.GetAt(pos);

  000fd	8b 40 08	 mov	 eax, DWORD PTR [eax+8]

; 1043 : 							pDispInfo->item.strText = pChartRecordSet->m_Data[pDispInfo->item.col];

  00100	8d 4f 70	 lea	 ecx, DWORD PTR [edi+112]
  00103	8d 04 98	 lea	 eax, DWORD PTR [eax+ebx*4]
  00106	50		 push	 eax
  00107	ff 15 00 00 00
	00		 call	 DWORD PTR __imp_??4?$CStringT@DV?$StrTraitMFC_DLL@DV?$ChTraitsCRT@D@ATL@@@@@ATL@@QAEAAV01@ABV01@@Z

; 1044 : 							if(pDispInfo->item.col == DATE_TIME )

  0010d	83 7f 10 00	 cmp	 DWORD PTR [edi+16], 0
  00111	0f 85 80 00 00
	00		 jne	 $LN15@WindowProc

; 1045 : 							{							
; 1046 : 								CChartDataGridHeaderInfo * pHeaderInfo = m_pChartDataGridManager->m_ChartDataGridHeaderInfoArray.GetAt(pDispInfo->item.col);

  00117	8b 8e 38 05 00
	00		 mov	 ecx, DWORD PTR [esi+1336]
  0011d	6a 00		 push	 0
  0011f	83 c1 18	 add	 ecx, 24			; 00000018H
  00122	e8 00 00 00 00	 call	 ?GetAt@?$CArray@PAVCChartDataGridHeaderInfo@@PAV1@@@QAEAAPAVCChartDataGridHeaderInfo@@H@Z ; CArray<CChartDataGridHeaderInfo *,CChartDataGridHeaderInfo *>::GetAt

; 1047 : 								pDispInfo->item.strText = CDataConversion( m_hOcxWnd, m_eChartMode).GetStringFormatTrans( pDispInfo->item.strText, pHeaderInfo->m_strPacketType);

  00127	8b 8e 64 05 00
	00		 mov	 ecx, DWORD PTR [esi+1380]
; File D:\git\src\IBK\IBK_DRFN\ProjSrc\SrcChartEx\ChartAddIn\ChartDataListViewerAddIn\Include_Chart\Conversion.h

; 27   : 		{	m_hOcxWnd = p_hOcxWnd;	m_eChartMode = p_eChartMode;	}

  0012d	89 4d f0	 mov	 DWORD PTR $T3[ebp+4], ecx
; File D:\git\src\IBK\IBK_DRFN\ProjSrc\SrcChartEx\ChartAddIn\ChartDataListViewerAddIn\ChartDataListViewerAddIn\DlgDataSimulator.cpp

; 1047 : 								pDispInfo->item.strText = CDataConversion( m_hOcxWnd, m_eChartMode).GetStringFormatTrans( pDispInfo->item.strText, pHeaderInfo->m_strPacketType);

  00130	8d 4d ec	 lea	 ecx, DWORD PTR $T3[ebp]
  00133	8b 10		 mov	 edx, DWORD PTR [eax]
; File D:\git\src\IBK\IBK_DRFN\ProjSrc\SrcChartEx\ChartAddIn\ChartDataListViewerAddIn\Include_Chart\Conversion.h

; 27   : 		{	m_hOcxWnd = p_hOcxWnd;	m_eChartMode = p_eChartMode;	}

  00135	8b 86 ac 00 00
	00		 mov	 eax, DWORD PTR [esi+172]
; File D:\git\src\IBK\IBK_DRFN\ProjSrc\SrcChartEx\ChartAddIn\ChartDataListViewerAddIn\ChartDataListViewerAddIn\DlgDataSimulator.cpp

; 1047 : 								pDispInfo->item.strText = CDataConversion( m_hOcxWnd, m_eChartMode).GetStringFormatTrans( pDispInfo->item.strText, pHeaderInfo->m_strPacketType);

  0013b	8d 77 70	 lea	 esi, DWORD PTR [edi+112]
; File D:\git\src\IBK\IBK_DRFN\ProjSrc\SrcChartEx\ChartAddIn\ChartDataListViewerAddIn\Include_Chart\Conversion.h

; 27   : 		{	m_hOcxWnd = p_hOcxWnd;	m_eChartMode = p_eChartMode;	}

  0013e	89 45 ec	 mov	 DWORD PTR $T3[ebp], eax
; File D:\git\src\IBK\IBK_DRFN\ProjSrc\SrcChartEx\ChartAddIn\ChartDataListViewerAddIn\ChartDataListViewerAddIn\DlgDataSimulator.cpp

; 1047 : 								pDispInfo->item.strText = CDataConversion( m_hOcxWnd, m_eChartMode).GetStringFormatTrans( pDispInfo->item.strText, pHeaderInfo->m_strPacketType);

  00141	8d 42 08	 lea	 eax, DWORD PTR [edx+8]
  00144	50		 push	 eax
  00145	56		 push	 esi
  00146	8d 45 08	 lea	 eax, DWORD PTR $T6[ebp]
  00149	50		 push	 eax
  0014a	e8 00 00 00 00	 call	 ?GetStringFormatTrans@CDataConversion@@QAE?AV?$CStringT@DV?$StrTraitMFC_DLL@DV?$ChTraitsCRT@D@ATL@@@@@ATL@@ABV23@0@Z ; CDataConversion::GetStringFormatTrans
  0014f	50		 push	 eax
  00150	8b ce		 mov	 ecx, esi
  00152	c7 45 fc 00 00
	00 00		 mov	 DWORD PTR __$EHRec$[ebp+8], 0
  00159	ff 15 00 00 00
	00		 call	 DWORD PTR __imp_??4?$CStringT@DV?$StrTraitMFC_DLL@DV?$ChTraitsCRT@D@ATL@@@@@ATL@@QAEAAV01@ABV01@@Z
  0015f	8d 4d 08	 lea	 ecx, DWORD PTR $T6[ebp]
  00162	ff 15 00 00 00
	00		 call	 DWORD PTR __imp_??1?$CStringT@DV?$StrTraitMFC_DLL@DV?$ChTraitsCRT@D@ATL@@@@@ATL@@QAE@XZ

; 1048 : 							}
; 1049 : 						}
; 1050 : 					}
; 1051 : 					pDispInfo->item.nFormat= DT_RIGHT|DT_VCENTER|DT_SINGLELINE|DT_NOPREFIX;

  00168	b8 26 08 00 00	 mov	 eax, 2086		; 00000826H

; 1052 : 				}
; 1053 : 				
; 1054 : 				return TRUE;

  0016d	89 47 1c	 mov	 DWORD PTR [edi+28], eax
  00170	b8 01 00 00 00	 mov	 eax, 1

; 1127 : }

  00175	8b 4d f4	 mov	 ecx, DWORD PTR __$EHRec$[ebp]
  00178	64 89 0d 00 00
	00 00		 mov	 DWORD PTR fs:0, ecx
  0017f	59		 pop	 ecx
  00180	5f		 pop	 edi
  00181	5e		 pop	 esi
  00182	5b		 pop	 ebx
  00183	8b e5		 mov	 esp, ebp
  00185	5d		 pop	 ebp
  00186	c2 0c 00	 ret	 12			; 0000000cH
$LN13@WindowProc:

; 1036 : 						pDispInfo->item.strText = "";

  00189	68 00 00 00 00	 push	 OFFSET ??_C@_00CNPNBAHC@@
  0018e	8d 4f 70	 lea	 ecx, DWORD PTR [edi+112]
  00191	ff 15 00 00 00
	00		 call	 DWORD PTR __imp_??4?$CStringT@DV?$StrTraitMFC_DLL@DV?$ChTraitsCRT@D@ATL@@@@@ATL@@QAEAAV01@PBD@Z
$LN15@WindowProc:

; 1048 : 							}
; 1049 : 						}
; 1050 : 					}
; 1051 : 					pDispInfo->item.nFormat= DT_RIGHT|DT_VCENTER|DT_SINGLELINE|DT_NOPREFIX;

  00197	b8 26 08 00 00	 mov	 eax, 2086		; 00000826H

; 1052 : 				}
; 1053 : 				
; 1054 : 				return TRUE;

  0019c	89 47 1c	 mov	 DWORD PTR [edi+28], eax
  0019f	b8 01 00 00 00	 mov	 eax, 1

; 1127 : }

  001a4	8b 4d f4	 mov	 ecx, DWORD PTR __$EHRec$[ebp]
  001a7	64 89 0d 00 00
	00 00		 mov	 DWORD PTR fs:0, ecx
  001ae	59		 pop	 ecx
  001af	5f		 pop	 edi
  001b0	5e		 pop	 esi
  001b1	5b		 pop	 ebx
  001b2	8b e5		 mov	 esp, ebp
  001b4	5d		 pop	 ebp
  001b5	c2 0c 00	 ret	 12			; 0000000cH
$LN4@WindowProc:

; 1055 : 			}
; 1056 : 			else if(GVN_BEGINLABELEDIT	== pDispInfo->hdr.code)

  001b8	83 f8 97	 cmp	 eax, -105		; ffffff97H
  001bb	0f 85 92 00 00
	00		 jne	 $LN16@WindowProc

; 1057 : 			{
; 1058 : 				//
; 1059 : 				if(pDispInfo->item.row == 0)

  001c1	8b 4f 0c	 mov	 ecx, DWORD PTR [edi+12]
  001c4	85 c9		 test	 ecx, ecx
  001c6	74 75		 je	 SHORT $LN22@WindowProc

; 1060 : 					return FALSE;
; 1061 : 				
; 1062 : 				//
; 1063 : 				else
; 1064 : 				{
; 1065 : 					if(pDispInfo->item.col <= 0 || pDispInfo->item.col >= COL_SIZE)

  001c8	8b 5f 10	 mov	 ebx, DWORD PTR [edi+16]
  001cb	8d 43 ff	 lea	 eax, DWORD PTR [ebx-1]
  001ce	83 f8 04	 cmp	 eax, 4
  001d1	77 6a		 ja	 SHORT $LN22@WindowProc

; 1067 : 					else
; 1068 : 					{
; 1069 : 						POSITION pos = m_pChartDataGridManager->m_ChartDataList.FindIndex(pDispInfo->item.row - 1);

  001d3	8d 41 ff	 lea	 eax, DWORD PTR [ecx-1]
  001d6	8b 8e 38 05 00
	00		 mov	 ecx, DWORD PTR [esi+1336]
  001dc	50		 push	 eax
  001dd	83 c1 2c	 add	 ecx, 44			; 0000002cH
  001e0	e8 00 00 00 00	 call	 ?FindIndex@?$CList@PAVCChartRecordSet@@PAV1@@@QBEPAU__POSITION@@H@Z ; CList<CChartRecordSet *,CChartRecordSet *>::FindIndex

; 1070 : 						if(pos)

  001e5	85 c0		 test	 eax, eax
  001e7	74 3b		 je	 SHORT $LN23@WindowProc

; 1071 : 						{
; 1072 : 							CChartRecordSet * pChartRecordSet = m_pChartDataGridManager->m_ChartDataList.GetAt(pos);

  001e9	8b 70 08	 mov	 esi, DWORD PTR [eax+8]

; 1073 : 							CString str = pChartRecordSet->m_Data[pDispInfo->item.col];

  001ec	8d 4d 08	 lea	 ecx, DWORD PTR _str$5[ebp]
  001ef	8d 04 9e	 lea	 eax, DWORD PTR [esi+ebx*4]
  001f2	50		 push	 eax
  001f3	ff 15 00 00 00
	00		 call	 DWORD PTR __imp_??0?$CStringT@DV?$StrTraitMFC_DLL@DV?$ChTraitsCRT@D@ATL@@@@@ATL@@QAE@ABV01@@Z

; 1074 : 							str.Remove(',');

  001f9	6a 2c		 push	 44			; 0000002cH
  001fb	8d 4d 08	 lea	 ecx, DWORD PTR _str$5[ebp]
  001fe	c7 45 fc 01 00
	00 00		 mov	 DWORD PTR __$EHRec$[ebp+8], 1
  00205	ff 15 00 00 00
	00		 call	 DWORD PTR __imp_?Remove@?$CStringT@DV?$StrTraitMFC_DLL@DV?$ChTraitsCRT@D@ATL@@@@@ATL@@QAEHD@Z

; 1075 : 							pChartRecordSet->m_Data[pDispInfo->item.col] = str;

  0020b	8d 45 08	 lea	 eax, DWORD PTR _str$5[ebp]
  0020e	50		 push	 eax
  0020f	8b 47 10	 mov	 eax, DWORD PTR [edi+16]
  00212	8d 0c 86	 lea	 ecx, DWORD PTR [esi+eax*4]
  00215	ff 15 00 00 00
	00		 call	 DWORD PTR __imp_??4?$CStringT@DV?$StrTraitMFC_DLL@DV?$ChTraitsCRT@D@ATL@@@@@ATL@@QAEAAV01@ABV01@@Z

; 1076 : 						}

  0021b	8d 4d 08	 lea	 ecx, DWORD PTR _str$5[ebp]
  0021e	ff 15 00 00 00
	00		 call	 DWORD PTR __imp_??1?$CStringT@DV?$StrTraitMFC_DLL@DV?$ChTraitsCRT@D@ATL@@@@@ATL@@QAE@XZ
$LN23@WindowProc:

; 1077 : 					}					
; 1078 : 				}
; 1079 : 				return TRUE;

  00224	b8 01 00 00 00	 mov	 eax, 1

; 1127 : }

  00229	8b 4d f4	 mov	 ecx, DWORD PTR __$EHRec$[ebp]
  0022c	64 89 0d 00 00
	00 00		 mov	 DWORD PTR fs:0, ecx
  00233	59		 pop	 ecx
  00234	5f		 pop	 edi
  00235	5e		 pop	 esi
  00236	5b		 pop	 ebx
  00237	8b e5		 mov	 esp, ebp
  00239	5d		 pop	 ebp
  0023a	c2 0c 00	 ret	 12			; 0000000cH
$LN22@WindowProc:

; 1066 : 						return FALSE;						

  0023d	33 c0		 xor	 eax, eax

; 1127 : }

  0023f	8b 4d f4	 mov	 ecx, DWORD PTR __$EHRec$[ebp]
  00242	64 89 0d 00 00
	00 00		 mov	 DWORD PTR fs:0, ecx
  00249	59		 pop	 ecx
  0024a	5f		 pop	 edi
  0024b	5e		 pop	 esi
  0024c	5b		 pop	 ebx
  0024d	8b e5		 mov	 esp, ebp
  0024f	5d		 pop	 ebp
  00250	c2 0c 00	 ret	 12			; 0000000cH
$LN16@WindowProc:

; 1080 : 			}
; 1081 : 			else if(GVN_ENDLABELEDIT	== pDispInfo->hdr.code)

  00253	83 f8 96	 cmp	 eax, -106		; ffffff96H
  00256	0f 85 7c 01 00
	00		 jne	 $LN24@WindowProc

; 1082 : 			{
; 1083 : 				GV_DISPINFO *pDispInfo = (GV_DISPINFO*)lParam;
; 1084 : 				CString strEdit = pDispInfo->item.strText;

  0025c	8d 47 70	 lea	 eax, DWORD PTR [edi+112]
  0025f	50		 push	 eax
  00260	8d 4d 0c	 lea	 ecx, DWORD PTR _strEdit$7[ebp]
  00263	ff 15 00 00 00
	00		 call	 DWORD PTR __imp_??0?$CStringT@DV?$StrTraitMFC_DLL@DV?$ChTraitsCRT@D@ATL@@@@@ATL@@QAE@ABV01@@Z

; 1085 : 				strEdit.TrimLeft(); strEdit.TrimRight();

  00269	8d 4d 0c	 lea	 ecx, DWORD PTR _strEdit$7[ebp]
  0026c	c7 45 fc 02 00
	00 00		 mov	 DWORD PTR __$EHRec$[ebp+8], 2
  00273	ff 15 00 00 00
	00		 call	 DWORD PTR __imp_?TrimLeft@?$CStringT@DV?$StrTraitMFC_DLL@DV?$ChTraitsCRT@D@ATL@@@@@ATL@@QAEAAV12@XZ
  00279	8d 4d 0c	 lea	 ecx, DWORD PTR _strEdit$7[ebp]
  0027c	ff 15 00 00 00
	00		 call	 DWORD PTR __imp_?TrimRight@?$CStringT@DV?$StrTraitMFC_DLL@DV?$ChTraitsCRT@D@ATL@@@@@ATL@@QAEAAV12@XZ

; 1086 : 
; 1087 : 				if(pDispInfo->item.col < 0 || pDispInfo->item.col >= m_pChartDataGridManager->m_ChartDataGridHeaderInfoArray.GetSize())

  00282	8b 47 10	 mov	 eax, DWORD PTR [edi+16]
  00285	85 c0		 test	 eax, eax
  00287	0f 88 2a 01 00
	00		 js	 $LN34@WindowProc
  0028d	8b 8e 38 05 00
	00		 mov	 ecx, DWORD PTR [esi+1336]
  00293	3b 41 20	 cmp	 eax, DWORD PTR [ecx+32]
  00296	0f 8d 1b 01 00
	00		 jge	 $LN34@WindowProc

; 1088 : 					return FALSE;
; 1089 : 
; 1090 : 				///////////////////////////////////////////////////////
; 1091 : 				// 
; 1092 : 				CChartDataGridHeaderInfo * pHeaderInfo = m_pChartDataGridManager->m_ChartDataGridHeaderInfoArray.GetAt(pDispInfo->item.col);

  0029c	50		 push	 eax
  0029d	83 c1 18	 add	 ecx, 24			; 00000018H
  002a0	e8 00 00 00 00	 call	 ?GetAt@?$CArray@PAVCChartDataGridHeaderInfo@@PAV1@@@QAEAAPAVCChartDataGridHeaderInfo@@H@Z ; CArray<CChartDataGridHeaderInfo *,CChartDataGridHeaderInfo *>::GetAt
  002a5	8b 18		 mov	 ebx, DWORD PTR [eax]

; 1093 : 				if(CDataConversion::IsBaseFormat(pHeaderInfo->m_strPacketType)) 

  002a7	83 c3 08	 add	 ebx, 8
  002aa	53		 push	 ebx
  002ab	e8 00 00 00 00	 call	 ?IsBaseFormat@CDataConversion@@SA_NABV?$CStringT@DV?$StrTraitMFC_DLL@DV?$ChTraitsCRT@D@ATL@@@@@ATL@@@Z ; CDataConversion::IsBaseFormat
  002b0	83 c4 04	 add	 esp, 4
  002b3	84 c0		 test	 al, al
  002b5	74 66		 je	 SHORT $LN27@WindowProc

; 1094 : 				{								
; 1095 : 					CString strOutput;

  002b7	8d 4d 08	 lea	 ecx, DWORD PTR _strOutput$4[ebp]
  002ba	ff 15 00 00 00
	00		 call	 DWORD PTR __imp_??0?$CStringT@DV?$StrTraitMFC_DLL@DV?$ChTraitsCRT@D@ATL@@@@@ATL@@QAE@XZ

; 1096 : 					if(!CDataConversion::GetDataToDec(strEdit, pHeaderInfo->m_strPacketType, strOutput)) 

  002c0	8d 45 08	 lea	 eax, DWORD PTR _strOutput$4[ebp]
  002c3	c6 45 fc 03	 mov	 BYTE PTR __$EHRec$[ebp+8], 3
  002c7	50		 push	 eax
  002c8	51		 push	 ecx
  002c9	8b cc		 mov	 ecx, esp
  002cb	89 65 10	 mov	 DWORD PTR $T9[ebp], esp
  002ce	53		 push	 ebx
  002cf	ff 15 00 00 00
	00		 call	 DWORD PTR __imp_??0?$CStringT@DV?$StrTraitMFC_DLL@DV?$ChTraitsCRT@D@ATL@@@@@ATL@@QAE@ABV01@@Z
  002d5	51		 push	 ecx
  002d6	8d 45 0c	 lea	 eax, DWORD PTR _strEdit$7[ebp]
  002d9	c6 45 fc 04	 mov	 BYTE PTR __$EHRec$[ebp+8], 4
  002dd	8b cc		 mov	 ecx, esp
  002df	50		 push	 eax
  002e0	ff 15 00 00 00
	00		 call	 DWORD PTR __imp_??0?$CStringT@DV?$StrTraitMFC_DLL@DV?$ChTraitsCRT@D@ATL@@@@@ATL@@QAE@ABV01@@Z
  002e6	c6 45 fc 03	 mov	 BYTE PTR __$EHRec$[ebp+8], 3
  002ea	e8 00 00 00 00	 call	 ?GetDataToDec@CDataConversion@@SAHV?$CStringT@DV?$StrTraitMFC_DLL@DV?$ChTraitsCRT@D@ATL@@@@@ATL@@0AAV23@@Z ; CDataConversion::GetDataToDec
  002ef	83 c4 0c	 add	 esp, 12			; 0000000cH
  002f2	8d 4d 0c	 lea	 ecx, DWORD PTR _strEdit$7[ebp]
  002f5	85 c0		 test	 eax, eax
  002f7	75 0d		 jne	 SHORT $LN28@WindowProc

; 1097 : 						strEdit = "0";

  002f9	68 00 00 00 00	 push	 OFFSET ??_C@_01GBGANLPD@0@
  002fe	ff 15 00 00 00
	00		 call	 DWORD PTR __imp_??4?$CStringT@DV?$StrTraitMFC_DLL@DV?$ChTraitsCRT@D@ATL@@@@@ATL@@QAEAAV01@PBD@Z
  00304	eb 0a		 jmp	 SHORT $LN29@WindowProc
$LN28@WindowProc:

; 1098 : 					else
; 1099 : 						strEdit = strOutput;

  00306	8d 45 08	 lea	 eax, DWORD PTR _strOutput$4[ebp]
  00309	50		 push	 eax
  0030a	ff 15 00 00 00
	00		 call	 DWORD PTR __imp_??4?$CStringT@DV?$StrTraitMFC_DLL@DV?$ChTraitsCRT@D@ATL@@@@@ATL@@QAEAAV01@ABV01@@Z
$LN29@WindowProc:

; 1100 : 				}

  00310	8d 4d 08	 lea	 ecx, DWORD PTR _strOutput$4[ebp]
  00313	c6 45 fc 02	 mov	 BYTE PTR __$EHRec$[ebp+8], 2
  00317	ff 15 00 00 00
	00		 call	 DWORD PTR __imp_??1?$CStringT@DV?$StrTraitMFC_DLL@DV?$ChTraitsCRT@D@ATL@@@@@ATL@@QAE@XZ
$LN27@WindowProc:
; File D:\git\src\IBK\IBK_DRFN\ProjSrc\SrcChartEx\ChartAddIn\ChartDataListViewerAddIn\Include_Chart\Conversion.h

; 27   : 		{	m_hOcxWnd = p_hOcxWnd;	m_eChartMode = p_eChartMode;	}

  0031d	8b 86 ac 00 00
	00		 mov	 eax, DWORD PTR [esi+172]
; File D:\git\src\IBK\IBK_DRFN\ProjSrc\SrcChartEx\ChartAddIn\ChartDataListViewerAddIn\ChartDataListViewerAddIn\DlgDataSimulator.cpp

; 1101 : 				strEdit = CDataConversion( m_hOcxWnd, m_eChartMode).GetStringFormatTrans(strEdit, pHeaderInfo->m_strPacketType);						

  00323	8b 8e 64 05 00
	00		 mov	 ecx, DWORD PTR [esi+1380]
; File D:\git\src\IBK\IBK_DRFN\ProjSrc\SrcChartEx\ChartAddIn\ChartDataListViewerAddIn\Include_Chart\Conversion.h

; 27   : 		{	m_hOcxWnd = p_hOcxWnd;	m_eChartMode = p_eChartMode;	}

  00329	89 45 e4	 mov	 DWORD PTR $T2[ebp], eax
; File D:\git\src\IBK\IBK_DRFN\ProjSrc\SrcChartEx\ChartAddIn\ChartDataListViewerAddIn\ChartDataListViewerAddIn\DlgDataSimulator.cpp

; 1101 : 				strEdit = CDataConversion( m_hOcxWnd, m_eChartMode).GetStringFormatTrans(strEdit, pHeaderInfo->m_strPacketType);						

  0032c	8d 45 0c	 lea	 eax, DWORD PTR _strEdit$7[ebp]
  0032f	53		 push	 ebx
  00330	50		 push	 eax
  00331	8d 45 10	 lea	 eax, DWORD PTR $T8[ebp]
; File D:\git\src\IBK\IBK_DRFN\ProjSrc\SrcChartEx\ChartAddIn\ChartDataListViewerAddIn\Include_Chart\Conversion.h

; 27   : 		{	m_hOcxWnd = p_hOcxWnd;	m_eChartMode = p_eChartMode;	}

  00334	89 4d e8	 mov	 DWORD PTR $T2[ebp+4], ecx
; File D:\git\src\IBK\IBK_DRFN\ProjSrc\SrcChartEx\ChartAddIn\ChartDataListViewerAddIn\ChartDataListViewerAddIn\DlgDataSimulator.cpp

; 1101 : 				strEdit = CDataConversion( m_hOcxWnd, m_eChartMode).GetStringFormatTrans(strEdit, pHeaderInfo->m_strPacketType);						

  00337	50		 push	 eax
  00338	8d 4d e4	 lea	 ecx, DWORD PTR $T2[ebp]
  0033b	e8 00 00 00 00	 call	 ?GetStringFormatTrans@CDataConversion@@QAE?AV?$CStringT@DV?$StrTraitMFC_DLL@DV?$ChTraitsCRT@D@ATL@@@@@ATL@@ABV23@0@Z ; CDataConversion::GetStringFormatTrans
  00340	50		 push	 eax
  00341	8d 4d 0c	 lea	 ecx, DWORD PTR _strEdit$7[ebp]
  00344	c6 45 fc 05	 mov	 BYTE PTR __$EHRec$[ebp+8], 5
  00348	ff 15 00 00 00
	00		 call	 DWORD PTR __imp_??4?$CStringT@DV?$StrTraitMFC_DLL@DV?$ChTraitsCRT@D@ATL@@@@@ATL@@QAEAAV01@ABV01@@Z
  0034e	8d 4d 10	 lea	 ecx, DWORD PTR $T8[ebp]
  00351	c6 45 fc 02	 mov	 BYTE PTR __$EHRec$[ebp+8], 2
  00355	ff 15 00 00 00
	00		 call	 DWORD PTR __imp_??1?$CStringT@DV?$StrTraitMFC_DLL@DV?$ChTraitsCRT@D@ATL@@@@@ATL@@QAE@XZ

; 1102 : 
; 1103 : 
; 1104 : 				///////////////////////////////////////////////////////				
; 1105 : 				if(pDispInfo->item.row == 0)

  0035b	8b 4f 0c	 mov	 ecx, DWORD PTR [edi+12]
  0035e	85 c9		 test	 ecx, ecx
  00360	74 55		 je	 SHORT $LN34@WindowProc

; 1106 : 					return FALSE;
; 1107 : 				else
; 1108 : 				{
; 1109 : 					if(pDispInfo->item.col <= 0 || pDispInfo->item.col >= COL_SIZE)

  00362	8b 7f 10	 mov	 edi, DWORD PTR [edi+16]
  00365	8d 47 ff	 lea	 eax, DWORD PTR [edi-1]
  00368	83 f8 04	 cmp	 eax, 4
  0036b	77 4a		 ja	 SHORT $LN34@WindowProc

; 1110 : 						return FALSE;						
; 1111 : 					else
; 1112 : 					{
; 1113 : 						POSITION pos = m_pChartDataGridManager->m_ChartDataList.FindIndex(pDispInfo->item.row - 1);

  0036d	8d 41 ff	 lea	 eax, DWORD PTR [ecx-1]
  00370	8b 8e 38 05 00
	00		 mov	 ecx, DWORD PTR [esi+1336]
  00376	50		 push	 eax
  00377	83 c1 2c	 add	 ecx, 44			; 0000002cH
  0037a	e8 00 00 00 00	 call	 ?FindIndex@?$CList@PAVCChartRecordSet@@PAV1@@@QBEPAU__POSITION@@H@Z ; CList<CChartRecordSet *,CChartRecordSet *>::FindIndex

; 1114 : 						if(pos)

  0037f	85 c0		 test	 eax, eax
  00381	74 10		 je	 SHORT $LN35@WindowProc

; 1115 : 						{
; 1116 : 							CChartRecordSet * pChartRecordSet = m_pChartDataGridManager->m_ChartDataList.GetAt(pos);
; 1117 : 							pChartRecordSet->m_Data[pDispInfo->item.col] = strEdit;							

  00383	8b 40 08	 mov	 eax, DWORD PTR [eax+8]
  00386	8d 4d 0c	 lea	 ecx, DWORD PTR _strEdit$7[ebp]
  00389	51		 push	 ecx
  0038a	8d 0c b8	 lea	 ecx, DWORD PTR [eax+edi*4]
  0038d	ff 15 00 00 00
	00		 call	 DWORD PTR __imp_??4?$CStringT@DV?$StrTraitMFC_DLL@DV?$ChTraitsCRT@D@ATL@@@@@ATL@@QAEAAV01@ABV01@@Z
$LN35@WindowProc:

; 1118 : 						}
; 1119 : 					}
; 1120 : 				}
; 1121 : 				
; 1122 : 				return TRUE;

  00393	8d 4d 0c	 lea	 ecx, DWORD PTR _strEdit$7[ebp]
  00396	be 01 00 00 00	 mov	 esi, 1
  0039b	ff 15 00 00 00
	00		 call	 DWORD PTR __imp_??1?$CStringT@DV?$StrTraitMFC_DLL@DV?$ChTraitsCRT@D@ATL@@@@@ATL@@QAE@XZ
  003a1	8b c6		 mov	 eax, esi

; 1127 : }

  003a3	8b 4d f4	 mov	 ecx, DWORD PTR __$EHRec$[ebp]
  003a6	64 89 0d 00 00
	00 00		 mov	 DWORD PTR fs:0, ecx
  003ad	59		 pop	 ecx
  003ae	5f		 pop	 edi
  003af	5e		 pop	 esi
  003b0	5b		 pop	 ebx
  003b1	8b e5		 mov	 esp, ebp
  003b3	5d		 pop	 ebp
  003b4	c2 0c 00	 ret	 12			; 0000000cH
$LN34@WindowProc:

; 1118 : 						}
; 1119 : 					}
; 1120 : 				}
; 1121 : 				
; 1122 : 				return TRUE;

  003b7	8d 4d 0c	 lea	 ecx, DWORD PTR _strEdit$7[ebp]
  003ba	33 f6		 xor	 esi, esi
  003bc	ff 15 00 00 00
	00		 call	 DWORD PTR __imp_??1?$CStringT@DV?$StrTraitMFC_DLL@DV?$ChTraitsCRT@D@ATL@@@@@ATL@@QAE@XZ
  003c2	8b c6		 mov	 eax, esi

; 1127 : }

  003c4	8b 4d f4	 mov	 ecx, DWORD PTR __$EHRec$[ebp]
  003c7	64 89 0d 00 00
	00 00		 mov	 DWORD PTR fs:0, ecx
  003ce	59		 pop	 ecx
  003cf	5f		 pop	 edi
  003d0	5e		 pop	 esi
  003d1	5b		 pop	 ebx
  003d2	8b e5		 mov	 esp, ebp
  003d4	5d		 pop	 ebp
  003d5	c2 0c 00	 ret	 12			; 0000000cH
$LN24@WindowProc:

; 1123 : 			}
; 1124 : 		}
; 1125 : 	}
; 1126 : 	return CDialog::WindowProc(message, wParam, lParam);

  003d8	57		 push	 edi
  003d9	ff 75 0c	 push	 DWORD PTR _wParam$[ebp]
  003dc	8b ce		 mov	 ecx, esi
  003de	53		 push	 ebx
  003df	e8 00 00 00 00	 call	 ?WindowProc@CWnd@@MAEJIIJ@Z ; CWnd::WindowProc

; 1127 : }

  003e4	8b 4d f4	 mov	 ecx, DWORD PTR __$EHRec$[ebp]
  003e7	64 89 0d 00 00
	00 00		 mov	 DWORD PTR fs:0, ecx
  003ee	59		 pop	 ecx
  003ef	5f		 pop	 edi
  003f0	5e		 pop	 esi
  003f1	5b		 pop	 ebx
  003f2	8b e5		 mov	 esp, ebp
  003f4	5d		 pop	 ebp
  003f5	c2 0c 00	 ret	 12			; 0000000cH
_TEXT	ENDS
;	COMDAT text$x
text$x	SEGMENT
__unwindfunclet$?WindowProc@CDlgDataSimulator@@MAEJIIJ@Z$0:
  00000	8d 4d 08	 lea	 ecx, DWORD PTR $T6[ebp]
  00003	ff 25 00 00 00
	00		 jmp	 DWORD PTR __imp_??1?$CStringT@DV?$StrTraitMFC_DLL@DV?$ChTraitsCRT@D@ATL@@@@@ATL@@QAE@XZ
__unwindfunclet$?WindowProc@CDlgDataSimulator@@MAEJIIJ@Z$1:
  00009	8d 4d 08	 lea	 ecx, DWORD PTR _str$5[ebp]
  0000c	ff 25 00 00 00
	00		 jmp	 DWORD PTR __imp_??1?$CStringT@DV?$StrTraitMFC_DLL@DV?$ChTraitsCRT@D@ATL@@@@@ATL@@QAE@XZ
__unwindfunclet$?WindowProc@CDlgDataSimulator@@MAEJIIJ@Z$2:
  00012	8d 4d 0c	 lea	 ecx, DWORD PTR _strEdit$7[ebp]
  00015	ff 25 00 00 00
	00		 jmp	 DWORD PTR __imp_??1?$CStringT@DV?$StrTraitMFC_DLL@DV?$ChTraitsCRT@D@ATL@@@@@ATL@@QAE@XZ
__unwindfunclet$?WindowProc@CDlgDataSimulator@@MAEJIIJ@Z$3:
  0001b	8d 4d 08	 lea	 ecx, DWORD PTR _strOutput$4[ebp]
  0001e	ff 25 00 00 00
	00		 jmp	 DWORD PTR __imp_??1?$CStringT@DV?$StrTraitMFC_DLL@DV?$ChTraitsCRT@D@ATL@@@@@ATL@@QAE@XZ
__unwindfunclet$?WindowProc@CDlgDataSimulator@@MAEJIIJ@Z$4:
  00024	8b 4d 10	 mov	 ecx, DWORD PTR $T9[ebp]
  00027	ff 25 00 00 00
	00		 jmp	 DWORD PTR __imp_??1?$CStringT@DV?$StrTraitMFC_DLL@DV?$ChTraitsCRT@D@ATL@@@@@ATL@@QAE@XZ
__unwindfunclet$?WindowProc@CDlgDataSimulator@@MAEJIIJ@Z$6:
  0002d	8d 4d 10	 lea	 ecx, DWORD PTR $T8[ebp]
  00030	ff 25 00 00 00
	00		 jmp	 DWORD PTR __imp_??1?$CStringT@DV?$StrTraitMFC_DLL@DV?$ChTraitsCRT@D@ATL@@@@@ATL@@QAE@XZ
  00036	cc		 int	 3
  00037	cc		 int	 3
  00038	cc		 int	 3
  00039	cc		 int	 3
  0003a	cc		 int	 3
__ehhandler$?WindowProc@CDlgDataSimulator@@MAEJIIJ@Z:
  0003b	90		 npad	 1
  0003c	90		 npad	 1
  0003d	8b 54 24 08	 mov	 edx, DWORD PTR [esp+8]
  00041	8d 42 0c	 lea	 eax, DWORD PTR [edx+12]
  00044	8b 4a e0	 mov	 ecx, DWORD PTR [edx-32]
  00047	33 c8		 xor	 ecx, eax
  00049	e8 00 00 00 00	 call	 @__security_check_cookie@4
  0004e	b8 00 00 00 00	 mov	 eax, OFFSET __ehfuncinfo$?WindowProc@CDlgDataSimulator@@MAEJIIJ@Z
  00053	e9 00 00 00 00	 jmp	 ___CxxFrameHandler3
text$x	ENDS
?WindowProc@CDlgDataSimulator@@MAEJIIJ@Z ENDP		; CDlgDataSimulator::WindowProc
; Function compile flags: /Ogtp
; File D:\git\src\IBK\IBK_DRFN\ProjSrc\SrcChartEx\ChartAddIn\ChartDataListViewerAddIn\ChartDataListViewerAddIn\DlgDataSimulator.cpp
;	COMDAT ?DoDataExchange@CDlgDataSimulator@@MAEXPAVCDataExchange@@@Z
_TEXT	SEGMENT
_pDX$ = 8						; size = 4
?DoDataExchange@CDlgDataSimulator@@MAEXPAVCDataExchange@@@Z PROC ; CDlgDataSimulator::DoDataExchange, COMDAT
; _this$ = ecx

; 43   : {

  00000	55		 push	 ebp
  00001	8b ec		 mov	 ebp, esp
  00003	57		 push	 edi
  00004	8b f9		 mov	 edi, ecx

; 44   : 	CDialog::DoDataExchange(pDX);
; 45   : 	//{{AFX_DATA_MAP(CDlgDataSimulator)
; 46   : 		DDX_Control(pDX, IDC_DATA_GRID, m_Grid);             // associate the grid window with a C++ object

  00006	8d 87 b0 00 00
	00		 lea	 eax, DWORD PTR [edi+176]
  0000c	50		 push	 eax
  0000d	68 b1 61 00 00	 push	 25009			; 000061b1H
  00012	ff 75 08	 push	 DWORD PTR _pDX$[ebp]
  00015	e8 00 00 00 00	 call	 ?DDX_Control@@YGXPAVCDataExchange@@HAAVCWnd@@@Z ; DDX_Control

; 47   : 	DDX_Text(pDX, IDC_STC_TITLE, m_strTitle);

  0001a	8d 87 a8 00 00
	00		 lea	 eax, DWORD PTR [edi+168]
  00020	50		 push	 eax
  00021	68 b0 61 00 00	 push	 25008			; 000061b0H
  00026	ff 75 08	 push	 DWORD PTR _pDX$[ebp]
  00029	e8 00 00 00 00	 call	 ?DDX_Text@@YGXPAVCDataExchange@@HAAV?$CStringT@DV?$StrTraitMFC_DLL@DV?$ChTraitsCRT@D@ATL@@@@@ATL@@@Z ; DDX_Text
  0002e	5f		 pop	 edi

; 48   : 	//}}AFX_DATA_MAP
; 49   : }

  0002f	5d		 pop	 ebp
  00030	c2 04 00	 ret	 4
?DoDataExchange@CDlgDataSimulator@@MAEXPAVCDataExchange@@@Z ENDP ; CDlgDataSimulator::DoDataExchange
_TEXT	ENDS
; Function compile flags: /Ogtp
; File D:\git\src\IBK\IBK_DRFN\ProjSrc\SrcChartEx\ChartAddIn\ChartDataListViewerAddIn\ChartDataListViewerAddIn\DlgDataSimulator.cpp
; File C:\Program Files (x86)\Microsoft Visual Studio\2019\Community\VC\Tools\MSVC\14.29.30133\atlmfc\include\afxwin2.inl
; File D:\git\src\IBK\IBK_DRFN\ProjSrc\SrcChartEx\ChartAddIn\ChartDataListViewerAddIn\ChartDataListViewerAddIn\DlgDataSimulator.cpp
; File C:\Program Files (x86)\Microsoft Visual Studio\2019\Community\VC\Tools\MSVC\14.29.30133\atlmfc\include\afxwin2.inl
; File D:\git\src\IBK\IBK_DRFN\ProjSrc\SrcChartEx\ChartAddIn\ChartDataListViewerAddIn\ChartDataListViewerAddIn\DlgDataSimulator.cpp
;	COMDAT ?PreTranslateMessage@CDlgDataSimulator@@UAEHPAUtagMSG@@@Z
_TEXT	SEGMENT
_pMsg$ = 8						; size = 4
?PreTranslateMessage@CDlgDataSimulator@@UAEHPAUtagMSG@@@Z PROC ; CDlgDataSimulator::PreTranslateMessage, COMDAT
; _this$ = ecx

; 1130 : {

  00000	55		 push	 ebp
  00001	8b ec		 mov	 ebp, esp

; 1131 : 	if(pMsg->message == WM_KEYDOWN )

  00003	8b 45 08	 mov	 eax, DWORD PTR _pMsg$[ebp]
  00006	56		 push	 esi
  00007	8b f1		 mov	 esi, ecx
  00009	8b 50 04	 mov	 edx, DWORD PTR [eax+4]
  0000c	81 fa 00 01 00
	00		 cmp	 edx, 256		; 00000100H
  00012	75 3e		 jne	 SHORT $LN5@PreTransla

; 1132 : 	{
; 1133 : 		if(pMsg->wParam == VK_ESCAPE)

  00014	8b 50 08	 mov	 edx, DWORD PTR [eax+8]
  00017	83 fa 1b	 cmp	 edx, 27			; 0000001bH
  0001a	74 2c		 je	 SHORT $LN15@PreTransla

; 1137 : 		else if(pMsg->wParam == VK_RETURN && pMsg->hwnd == m_Grid.GetSafeHwnd())

  0001c	83 fa 0d	 cmp	 edx, 13			; 0000000dH
  0001f	75 46		 jne	 SHORT $LN7@PreTransla
  00021	8d 8e b0 00 00
	00		 lea	 ecx, DWORD PTR [esi+176]
; File C:\Program Files (x86)\Microsoft Visual Studio\2019\Community\VC\Tools\MSVC\14.29.30133\atlmfc\include\afxwin2.inl

; 25   : 	{ return this == NULL ? NULL : m_hWnd; }

  00027	85 c9		 test	 ecx, ecx
  00029	74 03		 je	 SHORT $LN12@PreTransla
$LN11@PreTransla:
  0002b	8b 49 20	 mov	 ecx, DWORD PTR [ecx+32]
$LN12@PreTransla:
; File D:\git\src\IBK\IBK_DRFN\ProjSrc\SrcChartEx\ChartAddIn\ChartDataListViewerAddIn\ChartDataListViewerAddIn\DlgDataSimulator.cpp

; 1137 : 		else if(pMsg->wParam == VK_RETURN && pMsg->hwnd == m_Grid.GetSafeHwnd())

  0002e	39 08		 cmp	 DWORD PTR [eax], ecx
  00030	75 35		 jne	 SHORT $LN7@PreTransla
; File C:\Program Files (x86)\Microsoft Visual Studio\2019\Community\VC\Tools\MSVC\14.29.30133\atlmfc\include\afxwin2.inl

; 32   : 	{ ASSERT(::IsWindow(m_hWnd)); return ::SendMessage(m_hWnd, message, wParam, lParam); }

  00032	ff 70 0c	 push	 DWORD PTR [eax+12]
  00035	6a 0d		 push	 13			; 0000000dH
  00037	68 00 01 00 00	 push	 256			; 00000100H
  0003c	ff b6 d0 00 00
	00		 push	 DWORD PTR [esi+208]
  00042	ff 15 00 00 00
	00		 call	 DWORD PTR __imp__SendMessageA@16
$LN15@PreTransla:
; File D:\git\src\IBK\IBK_DRFN\ProjSrc\SrcChartEx\ChartAddIn\ChartDataListViewerAddIn\ChartDataListViewerAddIn\DlgDataSimulator.cpp

; 1151 : }

  00048	b8 01 00 00 00	 mov	 eax, 1
  0004d	5e		 pop	 esi
  0004e	5d		 pop	 ebp
  0004f	c2 04 00	 ret	 4
$LN5@PreTransla:

; 1138 : 		{
; 1139 : 			m_Grid.SendMessage(pMsg->message, pMsg->wParam, pMsg->lParam);
; 1140 : 			return TRUE;
; 1141 : 		}
; 1142 : 	}
; 1143 : 	if(pMsg->message == WM_KEYUP)

  00052	81 fa 01 01 00
	00		 cmp	 edx, 257		; 00000101H
  00058	75 0d		 jne	 SHORT $LN7@PreTransla

; 1144 : 	{
; 1145 : 		if(pMsg->wParam == VK_RETURN)

  0005a	83 78 08 0d	 cmp	 DWORD PTR [eax+8], 13	; 0000000dH
  0005e	75 07		 jne	 SHORT $LN7@PreTransla

; 1146 : 		{
; 1147 : 			return FALSE;

  00060	33 c0		 xor	 eax, eax
  00062	5e		 pop	 esi

; 1151 : }

  00063	5d		 pop	 ebp
  00064	c2 04 00	 ret	 4
$LN7@PreTransla:

; 1148 : 		}
; 1149 : 	}
; 1150 : 	return CDialog::PreTranslateMessage(pMsg);

  00067	50		 push	 eax
  00068	8b ce		 mov	 ecx, esi
  0006a	e8 00 00 00 00	 call	 ?PreTranslateMessage@CDialog@@UAEHPAUtagMSG@@@Z ; CDialog::PreTranslateMessage
  0006f	5e		 pop	 esi

; 1151 : }

  00070	5d		 pop	 ebp
  00071	c2 04 00	 ret	 4
?PreTranslateMessage@CDlgDataSimulator@@UAEHPAUtagMSG@@@Z ENDP ; CDlgDataSimulator::PreTranslateMessage
_TEXT	ENDS
; Function compile flags: /Ogtp
; File D:\git\src\IBK\IBK_DRFN\ProjSrc\SrcChartEx\ChartAddIn\ChartDataListViewerAddIn\ChartDataListViewerAddIn\DlgDataSimulator.cpp
; File C:\Program Files (x86)\Microsoft Visual Studio\2019\Community\VC\Tools\MSVC\14.29.30133\atlmfc\include\afxtempl.h
; File D:\git\src\IBK\IBK_DRFN\ProjSrc\SrcChartEx\ChartAddIn\ChartDataListViewerAddIn\ChartDataListViewerAddIn\DlgDataSimulator.cpp
; File C:\Program Files (x86)\Microsoft Visual Studio\2019\Community\VC\Tools\MSVC\14.29.30133\atlmfc\include\afxtempl.h
; File D:\git\src\IBK\IBK_DRFN\ProjSrc\SrcChartEx\ChartAddIn\ChartDataListViewerAddIn\ChartDataListViewerAddIn\DlgDataSimulator.cpp
; File D:\git\src\IBK\IBK_DRFN\ProjSrc\SrcChartEx\ChartAddIn\ChartDataListViewerAddIn\ChartDataListViewerAddIn\ChartDataSimulatorAddInImp.h
; File D:\git\src\IBK\IBK_DRFN\ProjSrc\SrcChartEx\ChartAddIn\ChartDataListViewerAddIn\ChartDataListViewerAddIn\DlgDataSimulator.cpp
;	COMDAT ?MakeCopyChartData@CDlgDataSimulator@@QAEXXZ
_TEXT	SEGMENT
_pos$1$ = -28						; size = 4
tv229 = -24						; size = 4
_pRecordSet$1$ = -20					; size = 4
_pNewRecordSet$1$ = -16					; size = 4
__$EHRec$ = -12						; size = 12
?MakeCopyChartData@CDlgDataSimulator@@QAEXXZ PROC	; CDlgDataSimulator::MakeCopyChartData, COMDAT
; _this$ = ecx

; 143  : {

  00000	55		 push	 ebp
  00001	8b ec		 mov	 ebp, esp
  00003	6a ff		 push	 -1
  00005	68 00 00 00 00	 push	 __ehhandler$?MakeCopyChartData@CDlgDataSimulator@@QAEXXZ
  0000a	64 a1 00 00 00
	00		 mov	 eax, DWORD PTR fs:0
  00010	50		 push	 eax
  00011	83 ec 10	 sub	 esp, 16			; 00000010H
  00014	53		 push	 ebx
  00015	56		 push	 esi
  00016	57		 push	 edi
  00017	a1 00 00 00 00	 mov	 eax, DWORD PTR ___security_cookie
  0001c	33 c5		 xor	 eax, ebp
  0001e	50		 push	 eax
  0001f	8d 45 f4	 lea	 eax, DWORD PTR __$EHRec$[ebp]
  00022	64 a3 00 00 00
	00		 mov	 DWORD PTR fs:0, eax
  00028	8b c1		 mov	 eax, ecx

; 144  : 	if(!m_pChartDataGridManager) return;

  0002a	8b 88 38 05 00
	00		 mov	 ecx, DWORD PTR [eax+1336]
  00030	85 c9		 test	 ecx, ecx
  00032	0f 84 94 00 00
	00		 je	 $LN3@MakeCopyCh

; 145  : 	
; 146  : 	for( POSITION pos = m_pChartDataGridManager->m_ChartDataList.GetHeadPosition(); pos ; )

  00038	8b 49 30	 mov	 ecx, DWORD PTR [ecx+48]
  0003b	85 c9		 test	 ecx, ecx
  0003d	0f 84 89 00 00
	00		 je	 $LN3@MakeCopyCh
  00043	05 3c 05 00 00	 add	 eax, 1340		; 0000053cH
  00048	89 45 e8	 mov	 DWORD PTR tv229[ebp], eax
  0004b	0f 1f 44 00 00	 npad	 5
$LL2@MakeCopyCh:

; 147  : 	{
; 148  : 		CChartRecordSet * pRecordSet	= m_pChartDataGridManager->m_ChartDataList.GetNext(pos);

  00050	8b 59 08	 mov	 ebx, DWORD PTR [ecx+8]
; File C:\Program Files (x86)\Microsoft Visual Studio\2019\Community\VC\Tools\MSVC\14.29.30133\atlmfc\include\afxtempl.h

; 813  : 		rPosition = (POSITION) pNode->pNext;

  00053	8b 09		 mov	 ecx, DWORD PTR [ecx]
; File D:\git\src\IBK\IBK_DRFN\ProjSrc\SrcChartEx\ChartAddIn\ChartDataListViewerAddIn\ChartDataListViewerAddIn\DlgDataSimulator.cpp

; 149  : 		CChartRecordSet * pNewRecordSet = new CChartRecordSet;

  00055	6a 18		 push	 24			; 00000018H
; File C:\Program Files (x86)\Microsoft Visual Studio\2019\Community\VC\Tools\MSVC\14.29.30133\atlmfc\include\afxtempl.h

; 813  : 		rPosition = (POSITION) pNode->pNext;

  00057	89 4d e4	 mov	 DWORD PTR _pos$1$[ebp], ecx
; File D:\git\src\IBK\IBK_DRFN\ProjSrc\SrcChartEx\ChartAddIn\ChartDataListViewerAddIn\ChartDataListViewerAddIn\DlgDataSimulator.cpp

; 149  : 		CChartRecordSet * pNewRecordSet = new CChartRecordSet;

  0005a	e8 00 00 00 00	 call	 ??2@YAPAXI@Z		; operator new
  0005f	8b f8		 mov	 edi, eax
  00061	89 45 f0	 mov	 DWORD PTR _pNewRecordSet$1$[ebp], eax
  00064	83 c4 04	 add	 esp, 4
  00067	85 ff		 test	 edi, edi
  00069	74 26		 je	 SHORT $LN7@MakeCopyCh
  0006b	ff 35 00 00 00
	00		 push	 DWORD PTR __imp_??1?$CStringT@DV?$StrTraitMFC_DLL@DV?$ChTraitsCRT@D@ATL@@@@@ATL@@QAE@XZ
  00071	c7 45 fc 00 00
	00 00		 mov	 DWORD PTR __$EHRec$[ebp+8], 0
  00078	ff 35 00 00 00
	00		 push	 DWORD PTR __imp_??0?$CStringT@DV?$StrTraitMFC_DLL@DV?$ChTraitsCRT@D@ATL@@@@@ATL@@QAE@XZ
  0007e	6a 06		 push	 6
  00080	6a 04		 push	 4
  00082	57		 push	 edi
  00083	e8 00 00 00 00	 call	 ??_L@YGXPAXIIP6EX0@Z1@Z
  00088	c7 45 fc ff ff
	ff ff		 mov	 DWORD PTR __$EHRec$[ebp+8], -1
  0008f	eb 05		 jmp	 SHORT $LN8@MakeCopyCh
$LN7@MakeCopyCh:
  00091	33 ff		 xor	 edi, edi
  00093	89 7d f0	 mov	 DWORD PTR _pNewRecordSet$1$[ebp], edi
$LN8@MakeCopyCh:
; File D:\git\src\IBK\IBK_DRFN\ProjSrc\SrcChartEx\ChartAddIn\ChartDataListViewerAddIn\ChartDataListViewerAddIn\ChartDataSimulatorAddInImp.h

; 43   : 		for(int i = 0 ; i < COL_SIZE ; i++)

  00096	2b df		 sub	 ebx, edi
  00098	8b f7		 mov	 esi, edi
  0009a	89 5d ec	 mov	 DWORD PTR _pRecordSet$1$[ebp], ebx
  0009d	bb 06 00 00 00	 mov	 ebx, 6
  000a2	8b 7d ec	 mov	 edi, DWORD PTR _pRecordSet$1$[ebp]
$LL17@MakeCopyCh:

; 44   : 			m_Data[i] = Record.m_Data[i];

  000a5	8d 04 37	 lea	 eax, DWORD PTR [edi+esi]
  000a8	8b ce		 mov	 ecx, esi
  000aa	50		 push	 eax
  000ab	ff 15 00 00 00
	00		 call	 DWORD PTR __imp_??4?$CStringT@DV?$StrTraitMFC_DLL@DV?$ChTraitsCRT@D@ATL@@@@@ATL@@QAEAAV01@ABV01@@Z
  000b1	83 c6 04	 add	 esi, 4
  000b4	83 eb 01	 sub	 ebx, 1
  000b7	75 ec		 jne	 SHORT $LL17@MakeCopyCh
; File D:\git\src\IBK\IBK_DRFN\ProjSrc\SrcChartEx\ChartAddIn\ChartDataListViewerAddIn\ChartDataListViewerAddIn\DlgDataSimulator.cpp

; 151  : 		m_CopyChartDataList.AddTail(pNewRecordSet);

  000b9	8b 7d f0	 mov	 edi, DWORD PTR _pNewRecordSet$1$[ebp]
  000bc	8b 4d e8	 mov	 ecx, DWORD PTR tv229[ebp]
  000bf	57		 push	 edi
  000c0	e8 00 00 00 00	 call	 ?AddTail@?$CList@PAVCChartRecordSet@@PAV1@@@QAEPAU__POSITION@@PAVCChartRecordSet@@@Z ; CList<CChartRecordSet *,CChartRecordSet *>::AddTail
  000c5	8b 4d e4	 mov	 ecx, DWORD PTR _pos$1$[ebp]
  000c8	85 c9		 test	 ecx, ecx
  000ca	75 84		 jne	 SHORT $LL2@MakeCopyCh
$LN3@MakeCopyCh:

; 152  : 	}	
; 153  : }

  000cc	8b 4d f4	 mov	 ecx, DWORD PTR __$EHRec$[ebp]
  000cf	64 89 0d 00 00
	00 00		 mov	 DWORD PTR fs:0, ecx
  000d6	59		 pop	 ecx
  000d7	5f		 pop	 edi
  000d8	5e		 pop	 esi
  000d9	5b		 pop	 ebx
  000da	8b e5		 mov	 esp, ebp
  000dc	5d		 pop	 ebp
  000dd	c3		 ret	 0
  000de	cc		 int	 3
  000df	cc		 int	 3
  000e0	cc		 int	 3
  000e1	cc		 int	 3
  000e2	cc		 int	 3
_TEXT	ENDS
;	COMDAT text$x
text$x	SEGMENT
__ehhandler$?MakeCopyChartData@CDlgDataSimulator@@QAEXXZ:
  00000	90		 npad	 1
  00001	90		 npad	 1
  00002	8b 54 24 08	 mov	 edx, DWORD PTR [esp+8]
  00006	8d 42 0c	 lea	 eax, DWORD PTR [edx+12]
  00009	8b 4a e0	 mov	 ecx, DWORD PTR [edx-32]
  0000c	33 c8		 xor	 ecx, eax
  0000e	e8 00 00 00 00	 call	 @__security_check_cookie@4
  00013	b8 00 00 00 00	 mov	 eax, OFFSET __ehfuncinfo$?MakeCopyChartData@CDlgDataSimulator@@QAEXXZ
  00018	e9 00 00 00 00	 jmp	 ___CxxFrameHandler3
text$x	ENDS
?MakeCopyChartData@CDlgDataSimulator@@QAEXXZ ENDP	; CDlgDataSimulator::MakeCopyChartData
; Function compile flags: /Ogtp
; File D:\git\src\IBK\IBK_DRFN\ProjSrc\SrcChartEx\ChartAddIn\ChartDataListViewerAddIn\ChartDataListViewerAddIn\DlgDataSimulator.cpp
; File C:\Program Files (x86)\Microsoft Visual Studio\2019\Community\VC\Tools\MSVC\14.29.30133\atlmfc\include\afxtempl.h
; File D:\git\src\IBK\IBK_DRFN\ProjSrc\SrcChartEx\ChartAddIn\ChartDataListViewerAddIn\ChartDataListViewerAddIn\DlgDataSimulator.cpp
; File C:\Program Files (x86)\Microsoft Visual Studio\2019\Community\VC\Tools\MSVC\14.29.30133\atlmfc\include\afxtempl.h
; File D:\git\src\IBK\IBK_DRFN\ProjSrc\SrcChartEx\ChartAddIn\ChartDataListViewerAddIn\ChartDataListViewerAddIn\DlgDataSimulator.cpp
; File C:\Program Files (x86)\Microsoft Visual Studio\2019\Community\VC\Tools\MSVC\14.29.30133\atlmfc\include\afxtempl.h
; File D:\git\src\IBK\IBK_DRFN\ProjSrc\SrcChartEx\ChartAddIn\ChartDataListViewerAddIn\ChartDataListViewerAddIn\DlgDataSimulator.cpp
; File C:\Program Files (x86)\Microsoft Visual Studio\2019\Community\VC\Tools\MSVC\14.29.30133\atlmfc\include\afxtempl.h
; File D:\git\src\IBK\IBK_DRFN\ProjSrc\SrcChartEx\ChartAddIn\ChartDataListViewerAddIn\ChartDataListViewerAddIn\DlgDataSimulator.cpp
; File C:\Program Files (x86)\Microsoft Visual Studio\2019\Community\VC\Tools\MSVC\14.29.30133\atlmfc\include\afxtempl.h
; File D:\git\src\IBK\IBK_DRFN\ProjSrc\SrcChartEx\ChartAddIn\ChartDataListViewerAddIn\ChartDataListViewerAddIn\DlgDataSimulator.cpp
; File D:\git\src\IBK\IBK_DRFN\ProjSrc\SrcChartEx\ChartAddIn\ChartDataListViewerAddIn\ChartDataListViewerAddIn\ChartDataSimulatorAddInImp.h
; File D:\git\src\IBK\IBK_DRFN\ProjSrc\SrcChartEx\ChartAddIn\ChartDataListViewerAddIn\ChartDataListViewerAddIn\DlgDataSimulator.cpp
; File C:\Program Files (x86)\Microsoft Visual Studio\2019\Community\VC\Tools\MSVC\14.29.30133\atlmfc\include\afxtempl.h
; File D:\git\src\IBK\IBK_DRFN\ProjSrc\SrcChartEx\ChartAddIn\ChartDataListViewerAddIn\ChartDataListViewerAddIn\DlgDataSimulator.cpp
;	COMDAT ?InitChartData@CDlgDataSimulator@@QAEXXZ
_TEXT	SEGMENT
_pos$1$ = -28						; size = 4
_this$1$ = -24						; size = 4
_pRecordSet$1$ = -20					; size = 4
_pNewRecordSet$1$ = -16					; size = 4
__$EHRec$ = -12						; size = 12
?InitChartData@CDlgDataSimulator@@QAEXXZ PROC		; CDlgDataSimulator::InitChartData, COMDAT
; _this$ = ecx

; 156  : {

  00000	55		 push	 ebp
  00001	8b ec		 mov	 ebp, esp
  00003	6a ff		 push	 -1
  00005	68 00 00 00 00	 push	 __ehhandler$?InitChartData@CDlgDataSimulator@@QAEXXZ
  0000a	64 a1 00 00 00
	00		 mov	 eax, DWORD PTR fs:0
  00010	50		 push	 eax
  00011	83 ec 10	 sub	 esp, 16			; 00000010H
  00014	53		 push	 ebx
  00015	56		 push	 esi
  00016	57		 push	 edi
  00017	a1 00 00 00 00	 mov	 eax, DWORD PTR ___security_cookie
  0001c	33 c5		 xor	 eax, ebp
  0001e	50		 push	 eax
  0001f	8d 45 f4	 lea	 eax, DWORD PTR __$EHRec$[ebp]
  00022	64 a3 00 00 00
	00		 mov	 DWORD PTR fs:0, eax
  00028	8b d9		 mov	 ebx, ecx
  0002a	89 5d e8	 mov	 DWORD PTR _this$1$[ebp], ebx
; File C:\Program Files (x86)\Microsoft Visual Studio\2019\Community\VC\Tools\MSVC\14.29.30133\atlmfc\include\afxtempl.h

; 786  : 	{ return m_nCount == 0; }

  0002d	8b b3 38 05 00
	00		 mov	 esi, DWORD PTR [ebx+1336]
  00033	83 7e 38 00	 cmp	 DWORD PTR [esi+56], 0
; File D:\git\src\IBK\IBK_DRFN\ProjSrc\SrcChartEx\ChartAddIn\ChartDataListViewerAddIn\ChartDataListViewerAddIn\DlgDataSimulator.cpp

; 157  : 	while(!m_pChartDataGridManager->m_ChartDataList.IsEmpty()) delete m_pChartDataGridManager->m_ChartDataList.RemoveHead();

  00037	0f 84 a0 00 00
	00		 je	 $LN3@InitChartD
  0003d	0f 1f 00	 npad	 3
$LL2@InitChartD:
; File C:\Program Files (x86)\Microsoft Visual Studio\2019\Community\VC\Tools\MSVC\14.29.30133\atlmfc\include\afxtempl.h

; 1009 : 	ENSURE(m_pNodeHead != NULL);  // don't call on empty list !!!

  00040	8b 4e 30	 mov	 ecx, DWORD PTR [esi+48]
  00043	85 c9		 test	 ecx, ecx
  00045	0f 84 40 01 00
	00		 je	 $LN51@InitChartD

; 1010 : 	ASSERT(AfxIsValidAddress(m_pNodeHead, sizeof(CNode)));
; 1011 : 
; 1012 : 	CNode* pOldNode = m_pNodeHead;
; 1013 : 	TYPE returnValue = pOldNode->data;
; 1014 : 
; 1015 : 	m_pNodeHead = pOldNode->pNext;

  0004b	8b 01		 mov	 eax, DWORD PTR [ecx]
  0004d	8b 79 08	 mov	 edi, DWORD PTR [ecx+8]
  00050	89 46 30	 mov	 DWORD PTR [esi+48], eax

; 1016 : 	if (m_pNodeHead != NULL)

  00053	85 c0		 test	 eax, eax
  00055	74 09		 je	 SHORT $LN19@InitChartD

; 1017 : 		m_pNodeHead->pPrev = NULL;

  00057	c7 40 04 00 00
	00 00		 mov	 DWORD PTR [eax+4], 0
  0005e	eb 07		 jmp	 SHORT $LN20@InitChartD
$LN19@InitChartD:

; 1018 : 	else
; 1019 : 		m_pNodeTail = NULL;

  00060	c7 46 34 00 00
	00 00		 mov	 DWORD PTR [esi+52], 0
$LN20@InitChartD:

; 938  : 	pNode->pNext = m_pNodeFree;

  00067	8b 46 3c	 mov	 eax, DWORD PTR [esi+60]
  0006a	89 01		 mov	 DWORD PTR [ecx], eax

; 939  : 	m_pNodeFree = pNode;
; 940  : 	m_nCount--;

  0006c	83 46 38 ff	 add	 DWORD PTR [esi+56], -1
  00070	89 4e 3c	 mov	 DWORD PTR [esi+60], ecx

; 941  : 	ASSERT(m_nCount >= 0);  // make sure we don't underflow
; 942  : 
; 943  : 	// if no more elements, cleanup completely
; 944  : 	if (m_nCount == 0)

  00073	75 2b		 jne	 SHORT $LN23@InitChartD

; 872  : 	m_pBlocks->FreeDataChain();

  00075	8b 4e 40	 mov	 ecx, DWORD PTR [esi+64]
  00078	c7 46 38 00 00
	00 00		 mov	 DWORD PTR [esi+56], 0
  0007f	c7 46 3c 00 00
	00 00		 mov	 DWORD PTR [esi+60], 0
  00086	c7 46 34 00 00
	00 00		 mov	 DWORD PTR [esi+52], 0
  0008d	c7 46 30 00 00
	00 00		 mov	 DWORD PTR [esi+48], 0
  00094	e8 00 00 00 00	 call	 ?FreeDataChain@CPlex@@QAEXXZ ; CPlex::FreeDataChain

; 873  : 	m_pBlocks = NULL;

  00099	c7 46 40 00 00
	00 00		 mov	 DWORD PTR [esi+64], 0
$LN23@InitChartD:
; File D:\git\src\IBK\IBK_DRFN\ProjSrc\SrcChartEx\ChartAddIn\ChartDataListViewerAddIn\ChartDataListViewerAddIn\DlgDataSimulator.cpp

; 157  : 	while(!m_pChartDataGridManager->m_ChartDataList.IsEmpty()) delete m_pChartDataGridManager->m_ChartDataList.RemoveHead();

  000a0	85 ff		 test	 edi, edi
  000a2	74 29		 je	 SHORT $LN32@InitChartD
  000a4	ff 35 00 00 00
	00		 push	 DWORD PTR __imp_??1?$CStringT@DV?$StrTraitMFC_DLL@DV?$ChTraitsCRT@D@ATL@@@@@ATL@@QAE@XZ
  000aa	c7 45 fc 00 00
	00 00		 mov	 DWORD PTR __$EHRec$[ebp+8], 0
  000b1	6a 06		 push	 6
  000b3	6a 04		 push	 4
  000b5	57		 push	 edi
  000b6	e8 00 00 00 00	 call	 ??_M@YGXPAXIIP6EX0@Z@Z
  000bb	6a 18		 push	 24			; 00000018H
  000bd	57		 push	 edi
  000be	c7 45 fc ff ff
	ff ff		 mov	 DWORD PTR __$EHRec$[ebp+8], -1
  000c5	e8 00 00 00 00	 call	 ??3@YAXPAXI@Z		; operator delete
  000ca	83 c4 08	 add	 esp, 8
$LN32@InitChartD:
; File C:\Program Files (x86)\Microsoft Visual Studio\2019\Community\VC\Tools\MSVC\14.29.30133\atlmfc\include\afxtempl.h

; 786  : 	{ return m_nCount == 0; }

  000cd	8b b3 38 05 00
	00		 mov	 esi, DWORD PTR [ebx+1336]
  000d3	83 7e 38 00	 cmp	 DWORD PTR [esi+56], 0
; File D:\git\src\IBK\IBK_DRFN\ProjSrc\SrcChartEx\ChartAddIn\ChartDataListViewerAddIn\ChartDataListViewerAddIn\DlgDataSimulator.cpp

; 157  : 	while(!m_pChartDataGridManager->m_ChartDataList.IsEmpty()) delete m_pChartDataGridManager->m_ChartDataList.RemoveHead();

  000d7	0f 85 63 ff ff
	ff		 jne	 $LL2@InitChartD
$LN3@InitChartD:

; 158  : 
; 159  : 	for( POSITION pos = m_CopyChartDataList.GetHeadPosition(); pos; )

  000dd	8b 8b 40 05 00
	00		 mov	 ecx, DWORD PTR [ebx+1344]
  000e3	85 c9		 test	 ecx, ecx
  000e5	0f 84 8e 00 00
	00		 je	 $LN5@InitChartD
  000eb	0f 1f 44 00 00	 npad	 5
$LL4@InitChartD:

; 160  : 	{
; 161  : 		CChartRecordSet * pRecordSet	= m_CopyChartDataList.GetNext(pos);

  000f0	8b 79 08	 mov	 edi, DWORD PTR [ecx+8]
; File C:\Program Files (x86)\Microsoft Visual Studio\2019\Community\VC\Tools\MSVC\14.29.30133\atlmfc\include\afxtempl.h

; 813  : 		rPosition = (POSITION) pNode->pNext;

  000f3	8b 09		 mov	 ecx, DWORD PTR [ecx]
; File D:\git\src\IBK\IBK_DRFN\ProjSrc\SrcChartEx\ChartAddIn\ChartDataListViewerAddIn\ChartDataListViewerAddIn\DlgDataSimulator.cpp

; 162  : 		CChartRecordSet * pNewRecordSet = new CChartRecordSet;

  000f5	6a 18		 push	 24			; 00000018H
; File C:\Program Files (x86)\Microsoft Visual Studio\2019\Community\VC\Tools\MSVC\14.29.30133\atlmfc\include\afxtempl.h

; 813  : 		rPosition = (POSITION) pNode->pNext;

  000f7	89 4d e4	 mov	 DWORD PTR _pos$1$[ebp], ecx
; File D:\git\src\IBK\IBK_DRFN\ProjSrc\SrcChartEx\ChartAddIn\ChartDataListViewerAddIn\ChartDataListViewerAddIn\DlgDataSimulator.cpp

; 162  : 		CChartRecordSet * pNewRecordSet = new CChartRecordSet;

  000fa	e8 00 00 00 00	 call	 ??2@YAPAXI@Z		; operator new
  000ff	8b d8		 mov	 ebx, eax
  00101	89 45 f0	 mov	 DWORD PTR _pNewRecordSet$1$[ebp], eax
  00104	83 c4 04	 add	 esp, 4
  00107	85 db		 test	 ebx, ebx
  00109	74 26		 je	 SHORT $LN10@InitChartD
  0010b	ff 35 00 00 00
	00		 push	 DWORD PTR __imp_??1?$CStringT@DV?$StrTraitMFC_DLL@DV?$ChTraitsCRT@D@ATL@@@@@ATL@@QAE@XZ
  00111	c7 45 fc 01 00
	00 00		 mov	 DWORD PTR __$EHRec$[ebp+8], 1
  00118	ff 35 00 00 00
	00		 push	 DWORD PTR __imp_??0?$CStringT@DV?$StrTraitMFC_DLL@DV?$ChTraitsCRT@D@ATL@@@@@ATL@@QAE@XZ
  0011e	6a 06		 push	 6
  00120	6a 04		 push	 4
  00122	53		 push	 ebx
  00123	e8 00 00 00 00	 call	 ??_L@YGXPAXIIP6EX0@Z1@Z
  00128	c7 45 fc ff ff
	ff ff		 mov	 DWORD PTR __$EHRec$[ebp+8], -1
  0012f	eb 05		 jmp	 SHORT $LN11@InitChartD
$LN10@InitChartD:
  00131	33 db		 xor	 ebx, ebx
  00133	89 5d f0	 mov	 DWORD PTR _pNewRecordSet$1$[ebp], ebx
$LN11@InitChartD:
; File D:\git\src\IBK\IBK_DRFN\ProjSrc\SrcChartEx\ChartAddIn\ChartDataListViewerAddIn\ChartDataListViewerAddIn\ChartDataSimulatorAddInImp.h

; 43   : 		for(int i = 0 ; i < COL_SIZE ; i++)

  00136	2b fb		 sub	 edi, ebx
  00138	8b f3		 mov	 esi, ebx
  0013a	89 7d ec	 mov	 DWORD PTR _pRecordSet$1$[ebp], edi
  0013d	bf 06 00 00 00	 mov	 edi, 6
  00142	8b 5d ec	 mov	 ebx, DWORD PTR _pRecordSet$1$[ebp]
$LL45@InitChartD:

; 44   : 			m_Data[i] = Record.m_Data[i];

  00145	8d 04 33	 lea	 eax, DWORD PTR [ebx+esi]
  00148	8b ce		 mov	 ecx, esi
  0014a	50		 push	 eax
  0014b	ff 15 00 00 00
	00		 call	 DWORD PTR __imp_??4?$CStringT@DV?$StrTraitMFC_DLL@DV?$ChTraitsCRT@D@ATL@@@@@ATL@@QAEAAV01@ABV01@@Z
  00151	83 c6 04	 add	 esi, 4
  00154	83 ef 01	 sub	 edi, 1
  00157	75 ec		 jne	 SHORT $LL45@InitChartD
; File D:\git\src\IBK\IBK_DRFN\ProjSrc\SrcChartEx\ChartAddIn\ChartDataListViewerAddIn\ChartDataListViewerAddIn\DlgDataSimulator.cpp

; 164  : 		m_pChartDataGridManager->m_ChartDataList.AddTail(pNewRecordSet);

  00159	8b 45 e8	 mov	 eax, DWORD PTR _this$1$[ebp]
  0015c	8b 5d f0	 mov	 ebx, DWORD PTR _pNewRecordSet$1$[ebp]
  0015f	53		 push	 ebx
  00160	8b 88 38 05 00
	00		 mov	 ecx, DWORD PTR [eax+1336]
  00166	83 c1 2c	 add	 ecx, 44			; 0000002cH
  00169	e8 00 00 00 00	 call	 ?AddTail@?$CList@PAVCChartRecordSet@@PAV1@@@QAEPAU__POSITION@@PAVCChartRecordSet@@@Z ; CList<CChartRecordSet *,CChartRecordSet *>::AddTail
  0016e	8b 4d e4	 mov	 ecx, DWORD PTR _pos$1$[ebp]
  00171	85 c9		 test	 ecx, ecx
  00173	0f 85 77 ff ff
	ff		 jne	 $LL4@InitChartD
$LN5@InitChartD:

; 166  : }

  00179	8b 4d f4	 mov	 ecx, DWORD PTR __$EHRec$[ebp]
  0017c	64 89 0d 00 00
	00 00		 mov	 DWORD PTR fs:0, ecx
  00183	59		 pop	 ecx
  00184	5f		 pop	 edi
  00185	5e		 pop	 esi
  00186	5b		 pop	 ebx
  00187	8b e5		 mov	 esp, ebp
  00189	5d		 pop	 ebp
  0018a	c3		 ret	 0
$LN51@InitChartD:
; File C:\Program Files (x86)\Microsoft Visual Studio\2019\Community\VC\Tools\MSVC\14.29.30133\atlmfc\include\afxtempl.h

; 1009 : 	ENSURE(m_pNodeHead != NULL);  // don't call on empty list !!!

  0018b	e8 00 00 00 00	 call	 ?AfxThrowInvalidArgException@@YGXXZ ; AfxThrowInvalidArgException
$LN65@InitChartD:
  00190	cc		 int	 3
  00191	cc		 int	 3
  00192	cc		 int	 3
  00193	cc		 int	 3
  00194	cc		 int	 3
  00195	cc		 int	 3
_TEXT	ENDS
;	COMDAT text$x
text$x	SEGMENT
__ehhandler$?InitChartData@CDlgDataSimulator@@QAEXXZ:
  00000	90		 npad	 1
  00001	90		 npad	 1
  00002	8b 54 24 08	 mov	 edx, DWORD PTR [esp+8]
  00006	8d 42 0c	 lea	 eax, DWORD PTR [edx+12]
  00009	8b 4a e0	 mov	 ecx, DWORD PTR [edx-32]
  0000c	33 c8		 xor	 ecx, eax
  0000e	e8 00 00 00 00	 call	 @__security_check_cookie@4
  00013	b8 00 00 00 00	 mov	 eax, OFFSET __ehfuncinfo$?InitChartData@CDlgDataSimulator@@QAEXXZ
  00018	e9 00 00 00 00	 jmp	 ___CxxFrameHandler3
text$x	ENDS
?InitChartData@CDlgDataSimulator@@QAEXXZ ENDP		; CDlgDataSimulator::InitChartData
; Function compile flags: /Ogtp
; File D:\git\src\IBK\IBK_DRFN\ProjSrc\SrcChartEx\ChartAddIn\ChartDataListViewerAddIn\ChartDataListViewerAddIn\DlgDataSimulator.cpp
; File C:\Program Files (x86)\Microsoft Visual Studio\2019\Community\VC\Tools\MSVC\14.29.30133\atlmfc\include\cstringt.h
; File D:\git\src\IBK\IBK_DRFN\ProjSrc\SrcChartEx\ChartAddIn\ChartDataListViewerAddIn\ChartDataListViewerAddIn\DlgDataSimulator.cpp
; File C:\Program Files (x86)\Microsoft Visual Studio\2019\Community\VC\Tools\MSVC\14.29.30133\atlmfc\include\cstringt.h
; File C:\Program Files (x86)\Microsoft Visual Studio\2019\Community\VC\Tools\MSVC\14.29.30133\atlmfc\include\atlsimpstr.h
; File C:\Program Files (x86)\Microsoft Visual Studio\2019\Community\VC\Tools\MSVC\14.29.30133\atlmfc\include\cstringt.h
; File D:\git\src\IBK\IBK_DRFN\ProjSrc\SrcChartEx\ChartAddIn\ChartDataListViewerAddIn\ChartDataListViewerAddIn\DlgDataSimulator.cpp
; File C:\Program Files (x86)\Microsoft Visual Studio\2019\Community\VC\Tools\MSVC\14.29.30133\atlmfc\include\cstringt.h
; File C:\Program Files (x86)\Microsoft Visual Studio\2019\Community\VC\Tools\MSVC\14.29.30133\atlmfc\include\atlsimpstr.h
; File C:\Program Files (x86)\Microsoft Visual Studio\2019\Community\VC\Tools\MSVC\14.29.30133\atlmfc\include\cstringt.h
; File D:\git\src\IBK\IBK_DRFN\ProjSrc\SrcChartEx\ChartAddIn\ChartDataListViewerAddIn\ChartDataListViewerAddIn\DlgDataSimulator.cpp
; File C:\Program Files (x86)\Microsoft Visual Studio\2019\Community\VC\Tools\MSVC\14.29.30133\atlmfc\include\cstringt.h
; File D:\git\src\IBK\IBK_DRFN\ProjSrc\SrcChartEx\ChartAddIn\ChartDataListViewerAddIn\ChartDataListViewerAddIn\DlgDataSimulator.cpp
; File C:\Program Files (x86)\Microsoft Visual Studio\2019\Community\VC\Tools\MSVC\14.29.30133\atlmfc\include\cstringt.h
; File C:\Program Files (x86)\Microsoft Visual Studio\2019\Community\VC\Tools\MSVC\14.29.30133\atlmfc\include\atlsimpstr.h
; File C:\Program Files (x86)\Microsoft Visual Studio\2019\Community\VC\Tools\MSVC\14.29.30133\atlmfc\include\cstringt.h
; File D:\git\src\IBK\IBK_DRFN\ProjSrc\SrcChartEx\ChartAddIn\ChartDataListViewerAddIn\ChartDataListViewerAddIn\DlgDataSimulator.cpp
; File C:\Program Files (x86)\Microsoft Visual Studio\2019\Community\VC\Tools\MSVC\14.29.30133\atlmfc\include\cstringt.h
; File C:\Program Files (x86)\Microsoft Visual Studio\2019\Community\VC\Tools\MSVC\14.29.30133\atlmfc\include\atlsimpstr.h
; File C:\Program Files (x86)\Microsoft Visual Studio\2019\Community\VC\Tools\MSVC\14.29.30133\atlmfc\include\cstringt.h
; File D:\git\src\IBK\IBK_DRFN\ProjSrc\SrcChartEx\ChartAddIn\ChartDataListViewerAddIn\ChartDataListViewerAddIn\DlgDataSimulator.cpp
; File C:\Program Files (x86)\Microsoft Visual Studio\2019\Community\VC\Tools\MSVC\14.29.30133\atlmfc\include\cstringt.h
; File C:\Program Files (x86)\Microsoft Visual Studio\2019\Community\VC\Tools\MSVC\14.29.30133\atlmfc\include\atlsimpstr.h
; File C:\Program Files (x86)\Microsoft Visual Studio\2019\Community\VC\Tools\MSVC\14.29.30133\atlmfc\include\cstringt.h
; File D:\git\src\IBK\IBK_DRFN\ProjSrc\SrcChartEx\ChartAddIn\ChartDataListViewerAddIn\ChartDataListViewerAddIn\DlgDataSimulator.cpp
; File C:\Program Files (x86)\Microsoft Visual Studio\2019\Community\VC\Tools\MSVC\14.29.30133\atlmfc\include\afxcoll.inl
; File D:\git\src\IBK\IBK_DRFN\ProjSrc\SrcChartEx\ChartAddIn\ChartDataListViewerAddIn\ChartDataListViewerAddIn\DlgDataSimulator.cpp
; File C:\Program Files (x86)\Microsoft Visual Studio\2019\Community\VC\Tools\MSVC\14.29.30133\atlmfc\include\afxcoll.inl
; File D:\git\src\IBK\IBK_DRFN\ProjSrc\SrcChartEx\ChartAddIn\ChartDataListViewerAddIn\ChartDataListViewerAddIn\DlgDataSimulator.cpp
; File C:\Program Files (x86)\Microsoft Visual Studio\2019\Community\VC\Tools\MSVC\14.29.30133\atlmfc\include\cstringt.h
; File D:\git\src\IBK\IBK_DRFN\ProjSrc\SrcChartEx\ChartAddIn\ChartDataListViewerAddIn\ChartDataListViewerAddIn\DlgDataSimulator.cpp
; File C:\Program Files (x86)\Microsoft Visual Studio\2019\Community\VC\Tools\MSVC\14.29.30133\atlmfc\include\afxcoll.inl
; File D:\git\src\IBK\IBK_DRFN\ProjSrc\SrcChartEx\ChartAddIn\ChartDataListViewerAddIn\ChartDataListViewerAddIn\DlgDataSimulator.cpp
; File C:\Program Files (x86)\Microsoft Visual Studio\2019\Community\VC\Tools\MSVC\14.29.30133\atlmfc\include\afxcoll.inl
; File D:\git\src\IBK\IBK_DRFN\ProjSrc\SrcChartEx\ChartAddIn\ChartDataListViewerAddIn\ChartDataListViewerAddIn\DlgDataSimulator.cpp
; File C:\Program Files (x86)\Microsoft Visual Studio\2019\Community\VC\Tools\MSVC\14.29.30133\atlmfc\include\cstringt.h
; File D:\git\src\IBK\IBK_DRFN\ProjSrc\SrcChartEx\ChartAddIn\ChartDataListViewerAddIn\ChartDataListViewerAddIn\DlgDataSimulator.cpp
; File C:\Program Files (x86)\Microsoft Visual Studio\2019\Community\VC\Tools\MSVC\14.29.30133\atlmfc\include\cstringt.h
; File C:\Program Files (x86)\Microsoft Visual Studio\2019\Community\VC\Tools\MSVC\14.29.30133\atlmfc\include\atlsimpstr.h
; File C:\Program Files (x86)\Microsoft Visual Studio\2019\Community\VC\Tools\MSVC\14.29.30133\atlmfc\include\cstringt.h
; File D:\git\src\IBK\IBK_DRFN\ProjSrc\SrcChartEx\ChartAddIn\ChartDataListViewerAddIn\ChartDataListViewerAddIn\DlgDataSimulator.cpp
; File C:\Program Files (x86)\Microsoft Visual Studio\2019\Community\VC\Tools\MSVC\14.29.30133\atlmfc\include\afxtempl.h
; File D:\git\src\IBK\IBK_DRFN\ProjSrc\SrcChartEx\ChartAddIn\ChartDataListViewerAddIn\ChartDataListViewerAddIn\DlgDataSimulator.cpp
; File C:\Program Files (x86)\Microsoft Visual Studio\2019\Community\VC\Tools\MSVC\14.29.30133\atlmfc\include\afxtempl.h
; File D:\git\src\IBK\IBK_DRFN\ProjSrc\SrcChartEx\ChartAddIn\ChartDataListViewerAddIn\ChartDataListViewerAddIn\DlgDataSimulator.cpp
; File D:\git\src\IBK\IBK_DRFN\ProjSrc\SrcChartEx\ChartAddIn\ChartDataListViewerAddIn\Include_Chart\Conversion.h
; File D:\git\src\IBK\IBK_DRFN\ProjSrc\SrcChartEx\ChartAddIn\ChartDataListViewerAddIn\ChartDataListViewerAddIn\DlgDataSimulator.cpp
; File D:\git\src\IBK\IBK_DRFN\ProjSrc\SrcChartEx\ChartAddIn\ChartDataListViewerAddIn\Include_Chart\Conversion.h
; File D:\git\src\IBK\IBK_DRFN\ProjSrc\SrcChartEx\ChartAddIn\ChartDataListViewerAddIn\ChartDataListViewerAddIn\DlgDataSimulator.cpp
; File D:\git\src\IBK\IBK_DRFN\ProjSrc\SrcChartEx\ChartAddIn\ChartDataListViewerAddIn\Include_Chart\Conversion.h
; File D:\git\src\IBK\IBK_DRFN\ProjSrc\SrcChartEx\ChartAddIn\ChartDataListViewerAddIn\ChartDataListViewerAddIn\DlgDataSimulator.cpp
; File D:\git\src\IBK\IBK_DRFN\ProjSrc\SrcChartEx\ChartAddIn\ChartDataListViewerAddIn\Include_Chart\Conversion.h
; File D:\git\src\IBK\IBK_DRFN\ProjSrc\SrcChartEx\ChartAddIn\ChartDataListViewerAddIn\ChartDataListViewerAddIn\DlgDataSimulator.cpp
; File D:\git\src\IBK\IBK_DRFN\ProjSrc\SrcChartEx\ChartAddIn\ChartDataListViewerAddIn\Include_Chart\Conversion.h
; File D:\git\src\IBK\IBK_DRFN\ProjSrc\SrcChartEx\ChartAddIn\ChartDataListViewerAddIn\ChartDataListViewerAddIn\DlgDataSimulator.cpp
; File D:\git\src\IBK\IBK_DRFN\ProjSrc\SrcChartEx\ChartAddIn\ChartDataListViewerAddIn\Include_Chart\Conversion.h
; File D:\git\src\IBK\IBK_DRFN\ProjSrc\SrcChartEx\ChartAddIn\ChartDataListViewerAddIn\ChartDataListViewerAddIn\DlgDataSimulator.cpp
; File C:\Program Files (x86)\Microsoft Visual Studio\2019\Community\VC\Tools\MSVC\14.29.30133\atlmfc\include\cstringt.h
; File D:\git\src\IBK\IBK_DRFN\ProjSrc\SrcChartEx\ChartAddIn\ChartDataListViewerAddIn\ChartDataListViewerAddIn\DlgDataSimulator.cpp
; File C:\Program Files (x86)\Microsoft Visual Studio\2019\Community\VC\Tools\MSVC\14.29.30133\atlmfc\include\cstringt.h
; File C:\Program Files (x86)\Microsoft Visual Studio\2019\Community\VC\Tools\MSVC\14.29.30133\atlmfc\include\atlsimpstr.h
; File C:\Program Files (x86)\Microsoft Visual Studio\2019\Community\VC\Tools\MSVC\14.29.30133\atlmfc\include\cstringt.h
; File D:\git\src\IBK\IBK_DRFN\ProjSrc\SrcChartEx\ChartAddIn\ChartDataListViewerAddIn\ChartDataListViewerAddIn\DlgDataSimulator.cpp
; File C:\Program Files (x86)\Microsoft Visual Studio\2019\Community\VC\Tools\MSVC\14.29.30133\atlmfc\include\cstringt.h
; File D:\git\src\IBK\IBK_DRFN\ProjSrc\SrcChartEx\ChartAddIn\ChartDataListViewerAddIn\ChartDataListViewerAddIn\DlgDataSimulator.cpp
; File C:\Program Files (x86)\Microsoft Visual Studio\2019\Community\VC\Tools\MSVC\14.29.30133\atlmfc\include\cstringt.h
; File C:\Program Files (x86)\Microsoft Visual Studio\2019\Community\VC\Tools\MSVC\14.29.30133\atlmfc\include\atlsimpstr.h
; File C:\Program Files (x86)\Microsoft Visual Studio\2019\Community\VC\Tools\MSVC\14.29.30133\atlmfc\include\cstringt.h
; File D:\git\src\IBK\IBK_DRFN\ProjSrc\SrcChartEx\ChartAddIn\ChartDataListViewerAddIn\ChartDataListViewerAddIn\DlgDataSimulator.cpp
; File C:\Program Files (x86)\Microsoft Visual Studio\2019\Community\VC\Tools\MSVC\14.29.30133\atlmfc\include\cstringt.h
; File C:\Program Files (x86)\Microsoft Visual Studio\2019\Community\VC\Tools\MSVC\14.29.30133\atlmfc\include\atlsimpstr.h
; File C:\Program Files (x86)\Microsoft Visual Studio\2019\Community\VC\Tools\MSVC\14.29.30133\atlmfc\include\cstringt.h
; File D:\git\src\IBK\IBK_DRFN\ProjSrc\SrcChartEx\ChartAddIn\ChartDataListViewerAddIn\ChartDataListViewerAddIn\DlgDataSimulator.cpp
; File C:\Program Files (x86)\Microsoft Visual Studio\2019\Community\VC\Tools\MSVC\14.29.30133\atlmfc\include\cstringt.h
; File C:\Program Files (x86)\Microsoft Visual Studio\2019\Community\VC\Tools\MSVC\14.29.30133\atlmfc\include\atlsimpstr.h
; File C:\Program Files (x86)\Microsoft Visual Studio\2019\Community\VC\Tools\MSVC\14.29.30133\atlmfc\include\cstringt.h
; File D:\git\src\IBK\IBK_DRFN\ProjSrc\SrcChartEx\ChartAddIn\ChartDataListViewerAddIn\ChartDataListViewerAddIn\DlgDataSimulator.cpp
; File C:\Program Files (x86)\Microsoft Visual Studio\2019\Community\VC\Tools\MSVC\14.29.30133\atlmfc\include\afxtempl.h
; File D:\git\src\IBK\IBK_DRFN\ProjSrc\SrcChartEx\ChartAddIn\ChartDataListViewerAddIn\ChartDataListViewerAddIn\DlgDataSimulator.cpp
;	COMDAT ?MakeTitle@CDlgDataSimulator@@QAEXXZ
_TEXT	SEGMENT
_strDataTypeArray$ = -80				; size = 20
_strDataType$ = -60					; size = 4
$T2 = -56						; size = 8
$T3 = -52						; size = 4
$T4 = -52						; size = 4
$T5 = -52						; size = 4
$T6 = -52						; size = 4
$T7 = -52						; size = 4
$T8 = -48						; size = 8
$T9 = -44						; size = 4
_strDateTitle1$10 = -44					; size = 4
$T11 = -44						; size = 4
$T12 = -40						; size = 4
$T13 = -40						; size = 4
$T14 = -40						; size = 4
$T15 = -36						; size = 4
$T16 = -32						; size = 4
_strDataTypeTemp$ = -28					; size = 4
_strDateTitle$ = -24					; size = 4
_strTitle$ = -20					; size = 4
$T17 = -16						; size = 4
__$EHRec$ = -12						; size = 12
?MakeTitle@CDlgDataSimulator@@QAEXXZ PROC		; CDlgDataSimulator::MakeTitle, COMDAT
; _this$ = ecx

; 88   : {

  00000	55		 push	 ebp
  00001	8b ec		 mov	 ebp, esp
  00003	6a ff		 push	 -1
  00005	68 00 00 00 00	 push	 __ehhandler$?MakeTitle@CDlgDataSimulator@@QAEXXZ
  0000a	64 a1 00 00 00
	00		 mov	 eax, DWORD PTR fs:0
  00010	50		 push	 eax
  00011	83 ec 44	 sub	 esp, 68			; 00000044H
  00014	56		 push	 esi
  00015	57		 push	 edi
  00016	a1 00 00 00 00	 mov	 eax, DWORD PTR ___security_cookie
  0001b	33 c5		 xor	 eax, ebp
  0001d	50		 push	 eax
  0001e	8d 45 f4	 lea	 eax, DWORD PTR __$EHRec$[ebp]
  00021	64 a3 00 00 00
	00		 mov	 DWORD PTR fs:0, eax
  00027	8b f9		 mov	 edi, ecx

; 89   : 	CString strTitle;

  00029	8d 4d ec	 lea	 ecx, DWORD PTR _strTitle$[ebp]
  0002c	c7 45 f0 00 00
	00 00		 mov	 DWORD PTR $T17[ebp], 0
  00033	ff 15 00 00 00
	00		 call	 DWORD PTR __imp_??0?$CStringT@DV?$StrTraitMFC_DLL@DV?$ChTraitsCRT@D@ATL@@@@@ATL@@QAE@XZ

; 90   : 	CString strDataType;

  00039	8d 4d c4	 lea	 ecx, DWORD PTR _strDataType$[ebp]
  0003c	c7 45 fc 00 00
	00 00		 mov	 DWORD PTR __$EHRec$[ebp+8], 0
  00043	ff 15 00 00 00
	00		 call	 DWORD PTR __imp_??0?$CStringT@DV?$StrTraitMFC_DLL@DV?$ChTraitsCRT@D@ATL@@@@@ATL@@QAE@XZ

; 94   : 	strTitle = " " + m_pChartDataGridManager->m_strItemName + " ( " + m_pChartDataGridManager->m_strItemCode + " ) " + strTitle;

  00049	8b b7 38 05 00
	00		 mov	 esi, DWORD PTR [edi+1336]
; File C:\Program Files (x86)\Microsoft Visual Studio\2019\Community\VC\Tools\MSVC\14.29.30133\atlmfc\include\cstringt.h

; 2412 : 		CStringT strResult( str2.GetManager() );

  0004f	8d 4e 04	 lea	 ecx, DWORD PTR [esi+4]
; File D:\git\src\IBK\IBK_DRFN\ProjSrc\SrcChartEx\ChartAddIn\ChartDataListViewerAddIn\ChartDataListViewerAddIn\DlgDataSimulator.cpp

; 94   : 	strTitle = " " + m_pChartDataGridManager->m_strItemName + " ( " + m_pChartDataGridManager->m_strItemCode + " ) " + strTitle;

  00052	c6 45 fc 02	 mov	 BYTE PTR __$EHRec$[ebp+8], 2
; File C:\Program Files (x86)\Microsoft Visual Studio\2019\Community\VC\Tools\MSVC\14.29.30133\atlmfc\include\cstringt.h

; 2412 : 		CStringT strResult( str2.GetManager() );

  00056	ff 15 00 00 00
	00		 call	 DWORD PTR __imp_?GetManager@?$CStringT@DV?$StrTraitMFC_DLL@DV?$ChTraitsCRT@D@ATL@@@@@ATL@@QBEPAUIAtlStringMgr@2@XZ
  0005c	50		 push	 eax
  0005d	8d 4d d4	 lea	 ecx, DWORD PTR $T11[ebp]
  00060	ff 15 00 00 00
	00		 call	 DWORD PTR __imp_??0?$CStringT@DV?$StrTraitMFC_DLL@DV?$ChTraitsCRT@D@ATL@@@@@ATL@@QAE@PAUIAtlStringMgr@1@@Z
; File C:\Program Files (x86)\Microsoft Visual Studio\2019\Community\VC\Tools\MSVC\14.29.30133\atlmfc\include\atlsimpstr.h

; 519  : 		return( GetData()->nDataLength );

  00066	8b 46 04	 mov	 eax, DWORD PTR [esi+4]
; File C:\Program Files (x86)\Microsoft Visual Studio\2019\Community\VC\Tools\MSVC\14.29.30133\atlmfc\include\cstringt.h

; 2416 : 		return( strResult );

  00069	c7 45 f0 01 00
	00 00		 mov	 DWORD PTR $T17[ebp], 1
  00070	ff 70 f4	 push	 DWORD PTR [eax-12]
  00073	50		 push	 eax
  00074	6a 01		 push	 1
  00076	8d 45 d4	 lea	 eax, DWORD PTR $T11[ebp]
  00079	68 00 00 00 00	 push	 OFFSET ??_C@_01CLKCMJKC@?5@
  0007e	50		 push	 eax
  0007f	ff 15 00 00 00
	00		 call	 DWORD PTR __imp_?Concatenate@?$CSimpleStringT@D$00@ATL@@KAXAAV12@PBDH1H@Z
  00085	83 c4 14	 add	 esp, 20			; 00000014H

; 2401 : 		CStringT strResult( str1.GetManager() );

  00088	8d 4d d4	 lea	 ecx, DWORD PTR $T11[ebp]
; File D:\git\src\IBK\IBK_DRFN\ProjSrc\SrcChartEx\ChartAddIn\ChartDataListViewerAddIn\ChartDataListViewerAddIn\DlgDataSimulator.cpp

; 94   : 	strTitle = " " + m_pChartDataGridManager->m_strItemName + " ( " + m_pChartDataGridManager->m_strItemCode + " ) " + strTitle;

  0008b	c6 45 fc 03	 mov	 BYTE PTR __$EHRec$[ebp+8], 3
; File C:\Program Files (x86)\Microsoft Visual Studio\2019\Community\VC\Tools\MSVC\14.29.30133\atlmfc\include\cstringt.h

; 2401 : 		CStringT strResult( str1.GetManager() );

  0008f	ff 15 00 00 00
	00		 call	 DWORD PTR __imp_?GetManager@?$CStringT@DV?$StrTraitMFC_DLL@DV?$ChTraitsCRT@D@ATL@@@@@ATL@@QBEPAUIAtlStringMgr@2@XZ
  00095	50		 push	 eax
  00096	8d 4d d8	 lea	 ecx, DWORD PTR $T14[ebp]
  00099	ff 15 00 00 00
	00		 call	 DWORD PTR __imp_??0?$CStringT@DV?$StrTraitMFC_DLL@DV?$ChTraitsCRT@D@ATL@@@@@ATL@@QAE@PAUIAtlStringMgr@1@@Z
; File C:\Program Files (x86)\Microsoft Visual Studio\2019\Community\VC\Tools\MSVC\14.29.30133\atlmfc\include\atlsimpstr.h

; 519  : 		return( GetData()->nDataLength );

  0009f	8b 45 d4	 mov	 eax, DWORD PTR $T11[ebp]
; File C:\Program Files (x86)\Microsoft Visual Studio\2019\Community\VC\Tools\MSVC\14.29.30133\atlmfc\include\cstringt.h

; 2403 : 		CThisSimpleString::Concatenate( strResult, str1, str1.GetLength(), psz2, CThisSimpleString::StringLength( psz2 ) );

  000a2	6a 03		 push	 3
  000a4	68 00 00 00 00	 push	 OFFSET ??_C@_03NNFDLMCH@?5?$CI?5@

; 2404 : 
; 2405 : 		return( strResult );

  000a9	c7 45 f0 03 00
	00 00		 mov	 DWORD PTR $T17[ebp], 3
  000b0	ff 70 f4	 push	 DWORD PTR [eax-12]
  000b3	50		 push	 eax
  000b4	8d 45 d8	 lea	 eax, DWORD PTR $T14[ebp]
  000b7	50		 push	 eax
  000b8	ff 15 00 00 00
	00		 call	 DWORD PTR __imp_?Concatenate@?$CSimpleStringT@D$00@ATL@@KAXAAV12@PBDH1H@Z
; File D:\git\src\IBK\IBK_DRFN\ProjSrc\SrcChartEx\ChartAddIn\ChartDataListViewerAddIn\ChartDataListViewerAddIn\DlgDataSimulator.cpp

; 94   : 	strTitle = " " + m_pChartDataGridManager->m_strItemName + " ( " + m_pChartDataGridManager->m_strItemCode + " ) " + strTitle;

  000be	8b b7 38 05 00
	00		 mov	 esi, DWORD PTR [edi+1336]
; File C:\Program Files (x86)\Microsoft Visual Studio\2019\Community\VC\Tools\MSVC\14.29.30133\atlmfc\include\cstringt.h

; 2403 : 		CThisSimpleString::Concatenate( strResult, str1, str1.GetLength(), psz2, CThisSimpleString::StringLength( psz2 ) );

  000c4	83 c4 14	 add	 esp, 20			; 00000014H

; 2390 : 		CStringT strResult( str1.GetManager() );

  000c7	8d 4d d8	 lea	 ecx, DWORD PTR $T14[ebp]
; File D:\git\src\IBK\IBK_DRFN\ProjSrc\SrcChartEx\ChartAddIn\ChartDataListViewerAddIn\ChartDataListViewerAddIn\DlgDataSimulator.cpp

; 94   : 	strTitle = " " + m_pChartDataGridManager->m_strItemName + " ( " + m_pChartDataGridManager->m_strItemCode + " ) " + strTitle;

  000ca	c6 45 fc 04	 mov	 BYTE PTR __$EHRec$[ebp+8], 4
; File C:\Program Files (x86)\Microsoft Visual Studio\2019\Community\VC\Tools\MSVC\14.29.30133\atlmfc\include\cstringt.h

; 2390 : 		CStringT strResult( str1.GetManager() );

  000ce	ff 15 00 00 00
	00		 call	 DWORD PTR __imp_?GetManager@?$CStringT@DV?$StrTraitMFC_DLL@DV?$ChTraitsCRT@D@ATL@@@@@ATL@@QBEPAUIAtlStringMgr@2@XZ
  000d4	50		 push	 eax
  000d5	8d 4d dc	 lea	 ecx, DWORD PTR $T15[ebp]
  000d8	ff 15 00 00 00
	00		 call	 DWORD PTR __imp_??0?$CStringT@DV?$StrTraitMFC_DLL@DV?$ChTraitsCRT@D@ATL@@@@@ATL@@QAE@PAUIAtlStringMgr@1@@Z
; File C:\Program Files (x86)\Microsoft Visual Studio\2019\Community\VC\Tools\MSVC\14.29.30133\atlmfc\include\atlsimpstr.h

; 519  : 		return( GetData()->nDataLength );

  000de	8b 0e		 mov	 ecx, DWORD PTR [esi]
  000e0	8b 45 d8	 mov	 eax, DWORD PTR $T14[ebp]
; File C:\Program Files (x86)\Microsoft Visual Studio\2019\Community\VC\Tools\MSVC\14.29.30133\atlmfc\include\cstringt.h

; 2394 : 		return( strResult );

  000e3	c7 45 f0 07 00
	00 00		 mov	 DWORD PTR $T17[ebp], 7
  000ea	ff 71 f4	 push	 DWORD PTR [ecx-12]
  000ed	51		 push	 ecx
  000ee	ff 70 f4	 push	 DWORD PTR [eax-12]
  000f1	50		 push	 eax
  000f2	8d 45 dc	 lea	 eax, DWORD PTR $T15[ebp]
  000f5	50		 push	 eax
  000f6	ff 15 00 00 00
	00		 call	 DWORD PTR __imp_?Concatenate@?$CSimpleStringT@D$00@ATL@@KAXAAV12@PBDH1H@Z
  000fc	83 c4 14	 add	 esp, 20			; 00000014H

; 2401 : 		CStringT strResult( str1.GetManager() );

  000ff	8d 4d dc	 lea	 ecx, DWORD PTR $T15[ebp]
; File D:\git\src\IBK\IBK_DRFN\ProjSrc\SrcChartEx\ChartAddIn\ChartDataListViewerAddIn\ChartDataListViewerAddIn\DlgDataSimulator.cpp

; 94   : 	strTitle = " " + m_pChartDataGridManager->m_strItemName + " ( " + m_pChartDataGridManager->m_strItemCode + " ) " + strTitle;

  00102	c6 45 fc 05	 mov	 BYTE PTR __$EHRec$[ebp+8], 5
; File C:\Program Files (x86)\Microsoft Visual Studio\2019\Community\VC\Tools\MSVC\14.29.30133\atlmfc\include\cstringt.h

; 2401 : 		CStringT strResult( str1.GetManager() );

  00106	ff 15 00 00 00
	00		 call	 DWORD PTR __imp_?GetManager@?$CStringT@DV?$StrTraitMFC_DLL@DV?$ChTraitsCRT@D@ATL@@@@@ATL@@QBEPAUIAtlStringMgr@2@XZ
  0010c	50		 push	 eax
  0010d	8d 4d e0	 lea	 ecx, DWORD PTR $T16[ebp]
  00110	ff 15 00 00 00
	00		 call	 DWORD PTR __imp_??0?$CStringT@DV?$StrTraitMFC_DLL@DV?$ChTraitsCRT@D@ATL@@@@@ATL@@QAE@PAUIAtlStringMgr@1@@Z
; File C:\Program Files (x86)\Microsoft Visual Studio\2019\Community\VC\Tools\MSVC\14.29.30133\atlmfc\include\atlsimpstr.h

; 519  : 		return( GetData()->nDataLength );

  00116	8b 45 dc	 mov	 eax, DWORD PTR $T15[ebp]
; File C:\Program Files (x86)\Microsoft Visual Studio\2019\Community\VC\Tools\MSVC\14.29.30133\atlmfc\include\cstringt.h

; 2403 : 		CThisSimpleString::Concatenate( strResult, str1, str1.GetLength(), psz2, CThisSimpleString::StringLength( psz2 ) );

  00119	6a 03		 push	 3
  0011b	68 00 00 00 00	 push	 OFFSET ??_C@_03NMJBNGBA@?5?$CJ?5@

; 2404 : 
; 2405 : 		return( strResult );

  00120	c7 45 f0 0f 00
	00 00		 mov	 DWORD PTR $T17[ebp], 15	; 0000000fH
  00127	ff 70 f4	 push	 DWORD PTR [eax-12]
  0012a	50		 push	 eax
  0012b	8d 45 e0	 lea	 eax, DWORD PTR $T16[ebp]
  0012e	50		 push	 eax
  0012f	ff 15 00 00 00
	00		 call	 DWORD PTR __imp_?Concatenate@?$CSimpleStringT@D$00@ATL@@KAXAAV12@PBDH1H@Z
  00135	83 c4 14	 add	 esp, 20			; 00000014H
; File D:\git\src\IBK\IBK_DRFN\ProjSrc\SrcChartEx\ChartAddIn\ChartDataListViewerAddIn\ChartDataListViewerAddIn\DlgDataSimulator.cpp

; 94   : 	strTitle = " " + m_pChartDataGridManager->m_strItemName + " ( " + m_pChartDataGridManager->m_strItemCode + " ) " + strTitle;

  00138	c6 45 fc 06	 mov	 BYTE PTR __$EHRec$[ebp+8], 6
; File C:\Program Files (x86)\Microsoft Visual Studio\2019\Community\VC\Tools\MSVC\14.29.30133\atlmfc\include\cstringt.h

; 2390 : 		CStringT strResult( str1.GetManager() );

  0013c	8d 4d e0	 lea	 ecx, DWORD PTR $T16[ebp]
  0013f	ff 15 00 00 00
	00		 call	 DWORD PTR __imp_?GetManager@?$CStringT@DV?$StrTraitMFC_DLL@DV?$ChTraitsCRT@D@ATL@@@@@ATL@@QBEPAUIAtlStringMgr@2@XZ
  00145	50		 push	 eax
  00146	8d 4d cc	 lea	 ecx, DWORD PTR $T7[ebp]
  00149	ff 15 00 00 00
	00		 call	 DWORD PTR __imp_??0?$CStringT@DV?$StrTraitMFC_DLL@DV?$ChTraitsCRT@D@ATL@@@@@ATL@@QAE@PAUIAtlStringMgr@1@@Z
; File C:\Program Files (x86)\Microsoft Visual Studio\2019\Community\VC\Tools\MSVC\14.29.30133\atlmfc\include\atlsimpstr.h

; 519  : 		return( GetData()->nDataLength );

  0014f	8b 45 ec	 mov	 eax, DWORD PTR _strTitle$[ebp]
  00152	8b 4d e0	 mov	 ecx, DWORD PTR $T16[ebp]
; File C:\Program Files (x86)\Microsoft Visual Studio\2019\Community\VC\Tools\MSVC\14.29.30133\atlmfc\include\cstringt.h

; 2394 : 		return( strResult );

  00155	c7 45 f0 1f 00
	00 00		 mov	 DWORD PTR $T17[ebp], 31	; 0000001fH
  0015c	ff 70 f4	 push	 DWORD PTR [eax-12]
  0015f	50		 push	 eax
  00160	ff 71 f4	 push	 DWORD PTR [ecx-12]
  00163	8d 45 cc	 lea	 eax, DWORD PTR $T7[ebp]
  00166	51		 push	 ecx
  00167	50		 push	 eax
  00168	ff 15 00 00 00
	00		 call	 DWORD PTR __imp_?Concatenate@?$CSimpleStringT@D$00@ATL@@KAXAAV12@PBDH1H@Z
  0016e	83 c4 14	 add	 esp, 20			; 00000014H
; File D:\git\src\IBK\IBK_DRFN\ProjSrc\SrcChartEx\ChartAddIn\ChartDataListViewerAddIn\ChartDataListViewerAddIn\DlgDataSimulator.cpp

; 94   : 	strTitle = " " + m_pChartDataGridManager->m_strItemName + " ( " + m_pChartDataGridManager->m_strItemCode + " ) " + strTitle;

  00171	8d 45 cc	 lea	 eax, DWORD PTR $T7[ebp]
  00174	8d 4d ec	 lea	 ecx, DWORD PTR _strTitle$[ebp]
  00177	50		 push	 eax
  00178	ff 15 00 00 00
	00		 call	 DWORD PTR __imp_??4?$CStringT@DV?$StrTraitMFC_DLL@DV?$ChTraitsCRT@D@ATL@@@@@ATL@@QAEAAV01@ABV01@@Z
  0017e	8d 4d cc	 lea	 ecx, DWORD PTR $T7[ebp]
  00181	ff 15 00 00 00
	00		 call	 DWORD PTR __imp_??1?$CStringT@DV?$StrTraitMFC_DLL@DV?$ChTraitsCRT@D@ATL@@@@@ATL@@QAE@XZ
  00187	8d 4d e0	 lea	 ecx, DWORD PTR $T16[ebp]
  0018a	ff 15 00 00 00
	00		 call	 DWORD PTR __imp_??1?$CStringT@DV?$StrTraitMFC_DLL@DV?$ChTraitsCRT@D@ATL@@@@@ATL@@QAE@XZ
  00190	8d 4d dc	 lea	 ecx, DWORD PTR $T15[ebp]
  00193	ff 15 00 00 00
	00		 call	 DWORD PTR __imp_??1?$CStringT@DV?$StrTraitMFC_DLL@DV?$ChTraitsCRT@D@ATL@@@@@ATL@@QAE@XZ
  00199	8d 4d d8	 lea	 ecx, DWORD PTR $T14[ebp]
  0019c	ff 15 00 00 00
	00		 call	 DWORD PTR __imp_??1?$CStringT@DV?$StrTraitMFC_DLL@DV?$ChTraitsCRT@D@ATL@@@@@ATL@@QAE@XZ
  001a2	8d 4d d4	 lea	 ecx, DWORD PTR $T11[ebp]
  001a5	ff 15 00 00 00
	00		 call	 DWORD PTR __imp_??1?$CStringT@DV?$StrTraitMFC_DLL@DV?$ChTraitsCRT@D@ATL@@@@@ATL@@QAE@XZ

; 95   : 
; 96   : 
; 97   : 	//////////////////////////////
; 98   : 	//    
; 99   : 	CString strDataTypeTemp;

  001ab	8d 4d e4	 lea	 ecx, DWORD PTR _strDataTypeTemp$[ebp]
  001ae	ff 15 00 00 00
	00		 call	 DWORD PTR __imp_??0?$CStringT@DV?$StrTraitMFC_DLL@DV?$ChTraitsCRT@D@ATL@@@@@ATL@@QAE@XZ

; 100  : 	CStringArray strDataTypeArray; 

  001b4	8d 4d b0	 lea	 ecx, DWORD PTR _strDataTypeArray$[ebp]
  001b7	c6 45 fc 07	 mov	 BYTE PTR __$EHRec$[ebp+8], 7
  001bb	e8 00 00 00 00	 call	 ??0CStringArray@@QAE@XZ	; CStringArray::CStringArray
; File C:\Program Files (x86)\Microsoft Visual Studio\2019\Community\VC\Tools\MSVC\14.29.30133\atlmfc\include\afxcoll.inl

; 316  : 		SetAtGrow(nIndex, newElement);

  001c0	68 00 00 00 00	 push	 OFFSET ??_C@_02NNHDHLCM@?$MA?O@
  001c5	ff 75 b8	 push	 DWORD PTR _strDataTypeArray$[ebp+8]
  001c8	8d 4d b0	 lea	 ecx, DWORD PTR _strDataTypeArray$[ebp]
; File D:\git\src\IBK\IBK_DRFN\ProjSrc\SrcChartEx\ChartAddIn\ChartDataListViewerAddIn\ChartDataListViewerAddIn\DlgDataSimulator.cpp

; 100  : 	CStringArray strDataTypeArray; 

  001cb	c6 45 fc 08	 mov	 BYTE PTR __$EHRec$[ebp+8], 8
; File C:\Program Files (x86)\Microsoft Visual Studio\2019\Community\VC\Tools\MSVC\14.29.30133\atlmfc\include\afxcoll.inl

; 316  : 		SetAtGrow(nIndex, newElement);

  001cf	e8 00 00 00 00	 call	 ?SetAtGrow@CStringArray@@QAEXHPBD@Z ; CStringArray::SetAtGrow
  001d4	68 00 00 00 00	 push	 OFFSET ??_C@_02EHLBLIAD@?A?V@
  001d9	ff 75 b8	 push	 DWORD PTR _strDataTypeArray$[ebp+8]
  001dc	8d 4d b0	 lea	 ecx, DWORD PTR _strDataTypeArray$[ebp]
  001df	e8 00 00 00 00	 call	 ?SetAtGrow@CStringArray@@QAEXHPBD@Z ; CStringArray::SetAtGrow
  001e4	68 00 00 00 00	 push	 OFFSET ??_C@_02LMCMFDE@?$LP?y@
  001e9	ff 75 b8	 push	 DWORD PTR _strDataTypeArray$[ebp+8]
  001ec	8d 4d b0	 lea	 ecx, DWORD PTR _strDataTypeArray$[ebp]
  001ef	e8 00 00 00 00	 call	 ?SetAtGrow@CStringArray@@QAEXHPBD@Z ; CStringArray::SetAtGrow
  001f4	68 00 00 00 00	 push	 OFFSET ??_C@_02EJEPJIDE@?$LK?P@
  001f9	ff 75 b8	 push	 DWORD PTR _strDataTypeArray$[ebp+8]
  001fc	8d 4d b0	 lea	 ecx, DWORD PTR _strDataTypeArray$[ebp]
  001ff	e8 00 00 00 00	 call	 ?SetAtGrow@CStringArray@@QAEXHPBD@Z ; CStringArray::SetAtGrow
  00204	68 00 00 00 00	 push	 OFFSET ??_C@_02MEPHBMOK@?F?$LN@
  00209	ff 75 b8	 push	 DWORD PTR _strDataTypeArray$[ebp+8]
  0020c	8d 4d b0	 lea	 ecx, DWORD PTR _strDataTypeArray$[ebp]
  0020f	e8 00 00 00 00	 call	 ?SetAtGrow@CStringArray@@QAEXHPBD@Z ; CStringArray::SetAtGrow
; File D:\git\src\IBK\IBK_DRFN\ProjSrc\SrcChartEx\ChartAddIn\ChartDataListViewerAddIn\ChartDataListViewerAddIn\DlgDataSimulator.cpp

; 103  : 	if(m_pChartDataGridManager->m_nDataType < 0 || m_pChartDataGridManager->m_nDataType >= strDataTypeArray.GetSize())

  00214	8b 97 38 05 00
	00		 mov	 edx, DWORD PTR [edi+1336]
  0021a	8b 42 0c	 mov	 eax, DWORD PTR [edx+12]
  0021d	85 c0		 test	 eax, eax
  0021f	78 53		 js	 SHORT $LN4@MakeTitle
  00221	8b 4d b8	 mov	 ecx, DWORD PTR _strDataTypeArray$[ebp+8]
  00224	3b c1		 cmp	 eax, ecx
  00226	7d 4c		 jge	 SHORT $LN4@MakeTitle

; 108  : 		if(m_pChartDataGridManager->m_nDataType == MIN_TYPE && m_pChartDataGridManager->m_strDateTime == "DDHHMMSS")

  00228	83 f8 03	 cmp	 eax, 3
  0022b	75 1c		 jne	 SHORT $LN196@MakeTitle
  0022d	8d 4a 08	 lea	 ecx, DWORD PTR [edx+8]
; File C:\Program Files (x86)\Microsoft Visual Studio\2019\Community\VC\Tools\MSVC\14.29.30133\atlmfc\include\cstringt.h

; 2486 : 		return(str1.Compare(psz2) == 0);

  00230	68 00 00 00 00	 push	 OFFSET ??_C@_08JFMBEEDE@DDHHMMSS@
  00235	ff 15 00 00 00
	00		 call	 DWORD PTR __imp_?Compare@?$CStringT@DV?$StrTraitMFC_DLL@DV?$ChTraitsCRT@D@ATL@@@@@ATL@@QBEHPBD@Z
  0023b	85 c0		 test	 eax, eax
; File D:\git\src\IBK\IBK_DRFN\ProjSrc\SrcChartEx\ChartAddIn\ChartDataListViewerAddIn\ChartDataListViewerAddIn\DlgDataSimulator.cpp

; 108  : 		if(m_pChartDataGridManager->m_nDataType == MIN_TYPE && m_pChartDataGridManager->m_strDateTime == "DDHHMMSS")

  0023d	75 07		 jne	 SHORT $LN197@MakeTitle

; 109  : 			strDataTypeTemp = "";

  0023f	68 00 00 00 00	 push	 OFFSET ??_C@_02KCECDBDA@?C?J@
  00244	eb 33		 jmp	 SHORT $LN200@MakeTitle
$LN197@MakeTitle:

; 108  : 		if(m_pChartDataGridManager->m_nDataType == MIN_TYPE && m_pChartDataGridManager->m_strDateTime == "DDHHMMSS")

  00246	8b 4d b8	 mov	 ecx, DWORD PTR _strDataTypeArray$[ebp+8]
$LN196@MakeTitle:

; 111  : 			strDataTypeTemp = strDataTypeArray.GetAt(m_pChartDataGridManager->m_nDataType);

  00249	8b 87 38 05 00
	00		 mov	 eax, DWORD PTR [edi+1336]
  0024f	8b 50 0c	 mov	 edx, DWORD PTR [eax+12]
; File C:\Program Files (x86)\Microsoft Visual Studio\2019\Community\VC\Tools\MSVC\14.29.30133\atlmfc\include\afxcoll.inl

; 289  : 		if( nIndex < 0 || nIndex >= m_nSize )

  00252	85 d2		 test	 edx, edx
  00254	0f 88 df 02 00
	00		 js	 $LN133@MakeTitle
  0025a	3b d1		 cmp	 edx, ecx
  0025c	0f 8d d7 02 00
	00		 jge	 $LN133@MakeTitle

; 291  : 		return m_pData[nIndex]; }

  00262	8b 45 b4	 mov	 eax, DWORD PTR _strDataTypeArray$[ebp+4]
; File D:\git\src\IBK\IBK_DRFN\ProjSrc\SrcChartEx\ChartAddIn\ChartDataListViewerAddIn\ChartDataListViewerAddIn\DlgDataSimulator.cpp

; 111  : 			strDataTypeTemp = strDataTypeArray.GetAt(m_pChartDataGridManager->m_nDataType);

  00265	8d 4d e4	 lea	 ecx, DWORD PTR _strDataTypeTemp$[ebp]
; File C:\Program Files (x86)\Microsoft Visual Studio\2019\Community\VC\Tools\MSVC\14.29.30133\atlmfc\include\afxcoll.inl

; 291  : 		return m_pData[nIndex]; }

  00268	8d 04 90	 lea	 eax, DWORD PTR [eax+edx*4]
; File D:\git\src\IBK\IBK_DRFN\ProjSrc\SrcChartEx\ChartAddIn\ChartDataListViewerAddIn\ChartDataListViewerAddIn\DlgDataSimulator.cpp

; 111  : 			strDataTypeTemp = strDataTypeArray.GetAt(m_pChartDataGridManager->m_nDataType);

  0026b	50		 push	 eax
  0026c	ff 15 00 00 00
	00		 call	 DWORD PTR __imp_??4?$CStringT@DV?$StrTraitMFC_DLL@DV?$ChTraitsCRT@D@ATL@@@@@ATL@@QAEAAV01@ABV01@@Z
  00272	eb 0e		 jmp	 SHORT $LN6@MakeTitle
$LN4@MakeTitle:

; 104  : 		strDataTypeTemp = "";

  00274	68 00 00 00 00	 push	 OFFSET ??_C@_00CNPNBAHC@@
$LN200@MakeTitle:

; 112  : 	}
; 113  : 
; 114  : 	strDataType.Format(" %d %s ", m_pChartDataGridManager->m_nDataInterval, strDataTypeTemp);

  00279	8d 4d e4	 lea	 ecx, DWORD PTR _strDataTypeTemp$[ebp]
  0027c	ff 15 00 00 00
	00		 call	 DWORD PTR __imp_??4?$CStringT@DV?$StrTraitMFC_DLL@DV?$ChTraitsCRT@D@ATL@@@@@ATL@@QAEAAV01@PBD@Z
$LN6@MakeTitle:
  00282	8b 87 38 05 00
	00		 mov	 eax, DWORD PTR [edi+1336]
  00288	ff 75 e4	 push	 DWORD PTR _strDataTypeTemp$[ebp]
  0028b	ff 70 10	 push	 DWORD PTR [eax+16]
  0028e	8d 45 c4	 lea	 eax, DWORD PTR _strDataType$[ebp]
  00291	68 00 00 00 00	 push	 OFFSET ??_C@_07PIFFJLBE@?5?$CFd?5?$CFs?5@
  00296	50		 push	 eax
  00297	ff 15 00 00 00
	00		 call	 DWORD PTR __imp_?Format@?$CStringT@DV?$StrTraitMFC_DLL@DV?$ChTraitsCRT@D@ATL@@@@@ATL@@QAAXPBDZZ
  0029d	83 c4 10	 add	 esp, 16			; 00000010H
; File C:\Program Files (x86)\Microsoft Visual Studio\2019\Community\VC\Tools\MSVC\14.29.30133\atlmfc\include\cstringt.h

; 2390 : 		CStringT strResult( str1.GetManager() );

  002a0	8d 4d ec	 lea	 ecx, DWORD PTR _strTitle$[ebp]
; File D:\git\src\IBK\IBK_DRFN\ProjSrc\SrcChartEx\ChartAddIn\ChartDataListViewerAddIn\ChartDataListViewerAddIn\DlgDataSimulator.cpp

; 115  : 	strTitle = strTitle + strDataType;

  002a3	c6 45 fc 09	 mov	 BYTE PTR __$EHRec$[ebp+8], 9
; File C:\Program Files (x86)\Microsoft Visual Studio\2019\Community\VC\Tools\MSVC\14.29.30133\atlmfc\include\cstringt.h

; 2390 : 		CStringT strResult( str1.GetManager() );

  002a7	ff 15 00 00 00
	00		 call	 DWORD PTR __imp_?GetManager@?$CStringT@DV?$StrTraitMFC_DLL@DV?$ChTraitsCRT@D@ATL@@@@@ATL@@QBEPAUIAtlStringMgr@2@XZ
  002ad	50		 push	 eax
  002ae	8d 4d cc	 lea	 ecx, DWORD PTR $T6[ebp]
  002b1	ff 15 00 00 00
	00		 call	 DWORD PTR __imp_??0?$CStringT@DV?$StrTraitMFC_DLL@DV?$ChTraitsCRT@D@ATL@@@@@ATL@@QAE@PAUIAtlStringMgr@1@@Z
; File C:\Program Files (x86)\Microsoft Visual Studio\2019\Community\VC\Tools\MSVC\14.29.30133\atlmfc\include\atlsimpstr.h

; 519  : 		return( GetData()->nDataLength );

  002b7	8b 45 c4	 mov	 eax, DWORD PTR _strDataType$[ebp]
  002ba	8b 4d ec	 mov	 ecx, DWORD PTR _strTitle$[ebp]
; File C:\Program Files (x86)\Microsoft Visual Studio\2019\Community\VC\Tools\MSVC\14.29.30133\atlmfc\include\cstringt.h

; 2394 : 		return( strResult );

  002bd	c7 45 f0 20 00
	00 00		 mov	 DWORD PTR $T17[ebp], 32	; 00000020H
  002c4	ff 70 f4	 push	 DWORD PTR [eax-12]
  002c7	50		 push	 eax
  002c8	ff 71 f4	 push	 DWORD PTR [ecx-12]
  002cb	8d 45 cc	 lea	 eax, DWORD PTR $T6[ebp]
  002ce	51		 push	 ecx
  002cf	50		 push	 eax
  002d0	ff 15 00 00 00
	00		 call	 DWORD PTR __imp_?Concatenate@?$CSimpleStringT@D$00@ATL@@KAXAAV12@PBDH1H@Z
  002d6	83 c4 14	 add	 esp, 20			; 00000014H
; File D:\git\src\IBK\IBK_DRFN\ProjSrc\SrcChartEx\ChartAddIn\ChartDataListViewerAddIn\ChartDataListViewerAddIn\DlgDataSimulator.cpp

; 115  : 	strTitle = strTitle + strDataType;

  002d9	8d 45 cc	 lea	 eax, DWORD PTR $T6[ebp]
  002dc	8d 4d ec	 lea	 ecx, DWORD PTR _strTitle$[ebp]
  002df	50		 push	 eax
  002e0	ff 15 00 00 00
	00		 call	 DWORD PTR __imp_??4?$CStringT@DV?$StrTraitMFC_DLL@DV?$ChTraitsCRT@D@ATL@@@@@ATL@@QAEAAV01@ABV01@@Z
  002e6	8d 4d cc	 lea	 ecx, DWORD PTR $T6[ebp]
  002e9	ff 15 00 00 00
	00		 call	 DWORD PTR __imp_??1?$CStringT@DV?$StrTraitMFC_DLL@DV?$ChTraitsCRT@D@ATL@@@@@ATL@@QAE@XZ

; 116  : 
; 117  : 
; 118  : 	//////////////////////////////////////
; 119  : 	//  (  ~   )
; 120  : 	CString strDateTitle;

  002ef	8d 4d e8	 lea	 ecx, DWORD PTR _strDateTitle$[ebp]
  002f2	ff 15 00 00 00
	00		 call	 DWORD PTR __imp_??0?$CStringT@DV?$StrTraitMFC_DLL@DV?$ChTraitsCRT@D@ATL@@@@@ATL@@QAE@XZ

; 122  : 	posHead = m_pChartDataGridManager->m_ChartDataList.GetHeadPosition();

  002f8	8b 8f 38 05 00
	00		 mov	 ecx, DWORD PTR [edi+1336]
  002fe	c6 45 fc 0a	 mov	 BYTE PTR __$EHRec$[ebp+8], 10 ; 0000000aH
; File C:\Program Files (x86)\Microsoft Visual Studio\2019\Community\VC\Tools\MSVC\14.29.30133\atlmfc\include\afxtempl.h

; 288  : 	if(nIndex >= 0 && nIndex < m_nSize)

  00302	83 79 20 00	 cmp	 DWORD PTR [ecx+32], 0
; File D:\git\src\IBK\IBK_DRFN\ProjSrc\SrcChartEx\ChartAddIn\ChartDataListViewerAddIn\ChartDataListViewerAddIn\DlgDataSimulator.cpp

; 122  : 	posHead = m_pChartDataGridManager->m_ChartDataList.GetHeadPosition();

  00306	8b 51 30	 mov	 edx, DWORD PTR [ecx+48]
; File C:\Program Files (x86)\Microsoft Visual Studio\2019\Community\VC\Tools\MSVC\14.29.30133\atlmfc\include\afxtempl.h

; 288  : 	if(nIndex >= 0 && nIndex < m_nSize)

  00309	0f 8e 2a 02 00
	00		 jle	 $LN133@MakeTitle

; 289  : 		return m_pData[nIndex];

  0030f	8b 41 1c	 mov	 eax, DWORD PTR [ecx+28]
; File D:\git\src\IBK\IBK_DRFN\ProjSrc\SrcChartEx\ChartAddIn\ChartDataListViewerAddIn\ChartDataListViewerAddIn\DlgDataSimulator.cpp

; 123  : 	CChartDataGridHeaderInfo * pHeaderInfo	= m_pChartDataGridManager->m_ChartDataGridHeaderInfoArray.GetAt(DATE_TIME);

  00312	8b 30		 mov	 esi, DWORD PTR [eax]
  00314	83 c6 08	 add	 esi, 8

; 124  : 	if(posHead)

  00317	85 d2		 test	 edx, edx
  00319	74 50		 je	 SHORT $LN195@MakeTitle

; 125  : 	{
; 126  : 		CChartRecordSet * pRecordSet	= m_pChartDataGridManager->m_ChartDataList.GetAt(posHead);
; 127  : 		strDateTitle					= pRecordSet->m_Data[DATE_TIME];		

  0031b	ff 72 08	 push	 DWORD PTR [edx+8]
  0031e	8d 4d e8	 lea	 ecx, DWORD PTR _strDateTitle$[ebp]
  00321	ff 15 00 00 00
	00		 call	 DWORD PTR __imp_??4?$CStringT@DV?$StrTraitMFC_DLL@DV?$ChTraitsCRT@D@ATL@@@@@ATL@@QAEAAV01@ABV01@@Z
; File D:\git\src\IBK\IBK_DRFN\ProjSrc\SrcChartEx\ChartAddIn\ChartDataListViewerAddIn\Include_Chart\Conversion.h

; 27   : 		{	m_hOcxWnd = p_hOcxWnd;	m_eChartMode = p_eChartMode;	}

  00327	8b 87 ac 00 00
	00		 mov	 eax, DWORD PTR [edi+172]
; File D:\git\src\IBK\IBK_DRFN\ProjSrc\SrcChartEx\ChartAddIn\ChartDataListViewerAddIn\ChartDataListViewerAddIn\DlgDataSimulator.cpp

; 128  : 		strDateTitle					= CDataConversion( m_hOcxWnd, m_eChartMode).GetStringFormatTrans( strDateTitle, pHeaderInfo->m_strPacketType);

  0032d	8b 8f 64 05 00
	00		 mov	 ecx, DWORD PTR [edi+1380]
; File D:\git\src\IBK\IBK_DRFN\ProjSrc\SrcChartEx\ChartAddIn\ChartDataListViewerAddIn\Include_Chart\Conversion.h

; 27   : 		{	m_hOcxWnd = p_hOcxWnd;	m_eChartMode = p_eChartMode;	}

  00333	89 45 d0	 mov	 DWORD PTR $T8[ebp], eax
; File D:\git\src\IBK\IBK_DRFN\ProjSrc\SrcChartEx\ChartAddIn\ChartDataListViewerAddIn\ChartDataListViewerAddIn\DlgDataSimulator.cpp

; 128  : 		strDateTitle					= CDataConversion( m_hOcxWnd, m_eChartMode).GetStringFormatTrans( strDateTitle, pHeaderInfo->m_strPacketType);

  00336	8d 45 e8	 lea	 eax, DWORD PTR _strDateTitle$[ebp]
  00339	56		 push	 esi
  0033a	50		 push	 eax
  0033b	8d 45 cc	 lea	 eax, DWORD PTR $T5[ebp]
; File D:\git\src\IBK\IBK_DRFN\ProjSrc\SrcChartEx\ChartAddIn\ChartDataListViewerAddIn\Include_Chart\Conversion.h

; 27   : 		{	m_hOcxWnd = p_hOcxWnd;	m_eChartMode = p_eChartMode;	}

  0033e	89 4d d4	 mov	 DWORD PTR $T8[ebp+4], ecx
; File D:\git\src\IBK\IBK_DRFN\ProjSrc\SrcChartEx\ChartAddIn\ChartDataListViewerAddIn\ChartDataListViewerAddIn\DlgDataSimulator.cpp

; 128  : 		strDateTitle					= CDataConversion( m_hOcxWnd, m_eChartMode).GetStringFormatTrans( strDateTitle, pHeaderInfo->m_strPacketType);

  00341	50		 push	 eax
  00342	8d 4d d0	 lea	 ecx, DWORD PTR $T8[ebp]
  00345	e8 00 00 00 00	 call	 ?GetStringFormatTrans@CDataConversion@@QAE?AV?$CStringT@DV?$StrTraitMFC_DLL@DV?$ChTraitsCRT@D@ATL@@@@@ATL@@ABV23@0@Z ; CDataConversion::GetStringFormatTrans
  0034a	50		 push	 eax
  0034b	8d 4d e8	 lea	 ecx, DWORD PTR _strDateTitle$[ebp]
  0034e	c6 45 fc 0b	 mov	 BYTE PTR __$EHRec$[ebp+8], 11 ; 0000000bH
  00352	ff 15 00 00 00
	00		 call	 DWORD PTR __imp_??4?$CStringT@DV?$StrTraitMFC_DLL@DV?$ChTraitsCRT@D@ATL@@@@@ATL@@QAEAAV01@ABV01@@Z
  00358	8d 4d cc	 lea	 ecx, DWORD PTR $T5[ebp]
  0035b	c6 45 fc 0a	 mov	 BYTE PTR __$EHRec$[ebp+8], 10 ; 0000000aH
  0035f	ff 15 00 00 00
	00		 call	 DWORD PTR __imp_??1?$CStringT@DV?$StrTraitMFC_DLL@DV?$ChTraitsCRT@D@ATL@@@@@ATL@@QAE@XZ
  00365	8b 8f 38 05 00
	00		 mov	 ecx, DWORD PTR [edi+1336]
$LN195@MakeTitle:

; 129  : 	}
; 130  : 	if(m_pChartDataGridManager->m_ChartDataList.GetCount() > 1 && (posTail = m_pChartDataGridManager->m_ChartDataList.GetTailPosition()))

  0036b	83 79 38 01	 cmp	 DWORD PTR [ecx+56], 1
  0036f	0f 8e a0 00 00
	00		 jle	 $LN8@MakeTitle
  00375	8b 51 34	 mov	 edx, DWORD PTR [ecx+52]
  00378	85 d2		 test	 edx, edx
  0037a	0f 84 95 00 00
	00		 je	 $LN8@MakeTitle
; File D:\git\src\IBK\IBK_DRFN\ProjSrc\SrcChartEx\ChartAddIn\ChartDataListViewerAddIn\Include_Chart\Conversion.h

; 27   : 		{	m_hOcxWnd = p_hOcxWnd;	m_eChartMode = p_eChartMode;	}

  00380	8b 87 ac 00 00
	00		 mov	 eax, DWORD PTR [edi+172]
; File D:\git\src\IBK\IBK_DRFN\ProjSrc\SrcChartEx\ChartAddIn\ChartDataListViewerAddIn\ChartDataListViewerAddIn\DlgDataSimulator.cpp

; 133  : 		CString strDateTitle1			= CDataConversion( m_hOcxWnd, m_eChartMode).GetStringFormatTrans( pRecordSet->m_Data[DATE_TIME], pHeaderInfo->m_strPacketType);

  00386	8b 8f 64 05 00
	00		 mov	 ecx, DWORD PTR [edi+1380]
  0038c	56		 push	 esi
  0038d	ff 72 08	 push	 DWORD PTR [edx+8]
; File D:\git\src\IBK\IBK_DRFN\ProjSrc\SrcChartEx\ChartAddIn\ChartDataListViewerAddIn\Include_Chart\Conversion.h

; 27   : 		{	m_hOcxWnd = p_hOcxWnd;	m_eChartMode = p_eChartMode;	}

  00390	89 45 c8	 mov	 DWORD PTR $T2[ebp], eax
; File D:\git\src\IBK\IBK_DRFN\ProjSrc\SrcChartEx\ChartAddIn\ChartDataListViewerAddIn\ChartDataListViewerAddIn\DlgDataSimulator.cpp

; 133  : 		CString strDateTitle1			= CDataConversion( m_hOcxWnd, m_eChartMode).GetStringFormatTrans( pRecordSet->m_Data[DATE_TIME], pHeaderInfo->m_strPacketType);

  00393	8d 45 d4	 lea	 eax, DWORD PTR _strDateTitle1$10[ebp]
; File D:\git\src\IBK\IBK_DRFN\ProjSrc\SrcChartEx\ChartAddIn\ChartDataListViewerAddIn\Include_Chart\Conversion.h

; 27   : 		{	m_hOcxWnd = p_hOcxWnd;	m_eChartMode = p_eChartMode;	}

  00396	89 4d cc	 mov	 DWORD PTR $T2[ebp+4], ecx
; File D:\git\src\IBK\IBK_DRFN\ProjSrc\SrcChartEx\ChartAddIn\ChartDataListViewerAddIn\ChartDataListViewerAddIn\DlgDataSimulator.cpp

; 133  : 		CString strDateTitle1			= CDataConversion( m_hOcxWnd, m_eChartMode).GetStringFormatTrans( pRecordSet->m_Data[DATE_TIME], pHeaderInfo->m_strPacketType);

  00399	8d 4d c8	 lea	 ecx, DWORD PTR $T2[ebp]
  0039c	50		 push	 eax
  0039d	e8 00 00 00 00	 call	 ?GetStringFormatTrans@CDataConversion@@QAE?AV?$CStringT@DV?$StrTraitMFC_DLL@DV?$ChTraitsCRT@D@ATL@@@@@ATL@@ABV23@0@Z ; CDataConversion::GetStringFormatTrans
; File C:\Program Files (x86)\Microsoft Visual Studio\2019\Community\VC\Tools\MSVC\14.29.30133\atlmfc\include\cstringt.h

; 2401 : 		CStringT strResult( str1.GetManager() );

  003a2	8d 4d e8	 lea	 ecx, DWORD PTR _strDateTitle$[ebp]
; File D:\git\src\IBK\IBK_DRFN\ProjSrc\SrcChartEx\ChartAddIn\ChartDataListViewerAddIn\ChartDataListViewerAddIn\DlgDataSimulator.cpp

; 134  : 		strDateTitle = strDateTitle + "  ~  " + strDateTitle1;

  003a5	c6 45 fc 0d	 mov	 BYTE PTR __$EHRec$[ebp+8], 13 ; 0000000dH
; File C:\Program Files (x86)\Microsoft Visual Studio\2019\Community\VC\Tools\MSVC\14.29.30133\atlmfc\include\cstringt.h

; 2401 : 		CStringT strResult( str1.GetManager() );

  003a9	ff 15 00 00 00
	00		 call	 DWORD PTR __imp_?GetManager@?$CStringT@DV?$StrTraitMFC_DLL@DV?$ChTraitsCRT@D@ATL@@@@@ATL@@QBEPAUIAtlStringMgr@2@XZ
  003af	50		 push	 eax
  003b0	8d 4d cc	 lea	 ecx, DWORD PTR $T4[ebp]
  003b3	ff 15 00 00 00
	00		 call	 DWORD PTR __imp_??0?$CStringT@DV?$StrTraitMFC_DLL@DV?$ChTraitsCRT@D@ATL@@@@@ATL@@QAE@PAUIAtlStringMgr@1@@Z
; File C:\Program Files (x86)\Microsoft Visual Studio\2019\Community\VC\Tools\MSVC\14.29.30133\atlmfc\include\atlsimpstr.h

; 519  : 		return( GetData()->nDataLength );

  003b9	8b 45 e8	 mov	 eax, DWORD PTR _strDateTitle$[ebp]
; File C:\Program Files (x86)\Microsoft Visual Studio\2019\Community\VC\Tools\MSVC\14.29.30133\atlmfc\include\cstringt.h

; 2403 : 		CThisSimpleString::Concatenate( strResult, str1, str1.GetLength(), psz2, CThisSimpleString::StringLength( psz2 ) );

  003bc	6a 05		 push	 5
  003be	68 00 00 00 00	 push	 OFFSET ??_C@_05KOHJMBID@?5?5?$HO?5?5@

; 2404 : 
; 2405 : 		return( strResult );

  003c3	c7 45 f0 40 00
	00 00		 mov	 DWORD PTR $T17[ebp], 64	; 00000040H
  003ca	ff 70 f4	 push	 DWORD PTR [eax-12]
  003cd	50		 push	 eax
  003ce	8d 45 cc	 lea	 eax, DWORD PTR $T4[ebp]
  003d1	50		 push	 eax
  003d2	ff 15 00 00 00
	00		 call	 DWORD PTR __imp_?Concatenate@?$CSimpleStringT@D$00@ATL@@KAXAAV12@PBDH1H@Z
; File D:\git\src\IBK\IBK_DRFN\ProjSrc\SrcChartEx\ChartAddIn\ChartDataListViewerAddIn\ChartDataListViewerAddIn\DlgDataSimulator.cpp

; 134  : 		strDateTitle = strDateTitle + "  ~  " + strDateTitle1;

  003d8	8d 45 d4	 lea	 eax, DWORD PTR _strDateTitle1$10[ebp]
  003db	50		 push	 eax
  003dc	8d 45 cc	 lea	 eax, DWORD PTR $T4[ebp]
  003df	50		 push	 eax
  003e0	8d 45 d8	 lea	 eax, DWORD PTR $T13[ebp]
  003e3	50		 push	 eax
  003e4	e8 00 00 00 00	 call	 ??HATL@@YA?AV?$CStringT@DV?$StrTraitMFC_DLL@DV?$ChTraitsCRT@D@ATL@@@@@0@ABV10@0@Z ; ATL::operator+
  003e9	83 c4 20	 add	 esp, 32			; 00000020H
  003ec	50		 push	 eax
  003ed	8d 4d e8	 lea	 ecx, DWORD PTR _strDateTitle$[ebp]
  003f0	c6 45 fc 0e	 mov	 BYTE PTR __$EHRec$[ebp+8], 14 ; 0000000eH
  003f4	ff 15 00 00 00
	00		 call	 DWORD PTR __imp_??4?$CStringT@DV?$StrTraitMFC_DLL@DV?$ChTraitsCRT@D@ATL@@@@@ATL@@QAEAAV01@ABV01@@Z
  003fa	8d 4d d8	 lea	 ecx, DWORD PTR $T13[ebp]
  003fd	ff 15 00 00 00
	00		 call	 DWORD PTR __imp_??1?$CStringT@DV?$StrTraitMFC_DLL@DV?$ChTraitsCRT@D@ATL@@@@@ATL@@QAE@XZ
  00403	8d 4d cc	 lea	 ecx, DWORD PTR $T4[ebp]
  00406	ff 15 00 00 00
	00		 call	 DWORD PTR __imp_??1?$CStringT@DV?$StrTraitMFC_DLL@DV?$ChTraitsCRT@D@ATL@@@@@ATL@@QAE@XZ

; 135  : 	}

  0040c	8d 4d d4	 lea	 ecx, DWORD PTR _strDateTitle1$10[ebp]
  0040f	ff 15 00 00 00
	00		 call	 DWORD PTR __imp_??1?$CStringT@DV?$StrTraitMFC_DLL@DV?$ChTraitsCRT@D@ATL@@@@@ATL@@QAE@XZ
$LN8@MakeTitle:
; File C:\Program Files (x86)\Microsoft Visual Studio\2019\Community\VC\Tools\MSVC\14.29.30133\atlmfc\include\cstringt.h

; 2401 : 		CStringT strResult( str1.GetManager() );

  00415	8d 4d ec	 lea	 ecx, DWORD PTR _strTitle$[ebp]
; File D:\git\src\IBK\IBK_DRFN\ProjSrc\SrcChartEx\ChartAddIn\ChartDataListViewerAddIn\ChartDataListViewerAddIn\DlgDataSimulator.cpp

; 137  : 	strTitle = strTitle + "  (  " + strDateTitle + "  )  ";

  00418	c6 45 fc 0f	 mov	 BYTE PTR __$EHRec$[ebp+8], 15 ; 0000000fH
; File C:\Program Files (x86)\Microsoft Visual Studio\2019\Community\VC\Tools\MSVC\14.29.30133\atlmfc\include\cstringt.h

; 2401 : 		CStringT strResult( str1.GetManager() );

  0041c	ff 15 00 00 00
	00		 call	 DWORD PTR __imp_?GetManager@?$CStringT@DV?$StrTraitMFC_DLL@DV?$ChTraitsCRT@D@ATL@@@@@ATL@@QBEPAUIAtlStringMgr@2@XZ
  00422	50		 push	 eax
  00423	8d 4d d8	 lea	 ecx, DWORD PTR $T12[ebp]
  00426	ff 15 00 00 00
	00		 call	 DWORD PTR __imp_??0?$CStringT@DV?$StrTraitMFC_DLL@DV?$ChTraitsCRT@D@ATL@@@@@ATL@@QAE@PAUIAtlStringMgr@1@@Z
; File C:\Program Files (x86)\Microsoft Visual Studio\2019\Community\VC\Tools\MSVC\14.29.30133\atlmfc\include\atlsimpstr.h

; 519  : 		return( GetData()->nDataLength );

  0042c	8b 45 ec	 mov	 eax, DWORD PTR _strTitle$[ebp]
; File C:\Program Files (x86)\Microsoft Visual Studio\2019\Community\VC\Tools\MSVC\14.29.30133\atlmfc\include\cstringt.h

; 2403 : 		CThisSimpleString::Concatenate( strResult, str1, str1.GetLength(), psz2, CThisSimpleString::StringLength( psz2 ) );

  0042f	6a 05		 push	 5
  00431	68 00 00 00 00	 push	 OFFSET ??_C@_05EABPJBPN@?5?5?$CI?5?5@

; 2404 : 
; 2405 : 		return( strResult );

  00436	c7 45 f0 80 00
	00 00		 mov	 DWORD PTR $T17[ebp], 128 ; 00000080H
  0043d	ff 70 f4	 push	 DWORD PTR [eax-12]
  00440	50		 push	 eax
  00441	8d 45 d8	 lea	 eax, DWORD PTR $T12[ebp]
  00444	50		 push	 eax
  00445	ff 15 00 00 00
	00		 call	 DWORD PTR __imp_?Concatenate@?$CSimpleStringT@D$00@ATL@@KAXAAV12@PBDH1H@Z
  0044b	83 c4 14	 add	 esp, 20			; 00000014H

; 2390 : 		CStringT strResult( str1.GetManager() );

  0044e	8d 4d d8	 lea	 ecx, DWORD PTR $T12[ebp]
; File D:\git\src\IBK\IBK_DRFN\ProjSrc\SrcChartEx\ChartAddIn\ChartDataListViewerAddIn\ChartDataListViewerAddIn\DlgDataSimulator.cpp

; 137  : 	strTitle = strTitle + "  (  " + strDateTitle + "  )  ";

  00451	c6 45 fc 10	 mov	 BYTE PTR __$EHRec$[ebp+8], 16 ; 00000010H
; File C:\Program Files (x86)\Microsoft Visual Studio\2019\Community\VC\Tools\MSVC\14.29.30133\atlmfc\include\cstringt.h

; 2390 : 		CStringT strResult( str1.GetManager() );

  00455	ff 15 00 00 00
	00		 call	 DWORD PTR __imp_?GetManager@?$CStringT@DV?$StrTraitMFC_DLL@DV?$ChTraitsCRT@D@ATL@@@@@ATL@@QBEPAUIAtlStringMgr@2@XZ
  0045b	50		 push	 eax
  0045c	8d 4d d4	 lea	 ecx, DWORD PTR $T9[ebp]
  0045f	ff 15 00 00 00
	00		 call	 DWORD PTR __imp_??0?$CStringT@DV?$StrTraitMFC_DLL@DV?$ChTraitsCRT@D@ATL@@@@@ATL@@QAE@PAUIAtlStringMgr@1@@Z
; File C:\Program Files (x86)\Microsoft Visual Studio\2019\Community\VC\Tools\MSVC\14.29.30133\atlmfc\include\atlsimpstr.h

; 519  : 		return( GetData()->nDataLength );

  00465	8b 45 e8	 mov	 eax, DWORD PTR _strDateTitle$[ebp]
  00468	8b 4d d8	 mov	 ecx, DWORD PTR $T12[ebp]
; File C:\Program Files (x86)\Microsoft Visual Studio\2019\Community\VC\Tools\MSVC\14.29.30133\atlmfc\include\cstringt.h

; 2394 : 		return( strResult );

  0046b	c7 45 f0 80 01
	00 00		 mov	 DWORD PTR $T17[ebp], 384 ; 00000180H
  00472	ff 70 f4	 push	 DWORD PTR [eax-12]
  00475	50		 push	 eax
  00476	ff 71 f4	 push	 DWORD PTR [ecx-12]
  00479	8d 45 d4	 lea	 eax, DWORD PTR $T9[ebp]
  0047c	51		 push	 ecx
  0047d	50		 push	 eax
  0047e	ff 15 00 00 00
	00		 call	 DWORD PTR __imp_?Concatenate@?$CSimpleStringT@D$00@ATL@@KAXAAV12@PBDH1H@Z
  00484	83 c4 14	 add	 esp, 20			; 00000014H

; 2401 : 		CStringT strResult( str1.GetManager() );

  00487	8d 4d d4	 lea	 ecx, DWORD PTR $T9[ebp]
; File D:\git\src\IBK\IBK_DRFN\ProjSrc\SrcChartEx\ChartAddIn\ChartDataListViewerAddIn\ChartDataListViewerAddIn\DlgDataSimulator.cpp

; 137  : 	strTitle = strTitle + "  (  " + strDateTitle + "  )  ";

  0048a	c6 45 fc 11	 mov	 BYTE PTR __$EHRec$[ebp+8], 17 ; 00000011H
; File C:\Program Files (x86)\Microsoft Visual Studio\2019\Community\VC\Tools\MSVC\14.29.30133\atlmfc\include\cstringt.h

; 2401 : 		CStringT strResult( str1.GetManager() );

  0048e	ff 15 00 00 00
	00		 call	 DWORD PTR __imp_?GetManager@?$CStringT@DV?$StrTraitMFC_DLL@DV?$ChTraitsCRT@D@ATL@@@@@ATL@@QBEPAUIAtlStringMgr@2@XZ
  00494	50		 push	 eax
  00495	8d 4d cc	 lea	 ecx, DWORD PTR $T3[ebp]
  00498	ff 15 00 00 00
	00		 call	 DWORD PTR __imp_??0?$CStringT@DV?$StrTraitMFC_DLL@DV?$ChTraitsCRT@D@ATL@@@@@ATL@@QAE@PAUIAtlStringMgr@1@@Z
; File C:\Program Files (x86)\Microsoft Visual Studio\2019\Community\VC\Tools\MSVC\14.29.30133\atlmfc\include\atlsimpstr.h

; 519  : 		return( GetData()->nDataLength );

  0049e	8b 45 d4	 mov	 eax, DWORD PTR $T9[ebp]
; File C:\Program Files (x86)\Microsoft Visual Studio\2019\Community\VC\Tools\MSVC\14.29.30133\atlmfc\include\cstringt.h

; 2403 : 		CThisSimpleString::Concatenate( strResult, str1, str1.GetLength(), psz2, CThisSimpleString::StringLength( psz2 ) );

  004a1	6a 05		 push	 5
  004a3	68 00 00 00 00	 push	 OFFSET ??_C@_05PIKDPGJI@?5?5?$CJ?5?5@

; 2404 : 
; 2405 : 		return( strResult );

  004a8	c7 45 f0 80 03
	00 00		 mov	 DWORD PTR $T17[ebp], 896 ; 00000380H
  004af	ff 70 f4	 push	 DWORD PTR [eax-12]
  004b2	50		 push	 eax
  004b3	8d 45 cc	 lea	 eax, DWORD PTR $T3[ebp]
  004b6	50		 push	 eax
  004b7	ff 15 00 00 00
	00		 call	 DWORD PTR __imp_?Concatenate@?$CSimpleStringT@D$00@ATL@@KAXAAV12@PBDH1H@Z
  004bd	83 c4 14	 add	 esp, 20			; 00000014H
; File D:\git\src\IBK\IBK_DRFN\ProjSrc\SrcChartEx\ChartAddIn\ChartDataListViewerAddIn\ChartDataListViewerAddIn\DlgDataSimulator.cpp

; 137  : 	strTitle = strTitle + "  (  " + strDateTitle + "  )  ";

  004c0	8d 45 cc	 lea	 eax, DWORD PTR $T3[ebp]
  004c3	8d 4d ec	 lea	 ecx, DWORD PTR _strTitle$[ebp]
  004c6	50		 push	 eax
  004c7	ff 15 00 00 00
	00		 call	 DWORD PTR __imp_??4?$CStringT@DV?$StrTraitMFC_DLL@DV?$ChTraitsCRT@D@ATL@@@@@ATL@@QAEAAV01@ABV01@@Z
  004cd	8d 4d cc	 lea	 ecx, DWORD PTR $T3[ebp]
  004d0	ff 15 00 00 00
	00		 call	 DWORD PTR __imp_??1?$CStringT@DV?$StrTraitMFC_DLL@DV?$ChTraitsCRT@D@ATL@@@@@ATL@@QAE@XZ
  004d6	8d 4d d4	 lea	 ecx, DWORD PTR $T9[ebp]
  004d9	ff 15 00 00 00
	00		 call	 DWORD PTR __imp_??1?$CStringT@DV?$StrTraitMFC_DLL@DV?$ChTraitsCRT@D@ATL@@@@@ATL@@QAE@XZ
  004df	8d 4d d8	 lea	 ecx, DWORD PTR $T12[ebp]
  004e2	c6 45 fc 0a	 mov	 BYTE PTR __$EHRec$[ebp+8], 10 ; 0000000aH
  004e6	ff 15 00 00 00
	00		 call	 DWORD PTR __imp_??1?$CStringT@DV?$StrTraitMFC_DLL@DV?$ChTraitsCRT@D@ATL@@@@@ATL@@QAE@XZ

; 138  : 	
; 139  : 	m_strTitle = strTitle;

  004ec	8d 45 ec	 lea	 eax, DWORD PTR _strTitle$[ebp]
  004ef	50		 push	 eax
  004f0	8d 8f a8 00 00
	00		 lea	 ecx, DWORD PTR [edi+168]
  004f6	ff 15 00 00 00
	00		 call	 DWORD PTR __imp_??4?$CStringT@DV?$StrTraitMFC_DLL@DV?$ChTraitsCRT@D@ATL@@@@@ATL@@QAEAAV01@ABV01@@Z

; 140  : }

  004fc	8d 4d e8	 lea	 ecx, DWORD PTR _strDateTitle$[ebp]
  004ff	ff 15 00 00 00
	00		 call	 DWORD PTR __imp_??1?$CStringT@DV?$StrTraitMFC_DLL@DV?$ChTraitsCRT@D@ATL@@@@@ATL@@QAE@XZ
  00505	8d 4d b0	 lea	 ecx, DWORD PTR _strDataTypeArray$[ebp]
  00508	e8 00 00 00 00	 call	 ??1CStringArray@@UAE@XZ	; CStringArray::~CStringArray
  0050d	8d 4d e4	 lea	 ecx, DWORD PTR _strDataTypeTemp$[ebp]
  00510	ff 15 00 00 00
	00		 call	 DWORD PTR __imp_??1?$CStringT@DV?$StrTraitMFC_DLL@DV?$ChTraitsCRT@D@ATL@@@@@ATL@@QAE@XZ
  00516	8d 4d c4	 lea	 ecx, DWORD PTR _strDataType$[ebp]
  00519	ff 15 00 00 00
	00		 call	 DWORD PTR __imp_??1?$CStringT@DV?$StrTraitMFC_DLL@DV?$ChTraitsCRT@D@ATL@@@@@ATL@@QAE@XZ
  0051f	8d 4d ec	 lea	 ecx, DWORD PTR _strTitle$[ebp]
  00522	ff 15 00 00 00
	00		 call	 DWORD PTR __imp_??1?$CStringT@DV?$StrTraitMFC_DLL@DV?$ChTraitsCRT@D@ATL@@@@@ATL@@QAE@XZ
  00528	8b 4d f4	 mov	 ecx, DWORD PTR __$EHRec$[ebp]
  0052b	64 89 0d 00 00
	00 00		 mov	 DWORD PTR fs:0, ecx
  00532	59		 pop	 ecx
  00533	5f		 pop	 edi
  00534	5e		 pop	 esi
  00535	8b e5		 mov	 esp, ebp
  00537	5d		 pop	 ebp
  00538	c3		 ret	 0
$LN133@MakeTitle:
; File C:\Program Files (x86)\Microsoft Visual Studio\2019\Community\VC\Tools\MSVC\14.29.30133\atlmfc\include\afxtempl.h

; 290  : 	AfxThrowInvalidArgException();

  00539	e8 00 00 00 00	 call	 ?AfxThrowInvalidArgException@@YGXXZ ; AfxThrowInvalidArgException
$LN199@MakeTitle:
  0053e	cc		 int	 3
_TEXT	ENDS
;	COMDAT text$x
text$x	SEGMENT
__unwindfunclet$?MakeTitle@CDlgDataSimulator@@QAEXXZ$0:
  00000	8d 4d ec	 lea	 ecx, DWORD PTR _strTitle$[ebp]
  00003	ff 25 00 00 00
	00		 jmp	 DWORD PTR __imp_??1?$CStringT@DV?$StrTraitMFC_DLL@DV?$ChTraitsCRT@D@ATL@@@@@ATL@@QAE@XZ
__unwindfunclet$?MakeTitle@CDlgDataSimulator@@QAEXXZ$1:
  00009	8d 4d c4	 lea	 ecx, DWORD PTR _strDataType$[ebp]
  0000c	ff 25 00 00 00
	00		 jmp	 DWORD PTR __imp_??1?$CStringT@DV?$StrTraitMFC_DLL@DV?$ChTraitsCRT@D@ATL@@@@@ATL@@QAE@XZ
__unwindfunclet$?MakeTitle@CDlgDataSimulator@@QAEXXZ$18:
  00012	8b 45 f0	 mov	 eax, DWORD PTR $T17[ebp]
  00015	83 e0 01	 and	 eax, 1
  00018	0f 84 0d 00 00
	00		 je	 $LN31@MakeTitle
  0001e	83 65 f0 fe	 and	 DWORD PTR $T17[ebp], -2	; fffffffeH
  00022	8d 4d d4	 lea	 ecx, DWORD PTR $T11[ebp]
  00025	ff 25 00 00 00
	00		 jmp	 DWORD PTR __imp_??1?$CStringT@DV?$StrTraitMFC_DLL@DV?$ChTraitsCRT@D@ATL@@@@@ATL@@QAE@XZ
$LN31@MakeTitle:
  0002b	c3		 ret	 0
__unwindfunclet$?MakeTitle@CDlgDataSimulator@@QAEXXZ$19:
  0002c	8b 45 f0	 mov	 eax, DWORD PTR $T17[ebp]
  0002f	83 e0 02	 and	 eax, 2
  00032	0f 84 0d 00 00
	00		 je	 $LN44@MakeTitle
  00038	83 65 f0 fd	 and	 DWORD PTR $T17[ebp], -3	; fffffffdH
  0003c	8d 4d d8	 lea	 ecx, DWORD PTR $T14[ebp]
  0003f	ff 25 00 00 00
	00		 jmp	 DWORD PTR __imp_??1?$CStringT@DV?$StrTraitMFC_DLL@DV?$ChTraitsCRT@D@ATL@@@@@ATL@@QAE@XZ
$LN44@MakeTitle:
  00045	c3		 ret	 0
__unwindfunclet$?MakeTitle@CDlgDataSimulator@@QAEXXZ$20:
  00046	8b 45 f0	 mov	 eax, DWORD PTR $T17[ebp]
  00049	83 e0 04	 and	 eax, 4
  0004c	0f 84 0d 00 00
	00		 je	 $LN57@MakeTitle
  00052	83 65 f0 fb	 and	 DWORD PTR $T17[ebp], -5	; fffffffbH
  00056	8d 4d dc	 lea	 ecx, DWORD PTR $T15[ebp]
  00059	ff 25 00 00 00
	00		 jmp	 DWORD PTR __imp_??1?$CStringT@DV?$StrTraitMFC_DLL@DV?$ChTraitsCRT@D@ATL@@@@@ATL@@QAE@XZ
$LN57@MakeTitle:
  0005f	c3		 ret	 0
__unwindfunclet$?MakeTitle@CDlgDataSimulator@@QAEXXZ$21:
  00060	8b 45 f0	 mov	 eax, DWORD PTR $T17[ebp]
  00063	83 e0 08	 and	 eax, 8
  00066	0f 84 0d 00 00
	00		 je	 $LN73@MakeTitle
  0006c	83 65 f0 f7	 and	 DWORD PTR $T17[ebp], -9	; fffffff7H
  00070	8d 4d e0	 lea	 ecx, DWORD PTR $T16[ebp]
  00073	ff 25 00 00 00
	00		 jmp	 DWORD PTR __imp_??1?$CStringT@DV?$StrTraitMFC_DLL@DV?$ChTraitsCRT@D@ATL@@@@@ATL@@QAE@XZ
$LN73@MakeTitle:
  00079	c3		 ret	 0
__unwindfunclet$?MakeTitle@CDlgDataSimulator@@QAEXXZ$22:
  0007a	8b 45 f0	 mov	 eax, DWORD PTR $T17[ebp]
  0007d	83 e0 10	 and	 eax, 16			; 00000010H
  00080	0f 84 0d 00 00
	00		 je	 $LN86@MakeTitle
  00086	83 65 f0 ef	 and	 DWORD PTR $T17[ebp], -17 ; ffffffefH
  0008a	8d 4d cc	 lea	 ecx, DWORD PTR $T7[ebp]
  0008d	ff 25 00 00 00
	00		 jmp	 DWORD PTR __imp_??1?$CStringT@DV?$StrTraitMFC_DLL@DV?$ChTraitsCRT@D@ATL@@@@@ATL@@QAE@XZ
$LN86@MakeTitle:
  00093	c3		 ret	 0
__unwindfunclet$?MakeTitle@CDlgDataSimulator@@QAEXXZ$7:
  00094	8d 4d e4	 lea	 ecx, DWORD PTR _strDataTypeTemp$[ebp]
  00097	ff 25 00 00 00
	00		 jmp	 DWORD PTR __imp_??1?$CStringT@DV?$StrTraitMFC_DLL@DV?$ChTraitsCRT@D@ATL@@@@@ATL@@QAE@XZ
__unwindfunclet$?MakeTitle@CDlgDataSimulator@@QAEXXZ$8:
  0009d	8d 4d b0	 lea	 ecx, DWORD PTR _strDataTypeArray$[ebp]
  000a0	e9 00 00 00 00	 jmp	 ??1CStringArray@@UAE@XZ	; CStringArray::~CStringArray
__unwindfunclet$?MakeTitle@CDlgDataSimulator@@QAEXXZ$23:
  000a5	8b 45 f0	 mov	 eax, DWORD PTR $T17[ebp]
  000a8	83 e0 20	 and	 eax, 32			; 00000020H
  000ab	0f 84 0d 00 00
	00		 je	 $LN119@MakeTitle
  000b1	83 65 f0 df	 and	 DWORD PTR $T17[ebp], -33 ; ffffffdfH
  000b5	8d 4d cc	 lea	 ecx, DWORD PTR $T6[ebp]
  000b8	ff 25 00 00 00
	00		 jmp	 DWORD PTR __imp_??1?$CStringT@DV?$StrTraitMFC_DLL@DV?$ChTraitsCRT@D@ATL@@@@@ATL@@QAE@XZ
$LN119@MakeTitle:
  000be	c3		 ret	 0
__unwindfunclet$?MakeTitle@CDlgDataSimulator@@QAEXXZ$10:
  000bf	8d 4d e8	 lea	 ecx, DWORD PTR _strDateTitle$[ebp]
  000c2	ff 25 00 00 00
	00		 jmp	 DWORD PTR __imp_??1?$CStringT@DV?$StrTraitMFC_DLL@DV?$ChTraitsCRT@D@ATL@@@@@ATL@@QAE@XZ
__unwindfunclet$?MakeTitle@CDlgDataSimulator@@QAEXXZ$11:
  000c8	8d 4d cc	 lea	 ecx, DWORD PTR $T5[ebp]
  000cb	ff 25 00 00 00
	00		 jmp	 DWORD PTR __imp_??1?$CStringT@DV?$StrTraitMFC_DLL@DV?$ChTraitsCRT@D@ATL@@@@@ATL@@QAE@XZ
__unwindfunclet$?MakeTitle@CDlgDataSimulator@@QAEXXZ$12:
  000d1	8d 4d d4	 lea	 ecx, DWORD PTR _strDateTitle1$10[ebp]
  000d4	ff 25 00 00 00
	00		 jmp	 DWORD PTR __imp_??1?$CStringT@DV?$StrTraitMFC_DLL@DV?$ChTraitsCRT@D@ATL@@@@@ATL@@QAE@XZ
__unwindfunclet$?MakeTitle@CDlgDataSimulator@@QAEXXZ$24:
  000da	8b 45 f0	 mov	 eax, DWORD PTR $T17[ebp]
  000dd	83 e0 40	 and	 eax, 64			; 00000040H
  000e0	0f 84 0d 00 00
	00		 je	 $LN142@MakeTitle
  000e6	83 65 f0 bf	 and	 DWORD PTR $T17[ebp], -65 ; ffffffbfH
  000ea	8d 4d cc	 lea	 ecx, DWORD PTR $T4[ebp]
  000ed	ff 25 00 00 00
	00		 jmp	 DWORD PTR __imp_??1?$CStringT@DV?$StrTraitMFC_DLL@DV?$ChTraitsCRT@D@ATL@@@@@ATL@@QAE@XZ
$LN142@MakeTitle:
  000f3	c3		 ret	 0
__unwindfunclet$?MakeTitle@CDlgDataSimulator@@QAEXXZ$14:
  000f4	8d 4d d8	 lea	 ecx, DWORD PTR $T13[ebp]
  000f7	ff 25 00 00 00
	00		 jmp	 DWORD PTR __imp_??1?$CStringT@DV?$StrTraitMFC_DLL@DV?$ChTraitsCRT@D@ATL@@@@@ATL@@QAE@XZ
__unwindfunclet$?MakeTitle@CDlgDataSimulator@@QAEXXZ$25:
  000fd	8b 45 f0	 mov	 eax, DWORD PTR $T17[ebp]
  00100	25 80 00 00 00	 and	 eax, 128		; 00000080H
  00105	0f 84 10 00 00
	00		 je	 $LN155@MakeTitle
  0010b	81 65 f0 7f ff
	ff ff		 and	 DWORD PTR $T17[ebp], -129 ; ffffff7fH
  00112	8d 4d d8	 lea	 ecx, DWORD PTR $T12[ebp]
  00115	ff 25 00 00 00
	00		 jmp	 DWORD PTR __imp_??1?$CStringT@DV?$StrTraitMFC_DLL@DV?$ChTraitsCRT@D@ATL@@@@@ATL@@QAE@XZ
$LN155@MakeTitle:
  0011b	c3		 ret	 0
__unwindfunclet$?MakeTitle@CDlgDataSimulator@@QAEXXZ$26:
  0011c	8b 45 f0	 mov	 eax, DWORD PTR $T17[ebp]
  0011f	25 00 01 00 00	 and	 eax, 256		; 00000100H
  00124	0f 84 10 00 00
	00		 je	 $LN168@MakeTitle
  0012a	81 65 f0 ff fe
	ff ff		 and	 DWORD PTR $T17[ebp], -257 ; fffffeffH
  00131	8d 4d d4	 lea	 ecx, DWORD PTR $T9[ebp]
  00134	ff 25 00 00 00
	00		 jmp	 DWORD PTR __imp_??1?$CStringT@DV?$StrTraitMFC_DLL@DV?$ChTraitsCRT@D@ATL@@@@@ATL@@QAE@XZ
$LN168@MakeTitle:
  0013a	c3		 ret	 0
__unwindfunclet$?MakeTitle@CDlgDataSimulator@@QAEXXZ$27:
  0013b	8b 45 f0	 mov	 eax, DWORD PTR $T17[ebp]
  0013e	25 00 02 00 00	 and	 eax, 512		; 00000200H
  00143	0f 84 10 00 00
	00		 je	 $LN184@MakeTitle
  00149	81 65 f0 ff fd
	ff ff		 and	 DWORD PTR $T17[ebp], -513 ; fffffdffH
  00150	8d 4d cc	 lea	 ecx, DWORD PTR $T3[ebp]
  00153	ff 25 00 00 00
	00		 jmp	 DWORD PTR __imp_??1?$CStringT@DV?$StrTraitMFC_DLL@DV?$ChTraitsCRT@D@ATL@@@@@ATL@@QAE@XZ
$LN184@MakeTitle:
  00159	c3		 ret	 0
  0015a	cc		 int	 3
  0015b	cc		 int	 3
  0015c	cc		 int	 3
  0015d	cc		 int	 3
  0015e	cc		 int	 3
__ehhandler$?MakeTitle@CDlgDataSimulator@@QAEXXZ:
  0015f	90		 npad	 1
  00160	90		 npad	 1
  00161	8b 54 24 08	 mov	 edx, DWORD PTR [esp+8]
  00165	8d 42 0c	 lea	 eax, DWORD PTR [edx+12]
  00168	8b 4a b0	 mov	 ecx, DWORD PTR [edx-80]
  0016b	33 c8		 xor	 ecx, eax
  0016d	e8 00 00 00 00	 call	 @__security_check_cookie@4
  00172	b8 00 00 00 00	 mov	 eax, OFFSET __ehfuncinfo$?MakeTitle@CDlgDataSimulator@@QAEXXZ
  00177	e9 00 00 00 00	 jmp	 ___CxxFrameHandler3
text$x	ENDS
?MakeTitle@CDlgDataSimulator@@QAEXXZ ENDP		; CDlgDataSimulator::MakeTitle
; Function compile flags: /Ogtp
; File D:\git\src\IBK\IBK_DRFN\ProjSrc\SrcChartEx\ChartAddIn\ChartDataListViewerAddIn\ChartDataListViewerAddIn\DlgDataSimulator.cpp
; File D:\git\src\IBK\IBK_DRFN\ProjSrc\SrcChartEx\ChartAddIn\ChartDataListViewerAddIn\Include_GridCtrl\GridCtrl.h
; File D:\git\src\IBK\IBK_DRFN\ProjSrc\SrcChartEx\ChartAddIn\ChartDataListViewerAddIn\ChartDataListViewerAddIn\DlgDataSimulator.cpp
; File D:\git\src\IBK\IBK_DRFN\ProjSrc\SrcChartEx\ChartAddIn\ChartDataListViewerAddIn\Include_GridCtrl\GridCtrl.h
; File D:\git\src\IBK\IBK_DRFN\ProjSrc\SrcChartEx\ChartAddIn\ChartDataListViewerAddIn\ChartDataListViewerAddIn\DlgDataSimulator.cpp
; File C:\Program Files (x86)\Microsoft Visual Studio\2019\Community\VC\Tools\MSVC\14.29.30133\atlmfc\include\afxwin2.inl
; File D:\git\src\IBK\IBK_DRFN\ProjSrc\SrcChartEx\ChartAddIn\ChartDataListViewerAddIn\ChartDataListViewerAddIn\DlgDataSimulator.cpp
; File C:\Program Files (x86)\Microsoft Visual Studio\2019\Community\VC\Tools\MSVC\14.29.30133\atlmfc\include\afxwin2.inl
; File C:\Program Files (x86)\Microsoft Visual Studio\2019\Community\VC\Tools\MSVC\14.29.30133\atlmfc\include\afxwin1.inl
; File D:\git\src\IBK\IBK_DRFN\ProjSrc\SrcChartEx\ChartAddIn\ChartDataListViewerAddIn\ChartDataListViewerAddIn\DlgDataSimulator.cpp
; File C:\Program Files (x86)\Microsoft Visual Studio\2019\Community\VC\Tools\MSVC\14.29.30133\atlmfc\include\atlsimpstr.h
; File C:\Program Files (x86)\Microsoft Visual Studio\2019\Community\VC\Tools\MSVC\14.29.30133\atlmfc\include\afxwin1.inl
; File D:\git\src\IBK\IBK_DRFN\ProjSrc\SrcChartEx\ChartAddIn\ChartDataListViewerAddIn\ChartDataListViewerAddIn\DlgDataSimulator.cpp
; File C:\Program Files (x86)\Microsoft Visual Studio\2019\Community\VC\Tools\MSVC\14.29.30133\atlmfc\include\afxwin2.inl
; File D:\git\src\IBK\IBK_DRFN\ProjSrc\SrcChartEx\ChartAddIn\ChartDataListViewerAddIn\ChartDataListViewerAddIn\DlgDataSimulator.cpp
; File D:\git\src\IBK\IBK_DRFN\ProjSrc\SrcChartEx\ChartAddIn\ChartDataListViewerAddIn\Include_GridCtrl\GridCtrl.h
; File D:\git\src\IBK\IBK_DRFN\ProjSrc\SrcChartEx\ChartAddIn\ChartDataListViewerAddIn\ChartDataListViewerAddIn\DlgDataSimulator.cpp
; File D:\git\src\IBK\IBK_DRFN\ProjSrc\SrcChartEx\ChartAddIn\ChartDataListViewerAddIn\Include_GridCtrl\GridCtrl.h
; File D:\git\src\IBK\IBK_DRFN\ProjSrc\SrcChartEx\ChartAddIn\ChartDataListViewerAddIn\ChartDataListViewerAddIn\DlgDataSimulator.cpp
; File C:\Program Files (x86)\Microsoft Visual Studio\2019\Community\VC\Tools\MSVC\14.29.30133\atlmfc\include\afxwin2.inl
; File C:\Program Files (x86)\Microsoft Visual Studio\2019\Community\VC\Tools\MSVC\14.29.30133\atlmfc\include\atltypes.h
; File C:\Program Files (x86)\Microsoft Visual Studio\2019\Community\VC\Tools\MSVC\14.29.30133\atlmfc\include\afxwin2.inl
; File D:\git\src\IBK\IBK_DRFN\ProjSrc\SrcChartEx\ChartAddIn\ChartDataListViewerAddIn\ChartDataListViewerAddIn\DlgDataSimulator.cpp
; File D:\git\src\IBK\IBK_DRFN\ProjSrc\SrcChartEx\ChartAddIn\ChartDataListViewerAddIn\Include_GridCtrl\GridCtrl.h
; File D:\git\src\IBK\IBK_DRFN\ProjSrc\SrcChartEx\ChartAddIn\ChartDataListViewerAddIn\ChartDataListViewerAddIn\DlgDataSimulator.cpp
; File D:\git\src\IBK\IBK_DRFN\ProjSrc\SrcChartEx\ChartAddIn\ChartDataListViewerAddIn\Include_GridCtrl\GridCtrl.h
; File D:\git\src\IBK\IBK_DRFN\ProjSrc\SrcChartEx\ChartAddIn\ChartDataListViewerAddIn\ChartDataListViewerAddIn\DlgDataSimulator.cpp
; File C:\Program Files (x86)\Microsoft Visual Studio\2019\Community\VC\Tools\MSVC\14.29.30133\atlmfc\include\afx.h
; File D:\git\src\IBK\IBK_DRFN\ProjSrc\SrcChartEx\ChartAddIn\ChartDataListViewerAddIn\ChartDataListViewerAddIn\DlgDataSimulator.cpp
; File C:\Program Files (x86)\Microsoft Visual Studio\2019\Community\VC\Tools\MSVC\14.29.30133\atlmfc\include\afx.h
; File D:\git\src\IBK\IBK_DRFN\ProjSrc\SrcChartEx\ChartAddIn\ChartDataListViewerAddIn\ChartDataListViewerAddIn\DlgDataSimulator.cpp
;	COMDAT ?InitGrid@CDlgDataSimulator@@QAEXXZ
_TEXT	SEGMENT
__afxExceptionLink$2 = -72				; size = 8
_size$3 = -64						; size = 8
_e$4 = -56						; size = 4
_nRows$1$ = -52						; size = 4
tv626 = -48						; size = 4
_nCols$1$ = -44						; size = 4
$T5 = -40						; size = 4
_rectWnd$6 = -36					; size = 16
__$ArrayPad$ = -20					; size = 4
__$EHRec$ = -16						; size = 16
?InitGrid@CDlgDataSimulator@@QAEXXZ PROC		; CDlgDataSimulator::InitGrid, COMDAT
; _this$ = ecx

; 169  : {

  00000	55		 push	 ebp
  00001	8b ec		 mov	 ebp, esp
  00003	6a ff		 push	 -1
  00005	68 00 00 00 00	 push	 __ehhandler$?InitGrid@CDlgDataSimulator@@QAEXXZ
  0000a	64 a1 00 00 00
	00		 mov	 eax, DWORD PTR fs:0
  00010	50		 push	 eax
  00011	83 ec 3c	 sub	 esp, 60			; 0000003cH
  00014	a1 00 00 00 00	 mov	 eax, DWORD PTR ___security_cookie
  00019	33 c5		 xor	 eax, ebp
  0001b	89 45 ec	 mov	 DWORD PTR __$ArrayPad$[ebp], eax
  0001e	53		 push	 ebx
  0001f	56		 push	 esi
  00020	57		 push	 edi
  00021	50		 push	 eax
  00022	8d 45 f4	 lea	 eax, DWORD PTR __$EHRec$[ebp+4]
  00025	64 a3 00 00 00
	00		 mov	 DWORD PTR fs:0, eax
  0002b	89 65 f0	 mov	 DWORD PTR __$EHRec$[ebp], esp
  0002e	8b f9		 mov	 edi, ecx

; 170  :     m_Grid.SetVirtualMode(TRUE);

  00030	8d 9f b0 00 00
	00		 lea	 ebx, DWORD PTR [edi+176]
  00036	6a 01		 push	 1
  00038	8b cb		 mov	 ecx, ebx
  0003a	e8 00 00 00 00	 call	 ?SetVirtualMode@CGridCtrl@@QAEXH@Z ; CGridCtrl::SetVirtualMode
; File D:\git\src\IBK\IBK_DRFN\ProjSrc\SrcChartEx\ChartAddIn\ChartDataListViewerAddIn\Include_GridCtrl\GridCtrl.h

; 811  :     return (CGridCellBase*) &m_cellDefault;

  0003f	8d 8f 10 02 00
	00		 lea	 ecx, DWORD PTR [edi+528]
; File D:\git\src\IBK\IBK_DRFN\ProjSrc\SrcChartEx\ChartAddIn\ChartDataListViewerAddIn\ChartDataListViewerAddIn\DlgDataSimulator.cpp

; 171  :     m_Grid.SetEditable(TRUE);

  00045	c7 87 6c 01 00
	00 01 00 00 00	 mov	 DWORD PTR [edi+364], 1

; 172  : 	m_Grid.EnableDragAndDrop(FALSE);

  0004f	c7 87 74 01 00
	00 00 00 00 00	 mov	 DWORD PTR [edi+372], 0

; 173  : 	m_Grid.GetDefaultCell(FALSE, FALSE)->SetBackClr(RGB(0xFF, 0xFF, 0xFF));	

  00059	8b 01		 mov	 eax, DWORD PTR [ecx]
  0005b	68 ff ff ff 00	 push	 16777215		; 00ffffffH
  00060	ff 50 2c	 call	 DWORD PTR [eax+44]

; 174  : 	m_Grid.EnableTitleTips(TRUE);
; 175  : 	m_Grid.SetRowResize(FALSE);
; 176  : 	m_Grid.SetColumnResize(FALSE);
; 177  : 	m_Grid.SetGridLines(GVL_BOTH); //GVL_NONE, GVL_HORZ, GVL_VERT

  00063	6a 03		 push	 3
  00065	8b cb		 mov	 ecx, ebx
  00067	c7 87 a0 01 00
	00 01 00 00 00	 mov	 DWORD PTR [edi+416], 1
  00071	c7 87 98 03 00
	00 00 00 00 00	 mov	 DWORD PTR [edi+920], 0
  0007b	c7 87 9c 03 00
	00 00 00 00 00	 mov	 DWORD PTR [edi+924], 0
  00085	e8 00 00 00 00	 call	 ?SetGridLines@CGridCtrl@@QAEXH@Z ; CGridCtrl::SetGridLines
; File D:\git\src\IBK\IBK_DRFN\ProjSrc\SrcChartEx\ChartAddIn\ChartDataListViewerAddIn\Include_GridCtrl\GridCtrl.h

; 325  :     void EnableSelection(BOOL bEnable = TRUE)     { ResetSelectedRange(); m_bEnableSelection = bEnable; ResetSelectedRange(); }

  0008a	8b cb		 mov	 ecx, ebx
  0008c	e8 00 00 00 00	 call	 ?ResetSelectedRange@CGridCtrl@@IAEXXZ ; CGridCtrl::ResetSelectedRange
  00091	8b cb		 mov	 ecx, ebx
  00093	c7 83 d8 00 00
	00 00 00 00 00	 mov	 DWORD PTR [ebx+216], 0
  0009d	e8 00 00 00 00	 call	 ?ResetSelectedRange@CGridCtrl@@IAEXXZ ; CGridCtrl::ResetSelectedRange
; File D:\git\src\IBK\IBK_DRFN\ProjSrc\SrcChartEx\ChartAddIn\ChartDataListViewerAddIn\ChartDataListViewerAddIn\DlgDataSimulator.cpp

; 181  :         int nCols = m_pChartDataGridManager->m_ChartDataGridHeaderInfoArray.GetSize();

  000a2	8b 87 38 05 00
	00		 mov	 eax, DWORD PTR [edi+1336]
  000a8	8b 48 20	 mov	 ecx, DWORD PTR [eax+32]

; 182  : 	    int nRows = m_pChartDataGridManager->m_ChartDataList.GetCount()+1;

  000ab	8b 40 38	 mov	 eax, DWORD PTR [eax+56]
  000ae	89 4d d4	 mov	 DWORD PTR _nCols$1$[ebp], ecx
  000b1	40		 inc	 eax

; 184  : 	    TRY {

  000b2	8d 4d b8	 lea	 ecx, DWORD PTR __afxExceptionLink$2[ebp]
  000b5	89 45 cc	 mov	 DWORD PTR _nRows$1$[ebp], eax
  000b8	e8 00 00 00 00	 call	 ??0AFX_EXCEPTION_LINK@@QAE@XZ ; AFX_EXCEPTION_LINK::AFX_EXCEPTION_LINK
; File C:\Program Files (x86)\Microsoft Visual Studio\2019\Community\VC\Tools\MSVC\14.29.30133\atlmfc\include\afxwin2.inl

; 100  : 	{ ASSERT(::IsWindow(m_hWnd)); return CDC::FromHandle(::GetDC(m_hWnd)); }

  000bd	ff 77 20	 push	 DWORD PTR [edi+32]
; File D:\git\src\IBK\IBK_DRFN\ProjSrc\SrcChartEx\ChartAddIn\ChartDataListViewerAddIn\ChartDataListViewerAddIn\DlgDataSimulator.cpp

; 184  : 	    TRY {

  000c0	c7 45 fc 00 00
	00 00		 mov	 DWORD PTR __$EHRec$[ebp+12], 0
  000c7	c6 45 fc 01	 mov	 BYTE PTR __$EHRec$[ebp+12], 1
; File C:\Program Files (x86)\Microsoft Visual Studio\2019\Community\VC\Tools\MSVC\14.29.30133\atlmfc\include\afxwin2.inl

; 100  : 	{ ASSERT(::IsWindow(m_hWnd)); return CDC::FromHandle(::GetDC(m_hWnd)); }

  000cb	ff 15 00 00 00
	00		 call	 DWORD PTR __imp__GetDC@4
  000d1	50		 push	 eax
  000d2	e8 00 00 00 00	 call	 ?FromHandle@CDC@@SGPAV1@PAUHDC__@@@Z ; CDC::FromHandle

; 45   : 	{ ASSERT(::IsWindow(m_hWnd)); return CFont::FromHandle(

  000d7	6a 00		 push	 0
  000d9	6a 00		 push	 0
  000db	6a 31		 push	 49			; 00000031H
  000dd	ff b7 d0 00 00
	00		 push	 DWORD PTR [edi+208]

; 100  : 	{ ASSERT(::IsWindow(m_hWnd)); return CDC::FromHandle(::GetDC(m_hWnd)); }

  000e3	8b f0		 mov	 esi, eax

; 45   : 	{ ASSERT(::IsWindow(m_hWnd)); return CFont::FromHandle(

  000e5	ff 15 00 00 00
	00		 call	 DWORD PTR __imp__SendMessageA@16
; File C:\Program Files (x86)\Microsoft Visual Studio\2019\Community\VC\Tools\MSVC\14.29.30133\atlmfc\include\afxwin1.inl

; 151  : 	{ return (CFont*) CGdiObject::FromHandle(hFont); }

  000eb	50		 push	 eax
  000ec	e8 00 00 00 00	 call	 ?FromHandle@CGdiObject@@SGPAV1@PAX@Z ; CGdiObject::FromHandle
; File D:\git\src\IBK\IBK_DRFN\ProjSrc\SrcChartEx\ChartAddIn\ChartDataListViewerAddIn\ChartDataListViewerAddIn\DlgDataSimulator.cpp

; 190  : 			CFont * pOldFont = pDC->SelectObject(pFont);

  000f1	8b 16		 mov	 edx, DWORD PTR [esi]
  000f3	8b ce		 mov	 ecx, esi
  000f5	50		 push	 eax
  000f6	ff 52 30	 call	 DWORD PTR [edx+48]

; 191  : 			CSize sz = pDC->GetTextExtent("A");

  000f9	68 00 00 00 00	 push	 OFFSET ??_C@_01FHEEJDEE@A@
  000fe	8d 4d d8	 lea	 ecx, DWORD PTR $T5[ebp]
  00101	89 45 d0	 mov	 DWORD PTR tv626[ebp], eax
  00104	ff 15 00 00 00
	00		 call	 DWORD PTR __imp_??0?$CStringT@DV?$StrTraitMFC_DLL@DV?$ChTraitsCRT@D@ATL@@@@@ATL@@QAE@PBD@Z
; File C:\Program Files (x86)\Microsoft Visual Studio\2019\Community\VC\Tools\MSVC\14.29.30133\atlmfc\include\atlsimpstr.h

; 519  : 		return( GetData()->nDataLength );

  0010a	8b 4d d8	 mov	 ecx, DWORD PTR $T5[ebp]
; File C:\Program Files (x86)\Microsoft Visual Studio\2019\Community\VC\Tools\MSVC\14.29.30133\atlmfc\include\afxwin1.inl

; 639  : 		VERIFY(::GetTextExtentPoint32(m_hAttribDC, str, (int)str.GetLength(), &size));

  0010d	8d 45 c0	 lea	 eax, DWORD PTR _size$3[ebp]
  00110	50		 push	 eax
  00111	ff 71 f4	 push	 DWORD PTR [ecx-12]
  00114	51		 push	 ecx
  00115	ff 76 08	 push	 DWORD PTR [esi+8]
  00118	ff 15 00 00 00
	00		 call	 DWORD PTR __imp__GetTextExtentPoint32A@16
; File D:\git\src\IBK\IBK_DRFN\ProjSrc\SrcChartEx\ChartAddIn\ChartDataListViewerAddIn\ChartDataListViewerAddIn\DlgDataSimulator.cpp

; 191  : 			CSize sz = pDC->GetTextExtent("A");

  0011e	8d 4d d8	 lea	 ecx, DWORD PTR $T5[ebp]
  00121	ff 15 00 00 00
	00		 call	 DWORD PTR __imp_??1?$CStringT@DV?$StrTraitMFC_DLL@DV?$ChTraitsCRT@D@ATL@@@@@ATL@@QAE@XZ

; 192  : 			pDC->SelectObject(pOldFont);

  00127	8b 06		 mov	 eax, DWORD PTR [esi]
  00129	8b ce		 mov	 ecx, esi
  0012b	ff 75 d0	 push	 DWORD PTR tv626[ebp]
  0012e	ff 50 30	 call	 DWORD PTR [eax+48]
; File C:\Program Files (x86)\Microsoft Visual Studio\2019\Community\VC\Tools\MSVC\14.29.30133\atlmfc\include\afxwin2.inl

; 104  : 	{ ASSERT(::IsWindow(m_hWnd)); return ::ReleaseDC(m_hWnd, pDC->m_hDC); }

  00131	ff 76 04	 push	 DWORD PTR [esi+4]
  00134	ff 77 20	 push	 DWORD PTR [edi+32]
  00137	ff 15 00 00 00
	00		 call	 DWORD PTR __imp__ReleaseDC@8
; File D:\git\src\IBK\IBK_DRFN\ProjSrc\SrcChartEx\ChartAddIn\ChartDataListViewerAddIn\ChartDataListViewerAddIn\DlgDataSimulator.cpp

; 194  : 			m_Grid.SetDefCellHeight(sz.cy * 2);

  0013d	8b 45 c4	 mov	 eax, DWORD PTR _size$3[ebp+4]
; File D:\git\src\IBK\IBK_DRFN\ProjSrc\SrcChartEx\ChartAddIn\ChartDataListViewerAddIn\Include_GridCtrl\GridCtrl.h

; 286  :     void     SetDefCellHeight(int nHeight)   { m_cellDefault.SetHeight(nHeight); 

  00140	8d 8f 10 02 00
	00		 lea	 ecx, DWORD PTR [edi+528]
; File D:\git\src\IBK\IBK_DRFN\ProjSrc\SrcChartEx\ChartAddIn\ChartDataListViewerAddIn\ChartDataListViewerAddIn\DlgDataSimulator.cpp

; 194  : 			m_Grid.SetDefCellHeight(sz.cy * 2);

  00146	8d 34 00	 lea	 esi, DWORD PTR [eax+eax]
; File D:\git\src\IBK\IBK_DRFN\ProjSrc\SrcChartEx\ChartAddIn\ChartDataListViewerAddIn\Include_GridCtrl\GridCtrl.h

; 286  :     void     SetDefCellHeight(int nHeight)   { m_cellDefault.SetHeight(nHeight); 

  00149	8b 01		 mov	 eax, DWORD PTR [ecx]
  0014b	56		 push	 esi
  0014c	ff 90 04 01 00
	00		 call	 DWORD PTR [eax+260]

; 287  :                                                m_cellFixedRowDef.SetHeight(nHeight); 

  00152	8b 87 a0 02 00
	00		 mov	 eax, DWORD PTR [edi+672]
  00158	8d 8f a0 02 00
	00		 lea	 ecx, DWORD PTR [edi+672]
  0015e	56		 push	 esi
  0015f	ff 90 04 01 00
	00		 call	 DWORD PTR [eax+260]

; 288  :                                                m_cellFixedColDef.SetHeight(nHeight); 

  00165	8b 87 58 02 00
	00		 mov	 eax, DWORD PTR [edi+600]
  0016b	8d 8f 58 02 00
	00		 lea	 ecx, DWORD PTR [edi+600]
  00171	56		 push	 esi
  00172	ff 90 04 01 00
	00		 call	 DWORD PTR [eax+260]

; 289  :                                                m_cellFixedRowColDef.SetHeight(nHeight); }

  00178	8b 87 e8 02 00
	00		 mov	 eax, DWORD PTR [edi+744]
  0017e	8d 8f e8 02 00
	00		 lea	 ecx, DWORD PTR [edi+744]
  00184	56		 push	 esi
  00185	ff 90 04 01 00
	00		 call	 DWORD PTR [eax+260]
; File D:\git\src\IBK\IBK_DRFN\ProjSrc\SrcChartEx\ChartAddIn\ChartDataListViewerAddIn\ChartDataListViewerAddIn\DlgDataSimulator.cpp

; 198  : 			int nScrollW = GetSystemMetrics(SM_CXVSCROLL);

  0018b	6a 02		 push	 2
  0018d	ff 15 00 00 00
	00		 call	 DWORD PTR __imp__GetSystemMetrics@4
  00193	8b f0		 mov	 esi, eax
  00195	0f 57 c0	 xorps	 xmm0, xmm0
; File C:\Program Files (x86)\Microsoft Visual Studio\2019\Community\VC\Tools\MSVC\14.29.30133\atlmfc\include\afxwin2.inl

; 84   : 	{ ASSERT(::IsWindow(m_hWnd)); ::GetWindowRect(m_hWnd, lpRect); }

  00198	8d 45 dc	 lea	 eax, DWORD PTR _rectWnd$6[ebp]
  0019b	50		 push	 eax
  0019c	ff b7 d0 00 00
	00		 push	 DWORD PTR [edi+208]
; File C:\Program Files (x86)\Microsoft Visual Studio\2019\Community\VC\Tools\MSVC\14.29.30133\atlmfc\include\atltypes.h

; 528  : 	left = 0;

  001a2	0f 11 45 dc	 movups	 XMMWORD PTR _rectWnd$6[ebp], xmm0
; File C:\Program Files (x86)\Microsoft Visual Studio\2019\Community\VC\Tools\MSVC\14.29.30133\atlmfc\include\afxwin2.inl

; 84   : 	{ ASSERT(::IsWindow(m_hWnd)); ::GetWindowRect(m_hWnd, lpRect); }

  001a6	ff 15 00 00 00
	00		 call	 DWORD PTR __imp__GetWindowRect@8
; File D:\git\src\IBK\IBK_DRFN\ProjSrc\SrcChartEx\ChartAddIn\ChartDataListViewerAddIn\ChartDataListViewerAddIn\DlgDataSimulator.cpp

; 201  : 			int nColWidth = (rectWnd.Width()-nScrollW) / nCols;

  001ac	8b 45 e4	 mov	 eax, DWORD PTR _rectWnd$6[ebp+8]
; File D:\git\src\IBK\IBK_DRFN\ProjSrc\SrcChartEx\ChartAddIn\ChartDataListViewerAddIn\Include_GridCtrl\GridCtrl.h

; 291  :     void     SetDefCellWidth(int nWidth)     { m_cellDefault.SetWidth(nWidth); 

  001af	8d 8f 10 02 00
	00		 lea	 ecx, DWORD PTR [edi+528]
; File D:\git\src\IBK\IBK_DRFN\ProjSrc\SrcChartEx\ChartAddIn\ChartDataListViewerAddIn\ChartDataListViewerAddIn\DlgDataSimulator.cpp

; 201  : 			int nColWidth = (rectWnd.Width()-nScrollW) / nCols;

  001b5	2b 45 dc	 sub	 eax, DWORD PTR _rectWnd$6[ebp]
  001b8	2b c6		 sub	 eax, esi
  001ba	99		 cdq
  001bb	f7 7d d4	 idiv	 DWORD PTR _nCols$1$[ebp]

; 202  : 			m_Grid.SetDefCellWidth(nColWidth - 1);

  001be	8d 70 ff	 lea	 esi, DWORD PTR [eax-1]
; File D:\git\src\IBK\IBK_DRFN\ProjSrc\SrcChartEx\ChartAddIn\ChartDataListViewerAddIn\Include_GridCtrl\GridCtrl.h

; 291  :     void     SetDefCellWidth(int nWidth)     { m_cellDefault.SetWidth(nWidth); 

  001c1	8b 01		 mov	 eax, DWORD PTR [ecx]
  001c3	56		 push	 esi
  001c4	ff 90 00 01 00
	00		 call	 DWORD PTR [eax+256]

; 292  :                                                m_cellFixedRowDef.SetWidth(nWidth); 

  001ca	8b 87 a0 02 00
	00		 mov	 eax, DWORD PTR [edi+672]
  001d0	8d 8f a0 02 00
	00		 lea	 ecx, DWORD PTR [edi+672]
  001d6	56		 push	 esi
  001d7	ff 90 00 01 00
	00		 call	 DWORD PTR [eax+256]

; 293  :                                                m_cellFixedColDef.SetWidth(nWidth); 

  001dd	8b 87 58 02 00
	00		 mov	 eax, DWORD PTR [edi+600]
  001e3	8d 8f 58 02 00
	00		 lea	 ecx, DWORD PTR [edi+600]
  001e9	56		 push	 esi
  001ea	ff 90 00 01 00
	00		 call	 DWORD PTR [eax+256]

; 294  :                                                m_cellFixedRowColDef.SetWidth(nWidth); }

  001f0	8b 87 e8 02 00
	00		 mov	 eax, DWORD PTR [edi+744]
  001f6	8d 8f e8 02 00
	00		 lea	 ecx, DWORD PTR [edi+744]
  001fc	56		 push	 esi
  001fd	ff 90 00 01 00
	00		 call	 DWORD PTR [eax+256]
; File D:\git\src\IBK\IBK_DRFN\ProjSrc\SrcChartEx\ChartAddIn\ChartDataListViewerAddIn\ChartDataListViewerAddIn\DlgDataSimulator.cpp

; 205  : 		    m_Grid.SetRowCount(nRows);

  00203	ff 75 cc	 push	 DWORD PTR _nRows$1$[ebp]
  00206	8b cb		 mov	 ecx, ebx
  00208	e8 00 00 00 00	 call	 ?SetRowCount@CGridCtrl@@QAEHH@Z ; CGridCtrl::SetRowCount

; 206  : 		    m_Grid.SetColumnCount(nCols);

  0020d	ff 75 d4	 push	 DWORD PTR _nCols$1$[ebp]
  00210	8b cb		 mov	 ecx, ebx
  00212	e8 00 00 00 00	 call	 ?SetColumnCount@CGridCtrl@@QAEHH@Z ; CGridCtrl::SetColumnCount

; 207  : 		    m_Grid.SetFixedRowCount(1);

  00217	6a 01		 push	 1
  00219	8b cb		 mov	 ecx, ebx
  0021b	e8 00 00 00 00	 call	 ?SetFixedRowCount@CGridCtrl@@QAEHH@Z ; CGridCtrl::SetFixedRowCount

; 208  : 		    m_Grid.SetFixedColumnCount(1);

  00220	6a 01		 push	 1
  00222	8b cb		 mov	 ecx, ebx
  00224	e8 00 00 00 00	 call	 ?SetFixedColumnCount@CGridCtrl@@QAEHH@Z ; CGridCtrl::SetFixedColumnCount

; 209  : 
; 210  : 			//  
; 211  : 			m_Grid.EnsureVisible(m_Grid.GetRowCount()-1, 0);

  00229	8b 87 cc 01 00
	00		 mov	 eax, DWORD PTR [edi+460]
  0022f	8b cb		 mov	 ecx, ebx
  00231	6a 00		 push	 0
  00233	48		 dec	 eax
  00234	50		 push	 eax
  00235	e8 00 00 00 00	 call	 ?EnsureVisible@CGridCtrl@@QAEXHH@Z ; CGridCtrl::EnsureVisible
; File C:\Program Files (x86)\Microsoft Visual Studio\2019\Community\VC\Tools\MSVC\14.29.30133\atlmfc\include\afx.h

; 819  : 		{ AfxTryCleanup(); };

  0023a	c7 45 fc 04 00
	00 00		 mov	 DWORD PTR __$EHRec$[ebp+12], 4
  00241	eb 1c		 jmp	 SHORT $LN51@InitGrid
__catch$?InitGrid@CDlgDataSimulator@@QAEXXZ$0:
; File D:\git\src\IBK\IBK_DRFN\ProjSrc\SrcChartEx\ChartAddIn\ChartDataListViewerAddIn\ChartDataListViewerAddIn\DlgDataSimulator.cpp

; 213  : 	    CATCH (CMemoryException, e)

  00243	8b 4d c8	 mov	 ecx, DWORD PTR _e$4[ebp]
  00246	89 4d bc	 mov	 DWORD PTR __afxExceptionLink$2[ebp+4], ecx

; 214  : 	    {
; 215  : 	    	e->ReportError();

  00249	6a 00		 push	 0
  0024b	6a 00		 push	 0
  0024d	8b 01		 mov	 eax, DWORD PTR [ecx]
  0024f	ff 50 1c	 call	 DWORD PTR [eax+28]

; 216  :     		return;

  00252	b8 00 00 00 00	 mov	 eax, $LN9@InitGrid
  00257	c3		 ret	 0
$LN9@InitGrid:
; File C:\Program Files (x86)\Microsoft Visual Studio\2019\Community\VC\Tools\MSVC\14.29.30133\atlmfc\include\afx.h

; 819  : 		{ AfxTryCleanup(); };

  00258	c7 45 fc 03 00
	00 00		 mov	 DWORD PTR __$EHRec$[ebp+12], 3
$LN51@InitGrid:
; File D:\git\src\IBK\IBK_DRFN\ProjSrc\SrcChartEx\ChartAddIn\ChartDataListViewerAddIn\ChartDataListViewerAddIn\DlgDataSimulator.cpp

; 225  : }

  0025f	e8 00 00 00 00	 call	 ?AfxTryCleanup@@YGXXZ	; AfxTryCleanup
  00264	8b 4d f4	 mov	 ecx, DWORD PTR __$EHRec$[ebp+4]
  00267	64 89 0d 00 00
	00 00		 mov	 DWORD PTR fs:0, ecx
  0026e	59		 pop	 ecx
  0026f	5f		 pop	 edi
  00270	5e		 pop	 esi
  00271	5b		 pop	 ebx
  00272	8b 4d ec	 mov	 ecx, DWORD PTR __$ArrayPad$[ebp]
  00275	33 cd		 xor	 ecx, ebp
  00277	e8 00 00 00 00	 call	 @__security_check_cookie@4
  0027c	8b e5		 mov	 esp, ebp
  0027e	5d		 pop	 ebp
  0027f	c3		 ret	 0
_TEXT	ENDS
;	COMDAT text$x
text$x	SEGMENT
__unwindfunclet$?InitGrid@CDlgDataSimulator@@QAEXXZ$2:
  00000	8d 4d b8	 lea	 ecx, DWORD PTR __afxExceptionLink$2[ebp]
  00003	e9 00 00 00 00	 jmp	 ??1AFX_EXCEPTION_LINK@@QAE@XZ ; AFX_EXCEPTION_LINK::~AFX_EXCEPTION_LINK
  00008	cc		 int	 3
  00009	cc		 int	 3
  0000a	cc		 int	 3
  0000b	cc		 int	 3
  0000c	cc		 int	 3
__ehhandler$?InitGrid@CDlgDataSimulator@@QAEXXZ:
  0000d	90		 npad	 1
  0000e	90		 npad	 1
  0000f	8b 54 24 08	 mov	 edx, DWORD PTR [esp+8]
  00013	8d 42 0c	 lea	 eax, DWORD PTR [edx+12]
  00016	8b 4a b4	 mov	 ecx, DWORD PTR [edx-76]
  00019	33 c8		 xor	 ecx, eax
  0001b	e8 00 00 00 00	 call	 @__security_check_cookie@4
  00020	8b 4a f8	 mov	 ecx, DWORD PTR [edx-8]
  00023	33 c8		 xor	 ecx, eax
  00025	e8 00 00 00 00	 call	 @__security_check_cookie@4
  0002a	b8 00 00 00 00	 mov	 eax, OFFSET __ehfuncinfo$?InitGrid@CDlgDataSimulator@@QAEXXZ
  0002f	e9 00 00 00 00	 jmp	 ___CxxFrameHandler3
text$x	ENDS
?InitGrid@CDlgDataSimulator@@QAEXXZ ENDP		; CDlgDataSimulator::InitGrid
; Function compile flags: /Ogtp
; File D:\git\src\IBK\IBK_DRFN\ProjSrc\SrcChartEx\ChartAddIn\ChartDataListViewerAddIn\ChartDataListViewerAddIn\DlgDataSimulator.cpp
; File C:\Program Files (x86)\Microsoft Visual Studio\2019\Community\VC\Tools\MSVC\14.29.30133\atlmfc\include\afxtempl.h
; File D:\git\src\IBK\IBK_DRFN\ProjSrc\SrcChartEx\ChartAddIn\ChartDataListViewerAddIn\ChartDataListViewerAddIn\DlgDataSimulator.cpp
;	COMDAT ??0CDlgDataSimulator@@QAE@W4CHART_MODE@CChartInfo@@PAVCWnd@@@Z
_TEXT	SEGMENT
_this$ = -16						; size = 4
__$EHRec$ = -12						; size = 12
_p_eChartMode$ = 8					; size = 4
_pParent$ = 12						; size = 4
??0CDlgDataSimulator@@QAE@W4CHART_MODE@CChartInfo@@PAVCWnd@@@Z PROC ; CDlgDataSimulator::CDlgDataSimulator, COMDAT
; _this$ = ecx

; 29   : {

  00000	55		 push	 ebp
  00001	8b ec		 mov	 ebp, esp
  00003	6a ff		 push	 -1
  00005	68 00 00 00 00	 push	 __ehhandler$??0CDlgDataSimulator@@QAE@W4CHART_MODE@CChartInfo@@PAVCWnd@@@Z
  0000a	64 a1 00 00 00
	00		 mov	 eax, DWORD PTR fs:0
  00010	50		 push	 eax
  00011	51		 push	 ecx
  00012	56		 push	 esi
  00013	57		 push	 edi
  00014	a1 00 00 00 00	 mov	 eax, DWORD PTR ___security_cookie
  00019	33 c5		 xor	 eax, ebp
  0001b	50		 push	 eax
  0001c	8d 45 f4	 lea	 eax, DWORD PTR __$EHRec$[ebp]
  0001f	64 a3 00 00 00
	00		 mov	 DWORD PTR fs:0, eax
  00025	8b f9		 mov	 edi, ecx
  00027	89 7d f0	 mov	 DWORD PTR _this$[ebp], edi

; 28   : 	: CDialog(CDlgDataSimulator::IDD, pParent)

  0002a	ff 75 0c	 push	 DWORD PTR _pParent$[ebp]
  0002d	68 c4 5d 00 00	 push	 24004			; 00005dc4H
  00032	e8 00 00 00 00	 call	 ??0CDialog@@QAE@IPAVCWnd@@@Z ; CDialog::CDialog

; 29   : {

  00037	8d 8f a8 00 00
	00		 lea	 ecx, DWORD PTR [edi+168]
  0003d	c7 45 fc 00 00
	00 00		 mov	 DWORD PTR __$EHRec$[ebp+8], 0
  00044	c7 07 00 00 00
	00		 mov	 DWORD PTR [edi], OFFSET ??_7CDlgDataSimulator@@6B@
  0004a	ff 15 00 00 00
	00		 call	 DWORD PTR __imp_??0?$CStringT@DV?$StrTraitMFC_DLL@DV?$ChTraitsCRT@D@ATL@@@@@ATL@@QAE@XZ
  00050	6a 00		 push	 0
  00052	6a 00		 push	 0
  00054	6a 00		 push	 0
  00056	6a 00		 push	 0
  00058	8d 8f b0 00 00
	00		 lea	 ecx, DWORD PTR [edi+176]
  0005e	c6 45 fc 01	 mov	 BYTE PTR __$EHRec$[ebp+8], 1
  00062	e8 00 00 00 00	 call	 ??0CGridCtrl@@QAE@HHHH@Z ; CGridCtrl::CGridCtrl
; File C:\Program Files (x86)\Microsoft Visual Studio\2019\Community\VC\Tools\MSVC\14.29.30133\atlmfc\include\afxtempl.h

; 851  : {

  00067	c7 87 3c 05 00
	00 00 00 00 00	 mov	 DWORD PTR [edi+1340], OFFSET ??_7?$CList@PAVCChartRecordSet@@PAV1@@@6B@

; 852  : 	ASSERT(nBlockSize > 0);
; 853  : 
; 854  : 	m_nCount = 0;

  00071	c7 87 48 05 00
	00 00 00 00 00	 mov	 DWORD PTR [edi+1352], 0

; 855  : 	m_pNodeHead = m_pNodeTail = m_pNodeFree = NULL;

  0007b	c7 87 4c 05 00
	00 00 00 00 00	 mov	 DWORD PTR [edi+1356], 0
  00085	c7 87 44 05 00
	00 00 00 00 00	 mov	 DWORD PTR [edi+1348], 0
  0008f	c7 87 40 05 00
	00 00 00 00 00	 mov	 DWORD PTR [edi+1344], 0

; 856  : 	m_pBlocks = NULL;

  00099	c7 87 50 05 00
	00 00 00 00 00	 mov	 DWORD PTR [edi+1360], 0

; 857  : 	m_nBlockSize = nBlockSize;

  000a3	c7 87 54 05 00
	00 0a 00 00 00	 mov	 DWORD PTR [edi+1364], 10 ; 0000000aH
; File D:\git\src\IBK\IBK_DRFN\ProjSrc\SrcChartEx\ChartAddIn\ChartDataListViewerAddIn\ChartDataListViewerAddIn\DlgDataSimulator.cpp

; 29   : {

  000ad	8d 8f 58 05 00
	00		 lea	 ecx, DWORD PTR [edi+1368]
  000b3	ff 15 00 00 00
	00		 call	 DWORD PTR __imp_??0?$CStringT@DV?$StrTraitMFC_DLL@DV?$ChTraitsCRT@D@ATL@@@@@ATL@@QAE@XZ
  000b9	8d 8f 60 05 00
	00		 lea	 ecx, DWORD PTR [edi+1376]
  000bf	ff 15 00 00 00
	00		 call	 DWORD PTR __imp_??0?$CStringT@DV?$StrTraitMFC_DLL@DV?$ChTraitsCRT@D@ATL@@@@@ATL@@QAE@XZ

; 30   : 	//{{AFX_DATA_INIT(CDlgDataSimulator)
; 31   : 	m_strTitle = _T("");

  000c5	68 00 00 00 00	 push	 OFFSET ??_C@_00CNPNBAHC@@
  000ca	8d 8f a8 00 00
	00		 lea	 ecx, DWORD PTR [edi+168]
  000d0	c6 45 fc 05	 mov	 BYTE PTR __$EHRec$[ebp+8], 5
  000d4	ff 15 00 00 00
	00		 call	 DWORD PTR __imp_??4?$CStringT@DV?$StrTraitMFC_DLL@DV?$ChTraitsCRT@D@ATL@@@@@ATL@@QAEAAV01@PBD@Z

; 32   : 	//}}AFX_DATA_INIT
; 33   : 	m_pChartDataGridManager = NULL;
; 34   : 	m_hOcxWnd				= NULL;
; 35   : 	m_pChartLastRecordSet	= NULL;
; 36   : 
; 37   : 	// (2009/9/14 - Seung-Won, Bae) for World-On
; 38   : 	m_eChartMode = p_eChartMode;

  000da	8b 45 08	 mov	 eax, DWORD PTR _p_eChartMode$[ebp]
  000dd	89 87 64 05 00
	00		 mov	 DWORD PTR [edi+1380], eax

; 39   : }

  000e3	8b c7		 mov	 eax, edi
  000e5	c7 87 38 05 00
	00 00 00 00 00	 mov	 DWORD PTR [edi+1336], 0
  000ef	c7 87 ac 00 00
	00 00 00 00 00	 mov	 DWORD PTR [edi+172], 0
  000f9	c7 87 5c 05 00
	00 00 00 00 00	 mov	 DWORD PTR [edi+1372], 0
  00103	8b 4d f4	 mov	 ecx, DWORD PTR __$EHRec$[ebp]
  00106	64 89 0d 00 00
	00 00		 mov	 DWORD PTR fs:0, ecx
  0010d	59		 pop	 ecx
  0010e	5f		 pop	 edi
  0010f	5e		 pop	 esi
  00110	8b e5		 mov	 esp, ebp
  00112	5d		 pop	 ebp
  00113	c2 08 00	 ret	 8
_TEXT	ENDS
;	COMDAT text$x
text$x	SEGMENT
__unwindfunclet$??0CDlgDataSimulator@@QAE@W4CHART_MODE@CChartInfo@@PAVCWnd@@@Z$0:
  00000	8b 4d f0	 mov	 ecx, DWORD PTR _this$[ebp]
  00003	e9 00 00 00 00	 jmp	 ??1CDialog@@UAE@XZ	; CDialog::~CDialog
__unwindfunclet$??0CDlgDataSimulator@@QAE@W4CHART_MODE@CChartInfo@@PAVCWnd@@@Z$1:
  00008	8b 4d f0	 mov	 ecx, DWORD PTR _this$[ebp]
  0000b	81 c1 a8 00 00
	00		 add	 ecx, 168		; 000000a8H
  00011	ff 25 00 00 00
	00		 jmp	 DWORD PTR __imp_??1?$CStringT@DV?$StrTraitMFC_DLL@DV?$ChTraitsCRT@D@ATL@@@@@ATL@@QAE@XZ
__unwindfunclet$??0CDlgDataSimulator@@QAE@W4CHART_MODE@CChartInfo@@PAVCWnd@@@Z$2:
  00017	8b 4d f0	 mov	 ecx, DWORD PTR _this$[ebp]
  0001a	81 c1 b0 00 00
	00		 add	 ecx, 176		; 000000b0H
  00020	e9 00 00 00 00	 jmp	 ??1CGridCtrl@@UAE@XZ	; CGridCtrl::~CGridCtrl
__unwindfunclet$??0CDlgDataSimulator@@QAE@W4CHART_MODE@CChartInfo@@PAVCWnd@@@Z$3:
  00025	8b 4d f0	 mov	 ecx, DWORD PTR _this$[ebp]
  00028	81 c1 3c 05 00
	00		 add	 ecx, 1340		; 0000053cH
  0002e	e9 00 00 00 00	 jmp	 ??1?$CList@PAVCChartRecordSet@@PAV1@@@UAE@XZ ; CList<CChartRecordSet *,CChartRecordSet *>::~CList<CChartRecordSet *,CChartRecordSet *>
__unwindfunclet$??0CDlgDataSimulator@@QAE@W4CHART_MODE@CChartInfo@@PAVCWnd@@@Z$4:
  00033	8b 4d f0	 mov	 ecx, DWORD PTR _this$[ebp]
  00036	81 c1 58 05 00
	00		 add	 ecx, 1368		; 00000558H
  0003c	ff 25 00 00 00
	00		 jmp	 DWORD PTR __imp_??1?$CStringT@DV?$StrTraitMFC_DLL@DV?$ChTraitsCRT@D@ATL@@@@@ATL@@QAE@XZ
__unwindfunclet$??0CDlgDataSimulator@@QAE@W4CHART_MODE@CChartInfo@@PAVCWnd@@@Z$5:
  00042	8b 4d f0	 mov	 ecx, DWORD PTR _this$[ebp]
  00045	81 c1 60 05 00
	00		 add	 ecx, 1376		; 00000560H
  0004b	ff 25 00 00 00
	00		 jmp	 DWORD PTR __imp_??1?$CStringT@DV?$StrTraitMFC_DLL@DV?$ChTraitsCRT@D@ATL@@@@@ATL@@QAE@XZ
  00051	cc		 int	 3
  00052	cc		 int	 3
  00053	cc		 int	 3
  00054	cc		 int	 3
  00055	cc		 int	 3
__ehhandler$??0CDlgDataSimulator@@QAE@W4CHART_MODE@CChartInfo@@PAVCWnd@@@Z:
  00056	90		 npad	 1
  00057	90		 npad	 1
  00058	8b 54 24 08	 mov	 edx, DWORD PTR [esp+8]
  0005c	8d 42 0c	 lea	 eax, DWORD PTR [edx+12]
  0005f	8b 4a f0	 mov	 ecx, DWORD PTR [edx-16]
  00062	33 c8		 xor	 ecx, eax
  00064	e8 00 00 00 00	 call	 @__security_check_cookie@4
  00069	b8 00 00 00 00	 mov	 eax, OFFSET __ehfuncinfo$??0CDlgDataSimulator@@QAE@W4CHART_MODE@CChartInfo@@PAVCWnd@@@Z
  0006e	e9 00 00 00 00	 jmp	 ___CxxFrameHandler3
text$x	ENDS
??0CDlgDataSimulator@@QAE@W4CHART_MODE@CChartInfo@@PAVCWnd@@@Z ENDP ; CDlgDataSimulator::CDlgDataSimulator
; Function compile flags: /Ogtp
; File C:\Program Files (x86)\Microsoft Visual Studio\2019\Community\VC\Tools\MSVC\14.29.30133\atlmfc\include\afxtempl.h
; File C:\Program Files (x86)\Microsoft Visual Studio\2019\Community\VC\Tools\MSVC\14.29.30133\atlmfc\include\afx.inl
;	COMDAT ??_G?$CList@PAVCChartRecordSet@@PAV1@@@UAEPAXI@Z
_TEXT	SEGMENT
__$EHRec$ = -12						; size = 12
___flags$ = 8						; size = 4
??_G?$CList@PAVCChartRecordSet@@PAV1@@@UAEPAXI@Z PROC	; CList<CChartRecordSet *,CChartRecordSet *>::`scalar deleting destructor', COMDAT
; _this$ = ecx
  00000	55		 push	 ebp
  00001	8b ec		 mov	 ebp, esp
  00003	6a ff		 push	 -1
  00005	68 00 00 00 00	 push	 __ehhandler$??_G?$CList@PAVCChartRecordSet@@PAV1@@@UAEPAXI@Z
  0000a	64 a1 00 00 00
	00		 mov	 eax, DWORD PTR fs:0
  00010	50		 push	 eax
  00011	56		 push	 esi
  00012	a1 00 00 00 00	 mov	 eax, DWORD PTR ___security_cookie
  00017	33 c5		 xor	 eax, ebp
  00019	50		 push	 eax
  0001a	8d 45 f4	 lea	 eax, DWORD PTR __$EHRec$[ebp]
  0001d	64 a3 00 00 00
	00		 mov	 DWORD PTR fs:0, eax
  00023	8b f1		 mov	 esi, ecx
; File C:\Program Files (x86)\Microsoft Visual Studio\2019\Community\VC\Tools\MSVC\14.29.30133\atlmfc\include\afxtempl.h

; 872  : 	m_pBlocks->FreeDataChain();

  00025	8b 4e 14	 mov	 ecx, DWORD PTR [esi+20]

; 878  : {

  00028	c7 45 fc 00 00
	00 00		 mov	 DWORD PTR __$EHRec$[ebp+8], 0
  0002f	c7 06 00 00 00
	00		 mov	 DWORD PTR [esi], OFFSET ??_7?$CList@PAVCChartRecordSet@@PAV1@@@6B@

; 870  : 	m_nCount = 0;

  00035	c7 46 0c 00 00
	00 00		 mov	 DWORD PTR [esi+12], 0

; 871  : 	m_pNodeHead = m_pNodeTail = m_pNodeFree = NULL;

  0003c	c7 46 10 00 00
	00 00		 mov	 DWORD PTR [esi+16], 0
  00043	c7 46 08 00 00
	00 00		 mov	 DWORD PTR [esi+8], 0
  0004a	c7 46 04 00 00
	00 00		 mov	 DWORD PTR [esi+4], 0

; 872  : 	m_pBlocks->FreeDataChain();

  00051	e8 00 00 00 00	 call	 ?FreeDataChain@CPlex@@QAEXXZ ; CPlex::FreeDataChain

; 873  : 	m_pBlocks = NULL;

  00056	8b 45 08	 mov	 eax, DWORD PTR ___flags$[ebp]
  00059	c7 46 14 00 00
	00 00		 mov	 DWORD PTR [esi+20], 0
  00060	a8 01		 test	 al, 1
  00062	74 2c		 je	 SHORT $LN22@scalar
  00064	a8 04		 test	 al, 4
  00066	75 1d		 jne	 SHORT $LN3@scalar
; File C:\Program Files (x86)\Microsoft Visual Studio\2019\Community\VC\Tools\MSVC\14.29.30133\atlmfc\include\afx.inl

; 112  : 	{ ::operator delete(p); }

  00068	56		 push	 esi
  00069	e8 00 00 00 00	 call	 ??3@YAXPAX@Z		; operator delete
  0006e	83 c4 04	 add	 esp, 4
  00071	8b c6		 mov	 eax, esi
  00073	8b 4d f4	 mov	 ecx, DWORD PTR __$EHRec$[ebp]
  00076	64 89 0d 00 00
	00 00		 mov	 DWORD PTR fs:0, ecx
  0007d	59		 pop	 ecx
  0007e	5e		 pop	 esi
  0007f	8b e5		 mov	 esp, ebp
  00081	5d		 pop	 ebp
  00082	c2 04 00	 ret	 4
$LN3@scalar:
  00085	6a 1c		 push	 28			; 0000001cH
  00087	56		 push	 esi
  00088	e8 00 00 00 00	 call	 ?__global_delete@@YAXPAXI@Z ; __global_delete
  0008d	83 c4 08	 add	 esp, 8
$LN22@scalar:
  00090	8b c6		 mov	 eax, esi
  00092	8b 4d f4	 mov	 ecx, DWORD PTR __$EHRec$[ebp]
  00095	64 89 0d 00 00
	00 00		 mov	 DWORD PTR fs:0, ecx
  0009c	59		 pop	 ecx
  0009d	5e		 pop	 esi
  0009e	8b e5		 mov	 esp, ebp
  000a0	5d		 pop	 ebp
  000a1	c2 04 00	 ret	 4
  000a4	cc		 int	 3
  000a5	cc		 int	 3
  000a6	cc		 int	 3
  000a7	cc		 int	 3
  000a8	cc		 int	 3
_TEXT	ENDS
;	COMDAT text$x
text$x	SEGMENT
__ehhandler$??_G?$CList@PAVCChartRecordSet@@PAV1@@@UAEPAXI@Z:
  00000	90		 npad	 1
  00001	90		 npad	 1
  00002	8b 54 24 08	 mov	 edx, DWORD PTR [esp+8]
  00006	8d 42 0c	 lea	 eax, DWORD PTR [edx+12]
  00009	8b 4a f8	 mov	 ecx, DWORD PTR [edx-8]
  0000c	33 c8		 xor	 ecx, eax
  0000e	e8 00 00 00 00	 call	 @__security_check_cookie@4
  00013	b8 00 00 00 00	 mov	 eax, OFFSET __ehfuncinfo$??_G?$CList@PAVCChartRecordSet@@PAV1@@@UAEPAXI@Z
  00018	e9 00 00 00 00	 jmp	 ___CxxFrameHandler3
text$x	ENDS
??_G?$CList@PAVCChartRecordSet@@PAV1@@@UAEPAXI@Z ENDP	; CList<CChartRecordSet *,CChartRecordSet *>::`scalar deleting destructor'
; Function compile flags: /Ogtp
; File C:\Program Files (x86)\Microsoft Visual Studio\2019\Community\VC\Tools\MSVC\14.29.30133\atlmfc\include\afxtempl.h
; File C:\Program Files (x86)\Microsoft Visual Studio\2019\Community\VC\Tools\MSVC\14.29.30133\atlmfc\include\afx.inl
; File C:\Program Files (x86)\Microsoft Visual Studio\2019\Community\VC\Tools\MSVC\14.29.30133\atlmfc\include\afxtempl.h
; File C:\Program Files (x86)\Microsoft Visual Studio\2019\Community\VC\Tools\MSVC\14.29.30133\atlmfc\include\afx.inl
; File C:\Program Files (x86)\Microsoft Visual Studio\2019\Community\VC\Tools\MSVC\14.29.30133\atlmfc\include\afxtempl.h
; File C:\Program Files (x86)\Microsoft Visual Studio\2019\Community\VC\Tools\MSVC\14.29.30133\atlmfc\include\afx.inl
; File C:\Program Files (x86)\Microsoft Visual Studio\2019\Community\VC\Tools\MSVC\14.29.30133\atlmfc\include\afxtempl.h
; File C:\Program Files (x86)\Microsoft Visual Studio\2019\Community\VC\Tools\MSVC\14.29.30133\atlmfc\include\afx.inl
; File C:\Program Files (x86)\Microsoft Visual Studio\2019\Community\VC\Tools\MSVC\14.29.30133\atlmfc\include\afxtempl.h
; File C:\Program Files (x86)\Microsoft Visual Studio\2019\Community\VC\Tools\MSVC\14.29.30133\atlmfc\include\afx.inl
; File C:\Program Files (x86)\Microsoft Visual Studio\2019\Community\VC\Tools\MSVC\14.29.30133\atlmfc\include\afxtempl.h
; File C:\Program Files (x86)\Microsoft Visual Studio\2019\Community\VC\Tools\MSVC\14.29.30133\atlmfc\include\afx.inl
; File C:\Program Files (x86)\Microsoft Visual Studio\2019\Community\VC\Tools\MSVC\14.29.30133\atlmfc\include\afxtempl.h
;	COMDAT ?Serialize@?$CList@PAVCChartRecordSet@@PAV1@@@UAEXAAVCArchive@@@Z
_TEXT	SEGMENT
_nNewCount$1$ = -16					; size = 4
_newData$1 = -12					; size = 4
_pData$1$ = -8						; size = 4
_pNode$1$ = -8						; size = 4
_nElementsLeft$1$ = -4					; size = 4
_this$1$ = -4						; size = 4
_ar$ = 8						; size = 4
?Serialize@?$CList@PAVCChartRecordSet@@PAV1@@@UAEXAAVCArchive@@@Z PROC ; CList<CChartRecordSet *,CChartRecordSet *>::Serialize, COMDAT
; _this$ = ecx

; 1169 : {

  00000	55		 push	 ebp
  00001	8b ec		 mov	 ebp, esp
  00003	83 ec 10	 sub	 esp, 16			; 00000010H
  00006	53		 push	 ebx
  00007	8b d9		 mov	 ebx, ecx
; File C:\Program Files (x86)\Microsoft Visual Studio\2019\Community\VC\Tools\MSVC\14.29.30133\atlmfc\include\afx.inl

; 212  : 	{ return (m_nMode & CArchive::load) == 0; }

  00009	8b 4d 08	 mov	 ecx, DWORD PTR _ar$[ebp]
; File C:\Program Files (x86)\Microsoft Visual Studio\2019\Community\VC\Tools\MSVC\14.29.30133\atlmfc\include\afxtempl.h

; 1169 : {

  0000c	56		 push	 esi
  0000d	57		 push	 edi
  0000e	89 5d fc	 mov	 DWORD PTR _this$1$[ebp], ebx
; File C:\Program Files (x86)\Microsoft Visual Studio\2019\Community\VC\Tools\MSVC\14.29.30133\atlmfc\include\afx.inl

; 212  : 	{ return (m_nMode & CArchive::load) == 0; }

  00011	8b 41 18	 mov	 eax, DWORD PTR [ecx+24]
  00014	f7 d0		 not	 eax
  00016	a8 01		 test	 al, 1
; File C:\Program Files (x86)\Microsoft Visual Studio\2019\Community\VC\Tools\MSVC\14.29.30133\atlmfc\include\afxtempl.h

; 1174 : 	if (ar.IsStoring())

  00018	0f 84 ae 00 00
	00		 je	 $LN7@Serialize

; 1175 : 	{
; 1176 : 		ar.WriteCount(m_nCount);

  0001e	ff 73 0c	 push	 DWORD PTR [ebx+12]
  00021	e8 00 00 00 00	 call	 ?WriteCount@CArchive@@QAEXK@Z ; CArchive::WriteCount

; 1177 : 		for (CNode* pNode = m_pNodeHead; pNode != NULL; pNode = pNode->pNext)

  00026	8b 43 04	 mov	 eax, DWORD PTR [ebx+4]
  00029	89 45 f8	 mov	 DWORD PTR _pNode$1$[ebp], eax
  0002c	85 c0		 test	 eax, eax
  0002e	0f 84 43 01 00
	00		 je	 $LN68@Serialize
$LL4@Serialize:

; 1178 : 		{
; 1179 : 			ASSERT(AfxIsValidAddress(pNode, sizeof(CNode)));
; 1180 : 			TYPE* pData;
; 1181 : 			/*
; 1182 : 			 * in some cases the & operator might be overloaded, and we cannot use it to obtain
; 1183 : 			 * the address of a given object.  We then use the following trick to get the address
; 1184 : 			 */
; 1185 : 			pData = reinterpret_cast< TYPE* >( &reinterpret_cast< int& >( static_cast< TYPE& >( pNode->data ) ) );

  00034	8d 70 08	 lea	 esi, DWORD PTR [eax+8]

; 68   : 	ENSURE(nCount == 0 || pElements != NULL);

  00037	85 f6		 test	 esi, esi
  00039	0f 84 4a 01 00
	00		 je	 $LN60@Serialize
; File C:\Program Files (x86)\Microsoft Visual Studio\2019\Community\VC\Tools\MSVC\14.29.30133\atlmfc\include\afx.inl

; 212  : 	{ return (m_nMode & CArchive::load) == 0; }

  0003f	8b 4d 08	 mov	 ecx, DWORD PTR _ar$[ebp]
  00042	8b 41 18	 mov	 eax, DWORD PTR [ecx+24]
  00045	f7 d0		 not	 eax
  00047	a8 01		 test	 al, 1
; File C:\Program Files (x86)\Microsoft Visual Studio\2019\Community\VC\Tools\MSVC\14.29.30133\atlmfc\include\afxtempl.h

; 73   : 	if (ar.IsStoring())

  00049	74 33		 je	 SHORT $LN21@Serialize

; 74   : 	{
; 75   : 		TYPE* pData;
; 76   : 		UINT_PTR nElementsLeft;
; 77   : 
; 78   : 		nElementsLeft = nCount;

  0004b	b8 01 00 00 00	 mov	 eax, 1
  00050	89 45 fc	 mov	 DWORD PTR _nElementsLeft$1$[ebp], eax
$LL16@Serialize:

; 80   : 		while( nElementsLeft > 0 )
; 81   : 		{
; 82   : 			UINT nElementsToWrite;
; 83   : 
; 84   : 			nElementsToWrite = UINT(__min(nElementsLeft, INT_MAX/sizeof(TYPE)));

  00053	bb ff ff ff 1f	 mov	 ebx, 536870911		; 1fffffffH
  00058	3b c3		 cmp	 eax, ebx
  0005a	0f 42 d8	 cmovb	 ebx, eax

; 85   : 			ar.Write(pData, nElementsToWrite*sizeof(TYPE));

  0005d	8d 3c 9d 00 00
	00 00		 lea	 edi, DWORD PTR [ebx*4]
  00064	57		 push	 edi
  00065	56		 push	 esi
  00066	e8 00 00 00 00	 call	 ?Write@CArchive@@QAEXPBXI@Z ; CArchive::Write

; 86   : 			nElementsLeft -= nElementsToWrite;

  0006b	8b 45 fc	 mov	 eax, DWORD PTR _nElementsLeft$1$[ebp]

; 87   : 			pData += nElementsToWrite;

  0006e	03 f7		 add	 esi, edi
  00070	8b 4d 08	 mov	 ecx, DWORD PTR _ar$[ebp]
  00073	2b c3		 sub	 eax, ebx
  00075	89 45 fc	 mov	 DWORD PTR _nElementsLeft$1$[ebp], eax
  00078	85 c0		 test	 eax, eax
  0007a	75 d7		 jne	 SHORT $LL16@Serialize

; 88   : 		}
; 89   : 	}

  0007c	eb 35		 jmp	 SHORT $LN2@Serialize
$LN21@Serialize:

; 90   : 	else
; 91   : 	{
; 92   : 		TYPE* pData;
; 93   : 		UINT_PTR nElementsLeft;
; 94   : 
; 95   : 		nElementsLeft = nCount;

  0007e	bf 01 00 00 00	 mov	 edi, 1
$LL18@Serialize:

; 98   : 		{
; 99   : 			UINT nElementsToRead;
; 100  : 
; 101  : 			nElementsToRead = UINT(__min(nElementsLeft, INT_MAX/sizeof(TYPE)));

  00083	bb ff ff ff 1f	 mov	 ebx, 536870911		; 1fffffffH
  00088	3b fb		 cmp	 edi, ebx
  0008a	0f 42 df	 cmovb	 ebx, edi

; 102  : 			ar.EnsureRead(pData, nElementsToRead*sizeof(TYPE));

  0008d	8d 04 9d 00 00
	00 00		 lea	 eax, DWORD PTR [ebx*4]
; File C:\Program Files (x86)\Microsoft Visual Studio\2019\Community\VC\Tools\MSVC\14.29.30133\atlmfc\include\afx.inl

; 399  : 	UINT nRead=Read(lpBuf, nCount);

  00094	50		 push	 eax
  00095	56		 push	 esi
  00096	e8 00 00 00 00	 call	 ?Read@CArchive@@QAEIPAXI@Z ; CArchive::Read

; 400  : 	if(nRead!=nCount)

  0009b	8d 0c 9d 00 00
	00 00		 lea	 ecx, DWORD PTR [ebx*4]
  000a2	3b c1		 cmp	 eax, ecx
  000a4	0f 85 d6 00 00
	00		 jne	 $LN59@Serialize
; File C:\Program Files (x86)\Microsoft Visual Studio\2019\Community\VC\Tools\MSVC\14.29.30133\atlmfc\include\afxtempl.h

; 97   : 		while( nElementsLeft > 0 )

  000aa	03 f1		 add	 esi, ecx
  000ac	8b 4d 08	 mov	 ecx, DWORD PTR _ar$[ebp]

; 103  : 			nElementsLeft -= nElementsToRead;

  000af	2b fb		 sub	 edi, ebx
  000b1	75 d0		 jne	 SHORT $LL18@Serialize
$LN2@Serialize:

; 1177 : 		for (CNode* pNode = m_pNodeHead; pNode != NULL; pNode = pNode->pNext)

  000b3	8b 45 f8	 mov	 eax, DWORD PTR _pNode$1$[ebp]
  000b6	8b 00		 mov	 eax, DWORD PTR [eax]
  000b8	89 45 f8	 mov	 DWORD PTR _pNode$1$[ebp], eax
  000bb	85 c0		 test	 eax, eax
  000bd	0f 85 71 ff ff
	ff		 jne	 $LL4@Serialize

; 1197 : 		}
; 1198 : 	}
; 1199 : }

  000c3	5f		 pop	 edi
  000c4	5e		 pop	 esi
  000c5	5b		 pop	 ebx
  000c6	8b e5		 mov	 esp, ebp
  000c8	5d		 pop	 ebp
  000c9	c2 04 00	 ret	 4
$LN7@Serialize:

; 1186 : 			SerializeElements<TYPE>(ar, pData, 1);
; 1187 : 		}
; 1188 : 	}
; 1189 : 	else
; 1190 : 	{
; 1191 : 		DWORD_PTR nNewCount = ar.ReadCount();

  000cc	e8 00 00 00 00	 call	 ?ReadCount@CArchive@@QAEKXZ ; CArchive::ReadCount

; 1192 : 		while (nNewCount--)

  000d1	85 c0		 test	 eax, eax
  000d3	0f 84 9e 00 00
	00		 je	 $LN68@Serialize
  000d9	0f 1f 80 00 00
	00 00		 npad	 7
$LL5@Serialize:
  000e0	48		 dec	 eax
  000e1	89 45 f0	 mov	 DWORD PTR _nNewCount$1$[ebp], eax
; File C:\Program Files (x86)\Microsoft Visual Studio\2019\Community\VC\Tools\MSVC\14.29.30133\atlmfc\include\afx.inl

; 212  : 	{ return (m_nMode & CArchive::load) == 0; }

  000e4	8b 45 08	 mov	 eax, DWORD PTR _ar$[ebp]
  000e7	8b 48 18	 mov	 ecx, DWORD PTR [eax+24]
  000ea	f7 d1		 not	 ecx
  000ec	f6 c1 01	 test	 cl, 1
; File C:\Program Files (x86)\Microsoft Visual Studio\2019\Community\VC\Tools\MSVC\14.29.30133\atlmfc\include\afxtempl.h

; 73   : 	if (ar.IsStoring())

  000ef	74 3a		 je	 SHORT $LN42@Serialize

; 79   : 		pData = pElements;

  000f1	8d 4d f4	 lea	 ecx, DWORD PTR _newData$1[ebp]
  000f4	bb 01 00 00 00	 mov	 ebx, 1
  000f9	89 4d f8	 mov	 DWORD PTR _pData$1$[ebp], ecx
  000fc	0f 1f 40 00	 npad	 4
$LL37@Serialize:

; 80   : 		while( nElementsLeft > 0 )
; 81   : 		{
; 82   : 			UINT nElementsToWrite;
; 83   : 
; 84   : 			nElementsToWrite = UINT(__min(nElementsLeft, INT_MAX/sizeof(TYPE)));

  00100	bf ff ff ff 1f	 mov	 edi, 536870911		; 1fffffffH
  00105	3b df		 cmp	 ebx, edi
  00107	0f 42 fb	 cmovb	 edi, ebx

; 85   : 			ar.Write(pData, nElementsToWrite*sizeof(TYPE));

  0010a	8d 34 bd 00 00
	00 00		 lea	 esi, DWORD PTR [edi*4]
  00111	56		 push	 esi
  00112	51		 push	 ecx
  00113	8b c8		 mov	 ecx, eax
  00115	e8 00 00 00 00	 call	 ?Write@CArchive@@QAEXPBXI@Z ; CArchive::Write

; 87   : 			pData += nElementsToWrite;

  0011a	8b 4d f8	 mov	 ecx, DWORD PTR _pData$1$[ebp]
  0011d	8b 45 08	 mov	 eax, DWORD PTR _ar$[ebp]
  00120	03 ce		 add	 ecx, esi
  00122	89 4d f8	 mov	 DWORD PTR _pData$1$[ebp], ecx
  00125	2b df		 sub	 ebx, edi
  00127	75 d7		 jne	 SHORT $LL37@Serialize

; 88   : 		}
; 89   : 	}

  00129	eb 36		 jmp	 SHORT $LN40@Serialize
$LN42@Serialize:

; 90   : 	else
; 91   : 	{
; 92   : 		TYPE* pData;
; 93   : 		UINT_PTR nElementsLeft;
; 94   : 
; 95   : 		nElementsLeft = nCount;

  0012b	be 01 00 00 00	 mov	 esi, 1

; 96   : 		pData = pElements;

  00130	8d 5d f4	 lea	 ebx, DWORD PTR _newData$1[ebp]
$LL39@Serialize:

; 98   : 		{
; 99   : 			UINT nElementsToRead;
; 100  : 
; 101  : 			nElementsToRead = UINT(__min(nElementsLeft, INT_MAX/sizeof(TYPE)));

  00133	bf ff ff ff 1f	 mov	 edi, 536870911		; 1fffffffH
  00138	3b f7		 cmp	 esi, edi
  0013a	0f 42 fe	 cmovb	 edi, esi

; 102  : 			ar.EnsureRead(pData, nElementsToRead*sizeof(TYPE));

  0013d	8d 0c bd 00 00
	00 00		 lea	 ecx, DWORD PTR [edi*4]
; File C:\Program Files (x86)\Microsoft Visual Studio\2019\Community\VC\Tools\MSVC\14.29.30133\atlmfc\include\afx.inl

; 399  : 	UINT nRead=Read(lpBuf, nCount);

  00144	51		 push	 ecx
  00145	53		 push	 ebx
  00146	8b c8		 mov	 ecx, eax
  00148	e8 00 00 00 00	 call	 ?Read@CArchive@@QAEIPAXI@Z ; CArchive::Read

; 400  : 	if(nRead!=nCount)

  0014d	8d 0c bd 00 00
	00 00		 lea	 ecx, DWORD PTR [edi*4]
  00154	3b c1		 cmp	 eax, ecx
  00156	75 28		 jne	 SHORT $LN59@Serialize
; File C:\Program Files (x86)\Microsoft Visual Studio\2019\Community\VC\Tools\MSVC\14.29.30133\atlmfc\include\afxtempl.h

; 104  : 			pData += nElementsToRead;

  00158	8b 45 08	 mov	 eax, DWORD PTR _ar$[ebp]
  0015b	03 d9		 add	 ebx, ecx
  0015d	2b f7		 sub	 esi, edi
  0015f	75 d2		 jne	 SHORT $LL39@Serialize
$LN40@Serialize:

; 1193 : 		{
; 1194 : 			TYPE newData[1];
; 1195 : 			SerializeElements<TYPE>(ar, newData, 1);
; 1196 : 			AddTail(newData[0]);

  00161	ff 75 f4	 push	 DWORD PTR _newData$1[ebp]
  00164	8b 4d fc	 mov	 ecx, DWORD PTR _this$1$[ebp]
  00167	e8 00 00 00 00	 call	 ?AddTail@?$CList@PAVCChartRecordSet@@PAV1@@@QAEPAU__POSITION@@PAVCChartRecordSet@@@Z ; CList<CChartRecordSet *,CChartRecordSet *>::AddTail
  0016c	8b 45 f0	 mov	 eax, DWORD PTR _nNewCount$1$[ebp]
  0016f	85 c0		 test	 eax, eax
  00171	0f 85 69 ff ff
	ff		 jne	 $LL5@Serialize
$LN68@Serialize:
  00177	5f		 pop	 edi

; 1197 : 		}
; 1198 : 	}
; 1199 : }

  00178	5e		 pop	 esi
  00179	5b		 pop	 ebx
  0017a	8b e5		 mov	 esp, ebp
  0017c	5d		 pop	 ebp
  0017d	c2 04 00	 ret	 4
$LN59@Serialize:
  00180	6a 00		 push	 0
  00182	6a 03		 push	 3
  00184	e8 00 00 00 00	 call	 ?AfxThrowArchiveException@@YGXHPBD@Z ; AfxThrowArchiveException
$LN60@Serialize:

; 68   : 	ENSURE(nCount == 0 || pElements != NULL);

  00189	e8 00 00 00 00	 call	 ?AfxThrowInvalidArgException@@YGXXZ ; AfxThrowInvalidArgException
$LN85@Serialize:
  0018e	cc		 int	 3
?Serialize@?$CList@PAVCChartRecordSet@@PAV1@@@UAEXAAVCArchive@@@Z ENDP ; CList<CChartRecordSet *,CChartRecordSet *>::Serialize
_TEXT	ENDS
; Function compile flags: /Ogtp
; File C:\Program Files (x86)\Microsoft Visual Studio\2019\Community\VC\Tools\MSVC\14.29.30133\atlmfc\include\afxtempl.h
;	COMDAT ??1?$CList@PAVCChartRecordSet@@PAV1@@@UAE@XZ
_TEXT	SEGMENT
__$EHRec$ = -12						; size = 12
??1?$CList@PAVCChartRecordSet@@PAV1@@@UAE@XZ PROC	; CList<CChartRecordSet *,CChartRecordSet *>::~CList<CChartRecordSet *,CChartRecordSet *>, COMDAT
; _this$ = ecx

; 878  : {

  00000	55		 push	 ebp
  00001	8b ec		 mov	 ebp, esp
  00003	6a ff		 push	 -1
  00005	68 00 00 00 00	 push	 __ehhandler$??1?$CList@PAVCChartRecordSet@@PAV1@@@UAE@XZ
  0000a	64 a1 00 00 00
	00		 mov	 eax, DWORD PTR fs:0
  00010	50		 push	 eax
  00011	56		 push	 esi
  00012	a1 00 00 00 00	 mov	 eax, DWORD PTR ___security_cookie
  00017	33 c5		 xor	 eax, ebp
  00019	50		 push	 eax
  0001a	8d 45 f4	 lea	 eax, DWORD PTR __$EHRec$[ebp]
  0001d	64 a3 00 00 00
	00		 mov	 DWORD PTR fs:0, eax
  00023	8b f1		 mov	 esi, ecx

; 872  : 	m_pBlocks->FreeDataChain();

  00025	8b 4e 14	 mov	 ecx, DWORD PTR [esi+20]

; 878  : {

  00028	c7 06 00 00 00
	00		 mov	 DWORD PTR [esi], OFFSET ??_7?$CList@PAVCChartRecordSet@@PAV1@@@6B@

; 870  : 	m_nCount = 0;

  0002e	c7 46 0c 00 00
	00 00		 mov	 DWORD PTR [esi+12], 0

; 871  : 	m_pNodeHead = m_pNodeTail = m_pNodeFree = NULL;

  00035	c7 46 10 00 00
	00 00		 mov	 DWORD PTR [esi+16], 0
  0003c	c7 46 08 00 00
	00 00		 mov	 DWORD PTR [esi+8], 0
  00043	c7 46 04 00 00
	00 00		 mov	 DWORD PTR [esi+4], 0

; 872  : 	m_pBlocks->FreeDataChain();

  0004a	e8 00 00 00 00	 call	 ?FreeDataChain@CPlex@@QAEXXZ ; CPlex::FreeDataChain

; 873  : 	m_pBlocks = NULL;

  0004f	c7 46 14 00 00
	00 00		 mov	 DWORD PTR [esi+20], 0

; 879  : 	RemoveAll();
; 880  : 	ASSERT(m_nCount == 0);
; 881  : }

  00056	8b 4d f4	 mov	 ecx, DWORD PTR __$EHRec$[ebp]
  00059	64 89 0d 00 00
	00 00		 mov	 DWORD PTR fs:0, ecx
  00060	59		 pop	 ecx
  00061	5e		 pop	 esi
  00062	8b e5		 mov	 esp, ebp
  00064	5d		 pop	 ebp
  00065	c3		 ret	 0
  00066	cc		 int	 3
  00067	cc		 int	 3
  00068	cc		 int	 3
  00069	cc		 int	 3
  0006a	cc		 int	 3
_TEXT	ENDS
;	COMDAT text$x
text$x	SEGMENT
__ehhandler$??1?$CList@PAVCChartRecordSet@@PAV1@@@UAE@XZ:
  00000	90		 npad	 1
  00001	90		 npad	 1
  00002	8b 54 24 08	 mov	 edx, DWORD PTR [esp+8]
  00006	8d 42 0c	 lea	 eax, DWORD PTR [edx+12]
  00009	8b 4a f8	 mov	 ecx, DWORD PTR [edx-8]
  0000c	33 c8		 xor	 ecx, eax
  0000e	e8 00 00 00 00	 call	 @__security_check_cookie@4
  00013	b8 00 00 00 00	 mov	 eax, OFFSET __ehfuncinfo$??1?$CList@PAVCChartRecordSet@@PAV1@@@UAE@XZ
  00018	e9 00 00 00 00	 jmp	 ___CxxFrameHandler3
text$x	ENDS
??1?$CList@PAVCChartRecordSet@@PAV1@@@UAE@XZ ENDP	; CList<CChartRecordSet *,CChartRecordSet *>::~CList<CChartRecordSet *,CChartRecordSet *>
; Function compile flags: /Ogtp
; File C:\Program Files (x86)\Microsoft Visual Studio\2019\Community\VC\Tools\MSVC\14.29.30133\atlmfc\include\afxtempl.h
;	COMDAT ?FreeNode@?$CList@PAVCChartRecordSet@@PAV1@@@IAEXPAUCNode@1@@Z
_TEXT	SEGMENT
_pNode$ = 8						; size = 4
?FreeNode@?$CList@PAVCChartRecordSet@@PAV1@@@IAEXPAUCNode@1@@Z PROC ; CList<CChartRecordSet *,CChartRecordSet *>::FreeNode, COMDAT
; _this$ = ecx

; 936  : {

  00000	55		 push	 ebp
  00001	8b ec		 mov	 ebp, esp

; 937  : 	pNode->data.~TYPE();
; 938  : 	pNode->pNext = m_pNodeFree;

  00003	8b 55 08	 mov	 edx, DWORD PTR _pNode$[ebp]
  00006	56		 push	 esi
  00007	8b f1		 mov	 esi, ecx
  00009	8b 46 10	 mov	 eax, DWORD PTR [esi+16]
  0000c	89 02		 mov	 DWORD PTR [edx], eax

; 939  : 	m_pNodeFree = pNode;
; 940  : 	m_nCount--;

  0000e	83 46 0c ff	 add	 DWORD PTR [esi+12], -1
  00012	89 56 10	 mov	 DWORD PTR [esi+16], edx

; 941  : 	ASSERT(m_nCount >= 0);  // make sure we don't underflow
; 942  : 
; 943  : 	// if no more elements, cleanup completely
; 944  : 	if (m_nCount == 0)

  00015	75 2b		 jne	 SHORT $LN2@FreeNode

; 872  : 	m_pBlocks->FreeDataChain();

  00017	8b 4e 14	 mov	 ecx, DWORD PTR [esi+20]
  0001a	c7 46 0c 00 00
	00 00		 mov	 DWORD PTR [esi+12], 0
  00021	c7 46 10 00 00
	00 00		 mov	 DWORD PTR [esi+16], 0
  00028	c7 46 08 00 00
	00 00		 mov	 DWORD PTR [esi+8], 0
  0002f	c7 46 04 00 00
	00 00		 mov	 DWORD PTR [esi+4], 0
  00036	e8 00 00 00 00	 call	 ?FreeDataChain@CPlex@@QAEXXZ ; CPlex::FreeDataChain

; 873  : 	m_pBlocks = NULL;

  0003b	c7 46 14 00 00
	00 00		 mov	 DWORD PTR [esi+20], 0
$LN2@FreeNode:
  00042	5e		 pop	 esi

; 945  : 		RemoveAll();
; 946  : }

  00043	5d		 pop	 ebp
  00044	c2 04 00	 ret	 4
?FreeNode@?$CList@PAVCChartRecordSet@@PAV1@@@IAEXPAUCNode@1@@Z ENDP ; CList<CChartRecordSet *,CChartRecordSet *>::FreeNode
_TEXT	ENDS
; Function compile flags: /Ogtp
; File C:\Program Files (x86)\Microsoft Visual Studio\2019\Community\VC\Tools\MSVC\14.29.30133\atlmfc\include\afxtempl.h
;	COMDAT ?NewNode@?$CList@PAVCChartRecordSet@@PAV1@@@IAEPAUCNode@1@PAU21@0@Z
_TEXT	SEGMENT
_pPrev$ = 8						; size = 4
_pNext$ = 12						; size = 4
?NewNode@?$CList@PAVCChartRecordSet@@PAV1@@@IAEPAUCNode@1@PAU21@0@Z PROC ; CList<CChartRecordSet *,CChartRecordSet *>::NewNode, COMDAT
; _this$ = ecx

; 901  : {

  00000	55		 push	 ebp
  00001	8b ec		 mov	 ebp, esp
  00003	56		 push	 esi
  00004	8b f1		 mov	 esi, ecx

; 902  : 	if (m_pNodeFree == NULL)

  00006	83 7e 10 00	 cmp	 DWORD PTR [esi+16], 0
  0000a	75 34		 jne	 SHORT $LN7@NewNode

; 903  : 	{
; 904  : 		// add another block
; 905  : 		CPlex* pNewBlock = CPlex::Create(m_pBlocks, m_nBlockSize,

  0000c	6a 0c		 push	 12			; 0000000cH
  0000e	ff 76 18	 push	 DWORD PTR [esi+24]
  00011	8d 46 14	 lea	 eax, DWORD PTR [esi+20]
  00014	50		 push	 eax
  00015	e8 00 00 00 00	 call	 ?Create@CPlex@@SGPAU1@AAPAU1@II@Z ; CPlex::Create

; 906  : 				 sizeof(CNode));
; 907  : 
; 908  : 		// chain them into free list
; 909  : 		CNode* pNode = (CNode*) pNewBlock->data();
; 910  : 		// free in reverse order to make it easier to debug
; 911  : 		pNode += m_nBlockSize - 1;

  0001a	8b 56 18	 mov	 edx, DWORD PTR [esi+24]
  0001d	83 c0 08	 add	 eax, 8
  00020	8d 0c 52	 lea	 ecx, DWORD PTR [edx+edx*2]
  00023	8d 04 88	 lea	 eax, DWORD PTR [eax+ecx*4]
  00026	83 c0 f4	 add	 eax, -12		; fffffff4H

; 912  : 		for (INT_PTR i = m_nBlockSize-1; i >= 0; i--, pNode--)

  00029	83 c2 ff	 add	 edx, -1
  0002c	78 12		 js	 SHORT $LN7@NewNode
  0002e	66 90		 npad	 2
$LL4@NewNode:

; 913  : 		{
; 914  : 			pNode->pNext = m_pNodeFree;

  00030	8b 4e 10	 mov	 ecx, DWORD PTR [esi+16]
  00033	89 08		 mov	 DWORD PTR [eax], ecx

; 915  : 			m_pNodeFree = pNode;

  00035	89 46 10	 mov	 DWORD PTR [esi+16], eax
  00038	83 e8 0c	 sub	 eax, 12			; 0000000cH
  0003b	83 ea 01	 sub	 edx, 1
  0003e	79 f0		 jns	 SHORT $LL4@NewNode
$LN7@NewNode:

; 916  : 		}
; 917  : 	}
; 918  : 	ENSURE(m_pNodeFree != NULL);  // we must have something

  00040	8b 46 10	 mov	 eax, DWORD PTR [esi+16]
  00043	85 c0		 test	 eax, eax
  00045	74 18		 je	 SHORT $LN17@NewNode

; 919  : 
; 920  : 	CList::CNode* pNode = m_pNodeFree;
; 921  : 	m_pNodeFree = m_pNodeFree->pNext;

  00047	8b 08		 mov	 ecx, DWORD PTR [eax]
  00049	89 4e 10	 mov	 DWORD PTR [esi+16], ecx

; 922  : 	pNode->pPrev = pPrev;

  0004c	8b 4d 08	 mov	 ecx, DWORD PTR _pPrev$[ebp]
  0004f	89 48 04	 mov	 DWORD PTR [eax+4], ecx

; 923  : 	pNode->pNext = pNext;

  00052	8b 4d 0c	 mov	 ecx, DWORD PTR _pNext$[ebp]
  00055	89 08		 mov	 DWORD PTR [eax], ecx

; 924  : 	m_nCount++;

  00057	ff 46 0c	 inc	 DWORD PTR [esi+12]

; 925  : 	ASSERT(m_nCount > 0);  // make sure we don't overflow
; 926  : 
; 927  : #pragma push_macro("new")
; 928  : #undef new
; 929  : 	::new( (void*)( &pNode->data ) ) TYPE;
; 930  : #pragma pop_macro("new")
; 931  : 	return pNode;

  0005a	5e		 pop	 esi

; 932  : }

  0005b	5d		 pop	 ebp
  0005c	c2 08 00	 ret	 8
$LN17@NewNode:

; 916  : 		}
; 917  : 	}
; 918  : 	ENSURE(m_pNodeFree != NULL);  // we must have something

  0005f	e8 00 00 00 00	 call	 ?AfxThrowInvalidArgException@@YGXXZ ; AfxThrowInvalidArgException
$LN15@NewNode:
  00064	cc		 int	 3
?NewNode@?$CList@PAVCChartRecordSet@@PAV1@@@IAEPAUCNode@1@PAU21@0@Z ENDP ; CList<CChartRecordSet *,CChartRecordSet *>::NewNode
_TEXT	ENDS
; Function compile flags: /Ogtp
; File C:\Program Files (x86)\Microsoft Visual Studio\2019\Community\VC\Tools\MSVC\14.29.30133\atlmfc\include\afxtempl.h
;	COMDAT ?FindIndex@?$CList@PAVCChartRecordSet@@PAV1@@@QBEPAU__POSITION@@H@Z
_TEXT	SEGMENT
_nIndex$ = 8						; size = 4
?FindIndex@?$CList@PAVCChartRecordSet@@PAV1@@@QBEPAU__POSITION@@H@Z PROC ; CList<CChartRecordSet *,CChartRecordSet *>::FindIndex, COMDAT
; _this$ = ecx

; 1130 : {

  00000	55		 push	 ebp
  00001	8b ec		 mov	 ebp, esp

; 1131 : 	ASSERT_VALID(this);
; 1132 : 
; 1133 : 	if (nIndex >= m_nCount || nIndex < 0)

  00003	8b 55 08	 mov	 edx, DWORD PTR _nIndex$[ebp]
  00006	3b 51 0c	 cmp	 edx, DWORD PTR [ecx+12]
  00009	7d 14		 jge	 SHORT $LN5@FindIndex
  0000b	85 d2		 test	 edx, edx
  0000d	78 10		 js	 SHORT $LN5@FindIndex

; 1135 : 
; 1136 : 	CNode* pNode = m_pNodeHead;

  0000f	8b 41 04	 mov	 eax, DWORD PTR [ecx+4]

; 1137 : 	while (nIndex--)

  00012	74 0d		 je	 SHORT $LN1@FindIndex
$LL2@FindIndex:

; 1138 : 	{
; 1139 : 		ASSERT(AfxIsValidAddress(pNode, sizeof(CNode)));
; 1140 : 		pNode = pNode->pNext;

  00014	8b 00		 mov	 eax, DWORD PTR [eax]
  00016	83 ea 01	 sub	 edx, 1
  00019	75 f9		 jne	 SHORT $LL2@FindIndex

; 1141 : 	}
; 1142 : 	return (POSITION) pNode;
; 1143 : }

  0001b	5d		 pop	 ebp
  0001c	c2 04 00	 ret	 4
$LN5@FindIndex:

; 1134 : 		return NULL;  // went too far

  0001f	33 c0		 xor	 eax, eax
$LN1@FindIndex:

; 1141 : 	}
; 1142 : 	return (POSITION) pNode;
; 1143 : }

  00021	5d		 pop	 ebp
  00022	c2 04 00	 ret	 4
?FindIndex@?$CList@PAVCChartRecordSet@@PAV1@@@QBEPAU__POSITION@@H@Z ENDP ; CList<CChartRecordSet *,CChartRecordSet *>::FindIndex
_TEXT	ENDS
; Function compile flags: /Ogtp
; File C:\Program Files (x86)\Microsoft Visual Studio\2019\Community\VC\Tools\MSVC\14.29.30133\atlmfc\include\afxtempl.h
;	COMDAT ?RemoveAt@?$CList@PAVCChartRecordSet@@PAV1@@@QAEXPAU__POSITION@@@Z
_TEXT	SEGMENT
_position$ = 8						; size = 4
?RemoveAt@?$CList@PAVCChartRecordSet@@PAV1@@@QAEXPAU__POSITION@@@Z PROC ; CList<CChartRecordSet *,CChartRecordSet *>::RemoveAt, COMDAT
; _this$ = ecx

; 1100 : {

  00000	55		 push	 ebp
  00001	8b ec		 mov	 ebp, esp
  00003	56		 push	 esi
  00004	8b f1		 mov	 esi, ecx

; 1101 : 	ASSERT_VALID(this);
; 1102 : 
; 1103 : 	CNode* pOldNode = (CNode*) position;
; 1104 : 	ASSERT(AfxIsValidAddress(pOldNode, sizeof(CNode)));
; 1105 : 
; 1106 : 	// remove pOldNode from list
; 1107 : 	if (pOldNode == m_pNodeHead)

  00006	8b 4d 08	 mov	 ecx, DWORD PTR _position$[ebp]
  00009	8b 11		 mov	 edx, DWORD PTR [ecx]
  0000b	3b 4e 04	 cmp	 ecx, DWORD PTR [esi+4]
  0000e	75 05		 jne	 SHORT $LN2@RemoveAt

; 1108 : 	{
; 1109 : 		m_pNodeHead = pOldNode->pNext;

  00010	89 56 04	 mov	 DWORD PTR [esi+4], edx

; 1110 : 	}

  00013	eb 05		 jmp	 SHORT $LN3@RemoveAt
$LN2@RemoveAt:

; 1111 : 	else
; 1112 : 	{
; 1113 : 		ASSERT(AfxIsValidAddress(pOldNode->pPrev, sizeof(CNode)));
; 1114 : 		pOldNode->pPrev->pNext = pOldNode->pNext;

  00015	8b 41 04	 mov	 eax, DWORD PTR [ecx+4]
  00018	89 10		 mov	 DWORD PTR [eax], edx
$LN3@RemoveAt:

; 1115 : 	}
; 1116 : 	if (pOldNode == m_pNodeTail)

  0001a	8b 51 04	 mov	 edx, DWORD PTR [ecx+4]
  0001d	3b 4e 08	 cmp	 ecx, DWORD PTR [esi+8]
  00020	75 05		 jne	 SHORT $LN4@RemoveAt

; 1117 : 	{
; 1118 : 		m_pNodeTail = pOldNode->pPrev;

  00022	89 56 08	 mov	 DWORD PTR [esi+8], edx

; 1119 : 	}

  00025	eb 05		 jmp	 SHORT $LN5@RemoveAt
$LN4@RemoveAt:

; 1120 : 	else
; 1121 : 	{
; 1122 : 		ASSERT(AfxIsValidAddress(pOldNode->pNext, sizeof(CNode)));
; 1123 : 		pOldNode->pNext->pPrev = pOldNode->pPrev;

  00027	8b 01		 mov	 eax, DWORD PTR [ecx]
  00029	89 50 04	 mov	 DWORD PTR [eax+4], edx
$LN5@RemoveAt:

; 938  : 	pNode->pNext = m_pNodeFree;

  0002c	8b 46 10	 mov	 eax, DWORD PTR [esi+16]
  0002f	89 01		 mov	 DWORD PTR [ecx], eax

; 939  : 	m_pNodeFree = pNode;
; 940  : 	m_nCount--;

  00031	83 46 0c ff	 add	 DWORD PTR [esi+12], -1
  00035	89 4e 10	 mov	 DWORD PTR [esi+16], ecx

; 941  : 	ASSERT(m_nCount >= 0);  // make sure we don't underflow
; 942  : 
; 943  : 	// if no more elements, cleanup completely
; 944  : 	if (m_nCount == 0)

  00038	75 2b		 jne	 SHORT $LN8@RemoveAt

; 872  : 	m_pBlocks->FreeDataChain();

  0003a	8b 4e 14	 mov	 ecx, DWORD PTR [esi+20]
  0003d	c7 46 0c 00 00
	00 00		 mov	 DWORD PTR [esi+12], 0
  00044	c7 46 10 00 00
	00 00		 mov	 DWORD PTR [esi+16], 0
  0004b	c7 46 08 00 00
	00 00		 mov	 DWORD PTR [esi+8], 0
  00052	c7 46 04 00 00
	00 00		 mov	 DWORD PTR [esi+4], 0
  00059	e8 00 00 00 00	 call	 ?FreeDataChain@CPlex@@QAEXXZ ; CPlex::FreeDataChain

; 873  : 	m_pBlocks = NULL;

  0005e	c7 46 14 00 00
	00 00		 mov	 DWORD PTR [esi+20], 0
$LN8@RemoveAt:
  00065	5e		 pop	 esi

; 1124 : 	}
; 1125 : 	FreeNode(pOldNode);
; 1126 : }

  00066	5d		 pop	 ebp
  00067	c2 04 00	 ret	 4
?RemoveAt@?$CList@PAVCChartRecordSet@@PAV1@@@QAEXPAU__POSITION@@@Z ENDP ; CList<CChartRecordSet *,CChartRecordSet *>::RemoveAt
_TEXT	ENDS
; Function compile flags: /Ogtp
; File C:\Program Files (x86)\Microsoft Visual Studio\2019\Community\VC\Tools\MSVC\14.29.30133\atlmfc\include\afxtempl.h
;	COMDAT ?RemoveAll@?$CList@PAVCChartRecordSet@@PAV1@@@QAEXXZ
_TEXT	SEGMENT
?RemoveAll@?$CList@PAVCChartRecordSet@@PAV1@@@QAEXXZ PROC ; CList<CChartRecordSet *,CChartRecordSet *>::RemoveAll, COMDAT
; _this$ = ecx

; 862  : {

  00000	56		 push	 esi
  00001	8b f1		 mov	 esi, ecx

; 863  : 	ASSERT_VALID(this);
; 864  : 
; 865  : 	// destroy elements
; 866  : 	CNode* pNode;
; 867  : 	for (pNode = m_pNodeHead; pNode != NULL; pNode = pNode->pNext)
; 868  : 		pNode->data.~TYPE();
; 869  : 
; 870  : 	m_nCount = 0;
; 871  : 	m_pNodeHead = m_pNodeTail = m_pNodeFree = NULL;
; 872  : 	m_pBlocks->FreeDataChain();

  00003	8b 4e 14	 mov	 ecx, DWORD PTR [esi+20]
  00006	c7 46 0c 00 00
	00 00		 mov	 DWORD PTR [esi+12], 0
  0000d	c7 46 10 00 00
	00 00		 mov	 DWORD PTR [esi+16], 0
  00014	c7 46 08 00 00
	00 00		 mov	 DWORD PTR [esi+8], 0
  0001b	c7 46 04 00 00
	00 00		 mov	 DWORD PTR [esi+4], 0
  00022	e8 00 00 00 00	 call	 ?FreeDataChain@CPlex@@QAEXXZ ; CPlex::FreeDataChain

; 873  : 	m_pBlocks = NULL;

  00027	c7 46 14 00 00
	00 00		 mov	 DWORD PTR [esi+20], 0
  0002e	5e		 pop	 esi

; 874  : }

  0002f	c3		 ret	 0
?RemoveAll@?$CList@PAVCChartRecordSet@@PAV1@@@QAEXXZ ENDP ; CList<CChartRecordSet *,CChartRecordSet *>::RemoveAll
_TEXT	ENDS
; Function compile flags: /Ogtp
; File C:\Program Files (x86)\Microsoft Visual Studio\2019\Community\VC\Tools\MSVC\14.29.30133\atlmfc\include\afxtempl.h
;	COMDAT ?AddTail@?$CList@PAVCChartRecordSet@@PAV1@@@QAEXPAV1@@Z
_TEXT	SEGMENT
_newElement$1$ = -4					; size = 4
$T1 = 8							; size = 4
_pNewList$ = 8						; size = 4
?AddTail@?$CList@PAVCChartRecordSet@@PAV1@@@QAEXPAV1@@Z PROC ; CList<CChartRecordSet *,CChartRecordSet *>::AddTail, COMDAT
; _this$ = ecx

; 994  : {

  00000	55		 push	 ebp
  00001	8b ec		 mov	 ebp, esp
  00003	51		 push	 ecx
  00004	53		 push	 ebx

; 995  : 	ASSERT_VALID(this);
; 996  : 	ENSURE(pNewList != NULL);

  00005	8b 5d 08	 mov	 ebx, DWORD PTR _pNewList$[ebp]
  00008	56		 push	 esi
  00009	8b f1		 mov	 esi, ecx
  0000b	85 db		 test	 ebx, ebx
  0000d	0f 84 a1 00 00
	00		 je	 $LN29@AddTail

; 997  : 	ASSERT_VALID(pNewList);
; 998  : 
; 999  : 	// add a list of same elements
; 1000 : 	POSITION pos = pNewList->GetHeadPosition();

  00013	8b 5b 04	 mov	 ebx, DWORD PTR [ebx+4]

; 1001 : 	while (pos != NULL)

  00016	85 db		 test	 ebx, ebx
  00018	0f 84 8e 00 00
	00		 je	 $LN39@AddTail
  0001e	8b 4e 08	 mov	 ecx, DWORD PTR [esi+8]
  00021	89 4d 08	 mov	 DWORD PTR $T1[ebp], ecx
  00024	57		 push	 edi
$LL5@AddTail:

; 1002 : 		AddTail(pNewList->GetNext(pos));

  00025	8b 43 08	 mov	 eax, DWORD PTR [ebx+8]

; 902  : 	if (m_pNodeFree == NULL)

  00028	8b 56 10	 mov	 edx, DWORD PTR [esi+16]

; 813  : 		rPosition = (POSITION) pNode->pNext;

  0002b	8b 1b		 mov	 ebx, DWORD PTR [ebx]

; 1002 : 		AddTail(pNewList->GetNext(pos));

  0002d	89 45 fc	 mov	 DWORD PTR _newElement$1$[ebp], eax

; 902  : 	if (m_pNodeFree == NULL)

  00030	85 d2		 test	 edx, edx
  00032	75 42		 jne	 SHORT $LN37@AddTail

; 903  : 	{
; 904  : 		// add another block
; 905  : 		CPlex* pNewBlock = CPlex::Create(m_pBlocks, m_nBlockSize,

  00034	6a 0c		 push	 12			; 0000000cH
  00036	ff 76 18	 push	 DWORD PTR [esi+24]
  00039	8d 46 14	 lea	 eax, DWORD PTR [esi+20]
  0003c	50		 push	 eax
  0003d	e8 00 00 00 00	 call	 ?Create@CPlex@@SGPAU1@AAPAU1@II@Z ; CPlex::Create

; 906  : 				 sizeof(CNode));
; 907  : 
; 908  : 		// chain them into free list
; 909  : 		CNode* pNode = (CNode*) pNewBlock->data();
; 910  : 		// free in reverse order to make it easier to debug
; 911  : 		pNode += m_nBlockSize - 1;

  00042	8b 56 18	 mov	 edx, DWORD PTR [esi+24]
  00045	83 c0 08	 add	 eax, 8
  00048	8d 0c 52	 lea	 ecx, DWORD PTR [edx+edx*2]
  0004b	8d 04 88	 lea	 eax, DWORD PTR [eax+ecx*4]

; 912  : 		for (INT_PTR i = m_nBlockSize-1; i >= 0; i--, pNode--)

  0004e	8d 7a ff	 lea	 edi, DWORD PTR [edx-1]
  00051	83 c0 f4	 add	 eax, -12		; fffffff4H
  00054	85 ff		 test	 edi, edi
  00056	78 14		 js	 SHORT $LN38@AddTail
$LL18@AddTail:

; 913  : 		{
; 914  : 			pNode->pNext = m_pNodeFree;

  00058	8b 4e 10	 mov	 ecx, DWORD PTR [esi+16]
  0005b	8b d0		 mov	 edx, eax
  0005d	89 08		 mov	 DWORD PTR [eax], ecx

; 915  : 			m_pNodeFree = pNode;

  0005f	89 46 10	 mov	 DWORD PTR [esi+16], eax
  00062	83 e8 0c	 sub	 eax, 12			; 0000000cH
  00065	83 ef 01	 sub	 edi, 1
  00068	79 ee		 jns	 SHORT $LL18@AddTail
  0006a	eb 03		 jmp	 SHORT $LN21@AddTail
$LN38@AddTail:
  0006c	8b 56 10	 mov	 edx, DWORD PTR [esi+16]
$LN21@AddTail:

; 916  : 		}
; 917  : 	}
; 918  : 	ENSURE(m_pNodeFree != NULL);  // we must have something

  0006f	85 d2		 test	 edx, edx
  00071	74 41		 je	 SHORT $LN29@AddTail
  00073	8b 4d 08	 mov	 ecx, DWORD PTR $T1[ebp]
$LN37@AddTail:

; 919  : 
; 920  : 	CList::CNode* pNode = m_pNodeFree;
; 921  : 	m_pNodeFree = m_pNodeFree->pNext;

  00076	8b 02		 mov	 eax, DWORD PTR [edx]
  00078	89 46 10	 mov	 DWORD PTR [esi+16], eax

; 969  : 	pNewNode->data = newElement;

  0007b	8b 45 fc	 mov	 eax, DWORD PTR _newElement$1$[ebp]

; 922  : 	pNode->pPrev = pPrev;

  0007e	89 4a 04	 mov	 DWORD PTR [edx+4], ecx

; 923  : 	pNode->pNext = pNext;

  00081	c7 02 00 00 00
	00		 mov	 DWORD PTR [edx], 0

; 924  : 	m_nCount++;

  00087	ff 46 0c	 inc	 DWORD PTR [esi+12]

; 969  : 	pNewNode->data = newElement;

  0008a	89 42 08	 mov	 DWORD PTR [edx+8], eax

; 970  : 	if (m_pNodeTail != NULL)

  0008d	8b 46 08	 mov	 eax, DWORD PTR [esi+8]
  00090	85 c0		 test	 eax, eax
  00092	74 04		 je	 SHORT $LN12@AddTail

; 971  : 		m_pNodeTail->pNext = pNewNode;

  00094	89 10		 mov	 DWORD PTR [eax], edx
  00096	eb 03		 jmp	 SHORT $LN13@AddTail
$LN12@AddTail:

; 972  : 	else
; 973  : 		m_pNodeHead = pNewNode;

  00098	89 56 04	 mov	 DWORD PTR [esi+4], edx
$LN13@AddTail:

; 974  : 	m_pNodeTail = pNewNode;

  0009b	89 56 08	 mov	 DWORD PTR [esi+8], edx
  0009e	8b ca		 mov	 ecx, edx
  000a0	89 4d 08	 mov	 DWORD PTR $T1[ebp], ecx

; 1001 : 	while (pos != NULL)

  000a3	85 db		 test	 ebx, ebx
  000a5	0f 85 7a ff ff
	ff		 jne	 $LL5@AddTail
  000ab	5f		 pop	 edi
$LN39@AddTail:
  000ac	5e		 pop	 esi

; 1003 : }

  000ad	5b		 pop	 ebx
  000ae	8b e5		 mov	 esp, ebp
  000b0	5d		 pop	 ebp
  000b1	c2 04 00	 ret	 4
$LN29@AddTail:

; 918  : 	ENSURE(m_pNodeFree != NULL);  // we must have something

  000b4	e8 00 00 00 00	 call	 ?AfxThrowInvalidArgException@@YGXXZ ; AfxThrowInvalidArgException
$LN41@AddTail:
  000b9	cc		 int	 3
?AddTail@?$CList@PAVCChartRecordSet@@PAV1@@@QAEXPAV1@@Z ENDP ; CList<CChartRecordSet *,CChartRecordSet *>::AddTail
_TEXT	ENDS
; Function compile flags: /Ogtp
; File C:\Program Files (x86)\Microsoft Visual Studio\2019\Community\VC\Tools\MSVC\14.29.30133\atlmfc\include\afxtempl.h
;	COMDAT ?AddTail@?$CList@PAVCChartRecordSet@@PAV1@@@QAEPAU__POSITION@@PAVCChartRecordSet@@@Z
_TEXT	SEGMENT
_newElement$ = 8					; size = 4
?AddTail@?$CList@PAVCChartRecordSet@@PAV1@@@QAEPAU__POSITION@@PAVCChartRecordSet@@@Z PROC ; CList<CChartRecordSet *,CChartRecordSet *>::AddTail, COMDAT
; _this$ = ecx

; 965  : {

  00000	55		 push	 ebp
  00001	8b ec		 mov	 ebp, esp
  00003	56		 push	 esi
  00004	8b f1		 mov	 esi, ecx
  00006	57		 push	 edi

; 902  : 	if (m_pNodeFree == NULL)

  00007	83 7e 10 00	 cmp	 DWORD PTR [esi+16], 0

; 966  : 	ASSERT_VALID(this);
; 967  : 
; 968  : 	CNode* pNewNode = NewNode(m_pNodeTail, NULL);

  0000b	8b 7e 08	 mov	 edi, DWORD PTR [esi+8]

; 902  : 	if (m_pNodeFree == NULL)

  0000e	75 32		 jne	 SHORT $LN11@AddTail

; 903  : 	{
; 904  : 		// add another block
; 905  : 		CPlex* pNewBlock = CPlex::Create(m_pBlocks, m_nBlockSize,

  00010	6a 0c		 push	 12			; 0000000cH
  00012	ff 76 18	 push	 DWORD PTR [esi+24]
  00015	8d 46 14	 lea	 eax, DWORD PTR [esi+20]
  00018	50		 push	 eax
  00019	e8 00 00 00 00	 call	 ?Create@CPlex@@SGPAU1@AAPAU1@II@Z ; CPlex::Create

; 906  : 				 sizeof(CNode));
; 907  : 
; 908  : 		// chain them into free list
; 909  : 		CNode* pNode = (CNode*) pNewBlock->data();
; 910  : 		// free in reverse order to make it easier to debug
; 911  : 		pNode += m_nBlockSize - 1;

  0001e	8b 56 18	 mov	 edx, DWORD PTR [esi+24]
  00021	83 c0 08	 add	 eax, 8
  00024	8d 4a ff	 lea	 ecx, DWORD PTR [edx-1]

; 912  : 		for (INT_PTR i = m_nBlockSize-1; i >= 0; i--, pNode--)

  00027	83 c2 ff	 add	 edx, -1
  0002a	8d 0c 49	 lea	 ecx, DWORD PTR [ecx+ecx*2]
  0002d	8d 0c 88	 lea	 ecx, DWORD PTR [eax+ecx*4]
  00030	78 10		 js	 SHORT $LN11@AddTail
$LL8@AddTail:

; 913  : 		{
; 914  : 			pNode->pNext = m_pNodeFree;

  00032	8b 46 10	 mov	 eax, DWORD PTR [esi+16]
  00035	89 01		 mov	 DWORD PTR [ecx], eax

; 915  : 			m_pNodeFree = pNode;

  00037	89 4e 10	 mov	 DWORD PTR [esi+16], ecx
  0003a	83 e9 0c	 sub	 ecx, 12			; 0000000cH
  0003d	83 ea 01	 sub	 edx, 1
  00040	79 f0		 jns	 SHORT $LL8@AddTail
$LN11@AddTail:

; 916  : 		}
; 917  : 	}
; 918  : 	ENSURE(m_pNodeFree != NULL);  // we must have something

  00042	8b 4e 10	 mov	 ecx, DWORD PTR [esi+16]
  00045	85 c9		 test	 ecx, ecx
  00047	74 39		 je	 SHORT $LN22@AddTail

; 919  : 
; 920  : 	CList::CNode* pNode = m_pNodeFree;
; 921  : 	m_pNodeFree = m_pNodeFree->pNext;

  00049	8b 01		 mov	 eax, DWORD PTR [ecx]
  0004b	89 46 10	 mov	 DWORD PTR [esi+16], eax

; 969  : 	pNewNode->data = newElement;

  0004e	8b 45 08	 mov	 eax, DWORD PTR _newElement$[ebp]

; 922  : 	pNode->pPrev = pPrev;

  00051	89 79 04	 mov	 DWORD PTR [ecx+4], edi

; 923  : 	pNode->pNext = pNext;

  00054	c7 01 00 00 00
	00		 mov	 DWORD PTR [ecx], 0

; 924  : 	m_nCount++;

  0005a	ff 46 0c	 inc	 DWORD PTR [esi+12]

; 969  : 	pNewNode->data = newElement;

  0005d	89 41 08	 mov	 DWORD PTR [ecx+8], eax

; 970  : 	if (m_pNodeTail != NULL)

  00060	8b 46 08	 mov	 eax, DWORD PTR [esi+8]
  00063	85 c0		 test	 eax, eax
  00065	74 0d		 je	 SHORT $LN2@AddTail

; 971  : 		m_pNodeTail->pNext = pNewNode;

  00067	89 08		 mov	 DWORD PTR [eax], ecx

; 972  : 	else
; 973  : 		m_pNodeHead = pNewNode;
; 974  : 	m_pNodeTail = pNewNode;
; 975  : 	return (POSITION) pNewNode;

  00069	8b c1		 mov	 eax, ecx
  0006b	5f		 pop	 edi
  0006c	89 4e 08	 mov	 DWORD PTR [esi+8], ecx
  0006f	5e		 pop	 esi

; 976  : }

  00070	5d		 pop	 ebp
  00071	c2 04 00	 ret	 4
$LN2@AddTail:

; 972  : 	else
; 973  : 		m_pNodeHead = pNewNode;
; 974  : 	m_pNodeTail = pNewNode;
; 975  : 	return (POSITION) pNewNode;

  00074	5f		 pop	 edi
  00075	89 4e 04	 mov	 DWORD PTR [esi+4], ecx
  00078	8b c1		 mov	 eax, ecx
  0007a	89 4e 08	 mov	 DWORD PTR [esi+8], ecx
  0007d	5e		 pop	 esi

; 976  : }

  0007e	5d		 pop	 ebp
  0007f	c2 04 00	 ret	 4
$LN22@AddTail:

; 918  : 	ENSURE(m_pNodeFree != NULL);  // we must have something

  00082	e8 00 00 00 00	 call	 ?AfxThrowInvalidArgException@@YGXXZ ; AfxThrowInvalidArgException
$LN20@AddTail:
  00087	cc		 int	 3
?AddTail@?$CList@PAVCChartRecordSet@@PAV1@@@QAEPAU__POSITION@@PAVCChartRecordSet@@@Z ENDP ; CList<CChartRecordSet *,CChartRecordSet *>::AddTail
_TEXT	ENDS
; Function compile flags: /Ogtp
; File C:\Program Files (x86)\Microsoft Visual Studio\2019\Community\VC\Tools\MSVC\14.29.30133\atlmfc\include\afxtempl.h
;	COMDAT ?RemoveHead@?$CList@PAVCChartRecordSet@@PAV1@@@QAEPAVCChartRecordSet@@XZ
_TEXT	SEGMENT
?RemoveHead@?$CList@PAVCChartRecordSet@@PAV1@@@QAEPAVCChartRecordSet@@XZ PROC ; CList<CChartRecordSet *,CChartRecordSet *>::RemoveHead, COMDAT
; _this$ = ecx

; 1007 : {

  00000	56		 push	 esi
  00001	8b f1		 mov	 esi, ecx
  00003	57		 push	 edi

; 1008 : 	ASSERT_VALID(this);
; 1009 : 	ENSURE(m_pNodeHead != NULL);  // don't call on empty list !!!

  00004	8b 4e 04	 mov	 ecx, DWORD PTR [esi+4]
  00007	85 c9		 test	 ecx, ecx
  00009	74 5a		 je	 SHORT $LN24@RemoveHead

; 1010 : 	ASSERT(AfxIsValidAddress(m_pNodeHead, sizeof(CNode)));
; 1011 : 
; 1012 : 	CNode* pOldNode = m_pNodeHead;
; 1013 : 	TYPE returnValue = pOldNode->data;
; 1014 : 
; 1015 : 	m_pNodeHead = pOldNode->pNext;

  0000b	8b 01		 mov	 eax, DWORD PTR [ecx]
  0000d	8b 79 08	 mov	 edi, DWORD PTR [ecx+8]
  00010	89 46 04	 mov	 DWORD PTR [esi+4], eax

; 1016 : 	if (m_pNodeHead != NULL)

  00013	85 c0		 test	 eax, eax
  00015	74 09		 je	 SHORT $LN6@RemoveHead

; 1017 : 		m_pNodeHead->pPrev = NULL;

  00017	c7 40 04 00 00
	00 00		 mov	 DWORD PTR [eax+4], 0
  0001e	eb 07		 jmp	 SHORT $LN7@RemoveHead
$LN6@RemoveHead:

; 1018 : 	else
; 1019 : 		m_pNodeTail = NULL;

  00020	c7 46 08 00 00
	00 00		 mov	 DWORD PTR [esi+8], 0
$LN7@RemoveHead:

; 938  : 	pNode->pNext = m_pNodeFree;

  00027	8b 46 10	 mov	 eax, DWORD PTR [esi+16]
  0002a	89 01		 mov	 DWORD PTR [ecx], eax

; 939  : 	m_pNodeFree = pNode;
; 940  : 	m_nCount--;

  0002c	83 46 0c ff	 add	 DWORD PTR [esi+12], -1
  00030	89 4e 10	 mov	 DWORD PTR [esi+16], ecx

; 941  : 	ASSERT(m_nCount >= 0);  // make sure we don't underflow
; 942  : 
; 943  : 	// if no more elements, cleanup completely
; 944  : 	if (m_nCount == 0)

  00033	75 2b		 jne	 SHORT $LN10@RemoveHead

; 872  : 	m_pBlocks->FreeDataChain();

  00035	8b 4e 14	 mov	 ecx, DWORD PTR [esi+20]
  00038	c7 46 0c 00 00
	00 00		 mov	 DWORD PTR [esi+12], 0
  0003f	c7 46 10 00 00
	00 00		 mov	 DWORD PTR [esi+16], 0
  00046	c7 46 08 00 00
	00 00		 mov	 DWORD PTR [esi+8], 0
  0004d	c7 46 04 00 00
	00 00		 mov	 DWORD PTR [esi+4], 0
  00054	e8 00 00 00 00	 call	 ?FreeDataChain@CPlex@@QAEXXZ ; CPlex::FreeDataChain

; 873  : 	m_pBlocks = NULL;

  00059	c7 46 14 00 00
	00 00		 mov	 DWORD PTR [esi+20], 0
$LN10@RemoveHead:

; 1020 : 	FreeNode(pOldNode);
; 1021 : 	return returnValue;

  00060	8b c7		 mov	 eax, edi
  00062	5f		 pop	 edi
  00063	5e		 pop	 esi

; 1022 : }

  00064	c3		 ret	 0
$LN24@RemoveHead:

; 1008 : 	ASSERT_VALID(this);
; 1009 : 	ENSURE(m_pNodeHead != NULL);  // don't call on empty list !!!

  00065	e8 00 00 00 00	 call	 ?AfxThrowInvalidArgException@@YGXXZ ; AfxThrowInvalidArgException
$LN22@RemoveHead:
  0006a	cc		 int	 3
?RemoveHead@?$CList@PAVCChartRecordSet@@PAV1@@@QAEPAVCChartRecordSet@@XZ ENDP ; CList<CChartRecordSet *,CChartRecordSet *>::RemoveHead
_TEXT	ENDS
; Function compile flags: /Ogtp
; File C:\Program Files (x86)\Microsoft Visual Studio\2019\Community\VC\Tools\MSVC\14.29.30133\atlmfc\include\afxtempl.h
;	COMDAT ??0?$CList@PAVCChartRecordSet@@PAV1@@@QAE@H@Z
_TEXT	SEGMENT
_nBlockSize$ = 8					; size = 4
??0?$CList@PAVCChartRecordSet@@PAV1@@@QAE@H@Z PROC	; CList<CChartRecordSet *,CChartRecordSet *>::CList<CChartRecordSet *,CChartRecordSet *>, COMDAT
; _this$ = ecx

; 851  : {

  00000	55		 push	 ebp
  00001	8b ec		 mov	 ebp, esp

; 852  : 	ASSERT(nBlockSize > 0);
; 853  : 
; 854  : 	m_nCount = 0;
; 855  : 	m_pNodeHead = m_pNodeTail = m_pNodeFree = NULL;
; 856  : 	m_pBlocks = NULL;
; 857  : 	m_nBlockSize = nBlockSize;

  00003	8b 45 08	 mov	 eax, DWORD PTR _nBlockSize$[ebp]
  00006	89 41 18	 mov	 DWORD PTR [ecx+24], eax

; 858  : }

  00009	8b c1		 mov	 eax, ecx
  0000b	c7 01 00 00 00
	00		 mov	 DWORD PTR [ecx], OFFSET ??_7?$CList@PAVCChartRecordSet@@PAV1@@@6B@
  00011	c7 41 0c 00 00
	00 00		 mov	 DWORD PTR [ecx+12], 0
  00018	c7 41 10 00 00
	00 00		 mov	 DWORD PTR [ecx+16], 0
  0001f	c7 41 08 00 00
	00 00		 mov	 DWORD PTR [ecx+8], 0
  00026	c7 41 04 00 00
	00 00		 mov	 DWORD PTR [ecx+4], 0
  0002d	c7 41 14 00 00
	00 00		 mov	 DWORD PTR [ecx+20], 0
  00034	5d		 pop	 ebp
  00035	c2 04 00	 ret	 4
??0?$CList@PAVCChartRecordSet@@PAV1@@@QAE@H@Z ENDP	; CList<CChartRecordSet *,CChartRecordSet *>::CList<CChartRecordSet *,CChartRecordSet *>
_TEXT	ENDS
; Function compile flags: /Ogtp
; File C:\Program Files (x86)\Microsoft Visual Studio\2019\Community\VC\Tools\MSVC\14.29.30133\atlmfc\include\afxtempl.h
; File C:\Program Files (x86)\Microsoft Visual Studio\2019\Community\VC\Tools\MSVC\14.29.30133\atlmfc\include\afx.inl
;	COMDAT ??_G?$CArray@PAVCChartDataGridHeaderInfo@@PAV1@@@UAEPAXI@Z
_TEXT	SEGMENT
___flags$ = 8						; size = 4
??_G?$CArray@PAVCChartDataGridHeaderInfo@@PAV1@@@UAEPAXI@Z PROC ; CArray<CChartDataGridHeaderInfo *,CChartDataGridHeaderInfo *>::`scalar deleting destructor', COMDAT
; _this$ = ecx
  00000	55		 push	 ebp
  00001	8b ec		 mov	 ebp, esp
; File C:\Program Files (x86)\Microsoft Visual Studio\2019\Community\VC\Tools\MSVC\14.29.30133\atlmfc\include\afxtempl.h

; 355  : {

  00003	56		 push	 esi
  00004	8b f1		 mov	 esi, ecx

; 356  : 	ASSERT_VALID(this);
; 357  : 
; 358  : 	if (m_pData != NULL)

  00006	8b 46 04	 mov	 eax, DWORD PTR [esi+4]
  00009	c7 06 00 00 00
	00		 mov	 DWORD PTR [esi], OFFSET ??_7?$CArray@PAVCChartDataGridHeaderInfo@@PAV1@@@6B@
  0000f	85 c0		 test	 eax, eax
  00011	74 09		 je	 SHORT $LN11@scalar

; 359  : 	{
; 360  : 		for( int i = 0; i < m_nSize; i++ )
; 361  : 			(m_pData + i)->~TYPE();
; 362  : 		delete[] (BYTE*)m_pData;

  00013	50		 push	 eax
  00014	e8 00 00 00 00	 call	 ??_V@YAXPAX@Z		; operator delete[]
  00019	83 c4 04	 add	 esp, 4
$LN11@scalar:
  0001c	8b 45 08	 mov	 eax, DWORD PTR ___flags$[ebp]
  0001f	a8 01		 test	 al, 1
  00021	74 1f		 je	 SHORT $LN20@scalar
  00023	a8 04		 test	 al, 4
  00025	75 10		 jne	 SHORT $LN3@scalar
; File C:\Program Files (x86)\Microsoft Visual Studio\2019\Community\VC\Tools\MSVC\14.29.30133\atlmfc\include\afx.inl

; 112  : 	{ ::operator delete(p); }

  00027	56		 push	 esi
  00028	e8 00 00 00 00	 call	 ??3@YAXPAX@Z		; operator delete
  0002d	83 c4 04	 add	 esp, 4
  00030	8b c6		 mov	 eax, esi
  00032	5e		 pop	 esi
  00033	5d		 pop	 ebp
  00034	c2 04 00	 ret	 4
$LN3@scalar:
  00037	6a 14		 push	 20			; 00000014H
  00039	56		 push	 esi
  0003a	e8 00 00 00 00	 call	 ?__global_delete@@YAXPAXI@Z ; __global_delete
  0003f	83 c4 08	 add	 esp, 8
$LN20@scalar:
  00042	8b c6		 mov	 eax, esi
  00044	5e		 pop	 esi
  00045	5d		 pop	 ebp
  00046	c2 04 00	 ret	 4
??_G?$CArray@PAVCChartDataGridHeaderInfo@@PAV1@@@UAEPAXI@Z ENDP ; CArray<CChartDataGridHeaderInfo *,CChartDataGridHeaderInfo *>::`scalar deleting destructor'
_TEXT	ENDS
; Function compile flags: /Ogtp
; File C:\Program Files (x86)\Microsoft Visual Studio\2019\Community\VC\Tools\MSVC\14.29.30133\atlmfc\include\afxtempl.h
; File C:\Program Files (x86)\Microsoft Visual Studio\2019\Community\VC\Tools\MSVC\14.29.30133\atlmfc\include\afx.inl
; File C:\Program Files (x86)\Microsoft Visual Studio\2019\Community\VC\Tools\MSVC\14.29.30133\atlmfc\include\afxtempl.h
; File C:\Program Files (x86)\Microsoft Visual Studio\2019\Community\VC\Tools\MSVC\14.29.30133\atlmfc\include\afx.inl
; File C:\Program Files (x86)\Microsoft Visual Studio\2019\Community\VC\Tools\MSVC\14.29.30133\atlmfc\include\afxtempl.h
; File C:\Program Files (x86)\Microsoft Visual Studio\2019\Community\VC\Tools\MSVC\14.29.30133\atlmfc\include\afx.inl
; File C:\Program Files (x86)\Microsoft Visual Studio\2019\Community\VC\Tools\MSVC\14.29.30133\atlmfc\include\afxtempl.h
; File C:\Program Files (x86)\Microsoft Visual Studio\2019\Community\VC\Tools\MSVC\14.29.30133\atlmfc\include\afx.inl
; File C:\Program Files (x86)\Microsoft Visual Studio\2019\Community\VC\Tools\MSVC\14.29.30133\atlmfc\include\afxtempl.h
;	COMDAT ?Serialize@?$CArray@PAVCChartDataGridHeaderInfo@@PAV1@@@UAEXAAVCArchive@@@Z
_TEXT	SEGMENT
_pData$1$ = -4						; size = 4
_ar$ = 8						; size = 4
?Serialize@?$CArray@PAVCChartDataGridHeaderInfo@@PAV1@@@UAEXAAVCArchive@@@Z PROC ; CArray<CChartDataGridHeaderInfo *,CChartDataGridHeaderInfo *>::Serialize, COMDAT
; _this$ = ecx

; 633  : {

  00000	55		 push	 ebp
  00001	8b ec		 mov	 ebp, esp
  00003	51		 push	 ecx
  00004	53		 push	 ebx
  00005	56		 push	 esi
  00006	57		 push	 edi
  00007	8b f9		 mov	 edi, ecx
; File C:\Program Files (x86)\Microsoft Visual Studio\2019\Community\VC\Tools\MSVC\14.29.30133\atlmfc\include\afx.inl

; 212  : 	{ return (m_nMode & CArchive::load) == 0; }

  00009	8b 4d 08	 mov	 ecx, DWORD PTR _ar$[ebp]
  0000c	8b 41 18	 mov	 eax, DWORD PTR [ecx+24]
  0000f	f7 d0		 not	 eax
  00011	a8 01		 test	 al, 1
; File C:\Program Files (x86)\Microsoft Visual Studio\2019\Community\VC\Tools\MSVC\14.29.30133\atlmfc\include\afxtempl.h

; 637  : 	if (ar.IsStoring())

  00013	74 0a		 je	 SHORT $LN2@Serialize

; 638  : 	{
; 639  : 		ar.WriteCount(m_nSize);

  00015	ff 77 08	 push	 DWORD PTR [edi+8]
  00018	e8 00 00 00 00	 call	 ?WriteCount@CArchive@@QAEXK@Z ; CArchive::WriteCount

; 640  : 	}

  0001d	eb 0f		 jmp	 SHORT $LN3@Serialize
$LN2@Serialize:

; 641  : 	else
; 642  : 	{
; 643  : 		DWORD_PTR nOldSize = ar.ReadCount();

  0001f	e8 00 00 00 00	 call	 ?ReadCount@CArchive@@QAEKXZ ; CArchive::ReadCount

; 644  : 		SetSize(nOldSize, -1);

  00024	6a ff		 push	 -1
  00026	50		 push	 eax
  00027	8b cf		 mov	 ecx, edi
  00029	e8 00 00 00 00	 call	 ?SetSize@?$CArray@PAVCChartDataGridHeaderInfo@@PAV1@@@QAEXHH@Z ; CArray<CChartDataGridHeaderInfo *,CChartDataGridHeaderInfo *>::SetSize
$LN3@Serialize:

; 645  : 	}
; 646  : 	SerializeElements<TYPE>(ar, m_pData, m_nSize);

  0002e	8b 77 08	 mov	 esi, DWORD PTR [edi+8]
  00031	8b 4f 04	 mov	 ecx, DWORD PTR [edi+4]
  00034	89 4d fc	 mov	 DWORD PTR _pData$1$[ebp], ecx

; 68   : 	ENSURE(nCount == 0 || pElements != NULL);

  00037	85 f6		 test	 esi, esi
  00039	74 08		 je	 SHORT $LN8@Serialize
  0003b	85 c9		 test	 ecx, ecx
  0003d	0f 84 8c 00 00
	00		 je	 $LN40@Serialize
$LN8@Serialize:
; File C:\Program Files (x86)\Microsoft Visual Studio\2019\Community\VC\Tools\MSVC\14.29.30133\atlmfc\include\afx.inl

; 212  : 	{ return (m_nMode & CArchive::load) == 0; }

  00043	8b 55 08	 mov	 edx, DWORD PTR _ar$[ebp]
  00046	8b 42 18	 mov	 eax, DWORD PTR [edx+24]
  00049	f7 d0		 not	 eax
  0004b	a8 01		 test	 al, 1
; File C:\Program Files (x86)\Microsoft Visual Studio\2019\Community\VC\Tools\MSVC\14.29.30133\atlmfc\include\afxtempl.h

; 73   : 	if (ar.IsStoring())

  0004d	74 36		 je	 SHORT $LN16@Serialize

; 74   : 	{
; 75   : 		TYPE* pData;
; 76   : 		UINT_PTR nElementsLeft;
; 77   : 
; 78   : 		nElementsLeft = nCount;
; 79   : 		pData = pElements;
; 80   : 		while( nElementsLeft > 0 )

  0004f	85 f6		 test	 esi, esi
  00051	74 29		 je	 SHORT $LN14@Serialize
$LL11@Serialize:

; 81   : 		{
; 82   : 			UINT nElementsToWrite;
; 83   : 
; 84   : 			nElementsToWrite = UINT(__min(nElementsLeft, INT_MAX/sizeof(TYPE)));

  00053	bb ff ff ff 1f	 mov	 ebx, 536870911		; 1fffffffH
  00058	3b f3		 cmp	 esi, ebx
  0005a	0f 42 de	 cmovb	 ebx, esi

; 85   : 			ar.Write(pData, nElementsToWrite*sizeof(TYPE));

  0005d	8d 3c 9d 00 00
	00 00		 lea	 edi, DWORD PTR [ebx*4]
  00064	57		 push	 edi
  00065	51		 push	 ecx
  00066	8b ca		 mov	 ecx, edx
  00068	e8 00 00 00 00	 call	 ?Write@CArchive@@QAEXPBXI@Z ; CArchive::Write

; 86   : 			nElementsLeft -= nElementsToWrite;
; 87   : 			pData += nElementsToWrite;

  0006d	8b 4d fc	 mov	 ecx, DWORD PTR _pData$1$[ebp]
  00070	8b 55 08	 mov	 edx, DWORD PTR _ar$[ebp]
  00073	03 cf		 add	 ecx, edi
  00075	89 4d fc	 mov	 DWORD PTR _pData$1$[ebp], ecx
  00078	2b f3		 sub	 esi, ebx
  0007a	75 d7		 jne	 SHORT $LL11@Serialize
$LN14@Serialize:
  0007c	5f		 pop	 edi

; 647  : }

  0007d	5e		 pop	 esi
  0007e	5b		 pop	 ebx
  0007f	8b e5		 mov	 esp, ebp
  00081	5d		 pop	 ebp
  00082	c2 04 00	 ret	 4
$LN16@Serialize:

; 97   : 		while( nElementsLeft > 0 )

  00085	85 f6		 test	 esi, esi
  00087	74 f3		 je	 SHORT $LN14@Serialize
  00089	0f 1f 80 00 00
	00 00		 npad	 7
$LL13@Serialize:

; 98   : 		{
; 99   : 			UINT nElementsToRead;
; 100  : 
; 101  : 			nElementsToRead = UINT(__min(nElementsLeft, INT_MAX/sizeof(TYPE)));

  00090	bf ff ff ff 1f	 mov	 edi, 536870911		; 1fffffffH
  00095	3b f7		 cmp	 esi, edi
  00097	0f 42 fe	 cmovb	 edi, esi

; 102  : 			ar.EnsureRead(pData, nElementsToRead*sizeof(TYPE));

  0009a	8d 1c bd 00 00
	00 00		 lea	 ebx, DWORD PTR [edi*4]
; File C:\Program Files (x86)\Microsoft Visual Studio\2019\Community\VC\Tools\MSVC\14.29.30133\atlmfc\include\afx.inl

; 399  : 	UINT nRead=Read(lpBuf, nCount);

  000a1	53		 push	 ebx
  000a2	51		 push	 ecx
  000a3	8b ca		 mov	 ecx, edx
  000a5	e8 00 00 00 00	 call	 ?Read@CArchive@@QAEIPAXI@Z ; CArchive::Read

; 400  : 	if(nRead!=nCount)

  000aa	3b c3		 cmp	 eax, ebx
  000ac	75 18		 jne	 SHORT $LN30@Serialize
; File C:\Program Files (x86)\Microsoft Visual Studio\2019\Community\VC\Tools\MSVC\14.29.30133\atlmfc\include\afxtempl.h

; 97   : 		while( nElementsLeft > 0 )

  000ae	8b 4d fc	 mov	 ecx, DWORD PTR _pData$1$[ebp]
  000b1	8b 55 08	 mov	 edx, DWORD PTR _ar$[ebp]

; 103  : 			nElementsLeft -= nElementsToRead;
; 104  : 			pData += nElementsToRead;

  000b4	03 cb		 add	 ecx, ebx
  000b6	89 4d fc	 mov	 DWORD PTR _pData$1$[ebp], ecx
  000b9	2b f7		 sub	 esi, edi
  000bb	75 d3		 jne	 SHORT $LL13@Serialize

; 647  : }

  000bd	5f		 pop	 edi
  000be	5e		 pop	 esi
  000bf	5b		 pop	 ebx
  000c0	8b e5		 mov	 esp, ebp
  000c2	5d		 pop	 ebp
  000c3	c2 04 00	 ret	 4
$LN30@Serialize:
; File C:\Program Files (x86)\Microsoft Visual Studio\2019\Community\VC\Tools\MSVC\14.29.30133\atlmfc\include\afx.inl

; 402  : 		AfxThrowArchiveException(CArchiveException::endOfFile);

  000c6	6a 00		 push	 0
  000c8	6a 03		 push	 3
  000ca	e8 00 00 00 00	 call	 ?AfxThrowArchiveException@@YGXHPBD@Z ; AfxThrowArchiveException
$LN40@Serialize:
; File C:\Program Files (x86)\Microsoft Visual Studio\2019\Community\VC\Tools\MSVC\14.29.30133\atlmfc\include\afxtempl.h

; 68   : 	ENSURE(nCount == 0 || pElements != NULL);

  000cf	e8 00 00 00 00	 call	 ?AfxThrowInvalidArgException@@YGXXZ ; AfxThrowInvalidArgException
$LN38@Serialize:
  000d4	cc		 int	 3
?Serialize@?$CArray@PAVCChartDataGridHeaderInfo@@PAV1@@@UAEXAAVCArchive@@@Z ENDP ; CArray<CChartDataGridHeaderInfo *,CChartDataGridHeaderInfo *>::Serialize
_TEXT	ENDS
; Function compile flags: /Ogtp
; File C:\Program Files (x86)\Microsoft Visual Studio\2019\Community\VC\Tools\MSVC\14.29.30133\atlmfc\include\afxtempl.h
;	COMDAT ??1?$CArray@PAVCChartDataGridHeaderInfo@@PAV1@@@UAE@XZ
_TEXT	SEGMENT
??1?$CArray@PAVCChartDataGridHeaderInfo@@PAV1@@@UAE@XZ PROC ; CArray<CChartDataGridHeaderInfo *,CChartDataGridHeaderInfo *>::~CArray<CChartDataGridHeaderInfo *,CChartDataGridHeaderInfo *>, COMDAT
; _this$ = ecx

; 356  : 	ASSERT_VALID(this);
; 357  : 
; 358  : 	if (m_pData != NULL)

  00000	8b 41 04	 mov	 eax, DWORD PTR [ecx+4]
  00003	c7 01 00 00 00
	00		 mov	 DWORD PTR [ecx], OFFSET ??_7?$CArray@PAVCChartDataGridHeaderInfo@@PAV1@@@6B@
  00009	85 c0		 test	 eax, eax
  0000b	74 07		 je	 SHORT $LN5@CArray

; 359  : 	{
; 360  : 		for( int i = 0; i < m_nSize; i++ )
; 361  : 			(m_pData + i)->~TYPE();
; 362  : 		delete[] (BYTE*)m_pData;

  0000d	50		 push	 eax
  0000e	e8 00 00 00 00	 call	 ??_V@YAXPAX@Z		; operator delete[]
  00013	59		 pop	 ecx
$LN5@CArray:

; 363  : 	}
; 364  : }

  00014	c3		 ret	 0
??1?$CArray@PAVCChartDataGridHeaderInfo@@PAV1@@@UAE@XZ ENDP ; CArray<CChartDataGridHeaderInfo *,CChartDataGridHeaderInfo *>::~CArray<CChartDataGridHeaderInfo *,CChartDataGridHeaderInfo *>
_TEXT	ENDS
; Function compile flags: /Ogtp
; File C:\Program Files (x86)\Microsoft Visual Studio\2019\Community\VC\Tools\MSVC\14.29.30133\atlmfc\include\afxtempl.h
;	COMDAT ?Append@?$CArray@PAVCChartDataGridHeaderInfo@@PAV1@@@QAEHABV1@@Z
_TEXT	SEGMENT
_nOldSize$1$ = 8					; size = 4
_src$ = 8						; size = 4
?Append@?$CArray@PAVCChartDataGridHeaderInfo@@PAV1@@@QAEHABV1@@Z PROC ; CArray<CChartDataGridHeaderInfo *,CChartDataGridHeaderInfo *>::Append, COMDAT
; _this$ = ecx

; 479  : {

  00000	55		 push	 ebp
  00001	8b ec		 mov	 ebp, esp
  00003	53		 push	 ebx
  00004	56		 push	 esi

; 480  : 	ASSERT_VALID(this);
; 481  : 	ASSERT(this != &src);   // cannot append to itself
; 482  : 
; 483  : 	if(this == &src)

  00005	8b 75 08	 mov	 esi, DWORD PTR _src$[ebp]
  00008	8b d9		 mov	 ebx, ecx
  0000a	57		 push	 edi
  0000b	3b de		 cmp	 ebx, esi
  0000d	74 4a		 je	 SHORT $LN21@Append

; 484  : 		AfxThrowInvalidArgException();
; 485  : 
; 486  : 	INT_PTR nOldSize = m_nSize;

  0000f	8b 4b 08	 mov	 ecx, DWORD PTR [ebx+8]

; 487  : 	SetSize(m_nSize + src.m_nSize);

  00012	8b 46 08	 mov	 eax, DWORD PTR [esi+8]
  00015	03 c1		 add	 eax, ecx
  00017	89 4d 08	 mov	 DWORD PTR _nOldSize$1$[ebp], ecx
  0001a	6a ff		 push	 -1
  0001c	50		 push	 eax
  0001d	8b cb		 mov	 ecx, ebx
  0001f	e8 00 00 00 00	 call	 ?SetSize@?$CArray@PAVCChartDataGridHeaderInfo@@PAV1@@@QAEXHH@Z ; CArray<CChartDataGridHeaderInfo *,CChartDataGridHeaderInfo *>::SetSize

; 488  : 	CopyElements<TYPE>(m_pData + nOldSize, src.m_pData, src.m_nSize);

  00024	8b 43 04	 mov	 eax, DWORD PTR [ebx+4]
  00027	8b 5d 08	 mov	 ebx, DWORD PTR _nOldSize$1$[ebp]
  0002a	8b 7e 08	 mov	 edi, DWORD PTR [esi+8]
  0002d	8b 76 04	 mov	 esi, DWORD PTR [esi+4]
  00030	8d 0c 98	 lea	 ecx, DWORD PTR [eax+ebx*4]

; 54   : 	ENSURE(nCount == 0 || pDest != 0 && pSrc != 0);

  00033	85 ff		 test	 edi, edi
  00035	74 19		 je	 SHORT $LN17@Append
  00037	85 c9		 test	 ecx, ecx
  00039	74 1e		 je	 SHORT $LN21@Append
  0003b	85 f6		 test	 esi, esi
  0003d	74 1a		 je	 SHORT $LN21@Append
  0003f	90		 npad	 1
$LL8@Append:

; 55   : 	ASSERT(nCount == 0 ||
; 56   : 		AfxIsValidAddress(pDest, (size_t)nCount * sizeof(TYPE)));
; 57   : 	ASSERT(nCount == 0 ||
; 58   : 		AfxIsValidAddress(pSrc, (size_t)nCount * sizeof(TYPE)));
; 59   : 
; 60   : 	// default is element-copy using assignment
; 61   : 	while (nCount--)
; 62   : 		*pDest++ = *pSrc++;

  00040	8b 16		 mov	 edx, DWORD PTR [esi]
  00042	8d 49 04	 lea	 ecx, DWORD PTR [ecx+4]
  00045	89 51 fc	 mov	 DWORD PTR [ecx-4], edx
  00048	8d 76 04	 lea	 esi, DWORD PTR [esi+4]
  0004b	83 ef 01	 sub	 edi, 1
  0004e	75 f0		 jne	 SHORT $LL8@Append
$LN17@Append:

; 489  : 	return nOldSize;

  00050	5f		 pop	 edi
  00051	5e		 pop	 esi
  00052	8b c3		 mov	 eax, ebx
  00054	5b		 pop	 ebx

; 490  : }

  00055	5d		 pop	 ebp
  00056	c2 04 00	 ret	 4
$LN21@Append:

; 54   : 	ENSURE(nCount == 0 || pDest != 0 && pSrc != 0);

  00059	e8 00 00 00 00	 call	 ?AfxThrowInvalidArgException@@YGXXZ ; AfxThrowInvalidArgException
$LN25@Append:
  0005e	cc		 int	 3
?Append@?$CArray@PAVCChartDataGridHeaderInfo@@PAV1@@@QAEHABV1@@Z ENDP ; CArray<CChartDataGridHeaderInfo *,CChartDataGridHeaderInfo *>::Append
_TEXT	ENDS
; Function compile flags: /Ogtp
; File C:\Program Files (x86)\Microsoft Visual Studio\2019\Community\VC\Tools\MSVC\14.29.30133\atlmfc\include\afxtempl.h
;	COMDAT ?SetAtGrow@?$CArray@PAVCChartDataGridHeaderInfo@@PAV1@@@QAEXHPAVCChartDataGridHeaderInfo@@@Z
_TEXT	SEGMENT
_nIndex$ = 8						; size = 4
_newElement$ = 12					; size = 4
?SetAtGrow@?$CArray@PAVCChartDataGridHeaderInfo@@PAV1@@@QAEXHPAVCChartDataGridHeaderInfo@@@Z PROC ; CArray<CChartDataGridHeaderInfo *,CChartDataGridHeaderInfo *>::SetAtGrow, COMDAT
; _this$ = ecx

; 534  : {

  00000	55		 push	 ebp
  00001	8b ec		 mov	 ebp, esp
  00003	56		 push	 esi

; 535  : 	ASSERT_VALID(this);
; 536  : 	ASSERT(nIndex >= 0);
; 537  : 
; 538  : 	if(nIndex < 0)

  00004	8b 75 08	 mov	 esi, DWORD PTR _nIndex$[ebp]
  00007	57		 push	 edi
  00008	8b f9		 mov	 edi, ecx
  0000a	85 f6		 test	 esi, esi
  0000c	78 1f		 js	 SHORT $LN7@SetAtGrow

; 540  : 
; 541  : 	if (nIndex >= m_nSize)

  0000e	3b 77 08	 cmp	 esi, DWORD PTR [edi+8]
  00011	7c 0b		 jl	 SHORT $LN3@SetAtGrow

; 542  : 		SetSize(nIndex+1, -1);

  00013	6a ff		 push	 -1
  00015	8d 46 01	 lea	 eax, DWORD PTR [esi+1]
  00018	50		 push	 eax
  00019	e8 00 00 00 00	 call	 ?SetSize@?$CArray@PAVCChartDataGridHeaderInfo@@PAV1@@@QAEXHH@Z ; CArray<CChartDataGridHeaderInfo *,CChartDataGridHeaderInfo *>::SetSize
$LN3@SetAtGrow:

; 543  : 	m_pData[nIndex] = newElement;

  0001e	8b 4f 04	 mov	 ecx, DWORD PTR [edi+4]
  00021	8b 45 0c	 mov	 eax, DWORD PTR _newElement$[ebp]
  00024	5f		 pop	 edi
  00025	89 04 b1	 mov	 DWORD PTR [ecx+esi*4], eax
  00028	5e		 pop	 esi

; 544  : }

  00029	5d		 pop	 ebp
  0002a	c2 08 00	 ret	 8
$LN7@SetAtGrow:

; 539  : 		AfxThrowInvalidArgException();

  0002d	e8 00 00 00 00	 call	 ?AfxThrowInvalidArgException@@YGXXZ ; AfxThrowInvalidArgException
$LN5@SetAtGrow:
  00032	cc		 int	 3
?SetAtGrow@?$CArray@PAVCChartDataGridHeaderInfo@@PAV1@@@QAEXHPAVCChartDataGridHeaderInfo@@@Z ENDP ; CArray<CChartDataGridHeaderInfo *,CChartDataGridHeaderInfo *>::SetAtGrow
_TEXT	ENDS
; Function compile flags: /Ogtp
; File C:\Program Files (x86)\Microsoft Visual Studio\2019\Community\VC\Tools\MSVC\14.29.30133\atlmfc\include\afxtempl.h
;	COMDAT ?GetAt@?$CArray@PAVCChartDataGridHeaderInfo@@PAV1@@@QAEAAPAVCChartDataGridHeaderInfo@@H@Z
_TEXT	SEGMENT
_nIndex$ = 8						; size = 4
?GetAt@?$CArray@PAVCChartDataGridHeaderInfo@@PAV1@@@QAEAAPAVCChartDataGridHeaderInfo@@H@Z PROC ; CArray<CChartDataGridHeaderInfo *,CChartDataGridHeaderInfo *>::GetAt, COMDAT
; _this$ = ecx

; 286  : {

  00000	55		 push	 ebp
  00001	8b ec		 mov	 ebp, esp

; 287  : 	ASSERT(nIndex >= 0 && nIndex < m_nSize);
; 288  : 	if(nIndex >= 0 && nIndex < m_nSize)

  00003	8b 55 08	 mov	 edx, DWORD PTR _nIndex$[ebp]
  00006	85 d2		 test	 edx, edx
  00008	78 0f		 js	 SHORT $LN2@GetAt
  0000a	3b 51 08	 cmp	 edx, DWORD PTR [ecx+8]
  0000d	7d 0a		 jge	 SHORT $LN2@GetAt

; 289  : 		return m_pData[nIndex];

  0000f	8b 41 04	 mov	 eax, DWORD PTR [ecx+4]
  00012	8d 04 90	 lea	 eax, DWORD PTR [eax+edx*4]

; 291  : }

  00015	5d		 pop	 ebp
  00016	c2 04 00	 ret	 4
$LN2@GetAt:

; 290  : 	AfxThrowInvalidArgException();

  00019	e8 00 00 00 00	 call	 ?AfxThrowInvalidArgException@@YGXXZ ; AfxThrowInvalidArgException
$LN4@GetAt:
  0001e	cc		 int	 3
?GetAt@?$CArray@PAVCChartDataGridHeaderInfo@@PAV1@@@QAEAAPAVCChartDataGridHeaderInfo@@H@Z ENDP ; CArray<CChartDataGridHeaderInfo *,CChartDataGridHeaderInfo *>::GetAt
_TEXT	ENDS
; Function compile flags: /Ogtp
; File C:\Program Files (x86)\Microsoft Visual Studio\2019\Community\VC\Tools\MSVC\14.29.30133\atlmfc\include\afxtempl.h
; File C:\Program Files (x86)\Windows Kits\10\Include\10.0.22000.0\ucrt\corecrt_memcpy_s.h
; File C:\Program Files (x86)\Microsoft Visual Studio\2019\Community\VC\Tools\MSVC\14.29.30133\atlmfc\include\atlchecked.h
; File C:\Program Files (x86)\Microsoft Visual Studio\2019\Community\VC\Tools\MSVC\14.29.30133\atlmfc\include\afxtempl.h
; File C:\Program Files (x86)\Windows Kits\10\Include\10.0.22000.0\ucrt\corecrt_memcpy_s.h
; File C:\Program Files (x86)\Microsoft Visual Studio\2019\Community\VC\Tools\MSVC\14.29.30133\atlmfc\include\atlchecked.h
; File C:\Program Files (x86)\Windows Kits\10\Include\10.0.22000.0\ucrt\corecrt_memcpy_s.h
; File C:\Program Files (x86)\Microsoft Visual Studio\2019\Community\VC\Tools\MSVC\14.29.30133\atlmfc\include\afxtempl.h
;	COMDAT ?SetSize@?$CArray@PAVCChartDataGridHeaderInfo@@PAV1@@@QAEXHH@Z
_TEXT	SEGMENT
__N$1$ = -4						; size = 4
__S2$1$ = 8						; size = 4
_nNewSize$ = 8						; size = 4
_pNewData$1$ = 12					; size = 4
_nGrowBy$ = 12						; size = 4
?SetSize@?$CArray@PAVCChartDataGridHeaderInfo@@PAV1@@@QAEXHH@Z PROC ; CArray<CChartDataGridHeaderInfo *,CChartDataGridHeaderInfo *>::SetSize, COMDAT
; _this$ = ecx

; 368  : {

  00000	55		 push	 ebp
  00001	8b ec		 mov	 ebp, esp
  00003	51		 push	 ecx
  00004	53		 push	 ebx
  00005	56		 push	 esi

; 369  : 	ASSERT_VALID(this);
; 370  : 	ASSERT(nNewSize >= 0);
; 371  : 
; 372  : 	if(nNewSize < 0 )

  00006	8b 75 08	 mov	 esi, DWORD PTR _nNewSize$[ebp]
  00009	8b d9		 mov	 ebx, ecx
  0000b	57		 push	 edi
  0000c	85 f6		 test	 esi, esi
  0000e	0f 88 c2 01 00
	00		 js	 $LN70@SetSize

; 373  : 		AfxThrowInvalidArgException();
; 374  : 
; 375  : 	if (nGrowBy >= 0)

  00014	8b 45 0c	 mov	 eax, DWORD PTR _nGrowBy$[ebp]
  00017	85 c0		 test	 eax, eax
  00019	78 03		 js	 SHORT $LN69@SetSize

; 376  : 		m_nGrowBy = nGrowBy;  // set new size

  0001b	89 43 10	 mov	 DWORD PTR [ebx+16], eax
$LN69@SetSize:

; 377  : 
; 378  : 	if (nNewSize == 0)

  0001e	8b 4b 04	 mov	 ecx, DWORD PTR [ebx+4]
  00021	85 f6		 test	 esi, esi
  00023	75 27		 jne	 SHORT $LN19@SetSize

; 379  : 	{
; 380  : 		// shrink to nothing
; 381  : 		if (m_pData != NULL)

  00025	85 c9		 test	 ecx, ecx
  00027	74 0c		 je	 SHORT $LN21@SetSize

; 382  : 		{
; 383  : 			for( int i = 0; i < m_nSize; i++ )
; 384  : 				(m_pData + i)->~TYPE();
; 385  : 			delete[] (BYTE*)m_pData;

  00029	51		 push	 ecx
  0002a	e8 00 00 00 00	 call	 ??_V@YAXPAX@Z		; operator delete[]
  0002f	83 c4 04	 add	 esp, 4

; 386  : 			m_pData = NULL;

  00032	89 73 04	 mov	 DWORD PTR [ebx+4], esi
$LN21@SetSize:

; 472  : 		m_nSize = nNewSize;
; 473  : 		m_nMaxSize = nNewMax;
; 474  : 	}
; 475  : }

  00035	5f		 pop	 edi
  00036	5e		 pop	 esi
  00037	c7 43 0c 00 00
	00 00		 mov	 DWORD PTR [ebx+12], 0
  0003e	c7 43 08 00 00
	00 00		 mov	 DWORD PTR [ebx+8], 0
  00045	5b		 pop	 ebx
  00046	8b e5		 mov	 esp, ebp
  00048	5d		 pop	 ebp
  00049	c2 08 00	 ret	 8
$LN19@SetSize:

; 387  : 		}
; 388  : 		m_nSize = m_nMaxSize = 0;
; 389  : 	}
; 390  : 	else if (m_pData == NULL)

  0004c	85 c9		 test	 ecx, ecx
  0004e	75 36		 jne	 SHORT $LN22@SetSize

; 391  : 	{
; 392  : 		// create buffer big enough to hold number of requested elements or
; 393  : 		// m_nGrowBy elements, whichever is larger.
; 394  : #ifdef SIZE_T_MAX
; 395  : 		ASSERT(nNewSize <= SIZE_T_MAX/sizeof(TYPE));    // no overflow
; 396  : #endif
; 397  : 		size_t nAllocSize = __max(nNewSize, m_nGrowBy);

  00050	8b 7b 10	 mov	 edi, DWORD PTR [ebx+16]
  00053	3b f7		 cmp	 esi, edi
  00055	0f 4f fe	 cmovg	 edi, esi

; 398  : 		m_pData = (TYPE*) new BYTE[(size_t)nAllocSize * sizeof(TYPE)];

  00058	8d 34 bd 00 00
	00 00		 lea	 esi, DWORD PTR [edi*4]
  0005f	56		 push	 esi
  00060	e8 00 00 00 00	 call	 ??_U@YAPAXI@Z		; operator new[]

; 399  : 		memset((void*)m_pData, 0, (size_t)nAllocSize * sizeof(TYPE));

  00065	56		 push	 esi
  00066	6a 00		 push	 0
  00068	50		 push	 eax
  00069	89 43 04	 mov	 DWORD PTR [ebx+4], eax
  0006c	e8 00 00 00 00	 call	 _memset

; 400  : 		for( int i = 0; i < nNewSize; i++ )
; 401  : #pragma push_macro("new")
; 402  : #undef new
; 403  : 			::new( (void*)( m_pData + i ) ) TYPE;
; 404  : #pragma pop_macro("new")
; 405  : 		m_nSize = nNewSize;

  00071	8b 45 08	 mov	 eax, DWORD PTR _nNewSize$[ebp]
  00074	83 c4 10	 add	 esp, 16			; 00000010H

; 472  : 		m_nSize = nNewSize;
; 473  : 		m_nMaxSize = nNewMax;
; 474  : 	}
; 475  : }

  00077	89 7b 0c	 mov	 DWORD PTR [ebx+12], edi
  0007a	89 43 08	 mov	 DWORD PTR [ebx+8], eax
  0007d	5f		 pop	 edi
  0007e	5e		 pop	 esi
  0007f	5b		 pop	 ebx
  00080	8b e5		 mov	 esp, ebp
  00082	5d		 pop	 ebp
  00083	c2 08 00	 ret	 8
$LN22@SetSize:

; 406  : 		m_nMaxSize = nAllocSize;
; 407  : 	}
; 408  : 	else if (nNewSize <= m_nMaxSize)

  00086	8b 7b 0c	 mov	 edi, DWORD PTR [ebx+12]
  00089	3b f7		 cmp	 esi, edi
  0008b	7f 29		 jg	 SHORT $LN24@SetSize

; 409  : 	{
; 410  : 		// it fits
; 411  : 		if (nNewSize > m_nSize)

  0008d	8b 53 08	 mov	 edx, DWORD PTR [ebx+8]
  00090	3b f2		 cmp	 esi, edx
  00092	7e 16		 jle	 SHORT $LN26@SetSize

; 412  : 		{
; 413  : 			// initialize the new elements
; 414  : 			memset((void*)(m_pData + m_nSize), 0, (size_t)(nNewSize-m_nSize) * sizeof(TYPE));

  00094	8b c6		 mov	 eax, esi
  00096	2b c2		 sub	 eax, edx
  00098	c1 e0 02	 shl	 eax, 2
  0009b	50		 push	 eax
  0009c	8d 04 91	 lea	 eax, DWORD PTR [ecx+edx*4]
  0009f	6a 00		 push	 0
  000a1	50		 push	 eax
  000a2	e8 00 00 00 00	 call	 _memset
  000a7	83 c4 0c	 add	 esp, 12			; 0000000cH
$LN26@SetSize:

; 415  : 			for( int i = 0; i < nNewSize-m_nSize; i++ )
; 416  : #pragma push_macro("new")
; 417  : #undef new
; 418  : 				::new( (void*)( m_pData + m_nSize + i ) ) TYPE;
; 419  : #pragma pop_macro("new")
; 420  : 		}
; 421  : 		else if (m_nSize > nNewSize)
; 422  : 		{
; 423  : 			// destroy the old elements
; 424  : 			for( int i = 0; i < m_nSize-nNewSize; i++ )
; 425  : 				(m_pData + nNewSize + i)->~TYPE();
; 426  : 		}
; 427  : 		m_nSize = nNewSize;

  000aa	5f		 pop	 edi
  000ab	89 73 08	 mov	 DWORD PTR [ebx+8], esi

; 472  : 		m_nSize = nNewSize;
; 473  : 		m_nMaxSize = nNewMax;
; 474  : 	}
; 475  : }

  000ae	5e		 pop	 esi
  000af	5b		 pop	 ebx
  000b0	8b e5		 mov	 esp, ebp
  000b2	5d		 pop	 ebp
  000b3	c2 08 00	 ret	 8
$LN24@SetSize:

; 428  : 	}
; 429  : 	else
; 430  : 	{
; 431  : 		// otherwise, grow array
; 432  : 		nGrowBy = m_nGrowBy;

  000b6	8b 43 10	 mov	 eax, DWORD PTR [ebx+16]

; 433  : 		if (nGrowBy == 0)

  000b9	85 c0		 test	 eax, eax
  000bb	75 22		 jne	 SHORT $LN37@SetSize

; 434  : 		{
; 435  : 			// heuristically determine growth when nGrowBy == 0
; 436  : 			//  (this avoids heap fragmentation in many situations)
; 437  : 			nGrowBy = m_nSize / 8;

  000bd	8b 43 08	 mov	 eax, DWORD PTR [ebx+8]
  000c0	99		 cdq
  000c1	83 e2 07	 and	 edx, 7
  000c4	03 c2		 add	 eax, edx
  000c6	c1 f8 03	 sar	 eax, 3

; 438  : 			nGrowBy = (nGrowBy < 4) ? 4 : ((nGrowBy > 1024) ? 1024 : nGrowBy);

  000c9	83 f8 04	 cmp	 eax, 4
  000cc	7d 07		 jge	 SHORT $LN36@SetSize
  000ce	b8 04 00 00 00	 mov	 eax, 4
  000d3	eb 0a		 jmp	 SHORT $LN37@SetSize
$LN36@SetSize:
  000d5	b9 00 04 00 00	 mov	 ecx, 1024		; 00000400H
  000da	3b c1		 cmp	 eax, ecx
  000dc	0f 4f c1	 cmovg	 eax, ecx
$LN37@SetSize:

; 439  : 		}
; 440  : 		INT_PTR nNewMax;
; 441  : 		if (nNewSize < m_nMaxSize + nGrowBy)

  000df	03 f8		 add	 edi, eax
  000e1	3b f7		 cmp	 esi, edi
  000e3	7d 0b		 jge	 SHORT $LN30@SetSize

; 445  : 
; 446  : 		ASSERT(nNewMax >= m_nMaxSize);  // no wrap around
; 447  : 
; 448  : 		if(nNewMax  < m_nMaxSize)

  000e5	3b 7b 0c	 cmp	 edi, DWORD PTR [ebx+12]
  000e8	0f 8c e8 00 00
	00		 jl	 $LN70@SetSize
  000ee	eb 02		 jmp	 SHORT $LN32@SetSize
$LN30@SetSize:

; 442  : 			nNewMax = m_nMaxSize + nGrowBy;  // granularity
; 443  : 		else
; 444  : 			nNewMax = nNewSize;  // no slush

  000f0	8b fe		 mov	 edi, esi
$LN32@SetSize:

; 450  : 
; 451  : #ifdef SIZE_T_MAX
; 452  : 		ASSERT(nNewMax <= SIZE_T_MAX/sizeof(TYPE)); // no overflow
; 453  : #endif
; 454  : 		TYPE* pNewData = (TYPE*) new BYTE[(size_t)nNewMax * sizeof(TYPE)];

  000f2	8d 04 bd 00 00
	00 00		 lea	 eax, DWORD PTR [edi*4]
  000f9	50		 push	 eax
  000fa	e8 00 00 00 00	 call	 ??_U@YAPAXI@Z		; operator new[]

; 455  : 
; 456  : 		// copy new data from old
; 457  : 		::ATL::Checked::memcpy_s(pNewData, (size_t)nNewMax * sizeof(TYPE),

  000ff	8b 53 04	 mov	 edx, DWORD PTR [ebx+4]
  00102	8b c8		 mov	 ecx, eax
  00104	8b 43 08	 mov	 eax, DWORD PTR [ebx+8]
  00107	83 c4 04	 add	 esp, 4
  0010a	c1 e0 02	 shl	 eax, 2
  0010d	89 4d 0c	 mov	 DWORD PTR _pNewData$1$[ebp], ecx
  00110	89 45 fc	 mov	 DWORD PTR __N$1$[ebp], eax
  00113	89 55 08	 mov	 DWORD PTR __S2$1$[ebp], edx
; File C:\Program Files (x86)\Windows Kits\10\Include\10.0.22000.0\ucrt\corecrt_memcpy_s.h

; 46   :         if (_SourceSize == 0)

  00116	85 c0		 test	 eax, eax
  00118	74 76		 je	 SHORT $LN74@SetSize

; 47   :         {
; 48   :             return 0;
; 49   :         }
; 50   : 
; 51   :         _CRT_MEMCPY_S_VALIDATE_RETURN_ERRCODE(_Destination != NULL, EINVAL);

  0011a	85 c9		 test	 ecx, ecx
  0011c	75 56		 jne	 SHORT $LN42@SetSize
$LN73@SetSize:
; File C:\Program Files (x86)\Microsoft Visual Studio\2019\Community\VC\Tools\MSVC\14.29.30133\atlmfc\include\atlchecked.h

; 69   : 	ATLMFC_CRT_ERRORCHECK(::memcpy_s(_S1, _S1max, _S2, _N));

  0011e	ff 15 00 00 00
	00		 call	 DWORD PTR __imp___errno
  00124	c7 00 16 00 00
	00		 mov	 DWORD PTR [eax], 22	; 00000016H
  0012a	ff 15 00 00 00
	00		 call	 DWORD PTR __imp___invalid_parameter_noinfo
$LN46@SetSize:
  00130	b8 16 00 00 00	 mov	 eax, 22			; 00000016H
$LN40@SetSize:
  00135	50		 push	 eax
  00136	e8 00 00 00 00	 call	 ?AfxCrtErrorCheck@@YAHH@Z ; AfxCrtErrorCheck
; File C:\Program Files (x86)\Microsoft Visual Studio\2019\Community\VC\Tools\MSVC\14.29.30133\atlmfc\include\afxtempl.h

; 462  : 		memset((void*)(pNewData + m_nSize), 0, (size_t)(nNewSize-m_nSize) * sizeof(TYPE));

  0013b	8b 4b 08	 mov	 ecx, DWORD PTR [ebx+8]
  0013e	8b c6		 mov	 eax, esi
  00140	2b c1		 sub	 eax, ecx
  00142	c1 e0 02	 shl	 eax, 2
  00145	50		 push	 eax
  00146	8b 45 0c	 mov	 eax, DWORD PTR _pNewData$1$[ebp]
  00149	6a 00		 push	 0
  0014b	8d 04 88	 lea	 eax, DWORD PTR [eax+ecx*4]
  0014e	50		 push	 eax
  0014f	e8 00 00 00 00	 call	 _memset

; 463  : 		for( int i = 0; i < nNewSize-m_nSize; i++ )
; 464  : #pragma push_macro("new")
; 465  : #undef new
; 466  : 			::new( (void*)( pNewData + m_nSize + i ) ) TYPE;
; 467  : #pragma pop_macro("new")
; 468  : 
; 469  : 		// get rid of old stuff (note: no destructors called)
; 470  : 		delete[] (BYTE*)m_pData;

  00154	ff 73 04	 push	 DWORD PTR [ebx+4]
  00157	e8 00 00 00 00	 call	 ??_V@YAXPAX@Z		; operator delete[]

; 471  : 		m_pData = pNewData;

  0015c	8b 45 0c	 mov	 eax, DWORD PTR _pNewData$1$[ebp]
  0015f	83 c4 14	 add	 esp, 20			; 00000014H

; 472  : 		m_nSize = nNewSize;
; 473  : 		m_nMaxSize = nNewMax;
; 474  : 	}
; 475  : }

  00162	89 7b 0c	 mov	 DWORD PTR [ebx+12], edi
  00165	89 73 08	 mov	 DWORD PTR [ebx+8], esi
  00168	89 43 04	 mov	 DWORD PTR [ebx+4], eax
  0016b	5f		 pop	 edi
  0016c	5e		 pop	 esi
  0016d	5b		 pop	 ebx
  0016e	8b e5		 mov	 esp, ebp
  00170	5d		 pop	 ebp
  00171	c2 08 00	 ret	 8
$LN42@SetSize:
; File C:\Program Files (x86)\Windows Kits\10\Include\10.0.22000.0\ucrt\corecrt_memcpy_s.h

; 52   :         if (_Source == NULL || _DestinationSize < _SourceSize)

  00174	85 d2		 test	 edx, edx
  00176	8d 14 bd 00 00
	00 00		 lea	 edx, DWORD PTR [edi*4]
  0017d	74 15		 je	 SHORT $LN44@SetSize
  0017f	3b d0		 cmp	 edx, eax
  00181	72 11		 jb	 SHORT $LN44@SetSize

; 58   : 
; 59   :             // Unreachable, but required to suppress /analyze warnings:
; 60   :             return EINVAL;
; 61   :         }
; 62   :         memcpy(_Destination, _Source, _SourceSize);

  00183	50		 push	 eax
  00184	ff 75 08	 push	 DWORD PTR __S2$1$[ebp]
  00187	51		 push	 ecx
  00188	e8 00 00 00 00	 call	 _memcpy
  0018d	83 c4 0c	 add	 esp, 12			; 0000000cH
$LN74@SetSize:
; File C:\Program Files (x86)\Microsoft Visual Studio\2019\Community\VC\Tools\MSVC\14.29.30133\atlmfc\include\atlchecked.h

; 69   : 	ATLMFC_CRT_ERRORCHECK(::memcpy_s(_S1, _S1max, _S2, _N));

  00190	33 c0		 xor	 eax, eax
  00192	eb a1		 jmp	 SHORT $LN40@SetSize
$LN44@SetSize:
; File C:\Program Files (x86)\Windows Kits\10\Include\10.0.22000.0\ucrt\corecrt_memcpy_s.h

; 54   :             memset(_Destination, 0, _DestinationSize);

  00194	52		 push	 edx
  00195	6a 00		 push	 0
  00197	51		 push	 ecx
  00198	e8 00 00 00 00	 call	 _memset
  0019d	83 c4 0c	 add	 esp, 12			; 0000000cH

; 55   : 
; 56   :             _CRT_MEMCPY_S_VALIDATE_RETURN_ERRCODE(_Source != NULL,                 EINVAL);

  001a0	83 7d 08 00	 cmp	 DWORD PTR __S2$1$[ebp], 0
  001a4	0f 84 74 ff ff
	ff		 je	 $LN73@SetSize

; 57   :             _CRT_MEMCPY_S_VALIDATE_RETURN_ERRCODE(_DestinationSize >= _SourceSize, ERANGE);

  001aa	8d 04 bd 00 00
	00 00		 lea	 eax, DWORD PTR [edi*4]
  001b1	3b 45 fc	 cmp	 eax, DWORD PTR __N$1$[ebp]
  001b4	0f 83 76 ff ff
	ff		 jae	 $LN46@SetSize
  001ba	ff 15 00 00 00
	00		 call	 DWORD PTR __imp___errno
  001c0	c7 00 22 00 00
	00		 mov	 DWORD PTR [eax], 34	; 00000022H
  001c6	ff 15 00 00 00
	00		 call	 DWORD PTR __imp___invalid_parameter_noinfo
  001cc	b8 22 00 00 00	 mov	 eax, 34			; 00000022H
  001d1	e9 5f ff ff ff	 jmp	 $LN40@SetSize
$LN70@SetSize:
; File C:\Program Files (x86)\Microsoft Visual Studio\2019\Community\VC\Tools\MSVC\14.29.30133\atlmfc\include\afxtempl.h

; 449  : 			AfxThrowInvalidArgException();

  001d6	e8 00 00 00 00	 call	 ?AfxThrowInvalidArgException@@YGXXZ ; AfxThrowInvalidArgException
$LN72@SetSize:
  001db	cc		 int	 3
?SetSize@?$CArray@PAVCChartDataGridHeaderInfo@@PAV1@@@QAEXHH@Z ENDP ; CArray<CChartDataGridHeaderInfo *,CChartDataGridHeaderInfo *>::SetSize
_TEXT	ENDS
; Function compile flags: /Ogtp
; File C:\Program Files (x86)\Microsoft Visual Studio\2019\Community\VC\Tools\MSVC\14.29.30133\atlmfc\include\afxtempl.h
;	COMDAT ??0?$CArray@PAVCChartDataGridHeaderInfo@@PAV1@@@QAE@XZ
_TEXT	SEGMENT
??0?$CArray@PAVCChartDataGridHeaderInfo@@PAV1@@@QAE@XZ PROC ; CArray<CChartDataGridHeaderInfo *,CChartDataGridHeaderInfo *>::CArray<CChartDataGridHeaderInfo *,CChartDataGridHeaderInfo *>, COMDAT
; _this$ = ecx

; 348  : {

  00000	c7 01 00 00 00
	00		 mov	 DWORD PTR [ecx], OFFSET ??_7?$CArray@PAVCChartDataGridHeaderInfo@@PAV1@@@6B@

; 349  : 	m_pData = NULL;
; 350  : 	m_nSize = m_nMaxSize = m_nGrowBy = 0;
; 351  : }

  00006	8b c1		 mov	 eax, ecx
  00008	c7 41 04 00 00
	00 00		 mov	 DWORD PTR [ecx+4], 0
  0000f	c7 41 10 00 00
	00 00		 mov	 DWORD PTR [ecx+16], 0
  00016	c7 41 0c 00 00
	00 00		 mov	 DWORD PTR [ecx+12], 0
  0001d	c7 41 08 00 00
	00 00		 mov	 DWORD PTR [ecx+8], 0
  00024	c3		 ret	 0
??0?$CArray@PAVCChartDataGridHeaderInfo@@PAV1@@@QAE@XZ ENDP ; CArray<CChartDataGridHeaderInfo *,CChartDataGridHeaderInfo *>::CArray<CChartDataGridHeaderInfo *,CChartDataGridHeaderInfo *>
_TEXT	ENDS
; Function compile flags: /Ogtp
;	COMDAT ??0CChartDataGridHeaderInfo@@QAE@XZ
_TEXT	SEGMENT
??0CChartDataGridHeaderInfo@@QAE@XZ PROC		; CChartDataGridHeaderInfo::CChartDataGridHeaderInfo, COMDAT
; _this$ = ecx
  00000	56		 push	 esi
  00001	8b f1		 mov	 esi, ecx
  00003	ff 15 00 00 00
	00		 call	 DWORD PTR __imp_??0?$CStringT@DV?$StrTraitMFC_DLL@DV?$ChTraitsCRT@D@ATL@@@@@ATL@@QAE@XZ
  00009	8d 4e 04	 lea	 ecx, DWORD PTR [esi+4]
  0000c	ff 15 00 00 00
	00		 call	 DWORD PTR __imp_??0?$CStringT@DV?$StrTraitMFC_DLL@DV?$ChTraitsCRT@D@ATL@@@@@ATL@@QAE@XZ
  00012	8d 4e 08	 lea	 ecx, DWORD PTR [esi+8]
  00015	ff 15 00 00 00
	00		 call	 DWORD PTR __imp_??0?$CStringT@DV?$StrTraitMFC_DLL@DV?$ChTraitsCRT@D@ATL@@@@@ATL@@QAE@XZ
  0001b	8b c6		 mov	 eax, esi
  0001d	5e		 pop	 esi
  0001e	c3		 ret	 0
??0CChartDataGridHeaderInfo@@QAE@XZ ENDP		; CChartDataGridHeaderInfo::CChartDataGridHeaderInfo
_TEXT	ENDS
; Function compile flags: /Ogtp
;	COMDAT ??0CChartRecordSet@@QAE@XZ
_TEXT	SEGMENT
__$EHRec$ = -12						; size = 12
??0CChartRecordSet@@QAE@XZ PROC				; CChartRecordSet::CChartRecordSet, COMDAT
; _this$ = ecx
  00000	55		 push	 ebp
  00001	8b ec		 mov	 ebp, esp
  00003	6a ff		 push	 -1
  00005	68 00 00 00 00	 push	 __ehhandler$??0CChartRecordSet@@QAE@XZ
  0000a	64 a1 00 00 00
	00		 mov	 eax, DWORD PTR fs:0
  00010	50		 push	 eax
  00011	56		 push	 esi
  00012	a1 00 00 00 00	 mov	 eax, DWORD PTR ___security_cookie
  00017	33 c5		 xor	 eax, ebp
  00019	50		 push	 eax
  0001a	8d 45 f4	 lea	 eax, DWORD PTR __$EHRec$[ebp]
  0001d	64 a3 00 00 00
	00		 mov	 DWORD PTR fs:0, eax
  00023	8b f1		 mov	 esi, ecx
  00025	ff 35 00 00 00
	00		 push	 DWORD PTR __imp_??1?$CStringT@DV?$StrTraitMFC_DLL@DV?$ChTraitsCRT@D@ATL@@@@@ATL@@QAE@XZ
  0002b	ff 35 00 00 00
	00		 push	 DWORD PTR __imp_??0?$CStringT@DV?$StrTraitMFC_DLL@DV?$ChTraitsCRT@D@ATL@@@@@ATL@@QAE@XZ
  00031	6a 06		 push	 6
  00033	6a 04		 push	 4
  00035	56		 push	 esi
  00036	e8 00 00 00 00	 call	 ??_L@YGXPAXIIP6EX0@Z1@Z
  0003b	8b c6		 mov	 eax, esi
  0003d	8b 4d f4	 mov	 ecx, DWORD PTR __$EHRec$[ebp]
  00040	64 89 0d 00 00
	00 00		 mov	 DWORD PTR fs:0, ecx
  00047	59		 pop	 ecx
  00048	5e		 pop	 esi
  00049	8b e5		 mov	 esp, ebp
  0004b	5d		 pop	 ebp
  0004c	c3		 ret	 0
  0004d	cc		 int	 3
  0004e	cc		 int	 3
  0004f	cc		 int	 3
  00050	cc		 int	 3
  00051	cc		 int	 3
_TEXT	ENDS
;	COMDAT text$x
text$x	SEGMENT
__ehhandler$??0CChartRecordSet@@QAE@XZ:
  00000	90		 npad	 1
  00001	90		 npad	 1
  00002	8b 54 24 08	 mov	 edx, DWORD PTR [esp+8]
  00006	8d 42 0c	 lea	 eax, DWORD PTR [edx+12]
  00009	8b 4a f8	 mov	 ecx, DWORD PTR [edx-8]
  0000c	33 c8		 xor	 ecx, eax
  0000e	e8 00 00 00 00	 call	 @__security_check_cookie@4
  00013	b8 00 00 00 00	 mov	 eax, OFFSET __ehfuncinfo$??0CChartRecordSet@@QAE@XZ
  00018	e9 00 00 00 00	 jmp	 ___CxxFrameHandler3
text$x	ENDS
??0CChartRecordSet@@QAE@XZ ENDP				; CChartRecordSet::CChartRecordSet
; Function compile flags: /Ogtp
; File D:\git\src\IBK\IBK_DRFN\ProjSrc\SrcChartEx\ChartAddIn\ChartDataListViewerAddIn\ChartDataListViewerAddIn\ChartDataSimulatorAddInImp.h
;	COMDAT ??4CChartRecordSet@@QAEAAV0@AAV0@@Z
_TEXT	SEGMENT
_this$1$ = -4						; size = 4
_Record$ = 8						; size = 4
??4CChartRecordSet@@QAEAAV0@AAV0@@Z PROC		; CChartRecordSet::operator=, COMDAT
; _this$ = ecx

; 42   : 	{

  00000	55		 push	 ebp
  00001	8b ec		 mov	 ebp, esp
  00003	51		 push	 ecx
  00004	53		 push	 ebx

; 43   : 		for(int i = 0 ; i < COL_SIZE ; i++)

  00005	8b 5d 08	 mov	 ebx, DWORD PTR _Record$[ebp]
  00008	8b c1		 mov	 eax, ecx
  0000a	56		 push	 esi
  0000b	57		 push	 edi
  0000c	89 45 fc	 mov	 DWORD PTR _this$1$[ebp], eax
  0000f	8b f0		 mov	 esi, eax
  00011	2b d8		 sub	 ebx, eax
  00013	bf 06 00 00 00	 mov	 edi, 6
$LL4@operator:

; 44   : 			m_Data[i] = Record.m_Data[i];

  00018	8d 04 33	 lea	 eax, DWORD PTR [ebx+esi]
  0001b	8b ce		 mov	 ecx, esi
  0001d	50		 push	 eax
  0001e	ff 15 00 00 00
	00		 call	 DWORD PTR __imp_??4?$CStringT@DV?$StrTraitMFC_DLL@DV?$ChTraitsCRT@D@ATL@@@@@ATL@@QAEAAV01@ABV01@@Z
  00024	83 c6 04	 add	 esi, 4
  00027	83 ef 01	 sub	 edi, 1
  0002a	75 ec		 jne	 SHORT $LL4@operator

; 45   : 		return *this;

  0002c	8b 45 fc	 mov	 eax, DWORD PTR _this$1$[ebp]
  0002f	5f		 pop	 edi
  00030	5e		 pop	 esi
  00031	5b		 pop	 ebx

; 46   : 	}

  00032	8b e5		 mov	 esp, ebp
  00034	5d		 pop	 ebp
  00035	c2 04 00	 ret	 4
??4CChartRecordSet@@QAEAAV0@AAV0@@Z ENDP		; CChartRecordSet::operator=
_TEXT	ENDS
; Function compile flags: /Ogtp
; File C:\Program Files (x86)\Microsoft Visual Studio\2019\Community\VC\Tools\MSVC\14.29.30133\atlmfc\include\afxwin2.inl
;	COMDAT ?Create@CDialog@@UAEHIPAVCWnd@@@Z
_TEXT	SEGMENT
_nIDTemplate$ = 8					; size = 4
_pParentWnd$ = 12					; size = 4
?Create@CDialog@@UAEHIPAVCWnd@@@Z PROC			; CDialog::Create, COMDAT
; _this$ = ecx

; 585  : 	{ return CDialog::Create(ATL_MAKEINTRESOURCE(nIDTemplate), pParentWnd); }

  00000	55		 push	 ebp
  00001	8b ec		 mov	 ebp, esp
  00003	0f b7 45 08	 movzx	 eax, WORD PTR _nIDTemplate$[ebp]
  00007	89 45 08	 mov	 DWORD PTR _nIDTemplate$[ebp], eax
  0000a	5d		 pop	 ebp
  0000b	e9 00 00 00 00	 jmp	 ?Create@CDialog@@UAEHPBDPAVCWnd@@@Z ; CDialog::Create
?Create@CDialog@@UAEHIPAVCWnd@@@Z ENDP			; CDialog::Create
_TEXT	ENDS
; Function compile flags: /Ogtp
; File C:\Program Files (x86)\Microsoft Visual Studio\2019\Community\VC\Tools\MSVC\14.29.30133\atlmfc\include\afxwin2.inl
;	COMDAT ?EndModalState@CWnd@@UAEXXZ
_TEXT	SEGMENT
?EndModalState@CWnd@@UAEXXZ PROC			; CWnd::EndModalState, COMDAT
; _this$ = ecx

; 567  : 	{ ::EnableWindow(m_hWnd, TRUE); }

  00000	6a 01		 push	 1
  00002	ff 71 20	 push	 DWORD PTR [ecx+32]
  00005	ff 15 00 00 00
	00		 call	 DWORD PTR __imp__EnableWindow@8
  0000b	c3		 ret	 0
?EndModalState@CWnd@@UAEXXZ ENDP			; CWnd::EndModalState
_TEXT	ENDS
; Function compile flags: /Ogtp
; File C:\Program Files (x86)\Microsoft Visual Studio\2019\Community\VC\Tools\MSVC\14.29.30133\atlmfc\include\afxwin2.inl
;	COMDAT ?BeginModalState@CWnd@@UAEXXZ
_TEXT	SEGMENT
?BeginModalState@CWnd@@UAEXXZ PROC			; CWnd::BeginModalState, COMDAT
; _this$ = ecx

; 565  : 	{ ::EnableWindow(m_hWnd, FALSE); }

  00000	6a 00		 push	 0
  00002	ff 71 20	 push	 DWORD PTR [ecx+32]
  00005	ff 15 00 00 00
	00		 call	 DWORD PTR __imp__EnableWindow@8
  0000b	c3		 ret	 0
?BeginModalState@CWnd@@UAEXXZ ENDP			; CWnd::BeginModalState
_TEXT	ENDS
; Function compile flags: /Ogtp
; File C:\Program Files (x86)\Microsoft Visual Studio\2019\Community\VC\Tools\MSVC\14.29.30133\atlmfc\include\afxwin2.inl
;	COMDAT ?DoDataExchange@CWnd@@MAEXPAVCDataExchange@@@Z
_TEXT	SEGMENT
___formal$ = 8						; size = 4
?DoDataExchange@CWnd@@MAEXPAVCDataExchange@@@Z PROC	; CWnd::DoDataExchange, COMDAT
; _this$ = ecx

; 561  : 	{ } // default does nothing

  00000	c2 04 00	 ret	 4
?DoDataExchange@CWnd@@MAEXPAVCDataExchange@@@Z ENDP	; CWnd::DoDataExchange
_TEXT	ENDS
; Function compile flags: /Ogtp
; File C:\Program Files (x86)\Microsoft Visual Studio\2019\Community\VC\Tools\MSVC\14.29.30133\atlmfc\include\atltime.h
;	COMDAT ?GetSecond@CTime@ATL@@QBEHXZ
_TEXT	SEGMENT
_ptmTemp$1 = -40					; size = 36
__$ArrayPad$ = -4					; size = 4
?GetSecond@CTime@ATL@@QBEHXZ PROC			; ATL::CTime::GetSecond, COMDAT
; _this$ = ecx

; 702  : {

  00000	55		 push	 ebp
  00001	8b ec		 mov	 ebp, esp
  00003	83 ec 28	 sub	 esp, 40			; 00000028H
  00006	a1 00 00 00 00	 mov	 eax, DWORD PTR ___security_cookie
  0000b	33 c5		 xor	 eax, ebp
  0000d	89 45 fc	 mov	 DWORD PTR __$ArrayPad$[ebp], eax

; 614  : 		errno_t err = _localtime64_s(&ptmTemp, &m_time);

  00010	51		 push	 ecx
  00011	8d 45 d8	 lea	 eax, DWORD PTR _ptmTemp$1[ebp]
  00014	50		 push	 eax
  00015	ff 15 00 00 00
	00		 call	 DWORD PTR __imp___localtime64_s

; 615  : 
; 616  : 		if (err != 0)

  0001b	83 c9 ff	 or	 ecx, -1
  0001e	83 c4 08	 add	 esp, 8
  00021	85 c0		 test	 eax, eax
  00023	0f 44 4d d8	 cmove	 ecx, DWORD PTR _ptmTemp$1[ebp]

; 703  : 	struct tm ttm;
; 704  : 	struct tm * ptm;
; 705  : 
; 706  : 	ptm = GetLocalTm(&ttm);
; 707  : 	return ptm ? ptm->tm_sec : -1 ;

  00027	8b c1		 mov	 eax, ecx

; 708  : }

  00029	8b 4d fc	 mov	 ecx, DWORD PTR __$ArrayPad$[ebp]
  0002c	33 cd		 xor	 ecx, ebp
  0002e	e8 00 00 00 00	 call	 @__security_check_cookie@4
  00033	8b e5		 mov	 esp, ebp
  00035	5d		 pop	 ebp
  00036	c3		 ret	 0
?GetSecond@CTime@ATL@@QBEHXZ ENDP			; ATL::CTime::GetSecond
_TEXT	ENDS
; Function compile flags: /Ogtp
; File C:\Program Files (x86)\Microsoft Visual Studio\2019\Community\VC\Tools\MSVC\14.29.30133\atlmfc\include\atltime.h
;	COMDAT ?GetMinute@CTime@ATL@@QBEHXZ
_TEXT	SEGMENT
_ptmTemp$1 = -40					; size = 36
__$ArrayPad$ = -4					; size = 4
?GetMinute@CTime@ATL@@QBEHXZ PROC			; ATL::CTime::GetMinute, COMDAT
; _this$ = ecx

; 693  : {

  00000	55		 push	 ebp
  00001	8b ec		 mov	 ebp, esp
  00003	83 ec 28	 sub	 esp, 40			; 00000028H
  00006	a1 00 00 00 00	 mov	 eax, DWORD PTR ___security_cookie
  0000b	33 c5		 xor	 eax, ebp
  0000d	89 45 fc	 mov	 DWORD PTR __$ArrayPad$[ebp], eax

; 614  : 		errno_t err = _localtime64_s(&ptmTemp, &m_time);

  00010	51		 push	 ecx
  00011	8d 45 d8	 lea	 eax, DWORD PTR _ptmTemp$1[ebp]
  00014	50		 push	 eax
  00015	ff 15 00 00 00
	00		 call	 DWORD PTR __imp___localtime64_s

; 615  : 
; 616  : 		if (err != 0)

  0001b	83 c9 ff	 or	 ecx, -1
  0001e	83 c4 08	 add	 esp, 8
  00021	85 c0		 test	 eax, eax
  00023	0f 44 4d dc	 cmove	 ecx, DWORD PTR _ptmTemp$1[ebp+4]

; 694  : 	struct tm ttm;
; 695  : 	struct tm * ptm;
; 696  : 
; 697  : 	ptm = GetLocalTm(&ttm);
; 698  : 	return ptm ? ptm->tm_min : -1 ;

  00027	8b c1		 mov	 eax, ecx

; 699  : }

  00029	8b 4d fc	 mov	 ecx, DWORD PTR __$ArrayPad$[ebp]
  0002c	33 cd		 xor	 ecx, ebp
  0002e	e8 00 00 00 00	 call	 @__security_check_cookie@4
  00033	8b e5		 mov	 esp, ebp
  00035	5d		 pop	 ebp
  00036	c3		 ret	 0
?GetMinute@CTime@ATL@@QBEHXZ ENDP			; ATL::CTime::GetMinute
_TEXT	ENDS
; Function compile flags: /Ogtp
; File C:\Program Files (x86)\Microsoft Visual Studio\2019\Community\VC\Tools\MSVC\14.29.30133\atlmfc\include\atltime.h
;	COMDAT ?GetHour@CTime@ATL@@QBEHXZ
_TEXT	SEGMENT
_ptmTemp$1 = -40					; size = 36
__$ArrayPad$ = -4					; size = 4
?GetHour@CTime@ATL@@QBEHXZ PROC				; ATL::CTime::GetHour, COMDAT
; _this$ = ecx

; 684  : {

  00000	55		 push	 ebp
  00001	8b ec		 mov	 ebp, esp
  00003	83 ec 28	 sub	 esp, 40			; 00000028H
  00006	a1 00 00 00 00	 mov	 eax, DWORD PTR ___security_cookie
  0000b	33 c5		 xor	 eax, ebp
  0000d	89 45 fc	 mov	 DWORD PTR __$ArrayPad$[ebp], eax

; 614  : 		errno_t err = _localtime64_s(&ptmTemp, &m_time);

  00010	51		 push	 ecx
  00011	8d 45 d8	 lea	 eax, DWORD PTR _ptmTemp$1[ebp]
  00014	50		 push	 eax
  00015	ff 15 00 00 00
	00		 call	 DWORD PTR __imp___localtime64_s

; 615  : 
; 616  : 		if (err != 0)

  0001b	83 c9 ff	 or	 ecx, -1
  0001e	83 c4 08	 add	 esp, 8
  00021	85 c0		 test	 eax, eax
  00023	0f 44 4d e0	 cmove	 ecx, DWORD PTR _ptmTemp$1[ebp+8]

; 685  : 	struct tm ttm;
; 686  : 	struct tm * ptm;
; 687  : 
; 688  : 	ptm = GetLocalTm(&ttm);
; 689  : 	return ptm ? ptm->tm_hour : -1 ;

  00027	8b c1		 mov	 eax, ecx

; 690  : }

  00029	8b 4d fc	 mov	 ecx, DWORD PTR __$ArrayPad$[ebp]
  0002c	33 cd		 xor	 ecx, ebp
  0002e	e8 00 00 00 00	 call	 @__security_check_cookie@4
  00033	8b e5		 mov	 esp, ebp
  00035	5d		 pop	 ebp
  00036	c3		 ret	 0
?GetHour@CTime@ATL@@QBEHXZ ENDP				; ATL::CTime::GetHour
_TEXT	ENDS
; Function compile flags: /Ogtp
; File C:\Program Files (x86)\Microsoft Visual Studio\2019\Community\VC\Tools\MSVC\14.29.30133\atlmfc\include\atltime.h
;	COMDAT ?GetDay@CTime@ATL@@QBEHXZ
_TEXT	SEGMENT
_ptmTemp$1 = -40					; size = 36
__$ArrayPad$ = -4					; size = 4
?GetDay@CTime@ATL@@QBEHXZ PROC				; ATL::CTime::GetDay, COMDAT
; _this$ = ecx

; 675  : {

  00000	55		 push	 ebp
  00001	8b ec		 mov	 ebp, esp
  00003	83 ec 28	 sub	 esp, 40			; 00000028H
  00006	a1 00 00 00 00	 mov	 eax, DWORD PTR ___security_cookie
  0000b	33 c5		 xor	 eax, ebp
  0000d	89 45 fc	 mov	 DWORD PTR __$ArrayPad$[ebp], eax

; 614  : 		errno_t err = _localtime64_s(&ptmTemp, &m_time);

  00010	51		 push	 ecx
  00011	8d 45 d8	 lea	 eax, DWORD PTR _ptmTemp$1[ebp]
  00014	50		 push	 eax
  00015	ff 15 00 00 00
	00		 call	 DWORD PTR __imp___localtime64_s

; 615  : 
; 616  : 		if (err != 0)

  0001b	33 c9		 xor	 ecx, ecx
  0001d	83 c4 08	 add	 esp, 8
  00020	85 c0		 test	 eax, eax
  00022	0f 44 4d e4	 cmove	 ecx, DWORD PTR _ptmTemp$1[ebp+12]

; 676  : 	struct tm ttm;
; 677  : 	struct tm * ptm;
; 678  : 
; 679  : 	ptm = GetLocalTm(&ttm);
; 680  : 	return ptm ? ptm->tm_mday : 0 ;

  00026	8b c1		 mov	 eax, ecx

; 681  : }

  00028	8b 4d fc	 mov	 ecx, DWORD PTR __$ArrayPad$[ebp]
  0002b	33 cd		 xor	 ecx, ebp
  0002d	e8 00 00 00 00	 call	 @__security_check_cookie@4
  00032	8b e5		 mov	 esp, ebp
  00034	5d		 pop	 ebp
  00035	c3		 ret	 0
?GetDay@CTime@ATL@@QBEHXZ ENDP				; ATL::CTime::GetDay
_TEXT	ENDS
; Function compile flags: /Ogtp
; File C:\Program Files (x86)\Microsoft Visual Studio\2019\Community\VC\Tools\MSVC\14.29.30133\atlmfc\include\atltime.h
;	COMDAT ?GetMonth@CTime@ATL@@QBEHXZ
_TEXT	SEGMENT
_ptmTemp$1 = -40					; size = 36
__$ArrayPad$ = -4					; size = 4
?GetMonth@CTime@ATL@@QBEHXZ PROC			; ATL::CTime::GetMonth, COMDAT
; _this$ = ecx

; 666  : {

  00000	55		 push	 ebp
  00001	8b ec		 mov	 ebp, esp
  00003	83 ec 28	 sub	 esp, 40			; 00000028H
  00006	a1 00 00 00 00	 mov	 eax, DWORD PTR ___security_cookie
  0000b	33 c5		 xor	 eax, ebp
  0000d	89 45 fc	 mov	 DWORD PTR __$ArrayPad$[ebp], eax

; 614  : 		errno_t err = _localtime64_s(&ptmTemp, &m_time);

  00010	51		 push	 ecx
  00011	8d 45 d8	 lea	 eax, DWORD PTR _ptmTemp$1[ebp]
  00014	50		 push	 eax
  00015	ff 15 00 00 00
	00		 call	 DWORD PTR __imp___localtime64_s
  0001b	83 c4 08	 add	 esp, 8

; 615  : 
; 616  : 		if (err != 0)

  0001e	85 c0		 test	 eax, eax
  00020	75 12		 jne	 SHORT $LN3@GetMonth

; 667  : 	struct tm ttm;
; 668  : 	struct tm * ptm;
; 669  : 
; 670  : 	ptm = GetLocalTm(&ttm);
; 671  : 	return ptm ? ptm->tm_mon + 1 : 0;

  00022	8b 45 e8	 mov	 eax, DWORD PTR _ptmTemp$1[ebp+16]
  00025	40		 inc	 eax

; 672  : }

  00026	8b 4d fc	 mov	 ecx, DWORD PTR __$ArrayPad$[ebp]
  00029	33 cd		 xor	 ecx, ebp
  0002b	e8 00 00 00 00	 call	 @__security_check_cookie@4
  00030	8b e5		 mov	 esp, ebp
  00032	5d		 pop	 ebp
  00033	c3		 ret	 0
$LN3@GetMonth:
  00034	8b 4d fc	 mov	 ecx, DWORD PTR __$ArrayPad$[ebp]
  00037	33 c0		 xor	 eax, eax
  00039	33 cd		 xor	 ecx, ebp
  0003b	e8 00 00 00 00	 call	 @__security_check_cookie@4
  00040	8b e5		 mov	 esp, ebp
  00042	5d		 pop	 ebp
  00043	c3		 ret	 0
?GetMonth@CTime@ATL@@QBEHXZ ENDP			; ATL::CTime::GetMonth
_TEXT	ENDS
; Function compile flags: /Ogtp
; File C:\Program Files (x86)\Microsoft Visual Studio\2019\Community\VC\Tools\MSVC\14.29.30133\atlmfc\include\atltime.h
;	COMDAT ?GetYear@CTime@ATL@@QBEHXZ
_TEXT	SEGMENT
_ptmTemp$1 = -40					; size = 36
__$ArrayPad$ = -4					; size = 4
?GetYear@CTime@ATL@@QBEHXZ PROC				; ATL::CTime::GetYear, COMDAT
; _this$ = ecx

; 657  : {

  00000	55		 push	 ebp
  00001	8b ec		 mov	 ebp, esp
  00003	83 ec 28	 sub	 esp, 40			; 00000028H
  00006	a1 00 00 00 00	 mov	 eax, DWORD PTR ___security_cookie
  0000b	33 c5		 xor	 eax, ebp
  0000d	89 45 fc	 mov	 DWORD PTR __$ArrayPad$[ebp], eax

; 614  : 		errno_t err = _localtime64_s(&ptmTemp, &m_time);

  00010	51		 push	 ecx
  00011	8d 45 d8	 lea	 eax, DWORD PTR _ptmTemp$1[ebp]
  00014	50		 push	 eax
  00015	ff 15 00 00 00
	00		 call	 DWORD PTR __imp___localtime64_s
  0001b	83 c4 08	 add	 esp, 8

; 615  : 
; 616  : 		if (err != 0)

  0001e	85 c0		 test	 eax, eax
  00020	75 16		 jne	 SHORT $LN3@GetYear

; 658  : 	struct tm ttm;
; 659  : 	struct tm * ptm;
; 660  : 
; 661  : 	ptm = GetLocalTm(&ttm);
; 662  : 	return ptm ? (ptm->tm_year) + 1900 : 0 ;

  00022	8b 45 ec	 mov	 eax, DWORD PTR _ptmTemp$1[ebp+20]
  00025	05 6c 07 00 00	 add	 eax, 1900		; 0000076cH

; 663  : }

  0002a	8b 4d fc	 mov	 ecx, DWORD PTR __$ArrayPad$[ebp]
  0002d	33 cd		 xor	 ecx, ebp
  0002f	e8 00 00 00 00	 call	 @__security_check_cookie@4
  00034	8b e5		 mov	 esp, ebp
  00036	5d		 pop	 ebp
  00037	c3		 ret	 0
$LN3@GetYear:
  00038	8b 4d fc	 mov	 ecx, DWORD PTR __$ArrayPad$[ebp]
  0003b	33 c0		 xor	 eax, eax
  0003d	33 cd		 xor	 ecx, ebp
  0003f	e8 00 00 00 00	 call	 @__security_check_cookie@4
  00044	8b e5		 mov	 esp, ebp
  00046	5d		 pop	 ebp
  00047	c3		 ret	 0
?GetYear@CTime@ATL@@QBEHXZ ENDP				; ATL::CTime::GetYear
_TEXT	ENDS
; Function compile flags: /Ogtp
; File C:\Program Files (x86)\Microsoft Visual Studio\2019\Community\VC\Tools\MSVC\14.29.30133\atlmfc\include\atltime.h
;	COMDAT ?GetGmtTm@CTime@ATL@@QBEPAUtm@@PAU3@@Z
_TEXT	SEGMENT
_ptmTemp$1 = -40					; size = 36
__$ArrayPad$ = -4					; size = 4
_ptm$ = 8						; size = 4
?GetGmtTm@CTime@ATL@@QBEPAUtm@@PAU3@@Z PROC		; ATL::CTime::GetGmtTm, COMDAT
; _this$ = ecx

; 587  : {

  00000	55		 push	 ebp
  00001	8b ec		 mov	 ebp, esp
  00003	83 ec 28	 sub	 esp, 40			; 00000028H
  00006	a1 00 00 00 00	 mov	 eax, DWORD PTR ___security_cookie
  0000b	33 c5		 xor	 eax, ebp
  0000d	89 45 fc	 mov	 DWORD PTR __$ArrayPad$[ebp], eax
  00010	56		 push	 esi
  00011	8b 75 08	 mov	 esi, DWORD PTR _ptm$[ebp]

; 588  : 	// Ensure ptm is valid
; 589  : 	ATLENSURE( ptm != NULL );

  00014	85 f6		 test	 esi, esi
  00016	74 4d		 je	 SHORT $LN14@GetGmtTm

; 590  : 
; 591  : 	if (ptm != NULL)
; 592  : 	{
; 593  : 		struct tm ptmTemp;
; 594  : 		errno_t err = _gmtime64_s(&ptmTemp, &m_time);

  00018	51		 push	 ecx
  00019	8d 45 d8	 lea	 eax, DWORD PTR _ptmTemp$1[ebp]
  0001c	50		 push	 eax
  0001d	ff 15 00 00 00
	00		 call	 DWORD PTR __imp___gmtime64_s
  00023	83 c4 08	 add	 esp, 8

; 595  : 
; 596  : 		// Be sure the call succeeded
; 597  : 		if(err != 0) { return NULL; }

  00026	85 c0		 test	 eax, eax
  00028	74 13		 je	 SHORT $LN10@GetGmtTm
  0002a	33 c0		 xor	 eax, eax
  0002c	5e		 pop	 esi

; 601  : 	}
; 602  : 
; 603  : 	return NULL;
; 604  : }

  0002d	8b 4d fc	 mov	 ecx, DWORD PTR __$ArrayPad$[ebp]
  00030	33 cd		 xor	 ecx, ebp
  00032	e8 00 00 00 00	 call	 @__security_check_cookie@4
  00037	8b e5		 mov	 esp, ebp
  00039	5d		 pop	 ebp
  0003a	c2 04 00	 ret	 4
$LN10@GetGmtTm:

; 598  : 
; 599  : 		*ptm = ptmTemp;

  0003d	0f 10 45 d8	 movups	 xmm0, XMMWORD PTR _ptmTemp$1[ebp]
  00041	8b 4d f8	 mov	 ecx, DWORD PTR _ptmTemp$1[ebp+32]

; 600  : 		return ptm;

  00044	8b c6		 mov	 eax, esi
  00046	0f 11 06	 movups	 XMMWORD PTR [esi], xmm0
  00049	0f 10 45 e8	 movups	 xmm0, XMMWORD PTR _ptmTemp$1[ebp+16]
  0004d	0f 11 46 10	 movups	 XMMWORD PTR [esi+16], xmm0
  00051	89 4e 20	 mov	 DWORD PTR [esi+32], ecx

; 601  : 	}
; 602  : 
; 603  : 	return NULL;
; 604  : }

  00054	8b 4d fc	 mov	 ecx, DWORD PTR __$ArrayPad$[ebp]
  00057	33 cd		 xor	 ecx, ebp
  00059	5e		 pop	 esi
  0005a	e8 00 00 00 00	 call	 @__security_check_cookie@4
  0005f	8b e5		 mov	 esp, ebp
  00061	5d		 pop	 ebp
  00062	c2 04 00	 ret	 4
$LN14@GetGmtTm:

; 588  : 	// Ensure ptm is valid
; 589  : 	ATLENSURE( ptm != NULL );

  00065	68 05 40 00 80	 push	 -2147467259		; 80004005H
  0006a	e8 00 00 00 00	 call	 ?AtlThrowImpl@ATL@@YGXJ@Z ; ATL::AtlThrowImpl
$LN12@GetGmtTm:
  0006f	cc		 int	 3
?GetGmtTm@CTime@ATL@@QBEPAUtm@@PAU3@@Z ENDP		; ATL::CTime::GetGmtTm
_TEXT	ENDS
; Function compile flags: /Ogtp
; File C:\Program Files (x86)\Microsoft Visual Studio\2019\Community\VC\Tools\MSVC\14.29.30133\atlmfc\include\atltime.h
;	COMDAT ??0CTime@ATL@@QAE@HHHHHHH@Z
_TEXT	SEGMENT
_atm$ = -40						; size = 36
__$ArrayPad$ = -4					; size = 4
_nYear$ = 8						; size = 4
_nMonth$ = 12						; size = 4
_nDay$ = 16						; size = 4
_nHour$ = 20						; size = 4
_nMin$ = 24						; size = 4
_nSec$ = 28						; size = 4
_nDST$ = 32						; size = 4
??0CTime@ATL@@QAE@HHHHHHH@Z PROC			; ATL::CTime::CTime, COMDAT
; _this$ = ecx

; 429  : {

  00000	55		 push	 ebp
  00001	8b ec		 mov	 ebp, esp
  00003	83 ec 28	 sub	 esp, 40			; 00000028H
  00006	a1 00 00 00 00	 mov	 eax, DWORD PTR ___security_cookie
  0000b	33 c5		 xor	 eax, ebp
  0000d	89 45 fc	 mov	 DWORD PTR __$ArrayPad$[ebp], eax

; 430  : #pragma warning (push)
; 431  : #pragma warning (disable: 4127)  // conditional expression constant
; 432  : 
; 433  : 	ATLENSURE( nYear >= 1970 );

  00010	81 7d 08 b2 07
	00 00		 cmp	 DWORD PTR _nYear$[ebp], 1970 ; 000007b2H
  00017	8b 55 18	 mov	 edx, DWORD PTR _nMin$[ebp]
  0001a	56		 push	 esi
  0001b	57		 push	 edi
  0001c	8b 7d 14	 mov	 edi, DWORD PTR _nHour$[ebp]
  0001f	8b f1		 mov	 esi, ecx
  00021	8b 4d 1c	 mov	 ecx, DWORD PTR _nSec$[ebp]
  00024	7c 73		 jl	 SHORT $LN57@CTime

; 434  : 	ATLENSURE( nMonth >= 1 && nMonth <= 12 );

  00026	53		 push	 ebx
  00027	8b 5d 0c	 mov	 ebx, DWORD PTR _nMonth$[ebp]
  0002a	4b		 dec	 ebx
  0002b	83 fb 0b	 cmp	 ebx, 11			; 0000000bH
  0002e	77 69		 ja	 SHORT $LN57@CTime

; 435  : 	ATLENSURE( nDay >= 1 && nDay <= 31 );

  00030	8b 45 10	 mov	 eax, DWORD PTR _nDay$[ebp]
  00033	48		 dec	 eax
  00034	83 f8 1e	 cmp	 eax, 30			; 0000001eH
  00037	77 60		 ja	 SHORT $LN57@CTime

; 436  : 	ATLENSURE( nHour >= 0 && nHour <= 23 );

  00039	83 ff 17	 cmp	 edi, 23			; 00000017H
  0003c	77 5b		 ja	 SHORT $LN57@CTime

; 437  : 	ATLENSURE( nMin >= 0 && nMin <= 59 );

  0003e	83 fa 3b	 cmp	 edx, 59			; 0000003bH
  00041	77 56		 ja	 SHORT $LN57@CTime

; 438  : 	ATLENSURE( nSec >= 0 && nSec <= 59 );

  00043	83 f9 3b	 cmp	 ecx, 59			; 0000003bH
  00046	77 51		 ja	 SHORT $LN57@CTime

; 439  : 
; 440  : #pragma warning (pop)
; 441  : 
; 442  : 	struct tm atm;
; 443  : 
; 444  : 	atm.tm_sec = nSec;
; 445  : 	atm.tm_min = nMin;
; 446  : 	atm.tm_hour = nHour;
; 447  : 	atm.tm_mday = nDay;

  00048	8b 45 10	 mov	 eax, DWORD PTR _nDay$[ebp]
  0004b	89 45 e4	 mov	 DWORD PTR _atm$[ebp+12], eax

; 448  : 	atm.tm_mon = nMonth - 1;        // tm_mon is 0 based
; 449  : 	atm.tm_year = nYear - 1900;     // tm_year is 1900 based

  0004e	8b 45 08	 mov	 eax, DWORD PTR _nYear$[ebp]
  00051	05 94 f8 ff ff	 add	 eax, -1900		; fffff894H
  00056	89 4d d8	 mov	 DWORD PTR _atm$[ebp], ecx
  00059	89 45 ec	 mov	 DWORD PTR _atm$[ebp+20], eax

; 450  : 	atm.tm_isdst = nDST;

  0005c	8b 45 20	 mov	 eax, DWORD PTR _nDST$[ebp]
  0005f	89 45 f8	 mov	 DWORD PTR _atm$[ebp+32], eax

; 451  : 
; 452  : 	m_time = _mktime64(&atm);

  00062	8d 45 d8	 lea	 eax, DWORD PTR _atm$[ebp]
  00065	50		 push	 eax
  00066	89 55 dc	 mov	 DWORD PTR _atm$[ebp+4], edx
  00069	89 7d e0	 mov	 DWORD PTR _atm$[ebp+8], edi
  0006c	89 5d e8	 mov	 DWORD PTR _atm$[ebp+16], ebx
  0006f	ff 15 00 00 00
	00		 call	 DWORD PTR __imp___mktime64
  00075	83 c4 04	 add	 esp, 4
  00078	89 06		 mov	 DWORD PTR [esi], eax

; 453  : 	ATLASSUME(m_time != -1);       // indicates an illegal input time
; 454  : 	if(m_time == -1)

  0007a	23 c2		 and	 eax, edx
  0007c	89 56 04	 mov	 DWORD PTR [esi+4], edx
  0007f	5b		 pop	 ebx
  00080	83 f8 ff	 cmp	 eax, -1
  00083	74 1e		 je	 SHORT $LN66@CTime

; 457  : 	}
; 458  : }

  00085	8b 4d fc	 mov	 ecx, DWORD PTR __$ArrayPad$[ebp]
  00088	8b c6		 mov	 eax, esi
  0008a	5f		 pop	 edi
  0008b	33 cd		 xor	 ecx, ebp
  0008d	5e		 pop	 esi
  0008e	e8 00 00 00 00	 call	 @__security_check_cookie@4
  00093	8b e5		 mov	 esp, ebp
  00095	5d		 pop	 ebp
  00096	c2 1c 00	 ret	 28			; 0000001cH
$LN57@CTime:

; 438  : 	ATLENSURE( nSec >= 0 && nSec <= 59 );

  00099	68 05 40 00 80	 push	 -2147467259		; 80004005H
  0009e	e8 00 00 00 00	 call	 ?AtlThrowImpl@ATL@@YGXJ@Z ; ATL::AtlThrowImpl
$LN66@CTime:

; 455  : 	{
; 456  : 		AtlThrow(E_INVALIDARG);

  000a3	68 57 00 07 80	 push	 -2147024809		; 80070057H
  000a8	e8 00 00 00 00	 call	 ?AtlThrowImpl@ATL@@YGXJ@Z ; ATL::AtlThrowImpl
$LN64@CTime:
  000ad	cc		 int	 3
??0CTime@ATL@@QAE@HHHHHHH@Z ENDP			; ATL::CTime::CTime
_TEXT	ENDS
; Function compile flags: /Ogtp
; File C:\Program Files (x86)\Microsoft Visual Studio\2019\Community\VC\Tools\MSVC\14.29.30133\atlmfc\include\atltime.h
;	COMDAT ??0CTimeSpan@ATL@@QAE@JHHH@Z
_TEXT	SEGMENT
_lDays$ = 8						; size = 4
_nHours$ = 12						; size = 4
_nMins$ = 16						; size = 4
_nSecs$ = 20						; size = 4
??0CTimeSpan@ATL@@QAE@JHHH@Z PROC			; ATL::CTimeSpan::CTimeSpan, COMDAT
; _this$ = ecx

; 272  : {

  00000	55		 push	 ebp
  00001	8b ec		 mov	 ebp, esp

; 273  :  	m_timeSpan = nSecs + 60* (nMins + 60* (nHours + __int64(24) * lDays));

  00003	8b 45 08	 mov	 eax, DWORD PTR _lDays$[ebp]
  00006	56		 push	 esi
  00007	57		 push	 edi
  00008	8b f9		 mov	 edi, ecx
  0000a	b9 18 00 00 00	 mov	 ecx, 24			; 00000018H
  0000f	f7 e9		 imul	 ecx
  00011	6a 00		 push	 0
  00013	68 10 0e 00 00	 push	 3600			; 00000e10H
  00018	52		 push	 edx
  00019	50		 push	 eax
  0001a	e8 00 00 00 00	 call	 __allmul
  0001f	8b c8		 mov	 ecx, eax
  00021	8b f2		 mov	 esi, edx
  00023	8b 45 0c	 mov	 eax, DWORD PTR _nHours$[ebp]
  00026	ba 10 0e 00 00	 mov	 edx, 3600		; 00000e10H
  0002b	f7 ea		 imul	 edx
  0002d	03 c8		 add	 ecx, eax
  0002f	8b 45 10	 mov	 eax, DWORD PTR _nMins$[ebp]
  00032	13 f2		 adc	 esi, edx
  00034	ba 3c 00 00 00	 mov	 edx, 60			; 0000003cH
  00039	f7 ea		 imul	 edx
  0003b	03 c8		 add	 ecx, eax
  0003d	8b 45 14	 mov	 eax, DWORD PTR _nSecs$[ebp]
  00040	13 f2		 adc	 esi, edx
  00042	99		 cdq
  00043	03 c8		 add	 ecx, eax

; 274  : }

  00045	8b c7		 mov	 eax, edi
  00047	89 0f		 mov	 DWORD PTR [edi], ecx
  00049	13 f2		 adc	 esi, edx
  0004b	89 77 04	 mov	 DWORD PTR [edi+4], esi
  0004e	5f		 pop	 edi
  0004f	5e		 pop	 esi
  00050	5d		 pop	 ebp
  00051	c2 10 00	 ret	 16			; 00000010H
??0CTimeSpan@ATL@@QAE@JHHH@Z ENDP			; ATL::CTimeSpan::CTimeSpan
_TEXT	ENDS
; Function compile flags: /Ogtp
; File C:\Program Files (x86)\Microsoft Visual Studio\2019\Community\VC\Tools\MSVC\14.29.30133\atlmfc\include\afx.inl
;	COMDAT ??_GCFileException@@UAEPAXI@Z
_TEXT	SEGMENT
___flags$ = 8						; size = 4
??_GCFileException@@UAEPAXI@Z PROC			; CFileException::`scalar deleting destructor', COMDAT
; _this$ = ecx
  00000	55		 push	 ebp
  00001	8b ec		 mov	 ebp, esp

; 170  : 	{ }

  00003	56		 push	 esi
  00004	8b f1		 mov	 esi, ecx
  00006	8d 4e 10	 lea	 ecx, DWORD PTR [esi+16]
  00009	c7 06 00 00 00
	00		 mov	 DWORD PTR [esi], OFFSET ??_7CFileException@@6B@
  0000f	ff 15 00 00 00
	00		 call	 DWORD PTR __imp_??1?$CStringT@DV?$StrTraitMFC_DLL@DV?$ChTraitsCRT@D@ATL@@@@@ATL@@QAE@XZ
  00015	8b 45 08	 mov	 eax, DWORD PTR ___flags$[ebp]
  00018	a8 01		 test	 al, 1
  0001a	74 1f		 je	 SHORT $LN12@scalar
  0001c	a8 04		 test	 al, 4
  0001e	75 10		 jne	 SHORT $LN3@scalar

; 112  : 	{ ::operator delete(p); }

  00020	56		 push	 esi
  00021	e8 00 00 00 00	 call	 ??3@YAXPAX@Z		; operator delete
  00026	83 c4 04	 add	 esp, 4
  00029	8b c6		 mov	 eax, esi
  0002b	5e		 pop	 esi
  0002c	5d		 pop	 ebp
  0002d	c2 04 00	 ret	 4
$LN3@scalar:
  00030	6a 14		 push	 20			; 00000014H
  00032	56		 push	 esi
  00033	e8 00 00 00 00	 call	 ?__global_delete@@YAXPAXI@Z ; __global_delete
  00038	83 c4 08	 add	 esp, 8
$LN12@scalar:
  0003b	8b c6		 mov	 eax, esi
  0003d	5e		 pop	 esi
  0003e	5d		 pop	 ebp
  0003f	c2 04 00	 ret	 4
??_GCFileException@@UAEPAXI@Z ENDP			; CFileException::`scalar deleting destructor'
_TEXT	ENDS
; Function compile flags: /Ogtp
; File C:\Program Files (x86)\Microsoft Visual Studio\2019\Community\VC\Tools\MSVC\14.29.30133\atlmfc\include\afx.inl
;	COMDAT ??1CFileException@@UAE@XZ
_TEXT	SEGMENT
??1CFileException@@UAE@XZ PROC				; CFileException::~CFileException, COMDAT
; _this$ = ecx

; 170  : 	{ }

  00000	c7 01 00 00 00
	00		 mov	 DWORD PTR [ecx], OFFSET ??_7CFileException@@6B@
  00006	83 c1 10	 add	 ecx, 16			; 00000010H
  00009	ff 25 00 00 00
	00		 jmp	 DWORD PTR __imp_??1?$CStringT@DV?$StrTraitMFC_DLL@DV?$ChTraitsCRT@D@ATL@@@@@ATL@@QAE@XZ
??1CFileException@@UAE@XZ ENDP				; CFileException::~CFileException
_TEXT	ENDS
; Function compile flags: /Ogtp
; File C:\Program Files (x86)\Microsoft Visual Studio\2019\Community\VC\Tools\MSVC\14.29.30133\atlmfc\include\afx.h
;	COMDAT ??1AFX_EXCEPTION_LINK@@QAE@XZ
_TEXT	SEGMENT
__$EHRec$ = -12						; size = 12
??1AFX_EXCEPTION_LINK@@QAE@XZ PROC			; AFX_EXCEPTION_LINK::~AFX_EXCEPTION_LINK, COMDAT
; _this$ = ecx

; 819  : 		{ AfxTryCleanup(); };

  00000	55		 push	 ebp
  00001	8b ec		 mov	 ebp, esp
  00003	6a ff		 push	 -1
  00005	68 00 00 00 00	 push	 __ehhandler$??1AFX_EXCEPTION_LINK@@QAE@XZ
  0000a	64 a1 00 00 00
	00		 mov	 eax, DWORD PTR fs:0
  00010	50		 push	 eax
  00011	a1 00 00 00 00	 mov	 eax, DWORD PTR ___security_cookie
  00016	33 c5		 xor	 eax, ebp
  00018	50		 push	 eax
  00019	8d 45 f4	 lea	 eax, DWORD PTR __$EHRec$[ebp]
  0001c	64 a3 00 00 00
	00		 mov	 DWORD PTR fs:0, eax
  00022	e8 00 00 00 00	 call	 ?AfxTryCleanup@@YGXXZ	; AfxTryCleanup
  00027	8b 4d f4	 mov	 ecx, DWORD PTR __$EHRec$[ebp]
  0002a	64 89 0d 00 00
	00 00		 mov	 DWORD PTR fs:0, ecx
  00031	59		 pop	 ecx
  00032	8b e5		 mov	 esp, ebp
  00034	5d		 pop	 ebp
  00035	c3		 ret	 0
  00036	cc		 int	 3
  00037	cc		 int	 3
  00038	cc		 int	 3
  00039	cc		 int	 3
  0003a	cc		 int	 3
_TEXT	ENDS
;	COMDAT text$x
text$x	SEGMENT
__ehhandler$??1AFX_EXCEPTION_LINK@@QAE@XZ:
  00000	90		 npad	 1
  00001	90		 npad	 1
  00002	8b 54 24 08	 mov	 edx, DWORD PTR [esp+8]
  00006	8d 42 0c	 lea	 eax, DWORD PTR [edx+12]
  00009	8b 4a fc	 mov	 ecx, DWORD PTR [edx-4]
  0000c	33 c8		 xor	 ecx, eax
  0000e	e8 00 00 00 00	 call	 @__security_check_cookie@4
  00013	b8 00 00 00 00	 mov	 eax, OFFSET __ehfuncinfo$??1AFX_EXCEPTION_LINK@@QAE@XZ
  00018	e9 00 00 00 00	 jmp	 ___CxxFrameHandler3
text$x	ENDS
??1AFX_EXCEPTION_LINK@@QAE@XZ ENDP			; AFX_EXCEPTION_LINK::~AFX_EXCEPTION_LINK
; Function compile flags: /Ogtp
; File C:\Program Files (x86)\Microsoft Visual Studio\2019\Community\VC\Tools\MSVC\14.29.30133\atlmfc\include\cstringt.h
; File C:\Program Files (x86)\Microsoft Visual Studio\2019\Community\VC\Tools\MSVC\14.29.30133\atlmfc\include\atlsimpstr.h
; File C:\Program Files (x86)\Microsoft Visual Studio\2019\Community\VC\Tools\MSVC\14.29.30133\atlmfc\include\cstringt.h
; File C:\Program Files (x86)\Microsoft Visual Studio\2019\Community\VC\Tools\MSVC\14.29.30133\atlmfc\include\atlsimpstr.h
; File C:\Program Files (x86)\Microsoft Visual Studio\2019\Community\VC\Tools\MSVC\14.29.30133\atlmfc\include\cstringt.h
;	COMDAT ??HATL@@YA?AV?$CStringT@DV?$StrTraitMFC_DLL@DV?$ChTraitsCRT@D@ATL@@@@@0@ABV10@0@Z
_TEXT	SEGMENT
$T2 = -16						; size = 4
__$EHRec$ = -12						; size = 12
___$ReturnUdt$ = 8					; size = 4
_str1$ = 12						; size = 4
_str2$ = 16						; size = 4
??HATL@@YA?AV?$CStringT@DV?$StrTraitMFC_DLL@DV?$ChTraitsCRT@D@ATL@@@@@0@ABV10@0@Z PROC ; ATL::operator+, COMDAT

; 2389 : 	{

  00000	55		 push	 ebp
  00001	8b ec		 mov	 ebp, esp
  00003	6a ff		 push	 -1
  00005	68 00 00 00 00	 push	 __ehhandler$??HATL@@YA?AV?$CStringT@DV?$StrTraitMFC_DLL@DV?$ChTraitsCRT@D@ATL@@@@@0@ABV10@0@Z
  0000a	64 a1 00 00 00
	00		 mov	 eax, DWORD PTR fs:0
  00010	50		 push	 eax
  00011	51		 push	 ecx
  00012	56		 push	 esi
  00013	57		 push	 edi
  00014	a1 00 00 00 00	 mov	 eax, DWORD PTR ___security_cookie
  00019	33 c5		 xor	 eax, ebp
  0001b	50		 push	 eax
  0001c	8d 45 f4	 lea	 eax, DWORD PTR __$EHRec$[ebp]
  0001f	64 a3 00 00 00
	00		 mov	 DWORD PTR fs:0, eax

; 2390 : 		CStringT strResult( str1.GetManager() );

  00025	8b 75 0c	 mov	 esi, DWORD PTR _str1$[ebp]
  00028	8b ce		 mov	 ecx, esi
  0002a	c7 45 f0 00 00
	00 00		 mov	 DWORD PTR $T2[ebp], 0
  00031	ff 15 00 00 00
	00		 call	 DWORD PTR __imp_?GetManager@?$CStringT@DV?$StrTraitMFC_DLL@DV?$ChTraitsCRT@D@ATL@@@@@ATL@@QBEPAUIAtlStringMgr@2@XZ
  00037	8b 7d 08	 mov	 edi, DWORD PTR ___$ReturnUdt$[ebp]
  0003a	8b cf		 mov	 ecx, edi
  0003c	50		 push	 eax
  0003d	ff 15 00 00 00
	00		 call	 DWORD PTR __imp_??0?$CStringT@DV?$StrTraitMFC_DLL@DV?$ChTraitsCRT@D@ATL@@@@@ATL@@QAE@PAUIAtlStringMgr@1@@Z
; File C:\Program Files (x86)\Microsoft Visual Studio\2019\Community\VC\Tools\MSVC\14.29.30133\atlmfc\include\atlsimpstr.h

; 519  : 		return( GetData()->nDataLength );

  00043	8b 45 10	 mov	 eax, DWORD PTR _str2$[ebp]
  00046	8b 16		 mov	 edx, DWORD PTR [esi]
; File C:\Program Files (x86)\Microsoft Visual Studio\2019\Community\VC\Tools\MSVC\14.29.30133\atlmfc\include\cstringt.h

; 2394 : 		return( strResult );

  00048	c7 45 fc 00 00
	00 00		 mov	 DWORD PTR __$EHRec$[ebp+8], 0
  0004f	c7 45 f0 01 00
	00 00		 mov	 DWORD PTR $T2[ebp], 1
; File C:\Program Files (x86)\Microsoft Visual Studio\2019\Community\VC\Tools\MSVC\14.29.30133\atlmfc\include\atlsimpstr.h

; 519  : 		return( GetData()->nDataLength );

  00056	8b 08		 mov	 ecx, DWORD PTR [eax]
; File C:\Program Files (x86)\Microsoft Visual Studio\2019\Community\VC\Tools\MSVC\14.29.30133\atlmfc\include\cstringt.h

; 2392 : 		CThisSimpleString::Concatenate( strResult, str1, str1.GetLength(), str2, str2.GetLength() );

  00058	ff 71 f4	 push	 DWORD PTR [ecx-12]
  0005b	51		 push	 ecx
  0005c	ff 72 f4	 push	 DWORD PTR [edx-12]
  0005f	52		 push	 edx
  00060	57		 push	 edi
  00061	ff 15 00 00 00
	00		 call	 DWORD PTR __imp_?Concatenate@?$CSimpleStringT@D$00@ATL@@KAXAAV12@PBDH1H@Z
  00067	83 c4 14	 add	 esp, 20			; 00000014H

; 2394 : 		return( strResult );

  0006a	8b c7		 mov	 eax, edi

; 2395 : 	}

  0006c	8b 4d f4	 mov	 ecx, DWORD PTR __$EHRec$[ebp]
  0006f	64 89 0d 00 00
	00 00		 mov	 DWORD PTR fs:0, ecx
  00076	59		 pop	 ecx
  00077	5f		 pop	 edi
  00078	5e		 pop	 esi
  00079	8b e5		 mov	 esp, ebp
  0007b	5d		 pop	 ebp
  0007c	c3		 ret	 0
_TEXT	ENDS
;	COMDAT text$x
text$x	SEGMENT
__unwindfunclet$??HATL@@YA?AV?$CStringT@DV?$StrTraitMFC_DLL@DV?$ChTraitsCRT@D@ATL@@@@@0@ABV10@0@Z$0:
  00000	8b 45 f0	 mov	 eax, DWORD PTR $T2[ebp]
  00003	83 e0 01	 and	 eax, 1
  00006	0f 84 0d 00 00
	00		 je	 $LN4@operator
  0000c	83 65 f0 fe	 and	 DWORD PTR $T2[ebp], -2	; fffffffeH
  00010	8b 4d 08	 mov	 ecx, DWORD PTR ___$ReturnUdt$[ebp]
  00013	ff 25 00 00 00
	00		 jmp	 DWORD PTR __imp_??1?$CStringT@DV?$StrTraitMFC_DLL@DV?$ChTraitsCRT@D@ATL@@@@@ATL@@QAE@XZ
$LN4@operator:
  00019	c3		 ret	 0
  0001a	cc		 int	 3
  0001b	cc		 int	 3
  0001c	cc		 int	 3
  0001d	cc		 int	 3
  0001e	cc		 int	 3
__ehhandler$??HATL@@YA?AV?$CStringT@DV?$StrTraitMFC_DLL@DV?$ChTraitsCRT@D@ATL@@@@@0@ABV10@0@Z:
  0001f	90		 npad	 1
  00020	90		 npad	 1
  00021	8b 54 24 08	 mov	 edx, DWORD PTR [esp+8]
  00025	8d 42 0c	 lea	 eax, DWORD PTR [edx+12]
  00028	8b 4a f0	 mov	 ecx, DWORD PTR [edx-16]
  0002b	33 c8		 xor	 ecx, eax
  0002d	e8 00 00 00 00	 call	 @__security_check_cookie@4
  00032	b8 00 00 00 00	 mov	 eax, OFFSET __ehfuncinfo$??HATL@@YA?AV?$CStringT@DV?$StrTraitMFC_DLL@DV?$ChTraitsCRT@D@ATL@@@@@0@ABV10@0@Z
  00037	e9 00 00 00 00	 jmp	 ___CxxFrameHandler3
text$x	ENDS
??HATL@@YA?AV?$CStringT@DV?$StrTraitMFC_DLL@DV?$ChTraitsCRT@D@ATL@@@@@0@ABV10@0@Z ENDP ; ATL::operator+
; Function compile flags: /Ogtp
; File C:\Program Files (x86)\Microsoft Visual Studio\2019\Community\VC\Tools\MSVC\14.29.30133\atlmfc\include\atlexcept.h
;	COMDAT ?AtlThrowImpl@ATL@@YGXJ@Z
_TEXT	SEGMENT
_hr$ = 8						; size = 4
?AtlThrowImpl@ATL@@YGXJ@Z PROC				; ATL::AtlThrowImpl, COMDAT

; 65   : {

  00000	55		 push	 ebp
  00001	8b ec		 mov	 ebp, esp

; 66   : 	ATLTRACE(atlTraceException, 0, _T("AtlThrow: hr = 0x%x\n"), hr );
; 67   : #ifdef _AFX
; 68   : 	if( hr == E_OUTOFMEMORY )

  00003	8b 45 08	 mov	 eax, DWORD PTR _hr$[ebp]
  00006	3d 0e 00 07 80	 cmp	 eax, -2147024882	; 8007000eH
  0000b	75 05		 jne	 SHORT $LN2@AtlThrowIm

; 69   : 	{
; 70   : 		AfxThrowMemoryException();

  0000d	e8 00 00 00 00	 call	 ?AfxThrowMemoryException@@YGXXZ ; AfxThrowMemoryException
$LN2@AtlThrowIm:

; 71   : 	}
; 72   : 	else
; 73   : 	{
; 74   : 		AfxThrowOleException( hr );

  00012	50		 push	 eax
  00013	e8 00 00 00 00	 call	 ?AfxThrowOleException@@YGXJ@Z ; AfxThrowOleException
$LN5@AtlThrowIm:
  00018	cc		 int	 3
?AtlThrowImpl@ATL@@YGXJ@Z ENDP				; ATL::AtlThrowImpl
_TEXT	ENDS
; Function compile flags: /Ogtp
; File C:\Program Files (x86)\Microsoft Visual Studio\2019\Community\VC\Tools\MSVC\14.29.30133\atlmfc\include\afx.inl
;	COMDAT ??1CException@@UAE@XZ
_TEXT	SEGMENT
??1CException@@UAE@XZ PROC				; CException::~CException, COMDAT
; _this$ = ecx

; 134  : 	{ }

  00000	c2 00 00	 ret	 0
??1CException@@UAE@XZ ENDP				; CException::~CException
_TEXT	ENDS
; Function compile flags: /Ogtp
; File C:\Program Files (x86)\Microsoft Visual Studio\2019\Community\VC\Tools\MSVC\14.29.30133\atlmfc\include\afx.inl
;	COMDAT ?Dump@CObject@@UBEXAAVCDumpContext@@@Z
_TEXT	SEGMENT
___formal$ = 8						; size = 4
?Dump@CObject@@UBEXAAVCDumpContext@@@Z PROC		; CObject::Dump, COMDAT
; _this$ = ecx

; 122  : 	{ /* no dumping in release builds */ }

  00000	c2 04 00	 ret	 4
?Dump@CObject@@UBEXAAVCDumpContext@@@Z ENDP		; CObject::Dump
_TEXT	ENDS
; Function compile flags: /Ogtp
; File C:\Program Files (x86)\Microsoft Visual Studio\2019\Community\VC\Tools\MSVC\14.29.30133\atlmfc\include\afx.inl
;	COMDAT ?AssertValid@CObject@@UBEXXZ
_TEXT	SEGMENT
?AssertValid@CObject@@UBEXXZ PROC			; CObject::AssertValid, COMDAT
; _this$ = ecx

; 120  : 	{ /* no asserts in release builds */ }

  00000	c2 00 00	 ret	 0
?AssertValid@CObject@@UBEXXZ ENDP			; CObject::AssertValid
_TEXT	ENDS
; Function compile flags: /Ogtp
; File C:\Program Files (x86)\Microsoft Visual Studio\2019\Community\VC\Tools\MSVC\14.29.30133\atlmfc\include\afx.inl
;	COMDAT ?Serialize@CObject@@UAEXAAVCArchive@@@Z
_TEXT	SEGMENT
___formal$ = 8						; size = 4
?Serialize@CObject@@UAEXAAVCArchive@@@Z PROC		; CObject::Serialize, COMDAT
; _this$ = ecx

; 106  : 	{ /* CObject does not serialize anything by default */ }

  00000	c2 04 00	 ret	 4
?Serialize@CObject@@UAEXAAVCArchive@@@Z ENDP		; CObject::Serialize
_TEXT	ENDS
; Function compile flags: /Ogtp
; File C:\Program Files (x86)\Microsoft Visual Studio\2019\Community\VC\Tools\MSVC\14.29.30133\atlmfc\include\afx.inl
;	COMDAT ??1CObject@@UAE@XZ
_TEXT	SEGMENT
??1CObject@@UAE@XZ PROC					; CObject::~CObject, COMDAT
; _this$ = ecx

; 104  : 	{ }

  00000	c2 00 00	 ret	 0
??1CObject@@UAE@XZ ENDP					; CObject::~CObject
_TEXT	ENDS
; Function compile flags: /Ogtp
; File C:\Program Files (x86)\Microsoft Visual Studio\2019\Community\VC\Tools\MSVC\14.29.30133\atlmfc\include\afx.h
;	COMDAT ?AfxCrtErrorCheck@@YAHH@Z
_TEXT	SEGMENT
_error$ = 8						; size = 4
?AfxCrtErrorCheck@@YAHH@Z PROC				; AfxCrtErrorCheck, COMDAT

; 503  : {

  00000	55		 push	 ebp
  00001	8b ec		 mov	 ebp, esp

; 504  : 	switch(error)

  00003	8b 4d 08	 mov	 ecx, DWORD PTR _error$[ebp]
  00006	83 f9 50	 cmp	 ecx, 80			; 00000050H
  00009	77 17		 ja	 SHORT $LN9@AfxCrtErro
  0000b	0f b6 81 00 00
	00 00		 movzx	 eax, BYTE PTR $LN11@AfxCrtErro[ecx]
  00012	ff 24 85 00 00
	00 00		 jmp	 DWORD PTR $LN12@AfxCrtErro[eax*4]
$LN4@AfxCrtErro:

; 505  : 	{
; 506  : 	case ENOMEM:
; 507  : 		AfxThrowMemoryException();

  00019	e9 00 00 00 00	 jmp	 ?AfxThrowMemoryException@@YGXXZ ; AfxThrowMemoryException
$LN7@AfxCrtErro:

; 518  : 		break;
; 519  : 	}
; 520  : 	return error;

  0001e	8b c1		 mov	 eax, ecx

; 521  : }

  00020	5d		 pop	 ebp
  00021	c3		 ret	 0
$LN9@AfxCrtErro:

; 508  : 		break;
; 509  : 	case EINVAL:
; 510  : 	case ERANGE:
; 511  : 		AfxThrowInvalidArgException();
; 512  : 		break;
; 513  : 	case STRUNCATE:
; 514  : 	case 0:
; 515  : 		break;
; 516  : 	default:
; 517  : 		AfxThrowInvalidArgException();

  00022	e9 00 00 00 00	 jmp	 ?AfxThrowInvalidArgException@@YGXXZ ; AfxThrowInvalidArgException
  00027	90		 npad	 1
$LN12@AfxCrtErro:

; 521  : }

  00028	00 00 00 00	 DD	 $LN7@AfxCrtErro
  0002c	00 00 00 00	 DD	 $LN4@AfxCrtErro
  00030	00 00 00 00	 DD	 $LN9@AfxCrtErro
  00034	00 00 00 00	 DD	 $LN9@AfxCrtErro
$LN11@AfxCrtErro:
  00038	00		 DB	 0
  00039	03		 DB	 3
  0003a	03		 DB	 3
  0003b	03		 DB	 3
  0003c	03		 DB	 3
  0003d	03		 DB	 3
  0003e	03		 DB	 3
  0003f	03		 DB	 3
  00040	03		 DB	 3
  00041	03		 DB	 3
  00042	03		 DB	 3
  00043	03		 DB	 3
  00044	01		 DB	 1
  00045	03		 DB	 3
  00046	03		 DB	 3
  00047	03		 DB	 3
  00048	03		 DB	 3
  00049	03		 DB	 3
  0004a	03		 DB	 3
  0004b	03		 DB	 3
  0004c	03		 DB	 3
  0004d	03		 DB	 3
  0004e	02		 DB	 2
  0004f	03		 DB	 3
  00050	03		 DB	 3
  00051	03		 DB	 3
  00052	03		 DB	 3
  00053	03		 DB	 3
  00054	03		 DB	 3
  00055	03		 DB	 3
  00056	03		 DB	 3
  00057	03		 DB	 3
  00058	03		 DB	 3
  00059	03		 DB	 3
  0005a	02		 DB	 2
  0005b	03		 DB	 3
  0005c	03		 DB	 3
  0005d	03		 DB	 3
  0005e	03		 DB	 3
  0005f	03		 DB	 3
  00060	03		 DB	 3
  00061	03		 DB	 3
  00062	03		 DB	 3
  00063	03		 DB	 3
  00064	03		 DB	 3
  00065	03		 DB	 3
  00066	03		 DB	 3
  00067	03		 DB	 3
  00068	03		 DB	 3
  00069	03		 DB	 3
  0006a	03		 DB	 3
  0006b	03		 DB	 3
  0006c	03		 DB	 3
  0006d	03		 DB	 3
  0006e	03		 DB	 3
  0006f	03		 DB	 3
  00070	03		 DB	 3
  00071	03		 DB	 3
  00072	03		 DB	 3
  00073	03		 DB	 3
  00074	03		 DB	 3
  00075	03		 DB	 3
  00076	03		 DB	 3
  00077	03		 DB	 3
  00078	03		 DB	 3
  00079	03		 DB	 3
  0007a	03		 DB	 3
  0007b	03		 DB	 3
  0007c	03		 DB	 3
  0007d	03		 DB	 3
  0007e	03		 DB	 3
  0007f	03		 DB	 3
  00080	03		 DB	 3
  00081	03		 DB	 3
  00082	03		 DB	 3
  00083	03		 DB	 3
  00084	03		 DB	 3
  00085	03		 DB	 3
  00086	03		 DB	 3
  00087	03		 DB	 3
  00088	00		 DB	 0
?AfxCrtErrorCheck@@YAHH@Z ENDP				; AfxCrtErrorCheck
_TEXT	ENDS
; Function compile flags: /Ogtp
; File D:\git\src\IBK\IBK_DRFN\ProjSrc\SrcChartEx\ChartAddIn\ChartDataListViewerAddIn\ChartDataListViewerAddIn\DlgDataSimulator.cpp
;	COMDAT ?__empty_global_delete@@YAXPAXI@Z
_TEXT	SEGMENT
___formal$ = 8						; size = 4
___formal$ = 12						; size = 4
?__empty_global_delete@@YAXPAXI@Z PROC			; __empty_global_delete, COMDAT

  00000	c2 00 00	 ret	 0
?__empty_global_delete@@YAXPAXI@Z ENDP			; __empty_global_delete
_TEXT	ENDS
; Function compile flags: /Ogtp
; File D:\git\src\IBK\IBK_DRFN\ProjSrc\SrcChartEx\ChartAddIn\ChartDataListViewerAddIn\ChartDataListViewerAddIn\DlgDataSimulator.cpp
;	COMDAT ?__empty_global_delete@@YAXPAX@Z
_TEXT	SEGMENT
___formal$ = 8						; size = 4
?__empty_global_delete@@YAXPAX@Z PROC			; __empty_global_delete, COMDAT

  00000	c2 00 00	 ret	 0
?__empty_global_delete@@YAXPAX@Z ENDP			; __empty_global_delete
_TEXT	ENDS
; Function compile flags: /Ogtp
;	COMDAT ??_H@YGXPAXIIP6EPAX0@Z@Z
_TEXT	SEGMENT
___t$ = 8						; size = 4
___s$ = 12						; size = 4
___n$ = 16						; size = 4
___f$ = 20						; size = 4
??_H@YGXPAXIIP6EPAX0@Z@Z PROC				; `vector constructor iterator', COMDAT
  00000	55		 push	 ebp
  00001	8b ec		 mov	 ebp, esp
  00003	56		 push	 esi
  00004	8b 75 10	 mov	 esi, DWORD PTR ___n$[ebp]
  00007	85 f6		 test	 esi, esi
  00009	74 16		 je	 SHORT $LN6@vector
  0000b	53		 push	 ebx
  0000c	8b 5d 14	 mov	 ebx, DWORD PTR ___f$[ebp]
  0000f	57		 push	 edi
  00010	8b 7d 08	 mov	 edi, DWORD PTR ___t$[ebp]
$LL2@vector:
  00013	8b cf		 mov	 ecx, edi
  00015	ff d3		 call	 ebx
  00017	03 7d 0c	 add	 edi, DWORD PTR ___s$[ebp]
  0001a	83 ee 01	 sub	 esi, 1
  0001d	75 f4		 jne	 SHORT $LL2@vector
  0001f	5f		 pop	 edi
  00020	5b		 pop	 ebx
$LN6@vector:
  00021	5e		 pop	 esi
  00022	5d		 pop	 ebp
  00023	c2 10 00	 ret	 16			; 00000010H
??_H@YGXPAXIIP6EPAX0@Z@Z ENDP				; `vector constructor iterator'
_TEXT	ENDS
END
