; Listing generated by Microsoft (R) Optimizing Compiler Version 19.29.30145.0 

	TITLE	D:\git\src\IBK\IBK_DRFN\#DRfn-CS\_Obj\ChartDataListViewerAddIn\DlgInputTick.obj
	.686P
	.XMM
	include listing.inc
	.model	flat

INCLUDELIB MSVCRT
INCLUDELIB OLDNAMES

PUBLIC	?__empty_global_delete@@YAXPAX@Z		; __empty_global_delete
PUBLIC	?__empty_global_delete@@YAXPAXI@Z		; __empty_global_delete
PUBLIC	?Serialize@CObject@@UAEXAAVCArchive@@@Z		; CObject::Serialize
PUBLIC	?AssertValid@CObject@@UBEXXZ			; CObject::AssertValid
PUBLIC	?Dump@CObject@@UBEXAAVCDumpContext@@@Z		; CObject::Dump
PUBLIC	?DoDataExchange@CWnd@@MAEXPAVCDataExchange@@@Z	; CWnd::DoDataExchange
PUBLIC	?BeginModalState@CWnd@@UAEXXZ			; CWnd::BeginModalState
PUBLIC	?EndModalState@CWnd@@UAEXXZ			; CWnd::EndModalState
PUBLIC	?Create@CDialog@@UAEHIPAVCWnd@@@Z		; CDialog::Create
PUBLIC	??0CDlgInputTick@@QAE@PAVCWnd@@@Z		; CDlgInputTick::CDlgInputTick
PUBLIC	?DoDataExchange@CDlgInputTick@@MAEXPAVCDataExchange@@@Z ; CDlgInputTick::DoDataExchange
PUBLIC	?OnInitDialog@CDlgInputTick@@MAEHXZ		; CDlgInputTick::OnInitDialog
PUBLIC	?OnOK@CDlgInputTick@@MAEXXZ			; CDlgInputTick::OnOK
PUBLIC	?GetThisMessageMap@CDlgInputTick@@KGPBUAFX_MSGMAP@@XZ ; CDlgInputTick::GetThisMessageMap
PUBLIC	?GetMessageMap@CDlgInputTick@@MBEPBUAFX_MSGMAP@@XZ ; CDlgInputTick::GetMessageMap
PUBLIC	??_GCDlgInputTick@@UAEPAXI@Z			; CDlgInputTick::`scalar deleting destructor'
PUBLIC	??_C@_00CNPNBAHC@@				; `string'
PUBLIC	??_R0?AVCObject@@@8				; CObject `RTTI Type Descriptor'
PUBLIC	??_R3CObject@@8					; CObject::`RTTI Class Hierarchy Descriptor'
PUBLIC	??_R2CObject@@8					; CObject::`RTTI Base Class Array'
PUBLIC	??_R1A@?0A@EA@CObject@@8			; CObject::`RTTI Base Class Descriptor at (0,-1,0,64)'
PUBLIC	??_R1A@?0A@EA@CWnd@@8				; CWnd::`RTTI Base Class Descriptor at (0,-1,0,64)'
PUBLIC	??_R0?AVCWnd@@@8				; CWnd `RTTI Type Descriptor'
PUBLIC	??_R3CWnd@@8					; CWnd::`RTTI Class Hierarchy Descriptor'
PUBLIC	??_R2CWnd@@8					; CWnd::`RTTI Base Class Array'
PUBLIC	??_R1A@?0A@EA@CCmdTarget@@8			; CCmdTarget::`RTTI Base Class Descriptor at (0,-1,0,64)'
PUBLIC	??_R0?AVCCmdTarget@@@8				; CCmdTarget `RTTI Type Descriptor'
PUBLIC	??_R3CCmdTarget@@8				; CCmdTarget::`RTTI Class Hierarchy Descriptor'
PUBLIC	??_R2CCmdTarget@@8				; CCmdTarget::`RTTI Base Class Array'
PUBLIC	??_R1A@?0A@EA@CDialog@@8			; CDialog::`RTTI Base Class Descriptor at (0,-1,0,64)'
PUBLIC	??_R0?AVCDialog@@@8				; CDialog `RTTI Type Descriptor'
PUBLIC	??_R3CDialog@@8					; CDialog::`RTTI Class Hierarchy Descriptor'
PUBLIC	??_R2CDialog@@8					; CDialog::`RTTI Base Class Array'
PUBLIC	??_7CDlgInputTick@@6B@				; CDlgInputTick::`vftable'
PUBLIC	??_C@_04OGKJMPGK@?$CF02d@			; `string'
PUBLIC	??_C@_0BB@MAGBLHLO@?$CF02d?$CF02d?$CF02d?$CF02d@ ; `string'
PUBLIC	??_R4CDlgInputTick@@6B@				; CDlgInputTick::`RTTI Complete Object Locator'
PUBLIC	??_R0?AVCDlgInputTick@@@8			; CDlgInputTick `RTTI Type Descriptor'
PUBLIC	??_R3CDlgInputTick@@8				; CDlgInputTick::`RTTI Class Hierarchy Descriptor'
PUBLIC	??_R2CDlgInputTick@@8				; CDlgInputTick::`RTTI Base Class Array'
PUBLIC	??_R1A@?0A@EA@CDlgInputTick@@8			; CDlgInputTick::`RTTI Base Class Descriptor at (0,-1,0,64)'
PUBLIC	__xmm@0000001e0000001f0000001d0000001f
PUBLIC	__xmm@0000001f0000001e0000001f0000001e
PUBLIC	__xmm@0000001f0000001f0000001e0000001f
EXTRN	??3@YAXPAX@Z:PROC				; operator delete
EXTRN	?__global_delete@@YAXPAXI@Z:PROC		; __global_delete
EXTRN	__imp__SendMessageA@16:PROC
EXTRN	__imp__IsWindow@4:PROC
EXTRN	__imp__EnableWindow@8:PROC
EXTRN	__imp__atoi:PROC
EXTRN	__imp___localtime64_s:PROC
EXTRN	__imp___time64:PROC
EXTRN	?AfxThrowMemoryException@@YGXXZ:PROC		; AfxThrowMemoryException
EXTRN	?AfxThrowOleException@@YGXJ@Z:PROC		; AfxThrowOleException
EXTRN	__imp_??0?$CStringT@DV?$StrTraitMFC_DLL@DV?$ChTraitsCRT@D@ATL@@@@@ATL@@QAE@XZ:PROC
EXTRN	__imp_??1?$CStringT@DV?$StrTraitMFC_DLL@DV?$ChTraitsCRT@D@ATL@@@@@ATL@@QAE@XZ:PROC
EXTRN	__imp_??4?$CStringT@DV?$StrTraitMFC_DLL@DV?$ChTraitsCRT@D@ATL@@@@@ATL@@QAEAAV01@PBD@Z:PROC
EXTRN	__imp_?Mid@?$CStringT@DV?$StrTraitMFC_DLL@DV?$ChTraitsCRT@D@ATL@@@@@ATL@@QBE?AV12@HH@Z:PROC
EXTRN	__imp_?Format@?$CStringT@DV?$StrTraitMFC_DLL@DV?$ChTraitsCRT@D@ATL@@@@@ATL@@QAAXPBDZZ:PROC
EXTRN	__imp_?LoadStringA@?$CStringT@DV?$StrTraitMFC_DLL@DV?$ChTraitsCRT@D@ATL@@@@@ATL@@QAEHI@Z:PROC
EXTRN	?DDX_Text@@YGXPAVCDataExchange@@HAAV?$CStringT@DV?$StrTraitMFC_DLL@DV?$ChTraitsCRT@D@ATL@@@@@ATL@@@Z:PROC ; DDX_Text
EXTRN	?IsInvokeAllowed@CCmdTarget@@UAEHJ@Z:PROC	; CCmdTarget::IsInvokeAllowed
EXTRN	?GetDispatchIID@CCmdTarget@@UAEHPAU_GUID@@@Z:PROC ; CCmdTarget::GetDispatchIID
EXTRN	?GetTypeInfoCount@CCmdTarget@@UAEIXZ:PROC	; CCmdTarget::GetTypeInfoCount
EXTRN	?GetTypeLibCache@CCmdTarget@@UAEPAVCTypeLibCache@@XZ:PROC ; CCmdTarget::GetTypeLibCache
EXTRN	?GetTypeLib@CCmdTarget@@UAEJKPAPAUITypeLib@@@Z:PROC ; CCmdTarget::GetTypeLib
EXTRN	?GetCommandMap@CCmdTarget@@MBEPBUAFX_OLECMDMAP@@XZ:PROC ; CCmdTarget::GetCommandMap
EXTRN	?GetDispatchMap@CCmdTarget@@MBEPBUAFX_DISPMAP@@XZ:PROC ; CCmdTarget::GetDispatchMap
EXTRN	?GetConnectionMap@CCmdTarget@@MBEPBUAFX_CONNECTIONMAP@@XZ:PROC ; CCmdTarget::GetConnectionMap
EXTRN	?GetEventSinkMap@CCmdTarget@@MBEPBUAFX_EVENTSINKMAP@@XZ:PROC ; CCmdTarget::GetEventSinkMap
EXTRN	?OnCreateAggregates@CCmdTarget@@UAEHXZ:PROC	; CCmdTarget::OnCreateAggregates
EXTRN	?GetInterfaceHook@CCmdTarget@@UAEPAUIUnknown@@PBX@Z:PROC ; CCmdTarget::GetInterfaceHook
EXTRN	?GetExtraConnectionPoints@CCmdTarget@@MAEHPAVCPtrArray@@@Z:PROC ; CCmdTarget::GetExtraConnectionPoints
EXTRN	?GetConnectionHook@CCmdTarget@@MAEPAUIConnectionPoint@@ABU_GUID@@@Z:PROC ; CCmdTarget::GetConnectionHook
EXTRN	?PreSubclassWindow@CWnd@@UAEXXZ:PROC		; CWnd::PreSubclassWindow
EXTRN	?Create@CWnd@@UAEHPBD0KABUtagRECT@@PAV1@IPAUCCreateContext@@@Z:PROC ; CWnd::Create
EXTRN	?CreateEx@CWnd@@UAEHKPBD0KHHHHPAUHWND__@@PAUHMENU__@@PAX@Z:PROC ; CWnd::CreateEx
EXTRN	?CreateEx@CWnd@@UAEHKPBD0KABUtagRECT@@PAV1@IPAX@Z:PROC ; CWnd::CreateEx
EXTRN	?DestroyWindow@CWnd@@UAEHXZ:PROC		; CWnd::DestroyWindow
EXTRN	?PreCreateWindow@CWnd@@UAEHAAUtagCREATESTRUCTA@@@Z:PROC ; CWnd::PreCreateWindow
EXTRN	?CalcWindowRect@CWnd@@UAEXPAUtagRECT@@I@Z:PROC	; CWnd::CalcWindowRect
EXTRN	?GetDlgItem@CWnd@@QBEPAV1@H@Z:PROC		; CWnd::GetDlgItem
EXTRN	?GetMenu@CWnd@@UBEPAVCMenu@@XZ:PROC		; CWnd::GetMenu
EXTRN	?SetMenu@CWnd@@UAEHPAVCMenu@@@Z:PROC		; CWnd::SetMenu
EXTRN	?OnToolHitTest@CWnd@@UBEHVCPoint@@PAUtagTOOLINFOA@@@Z:PROC ; CWnd::OnToolHitTest
EXTRN	?SetFocus@CWnd@@QAEPAV1@XZ:PROC			; CWnd::SetFocus
EXTRN	?GetScrollBarCtrl@CWnd@@UBEPAVCScrollBar@@H@Z:PROC ; CWnd::GetScrollBarCtrl
EXTRN	?UpdateData@CWnd@@QAEHH@Z:PROC			; CWnd::UpdateData
EXTRN	?WinHelpA@CWnd@@UAEXKI@Z:PROC			; CWnd::WinHelpA
EXTRN	?HtmlHelpA@CWnd@@UAEXKI@Z:PROC			; CWnd::HtmlHelpA
EXTRN	?WinHelpInternal@CWnd@@UAEXKI@Z:PROC		; CWnd::WinHelpInternal
EXTRN	?ContinueModal@CWnd@@UAEHXZ:PROC		; CWnd::ContinueModal
EXTRN	?EndModalLoop@CWnd@@UAEXH@Z:PROC		; CWnd::EndModalLoop
EXTRN	?OnDrawIconicThumbnailOrLivePreview@CWnd@@UAEXAAVCDC@@VCRect@@VCSize@@HAAH@Z:PROC ; CWnd::OnDrawIconicThumbnailOrLivePreview
EXTRN	?GetInterfaceMap@CWnd@@MBEPBUAFX_INTERFACEMAP@@XZ:PROC ; CWnd::GetInterfaceMap
EXTRN	?EnsureStdObj@CWnd@@UAEJXZ:PROC			; CWnd::EnsureStdObj
EXTRN	?get_accParent@CWnd@@UAEJPAPAUIDispatch@@@Z:PROC ; CWnd::get_accParent
EXTRN	?get_accChildCount@CWnd@@UAEJPAJ@Z:PROC		; CWnd::get_accChildCount
EXTRN	?get_accChild@CWnd@@UAEJUtagVARIANT@@PAPAUIDispatch@@@Z:PROC ; CWnd::get_accChild
EXTRN	?get_accName@CWnd@@UAEJUtagVARIANT@@PAPA_W@Z:PROC ; CWnd::get_accName
EXTRN	?get_accValue@CWnd@@UAEJUtagVARIANT@@PAPA_W@Z:PROC ; CWnd::get_accValue
EXTRN	?get_accDescription@CWnd@@UAEJUtagVARIANT@@PAPA_W@Z:PROC ; CWnd::get_accDescription
EXTRN	?get_accRole@CWnd@@UAEJUtagVARIANT@@PAU2@@Z:PROC ; CWnd::get_accRole
EXTRN	?get_accState@CWnd@@UAEJUtagVARIANT@@PAU2@@Z:PROC ; CWnd::get_accState
EXTRN	?get_accHelp@CWnd@@UAEJUtagVARIANT@@PAPA_W@Z:PROC ; CWnd::get_accHelp
EXTRN	?get_accHelpTopic@CWnd@@UAEJPAPA_WUtagVARIANT@@PAJ@Z:PROC ; CWnd::get_accHelpTopic
EXTRN	?get_accKeyboardShortcut@CWnd@@UAEJUtagVARIANT@@PAPA_W@Z:PROC ; CWnd::get_accKeyboardShortcut
EXTRN	?get_accFocus@CWnd@@UAEJPAUtagVARIANT@@@Z:PROC	; CWnd::get_accFocus
EXTRN	?get_accSelection@CWnd@@UAEJPAUtagVARIANT@@@Z:PROC ; CWnd::get_accSelection
EXTRN	?get_accDefaultAction@CWnd@@UAEJUtagVARIANT@@PAPA_W@Z:PROC ; CWnd::get_accDefaultAction
EXTRN	?accSelect@CWnd@@UAEJJUtagVARIANT@@@Z:PROC	; CWnd::accSelect
EXTRN	?accLocation@CWnd@@UAEJPAJ000UtagVARIANT@@@Z:PROC ; CWnd::accLocation
EXTRN	?accNavigate@CWnd@@UAEJJUtagVARIANT@@PAU2@@Z:PROC ; CWnd::accNavigate
EXTRN	?accHitTest@CWnd@@UAEJJJPAUtagVARIANT@@@Z:PROC	; CWnd::accHitTest
EXTRN	?accDoDefaultAction@CWnd@@UAEJUtagVARIANT@@@Z:PROC ; CWnd::accDoDefaultAction
EXTRN	?put_accName@CWnd@@UAEJUtagVARIANT@@PA_W@Z:PROC	; CWnd::put_accName
EXTRN	?put_accValue@CWnd@@UAEJUtagVARIANT@@PA_W@Z:PROC ; CWnd::put_accValue
EXTRN	?SetProxy@CWnd@@UAEJPAUIAccessibleProxy@@@Z:PROC ; CWnd::SetProxy
EXTRN	?CreateAccessibleProxy@CWnd@@UAEJIJPAJ@Z:PROC	; CWnd::CreateAccessibleProxy
EXTRN	?OnCommand@CWnd@@MAEHIJ@Z:PROC			; CWnd::OnCommand
EXTRN	?OnNotify@CWnd@@MAEHIJPAJ@Z:PROC		; CWnd::OnNotify
EXTRN	?GetSuperWndProcAddr@CWnd@@MAEPAP6GJPAUHWND__@@IIJ@ZXZ:PROC ; CWnd::GetSuperWndProcAddr
EXTRN	?OnAmbientProperty@CWnd@@UAEHPAVCOleControlSite@@JPAUtagVARIANT@@@Z:PROC ; CWnd::OnAmbientProperty
EXTRN	?WindowProc@CWnd@@MAEJIIJ@Z:PROC		; CWnd::WindowProc
EXTRN	?OnWndMsg@CWnd@@MAEHIIJPAJ@Z:PROC		; CWnd::OnWndMsg
EXTRN	?DefWindowProcA@CWnd@@MAEJIIJ@Z:PROC		; CWnd::DefWindowProcA
EXTRN	?PostNcDestroy@CWnd@@MAEXXZ:PROC		; CWnd::PostNcDestroy
EXTRN	?OnChildNotify@CWnd@@MAEHIIJPAJ@Z:PROC		; CWnd::OnChildNotify
EXTRN	?OnTouchInputs@CWnd@@MAEHIPAUtagTOUCHINPUT@@@Z:PROC ; CWnd::OnTouchInputs
EXTRN	?OnTouchInput@CWnd@@MAEHVCPoint@@HHPAUtagTOUCHINPUT@@@Z:PROC ; CWnd::OnTouchInput
EXTRN	?GetGestureStatus@CWnd@@MAEKVCPoint@@@Z:PROC	; CWnd::GetGestureStatus
EXTRN	?OnGestureZoom@CWnd@@MAEHVCPoint@@J@Z:PROC	; CWnd::OnGestureZoom
EXTRN	?OnGesturePan@CWnd@@MAEHVCPoint@@0@Z:PROC	; CWnd::OnGesturePan
EXTRN	?OnGestureRotate@CWnd@@MAEHVCPoint@@N@Z:PROC	; CWnd::OnGestureRotate
EXTRN	?OnGestureTwoFingerTap@CWnd@@MAEHVCPoint@@@Z:PROC ; CWnd::OnGestureTwoFingerTap
EXTRN	?OnGesturePressAndTap@CWnd@@MAEHVCPoint@@J@Z:PROC ; CWnd::OnGesturePressAndTap
EXTRN	?ResizeDynamicLayout@CWnd@@MAEXXZ:PROC		; CWnd::ResizeDynamicLayout
EXTRN	?IsFrameWnd@CWnd@@UBEHXZ:PROC			; CWnd::IsFrameWnd
EXTRN	?OnFinalRelease@CWnd@@UAEXXZ:PROC		; CWnd::OnFinalRelease
EXTRN	?CreateControlContainer@CWnd@@MAEHPAPAVCOleControlContainer@@@Z:PROC ; CWnd::CreateControlContainer
EXTRN	?CreateControlSite@CWnd@@MAEHPAVCOleControlContainer@@PAPAVCOleControlSite@@IABU_GUID@@@Z:PROC ; CWnd::CreateControlSite
EXTRN	?GetRuntimeClass@CDialog@@UBEPAUCRuntimeClass@@XZ:PROC ; CDialog::GetRuntimeClass
EXTRN	?Create@CDialog@@UAEHPBDPAVCWnd@@@Z:PROC	; CDialog::Create
EXTRN	?CreateIndirect@CDialog@@UAEHPBUDLGTEMPLATE@@PAVCWnd@@PAX@Z:PROC ; CDialog::CreateIndirect
EXTRN	?CreateIndirect@CDialog@@UAEHPAXPAVCWnd@@@Z:PROC ; CDialog::CreateIndirect
EXTRN	??0CDialog@@QAE@IPAVCWnd@@@Z:PROC		; CDialog::CDialog
EXTRN	?DoModal@CDialog@@UAEHXZ:PROC			; CDialog::DoModal
EXTRN	?OnInitDialog@CDialog@@UAEHXZ:PROC		; CDialog::OnInitDialog
EXTRN	?OnSetFont@CDialog@@UAEXPAVCFont@@@Z:PROC	; CDialog::OnSetFont
EXTRN	?OnOK@CDialog@@MAEXXZ:PROC			; CDialog::OnOK
EXTRN	?OnCancel@CDialog@@MAEXXZ:PROC			; CDialog::OnCancel
EXTRN	??1CDialog@@UAE@XZ:PROC				; CDialog::~CDialog
EXTRN	?PreTranslateMessage@CDialog@@UAEHPAUtagMSG@@@Z:PROC ; CDialog::PreTranslateMessage
EXTRN	?OnCmdMsg@CDialog@@UAEHIHPAXPAUAFX_CMDHANDLERINFO@@@Z:PROC ; CDialog::OnCmdMsg
EXTRN	?CheckAutoCenter@CDialog@@UAEHXZ:PROC		; CDialog::CheckAutoCenter
EXTRN	?SetOccDialogInfo@CDialog@@MAEHPAU_AFX_OCC_DIALOG_INFO@@@Z:PROC ; CDialog::SetOccDialogInfo
EXTRN	?GetOccDialogInfo@CDialog@@MAEPAU_AFX_OCC_DIALOG_INFO@@XZ:PROC ; CDialog::GetOccDialogInfo
EXTRN	?PreInitDialog@CDialog@@MAEXXZ:PROC		; CDialog::PreInitDialog
EXTRN	?GetThisMessageMap@CDialog@@KGPBUAFX_MSGMAP@@XZ:PROC ; CDialog::GetThisMessageMap
EXTRN	?AfxMessageBox@@YGHPBDII@Z:PROC			; AfxMessageBox
EXTRN	??_ECDlgInputTick@@UAEPAXI@Z:PROC		; CDlgInputTick::`vector deleting destructor'
EXTRN	@__security_check_cookie@4:PROC
EXTRN	___CxxFrameHandler3:PROC
EXTRN	??_7type_info@@6B@:QWORD			; type_info::`vftable'
EXTRN	___security_cookie:DWORD
;	COMDAT __xmm@0000001f0000001f0000001e0000001f
CONST	SEGMENT
__xmm@0000001f0000001f0000001e0000001f DB 01fH, 00H, 00H, 00H, 01eH, 00H, 00H
	DB	00H, 01fH, 00H, 00H, 00H, 01fH, 00H, 00H, 00H
CONST	ENDS
;	COMDAT __xmm@0000001f0000001e0000001f0000001e
CONST	SEGMENT
__xmm@0000001f0000001e0000001f0000001e DB 01eH, 00H, 00H, 00H, 01fH, 00H, 00H
	DB	00H, 01eH, 00H, 00H, 00H, 01fH, 00H, 00H, 00H
CONST	ENDS
;	COMDAT __xmm@0000001e0000001f0000001d0000001f
CONST	SEGMENT
__xmm@0000001e0000001f0000001d0000001f DB 01fH, 00H, 00H, 00H, 01dH, 00H, 00H
	DB	00H, 01fH, 00H, 00H, 00H, 01eH, 00H, 00H, 00H
CONST	ENDS
;	COMDAT ??_R1A@?0A@EA@CDlgInputTick@@8
rdata$r	SEGMENT
??_R1A@?0A@EA@CDlgInputTick@@8 DD FLAT:??_R0?AVCDlgInputTick@@@8 ; CDlgInputTick::`RTTI Base Class Descriptor at (0,-1,0,64)'
	DD	04H
	DD	00H
	DD	0ffffffffH
	DD	00H
	DD	040H
	DD	FLAT:??_R3CDlgInputTick@@8
rdata$r	ENDS
;	COMDAT ??_R2CDlgInputTick@@8
rdata$r	SEGMENT
??_R2CDlgInputTick@@8 DD FLAT:??_R1A@?0A@EA@CDlgInputTick@@8 ; CDlgInputTick::`RTTI Base Class Array'
	DD	FLAT:??_R1A@?0A@EA@CDialog@@8
	DD	FLAT:??_R1A@?0A@EA@CWnd@@8
	DD	FLAT:??_R1A@?0A@EA@CCmdTarget@@8
	DD	FLAT:??_R1A@?0A@EA@CObject@@8
rdata$r	ENDS
;	COMDAT ??_R3CDlgInputTick@@8
rdata$r	SEGMENT
??_R3CDlgInputTick@@8 DD 00H				; CDlgInputTick::`RTTI Class Hierarchy Descriptor'
	DD	00H
	DD	05H
	DD	FLAT:??_R2CDlgInputTick@@8
rdata$r	ENDS
;	COMDAT ??_R0?AVCDlgInputTick@@@8
data$rs	SEGMENT
??_R0?AVCDlgInputTick@@@8 DD FLAT:??_7type_info@@6B@	; CDlgInputTick `RTTI Type Descriptor'
	DD	00H
	DB	'.?AVCDlgInputTick@@', 00H
data$rs	ENDS
;	COMDAT ??_R4CDlgInputTick@@6B@
rdata$r	SEGMENT
??_R4CDlgInputTick@@6B@ DD 00H				; CDlgInputTick::`RTTI Complete Object Locator'
	DD	00H
	DD	00H
	DD	FLAT:??_R0?AVCDlgInputTick@@@8
	DD	FLAT:??_R3CDlgInputTick@@8
rdata$r	ENDS
;	COMDAT ??_C@_0BB@MAGBLHLO@?$CF02d?$CF02d?$CF02d?$CF02d@
CONST	SEGMENT
??_C@_0BB@MAGBLHLO@?$CF02d?$CF02d?$CF02d?$CF02d@ DB '%02d%02d%02d%02d', 00H ; `string'
CONST	ENDS
;	COMDAT ??_C@_04OGKJMPGK@?$CF02d@
CONST	SEGMENT
??_C@_04OGKJMPGK@?$CF02d@ DB '%02d', 00H		; `string'
CONST	ENDS
;	COMDAT ?messageMap@?1??GetThisMessageMap@CDlgInputTick@@KGPBUAFX_MSGMAP@@XZ@4U3@B
CONST	SEGMENT
?messageMap@?1??GetThisMessageMap@CDlgInputTick@@KGPBUAFX_MSGMAP@@XZ@4U3@B DD FLAT:?GetThisMessageMap@CDialog@@KGPBUAFX_MSGMAP@@XZ ; `CDlgInputTick::GetThisMessageMap'::`2'::messageMap
	DD	FLAT:?_messageEntries@?1??GetThisMessageMap@CDlgInputTick@@KGPBUAFX_MSGMAP@@XZ@4QBUAFX_MSGMAP_ENTRY@@B
CONST	ENDS
;	COMDAT ?_messageEntries@?1??GetThisMessageMap@CDlgInputTick@@KGPBUAFX_MSGMAP@@XZ@4QBUAFX_MSGMAP_ENTRY@@B
CONST	SEGMENT
?_messageEntries@?1??GetThisMessageMap@CDlgInputTick@@KGPBUAFX_MSGMAP@@XZ@4QBUAFX_MSGMAP_ENTRY@@B DD 00H ; `CDlgInputTick::GetThisMessageMap'::`2'::_messageEntries
	DD	00H
	DD	00H
	DD	00H
	DD	00H
	DD	00H
CONST	ENDS
;	COMDAT ??_7CDlgInputTick@@6B@
CONST	SEGMENT
??_7CDlgInputTick@@6B@ DD FLAT:??_R4CDlgInputTick@@6B@	; CDlgInputTick::`vftable'
	DD	FLAT:?GetRuntimeClass@CDialog@@UBEPAUCRuntimeClass@@XZ
	DD	FLAT:??_ECDlgInputTick@@UAEPAXI@Z
	DD	FLAT:?Serialize@CObject@@UAEXAAVCArchive@@@Z
	DD	FLAT:?AssertValid@CObject@@UBEXXZ
	DD	FLAT:?Dump@CObject@@UBEXAAVCDumpContext@@@Z
	DD	FLAT:?OnCmdMsg@CDialog@@UAEHIHPAXPAUAFX_CMDHANDLERINFO@@@Z
	DD	FLAT:?OnFinalRelease@CWnd@@UAEXXZ
	DD	FLAT:?IsInvokeAllowed@CCmdTarget@@UAEHJ@Z
	DD	FLAT:?GetDispatchIID@CCmdTarget@@UAEHPAU_GUID@@@Z
	DD	FLAT:?GetTypeInfoCount@CCmdTarget@@UAEIXZ
	DD	FLAT:?GetTypeLibCache@CCmdTarget@@UAEPAVCTypeLibCache@@XZ
	DD	FLAT:?GetTypeLib@CCmdTarget@@UAEJKPAPAUITypeLib@@@Z
	DD	FLAT:?GetMessageMap@CDlgInputTick@@MBEPBUAFX_MSGMAP@@XZ
	DD	FLAT:?GetCommandMap@CCmdTarget@@MBEPBUAFX_OLECMDMAP@@XZ
	DD	FLAT:?GetDispatchMap@CCmdTarget@@MBEPBUAFX_DISPMAP@@XZ
	DD	FLAT:?GetConnectionMap@CCmdTarget@@MBEPBUAFX_CONNECTIONMAP@@XZ
	DD	FLAT:?GetInterfaceMap@CWnd@@MBEPBUAFX_INTERFACEMAP@@XZ
	DD	FLAT:?GetEventSinkMap@CCmdTarget@@MBEPBUAFX_EVENTSINKMAP@@XZ
	DD	FLAT:?OnCreateAggregates@CCmdTarget@@UAEHXZ
	DD	FLAT:?GetInterfaceHook@CCmdTarget@@UAEPAUIUnknown@@PBX@Z
	DD	FLAT:?GetExtraConnectionPoints@CCmdTarget@@MAEHPAVCPtrArray@@@Z
	DD	FLAT:?GetConnectionHook@CCmdTarget@@MAEPAUIConnectionPoint@@ABU_GUID@@@Z
	DD	FLAT:?PreSubclassWindow@CWnd@@UAEXXZ
	DD	FLAT:?Create@CWnd@@UAEHPBD0KABUtagRECT@@PAV1@IPAUCCreateContext@@@Z
	DD	FLAT:?CreateEx@CWnd@@UAEHKPBD0KABUtagRECT@@PAV1@IPAX@Z
	DD	FLAT:?CreateEx@CWnd@@UAEHKPBD0KHHHHPAUHWND__@@PAUHMENU__@@PAX@Z
	DD	FLAT:?DestroyWindow@CWnd@@UAEHXZ
	DD	FLAT:?PreCreateWindow@CWnd@@UAEHAAUtagCREATESTRUCTA@@@Z
	DD	FLAT:?CalcWindowRect@CWnd@@UAEXPAUtagRECT@@I@Z
	DD	FLAT:?GetMenu@CWnd@@UBEPAVCMenu@@XZ
	DD	FLAT:?SetMenu@CWnd@@UAEHPAVCMenu@@@Z
	DD	FLAT:?OnToolHitTest@CWnd@@UBEHVCPoint@@PAUtagTOOLINFOA@@@Z
	DD	FLAT:?GetScrollBarCtrl@CWnd@@UBEPAVCScrollBar@@H@Z
	DD	FLAT:?WinHelpA@CWnd@@UAEXKI@Z
	DD	FLAT:?HtmlHelpA@CWnd@@UAEXKI@Z
	DD	FLAT:?WinHelpInternal@CWnd@@UAEXKI@Z
	DD	FLAT:?ContinueModal@CWnd@@UAEHXZ
	DD	FLAT:?EndModalLoop@CWnd@@UAEXH@Z
	DD	FLAT:?OnDrawIconicThumbnailOrLivePreview@CWnd@@UAEXAAVCDC@@VCRect@@VCSize@@HAAH@Z
	DD	FLAT:?EnsureStdObj@CWnd@@UAEJXZ
	DD	FLAT:?get_accParent@CWnd@@UAEJPAPAUIDispatch@@@Z
	DD	FLAT:?get_accChildCount@CWnd@@UAEJPAJ@Z
	DD	FLAT:?get_accChild@CWnd@@UAEJUtagVARIANT@@PAPAUIDispatch@@@Z
	DD	FLAT:?get_accName@CWnd@@UAEJUtagVARIANT@@PAPA_W@Z
	DD	FLAT:?get_accValue@CWnd@@UAEJUtagVARIANT@@PAPA_W@Z
	DD	FLAT:?get_accDescription@CWnd@@UAEJUtagVARIANT@@PAPA_W@Z
	DD	FLAT:?get_accRole@CWnd@@UAEJUtagVARIANT@@PAU2@@Z
	DD	FLAT:?get_accState@CWnd@@UAEJUtagVARIANT@@PAU2@@Z
	DD	FLAT:?get_accHelp@CWnd@@UAEJUtagVARIANT@@PAPA_W@Z
	DD	FLAT:?get_accHelpTopic@CWnd@@UAEJPAPA_WUtagVARIANT@@PAJ@Z
	DD	FLAT:?get_accKeyboardShortcut@CWnd@@UAEJUtagVARIANT@@PAPA_W@Z
	DD	FLAT:?get_accFocus@CWnd@@UAEJPAUtagVARIANT@@@Z
	DD	FLAT:?get_accSelection@CWnd@@UAEJPAUtagVARIANT@@@Z
	DD	FLAT:?get_accDefaultAction@CWnd@@UAEJUtagVARIANT@@PAPA_W@Z
	DD	FLAT:?accSelect@CWnd@@UAEJJUtagVARIANT@@@Z
	DD	FLAT:?accLocation@CWnd@@UAEJPAJ000UtagVARIANT@@@Z
	DD	FLAT:?accNavigate@CWnd@@UAEJJUtagVARIANT@@PAU2@@Z
	DD	FLAT:?accHitTest@CWnd@@UAEJJJPAUtagVARIANT@@@Z
	DD	FLAT:?accDoDefaultAction@CWnd@@UAEJUtagVARIANT@@@Z
	DD	FLAT:?put_accName@CWnd@@UAEJUtagVARIANT@@PA_W@Z
	DD	FLAT:?put_accValue@CWnd@@UAEJUtagVARIANT@@PA_W@Z
	DD	FLAT:?SetProxy@CWnd@@UAEJPAUIAccessibleProxy@@@Z
	DD	FLAT:?CreateAccessibleProxy@CWnd@@UAEJIJPAJ@Z
	DD	FLAT:?OnCommand@CWnd@@MAEHIJ@Z
	DD	FLAT:?OnNotify@CWnd@@MAEHIJPAJ@Z
	DD	FLAT:?GetSuperWndProcAddr@CWnd@@MAEPAP6GJPAUHWND__@@IIJ@ZXZ
	DD	FLAT:?DoDataExchange@CDlgInputTick@@MAEXPAVCDataExchange@@@Z
	DD	FLAT:?BeginModalState@CWnd@@UAEXXZ
	DD	FLAT:?EndModalState@CWnd@@UAEXXZ
	DD	FLAT:?PreTranslateMessage@CDialog@@UAEHPAUtagMSG@@@Z
	DD	FLAT:?OnAmbientProperty@CWnd@@UAEHPAVCOleControlSite@@JPAUtagVARIANT@@@Z
	DD	FLAT:?WindowProc@CWnd@@MAEJIIJ@Z
	DD	FLAT:?OnWndMsg@CWnd@@MAEHIIJPAJ@Z
	DD	FLAT:?DefWindowProcA@CWnd@@MAEJIIJ@Z
	DD	FLAT:?PostNcDestroy@CWnd@@MAEXXZ
	DD	FLAT:?OnChildNotify@CWnd@@MAEHIIJPAJ@Z
	DD	FLAT:?OnTouchInputs@CWnd@@MAEHIPAUtagTOUCHINPUT@@@Z
	DD	FLAT:?OnTouchInput@CWnd@@MAEHVCPoint@@HHPAUtagTOUCHINPUT@@@Z
	DD	FLAT:?GetGestureStatus@CWnd@@MAEKVCPoint@@@Z
	DD	FLAT:?OnGestureZoom@CWnd@@MAEHVCPoint@@J@Z
	DD	FLAT:?OnGesturePan@CWnd@@MAEHVCPoint@@0@Z
	DD	FLAT:?OnGestureRotate@CWnd@@MAEHVCPoint@@N@Z
	DD	FLAT:?OnGestureTwoFingerTap@CWnd@@MAEHVCPoint@@@Z
	DD	FLAT:?OnGesturePressAndTap@CWnd@@MAEHVCPoint@@J@Z
	DD	FLAT:?ResizeDynamicLayout@CWnd@@MAEXXZ
	DD	FLAT:?CheckAutoCenter@CDialog@@UAEHXZ
	DD	FLAT:?IsFrameWnd@CWnd@@UBEHXZ
	DD	FLAT:?CreateControlContainer@CWnd@@MAEHPAPAVCOleControlContainer@@@Z
	DD	FLAT:?CreateControlSite@CWnd@@MAEHPAVCOleControlContainer@@PAPAVCOleControlSite@@IABU_GUID@@@Z
	DD	FLAT:?SetOccDialogInfo@CDialog@@MAEHPAU_AFX_OCC_DIALOG_INFO@@@Z
	DD	FLAT:?GetOccDialogInfo@CDialog@@MAEPAU_AFX_OCC_DIALOG_INFO@@XZ
	DD	FLAT:?Create@CDialog@@UAEHIPAVCWnd@@@Z
	DD	FLAT:?Create@CDialog@@UAEHPBDPAVCWnd@@@Z
	DD	FLAT:?CreateIndirect@CDialog@@UAEHPAXPAVCWnd@@@Z
	DD	FLAT:?CreateIndirect@CDialog@@UAEHPBUDLGTEMPLATE@@PAVCWnd@@PAX@Z
	DD	FLAT:?DoModal@CDialog@@UAEHXZ
	DD	FLAT:?OnInitDialog@CDlgInputTick@@MAEHXZ
	DD	FLAT:?OnSetFont@CDialog@@UAEXPAVCFont@@@Z
	DD	FLAT:?OnOK@CDlgInputTick@@MAEXXZ
	DD	FLAT:?OnCancel@CDialog@@MAEXXZ
	DD	FLAT:?PreInitDialog@CDialog@@MAEXXZ
CONST	ENDS
;	COMDAT ??_R2CDialog@@8
rdata$r	SEGMENT
??_R2CDialog@@8 DD FLAT:??_R1A@?0A@EA@CDialog@@8	; CDialog::`RTTI Base Class Array'
	DD	FLAT:??_R1A@?0A@EA@CWnd@@8
	DD	FLAT:??_R1A@?0A@EA@CCmdTarget@@8
	DD	FLAT:??_R1A@?0A@EA@CObject@@8
rdata$r	ENDS
;	COMDAT ??_R3CDialog@@8
rdata$r	SEGMENT
??_R3CDialog@@8 DD 00H					; CDialog::`RTTI Class Hierarchy Descriptor'
	DD	00H
	DD	04H
	DD	FLAT:??_R2CDialog@@8
rdata$r	ENDS
;	COMDAT ??_R0?AVCDialog@@@8
data$rs	SEGMENT
??_R0?AVCDialog@@@8 DD FLAT:??_7type_info@@6B@		; CDialog `RTTI Type Descriptor'
	DD	00H
	DB	'.?AVCDialog@@', 00H
data$rs	ENDS
;	COMDAT ??_R1A@?0A@EA@CDialog@@8
rdata$r	SEGMENT
??_R1A@?0A@EA@CDialog@@8 DD FLAT:??_R0?AVCDialog@@@8	; CDialog::`RTTI Base Class Descriptor at (0,-1,0,64)'
	DD	03H
	DD	00H
	DD	0ffffffffH
	DD	00H
	DD	040H
	DD	FLAT:??_R3CDialog@@8
rdata$r	ENDS
;	COMDAT ??_R2CCmdTarget@@8
rdata$r	SEGMENT
??_R2CCmdTarget@@8 DD FLAT:??_R1A@?0A@EA@CCmdTarget@@8	; CCmdTarget::`RTTI Base Class Array'
	DD	FLAT:??_R1A@?0A@EA@CObject@@8
rdata$r	ENDS
;	COMDAT ??_R3CCmdTarget@@8
rdata$r	SEGMENT
??_R3CCmdTarget@@8 DD 00H				; CCmdTarget::`RTTI Class Hierarchy Descriptor'
	DD	00H
	DD	02H
	DD	FLAT:??_R2CCmdTarget@@8
rdata$r	ENDS
;	COMDAT ??_R0?AVCCmdTarget@@@8
data$rs	SEGMENT
??_R0?AVCCmdTarget@@@8 DD FLAT:??_7type_info@@6B@	; CCmdTarget `RTTI Type Descriptor'
	DD	00H
	DB	'.?AVCCmdTarget@@', 00H
data$rs	ENDS
;	COMDAT ??_R1A@?0A@EA@CCmdTarget@@8
rdata$r	SEGMENT
??_R1A@?0A@EA@CCmdTarget@@8 DD FLAT:??_R0?AVCCmdTarget@@@8 ; CCmdTarget::`RTTI Base Class Descriptor at (0,-1,0,64)'
	DD	01H
	DD	00H
	DD	0ffffffffH
	DD	00H
	DD	040H
	DD	FLAT:??_R3CCmdTarget@@8
rdata$r	ENDS
;	COMDAT ??_R2CWnd@@8
rdata$r	SEGMENT
??_R2CWnd@@8 DD	FLAT:??_R1A@?0A@EA@CWnd@@8		; CWnd::`RTTI Base Class Array'
	DD	FLAT:??_R1A@?0A@EA@CCmdTarget@@8
	DD	FLAT:??_R1A@?0A@EA@CObject@@8
rdata$r	ENDS
;	COMDAT ??_R3CWnd@@8
rdata$r	SEGMENT
??_R3CWnd@@8 DD	00H					; CWnd::`RTTI Class Hierarchy Descriptor'
	DD	00H
	DD	03H
	DD	FLAT:??_R2CWnd@@8
rdata$r	ENDS
;	COMDAT ??_R0?AVCWnd@@@8
data$rs	SEGMENT
??_R0?AVCWnd@@@8 DD FLAT:??_7type_info@@6B@		; CWnd `RTTI Type Descriptor'
	DD	00H
	DB	'.?AVCWnd@@', 00H
data$rs	ENDS
;	COMDAT ??_R1A@?0A@EA@CWnd@@8
rdata$r	SEGMENT
??_R1A@?0A@EA@CWnd@@8 DD FLAT:??_R0?AVCWnd@@@8		; CWnd::`RTTI Base Class Descriptor at (0,-1,0,64)'
	DD	02H
	DD	00H
	DD	0ffffffffH
	DD	00H
	DD	040H
	DD	FLAT:??_R3CWnd@@8
rdata$r	ENDS
;	COMDAT ??_R1A@?0A@EA@CObject@@8
rdata$r	SEGMENT
??_R1A@?0A@EA@CObject@@8 DD FLAT:??_R0?AVCObject@@@8	; CObject::`RTTI Base Class Descriptor at (0,-1,0,64)'
	DD	00H
	DD	00H
	DD	0ffffffffH
	DD	00H
	DD	040H
	DD	FLAT:??_R3CObject@@8
rdata$r	ENDS
;	COMDAT ??_R2CObject@@8
rdata$r	SEGMENT
??_R2CObject@@8 DD FLAT:??_R1A@?0A@EA@CObject@@8	; CObject::`RTTI Base Class Array'
rdata$r	ENDS
;	COMDAT ??_R3CObject@@8
rdata$r	SEGMENT
??_R3CObject@@8 DD 00H					; CObject::`RTTI Class Hierarchy Descriptor'
	DD	00H
	DD	01H
	DD	FLAT:??_R2CObject@@8
rdata$r	ENDS
;	COMDAT ??_R0?AVCObject@@@8
data$rs	SEGMENT
??_R0?AVCObject@@@8 DD FLAT:??_7type_info@@6B@		; CObject `RTTI Type Descriptor'
	DD	00H
	DB	'.?AVCObject@@', 00H
data$rs	ENDS
;	COMDAT ??_C@_00CNPNBAHC@@
CONST	SEGMENT
??_C@_00CNPNBAHC@@ DB 00H				; `string'
CONST	ENDS
;	COMDAT xdata$x
xdata$x	SEGMENT
__ehfuncinfo$?OnOK@CDlgInputTick@@MAEXXZ DD 019930522H
	DD	05H
	DD	FLAT:__unwindtable$?OnOK@CDlgInputTick@@MAEXXZ
	DD	2 DUP(00H)
	DD	2 DUP(00H)
	DD	00H
	DD	01H
__unwindtable$?OnOK@CDlgInputTick@@MAEXXZ DD 0ffffffffH
	DD	FLAT:__unwindfunclet$?OnOK@CDlgInputTick@@MAEXXZ$0
	DD	00H
	DD	FLAT:__unwindfunclet$?OnOK@CDlgInputTick@@MAEXXZ$1
	DD	00H
	DD	FLAT:__unwindfunclet$?OnOK@CDlgInputTick@@MAEXXZ$2
	DD	00H
	DD	FLAT:__unwindfunclet$?OnOK@CDlgInputTick@@MAEXXZ$3
	DD	00H
	DD	FLAT:__unwindfunclet$?OnOK@CDlgInputTick@@MAEXXZ$4
xdata$x	ENDS
;	COMDAT xdata$x
xdata$x	SEGMENT
__unwindtable$?OnInitDialog@CDlgInputTick@@MAEHXZ DD 0ffffffffH
	DD	FLAT:__unwindfunclet$?OnInitDialog@CDlgInputTick@@MAEHXZ$0
	DD	0ffffffffH
	DD	FLAT:__unwindfunclet$?OnInitDialog@CDlgInputTick@@MAEHXZ$1
	DD	0ffffffffH
	DD	FLAT:__unwindfunclet$?OnInitDialog@CDlgInputTick@@MAEHXZ$2
	DD	0ffffffffH
	DD	FLAT:__unwindfunclet$?OnInitDialog@CDlgInputTick@@MAEHXZ$3
__ehfuncinfo$?OnInitDialog@CDlgInputTick@@MAEHXZ DD 019930522H
	DD	04H
	DD	FLAT:__unwindtable$?OnInitDialog@CDlgInputTick@@MAEHXZ
	DD	2 DUP(00H)
	DD	2 DUP(00H)
	DD	00H
	DD	01H
xdata$x	ENDS
;	COMDAT xdata$x
xdata$x	SEGMENT
__ehfuncinfo$??0CDlgInputTick@@QAE@PAVCWnd@@@Z DD 019930522H
	DD	06H
	DD	FLAT:__unwindtable$??0CDlgInputTick@@QAE@PAVCWnd@@@Z
	DD	2 DUP(00H)
	DD	2 DUP(00H)
	DD	00H
	DD	01H
__unwindtable$??0CDlgInputTick@@QAE@PAVCWnd@@@Z DD 0ffffffffH
	DD	FLAT:__unwindfunclet$??0CDlgInputTick@@QAE@PAVCWnd@@@Z$0
	DD	00H
	DD	FLAT:__unwindfunclet$??0CDlgInputTick@@QAE@PAVCWnd@@@Z$1
	DD	01H
	DD	FLAT:__unwindfunclet$??0CDlgInputTick@@QAE@PAVCWnd@@@Z$2
	DD	02H
	DD	FLAT:__unwindfunclet$??0CDlgInputTick@@QAE@PAVCWnd@@@Z$3
	DD	03H
	DD	FLAT:__unwindfunclet$??0CDlgInputTick@@QAE@PAVCWnd@@@Z$4
	DD	04H
	DD	FLAT:__unwindfunclet$??0CDlgInputTick@@QAE@PAVCWnd@@@Z$5
xdata$x	ENDS
; Function compile flags: /Ogtp
; File C:\Program Files (x86)\Microsoft Visual Studio\2019\Community\VC\Tools\MSVC\14.29.30133\atlmfc\include\afx.inl
;	COMDAT ??_GCDlgInputTick@@UAEPAXI@Z
_TEXT	SEGMENT
___flags$ = 8						; size = 4
??_GCDlgInputTick@@UAEPAXI@Z PROC			; CDlgInputTick::`scalar deleting destructor', COMDAT
; _this$ = ecx
  00000	55		 push	 ebp
  00001	8b ec		 mov	 ebp, esp
  00003	56		 push	 esi
  00004	8b f1		 mov	 esi, ecx
  00006	8d 8e b8 00 00
	00		 lea	 ecx, DWORD PTR [esi+184]
  0000c	ff 15 00 00 00
	00		 call	 DWORD PTR __imp_??1?$CStringT@DV?$StrTraitMFC_DLL@DV?$ChTraitsCRT@D@ATL@@@@@ATL@@QAE@XZ
  00012	8d 8e b4 00 00
	00		 lea	 ecx, DWORD PTR [esi+180]
  00018	ff 15 00 00 00
	00		 call	 DWORD PTR __imp_??1?$CStringT@DV?$StrTraitMFC_DLL@DV?$ChTraitsCRT@D@ATL@@@@@ATL@@QAE@XZ
  0001e	8d 8e b0 00 00
	00		 lea	 ecx, DWORD PTR [esi+176]
  00024	ff 15 00 00 00
	00		 call	 DWORD PTR __imp_??1?$CStringT@DV?$StrTraitMFC_DLL@DV?$ChTraitsCRT@D@ATL@@@@@ATL@@QAE@XZ
  0002a	8d 8e ac 00 00
	00		 lea	 ecx, DWORD PTR [esi+172]
  00030	ff 15 00 00 00
	00		 call	 DWORD PTR __imp_??1?$CStringT@DV?$StrTraitMFC_DLL@DV?$ChTraitsCRT@D@ATL@@@@@ATL@@QAE@XZ
  00036	8d 8e a8 00 00
	00		 lea	 ecx, DWORD PTR [esi+168]
  0003c	ff 15 00 00 00
	00		 call	 DWORD PTR __imp_??1?$CStringT@DV?$StrTraitMFC_DLL@DV?$ChTraitsCRT@D@ATL@@@@@ATL@@QAE@XZ
  00042	8b ce		 mov	 ecx, esi
  00044	e8 00 00 00 00	 call	 ??1CDialog@@UAE@XZ	; CDialog::~CDialog
  00049	8b 45 08	 mov	 eax, DWORD PTR ___flags$[ebp]
  0004c	a8 01		 test	 al, 1
  0004e	74 22		 je	 SHORT $LN12@scalar
  00050	a8 04		 test	 al, 4
  00052	75 10		 jne	 SHORT $LN3@scalar

; 112  : 	{ ::operator delete(p); }

  00054	56		 push	 esi
  00055	e8 00 00 00 00	 call	 ??3@YAXPAX@Z		; operator delete
  0005a	83 c4 04	 add	 esp, 4
  0005d	8b c6		 mov	 eax, esi
  0005f	5e		 pop	 esi
  00060	5d		 pop	 ebp
  00061	c2 04 00	 ret	 4
$LN3@scalar:
  00064	68 c0 00 00 00	 push	 192			; 000000c0H
  00069	56		 push	 esi
  0006a	e8 00 00 00 00	 call	 ?__global_delete@@YAXPAXI@Z ; __global_delete
  0006f	83 c4 08	 add	 esp, 8
$LN12@scalar:
  00072	8b c6		 mov	 eax, esi
  00074	5e		 pop	 esi
  00075	5d		 pop	 ebp
  00076	c2 04 00	 ret	 4
??_GCDlgInputTick@@UAEPAXI@Z ENDP			; CDlgInputTick::`scalar deleting destructor'
_TEXT	ENDS
; Function compile flags: /Ogtp
; File D:\git\src\IBK\IBK_DRFN\ProjSrc\SrcChartEx\ChartAddIn\ChartDataListViewerAddIn\ChartDataListViewerAddIn\DlgInputTick.cpp
;	COMDAT ?GetMessageMap@CDlgInputTick@@MBEPBUAFX_MSGMAP@@XZ
_TEXT	SEGMENT
?GetMessageMap@CDlgInputTick@@MBEPBUAFX_MSGMAP@@XZ PROC	; CDlgInputTick::GetMessageMap, COMDAT
; _this$ = ecx

; 42   : BEGIN_MESSAGE_MAP(CDlgInputTick, CDialog)

  00000	b8 00 00 00 00	 mov	 eax, OFFSET ?messageMap@?1??GetThisMessageMap@CDlgInputTick@@KGPBUAFX_MSGMAP@@XZ@4U3@B
  00005	c3		 ret	 0
?GetMessageMap@CDlgInputTick@@MBEPBUAFX_MSGMAP@@XZ ENDP	; CDlgInputTick::GetMessageMap
_TEXT	ENDS
; Function compile flags: /Ogtp
; File D:\git\src\IBK\IBK_DRFN\ProjSrc\SrcChartEx\ChartAddIn\ChartDataListViewerAddIn\ChartDataListViewerAddIn\DlgInputTick.cpp
;	COMDAT ?GetThisMessageMap@CDlgInputTick@@KGPBUAFX_MSGMAP@@XZ
_TEXT	SEGMENT
?GetThisMessageMap@CDlgInputTick@@KGPBUAFX_MSGMAP@@XZ PROC ; CDlgInputTick::GetThisMessageMap, COMDAT

; 43   : 	//{{AFX_MSG_MAP(CDlgInputTick)
; 44   : 	//}}AFX_MSG_MAP
; 45   : END_MESSAGE_MAP()

  00000	b8 00 00 00 00	 mov	 eax, OFFSET ?messageMap@?1??GetThisMessageMap@CDlgInputTick@@KGPBUAFX_MSGMAP@@XZ@4U3@B
  00005	c3		 ret	 0
?GetThisMessageMap@CDlgInputTick@@KGPBUAFX_MSGMAP@@XZ ENDP ; CDlgInputTick::GetThisMessageMap
_TEXT	ENDS
; Function compile flags: /Ogtp
; File D:\git\src\IBK\IBK_DRFN\ProjSrc\SrcChartEx\ChartAddIn\ChartDataListViewerAddIn\ChartDataListViewerAddIn\DlgInputTick.cpp
; File C:\Program Files (x86)\Microsoft Visual Studio\2019\Community\VC\Tools\MSVC\14.29.30133\atlmfc\include\atltime.h
; File D:\git\src\IBK\IBK_DRFN\ProjSrc\SrcChartEx\ChartAddIn\ChartDataListViewerAddIn\ChartDataListViewerAddIn\DlgInputTick.cpp
; File C:\Program Files (x86)\Microsoft Visual Studio\2019\Community\VC\Tools\MSVC\14.29.30133\atlmfc\include\atltime.h
; File D:\git\src\IBK\IBK_DRFN\ProjSrc\SrcChartEx\ChartAddIn\ChartDataListViewerAddIn\ChartDataListViewerAddIn\DlgInputTick.cpp
;	COMDAT ?OnOK@CDlgInputTick@@MAEXXZ
_TEXT	SEGMENT
_t$ = -128						; size = 8
_nSecond$1$ = -120					; size = 4
_nMin$1$ = -116						; size = 4
_nHour$1$ = -112					; size = 4
_s$ = -108						; size = 4
_nD$1$ = -104						; size = 4
_s1$2 = -104						; size = 4
_s1$3 = -104						; size = 4
_s1$4 = -104						; size = 4
_s1$5 = -104						; size = 4
_ptmTemp$6 = -100					; size = 36
_nDayArray$ = -64					; size = 48
__$ArrayPad$ = -16					; size = 4
__$EHRec$ = -12						; size = 12
?OnOK@CDlgInputTick@@MAEXXZ PROC			; CDlgInputTick::OnOK, COMDAT
; _this$ = ecx

; 71   : {

  00000	55		 push	 ebp
  00001	8b ec		 mov	 ebp, esp
  00003	6a ff		 push	 -1
  00005	68 00 00 00 00	 push	 __ehhandler$?OnOK@CDlgInputTick@@MAEXXZ
  0000a	64 a1 00 00 00
	00		 mov	 eax, DWORD PTR fs:0
  00010	50		 push	 eax
  00011	83 ec 74	 sub	 esp, 116		; 00000074H
  00014	a1 00 00 00 00	 mov	 eax, DWORD PTR ___security_cookie
  00019	33 c5		 xor	 eax, ebp
  0001b	89 45 f0	 mov	 DWORD PTR __$ArrayPad$[ebp], eax
  0001e	53		 push	 ebx
  0001f	56		 push	 esi
  00020	57		 push	 edi
  00021	50		 push	 eax
  00022	8d 45 f4	 lea	 eax, DWORD PTR __$EHRec$[ebp]
  00025	64 a3 00 00 00
	00		 mov	 DWORD PTR fs:0, eax
  0002b	8b f9		 mov	 edi, ecx

; 72   : 	UpdateData();

  0002d	6a 01		 push	 1
  0002f	e8 00 00 00 00	 call	 ?UpdateData@CWnd@@QAEHH@Z ; CWnd::UpdateData

; 73   : 
; 74   : 	CString s;

  00034	8d 4d 94	 lea	 ecx, DWORD PTR _s$[ebp]
  00037	ff 15 00 00 00
	00		 call	 DWORD PTR __imp_??0?$CStringT@DV?$StrTraitMFC_DLL@DV?$ChTraitsCRT@D@ATL@@@@@ATL@@QAE@XZ

; 75   : 	int nD, nHour, nMin, nSecond;
; 76   : 	nD		= atoi(m_strDay);

  0003d	ff b7 ac 00 00
	00		 push	 DWORD PTR [edi+172]
  00043	8b 35 00 00 00
	00		 mov	 esi, DWORD PTR __imp__atoi
  00049	c7 45 fc 00 00
	00 00		 mov	 DWORD PTR __$EHRec$[ebp+8], 0
  00050	ff d6		 call	 esi

; 77   : 	nHour	= atoi(m_strHour);

  00052	ff b7 b0 00 00
	00		 push	 DWORD PTR [edi+176]
  00058	89 45 98	 mov	 DWORD PTR _nD$1$[ebp], eax
  0005b	ff d6		 call	 esi

; 78   : 	nMin	= atoi(m_strMin);

  0005d	ff b7 b4 00 00
	00		 push	 DWORD PTR [edi+180]
  00063	89 45 90	 mov	 DWORD PTR _nHour$1$[ebp], eax
  00066	ff d6		 call	 esi

; 79   : 	nSecond = atoi(m_strSecond);

  00068	ff b7 a8 00 00
	00		 push	 DWORD PTR [edi+168]
  0006e	89 45 8c	 mov	 DWORD PTR _nMin$1$[ebp], eax
  00071	ff d6		 call	 esi

; 82   : 	int nDayArray[] = {31, 29, 31, 30, 31, 30, 31, 31, 30, 31, 30, 31};	

  00073	0f 28 05 00 00
	00 00		 movaps	 xmm0, XMMWORD PTR __xmm@0000001e0000001f0000001d0000001f
  0007a	0f 11 45 c0	 movups	 XMMWORD PTR _nDayArray$[ebp], xmm0
; File C:\Program Files (x86)\Microsoft Visual Studio\2019\Community\VC\Tools\MSVC\14.29.30133\atlmfc\include\atltime.h

; 374  : 	return( CTime( ::_time64( NULL ) ) );

  0007e	6a 00		 push	 0
; File D:\git\src\IBK\IBK_DRFN\ProjSrc\SrcChartEx\ChartAddIn\ChartDataListViewerAddIn\ChartDataListViewerAddIn\DlgInputTick.cpp

; 82   : 	int nDayArray[] = {31, 29, 31, 30, 31, 30, 31, 31, 30, 31, 30, 31};	

  00080	0f 28 05 00 00
	00 00		 movaps	 xmm0, XMMWORD PTR __xmm@0000001f0000001f0000001e0000001f
  00087	0f 11 45 d0	 movups	 XMMWORD PTR _nDayArray$[ebp+16], xmm0
  0008b	89 45 88	 mov	 DWORD PTR _nSecond$1$[ebp], eax
  0008e	0f 28 05 00 00
	00 00		 movaps	 xmm0, XMMWORD PTR __xmm@0000001f0000001e0000001f0000001e
  00095	0f 11 45 e0	 movups	 XMMWORD PTR _nDayArray$[ebp+32], xmm0
; File C:\Program Files (x86)\Microsoft Visual Studio\2019\Community\VC\Tools\MSVC\14.29.30133\atlmfc\include\atltime.h

; 374  : 	return( CTime( ::_time64( NULL ) ) );

  00099	ff 15 00 00 00
	00		 call	 DWORD PTR __imp___time64

; 417  : 	m_time( time )

  0009f	89 45 80	 mov	 DWORD PTR _t$[ebp], eax

; 614  : 		errno_t err = _localtime64_s(&ptmTemp, &m_time);

  000a2	8d 45 80	 lea	 eax, DWORD PTR _t$[ebp]
  000a5	50		 push	 eax
  000a6	8d 45 9c	 lea	 eax, DWORD PTR _ptmTemp$6[ebp]

; 417  : 	m_time( time )

  000a9	89 55 84	 mov	 DWORD PTR _t$[ebp+4], edx

; 614  : 		errno_t err = _localtime64_s(&ptmTemp, &m_time);

  000ac	50		 push	 eax
  000ad	ff 15 00 00 00
	00		 call	 DWORD PTR __imp___localtime64_s
  000b3	83 c4 1c	 add	 esp, 28			; 0000001cH

; 615  : 
; 616  : 		if (err != 0)

  000b6	85 c0		 test	 eax, eax
  000b8	75 0b		 jne	 SHORT $LN38@OnOK

; 671  : 	return ptm ? ptm->tm_mon + 1 : 0;

  000ba	8b 45 ac	 mov	 eax, DWORD PTR _ptmTemp$6[ebp+16]
  000bd	8d 5d c4	 lea	 ebx, DWORD PTR _nDayArray$[ebp+4]
  000c0	8d 1c 83	 lea	 ebx, DWORD PTR [ebx+eax*4]
  000c3	eb 03		 jmp	 SHORT $LN39@OnOK
$LN38@OnOK:
  000c5	8d 5d c0	 lea	 ebx, DWORD PTR _nDayArray$[ebp]
$LN39@OnOK:
; File D:\git\src\IBK\IBK_DRFN\ProjSrc\SrcChartEx\ChartAddIn\ChartDataListViewerAddIn\ChartDataListViewerAddIn\DlgInputTick.cpp

; 86   : 	if(nD < 1 || nDayArray[nM-1] < nD)

  000c8	8b 45 98	 mov	 eax, DWORD PTR _nD$1$[ebp]
  000cb	83 f8 01	 cmp	 eax, 1
  000ce	0f 8c 99 00 00
	00		 jl	 $LN99@OnOK
  000d4	8b 73 fc	 mov	 esi, DWORD PTR [ebx-4]
  000d7	3b f0		 cmp	 esi, eax
  000d9	0f 8c 8e 00 00
	00		 jl	 $LN99@OnOK

; 91   : 		AfxMessageBox(s1);
; 92   : 		CEdit * pEdit = (CEdit *)GetDlgItem(IDC_EDT_TICK_DAY);
; 93   : 		if(pEdit && IsWindow(pEdit->GetSafeHwnd()))
; 94   : 		{
; 95   : 			pEdit->SetFocus();
; 96   : 			pEdit->SetSel(0, -1);
; 97   : 		}		
; 98   : 		return;
; 99   : 	}
; 100  : 	
; 101  : 	if(nHour < 0 || 23 < nHour)

  000df	8b 4d 90	 mov	 ecx, DWORD PTR _nHour$1$[ebp]
  000e2	83 f9 17	 cmp	 ecx, 23			; 00000017H
  000e5	77 6b		 ja	 SHORT $LN6@OnOK

; 106  : 		AfxMessageBox(s1);
; 107  : 		CEdit * pEdit = (CEdit *)GetDlgItem(IDC_EDT_TICK_DAY);
; 108  : 		if(pEdit && IsWindow(pEdit->GetSafeHwnd()))
; 109  : 		{
; 110  : 			pEdit->SetFocus();
; 111  : 			pEdit->SetSel(0, -1);
; 112  : 		}		
; 113  : 		return;
; 114  : 	}
; 115  : 
; 116  : 	if(nMin < 0 || 60 <= nMin)

  000e7	8b 55 8c	 mov	 edx, DWORD PTR _nMin$1$[ebp]
  000ea	83 fa 3b	 cmp	 edx, 59			; 0000003bH
  000ed	77 48		 ja	 SHORT $LN9@OnOK

; 121  : 		AfxMessageBox(s1);
; 122  : 		CEdit * pEdit = (CEdit *)GetDlgItem(IDC_EDT_TICK_DAY);
; 123  : 		if(pEdit && IsWindow(pEdit->GetSafeHwnd()))
; 124  : 		{
; 125  : 			pEdit->SetFocus();
; 126  : 			pEdit->SetSel(0, -1);
; 127  : 		}		
; 128  : 		return;
; 129  : 	}
; 130  : 
; 131  : 	if(nSecond < 0 || 60 <= nSecond)

  000ef	8b 5d 88	 mov	 ebx, DWORD PTR _nSecond$1$[ebp]
  000f2	83 fb 3b	 cmp	 ebx, 59			; 0000003bH
  000f5	77 25		 ja	 SHORT $LN12@OnOK

; 136  : 		AfxMessageBox(s1);
; 137  : 		CEdit * pEdit = (CEdit *)GetDlgItem(IDC_EDT_TICK_DAY);
; 138  : 		if(pEdit && IsWindow(pEdit->GetSafeHwnd()))
; 139  : 		{
; 140  : 			pEdit->SetFocus();
; 141  : 			pEdit->SetSel(0, -1);
; 142  : 		}		
; 143  : 		return;
; 144  : 	}
; 145  : 
; 146  : 	m_strCurrentDate.Format("%02d%02d%02d%02d", nD, nHour, nMin, nSecond);

  000f7	53		 push	 ebx
  000f8	52		 push	 edx
  000f9	51		 push	 ecx
  000fa	50		 push	 eax
  000fb	8d 87 b8 00 00
	00		 lea	 eax, DWORD PTR [edi+184]
  00101	68 00 00 00 00	 push	 OFFSET ??_C@_0BB@MAGBLHLO@?$CF02d?$CF02d?$CF02d?$CF02d@
  00106	50		 push	 eax
  00107	ff 15 00 00 00
	00		 call	 DWORD PTR __imp_?Format@?$CStringT@DV?$StrTraitMFC_DLL@DV?$ChTraitsCRT@D@ATL@@@@@ATL@@QAAXPBDZZ
  0010d	83 c4 18	 add	 esp, 24			; 00000018H

; 147  : 
; 148  : 	CDialog::OnOK();

  00110	8b cf		 mov	 ecx, edi
  00112	e8 00 00 00 00	 call	 ?OnOK@CDialog@@MAEXXZ	; CDialog::OnOK
  00117	e9 d9 00 00 00	 jmp	 $LN23@OnOK
$LN12@OnOK:

; 132  : 	{
; 133  : 		CString s1;

  0011c	8d 4d 98	 lea	 ecx, DWORD PTR _s1$2[ebp]
  0011f	ff 15 00 00 00
	00		 call	 DWORD PTR __imp_??0?$CStringT@DV?$StrTraitMFC_DLL@DV?$ChTraitsCRT@D@ATL@@@@@ATL@@QAE@XZ

; 134  : 		s.LoadString(IDS_MSG_ADD_D_ERROR);

  00125	6a 18		 push	 24			; 00000018H
  00127	8d 4d 94	 lea	 ecx, DWORD PTR _s$[ebp]
  0012a	c6 45 fc 04	 mov	 BYTE PTR __$EHRec$[ebp+8], 4
  0012e	ff 15 00 00 00
	00		 call	 DWORD PTR __imp_?LoadStringA@?$CStringT@DV?$StrTraitMFC_DLL@DV?$ChTraitsCRT@D@ATL@@@@@ATL@@QAEHI@Z

; 135  : 		s1.Format(s, nDayArray[nM-1]);

  00134	56		 push	 esi
  00135	eb 51		 jmp	 SHORT $LN104@OnOK
$LN9@OnOK:

; 117  : 	{
; 118  : 		CString s1;

  00137	8d 4d 98	 lea	 ecx, DWORD PTR _s1$3[ebp]
  0013a	ff 15 00 00 00
	00		 call	 DWORD PTR __imp_??0?$CStringT@DV?$StrTraitMFC_DLL@DV?$ChTraitsCRT@D@ATL@@@@@ATL@@QAE@XZ

; 119  : 		s.LoadString(IDS_MSG_ADD_D_ERROR);

  00140	6a 18		 push	 24			; 00000018H
  00142	8d 4d 94	 lea	 ecx, DWORD PTR _s$[ebp]
  00145	c6 45 fc 03	 mov	 BYTE PTR __$EHRec$[ebp+8], 3
  00149	ff 15 00 00 00
	00		 call	 DWORD PTR __imp_?LoadStringA@?$CStringT@DV?$StrTraitMFC_DLL@DV?$ChTraitsCRT@D@ATL@@@@@ATL@@QAEHI@Z

; 120  : 		s1.Format(s, nDayArray[nM-1]);

  0014f	56		 push	 esi
  00150	eb 36		 jmp	 SHORT $LN104@OnOK
$LN6@OnOK:

; 102  : 	{
; 103  : 		CString s1;

  00152	8d 4d 98	 lea	 ecx, DWORD PTR _s1$4[ebp]
  00155	ff 15 00 00 00
	00		 call	 DWORD PTR __imp_??0?$CStringT@DV?$StrTraitMFC_DLL@DV?$ChTraitsCRT@D@ATL@@@@@ATL@@QAE@XZ

; 104  : 		s.LoadString(IDS_MSG_ADD_D_ERROR);

  0015b	6a 18		 push	 24			; 00000018H
  0015d	8d 4d 94	 lea	 ecx, DWORD PTR _s$[ebp]
  00160	c6 45 fc 02	 mov	 BYTE PTR __$EHRec$[ebp+8], 2
  00164	ff 15 00 00 00
	00		 call	 DWORD PTR __imp_?LoadStringA@?$CStringT@DV?$StrTraitMFC_DLL@DV?$ChTraitsCRT@D@ATL@@@@@ATL@@QAEHI@Z

; 105  : 		s1.Format(s, nDayArray[nM-1]);

  0016a	56		 push	 esi
  0016b	eb 1b		 jmp	 SHORT $LN104@OnOK
$LN99@OnOK:

; 87   : 	{
; 88   : 		CString s1;

  0016d	8d 4d 98	 lea	 ecx, DWORD PTR _s1$5[ebp]
  00170	ff 15 00 00 00
	00		 call	 DWORD PTR __imp_??0?$CStringT@DV?$StrTraitMFC_DLL@DV?$ChTraitsCRT@D@ATL@@@@@ATL@@QAE@XZ

; 89   : 		s.LoadString(IDS_MSG_ADD_D_ERROR);

  00176	6a 18		 push	 24			; 00000018H
  00178	8d 4d 94	 lea	 ecx, DWORD PTR _s$[ebp]
  0017b	c6 45 fc 01	 mov	 BYTE PTR __$EHRec$[ebp+8], 1
  0017f	ff 15 00 00 00
	00		 call	 DWORD PTR __imp_?LoadStringA@?$CStringT@DV?$StrTraitMFC_DLL@DV?$ChTraitsCRT@D@ATL@@@@@ATL@@QAEHI@Z

; 90   : 		s1.Format(s, nDayArray[nM-1]);

  00185	ff 73 fc	 push	 DWORD PTR [ebx-4]
$LN104@OnOK:

; 149  : }

  00188	ff 75 94	 push	 DWORD PTR _s$[ebp]
  0018b	8d 45 98	 lea	 eax, DWORD PTR _s1$5[ebp]
  0018e	50		 push	 eax
  0018f	ff 15 00 00 00
	00		 call	 DWORD PTR __imp_?Format@?$CStringT@DV?$StrTraitMFC_DLL@DV?$ChTraitsCRT@D@ATL@@@@@ATL@@QAAXPBDZZ
  00195	83 c4 0c	 add	 esp, 12			; 0000000cH
  00198	6a 00		 push	 0
  0019a	6a 00		 push	 0
  0019c	ff 75 98	 push	 DWORD PTR _s1$5[ebp]
  0019f	e8 00 00 00 00	 call	 ?AfxMessageBox@@YGHPBDII@Z ; AfxMessageBox
  001a4	68 bc 61 00 00	 push	 25020			; 000061bcH
  001a9	8b cf		 mov	 ecx, edi
  001ab	e8 00 00 00 00	 call	 ?GetDlgItem@CWnd@@QBEPAV1@H@Z ; CWnd::GetDlgItem
  001b0	8b f8		 mov	 edi, eax
  001b2	85 ff		 test	 edi, edi
  001b4	74 36		 je	 SHORT $LN62@OnOK
  001b6	ff 77 20	 push	 DWORD PTR [edi+32]
  001b9	ff 15 00 00 00
	00		 call	 DWORD PTR __imp__IsWindow@4
  001bf	85 c0		 test	 eax, eax
  001c1	74 29		 je	 SHORT $LN62@OnOK
  001c3	8b cf		 mov	 ecx, edi
  001c5	e8 00 00 00 00	 call	 ?SetFocus@CWnd@@QAEPAV1@XZ ; CWnd::SetFocus
  001ca	8b 35 00 00 00
	00		 mov	 esi, DWORD PTR __imp__SendMessageA@16
  001d0	6a ff		 push	 -1
  001d2	6a 00		 push	 0
  001d4	68 b1 00 00 00	 push	 177			; 000000b1H
  001d9	ff 77 20	 push	 DWORD PTR [edi+32]
  001dc	ff d6		 call	 esi
  001de	6a 00		 push	 0
  001e0	6a 00		 push	 0
  001e2	68 b7 00 00 00	 push	 183			; 000000b7H
  001e7	ff 77 20	 push	 DWORD PTR [edi+32]
  001ea	ff d6		 call	 esi
$LN62@OnOK:
  001ec	8d 4d 98	 lea	 ecx, DWORD PTR _s1$5[ebp]
  001ef	ff 15 00 00 00
	00		 call	 DWORD PTR __imp_??1?$CStringT@DV?$StrTraitMFC_DLL@DV?$ChTraitsCRT@D@ATL@@@@@ATL@@QAE@XZ
$LN23@OnOK:
  001f5	8d 4d 94	 lea	 ecx, DWORD PTR _s$[ebp]
  001f8	ff 15 00 00 00
	00		 call	 DWORD PTR __imp_??1?$CStringT@DV?$StrTraitMFC_DLL@DV?$ChTraitsCRT@D@ATL@@@@@ATL@@QAE@XZ
  001fe	8b 4d f4	 mov	 ecx, DWORD PTR __$EHRec$[ebp]
  00201	64 89 0d 00 00
	00 00		 mov	 DWORD PTR fs:0, ecx
  00208	59		 pop	 ecx
  00209	5f		 pop	 edi
  0020a	5e		 pop	 esi
  0020b	5b		 pop	 ebx
  0020c	8b 4d f0	 mov	 ecx, DWORD PTR __$ArrayPad$[ebp]
  0020f	33 cd		 xor	 ecx, ebp
  00211	e8 00 00 00 00	 call	 @__security_check_cookie@4
  00216	8b e5		 mov	 esp, ebp
  00218	5d		 pop	 ebp
  00219	c3		 ret	 0
_TEXT	ENDS
;	COMDAT text$x
text$x	SEGMENT
__unwindfunclet$?OnOK@CDlgInputTick@@MAEXXZ$0:
  00000	8d 4d 94	 lea	 ecx, DWORD PTR _s$[ebp]
  00003	ff 25 00 00 00
	00		 jmp	 DWORD PTR __imp_??1?$CStringT@DV?$StrTraitMFC_DLL@DV?$ChTraitsCRT@D@ATL@@@@@ATL@@QAE@XZ
__unwindfunclet$?OnOK@CDlgInputTick@@MAEXXZ$4:
  00009	8d 4d 98	 lea	 ecx, DWORD PTR _s1$2[ebp]
  0000c	ff 25 00 00 00
	00		 jmp	 DWORD PTR __imp_??1?$CStringT@DV?$StrTraitMFC_DLL@DV?$ChTraitsCRT@D@ATL@@@@@ATL@@QAE@XZ
__unwindfunclet$?OnOK@CDlgInputTick@@MAEXXZ$3:
  00012	8d 4d 98	 lea	 ecx, DWORD PTR _s1$3[ebp]
  00015	ff 25 00 00 00
	00		 jmp	 DWORD PTR __imp_??1?$CStringT@DV?$StrTraitMFC_DLL@DV?$ChTraitsCRT@D@ATL@@@@@ATL@@QAE@XZ
__unwindfunclet$?OnOK@CDlgInputTick@@MAEXXZ$2:
  0001b	8d 4d 98	 lea	 ecx, DWORD PTR _s1$4[ebp]
  0001e	ff 25 00 00 00
	00		 jmp	 DWORD PTR __imp_??1?$CStringT@DV?$StrTraitMFC_DLL@DV?$ChTraitsCRT@D@ATL@@@@@ATL@@QAE@XZ
__unwindfunclet$?OnOK@CDlgInputTick@@MAEXXZ$1:
  00024	8d 4d 98	 lea	 ecx, DWORD PTR _s1$5[ebp]
  00027	ff 25 00 00 00
	00		 jmp	 DWORD PTR __imp_??1?$CStringT@DV?$StrTraitMFC_DLL@DV?$ChTraitsCRT@D@ATL@@@@@ATL@@QAE@XZ
  0002d	cc		 int	 3
  0002e	cc		 int	 3
  0002f	cc		 int	 3
  00030	cc		 int	 3
  00031	cc		 int	 3
__ehhandler$?OnOK@CDlgInputTick@@MAEXXZ:
  00032	90		 npad	 1
  00033	90		 npad	 1
  00034	8b 54 24 08	 mov	 edx, DWORD PTR [esp+8]
  00038	8d 42 0c	 lea	 eax, DWORD PTR [edx+12]
  0003b	8b 8a 7c ff ff
	ff		 mov	 ecx, DWORD PTR [edx-132]
  00041	33 c8		 xor	 ecx, eax
  00043	e8 00 00 00 00	 call	 @__security_check_cookie@4
  00048	8b 4a fc	 mov	 ecx, DWORD PTR [edx-4]
  0004b	33 c8		 xor	 ecx, eax
  0004d	e8 00 00 00 00	 call	 @__security_check_cookie@4
  00052	b8 00 00 00 00	 mov	 eax, OFFSET __ehfuncinfo$?OnOK@CDlgInputTick@@MAEXXZ
  00057	e9 00 00 00 00	 jmp	 ___CxxFrameHandler3
text$x	ENDS
?OnOK@CDlgInputTick@@MAEXXZ ENDP			; CDlgInputTick::OnOK
; Function compile flags: /Ogtp
; File D:\git\src\IBK\IBK_DRFN\ProjSrc\SrcChartEx\ChartAddIn\ChartDataListViewerAddIn\ChartDataListViewerAddIn\DlgInputTick.cpp
; File C:\Program Files (x86)\Microsoft Visual Studio\2019\Community\VC\Tools\MSVC\14.29.30133\atlmfc\include\atlsimpstr.h
; File D:\git\src\IBK\IBK_DRFN\ProjSrc\SrcChartEx\ChartAddIn\ChartDataListViewerAddIn\ChartDataListViewerAddIn\DlgInputTick.cpp
;	COMDAT ?OnInitDialog@CDlgInputTick@@MAEHXZ
_TEXT	SEGMENT
$T2 = -20						; size = 4
$T3 = -16						; size = 4
$T4 = -16						; size = 4
$T5 = -16						; size = 4
__$EHRec$ = -12						; size = 12
?OnInitDialog@CDlgInputTick@@MAEHXZ PROC		; CDlgInputTick::OnInitDialog, COMDAT
; _this$ = ecx

; 53   : {

  00000	55		 push	 ebp
  00001	8b ec		 mov	 ebp, esp
  00003	6a ff		 push	 -1
  00005	68 00 00 00 00	 push	 __ehhandler$?OnInitDialog@CDlgInputTick@@MAEHXZ
  0000a	64 a1 00 00 00
	00		 mov	 eax, DWORD PTR fs:0
  00010	50		 push	 eax
  00011	83 ec 08	 sub	 esp, 8
  00014	53		 push	 ebx
  00015	56		 push	 esi
  00016	57		 push	 edi
  00017	a1 00 00 00 00	 mov	 eax, DWORD PTR ___security_cookie
  0001c	33 c5		 xor	 eax, ebp
  0001e	50		 push	 eax
  0001f	8d 45 f4	 lea	 eax, DWORD PTR __$EHRec$[ebp]
  00022	64 a3 00 00 00
	00		 mov	 DWORD PTR fs:0, eax
  00028	8b d9		 mov	 ebx, ecx

; 54   : 	CDialog::OnInitDialog();

  0002a	e8 00 00 00 00	 call	 ?OnInitDialog@CDialog@@UAEHXZ ; CDialog::OnInitDialog
; File C:\Program Files (x86)\Microsoft Visual Studio\2019\Community\VC\Tools\MSVC\14.29.30133\atlmfc\include\atlsimpstr.h

; 519  : 		return( GetData()->nDataLength );

  0002f	8b 83 b8 00 00
	00		 mov	 eax, DWORD PTR [ebx+184]

; 800  : 		return( reinterpret_cast< CStringData* >( m_pszData )-1 );

  00035	8d 8b b8 00 00
	00		 lea	 ecx, DWORD PTR [ebx+184]
; File D:\git\src\IBK\IBK_DRFN\ProjSrc\SrcChartEx\ChartAddIn\ChartDataListViewerAddIn\ChartDataListViewerAddIn\DlgInputTick.cpp

; 56   : 	if(m_strCurrentDate.GetLength() >= 8)

  0003b	83 78 f4 08	 cmp	 DWORD PTR [eax-12], 8
  0003f	0f 8c 0a 01 00
	00		 jl	 $LN2@OnInitDial

; 57   : 	{
; 58   : 		m_strDay.Format("%02d",   atoi(m_strCurrentDate.Mid(0,2)));

  00045	6a 02		 push	 2
  00047	6a 00		 push	 0
  00049	8d 45 f0	 lea	 eax, DWORD PTR $T5[ebp]
  0004c	50		 push	 eax
  0004d	ff 15 00 00 00
	00		 call	 DWORD PTR __imp_?Mid@?$CStringT@DV?$StrTraitMFC_DLL@DV?$ChTraitsCRT@D@ATL@@@@@ATL@@QBE?AV12@HH@Z
  00053	ff 30		 push	 DWORD PTR [eax]
  00055	8b 3d 00 00 00
	00		 mov	 edi, DWORD PTR __imp__atoi
  0005b	c7 45 fc 00 00
	00 00		 mov	 DWORD PTR __$EHRec$[ebp+8], 0
  00062	ff d7		 call	 edi
  00064	8b 35 00 00 00
	00		 mov	 esi, DWORD PTR __imp_?Format@?$CStringT@DV?$StrTraitMFC_DLL@DV?$ChTraitsCRT@D@ATL@@@@@ATL@@QAAXPBDZZ
  0006a	50		 push	 eax
  0006b	8d 83 ac 00 00
	00		 lea	 eax, DWORD PTR [ebx+172]
  00071	68 00 00 00 00	 push	 OFFSET ??_C@_04OGKJMPGK@?$CF02d@
  00076	50		 push	 eax
  00077	ff d6		 call	 esi
  00079	83 c4 10	 add	 esp, 16			; 00000010H
  0007c	c7 45 fc ff ff
	ff ff		 mov	 DWORD PTR __$EHRec$[ebp+8], -1
  00083	8d 4d f0	 lea	 ecx, DWORD PTR $T5[ebp]
  00086	ff 15 00 00 00
	00		 call	 DWORD PTR __imp_??1?$CStringT@DV?$StrTraitMFC_DLL@DV?$ChTraitsCRT@D@ATL@@@@@ATL@@QAE@XZ

; 59   : 		m_strHour.Format("%02d",  atoi(m_strCurrentDate.Mid(2,2)));

  0008c	6a 02		 push	 2
  0008e	6a 02		 push	 2
  00090	8d 45 f0	 lea	 eax, DWORD PTR $T4[ebp]
  00093	50		 push	 eax
  00094	8d 8b b8 00 00
	00		 lea	 ecx, DWORD PTR [ebx+184]
  0009a	ff 15 00 00 00
	00		 call	 DWORD PTR __imp_?Mid@?$CStringT@DV?$StrTraitMFC_DLL@DV?$ChTraitsCRT@D@ATL@@@@@ATL@@QBE?AV12@HH@Z
  000a0	ff 30		 push	 DWORD PTR [eax]
  000a2	c7 45 fc 01 00
	00 00		 mov	 DWORD PTR __$EHRec$[ebp+8], 1
  000a9	ff d7		 call	 edi
  000ab	50		 push	 eax
  000ac	8d 83 b0 00 00
	00		 lea	 eax, DWORD PTR [ebx+176]
  000b2	68 00 00 00 00	 push	 OFFSET ??_C@_04OGKJMPGK@?$CF02d@
  000b7	50		 push	 eax
  000b8	ff d6		 call	 esi
  000ba	83 c4 10	 add	 esp, 16			; 00000010H
  000bd	c7 45 fc ff ff
	ff ff		 mov	 DWORD PTR __$EHRec$[ebp+8], -1
  000c4	8d 4d f0	 lea	 ecx, DWORD PTR $T4[ebp]
  000c7	ff 15 00 00 00
	00		 call	 DWORD PTR __imp_??1?$CStringT@DV?$StrTraitMFC_DLL@DV?$ChTraitsCRT@D@ATL@@@@@ATL@@QAE@XZ

; 60   : 		m_strMin.Format("%02d",   atoi(m_strCurrentDate.Mid(4,2)));		

  000cd	6a 02		 push	 2
  000cf	6a 04		 push	 4
  000d1	8d 45 f0	 lea	 eax, DWORD PTR $T3[ebp]
  000d4	50		 push	 eax
  000d5	8d 8b b8 00 00
	00		 lea	 ecx, DWORD PTR [ebx+184]
  000db	ff 15 00 00 00
	00		 call	 DWORD PTR __imp_?Mid@?$CStringT@DV?$StrTraitMFC_DLL@DV?$ChTraitsCRT@D@ATL@@@@@ATL@@QBE?AV12@HH@Z
  000e1	ff 30		 push	 DWORD PTR [eax]
  000e3	c7 45 fc 02 00
	00 00		 mov	 DWORD PTR __$EHRec$[ebp+8], 2
  000ea	ff d7		 call	 edi
  000ec	50		 push	 eax
  000ed	8d 83 b4 00 00
	00		 lea	 eax, DWORD PTR [ebx+180]
  000f3	68 00 00 00 00	 push	 OFFSET ??_C@_04OGKJMPGK@?$CF02d@
  000f8	50		 push	 eax
  000f9	ff d6		 call	 esi
  000fb	83 c4 10	 add	 esp, 16			; 00000010H
  000fe	c7 45 fc ff ff
	ff ff		 mov	 DWORD PTR __$EHRec$[ebp+8], -1
  00105	8d 4d f0	 lea	 ecx, DWORD PTR $T3[ebp]
  00108	ff 15 00 00 00
	00		 call	 DWORD PTR __imp_??1?$CStringT@DV?$StrTraitMFC_DLL@DV?$ChTraitsCRT@D@ATL@@@@@ATL@@QAE@XZ

; 61   : 		m_strSecond.Format("%02d",atoi(m_strCurrentDate.Mid(6,2)));

  0010e	6a 02		 push	 2
  00110	6a 06		 push	 6
  00112	8d 45 ec	 lea	 eax, DWORD PTR $T2[ebp]
  00115	50		 push	 eax
  00116	8d 8b b8 00 00
	00		 lea	 ecx, DWORD PTR [ebx+184]
  0011c	ff 15 00 00 00
	00		 call	 DWORD PTR __imp_?Mid@?$CStringT@DV?$StrTraitMFC_DLL@DV?$ChTraitsCRT@D@ATL@@@@@ATL@@QBE?AV12@HH@Z
  00122	ff 30		 push	 DWORD PTR [eax]
  00124	c7 45 fc 03 00
	00 00		 mov	 DWORD PTR __$EHRec$[ebp+8], 3
  0012b	ff d7		 call	 edi
  0012d	50		 push	 eax
  0012e	8d 83 a8 00 00
	00		 lea	 eax, DWORD PTR [ebx+168]
  00134	68 00 00 00 00	 push	 OFFSET ??_C@_04OGKJMPGK@?$CF02d@
  00139	50		 push	 eax
  0013a	ff d6		 call	 esi
  0013c	83 c4 10	 add	 esp, 16			; 00000010H
  0013f	c7 45 fc ff ff
	ff ff		 mov	 DWORD PTR __$EHRec$[ebp+8], -1
  00146	8d 4d ec	 lea	 ecx, DWORD PTR $T2[ebp]
  00149	ff 15 00 00 00
	00		 call	 DWORD PTR __imp_??1?$CStringT@DV?$StrTraitMFC_DLL@DV?$ChTraitsCRT@D@ATL@@@@@ATL@@QAE@XZ
$LN2@OnInitDial:

; 62   : 	}
; 63   : 
; 64   : 	UpdateData(FALSE);		

  0014f	6a 00		 push	 0
  00151	8b cb		 mov	 ecx, ebx
  00153	e8 00 00 00 00	 call	 ?UpdateData@CWnd@@QAEHH@Z ; CWnd::UpdateData

; 65   : 	
; 66   : 	return TRUE;  // return TRUE unless you set the focus to a control

  00158	b8 01 00 00 00	 mov	 eax, 1

; 67   : 	              // EXCEPTION: OCX Property Pages should return FALSE
; 68   : }

  0015d	8b 4d f4	 mov	 ecx, DWORD PTR __$EHRec$[ebp]
  00160	64 89 0d 00 00
	00 00		 mov	 DWORD PTR fs:0, ecx
  00167	59		 pop	 ecx
  00168	5f		 pop	 edi
  00169	5e		 pop	 esi
  0016a	5b		 pop	 ebx
  0016b	8b e5		 mov	 esp, ebp
  0016d	5d		 pop	 ebp
  0016e	c3		 ret	 0
_TEXT	ENDS
;	COMDAT text$x
text$x	SEGMENT
__unwindfunclet$?OnInitDialog@CDlgInputTick@@MAEHXZ$0:
  00000	8d 4d f0	 lea	 ecx, DWORD PTR $T5[ebp]
  00003	ff 25 00 00 00
	00		 jmp	 DWORD PTR __imp_??1?$CStringT@DV?$StrTraitMFC_DLL@DV?$ChTraitsCRT@D@ATL@@@@@ATL@@QAE@XZ
__unwindfunclet$?OnInitDialog@CDlgInputTick@@MAEHXZ$1:
  00009	8d 4d f0	 lea	 ecx, DWORD PTR $T4[ebp]
  0000c	ff 25 00 00 00
	00		 jmp	 DWORD PTR __imp_??1?$CStringT@DV?$StrTraitMFC_DLL@DV?$ChTraitsCRT@D@ATL@@@@@ATL@@QAE@XZ
__unwindfunclet$?OnInitDialog@CDlgInputTick@@MAEHXZ$2:
  00012	8d 4d f0	 lea	 ecx, DWORD PTR $T3[ebp]
  00015	ff 25 00 00 00
	00		 jmp	 DWORD PTR __imp_??1?$CStringT@DV?$StrTraitMFC_DLL@DV?$ChTraitsCRT@D@ATL@@@@@ATL@@QAE@XZ
__unwindfunclet$?OnInitDialog@CDlgInputTick@@MAEHXZ$3:
  0001b	8d 4d ec	 lea	 ecx, DWORD PTR $T2[ebp]
  0001e	ff 25 00 00 00
	00		 jmp	 DWORD PTR __imp_??1?$CStringT@DV?$StrTraitMFC_DLL@DV?$ChTraitsCRT@D@ATL@@@@@ATL@@QAE@XZ
  00024	cc		 int	 3
  00025	cc		 int	 3
  00026	cc		 int	 3
  00027	cc		 int	 3
  00028	cc		 int	 3
__ehhandler$?OnInitDialog@CDlgInputTick@@MAEHXZ:
  00029	90		 npad	 1
  0002a	90		 npad	 1
  0002b	8b 54 24 08	 mov	 edx, DWORD PTR [esp+8]
  0002f	8d 42 0c	 lea	 eax, DWORD PTR [edx+12]
  00032	8b 4a e8	 mov	 ecx, DWORD PTR [edx-24]
  00035	33 c8		 xor	 ecx, eax
  00037	e8 00 00 00 00	 call	 @__security_check_cookie@4
  0003c	b8 00 00 00 00	 mov	 eax, OFFSET __ehfuncinfo$?OnInitDialog@CDlgInputTick@@MAEHXZ
  00041	e9 00 00 00 00	 jmp	 ___CxxFrameHandler3
text$x	ENDS
?OnInitDialog@CDlgInputTick@@MAEHXZ ENDP		; CDlgInputTick::OnInitDialog
; Function compile flags: /Ogtp
; File D:\git\src\IBK\IBK_DRFN\ProjSrc\SrcChartEx\ChartAddIn\ChartDataListViewerAddIn\ChartDataListViewerAddIn\DlgInputTick.cpp
;	COMDAT ?DoDataExchange@CDlgInputTick@@MAEXPAVCDataExchange@@@Z
_TEXT	SEGMENT
_pDX$ = 8						; size = 4
?DoDataExchange@CDlgInputTick@@MAEXPAVCDataExchange@@@Z PROC ; CDlgInputTick::DoDataExchange, COMDAT
; _this$ = ecx

; 31   : {

  00000	55		 push	 ebp
  00001	8b ec		 mov	 ebp, esp
  00003	56		 push	 esi

; 32   : 	CDialog::DoDataExchange(pDX);
; 33   : 	//{{AFX_DATA_MAP(CDlgInputTick)
; 34   : 	DDX_Text(pDX, IDC_EDT_TICK_SECOND, m_strSecond);

  00004	8b 75 08	 mov	 esi, DWORD PTR _pDX$[ebp]
  00007	57		 push	 edi
  00008	8b f9		 mov	 edi, ecx
  0000a	8d 87 a8 00 00
	00		 lea	 eax, DWORD PTR [edi+168]
  00010	50		 push	 eax
  00011	68 d9 00 00 00	 push	 217			; 000000d9H
  00016	56		 push	 esi
  00017	e8 00 00 00 00	 call	 ?DDX_Text@@YGXPAVCDataExchange@@HAAV?$CStringT@DV?$StrTraitMFC_DLL@DV?$ChTraitsCRT@D@ATL@@@@@ATL@@@Z ; DDX_Text

; 35   : 	DDX_Text(pDX, IDC_EDT_TICK_DAY, m_strDay);

  0001c	8d 87 ac 00 00
	00		 lea	 eax, DWORD PTR [edi+172]
  00022	50		 push	 eax
  00023	68 bc 61 00 00	 push	 25020			; 000061bcH
  00028	56		 push	 esi
  00029	e8 00 00 00 00	 call	 ?DDX_Text@@YGXPAVCDataExchange@@HAAV?$CStringT@DV?$StrTraitMFC_DLL@DV?$ChTraitsCRT@D@ATL@@@@@ATL@@@Z ; DDX_Text

; 36   : 	DDX_Text(pDX, IDC_EDT_TICK_HOUR, m_strHour);

  0002e	8d 87 b0 00 00
	00		 lea	 eax, DWORD PTR [edi+176]
  00034	50		 push	 eax
  00035	68 bd 61 00 00	 push	 25021			; 000061bdH
  0003a	56		 push	 esi
  0003b	e8 00 00 00 00	 call	 ?DDX_Text@@YGXPAVCDataExchange@@HAAV?$CStringT@DV?$StrTraitMFC_DLL@DV?$ChTraitsCRT@D@ATL@@@@@ATL@@@Z ; DDX_Text

; 37   : 	DDX_Text(pDX, IDC_EDT_TICK_MIN, m_strMin);

  00040	8d 87 b4 00 00
	00		 lea	 eax, DWORD PTR [edi+180]
  00046	50		 push	 eax
  00047	68 be 61 00 00	 push	 25022			; 000061beH
  0004c	56		 push	 esi
  0004d	e8 00 00 00 00	 call	 ?DDX_Text@@YGXPAVCDataExchange@@HAAV?$CStringT@DV?$StrTraitMFC_DLL@DV?$ChTraitsCRT@D@ATL@@@@@ATL@@@Z ; DDX_Text
  00052	5f		 pop	 edi
  00053	5e		 pop	 esi

; 38   : 	//}}AFX_DATA_MAP
; 39   : }

  00054	5d		 pop	 ebp
  00055	c2 04 00	 ret	 4
?DoDataExchange@CDlgInputTick@@MAEXPAVCDataExchange@@@Z ENDP ; CDlgInputTick::DoDataExchange
_TEXT	ENDS
; Function compile flags: /Ogtp
; File D:\git\src\IBK\IBK_DRFN\ProjSrc\SrcChartEx\ChartAddIn\ChartDataListViewerAddIn\ChartDataListViewerAddIn\DlgInputTick.cpp
;	COMDAT ??0CDlgInputTick@@QAE@PAVCWnd@@@Z
_TEXT	SEGMENT
_this$ = -16						; size = 4
__$EHRec$ = -12						; size = 12
_pParent$ = 8						; size = 4
??0CDlgInputTick@@QAE@PAVCWnd@@@Z PROC			; CDlgInputTick::CDlgInputTick, COMDAT
; _this$ = ecx

; 20   : {

  00000	55		 push	 ebp
  00001	8b ec		 mov	 ebp, esp
  00003	6a ff		 push	 -1
  00005	68 00 00 00 00	 push	 __ehhandler$??0CDlgInputTick@@QAE@PAVCWnd@@@Z
  0000a	64 a1 00 00 00
	00		 mov	 eax, DWORD PTR fs:0
  00010	50		 push	 eax
  00011	51		 push	 ecx
  00012	53		 push	 ebx
  00013	56		 push	 esi
  00014	57		 push	 edi
  00015	a1 00 00 00 00	 mov	 eax, DWORD PTR ___security_cookie
  0001a	33 c5		 xor	 eax, ebp
  0001c	50		 push	 eax
  0001d	8d 45 f4	 lea	 eax, DWORD PTR __$EHRec$[ebp]
  00020	64 a3 00 00 00
	00		 mov	 DWORD PTR fs:0, eax
  00026	8b f1		 mov	 esi, ecx
  00028	89 75 f0	 mov	 DWORD PTR _this$[ebp], esi

; 19   : 	: CDialog(CDlgInputTick::IDD, pParent)

  0002b	ff 75 08	 push	 DWORD PTR _pParent$[ebp]
  0002e	68 c8 5d 00 00	 push	 24008			; 00005dc8H
  00033	e8 00 00 00 00	 call	 ??0CDialog@@QAE@IPAVCWnd@@@Z ; CDialog::CDialog

; 20   : {

  00038	8d 8e a8 00 00
	00		 lea	 ecx, DWORD PTR [esi+168]
  0003e	c7 45 fc 00 00
	00 00		 mov	 DWORD PTR __$EHRec$[ebp+8], 0
  00045	c7 06 00 00 00
	00		 mov	 DWORD PTR [esi], OFFSET ??_7CDlgInputTick@@6B@
  0004b	ff 15 00 00 00
	00		 call	 DWORD PTR __imp_??0?$CStringT@DV?$StrTraitMFC_DLL@DV?$ChTraitsCRT@D@ATL@@@@@ATL@@QAE@XZ
  00051	8d 8e ac 00 00
	00		 lea	 ecx, DWORD PTR [esi+172]
  00057	ff 15 00 00 00
	00		 call	 DWORD PTR __imp_??0?$CStringT@DV?$StrTraitMFC_DLL@DV?$ChTraitsCRT@D@ATL@@@@@ATL@@QAE@XZ
  0005d	8d 8e b0 00 00
	00		 lea	 ecx, DWORD PTR [esi+176]
  00063	ff 15 00 00 00
	00		 call	 DWORD PTR __imp_??0?$CStringT@DV?$StrTraitMFC_DLL@DV?$ChTraitsCRT@D@ATL@@@@@ATL@@QAE@XZ
  00069	8d 8e b4 00 00
	00		 lea	 ecx, DWORD PTR [esi+180]
  0006f	ff 15 00 00 00
	00		 call	 DWORD PTR __imp_??0?$CStringT@DV?$StrTraitMFC_DLL@DV?$ChTraitsCRT@D@ATL@@@@@ATL@@QAE@XZ
  00075	8b ce		 mov	 ecx, esi
  00077	81 c1 b8 00 00
	00		 add	 ecx, 184		; 000000b8H
  0007d	ff 15 00 00 00
	00		 call	 DWORD PTR __imp_??0?$CStringT@DV?$StrTraitMFC_DLL@DV?$ChTraitsCRT@D@ATL@@@@@ATL@@QAE@XZ

; 21   : 	//{{AFX_DATA_INIT(CDlgInputTick)
; 22   : 	m_strSecond = _T("");

  00083	8b ce		 mov	 ecx, esi
  00085	c6 45 fc 05	 mov	 BYTE PTR __$EHRec$[ebp+8], 5
  00089	68 00 00 00 00	 push	 OFFSET ??_C@_00CNPNBAHC@@
  0008e	8d 89 a8 00 00
	00		 lea	 ecx, DWORD PTR [ecx+168]
  00094	ff 15 00 00 00
	00		 call	 DWORD PTR __imp_??4?$CStringT@DV?$StrTraitMFC_DLL@DV?$ChTraitsCRT@D@ATL@@@@@ATL@@QAEAAV01@PBD@Z

; 23   : 	m_strDay = _T("");

  0009a	68 00 00 00 00	 push	 OFFSET ??_C@_00CNPNBAHC@@
  0009f	8d 8e ac 00 00
	00		 lea	 ecx, DWORD PTR [esi+172]
  000a5	ff 15 00 00 00
	00		 call	 DWORD PTR __imp_??4?$CStringT@DV?$StrTraitMFC_DLL@DV?$ChTraitsCRT@D@ATL@@@@@ATL@@QAEAAV01@PBD@Z

; 24   : 	m_strHour = _T("");

  000ab	68 00 00 00 00	 push	 OFFSET ??_C@_00CNPNBAHC@@
  000b0	8d 8e b0 00 00
	00		 lea	 ecx, DWORD PTR [esi+176]
  000b6	ff 15 00 00 00
	00		 call	 DWORD PTR __imp_??4?$CStringT@DV?$StrTraitMFC_DLL@DV?$ChTraitsCRT@D@ATL@@@@@ATL@@QAEAAV01@PBD@Z

; 25   : 	m_strMin = _T("");

  000bc	68 00 00 00 00	 push	 OFFSET ??_C@_00CNPNBAHC@@
  000c1	8d 8e b4 00 00
	00		 lea	 ecx, DWORD PTR [esi+180]
  000c7	ff 15 00 00 00
	00		 call	 DWORD PTR __imp_??4?$CStringT@DV?$StrTraitMFC_DLL@DV?$ChTraitsCRT@D@ATL@@@@@ATL@@QAEAAV01@PBD@Z

; 26   : 	//}}AFX_DATA_INIT
; 27   : }

  000cd	8b c6		 mov	 eax, esi
  000cf	8b 4d f4	 mov	 ecx, DWORD PTR __$EHRec$[ebp]
  000d2	64 89 0d 00 00
	00 00		 mov	 DWORD PTR fs:0, ecx
  000d9	59		 pop	 ecx
  000da	5f		 pop	 edi
  000db	5e		 pop	 esi
  000dc	5b		 pop	 ebx
  000dd	8b e5		 mov	 esp, ebp
  000df	5d		 pop	 ebp
  000e0	c2 04 00	 ret	 4
_TEXT	ENDS
;	COMDAT text$x
text$x	SEGMENT
__unwindfunclet$??0CDlgInputTick@@QAE@PAVCWnd@@@Z$0:
  00000	8b 4d f0	 mov	 ecx, DWORD PTR _this$[ebp]
  00003	e9 00 00 00 00	 jmp	 ??1CDialog@@UAE@XZ	; CDialog::~CDialog
__unwindfunclet$??0CDlgInputTick@@QAE@PAVCWnd@@@Z$1:
  00008	8b 4d f0	 mov	 ecx, DWORD PTR _this$[ebp]
  0000b	81 c1 a8 00 00
	00		 add	 ecx, 168		; 000000a8H
  00011	ff 25 00 00 00
	00		 jmp	 DWORD PTR __imp_??1?$CStringT@DV?$StrTraitMFC_DLL@DV?$ChTraitsCRT@D@ATL@@@@@ATL@@QAE@XZ
__unwindfunclet$??0CDlgInputTick@@QAE@PAVCWnd@@@Z$2:
  00017	8b 4d f0	 mov	 ecx, DWORD PTR _this$[ebp]
  0001a	81 c1 ac 00 00
	00		 add	 ecx, 172		; 000000acH
  00020	ff 25 00 00 00
	00		 jmp	 DWORD PTR __imp_??1?$CStringT@DV?$StrTraitMFC_DLL@DV?$ChTraitsCRT@D@ATL@@@@@ATL@@QAE@XZ
__unwindfunclet$??0CDlgInputTick@@QAE@PAVCWnd@@@Z$3:
  00026	8b 4d f0	 mov	 ecx, DWORD PTR _this$[ebp]
  00029	81 c1 b0 00 00
	00		 add	 ecx, 176		; 000000b0H
  0002f	ff 25 00 00 00
	00		 jmp	 DWORD PTR __imp_??1?$CStringT@DV?$StrTraitMFC_DLL@DV?$ChTraitsCRT@D@ATL@@@@@ATL@@QAE@XZ
__unwindfunclet$??0CDlgInputTick@@QAE@PAVCWnd@@@Z$4:
  00035	8b 4d f0	 mov	 ecx, DWORD PTR _this$[ebp]
  00038	81 c1 b4 00 00
	00		 add	 ecx, 180		; 000000b4H
  0003e	ff 25 00 00 00
	00		 jmp	 DWORD PTR __imp_??1?$CStringT@DV?$StrTraitMFC_DLL@DV?$ChTraitsCRT@D@ATL@@@@@ATL@@QAE@XZ
__unwindfunclet$??0CDlgInputTick@@QAE@PAVCWnd@@@Z$5:
  00044	8b 4d f0	 mov	 ecx, DWORD PTR _this$[ebp]
  00047	81 c1 b8 00 00
	00		 add	 ecx, 184		; 000000b8H
  0004d	ff 25 00 00 00
	00		 jmp	 DWORD PTR __imp_??1?$CStringT@DV?$StrTraitMFC_DLL@DV?$ChTraitsCRT@D@ATL@@@@@ATL@@QAE@XZ
  00053	cc		 int	 3
  00054	cc		 int	 3
  00055	cc		 int	 3
  00056	cc		 int	 3
  00057	cc		 int	 3
__ehhandler$??0CDlgInputTick@@QAE@PAVCWnd@@@Z:
  00058	90		 npad	 1
  00059	90		 npad	 1
  0005a	8b 54 24 08	 mov	 edx, DWORD PTR [esp+8]
  0005e	8d 42 0c	 lea	 eax, DWORD PTR [edx+12]
  00061	8b 4a ec	 mov	 ecx, DWORD PTR [edx-20]
  00064	33 c8		 xor	 ecx, eax
  00066	e8 00 00 00 00	 call	 @__security_check_cookie@4
  0006b	b8 00 00 00 00	 mov	 eax, OFFSET __ehfuncinfo$??0CDlgInputTick@@QAE@PAVCWnd@@@Z
  00070	e9 00 00 00 00	 jmp	 ___CxxFrameHandler3
text$x	ENDS
??0CDlgInputTick@@QAE@PAVCWnd@@@Z ENDP			; CDlgInputTick::CDlgInputTick
; Function compile flags: /Ogtp
; File C:\Program Files (x86)\Microsoft Visual Studio\2019\Community\VC\Tools\MSVC\14.29.30133\atlmfc\include\afxwin2.inl
;	COMDAT ?Create@CDialog@@UAEHIPAVCWnd@@@Z
_TEXT	SEGMENT
_nIDTemplate$ = 8					; size = 4
_pParentWnd$ = 12					; size = 4
?Create@CDialog@@UAEHIPAVCWnd@@@Z PROC			; CDialog::Create, COMDAT
; _this$ = ecx

; 585  : 	{ return CDialog::Create(ATL_MAKEINTRESOURCE(nIDTemplate), pParentWnd); }

  00000	55		 push	 ebp
  00001	8b ec		 mov	 ebp, esp
  00003	0f b7 45 08	 movzx	 eax, WORD PTR _nIDTemplate$[ebp]
  00007	89 45 08	 mov	 DWORD PTR _nIDTemplate$[ebp], eax
  0000a	5d		 pop	 ebp
  0000b	e9 00 00 00 00	 jmp	 ?Create@CDialog@@UAEHPBDPAVCWnd@@@Z ; CDialog::Create
?Create@CDialog@@UAEHIPAVCWnd@@@Z ENDP			; CDialog::Create
_TEXT	ENDS
; Function compile flags: /Ogtp
; File C:\Program Files (x86)\Microsoft Visual Studio\2019\Community\VC\Tools\MSVC\14.29.30133\atlmfc\include\afxwin2.inl
;	COMDAT ?EndModalState@CWnd@@UAEXXZ
_TEXT	SEGMENT
?EndModalState@CWnd@@UAEXXZ PROC			; CWnd::EndModalState, COMDAT
; _this$ = ecx

; 567  : 	{ ::EnableWindow(m_hWnd, TRUE); }

  00000	6a 01		 push	 1
  00002	ff 71 20	 push	 DWORD PTR [ecx+32]
  00005	ff 15 00 00 00
	00		 call	 DWORD PTR __imp__EnableWindow@8
  0000b	c3		 ret	 0
?EndModalState@CWnd@@UAEXXZ ENDP			; CWnd::EndModalState
_TEXT	ENDS
; Function compile flags: /Ogtp
; File C:\Program Files (x86)\Microsoft Visual Studio\2019\Community\VC\Tools\MSVC\14.29.30133\atlmfc\include\afxwin2.inl
;	COMDAT ?BeginModalState@CWnd@@UAEXXZ
_TEXT	SEGMENT
?BeginModalState@CWnd@@UAEXXZ PROC			; CWnd::BeginModalState, COMDAT
; _this$ = ecx

; 565  : 	{ ::EnableWindow(m_hWnd, FALSE); }

  00000	6a 00		 push	 0
  00002	ff 71 20	 push	 DWORD PTR [ecx+32]
  00005	ff 15 00 00 00
	00		 call	 DWORD PTR __imp__EnableWindow@8
  0000b	c3		 ret	 0
?BeginModalState@CWnd@@UAEXXZ ENDP			; CWnd::BeginModalState
_TEXT	ENDS
; Function compile flags: /Ogtp
; File C:\Program Files (x86)\Microsoft Visual Studio\2019\Community\VC\Tools\MSVC\14.29.30133\atlmfc\include\afxwin2.inl
;	COMDAT ?DoDataExchange@CWnd@@MAEXPAVCDataExchange@@@Z
_TEXT	SEGMENT
___formal$ = 8						; size = 4
?DoDataExchange@CWnd@@MAEXPAVCDataExchange@@@Z PROC	; CWnd::DoDataExchange, COMDAT
; _this$ = ecx

; 561  : 	{ } // default does nothing

  00000	c2 04 00	 ret	 4
?DoDataExchange@CWnd@@MAEXPAVCDataExchange@@@Z ENDP	; CWnd::DoDataExchange
_TEXT	ENDS
; Function compile flags: /Ogtp
; File C:\Program Files (x86)\Microsoft Visual Studio\2019\Community\VC\Tools\MSVC\14.29.30133\atlmfc\include\afx.inl
;	COMDAT ?Dump@CObject@@UBEXAAVCDumpContext@@@Z
_TEXT	SEGMENT
___formal$ = 8						; size = 4
?Dump@CObject@@UBEXAAVCDumpContext@@@Z PROC		; CObject::Dump, COMDAT
; _this$ = ecx

; 122  : 	{ /* no dumping in release builds */ }

  00000	c2 04 00	 ret	 4
?Dump@CObject@@UBEXAAVCDumpContext@@@Z ENDP		; CObject::Dump
_TEXT	ENDS
; Function compile flags: /Ogtp
; File C:\Program Files (x86)\Microsoft Visual Studio\2019\Community\VC\Tools\MSVC\14.29.30133\atlmfc\include\afx.inl
;	COMDAT ?AssertValid@CObject@@UBEXXZ
_TEXT	SEGMENT
?AssertValid@CObject@@UBEXXZ PROC			; CObject::AssertValid, COMDAT
; _this$ = ecx

; 120  : 	{ /* no asserts in release builds */ }

  00000	c2 00 00	 ret	 0
?AssertValid@CObject@@UBEXXZ ENDP			; CObject::AssertValid
_TEXT	ENDS
; Function compile flags: /Ogtp
; File C:\Program Files (x86)\Microsoft Visual Studio\2019\Community\VC\Tools\MSVC\14.29.30133\atlmfc\include\afx.inl
;	COMDAT ?Serialize@CObject@@UAEXAAVCArchive@@@Z
_TEXT	SEGMENT
___formal$ = 8						; size = 4
?Serialize@CObject@@UAEXAAVCArchive@@@Z PROC		; CObject::Serialize, COMDAT
; _this$ = ecx

; 106  : 	{ /* CObject does not serialize anything by default */ }

  00000	c2 04 00	 ret	 4
?Serialize@CObject@@UAEXAAVCArchive@@@Z ENDP		; CObject::Serialize
_TEXT	ENDS
; Function compile flags: /Ogtp
; File D:\git\src\IBK\IBK_DRFN\ProjSrc\SrcChartEx\ChartAddIn\ChartDataListViewerAddIn\ChartDataListViewerAddIn\DlgInputTick.cpp
;	COMDAT ?__empty_global_delete@@YAXPAXI@Z
_TEXT	SEGMENT
___formal$ = 8						; size = 4
___formal$ = 12						; size = 4
?__empty_global_delete@@YAXPAXI@Z PROC			; __empty_global_delete, COMDAT

  00000	c2 00 00	 ret	 0
?__empty_global_delete@@YAXPAXI@Z ENDP			; __empty_global_delete
_TEXT	ENDS
; Function compile flags: /Ogtp
; File D:\git\src\IBK\IBK_DRFN\ProjSrc\SrcChartEx\ChartAddIn\ChartDataListViewerAddIn\ChartDataListViewerAddIn\DlgInputTick.cpp
;	COMDAT ?__empty_global_delete@@YAXPAX@Z
_TEXT	SEGMENT
___formal$ = 8						; size = 4
?__empty_global_delete@@YAXPAX@Z PROC			; __empty_global_delete, COMDAT

  00000	c2 00 00	 ret	 0
?__empty_global_delete@@YAXPAX@Z ENDP			; __empty_global_delete
_TEXT	ENDS
END
