; Listing generated by Microsoft (R) Optimizing Compiler Version 19.29.30145.0 

	TITLE	D:\git\src\IBK\IBK_DRFN\#DRfn-CS\_Obj\HWStrategyAnalysis\axes.obj
	.686P
	.XMM
	include listing.inc
	.model	flat

INCLUDELIB MSVCRT
INCLUDELIB OLDNAMES

PUBLIC	?__empty_global_delete@@YAXPAX@Z		; __empty_global_delete
PUBLIC	?__empty_global_delete@@YAXPAXI@Z		; __empty_global_delete
PUBLIC	?GetLeft@CAxes@@QAE?AVCAxis@@XZ			; CAxes::GetLeft
PUBLIC	?GetRight@CAxes@@QAE?AVCAxis@@XZ		; CAxes::GetRight
PUBLIC	?GetTop@CAxes@@QAE?AVCAxis@@XZ			; CAxes::GetTop
PUBLIC	?GetBottom@CAxes@@QAE?AVCAxis@@XZ		; CAxes::GetBottom
PUBLIC	?GetVisible@CAxes@@QAEHXZ			; CAxes::GetVisible
PUBLIC	?SetVisible@CAxes@@QAEXH@Z			; CAxes::SetVisible
PUBLIC	?GetDepth@CAxes@@QAE?AVCAxis@@XZ		; CAxes::GetDepth
PUBLIC	?GetDrawAxesBeforeSeries@CAxes@@QAEHXZ		; CAxes::GetDrawAxesBeforeSeries
PUBLIC	?SetDrawAxesBeforeSeries@CAxes@@QAEXH@Z		; CAxes::SetDrawAxesBeforeSeries
PUBLIC	?AddCustom@CAxes@@QAEJH@Z			; CAxes::AddCustom
PUBLIC	?GetCustom@CAxes@@QAE?AVCAxis@@J@Z		; CAxes::GetCustom
PUBLIC	?GetCustomCount@CAxes@@QAEJXZ			; CAxes::GetCustomCount
PUBLIC	?RemoveCustom@CAxes@@QAEXJ@Z			; CAxes::RemoveCustom
PUBLIC	?RemoveAllCustom@CAxes@@QAEXXZ			; CAxes::RemoveAllCustom
PUBLIC	?GetDepthTop@CAxes@@QAE?AVCAxis@@XZ		; CAxes::GetDepthTop
PUBLIC	?GetFastCalc@CAxes@@QAEHXZ			; CAxes::GetFastCalc
PUBLIC	?SetFastCalc@CAxes@@QAEXH@Z			; CAxes::SetFastCalc
PUBLIC	?SetIsometric@CAxes@@QAEXJJ@Z			; CAxes::SetIsometric
EXTRN	___std_terminate:PROC
EXTRN	??0COleDispatchDriver@@QAE@PAUIDispatch@@H@Z:PROC ; COleDispatchDriver::COleDispatchDriver
EXTRN	?ReleaseDispatch@COleDispatchDriver@@QAEXXZ:PROC ; COleDispatchDriver::ReleaseDispatch
EXTRN	?InvokeHelper@COleDispatchDriver@@QAAXJGGPAXPBEZZ:PROC ; COleDispatchDriver::InvokeHelper
EXTRN	@__security_check_cookie@4:PROC
EXTRN	___CxxFrameHandler3:PROC
EXTRN	___security_cookie:DWORD
;	COMDAT ?parms@?1??SetIsometric@CAxes@@QAEXJJ@Z@4PAEA
_DATA	SEGMENT
?parms@?1??SetIsometric@CAxes@@QAEXJJ@Z@4PAEA DB 03H, 03H, 00H ; `CAxes::SetIsometric'::`2'::parms
_DATA	ENDS
;	COMDAT ?parms@?1??SetFastCalc@CAxes@@QAEXH@Z@4PAEA
_DATA	SEGMENT
?parms@?1??SetFastCalc@CAxes@@QAEXH@Z@4PAEA DB 0bH, 00H	; `CAxes::SetFastCalc'::`2'::parms
_DATA	ENDS
;	COMDAT ?parms@?1??RemoveCustom@CAxes@@QAEXJ@Z@4PAEA
_DATA	SEGMENT
?parms@?1??RemoveCustom@CAxes@@QAEXJ@Z@4PAEA DB 03H, 00H ; `CAxes::RemoveCustom'::`2'::parms
_DATA	ENDS
;	COMDAT ?parms@?1??GetCustom@CAxes@@QAE?AVCAxis@@J@Z@4PAEA
_DATA	SEGMENT
?parms@?1??GetCustom@CAxes@@QAE?AVCAxis@@J@Z@4PAEA DB 03H, 00H ; `CAxes::GetCustom'::`2'::parms
_DATA	ENDS
;	COMDAT ?parms@?1??AddCustom@CAxes@@QAEJH@Z@4PAEA
_DATA	SEGMENT
?parms@?1??AddCustom@CAxes@@QAEJH@Z@4PAEA DB 0bH, 00H	; `CAxes::AddCustom'::`2'::parms
_DATA	ENDS
;	COMDAT ?parms@?1??SetDrawAxesBeforeSeries@CAxes@@QAEXH@Z@4PAEA
_DATA	SEGMENT
?parms@?1??SetDrawAxesBeforeSeries@CAxes@@QAEXH@Z@4PAEA DB 0bH, 00H ; `CAxes::SetDrawAxesBeforeSeries'::`2'::parms
_DATA	ENDS
;	COMDAT ?parms@?1??SetVisible@CAxes@@QAEXH@Z@4PAEA
_DATA	SEGMENT
?parms@?1??SetVisible@CAxes@@QAEXH@Z@4PAEA DB 0bH, 00H	; `CAxes::SetVisible'::`2'::parms
_DATA	ENDS
;	COMDAT xdata$x
xdata$x	SEGMENT
__unwindtable$??1CAxis@@QAE@XZ DD 0ffffffffH
	DD	FLAT:___std_terminate
__ehfuncinfo$??1CAxis@@QAE@XZ DD 019930522H
	DD	01H
	DD	FLAT:__unwindtable$??1CAxis@@QAE@XZ
	DD	2 DUP(00H)
	DD	2 DUP(00H)
	DD	00H
	DD	05H
xdata$x	ENDS
;	COMDAT xdata$x
xdata$x	SEGMENT
__ehfuncinfo$??1COleDispatchDriver@@QAE@XZ DD 019930522H
	DD	00H
	DD	00H
	DD	2 DUP(00H)
	DD	2 DUP(00H)
	DD	00H
	DD	05H
xdata$x	ENDS
; Function compile flags: /Ogtp
; File D:\git\src\IBK\IBK_DRFN\ProjSrc\SrcDrfn\Chart\Common_TeeChart\axes.cpp
;	COMDAT ?SetIsometric@CAxes@@QAEXJJ@Z
_TEXT	SEGMENT
_aVertical$ = 8						; size = 4
_aHorizontal$ = 12					; size = 4
?SetIsometric@CAxes@@QAEXJJ@Z PROC			; CAxes::SetIsometric, COMDAT
; _this$ = ecx

; 148  : {

  00000	55		 push	 ebp
  00001	8b ec		 mov	 ebp, esp

; 149  : 	static BYTE parms[] =
; 150  : 		VTS_I4 VTS_I4;
; 151  : 	InvokeHelper(0xcb, DISPATCH_METHOD, VT_EMPTY, NULL, parms,

  00003	ff 75 0c	 push	 DWORD PTR _aHorizontal$[ebp]
  00006	ff 75 08	 push	 DWORD PTR _aVertical$[ebp]
  00009	68 00 00 00 00	 push	 OFFSET ?parms@?1??SetIsometric@CAxes@@QAEXJJ@Z@4PAEA
  0000e	6a 00		 push	 0
  00010	6a 00		 push	 0
  00012	6a 01		 push	 1
  00014	68 cb 00 00 00	 push	 203			; 000000cbH
  00019	51		 push	 ecx
  0001a	e8 00 00 00 00	 call	 ?InvokeHelper@COleDispatchDriver@@QAAXJGGPAXPBEZZ ; COleDispatchDriver::InvokeHelper
  0001f	83 c4 20	 add	 esp, 32			; 00000020H

; 152  : 		 aVertical, aHorizontal);
; 153  : }

  00022	5d		 pop	 ebp
  00023	c2 08 00	 ret	 8
?SetIsometric@CAxes@@QAEXJJ@Z ENDP			; CAxes::SetIsometric
_TEXT	ENDS
; Function compile flags: /Ogtp
; File D:\git\src\IBK\IBK_DRFN\ProjSrc\SrcDrfn\Chart\Common_TeeChart\axes.cpp
;	COMDAT ?SetFastCalc@CAxes@@QAEXH@Z
_TEXT	SEGMENT
_bNewValue$ = 8						; size = 4
?SetFastCalc@CAxes@@QAEXH@Z PROC			; CAxes::SetFastCalc, COMDAT
; _this$ = ecx

; 140  : {

  00000	55		 push	 ebp
  00001	8b ec		 mov	 ebp, esp

; 141  : 	static BYTE parms[] =
; 142  : 		VTS_BOOL;
; 143  : 	InvokeHelper(0xca, DISPATCH_PROPERTYPUT, VT_EMPTY, NULL, parms,

  00003	ff 75 08	 push	 DWORD PTR _bNewValue$[ebp]
  00006	68 00 00 00 00	 push	 OFFSET ?parms@?1??SetFastCalc@CAxes@@QAEXH@Z@4PAEA
  0000b	6a 00		 push	 0
  0000d	6a 00		 push	 0
  0000f	6a 04		 push	 4
  00011	68 ca 00 00 00	 push	 202			; 000000caH
  00016	51		 push	 ecx
  00017	e8 00 00 00 00	 call	 ?InvokeHelper@COleDispatchDriver@@QAAXJGGPAXPBEZZ ; COleDispatchDriver::InvokeHelper
  0001c	83 c4 1c	 add	 esp, 28			; 0000001cH

; 144  : 		 bNewValue);
; 145  : }

  0001f	5d		 pop	 ebp
  00020	c2 04 00	 ret	 4
?SetFastCalc@CAxes@@QAEXH@Z ENDP			; CAxes::SetFastCalc
_TEXT	ENDS
; Function compile flags: /Ogtp
; File D:\git\src\IBK\IBK_DRFN\ProjSrc\SrcDrfn\Chart\Common_TeeChart\axes.cpp
;	COMDAT ?GetFastCalc@CAxes@@QAEHXZ
_TEXT	SEGMENT
_result$ = -4						; size = 4
?GetFastCalc@CAxes@@QAEHXZ PROC				; CAxes::GetFastCalc, COMDAT
; _this$ = ecx

; 133  : {

  00000	55		 push	 ebp
  00001	8b ec		 mov	 ebp, esp
  00003	51		 push	 ecx

; 134  : 	BOOL result;
; 135  : 	InvokeHelper(0xca, DISPATCH_PROPERTYGET, VT_BOOL, (void*)&result, NULL);

  00004	6a 00		 push	 0
  00006	8d 45 fc	 lea	 eax, DWORD PTR _result$[ebp]
  00009	50		 push	 eax
  0000a	6a 0b		 push	 11			; 0000000bH
  0000c	6a 02		 push	 2
  0000e	68 ca 00 00 00	 push	 202			; 000000caH
  00013	51		 push	 ecx
  00014	e8 00 00 00 00	 call	 ?InvokeHelper@COleDispatchDriver@@QAAXJGGPAXPBEZZ ; COleDispatchDriver::InvokeHelper

; 136  : 	return result;

  00019	8b 45 fc	 mov	 eax, DWORD PTR _result$[ebp]
  0001c	83 c4 18	 add	 esp, 24			; 00000018H

; 137  : }

  0001f	8b e5		 mov	 esp, ebp
  00021	5d		 pop	 ebp
  00022	c3		 ret	 0
?GetFastCalc@CAxes@@QAEHXZ ENDP				; CAxes::GetFastCalc
_TEXT	ENDS
; Function compile flags: /Ogtp
; File D:\git\src\IBK\IBK_DRFN\ProjSrc\SrcDrfn\Chart\Common_TeeChart\axes.cpp
; File D:\git\src\IBK\IBK_DRFN\ProjSrc\SrcDrfn\Chart\Common_TeeChart\axis.h
; File D:\git\src\IBK\IBK_DRFN\ProjSrc\SrcDrfn\Chart\Common_TeeChart\axes.cpp
; File D:\git\src\IBK\IBK_DRFN\ProjSrc\SrcDrfn\Chart\Common_TeeChart\axis.h
; File D:\git\src\IBK\IBK_DRFN\ProjSrc\SrcDrfn\Chart\Common_TeeChart\axes.cpp
;	COMDAT ?GetDepthTop@CAxes@@QAE?AVCAxis@@XZ
_TEXT	SEGMENT
_pDispatch$ = -4					; size = 4
___$ReturnUdt$ = 8					; size = 4
?GetDepthTop@CAxes@@QAE?AVCAxis@@XZ PROC		; CAxes::GetDepthTop, COMDAT
; _this$ = ecx

; 126  : {

  00000	55		 push	 ebp
  00001	8b ec		 mov	 ebp, esp
  00003	51		 push	 ecx

; 128  : 	InvokeHelper(0xc9, DISPATCH_PROPERTYGET, VT_DISPATCH, (void*)&pDispatch, NULL);

  00004	6a 00		 push	 0
  00006	8d 45 fc	 lea	 eax, DWORD PTR _pDispatch$[ebp]
  00009	50		 push	 eax
  0000a	6a 09		 push	 9
  0000c	6a 02		 push	 2
  0000e	68 c9 00 00 00	 push	 201			; 000000c9H
  00013	51		 push	 ecx
  00014	e8 00 00 00 00	 call	 ?InvokeHelper@COleDispatchDriver@@QAAXJGGPAXPBEZZ ; COleDispatchDriver::InvokeHelper
; File D:\git\src\IBK\IBK_DRFN\ProjSrc\SrcDrfn\Chart\Common_TeeChart\axis.h

; 22   : 	CAxis(LPDISPATCH pDispatch) : COleDispatchDriver(pDispatch) {}

  00019	8b 4d 08	 mov	 ecx, DWORD PTR ___$ReturnUdt$[ebp]
; File D:\git\src\IBK\IBK_DRFN\ProjSrc\SrcDrfn\Chart\Common_TeeChart\axes.cpp

; 128  : 	InvokeHelper(0xc9, DISPATCH_PROPERTYGET, VT_DISPATCH, (void*)&pDispatch, NULL);

  0001c	83 c4 18	 add	 esp, 24			; 00000018H
; File D:\git\src\IBK\IBK_DRFN\ProjSrc\SrcDrfn\Chart\Common_TeeChart\axis.h

; 22   : 	CAxis(LPDISPATCH pDispatch) : COleDispatchDriver(pDispatch) {}

  0001f	6a 01		 push	 1
  00021	ff 75 fc	 push	 DWORD PTR _pDispatch$[ebp]
  00024	e8 00 00 00 00	 call	 ??0COleDispatchDriver@@QAE@PAUIDispatch@@H@Z ; COleDispatchDriver::COleDispatchDriver
; File D:\git\src\IBK\IBK_DRFN\ProjSrc\SrcDrfn\Chart\Common_TeeChart\axes.cpp

; 129  : 	return CAxis(pDispatch);

  00029	8b 45 08	 mov	 eax, DWORD PTR ___$ReturnUdt$[ebp]

; 130  : }

  0002c	8b e5		 mov	 esp, ebp
  0002e	5d		 pop	 ebp
  0002f	c2 04 00	 ret	 4
?GetDepthTop@CAxes@@QAE?AVCAxis@@XZ ENDP		; CAxes::GetDepthTop
_TEXT	ENDS
; Function compile flags: /Ogtp
; File D:\git\src\IBK\IBK_DRFN\ProjSrc\SrcDrfn\Chart\Common_TeeChart\axes.cpp
;	COMDAT ?RemoveAllCustom@CAxes@@QAEXXZ
_TEXT	SEGMENT
?RemoveAllCustom@CAxes@@QAEXXZ PROC			; CAxes::RemoveAllCustom, COMDAT
; _this$ = ecx

; 122  : 	InvokeHelper(0xc, DISPATCH_METHOD, VT_EMPTY, NULL, NULL);

  00000	6a 00		 push	 0
  00002	6a 00		 push	 0
  00004	6a 00		 push	 0
  00006	6a 01		 push	 1
  00008	6a 0c		 push	 12			; 0000000cH
  0000a	51		 push	 ecx
  0000b	e8 00 00 00 00	 call	 ?InvokeHelper@COleDispatchDriver@@QAAXJGGPAXPBEZZ ; COleDispatchDriver::InvokeHelper
  00010	83 c4 18	 add	 esp, 24			; 00000018H

; 123  : }

  00013	c3		 ret	 0
?RemoveAllCustom@CAxes@@QAEXXZ ENDP			; CAxes::RemoveAllCustom
_TEXT	ENDS
; Function compile flags: /Ogtp
; File D:\git\src\IBK\IBK_DRFN\ProjSrc\SrcDrfn\Chart\Common_TeeChart\axes.cpp
;	COMDAT ?RemoveCustom@CAxes@@QAEXJ@Z
_TEXT	SEGMENT
_CustomAxisIndex$ = 8					; size = 4
?RemoveCustom@CAxes@@QAEXJ@Z PROC			; CAxes::RemoveCustom, COMDAT
; _this$ = ecx

; 113  : {

  00000	55		 push	 ebp
  00001	8b ec		 mov	 ebp, esp

; 114  : 	static BYTE parms[] =
; 115  : 		VTS_I4;
; 116  : 	InvokeHelper(0xb, DISPATCH_METHOD, VT_EMPTY, NULL, parms,

  00003	ff 75 08	 push	 DWORD PTR _CustomAxisIndex$[ebp]
  00006	68 00 00 00 00	 push	 OFFSET ?parms@?1??RemoveCustom@CAxes@@QAEXJ@Z@4PAEA
  0000b	6a 00		 push	 0
  0000d	6a 00		 push	 0
  0000f	6a 01		 push	 1
  00011	6a 0b		 push	 11			; 0000000bH
  00013	51		 push	 ecx
  00014	e8 00 00 00 00	 call	 ?InvokeHelper@COleDispatchDriver@@QAAXJGGPAXPBEZZ ; COleDispatchDriver::InvokeHelper
  00019	83 c4 1c	 add	 esp, 28			; 0000001cH

; 117  : 		 CustomAxisIndex);
; 118  : }

  0001c	5d		 pop	 ebp
  0001d	c2 04 00	 ret	 4
?RemoveCustom@CAxes@@QAEXJ@Z ENDP			; CAxes::RemoveCustom
_TEXT	ENDS
; Function compile flags: /Ogtp
; File D:\git\src\IBK\IBK_DRFN\ProjSrc\SrcDrfn\Chart\Common_TeeChart\axes.cpp
;	COMDAT ?GetCustomCount@CAxes@@QAEJXZ
_TEXT	SEGMENT
_result$ = -4						; size = 4
?GetCustomCount@CAxes@@QAEJXZ PROC			; CAxes::GetCustomCount, COMDAT
; _this$ = ecx

; 106  : {

  00000	55		 push	 ebp
  00001	8b ec		 mov	 ebp, esp
  00003	51		 push	 ecx

; 107  : 	long result;
; 108  : 	InvokeHelper(0x9, DISPATCH_PROPERTYGET, VT_I4, (void*)&result, NULL);

  00004	6a 00		 push	 0
  00006	8d 45 fc	 lea	 eax, DWORD PTR _result$[ebp]
  00009	50		 push	 eax
  0000a	6a 03		 push	 3
  0000c	6a 02		 push	 2
  0000e	6a 09		 push	 9
  00010	51		 push	 ecx
  00011	e8 00 00 00 00	 call	 ?InvokeHelper@COleDispatchDriver@@QAAXJGGPAXPBEZZ ; COleDispatchDriver::InvokeHelper

; 109  : 	return result;

  00016	8b 45 fc	 mov	 eax, DWORD PTR _result$[ebp]
  00019	83 c4 18	 add	 esp, 24			; 00000018H

; 110  : }

  0001c	8b e5		 mov	 esp, ebp
  0001e	5d		 pop	 ebp
  0001f	c3		 ret	 0
?GetCustomCount@CAxes@@QAEJXZ ENDP			; CAxes::GetCustomCount
_TEXT	ENDS
; Function compile flags: /Ogtp
; File D:\git\src\IBK\IBK_DRFN\ProjSrc\SrcDrfn\Chart\Common_TeeChart\axes.cpp
; File D:\git\src\IBK\IBK_DRFN\ProjSrc\SrcDrfn\Chart\Common_TeeChart\axis.h
; File D:\git\src\IBK\IBK_DRFN\ProjSrc\SrcDrfn\Chart\Common_TeeChart\axes.cpp
; File D:\git\src\IBK\IBK_DRFN\ProjSrc\SrcDrfn\Chart\Common_TeeChart\axis.h
; File D:\git\src\IBK\IBK_DRFN\ProjSrc\SrcDrfn\Chart\Common_TeeChart\axes.cpp
;	COMDAT ?GetCustom@CAxes@@QAE?AVCAxis@@J@Z
_TEXT	SEGMENT
___$ReturnUdt$ = 8					; size = 4
_pDispatch$ = 12					; size = 4
_CustomAxisIndex$ = 12					; size = 4
?GetCustom@CAxes@@QAE?AVCAxis@@J@Z PROC			; CAxes::GetCustom, COMDAT
; _this$ = ecx

; 96   : {

  00000	55		 push	 ebp
  00001	8b ec		 mov	 ebp, esp

; 100  : 	InvokeHelper(0x8, DISPATCH_PROPERTYGET, VT_DISPATCH, (void*)&pDispatch, parms,

  00003	ff 75 0c	 push	 DWORD PTR _CustomAxisIndex$[ebp]
  00006	8d 45 0c	 lea	 eax, DWORD PTR _pDispatch$[ebp]
  00009	68 00 00 00 00	 push	 OFFSET ?parms@?1??GetCustom@CAxes@@QAE?AVCAxis@@J@Z@4PAEA
  0000e	50		 push	 eax
  0000f	6a 09		 push	 9
  00011	6a 02		 push	 2
  00013	6a 08		 push	 8
  00015	51		 push	 ecx
  00016	e8 00 00 00 00	 call	 ?InvokeHelper@COleDispatchDriver@@QAAXJGGPAXPBEZZ ; COleDispatchDriver::InvokeHelper
; File D:\git\src\IBK\IBK_DRFN\ProjSrc\SrcDrfn\Chart\Common_TeeChart\axis.h

; 22   : 	CAxis(LPDISPATCH pDispatch) : COleDispatchDriver(pDispatch) {}

  0001b	8b 4d 08	 mov	 ecx, DWORD PTR ___$ReturnUdt$[ebp]
; File D:\git\src\IBK\IBK_DRFN\ProjSrc\SrcDrfn\Chart\Common_TeeChart\axes.cpp

; 100  : 	InvokeHelper(0x8, DISPATCH_PROPERTYGET, VT_DISPATCH, (void*)&pDispatch, parms,

  0001e	83 c4 1c	 add	 esp, 28			; 0000001cH
; File D:\git\src\IBK\IBK_DRFN\ProjSrc\SrcDrfn\Chart\Common_TeeChart\axis.h

; 22   : 	CAxis(LPDISPATCH pDispatch) : COleDispatchDriver(pDispatch) {}

  00021	6a 01		 push	 1
  00023	ff 75 0c	 push	 DWORD PTR _pDispatch$[ebp]
  00026	e8 00 00 00 00	 call	 ??0COleDispatchDriver@@QAE@PAUIDispatch@@H@Z ; COleDispatchDriver::COleDispatchDriver
; File D:\git\src\IBK\IBK_DRFN\ProjSrc\SrcDrfn\Chart\Common_TeeChart\axes.cpp

; 102  : 	return CAxis(pDispatch);

  0002b	8b 45 08	 mov	 eax, DWORD PTR ___$ReturnUdt$[ebp]

; 103  : }

  0002e	5d		 pop	 ebp
  0002f	c2 08 00	 ret	 8
?GetCustom@CAxes@@QAE?AVCAxis@@J@Z ENDP			; CAxes::GetCustom
_TEXT	ENDS
; Function compile flags: /Ogtp
; File D:\git\src\IBK\IBK_DRFN\ProjSrc\SrcDrfn\Chart\Common_TeeChart\axes.cpp
;	COMDAT ?AddCustom@CAxes@@QAEJH@Z
_TEXT	SEGMENT
_result$ = 8						; size = 4
_IsHorizontal$ = 8					; size = 4
?AddCustom@CAxes@@QAEJH@Z PROC				; CAxes::AddCustom, COMDAT
; _this$ = ecx

; 86   : {

  00000	55		 push	 ebp
  00001	8b ec		 mov	 ebp, esp

; 87   : 	long result;
; 88   : 	static BYTE parms[] =
; 89   : 		VTS_BOOL;
; 90   : 	InvokeHelper(0x7, DISPATCH_METHOD, VT_I4, (void*)&result, parms,

  00003	ff 75 08	 push	 DWORD PTR _IsHorizontal$[ebp]
  00006	8d 45 08	 lea	 eax, DWORD PTR _result$[ebp]
  00009	68 00 00 00 00	 push	 OFFSET ?parms@?1??AddCustom@CAxes@@QAEJH@Z@4PAEA
  0000e	50		 push	 eax
  0000f	6a 03		 push	 3
  00011	6a 01		 push	 1
  00013	6a 07		 push	 7
  00015	51		 push	 ecx
  00016	e8 00 00 00 00	 call	 ?InvokeHelper@COleDispatchDriver@@QAAXJGGPAXPBEZZ ; COleDispatchDriver::InvokeHelper

; 91   : 		IsHorizontal);
; 92   : 	return result;

  0001b	8b 45 08	 mov	 eax, DWORD PTR _result$[ebp]
  0001e	83 c4 1c	 add	 esp, 28			; 0000001cH

; 93   : }

  00021	5d		 pop	 ebp
  00022	c2 04 00	 ret	 4
?AddCustom@CAxes@@QAEJH@Z ENDP				; CAxes::AddCustom
_TEXT	ENDS
; Function compile flags: /Ogtp
; File D:\git\src\IBK\IBK_DRFN\ProjSrc\SrcDrfn\Chart\Common_TeeChart\axes.cpp
;	COMDAT ?SetDrawAxesBeforeSeries@CAxes@@QAEXH@Z
_TEXT	SEGMENT
_bNewValue$ = 8						; size = 4
?SetDrawAxesBeforeSeries@CAxes@@QAEXH@Z PROC		; CAxes::SetDrawAxesBeforeSeries, COMDAT
; _this$ = ecx

; 78   : {

  00000	55		 push	 ebp
  00001	8b ec		 mov	 ebp, esp

; 79   : 	static BYTE parms[] =
; 80   : 		VTS_BOOL;
; 81   : 	InvokeHelper(0x6, DISPATCH_PROPERTYPUT, VT_EMPTY, NULL, parms,

  00003	ff 75 08	 push	 DWORD PTR _bNewValue$[ebp]
  00006	68 00 00 00 00	 push	 OFFSET ?parms@?1??SetDrawAxesBeforeSeries@CAxes@@QAEXH@Z@4PAEA
  0000b	6a 00		 push	 0
  0000d	6a 00		 push	 0
  0000f	6a 04		 push	 4
  00011	6a 06		 push	 6
  00013	51		 push	 ecx
  00014	e8 00 00 00 00	 call	 ?InvokeHelper@COleDispatchDriver@@QAAXJGGPAXPBEZZ ; COleDispatchDriver::InvokeHelper
  00019	83 c4 1c	 add	 esp, 28			; 0000001cH

; 82   : 		 bNewValue);
; 83   : }

  0001c	5d		 pop	 ebp
  0001d	c2 04 00	 ret	 4
?SetDrawAxesBeforeSeries@CAxes@@QAEXH@Z ENDP		; CAxes::SetDrawAxesBeforeSeries
_TEXT	ENDS
; Function compile flags: /Ogtp
; File D:\git\src\IBK\IBK_DRFN\ProjSrc\SrcDrfn\Chart\Common_TeeChart\axes.cpp
;	COMDAT ?GetDrawAxesBeforeSeries@CAxes@@QAEHXZ
_TEXT	SEGMENT
_result$ = -4						; size = 4
?GetDrawAxesBeforeSeries@CAxes@@QAEHXZ PROC		; CAxes::GetDrawAxesBeforeSeries, COMDAT
; _this$ = ecx

; 71   : {

  00000	55		 push	 ebp
  00001	8b ec		 mov	 ebp, esp
  00003	51		 push	 ecx

; 72   : 	BOOL result;
; 73   : 	InvokeHelper(0x6, DISPATCH_PROPERTYGET, VT_BOOL, (void*)&result, NULL);

  00004	6a 00		 push	 0
  00006	8d 45 fc	 lea	 eax, DWORD PTR _result$[ebp]
  00009	50		 push	 eax
  0000a	6a 0b		 push	 11			; 0000000bH
  0000c	6a 02		 push	 2
  0000e	6a 06		 push	 6
  00010	51		 push	 ecx
  00011	e8 00 00 00 00	 call	 ?InvokeHelper@COleDispatchDriver@@QAAXJGGPAXPBEZZ ; COleDispatchDriver::InvokeHelper

; 74   : 	return result;

  00016	8b 45 fc	 mov	 eax, DWORD PTR _result$[ebp]
  00019	83 c4 18	 add	 esp, 24			; 00000018H

; 75   : }

  0001c	8b e5		 mov	 esp, ebp
  0001e	5d		 pop	 ebp
  0001f	c3		 ret	 0
?GetDrawAxesBeforeSeries@CAxes@@QAEHXZ ENDP		; CAxes::GetDrawAxesBeforeSeries
_TEXT	ENDS
; Function compile flags: /Ogtp
; File D:\git\src\IBK\IBK_DRFN\ProjSrc\SrcDrfn\Chart\Common_TeeChart\axes.cpp
; File D:\git\src\IBK\IBK_DRFN\ProjSrc\SrcDrfn\Chart\Common_TeeChart\axis.h
; File D:\git\src\IBK\IBK_DRFN\ProjSrc\SrcDrfn\Chart\Common_TeeChart\axes.cpp
; File D:\git\src\IBK\IBK_DRFN\ProjSrc\SrcDrfn\Chart\Common_TeeChart\axis.h
; File D:\git\src\IBK\IBK_DRFN\ProjSrc\SrcDrfn\Chart\Common_TeeChart\axes.cpp
;	COMDAT ?GetDepth@CAxes@@QAE?AVCAxis@@XZ
_TEXT	SEGMENT
_pDispatch$ = -4					; size = 4
___$ReturnUdt$ = 8					; size = 4
?GetDepth@CAxes@@QAE?AVCAxis@@XZ PROC			; CAxes::GetDepth, COMDAT
; _this$ = ecx

; 64   : {

  00000	55		 push	 ebp
  00001	8b ec		 mov	 ebp, esp
  00003	51		 push	 ecx

; 66   : 	InvokeHelper(0x5, DISPATCH_PROPERTYGET, VT_DISPATCH, (void*)&pDispatch, NULL);

  00004	6a 00		 push	 0
  00006	8d 45 fc	 lea	 eax, DWORD PTR _pDispatch$[ebp]
  00009	50		 push	 eax
  0000a	6a 09		 push	 9
  0000c	6a 02		 push	 2
  0000e	6a 05		 push	 5
  00010	51		 push	 ecx
  00011	e8 00 00 00 00	 call	 ?InvokeHelper@COleDispatchDriver@@QAAXJGGPAXPBEZZ ; COleDispatchDriver::InvokeHelper
; File D:\git\src\IBK\IBK_DRFN\ProjSrc\SrcDrfn\Chart\Common_TeeChart\axis.h

; 22   : 	CAxis(LPDISPATCH pDispatch) : COleDispatchDriver(pDispatch) {}

  00016	8b 4d 08	 mov	 ecx, DWORD PTR ___$ReturnUdt$[ebp]
; File D:\git\src\IBK\IBK_DRFN\ProjSrc\SrcDrfn\Chart\Common_TeeChart\axes.cpp

; 66   : 	InvokeHelper(0x5, DISPATCH_PROPERTYGET, VT_DISPATCH, (void*)&pDispatch, NULL);

  00019	83 c4 18	 add	 esp, 24			; 00000018H
; File D:\git\src\IBK\IBK_DRFN\ProjSrc\SrcDrfn\Chart\Common_TeeChart\axis.h

; 22   : 	CAxis(LPDISPATCH pDispatch) : COleDispatchDriver(pDispatch) {}

  0001c	6a 01		 push	 1
  0001e	ff 75 fc	 push	 DWORD PTR _pDispatch$[ebp]
  00021	e8 00 00 00 00	 call	 ??0COleDispatchDriver@@QAE@PAUIDispatch@@H@Z ; COleDispatchDriver::COleDispatchDriver
; File D:\git\src\IBK\IBK_DRFN\ProjSrc\SrcDrfn\Chart\Common_TeeChart\axes.cpp

; 67   : 	return CAxis(pDispatch);

  00026	8b 45 08	 mov	 eax, DWORD PTR ___$ReturnUdt$[ebp]

; 68   : }

  00029	8b e5		 mov	 esp, ebp
  0002b	5d		 pop	 ebp
  0002c	c2 04 00	 ret	 4
?GetDepth@CAxes@@QAE?AVCAxis@@XZ ENDP			; CAxes::GetDepth
_TEXT	ENDS
; Function compile flags: /Ogtp
; File D:\git\src\IBK\IBK_DRFN\ProjSrc\SrcDrfn\Chart\Common_TeeChart\axes.cpp
;	COMDAT ?SetVisible@CAxes@@QAEXH@Z
_TEXT	SEGMENT
_bNewValue$ = 8						; size = 4
?SetVisible@CAxes@@QAEXH@Z PROC				; CAxes::SetVisible, COMDAT
; _this$ = ecx

; 56   : {

  00000	55		 push	 ebp
  00001	8b ec		 mov	 ebp, esp

; 57   : 	static BYTE parms[] =
; 58   : 		VTS_BOOL;
; 59   : 	InvokeHelper(0xa, DISPATCH_PROPERTYPUT, VT_EMPTY, NULL, parms,

  00003	ff 75 08	 push	 DWORD PTR _bNewValue$[ebp]
  00006	68 00 00 00 00	 push	 OFFSET ?parms@?1??SetVisible@CAxes@@QAEXH@Z@4PAEA
  0000b	6a 00		 push	 0
  0000d	6a 00		 push	 0
  0000f	6a 04		 push	 4
  00011	6a 0a		 push	 10			; 0000000aH
  00013	51		 push	 ecx
  00014	e8 00 00 00 00	 call	 ?InvokeHelper@COleDispatchDriver@@QAAXJGGPAXPBEZZ ; COleDispatchDriver::InvokeHelper
  00019	83 c4 1c	 add	 esp, 28			; 0000001cH

; 60   : 		 bNewValue);
; 61   : }

  0001c	5d		 pop	 ebp
  0001d	c2 04 00	 ret	 4
?SetVisible@CAxes@@QAEXH@Z ENDP				; CAxes::SetVisible
_TEXT	ENDS
; Function compile flags: /Ogtp
; File D:\git\src\IBK\IBK_DRFN\ProjSrc\SrcDrfn\Chart\Common_TeeChart\axes.cpp
;	COMDAT ?GetVisible@CAxes@@QAEHXZ
_TEXT	SEGMENT
_result$ = -4						; size = 4
?GetVisible@CAxes@@QAEHXZ PROC				; CAxes::GetVisible, COMDAT
; _this$ = ecx

; 49   : {

  00000	55		 push	 ebp
  00001	8b ec		 mov	 ebp, esp
  00003	51		 push	 ecx

; 50   : 	BOOL result;
; 51   : 	InvokeHelper(0xa, DISPATCH_PROPERTYGET, VT_BOOL, (void*)&result, NULL);

  00004	6a 00		 push	 0
  00006	8d 45 fc	 lea	 eax, DWORD PTR _result$[ebp]
  00009	50		 push	 eax
  0000a	6a 0b		 push	 11			; 0000000bH
  0000c	6a 02		 push	 2
  0000e	6a 0a		 push	 10			; 0000000aH
  00010	51		 push	 ecx
  00011	e8 00 00 00 00	 call	 ?InvokeHelper@COleDispatchDriver@@QAAXJGGPAXPBEZZ ; COleDispatchDriver::InvokeHelper

; 52   : 	return result;

  00016	8b 45 fc	 mov	 eax, DWORD PTR _result$[ebp]
  00019	83 c4 18	 add	 esp, 24			; 00000018H

; 53   : }

  0001c	8b e5		 mov	 esp, ebp
  0001e	5d		 pop	 ebp
  0001f	c3		 ret	 0
?GetVisible@CAxes@@QAEHXZ ENDP				; CAxes::GetVisible
_TEXT	ENDS
; Function compile flags: /Ogtp
; File D:\git\src\IBK\IBK_DRFN\ProjSrc\SrcDrfn\Chart\Common_TeeChart\axes.cpp
; File D:\git\src\IBK\IBK_DRFN\ProjSrc\SrcDrfn\Chart\Common_TeeChart\axis.h
; File D:\git\src\IBK\IBK_DRFN\ProjSrc\SrcDrfn\Chart\Common_TeeChart\axes.cpp
; File D:\git\src\IBK\IBK_DRFN\ProjSrc\SrcDrfn\Chart\Common_TeeChart\axis.h
; File D:\git\src\IBK\IBK_DRFN\ProjSrc\SrcDrfn\Chart\Common_TeeChart\axes.cpp
;	COMDAT ?GetBottom@CAxes@@QAE?AVCAxis@@XZ
_TEXT	SEGMENT
_pDispatch$ = -4					; size = 4
___$ReturnUdt$ = 8					; size = 4
?GetBottom@CAxes@@QAE?AVCAxis@@XZ PROC			; CAxes::GetBottom, COMDAT
; _this$ = ecx

; 42   : {

  00000	55		 push	 ebp
  00001	8b ec		 mov	 ebp, esp
  00003	51		 push	 ecx

; 44   : 	InvokeHelper(0x4, DISPATCH_PROPERTYGET, VT_DISPATCH, (void*)&pDispatch, NULL);

  00004	6a 00		 push	 0
  00006	8d 45 fc	 lea	 eax, DWORD PTR _pDispatch$[ebp]
  00009	50		 push	 eax
  0000a	6a 09		 push	 9
  0000c	6a 02		 push	 2
  0000e	6a 04		 push	 4
  00010	51		 push	 ecx
  00011	e8 00 00 00 00	 call	 ?InvokeHelper@COleDispatchDriver@@QAAXJGGPAXPBEZZ ; COleDispatchDriver::InvokeHelper
; File D:\git\src\IBK\IBK_DRFN\ProjSrc\SrcDrfn\Chart\Common_TeeChart\axis.h

; 22   : 	CAxis(LPDISPATCH pDispatch) : COleDispatchDriver(pDispatch) {}

  00016	8b 4d 08	 mov	 ecx, DWORD PTR ___$ReturnUdt$[ebp]
; File D:\git\src\IBK\IBK_DRFN\ProjSrc\SrcDrfn\Chart\Common_TeeChart\axes.cpp

; 44   : 	InvokeHelper(0x4, DISPATCH_PROPERTYGET, VT_DISPATCH, (void*)&pDispatch, NULL);

  00019	83 c4 18	 add	 esp, 24			; 00000018H
; File D:\git\src\IBK\IBK_DRFN\ProjSrc\SrcDrfn\Chart\Common_TeeChart\axis.h

; 22   : 	CAxis(LPDISPATCH pDispatch) : COleDispatchDriver(pDispatch) {}

  0001c	6a 01		 push	 1
  0001e	ff 75 fc	 push	 DWORD PTR _pDispatch$[ebp]
  00021	e8 00 00 00 00	 call	 ??0COleDispatchDriver@@QAE@PAUIDispatch@@H@Z ; COleDispatchDriver::COleDispatchDriver
; File D:\git\src\IBK\IBK_DRFN\ProjSrc\SrcDrfn\Chart\Common_TeeChart\axes.cpp

; 45   : 	return CAxis(pDispatch);

  00026	8b 45 08	 mov	 eax, DWORD PTR ___$ReturnUdt$[ebp]

; 46   : }

  00029	8b e5		 mov	 esp, ebp
  0002b	5d		 pop	 ebp
  0002c	c2 04 00	 ret	 4
?GetBottom@CAxes@@QAE?AVCAxis@@XZ ENDP			; CAxes::GetBottom
_TEXT	ENDS
; Function compile flags: /Ogtp
; File D:\git\src\IBK\IBK_DRFN\ProjSrc\SrcDrfn\Chart\Common_TeeChart\axes.cpp
; File D:\git\src\IBK\IBK_DRFN\ProjSrc\SrcDrfn\Chart\Common_TeeChart\axis.h
; File D:\git\src\IBK\IBK_DRFN\ProjSrc\SrcDrfn\Chart\Common_TeeChart\axes.cpp
; File D:\git\src\IBK\IBK_DRFN\ProjSrc\SrcDrfn\Chart\Common_TeeChart\axis.h
; File D:\git\src\IBK\IBK_DRFN\ProjSrc\SrcDrfn\Chart\Common_TeeChart\axes.cpp
;	COMDAT ?GetTop@CAxes@@QAE?AVCAxis@@XZ
_TEXT	SEGMENT
_pDispatch$ = -4					; size = 4
___$ReturnUdt$ = 8					; size = 4
?GetTop@CAxes@@QAE?AVCAxis@@XZ PROC			; CAxes::GetTop, COMDAT
; _this$ = ecx

; 35   : {

  00000	55		 push	 ebp
  00001	8b ec		 mov	 ebp, esp
  00003	51		 push	 ecx

; 37   : 	InvokeHelper(0x3, DISPATCH_PROPERTYGET, VT_DISPATCH, (void*)&pDispatch, NULL);

  00004	6a 00		 push	 0
  00006	8d 45 fc	 lea	 eax, DWORD PTR _pDispatch$[ebp]
  00009	50		 push	 eax
  0000a	6a 09		 push	 9
  0000c	6a 02		 push	 2
  0000e	6a 03		 push	 3
  00010	51		 push	 ecx
  00011	e8 00 00 00 00	 call	 ?InvokeHelper@COleDispatchDriver@@QAAXJGGPAXPBEZZ ; COleDispatchDriver::InvokeHelper
; File D:\git\src\IBK\IBK_DRFN\ProjSrc\SrcDrfn\Chart\Common_TeeChart\axis.h

; 22   : 	CAxis(LPDISPATCH pDispatch) : COleDispatchDriver(pDispatch) {}

  00016	8b 4d 08	 mov	 ecx, DWORD PTR ___$ReturnUdt$[ebp]
; File D:\git\src\IBK\IBK_DRFN\ProjSrc\SrcDrfn\Chart\Common_TeeChart\axes.cpp

; 37   : 	InvokeHelper(0x3, DISPATCH_PROPERTYGET, VT_DISPATCH, (void*)&pDispatch, NULL);

  00019	83 c4 18	 add	 esp, 24			; 00000018H
; File D:\git\src\IBK\IBK_DRFN\ProjSrc\SrcDrfn\Chart\Common_TeeChart\axis.h

; 22   : 	CAxis(LPDISPATCH pDispatch) : COleDispatchDriver(pDispatch) {}

  0001c	6a 01		 push	 1
  0001e	ff 75 fc	 push	 DWORD PTR _pDispatch$[ebp]
  00021	e8 00 00 00 00	 call	 ??0COleDispatchDriver@@QAE@PAUIDispatch@@H@Z ; COleDispatchDriver::COleDispatchDriver
; File D:\git\src\IBK\IBK_DRFN\ProjSrc\SrcDrfn\Chart\Common_TeeChart\axes.cpp

; 38   : 	return CAxis(pDispatch);

  00026	8b 45 08	 mov	 eax, DWORD PTR ___$ReturnUdt$[ebp]

; 39   : }

  00029	8b e5		 mov	 esp, ebp
  0002b	5d		 pop	 ebp
  0002c	c2 04 00	 ret	 4
?GetTop@CAxes@@QAE?AVCAxis@@XZ ENDP			; CAxes::GetTop
_TEXT	ENDS
; Function compile flags: /Ogtp
; File D:\git\src\IBK\IBK_DRFN\ProjSrc\SrcDrfn\Chart\Common_TeeChart\axes.cpp
; File D:\git\src\IBK\IBK_DRFN\ProjSrc\SrcDrfn\Chart\Common_TeeChart\axis.h
; File D:\git\src\IBK\IBK_DRFN\ProjSrc\SrcDrfn\Chart\Common_TeeChart\axes.cpp
; File D:\git\src\IBK\IBK_DRFN\ProjSrc\SrcDrfn\Chart\Common_TeeChart\axis.h
; File D:\git\src\IBK\IBK_DRFN\ProjSrc\SrcDrfn\Chart\Common_TeeChart\axes.cpp
;	COMDAT ?GetRight@CAxes@@QAE?AVCAxis@@XZ
_TEXT	SEGMENT
_pDispatch$ = -4					; size = 4
___$ReturnUdt$ = 8					; size = 4
?GetRight@CAxes@@QAE?AVCAxis@@XZ PROC			; CAxes::GetRight, COMDAT
; _this$ = ecx

; 28   : {

  00000	55		 push	 ebp
  00001	8b ec		 mov	 ebp, esp
  00003	51		 push	 ecx

; 30   : 	InvokeHelper(0x2, DISPATCH_PROPERTYGET, VT_DISPATCH, (void*)&pDispatch, NULL);

  00004	6a 00		 push	 0
  00006	8d 45 fc	 lea	 eax, DWORD PTR _pDispatch$[ebp]
  00009	50		 push	 eax
  0000a	6a 09		 push	 9
  0000c	6a 02		 push	 2
  0000e	6a 02		 push	 2
  00010	51		 push	 ecx
  00011	e8 00 00 00 00	 call	 ?InvokeHelper@COleDispatchDriver@@QAAXJGGPAXPBEZZ ; COleDispatchDriver::InvokeHelper
; File D:\git\src\IBK\IBK_DRFN\ProjSrc\SrcDrfn\Chart\Common_TeeChart\axis.h

; 22   : 	CAxis(LPDISPATCH pDispatch) : COleDispatchDriver(pDispatch) {}

  00016	8b 4d 08	 mov	 ecx, DWORD PTR ___$ReturnUdt$[ebp]
; File D:\git\src\IBK\IBK_DRFN\ProjSrc\SrcDrfn\Chart\Common_TeeChart\axes.cpp

; 30   : 	InvokeHelper(0x2, DISPATCH_PROPERTYGET, VT_DISPATCH, (void*)&pDispatch, NULL);

  00019	83 c4 18	 add	 esp, 24			; 00000018H
; File D:\git\src\IBK\IBK_DRFN\ProjSrc\SrcDrfn\Chart\Common_TeeChart\axis.h

; 22   : 	CAxis(LPDISPATCH pDispatch) : COleDispatchDriver(pDispatch) {}

  0001c	6a 01		 push	 1
  0001e	ff 75 fc	 push	 DWORD PTR _pDispatch$[ebp]
  00021	e8 00 00 00 00	 call	 ??0COleDispatchDriver@@QAE@PAUIDispatch@@H@Z ; COleDispatchDriver::COleDispatchDriver
; File D:\git\src\IBK\IBK_DRFN\ProjSrc\SrcDrfn\Chart\Common_TeeChart\axes.cpp

; 31   : 	return CAxis(pDispatch);

  00026	8b 45 08	 mov	 eax, DWORD PTR ___$ReturnUdt$[ebp]

; 32   : }

  00029	8b e5		 mov	 esp, ebp
  0002b	5d		 pop	 ebp
  0002c	c2 04 00	 ret	 4
?GetRight@CAxes@@QAE?AVCAxis@@XZ ENDP			; CAxes::GetRight
_TEXT	ENDS
; Function compile flags: /Ogtp
; File D:\git\src\IBK\IBK_DRFN\ProjSrc\SrcDrfn\Chart\Common_TeeChart\axes.cpp
; File D:\git\src\IBK\IBK_DRFN\ProjSrc\SrcDrfn\Chart\Common_TeeChart\axis.h
; File D:\git\src\IBK\IBK_DRFN\ProjSrc\SrcDrfn\Chart\Common_TeeChart\axes.cpp
; File D:\git\src\IBK\IBK_DRFN\ProjSrc\SrcDrfn\Chart\Common_TeeChart\axis.h
; File D:\git\src\IBK\IBK_DRFN\ProjSrc\SrcDrfn\Chart\Common_TeeChart\axes.cpp
;	COMDAT ?GetLeft@CAxes@@QAE?AVCAxis@@XZ
_TEXT	SEGMENT
_pDispatch$ = -4					; size = 4
___$ReturnUdt$ = 8					; size = 4
?GetLeft@CAxes@@QAE?AVCAxis@@XZ PROC			; CAxes::GetLeft, COMDAT
; _this$ = ecx

; 21   : {

  00000	55		 push	 ebp
  00001	8b ec		 mov	 ebp, esp
  00003	51		 push	 ecx

; 23   : 	InvokeHelper(0x1, DISPATCH_PROPERTYGET, VT_DISPATCH, (void*)&pDispatch, NULL);

  00004	6a 00		 push	 0
  00006	8d 45 fc	 lea	 eax, DWORD PTR _pDispatch$[ebp]
  00009	50		 push	 eax
  0000a	6a 09		 push	 9
  0000c	6a 02		 push	 2
  0000e	6a 01		 push	 1
  00010	51		 push	 ecx
  00011	e8 00 00 00 00	 call	 ?InvokeHelper@COleDispatchDriver@@QAAXJGGPAXPBEZZ ; COleDispatchDriver::InvokeHelper
; File D:\git\src\IBK\IBK_DRFN\ProjSrc\SrcDrfn\Chart\Common_TeeChart\axis.h

; 22   : 	CAxis(LPDISPATCH pDispatch) : COleDispatchDriver(pDispatch) {}

  00016	8b 4d 08	 mov	 ecx, DWORD PTR ___$ReturnUdt$[ebp]
; File D:\git\src\IBK\IBK_DRFN\ProjSrc\SrcDrfn\Chart\Common_TeeChart\axes.cpp

; 23   : 	InvokeHelper(0x1, DISPATCH_PROPERTYGET, VT_DISPATCH, (void*)&pDispatch, NULL);

  00019	83 c4 18	 add	 esp, 24			; 00000018H
; File D:\git\src\IBK\IBK_DRFN\ProjSrc\SrcDrfn\Chart\Common_TeeChart\axis.h

; 22   : 	CAxis(LPDISPATCH pDispatch) : COleDispatchDriver(pDispatch) {}

  0001c	6a 01		 push	 1
  0001e	ff 75 fc	 push	 DWORD PTR _pDispatch$[ebp]
  00021	e8 00 00 00 00	 call	 ??0COleDispatchDriver@@QAE@PAUIDispatch@@H@Z ; COleDispatchDriver::COleDispatchDriver
; File D:\git\src\IBK\IBK_DRFN\ProjSrc\SrcDrfn\Chart\Common_TeeChart\axes.cpp

; 24   : 	return CAxis(pDispatch);

  00026	8b 45 08	 mov	 eax, DWORD PTR ___$ReturnUdt$[ebp]

; 25   : }

  00029	8b e5		 mov	 esp, ebp
  0002b	5d		 pop	 ebp
  0002c	c2 04 00	 ret	 4
?GetLeft@CAxes@@QAE?AVCAxis@@XZ ENDP			; CAxes::GetLeft
_TEXT	ENDS
; Function compile flags: /Ogtp
; File D:\git\src\IBK\IBK_DRFN\ProjSrc\SrcDrfn\Chart\Common_TeeChart\axes.cpp
;	COMDAT ?__empty_global_delete@@YAXPAXI@Z
_TEXT	SEGMENT
___formal$ = 8						; size = 4
___formal$ = 12						; size = 4
?__empty_global_delete@@YAXPAXI@Z PROC			; __empty_global_delete, COMDAT

  00000	c2 00 00	 ret	 0
?__empty_global_delete@@YAXPAXI@Z ENDP			; __empty_global_delete
_TEXT	ENDS
; Function compile flags: /Ogtp
; File D:\git\src\IBK\IBK_DRFN\ProjSrc\SrcDrfn\Chart\Common_TeeChart\axes.cpp
;	COMDAT ?__empty_global_delete@@YAXPAX@Z
_TEXT	SEGMENT
___formal$ = 8						; size = 4
?__empty_global_delete@@YAXPAX@Z PROC			; __empty_global_delete, COMDAT

  00000	c2 00 00	 ret	 0
?__empty_global_delete@@YAXPAX@Z ENDP			; __empty_global_delete
_TEXT	ENDS
END
