; Listing generated by Microsoft (R) Optimizing Compiler Version 19.29.30145.0 

	TITLE	D:\git\src\IBK\IBK_DRFN\#DRfn-CS\_Obj\HWStrategyAnalysis\DlgAnalysis.obj
	.686P
	.XMM
	include listing.inc
	.model	flat

INCLUDELIB MSVCRT
INCLUDELIB OLDNAMES

PUBLIC	??_C@_0BA@DEABJHGB@RMSG_GETDLLSIZE@		; `string'
PUBLIC	??_C@_0BA@CKCOCACI@RMSG_SETDLLSIZE@		; `string'
PUBLIC	??_C@_0BO@DBLNBLBD@RMSG_STDATAMANAGER_RESULTDATA@ ; `string'
PUBLIC	??_C@_0P@BKKCOCLK@RMSG_INTERFACE@		; `string'
PUBLIC	??_C@_0BB@GOOPDKI@RMSG_GETPCTRDATA@		; `string'
PUBLIC	??_C@_0BB@JPACFCL@RMSG_SETPCTRDATA@		; `string'
PUBLIC	??_C@_0BE@FJPKENOB@RMSG_GETSIGNAL_REAL@		; `string'
PUBLIC	??_C@_0BB@CNOFPEHG@RMSG_SETQUERYOPT@		; `string'
PUBLIC	??_C@_0P@KHFCBIOH@RMSG_CHARTMAIN@		; `string'
PUBLIC	??_C@_0BC@MMPGLPDH@RMS_ANALYSIS_FUNC@		; `string'
PUBLIC	??_C@_0BA@HKNFENJL@RMSG_GET_USERID@		; `string'
PUBLIC	??_C@_0BG@CNPAHNGG@RMSG_CHANGE_SKINCOLOR@	; `string'
PUBLIC	??_C@_0BD@FLDNDDHK@RMSG_GET_SKINCOLOR@		; `string'
PUBLIC	??_C@_0BJ@JLKHIBIK@RMSG_CHANGEVERTSCALETYPE@	; `string'
PUBLIC	??_C@_0BG@LNLCJKPF@RMSG_CHANGE_CROSSLINE@	; `string'
PUBLIC	??_C@_0BH@IFDMIMBP@RMSG_ADD_PLATFORM_MENU@	; `string'
PUBLIC	??_C@_0BJ@OGNAJHHI@RMSG_SETINITIALCHARTDATA@	; `string'
PUBLIC	??_C@_0N@IIOKMIEH@RMSG_GETINFO@			; `string'
PUBLIC	??_C@_0N@HABLPHJG@RMSG_SETINFO@			; `string'
;	COMDAT ??_C@_0N@HABLPHJG@RMSG_SETINFO@
CONST	SEGMENT
??_C@_0N@HABLPHJG@RMSG_SETINFO@ DB 'RMSG_SETINFO', 00H	; `string'
CONST	ENDS
;	COMDAT ??_C@_0N@IIOKMIEH@RMSG_GETINFO@
CONST	SEGMENT
??_C@_0N@IIOKMIEH@RMSG_GETINFO@ DB 'RMSG_GETINFO', 00H	; `string'
CONST	ENDS
;	COMDAT ??_C@_0BJ@OGNAJHHI@RMSG_SETINITIALCHARTDATA@
CONST	SEGMENT
??_C@_0BJ@OGNAJHHI@RMSG_SETINITIALCHARTDATA@ DB 'RMSG_SETINITIALCHARTDATA'
	DB	00H						; `string'
CONST	ENDS
;	COMDAT ??_C@_0BH@IFDMIMBP@RMSG_ADD_PLATFORM_MENU@
CONST	SEGMENT
??_C@_0BH@IFDMIMBP@RMSG_ADD_PLATFORM_MENU@ DB 'RMSG_ADD_PLATFORM_MENU', 00H ; `string'
CONST	ENDS
;	COMDAT ??_C@_0BG@LNLCJKPF@RMSG_CHANGE_CROSSLINE@
CONST	SEGMENT
??_C@_0BG@LNLCJKPF@RMSG_CHANGE_CROSSLINE@ DB 'RMSG_CHANGE_CROSSLINE', 00H ; `string'
CONST	ENDS
;	COMDAT ??_C@_0BJ@JLKHIBIK@RMSG_CHANGEVERTSCALETYPE@
CONST	SEGMENT
??_C@_0BJ@JLKHIBIK@RMSG_CHANGEVERTSCALETYPE@ DB 'RMSG_CHANGEVERTSCALETYPE'
	DB	00H						; `string'
CONST	ENDS
;	COMDAT ??_C@_0BD@FLDNDDHK@RMSG_GET_SKINCOLOR@
CONST	SEGMENT
??_C@_0BD@FLDNDDHK@RMSG_GET_SKINCOLOR@ DB 'RMSG_GET_SKINCOLOR', 00H ; `string'
CONST	ENDS
;	COMDAT ??_C@_0BG@CNPAHNGG@RMSG_CHANGE_SKINCOLOR@
CONST	SEGMENT
??_C@_0BG@CNPAHNGG@RMSG_CHANGE_SKINCOLOR@ DB 'RMSG_CHANGE_SKINCOLOR', 00H ; `string'
CONST	ENDS
;	COMDAT ??_C@_0BA@HKNFENJL@RMSG_GET_USERID@
CONST	SEGMENT
??_C@_0BA@HKNFENJL@RMSG_GET_USERID@ DB 'RMSG_GET_USERID', 00H ; `string'
CONST	ENDS
;	COMDAT ??_C@_0BC@MMPGLPDH@RMS_ANALYSIS_FUNC@
CONST	SEGMENT
??_C@_0BC@MMPGLPDH@RMS_ANALYSIS_FUNC@ DB 'RMS_ANALYSIS_FUNC', 00H ; `string'
CONST	ENDS
;	COMDAT ??_C@_0P@KHFCBIOH@RMSG_CHARTMAIN@
CONST	SEGMENT
??_C@_0P@KHFCBIOH@RMSG_CHARTMAIN@ DB 'RMSG_CHARTMAIN', 00H ; `string'
CONST	ENDS
;	COMDAT ??_C@_0BB@CNOFPEHG@RMSG_SETQUERYOPT@
CONST	SEGMENT
??_C@_0BB@CNOFPEHG@RMSG_SETQUERYOPT@ DB 'RMSG_SETQUERYOPT', 00H ; `string'
CONST	ENDS
;	COMDAT ??_C@_0BE@FJPKENOB@RMSG_GETSIGNAL_REAL@
CONST	SEGMENT
??_C@_0BE@FJPKENOB@RMSG_GETSIGNAL_REAL@ DB 'RMSG_GETSIGNAL_REAL', 00H ; `string'
CONST	ENDS
;	COMDAT ??_C@_0BB@JPACFCL@RMSG_SETPCTRDATA@
CONST	SEGMENT
??_C@_0BB@JPACFCL@RMSG_SETPCTRDATA@ DB 'RMSG_SETPCTRDATA', 00H ; `string'
CONST	ENDS
;	COMDAT ??_C@_0BB@GOOPDKI@RMSG_GETPCTRDATA@
CONST	SEGMENT
??_C@_0BB@GOOPDKI@RMSG_GETPCTRDATA@ DB 'RMSG_GETPCTRDATA', 00H ; `string'
CONST	ENDS
;	COMDAT ??_C@_0P@BKKCOCLK@RMSG_INTERFACE@
CONST	SEGMENT
??_C@_0P@BKKCOCLK@RMSG_INTERFACE@ DB 'RMSG_INTERFACE', 00H ; `string'
CONST	ENDS
;	COMDAT ??_C@_0BO@DBLNBLBD@RMSG_STDATAMANAGER_RESULTDATA@
CONST	SEGMENT
??_C@_0BO@DBLNBLBD@RMSG_STDATAMANAGER_RESULTDATA@ DB 'RMSG_STDATAMANAGER_'
	DB	'RESULTDATA', 00H				; `string'
CONST	ENDS
;	COMDAT ??_C@_0BA@CKCOCACI@RMSG_SETDLLSIZE@
CONST	SEGMENT
??_C@_0BA@CKCOCACI@RMSG_SETDLLSIZE@ DB 'RMSG_SETDLLSIZE', 00H ; `string'
CONST	ENDS
;	COMDAT ??_C@_0BA@DEABJHGB@RMSG_GETDLLSIZE@
CONST	SEGMENT
??_C@_0BA@DEABJHGB@RMSG_GETDLLSIZE@ DB 'RMSG_GETDLLSIZE', 00H ; `string'
CONST	ENDS
PUBLIC	?__empty_global_delete@@YAXPAX@Z		; __empty_global_delete
PUBLIC	?__empty_global_delete@@YAXPAXI@Z		; __empty_global_delete
PUBLIC	___local_stdio_printf_options
PUBLIC	_fprintf
PUBLIC	?AfxCrtErrorCheck@@YAHH@Z			; AfxCrtErrorCheck
PUBLIC	??1CObject@@UAE@XZ				; CObject::~CObject
PUBLIC	??3CObject@@SGXPAX@Z				; CObject::operator delete
PUBLIC	?Serialize@CObject@@UAEXAAVCArchive@@@Z		; CObject::Serialize
PUBLIC	?AssertValid@CObject@@UBEXXZ			; CObject::AssertValid
PUBLIC	?Dump@CObject@@UBEXAAVCDumpContext@@@Z		; CObject::Dump
PUBLIC	??HATL@@YA?AV?$CStringT@DV?$StrTraitMFC_DLL@DV?$ChTraitsCRT@D@ATL@@@@@0@ABV10@PBD@Z ; ATL::operator+
PUBLIC	??1CGdiObject@@UAE@XZ				; CGdiObject::~CGdiObject
PUBLIC	??_GCGdiObject@@UAEPAXI@Z			; CGdiObject::`scalar deleting destructor'
PUBLIC	??1CBrush@@UAE@XZ				; CBrush::~CBrush
PUBLIC	??_GCBrush@@UAEPAXI@Z				; CBrush::`scalar deleting destructor'
PUBLIC	?DoDataExchange@CWnd@@MAEXPAVCDataExchange@@@Z	; CWnd::DoDataExchange
PUBLIC	?BeginModalState@CWnd@@UAEXXZ			; CWnd::BeginModalState
PUBLIC	?EndModalState@CWnd@@UAEXXZ			; CWnd::EndModalState
PUBLIC	?Create@CDialog@@UAEHIPAVCWnd@@@Z		; CDialog::Create
PUBLIC	??1ST_DATAINDEX@@QAE@XZ				; ST_DATAINDEX::~ST_DATAINDEX
PUBLIC	??0ST_DATAINDEX@@QAE@ABU0@@Z			; ST_DATAINDEX::ST_DATAINDEX
PUBLIC	??4ST_DATAINDEX@@QAEAAU0@ABU0@@Z		; ST_DATAINDEX::operator=
PUBLIC	?PreTranslateMessage@CEscDialog@@MAEHPAUtagMSG@@@Z ; CEscDialog::PreTranslateMessage
PUBLIC	??1CEscDialog@@UAE@XZ				; CEscDialog::~CEscDialog
PUBLIC	??_GCEscDialog@@UAEPAXI@Z			; CEscDialog::`scalar deleting destructor'
PUBLIC	??0?$CArray@UST_DATAINDEX@@U1@@@QAE@XZ		; CArray<ST_DATAINDEX,ST_DATAINDEX>::CArray<ST_DATAINDEX,ST_DATAINDEX>
PUBLIC	?SetSize@?$CArray@UST_DATAINDEX@@U1@@@QAEXHH@Z	; CArray<ST_DATAINDEX,ST_DATAINDEX>::SetSize
PUBLIC	?SetAtGrow@?$CArray@UST_DATAINDEX@@U1@@@QAEXHUST_DATAINDEX@@@Z ; CArray<ST_DATAINDEX,ST_DATAINDEX>::SetAtGrow
PUBLIC	?Add@?$CArray@UST_DATAINDEX@@U1@@@QAEHUST_DATAINDEX@@@Z ; CArray<ST_DATAINDEX,ST_DATAINDEX>::Add
PUBLIC	??1?$CArray@UST_DATAINDEX@@U1@@@UAE@XZ		; CArray<ST_DATAINDEX,ST_DATAINDEX>::~CArray<ST_DATAINDEX,ST_DATAINDEX>
PUBLIC	?Serialize@?$CArray@UST_DATAINDEX@@U1@@@UAEXAAVCArchive@@@Z ; CArray<ST_DATAINDEX,ST_DATAINDEX>::Serialize
PUBLIC	??_G?$CArray@UST_DATAINDEX@@U1@@@UAEPAXI@Z	; CArray<ST_DATAINDEX,ST_DATAINDEX>::`scalar deleting destructor'
PUBLIC	??0CDlgAnalysis@@QAE@PAVCWnd@@@Z		; CDlgAnalysis::CDlgAnalysis
PUBLIC	?FormInit@CDlgAnalysis@@QAEXXZ			; CDlgAnalysis::FormInit
PUBLIC	?FormLoad@CDlgAnalysis@@QAEXXZ			; CDlgAnalysis::FormLoad
PUBLIC	?DoDataExchange@CDlgAnalysis@@MAEXPAVCDataExchange@@@Z ; CDlgAnalysis::DoDataExchange
PUBLIC	?OnDestroy@CDlgAnalysis@@IAEXXZ			; CDlgAnalysis::OnDestroy
PUBLIC	?OnInitDialog@CDlgAnalysis@@MAEHXZ		; CDlgAnalysis::OnInitDialog
PUBLIC	?GetThisMessageMap@CDlgAnalysis@@KGPBUAFX_MSGMAP@@XZ ; CDlgAnalysis::GetThisMessageMap
PUBLIC	?GetMessageMap@CDlgAnalysis@@MBEPBUAFX_MSGMAP@@XZ ; CDlgAnalysis::GetMessageMap
PUBLIC	?OnGetDllSize@CDlgAnalysis@@IAEJIJ@Z		; CDlgAnalysis::OnGetDllSize
PUBLIC	?OnSTDataManagerMessagge@CDlgAnalysis@@IAEJIJ@Z	; CDlgAnalysis::OnSTDataManagerMessagge
PUBLIC	?OnCancel@CDlgAnalysis@@MAEXXZ			; CDlgAnalysis::OnCancel
PUBLIC	?GetRect@CDlgAnalysis@@QAE?AVCRect@@H@Z		; CDlgAnalysis::GetRect
PUBLIC	?InitSTLoad@CDlgAnalysis@@QAEXXZ		; CDlgAnalysis::InitSTLoad
PUBLIC	?InsertMonthGubun@CDlgAnalysis@@QAEXAAV?$CStringT@DV?$StrTraitMFC_DLL@DV?$ChTraitsCRT@D@ATL@@@@@ATL@@@Z ; CDlgAnalysis::InsertMonthGubun
PUBLIC	?InsertDateGubun@CDlgAnalysis@@QAEXAAV?$CStringT@DV?$StrTraitMFC_DLL@DV?$ChTraitsCRT@D@ATL@@@@@ATL@@@Z ; CDlgAnalysis::InsertDateGubun
PUBLIC	?InsertTimeGubun@CDlgAnalysis@@QAEXAAV?$CStringT@DV?$StrTraitMFC_DLL@DV?$ChTraitsCRT@D@ATL@@@@@ATL@@@Z ; CDlgAnalysis::InsertTimeGubun
PUBLIC	?InsertHourGubun@CDlgAnalysis@@QAEXAAV?$CStringT@DV?$StrTraitMFC_DLL@DV?$ChTraitsCRT@D@ATL@@@@@ATL@@@Z ; CDlgAnalysis::InsertHourGubun
PUBLIC	?InsertMinuteGubun@CDlgAnalysis@@QAEXAAV?$CStringT@DV?$StrTraitMFC_DLL@DV?$ChTraitsCRT@D@ATL@@@@@ATL@@H@Z ; CDlgAnalysis::InsertMinuteGubun
PUBLIC	?InsertGubun@CDlgAnalysis@@QAEHAAV?$CStringT@DV?$StrTraitMFC_DLL@DV?$ChTraitsCRT@D@ATL@@@@@ATL@@H@Z ; CDlgAnalysis::InsertGubun
PUBLIC	?SetCalculateData@CDlgAnalysis@@QAEXH@Z		; CDlgAnalysis::SetCalculateData
PUBLIC	?Result@CDlgAnalysis@@QAEXXZ			; CDlgAnalysis::Result
PUBLIC	?WriteDebug@CDlgAnalysis@@QAEXV?$CStringT@DV?$StrTraitMFC_DLL@DV?$ChTraitsCRT@D@ATL@@@@@ATL@@@Z ; CDlgAnalysis::WriteDebug
PUBLIC	?OnShowWindow@CDlgAnalysis@@QAEXHI@Z		; CDlgAnalysis::OnShowWindow
PUBLIC	?OnTimer@CDlgAnalysis@@QAEXI@Z			; CDlgAnalysis::OnTimer
PUBLIC	?OnCtlColor@CDlgAnalysis@@QAEPAUHBRUSH__@@PAVCDC@@PAVCWnd@@I@Z ; CDlgAnalysis::OnCtlColor
PUBLIC	??_GCDlgAnalysis@@UAEPAXI@Z			; CDlgAnalysis::`scalar deleting destructor'
PUBLIC	??$SerializeElements@UST_DATAINDEX@@@@YGXAAVCArchive@@PAUST_DATAINDEX@@H@Z ; SerializeElements<ST_DATAINDEX>
PUBLIC	?_OptionsStorage@?1??__local_stdio_printf_options@@9@4_KA ; `__local_stdio_printf_options'::`2'::_OptionsStorage
PUBLIC	??_R0PAVCException@@@8				; CException * `RTTI Type Descriptor'
PUBLIC	??_C@_02DPKJAMEF@?$CFd@				; `string'
PUBLIC	??_C@_00CNPNBAHC@@				; `string'
PUBLIC	??_7CGdiObject@@6B@				; CGdiObject::`vftable'
PUBLIC	??_7CBrush@@6B@					; CBrush::`vftable'
PUBLIC	??_C@_0HD@JJCHHHNK@C?3?2Program?5Files?5?$CIx86?$CJ?2Microsof@ ; `string'
PUBLIC	??_C@_0BP@OIEOKIDM@Exception?5thrown?5in?5destructor@ ; `string'
PUBLIC	??_C@_0BB@HBOOMJBF@?$CFTs?5?$CI?$CFTs?3?$CFd?$CJ?6?$CFTs@ ; `string'
PUBLIC	??_C@_0N@OMEMOKLE@?$CFTs?5?$CI?$CFTs?3?$CFd?$CJ@ ; `string'
PUBLIC	??_7CEscDialog@@6B@				; CEscDialog::`vftable'
PUBLIC	??_R0?AVCObject@@@8				; CObject `RTTI Type Descriptor'
PUBLIC	??_R3CObject@@8					; CObject::`RTTI Class Hierarchy Descriptor'
PUBLIC	??_R2CObject@@8					; CObject::`RTTI Base Class Array'
PUBLIC	??_R1A@?0A@EA@CObject@@8			; CObject::`RTTI Base Class Descriptor at (0,-1,0,64)'
PUBLIC	??_R4CGdiObject@@6B@				; CGdiObject::`RTTI Complete Object Locator'
PUBLIC	??_R0?AVCGdiObject@@@8				; CGdiObject `RTTI Type Descriptor'
PUBLIC	??_R3CGdiObject@@8				; CGdiObject::`RTTI Class Hierarchy Descriptor'
PUBLIC	??_R2CGdiObject@@8				; CGdiObject::`RTTI Base Class Array'
PUBLIC	??_R1A@?0A@EA@CGdiObject@@8			; CGdiObject::`RTTI Base Class Descriptor at (0,-1,0,64)'
PUBLIC	??_R4CBrush@@6B@				; CBrush::`RTTI Complete Object Locator'
PUBLIC	??_R0?AVCBrush@@@8				; CBrush `RTTI Type Descriptor'
PUBLIC	??_R3CBrush@@8					; CBrush::`RTTI Class Hierarchy Descriptor'
PUBLIC	??_R2CBrush@@8					; CBrush::`RTTI Base Class Array'
PUBLIC	??_R1A@?0A@EA@CBrush@@8				; CBrush::`RTTI Base Class Descriptor at (0,-1,0,64)'
PUBLIC	??_R1A@?0A@EA@CWnd@@8				; CWnd::`RTTI Base Class Descriptor at (0,-1,0,64)'
PUBLIC	??_R0?AVCWnd@@@8				; CWnd `RTTI Type Descriptor'
PUBLIC	??_R3CWnd@@8					; CWnd::`RTTI Class Hierarchy Descriptor'
PUBLIC	??_R2CWnd@@8					; CWnd::`RTTI Base Class Array'
PUBLIC	??_R1A@?0A@EA@CCmdTarget@@8			; CCmdTarget::`RTTI Base Class Descriptor at (0,-1,0,64)'
PUBLIC	??_R0?AVCCmdTarget@@@8				; CCmdTarget `RTTI Type Descriptor'
PUBLIC	??_R3CCmdTarget@@8				; CCmdTarget::`RTTI Class Hierarchy Descriptor'
PUBLIC	??_R2CCmdTarget@@8				; CCmdTarget::`RTTI Base Class Array'
PUBLIC	??_R1A@?0A@EA@CDialog@@8			; CDialog::`RTTI Base Class Descriptor at (0,-1,0,64)'
PUBLIC	??_R0?AVCDialog@@@8				; CDialog `RTTI Type Descriptor'
PUBLIC	??_R3CDialog@@8					; CDialog::`RTTI Class Hierarchy Descriptor'
PUBLIC	??_R2CDialog@@8					; CDialog::`RTTI Base Class Array'
PUBLIC	??_R4CEscDialog@@6B@				; CEscDialog::`RTTI Complete Object Locator'
PUBLIC	??_R0?AVCEscDialog@@@8				; CEscDialog `RTTI Type Descriptor'
PUBLIC	??_R3CEscDialog@@8				; CEscDialog::`RTTI Class Hierarchy Descriptor'
PUBLIC	??_R2CEscDialog@@8				; CEscDialog::`RTTI Base Class Array'
PUBLIC	??_R1A@?0A@EA@CEscDialog@@8			; CEscDialog::`RTTI Base Class Descriptor at (0,-1,0,64)'
PUBLIC	??_7?$CArray@UST_DATAINDEX@@U1@@@6B@		; CArray<ST_DATAINDEX,ST_DATAINDEX>::`vftable'
PUBLIC	??_7CDlgAnalysis@@6B@				; CDlgAnalysis::`vftable'
PUBLIC	??_C@_0CJ@JEPCLFOC@?A?$LO?$LI?q?$LI?m?$MA?L?$LD?$KK?5?$MA?$PM?$LH?$KL?$LI?m?$MA?L?5?$LM?$LB?E?C?$LF?G?A?v?5?$LO?J@ ; `string'
PUBLIC	??_C@_0L@FEICBMFP@?2STData?2SD@			; `string'
PUBLIC	??_C@_04MHOBIAIL@?$MA?$PM?C?$LM@		; `string'
PUBLIC	??_C@_01NBENCBCI@?$CK@				; `string'
PUBLIC	??_C@_04GEFJINEE@?$CF?42f@			; `string'
PUBLIC	??_C@_04GHNNFJCK@?$CF?40f@			; `string'
PUBLIC	??_C@_08LFHKPNLG@?$LE?$KJ?$MA?$PL?3?$CFs?5@	; `string'
PUBLIC	??_C@_0BC@CBMEJKFM@?$LN?B?$LH?$PM?3?$CFs?5?$LI?E?$LI?E?$LM?v?3?$CFs@ ; `string'
PUBLIC	??_C@_03CCGKKFHG@a?$CLt@			; `string'
PUBLIC	??_C@_0BF@BHAIFGLJ@c?3?2Logs?2?$LM?$LK?$LA?z?$LK?P?$LM?$KO?4txt@ ; `string'
PUBLIC	??_C@_0BB@DJEEEOLH@?$FL?$CF02d?3?$CF02d?3?$CF02d?$FN@ ; `string'
PUBLIC	??_C@_05MGFEFMAH@?$FL?$CFs?$FN?6@		; `string'
PUBLIC	??_C@_06ODLOODK@?$CGnbsp?$DL@			; `string'
PUBLIC	??_C@_01JLIPDDHJ@?3@				; `string'
PUBLIC	??_C@_07BBHKEGCN@?2STDATA@			; `string'
PUBLIC	??_R4CDlgAnalysis@@6B@				; CDlgAnalysis::`RTTI Complete Object Locator'
PUBLIC	??_R0?AVCDlgAnalysis@@@8			; CDlgAnalysis `RTTI Type Descriptor'
PUBLIC	??_R3CDlgAnalysis@@8				; CDlgAnalysis::`RTTI Class Hierarchy Descriptor'
PUBLIC	??_R2CDlgAnalysis@@8				; CDlgAnalysis::`RTTI Base Class Array'
PUBLIC	??_R1A@?0A@EA@CDlgAnalysis@@8			; CDlgAnalysis::`RTTI Base Class Descriptor at (0,-1,0,64)'
PUBLIC	??_R4?$CArray@UST_DATAINDEX@@U1@@@6B@		; CArray<ST_DATAINDEX,ST_DATAINDEX>::`RTTI Complete Object Locator'
PUBLIC	??_R0?AV?$CArray@UST_DATAINDEX@@U1@@@@8		; CArray<ST_DATAINDEX,ST_DATAINDEX> `RTTI Type Descriptor'
PUBLIC	??_R3?$CArray@UST_DATAINDEX@@U1@@@8		; CArray<ST_DATAINDEX,ST_DATAINDEX>::`RTTI Class Hierarchy Descriptor'
PUBLIC	??_R2?$CArray@UST_DATAINDEX@@U1@@@8		; CArray<ST_DATAINDEX,ST_DATAINDEX>::`RTTI Base Class Array'
PUBLIC	??_R1A@?0A@EA@?$CArray@UST_DATAINDEX@@U1@@@8	; CArray<ST_DATAINDEX,ST_DATAINDEX>::`RTTI Base Class Descriptor at (0,-1,0,64)'
PUBLIC	__real@0000000000000000
PUBLIC	__real@3fe0000000000000
PUBLIC	__real@3ff0000000000000
EXTRN	??2@YAPAXI@Z:PROC				; operator new
EXTRN	??3@YAXPAX@Z:PROC				; operator delete
EXTRN	??3@YAXPAXI@Z:PROC				; operator delete
EXTRN	?__global_delete@@YAXPAXI@Z:PROC		; __global_delete
EXTRN	??_U@YAPAXI@Z:PROC				; operator new[]
EXTRN	??_V@YAXPAX@Z:PROC				; operator delete[]
EXTRN	__imp___invalid_parameter_noinfo:PROC
EXTRN	__imp___errno:PROC
EXTRN	__imp__GetSystemTime@4:PROC
EXTRN	__imp__CreateSolidBrush@4:PROC
EXTRN	__imp__RegisterWindowMessageA@4:PROC
EXTRN	__imp__PostMessageA@16:PROC
EXTRN	__imp__GetKeyState@4:PROC
EXTRN	__imp__SetTimer@16:PROC
EXTRN	__imp__KillTimer@8:PROC
EXTRN	__imp__EnableWindow@8:PROC
EXTRN	__imp__InvalidateRect@12:PROC
EXTRN	__imp__GetClientRect@8:PROC
EXTRN	__imp__GetParent@4:PROC
EXTRN	__imp__fclose:PROC
EXTRN	__imp__fopen:PROC
EXTRN	__imp____stdio_common_vfprintf:PROC
EXTRN	?AfxThrowMemoryException@@YGXXZ:PROC		; AfxThrowMemoryException
EXTRN	?AfxThrowInvalidArgException@@YGXXZ:PROC	; AfxThrowInvalidArgException
EXTRN	?AfxThrowArchiveException@@YGXHPBD@Z:PROC	; AfxThrowArchiveException
EXTRN	?GetRuntimeClass@CObject@@UBEPAUCRuntimeClass@@XZ:PROC ; CObject::GetRuntimeClass
EXTRN	__imp_?Concatenate@?$CSimpleStringT@D$00@ATL@@KAXAAV12@PBDH1H@Z:PROC
EXTRN	__imp_??0?$CStringT@DV?$StrTraitMFC_DLL@DV?$ChTraitsCRT@D@ATL@@@@@ATL@@QAE@XZ:PROC
EXTRN	__imp_??0?$CStringT@DV?$StrTraitMFC_DLL@DV?$ChTraitsCRT@D@ATL@@@@@ATL@@QAE@PAUIAtlStringMgr@1@@Z:PROC
EXTRN	__imp_??0?$CStringT@DV?$StrTraitMFC_DLL@DV?$ChTraitsCRT@D@ATL@@@@@ATL@@QAE@ABV01@@Z:PROC
EXTRN	__imp_??1?$CStringT@DV?$StrTraitMFC_DLL@DV?$ChTraitsCRT@D@ATL@@@@@ATL@@QAE@XZ:PROC
EXTRN	__imp_??4?$CStringT@DV?$StrTraitMFC_DLL@DV?$ChTraitsCRT@D@ATL@@@@@ATL@@QAEAAV01@ABV01@@Z:PROC
EXTRN	__imp_??4?$CStringT@DV?$StrTraitMFC_DLL@DV?$ChTraitsCRT@D@ATL@@@@@ATL@@QAEAAV01@PBD@Z:PROC
EXTRN	__imp_?GetManager@?$CStringT@DV?$StrTraitMFC_DLL@DV?$ChTraitsCRT@D@ATL@@@@@ATL@@QBEPAUIAtlStringMgr@2@XZ:PROC
EXTRN	__imp_?Compare@?$CStringT@DV?$StrTraitMFC_DLL@DV?$ChTraitsCRT@D@ATL@@@@@ATL@@QBEHPBD@Z:PROC
EXTRN	__imp_?Insert@?$CStringT@DV?$StrTraitMFC_DLL@DV?$ChTraitsCRT@D@ATL@@@@@ATL@@QAEHHD@Z:PROC
EXTRN	__imp_?Insert@?$CStringT@DV?$StrTraitMFC_DLL@DV?$ChTraitsCRT@D@ATL@@@@@ATL@@QAEHHPBD@Z:PROC
EXTRN	__imp_?Find@?$CStringT@DV?$StrTraitMFC_DLL@DV?$ChTraitsCRT@D@ATL@@@@@ATL@@QBEHDH@Z:PROC
EXTRN	__imp_?Mid@?$CStringT@DV?$StrTraitMFC_DLL@DV?$ChTraitsCRT@D@ATL@@@@@ATL@@QBE?AV12@H@Z:PROC
EXTRN	__imp_?Left@?$CStringT@DV?$StrTraitMFC_DLL@DV?$ChTraitsCRT@D@ATL@@@@@ATL@@QBE?AV12@H@Z:PROC
EXTRN	__imp_?Format@?$CStringT@DV?$StrTraitMFC_DLL@DV?$ChTraitsCRT@D@ATL@@@@@ATL@@QAAXPBDZZ:PROC
EXTRN	?Read@CArchive@@QAEIPAXI@Z:PROC			; CArchive::Read
EXTRN	?Write@CArchive@@QAEXPBXI@Z:PROC		; CArchive::Write
EXTRN	?ReadCount@CArchive@@QAEKXZ:PROC		; CArchive::ReadCount
EXTRN	?WriteCount@CArchive@@QAEXK@Z:PROC		; CArchive::WriteCount
EXTRN	??0CStringArray@@QAE@XZ:PROC			; CStringArray::CStringArray
EXTRN	?SetSize@CStringArray@@QAEXHH@Z:PROC		; CStringArray::SetSize
EXTRN	?SetAtGrow@CStringArray@@QAEXHABV?$CStringT@DV?$StrTraitMFC_DLL@DV?$ChTraitsCRT@D@ATL@@@@@ATL@@@Z:PROC ; CStringArray::SetAtGrow
EXTRN	??1CStringArray@@UAE@XZ:PROC			; CStringArray::~CStringArray
EXTRN	?AfxGetModuleState@@YGPAVAFX_MODULE_STATE@@XZ:PROC ; AfxGetModuleState
EXTRN	?GetRuntimeClass@CGdiObject@@UBEPAUCRuntimeClass@@XZ:PROC ; CGdiObject::GetRuntimeClass
EXTRN	?Attach@CGdiObject@@QAEHPAX@Z:PROC		; CGdiObject::Attach
EXTRN	?DeleteObject@CGdiObject@@QAEHXZ:PROC		; CGdiObject::DeleteObject
EXTRN	??_ECGdiObject@@UAEPAXI@Z:PROC			; CGdiObject::`vector deleting destructor'
EXTRN	?GetRuntimeClass@CBrush@@UBEPAUCRuntimeClass@@XZ:PROC ; CBrush::GetRuntimeClass
EXTRN	??_ECBrush@@UAEPAXI@Z:PROC			; CBrush::`vector deleting destructor'
EXTRN	?EnableAutomation@CCmdTarget@@QAEXXZ:PROC	; CCmdTarget::EnableAutomation
EXTRN	?IsInvokeAllowed@CCmdTarget@@UAEHJ@Z:PROC	; CCmdTarget::IsInvokeAllowed
EXTRN	?GetDispatchIID@CCmdTarget@@UAEHPAU_GUID@@@Z:PROC ; CCmdTarget::GetDispatchIID
EXTRN	?GetTypeInfoCount@CCmdTarget@@UAEIXZ:PROC	; CCmdTarget::GetTypeInfoCount
EXTRN	?GetTypeLibCache@CCmdTarget@@UAEPAVCTypeLibCache@@XZ:PROC ; CCmdTarget::GetTypeLibCache
EXTRN	?GetTypeLib@CCmdTarget@@UAEJKPAPAUITypeLib@@@Z:PROC ; CCmdTarget::GetTypeLib
EXTRN	?GetCommandMap@CCmdTarget@@MBEPBUAFX_OLECMDMAP@@XZ:PROC ; CCmdTarget::GetCommandMap
EXTRN	?GetDispatchMap@CCmdTarget@@MBEPBUAFX_DISPMAP@@XZ:PROC ; CCmdTarget::GetDispatchMap
EXTRN	?GetConnectionMap@CCmdTarget@@MBEPBUAFX_CONNECTIONMAP@@XZ:PROC ; CCmdTarget::GetConnectionMap
EXTRN	?GetEventSinkMap@CCmdTarget@@MBEPBUAFX_EVENTSINKMAP@@XZ:PROC ; CCmdTarget::GetEventSinkMap
EXTRN	?OnCreateAggregates@CCmdTarget@@UAEHXZ:PROC	; CCmdTarget::OnCreateAggregates
EXTRN	?GetInterfaceHook@CCmdTarget@@UAEPAUIUnknown@@PBX@Z:PROC ; CCmdTarget::GetInterfaceHook
EXTRN	?GetExtraConnectionPoints@CCmdTarget@@MAEHPAVCPtrArray@@@Z:PROC ; CCmdTarget::GetExtraConnectionPoints
EXTRN	?GetConnectionHook@CCmdTarget@@MAEPAUIConnectionPoint@@ABU_GUID@@@Z:PROC ; CCmdTarget::GetConnectionHook
EXTRN	?FromHandle@CWnd@@SGPAV1@PAUHWND__@@@Z:PROC	; CWnd::FromHandle
EXTRN	?PreSubclassWindow@CWnd@@UAEXXZ:PROC		; CWnd::PreSubclassWindow
EXTRN	?Create@CWnd@@UAEHPBD0KABUtagRECT@@PAV1@IPAUCCreateContext@@@Z:PROC ; CWnd::Create
EXTRN	?CreateEx@CWnd@@UAEHKPBD0KHHHHPAUHWND__@@PAUHMENU__@@PAX@Z:PROC ; CWnd::CreateEx
EXTRN	?CreateEx@CWnd@@UAEHKPBD0KABUtagRECT@@PAV1@IPAX@Z:PROC ; CWnd::CreateEx
EXTRN	?DestroyWindow@CWnd@@UAEHXZ:PROC		; CWnd::DestroyWindow
EXTRN	?PreCreateWindow@CWnd@@UAEHAAUtagCREATESTRUCTA@@@Z:PROC ; CWnd::PreCreateWindow
EXTRN	?CalcWindowRect@CWnd@@UAEXPAUtagRECT@@I@Z:PROC	; CWnd::CalcWindowRect
EXTRN	?GetMenu@CWnd@@UBEPAVCMenu@@XZ:PROC		; CWnd::GetMenu
EXTRN	?SetMenu@CWnd@@UAEHPAVCMenu@@@Z:PROC		; CWnd::SetMenu
EXTRN	?ShowWindow@CWnd@@QAEHH@Z:PROC			; CWnd::ShowWindow
EXTRN	?OnToolHitTest@CWnd@@UBEHVCPoint@@PAUtagTOOLINFOA@@@Z:PROC ; CWnd::OnToolHitTest
EXTRN	?GetScrollBarCtrl@CWnd@@UBEPAVCScrollBar@@H@Z:PROC ; CWnd::GetScrollBarCtrl
EXTRN	?WinHelpA@CWnd@@UAEXKI@Z:PROC			; CWnd::WinHelpA
EXTRN	?HtmlHelpA@CWnd@@UAEXKI@Z:PROC			; CWnd::HtmlHelpA
EXTRN	?WinHelpInternal@CWnd@@UAEXKI@Z:PROC		; CWnd::WinHelpInternal
EXTRN	?CenterWindow@CWnd@@QAEXPAV1@@Z:PROC		; CWnd::CenterWindow
EXTRN	?ContinueModal@CWnd@@UAEHXZ:PROC		; CWnd::ContinueModal
EXTRN	?EndModalLoop@CWnd@@UAEXH@Z:PROC		; CWnd::EndModalLoop
EXTRN	?OnDrawIconicThumbnailOrLivePreview@CWnd@@UAEXAAVCDC@@VCRect@@VCSize@@HAAH@Z:PROC ; CWnd::OnDrawIconicThumbnailOrLivePreview
EXTRN	?GetInterfaceMap@CWnd@@MBEPBUAFX_INTERFACEMAP@@XZ:PROC ; CWnd::GetInterfaceMap
EXTRN	?EnsureStdObj@CWnd@@UAEJXZ:PROC			; CWnd::EnsureStdObj
EXTRN	?get_accParent@CWnd@@UAEJPAPAUIDispatch@@@Z:PROC ; CWnd::get_accParent
EXTRN	?get_accChildCount@CWnd@@UAEJPAJ@Z:PROC		; CWnd::get_accChildCount
EXTRN	?get_accChild@CWnd@@UAEJUtagVARIANT@@PAPAUIDispatch@@@Z:PROC ; CWnd::get_accChild
EXTRN	?get_accName@CWnd@@UAEJUtagVARIANT@@PAPA_W@Z:PROC ; CWnd::get_accName
EXTRN	?get_accValue@CWnd@@UAEJUtagVARIANT@@PAPA_W@Z:PROC ; CWnd::get_accValue
EXTRN	?get_accDescription@CWnd@@UAEJUtagVARIANT@@PAPA_W@Z:PROC ; CWnd::get_accDescription
EXTRN	?get_accRole@CWnd@@UAEJUtagVARIANT@@PAU2@@Z:PROC ; CWnd::get_accRole
EXTRN	?get_accState@CWnd@@UAEJUtagVARIANT@@PAU2@@Z:PROC ; CWnd::get_accState
EXTRN	?get_accHelp@CWnd@@UAEJUtagVARIANT@@PAPA_W@Z:PROC ; CWnd::get_accHelp
EXTRN	?get_accHelpTopic@CWnd@@UAEJPAPA_WUtagVARIANT@@PAJ@Z:PROC ; CWnd::get_accHelpTopic
EXTRN	?get_accKeyboardShortcut@CWnd@@UAEJUtagVARIANT@@PAPA_W@Z:PROC ; CWnd::get_accKeyboardShortcut
EXTRN	?get_accFocus@CWnd@@UAEJPAUtagVARIANT@@@Z:PROC	; CWnd::get_accFocus
EXTRN	?get_accSelection@CWnd@@UAEJPAUtagVARIANT@@@Z:PROC ; CWnd::get_accSelection
EXTRN	?get_accDefaultAction@CWnd@@UAEJUtagVARIANT@@PAPA_W@Z:PROC ; CWnd::get_accDefaultAction
EXTRN	?accSelect@CWnd@@UAEJJUtagVARIANT@@@Z:PROC	; CWnd::accSelect
EXTRN	?accLocation@CWnd@@UAEJPAJ000UtagVARIANT@@@Z:PROC ; CWnd::accLocation
EXTRN	?accNavigate@CWnd@@UAEJJUtagVARIANT@@PAU2@@Z:PROC ; CWnd::accNavigate
EXTRN	?accHitTest@CWnd@@UAEJJJPAUtagVARIANT@@@Z:PROC	; CWnd::accHitTest
EXTRN	?accDoDefaultAction@CWnd@@UAEJUtagVARIANT@@@Z:PROC ; CWnd::accDoDefaultAction
EXTRN	?put_accName@CWnd@@UAEJUtagVARIANT@@PA_W@Z:PROC	; CWnd::put_accName
EXTRN	?put_accValue@CWnd@@UAEJUtagVARIANT@@PA_W@Z:PROC ; CWnd::put_accValue
EXTRN	?SetProxy@CWnd@@UAEJPAUIAccessibleProxy@@@Z:PROC ; CWnd::SetProxy
EXTRN	?CreateAccessibleProxy@CWnd@@UAEJIJPAJ@Z:PROC	; CWnd::CreateAccessibleProxy
EXTRN	?OnCommand@CWnd@@MAEHIJ@Z:PROC			; CWnd::OnCommand
EXTRN	?OnNotify@CWnd@@MAEHIJPAJ@Z:PROC		; CWnd::OnNotify
EXTRN	?OnCtlColor@CWnd@@IAEPAUHBRUSH__@@PAVCDC@@PAV1@I@Z:PROC ; CWnd::OnCtlColor
EXTRN	?OnDestroy@CWnd@@IAEXXZ:PROC			; CWnd::OnDestroy
EXTRN	?GetSuperWndProcAddr@CWnd@@MAEPAP6GJPAUHWND__@@IIJ@ZXZ:PROC ; CWnd::GetSuperWndProcAddr
EXTRN	?OnAmbientProperty@CWnd@@UAEHPAVCOleControlSite@@JPAUtagVARIANT@@@Z:PROC ; CWnd::OnAmbientProperty
EXTRN	?WindowProc@CWnd@@MAEJIIJ@Z:PROC		; CWnd::WindowProc
EXTRN	?OnWndMsg@CWnd@@MAEHIIJPAJ@Z:PROC		; CWnd::OnWndMsg
EXTRN	?Default@CWnd@@IAEJXZ:PROC			; CWnd::Default
EXTRN	?DefWindowProcA@CWnd@@MAEJIIJ@Z:PROC		; CWnd::DefWindowProcA
EXTRN	?PostNcDestroy@CWnd@@MAEXXZ:PROC		; CWnd::PostNcDestroy
EXTRN	?OnChildNotify@CWnd@@MAEHIIJPAJ@Z:PROC		; CWnd::OnChildNotify
EXTRN	?OnTouchInputs@CWnd@@MAEHIPAUtagTOUCHINPUT@@@Z:PROC ; CWnd::OnTouchInputs
EXTRN	?OnTouchInput@CWnd@@MAEHVCPoint@@HHPAUtagTOUCHINPUT@@@Z:PROC ; CWnd::OnTouchInput
EXTRN	?GetGestureStatus@CWnd@@MAEKVCPoint@@@Z:PROC	; CWnd::GetGestureStatus
EXTRN	?OnGestureZoom@CWnd@@MAEHVCPoint@@J@Z:PROC	; CWnd::OnGestureZoom
EXTRN	?OnGesturePan@CWnd@@MAEHVCPoint@@0@Z:PROC	; CWnd::OnGesturePan
EXTRN	?OnGestureRotate@CWnd@@MAEHVCPoint@@N@Z:PROC	; CWnd::OnGestureRotate
EXTRN	?OnGestureTwoFingerTap@CWnd@@MAEHVCPoint@@@Z:PROC ; CWnd::OnGestureTwoFingerTap
EXTRN	?OnGesturePressAndTap@CWnd@@MAEHVCPoint@@J@Z:PROC ; CWnd::OnGesturePressAndTap
EXTRN	?ResizeDynamicLayout@CWnd@@MAEXXZ:PROC		; CWnd::ResizeDynamicLayout
EXTRN	?IsFrameWnd@CWnd@@UBEHXZ:PROC			; CWnd::IsFrameWnd
EXTRN	?OnFinalRelease@CWnd@@UAEXXZ:PROC		; CWnd::OnFinalRelease
EXTRN	?CreateControlContainer@CWnd@@MAEHPAPAVCOleControlContainer@@@Z:PROC ; CWnd::CreateControlContainer
EXTRN	?CreateControlSite@CWnd@@MAEHPAVCOleControlContainer@@PAPAVCOleControlSite@@IABU_GUID@@@Z:PROC ; CWnd::CreateControlSite
EXTRN	?GetRuntimeClass@CDialog@@UBEPAUCRuntimeClass@@XZ:PROC ; CDialog::GetRuntimeClass
EXTRN	?Create@CDialog@@UAEHPBDPAVCWnd@@@Z:PROC	; CDialog::Create
EXTRN	?CreateIndirect@CDialog@@UAEHPBUDLGTEMPLATE@@PAVCWnd@@PAX@Z:PROC ; CDialog::CreateIndirect
EXTRN	?CreateIndirect@CDialog@@UAEHPAXPAVCWnd@@@Z:PROC ; CDialog::CreateIndirect
EXTRN	??0CDialog@@QAE@IPAVCWnd@@@Z:PROC		; CDialog::CDialog
EXTRN	?DoModal@CDialog@@UAEHXZ:PROC			; CDialog::DoModal
EXTRN	?OnInitDialog@CDialog@@UAEHXZ:PROC		; CDialog::OnInitDialog
EXTRN	?OnSetFont@CDialog@@UAEXPAVCFont@@@Z:PROC	; CDialog::OnSetFont
EXTRN	?OnOK@CDialog@@MAEXXZ:PROC			; CDialog::OnOK
EXTRN	?OnCancel@CDialog@@MAEXXZ:PROC			; CDialog::OnCancel
EXTRN	??1CDialog@@UAE@XZ:PROC				; CDialog::~CDialog
EXTRN	?PreTranslateMessage@CDialog@@UAEHPAUtagMSG@@@Z:PROC ; CDialog::PreTranslateMessage
EXTRN	?OnCmdMsg@CDialog@@UAEHIHPAXPAUAFX_CMDHANDLERINFO@@@Z:PROC ; CDialog::OnCmdMsg
EXTRN	?CheckAutoCenter@CDialog@@UAEHXZ:PROC		; CDialog::CheckAutoCenter
EXTRN	?SetOccDialogInfo@CDialog@@MAEHPAU_AFX_OCC_DIALOG_INFO@@@Z:PROC ; CDialog::SetOccDialogInfo
EXTRN	?GetOccDialogInfo@CDialog@@MAEPAU_AFX_OCC_DIALOG_INFO@@XZ:PROC ; CDialog::GetOccDialogInfo
EXTRN	?PreInitDialog@CDialog@@MAEXXZ:PROC		; CDialog::PreInitDialog
EXTRN	?GetThisMessageMap@CDialog@@KGPBUAFX_MSGMAP@@XZ:PROC ; CDialog::GetThisMessageMap
EXTRN	?GetMessageMap@CDialog@@MBEPBUAFX_MSGMAP@@XZ:PROC ; CDialog::GetMessageMap
EXTRN	?AfxMessageBox@@YGHPBDII@Z:PROC			; AfxMessageBox
EXTRN	?AfxEnableControlContainer@@YAXPAVCOccManager@@@Z:PROC ; AfxEnableControlContainer
EXTRN	??0CStrategyLoader@@QAE@XZ:PROC			; CStrategyLoader::CStrategyLoader
EXTRN	?GetStrategyItem@CStrategyLoader@@QAEPAVCIStrategyItem0001@@XZ:PROC ; CStrategyLoader::GetStrategyItem
EXTRN	??1CStrategyLoader@@UAE@XZ:PROC			; CStrategyLoader::~CStrategyLoader
EXTRN	??_ECEscDialog@@UAEPAXI@Z:PROC			; CEscDialog::`vector deleting destructor'
EXTRN	??0CGridCtrl@@QAE@HHHH@Z:PROC			; CGridCtrl::CGridCtrl
EXTRN	??1CGridCtrl@@UAE@XZ:PROC			; CGridCtrl::~CGridCtrl
EXTRN	?GetComma@CDlgInterface@@SA?AV?$CStringT@DV?$StrTraitMFC_DLL@DV?$ChTraitsCRT@D@ATL@@@@@ATL@@PBD@Z:PROC ; CDlgInterface::GetComma
EXTRN	??0CInfoRight@@QAE@PAVCWnd@@@Z:PROC		; CInfoRight::CInfoRight
EXTRN	??_E?$CArray@UST_DATAINDEX@@U1@@@UAEPAXI@Z:PROC	; CArray<ST_DATAINDEX,ST_DATAINDEX>::`vector deleting destructor'
EXTRN	?SetRefresh@CInfoRight@@QAEXH@Z:PROC		; CInfoRight::SetRefresh
EXTRN	?SetParentsRect@CInfoRight@@QAEXVCRect@@@Z:PROC	; CInfoRight::SetParentsRect
EXTRN	?InitTab@CInfoRight@@QAEXXZ:PROC		; CInfoRight::InitTab
EXTRN	?InitCodeGubun@CInfoRight@@QAEXH@Z:PROC		; CInfoRight::InitCodeGubun
EXTRN	?DrawGraph@CInfoRight@@QAEXXZ:PROC		; CInfoRight::DrawGraph
EXTRN	?DeleteAllItems@CXListCtrl@@QAEHXZ:PROC		; CXListCtrl::DeleteAllItems
EXTRN	?InsertItem@CXListCtrl@@QAEHHPBD@Z:PROC		; CXListCtrl::InsertItem
EXTRN	?SetItemText@CXListCtrl@@QAEHHHPBD@Z:PROC	; CXListCtrl::SetItemText
EXTRN	??_ECDlgAnalysis@@UAEPAXI@Z:PROC		; CDlgAnalysis::`vector deleting destructor'
EXTRN	??0CDlgWait@@QAE@PAVCWnd@@@Z:PROC		; CDlgWait::CDlgWait
EXTRN	@__security_check_cookie@4:PROC
EXTRN	___CxxFrameHandler3:PROC
EXTRN	_memcpy:PROC
EXTRN	_memset:PROC
EXTRN	??_7type_info@@6B@:QWORD			; type_info::`vftable'
EXTRN	___security_cookie:DWORD
EXTRN	__fltused:DWORD
;	COMDAT ?_OptionsStorage@?1??__local_stdio_printf_options@@9@4_KA
_BSS	SEGMENT
?_OptionsStorage@?1??__local_stdio_printf_options@@9@4_KA DQ 01H DUP (?) ; `__local_stdio_printf_options'::`2'::_OptionsStorage
_BSS	ENDS
_BSS	SEGMENT
?RMSG_GETSIGNAL_REAL@@3IB DD 01H DUP (?)		; RMSG_GETSIGNAL_REAL
?RMSG_SETQUERYOPT@@3IB DD 01H DUP (?)			; RMSG_SETQUERYOPT
?RMSG_CHARTMAIN@@3IB DD 01H DUP (?)			; RMSG_CHARTMAIN
?RMS_ANALYSIS_FUNC@@3IB DD 01H DUP (?)			; RMS_ANALYSIS_FUNC
?RMSG_GET_USERID@@3IB DD 01H DUP (?)			; RMSG_GET_USERID
?RMSG_CHANGE_SKINCOLOR@@3IB DD 01H DUP (?)		; RMSG_CHANGE_SKINCOLOR
?RMSG_GET_SKINCOLOR@@3IB DD 01H DUP (?)			; RMSG_GET_SKINCOLOR
?RMSG_CHANGEVERTSCALETYPE@@3IB DD 01H DUP (?)		; RMSG_CHANGEVERTSCALETYPE
?RMSG_CHANGE_CROSSLINE@@3IB DD 01H DUP (?)		; RMSG_CHANGE_CROSSLINE
?RMSG_ADD_PLATFORM_MENU@@3IB DD 01H DUP (?)		; RMSG_ADD_PLATFORM_MENU
?RMSG_SETINITIALCHARTDATA@@3IB DD 01H DUP (?)		; RMSG_SETINITIALCHARTDATA
?RMSG_GETINFO@@3IB DD 01H DUP (?)			; RMSG_GETINFO
?RMSG_SETINFO@@3IB DD 01H DUP (?)			; RMSG_SETINFO
?RMSG_INTERFACE@@3IB DD 01H DUP (?)			; RMSG_INTERFACE
?RMSG_GETPCTRDATA@@3IB DD 01H DUP (?)			; RMSG_GETPCTRDATA
?RMSG_SETPCTRDATA@@3IB DD 01H DUP (?)			; RMSG_SETPCTRDATA
?RMSG_GETDLLSIZE@@3IB DD 01H DUP (?)			; RMSG_GETDLLSIZE
?RMSG_SETDLLSIZE@@3IB DD 01H DUP (?)			; RMSG_SETDLLSIZE
?RMSG_STDATAMANAGER_RESULTDATA@@3IB DD 01H DUP (?)	; RMSG_STDATAMANAGER_RESULTDATA
_BSS	ENDS
CRT$XCU	SEGMENT
?RMSG_GETSIGNAL_REAL$initializer$@@3P6AXXZA DD FLAT:??__ERMSG_GETSIGNAL_REAL@@YAXXZ ; RMSG_GETSIGNAL_REAL$initializer$
CRT$XCU	ENDS
;	COMDAT __real@3ff0000000000000
CONST	SEGMENT
__real@3ff0000000000000 DQ 03ff0000000000000r	; 1
CONST	ENDS
;	COMDAT __real@3fe0000000000000
CONST	SEGMENT
__real@3fe0000000000000 DQ 03fe0000000000000r	; 0.5
CONST	ENDS
;	COMDAT __real@0000000000000000
CONST	SEGMENT
__real@0000000000000000 DQ 00000000000000000r	; 0
CONST	ENDS
;	COMDAT ??_R1A@?0A@EA@?$CArray@UST_DATAINDEX@@U1@@@8
rdata$r	SEGMENT
??_R1A@?0A@EA@?$CArray@UST_DATAINDEX@@U1@@@8 DD FLAT:??_R0?AV?$CArray@UST_DATAINDEX@@U1@@@@8 ; CArray<ST_DATAINDEX,ST_DATAINDEX>::`RTTI Base Class Descriptor at (0,-1,0,64)'
	DD	01H
	DD	00H
	DD	0ffffffffH
	DD	00H
	DD	040H
	DD	FLAT:??_R3?$CArray@UST_DATAINDEX@@U1@@@8
rdata$r	ENDS
;	COMDAT ??_R2?$CArray@UST_DATAINDEX@@U1@@@8
rdata$r	SEGMENT
??_R2?$CArray@UST_DATAINDEX@@U1@@@8 DD FLAT:??_R1A@?0A@EA@?$CArray@UST_DATAINDEX@@U1@@@8 ; CArray<ST_DATAINDEX,ST_DATAINDEX>::`RTTI Base Class Array'
	DD	FLAT:??_R1A@?0A@EA@CObject@@8
rdata$r	ENDS
;	COMDAT ??_R3?$CArray@UST_DATAINDEX@@U1@@@8
rdata$r	SEGMENT
??_R3?$CArray@UST_DATAINDEX@@U1@@@8 DD 00H		; CArray<ST_DATAINDEX,ST_DATAINDEX>::`RTTI Class Hierarchy Descriptor'
	DD	00H
	DD	02H
	DD	FLAT:??_R2?$CArray@UST_DATAINDEX@@U1@@@8
rdata$r	ENDS
;	COMDAT ??_R0?AV?$CArray@UST_DATAINDEX@@U1@@@@8
data$rs	SEGMENT
??_R0?AV?$CArray@UST_DATAINDEX@@U1@@@@8 DD FLAT:??_7type_info@@6B@ ; CArray<ST_DATAINDEX,ST_DATAINDEX> `RTTI Type Descriptor'
	DD	00H
	DB	'.?AV?$CArray@UST_DATAINDEX@@U1@@@', 00H
data$rs	ENDS
;	COMDAT ??_R4?$CArray@UST_DATAINDEX@@U1@@@6B@
rdata$r	SEGMENT
??_R4?$CArray@UST_DATAINDEX@@U1@@@6B@ DD 00H		; CArray<ST_DATAINDEX,ST_DATAINDEX>::`RTTI Complete Object Locator'
	DD	00H
	DD	00H
	DD	FLAT:??_R0?AV?$CArray@UST_DATAINDEX@@U1@@@@8
	DD	FLAT:??_R3?$CArray@UST_DATAINDEX@@U1@@@8
rdata$r	ENDS
;	COMDAT ??_R1A@?0A@EA@CDlgAnalysis@@8
rdata$r	SEGMENT
??_R1A@?0A@EA@CDlgAnalysis@@8 DD FLAT:??_R0?AVCDlgAnalysis@@@8 ; CDlgAnalysis::`RTTI Base Class Descriptor at (0,-1,0,64)'
	DD	05H
	DD	00H
	DD	0ffffffffH
	DD	00H
	DD	040H
	DD	FLAT:??_R3CDlgAnalysis@@8
rdata$r	ENDS
;	COMDAT ??_R2CDlgAnalysis@@8
rdata$r	SEGMENT
??_R2CDlgAnalysis@@8 DD FLAT:??_R1A@?0A@EA@CDlgAnalysis@@8 ; CDlgAnalysis::`RTTI Base Class Array'
	DD	FLAT:??_R1A@?0A@EA@CEscDialog@@8
	DD	FLAT:??_R1A@?0A@EA@CDialog@@8
	DD	FLAT:??_R1A@?0A@EA@CWnd@@8
	DD	FLAT:??_R1A@?0A@EA@CCmdTarget@@8
	DD	FLAT:??_R1A@?0A@EA@CObject@@8
rdata$r	ENDS
;	COMDAT ??_R3CDlgAnalysis@@8
rdata$r	SEGMENT
??_R3CDlgAnalysis@@8 DD 00H				; CDlgAnalysis::`RTTI Class Hierarchy Descriptor'
	DD	00H
	DD	06H
	DD	FLAT:??_R2CDlgAnalysis@@8
rdata$r	ENDS
;	COMDAT ??_R0?AVCDlgAnalysis@@@8
data$rs	SEGMENT
??_R0?AVCDlgAnalysis@@@8 DD FLAT:??_7type_info@@6B@	; CDlgAnalysis `RTTI Type Descriptor'
	DD	00H
	DB	'.?AVCDlgAnalysis@@', 00H
data$rs	ENDS
;	COMDAT ??_R4CDlgAnalysis@@6B@
rdata$r	SEGMENT
??_R4CDlgAnalysis@@6B@ DD 00H				; CDlgAnalysis::`RTTI Complete Object Locator'
	DD	00H
	DD	00H
	DD	FLAT:??_R0?AVCDlgAnalysis@@@8
	DD	FLAT:??_R3CDlgAnalysis@@8
rdata$r	ENDS
;	COMDAT ??_C@_07BBHKEGCN@?2STDATA@
CONST	SEGMENT
??_C@_07BBHKEGCN@?2STDATA@ DB '\STDATA', 00H		; `string'
CONST	ENDS
;	COMDAT ??_C@_01JLIPDDHJ@?3@
CONST	SEGMENT
??_C@_01JLIPDDHJ@?3@ DB ':', 00H			; `string'
CONST	ENDS
;	COMDAT ??_C@_06ODLOODK@?$CGnbsp?$DL@
CONST	SEGMENT
??_C@_06ODLOODK@?$CGnbsp?$DL@ DB '&nbsp;', 00H		; `string'
CONST	ENDS
;	COMDAT ??_C@_05MGFEFMAH@?$FL?$CFs?$FN?6@
CONST	SEGMENT
??_C@_05MGFEFMAH@?$FL?$CFs?$FN?6@ DB '[%s]', 0aH, 00H	; `string'
CONST	ENDS
;	COMDAT ??_C@_0BB@DJEEEOLH@?$FL?$CF02d?3?$CF02d?3?$CF02d?$FN@
CONST	SEGMENT
??_C@_0BB@DJEEEOLH@?$FL?$CF02d?3?$CF02d?3?$CF02d?$FN@ DB '[%02d:%02d:%02d'
	DB	']', 00H					; `string'
CONST	ENDS
;	COMDAT ??_C@_0BF@BHAIFGLJ@c?3?2Logs?2?$LM?$LK?$LA?z?$LK?P?$LM?$KO?4txt@
CONST	SEGMENT
??_C@_0BF@BHAIFGLJ@c?3?2Logs?2?$LM?$LK?$LA?z?$LK?P?$LM?$KO?4txt@ DB 'c:\L'
	DB	'ogs\', 0bcH, 0baH, 0b0H, 0faH, 0baH, 0d0H, 0bcH, 0aeH, '.txt', 00H ; `string'
CONST	ENDS
;	COMDAT ??_C@_03CCGKKFHG@a?$CLt@
CONST	SEGMENT
??_C@_03CCGKKFHG@a?$CLt@ DB 'a+t', 00H			; `string'
CONST	ENDS
;	COMDAT ??_C@_0BC@CBMEJKFM@?$LN?B?$LH?$PM?3?$CFs?5?$LI?E?$LI?E?$LM?v?3?$CFs@
CONST	SEGMENT
??_C@_0BC@CBMEJKFM@?$LN?B?$LH?$PM?3?$CFs?5?$LI?E?$LI?E?$LM?v?3?$CFs@ DB 0bdH
	DB	0c2H, 0b7H, 0fcH, ':%s ', 0b8H, 0c5H, 0b8H, 0c5H, 0bcH, 0f6H, ':'
	DB	'%s', 00H					; `string'
CONST	ENDS
;	COMDAT ??_C@_08LFHKPNLG@?$LE?$KJ?$MA?$PL?3?$CFs?5@
CONST	SEGMENT
??_C@_08LFHKPNLG@?$LE?$KJ?$MA?$PL?3?$CFs?5@ DB 0b4H, 0a9H, 0c0H, 0fbH, ':'
	DB	'%s ', 00H					; `string'
CONST	ENDS
;	COMDAT ??_C@_04GHNNFJCK@?$CF?40f@
CONST	SEGMENT
??_C@_04GHNNFJCK@?$CF?40f@ DB '%.0f', 00H		; `string'
CONST	ENDS
;	COMDAT ??_C@_04GEFJINEE@?$CF?42f@
CONST	SEGMENT
??_C@_04GEFJINEE@?$CF?42f@ DB '%.2f', 00H		; `string'
CONST	ENDS
;	COMDAT ??_C@_01NBENCBCI@?$CK@
CONST	SEGMENT
??_C@_01NBENCBCI@?$CK@ DB '*', 00H			; `string'
CONST	ENDS
;	COMDAT ??_C@_04MHOBIAIL@?$MA?$PM?C?$LM@
CONST	SEGMENT
??_C@_04MHOBIAIL@?$MA?$PM?C?$LM@ DB 0c0H, 0fcH, 0c3H, 0bcH, 00H ; `string'
CONST	ENDS
;	COMDAT ??_C@_0L@FEICBMFP@?2STData?2SD@
CONST	SEGMENT
??_C@_0L@FEICBMFP@?2STData?2SD@ DB '\STData\SD', 00H	; `string'
CONST	ENDS
;	COMDAT ??_C@_0CJ@JEPCLFOC@?A?$LO?$LI?q?$LI?m?$MA?L?$LD?$KK?5?$MA?$PM?$LH?$KL?$LI?m?$MA?L?5?$LM?$LB?E?C?$LF?G?A?v?5?$LO?J@
CONST	SEGMENT
??_C@_0CJ@JEPCLFOC@?A?$LO?$LI?q?$LI?m?$MA?L?$LD?$KK?5?$MA?$PM?$LH?$KL?$LI?m?$MA?L?5?$LM?$LB?E?C?$LF?G?A?v?5?$LO?J@ DB 0c1H
	DB	0beH, 0b8H, 0f1H, 0b8H, 0edH, 0c0H, 0ccH, 0b3H, 0aaH, ' ', 0c0H
	DB	0fcH, 0b7H, 0abH, 0b8H, 0edH, 0c0H, 0ccH, ' ', 0bcH, 0b1H, 0c5H
	DB	0c3H, 0b5H, 0c7H, 0c1H, 0f6H, ' ', 0beH, 0caH, 0beH, 0d2H, 0bdH
	DB	0c0H, 0b4H, 0cfH, 0b4H, 0d9H, '.', 00H	; `string'
CONST	ENDS
;	COMDAT ?messageMap@?1??GetThisMessageMap@CDlgAnalysis@@KGPBUAFX_MSGMAP@@XZ@4U3@B
CONST	SEGMENT
?messageMap@?1??GetThisMessageMap@CDlgAnalysis@@KGPBUAFX_MSGMAP@@XZ@4U3@B DD FLAT:?GetThisMessageMap@CDialog@@KGPBUAFX_MSGMAP@@XZ ; `CDlgAnalysis::GetThisMessageMap'::`2'::messageMap
	DD	FLAT:?_messageEntries@?1??GetThisMessageMap@CDlgAnalysis@@KGPBUAFX_MSGMAP@@XZ@4QBUAFX_MSGMAP_ENTRY@@B
CONST	ENDS
;	COMDAT ?_messageEntries@?1??GetThisMessageMap@CDlgAnalysis@@KGPBUAFX_MSGMAP@@XZ@4QBUAFX_MSGMAP_ENTRY@@B
CONST	SEGMENT
?_messageEntries@?1??GetThisMessageMap@CDlgAnalysis@@KGPBUAFX_MSGMAP@@XZ@4QBUAFX_MSGMAP_ENTRY@@B DD 02H ; `CDlgAnalysis::GetThisMessageMap'::`2'::_messageEntries
	DD	00H
	DD	00H
	DD	00H
	DD	013H
	DD	FLAT:?OnDestroy@CDlgAnalysis@@IAEXXZ
	DD	0c000H
	DD	00H
	DD	00H
	DD	00H
	DD	FLAT:?RMSG_GETDLLSIZE@@3IB
	DD	FLAT:?OnGetDllSize@CDlgAnalysis@@IAEJIJ@Z
	DD	0c000H
	DD	00H
	DD	00H
	DD	00H
	DD	FLAT:?RMSG_STDATAMANAGER_RESULTDATA@@3IB
	DD	FLAT:?OnSTDataManagerMessagge@CDlgAnalysis@@IAEJIJ@Z
	DD	018H
	DD	00H
	DD	00H
	DD	00H
	DD	016H
	DD	FLAT:?OnShowWindow@CDlgAnalysis@@QAEXHI@Z
	DD	0113H
	DD	00H
	DD	00H
	DD	00H
	DD	015H
	DD	FLAT:?OnTimer@CDlgAnalysis@@QAEXI@Z
	DD	019H
	DD	00H
	DD	00H
	DD	00H
	DD	08H
	DD	FLAT:?OnCtlColor@CDlgAnalysis@@QAEPAUHBRUSH__@@PAVCDC@@PAVCWnd@@I@Z
	DD	00H
	DD	00H
	DD	00H
	DD	00H
	DD	00H
	DD	00H
CONST	ENDS
;	COMDAT ??_7CDlgAnalysis@@6B@
CONST	SEGMENT
??_7CDlgAnalysis@@6B@ DD FLAT:??_R4CDlgAnalysis@@6B@	; CDlgAnalysis::`vftable'
	DD	FLAT:?GetRuntimeClass@CDialog@@UBEPAUCRuntimeClass@@XZ
	DD	FLAT:??_ECDlgAnalysis@@UAEPAXI@Z
	DD	FLAT:?Serialize@CObject@@UAEXAAVCArchive@@@Z
	DD	FLAT:?AssertValid@CObject@@UBEXXZ
	DD	FLAT:?Dump@CObject@@UBEXAAVCDumpContext@@@Z
	DD	FLAT:?OnCmdMsg@CDialog@@UAEHIHPAXPAUAFX_CMDHANDLERINFO@@@Z
	DD	FLAT:?OnFinalRelease@CWnd@@UAEXXZ
	DD	FLAT:?IsInvokeAllowed@CCmdTarget@@UAEHJ@Z
	DD	FLAT:?GetDispatchIID@CCmdTarget@@UAEHPAU_GUID@@@Z
	DD	FLAT:?GetTypeInfoCount@CCmdTarget@@UAEIXZ
	DD	FLAT:?GetTypeLibCache@CCmdTarget@@UAEPAVCTypeLibCache@@XZ
	DD	FLAT:?GetTypeLib@CCmdTarget@@UAEJKPAPAUITypeLib@@@Z
	DD	FLAT:?GetMessageMap@CDlgAnalysis@@MBEPBUAFX_MSGMAP@@XZ
	DD	FLAT:?GetCommandMap@CCmdTarget@@MBEPBUAFX_OLECMDMAP@@XZ
	DD	FLAT:?GetDispatchMap@CCmdTarget@@MBEPBUAFX_DISPMAP@@XZ
	DD	FLAT:?GetConnectionMap@CCmdTarget@@MBEPBUAFX_CONNECTIONMAP@@XZ
	DD	FLAT:?GetInterfaceMap@CWnd@@MBEPBUAFX_INTERFACEMAP@@XZ
	DD	FLAT:?GetEventSinkMap@CCmdTarget@@MBEPBUAFX_EVENTSINKMAP@@XZ
	DD	FLAT:?OnCreateAggregates@CCmdTarget@@UAEHXZ
	DD	FLAT:?GetInterfaceHook@CCmdTarget@@UAEPAUIUnknown@@PBX@Z
	DD	FLAT:?GetExtraConnectionPoints@CCmdTarget@@MAEHPAVCPtrArray@@@Z
	DD	FLAT:?GetConnectionHook@CCmdTarget@@MAEPAUIConnectionPoint@@ABU_GUID@@@Z
	DD	FLAT:?PreSubclassWindow@CWnd@@UAEXXZ
	DD	FLAT:?Create@CWnd@@UAEHPBD0KABUtagRECT@@PAV1@IPAUCCreateContext@@@Z
	DD	FLAT:?CreateEx@CWnd@@UAEHKPBD0KABUtagRECT@@PAV1@IPAX@Z
	DD	FLAT:?CreateEx@CWnd@@UAEHKPBD0KHHHHPAUHWND__@@PAUHMENU__@@PAX@Z
	DD	FLAT:?DestroyWindow@CWnd@@UAEHXZ
	DD	FLAT:?PreCreateWindow@CWnd@@UAEHAAUtagCREATESTRUCTA@@@Z
	DD	FLAT:?CalcWindowRect@CWnd@@UAEXPAUtagRECT@@I@Z
	DD	FLAT:?GetMenu@CWnd@@UBEPAVCMenu@@XZ
	DD	FLAT:?SetMenu@CWnd@@UAEHPAVCMenu@@@Z
	DD	FLAT:?OnToolHitTest@CWnd@@UBEHVCPoint@@PAUtagTOOLINFOA@@@Z
	DD	FLAT:?GetScrollBarCtrl@CWnd@@UBEPAVCScrollBar@@H@Z
	DD	FLAT:?WinHelpA@CWnd@@UAEXKI@Z
	DD	FLAT:?HtmlHelpA@CWnd@@UAEXKI@Z
	DD	FLAT:?WinHelpInternal@CWnd@@UAEXKI@Z
	DD	FLAT:?ContinueModal@CWnd@@UAEHXZ
	DD	FLAT:?EndModalLoop@CWnd@@UAEXH@Z
	DD	FLAT:?OnDrawIconicThumbnailOrLivePreview@CWnd@@UAEXAAVCDC@@VCRect@@VCSize@@HAAH@Z
	DD	FLAT:?EnsureStdObj@CWnd@@UAEJXZ
	DD	FLAT:?get_accParent@CWnd@@UAEJPAPAUIDispatch@@@Z
	DD	FLAT:?get_accChildCount@CWnd@@UAEJPAJ@Z
	DD	FLAT:?get_accChild@CWnd@@UAEJUtagVARIANT@@PAPAUIDispatch@@@Z
	DD	FLAT:?get_accName@CWnd@@UAEJUtagVARIANT@@PAPA_W@Z
	DD	FLAT:?get_accValue@CWnd@@UAEJUtagVARIANT@@PAPA_W@Z
	DD	FLAT:?get_accDescription@CWnd@@UAEJUtagVARIANT@@PAPA_W@Z
	DD	FLAT:?get_accRole@CWnd@@UAEJUtagVARIANT@@PAU2@@Z
	DD	FLAT:?get_accState@CWnd@@UAEJUtagVARIANT@@PAU2@@Z
	DD	FLAT:?get_accHelp@CWnd@@UAEJUtagVARIANT@@PAPA_W@Z
	DD	FLAT:?get_accHelpTopic@CWnd@@UAEJPAPA_WUtagVARIANT@@PAJ@Z
	DD	FLAT:?get_accKeyboardShortcut@CWnd@@UAEJUtagVARIANT@@PAPA_W@Z
	DD	FLAT:?get_accFocus@CWnd@@UAEJPAUtagVARIANT@@@Z
	DD	FLAT:?get_accSelection@CWnd@@UAEJPAUtagVARIANT@@@Z
	DD	FLAT:?get_accDefaultAction@CWnd@@UAEJUtagVARIANT@@PAPA_W@Z
	DD	FLAT:?accSelect@CWnd@@UAEJJUtagVARIANT@@@Z
	DD	FLAT:?accLocation@CWnd@@UAEJPAJ000UtagVARIANT@@@Z
	DD	FLAT:?accNavigate@CWnd@@UAEJJUtagVARIANT@@PAU2@@Z
	DD	FLAT:?accHitTest@CWnd@@UAEJJJPAUtagVARIANT@@@Z
	DD	FLAT:?accDoDefaultAction@CWnd@@UAEJUtagVARIANT@@@Z
	DD	FLAT:?put_accName@CWnd@@UAEJUtagVARIANT@@PA_W@Z
	DD	FLAT:?put_accValue@CWnd@@UAEJUtagVARIANT@@PA_W@Z
	DD	FLAT:?SetProxy@CWnd@@UAEJPAUIAccessibleProxy@@@Z
	DD	FLAT:?CreateAccessibleProxy@CWnd@@UAEJIJPAJ@Z
	DD	FLAT:?OnCommand@CWnd@@MAEHIJ@Z
	DD	FLAT:?OnNotify@CWnd@@MAEHIJPAJ@Z
	DD	FLAT:?GetSuperWndProcAddr@CWnd@@MAEPAP6GJPAUHWND__@@IIJ@ZXZ
	DD	FLAT:?DoDataExchange@CDlgAnalysis@@MAEXPAVCDataExchange@@@Z
	DD	FLAT:?BeginModalState@CWnd@@UAEXXZ
	DD	FLAT:?EndModalState@CWnd@@UAEXXZ
	DD	FLAT:?PreTranslateMessage@CEscDialog@@MAEHPAUtagMSG@@@Z
	DD	FLAT:?OnAmbientProperty@CWnd@@UAEHPAVCOleControlSite@@JPAUtagVARIANT@@@Z
	DD	FLAT:?WindowProc@CWnd@@MAEJIIJ@Z
	DD	FLAT:?OnWndMsg@CWnd@@MAEHIIJPAJ@Z
	DD	FLAT:?DefWindowProcA@CWnd@@MAEJIIJ@Z
	DD	FLAT:?PostNcDestroy@CWnd@@MAEXXZ
	DD	FLAT:?OnChildNotify@CWnd@@MAEHIIJPAJ@Z
	DD	FLAT:?OnTouchInputs@CWnd@@MAEHIPAUtagTOUCHINPUT@@@Z
	DD	FLAT:?OnTouchInput@CWnd@@MAEHVCPoint@@HHPAUtagTOUCHINPUT@@@Z
	DD	FLAT:?GetGestureStatus@CWnd@@MAEKVCPoint@@@Z
	DD	FLAT:?OnGestureZoom@CWnd@@MAEHVCPoint@@J@Z
	DD	FLAT:?OnGesturePan@CWnd@@MAEHVCPoint@@0@Z
	DD	FLAT:?OnGestureRotate@CWnd@@MAEHVCPoint@@N@Z
	DD	FLAT:?OnGestureTwoFingerTap@CWnd@@MAEHVCPoint@@@Z
	DD	FLAT:?OnGesturePressAndTap@CWnd@@MAEHVCPoint@@J@Z
	DD	FLAT:?ResizeDynamicLayout@CWnd@@MAEXXZ
	DD	FLAT:?CheckAutoCenter@CDialog@@UAEHXZ
	DD	FLAT:?IsFrameWnd@CWnd@@UBEHXZ
	DD	FLAT:?CreateControlContainer@CWnd@@MAEHPAPAVCOleControlContainer@@@Z
	DD	FLAT:?CreateControlSite@CWnd@@MAEHPAVCOleControlContainer@@PAPAVCOleControlSite@@IABU_GUID@@@Z
	DD	FLAT:?SetOccDialogInfo@CDialog@@MAEHPAU_AFX_OCC_DIALOG_INFO@@@Z
	DD	FLAT:?GetOccDialogInfo@CDialog@@MAEPAU_AFX_OCC_DIALOG_INFO@@XZ
	DD	FLAT:?Create@CDialog@@UAEHIPAVCWnd@@@Z
	DD	FLAT:?Create@CDialog@@UAEHPBDPAVCWnd@@@Z
	DD	FLAT:?CreateIndirect@CDialog@@UAEHPAXPAVCWnd@@@Z
	DD	FLAT:?CreateIndirect@CDialog@@UAEHPBUDLGTEMPLATE@@PAVCWnd@@PAX@Z
	DD	FLAT:?DoModal@CDialog@@UAEHXZ
	DD	FLAT:?OnInitDialog@CDlgAnalysis@@MAEHXZ
	DD	FLAT:?OnSetFont@CDialog@@UAEXPAVCFont@@@Z
	DD	FLAT:?OnOK@CDialog@@MAEXXZ
	DD	FLAT:?OnCancel@CDlgAnalysis@@MAEXXZ
	DD	FLAT:?PreInitDialog@CDialog@@MAEXXZ
CONST	ENDS
;	COMDAT ??_7?$CArray@UST_DATAINDEX@@U1@@@6B@
CONST	SEGMENT
??_7?$CArray@UST_DATAINDEX@@U1@@@6B@ DD FLAT:??_R4?$CArray@UST_DATAINDEX@@U1@@@6B@ ; CArray<ST_DATAINDEX,ST_DATAINDEX>::`vftable'
	DD	FLAT:?GetRuntimeClass@CObject@@UBEPAUCRuntimeClass@@XZ
	DD	FLAT:??_E?$CArray@UST_DATAINDEX@@U1@@@UAEPAXI@Z
	DD	FLAT:?Serialize@?$CArray@UST_DATAINDEX@@U1@@@UAEXAAVCArchive@@@Z
	DD	FLAT:?AssertValid@CObject@@UBEXXZ
	DD	FLAT:?Dump@CObject@@UBEXAAVCDumpContext@@@Z
CONST	ENDS
;	COMDAT ??_R1A@?0A@EA@CEscDialog@@8
rdata$r	SEGMENT
??_R1A@?0A@EA@CEscDialog@@8 DD FLAT:??_R0?AVCEscDialog@@@8 ; CEscDialog::`RTTI Base Class Descriptor at (0,-1,0,64)'
	DD	04H
	DD	00H
	DD	0ffffffffH
	DD	00H
	DD	040H
	DD	FLAT:??_R3CEscDialog@@8
rdata$r	ENDS
;	COMDAT ??_R2CEscDialog@@8
rdata$r	SEGMENT
??_R2CEscDialog@@8 DD FLAT:??_R1A@?0A@EA@CEscDialog@@8	; CEscDialog::`RTTI Base Class Array'
	DD	FLAT:??_R1A@?0A@EA@CDialog@@8
	DD	FLAT:??_R1A@?0A@EA@CWnd@@8
	DD	FLAT:??_R1A@?0A@EA@CCmdTarget@@8
	DD	FLAT:??_R1A@?0A@EA@CObject@@8
rdata$r	ENDS
;	COMDAT ??_R3CEscDialog@@8
rdata$r	SEGMENT
??_R3CEscDialog@@8 DD 00H				; CEscDialog::`RTTI Class Hierarchy Descriptor'
	DD	00H
	DD	05H
	DD	FLAT:??_R2CEscDialog@@8
rdata$r	ENDS
;	COMDAT ??_R0?AVCEscDialog@@@8
data$rs	SEGMENT
??_R0?AVCEscDialog@@@8 DD FLAT:??_7type_info@@6B@	; CEscDialog `RTTI Type Descriptor'
	DD	00H
	DB	'.?AVCEscDialog@@', 00H
data$rs	ENDS
;	COMDAT ??_R4CEscDialog@@6B@
rdata$r	SEGMENT
??_R4CEscDialog@@6B@ DD 00H				; CEscDialog::`RTTI Complete Object Locator'
	DD	00H
	DD	00H
	DD	FLAT:??_R0?AVCEscDialog@@@8
	DD	FLAT:??_R3CEscDialog@@8
rdata$r	ENDS
;	COMDAT ??_R2CDialog@@8
rdata$r	SEGMENT
??_R2CDialog@@8 DD FLAT:??_R1A@?0A@EA@CDialog@@8	; CDialog::`RTTI Base Class Array'
	DD	FLAT:??_R1A@?0A@EA@CWnd@@8
	DD	FLAT:??_R1A@?0A@EA@CCmdTarget@@8
	DD	FLAT:??_R1A@?0A@EA@CObject@@8
rdata$r	ENDS
;	COMDAT ??_R3CDialog@@8
rdata$r	SEGMENT
??_R3CDialog@@8 DD 00H					; CDialog::`RTTI Class Hierarchy Descriptor'
	DD	00H
	DD	04H
	DD	FLAT:??_R2CDialog@@8
rdata$r	ENDS
;	COMDAT ??_R0?AVCDialog@@@8
data$rs	SEGMENT
??_R0?AVCDialog@@@8 DD FLAT:??_7type_info@@6B@		; CDialog `RTTI Type Descriptor'
	DD	00H
	DB	'.?AVCDialog@@', 00H
data$rs	ENDS
;	COMDAT ??_R1A@?0A@EA@CDialog@@8
rdata$r	SEGMENT
??_R1A@?0A@EA@CDialog@@8 DD FLAT:??_R0?AVCDialog@@@8	; CDialog::`RTTI Base Class Descriptor at (0,-1,0,64)'
	DD	03H
	DD	00H
	DD	0ffffffffH
	DD	00H
	DD	040H
	DD	FLAT:??_R3CDialog@@8
rdata$r	ENDS
;	COMDAT ??_R2CCmdTarget@@8
rdata$r	SEGMENT
??_R2CCmdTarget@@8 DD FLAT:??_R1A@?0A@EA@CCmdTarget@@8	; CCmdTarget::`RTTI Base Class Array'
	DD	FLAT:??_R1A@?0A@EA@CObject@@8
rdata$r	ENDS
;	COMDAT ??_R3CCmdTarget@@8
rdata$r	SEGMENT
??_R3CCmdTarget@@8 DD 00H				; CCmdTarget::`RTTI Class Hierarchy Descriptor'
	DD	00H
	DD	02H
	DD	FLAT:??_R2CCmdTarget@@8
rdata$r	ENDS
;	COMDAT ??_R0?AVCCmdTarget@@@8
data$rs	SEGMENT
??_R0?AVCCmdTarget@@@8 DD FLAT:??_7type_info@@6B@	; CCmdTarget `RTTI Type Descriptor'
	DD	00H
	DB	'.?AVCCmdTarget@@', 00H
data$rs	ENDS
;	COMDAT ??_R1A@?0A@EA@CCmdTarget@@8
rdata$r	SEGMENT
??_R1A@?0A@EA@CCmdTarget@@8 DD FLAT:??_R0?AVCCmdTarget@@@8 ; CCmdTarget::`RTTI Base Class Descriptor at (0,-1,0,64)'
	DD	01H
	DD	00H
	DD	0ffffffffH
	DD	00H
	DD	040H
	DD	FLAT:??_R3CCmdTarget@@8
rdata$r	ENDS
;	COMDAT ??_R2CWnd@@8
rdata$r	SEGMENT
??_R2CWnd@@8 DD	FLAT:??_R1A@?0A@EA@CWnd@@8		; CWnd::`RTTI Base Class Array'
	DD	FLAT:??_R1A@?0A@EA@CCmdTarget@@8
	DD	FLAT:??_R1A@?0A@EA@CObject@@8
rdata$r	ENDS
;	COMDAT ??_R3CWnd@@8
rdata$r	SEGMENT
??_R3CWnd@@8 DD	00H					; CWnd::`RTTI Class Hierarchy Descriptor'
	DD	00H
	DD	03H
	DD	FLAT:??_R2CWnd@@8
rdata$r	ENDS
;	COMDAT ??_R0?AVCWnd@@@8
data$rs	SEGMENT
??_R0?AVCWnd@@@8 DD FLAT:??_7type_info@@6B@		; CWnd `RTTI Type Descriptor'
	DD	00H
	DB	'.?AVCWnd@@', 00H
data$rs	ENDS
;	COMDAT ??_R1A@?0A@EA@CWnd@@8
rdata$r	SEGMENT
??_R1A@?0A@EA@CWnd@@8 DD FLAT:??_R0?AVCWnd@@@8		; CWnd::`RTTI Base Class Descriptor at (0,-1,0,64)'
	DD	02H
	DD	00H
	DD	0ffffffffH
	DD	00H
	DD	040H
	DD	FLAT:??_R3CWnd@@8
rdata$r	ENDS
;	COMDAT ??_R1A@?0A@EA@CBrush@@8
rdata$r	SEGMENT
??_R1A@?0A@EA@CBrush@@8 DD FLAT:??_R0?AVCBrush@@@8	; CBrush::`RTTI Base Class Descriptor at (0,-1,0,64)'
	DD	02H
	DD	00H
	DD	0ffffffffH
	DD	00H
	DD	040H
	DD	FLAT:??_R3CBrush@@8
rdata$r	ENDS
;	COMDAT ??_R2CBrush@@8
rdata$r	SEGMENT
??_R2CBrush@@8 DD FLAT:??_R1A@?0A@EA@CBrush@@8		; CBrush::`RTTI Base Class Array'
	DD	FLAT:??_R1A@?0A@EA@CGdiObject@@8
	DD	FLAT:??_R1A@?0A@EA@CObject@@8
rdata$r	ENDS
;	COMDAT ??_R3CBrush@@8
rdata$r	SEGMENT
??_R3CBrush@@8 DD 00H					; CBrush::`RTTI Class Hierarchy Descriptor'
	DD	00H
	DD	03H
	DD	FLAT:??_R2CBrush@@8
rdata$r	ENDS
;	COMDAT ??_R0?AVCBrush@@@8
data$rs	SEGMENT
??_R0?AVCBrush@@@8 DD FLAT:??_7type_info@@6B@		; CBrush `RTTI Type Descriptor'
	DD	00H
	DB	'.?AVCBrush@@', 00H
data$rs	ENDS
;	COMDAT ??_R4CBrush@@6B@
rdata$r	SEGMENT
??_R4CBrush@@6B@ DD 00H					; CBrush::`RTTI Complete Object Locator'
	DD	00H
	DD	00H
	DD	FLAT:??_R0?AVCBrush@@@8
	DD	FLAT:??_R3CBrush@@8
rdata$r	ENDS
;	COMDAT ??_R1A@?0A@EA@CGdiObject@@8
rdata$r	SEGMENT
??_R1A@?0A@EA@CGdiObject@@8 DD FLAT:??_R0?AVCGdiObject@@@8 ; CGdiObject::`RTTI Base Class Descriptor at (0,-1,0,64)'
	DD	01H
	DD	00H
	DD	0ffffffffH
	DD	00H
	DD	040H
	DD	FLAT:??_R3CGdiObject@@8
rdata$r	ENDS
;	COMDAT ??_R2CGdiObject@@8
rdata$r	SEGMENT
??_R2CGdiObject@@8 DD FLAT:??_R1A@?0A@EA@CGdiObject@@8	; CGdiObject::`RTTI Base Class Array'
	DD	FLAT:??_R1A@?0A@EA@CObject@@8
rdata$r	ENDS
;	COMDAT ??_R3CGdiObject@@8
rdata$r	SEGMENT
??_R3CGdiObject@@8 DD 00H				; CGdiObject::`RTTI Class Hierarchy Descriptor'
	DD	00H
	DD	02H
	DD	FLAT:??_R2CGdiObject@@8
rdata$r	ENDS
;	COMDAT ??_R0?AVCGdiObject@@@8
data$rs	SEGMENT
??_R0?AVCGdiObject@@@8 DD FLAT:??_7type_info@@6B@	; CGdiObject `RTTI Type Descriptor'
	DD	00H
	DB	'.?AVCGdiObject@@', 00H
data$rs	ENDS
;	COMDAT ??_R4CGdiObject@@6B@
rdata$r	SEGMENT
??_R4CGdiObject@@6B@ DD 00H				; CGdiObject::`RTTI Complete Object Locator'
	DD	00H
	DD	00H
	DD	FLAT:??_R0?AVCGdiObject@@@8
	DD	FLAT:??_R3CGdiObject@@8
rdata$r	ENDS
;	COMDAT ??_R1A@?0A@EA@CObject@@8
rdata$r	SEGMENT
??_R1A@?0A@EA@CObject@@8 DD FLAT:??_R0?AVCObject@@@8	; CObject::`RTTI Base Class Descriptor at (0,-1,0,64)'
	DD	00H
	DD	00H
	DD	0ffffffffH
	DD	00H
	DD	040H
	DD	FLAT:??_R3CObject@@8
rdata$r	ENDS
;	COMDAT ??_R2CObject@@8
rdata$r	SEGMENT
??_R2CObject@@8 DD FLAT:??_R1A@?0A@EA@CObject@@8	; CObject::`RTTI Base Class Array'
rdata$r	ENDS
;	COMDAT ??_R3CObject@@8
rdata$r	SEGMENT
??_R3CObject@@8 DD 00H					; CObject::`RTTI Class Hierarchy Descriptor'
	DD	00H
	DD	01H
	DD	FLAT:??_R2CObject@@8
rdata$r	ENDS
;	COMDAT ??_R0?AVCObject@@@8
data$rs	SEGMENT
??_R0?AVCObject@@@8 DD FLAT:??_7type_info@@6B@		; CObject `RTTI Type Descriptor'
	DD	00H
	DB	'.?AVCObject@@', 00H
data$rs	ENDS
;	COMDAT ??_7CEscDialog@@6B@
CONST	SEGMENT
??_7CEscDialog@@6B@ DD FLAT:??_R4CEscDialog@@6B@	; CEscDialog::`vftable'
	DD	FLAT:?GetRuntimeClass@CDialog@@UBEPAUCRuntimeClass@@XZ
	DD	FLAT:??_ECEscDialog@@UAEPAXI@Z
	DD	FLAT:?Serialize@CObject@@UAEXAAVCArchive@@@Z
	DD	FLAT:?AssertValid@CObject@@UBEXXZ
	DD	FLAT:?Dump@CObject@@UBEXAAVCDumpContext@@@Z
	DD	FLAT:?OnCmdMsg@CDialog@@UAEHIHPAXPAUAFX_CMDHANDLERINFO@@@Z
	DD	FLAT:?OnFinalRelease@CWnd@@UAEXXZ
	DD	FLAT:?IsInvokeAllowed@CCmdTarget@@UAEHJ@Z
	DD	FLAT:?GetDispatchIID@CCmdTarget@@UAEHPAU_GUID@@@Z
	DD	FLAT:?GetTypeInfoCount@CCmdTarget@@UAEIXZ
	DD	FLAT:?GetTypeLibCache@CCmdTarget@@UAEPAVCTypeLibCache@@XZ
	DD	FLAT:?GetTypeLib@CCmdTarget@@UAEJKPAPAUITypeLib@@@Z
	DD	FLAT:?GetMessageMap@CDialog@@MBEPBUAFX_MSGMAP@@XZ
	DD	FLAT:?GetCommandMap@CCmdTarget@@MBEPBUAFX_OLECMDMAP@@XZ
	DD	FLAT:?GetDispatchMap@CCmdTarget@@MBEPBUAFX_DISPMAP@@XZ
	DD	FLAT:?GetConnectionMap@CCmdTarget@@MBEPBUAFX_CONNECTIONMAP@@XZ
	DD	FLAT:?GetInterfaceMap@CWnd@@MBEPBUAFX_INTERFACEMAP@@XZ
	DD	FLAT:?GetEventSinkMap@CCmdTarget@@MBEPBUAFX_EVENTSINKMAP@@XZ
	DD	FLAT:?OnCreateAggregates@CCmdTarget@@UAEHXZ
	DD	FLAT:?GetInterfaceHook@CCmdTarget@@UAEPAUIUnknown@@PBX@Z
	DD	FLAT:?GetExtraConnectionPoints@CCmdTarget@@MAEHPAVCPtrArray@@@Z
	DD	FLAT:?GetConnectionHook@CCmdTarget@@MAEPAUIConnectionPoint@@ABU_GUID@@@Z
	DD	FLAT:?PreSubclassWindow@CWnd@@UAEXXZ
	DD	FLAT:?Create@CWnd@@UAEHPBD0KABUtagRECT@@PAV1@IPAUCCreateContext@@@Z
	DD	FLAT:?CreateEx@CWnd@@UAEHKPBD0KABUtagRECT@@PAV1@IPAX@Z
	DD	FLAT:?CreateEx@CWnd@@UAEHKPBD0KHHHHPAUHWND__@@PAUHMENU__@@PAX@Z
	DD	FLAT:?DestroyWindow@CWnd@@UAEHXZ
	DD	FLAT:?PreCreateWindow@CWnd@@UAEHAAUtagCREATESTRUCTA@@@Z
	DD	FLAT:?CalcWindowRect@CWnd@@UAEXPAUtagRECT@@I@Z
	DD	FLAT:?GetMenu@CWnd@@UBEPAVCMenu@@XZ
	DD	FLAT:?SetMenu@CWnd@@UAEHPAVCMenu@@@Z
	DD	FLAT:?OnToolHitTest@CWnd@@UBEHVCPoint@@PAUtagTOOLINFOA@@@Z
	DD	FLAT:?GetScrollBarCtrl@CWnd@@UBEPAVCScrollBar@@H@Z
	DD	FLAT:?WinHelpA@CWnd@@UAEXKI@Z
	DD	FLAT:?HtmlHelpA@CWnd@@UAEXKI@Z
	DD	FLAT:?WinHelpInternal@CWnd@@UAEXKI@Z
	DD	FLAT:?ContinueModal@CWnd@@UAEHXZ
	DD	FLAT:?EndModalLoop@CWnd@@UAEXH@Z
	DD	FLAT:?OnDrawIconicThumbnailOrLivePreview@CWnd@@UAEXAAVCDC@@VCRect@@VCSize@@HAAH@Z
	DD	FLAT:?EnsureStdObj@CWnd@@UAEJXZ
	DD	FLAT:?get_accParent@CWnd@@UAEJPAPAUIDispatch@@@Z
	DD	FLAT:?get_accChildCount@CWnd@@UAEJPAJ@Z
	DD	FLAT:?get_accChild@CWnd@@UAEJUtagVARIANT@@PAPAUIDispatch@@@Z
	DD	FLAT:?get_accName@CWnd@@UAEJUtagVARIANT@@PAPA_W@Z
	DD	FLAT:?get_accValue@CWnd@@UAEJUtagVARIANT@@PAPA_W@Z
	DD	FLAT:?get_accDescription@CWnd@@UAEJUtagVARIANT@@PAPA_W@Z
	DD	FLAT:?get_accRole@CWnd@@UAEJUtagVARIANT@@PAU2@@Z
	DD	FLAT:?get_accState@CWnd@@UAEJUtagVARIANT@@PAU2@@Z
	DD	FLAT:?get_accHelp@CWnd@@UAEJUtagVARIANT@@PAPA_W@Z
	DD	FLAT:?get_accHelpTopic@CWnd@@UAEJPAPA_WUtagVARIANT@@PAJ@Z
	DD	FLAT:?get_accKeyboardShortcut@CWnd@@UAEJUtagVARIANT@@PAPA_W@Z
	DD	FLAT:?get_accFocus@CWnd@@UAEJPAUtagVARIANT@@@Z
	DD	FLAT:?get_accSelection@CWnd@@UAEJPAUtagVARIANT@@@Z
	DD	FLAT:?get_accDefaultAction@CWnd@@UAEJUtagVARIANT@@PAPA_W@Z
	DD	FLAT:?accSelect@CWnd@@UAEJJUtagVARIANT@@@Z
	DD	FLAT:?accLocation@CWnd@@UAEJPAJ000UtagVARIANT@@@Z
	DD	FLAT:?accNavigate@CWnd@@UAEJJUtagVARIANT@@PAU2@@Z
	DD	FLAT:?accHitTest@CWnd@@UAEJJJPAUtagVARIANT@@@Z
	DD	FLAT:?accDoDefaultAction@CWnd@@UAEJUtagVARIANT@@@Z
	DD	FLAT:?put_accName@CWnd@@UAEJUtagVARIANT@@PA_W@Z
	DD	FLAT:?put_accValue@CWnd@@UAEJUtagVARIANT@@PA_W@Z
	DD	FLAT:?SetProxy@CWnd@@UAEJPAUIAccessibleProxy@@@Z
	DD	FLAT:?CreateAccessibleProxy@CWnd@@UAEJIJPAJ@Z
	DD	FLAT:?OnCommand@CWnd@@MAEHIJ@Z
	DD	FLAT:?OnNotify@CWnd@@MAEHIJPAJ@Z
	DD	FLAT:?GetSuperWndProcAddr@CWnd@@MAEPAP6GJPAUHWND__@@IIJ@ZXZ
	DD	FLAT:?DoDataExchange@CWnd@@MAEXPAVCDataExchange@@@Z
	DD	FLAT:?BeginModalState@CWnd@@UAEXXZ
	DD	FLAT:?EndModalState@CWnd@@UAEXXZ
	DD	FLAT:?PreTranslateMessage@CEscDialog@@MAEHPAUtagMSG@@@Z
	DD	FLAT:?OnAmbientProperty@CWnd@@UAEHPAVCOleControlSite@@JPAUtagVARIANT@@@Z
	DD	FLAT:?WindowProc@CWnd@@MAEJIIJ@Z
	DD	FLAT:?OnWndMsg@CWnd@@MAEHIIJPAJ@Z
	DD	FLAT:?DefWindowProcA@CWnd@@MAEJIIJ@Z
	DD	FLAT:?PostNcDestroy@CWnd@@MAEXXZ
	DD	FLAT:?OnChildNotify@CWnd@@MAEHIIJPAJ@Z
	DD	FLAT:?OnTouchInputs@CWnd@@MAEHIPAUtagTOUCHINPUT@@@Z
	DD	FLAT:?OnTouchInput@CWnd@@MAEHVCPoint@@HHPAUtagTOUCHINPUT@@@Z
	DD	FLAT:?GetGestureStatus@CWnd@@MAEKVCPoint@@@Z
	DD	FLAT:?OnGestureZoom@CWnd@@MAEHVCPoint@@J@Z
	DD	FLAT:?OnGesturePan@CWnd@@MAEHVCPoint@@0@Z
	DD	FLAT:?OnGestureRotate@CWnd@@MAEHVCPoint@@N@Z
	DD	FLAT:?OnGestureTwoFingerTap@CWnd@@MAEHVCPoint@@@Z
	DD	FLAT:?OnGesturePressAndTap@CWnd@@MAEHVCPoint@@J@Z
	DD	FLAT:?ResizeDynamicLayout@CWnd@@MAEXXZ
	DD	FLAT:?CheckAutoCenter@CDialog@@UAEHXZ
	DD	FLAT:?IsFrameWnd@CWnd@@UBEHXZ
	DD	FLAT:?CreateControlContainer@CWnd@@MAEHPAPAVCOleControlContainer@@@Z
	DD	FLAT:?CreateControlSite@CWnd@@MAEHPAVCOleControlContainer@@PAPAVCOleControlSite@@IABU_GUID@@@Z
	DD	FLAT:?SetOccDialogInfo@CDialog@@MAEHPAU_AFX_OCC_DIALOG_INFO@@@Z
	DD	FLAT:?GetOccDialogInfo@CDialog@@MAEPAU_AFX_OCC_DIALOG_INFO@@XZ
	DD	FLAT:?Create@CDialog@@UAEHIPAVCWnd@@@Z
	DD	FLAT:?Create@CDialog@@UAEHPBDPAVCWnd@@@Z
	DD	FLAT:?CreateIndirect@CDialog@@UAEHPAXPAVCWnd@@@Z
	DD	FLAT:?CreateIndirect@CDialog@@UAEHPBUDLGTEMPLATE@@PAVCWnd@@PAX@Z
	DD	FLAT:?DoModal@CDialog@@UAEHXZ
	DD	FLAT:?OnInitDialog@CDialog@@UAEHXZ
	DD	FLAT:?OnSetFont@CDialog@@UAEXPAVCFont@@@Z
	DD	FLAT:?OnOK@CDialog@@MAEXXZ
	DD	FLAT:?OnCancel@CDialog@@MAEXXZ
	DD	FLAT:?PreInitDialog@CDialog@@MAEXXZ
CONST	ENDS
;	COMDAT ??_C@_0N@OMEMOKLE@?$CFTs?5?$CI?$CFTs?3?$CFd?$CJ@
CONST	SEGMENT
??_C@_0N@OMEMOKLE@?$CFTs?5?$CI?$CFTs?3?$CFd?$CJ@ DB '%Ts (%Ts:%d)', 00H ; `string'
CONST	ENDS
;	COMDAT ??_C@_0BB@HBOOMJBF@?$CFTs?5?$CI?$CFTs?3?$CFd?$CJ?6?$CFTs@
CONST	SEGMENT
??_C@_0BB@HBOOMJBF@?$CFTs?5?$CI?$CFTs?3?$CFd?$CJ?6?$CFTs@ DB '%Ts (%Ts:%d'
	DB	')', 0aH, '%Ts', 00H				; `string'
CONST	ENDS
;	COMDAT ??_C@_0BP@OIEOKIDM@Exception?5thrown?5in?5destructor@
CONST	SEGMENT
??_C@_0BP@OIEOKIDM@Exception?5thrown?5in?5destructor@ DB 'Exception throw'
	DB	'n in destructor', 00H			; `string'
CONST	ENDS
;	COMDAT ??_C@_0HD@JJCHHHNK@C?3?2Program?5Files?5?$CIx86?$CJ?2Microsof@
CONST	SEGMENT
??_C@_0HD@JJCHHHNK@C?3?2Program?5Files?5?$CIx86?$CJ?2Microsof@ DB 'C:\Pro'
	DB	'gram Files (x86)\Microsoft Visual Studio\2019\Community\VC\To'
	DB	'ols\MSVC\14.29.30133\atlmfc\include\afxwin1.inl', 00H ; `string'
CONST	ENDS
;	COMDAT ??_7CBrush@@6B@
CONST	SEGMENT
??_7CBrush@@6B@ DD FLAT:??_R4CBrush@@6B@		; CBrush::`vftable'
	DD	FLAT:?GetRuntimeClass@CBrush@@UBEPAUCRuntimeClass@@XZ
	DD	FLAT:??_ECBrush@@UAEPAXI@Z
	DD	FLAT:?Serialize@CObject@@UAEXAAVCArchive@@@Z
	DD	FLAT:?AssertValid@CObject@@UBEXXZ
	DD	FLAT:?Dump@CObject@@UBEXAAVCDumpContext@@@Z
CONST	ENDS
;	COMDAT ??_7CGdiObject@@6B@
CONST	SEGMENT
??_7CGdiObject@@6B@ DD FLAT:??_R4CGdiObject@@6B@	; CGdiObject::`vftable'
	DD	FLAT:?GetRuntimeClass@CGdiObject@@UBEPAUCRuntimeClass@@XZ
	DD	FLAT:??_ECGdiObject@@UAEPAXI@Z
	DD	FLAT:?Serialize@CObject@@UAEXAAVCArchive@@@Z
	DD	FLAT:?AssertValid@CObject@@UBEXXZ
	DD	FLAT:?Dump@CObject@@UBEXAAVCDumpContext@@@Z
CONST	ENDS
;	COMDAT ??_C@_00CNPNBAHC@@
CONST	SEGMENT
??_C@_00CNPNBAHC@@ DB 00H				; `string'
CONST	ENDS
;	COMDAT ??_C@_02DPKJAMEF@?$CFd@
CONST	SEGMENT
??_C@_02DPKJAMEF@?$CFd@ DB '%d', 00H			; `string'
CONST	ENDS
;	COMDAT ??_R0PAVCException@@@8
data$r	SEGMENT
??_R0PAVCException@@@8 DD FLAT:??_7type_info@@6B@	; CException * `RTTI Type Descriptor'
	DD	00H
	DB	'.PAVCException@@', 00H
data$r	ENDS
;	COMDAT xdata$x
xdata$x	SEGMENT
__unwindtable$?Result@CDlgAnalysis@@QAEXXZ DD 0ffffffffH
	DD	FLAT:__unwindfunclet$?Result@CDlgAnalysis@@QAEXXZ$0
__ehfuncinfo$?Result@CDlgAnalysis@@QAEXXZ DD 019930522H
	DD	01H
	DD	FLAT:__unwindtable$?Result@CDlgAnalysis@@QAEXXZ
	DD	2 DUP(00H)
	DD	2 DUP(00H)
	DD	00H
	DD	01H
xdata$x	ENDS
;	COMDAT xdata$x
xdata$x	SEGMENT
__unwindtable$?SetCalculateData@CDlgAnalysis@@QAEXH@Z DD 0ffffffffH
	DD	FLAT:__unwindfunclet$?SetCalculateData@CDlgAnalysis@@QAEXH@Z$0
__ehfuncinfo$?SetCalculateData@CDlgAnalysis@@QAEXH@Z DD 019930522H
	DD	01H
	DD	FLAT:__unwindtable$?SetCalculateData@CDlgAnalysis@@QAEXH@Z
	DD	2 DUP(00H)
	DD	2 DUP(00H)
	DD	00H
	DD	01H
xdata$x	ENDS
;	COMDAT xdata$x
xdata$x	SEGMENT
__unwindtable$?InitSTLoad@CDlgAnalysis@@QAEXXZ DD 0ffffffffH
	DD	FLAT:__unwindfunclet$?InitSTLoad@CDlgAnalysis@@QAEXXZ$0
	DD	0ffffffffH
	DD	FLAT:__unwindfunclet$?InitSTLoad@CDlgAnalysis@@QAEXXZ$1
	DD	0ffffffffH
	DD	FLAT:__unwindfunclet$?InitSTLoad@CDlgAnalysis@@QAEXXZ$2
	DD	02H
	DD	FLAT:__unwindfunclet$?InitSTLoad@CDlgAnalysis@@QAEXXZ$3
__ehfuncinfo$?InitSTLoad@CDlgAnalysis@@QAEXXZ DD 019930522H
	DD	04H
	DD	FLAT:__unwindtable$?InitSTLoad@CDlgAnalysis@@QAEXXZ
	DD	2 DUP(00H)
	DD	2 DUP(00H)
	DD	00H
	DD	01H
xdata$x	ENDS
;	COMDAT xdata$x
xdata$x	SEGMENT
__ehfuncinfo$?OnSTDataManagerMessagge@CDlgAnalysis@@IAEJIJ@Z DD 019930522H
	DD	018H
	DD	FLAT:__unwindtable$?OnSTDataManagerMessagge@CDlgAnalysis@@IAEJIJ@Z
	DD	2 DUP(00H)
	DD	2 DUP(00H)
	DD	00H
	DD	01H
__unwindtable$?OnSTDataManagerMessagge@CDlgAnalysis@@IAEJIJ@Z DD 0ffffffffH
	DD	FLAT:__unwindfunclet$?OnSTDataManagerMessagge@CDlgAnalysis@@IAEJIJ@Z$0
	DD	00H
	DD	FLAT:__unwindfunclet$?OnSTDataManagerMessagge@CDlgAnalysis@@IAEJIJ@Z$1
	DD	01H
	DD	FLAT:__unwindfunclet$?OnSTDataManagerMessagge@CDlgAnalysis@@IAEJIJ@Z$2
	DD	02H
	DD	FLAT:__unwindfunclet$?OnSTDataManagerMessagge@CDlgAnalysis@@IAEJIJ@Z$3
	DD	03H
	DD	FLAT:__unwindfunclet$?OnSTDataManagerMessagge@CDlgAnalysis@@IAEJIJ@Z$4
	DD	04H
	DD	FLAT:__unwindfunclet$?OnSTDataManagerMessagge@CDlgAnalysis@@IAEJIJ@Z$5
	DD	05H
	DD	FLAT:__unwindfunclet$?OnSTDataManagerMessagge@CDlgAnalysis@@IAEJIJ@Z$6
	DD	05H
	DD	FLAT:__unwindfunclet$?OnSTDataManagerMessagge@CDlgAnalysis@@IAEJIJ@Z$7
	DD	05H
	DD	FLAT:__unwindfunclet$?OnSTDataManagerMessagge@CDlgAnalysis@@IAEJIJ@Z$9
	DD	05H
	DD	FLAT:__unwindfunclet$?OnSTDataManagerMessagge@CDlgAnalysis@@IAEJIJ@Z$10
	DD	09H
	DD	FLAT:__unwindfunclet$?OnSTDataManagerMessagge@CDlgAnalysis@@IAEJIJ@Z$11
	DD	09H
	DD	FLAT:__unwindfunclet$?OnSTDataManagerMessagge@CDlgAnalysis@@IAEJIJ@Z$12
	DD	0bH
	DD	FLAT:__unwindfunclet$?OnSTDataManagerMessagge@CDlgAnalysis@@IAEJIJ@Z$13
	DD	0bH
	DD	FLAT:__unwindfunclet$?OnSTDataManagerMessagge@CDlgAnalysis@@IAEJIJ@Z$14
	DD	0dH
	DD	FLAT:__unwindfunclet$?OnSTDataManagerMessagge@CDlgAnalysis@@IAEJIJ@Z$15
	DD	0dH
	DD	FLAT:__unwindfunclet$?OnSTDataManagerMessagge@CDlgAnalysis@@IAEJIJ@Z$19
	DD	0fH
	DD	FLAT:__unwindfunclet$?OnSTDataManagerMessagge@CDlgAnalysis@@IAEJIJ@Z$20
	DD	010H
	DD	FLAT:__unwindfunclet$?OnSTDataManagerMessagge@CDlgAnalysis@@IAEJIJ@Z$21
	DD	011H
	DD	FLAT:__unwindfunclet$?OnSTDataManagerMessagge@CDlgAnalysis@@IAEJIJ@Z$22
	DD	012H
	DD	FLAT:__unwindfunclet$?OnSTDataManagerMessagge@CDlgAnalysis@@IAEJIJ@Z$23
	DD	0dH
	DD	FLAT:__unwindfunclet$?OnSTDataManagerMessagge@CDlgAnalysis@@IAEJIJ@Z$25
	DD	014H
	DD	FLAT:__unwindfunclet$?OnSTDataManagerMessagge@CDlgAnalysis@@IAEJIJ@Z$27
	DD	0dH
	DD	FLAT:__unwindfunclet$?OnSTDataManagerMessagge@CDlgAnalysis@@IAEJIJ@Z$17
	DD	05H
	DD	FLAT:__unwindfunclet$?OnSTDataManagerMessagge@CDlgAnalysis@@IAEJIJ@Z$30
xdata$x	ENDS
;	COMDAT xdata$x
xdata$x	SEGMENT
__unwindtable$?OnInitDialog@CDlgAnalysis@@MAEHXZ DD 0ffffffffH
	DD	FLAT:__unwindfunclet$?OnInitDialog@CDlgAnalysis@@MAEHXZ$0
	DD	0ffffffffH
	DD	FLAT:__unwindfunclet$?OnInitDialog@CDlgAnalysis@@MAEHXZ$3
	DD	0ffffffffH
	DD	FLAT:__unwindfunclet$?OnInitDialog@CDlgAnalysis@@MAEHXZ$2
__ehfuncinfo$?OnInitDialog@CDlgAnalysis@@MAEHXZ DD 019930522H
	DD	03H
	DD	FLAT:__unwindtable$?OnInitDialog@CDlgAnalysis@@MAEHXZ
	DD	2 DUP(00H)
	DD	2 DUP(00H)
	DD	00H
	DD	01H
xdata$x	ENDS
;	COMDAT xdata$x
xdata$x	SEGMENT
__ehfuncinfo$??0CDlgAnalysis@@QAE@PAVCWnd@@@Z DD 019930522H
	DD	0fH
	DD	FLAT:__unwindtable$??0CDlgAnalysis@@QAE@PAVCWnd@@@Z
	DD	2 DUP(00H)
	DD	2 DUP(00H)
	DD	00H
	DD	01H
__unwindtable$??0CDlgAnalysis@@QAE@PAVCWnd@@@Z DD 0ffffffffH
	DD	FLAT:__unwindfunclet$??0CDlgAnalysis@@QAE@PAVCWnd@@@Z$0
	DD	00H
	DD	FLAT:__unwindfunclet$??0CDlgAnalysis@@QAE@PAVCWnd@@@Z$1
	DD	01H
	DD	FLAT:__unwindfunclet$??0CDlgAnalysis@@QAE@PAVCWnd@@@Z$2
	DD	02H
	DD	FLAT:__unwindfunclet$??0CDlgAnalysis@@QAE@PAVCWnd@@@Z$3
	DD	03H
	DD	FLAT:__unwindfunclet$??0CDlgAnalysis@@QAE@PAVCWnd@@@Z$4
	DD	04H
	DD	FLAT:__unwindfunclet$??0CDlgAnalysis@@QAE@PAVCWnd@@@Z$5
	DD	05H
	DD	FLAT:__unwindfunclet$??0CDlgAnalysis@@QAE@PAVCWnd@@@Z$6
	DD	06H
	DD	FLAT:__unwindfunclet$??0CDlgAnalysis@@QAE@PAVCWnd@@@Z$7
	DD	07H
	DD	FLAT:__unwindfunclet$??0CDlgAnalysis@@QAE@PAVCWnd@@@Z$8
	DD	08H
	DD	FLAT:__unwindfunclet$??0CDlgAnalysis@@QAE@PAVCWnd@@@Z$9
	DD	09H
	DD	FLAT:__unwindfunclet$??0CDlgAnalysis@@QAE@PAVCWnd@@@Z$10
	DD	0aH
	DD	FLAT:__unwindfunclet$??0CDlgAnalysis@@QAE@PAVCWnd@@@Z$11
	DD	0bH
	DD	FLAT:__unwindfunclet$??0CDlgAnalysis@@QAE@PAVCWnd@@@Z$12
	DD	0cH
	DD	FLAT:__unwindfunclet$??0CDlgAnalysis@@QAE@PAVCWnd@@@Z$13
	DD	0dH
	DD	FLAT:__unwindfunclet$??0CDlgAnalysis@@QAE@PAVCWnd@@@Z$14
xdata$x	ENDS
;	COMDAT xdata$x
xdata$x	SEGMENT
__unwindtable$?Add@?$CArray@UST_DATAINDEX@@U1@@@QAEHUST_DATAINDEX@@@Z DD 0ffffffffH
	DD	FLAT:__unwindfunclet$?Add@?$CArray@UST_DATAINDEX@@U1@@@QAEHUST_DATAINDEX@@@Z$0
	DD	00H
	DD	FLAT:__unwindfunclet$?Add@?$CArray@UST_DATAINDEX@@U1@@@QAEHUST_DATAINDEX@@@Z$2
__ehfuncinfo$?Add@?$CArray@UST_DATAINDEX@@U1@@@QAEHUST_DATAINDEX@@@Z DD 019930522H
	DD	02H
	DD	FLAT:__unwindtable$?Add@?$CArray@UST_DATAINDEX@@U1@@@QAEHUST_DATAINDEX@@@Z
	DD	2 DUP(00H)
	DD	2 DUP(00H)
	DD	00H
	DD	01H
xdata$x	ENDS
;	COMDAT xdata$x
xdata$x	SEGMENT
__unwindtable$?SetAtGrow@?$CArray@UST_DATAINDEX@@U1@@@QAEXHUST_DATAINDEX@@@Z DD 0ffffffffH
	DD	FLAT:__unwindfunclet$?SetAtGrow@?$CArray@UST_DATAINDEX@@U1@@@QAEXHUST_DATAINDEX@@@Z$0
__ehfuncinfo$?SetAtGrow@?$CArray@UST_DATAINDEX@@U1@@@QAEXHUST_DATAINDEX@@@Z DD 019930522H
	DD	01H
	DD	FLAT:__unwindtable$?SetAtGrow@?$CArray@UST_DATAINDEX@@U1@@@QAEXHUST_DATAINDEX@@@Z
	DD	2 DUP(00H)
	DD	2 DUP(00H)
	DD	00H
	DD	01H
xdata$x	ENDS
;	COMDAT xdata$x
xdata$x	SEGMENT
__ehfuncinfo$??0ST_DATAINDEX@@QAE@ABU0@@Z DD 019930522H
	DD	05H
	DD	FLAT:__unwindtable$??0ST_DATAINDEX@@QAE@ABU0@@Z
	DD	2 DUP(00H)
	DD	2 DUP(00H)
	DD	00H
	DD	01H
__unwindtable$??0ST_DATAINDEX@@QAE@ABU0@@Z DD 0ffffffffH
	DD	FLAT:__unwindfunclet$??0ST_DATAINDEX@@QAE@ABU0@@Z$0
	DD	00H
	DD	FLAT:__unwindfunclet$??0ST_DATAINDEX@@QAE@ABU0@@Z$1
	DD	01H
	DD	FLAT:__unwindfunclet$??0ST_DATAINDEX@@QAE@ABU0@@Z$2
	DD	02H
	DD	FLAT:__unwindfunclet$??0ST_DATAINDEX@@QAE@ABU0@@Z$3
	DD	03H
	DD	FLAT:__unwindfunclet$??0ST_DATAINDEX@@QAE@ABU0@@Z$4
xdata$x	ENDS
;	COMDAT xdata$x
xdata$x	SEGMENT
__catchsym$??1CGdiObject@@UAE@XZ$3 DD 00H
	DD	FLAT:??_R0PAVCException@@@8
	DD	0fffffde4H
	DD	FLAT:__catch$??1CGdiObject@@UAE@XZ$0
__tryblocktable$??1CGdiObject@@UAE@XZ DD 00H
	DD	00H
	DD	02H
	DD	01H
	DD	FLAT:__catchsym$??1CGdiObject@@UAE@XZ$3
__unwindtable$??1CGdiObject@@UAE@XZ DD 0ffffffffH
	DD	00H
	DD	0ffffffffH
	DD	00H
	DD	01H
	DD	FLAT:__unwindfunclet$??1CGdiObject@@UAE@XZ$2
__ehfuncinfo$??1CGdiObject@@UAE@XZ DD 019930522H
	DD	03H
	DD	FLAT:__unwindtable$??1CGdiObject@@UAE@XZ
	DD	01H
	DD	FLAT:__tryblocktable$??1CGdiObject@@UAE@XZ
	DD	2 DUP(00H)
	DD	00H
	DD	05H
xdata$x	ENDS
;	COMDAT xdata$x
xdata$x	SEGMENT
__unwindtable$??HATL@@YA?AV?$CStringT@DV?$StrTraitMFC_DLL@DV?$ChTraitsCRT@D@ATL@@@@@0@ABV10@PBD@Z DD 0ffffffffH
	DD	FLAT:__unwindfunclet$??HATL@@YA?AV?$CStringT@DV?$StrTraitMFC_DLL@DV?$ChTraitsCRT@D@ATL@@@@@0@ABV10@PBD@Z$0
__ehfuncinfo$??HATL@@YA?AV?$CStringT@DV?$StrTraitMFC_DLL@DV?$ChTraitsCRT@D@ATL@@@@@0@ABV10@PBD@Z DD 019930522H
	DD	01H
	DD	FLAT:__unwindtable$??HATL@@YA?AV?$CStringT@DV?$StrTraitMFC_DLL@DV?$ChTraitsCRT@D@ATL@@@@@0@ABV10@PBD@Z
	DD	2 DUP(00H)
	DD	2 DUP(00H)
	DD	00H
	DD	01H
xdata$x	ENDS
CRT$XCU	SEGMENT
?RMSG_SETQUERYOPT$initializer$@@3P6AXXZA DD FLAT:??__ERMSG_SETQUERYOPT@@YAXXZ ; RMSG_SETQUERYOPT$initializer$
CRT$XCU	ENDS
CRT$XCU	SEGMENT
?RMSG_CHARTMAIN$initializer$@@3P6AXXZA DD FLAT:??__ERMSG_CHARTMAIN@@YAXXZ ; RMSG_CHARTMAIN$initializer$
CRT$XCU	ENDS
CRT$XCU	SEGMENT
?RMS_ANALYSIS_FUNC$initializer$@@3P6AXXZA DD FLAT:??__ERMS_ANALYSIS_FUNC@@YAXXZ ; RMS_ANALYSIS_FUNC$initializer$
CRT$XCU	ENDS
CRT$XCU	SEGMENT
?RMSG_GET_USERID$initializer$@@3P6AXXZA DD FLAT:??__ERMSG_GET_USERID@@YAXXZ ; RMSG_GET_USERID$initializer$
CRT$XCU	ENDS
CRT$XCU	SEGMENT
?RMSG_CHANGE_SKINCOLOR$initializer$@@3P6AXXZA DD FLAT:??__ERMSG_CHANGE_SKINCOLOR@@YAXXZ ; RMSG_CHANGE_SKINCOLOR$initializer$
CRT$XCU	ENDS
CRT$XCU	SEGMENT
?RMSG_GET_SKINCOLOR$initializer$@@3P6AXXZA DD FLAT:??__ERMSG_GET_SKINCOLOR@@YAXXZ ; RMSG_GET_SKINCOLOR$initializer$
CRT$XCU	ENDS
CRT$XCU	SEGMENT
?RMSG_CHANGEVERTSCALETYPE$initializer$@@3P6AXXZA DD FLAT:??__ERMSG_CHANGEVERTSCALETYPE@@YAXXZ ; RMSG_CHANGEVERTSCALETYPE$initializer$
CRT$XCU	ENDS
CRT$XCU	SEGMENT
?RMSG_CHANGE_CROSSLINE$initializer$@@3P6AXXZA DD FLAT:??__ERMSG_CHANGE_CROSSLINE@@YAXXZ ; RMSG_CHANGE_CROSSLINE$initializer$
CRT$XCU	ENDS
CRT$XCU	SEGMENT
?RMSG_ADD_PLATFORM_MENU$initializer$@@3P6AXXZA DD FLAT:??__ERMSG_ADD_PLATFORM_MENU@@YAXXZ ; RMSG_ADD_PLATFORM_MENU$initializer$
CRT$XCU	ENDS
CRT$XCU	SEGMENT
?RMSG_SETINITIALCHARTDATA$initializer$@@3P6AXXZA DD FLAT:??__ERMSG_SETINITIALCHARTDATA@@YAXXZ ; RMSG_SETINITIALCHARTDATA$initializer$
CRT$XCU	ENDS
CRT$XCU	SEGMENT
?RMSG_GETINFO$initializer$@@3P6AXXZA DD FLAT:??__ERMSG_GETINFO@@YAXXZ ; RMSG_GETINFO$initializer$
CRT$XCU	ENDS
CRT$XCU	SEGMENT
?RMSG_SETINFO$initializer$@@3P6AXXZA DD FLAT:??__ERMSG_SETINFO@@YAXXZ ; RMSG_SETINFO$initializer$
CRT$XCU	ENDS
CRT$XCU	SEGMENT
?RMSG_INTERFACE$initializer$@@3P6AXXZA DD FLAT:??__ERMSG_INTERFACE@@YAXXZ ; RMSG_INTERFACE$initializer$
CRT$XCU	ENDS
CRT$XCU	SEGMENT
?RMSG_GETPCTRDATA$initializer$@@3P6AXXZA DD FLAT:??__ERMSG_GETPCTRDATA@@YAXXZ ; RMSG_GETPCTRDATA$initializer$
CRT$XCU	ENDS
CRT$XCU	SEGMENT
?RMSG_SETPCTRDATA$initializer$@@3P6AXXZA DD FLAT:??__ERMSG_SETPCTRDATA@@YAXXZ ; RMSG_SETPCTRDATA$initializer$
CRT$XCU	ENDS
CRT$XCU	SEGMENT
?RMSG_GETDLLSIZE$initializer$@@3P6AXXZA DD FLAT:??__ERMSG_GETDLLSIZE@@YAXXZ ; RMSG_GETDLLSIZE$initializer$
CRT$XCU	ENDS
CRT$XCU	SEGMENT
?RMSG_SETDLLSIZE$initializer$@@3P6AXXZA DD FLAT:??__ERMSG_SETDLLSIZE@@YAXXZ ; RMSG_SETDLLSIZE$initializer$
CRT$XCU	ENDS
CRT$XCU	SEGMENT
?RMSG_STDATAMANAGER_RESULTDATA$initializer$@@3P6AXXZA DD FLAT:??__ERMSG_STDATAMANAGER_RESULTDATA@@YAXXZ ; RMSG_STDATAMANAGER_RESULTDATA$initializer$
CRT$XCU	ENDS
; Function compile flags: /Ogtp
; File C:\Program Files (x86)\Microsoft Visual Studio\2019\Community\VC\Tools\MSVC\14.29.30133\atlmfc\include\afxtempl.h
; File C:\Program Files (x86)\Microsoft Visual Studio\2019\Community\VC\Tools\MSVC\14.29.30133\atlmfc\include\afx.inl
; File C:\Program Files (x86)\Microsoft Visual Studio\2019\Community\VC\Tools\MSVC\14.29.30133\atlmfc\include\afxtempl.h
; File C:\Program Files (x86)\Microsoft Visual Studio\2019\Community\VC\Tools\MSVC\14.29.30133\atlmfc\include\afx.inl
; File C:\Program Files (x86)\Microsoft Visual Studio\2019\Community\VC\Tools\MSVC\14.29.30133\atlmfc\include\afxtempl.h
; File C:\Program Files (x86)\Microsoft Visual Studio\2019\Community\VC\Tools\MSVC\14.29.30133\atlmfc\include\afx.inl
; File C:\Program Files (x86)\Microsoft Visual Studio\2019\Community\VC\Tools\MSVC\14.29.30133\atlmfc\include\afxtempl.h
;	COMDAT ??$SerializeElements@UST_DATAINDEX@@@@YGXAAVCArchive@@PAUST_DATAINDEX@@H@Z
_TEXT	SEGMENT
_ar$ = 8						; size = 4
_pElements$ = 12					; size = 4
_nCount$ = 16						; size = 4
??$SerializeElements@UST_DATAINDEX@@@@YGXAAVCArchive@@PAUST_DATAINDEX@@H@Z PROC ; SerializeElements<ST_DATAINDEX>, COMDAT

; 67   : {

  00000	55		 push	 ebp
  00001	8b ec		 mov	 ebp, esp

; 68   : 	ENSURE(nCount == 0 || pElements != NULL);

  00003	8b 4d 0c	 mov	 ecx, DWORD PTR _pElements$[ebp]
  00006	53		 push	 ebx
  00007	56		 push	 esi
  00008	8b 75 10	 mov	 esi, DWORD PTR _nCount$[ebp]
  0000b	57		 push	 edi
  0000c	85 f6		 test	 esi, esi
  0000e	74 04		 je	 SHORT $LN2@SerializeE
  00010	85 c9		 test	 ecx, ecx
  00012	74 7d		 je	 SHORT $LN34@SerializeE
$LN2@SerializeE:
; File C:\Program Files (x86)\Microsoft Visual Studio\2019\Community\VC\Tools\MSVC\14.29.30133\atlmfc\include\afx.inl

; 212  : 	{ return (m_nMode & CArchive::load) == 0; }

  00014	8b 55 08	 mov	 edx, DWORD PTR _ar$[ebp]
  00017	8b 42 18	 mov	 eax, DWORD PTR [edx+24]
  0001a	f7 d0		 not	 eax
  0001c	a8 01		 test	 al, 1
; File C:\Program Files (x86)\Microsoft Visual Studio\2019\Community\VC\Tools\MSVC\14.29.30133\atlmfc\include\afxtempl.h

; 73   : 	if (ar.IsStoring())

  0001e	74 32		 je	 SHORT $LN10@SerializeE

; 74   : 	{
; 75   : 		TYPE* pData;
; 76   : 		UINT_PTR nElementsLeft;
; 77   : 
; 78   : 		nElementsLeft = nCount;
; 79   : 		pData = pElements;
; 80   : 		while( nElementsLeft > 0 )

  00020	85 f6		 test	 esi, esi
  00022	74 27		 je	 SHORT $LN8@SerializeE
$LL5@SerializeE:

; 81   : 		{
; 82   : 			UINT nElementsToWrite;
; 83   : 
; 84   : 			nElementsToWrite = UINT(__min(nElementsLeft, INT_MAX/sizeof(TYPE)));

  00024	bb ff ff ff 03	 mov	 ebx, 67108863		; 03ffffffH
  00029	3b f3		 cmp	 esi, ebx
  0002b	0f 42 de	 cmovb	 ebx, esi

; 85   : 			ar.Write(pData, nElementsToWrite*sizeof(TYPE));

  0002e	8b fb		 mov	 edi, ebx
  00030	c1 e7 05	 shl	 edi, 5
  00033	57		 push	 edi
  00034	51		 push	 ecx
  00035	8b ca		 mov	 ecx, edx
  00037	e8 00 00 00 00	 call	 ?Write@CArchive@@QAEXPBXI@Z ; CArchive::Write

; 86   : 			nElementsLeft -= nElementsToWrite;
; 87   : 			pData += nElementsToWrite;

  0003c	8b 4d 0c	 mov	 ecx, DWORD PTR _pElements$[ebp]
  0003f	8b 55 08	 mov	 edx, DWORD PTR _ar$[ebp]
  00042	03 cf		 add	 ecx, edi
  00044	89 4d 0c	 mov	 DWORD PTR _pElements$[ebp], ecx
  00047	2b f3		 sub	 esi, ebx
  00049	75 d9		 jne	 SHORT $LL5@SerializeE
$LN8@SerializeE:
  0004b	5f		 pop	 edi

; 105  : 		}
; 106  : 	}
; 107  : }

  0004c	5e		 pop	 esi
  0004d	5b		 pop	 ebx
  0004e	5d		 pop	 ebp
  0004f	c2 0c 00	 ret	 12			; 0000000cH
$LN10@SerializeE:

; 97   : 		while( nElementsLeft > 0 )

  00052	85 f6		 test	 esi, esi
  00054	74 f5		 je	 SHORT $LN8@SerializeE
$LL7@SerializeE:

; 98   : 		{
; 99   : 			UINT nElementsToRead;
; 100  : 
; 101  : 			nElementsToRead = UINT(__min(nElementsLeft, INT_MAX/sizeof(TYPE)));

  00056	bb ff ff ff 03	 mov	 ebx, 67108863		; 03ffffffH
  0005b	3b f3		 cmp	 esi, ebx
  0005d	0f 42 de	 cmovb	 ebx, esi

; 102  : 			ar.EnsureRead(pData, nElementsToRead*sizeof(TYPE));

  00060	8b fb		 mov	 edi, ebx
  00062	c1 e7 05	 shl	 edi, 5
; File C:\Program Files (x86)\Microsoft Visual Studio\2019\Community\VC\Tools\MSVC\14.29.30133\atlmfc\include\afx.inl

; 399  : 	UINT nRead=Read(lpBuf, nCount);

  00065	57		 push	 edi
  00066	51		 push	 ecx
  00067	8b ca		 mov	 ecx, edx
  00069	e8 00 00 00 00	 call	 ?Read@CArchive@@QAEIPAXI@Z ; CArchive::Read

; 400  : 	if(nRead!=nCount)

  0006e	3b c7		 cmp	 eax, edi
  00070	75 16		 jne	 SHORT $LN23@SerializeE
; File C:\Program Files (x86)\Microsoft Visual Studio\2019\Community\VC\Tools\MSVC\14.29.30133\atlmfc\include\afxtempl.h

; 97   : 		while( nElementsLeft > 0 )

  00072	8b 4d 0c	 mov	 ecx, DWORD PTR _pElements$[ebp]
  00075	8b 55 08	 mov	 edx, DWORD PTR _ar$[ebp]

; 103  : 			nElementsLeft -= nElementsToRead;
; 104  : 			pData += nElementsToRead;

  00078	03 cf		 add	 ecx, edi
  0007a	89 4d 0c	 mov	 DWORD PTR _pElements$[ebp], ecx
  0007d	2b f3		 sub	 esi, ebx
  0007f	75 d5		 jne	 SHORT $LL7@SerializeE

; 105  : 		}
; 106  : 	}
; 107  : }

  00081	5f		 pop	 edi
  00082	5e		 pop	 esi
  00083	5b		 pop	 ebx
  00084	5d		 pop	 ebp
  00085	c2 0c 00	 ret	 12			; 0000000cH
$LN23@SerializeE:
; File C:\Program Files (x86)\Microsoft Visual Studio\2019\Community\VC\Tools\MSVC\14.29.30133\atlmfc\include\afx.inl

; 402  : 		AfxThrowArchiveException(CArchiveException::endOfFile);

  00088	6a 00		 push	 0
  0008a	6a 03		 push	 3
  0008c	e8 00 00 00 00	 call	 ?AfxThrowArchiveException@@YGXHPBD@Z ; AfxThrowArchiveException
$LN34@SerializeE:
; File C:\Program Files (x86)\Microsoft Visual Studio\2019\Community\VC\Tools\MSVC\14.29.30133\atlmfc\include\afxtempl.h

; 68   : 	ENSURE(nCount == 0 || pElements != NULL);

  00091	e8 00 00 00 00	 call	 ?AfxThrowInvalidArgException@@YGXXZ ; AfxThrowInvalidArgException
$LN32@SerializeE:
  00096	cc		 int	 3
??$SerializeElements@UST_DATAINDEX@@@@YGXAAVCArchive@@PAUST_DATAINDEX@@H@Z ENDP ; SerializeElements<ST_DATAINDEX>
_TEXT	ENDS
; Function compile flags: /Ogtp
; File D:\git\src\IBK\IBK_DRFN\ProjSrc\SrcDrfn\Chart\HWSTRATEGYANALYSIS\DlgAnalysis.cpp
;	COMDAT ??__ERMSG_STDATAMANAGER_RESULTDATA@@YAXXZ
text$di	SEGMENT
??__ERMSG_STDATAMANAGER_RESULTDATA@@YAXXZ PROC		; `dynamic initializer for 'RMSG_STDATAMANAGER_RESULTDATA'', COMDAT

; 21   : const UINT RMSG_STDATAMANAGER_RESULTDATA = ::RegisterWindowMessage("RMSG_STDATAMANAGER_RESULTDATA");

  00000	68 00 00 00 00	 push	 OFFSET ??_C@_0BO@DBLNBLBD@RMSG_STDATAMANAGER_RESULTDATA@
  00005	ff 15 00 00 00
	00		 call	 DWORD PTR __imp__RegisterWindowMessageA@4
  0000b	a3 00 00 00 00	 mov	 DWORD PTR ?RMSG_STDATAMANAGER_RESULTDATA@@3IB, eax
  00010	c3		 ret	 0
??__ERMSG_STDATAMANAGER_RESULTDATA@@YAXXZ ENDP		; `dynamic initializer for 'RMSG_STDATAMANAGER_RESULTDATA''
text$di	ENDS
; Function compile flags: /Ogtp
; File D:\git\src\IBK\IBK_DRFN\ProjSrc\SrcDrfn\Chart\HWSTRATEGYANALYSIS\DlgAnalysis.cpp
;	COMDAT ??__ERMSG_SETDLLSIZE@@YAXXZ
text$di	SEGMENT
??__ERMSG_SETDLLSIZE@@YAXXZ PROC			; `dynamic initializer for 'RMSG_SETDLLSIZE'', COMDAT

; 20   : const UINT RMSG_SETDLLSIZE = ::RegisterWindowMessage("RMSG_SETDLLSIZE");

  00000	68 00 00 00 00	 push	 OFFSET ??_C@_0BA@CKCOCACI@RMSG_SETDLLSIZE@
  00005	ff 15 00 00 00
	00		 call	 DWORD PTR __imp__RegisterWindowMessageA@4
  0000b	a3 00 00 00 00	 mov	 DWORD PTR ?RMSG_SETDLLSIZE@@3IB, eax
  00010	c3		 ret	 0
??__ERMSG_SETDLLSIZE@@YAXXZ ENDP			; `dynamic initializer for 'RMSG_SETDLLSIZE''
text$di	ENDS
; Function compile flags: /Ogtp
; File D:\git\src\IBK\IBK_DRFN\ProjSrc\SrcDrfn\Chart\HWSTRATEGYANALYSIS\DlgAnalysis.cpp
;	COMDAT ??__ERMSG_GETDLLSIZE@@YAXXZ
text$di	SEGMENT
??__ERMSG_GETDLLSIZE@@YAXXZ PROC			; `dynamic initializer for 'RMSG_GETDLLSIZE'', COMDAT

; 19   : const UINT RMSG_GETDLLSIZE = ::RegisterWindowMessage("RMSG_GETDLLSIZE");

  00000	68 00 00 00 00	 push	 OFFSET ??_C@_0BA@DEABJHGB@RMSG_GETDLLSIZE@
  00005	ff 15 00 00 00
	00		 call	 DWORD PTR __imp__RegisterWindowMessageA@4
  0000b	a3 00 00 00 00	 mov	 DWORD PTR ?RMSG_GETDLLSIZE@@3IB, eax
  00010	c3		 ret	 0
??__ERMSG_GETDLLSIZE@@YAXXZ ENDP			; `dynamic initializer for 'RMSG_GETDLLSIZE''
text$di	ENDS
; Function compile flags: /Ogtp
; File C:\Program Files (x86)\Microsoft Visual Studio\2019\Community\VC\Tools\MSVC\14.29.30133\atlmfc\include\afxwin1.inl
; File C:\Program Files (x86)\Microsoft Visual Studio\2019\Community\VC\Tools\MSVC\14.29.30133\atlmfc\include\afx.inl
;	COMDAT ??_GCDlgAnalysis@@UAEPAXI@Z
_TEXT	SEGMENT
___flags$ = 8						; size = 4
??_GCDlgAnalysis@@UAEPAXI@Z PROC			; CDlgAnalysis::`scalar deleting destructor', COMDAT
; _this$ = ecx
  00000	55		 push	 ebp
  00001	8b ec		 mov	 ebp, esp
; File C:\Program Files (x86)\Microsoft Visual Studio\2019\Community\VC\Tools\MSVC\14.29.30133\atlmfc\include\afxwin1.inl

; 130  : 	{ }

  00003	56		 push	 esi
  00004	8b f1		 mov	 esi, ecx
  00006	8d 8e e8 05 00
	00		 lea	 ecx, DWORD PTR [esi+1512]
  0000c	c7 01 00 00 00
	00		 mov	 DWORD PTR [ecx], OFFSET ??_7CBrush@@6B@
  00012	e8 00 00 00 00	 call	 ??1CGdiObject@@UAE@XZ	; CGdiObject::~CGdiObject
  00017	8d 8e 50 01 00
	00		 lea	 ecx, DWORD PTR [esi+336]
  0001d	e8 00 00 00 00	 call	 ??1CGridCtrl@@UAE@XZ	; CGridCtrl::~CGridCtrl
  00022	8d 8e 3c 01 00
	00		 lea	 ecx, DWORD PTR [esi+316]
  00028	e8 00 00 00 00	 call	 ??1?$CArray@UST_DATAINDEX@@U1@@@UAE@XZ ; CArray<ST_DATAINDEX,ST_DATAINDEX>::~CArray<ST_DATAINDEX,ST_DATAINDEX>
  0002d	8d 8e 1c 01 00
	00		 lea	 ecx, DWORD PTR [esi+284]
  00033	e8 00 00 00 00	 call	 ??1CStringArray@@UAE@XZ	; CStringArray::~CStringArray
  00038	8d 8e f4 00 00
	00		 lea	 ecx, DWORD PTR [esi+244]
  0003e	ff 15 00 00 00
	00		 call	 DWORD PTR __imp_??1?$CStringT@DV?$StrTraitMFC_DLL@DV?$ChTraitsCRT@D@ATL@@@@@ATL@@QAE@XZ
  00044	8d 8e f0 00 00
	00		 lea	 ecx, DWORD PTR [esi+240]
  0004a	ff 15 00 00 00
	00		 call	 DWORD PTR __imp_??1?$CStringT@DV?$StrTraitMFC_DLL@DV?$ChTraitsCRT@D@ATL@@@@@ATL@@QAE@XZ
  00050	8d 8e ec 00 00
	00		 lea	 ecx, DWORD PTR [esi+236]
  00056	ff 15 00 00 00
	00		 call	 DWORD PTR __imp_??1?$CStringT@DV?$StrTraitMFC_DLL@DV?$ChTraitsCRT@D@ATL@@@@@ATL@@QAE@XZ
  0005c	8d 8e e8 00 00
	00		 lea	 ecx, DWORD PTR [esi+232]
  00062	ff 15 00 00 00
	00		 call	 DWORD PTR __imp_??1?$CStringT@DV?$StrTraitMFC_DLL@DV?$ChTraitsCRT@D@ATL@@@@@ATL@@QAE@XZ
  00068	8d 8e e4 00 00
	00		 lea	 ecx, DWORD PTR [esi+228]
  0006e	ff 15 00 00 00
	00		 call	 DWORD PTR __imp_??1?$CStringT@DV?$StrTraitMFC_DLL@DV?$ChTraitsCRT@D@ATL@@@@@ATL@@QAE@XZ
  00074	8d 8e c8 00 00
	00		 lea	 ecx, DWORD PTR [esi+200]
  0007a	e8 00 00 00 00	 call	 ??1CStrategyLoader@@UAE@XZ ; CStrategyLoader::~CStrategyLoader
  0007f	8d 8e bc 00 00
	00		 lea	 ecx, DWORD PTR [esi+188]
  00085	ff 15 00 00 00
	00		 call	 DWORD PTR __imp_??1?$CStringT@DV?$StrTraitMFC_DLL@DV?$ChTraitsCRT@D@ATL@@@@@ATL@@QAE@XZ
  0008b	8d 8e b8 00 00
	00		 lea	 ecx, DWORD PTR [esi+184]
  00091	ff 15 00 00 00
	00		 call	 DWORD PTR __imp_??1?$CStringT@DV?$StrTraitMFC_DLL@DV?$ChTraitsCRT@D@ATL@@@@@ATL@@QAE@XZ
  00097	8d 8e b4 00 00
	00		 lea	 ecx, DWORD PTR [esi+180]
  0009d	ff 15 00 00 00
	00		 call	 DWORD PTR __imp_??1?$CStringT@DV?$StrTraitMFC_DLL@DV?$ChTraitsCRT@D@ATL@@@@@ATL@@QAE@XZ
  000a3	8d 8e b0 00 00
	00		 lea	 ecx, DWORD PTR [esi+176]
  000a9	ff 15 00 00 00
	00		 call	 DWORD PTR __imp_??1?$CStringT@DV?$StrTraitMFC_DLL@DV?$ChTraitsCRT@D@ATL@@@@@ATL@@QAE@XZ
  000af	8b ce		 mov	 ecx, esi
  000b1	e8 00 00 00 00	 call	 ??1CDialog@@UAE@XZ	; CDialog::~CDialog
  000b6	8b 45 08	 mov	 eax, DWORD PTR ___flags$[ebp]
  000b9	a8 01		 test	 al, 1
  000bb	74 22		 je	 SHORT $LN18@scalar
  000bd	a8 04		 test	 al, 4
  000bf	75 10		 jne	 SHORT $LN3@scalar
; File C:\Program Files (x86)\Microsoft Visual Studio\2019\Community\VC\Tools\MSVC\14.29.30133\atlmfc\include\afx.inl

; 112  : 	{ ::operator delete(p); }

  000c1	56		 push	 esi
  000c2	e8 00 00 00 00	 call	 ??3@YAXPAX@Z		; operator delete
  000c7	83 c4 04	 add	 esp, 4
  000ca	8b c6		 mov	 eax, esi
  000cc	5e		 pop	 esi
  000cd	5d		 pop	 ebp
  000ce	c2 04 00	 ret	 4
$LN3@scalar:
  000d1	68 f0 05 00 00	 push	 1520			; 000005f0H
  000d6	56		 push	 esi
  000d7	e8 00 00 00 00	 call	 ?__global_delete@@YAXPAXI@Z ; __global_delete
  000dc	83 c4 08	 add	 esp, 8
$LN18@scalar:
  000df	8b c6		 mov	 eax, esi
  000e1	5e		 pop	 esi
  000e2	5d		 pop	 ebp
  000e3	c2 04 00	 ret	 4
??_GCDlgAnalysis@@UAEPAXI@Z ENDP			; CDlgAnalysis::`scalar deleting destructor'
_TEXT	ENDS
; Function compile flags: /Ogtp
; File D:\git\src\IBK\IBK_DRFN\ProjSrc\SrcDrfn\Chart\HWSTRATEGYANALYSIS\DlgAnalysis.cpp
; File C:\Program Files (x86)\Microsoft Visual Studio\2019\Community\VC\Tools\MSVC\14.29.30133\atlmfc\include\afxwin1.inl
; File D:\git\src\IBK\IBK_DRFN\ProjSrc\SrcDrfn\Chart\HWSTRATEGYANALYSIS\DlgAnalysis.cpp
; File C:\Program Files (x86)\Microsoft Visual Studio\2019\Community\VC\Tools\MSVC\14.29.30133\atlmfc\include\afxwin1.inl
; File D:\git\src\IBK\IBK_DRFN\ProjSrc\SrcDrfn\Chart\HWSTRATEGYANALYSIS\DlgAnalysis.cpp
;	COMDAT ?OnCtlColor@CDlgAnalysis@@QAEPAUHBRUSH__@@PAVCDC@@PAVCWnd@@I@Z
_TEXT	SEGMENT
_pDC$ = 8						; size = 4
_pWnd$ = 12						; size = 4
_nCtlColor$ = 16					; size = 4
?OnCtlColor@CDlgAnalysis@@QAEPAUHBRUSH__@@PAVCDC@@PAVCWnd@@I@Z PROC ; CDlgAnalysis::OnCtlColor, COMDAT
; _this$ = ecx

; 650  : {

  00000	55		 push	 ebp
  00001	8b ec		 mov	 ebp, esp
  00003	53		 push	 ebx

; 651  : 	HBRUSH hbr = CDialog::OnCtlColor(pDC, pWnd, nCtlColor);

  00004	8b 5d 08	 mov	 ebx, DWORD PTR _pDC$[ebp]
  00007	56		 push	 esi
  00008	8b 75 10	 mov	 esi, DWORD PTR _nCtlColor$[ebp]
  0000b	57		 push	 edi
  0000c	56		 push	 esi
  0000d	ff 75 0c	 push	 DWORD PTR _pWnd$[ebp]
  00010	8b f9		 mov	 edi, ecx
  00012	53		 push	 ebx
  00013	e8 00 00 00 00	 call	 ?OnCtlColor@CWnd@@IAEPAUHBRUSH__@@PAVCDC@@PAV1@I@Z ; CWnd::OnCtlColor

; 652  : 	
; 653  : 	switch(nCtlColor) 

  00018	83 ee 01	 sub	 esi, 1
  0001b	74 26		 je	 SHORT $LN1@OnCtlColor
  0001d	83 ee 01	 sub	 esi, 1
  00020	74 21		 je	 SHORT $LN1@OnCtlColor

; 654  : 	{
; 655  : 	case CTLCOLOR_EDIT:
; 656  : 	case CTLCOLOR_LISTBOX:
; 657  : 		return hbr;
; 658  : 	default:
; 659  : 		pDC->SetBkColor(m_crBk);

  00022	8b 03		 mov	 eax, DWORD PTR [ebx]
  00024	8b cb		 mov	 ecx, ebx
  00026	ff b7 e4 05 00
	00		 push	 DWORD PTR [edi+1508]
  0002c	ff 50 34	 call	 DWORD PTR [eax+52]

; 660  : 		return m_brBkColor;		

  0002f	8d 87 e8 05 00
	00		 lea	 eax, DWORD PTR [edi+1512]
; File C:\Program Files (x86)\Microsoft Visual Studio\2019\Community\VC\Tools\MSVC\14.29.30133\atlmfc\include\afxwin1.inl

; 124  : 	{ return (HBRUSH)(this == NULL ? NULL : m_hObject); }

  00035	85 c0		 test	 eax, eax
  00037	75 07		 jne	 SHORT $LN10@OnCtlColor
; File D:\git\src\IBK\IBK_DRFN\ProjSrc\SrcDrfn\Chart\HWSTRATEGYANALYSIS\DlgAnalysis.cpp

; 664  : }

  00039	5f		 pop	 edi
  0003a	5e		 pop	 esi
  0003b	5b		 pop	 ebx
  0003c	5d		 pop	 ebp
  0003d	c2 0c 00	 ret	 12			; 0000000cH
$LN10@OnCtlColor:
; File C:\Program Files (x86)\Microsoft Visual Studio\2019\Community\VC\Tools\MSVC\14.29.30133\atlmfc\include\afxwin1.inl

; 124  : 	{ return (HBRUSH)(this == NULL ? NULL : m_hObject); }

  00040	8b 40 04	 mov	 eax, DWORD PTR [eax+4]
$LN1@OnCtlColor:
  00043	5f		 pop	 edi
; File D:\git\src\IBK\IBK_DRFN\ProjSrc\SrcDrfn\Chart\HWSTRATEGYANALYSIS\DlgAnalysis.cpp

; 664  : }

  00044	5e		 pop	 esi
  00045	5b		 pop	 ebx
  00046	5d		 pop	 ebp
  00047	c2 0c 00	 ret	 12			; 0000000cH
?OnCtlColor@CDlgAnalysis@@QAEPAUHBRUSH__@@PAVCDC@@PAVCWnd@@I@Z ENDP ; CDlgAnalysis::OnCtlColor
_TEXT	ENDS
; Function compile flags: /Ogtp
; File D:\git\src\IBK\IBK_DRFN\ProjSrc\SrcDrfn\Chart\HWSTRATEGYANALYSIS\DlgAnalysis.cpp
; File C:\Program Files (x86)\Microsoft Visual Studio\2019\Community\VC\Tools\MSVC\14.29.30133\atlmfc\include\afxwin2.inl
; File D:\git\src\IBK\IBK_DRFN\ProjSrc\SrcDrfn\Chart\HWSTRATEGYANALYSIS\DlgAnalysis.cpp
; File C:\Program Files (x86)\Microsoft Visual Studio\2019\Community\VC\Tools\MSVC\14.29.30133\atlmfc\include\afxwin2.inl
; File D:\git\src\IBK\IBK_DRFN\ProjSrc\SrcDrfn\Chart\HWSTRATEGYANALYSIS\DlgAnalysis.cpp
;	COMDAT ?OnTimer@CDlgAnalysis@@QAEXI@Z
_TEXT	SEGMENT
_nIDEvent$ = 8						; size = 4
?OnTimer@CDlgAnalysis@@QAEXI@Z PROC			; CDlgAnalysis::OnTimer, COMDAT
; _this$ = ecx

; 633  : {

  00000	55		 push	 ebp
  00001	8b ec		 mov	 ebp, esp

; 634  : 	if(nIDEvent == ID_TIME_RUNST)

  00003	81 7d 08 ef 27
	00 00		 cmp	 DWORD PTR _nIDEvent$[ebp], 10223 ; 000027efH
  0000a	56		 push	 esi
  0000b	8b f1		 mov	 esi, ecx
  0000d	75 30		 jne	 SHORT $LN3@OnTimer
; File C:\Program Files (x86)\Microsoft Visual Studio\2019\Community\VC\Tools\MSVC\14.29.30133\atlmfc\include\afxwin2.inl

; 155  : 	{ ASSERT(::IsWindow(m_hWnd)); return ::KillTimer(m_hWnd, nIDEvent); }

  0000f	68 ef 27 00 00	 push	 10223			; 000027efH
  00014	ff 76 20	 push	 DWORD PTR [esi+32]
  00017	ff 15 00 00 00
	00		 call	 DWORD PTR __imp__KillTimer@8
; File D:\git\src\IBK\IBK_DRFN\ProjSrc\SrcDrfn\Chart\HWSTRATEGYANALYSIS\DlgAnalysis.cpp

; 638  : 		InitSTLoad();

  0001d	8b ce		 mov	 ecx, esi
  0001f	e8 00 00 00 00	 call	 ?InitSTLoad@CDlgAnalysis@@QAEXXZ ; CDlgAnalysis::InitSTLoad

; 639  : 		if(m_pDlgWait) 

  00024	8b 8e d8 00 00
	00		 mov	 ecx, DWORD PTR [esi+216]
  0002a	85 c9		 test	 ecx, ecx
  0002c	74 11		 je	 SHORT $LN3@OnTimer

; 640  : 		{
; 641  : 			delete m_pDlgWait;

  0002e	8b 01		 mov	 eax, DWORD PTR [ecx]
  00030	6a 01		 push	 1
  00032	ff 50 04	 call	 DWORD PTR [eax+4]

; 642  : 			m_pDlgWait = NULL;

  00035	c7 86 d8 00 00
	00 00 00 00 00	 mov	 DWORD PTR [esi+216], 0
$LN3@OnTimer:
; File C:\Program Files (x86)\Microsoft Visual Studio\2019\Community\VC\Tools\MSVC\14.29.30133\atlmfc\include\afxwin2.inl

; 466  : 	{ Default(); }

  0003f	8b ce		 mov	 ecx, esi
  00041	e8 00 00 00 00	 call	 ?Default@CWnd@@IAEJXZ	; CWnd::Default
  00046	5e		 pop	 esi
; File D:\git\src\IBK\IBK_DRFN\ProjSrc\SrcDrfn\Chart\HWSTRATEGYANALYSIS\DlgAnalysis.cpp

; 647  : }

  00047	5d		 pop	 ebp
  00048	c2 04 00	 ret	 4
?OnTimer@CDlgAnalysis@@QAEXI@Z ENDP			; CDlgAnalysis::OnTimer
_TEXT	ENDS
; Function compile flags: /Ogtp
; File D:\git\src\IBK\IBK_DRFN\ProjSrc\SrcDrfn\Chart\HWSTRATEGYANALYSIS\DlgAnalysis.cpp
; File C:\Program Files (x86)\Microsoft Visual Studio\2019\Community\VC\Tools\MSVC\14.29.30133\atlmfc\include\afxwin2.inl
; File D:\git\src\IBK\IBK_DRFN\ProjSrc\SrcDrfn\Chart\HWSTRATEGYANALYSIS\DlgAnalysis.cpp
;	COMDAT ?OnShowWindow@CDlgAnalysis@@QAEXHI@Z
_TEXT	SEGMENT
_bShow$ = 8						; size = 4
_nStatus$ = 12						; size = 4
?OnShowWindow@CDlgAnalysis@@QAEXHI@Z PROC		; CDlgAnalysis::OnShowWindow, COMDAT
; _this$ = ecx
; File C:\Program Files (x86)\Microsoft Visual Studio\2019\Community\VC\Tools\MSVC\14.29.30133\atlmfc\include\afxwin2.inl

; 328  : 	{ Default(); }

  00000	e8 00 00 00 00	 call	 ?Default@CWnd@@IAEJXZ	; CWnd::Default
; File D:\git\src\IBK\IBK_DRFN\ProjSrc\SrcDrfn\Chart\HWSTRATEGYANALYSIS\DlgAnalysis.cpp

; 630  : }

  00005	c2 08 00	 ret	 8
?OnShowWindow@CDlgAnalysis@@QAEXHI@Z ENDP		; CDlgAnalysis::OnShowWindow
_TEXT	ENDS
; Function compile flags: /Ogtp
; File D:\git\src\IBK\IBK_DRFN\ProjSrc\SrcDrfn\Chart\HWSTRATEGYANALYSIS\DlgAnalysis.cpp
;	COMDAT ?WriteDebug@CDlgAnalysis@@QAEXV?$CStringT@DV?$StrTraitMFC_DLL@DV?$ChTraitsCRT@D@ATL@@@@@ATL@@@Z
_TEXT	SEGMENT
_sTime$ = -20						; size = 16
__$ArrayPad$ = -4					; size = 4
_szDebug$ = 8						; size = 4
?WriteDebug@CDlgAnalysis@@QAEXV?$CStringT@DV?$StrTraitMFC_DLL@DV?$ChTraitsCRT@D@ATL@@@@@ATL@@@Z PROC ; CDlgAnalysis::WriteDebug, COMDAT
; _this$ = ecx

; 374  : {

  00000	55		 push	 ebp
  00001	8b ec		 mov	 ebp, esp
  00003	83 ec 14	 sub	 esp, 20			; 00000014H
  00006	a1 00 00 00 00	 mov	 eax, DWORD PTR ___security_cookie
  0000b	33 c5		 xor	 eax, ebp
  0000d	89 45 fc	 mov	 DWORD PTR __$ArrayPad$[ebp], eax
  00010	56		 push	 esi

; 375  : 	SYSTEMTIME sTime;
; 376  : 	GetSystemTime(&sTime);

  00011	8d 45 ec	 lea	 eax, DWORD PTR _sTime$[ebp]
  00014	50		 push	 eax
  00015	ff 15 00 00 00
	00		 call	 DWORD PTR __imp__GetSystemTime@4

; 377  : 
; 378  : 	//	FILE *fp = fopen("M:\\Logs\\GridDebug.txt", "a+t");
; 379  : 	FILE *fp = fopen("c:\\Logs\\.txt", "a+t");

  0001b	68 00 00 00 00	 push	 OFFSET ??_C@_03CCGKKFHG@a?$CLt@
  00020	68 00 00 00 00	 push	 OFFSET ??_C@_0BF@BHAIFGLJ@c?3?2Logs?2?$LM?$LK?$LA?z?$LK?P?$LM?$KO?4txt@
  00025	ff 15 00 00 00
	00		 call	 DWORD PTR __imp__fopen
  0002b	8b f0		 mov	 esi, eax
  0002d	83 c4 08	 add	 esp, 8

; 380  : 
; 381  : 	if(fp != NULL) 

  00030	85 f6		 test	 esi, esi
  00032	74 35		 je	 SHORT $LN2@WriteDebug

; 382  : 	{
; 383  : 		fprintf(fp, "[%02d:%02d:%02d]", sTime.wHour+9, sTime.wMinute, sTime.wSecond);

  00034	0f b7 4d f8	 movzx	 ecx, WORD PTR _sTime$[ebp+12]
  00038	51		 push	 ecx
  00039	0f b7 4d f6	 movzx	 ecx, WORD PTR _sTime$[ebp+10]
  0003d	51		 push	 ecx
  0003e	0f b7 4d f4	 movzx	 ecx, WORD PTR _sTime$[ebp+8]
  00042	83 c1 09	 add	 ecx, 9
  00045	51		 push	 ecx
  00046	68 00 00 00 00	 push	 OFFSET ??_C@_0BB@DJEEEOLH@?$FL?$CF02d?3?$CF02d?3?$CF02d?$FN@
  0004b	56		 push	 esi
  0004c	e8 00 00 00 00	 call	 _fprintf

; 384  : 		fprintf(fp, "[%s]\n", szDebug);

  00051	ff 75 08	 push	 DWORD PTR _szDebug$[ebp]
  00054	68 00 00 00 00	 push	 OFFSET ??_C@_05MGFEFMAH@?$FL?$CFs?$FN?6@
  00059	56		 push	 esi
  0005a	e8 00 00 00 00	 call	 _fprintf

; 385  : 		fclose(fp);

  0005f	56		 push	 esi
  00060	ff 15 00 00 00
	00		 call	 DWORD PTR __imp__fclose
  00066	83 c4 24	 add	 esp, 36			; 00000024H
$LN2@WriteDebug:

; 386  : 	}
; 387  : 
; 388  : }

  00069	8d 4d 08	 lea	 ecx, DWORD PTR _szDebug$[ebp]
  0006c	ff 15 00 00 00
	00		 call	 DWORD PTR __imp_??1?$CStringT@DV?$StrTraitMFC_DLL@DV?$ChTraitsCRT@D@ATL@@@@@ATL@@QAE@XZ
  00072	8b 4d fc	 mov	 ecx, DWORD PTR __$ArrayPad$[ebp]
  00075	33 cd		 xor	 ecx, ebp
  00077	5e		 pop	 esi
  00078	e8 00 00 00 00	 call	 @__security_check_cookie@4
  0007d	8b e5		 mov	 esp, ebp
  0007f	5d		 pop	 ebp
  00080	c2 04 00	 ret	 4
?WriteDebug@CDlgAnalysis@@QAEXV?$CStringT@DV?$StrTraitMFC_DLL@DV?$ChTraitsCRT@D@ATL@@@@@ATL@@@Z ENDP ; CDlgAnalysis::WriteDebug
_TEXT	ENDS
; Function compile flags: /Ogtp
; File D:\git\src\IBK\IBK_DRFN\ProjSrc\SrcDrfn\Chart\HWSTRATEGYANALYSIS\DlgAnalysis.cpp
;	COMDAT ?Result@CDlgAnalysis@@QAEXXZ
_TEXT	SEGMENT
_Index$2 = -44						; size = 32
__$EHRec$ = -12						; size = 12
?Result@CDlgAnalysis@@QAEXXZ PROC			; CDlgAnalysis::Result, COMDAT
; _this$ = ecx

; 497  : { 

  00000	55		 push	 ebp
  00001	8b ec		 mov	 ebp, esp
  00003	6a ff		 push	 -1
  00005	68 00 00 00 00	 push	 __ehhandler$?Result@CDlgAnalysis@@QAEXXZ
  0000a	64 a1 00 00 00
	00		 mov	 eax, DWORD PTR fs:0
  00010	50		 push	 eax
  00011	83 ec 20	 sub	 esp, 32			; 00000020H
  00014	56		 push	 esi
  00015	a1 00 00 00 00	 mov	 eax, DWORD PTR ___security_cookie
  0001a	33 c5		 xor	 eax, ebp
  0001c	50		 push	 eax
  0001d	8d 45 f4	 lea	 eax, DWORD PTR __$EHRec$[ebp]
  00020	64 a3 00 00 00
	00		 mov	 DWORD PTR fs:0, eax
  00026	8b f1		 mov	 esi, ecx

; 498  : 	if(m_pdlgInfo)

  00028	83 be dc 00 00
	00 00		 cmp	 DWORD PTR [esi+220], 0
  0002f	0f 84 ba 00 00
	00		 je	 $LN2@Result
  00035	8d 4d dc	 lea	 ecx, DWORD PTR _Index$2[ebp+8]
  00038	ff 15 00 00 00
	00		 call	 DWORD PTR __imp_??0?$CStringT@DV?$StrTraitMFC_DLL@DV?$ChTraitsCRT@D@ATL@@@@@ATL@@QAE@XZ
  0003e	8d 4d e0	 lea	 ecx, DWORD PTR _Index$2[ebp+12]
  00041	ff 15 00 00 00
	00		 call	 DWORD PTR __imp_??0?$CStringT@DV?$StrTraitMFC_DLL@DV?$ChTraitsCRT@D@ATL@@@@@ATL@@QAE@XZ
  00047	8d 4d e4	 lea	 ecx, DWORD PTR _Index$2[ebp+16]
  0004a	ff 15 00 00 00
	00		 call	 DWORD PTR __imp_??0?$CStringT@DV?$StrTraitMFC_DLL@DV?$ChTraitsCRT@D@ATL@@@@@ATL@@QAE@XZ
  00050	8d 4d e8	 lea	 ecx, DWORD PTR _Index$2[ebp+20]
  00053	ff 15 00 00 00
	00		 call	 DWORD PTR __imp_??0?$CStringT@DV?$StrTraitMFC_DLL@DV?$ChTraitsCRT@D@ATL@@@@@ATL@@QAE@XZ
  00059	8d 4d ec	 lea	 ecx, DWORD PTR _Index$2[ebp+24]
  0005c	ff 15 00 00 00
	00		 call	 DWORD PTR __imp_??0?$CStringT@DV?$StrTraitMFC_DLL@DV?$ChTraitsCRT@D@ATL@@@@@ATL@@QAE@XZ
  00062	8d 4d f0	 lea	 ecx, DWORD PTR _Index$2[ebp+28]
  00065	ff 15 00 00 00
	00		 call	 DWORD PTR __imp_??0?$CStringT@DV?$StrTraitMFC_DLL@DV?$ChTraitsCRT@D@ATL@@@@@ATL@@QAE@XZ

; 486  : 	if(nIndexnum>=nSize)

  0006b	83 be 44 01 00
	00 00		 cmp	 DWORD PTR [esi+324], 0
  00072	c7 45 fc 00 00
	00 00		 mov	 DWORD PTR __$EHRec$[ebp+8], 0
  00079	7e 2a		 jle	 SHORT $LN24@Result

; 487  : 		return;
; 488  : 
; 489  : 	Index = m_stDataIndex.GetAt(nIndexnum);

  0007b	ff b6 40 01 00
	00		 push	 DWORD PTR [esi+320]
  00081	8d 4d d4	 lea	 ecx, DWORD PTR _Index$2[ebp]
  00084	e8 00 00 00 00	 call	 ??4ST_DATAINDEX@@QAEAAU0@ABU0@@Z

; 490  : 	//m_pdlgInfo->m_Trade->m_nDiv = nIndexnum;
; 491  : 	m_pStrategyItem->Stop();

  00089	8b 8e c4 00 00
	00		 mov	 ecx, DWORD PTR [esi+196]
  0008f	8b 01		 mov	 eax, DWORD PTR [ecx]
  00091	ff 50 1c	 call	 DWORD PTR [eax+28]

; 492  : 	m_pStrategyItem->CalculateStatisticalInfo(Index.nStart, Index.nEnd);

  00094	8b 8e c4 00 00
	00		 mov	 ecx, DWORD PTR [esi+196]
  0009a	ff 75 d8	 push	 DWORD PTR _Index$2[ebp+4]
  0009d	ff 75 d4	 push	 DWORD PTR _Index$2[ebp]
  000a0	8b 01		 mov	 eax, DWORD PTR [ecx]
  000a2	ff 50 44	 call	 DWORD PTR [eax+68]
$LN24@Result:

; 499  : 	{
; 500  : 		int CurSel = 0;//m_pdlgInfo->m_Trade->m_nDiv;
; 501  : 		SetCalculateData(CurSel);
; 502  : 		m_pdlgInfo->SetRefresh(CurSel);

  000a5	8d 4d f0	 lea	 ecx, DWORD PTR _Index$2[ebp+28]
  000a8	c7 45 fc ff ff
	ff ff		 mov	 DWORD PTR __$EHRec$[ebp+8], -1
  000af	ff 15 00 00 00
	00		 call	 DWORD PTR __imp_??1?$CStringT@DV?$StrTraitMFC_DLL@DV?$ChTraitsCRT@D@ATL@@@@@ATL@@QAE@XZ
  000b5	8d 4d ec	 lea	 ecx, DWORD PTR _Index$2[ebp+24]
  000b8	ff 15 00 00 00
	00		 call	 DWORD PTR __imp_??1?$CStringT@DV?$StrTraitMFC_DLL@DV?$ChTraitsCRT@D@ATL@@@@@ATL@@QAE@XZ
  000be	8d 4d e8	 lea	 ecx, DWORD PTR _Index$2[ebp+20]
  000c1	ff 15 00 00 00
	00		 call	 DWORD PTR __imp_??1?$CStringT@DV?$StrTraitMFC_DLL@DV?$ChTraitsCRT@D@ATL@@@@@ATL@@QAE@XZ
  000c7	8d 4d e4	 lea	 ecx, DWORD PTR _Index$2[ebp+16]
  000ca	ff 15 00 00 00
	00		 call	 DWORD PTR __imp_??1?$CStringT@DV?$StrTraitMFC_DLL@DV?$ChTraitsCRT@D@ATL@@@@@ATL@@QAE@XZ
  000d0	8d 4d e0	 lea	 ecx, DWORD PTR _Index$2[ebp+12]
  000d3	ff 15 00 00 00
	00		 call	 DWORD PTR __imp_??1?$CStringT@DV?$StrTraitMFC_DLL@DV?$ChTraitsCRT@D@ATL@@@@@ATL@@QAE@XZ
  000d9	8d 4d dc	 lea	 ecx, DWORD PTR _Index$2[ebp+8]
  000dc	ff 15 00 00 00
	00		 call	 DWORD PTR __imp_??1?$CStringT@DV?$StrTraitMFC_DLL@DV?$ChTraitsCRT@D@ATL@@@@@ATL@@QAE@XZ
  000e2	8b 8e dc 00 00
	00		 mov	 ecx, DWORD PTR [esi+220]
  000e8	6a 00		 push	 0
  000ea	e8 00 00 00 00	 call	 ?SetRefresh@CInfoRight@@QAEXH@Z ; CInfoRight::SetRefresh
$LN2@Result:

; 503  : 	}
; 504  : }

  000ef	8b 4d f4	 mov	 ecx, DWORD PTR __$EHRec$[ebp]
  000f2	64 89 0d 00 00
	00 00		 mov	 DWORD PTR fs:0, ecx
  000f9	59		 pop	 ecx
  000fa	5e		 pop	 esi
  000fb	8b e5		 mov	 esp, ebp
  000fd	5d		 pop	 ebp
  000fe	c3		 ret	 0
_TEXT	ENDS
;	COMDAT text$x
text$x	SEGMENT
__unwindfunclet$?Result@CDlgAnalysis@@QAEXXZ$0:
  00000	8d 4d d4	 lea	 ecx, DWORD PTR _Index$2[ebp]
  00003	e9 00 00 00 00	 jmp	 ??1ST_DATAINDEX@@QAE@XZ
  00008	cc		 int	 3
  00009	cc		 int	 3
  0000a	cc		 int	 3
  0000b	cc		 int	 3
  0000c	cc		 int	 3
__ehhandler$?Result@CDlgAnalysis@@QAEXXZ:
  0000d	90		 npad	 1
  0000e	90		 npad	 1
  0000f	8b 54 24 08	 mov	 edx, DWORD PTR [esp+8]
  00013	8d 42 0c	 lea	 eax, DWORD PTR [edx+12]
  00016	8b 4a d8	 mov	 ecx, DWORD PTR [edx-40]
  00019	33 c8		 xor	 ecx, eax
  0001b	e8 00 00 00 00	 call	 @__security_check_cookie@4
  00020	b8 00 00 00 00	 mov	 eax, OFFSET __ehfuncinfo$?Result@CDlgAnalysis@@QAEXXZ
  00025	e9 00 00 00 00	 jmp	 ___CxxFrameHandler3
text$x	ENDS
?Result@CDlgAnalysis@@QAEXXZ ENDP			; CDlgAnalysis::Result
; Function compile flags: /Ogtp
; File D:\git\src\IBK\IBK_DRFN\ProjSrc\SrcDrfn\Chart\HWSTRATEGYANALYSIS\DlgAnalysis.cpp
; File C:\Program Files (x86)\Microsoft Visual Studio\2019\Community\VC\Tools\MSVC\14.29.30133\atlmfc\include\afxtempl.h
; File D:\git\src\IBK\IBK_DRFN\ProjSrc\SrcDrfn\Chart\HWSTRATEGYANALYSIS\DlgAnalysis.cpp
; File C:\Program Files (x86)\Microsoft Visual Studio\2019\Community\VC\Tools\MSVC\14.29.30133\atlmfc\include\afxtempl.h
; File D:\git\src\IBK\IBK_DRFN\ProjSrc\SrcDrfn\Chart\HWSTRATEGYANALYSIS\DlgAnalysis.cpp
; File C:\Program Files (x86)\Microsoft Visual Studio\2019\Community\VC\Tools\MSVC\14.29.30133\atlmfc\include\afxtempl.h
; File D:\git\src\IBK\IBK_DRFN\ProjSrc\SrcDrfn\Chart\HWSTRATEGYANALYSIS\DlgAnalysis.cpp
;	COMDAT ?SetCalculateData@CDlgAnalysis@@QAEXH@Z
_TEXT	SEGMENT
_Index$ = -44						; size = 32
__$EHRec$ = -12						; size = 12
_nIndexnum$ = 8						; size = 4
?SetCalculateData@CDlgAnalysis@@QAEXH@Z PROC		; CDlgAnalysis::SetCalculateData, COMDAT
; _this$ = ecx

; 483  : {

  00000	55		 push	 ebp
  00001	8b ec		 mov	 ebp, esp
  00003	6a ff		 push	 -1
  00005	68 00 00 00 00	 push	 __ehhandler$?SetCalculateData@CDlgAnalysis@@QAEXH@Z
  0000a	64 a1 00 00 00
	00		 mov	 eax, DWORD PTR fs:0
  00010	50		 push	 eax
  00011	83 ec 20	 sub	 esp, 32			; 00000020H
  00014	56		 push	 esi
  00015	a1 00 00 00 00	 mov	 eax, DWORD PTR ___security_cookie
  0001a	33 c5		 xor	 eax, ebp
  0001c	50		 push	 eax
  0001d	8d 45 f4	 lea	 eax, DWORD PTR __$EHRec$[ebp]
  00020	64 a3 00 00 00
	00		 mov	 DWORD PTR fs:0, eax
  00026	8b f1		 mov	 esi, ecx
  00028	8d 4d dc	 lea	 ecx, DWORD PTR _Index$[ebp+8]
  0002b	ff 15 00 00 00
	00		 call	 DWORD PTR __imp_??0?$CStringT@DV?$StrTraitMFC_DLL@DV?$ChTraitsCRT@D@ATL@@@@@ATL@@QAE@XZ
  00031	8d 4d e0	 lea	 ecx, DWORD PTR _Index$[ebp+12]
  00034	ff 15 00 00 00
	00		 call	 DWORD PTR __imp_??0?$CStringT@DV?$StrTraitMFC_DLL@DV?$ChTraitsCRT@D@ATL@@@@@ATL@@QAE@XZ
  0003a	8d 4d e4	 lea	 ecx, DWORD PTR _Index$[ebp+16]
  0003d	ff 15 00 00 00
	00		 call	 DWORD PTR __imp_??0?$CStringT@DV?$StrTraitMFC_DLL@DV?$ChTraitsCRT@D@ATL@@@@@ATL@@QAE@XZ
  00043	8d 4d e8	 lea	 ecx, DWORD PTR _Index$[ebp+20]
  00046	ff 15 00 00 00
	00		 call	 DWORD PTR __imp_??0?$CStringT@DV?$StrTraitMFC_DLL@DV?$ChTraitsCRT@D@ATL@@@@@ATL@@QAE@XZ
  0004c	8d 4d ec	 lea	 ecx, DWORD PTR _Index$[ebp+24]
  0004f	ff 15 00 00 00
	00		 call	 DWORD PTR __imp_??0?$CStringT@DV?$StrTraitMFC_DLL@DV?$ChTraitsCRT@D@ATL@@@@@ATL@@QAE@XZ
  00055	8d 4d f0	 lea	 ecx, DWORD PTR _Index$[ebp+28]
  00058	ff 15 00 00 00
	00		 call	 DWORD PTR __imp_??0?$CStringT@DV?$StrTraitMFC_DLL@DV?$ChTraitsCRT@D@ATL@@@@@ATL@@QAE@XZ

; 484  : 	ST_DATAINDEX Index;
; 485  : 	int nSize = m_stDataIndex.GetSize();
; 486  : 	if(nIndexnum>=nSize)

  0005e	8b 45 08	 mov	 eax, DWORD PTR _nIndexnum$[ebp]
  00061	c7 45 fc 00 00
	00 00		 mov	 DWORD PTR __$EHRec$[ebp+8], 0
  00068	3b 86 44 01 00
	00		 cmp	 eax, DWORD PTR [esi+324]
  0006e	7d 32		 jge	 SHORT $LN5@SetCalcula
; File C:\Program Files (x86)\Microsoft Visual Studio\2019\Community\VC\Tools\MSVC\14.29.30133\atlmfc\include\afxtempl.h

; 288  : 	if(nIndex >= 0 && nIndex < m_nSize)

  00070	85 c0		 test	 eax, eax
  00072	78 76		 js	 SHORT $LN10@SetCalcula

; 289  : 		return m_pData[nIndex];

  00074	c1 e0 05	 shl	 eax, 5
; File D:\git\src\IBK\IBK_DRFN\ProjSrc\SrcDrfn\Chart\HWSTRATEGYANALYSIS\DlgAnalysis.cpp

; 489  : 	Index = m_stDataIndex.GetAt(nIndexnum);

  00077	8d 4d d4	 lea	 ecx, DWORD PTR _Index$[ebp]
; File C:\Program Files (x86)\Microsoft Visual Studio\2019\Community\VC\Tools\MSVC\14.29.30133\atlmfc\include\afxtempl.h

; 289  : 		return m_pData[nIndex];

  0007a	03 86 40 01 00
	00		 add	 eax, DWORD PTR [esi+320]
; File D:\git\src\IBK\IBK_DRFN\ProjSrc\SrcDrfn\Chart\HWSTRATEGYANALYSIS\DlgAnalysis.cpp

; 489  : 	Index = m_stDataIndex.GetAt(nIndexnum);

  00080	50		 push	 eax
  00081	e8 00 00 00 00	 call	 ??4ST_DATAINDEX@@QAEAAU0@ABU0@@Z

; 490  : 	//m_pdlgInfo->m_Trade->m_nDiv = nIndexnum;
; 491  : 	m_pStrategyItem->Stop();

  00086	8b 8e c4 00 00
	00		 mov	 ecx, DWORD PTR [esi+196]
  0008c	8b 01		 mov	 eax, DWORD PTR [ecx]
  0008e	ff 50 1c	 call	 DWORD PTR [eax+28]

; 492  : 	m_pStrategyItem->CalculateStatisticalInfo(Index.nStart, Index.nEnd);

  00091	8b 8e c4 00 00
	00		 mov	 ecx, DWORD PTR [esi+196]
  00097	ff 75 d8	 push	 DWORD PTR _Index$[ebp+4]
  0009a	ff 75 d4	 push	 DWORD PTR _Index$[ebp]
  0009d	8b 01		 mov	 eax, DWORD PTR [ecx]
  0009f	ff 50 44	 call	 DWORD PTR [eax+68]
$LN5@SetCalcula:
  000a2	8d 4d f0	 lea	 ecx, DWORD PTR _Index$[ebp+28]
  000a5	ff 15 00 00 00
	00		 call	 DWORD PTR __imp_??1?$CStringT@DV?$StrTraitMFC_DLL@DV?$ChTraitsCRT@D@ATL@@@@@ATL@@QAE@XZ
  000ab	8d 4d ec	 lea	 ecx, DWORD PTR _Index$[ebp+24]
  000ae	ff 15 00 00 00
	00		 call	 DWORD PTR __imp_??1?$CStringT@DV?$StrTraitMFC_DLL@DV?$ChTraitsCRT@D@ATL@@@@@ATL@@QAE@XZ
  000b4	8d 4d e8	 lea	 ecx, DWORD PTR _Index$[ebp+20]
  000b7	ff 15 00 00 00
	00		 call	 DWORD PTR __imp_??1?$CStringT@DV?$StrTraitMFC_DLL@DV?$ChTraitsCRT@D@ATL@@@@@ATL@@QAE@XZ
  000bd	8d 4d e4	 lea	 ecx, DWORD PTR _Index$[ebp+16]
  000c0	ff 15 00 00 00
	00		 call	 DWORD PTR __imp_??1?$CStringT@DV?$StrTraitMFC_DLL@DV?$ChTraitsCRT@D@ATL@@@@@ATL@@QAE@XZ
  000c6	8d 4d e0	 lea	 ecx, DWORD PTR _Index$[ebp+12]
  000c9	ff 15 00 00 00
	00		 call	 DWORD PTR __imp_??1?$CStringT@DV?$StrTraitMFC_DLL@DV?$ChTraitsCRT@D@ATL@@@@@ATL@@QAE@XZ
  000cf	8d 4d dc	 lea	 ecx, DWORD PTR _Index$[ebp+8]
  000d2	ff 15 00 00 00
	00		 call	 DWORD PTR __imp_??1?$CStringT@DV?$StrTraitMFC_DLL@DV?$ChTraitsCRT@D@ATL@@@@@ATL@@QAE@XZ

; 494  : }

  000d8	8b 4d f4	 mov	 ecx, DWORD PTR __$EHRec$[ebp]
  000db	64 89 0d 00 00
	00 00		 mov	 DWORD PTR fs:0, ecx
  000e2	59		 pop	 ecx
  000e3	5e		 pop	 esi
  000e4	8b e5		 mov	 esp, ebp
  000e6	5d		 pop	 ebp
  000e7	c2 04 00	 ret	 4
$LN10@SetCalcula:
; File C:\Program Files (x86)\Microsoft Visual Studio\2019\Community\VC\Tools\MSVC\14.29.30133\atlmfc\include\afxtempl.h

; 290  : 	AfxThrowInvalidArgException();

  000ea	e8 00 00 00 00	 call	 ?AfxThrowInvalidArgException@@YGXXZ ; AfxThrowInvalidArgException
$LN17@SetCalcula:
  000ef	cc		 int	 3
_TEXT	ENDS
;	COMDAT text$x
text$x	SEGMENT
__unwindfunclet$?SetCalculateData@CDlgAnalysis@@QAEXH@Z$0:
  00000	8d 4d d4	 lea	 ecx, DWORD PTR _Index$[ebp]
  00003	e9 00 00 00 00	 jmp	 ??1ST_DATAINDEX@@QAE@XZ
  00008	cc		 int	 3
  00009	cc		 int	 3
  0000a	cc		 int	 3
  0000b	cc		 int	 3
  0000c	cc		 int	 3
__ehhandler$?SetCalculateData@CDlgAnalysis@@QAEXH@Z:
  0000d	90		 npad	 1
  0000e	90		 npad	 1
  0000f	8b 54 24 08	 mov	 edx, DWORD PTR [esp+8]
  00013	8d 42 0c	 lea	 eax, DWORD PTR [edx+12]
  00016	8b 4a d8	 mov	 ecx, DWORD PTR [edx-40]
  00019	33 c8		 xor	 ecx, eax
  0001b	e8 00 00 00 00	 call	 @__security_check_cookie@4
  00020	b8 00 00 00 00	 mov	 eax, OFFSET __ehfuncinfo$?SetCalculateData@CDlgAnalysis@@QAEXH@Z
  00025	e9 00 00 00 00	 jmp	 ___CxxFrameHandler3
text$x	ENDS
?SetCalculateData@CDlgAnalysis@@QAEXH@Z ENDP		; CDlgAnalysis::SetCalculateData
; Function compile flags: /Ogtp
; File D:\git\src\IBK\IBK_DRFN\ProjSrc\SrcDrfn\Chart\HWSTRATEGYANALYSIS\DlgAnalysis.cpp
; File C:\Program Files (x86)\Microsoft Visual Studio\2019\Community\VC\Tools\MSVC\14.29.30133\atlmfc\include\atlsimpstr.h
; File D:\git\src\IBK\IBK_DRFN\ProjSrc\SrcDrfn\Chart\HWSTRATEGYANALYSIS\DlgAnalysis.cpp
; File C:\Program Files (x86)\Microsoft Visual Studio\2019\Community\VC\Tools\MSVC\14.29.30133\atlmfc\include\atlsimpstr.h
; File D:\git\src\IBK\IBK_DRFN\ProjSrc\SrcDrfn\Chart\HWSTRATEGYANALYSIS\DlgAnalysis.cpp
;	COMDAT ?InsertGubun@CDlgAnalysis@@QAEHAAV?$CStringT@DV?$StrTraitMFC_DLL@DV?$ChTraitsCRT@D@ATL@@@@@ATL@@H@Z
_TEXT	SEGMENT
_stTime$ = 8						; size = 4
_IsHtml$ = 12						; size = 4
?InsertGubun@CDlgAnalysis@@QAEHAAV?$CStringT@DV?$StrTraitMFC_DLL@DV?$ChTraitsCRT@D@ATL@@@@@ATL@@H@Z PROC ; CDlgAnalysis::InsertGubun, COMDAT
; _this$ = ecx

; 436  : {

  00000	55		 push	 ebp
  00001	8b ec		 mov	 ebp, esp

; 437  : 	switch(m_DivideState)

  00003	8b 81 04 01 00
	00		 mov	 eax, DWORD PTR [ecx+260]
  00009	56		 push	 esi
  0000a	57		 push	 edi
  0000b	83 f8 04	 cmp	 eax, 4
  0000e	0f 87 1e 01 00
	00		 ja	 $LN35@InsertGubu
  00014	ff 24 85 00 00
	00 00		 jmp	 DWORD PTR $LN44@InsertGubu[eax*4]
$LN4@InsertGubu:
; File C:\Program Files (x86)\Microsoft Visual Studio\2019\Community\VC\Tools\MSVC\14.29.30133\atlmfc\include\atlsimpstr.h

; 519  : 		return( GetData()->nDataLength );

  0001b	8b 75 08	 mov	 esi, DWORD PTR _stTime$[ebp]
  0001e	8b 06		 mov	 eax, DWORD PTR [esi]
  00020	8b 40 f4	 mov	 eax, DWORD PTR [eax-12]
; File D:\git\src\IBK\IBK_DRFN\ProjSrc\SrcDrfn\Chart\HWSTRATEGYANALYSIS\DlgAnalysis.cpp

; 407  : 	if(nSize == 7)

  00023	83 f8 07	 cmp	 eax, 7
  00026	75 0e		 jne	 SHORT $LN11@InsertGubu

; 408  : 	{
; 409  : 		str.Insert(0,'0');

  00028	6a 30		 push	 48			; 00000030H
  0002a	6a 00		 push	 0
  0002c	8b ce		 mov	 ecx, esi
  0002e	ff 15 00 00 00
	00		 call	 DWORD PTR __imp_?Insert@?$CStringT@DV?$StrTraitMFC_DLL@DV?$ChTraitsCRT@D@ATL@@@@@ATL@@QAEHHD@Z

; 410  : 		nSize++;
; 411  : 	}
; 412  : 	if(nSize<7) return;

  00034	eb 06		 jmp	 SHORT $LN42@InsertGubu
$LN11@InsertGubu:
  00036	0f 8c f6 00 00
	00		 jl	 $LN35@InsertGubu
$LN42@InsertGubu:

; 413  : 
; 414  : 	str.Insert(2,'/');

  0003c	6a 2f		 push	 47			; 0000002fH
  0003e	6a 02		 push	 2
  00040	8b ce		 mov	 ecx, esi
  00042	ff 15 00 00 00
	00		 call	 DWORD PTR __imp_?Insert@?$CStringT@DV?$StrTraitMFC_DLL@DV?$ChTraitsCRT@D@ATL@@@@@ATL@@QAEHHD@Z

; 415  : 	str.Insert(5,':');

  00048	6a 3a		 push	 58			; 0000003aH
  0004a	6a 05		 push	 5
  0004c	8b ce		 mov	 ecx, esi
  0004e	ff 15 00 00 00
	00		 call	 DWORD PTR __imp_?Insert@?$CStringT@DV?$StrTraitMFC_DLL@DV?$ChTraitsCRT@D@ATL@@@@@ATL@@QAEHHD@Z

; 416  : 	str.Insert(8,':');

  00054	6a 3a		 push	 58			; 0000003aH
  00056	6a 08		 push	 8
  00058	8b ce		 mov	 ecx, esi

; 438  : 	{
; 439  : 	case 0://
; 440  : 		InsertTimeGubun(stTime);	
; 441  : 		break;
; 442  : // 	case 4://
; 443  : // 		InsertHourGubun(stTime);
; 444  : // 		break;
; 445  : 	case 1://
; 446  : 		InsertMinuteGubun(stTime,IsHtml);
; 447  : 		break;
; 448  : 	case 2://
; 449  : 	case 3://
; 450  : 		InsertDateGubun(stTime);
; 451  : 		break;
; 452  : 	case 4://
; 453  : 		InsertMonthGubun(stTime);
; 454  : 		break;
; 455  : 	}
; 456  : 	return TRUE;

  0005a	ff 15 00 00 00
	00		 call	 DWORD PTR __imp_?Insert@?$CStringT@DV?$StrTraitMFC_DLL@DV?$ChTraitsCRT@D@ATL@@@@@ATL@@QAEHHD@Z
  00060	5f		 pop	 edi
  00061	b8 01 00 00 00	 mov	 eax, 1
  00066	5e		 pop	 esi

; 457  : }

  00067	5d		 pop	 ebp
  00068	c2 08 00	 ret	 8
$LN5@InsertGubu:
; File C:\Program Files (x86)\Microsoft Visual Studio\2019\Community\VC\Tools\MSVC\14.29.30133\atlmfc\include\atlsimpstr.h

; 519  : 		return( GetData()->nDataLength );

  0006b	8b 75 08	 mov	 esi, DWORD PTR _stTime$[ebp]
  0006e	8b 06		 mov	 eax, DWORD PTR [esi]
  00070	8b 78 f4	 mov	 edi, DWORD PTR [eax-12]
; File D:\git\src\IBK\IBK_DRFN\ProjSrc\SrcDrfn\Chart\HWSTRATEGYANALYSIS\DlgAnalysis.cpp

; 462  : 	if(nSize == 7)

  00073	83 ff 07	 cmp	 edi, 7
  00076	75 13		 jne	 SHORT $LN19@InsertGubu

; 463  : 	{
; 464  : 		str.Insert(0,'0');

  00078	6a 30		 push	 48			; 00000030H
  0007a	6a 00		 push	 0
  0007c	8b ce		 mov	 ecx, esi
  0007e	ff 15 00 00 00
	00		 call	 DWORD PTR __imp_?Insert@?$CStringT@DV?$StrTraitMFC_DLL@DV?$ChTraitsCRT@D@ATL@@@@@ATL@@QAEHHD@Z

; 465  : 		nSize++;

  00084	bf 08 00 00 00	 mov	 edi, 8

; 466  : 	}
; 467  : 	if(nSize<7) return;

  00089	eb 06		 jmp	 SHORT $LN43@InsertGubu
$LN19@InsertGubu:
  0008b	0f 8c a1 00 00
	00		 jl	 $LN35@InsertGubu
$LN43@InsertGubu:

; 468  : 	if(IsHtml)//When HTML File

  00091	6a 2f		 push	 47			; 0000002fH
  00093	8b ce		 mov	 ecx, esi
  00095	6a 02		 push	 2
  00097	ff 15 00 00 00
	00		 call	 DWORD PTR __imp_?Insert@?$CStringT@DV?$StrTraitMFC_DLL@DV?$ChTraitsCRT@D@ATL@@@@@ATL@@QAEHHD@Z
  0009d	83 7d 0c 00	 cmp	 DWORD PTR _IsHtml$[ebp], 0
  000a1	8b ce		 mov	 ecx, esi
  000a3	74 29		 je	 SHORT $LN21@InsertGubu

; 469  : 	{
; 470  : 		str.Insert(2,'/');
; 471  : 		str.Insert(5,"&nbsp;");

  000a5	68 00 00 00 00	 push	 OFFSET ??_C@_06ODLOODK@?$CGnbsp?$DL@
  000aa	6a 05		 push	 5
  000ac	ff 15 00 00 00
	00		 call	 DWORD PTR __imp_?Insert@?$CStringT@DV?$StrTraitMFC_DLL@DV?$ChTraitsCRT@D@ATL@@@@@ATL@@QAEHHPBD@Z

; 472  : 		str.Insert(nSize+5,":");

  000b2	68 00 00 00 00	 push	 OFFSET ??_C@_01JLIPDDHJ@?3@
  000b7	8d 47 05	 lea	 eax, DWORD PTR [edi+5]
  000ba	8b ce		 mov	 ecx, esi
  000bc	50		 push	 eax
  000bd	ff 15 00 00 00
	00		 call	 DWORD PTR __imp_?Insert@?$CStringT@DV?$StrTraitMFC_DLL@DV?$ChTraitsCRT@D@ATL@@@@@ATL@@QAEHHPBD@Z

; 438  : 	{
; 439  : 	case 0://
; 440  : 		InsertTimeGubun(stTime);	
; 441  : 		break;
; 442  : // 	case 4://
; 443  : // 		InsertHourGubun(stTime);
; 444  : // 		break;
; 445  : 	case 1://
; 446  : 		InsertMinuteGubun(stTime,IsHtml);
; 447  : 		break;
; 448  : 	case 2://
; 449  : 	case 3://
; 450  : 		InsertDateGubun(stTime);
; 451  : 		break;
; 452  : 	case 4://
; 453  : 		InsertMonthGubun(stTime);
; 454  : 		break;
; 455  : 	}
; 456  : 	return TRUE;

  000c3	5f		 pop	 edi
  000c4	b8 01 00 00 00	 mov	 eax, 1
  000c9	5e		 pop	 esi

; 457  : }

  000ca	5d		 pop	 ebp
  000cb	c2 08 00	 ret	 8
$LN21@InsertGubu:

; 477  : 		str.Insert(5,'/');

  000ce	6a 2f		 push	 47			; 0000002fH
  000d0	6a 05		 push	 5
  000d2	ff 15 00 00 00
	00		 call	 DWORD PTR __imp_?Insert@?$CStringT@DV?$StrTraitMFC_DLL@DV?$ChTraitsCRT@D@ATL@@@@@ATL@@QAEHHD@Z

; 478  : 		str.Insert(8,':');

  000d8	6a 3a		 push	 58			; 0000003aH
  000da	6a 08		 push	 8
  000dc	8b ce		 mov	 ecx, esi

; 438  : 	{
; 439  : 	case 0://
; 440  : 		InsertTimeGubun(stTime);	
; 441  : 		break;
; 442  : // 	case 4://
; 443  : // 		InsertHourGubun(stTime);
; 444  : // 		break;
; 445  : 	case 1://
; 446  : 		InsertMinuteGubun(stTime,IsHtml);
; 447  : 		break;
; 448  : 	case 2://
; 449  : 	case 3://
; 450  : 		InsertDateGubun(stTime);
; 451  : 		break;
; 452  : 	case 4://
; 453  : 		InsertMonthGubun(stTime);
; 454  : 		break;
; 455  : 	}
; 456  : 	return TRUE;

  000de	ff 15 00 00 00
	00		 call	 DWORD PTR __imp_?Insert@?$CStringT@DV?$StrTraitMFC_DLL@DV?$ChTraitsCRT@D@ATL@@@@@ATL@@QAEHHD@Z
  000e4	5f		 pop	 edi
  000e5	b8 01 00 00 00	 mov	 eax, 1
  000ea	5e		 pop	 esi

; 457  : }

  000eb	5d		 pop	 ebp
  000ec	c2 08 00	 ret	 8
$LN6@InsertGubu:

; 398  : 	if(str.GetLength()<4) return;

  000ef	8b 75 08	 mov	 esi, DWORD PTR _stTime$[ebp]
  000f2	8b 06		 mov	 eax, DWORD PTR [esi]
  000f4	83 78 f4 04	 cmp	 DWORD PTR [eax-12], 4
  000f8	7c 38		 jl	 SHORT $LN35@InsertGubu

; 399  : 	str.Insert(4,'/');

  000fa	6a 2f		 push	 47			; 0000002fH
  000fc	6a 04		 push	 4
  000fe	8b ce		 mov	 ecx, esi
  00100	ff 15 00 00 00
	00		 call	 DWORD PTR __imp_?Insert@?$CStringT@DV?$StrTraitMFC_DLL@DV?$ChTraitsCRT@D@ATL@@@@@ATL@@QAEHHD@Z

; 400  : 	str.Insert(7,'/');

  00106	6a 2f		 push	 47			; 0000002fH
  00108	6a 07		 push	 7
  0010a	8b ce		 mov	 ecx, esi

; 438  : 	{
; 439  : 	case 0://
; 440  : 		InsertTimeGubun(stTime);	
; 441  : 		break;
; 442  : // 	case 4://
; 443  : // 		InsertHourGubun(stTime);
; 444  : // 		break;
; 445  : 	case 1://
; 446  : 		InsertMinuteGubun(stTime,IsHtml);
; 447  : 		break;
; 448  : 	case 2://
; 449  : 	case 3://
; 450  : 		InsertDateGubun(stTime);
; 451  : 		break;
; 452  : 	case 4://
; 453  : 		InsertMonthGubun(stTime);
; 454  : 		break;
; 455  : 	}
; 456  : 	return TRUE;

  0010c	ff 15 00 00 00
	00		 call	 DWORD PTR __imp_?Insert@?$CStringT@DV?$StrTraitMFC_DLL@DV?$ChTraitsCRT@D@ATL@@@@@ATL@@QAEHHD@Z
  00112	5f		 pop	 edi
  00113	b8 01 00 00 00	 mov	 eax, 1
  00118	5e		 pop	 esi

; 457  : }

  00119	5d		 pop	 ebp
  0011a	c2 08 00	 ret	 8
$LN8@InsertGubu:

; 392  : 	if(str.GetLength()<4) return;

  0011d	8b 4d 08	 mov	 ecx, DWORD PTR _stTime$[ebp]
  00120	8b 01		 mov	 eax, DWORD PTR [ecx]
  00122	83 78 f4 04	 cmp	 DWORD PTR [eax-12], 4
  00126	7c 0a		 jl	 SHORT $LN35@InsertGubu

; 393  : 	str.Insert(4,'/');

  00128	6a 2f		 push	 47			; 0000002fH
  0012a	6a 04		 push	 4

; 438  : 	{
; 439  : 	case 0://
; 440  : 		InsertTimeGubun(stTime);	
; 441  : 		break;
; 442  : // 	case 4://
; 443  : // 		InsertHourGubun(stTime);
; 444  : // 		break;
; 445  : 	case 1://
; 446  : 		InsertMinuteGubun(stTime,IsHtml);
; 447  : 		break;
; 448  : 	case 2://
; 449  : 	case 3://
; 450  : 		InsertDateGubun(stTime);
; 451  : 		break;
; 452  : 	case 4://
; 453  : 		InsertMonthGubun(stTime);
; 454  : 		break;
; 455  : 	}
; 456  : 	return TRUE;

  0012c	ff 15 00 00 00
	00		 call	 DWORD PTR __imp_?Insert@?$CStringT@DV?$StrTraitMFC_DLL@DV?$ChTraitsCRT@D@ATL@@@@@ATL@@QAEHHD@Z
$LN35@InsertGubu:
  00132	5f		 pop	 edi
  00133	b8 01 00 00 00	 mov	 eax, 1
  00138	5e		 pop	 esi

; 457  : }

  00139	5d		 pop	 ebp
  0013a	c2 08 00	 ret	 8
  0013d	0f 1f 00	 npad	 3
$LN44@InsertGubu:
  00140	00 00 00 00	 DD	 $LN4@InsertGubu
  00144	00 00 00 00	 DD	 $LN5@InsertGubu
  00148	00 00 00 00	 DD	 $LN6@InsertGubu
  0014c	00 00 00 00	 DD	 $LN6@InsertGubu
  00150	00 00 00 00	 DD	 $LN8@InsertGubu
?InsertGubun@CDlgAnalysis@@QAEHAAV?$CStringT@DV?$StrTraitMFC_DLL@DV?$ChTraitsCRT@D@ATL@@@@@ATL@@H@Z ENDP ; CDlgAnalysis::InsertGubun
_TEXT	ENDS
; Function compile flags: /Ogtp
; File D:\git\src\IBK\IBK_DRFN\ProjSrc\SrcDrfn\Chart\HWSTRATEGYANALYSIS\DlgAnalysis.cpp
; File C:\Program Files (x86)\Microsoft Visual Studio\2019\Community\VC\Tools\MSVC\14.29.30133\atlmfc\include\atlsimpstr.h
; File D:\git\src\IBK\IBK_DRFN\ProjSrc\SrcDrfn\Chart\HWSTRATEGYANALYSIS\DlgAnalysis.cpp
; File C:\Program Files (x86)\Microsoft Visual Studio\2019\Community\VC\Tools\MSVC\14.29.30133\atlmfc\include\atlsimpstr.h
; File D:\git\src\IBK\IBK_DRFN\ProjSrc\SrcDrfn\Chart\HWSTRATEGYANALYSIS\DlgAnalysis.cpp
;	COMDAT ?InsertMinuteGubun@CDlgAnalysis@@QAEXAAV?$CStringT@DV?$StrTraitMFC_DLL@DV?$ChTraitsCRT@D@ATL@@@@@ATL@@H@Z
_TEXT	SEGMENT
_str$ = 8						; size = 4
_IsHtml$ = 12						; size = 4
?InsertMinuteGubun@CDlgAnalysis@@QAEXAAV?$CStringT@DV?$StrTraitMFC_DLL@DV?$ChTraitsCRT@D@ATL@@@@@ATL@@H@Z PROC ; CDlgAnalysis::InsertMinuteGubun, COMDAT
; _this$ = ecx

; 460  : {

  00000	55		 push	 ebp
  00001	8b ec		 mov	 ebp, esp
  00003	56		 push	 esi
; File C:\Program Files (x86)\Microsoft Visual Studio\2019\Community\VC\Tools\MSVC\14.29.30133\atlmfc\include\atlsimpstr.h

; 519  : 		return( GetData()->nDataLength );

  00004	8b 75 08	 mov	 esi, DWORD PTR _str$[ebp]
; File D:\git\src\IBK\IBK_DRFN\ProjSrc\SrcDrfn\Chart\HWSTRATEGYANALYSIS\DlgAnalysis.cpp

; 460  : {

  00007	57		 push	 edi
; File C:\Program Files (x86)\Microsoft Visual Studio\2019\Community\VC\Tools\MSVC\14.29.30133\atlmfc\include\atlsimpstr.h

; 519  : 		return( GetData()->nDataLength );

  00008	8b 06		 mov	 eax, DWORD PTR [esi]
  0000a	8b 78 f4	 mov	 edi, DWORD PTR [eax-12]
; File D:\git\src\IBK\IBK_DRFN\ProjSrc\SrcDrfn\Chart\HWSTRATEGYANALYSIS\DlgAnalysis.cpp

; 462  : 	if(nSize == 7)

  0000d	83 ff 07	 cmp	 edi, 7
  00010	75 13		 jne	 SHORT $LN2@InsertMinu

; 463  : 	{
; 464  : 		str.Insert(0,'0');

  00012	6a 30		 push	 48			; 00000030H
  00014	6a 00		 push	 0
  00016	8b ce		 mov	 ecx, esi
  00018	ff 15 00 00 00
	00		 call	 DWORD PTR __imp_?Insert@?$CStringT@DV?$StrTraitMFC_DLL@DV?$ChTraitsCRT@D@ATL@@@@@ATL@@QAEHHD@Z

; 465  : 		nSize++;

  0001e	bf 08 00 00 00	 mov	 edi, 8

; 466  : 	}
; 467  : 	if(nSize<7) return;

  00023	eb 02		 jmp	 SHORT $LN11@InsertMinu
$LN2@InsertMinu:
  00025	7c 4e		 jl	 SHORT $LN5@InsertMinu
$LN11@InsertMinu:

; 468  : 	if(IsHtml)//When HTML File

  00027	6a 2f		 push	 47			; 0000002fH
  00029	8b ce		 mov	 ecx, esi
  0002b	6a 02		 push	 2
  0002d	ff 15 00 00 00
	00		 call	 DWORD PTR __imp_?Insert@?$CStringT@DV?$StrTraitMFC_DLL@DV?$ChTraitsCRT@D@ATL@@@@@ATL@@QAEHHD@Z
  00033	83 7d 0c 00	 cmp	 DWORD PTR _IsHtml$[ebp], 0
  00037	8b ce		 mov	 ecx, esi
  00039	74 24		 je	 SHORT $LN4@InsertMinu

; 469  : 	{
; 470  : 		str.Insert(2,'/');
; 471  : 		str.Insert(5,"&nbsp;");

  0003b	68 00 00 00 00	 push	 OFFSET ??_C@_06ODLOODK@?$CGnbsp?$DL@
  00040	6a 05		 push	 5
  00042	ff 15 00 00 00
	00		 call	 DWORD PTR __imp_?Insert@?$CStringT@DV?$StrTraitMFC_DLL@DV?$ChTraitsCRT@D@ATL@@@@@ATL@@QAEHHPBD@Z

; 472  : 		str.Insert(nSize+5,":");

  00048	68 00 00 00 00	 push	 OFFSET ??_C@_01JLIPDDHJ@?3@
  0004d	8d 47 05	 lea	 eax, DWORD PTR [edi+5]
  00050	8b ce		 mov	 ecx, esi
  00052	50		 push	 eax
  00053	ff 15 00 00 00
	00		 call	 DWORD PTR __imp_?Insert@?$CStringT@DV?$StrTraitMFC_DLL@DV?$ChTraitsCRT@D@ATL@@@@@ATL@@QAEHHPBD@Z
  00059	5f		 pop	 edi

; 479  : 	}
; 480  : }

  0005a	5e		 pop	 esi
  0005b	5d		 pop	 ebp
  0005c	c2 08 00	 ret	 8
$LN4@InsertMinu:

; 473  : 	}
; 474  : 	else
; 475  : 	{
; 476  : 		str.Insert(2,'/');
; 477  : 		str.Insert(5,'/');

  0005f	6a 2f		 push	 47			; 0000002fH
  00061	6a 05		 push	 5
  00063	ff 15 00 00 00
	00		 call	 DWORD PTR __imp_?Insert@?$CStringT@DV?$StrTraitMFC_DLL@DV?$ChTraitsCRT@D@ATL@@@@@ATL@@QAEHHD@Z

; 478  : 		str.Insert(8,':');

  00069	6a 3a		 push	 58			; 0000003aH
  0006b	6a 08		 push	 8
  0006d	8b ce		 mov	 ecx, esi
  0006f	ff 15 00 00 00
	00		 call	 DWORD PTR __imp_?Insert@?$CStringT@DV?$StrTraitMFC_DLL@DV?$ChTraitsCRT@D@ATL@@@@@ATL@@QAEHHD@Z
$LN5@InsertMinu:

; 479  : 	}
; 480  : }

  00075	5f		 pop	 edi
  00076	5e		 pop	 esi
  00077	5d		 pop	 ebp
  00078	c2 08 00	 ret	 8
?InsertMinuteGubun@CDlgAnalysis@@QAEXAAV?$CStringT@DV?$StrTraitMFC_DLL@DV?$ChTraitsCRT@D@ATL@@@@@ATL@@H@Z ENDP ; CDlgAnalysis::InsertMinuteGubun
_TEXT	ENDS
; Function compile flags: /Ogtp
; File D:\git\src\IBK\IBK_DRFN\ProjSrc\SrcDrfn\Chart\HWSTRATEGYANALYSIS\DlgAnalysis.cpp
; File C:\Program Files (x86)\Microsoft Visual Studio\2019\Community\VC\Tools\MSVC\14.29.30133\atlmfc\include\atlsimpstr.h
; File D:\git\src\IBK\IBK_DRFN\ProjSrc\SrcDrfn\Chart\HWSTRATEGYANALYSIS\DlgAnalysis.cpp
;	COMDAT ?InsertHourGubun@CDlgAnalysis@@QAEXAAV?$CStringT@DV?$StrTraitMFC_DLL@DV?$ChTraitsCRT@D@ATL@@@@@ATL@@@Z
_TEXT	SEGMENT
_str$ = 8						; size = 4
?InsertHourGubun@CDlgAnalysis@@QAEXAAV?$CStringT@DV?$StrTraitMFC_DLL@DV?$ChTraitsCRT@D@ATL@@@@@ATL@@@Z PROC ; CDlgAnalysis::InsertHourGubun, COMDAT
; _this$ = ecx

; 420  : {

  00000	55		 push	 ebp
  00001	8b ec		 mov	 ebp, esp
  00003	56		 push	 esi
; File C:\Program Files (x86)\Microsoft Visual Studio\2019\Community\VC\Tools\MSVC\14.29.30133\atlmfc\include\atlsimpstr.h

; 519  : 		return( GetData()->nDataLength );

  00004	8b 75 08	 mov	 esi, DWORD PTR _str$[ebp]
  00007	8b 06		 mov	 eax, DWORD PTR [esi]
  00009	8b 40 f4	 mov	 eax, DWORD PTR [eax-12]
; File D:\git\src\IBK\IBK_DRFN\ProjSrc\SrcDrfn\Chart\HWSTRATEGYANALYSIS\DlgAnalysis.cpp

; 422  : 	if(nSize == 7)

  0000c	83 f8 07	 cmp	 eax, 7
  0000f	75 0e		 jne	 SHORT $LN2@InsertHour

; 423  : 	{
; 424  : 		str.Insert(0,'0');

  00011	6a 30		 push	 48			; 00000030H
  00013	6a 00		 push	 0
  00015	8b ce		 mov	 ecx, esi
  00017	ff 15 00 00 00
	00		 call	 DWORD PTR __imp_?Insert@?$CStringT@DV?$StrTraitMFC_DLL@DV?$ChTraitsCRT@D@ATL@@@@@ATL@@QAEHHD@Z

; 425  : 		nSize++;
; 426  : 	}
; 427  : 	if(nSize<7) return;

  0001d	eb 02		 jmp	 SHORT $LN9@InsertHour
$LN2@InsertHour:
  0001f	7c 24		 jl	 SHORT $LN1@InsertHour
$LN9@InsertHour:

; 428  : 
; 429  : 	str.Insert(2,'/');

  00021	6a 2f		 push	 47			; 0000002fH
  00023	6a 02		 push	 2
  00025	8b ce		 mov	 ecx, esi
  00027	ff 15 00 00 00
	00		 call	 DWORD PTR __imp_?Insert@?$CStringT@DV?$StrTraitMFC_DLL@DV?$ChTraitsCRT@D@ATL@@@@@ATL@@QAEHHD@Z

; 430  : 	str.Insert(5,'/');

  0002d	6a 2f		 push	 47			; 0000002fH
  0002f	6a 05		 push	 5
  00031	8b ce		 mov	 ecx, esi
  00033	ff 15 00 00 00
	00		 call	 DWORD PTR __imp_?Insert@?$CStringT@DV?$StrTraitMFC_DLL@DV?$ChTraitsCRT@D@ATL@@@@@ATL@@QAEHHD@Z

; 431  : 	str.Insert(8,':');

  00039	6a 3a		 push	 58			; 0000003aH
  0003b	6a 08		 push	 8
  0003d	8b ce		 mov	 ecx, esi
  0003f	ff 15 00 00 00
	00		 call	 DWORD PTR __imp_?Insert@?$CStringT@DV?$StrTraitMFC_DLL@DV?$ChTraitsCRT@D@ATL@@@@@ATL@@QAEHHD@Z
$LN1@InsertHour:
  00045	5e		 pop	 esi

; 432  : }

  00046	5d		 pop	 ebp
  00047	c2 04 00	 ret	 4
?InsertHourGubun@CDlgAnalysis@@QAEXAAV?$CStringT@DV?$StrTraitMFC_DLL@DV?$ChTraitsCRT@D@ATL@@@@@ATL@@@Z ENDP ; CDlgAnalysis::InsertHourGubun
_TEXT	ENDS
; Function compile flags: /Ogtp
; File D:\git\src\IBK\IBK_DRFN\ProjSrc\SrcDrfn\Chart\HWSTRATEGYANALYSIS\DlgAnalysis.cpp
; File C:\Program Files (x86)\Microsoft Visual Studio\2019\Community\VC\Tools\MSVC\14.29.30133\atlmfc\include\atlsimpstr.h
; File D:\git\src\IBK\IBK_DRFN\ProjSrc\SrcDrfn\Chart\HWSTRATEGYANALYSIS\DlgAnalysis.cpp
;	COMDAT ?InsertTimeGubun@CDlgAnalysis@@QAEXAAV?$CStringT@DV?$StrTraitMFC_DLL@DV?$ChTraitsCRT@D@ATL@@@@@ATL@@@Z
_TEXT	SEGMENT
_str$ = 8						; size = 4
?InsertTimeGubun@CDlgAnalysis@@QAEXAAV?$CStringT@DV?$StrTraitMFC_DLL@DV?$ChTraitsCRT@D@ATL@@@@@ATL@@@Z PROC ; CDlgAnalysis::InsertTimeGubun, COMDAT
; _this$ = ecx

; 405  : {

  00000	55		 push	 ebp
  00001	8b ec		 mov	 ebp, esp
  00003	56		 push	 esi
; File C:\Program Files (x86)\Microsoft Visual Studio\2019\Community\VC\Tools\MSVC\14.29.30133\atlmfc\include\atlsimpstr.h

; 519  : 		return( GetData()->nDataLength );

  00004	8b 75 08	 mov	 esi, DWORD PTR _str$[ebp]
  00007	8b 06		 mov	 eax, DWORD PTR [esi]
  00009	8b 40 f4	 mov	 eax, DWORD PTR [eax-12]
; File D:\git\src\IBK\IBK_DRFN\ProjSrc\SrcDrfn\Chart\HWSTRATEGYANALYSIS\DlgAnalysis.cpp

; 407  : 	if(nSize == 7)

  0000c	83 f8 07	 cmp	 eax, 7
  0000f	75 0e		 jne	 SHORT $LN2@InsertTime

; 408  : 	{
; 409  : 		str.Insert(0,'0');

  00011	6a 30		 push	 48			; 00000030H
  00013	6a 00		 push	 0
  00015	8b ce		 mov	 ecx, esi
  00017	ff 15 00 00 00
	00		 call	 DWORD PTR __imp_?Insert@?$CStringT@DV?$StrTraitMFC_DLL@DV?$ChTraitsCRT@D@ATL@@@@@ATL@@QAEHHD@Z

; 410  : 		nSize++;
; 411  : 	}
; 412  : 	if(nSize<7) return;

  0001d	eb 02		 jmp	 SHORT $LN9@InsertTime
$LN2@InsertTime:
  0001f	7c 24		 jl	 SHORT $LN1@InsertTime
$LN9@InsertTime:

; 413  : 
; 414  : 	str.Insert(2,'/');

  00021	6a 2f		 push	 47			; 0000002fH
  00023	6a 02		 push	 2
  00025	8b ce		 mov	 ecx, esi
  00027	ff 15 00 00 00
	00		 call	 DWORD PTR __imp_?Insert@?$CStringT@DV?$StrTraitMFC_DLL@DV?$ChTraitsCRT@D@ATL@@@@@ATL@@QAEHHD@Z

; 415  : 	str.Insert(5,':');

  0002d	6a 3a		 push	 58			; 0000003aH
  0002f	6a 05		 push	 5
  00031	8b ce		 mov	 ecx, esi
  00033	ff 15 00 00 00
	00		 call	 DWORD PTR __imp_?Insert@?$CStringT@DV?$StrTraitMFC_DLL@DV?$ChTraitsCRT@D@ATL@@@@@ATL@@QAEHHD@Z

; 416  : 	str.Insert(8,':');

  00039	6a 3a		 push	 58			; 0000003aH
  0003b	6a 08		 push	 8
  0003d	8b ce		 mov	 ecx, esi
  0003f	ff 15 00 00 00
	00		 call	 DWORD PTR __imp_?Insert@?$CStringT@DV?$StrTraitMFC_DLL@DV?$ChTraitsCRT@D@ATL@@@@@ATL@@QAEHHD@Z
$LN1@InsertTime:
  00045	5e		 pop	 esi

; 417  : }

  00046	5d		 pop	 ebp
  00047	c2 04 00	 ret	 4
?InsertTimeGubun@CDlgAnalysis@@QAEXAAV?$CStringT@DV?$StrTraitMFC_DLL@DV?$ChTraitsCRT@D@ATL@@@@@ATL@@@Z ENDP ; CDlgAnalysis::InsertTimeGubun
_TEXT	ENDS
; Function compile flags: /Ogtp
; File D:\git\src\IBK\IBK_DRFN\ProjSrc\SrcDrfn\Chart\HWSTRATEGYANALYSIS\DlgAnalysis.cpp
;	COMDAT ?InsertDateGubun@CDlgAnalysis@@QAEXAAV?$CStringT@DV?$StrTraitMFC_DLL@DV?$ChTraitsCRT@D@ATL@@@@@ATL@@@Z
_TEXT	SEGMENT
_str$ = 8						; size = 4
?InsertDateGubun@CDlgAnalysis@@QAEXAAV?$CStringT@DV?$StrTraitMFC_DLL@DV?$ChTraitsCRT@D@ATL@@@@@ATL@@@Z PROC ; CDlgAnalysis::InsertDateGubun, COMDAT
; _this$ = ecx

; 397  : {

  00000	55		 push	 ebp
  00001	8b ec		 mov	 ebp, esp
  00003	56		 push	 esi

; 398  : 	if(str.GetLength()<4) return;

  00004	8b 75 08	 mov	 esi, DWORD PTR _str$[ebp]
  00007	8b 06		 mov	 eax, DWORD PTR [esi]
  00009	83 78 f4 04	 cmp	 DWORD PTR [eax-12], 4
  0000d	7c 18		 jl	 SHORT $LN1@InsertDate

; 399  : 	str.Insert(4,'/');

  0000f	6a 2f		 push	 47			; 0000002fH
  00011	6a 04		 push	 4
  00013	8b ce		 mov	 ecx, esi
  00015	ff 15 00 00 00
	00		 call	 DWORD PTR __imp_?Insert@?$CStringT@DV?$StrTraitMFC_DLL@DV?$ChTraitsCRT@D@ATL@@@@@ATL@@QAEHHD@Z

; 400  : 	str.Insert(7,'/');

  0001b	6a 2f		 push	 47			; 0000002fH
  0001d	6a 07		 push	 7
  0001f	8b ce		 mov	 ecx, esi
  00021	ff 15 00 00 00
	00		 call	 DWORD PTR __imp_?Insert@?$CStringT@DV?$StrTraitMFC_DLL@DV?$ChTraitsCRT@D@ATL@@@@@ATL@@QAEHHD@Z
$LN1@InsertDate:
  00027	5e		 pop	 esi

; 401  : }

  00028	5d		 pop	 ebp
  00029	c2 04 00	 ret	 4
?InsertDateGubun@CDlgAnalysis@@QAEXAAV?$CStringT@DV?$StrTraitMFC_DLL@DV?$ChTraitsCRT@D@ATL@@@@@ATL@@@Z ENDP ; CDlgAnalysis::InsertDateGubun
_TEXT	ENDS
; Function compile flags: /Ogtp
; File D:\git\src\IBK\IBK_DRFN\ProjSrc\SrcDrfn\Chart\HWSTRATEGYANALYSIS\DlgAnalysis.cpp
;	COMDAT ?InsertMonthGubun@CDlgAnalysis@@QAEXAAV?$CStringT@DV?$StrTraitMFC_DLL@DV?$ChTraitsCRT@D@ATL@@@@@ATL@@@Z
_TEXT	SEGMENT
_str$ = 8						; size = 4
?InsertMonthGubun@CDlgAnalysis@@QAEXAAV?$CStringT@DV?$StrTraitMFC_DLL@DV?$ChTraitsCRT@D@ATL@@@@@ATL@@@Z PROC ; CDlgAnalysis::InsertMonthGubun, COMDAT
; _this$ = ecx

; 391  : {

  00000	55		 push	 ebp
  00001	8b ec		 mov	 ebp, esp

; 392  : 	if(str.GetLength()<4) return;

  00003	8b 4d 08	 mov	 ecx, DWORD PTR _str$[ebp]
  00006	8b 01		 mov	 eax, DWORD PTR [ecx]
  00008	83 78 f4 04	 cmp	 DWORD PTR [eax-12], 4
  0000c	7c 0a		 jl	 SHORT $LN1@InsertMont

; 393  : 	str.Insert(4,'/');

  0000e	6a 2f		 push	 47			; 0000002fH
  00010	6a 04		 push	 4
  00012	ff 15 00 00 00
	00		 call	 DWORD PTR __imp_?Insert@?$CStringT@DV?$StrTraitMFC_DLL@DV?$ChTraitsCRT@D@ATL@@@@@ATL@@QAEHHD@Z
$LN1@InsertMont:

; 394  : }

  00018	5d		 pop	 ebp
  00019	c2 04 00	 ret	 4
?InsertMonthGubun@CDlgAnalysis@@QAEXAAV?$CStringT@DV?$StrTraitMFC_DLL@DV?$ChTraitsCRT@D@ATL@@@@@ATL@@@Z ENDP ; CDlgAnalysis::InsertMonthGubun
_TEXT	ENDS
; Function compile flags: /Ogtp
; File D:\git\src\IBK\IBK_DRFN\ProjSrc\SrcDrfn\Chart\HWSTRATEGYANALYSIS\DlgAnalysis.cpp
; File C:\Program Files (x86)\Microsoft Visual Studio\2019\Community\VC\Tools\MSVC\14.29.30133\atlmfc\include\cstringt.h
; File D:\git\src\IBK\IBK_DRFN\ProjSrc\SrcDrfn\Chart\HWSTRATEGYANALYSIS\DlgAnalysis.cpp
; File C:\Program Files (x86)\Microsoft Visual Studio\2019\Community\VC\Tools\MSVC\14.29.30133\atlmfc\include\cstringt.h
; File D:\git\src\IBK\IBK_DRFN\ProjSrc\SrcDrfn\Chart\HWSTRATEGYANALYSIS\DlgAnalysis.cpp
; File C:\Program Files (x86)\Microsoft Visual Studio\2019\Community\VC\Tools\MSVC\14.29.30133\atlmfc\include\atlsimpstr.h
; File D:\git\src\IBK\IBK_DRFN\ProjSrc\SrcDrfn\Chart\HWSTRATEGYANALYSIS\DlgAnalysis.cpp
; File C:\Program Files (x86)\Microsoft Visual Studio\2019\Community\VC\Tools\MSVC\14.29.30133\atlmfc\include\afxcoll.inl
; File D:\git\src\IBK\IBK_DRFN\ProjSrc\SrcDrfn\Chart\HWSTRATEGYANALYSIS\DlgAnalysis.cpp
; File C:\Program Files (x86)\Microsoft Visual Studio\2019\Community\VC\Tools\MSVC\14.29.30133\atlmfc\include\afxcoll.inl
; File D:\git\src\IBK\IBK_DRFN\ProjSrc\SrcDrfn\Chart\HWSTRATEGYANALYSIS\DlgAnalysis.cpp
; File C:\Program Files (x86)\Microsoft Visual Studio\2019\Community\VC\Tools\MSVC\14.29.30133\atlmfc\include\afxcoll.inl
; File D:\git\src\IBK\IBK_DRFN\ProjSrc\SrcDrfn\Chart\HWSTRATEGYANALYSIS\DlgAnalysis.cpp
; File C:\Program Files (x86)\Microsoft Visual Studio\2019\Community\VC\Tools\MSVC\14.29.30133\atlmfc\include\afxcoll.inl
; File D:\git\src\IBK\IBK_DRFN\ProjSrc\SrcDrfn\Chart\HWSTRATEGYANALYSIS\DlgAnalysis.cpp
;	COMDAT ?InitSTLoad@CDlgAnalysis@@QAEXXZ
_TEXT	SEGMENT
$T2 = -28						; size = 4
$T3 = -24						; size = 4
_strSystemPath$ = -20					; size = 4
_strUserPath$ = -16					; size = 4
__$EHRec$ = -12						; size = 12
?InitSTLoad@CDlgAnalysis@@QAEXXZ PROC			; CDlgAnalysis::InitSTLoad, COMDAT
; _this$ = ecx

; 86   : {

  00000	55		 push	 ebp
  00001	8b ec		 mov	 ebp, esp
  00003	6a ff		 push	 -1
  00005	68 00 00 00 00	 push	 __ehhandler$?InitSTLoad@CDlgAnalysis@@QAEXXZ
  0000a	64 a1 00 00 00
	00		 mov	 eax, DWORD PTR fs:0
  00010	50		 push	 eax
  00011	83 ec 10	 sub	 esp, 16			; 00000010H
  00014	53		 push	 ebx
  00015	56		 push	 esi
  00016	57		 push	 edi
  00017	a1 00 00 00 00	 mov	 eax, DWORD PTR ___security_cookie
  0001c	33 c5		 xor	 eax, ebp
  0001e	50		 push	 eax
  0001f	8d 45 f4	 lea	 eax, DWORD PTR __$EHRec$[ebp]
  00022	64 a3 00 00 00
	00		 mov	 DWORD PTR fs:0, eax
  00028	8b f1		 mov	 esi, ecx
; File C:\Program Files (x86)\Microsoft Visual Studio\2019\Community\VC\Tools\MSVC\14.29.30133\atlmfc\include\cstringt.h

; 2486 : 		return(str1.Compare(psz2) == 0);

  0002a	68 00 00 00 00	 push	 OFFSET ??_C@_00CNPNBAHC@@
  0002f	8d 8e e4 00 00
	00		 lea	 ecx, DWORD PTR [esi+228]
  00035	ff 15 00 00 00
	00		 call	 DWORD PTR __imp_?Compare@?$CStringT@DV?$StrTraitMFC_DLL@DV?$ChTraitsCRT@D@ATL@@@@@ATL@@QBEHPBD@Z
  0003b	85 c0		 test	 eax, eax
; File D:\git\src\IBK\IBK_DRFN\ProjSrc\SrcDrfn\Chart\HWSTRATEGYANALYSIS\DlgAnalysis.cpp

; 88   : 	if(m_stCode=="" || m_stSTName=="") 

  0003d	0f 84 d7 01 00
	00		 je	 $LN3@InitSTLoad
  00043	8d be ec 00 00
	00		 lea	 edi, DWORD PTR [esi+236]
; File C:\Program Files (x86)\Microsoft Visual Studio\2019\Community\VC\Tools\MSVC\14.29.30133\atlmfc\include\cstringt.h

; 2486 : 		return(str1.Compare(psz2) == 0);

  00049	68 00 00 00 00	 push	 OFFSET ??_C@_00CNPNBAHC@@
  0004e	8b cf		 mov	 ecx, edi
  00050	ff 15 00 00 00
	00		 call	 DWORD PTR __imp_?Compare@?$CStringT@DV?$StrTraitMFC_DLL@DV?$ChTraitsCRT@D@ATL@@@@@ATL@@QBEHPBD@Z
  00056	85 c0		 test	 eax, eax
; File D:\git\src\IBK\IBK_DRFN\ProjSrc\SrcDrfn\Chart\HWSTRATEGYANALYSIS\DlgAnalysis.cpp

; 88   : 	if(m_stCode=="" || m_stSTName=="") 

  00058	0f 84 bc 01 00
	00		 je	 $LN3@InitSTLoad

; 91   : 		return;
; 92   : 	}
; 93   : 	//m_stSTName.Delete(m_stSTName.GetLength()-5,m_stSTName.GetLength());
; 94   : 	int nEndPos = -1;
; 95   : 	if((nEndPos = m_stSTName.Find(gSTGubunKey)) != -1)

  0005e	6a 00		 push	 0
  00060	6a 5e		 push	 94			; 0000005eH
  00062	8b cf		 mov	 ecx, edi
  00064	ff 15 00 00 00
	00		 call	 DWORD PTR __imp_?Find@?$CStringT@DV?$StrTraitMFC_DLL@DV?$ChTraitsCRT@D@ATL@@@@@ATL@@QBEHDH@Z
  0006a	83 f8 ff	 cmp	 eax, -1
  0006d	74 2d		 je	 SHORT $LN4@InitSTLoad

; 96   : 		m_stSTName = m_stSTName.Left(nEndPos);

  0006f	50		 push	 eax
  00070	8d 45 e8	 lea	 eax, DWORD PTR $T3[ebp]
  00073	8b cf		 mov	 ecx, edi
  00075	50		 push	 eax
  00076	ff 15 00 00 00
	00		 call	 DWORD PTR __imp_?Left@?$CStringT@DV?$StrTraitMFC_DLL@DV?$ChTraitsCRT@D@ATL@@@@@ATL@@QBE?AV12@H@Z
  0007c	50		 push	 eax
  0007d	8b cf		 mov	 ecx, edi
  0007f	c7 45 fc 00 00
	00 00		 mov	 DWORD PTR __$EHRec$[ebp+8], 0
  00086	ff 15 00 00 00
	00		 call	 DWORD PTR __imp_??4?$CStringT@DV?$StrTraitMFC_DLL@DV?$ChTraitsCRT@D@ATL@@@@@ATL@@QAEAAV01@ABV01@@Z
  0008c	8d 4d e8	 lea	 ecx, DWORD PTR $T3[ebp]
  0008f	c7 45 fc ff ff
	ff ff		 mov	 DWORD PTR __$EHRec$[ebp+8], -1
  00096	ff 15 00 00 00
	00		 call	 DWORD PTR __imp_??1?$CStringT@DV?$StrTraitMFC_DLL@DV?$ChTraitsCRT@D@ATL@@@@@ATL@@QAE@XZ
$LN4@InitSTLoad:

; 97   : 	if((nEndPos = m_stSTName.Find('.')) != -1)

  0009c	6a 00		 push	 0
  0009e	6a 2e		 push	 46			; 0000002eH
  000a0	8b cf		 mov	 ecx, edi
  000a2	ff 15 00 00 00
	00		 call	 DWORD PTR __imp_?Find@?$CStringT@DV?$StrTraitMFC_DLL@DV?$ChTraitsCRT@D@ATL@@@@@ATL@@QBEHDH@Z
  000a8	83 f8 ff	 cmp	 eax, -1
  000ab	74 2d		 je	 SHORT $LN5@InitSTLoad

; 98   : 		m_stSTName = m_stSTName.Left(nEndPos);

  000ad	50		 push	 eax
  000ae	8d 45 e4	 lea	 eax, DWORD PTR $T2[ebp]
  000b1	8b cf		 mov	 ecx, edi
  000b3	50		 push	 eax
  000b4	ff 15 00 00 00
	00		 call	 DWORD PTR __imp_?Left@?$CStringT@DV?$StrTraitMFC_DLL@DV?$ChTraitsCRT@D@ATL@@@@@ATL@@QBE?AV12@H@Z
  000ba	50		 push	 eax
  000bb	8b cf		 mov	 ecx, edi
  000bd	c7 45 fc 01 00
	00 00		 mov	 DWORD PTR __$EHRec$[ebp+8], 1
  000c4	ff 15 00 00 00
	00		 call	 DWORD PTR __imp_??4?$CStringT@DV?$StrTraitMFC_DLL@DV?$ChTraitsCRT@D@ATL@@@@@ATL@@QAEAAV01@ABV01@@Z
  000ca	8d 4d e4	 lea	 ecx, DWORD PTR $T2[ebp]
  000cd	c7 45 fc ff ff
	ff ff		 mov	 DWORD PTR __$EHRec$[ebp+8], -1
  000d4	ff 15 00 00 00
	00		 call	 DWORD PTR __imp_??1?$CStringT@DV?$StrTraitMFC_DLL@DV?$ChTraitsCRT@D@ATL@@@@@ATL@@QAE@XZ
$LN5@InitSTLoad:

; 99   : 
; 100  : 	if(m_pdlgInfo)

  000da	8b 8e dc 00 00
	00		 mov	 ecx, DWORD PTR [esi+220]
  000e0	85 c9		 test	 ecx, ecx
  000e2	74 17		 je	 SHORT $LN8@InitSTLoad
; File C:\Program Files (x86)\Microsoft Visual Studio\2019\Community\VC\Tools\MSVC\14.29.30133\atlmfc\include\atlsimpstr.h

; 519  : 		return( GetData()->nDataLength );

  000e4	8b 86 e4 00 00
	00		 mov	 eax, DWORD PTR [esi+228]
; File D:\git\src\IBK\IBK_DRFN\ProjSrc\SrcDrfn\Chart\HWSTRATEGYANALYSIS\DlgAnalysis.cpp

; 102  : 		if(m_stCode.GetLength()>6)

  000ea	83 78 f4 06	 cmp	 DWORD PTR [eax-12], 6
  000ee	7e 04		 jle	 SHORT $LN7@InitSTLoad

; 103  : 			m_pdlgInfo->InitCodeGubun(FALSE); // EC 

  000f0	6a 00		 push	 0
  000f2	eb 02		 jmp	 SHORT $LN68@InitSTLoad
$LN7@InitSTLoad:

; 104  : 		else
; 105  : 			m_pdlgInfo->InitCodeGubun(TRUE); // AOAEC 

  000f4	6a 01		 push	 1
$LN68@InitSTLoad:

; 108  : 	m_stArrayPath.RemoveAll();

  000f6	e8 00 00 00 00	 call	 ?InitCodeGubun@CInfoRight@@QAEXH@Z ; CInfoRight::InitCodeGubun
$LN8@InitSTLoad:
; File C:\Program Files (x86)\Microsoft Visual Studio\2019\Community\VC\Tools\MSVC\14.29.30133\atlmfc\include\afxcoll.inl

; 286  : 	{ SetSize(0); }

  000fb	6a ff		 push	 -1
; File D:\git\src\IBK\IBK_DRFN\ProjSrc\SrcDrfn\Chart\HWSTRATEGYANALYSIS\DlgAnalysis.cpp

; 108  : 	m_stArrayPath.RemoveAll();

  000fd	8d be 1c 01 00
	00		 lea	 edi, DWORD PTR [esi+284]
; File C:\Program Files (x86)\Microsoft Visual Studio\2019\Community\VC\Tools\MSVC\14.29.30133\atlmfc\include\afxcoll.inl

; 286  : 	{ SetSize(0); }

  00103	6a 00		 push	 0
  00105	8b cf		 mov	 ecx, edi
  00107	e8 00 00 00 00	 call	 ?SetSize@CStringArray@@QAEXHH@Z ; CStringArray::SetSize
; File D:\git\src\IBK\IBK_DRFN\ProjSrc\SrcDrfn\Chart\HWSTRATEGYANALYSIS\DlgAnalysis.cpp

; 125  : 	CString strSystemPath = m_strDataDir + "\\STData\\SD";

  0010c	68 00 00 00 00	 push	 OFFSET ??_C@_0L@FEICBMFP@?2STData?2SD@
  00111	8d 86 bc 00 00
	00		 lea	 eax, DWORD PTR [esi+188]
  00117	50		 push	 eax
  00118	8d 45 ec	 lea	 eax, DWORD PTR _strSystemPath$[ebp]
  0011b	50		 push	 eax
  0011c	e8 00 00 00 00	 call	 ??HATL@@YA?AV?$CStringT@DV?$StrTraitMFC_DLL@DV?$ChTraitsCRT@D@ATL@@@@@0@ABV10@PBD@Z ; ATL::operator+

; 126  : 	CString strUserPath = m_strUserDir + "\\STData\\SD";

  00121	68 00 00 00 00	 push	 OFFSET ??_C@_0L@FEICBMFP@?2STData?2SD@
  00126	8d 86 b8 00 00
	00		 lea	 eax, DWORD PTR [esi+184]
  0012c	c7 45 fc 02 00
	00 00		 mov	 DWORD PTR __$EHRec$[ebp+8], 2
  00133	50		 push	 eax
  00134	8d 45 f0	 lea	 eax, DWORD PTR _strUserPath$[ebp]
  00137	50		 push	 eax
  00138	e8 00 00 00 00	 call	 ??HATL@@YA?AV?$CStringT@DV?$StrTraitMFC_DLL@DV?$ChTraitsCRT@D@ATL@@@@@0@ABV10@PBD@Z ; ATL::operator+
  0013d	83 c4 18	 add	 esp, 24			; 00000018H
; File C:\Program Files (x86)\Microsoft Visual Studio\2019\Community\VC\Tools\MSVC\14.29.30133\atlmfc\include\afxcoll.inl

; 321  : 		SetAtGrow(nIndex, newElement);

  00140	8d 45 ec	 lea	 eax, DWORD PTR _strSystemPath$[ebp]
; File D:\git\src\IBK\IBK_DRFN\ProjSrc\SrcDrfn\Chart\HWSTRATEGYANALYSIS\DlgAnalysis.cpp

; 126  : 	CString strUserPath = m_strUserDir + "\\STData\\SD";

  00143	c6 45 fc 03	 mov	 BYTE PTR __$EHRec$[ebp+8], 3
; File C:\Program Files (x86)\Microsoft Visual Studio\2019\Community\VC\Tools\MSVC\14.29.30133\atlmfc\include\afxcoll.inl

; 321  : 		SetAtGrow(nIndex, newElement);

  00147	50		 push	 eax
  00148	ff 77 08	 push	 DWORD PTR [edi+8]
  0014b	8b cf		 mov	 ecx, edi
  0014d	e8 00 00 00 00	 call	 ?SetAtGrow@CStringArray@@QAEXHABV?$CStringT@DV?$StrTraitMFC_DLL@DV?$ChTraitsCRT@D@ATL@@@@@ATL@@@Z ; CStringArray::SetAtGrow
  00152	8d 45 f0	 lea	 eax, DWORD PTR _strUserPath$[ebp]
  00155	8b cf		 mov	 ecx, edi
  00157	50		 push	 eax
  00158	ff 77 08	 push	 DWORD PTR [edi+8]
  0015b	e8 00 00 00 00	 call	 ?SetAtGrow@CStringArray@@QAEXHABV?$CStringT@DV?$StrTraitMFC_DLL@DV?$ChTraitsCRT@D@ATL@@@@@ATL@@@Z ; CStringArray::SetAtGrow
; File D:\git\src\IBK\IBK_DRFN\ProjSrc\SrcDrfn\Chart\HWSTRATEGYANALYSIS\DlgAnalysis.cpp

; 133  : 	if(!m_pStrategyItem)

  00160	83 be c4 00 00
	00 00		 cmp	 DWORD PTR [esi+196], 0
  00167	75 4f		 jne	 SHORT $LN11@InitSTLoad

; 134  : 	{
; 135  : 		m_pStrategyItem = m_strategyLoader.GetStrategyItem();//   

  00169	8d 8e c8 00 00
	00		 lea	 ecx, DWORD PTR [esi+200]
  0016f	e8 00 00 00 00	 call	 ?GetStrategyItem@CStrategyLoader@@QAEPAVCIStrategyItem0001@@XZ ; CStrategyLoader::GetStrategyItem
  00174	89 86 c4 00 00
	00		 mov	 DWORD PTR [esi+196], eax

; 136  : 		if(m_pStrategyItem == NULL) return;

  0017a	85 c0		 test	 eax, eax
  0017c	74 78		 je	 SHORT $LN12@InitSTLoad

; 137  : 		int nRetValue = m_pStrategyItem->Create(this, (long)m_pStrategyItem,m_stArrayPath,m_pChartInterface);

  0017e	ff b6 10 01 00
	00		 push	 DWORD PTR [esi+272]
  00184	8b 10		 mov	 edx, DWORD PTR [eax]
  00186	8b c8		 mov	 ecx, eax
  00188	57		 push	 edi
  00189	50		 push	 eax
  0018a	56		 push	 esi
  0018b	ff 52 04	 call	 DWORD PTR [edx+4]

; 138  : 		if(nRetValue==-1) 

  0018e	83 f8 ff	 cmp	 eax, -1
  00191	75 25		 jne	 SHORT $LN11@InitSTLoad

; 139  : 		{
; 140  : 			m_pStrategyItem->DestoryWindow();

  00193	8b 8e c4 00 00
	00		 mov	 ecx, DWORD PTR [esi+196]
  00199	8b 01		 mov	 eax, DWORD PTR [ecx]
  0019b	ff 50 08	 call	 DWORD PTR [eax+8]

; 141  : 			delete m_pStrategyItem;

  0019e	8b 8e c4 00 00
	00		 mov	 ecx, DWORD PTR [esi+196]
  001a4	85 c9		 test	 ecx, ecx
  001a6	74 06		 je	 SHORT $LN14@InitSTLoad
  001a8	8b 01		 mov	 eax, DWORD PTR [ecx]
  001aa	6a 01		 push	 1
  001ac	ff 10		 call	 DWORD PTR [eax]
$LN14@InitSTLoad:

; 142  : 			m_pStrategyItem = NULL;

  001ae	c7 86 c4 00 00
	00 00 00 00 00	 mov	 DWORD PTR [esi+196], 0
$LN11@InitSTLoad:

; 143  : 		}
; 144  : 	}
; 145  : 
; 146  : 	//LoadForRun(String), (int),(String)
; 147  : 	m_bReceiveData = FALSE;//    
; 148  : 	BOOL bRetValue = m_pStrategyItem->LoadST(m_stSTPath,m_stCode,m_nCount,m_stEndDate); //

  001b8	ff b6 f0 00 00
	00		 push	 DWORD PTR [esi+240]
  001be	8b 8e c4 00 00
	00		 mov	 ecx, DWORD PTR [esi+196]
  001c4	ff b6 fc 00 00
	00		 push	 DWORD PTR [esi+252]
  001ca	c7 86 e0 05 00
	00 00 00 00 00	 mov	 DWORD PTR [esi+1504], 0
  001d4	ff b6 e4 00 00
	00		 push	 DWORD PTR [esi+228]
  001da	8b 01		 mov	 eax, DWORD PTR [ecx]
  001dc	ff b6 f4 00 00
	00		 push	 DWORD PTR [esi+244]
  001e2	ff 50 14	 call	 DWORD PTR [eax+20]

; 149  : 	if(bRetValue)

  001e5	85 c0		 test	 eax, eax
  001e7	74 0d		 je	 SHORT $LN12@InitSTLoad

; 150  : 	{
; 151  : 		m_pStrategyItem->Run();

  001e9	8b 8e c4 00 00
	00		 mov	 ecx, DWORD PTR [esi+196]
  001ef	6a 00		 push	 0
  001f1	8b 01		 mov	 eax, DWORD PTR [ecx]
  001f3	ff 50 18	 call	 DWORD PTR [eax+24]
$LN12@InitSTLoad:

; 152  : 	}
; 153  : 		//  
; 154  : 
; 155  : 	//m_pdlgInfo->InitWebView();
; 156  : 	//if(m_pdlgInfo && m_nStartType==0)
; 157  : 	//	m_pdlgInfo->ApplyST();
; 158  : 
; 159  : }

  001f6	8d 4d f0	 lea	 ecx, DWORD PTR _strUserPath$[ebp]
  001f9	ff 15 00 00 00
	00		 call	 DWORD PTR __imp_??1?$CStringT@DV?$StrTraitMFC_DLL@DV?$ChTraitsCRT@D@ATL@@@@@ATL@@QAE@XZ
  001ff	8d 4d ec	 lea	 ecx, DWORD PTR _strSystemPath$[ebp]
  00202	ff 15 00 00 00
	00		 call	 DWORD PTR __imp_??1?$CStringT@DV?$StrTraitMFC_DLL@DV?$ChTraitsCRT@D@ATL@@@@@ATL@@QAE@XZ
  00208	8b 4d f4	 mov	 ecx, DWORD PTR __$EHRec$[ebp]
  0020b	64 89 0d 00 00
	00 00		 mov	 DWORD PTR fs:0, ecx
  00212	59		 pop	 ecx
  00213	5f		 pop	 edi
  00214	5e		 pop	 esi
  00215	5b		 pop	 ebx
  00216	8b e5		 mov	 esp, ebp
  00218	5d		 pop	 ebp
  00219	c3		 ret	 0
$LN3@InitSTLoad:

; 89   : 	{
; 90   : 		AfxMessageBox("   .");

  0021a	6a 00		 push	 0
  0021c	6a 00		 push	 0
  0021e	68 00 00 00 00	 push	 OFFSET ??_C@_0CJ@JEPCLFOC@?A?$LO?$LI?q?$LI?m?$MA?L?$LD?$KK?5?$MA?$PM?$LH?$KL?$LI?m?$MA?L?5?$LM?$LB?E?C?$LF?G?A?v?5?$LO?J@
  00223	e8 00 00 00 00	 call	 ?AfxMessageBox@@YGHPBDII@Z ; AfxMessageBox

; 152  : 	}
; 153  : 		//  
; 154  : 
; 155  : 	//m_pdlgInfo->InitWebView();
; 156  : 	//if(m_pdlgInfo && m_nStartType==0)
; 157  : 	//	m_pdlgInfo->ApplyST();
; 158  : 
; 159  : }

  00228	8b 4d f4	 mov	 ecx, DWORD PTR __$EHRec$[ebp]
  0022b	64 89 0d 00 00
	00 00		 mov	 DWORD PTR fs:0, ecx
  00232	59		 pop	 ecx
  00233	5f		 pop	 edi
  00234	5e		 pop	 esi
  00235	5b		 pop	 ebx
  00236	8b e5		 mov	 esp, ebp
  00238	5d		 pop	 ebp
  00239	c3		 ret	 0
_TEXT	ENDS
;	COMDAT text$x
text$x	SEGMENT
__unwindfunclet$?InitSTLoad@CDlgAnalysis@@QAEXXZ$0:
  00000	8d 4d e8	 lea	 ecx, DWORD PTR $T3[ebp]
  00003	ff 25 00 00 00
	00		 jmp	 DWORD PTR __imp_??1?$CStringT@DV?$StrTraitMFC_DLL@DV?$ChTraitsCRT@D@ATL@@@@@ATL@@QAE@XZ
__unwindfunclet$?InitSTLoad@CDlgAnalysis@@QAEXXZ$1:
  00009	8d 4d e4	 lea	 ecx, DWORD PTR $T2[ebp]
  0000c	ff 25 00 00 00
	00		 jmp	 DWORD PTR __imp_??1?$CStringT@DV?$StrTraitMFC_DLL@DV?$ChTraitsCRT@D@ATL@@@@@ATL@@QAE@XZ
__unwindfunclet$?InitSTLoad@CDlgAnalysis@@QAEXXZ$2:
  00012	8d 4d ec	 lea	 ecx, DWORD PTR _strSystemPath$[ebp]
  00015	ff 25 00 00 00
	00		 jmp	 DWORD PTR __imp_??1?$CStringT@DV?$StrTraitMFC_DLL@DV?$ChTraitsCRT@D@ATL@@@@@ATL@@QAE@XZ
__unwindfunclet$?InitSTLoad@CDlgAnalysis@@QAEXXZ$3:
  0001b	8d 4d f0	 lea	 ecx, DWORD PTR _strUserPath$[ebp]
  0001e	ff 25 00 00 00
	00		 jmp	 DWORD PTR __imp_??1?$CStringT@DV?$StrTraitMFC_DLL@DV?$ChTraitsCRT@D@ATL@@@@@ATL@@QAE@XZ
  00024	cc		 int	 3
  00025	cc		 int	 3
  00026	cc		 int	 3
  00027	cc		 int	 3
  00028	cc		 int	 3
__ehhandler$?InitSTLoad@CDlgAnalysis@@QAEXXZ:
  00029	90		 npad	 1
  0002a	90		 npad	 1
  0002b	8b 54 24 08	 mov	 edx, DWORD PTR [esp+8]
  0002f	8d 42 0c	 lea	 eax, DWORD PTR [edx+12]
  00032	8b 4a e0	 mov	 ecx, DWORD PTR [edx-32]
  00035	33 c8		 xor	 ecx, eax
  00037	e8 00 00 00 00	 call	 @__security_check_cookie@4
  0003c	b8 00 00 00 00	 mov	 eax, OFFSET __ehfuncinfo$?InitSTLoad@CDlgAnalysis@@QAEXXZ
  00041	e9 00 00 00 00	 jmp	 ___CxxFrameHandler3
text$x	ENDS
?InitSTLoad@CDlgAnalysis@@QAEXXZ ENDP			; CDlgAnalysis::InitSTLoad
; Function compile flags: /Ogtp
; File D:\git\src\IBK\IBK_DRFN\ProjSrc\SrcDrfn\Chart\HWSTRATEGYANALYSIS\DlgAnalysis.cpp
; File C:\Program Files (x86)\Microsoft Visual Studio\2019\Community\VC\Tools\MSVC\14.29.30133\atlmfc\include\atltypes.h
; File D:\git\src\IBK\IBK_DRFN\ProjSrc\SrcDrfn\Chart\HWSTRATEGYANALYSIS\DlgAnalysis.cpp
; File C:\Program Files (x86)\Microsoft Visual Studio\2019\Community\VC\Tools\MSVC\14.29.30133\atlmfc\include\afxwin2.inl
; File D:\git\src\IBK\IBK_DRFN\ProjSrc\SrcDrfn\Chart\HWSTRATEGYANALYSIS\DlgAnalysis.cpp
;	COMDAT ?GetRect@CDlgAnalysis@@QAE?AVCRect@@H@Z
_TEXT	SEGMENT
___$ReturnUdt$ = 8					; size = 4
_nID$ = 12						; size = 4
?GetRect@CDlgAnalysis@@QAE?AVCRect@@H@Z PROC		; CDlgAnalysis::GetRect, COMDAT
; _this$ = ecx

; 591  : {

  00000	55		 push	 ebp
  00001	8b ec		 mov	 ebp, esp

; 594  : 	switch(nID)

  00003	81 7d 0c b8 0b
	00 00		 cmp	 DWORD PTR _nID$[ebp], 3000 ; 00000bb8H
  0000a	56		 push	 esi
; File C:\Program Files (x86)\Microsoft Visual Studio\2019\Community\VC\Tools\MSVC\14.29.30133\atlmfc\include\atltypes.h

; 528  : 	left = 0;

  0000b	8b 75 08	 mov	 esi, DWORD PTR ___$ReturnUdt$[ebp]
  0000e	c7 06 00 00 00
	00		 mov	 DWORD PTR [esi], 0

; 529  : 	top = 0;

  00014	c7 46 04 00 00
	00 00		 mov	 DWORD PTR [esi+4], 0

; 530  : 	right = 0;

  0001b	c7 46 08 00 00
	00 00		 mov	 DWORD PTR [esi+8], 0

; 531  : 	bottom = 0;

  00022	c7 46 0c 00 00
	00 00		 mov	 DWORD PTR [esi+12], 0
; File D:\git\src\IBK\IBK_DRFN\ProjSrc\SrcDrfn\Chart\HWSTRATEGYANALYSIS\DlgAnalysis.cpp

; 594  : 	switch(nID)

  00029	75 0a		 jne	 SHORT $LN10@GetRect
; File C:\Program Files (x86)\Microsoft Visual Studio\2019\Community\VC\Tools\MSVC\14.29.30133\atlmfc\include\afxwin2.inl

; 86   : 	{ ASSERT(::IsWindow(m_hWnd)); ::GetClientRect(m_hWnd, lpRect); }

  0002b	56		 push	 esi
  0002c	ff 71 20	 push	 DWORD PTR [ecx+32]
  0002f	ff 15 00 00 00
	00		 call	 DWORD PTR __imp__GetClientRect@8
$LN10@GetRect:
; File D:\git\src\IBK\IBK_DRFN\ProjSrc\SrcDrfn\Chart\HWSTRATEGYANALYSIS\DlgAnalysis.cpp

; 603  : }

  00035	8b c6		 mov	 eax, esi
  00037	5e		 pop	 esi
  00038	5d		 pop	 ebp
  00039	c2 08 00	 ret	 8
?GetRect@CDlgAnalysis@@QAE?AVCRect@@H@Z ENDP		; CDlgAnalysis::GetRect
_TEXT	ENDS
; Function compile flags: /Ogtp
; File D:\git\src\IBK\IBK_DRFN\ProjSrc\SrcDrfn\Chart\HWSTRATEGYANALYSIS\DlgAnalysis.cpp
;	COMDAT ?OnCancel@CDlgAnalysis@@MAEXXZ
_TEXT	SEGMENT
?OnCancel@CDlgAnalysis@@MAEXXZ PROC			; CDlgAnalysis::OnCancel, COMDAT
; _this$ = ecx

; 608  : 	CDialog::OnCancel();

  00000	e9 00 00 00 00	 jmp	 ?OnCancel@CDialog@@MAEXXZ ; CDialog::OnCancel
?OnCancel@CDlgAnalysis@@MAEXXZ ENDP			; CDlgAnalysis::OnCancel
_TEXT	ENDS
; Function compile flags: /Ogtp
; File D:\git\src\IBK\IBK_DRFN\ProjSrc\SrcDrfn\Chart\HWSTRATEGYANALYSIS\DlgAnalysis.cpp
; File C:\Program Files (x86)\Microsoft Visual Studio\2019\Community\VC\Tools\MSVC\14.29.30133\atlmfc\include\afxtempl.h
; File D:\git\src\IBK\IBK_DRFN\ProjSrc\SrcDrfn\Chart\HWSTRATEGYANALYSIS\DlgAnalysis.cpp
; File C:\Program Files (x86)\Microsoft Visual Studio\2019\Community\VC\Tools\MSVC\14.29.30133\atlmfc\include\afxtempl.h
; File D:\git\src\IBK\IBK_DRFN\ProjSrc\SrcDrfn\Chart\HWSTRATEGYANALYSIS\DlgAnalysis.cpp
; File C:\Program Files (x86)\Microsoft Visual Studio\2019\Community\VC\Tools\MSVC\14.29.30133\atlmfc\include\afxcoll.inl
; File D:\git\src\IBK\IBK_DRFN\ProjSrc\SrcDrfn\Chart\HWSTRATEGYANALYSIS\DlgAnalysis.cpp
; File C:\Program Files (x86)\Microsoft Visual Studio\2019\Community\VC\Tools\MSVC\14.29.30133\atlmfc\include\afxcoll.inl
; File D:\git\src\IBK\IBK_DRFN\ProjSrc\SrcDrfn\Chart\HWSTRATEGYANALYSIS\DlgAnalysis.cpp
; File C:\Program Files (x86)\Microsoft Visual Studio\2019\Community\VC\Tools\MSVC\14.29.30133\atlmfc\include\afxcoll.inl
; File D:\git\src\IBK\IBK_DRFN\ProjSrc\SrcDrfn\Chart\HWSTRATEGYANALYSIS\DlgAnalysis.cpp
; File C:\Program Files (x86)\Microsoft Visual Studio\2019\Community\VC\Tools\MSVC\14.29.30133\atlmfc\include\afxcoll.inl
; File D:\git\src\IBK\IBK_DRFN\ProjSrc\SrcDrfn\Chart\HWSTRATEGYANALYSIS\DlgAnalysis.cpp
; File C:\Program Files (x86)\Microsoft Visual Studio\2019\Community\VC\Tools\MSVC\14.29.30133\atlmfc\include\afxcoll.inl
; File D:\git\src\IBK\IBK_DRFN\ProjSrc\SrcDrfn\Chart\HWSTRATEGYANALYSIS\DlgAnalysis.cpp
; File C:\Program Files (x86)\Microsoft Visual Studio\2019\Community\VC\Tools\MSVC\14.29.30133\atlmfc\include\afxcoll.inl
; File D:\git\src\IBK\IBK_DRFN\ProjSrc\SrcDrfn\Chart\HWSTRATEGYANALYSIS\DlgAnalysis.cpp
; File C:\Program Files (x86)\Microsoft Visual Studio\2019\Community\VC\Tools\MSVC\14.29.30133\atlmfc\include\afxcoll.inl
; File D:\git\src\IBK\IBK_DRFN\ProjSrc\SrcDrfn\Chart\HWSTRATEGYANALYSIS\DlgAnalysis.cpp
; File C:\Program Files (x86)\Microsoft Visual Studio\2019\Community\VC\Tools\MSVC\14.29.30133\atlmfc\include\afxcoll.inl
; File D:\git\src\IBK\IBK_DRFN\ProjSrc\SrcDrfn\Chart\HWSTRATEGYANALYSIS\DlgAnalysis.cpp
; File C:\Program Files (x86)\Microsoft Visual Studio\2019\Community\VC\Tools\MSVC\14.29.30133\atlmfc\include\afxcoll.inl
; File D:\git\src\IBK\IBK_DRFN\ProjSrc\SrcDrfn\Chart\HWSTRATEGYANALYSIS\DlgAnalysis.cpp
; File C:\Program Files (x86)\Microsoft Visual Studio\2019\Community\VC\Tools\MSVC\14.29.30133\atlmfc\include\afxtempl.h
; File D:\git\src\IBK\IBK_DRFN\ProjSrc\SrcDrfn\Chart\HWSTRATEGYANALYSIS\DlgAnalysis.cpp
; File C:\Program Files (x86)\Microsoft Visual Studio\2019\Community\VC\Tools\MSVC\14.29.30133\atlmfc\include\afxwin2.inl
; File D:\git\src\IBK\IBK_DRFN\ProjSrc\SrcDrfn\Chart\HWSTRATEGYANALYSIS\DlgAnalysis.cpp
; File C:\Program Files (x86)\Microsoft Visual Studio\2019\Community\VC\Tools\MSVC\14.29.30133\atlmfc\include\afxwin2.inl
; File D:\git\src\IBK\IBK_DRFN\ProjSrc\SrcDrfn\Chart\HWSTRATEGYANALYSIS\DlgAnalysis.cpp
;	COMDAT ?OnSTDataManagerMessagge@CDlgAnalysis@@IAEJIJ@Z
_TEXT	SEGMENT
$T2 = -212						; size = 32
_this$ = -180						; size = 4
_Repfloat$1$ = -176					; size = 8
_strDiv$ = -168						; size = 4
_strRep$ = -164						; size = 4
tv1462 = -160						; size = 4
tv1442 = -156						; size = 4
$T3 = -152						; size = 4
$T4 = -148						; size = 4
$T5 = -144						; size = 4
$T6 = -140						; size = 4
tv1444 = -136						; size = 4
$T7 = -132						; size = 4
_strDate$ = -128					; size = 20
tv1431 = -108						; size = 4
_a$1$ = -108						; size = 4
tv1435 = -104						; size = 4
_nIsDate$1$ = -100					; size = 4
_Index$8 = -96						; size = 32
$T9 = -96						; size = 32
_Index$ = -64						; size = 32
_num$1$ = -32						; size = 4
_stData1$10 = -28					; size = 4
_stData3$11 = -24					; size = 4
_szTData$ = -20						; size = 4
_strDataItemName$ = -16					; size = 4
__$EHRec$ = -12						; size = 12
_Div$1$ = 8						; size = 4
$T12 = 8						; size = 4
$T13 = 8						; size = 4
_wParam$ = 8						; size = 4
_nTotalData$1$ = 12					; size = 4
_stData4$14 = 12					; size = 4
_lParam$ = 12						; size = 4
?OnSTDataManagerMessagge@CDlgAnalysis@@IAEJIJ@Z PROC	; CDlgAnalysis::OnSTDataManagerMessagge, COMDAT
; _this$ = ecx

; 163  : {

  00000	55		 push	 ebp
  00001	8b ec		 mov	 ebp, esp
  00003	6a ff		 push	 -1
  00005	68 00 00 00 00	 push	 __ehhandler$?OnSTDataManagerMessagge@CDlgAnalysis@@IAEJIJ@Z
  0000a	64 a1 00 00 00
	00		 mov	 eax, DWORD PTR fs:0
  00010	50		 push	 eax
  00011	81 ec c8 00 00
	00		 sub	 esp, 200		; 000000c8H
  00017	53		 push	 ebx
  00018	56		 push	 esi
  00019	57		 push	 edi
  0001a	a1 00 00 00 00	 mov	 eax, DWORD PTR ___security_cookie
  0001f	33 c5		 xor	 eax, ebp
  00021	50		 push	 eax
  00022	8d 45 f4	 lea	 eax, DWORD PTR __$EHRec$[ebp]
  00025	64 a3 00 00 00
	00		 mov	 DWORD PTR fs:0, eax
  0002b	8b f9		 mov	 edi, ecx

; 164  : 	if(m_bReceiveData) return 0;//  ..

  0002d	83 bf e0 05 00
	00 00		 cmp	 DWORD PTR [edi+1504], 0
  00034	0f 85 c1 09 00
	00		 jne	 $LN190@OnSTDataMa

; 165  : 	CString strDataItemName, szTData;

  0003a	8d 4d f0	 lea	 ecx, DWORD PTR _strDataItemName$[ebp]
  0003d	ff 15 00 00 00
	00		 call	 DWORD PTR __imp_??0?$CStringT@DV?$StrTraitMFC_DLL@DV?$ChTraitsCRT@D@ATL@@@@@ATL@@QAE@XZ
  00043	8d 4d ec	 lea	 ecx, DWORD PTR _szTData$[ebp]
  00046	c7 45 fc 00 00
	00 00		 mov	 DWORD PTR __$EHRec$[ebp+8], 0
  0004d	ff 15 00 00 00
	00		 call	 DWORD PTR __imp_??0?$CStringT@DV?$StrTraitMFC_DLL@DV?$ChTraitsCRT@D@ATL@@@@@ATL@@QAE@XZ

; 166  : 	CString strDiv, strRep;

  00053	8d 8d 58 ff ff
	ff		 lea	 ecx, DWORD PTR _strDiv$[ebp]
  00059	ff 15 00 00 00
	00		 call	 DWORD PTR __imp_??0?$CStringT@DV?$StrTraitMFC_DLL@DV?$ChTraitsCRT@D@ATL@@@@@ATL@@QAE@XZ
  0005f	8d 8d 5c ff ff
	ff		 lea	 ecx, DWORD PTR _strRep$[ebp]
  00065	ff 15 00 00 00
	00		 call	 DWORD PTR __imp_??0?$CStringT@DV?$StrTraitMFC_DLL@DV?$ChTraitsCRT@D@ATL@@@@@ATL@@QAE@XZ

; 167  : 	CStringArray strDate; //Date  

  0006b	8d 4d 80	 lea	 ecx, DWORD PTR _strDate$[ebp]
  0006e	c6 45 fc 03	 mov	 BYTE PTR __$EHRec$[ebp+8], 3
  00072	e8 00 00 00 00	 call	 ??0CStringArray@@QAE@XZ	; CStringArray::CStringArray
  00077	8d 4d c8	 lea	 ecx, DWORD PTR _Index$[ebp+8]
  0007a	ff 15 00 00 00
	00		 call	 DWORD PTR __imp_??0?$CStringT@DV?$StrTraitMFC_DLL@DV?$ChTraitsCRT@D@ATL@@@@@ATL@@QAE@XZ
  00080	8d 4d cc	 lea	 ecx, DWORD PTR _Index$[ebp+12]
  00083	ff 15 00 00 00
	00		 call	 DWORD PTR __imp_??0?$CStringT@DV?$StrTraitMFC_DLL@DV?$ChTraitsCRT@D@ATL@@@@@ATL@@QAE@XZ
  00089	8d 4d d0	 lea	 ecx, DWORD PTR _Index$[ebp+16]
  0008c	ff 15 00 00 00
	00		 call	 DWORD PTR __imp_??0?$CStringT@DV?$StrTraitMFC_DLL@DV?$ChTraitsCRT@D@ATL@@@@@ATL@@QAE@XZ
  00092	8d 4d d4	 lea	 ecx, DWORD PTR _Index$[ebp+20]
  00095	ff 15 00 00 00
	00		 call	 DWORD PTR __imp_??0?$CStringT@DV?$StrTraitMFC_DLL@DV?$ChTraitsCRT@D@ATL@@@@@ATL@@QAE@XZ
  0009b	8d 4d d8	 lea	 ecx, DWORD PTR _Index$[ebp+24]
  0009e	ff 15 00 00 00
	00		 call	 DWORD PTR __imp_??0?$CStringT@DV?$StrTraitMFC_DLL@DV?$ChTraitsCRT@D@ATL@@@@@ATL@@QAE@XZ
  000a4	8d 4d dc	 lea	 ecx, DWORD PTR _Index$[ebp+28]
  000a7	ff 15 00 00 00
	00		 call	 DWORD PTR __imp_??0?$CStringT@DV?$StrTraitMFC_DLL@DV?$ChTraitsCRT@D@ATL@@@@@ATL@@QAE@XZ
; File C:\Program Files (x86)\Microsoft Visual Studio\2019\Community\VC\Tools\MSVC\14.29.30133\atlmfc\include\afxtempl.h

; 283  : 	{ SetSize(0, -1); }

  000ad	6a ff		 push	 -1
  000af	6a 00		 push	 0
  000b1	8d 8f 3c 01 00
	00		 lea	 ecx, DWORD PTR [edi+316]
; File D:\git\src\IBK\IBK_DRFN\ProjSrc\SrcDrfn\Chart\HWSTRATEGYANALYSIS\DlgAnalysis.cpp

; 168  : 	ST_DATAINDEX Index;

  000b7	c6 45 fc 05	 mov	 BYTE PTR __$EHRec$[ebp+8], 5
; File C:\Program Files (x86)\Microsoft Visual Studio\2019\Community\VC\Tools\MSVC\14.29.30133\atlmfc\include\afxtempl.h

; 283  : 	{ SetSize(0, -1); }

  000bb	e8 00 00 00 00	 call	 ?SetSize@?$CArray@UST_DATAINDEX@@U1@@@QAEXHH@Z ; CArray<ST_DATAINDEX,ST_DATAINDEX>::SetSize
; File D:\git\src\IBK\IBK_DRFN\ProjSrc\SrcDrfn\Chart\HWSTRATEGYANALYSIS\DlgAnalysis.cpp

; 173  : 	if(wParam==(WPARAM)m_pStrategyItem||m_DivideState ==1||m_DivideState==2)

  000c0	8b 4d 08	 mov	 ecx, DWORD PTR _wParam$[ebp]
  000c3	3b 8f c4 00 00
	00		 cmp	 ecx, DWORD PTR [edi+196]
  000c9	74 14		 je	 SHORT $LN10@OnSTDataMa
  000cb	8b 87 04 01 00
	00		 mov	 eax, DWORD PTR [edi+260]
  000d1	83 f8 01	 cmp	 eax, 1
  000d4	74 09		 je	 SHORT $LN10@OnSTDataMa
  000d6	83 f8 02	 cmp	 eax, 2
  000d9	0f 85 70 08 00
	00		 jne	 $LN136@OnSTDataMa
$LN10@OnSTDataMa:

; 174  : 	{
; 175  : 		m_pStrategyItem = (CIStrategyItem*)wParam;	

  000df	89 8f c4 00 00
	00		 mov	 DWORD PTR [edi+196], ecx

; 176  : 		m_pStrategyItem->Stop();

  000e5	8b 01		 mov	 eax, DWORD PTR [ecx]
  000e7	ff 50 1c	 call	 DWORD PTR [eax+28]

; 177  : 		ST_DRAWINFO_EX* pInfo = (ST_DRAWINFO_EX*)lParam;
; 178  : 		CPtrArray* pPtrArrayPlot = pInfo->pPtrArraySDataItem;

  000ea	8b 45 0c	 mov	 eax, DWORD PTR _lParam$[ebp]
  000ed	8b 48 04	 mov	 ecx, DWORD PTR [eax+4]

; 179  : 		m_pDataItem = NULL;

  000f0	c7 87 18 01 00
	00 00 00 00 00	 mov	 DWORD PTR [edi+280], 0

; 180  : 		int nSize = pPtrArrayPlot->GetSize();

  000fa	8b 41 08	 mov	 eax, DWORD PTR [ecx+8]

; 181  : 
; 182  : 		if(nSize ==0) return 0;

  000fd	85 c0		 test	 eax, eax
  000ff	0f 84 8e 08 00
	00		 je	 $LN56@OnSTDataMa
; File C:\Program Files (x86)\Microsoft Visual Studio\2019\Community\VC\Tools\MSVC\14.29.30133\atlmfc\include\afxcoll.inl

; 203  : 		if( nIndex < 0 || nIndex >= m_nSize )

  00105	0f 8e 06 09 00
	00		 jle	 $LN170@OnSTDataMa

; 204  : 			AfxThrowInvalidArgException();
; 205  : 		return m_pData[nIndex]; }

  0010b	8b 41 04	 mov	 eax, DWORD PTR [ecx+4]
  0010e	8b 08		 mov	 ecx, DWORD PTR [eax]
; File D:\git\src\IBK\IBK_DRFN\ProjSrc\SrcDrfn\Chart\HWSTRATEGYANALYSIS\DlgAnalysis.cpp

; 185  : 		m_pDataItem = (CISDataItem *)pPtrArrayPlot->GetAt(0);

  00110	89 8f 18 01 00
	00		 mov	 DWORD PTR [edi+280], ecx

; 186  : 
; 187  : 		long nTotalData	= m_pDataItem->GetSize();

  00116	8b 01		 mov	 eax, DWORD PTR [ecx]
  00118	ff 50 1c	 call	 DWORD PTR [eax+28]
  0011b	8b f0		 mov	 esi, eax

; 188  : 		//Data  //////////////////////////
; 189  : 		/////////////////////
; 190  : 		strDate.SetSize( nTotalData );

  0011d	8d 4d 80	 lea	 ecx, DWORD PTR _strDate$[ebp]
  00120	6a ff		 push	 -1
  00122	56		 push	 esi
  00123	89 75 0c	 mov	 DWORD PTR _nTotalData$1$[ebp], esi
  00126	e8 00 00 00 00	 call	 ?SetSize@CStringArray@@QAEXHH@Z ; CStringArray::SetSize

; 191  : 
; 192  : 		//   (KHD:2006.08.08)
; 193  : 		m_pDataItem->GetAt(0,&strDataItemName);//   

  0012b	8b 8f 18 01 00
	00		 mov	 ecx, DWORD PTR [edi+280]
  00131	8d 45 f0	 lea	 eax, DWORD PTR _strDataItemName$[ebp]
  00134	50		 push	 eax
  00135	6a 00		 push	 0
  00137	8b 11		 mov	 edx, DWORD PTR [ecx]
  00139	ff 52 10	 call	 DWORD PTR [edx+16]

; 194  : 		InsertGubun(strDataItemName);

  0013c	6a 00		 push	 0
  0013e	8d 45 f0	 lea	 eax, DWORD PTR _strDataItemName$[ebp]
  00141	8b cf		 mov	 ecx, edi
  00143	50		 push	 eax
  00144	e8 00 00 00 00	 call	 ?InsertGubun@CDlgAnalysis@@QAEHAAV?$CStringT@DV?$StrTraitMFC_DLL@DV?$ChTraitsCRT@D@ATL@@@@@ATL@@H@Z ; CDlgAnalysis::InsertGubun

; 195  : 		Index.nStart = 0;
; 196  : 		Index.strStartDate = strDataItemName;

  00149	8d 45 f0	 lea	 eax, DWORD PTR _strDataItemName$[ebp]
  0014c	c7 45 c0 00 00
	00 00		 mov	 DWORD PTR _Index$[ebp], 0
  00153	50		 push	 eax
  00154	8d 4d c8	 lea	 ecx, DWORD PTR _Index$[ebp+8]
  00157	ff 15 00 00 00
	00		 call	 DWORD PTR __imp_??4?$CStringT@DV?$StrTraitMFC_DLL@DV?$ChTraitsCRT@D@ATL@@@@@ATL@@QAEAAV01@ABV01@@Z

; 197  : 		Index.strGubun ="";

  0015d	68 00 00 00 00	 push	 OFFSET ??_C@_04MHOBIAIL@?$MA?$PM?C?$LM@
  00162	8d 4d d0	 lea	 ecx, DWORD PTR _Index$[ebp+16]
  00165	ff 15 00 00 00
	00		 call	 DWORD PTR __imp_??4?$CStringT@DV?$StrTraitMFC_DLL@DV?$ChTraitsCRT@D@ATL@@@@@ATL@@QAEAAV01@PBD@Z

; 198  : 		
; 199  : 		m_pCtlList->DeleteAllItems();

  0016b	8b 8f 14 01 00
	00		 mov	 ecx, DWORD PTR [edi+276]
  00171	e8 00 00 00 00	 call	 ?DeleteAllItems@CXListCtrl@@QAEHXZ ; CXListCtrl::DeleteAllItems

; 200  : 		m_pCtlList->InsertItem(0,"*");		//    .

  00176	8b 8f 14 01 00
	00		 mov	 ecx, DWORD PTR [edi+276]
  0017c	68 00 00 00 00	 push	 OFFSET ??_C@_01NBENCBCI@?$CK@
  00181	6a 00		 push	 0
  00183	e8 00 00 00 00	 call	 ?InsertItem@CXListCtrl@@QAEHHPBD@Z ; CXListCtrl::InsertItem

; 201  : 
; 202  : 		nIsDate = strDataItemName.Find('/');

  00188	6a 00		 push	 0
  0018a	6a 2f		 push	 47			; 0000002fH
  0018c	8d 4d f0	 lea	 ecx, DWORD PTR _strDataItemName$[ebp]
  0018f	ff 15 00 00 00
	00		 call	 DWORD PTR __imp_?Find@?$CStringT@DV?$StrTraitMFC_DLL@DV?$ChTraitsCRT@D@ATL@@@@@ATL@@QBEHDH@Z
  00195	89 45 9c	 mov	 DWORD PTR _nIsDate$1$[ebp], eax

; 203  : 		if(nIsDate<0 ||m_DivideState==1)

  00198	85 c0		 test	 eax, eax
  0019a	78 38		 js	 SHORT $LN179@OnSTDataMa
  0019c	83 bf 04 01 00
	00 01		 cmp	 DWORD PTR [edi+260], 1
  001a3	74 2f		 je	 SHORT $LN179@OnSTDataMa

; 206  : 		}
; 207  : 		else 
; 208  : 		{
; 209  : 			szTData = strDataItemName.Mid(2);

  001a5	6a 02		 push	 2
  001a7	8d 45 08	 lea	 eax, DWORD PTR $T13[ebp]
  001aa	50		 push	 eax
  001ab	8d 4d f0	 lea	 ecx, DWORD PTR _strDataItemName$[ebp]
  001ae	ff 15 00 00 00
	00		 call	 DWORD PTR __imp_?Mid@?$CStringT@DV?$StrTraitMFC_DLL@DV?$ChTraitsCRT@D@ATL@@@@@ATL@@QBE?AV12@H@Z
  001b4	50		 push	 eax
  001b5	8d 4d ec	 lea	 ecx, DWORD PTR _szTData$[ebp]
  001b8	c6 45 fc 06	 mov	 BYTE PTR __$EHRec$[ebp+8], 6
  001bc	ff 15 00 00 00
	00		 call	 DWORD PTR __imp_??4?$CStringT@DV?$StrTraitMFC_DLL@DV?$ChTraitsCRT@D@ATL@@@@@ATL@@QAEAAV01@ABV01@@Z
  001c2	8d 4d 08	 lea	 ecx, DWORD PTR $T13[ebp]
  001c5	c6 45 fc 05	 mov	 BYTE PTR __$EHRec$[ebp+8], 5
  001c9	ff 15 00 00 00
	00		 call	 DWORD PTR __imp_??1?$CStringT@DV?$StrTraitMFC_DLL@DV?$ChTraitsCRT@D@ATL@@@@@ATL@@QAE@XZ

; 210  : 			m_pCtlList->SetItemText(0,1,szTData);

  001cf	ff 75 ec	 push	 DWORD PTR _szTData$[ebp]
  001d2	eb 03		 jmp	 SHORT $LN191@OnSTDataMa
$LN179@OnSTDataMa:

; 204  : 		{
; 205  : 			m_pCtlList->SetItemText(0,1,strDataItemName);

  001d4	ff 75 f0	 push	 DWORD PTR _strDataItemName$[ebp]
$LN191@OnSTDataMa:

; 211  : 		}
; 212  : 
; 213  : 		m_pDataItem->GetAt(nTotalData-1,&strDataItemName);//   

  001d7	8b 8f 14 01 00
	00		 mov	 ecx, DWORD PTR [edi+276]
  001dd	6a 01		 push	 1
  001df	6a 00		 push	 0
  001e1	e8 00 00 00 00	 call	 ?SetItemText@CXListCtrl@@QAEHHHPBD@Z ; CXListCtrl::SetItemText
  001e6	8b 8f 18 01 00
	00		 mov	 ecx, DWORD PTR [edi+280]
  001ec	8d 55 f0	 lea	 edx, DWORD PTR _strDataItemName$[ebp]
  001ef	4e		 dec	 esi
  001f0	52		 push	 edx
  001f1	56		 push	 esi
  001f2	8b 01		 mov	 eax, DWORD PTR [ecx]
  001f4	89 b5 78 ff ff
	ff		 mov	 DWORD PTR tv1444[ebp], esi
  001fa	ff 50 10	 call	 DWORD PTR [eax+16]

; 214  : 		InsertGubun(strDataItemName);

  001fd	6a 00		 push	 0
  001ff	8d 45 f0	 lea	 eax, DWORD PTR _strDataItemName$[ebp]
  00202	8b cf		 mov	 ecx, edi
  00204	50		 push	 eax
  00205	e8 00 00 00 00	 call	 ?InsertGubun@CDlgAnalysis@@QAEHAAV?$CStringT@DV?$StrTraitMFC_DLL@DV?$ChTraitsCRT@D@ATL@@@@@ATL@@H@Z ; CDlgAnalysis::InsertGubun

; 215  : 
; 216  : 		if(nIsDate<0||m_DivideState==1)

  0020a	83 7d 9c 00	 cmp	 DWORD PTR _nIsDate$1$[ebp], 0
  0020e	7c 38		 jl	 SHORT $LN17@OnSTDataMa
  00210	83 bf 04 01 00
	00 01		 cmp	 DWORD PTR [edi+260], 1
  00217	74 2f		 je	 SHORT $LN17@OnSTDataMa

; 219  : 		}
; 220  : 		else
; 221  : 		{
; 222  : 			szTData = strDataItemName.Mid(2);

  00219	6a 02		 push	 2
  0021b	8d 45 08	 lea	 eax, DWORD PTR $T12[ebp]
  0021e	50		 push	 eax
  0021f	8d 4d f0	 lea	 ecx, DWORD PTR _strDataItemName$[ebp]
  00222	ff 15 00 00 00
	00		 call	 DWORD PTR __imp_?Mid@?$CStringT@DV?$StrTraitMFC_DLL@DV?$ChTraitsCRT@D@ATL@@@@@ATL@@QBE?AV12@H@Z
  00228	50		 push	 eax
  00229	8d 4d ec	 lea	 ecx, DWORD PTR _szTData$[ebp]
  0022c	c6 45 fc 07	 mov	 BYTE PTR __$EHRec$[ebp+8], 7
  00230	ff 15 00 00 00
	00		 call	 DWORD PTR __imp_??4?$CStringT@DV?$StrTraitMFC_DLL@DV?$ChTraitsCRT@D@ATL@@@@@ATL@@QAEAAV01@ABV01@@Z
  00236	8d 4d 08	 lea	 ecx, DWORD PTR $T12[ebp]
  00239	c6 45 fc 05	 mov	 BYTE PTR __$EHRec$[ebp+8], 5
  0023d	ff 15 00 00 00
	00		 call	 DWORD PTR __imp_??1?$CStringT@DV?$StrTraitMFC_DLL@DV?$ChTraitsCRT@D@ATL@@@@@ATL@@QAE@XZ

; 223  : 			m_pCtlList->SetItemText(0,2,szTData);

  00243	ff 75 ec	 push	 DWORD PTR _szTData$[ebp]
  00246	eb 03		 jmp	 SHORT $LN192@OnSTDataMa
$LN17@OnSTDataMa:

; 217  : 		{
; 218  : 			m_pCtlList->SetItemText(0,2,strDataItemName);

  00248	ff 75 f0	 push	 DWORD PTR _strDataItemName$[ebp]
$LN192@OnSTDataMa:

; 224  : 		}
; 225  : 
; 226  : 		Index.nEnd = nTotalData-1;

  0024b	8b 8f 14 01 00
	00		 mov	 ecx, DWORD PTR [edi+276]
  00251	6a 02		 push	 2
  00253	6a 00		 push	 0
  00255	e8 00 00 00 00	 call	 ?SetItemText@CXListCtrl@@QAEHHHPBD@Z ; CXListCtrl::SetItemText

; 227  : 		Index.strEndDate = strDataItemName;

  0025a	8d 45 f0	 lea	 eax, DWORD PTR _strDataItemName$[ebp]
  0025d	89 75 c4	 mov	 DWORD PTR _Index$[ebp+4], esi
  00260	50		 push	 eax
  00261	8d 4d cc	 lea	 ecx, DWORD PTR _Index$[ebp+12]
  00264	ff 15 00 00 00
	00		 call	 DWORD PTR __imp_??4?$CStringT@DV?$StrTraitMFC_DLL@DV?$ChTraitsCRT@D@ATL@@@@@ATL@@QAEAAV01@ABV01@@Z

; 228  : 
; 229  : 		m_stDataIndex.Add(Index);//..

  0026a	83 ec 20	 sub	 esp, 32			; 00000020H
  0026d	8d 45 c0	 lea	 eax, DWORD PTR _Index$[ebp]
  00270	8b cc		 mov	 ecx, esp
  00272	50		 push	 eax
  00273	e8 00 00 00 00	 call	 ??0ST_DATAINDEX@@QAE@ABU0@@Z
  00278	8d 8f 3c 01 00
	00		 lea	 ecx, DWORD PTR [edi+316]
  0027e	e8 00 00 00 00	 call	 ?Add@?$CArray@UST_DATAINDEX@@U1@@@QAEHUST_DATAINDEX@@@Z ; CArray<ST_DATAINDEX,ST_DATAINDEX>::Add

; 235  : 		for( i = 0;i<nTotalData;i++)

  00283	8b 5d 0c	 mov	 ebx, DWORD PTR _nTotalData$1$[ebp]
  00286	33 f6		 xor	 esi, esi
  00288	85 db		 test	 ebx, ebx
  0028a	7e 3a		 jle	 SHORT $LN3@OnSTDataMa
  0028c	0f 1f 40 00	 npad	 4
$LL4@OnSTDataMa:

; 236  : 		{
; 237  : 			m_pDataItem->GetAt(i,&strDataItemName);

  00290	8b 8f 18 01 00
	00		 mov	 ecx, DWORD PTR [edi+280]
  00296	8d 55 f0	 lea	 edx, DWORD PTR _strDataItemName$[ebp]
  00299	52		 push	 edx
  0029a	56		 push	 esi
  0029b	8b 01		 mov	 eax, DWORD PTR [ecx]
  0029d	ff 50 10	 call	 DWORD PTR [eax+16]
; File C:\Program Files (x86)\Microsoft Visual Studio\2019\Community\VC\Tools\MSVC\14.29.30133\atlmfc\include\afxcoll.inl

; 300  : 		if( nIndex < 0 || nIndex >= m_nSize )

  002a0	85 f6		 test	 esi, esi
  002a2	0f 88 69 07 00
	00		 js	 $LN170@OnSTDataMa
  002a8	3b 75 88	 cmp	 esi, DWORD PTR _strDate$[ebp+8]
  002ab	0f 8d 60 07 00
	00		 jge	 $LN170@OnSTDataMa

; 301  : 			AfxThrowInvalidArgException();
; 302  : 		m_pData[nIndex] = newElement; }

  002b1	8d 45 f0	 lea	 eax, DWORD PTR _strDataItemName$[ebp]
  002b4	50		 push	 eax
  002b5	8b 45 84	 mov	 eax, DWORD PTR _strDate$[ebp+4]
  002b8	8d 0c b0	 lea	 ecx, DWORD PTR [eax+esi*4]
  002bb	ff 15 00 00 00
	00		 call	 DWORD PTR __imp_??4?$CStringT@DV?$StrTraitMFC_DLL@DV?$ChTraitsCRT@D@ATL@@@@@ATL@@QAEAAV01@ABV01@@Z
; File D:\git\src\IBK\IBK_DRFN\ProjSrc\SrcDrfn\Chart\HWSTRATEGYANALYSIS\DlgAnalysis.cpp

; 235  : 		for( i = 0;i<nTotalData;i++)

  002c1	46		 inc	 esi
  002c2	3b f3		 cmp	 esi, ebx
  002c4	7c ca		 jl	 SHORT $LL4@OnSTDataMa
$LN3@OnSTDataMa:

; 238  : 			strDate.SetAt(i,strDataItemName);
; 239  : 		}
; 240  : 
; 241  : 	//	//  :   
; 242  : 	//	//num - ((Div-1)*Repnum/Div)
; 243  : 		int Div = m_nDivideCnt; //   .
; 244  : 		int num = strDate.GetSize();// 
; 245  : 		int Divnum =0;
; 246  : 		int Repnum;
; 247  : 		long double Repfloat;
; 248  : 
; 249  : 		if(m_dfDivideRate > 0)

  002c6	f2 0f 10 87 08
	01 00 00	 movsd	 xmm0, QWORD PTR [edi+264]
  002ce	33 db		 xor	 ebx, ebx
  002d0	66 0f 2f 05 00
	00 00 00	 comisd	 xmm0, QWORD PTR __real@0000000000000000
  002d8	8b 8f 00 01 00
	00		 mov	 ecx, DWORD PTR [edi+256]
  002de	8b 55 88	 mov	 edx, DWORD PTR _strDate$[ebp+8]
  002e1	89 4d 08	 mov	 DWORD PTR _Div$1$[ebp], ecx
  002e4	89 55 e0	 mov	 DWORD PTR _num$1$[ebp], edx
  002e7	76 57		 jbe	 SHORT $LN18@OnSTDataMa

; 250  : 		{
; 251  : 			Repnum		= ((num/10) * (int)m_dfDivideRate/10);//atoi(strRep) *;//  

  002e9	b8 67 66 66 66	 mov	 eax, 1717986919		; 66666667H
  002ee	f7 ea		 imul	 edx
  002f0	f2 0f 2c c8	 cvttsd2si ecx, xmm0
  002f4	b8 67 66 66 66	 mov	 eax, 1717986919		; 66666667H
  002f9	c1 fa 02	 sar	 edx, 2
  002fc	8b f2		 mov	 esi, edx
  002fe	c1 ee 1f	 shr	 esi, 31			; 0000001fH
  00301	03 f2		 add	 esi, edx
  00303	0f af f1	 imul	 esi, ecx

; 252  : 			int tot		= num - ((Div-1)*Repnum/Div);// 

  00306	8b 4d 08	 mov	 ecx, DWORD PTR _Div$1$[ebp]
  00309	f7 ee		 imul	 esi
  0030b	8d 41 ff	 lea	 eax, DWORD PTR [ecx-1]
  0030e	c1 fa 02	 sar	 edx, 2
  00311	8b f2		 mov	 esi, edx
  00313	c1 ee 1f	 shr	 esi, 31			; 0000001fH
  00316	03 f2		 add	 esi, edx
  00318	0f af c6	 imul	 eax, esi
  0031b	99		 cdq
  0031c	f7 f9		 idiv	 ecx
  0031e	8b 55 e0	 mov	 edx, DWORD PTR _num$1$[ebp]
  00321	8b ca		 mov	 ecx, edx
  00323	2b c8		 sub	 ecx, eax

; 253  : 			Repfloat	= long double(num/long double(tot));//Repfloat * num-Repnum = 400
; 254  : 		}

  00325	8b c6		 mov	 eax, esi
  00327	66 0f 6e ca	 movd	 xmm1, edx
  0032b	66 0f 6e c1	 movd	 xmm0, ecx
  0032f	8b 4d 08	 mov	 ecx, DWORD PTR _Div$1$[ebp]
  00332	f3 0f e6 c9	 cvtdq2pd xmm1, xmm1
  00336	f3 0f e6 c0	 cvtdq2pd xmm0, xmm0
  0033a	f2 0f 5e c8	 divsd	 xmm1, xmm0
  0033e	eb 0a		 jmp	 SHORT $LN193@OnSTDataMa
$LN18@OnSTDataMa:

; 255  : 		else
; 256  : 		{
; 257  : 			Repnum = 0;
; 258  : 			Repfloat =1;

  00340	f2 0f 10 0d 00
	00 00 00	 movsd	 xmm1, QWORD PTR __real@3ff0000000000000
  00348	33 c0		 xor	 eax, eax
$LN193@OnSTDataMa:

; 259  : 		}
; 260  : 
; 261  : 		// ~
; 262  : 		for(i =0; i<Div; i++)//..

  0034a	f2 0f 11 8d 50
	ff ff ff	 movsd	 QWORD PTR _Repfloat$1$[ebp], xmm1
  00352	85 c9		 test	 ecx, ecx
  00354	0f 8e 27 05 00
	00		 jle	 $LN6@OnSTDataMa
  0035a	99		 cdq
  0035b	be 01 00 00 00	 mov	 esi, 1
  00360	f7 f9		 idiv	 ecx
  00362	89 5d 98	 mov	 DWORD PTR tv1435[ebp], ebx
  00365	89 85 64 ff ff
	ff		 mov	 DWORD PTR tv1442[ebp], eax
  0036b	33 c0		 xor	 eax, eax
  0036d	0f 1f 00	 npad	 3
$LL7@OnSTDataMa:

; 263  : 		{
; 264  : 			//    : 0.5  -1    .
; 265  : 			int a = int(((Divnum-(i*(Repnum/Div)))*Repfloat)-0.5);

  00370	8b cb		 mov	 ecx, ebx
  00372	89 b5 60 ff ff
	ff		 mov	 DWORD PTR tv1462[ebp], esi
  00378	2b c8		 sub	 ecx, eax
  0037a	66 0f 6e c1	 movd	 xmm0, ecx
  0037e	f3 0f e6 c0	 cvtdq2pd xmm0, xmm0
  00382	f2 0f 59 c1	 mulsd	 xmm0, xmm1
  00386	f2 0f 5c 05 00
	00 00 00	 subsd	 xmm0, QWORD PTR __real@3fe0000000000000
  0038e	f2 0f 2c c8	 cvttsd2si ecx, xmm0
  00392	89 4d 94	 mov	 DWORD PTR _a$1$[ebp], ecx

; 266  : 			if(a>0)

  00395	85 c9		 test	 ecx, ecx
  00397	7e 21		 jle	 SHORT $LN20@OnSTDataMa
; File C:\Program Files (x86)\Microsoft Visual Studio\2019\Community\VC\Tools\MSVC\14.29.30133\atlmfc\include\afxcoll.inl

; 289  : 		if( nIndex < 0 || nIndex >= m_nSize )

  00399	3b 4d 88	 cmp	 ecx, DWORD PTR _strDate$[ebp+8]
  0039c	0f 8d 6f 06 00
	00		 jge	 $LN170@OnSTDataMa

; 291  : 		return m_pData[nIndex]; }

  003a2	8b 45 84	 mov	 eax, DWORD PTR _strDate$[ebp+4]
  003a5	8d 04 88	 lea	 eax, DWORD PTR [eax+ecx*4]
; File D:\git\src\IBK\IBK_DRFN\ProjSrc\SrcDrfn\Chart\HWSTRATEGYANALYSIS\DlgAnalysis.cpp

; 268  : 				strDataItemName = strDate.GetAt(a);

  003a8	50		 push	 eax
  003a9	8d 4d f0	 lea	 ecx, DWORD PTR _strDataItemName$[ebp]
  003ac	ff 15 00 00 00
	00		 call	 DWORD PTR __imp_??4?$CStringT@DV?$StrTraitMFC_DLL@DV?$ChTraitsCRT@D@ATL@@@@@ATL@@QAEAAV01@ABV01@@Z

; 269  : 				Index.nStart = a;

  003b2	8b 45 94	 mov	 eax, DWORD PTR _a$1$[ebp]
  003b5	89 45 c0	 mov	 DWORD PTR _Index$[ebp], eax

; 270  : 			}

  003b8	eb 24		 jmp	 SHORT $LN21@OnSTDataMa
$LN20@OnSTDataMa:
; File C:\Program Files (x86)\Microsoft Visual Studio\2019\Community\VC\Tools\MSVC\14.29.30133\atlmfc\include\afxcoll.inl

; 289  : 		if( nIndex < 0 || nIndex >= m_nSize )

  003ba	85 db		 test	 ebx, ebx
  003bc	0f 88 4f 06 00
	00		 js	 $LN170@OnSTDataMa
  003c2	3b 5d 88	 cmp	 ebx, DWORD PTR _strDate$[ebp+8]
  003c5	0f 8d 46 06 00
	00		 jge	 $LN170@OnSTDataMa

; 291  : 		return m_pData[nIndex]; }

  003cb	8b 45 84	 mov	 eax, DWORD PTR _strDate$[ebp+4]
; File D:\git\src\IBK\IBK_DRFN\ProjSrc\SrcDrfn\Chart\HWSTRATEGYANALYSIS\DlgAnalysis.cpp

; 273  : 				strDataItemName = strDate.GetAt(Divnum );

  003ce	8d 4d f0	 lea	 ecx, DWORD PTR _strDataItemName$[ebp]
; File C:\Program Files (x86)\Microsoft Visual Studio\2019\Community\VC\Tools\MSVC\14.29.30133\atlmfc\include\afxcoll.inl

; 291  : 		return m_pData[nIndex]; }

  003d1	8d 04 98	 lea	 eax, DWORD PTR [eax+ebx*4]
; File D:\git\src\IBK\IBK_DRFN\ProjSrc\SrcDrfn\Chart\HWSTRATEGYANALYSIS\DlgAnalysis.cpp

; 273  : 				strDataItemName = strDate.GetAt(Divnum );

  003d4	50		 push	 eax
  003d5	ff 15 00 00 00
	00		 call	 DWORD PTR __imp_??4?$CStringT@DV?$StrTraitMFC_DLL@DV?$ChTraitsCRT@D@ATL@@@@@ATL@@QAEAAV01@ABV01@@Z

; 274  : 				Index.nStart = int(Divnum);

  003db	89 5d c0	 mov	 DWORD PTR _Index$[ebp], ebx
$LN21@OnSTDataMa:

; 275  : 			}
; 276  : 			
; 277  : 			InsertGubun(strDataItemName);

  003de	6a 00		 push	 0
  003e0	8d 45 f0	 lea	 eax, DWORD PTR _strDataItemName$[ebp]
  003e3	8b cf		 mov	 ecx, edi
  003e5	50		 push	 eax
  003e6	e8 00 00 00 00	 call	 ?InsertGubun@CDlgAnalysis@@QAEHAAV?$CStringT@DV?$StrTraitMFC_DLL@DV?$ChTraitsCRT@D@ATL@@@@@ATL@@H@Z ; CDlgAnalysis::InsertGubun

; 278  : 			Index.strStartDate = strDataItemName;

  003eb	8d 45 f0	 lea	 eax, DWORD PTR _strDataItemName$[ebp]
  003ee	50		 push	 eax
  003ef	8d 4d c8	 lea	 ecx, DWORD PTR _Index$[ebp+8]
  003f2	ff 15 00 00 00
	00		 call	 DWORD PTR __imp_??4?$CStringT@DV?$StrTraitMFC_DLL@DV?$ChTraitsCRT@D@ATL@@@@@ATL@@QAEAAV01@ABV01@@Z

; 279  : 			//Index.strGubun.Format("[%d]",i+1);
; 280  : 			Index.strGubun.Format("%d",i+1);		//    .

  003f8	56		 push	 esi
  003f9	8d 45 d0	 lea	 eax, DWORD PTR _Index$[ebp+16]
  003fc	68 00 00 00 00	 push	 OFFSET ??_C@_02DPKJAMEF@?$CFd@
  00401	50		 push	 eax
  00402	ff 15 00 00 00
	00		 call	 DWORD PTR __imp_?Format@?$CStringT@DV?$StrTraitMFC_DLL@DV?$ChTraitsCRT@D@ATL@@@@@ATL@@QAAXPBDZZ

; 281  : 			//m_pCtlList->InsertItem(i+1,"");
; 282  : 			m_pCtlList->InsertItem(i+1,Index.strGubun);

  00408	8b 8f 14 01 00
	00		 mov	 ecx, DWORD PTR [edi+276]
  0040e	83 c4 0c	 add	 esp, 12			; 0000000cH
  00411	ff 75 d0	 push	 DWORD PTR _Index$[ebp+16]
  00414	56		 push	 esi
  00415	e8 00 00 00 00	 call	 ?InsertItem@CXListCtrl@@QAEHHPBD@Z ; CXListCtrl::InsertItem

; 283  : 
; 284  : 			if(nIsDate<0||m_DivideState==1)

  0041a	83 7d 9c 00	 cmp	 DWORD PTR _nIsDate$1$[ebp], 0
  0041e	7c 3e		 jl	 SHORT $LN181@OnSTDataMa
  00420	83 bf 04 01 00
	00 01		 cmp	 DWORD PTR [edi+260], 1
  00427	74 35		 je	 SHORT $LN181@OnSTDataMa

; 287  : 			}
; 288  : 			else
; 289  : 			{
; 290  : 				szTData = strDataItemName.Mid(2);

  00429	6a 02		 push	 2
  0042b	8d 85 7c ff ff
	ff		 lea	 eax, DWORD PTR $T7[ebp]
  00431	50		 push	 eax
  00432	8d 4d f0	 lea	 ecx, DWORD PTR _strDataItemName$[ebp]
  00435	ff 15 00 00 00
	00		 call	 DWORD PTR __imp_?Mid@?$CStringT@DV?$StrTraitMFC_DLL@DV?$ChTraitsCRT@D@ATL@@@@@ATL@@QBE?AV12@H@Z
  0043b	50		 push	 eax
  0043c	8d 4d ec	 lea	 ecx, DWORD PTR _szTData$[ebp]
  0043f	c6 45 fc 08	 mov	 BYTE PTR __$EHRec$[ebp+8], 8
  00443	ff 15 00 00 00
	00		 call	 DWORD PTR __imp_??4?$CStringT@DV?$StrTraitMFC_DLL@DV?$ChTraitsCRT@D@ATL@@@@@ATL@@QAEAAV01@ABV01@@Z
  00449	8d 8d 7c ff ff
	ff		 lea	 ecx, DWORD PTR $T7[ebp]
  0044f	c6 45 fc 05	 mov	 BYTE PTR __$EHRec$[ebp+8], 5
  00453	ff 15 00 00 00
	00		 call	 DWORD PTR __imp_??1?$CStringT@DV?$StrTraitMFC_DLL@DV?$ChTraitsCRT@D@ATL@@@@@ATL@@QAE@XZ

; 291  : 				m_pCtlList->SetItemText(i+1,1,szTData);

  00459	ff 75 ec	 push	 DWORD PTR _szTData$[ebp]
  0045c	eb 03		 jmp	 SHORT $LN194@OnSTDataMa
$LN181@OnSTDataMa:

; 285  : 			{
; 286  : 				m_pCtlList->SetItemText(i+1,1,strDataItemName);

  0045e	ff 75 f0	 push	 DWORD PTR _strDataItemName$[ebp]
$LN194@OnSTDataMa:

; 292  : 			}
; 293  : 
; 294  : 			//  0     1  .
; 295  : 			// 0~99 , 100~199, 200~299 :   99   100 .
; 296  : 			if(i==0)

  00461	8b 8f 14 01 00
	00		 mov	 ecx, DWORD PTR [edi+276]
  00467	6a 01		 push	 1
  00469	56		 push	 esi
  0046a	e8 00 00 00 00	 call	 ?SetItemText@CXListCtrl@@QAEHHHPBD@Z ; CXListCtrl::SetItemText
  0046f	8b 45 e0	 mov	 eax, DWORD PTR _num$1$[ebp]
  00472	99		 cdq
  00473	f7 7d 08	 idiv	 DWORD PTR _Div$1$[ebp]

; 297  : 				Divnum+=(num/Div);
; 298  : 			else
; 299  : 				Divnum += ((num/Div)-1);//1 .   .
; 300  : 			
; 301  : 			if(Divnum > nTotalData-1)// 400      .

  00476	8d 56 ff	 lea	 edx, DWORD PTR [esi-1]
  00479	85 d2		 test	 edx, edx
  0047b	8d 0c 18	 lea	 ecx, DWORD PTR [eax+ebx]
  0047e	8d 41 ff	 lea	 eax, DWORD PTR [ecx-1]
  00481	0f 45 c8	 cmovne	 ecx, eax

; 302  : 				Divnum = nTotalData-1;
; 303  : 
; 304  : 	//		//  
; 305  : 			int b = int(((Divnum - (i*(Repnum/Div)))*Repfloat)-0.5);//int((Divnum+(Repnum/Div))*Repfloat);

  00484	8b 85 78 ff ff
	ff		 mov	 eax, DWORD PTR tv1444[ebp]
  0048a	3b c8		 cmp	 ecx, eax
  0048c	0f 4e c1	 cmovle	 eax, ecx

; 306  : 
; 307  : 			if(b<num && i!=Div)//     :    ..

  0048f	8b 4d e0	 mov	 ecx, DWORD PTR _num$1$[ebp]
  00492	89 45 94	 mov	 DWORD PTR tv1431[ebp], eax
  00495	2b 45 98	 sub	 eax, DWORD PTR tv1435[ebp]
  00498	66 0f 6e c0	 movd	 xmm0, eax
  0049c	8b 45 08	 mov	 eax, DWORD PTR _Div$1$[ebp]
  0049f	f3 0f e6 c0	 cvtdq2pd xmm0, xmm0
  004a3	f2 0f 59 85 50
	ff ff ff	 mulsd	 xmm0, QWORD PTR _Repfloat$1$[ebp]
  004ab	f2 0f 5c 05 00
	00 00 00	 subsd	 xmm0, QWORD PTR __real@3fe0000000000000
  004b3	f2 0f 2c d8	 cvttsd2si ebx, xmm0
  004b7	3b d9		 cmp	 ebx, ecx
  004b9	7d 31		 jge	 SHORT $LN28@OnSTDataMa
  004bb	3b d0		 cmp	 edx, eax
  004bd	74 2d		 je	 SHORT $LN28@OnSTDataMa
; File C:\Program Files (x86)\Microsoft Visual Studio\2019\Community\VC\Tools\MSVC\14.29.30133\atlmfc\include\afxcoll.inl

; 289  : 		if( nIndex < 0 || nIndex >= m_nSize )

  004bf	85 db		 test	 ebx, ebx
  004c1	0f 88 4a 05 00
	00		 js	 $LN170@OnSTDataMa
  004c7	3b 5d 88	 cmp	 ebx, DWORD PTR _strDate$[ebp+8]
  004ca	0f 8d 41 05 00
	00		 jge	 $LN170@OnSTDataMa

; 291  : 		return m_pData[nIndex]; }

  004d0	8b 45 84	 mov	 eax, DWORD PTR _strDate$[ebp+4]
; File D:\git\src\IBK\IBK_DRFN\ProjSrc\SrcDrfn\Chart\HWSTRATEGYANALYSIS\DlgAnalysis.cpp

; 309  : 				strDataItemName = strDate.GetAt(b);

  004d3	8d 4d f0	 lea	 ecx, DWORD PTR _strDataItemName$[ebp]
; File C:\Program Files (x86)\Microsoft Visual Studio\2019\Community\VC\Tools\MSVC\14.29.30133\atlmfc\include\afxcoll.inl

; 291  : 		return m_pData[nIndex]; }

  004d6	8d 04 98	 lea	 eax, DWORD PTR [eax+ebx*4]
; File D:\git\src\IBK\IBK_DRFN\ProjSrc\SrcDrfn\Chart\HWSTRATEGYANALYSIS\DlgAnalysis.cpp

; 309  : 				strDataItemName = strDate.GetAt(b);

  004d9	50		 push	 eax
  004da	ff 15 00 00 00
	00		 call	 DWORD PTR __imp_??4?$CStringT@DV?$StrTraitMFC_DLL@DV?$ChTraitsCRT@D@ATL@@@@@ATL@@QAEAAV01@ABV01@@Z
  004e0	8b 45 08	 mov	 eax, DWORD PTR _Div$1$[ebp]
  004e3	8d 56 ff	 lea	 edx, DWORD PTR [esi-1]
  004e6	8b 4d e0	 mov	 ecx, DWORD PTR _num$1$[ebp]

; 310  : 				Index.nEnd = b;

  004e9	89 5d c4	 mov	 DWORD PTR _Index$[ebp+4], ebx
$LN28@OnSTDataMa:

; 311  : 			}
; 312  : 
; 313  : 			if(m_nDivideCnt==1 || i == Div-1)//  . 

  004ec	83 bf 00 01 00
	00 01		 cmp	 DWORD PTR [edi+256], 1
  004f3	74 05		 je	 SHORT $LN30@OnSTDataMa
  004f5	48		 dec	 eax
  004f6	3b d0		 cmp	 edx, eax
  004f8	75 27		 jne	 SHORT $LN29@OnSTDataMa
$LN30@OnSTDataMa:

; 315  : 				strDataItemName = strDate.GetAt(num-1);

  004fa	8d 59 ff	 lea	 ebx, DWORD PTR [ecx-1]
; File C:\Program Files (x86)\Microsoft Visual Studio\2019\Community\VC\Tools\MSVC\14.29.30133\atlmfc\include\afxcoll.inl

; 289  : 		if( nIndex < 0 || nIndex >= m_nSize )

  004fd	85 db		 test	 ebx, ebx
  004ff	0f 88 0c 05 00
	00		 js	 $LN170@OnSTDataMa
  00505	3b 5d 88	 cmp	 ebx, DWORD PTR _strDate$[ebp+8]
  00508	0f 8d 03 05 00
	00		 jge	 $LN170@OnSTDataMa

; 291  : 		return m_pData[nIndex]; }

  0050e	8b 45 84	 mov	 eax, DWORD PTR _strDate$[ebp+4]
; File D:\git\src\IBK\IBK_DRFN\ProjSrc\SrcDrfn\Chart\HWSTRATEGYANALYSIS\DlgAnalysis.cpp

; 315  : 				strDataItemName = strDate.GetAt(num-1);

  00511	8d 4d f0	 lea	 ecx, DWORD PTR _strDataItemName$[ebp]
; File C:\Program Files (x86)\Microsoft Visual Studio\2019\Community\VC\Tools\MSVC\14.29.30133\atlmfc\include\afxcoll.inl

; 291  : 		return m_pData[nIndex]; }

  00514	8d 04 98	 lea	 eax, DWORD PTR [eax+ebx*4]
; File D:\git\src\IBK\IBK_DRFN\ProjSrc\SrcDrfn\Chart\HWSTRATEGYANALYSIS\DlgAnalysis.cpp

; 315  : 				strDataItemName = strDate.GetAt(num-1);

  00517	50		 push	 eax
  00518	ff 15 00 00 00
	00		 call	 DWORD PTR __imp_??4?$CStringT@DV?$StrTraitMFC_DLL@DV?$ChTraitsCRT@D@ATL@@@@@ATL@@QAEAAV01@ABV01@@Z

; 316  : 				Index.nEnd = num-1;

  0051e	89 5d c4	 mov	 DWORD PTR _Index$[ebp+4], ebx
$LN29@OnSTDataMa:

; 317  : 
; 318  : 			}
; 319  : 			InsertGubun(strDataItemName);

  00521	6a 00		 push	 0
  00523	8d 45 f0	 lea	 eax, DWORD PTR _strDataItemName$[ebp]
  00526	8b cf		 mov	 ecx, edi
  00528	50		 push	 eax
  00529	e8 00 00 00 00	 call	 ?InsertGubun@CDlgAnalysis@@QAEHAAV?$CStringT@DV?$StrTraitMFC_DLL@DV?$ChTraitsCRT@D@ATL@@@@@ATL@@H@Z ; CDlgAnalysis::InsertGubun

; 320  : 			Index.strEndDate = strDataItemName;

  0052e	8d 45 f0	 lea	 eax, DWORD PTR _strDataItemName$[ebp]
  00531	50		 push	 eax
  00532	8d 4d cc	 lea	 ecx, DWORD PTR _Index$[ebp+12]
  00535	ff 15 00 00 00
	00		 call	 DWORD PTR __imp_??4?$CStringT@DV?$StrTraitMFC_DLL@DV?$ChTraitsCRT@D@ATL@@@@@ATL@@QAEAAV01@ABV01@@Z

; 321  : 			///////// . KHD : 2006/9/4/////////////
; 322  : 			m_pStrategyItem->CalculateStatisticalInfo(Index.nStart, Index.nEnd);

  0053b	8b 8f c4 00 00
	00		 mov	 ecx, DWORD PTR [edi+196]
  00541	ff 75 c4	 push	 DWORD PTR _Index$[ebp+4]
  00544	ff 75 c0	 push	 DWORD PTR _Index$[ebp]
  00547	8b 01		 mov	 eax, DWORD PTR [ecx]
  00549	ff 50 44	 call	 DWORD PTR [eax+68]

; 323  : 			//  = 18 ,  =1 ,  = 15,  = 3
; 324  : 			
; 325  : 			CString stData1;

  0054c	8d 4d e4	 lea	 ecx, DWORD PTR _stData1$10[ebp]
  0054f	ff 15 00 00 00
	00		 call	 DWORD PTR __imp_??0?$CStringT@DV?$StrTraitMFC_DLL@DV?$ChTraitsCRT@D@ATL@@@@@ATL@@QAE@XZ

; 326  : 			stData1.Format("%.2f",m_pStrategyItem->GetStatisticalInfo(0));

  00555	8b 8f c4 00 00
	00		 mov	 ecx, DWORD PTR [edi+196]
  0055b	6a 00		 push	 0
  0055d	c6 45 fc 09	 mov	 BYTE PTR __$EHRec$[ebp+8], 9
  00561	8b 01		 mov	 eax, DWORD PTR [ecx]
  00563	8b 40 50	 mov	 eax, DWORD PTR [eax+80]
  00566	ff d0		 call	 eax
  00568	8b 1d 00 00 00
	00		 mov	 ebx, DWORD PTR __imp_?Format@?$CStringT@DV?$StrTraitMFC_DLL@DV?$ChTraitsCRT@D@ATL@@@@@ATL@@QAAXPBDZZ
  0056e	8d 45 e4	 lea	 eax, DWORD PTR _stData1$10[ebp]
  00571	83 ec 08	 sub	 esp, 8
  00574	dd 1c 24	 fstp	 QWORD PTR [esp]
  00577	68 00 00 00 00	 push	 OFFSET ??_C@_04GEFJINEE@?$CF?42f@
  0057c	50		 push	 eax
  0057d	ff d3		 call	 ebx

; 327  : 			stData1 = CDlgInterface::GetComma(stData1);

  0057f	ff 75 e4	 push	 DWORD PTR _stData1$10[ebp]
  00582	8d 85 74 ff ff
	ff		 lea	 eax, DWORD PTR $T6[ebp]
  00588	50		 push	 eax
  00589	e8 00 00 00 00	 call	 ?GetComma@CDlgInterface@@SA?AV?$CStringT@DV?$StrTraitMFC_DLL@DV?$ChTraitsCRT@D@ATL@@@@@ATL@@PBD@Z ; CDlgInterface::GetComma
  0058e	83 c4 18	 add	 esp, 24			; 00000018H
  00591	50		 push	 eax
  00592	8d 4d e4	 lea	 ecx, DWORD PTR _stData1$10[ebp]
  00595	c6 45 fc 0a	 mov	 BYTE PTR __$EHRec$[ebp+8], 10 ; 0000000aH
  00599	ff 15 00 00 00
	00		 call	 DWORD PTR __imp_??4?$CStringT@DV?$StrTraitMFC_DLL@DV?$ChTraitsCRT@D@ATL@@@@@ATL@@QAEAAV01@ABV01@@Z
  0059f	8d 8d 74 ff ff
	ff		 lea	 ecx, DWORD PTR $T6[ebp]
  005a5	ff 15 00 00 00
	00		 call	 DWORD PTR __imp_??1?$CStringT@DV?$StrTraitMFC_DLL@DV?$ChTraitsCRT@D@ATL@@@@@ATL@@QAE@XZ

; 328  : 
; 329  : 			CString stData3;

  005ab	8d 4d e8	 lea	 ecx, DWORD PTR _stData3$11[ebp]
  005ae	ff 15 00 00 00
	00		 call	 DWORD PTR __imp_??0?$CStringT@DV?$StrTraitMFC_DLL@DV?$ChTraitsCRT@D@ATL@@@@@ATL@@QAE@XZ

; 330  : 			stData3.Format("%.0f",m_pStrategyItem->GetStatisticalInfo(15));

  005b4	8b 8f c4 00 00
	00		 mov	 ecx, DWORD PTR [edi+196]
  005ba	6a 0f		 push	 15			; 0000000fH
  005bc	c6 45 fc 0b	 mov	 BYTE PTR __$EHRec$[ebp+8], 11 ; 0000000bH
  005c0	8b 01		 mov	 eax, DWORD PTR [ecx]
  005c2	8b 40 50	 mov	 eax, DWORD PTR [eax+80]
  005c5	ff d0		 call	 eax
  005c7	83 ec 08	 sub	 esp, 8
  005ca	8d 45 e8	 lea	 eax, DWORD PTR _stData3$11[ebp]
  005cd	dd 1c 24	 fstp	 QWORD PTR [esp]
  005d0	68 00 00 00 00	 push	 OFFSET ??_C@_04GHNNFJCK@?$CF?40f@
  005d5	50		 push	 eax
  005d6	ff d3		 call	 ebx

; 331  : 			stData3 = CDlgInterface::GetComma(stData3);

  005d8	ff 75 e8	 push	 DWORD PTR _stData3$11[ebp]
  005db	8d 85 70 ff ff
	ff		 lea	 eax, DWORD PTR $T5[ebp]
  005e1	50		 push	 eax
  005e2	e8 00 00 00 00	 call	 ?GetComma@CDlgInterface@@SA?AV?$CStringT@DV?$StrTraitMFC_DLL@DV?$ChTraitsCRT@D@ATL@@@@@ATL@@PBD@Z ; CDlgInterface::GetComma
  005e7	83 c4 18	 add	 esp, 24			; 00000018H
  005ea	50		 push	 eax
  005eb	8d 4d e8	 lea	 ecx, DWORD PTR _stData3$11[ebp]
  005ee	c6 45 fc 0c	 mov	 BYTE PTR __$EHRec$[ebp+8], 12 ; 0000000cH
  005f2	ff 15 00 00 00
	00		 call	 DWORD PTR __imp_??4?$CStringT@DV?$StrTraitMFC_DLL@DV?$ChTraitsCRT@D@ATL@@@@@ATL@@QAEAAV01@ABV01@@Z
  005f8	8d 8d 70 ff ff
	ff		 lea	 ecx, DWORD PTR $T5[ebp]
  005fe	ff 15 00 00 00
	00		 call	 DWORD PTR __imp_??1?$CStringT@DV?$StrTraitMFC_DLL@DV?$ChTraitsCRT@D@ATL@@@@@ATL@@QAE@XZ

; 332  : 			CString stData4;

  00604	8d 4d 0c	 lea	 ecx, DWORD PTR _stData4$14[ebp]
  00607	ff 15 00 00 00
	00		 call	 DWORD PTR __imp_??0?$CStringT@DV?$StrTraitMFC_DLL@DV?$ChTraitsCRT@D@ATL@@@@@ATL@@QAE@XZ

; 333  : 			stData4.Format("%.2f",m_pStrategyItem->GetStatisticalInfo(19));

  0060d	8b 8f c4 00 00
	00		 mov	 ecx, DWORD PTR [edi+196]
  00613	6a 13		 push	 19			; 00000013H
  00615	c6 45 fc 0d	 mov	 BYTE PTR __$EHRec$[ebp+8], 13 ; 0000000dH
  00619	8b 01		 mov	 eax, DWORD PTR [ecx]
  0061b	8b 40 50	 mov	 eax, DWORD PTR [eax+80]
  0061e	ff d0		 call	 eax
  00620	83 ec 08	 sub	 esp, 8
  00623	dd 1c 24	 fstp	 QWORD PTR [esp]
  00626	68 00 00 00 00	 push	 OFFSET ??_C@_04GEFJINEE@?$CF?42f@
  0062b	8d 45 0c	 lea	 eax, DWORD PTR _stData4$14[ebp]
  0062e	50		 push	 eax
  0062f	ff d3		 call	 ebx

; 334  : 			stData4 = CDlgInterface::GetComma(stData4);

  00631	ff 75 0c	 push	 DWORD PTR _stData4$14[ebp]
  00634	8d 85 6c ff ff
	ff		 lea	 eax, DWORD PTR $T4[ebp]
  0063a	50		 push	 eax
  0063b	e8 00 00 00 00	 call	 ?GetComma@CDlgInterface@@SA?AV?$CStringT@DV?$StrTraitMFC_DLL@DV?$ChTraitsCRT@D@ATL@@@@@ATL@@PBD@Z ; CDlgInterface::GetComma
  00640	83 c4 18	 add	 esp, 24			; 00000018H
  00643	50		 push	 eax
  00644	8d 4d 0c	 lea	 ecx, DWORD PTR _stData4$14[ebp]
  00647	c6 45 fc 0e	 mov	 BYTE PTR __$EHRec$[ebp+8], 14 ; 0000000eH
  0064b	ff 15 00 00 00
	00		 call	 DWORD PTR __imp_??4?$CStringT@DV?$StrTraitMFC_DLL@DV?$ChTraitsCRT@D@ATL@@@@@ATL@@QAEAAV01@ABV01@@Z
  00651	8d 8d 6c ff ff
	ff		 lea	 ecx, DWORD PTR $T4[ebp]
  00657	c6 45 fc 0d	 mov	 BYTE PTR __$EHRec$[ebp+8], 13 ; 0000000dH
  0065b	ff 15 00 00 00
	00		 call	 DWORD PTR __imp_??1?$CStringT@DV?$StrTraitMFC_DLL@DV?$ChTraitsCRT@D@ATL@@@@@ATL@@QAE@XZ

; 335  : 			Index.strInfo1.Format(":%s ",stData1);

  00661	ff 75 e4	 push	 DWORD PTR _stData1$10[ebp]
  00664	8d 45 d4	 lea	 eax, DWORD PTR _Index$[ebp+20]
  00667	68 00 00 00 00	 push	 OFFSET ??_C@_08LFHKPNLG@?$LE?$KJ?$MA?$PL?3?$CFs?5@
  0066c	50		 push	 eax
  0066d	ff d3		 call	 ebx

; 336  : 			Index.strInfo2.Format(":%s :%s",stData4,stData3);

  0066f	ff 75 e8	 push	 DWORD PTR _stData3$11[ebp]
  00672	8d 45 d8	 lea	 eax, DWORD PTR _Index$[ebp+24]
  00675	ff 75 0c	 push	 DWORD PTR _stData4$14[ebp]
  00678	68 00 00 00 00	 push	 OFFSET ??_C@_0BC@CBMEJKFM@?$LN?B?$LH?$PM?3?$CFs?5?$LI?E?$LI?E?$LM?v?3?$CFs@
  0067d	50		 push	 eax
  0067e	ff d3		 call	 ebx
  00680	83 c4 1c	 add	 esp, 28			; 0000001cH

; 337  : 			Index.STName = m_stSTName;

  00683	8d 87 ec 00 00
	00		 lea	 eax, DWORD PTR [edi+236]
  00689	8d 4d dc	 lea	 ecx, DWORD PTR _Index$[ebp+28]
  0068c	50		 push	 eax
  0068d	ff 15 00 00 00
	00		 call	 DWORD PTR __imp_??4?$CStringT@DV?$StrTraitMFC_DLL@DV?$ChTraitsCRT@D@ATL@@@@@ATL@@QAEAAV01@ABV01@@Z

; 338  : 			/////////////////////////////////////////////////////
; 339  : 			m_stDataIndex.Add(Index);//     .

  00693	8d 45 a0	 lea	 eax, DWORD PTR $T9[ebp]
  00696	89 85 4c ff ff
	ff		 mov	 DWORD PTR _this$[ebp], eax
  0069c	8d 4d a8	 lea	 ecx, DWORD PTR $T9[ebp+8]
  0069f	8b 45 c0	 mov	 eax, DWORD PTR _Index$[ebp]
  006a2	89 45 a0	 mov	 DWORD PTR $T9[ebp], eax
  006a5	8b 45 c4	 mov	 eax, DWORD PTR _Index$[ebp+4]
  006a8	89 45 a4	 mov	 DWORD PTR $T9[ebp+4], eax
  006ab	8d 45 c8	 lea	 eax, DWORD PTR _Index$[ebp+8]
  006ae	50		 push	 eax
  006af	ff 15 00 00 00
	00		 call	 DWORD PTR __imp_??0?$CStringT@DV?$StrTraitMFC_DLL@DV?$ChTraitsCRT@D@ATL@@@@@ATL@@QAE@ABV01@@Z
  006b5	8d 45 cc	 lea	 eax, DWORD PTR _Index$[ebp+12]
  006b8	c6 45 fc 0f	 mov	 BYTE PTR __$EHRec$[ebp+8], 15 ; 0000000fH
  006bc	50		 push	 eax
  006bd	8d 4d ac	 lea	 ecx, DWORD PTR $T9[ebp+12]
  006c0	ff 15 00 00 00
	00		 call	 DWORD PTR __imp_??0?$CStringT@DV?$StrTraitMFC_DLL@DV?$ChTraitsCRT@D@ATL@@@@@ATL@@QAE@ABV01@@Z
  006c6	8d 45 d0	 lea	 eax, DWORD PTR _Index$[ebp+16]
  006c9	c6 45 fc 10	 mov	 BYTE PTR __$EHRec$[ebp+8], 16 ; 00000010H
  006cd	50		 push	 eax
  006ce	8d 4d b0	 lea	 ecx, DWORD PTR $T9[ebp+16]
  006d1	ff 15 00 00 00
	00		 call	 DWORD PTR __imp_??0?$CStringT@DV?$StrTraitMFC_DLL@DV?$ChTraitsCRT@D@ATL@@@@@ATL@@QAE@ABV01@@Z
  006d7	8d 45 d4	 lea	 eax, DWORD PTR _Index$[ebp+20]
  006da	c6 45 fc 11	 mov	 BYTE PTR __$EHRec$[ebp+8], 17 ; 00000011H
  006de	50		 push	 eax
  006df	8d 4d b4	 lea	 ecx, DWORD PTR $T9[ebp+20]
  006e2	ff 15 00 00 00
	00		 call	 DWORD PTR __imp_??0?$CStringT@DV?$StrTraitMFC_DLL@DV?$ChTraitsCRT@D@ATL@@@@@ATL@@QAE@ABV01@@Z
  006e8	8d 45 d8	 lea	 eax, DWORD PTR _Index$[ebp+24]
  006eb	c6 45 fc 12	 mov	 BYTE PTR __$EHRec$[ebp+8], 18 ; 00000012H
  006ef	50		 push	 eax
  006f0	8d 4d b8	 lea	 ecx, DWORD PTR $T9[ebp+24]
  006f3	ff 15 00 00 00
	00		 call	 DWORD PTR __imp_??0?$CStringT@DV?$StrTraitMFC_DLL@DV?$ChTraitsCRT@D@ATL@@@@@ATL@@QAE@ABV01@@Z
  006f9	8d 45 dc	 lea	 eax, DWORD PTR _Index$[ebp+28]
  006fc	c6 45 fc 13	 mov	 BYTE PTR __$EHRec$[ebp+8], 19 ; 00000013H
  00700	50		 push	 eax
  00701	8d 4d bc	 lea	 ecx, DWORD PTR $T9[ebp+28]
  00704	ff 15 00 00 00
	00		 call	 DWORD PTR __imp_??0?$CStringT@DV?$StrTraitMFC_DLL@DV?$ChTraitsCRT@D@ATL@@@@@ATL@@QAE@ABV01@@Z
; File C:\Program Files (x86)\Microsoft Visual Studio\2019\Community\VC\Tools\MSVC\14.29.30133\atlmfc\include\afxtempl.h

; 333  : 	{ INT_PTR nIndex = m_nSize;

  0070a	8b 9f 44 01 00
	00		 mov	 ebx, DWORD PTR [edi+324]

; 334  : 		SetAtGrow(nIndex, newElement);

  00710	8d 45 a0	 lea	 eax, DWORD PTR $T9[ebp]
  00713	50		 push	 eax
  00714	8d 8d 2c ff ff
	ff		 lea	 ecx, DWORD PTR $T2[ebp]
  0071a	c6 45 fc 14	 mov	 BYTE PTR __$EHRec$[ebp+8], 20 ; 00000014H
  0071e	e8 00 00 00 00	 call	 ??0ST_DATAINDEX@@QAE@ABU0@@Z

; 534  : {

  00723	c6 45 fc 15	 mov	 BYTE PTR __$EHRec$[ebp+8], 21 ; 00000015H

; 535  : 	ASSERT_VALID(this);
; 536  : 	ASSERT(nIndex >= 0);
; 537  : 
; 538  : 	if(nIndex < 0)

  00727	85 db		 test	 ebx, ebx
  00729	0f 88 e2 02 00
	00		 js	 $LN170@OnSTDataMa

; 539  : 		AfxThrowInvalidArgException();
; 540  : 
; 541  : 	if (nIndex >= m_nSize)

  0072f	3b 9f 44 01 00
	00		 cmp	 ebx, DWORD PTR [edi+324]
  00735	8d 8f 3c 01 00
	00		 lea	 ecx, DWORD PTR [edi+316]
  0073b	7c 11		 jl	 SHORT $LN121@OnSTDataMa

; 542  : 		SetSize(nIndex+1, -1);

  0073d	6a ff		 push	 -1
  0073f	8d 43 01	 lea	 eax, DWORD PTR [ebx+1]
  00742	50		 push	 eax
  00743	e8 00 00 00 00	 call	 ?SetSize@?$CArray@UST_DATAINDEX@@U1@@@QAEXHH@Z ; CArray<ST_DATAINDEX,ST_DATAINDEX>::SetSize
  00748	8d 8f 3c 01 00
	00		 lea	 ecx, DWORD PTR [edi+316]
$LN121@OnSTDataMa:

; 543  : 	m_pData[nIndex] = newElement;

  0074e	c1 e3 05	 shl	 ebx, 5
  00751	8d 85 2c ff ff
	ff		 lea	 eax, DWORD PTR $T2[ebp]
  00757	03 59 04	 add	 ebx, DWORD PTR [ecx+4]
  0075a	50		 push	 eax
  0075b	8b cb		 mov	 ecx, ebx
  0075d	e8 00 00 00 00	 call	 ??4ST_DATAINDEX@@QAEAAU0@ABU0@@Z
  00762	8d 8d 48 ff ff
	ff		 lea	 ecx, DWORD PTR $T2[ebp+28]
  00768	ff 15 00 00 00
	00		 call	 DWORD PTR __imp_??1?$CStringT@DV?$StrTraitMFC_DLL@DV?$ChTraitsCRT@D@ATL@@@@@ATL@@QAE@XZ
  0076e	8d 8d 44 ff ff
	ff		 lea	 ecx, DWORD PTR $T2[ebp+24]
  00774	ff 15 00 00 00
	00		 call	 DWORD PTR __imp_??1?$CStringT@DV?$StrTraitMFC_DLL@DV?$ChTraitsCRT@D@ATL@@@@@ATL@@QAE@XZ
  0077a	8d 8d 40 ff ff
	ff		 lea	 ecx, DWORD PTR $T2[ebp+20]
  00780	ff 15 00 00 00
	00		 call	 DWORD PTR __imp_??1?$CStringT@DV?$StrTraitMFC_DLL@DV?$ChTraitsCRT@D@ATL@@@@@ATL@@QAE@XZ
  00786	8d 8d 3c ff ff
	ff		 lea	 ecx, DWORD PTR $T2[ebp+16]
  0078c	ff 15 00 00 00
	00		 call	 DWORD PTR __imp_??1?$CStringT@DV?$StrTraitMFC_DLL@DV?$ChTraitsCRT@D@ATL@@@@@ATL@@QAE@XZ
  00792	8d 8d 38 ff ff
	ff		 lea	 ecx, DWORD PTR $T2[ebp+12]
  00798	ff 15 00 00 00
	00		 call	 DWORD PTR __imp_??1?$CStringT@DV?$StrTraitMFC_DLL@DV?$ChTraitsCRT@D@ATL@@@@@ATL@@QAE@XZ
  0079e	8d 8d 34 ff ff
	ff		 lea	 ecx, DWORD PTR $T2[ebp+8]
  007a4	ff 15 00 00 00
	00		 call	 DWORD PTR __imp_??1?$CStringT@DV?$StrTraitMFC_DLL@DV?$ChTraitsCRT@D@ATL@@@@@ATL@@QAE@XZ
  007aa	8d 4d bc	 lea	 ecx, DWORD PTR $T9[ebp+28]

; 335  : 		return nIndex; }

  007ad	c6 45 fc 0d	 mov	 BYTE PTR __$EHRec$[ebp+8], 13 ; 0000000dH
  007b1	ff 15 00 00 00
	00		 call	 DWORD PTR __imp_??1?$CStringT@DV?$StrTraitMFC_DLL@DV?$ChTraitsCRT@D@ATL@@@@@ATL@@QAE@XZ
  007b7	8d 4d b8	 lea	 ecx, DWORD PTR $T9[ebp+24]
  007ba	ff 15 00 00 00
	00		 call	 DWORD PTR __imp_??1?$CStringT@DV?$StrTraitMFC_DLL@DV?$ChTraitsCRT@D@ATL@@@@@ATL@@QAE@XZ
  007c0	8d 4d b4	 lea	 ecx, DWORD PTR $T9[ebp+20]
  007c3	ff 15 00 00 00
	00		 call	 DWORD PTR __imp_??1?$CStringT@DV?$StrTraitMFC_DLL@DV?$ChTraitsCRT@D@ATL@@@@@ATL@@QAE@XZ
  007c9	8d 4d b0	 lea	 ecx, DWORD PTR $T9[ebp+16]
  007cc	ff 15 00 00 00
	00		 call	 DWORD PTR __imp_??1?$CStringT@DV?$StrTraitMFC_DLL@DV?$ChTraitsCRT@D@ATL@@@@@ATL@@QAE@XZ
  007d2	8d 4d ac	 lea	 ecx, DWORD PTR $T9[ebp+12]
  007d5	ff 15 00 00 00
	00		 call	 DWORD PTR __imp_??1?$CStringT@DV?$StrTraitMFC_DLL@DV?$ChTraitsCRT@D@ATL@@@@@ATL@@QAE@XZ
  007db	8d 4d a8	 lea	 ecx, DWORD PTR $T9[ebp+8]
  007de	ff 15 00 00 00
	00		 call	 DWORD PTR __imp_??1?$CStringT@DV?$StrTraitMFC_DLL@DV?$ChTraitsCRT@D@ATL@@@@@ATL@@QAE@XZ
; File D:\git\src\IBK\IBK_DRFN\ProjSrc\SrcDrfn\Chart\HWSTRATEGYANALYSIS\DlgAnalysis.cpp

; 341  : 			if(nIsDate<0||m_DivideState==1)

  007e4	83 7d 9c 00	 cmp	 DWORD PTR _nIsDate$1$[ebp], 0
  007e8	7c 3e		 jl	 SHORT $LN180@OnSTDataMa
  007ea	83 bf 04 01 00
	00 01		 cmp	 DWORD PTR [edi+260], 1
  007f1	74 35		 je	 SHORT $LN180@OnSTDataMa

; 344  : 			}
; 345  : 			else 
; 346  : 			{
; 347  : 				szTData = strDataItemName.Mid(2);

  007f3	6a 02		 push	 2
  007f5	8d 85 68 ff ff
	ff		 lea	 eax, DWORD PTR $T3[ebp]
  007fb	50		 push	 eax
  007fc	8d 4d f0	 lea	 ecx, DWORD PTR _strDataItemName$[ebp]
  007ff	ff 15 00 00 00
	00		 call	 DWORD PTR __imp_?Mid@?$CStringT@DV?$StrTraitMFC_DLL@DV?$ChTraitsCRT@D@ATL@@@@@ATL@@QBE?AV12@H@Z
  00805	50		 push	 eax
  00806	8d 4d ec	 lea	 ecx, DWORD PTR _szTData$[ebp]
  00809	c6 45 fc 16	 mov	 BYTE PTR __$EHRec$[ebp+8], 22 ; 00000016H
  0080d	ff 15 00 00 00
	00		 call	 DWORD PTR __imp_??4?$CStringT@DV?$StrTraitMFC_DLL@DV?$ChTraitsCRT@D@ATL@@@@@ATL@@QAEAAV01@ABV01@@Z
  00813	8d 8d 68 ff ff
	ff		 lea	 ecx, DWORD PTR $T3[ebp]
  00819	c6 45 fc 0d	 mov	 BYTE PTR __$EHRec$[ebp+8], 13 ; 0000000dH
  0081d	ff 15 00 00 00
	00		 call	 DWORD PTR __imp_??1?$CStringT@DV?$StrTraitMFC_DLL@DV?$ChTraitsCRT@D@ATL@@@@@ATL@@QAE@XZ

; 348  : 				m_pCtlList->SetItemText(i+1,2,szTData);

  00823	ff 75 ec	 push	 DWORD PTR _szTData$[ebp]
  00826	eb 03		 jmp	 SHORT $LN195@OnSTDataMa
$LN180@OnSTDataMa:

; 342  : 			{	
; 343  : 				m_pCtlList->SetItemText(i+1,2,strDataItemName);

  00828	ff 75 f0	 push	 DWORD PTR _strDataItemName$[ebp]
$LN195@OnSTDataMa:

; 349  : 			}	
; 350  : 			Divnum++;

  0082b	8b 8f 14 01 00
	00		 mov	 ecx, DWORD PTR [edi+276]
  00831	6a 02		 push	 2
  00833	56		 push	 esi
  00834	e8 00 00 00 00	 call	 ?SetItemText@CXListCtrl@@QAEHHHPBD@Z ; CXListCtrl::SetItemText
  00839	8b 5d 94	 mov	 ebx, DWORD PTR tv1431[ebp]

; 351  : 		}	

  0083c	8d 4d 0c	 lea	 ecx, DWORD PTR _stData4$14[ebp]
  0083f	43		 inc	 ebx
  00840	ff 15 00 00 00
	00		 call	 DWORD PTR __imp_??1?$CStringT@DV?$StrTraitMFC_DLL@DV?$ChTraitsCRT@D@ATL@@@@@ATL@@QAE@XZ
  00846	8d 4d e8	 lea	 ecx, DWORD PTR _stData3$11[ebp]
  00849	ff 15 00 00 00
	00		 call	 DWORD PTR __imp_??1?$CStringT@DV?$StrTraitMFC_DLL@DV?$ChTraitsCRT@D@ATL@@@@@ATL@@QAE@XZ
  0084f	8d 4d e4	 lea	 ecx, DWORD PTR _stData1$10[ebp]
  00852	c6 45 fc 05	 mov	 BYTE PTR __$EHRec$[ebp+8], 5
  00856	ff 15 00 00 00
	00		 call	 DWORD PTR __imp_??1?$CStringT@DV?$StrTraitMFC_DLL@DV?$ChTraitsCRT@D@ATL@@@@@ATL@@QAE@XZ
  0085c	8b 45 98	 mov	 eax, DWORD PTR tv1435[ebp]
  0085f	46		 inc	 esi
  00860	03 85 64 ff ff
	ff		 add	 eax, DWORD PTR tv1442[ebp]
  00866	8b 8d 60 ff ff
	ff		 mov	 ecx, DWORD PTR tv1462[ebp]
  0086c	89 45 98	 mov	 DWORD PTR tv1435[ebp], eax
  0086f	3b 4d 08	 cmp	 ecx, DWORD PTR _Div$1$[ebp]
  00872	7d 0d		 jge	 SHORT $LN6@OnSTDataMa

; 259  : 		}
; 260  : 
; 261  : 		// ~
; 262  : 		for(i =0; i<Div; i++)//..

  00874	f2 0f 10 8d 50
	ff ff ff	 movsd	 xmm1, QWORD PTR _Repfloat$1$[ebp]
  0087c	e9 ef fa ff ff	 jmp	 $LL7@OnSTDataMa
$LN6@OnSTDataMa:

; 352  : 		if(m_pdlgInfo && m_nStartType!=1)

  00881	83 bf dc 00 00
	00 00		 cmp	 DWORD PTR [edi+220], 0
  00888	0f 84 c1 00 00
	00		 je	 $LN136@OnSTDataMa
  0088e	83 bf c0 00 00
	00 01		 cmp	 DWORD PTR [edi+192], 1
  00895	0f 84 b4 00 00
	00		 je	 $LN136@OnSTDataMa
  0089b	8d 4d a8	 lea	 ecx, DWORD PTR _Index$8[ebp+8]
  0089e	ff 15 00 00 00
	00		 call	 DWORD PTR __imp_??0?$CStringT@DV?$StrTraitMFC_DLL@DV?$ChTraitsCRT@D@ATL@@@@@ATL@@QAE@XZ
  008a4	8d 4d ac	 lea	 ecx, DWORD PTR _Index$8[ebp+12]
  008a7	ff 15 00 00 00
	00		 call	 DWORD PTR __imp_??0?$CStringT@DV?$StrTraitMFC_DLL@DV?$ChTraitsCRT@D@ATL@@@@@ATL@@QAE@XZ
  008ad	8d 4d b0	 lea	 ecx, DWORD PTR _Index$8[ebp+16]
  008b0	ff 15 00 00 00
	00		 call	 DWORD PTR __imp_??0?$CStringT@DV?$StrTraitMFC_DLL@DV?$ChTraitsCRT@D@ATL@@@@@ATL@@QAE@XZ
  008b6	8d 4d b4	 lea	 ecx, DWORD PTR _Index$8[ebp+20]
  008b9	ff 15 00 00 00
	00		 call	 DWORD PTR __imp_??0?$CStringT@DV?$StrTraitMFC_DLL@DV?$ChTraitsCRT@D@ATL@@@@@ATL@@QAE@XZ
  008bf	8d 4d b8	 lea	 ecx, DWORD PTR _Index$8[ebp+24]
  008c2	ff 15 00 00 00
	00		 call	 DWORD PTR __imp_??0?$CStringT@DV?$StrTraitMFC_DLL@DV?$ChTraitsCRT@D@ATL@@@@@ATL@@QAE@XZ
  008c8	8d 4d bc	 lea	 ecx, DWORD PTR _Index$8[ebp+28]
  008cb	ff 15 00 00 00
	00		 call	 DWORD PTR __imp_??0?$CStringT@DV?$StrTraitMFC_DLL@DV?$ChTraitsCRT@D@ATL@@@@@ATL@@QAE@XZ

; 486  : 	if(nIndexnum>=nSize)

  008d1	83 bf 44 01 00
	00 00		 cmp	 DWORD PTR [edi+324], 0
  008d8	c6 45 fc 17	 mov	 BYTE PTR __$EHRec$[ebp+8], 23 ; 00000017H
  008dc	7e 2a		 jle	 SHORT $LN196@OnSTDataMa

; 487  : 		return;
; 488  : 
; 489  : 	Index = m_stDataIndex.GetAt(nIndexnum);

  008de	ff b7 40 01 00
	00		 push	 DWORD PTR [edi+320]
  008e4	8d 4d a0	 lea	 ecx, DWORD PTR _Index$8[ebp]
  008e7	e8 00 00 00 00	 call	 ??4ST_DATAINDEX@@QAEAAU0@ABU0@@Z

; 490  : 	//m_pdlgInfo->m_Trade->m_nDiv = nIndexnum;
; 491  : 	m_pStrategyItem->Stop();

  008ec	8b 8f c4 00 00
	00		 mov	 ecx, DWORD PTR [edi+196]
  008f2	8b 01		 mov	 eax, DWORD PTR [ecx]
  008f4	ff 50 1c	 call	 DWORD PTR [eax+28]

; 492  : 	m_pStrategyItem->CalculateStatisticalInfo(Index.nStart, Index.nEnd);

  008f7	8b 8f c4 00 00
	00		 mov	 ecx, DWORD PTR [edi+196]
  008fd	ff 75 a4	 push	 DWORD PTR _Index$8[ebp+4]
  00900	ff 75 a0	 push	 DWORD PTR _Index$8[ebp]
  00903	8b 01		 mov	 eax, DWORD PTR [ecx]
  00905	ff 50 44	 call	 DWORD PTR [eax+68]
$LN196@OnSTDataMa:

; 502  : 		m_pdlgInfo->SetRefresh(CurSel);

  00908	8d 4d bc	 lea	 ecx, DWORD PTR _Index$8[ebp+28]
  0090b	c6 45 fc 05	 mov	 BYTE PTR __$EHRec$[ebp+8], 5
  0090f	ff 15 00 00 00
	00		 call	 DWORD PTR __imp_??1?$CStringT@DV?$StrTraitMFC_DLL@DV?$ChTraitsCRT@D@ATL@@@@@ATL@@QAE@XZ
  00915	8d 4d b8	 lea	 ecx, DWORD PTR _Index$8[ebp+24]
  00918	ff 15 00 00 00
	00		 call	 DWORD PTR __imp_??1?$CStringT@DV?$StrTraitMFC_DLL@DV?$ChTraitsCRT@D@ATL@@@@@ATL@@QAE@XZ
  0091e	8d 4d b4	 lea	 ecx, DWORD PTR _Index$8[ebp+20]
  00921	ff 15 00 00 00
	00		 call	 DWORD PTR __imp_??1?$CStringT@DV?$StrTraitMFC_DLL@DV?$ChTraitsCRT@D@ATL@@@@@ATL@@QAE@XZ
  00927	8d 4d b0	 lea	 ecx, DWORD PTR _Index$8[ebp+16]
  0092a	ff 15 00 00 00
	00		 call	 DWORD PTR __imp_??1?$CStringT@DV?$StrTraitMFC_DLL@DV?$ChTraitsCRT@D@ATL@@@@@ATL@@QAE@XZ
  00930	8d 4d ac	 lea	 ecx, DWORD PTR _Index$8[ebp+12]
  00933	ff 15 00 00 00
	00		 call	 DWORD PTR __imp_??1?$CStringT@DV?$StrTraitMFC_DLL@DV?$ChTraitsCRT@D@ATL@@@@@ATL@@QAE@XZ
  00939	8d 4d a8	 lea	 ecx, DWORD PTR _Index$8[ebp+8]
  0093c	ff 15 00 00 00
	00		 call	 DWORD PTR __imp_??1?$CStringT@DV?$StrTraitMFC_DLL@DV?$ChTraitsCRT@D@ATL@@@@@ATL@@QAE@XZ
  00942	8b 8f dc 00 00
	00		 mov	 ecx, DWORD PTR [edi+220]
  00948	6a 00		 push	 0
  0094a	e8 00 00 00 00	 call	 ?SetRefresh@CInfoRight@@QAEXH@Z ; CInfoRight::SetRefresh
$LN136@OnSTDataMa:
; File C:\Program Files (x86)\Microsoft Visual Studio\2019\Community\VC\Tools\MSVC\14.29.30133\atlmfc\include\afxwin2.inl

; 114  : 	{ ASSERT(::IsWindow(m_hWnd)); ::InvalidateRect(m_hWnd, NULL, bErase); }

  0094f	8b 87 14 01 00
	00		 mov	 eax, DWORD PTR [edi+276]
  00955	6a 01		 push	 1
  00957	6a 00		 push	 0
  00959	ff 70 20	 push	 DWORD PTR [eax+32]
  0095c	ff 15 00 00 00
	00		 call	 DWORD PTR __imp__InvalidateRect@12
; File D:\git\src\IBK\IBK_DRFN\ProjSrc\SrcDrfn\Chart\HWSTRATEGYANALYSIS\DlgAnalysis.cpp

; 363  : 	if(m_pdlgInfo)

  00962	8b 8f dc 00 00
	00		 mov	 ecx, DWORD PTR [edi+220]
  00968	85 c9		 test	 ecx, ecx
  0096a	74 05		 je	 SHORT $LN35@OnSTDataMa

; 364  : 		m_pdlgInfo->DrawGraph();

  0096c	e8 00 00 00 00	 call	 ?DrawGraph@CInfoRight@@QAEXXZ ; CInfoRight::DrawGraph
$LN35@OnSTDataMa:

; 365  : 
; 366  : 	if(m_nStartType==1)

  00971	83 bf c0 00 00
	00 01		 cmp	 DWORD PTR [edi+192], 1
  00978	75 0f		 jne	 SHORT $LN36@OnSTDataMa
; File C:\Program Files (x86)\Microsoft Visual Studio\2019\Community\VC\Tools\MSVC\14.29.30133\atlmfc\include\afxwin2.inl

; 39   : 	{ ASSERT(::IsWindow(m_hWnd)); return ::PostMessage(m_hWnd, message, wParam, lParam); }

  0097a	6a 00		 push	 0
  0097c	6a 00		 push	 0
  0097e	6a 02		 push	 2
  00980	ff 77 20	 push	 DWORD PTR [edi+32]
  00983	ff 15 00 00 00
	00		 call	 DWORD PTR __imp__PostMessageA@16
$LN36@OnSTDataMa:
; File D:\git\src\IBK\IBK_DRFN\ProjSrc\SrcDrfn\Chart\HWSTRATEGYANALYSIS\DlgAnalysis.cpp

; 368  : 	m_bReceiveData = TRUE;// ..

  00989	c7 87 e0 05 00
	00 01 00 00 00	 mov	 DWORD PTR [edi+1504], 1
$LN56@OnSTDataMa:
  00993	8d 4d dc	 lea	 ecx, DWORD PTR _Index$[ebp+28]
  00996	ff 15 00 00 00
	00		 call	 DWORD PTR __imp_??1?$CStringT@DV?$StrTraitMFC_DLL@DV?$ChTraitsCRT@D@ATL@@@@@ATL@@QAE@XZ
  0099c	8d 4d d8	 lea	 ecx, DWORD PTR _Index$[ebp+24]
  0099f	ff 15 00 00 00
	00		 call	 DWORD PTR __imp_??1?$CStringT@DV?$StrTraitMFC_DLL@DV?$ChTraitsCRT@D@ATL@@@@@ATL@@QAE@XZ
  009a5	8d 4d d4	 lea	 ecx, DWORD PTR _Index$[ebp+20]
  009a8	ff 15 00 00 00
	00		 call	 DWORD PTR __imp_??1?$CStringT@DV?$StrTraitMFC_DLL@DV?$ChTraitsCRT@D@ATL@@@@@ATL@@QAE@XZ
  009ae	8d 4d d0	 lea	 ecx, DWORD PTR _Index$[ebp+16]
  009b1	ff 15 00 00 00
	00		 call	 DWORD PTR __imp_??1?$CStringT@DV?$StrTraitMFC_DLL@DV?$ChTraitsCRT@D@ATL@@@@@ATL@@QAE@XZ
  009b7	8d 4d cc	 lea	 ecx, DWORD PTR _Index$[ebp+12]
  009ba	ff 15 00 00 00
	00		 call	 DWORD PTR __imp_??1?$CStringT@DV?$StrTraitMFC_DLL@DV?$ChTraitsCRT@D@ATL@@@@@ATL@@QAE@XZ
  009c0	8d 4d c8	 lea	 ecx, DWORD PTR _Index$[ebp+8]
  009c3	ff 15 00 00 00
	00		 call	 DWORD PTR __imp_??1?$CStringT@DV?$StrTraitMFC_DLL@DV?$ChTraitsCRT@D@ATL@@@@@ATL@@QAE@XZ

; 369  : 	return 0;

  009c9	8d 4d 80	 lea	 ecx, DWORD PTR _strDate$[ebp]
  009cc	e8 00 00 00 00	 call	 ??1CStringArray@@UAE@XZ	; CStringArray::~CStringArray
  009d1	8d 8d 5c ff ff
	ff		 lea	 ecx, DWORD PTR _strRep$[ebp]
  009d7	ff 15 00 00 00
	00		 call	 DWORD PTR __imp_??1?$CStringT@DV?$StrTraitMFC_DLL@DV?$ChTraitsCRT@D@ATL@@@@@ATL@@QAE@XZ
  009dd	8d 8d 58 ff ff
	ff		 lea	 ecx, DWORD PTR _strDiv$[ebp]
  009e3	ff 15 00 00 00
	00		 call	 DWORD PTR __imp_??1?$CStringT@DV?$StrTraitMFC_DLL@DV?$ChTraitsCRT@D@ATL@@@@@ATL@@QAE@XZ
  009e9	8d 4d ec	 lea	 ecx, DWORD PTR _szTData$[ebp]
  009ec	ff 15 00 00 00
	00		 call	 DWORD PTR __imp_??1?$CStringT@DV?$StrTraitMFC_DLL@DV?$ChTraitsCRT@D@ATL@@@@@ATL@@QAE@XZ
  009f2	8d 4d f0	 lea	 ecx, DWORD PTR _strDataItemName$[ebp]
  009f5	ff 15 00 00 00
	00		 call	 DWORD PTR __imp_??1?$CStringT@DV?$StrTraitMFC_DLL@DV?$ChTraitsCRT@D@ATL@@@@@ATL@@QAE@XZ
$LN190@OnSTDataMa:

; 370  : }

  009fb	33 c0		 xor	 eax, eax
  009fd	8b 4d f4	 mov	 ecx, DWORD PTR __$EHRec$[ebp]
  00a00	64 89 0d 00 00
	00 00		 mov	 DWORD PTR fs:0, ecx
  00a07	59		 pop	 ecx
  00a08	5f		 pop	 edi
  00a09	5e		 pop	 esi
  00a0a	5b		 pop	 ebx
  00a0b	8b e5		 mov	 esp, ebp
  00a0d	5d		 pop	 ebp
  00a0e	c2 08 00	 ret	 8
$LN170@OnSTDataMa:
  00a11	e8 00 00 00 00	 call	 ?AfxThrowInvalidArgException@@YGXXZ ; AfxThrowInvalidArgException
$LN189@OnSTDataMa:
  00a16	cc		 int	 3
_TEXT	ENDS
;	COMDAT text$x
text$x	SEGMENT
__unwindfunclet$?OnSTDataManagerMessagge@CDlgAnalysis@@IAEJIJ@Z$0:
  00000	8d 4d f0	 lea	 ecx, DWORD PTR _strDataItemName$[ebp]
  00003	ff 25 00 00 00
	00		 jmp	 DWORD PTR __imp_??1?$CStringT@DV?$StrTraitMFC_DLL@DV?$ChTraitsCRT@D@ATL@@@@@ATL@@QAE@XZ
__unwindfunclet$?OnSTDataManagerMessagge@CDlgAnalysis@@IAEJIJ@Z$1:
  00009	8d 4d ec	 lea	 ecx, DWORD PTR _szTData$[ebp]
  0000c	ff 25 00 00 00
	00		 jmp	 DWORD PTR __imp_??1?$CStringT@DV?$StrTraitMFC_DLL@DV?$ChTraitsCRT@D@ATL@@@@@ATL@@QAE@XZ
__unwindfunclet$?OnSTDataManagerMessagge@CDlgAnalysis@@IAEJIJ@Z$2:
  00012	8d 8d 58 ff ff
	ff		 lea	 ecx, DWORD PTR _strDiv$[ebp]
  00018	ff 25 00 00 00
	00		 jmp	 DWORD PTR __imp_??1?$CStringT@DV?$StrTraitMFC_DLL@DV?$ChTraitsCRT@D@ATL@@@@@ATL@@QAE@XZ
__unwindfunclet$?OnSTDataManagerMessagge@CDlgAnalysis@@IAEJIJ@Z$3:
  0001e	8d 8d 5c ff ff
	ff		 lea	 ecx, DWORD PTR _strRep$[ebp]
  00024	ff 25 00 00 00
	00		 jmp	 DWORD PTR __imp_??1?$CStringT@DV?$StrTraitMFC_DLL@DV?$ChTraitsCRT@D@ATL@@@@@ATL@@QAE@XZ
__unwindfunclet$?OnSTDataManagerMessagge@CDlgAnalysis@@IAEJIJ@Z$4:
  0002a	8d 4d 80	 lea	 ecx, DWORD PTR _strDate$[ebp]
  0002d	e9 00 00 00 00	 jmp	 ??1CStringArray@@UAE@XZ	; CStringArray::~CStringArray
__unwindfunclet$?OnSTDataManagerMessagge@CDlgAnalysis@@IAEJIJ@Z$5:
  00032	8d 4d c0	 lea	 ecx, DWORD PTR _Index$[ebp]
  00035	e9 00 00 00 00	 jmp	 ??1ST_DATAINDEX@@QAE@XZ
__unwindfunclet$?OnSTDataManagerMessagge@CDlgAnalysis@@IAEJIJ@Z$6:
  0003a	8d 4d 08	 lea	 ecx, DWORD PTR $T13[ebp]
  0003d	ff 25 00 00 00
	00		 jmp	 DWORD PTR __imp_??1?$CStringT@DV?$StrTraitMFC_DLL@DV?$ChTraitsCRT@D@ATL@@@@@ATL@@QAE@XZ
__unwindfunclet$?OnSTDataManagerMessagge@CDlgAnalysis@@IAEJIJ@Z$7:
  00043	8d 4d 08	 lea	 ecx, DWORD PTR $T12[ebp]
  00046	ff 25 00 00 00
	00		 jmp	 DWORD PTR __imp_??1?$CStringT@DV?$StrTraitMFC_DLL@DV?$ChTraitsCRT@D@ATL@@@@@ATL@@QAE@XZ
__unwindfunclet$?OnSTDataManagerMessagge@CDlgAnalysis@@IAEJIJ@Z$9:
  0004c	8d 8d 7c ff ff
	ff		 lea	 ecx, DWORD PTR $T7[ebp]
  00052	ff 25 00 00 00
	00		 jmp	 DWORD PTR __imp_??1?$CStringT@DV?$StrTraitMFC_DLL@DV?$ChTraitsCRT@D@ATL@@@@@ATL@@QAE@XZ
__unwindfunclet$?OnSTDataManagerMessagge@CDlgAnalysis@@IAEJIJ@Z$10:
  00058	8d 4d e4	 lea	 ecx, DWORD PTR _stData1$10[ebp]
  0005b	ff 25 00 00 00
	00		 jmp	 DWORD PTR __imp_??1?$CStringT@DV?$StrTraitMFC_DLL@DV?$ChTraitsCRT@D@ATL@@@@@ATL@@QAE@XZ
__unwindfunclet$?OnSTDataManagerMessagge@CDlgAnalysis@@IAEJIJ@Z$11:
  00061	8d 8d 74 ff ff
	ff		 lea	 ecx, DWORD PTR $T6[ebp]
  00067	ff 25 00 00 00
	00		 jmp	 DWORD PTR __imp_??1?$CStringT@DV?$StrTraitMFC_DLL@DV?$ChTraitsCRT@D@ATL@@@@@ATL@@QAE@XZ
__unwindfunclet$?OnSTDataManagerMessagge@CDlgAnalysis@@IAEJIJ@Z$12:
  0006d	8d 4d e8	 lea	 ecx, DWORD PTR _stData3$11[ebp]
  00070	ff 25 00 00 00
	00		 jmp	 DWORD PTR __imp_??1?$CStringT@DV?$StrTraitMFC_DLL@DV?$ChTraitsCRT@D@ATL@@@@@ATL@@QAE@XZ
__unwindfunclet$?OnSTDataManagerMessagge@CDlgAnalysis@@IAEJIJ@Z$13:
  00076	8d 8d 70 ff ff
	ff		 lea	 ecx, DWORD PTR $T5[ebp]
  0007c	ff 25 00 00 00
	00		 jmp	 DWORD PTR __imp_??1?$CStringT@DV?$StrTraitMFC_DLL@DV?$ChTraitsCRT@D@ATL@@@@@ATL@@QAE@XZ
__unwindfunclet$?OnSTDataManagerMessagge@CDlgAnalysis@@IAEJIJ@Z$14:
  00082	8d 4d 0c	 lea	 ecx, DWORD PTR _stData4$14[ebp]
  00085	ff 25 00 00 00
	00		 jmp	 DWORD PTR __imp_??1?$CStringT@DV?$StrTraitMFC_DLL@DV?$ChTraitsCRT@D@ATL@@@@@ATL@@QAE@XZ
__unwindfunclet$?OnSTDataManagerMessagge@CDlgAnalysis@@IAEJIJ@Z$15:
  0008b	8d 8d 6c ff ff
	ff		 lea	 ecx, DWORD PTR $T4[ebp]
  00091	ff 25 00 00 00
	00		 jmp	 DWORD PTR __imp_??1?$CStringT@DV?$StrTraitMFC_DLL@DV?$ChTraitsCRT@D@ATL@@@@@ATL@@QAE@XZ
__unwindfunclet$?OnSTDataManagerMessagge@CDlgAnalysis@@IAEJIJ@Z$19:
  00097	8b 8d 4c ff ff
	ff		 mov	 ecx, DWORD PTR _this$[ebp]
  0009d	83 c1 08	 add	 ecx, 8
  000a0	ff 25 00 00 00
	00		 jmp	 DWORD PTR __imp_??1?$CStringT@DV?$StrTraitMFC_DLL@DV?$ChTraitsCRT@D@ATL@@@@@ATL@@QAE@XZ
__unwindfunclet$?OnSTDataManagerMessagge@CDlgAnalysis@@IAEJIJ@Z$20:
  000a6	8b 8d 4c ff ff
	ff		 mov	 ecx, DWORD PTR _this$[ebp]
  000ac	83 c1 0c	 add	 ecx, 12			; 0000000cH
  000af	ff 25 00 00 00
	00		 jmp	 DWORD PTR __imp_??1?$CStringT@DV?$StrTraitMFC_DLL@DV?$ChTraitsCRT@D@ATL@@@@@ATL@@QAE@XZ
__unwindfunclet$?OnSTDataManagerMessagge@CDlgAnalysis@@IAEJIJ@Z$21:
  000b5	8b 8d 4c ff ff
	ff		 mov	 ecx, DWORD PTR _this$[ebp]
  000bb	83 c1 10	 add	 ecx, 16			; 00000010H
  000be	ff 25 00 00 00
	00		 jmp	 DWORD PTR __imp_??1?$CStringT@DV?$StrTraitMFC_DLL@DV?$ChTraitsCRT@D@ATL@@@@@ATL@@QAE@XZ
__unwindfunclet$?OnSTDataManagerMessagge@CDlgAnalysis@@IAEJIJ@Z$22:
  000c4	8b 8d 4c ff ff
	ff		 mov	 ecx, DWORD PTR _this$[ebp]
  000ca	83 c1 14	 add	 ecx, 20			; 00000014H
  000cd	ff 25 00 00 00
	00		 jmp	 DWORD PTR __imp_??1?$CStringT@DV?$StrTraitMFC_DLL@DV?$ChTraitsCRT@D@ATL@@@@@ATL@@QAE@XZ
__unwindfunclet$?OnSTDataManagerMessagge@CDlgAnalysis@@IAEJIJ@Z$23:
  000d3	8b 8d 4c ff ff
	ff		 mov	 ecx, DWORD PTR _this$[ebp]
  000d9	83 c1 18	 add	 ecx, 24			; 00000018H
  000dc	ff 25 00 00 00
	00		 jmp	 DWORD PTR __imp_??1?$CStringT@DV?$StrTraitMFC_DLL@DV?$ChTraitsCRT@D@ATL@@@@@ATL@@QAE@XZ
__unwindfunclet$?OnSTDataManagerMessagge@CDlgAnalysis@@IAEJIJ@Z$25:
  000e2	8d 4d a0	 lea	 ecx, DWORD PTR $T9[ebp]
  000e5	e9 00 00 00 00	 jmp	 ??1ST_DATAINDEX@@QAE@XZ
__unwindfunclet$?OnSTDataManagerMessagge@CDlgAnalysis@@IAEJIJ@Z$27:
  000ea	8d 8d 2c ff ff
	ff		 lea	 ecx, DWORD PTR $T2[ebp]
  000f0	e9 00 00 00 00	 jmp	 ??1ST_DATAINDEX@@QAE@XZ
__unwindfunclet$?OnSTDataManagerMessagge@CDlgAnalysis@@IAEJIJ@Z$17:
  000f5	8d 8d 68 ff ff
	ff		 lea	 ecx, DWORD PTR $T3[ebp]
  000fb	ff 25 00 00 00
	00		 jmp	 DWORD PTR __imp_??1?$CStringT@DV?$StrTraitMFC_DLL@DV?$ChTraitsCRT@D@ATL@@@@@ATL@@QAE@XZ
__unwindfunclet$?OnSTDataManagerMessagge@CDlgAnalysis@@IAEJIJ@Z$30:
  00101	8d 4d a0	 lea	 ecx, DWORD PTR _Index$8[ebp]
  00104	e9 00 00 00 00	 jmp	 ??1ST_DATAINDEX@@QAE@XZ
  00109	cc		 int	 3
  0010a	cc		 int	 3
  0010b	cc		 int	 3
  0010c	cc		 int	 3
  0010d	cc		 int	 3
__ehhandler$?OnSTDataManagerMessagge@CDlgAnalysis@@IAEJIJ@Z:
  0010e	90		 npad	 1
  0010f	90		 npad	 1
  00110	8b 54 24 08	 mov	 edx, DWORD PTR [esp+8]
  00114	8d 42 0c	 lea	 eax, DWORD PTR [edx+12]
  00117	8b 8a 28 ff ff
	ff		 mov	 ecx, DWORD PTR [edx-216]
  0011d	33 c8		 xor	 ecx, eax
  0011f	e8 00 00 00 00	 call	 @__security_check_cookie@4
  00124	b8 00 00 00 00	 mov	 eax, OFFSET __ehfuncinfo$?OnSTDataManagerMessagge@CDlgAnalysis@@IAEJIJ@Z
  00129	e9 00 00 00 00	 jmp	 ___CxxFrameHandler3
text$x	ENDS
?OnSTDataManagerMessagge@CDlgAnalysis@@IAEJIJ@Z ENDP	; CDlgAnalysis::OnSTDataManagerMessagge
; Function compile flags: /Ogtp
; File D:\git\src\IBK\IBK_DRFN\ProjSrc\SrcDrfn\Chart\HWSTRATEGYANALYSIS\DlgAnalysis.cpp
;	COMDAT ?OnGetDllSize@CDlgAnalysis@@IAEJIJ@Z
_TEXT	SEGMENT
_wParam$ = 8						; size = 4
_lParam$ = 12						; size = 4
?OnGetDllSize@CDlgAnalysis@@IAEJIJ@Z PROC		; CDlgAnalysis::OnGetDllSize, COMDAT
; _this$ = ecx

; 617  : {

  00000	55		 push	 ebp
  00001	8b ec		 mov	 ebp, esp

; 618  : 
; 619  : 	CPoint* pSize = (CPoint*)wParam;
; 620  : 
; 621  : 	pSize->x = 764;

  00003	8b 45 08	 mov	 eax, DWORD PTR _wParam$[ebp]
  00006	c7 00 fc 02 00
	00		 mov	 DWORD PTR [eax], 764	; 000002fcH

; 622  : 	pSize->y = 482;

  0000c	c7 40 04 e2 01
	00 00		 mov	 DWORD PTR [eax+4], 482	; 000001e2H

; 623  : 
; 624  : 	return 0L;

  00013	33 c0		 xor	 eax, eax

; 625  : }

  00015	5d		 pop	 ebp
  00016	c2 08 00	 ret	 8
?OnGetDllSize@CDlgAnalysis@@IAEJIJ@Z ENDP		; CDlgAnalysis::OnGetDllSize
_TEXT	ENDS
; Function compile flags: /Ogtp
; File D:\git\src\IBK\IBK_DRFN\ProjSrc\SrcDrfn\Chart\HWSTRATEGYANALYSIS\DlgAnalysis.cpp
;	COMDAT ?GetMessageMap@CDlgAnalysis@@MBEPBUAFX_MSGMAP@@XZ
_TEXT	SEGMENT
?GetMessageMap@CDlgAnalysis@@MBEPBUAFX_MSGMAP@@XZ PROC	; CDlgAnalysis::GetMessageMap, COMDAT
; _this$ = ecx

; 62   : BEGIN_MESSAGE_MAP(CDlgAnalysis, CDialog)

  00000	b8 00 00 00 00	 mov	 eax, OFFSET ?messageMap@?1??GetThisMessageMap@CDlgAnalysis@@KGPBUAFX_MSGMAP@@XZ@4U3@B
  00005	c3		 ret	 0
?GetMessageMap@CDlgAnalysis@@MBEPBUAFX_MSGMAP@@XZ ENDP	; CDlgAnalysis::GetMessageMap
_TEXT	ENDS
; Function compile flags: /Ogtp
; File D:\git\src\IBK\IBK_DRFN\ProjSrc\SrcDrfn\Chart\HWSTRATEGYANALYSIS\DlgAnalysis.cpp
;	COMDAT ?GetThisMessageMap@CDlgAnalysis@@KGPBUAFX_MSGMAP@@XZ
_TEXT	SEGMENT
?GetThisMessageMap@CDlgAnalysis@@KGPBUAFX_MSGMAP@@XZ PROC ; CDlgAnalysis::GetThisMessageMap, COMDAT

; 63   : 	//{{AFX_MSG_MAP(CDlgAnalysis)
; 64   : 	ON_WM_DESTROY()	
; 65   : 	//}}AFX_MSG_MAP
; 66   : 	ON_REGISTERED_MESSAGE(RMSG_GETDLLSIZE,   OnGetDllSize)
; 67   : 	ON_REGISTERED_MESSAGE(RMSG_STDATAMANAGER_RESULTDATA, OnSTDataManagerMessagge)
; 68   : 	ON_WM_SHOWWINDOW()
; 69   : 	ON_WM_TIMER()
; 70   : 	ON_WM_CTLCOLOR()
; 71   : END_MESSAGE_MAP()

  00000	b8 00 00 00 00	 mov	 eax, OFFSET ?messageMap@?1??GetThisMessageMap@CDlgAnalysis@@KGPBUAFX_MSGMAP@@XZ@4U3@B
  00005	c3		 ret	 0
?GetThisMessageMap@CDlgAnalysis@@KGPBUAFX_MSGMAP@@XZ ENDP ; CDlgAnalysis::GetThisMessageMap
_TEXT	ENDS
; Function compile flags: /Ogtp
; File D:\git\src\IBK\IBK_DRFN\ProjSrc\SrcDrfn\Chart\HWSTRATEGYANALYSIS\DlgAnalysis.cpp
; File C:\Program Files (x86)\Microsoft Visual Studio\2019\Community\VC\Tools\MSVC\14.29.30133\atlmfc\include\afx.inl
; File D:\git\src\IBK\IBK_DRFN\ProjSrc\SrcDrfn\Chart\HWSTRATEGYANALYSIS\DlgAnalysis.cpp
; File C:\Program Files (x86)\Microsoft Visual Studio\2019\Community\VC\Tools\MSVC\14.29.30133\atlmfc\include\cstringt.h
; File D:\git\src\IBK\IBK_DRFN\ProjSrc\SrcDrfn\Chart\HWSTRATEGYANALYSIS\DlgAnalysis.cpp
; File C:\Program Files (x86)\Microsoft Visual Studio\2019\Community\VC\Tools\MSVC\14.29.30133\atlmfc\include\cstringt.h
; File C:\Program Files (x86)\Microsoft Visual Studio\2019\Community\VC\Tools\MSVC\14.29.30133\atlmfc\include\atlsimpstr.h
; File C:\Program Files (x86)\Microsoft Visual Studio\2019\Community\VC\Tools\MSVC\14.29.30133\atlmfc\include\cstringt.h
; File D:\git\src\IBK\IBK_DRFN\ProjSrc\SrcDrfn\Chart\HWSTRATEGYANALYSIS\DlgAnalysis.cpp
; File C:\Program Files (x86)\Microsoft Visual Studio\2019\Community\VC\Tools\MSVC\14.29.30133\atlmfc\include\cstringt.h
; File D:\git\src\IBK\IBK_DRFN\ProjSrc\SrcDrfn\Chart\HWSTRATEGYANALYSIS\DlgAnalysis.cpp
; File C:\Program Files (x86)\Microsoft Visual Studio\2019\Community\VC\Tools\MSVC\14.29.30133\atlmfc\include\afx.inl
; File D:\git\src\IBK\IBK_DRFN\ProjSrc\SrcDrfn\Chart\HWSTRATEGYANALYSIS\DlgAnalysis.cpp
; File C:\Program Files (x86)\Microsoft Visual Studio\2019\Community\VC\Tools\MSVC\14.29.30133\atlmfc\include\afxwin1.inl
; File D:\git\src\IBK\IBK_DRFN\ProjSrc\SrcDrfn\Chart\HWSTRATEGYANALYSIS\DlgAnalysis.cpp
; File C:\Program Files (x86)\Microsoft Visual Studio\2019\Community\VC\Tools\MSVC\14.29.30133\atlmfc\include\afxwin1.inl
; File D:\git\src\IBK\IBK_DRFN\ProjSrc\SrcDrfn\Chart\HWSTRATEGYANALYSIS\DlgAnalysis.cpp
; File C:\Program Files (x86)\Microsoft Visual Studio\2019\Community\VC\Tools\MSVC\14.29.30133\atlmfc\include\afxwin1.inl
; File C:\Program Files (x86)\Microsoft Visual Studio\2019\Community\VC\Tools\MSVC\14.29.30133\atlmfc\include\afxwin2.inl
; File D:\git\src\IBK\IBK_DRFN\ProjSrc\SrcDrfn\Chart\HWSTRATEGYANALYSIS\DlgAnalysis.cpp
;	COMDAT ?OnInitDialog@CDlgAnalysis@@MAEHXZ
_TEXT	SEGMENT
$T2 = -20						; size = 4
$T3 = -20						; size = 4
$T4 = -20						; size = 4
$T5 = -16						; size = 4
__$EHRec$ = -12						; size = 12
?OnInitDialog@CDlgAnalysis@@MAEHXZ PROC			; CDlgAnalysis::OnInitDialog, COMDAT
; _this$ = ecx

; 538  : {

  00000	55		 push	 ebp
  00001	8b ec		 mov	 ebp, esp
  00003	6a ff		 push	 -1
  00005	68 00 00 00 00	 push	 __ehhandler$?OnInitDialog@CDlgAnalysis@@MAEHXZ
  0000a	64 a1 00 00 00
	00		 mov	 eax, DWORD PTR fs:0
  00010	50		 push	 eax
  00011	83 ec 08	 sub	 esp, 8
  00014	56		 push	 esi
  00015	57		 push	 edi
  00016	a1 00 00 00 00	 mov	 eax, DWORD PTR ___security_cookie
  0001b	33 c5		 xor	 eax, ebp
  0001d	50		 push	 eax
  0001e	8d 45 f4	 lea	 eax, DWORD PTR __$EHRec$[ebp]
  00021	64 a3 00 00 00
	00		 mov	 DWORD PTR fs:0, eax
  00027	8b f9		 mov	 edi, ecx
  00029	c7 45 ec 00 00
	00 00		 mov	 DWORD PTR $T4[ebp], 0

; 539  : 	CDialog::OnInitDialog();

  00030	e8 00 00 00 00	 call	 ?OnInitDialog@CDialog@@UAEHXZ ; CDialog::OnInitDialog

; 540  : 
; 541  : 	AfxEnableControlContainer();

  00035	6a 00		 push	 0
  00037	e8 00 00 00 00	 call	 ?AfxEnableControlContainer@@YAXPAVCOccManager@@@Z ; AfxEnableControlContainer
; File C:\Program Files (x86)\Microsoft Visual Studio\2019\Community\VC\Tools\MSVC\14.29.30133\atlmfc\include\afx.inl

; 116  : 	{ return ::operator new(nSize); }

  0003c	68 18 0a 00 00	 push	 2584			; 00000a18H
  00041	e8 00 00 00 00	 call	 ??2@YAPAXI@Z		; operator new
  00046	83 c4 08	 add	 esp, 8
; File D:\git\src\IBK\IBK_DRFN\ProjSrc\SrcDrfn\Chart\HWSTRATEGYANALYSIS\DlgAnalysis.cpp

; 545  : 	m_pdlgInfo = new CInfoRight;

  00049	89 45 ec	 mov	 DWORD PTR $T3[ebp], eax
  0004c	c7 45 fc 00 00
	00 00		 mov	 DWORD PTR __$EHRec$[ebp+8], 0
  00053	85 c0		 test	 eax, eax
  00055	74 0d		 je	 SHORT $LN9@OnInitDial
  00057	6a 00		 push	 0
  00059	8b c8		 mov	 ecx, eax
  0005b	e8 00 00 00 00	 call	 ??0CInfoRight@@QAE@PAVCWnd@@@Z ; CInfoRight::CInfoRight
  00060	8b c8		 mov	 ecx, eax
  00062	eb 02		 jmp	 SHORT $LN10@OnInitDial
$LN9@OnInitDial:
  00064	33 c9		 xor	 ecx, ecx
$LN10@OnInitDial:
  00066	c7 45 fc ff ff
	ff ff		 mov	 DWORD PTR __$EHRec$[ebp+8], -1
  0006d	89 8f dc 00 00
	00		 mov	 DWORD PTR [edi+220], ecx

; 546  : 	if(m_pdlgInfo)

  00073	85 c9		 test	 ecx, ecx
  00075	0f 84 cb 00 00
	00		 je	 $LN2@OnInitDial

; 547  : 	{
; 548  : 		m_pdlgInfo->Create(CInfoRight::IDD,this);

  0007b	8b 01		 mov	 eax, DWORD PTR [ecx]
  0007d	57		 push	 edi
  0007e	68 ba 0b 00 00	 push	 3002			; 00000bbaH
  00083	ff 90 6c 01 00
	00		 call	 DWORD PTR [eax+364]

; 549  : 		m_pdlgInfo->ShowWindow(SW_SHOW);

  00089	8b 8f dc 00 00
	00		 mov	 ecx, DWORD PTR [edi+220]
  0008f	6a 05		 push	 5
  00091	e8 00 00 00 00	 call	 ?ShowWindow@CWnd@@QAEHH@Z ; CWnd::ShowWindow

; 550  : 		m_pdlgInfo->m_pDlgAnalysis = this;

  00096	8b 87 dc 00 00
	00		 mov	 eax, DWORD PTR [edi+220]

; 551  : 		m_pdlgInfo->SetParentsRect(rt);

  0009c	83 ec 10	 sub	 esp, 16			; 00000010H
  0009f	0f 57 c0	 xorps	 xmm0, xmm0
  000a2	89 b8 30 04 00
	00		 mov	 DWORD PTR [eax+1072], edi
  000a8	8b c4		 mov	 eax, esp
  000aa	8b 8f dc 00 00
	00		 mov	 ecx, DWORD PTR [edi+220]
  000b0	0f 11 00	 movups	 XMMWORD PTR [eax], xmm0
  000b3	e8 00 00 00 00	 call	 ?SetParentsRect@CInfoRight@@QAEXVCRect@@@Z ; CInfoRight::SetParentsRect
; File C:\Program Files (x86)\Microsoft Visual Studio\2019\Community\VC\Tools\MSVC\14.29.30133\atlmfc\include\cstringt.h

; 2401 : 		CStringT strResult( str1.GetManager() );

  000b8	8d 8f bc 00 00
	00		 lea	 ecx, DWORD PTR [edi+188]
; File D:\git\src\IBK\IBK_DRFN\ProjSrc\SrcDrfn\Chart\HWSTRATEGYANALYSIS\DlgAnalysis.cpp

; 552  : 		m_pdlgInfo->m_strFilePath = m_strDataDir + "\\STDATA";

  000be	c7 45 fc 01 00
	00 00		 mov	 DWORD PTR __$EHRec$[ebp+8], 1
; File C:\Program Files (x86)\Microsoft Visual Studio\2019\Community\VC\Tools\MSVC\14.29.30133\atlmfc\include\cstringt.h

; 2401 : 		CStringT strResult( str1.GetManager() );

  000c5	ff 15 00 00 00
	00		 call	 DWORD PTR __imp_?GetManager@?$CStringT@DV?$StrTraitMFC_DLL@DV?$ChTraitsCRT@D@ATL@@@@@ATL@@QBEPAUIAtlStringMgr@2@XZ
  000cb	50		 push	 eax
  000cc	8d 4d f0	 lea	 ecx, DWORD PTR $T5[ebp]
  000cf	ff 15 00 00 00
	00		 call	 DWORD PTR __imp_??0?$CStringT@DV?$StrTraitMFC_DLL@DV?$ChTraitsCRT@D@ATL@@@@@ATL@@QAE@PAUIAtlStringMgr@1@@Z
; File C:\Program Files (x86)\Microsoft Visual Studio\2019\Community\VC\Tools\MSVC\14.29.30133\atlmfc\include\atlsimpstr.h

; 519  : 		return( GetData()->nDataLength );

  000d5	8b 87 bc 00 00
	00		 mov	 eax, DWORD PTR [edi+188]
; File C:\Program Files (x86)\Microsoft Visual Studio\2019\Community\VC\Tools\MSVC\14.29.30133\atlmfc\include\cstringt.h

; 2403 : 		CThisSimpleString::Concatenate( strResult, str1, str1.GetLength(), psz2, CThisSimpleString::StringLength( psz2 ) );

  000db	6a 07		 push	 7
  000dd	68 00 00 00 00	 push	 OFFSET ??_C@_07BBHKEGCN@?2STDATA@

; 2404 : 
; 2405 : 		return( strResult );

  000e2	c7 45 ec 01 00
	00 00		 mov	 DWORD PTR $T4[ebp], 1
  000e9	ff 70 f4	 push	 DWORD PTR [eax-12]
  000ec	50		 push	 eax
  000ed	8d 45 f0	 lea	 eax, DWORD PTR $T5[ebp]
  000f0	50		 push	 eax
  000f1	ff 15 00 00 00
	00		 call	 DWORD PTR __imp_?Concatenate@?$CSimpleStringT@D$00@ATL@@KAXAAV12@PBDH1H@Z
; File D:\git\src\IBK\IBK_DRFN\ProjSrc\SrcDrfn\Chart\HWSTRATEGYANALYSIS\DlgAnalysis.cpp

; 552  : 		m_pdlgInfo->m_strFilePath = m_strDataDir + "\\STDATA";

  000f7	8b 8f dc 00 00
	00		 mov	 ecx, DWORD PTR [edi+220]
  000fd	8d 45 f0	 lea	 eax, DWORD PTR $T5[ebp]
; File C:\Program Files (x86)\Microsoft Visual Studio\2019\Community\VC\Tools\MSVC\14.29.30133\atlmfc\include\cstringt.h

; 2403 : 		CThisSimpleString::Concatenate( strResult, str1, str1.GetLength(), psz2, CThisSimpleString::StringLength( psz2 ) );

  00100	83 c4 14	 add	 esp, 20			; 00000014H
; File D:\git\src\IBK\IBK_DRFN\ProjSrc\SrcDrfn\Chart\HWSTRATEGYANALYSIS\DlgAnalysis.cpp

; 552  : 		m_pdlgInfo->m_strFilePath = m_strDataDir + "\\STDATA";

  00103	81 c1 fc 03 00
	00		 add	 ecx, 1020		; 000003fcH
  00109	50		 push	 eax
  0010a	ff 15 00 00 00
	00		 call	 DWORD PTR __imp_??4?$CStringT@DV?$StrTraitMFC_DLL@DV?$ChTraitsCRT@D@ATL@@@@@ATL@@QAEAAV01@ABV01@@Z
  00110	8d 4d f0	 lea	 ecx, DWORD PTR $T5[ebp]
  00113	c7 45 fc ff ff
	ff ff		 mov	 DWORD PTR __$EHRec$[ebp+8], -1
  0011a	ff 15 00 00 00
	00		 call	 DWORD PTR __imp_??1?$CStringT@DV?$StrTraitMFC_DLL@DV?$ChTraitsCRT@D@ATL@@@@@ATL@@QAE@XZ

; 553  : 		if(m_nStartType==0)

  00120	83 bf c0 00 00
	00 00		 cmp	 DWORD PTR [edi+192], 0
  00127	75 0b		 jne	 SHORT $LN3@OnInitDial

; 554  : 			m_pdlgInfo->InitTab();

  00129	8b 8f dc 00 00
	00		 mov	 ecx, DWORD PTR [edi+220]
  0012f	e8 00 00 00 00	 call	 ?InitTab@CInfoRight@@QAEXXZ ; CInfoRight::InitTab
$LN3@OnInitDial:

; 555  : 		m_pdlgInfo->m_pChartItem = m_pChartItem;

  00134	8b 8f dc 00 00
	00		 mov	 ecx, DWORD PTR [edi+220]
  0013a	8b 87 34 01 00
	00		 mov	 eax, DWORD PTR [edi+308]
  00140	89 81 34 04 00
	00		 mov	 DWORD PTR [ecx+1076], eax
$LN2@OnInitDial:

; 556  : 	}
; 557  : 
; 558  : 	//  :KHD 2006.07.27
; 559  : 	if(m_nStartType==1)

  00146	83 bf c0 00 00
	00 01		 cmp	 DWORD PTR [edi+192], 1
  0014d	75 0c		 jne	 SHORT $LN4@OnInitDial

; 560  : 	{
; 561  : 		InitSTLoad();

  0014f	8b cf		 mov	 ecx, edi
  00151	e8 00 00 00 00	 call	 ?InitSTLoad@CDlgAnalysis@@QAEXXZ ; CDlgAnalysis::InitSTLoad

; 562  : 		return TRUE;

  00156	e9 c6 00 00 00	 jmp	 $LN42@OnInitDial
$LN4@OnInitDial:

; 563  : 	}
; 564  : 
; 565  : 	if(!m_pDlgWait)

  0015b	83 bf d8 00 00
	00 00		 cmp	 DWORD PTR [edi+216], 0
  00162	0f 85 86 00 00
	00		 jne	 $LN7@OnInitDial
; File C:\Program Files (x86)\Microsoft Visual Studio\2019\Community\VC\Tools\MSVC\14.29.30133\atlmfc\include\afx.inl

; 116  : 	{ return ::operator new(nSize); }

  00168	68 40 01 00 00	 push	 320			; 00000140H
  0016d	e8 00 00 00 00	 call	 ??2@YAPAXI@Z		; operator new
  00172	83 c4 04	 add	 esp, 4
; File D:\git\src\IBK\IBK_DRFN\ProjSrc\SrcDrfn\Chart\HWSTRATEGYANALYSIS\DlgAnalysis.cpp

; 567  : 		m_pDlgWait = new CDlgWait;

  00175	89 45 ec	 mov	 DWORD PTR $T2[ebp], eax
  00178	c7 45 fc 02 00
	00 00		 mov	 DWORD PTR __$EHRec$[ebp+8], 2
  0017f	85 c0		 test	 eax, eax
  00181	74 0d		 je	 SHORT $LN11@OnInitDial
  00183	6a 00		 push	 0
  00185	8b c8		 mov	 ecx, eax
  00187	e8 00 00 00 00	 call	 ??0CDlgWait@@QAE@PAVCWnd@@@Z ; CDlgWait::CDlgWait
  0018c	8b c8		 mov	 ecx, eax
  0018e	eb 02		 jmp	 SHORT $LN12@OnInitDial
$LN11@OnInitDial:
  00190	33 c9		 xor	 ecx, ecx
$LN12@OnInitDial:
  00192	89 8f d8 00 00
	00		 mov	 DWORD PTR [edi+216], ecx

; 568  : 		if(!m_pDlgWait->Create(CDlgWait::IDD, this))

  00198	8b 01		 mov	 eax, DWORD PTR [ecx]
  0019a	57		 push	 edi
  0019b	68 fa 0b 00 00	 push	 3066			; 00000bfaH
  001a0	c7 45 fc ff ff
	ff ff		 mov	 DWORD PTR __$EHRec$[ebp+8], -1
  001a7	8b 80 6c 01 00
	00		 mov	 eax, DWORD PTR [eax+364]
  001ad	ff d0		 call	 eax
  001af	8b 8f d8 00 00
	00		 mov	 ecx, DWORD PTR [edi+216]
  001b5	85 c0		 test	 eax, eax
  001b7	75 17		 jne	 SHORT $LN6@OnInitDial

; 569  : 		{
; 570  : 			delete m_pDlgWait;

  001b9	85 c9		 test	 ecx, ecx
  001bb	74 07		 je	 SHORT $LN13@OnInitDial
  001bd	8b 01		 mov	 eax, DWORD PTR [ecx]
  001bf	6a 01		 push	 1
  001c1	ff 50 04	 call	 DWORD PTR [eax+4]
$LN13@OnInitDial:

; 571  : 			m_pDlgWait = NULL;

  001c4	c7 87 d8 00 00
	00 00 00 00 00	 mov	 DWORD PTR [edi+216], 0

; 572  : 		}

  001ce	eb 1e		 jmp	 SHORT $LN7@OnInitDial
$LN6@OnInitDial:

; 573  : 		else
; 574  : 		{
; 575  : 			m_pDlgWait->CenterWindow(&m_pdlgInfo->m_CtlTab);

  001d0	8b 87 dc 00 00
	00		 mov	 eax, DWORD PTR [edi+220]
  001d6	05 28 02 00 00	 add	 eax, 552		; 00000228H
  001db	50		 push	 eax
  001dc	e8 00 00 00 00	 call	 ?CenterWindow@CWnd@@QAEXPAV1@@Z ; CWnd::CenterWindow

; 576  : 			m_pDlgWait->ShowWindow(SW_SHOW);

  001e1	8b 8f d8 00 00
	00		 mov	 ecx, DWORD PTR [edi+216]
  001e7	6a 05		 push	 5
  001e9	e8 00 00 00 00	 call	 ?ShowWindow@CWnd@@QAEHH@Z ; CWnd::ShowWindow
$LN7@OnInitDial:
; File C:\Program Files (x86)\Microsoft Visual Studio\2019\Community\VC\Tools\MSVC\14.29.30133\atlmfc\include\afxwin1.inl

; 132  : 	{ return Attach(::CreateSolidBrush(crColor)); }

  001ee	68 d5 d5 d5 00	 push	 14013909		; 00d5d5d5H
; File D:\git\src\IBK\IBK_DRFN\ProjSrc\SrcDrfn\Chart\HWSTRATEGYANALYSIS\DlgAnalysis.cpp

; 580  : 	m_crBk = DEFAULT_BKGRND_COLOR;

  001f3	c7 87 e4 05 00
	00 d5 d5 d5 00	 mov	 DWORD PTR [edi+1508], 14013909 ; 00d5d5d5H
; File C:\Program Files (x86)\Microsoft Visual Studio\2019\Community\VC\Tools\MSVC\14.29.30133\atlmfc\include\afxwin1.inl

; 132  : 	{ return Attach(::CreateSolidBrush(crColor)); }

  001fd	ff 15 00 00 00
	00		 call	 DWORD PTR __imp__CreateSolidBrush@4
  00203	50		 push	 eax
; File D:\git\src\IBK\IBK_DRFN\ProjSrc\SrcDrfn\Chart\HWSTRATEGYANALYSIS\DlgAnalysis.cpp

; 581  : 	m_brBkColor.CreateSolidBrush(m_crBk);

  00204	8d 8f e8 05 00
	00		 lea	 ecx, DWORD PTR [edi+1512]
; File C:\Program Files (x86)\Microsoft Visual Studio\2019\Community\VC\Tools\MSVC\14.29.30133\atlmfc\include\afxwin1.inl

; 132  : 	{ return Attach(::CreateSolidBrush(crColor)); }

  0020a	e8 00 00 00 00	 call	 ?Attach@CGdiObject@@QAEHPAX@Z ; CGdiObject::Attach
; File C:\Program Files (x86)\Microsoft Visual Studio\2019\Community\VC\Tools\MSVC\14.29.30133\atlmfc\include\afxwin2.inl

; 152  : 	{ ASSERT(::IsWindow(m_hWnd)); return ::SetTimer(m_hWnd, nIDEvent, nElapse,

  0020f	6a 00		 push	 0
  00211	6a 01		 push	 1
  00213	68 ef 27 00 00	 push	 10223			; 000027efH
  00218	ff 77 20	 push	 DWORD PTR [edi+32]
  0021b	ff 15 00 00 00
	00		 call	 DWORD PTR __imp__SetTimer@16
$LN42@OnInitDial:
; File D:\git\src\IBK\IBK_DRFN\ProjSrc\SrcDrfn\Chart\HWSTRATEGYANALYSIS\DlgAnalysis.cpp

; 586  : }

  00221	b8 01 00 00 00	 mov	 eax, 1
  00226	8b 4d f4	 mov	 ecx, DWORD PTR __$EHRec$[ebp]
  00229	64 89 0d 00 00
	00 00		 mov	 DWORD PTR fs:0, ecx
  00230	59		 pop	 ecx
  00231	5f		 pop	 edi
  00232	5e		 pop	 esi
  00233	8b e5		 mov	 esp, ebp
  00235	5d		 pop	 ebp
  00236	c3		 ret	 0
_TEXT	ENDS
;	COMDAT text$x
text$x	SEGMENT
__unwindfunclet$?OnInitDialog@CDlgAnalysis@@MAEHXZ$0:
  00000	8b 45 ec	 mov	 eax, DWORD PTR $T3[ebp]
  00003	50		 push	 eax
  00004	e8 00 00 00 00	 call	 ??3CObject@@SGXPAX@Z	; CObject::operator delete
  00009	c3		 ret	 0
__unwindfunclet$?OnInitDialog@CDlgAnalysis@@MAEHXZ$3:
  0000a	8b 45 ec	 mov	 eax, DWORD PTR $T4[ebp]
  0000d	83 e0 01	 and	 eax, 1
  00010	0f 84 0d 00 00
	00		 je	 $LN25@OnInitDial
  00016	83 65 ec fe	 and	 DWORD PTR $T4[ebp], -2	; fffffffeH
  0001a	8d 4d f0	 lea	 ecx, DWORD PTR $T5[ebp]
  0001d	ff 25 00 00 00
	00		 jmp	 DWORD PTR __imp_??1?$CStringT@DV?$StrTraitMFC_DLL@DV?$ChTraitsCRT@D@ATL@@@@@ATL@@QAE@XZ
$LN25@OnInitDial:
  00023	c3		 ret	 0
__unwindfunclet$?OnInitDialog@CDlgAnalysis@@MAEHXZ$2:
  00024	8b 45 ec	 mov	 eax, DWORD PTR $T2[ebp]
  00027	50		 push	 eax
  00028	e8 00 00 00 00	 call	 ??3CObject@@SGXPAX@Z	; CObject::operator delete
  0002d	c3		 ret	 0
  0002e	cc		 int	 3
  0002f	cc		 int	 3
  00030	cc		 int	 3
  00031	cc		 int	 3
  00032	cc		 int	 3
__ehhandler$?OnInitDialog@CDlgAnalysis@@MAEHXZ:
  00033	90		 npad	 1
  00034	90		 npad	 1
  00035	8b 54 24 08	 mov	 edx, DWORD PTR [esp+8]
  00039	8d 42 0c	 lea	 eax, DWORD PTR [edx+12]
  0003c	8b 4a ec	 mov	 ecx, DWORD PTR [edx-20]
  0003f	33 c8		 xor	 ecx, eax
  00041	e8 00 00 00 00	 call	 @__security_check_cookie@4
  00046	b8 00 00 00 00	 mov	 eax, OFFSET __ehfuncinfo$?OnInitDialog@CDlgAnalysis@@MAEHXZ
  0004b	e9 00 00 00 00	 jmp	 ___CxxFrameHandler3
text$x	ENDS
?OnInitDialog@CDlgAnalysis@@MAEHXZ ENDP			; CDlgAnalysis::OnInitDialog
; Function compile flags: /Ogtp
; File D:\git\src\IBK\IBK_DRFN\ProjSrc\SrcDrfn\Chart\HWSTRATEGYANALYSIS\DlgAnalysis.cpp
;	COMDAT ?OnDestroy@CDlgAnalysis@@IAEXXZ
_TEXT	SEGMENT
?OnDestroy@CDlgAnalysis@@IAEXXZ PROC			; CDlgAnalysis::OnDestroy, COMDAT
; _this$ = ecx

; 506  : {

  00000	56		 push	 esi
  00001	8b f1		 mov	 esi, ecx

; 507  : 	CDialog::OnDestroy();

  00003	e8 00 00 00 00	 call	 ?OnDestroy@CWnd@@IAEXXZ	; CWnd::OnDestroy

; 508  : 	
; 509  : 	// TODO: Add your message handler code here
; 510  : 	
; 511  : 	m_brBkColor.DeleteObject();

  00008	8d 8e e8 05 00
	00		 lea	 ecx, DWORD PTR [esi+1512]
  0000e	e8 00 00 00 00	 call	 ?DeleteObject@CGdiObject@@QAEHXZ ; CGdiObject::DeleteObject

; 512  : 	
; 513  : 	if(m_pdlgInfo) 

  00013	8b 8e dc 00 00
	00		 mov	 ecx, DWORD PTR [esi+220]
  00019	85 c9		 test	 ecx, ecx
  0001b	74 20		 je	 SHORT $LN2@OnDestroy

; 514  : 	{
; 515  : 		m_pdlgInfo->DestroyWindow();

  0001d	8b 01		 mov	 eax, DWORD PTR [ecx]
  0001f	ff 50 68	 call	 DWORD PTR [eax+104]

; 516  : 		delete m_pdlgInfo;

  00022	8b 8e dc 00 00
	00		 mov	 ecx, DWORD PTR [esi+220]
  00028	85 c9		 test	 ecx, ecx
  0002a	74 07		 je	 SHORT $LN6@OnDestroy
  0002c	8b 01		 mov	 eax, DWORD PTR [ecx]
  0002e	6a 01		 push	 1
  00030	ff 50 04	 call	 DWORD PTR [eax+4]
$LN6@OnDestroy:

; 517  : 		m_pdlgInfo = NULL;

  00033	c7 86 dc 00 00
	00 00 00 00 00	 mov	 DWORD PTR [esi+220], 0
$LN2@OnDestroy:

; 518  : 	}
; 519  : 
; 520  : 	if(m_pStrategyItem)

  0003d	8b 8e c4 00 00
	00		 mov	 ecx, DWORD PTR [esi+196]
  00043	85 c9		 test	 ecx, ecx
  00045	74 1f		 je	 SHORT $LN3@OnDestroy

; 521  : 	{
; 522  : 		m_pStrategyItem->DestoryWindow();

  00047	8b 01		 mov	 eax, DWORD PTR [ecx]
  00049	ff 50 08	 call	 DWORD PTR [eax+8]

; 523  : 		delete m_pStrategyItem;

  0004c	8b 8e c4 00 00
	00		 mov	 ecx, DWORD PTR [esi+196]
  00052	85 c9		 test	 ecx, ecx
  00054	74 06		 je	 SHORT $LN8@OnDestroy
  00056	8b 01		 mov	 eax, DWORD PTR [ecx]
  00058	6a 01		 push	 1
  0005a	ff 10		 call	 DWORD PTR [eax]
$LN8@OnDestroy:

; 524  : 		m_pStrategyItem = NULL;

  0005c	c7 86 c4 00 00
	00 00 00 00 00	 mov	 DWORD PTR [esi+196], 0
$LN3@OnDestroy:

; 525  : 	}
; 526  : 
; 527  : 	if(m_pDlgWait)

  00066	8b 8e d8 00 00
	00		 mov	 ecx, DWORD PTR [esi+216]
  0006c	85 c9		 test	 ecx, ecx
  0006e	74 11		 je	 SHORT $LN4@OnDestroy

; 528  : 	{
; 529  : 		delete m_pDlgWait;

  00070	8b 01		 mov	 eax, DWORD PTR [ecx]
  00072	6a 01		 push	 1
  00074	ff 50 04	 call	 DWORD PTR [eax+4]

; 530  : 		m_pDlgWait = NULL;

  00077	c7 86 d8 00 00
	00 00 00 00 00	 mov	 DWORD PTR [esi+216], 0
$LN4@OnDestroy:

; 531  : 	}
; 532  : 	
; 533  : //	if(m_pCtlList)
; 534  : //		m_pCtlList->DeleteAllItems();
; 535  : }

  00081	5e		 pop	 esi
  00082	c3		 ret	 0
?OnDestroy@CDlgAnalysis@@IAEXXZ ENDP			; CDlgAnalysis::OnDestroy
_TEXT	ENDS
; Function compile flags: /Ogtp
; File D:\git\src\IBK\IBK_DRFN\ProjSrc\SrcDrfn\Chart\HWSTRATEGYANALYSIS\DlgAnalysis.cpp
;	COMDAT ?DoDataExchange@CDlgAnalysis@@MAEXPAVCDataExchange@@@Z
_TEXT	SEGMENT
_pDX$ = 8						; size = 4
?DoDataExchange@CDlgAnalysis@@MAEXPAVCDataExchange@@@Z PROC ; CDlgAnalysis::DoDataExchange, COMDAT
; _this$ = ecx

; 55   : 	CDialog::DoDataExchange(pDX);
; 56   : 	//{{AFX_DATA_MAP(CDlgAnalysis)
; 57   : 		// NOTE: the ClassWizard will add DDX and DDV calls here
; 58   : 	//}}AFX_DATA_MAP
; 59   : }

  00000	c2 04 00	 ret	 4
?DoDataExchange@CDlgAnalysis@@MAEXPAVCDataExchange@@@Z ENDP ; CDlgAnalysis::DoDataExchange
_TEXT	ENDS
; Function compile flags: /Ogtp
; File D:\git\src\IBK\IBK_DRFN\ProjSrc\SrcDrfn\Chart\HWSTRATEGYANALYSIS\DlgAnalysis.cpp
;	COMDAT ?FormLoad@CDlgAnalysis@@QAEXXZ
_TEXT	SEGMENT
?FormLoad@CDlgAnalysis@@QAEXXZ PROC			; CDlgAnalysis::FormLoad, COMDAT
; _this$ = ecx

; 82   : }

  00000	c2 00 00	 ret	 0
?FormLoad@CDlgAnalysis@@QAEXXZ ENDP			; CDlgAnalysis::FormLoad
_TEXT	ENDS
; Function compile flags: /Ogtp
; File D:\git\src\IBK\IBK_DRFN\ProjSrc\SrcDrfn\Chart\HWSTRATEGYANALYSIS\DlgAnalysis.cpp
;	COMDAT ?FormInit@CDlgAnalysis@@QAEXXZ
_TEXT	SEGMENT
?FormInit@CDlgAnalysis@@QAEXXZ PROC			; CDlgAnalysis::FormInit, COMDAT
; _this$ = ecx

; 78   : }

  00000	c2 00 00	 ret	 0
?FormInit@CDlgAnalysis@@QAEXXZ ENDP			; CDlgAnalysis::FormInit
_TEXT	ENDS
; Function compile flags: /Ogtp
; File D:\git\src\IBK\IBK_DRFN\ProjSrc\SrcDrfn\Chart\HWSTRATEGYANALYSIS\DlgAnalysis.cpp
; File D:\git\src\IBK\IBK_DRFN\ProjSrc\SrcDrfn\Chart\Common_ST\EscDialog.h
; File D:\git\src\IBK\IBK_DRFN\ProjSrc\SrcDrfn\Chart\HWSTRATEGYANALYSIS\DlgAnalysis.cpp
; File C:\Program Files (x86)\Microsoft Visual Studio\2019\Community\VC\Tools\MSVC\14.29.30133\atlmfc\include\afxtempl.h
; File D:\git\src\IBK\IBK_DRFN\ProjSrc\SrcDrfn\Chart\HWSTRATEGYANALYSIS\DlgAnalysis.cpp
; File C:\Program Files (x86)\Microsoft Visual Studio\2019\Community\VC\Tools\MSVC\14.29.30133\atlmfc\include\afxwin1.inl
; File D:\git\src\IBK\IBK_DRFN\ProjSrc\SrcDrfn\Chart\HWSTRATEGYANALYSIS\DlgAnalysis.cpp
; File C:\Program Files (x86)\Microsoft Visual Studio\2019\Community\VC\Tools\MSVC\14.29.30133\atlmfc\include\afxwin1.inl
; File D:\git\src\IBK\IBK_DRFN\ProjSrc\SrcDrfn\Chart\HWSTRATEGYANALYSIS\DlgAnalysis.cpp
;	COMDAT ??0CDlgAnalysis@@QAE@PAVCWnd@@@Z
_TEXT	SEGMENT
_this$ = -16						; size = 4
__$EHRec$ = -12						; size = 12
_pParent$ = 8						; size = 4
??0CDlgAnalysis@@QAE@PAVCWnd@@@Z PROC			; CDlgAnalysis::CDlgAnalysis, COMDAT
; _this$ = ecx

; 30   : {

  00000	55		 push	 ebp
  00001	8b ec		 mov	 ebp, esp
  00003	6a ff		 push	 -1
  00005	68 00 00 00 00	 push	 __ehhandler$??0CDlgAnalysis@@QAE@PAVCWnd@@@Z
  0000a	64 a1 00 00 00
	00		 mov	 eax, DWORD PTR fs:0
  00010	50		 push	 eax
  00011	51		 push	 ecx
  00012	56		 push	 esi
  00013	a1 00 00 00 00	 mov	 eax, DWORD PTR ___security_cookie
  00018	33 c5		 xor	 eax, ebp
  0001a	50		 push	 eax
  0001b	8d 45 f4	 lea	 eax, DWORD PTR __$EHRec$[ebp]
  0001e	64 a3 00 00 00
	00		 mov	 DWORD PTR fs:0, eax
  00024	8b f1		 mov	 esi, ecx
  00026	89 75 f0	 mov	 DWORD PTR _this$[ebp], esi
; File D:\git\src\IBK\IBK_DRFN\ProjSrc\SrcDrfn\Chart\Common_ST\EscDialog.h

; 33   : 	: CDialog(nIDD, pParent)

  00029	ff 75 08	 push	 DWORD PTR _pParent$[ebp]
  0002c	68 b8 0b 00 00	 push	 3000			; 00000bb8H
  00031	e8 00 00 00 00	 call	 ??0CDialog@@QAE@IPAVCWnd@@@Z ; CDialog::CDialog
; File D:\git\src\IBK\IBK_DRFN\ProjSrc\SrcDrfn\Chart\HWSTRATEGYANALYSIS\DlgAnalysis.cpp

; 30   : {

  00036	8d 8e b0 00 00
	00		 lea	 ecx, DWORD PTR [esi+176]
  0003c	c7 45 fc 00 00
	00 00		 mov	 DWORD PTR __$EHRec$[ebp+8], 0
  00043	c7 06 00 00 00
	00		 mov	 DWORD PTR [esi], OFFSET ??_7CDlgAnalysis@@6B@
  00049	ff 15 00 00 00
	00		 call	 DWORD PTR __imp_??0?$CStringT@DV?$StrTraitMFC_DLL@DV?$ChTraitsCRT@D@ATL@@@@@ATL@@QAE@XZ
  0004f	8d 8e b4 00 00
	00		 lea	 ecx, DWORD PTR [esi+180]
  00055	ff 15 00 00 00
	00		 call	 DWORD PTR __imp_??0?$CStringT@DV?$StrTraitMFC_DLL@DV?$ChTraitsCRT@D@ATL@@@@@ATL@@QAE@XZ
  0005b	8d 8e b8 00 00
	00		 lea	 ecx, DWORD PTR [esi+184]
  00061	ff 15 00 00 00
	00		 call	 DWORD PTR __imp_??0?$CStringT@DV?$StrTraitMFC_DLL@DV?$ChTraitsCRT@D@ATL@@@@@ATL@@QAE@XZ
  00067	8d 8e bc 00 00
	00		 lea	 ecx, DWORD PTR [esi+188]
  0006d	ff 15 00 00 00
	00		 call	 DWORD PTR __imp_??0?$CStringT@DV?$StrTraitMFC_DLL@DV?$ChTraitsCRT@D@ATL@@@@@ATL@@QAE@XZ
  00073	8d 8e c8 00 00
	00		 lea	 ecx, DWORD PTR [esi+200]
  00079	c6 45 fc 04	 mov	 BYTE PTR __$EHRec$[ebp+8], 4
  0007d	e8 00 00 00 00	 call	 ??0CStrategyLoader@@QAE@XZ ; CStrategyLoader::CStrategyLoader
  00082	8d 8e e4 00 00
	00		 lea	 ecx, DWORD PTR [esi+228]
  00088	ff 15 00 00 00
	00		 call	 DWORD PTR __imp_??0?$CStringT@DV?$StrTraitMFC_DLL@DV?$ChTraitsCRT@D@ATL@@@@@ATL@@QAE@XZ
  0008e	8d 8e e8 00 00
	00		 lea	 ecx, DWORD PTR [esi+232]
  00094	ff 15 00 00 00
	00		 call	 DWORD PTR __imp_??0?$CStringT@DV?$StrTraitMFC_DLL@DV?$ChTraitsCRT@D@ATL@@@@@ATL@@QAE@XZ
  0009a	8d 8e ec 00 00
	00		 lea	 ecx, DWORD PTR [esi+236]
  000a0	ff 15 00 00 00
	00		 call	 DWORD PTR __imp_??0?$CStringT@DV?$StrTraitMFC_DLL@DV?$ChTraitsCRT@D@ATL@@@@@ATL@@QAE@XZ
  000a6	8d 8e f0 00 00
	00		 lea	 ecx, DWORD PTR [esi+240]
  000ac	ff 15 00 00 00
	00		 call	 DWORD PTR __imp_??0?$CStringT@DV?$StrTraitMFC_DLL@DV?$ChTraitsCRT@D@ATL@@@@@ATL@@QAE@XZ
  000b2	8d 8e f4 00 00
	00		 lea	 ecx, DWORD PTR [esi+244]
  000b8	ff 15 00 00 00
	00		 call	 DWORD PTR __imp_??0?$CStringT@DV?$StrTraitMFC_DLL@DV?$ChTraitsCRT@D@ATL@@@@@ATL@@QAE@XZ
  000be	8d 8e 1c 01 00
	00		 lea	 ecx, DWORD PTR [esi+284]
  000c4	c6 45 fc 0a	 mov	 BYTE PTR __$EHRec$[ebp+8], 10 ; 0000000aH
  000c8	e8 00 00 00 00	 call	 ??0CStringArray@@QAE@XZ	; CStringArray::CStringArray
; File C:\Program Files (x86)\Microsoft Visual Studio\2019\Community\VC\Tools\MSVC\14.29.30133\atlmfc\include\afxtempl.h

; 348  : {

  000cd	c7 86 3c 01 00
	00 00 00 00 00	 mov	 DWORD PTR [esi+316], OFFSET ??_7?$CArray@UST_DATAINDEX@@U1@@@6B@

; 349  : 	m_pData = NULL;

  000d7	c7 86 40 01 00
	00 00 00 00 00	 mov	 DWORD PTR [esi+320], 0

; 350  : 	m_nSize = m_nMaxSize = m_nGrowBy = 0;

  000e1	c7 86 4c 01 00
	00 00 00 00 00	 mov	 DWORD PTR [esi+332], 0
  000eb	c7 86 48 01 00
	00 00 00 00 00	 mov	 DWORD PTR [esi+328], 0
  000f5	c7 86 44 01 00
	00 00 00 00 00	 mov	 DWORD PTR [esi+324], 0
; File D:\git\src\IBK\IBK_DRFN\ProjSrc\SrcDrfn\Chart\HWSTRATEGYANALYSIS\DlgAnalysis.cpp

; 30   : {

  000ff	6a 00		 push	 0
  00101	6a 00		 push	 0
  00103	6a 00		 push	 0
  00105	6a 00		 push	 0
  00107	8d 8e 50 01 00
	00		 lea	 ecx, DWORD PTR [esi+336]
  0010d	c6 45 fc 0c	 mov	 BYTE PTR __$EHRec$[ebp+8], 12 ; 0000000cH
  00111	e8 00 00 00 00	 call	 ??0CGridCtrl@@QAE@HHHH@Z ; CGridCtrl::CGridCtrl
; File C:\Program Files (x86)\Microsoft Visual Studio\2019\Community\VC\Tools\MSVC\14.29.30133\atlmfc\include\afxwin1.inl

; 70   : 	{ m_hObject = NULL; }

  00116	c7 86 ec 05 00
	00 00 00 00 00	 mov	 DWORD PTR [esi+1516], 0

; 128  : 	{ }

  00120	c7 86 e8 05 00
	00 00 00 00 00	 mov	 DWORD PTR [esi+1512], OFFSET ??_7CBrush@@6B@
; File D:\git\src\IBK\IBK_DRFN\ProjSrc\SrcDrfn\Chart\HWSTRATEGYANALYSIS\DlgAnalysis.cpp

; 31   : 	EnableAutomation();

  0012a	8b ce		 mov	 ecx, esi
  0012c	c6 45 fc 0e	 mov	 BYTE PTR __$EHRec$[ebp+8], 14 ; 0000000eH
  00130	e8 00 00 00 00	 call	 ?EnableAutomation@CCmdTarget@@QAEXXZ ; CCmdTarget::EnableAutomation

; 32   :  
; 33   : 	//{{AFX_DATA_INIT(CDlgAnalysis)
; 34   : 		// NOTE: the ClassWizard will add member initialization here
; 35   : 	//}}AFX_DATA_INIT
; 36   : 	m_pStrategyItem = NULL;

  00135	c7 86 c4 00 00
	00 00 00 00 00	 mov	 DWORD PTR [esi+196], 0

; 37   : 	m_pdlgInfo = NULL;

  0013f	c7 86 dc 00 00
	00 00 00 00 00	 mov	 DWORD PTR [esi+220], 0

; 38   : 	m_hSocket = NULL;

  00149	c7 86 a8 00 00
	00 00 00 00 00	 mov	 DWORD PTR [esi+168], 0

; 39   : 	m_pChartInterface = NULL;

  00153	c7 86 10 01 00
	00 00 00 00 00	 mov	 DWORD PTR [esi+272], 0

; 40   : 	m_pCtlList = NULL;

  0015d	c7 86 14 01 00
	00 00 00 00 00	 mov	 DWORD PTR [esi+276], 0

; 41   : 
; 42   : 	m_pChartItem = NULL;

  00167	c7 86 34 01 00
	00 00 00 00 00	 mov	 DWORD PTR [esi+308], 0

; 43   : 	m_nStartType = 0;	// 0:, 1:

  00171	c7 86 c0 00 00
	00 00 00 00 00	 mov	 DWORD PTR [esi+192], 0

; 44   : 
; 45   : 	m_pDlgWait = NULL;

  0017b	c7 86 d8 00 00
	00 00 00 00 00	 mov	 DWORD PTR [esi+216], 0

; 46   : 	m_hTabChartEx = NULL;

  00185	c7 86 38 01 00
	00 00 00 00 00	 mov	 DWORD PTR [esi+312], 0
; File C:\Program Files (x86)\Microsoft Visual Studio\2019\Community\VC\Tools\MSVC\14.29.30133\atlmfc\include\afxwin1.inl

; 25   : 		return afxCurrentResourceHandle; }

  0018f	e8 00 00 00 00	 call	 ?AfxGetModuleState@@YGPAVAFX_MODULE_STATE@@XZ ; AfxGetModuleState
; File D:\git\src\IBK\IBK_DRFN\ProjSrc\SrcDrfn\Chart\HWSTRATEGYANALYSIS\DlgAnalysis.cpp

; 47   : 	m_hRsc = AfxGetResourceHandle();

  00194	8b 40 0c	 mov	 eax, DWORD PTR [eax+12]
  00197	89 86 f8 00 00
	00		 mov	 DWORD PTR [esi+248], eax

; 48   : 	m_bReceiveData = FALSE;
; 49   : 	m_crBk = CRBACKGROUND;
; 50   : }

  0019d	8b c6		 mov	 eax, esi
  0019f	c7 86 e0 05 00
	00 00 00 00 00	 mov	 DWORD PTR [esi+1504], 0
  001a9	c7 86 e4 05 00
	00 b1 c7 ea 00	 mov	 DWORD PTR [esi+1508], 15386545 ; 00eac7b1H
  001b3	8b 4d f4	 mov	 ecx, DWORD PTR __$EHRec$[ebp]
  001b6	64 89 0d 00 00
	00 00		 mov	 DWORD PTR fs:0, ecx
  001bd	59		 pop	 ecx
  001be	5e		 pop	 esi
  001bf	8b e5		 mov	 esp, ebp
  001c1	5d		 pop	 ebp
  001c2	c2 04 00	 ret	 4
_TEXT	ENDS
;	COMDAT text$x
text$x	SEGMENT
__unwindfunclet$??0CDlgAnalysis@@QAE@PAVCWnd@@@Z$0:
  00000	8b 4d f0	 mov	 ecx, DWORD PTR _this$[ebp]
  00003	e9 00 00 00 00	 jmp	 ??1CEscDialog@@UAE@XZ
__unwindfunclet$??0CDlgAnalysis@@QAE@PAVCWnd@@@Z$1:
  00008	8b 4d f0	 mov	 ecx, DWORD PTR _this$[ebp]
  0000b	81 c1 b0 00 00
	00		 add	 ecx, 176		; 000000b0H
  00011	ff 25 00 00 00
	00		 jmp	 DWORD PTR __imp_??1?$CStringT@DV?$StrTraitMFC_DLL@DV?$ChTraitsCRT@D@ATL@@@@@ATL@@QAE@XZ
__unwindfunclet$??0CDlgAnalysis@@QAE@PAVCWnd@@@Z$2:
  00017	8b 4d f0	 mov	 ecx, DWORD PTR _this$[ebp]
  0001a	81 c1 b4 00 00
	00		 add	 ecx, 180		; 000000b4H
  00020	ff 25 00 00 00
	00		 jmp	 DWORD PTR __imp_??1?$CStringT@DV?$StrTraitMFC_DLL@DV?$ChTraitsCRT@D@ATL@@@@@ATL@@QAE@XZ
__unwindfunclet$??0CDlgAnalysis@@QAE@PAVCWnd@@@Z$3:
  00026	8b 4d f0	 mov	 ecx, DWORD PTR _this$[ebp]
  00029	81 c1 b8 00 00
	00		 add	 ecx, 184		; 000000b8H
  0002f	ff 25 00 00 00
	00		 jmp	 DWORD PTR __imp_??1?$CStringT@DV?$StrTraitMFC_DLL@DV?$ChTraitsCRT@D@ATL@@@@@ATL@@QAE@XZ
__unwindfunclet$??0CDlgAnalysis@@QAE@PAVCWnd@@@Z$4:
  00035	8b 4d f0	 mov	 ecx, DWORD PTR _this$[ebp]
  00038	81 c1 bc 00 00
	00		 add	 ecx, 188		; 000000bcH
  0003e	ff 25 00 00 00
	00		 jmp	 DWORD PTR __imp_??1?$CStringT@DV?$StrTraitMFC_DLL@DV?$ChTraitsCRT@D@ATL@@@@@ATL@@QAE@XZ
__unwindfunclet$??0CDlgAnalysis@@QAE@PAVCWnd@@@Z$5:
  00044	8b 4d f0	 mov	 ecx, DWORD PTR _this$[ebp]
  00047	81 c1 c8 00 00
	00		 add	 ecx, 200		; 000000c8H
  0004d	e9 00 00 00 00	 jmp	 ??1CStrategyLoader@@UAE@XZ ; CStrategyLoader::~CStrategyLoader
__unwindfunclet$??0CDlgAnalysis@@QAE@PAVCWnd@@@Z$6:
  00052	8b 4d f0	 mov	 ecx, DWORD PTR _this$[ebp]
  00055	81 c1 e4 00 00
	00		 add	 ecx, 228		; 000000e4H
  0005b	ff 25 00 00 00
	00		 jmp	 DWORD PTR __imp_??1?$CStringT@DV?$StrTraitMFC_DLL@DV?$ChTraitsCRT@D@ATL@@@@@ATL@@QAE@XZ
__unwindfunclet$??0CDlgAnalysis@@QAE@PAVCWnd@@@Z$7:
  00061	8b 4d f0	 mov	 ecx, DWORD PTR _this$[ebp]
  00064	81 c1 e8 00 00
	00		 add	 ecx, 232		; 000000e8H
  0006a	ff 25 00 00 00
	00		 jmp	 DWORD PTR __imp_??1?$CStringT@DV?$StrTraitMFC_DLL@DV?$ChTraitsCRT@D@ATL@@@@@ATL@@QAE@XZ
__unwindfunclet$??0CDlgAnalysis@@QAE@PAVCWnd@@@Z$8:
  00070	8b 4d f0	 mov	 ecx, DWORD PTR _this$[ebp]
  00073	81 c1 ec 00 00
	00		 add	 ecx, 236		; 000000ecH
  00079	ff 25 00 00 00
	00		 jmp	 DWORD PTR __imp_??1?$CStringT@DV?$StrTraitMFC_DLL@DV?$ChTraitsCRT@D@ATL@@@@@ATL@@QAE@XZ
__unwindfunclet$??0CDlgAnalysis@@QAE@PAVCWnd@@@Z$9:
  0007f	8b 4d f0	 mov	 ecx, DWORD PTR _this$[ebp]
  00082	81 c1 f0 00 00
	00		 add	 ecx, 240		; 000000f0H
  00088	ff 25 00 00 00
	00		 jmp	 DWORD PTR __imp_??1?$CStringT@DV?$StrTraitMFC_DLL@DV?$ChTraitsCRT@D@ATL@@@@@ATL@@QAE@XZ
__unwindfunclet$??0CDlgAnalysis@@QAE@PAVCWnd@@@Z$10:
  0008e	8b 4d f0	 mov	 ecx, DWORD PTR _this$[ebp]
  00091	81 c1 f4 00 00
	00		 add	 ecx, 244		; 000000f4H
  00097	ff 25 00 00 00
	00		 jmp	 DWORD PTR __imp_??1?$CStringT@DV?$StrTraitMFC_DLL@DV?$ChTraitsCRT@D@ATL@@@@@ATL@@QAE@XZ
__unwindfunclet$??0CDlgAnalysis@@QAE@PAVCWnd@@@Z$11:
  0009d	8b 4d f0	 mov	 ecx, DWORD PTR _this$[ebp]
  000a0	81 c1 1c 01 00
	00		 add	 ecx, 284		; 0000011cH
  000a6	e9 00 00 00 00	 jmp	 ??1CStringArray@@UAE@XZ	; CStringArray::~CStringArray
__unwindfunclet$??0CDlgAnalysis@@QAE@PAVCWnd@@@Z$12:
  000ab	8b 4d f0	 mov	 ecx, DWORD PTR _this$[ebp]
  000ae	81 c1 3c 01 00
	00		 add	 ecx, 316		; 0000013cH
  000b4	e9 00 00 00 00	 jmp	 ??1?$CArray@UST_DATAINDEX@@U1@@@UAE@XZ ; CArray<ST_DATAINDEX,ST_DATAINDEX>::~CArray<ST_DATAINDEX,ST_DATAINDEX>
__unwindfunclet$??0CDlgAnalysis@@QAE@PAVCWnd@@@Z$13:
  000b9	8b 4d f0	 mov	 ecx, DWORD PTR _this$[ebp]
  000bc	81 c1 50 01 00
	00		 add	 ecx, 336		; 00000150H
  000c2	e9 00 00 00 00	 jmp	 ??1CGridCtrl@@UAE@XZ	; CGridCtrl::~CGridCtrl
__unwindfunclet$??0CDlgAnalysis@@QAE@PAVCWnd@@@Z$14:
  000c7	8b 4d f0	 mov	 ecx, DWORD PTR _this$[ebp]
  000ca	81 c1 e8 05 00
	00		 add	 ecx, 1512		; 000005e8H
  000d0	e9 00 00 00 00	 jmp	 ??1CBrush@@UAE@XZ	; CBrush::~CBrush
  000d5	cc		 int	 3
  000d6	cc		 int	 3
  000d7	cc		 int	 3
  000d8	cc		 int	 3
  000d9	cc		 int	 3
__ehhandler$??0CDlgAnalysis@@QAE@PAVCWnd@@@Z:
  000da	90		 npad	 1
  000db	90		 npad	 1
  000dc	8b 54 24 08	 mov	 edx, DWORD PTR [esp+8]
  000e0	8d 42 0c	 lea	 eax, DWORD PTR [edx+12]
  000e3	8b 4a f4	 mov	 ecx, DWORD PTR [edx-12]
  000e6	33 c8		 xor	 ecx, eax
  000e8	e8 00 00 00 00	 call	 @__security_check_cookie@4
  000ed	b8 00 00 00 00	 mov	 eax, OFFSET __ehfuncinfo$??0CDlgAnalysis@@QAE@PAVCWnd@@@Z
  000f2	e9 00 00 00 00	 jmp	 ___CxxFrameHandler3
text$x	ENDS
??0CDlgAnalysis@@QAE@PAVCWnd@@@Z ENDP			; CDlgAnalysis::CDlgAnalysis
; Function compile flags: /Ogtp
; File C:\Program Files (x86)\Microsoft Visual Studio\2019\Community\VC\Tools\MSVC\14.29.30133\atlmfc\include\afx.inl
;	COMDAT ??_G?$CArray@UST_DATAINDEX@@U1@@@UAEPAXI@Z
_TEXT	SEGMENT
___flags$ = 8						; size = 4
??_G?$CArray@UST_DATAINDEX@@U1@@@UAEPAXI@Z PROC		; CArray<ST_DATAINDEX,ST_DATAINDEX>::`scalar deleting destructor', COMDAT
; _this$ = ecx
  00000	55		 push	 ebp
  00001	8b ec		 mov	 ebp, esp
  00003	56		 push	 esi
  00004	8b f1		 mov	 esi, ecx
  00006	e8 00 00 00 00	 call	 ??1?$CArray@UST_DATAINDEX@@U1@@@UAE@XZ ; CArray<ST_DATAINDEX,ST_DATAINDEX>::~CArray<ST_DATAINDEX,ST_DATAINDEX>
  0000b	8b 45 08	 mov	 eax, DWORD PTR ___flags$[ebp]
  0000e	a8 01		 test	 al, 1
  00010	74 1f		 je	 SHORT $LN9@scalar
  00012	a8 04		 test	 al, 4
  00014	75 10		 jne	 SHORT $LN3@scalar

; 112  : 	{ ::operator delete(p); }

  00016	56		 push	 esi
  00017	e8 00 00 00 00	 call	 ??3@YAXPAX@Z		; operator delete
  0001c	83 c4 04	 add	 esp, 4
  0001f	8b c6		 mov	 eax, esi
  00021	5e		 pop	 esi
  00022	5d		 pop	 ebp
  00023	c2 04 00	 ret	 4
$LN3@scalar:
  00026	6a 14		 push	 20			; 00000014H
  00028	56		 push	 esi
  00029	e8 00 00 00 00	 call	 ?__global_delete@@YAXPAXI@Z ; __global_delete
  0002e	83 c4 08	 add	 esp, 8
$LN9@scalar:
  00031	8b c6		 mov	 eax, esi
  00033	5e		 pop	 esi
  00034	5d		 pop	 ebp
  00035	c2 04 00	 ret	 4
??_G?$CArray@UST_DATAINDEX@@U1@@@UAEPAXI@Z ENDP		; CArray<ST_DATAINDEX,ST_DATAINDEX>::`scalar deleting destructor'
_TEXT	ENDS
; Function compile flags: /Ogtp
; File C:\Program Files (x86)\Microsoft Visual Studio\2019\Community\VC\Tools\MSVC\14.29.30133\atlmfc\include\afxtempl.h
; File C:\Program Files (x86)\Microsoft Visual Studio\2019\Community\VC\Tools\MSVC\14.29.30133\atlmfc\include\afx.inl
; File C:\Program Files (x86)\Microsoft Visual Studio\2019\Community\VC\Tools\MSVC\14.29.30133\atlmfc\include\afxtempl.h
; File C:\Program Files (x86)\Microsoft Visual Studio\2019\Community\VC\Tools\MSVC\14.29.30133\atlmfc\include\afx.inl
; File C:\Program Files (x86)\Microsoft Visual Studio\2019\Community\VC\Tools\MSVC\14.29.30133\atlmfc\include\afxtempl.h
; File C:\Program Files (x86)\Microsoft Visual Studio\2019\Community\VC\Tools\MSVC\14.29.30133\atlmfc\include\afx.inl
; File C:\Program Files (x86)\Microsoft Visual Studio\2019\Community\VC\Tools\MSVC\14.29.30133\atlmfc\include\afxtempl.h
; File C:\Program Files (x86)\Microsoft Visual Studio\2019\Community\VC\Tools\MSVC\14.29.30133\atlmfc\include\afx.inl
; File C:\Program Files (x86)\Microsoft Visual Studio\2019\Community\VC\Tools\MSVC\14.29.30133\atlmfc\include\afxtempl.h
;	COMDAT ?Serialize@?$CArray@UST_DATAINDEX@@U1@@@UAEXAAVCArchive@@@Z
_TEXT	SEGMENT
_pData$1$ = -4						; size = 4
_ar$ = 8						; size = 4
?Serialize@?$CArray@UST_DATAINDEX@@U1@@@UAEXAAVCArchive@@@Z PROC ; CArray<ST_DATAINDEX,ST_DATAINDEX>::Serialize, COMDAT
; _this$ = ecx

; 633  : {

  00000	55		 push	 ebp
  00001	8b ec		 mov	 ebp, esp
  00003	51		 push	 ecx
  00004	53		 push	 ebx
  00005	56		 push	 esi
  00006	57		 push	 edi
  00007	8b f9		 mov	 edi, ecx
; File C:\Program Files (x86)\Microsoft Visual Studio\2019\Community\VC\Tools\MSVC\14.29.30133\atlmfc\include\afx.inl

; 212  : 	{ return (m_nMode & CArchive::load) == 0; }

  00009	8b 4d 08	 mov	 ecx, DWORD PTR _ar$[ebp]
  0000c	8b 41 18	 mov	 eax, DWORD PTR [ecx+24]
  0000f	f7 d0		 not	 eax
  00011	a8 01		 test	 al, 1
; File C:\Program Files (x86)\Microsoft Visual Studio\2019\Community\VC\Tools\MSVC\14.29.30133\atlmfc\include\afxtempl.h

; 637  : 	if (ar.IsStoring())

  00013	74 0a		 je	 SHORT $LN2@Serialize

; 638  : 	{
; 639  : 		ar.WriteCount(m_nSize);

  00015	ff 77 08	 push	 DWORD PTR [edi+8]
  00018	e8 00 00 00 00	 call	 ?WriteCount@CArchive@@QAEXK@Z ; CArchive::WriteCount

; 640  : 	}

  0001d	eb 0f		 jmp	 SHORT $LN3@Serialize
$LN2@Serialize:

; 641  : 	else
; 642  : 	{
; 643  : 		DWORD_PTR nOldSize = ar.ReadCount();

  0001f	e8 00 00 00 00	 call	 ?ReadCount@CArchive@@QAEKXZ ; CArchive::ReadCount

; 644  : 		SetSize(nOldSize, -1);

  00024	6a ff		 push	 -1
  00026	50		 push	 eax
  00027	8b cf		 mov	 ecx, edi
  00029	e8 00 00 00 00	 call	 ?SetSize@?$CArray@UST_DATAINDEX@@U1@@@QAEXHH@Z ; CArray<ST_DATAINDEX,ST_DATAINDEX>::SetSize
$LN3@Serialize:

; 645  : 	}
; 646  : 	SerializeElements<TYPE>(ar, m_pData, m_nSize);

  0002e	8b 77 08	 mov	 esi, DWORD PTR [edi+8]
  00031	8b 4f 04	 mov	 ecx, DWORD PTR [edi+4]
  00034	89 4d fc	 mov	 DWORD PTR _pData$1$[ebp], ecx

; 68   : 	ENSURE(nCount == 0 || pElements != NULL);

  00037	85 f6		 test	 esi, esi
  00039	74 08		 je	 SHORT $LN8@Serialize
  0003b	85 c9		 test	 ecx, ecx
  0003d	0f 84 8a 00 00
	00		 je	 $LN40@Serialize
$LN8@Serialize:
; File C:\Program Files (x86)\Microsoft Visual Studio\2019\Community\VC\Tools\MSVC\14.29.30133\atlmfc\include\afx.inl

; 212  : 	{ return (m_nMode & CArchive::load) == 0; }

  00043	8b 55 08	 mov	 edx, DWORD PTR _ar$[ebp]
  00046	8b 42 18	 mov	 eax, DWORD PTR [edx+24]
  00049	f7 d0		 not	 eax
  0004b	a8 01		 test	 al, 1
; File C:\Program Files (x86)\Microsoft Visual Studio\2019\Community\VC\Tools\MSVC\14.29.30133\atlmfc\include\afxtempl.h

; 73   : 	if (ar.IsStoring())

  0004d	74 34		 je	 SHORT $LN16@Serialize

; 74   : 	{
; 75   : 		TYPE* pData;
; 76   : 		UINT_PTR nElementsLeft;
; 77   : 
; 78   : 		nElementsLeft = nCount;
; 79   : 		pData = pElements;
; 80   : 		while( nElementsLeft > 0 )

  0004f	85 f6		 test	 esi, esi
  00051	74 27		 je	 SHORT $LN14@Serialize
$LL11@Serialize:

; 81   : 		{
; 82   : 			UINT nElementsToWrite;
; 83   : 
; 84   : 			nElementsToWrite = UINT(__min(nElementsLeft, INT_MAX/sizeof(TYPE)));

  00053	bb ff ff ff 03	 mov	 ebx, 67108863		; 03ffffffH
  00058	3b f3		 cmp	 esi, ebx
  0005a	0f 42 de	 cmovb	 ebx, esi

; 85   : 			ar.Write(pData, nElementsToWrite*sizeof(TYPE));

  0005d	8b fb		 mov	 edi, ebx
  0005f	c1 e7 05	 shl	 edi, 5
  00062	57		 push	 edi
  00063	51		 push	 ecx
  00064	8b ca		 mov	 ecx, edx
  00066	e8 00 00 00 00	 call	 ?Write@CArchive@@QAEXPBXI@Z ; CArchive::Write

; 86   : 			nElementsLeft -= nElementsToWrite;
; 87   : 			pData += nElementsToWrite;

  0006b	8b 4d fc	 mov	 ecx, DWORD PTR _pData$1$[ebp]
  0006e	8b 55 08	 mov	 edx, DWORD PTR _ar$[ebp]
  00071	03 cf		 add	 ecx, edi
  00073	89 4d fc	 mov	 DWORD PTR _pData$1$[ebp], ecx
  00076	2b f3		 sub	 esi, ebx
  00078	75 d9		 jne	 SHORT $LL11@Serialize
$LN14@Serialize:
  0007a	5f		 pop	 edi

; 647  : }

  0007b	5e		 pop	 esi
  0007c	5b		 pop	 ebx
  0007d	8b e5		 mov	 esp, ebp
  0007f	5d		 pop	 ebp
  00080	c2 04 00	 ret	 4
$LN16@Serialize:

; 97   : 		while( nElementsLeft > 0 )

  00083	85 f6		 test	 esi, esi
  00085	74 f3		 je	 SHORT $LN14@Serialize
  00087	66 0f 1f 84 00
	00 00 00 00	 npad	 9
$LL13@Serialize:

; 98   : 		{
; 99   : 			UINT nElementsToRead;
; 100  : 
; 101  : 			nElementsToRead = UINT(__min(nElementsLeft, INT_MAX/sizeof(TYPE)));

  00090	bb ff ff ff 03	 mov	 ebx, 67108863		; 03ffffffH
  00095	3b f3		 cmp	 esi, ebx
  00097	0f 42 de	 cmovb	 ebx, esi

; 102  : 			ar.EnsureRead(pData, nElementsToRead*sizeof(TYPE));

  0009a	8b fb		 mov	 edi, ebx
  0009c	c1 e7 05	 shl	 edi, 5
; File C:\Program Files (x86)\Microsoft Visual Studio\2019\Community\VC\Tools\MSVC\14.29.30133\atlmfc\include\afx.inl

; 399  : 	UINT nRead=Read(lpBuf, nCount);

  0009f	57		 push	 edi
  000a0	51		 push	 ecx
  000a1	8b ca		 mov	 ecx, edx
  000a3	e8 00 00 00 00	 call	 ?Read@CArchive@@QAEIPAXI@Z ; CArchive::Read

; 400  : 	if(nRead!=nCount)

  000a8	3b c7		 cmp	 eax, edi
  000aa	75 18		 jne	 SHORT $LN30@Serialize
; File C:\Program Files (x86)\Microsoft Visual Studio\2019\Community\VC\Tools\MSVC\14.29.30133\atlmfc\include\afxtempl.h

; 97   : 		while( nElementsLeft > 0 )

  000ac	8b 4d fc	 mov	 ecx, DWORD PTR _pData$1$[ebp]
  000af	8b 55 08	 mov	 edx, DWORD PTR _ar$[ebp]

; 103  : 			nElementsLeft -= nElementsToRead;
; 104  : 			pData += nElementsToRead;

  000b2	03 cf		 add	 ecx, edi
  000b4	89 4d fc	 mov	 DWORD PTR _pData$1$[ebp], ecx
  000b7	2b f3		 sub	 esi, ebx
  000b9	75 d5		 jne	 SHORT $LL13@Serialize

; 647  : }

  000bb	5f		 pop	 edi
  000bc	5e		 pop	 esi
  000bd	5b		 pop	 ebx
  000be	8b e5		 mov	 esp, ebp
  000c0	5d		 pop	 ebp
  000c1	c2 04 00	 ret	 4
$LN30@Serialize:
; File C:\Program Files (x86)\Microsoft Visual Studio\2019\Community\VC\Tools\MSVC\14.29.30133\atlmfc\include\afx.inl

; 402  : 		AfxThrowArchiveException(CArchiveException::endOfFile);

  000c4	6a 00		 push	 0
  000c6	6a 03		 push	 3
  000c8	e8 00 00 00 00	 call	 ?AfxThrowArchiveException@@YGXHPBD@Z ; AfxThrowArchiveException
$LN40@Serialize:
; File C:\Program Files (x86)\Microsoft Visual Studio\2019\Community\VC\Tools\MSVC\14.29.30133\atlmfc\include\afxtempl.h

; 68   : 	ENSURE(nCount == 0 || pElements != NULL);

  000cd	e8 00 00 00 00	 call	 ?AfxThrowInvalidArgException@@YGXXZ ; AfxThrowInvalidArgException
$LN38@Serialize:
  000d2	cc		 int	 3
?Serialize@?$CArray@UST_DATAINDEX@@U1@@@UAEXAAVCArchive@@@Z ENDP ; CArray<ST_DATAINDEX,ST_DATAINDEX>::Serialize
_TEXT	ENDS
; Function compile flags: /Ogtp
; File C:\Program Files (x86)\Microsoft Visual Studio\2019\Community\VC\Tools\MSVC\14.29.30133\atlmfc\include\afxtempl.h
;	COMDAT ??1?$CArray@UST_DATAINDEX@@U1@@@UAE@XZ
_TEXT	SEGMENT
_i$1$ = -4						; size = 4
