; Listing generated by Microsoft (R) Optimizing Compiler Version 19.29.30145.0 

	TITLE	D:\git\src\IBK\IBK_DRFN\#DRfn-CS\_Obj\HWStrategyAnalysis\HWStrategyAnalysis.obj
	.686P
	.XMM
	include listing.inc
	.model	flat

INCLUDELIB MSVCRT
INCLUDELIB OLDNAMES

PUBLIC	??_C@_0P@BKKCOCLK@RMSG_INTERFACE@		; `string'
PUBLIC	??_C@_0BB@GOOPDKI@RMSG_GETPCTRDATA@		; `string'
PUBLIC	??_C@_0BB@JPACFCL@RMSG_SETPCTRDATA@		; `string'
PUBLIC	__afxForceEXTDLL
PUBLIC	_ExtRawDllMain@12
PUBLIC	__pRawDllMain
PUBLIC	??_C@_0BE@FJPKENOB@RMSG_GETSIGNAL_REAL@		; `string'
PUBLIC	??_C@_0BB@CNOFPEHG@RMSG_SETQUERYOPT@		; `string'
PUBLIC	??_C@_0P@KHFCBIOH@RMSG_CHARTMAIN@		; `string'
PUBLIC	??_C@_0BC@MMPGLPDH@RMS_ANALYSIS_FUNC@		; `string'
PUBLIC	??_C@_0BA@HKNFENJL@RMSG_GET_USERID@		; `string'
PUBLIC	??_C@_0BG@CNPAHNGG@RMSG_CHANGE_SKINCOLOR@	; `string'
PUBLIC	??_C@_0BD@FLDNDDHK@RMSG_GET_SKINCOLOR@		; `string'
PUBLIC	??_C@_0BJ@JLKHIBIK@RMSG_CHANGEVERTSCALETYPE@	; `string'
PUBLIC	??_C@_0BG@LNLCJKPF@RMSG_CHANGE_CROSSLINE@	; `string'
PUBLIC	??_C@_0BH@IFDMIMBP@RMSG_ADD_PLATFORM_MENU@	; `string'
PUBLIC	??_C@_0BJ@OGNAJHHI@RMSG_SETINITIALCHARTDATA@	; `string'
PUBLIC	??_C@_0N@IIOKMIEH@RMSG_GETINFO@			; `string'
PUBLIC	??_C@_0N@HABLPHJG@RMSG_SETINFO@			; `string'
_BSS	SEGMENT
__afxForceEXTDLL DD 01H DUP (?)
_BSS	ENDS
;	COMDAT ??_C@_0N@HABLPHJG@RMSG_SETINFO@
CONST	SEGMENT
??_C@_0N@HABLPHJG@RMSG_SETINFO@ DB 'RMSG_SETINFO', 00H	; `string'
CONST	ENDS
;	COMDAT ??_C@_0N@IIOKMIEH@RMSG_GETINFO@
CONST	SEGMENT
??_C@_0N@IIOKMIEH@RMSG_GETINFO@ DB 'RMSG_GETINFO', 00H	; `string'
CONST	ENDS
;	COMDAT ??_C@_0BJ@OGNAJHHI@RMSG_SETINITIALCHARTDATA@
CONST	SEGMENT
??_C@_0BJ@OGNAJHHI@RMSG_SETINITIALCHARTDATA@ DB 'RMSG_SETINITIALCHARTDATA'
	DB	00H						; `string'
CONST	ENDS
;	COMDAT ??_C@_0BH@IFDMIMBP@RMSG_ADD_PLATFORM_MENU@
CONST	SEGMENT
??_C@_0BH@IFDMIMBP@RMSG_ADD_PLATFORM_MENU@ DB 'RMSG_ADD_PLATFORM_MENU', 00H ; `string'
CONST	ENDS
;	COMDAT ??_C@_0BG@LNLCJKPF@RMSG_CHANGE_CROSSLINE@
CONST	SEGMENT
??_C@_0BG@LNLCJKPF@RMSG_CHANGE_CROSSLINE@ DB 'RMSG_CHANGE_CROSSLINE', 00H ; `string'
CONST	ENDS
;	COMDAT ??_C@_0BJ@JLKHIBIK@RMSG_CHANGEVERTSCALETYPE@
CONST	SEGMENT
??_C@_0BJ@JLKHIBIK@RMSG_CHANGEVERTSCALETYPE@ DB 'RMSG_CHANGEVERTSCALETYPE'
	DB	00H						; `string'
CONST	ENDS
;	COMDAT ??_C@_0BD@FLDNDDHK@RMSG_GET_SKINCOLOR@
CONST	SEGMENT
??_C@_0BD@FLDNDDHK@RMSG_GET_SKINCOLOR@ DB 'RMSG_GET_SKINCOLOR', 00H ; `string'
CONST	ENDS
;	COMDAT ??_C@_0BG@CNPAHNGG@RMSG_CHANGE_SKINCOLOR@
CONST	SEGMENT
??_C@_0BG@CNPAHNGG@RMSG_CHANGE_SKINCOLOR@ DB 'RMSG_CHANGE_SKINCOLOR', 00H ; `string'
CONST	ENDS
;	COMDAT ??_C@_0BA@HKNFENJL@RMSG_GET_USERID@
CONST	SEGMENT
??_C@_0BA@HKNFENJL@RMSG_GET_USERID@ DB 'RMSG_GET_USERID', 00H ; `string'
CONST	ENDS
;	COMDAT ??_C@_0BC@MMPGLPDH@RMS_ANALYSIS_FUNC@
CONST	SEGMENT
??_C@_0BC@MMPGLPDH@RMS_ANALYSIS_FUNC@ DB 'RMS_ANALYSIS_FUNC', 00H ; `string'
CONST	ENDS
;	COMDAT ??_C@_0P@KHFCBIOH@RMSG_CHARTMAIN@
CONST	SEGMENT
??_C@_0P@KHFCBIOH@RMSG_CHARTMAIN@ DB 'RMSG_CHARTMAIN', 00H ; `string'
CONST	ENDS
;	COMDAT ??_C@_0BB@CNOFPEHG@RMSG_SETQUERYOPT@
CONST	SEGMENT
??_C@_0BB@CNOFPEHG@RMSG_SETQUERYOPT@ DB 'RMSG_SETQUERYOPT', 00H ; `string'
CONST	ENDS
;	COMDAT ??_C@_0BE@FJPKENOB@RMSG_GETSIGNAL_REAL@
CONST	SEGMENT
??_C@_0BE@FJPKENOB@RMSG_GETSIGNAL_REAL@ DB 'RMSG_GETSIGNAL_REAL', 00H ; `string'
CONST	ENDS
CONST	SEGMENT
__pRawDllMain DD FLAT:_ExtRawDllMain@12
CONST	ENDS
;	COMDAT ??_C@_0BB@JPACFCL@RMSG_SETPCTRDATA@
CONST	SEGMENT
??_C@_0BB@JPACFCL@RMSG_SETPCTRDATA@ DB 'RMSG_SETPCTRDATA', 00H ; `string'
CONST	ENDS
;	COMDAT ??_C@_0BB@GOOPDKI@RMSG_GETPCTRDATA@
CONST	SEGMENT
??_C@_0BB@GOOPDKI@RMSG_GETPCTRDATA@ DB 'RMSG_GETPCTRDATA', 00H ; `string'
CONST	ENDS
;	COMDAT ??_C@_0P@BKKCOCLK@RMSG_INTERFACE@
CONST	SEGMENT
??_C@_0P@BKKCOCLK@RMSG_INTERFACE@ DB 'RMSG_INTERFACE', 00H ; `string'
CONST	ENDS
PUBLIC	?__empty_global_delete@@YAXPAX@Z		; __empty_global_delete
PUBLIC	?__empty_global_delete@@YAXPAXI@Z		; __empty_global_delete
PUBLIC	___local_stdio_scanf_options
PUBLIC	_sscanf
PUBLIC	??3CObject@@SGXPAX@Z				; CObject::operator delete
PUBLIC	??1STMNG_ITEMINFO@@QAE@XZ			; STMNG_ITEMINFO::~STMNG_ITEMINFO
PUBLIC	_DllMain@12
PUBLIC	?fnInit@@YGJPAUSTODINIT_IN@@PAUSTODINIT_OUT@@PAX@Z ; fnInit
PUBLIC	?fnLoad@@YGJPAUSTODCREATEINFO_IN@@PAUSTODCREATEINFO_OUT@@@Z ; fnLoad
PUBLIC	?fnUnLoad@@YGJPAX@Z				; fnUnLoad
PUBLIC	?fnFuncCall@@YGJPAXPBD1AAUtagVARIANT@@@Z	; fnFuncCall
PUBLIC	_CREATE_TRADING
PUBLIC	_CREATE_TRADING_EX
PUBLIC	_DESTROY_TRADING
PUBLIC	_SA_ApplyChart
PUBLIC	?_OptionsStorage@?1??__local_stdio_scanf_options@@9@4_KA ; `__local_stdio_scanf_options'::`2'::_OptionsStorage
PUBLIC	??_C@_00CNPNBAHC@@				; `string'
PUBLIC	??_C@_0M@CBBNGGHM@PcTrMng?4dll@			; `string'
PUBLIC	??_C@_0P@IDMAJEGN@HANAROPCTRMAIN@		; `string'
PUBLIC	??_C@_06NDLAHCHE@?$CFs?$CF08X@			; `string'
PUBLIC	??_C@_02EMFKHFLK@?$CFX@				; `string'
PUBLIC	??_C@_03IDLCJCBF@?4st@				; `string'
PUBLIC	??_C@_01KICIPPFI@?2@				; `string'
PUBLIC	??_C@_03COHLPAFH@?4ST@				; `string'
PUBLIC	??_C@_0DO@BJELONFP@?$MA?$PM?$LH?$KL?$MA?$LL?5?$LM?$LB?E?C?G?O?A?v?5?$LO?J?$LO?R?$LN?$MA?$LE?O?$LE?Y?4?5?$LF?$PL?$LG@ ; `string'
PUBLIC	??_C@_0N@HJAMCNAE@SetFrameInfo@			; `string'
PUBLIC	??_C@_05PGKDIPIO@chart@				; `string'
PUBLIC	__xmm@000001900000012c0000000000000000
EXTRN	??2@YAPAXI@Z:PROC				; operator new
EXTRN	??3@YAXPAX@Z:PROC				; operator delete
EXTRN	__imp__GetEnvironmentVariableA@12:PROC
EXTRN	__imp__GetModuleHandleA@4:PROC
EXTRN	__imp__RegisterWindowMessageA@4:PROC
EXTRN	__imp__SendMessageA@16:PROC
EXTRN	__imp____stdio_common_vsscanf:PROC
EXTRN	__imp_?Concatenate@?$CSimpleStringT@D$00@ATL@@KAXAAV12@PBDH1H@Z:PROC
EXTRN	__imp_??0?$CStringT@DV?$StrTraitMFC_DLL@DV?$ChTraitsCRT@D@ATL@@@@@ATL@@QAE@XZ:PROC
EXTRN	__imp_??0?$CStringT@DV?$StrTraitMFC_DLL@DV?$ChTraitsCRT@D@ATL@@@@@ATL@@QAE@PAUIAtlStringMgr@1@@Z:PROC
EXTRN	__imp_??1?$CStringT@DV?$StrTraitMFC_DLL@DV?$ChTraitsCRT@D@ATL@@@@@ATL@@QAE@XZ:PROC
EXTRN	__imp_??4?$CStringT@DV?$StrTraitMFC_DLL@DV?$ChTraitsCRT@D@ATL@@@@@ATL@@QAEAAV01@ABV01@@Z:PROC
EXTRN	__imp_??4?$CStringT@DV?$StrTraitMFC_DLL@DV?$ChTraitsCRT@D@ATL@@@@@ATL@@QAEAAV01@PBD@Z:PROC
EXTRN	__imp_?GetManager@?$CStringT@DV?$StrTraitMFC_DLL@DV?$ChTraitsCRT@D@ATL@@@@@ATL@@QBEPAUIAtlStringMgr@2@XZ:PROC
EXTRN	__imp_?Compare@?$CStringT@DV?$StrTraitMFC_DLL@DV?$ChTraitsCRT@D@ATL@@@@@ATL@@QBEHPBD@Z:PROC
EXTRN	__imp_?Format@?$CStringT@DV?$StrTraitMFC_DLL@DV?$ChTraitsCRT@D@ATL@@@@@ATL@@QAAXPBDZZ:PROC
EXTRN	?AfxGetModuleState@@YGPAVAFX_MODULE_STATE@@XZ:PROC ; AfxGetModuleState
EXTRN	?FromHandle@CWnd@@SGPAV1@PAUHWND__@@@Z:PROC	; CWnd::FromHandle
EXTRN	?ShowWindow@CWnd@@QAEHH@Z:PROC			; CWnd::ShowWindow
EXTRN	?AfxInitRichEdit@@YGHXZ:PROC			; AfxInitRichEdit
EXTRN	?AfxMessageBox@@YGHPBDII@Z:PROC			; AfxMessageBox
EXTRN	??0CDynLinkLibrary@@QAE@AAUAFX_EXTENSION_MODULE@@H@Z:PROC ; CDynLinkLibrary::CDynLinkLibrary
EXTRN	?AfxInitExtensionModule@@YGHAAUAFX_EXTENSION_MODULE@@PAUHINSTANCE__@@@Z:PROC ; AfxInitExtensionModule
EXTRN	?AfxTermExtensionModule@@YGXAAUAFX_EXTENSION_MODULE@@H@Z:PROC ; AfxTermExtensionModule
EXTRN	??0CDlgAnalysis@@QAE@PAVCWnd@@@Z:PROC		; CDlgAnalysis::CDlgAnalysis
EXTRN	@__security_check_cookie@4:PROC
EXTRN	___CxxFrameHandler3:PROC
EXTRN	_memset:PROC
EXTRN	___security_cookie:DWORD
EXTRN	__fltused:DWORD
;	COMDAT ?_OptionsStorage@?1??__local_stdio_scanf_options@@9@4_KA
_BSS	SEGMENT
?_OptionsStorage@?1??__local_stdio_scanf_options@@9@4_KA DQ 01H DUP (?) ; `__local_stdio_scanf_options'::`2'::_OptionsStorage
_BSS	ENDS
_BSS	SEGMENT
?RMSG_GETSIGNAL_REAL@@3IB DD 01H DUP (?)		; RMSG_GETSIGNAL_REAL
?RMSG_SETQUERYOPT@@3IB DD 01H DUP (?)			; RMSG_SETQUERYOPT
?RMSG_CHARTMAIN@@3IB DD 01H DUP (?)			; RMSG_CHARTMAIN
?RMS_ANALYSIS_FUNC@@3IB DD 01H DUP (?)			; RMS_ANALYSIS_FUNC
?RMSG_GET_USERID@@3IB DD 01H DUP (?)			; RMSG_GET_USERID
?RMSG_CHANGE_SKINCOLOR@@3IB DD 01H DUP (?)		; RMSG_CHANGE_SKINCOLOR
?RMSG_GET_SKINCOLOR@@3IB DD 01H DUP (?)			; RMSG_GET_SKINCOLOR
?RMSG_CHANGEVERTSCALETYPE@@3IB DD 01H DUP (?)		; RMSG_CHANGEVERTSCALETYPE
?RMSG_CHANGE_CROSSLINE@@3IB DD 01H DUP (?)		; RMSG_CHANGE_CROSSLINE
?RMSG_ADD_PLATFORM_MENU@@3IB DD 01H DUP (?)		; RMSG_ADD_PLATFORM_MENU
?RMSG_SETINITIALCHARTDATA@@3IB DD 01H DUP (?)		; RMSG_SETINITIALCHARTDATA
?RMSG_GETINFO@@3IB DD 01H DUP (?)			; RMSG_GETINFO
?RMSG_SETINFO@@3IB DD 01H DUP (?)			; RMSG_SETINFO
?RMSG_INTERFACE@@3IB DD 01H DUP (?)			; RMSG_INTERFACE
?RMSG_GETPCTRDATA@@3IB DD 01H DUP (?)			; RMSG_GETPCTRDATA
?RMSG_SETPCTRDATA@@3IB DD 01H DUP (?)			; RMSG_SETPCTRDATA
?HWStrategyAnalysisDLL@@3UAFX_EXTENSION_MODULE@@A DB 014H DUP (?) ; HWStrategyAnalysisDLL
_BSS	ENDS
CRT$XCU	SEGMENT
?RMSG_GETSIGNAL_REAL$initializer$@@3P6AXXZA DD FLAT:??__ERMSG_GETSIGNAL_REAL@@YAXXZ ; RMSG_GETSIGNAL_REAL$initializer$
CRT$XCU	ENDS
;	COMDAT __xmm@000001900000012c0000000000000000
CONST	SEGMENT
__xmm@000001900000012c0000000000000000 DB 00H, 00H, 00H, 00H, 00H, 00H, 00H
	DB	00H, ',', 01H, 00H, 00H, 090H, 01H, 00H, 00H
CONST	ENDS
;	COMDAT ??_C@_05PGKDIPIO@chart@
CONST	SEGMENT
??_C@_05PGKDIPIO@chart@ DB 'chart', 00H			; `string'
CONST	ENDS
;	COMDAT ??_C@_0N@HJAMCNAE@SetFrameInfo@
CONST	SEGMENT
??_C@_0N@HJAMCNAE@SetFrameInfo@ DB 'SetFrameInfo', 00H	; `string'
CONST	ENDS
;	COMDAT ??_C@_0DO@BJELONFP@?$MA?$PM?$LH?$KL?$MA?$LL?5?$LM?$LB?E?C?G?O?A?v?5?$LO?J?$LO?R?$LN?$MA?$LE?O?$LE?Y?4?5?$LF?$PL?$LG@
CONST	SEGMENT
??_C@_0DO@BJELONFP@?$MA?$PM?$LH?$KL?$MA?$LL?5?$LM?$LB?E?C?G?O?A?v?5?$LO?J?$LO?R?$LN?$MA?$LE?O?$LE?Y?4?5?$LF?$PL?$LG@ DB 0c0H
	DB	0fcH, 0b7H, 0abH, 0c0H, 0bbH, ' ', 0bcH, 0b1H, 0c5H, 0c3H, 0c7H
	DB	0cfH, 0c1H, 0f6H, ' ', 0beH, 0caH, 0beH, 0d2H, 0bdH, 0c0H, 0b4H
	DB	0cfH, 0b4H, 0d9H, '. ', 0b5H, 0fbH, 0b6H, 0f3H, 0bcH, 0adH, ' '
	DB	0bcH, 0baH, 0b0H, 0faH, 0baH, 0d0H, 0bcH, 0aeH, 0c0H, 0bbH, ' '
	DB	0c7H, 0d2H, ' ', 0bcH, 0f6H, ' ', 0beH, 0f8H, 0bdH, 0c0H, 0b4H
	DB	0cfH, 0b4H, 0d9H, '.', 00H			; `string'
CONST	ENDS
;	COMDAT ??_C@_03COHLPAFH@?4ST@
CONST	SEGMENT
??_C@_03COHLPAFH@?4ST@ DB '.ST', 00H			; `string'
CONST	ENDS
;	COMDAT ??_C@_01KICIPPFI@?2@
CONST	SEGMENT
??_C@_01KICIPPFI@?2@ DB '\', 00H			; `string'
CONST	ENDS
;	COMDAT ??_C@_03IDLCJCBF@?4st@
CONST	SEGMENT
??_C@_03IDLCJCBF@?4st@ DB '.st', 00H			; `string'
CONST	ENDS
;	COMDAT ??_C@_02EMFKHFLK@?$CFX@
CONST	SEGMENT
??_C@_02EMFKHFLK@?$CFX@ DB '%X', 00H			; `string'
CONST	ENDS
;	COMDAT ??_C@_06NDLAHCHE@?$CFs?$CF08X@
CONST	SEGMENT
??_C@_06NDLAHCHE@?$CFs?$CF08X@ DB '%s%08X', 00H		; `string'
CONST	ENDS
;	COMDAT ??_C@_0P@IDMAJEGN@HANAROPCTRMAIN@
CONST	SEGMENT
??_C@_0P@IDMAJEGN@HANAROPCTRMAIN@ DB 'HANAROPCTRMAIN', 00H ; `string'
CONST	ENDS
;	COMDAT ??_C@_0M@CBBNGGHM@PcTrMng?4dll@
CONST	SEGMENT
??_C@_0M@CBBNGGHM@PcTrMng?4dll@ DB 'PcTrMng.dll', 00H	; `string'
CONST	ENDS
;	COMDAT ??_C@_00CNPNBAHC@@
CONST	SEGMENT
??_C@_00CNPNBAHC@@ DB 00H				; `string'
CONST	ENDS
;	COMDAT xdata$x
xdata$x	SEGMENT
__unwindtable$?fnFuncCall@@YGJPAXPBD1AAUtagVARIANT@@@Z DD 0ffffffffH
	DD	FLAT:__unwindfunclet$?fnFuncCall@@YGJPAXPBD1AAUtagVARIANT@@@Z$0
__ehfuncinfo$?fnFuncCall@@YGJPAXPBD1AAUtagVARIANT@@@Z DD 019930522H
	DD	01H
	DD	FLAT:__unwindtable$?fnFuncCall@@YGJPAXPBD1AAUtagVARIANT@@@Z
	DD	2 DUP(00H)
	DD	2 DUP(00H)
	DD	00H
	DD	01H
xdata$x	ENDS
;	COMDAT xdata$x
xdata$x	SEGMENT
__ehfuncinfo$?fnInit@@YGJPAUSTODINIT_IN@@PAUSTODINIT_OUT@@PAX@Z DD 019930522H
	DD	09H
	DD	FLAT:__unwindtable$?fnInit@@YGJPAUSTODINIT_IN@@PAUSTODINIT_OUT@@PAX@Z
	DD	2 DUP(00H)
	DD	2 DUP(00H)
	DD	00H
	DD	01H
__unwindtable$?fnInit@@YGJPAUSTODINIT_IN@@PAUSTODINIT_OUT@@PAX@Z DD 0ffffffffH
	DD	FLAT:__unwindfunclet$?fnInit@@YGJPAUSTODINIT_IN@@PAUSTODINIT_OUT@@PAX@Z$0
	DD	0ffffffffH
	DD	FLAT:__unwindfunclet$?fnInit@@YGJPAUSTODINIT_IN@@PAUSTODINIT_OUT@@PAX@Z$1
	DD	0ffffffffH
	DD	FLAT:__unwindfunclet$?fnInit@@YGJPAUSTODINIT_IN@@PAUSTODINIT_OUT@@PAX@Z$2
	DD	0ffffffffH
	DD	FLAT:__unwindfunclet$?fnInit@@YGJPAUSTODINIT_IN@@PAUSTODINIT_OUT@@PAX@Z$3
	DD	03H
	DD	FLAT:__unwindfunclet$?fnInit@@YGJPAUSTODINIT_IN@@PAUSTODINIT_OUT@@PAX@Z$10
	DD	04H
	DD	FLAT:__unwindfunclet$?fnInit@@YGJPAUSTODINIT_IN@@PAUSTODINIT_OUT@@PAX@Z$11
	DD	05H
	DD	FLAT:__unwindfunclet$?fnInit@@YGJPAUSTODINIT_IN@@PAUSTODINIT_OUT@@PAX@Z$12
	DD	03H
	DD	FLAT:__unwindfunclet$?fnInit@@YGJPAUSTODINIT_IN@@PAUSTODINIT_OUT@@PAX@Z$13
	DD	03H
	DD	FLAT:__unwindfunclet$?fnInit@@YGJPAUSTODINIT_IN@@PAUSTODINIT_OUT@@PAX@Z$8
xdata$x	ENDS
;	COMDAT xdata$x
xdata$x	SEGMENT
__unwindtable$?AfxGetPctrData@@YGJH@Z DD 0ffffffffH
	DD	FLAT:__unwindfunclet$?AfxGetPctrData@@YGJH@Z$0
__ehfuncinfo$?AfxGetPctrData@@YGJH@Z DD 019930522H
	DD	01H
	DD	FLAT:__unwindtable$?AfxGetPctrData@@YGJH@Z
	DD	2 DUP(00H)
	DD	2 DUP(00H)
	DD	00H
	DD	01H
xdata$x	ENDS
;	COMDAT xdata$x
xdata$x	SEGMENT
__unwindtable$?AfxGetPctrInterface@@YGJH@Z DD 0ffffffffH
	DD	FLAT:__unwindfunclet$?AfxGetPctrInterface@@YGJH@Z$0
__ehfuncinfo$?AfxGetPctrInterface@@YGJH@Z DD 019930522H
	DD	01H
	DD	FLAT:__unwindtable$?AfxGetPctrInterface@@YGJH@Z
	DD	2 DUP(00H)
	DD	2 DUP(00H)
	DD	00H
	DD	01H
xdata$x	ENDS
;	COMDAT xdata$x
xdata$x	SEGMENT
__unwindtable$??HATL@@YA?AV?$CStringT@DV?$StrTraitMFC_DLL@DV?$ChTraitsCRT@D@ATL@@@@@0@ABV10@PBD@Z DD 0ffffffffH
	DD	FLAT:__unwindfunclet$??HATL@@YA?AV?$CStringT@DV?$StrTraitMFC_DLL@DV?$ChTraitsCRT@D@ATL@@@@@0@ABV10@PBD@Z$0
__ehfuncinfo$??HATL@@YA?AV?$CStringT@DV?$StrTraitMFC_DLL@DV?$ChTraitsCRT@D@ATL@@@@@0@ABV10@PBD@Z DD 019930522H
	DD	01H
	DD	FLAT:__unwindtable$??HATL@@YA?AV?$CStringT@DV?$StrTraitMFC_DLL@DV?$ChTraitsCRT@D@ATL@@@@@0@ABV10@PBD@Z
	DD	2 DUP(00H)
	DD	2 DUP(00H)
	DD	00H
	DD	01H
xdata$x	ENDS
;	COMDAT xdata$x
xdata$x	SEGMENT
__unwindtable$??HATL@@YA?AV?$CStringT@DV?$StrTraitMFC_DLL@DV?$ChTraitsCRT@D@ATL@@@@@0@ABV10@0@Z DD 0ffffffffH
	DD	FLAT:__unwindfunclet$??HATL@@YA?AV?$CStringT@DV?$StrTraitMFC_DLL@DV?$ChTraitsCRT@D@ATL@@@@@0@ABV10@0@Z$0
__ehfuncinfo$??HATL@@YA?AV?$CStringT@DV?$StrTraitMFC_DLL@DV?$ChTraitsCRT@D@ATL@@@@@0@ABV10@0@Z DD 019930522H
	DD	01H
	DD	FLAT:__unwindtable$??HATL@@YA?AV?$CStringT@DV?$StrTraitMFC_DLL@DV?$ChTraitsCRT@D@ATL@@@@@0@ABV10@0@Z
	DD	2 DUP(00H)
	DD	2 DUP(00H)
	DD	00H
	DD	01H
xdata$x	ENDS
CRT$XCU	SEGMENT
?RMSG_SETQUERYOPT$initializer$@@3P6AXXZA DD FLAT:??__ERMSG_SETQUERYOPT@@YAXXZ ; RMSG_SETQUERYOPT$initializer$
CRT$XCU	ENDS
CRT$XCU	SEGMENT
?RMSG_CHARTMAIN$initializer$@@3P6AXXZA DD FLAT:??__ERMSG_CHARTMAIN@@YAXXZ ; RMSG_CHARTMAIN$initializer$
CRT$XCU	ENDS
CRT$XCU	SEGMENT
?RMS_ANALYSIS_FUNC$initializer$@@3P6AXXZA DD FLAT:??__ERMS_ANALYSIS_FUNC@@YAXXZ ; RMS_ANALYSIS_FUNC$initializer$
CRT$XCU	ENDS
CRT$XCU	SEGMENT
?RMSG_GET_USERID$initializer$@@3P6AXXZA DD FLAT:??__ERMSG_GET_USERID@@YAXXZ ; RMSG_GET_USERID$initializer$
CRT$XCU	ENDS
CRT$XCU	SEGMENT
?RMSG_CHANGE_SKINCOLOR$initializer$@@3P6AXXZA DD FLAT:??__ERMSG_CHANGE_SKINCOLOR@@YAXXZ ; RMSG_CHANGE_SKINCOLOR$initializer$
CRT$XCU	ENDS
CRT$XCU	SEGMENT
?RMSG_GET_SKINCOLOR$initializer$@@3P6AXXZA DD FLAT:??__ERMSG_GET_SKINCOLOR@@YAXXZ ; RMSG_GET_SKINCOLOR$initializer$
CRT$XCU	ENDS
CRT$XCU	SEGMENT
?RMSG_CHANGEVERTSCALETYPE$initializer$@@3P6AXXZA DD FLAT:??__ERMSG_CHANGEVERTSCALETYPE@@YAXXZ ; RMSG_CHANGEVERTSCALETYPE$initializer$
CRT$XCU	ENDS
CRT$XCU	SEGMENT
?RMSG_CHANGE_CROSSLINE$initializer$@@3P6AXXZA DD FLAT:??__ERMSG_CHANGE_CROSSLINE@@YAXXZ ; RMSG_CHANGE_CROSSLINE$initializer$
CRT$XCU	ENDS
CRT$XCU	SEGMENT
?RMSG_ADD_PLATFORM_MENU$initializer$@@3P6AXXZA DD FLAT:??__ERMSG_ADD_PLATFORM_MENU@@YAXXZ ; RMSG_ADD_PLATFORM_MENU$initializer$
CRT$XCU	ENDS
CRT$XCU	SEGMENT
?RMSG_SETINITIALCHARTDATA$initializer$@@3P6AXXZA DD FLAT:??__ERMSG_SETINITIALCHARTDATA@@YAXXZ ; RMSG_SETINITIALCHARTDATA$initializer$
CRT$XCU	ENDS
CRT$XCU	SEGMENT
?RMSG_GETINFO$initializer$@@3P6AXXZA DD FLAT:??__ERMSG_GETINFO@@YAXXZ ; RMSG_GETINFO$initializer$
CRT$XCU	ENDS
CRT$XCU	SEGMENT
?RMSG_SETINFO$initializer$@@3P6AXXZA DD FLAT:??__ERMSG_SETINFO@@YAXXZ ; RMSG_SETINFO$initializer$
CRT$XCU	ENDS
CRT$XCU	SEGMENT
?RMSG_INTERFACE$initializer$@@3P6AXXZA DD FLAT:??__ERMSG_INTERFACE@@YAXXZ ; RMSG_INTERFACE$initializer$
CRT$XCU	ENDS
CRT$XCU	SEGMENT
?RMSG_GETPCTRDATA$initializer$@@3P6AXXZA DD FLAT:??__ERMSG_GETPCTRDATA@@YAXXZ ; RMSG_GETPCTRDATA$initializer$
CRT$XCU	ENDS
CRT$XCU	SEGMENT
?RMSG_SETPCTRDATA$initializer$@@3P6AXXZA DD FLAT:??__ERMSG_SETPCTRDATA@@YAXXZ ; RMSG_SETPCTRDATA$initializer$
CRT$XCU	ENDS
; Function compile flags: /Ogtp
; File D:\git\src\IBK\IBK_DRFN\ProjSrc\SrcDrfn\Chart\HWSTRATEGYANALYSIS\HWStrategyAnalysis.cpp
; File C:\Program Files (x86)\Microsoft Visual Studio\2019\Community\VC\Tools\MSVC\14.29.30133\atlmfc\include\afxwin1.inl
; File D:\git\src\IBK\IBK_DRFN\ProjSrc\SrcDrfn\Chart\HWSTRATEGYANALYSIS\HWStrategyAnalysis.cpp
; File C:\Program Files (x86)\Microsoft Visual Studio\2019\Community\VC\Tools\MSVC\14.29.30133\atlmfc\include\afxwin1.inl
; File D:\git\src\IBK\IBK_DRFN\ProjSrc\SrcDrfn\Chart\HWSTRATEGYANALYSIS\HWStrategyAnalysis.cpp
; File C:\Program Files (x86)\Microsoft Visual Studio\2019\Community\VC\Tools\MSVC\14.29.30133\atlmfc\include\afxwin1.inl
; File D:\git\src\IBK\IBK_DRFN\ProjSrc\SrcDrfn\Chart\HWSTRATEGYANALYSIS\HWStrategyAnalysis.cpp
; File C:\Program Files (x86)\Microsoft Visual Studio\2019\Community\VC\Tools\MSVC\14.29.30133\atlmfc\include\afxwin1.inl
; File D:\git\src\IBK\IBK_DRFN\ProjSrc\SrcDrfn\Chart\HWSTRATEGYANALYSIS\HWStrategyAnalysis.cpp
;	COMDAT _SA_ApplyChart
_TEXT	SEGMENT
_InitOut$ = -12						; size = 8
_InitIn$ = -4						; size = 4
_dwChartOcx$ = 8					; size = 4
_pDivList$ = 12						; size = 4
_dwInfo$ = 16						; size = 4
_pInterface$ = 20					; size = 4
_dwReserved2$ = 24					; size = 4
_SA_ApplyChart PROC					; COMDAT

; 294  : {

  00000	55		 push	 ebp
  00001	8b ec		 mov	 ebp, esp
  00003	83 ec 0c	 sub	 esp, 12			; 0000000cH
  00006	53		 push	 ebx

; 295  : 	STMNG_ITEMINFO* pInfo = (STMNG_ITEMINFO*)dwInfo;
; 296  : 	STODINIT_IN  InitIn;
; 297  : 	STODINIT_OUT InitOut;
; 298  : 
; 299  : 	INIT_STODINIT_IN((&InitIn));
; 300  : 	INIT_STODINIT_OUT2(InitOut);
; 301  : 
; 302  : 	HRESULT hr = fnInit(&InitIn, &InitOut, (void*)pInterface);

  00007	ff 75 14	 push	 DWORD PTR _pInterface$[ebp]
  0000a	8d 45 f4	 lea	 eax, DWORD PTR _InitOut$[ebp]
  0000d	c7 45 f4 00 00
	00 00		 mov	 DWORD PTR _InitOut$[ebp], 0
  00014	50		 push	 eax
  00015	8d 45 fc	 lea	 eax, DWORD PTR _InitIn$[ebp]
  00018	50		 push	 eax
  00019	e8 00 00 00 00	 call	 ?fnInit@@YGJPAUSTODINIT_IN@@PAUSTODINIT_OUT@@PAX@Z ; fnInit

; 303  : 	if(InitOut.m_pDllKey==NULL) return NULL;

  0001e	8b 5d f4	 mov	 ebx, DWORD PTR _InitOut$[ebp]
  00021	85 db		 test	 ebx, ebx
  00023	75 07		 jne	 SHORT $LN2@SA_ApplyCh
  00025	33 c0		 xor	 eax, eax
  00027	5b		 pop	 ebx

; 334  : }

  00028	8b e5		 mov	 esp, ebp
  0002a	5d		 pop	 ebp
  0002b	c3		 ret	 0
$LN2@SA_ApplyCh:
  0002c	56		 push	 esi
  0002d	57		 push	 edi

; 304  : 
; 305  : 	CDlgAnalysis* pDlgAnalysis;
; 306  : 	pDlgAnalysis =  (CDlgAnalysis*)InitOut.m_pDllKey;
; 307  : 	
; 308  : 
; 309  : 	if(pDlgAnalysis==NULL) return NULL;
; 310  : 
; 311  : 	IMainInfoManager* pMainInfo = (IMainInfoManager*)AfxGetPctrInterface(UUID_IMainInfoManager);

  0002e	6a 15		 push	 21			; 00000015H
  00030	e8 00 00 00 00	 call	 ?AfxGetPctrInterface@@YGJH@Z ; AfxGetPctrInterface
  00035	8b f0		 mov	 esi, eax

; 312  : 
; 313  : 	// Root Path
; 314  : 	pDlgAnalysis->m_strRootPath = pMainInfo->GetRootDir();

  00037	56		 push	 esi
  00038	8b 06		 mov	 eax, DWORD PTR [esi]
  0003a	ff 50 10	 call	 DWORD PTR [eax+16]
  0003d	50		 push	 eax
  0003e	8d 8b b4 00 00
	00		 lea	 ecx, DWORD PTR [ebx+180]
  00044	ff 15 00 00 00
	00		 call	 DWORD PTR __imp_??4?$CStringT@DV?$StrTraitMFC_DLL@DV?$ChTraitsCRT@D@ATL@@@@@ATL@@QAEAAV01@PBD@Z

; 315  : 		
; 316  : 	// Data Path
; 317  : 	pDlgAnalysis->m_strDataDir = pMainInfo->GetDataDir();

  0004a	8b 06		 mov	 eax, DWORD PTR [esi]
  0004c	56		 push	 esi
  0004d	ff 50 14	 call	 DWORD PTR [eax+20]
  00050	50		 push	 eax
  00051	8d 8b bc 00 00
	00		 lea	 ecx, DWORD PTR [ebx+188]
  00057	ff 15 00 00 00
	00		 call	 DWORD PTR __imp_??4?$CStringT@DV?$StrTraitMFC_DLL@DV?$ChTraitsCRT@D@ATL@@@@@ATL@@QAEAAV01@PBD@Z

; 318  : 
; 319  : 	// User Path
; 320  : 	pDlgAnalysis->m_strUserDir = pMainInfo->GetEncUserDir("chart");

  0005d	8b 06		 mov	 eax, DWORD PTR [esi]
  0005f	68 00 00 00 00	 push	 OFFSET ??_C@_05PGKDIPIO@chart@
  00064	56		 push	 esi
  00065	ff 50 18	 call	 DWORD PTR [eax+24]
  00068	50		 push	 eax
  00069	8d 8b b8 00 00
	00		 lea	 ecx, DWORD PTR [ebx+184]
  0006f	ff 15 00 00 00
	00		 call	 DWORD PTR __imp_??4?$CStringT@DV?$StrTraitMFC_DLL@DV?$ChTraitsCRT@D@ATL@@@@@ATL@@QAEAAV01@PBD@Z

; 321  : 
; 322  : 	// 다이아로그 생성
; 323  : 	pDlgAnalysis->m_bGraphDivide = TRUE;

  00075	c7 83 30 01 00
	00 01 00 00 00	 mov	 DWORD PTR [ebx+304], 1

; 324  : 	pDlgAnalysis->m_nStartType =1;// 0:성과분석, 1:적용실행

  0007f	c7 83 c0 00 00
	00 01 00 00 00	 mov	 DWORD PTR [ebx+192], 1
; File C:\Program Files (x86)\Microsoft Visual Studio\2019\Community\VC\Tools\MSVC\14.29.30133\atlmfc\include\afxwin1.inl

; 25   : 		return afxCurrentResourceHandle; }

  00089	e8 00 00 00 00	 call	 ?AfxGetModuleState@@YGPAVAFX_MODULE_STATE@@XZ ; AfxGetModuleState
; File D:\git\src\IBK\IBK_DRFN\ProjSrc\SrcDrfn\Chart\HWSTRATEGYANALYSIS\HWStrategyAnalysis.cpp

; 326  : 	AfxSetResourceHandle(HWStrategyAnalysisDLL.hResource);

  0008e	8b 35 08 00 00
	00		 mov	 esi, DWORD PTR ?HWStrategyAnalysisDLL@@3UAFX_EXTENSION_MODULE@@A+8
; File C:\Program Files (x86)\Microsoft Visual Studio\2019\Community\VC\Tools\MSVC\14.29.30133\atlmfc\include\afxwin1.inl

; 25   : 		return afxCurrentResourceHandle; }

  00094	8b 78 0c	 mov	 edi, DWORD PTR [eax+12]

; 27   : 	{ ASSERT(hInstResource != NULL); afxCurrentResourceHandle = hInstResource; }

  00097	e8 00 00 00 00	 call	 ?AfxGetModuleState@@YGPAVAFX_MODULE_STATE@@XZ ; AfxGetModuleState
; File D:\git\src\IBK\IBK_DRFN\ProjSrc\SrcDrfn\Chart\HWSTRATEGYANALYSIS\HWStrategyAnalysis.cpp

; 327  : 	pDlgAnalysis->Create(CDlgAnalysis::IDD);

  0009c	6a 00		 push	 0
  0009e	68 b8 0b 00 00	 push	 3000			; 00000bb8H
  000a3	8b cb		 mov	 ecx, ebx
; File C:\Program Files (x86)\Microsoft Visual Studio\2019\Community\VC\Tools\MSVC\14.29.30133\atlmfc\include\afxwin1.inl

; 27   : 	{ ASSERT(hInstResource != NULL); afxCurrentResourceHandle = hInstResource; }

  000a5	89 70 0c	 mov	 DWORD PTR [eax+12], esi
; File D:\git\src\IBK\IBK_DRFN\ProjSrc\SrcDrfn\Chart\HWSTRATEGYANALYSIS\HWStrategyAnalysis.cpp

; 327  : 	pDlgAnalysis->Create(CDlgAnalysis::IDD);

  000a8	8b 13		 mov	 edx, DWORD PTR [ebx]
  000aa	ff 92 6c 01 00
	00		 call	 DWORD PTR [edx+364]

; 328  : 	pDlgAnalysis->ShowWindow(SW_HIDE);

  000b0	6a 00		 push	 0
  000b2	8b cb		 mov	 ecx, ebx
  000b4	e8 00 00 00 00	 call	 ?ShowWindow@CWnd@@QAEHH@Z ; CWnd::ShowWindow
; File C:\Program Files (x86)\Microsoft Visual Studio\2019\Community\VC\Tools\MSVC\14.29.30133\atlmfc\include\afxwin1.inl

; 27   : 	{ ASSERT(hInstResource != NULL); afxCurrentResourceHandle = hInstResource; }

  000b9	e8 00 00 00 00	 call	 ?AfxGetModuleState@@YGPAVAFX_MODULE_STATE@@XZ ; AfxGetModuleState
  000be	89 78 0c	 mov	 DWORD PTR [eax+12], edi
; File D:\git\src\IBK\IBK_DRFN\ProjSrc\SrcDrfn\Chart\HWSTRATEGYANALYSIS\HWStrategyAnalysis.cpp

; 333  : 	return pDlgAnalysis;

  000c1	8b c3		 mov	 eax, ebx
  000c3	5f		 pop	 edi
  000c4	5e		 pop	 esi
  000c5	5b		 pop	 ebx

; 334  : }

  000c6	8b e5		 mov	 esp, ebp
  000c8	5d		 pop	 ebp
  000c9	c3		 ret	 0
_SA_ApplyChart ENDP
_TEXT	ENDS
; Function compile flags: /Ogtp
; File D:\git\src\IBK\IBK_DRFN\ProjSrc\SrcDrfn\Chart\HWSTRATEGYANALYSIS\HWStrategyAnalysis.cpp
;	COMDAT _DESTROY_TRADING
_TEXT	SEGMENT
_pWnd$ = 8						; size = 4
_DESTROY_TRADING PROC					; COMDAT

; 278  : {

  00000	55		 push	 ebp
  00001	8b ec		 mov	 ebp, esp
  00003	56		 push	 esi

; 279  : 	if ( pWnd )

  00004	8b 75 08	 mov	 esi, DWORD PTR _pWnd$[ebp]
  00007	85 f6		 test	 esi, esi
  00009	74 10		 je	 SHORT $LN7@DESTROY_TR

; 199  : 		pDlgAnalysis->DestroyWindow();

  0000b	8b 06		 mov	 eax, DWORD PTR [esi]
  0000d	8b ce		 mov	 ecx, esi
  0000f	ff 50 68	 call	 DWORD PTR [eax+104]

; 200  : 		
; 201  : 		delete pDlgAnalysis;

  00012	8b 06		 mov	 eax, DWORD PTR [esi]
  00014	8b ce		 mov	 ecx, esi
  00016	6a 01		 push	 1
  00018	ff 50 04	 call	 DWORD PTR [eax+4]
$LN7@DESTROY_TR:
  0001b	5e		 pop	 esi

; 280  : 	{
; 281  : 		
; 282  : 		fnUnLoad(pWnd);
; 283  : 	}
; 284  : }

  0001c	5d		 pop	 ebp
  0001d	c3		 ret	 0
_DESTROY_TRADING ENDP
_TEXT	ENDS
; Function compile flags: /Ogtp
; File D:\git\src\IBK\IBK_DRFN\ProjSrc\SrcDrfn\Chart\HWSTRATEGYANALYSIS\HWStrategyAnalysis.cpp
; File C:\Program Files (x86)\Microsoft Visual Studio\2019\Community\VC\Tools\MSVC\14.29.30133\atlmfc\include\afxwin2.inl
; File D:\git\src\IBK\IBK_DRFN\ProjSrc\SrcDrfn\Chart\HWSTRATEGYANALYSIS\HWStrategyAnalysis.cpp
;	COMDAT _CREATE_TRADING_EX
_TEXT	SEGMENT
_InData$ = -360						; size = 332
_OutData$ = -28						; size = 16
_InitIn$ = -12						; size = 4
_InitOut$ = -8						; size = 8
_iTradingID$ = 8					; size = 4
_pParent$ = 12						; size = 4
_pInterface$ = 16					; size = 4
_CREATE_TRADING_EX PROC					; COMDAT

; 251  : { 

  00000	55		 push	 ebp
  00001	8b ec		 mov	 ebp, esp
  00003	81 ec 68 01 00
	00		 sub	 esp, 360		; 00000168H

; 252  : 	 
; 253  : 	STODINIT_IN  InitIn;
; 254  : 	STODINIT_OUT InitOut;
; 255  : 	
; 256  : 	INIT_STODINIT_IN((&InitIn));
; 257  : 	INIT_STODINIT_OUT2(InitOut);
; 258  : 
; 259  : 	HRESULT hr = fnInit(&InitIn, &InitOut, pInterface);

  00009	ff 75 10	 push	 DWORD PTR _pInterface$[ebp]
  0000c	8d 45 f8	 lea	 eax, DWORD PTR _InitOut$[ebp]
  0000f	c7 45 f8 00 00
	00 00		 mov	 DWORD PTR _InitOut$[ebp], 0
  00016	50		 push	 eax
  00017	8d 45 f4	 lea	 eax, DWORD PTR _InitIn$[ebp]
  0001a	c7 45 fc 00 00
	00 00		 mov	 DWORD PTR _InitOut$[ebp+4], 0
  00021	50		 push	 eax
  00022	e8 00 00 00 00	 call	 ?fnInit@@YGJPAUSTODINIT_IN@@PAUSTODINIT_OUT@@PAX@Z ; fnInit

; 260  : 	
; 261  : 	if(InitOut.m_pDllKey==NULL) return NULL;

  00027	83 7d f8 00	 cmp	 DWORD PTR _InitOut$[ebp], 0
  0002b	75 06		 jne	 SHORT $LN2@CREATE_TRA
  0002d	33 c0		 xor	 eax, eax

; 274  : }

  0002f	8b e5		 mov	 esp, ebp
  00031	5d		 pop	 ebp
  00032	c3		 ret	 0
$LN2@CREATE_TRA:

; 262  : 	STODCREATEINFO_IN  InData;
; 263  : 	STODCREATEINFO_OUT OutData;
; 264  : 
; 265  : 	INIT_STODCREATEINFO_IN((&InData));

  00033	68 2d 01 00 00	 push	 301			; 0000012dH
  00038	8d 85 b4 fe ff
	ff		 lea	 eax, DWORD PTR _InData$[ebp+28]
  0003e	6a 00		 push	 0
  00040	50		 push	 eax
  00041	e8 00 00 00 00	 call	 _memset

; 266  : 	InData.m_pInitOut = &InitOut;

  00046	8d 45 f8	 lea	 eax, DWORD PTR _InitOut$[ebp]
  00049	83 c4 0c	 add	 esp, 12			; 0000000cH
  0004c	89 85 98 fe ff
	ff		 mov	 DWORD PTR _InData$[ebp], eax
; File C:\Program Files (x86)\Microsoft Visual Studio\2019\Community\VC\Tools\MSVC\14.29.30133\atlmfc\include\afxwin2.inl

; 25   : 	{ return this == NULL ? NULL : m_hWnd; }

  00052	8b 45 0c	 mov	 eax, DWORD PTR _pParent$[ebp]
  00055	85 c0		 test	 eax, eax
  00057	75 08		 jne	 SHORT $LN10@CREATE_TRA
  00059	89 85 9c fe ff
	ff		 mov	 DWORD PTR _InData$[ebp+4], eax
  0005f	eb 09		 jmp	 SHORT $LN11@CREATE_TRA
$LN10@CREATE_TRA:
  00061	8b 40 20	 mov	 eax, DWORD PTR [eax+32]
  00064	89 85 9c fe ff
	ff		 mov	 DWORD PTR _InData$[ebp+4], eax
$LN11@CREATE_TRA:
; File D:\git\src\IBK\IBK_DRFN\ProjSrc\SrcDrfn\Chart\HWSTRATEGYANALYSIS\HWStrategyAnalysis.cpp

; 268  : 	InData.m_nID = iTradingID;

  0006a	8b 45 08	 mov	 eax, DWORD PTR _iTradingID$[ebp]

; 269  : 	InData.m_Rect = CRect(0,0,300,400);

  0006d	0f 28 05 00 00
	00 00		 movaps	 xmm0, XMMWORD PTR __xmm@000001900000012c0000000000000000
  00074	89 85 b0 fe ff
	ff		 mov	 DWORD PTR _InData$[ebp+24], eax

; 270  : 
; 271  : 	hr = fnLoad(&InData, &OutData);

  0007a	8d 45 e4	 lea	 eax, DWORD PTR _OutData$[ebp]
  0007d	50		 push	 eax
  0007e	8d 85 98 fe ff
	ff		 lea	 eax, DWORD PTR _InData$[ebp]
  00084	50		 push	 eax
  00085	0f 11 85 a0 fe
	ff ff		 movups	 XMMWORD PTR _InData$[ebp+8], xmm0
  0008c	e8 00 00 00 00	 call	 ?fnLoad@@YGJPAUSTODCREATEINFO_IN@@PAUSTODCREATEINFO_OUT@@@Z ; fnLoad

; 272  : 	CWnd* pWnd = (CWnd*)InData.m_pInitOut->m_pDllKey;
; 273  : 	return pWnd;

  00091	8b 45 f8	 mov	 eax, DWORD PTR _InitOut$[ebp]

; 274  : }

  00094	8b e5		 mov	 esp, ebp
  00096	5d		 pop	 ebp
  00097	c3		 ret	 0
_CREATE_TRADING_EX ENDP
_TEXT	ENDS
; Function compile flags: /Ogtp
; File D:\git\src\IBK\IBK_DRFN\ProjSrc\SrcDrfn\Chart\HWSTRATEGYANALYSIS\HWStrategyAnalysis.cpp
; File C:\Program Files (x86)\Microsoft Visual Studio\2019\Community\VC\Tools\MSVC\14.29.30133\atlmfc\include\afx.inl
; File D:\git\src\IBK\IBK_DRFN\ProjSrc\SrcDrfn\Chart\HWSTRATEGYANALYSIS\HWStrategyAnalysis.cpp
; File C:\Program Files (x86)\Microsoft Visual Studio\2019\Community\VC\Tools\MSVC\14.29.30133\atlmfc\include\afx.inl
; File D:\git\src\IBK\IBK_DRFN\ProjSrc\SrcDrfn\Chart\HWSTRATEGYANALYSIS\HWStrategyAnalysis.cpp
; File C:\Program Files (x86)\Microsoft Visual Studio\2019\Community\VC\Tools\MSVC\14.29.30133\atlmfc\include\afxwin2.inl
; File D:\git\src\IBK\IBK_DRFN\ProjSrc\SrcDrfn\Chart\HWSTRATEGYANALYSIS\HWStrategyAnalysis.cpp
;	COMDAT _CREATE_TRADING
_TEXT	SEGMENT
_InData$ = -356						; size = 332
_OutData$ = -24						; size = 16
_InitOut$ = -8						; size = 8
_iTradingID$ = 8					; size = 4
_pParent$ = 12						; size = 4
_CREATE_TRADING PROC					; COMDAT

; 226  : {

  00000	55		 push	 ebp
  00001	8b ec		 mov	 ebp, esp
  00003	81 ec 64 01 00
	00		 sub	 esp, 356		; 00000164H
; File C:\Program Files (x86)\Microsoft Visual Studio\2019\Community\VC\Tools\MSVC\14.29.30133\atlmfc\include\afx.inl

; 116  : 	{ return ::operator new(nSize); }

  00009	68 f0 05 00 00	 push	 1520			; 000005f0H
; File D:\git\src\IBK\IBK_DRFN\ProjSrc\SrcDrfn\Chart\HWSTRATEGYANALYSIS\HWStrategyAnalysis.cpp

; 232  : 	INIT_STODINIT_OUT2(InitOut);

  0000e	c7 45 fc 00 00
	00 00		 mov	 DWORD PTR _InitOut$[ebp+4], 0
; File C:\Program Files (x86)\Microsoft Visual Studio\2019\Community\VC\Tools\MSVC\14.29.30133\atlmfc\include\afx.inl

; 116  : 	{ return ::operator new(nSize); }

  00015	e8 00 00 00 00	 call	 ??2@YAPAXI@Z		; operator new
  0001a	83 c4 04	 add	 esp, 4
; File D:\git\src\IBK\IBK_DRFN\ProjSrc\SrcDrfn\Chart\HWSTRATEGYANALYSIS\HWStrategyAnalysis.cpp

; 79   : 	CDlgAnalysis* pDlgAnalysis = new CDlgAnalysis;

  0001d	85 c0		 test	 eax, eax
  0001f	74 0b		 je	 SHORT $LN8@CREATE_TRA
  00021	6a 00		 push	 0
  00023	8b c8		 mov	 ecx, eax
  00025	e8 00 00 00 00	 call	 ??0CDlgAnalysis@@QAE@PAVCWnd@@@Z ; CDlgAnalysis::CDlgAnalysis
  0002a	eb 02		 jmp	 SHORT $LN9@CREATE_TRA
$LN8@CREATE_TRA:
  0002c	33 c0		 xor	 eax, eax
$LN9@CREATE_TRA:

; 233  : 
; 234  : 	HRESULT hr = fnInit(&InitIn, &InitOut, NULL);
; 235  : 
; 236  : 	STODCREATEINFO_IN  InData; 
; 237  : 	STODCREATEINFO_OUT OutData;
; 238  : 
; 239  : 	INIT_STODCREATEINFO_IN((&InData));

  0002e	68 2d 01 00 00	 push	 301			; 0000012dH

; 80   : 	pOut->m_pDllKey = pDlgAnalysis;

  00033	89 45 f8	 mov	 DWORD PTR _InitOut$[ebp], eax

; 233  : 
; 234  : 	HRESULT hr = fnInit(&InitIn, &InitOut, NULL);
; 235  : 
; 236  : 	STODCREATEINFO_IN  InData; 
; 237  : 	STODCREATEINFO_OUT OutData;
; 238  : 
; 239  : 	INIT_STODCREATEINFO_IN((&InData));

  00036	8d 85 b8 fe ff
	ff		 lea	 eax, DWORD PTR _InData$[ebp+28]
  0003c	6a 00		 push	 0
  0003e	50		 push	 eax
  0003f	e8 00 00 00 00	 call	 _memset

; 240  : 	InData.m_pInitOut = &InitOut;

  00044	8d 45 f8	 lea	 eax, DWORD PTR _InitOut$[ebp]
  00047	83 c4 0c	 add	 esp, 12			; 0000000cH
  0004a	89 85 9c fe ff
	ff		 mov	 DWORD PTR _InData$[ebp], eax
; File C:\Program Files (x86)\Microsoft Visual Studio\2019\Community\VC\Tools\MSVC\14.29.30133\atlmfc\include\afxwin2.inl

; 25   : 	{ return this == NULL ? NULL : m_hWnd; }

  00050	8b 45 0c	 mov	 eax, DWORD PTR _pParent$[ebp]
  00053	85 c0		 test	 eax, eax
  00055	75 08		 jne	 SHORT $LN80@CREATE_TRA
  00057	89 85 a0 fe ff
	ff		 mov	 DWORD PTR _InData$[ebp+4], eax
  0005d	eb 09		 jmp	 SHORT $LN81@CREATE_TRA
$LN80@CREATE_TRA:
  0005f	8b 40 20	 mov	 eax, DWORD PTR [eax+32]
  00062	89 85 a0 fe ff
	ff		 mov	 DWORD PTR _InData$[ebp+4], eax
$LN81@CREATE_TRA:
; File D:\git\src\IBK\IBK_DRFN\ProjSrc\SrcDrfn\Chart\HWSTRATEGYANALYSIS\HWStrategyAnalysis.cpp

; 242  : 	InData.m_nID = iTradingID;

  00068	8b 45 08	 mov	 eax, DWORD PTR _iTradingID$[ebp]

; 243  : 	InData.m_Rect = CRect(0,0,300,400);

  0006b	0f 28 05 00 00
	00 00		 movaps	 xmm0, XMMWORD PTR __xmm@000001900000012c0000000000000000
  00072	89 85 b4 fe ff
	ff		 mov	 DWORD PTR _InData$[ebp+24], eax

; 244  : 
; 245  : 	hr = fnLoad(&InData, &OutData);

  00078	8d 45 e8	 lea	 eax, DWORD PTR _OutData$[ebp]
  0007b	50		 push	 eax
  0007c	8d 85 9c fe ff
	ff		 lea	 eax, DWORD PTR _InData$[ebp]
  00082	50		 push	 eax
  00083	0f 11 85 a4 fe
	ff ff		 movups	 XMMWORD PTR _InData$[ebp+8], xmm0
  0008a	e8 00 00 00 00	 call	 ?fnLoad@@YGJPAUSTODCREATEINFO_IN@@PAUSTODCREATEINFO_OUT@@@Z ; fnLoad

; 246  : 	CWnd* pWnd = (CWnd*)InData.m_pInitOut->m_pDllKey;
; 247  : 	return pWnd;

  0008f	8b 45 f8	 mov	 eax, DWORD PTR _InitOut$[ebp]

; 248  : }

  00092	8b e5		 mov	 esp, ebp
  00094	5d		 pop	 ebp
  00095	c3		 ret	 0
_CREATE_TRADING ENDP
_TEXT	ENDS
; Function compile flags: /Ogtp
; File D:\git\src\IBK\IBK_DRFN\ProjSrc\SrcDrfn\Chart\HWSTRATEGYANALYSIS\HWStrategyAnalysis.cpp
; File C:\Program Files (x86)\Microsoft Visual Studio\2019\Community\VC\Tools\MSVC\14.29.30133\atlmfc\include\cstringt.h
; File D:\git\src\IBK\IBK_DRFN\ProjSrc\SrcDrfn\Chart\HWSTRATEGYANALYSIS\HWStrategyAnalysis.cpp
;	COMDAT ?fnFuncCall@@YGJPAXPBD1AAUtagVARIANT@@@Z
_TEXT	SEGMENT
__$EHRec$ = -12						; size = 12
_strFuncName$2 = 8					; size = 4
_dwDllKey$ = 8						; size = 4
_szFuncName$ = 12					; size = 4
_szParam$ = 16						; size = 4
_result$ = 20						; size = 4
?fnFuncCall@@YGJPAXPBD1AAUtagVARIANT@@@Z PROC		; fnFuncCall, COMDAT

; 208  : {

  00000	55		 push	 ebp
  00001	8b ec		 mov	 ebp, esp
  00003	6a ff		 push	 -1
  00005	68 00 00 00 00	 push	 __ehhandler$?fnFuncCall@@YGJPAXPBD1AAUtagVARIANT@@@Z
  0000a	64 a1 00 00 00
	00		 mov	 eax, DWORD PTR fs:0
  00010	50		 push	 eax
  00011	a1 00 00 00 00	 mov	 eax, DWORD PTR ___security_cookie
  00016	33 c5		 xor	 eax, ebp
  00018	50		 push	 eax
  00019	8d 45 f4	 lea	 eax, DWORD PTR __$EHRec$[ebp]
  0001c	64 a3 00 00 00
	00		 mov	 DWORD PTR fs:0, eax

; 209  : 	CDlgAnalysis* pDlgAnalysis = (CDlgAnalysis*)dwDllKey;
; 210  : 	if(pDlgAnalysis)

  00022	83 7d 08 00	 cmp	 DWORD PTR _dwDllKey$[ebp], 0
  00026	74 33		 je	 SHORT $LN8@fnFuncCall

; 211  : 	{
; 212  : 		CString strFuncName;

  00028	8d 4d 08	 lea	 ecx, DWORD PTR _strFuncName$2[ebp]
  0002b	ff 15 00 00 00
	00		 call	 DWORD PTR __imp_??0?$CStringT@DV?$StrTraitMFC_DLL@DV?$ChTraitsCRT@D@ATL@@@@@ATL@@QAE@XZ

; 213  : 		strFuncName = szFuncName;

  00031	ff 75 0c	 push	 DWORD PTR _szFuncName$[ebp]
  00034	8d 4d 08	 lea	 ecx, DWORD PTR _strFuncName$2[ebp]
  00037	c7 45 fc 00 00
	00 00		 mov	 DWORD PTR __$EHRec$[ebp+8], 0
  0003e	ff 15 00 00 00
	00		 call	 DWORD PTR __imp_??4?$CStringT@DV?$StrTraitMFC_DLL@DV?$ChTraitsCRT@D@ATL@@@@@ATL@@QAEAAV01@PBD@Z
; File C:\Program Files (x86)\Microsoft Visual Studio\2019\Community\VC\Tools\MSVC\14.29.30133\atlmfc\include\cstringt.h

; 2486 : 		return(str1.Compare(psz2) == 0);

  00044	68 00 00 00 00	 push	 OFFSET ??_C@_0N@HJAMCNAE@SetFrameInfo@
  00049	8d 4d 08	 lea	 ecx, DWORD PTR _strFuncName$2[ebp]
  0004c	ff 15 00 00 00
	00		 call	 DWORD PTR __imp_?Compare@?$CStringT@DV?$StrTraitMFC_DLL@DV?$ChTraitsCRT@D@ATL@@@@@ATL@@QBEHPBD@Z
; File D:\git\src\IBK\IBK_DRFN\ProjSrc\SrcDrfn\Chart\HWSTRATEGYANALYSIS\HWStrategyAnalysis.cpp

; 218  : 	}

  00052	8d 4d 08	 lea	 ecx, DWORD PTR _strFuncName$2[ebp]
  00055	ff 15 00 00 00
	00		 call	 DWORD PTR __imp_??1?$CStringT@DV?$StrTraitMFC_DLL@DV?$ChTraitsCRT@D@ATL@@@@@ATL@@QAE@XZ
$LN8@fnFuncCall:

; 219  : 	
; 220  : 	return S_OK;
; 221  : 
; 222  : }

  0005b	33 c0		 xor	 eax, eax
  0005d	8b 4d f4	 mov	 ecx, DWORD PTR __$EHRec$[ebp]
  00060	64 89 0d 00 00
	00 00		 mov	 DWORD PTR fs:0, ecx
  00067	59		 pop	 ecx
  00068	8b e5		 mov	 esp, ebp
  0006a	5d		 pop	 ebp
  0006b	c2 10 00	 ret	 16			; 00000010H
_TEXT	ENDS
;	COMDAT text$x
text$x	SEGMENT
__unwindfunclet$?fnFuncCall@@YGJPAXPBD1AAUtagVARIANT@@@Z$0:
  00000	8d 4d 08	 lea	 ecx, DWORD PTR _strFuncName$2[ebp]
  00003	ff 25 00 00 00
	00		 jmp	 DWORD PTR __imp_??1?$CStringT@DV?$StrTraitMFC_DLL@DV?$ChTraitsCRT@D@ATL@@@@@ATL@@QAE@XZ
  00009	cc		 int	 3
  0000a	cc		 int	 3
  0000b	cc		 int	 3
  0000c	cc		 int	 3
  0000d	cc		 int	 3
__ehhandler$?fnFuncCall@@YGJPAXPBD1AAUtagVARIANT@@@Z:
  0000e	90		 npad	 1
  0000f	90		 npad	 1
  00010	8b 54 24 08	 mov	 edx, DWORD PTR [esp+8]
  00014	8d 42 0c	 lea	 eax, DWORD PTR [edx+12]
  00017	8b 4a fc	 mov	 ecx, DWORD PTR [edx-4]
  0001a	33 c8		 xor	 ecx, eax
  0001c	e8 00 00 00 00	 call	 @__security_check_cookie@4
  00021	b8 00 00 00 00	 mov	 eax, OFFSET __ehfuncinfo$?fnFuncCall@@YGJPAXPBD1AAUtagVARIANT@@@Z
  00026	e9 00 00 00 00	 jmp	 ___CxxFrameHandler3
text$x	ENDS
?fnFuncCall@@YGJPAXPBD1AAUtagVARIANT@@@Z ENDP		; fnFuncCall
; Function compile flags: /Ogtp
; File D:\git\src\IBK\IBK_DRFN\ProjSrc\SrcDrfn\Chart\HWSTRATEGYANALYSIS\HWStrategyAnalysis.cpp
;	COMDAT ?fnUnLoad@@YGJPAX@Z
_TEXT	SEGMENT
_dwDllKey$ = 8						; size = 4
?fnUnLoad@@YGJPAX@Z PROC				; fnUnLoad, COMDAT

; 195  : {

  00000	55		 push	 ebp
  00001	8b ec		 mov	 ebp, esp
  00003	56		 push	 esi

; 196  : 	CDlgAnalysis* pDlgAnalysis = (CDlgAnalysis*)dwDllKey;
; 197  : 	if(pDlgAnalysis)

  00004	8b 75 08	 mov	 esi, DWORD PTR _dwDllKey$[ebp]
  00007	85 f6		 test	 esi, esi
  00009	74 10		 je	 SHORT $LN6@fnUnLoad

; 198  : 	{
; 199  : 		pDlgAnalysis->DestroyWindow();

  0000b	8b 06		 mov	 eax, DWORD PTR [esi]
  0000d	8b ce		 mov	 ecx, esi
  0000f	ff 50 68	 call	 DWORD PTR [eax+104]

; 200  : 		
; 201  : 		delete pDlgAnalysis;

  00012	8b 06		 mov	 eax, DWORD PTR [esi]
  00014	8b ce		 mov	 ecx, esi
  00016	6a 01		 push	 1
  00018	ff 50 04	 call	 DWORD PTR [eax+4]
$LN6@fnUnLoad:

; 202  : 		pDlgAnalysis = NULL;
; 203  : 	}
; 204  : 	return S_OK;
; 205  : }

  0001b	33 c0		 xor	 eax, eax
  0001d	5e		 pop	 esi
  0001e	5d		 pop	 ebp
  0001f	c2 04 00	 ret	 4
?fnUnLoad@@YGJPAX@Z ENDP				; fnUnLoad
_TEXT	ENDS
; Function compile flags: /Ogtp
; File D:\git\src\IBK\IBK_DRFN\ProjSrc\SrcDrfn\Chart\HWSTRATEGYANALYSIS\HWStrategyAnalysis.cpp
; File C:\Program Files (x86)\Microsoft Visual Studio\2019\Community\VC\Tools\MSVC\14.29.30133\atlmfc\include\afxwin1.inl
; File D:\git\src\IBK\IBK_DRFN\ProjSrc\SrcDrfn\Chart\HWSTRATEGYANALYSIS\HWStrategyAnalysis.cpp
; File C:\Program Files (x86)\Microsoft Visual Studio\2019\Community\VC\Tools\MSVC\14.29.30133\atlmfc\include\afxwin1.inl
; File D:\git\src\IBK\IBK_DRFN\ProjSrc\SrcDrfn\Chart\HWSTRATEGYANALYSIS\HWStrategyAnalysis.cpp
; File C:\Program Files (x86)\Microsoft Visual Studio\2019\Community\VC\Tools\MSVC\14.29.30133\atlmfc\include\afxwin1.inl
; File D:\git\src\IBK\IBK_DRFN\ProjSrc\SrcDrfn\Chart\HWSTRATEGYANALYSIS\HWStrategyAnalysis.cpp
; File C:\Program Files (x86)\Microsoft Visual Studio\2019\Community\VC\Tools\MSVC\14.29.30133\atlmfc\include\afxwin1.inl
; File D:\git\src\IBK\IBK_DRFN\ProjSrc\SrcDrfn\Chart\HWSTRATEGYANALYSIS\HWStrategyAnalysis.cpp
;	COMDAT ?fnLoad@@YGJPAUSTODCREATEINFO_IN@@PAUSTODCREATEINFO_OUT@@@Z
_TEXT	SEGMENT
_hInst$1$ = -4						; size = 4
_pIn$ = 8						; size = 4
_pOut$ = 12						; size = 4
?fnLoad@@YGJPAUSTODCREATEINFO_IN@@PAUSTODCREATEINFO_OUT@@@Z PROC ; fnLoad, COMDAT

; 141  : {

  00000	55		 push	 ebp
  00001	8b ec		 mov	 ebp, esp
  00003	51		 push	 ecx
  00004	53		 push	 ebx
  00005	56		 push	 esi
  00006	57		 push	 edi
; File C:\Program Files (x86)\Microsoft Visual Studio\2019\Community\VC\Tools\MSVC\14.29.30133\atlmfc\include\afxwin1.inl

; 25   : 		return afxCurrentResourceHandle; }

  00007	e8 00 00 00 00	 call	 ?AfxGetModuleState@@YGPAVAFX_MODULE_STATE@@XZ ; AfxGetModuleState
; File D:\git\src\IBK\IBK_DRFN\ProjSrc\SrcDrfn\Chart\HWSTRATEGYANALYSIS\HWStrategyAnalysis.cpp

; 143  : 	AfxSetResourceHandle(HWStrategyAnalysisDLL.hResource);

  0000c	8b 35 08 00 00
	00		 mov	 esi, DWORD PTR ?HWStrategyAnalysisDLL@@3UAFX_EXTENSION_MODULE@@A+8
; File C:\Program Files (x86)\Microsoft Visual Studio\2019\Community\VC\Tools\MSVC\14.29.30133\atlmfc\include\afxwin1.inl

; 25   : 		return afxCurrentResourceHandle; }

  00012	8b 40 0c	 mov	 eax, DWORD PTR [eax+12]
  00015	89 45 fc	 mov	 DWORD PTR _hInst$1$[ebp], eax

; 27   : 	{ ASSERT(hInstResource != NULL); afxCurrentResourceHandle = hInstResource; }

  00018	e8 00 00 00 00	 call	 ?AfxGetModuleState@@YGPAVAFX_MODULE_STATE@@XZ ; AfxGetModuleState
  0001d	89 70 0c	 mov	 DWORD PTR [eax+12], esi
; File D:\git\src\IBK\IBK_DRFN\ProjSrc\SrcDrfn\Chart\HWSTRATEGYANALYSIS\HWStrategyAnalysis.cpp

; 144  : 	AfxInitRichEdit();

  00020	e8 00 00 00 00	 call	 ?AfxInitRichEdit@@YGHXZ	; AfxInitRichEdit

; 145  : 	CDlgAnalysis* pDlgAnalysis = (CDlgAnalysis*)pIn->m_pInitOut->m_pDllKey;

  00025	8b 5d 08	 mov	 ebx, DWORD PTR _pIn$[ebp]
  00028	8b 03		 mov	 eax, DWORD PTR [ebx]
  0002a	8b 38		 mov	 edi, DWORD PTR [eax]

; 146  : 	if(pDlgAnalysis==NULL) return S_FALSE;

  0002c	85 ff		 test	 edi, edi
  0002e	75 0c		 jne	 SHORT $LN2@fnLoad
  00030	8d 47 01	 lea	 eax, DWORD PTR [edi+1]
  00033	5f		 pop	 edi

; 191  : }

  00034	5e		 pop	 esi
  00035	5b		 pop	 ebx
  00036	8b e5		 mov	 esp, ebp
  00038	5d		 pop	 ebp
  00039	c2 08 00	 ret	 8
$LN2@fnLoad:

; 147  : 	
; 148  : 	// >-------------------------------------------------------
; 149  : 	// 이 루틴에서 무엇인가 필요한 것을 생성하는 처리를 한다.
; 150  : 	// <-------------------------------------------------------
; 151  : 	if(pDlgAnalysis) 
; 152  : 	{
; 153  : //@유진추가
; 154  : 		// Root Path
; 155  : 		pDlgAnalysis->m_strRootPath = (LPCSTR)AfxGetPctrData(10);	//참고문서[정리_PC데이터매니저.xls]

  0003c	6a 0a		 push	 10			; 0000000aH
  0003e	e8 00 00 00 00	 call	 ?AfxGetPctrData@@YGJH@Z	; AfxGetPctrData
  00043	50		 push	 eax
  00044	8d 8f b4 00 00
	00		 lea	 ecx, DWORD PTR [edi+180]
  0004a	ff 15 00 00 00
	00		 call	 DWORD PTR __imp_??4?$CStringT@DV?$StrTraitMFC_DLL@DV?$ChTraitsCRT@D@ATL@@@@@ATL@@QAEAAV01@PBD@Z

; 156  : 		
; 157  : 		// Data Path
; 158  : 		pDlgAnalysis->m_strDataDir = (LPCSTR)AfxGetPctrData(12);	//참고문서[정리_PC데이터매니저.xls]

  00050	6a 0c		 push	 12			; 0000000cH
  00052	e8 00 00 00 00	 call	 ?AfxGetPctrData@@YGJH@Z	; AfxGetPctrData
  00057	50		 push	 eax
  00058	8d 8f bc 00 00
	00		 lea	 ecx, DWORD PTR [edi+188]
  0005e	ff 15 00 00 00
	00		 call	 DWORD PTR __imp_??4?$CStringT@DV?$StrTraitMFC_DLL@DV?$ChTraitsCRT@D@ATL@@@@@ATL@@QAEAAV01@PBD@Z

; 159  : //@유진추가
; 160  : //@유진삭제
; 161  : //		// Root Path
; 162  : //		GET_ROOT_DIR(pDlgAnalysis->m_strRootPath);
; 163  : //		if(pDlgAnalysis->m_strRootPath.GetLength()==0)
; 164  : //		{
; 165  : //			AfxMessageBox("RootPath를 얻을 수 없습니다.");
; 166  : //		}
; 167  : //		// Data Path
; 168  : //		
; 169  : //		GET_DATA_DIR(pDlgAnalysis->m_strDataDir);
; 170  : //		if(pDlgAnalysis->m_strDataDir.GetLength()==0)
; 171  : //		{
; 172  : //			AfxMessageBox("DataPath를 얻을 수 없습니다.");
; 173  : //		}
; 174  : //
; 175  : //		// User Directory 경로 : KHD : 경로 찾아 오는 부분 ..
; 176  : //		pDlgAnalysis->m_strUserDir = pDlgAnalysis->m_strRootPath + "\\User\\" + pDlgAnalysis->m_strUserID;
; 177  : //@유진삭제
; 178  : 
; 179  : 		// User Directory 경로 
; 180  : 		IMainInfoManager* pMng = (IMainInfoManager*)AfxGetPctrInterface(UUID_IMainInfoManager);

  00064	6a 15		 push	 21			; 00000015H
  00066	e8 00 00 00 00	 call	 ?AfxGetPctrInterface@@YGJH@Z ; AfxGetPctrInterface

; 181  : 		pDlgAnalysis->m_strUserDir = pMng->GetEncUserDir();

  0006b	6a 00		 push	 0
  0006d	50		 push	 eax
  0006e	8b 08		 mov	 ecx, DWORD PTR [eax]
  00070	ff 51 18	 call	 DWORD PTR [ecx+24]
  00073	50		 push	 eax
  00074	8d 8f b8 00 00
	00		 lea	 ecx, DWORD PTR [edi+184]
  0007a	ff 15 00 00 00
	00		 call	 DWORD PTR __imp_??4?$CStringT@DV?$StrTraitMFC_DLL@DV?$ChTraitsCRT@D@ATL@@@@@ATL@@QAEAAV01@PBD@Z

; 182  : 
; 183  : 		// 다이아로그 생성
; 184  : 		pDlgAnalysis->Create(CDlgAnalysis::IDD, CWnd::FromHandle(pIn->m_hParent));

  00080	ff 73 04	 push	 DWORD PTR [ebx+4]
  00083	8b 37		 mov	 esi, DWORD PTR [edi]
  00085	e8 00 00 00 00	 call	 ?FromHandle@CWnd@@SGPAV1@PAUHWND__@@@Z ; CWnd::FromHandle
  0008a	50		 push	 eax
  0008b	68 b8 0b 00 00	 push	 3000			; 00000bb8H
  00090	8b cf		 mov	 ecx, edi
  00092	ff 96 6c 01 00
	00		 call	 DWORD PTR [esi+364]

; 185  : 		pDlgAnalysis->ShowWindow(SW_SHOW);

  00098	6a 05		 push	 5
  0009a	8b cf		 mov	 ecx, edi
  0009c	e8 00 00 00 00	 call	 ?ShowWindow@CWnd@@QAEHH@Z ; CWnd::ShowWindow
; File C:\Program Files (x86)\Microsoft Visual Studio\2019\Community\VC\Tools\MSVC\14.29.30133\atlmfc\include\afxwin1.inl

; 27   : 	{ ASSERT(hInstResource != NULL); afxCurrentResourceHandle = hInstResource; }

  000a1	e8 00 00 00 00	 call	 ?AfxGetModuleState@@YGPAVAFX_MODULE_STATE@@XZ ; AfxGetModuleState
  000a6	8b 4d fc	 mov	 ecx, DWORD PTR _hInst$1$[ebp]
  000a9	5f		 pop	 edi
; File D:\git\src\IBK\IBK_DRFN\ProjSrc\SrcDrfn\Chart\HWSTRATEGYANALYSIS\HWStrategyAnalysis.cpp

; 191  : }

  000aa	5e		 pop	 esi
; File C:\Program Files (x86)\Microsoft Visual Studio\2019\Community\VC\Tools\MSVC\14.29.30133\atlmfc\include\afxwin1.inl

; 27   : 	{ ASSERT(hInstResource != NULL); afxCurrentResourceHandle = hInstResource; }

  000ab	89 48 0c	 mov	 DWORD PTR [eax+12], ecx
; File D:\git\src\IBK\IBK_DRFN\ProjSrc\SrcDrfn\Chart\HWSTRATEGYANALYSIS\HWStrategyAnalysis.cpp

; 190  : 	return S_OK;

  000ae	33 c0		 xor	 eax, eax

; 191  : }

  000b0	5b		 pop	 ebx
  000b1	8b e5		 mov	 esp, ebp
  000b3	5d		 pop	 ebp
  000b4	c2 08 00	 ret	 8
?fnLoad@@YGJPAUSTODCREATEINFO_IN@@PAUSTODCREATEINFO_OUT@@@Z ENDP ; fnLoad
_TEXT	ENDS
; Function compile flags: /Ogtp
; File D:\git\src\IBK\IBK_DRFN\ProjSrc\SrcDrfn\Chart\HWSTRATEGYANALYSIS\HWStrategyAnalysis.cpp
; File C:\Program Files (x86)\Microsoft Visual Studio\2019\Community\VC\Tools\MSVC\14.29.30133\atlmfc\include\afx.inl
; File D:\git\src\IBK\IBK_DRFN\ProjSrc\SrcDrfn\Chart\HWSTRATEGYANALYSIS\HWStrategyAnalysis.cpp
; File C:\Program Files (x86)\Microsoft Visual Studio\2019\Community\VC\Tools\MSVC\14.29.30133\atlmfc\include\afx.inl
; File D:\git\src\IBK\IBK_DRFN\ProjSrc\SrcDrfn\Chart\HWSTRATEGYANALYSIS\HWStrategyAnalysis.cpp
; File C:\Program Files (x86)\Microsoft Visual Studio\2019\Community\VC\Tools\MSVC\14.29.30133\atlmfc\include\cstringt.h
; File D:\git\src\IBK\IBK_DRFN\ProjSrc\SrcDrfn\Chart\HWSTRATEGYANALYSIS\HWStrategyAnalysis.cpp
; File C:\Program Files (x86)\Microsoft Visual Studio\2019\Community\VC\Tools\MSVC\14.29.30133\atlmfc\include\cstringt.h
; File C:\Program Files (x86)\Microsoft Visual Studio\2019\Community\VC\Tools\MSVC\14.29.30133\atlmfc\include\atlsimpstr.h
; File C:\Program Files (x86)\Microsoft Visual Studio\2019\Community\VC\Tools\MSVC\14.29.30133\atlmfc\include\cstringt.h
; File D:\git\src\IBK\IBK_DRFN\ProjSrc\SrcDrfn\Chart\HWSTRATEGYANALYSIS\HWStrategyAnalysis.cpp
; File C:\Program Files (x86)\Microsoft Visual Studio\2019\Community\VC\Tools\MSVC\14.29.30133\atlmfc\include\cstringt.h
; File C:\Program Files (x86)\Microsoft Visual Studio\2019\Community\VC\Tools\MSVC\14.29.30133\atlmfc\include\atlsimpstr.h
; File C:\Program Files (x86)\Microsoft Visual Studio\2019\Community\VC\Tools\MSVC\14.29.30133\atlmfc\include\cstringt.h
; File D:\git\src\IBK\IBK_DRFN\ProjSrc\SrcDrfn\Chart\HWSTRATEGYANALYSIS\HWStrategyAnalysis.cpp
; File C:\Program Files (x86)\Microsoft Visual Studio\2019\Community\VC\Tools\MSVC\14.29.30133\atlmfc\include\cstringt.h
; File C:\Program Files (x86)\Microsoft Visual Studio\2019\Community\VC\Tools\MSVC\14.29.30133\atlmfc\include\atlsimpstr.h
; File C:\Program Files (x86)\Microsoft Visual Studio\2019\Community\VC\Tools\MSVC\14.29.30133\atlmfc\include\cstringt.h
; File D:\git\src\IBK\IBK_DRFN\ProjSrc\SrcDrfn\Chart\HWSTRATEGYANALYSIS\HWStrategyAnalysis.cpp
; File C:\Program Files (x86)\Microsoft Visual Studio\2019\Community\VC\Tools\MSVC\14.29.30133\atlmfc\include\cstringt.h
; File D:\git\src\IBK\IBK_DRFN\ProjSrc\SrcDrfn\Chart\HWSTRATEGYANALYSIS\HWStrategyAnalysis.cpp
; File C:\Program Files (x86)\Microsoft Visual Studio\2019\Community\VC\Tools\MSVC\14.29.30133\atlmfc\include\cstringt.h
; File C:\Program Files (x86)\Microsoft Visual Studio\2019\Community\VC\Tools\MSVC\14.29.30133\atlmfc\include\atlsimpstr.h
; File C:\Program Files (x86)\Microsoft Visual Studio\2019\Community\VC\Tools\MSVC\14.29.30133\atlmfc\include\cstringt.h
; File D:\git\src\IBK\IBK_DRFN\ProjSrc\SrcDrfn\Chart\HWSTRATEGYANALYSIS\HWStrategyAnalysis.cpp
; File C:\Program Files (x86)\Microsoft Visual Studio\2019\Community\VC\Tools\MSVC\14.29.30133\atlmfc\include\cstringt.h
; File D:\git\src\IBK\IBK_DRFN\ProjSrc\SrcDrfn\Chart\HWSTRATEGYANALYSIS\HWStrategyAnalysis.cpp
; File C:\Program Files (x86)\Microsoft Visual Studio\2019\Community\VC\Tools\MSVC\14.29.30133\atlmfc\include\cstringt.h
; File D:\git\src\IBK\IBK_DRFN\ProjSrc\SrcDrfn\Chart\HWSTRATEGYANALYSIS\HWStrategyAnalysis.cpp
;	COMDAT ?fnInit@@YGJPAUSTODINIT_IN@@PAUSTODINIT_OUT@@PAX@Z
_TEXT	SEGMENT
_Info$2 = -48						; size = 24
$T3 = -24						; size = 4
$T4 = -24						; size = 4
$T5 = -24						; size = 4
$T6 = -20						; size = 4
$T7 = -16						; size = 4
__$EHRec$ = -12						; size = 12
_pIn$ = 8						; size = 4
_pOut$ = 12						; size = 4
$T8 = 16						; size = 4
$T9 = 16						; size = 4
$T10 = 16						; size = 4
$T11 = 16						; size = 4
_pInterface$ = 16					; size = 4
?fnInit@@YGJPAUSTODINIT_IN@@PAUSTODINIT_OUT@@PAX@Z PROC	; fnInit, COMDAT

; 73   : {

  00000	55		 push	 ebp
  00001	8b ec		 mov	 ebp, esp
  00003	6a ff		 push	 -1
  00005	68 00 00 00 00	 push	 __ehhandler$?fnInit@@YGJPAUSTODINIT_IN@@PAUSTODINIT_OUT@@PAX@Z
  0000a	64 a1 00 00 00
	00		 mov	 eax, DWORD PTR fs:0
  00010	50		 push	 eax
  00011	83 ec 24	 sub	 esp, 36			; 00000024H
  00014	53		 push	 ebx
  00015	56		 push	 esi
  00016	57		 push	 edi
  00017	a1 00 00 00 00	 mov	 eax, DWORD PTR ___security_cookie
  0001c	33 c5		 xor	 eax, ebp
  0001e	50		 push	 eax
  0001f	8d 45 f4	 lea	 eax, DWORD PTR __$EHRec$[ebp]
  00022	64 a3 00 00 00
	00		 mov	 DWORD PTR fs:0, eax
; File C:\Program Files (x86)\Microsoft Visual Studio\2019\Community\VC\Tools\MSVC\14.29.30133\atlmfc\include\afx.inl

; 116  : 	{ return ::operator new(nSize); }

  00028	68 f0 05 00 00	 push	 1520			; 000005f0H
; File D:\git\src\IBK\IBK_DRFN\ProjSrc\SrcDrfn\Chart\HWSTRATEGYANALYSIS\HWStrategyAnalysis.cpp

; 73   : {

  0002d	c7 45 ec 00 00
	00 00		 mov	 DWORD PTR $T6[ebp], 0
; File C:\Program Files (x86)\Microsoft Visual Studio\2019\Community\VC\Tools\MSVC\14.29.30133\atlmfc\include\afx.inl

; 116  : 	{ return ::operator new(nSize); }

  00034	e8 00 00 00 00	 call	 ??2@YAPAXI@Z		; operator new
  00039	83 c4 04	 add	 esp, 4
; File D:\git\src\IBK\IBK_DRFN\ProjSrc\SrcDrfn\Chart\HWSTRATEGYANALYSIS\HWStrategyAnalysis.cpp

; 79   : 	CDlgAnalysis* pDlgAnalysis = new CDlgAnalysis;

  0003c	89 45 e8	 mov	 DWORD PTR $T5[ebp], eax
  0003f	c7 45 fc 00 00
	00 00		 mov	 DWORD PTR __$EHRec$[ebp+8], 0
  00046	85 c0		 test	 eax, eax
  00048	74 0d		 je	 SHORT $LN6@fnInit
  0004a	6a 00		 push	 0
  0004c	8b c8		 mov	 ecx, eax
  0004e	e8 00 00 00 00	 call	 ??0CDlgAnalysis@@QAE@PAVCWnd@@@Z ; CDlgAnalysis::CDlgAnalysis
  00053	8b d8		 mov	 ebx, eax
  00055	eb 02		 jmp	 SHORT $LN7@fnInit
$LN6@fnInit:
  00057	33 db		 xor	 ebx, ebx
$LN7@fnInit:

; 80   : 	pOut->m_pDllKey = pDlgAnalysis;

  00059	8b 45 0c	 mov	 eax, DWORD PTR _pOut$[ebp]

; 81   : 
; 82   : 	// 인터페이스를 이용한 예제
; 83   : //#ifdef _DEBUG
; 84   : 	if(pInterface)

  0005c	8b 4d 10	 mov	 ecx, DWORD PTR _pInterface$[ebp]
  0005f	c7 45 fc ff ff
	ff ff		 mov	 DWORD PTR __$EHRec$[ebp+8], -1
  00066	89 18		 mov	 DWORD PTR [eax], ebx
  00068	85 c9		 test	 ecx, ecx
  0006a	0f 84 bb 02 00
	00		 je	 $LN87@fnInit

; 85   : 	{
; 86   : 		ISTInterface* pSTInterface = (ISTInterface*)pInterface;
; 87   : 		pDlgAnalysis->m_pChartInterface = (long)pInterface;// KHD : Interface 저장

  00070	89 8b 10 01 00
	00		 mov	 DWORD PTR [ebx+272], ecx

; 88   : 		ISTAnalysisInput* pMng = (ISTAnalysisInput*)pSTInterface->GetInterface(UUSTID_ISTAnalysisInput);

  00076	8b 01		 mov	 eax, DWORD PTR [ecx]
  00078	6a 00		 push	 0
  0007a	51		 push	 ecx
  0007b	ff 10		 call	 DWORD PTR [eax]
  0007d	8b f8		 mov	 edi, eax

; 89   : 		//입력 정보 저장 : KHD 2006.07.27
; 90   : 		pDlgAnalysis->m_pCtlList		=(CXListCtrl*)pMng->GetControl(1);//리스트 컨트롤 포인터 얻어오기.

  0007f	6a 01		 push	 1
  00081	57		 push	 edi
  00082	8b 0f		 mov	 ecx, DWORD PTR [edi]
  00084	ff 51 40	 call	 DWORD PTR [ecx+64]

; 91   : 		pMng->SetUserData(FALSE, NULL);

  00087	6a 00		 push	 0
  00089	89 83 14 01 00
	00		 mov	 DWORD PTR [ebx+276], eax
  0008f	8b 0f		 mov	 ecx, DWORD PTR [edi]
  00091	6a 00		 push	 0
  00093	57		 push	 edi
  00094	ff 11		 call	 DWORD PTR [ecx]

; 92   : 		pDlgAnalysis->m_bGraphDivide = FALSE;//분할 그래프만 남길지.. 성과분석을 띄울지..

  00096	c7 83 30 01 00
	00 00 00 00 00	 mov	 DWORD PTR [ebx+304], 0

; 93   : 		pDlgAnalysis->m_nCodeType		=pMng->GetCodeType();

  000a0	8b 07		 mov	 eax, DWORD PTR [edi]
  000a2	57		 push	 edi
  000a3	ff 50 18	 call	 DWORD PTR [eax+24]
  000a6	89 83 e0 00 00
	00		 mov	 DWORD PTR [ebx+224], eax

; 94   : 		pDlgAnalysis->m_stCode			=pMng->GetCode();

  000ac	8d 4d 10	 lea	 ecx, DWORD PTR $T11[ebp]
  000af	8b 07		 mov	 eax, DWORD PTR [edi]
  000b1	51		 push	 ecx
  000b2	57		 push	 edi
  000b3	ff 50 10	 call	 DWORD PTR [eax+16]
  000b6	50		 push	 eax
  000b7	8d 8b e4 00 00
	00		 lea	 ecx, DWORD PTR [ebx+228]
  000bd	c7 45 fc 01 00
	00 00		 mov	 DWORD PTR __$EHRec$[ebp+8], 1
  000c4	ff 15 00 00 00
	00		 call	 DWORD PTR __imp_??4?$CStringT@DV?$StrTraitMFC_DLL@DV?$ChTraitsCRT@D@ATL@@@@@ATL@@QAEAAV01@ABV01@@Z
  000ca	8d 4d 10	 lea	 ecx, DWORD PTR $T11[ebp]
  000cd	c7 45 fc ff ff
	ff ff		 mov	 DWORD PTR __$EHRec$[ebp+8], -1
  000d4	ff 15 00 00 00
	00		 call	 DWORD PTR __imp_??1?$CStringT@DV?$StrTraitMFC_DLL@DV?$ChTraitsCRT@D@ATL@@@@@ATL@@QAE@XZ

; 95   : 		pDlgAnalysis->m_stCodeName		=pMng->GetCodeName();

  000da	8b 07		 mov	 eax, DWORD PTR [edi]
  000dc	8d 4d 10	 lea	 ecx, DWORD PTR $T10[ebp]
  000df	51		 push	 ecx
  000e0	57		 push	 edi
  000e1	ff 50 14	 call	 DWORD PTR [eax+20]
  000e4	8d 8b e8 00 00
	00		 lea	 ecx, DWORD PTR [ebx+232]
  000ea	c7 45 fc 02 00
	00 00		 mov	 DWORD PTR __$EHRec$[ebp+8], 2
  000f1	50		 push	 eax
  000f2	ff 15 00 00 00
	00		 call	 DWORD PTR __imp_??4?$CStringT@DV?$StrTraitMFC_DLL@DV?$ChTraitsCRT@D@ATL@@@@@ATL@@QAEAAV01@ABV01@@Z
  000f8	8d 4d 10	 lea	 ecx, DWORD PTR $T10[ebp]
  000fb	c7 45 fc ff ff
	ff ff		 mov	 DWORD PTR __$EHRec$[ebp+8], -1
  00102	ff 15 00 00 00
	00		 call	 DWORD PTR __imp_??1?$CStringT@DV?$StrTraitMFC_DLL@DV?$ChTraitsCRT@D@ATL@@@@@ATL@@QAE@XZ

; 96   : 		pDlgAnalysis->m_nCount			=pMng->GetCount();

  00108	8b 07		 mov	 eax, DWORD PTR [edi]
  0010a	57		 push	 edi
  0010b	ff 50 20	 call	 DWORD PTR [eax+32]
  0010e	89 83 fc 00 00
	00		 mov	 DWORD PTR [ebx+252], eax

; 97   : 		pDlgAnalysis->m_nDivideCnt		=pMng->GetDivideCnt();

  00114	8b 07		 mov	 eax, DWORD PTR [edi]
  00116	57		 push	 edi
  00117	ff 50 28	 call	 DWORD PTR [eax+40]
  0011a	89 83 00 01 00
	00		 mov	 DWORD PTR [ebx+256], eax

; 98   : 		pDlgAnalysis->m_DivideState		=pMng->GetDivideState();

  00120	8b 07		 mov	 eax, DWORD PTR [edi]
  00122	57		 push	 edi
  00123	ff 50 2c	 call	 DWORD PTR [eax+44]
  00126	89 83 04 01 00
	00		 mov	 DWORD PTR [ebx+260], eax

; 99   : 		pMng->GetUnitPos();

  0012c	8b 07		 mov	 eax, DWORD PTR [edi]
  0012e	57		 push	 edi
  0012f	ff 50 30	 call	 DWORD PTR [eax+48]

; 100  : 		pDlgAnalysis->m_dfDivideRate	=pMng->GetDeivideRate();

  00132	8b 07		 mov	 eax, DWORD PTR [edi]
  00134	57		 push	 edi
  00135	8b 40 34	 mov	 eax, DWORD PTR [eax+52]
  00138	ff d0		 call	 eax
  0013a	dd 9b 08 01 00
	00		 fstp	 QWORD PTR [ebx+264]

; 101  : 		pDlgAnalysis->m_pChartItem      = (ISysTabExChartItem*)pMng->GetControl(0);//Chart컨트롤을 가져온다.

  00140	8b 07		 mov	 eax, DWORD PTR [edi]
  00142	6a 00		 push	 0
  00144	57		 push	 edi
  00145	ff 50 40	 call	 DWORD PTR [eax+64]
  00148	89 83 34 01 00
	00		 mov	 DWORD PTR [ebx+308], eax

; 102  : 		pDlgAnalysis->m_hTabChartEx		= pMng->GetControl(2);//ExTab을 가져온다. : KHD

  0014e	8b 07		 mov	 eax, DWORD PTR [edi]
  00150	6a 02		 push	 2
  00152	57		 push	 edi
  00153	ff 50 40	 call	 DWORD PTR [eax+64]
  00156	8d 4d d0	 lea	 ecx, DWORD PTR _Info$2[ebp]
  00159	89 83 38 01 00
	00		 mov	 DWORD PTR [ebx+312], eax

; 103  : 		pDlgAnalysis->m_nStartType = 0;//성과분석실행

  0015f	c7 83 c0 00 00
	00 00 00 00 00	 mov	 DWORD PTR [ebx+192], 0
  00169	ff 15 00 00 00
	00		 call	 DWORD PTR __imp_??0?$CStringT@DV?$StrTraitMFC_DLL@DV?$ChTraitsCRT@D@ATL@@@@@ATL@@QAE@XZ
  0016f	8d 4d d4	 lea	 ecx, DWORD PTR _Info$2[ebp+4]

; 104  : 		STMNG_ITEMINFO Info;

  00172	ff 15 00 00 00
	00		 call	 DWORD PTR __imp_??0?$CStringT@DV?$StrTraitMFC_DLL@DV?$ChTraitsCRT@D@ATL@@@@@ATL@@QAE@XZ
  00178	8d 4d d8	 lea	 ecx, DWORD PTR _Info$2[ebp+8]
  0017b	ff 15 00 00 00
	00		 call	 DWORD PTR __imp_??0?$CStringT@DV?$StrTraitMFC_DLL@DV?$ChTraitsCRT@D@ATL@@@@@ATL@@QAE@XZ

; 105  : 		pMng->GetSTInfo(&Info);

  00181	8b 07		 mov	 eax, DWORD PTR [edi]
  00183	8d 4d d0	 lea	 ecx, DWORD PTR _Info$2[ebp]
  00186	51		 push	 ecx
  00187	57		 push	 edi
  00188	c7 45 fc 03 00
	00 00		 mov	 DWORD PTR __$EHRec$[ebp+8], 3
  0018f	ff 50 1c	 call	 DWORD PTR [eax+28]
; File C:\Program Files (x86)\Microsoft Visual Studio\2019\Community\VC\Tools\MSVC\14.29.30133\atlmfc\include\cstringt.h

; 2401 : 		CStringT strResult( str1.GetManager() );

  00192	8d 4d d8	 lea	 ecx, DWORD PTR _Info$2[ebp+8]
; File D:\git\src\IBK\IBK_DRFN\ProjSrc\SrcDrfn\Chart\HWSTRATEGYANALYSIS\HWStrategyAnalysis.cpp

; 106  : 		pDlgAnalysis->m_stSTPath		=Info.szSTPath +"\\"+ Info.szSTName + ".st";//전략ST파일 경로

  00195	c6 45 fc 04	 mov	 BYTE PTR __$EHRec$[ebp+8], 4
; File C:\Program Files (x86)\Microsoft Visual Studio\2019\Community\VC\Tools\MSVC\14.29.30133\atlmfc\include\cstringt.h

; 2401 : 		CStringT strResult( str1.GetManager() );

  00199	ff 15 00 00 00
	00		 call	 DWORD PTR __imp_?GetManager@?$CStringT@DV?$StrTraitMFC_DLL@DV?$ChTraitsCRT@D@ATL@@@@@ATL@@QBEPAUIAtlStringMgr@2@XZ
  0019f	50		 push	 eax
  001a0	8d 4d f0	 lea	 ecx, DWORD PTR $T7[ebp]
  001a3	ff 15 00 00 00
	00		 call	 DWORD PTR __imp_??0?$CStringT@DV?$StrTraitMFC_DLL@DV?$ChTraitsCRT@D@ATL@@@@@ATL@@QAE@PAUIAtlStringMgr@1@@Z
; File C:\Program Files (x86)\Microsoft Visual Studio\2019\Community\VC\Tools\MSVC\14.29.30133\atlmfc\include\atlsimpstr.h

; 519  : 		return( GetData()->nDataLength );

  001a9	8b 45 d8	 mov	 eax, DWORD PTR _Info$2[ebp+8]
; File C:\Program Files (x86)\Microsoft Visual Studio\2019\Community\VC\Tools\MSVC\14.29.30133\atlmfc\include\cstringt.h

; 2403 : 		CThisSimpleString::Concatenate( strResult, str1, str1.GetLength(), psz2, CThisSimpleString::StringLength( psz2 ) );

  001ac	6a 01		 push	 1
  001ae	68 00 00 00 00	 push	 OFFSET ??_C@_01KICIPPFI@?2@

; 2405 : 		return( strResult );

  001b3	c7 45 ec 01 00
	00 00		 mov	 DWORD PTR $T6[ebp], 1
  001ba	ff 70 f4	 push	 DWORD PTR [eax-12]
  001bd	50		 push	 eax
  001be	8d 45 f0	 lea	 eax, DWORD PTR $T7[ebp]
  001c1	50		 push	 eax
  001c2	ff 15 00 00 00
	00		 call	 DWORD PTR __imp_?Concatenate@?$CSimpleStringT@D$00@ATL@@KAXAAV12@PBDH1H@Z
  001c8	83 c4 14	 add	 esp, 20			; 00000014H

; 2390 : 		CStringT strResult( str1.GetManager() );

  001cb	8d 4d f0	 lea	 ecx, DWORD PTR $T7[ebp]
; File D:\git\src\IBK\IBK_DRFN\ProjSrc\SrcDrfn\Chart\HWSTRATEGYANALYSIS\HWStrategyAnalysis.cpp

; 106  : 		pDlgAnalysis->m_stSTPath		=Info.szSTPath +"\\"+ Info.szSTName + ".st";//전략ST파일 경로

  001ce	c6 45 fc 05	 mov	 BYTE PTR __$EHRec$[ebp+8], 5
; File C:\Program Files (x86)\Microsoft Visual Studio\2019\Community\VC\Tools\MSVC\14.29.30133\atlmfc\include\cstringt.h

; 2390 : 		CStringT strResult( str1.GetManager() );

  001d2	ff 15 00 00 00
	00		 call	 DWORD PTR __imp_?GetManager@?$CStringT@DV?$StrTraitMFC_DLL@DV?$ChTraitsCRT@D@ATL@@@@@ATL@@QBEPAUIAtlStringMgr@2@XZ
  001d8	50		 push	 eax
  001d9	8d 4d 10	 lea	 ecx, DWORD PTR $T9[ebp]
  001dc	ff 15 00 00 00
	00		 call	 DWORD PTR __imp_??0?$CStringT@DV?$StrTraitMFC_DLL@DV?$ChTraitsCRT@D@ATL@@@@@ATL@@QAE@PAUIAtlStringMgr@1@@Z
; File C:\Program Files (x86)\Microsoft Visual Studio\2019\Community\VC\Tools\MSVC\14.29.30133\atlmfc\include\atlsimpstr.h

; 519  : 		return( GetData()->nDataLength );

  001e2	8b 4d d4	 mov	 ecx, DWORD PTR _Info$2[ebp+4]
  001e5	8b 45 f0	 mov	 eax, DWORD PTR $T7[ebp]
; File C:\Program Files (x86)\Microsoft Visual Studio\2019\Community\VC\Tools\MSVC\14.29.30133\atlmfc\include\cstringt.h

; 2394 : 		return( strResult );

  001e8	c7 45 ec 03 00
	00 00		 mov	 DWORD PTR $T6[ebp], 3
  001ef	ff 71 f4	 push	 DWORD PTR [ecx-12]
  001f2	51		 push	 ecx
  001f3	ff 70 f4	 push	 DWORD PTR [eax-12]
  001f6	50		 push	 eax
  001f7	8d 45 10	 lea	 eax, DWORD PTR $T9[ebp]
  001fa	50		 push	 eax
  001fb	ff 15 00 00 00
	00		 call	 DWORD PTR __imp_?Concatenate@?$CSimpleStringT@D$00@ATL@@KAXAAV12@PBDH1H@Z
  00201	83 c4 14	 add	 esp, 20			; 00000014H

; 2401 : 		CStringT strResult( str1.GetManager() );

  00204	8d 4d 10	 lea	 ecx, DWORD PTR $T9[ebp]
; File D:\git\src\IBK\IBK_DRFN\ProjSrc\SrcDrfn\Chart\HWSTRATEGYANALYSIS\HWStrategyAnalysis.cpp

; 106  : 		pDlgAnalysis->m_stSTPath		=Info.szSTPath +"\\"+ Info.szSTName + ".st";//전략ST파일 경로

  00207	c6 45 fc 06	 mov	 BYTE PTR __$EHRec$[ebp+8], 6
; File C:\Program Files (x86)\Microsoft Visual Studio\2019\Community\VC\Tools\MSVC\14.29.30133\atlmfc\include\cstringt.h

; 2401 : 		CStringT strResult( str1.GetManager() );

  0020b	ff 15 00 00 00
	00		 call	 DWORD PTR __imp_?GetManager@?$CStringT@DV?$StrTraitMFC_DLL@DV?$ChTraitsCRT@D@ATL@@@@@ATL@@QBEPAUIAtlStringMgr@2@XZ
  00211	50		 push	 eax
  00212	8d 4d e8	 lea	 ecx, DWORD PTR $T4[ebp]
  00215	ff 15 00 00 00
	00		 call	 DWORD PTR __imp_??0?$CStringT@DV?$StrTraitMFC_DLL@DV?$ChTraitsCRT@D@ATL@@@@@ATL@@QAE@PAUIAtlStringMgr@1@@Z
; File C:\Program Files (x86)\Microsoft Visual Studio\2019\Community\VC\Tools\MSVC\14.29.30133\atlmfc\include\atlsimpstr.h

; 519  : 		return( GetData()->nDataLength );

  0021b	8b 45 10	 mov	 eax, DWORD PTR $T9[ebp]
; File C:\Program Files (x86)\Microsoft Visual Studio\2019\Community\VC\Tools\MSVC\14.29.30133\atlmfc\include\cstringt.h

; 2403 : 		CThisSimpleString::Concatenate( strResult, str1, str1.GetLength(), psz2, CThisSimpleString::StringLength( psz2 ) );

  0021e	6a 03		 push	 3
  00220	68 00 00 00 00	 push	 OFFSET ??_C@_03IDLCJCBF@?4st@

; 2405 : 		return( strResult );

  00225	c7 45 ec 07 00
	00 00		 mov	 DWORD PTR $T6[ebp], 7
  0022c	ff 70 f4	 push	 DWORD PTR [eax-12]
  0022f	50		 push	 eax
  00230	8d 45 e8	 lea	 eax, DWORD PTR $T4[ebp]
  00233	50		 push	 eax
  00234	ff 15 00 00 00
	00		 call	 DWORD PTR __imp_?Concatenate@?$CSimpleStringT@D$00@ATL@@KAXAAV12@PBDH1H@Z
  0023a	83 c4 14	 add	 esp, 20			; 00000014H
; File D:\git\src\IBK\IBK_DRFN\ProjSrc\SrcDrfn\Chart\HWSTRATEGYANALYSIS\HWStrategyAnalysis.cpp

; 106  : 		pDlgAnalysis->m_stSTPath		=Info.szSTPath +"\\"+ Info.szSTName + ".st";//전략ST파일 경로

  0023d	8d 45 e8	 lea	 eax, DWORD PTR $T4[ebp]
  00240	8d 8b f4 00 00
	00		 lea	 ecx, DWORD PTR [ebx+244]
  00246	50		 push	 eax
  00247	ff 15 00 00 00
	00		 call	 DWORD PTR __imp_??4?$CStringT@DV?$StrTraitMFC_DLL@DV?$ChTraitsCRT@D@ATL@@@@@ATL@@QAEAAV01@ABV01@@Z
  0024d	8d 4d e8	 lea	 ecx, DWORD PTR $T4[ebp]
  00250	ff 15 00 00 00
	00		 call	 DWORD PTR __imp_??1?$CStringT@DV?$StrTraitMFC_DLL@DV?$ChTraitsCRT@D@ATL@@@@@ATL@@QAE@XZ
  00256	8d 4d 10	 lea	 ecx, DWORD PTR $T9[ebp]
  00259	ff 15 00 00 00
	00		 call	 DWORD PTR __imp_??1?$CStringT@DV?$StrTraitMFC_DLL@DV?$ChTraitsCRT@D@ATL@@@@@ATL@@QAE@XZ
  0025f	8d 4d f0	 lea	 ecx, DWORD PTR $T7[ebp]
  00262	ff 15 00 00 00
	00		 call	 DWORD PTR __imp_??1?$CStringT@DV?$StrTraitMFC_DLL@DV?$ChTraitsCRT@D@ATL@@@@@ATL@@QAE@XZ
; File C:\Program Files (x86)\Microsoft Visual Studio\2019\Community\VC\Tools\MSVC\14.29.30133\atlmfc\include\cstringt.h

; 2401 : 		CStringT strResult( str1.GetManager() );

  00268	8d 4d d4	 lea	 ecx, DWORD PTR _Info$2[ebp+4]
; File D:\git\src\IBK\IBK_DRFN\ProjSrc\SrcDrfn\Chart\HWSTRATEGYANALYSIS\HWStrategyAnalysis.cpp

; 107  : 		pDlgAnalysis->m_stSTName		= Info.szSTName + ".ST";

  0026b	c6 45 fc 07	 mov	 BYTE PTR __$EHRec$[ebp+8], 7
; File C:\Program Files (x86)\Microsoft Visual Studio\2019\Community\VC\Tools\MSVC\14.29.30133\atlmfc\include\cstringt.h

; 2401 : 		CStringT strResult( str1.GetManager() );

  0026f	ff 15 00 00 00
	00		 call	 DWORD PTR __imp_?GetManager@?$CStringT@DV?$StrTraitMFC_DLL@DV?$ChTraitsCRT@D@ATL@@@@@ATL@@QBEPAUIAtlStringMgr@2@XZ
  00275	50		 push	 eax
  00276	8d 4d 10	 lea	 ecx, DWORD PTR $T8[ebp]
  00279	ff 15 00 00 00
	00		 call	 DWORD PTR __imp_??0?$CStringT@DV?$StrTraitMFC_DLL@DV?$ChTraitsCRT@D@ATL@@@@@ATL@@QAE@PAUIAtlStringMgr@1@@Z
; File C:\Program Files (x86)\Microsoft Visual Studio\2019\Community\VC\Tools\MSVC\14.29.30133\atlmfc\include\atlsimpstr.h

; 519  : 		return( GetData()->nDataLength );

  0027f	8b 45 d4	 mov	 eax, DWORD PTR _Info$2[ebp+4]
; File C:\Program Files (x86)\Microsoft Visual Studio\2019\Community\VC\Tools\MSVC\14.29.30133\atlmfc\include\cstringt.h

; 2405 : 		return( strResult );

  00282	c7 45 ec 08 00
	00 00		 mov	 DWORD PTR $T6[ebp], 8

; 2403 : 		CThisSimpleString::Concatenate( strResult, str1, str1.GetLength(), psz2, CThisSimpleString::StringLength( psz2 ) );

  00289	6a 03		 push	 3
  0028b	68 00 00 00 00	 push	 OFFSET ??_C@_03COHLPAFH@?4ST@
  00290	ff 70 f4	 push	 DWORD PTR [eax-12]
  00293	50		 push	 eax
  00294	8d 45 10	 lea	 eax, DWORD PTR $T8[ebp]
  00297	50		 push	 eax
  00298	ff 15 00 00 00
	00		 call	 DWORD PTR __imp_?Concatenate@?$CSimpleStringT@D$00@ATL@@KAXAAV12@PBDH1H@Z
  0029e	83 c4 14	 add	 esp, 20			; 00000014H
; File D:\git\src\IBK\IBK_DRFN\ProjSrc\SrcDrfn\Chart\HWSTRATEGYANALYSIS\HWStrategyAnalysis.cpp

; 107  : 		pDlgAnalysis->m_stSTName		= Info.szSTName + ".ST";

  002a1	8d 45 10	 lea	 eax, DWORD PTR $T8[ebp]
  002a4	8d 8b ec 00 00
	00		 lea	 ecx, DWORD PTR [ebx+236]
  002aa	50		 push	 eax
  002ab	ff 15 00 00 00
	00		 call	 DWORD PTR __imp_??4?$CStringT@DV?$StrTraitMFC_DLL@DV?$ChTraitsCRT@D@ATL@@@@@ATL@@QAEAAV01@ABV01@@Z
  002b1	8d 4d 10	 lea	 ecx, DWORD PTR $T8[ebp]
  002b4	c6 45 fc 03	 mov	 BYTE PTR __$EHRec$[ebp+8], 3
  002b8	ff 15 00 00 00
	00		 call	 DWORD PTR __imp_??1?$CStringT@DV?$StrTraitMFC_DLL@DV?$ChTraitsCRT@D@ATL@@@@@ATL@@QAE@XZ

; 108  : 		pDlgAnalysis->m_stEndDate	    =pMng->GetEndDay();

  002be	8b 07		 mov	 eax, DWORD PTR [edi]
  002c0	8d 4d e8	 lea	 ecx, DWORD PTR $T3[ebp]
  002c3	51		 push	 ecx
  002c4	57		 push	 edi
  002c5	ff 50 24	 call	 DWORD PTR [eax+36]
  002c8	50		 push	 eax
  002c9	8d 8b f0 00 00
	00		 lea	 ecx, DWORD PTR [ebx+240]
  002cf	c6 45 fc 08	 mov	 BYTE PTR __$EHRec$[ebp+8], 8
  002d3	ff 15 00 00 00
	00		 call	 DWORD PTR __imp_??4?$CStringT@DV?$StrTraitMFC_DLL@DV?$ChTraitsCRT@D@ATL@@@@@ATL@@QAEAAV01@ABV01@@Z
  002d9	8d 4d e8	 lea	 ecx, DWORD PTR $T3[ebp]
  002dc	c6 45 fc 03	 mov	 BYTE PTR __$EHRec$[ebp+8], 3
  002e0	ff 15 00 00 00
	00		 call	 DWORD PTR __imp_??1?$CStringT@DV?$StrTraitMFC_DLL@DV?$ChTraitsCRT@D@ATL@@@@@ATL@@QAE@XZ
; File C:\Program Files (x86)\Microsoft Visual Studio\2019\Community\VC\Tools\MSVC\14.29.30133\atlmfc\include\cstringt.h

; 2486 : 		return(str1.Compare(psz2) == 0);

  002e6	68 00 00 00 00	 push	 OFFSET ??_C@_00CNPNBAHC@@
  002eb	8d 8b ec 00 00
	00		 lea	 ecx, DWORD PTR [ebx+236]
  002f1	ff 15 00 00 00
	00		 call	 DWORD PTR __imp_?Compare@?$CStringT@DV?$StrTraitMFC_DLL@DV?$ChTraitsCRT@D@ATL@@@@@ATL@@QBEHPBD@Z
  002f7	85 c0		 test	 eax, eax
; File D:\git\src\IBK\IBK_DRFN\ProjSrc\SrcDrfn\Chart\HWSTRATEGYANALYSIS\HWStrategyAnalysis.cpp

; 110  : 		if(pDlgAnalysis->m_stSTName ==""||pDlgAnalysis->m_stCodeName=="")

  002f9	74 46		 je	 SHORT $LN4@fnInit
; File C:\Program Files (x86)\Microsoft Visual Studio\2019\Community\VC\Tools\MSVC\14.29.30133\atlmfc\include\cstringt.h

; 2486 : 		return(str1.Compare(psz2) == 0);

  002fb	68 00 00 00 00	 push	 OFFSET ??_C@_00CNPNBAHC@@
  00300	8d 8b e8 00 00
	00		 lea	 ecx, DWORD PTR [ebx+232]
  00306	ff 15 00 00 00
	00		 call	 DWORD PTR __imp_?Compare@?$CStringT@DV?$StrTraitMFC_DLL@DV?$ChTraitsCRT@D@ATL@@@@@ATL@@QBEHPBD@Z
  0030c	85 c0		 test	 eax, eax
; File D:\git\src\IBK\IBK_DRFN\ProjSrc\SrcDrfn\Chart\HWSTRATEGYANALYSIS\HWStrategyAnalysis.cpp

; 110  : 		if(pDlgAnalysis->m_stSTName ==""||pDlgAnalysis->m_stCodeName=="")

  0030e	74 31		 je	 SHORT $LN4@fnInit
  00310	8d 4d d8	 lea	 ecx, DWORD PTR _Info$2[ebp+8]
  00313	ff 15 00 00 00
	00		 call	 DWORD PTR __imp_??1?$CStringT@DV?$StrTraitMFC_DLL@DV?$ChTraitsCRT@D@ATL@@@@@ATL@@QAE@XZ
  00319	8d 4d d4	 lea	 ecx, DWORD PTR _Info$2[ebp+4]
  0031c	ff 15 00 00 00
	00		 call	 DWORD PTR __imp_??1?$CStringT@DV?$StrTraitMFC_DLL@DV?$ChTraitsCRT@D@ATL@@@@@ATL@@QAE@XZ
  00322	8d 4d d0	 lea	 ecx, DWORD PTR _Info$2[ebp]
  00325	ff 15 00 00 00
	00		 call	 DWORD PTR __imp_??1?$CStringT@DV?$StrTraitMFC_DLL@DV?$ChTraitsCRT@D@ATL@@@@@ATL@@QAE@XZ
$LN87@fnInit:

; 118  : 		}
; 119  : 		//END	
; 120  : 
; 121  : 	}
; 122  : //#endif
; 123  : 	// ~인터페이스를 이용한 예제
; 124  : 	return S_OK;

  0032b	33 c0		 xor	 eax, eax

; 125  : }

  0032d	8b 4d f4	 mov	 ecx, DWORD PTR __$EHRec$[ebp]
  00330	64 89 0d 00 00
	00 00		 mov	 DWORD PTR fs:0, ecx
  00337	59		 pop	 ecx
  00338	5f		 pop	 edi
  00339	5e		 pop	 esi
  0033a	5b		 pop	 ebx
  0033b	8b e5		 mov	 esp, ebp
  0033d	5d		 pop	 ebp
  0033e	c2 0c 00	 ret	 12			; 0000000cH
$LN4@fnInit:

; 111  : 		{
; 112  : 			AfxMessageBox("전략을 선택하지 않았습니다. 따라서 성과분석을 할 수 없습니다.");

  00341	6a 00		 push	 0
  00343	6a 00		 push	 0
  00345	68 00 00 00 00	 push	 OFFSET ??_C@_0DO@BJELONFP@?$MA?$PM?$LH?$KL?$MA?$LL?5?$LM?$LB?E?C?G?O?A?v?5?$LO?J?$LO?R?$LN?$MA?$LE?O?$LE?Y?4?5?$LF?$PL?$LG@
  0034a	e8 00 00 00 00	 call	 ?AfxMessageBox@@YGHPBDII@Z ; AfxMessageBox

; 113  : 			pDlgAnalysis->DestroyWindow();

  0034f	8b 03		 mov	 eax, DWORD PTR [ebx]
  00351	8b cb		 mov	 ecx, ebx
  00353	ff 50 68	 call	 DWORD PTR [eax+104]

; 114  : 			delete pDlgAnalysis;

  00356	8b 03		 mov	 eax, DWORD PTR [ebx]
  00358	8b cb		 mov	 ecx, ebx
  0035a	6a 01		 push	 1
  0035c	ff 50 04	 call	 DWORD PTR [eax+4]

; 115  : 			pDlgAnalysis = NULL;
; 116  : 			pOut->m_pDllKey = NULL;

  0035f	8b 45 0c	 mov	 eax, DWORD PTR _pOut$[ebp]
  00362	8d 4d d8	 lea	 ecx, DWORD PTR _Info$2[ebp+8]
  00365	c7 00 00 00 00
	00		 mov	 DWORD PTR [eax], 0
  0036b	ff 15 00 00 00
	00		 call	 DWORD PTR __imp_??1?$CStringT@DV?$StrTraitMFC_DLL@DV?$ChTraitsCRT@D@ATL@@@@@ATL@@QAE@XZ
  00371	8d 4d d4	 lea	 ecx, DWORD PTR _Info$2[ebp+4]
  00374	ff 15 00 00 00
	00		 call	 DWORD PTR __imp_??1?$CStringT@DV?$StrTraitMFC_DLL@DV?$ChTraitsCRT@D@ATL@@@@@ATL@@QAE@XZ
  0037a	8d 4d d0	 lea	 ecx, DWORD PTR _Info$2[ebp]
  0037d	ff 15 00 00 00
	00		 call	 DWORD PTR __imp_??1?$CStringT@DV?$StrTraitMFC_DLL@DV?$ChTraitsCRT@D@ATL@@@@@ATL@@QAE@XZ

; 117  : 			return S_FALSE;

  00383	b8 01 00 00 00	 mov	 eax, 1

; 125  : }

  00388	8b 4d f4	 mov	 ecx, DWORD PTR __$EHRec$[ebp]
  0038b	64 89 0d 00 00
	00 00		 mov	 DWORD PTR fs:0, ecx
  00392	59		 pop	 ecx
  00393	5f		 pop	 edi
  00394	5e		 pop	 esi
  00395	5b		 pop	 ebx
  00396	8b e5		 mov	 esp, ebp
  00398	5d		 pop	 ebp
  00399	c2 0c 00	 ret	 12			; 0000000cH
_TEXT	ENDS
;	COMDAT text$x
text$x	SEGMENT
__unwindfunclet$?fnInit@@YGJPAUSTODINIT_IN@@PAUSTODINIT_OUT@@PAX@Z$0:
  00000	8b 45 e8	 mov	 eax, DWORD PTR $T5[ebp]
  00003	50		 push	 eax
  00004	e8 00 00 00 00	 call	 ??3CObject@@SGXPAX@Z	; CObject::operator delete
  00009	c3		 ret	 0
__unwindfunclet$?fnInit@@YGJPAUSTODINIT_IN@@PAUSTODINIT_OUT@@PAX@Z$1:
  0000a	8d 4d 10	 lea	 ecx, DWORD PTR $T11[ebp]
  0000d	ff 25 00 00 00
	00		 jmp	 DWORD PTR __imp_??1?$CStringT@DV?$StrTraitMFC_DLL@DV?$ChTraitsCRT@D@ATL@@@@@ATL@@QAE@XZ
__unwindfunclet$?fnInit@@YGJPAUSTODINIT_IN@@PAUSTODINIT_OUT@@PAX@Z$2:
  00013	8d 4d 10	 lea	 ecx, DWORD PTR $T10[ebp]
  00016	ff 25 00 00 00
	00		 jmp	 DWORD PTR __imp_??1?$CStringT@DV?$StrTraitMFC_DLL@DV?$ChTraitsCRT@D@ATL@@@@@ATL@@QAE@XZ
__unwindfunclet$?fnInit@@YGJPAUSTODINIT_IN@@PAUSTODINIT_OUT@@PAX@Z$3:
  0001c	8d 4d d0	 lea	 ecx, DWORD PTR _Info$2[ebp]
  0001f	e9 00 00 00 00	 jmp	 ??1STMNG_ITEMINFO@@QAE@XZ
__unwindfunclet$?fnInit@@YGJPAUSTODINIT_IN@@PAUSTODINIT_OUT@@PAX@Z$10:
  00024	8b 45 ec	 mov	 eax, DWORD PTR $T6[ebp]
  00027	83 e0 01	 and	 eax, 1
  0002a	0f 84 0d 00 00
	00		 je	 $LN27@fnInit
  00030	83 65 ec fe	 and	 DWORD PTR $T6[ebp], -2	; fffffffeH
  00034	8d 4d f0	 lea	 ecx, DWORD PTR $T7[ebp]
  00037	ff 25 00 00 00
	00		 jmp	 DWORD PTR __imp_??1?$CStringT@DV?$StrTraitMFC_DLL@DV?$ChTraitsCRT@D@ATL@@@@@ATL@@QAE@XZ
$LN27@fnInit:
  0003d	c3		 ret	 0
__unwindfunclet$?fnInit@@YGJPAUSTODINIT_IN@@PAUSTODINIT_OUT@@PAX@Z$11:
  0003e	8b 45 ec	 mov	 eax, DWORD PTR $T6[ebp]
  00041	83 e0 02	 and	 eax, 2
  00044	0f 84 0d 00 00
	00		 je	 $LN40@fnInit
  0004a	83 65 ec fd	 and	 DWORD PTR $T6[ebp], -3	; fffffffdH
  0004e	8d 4d 10	 lea	 ecx, DWORD PTR $T9[ebp]
  00051	ff 25 00 00 00
	00		 jmp	 DWORD PTR __imp_??1?$CStringT@DV?$StrTraitMFC_DLL@DV?$ChTraitsCRT@D@ATL@@@@@ATL@@QAE@XZ
$LN40@fnInit:
  00057	c3		 ret	 0
__unwindfunclet$?fnInit@@YGJPAUSTODINIT_IN@@PAUSTODINIT_OUT@@PAX@Z$12:
  00058	8b 45 ec	 mov	 eax, DWORD PTR $T6[ebp]
  0005b	83 e0 04	 and	 eax, 4
  0005e	0f 84 0d 00 00
	00		 je	 $LN56@fnInit
  00064	83 65 ec fb	 and	 DWORD PTR $T6[ebp], -5	; fffffffbH
  00068	8d 4d e8	 lea	 ecx, DWORD PTR $T4[ebp]
  0006b	ff 25 00 00 00
	00		 jmp	 DWORD PTR __imp_??1?$CStringT@DV?$StrTraitMFC_DLL@DV?$ChTraitsCRT@D@ATL@@@@@ATL@@QAE@XZ
$LN56@fnInit:
  00071	c3		 ret	 0
__unwindfunclet$?fnInit@@YGJPAUSTODINIT_IN@@PAUSTODINIT_OUT@@PAX@Z$13:
  00072	8b 45 ec	 mov	 eax, DWORD PTR $T6[ebp]
  00075	83 e0 08	 and	 eax, 8
  00078	0f 84 0d 00 00
	00		 je	 $LN69@fnInit
  0007e	83 65 ec f7	 and	 DWORD PTR $T6[ebp], -9	; fffffff7H
  00082	8d 4d 10	 lea	 ecx, DWORD PTR $T8[ebp]
  00085	ff 25 00 00 00
	00		 jmp	 DWORD PTR __imp_??1?$CStringT@DV?$StrTraitMFC_DLL@DV?$ChTraitsCRT@D@ATL@@@@@ATL@@QAE@XZ
$LN69@fnInit:
  0008b	c3		 ret	 0
__unwindfunclet$?fnInit@@YGJPAUSTODINIT_IN@@PAUSTODINIT_OUT@@PAX@Z$8:
  0008c	8d 4d e8	 lea	 ecx, DWORD PTR $T3[ebp]
  0008f	ff 25 00 00 00
	00		 jmp	 DWORD PTR __imp_??1?$CStringT@DV?$StrTraitMFC_DLL@DV?$ChTraitsCRT@D@ATL@@@@@ATL@@QAE@XZ
  00095	cc		 int	 3
  00096	cc		 int	 3
  00097	cc		 int	 3
  00098	cc		 int	 3
  00099	cc		 int	 3
__ehhandler$?fnInit@@YGJPAUSTODINIT_IN@@PAUSTODINIT_OUT@@PAX@Z:
  0009a	90		 npad	 1
  0009b	90		 npad	 1
  0009c	8b 54 24 08	 mov	 edx, DWORD PTR [esp+8]
  000a0	8d 42 0c	 lea	 eax, DWORD PTR [edx+12]
  000a3	8b 4a cc	 mov	 ecx, DWORD PTR [edx-52]
  000a6	33 c8		 xor	 ecx, eax
  000a8	e8 00 00 00 00	 call	 @__security_check_cookie@4
  000ad	b8 00 00 00 00	 mov	 eax, OFFSET __ehfuncinfo$?fnInit@@YGJPAUSTODINIT_IN@@PAUSTODINIT_OUT@@PAX@Z
  000b2	e9 00 00 00 00	 jmp	 ___CxxFrameHandler3
text$x	ENDS
?fnInit@@YGJPAUSTODINIT_IN@@PAUSTODINIT_OUT@@PAX@Z ENDP	; fnInit
; Function compile flags: /Ogtp
; File D:\git\src\IBK\IBK_DRFN\ProjSrc\SrcDrfn\Chart\HWSTRATEGYANALYSIS\HWStrategyAnalysis.cpp
; File C:\Program Files (x86)\Microsoft Visual Studio\2019\Community\VC\Tools\MSVC\14.29.30133\atlmfc\include\afx.inl
; File D:\git\src\IBK\IBK_DRFN\ProjSrc\SrcDrfn\Chart\HWSTRATEGYANALYSIS\HWStrategyAnalysis.cpp
;	COMDAT _DllMain@12
_TEXT	SEGMENT
_hInstance$ = 8						; size = 4
_dwReason$ = 12						; size = 4
_lpReserved$ = 16					; size = 4
_DllMain@12 PROC					; COMDAT

; 23   : {

  00000	55		 push	 ebp
  00001	8b ec		 mov	 ebp, esp

; 24   : 	// Remove this if you use lpReserved
; 25   : 	UNREFERENCED_PARAMETER(lpReserved);
; 26   : 
; 27   : 	if (dwReason == DLL_PROCESS_ATTACH)

  00003	8b 45 0c	 mov	 eax, DWORD PTR _dwReason$[ebp]
  00006	83 f8 01	 cmp	 eax, 1
  00009	75 3a		 jne	 SHORT $LN2@DllMain

; 28   : 	{
; 29   : 		TRACE0("HWSTRATEGYANALYSIS.DLL Initializing!\n");
; 30   : 		
; 31   : 		// Extension DLL one-time initialization
; 32   : 		if (!AfxInitExtensionModule(HWStrategyAnalysisDLL, hInstance))

  0000b	ff 75 08	 push	 DWORD PTR _hInstance$[ebp]
  0000e	68 00 00 00 00	 push	 OFFSET ?HWStrategyAnalysisDLL@@3UAFX_EXTENSION_MODULE@@A
  00013	e8 00 00 00 00	 call	 ?AfxInitExtensionModule@@YGHAAUAFX_EXTENSION_MODULE@@PAUHINSTANCE__@@@Z ; AfxInitExtensionModule
  00018	85 c0		 test	 eax, eax
  0001a	75 04		 jne	 SHORT $LN4@DllMain

; 56   : }

  0001c	5d		 pop	 ebp
  0001d	c2 0c 00	 ret	 12			; 0000000cH
$LN4@DllMain:
; File C:\Program Files (x86)\Microsoft Visual Studio\2019\Community\VC\Tools\MSVC\14.29.30133\atlmfc\include\afx.inl

; 116  : 	{ return ::operator new(nSize); }

  00020	6a 40		 push	 64			; 00000040H
  00022	e8 00 00 00 00	 call	 ??2@YAPAXI@Z		; operator new
  00027	83 c4 04	 add	 esp, 4
; File D:\git\src\IBK\IBK_DRFN\ProjSrc\SrcDrfn\Chart\HWSTRATEGYANALYSIS\HWStrategyAnalysis.cpp

; 47   : 		new CDynLinkLibrary(HWStrategyAnalysisDLL);

  0002a	85 c0		 test	 eax, eax
  0002c	74 26		 je	 SHORT $LN5@DllMain
  0002e	6a 00		 push	 0
  00030	68 00 00 00 00	 push	 OFFSET ?HWStrategyAnalysisDLL@@3UAFX_EXTENSION_MODULE@@A
  00035	8b c8		 mov	 ecx, eax
  00037	e8 00 00 00 00	 call	 ??0CDynLinkLibrary@@QAE@AAUAFX_EXTENSION_MODULE@@H@Z ; CDynLinkLibrary::CDynLinkLibrary

; 54   : 	}
; 55   : 	return 1;   // ok

  0003c	b8 01 00 00 00	 mov	 eax, 1

; 56   : }

  00041	5d		 pop	 ebp
  00042	c2 0c 00	 ret	 12			; 0000000cH
$LN2@DllMain:

; 48   : 	}
; 49   : 	else if (dwReason == DLL_PROCESS_DETACH)

  00045	85 c0		 test	 eax, eax
  00047	75 0b		 jne	 SHORT $LN5@DllMain

; 50   : 	{
; 51   : 		TRACE0("HWSTRATEGYANALYSIS.DLL Terminating!\n");
; 52   : 		// Terminate the library before destructors are called
; 53   : 		AfxTermExtensionModule(HWStrategyAnalysisDLL);

  00049	50		 push	 eax
  0004a	68 00 00 00 00	 push	 OFFSET ?HWStrategyAnalysisDLL@@3UAFX_EXTENSION_MODULE@@A
  0004f	e8 00 00 00 00	 call	 ?AfxTermExtensionModule@@YGXAAUAFX_EXTENSION_MODULE@@H@Z ; AfxTermExtensionModule
$LN5@DllMain:

; 54   : 	}
; 55   : 	return 1;   // ok

  00054	b8 01 00 00 00	 mov	 eax, 1

; 56   : }

  00059	5d		 pop	 ebp
  0005a	c2 0c 00	 ret	 12			; 0000000cH
_DllMain@12 ENDP
_TEXT	ENDS
; Function compile flags: /Ogtp
;	COMDAT ??1STMNG_ITEMINFO@@QAE@XZ
_TEXT	SEGMENT
??1STMNG_ITEMINFO@@QAE@XZ PROC				; STMNG_ITEMINFO::~STMNG_ITEMINFO, COMDAT
; _this$ = ecx
  00000	56		 push	 esi
  00001	8b f1		 mov	 esi, ecx
  00003	8d 4e 08	 lea	 ecx, DWORD PTR [esi+8]
  00006	ff 15 00 00 00
	00		 call	 DWORD PTR __imp_??1?$CStringT@DV?$StrTraitMFC_DLL@DV?$ChTraitsCRT@D@ATL@@@@@ATL@@QAE@XZ
  0000c	8d 4e 04	 lea	 ecx, DWORD PTR [esi+4]
  0000f	ff 15 00 00 00
	00		 call	 DWORD PTR __imp_??1?$CStringT@DV?$StrTraitMFC_DLL@DV?$ChTraitsCRT@D@ATL@@@@@ATL@@QAE@XZ
  00015	8b ce		 mov	 ecx, esi
  00017	5e		 pop	 esi
  00018	ff 25 00 00 00
	00		 jmp	 DWORD PTR __imp_??1?$CStringT@DV?$StrTraitMFC_DLL@DV?$ChTraitsCRT@D@ATL@@@@@ATL@@QAE@XZ
??1STMNG_ITEMINFO@@QAE@XZ ENDP				; STMNG_ITEMINFO::~STMNG_ITEMINFO
_TEXT	ENDS
; Function compile flags: /Ogtp
; File D:\git\src\IBK\IBK_DRFN\ProjSrc\SrcDrfn\inc\IBaseDefine.h
;	COMDAT ?AfxGetPctrData@@YGJH@Z
_TEXT	SEGMENT
_hMainWnd$ = -36					; size = 4
_szClipFormat$2 = -32					; size = 4
_aBufWnd$3 = -28					; size = 9
__$ArrayPad$ = -16					; size = 4
__$EHRec$ = -12						; size = 12
_nID$ = 8						; size = 4
?AfxGetPctrData@@YGJH@Z PROC				; AfxGetPctrData, COMDAT

; 270  : {

  00000	55		 push	 ebp
  00001	8b ec		 mov	 ebp, esp
  00003	6a ff		 push	 -1
  00005	68 00 00 00 00	 push	 __ehhandler$?AfxGetPctrData@@YGJH@Z
  0000a	64 a1 00 00 00
	00		 mov	 eax, DWORD PTR fs:0
  00010	50		 push	 eax
  00011	83 ec 18	 sub	 esp, 24			; 00000018H
  00014	a1 00 00 00 00	 mov	 eax, DWORD PTR ___security_cookie
  00019	33 c5		 xor	 eax, ebp
  0001b	89 45 f0	 mov	 DWORD PTR __$ArrayPad$[ebp], eax
  0001e	50		 push	 eax
  0001f	8d 45 f4	 lea	 eax, DWORD PTR __$EHRec$[ebp]
  00022	64 a3 00 00 00
	00		 mov	 DWORD PTR fs:0, eax
  00028	0f 57 c0	 xorps	 xmm0, xmm0

; 271  : 	HWND hMainWnd;
; 272  : 	AfxGetHanaroMainWnd(hMainWnd);

  0002b	c7 45 dc 00 00
	00 00		 mov	 DWORD PTR _hMainWnd$[ebp], 0
  00032	8d 4d e0	 lea	 ecx, DWORD PTR _szClipFormat$2[ebp]
  00035	66 0f d6 45 e4	 movq	 QWORD PTR _aBufWnd$3[ebp], xmm0
  0003a	c6 45 ec 00	 mov	 BYTE PTR _aBufWnd$3[ebp+8], 0
  0003e	ff 15 00 00 00
	00		 call	 DWORD PTR __imp_??0?$CStringT@DV?$StrTraitMFC_DLL@DV?$ChTraitsCRT@D@ATL@@@@@ATL@@QAE@XZ
  00044	68 00 00 00 00	 push	 OFFSET ??_C@_0M@CBBNGGHM@PcTrMng?4dll@
  00049	c7 45 fc 00 00
	00 00		 mov	 DWORD PTR __$EHRec$[ebp+8], 0
  00050	ff 15 00 00 00
	00		 call	 DWORD PTR __imp__GetModuleHandleA@4
  00056	50		 push	 eax
  00057	68 00 00 00 00	 push	 OFFSET ??_C@_0P@IDMAJEGN@HANAROPCTRMAIN@
  0005c	8d 45 e0	 lea	 eax, DWORD PTR _szClipFormat$2[ebp]
  0005f	68 00 00 00 00	 push	 OFFSET ??_C@_06NDLAHCHE@?$CFs?$CF08X@
  00064	50		 push	 eax
  00065	ff 15 00 00 00
	00		 call	 DWORD PTR __imp_?Format@?$CStringT@DV?$StrTraitMFC_DLL@DV?$ChTraitsCRT@D@ATL@@@@@ATL@@QAAXPBDZZ
  0006b	83 c4 10	 add	 esp, 16			; 00000010H
  0006e	8d 45 e4	 lea	 eax, DWORD PTR _aBufWnd$3[ebp]
  00071	6a 09		 push	 9
  00073	50		 push	 eax
  00074	ff 75 e0	 push	 DWORD PTR _szClipFormat$2[ebp]
  00077	ff 15 00 00 00
	00		 call	 DWORD PTR __imp__GetEnvironmentVariableA@12
  0007d	8d 45 dc	 lea	 eax, DWORD PTR _hMainWnd$[ebp]
  00080	50		 push	 eax
  00081	8d 45 e4	 lea	 eax, DWORD PTR _aBufWnd$3[ebp]
  00084	68 00 00 00 00	 push	 OFFSET ??_C@_02EMFKHFLK@?$CFX@
  00089	50		 push	 eax
  0008a	e8 00 00 00 00	 call	 _sscanf
  0008f	83 c4 0c	 add	 esp, 12			; 0000000cH
  00092	8d 4d e0	 lea	 ecx, DWORD PTR _szClipFormat$2[ebp]
  00095	ff 15 00 00 00
	00		 call	 DWORD PTR __imp_??1?$CStringT@DV?$StrTraitMFC_DLL@DV?$ChTraitsCRT@D@ATL@@@@@ATL@@QAE@XZ

; 273  : 
; 274  : 	return ::SendMessage(hMainWnd, RMSG_GETPCTRDATA, (WPARAM)'A', (LPARAM)nID);

  0009b	ff 75 08	 push	 DWORD PTR _nID$[ebp]
  0009e	6a 41		 push	 65			; 00000041H
  000a0	ff 35 00 00 00
	00		 push	 DWORD PTR ?RMSG_GETPCTRDATA@@3IB
  000a6	ff 75 dc	 push	 DWORD PTR _hMainWnd$[ebp]
  000a9	ff 15 00 00 00
	00		 call	 DWORD PTR __imp__SendMessageA@16

; 275  : }

  000af	8b 4d f4	 mov	 ecx, DWORD PTR __$EHRec$[ebp]
  000b2	64 89 0d 00 00
	00 00		 mov	 DWORD PTR fs:0, ecx
  000b9	59		 pop	 ecx
  000ba	8b 4d f0	 mov	 ecx, DWORD PTR __$ArrayPad$[ebp]
  000bd	33 cd		 xor	 ecx, ebp
  000bf	e8 00 00 00 00	 call	 @__security_check_cookie@4
  000c4	8b e5		 mov	 esp, ebp
  000c6	5d		 pop	 ebp
  000c7	c2 04 00	 ret	 4
_TEXT	ENDS
;	COMDAT text$x
text$x	SEGMENT
__unwindfunclet$?AfxGetPctrData@@YGJH@Z$0:
  00000	8d 4d e0	 lea	 ecx, DWORD PTR _szClipFormat$2[ebp]
  00003	ff 25 00 00 00
	00		 jmp	 DWORD PTR __imp_??1?$CStringT@DV?$StrTraitMFC_DLL@DV?$ChTraitsCRT@D@ATL@@@@@ATL@@QAE@XZ
  00009	cc		 int	 3
  0000a	cc		 int	 3
  0000b	cc		 int	 3
  0000c	cc		 int	 3
  0000d	cc		 int	 3
__ehhandler$?AfxGetPctrData@@YGJH@Z:
  0000e	90		 npad	 1
  0000f	90		 npad	 1
  00010	8b 54 24 08	 mov	 edx, DWORD PTR [esp+8]
  00014	8d 42 0c	 lea	 eax, DWORD PTR [edx+12]
  00017	8b 4a e4	 mov	 ecx, DWORD PTR [edx-28]
  0001a	33 c8		 xor	 ecx, eax
  0001c	e8 00 00 00 00	 call	 @__security_check_cookie@4
  00021	8b 4a fc	 mov	 ecx, DWORD PTR [edx-4]
  00024	33 c8		 xor	 ecx, eax
  00026	e8 00 00 00 00	 call	 @__security_check_cookie@4
  0002b	b8 00 00 00 00	 mov	 eax, OFFSET __ehfuncinfo$?AfxGetPctrData@@YGJH@Z
  00030	e9 00 00 00 00	 jmp	 ___CxxFrameHandler3
text$x	ENDS
?AfxGetPctrData@@YGJH@Z ENDP				; AfxGetPctrData
; Function compile flags: /Ogtp
; File D:\git\src\IBK\IBK_DRFN\ProjSrc\SrcDrfn\inc\IBaseDefine.h
;	COMDAT ?AfxGetPctrInterface@@YGJH@Z
_TEXT	SEGMENT
_hMainWnd$ = -36					; size = 4
_szClipFormat$2 = -32					; size = 4
_aBufWnd$3 = -28					; size = 9
__$ArrayPad$ = -16					; size = 4
__$EHRec$ = -12						; size = 12
_nID$ = 8						; size = 4
?AfxGetPctrInterface@@YGJH@Z PROC			; AfxGetPctrInterface, COMDAT

; 260  : {

  00000	55		 push	 ebp
  00001	8b ec		 mov	 ebp, esp
  00003	6a ff		 push	 -1
  00005	68 00 00 00 00	 push	 __ehhandler$?AfxGetPctrInterface@@YGJH@Z
  0000a	64 a1 00 00 00
	00		 mov	 eax, DWORD PTR fs:0
  00010	50		 push	 eax
  00011	83 ec 18	 sub	 esp, 24			; 00000018H
  00014	a1 00 00 00 00	 mov	 eax, DWORD PTR ___security_cookie
  00019	33 c5		 xor	 eax, ebp
  0001b	89 45 f0	 mov	 DWORD PTR __$ArrayPad$[ebp], eax
  0001e	50		 push	 eax
  0001f	8d 45 f4	 lea	 eax, DWORD PTR __$EHRec$[ebp]
  00022	64 a3 00 00 00
	00		 mov	 DWORD PTR fs:0, eax
  00028	0f 57 c0	 xorps	 xmm0, xmm0

; 261  : 	HWND hMainWnd;
; 262  : 	AfxGetHanaroMainWnd(hMainWnd);

  0002b	c7 45 dc 00 00
	00 00		 mov	 DWORD PTR _hMainWnd$[ebp], 0
  00032	8d 4d e0	 lea	 ecx, DWORD PTR _szClipFormat$2[ebp]
  00035	66 0f d6 45 e4	 movq	 QWORD PTR _aBufWnd$3[ebp], xmm0
  0003a	c6 45 ec 00	 mov	 BYTE PTR _aBufWnd$3[ebp+8], 0
  0003e	ff 15 00 00 00
	00		 call	 DWORD PTR __imp_??0?$CStringT@DV?$StrTraitMFC_DLL@DV?$ChTraitsCRT@D@ATL@@@@@ATL@@QAE@XZ
  00044	68 00 00 00 00	 push	 OFFSET ??_C@_0M@CBBNGGHM@PcTrMng?4dll@
  00049	c7 45 fc 00 00
	00 00		 mov	 DWORD PTR __$EHRec$[ebp+8], 0
  00050	ff 15 00 00 00
	00		 call	 DWORD PTR __imp__GetModuleHandleA@4
  00056	50		 push	 eax
  00057	68 00 00 00 00	 push	 OFFSET ??_C@_0P@IDMAJEGN@HANAROPCTRMAIN@
  0005c	8d 45 e0	 lea	 eax, DWORD PTR _szClipFormat$2[ebp]
  0005f	68 00 00 00 00	 push	 OFFSET ??_C@_06NDLAHCHE@?$CFs?$CF08X@
  00064	50		 push	 eax
  00065	ff 15 00 00 00
	00		 call	 DWORD PTR __imp_?Format@?$CStringT@DV?$StrTraitMFC_DLL@DV?$ChTraitsCRT@D@ATL@@@@@ATL@@QAAXPBDZZ
  0006b	83 c4 10	 add	 esp, 16			; 00000010H
  0006e	8d 45 e4	 lea	 eax, DWORD PTR _aBufWnd$3[ebp]
  00071	6a 09		 push	 9
  00073	50		 push	 eax
  00074	ff 75 e0	 push	 DWORD PTR _szClipFormat$2[ebp]
  00077	ff 15 00 00 00
	00		 call	 DWORD PTR __imp__GetEnvironmentVariableA@12
  0007d	8d 45 dc	 lea	 eax, DWORD PTR _hMainWnd$[ebp]
  00080	50		 push	 eax
  00081	8d 45 e4	 lea	 eax, DWORD PTR _aBufWnd$3[ebp]
  00084	68 00 00 00 00	 push	 OFFSET ??_C@_02EMFKHFLK@?$CFX@
  00089	50		 push	 eax
  0008a	e8 00 00 00 00	 call	 _sscanf
  0008f	83 c4 0c	 add	 esp, 12			; 0000000cH
  00092	8d 4d e0	 lea	 ecx, DWORD PTR _szClipFormat$2[ebp]
  00095	ff 15 00 00 00
	00		 call	 DWORD PTR __imp_??1?$CStringT@DV?$StrTraitMFC_DLL@DV?$ChTraitsCRT@D@ATL@@@@@ATL@@QAE@XZ

; 263  : 
; 264  : 	return ::SendMessage(hMainWnd, RMSG_INTERFACE, (WPARAM)nID, 0);

  0009b	6a 00		 push	 0
  0009d	ff 75 08	 push	 DWORD PTR _nID$[ebp]
  000a0	ff 35 00 00 00
	00		 push	 DWORD PTR ?RMSG_INTERFACE@@3IB
  000a6	ff 75 dc	 push	 DWORD PTR _hMainWnd$[ebp]
  000a9	ff 15 00 00 00
	00		 call	 DWORD PTR __imp__SendMessageA@16

; 265  : }

  000af	8b 4d f4	 mov	 ecx, DWORD PTR __$EHRec$[ebp]
  000b2	64 89 0d 00 00
	00 00		 mov	 DWORD PTR fs:0, ecx
  000b9	59		 pop	 ecx
  000ba	8b 4d f0	 mov	 ecx, DWORD PTR __$ArrayPad$[ebp]
  000bd	33 cd		 xor	 ecx, ebp
  000bf	e8 00 00 00 00	 call	 @__security_check_cookie@4
  000c4	8b e5		 mov	 esp, ebp
  000c6	5d		 pop	 ebp
  000c7	c2 04 00	 ret	 4
_TEXT	ENDS
;	COMDAT text$x
text$x	SEGMENT
__unwindfunclet$?AfxGetPctrInterface@@YGJH@Z$0:
  00000	8d 4d e0	 lea	 ecx, DWORD PTR _szClipFormat$2[ebp]
  00003	ff 25 00 00 00
	00		 jmp	 DWORD PTR __imp_??1?$CStringT@DV?$StrTraitMFC_DLL@DV?$ChTraitsCRT@D@ATL@@@@@ATL@@QAE@XZ
  00009	cc		 int	 3
  0000a	cc		 int	 3
  0000b	cc		 int	 3
  0000c	cc		 int	 3
  0000d	cc		 int	 3
__ehhandler$?AfxGetPctrInterface@@YGJH@Z:
  0000e	90		 npad	 1
  0000f	90		 npad	 1
  00010	8b 54 24 08	 mov	 edx, DWORD PTR [esp+8]
  00014	8d 42 0c	 lea	 eax, DWORD PTR [edx+12]
  00017	8b 4a e4	 mov	 ecx, DWORD PTR [edx-28]
  0001a	33 c8		 xor	 ecx, eax
  0001c	e8 00 00 00 00	 call	 @__security_check_cookie@4
  00021	8b 4a fc	 mov	 ecx, DWORD PTR [edx-4]
  00024	33 c8		 xor	 ecx, eax
  00026	e8 00 00 00 00	 call	 @__security_check_cookie@4
  0002b	b8 00 00 00 00	 mov	 eax, OFFSET __ehfuncinfo$?AfxGetPctrInterface@@YGJH@Z
  00030	e9 00 00 00 00	 jmp	 ___CxxFrameHandler3
text$x	ENDS
?AfxGetPctrInterface@@YGJH@Z ENDP			; AfxGetPctrInterface
; Function compile flags: /Ogtp
; File D:\git\src\IBK\IBK_DRFN\ProjSrc\SrcDrfn\inc\IBaseDefine.h
;	COMDAT ??__ERMSG_SETPCTRDATA@@YAXXZ
text$di	SEGMENT
??__ERMSG_SETPCTRDATA@@YAXXZ PROC			; `dynamic initializer for 'RMSG_SETPCTRDATA'', COMDAT

; 172  : const UINT RMSG_SETPCTRDATA = ::RegisterWindowMessage("RMSG_SETPCTRDATA");

  00000	68 00 00 00 00	 push	 OFFSET ??_C@_0BB@JPACFCL@RMSG_SETPCTRDATA@
  00005	ff 15 00 00 00
	00		 call	 DWORD PTR __imp__RegisterWindowMessageA@4
  0000b	a3 00 00 00 00	 mov	 DWORD PTR ?RMSG_SETPCTRDATA@@3IB, eax
  00010	c3		 ret	 0
??__ERMSG_SETPCTRDATA@@YAXXZ ENDP			; `dynamic initializer for 'RMSG_SETPCTRDATA''
text$di	ENDS
; Function compile flags: /Ogtp
; File D:\git\src\IBK\IBK_DRFN\ProjSrc\SrcDrfn\inc\IBaseDefine.h
;	COMDAT ??__ERMSG_GETPCTRDATA@@YAXXZ
text$di	SEGMENT
??__ERMSG_GETPCTRDATA@@YAXXZ PROC			; `dynamic initializer for 'RMSG_GETPCTRDATA'', COMDAT

; 171  : const UINT RMSG_GETPCTRDATA = ::RegisterWindowMessage("RMSG_GETPCTRDATA");

  00000	68 00 00 00 00	 push	 OFFSET ??_C@_0BB@GOOPDKI@RMSG_GETPCTRDATA@
  00005	ff 15 00 00 00
	00		 call	 DWORD PTR __imp__RegisterWindowMessageA@4
  0000b	a3 00 00 00 00	 mov	 DWORD PTR ?RMSG_GETPCTRDATA@@3IB, eax
  00010	c3		 ret	 0
??__ERMSG_GETPCTRDATA@@YAXXZ ENDP			; `dynamic initializer for 'RMSG_GETPCTRDATA''
text$di	ENDS
; Function compile flags: /Ogtp
; File D:\git\src\IBK\IBK_DRFN\ProjSrc\SrcDrfn\inc\IBaseDefine.h
;	COMDAT ??__ERMSG_INTERFACE@@YAXXZ
text$di	SEGMENT
??__ERMSG_INTERFACE@@YAXXZ PROC				; `dynamic initializer for 'RMSG_INTERFACE'', COMDAT

; 170  : const UINT RMSG_INTERFACE = ::RegisterWindowMessage("RMSG_INTERFACE");

  00000	68 00 00 00 00	 push	 OFFSET ??_C@_0P@BKKCOCLK@RMSG_INTERFACE@
  00005	ff 15 00 00 00
	00		 call	 DWORD PTR __imp__RegisterWindowMessageA@4
  0000b	a3 00 00 00 00	 mov	 DWORD PTR ?RMSG_INTERFACE@@3IB, eax
  00010	c3		 ret	 0
??__ERMSG_INTERFACE@@YAXXZ ENDP				; `dynamic initializer for 'RMSG_INTERFACE''
text$di	ENDS
; Function compile flags: /Ogtp
; File D:\git\src\IBK\IBK_DRFN\ProjSrc\SrcDrfn\Chart\MultiChart\define\ChartMsgDef.h
;	COMDAT ??__ERMSG_SETINFO@@YAXXZ
text$di	SEGMENT
??__ERMSG_SETINFO@@YAXXZ PROC				; `dynamic initializer for 'RMSG_SETINFO'', COMDAT

; 238  : const UINT RMSG_SETINFO = ::RegisterWindowMessage(_T("RMSG_SETINFO"));

  00000	68 00 00 00 00	 push	 OFFSET ??_C@_0N@HABLPHJG@RMSG_SETINFO@
  00005	ff 15 00 00 00
	00		 call	 DWORD PTR __imp__RegisterWindowMessageA@4
  0000b	a3 00 00 00 00	 mov	 DWORD PTR ?RMSG_SETINFO@@3IB, eax
  00010	c3		 ret	 0
??__ERMSG_SETINFO@@YAXXZ ENDP				; `dynamic initializer for 'RMSG_SETINFO''
text$di	ENDS
; Function compile flags: /Ogtp
; File D:\git\src\IBK\IBK_DRFN\ProjSrc\SrcDrfn\Chart\MultiChart\define\ChartMsgDef.h
;	COMDAT ??__ERMSG_GETINFO@@YAXXZ
text$di	SEGMENT
??__ERMSG_GETINFO@@YAXXZ PROC				; `dynamic initializer for 'RMSG_GETINFO'', COMDAT

; 237  : const UINT RMSG_GETINFO = ::RegisterWindowMessage(_T("RMSG_GETINFO"));

  00000	68 00 00 00 00	 push	 OFFSET ??_C@_0N@IIOKMIEH@RMSG_GETINFO@
  00005	ff 15 00 00 00
	00		 call	 DWORD PTR __imp__RegisterWindowMessageA@4
  0000b	a3 00 00 00 00	 mov	 DWORD PTR ?RMSG_GETINFO@@3IB, eax
  00010	c3		 ret	 0
??__ERMSG_GETINFO@@YAXXZ ENDP				; `dynamic initializer for 'RMSG_GETINFO''
text$di	ENDS
; Function compile flags: /Ogtp
; File D:\git\src\IBK\IBK_DRFN\ProjSrc\SrcDrfn\Chart\MultiChart\define\ChartMsgDef.h
;	COMDAT ??__ERMSG_SETINITIALCHARTDATA@@YAXXZ
text$di	SEGMENT
??__ERMSG_SETINITIALCHARTDATA@@YAXXZ PROC		; `dynamic initializer for 'RMSG_SETINITIALCHARTDATA'', COMDAT

; 235  : const UINT RMSG_SETINITIALCHARTDATA = ::RegisterWindowMessage(_T("RMSG_SETINITIALCHARTDATA"));

  00000	68 00 00 00 00	 push	 OFFSET ??_C@_0BJ@OGNAJHHI@RMSG_SETINITIALCHARTDATA@
  00005	ff 15 00 00 00
	00		 call	 DWORD PTR __imp__RegisterWindowMessageA@4
  0000b	a3 00 00 00 00	 mov	 DWORD PTR ?RMSG_SETINITIALCHARTDATA@@3IB, eax
  00010	c3		 ret	 0
??__ERMSG_SETINITIALCHARTDATA@@YAXXZ ENDP		; `dynamic initializer for 'RMSG_SETINITIALCHARTDATA''
text$di	ENDS
; Function compile flags: /Ogtp
; File D:\git\src\IBK\IBK_DRFN\ProjSrc\SrcDrfn\Chart\MultiChart\define\ChartMsgDef.h
;	COMDAT ??__ERMSG_ADD_PLATFORM_MENU@@YAXXZ
text$di	SEGMENT
??__ERMSG_ADD_PLATFORM_MENU@@YAXXZ PROC			; `dynamic initializer for 'RMSG_ADD_PLATFORM_MENU'', COMDAT

; 233  : const UINT RMSG_ADD_PLATFORM_MENU = ::RegisterWindowMessage(_T("RMSG_ADD_PLATFORM_MENU"));

  00000	68 00 00 00 00	 push	 OFFSET ??_C@_0BH@IFDMIMBP@RMSG_ADD_PLATFORM_MENU@
  00005	ff 15 00 00 00
	00		 call	 DWORD PTR __imp__RegisterWindowMessageA@4
  0000b	a3 00 00 00 00	 mov	 DWORD PTR ?RMSG_ADD_PLATFORM_MENU@@3IB, eax
  00010	c3		 ret	 0
??__ERMSG_ADD_PLATFORM_MENU@@YAXXZ ENDP			; `dynamic initializer for 'RMSG_ADD_PLATFORM_MENU''
text$di	ENDS
; Function compile flags: /Ogtp
; File D:\git\src\IBK\IBK_DRFN\ProjSrc\SrcDrfn\Chart\MultiChart\define\ChartMsgDef.h
;	COMDAT ??__ERMSG_CHANGE_CROSSLINE@@YAXXZ
text$di	SEGMENT
??__ERMSG_CHANGE_CROSSLINE@@YAXXZ PROC			; `dynamic initializer for 'RMSG_CHANGE_CROSSLINE'', COMDAT

; 231  : const UINT RMSG_CHANGE_CROSSLINE = ::RegisterWindowMessage(_T("RMSG_CHANGE_CROSSLINE"));

  00000	68 00 00 00 00	 push	 OFFSET ??_C@_0BG@LNLCJKPF@RMSG_CHANGE_CROSSLINE@
  00005	ff 15 00 00 00
	00		 call	 DWORD PTR __imp__RegisterWindowMessageA@4
  0000b	a3 00 00 00 00	 mov	 DWORD PTR ?RMSG_CHANGE_CROSSLINE@@3IB, eax
  00010	c3		 ret	 0
??__ERMSG_CHANGE_CROSSLINE@@YAXXZ ENDP			; `dynamic initializer for 'RMSG_CHANGE_CROSSLINE''
text$di	ENDS
; Function compile flags: /Ogtp
; File D:\git\src\IBK\IBK_DRFN\ProjSrc\SrcDrfn\Chart\MultiChart\define\ChartMsgDef.h
;	COMDAT ??__ERMSG_CHANGEVERTSCALETYPE@@YAXXZ
text$di	SEGMENT
??__ERMSG_CHANGEVERTSCALETYPE@@YAXXZ PROC		; `dynamic initializer for 'RMSG_CHANGEVERTSCALETYPE'', COMDAT

; 229  : const UINT RMSG_CHANGEVERTSCALETYPE = ::RegisterWindowMessage(_T("RMSG_CHANGEVERTSCALETYPE"));

  00000	68 00 00 00 00	 push	 OFFSET ??_C@_0BJ@JLKHIBIK@RMSG_CHANGEVERTSCALETYPE@
  00005	ff 15 00 00 00
	00		 call	 DWORD PTR __imp__RegisterWindowMessageA@4
  0000b	a3 00 00 00 00	 mov	 DWORD PTR ?RMSG_CHANGEVERTSCALETYPE@@3IB, eax
  00010	c3		 ret	 0
??__ERMSG_CHANGEVERTSCALETYPE@@YAXXZ ENDP		; `dynamic initializer for 'RMSG_CHANGEVERTSCALETYPE''
text$di	ENDS
; Function compile flags: /Ogtp
; File D:\git\src\IBK\IBK_DRFN\ProjSrc\SrcDrfn\Chart\MultiChart\define\ChartMsgDef.h
;	COMDAT ??__ERMSG_GET_SKINCOLOR@@YAXXZ
text$di	SEGMENT
??__ERMSG_GET_SKINCOLOR@@YAXXZ PROC			; `dynamic initializer for 'RMSG_GET_SKINCOLOR'', COMDAT

; 226  : const UINT RMSG_GET_SKINCOLOR = ::RegisterWindowMessage(_T("RMSG_GET_SKINCOLOR"));

  00000	68 00 00 00 00	 push	 OFFSET ??_C@_0BD@FLDNDDHK@RMSG_GET_SKINCOLOR@
  00005	ff 15 00 00 00
	00		 call	 DWORD PTR __imp__RegisterWindowMessageA@4
  0000b	a3 00 00 00 00	 mov	 DWORD PTR ?RMSG_GET_SKINCOLOR@@3IB, eax
  00010	c3		 ret	 0
??__ERMSG_GET_SKINCOLOR@@YAXXZ ENDP			; `dynamic initializer for 'RMSG_GET_SKINCOLOR''
text$di	ENDS
; Function compile flags: /Ogtp
; File D:\git\src\IBK\IBK_DRFN\ProjSrc\SrcDrfn\Chart\MultiChart\define\ChartMsgDef.h
;	COMDAT ??__ERMSG_CHANGE_SKINCOLOR@@YAXXZ
text$di	SEGMENT
??__ERMSG_CHANGE_SKINCOLOR@@YAXXZ PROC			; `dynamic initializer for 'RMSG_CHANGE_SKINCOLOR'', COMDAT

; 225  : const UINT RMSG_CHANGE_SKINCOLOR = ::RegisterWindowMessage(_T("RMSG_CHANGE_SKINCOLOR"));

  00000	68 00 00 00 00	 push	 OFFSET ??_C@_0BG@CNPAHNGG@RMSG_CHANGE_SKINCOLOR@
  00005	ff 15 00 00 00
	00		 call	 DWORD PTR __imp__RegisterWindowMessageA@4
  0000b	a3 00 00 00 00	 mov	 DWORD PTR ?RMSG_CHANGE_SKINCOLOR@@3IB, eax
  00010	c3		 ret	 0
??__ERMSG_CHANGE_SKINCOLOR@@YAXXZ ENDP			; `dynamic initializer for 'RMSG_CHANGE_SKINCOLOR''
text$di	ENDS
; Function compile flags: /Ogtp
; File D:\git\src\IBK\IBK_DRFN\ProjSrc\SrcDrfn\Chart\MultiChart\define\ChartMsgDef.h
;	COMDAT ??__ERMSG_GET_USERID@@YAXXZ
text$di	SEGMENT
??__ERMSG_GET_USERID@@YAXXZ PROC			; `dynamic initializer for 'RMSG_GET_USERID'', COMDAT

; 215  : const UINT RMSG_GET_USERID = ::RegisterWindowMessage(_T("RMSG_GET_USERID"));	// User ID 얻기

  00000	68 00 00 00 00	 push	 OFFSET ??_C@_0BA@HKNFENJL@RMSG_GET_USERID@
  00005	ff 15 00 00 00
	00		 call	 DWORD PTR __imp__RegisterWindowMessageA@4
  0000b	a3 00 00 00 00	 mov	 DWORD PTR ?RMSG_GET_USERID@@3IB, eax
  00010	c3		 ret	 0
??__ERMSG_GET_USERID@@YAXXZ ENDP			; `dynamic initializer for 'RMSG_GET_USERID''
text$di	ENDS
; Function compile flags: /Ogtp
; File D:\git\src\IBK\IBK_DRFN\ProjSrc\SrcDrfn\Chart\MultiChart\define\ChartMsgDef.h
;	COMDAT ??__ERMS_ANALYSIS_FUNC@@YAXXZ
text$di	SEGMENT
??__ERMS_ANALYSIS_FUNC@@YAXXZ PROC			; `dynamic initializer for 'RMS_ANALYSIS_FUNC'', COMDAT

; 211  : const UINT RMS_ANALYSIS_FUNC	= ::RegisterWindowMessage(_T("RMS_ANALYSIS_FUNC"));

  00000	68 00 00 00 00	 push	 OFFSET ??_C@_0BC@MMPGLPDH@RMS_ANALYSIS_FUNC@
  00005	ff 15 00 00 00
	00		 call	 DWORD PTR __imp__RegisterWindowMessageA@4
  0000b	a3 00 00 00 00	 mov	 DWORD PTR ?RMS_ANALYSIS_FUNC@@3IB, eax
  00010	c3		 ret	 0
??__ERMS_ANALYSIS_FUNC@@YAXXZ ENDP			; `dynamic initializer for 'RMS_ANALYSIS_FUNC''
text$di	ENDS
; Function compile flags: /Ogtp
; File D:\git\src\IBK\IBK_DRFN\ProjSrc\SrcDrfn\Chart\MultiChart\define\ChartMsgDef.h
;	COMDAT ??__ERMSG_CHARTMAIN@@YAXXZ
text$di	SEGMENT
??__ERMSG_CHARTMAIN@@YAXXZ PROC				; `dynamic initializer for 'RMSG_CHARTMAIN'', COMDAT

; 208  : const UINT RMSG_CHARTMAIN		= ::RegisterWindowMessage(_T("RMSG_CHARTMAIN"));

  00000	68 00 00 00 00	 push	 OFFSET ??_C@_0P@KHFCBIOH@RMSG_CHARTMAIN@
  00005	ff 15 00 00 00
	00		 call	 DWORD PTR __imp__RegisterWindowMessageA@4
  0000b	a3 00 00 00 00	 mov	 DWORD PTR ?RMSG_CHARTMAIN@@3IB, eax
  00010	c3		 ret	 0
??__ERMSG_CHARTMAIN@@YAXXZ ENDP				; `dynamic initializer for 'RMSG_CHARTMAIN''
text$di	ENDS
; Function compile flags: /Ogtp
; File D:\git\src\IBK\IBK_DRFN\ProjSrc\SrcDrfn\Chart\MultiChart\define\ChartMsgDef.h
;	COMDAT ??__ERMSG_SETQUERYOPT@@YAXXZ
text$di	SEGMENT
??__ERMSG_SETQUERYOPT@@YAXXZ PROC			; `dynamic initializer for 'RMSG_SETQUERYOPT'', COMDAT

; 183  : const UINT RMSG_SETQUERYOPT = ::RegisterWindowMessage(_T("RMSG_SETQUERYOPT"));

  00000	68 00 00 00 00	 push	 OFFSET ??_C@_0BB@CNOFPEHG@RMSG_SETQUERYOPT@
  00005	ff 15 00 00 00
	00		 call	 DWORD PTR __imp__RegisterWindowMessageA@4
  0000b	a3 00 00 00 00	 mov	 DWORD PTR ?RMSG_SETQUERYOPT@@3IB, eax
  00010	c3		 ret	 0
??__ERMSG_SETQUERYOPT@@YAXXZ ENDP			; `dynamic initializer for 'RMSG_SETQUERYOPT''
text$di	ENDS
; Function compile flags: /Ogtp
; File D:\git\src\IBK\IBK_DRFN\ProjSrc\SrcDrfn\Chart\commontr\TRDefine.h
;	COMDAT ??__ERMSG_GETSIGNAL_REAL@@YAXXZ
text$di	SEGMENT
??__ERMSG_GETSIGNAL_REAL@@YAXXZ PROC			; `dynamic initializer for 'RMSG_GETSIGNAL_REAL'', COMDAT

; 213  : const UINT RMSG_GETSIGNAL_REAL = ::RegisterWindowMessage(_T("RMSG_GETSIGNAL_REAL"));

  00000	68 00 00 00 00	 push	 OFFSET ??_C@_0BE@FJPKENOB@RMSG_GETSIGNAL_REAL@
  00005	ff 15 00 00 00
	00		 call	 DWORD PTR __imp__RegisterWindowMessageA@4
  0000b	a3 00 00 00 00	 mov	 DWORD PTR ?RMSG_GETSIGNAL_REAL@@3IB, eax
  00010	c3		 ret	 0
??__ERMSG_GETSIGNAL_REAL@@YAXXZ ENDP			; `dynamic initializer for 'RMSG_GETSIGNAL_REAL''
text$di	ENDS
; Function compile flags: /Ogtp
; File C:\Program Files (x86)\Microsoft Visual Studio\2019\Community\VC\Tools\MSVC\14.29.30133\atlmfc\include\afxdllx.h
;	COMDAT _ExtRawDllMain@12
_TEXT	SEGMENT
___formal$ = 8						; size = 4
_dwReason$ = 12						; size = 4
___formal$ = 16						; size = 4
_ExtRawDllMain@12 PROC					; COMDAT

; 50   : {

  00000	55		 push	 ebp
  00001	8b ec		 mov	 ebp, esp

; 51   : 	if (dwReason == DLL_PROCESS_ATTACH)

  00003	83 7d 0c 01	 cmp	 DWORD PTR _dwReason$[ebp], 1
  00007	75 1f		 jne	 SHORT $LN4@ExtRawDllM

; 52   : 	{
; 53   : 		// save critical data pointers before running the constructors
; 54   : 		AFX_MODULE_STATE* pModuleState = AfxGetModuleState();

  00009	e8 00 00 00 00	 call	 ?AfxGetModuleState@@YGPAVAFX_MODULE_STATE@@XZ ; AfxGetModuleState

; 55   : 		pModuleState->m_pClassInit = pModuleState->m_classList;

  0000e	8b 48 20	 mov	 ecx, DWORD PTR [eax+32]
  00011	89 48 1c	 mov	 DWORD PTR [eax+28], ecx

; 56   : 		pModuleState->m_pFactoryInit = pModuleState->m_factoryList;

  00014	8b 48 2c	 mov	 ecx, DWORD PTR [eax+44]
  00017	89 48 28	 mov	 DWORD PTR [eax+40], ecx

; 57   : 		pModuleState->m_classList.m_pHead = NULL;

  0001a	c7 40 20 00 00
	00 00		 mov	 DWORD PTR [eax+32], 0

; 58   : 		pModuleState->m_factoryList.m_pHead = NULL;

  00021	c7 40 2c 00 00
	00 00		 mov	 DWORD PTR [eax+44], 0
$LN4@ExtRawDllM:

; 59   : 	}
; 60   : 	return TRUE;    // ok
; 61   : }

  00028	b8 01 00 00 00	 mov	 eax, 1
  0002d	5d		 pop	 ebp
  0002e	c2 0c 00	 ret	 12			; 0000000cH
_ExtRawDllMain@12 ENDP
_TEXT	ENDS
; Function compile flags: /Ogtp
; File C:\Program Files (x86)\Microsoft Visual Studio\2019\Community\VC\Tools\MSVC\14.29.30133\atlmfc\include\afx.inl
;	COMDAT ??3CObject@@SGXPAX@Z
_TEXT	SEGMENT
_p$ = 8							; size = 4
??3CObject@@SGXPAX@Z PROC				; CObject::operator delete, COMDAT

; 112  : 	{ ::operator delete(p); }

  00000	55		 push	 ebp
  00001	8b ec		 mov	 ebp, esp
  00003	ff 75 08	 push	 DWORD PTR _p$[ebp]
  00006	e8 00 00 00 00	 call	 ??3@YAXPAX@Z		; operator delete
  0000b	83 c4 04	 add	 esp, 4
  0000e	5d		 pop	 ebp
  0000f	c2 04 00	 ret	 4
??3CObject@@SGXPAX@Z ENDP				; CObject::operator delete
_TEXT	ENDS
; Function compile flags: /Ogtp
; File C:\Program Files (x86)\Windows Kits\10\Include\10.0.22000.0\ucrt\stdio.h
;	COMDAT _sscanf
_TEXT	SEGMENT
__Buffer$ = 8						; size = 4
__Format$ = 12						; size = 4
_sscanf	PROC						; COMDAT

; 2247 :     {

  00000	55		 push	 ebp
  00001	8b ec		 mov	 ebp, esp

; 2153 :         return __stdio_common_vsscanf(

  00003	8d 45 10	 lea	 eax, DWORD PTR __Format$[ebp+4]
  00006	50		 push	 eax
  00007	6a 00		 push	 0
  00009	ff 75 0c	 push	 DWORD PTR __Format$[ebp]
  0000c	6a ff		 push	 -1
  0000e	ff 75 08	 push	 DWORD PTR __Buffer$[ebp]
  00011	e8 00 00 00 00	 call	 ___local_stdio_scanf_options
  00016	ff 70 04	 push	 DWORD PTR [eax+4]
  00019	ff 30		 push	 DWORD PTR [eax]
  0001b	ff 15 00 00 00
	00		 call	 DWORD PTR __imp____stdio_common_vsscanf
  00021	83 c4 1c	 add	 esp, 28			; 0000001cH

; 2248 :         int _Result;
; 2249 :         va_list _ArgList;
; 2250 :         __crt_va_start(_ArgList, _Format);
; 2251 :         _Result = _vsscanf_l(_Buffer, _Format, NULL, _ArgList);
; 2252 :         __crt_va_end(_ArgList);
; 2253 :         return _Result;
; 2254 :     }

  00024	5d		 pop	 ebp
  00025	c3		 ret	 0
_sscanf	ENDP
_TEXT	ENDS
; Function compile flags: /Ogtp
; File C:\Program Files (x86)\Windows Kits\10\Include\10.0.22000.0\ucrt\corecrt_stdio_config.h
;	COMDAT ___local_stdio_scanf_options
_TEXT	SEGMENT
___local_stdio_scanf_options PROC			; COMDAT

; 101  :         static unsigned __int64 _OptionsStorage;
; 102  :         return &_OptionsStorage;

  00000	b8 00 00 00 00	 mov	 eax, OFFSET ?_OptionsStorage@?1??__local_stdio_scanf_options@@9@4_KA ; `__local_stdio_scanf_options'::`2'::_OptionsStorage

; 103  :     }

  00005	c3		 ret	 0
___local_stdio_scanf_options ENDP
_TEXT	ENDS
; Function compile flags: /Ogtp
; File D:\git\src\IBK\IBK_DRFN\ProjSrc\SrcDrfn\Chart\HWSTRATEGYANALYSIS\HWStrategyAnalysis.cpp
;	COMDAT ?__empty_global_delete@@YAXPAXI@Z
_TEXT	SEGMENT
___formal$ = 8						; size = 4
___formal$ = 12						; size = 4
?__empty_global_delete@@YAXPAXI@Z PROC			; __empty_global_delete, COMDAT

  00000	c2 00 00	 ret	 0
?__empty_global_delete@@YAXPAXI@Z ENDP			; __empty_global_delete
_TEXT	ENDS
; Function compile flags: /Ogtp
; File D:\git\src\IBK\IBK_DRFN\ProjSrc\SrcDrfn\Chart\HWSTRATEGYANALYSIS\HWStrategyAnalysis.cpp
;	COMDAT ?__empty_global_delete@@YAXPAX@Z
_TEXT	SEGMENT
___formal$ = 8						; size = 4
?__empty_global_delete@@YAXPAX@Z PROC			; __empty_global_delete, COMDAT

  00000	c2 00 00	 ret	 0
?__empty_global_delete@@YAXPAX@Z ENDP			; __empty_global_delete
_TEXT	ENDS
END
