; Listing generated by Microsoft (R) Optimizing Compiler Version 19.29.30145.0 

	TITLE	D:\git\src\IBK\IBK_DRFN\#DRfn-CS\_Obj\HWStrategyAnalysis\InfoRight.obj
	.686P
	.XMM
	include listing.inc
	.model	flat

INCLUDELIB MSVCRT
INCLUDELIB OLDNAMES

PUBLIC	?_eventsinkEntries@CInfoRight@@0QBUAFX_EVENTSINKMAP_ENTRY@@B ; CInfoRight::_eventsinkEntries
PUBLIC	?_eventsinkEntryCount@CInfoRight@@0IA		; CInfoRight::_eventsinkEntryCount
PUBLIC	??_C@_0P@BKKCOCLK@RMSG_INTERFACE@		; `string'
PUBLIC	??_C@_0BB@GOOPDKI@RMSG_GETPCTRDATA@		; `string'
PUBLIC	??_C@_0BB@JPACFCL@RMSG_SETPCTRDATA@		; `string'
PUBLIC	??_C@_0BE@FJPKENOB@RMSG_GETSIGNAL_REAL@		; `string'
PUBLIC	??_C@_0BB@CNOFPEHG@RMSG_SETQUERYOPT@		; `string'
PUBLIC	??_C@_0P@KHFCBIOH@RMSG_CHARTMAIN@		; `string'
PUBLIC	??_C@_0BC@MMPGLPDH@RMS_ANALYSIS_FUNC@		; `string'
PUBLIC	??_C@_0BA@HKNFENJL@RMSG_GET_USERID@		; `string'
PUBLIC	??_C@_0BG@CNPAHNGG@RMSG_CHANGE_SKINCOLOR@	; `string'
PUBLIC	??_C@_0BD@FLDNDDHK@RMSG_GET_SKINCOLOR@		; `string'
PUBLIC	??_C@_0BJ@JLKHIBIK@RMSG_CHANGEVERTSCALETYPE@	; `string'
PUBLIC	??_C@_0BG@LNLCJKPF@RMSG_CHANGE_CROSSLINE@	; `string'
PUBLIC	??_C@_0BH@IFDMIMBP@RMSG_ADD_PLATFORM_MENU@	; `string'
PUBLIC	??_C@_0BJ@OGNAJHHI@RMSG_SETINITIALCHARTDATA@	; `string'
PUBLIC	??_C@_0N@IIOKMIEH@RMSG_GETINFO@			; `string'
PUBLIC	??_C@_0N@HABLPHJG@RMSG_SETINFO@			; `string'
;	COMDAT ??_C@_0N@HABLPHJG@RMSG_SETINFO@
CONST	SEGMENT
??_C@_0N@HABLPHJG@RMSG_SETINFO@ DB 'RMSG_SETINFO', 00H	; `string'
CONST	ENDS
;	COMDAT ??_C@_0N@IIOKMIEH@RMSG_GETINFO@
CONST	SEGMENT
??_C@_0N@IIOKMIEH@RMSG_GETINFO@ DB 'RMSG_GETINFO', 00H	; `string'
CONST	ENDS
;	COMDAT ??_C@_0BJ@OGNAJHHI@RMSG_SETINITIALCHARTDATA@
CONST	SEGMENT
??_C@_0BJ@OGNAJHHI@RMSG_SETINITIALCHARTDATA@ DB 'RMSG_SETINITIALCHARTDATA'
	DB	00H						; `string'
CONST	ENDS
;	COMDAT ??_C@_0BH@IFDMIMBP@RMSG_ADD_PLATFORM_MENU@
CONST	SEGMENT
??_C@_0BH@IFDMIMBP@RMSG_ADD_PLATFORM_MENU@ DB 'RMSG_ADD_PLATFORM_MENU', 00H ; `string'
CONST	ENDS
;	COMDAT ??_C@_0BG@LNLCJKPF@RMSG_CHANGE_CROSSLINE@
CONST	SEGMENT
??_C@_0BG@LNLCJKPF@RMSG_CHANGE_CROSSLINE@ DB 'RMSG_CHANGE_CROSSLINE', 00H ; `string'
CONST	ENDS
;	COMDAT ??_C@_0BJ@JLKHIBIK@RMSG_CHANGEVERTSCALETYPE@
CONST	SEGMENT
??_C@_0BJ@JLKHIBIK@RMSG_CHANGEVERTSCALETYPE@ DB 'RMSG_CHANGEVERTSCALETYPE'
	DB	00H						; `string'
CONST	ENDS
;	COMDAT ??_C@_0BD@FLDNDDHK@RMSG_GET_SKINCOLOR@
CONST	SEGMENT
??_C@_0BD@FLDNDDHK@RMSG_GET_SKINCOLOR@ DB 'RMSG_GET_SKINCOLOR', 00H ; `string'
CONST	ENDS
;	COMDAT ??_C@_0BG@CNPAHNGG@RMSG_CHANGE_SKINCOLOR@
CONST	SEGMENT
??_C@_0BG@CNPAHNGG@RMSG_CHANGE_SKINCOLOR@ DB 'RMSG_CHANGE_SKINCOLOR', 00H ; `string'
CONST	ENDS
;	COMDAT ??_C@_0BA@HKNFENJL@RMSG_GET_USERID@
CONST	SEGMENT
??_C@_0BA@HKNFENJL@RMSG_GET_USERID@ DB 'RMSG_GET_USERID', 00H ; `string'
CONST	ENDS
;	COMDAT ??_C@_0BC@MMPGLPDH@RMS_ANALYSIS_FUNC@
CONST	SEGMENT
??_C@_0BC@MMPGLPDH@RMS_ANALYSIS_FUNC@ DB 'RMS_ANALYSIS_FUNC', 00H ; `string'
CONST	ENDS
;	COMDAT ??_C@_0P@KHFCBIOH@RMSG_CHARTMAIN@
CONST	SEGMENT
??_C@_0P@KHFCBIOH@RMSG_CHARTMAIN@ DB 'RMSG_CHARTMAIN', 00H ; `string'
CONST	ENDS
;	COMDAT ??_C@_0BB@CNOFPEHG@RMSG_SETQUERYOPT@
CONST	SEGMENT
??_C@_0BB@CNOFPEHG@RMSG_SETQUERYOPT@ DB 'RMSG_SETQUERYOPT', 00H ; `string'
CONST	ENDS
;	COMDAT ??_C@_0BE@FJPKENOB@RMSG_GETSIGNAL_REAL@
CONST	SEGMENT
??_C@_0BE@FJPKENOB@RMSG_GETSIGNAL_REAL@ DB 'RMSG_GETSIGNAL_REAL', 00H ; `string'
CONST	ENDS
;	COMDAT ??_C@_0BB@JPACFCL@RMSG_SETPCTRDATA@
CONST	SEGMENT
??_C@_0BB@JPACFCL@RMSG_SETPCTRDATA@ DB 'RMSG_SETPCTRDATA', 00H ; `string'
CONST	ENDS
;	COMDAT ??_C@_0BB@GOOPDKI@RMSG_GETPCTRDATA@
CONST	SEGMENT
??_C@_0BB@GOOPDKI@RMSG_GETPCTRDATA@ DB 'RMSG_GETPCTRDATA', 00H ; `string'
CONST	ENDS
;	COMDAT ??_C@_0P@BKKCOCLK@RMSG_INTERFACE@
CONST	SEGMENT
??_C@_0P@BKKCOCLK@RMSG_INTERFACE@ DB 'RMSG_INTERFACE', 00H ; `string'
CONST	ENDS
;	COMDAT ?_eventsinkEntryCount@CInfoRight@@0IA
_DATA	SEGMENT
?_eventsinkEntryCount@CInfoRight@@0IA DD 0ffffffffH	; CInfoRight::_eventsinkEntryCount
_DATA	ENDS
;	COMDAT ?_eventsinkEntries@CInfoRight@@0QBUAFX_EVENTSINKMAP_ENTRY@@B
CONST	SEGMENT
?_eventsinkEntries@CInfoRight@@0QBUAFX_EVENTSINKMAP_ENTRY@@B DD 00H ; CInfoRight::_eventsinkEntries
	DD	0ffffffffH
	DD	00H
	DW	018H
	ORG $+2
	DD	00H
	DD	00H
	DD	0ffffffffH
	DD	00H
	DD	0ffffffffH
	DD	00H
CONST	ENDS
PUBLIC	?__empty_global_delete@@YAXPAX@Z		; __empty_global_delete
PUBLIC	?__empty_global_delete@@YAXPAXI@Z		; __empty_global_delete
PUBLIC	?AfxCrtErrorCheck@@YAHH@Z			; AfxCrtErrorCheck
PUBLIC	??1CObject@@UAE@XZ				; CObject::~CObject
PUBLIC	??3CObject@@SGXPAX@Z				; CObject::operator delete
PUBLIC	?Serialize@CObject@@UAEXAAVCArchive@@@Z		; CObject::Serialize
PUBLIC	?AssertValid@CObject@@UBEXXZ			; CObject::AssertValid
PUBLIC	?Dump@CObject@@UBEXAAVCDumpContext@@@Z		; CObject::Dump
PUBLIC	??1CGdiObject@@UAE@XZ				; CGdiObject::~CGdiObject
PUBLIC	??_GCGdiObject@@UAEPAXI@Z			; CGdiObject::`scalar deleting destructor'
PUBLIC	??1CBrush@@UAE@XZ				; CBrush::~CBrush
PUBLIC	??_GCBrush@@UAEPAXI@Z				; CBrush::`scalar deleting destructor'
PUBLIC	??1CFont@@UAE@XZ				; CFont::~CFont
PUBLIC	??_GCFont@@UAEPAXI@Z				; CFont::`scalar deleting destructor'
PUBLIC	?DoDataExchange@CWnd@@MAEXPAVCDataExchange@@@Z	; CWnd::DoDataExchange
PUBLIC	?BeginModalState@CWnd@@UAEXXZ			; CWnd::BeginModalState
PUBLIC	?EndModalState@CWnd@@UAEXXZ			; CWnd::EndModalState
PUBLIC	?Create@CDialog@@UAEHIPAVCWnd@@@Z		; CDialog::Create
PUBLIC	??_GCButton@@UAEPAXI@Z				; CButton::`scalar deleting destructor'
PUBLIC	??1ST_DATAINDEX@@QAE@XZ				; ST_DATAINDEX::~ST_DATAINDEX
PUBLIC	?PreTranslateMessage@CEscDialog@@MAEHPAUtagMSG@@@Z ; CEscDialog::PreTranslateMessage
PUBLIC	??1CEscDialog@@UAE@XZ				; CEscDialog::~CEscDialog
PUBLIC	??_GCEscDialog@@UAEPAXI@Z			; CEscDialog::`scalar deleting destructor'
PUBLIC	??0CInfoRight@@QAE@PAVCWnd@@@Z			; CInfoRight::CInfoRight
PUBLIC	?DoDataExchange@CInfoRight@@MAEXPAVCDataExchange@@@Z ; CInfoRight::DoDataExchange
PUBLIC	?OnBtnShow@CInfoRight@@IAEXXZ			; CInfoRight::OnBtnShow
PUBLIC	?OnInitDialog@CInfoRight@@MAEHXZ		; CInfoRight::OnInitDialog
PUBLIC	?OnDestroy@CInfoRight@@IAEXXZ			; CInfoRight::OnDestroy
PUBLIC	?OnCtlColor@CInfoRight@@IAEPAUHBRUSH__@@PAVCDC@@PAVCWnd@@I@Z ; CInfoRight::OnCtlColor
PUBLIC	?OnBtnShowall@CInfoRight@@IAEXXZ		; CInfoRight::OnBtnShowall
PUBLIC	?OnBtnResult@CInfoRight@@IAEXXZ			; CInfoRight::OnBtnResult
PUBLIC	?OnBtnExportExcel@CInfoRight@@IAEXXZ		; CInfoRight::OnBtnExportExcel
PUBLIC	?GetThisEventSinkMap@CInfoRight@@KGPBUAFX_EVENTSINKMAP@@XZ ; CInfoRight::GetThisEventSinkMap
PUBLIC	?GetEventSinkMap@CInfoRight@@MBEPBUAFX_EVENTSINKMAP@@XZ ; CInfoRight::GetEventSinkMap
PUBLIC	?GetThisMessageMap@CInfoRight@@KGPBUAFX_MSGMAP@@XZ ; CInfoRight::GetThisMessageMap
PUBLIC	?GetMessageMap@CInfoRight@@MBEPBUAFX_MSGMAP@@XZ	; CInfoRight::GetMessageMap
PUBLIC	??0?$CArray@PAVCDlgInterface@@PAV1@@@QAE@XZ	; CArray<CDlgInterface *,CDlgInterface *>::CArray<CDlgInterface *,CDlgInterface *>
PUBLIC	?SetSize@?$CArray@PAVCDlgInterface@@PAV1@@@QAEXHH@Z ; CArray<CDlgInterface *,CDlgInterface *>::SetSize
PUBLIC	?SetAtGrow@?$CArray@PAVCDlgInterface@@PAV1@@@QAEXHPAVCDlgInterface@@@Z ; CArray<CDlgInterface *,CDlgInterface *>::SetAtGrow
PUBLIC	??1?$CArray@PAVCDlgInterface@@PAV1@@@UAE@XZ	; CArray<CDlgInterface *,CDlgInterface *>::~CArray<CDlgInterface *,CDlgInterface *>
PUBLIC	?Serialize@?$CArray@PAVCDlgInterface@@PAV1@@@UAEXAAVCArchive@@@Z ; CArray<CDlgInterface *,CDlgInterface *>::Serialize
PUBLIC	??_G?$CArray@PAVCDlgInterface@@PAV1@@@UAEPAXI@Z	; CArray<CDlgInterface *,CDlgInterface *>::`scalar deleting destructor'
PUBLIC	??0?$CArray@UST_DATAINDEX@@U1@@@QAE@XZ		; CArray<ST_DATAINDEX,ST_DATAINDEX>::CArray<ST_DATAINDEX,ST_DATAINDEX>
PUBLIC	?SetSize@?$CArray@UST_DATAINDEX@@U1@@@QAEXHH@Z	; CArray<ST_DATAINDEX,ST_DATAINDEX>::SetSize
PUBLIC	??1?$CArray@UST_DATAINDEX@@U1@@@UAE@XZ		; CArray<ST_DATAINDEX,ST_DATAINDEX>::~CArray<ST_DATAINDEX,ST_DATAINDEX>
PUBLIC	?Serialize@?$CArray@UST_DATAINDEX@@U1@@@UAEXAAVCArchive@@@Z ; CArray<ST_DATAINDEX,ST_DATAINDEX>::Serialize
PUBLIC	??_G?$CArray@UST_DATAINDEX@@U1@@@UAEPAXI@Z	; CArray<ST_DATAINDEX,ST_DATAINDEX>::`scalar deleting destructor'
PUBLIC	?SetRefresh@CInfoRight@@QAEXH@Z			; CInfoRight::SetRefresh
PUBLIC	?SetLeftInfo@CInfoRight@@QAEXPAVCInputLeft@@@Z	; CInfoRight::SetLeftInfo
PUBLIC	?SetParentsRect@CInfoRight@@QAEXVCRect@@@Z	; CInfoRight::SetParentsRect
PUBLIC	?SetFocusIndex@CInfoRight@@QAEXH@Z		; CInfoRight::SetFocusIndex
PUBLIC	?InitTab@CInfoRight@@QAEXXZ			; CInfoRight::InitTab
PUBLIC	?InitHeader@CInfoRight@@QAEXXZ			; CInfoRight::InitHeader
PUBLIC	?RefreshWebView@CInfoRight@@QAEXXZ		; CInfoRight::RefreshWebView
PUBLIC	?InitCodeGubun@CInfoRight@@QAEXH@Z		; CInfoRight::InitCodeGubun
PUBLIC	?AllUpdateDlg@CInfoRight@@QAEXXZ		; CInfoRight::AllUpdateDlg
PUBLIC	?ApplyST@CInfoRight@@QAEXXZ			; CInfoRight::ApplyST
PUBLIC	?DrawGraph@CInfoRight@@QAEXXZ			; CInfoRight::DrawGraph
PUBLIC	?OnCbnSelchangeComboDivide@CInfoRight@@QAEXXZ	; CInfoRight::OnCbnSelchangeComboDivide
PUBLIC	?OnNMClickTab1@CInfoRight@@QAEXPAUtagNMHDR@@PAJ@Z ; CInfoRight::OnNMClickTab1
PUBLIC	??_GCInfoRight@@UAEPAXI@Z			; CInfoRight::`scalar deleting destructor'
PUBLIC	?THREAD_MAKEHTMLResult@@YAIPAX@Z		; THREAD_MAKEHTMLResult
PUBLIC	?THREAD_MAKEHTMLTrade@@YAIPAX@Z			; THREAD_MAKEHTMLTrade
PUBLIC	?THREAD_MAKEHTMLStep@@YAIPAX@Z			; THREAD_MAKEHTMLStep
PUBLIC	??$SerializeElements@PAVCDlgInterface@@@@YGXAAVCArchive@@PAPAVCDlgInterface@@H@Z ; SerializeElements<CDlgInterface *>
PUBLIC	??$SerializeElements@UST_DATAINDEX@@@@YGXAAVCArchive@@PAUST_DATAINDEX@@H@Z ; SerializeElements<ST_DATAINDEX>
PUBLIC	??_R0PAVCException@@@8				; CException * `RTTI Type Descriptor'
PUBLIC	??_C@_02DPKJAMEF@?$CFd@				; `string'
PUBLIC	??_7CGdiObject@@6B@				; CGdiObject::`vftable'
PUBLIC	??_7CBrush@@6B@					; CBrush::`vftable'
PUBLIC	??_7CFont@@6B@					; CFont::`vftable'
PUBLIC	??_7CButton@@6B@				; CButton::`vftable'
PUBLIC	??_C@_0HD@JJCHHHNK@C?3?2Program?5Files?5?$CIx86?$CJ?2Microsof@ ; `string'
PUBLIC	??_C@_0BP@OIEOKIDM@Exception?5thrown?5in?5destructor@ ; `string'
PUBLIC	??_C@_0BB@HBOOMJBF@?$CFTs?5?$CI?$CFTs?3?$CFd?$CJ?6?$CFTs@ ; `string'
PUBLIC	??_C@_0N@OMEMOKLE@?$CFTs?5?$CI?$CFTs?3?$CFd?$CJ@ ; `string'
PUBLIC	??_7CEscDialog@@6B@				; CEscDialog::`vftable'
PUBLIC	??_R0?AVCObject@@@8				; CObject `RTTI Type Descriptor'
PUBLIC	??_R3CObject@@8					; CObject::`RTTI Class Hierarchy Descriptor'
PUBLIC	??_R2CObject@@8					; CObject::`RTTI Base Class Array'
PUBLIC	??_R1A@?0A@EA@CObject@@8			; CObject::`RTTI Base Class Descriptor at (0,-1,0,64)'
PUBLIC	??_R4CGdiObject@@6B@				; CGdiObject::`RTTI Complete Object Locator'
PUBLIC	??_R0?AVCGdiObject@@@8				; CGdiObject `RTTI Type Descriptor'
PUBLIC	??_R3CGdiObject@@8				; CGdiObject::`RTTI Class Hierarchy Descriptor'
PUBLIC	??_R2CGdiObject@@8				; CGdiObject::`RTTI Base Class Array'
PUBLIC	??_R1A@?0A@EA@CGdiObject@@8			; CGdiObject::`RTTI Base Class Descriptor at (0,-1,0,64)'
PUBLIC	??_R4CBrush@@6B@				; CBrush::`RTTI Complete Object Locator'
PUBLIC	??_R0?AVCBrush@@@8				; CBrush `RTTI Type Descriptor'
PUBLIC	??_R3CBrush@@8					; CBrush::`RTTI Class Hierarchy Descriptor'
PUBLIC	??_R2CBrush@@8					; CBrush::`RTTI Base Class Array'
PUBLIC	??_R1A@?0A@EA@CBrush@@8				; CBrush::`RTTI Base Class Descriptor at (0,-1,0,64)'
PUBLIC	??_R4CFont@@6B@					; CFont::`RTTI Complete Object Locator'
PUBLIC	??_R0?AVCFont@@@8				; CFont `RTTI Type Descriptor'
PUBLIC	??_R3CFont@@8					; CFont::`RTTI Class Hierarchy Descriptor'
PUBLIC	??_R2CFont@@8					; CFont::`RTTI Base Class Array'
PUBLIC	??_R1A@?0A@EA@CFont@@8				; CFont::`RTTI Base Class Descriptor at (0,-1,0,64)'
PUBLIC	??_R1A@?0A@EA@CWnd@@8				; CWnd::`RTTI Base Class Descriptor at (0,-1,0,64)'
PUBLIC	??_R0?AVCWnd@@@8				; CWnd `RTTI Type Descriptor'
PUBLIC	??_R3CWnd@@8					; CWnd::`RTTI Class Hierarchy Descriptor'
PUBLIC	??_R2CWnd@@8					; CWnd::`RTTI Base Class Array'
PUBLIC	??_R1A@?0A@EA@CCmdTarget@@8			; CCmdTarget::`RTTI Base Class Descriptor at (0,-1,0,64)'
PUBLIC	??_R0?AVCCmdTarget@@@8				; CCmdTarget `RTTI Type Descriptor'
PUBLIC	??_R3CCmdTarget@@8				; CCmdTarget::`RTTI Class Hierarchy Descriptor'
PUBLIC	??_R2CCmdTarget@@8				; CCmdTarget::`RTTI Base Class Array'
PUBLIC	??_R4CButton@@6B@				; CButton::`RTTI Complete Object Locator'
PUBLIC	??_R0?AVCButton@@@8				; CButton `RTTI Type Descriptor'
PUBLIC	??_R3CButton@@8					; CButton::`RTTI Class Hierarchy Descriptor'
PUBLIC	??_R2CButton@@8					; CButton::`RTTI Base Class Array'
PUBLIC	??_R1A@?0A@EA@CButton@@8			; CButton::`RTTI Base Class Descriptor at (0,-1,0,64)'
PUBLIC	??_R1A@?0A@EA@CDialog@@8			; CDialog::`RTTI Base Class Descriptor at (0,-1,0,64)'
PUBLIC	??_R0?AVCDialog@@@8				; CDialog `RTTI Type Descriptor'
PUBLIC	??_R3CDialog@@8					; CDialog::`RTTI Class Hierarchy Descriptor'
PUBLIC	??_R2CDialog@@8					; CDialog::`RTTI Base Class Array'
PUBLIC	??_R4CEscDialog@@6B@				; CEscDialog::`RTTI Complete Object Locator'
PUBLIC	??_R0?AVCEscDialog@@@8				; CEscDialog `RTTI Type Descriptor'
PUBLIC	??_R3CEscDialog@@8				; CEscDialog::`RTTI Class Hierarchy Descriptor'
PUBLIC	??_R2CEscDialog@@8				; CEscDialog::`RTTI Base Class Array'
PUBLIC	??_R1A@?0A@EA@CEscDialog@@8			; CEscDialog::`RTTI Base Class Descriptor at (0,-1,0,64)'
PUBLIC	?eventsinkMap@CInfoRight@@1UAFX_EVENTSINKMAP@@B	; CInfoRight::eventsinkMap
PUBLIC	??_7?$CArray@PAVCDlgInterface@@PAV1@@@6B@	; CArray<CDlgInterface *,CDlgInterface *>::`vftable'
PUBLIC	??_7?$CArray@UST_DATAINDEX@@U1@@@6B@		; CArray<ST_DATAINDEX,ST_DATAINDEX>::`vftable'
PUBLIC	??_7CInfoRight@@6B@				; CInfoRight::`vftable'
PUBLIC	??_C@_0BG@CHJJKIAP@ChartSTIndexAddIn?4dll@	; `string'
PUBLIC	??_C@_04MHOBIAIL@?$MA?$PM?C?$LM@		; `string'
PUBLIC	??_C@_06MFMMLLPC@?$LB?$LM?$LI?$LC?C?$LM@	; `string'
PUBLIC	??_C@_08OEAPFIFH@?$LM?$LK?$LA?z?$LK?P?$LM?$KO@	; `string'
PUBLIC	??_C@_08BKLNNJGI@?$MA?$PM?A?x?$LK?P?$LM?$KO@	; `string'
PUBLIC	??_C@_08INENBIFG@?$LI?E?$LI?E?$LD?$LL?$LP?$KK@	; `string'
PUBLIC	??_C@_0L@CPJPEJFL@?$LM?v?$MA?M?$LH?$PM?B?w?F?$KO@ ; `string'
PUBLIC	??_C@_0N@HEBKHCBM@?$LM?U?$MA?M?$LK?P?F?w?B?w?F?$KO@ ; `string'
PUBLIC	??_R4CInfoRight@@6B@				; CInfoRight::`RTTI Complete Object Locator'
PUBLIC	??_R0?AVCInfoRight@@@8				; CInfoRight `RTTI Type Descriptor'
PUBLIC	??_R3CInfoRight@@8				; CInfoRight::`RTTI Class Hierarchy Descriptor'
PUBLIC	??_R2CInfoRight@@8				; CInfoRight::`RTTI Base Class Array'
PUBLIC	??_R1A@?0A@EA@CInfoRight@@8			; CInfoRight::`RTTI Base Class Descriptor at (0,-1,0,64)'
PUBLIC	??_R4?$CArray@PAVCDlgInterface@@PAV1@@@6B@	; CArray<CDlgInterface *,CDlgInterface *>::`RTTI Complete Object Locator'
PUBLIC	??_R0?AV?$CArray@PAVCDlgInterface@@PAV1@@@@8	; CArray<CDlgInterface *,CDlgInterface *> `RTTI Type Descriptor'
PUBLIC	??_R3?$CArray@PAVCDlgInterface@@PAV1@@@8	; CArray<CDlgInterface *,CDlgInterface *>::`RTTI Class Hierarchy Descriptor'
PUBLIC	??_R2?$CArray@PAVCDlgInterface@@PAV1@@@8	; CArray<CDlgInterface *,CDlgInterface *>::`RTTI Base Class Array'
PUBLIC	??_R1A@?0A@EA@?$CArray@PAVCDlgInterface@@PAV1@@@8 ; CArray<CDlgInterface *,CDlgInterface *>::`RTTI Base Class Descriptor at (0,-1,0,64)'
PUBLIC	??_R4?$CArray@UST_DATAINDEX@@U1@@@6B@		; CArray<ST_DATAINDEX,ST_DATAINDEX>::`RTTI Complete Object Locator'
PUBLIC	??_R0?AV?$CArray@UST_DATAINDEX@@U1@@@@8		; CArray<ST_DATAINDEX,ST_DATAINDEX> `RTTI Type Descriptor'
PUBLIC	??_R3?$CArray@UST_DATAINDEX@@U1@@@8		; CArray<ST_DATAINDEX,ST_DATAINDEX>::`RTTI Class Hierarchy Descriptor'
PUBLIC	??_R2?$CArray@UST_DATAINDEX@@U1@@@8		; CArray<ST_DATAINDEX,ST_DATAINDEX>::`RTTI Base Class Array'
PUBLIC	??_R1A@?0A@EA@?$CArray@UST_DATAINDEX@@U1@@@8	; CArray<ST_DATAINDEX,ST_DATAINDEX>::`RTTI Base Class Descriptor at (0,-1,0,64)'
PUBLIC	__xmm@00000190000000000000000000000000
EXTRN	??2@YAPAXI@Z:PROC				; operator new
EXTRN	??3@YAXPAX@Z:PROC				; operator delete
EXTRN	??3@YAXPAXI@Z:PROC				; operator delete
EXTRN	?__global_delete@@YAXPAXI@Z:PROC		; __global_delete
EXTRN	??_U@YAPAXI@Z:PROC				; operator new[]
EXTRN	??_V@YAXPAX@Z:PROC				; operator delete[]
EXTRN	__imp___invalid_parameter_noinfo:PROC
EXTRN	__imp___errno:PROC
EXTRN	__imp__CreateFontIndirectA@4:PROC
EXTRN	__imp__CreateSolidBrush@4:PROC
EXTRN	__imp__RegisterWindowMessageA@4:PROC
EXTRN	__imp__SendMessageA@16:PROC
EXTRN	__imp__GetKeyState@4:PROC
EXTRN	__imp__EnableWindow@8:PROC
EXTRN	__imp__GetClientRect@8:PROC
EXTRN	__imp__GetParent@4:PROC
EXTRN	?AfxThrowMemoryException@@YGXXZ:PROC		; AfxThrowMemoryException
EXTRN	?AfxThrowInvalidArgException@@YGXXZ:PROC	; AfxThrowInvalidArgException
EXTRN	?AfxThrowArchiveException@@YGXHPBD@Z:PROC	; AfxThrowArchiveException
EXTRN	?GetRuntimeClass@CObject@@UBEPAUCRuntimeClass@@XZ:PROC ; CObject::GetRuntimeClass
EXTRN	__imp_??0?$CStringT@DV?$StrTraitMFC_DLL@DV?$ChTraitsCRT@D@ATL@@@@@ATL@@QAE@XZ:PROC
EXTRN	__imp_??1?$CStringT@DV?$StrTraitMFC_DLL@DV?$ChTraitsCRT@D@ATL@@@@@ATL@@QAE@XZ:PROC
EXTRN	__imp_??4?$CStringT@DV?$StrTraitMFC_DLL@DV?$ChTraitsCRT@D@ATL@@@@@ATL@@QAEAAV01@ABV01@@Z:PROC
EXTRN	__imp_?Format@?$CStringT@DV?$StrTraitMFC_DLL@DV?$ChTraitsCRT@D@ATL@@@@@ATL@@QAAXPBDZZ:PROC
EXTRN	?Read@CArchive@@QAEIPAXI@Z:PROC			; CArchive::Read
EXTRN	?Write@CArchive@@QAEXPBXI@Z:PROC		; CArchive::Write
EXTRN	?ReadCount@CArchive@@QAEKXZ:PROC		; CArchive::ReadCount
EXTRN	?WriteCount@CArchive@@QAEXK@Z:PROC		; CArchive::WriteCount
EXTRN	?GetRuntimeClass@CGdiObject@@UBEPAUCRuntimeClass@@XZ:PROC ; CGdiObject::GetRuntimeClass
EXTRN	?Attach@CGdiObject@@QAEHPAX@Z:PROC		; CGdiObject::Attach
EXTRN	?DeleteObject@CGdiObject@@QAEHXZ:PROC		; CGdiObject::DeleteObject
EXTRN	??_ECGdiObject@@UAEPAXI@Z:PROC			; CGdiObject::`vector deleting destructor'
EXTRN	?GetRuntimeClass@CBrush@@UBEPAUCRuntimeClass@@XZ:PROC ; CBrush::GetRuntimeClass
EXTRN	??_ECBrush@@UAEPAXI@Z:PROC			; CBrush::`vector deleting destructor'
EXTRN	?GetRuntimeClass@CFont@@UBEPAUCRuntimeClass@@XZ:PROC ; CFont::GetRuntimeClass
EXTRN	??_ECFont@@UAEPAXI@Z:PROC			; CFont::`vector deleting destructor'
EXTRN	?DDX_Control@@YGXPAVCDataExchange@@HAAVCWnd@@@Z:PROC ; DDX_Control
EXTRN	?OnCmdMsg@CCmdTarget@@UAEHIHPAXPAUAFX_CMDHANDLERINFO@@@Z:PROC ; CCmdTarget::OnCmdMsg
EXTRN	?IsInvokeAllowed@CCmdTarget@@UAEHJ@Z:PROC	; CCmdTarget::IsInvokeAllowed
EXTRN	?GetDispatchIID@CCmdTarget@@UAEHPAU_GUID@@@Z:PROC ; CCmdTarget::GetDispatchIID
EXTRN	?GetTypeInfoCount@CCmdTarget@@UAEIXZ:PROC	; CCmdTarget::GetTypeInfoCount
EXTRN	?GetTypeLibCache@CCmdTarget@@UAEPAVCTypeLibCache@@XZ:PROC ; CCmdTarget::GetTypeLibCache
EXTRN	?GetTypeLib@CCmdTarget@@UAEJKPAPAUITypeLib@@@Z:PROC ; CCmdTarget::GetTypeLib
EXTRN	?GetCommandMap@CCmdTarget@@MBEPBUAFX_OLECMDMAP@@XZ:PROC ; CCmdTarget::GetCommandMap
EXTRN	?GetDispatchMap@CCmdTarget@@MBEPBUAFX_DISPMAP@@XZ:PROC ; CCmdTarget::GetDispatchMap
EXTRN	?GetConnectionMap@CCmdTarget@@MBEPBUAFX_CONNECTIONMAP@@XZ:PROC ; CCmdTarget::GetConnectionMap
EXTRN	?GetThisEventSinkMap@CCmdTarget@@KGPBUAFX_EVENTSINKMAP@@XZ:PROC ; CCmdTarget::GetThisEventSinkMap
EXTRN	?GetEventSinkMap@CCmdTarget@@MBEPBUAFX_EVENTSINKMAP@@XZ:PROC ; CCmdTarget::GetEventSinkMap
EXTRN	?OnCreateAggregates@CCmdTarget@@UAEHXZ:PROC	; CCmdTarget::OnCreateAggregates
EXTRN	?GetInterfaceHook@CCmdTarget@@UAEPAUIUnknown@@PBX@Z:PROC ; CCmdTarget::GetInterfaceHook
EXTRN	?GetExtraConnectionPoints@CCmdTarget@@MAEHPAVCPtrArray@@@Z:PROC ; CCmdTarget::GetExtraConnectionPoints
EXTRN	?GetConnectionHook@CCmdTarget@@MAEPAUIConnectionPoint@@ABU_GUID@@@Z:PROC ; CCmdTarget::GetConnectionHook
EXTRN	??0CWnd@@QAE@XZ:PROC				; CWnd::CWnd
EXTRN	?FromHandle@CWnd@@SGPAV1@PAUHWND__@@@Z:PROC	; CWnd::FromHandle
EXTRN	?PreSubclassWindow@CWnd@@UAEXXZ:PROC		; CWnd::PreSubclassWindow
EXTRN	?Create@CWnd@@UAEHPBD0KABUtagRECT@@PAV1@IPAUCCreateContext@@@Z:PROC ; CWnd::Create
EXTRN	?CreateEx@CWnd@@UAEHKPBD0KHHHHPAUHWND__@@PAUHMENU__@@PAX@Z:PROC ; CWnd::CreateEx
EXTRN	?CreateEx@CWnd@@UAEHKPBD0KABUtagRECT@@PAV1@IPAX@Z:PROC ; CWnd::CreateEx
EXTRN	?DestroyWindow@CWnd@@UAEHXZ:PROC		; CWnd::DestroyWindow
EXTRN	?PreCreateWindow@CWnd@@UAEHAAUtagCREATESTRUCTA@@@Z:PROC ; CWnd::PreCreateWindow
EXTRN	?CalcWindowRect@CWnd@@UAEXPAUtagRECT@@I@Z:PROC	; CWnd::CalcWindowRect
EXTRN	?GetMenu@CWnd@@UBEPAVCMenu@@XZ:PROC		; CWnd::GetMenu
EXTRN	?SetMenu@CWnd@@UAEHPAVCMenu@@@Z:PROC		; CWnd::SetMenu
EXTRN	?OnToolHitTest@CWnd@@UBEHVCPoint@@PAUtagTOOLINFOA@@@Z:PROC ; CWnd::OnToolHitTest
EXTRN	?GetScrollBarCtrl@CWnd@@UBEPAVCScrollBar@@H@Z:PROC ; CWnd::GetScrollBarCtrl
EXTRN	?WinHelpA@CWnd@@UAEXKI@Z:PROC			; CWnd::WinHelpA
EXTRN	?HtmlHelpA@CWnd@@UAEXKI@Z:PROC			; CWnd::HtmlHelpA
EXTRN	?WinHelpInternal@CWnd@@UAEXKI@Z:PROC		; CWnd::WinHelpInternal
EXTRN	?ContinueModal@CWnd@@UAEHXZ:PROC		; CWnd::ContinueModal
EXTRN	?EndModalLoop@CWnd@@UAEXH@Z:PROC		; CWnd::EndModalLoop
EXTRN	?OnDrawIconicThumbnailOrLivePreview@CWnd@@UAEXAAVCDC@@VCRect@@VCSize@@HAAH@Z:PROC ; CWnd::OnDrawIconicThumbnailOrLivePreview
EXTRN	?GetInterfaceMap@CWnd@@MBEPBUAFX_INTERFACEMAP@@XZ:PROC ; CWnd::GetInterfaceMap
EXTRN	?EnsureStdObj@CWnd@@UAEJXZ:PROC			; CWnd::EnsureStdObj
EXTRN	?get_accParent@CWnd@@UAEJPAPAUIDispatch@@@Z:PROC ; CWnd::get_accParent
EXTRN	?get_accChildCount@CWnd@@UAEJPAJ@Z:PROC		; CWnd::get_accChildCount
EXTRN	?get_accChild@CWnd@@UAEJUtagVARIANT@@PAPAUIDispatch@@@Z:PROC ; CWnd::get_accChild
EXTRN	?get_accName@CWnd@@UAEJUtagVARIANT@@PAPA_W@Z:PROC ; CWnd::get_accName
EXTRN	?get_accValue@CWnd@@UAEJUtagVARIANT@@PAPA_W@Z:PROC ; CWnd::get_accValue
EXTRN	?get_accDescription@CWnd@@UAEJUtagVARIANT@@PAPA_W@Z:PROC ; CWnd::get_accDescription
EXTRN	?get_accRole@CWnd@@UAEJUtagVARIANT@@PAU2@@Z:PROC ; CWnd::get_accRole
EXTRN	?get_accState@CWnd@@UAEJUtagVARIANT@@PAU2@@Z:PROC ; CWnd::get_accState
EXTRN	?get_accHelp@CWnd@@UAEJUtagVARIANT@@PAPA_W@Z:PROC ; CWnd::get_accHelp
EXTRN	?get_accHelpTopic@CWnd@@UAEJPAPA_WUtagVARIANT@@PAJ@Z:PROC ; CWnd::get_accHelpTopic
EXTRN	?get_accKeyboardShortcut@CWnd@@UAEJUtagVARIANT@@PAPA_W@Z:PROC ; CWnd::get_accKeyboardShortcut
EXTRN	?get_accFocus@CWnd@@UAEJPAUtagVARIANT@@@Z:PROC	; CWnd::get_accFocus
EXTRN	?get_accSelection@CWnd@@UAEJPAUtagVARIANT@@@Z:PROC ; CWnd::get_accSelection
EXTRN	?get_accDefaultAction@CWnd@@UAEJUtagVARIANT@@PAPA_W@Z:PROC ; CWnd::get_accDefaultAction
EXTRN	?accSelect@CWnd@@UAEJJUtagVARIANT@@@Z:PROC	; CWnd::accSelect
EXTRN	?accLocation@CWnd@@UAEJPAJ000UtagVARIANT@@@Z:PROC ; CWnd::accLocation
EXTRN	?accNavigate@CWnd@@UAEJJUtagVARIANT@@PAU2@@Z:PROC ; CWnd::accNavigate
EXTRN	?accHitTest@CWnd@@UAEJJJPAUtagVARIANT@@@Z:PROC	; CWnd::accHitTest
EXTRN	?accDoDefaultAction@CWnd@@UAEJUtagVARIANT@@@Z:PROC ; CWnd::accDoDefaultAction
EXTRN	?put_accName@CWnd@@UAEJUtagVARIANT@@PA_W@Z:PROC	; CWnd::put_accName
EXTRN	?put_accValue@CWnd@@UAEJUtagVARIANT@@PA_W@Z:PROC ; CWnd::put_accValue
EXTRN	?SetProxy@CWnd@@UAEJPAUIAccessibleProxy@@@Z:PROC ; CWnd::SetProxy
EXTRN	?CreateAccessibleProxy@CWnd@@UAEJIJPAJ@Z:PROC	; CWnd::CreateAccessibleProxy
EXTRN	?OnCommand@CWnd@@MAEHIJ@Z:PROC			; CWnd::OnCommand
EXTRN	?OnNotify@CWnd@@MAEHIJPAJ@Z:PROC		; CWnd::OnNotify
EXTRN	?OnCtlColor@CWnd@@IAEPAUHBRUSH__@@PAVCDC@@PAV1@I@Z:PROC ; CWnd::OnCtlColor
EXTRN	?OnDestroy@CWnd@@IAEXXZ:PROC			; CWnd::OnDestroy
EXTRN	?GetSuperWndProcAddr@CWnd@@MAEPAP6GJPAUHWND__@@IIJ@ZXZ:PROC ; CWnd::GetSuperWndProcAddr
EXTRN	?PreTranslateMessage@CWnd@@UAEHPAUtagMSG@@@Z:PROC ; CWnd::PreTranslateMessage
EXTRN	?OnAmbientProperty@CWnd@@UAEHPAVCOleControlSite@@JPAUtagVARIANT@@@Z:PROC ; CWnd::OnAmbientProperty
EXTRN	?WindowProc@CWnd@@MAEJIIJ@Z:PROC		; CWnd::WindowProc
EXTRN	?OnWndMsg@CWnd@@MAEHIIJPAJ@Z:PROC		; CWnd::OnWndMsg
EXTRN	?DefWindowProcA@CWnd@@MAEJIIJ@Z:PROC		; CWnd::DefWindowProcA
EXTRN	?PostNcDestroy@CWnd@@MAEXXZ:PROC		; CWnd::PostNcDestroy
EXTRN	?OnChildNotify@CWnd@@MAEHIIJPAJ@Z:PROC		; CWnd::OnChildNotify
EXTRN	?OnTouchInputs@CWnd@@MAEHIPAUtagTOUCHINPUT@@@Z:PROC ; CWnd::OnTouchInputs
EXTRN	?OnTouchInput@CWnd@@MAEHVCPoint@@HHPAUtagTOUCHINPUT@@@Z:PROC ; CWnd::OnTouchInput
EXTRN	?GetGestureStatus@CWnd@@MAEKVCPoint@@@Z:PROC	; CWnd::GetGestureStatus
EXTRN	?OnGestureZoom@CWnd@@MAEHVCPoint@@J@Z:PROC	; CWnd::OnGestureZoom
EXTRN	?OnGesturePan@CWnd@@MAEHVCPoint@@0@Z:PROC	; CWnd::OnGesturePan
EXTRN	?OnGestureRotate@CWnd@@MAEHVCPoint@@N@Z:PROC	; CWnd::OnGestureRotate
EXTRN	?OnGestureTwoFingerTap@CWnd@@MAEHVCPoint@@@Z:PROC ; CWnd::OnGestureTwoFingerTap
EXTRN	?OnGesturePressAndTap@CWnd@@MAEHVCPoint@@J@Z:PROC ; CWnd::OnGesturePressAndTap
EXTRN	?ResizeDynamicLayout@CWnd@@MAEXXZ:PROC		; CWnd::ResizeDynamicLayout
EXTRN	?CheckAutoCenter@CWnd@@UAEHXZ:PROC		; CWnd::CheckAutoCenter
EXTRN	?IsFrameWnd@CWnd@@UBEHXZ:PROC			; CWnd::IsFrameWnd
EXTRN	?OnFinalRelease@CWnd@@UAEXXZ:PROC		; CWnd::OnFinalRelease
EXTRN	?CreateControlContainer@CWnd@@MAEHPAPAVCOleControlContainer@@@Z:PROC ; CWnd::CreateControlContainer
EXTRN	?CreateControlSite@CWnd@@MAEHPAVCOleControlContainer@@PAPAVCOleControlSite@@IABU_GUID@@@Z:PROC ; CWnd::CreateControlSite
EXTRN	?SetOccDialogInfo@CWnd@@MAEHPAU_AFX_OCC_DIALOG_INFO@@@Z:PROC ; CWnd::SetOccDialogInfo
EXTRN	?GetOccDialogInfo@CWnd@@MAEPAU_AFX_OCC_DIALOG_INFO@@XZ:PROC ; CWnd::GetOccDialogInfo
EXTRN	?GetMessageMap@CWnd@@MBEPBUAFX_MSGMAP@@XZ:PROC	; CWnd::GetMessageMap
EXTRN	?GetRuntimeClass@CDialog@@UBEPAUCRuntimeClass@@XZ:PROC ; CDialog::GetRuntimeClass
EXTRN	?Create@CDialog@@UAEHPBDPAVCWnd@@@Z:PROC	; CDialog::Create
EXTRN	?CreateIndirect@CDialog@@UAEHPBUDLGTEMPLATE@@PAVCWnd@@PAX@Z:PROC ; CDialog::CreateIndirect
EXTRN	?CreateIndirect@CDialog@@UAEHPAXPAVCWnd@@@Z:PROC ; CDialog::CreateIndirect
EXTRN	??0CDialog@@QAE@IPAVCWnd@@@Z:PROC		; CDialog::CDialog
EXTRN	?DoModal@CDialog@@UAEHXZ:PROC			; CDialog::DoModal
EXTRN	?OnInitDialog@CDialog@@UAEHXZ:PROC		; CDialog::OnInitDialog
EXTRN	?OnSetFont@CDialog@@UAEXPAVCFont@@@Z:PROC	; CDialog::OnSetFont
EXTRN	?OnOK@CDialog@@MAEXXZ:PROC			; CDialog::OnOK
EXTRN	?OnCancel@CDialog@@MAEXXZ:PROC			; CDialog::OnCancel
EXTRN	??1CDialog@@UAE@XZ:PROC				; CDialog::~CDialog
EXTRN	?PreTranslateMessage@CDialog@@UAEHPAUtagMSG@@@Z:PROC ; CDialog::PreTranslateMessage
EXTRN	?OnCmdMsg@CDialog@@UAEHIHPAXPAUAFX_CMDHANDLERINFO@@@Z:PROC ; CDialog::OnCmdMsg
EXTRN	?CheckAutoCenter@CDialog@@UAEHXZ:PROC		; CDialog::CheckAutoCenter
EXTRN	?SetOccDialogInfo@CDialog@@MAEHPAU_AFX_OCC_DIALOG_INFO@@@Z:PROC ; CDialog::SetOccDialogInfo
EXTRN	?GetOccDialogInfo@CDialog@@MAEPAU_AFX_OCC_DIALOG_INFO@@XZ:PROC ; CDialog::GetOccDialogInfo
EXTRN	?PreInitDialog@CDialog@@MAEXXZ:PROC		; CDialog::PreInitDialog
EXTRN	?GetThisMessageMap@CDialog@@KGPBUAFX_MSGMAP@@XZ:PROC ; CDialog::GetThisMessageMap
EXTRN	?GetMessageMap@CDialog@@MBEPBUAFX_MSGMAP@@XZ:PROC ; CDialog::GetMessageMap
EXTRN	?GetRuntimeClass@CButton@@UBEPAUCRuntimeClass@@XZ:PROC ; CButton::GetRuntimeClass
EXTRN	?Create@CButton@@UAEHPBDKABUtagRECT@@PAVCWnd@@I@Z:PROC ; CButton::Create
EXTRN	?DrawItem@CButton@@UAEXPAUtagDRAWITEMSTRUCT@@@Z:PROC ; CButton::DrawItem
EXTRN	??1CButton@@UAE@XZ:PROC				; CButton::~CButton
EXTRN	?OnChildNotify@CButton@@MAEHIIJPAJ@Z:PROC	; CButton::OnChildNotify
EXTRN	??_ECButton@@UAEPAXI@Z:PROC			; CButton::`vector deleting destructor'
EXTRN	?AfxMessageBox@@YGHPBDII@Z:PROC			; AfxMessageBox
EXTRN	??_ECEscDialog@@UAEPAXI@Z:PROC			; CEscDialog::`vector deleting destructor'
EXTRN	??0CXTabCtrl@@QAE@XZ:PROC			; CXTabCtrl::CXTabCtrl
EXTRN	?AddTab@CXTabCtrl@@QAEXPAVCWnd@@PADH@Z:PROC	; CXTabCtrl::AddTab
EXTRN	?SetTopLeftCorner@CXTabCtrl@@QAEXVCPoint@@@Z:PROC ; CXTabCtrl::SetTopLeftCorner
EXTRN	?SetSelectedColor@CXTabCtrl@@QAEXKK@Z:PROC	; CXTabCtrl::SetSelectedColor
EXTRN	?SetNormalColor@CXTabCtrl@@QAEXKKK@Z:PROC	; CXTabCtrl::SetNormalColor
EXTRN	??1CXTabCtrl@@UAE@XZ:PROC			; CXTabCtrl::~CXTabCtrl
EXTRN	??0CTabSoonikChart@@QAE@PAVCWnd@@@Z:PROC	; CTabSoonikChart::CTabSoonikChart
EXTRN	??0CTabResult@@QAE@PAVCWnd@@@Z:PROC		; CTabResult::CTabResult
EXTRN	?MakeHtmlFile@CTabResult@@QAEXXZ:PROC		; CTabResult::MakeHtmlFile
EXTRN	?SetDataSpreadGrid@CTabResult@@QAEXXZ:PROC	; CTabResult::SetDataSpreadGrid
EXTRN	??0CTabSonikChart@@QAE@PAVCWnd@@@Z:PROC		; CTabSonikChart::CTabSonikChart
EXTRN	??0CTabStep@@QAE@PAVCWnd@@@Z:PROC		; CTabStep::CTabStep
EXTRN	?SetDataSpreadGrid@CTabStep@@QAEXXZ:PROC	; CTabStep::SetDataSpreadGrid
EXTRN	??0CTabTrade@@QAE@PAVCWnd@@@Z:PROC		; CTabTrade::CTabTrade
EXTRN	?MakeHtmlFile@CTabTrade@@QAEXXZ:PROC		; CTabTrade::MakeHtmlFile
EXTRN	?SetDataSpreadGrid@CTabTrade@@QAEXXZ:PROC	; CTabTrade::SetDataSpreadGrid
EXTRN	?SetDataToExcel@CTabTrade@@QAEXXZ:PROC		; CTabTrade::SetDataToExcel
EXTRN	??0CExDrawButton@@QAE@H@Z:PROC			; CExDrawButton::CExDrawButton
EXTRN	??1CExDrawButton@@UAE@XZ:PROC			; CExDrawButton::~CExDrawButton
EXTRN	??0CExComboBox@@QAE@H@Z:PROC			; CExComboBox::CExComboBox
EXTRN	??1CExComboBox@@UAE@XZ:PROC			; CExComboBox::~CExComboBox
EXTRN	??0CExStatic@@QAE@H@Z:PROC			; CExStatic::CExStatic
EXTRN	?SetStaticColor@CExStatic@@QAEHKKK@Z:PROC	; CExStatic::SetStaticColor
EXTRN	??1CExStatic@@UAE@XZ:PROC			; CExStatic::~CExStatic
EXTRN	??_E?$CArray@PAVCDlgInterface@@PAV1@@@UAEPAXI@Z:PROC ; CArray<CDlgInterface *,CDlgInterface *>::`vector deleting destructor'
EXTRN	??_E?$CArray@UST_DATAINDEX@@U1@@@UAEPAXI@Z:PROC	; CArray<ST_DATAINDEX,ST_DATAINDEX>::`vector deleting destructor'
EXTRN	??_ECInfoRight@@UAEPAXI@Z:PROC			; CInfoRight::`vector deleting destructor'
EXTRN	?SetCalculateData@CDlgAnalysis@@QAEXH@Z:PROC	; CDlgAnalysis::SetCalculateData
EXTRN	?Result@CDlgAnalysis@@QAEXXZ:PROC		; CDlgAnalysis::Result
EXTRN	@__security_check_cookie@4:PROC
EXTRN	___CxxFrameHandler3:PROC
EXTRN	_memcpy:PROC
EXTRN	_memset:PROC
EXTRN	??_7type_info@@6B@:QWORD			; type_info::`vftable'
EXTRN	___security_cookie:DWORD
_BSS	SEGMENT
?RMSG_GETSIGNAL_REAL@@3IB DD 01H DUP (?)		; RMSG_GETSIGNAL_REAL
?RMSG_SETQUERYOPT@@3IB DD 01H DUP (?)			; RMSG_SETQUERYOPT
?RMSG_CHARTMAIN@@3IB DD 01H DUP (?)			; RMSG_CHARTMAIN
?RMS_ANALYSIS_FUNC@@3IB DD 01H DUP (?)			; RMS_ANALYSIS_FUNC
?RMSG_GET_USERID@@3IB DD 01H DUP (?)			; RMSG_GET_USERID
?RMSG_CHANGE_SKINCOLOR@@3IB DD 01H DUP (?)		; RMSG_CHANGE_SKINCOLOR
?RMSG_GET_SKINCOLOR@@3IB DD 01H DUP (?)			; RMSG_GET_SKINCOLOR
?RMSG_CHANGEVERTSCALETYPE@@3IB DD 01H DUP (?)		; RMSG_CHANGEVERTSCALETYPE
?RMSG_CHANGE_CROSSLINE@@3IB DD 01H DUP (?)		; RMSG_CHANGE_CROSSLINE
?RMSG_ADD_PLATFORM_MENU@@3IB DD 01H DUP (?)		; RMSG_ADD_PLATFORM_MENU
?RMSG_SETINITIALCHARTDATA@@3IB DD 01H DUP (?)		; RMSG_SETINITIALCHARTDATA
?RMSG_GETINFO@@3IB DD 01H DUP (?)			; RMSG_GETINFO
?RMSG_SETINFO@@3IB DD 01H DUP (?)			; RMSG_SETINFO
?RMSG_INTERFACE@@3IB DD 01H DUP (?)			; RMSG_INTERFACE
?RMSG_GETPCTRDATA@@3IB DD 01H DUP (?)			; RMSG_GETPCTRDATA
?RMSG_SETPCTRDATA@@3IB DD 01H DUP (?)			; RMSG_SETPCTRDATA
_BSS	ENDS
CRT$XCU	SEGMENT
?RMSG_GETSIGNAL_REAL$initializer$@@3P6AXXZA DD FLAT:??__ERMSG_GETSIGNAL_REAL@@YAXXZ ; RMSG_GETSIGNAL_REAL$initializer$
CRT$XCU	ENDS
;	COMDAT __xmm@00000190000000000000000000000000
CONST	SEGMENT
__xmm@00000190000000000000000000000000 DB 00H, 00H, 00H, 00H, 00H, 00H, 00H
	DB	00H, 00H, 00H, 00H, 00H, 090H, 01H, 00H, 00H
CONST	ENDS
;	COMDAT ??_R1A@?0A@EA@?$CArray@UST_DATAINDEX@@U1@@@8
rdata$r	SEGMENT
??_R1A@?0A@EA@?$CArray@UST_DATAINDEX@@U1@@@8 DD FLAT:??_R0?AV?$CArray@UST_DATAINDEX@@U1@@@@8 ; CArray<ST_DATAINDEX,ST_DATAINDEX>::`RTTI Base Class Descriptor at (0,-1,0,64)'
	DD	01H
	DD	00H
	DD	0ffffffffH
	DD	00H
	DD	040H
	DD	FLAT:??_R3?$CArray@UST_DATAINDEX@@U1@@@8
rdata$r	ENDS
;	COMDAT ??_R2?$CArray@UST_DATAINDEX@@U1@@@8
rdata$r	SEGMENT
??_R2?$CArray@UST_DATAINDEX@@U1@@@8 DD FLAT:??_R1A@?0A@EA@?$CArray@UST_DATAINDEX@@U1@@@8 ; CArray<ST_DATAINDEX,ST_DATAINDEX>::`RTTI Base Class Array'
	DD	FLAT:??_R1A@?0A@EA@CObject@@8
rdata$r	ENDS
;	COMDAT ??_R3?$CArray@UST_DATAINDEX@@U1@@@8
rdata$r	SEGMENT
??_R3?$CArray@UST_DATAINDEX@@U1@@@8 DD 00H		; CArray<ST_DATAINDEX,ST_DATAINDEX>::`RTTI Class Hierarchy Descriptor'
	DD	00H
	DD	02H
	DD	FLAT:??_R2?$CArray@UST_DATAINDEX@@U1@@@8
rdata$r	ENDS
;	COMDAT ??_R0?AV?$CArray@UST_DATAINDEX@@U1@@@@8
data$rs	SEGMENT
??_R0?AV?$CArray@UST_DATAINDEX@@U1@@@@8 DD FLAT:??_7type_info@@6B@ ; CArray<ST_DATAINDEX,ST_DATAINDEX> `RTTI Type Descriptor'
	DD	00H
	DB	'.?AV?$CArray@UST_DATAINDEX@@U1@@@', 00H
data$rs	ENDS
;	COMDAT ??_R4?$CArray@UST_DATAINDEX@@U1@@@6B@
rdata$r	SEGMENT
??_R4?$CArray@UST_DATAINDEX@@U1@@@6B@ DD 00H		; CArray<ST_DATAINDEX,ST_DATAINDEX>::`RTTI Complete Object Locator'
	DD	00H
	DD	00H
	DD	FLAT:??_R0?AV?$CArray@UST_DATAINDEX@@U1@@@@8
	DD	FLAT:??_R3?$CArray@UST_DATAINDEX@@U1@@@8
rdata$r	ENDS
;	COMDAT ??_R1A@?0A@EA@?$CArray@PAVCDlgInterface@@PAV1@@@8
rdata$r	SEGMENT
??_R1A@?0A@EA@?$CArray@PAVCDlgInterface@@PAV1@@@8 DD FLAT:??_R0?AV?$CArray@PAVCDlgInterface@@PAV1@@@@8 ; CArray<CDlgInterface *,CDlgInterface *>::`RTTI Base Class Descriptor at (0,-1,0,64)'
	DD	01H
	DD	00H
	DD	0ffffffffH
	DD	00H
	DD	040H
	DD	FLAT:??_R3?$CArray@PAVCDlgInterface@@PAV1@@@8
rdata$r	ENDS
;	COMDAT ??_R2?$CArray@PAVCDlgInterface@@PAV1@@@8
rdata$r	SEGMENT
??_R2?$CArray@PAVCDlgInterface@@PAV1@@@8 DD FLAT:??_R1A@?0A@EA@?$CArray@PAVCDlgInterface@@PAV1@@@8 ; CArray<CDlgInterface *,CDlgInterface *>::`RTTI Base Class Array'
	DD	FLAT:??_R1A@?0A@EA@CObject@@8
rdata$r	ENDS
;	COMDAT ??_R3?$CArray@PAVCDlgInterface@@PAV1@@@8
rdata$r	SEGMENT
??_R3?$CArray@PAVCDlgInterface@@PAV1@@@8 DD 00H		; CArray<CDlgInterface *,CDlgInterface *>::`RTTI Class Hierarchy Descriptor'
	DD	00H
	DD	02H
	DD	FLAT:??_R2?$CArray@PAVCDlgInterface@@PAV1@@@8
rdata$r	ENDS
;	COMDAT ??_R0?AV?$CArray@PAVCDlgInterface@@PAV1@@@@8
data$rs	SEGMENT
??_R0?AV?$CArray@PAVCDlgInterface@@PAV1@@@@8 DD FLAT:??_7type_info@@6B@ ; CArray<CDlgInterface *,CDlgInterface *> `RTTI Type Descriptor'
	DD	00H
	DB	'.?AV?$CArray@PAVCDlgInterface@@PAV1@@@', 00H
data$rs	ENDS
;	COMDAT ??_R4?$CArray@PAVCDlgInterface@@PAV1@@@6B@
rdata$r	SEGMENT
??_R4?$CArray@PAVCDlgInterface@@PAV1@@@6B@ DD 00H	; CArray<CDlgInterface *,CDlgInterface *>::`RTTI Complete Object Locator'
	DD	00H
	DD	00H
	DD	FLAT:??_R0?AV?$CArray@PAVCDlgInterface@@PAV1@@@@8
	DD	FLAT:??_R3?$CArray@PAVCDlgInterface@@PAV1@@@8
rdata$r	ENDS
;	COMDAT ??_R1A@?0A@EA@CInfoRight@@8
rdata$r	SEGMENT
??_R1A@?0A@EA@CInfoRight@@8 DD FLAT:??_R0?AVCInfoRight@@@8 ; CInfoRight::`RTTI Base Class Descriptor at (0,-1,0,64)'
	DD	05H
	DD	00H
	DD	0ffffffffH
	DD	00H
	DD	040H
	DD	FLAT:??_R3CInfoRight@@8
rdata$r	ENDS
;	COMDAT ??_R2CInfoRight@@8
rdata$r	SEGMENT
??_R2CInfoRight@@8 DD FLAT:??_R1A@?0A@EA@CInfoRight@@8	; CInfoRight::`RTTI Base Class Array'
	DD	FLAT:??_R1A@?0A@EA@CEscDialog@@8
	DD	FLAT:??_R1A@?0A@EA@CDialog@@8
	DD	FLAT:??_R1A@?0A@EA@CWnd@@8
	DD	FLAT:??_R1A@?0A@EA@CCmdTarget@@8
	DD	FLAT:??_R1A@?0A@EA@CObject@@8
rdata$r	ENDS
;	COMDAT ??_R3CInfoRight@@8
rdata$r	SEGMENT
??_R3CInfoRight@@8 DD 00H				; CInfoRight::`RTTI Class Hierarchy Descriptor'
	DD	00H
	DD	06H
	DD	FLAT:??_R2CInfoRight@@8
rdata$r	ENDS
;	COMDAT ??_R0?AVCInfoRight@@@8
data$rs	SEGMENT
??_R0?AVCInfoRight@@@8 DD FLAT:??_7type_info@@6B@	; CInfoRight `RTTI Type Descriptor'
	DD	00H
	DB	'.?AVCInfoRight@@', 00H
data$rs	ENDS
;	COMDAT ??_R4CInfoRight@@6B@
rdata$r	SEGMENT
??_R4CInfoRight@@6B@ DD 00H				; CInfoRight::`RTTI Complete Object Locator'
	DD	00H
	DD	00H
	DD	FLAT:??_R0?AVCInfoRight@@@8
	DD	FLAT:??_R3CInfoRight@@8
rdata$r	ENDS
;	COMDAT ??_C@_0N@HEBKHCBM@?$LM?U?$MA?M?$LK?P?F?w?B?w?F?$KO@
CONST	SEGMENT
??_C@_0N@HEBKHCBM@?$LM?U?$MA?M?$LK?P?F?w?B?w?F?$KO@ DB 0bcH, 0d5H, 0c0H, 0cdH
	DB	0baH, 0d0H, 0c6H, 0f7H, 0c2H, 0f7H, 0c6H, 0aeH, 00H ; `string'
CONST	ENDS
;	COMDAT ??_C@_0L@CPJPEJFL@?$LM?v?$MA?M?$LH?$PM?B?w?F?$KO@
CONST	SEGMENT
??_C@_0L@CPJPEJFL@?$LM?v?$MA?M?$LH?$PM?B?w?F?$KO@ DB 0bcH, 0f6H, 0c0H, 0cdH
	DB	0b7H, 0fcH, 0c2H, 0f7H, 0c6H, 0aeH, 00H	; `string'
CONST	ENDS
;	COMDAT ??_C@_08INENBIFG@?$LI?E?$LI?E?$LD?$LL?$LP?$KK@
CONST	SEGMENT
??_C@_08INENBIFG@?$LI?E?$LI?E?$LD?$LL?$LP?$KK@ DB 0b8H, 0c5H, 0b8H, 0c5H, 0b3H
	DB	0bbH, 0bfH, 0aaH, 00H			; `string'
CONST	ENDS
;	COMDAT ??_C@_08BKLNNJGI@?$MA?$PM?A?x?$LK?P?$LM?$KO@
CONST	SEGMENT
??_C@_08BKLNNJGI@?$MA?$PM?A?x?$LK?P?$LM?$KO@ DB 0c0H, 0fcH, 0c1H, 0f8H, 0baH
	DB	0d0H, 0bcH, 0aeH, 00H			; `string'
CONST	ENDS
;	COMDAT ??_C@_08OEAPFIFH@?$LM?$LK?$LA?z?$LK?P?$LM?$KO@
CONST	SEGMENT
??_C@_08OEAPFIFH@?$LM?$LK?$LA?z?$LK?P?$LM?$KO@ DB 0bcH, 0baH, 0b0H, 0faH, 0baH
	DB	0d0H, 0bcH, 0aeH, 00H			; `string'
CONST	ENDS
;	COMDAT ??_C@_06MFMMLLPC@?$LB?$LM?$LI?$LC?C?$LM@
CONST	SEGMENT
??_C@_06MFMMLLPC@?$LB?$LM?$LI?$LC?C?$LM@ DB 0b1H, 0bcH, 0b8H, 0b2H, 0c3H, 0bcH
	DB	00H						; `string'
CONST	ENDS
;	COMDAT ??_C@_04MHOBIAIL@?$MA?$PM?C?$LM@
CONST	SEGMENT
??_C@_04MHOBIAIL@?$MA?$PM?C?$LM@ DB 0c0H, 0fcH, 0c3H, 0bcH, 00H ; `string'
CONST	ENDS
;	COMDAT ??_C@_0BG@CHJJKIAP@ChartSTIndexAddIn?4dll@
CONST	SEGMENT
??_C@_0BG@CHJJKIAP@ChartSTIndexAddIn?4dll@ DB 'ChartSTIndexAddIn.dll', 00H ; `string'
CONST	ENDS
;	COMDAT ?messageMap@?1??GetThisMessageMap@CInfoRight@@KGPBUAFX_MSGMAP@@XZ@4U3@B
CONST	SEGMENT
?messageMap@?1??GetThisMessageMap@CInfoRight@@KGPBUAFX_MSGMAP@@XZ@4U3@B DD FLAT:?GetThisMessageMap@CDialog@@KGPBUAFX_MSGMAP@@XZ ; `CInfoRight::GetThisMessageMap'::`2'::messageMap
	DD	FLAT:?_messageEntries@?1??GetThisMessageMap@CInfoRight@@KGPBUAFX_MSGMAP@@XZ@4QBUAFX_MSGMAP_ENTRY@@B
CONST	ENDS
;	COMDAT ?_messageEntries@?1??GetThisMessageMap@CInfoRight@@KGPBUAFX_MSGMAP@@XZ@4QBUAFX_MSGMAP_ENTRY@@B
CONST	SEGMENT
?_messageEntries@?1??GetThisMessageMap@CInfoRight@@KGPBUAFX_MSGMAP@@XZ@4QBUAFX_MSGMAP_ENTRY@@B DD 0111H ; `CInfoRight::GetThisMessageMap'::`2'::_messageEntries
	DD	00H
	DD	0bb9H
	DD	0bb9H
	DD	03aH
	DD	FLAT:?OnBtnShow@CInfoRight@@IAEXXZ
	DD	02H
	DD	00H
	DD	00H
	DD	00H
	DD	013H
	DD	FLAT:?OnDestroy@CInfoRight@@IAEXXZ
	DD	019H
	DD	00H
	DD	00H
	DD	00H
	DD	08H
	DD	FLAT:?OnCtlColor@CInfoRight@@IAEPAUHBRUSH__@@PAVCDC@@PAVCWnd@@I@Z
	DD	0111H
	DD	00H
	DD	0bc3H
	DD	0bc3H
	DD	03aH
	DD	FLAT:?OnBtnExportExcel@CInfoRight@@IAEXXZ
	DD	0111H
	DD	01H
	DD	0be2H
	DD	0be2H
	DD	03aH
	DD	FLAT:?OnCbnSelchangeComboDivide@CInfoRight@@QAEXXZ
	DD	04eH
	DD	0fffeH
	DD	0bc4H
	DD	0bc4H
	DD	03eH
	DD	FLAT:?OnNMClickTab1@CInfoRight@@QAEXPAUtagNMHDR@@PAJ@Z
	DD	00H
	DD	00H
	DD	00H
	DD	00H
	DD	00H
	DD	00H
CONST	ENDS
;	COMDAT ??_7CInfoRight@@6B@
CONST	SEGMENT
??_7CInfoRight@@6B@ DD FLAT:??_R4CInfoRight@@6B@	; CInfoRight::`vftable'
	DD	FLAT:?GetRuntimeClass@CDialog@@UBEPAUCRuntimeClass@@XZ
	DD	FLAT:??_ECInfoRight@@UAEPAXI@Z
	DD	FLAT:?Serialize@CObject@@UAEXAAVCArchive@@@Z
	DD	FLAT:?AssertValid@CObject@@UBEXXZ
	DD	FLAT:?Dump@CObject@@UBEXAAVCDumpContext@@@Z
	DD	FLAT:?OnCmdMsg@CDialog@@UAEHIHPAXPAUAFX_CMDHANDLERINFO@@@Z
	DD	FLAT:?OnFinalRelease@CWnd@@UAEXXZ
	DD	FLAT:?IsInvokeAllowed@CCmdTarget@@UAEHJ@Z
	DD	FLAT:?GetDispatchIID@CCmdTarget@@UAEHPAU_GUID@@@Z
	DD	FLAT:?GetTypeInfoCount@CCmdTarget@@UAEIXZ
	DD	FLAT:?GetTypeLibCache@CCmdTarget@@UAEPAVCTypeLibCache@@XZ
	DD	FLAT:?GetTypeLib@CCmdTarget@@UAEJKPAPAUITypeLib@@@Z
	DD	FLAT:?GetMessageMap@CInfoRight@@MBEPBUAFX_MSGMAP@@XZ
	DD	FLAT:?GetCommandMap@CCmdTarget@@MBEPBUAFX_OLECMDMAP@@XZ
	DD	FLAT:?GetDispatchMap@CCmdTarget@@MBEPBUAFX_DISPMAP@@XZ
	DD	FLAT:?GetConnectionMap@CCmdTarget@@MBEPBUAFX_CONNECTIONMAP@@XZ
	DD	FLAT:?GetInterfaceMap@CWnd@@MBEPBUAFX_INTERFACEMAP@@XZ
	DD	FLAT:?GetEventSinkMap@CInfoRight@@MBEPBUAFX_EVENTSINKMAP@@XZ
	DD	FLAT:?OnCreateAggregates@CCmdTarget@@UAEHXZ
	DD	FLAT:?GetInterfaceHook@CCmdTarget@@UAEPAUIUnknown@@PBX@Z
	DD	FLAT:?GetExtraConnectionPoints@CCmdTarget@@MAEHPAVCPtrArray@@@Z
	DD	FLAT:?GetConnectionHook@CCmdTarget@@MAEPAUIConnectionPoint@@ABU_GUID@@@Z
	DD	FLAT:?PreSubclassWindow@CWnd@@UAEXXZ
	DD	FLAT:?Create@CWnd@@UAEHPBD0KABUtagRECT@@PAV1@IPAUCCreateContext@@@Z
	DD	FLAT:?CreateEx@CWnd@@UAEHKPBD0KABUtagRECT@@PAV1@IPAX@Z
	DD	FLAT:?CreateEx@CWnd@@UAEHKPBD0KHHHHPAUHWND__@@PAUHMENU__@@PAX@Z
	DD	FLAT:?DestroyWindow@CWnd@@UAEHXZ
	DD	FLAT:?PreCreateWindow@CWnd@@UAEHAAUtagCREATESTRUCTA@@@Z
	DD	FLAT:?CalcWindowRect@CWnd@@UAEXPAUtagRECT@@I@Z
	DD	FLAT:?GetMenu@CWnd@@UBEPAVCMenu@@XZ
	DD	FLAT:?SetMenu@CWnd@@UAEHPAVCMenu@@@Z
	DD	FLAT:?OnToolHitTest@CWnd@@UBEHVCPoint@@PAUtagTOOLINFOA@@@Z
	DD	FLAT:?GetScrollBarCtrl@CWnd@@UBEPAVCScrollBar@@H@Z
	DD	FLAT:?WinHelpA@CWnd@@UAEXKI@Z
	DD	FLAT:?HtmlHelpA@CWnd@@UAEXKI@Z
	DD	FLAT:?WinHelpInternal@CWnd@@UAEXKI@Z
	DD	FLAT:?ContinueModal@CWnd@@UAEHXZ
	DD	FLAT:?EndModalLoop@CWnd@@UAEXH@Z
	DD	FLAT:?OnDrawIconicThumbnailOrLivePreview@CWnd@@UAEXAAVCDC@@VCRect@@VCSize@@HAAH@Z
	DD	FLAT:?EnsureStdObj@CWnd@@UAEJXZ
	DD	FLAT:?get_accParent@CWnd@@UAEJPAPAUIDispatch@@@Z
	DD	FLAT:?get_accChildCount@CWnd@@UAEJPAJ@Z
	DD	FLAT:?get_accChild@CWnd@@UAEJUtagVARIANT@@PAPAUIDispatch@@@Z
	DD	FLAT:?get_accName@CWnd@@UAEJUtagVARIANT@@PAPA_W@Z
	DD	FLAT:?get_accValue@CWnd@@UAEJUtagVARIANT@@PAPA_W@Z
	DD	FLAT:?get_accDescription@CWnd@@UAEJUtagVARIANT@@PAPA_W@Z
	DD	FLAT:?get_accRole@CWnd@@UAEJUtagVARIANT@@PAU2@@Z
	DD	FLAT:?get_accState@CWnd@@UAEJUtagVARIANT@@PAU2@@Z
	DD	FLAT:?get_accHelp@CWnd@@UAEJUtagVARIANT@@PAPA_W@Z
	DD	FLAT:?get_accHelpTopic@CWnd@@UAEJPAPA_WUtagVARIANT@@PAJ@Z
	DD	FLAT:?get_accKeyboardShortcut@CWnd@@UAEJUtagVARIANT@@PAPA_W@Z
	DD	FLAT:?get_accFocus@CWnd@@UAEJPAUtagVARIANT@@@Z
	DD	FLAT:?get_accSelection@CWnd@@UAEJPAUtagVARIANT@@@Z
	DD	FLAT:?get_accDefaultAction@CWnd@@UAEJUtagVARIANT@@PAPA_W@Z
	DD	FLAT:?accSelect@CWnd@@UAEJJUtagVARIANT@@@Z
	DD	FLAT:?accLocation@CWnd@@UAEJPAJ000UtagVARIANT@@@Z
	DD	FLAT:?accNavigate@CWnd@@UAEJJUtagVARIANT@@PAU2@@Z
	DD	FLAT:?accHitTest@CWnd@@UAEJJJPAUtagVARIANT@@@Z
	DD	FLAT:?accDoDefaultAction@CWnd@@UAEJUtagVARIANT@@@Z
	DD	FLAT:?put_accName@CWnd@@UAEJUtagVARIANT@@PA_W@Z
	DD	FLAT:?put_accValue@CWnd@@UAEJUtagVARIANT@@PA_W@Z
	DD	FLAT:?SetProxy@CWnd@@UAEJPAUIAccessibleProxy@@@Z
	DD	FLAT:?CreateAccessibleProxy@CWnd@@UAEJIJPAJ@Z
	DD	FLAT:?OnCommand@CWnd@@MAEHIJ@Z
	DD	FLAT:?OnNotify@CWnd@@MAEHIJPAJ@Z
	DD	FLAT:?GetSuperWndProcAddr@CWnd@@MAEPAP6GJPAUHWND__@@IIJ@ZXZ
	DD	FLAT:?DoDataExchange@CInfoRight@@MAEXPAVCDataExchange@@@Z
	DD	FLAT:?BeginModalState@CWnd@@UAEXXZ
	DD	FLAT:?EndModalState@CWnd@@UAEXXZ
	DD	FLAT:?PreTranslateMessage@CEscDialog@@MAEHPAUtagMSG@@@Z
	DD	FLAT:?OnAmbientProperty@CWnd@@UAEHPAVCOleControlSite@@JPAUtagVARIANT@@@Z
	DD	FLAT:?WindowProc@CWnd@@MAEJIIJ@Z
	DD	FLAT:?OnWndMsg@CWnd@@MAEHIIJPAJ@Z
	DD	FLAT:?DefWindowProcA@CWnd@@MAEJIIJ@Z
	DD	FLAT:?PostNcDestroy@CWnd@@MAEXXZ
	DD	FLAT:?OnChildNotify@CWnd@@MAEHIIJPAJ@Z
	DD	FLAT:?OnTouchInputs@CWnd@@MAEHIPAUtagTOUCHINPUT@@@Z
	DD	FLAT:?OnTouchInput@CWnd@@MAEHVCPoint@@HHPAUtagTOUCHINPUT@@@Z
	DD	FLAT:?GetGestureStatus@CWnd@@MAEKVCPoint@@@Z
	DD	FLAT:?OnGestureZoom@CWnd@@MAEHVCPoint@@J@Z
	DD	FLAT:?OnGesturePan@CWnd@@MAEHVCPoint@@0@Z
	DD	FLAT:?OnGestureRotate@CWnd@@MAEHVCPoint@@N@Z
	DD	FLAT:?OnGestureTwoFingerTap@CWnd@@MAEHVCPoint@@@Z
	DD	FLAT:?OnGesturePressAndTap@CWnd@@MAEHVCPoint@@J@Z
	DD	FLAT:?ResizeDynamicLayout@CWnd@@MAEXXZ
	DD	FLAT:?CheckAutoCenter@CDialog@@UAEHXZ
	DD	FLAT:?IsFrameWnd@CWnd@@UBEHXZ
	DD	FLAT:?CreateControlContainer@CWnd@@MAEHPAPAVCOleControlContainer@@@Z
	DD	FLAT:?CreateControlSite@CWnd@@MAEHPAVCOleControlContainer@@PAPAVCOleControlSite@@IABU_GUID@@@Z
	DD	FLAT:?SetOccDialogInfo@CDialog@@MAEHPAU_AFX_OCC_DIALOG_INFO@@@Z
	DD	FLAT:?GetOccDialogInfo@CDialog@@MAEPAU_AFX_OCC_DIALOG_INFO@@XZ
	DD	FLAT:?Create@CDialog@@UAEHIPAVCWnd@@@Z
	DD	FLAT:?Create@CDialog@@UAEHPBDPAVCWnd@@@Z
	DD	FLAT:?CreateIndirect@CDialog@@UAEHPAXPAVCWnd@@@Z
	DD	FLAT:?CreateIndirect@CDialog@@UAEHPBUDLGTEMPLATE@@PAVCWnd@@PAX@Z
	DD	FLAT:?DoModal@CDialog@@UAEHXZ
	DD	FLAT:?OnInitDialog@CInfoRight@@MAEHXZ
	DD	FLAT:?OnSetFont@CDialog@@UAEXPAVCFont@@@Z
	DD	FLAT:?OnOK@CDialog@@MAEXXZ
	DD	FLAT:?OnCancel@CDialog@@MAEXXZ
	DD	FLAT:?PreInitDialog@CDialog@@MAEXXZ
CONST	ENDS
;	COMDAT ??_7?$CArray@UST_DATAINDEX@@U1@@@6B@
CONST	SEGMENT
??_7?$CArray@UST_DATAINDEX@@U1@@@6B@ DD FLAT:??_R4?$CArray@UST_DATAINDEX@@U1@@@6B@ ; CArray<ST_DATAINDEX,ST_DATAINDEX>::`vftable'
	DD	FLAT:?GetRuntimeClass@CObject@@UBEPAUCRuntimeClass@@XZ
	DD	FLAT:??_E?$CArray@UST_DATAINDEX@@U1@@@UAEPAXI@Z
	DD	FLAT:?Serialize@?$CArray@UST_DATAINDEX@@U1@@@UAEXAAVCArchive@@@Z
	DD	FLAT:?AssertValid@CObject@@UBEXXZ
	DD	FLAT:?Dump@CObject@@UBEXAAVCDumpContext@@@Z
CONST	ENDS
;	COMDAT ??_7?$CArray@PAVCDlgInterface@@PAV1@@@6B@
CONST	SEGMENT
??_7?$CArray@PAVCDlgInterface@@PAV1@@@6B@ DD FLAT:??_R4?$CArray@PAVCDlgInterface@@PAV1@@@6B@ ; CArray<CDlgInterface *,CDlgInterface *>::`vftable'
	DD	FLAT:?GetRuntimeClass@CObject@@UBEPAUCRuntimeClass@@XZ
	DD	FLAT:??_E?$CArray@PAVCDlgInterface@@PAV1@@@UAEPAXI@Z
	DD	FLAT:?Serialize@?$CArray@PAVCDlgInterface@@PAV1@@@UAEXAAVCArchive@@@Z
	DD	FLAT:?AssertValid@CObject@@UBEXXZ
	DD	FLAT:?Dump@CObject@@UBEXAAVCDumpContext@@@Z
CONST	ENDS
;	COMDAT ?eventsinkMap@CInfoRight@@1UAFX_EVENTSINKMAP@@B
CONST	SEGMENT
?eventsinkMap@CInfoRight@@1UAFX_EVENTSINKMAP@@B DD FLAT:?GetThisEventSinkMap@CCmdTarget@@KGPBUAFX_EVENTSINKMAP@@XZ ; CInfoRight::eventsinkMap
	DD	FLAT:?_eventsinkEntries@CInfoRight@@0QBUAFX_EVENTSINKMAP_ENTRY@@B
	DD	FLAT:?_eventsinkEntryCount@CInfoRight@@0IA
CONST	ENDS
;	COMDAT ??_R1A@?0A@EA@CEscDialog@@8
rdata$r	SEGMENT
??_R1A@?0A@EA@CEscDialog@@8 DD FLAT:??_R0?AVCEscDialog@@@8 ; CEscDialog::`RTTI Base Class Descriptor at (0,-1,0,64)'
	DD	04H
	DD	00H
	DD	0ffffffffH
	DD	00H
	DD	040H
	DD	FLAT:??_R3CEscDialog@@8
rdata$r	ENDS
;	COMDAT ??_R2CEscDialog@@8
rdata$r	SEGMENT
??_R2CEscDialog@@8 DD FLAT:??_R1A@?0A@EA@CEscDialog@@8	; CEscDialog::`RTTI Base Class Array'
	DD	FLAT:??_R1A@?0A@EA@CDialog@@8
	DD	FLAT:??_R1A@?0A@EA@CWnd@@8
	DD	FLAT:??_R1A@?0A@EA@CCmdTarget@@8
	DD	FLAT:??_R1A@?0A@EA@CObject@@8
rdata$r	ENDS
;	COMDAT ??_R3CEscDialog@@8
rdata$r	SEGMENT
??_R3CEscDialog@@8 DD 00H				; CEscDialog::`RTTI Class Hierarchy Descriptor'
	DD	00H
	DD	05H
	DD	FLAT:??_R2CEscDialog@@8
rdata$r	ENDS
;	COMDAT ??_R0?AVCEscDialog@@@8
data$rs	SEGMENT
??_R0?AVCEscDialog@@@8 DD FLAT:??_7type_info@@6B@	; CEscDialog `RTTI Type Descriptor'
	DD	00H
	DB	'.?AVCEscDialog@@', 00H
data$rs	ENDS
;	COMDAT ??_R4CEscDialog@@6B@
rdata$r	SEGMENT
??_R4CEscDialog@@6B@ DD 00H				; CEscDialog::`RTTI Complete Object Locator'
	DD	00H
	DD	00H
	DD	FLAT:??_R0?AVCEscDialog@@@8
	DD	FLAT:??_R3CEscDialog@@8
rdata$r	ENDS
;	COMDAT ??_R2CDialog@@8
rdata$r	SEGMENT
??_R2CDialog@@8 DD FLAT:??_R1A@?0A@EA@CDialog@@8	; CDialog::`RTTI Base Class Array'
	DD	FLAT:??_R1A@?0A@EA@CWnd@@8
	DD	FLAT:??_R1A@?0A@EA@CCmdTarget@@8
	DD	FLAT:??_R1A@?0A@EA@CObject@@8
rdata$r	ENDS
;	COMDAT ??_R3CDialog@@8
rdata$r	SEGMENT
??_R3CDialog@@8 DD 00H					; CDialog::`RTTI Class Hierarchy Descriptor'
	DD	00H
	DD	04H
	DD	FLAT:??_R2CDialog@@8
rdata$r	ENDS
;	COMDAT ??_R0?AVCDialog@@@8
data$rs	SEGMENT
??_R0?AVCDialog@@@8 DD FLAT:??_7type_info@@6B@		; CDialog `RTTI Type Descriptor'
	DD	00H
	DB	'.?AVCDialog@@', 00H
data$rs	ENDS
;	COMDAT ??_R1A@?0A@EA@CDialog@@8
rdata$r	SEGMENT
??_R1A@?0A@EA@CDialog@@8 DD FLAT:??_R0?AVCDialog@@@8	; CDialog::`RTTI Base Class Descriptor at (0,-1,0,64)'
	DD	03H
	DD	00H
	DD	0ffffffffH
	DD	00H
	DD	040H
	DD	FLAT:??_R3CDialog@@8
rdata$r	ENDS
;	COMDAT ??_R1A@?0A@EA@CButton@@8
rdata$r	SEGMENT
??_R1A@?0A@EA@CButton@@8 DD FLAT:??_R0?AVCButton@@@8	; CButton::`RTTI Base Class Descriptor at (0,-1,0,64)'
	DD	03H
	DD	00H
	DD	0ffffffffH
	DD	00H
	DD	040H
	DD	FLAT:??_R3CButton@@8
rdata$r	ENDS
;	COMDAT ??_R2CButton@@8
rdata$r	SEGMENT
??_R2CButton@@8 DD FLAT:??_R1A@?0A@EA@CButton@@8	; CButton::`RTTI Base Class Array'
	DD	FLAT:??_R1A@?0A@EA@CWnd@@8
	DD	FLAT:??_R1A@?0A@EA@CCmdTarget@@8
	DD	FLAT:??_R1A@?0A@EA@CObject@@8
rdata$r	ENDS
;	COMDAT ??_R3CButton@@8
rdata$r	SEGMENT
??_R3CButton@@8 DD 00H					; CButton::`RTTI Class Hierarchy Descriptor'
	DD	00H
	DD	04H
	DD	FLAT:??_R2CButton@@8
rdata$r	ENDS
;	COMDAT ??_R0?AVCButton@@@8
data$rs	SEGMENT
??_R0?AVCButton@@@8 DD FLAT:??_7type_info@@6B@		; CButton `RTTI Type Descriptor'
	DD	00H
	DB	'.?AVCButton@@', 00H
data$rs	ENDS
;	COMDAT ??_R4CButton@@6B@
rdata$r	SEGMENT
??_R4CButton@@6B@ DD 00H				; CButton::`RTTI Complete Object Locator'
	DD	00H
	DD	00H
	DD	FLAT:??_R0?AVCButton@@@8
	DD	FLAT:??_R3CButton@@8
rdata$r	ENDS
;	COMDAT ??_R2CCmdTarget@@8
rdata$r	SEGMENT
??_R2CCmdTarget@@8 DD FLAT:??_R1A@?0A@EA@CCmdTarget@@8	; CCmdTarget::`RTTI Base Class Array'
	DD	FLAT:??_R1A@?0A@EA@CObject@@8
rdata$r	ENDS
;	COMDAT ??_R3CCmdTarget@@8
rdata$r	SEGMENT
??_R3CCmdTarget@@8 DD 00H				; CCmdTarget::`RTTI Class Hierarchy Descriptor'
	DD	00H
	DD	02H
	DD	FLAT:??_R2CCmdTarget@@8
rdata$r	ENDS
;	COMDAT ??_R0?AVCCmdTarget@@@8
data$rs	SEGMENT
??_R0?AVCCmdTarget@@@8 DD FLAT:??_7type_info@@6B@	; CCmdTarget `RTTI Type Descriptor'
	DD	00H
	DB	'.?AVCCmdTarget@@', 00H
data$rs	ENDS
;	COMDAT ??_R1A@?0A@EA@CCmdTarget@@8
rdata$r	SEGMENT
??_R1A@?0A@EA@CCmdTarget@@8 DD FLAT:??_R0?AVCCmdTarget@@@8 ; CCmdTarget::`RTTI Base Class Descriptor at (0,-1,0,64)'
	DD	01H
	DD	00H
	DD	0ffffffffH
	DD	00H
	DD	040H
	DD	FLAT:??_R3CCmdTarget@@8
rdata$r	ENDS
;	COMDAT ??_R2CWnd@@8
rdata$r	SEGMENT
??_R2CWnd@@8 DD	FLAT:??_R1A@?0A@EA@CWnd@@8		; CWnd::`RTTI Base Class Array'
	DD	FLAT:??_R1A@?0A@EA@CCmdTarget@@8
	DD	FLAT:??_R1A@?0A@EA@CObject@@8
rdata$r	ENDS
;	COMDAT ??_R3CWnd@@8
rdata$r	SEGMENT
??_R3CWnd@@8 DD	00H					; CWnd::`RTTI Class Hierarchy Descriptor'
	DD	00H
	DD	03H
	DD	FLAT:??_R2CWnd@@8
rdata$r	ENDS
;	COMDAT ??_R0?AVCWnd@@@8
data$rs	SEGMENT
??_R0?AVCWnd@@@8 DD FLAT:??_7type_info@@6B@		; CWnd `RTTI Type Descriptor'
	DD	00H
	DB	'.?AVCWnd@@', 00H
data$rs	ENDS
;	COMDAT ??_R1A@?0A@EA@CWnd@@8
rdata$r	SEGMENT
??_R1A@?0A@EA@CWnd@@8 DD FLAT:??_R0?AVCWnd@@@8		; CWnd::`RTTI Base Class Descriptor at (0,-1,0,64)'
	DD	02H
	DD	00H
	DD	0ffffffffH
	DD	00H
	DD	040H
	DD	FLAT:??_R3CWnd@@8
rdata$r	ENDS
;	COMDAT ??_R1A@?0A@EA@CFont@@8
rdata$r	SEGMENT
??_R1A@?0A@EA@CFont@@8 DD FLAT:??_R0?AVCFont@@@8	; CFont::`RTTI Base Class Descriptor at (0,-1,0,64)'
	DD	02H
	DD	00H
	DD	0ffffffffH
	DD	00H
	DD	040H
	DD	FLAT:??_R3CFont@@8
rdata$r	ENDS
;	COMDAT ??_R2CFont@@8
rdata$r	SEGMENT
??_R2CFont@@8 DD FLAT:??_R1A@?0A@EA@CFont@@8		; CFont::`RTTI Base Class Array'
	DD	FLAT:??_R1A@?0A@EA@CGdiObject@@8
	DD	FLAT:??_R1A@?0A@EA@CObject@@8
rdata$r	ENDS
;	COMDAT ??_R3CFont@@8
rdata$r	SEGMENT
??_R3CFont@@8 DD 00H					; CFont::`RTTI Class Hierarchy Descriptor'
	DD	00H
	DD	03H
	DD	FLAT:??_R2CFont@@8
rdata$r	ENDS
;	COMDAT ??_R0?AVCFont@@@8
data$rs	SEGMENT
??_R0?AVCFont@@@8 DD FLAT:??_7type_info@@6B@		; CFont `RTTI Type Descriptor'
	DD	00H
	DB	'.?AVCFont@@', 00H
data$rs	ENDS
;	COMDAT ??_R4CFont@@6B@
rdata$r	SEGMENT
??_R4CFont@@6B@ DD 00H					; CFont::`RTTI Complete Object Locator'
	DD	00H
	DD	00H
	DD	FLAT:??_R0?AVCFont@@@8
	DD	FLAT:??_R3CFont@@8
rdata$r	ENDS
;	COMDAT ??_R1A@?0A@EA@CBrush@@8
rdata$r	SEGMENT
??_R1A@?0A@EA@CBrush@@8 DD FLAT:??_R0?AVCBrush@@@8	; CBrush::`RTTI Base Class Descriptor at (0,-1,0,64)'
	DD	02H
	DD	00H
	DD	0ffffffffH
	DD	00H
	DD	040H
	DD	FLAT:??_R3CBrush@@8
rdata$r	ENDS
;	COMDAT ??_R2CBrush@@8
rdata$r	SEGMENT
??_R2CBrush@@8 DD FLAT:??_R1A@?0A@EA@CBrush@@8		; CBrush::`RTTI Base Class Array'
	DD	FLAT:??_R1A@?0A@EA@CGdiObject@@8
	DD	FLAT:??_R1A@?0A@EA@CObject@@8
rdata$r	ENDS
;	COMDAT ??_R3CBrush@@8
rdata$r	SEGMENT
??_R3CBrush@@8 DD 00H					; CBrush::`RTTI Class Hierarchy Descriptor'
	DD	00H
	DD	03H
	DD	FLAT:??_R2CBrush@@8
rdata$r	ENDS
;	COMDAT ??_R0?AVCBrush@@@8
data$rs	SEGMENT
??_R0?AVCBrush@@@8 DD FLAT:??_7type_info@@6B@		; CBrush `RTTI Type Descriptor'
	DD	00H
	DB	'.?AVCBrush@@', 00H
data$rs	ENDS
;	COMDAT ??_R4CBrush@@6B@
rdata$r	SEGMENT
??_R4CBrush@@6B@ DD 00H					; CBrush::`RTTI Complete Object Locator'
	DD	00H
	DD	00H
	DD	FLAT:??_R0?AVCBrush@@@8
	DD	FLAT:??_R3CBrush@@8
rdata$r	ENDS
;	COMDAT ??_R1A@?0A@EA@CGdiObject@@8
rdata$r	SEGMENT
??_R1A@?0A@EA@CGdiObject@@8 DD FLAT:??_R0?AVCGdiObject@@@8 ; CGdiObject::`RTTI Base Class Descriptor at (0,-1,0,64)'
	DD	01H
	DD	00H
	DD	0ffffffffH
	DD	00H
	DD	040H
	DD	FLAT:??_R3CGdiObject@@8
rdata$r	ENDS
;	COMDAT ??_R2CGdiObject@@8
rdata$r	SEGMENT
??_R2CGdiObject@@8 DD FLAT:??_R1A@?0A@EA@CGdiObject@@8	; CGdiObject::`RTTI Base Class Array'
	DD	FLAT:??_R1A@?0A@EA@CObject@@8
rdata$r	ENDS
;	COMDAT ??_R3CGdiObject@@8
rdata$r	SEGMENT
??_R3CGdiObject@@8 DD 00H				; CGdiObject::`RTTI Class Hierarchy Descriptor'
	DD	00H
	DD	02H
	DD	FLAT:??_R2CGdiObject@@8
rdata$r	ENDS
;	COMDAT ??_R0?AVCGdiObject@@@8
data$rs	SEGMENT
??_R0?AVCGdiObject@@@8 DD FLAT:??_7type_info@@6B@	; CGdiObject `RTTI Type Descriptor'
	DD	00H
	DB	'.?AVCGdiObject@@', 00H
data$rs	ENDS
;	COMDAT ??_R4CGdiObject@@6B@
rdata$r	SEGMENT
??_R4CGdiObject@@6B@ DD 00H				; CGdiObject::`RTTI Complete Object Locator'
	DD	00H
	DD	00H
	DD	FLAT:??_R0?AVCGdiObject@@@8
	DD	FLAT:??_R3CGdiObject@@8
rdata$r	ENDS
;	COMDAT ??_R1A@?0A@EA@CObject@@8
rdata$r	SEGMENT
??_R1A@?0A@EA@CObject@@8 DD FLAT:??_R0?AVCObject@@@8	; CObject::`RTTI Base Class Descriptor at (0,-1,0,64)'
	DD	00H
	DD	00H
	DD	0ffffffffH
	DD	00H
	DD	040H
	DD	FLAT:??_R3CObject@@8
rdata$r	ENDS
;	COMDAT ??_R2CObject@@8
rdata$r	SEGMENT
??_R2CObject@@8 DD FLAT:??_R1A@?0A@EA@CObject@@8	; CObject::`RTTI Base Class Array'
rdata$r	ENDS
;	COMDAT ??_R3CObject@@8
rdata$r	SEGMENT
??_R3CObject@@8 DD 00H					; CObject::`RTTI Class Hierarchy Descriptor'
	DD	00H
	DD	01H
	DD	FLAT:??_R2CObject@@8
rdata$r	ENDS
;	COMDAT ??_R0?AVCObject@@@8
data$rs	SEGMENT
??_R0?AVCObject@@@8 DD FLAT:??_7type_info@@6B@		; CObject `RTTI Type Descriptor'
	DD	00H
	DB	'.?AVCObject@@', 00H
data$rs	ENDS
;	COMDAT ??_7CEscDialog@@6B@
CONST	SEGMENT
??_7CEscDialog@@6B@ DD FLAT:??_R4CEscDialog@@6B@	; CEscDialog::`vftable'
	DD	FLAT:?GetRuntimeClass@CDialog@@UBEPAUCRuntimeClass@@XZ
	DD	FLAT:??_ECEscDialog@@UAEPAXI@Z
	DD	FLAT:?Serialize@CObject@@UAEXAAVCArchive@@@Z
	DD	FLAT:?AssertValid@CObject@@UBEXXZ
	DD	FLAT:?Dump@CObject@@UBEXAAVCDumpContext@@@Z
	DD	FLAT:?OnCmdMsg@CDialog@@UAEHIHPAXPAUAFX_CMDHANDLERINFO@@@Z
	DD	FLAT:?OnFinalRelease@CWnd@@UAEXXZ
	DD	FLAT:?IsInvokeAllowed@CCmdTarget@@UAEHJ@Z
	DD	FLAT:?GetDispatchIID@CCmdTarget@@UAEHPAU_GUID@@@Z
	DD	FLAT:?GetTypeInfoCount@CCmdTarget@@UAEIXZ
	DD	FLAT:?GetTypeLibCache@CCmdTarget@@UAEPAVCTypeLibCache@@XZ
	DD	FLAT:?GetTypeLib@CCmdTarget@@UAEJKPAPAUITypeLib@@@Z
	DD	FLAT:?GetMessageMap@CDialog@@MBEPBUAFX_MSGMAP@@XZ
	DD	FLAT:?GetCommandMap@CCmdTarget@@MBEPBUAFX_OLECMDMAP@@XZ
	DD	FLAT:?GetDispatchMap@CCmdTarget@@MBEPBUAFX_DISPMAP@@XZ
	DD	FLAT:?GetConnectionMap@CCmdTarget@@MBEPBUAFX_CONNECTIONMAP@@XZ
	DD	FLAT:?GetInterfaceMap@CWnd@@MBEPBUAFX_INTERFACEMAP@@XZ
	DD	FLAT:?GetEventSinkMap@CCmdTarget@@MBEPBUAFX_EVENTSINKMAP@@XZ
	DD	FLAT:?OnCreateAggregates@CCmdTarget@@UAEHXZ
	DD	FLAT:?GetInterfaceHook@CCmdTarget@@UAEPAUIUnknown@@PBX@Z
	DD	FLAT:?GetExtraConnectionPoints@CCmdTarget@@MAEHPAVCPtrArray@@@Z
	DD	FLAT:?GetConnectionHook@CCmdTarget@@MAEPAUIConnectionPoint@@ABU_GUID@@@Z
	DD	FLAT:?PreSubclassWindow@CWnd@@UAEXXZ
	DD	FLAT:?Create@CWnd@@UAEHPBD0KABUtagRECT@@PAV1@IPAUCCreateContext@@@Z
	DD	FLAT:?CreateEx@CWnd@@UAEHKPBD0KABUtagRECT@@PAV1@IPAX@Z
	DD	FLAT:?CreateEx@CWnd@@UAEHKPBD0KHHHHPAUHWND__@@PAUHMENU__@@PAX@Z
	DD	FLAT:?DestroyWindow@CWnd@@UAEHXZ
	DD	FLAT:?PreCreateWindow@CWnd@@UAEHAAUtagCREATESTRUCTA@@@Z
	DD	FLAT:?CalcWindowRect@CWnd@@UAEXPAUtagRECT@@I@Z
	DD	FLAT:?GetMenu@CWnd@@UBEPAVCMenu@@XZ
	DD	FLAT:?SetMenu@CWnd@@UAEHPAVCMenu@@@Z
	DD	FLAT:?OnToolHitTest@CWnd@@UBEHVCPoint@@PAUtagTOOLINFOA@@@Z
	DD	FLAT:?GetScrollBarCtrl@CWnd@@UBEPAVCScrollBar@@H@Z
	DD	FLAT:?WinHelpA@CWnd@@UAEXKI@Z
	DD	FLAT:?HtmlHelpA@CWnd@@UAEXKI@Z
	DD	FLAT:?WinHelpInternal@CWnd@@UAEXKI@Z
	DD	FLAT:?ContinueModal@CWnd@@UAEHXZ
	DD	FLAT:?EndModalLoop@CWnd@@UAEXH@Z
	DD	FLAT:?OnDrawIconicThumbnailOrLivePreview@CWnd@@UAEXAAVCDC@@VCRect@@VCSize@@HAAH@Z
	DD	FLAT:?EnsureStdObj@CWnd@@UAEJXZ
	DD	FLAT:?get_accParent@CWnd@@UAEJPAPAUIDispatch@@@Z
	DD	FLAT:?get_accChildCount@CWnd@@UAEJPAJ@Z
	DD	FLAT:?get_accChild@CWnd@@UAEJUtagVARIANT@@PAPAUIDispatch@@@Z
	DD	FLAT:?get_accName@CWnd@@UAEJUtagVARIANT@@PAPA_W@Z
	DD	FLAT:?get_accValue@CWnd@@UAEJUtagVARIANT@@PAPA_W@Z
	DD	FLAT:?get_accDescription@CWnd@@UAEJUtagVARIANT@@PAPA_W@Z
	DD	FLAT:?get_accRole@CWnd@@UAEJUtagVARIANT@@PAU2@@Z
	DD	FLAT:?get_accState@CWnd@@UAEJUtagVARIANT@@PAU2@@Z
	DD	FLAT:?get_accHelp@CWnd@@UAEJUtagVARIANT@@PAPA_W@Z
	DD	FLAT:?get_accHelpTopic@CWnd@@UAEJPAPA_WUtagVARIANT@@PAJ@Z
	DD	FLAT:?get_accKeyboardShortcut@CWnd@@UAEJUtagVARIANT@@PAPA_W@Z
	DD	FLAT:?get_accFocus@CWnd@@UAEJPAUtagVARIANT@@@Z
	DD	FLAT:?get_accSelection@CWnd@@UAEJPAUtagVARIANT@@@Z
	DD	FLAT:?get_accDefaultAction@CWnd@@UAEJUtagVARIANT@@PAPA_W@Z
	DD	FLAT:?accSelect@CWnd@@UAEJJUtagVARIANT@@@Z
	DD	FLAT:?accLocation@CWnd@@UAEJPAJ000UtagVARIANT@@@Z
	DD	FLAT:?accNavigate@CWnd@@UAEJJUtagVARIANT@@PAU2@@Z
	DD	FLAT:?accHitTest@CWnd@@UAEJJJPAUtagVARIANT@@@Z
	DD	FLAT:?accDoDefaultAction@CWnd@@UAEJUtagVARIANT@@@Z
	DD	FLAT:?put_accName@CWnd@@UAEJUtagVARIANT@@PA_W@Z
	DD	FLAT:?put_accValue@CWnd@@UAEJUtagVARIANT@@PA_W@Z
	DD	FLAT:?SetProxy@CWnd@@UAEJPAUIAccessibleProxy@@@Z
	DD	FLAT:?CreateAccessibleProxy@CWnd@@UAEJIJPAJ@Z
	DD	FLAT:?OnCommand@CWnd@@MAEHIJ@Z
	DD	FLAT:?OnNotify@CWnd@@MAEHIJPAJ@Z
	DD	FLAT:?GetSuperWndProcAddr@CWnd@@MAEPAP6GJPAUHWND__@@IIJ@ZXZ
	DD	FLAT:?DoDataExchange@CWnd@@MAEXPAVCDataExchange@@@Z
	DD	FLAT:?BeginModalState@CWnd@@UAEXXZ
	DD	FLAT:?EndModalState@CWnd@@UAEXXZ
	DD	FLAT:?PreTranslateMessage@CEscDialog@@MAEHPAUtagMSG@@@Z
	DD	FLAT:?OnAmbientProperty@CWnd@@UAEHPAVCOleControlSite@@JPAUtagVARIANT@@@Z
	DD	FLAT:?WindowProc@CWnd@@MAEJIIJ@Z
	DD	FLAT:?OnWndMsg@CWnd@@MAEHIIJPAJ@Z
	DD	FLAT:?DefWindowProcA@CWnd@@MAEJIIJ@Z
	DD	FLAT:?PostNcDestroy@CWnd@@MAEXXZ
	DD	FLAT:?OnChildNotify@CWnd@@MAEHIIJPAJ@Z
	DD	FLAT:?OnTouchInputs@CWnd@@MAEHIPAUtagTOUCHINPUT@@@Z
	DD	FLAT:?OnTouchInput@CWnd@@MAEHVCPoint@@HHPAUtagTOUCHINPUT@@@Z
	DD	FLAT:?GetGestureStatus@CWnd@@MAEKVCPoint@@@Z
	DD	FLAT:?OnGestureZoom@CWnd@@MAEHVCPoint@@J@Z
	DD	FLAT:?OnGesturePan@CWnd@@MAEHVCPoint@@0@Z
	DD	FLAT:?OnGestureRotate@CWnd@@MAEHVCPoint@@N@Z
	DD	FLAT:?OnGestureTwoFingerTap@CWnd@@MAEHVCPoint@@@Z
	DD	FLAT:?OnGesturePressAndTap@CWnd@@MAEHVCPoint@@J@Z
	DD	FLAT:?ResizeDynamicLayout@CWnd@@MAEXXZ
	DD	FLAT:?CheckAutoCenter@CDialog@@UAEHXZ
	DD	FLAT:?IsFrameWnd@CWnd@@UBEHXZ
	DD	FLAT:?CreateControlContainer@CWnd@@MAEHPAPAVCOleControlContainer@@@Z
	DD	FLAT:?CreateControlSite@CWnd@@MAEHPAVCOleControlContainer@@PAPAVCOleControlSite@@IABU_GUID@@@Z
	DD	FLAT:?SetOccDialogInfo@CDialog@@MAEHPAU_AFX_OCC_DIALOG_INFO@@@Z
	DD	FLAT:?GetOccDialogInfo@CDialog@@MAEPAU_AFX_OCC_DIALOG_INFO@@XZ
	DD	FLAT:?Create@CDialog@@UAEHIPAVCWnd@@@Z
	DD	FLAT:?Create@CDialog@@UAEHPBDPAVCWnd@@@Z
	DD	FLAT:?CreateIndirect@CDialog@@UAEHPAXPAVCWnd@@@Z
	DD	FLAT:?CreateIndirect@CDialog@@UAEHPBUDLGTEMPLATE@@PAVCWnd@@PAX@Z
	DD	FLAT:?DoModal@CDialog@@UAEHXZ
	DD	FLAT:?OnInitDialog@CDialog@@UAEHXZ
	DD	FLAT:?OnSetFont@CDialog@@UAEXPAVCFont@@@Z
	DD	FLAT:?OnOK@CDialog@@MAEXXZ
	DD	FLAT:?OnCancel@CDialog@@MAEXXZ
	DD	FLAT:?PreInitDialog@CDialog@@MAEXXZ
CONST	ENDS
;	COMDAT ??_C@_0N@OMEMOKLE@?$CFTs?5?$CI?$CFTs?3?$CFd?$CJ@
CONST	SEGMENT
??_C@_0N@OMEMOKLE@?$CFTs?5?$CI?$CFTs?3?$CFd?$CJ@ DB '%Ts (%Ts:%d)', 00H ; `string'
CONST	ENDS
;	COMDAT ??_C@_0BB@HBOOMJBF@?$CFTs?5?$CI?$CFTs?3?$CFd?$CJ?6?$CFTs@
CONST	SEGMENT
??_C@_0BB@HBOOMJBF@?$CFTs?5?$CI?$CFTs?3?$CFd?$CJ?6?$CFTs@ DB '%Ts (%Ts:%d'
	DB	')', 0aH, '%Ts', 00H				; `string'
CONST	ENDS
;	COMDAT ??_C@_0BP@OIEOKIDM@Exception?5thrown?5in?5destructor@
CONST	SEGMENT
??_C@_0BP@OIEOKIDM@Exception?5thrown?5in?5destructor@ DB 'Exception throw'
	DB	'n in destructor', 00H			; `string'
CONST	ENDS
;	COMDAT ??_C@_0HD@JJCHHHNK@C?3?2Program?5Files?5?$CIx86?$CJ?2Microsof@
CONST	SEGMENT
??_C@_0HD@JJCHHHNK@C?3?2Program?5Files?5?$CIx86?$CJ?2Microsof@ DB 'C:\Pro'
	DB	'gram Files (x86)\Microsoft Visual Studio\2019\Community\VC\To'
	DB	'ols\MSVC\14.29.30133\atlmfc\include\afxwin1.inl', 00H ; `string'
CONST	ENDS
;	COMDAT ??_7CButton@@6B@
CONST	SEGMENT
??_7CButton@@6B@ DD FLAT:??_R4CButton@@6B@		; CButton::`vftable'
	DD	FLAT:?GetRuntimeClass@CButton@@UBEPAUCRuntimeClass@@XZ
	DD	FLAT:??_ECButton@@UAEPAXI@Z
	DD	FLAT:?Serialize@CObject@@UAEXAAVCArchive@@@Z
	DD	FLAT:?AssertValid@CObject@@UBEXXZ
	DD	FLAT:?Dump@CObject@@UBEXAAVCDumpContext@@@Z
	DD	FLAT:?OnCmdMsg@CCmdTarget@@UAEHIHPAXPAUAFX_CMDHANDLERINFO@@@Z
	DD	FLAT:?OnFinalRelease@CWnd@@UAEXXZ
	DD	FLAT:?IsInvokeAllowed@CCmdTarget@@UAEHJ@Z
	DD	FLAT:?GetDispatchIID@CCmdTarget@@UAEHPAU_GUID@@@Z
	DD	FLAT:?GetTypeInfoCount@CCmdTarget@@UAEIXZ
	DD	FLAT:?GetTypeLibCache@CCmdTarget@@UAEPAVCTypeLibCache@@XZ
	DD	FLAT:?GetTypeLib@CCmdTarget@@UAEJKPAPAUITypeLib@@@Z
	DD	FLAT:?GetMessageMap@CWnd@@MBEPBUAFX_MSGMAP@@XZ
	DD	FLAT:?GetCommandMap@CCmdTarget@@MBEPBUAFX_OLECMDMAP@@XZ
	DD	FLAT:?GetDispatchMap@CCmdTarget@@MBEPBUAFX_DISPMAP@@XZ
	DD	FLAT:?GetConnectionMap@CCmdTarget@@MBEPBUAFX_CONNECTIONMAP@@XZ
	DD	FLAT:?GetInterfaceMap@CWnd@@MBEPBUAFX_INTERFACEMAP@@XZ
	DD	FLAT:?GetEventSinkMap@CCmdTarget@@MBEPBUAFX_EVENTSINKMAP@@XZ
	DD	FLAT:?OnCreateAggregates@CCmdTarget@@UAEHXZ
	DD	FLAT:?GetInterfaceHook@CCmdTarget@@UAEPAUIUnknown@@PBX@Z
	DD	FLAT:?GetExtraConnectionPoints@CCmdTarget@@MAEHPAVCPtrArray@@@Z
	DD	FLAT:?GetConnectionHook@CCmdTarget@@MAEPAUIConnectionPoint@@ABU_GUID@@@Z
	DD	FLAT:?PreSubclassWindow@CWnd@@UAEXXZ
	DD	FLAT:?Create@CWnd@@UAEHPBD0KABUtagRECT@@PAV1@IPAUCCreateContext@@@Z
	DD	FLAT:?CreateEx@CWnd@@UAEHKPBD0KABUtagRECT@@PAV1@IPAX@Z
	DD	FLAT:?CreateEx@CWnd@@UAEHKPBD0KHHHHPAUHWND__@@PAUHMENU__@@PAX@Z
	DD	FLAT:?DestroyWindow@CWnd@@UAEHXZ
	DD	FLAT:?PreCreateWindow@CWnd@@UAEHAAUtagCREATESTRUCTA@@@Z
	DD	FLAT:?CalcWindowRect@CWnd@@UAEXPAUtagRECT@@I@Z
	DD	FLAT:?GetMenu@CWnd@@UBEPAVCMenu@@XZ
	DD	FLAT:?SetMenu@CWnd@@UAEHPAVCMenu@@@Z
	DD	FLAT:?OnToolHitTest@CWnd@@UBEHVCPoint@@PAUtagTOOLINFOA@@@Z
	DD	FLAT:?GetScrollBarCtrl@CWnd@@UBEPAVCScrollBar@@H@Z
	DD	FLAT:?WinHelpA@CWnd@@UAEXKI@Z
	DD	FLAT:?HtmlHelpA@CWnd@@UAEXKI@Z
	DD	FLAT:?WinHelpInternal@CWnd@@UAEXKI@Z
	DD	FLAT:?ContinueModal@CWnd@@UAEHXZ
	DD	FLAT:?EndModalLoop@CWnd@@UAEXH@Z
	DD	FLAT:?OnDrawIconicThumbnailOrLivePreview@CWnd@@UAEXAAVCDC@@VCRect@@VCSize@@HAAH@Z
	DD	FLAT:?EnsureStdObj@CWnd@@UAEJXZ
	DD	FLAT:?get_accParent@CWnd@@UAEJPAPAUIDispatch@@@Z
	DD	FLAT:?get_accChildCount@CWnd@@UAEJPAJ@Z
	DD	FLAT:?get_accChild@CWnd@@UAEJUtagVARIANT@@PAPAUIDispatch@@@Z
	DD	FLAT:?get_accName@CWnd@@UAEJUtagVARIANT@@PAPA_W@Z
	DD	FLAT:?get_accValue@CWnd@@UAEJUtagVARIANT@@PAPA_W@Z
	DD	FLAT:?get_accDescription@CWnd@@UAEJUtagVARIANT@@PAPA_W@Z
	DD	FLAT:?get_accRole@CWnd@@UAEJUtagVARIANT@@PAU2@@Z
	DD	FLAT:?get_accState@CWnd@@UAEJUtagVARIANT@@PAU2@@Z
	DD	FLAT:?get_accHelp@CWnd@@UAEJUtagVARIANT@@PAPA_W@Z
	DD	FLAT:?get_accHelpTopic@CWnd@@UAEJPAPA_WUtagVARIANT@@PAJ@Z
	DD	FLAT:?get_accKeyboardShortcut@CWnd@@UAEJUtagVARIANT@@PAPA_W@Z
	DD	FLAT:?get_accFocus@CWnd@@UAEJPAUtagVARIANT@@@Z
	DD	FLAT:?get_accSelection@CWnd@@UAEJPAUtagVARIANT@@@Z
	DD	FLAT:?get_accDefaultAction@CWnd@@UAEJUtagVARIANT@@PAPA_W@Z
	DD	FLAT:?accSelect@CWnd@@UAEJJUtagVARIANT@@@Z
	DD	FLAT:?accLocation@CWnd@@UAEJPAJ000UtagVARIANT@@@Z
	DD	FLAT:?accNavigate@CWnd@@UAEJJUtagVARIANT@@PAU2@@Z
	DD	FLAT:?accHitTest@CWnd@@UAEJJJPAUtagVARIANT@@@Z
	DD	FLAT:?accDoDefaultAction@CWnd@@UAEJUtagVARIANT@@@Z
	DD	FLAT:?put_accName@CWnd@@UAEJUtagVARIANT@@PA_W@Z
	DD	FLAT:?put_accValue@CWnd@@UAEJUtagVARIANT@@PA_W@Z
	DD	FLAT:?SetProxy@CWnd@@UAEJPAUIAccessibleProxy@@@Z
	DD	FLAT:?CreateAccessibleProxy@CWnd@@UAEJIJPAJ@Z
	DD	FLAT:?OnCommand@CWnd@@MAEHIJ@Z
	DD	FLAT:?OnNotify@CWnd@@MAEHIJPAJ@Z
	DD	FLAT:?GetSuperWndProcAddr@CWnd@@MAEPAP6GJPAUHWND__@@IIJ@ZXZ
	DD	FLAT:?DoDataExchange@CWnd@@MAEXPAVCDataExchange@@@Z
	DD	FLAT:?BeginModalState@CWnd@@UAEXXZ
	DD	FLAT:?EndModalState@CWnd@@UAEXXZ
	DD	FLAT:?PreTranslateMessage@CWnd@@UAEHPAUtagMSG@@@Z
	DD	FLAT:?OnAmbientProperty@CWnd@@UAEHPAVCOleControlSite@@JPAUtagVARIANT@@@Z
	DD	FLAT:?WindowProc@CWnd@@MAEJIIJ@Z
	DD	FLAT:?OnWndMsg@CWnd@@MAEHIIJPAJ@Z
	DD	FLAT:?DefWindowProcA@CWnd@@MAEJIIJ@Z
	DD	FLAT:?PostNcDestroy@CWnd@@MAEXXZ
	DD	FLAT:?OnChildNotify@CButton@@MAEHIIJPAJ@Z
	DD	FLAT:?OnTouchInputs@CWnd@@MAEHIPAUtagTOUCHINPUT@@@Z
	DD	FLAT:?OnTouchInput@CWnd@@MAEHVCPoint@@HHPAUtagTOUCHINPUT@@@Z
	DD	FLAT:?GetGestureStatus@CWnd@@MAEKVCPoint@@@Z
	DD	FLAT:?OnGestureZoom@CWnd@@MAEHVCPoint@@J@Z
	DD	FLAT:?OnGesturePan@CWnd@@MAEHVCPoint@@0@Z
	DD	FLAT:?OnGestureRotate@CWnd@@MAEHVCPoint@@N@Z
	DD	FLAT:?OnGestureTwoFingerTap@CWnd@@MAEHVCPoint@@@Z
	DD	FLAT:?OnGesturePressAndTap@CWnd@@MAEHVCPoint@@J@Z
	DD	FLAT:?ResizeDynamicLayout@CWnd@@MAEXXZ
	DD	FLAT:?CheckAutoCenter@CWnd@@UAEHXZ
	DD	FLAT:?IsFrameWnd@CWnd@@UBEHXZ
	DD	FLAT:?CreateControlContainer@CWnd@@MAEHPAPAVCOleControlContainer@@@Z
	DD	FLAT:?CreateControlSite@CWnd@@MAEHPAVCOleControlContainer@@PAPAVCOleControlSite@@IABU_GUID@@@Z
	DD	FLAT:?SetOccDialogInfo@CWnd@@MAEHPAU_AFX_OCC_DIALOG_INFO@@@Z
	DD	FLAT:?GetOccDialogInfo@CWnd@@MAEPAU_AFX_OCC_DIALOG_INFO@@XZ
	DD	FLAT:?Create@CButton@@UAEHPBDKABUtagRECT@@PAVCWnd@@I@Z
	DD	FLAT:?DrawItem@CButton@@UAEXPAUtagDRAWITEMSTRUCT@@@Z
CONST	ENDS
;	COMDAT ??_7CFont@@6B@
CONST	SEGMENT
??_7CFont@@6B@ DD FLAT:??_R4CFont@@6B@			; CFont::`vftable'
	DD	FLAT:?GetRuntimeClass@CFont@@UBEPAUCRuntimeClass@@XZ
	DD	FLAT:??_ECFont@@UAEPAXI@Z
	DD	FLAT:?Serialize@CObject@@UAEXAAVCArchive@@@Z
	DD	FLAT:?AssertValid@CObject@@UBEXXZ
	DD	FLAT:?Dump@CObject@@UBEXAAVCDumpContext@@@Z
CONST	ENDS
;	COMDAT ??_7CBrush@@6B@
CONST	SEGMENT
??_7CBrush@@6B@ DD FLAT:??_R4CBrush@@6B@		; CBrush::`vftable'
	DD	FLAT:?GetRuntimeClass@CBrush@@UBEPAUCRuntimeClass@@XZ
	DD	FLAT:??_ECBrush@@UAEPAXI@Z
	DD	FLAT:?Serialize@CObject@@UAEXAAVCArchive@@@Z
	DD	FLAT:?AssertValid@CObject@@UBEXXZ
	DD	FLAT:?Dump@CObject@@UBEXAAVCDumpContext@@@Z
CONST	ENDS
;	COMDAT ??_7CGdiObject@@6B@
CONST	SEGMENT
??_7CGdiObject@@6B@ DD FLAT:??_R4CGdiObject@@6B@	; CGdiObject::`vftable'
	DD	FLAT:?GetRuntimeClass@CGdiObject@@UBEPAUCRuntimeClass@@XZ
	DD	FLAT:??_ECGdiObject@@UAEPAXI@Z
	DD	FLAT:?Serialize@CObject@@UAEXAAVCArchive@@@Z
	DD	FLAT:?AssertValid@CObject@@UBEXXZ
	DD	FLAT:?Dump@CObject@@UBEXAAVCDumpContext@@@Z
CONST	ENDS
;	COMDAT ??_C@_02DPKJAMEF@?$CFd@
CONST	SEGMENT
??_C@_02DPKJAMEF@?$CFd@ DB '%d', 00H			; `string'
CONST	ENDS
;	COMDAT ??_R0PAVCException@@@8
data$r	SEGMENT
??_R0PAVCException@@@8 DD FLAT:??_7type_info@@6B@	; CException * `RTTI Type Descriptor'
	DD	00H
	DB	'.PAVCException@@', 00H
data$r	ENDS
;	COMDAT xdata$x
xdata$x	SEGMENT
__ehfuncinfo$?InitTab@CInfoRight@@QAEXXZ DD 019930522H
	DD	05H
	DD	FLAT:__unwindtable$?InitTab@CInfoRight@@QAEXXZ
	DD	2 DUP(00H)
	DD	2 DUP(00H)
	DD	00H
	DD	01H
__unwindtable$?InitTab@CInfoRight@@QAEXXZ DD 0ffffffffH
	DD	FLAT:__unwindfunclet$?InitTab@CInfoRight@@QAEXXZ$0
	DD	0ffffffffH
	DD	FLAT:__unwindfunclet$?InitTab@CInfoRight@@QAEXXZ$1
	DD	0ffffffffH
	DD	FLAT:__unwindfunclet$?InitTab@CInfoRight@@QAEXXZ$2
	DD	0ffffffffH
	DD	FLAT:__unwindfunclet$?InitTab@CInfoRight@@QAEXXZ$3
	DD	0ffffffffH
	DD	FLAT:__unwindfunclet$?InitTab@CInfoRight@@QAEXXZ$4
xdata$x	ENDS
;	COMDAT xdata$x
xdata$x	SEGMENT
__unwindtable$?SetRefresh@CInfoRight@@QAEXH@Z DD 0ffffffffH
	DD	FLAT:__unwindfunclet$?SetRefresh@CInfoRight@@QAEXH@Z$0
__ehfuncinfo$?SetRefresh@CInfoRight@@QAEXH@Z DD 019930522H
	DD	01H
	DD	FLAT:__unwindtable$?SetRefresh@CInfoRight@@QAEXH@Z
	DD	2 DUP(00H)
	DD	2 DUP(00H)
	DD	00H
	DD	01H
xdata$x	ENDS
;	COMDAT xdata$x
xdata$x	SEGMENT
__unwindtable$?OnBtnShowall@CInfoRight@@IAEXXZ DD 0ffffffffH
	DD	FLAT:__unwindfunclet$?OnBtnShowall@CInfoRight@@IAEXXZ$0
__ehfuncinfo$?OnBtnShowall@CInfoRight@@IAEXXZ DD 019930522H
	DD	01H
	DD	FLAT:__unwindtable$?OnBtnShowall@CInfoRight@@IAEXXZ
	DD	2 DUP(00H)
	DD	2 DUP(00H)
	DD	00H
	DD	01H
xdata$x	ENDS
;	COMDAT xdata$x
xdata$x	SEGMENT
__ehfuncinfo$??0CInfoRight@@QAE@PAVCWnd@@@Z DD 019930522H
	DD	015H
	DD	FLAT:__unwindtable$??0CInfoRight@@QAE@PAVCWnd@@@Z
	DD	2 DUP(00H)
	DD	2 DUP(00H)
	DD	00H
	DD	01H
__unwindtable$??0CInfoRight@@QAE@PAVCWnd@@@Z DD 0ffffffffH
	DD	FLAT:__unwindfunclet$??0CInfoRight@@QAE@PAVCWnd@@@Z$0
	DD	00H
	DD	FLAT:__unwindfunclet$??0CInfoRight@@QAE@PAVCWnd@@@Z$1
	DD	01H
	DD	FLAT:__unwindfunclet$??0CInfoRight@@QAE@PAVCWnd@@@Z$2
	DD	02H
	DD	FLAT:__unwindfunclet$??0CInfoRight@@QAE@PAVCWnd@@@Z$3
	DD	03H
	DD	FLAT:__unwindfunclet$??0CInfoRight@@QAE@PAVCWnd@@@Z$4
	DD	04H
	DD	FLAT:__unwindfunclet$??0CInfoRight@@QAE@PAVCWnd@@@Z$5
	DD	05H
	DD	FLAT:__unwindfunclet$??0CInfoRight@@QAE@PAVCWnd@@@Z$6
	DD	06H
	DD	FLAT:__unwindfunclet$??0CInfoRight@@QAE@PAVCWnd@@@Z$7
	DD	07H
	DD	FLAT:__unwindfunclet$??0CInfoRight@@QAE@PAVCWnd@@@Z$8
	DD	08H
	DD	FLAT:__unwindfunclet$??0CInfoRight@@QAE@PAVCWnd@@@Z$9
	DD	09H
	DD	FLAT:__unwindfunclet$??0CInfoRight@@QAE@PAVCWnd@@@Z$10
	DD	0aH
	DD	FLAT:__unwindfunclet$??0CInfoRight@@QAE@PAVCWnd@@@Z$11
	DD	0bH
	DD	FLAT:__unwindfunclet$??0CInfoRight@@QAE@PAVCWnd@@@Z$12
	DD	0cH
	DD	FLAT:__unwindfunclet$??0CInfoRight@@QAE@PAVCWnd@@@Z$13
	DD	0dH
	DD	FLAT:__unwindfunclet$??0CInfoRight@@QAE@PAVCWnd@@@Z$14
	DD	0eH
	DD	FLAT:__unwindfunclet$??0CInfoRight@@QAE@PAVCWnd@@@Z$15
	DD	0fH
	DD	FLAT:__unwindfunclet$??0CInfoRight@@QAE@PAVCWnd@@@Z$16
	DD	010H
	DD	FLAT:__unwindfunclet$??0CInfoRight@@QAE@PAVCWnd@@@Z$17
	DD	011H
	DD	FLAT:__unwindfunclet$??0CInfoRight@@QAE@PAVCWnd@@@Z$18
	DD	012H
	DD	FLAT:__unwindfunclet$??0CInfoRight@@QAE@PAVCWnd@@@Z$19
	DD	013H
	DD	FLAT:__unwindfunclet$??0CInfoRight@@QAE@PAVCWnd@@@Z$20
xdata$x	ENDS
;	COMDAT xdata$x
xdata$x	SEGMENT
__catchsym$??1CGdiObject@@UAE@XZ$3 DD 00H
	DD	FLAT:??_R0PAVCException@@@8
	DD	0fffffde4H
	DD	FLAT:__catch$??1CGdiObject@@UAE@XZ$0
__tryblocktable$??1CGdiObject@@UAE@XZ DD 00H
	DD	00H
	DD	02H
	DD	01H
	DD	FLAT:__catchsym$??1CGdiObject@@UAE@XZ$3
__unwindtable$??1CGdiObject@@UAE@XZ DD 0ffffffffH
	DD	00H
	DD	0ffffffffH
	DD	00H
	DD	01H
	DD	FLAT:__unwindfunclet$??1CGdiObject@@UAE@XZ$2
__ehfuncinfo$??1CGdiObject@@UAE@XZ DD 019930522H
	DD	03H
	DD	FLAT:__unwindtable$??1CGdiObject@@UAE@XZ
	DD	01H
	DD	FLAT:__tryblocktable$??1CGdiObject@@UAE@XZ
	DD	2 DUP(00H)
	DD	00H
	DD	05H
xdata$x	ENDS
CRT$XCU	SEGMENT
?RMSG_SETQUERYOPT$initializer$@@3P6AXXZA DD FLAT:??__ERMSG_SETQUERYOPT@@YAXXZ ; RMSG_SETQUERYOPT$initializer$
CRT$XCU	ENDS
CRT$XCU	SEGMENT
?RMSG_CHARTMAIN$initializer$@@3P6AXXZA DD FLAT:??__ERMSG_CHARTMAIN@@YAXXZ ; RMSG_CHARTMAIN$initializer$
CRT$XCU	ENDS
CRT$XCU	SEGMENT
?RMS_ANALYSIS_FUNC$initializer$@@3P6AXXZA DD FLAT:??__ERMS_ANALYSIS_FUNC@@YAXXZ ; RMS_ANALYSIS_FUNC$initializer$
CRT$XCU	ENDS
CRT$XCU	SEGMENT
?RMSG_GET_USERID$initializer$@@3P6AXXZA DD FLAT:??__ERMSG_GET_USERID@@YAXXZ ; RMSG_GET_USERID$initializer$
CRT$XCU	ENDS
CRT$XCU	SEGMENT
?RMSG_CHANGE_SKINCOLOR$initializer$@@3P6AXXZA DD FLAT:??__ERMSG_CHANGE_SKINCOLOR@@YAXXZ ; RMSG_CHANGE_SKINCOLOR$initializer$
CRT$XCU	ENDS
CRT$XCU	SEGMENT
?RMSG_GET_SKINCOLOR$initializer$@@3P6AXXZA DD FLAT:??__ERMSG_GET_SKINCOLOR@@YAXXZ ; RMSG_GET_SKINCOLOR$initializer$
CRT$XCU	ENDS
CRT$XCU	SEGMENT
?RMSG_CHANGEVERTSCALETYPE$initializer$@@3P6AXXZA DD FLAT:??__ERMSG_CHANGEVERTSCALETYPE@@YAXXZ ; RMSG_CHANGEVERTSCALETYPE$initializer$
CRT$XCU	ENDS
CRT$XCU	SEGMENT
?RMSG_CHANGE_CROSSLINE$initializer$@@3P6AXXZA DD FLAT:??__ERMSG_CHANGE_CROSSLINE@@YAXXZ ; RMSG_CHANGE_CROSSLINE$initializer$
CRT$XCU	ENDS
CRT$XCU	SEGMENT
?RMSG_ADD_PLATFORM_MENU$initializer$@@3P6AXXZA DD FLAT:??__ERMSG_ADD_PLATFORM_MENU@@YAXXZ ; RMSG_ADD_PLATFORM_MENU$initializer$
CRT$XCU	ENDS
CRT$XCU	SEGMENT
?RMSG_SETINITIALCHARTDATA$initializer$@@3P6AXXZA DD FLAT:??__ERMSG_SETINITIALCHARTDATA@@YAXXZ ; RMSG_SETINITIALCHARTDATA$initializer$
CRT$XCU	ENDS
CRT$XCU	SEGMENT
?RMSG_GETINFO$initializer$@@3P6AXXZA DD FLAT:??__ERMSG_GETINFO@@YAXXZ ; RMSG_GETINFO$initializer$
CRT$XCU	ENDS
CRT$XCU	SEGMENT
?RMSG_SETINFO$initializer$@@3P6AXXZA DD FLAT:??__ERMSG_SETINFO@@YAXXZ ; RMSG_SETINFO$initializer$
CRT$XCU	ENDS
CRT$XCU	SEGMENT
?RMSG_INTERFACE$initializer$@@3P6AXXZA DD FLAT:??__ERMSG_INTERFACE@@YAXXZ ; RMSG_INTERFACE$initializer$
CRT$XCU	ENDS
CRT$XCU	SEGMENT
?RMSG_GETPCTRDATA$initializer$@@3P6AXXZA DD FLAT:??__ERMSG_GETPCTRDATA@@YAXXZ ; RMSG_GETPCTRDATA$initializer$
CRT$XCU	ENDS
CRT$XCU	SEGMENT
?RMSG_SETPCTRDATA$initializer$@@3P6AXXZA DD FLAT:??__ERMSG_SETPCTRDATA@@YAXXZ ; RMSG_SETPCTRDATA$initializer$
CRT$XCU	ENDS
; Function compile flags: /Ogtp
; File C:\Program Files (x86)\Microsoft Visual Studio\2019\Community\VC\Tools\MSVC\14.29.30133\atlmfc\include\afxtempl.h
; File C:\Program Files (x86)\Microsoft Visual Studio\2019\Community\VC\Tools\MSVC\14.29.30133\atlmfc\include\afx.inl
; File C:\Program Files (x86)\Microsoft Visual Studio\2019\Community\VC\Tools\MSVC\14.29.30133\atlmfc\include\afxtempl.h
; File C:\Program Files (x86)\Microsoft Visual Studio\2019\Community\VC\Tools\MSVC\14.29.30133\atlmfc\include\afx.inl
; File C:\Program Files (x86)\Microsoft Visual Studio\2019\Community\VC\Tools\MSVC\14.29.30133\atlmfc\include\afxtempl.h
; File C:\Program Files (x86)\Microsoft Visual Studio\2019\Community\VC\Tools\MSVC\14.29.30133\atlmfc\include\afx.inl
; File C:\Program Files (x86)\Microsoft Visual Studio\2019\Community\VC\Tools\MSVC\14.29.30133\atlmfc\include\afxtempl.h
;	COMDAT ??$SerializeElements@UST_DATAINDEX@@@@YGXAAVCArchive@@PAUST_DATAINDEX@@H@Z
_TEXT	SEGMENT
_ar$ = 8						; size = 4
_pElements$ = 12					; size = 4
_nCount$ = 16						; size = 4
??$SerializeElements@UST_DATAINDEX@@@@YGXAAVCArchive@@PAUST_DATAINDEX@@H@Z PROC ; SerializeElements<ST_DATAINDEX>, COMDAT

; 67   : {

  00000	55		 push	 ebp
  00001	8b ec		 mov	 ebp, esp

; 68   : 	ENSURE(nCount == 0 || pElements != NULL);

  00003	8b 4d 0c	 mov	 ecx, DWORD PTR _pElements$[ebp]
  00006	53		 push	 ebx
  00007	56		 push	 esi
  00008	8b 75 10	 mov	 esi, DWORD PTR _nCount$[ebp]
  0000b	57		 push	 edi
  0000c	85 f6		 test	 esi, esi
  0000e	74 04		 je	 SHORT $LN2@SerializeE
  00010	85 c9		 test	 ecx, ecx
  00012	74 7d		 je	 SHORT $LN34@SerializeE
$LN2@SerializeE:
; File C:\Program Files (x86)\Microsoft Visual Studio\2019\Community\VC\Tools\MSVC\14.29.30133\atlmfc\include\afx.inl

; 212  : 	{ return (m_nMode & CArchive::load) == 0; }

  00014	8b 55 08	 mov	 edx, DWORD PTR _ar$[ebp]
  00017	8b 42 18	 mov	 eax, DWORD PTR [edx+24]
  0001a	f7 d0		 not	 eax
  0001c	a8 01		 test	 al, 1
; File C:\Program Files (x86)\Microsoft Visual Studio\2019\Community\VC\Tools\MSVC\14.29.30133\atlmfc\include\afxtempl.h

; 73   : 	if (ar.IsStoring())

  0001e	74 32		 je	 SHORT $LN10@SerializeE

; 74   : 	{
; 75   : 		TYPE* pData;
; 76   : 		UINT_PTR nElementsLeft;
; 77   : 
; 78   : 		nElementsLeft = nCount;
; 79   : 		pData = pElements;
; 80   : 		while( nElementsLeft > 0 )

  00020	85 f6		 test	 esi, esi
  00022	74 27		 je	 SHORT $LN8@SerializeE
$LL5@SerializeE:

; 81   : 		{
; 82   : 			UINT nElementsToWrite;
; 83   : 
; 84   : 			nElementsToWrite = UINT(__min(nElementsLeft, INT_MAX/sizeof(TYPE)));

  00024	bb ff ff ff 03	 mov	 ebx, 67108863		; 03ffffffH
  00029	3b f3		 cmp	 esi, ebx
  0002b	0f 42 de	 cmovb	 ebx, esi

; 85   : 			ar.Write(pData, nElementsToWrite*sizeof(TYPE));

  0002e	8b fb		 mov	 edi, ebx
  00030	c1 e7 05	 shl	 edi, 5
  00033	57		 push	 edi
  00034	51		 push	 ecx
  00035	8b ca		 mov	 ecx, edx
  00037	e8 00 00 00 00	 call	 ?Write@CArchive@@QAEXPBXI@Z ; CArchive::Write

; 86   : 			nElementsLeft -= nElementsToWrite;
; 87   : 			pData += nElementsToWrite;

  0003c	8b 4d 0c	 mov	 ecx, DWORD PTR _pElements$[ebp]
  0003f	8b 55 08	 mov	 edx, DWORD PTR _ar$[ebp]
  00042	03 cf		 add	 ecx, edi
  00044	89 4d 0c	 mov	 DWORD PTR _pElements$[ebp], ecx
  00047	2b f3		 sub	 esi, ebx
  00049	75 d9		 jne	 SHORT $LL5@SerializeE
$LN8@SerializeE:
  0004b	5f		 pop	 edi

; 105  : 		}
; 106  : 	}
; 107  : }

  0004c	5e		 pop	 esi
  0004d	5b		 pop	 ebx
  0004e	5d		 pop	 ebp
  0004f	c2 0c 00	 ret	 12			; 0000000cH
$LN10@SerializeE:

; 97   : 		while( nElementsLeft > 0 )

  00052	85 f6		 test	 esi, esi
  00054	74 f5		 je	 SHORT $LN8@SerializeE
$LL7@SerializeE:

; 98   : 		{
; 99   : 			UINT nElementsToRead;
; 100  : 
; 101  : 			nElementsToRead = UINT(__min(nElementsLeft, INT_MAX/sizeof(TYPE)));

  00056	bb ff ff ff 03	 mov	 ebx, 67108863		; 03ffffffH
  0005b	3b f3		 cmp	 esi, ebx
  0005d	0f 42 de	 cmovb	 ebx, esi

; 102  : 			ar.EnsureRead(pData, nElementsToRead*sizeof(TYPE));

  00060	8b fb		 mov	 edi, ebx
  00062	c1 e7 05	 shl	 edi, 5
; File C:\Program Files (x86)\Microsoft Visual Studio\2019\Community\VC\Tools\MSVC\14.29.30133\atlmfc\include\afx.inl

; 399  : 	UINT nRead=Read(lpBuf, nCount);

  00065	57		 push	 edi
  00066	51		 push	 ecx
  00067	8b ca		 mov	 ecx, edx
  00069	e8 00 00 00 00	 call	 ?Read@CArchive@@QAEIPAXI@Z ; CArchive::Read

; 400  : 	if(nRead!=nCount)

  0006e	3b c7		 cmp	 eax, edi
  00070	75 16		 jne	 SHORT $LN23@SerializeE
; File C:\Program Files (x86)\Microsoft Visual Studio\2019\Community\VC\Tools\MSVC\14.29.30133\atlmfc\include\afxtempl.h

; 97   : 		while( nElementsLeft > 0 )

  00072	8b 4d 0c	 mov	 ecx, DWORD PTR _pElements$[ebp]
  00075	8b 55 08	 mov	 edx, DWORD PTR _ar$[ebp]

; 103  : 			nElementsLeft -= nElementsToRead;
; 104  : 			pData += nElementsToRead;

  00078	03 cf		 add	 ecx, edi
  0007a	89 4d 0c	 mov	 DWORD PTR _pElements$[ebp], ecx
  0007d	2b f3		 sub	 esi, ebx
  0007f	75 d5		 jne	 SHORT $LL7@SerializeE

; 105  : 		}
; 106  : 	}
; 107  : }

  00081	5f		 pop	 edi
  00082	5e		 pop	 esi
  00083	5b		 pop	 ebx
  00084	5d		 pop	 ebp
  00085	c2 0c 00	 ret	 12			; 0000000cH
$LN23@SerializeE:
; File C:\Program Files (x86)\Microsoft Visual Studio\2019\Community\VC\Tools\MSVC\14.29.30133\atlmfc\include\afx.inl

; 402  : 		AfxThrowArchiveException(CArchiveException::endOfFile);

  00088	6a 00		 push	 0
  0008a	6a 03		 push	 3
  0008c	e8 00 00 00 00	 call	 ?AfxThrowArchiveException@@YGXHPBD@Z ; AfxThrowArchiveException
$LN34@SerializeE:
; File C:\Program Files (x86)\Microsoft Visual Studio\2019\Community\VC\Tools\MSVC\14.29.30133\atlmfc\include\afxtempl.h

; 68   : 	ENSURE(nCount == 0 || pElements != NULL);

  00091	e8 00 00 00 00	 call	 ?AfxThrowInvalidArgException@@YGXXZ ; AfxThrowInvalidArgException
$LN32@SerializeE:
  00096	cc		 int	 3
??$SerializeElements@UST_DATAINDEX@@@@YGXAAVCArchive@@PAUST_DATAINDEX@@H@Z ENDP ; SerializeElements<ST_DATAINDEX>
_TEXT	ENDS
; Function compile flags: /Ogtp
; File C:\Program Files (x86)\Microsoft Visual Studio\2019\Community\VC\Tools\MSVC\14.29.30133\atlmfc\include\afxtempl.h
; File C:\Program Files (x86)\Microsoft Visual Studio\2019\Community\VC\Tools\MSVC\14.29.30133\atlmfc\include\afx.inl
; File C:\Program Files (x86)\Microsoft Visual Studio\2019\Community\VC\Tools\MSVC\14.29.30133\atlmfc\include\afxtempl.h
; File C:\Program Files (x86)\Microsoft Visual Studio\2019\Community\VC\Tools\MSVC\14.29.30133\atlmfc\include\afx.inl
; File C:\Program Files (x86)\Microsoft Visual Studio\2019\Community\VC\Tools\MSVC\14.29.30133\atlmfc\include\afxtempl.h
; File C:\Program Files (x86)\Microsoft Visual Studio\2019\Community\VC\Tools\MSVC\14.29.30133\atlmfc\include\afx.inl
; File C:\Program Files (x86)\Microsoft Visual Studio\2019\Community\VC\Tools\MSVC\14.29.30133\atlmfc\include\afxtempl.h
;	COMDAT ??$SerializeElements@PAVCDlgInterface@@@@YGXAAVCArchive@@PAPAVCDlgInterface@@H@Z
_TEXT	SEGMENT
_ar$ = 8						; size = 4
_pElements$ = 12					; size = 4
_nCount$ = 16						; size = 4
??$SerializeElements@PAVCDlgInterface@@@@YGXAAVCArchive@@PAPAVCDlgInterface@@H@Z PROC ; SerializeElements<CDlgInterface *>, COMDAT

; 67   : {

  00000	55		 push	 ebp
  00001	8b ec		 mov	 ebp, esp

; 68   : 	ENSURE(nCount == 0 || pElements != NULL);

  00003	8b 4d 0c	 mov	 ecx, DWORD PTR _pElements$[ebp]
  00006	53		 push	 ebx
  00007	56		 push	 esi
  00008	8b 75 10	 mov	 esi, DWORD PTR _nCount$[ebp]
  0000b	57		 push	 edi
  0000c	85 f6		 test	 esi, esi
  0000e	74 08		 je	 SHORT $LN2@SerializeE
  00010	85 c9		 test	 ecx, ecx
  00012	0f 84 89 00 00
	00		 je	 $LN34@SerializeE
$LN2@SerializeE:
; File C:\Program Files (x86)\Microsoft Visual Studio\2019\Community\VC\Tools\MSVC\14.29.30133\atlmfc\include\afx.inl

; 212  : 	{ return (m_nMode & CArchive::load) == 0; }

  00018	8b 55 08	 mov	 edx, DWORD PTR _ar$[ebp]
  0001b	8b 42 18	 mov	 eax, DWORD PTR [edx+24]
  0001e	f7 d0		 not	 eax
  00020	a8 01		 test	 al, 1
; File C:\Program Files (x86)\Microsoft Visual Studio\2019\Community\VC\Tools\MSVC\14.29.30133\atlmfc\include\afxtempl.h

; 73   : 	if (ar.IsStoring())

  00022	74 3c		 je	 SHORT $LN10@SerializeE

; 74   : 	{
; 75   : 		TYPE* pData;
; 76   : 		UINT_PTR nElementsLeft;
; 77   : 
; 78   : 		nElementsLeft = nCount;
; 79   : 		pData = pElements;
; 80   : 		while( nElementsLeft > 0 )

  00024	85 f6		 test	 esi, esi
  00026	74 31		 je	 SHORT $LN8@SerializeE
  00028	0f 1f 84 00 00
	00 00 00	 npad	 8
$LL5@SerializeE:

; 81   : 		{
; 82   : 			UINT nElementsToWrite;
; 83   : 
; 84   : 			nElementsToWrite = UINT(__min(nElementsLeft, INT_MAX/sizeof(TYPE)));

  00030	bb ff ff ff 1f	 mov	 ebx, 536870911		; 1fffffffH
  00035	3b f3		 cmp	 esi, ebx
  00037	0f 42 de	 cmovb	 ebx, esi

; 85   : 			ar.Write(pData, nElementsToWrite*sizeof(TYPE));

  0003a	8d 3c 9d 00 00
	00 00		 lea	 edi, DWORD PTR [ebx*4]
  00041	57		 push	 edi
  00042	51		 push	 ecx
  00043	8b ca		 mov	 ecx, edx
  00045	e8 00 00 00 00	 call	 ?Write@CArchive@@QAEXPBXI@Z ; CArchive::Write

; 86   : 			nElementsLeft -= nElementsToWrite;
; 87   : 			pData += nElementsToWrite;

  0004a	8b 4d 0c	 mov	 ecx, DWORD PTR _pElements$[ebp]
  0004d	8b 55 08	 mov	 edx, DWORD PTR _ar$[ebp]
  00050	03 cf		 add	 ecx, edi
  00052	89 4d 0c	 mov	 DWORD PTR _pElements$[ebp], ecx
  00055	2b f3		 sub	 esi, ebx
  00057	75 d7		 jne	 SHORT $LL5@SerializeE
$LN8@SerializeE:
  00059	5f		 pop	 edi

; 105  : 		}
; 106  : 	}
; 107  : }

  0005a	5e		 pop	 esi
  0005b	5b		 pop	 ebx
  0005c	5d		 pop	 ebp
  0005d	c2 0c 00	 ret	 12			; 0000000cH
$LN10@SerializeE:

; 97   : 		while( nElementsLeft > 0 )

  00060	85 f6		 test	 esi, esi
  00062	74 f5		 je	 SHORT $LN8@SerializeE
$LL7@SerializeE:

; 98   : 		{
; 99   : 			UINT nElementsToRead;
; 100  : 
; 101  : 			nElementsToRead = UINT(__min(nElementsLeft, INT_MAX/sizeof(TYPE)));

  00064	bf ff ff ff 1f	 mov	 edi, 536870911		; 1fffffffH
  00069	3b f7		 cmp	 esi, edi
  0006b	0f 42 fe	 cmovb	 edi, esi

; 102  : 			ar.EnsureRead(pData, nElementsToRead*sizeof(TYPE));

  0006e	8d 1c bd 00 00
	00 00		 lea	 ebx, DWORD PTR [edi*4]
; File C:\Program Files (x86)\Microsoft Visual Studio\2019\Community\VC\Tools\MSVC\14.29.30133\atlmfc\include\afx.inl

; 399  : 	UINT nRead=Read(lpBuf, nCount);

  00075	53		 push	 ebx
  00076	51		 push	 ecx
  00077	8b ca		 mov	 ecx, edx
  00079	e8 00 00 00 00	 call	 ?Read@CArchive@@QAEIPAXI@Z ; CArchive::Read

; 400  : 	if(nRead!=nCount)

  0007e	3b c3		 cmp	 eax, ebx
  00080	75 16		 jne	 SHORT $LN23@SerializeE
; File C:\Program Files (x86)\Microsoft Visual Studio\2019\Community\VC\Tools\MSVC\14.29.30133\atlmfc\include\afxtempl.h

; 97   : 		while( nElementsLeft > 0 )

  00082	8b 4d 0c	 mov	 ecx, DWORD PTR _pElements$[ebp]
  00085	8b 55 08	 mov	 edx, DWORD PTR _ar$[ebp]

; 103  : 			nElementsLeft -= nElementsToRead;
; 104  : 			pData += nElementsToRead;

  00088	03 cb		 add	 ecx, ebx
  0008a	89 4d 0c	 mov	 DWORD PTR _pElements$[ebp], ecx
  0008d	2b f7		 sub	 esi, edi
  0008f	75 d3		 jne	 SHORT $LL7@SerializeE

; 105  : 		}
; 106  : 	}
; 107  : }

  00091	5f		 pop	 edi
  00092	5e		 pop	 esi
  00093	5b		 pop	 ebx
  00094	5d		 pop	 ebp
  00095	c2 0c 00	 ret	 12			; 0000000cH
$LN23@SerializeE:
; File C:\Program Files (x86)\Microsoft Visual Studio\2019\Community\VC\Tools\MSVC\14.29.30133\atlmfc\include\afx.inl

; 402  : 		AfxThrowArchiveException(CArchiveException::endOfFile);

  00098	6a 00		 push	 0
  0009a	6a 03		 push	 3
  0009c	e8 00 00 00 00	 call	 ?AfxThrowArchiveException@@YGXHPBD@Z ; AfxThrowArchiveException
$LN34@SerializeE:
; File C:\Program Files (x86)\Microsoft Visual Studio\2019\Community\VC\Tools\MSVC\14.29.30133\atlmfc\include\afxtempl.h

; 68   : 	ENSURE(nCount == 0 || pElements != NULL);

  000a1	e8 00 00 00 00	 call	 ?AfxThrowInvalidArgException@@YGXXZ ; AfxThrowInvalidArgException
$LN32@SerializeE:
  000a6	cc		 int	 3
??$SerializeElements@PAVCDlgInterface@@@@YGXAAVCArchive@@PAPAVCDlgInterface@@H@Z ENDP ; SerializeElements<CDlgInterface *>
_TEXT	ENDS
; Function compile flags: /Ogtp
; File D:\git\src\IBK\IBK_DRFN\ProjSrc\SrcDrfn\Chart\HWSTRATEGYANALYSIS\InfoRight.cpp
;	COMDAT ?THREAD_MAKEHTMLStep@@YAIPAX@Z
_TEXT	SEGMENT
_lpVoid$ = 8						; size = 4
?THREAD_MAKEHTMLStep@@YAIPAX@Z PROC			; THREAD_MAKEHTMLStep, COMDAT

; 45   : {

  00000	55		 push	 ebp
  00001	8b ec		 mov	 ebp, esp

; 46   : 	CTabStep* pTabStep = (CTabStep*)lpVoid;
; 47   : 	pTabStep->SetDataSpreadGrid();

  00003	8b 4d 08	 mov	 ecx, DWORD PTR _lpVoid$[ebp]
  00006	e8 00 00 00 00	 call	 ?SetDataSpreadGrid@CTabStep@@QAEXXZ ; CTabStep::SetDataSpreadGrid

; 48   : 
; 49   : 	return 0;

  0000b	33 c0		 xor	 eax, eax

; 50   : }

  0000d	5d		 pop	 ebp
  0000e	c3		 ret	 0
?THREAD_MAKEHTMLStep@@YAIPAX@Z ENDP			; THREAD_MAKEHTMLStep
_TEXT	ENDS
; Function compile flags: /Ogtp
; File D:\git\src\IBK\IBK_DRFN\ProjSrc\SrcDrfn\Chart\HWSTRATEGYANALYSIS\InfoRight.cpp
;	COMDAT ?THREAD_MAKEHTMLTrade@@YAIPAX@Z
_TEXT	SEGMENT
_lpVoid$ = 8						; size = 4
?THREAD_MAKEHTMLTrade@@YAIPAX@Z PROC			; THREAD_MAKEHTMLTrade, COMDAT

; 37   : {

  00000	55		 push	 ebp
  00001	8b ec		 mov	 ebp, esp

; 38   : 	CTabTrade* pTabTrade = (CTabTrade*)lpVoid;
; 39   : 	pTabTrade->MakeHtmlFile();

  00003	8b 4d 08	 mov	 ecx, DWORD PTR _lpVoid$[ebp]
  00006	e8 00 00 00 00	 call	 ?MakeHtmlFile@CTabTrade@@QAEXXZ ; CTabTrade::MakeHtmlFile

; 40   : 
; 41   : 	return 0;

  0000b	33 c0		 xor	 eax, eax

; 42   : }

  0000d	5d		 pop	 ebp
  0000e	c3		 ret	 0
?THREAD_MAKEHTMLTrade@@YAIPAX@Z ENDP			; THREAD_MAKEHTMLTrade
_TEXT	ENDS
; Function compile flags: /Ogtp
; File D:\git\src\IBK\IBK_DRFN\ProjSrc\SrcDrfn\Chart\HWSTRATEGYANALYSIS\InfoRight.cpp
;	COMDAT ?THREAD_MAKEHTMLResult@@YAIPAX@Z
_TEXT	SEGMENT
_lpVoid$ = 8						; size = 4
?THREAD_MAKEHTMLResult@@YAIPAX@Z PROC			; THREAD_MAKEHTMLResult, COMDAT

; 29   : {

  00000	55		 push	 ebp
  00001	8b ec		 mov	 ebp, esp

; 30   : 	CTabResult* pTabResult = (CTabResult*)lpVoid;
; 31   : 	pTabResult->MakeHtmlFile();

  00003	8b 4d 08	 mov	 ecx, DWORD PTR _lpVoid$[ebp]
  00006	e8 00 00 00 00	 call	 ?MakeHtmlFile@CTabResult@@QAEXXZ ; CTabResult::MakeHtmlFile

; 32   : 
; 33   : 	return 0;

  0000b	33 c0		 xor	 eax, eax

; 34   : }

  0000d	5d		 pop	 ebp
  0000e	c3		 ret	 0
?THREAD_MAKEHTMLResult@@YAIPAX@Z ENDP			; THREAD_MAKEHTMLResult
_TEXT	ENDS
; Function compile flags: /Ogtp
; File C:\Program Files (x86)\Microsoft Visual Studio\2019\Community\VC\Tools\MSVC\14.29.30133\atlmfc\include\afxwin1.inl
; File C:\Program Files (x86)\Microsoft Visual Studio\2019\Community\VC\Tools\MSVC\14.29.30133\atlmfc\include\afxtempl.h
; File C:\Program Files (x86)\Microsoft Visual Studio\2019\Community\VC\Tools\MSVC\14.29.30133\atlmfc\include\afxwin1.inl
; File C:\Program Files (x86)\Microsoft Visual Studio\2019\Community\VC\Tools\MSVC\14.29.30133\atlmfc\include\afx.inl
;	COMDAT ??_GCInfoRight@@UAEPAXI@Z
_TEXT	SEGMENT
___flags$ = 8						; size = 4
??_GCInfoRight@@UAEPAXI@Z PROC				; CInfoRight::`scalar deleting destructor', COMDAT
; _this$ = ecx
  00000	55		 push	 ebp
  00001	8b ec		 mov	 ebp, esp
; File C:\Program Files (x86)\Microsoft Visual Studio\2019\Community\VC\Tools\MSVC\14.29.30133\atlmfc\include\afxwin1.inl

; 155  : 	{ }

  00003	56		 push	 esi
  00004	8b f1		 mov	 esi, ecx
  00006	8d 8e 10 0a 00
	00		 lea	 ecx, DWORD PTR [esi+2576]
  0000c	c7 01 00 00 00
	00		 mov	 DWORD PTR [ecx], OFFSET ??_7CFont@@6B@
  00012	e8 00 00 00 00	 call	 ??1CGdiObject@@UAE@XZ	; CGdiObject::~CGdiObject
  00017	8d 8e 88 09 00
	00		 lea	 ecx, DWORD PTR [esi+2440]
  0001d	e8 00 00 00 00	 call	 ??1CExStatic@@UAE@XZ	; CExStatic::~CExStatic
  00022	8d 8e 00 09 00
	00		 lea	 ecx, DWORD PTR [esi+2304]
  00028	e8 00 00 00 00	 call	 ??1CExStatic@@UAE@XZ	; CExStatic::~CExStatic
  0002d	8d 8e 78 08 00
	00		 lea	 ecx, DWORD PTR [esi+2168]
  00033	e8 00 00 00 00	 call	 ??1CExStatic@@UAE@XZ	; CExStatic::~CExStatic
  00038	8d 8e f0 07 00
	00		 lea	 ecx, DWORD PTR [esi+2032]
  0003e	e8 00 00 00 00	 call	 ??1CExStatic@@UAE@XZ	; CExStatic::~CExStatic
  00043	8d 8e 68 07 00
	00		 lea	 ecx, DWORD PTR [esi+1896]
  00049	e8 00 00 00 00	 call	 ??1CExStatic@@UAE@XZ	; CExStatic::~CExStatic
  0004e	8d 8e e0 06 00
	00		 lea	 ecx, DWORD PTR [esi+1760]
  00054	e8 00 00 00 00	 call	 ??1CExStatic@@UAE@XZ	; CExStatic::~CExStatic
  00059	8d 8e 58 06 00
	00		 lea	 ecx, DWORD PTR [esi+1624]
  0005f	e8 00 00 00 00	 call	 ??1CExStatic@@UAE@XZ	; CExStatic::~CExStatic
  00064	8d 8e d0 05 00
	00		 lea	 ecx, DWORD PTR [esi+1488]
  0006a	e8 00 00 00 00	 call	 ??1CExStatic@@UAE@XZ	; CExStatic::~CExStatic
  0006f	8d 8e 48 05 00
	00		 lea	 ecx, DWORD PTR [esi+1352]
  00075	e8 00 00 00 00	 call	 ??1CExStatic@@UAE@XZ	; CExStatic::~CExStatic
  0007a	8d 8e c0 04 00
	00		 lea	 ecx, DWORD PTR [esi+1216]
  00080	e8 00 00 00 00	 call	 ??1CExStatic@@UAE@XZ	; CExStatic::~CExStatic
  00085	8d 8e 38 04 00
	00		 lea	 ecx, DWORD PTR [esi+1080]
  0008b	e8 00 00 00 00	 call	 ??1CExComboBox@@UAE@XZ	; CExComboBox::~CExComboBox
  00090	8d 8e 18 04 00
	00		 lea	 ecx, DWORD PTR [esi+1048]
  00096	e8 00 00 00 00	 call	 ??1?$CArray@UST_DATAINDEX@@U1@@@UAE@XZ ; CArray<ST_DATAINDEX,ST_DATAINDEX>::~CArray<ST_DATAINDEX,ST_DATAINDEX>
  0009b	8d 8e 14 04 00
	00		 lea	 ecx, DWORD PTR [esi+1044]
  000a1	ff 15 00 00 00
	00		 call	 DWORD PTR __imp_??1?$CStringT@DV?$StrTraitMFC_DLL@DV?$ChTraitsCRT@D@ATL@@@@@ATL@@QAE@XZ
  000a7	8d 8e fc 03 00
	00		 lea	 ecx, DWORD PTR [esi+1020]
  000ad	ff 15 00 00 00
	00		 call	 DWORD PTR __imp_??1?$CStringT@DV?$StrTraitMFC_DLL@DV?$ChTraitsCRT@D@ATL@@@@@ATL@@QAE@XZ
; File C:\Program Files (x86)\Microsoft Visual Studio\2019\Community\VC\Tools\MSVC\14.29.30133\atlmfc\include\afxtempl.h

; 358  : 	if (m_pData != NULL)

  000b3	8b 86 ec 03 00
	00		 mov	 eax, DWORD PTR [esi+1004]
  000b9	c7 86 e8 03 00
	00 00 00 00 00	 mov	 DWORD PTR [esi+1000], OFFSET ??_7?$CArray@PAVCDlgInterface@@PAV1@@@6B@
  000c3	85 c0		 test	 eax, eax
  000c5	74 13		 je	 SHORT $LN17@scalar

; 359  : 	{
; 360  : 		for( int i = 0; i < m_nSize; i++ )

  000c7	83 be f0 03 00
	00 00		 cmp	 DWORD PTR [esi+1008], 0
  000ce	0f 4f c0	 cmovg	 eax, eax

; 361  : 			(m_pData + i)->~TYPE();
; 362  : 		delete[] (BYTE*)m_pData;

  000d1	50		 push	 eax
  000d2	e8 00 00 00 00	 call	 ??_V@YAXPAX@Z		; operator delete[]
  000d7	83 c4 04	 add	 esp, 4
$LN17@scalar:
  000da	8d 8e d8 03 00
	00		 lea	 ecx, DWORD PTR [esi+984]
; File C:\Program Files (x86)\Microsoft Visual Studio\2019\Community\VC\Tools\MSVC\14.29.30133\atlmfc\include\afxwin1.inl

; 130  : 	{ }

  000e0	c7 01 00 00 00
	00		 mov	 DWORD PTR [ecx], OFFSET ??_7CBrush@@6B@
  000e6	e8 00 00 00 00	 call	 ??1CGdiObject@@UAE@XZ	; CGdiObject::~CGdiObject
  000eb	8d 8e 30 03 00
	00		 lea	 ecx, DWORD PTR [esi+816]
  000f1	e8 00 00 00 00	 call	 ??1CExDrawButton@@UAE@XZ ; CExDrawButton::~CExDrawButton
  000f6	8d 8e 28 02 00
	00		 lea	 ecx, DWORD PTR [esi+552]
  000fc	e8 00 00 00 00	 call	 ??1CXTabCtrl@@UAE@XZ	; CXTabCtrl::~CXTabCtrl
  00101	8d 8e a8 01 00
	00		 lea	 ecx, DWORD PTR [esi+424]
  00107	e8 00 00 00 00	 call	 ??1CButton@@UAE@XZ	; CButton::~CButton
  0010c	8d 8e 28 01 00
	00		 lea	 ecx, DWORD PTR [esi+296]
  00112	e8 00 00 00 00	 call	 ??1CButton@@UAE@XZ	; CButton::~CButton
  00117	8d 8e a8 00 00
	00		 lea	 ecx, DWORD PTR [esi+168]
  0011d	e8 00 00 00 00	 call	 ??1CButton@@UAE@XZ	; CButton::~CButton
  00122	8b ce		 mov	 ecx, esi
  00124	e8 00 00 00 00	 call	 ??1CDialog@@UAE@XZ	; CDialog::~CDialog
  00129	8b 45 08	 mov	 eax, DWORD PTR ___flags$[ebp]
  0012c	a8 01		 test	 al, 1
  0012e	74 22		 je	 SHORT $LN32@scalar
  00130	a8 04		 test	 al, 4
  00132	75 10		 jne	 SHORT $LN3@scalar
; File C:\Program Files (x86)\Microsoft Visual Studio\2019\Community\VC\Tools\MSVC\14.29.30133\atlmfc\include\afx.inl

; 112  : 	{ ::operator delete(p); }

  00134	56		 push	 esi
  00135	e8 00 00 00 00	 call	 ??3@YAXPAX@Z		; operator delete
  0013a	83 c4 04	 add	 esp, 4
  0013d	8b c6		 mov	 eax, esi
  0013f	5e		 pop	 esi
  00140	5d		 pop	 ebp
  00141	c2 04 00	 ret	 4
$LN3@scalar:
  00144	68 18 0a 00 00	 push	 2584			; 00000a18H
  00149	56		 push	 esi
  0014a	e8 00 00 00 00	 call	 ?__global_delete@@YAXPAXI@Z ; __global_delete
  0014f	83 c4 08	 add	 esp, 8
$LN32@scalar:
  00152	8b c6		 mov	 eax, esi
  00154	5e		 pop	 esi
  00155	5d		 pop	 ebp
  00156	c2 04 00	 ret	 4
??_GCInfoRight@@UAEPAXI@Z ENDP				; CInfoRight::`scalar deleting destructor'
_TEXT	ENDS
; Function compile flags: /Ogtp
; File D:\git\src\IBK\IBK_DRFN\ProjSrc\SrcDrfn\Chart\HWSTRATEGYANALYSIS\InfoRight.cpp
; File C:\Program Files (x86)\Microsoft Visual Studio\2019\Community\VC\Tools\MSVC\14.29.30133\atlmfc\include\afxcmn.inl
; File D:\git\src\IBK\IBK_DRFN\ProjSrc\SrcDrfn\Chart\HWSTRATEGYANALYSIS\InfoRight.cpp
; File C:\Program Files (x86)\Microsoft Visual Studio\2019\Community\VC\Tools\MSVC\14.29.30133\atlmfc\include\afxcmn.inl
; File D:\git\src\IBK\IBK_DRFN\ProjSrc\SrcDrfn\Chart\HWSTRATEGYANALYSIS\InfoRight.cpp
;	COMDAT ?OnNMClickTab1@CInfoRight@@QAEXPAUtagNMHDR@@PAJ@Z
_TEXT	SEGMENT
_pNMHDR$ = 8						; size = 4
_pResult$ = 12						; size = 4
?OnNMClickTab1@CInfoRight@@QAEXPAUtagNMHDR@@PAJ@Z PROC	; CInfoRight::OnNMClickTab1, COMDAT
; _this$ = ecx

; 425  : {

  00000	55		 push	 ebp
  00001	8b ec		 mov	 ebp, esp

; 427  : 	*pResult = 0;

  00003	8b 45 0c	 mov	 eax, DWORD PTR _pResult$[ebp]
; File C:\Program Files (x86)\Microsoft Visual Studio\2019\Community\VC\Tools\MSVC\14.29.30133\atlmfc\include\afxcmn.inl

; 586  : 	{ ASSERT(::IsWindow(m_hWnd)); return (int)::SendMessage(m_hWnd, TCM_GETCURSEL, 0, 0L); }

  00006	6a 00		 push	 0
  00008	6a 00		 push	 0
  0000a	68 0b 13 00 00	 push	 4875			; 0000130bH
; File D:\git\src\IBK\IBK_DRFN\ProjSrc\SrcDrfn\Chart\HWSTRATEGYANALYSIS\InfoRight.cpp

; 427  : 	*pResult = 0;

  0000f	c7 00 00 00 00
	00		 mov	 DWORD PTR [eax], 0
; File C:\Program Files (x86)\Microsoft Visual Studio\2019\Community\VC\Tools\MSVC\14.29.30133\atlmfc\include\afxcmn.inl

; 586  : 	{ ASSERT(::IsWindow(m_hWnd)); return (int)::SendMessage(m_hWnd, TCM_GETCURSEL, 0, 0L); }

  00015	ff b1 48 02 00
	00		 push	 DWORD PTR [ecx+584]
  0001b	ff 15 00 00 00
	00		 call	 DWORD PTR __imp__SendMessageA@16
; File D:\git\src\IBK\IBK_DRFN\ProjSrc\SrcDrfn\Chart\HWSTRATEGYANALYSIS\InfoRight.cpp

; 431  : }

  00021	5d		 pop	 ebp
  00022	c2 08 00	 ret	 8
?OnNMClickTab1@CInfoRight@@QAEXPAUtagNMHDR@@PAJ@Z ENDP	; CInfoRight::OnNMClickTab1
_TEXT	ENDS
; Function compile flags: /Ogtp
; File D:\git\src\IBK\IBK_DRFN\ProjSrc\SrcDrfn\Chart\HWSTRATEGYANALYSIS\InfoRight.cpp
; File C:\Program Files (x86)\Microsoft Visual Studio\2019\Community\VC\Tools\MSVC\14.29.30133\atlmfc\include\afxwin2.inl
; File D:\git\src\IBK\IBK_DRFN\ProjSrc\SrcDrfn\Chart\HWSTRATEGYANALYSIS\InfoRight.cpp
; File C:\Program Files (x86)\Microsoft Visual Studio\2019\Community\VC\Tools\MSVC\14.29.30133\atlmfc\include\afxwin2.inl
; File D:\git\src\IBK\IBK_DRFN\ProjSrc\SrcDrfn\Chart\HWSTRATEGYANALYSIS\InfoRight.cpp
;	COMDAT ?OnCbnSelchangeComboDivide@CInfoRight@@QAEXXZ
_TEXT	SEGMENT
?OnCbnSelchangeComboDivide@CInfoRight@@QAEXXZ PROC	; CInfoRight::OnCbnSelchangeComboDivide, COMDAT
; _this$ = ecx

; 413  : {

  00000	56		 push	 esi
; File C:\Program Files (x86)\Microsoft Visual Studio\2019\Community\VC\Tools\MSVC\14.29.30133\atlmfc\include\afxwin2.inl

; 765  : 	{ ASSERT(::IsWindow(m_hWnd)); return (int)::SendMessage(m_hWnd, CB_GETCURSEL, 0, 0); }

  00001	6a 00		 push	 0
; File D:\git\src\IBK\IBK_DRFN\ProjSrc\SrcDrfn\Chart\HWSTRATEGYANALYSIS\InfoRight.cpp

; 413  : {

  00003	8b f1		 mov	 esi, ecx
; File C:\Program Files (x86)\Microsoft Visual Studio\2019\Community\VC\Tools\MSVC\14.29.30133\atlmfc\include\afxwin2.inl

; 765  : 	{ ASSERT(::IsWindow(m_hWnd)); return (int)::SendMessage(m_hWnd, CB_GETCURSEL, 0, 0); }

  00005	6a 00		 push	 0
  00007	68 47 01 00 00	 push	 327			; 00000147H
  0000c	ff b6 58 04 00
	00		 push	 DWORD PTR [esi+1112]
  00012	ff 15 00 00 00
	00		 call	 DWORD PTR __imp__SendMessageA@16
; File D:\git\src\IBK\IBK_DRFN\ProjSrc\SrcDrfn\Chart\HWSTRATEGYANALYSIS\InfoRight.cpp

; 417  : 	m_Result->m_iDateIndex = Index;

  00018	8b 8e 00 04 00
	00		 mov	 ecx, DWORD PTR [esi+1024]

; 418  : 	m_pDlgAnalysis->SetCalculateData(Index);

  0001e	50		 push	 eax
  0001f	89 81 40 01 00
	00		 mov	 DWORD PTR [ecx+320], eax
  00025	8b 8e 30 04 00
	00		 mov	 ecx, DWORD PTR [esi+1072]
  0002b	e8 00 00 00 00	 call	 ?SetCalculateData@CDlgAnalysis@@QAEXH@Z ; CDlgAnalysis::SetCalculateData

; 218  : 	m_Result->SetDataSpreadGrid();

  00030	8b 8e 00 04 00
	00		 mov	 ecx, DWORD PTR [esi+1024]
  00036	e8 00 00 00 00	 call	 ?SetDataSpreadGrid@CTabResult@@QAEXXZ ; CTabResult::SetDataSpreadGrid

; 219  : 	m_Trade->SetDataSpreadGrid();

  0003b	8b 8e 08 04 00
	00		 mov	 ecx, DWORD PTR [esi+1032]
  00041	e8 00 00 00 00	 call	 ?SetDataSpreadGrid@CTabTrade@@QAEXXZ ; CTabTrade::SetDataSpreadGrid

; 220  : 	m_Step->SetDataSpreadGrid();

  00046	8b 8e 04 04 00
	00		 mov	 ecx, DWORD PTR [esi+1028]
  0004c	5e		 pop	 esi
  0004d	e9 00 00 00 00	 jmp	 ?SetDataSpreadGrid@CTabStep@@QAEXXZ ; CTabStep::SetDataSpreadGrid
?OnCbnSelchangeComboDivide@CInfoRight@@QAEXXZ ENDP	; CInfoRight::OnCbnSelchangeComboDivide
_TEXT	ENDS
; Function compile flags: /Ogtp
; File D:\git\src\IBK\IBK_DRFN\ProjSrc\SrcDrfn\Chart\HWSTRATEGYANALYSIS\InfoRight.cpp
;	COMDAT ?DrawGraph@CInfoRight@@QAEXXZ
_TEXT	SEGMENT
?DrawGraph@CInfoRight@@QAEXXZ PROC			; CInfoRight::DrawGraph, COMDAT
; _this$ = ecx

; 132  : {

  00000	53		 push	 ebx
  00001	8b d9		 mov	 ebx, ecx
  00003	56		 push	 esi
  00004	57		 push	 edi

; 133  : 	CIStrategyItem* pStrategyItem = m_pDlgAnalysis->GetStrategyItem();

  00005	8b 83 30 04 00
	00		 mov	 eax, DWORD PTR [ebx+1072]
  0000b	8b b0 c4 00 00
	00		 mov	 esi, DWORD PTR [eax+196]

; 134  : 	int nCount = pStrategyItem->GetCount();

  00011	8b ce		 mov	 ecx, esi
  00013	8b 06		 mov	 eax, DWORD PTR [esi]
  00015	ff 50 30	 call	 DWORD PTR [eax+48]

; 135  : 	ST_DRAWINFO_EX *pDrawInfo = (ST_DRAWINFO_EX *)pStrategyItem->GetPtrDrawInfo(nCount-1);

  00018	8b 16		 mov	 edx, DWORD PTR [esi]
  0001a	48		 dec	 eax
  0001b	50		 push	 eax
  0001c	8b ce		 mov	 ecx, esi
  0001e	ff 52 40	 call	 DWORD PTR [edx+64]

; 136  : 	m_pChartItem->InvokeAddIn("ChartSTIndexAddIn.dll",6,m_pDlgAnalysis->m_hTabChartEx);

  00021	8b 8b 30 04 00
	00		 mov	 ecx, DWORD PTR [ebx+1072]
  00027	8b f8		 mov	 edi, eax
  00029	8b 93 34 04 00
	00		 mov	 edx, DWORD PTR [ebx+1076]
  0002f	ff b1 38 01 00
	00		 push	 DWORD PTR [ecx+312]
  00035	8b 32		 mov	 esi, DWORD PTR [edx]
  00037	6a 06		 push	 6
  00039	68 00 00 00 00	 push	 OFFSET ??_C@_0BG@CHJJKIAP@ChartSTIndexAddIn?4dll@
  0003e	52		 push	 edx
  0003f	ff 56 18	 call	 DWORD PTR [esi+24]

; 137  : 	m_pChartItem->InvokeAddIn("ChartSTIndexAddIn.dll",5,(long)&m_pDlgAnalysis->m_stDataIndex);//Div: KHD 

  00042	8b 83 30 04 00
	00		 mov	 eax, DWORD PTR [ebx+1072]
  00048	8b 8b 34 04 00
	00		 mov	 ecx, DWORD PTR [ebx+1076]
  0004e	05 3c 01 00 00	 add	 eax, 316		; 0000013cH
  00053	50		 push	 eax
  00054	6a 05		 push	 5
  00056	68 00 00 00 00	 push	 OFFSET ??_C@_0BG@CHJJKIAP@ChartSTIndexAddIn?4dll@
  0005b	8b 11		 mov	 edx, DWORD PTR [ecx]
  0005d	51		 push	 ecx
  0005e	ff 52 18	 call	 DWORD PTR [edx+24]

; 138  : 	m_pChartItem->InvokeAddIn("ChartSTIndexAddIn.dll",4,(long)pDrawInfo);

  00061	8b 83 34 04 00
	00		 mov	 eax, DWORD PTR [ebx+1076]
  00067	57		 push	 edi
  00068	6a 04		 push	 4
  0006a	68 00 00 00 00	 push	 OFFSET ??_C@_0BG@CHJJKIAP@ChartSTIndexAddIn?4dll@
  0006f	8b 08		 mov	 ecx, DWORD PTR [eax]
  00071	50		 push	 eax
  00072	ff 51 18	 call	 DWORD PTR [ecx+24]
  00075	5f		 pop	 edi
  00076	5e		 pop	 esi
  00077	5b		 pop	 ebx

; 139  : 	
; 140  : }

  00078	c3		 ret	 0
?DrawGraph@CInfoRight@@QAEXXZ ENDP			; CInfoRight::DrawGraph
_TEXT	ENDS
; Function compile flags: /Ogtp
; File D:\git\src\IBK\IBK_DRFN\ProjSrc\SrcDrfn\Chart\HWSTRATEGYANALYSIS\InfoRight.cpp
;	COMDAT ?ApplyST@CInfoRight@@QAEXXZ
_TEXT	SEGMENT
?ApplyST@CInfoRight@@QAEXXZ PROC			; CInfoRight::ApplyST, COMDAT
; _this$ = ecx

; 395  : 	m_pDlgAnalysis->Result();

  00000	8b 89 30 04 00
	00		 mov	 ecx, DWORD PTR [ecx+1072]
  00006	e9 00 00 00 00	 jmp	 ?Result@CDlgAnalysis@@QAEXXZ ; CDlgAnalysis::Result
?ApplyST@CInfoRight@@QAEXXZ ENDP			; CInfoRight::ApplyST
_TEXT	ENDS
; Function compile flags: /Ogtp
; File D:\git\src\IBK\IBK_DRFN\ProjSrc\SrcDrfn\Chart\HWSTRATEGYANALYSIS\InfoRight.cpp
; File C:\Program Files (x86)\Microsoft Visual Studio\2019\Community\VC\Tools\MSVC\14.29.30133\atlmfc\include\afxtempl.h
; File D:\git\src\IBK\IBK_DRFN\ProjSrc\SrcDrfn\Chart\HWSTRATEGYANALYSIS\InfoRight.cpp
; File C:\Program Files (x86)\Microsoft Visual Studio\2019\Community\VC\Tools\MSVC\14.29.30133\atlmfc\include\afxtempl.h
; File D:\git\src\IBK\IBK_DRFN\ProjSrc\SrcDrfn\Chart\HWSTRATEGYANALYSIS\InfoRight.cpp
;	COMDAT ?AllUpdateDlg@CInfoRight@@QAEXXZ
_TEXT	SEGMENT
?AllUpdateDlg@CInfoRight@@QAEXXZ PROC			; CInfoRight::AllUpdateDlg, COMDAT
; _this$ = ecx

; 365  : {

  00000	53		 push	 ebx
  00001	56		 push	 esi
  00002	57		 push	 edi
  00003	8b f9		 mov	 edi, ecx

; 366  : 	CDlgInterface *pDlgInterface = NULL;
; 367  : 	int nSize = m_arrayTab.GetSize();
; 368  : 	for(int nPos=0;nPos<nSize;nPos++)

  00005	33 f6		 xor	 esi, esi
  00007	8b 9f f0 03 00
	00		 mov	 ebx, DWORD PTR [edi+1008]
  0000d	85 db		 test	 ebx, ebx
  0000f	7e 22		 jle	 SHORT $LN3@AllUpdateD
$LL4@AllUpdateD:
; File C:\Program Files (x86)\Microsoft Visual Studio\2019\Community\VC\Tools\MSVC\14.29.30133\atlmfc\include\afxtempl.h

; 288  : 	if(nIndex >= 0 && nIndex < m_nSize)

  00011	85 f6		 test	 esi, esi
  00013	78 22		 js	 SHORT $LN7@AllUpdateD
  00015	3b b7 f0 03 00
	00		 cmp	 esi, DWORD PTR [edi+1008]
  0001b	7d 1a		 jge	 SHORT $LN7@AllUpdateD
; File D:\git\src\IBK\IBK_DRFN\ProjSrc\SrcDrfn\Chart\HWSTRATEGYANALYSIS\InfoRight.cpp

; 370  : 		pDlgInterface = m_arrayTab.GetAt(nPos);

  0001d	8b 87 ec 03 00
	00		 mov	 eax, DWORD PTR [edi+1004]
  00023	8b 0c b0	 mov	 ecx, DWORD PTR [eax+esi*4]

; 371  : 		pDlgInterface->UpdateDlg();

  00026	8b 01		 mov	 eax, DWORD PTR [ecx]
  00028	ff 90 94 01 00
	00		 call	 DWORD PTR [eax+404]
  0002e	46		 inc	 esi
  0002f	3b f3		 cmp	 esi, ebx
  00031	7c de		 jl	 SHORT $LL4@AllUpdateD
$LN3@AllUpdateD:
  00033	5f		 pop	 edi

; 373  : }

  00034	5e		 pop	 esi
  00035	5b		 pop	 ebx
  00036	c3		 ret	 0
$LN7@AllUpdateD:
; File C:\Program Files (x86)\Microsoft Visual Studio\2019\Community\VC\Tools\MSVC\14.29.30133\atlmfc\include\afxtempl.h

; 290  : 	AfxThrowInvalidArgException();

  00037	e8 00 00 00 00	 call	 ?AfxThrowInvalidArgException@@YGXXZ ; AfxThrowInvalidArgException
$LN14@AllUpdateD:
  0003c	cc		 int	 3
?AllUpdateDlg@CInfoRight@@QAEXXZ ENDP			; CInfoRight::AllUpdateDlg
_TEXT	ENDS
; Function compile flags: /Ogtp
; File D:\git\src\IBK\IBK_DRFN\ProjSrc\SrcDrfn\Chart\HWSTRATEGYANALYSIS\InfoRight.cpp
; File C:\Program Files (x86)\Microsoft Visual Studio\2019\Community\VC\Tools\MSVC\14.29.30133\atlmfc\include\afxtempl.h
; File D:\git\src\IBK\IBK_DRFN\ProjSrc\SrcDrfn\Chart\HWSTRATEGYANALYSIS\InfoRight.cpp
; File C:\Program Files (x86)\Microsoft Visual Studio\2019\Community\VC\Tools\MSVC\14.29.30133\atlmfc\include\afxtempl.h
; File D:\git\src\IBK\IBK_DRFN\ProjSrc\SrcDrfn\Chart\HWSTRATEGYANALYSIS\InfoRight.cpp
;	COMDAT ?InitCodeGubun@CInfoRight@@QAEXH@Z
_TEXT	SEGMENT
_bInitGubun$ = 8					; size = 4
?InitCodeGubun@CInfoRight@@QAEXH@Z PROC			; CInfoRight::InitCodeGubun, COMDAT
; _this$ = ecx

; 376  : {

  00000	55		 push	 ebp
  00001	8b ec		 mov	 ebp, esp
  00003	8b d1		 mov	 edx, ecx

; 377  : 	CDlgInterface *pDlgInterface = NULL;
; 378  : 	int nSize = m_arrayTab.GetSize();
; 379  : 	for(int nPos=0;nPos<nSize;nPos++)

  00005	33 c0		 xor	 eax, eax
  00007	56		 push	 esi
  00008	8b b2 f0 03 00
	00		 mov	 esi, DWORD PTR [edx+1008]
  0000e	85 f6		 test	 esi, esi
  00010	7e 25		 jle	 SHORT $LN3@InitCodeGu
  00012	57		 push	 edi
  00013	8b 7d 08	 mov	 edi, DWORD PTR _bInitGubun$[ebp]
$LL4@InitCodeGu:
; File C:\Program Files (x86)\Microsoft Visual Studio\2019\Community\VC\Tools\MSVC\14.29.30133\atlmfc\include\afxtempl.h

; 288  : 	if(nIndex >= 0 && nIndex < m_nSize)

  00016	85 c0		 test	 eax, eax
  00018	78 22		 js	 SHORT $LN7@InitCodeGu
  0001a	3b 82 f0 03 00
	00		 cmp	 eax, DWORD PTR [edx+1008]
  00020	7d 1a		 jge	 SHORT $LN7@InitCodeGu
; File D:\git\src\IBK\IBK_DRFN\ProjSrc\SrcDrfn\Chart\HWSTRATEGYANALYSIS\InfoRight.cpp

; 382  : 		pDlgInterface->m_bIsJusik = bInitGubun;

  00022	8b 8a ec 03 00
	00		 mov	 ecx, DWORD PTR [edx+1004]
  00028	8b 0c 81	 mov	 ecx, DWORD PTR [ecx+eax*4]
  0002b	40		 inc	 eax
  0002c	89 b9 b0 00 00
	00		 mov	 DWORD PTR [ecx+176], edi
  00032	3b c6		 cmp	 eax, esi
  00034	7c e0		 jl	 SHORT $LL4@InitCodeGu

; 377  : 	CDlgInterface *pDlgInterface = NULL;
; 378  : 	int nSize = m_arrayTab.GetSize();
; 379  : 	for(int nPos=0;nPos<nSize;nPos++)

  00036	5f		 pop	 edi
$LN3@InitCodeGu:
  00037	5e		 pop	 esi

; 384  : }

  00038	5d		 pop	 ebp
  00039	c2 04 00	 ret	 4
$LN7@InitCodeGu:
; File C:\Program Files (x86)\Microsoft Visual Studio\2019\Community\VC\Tools\MSVC\14.29.30133\atlmfc\include\afxtempl.h

; 290  : 	AfxThrowInvalidArgException();

  0003c	e8 00 00 00 00	 call	 ?AfxThrowInvalidArgException@@YGXXZ ; AfxThrowInvalidArgException
$LN14@InitCodeGu:
  00041	cc		 int	 3
?InitCodeGubun@CInfoRight@@QAEXH@Z ENDP			; CInfoRight::InitCodeGubun
_TEXT	ENDS
; Function compile flags: /Ogtp
; File D:\git\src\IBK\IBK_DRFN\ProjSrc\SrcDrfn\Chart\HWSTRATEGYANALYSIS\InfoRight.cpp
;	COMDAT ?RefreshWebView@CInfoRight@@QAEXXZ
_TEXT	SEGMENT
?RefreshWebView@CInfoRight@@QAEXXZ PROC			; CInfoRight::RefreshWebView, COMDAT
; _this$ = ecx

; 216  : {

  00000	56		 push	 esi
  00001	8b f1		 mov	 esi, ecx

; 217  : 
; 218  : 	m_Result->SetDataSpreadGrid();

  00003	8b 8e 00 04 00
	00		 mov	 ecx, DWORD PTR [esi+1024]
  00009	e8 00 00 00 00	 call	 ?SetDataSpreadGrid@CTabResult@@QAEXXZ ; CTabResult::SetDataSpreadGrid

; 219  : 	m_Trade->SetDataSpreadGrid();

  0000e	8b 8e 08 04 00
	00		 mov	 ecx, DWORD PTR [esi+1032]
  00014	e8 00 00 00 00	 call	 ?SetDataSpreadGrid@CTabTrade@@QAEXXZ ; CTabTrade::SetDataSpreadGrid

; 220  : 	m_Step->SetDataSpreadGrid();

  00019	8b 8e 04 04 00
	00		 mov	 ecx, DWORD PTR [esi+1028]
  0001f	5e		 pop	 esi
  00020	e9 00 00 00 00	 jmp	 ?SetDataSpreadGrid@CTabStep@@QAEXXZ ; CTabStep::SetDataSpreadGrid
?RefreshWebView@CInfoRight@@QAEXXZ ENDP			; CInfoRight::RefreshWebView
_TEXT	ENDS
; Function compile flags: /Ogtp
; File D:\git\src\IBK\IBK_DRFN\ProjSrc\SrcDrfn\Chart\HWSTRATEGYANALYSIS\InfoRight.cpp
;	COMDAT ?InitHeader@CInfoRight@@QAEXXZ
_TEXT	SEGMENT
?InitHeader@CInfoRight@@QAEXXZ PROC			; CInfoRight::InitHeader, COMDAT
; _this$ = ecx

; 179  : //	CString strPath = m_strFilePath+"\\-Header.htm";
; 180  : //	m_Browser.Navigate(strPath,NULL,NULL,NULL,NULL);
; 181  : }

  00000	c2 00 00	 ret	 0
?InitHeader@CInfoRight@@QAEXXZ ENDP			; CInfoRight::InitHeader
_TEXT	ENDS
; Function compile flags: /Ogtp
; File D:\git\src\IBK\IBK_DRFN\ProjSrc\SrcDrfn\Chart\HWSTRATEGYANALYSIS\InfoRight.cpp
; File C:\Program Files (x86)\Microsoft Visual Studio\2019\Community\VC\Tools\MSVC\14.29.30133\atlmfc\include\afxwin1.inl
; File D:\git\src\IBK\IBK_DRFN\ProjSrc\SrcDrfn\Chart\HWSTRATEGYANALYSIS\InfoRight.cpp
; File C:\Program Files (x86)\Microsoft Visual Studio\2019\Community\VC\Tools\MSVC\14.29.30133\atlmfc\include\afxwin1.inl
; File D:\git\src\IBK\IBK_DRFN\ProjSrc\SrcDrfn\Chart\HWSTRATEGYANALYSIS\InfoRight.cpp
; File C:\Program Files (x86)\Microsoft Visual Studio\2019\Community\VC\Tools\MSVC\14.29.30133\atlmfc\include\afxwin1.inl
; File C:\Program Files (x86)\Microsoft Visual Studio\2019\Community\VC\Tools\MSVC\14.29.30133\atlmfc\include\afxwin2.inl
; File C:\Program Files (x86)\Microsoft Visual Studio\2019\Community\VC\Tools\MSVC\14.29.30133\atlmfc\include\atltypes.h
; File C:\Program Files (x86)\Microsoft Visual Studio\2019\Community\VC\Tools\MSVC\14.29.30133\atlmfc\include\afxwin2.inl
; File D:\git\src\IBK\IBK_DRFN\ProjSrc\SrcDrfn\Chart\HWSTRATEGYANALYSIS\InfoRight.cpp
; File C:\Program Files (x86)\Microsoft Visual Studio\2019\Community\VC\Tools\MSVC\14.29.30133\atlmfc\include\afxwin2.inl
; File D:\git\src\IBK\IBK_DRFN\ProjSrc\SrcDrfn\Chart\HWSTRATEGYANALYSIS\InfoRight.cpp
; File C:\Program Files (x86)\Microsoft Visual Studio\2019\Community\VC\Tools\MSVC\14.29.30133\atlmfc\include\afxwin2.inl
; File C:\Program Files (x86)\Microsoft Visual Studio\2019\Community\VC\Tools\MSVC\14.29.30133\atlmfc\include\atltypes.h
; File C:\Program Files (x86)\Microsoft Visual Studio\2019\Community\VC\Tools\MSVC\14.29.30133\atlmfc\include\afxwin2.inl
; File C:\Program Files (x86)\Microsoft Visual Studio\2019\Community\VC\Tools\MSVC\14.29.30133\atlmfc\include\afx.inl
; File D:\git\src\IBK\IBK_DRFN\ProjSrc\SrcDrfn\Chart\HWSTRATEGYANALYSIS\InfoRight.cpp
; File C:\Program Files (x86)\Microsoft Visual Studio\2019\Community\VC\Tools\MSVC\14.29.30133\atlmfc\include\afxtempl.h
; File D:\git\src\IBK\IBK_DRFN\ProjSrc\SrcDrfn\Chart\HWSTRATEGYANALYSIS\InfoRight.cpp
; File C:\Program Files (x86)\Microsoft Visual Studio\2019\Community\VC\Tools\MSVC\14.29.30133\atlmfc\include\afxtempl.h
; File C:\Program Files (x86)\Microsoft Visual Studio\2019\Community\VC\Tools\MSVC\14.29.30133\atlmfc\include\afx.inl
; File C:\Program Files (x86)\Microsoft Visual Studio\2019\Community\VC\Tools\MSVC\14.29.30133\atlmfc\include\afxtempl.h
; File C:\Program Files (x86)\Microsoft Visual Studio\2019\Community\VC\Tools\MSVC\14.29.30133\atlmfc\include\afx.inl
; File D:\git\src\IBK\IBK_DRFN\ProjSrc\SrcDrfn\Chart\HWSTRATEGYANALYSIS\InfoRight.cpp
; File C:\Program Files (x86)\Microsoft Visual Studio\2019\Community\VC\Tools\MSVC\14.29.30133\atlmfc\include\afxtempl.h
; File D:\git\src\IBK\IBK_DRFN\ProjSrc\SrcDrfn\Chart\HWSTRATEGYANALYSIS\InfoRight.cpp
; File C:\Program Files (x86)\Microsoft Visual Studio\2019\Community\VC\Tools\MSVC\14.29.30133\atlmfc\include\afxtempl.h
; File C:\Program Files (x86)\Microsoft Visual Studio\2019\Community\VC\Tools\MSVC\14.29.30133\atlmfc\include\afx.inl
; File C:\Program Files (x86)\Microsoft Visual Studio\2019\Community\VC\Tools\MSVC\14.29.30133\atlmfc\include\afxtempl.h
; File C:\Program Files (x86)\Microsoft Visual Studio\2019\Community\VC\Tools\MSVC\14.29.30133\atlmfc\include\afx.inl
; File D:\git\src\IBK\IBK_DRFN\ProjSrc\SrcDrfn\Chart\HWSTRATEGYANALYSIS\InfoRight.cpp
; File C:\Program Files (x86)\Microsoft Visual Studio\2019\Community\VC\Tools\MSVC\14.29.30133\atlmfc\include\afxtempl.h
; File D:\git\src\IBK\IBK_DRFN\ProjSrc\SrcDrfn\Chart\HWSTRATEGYANALYSIS\InfoRight.cpp
; File C:\Program Files (x86)\Microsoft Visual Studio\2019\Community\VC\Tools\MSVC\14.29.30133\atlmfc\include\afxtempl.h
; File C:\Program Files (x86)\Microsoft Visual Studio\2019\Community\VC\Tools\MSVC\14.29.30133\atlmfc\include\afx.inl
; File C:\Program Files (x86)\Microsoft Visual Studio\2019\Community\VC\Tools\MSVC\14.29.30133\atlmfc\include\afxtempl.h
; File C:\Program Files (x86)\Microsoft Visual Studio\2019\Community\VC\Tools\MSVC\14.29.30133\atlmfc\include\afx.inl
; File D:\git\src\IBK\IBK_DRFN\ProjSrc\SrcDrfn\Chart\HWSTRATEGYANALYSIS\InfoRight.cpp
; File C:\Program Files (x86)\Microsoft Visual Studio\2019\Community\VC\Tools\MSVC\14.29.30133\atlmfc\include\afxtempl.h
; File D:\git\src\IBK\IBK_DRFN\ProjSrc\SrcDrfn\Chart\HWSTRATEGYANALYSIS\InfoRight.cpp
; File C:\Program Files (x86)\Microsoft Visual Studio\2019\Community\VC\Tools\MSVC\14.29.30133\atlmfc\include\afxtempl.h
; File C:\Program Files (x86)\Microsoft Visual Studio\2019\Community\VC\Tools\MSVC\14.29.30133\atlmfc\include\afx.inl
; File C:\Program Files (x86)\Microsoft Visual Studio\2019\Community\VC\Tools\MSVC\14.29.30133\atlmfc\include\afxtempl.h
; File C:\Program Files (x86)\Microsoft Visual Studio\2019\Community\VC\Tools\MSVC\14.29.30133\atlmfc\include\afx.inl
; File D:\git\src\IBK\IBK_DRFN\ProjSrc\SrcDrfn\Chart\HWSTRATEGYANALYSIS\InfoRight.cpp
; File C:\Program Files (x86)\Microsoft Visual Studio\2019\Community\VC\Tools\MSVC\14.29.30133\atlmfc\include\afxtempl.h
; File D:\git\src\IBK\IBK_DRFN\ProjSrc\SrcDrfn\Chart\HWSTRATEGYANALYSIS\InfoRight.cpp
; File C:\Program Files (x86)\Microsoft Visual Studio\2019\Community\VC\Tools\MSVC\14.29.30133\atlmfc\include\afxtempl.h
; File D:\git\src\IBK\IBK_DRFN\ProjSrc\SrcDrfn\Chart\HWSTRATEGYANALYSIS\InfoRight.cpp
; File C:\Program Files (x86)\Microsoft Visual Studio\2019\Community\VC\Tools\MSVC\14.29.30133\atlmfc\include\afxtempl.h
; File D:\git\src\IBK\IBK_DRFN\ProjSrc\SrcDrfn\Chart\HWSTRATEGYANALYSIS\InfoRight.cpp
; File C:\Program Files (x86)\Microsoft Visual Studio\2019\Community\VC\Tools\MSVC\14.29.30133\atlmfc\include\afxtempl.h
; File D:\git\src\IBK\IBK_DRFN\ProjSrc\SrcDrfn\Chart\HWSTRATEGYANALYSIS\InfoRight.cpp
;	COMDAT ?InitTab@CInfoRight@@QAEXXZ
_TEXT	SEGMENT
_newElement$1$ = -52					; size = 4
_newElement$1$ = -52					; size = 4
_newElement$1$ = -52					; size = 4
_newElement$1$ = -52					; size = 4
_newElement$1$ = -52					; size = 4
$T2 = -52						; size = 4
$T3 = -52						; size = 4
$T4 = -52						; size = 4
$T5 = -52						; size = 4
$T6 = -52						; size = 4
_rc$ = -48						; size = 16
_rcItem$ = -32						; size = 16
__$ArrayPad$ = -16					; size = 4
__$EHRec$ = -12						; size = 12
?InitTab@CInfoRight@@QAEXXZ PROC			; CInfoRight::InitTab, COMDAT
; _this$ = ecx

; 245  : {

  00000	55		 push	 ebp
  00001	8b ec		 mov	 ebp, esp
  00003	6a ff		 push	 -1
  00005	68 00 00 00 00	 push	 __ehhandler$?InitTab@CInfoRight@@QAEXXZ
  0000a	64 a1 00 00 00
	00		 mov	 eax, DWORD PTR fs:0
  00010	50		 push	 eax
  00011	83 ec 28	 sub	 esp, 40			; 00000028H
  00014	a1 00 00 00 00	 mov	 eax, DWORD PTR ___security_cookie
  00019	33 c5		 xor	 eax, ebp
  0001b	89 45 f0	 mov	 DWORD PTR __$ArrayPad$[ebp], eax
  0001e	53		 push	 ebx
  0001f	56		 push	 esi
  00020	57		 push	 edi
  00021	50		 push	 eax
  00022	8d 45 f4	 lea	 eax, DWORD PTR __$EHRec$[ebp]
  00025	64 a3 00 00 00
	00		 mov	 DWORD PTR fs:0, eax
  0002b	8b f9		 mov	 edi, ecx
; File C:\Program Files (x86)\Microsoft Visual Studio\2019\Community\VC\Tools\MSVC\14.29.30133\atlmfc\include\afxwin1.inl

; 132  : 	{ return Attach(::CreateSolidBrush(crColor)); }

  0002d	68 f7 f8 fc 00	 push	 16578807		; 00fcf8f7H
; File D:\git\src\IBK\IBK_DRFN\ProjSrc\SrcDrfn\Chart\HWSTRATEGYANALYSIS\InfoRight.cpp

; 251  : 		m_crBk = DEFAULT_BKGRND_COLOR2;

  00032	c7 87 e0 03 00
	00 f7 f8 fc 00	 mov	 DWORD PTR [edi+992], 16578807 ; 00fcf8f7H
; File C:\Program Files (x86)\Microsoft Visual Studio\2019\Community\VC\Tools\MSVC\14.29.30133\atlmfc\include\afxwin1.inl

; 132  : 	{ return Attach(::CreateSolidBrush(crColor)); }

  0003c	ff 15 00 00 00
	00		 call	 DWORD PTR __imp__CreateSolidBrush@4
  00042	50		 push	 eax
; File D:\git\src\IBK\IBK_DRFN\ProjSrc\SrcDrfn\Chart\HWSTRATEGYANALYSIS\InfoRight.cpp

; 253  : 	m_brBkColor.CreateSolidBrush(m_crBk);

  00043	8d 8f d8 03 00
	00		 lea	 ecx, DWORD PTR [edi+984]
; File C:\Program Files (x86)\Microsoft Visual Studio\2019\Community\VC\Tools\MSVC\14.29.30133\atlmfc\include\afxwin1.inl

; 132  : 	{ return Attach(::CreateSolidBrush(crColor)); }

  00049	e8 00 00 00 00	 call	 ?Attach@CGdiObject@@QAEHPAX@Z ; CGdiObject::Attach
; File C:\Program Files (x86)\Microsoft Visual Studio\2019\Community\VC\Tools\MSVC\14.29.30133\atlmfc\include\afxwin2.inl

; 86   : 	{ ASSERT(::IsWindow(m_hWnd)); ::GetClientRect(m_hWnd, lpRect); }

  0004e	8b 35 00 00 00
	00		 mov	 esi, DWORD PTR __imp__GetClientRect@8
  00054	8d 45 d0	 lea	 eax, DWORD PTR _rc$[ebp]
  00057	50		 push	 eax
  00058	ff b7 48 02 00
	00		 push	 DWORD PTR [edi+584]
  0005e	0f 57 c0	 xorps	 xmm0, xmm0
; File C:\Program Files (x86)\Microsoft Visual Studio\2019\Community\VC\Tools\MSVC\14.29.30133\atlmfc\include\atltypes.h

; 528  : 	left = 0;

  00061	0f 11 45 d0	 movups	 XMMWORD PTR _rc$[ebp], xmm0
; File C:\Program Files (x86)\Microsoft Visual Studio\2019\Community\VC\Tools\MSVC\14.29.30133\atlmfc\include\afxwin2.inl

; 86   : 	{ ASSERT(::IsWindow(m_hWnd)); ::GetClientRect(m_hWnd, lpRect); }

  00065	ff d6		 call	 esi
; File D:\git\src\IBK\IBK_DRFN\ProjSrc\SrcDrfn\Chart\HWSTRATEGYANALYSIS\InfoRight.cpp

; 257  : 	m_CtlTab.SetTopLeftCorner(CPoint(rc.left-2,107));

  00067	8b 45 d0	 mov	 eax, DWORD PTR _rc$[ebp]
  0006a	8d 8f 28 02 00
	00		 lea	 ecx, DWORD PTR [edi+552]
  00070	83 c0 fe	 add	 eax, -2			; fffffffeH
  00073	6a 6b		 push	 107			; 0000006bH
  00075	50		 push	 eax
  00076	e8 00 00 00 00	 call	 ?SetTopLeftCorner@CXTabCtrl@@QAEXVCPoint@@@Z ; CXTabCtrl::SetTopLeftCorner

; 258  : 	m_CtlTab.SetLeftOffset(0);
; 259  : 	m_CtlTab.SetUpperOffset(0);
; 260  : 	m_CtlTab.SetSelectedColor(RGB(0, 0, 0),DEFAULT_BKGRND_COLOR2);

  0007b	68 f7 f8 fc 00	 push	 16578807		; 00fcf8f7H
  00080	6a 00		 push	 0
  00082	8d 8f 28 02 00
	00		 lea	 ecx, DWORD PTR [edi+552]
  00088	c7 87 28 03 00
	00 00 00 00 00	 mov	 DWORD PTR [edi+808], 0
  00092	c7 87 24 03 00
	00 00 00 00 00	 mov	 DWORD PTR [edi+804], 0
  0009c	e8 00 00 00 00	 call	 ?SetSelectedColor@CXTabCtrl@@QAEXKK@Z ; CXTabCtrl::SetSelectedColor

; 261  : 	m_CtlTab.SetNormalColor(RGB(0,0,0), RGB(255,255,255) , RGB(226,225,233));

  000a1	68 e2 e1 e9 00	 push	 15327714		; 00e9e1e2H
  000a6	68 ff ff ff 00	 push	 16777215		; 00ffffffH
  000ab	6a 00		 push	 0
  000ad	8d 8f 28 02 00
	00		 lea	 ecx, DWORD PTR [edi+552]
  000b3	e8 00 00 00 00	 call	 ?SetNormalColor@CXTabCtrl@@QAEXKKK@Z ; CXTabCtrl::SetNormalColor
; File C:\Program Files (x86)\Microsoft Visual Studio\2019\Community\VC\Tools\MSVC\14.29.30133\atlmfc\include\afxwin2.inl

; 86   : 	{ ASSERT(::IsWindow(m_hWnd)); ::GetClientRect(m_hWnd, lpRect); }

  000b8	8d 45 e0	 lea	 eax, DWORD PTR _rcItem$[ebp]
; File D:\git\src\IBK\IBK_DRFN\ProjSrc\SrcDrfn\Chart\HWSTRATEGYANALYSIS\InfoRight.cpp

; 262  : 	m_CtlTab.SetTabBkColor(DEFAULT_BKGRND_COLOR2);

  000bb	c7 87 e8 02 00
	00 f7 f8 fc 00	 mov	 DWORD PTR [edi+744], 16578807 ; 00fcf8f7H
; File C:\Program Files (x86)\Microsoft Visual Studio\2019\Community\VC\Tools\MSVC\14.29.30133\atlmfc\include\afxwin2.inl

; 86   : 	{ ASSERT(::IsWindow(m_hWnd)); ::GetClientRect(m_hWnd, lpRect); }

  000c5	50		 push	 eax
  000c6	ff b7 58 04 00
	00		 push	 DWORD PTR [edi+1112]
  000cc	0f 57 c0	 xorps	 xmm0, xmm0
; File C:\Program Files (x86)\Microsoft Visual Studio\2019\Community\VC\Tools\MSVC\14.29.30133\atlmfc\include\atltypes.h

; 528  : 	left = 0;

  000cf	0f 11 45 e0	 movups	 XMMWORD PTR _rcItem$[ebp], xmm0
; File C:\Program Files (x86)\Microsoft Visual Studio\2019\Community\VC\Tools\MSVC\14.29.30133\atlmfc\include\afxwin2.inl

; 86   : 	{ ASSERT(::IsWindow(m_hWnd)); ::GetClientRect(m_hWnd, lpRect); }

  000d3	ff d6		 call	 esi
; File C:\Program Files (x86)\Microsoft Visual Studio\2019\Community\VC\Tools\MSVC\14.29.30133\atlmfc\include\afx.inl

; 116  : 	{ return ::operator new(nSize); }

  000d5	68 20 07 00 00	 push	 1824			; 00000720H
  000da	e8 00 00 00 00	 call	 ??2@YAPAXI@Z		; operator new
  000df	83 c4 04	 add	 esp, 4
; File D:\git\src\IBK\IBK_DRFN\ProjSrc\SrcDrfn\Chart\HWSTRATEGYANALYSIS\InfoRight.cpp

; 268  : 	m_Result = new CTabResult;

  000e2	89 45 cc	 mov	 DWORD PTR $T6[ebp], eax
  000e5	c7 45 fc 00 00
	00 00		 mov	 DWORD PTR __$EHRec$[ebp+8], 0
  000ec	85 c0		 test	 eax, eax
  000ee	74 0d		 je	 SHORT $LN3@InitTab
  000f0	6a 00		 push	 0
  000f2	8b c8		 mov	 ecx, eax
  000f4	e8 00 00 00 00	 call	 ??0CTabResult@@QAE@PAVCWnd@@@Z ; CTabResult::CTabResult
  000f9	8b c8		 mov	 ecx, eax
  000fb	eb 02		 jmp	 SHORT $LN4@InitTab
$LN3@InitTab:
  000fd	33 c9		 xor	 ecx, ecx
$LN4@InitTab:

; 269  : 	m_Result->SetParentDlg(m_pDlgAnalysis);

  000ff	8b 87 30 04 00
	00		 mov	 eax, DWORD PTR [edi+1072]
  00105	89 8f 00 04 00
	00		 mov	 DWORD PTR [edi+1024], ecx
  0010b	89 81 ac 00 00
	00		 mov	 DWORD PTR [ecx+172], eax

; 270  : 	m_Result->SetGridFont(&m_Font);

  00111	8d 8f 10 0a 00
	00		 lea	 ecx, DWORD PTR [edi+2576]
  00117	8b 87 00 04 00
	00		 mov	 eax, DWORD PTR [edi+1024]
  0011d	c7 45 fc ff ff
	ff ff		 mov	 DWORD PTR __$EHRec$[ebp+8], -1
  00124	89 88 18 07 00
	00		 mov	 DWORD PTR [eax+1816], ecx

; 271  : 	m_Result->m_strFilePath = m_strFilePath;

  0012a	8d 87 fc 03 00
	00		 lea	 eax, DWORD PTR [edi+1020]
  00130	8b 8f 00 04 00
	00		 mov	 ecx, DWORD PTR [edi+1024]
  00136	50		 push	 eax
  00137	81 c1 44 01 00
	00		 add	 ecx, 324		; 00000144H
  0013d	ff 15 00 00 00
	00		 call	 DWORD PTR __imp_??4?$CStringT@DV?$StrTraitMFC_DLL@DV?$ChTraitsCRT@D@ATL@@@@@ATL@@QAEAAV01@ABV01@@Z

; 272  : 	m_Result->Create(CTabResult::IDD, this);

  00143	8b 8f 00 04 00
	00		 mov	 ecx, DWORD PTR [edi+1024]
  00149	57		 push	 edi
  0014a	68 bc 0b 00 00	 push	 3004			; 00000bbcH
  0014f	8b 01		 mov	 eax, DWORD PTR [ecx]
  00151	ff 90 6c 01 00
	00		 call	 DWORD PTR [eax+364]
; File C:\Program Files (x86)\Microsoft Visual Studio\2019\Community\VC\Tools\MSVC\14.29.30133\atlmfc\include\afxtempl.h

; 333  : 	{ INT_PTR nIndex = m_nSize;

  00157	8b 9f f0 03 00
	00		 mov	 ebx, DWORD PTR [edi+1008]
; File D:\git\src\IBK\IBK_DRFN\ProjSrc\SrcDrfn\Chart\HWSTRATEGYANALYSIS\InfoRight.cpp

; 274  : 	m_arrayTab.Add(m_Result);

  0015d	8d b7 e8 03 00
	00		 lea	 esi, DWORD PTR [edi+1000]
  00163	8b 87 00 04 00
	00		 mov	 eax, DWORD PTR [edi+1024]
  00169	89 45 cc	 mov	 DWORD PTR _newElement$1$[ebp], eax
; File C:\Program Files (x86)\Microsoft Visual Studio\2019\Community\VC\Tools\MSVC\14.29.30133\atlmfc\include\afxtempl.h

; 538  : 	if(nIndex < 0)

  0016c	85 db		 test	 ebx, ebx
  0016e	0f 88 4c 04 00
	00		 js	 $LN89@InitTab

; 540  : 
; 541  : 	if (nIndex >= m_nSize)
; 542  : 		SetSize(nIndex+1, -1);

  00174	6a ff		 push	 -1
  00176	8d 43 01	 lea	 eax, DWORD PTR [ebx+1]
  00179	8b ce		 mov	 ecx, esi
  0017b	50		 push	 eax
  0017c	e8 00 00 00 00	 call	 ?SetSize@?$CArray@PAVCDlgInterface@@PAV1@@@QAEXHH@Z ; CArray<CDlgInterface *,CDlgInterface *>::SetSize

; 543  : 	m_pData[nIndex] = newElement;

  00181	8b 46 04	 mov	 eax, DWORD PTR [esi+4]
  00184	8b 4d cc	 mov	 ecx, DWORD PTR _newElement$1$[ebp]
; File C:\Program Files (x86)\Microsoft Visual Studio\2019\Community\VC\Tools\MSVC\14.29.30133\atlmfc\include\afx.inl

; 116  : 	{ return ::operator new(nSize); }

  00187	68 68 05 00 00	 push	 1384			; 00000568H
; File C:\Program Files (x86)\Microsoft Visual Studio\2019\Community\VC\Tools\MSVC\14.29.30133\atlmfc\include\afxtempl.h

; 543  : 	m_pData[nIndex] = newElement;

  0018c	89 0c 98	 mov	 DWORD PTR [eax+ebx*4], ecx
; File C:\Program Files (x86)\Microsoft Visual Studio\2019\Community\VC\Tools\MSVC\14.29.30133\atlmfc\include\afx.inl

; 116  : 	{ return ::operator new(nSize); }

  0018f	e8 00 00 00 00	 call	 ??2@YAPAXI@Z		; operator new
  00194	83 c4 04	 add	 esp, 4
; File D:\git\src\IBK\IBK_DRFN\ProjSrc\SrcDrfn\Chart\HWSTRATEGYANALYSIS\InfoRight.cpp

; 276  : 	m_Step = new CTabStep;

  00197	89 45 cc	 mov	 DWORD PTR $T5[ebp], eax
  0019a	c7 45 fc 01 00
	00 00		 mov	 DWORD PTR __$EHRec$[ebp+8], 1
  001a1	85 c0		 test	 eax, eax
  001a3	74 0b		 je	 SHORT $LN5@InitTab
  001a5	6a 00		 push	 0
  001a7	8b c8		 mov	 ecx, eax
  001a9	e8 00 00 00 00	 call	 ??0CTabStep@@QAE@PAVCWnd@@@Z ; CTabStep::CTabStep
  001ae	eb 02		 jmp	 SHORT $LN6@InitTab
$LN5@InitTab:
  001b0	33 c0		 xor	 eax, eax
$LN6@InitTab:

; 277  : 	m_Step->m_strFilePath = m_strFilePath;

  001b2	8d 8f fc 03 00
	00		 lea	 ecx, DWORD PTR [edi+1020]
  001b8	c7 45 fc ff ff
	ff ff		 mov	 DWORD PTR __$EHRec$[ebp+8], -1
  001bf	51		 push	 ecx
  001c0	8d 88 c4 00 00
	00		 lea	 ecx, DWORD PTR [eax+196]
  001c6	89 87 04 04 00
	00		 mov	 DWORD PTR [edi+1028], eax
  001cc	ff 15 00 00 00
	00		 call	 DWORD PTR __imp_??4?$CStringT@DV?$StrTraitMFC_DLL@DV?$ChTraitsCRT@D@ATL@@@@@ATL@@QAEAAV01@ABV01@@Z

; 278  : 	m_Step->SetCInputLeft(m_Input);

  001d2	8b 8f 04 04 00
	00		 mov	 ecx, DWORD PTR [edi+1028]
  001d8	8b 87 c4 03 00
	00		 mov	 eax, DWORD PTR [edi+964]

; 279  : 	m_Step->SetParentDlg(m_pDlgAnalysis);
; 280  : 	m_Step->SetGridFont(&m_Font);
; 281  : 	m_Step->Create(CTabStep::IDD, this);

  001de	57		 push	 edi
  001df	68 bd 0b 00 00	 push	 3005			; 00000bbdH
  001e4	89 81 a8 00 00
	00		 mov	 DWORD PTR [ecx+168], eax
  001ea	8b 8f 04 04 00
	00		 mov	 ecx, DWORD PTR [edi+1028]
  001f0	8b 87 30 04 00
	00		 mov	 eax, DWORD PTR [edi+1072]
  001f6	89 81 ac 00 00
	00		 mov	 DWORD PTR [ecx+172], eax
  001fc	8d 8f 10 0a 00
	00		 lea	 ecx, DWORD PTR [edi+2576]
  00202	8b 87 04 04 00
	00		 mov	 eax, DWORD PTR [edi+1028]
  00208	89 88 60 05 00
	00		 mov	 DWORD PTR [eax+1376], ecx
  0020e	8b 8f 04 04 00
	00		 mov	 ecx, DWORD PTR [edi+1028]
  00214	8b 01		 mov	 eax, DWORD PTR [ecx]
  00216	ff 90 6c 01 00
	00		 call	 DWORD PTR [eax+364]
; File C:\Program Files (x86)\Microsoft Visual Studio\2019\Community\VC\Tools\MSVC\14.29.30133\atlmfc\include\afxtempl.h

; 333  : 	{ INT_PTR nIndex = m_nSize;

  0021c	8b 5e 08	 mov	 ebx, DWORD PTR [esi+8]
; File D:\git\src\IBK\IBK_DRFN\ProjSrc\SrcDrfn\Chart\HWSTRATEGYANALYSIS\InfoRight.cpp

; 282  : 	m_arrayTab.Add(m_Step);

  0021f	8b 87 04 04 00
	00		 mov	 eax, DWORD PTR [edi+1028]
  00225	89 45 cc	 mov	 DWORD PTR _newElement$1$[ebp], eax
; File C:\Program Files (x86)\Microsoft Visual Studio\2019\Community\VC\Tools\MSVC\14.29.30133\atlmfc\include\afxtempl.h

; 538  : 	if(nIndex < 0)

  00228	85 db		 test	 ebx, ebx
  0022a	0f 88 90 03 00
	00		 js	 $LN89@InitTab

; 540  : 
; 541  : 	if (nIndex >= m_nSize)
; 542  : 		SetSize(nIndex+1, -1);

  00230	6a ff		 push	 -1
  00232	8d 43 01	 lea	 eax, DWORD PTR [ebx+1]
  00235	8b ce		 mov	 ecx, esi
  00237	50		 push	 eax
  00238	e8 00 00 00 00	 call	 ?SetSize@?$CArray@PAVCDlgInterface@@PAV1@@@QAEXHH@Z ; CArray<CDlgInterface *,CDlgInterface *>::SetSize

; 543  : 	m_pData[nIndex] = newElement;

  0023d	8b 46 04	 mov	 eax, DWORD PTR [esi+4]
  00240	8b 4d cc	 mov	 ecx, DWORD PTR _newElement$1$[ebp]
; File C:\Program Files (x86)\Microsoft Visual Studio\2019\Community\VC\Tools\MSVC\14.29.30133\atlmfc\include\afx.inl

; 116  : 	{ return ::operator new(nSize); }

  00243	68 60 05 00 00	 push	 1376			; 00000560H
; File C:\Program Files (x86)\Microsoft Visual Studio\2019\Community\VC\Tools\MSVC\14.29.30133\atlmfc\include\afxtempl.h

; 543  : 	m_pData[nIndex] = newElement;

  00248	89 0c 98	 mov	 DWORD PTR [eax+ebx*4], ecx
; File C:\Program Files (x86)\Microsoft Visual Studio\2019\Community\VC\Tools\MSVC\14.29.30133\atlmfc\include\afx.inl

; 116  : 	{ return ::operator new(nSize); }

  0024b	e8 00 00 00 00	 call	 ??2@YAPAXI@Z		; operator new
  00250	83 c4 04	 add	 esp, 4
; File D:\git\src\IBK\IBK_DRFN\ProjSrc\SrcDrfn\Chart\HWSTRATEGYANALYSIS\InfoRight.cpp

; 284  : 	m_Trade = new CTabTrade;

  00253	89 45 cc	 mov	 DWORD PTR $T4[ebp], eax
  00256	c7 45 fc 02 00
	00 00		 mov	 DWORD PTR __$EHRec$[ebp+8], 2
  0025d	85 c0		 test	 eax, eax
  0025f	74 0b		 je	 SHORT $LN7@InitTab
  00261	6a 00		 push	 0
  00263	8b c8		 mov	 ecx, eax
  00265	e8 00 00 00 00	 call	 ??0CTabTrade@@QAE@PAVCWnd@@@Z ; CTabTrade::CTabTrade
  0026a	eb 02		 jmp	 SHORT $LN8@InitTab
$LN7@InitTab:
  0026c	33 c0		 xor	 eax, eax
$LN8@InitTab:

; 285  : 	m_Trade->m_strFilePath = m_strFilePath;

  0026e	8d 8f fc 03 00
	00		 lea	 ecx, DWORD PTR [edi+1020]
  00274	c7 45 fc ff ff
	ff ff		 mov	 DWORD PTR __$EHRec$[ebp+8], -1
  0027b	51		 push	 ecx
  0027c	8d 88 b8 00 00
	00		 lea	 ecx, DWORD PTR [eax+184]
  00282	89 87 08 04 00
	00		 mov	 DWORD PTR [edi+1032], eax
  00288	ff 15 00 00 00
	00		 call	 DWORD PTR __imp_??4?$CStringT@DV?$StrTraitMFC_DLL@DV?$ChTraitsCRT@D@ATL@@@@@ATL@@QAEAAV01@ABV01@@Z

; 286  : 	m_Trade->SetCInputLeft(m_Input);

  0028e	8b 8f 08 04 00
	00		 mov	 ecx, DWORD PTR [edi+1032]
  00294	8b 87 c4 03 00
	00		 mov	 eax, DWORD PTR [edi+964]

; 287  : 	m_Trade->SetParentDlg(m_pDlgAnalysis);
; 288  : 	m_Trade->SetGridFont(&m_Font);
; 289  : 	m_Trade->Create(CTabTrade::IDD, this);

  0029a	57		 push	 edi
  0029b	68 be 0b 00 00	 push	 3006			; 00000bbeH
  002a0	89 81 a8 00 00
	00		 mov	 DWORD PTR [ecx+168], eax
  002a6	8b 8f 08 04 00
	00		 mov	 ecx, DWORD PTR [edi+1032]
  002ac	8b 87 30 04 00
	00		 mov	 eax, DWORD PTR [edi+1072]
  002b2	89 81 ac 00 00
	00		 mov	 DWORD PTR [ecx+172], eax
  002b8	8d 8f 10 0a 00
	00		 lea	 ecx, DWORD PTR [edi+2576]
  002be	8b 87 08 04 00
	00		 mov	 eax, DWORD PTR [edi+1032]
  002c4	89 88 58 05 00
	00		 mov	 DWORD PTR [eax+1368], ecx
  002ca	8b 8f 08 04 00
	00		 mov	 ecx, DWORD PTR [edi+1032]
  002d0	8b 01		 mov	 eax, DWORD PTR [ecx]
  002d2	ff 90 6c 01 00
	00		 call	 DWORD PTR [eax+364]
; File C:\Program Files (x86)\Microsoft Visual Studio\2019\Community\VC\Tools\MSVC\14.29.30133\atlmfc\include\afxtempl.h

; 333  : 	{ INT_PTR nIndex = m_nSize;

  002d8	8b 5e 08	 mov	 ebx, DWORD PTR [esi+8]
; File D:\git\src\IBK\IBK_DRFN\ProjSrc\SrcDrfn\Chart\HWSTRATEGYANALYSIS\InfoRight.cpp

; 291  : 	m_arrayTab.Add(m_Trade);

  002db	8b 87 08 04 00
	00		 mov	 eax, DWORD PTR [edi+1032]
  002e1	89 45 cc	 mov	 DWORD PTR _newElement$1$[ebp], eax
; File C:\Program Files (x86)\Microsoft Visual Studio\2019\Community\VC\Tools\MSVC\14.29.30133\atlmfc\include\afxtempl.h

; 538  : 	if(nIndex < 0)

  002e4	85 db		 test	 ebx, ebx
  002e6	0f 88 d4 02 00
	00		 js	 $LN89@InitTab

; 540  : 
; 541  : 	if (nIndex >= m_nSize)
; 542  : 		SetSize(nIndex+1, -1);

  002ec	6a ff		 push	 -1
  002ee	8d 43 01	 lea	 eax, DWORD PTR [ebx+1]
  002f1	8b ce		 mov	 ecx, esi
  002f3	50		 push	 eax
  002f4	e8 00 00 00 00	 call	 ?SetSize@?$CArray@PAVCDlgInterface@@PAV1@@@QAEXHH@Z ; CArray<CDlgInterface *,CDlgInterface *>::SetSize

; 543  : 	m_pData[nIndex] = newElement;

  002f9	8b 46 04	 mov	 eax, DWORD PTR [esi+4]
  002fc	8b 4d cc	 mov	 ecx, DWORD PTR _newElement$1$[ebp]
; File C:\Program Files (x86)\Microsoft Visual Studio\2019\Community\VC\Tools\MSVC\14.29.30133\atlmfc\include\afx.inl

; 116  : 	{ return ::operator new(nSize); }

  002ff	68 b0 02 00 00	 push	 688			; 000002b0H
; File C:\Program Files (x86)\Microsoft Visual Studio\2019\Community\VC\Tools\MSVC\14.29.30133\atlmfc\include\afxtempl.h

; 543  : 	m_pData[nIndex] = newElement;

  00304	89 0c 98	 mov	 DWORD PTR [eax+ebx*4], ecx
; File C:\Program Files (x86)\Microsoft Visual Studio\2019\Community\VC\Tools\MSVC\14.29.30133\atlmfc\include\afx.inl

; 116  : 	{ return ::operator new(nSize); }

  00307	e8 00 00 00 00	 call	 ??2@YAPAXI@Z		; operator new
  0030c	83 c4 04	 add	 esp, 4
; File D:\git\src\IBK\IBK_DRFN\ProjSrc\SrcDrfn\Chart\HWSTRATEGYANALYSIS\InfoRight.cpp

; 293  : 	m_EarnChart = new CTabEarnChart;

  0030f	89 45 cc	 mov	 DWORD PTR $T3[ebp], eax
  00312	c7 45 fc 03 00
	00 00		 mov	 DWORD PTR __$EHRec$[ebp+8], 3
  00319	85 c0		 test	 eax, eax
  0031b	74 0d		 je	 SHORT $LN9@InitTab
  0031d	6a 00		 push	 0
  0031f	8b c8		 mov	 ecx, eax
  00321	e8 00 00 00 00	 call	 ??0CTabSoonikChart@@QAE@PAVCWnd@@@Z ; CTabSoonikChart::CTabSoonikChart
  00326	8b c8		 mov	 ecx, eax
  00328	eb 02		 jmp	 SHORT $LN10@InitTab
$LN9@InitTab:
  0032a	33 c9		 xor	 ecx, ecx
$LN10@InitTab:

; 294  : 	m_EarnChart->SetCInputLeft(m_Input);

  0032c	8b 87 c4 03 00
	00		 mov	 eax, DWORD PTR [edi+964]
  00332	89 8f 0c 04 00
	00		 mov	 DWORD PTR [edi+1036], ecx
  00338	89 81 a8 00 00
	00		 mov	 DWORD PTR [ecx+168], eax

; 295  : 	m_EarnChart->SetParentDlg(m_pDlgAnalysis);

  0033e	8b 8f 0c 04 00
	00		 mov	 ecx, DWORD PTR [edi+1036]
  00344	8b 87 30 04 00
	00		 mov	 eax, DWORD PTR [edi+1072]

; 296  : 	m_EarnChart->Create(CTabEarnChart::IDD, this);

  0034a	57		 push	 edi
  0034b	68 bf 0b 00 00	 push	 3007			; 00000bbfH
  00350	89 81 ac 00 00
	00		 mov	 DWORD PTR [ecx+172], eax
  00356	8b 8f 0c 04 00
	00		 mov	 ecx, DWORD PTR [edi+1036]
  0035c	c7 45 fc ff ff
	ff ff		 mov	 DWORD PTR __$EHRec$[ebp+8], -1
  00363	8b 01		 mov	 eax, DWORD PTR [ecx]
  00365	ff 90 6c 01 00
	00		 call	 DWORD PTR [eax+364]
; File C:\Program Files (x86)\Microsoft Visual Studio\2019\Community\VC\Tools\MSVC\14.29.30133\atlmfc\include\afxtempl.h

; 333  : 	{ INT_PTR nIndex = m_nSize;

  0036b	8b 5e 08	 mov	 ebx, DWORD PTR [esi+8]
; File D:\git\src\IBK\IBK_DRFN\ProjSrc\SrcDrfn\Chart\HWSTRATEGYANALYSIS\InfoRight.cpp

; 297  : 	m_arrayTab.Add(m_EarnChart);

  0036e	8b 87 0c 04 00
	00		 mov	 eax, DWORD PTR [edi+1036]
  00374	89 45 cc	 mov	 DWORD PTR _newElement$1$[ebp], eax
; File C:\Program Files (x86)\Microsoft Visual Studio\2019\Community\VC\Tools\MSVC\14.29.30133\atlmfc\include\afxtempl.h

; 538  : 	if(nIndex < 0)

  00377	85 db		 test	 ebx, ebx
  00379	0f 88 41 02 00
	00		 js	 $LN89@InitTab

; 540  : 
; 541  : 	if (nIndex >= m_nSize)
; 542  : 		SetSize(nIndex+1, -1);

  0037f	6a ff		 push	 -1
  00381	8d 43 01	 lea	 eax, DWORD PTR [ebx+1]
  00384	8b ce		 mov	 ecx, esi
  00386	50		 push	 eax
  00387	e8 00 00 00 00	 call	 ?SetSize@?$CArray@PAVCDlgInterface@@PAV1@@@QAEXHH@Z ; CArray<CDlgInterface *,CDlgInterface *>::SetSize

; 543  : 	m_pData[nIndex] = newElement;

  0038c	8b 46 04	 mov	 eax, DWORD PTR [esi+4]
  0038f	8b 4d cc	 mov	 ecx, DWORD PTR _newElement$1$[ebp]
; File C:\Program Files (x86)\Microsoft Visual Studio\2019\Community\VC\Tools\MSVC\14.29.30133\atlmfc\include\afx.inl

; 116  : 	{ return ::operator new(nSize); }

  00392	68 50 03 00 00	 push	 848			; 00000350H
; File C:\Program Files (x86)\Microsoft Visual Studio\2019\Community\VC\Tools\MSVC\14.29.30133\atlmfc\include\afxtempl.h

; 543  : 	m_pData[nIndex] = newElement;

  00397	89 0c 98	 mov	 DWORD PTR [eax+ebx*4], ecx
; File C:\Program Files (x86)\Microsoft Visual Studio\2019\Community\VC\Tools\MSVC\14.29.30133\atlmfc\include\afx.inl

; 116  : 	{ return ::operator new(nSize); }

  0039a	e8 00 00 00 00	 call	 ??2@YAPAXI@Z		; operator new
  0039f	83 c4 04	 add	 esp, 4
; File D:\git\src\IBK\IBK_DRFN\ProjSrc\SrcDrfn\Chart\HWSTRATEGYANALYSIS\InfoRight.cpp

; 299  : 	m_SonikChart = new CTabSonikChart;

  003a2	89 45 cc	 mov	 DWORD PTR $T2[ebp], eax
  003a5	c7 45 fc 04 00
	00 00		 mov	 DWORD PTR __$EHRec$[ebp+8], 4
  003ac	85 c0		 test	 eax, eax
  003ae	74 0d		 je	 SHORT $LN11@InitTab
  003b0	6a 00		 push	 0
  003b2	8b c8		 mov	 ecx, eax
  003b4	e8 00 00 00 00	 call	 ??0CTabSonikChart@@QAE@PAVCWnd@@@Z ; CTabSonikChart::CTabSonikChart
  003b9	8b c8		 mov	 ecx, eax
  003bb	eb 02		 jmp	 SHORT $LN12@InitTab
$LN11@InitTab:
  003bd	33 c9		 xor	 ecx, ecx
$LN12@InitTab:

; 300  : 	m_SonikChart->SetCInputLeft(m_Input);

  003bf	8b 87 c4 03 00
	00		 mov	 eax, DWORD PTR [edi+964]
  003c5	89 8f 10 04 00
	00		 mov	 DWORD PTR [edi+1040], ecx
  003cb	89 81 a8 00 00
	00		 mov	 DWORD PTR [ecx+168], eax

; 301  : 	m_SonikChart->SetParentDlg(m_pDlgAnalysis);

  003d1	8b 8f 10 04 00
	00		 mov	 ecx, DWORD PTR [edi+1040]
  003d7	8b 87 30 04 00
	00		 mov	 eax, DWORD PTR [edi+1072]

; 302  : 	m_SonikChart->Create(CTabSonikChart::IDD, this);

  003dd	57		 push	 edi
  003de	68 c0 0b 00 00	 push	 3008			; 00000bc0H
  003e3	89 81 ac 00 00
	00		 mov	 DWORD PTR [ecx+172], eax
  003e9	8b 8f 10 04 00
	00		 mov	 ecx, DWORD PTR [edi+1040]
  003ef	c7 45 fc ff ff
	ff ff		 mov	 DWORD PTR __$EHRec$[ebp+8], -1
  003f6	8b 01		 mov	 eax, DWORD PTR [ecx]
  003f8	ff 90 6c 01 00
	00		 call	 DWORD PTR [eax+364]
; File C:\Program Files (x86)\Microsoft Visual Studio\2019\Community\VC\Tools\MSVC\14.29.30133\atlmfc\include\afxtempl.h

; 333  : 	{ INT_PTR nIndex = m_nSize;

  003fe	8b 5e 08	 mov	 ebx, DWORD PTR [esi+8]
; File D:\git\src\IBK\IBK_DRFN\ProjSrc\SrcDrfn\Chart\HWSTRATEGYANALYSIS\InfoRight.cpp

; 303  : 	m_arrayTab.Add(m_SonikChart);

  00401	8b 87 10 04 00
	00		 mov	 eax, DWORD PTR [edi+1040]
  00407	89 45 cc	 mov	 DWORD PTR _newElement$1$[ebp], eax
; File C:\Program Files (x86)\Microsoft Visual Studio\2019\Community\VC\Tools\MSVC\14.29.30133\atlmfc\include\afxtempl.h

; 538  : 	if(nIndex < 0)

  0040a	85 db		 test	 ebx, ebx
  0040c	0f 88 ae 01 00
	00		 js	 $LN89@InitTab

; 540  : 
; 541  : 	if (nIndex >= m_nSize)
; 542  : 		SetSize(nIndex+1, -1);

  00412	6a ff		 push	 -1
  00414	8d 43 01	 lea	 eax, DWORD PTR [ebx+1]
  00417	8b ce		 mov	 ecx, esi
  00419	50		 push	 eax
  0041a	e8 00 00 00 00	 call	 ?SetSize@?$CArray@PAVCDlgInterface@@PAV1@@@QAEXHH@Z ; CArray<CDlgInterface *,CDlgInterface *>::SetSize

; 543  : 	m_pData[nIndex] = newElement;

  0041f	8b 46 04	 mov	 eax, DWORD PTR [esi+4]
  00422	8b 4d cc	 mov	 ecx, DWORD PTR _newElement$1$[ebp]
; File D:\git\src\IBK\IBK_DRFN\ProjSrc\SrcDrfn\Chart\HWSTRATEGYANALYSIS\InfoRight.cpp

; 306  : 	m_CtlTab.AddTab(m_Result,"");

  00425	6a 00		 push	 0
  00427	68 00 00 00 00	 push	 OFFSET ??_C@_08OEAPFIFH@?$LM?$LK?$LA?z?$LK?P?$LM?$KO@
; File C:\Program Files (x86)\Microsoft Visual Studio\2019\Community\VC\Tools\MSVC\14.29.30133\atlmfc\include\afxtempl.h

; 543  : 	m_pData[nIndex] = newElement;

  0042c	89 0c 98	 mov	 DWORD PTR [eax+ebx*4], ecx
; File D:\git\src\IBK\IBK_DRFN\ProjSrc\SrcDrfn\Chart\HWSTRATEGYANALYSIS\InfoRight.cpp

; 306  : 	m_CtlTab.AddTab(m_Result,"");

  0042f	8d 8f 28 02 00
	00		 lea	 ecx, DWORD PTR [edi+552]
  00435	ff b7 00 04 00
	00		 push	 DWORD PTR [edi+1024]
  0043b	e8 00 00 00 00	 call	 ?AddTab@CXTabCtrl@@QAEXPAVCWnd@@PADH@Z ; CXTabCtrl::AddTab

; 307  : 	m_CtlTab.AddTab(m_Step,"");

  00440	6a 00		 push	 0
  00442	68 00 00 00 00	 push	 OFFSET ??_C@_08BKLNNJGI@?$MA?$PM?A?x?$LK?P?$LM?$KO@
  00447	ff b7 04 04 00
	00		 push	 DWORD PTR [edi+1028]
  0044d	8d 8f 28 02 00
	00		 lea	 ecx, DWORD PTR [edi+552]
  00453	e8 00 00 00 00	 call	 ?AddTab@CXTabCtrl@@QAEXPAVCWnd@@PADH@Z ; CXTabCtrl::AddTab

; 308  : 	m_CtlTab.AddTab(m_Trade,"");

  00458	6a 00		 push	 0
  0045a	68 00 00 00 00	 push	 OFFSET ??_C@_08INENBIFG@?$LI?E?$LI?E?$LD?$LL?$LP?$KK@
  0045f	ff b7 08 04 00
	00		 push	 DWORD PTR [edi+1032]
  00465	8d 8f 28 02 00
	00		 lea	 ecx, DWORD PTR [edi+552]
  0046b	e8 00 00 00 00	 call	 ?AddTab@CXTabCtrl@@QAEXPAVCWnd@@PADH@Z ; CXTabCtrl::AddTab

; 309  : 	m_CtlTab.AddTab(m_EarnChart,"");

  00470	6a 00		 push	 0
  00472	68 00 00 00 00	 push	 OFFSET ??_C@_0L@CPJPEJFL@?$LM?v?$MA?M?$LH?$PM?B?w?F?$KO@
  00477	ff b7 0c 04 00
	00		 push	 DWORD PTR [edi+1036]
  0047d	8d 8f 28 02 00
	00		 lea	 ecx, DWORD PTR [edi+552]
  00483	e8 00 00 00 00	 call	 ?AddTab@CXTabCtrl@@QAEXPAVCWnd@@PADH@Z ; CXTabCtrl::AddTab

; 310  : 	m_CtlTab.AddTab(m_SonikChart,"");

  00488	6a 00		 push	 0
  0048a	68 00 00 00 00	 push	 OFFSET ??_C@_0N@HEBKHCBM@?$LM?U?$MA?M?$LK?P?F?w?B?w?F?$KO@
  0048f	ff b7 10 04 00
	00		 push	 DWORD PTR [edi+1040]
  00495	8d 8f 28 02 00
	00		 lea	 ecx, DWORD PTR [edi+552]
  0049b	e8 00 00 00 00	 call	 ?AddTab@CXTabCtrl@@QAEXPAVCWnd@@PADH@Z ; CXTabCtrl::AddTab

; 311  : 
; 312  : 	// Static 
; 313  : 	//
; 314  : 
; 315  : 	m_stJName1.SetStaticColor(RGB(204,204,204),RGB(230,239,247),RGB(51,51,51));

  004a0	68 33 33 33 00	 push	 3355443			; 00333333H
  004a5	68 e6 ef f7 00	 push	 16248806		; 00f7efe6H
  004aa	68 cc cc cc 00	 push	 13421772		; 00ccccccH
  004af	8d 8f 68 07 00
	00		 lea	 ecx, DWORD PTR [edi+1896]
  004b5	e8 00 00 00 00	 call	 ?SetStaticColor@CExStatic@@QAEHKKK@Z ; CExStatic::SetStaticColor

; 316  : 	m_stSTName.SetStaticColor(RGB(204,204,204),RGB(230,239,247),RGB(51,51,51));

  004ba	68 33 33 33 00	 push	 3355443			; 00333333H
  004bf	68 e6 ef f7 00	 push	 16248806		; 00f7efe6H
  004c4	68 cc cc cc 00	 push	 13421772		; 00ccccccH
  004c9	8d 8f f0 07 00
	00		 lea	 ecx, DWORD PTR [edi+2032]
  004cf	e8 00 00 00 00	 call	 ?SetStaticColor@CExStatic@@QAEHKKK@Z ; CExStatic::SetStaticColor

; 317  : 	m_stPosition.SetStaticColor(RGB(204,204,204),RGB(230,239,247),RGB(51,51,51));

  004d4	68 33 33 33 00	 push	 3355443			; 00333333H
  004d9	68 e6 ef f7 00	 push	 16248806		; 00f7efe6H
  004de	68 cc cc cc 00	 push	 13421772		; 00ccccccH
  004e3	8d 8f 78 08 00
	00		 lea	 ecx, DWORD PTR [edi+2168]
  004e9	e8 00 00 00 00	 call	 ?SetStaticColor@CExStatic@@QAEHKKK@Z ; CExStatic::SetStaticColor

; 318  : 	m_stPeriod.SetStaticColor(RGB(204,204,204),RGB(230,239,247),RGB(51,51,51));

  004ee	68 33 33 33 00	 push	 3355443			; 00333333H
  004f3	68 e6 ef f7 00	 push	 16248806		; 00f7efe6H
  004f8	68 cc cc cc 00	 push	 13421772		; 00ccccccH
  004fd	8d 8f 00 09 00
	00		 lea	 ecx, DWORD PTR [edi+2304]
  00503	e8 00 00 00 00	 call	 ?SetStaticColor@CExStatic@@QAEHKKK@Z ; CExStatic::SetStaticColor

; 319  : 	m_stNujuk.SetStaticColor(RGB(204,204,204),RGB(230,239,247),RGB(51,51,51));

  00508	68 33 33 33 00	 push	 3355443			; 00333333H
  0050d	68 e6 ef f7 00	 push	 16248806		; 00f7efe6H
  00512	68 cc cc cc 00	 push	 13421772		; 00ccccccH
  00517	8d 8f 88 09 00
	00		 lea	 ecx, DWORD PTR [edi+2440]
  0051d	e8 00 00 00 00	 call	 ?SetStaticColor@CExStatic@@QAEHKKK@Z ; CExStatic::SetStaticColor

; 320  : 	// Static
; 321  : 	m_ctlstName.SetStaticColor(RGB(204,204,204),RGB(255,255,255),RGB(51,51,51));

  00522	68 33 33 33 00	 push	 3355443			; 00333333H
  00527	68 ff ff ff 00	 push	 16777215		; 00ffffffH
  0052c	68 cc cc cc 00	 push	 13421772		; 00ccccccH
  00531	8d 8f c0 04 00
	00		 lea	 ecx, DWORD PTR [edi+1216]
  00537	e8 00 00 00 00	 call	 ?SetStaticColor@CExStatic@@QAEHKKK@Z ; CExStatic::SetStaticColor

; 322  : 	m_ctlSTFILENAME.SetStaticColor(RGB(204,204,204),RGB(255,255,255),RGB(51,51,51));

  0053c	68 33 33 33 00	 push	 3355443			; 00333333H
  00541	68 ff ff ff 00	 push	 16777215		; 00ffffffH
  00546	68 cc cc cc 00	 push	 13421772		; 00ccccccH
  0054b	8d 8f 48 05 00
	00		 lea	 ecx, DWORD PTR [edi+1352]
  00551	e8 00 00 00 00	 call	 ?SetStaticColor@CExStatic@@QAEHKKK@Z ; CExStatic::SetStaticColor

; 323  : 	m_ctlstPosition.SetStaticColor(RGB(204,204,204),RGB(255,255,255),RGB(51,51,51));

  00556	68 33 33 33 00	 push	 3355443			; 00333333H
  0055b	68 ff ff ff 00	 push	 16777215		; 00ffffffH
  00560	68 cc cc cc 00	 push	 13421772		; 00ccccccH
  00565	8d 8f d0 05 00
	00		 lea	 ecx, DWORD PTR [edi+1488]
  0056b	e8 00 00 00 00	 call	 ?SetStaticColor@CExStatic@@QAEHKKK@Z ; CExStatic::SetStaticColor

; 324  : 	m_ctlstPeriod.SetStaticColor(RGB(204,204,204),RGB(255,255,255),RGB(51,51,51));

  00570	68 33 33 33 00	 push	 3355443			; 00333333H
  00575	68 ff ff ff 00	 push	 16777215		; 00ffffffH
  0057a	68 cc cc cc 00	 push	 13421772		; 00ccccccH
  0057f	8d 8f 58 06 00
	00		 lea	 ecx, DWORD PTR [edi+1624]
  00585	e8 00 00 00 00	 call	 ?SetStaticColor@CExStatic@@QAEHKKK@Z ; CExStatic::SetStaticColor

; 325  : 	m_ctlstNujuk.SetStaticColor(RGB(204,204,204),RGB(255,255,255),RGB(51,51,51));

  0058a	68 33 33 33 00	 push	 3355443			; 00333333H
  0058f	68 ff ff ff 00	 push	 16777215		; 00ffffffH
  00594	68 cc cc cc 00	 push	 13421772		; 00ccccccH
  00599	8d 8f e0 06 00
	00		 lea	 ecx, DWORD PTR [edi+1760]
  0059f	e8 00 00 00 00	 call	 ?SetStaticColor@CExStatic@@QAEHKKK@Z ; CExStatic::SetStaticColor

; 327  : }

  005a4	8b 4d f4	 mov	 ecx, DWORD PTR __$EHRec$[ebp]
  005a7	64 89 0d 00 00
	00 00		 mov	 DWORD PTR fs:0, ecx
  005ae	59		 pop	 ecx
  005af	5f		 pop	 edi
  005b0	5e		 pop	 esi
  005b1	5b		 pop	 ebx
  005b2	8b 4d f0	 mov	 ecx, DWORD PTR __$ArrayPad$[ebp]
  005b5	33 cd		 xor	 ecx, ebp
  005b7	e8 00 00 00 00	 call	 @__security_check_cookie@4
  005bc	8b e5		 mov	 esp, ebp
  005be	5d		 pop	 ebp
  005bf	c3		 ret	 0
$LN89@InitTab:
; File C:\Program Files (x86)\Microsoft Visual Studio\2019\Community\VC\Tools\MSVC\14.29.30133\atlmfc\include\afxtempl.h

; 539  : 		AfxThrowInvalidArgException();

  005c0	e8 00 00 00 00	 call	 ?AfxThrowInvalidArgException@@YGXXZ ; AfxThrowInvalidArgException
$LN91@InitTab:
  005c5	cc		 int	 3
_TEXT	ENDS
;	COMDAT text$x
text$x	SEGMENT
__unwindfunclet$?InitTab@CInfoRight@@QAEXXZ$0:
  00000	8b 45 cc	 mov	 eax, DWORD PTR $T6[ebp]
  00003	50		 push	 eax
  00004	e8 00 00 00 00	 call	 ??3CObject@@SGXPAX@Z	; CObject::operator delete
  00009	c3		 ret	 0
__unwindfunclet$?InitTab@CInfoRight@@QAEXXZ$1:
  0000a	8b 45 cc	 mov	 eax, DWORD PTR $T5[ebp]
  0000d	50		 push	 eax
  0000e	e8 00 00 00 00	 call	 ??3CObject@@SGXPAX@Z	; CObject::operator delete
  00013	c3		 ret	 0
__unwindfunclet$?InitTab@CInfoRight@@QAEXXZ$2:
  00014	8b 45 cc	 mov	 eax, DWORD PTR $T4[ebp]
  00017	50		 push	 eax
  00018	e8 00 00 00 00	 call	 ??3CObject@@SGXPAX@Z	; CObject::operator delete
  0001d	c3		 ret	 0
__unwindfunclet$?InitTab@CInfoRight@@QAEXXZ$3:
  0001e	8b 45 cc	 mov	 eax, DWORD PTR $T3[ebp]
  00021	50		 push	 eax
  00022	e8 00 00 00 00	 call	 ??3CObject@@SGXPAX@Z	; CObject::operator delete
  00027	c3		 ret	 0
__unwindfunclet$?InitTab@CInfoRight@@QAEXXZ$4:
  00028	8b 45 cc	 mov	 eax, DWORD PTR $T2[ebp]
  0002b	50		 push	 eax
  0002c	e8 00 00 00 00	 call	 ??3CObject@@SGXPAX@Z	; CObject::operator delete
  00031	c3		 ret	 0
  00032	cc		 int	 3
  00033	cc		 int	 3
  00034	cc		 int	 3
  00035	cc		 int	 3
  00036	cc		 int	 3
__ehhandler$?InitTab@CInfoRight@@QAEXXZ:
  00037	90		 npad	 1
  00038	90		 npad	 1
  00039	8b 54 24 08	 mov	 edx, DWORD PTR [esp+8]
  0003d	8d 42 0c	 lea	 eax, DWORD PTR [edx+12]
  00040	8b 4a c8	 mov	 ecx, DWORD PTR [edx-56]
  00043	33 c8		 xor	 ecx, eax
  00045	e8 00 00 00 00	 call	 @__security_check_cookie@4
  0004a	8b 4a fc	 mov	 ecx, DWORD PTR [edx-4]
  0004d	33 c8		 xor	 ecx, eax
  0004f	e8 00 00 00 00	 call	 @__security_check_cookie@4
  00054	b8 00 00 00 00	 mov	 eax, OFFSET __ehfuncinfo$?InitTab@CInfoRight@@QAEXXZ
  00059	e9 00 00 00 00	 jmp	 ___CxxFrameHandler3
text$x	ENDS
?InitTab@CInfoRight@@QAEXXZ ENDP			; CInfoRight::InitTab
; Function compile flags: /Ogtp
; File D:\git\src\IBK\IBK_DRFN\ProjSrc\SrcDrfn\Chart\HWSTRATEGYANALYSIS\InfoRight.cpp
; File C:\Program Files (x86)\Microsoft Visual Studio\2019\Community\VC\Tools\MSVC\14.29.30133\atlmfc\include\afxtempl.h
; File D:\git\src\IBK\IBK_DRFN\ProjSrc\SrcDrfn\Chart\HWSTRATEGYANALYSIS\InfoRight.cpp
; File C:\Program Files (x86)\Microsoft Visual Studio\2019\Community\VC\Tools\MSVC\14.29.30133\atlmfc\include\afxtempl.h
; File D:\git\src\IBK\IBK_DRFN\ProjSrc\SrcDrfn\Chart\HWSTRATEGYANALYSIS\InfoRight.cpp
;	COMDAT ?SetFocusIndex@CInfoRight@@QAEXH@Z
_TEXT	SEGMENT
_nIndex$ = 8						; size = 4
?SetFocusIndex@CInfoRight@@QAEXH@Z PROC			; CInfoRight::SetFocusIndex, COMDAT
; _this$ = ecx

; 400  : {

  00000	55		 push	 ebp
  00001	8b ec		 mov	 ebp, esp
  00003	53		 push	 ebx
  00004	56		 push	 esi
  00005	57		 push	 edi
  00006	8b f9		 mov	 edi, ecx

; 401  : 	CDlgInterface *pDlgInterface = NULL;
; 402  : 	int nSize = m_arrayTab.GetSize();
; 403  : 	for(int nPos=0;nPos<nSize;nPos++)

  00008	33 f6		 xor	 esi, esi
  0000a	8b 9f f0 03 00
	00		 mov	 ebx, DWORD PTR [edi+1008]
  00010	85 db		 test	 ebx, ebx
  00012	7e 25		 jle	 SHORT $LN3@SetFocusIn
$LL4@SetFocusIn:
; File C:\Program Files (x86)\Microsoft Visual Studio\2019\Community\VC\Tools\MSVC\14.29.30133\atlmfc\include\afxtempl.h

; 288  : 	if(nIndex >= 0 && nIndex < m_nSize)

  00014	85 f6		 test	 esi, esi
  00016	78 28		 js	 SHORT $LN7@SetFocusIn
  00018	3b b7 f0 03 00
	00		 cmp	 esi, DWORD PTR [edi+1008]
  0001e	7d 20		 jge	 SHORT $LN7@SetFocusIn
; File D:\git\src\IBK\IBK_DRFN\ProjSrc\SrcDrfn\Chart\HWSTRATEGYANALYSIS\InfoRight.cpp

; 406  : 		pDlgInterface->SetChartFocus(nIndex);

  00020	8b 87 ec 03 00
	00		 mov	 eax, DWORD PTR [edi+1004]
  00026	ff 75 08	 push	 DWORD PTR _nIndex$[ebp]
  00029	8b 0c b0	 mov	 ecx, DWORD PTR [eax+esi*4]
  0002c	8b 01		 mov	 eax, DWORD PTR [ecx]
  0002e	ff 90 98 01 00
	00		 call	 DWORD PTR [eax+408]
  00034	46		 inc	 esi
  00035	3b f3		 cmp	 esi, ebx
  00037	7c db		 jl	 SHORT $LL4@SetFocusIn
$LN3@SetFocusIn:
  00039	5f		 pop	 edi

; 408  : }

  0003a	5e		 pop	 esi
  0003b	5b		 pop	 ebx
  0003c	5d		 pop	 ebp
  0003d	c2 04 00	 ret	 4
$LN7@SetFocusIn:
; File C:\Program Files (x86)\Microsoft Visual Studio\2019\Community\VC\Tools\MSVC\14.29.30133\atlmfc\include\afxtempl.h

; 290  : 	AfxThrowInvalidArgException();

  00040	e8 00 00 00 00	 call	 ?AfxThrowInvalidArgException@@YGXXZ ; AfxThrowInvalidArgException
$LN14@SetFocusIn:
  00045	cc		 int	 3
?SetFocusIndex@CInfoRight@@QAEXH@Z ENDP			; CInfoRight::SetFocusIndex
_TEXT	ENDS
; Function compile flags: /Ogtp
; File D:\git\src\IBK\IBK_DRFN\ProjSrc\SrcDrfn\Chart\HWSTRATEGYANALYSIS\InfoRight.cpp
;	COMDAT ?SetParentsRect@CInfoRight@@QAEXVCRect@@@Z
_TEXT	SEGMENT
_rt$ = 8						; size = 16
?SetParentsRect@CInfoRight@@QAEXVCRect@@@Z PROC		; CInfoRight::SetParentsRect, COMDAT
; _this$ = ecx

; 210  : {

  00000	55		 push	 ebp
  00001	8b ec		 mov	 ebp, esp

; 211  : 	m_rcParent = rt;

  00003	0f 10 45 08	 movups	 xmm0, XMMWORD PTR _rt$[ebp]
  00007	0f 11 81 c8 03
	00 00		 movups	 XMMWORD PTR [ecx+968], xmm0

; 212  : }

  0000e	5d		 pop	 ebp
  0000f	c2 10 00	 ret	 16			; 00000010H
?SetParentsRect@CInfoRight@@QAEXVCRect@@@Z ENDP		; CInfoRight::SetParentsRect
_TEXT	ENDS
; Function compile flags: /Ogtp
; File D:\git\src\IBK\IBK_DRFN\ProjSrc\SrcDrfn\Chart\HWSTRATEGYANALYSIS\InfoRight.cpp
;	COMDAT ?SetLeftInfo@CInfoRight@@QAEXPAVCInputLeft@@@Z
_TEXT	SEGMENT
_leftInfo$ = 8						; size = 4
?SetLeftInfo@CInfoRight@@QAEXPAVCInputLeft@@@Z PROC	; CInfoRight::SetLeftInfo, COMDAT
; _this$ = ecx

; 183  : {

  00000	55		 push	 ebp
  00001	8b ec		 mov	 ebp, esp

; 184  : 	m_Input = leftInfo;

  00003	8b 45 08	 mov	 eax, DWORD PTR _leftInfo$[ebp]
  00006	89 81 c4 03 00
	00		 mov	 DWORD PTR [ecx+964], eax

; 185  : }

  0000c	5d		 pop	 ebp
  0000d	c2 04 00	 ret	 4
?SetLeftInfo@CInfoRight@@QAEXPAVCInputLeft@@@Z ENDP	; CInfoRight::SetLeftInfo
_TEXT	ENDS
; Function compile flags: /Ogtp
; File D:\git\src\IBK\IBK_DRFN\ProjSrc\SrcDrfn\Chart\HWSTRATEGYANALYSIS\InfoRight.cpp
; File C:\Program Files (x86)\Microsoft Visual Studio\2019\Community\VC\Tools\MSVC\14.29.30133\atlmfc\include\afxwin2.inl
; File D:\git\src\IBK\IBK_DRFN\ProjSrc\SrcDrfn\Chart\HWSTRATEGYANALYSIS\InfoRight.cpp
; File C:\Program Files (x86)\Microsoft Visual Studio\2019\Community\VC\Tools\MSVC\14.29.30133\atlmfc\include\afxwin2.inl
; File D:\git\src\IBK\IBK_DRFN\ProjSrc\SrcDrfn\Chart\HWSTRATEGYANALYSIS\InfoRight.cpp
;	COMDAT ?SetRefresh@CInfoRight@@QAEXH@Z
_TEXT	SEGMENT
_str$2 = -16						; size = 4
__$EHRec$ = -12						; size = 12
_CurSel$ = 8						; size = 4
?SetRefresh@CInfoRight@@QAEXH@Z PROC			; CInfoRight::SetRefresh, COMDAT
; _this$ = ecx

; 189  : {

  00000	55		 push	 ebp
  00001	8b ec		 mov	 ebp, esp
  00003	6a ff		 push	 -1
  00005	68 00 00 00 00	 push	 __ehhandler$?SetRefresh@CInfoRight@@QAEXH@Z
  0000a	64 a1 00 00 00
	00		 mov	 eax, DWORD PTR fs:0
  00010	50		 push	 eax
  00011	51		 push	 ecx
  00012	53		 push	 ebx
  00013	56		 push	 esi
  00014	57		 push	 edi
  00015	a1 00 00 00 00	 mov	 eax, DWORD PTR ___security_cookie
  0001a	33 c5		 xor	 eax, ebp
  0001c	50		 push	 eax
  0001d	8d 45 f4	 lea	 eax, DWORD PTR __$EHRec$[ebp]
  00020	64 a3 00 00 00
	00		 mov	 DWORD PTR fs:0, eax
  00026	8b f9		 mov	 edi, ecx

; 190  : 	//DivShowButton Skin Apply
; 191  : 	m_nNum = m_pDlgAnalysis->m_nDivideCnt;

  00028	8b 87 30 04 00
	00		 mov	 eax, DWORD PTR [edi+1072]

; 192  : 	for(int i = 0 ; i < m_nNum ;i++)//KHD

  0002e	33 c9		 xor	 ecx, ecx
  00030	0f b7 80 00 01
	00 00		 movzx	 eax, WORD PTR [eax+256]
  00037	66 89 87 2c 04
	00 00		 mov	 WORD PTR [edi+1068], ax
  0003e	66 3b c8	 cmp	 cx, ax
  00041	7d 63		 jge	 SHORT $LN20@SetRefresh

; 190  : 	//DivShowButton Skin Apply
; 191  : 	m_nNum = m_pDlgAnalysis->m_nDivideCnt;

  00043	bb 01 00 00 00	 mov	 ebx, 1
  00048	0f 1f 84 00 00
	00 00 00	 npad	 8
$LL4@SetRefresh:

; 193  : 	{
; 194  : 		CString str; 

  00050	8d 4d f0	 lea	 ecx, DWORD PTR _str$2[ebp]
  00053	8b f3		 mov	 esi, ebx
  00055	ff 15 00 00 00
	00		 call	 DWORD PTR __imp_??0?$CStringT@DV?$StrTraitMFC_DLL@DV?$ChTraitsCRT@D@ATL@@@@@ATL@@QAE@XZ

; 195  : 		str.Format("%d",i+1);

  0005b	53		 push	 ebx
  0005c	8d 45 f0	 lea	 eax, DWORD PTR _str$2[ebp]
  0005f	c7 45 fc 00 00
	00 00		 mov	 DWORD PTR __$EHRec$[ebp+8], 0
  00066	68 00 00 00 00	 push	 OFFSET ??_C@_02DPKJAMEF@?$CFd@
  0006b	50		 push	 eax
  0006c	ff 15 00 00 00
	00		 call	 DWORD PTR __imp_?Format@?$CStringT@DV?$StrTraitMFC_DLL@DV?$ChTraitsCRT@D@ATL@@@@@ATL@@QAAXPBDZZ
  00072	83 c4 0c	 add	 esp, 12			; 0000000cH
; File C:\Program Files (x86)\Microsoft Visual Studio\2019\Community\VC\Tools\MSVC\14.29.30133\atlmfc\include\afxwin2.inl

; 799  : 	{ ASSERT(::IsWindow(m_hWnd)); return (int)::SendMessage(m_hWnd, CB_INSERTSTRING, nIndex, (LPARAM)lpszString); }

  00075	ff 75 f0	 push	 DWORD PTR _str$2[ebp]
  00078	53		 push	 ebx
  00079	68 4a 01 00 00	 push	 330			; 0000014aH
  0007e	ff b7 58 04 00
	00		 push	 DWORD PTR [edi+1112]
  00084	ff 15 00 00 00
	00		 call	 DWORD PTR __imp__SendMessageA@16
; File D:\git\src\IBK\IBK_DRFN\ProjSrc\SrcDrfn\Chart\HWSTRATEGYANALYSIS\InfoRight.cpp

; 197  : 	}

  0008a	8d 4d f0	 lea	 ecx, DWORD PTR _str$2[ebp]
  0008d	c7 45 fc ff ff
	ff ff		 mov	 DWORD PTR __$EHRec$[ebp+8], -1
  00094	ff 15 00 00 00
	00		 call	 DWORD PTR __imp_??1?$CStringT@DV?$StrTraitMFC_DLL@DV?$ChTraitsCRT@D@ATL@@@@@ATL@@QAE@XZ
  0009a	0f bf 87 2c 04
	00 00		 movsx	 eax, WORD PTR [edi+1068]
  000a1	43		 inc	 ebx
  000a2	3b f0		 cmp	 esi, eax
  000a4	7c aa		 jl	 SHORT $LL4@SetRefresh
$LN20@SetRefresh:
; File C:\Program Files (x86)\Microsoft Visual Studio\2019\Community\VC\Tools\MSVC\14.29.30133\atlmfc\include\afxwin2.inl

; 767  : 	{ ASSERT(::IsWindow(m_hWnd)); return (int)::SendMessage(m_hWnd, CB_SETCURSEL, nSelect, 0); }

  000a6	8b 75 08	 mov	 esi, DWORD PTR _CurSel$[ebp]
  000a9	6a 00		 push	 0
  000ab	56		 push	 esi
  000ac	68 4e 01 00 00	 push	 334			; 0000014eH
  000b1	ff b7 58 04 00
	00		 push	 DWORD PTR [edi+1112]
  000b7	ff 15 00 00 00
	00		 call	 DWORD PTR __imp__SendMessageA@16
; File D:\git\src\IBK\IBK_DRFN\ProjSrc\SrcDrfn\Chart\HWSTRATEGYANALYSIS\InfoRight.cpp

; 200  : 	if(m_Step)

  000bd	8b 8f 04 04 00
	00		 mov	 ecx, DWORD PTR [edi+1028]
  000c3	85 c9		 test	 ecx, ecx
  000c5	74 0d		 je	 SHORT $LN5@SetRefresh

; 201  : 	{
; 202  : 		m_Step->m_nDiv =m_nNum; // Div Number Save :  

  000c7	0f bf 87 2c 04
	00 00		 movsx	 eax, WORD PTR [edi+1068]
  000ce	89 81 c8 00 00
	00		 mov	 DWORD PTR [ecx+200], eax
$LN5@SetRefresh:

; 203  : 	}
; 204  : 
; 205  : 	if(m_Trade)

  000d4	8b 87 08 04 00
	00		 mov	 eax, DWORD PTR [edi+1032]
  000da	85 c0		 test	 eax, eax
  000dc	74 06		 je	 SHORT $LN6@SetRefresh

; 206  : 		m_Trade->m_nDiv = CurSel;

  000de	89 b0 c0 00 00
	00		 mov	 DWORD PTR [eax+192], esi
$LN6@SetRefresh:

; 218  : 	m_Result->SetDataSpreadGrid();

  000e4	8b 8f 00 04 00
	00		 mov	 ecx, DWORD PTR [edi+1024]
  000ea	e8 00 00 00 00	 call	 ?SetDataSpreadGrid@CTabResult@@QAEXXZ ; CTabResult::SetDataSpreadGrid

; 219  : 	m_Trade->SetDataSpreadGrid();

  000ef	8b 8f 08 04 00
	00		 mov	 ecx, DWORD PTR [edi+1032]
  000f5	e8 00 00 00 00	 call	 ?SetDataSpreadGrid@CTabTrade@@QAEXXZ ; CTabTrade::SetDataSpreadGrid

; 220  : 	m_Step->SetDataSpreadGrid();

  000fa	8b 8f 04 04 00
	00		 mov	 ecx, DWORD PTR [edi+1028]
  00100	e8 00 00 00 00	 call	 ?SetDataSpreadGrid@CTabStep@@QAEXXZ ; CTabStep::SetDataSpreadGrid

; 207  : 	RefreshWebView();
; 208  : }

  00105	8b 4d f4	 mov	 ecx, DWORD PTR __$EHRec$[ebp]
  00108	64 89 0d 00 00
	00 00		 mov	 DWORD PTR fs:0, ecx
  0010f	59		 pop	 ecx
  00110	5f		 pop	 edi
  00111	5e		 pop	 esi
  00112	5b		 pop	 ebx
  00113	8b e5		 mov	 esp, ebp
  00115	5d		 pop	 ebp
  00116	c2 04 00	 ret	 4
_TEXT	ENDS
;	COMDAT text$x
text$x	SEGMENT
__unwindfunclet$?SetRefresh@CInfoRight@@QAEXH@Z$0:
  00000	8d 4d f0	 lea	 ecx, DWORD PTR _str$2[ebp]
  00003	ff 25 00 00 00
	00		 jmp	 DWORD PTR __imp_??1?$CStringT@DV?$StrTraitMFC_DLL@DV?$ChTraitsCRT@D@ATL@@@@@ATL@@QAE@XZ
  00009	cc		 int	 3
  0000a	cc		 int	 3
  0000b	cc		 int	 3
  0000c	cc		 int	 3
  0000d	cc		 int	 3
__ehhandler$?SetRefresh@CInfoRight@@QAEXH@Z:
  0000e	90		 npad	 1
  0000f	90		 npad	 1
  00010	8b 54 24 08	 mov	 edx, DWORD PTR [esp+8]
  00014	8d 42 0c	 lea	 eax, DWORD PTR [edx+12]
  00017	8b 4a ec	 mov	 ecx, DWORD PTR [edx-20]
  0001a	33 c8		 xor	 ecx, eax
  0001c	e8 00 00 00 00	 call	 @__security_check_cookie@4
  00021	b8 00 00 00 00	 mov	 eax, OFFSET __ehfuncinfo$?SetRefresh@CInfoRight@@QAEXH@Z
  00026	e9 00 00 00 00	 jmp	 ___CxxFrameHandler3
text$x	ENDS
?SetRefresh@CInfoRight@@QAEXH@Z ENDP			; CInfoRight::SetRefresh
; Function compile flags: /Ogtp
; File C:\Program Files (x86)\Microsoft Visual Studio\2019\Community\VC\Tools\MSVC\14.29.30133\atlmfc\include\afx.inl
;	COMDAT ??_G?$CArray@UST_DATAINDEX@@U1@@@UAEPAXI@Z
_TEXT	SEGMENT
___flags$ = 8						; size = 4
??_G?$CArray@UST_DATAINDEX@@U1@@@UAEPAXI@Z PROC		; CArray<ST_DATAINDEX,ST_DATAINDEX>::`scalar deleting destructor', COMDAT
; _this$ = ecx
  00000	55		 push	 ebp
  00001	8b ec		 mov	 ebp, esp
  00003	56		 push	 esi
  00004	8b f1		 mov	 esi, ecx
  00006	e8 00 00 00 00	 call	 ??1?$CArray@UST_DATAINDEX@@U1@@@UAE@XZ ; CArray<ST_DATAINDEX,ST_DATAINDEX>::~CArray<ST_DATAINDEX,ST_DATAINDEX>
  0000b	8b 45 08	 mov	 eax, DWORD PTR ___flags$[ebp]
  0000e	a8 01		 test	 al, 1
  00010	74 1f		 je	 SHORT $LN9@scalar
  00012	a8 04		 test	 al, 4
  00014	75 10		 jne	 SHORT $LN3@scalar

; 112  : 	{ ::operator delete(p); }

  00016	56		 push	 esi
  00017	e8 00 00 00 00	 call	 ??3@YAXPAX@Z		; operator delete
  0001c	83 c4 04	 add	 esp, 4
  0001f	8b c6		 mov	 eax, esi
  00021	5e		 pop	 esi
  00022	5d		 pop	 ebp
  00023	c2 04 00	 ret	 4
$LN3@scalar:
  00026	6a 14		 push	 20			; 00000014H
  00028	56		 push	 esi
  00029	e8 00 00 00 00	 call	 ?__global_delete@@YAXPAXI@Z ; __global_delete
  0002e	83 c4 08	 add	 esp, 8
$LN9@scalar:
  00031	8b c6		 mov	 eax, esi
  00033	5e		 pop	 esi
  00034	5d		 pop	 ebp
  00035	c2 04 00	 ret	 4
??_G?$CArray@UST_DATAINDEX@@U1@@@UAEPAXI@Z ENDP		; CArray<ST_DATAINDEX,ST_DATAINDEX>::`scalar deleting destructor'
_TEXT	ENDS
; Function compile flags: /Ogtp
; File C:\Program Files (x86)\Microsoft Visual Studio\2019\Community\VC\Tools\MSVC\14.29.30133\atlmfc\include\afxtempl.h
; File C:\Program Files (x86)\Microsoft Visual Studio\2019\Community\VC\Tools\MSVC\14.29.30133\atlmfc\include\afx.inl
; File C:\Program Files (x86)\Microsoft Visual Studio\2019\Community\VC\Tools\MSVC\14.29.30133\atlmfc\include\afxtempl.h
; File C:\Program Files (x86)\Microsoft Visual Studio\2019\Community\VC\Tools\MSVC\14.29.30133\atlmfc\include\afx.inl
; File C:\Program Files (x86)\Microsoft Visual Studio\2019\Community\VC\Tools\MSVC\14.29.30133\atlmfc\include\afxtempl.h
; File C:\Program Files (x86)\Microsoft Visual Studio\2019\Community\VC\Tools\MSVC\14.29.30133\atlmfc\include\afx.inl
; File C:\Program Files (x86)\Microsoft Visual Studio\2019\Community\VC\Tools\MSVC\14.29.30133\atlmfc\include\afxtempl.h
; File C:\Program Files (x86)\Microsoft Visual Studio\2019\Community\VC\Tools\MSVC\14.29.30133\atlmfc\include\afx.inl
; File C:\Program Files (x86)\Microsoft Visual Studio\2019\Community\VC\Tools\MSVC\14.29.30133\atlmfc\include\afxtempl.h
;	COMDAT ?Serialize@?$CArray@UST_DATAINDEX@@U1@@@UAEXAAVCArchive@@@Z
_TEXT	SEGMENT
_pData$1$ = -4						; size = 4
_ar$ = 8						; size = 4
?Serialize@?$CArray@UST_DATAINDEX@@U1@@@UAEXAAVCArchive@@@Z PROC ; CArray<ST_DATAINDEX,ST_DATAINDEX>::Serialize, COMDAT
; _this$ = ecx

; 633  : {

  00000	55		 push	 ebp
  00001	8b ec		 mov	 ebp, esp
  00003	51		 push	 ecx
  00004	53		 push	 ebx
  00005	56		 push	 esi
  00006	57		 push	 edi
  00007	8b f9		 mov	 edi, ecx
; File C:\Program Files (x86)\Microsoft Visual Studio\2019\Community\VC\Tools\MSVC\14.29.30133\atlmfc\include\afx.inl

; 212  : 	{ return (m_nMode & CArchive::load) == 0; }

  00009	8b 4d 08	 mov	 ecx, DWORD PTR _ar$[ebp]
  0000c	8b 41 18	 mov	 eax, DWORD PTR [ecx+24]
  0000f	f7 d0		 not	 eax
  00011	a8 01		 test	 al, 1
; File C:\Program Files (x86)\Microsoft Visual Studio\2019\Community\VC\Tools\MSVC\14.29.30133\atlmfc\include\afxtempl.h

; 637  : 	if (ar.IsStoring())

  00013	74 0a		 je	 SHORT $LN2@Serialize

; 638  : 	{
; 639  : 		ar.WriteCount(m_nSize);

  00015	ff 77 08	 push	 DWORD PTR [edi+8]
  00018	e8 00 00 00 00	 call	 ?WriteCount@CArchive@@QAEXK@Z ; CArchive::WriteCount

; 640  : 	}

  0001d	eb 0f		 jmp	 SHORT $LN3@Serialize
$LN2@Serialize:

; 641  : 	else
; 642  : 	{
; 643  : 		DWORD_PTR nOldSize = ar.ReadCount();

  0001f	e8 00 00 00 00	 call	 ?ReadCount@CArchive@@QAEKXZ ; CArchive::ReadCount

; 644  : 		SetSize(nOldSize, -1);

  00024	6a ff		 push	 -1
  00026	50		 push	 eax
  00027	8b cf		 mov	 ecx, edi
  00029	e8 00 00 00 00	 call	 ?SetSize@?$CArray@UST_DATAINDEX@@U1@@@QAEXHH@Z ; CArray<ST_DATAINDEX,ST_DATAINDEX>::SetSize
$LN3@Serialize:

; 645  : 	}
; 646  : 	SerializeElements<TYPE>(ar, m_pData, m_nSize);

  0002e	8b 77 08	 mov	 esi, DWORD PTR [edi+8]
  00031	8b 4f 04	 mov	 ecx, DWORD PTR [edi+4]
  00034	89 4d fc	 mov	 DWORD PTR _pData$1$[ebp], ecx

; 68   : 	ENSURE(nCount == 0 || pElements != NULL);

  00037	85 f6		 test	 esi, esi
  00039	74 08		 je	 SHORT $LN8@Serialize
  0003b	85 c9		 test	 ecx, ecx
  0003d	0f 84 8a 00 00
	00		 je	 $LN40@Serialize
$LN8@Serialize:
; File C:\Program Files (x86)\Microsoft Visual Studio\2019\Community\VC\Tools\MSVC\14.29.30133\atlmfc\include\afx.inl

; 212  : 	{ return (m_nMode & CArchive::load) == 0; }

  00043	8b 55 08	 mov	 edx, DWORD PTR _ar$[ebp]
  00046	8b 42 18	 mov	 eax, DWORD PTR [edx+24]
  00049	f7 d0		 not	 eax
  0004b	a8 01		 test	 al, 1
; File C:\Program Files (x86)\Microsoft Visual Studio\2019\Community\VC\Tools\MSVC\14.29.30133\atlmfc\include\afxtempl.h

; 73   : 	if (ar.IsStoring())

  0004d	74 34		 je	 SHORT $LN16@Serialize

; 74   : 	{
; 75   : 		TYPE* pData;
; 76   : 		UINT_PTR nElementsLeft;
; 77   : 
; 78   : 		nElementsLeft = nCount;
; 79   : 		pData = pElements;
; 80   : 		while( nElementsLeft > 0 )

  0004f	85 f6		 test	 esi, esi
  00051	74 27		 je	 SHORT $LN14@Serialize
$LL11@Serialize:

; 81   : 		{
; 82   : 			UINT nElementsToWrite;
; 83   : 
; 84   : 			nElementsToWrite = UINT(__min(nElementsLeft, INT_MAX/sizeof(TYPE)));

  00053	bb ff ff ff 03	 mov	 ebx, 67108863		; 03ffffffH
  00058	3b f3		 cmp	 esi, ebx
  0005a	0f 42 de	 cmovb	 ebx, esi

; 85   : 			ar.Write(pData, nElementsToWrite*sizeof(TYPE));

  0005d	8b fb		 mov	 edi, ebx
  0005f	c1 e7 05	 shl	 edi, 5
  00062	57		 push	 edi
  00063	51		 push	 ecx
  00064	8b ca		 mov	 ecx, edx
  00066	e8 00 00 00 00	 call	 ?Write@CArchive@@QAEXPBXI@Z ; CArchive::Write

; 86   : 			nElementsLeft -= nElementsToWrite;
; 87   : 			pData += nElementsToWrite;

  0006b	8b 4d fc	 mov	 ecx, DWORD PTR _pData$1$[ebp]
  0006e	8b 55 08	 mov	 edx, DWORD PTR _ar$[ebp]
  00071	03 cf		 add	 ecx, edi
  00073	89 4d fc	 mov	 DWORD PTR _pData$1$[ebp], ecx
  00076	2b f3		 sub	 esi, ebx
  00078	75 d9		 jne	 SHORT $LL11@Serialize
$LN14@Serialize:
  0007a	5f		 pop	 edi

; 647  : }

  0007b	5e		 pop	 esi
  0007c	5b		 pop	 ebx
  0007d	8b e5		 mov	 esp, ebp
  0007f	5d		 pop	 ebp
  00080	c2 04 00	 ret	 4
$LN16@Serialize:

; 97   : 		while( nElementsLeft > 0 )

  00083	85 f6		 test	 esi, esi
  00085	74 f3		 je	 SHORT $LN14@Serialize
  00087	66 0f 1f 84 00
	00 00 00 00	 npad	 9
$LL13@Serialize:

; 98   : 		{
; 99   : 			UINT nElementsToRead;
; 100  : 
; 101  : 			nElementsToRead = UINT(__min(nElementsLeft, INT_MAX/sizeof(TYPE)));

  00090	bb ff ff ff 03	 mov	 ebx, 67108863		; 03ffffffH
  00095	3b f3		 cmp	 esi, ebx
  00097	0f 42 de	 cmovb	 ebx, esi

; 102  : 			ar.EnsureRead(pData, nElementsToRead*sizeof(TYPE));

  0009a	8b fb		 mov	 edi, ebx
  0009c	c1 e7 05	 shl	 edi, 5
; File C:\Program Files (x86)\Microsoft Visual Studio\2019\Community\VC\Tools\MSVC\14.29.30133\atlmfc\include\afx.inl

; 399  : 	UINT nRead=Read(lpBuf, nCount);

  0009f	57		 push	 edi
  000a0	51		 push	 ecx
  000a1	8b ca		 mov	 ecx, edx
  000a3	e8 00 00 00 00	 call	 ?Read@CArchive@@QAEIPAXI@Z ; CArchive::Read

; 400  : 	if(nRead!=nCount)

  000a8	3b c7		 cmp	 eax, edi
  000aa	75 18		 jne	 SHORT $LN30@Serialize
; File C:\Program Files (x86)\Microsoft Visual Studio\2019\Community\VC\Tools\MSVC\14.29.30133\atlmfc\include\afxtempl.h

; 97   : 		while( nElementsLeft > 0 )

  000ac	8b 4d fc	 mov	 ecx, DWORD PTR _pData$1$[ebp]
  000af	8b 55 08	 mov	 edx, DWORD PTR _ar$[ebp]

; 103  : 			nElementsLeft -= nElementsToRead;
; 104  : 			pData += nElementsToRead;

  000b2	03 cf		 add	 ecx, edi
  000b4	89 4d fc	 mov	 DWORD PTR _pData$1$[ebp], ecx
  000b7	2b f3		 sub	 esi, ebx
  000b9	75 d5		 jne	 SHORT $LL13@Serialize

; 647  : }

  000bb	5f		 pop	 edi
  000bc	5e		 pop	 esi
  000bd	5b		 pop	 ebx
  000be	8b e5		 mov	 esp, ebp
  000c0	5d		 pop	 ebp
  000c1	c2 04 00	 ret	 4
$LN30@Serialize:
; File C:\Program Files (x86)\Microsoft Visual Studio\2019\Community\VC\Tools\MSVC\14.29.30133\atlmfc\include\afx.inl

; 402  : 		AfxThrowArchiveException(CArchiveException::endOfFile);

  000c4	6a 00		 push	 0
  000c6	6a 03		 push	 3
  000c8	e8 00 00 00 00	 call	 ?AfxThrowArchiveException@@YGXHPBD@Z ; AfxThrowArchiveException
$LN40@Serialize:
; File C:\Program Files (x86)\Microsoft Visual Studio\2019\Community\VC\Tools\MSVC\14.29.30133\atlmfc\include\afxtempl.h

; 68   : 	ENSURE(nCount == 0 || pElements != NULL);

  000cd	e8 00 00 00 00	 call	 ?AfxThrowInvalidArgException@@YGXXZ ; AfxThrowInvalidArgException
$LN38@Serialize:
  000d2	cc		 int	 3
?Serialize@?$CArray@UST_DATAINDEX@@U1@@@UAEXAAVCArchive@@@Z ENDP ; CArray<ST_DATAINDEX,ST_DATAINDEX>::Serialize
_TEXT	ENDS
; Function compile flags: /Ogtp
; File C:\Program Files (x86)\Microsoft Visual Studio\2019\Community\VC\Tools\MSVC\14.29.30133\atlmfc\include\afxtempl.h
;	COMDAT ??1?$CArray@UST_DATAINDEX@@U1@@@UAE@XZ
_TEXT	SEGMENT
_i$1$ = -4						; size = 4
??1?$CArray@UST_DATAINDEX@@U1@@@UAE@XZ PROC		; CArray<ST_DATAINDEX,ST_DATAINDEX>::~CArray<ST_DATAINDEX,ST_DATAINDEX>, COMDAT
; _this$ = ecx

; 355  : {

  00000	55		 push	 ebp
  00001	8b ec		 mov	 ebp, esp
  00003	51		 push	 ecx
  00004	56		 push	 esi
  00005	8b f1		 mov	 esi, ecx

; 356  : 	ASSERT_VALID(this);
; 357  : 
; 358  : 	if (m_pData != NULL)

  00007	8b 46 04	 mov	 eax, DWORD PTR [esi+4]
  0000a	c7 06 00 00 00
	00		 mov	 DWORD PTR [esi], OFFSET ??_7?$CArray@UST_DATAINDEX@@U1@@@6B@
  00010	85 c0		 test	 eax, eax
  00012	74 69		 je	 SHORT $LN5@CArray

; 359  : 	{
; 360  : 		for( int i = 0; i < m_nSize; i++ )

  00014	83 7e 08 00	 cmp	 DWORD PTR [esi+8], 0
  00018	c7 45 fc 00 00
	00 00		 mov	 DWORD PTR _i$1$[ebp], 0
  0001f	7e 53		 jle	 SHORT $LN3@CArray
  00021	53		 push	 ebx
  00022	57		 push	 edi
  00023	33 db		 xor	 ebx, ebx
$LL4@CArray:

; 361  : 			(m_pData + i)->~TYPE();

  00025	8b 7e 04	 mov	 edi, DWORD PTR [esi+4]
  00028	03 fb		 add	 edi, ebx
  0002a	8d 4f 1c	 lea	 ecx, DWORD PTR [edi+28]
  0002d	ff 15 00 00 00
	00		 call	 DWORD PTR __imp_??1?$CStringT@DV?$StrTraitMFC_DLL@DV?$ChTraitsCRT@D@ATL@@@@@ATL@@QAE@XZ
  00033	8d 4f 18	 lea	 ecx, DWORD PTR [edi+24]
  00036	ff 15 00 00 00
	00		 call	 DWORD PTR __imp_??1?$CStringT@DV?$StrTraitMFC_DLL@DV?$ChTraitsCRT@D@ATL@@@@@ATL@@QAE@XZ
  0003c	8d 4f 14	 lea	 ecx, DWORD PTR [edi+20]
  0003f	ff 15 00 00 00
	00		 call	 DWORD PTR __imp_??1?$CStringT@DV?$StrTraitMFC_DLL@DV?$ChTraitsCRT@D@ATL@@@@@ATL@@QAE@XZ
  00045	8d 4f 10	 lea	 ecx, DWORD PTR [edi+16]
  00048	ff 15 00 00 00
	00		 call	 DWORD PTR __imp_??1?$CStringT@DV?$StrTraitMFC_DLL@DV?$ChTraitsCRT@D@ATL@@@@@ATL@@QAE@XZ
  0004e	8d 4f 0c	 lea	 ecx, DWORD PTR [edi+12]
  00051	ff 15 00 00 00
	00		 call	 DWORD PTR __imp_??1?$CStringT@DV?$StrTraitMFC_DLL@DV?$ChTraitsCRT@D@ATL@@@@@ATL@@QAE@XZ
  00057	8d 4f 08	 lea	 ecx, DWORD PTR [edi+8]
  0005a	ff 15 00 00 00
	00		 call	 DWORD PTR __imp_??1?$CStringT@DV?$StrTraitMFC_DLL@DV?$ChTraitsCRT@D@ATL@@@@@ATL@@QAE@XZ
  00060	8b 45 fc	 mov	 eax, DWORD PTR _i$1$[ebp]
  00063	83 c3 20	 add	 ebx, 32			; 00000020H
  00066	40		 inc	 eax
  00067	89 45 fc	 mov	 DWORD PTR _i$1$[ebp], eax
  0006a	3b 46 08	 cmp	 eax, DWORD PTR [esi+8]
  0006d	7c b6		 jl	 SHORT $LL4@CArray
  0006f	8b 46 04	 mov	 eax, DWORD PTR [esi+4]
  00072	5f		 pop	 edi
  00073	5b		 pop	 ebx
$LN3@CArray:

; 362  : 		delete[] (BYTE*)m_pData;

  00074	50		 push	 eax
  00075	e8 00 00 00 00	 call	 ??_V@YAXPAX@Z		; operator delete[]
  0007a	83 c4 04	 add	 esp, 4
$LN5@CArray:
  0007d	5e		 pop	 esi

; 363  : 	}
; 364  : }

  0007e	8b e5		 mov	 esp, ebp
  00080	5d		 pop	 ebp
  00081	c3		 ret	 0
??1?$CArray@UST_DATAINDEX@@U1@@@UAE@XZ ENDP		; CArray<ST_DATAINDEX,ST_DATAINDEX>::~CArray<ST_DATAINDEX,ST_DATAINDEX>
_TEXT	ENDS
; Function compile flags: /Ogtp
; File C:\Program Files (x86)\Microsoft Visual Studio\2019\Community\VC\Tools\MSVC\14.29.30133\atlmfc\include\afxtempl.h
; File C:\Program Files (x86)\Windows Kits\10\Include\10.0.22000.0\ucrt\corecrt_memcpy_s.h
; File C:\Program Files (x86)\Microsoft Visual Studio\2019\Community\VC\Tools\MSVC\14.29.30133\atlmfc\include\atlchecked.h
; File C:\Program Files (x86)\Microsoft Visual Studio\2019\Community\VC\Tools\MSVC\14.29.30133\atlmfc\include\afxtempl.h
; File C:\Program Files (x86)\Windows Kits\10\Include\10.0.22000.0\ucrt\corecrt_memcpy_s.h
; File C:\Program Files (x86)\Microsoft Visual Studio\2019\Community\VC\Tools\MSVC\14.29.30133\atlmfc\include\afxtempl.h
;	COMDAT ?SetSize@?$CArray@UST_DATAINDEX@@U1@@@QAEXHH@Z
_TEXT	SEGMENT
__N$1$ = -12						; size = 4
__S2$1$ = -8						; size = 4
_nNewMax$1$ = -4					; size = 4
_nAllocSize$1$ = -4					; size = 4
__S1max$1$ = 8						; size = 4
_i$1$ = 8						; size = 4
_i$1$ = 8						; size = 4
_i$1$ = 8						; size = 4
_i$1$ = 8						; size = 4
_nNewSize$ = 8						; size = 4
_pNewData$1$ = 12					; size = 4
tv713 = 12						; size = 4
tv692 = 12						; size = 4
_nGrowBy$ = 12						; size = 4
?SetSize@?$CArray@UST_DATAINDEX@@U1@@@QAEXHH@Z PROC	; CArray<ST_DATAINDEX,ST_DATAINDEX>::SetSize, COMDAT
; _this$ = ecx

; 368  : {

  00000	55		 push	 ebp
  00001	8b ec		 mov	 ebp, esp
  00003	83 ec 0c	 sub	 esp, 12			; 0000000cH
  00006	53		 push	 ebx
  00007	8b 5d 08	 mov	 ebx, DWORD PTR _nNewSize$[ebp]
  0000a	56		 push	 esi
  0000b	57		 push	 edi
  0000c	8b f9		 mov	 edi, ecx

; 369  : 	ASSERT_VALID(this);
; 370  : 	ASSERT(nNewSize >= 0);
; 371  : 
; 372  : 	if(nNewSize < 0 )

  0000e	85 db		 test	 ebx, ebx
  00010	0f 88 c9 03 00
	00		 js	 $LN91@SetSize

; 373  : 		AfxThrowInvalidArgException();
; 374  : 
; 375  : 	if (nGrowBy >= 0)

  00016	8b 45 0c	 mov	 eax, DWORD PTR _nGrowBy$[ebp]
  00019	85 c0		 test	 eax, eax
  0001b	78 03		 js	 SHORT $LN90@SetSize

; 376  : 		m_nGrowBy = nGrowBy;  // set new size

  0001d	89 47 10	 mov	 DWORD PTR [edi+16], eax
$LN90@SetSize:

; 377  : 
; 378  : 	if (nNewSize == 0)

  00020	8b 57 04	 mov	 edx, DWORD PTR [edi+4]
  00023	85 db		 test	 ebx, ebx
  00025	0f 85 80 00 00
	00		 jne	 $LN19@SetSize

; 379  : 	{
; 380  : 		// shrink to nothing
; 381  : 		if (m_pData != NULL)

  0002b	85 d2		 test	 edx, edx
  0002d	74 65		 je	 SHORT $LN21@SetSize

; 382  : 		{
; 383  : 			for( int i = 0; i < m_nSize; i++ )

  0002f	89 5d 08	 mov	 DWORD PTR _i$1$[ebp], ebx
  00032	39 5f 08	 cmp	 DWORD PTR [edi+8], ebx
  00035	7e 4d		 jle	 SHORT $LN3@SetSize
$LL4@SetSize:

; 384  : 				(m_pData + i)->~TYPE();

  00037	8b 77 04	 mov	 esi, DWORD PTR [edi+4]
  0003a	03 f3		 add	 esi, ebx
  0003c	8d 4e 1c	 lea	 ecx, DWORD PTR [esi+28]
  0003f	ff 15 00 00 00
	00		 call	 DWORD PTR __imp_??1?$CStringT@DV?$StrTraitMFC_DLL@DV?$ChTraitsCRT@D@ATL@@@@@ATL@@QAE@XZ
  00045	8d 4e 18	 lea	 ecx, DWORD PTR [esi+24]
  00048	ff 15 00 00 00
	00		 call	 DWORD PTR __imp_??1?$CStringT@DV?$StrTraitMFC_DLL@DV?$ChTraitsCRT@D@ATL@@@@@ATL@@QAE@XZ
  0004e	8d 4e 14	 lea	 ecx, DWORD PTR [esi+20]
  00051	ff 15 00 00 00
	00		 call	 DWORD PTR __imp_??1?$CStringT@DV?$StrTraitMFC_DLL@DV?$ChTraitsCRT@D@ATL@@@@@ATL@@QAE@XZ
  00057	8d 4e 10	 lea	 ecx, DWORD PTR [esi+16]
  0005a	ff 15 00 00 00
	00		 call	 DWORD PTR __imp_??1?$CStringT@DV?$StrTraitMFC_DLL@DV?$ChTraitsCRT@D@ATL@@@@@ATL@@QAE@XZ
  00060	8d 4e 0c	 lea	 ecx, DWORD PTR [esi+12]
  00063	ff 15 00 00 00
	00		 call	 DWORD PTR __imp_??1?$CStringT@DV?$StrTraitMFC_DLL@DV?$ChTraitsCRT@D@ATL@@@@@ATL@@QAE@XZ
  00069	8d 4e 08	 lea	 ecx, DWORD PTR [esi+8]
  0006c	ff 15 00 00 00
	00		 call	 DWORD PTR __imp_??1?$CStringT@DV?$StrTraitMFC_DLL@DV?$ChTraitsCRT@D@ATL@@@@@ATL@@QAE@XZ
  00072	8b 45 08	 mov	 eax, DWORD PTR _i$1$[ebp]
  00075	83 c3 20	 add	 ebx, 32			; 00000020H
  00078	40		 inc	 eax
  00079	89 45 08	 mov	 DWORD PTR _i$1$[ebp], eax
  0007c	3b 47 08	 cmp	 eax, DWORD PTR [edi+8]
  0007f	7c b6		 jl	 SHORT $LL4@SetSize
  00081	8b 57 04	 mov	 edx, DWORD PTR [edi+4]
$LN3@SetSize:

; 385  : 			delete[] (BYTE*)m_pData;

  00084	52		 push	 edx
  00085	e8 00 00 00 00	 call	 ??_V@YAXPAX@Z		; operator delete[]
  0008a	83 c4 04	 add	 esp, 4

; 386  : 			m_pData = NULL;

  0008d	c7 47 04 00 00
	00 00		 mov	 DWORD PTR [edi+4], 0
$LN21@SetSize:

; 387  : 		}
; 388  : 		m_nSize = m_nMaxSize = 0;

  00094	c7 47 0c 00 00
	00 00		 mov	 DWORD PTR [edi+12], 0
  0009b	c7 47 08 00 00
	00 00		 mov	 DWORD PTR [edi+8], 0
  000a2	5f		 pop	 edi

; 471  : 		m_pData = pNewData;
; 472  : 		m_nSize = nNewSize;
; 473  : 		m_nMaxSize = nNewMax;
; 474  : 	}
; 475  : }

  000a3	5e		 pop	 esi
  000a4	5b		 pop	 ebx
  000a5	8b e5		 mov	 esp, ebp
  000a7	5d		 pop	 ebp
  000a8	c2 08 00	 ret	 8
$LN19@SetSize:

; 389  : 	}
; 390  : 	else if (m_pData == NULL)

  000ab	85 d2		 test	 edx, edx
  000ad	0f 85 87 00 00
	00		 jne	 $LN22@SetSize

; 391  : 	{
; 392  : 		// create buffer big enough to hold number of requested elements or
; 393  : 		// m_nGrowBy elements, whichever is larger.
; 394  : #ifdef SIZE_T_MAX
; 395  : 		ASSERT(nNewSize <= SIZE_T_MAX/sizeof(TYPE));    // no overflow
; 396  : #endif
; 397  : 		size_t nAllocSize = __max(nNewSize, m_nGrowBy);

  000b3	8b 47 10	 mov	 eax, DWORD PTR [edi+16]
  000b6	3b d8		 cmp	 ebx, eax
  000b8	0f 4f c3	 cmovg	 eax, ebx

; 398  : 		m_pData = (TYPE*) new BYTE[(size_t)nAllocSize * sizeof(TYPE)];

  000bb	8b f0		 mov	 esi, eax
  000bd	89 45 fc	 mov	 DWORD PTR _nAllocSize$1$[ebp], eax
  000c0	c1 e6 05	 shl	 esi, 5
  000c3	56		 push	 esi
  000c4	e8 00 00 00 00	 call	 ??_U@YAPAXI@Z		; operator new[]

; 399  : 		memset((void*)m_pData, 0, (size_t)nAllocSize * sizeof(TYPE));

  000c9	56		 push	 esi
  000ca	6a 00		 push	 0
  000cc	50		 push	 eax
  000cd	89 47 04	 mov	 DWORD PTR [edi+4], eax
  000d0	e8 00 00 00 00	 call	 _memset
  000d5	83 c4 10	 add	 esp, 16			; 00000010H

; 400  : 		for( int i = 0; i < nNewSize; i++ )

  000d8	85 db		 test	 ebx, ebx
  000da	7e 4c		 jle	 SHORT $LN6@SetSize

; 398  : 		m_pData = (TYPE*) new BYTE[(size_t)nAllocSize * sizeof(TYPE)];

  000dc	89 5d 0c	 mov	 DWORD PTR tv713[ebp], ebx
  000df	33 db		 xor	 ebx, ebx
$LL7@SetSize:

; 401  : #pragma push_macro("new")
; 402  : #undef new
; 403  : 			::new( (void*)( m_pData + i ) ) TYPE;

  000e1	8b 77 04	 mov	 esi, DWORD PTR [edi+4]
  000e4	03 f3		 add	 esi, ebx
  000e6	8d 4e 08	 lea	 ecx, DWORD PTR [esi+8]
  000e9	ff 15 00 00 00
	00		 call	 DWORD PTR __imp_??0?$CStringT@DV?$StrTraitMFC_DLL@DV?$ChTraitsCRT@D@ATL@@@@@ATL@@QAE@XZ
  000ef	8d 4e 0c	 lea	 ecx, DWORD PTR [esi+12]
  000f2	ff 15 00 00 00
	00		 call	 DWORD PTR __imp_??0?$CStringT@DV?$StrTraitMFC_DLL@DV?$ChTraitsCRT@D@ATL@@@@@ATL@@QAE@XZ
  000f8	8d 4e 10	 lea	 ecx, DWORD PTR [esi+16]
  000fb	ff 15 00 00 00
	00		 call	 DWORD PTR __imp_??0?$CStringT@DV?$StrTraitMFC_DLL@DV?$ChTraitsCRT@D@ATL@@@@@ATL@@QAE@XZ
  00101	8d 4e 14	 lea	 ecx, DWORD PTR [esi+20]
  00104	ff 15 00 00 00
	00		 call	 DWORD PTR __imp_??0?$CStringT@DV?$StrTraitMFC_DLL@DV?$ChTraitsCRT@D@ATL@@@@@ATL@@QAE@XZ
  0010a	8d 4e 18	 lea	 ecx, DWORD PTR [esi+24]
  0010d	ff 15 00 00 00
	00		 call	 DWORD PTR __imp_??0?$CStringT@DV?$StrTraitMFC_DLL@DV?$ChTraitsCRT@D@ATL@@@@@ATL@@QAE@XZ
  00113	8d 4e 1c	 lea	 ecx, DWORD PTR [esi+28]
  00116	ff 15 00 00 00
	00		 call	 DWORD PTR __imp_??0?$CStringT@DV?$StrTraitMFC_DLL@DV?$ChTraitsCRT@D@ATL@@@@@ATL@@QAE@XZ
  0011c	83 c3 20	 add	 ebx, 32			; 00000020H
  0011f	83 6d 0c 01	 sub	 DWORD PTR tv713[ebp], 1
  00123	75 bc		 jne	 SHORT $LL7@SetSize
  00125	8b 5d 08	 mov	 ebx, DWORD PTR _nNewSize$[ebp]
$LN6@SetSize:

; 471  : 		m_pData = pNewData;
; 472  : 		m_nSize = nNewSize;
; 473  : 		m_nMaxSize = nNewMax;
; 474  : 	}
; 475  : }

  00128	8b 45 fc	 mov	 eax, DWORD PTR _nNewMax$1$[ebp]
  0012b	89 47 0c	 mov	 DWORD PTR [edi+12], eax
$LN12@SetSize:
  0012e	89 5f 08	 mov	 DWORD PTR [edi+8], ebx
  00131	5f		 pop	 edi
  00132	5e		 pop	 esi
  00133	5b		 pop	 ebx
  00134	8b e5		 mov	 esp, ebp
  00136	5d		 pop	 ebp
  00137	c2 08 00	 ret	 8
$LN22@SetSize:

; 404  : #pragma pop_macro("new")
; 405  : 		m_nSize = nNewSize;
; 406  : 		m_nMaxSize = nAllocSize;
; 407  : 	}
; 408  : 	else if (nNewSize <= m_nMaxSize)

  0013a	8b 4f 0c	 mov	 ecx, DWORD PTR [edi+12]
  0013d	3b d9		 cmp	 ebx, ecx
  0013f	0f 8f 0d 01 00
	00		 jg	 $LN24@SetSize

; 409  : 	{
; 410  : 		// it fits
; 411  : 		if (nNewSize > m_nSize)

  00145	8b 4f 08	 mov	 ecx, DWORD PTR [edi+8]
  00148	3b d9		 cmp	 ebx, ecx
  0014a	0f 8e 83 00 00
	00		 jle	 $LN26@SetSize

; 412  : 		{
; 413  : 			// initialize the new elements
; 414  : 			memset((void*)(m_pData + m_nSize), 0, (size_t)(nNewSize-m_nSize) * sizeof(TYPE));

  00150	8b c3		 mov	 eax, ebx
  00152	2b c1		 sub	 eax, ecx
  00154	c1 e1 05	 shl	 ecx, 5
  00157	c1 e0 05	 shl	 eax, 5
  0015a	03 ca		 add	 ecx, edx
  0015c	50		 push	 eax
  0015d	6a 00		 push	 0
  0015f	51		 push	 ecx
  00160	e8 00 00 00 00	 call	 _memset

; 415  : 			for( int i = 0; i < nNewSize-m_nSize; i++ )

  00165	8b c3		 mov	 eax, ebx
  00167	33 c9		 xor	 ecx, ecx
  00169	2b 47 08	 sub	 eax, DWORD PTR [edi+8]
  0016c	83 c4 0c	 add	 esp, 12			; 0000000cH
  0016f	89 4d 08	 mov	 DWORD PTR _i$1$[ebp], ecx
  00172	85 c0		 test	 eax, eax
  00174	7e b8		 jle	 SHORT $LN12@SetSize
$LL10@SetSize:

; 416  : #pragma push_macro("new")
; 417  : #undef new
; 418  : 				::new( (void*)( m_pData + m_nSize + i ) ) TYPE;

  00176	8b 77 08	 mov	 esi, DWORD PTR [edi+8]
  00179	03 f1		 add	 esi, ecx
  0017b	c1 e6 05	 shl	 esi, 5
  0017e	03 77 04	 add	 esi, DWORD PTR [edi+4]
  00181	8d 4e 08	 lea	 ecx, DWORD PTR [esi+8]
  00184	ff 15 00 00 00
	00		 call	 DWORD PTR __imp_??0?$CStringT@DV?$StrTraitMFC_DLL@DV?$ChTraitsCRT@D@ATL@@@@@ATL@@QAE@XZ
  0018a	8d 4e 0c	 lea	 ecx, DWORD PTR [esi+12]
  0018d	ff 15 00 00 00
	00		 call	 DWORD PTR __imp_??0?$CStringT@DV?$StrTraitMFC_DLL@DV?$ChTraitsCRT@D@ATL@@@@@ATL@@QAE@XZ
  00193	8d 4e 10	 lea	 ecx, DWORD PTR [esi+16]
  00196	ff 15 00 00 00
	00		 call	 DWORD PTR __imp_??0?$CStringT@DV?$StrTraitMFC_DLL@DV?$ChTraitsCRT@D@ATL@@@@@ATL@@QAE@XZ
  0019c	8d 4e 14	 lea	 ecx, DWORD PTR [esi+20]
  0019f	ff 15 00 00 00
	00		 call	 DWORD PTR __imp_??0?$CStringT@DV?$StrTraitMFC_DLL@DV?$ChTraitsCRT@D@ATL@@@@@ATL@@QAE@XZ
  001a5	8d 4e 18	 lea	 ecx, DWORD PTR [esi+24]
  001a8	ff 15 00 00 00
	00		 call	 DWORD PTR __imp_??0?$CStringT@DV?$StrTraitMFC_DLL@DV?$ChTraitsCRT@D@ATL@@@@@ATL@@QAE@XZ
  001ae	8d 4e 1c	 lea	 ecx, DWORD PTR [esi+28]
  001b1	ff 15 00 00 00
	00		 call	 DWORD PTR __imp_??0?$CStringT@DV?$StrTraitMFC_DLL@DV?$ChTraitsCRT@D@ATL@@@@@ATL@@QAE@XZ
  001b7	8b 4d 08	 mov	 ecx, DWORD PTR _i$1$[ebp]
  001ba	8b c3		 mov	 eax, ebx
  001bc	2b 47 08	 sub	 eax, DWORD PTR [edi+8]
  001bf	41		 inc	 ecx
  001c0	89 4d 08	 mov	 DWORD PTR _i$1$[ebp], ecx
  001c3	3b c8		 cmp	 ecx, eax
  001c5	7c af		 jl	 SHORT $LL10@SetSize

; 471  : 		m_pData = pNewData;
; 472  : 		m_nSize = nNewSize;
; 473  : 		m_nMaxSize = nNewMax;
; 474  : 	}
; 475  : }

  001c7	89 5f 08	 mov	 DWORD PTR [edi+8], ebx
  001ca	5f		 pop	 edi
  001cb	5e		 pop	 esi
  001cc	5b		 pop	 ebx
  001cd	8b e5		 mov	 esp, ebp
  001cf	5d		 pop	 ebp
  001d0	c2 08 00	 ret	 8
$LN26@SetSize:

; 419  : #pragma pop_macro("new")
; 420  : 		}
; 421  : 		else if (m_nSize > nNewSize)

  001d3	0f 8d 55 ff ff
	ff		 jge	 $LN12@SetSize

; 422  : 		{
; 423  : 			// destroy the old elements
; 424  : 			for( int i = 0; i < m_nSize-nNewSize; i++ )

  001d9	2b cb		 sub	 ecx, ebx
  001db	c7 45 08 00 00
	00 00		 mov	 DWORD PTR _i$1$[ebp], 0
  001e2	85 c9		 test	 ecx, ecx
  001e4	0f 8e 44 ff ff
	ff		 jle	 $LN12@SetSize
  001ea	8b cb		 mov	 ecx, ebx
  001ec	c1 e1 05	 shl	 ecx, 5
  001ef	89 4d 0c	 mov	 DWORD PTR tv692[ebp], ecx
$LL13@SetSize:

; 425  : 				(m_pData + nNewSize + i)->~TYPE();

  001f2	8b 77 04	 mov	 esi, DWORD PTR [edi+4]
  001f5	03 f1		 add	 esi, ecx
  001f7	8d 4e 1c	 lea	 ecx, DWORD PTR [esi+28]
  001fa	ff 15 00 00 00
	00		 call	 DWORD PTR __imp_??1?$CStringT@DV?$StrTraitMFC_DLL@DV?$ChTraitsCRT@D@ATL@@@@@ATL@@QAE@XZ
  00200	8d 4e 18	 lea	 ecx, DWORD PTR [esi+24]
  00203	ff 15 00 00 00
	00		 call	 DWORD PTR __imp_??1?$CStringT@DV?$StrTraitMFC_DLL@DV?$ChTraitsCRT@D@ATL@@@@@ATL@@QAE@XZ
  00209	8d 4e 14	 lea	 ecx, DWORD PTR [esi+20]
  0020c	ff 15 00 00 00
	00		 call	 DWORD PTR __imp_??1?$CStringT@DV?$StrTraitMFC_DLL@DV?$ChTraitsCRT@D@ATL@@@@@ATL@@QAE@XZ
  00212	8d 4e 10	 lea	 ecx, DWORD PTR [esi+16]
  00215	ff 15 00 00 00
	00		 call	 DWORD PTR __imp_??1?$CStringT@DV?$StrTraitMFC_DLL@DV?$ChTraitsCRT@D@ATL@@@@@ATL@@QAE@XZ
  0021b	8d 4e 0c	 lea	 ecx, DWORD PTR [esi+12]
  0021e	ff 15 00 00 00
	00		 call	 DWORD PTR __imp_??1?$CStringT@DV?$StrTraitMFC_DLL@DV?$ChTraitsCRT@D@ATL@@@@@ATL@@QAE@XZ
  00224	8d 4e 08	 lea	 ecx, DWORD PTR [esi+8]
  00227	ff 15 00 00 00
	00		 call	 DWORD PTR __imp_??1?$CStringT@DV?$StrTraitMFC_DLL@DV?$ChTraitsCRT@D@ATL@@@@@ATL@@QAE@XZ
  0022d	8b 55 08	 mov	 edx, DWORD PTR _i$1$[ebp]
  00230	8b 4d 0c	 mov	 ecx, DWORD PTR tv692[ebp]
  00233	42		 inc	 edx
  00234	8b 47 08	 mov	 eax, DWORD PTR [edi+8]
  00237	83 c1 20	 add	 ecx, 32			; 00000020H
  0023a	2b c3		 sub	 eax, ebx
  0023c	89 55 08	 mov	 DWORD PTR _i$1$[ebp], edx
  0023f	89 4d 0c	 mov	 DWORD PTR tv692[ebp], ecx
  00242	3b d0		 cmp	 edx, eax
  00244	7c ac		 jl	 SHORT $LL13@SetSize

; 471  : 		m_pData = pNewData;
; 472  : 		m_nSize = nNewSize;
; 473  : 		m_nMaxSize = nNewMax;
; 474  : 	}
; 475  : }

  00246	89 5f 08	 mov	 DWORD PTR [edi+8], ebx
  00249	5f		 pop	 edi
  0024a	5e		 pop	 esi
  0024b	5b		 pop	 ebx
  0024c	8b e5		 mov	 esp, ebp
  0024e	5d		 pop	 ebp
  0024f	c2 08 00	 ret	 8
$LN24@SetSize:

; 426  : 		}
; 427  : 		m_nSize = nNewSize;
; 428  : 	}
; 429  : 	else
; 430  : 	{
; 431  : 		// otherwise, grow array
; 432  : 		nGrowBy = m_nGrowBy;

  00252	8b 47 10	 mov	 eax, DWORD PTR [edi+16]

; 433  : 		if (nGrowBy == 0)

  00255	85 c0		 test	 eax, eax
  00257	75 22		 jne	 SHORT $LN37@SetSize

; 434  : 		{
; 435  : 			// heuristically determine growth when nGrowBy == 0
; 436  : 			//  (this avoids heap fragmentation in many situations)
; 437  : 			nGrowBy = m_nSize / 8;

  00259	8b 47 08	 mov	 eax, DWORD PTR [edi+8]
  0025c	99		 cdq
  0025d	83 e2 07	 and	 edx, 7
  00260	03 c2		 add	 eax, edx
  00262	c1 f8 03	 sar	 eax, 3

; 438  : 			nGrowBy = (nGrowBy < 4) ? 4 : ((nGrowBy > 1024) ? 1024 : nGrowBy);

  00265	83 f8 04	 cmp	 eax, 4
  00268	7d 07		 jge	 SHORT $LN36@SetSize
  0026a	b8 04 00 00 00	 mov	 eax, 4
  0026f	eb 0a		 jmp	 SHORT $LN37@SetSize
$LN36@SetSize:
  00271	ba 00 04 00 00	 mov	 edx, 1024		; 00000400H
  00276	3b c2		 cmp	 eax, edx
  00278	0f 4f c2	 cmovg	 eax, edx
$LN37@SetSize:

; 439  : 		}
; 440  : 		INT_PTR nNewMax;
; 441  : 		if (nNewSize < m_nMaxSize + nGrowBy)

  0027b	03 c1		 add	 eax, ecx
  0027d	89 45 fc	 mov	 DWORD PTR _nNewMax$1$[ebp], eax
  00280	3b d8		 cmp	 ebx, eax
  00282	7d 0a		 jge	 SHORT $LN30@SetSize

; 445  : 
; 446  : 		ASSERT(nNewMax >= m_nMaxSize);  // no wrap around
; 447  : 
; 448  : 		if(nNewMax  < m_nMaxSize)

  00284	3b c1		 cmp	 eax, ecx
  00286	0f 8c 53 01 00
	00		 jl	 $LN91@SetSize
  0028c	eb 05		 jmp	 SHORT $LN32@SetSize
$LN30@SetSize:

; 442  : 			nNewMax = m_nMaxSize + nGrowBy;  // granularity
; 443  : 		else
; 444  : 			nNewMax = nNewSize;  // no slush

  0028e	8b c3		 mov	 eax, ebx
  00290	89 5d fc	 mov	 DWORD PTR _nNewMax$1$[ebp], ebx
$LN32@SetSize:

; 450  : 
; 451  : #ifdef SIZE_T_MAX
; 452  : 		ASSERT(nNewMax <= SIZE_T_MAX/sizeof(TYPE)); // no overflow
; 453  : #endif
; 454  : 		TYPE* pNewData = (TYPE*) new BYTE[(size_t)nNewMax * sizeof(TYPE)];

  00293	c1 e0 05	 shl	 eax, 5
  00296	50		 push	 eax
  00297	89 45 08	 mov	 DWORD PTR __S1max$1$[ebp], eax
  0029a	e8 00 00 00 00	 call	 ??_U@YAPAXI@Z		; operator new[]

; 455  : 
; 456  : 		// copy new data from old
; 457  : 		::ATL::Checked::memcpy_s(pNewData, (size_t)nNewMax * sizeof(TYPE),

  0029f	8b 4f 08	 mov	 ecx, DWORD PTR [edi+8]
  002a2	83 c4 04	 add	 esp, 4
  002a5	8b 57 04	 mov	 edx, DWORD PTR [edi+4]
  002a8	8b f0		 mov	 esi, eax
  002aa	c1 e1 05	 shl	 ecx, 5
  002ad	89 75 0c	 mov	 DWORD PTR _pNewData$1$[ebp], esi
  002b0	89 4d f4	 mov	 DWORD PTR __N$1$[ebp], ecx
  002b3	89 55 f8	 mov	 DWORD PTR __S2$1$[ebp], edx
; File C:\Program Files (x86)\Windows Kits\10\Include\10.0.22000.0\ucrt\corecrt_memcpy_s.h

; 46   :         if (_SourceSize == 0)

  002b6	85 c9		 test	 ecx, ecx
  002b8	75 04		 jne	 SHORT $LN59@SetSize

; 47   :         {
; 48   :             return 0;

  002ba	33 c0		 xor	 eax, eax
  002bc	eb 1f		 jmp	 SHORT $LN58@SetSize
$LN59@SetSize:

; 49   :         }
; 50   : 
; 51   :         _CRT_MEMCPY_S_VALIDATE_RETURN_ERRCODE(_Destination != NULL, EINVAL);

  002be	85 f6		 test	 esi, esi
  002c0	0f 85 be 00 00
	00		 jne	 $LN60@SetSize
$LN94@SetSize:
; File C:\Program Files (x86)\Microsoft Visual Studio\2019\Community\VC\Tools\MSVC\14.29.30133\atlmfc\include\atlchecked.h

; 69   : 	ATLMFC_CRT_ERRORCHECK(::memcpy_s(_S1, _S1max, _S2, _N));

  002c6	ff 15 00 00 00
	00		 call	 DWORD PTR __imp___errno
  002cc	c7 00 16 00 00
	00		 mov	 DWORD PTR [eax], 22	; 00000016H
  002d2	ff 15 00 00 00
	00		 call	 DWORD PTR __imp___invalid_parameter_noinfo
$LN64@SetSize:
  002d8	b8 16 00 00 00	 mov	 eax, 22			; 00000016H
$LN58@SetSize:
  002dd	50		 push	 eax
  002de	e8 00 00 00 00	 call	 ?AfxCrtErrorCheck@@YAHH@Z ; AfxCrtErrorCheck
; File C:\Program Files (x86)\Microsoft Visual Studio\2019\Community\VC\Tools\MSVC\14.29.30133\atlmfc\include\afxtempl.h

; 462  : 		memset((void*)(pNewData + m_nSize), 0, (size_t)(nNewSize-m_nSize) * sizeof(TYPE));

  002e3	8b 4f 08	 mov	 ecx, DWORD PTR [edi+8]
  002e6	8b c3		 mov	 eax, ebx
  002e8	2b c1		 sub	 eax, ecx
  002ea	c1 e1 05	 shl	 ecx, 5
  002ed	c1 e0 05	 shl	 eax, 5
  002f0	03 ce		 add	 ecx, esi
  002f2	50		 push	 eax
  002f3	6a 00		 push	 0
  002f5	51		 push	 ecx
  002f6	e8 00 00 00 00	 call	 _memset

; 463  : 		for( int i = 0; i < nNewSize-m_nSize; i++ )

  002fb	8b c3		 mov	 eax, ebx
  002fd	33 c9		 xor	 ecx, ecx
  002ff	2b 47 08	 sub	 eax, DWORD PTR [edi+8]
  00302	83 c4 10	 add	 esp, 16			; 00000010H
  00305	89 4d 08	 mov	 DWORD PTR _i$1$[ebp], ecx
  00308	85 c0		 test	 eax, eax
  0030a	7e 58		 jle	 SHORT $LN15@SetSize
  0030c	0f 1f 40 00	 npad	 4
$LL16@SetSize:

; 464  : #pragma push_macro("new")
; 465  : #undef new
; 466  : 			::new( (void*)( pNewData + m_nSize + i ) ) TYPE;

  00310	8b 77 08	 mov	 esi, DWORD PTR [edi+8]
  00313	03 f1		 add	 esi, ecx
  00315	c1 e6 05	 shl	 esi, 5
  00318	03 75 0c	 add	 esi, DWORD PTR _pNewData$1$[ebp]
  0031b	8d 4e 08	 lea	 ecx, DWORD PTR [esi+8]
  0031e	ff 15 00 00 00
	00		 call	 DWORD PTR __imp_??0?$CStringT@DV?$StrTraitMFC_DLL@DV?$ChTraitsCRT@D@ATL@@@@@ATL@@QAE@XZ
  00324	8d 4e 0c	 lea	 ecx, DWORD PTR [esi+12]
  00327	ff 15 00 00 00
	00		 call	 DWORD PTR __imp_??0?$CStringT@DV?$StrTraitMFC_DLL@DV?$ChTraitsCRT@D@ATL@@@@@ATL@@QAE@XZ
  0032d	8d 4e 10	 lea	 ecx, DWORD PTR [esi+16]
  00330	ff 15 00 00 00
	00		 call	 DWORD PTR __imp_??0?$CStringT@DV?$StrTraitMFC_DLL@DV?$ChTraitsCRT@D@ATL@@@@@ATL@@QAE@XZ
  00336	8d 4e 14	 lea	 ecx, DWORD PTR [esi+20]
  00339	ff 15 00 00 00
	00		 call	 DWORD PTR __imp_??0?$CStringT@DV?$StrTraitMFC_DLL@DV?$ChTraitsCRT@D@ATL@@@@@ATL@@QAE@XZ
  0033f	8d 4e 18	 lea	 ecx, DWORD PTR [esi+24]
  00342	ff 15 00 00 00
	00		 call	 DWORD PTR __imp_??0?$CStringT@DV?$StrTraitMFC_DLL@DV?$ChTraitsCRT@D@ATL@@@@@ATL@@QAE@XZ
  00348	8d 4e 1c	 lea	 ecx, DWORD PTR [esi+28]
  0034b	ff 15 00 00 00
	00		 call	 DWORD PTR __imp_??0?$CStringT@DV?$StrTraitMFC_DLL@DV?$ChTraitsCRT@D@ATL@@@@@ATL@@QAE@XZ
  00351	8b 4d 08	 mov	 ecx, DWORD PTR _i$1$[ebp]
  00354	8b c3		 mov	 eax, ebx
  00356	2b 47 08	 sub	 eax, DWORD PTR [edi+8]
  00359	41		 inc	 ecx
  0035a	89 4d 08	 mov	 DWORD PTR _i$1$[ebp], ecx
  0035d	3b c8		 cmp	 ecx, eax
  0035f	7c af		 jl	 SHORT $LL16@SetSize
  00361	8b 75 0c	 mov	 esi, DWORD PTR _pNewData$1$[ebp]
$LN15@SetSize:

; 467  : #pragma pop_macro("new")
; 468  : 
; 469  : 		// get rid of old stuff (note: no destructors called)
; 470  : 		delete[] (BYTE*)m_pData;

  00364	ff 77 04	 push	 DWORD PTR [edi+4]
  00367	e8 00 00 00 00	 call	 ??_V@YAXPAX@Z		; operator delete[]

; 471  : 		m_pData = pNewData;
; 472  : 		m_nSize = nNewSize;
; 473  : 		m_nMaxSize = nNewMax;
; 474  : 	}
; 475  : }

  0036c	8b 45 fc	 mov	 eax, DWORD PTR _nNewMax$1$[ebp]
  0036f	83 c4 04	 add	 esp, 4
  00372	89 77 04	 mov	 DWORD PTR [edi+4], esi
  00375	89 5f 08	 mov	 DWORD PTR [edi+8], ebx
  00378	89 47 0c	 mov	 DWORD PTR [edi+12], eax
  0037b	5f		 pop	 edi
  0037c	5e		 pop	 esi
  0037d	5b		 pop	 ebx
  0037e	8b e5		 mov	 esp, ebp
  00380	5d		 pop	 ebp
  00381	c2 08 00	 ret	 8
$LN60@SetSize:
; File C:\Program Files (x86)\Windows Kits\10\Include\10.0.22000.0\ucrt\corecrt_memcpy_s.h

; 52   :         if (_Source == NULL || _DestinationSize < _SourceSize)

  00384	8b 45 08	 mov	 eax, DWORD PTR __S1max$1$[ebp]
  00387	85 d2		 test	 edx, edx
  00389	74 16		 je	 SHORT $LN62@SetSize
  0038b	3b c1		 cmp	 eax, ecx
  0038d	72 12		 jb	 SHORT $LN62@SetSize

; 58   : 
; 59   :             // Unreachable, but required to suppress /analyze warnings:
; 60   :             return EINVAL;
; 61   :         }
; 62   :         memcpy(_Destination, _Source, _SourceSize);

  0038f	51		 push	 ecx
  00390	52		 push	 edx
  00391	56		 push	 esi
  00392	e8 00 00 00 00	 call	 _memcpy
  00397	83 c4 0c	 add	 esp, 12			; 0000000cH

; 63   :         return 0;

  0039a	33 c0		 xor	 eax, eax
  0039c	e9 3c ff ff ff	 jmp	 $LN58@SetSize
$LN62@SetSize:

; 53   :         {
; 54   :             memset(_Destination, 0, _DestinationSize);

  003a1	50		 push	 eax
  003a2	6a 00		 push	 0
  003a4	56		 push	 esi
  003a5	e8 00 00 00 00	 call	 _memset
  003aa	83 c4 0c	 add	 esp, 12			; 0000000cH

; 55   : 
; 56   :             _CRT_MEMCPY_S_VALIDATE_RETURN_ERRCODE(_Source != NULL,                 EINVAL);

  003ad	83 7d f8 00	 cmp	 DWORD PTR __S2$1$[ebp], 0
  003b1	0f 84 0f ff ff
	ff		 je	 $LN94@SetSize

; 57   :             _CRT_MEMCPY_S_VALIDATE_RETURN_ERRCODE(_DestinationSize >= _SourceSize, ERANGE);

  003b7	8b 45 f4	 mov	 eax, DWORD PTR __N$1$[ebp]
  003ba	39 45 08	 cmp	 DWORD PTR __S1max$1$[ebp], eax
  003bd	0f 83 15 ff ff
	ff		 jae	 $LN64@SetSize
  003c3	ff 15 00 00 00
	00		 call	 DWORD PTR __imp___errno
  003c9	c7 00 22 00 00
	00		 mov	 DWORD PTR [eax], 34	; 00000022H
  003cf	ff 15 00 00 00
	00		 call	 DWORD PTR __imp___invalid_parameter_noinfo
  003d5	b8 22 00 00 00	 mov	 eax, 34			; 00000022H
  003da	e9 fe fe ff ff	 jmp	 $LN58@SetSize
$LN91@SetSize:
; File C:\Program Files (x86)\Microsoft Visual Studio\2019\Community\VC\Tools\MSVC\14.29.30133\atlmfc\include\afxtempl.h

; 449  : 			AfxThrowInvalidArgException();

  003df	e8 00 00 00 00	 call	 ?AfxThrowInvalidArgException@@YGXXZ ; AfxThrowInvalidArgException
$LN93@SetSize:
  003e4	cc		 int	 3
?SetSize@?$CArray@UST_DATAINDEX@@U1@@@QAEXHH@Z ENDP	; CArray<ST_DATAINDEX,ST_DATAINDEX>::SetSize
_TEXT	ENDS
; Function compile flags: /Ogtp
; File C:\Program Files (x86)\Microsoft Visual Studio\2019\Community\VC\Tools\MSVC\14.29.30133\atlmfc\include\afxtempl.h
;	COMDAT ??0?$CArray@UST_DATAINDEX@@U1@@@QAE@XZ
_TEXT	SEGMENT
??0?$CArray@UST_DATAINDEX@@U1@@@QAE@XZ PROC		; CArray<ST_DATAINDEX,ST_DATAINDEX>::CArray<ST_DATAINDEX,ST_DATAINDEX>, COMDAT
; _this$ = ecx

; 348  : {

  00000	c7 01 00 00 00
	00		 mov	 DWORD PTR [ecx], OFFSET ??_7?$CArray@UST_DATAINDEX@@U1@@@6B@

; 349  : 	m_pData = NULL;
; 350  : 	m_nSize = m_nMaxSize = m_nGrowBy = 0;
; 351  : }

  00006	8b c1		 mov	 eax, ecx
  00008	c7 41 04 00 00
	00 00		 mov	 DWORD PTR [ecx+4], 0
  0000f	c7 41 10 00 00
	00 00		 mov	 DWORD PTR [ecx+16], 0
  00016	c7 41 0c 00 00
	00 00		 mov	 DWORD PTR [ecx+12], 0
  0001d	c7 41 08 00 00
	00 00		 mov	 DWORD PTR [ecx+8], 0
  00024	c3		 ret	 0
??0?$CArray@UST_DATAINDEX@@U1@@@QAE@XZ ENDP		; CArray<ST_DATAINDEX,ST_DATAINDEX>::CArray<ST_DATAINDEX,ST_DATAINDEX>
_TEXT	ENDS
; Function compile flags: /Ogtp
; File C:\Program Files (x86)\Microsoft Visual Studio\2019\Community\VC\Tools\MSVC\14.29.30133\atlmfc\include\afxtempl.h
; File C:\Program Files (x86)\Microsoft Visual Studio\2019\Community\VC\Tools\MSVC\14.29.30133\atlmfc\include\afx.inl
;	COMDAT ??_G?$CArray@PAVCDlgInterface@@PAV1@@@UAEPAXI@Z
_TEXT	SEGMENT
___flags$ = 8						; size = 4
??_G?$CArray@PAVCDlgInterface@@PAV1@@@UAEPAXI@Z PROC	; CArray<CDlgInterface *,CDlgInterface *>::`scalar deleting destructor', COMDAT
; _this$ = ecx
  00000	55		 push	 ebp
  00001	8b ec		 mov	 ebp, esp
; File C:\Program Files (x86)\Microsoft Visual Studio\2019\Community\VC\Tools\MSVC\14.29.30133\atlmfc\include\afxtempl.h

; 355  : {

  00003	56		 push	 esi
  00004	8b f1		 mov	 esi, ecx

; 356  : 	ASSERT_VALID(this);
; 357  : 
; 358  : 	if (m_pData != NULL)

  00006	8b 46 04	 mov	 eax, DWORD PTR [esi+4]
  00009	c7 06 00 00 00
	00		 mov	 DWORD PTR [esi], OFFSET ??_7?$CArray@PAVCDlgInterface@@PAV1@@@6B@
  0000f	85 c0		 test	 eax, eax
  00011	74 09		 je	 SHORT $LN11@scalar

; 359  : 	{
; 360  : 		for( int i = 0; i < m_nSize; i++ )
; 361  : 			(m_pData + i)->~TYPE();
; 362  : 		delete[] (BYTE*)m_pData;

  00013	50		 push	 eax
  00014	e8 00 00 00 00	 call	 ??_V@YAXPAX@Z		; operator delete[]
  00019	83 c4 04	 add	 esp, 4
$LN11@scalar:
  0001c	8b 45 08	 mov	 eax, DWORD PTR ___flags$[ebp]
  0001f	a8 01		 test	 al, 1
  00021	74 1f		 je	 SHORT $LN20@scalar
  00023	a8 04		 test	 al, 4
  00025	75 10		 jne	 SHORT $LN3@scalar
; File C:\Program Files (x86)\Microsoft Visual Studio\2019\Community\VC\Tools\MSVC\14.29.30133\atlmfc\include\afx.inl

; 112  : 	{ ::operator delete(p); }

  00027	56		 push	 esi
  00028	e8 00 00 00 00	 call	 ??3@YAXPAX@Z		; operator delete
  0002d	83 c4 04	 add	 esp, 4
  00030	8b c6		 mov	 eax, esi
  00032	5e		 pop	 esi
  00033	5d		 pop	 ebp
  00034	c2 04 00	 ret	 4
$LN3@scalar:
  00037	6a 14		 push	 20			; 00000014H
  00039	56		 push	 esi
  0003a	e8 00 00 00 00	 call	 ?__global_delete@@YAXPAXI@Z ; __global_delete
  0003f	83 c4 08	 add	 esp, 8
$LN20@scalar:
  00042	8b c6		 mov	 eax, esi
  00044	5e		 pop	 esi
  00045	5d		 pop	 ebp
  00046	c2 04 00	 ret	 4
??_G?$CArray@PAVCDlgInterface@@PAV1@@@UAEPAXI@Z ENDP	; CArray<CDlgInterface *,CDlgInterface *>::`scalar deleting destructor'
_TEXT	ENDS
; Function compile flags: /Ogtp
; File C:\Program Files (x86)\Microsoft Visual Studio\2019\Community\VC\Tools\MSVC\14.29.30133\atlmfc\include\afxtempl.h
; File C:\Program Files (x86)\Microsoft Visual Studio\2019\Community\VC\Tools\MSVC\14.29.30133\atlmfc\include\afx.inl
; File C:\Program Files (x86)\Microsoft Visual Studio\2019\Community\VC\Tools\MSVC\14.29.30133\atlmfc\include\afxtempl.h
; File C:\Program Files (x86)\Microsoft Visual Studio\2019\Community\VC\Tools\MSVC\14.29.30133\atlmfc\include\afx.inl
; File C:\Program Files (x86)\Microsoft Visual Studio\2019\Community\VC\Tools\MSVC\14.29.30133\atlmfc\include\afxtempl.h
; File C:\Program Files (x86)\Microsoft Visual Studio\2019\Community\VC\Tools\MSVC\14.29.30133\atlmfc\include\afx.inl
; File C:\Program Files (x86)\Microsoft Visual Studio\2019\Community\VC\Tools\MSVC\14.29.30133\atlmfc\include\afxtempl.h
; File C:\Program Files (x86)\Microsoft Visual Studio\2019\Community\VC\Tools\MSVC\14.29.30133\atlmfc\include\afx.inl
; File C:\Program Files (x86)\Microsoft Visual Studio\2019\Community\VC\Tools\MSVC\14.29.30133\atlmfc\include\afxtempl.h
;	COMDAT ?Serialize@?$CArray@PAVCDlgInterface@@PAV1@@@UAEXAAVCArchive@@@Z
_TEXT	SEGMENT
_pData$1$ = -4						; size = 4
_ar$ = 8						; size = 4
?Serialize@?$CArray@PAVCDlgInterface@@PAV1@@@UAEXAAVCArchive@@@Z PROC ; CArray<CDlgInterface *,CDlgInterface *>::Serialize, COMDAT
; _this$ = ecx

; 633  : {

  00000	55		 push	 ebp
  00001	8b ec		 mov	 ebp, esp
  00003	51		 push	 ecx
  00004	53		 push	 ebx
  00005	56		 push	 esi
  00006	57		 push	 edi
  00007	8b f9		 mov	 edi, ecx
; File C:\Program Files (x86)\Microsoft Visual Studio\2019\Community\VC\Tools\MSVC\14.29.30133\atlmfc\include\afx.inl

; 212  : 	{ return (m_nMode & CArchive::load) == 0; }

  00009	8b 4d 08	 mov	 ecx, DWORD PTR _ar$[ebp]
  0000c	8b 41 18	 mov	 eax, DWORD PTR [ecx+24]
  0000f	f7 d0		 not	 eax
  00011	a8 01		 test	 al, 1
; File C:\Program Files (x86)\Microsoft Visual Studio\2019\Community\VC\Tools\MSVC\14.29.30133\atlmfc\include\afxtempl.h

; 637  : 	if (ar.IsStoring())

  00013	74 0a		 je	 SHORT $LN2@Serialize

; 638  : 	{
; 639  : 		ar.WriteCount(m_nSize);

  00015	ff 77 08	 push	 DWORD PTR [edi+8]
  00018	e8 00 00 00 00	 call	 ?WriteCount@CArchive@@QAEXK@Z ; CArchive::WriteCount

; 640  : 	}

  0001d	eb 0f		 jmp	 SHORT $LN3@Serialize
$LN2@Serialize:

; 641  : 	else
; 642  : 	{
; 643  : 		DWORD_PTR nOldSize = ar.ReadCount();

  0001f	e8 00 00 00 00	 call	 ?ReadCount@CArchive@@QAEKXZ ; CArchive::ReadCount

; 644  : 		SetSize(nOldSize, -1);

  00024	6a ff		 push	 -1
  00026	50		 push	 eax
  00027	8b cf		 mov	 ecx, edi
  00029	e8 00 00 00 00	 call	 ?SetSize@?$CArray@PAVCDlgInterface@@PAV1@@@QAEXHH@Z ; CArray<CDlgInterface *,CDlgInterface *>::SetSize
$LN3@Serialize:

; 645  : 	}
; 646  : 	SerializeElements<TYPE>(ar, m_pData, m_nSize);

  0002e	8b 77 08	 mov	 esi, DWORD PTR [edi+8]
  00031	8b 4f 04	 mov	 ecx, DWORD PTR [edi+4]
  00034	89 4d fc	 mov	 DWORD PTR _pData$1$[ebp], ecx

; 68   : 	ENSURE(nCount == 0 || pElements != NULL);

  00037	85 f6		 test	 esi, esi
  00039	74 08		 je	 SHORT $LN8@Serialize
  0003b	85 c9		 test	 ecx, ecx
  0003d	0f 84 8c 00 00
	00		 je	 $LN40@Serialize
$LN8@Serialize:
; File C:\Program Files (x86)\Microsoft Visual Studio\2019\Community\VC\Tools\MSVC\14.29.30133\atlmfc\include\afx.inl

; 212  : 	{ return (m_nMode & CArchive::load) == 0; }

  00043	8b 55 08	 mov	 edx, DWORD PTR _ar$[ebp]
  00046	8b 42 18	 mov	 eax, DWORD PTR [edx+24]
  00049	f7 d0		 not	 eax
  0004b	a8 01		 test	 al, 1
; File C:\Program Files (x86)\Microsoft Visual Studio\2019\Community\VC\Tools\MSVC\14.29.30133\atlmfc\include\afxtempl.h

; 73   : 	if (ar.IsStoring())

  0004d	74 36		 je	 SHORT $LN16@Serialize

; 74   : 	{
; 75   : 		TYPE* pData;
; 76   : 		UINT_PTR nElementsLeft;
; 77   : 
; 78   : 		nElementsLeft = nCount;
; 79   : 		pData = pElements;
; 80   : 		while( nElementsLeft > 0 )

  0004f	85 f6		 test	 esi, esi
  00051	74 29		 je	 SHORT $LN14@Serialize
$LL11@Serialize:

; 81   : 		{
; 82   : 			UINT nElementsToWrite;
; 83   : 
; 84   : 			nElementsToWrite = UINT(__min(nElementsLeft, INT_MAX/sizeof(TYPE)));

  00053	bb ff ff ff 1f	 mov	 ebx, 536870911		; 1fffffffH
  00058	3b f3		 cmp	 esi, ebx
  0005a	0f 42 de	 cmovb	 ebx, esi

; 85   : 			ar.Write(pData, nElementsToWrite*sizeof(TYPE));

  0005d	8d 3c 9d 00 00
	00 00		 lea	 edi, DWORD PTR [ebx*4]
  00064	57		 push	 edi
  00065	51		 push	 ecx
  00066	8b ca		 mov	 ecx, edx
  00068	e8 00 00 00 00	 call	 ?Write@CArchive@@QAEXPBXI@Z ; CArchive::Write

; 86   : 			nElementsLeft -= nElementsToWrite;
; 87   : 			pData += nElementsToWrite;

  0006d	8b 4d fc	 mov	 ecx, DWORD PTR _pData$1$[ebp]
  00070	8b 55 08	 mov	 edx, DWORD PTR _ar$[ebp]
  00073	03 cf		 add	 ecx, edi
  00075	89 4d fc	 mov	 DWORD PTR _pData$1$[ebp], ecx
  00078	2b f3		 sub	 esi, ebx
  0007a	75 d7		 jne	 SHORT $LL11@Serialize
$LN14@Serialize:
  0007c	5f		 pop	 edi

; 647  : }

  0007d	5e		 pop	 esi
  0007e	5b		 pop	 ebx
  0007f	8b e5		 mov	 esp, ebp
  00081	5d		 pop	 ebp
  00082	c2 04 00	 ret	 4
$LN16@Serialize:

; 97   : 		while( nElementsLeft > 0 )

  00085	85 f6		 test	 esi, esi
  00087	74 f3		 je	 SHORT $LN14@Serialize
  00089	0f 1f 80 00 00
	00 00		 npad	 7
$LL13@Serialize:

; 98   : 		{
; 99   : 			UINT nElementsToRead;
; 100  : 
; 101  : 			nElementsToRead = UINT(__min(nElementsLeft, INT_MAX/sizeof(TYPE)));

  00090	bf ff ff ff 1f	 mov	 edi, 536870911		; 1fffffffH
  00095	3b f7		 cmp	 esi, edi
  00097	0f 42 fe	 cmovb	 edi, esi

; 102  : 			ar.EnsureRead(pData, nElementsToRead*sizeof(TYPE));

  0009a	8d 1c bd 00 00
	00 00		 lea	 ebx, DWORD PTR [edi*4]
; File C:\Program Files (x86)\Microsoft Visual Studio\2019\Community\VC\Tools\MSVC\14.29.30133\atlmfc\include\afx.inl

; 399  : 	UINT nRead=Read(lpBuf, nCount);

  000a1	53		 push	 ebx
  000a2	51		 push	 ecx
  000a3	8b ca		 mov	 ecx, edx
  000a5	e8 00 00 00 00	 call	 ?Read@CArchive@@QAEIPAXI@Z ; CArchive::Read

; 400  : 	if(nRead!=nCount)

  000aa	3b c3		 cmp	 eax, ebx
  000ac	75 18		 jne	 SHORT $LN30@Serialize
; File C:\Program Files (x86)\Microsoft Visual Studio\2019\Community\VC\Tools\MSVC\14.29.30133\atlmfc\include\afxtempl.h

; 97   : 		while( nElementsLeft > 0 )

  000ae	8b 4d fc	 mov	 ecx, DWORD PTR _pData$1$[ebp]
  000b1	8b 55 08	 mov	 edx, DWORD PTR _ar$[ebp]

; 103  : 			nElementsLeft -= nElementsToRead;
; 104  : 			pData += nElementsToRead;

  000b4	03 cb		 add	 ecx, ebx
  000b6	89 4d fc	 mov	 DWORD PTR _pData$1$[ebp], ecx
  000b9	2b f7		 sub	 esi, edi
  000bb	75 d3		 jne	 SHORT $LL13@Serialize

; 647  : }

  000bd	5f		 pop	 edi
  000be	5e		 pop	 esi
  000bf	5b		 pop	 ebx
  000c0	8b e5		 mov	 esp, ebp
  000c2	5d		 pop	 ebp
  000c3	c2 04 00	 ret	 4
$LN30@Serialize:
; File C:\Program Files (x86)\Microsoft Visual Studio\2019\Community\VC\Tools\MSVC\14.29.30133\atlmfc\include\afx.inl

; 402  : 		AfxThrowArchiveException(CArchiveException::endOfFile);

  000c6	6a 00		 push	 0
  000c8	6a 03		 push	 3
  000ca	e8 00 00 00 00	 call	 ?AfxThrowArchiveException@@YGXHPBD@Z ; AfxThrowArchiveException
$LN40@Serialize:
; File C:\Program Files (x86)\Microsoft Visual Studio\2019\Community\VC\Tools\MSVC\14.29.30133\atlmfc\include\afxtempl.h

; 68   : 	ENSURE(nCount == 0 || pElements != NULL);

  000cf	e8 00 00 00 00	 call	 ?AfxThrowInvalidArgException@@YGXXZ ; AfxThrowInvalidArgException
$LN38@Serialize:
  000d4	cc		 int	 3
?Serialize@?$CArray@PAVCDlgInterface@@PAV1@@@UAEXAAVCArchive@@@Z ENDP ; CArray<CDlgInterface *,CDlgInterface *>::Serialize
_TEXT	ENDS
; Function compile flags: /Ogtp
; File C:\Program Files (x86)\Microsoft Visual Studio\2019\Community\VC\Tools\MSVC\14.29.30133\atlmfc\include\afxtempl.h
;	COMDAT ??1?$CArray@PAVCDlgInterface@@PAV1@@@UAE@XZ
_TEXT	SEGMENT
??1?$CArray@PAVCDlgInterface@@PAV1@@@UAE@XZ PROC	; CArray<CDlgInterface *,CDlgInterface *>::~CArray<CDlgInterface *,CDlgInterface *>, COMDAT
; _this$ = ecx

; 356  : 	ASSERT_VALID(this);
; 357  : 
; 358  : 	if (m_pData != NULL)

  00000	8b 41 04	 mov	 eax, DWORD PTR [ecx+4]
  00003	c7 01 00 00 00
	00		 mov	 DWORD PTR [ecx], OFFSET ??_7?$CArray@PAVCDlgInterface@@PAV1@@@6B@
  00009	85 c0		 test	 eax, eax
  0000b	74 07		 je	 SHORT $LN5@CArray

; 359  : 	{
; 360  : 		for( int i = 0; i < m_nSize; i++ )
; 361  : 			(m_pData + i)->~TYPE();
; 362  : 		delete[] (BYTE*)m_pData;

  0000d	50		 push	 eax
  0000e	e8 00 00 00 00	 call	 ??_V@YAXPAX@Z		; operator delete[]
  00013	59		 pop	 ecx
$LN5@CArray:

; 363  : 	}
; 364  : }

  00014	c3		 ret	 0
??1?$CArray@PAVCDlgInterface@@PAV1@@@UAE@XZ ENDP	; CArray<CDlgInterface *,CDlgInterface *>::~CArray<CDlgInterface *,CDlgInterface *>
_TEXT	ENDS
; Function compile flags: /Ogtp
; File C:\Program Files (x86)\Microsoft Visual Studio\2019\Community\VC\Tools\MSVC\14.29.30133\atlmfc\include\afxtempl.h
;	COMDAT ?SetAtGrow@?$CArray@PAVCDlgInterface@@PAV1@@@QAEXHPAVCDlgInterface@@@Z
_TEXT	SEGMENT
_nIndex$ = 8						; size = 4
_newElement$ = 12					; size = 4
?SetAtGrow@?$CArray@PAVCDlgInterface@@PAV1@@@QAEXHPAVCDlgInterface@@@Z PROC ; CArray<CDlgInterface *,CDlgInterface *>::SetAtGrow, COMDAT
; _this$ = ecx

; 534  : {

  00000	55		 push	 ebp
  00001	8b ec		 mov	 ebp, esp
  00003	56		 push	 esi

; 535  : 	ASSERT_VALID(this);
; 536  : 	ASSERT(nIndex >= 0);
; 537  : 
; 538  : 	if(nIndex < 0)

  00004	8b 75 08	 mov	 esi, DWORD PTR _nIndex$[ebp]
  00007	57		 push	 edi
  00008	8b f9		 mov	 edi, ecx
  0000a	85 f6		 test	 esi, esi
  0000c	78 1f		 js	 SHORT $LN7@SetAtGrow

; 540  : 
; 541  : 	if (nIndex >= m_nSize)

  0000e	3b 77 08	 cmp	 esi, DWORD PTR [edi+8]
  00011	7c 0b		 jl	 SHORT $LN3@SetAtGrow

; 542  : 		SetSize(nIndex+1, -1);

  00013	6a ff		 push	 -1
  00015	8d 46 01	 lea	 eax, DWORD PTR [esi+1]
  00018	50		 push	 eax
  00019	e8 00 00 00 00	 call	 ?SetSize@?$CArray@PAVCDlgInterface@@PAV1@@@QAEXHH@Z ; CArray<CDlgInterface *,CDlgInterface *>::SetSize
$LN3@SetAtGrow:

; 543  : 	m_pData[nIndex] = newElement;

  0001e	8b 4f 04	 mov	 ecx, DWORD PTR [edi+4]
  00021	8b 45 0c	 mov	 eax, DWORD PTR _newElement$[ebp]
  00024	5f		 pop	 edi
  00025	89 04 b1	 mov	 DWORD PTR [ecx+esi*4], eax
  00028	5e		 pop	 esi

; 544  : }

  00029	5d		 pop	 ebp
  0002a	c2 08 00	 ret	 8
$LN7@SetAtGrow:

; 539  : 		AfxThrowInvalidArgException();

  0002d	e8 00 00 00 00	 call	 ?AfxThrowInvalidArgException@@YGXXZ ; AfxThrowInvalidArgException
$LN5@SetAtGrow:
  00032	cc		 int	 3
?SetAtGrow@?$CArray@PAVCDlgInterface@@PAV1@@@QAEXHPAVCDlgInterface@@@Z ENDP ; CArray<CDlgInterface *,CDlgInterface *>::SetAtGrow
_TEXT	ENDS
; Function compile flags: /Ogtp
; File C:\Program Files (x86)\Microsoft Visual Studio\2019\Community\VC\Tools\MSVC\14.29.30133\atlmfc\include\afxtempl.h
; File C:\Program Files (x86)\Windows Kits\10\Include\10.0.22000.0\ucrt\corecrt_memcpy_s.h
; File C:\Program Files (x86)\Microsoft Visual Studio\2019\Community\VC\Tools\MSVC\14.29.30133\atlmfc\include\atlchecked.h
; File C:\Program Files (x86)\Microsoft Visual Studio\2019\Community\VC\Tools\MSVC\14.29.30133\atlmfc\include\afxtempl.h
; File C:\Program Files (x86)\Windows Kits\10\Include\10.0.22000.0\ucrt\corecrt_memcpy_s.h
; File C:\Program Files (x86)\Microsoft Visual Studio\2019\Community\VC\Tools\MSVC\14.29.30133\atlmfc\include\atlchecked.h
; File C:\Program Files (x86)\Windows Kits\10\Include\10.0.22000.0\ucrt\corecrt_memcpy_s.h
; File C:\Program Files (x86)\Microsoft Visual Studio\2019\Community\VC\Tools\MSVC\14.29.30133\atlmfc\include\afxtempl.h
;	COMDAT ?SetSize@?$CArray@PAVCDlgInterface@@PAV1@@@QAEXHH@Z
_TEXT	SEGMENT
__N$1$ = -4						; size = 4
__S2$1$ = 8						; size = 4
_nNewSize$ = 8						; size = 4
_pNewData$1$ = 12					; size = 4
_nGrowBy$ = 12						; size = 4
?SetSize@?$CArray@PAVCDlgInterface@@PAV1@@@QAEXHH@Z PROC ; CArray<CDlgInterface *,CDlgInterface *>::SetSize, COMDAT
; _this$ = ecx

; 368  : {

  00000	55		 push	 ebp
  00001	8b ec		 mov	 ebp, esp
  00003	51		 push	 ecx
  00004	53		 push	 ebx
  00005	56		 push	 esi

; 369  : 	ASSERT_VALID(this);
; 370  : 	ASSERT(nNewSize >= 0);
; 371  : 
; 372  : 	if(nNewSize < 0 )

  00006	8b 75 08	 mov	 esi, DWORD PTR _nNewSize$[ebp]
  00009	8b d9		 mov	 ebx, ecx
  0000b	57		 push	 edi
  0000c	85 f6		 test	 esi, esi
  0000e	0f 88 c2 01 00
	00		 js	 $LN70@SetSize

; 373  : 		AfxThrowInvalidArgException();
; 374  : 
; 375  : 	if (nGrowBy >= 0)

  00014	8b 45 0c	 mov	 eax, DWORD PTR _nGrowBy$[ebp]
  00017	85 c0		 test	 eax, eax
  00019	78 03		 js	 SHORT $LN69@SetSize

; 376  : 		m_nGrowBy = nGrowBy;  // set new size

  0001b	89 43 10	 mov	 DWORD PTR [ebx+16], eax
$LN69@SetSize:

; 377  : 
; 378  : 	if (nNewSize == 0)

  0001e	8b 4b 04	 mov	 ecx, DWORD PTR [ebx+4]
  00021	85 f6		 test	 esi, esi
  00023	75 27		 jne	 SHORT $LN19@SetSize

; 379  : 	{
; 380  : 		// shrink to nothing
; 381  : 		if (m_pData != NULL)

  00025	85 c9		 test	 ecx, ecx
  00027	74 0c		 je	 SHORT $LN21@SetSize

; 382  : 		{
; 383  : 			for( int i = 0; i < m_nSize; i++ )
; 384  : 				(m_pData + i)->~TYPE();
; 385  : 			delete[] (BYTE*)m_pData;

  00029	51		 push	 ecx
  0002a	e8 00 00 00 00	 call	 ??_V@YAXPAX@Z		; operator delete[]
  0002f	83 c4 04	 add	 esp, 4

; 386  : 			m_pData = NULL;

  00032	89 73 04	 mov	 DWORD PTR [ebx+4], esi
$LN21@SetSize:

; 472  : 		m_nSize = nNewSize;
; 473  : 		m_nMaxSize = nNewMax;
; 474  : 	}
; 475  : }

  00035	5f		 pop	 edi
  00036	5e		 pop	 esi
  00037	c7 43 0c 00 00
	00 00		 mov	 DWORD PTR [ebx+12], 0
  0003e	c7 43 08 00 00
	00 00		 mov	 DWORD PTR [ebx+8], 0
  00045	5b		 pop	 ebx
  00046	8b e5		 mov	 esp, ebp
  00048	5d		 pop	 ebp
  00049	c2 08 00	 ret	 8
$LN19@SetSize:

; 387  : 		}
; 388  : 		m_nSize = m_nMaxSize = 0;
; 389  : 	}
; 390  : 	else if (m_pData == NULL)

  0004c	85 c9		 test	 ecx, ecx
  0004e	75 36		 jne	 SHORT $LN22@SetSize

; 391  : 	{
; 392  : 		// create buffer big enough to hold number of requested elements or
; 393  : 		// m_nGrowBy elements, whichever is larger.
; 394  : #ifdef SIZE_T_MAX
; 395  : 		ASSERT(nNewSize <= SIZE_T_MAX/sizeof(TYPE));    // no overflow
; 396  : #endif
; 397  : 		size_t nAllocSize = __max(nNewSize, m_nGrowBy);

  00050	8b 7b 10	 mov	 edi, DWORD PTR [ebx+16]
  00053	3b f7		 cmp	 esi, edi
  00055	0f 4f fe	 cmovg	 edi, esi

; 398  : 		m_pData = (TYPE*) new BYTE[(size_t)nAllocSize * sizeof(TYPE)];

  00058	8d 34 bd 00 00
	00 00		 lea	 esi, DWORD PTR [edi*4]
  0005f	56		 push	 esi
  00060	e8 00 00 00 00	 call	 ??_U@YAPAXI@Z		; operator new[]

; 399  : 		memset((void*)m_pData, 0, (size_t)nAllocSize * sizeof(TYPE));

  00065	56		 push	 esi
  00066	6a 00		 push	 0
  00068	50		 push	 eax
  00069	89 43 04	 mov	 DWORD PTR [ebx+4], eax
  0006c	e8 00 00 00 00	 call	 _memset

; 400  : 		for( int i = 0; i < nNewSize; i++ )
; 401  : #pragma push_macro("new")
; 402  : #undef new
; 403  : 			::new( (void*)( m_pData + i ) ) TYPE;
; 404  : #pragma pop_macro("new")
; 405  : 		m_nSize = nNewSize;

  00071	8b 45 08	 mov	 eax, DWORD PTR _nNewSize$[ebp]
  00074	83 c4 10	 add	 esp, 16			; 00000010H

; 472  : 		m_nSize = nNewSize;
; 473  : 		m_nMaxSize = nNewMax;
; 474  : 	}
; 475  : }

  00077	89 7b 0c	 mov	 DWORD PTR [ebx+12], edi
  0007a	89 43 08	 mov	 DWORD PTR [ebx+8], eax
  0007d	5f		 pop	 edi
  0007e	5e		 pop	 esi
  0007f	5b		 pop	 ebx
  00080	8b e5		 mov	 esp, ebp
  00082	5d		 pop	 ebp
  00083	c2 08 00	 ret	 8
$LN22@SetSize:

; 406  : 		m_nMaxSize = nAllocSize;
; 407  : 	}
; 408  : 	else if (nNewSize <= m_nMaxSize)

  00086	8b 7b 0c	 mov	 edi, DWORD PTR [ebx+12]
  00089	3b f7		 cmp	 esi, edi
  0008b	7f 29		 jg	 SHORT $LN24@SetSize

; 409  : 	{
; 410  : 		// it fits
; 411  : 		if (nNewSize > m_nSize)

  0008d	8b 53 08	 mov	 edx, DWORD PTR [ebx+8]
  00090	3b f2		 cmp	 esi, edx
  00092	7e 16		 jle	 SHORT $LN26@SetSize

; 412  : 		{
; 413  : 			// initialize the new elements
; 414  : 			memset((void*)(m_pData + m_nSize), 0, (size_t)(nNewSize-m_nSize) * sizeof(TYPE));

  00094	8b c6		 mov	 eax, esi
  00096	2b c2		 sub	 eax, edx
  00098	c1 e0 02	 shl	 eax, 2
  0009b	50		 push	 eax
  0009c	8d 04 91	 lea	 eax, DWORD PTR [ecx+edx*4]
  0009f	6a 00		 push	 0
  000a1	50		 push	 eax
  000a2	e8 00 00 00 00	 call	 _memset
  000a7	83 c4 0c	 add	 esp, 12			; 0000000cH
$LN26@SetSize:

; 415  : 			for( int i = 0; i < nNewSize-m_nSize; i++ )
; 416  : #pragma push_macro("new")
; 417  : #undef new
; 418  : 				::new( (void*)( m_pData + m_nSize + i ) ) TYPE;
; 419  : #pragma pop_macro("new")
; 420  : 		}
; 421  : 		else if (m_nSize > nNewSize)
; 422  : 		{
; 423  : 			// destroy the old elements
; 424  : 			for( int i = 0; i < m_nSize-nNewSize; i++ )
; 425  : 				(m_pData + nNewSize + i)->~TYPE();
; 426  : 		}
; 427  : 		m_nSize = nNewSize;

  000aa	5f		 pop	 edi
  000ab	89 73 08	 mov	 DWORD PTR [ebx+8], esi

; 472  : 		m_nSize = nNewSize;
; 473  : 		m_nMaxSize = nNewMax;
; 474  : 	}
; 475  : }

  000ae	5e		 pop	 esi
  000af	5b		 pop	 ebx
  000b0	8b e5		 mov	 esp, ebp
  000b2	5d		 pop	 ebp
  000b3	c2 08 00	 ret	 8
$LN24@SetSize:

; 428  : 	}
; 429  : 	else
; 430  : 	{
; 431  : 		// otherwise, grow array
; 432  : 		nGrowBy = m_nGrowBy;

  000b6	8b 43 10	 mov	 eax, DWORD PTR [ebx+16]

; 433  : 		if (nGrowBy == 0)

  000b9	85 c0		 test	 eax, eax
  000bb	75 22		 jne	 SHORT $LN37@SetSize

; 434  : 		{
; 435  : 			// heuristically determine growth when nGrowBy == 0
; 436  : 			//  (this avoids heap fragmentation in many situations)
; 437  : 			nGrowBy = m_nSize / 8;

  000bd	8b 43 08	 mov	 eax, DWORD PTR [ebx+8]
  000c0	99		 cdq
  000c1	83 e2 07	 and	 edx, 7
  000c4	03 c2		 add	 eax, edx
  000c6	c1 f8 03	 sar	 eax, 3

; 438  : 			nGrowBy = (nGrowBy < 4) ? 4 : ((nGrowBy > 1024) ? 1024 : nGrowBy);

  000c9	83 f8 04	 cmp	 eax, 4
  000cc	7d 07		 jge	 SHORT $LN36@SetSize
  000ce	b8 04 00 00 00	 mov	 eax, 4
  000d3	eb 0a		 jmp	 SHORT $LN37@SetSize
$LN36@SetSize:
  000d5	b9 00 04 00 00	 mov	 ecx, 1024		; 00000400H
  000da	3b c1		 cmp	 eax, ecx
  000dc	0f 4f c1	 cmovg	 eax, ecx
$LN37@SetSize:

; 439  : 		}
; 440  : 		INT_PTR nNewMax;
; 441  : 		if (nNewSize < m_nMaxSize + nGrowBy)

  000df	03 f8		 add	 edi, eax
  000e1	3b f7		 cmp	 esi, edi
  000e3	7d 0b		 jge	 SHORT $LN30@SetSize

; 445  : 
; 446  : 		ASSERT(nNewMax >= m_nMaxSize);  // no wrap around
; 447  : 
; 448  : 		if(nNewMax  < m_nMaxSize)

  000e5	3b 7b 0c	 cmp	 edi, DWORD PTR [ebx+12]
  000e8	0f 8c e8 00 00
	00		 jl	 $LN70@SetSize
  000ee	eb 02		 jmp	 SHORT $LN32@SetSize
$LN30@SetSize:

; 442  : 			nNewMax = m_nMaxSize + nGrowBy;  // granularity
; 443  : 		else
; 444  : 			nNewMax = nNewSize;  // no slush

  000f0	8b fe		 mov	 edi, esi
$LN32@SetSize:

; 450  : 
; 451  : #ifdef SIZE_T_MAX
; 452  : 		ASSERT(nNewMax <= SIZE_T_MAX/sizeof(TYPE)); // no overflow
; 453  : #endif
; 454  : 		TYPE* pNewData = (TYPE*) new BYTE[(size_t)nNewMax * sizeof(TYPE)];

  000f2	8d 04 bd 00 00
	00 00		 lea	 eax, DWORD PTR [edi*4]
  000f9	50		 push	 eax
  000fa	e8 00 00 00 00	 call	 ??_U@YAPAXI@Z		; operator new[]

; 455  : 
; 456  : 		// copy new data from old
; 457  : 		::ATL::Checked::memcpy_s(pNewData, (size_t)nNewMax * sizeof(TYPE),

  000ff	8b 53 04	 mov	 edx, DWORD PTR [ebx+4]
  00102	8b c8		 mov	 ecx, eax
  00104	8b 43 08	 mov	 eax, DWORD PTR [ebx+8]
  00107	83 c4 04	 add	 esp, 4
  0010a	c1 e0 02	 shl	 eax, 2
  0010d	89 4d 0c	 mov	 DWORD PTR _pNewData$1$[ebp], ecx
  00110	89 45 fc	 mov	 DWORD PTR __N$1$[ebp], eax
  00113	89 55 08	 mov	 DWORD PTR __S2$1$[ebp], edx
; File C:\Program Files (x86)\Windows Kits\10\Include\10.0.22000.0\ucrt\corecrt_memcpy_s.h

; 46   :         if (_SourceSize == 0)

  00116	85 c0		 test	 eax, eax
  00118	74 76		 je	 SHORT $LN74@SetSize

; 47   :         {
; 48   :             return 0;
; 49   :         }
; 50   : 
; 51   :         _CRT_MEMCPY_S_VALIDATE_RETURN_ERRCODE(_Destination != NULL, EINVAL);

  0011a	85 c9		 test	 ecx, ecx
  0011c	75 56		 jne	 SHORT $LN42@SetSize
$LN73@SetSize:
; File C:\Program Files (x86)\Microsoft Visual Studio\2019\Community\VC\Tools\MSVC\14.29.30133\atlmfc\include\atlchecked.h

; 69   : 	ATLMFC_CRT_ERRORCHECK(::memcpy_s(_S1, _S1max, _S2, _N));

  0011e	ff 15 00 00 00
	00		 call	 DWORD PTR __imp___errno
  00124	c7 00 16 00 00
	00		 mov	 DWORD PTR [eax], 22	; 00000016H
  0012a	ff 15 00 00 00
	00		 call	 DWORD PTR __imp___invalid_parameter_noinfo
$LN46@SetSize:
  00130	b8 16 00 00 00	 mov	 eax, 22			; 00000016H
$LN40@SetSize:
  00135	50		 push	 eax
  00136	e8 00 00 00 00	 call	 ?AfxCrtErrorCheck@@YAHH@Z ; AfxCrtErrorCheck
; File C:\Program Files (x86)\Microsoft Visual Studio\2019\Community\VC\Tools\MSVC\14.29.30133\atlmfc\include\afxtempl.h

; 462  : 		memset((void*)(pNewData + m_nSize), 0, (size_t)(nNewSize-m_nSize) * sizeof(TYPE));

  0013b	8b 4b 08	 mov	 ecx, DWORD PTR [ebx+8]
  0013e	8b c6		 mov	 eax, esi
  00140	2b c1		 sub	 eax, ecx
  00142	c1 e0 02	 shl	 eax, 2
  00145	50		 push	 eax
  00146	8b 45 0c	 mov	 eax, DWORD PTR _pNewData$1$[ebp]
  00149	6a 00		 push	 0
  0014b	8d 04 88	 lea	 eax, DWORD PTR [eax+ecx*4]
  0014e	50		 push	 eax
  0014f	e8 00 00 00 00	 call	 _memset

; 463  : 		for( int i = 0; i < nNewSize-m_nSize; i++ )
; 464  : #pragma push_macro("new")
; 465  : #undef new
; 466  : 			::new( (void*)( pNewData + m_nSize + i ) ) TYPE;
; 467  : #pragma pop_macro("new")
; 468  : 
; 469  : 		// get rid of old stuff (note: no destructors called)
; 470  : 		delete[] (BYTE*)m_pData;

  00154	ff 73 04	 push	 DWORD PTR [ebx+4]
  00157	e8 00 00 00 00	 call	 ??_V@YAXPAX@Z		; operator delete[]

; 471  : 		m_pData = pNewData;

  0015c	8b 45 0c	 mov	 eax, DWORD PTR _pNewData$1$[ebp]
  0015f	83 c4 14	 add	 esp, 20			; 00000014H

; 472  : 		m_nSize = nNewSize;
; 473  : 		m_nMaxSize = nNewMax;
; 474  : 	}
; 475  : }

  00162	89 7b 0c	 mov	 DWORD PTR [ebx+12], edi
  00165	89 73 08	 mov	 DWORD PTR [ebx+8], esi
  00168	89 43 04	 mov	 DWORD PTR [ebx+4], eax
  0016b	5f		 pop	 edi
  0016c	5e		 pop	 esi
  0016d	5b		 pop	 ebx
  0016e	8b e5		 mov	 esp, ebp
  00170	5d		 pop	 ebp
  00171	c2 08 00	 ret	 8
$LN42@SetSize:
; File C:\Program Files (x86)\Windows Kits\10\Include\10.0.22000.0\ucrt\corecrt_memcpy_s.h

; 52   :         if (_Source == NULL || _DestinationSize < _SourceSize)

  00174	85 d2		 test	 edx, edx
  00176	8d 14 bd 00 00
	00 00		 lea	 edx, DWORD PTR [edi*4]
  0017d	74 15		 je	 SHORT $LN44@SetSize
  0017f	3b d0		 cmp	 edx, eax
  00181	72 11		 jb	 SHORT $LN44@SetSize

; 58   : 
; 59   :             // Unreachable, but required to suppress /analyze warnings:
; 60   :             return EINVAL;
; 61   :         }
; 62   :         memcpy(_Destination, _Source, _SourceSize);

  00183	50		 push	 eax
  00184	ff 75 08	 push	 DWORD PTR __S2$1$[ebp]
  00187	51		 push	 ecx
  00188	e8 00 00 00 00	 call	 _memcpy
  0018d	83 c4 0c	 add	 esp, 12			; 0000000cH
$LN74@SetSize:
; File C:\Program Files (x86)\Microsoft Visual Studio\2019\Community\VC\Tools\MSVC\14.29.30133\atlmfc\include\atlchecked.h

; 69   : 	ATLMFC_CRT_ERRORCHECK(::memcpy_s(_S1, _S1max, _S2, _N));

  00190	33 c0		 xor	 eax, eax
  00192	eb a1		 jmp	 SHORT $LN40@SetSize
$LN44@SetSize:
; File C:\Program Files (x86)\Windows Kits\10\Include\10.0.22000.0\ucrt\corecrt_memcpy_s.h

; 54   :             memset(_Destination, 0, _DestinationSize);

  00194	52		 push	 edx
  00195	6a 00		 push	 0
  00197	51		 push	 ecx
  00198	e8 00 00 00 00	 call	 _memset
  0019d	83 c4 0c	 add	 esp, 12			; 0000000cH

; 55   : 
; 56   :             _CRT_MEMCPY_S_VALIDATE_RETURN_ERRCODE(_Source != NULL,                 EINVAL);

  001a0	83 7d 08 00	 cmp	 DWORD PTR __S2$1$[ebp], 0
  001a4	0f 84 74 ff ff
	ff		 je	 $LN73@SetSize

; 57   :             _CRT_MEMCPY_S_VALIDATE_RETURN_ERRCODE(_DestinationSize >= _SourceSize, ERANGE);

  001aa	8d 04 bd 00 00
	00 00		 lea	 eax, DWORD PTR [edi*4]
  001b1	3b 45 fc	 cmp	 eax, DWORD PTR __N$1$[ebp]
  001b4	0f 83 76 ff ff
	ff		 jae	 $LN46@SetSize
  001ba	ff 15 00 00 00
	00		 call	 DWORD PTR __imp___errno
  001c0	c7 00 22 00 00
	00		 mov	 DWORD PTR [eax], 34	; 00000022H
  001c6	ff 15 00 00 00
	00		 call	 DWORD PTR __imp___invalid_parameter_noinfo
  001cc	b8 22 00 00 00	 mov	 eax, 34			; 00000022H
  001d1	e9 5f ff ff ff	 jmp	 $LN40@SetSize
$LN70@SetSize:
; File C:\Program Files (x86)\Microsoft Visual Studio\2019\Community\VC\Tools\MSVC\14.29.30133\atlmfc\include\afxtempl.h

; 449  : 			AfxThrowInvalidArgException();

  001d6	e8 00 00 00 00	 call	 ?AfxThrowInvalidArgException@@YGXXZ ; AfxThrowInvalidArgException
$LN72@SetSize:
  001db	cc		 int	 3
?SetSize@?$CArray@PAVCDlgInterface@@PAV1@@@QAEXHH@Z ENDP ; CArray<CDlgInterface *,CDlgInterface *>::SetSize
_TEXT	ENDS
; Function compile flags: /Ogtp
; File C:\Program Files (x86)\Microsoft Visual Studio\2019\Community\VC\Tools\MSVC\14.29.30133\atlmfc\include\afxtempl.h
;	COMDAT ??0?$CArray@PAVCDlgInterface@@PAV1@@@QAE@XZ
_TEXT	SEGMENT
??0?$CArray@PAVCDlgInterface@@PAV1@@@QAE@XZ PROC	; CArray<CDlgInterface *,CDlgInterface *>::CArray<CDlgInterface *,CDlgInterface *>, COMDAT
; _this$ = ecx

; 348  : {

  00000	c7 01 00 00 00
	00		 mov	 DWORD PTR [ecx], OFFSET ??_7?$CArray@PAVCDlgInterface@@PAV1@@@6B@

; 349  : 	m_pData = NULL;
; 350  : 	m_nSize = m_nMaxSize = m_nGrowBy = 0;
; 351  : }

  00006	8b c1		 mov	 eax, ecx
  00008	c7 41 04 00 00
	00 00		 mov	 DWORD PTR [ecx+4], 0
  0000f	c7 41 10 00 00
	00 00		 mov	 DWORD PTR [ecx+16], 0
  00016	c7 41 0c 00 00
	00 00		 mov	 DWORD PTR [ecx+12], 0
  0001d	c7 41 08 00 00
	00 00		 mov	 DWORD PTR [ecx+8], 0
  00024	c3		 ret	 0
??0?$CArray@PAVCDlgInterface@@PAV1@@@QAE@XZ ENDP	; CArray<CDlgInterface *,CDlgInterface *>::CArray<CDlgInterface *,CDlgInterface *>
_TEXT	ENDS
; Function compile flags: /Ogtp
; File D:\git\src\IBK\IBK_DRFN\ProjSrc\SrcDrfn\Chart\HWSTRATEGYANALYSIS\InfoRight.cpp
;	COMDAT ?GetMessageMap@CInfoRight@@MBEPBUAFX_MSGMAP@@XZ
_TEXT	SEGMENT
?GetMessageMap@CInfoRight@@MBEPBUAFX_MSGMAP@@XZ PROC	; CInfoRight::GetMessageMap, COMDAT
; _this$ = ecx

; 105  : BEGIN_MESSAGE_MAP(CInfoRight, CDialog)

  00000	b8 00 00 00 00	 mov	 eax, OFFSET ?messageMap@?1??GetThisMessageMap@CInfoRight@@KGPBUAFX_MSGMAP@@XZ@4U3@B
  00005	c3		 ret	 0
?GetMessageMap@CInfoRight@@MBEPBUAFX_MSGMAP@@XZ ENDP	; CInfoRight::GetMessageMap
_TEXT	ENDS
; Function compile flags: /Ogtp
; File D:\git\src\IBK\IBK_DRFN\ProjSrc\SrcDrfn\Chart\HWSTRATEGYANALYSIS\InfoRight.cpp
;	COMDAT ?GetThisMessageMap@CInfoRight@@KGPBUAFX_MSGMAP@@XZ
_TEXT	SEGMENT
?GetThisMessageMap@CInfoRight@@KGPBUAFX_MSGMAP@@XZ PROC	; CInfoRight::GetThisMessageMap, COMDAT

; 106  : 	//{{AFX_MSG_MAP(CInfoRight)
; 107  : 	ON_BN_CLICKED(IDC_BTN_SHOW, OnBtnShow)
; 108  : 	ON_WM_DESTROY()
; 109  : 	ON_WM_CTLCOLOR()
; 110  : 	ON_BN_CLICKED(IDC_BTN_EXPORTEXCEL, OnBtnExportExcel)
; 111  : 	//}}AFX_MSG_MAP
; 112  : 	ON_CBN_SELCHANGE(IDC_COMBO_DIVIDE, OnCbnSelchangeComboDivide)
; 113  : //	ON_NOTIFY(TCN_FOCUSCHANGE, IDC_TAB1, OnTcnFocusChangeTab1)
; 114  : ON_NOTIFY(NM_CLICK, IDC_TAB1, OnNMClickTab1)
; 115  : END_MESSAGE_MAP()

  00000	b8 00 00 00 00	 mov	 eax, OFFSET ?messageMap@?1??GetThisMessageMap@CInfoRight@@KGPBUAFX_MSGMAP@@XZ@4U3@B
  00005	c3		 ret	 0
?GetThisMessageMap@CInfoRight@@KGPBUAFX_MSGMAP@@XZ ENDP	; CInfoRight::GetThisMessageMap
_TEXT	ENDS
; Function compile flags: /Ogtp
; File D:\git\src\IBK\IBK_DRFN\ProjSrc\SrcDrfn\Chart\HWSTRATEGYANALYSIS\InfoRight.cpp
;	COMDAT ?GetEventSinkMap@CInfoRight@@MBEPBUAFX_EVENTSINKMAP@@XZ
_TEXT	SEGMENT
?GetEventSinkMap@CInfoRight@@MBEPBUAFX_EVENTSINKMAP@@XZ PROC ; CInfoRight::GetEventSinkMap, COMDAT
; _this$ = ecx

; 117  : BEGIN_EVENTSINK_MAP(CInfoRight, CDialog)

  00000	b8 00 00 00 00	 mov	 eax, OFFSET ?eventsinkMap@CInfoRight@@1UAFX_EVENTSINKMAP@@B ; CInfoRight::eventsinkMap
  00005	c3		 ret	 0
?GetEventSinkMap@CInfoRight@@MBEPBUAFX_EVENTSINKMAP@@XZ ENDP ; CInfoRight::GetEventSinkMap
_TEXT	ENDS
; Function compile flags: /Ogtp
; File D:\git\src\IBK\IBK_DRFN\ProjSrc\SrcDrfn\Chart\HWSTRATEGYANALYSIS\InfoRight.cpp
;	COMDAT ?GetThisEventSinkMap@CInfoRight@@KGPBUAFX_EVENTSINKMAP@@XZ
_TEXT	SEGMENT
?GetThisEventSinkMap@CInfoRight@@KGPBUAFX_EVENTSINKMAP@@XZ PROC ; CInfoRight::GetThisEventSinkMap, COMDAT

; 117  : BEGIN_EVENTSINK_MAP(CInfoRight, CDialog)

  00000	b8 00 00 00 00	 mov	 eax, OFFSET ?eventsinkMap@CInfoRight@@1UAFX_EVENTSINKMAP@@B ; CInfoRight::eventsinkMap
  00005	c3		 ret	 0
?GetThisEventSinkMap@CInfoRight@@KGPBUAFX_EVENTSINKMAP@@XZ ENDP ; CInfoRight::GetThisEventSinkMap
_TEXT	ENDS
; Function compile flags: /Ogtp
; File D:\git\src\IBK\IBK_DRFN\ProjSrc\SrcDrfn\Chart\HWSTRATEGYANALYSIS\InfoRight.cpp
;	COMDAT ?OnBtnExportExcel@CInfoRight@@IAEXXZ
_TEXT	SEGMENT
?OnBtnExportExcel@CInfoRight@@IAEXXZ PROC		; CInfoRight::OnBtnExportExcel, COMDAT
; _this$ = ecx

; 435  : 	// TODO: Add your control notification handler code here
; 436  : 	if(m_Trade)

  00000	8b 89 08 04 00
	00		 mov	 ecx, DWORD PTR [ecx+1032]
  00006	85 c9		 test	 ecx, ecx
  00008	0f 85 00 00 00
	00		 jne	 ?SetDataToExcel@CTabTrade@@QAEXXZ ; CTabTrade::SetDataToExcel

; 437  : 		m_Trade->SetDataToExcel();
; 438  : }

  0000e	c3		 ret	 0
?OnBtnExportExcel@CInfoRight@@IAEXXZ ENDP		; CInfoRight::OnBtnExportExcel
_TEXT	ENDS
; Function compile flags: /Ogtp
; File D:\git\src\IBK\IBK_DRFN\ProjSrc\SrcDrfn\Chart\HWSTRATEGYANALYSIS\InfoRight.cpp
;	COMDAT ?OnBtnResult@CInfoRight@@IAEXXZ
_TEXT	SEGMENT
?OnBtnResult@CInfoRight@@IAEXXZ PROC			; CInfoRight::OnBtnResult, COMDAT
; _this$ = ecx

; 395  : 	m_pDlgAnalysis->Result();

  00000	8b 89 30 04 00
	00		 mov	 ecx, DWORD PTR [ecx+1072]
  00006	e9 00 00 00 00	 jmp	 ?Result@CDlgAnalysis@@QAEXXZ ; CDlgAnalysis::Result
?OnBtnResult@CInfoRight@@IAEXXZ ENDP			; CInfoRight::OnBtnResult
_TEXT	ENDS
; Function compile flags: /Ogtp
; File D:\git\src\IBK\IBK_DRFN\ProjSrc\SrcDrfn\Chart\HWSTRATEGYANALYSIS\InfoRight.cpp
; File C:\Program Files (x86)\Microsoft Visual Studio\2019\Community\VC\Tools\MSVC\14.29.30133\atlmfc\include\afxtempl.h
; File D:\git\src\IBK\IBK_DRFN\ProjSrc\SrcDrfn\Chart\HWSTRATEGYANALYSIS\InfoRight.cpp
;	COMDAT ?OnBtnShowall@CInfoRight@@IAEXXZ
_TEXT	SEGMENT
_Index$ = -44						; size = 32
__$EHRec$ = -12						; size = 12
?OnBtnShowall@CInfoRight@@IAEXXZ PROC			; CInfoRight::OnBtnShowall, COMDAT
; _this$ = ecx

; 351  : {

  00000	55		 push	 ebp
  00001	8b ec		 mov	 ebp, esp
  00003	6a ff		 push	 -1
  00005	68 00 00 00 00	 push	 __ehhandler$?OnBtnShowall@CInfoRight@@IAEXXZ
  0000a	64 a1 00 00 00
	00		 mov	 eax, DWORD PTR fs:0
  00010	50		 push	 eax
  00011	83 ec 20	 sub	 esp, 32			; 00000020H
  00014	56		 push	 esi
  00015	57		 push	 edi
  00016	a1 00 00 00 00	 mov	 eax, DWORD PTR ___security_cookie
  0001b	33 c5		 xor	 eax, ebp
  0001d	50		 push	 eax
  0001e	8d 45 f4	 lea	 eax, DWORD PTR __$EHRec$[ebp]
  00021	64 a3 00 00 00
	00		 mov	 DWORD PTR fs:0, eax
  00027	8b f9		 mov	 edi, ecx
  00029	8d 4d dc	 lea	 ecx, DWORD PTR _Index$[ebp+8]
  0002c	ff 15 00 00 00
	00		 call	 DWORD PTR __imp_??0?$CStringT@DV?$StrTraitMFC_DLL@DV?$ChTraitsCRT@D@ATL@@@@@ATL@@QAE@XZ
  00032	8d 4d e0	 lea	 ecx, DWORD PTR _Index$[ebp+12]
  00035	ff 15 00 00 00
	00		 call	 DWORD PTR __imp_??0?$CStringT@DV?$StrTraitMFC_DLL@DV?$ChTraitsCRT@D@ATL@@@@@ATL@@QAE@XZ
  0003b	8d 4d e4	 lea	 ecx, DWORD PTR _Index$[ebp+16]
  0003e	ff 15 00 00 00
	00		 call	 DWORD PTR __imp_??0?$CStringT@DV?$StrTraitMFC_DLL@DV?$ChTraitsCRT@D@ATL@@@@@ATL@@QAE@XZ
  00044	8d 4d e8	 lea	 ecx, DWORD PTR _Index$[ebp+20]
  00047	ff 15 00 00 00
	00		 call	 DWORD PTR __imp_??0?$CStringT@DV?$StrTraitMFC_DLL@DV?$ChTraitsCRT@D@ATL@@@@@ATL@@QAE@XZ
  0004d	8d 4d ec	 lea	 ecx, DWORD PTR _Index$[ebp+24]
  00050	ff 15 00 00 00
	00		 call	 DWORD PTR __imp_??0?$CStringT@DV?$StrTraitMFC_DLL@DV?$ChTraitsCRT@D@ATL@@@@@ATL@@QAE@XZ
  00056	8d 4d f0	 lea	 ecx, DWORD PTR _Index$[ebp+28]
  00059	ff 15 00 00 00
	00		 call	 DWORD PTR __imp_??0?$CStringT@DV?$StrTraitMFC_DLL@DV?$ChTraitsCRT@D@ATL@@@@@ATL@@QAE@XZ

; 352  : 	// TODO: Add your control notification handler code here
; 353  : 	ST_DATAINDEX Index;
; 354  : 	int nSize =	m_pDlgAnalysis->m_stDataIndex.GetSize();

  0005f	8b b7 30 04 00
	00		 mov	 esi, DWORD PTR [edi+1072]
  00065	c7 45 fc 00 00
	00 00		 mov	 DWORD PTR __$EHRec$[ebp+8], 0

; 355  : 	if(nSize>1)

  0006c	83 be 44 01 00
	00 01		 cmp	 DWORD PTR [esi+324], 1
  00073	0f 8e 9d 00 00
	00		 jle	 $LN2@OnBtnShowa
; File C:\Program Files (x86)\Microsoft Visual Studio\2019\Community\VC\Tools\MSVC\14.29.30133\atlmfc\include\afxtempl.h

; 289  : 		return m_pData[nIndex];

  00079	8b b6 40 01 00
	00		 mov	 esi, DWORD PTR [esi+320]
  0007f	8d 4d dc	 lea	 ecx, DWORD PTR _Index$[ebp+8]
  00082	8b 06		 mov	 eax, DWORD PTR [esi]
  00084	89 45 d4	 mov	 DWORD PTR _Index$[ebp], eax
  00087	8b 46 04	 mov	 eax, DWORD PTR [esi+4]
  0008a	89 45 d8	 mov	 DWORD PTR _Index$[ebp+4], eax
  0008d	8d 46 08	 lea	 eax, DWORD PTR [esi+8]
  00090	50		 push	 eax
  00091	ff 15 00 00 00
	00		 call	 DWORD PTR __imp_??4?$CStringT@DV?$StrTraitMFC_DLL@DV?$ChTraitsCRT@D@ATL@@@@@ATL@@QAEAAV01@ABV01@@Z
  00097	8d 46 0c	 lea	 eax, DWORD PTR [esi+12]
  0009a	50		 push	 eax
  0009b	8d 4d e0	 lea	 ecx, DWORD PTR _Index$[ebp+12]
  0009e	ff 15 00 00 00
	00		 call	 DWORD PTR __imp_??4?$CStringT@DV?$StrTraitMFC_DLL@DV?$ChTraitsCRT@D@ATL@@@@@ATL@@QAEAAV01@ABV01@@Z
  000a4	8d 46 10	 lea	 eax, DWORD PTR [esi+16]
  000a7	50		 push	 eax
  000a8	8d 4d e4	 lea	 ecx, DWORD PTR _Index$[ebp+16]
  000ab	ff 15 00 00 00
	00		 call	 DWORD PTR __imp_??4?$CStringT@DV?$StrTraitMFC_DLL@DV?$ChTraitsCRT@D@ATL@@@@@ATL@@QAEAAV01@ABV01@@Z
  000b1	8d 46 14	 lea	 eax, DWORD PTR [esi+20]
  000b4	50		 push	 eax
  000b5	8d 4d e8	 lea	 ecx, DWORD PTR _Index$[ebp+20]
  000b8	ff 15 00 00 00
	00		 call	 DWORD PTR __imp_??4?$CStringT@DV?$StrTraitMFC_DLL@DV?$ChTraitsCRT@D@ATL@@@@@ATL@@QAEAAV01@ABV01@@Z
  000be	8d 46 18	 lea	 eax, DWORD PTR [esi+24]
  000c1	50		 push	 eax
  000c2	8d 4d ec	 lea	 ecx, DWORD PTR _Index$[ebp+24]
  000c5	ff 15 00 00 00
	00		 call	 DWORD PTR __imp_??4?$CStringT@DV?$StrTraitMFC_DLL@DV?$ChTraitsCRT@D@ATL@@@@@ATL@@QAEAAV01@ABV01@@Z
  000cb	8d 46 1c	 lea	 eax, DWORD PTR [esi+28]
  000ce	50		 push	 eax
  000cf	8d 4d f0	 lea	 ecx, DWORD PTR _Index$[ebp+28]
  000d2	ff 15 00 00 00
	00		 call	 DWORD PTR __imp_??4?$CStringT@DV?$StrTraitMFC_DLL@DV?$ChTraitsCRT@D@ATL@@@@@ATL@@QAEAAV01@ABV01@@Z
; File D:\git\src\IBK\IBK_DRFN\ProjSrc\SrcDrfn\Chart\HWSTRATEGYANALYSIS\InfoRight.cpp

; 358  : 		m_Result->m_iDateIndex = 0;

  000d8	8b 87 00 04 00
	00		 mov	 eax, DWORD PTR [edi+1024]

; 359  : 		m_pDlgAnalysis->SetCalculateData(0);

  000de	6a 00		 push	 0
  000e0	c7 80 40 01 00
	00 00 00 00 00	 mov	 DWORD PTR [eax+320], 0
  000ea	8b 8f 30 04 00
	00		 mov	 ecx, DWORD PTR [edi+1072]
  000f0	e8 00 00 00 00	 call	 ?SetCalculateData@CDlgAnalysis@@QAEXH@Z ; CDlgAnalysis::SetCalculateData

; 218  : 	m_Result->SetDataSpreadGrid();

  000f5	8b 8f 00 04 00
	00		 mov	 ecx, DWORD PTR [edi+1024]
  000fb	e8 00 00 00 00	 call	 ?SetDataSpreadGrid@CTabResult@@QAEXXZ ; CTabResult::SetDataSpreadGrid

; 219  : 	m_Trade->SetDataSpreadGrid();

  00100	8b 8f 08 04 00
	00		 mov	 ecx, DWORD PTR [edi+1032]
  00106	e8 00 00 00 00	 call	 ?SetDataSpreadGrid@CTabTrade@@QAEXXZ ; CTabTrade::SetDataSpreadGrid

; 220  : 	m_Step->SetDataSpreadGrid();

  0010b	8b 8f 04 04 00
	00		 mov	 ecx, DWORD PTR [edi+1028]
  00111	e8 00 00 00 00	 call	 ?SetDataSpreadGrid@CTabStep@@QAEXXZ ; CTabStep::SetDataSpreadGrid
$LN2@OnBtnShowa:
  00116	8d 4d f0	 lea	 ecx, DWORD PTR _Index$[ebp+28]
  00119	ff 15 00 00 00
	00		 call	 DWORD PTR __imp_??1?$CStringT@DV?$StrTraitMFC_DLL@DV?$ChTraitsCRT@D@ATL@@@@@ATL@@QAE@XZ
  0011f	8d 4d ec	 lea	 ecx, DWORD PTR _Index$[ebp+24]
  00122	ff 15 00 00 00
	00		 call	 DWORD PTR __imp_??1?$CStringT@DV?$StrTraitMFC_DLL@DV?$ChTraitsCRT@D@ATL@@@@@ATL@@QAE@XZ
  00128	8d 4d e8	 lea	 ecx, DWORD PTR _Index$[ebp+20]
  0012b	ff 15 00 00 00
	00		 call	 DWORD PTR __imp_??1?$CStringT@DV?$StrTraitMFC_DLL@DV?$ChTraitsCRT@D@ATL@@@@@ATL@@QAE@XZ
  00131	8d 4d e4	 lea	 ecx, DWORD PTR _Index$[ebp+16]
  00134	ff 15 00 00 00
	00		 call	 DWORD PTR __imp_??1?$CStringT@DV?$StrTraitMFC_DLL@DV?$ChTraitsCRT@D@ATL@@@@@ATL@@QAE@XZ
  0013a	8d 4d e0	 lea	 ecx, DWORD PTR _Index$[ebp+12]
  0013d	ff 15 00 00 00
	00		 call	 DWORD PTR __imp_??1?$CStringT@DV?$StrTraitMFC_DLL@DV?$ChTraitsCRT@D@ATL@@@@@ATL@@QAE@XZ
  00143	8d 4d dc	 lea	 ecx, DWORD PTR _Index$[ebp+8]
  00146	ff 15 00 00 00
	00		 call	 DWORD PTR __imp_??1?$CStringT@DV?$StrTraitMFC_DLL@DV?$ChTraitsCRT@D@ATL@@@@@ATL@@QAE@XZ

; 360  : 		RefreshWebView();
; 361  : 	}
; 362  : }

  0014c	8b 4d f4	 mov	 ecx, DWORD PTR __$EHRec$[ebp]
  0014f	64 89 0d 00 00
	00 00		 mov	 DWORD PTR fs:0, ecx
  00156	59		 pop	 ecx
  00157	5f		 pop	 edi
  00158	5e		 pop	 esi
  00159	8b e5		 mov	 esp, ebp
  0015b	5d		 pop	 ebp
  0015c	c3		 ret	 0
_TEXT	ENDS
;	COMDAT text$x
text$x	SEGMENT
__unwindfunclet$?OnBtnShowall@CInfoRight@@IAEXXZ$0:
  00000	8d 4d d4	 lea	 ecx, DWORD PTR _Index$[ebp]
  00003	e9 00 00 00 00	 jmp	 ??1ST_DATAINDEX@@QAE@XZ
  00008	cc		 int	 3
  00009	cc		 int	 3
  0000a	cc		 int	 3
  0000b	cc		 int	 3
  0000c	cc		 int	 3
__ehhandler$?OnBtnShowall@CInfoRight@@IAEXXZ:
  0000d	90		 npad	 1
  0000e	90		 npad	 1
  0000f	8b 54 24 08	 mov	 edx, DWORD PTR [esp+8]
  00013	8d 42 0c	 lea	 eax, DWORD PTR [edx+12]
  00016	8b 4a d4	 mov	 ecx, DWORD PTR [edx-44]
  00019	33 c8		 xor	 ecx, eax
  0001b	e8 00 00 00 00	 call	 @__security_check_cookie@4
  00020	b8 00 00 00 00	 mov	 eax, OFFSET __ehfuncinfo$?OnBtnShowall@CInfoRight@@IAEXXZ
  00025	e9 00 00 00 00	 jmp	 ___CxxFrameHandler3
text$x	ENDS
?OnBtnShowall@CInfoRight@@IAEXXZ ENDP			; CInfoRight::OnBtnShowall
; Function compile flags: /Ogtp
; File D:\git\src\IBK\IBK_DRFN\ProjSrc\SrcDrfn\Chart\HWSTRATEGYANALYSIS\InfoRight.cpp
; File C:\Program Files (x86)\Microsoft Visual Studio\2019\Community\VC\Tools\MSVC\14.29.30133\atlmfc\include\afxwin1.inl
; File D:\git\src\IBK\IBK_DRFN\ProjSrc\SrcDrfn\Chart\HWSTRATEGYANALYSIS\InfoRight.cpp
; File C:\Program Files (x86)\Microsoft Visual Studio\2019\Community\VC\Tools\MSVC\14.29.30133\atlmfc\include\afxwin1.inl
; File D:\git\src\IBK\IBK_DRFN\ProjSrc\SrcDrfn\Chart\HWSTRATEGYANALYSIS\InfoRight.cpp
;	COMDAT ?OnCtlColor@CInfoRight@@IAEPAUHBRUSH__@@PAVCDC@@PAVCWnd@@I@Z
_TEXT	SEGMENT
_pDC$ = 8						; size = 4
_pWnd$ = 12						; size = 4
_nCtlColor$ = 16					; size = 4
?OnCtlColor@CInfoRight@@IAEPAUHBRUSH__@@PAVCDC@@PAVCWnd@@I@Z PROC ; CInfoRight::OnCtlColor, COMDAT
; _this$ = ecx

; 331  : {

  00000	55		 push	 ebp
  00001	8b ec		 mov	 ebp, esp
  00003	53		 push	 ebx

; 332  : 	HBRUSH hbr = CDialog::OnCtlColor(pDC, pWnd, nCtlColor);

  00004	8b 5d 08	 mov	 ebx, DWORD PTR _pDC$[ebp]
  00007	56		 push	 esi
  00008	8b 75 10	 mov	 esi, DWORD PTR _nCtlColor$[ebp]
  0000b	57		 push	 edi
  0000c	56		 push	 esi
  0000d	ff 75 0c	 push	 DWORD PTR _pWnd$[ebp]
  00010	8b f9		 mov	 edi, ecx
  00012	53		 push	 ebx
  00013	e8 00 00 00 00	 call	 ?OnCtlColor@CWnd@@IAEPAUHBRUSH__@@PAVCDC@@PAV1@I@Z ; CWnd::OnCtlColor

; 333  : 	
; 334  : 	// TODO: Change any attributes of the DC here
; 335  : 	switch(nCtlColor) 

  00018	83 ee 01	 sub	 esi, 1
  0001b	74 26		 je	 SHORT $LN1@OnCtlColor
  0001d	83 ee 01	 sub	 esi, 1
  00020	74 21		 je	 SHORT $LN1@OnCtlColor

; 336  : 	{
; 337  : 	case CTLCOLOR_EDIT:
; 338  : 	case CTLCOLOR_LISTBOX:
; 339  : 		return hbr;
; 340  : 		break;
; 341  : 	default:
; 342  : 		pDC->SetBkColor(m_crBk);

  00022	8b 03		 mov	 eax, DWORD PTR [ebx]
  00024	8b cb		 mov	 ecx, ebx
  00026	ff b7 e0 03 00
	00		 push	 DWORD PTR [edi+992]
  0002c	ff 50 34	 call	 DWORD PTR [eax+52]

; 343  : 		return m_brBkColor;		

  0002f	8d 87 d8 03 00
	00		 lea	 eax, DWORD PTR [edi+984]
; File C:\Program Files (x86)\Microsoft Visual Studio\2019\Community\VC\Tools\MSVC\14.29.30133\atlmfc\include\afxwin1.inl

; 124  : 	{ return (HBRUSH)(this == NULL ? NULL : m_hObject); }

  00035	85 c0		 test	 eax, eax
  00037	75 07		 jne	 SHORT $LN10@OnCtlColor
; File D:\git\src\IBK\IBK_DRFN\ProjSrc\SrcDrfn\Chart\HWSTRATEGYANALYSIS\InfoRight.cpp

; 348  : }

  00039	5f		 pop	 edi
  0003a	5e		 pop	 esi
  0003b	5b		 pop	 ebx
  0003c	5d		 pop	 ebp
  0003d	c2 0c 00	 ret	 12			; 0000000cH
$LN10@OnCtlColor:
; File C:\Program Files (x86)\Microsoft Visual Studio\2019\Community\VC\Tools\MSVC\14.29.30133\atlmfc\include\afxwin1.inl

; 124  : 	{ return (HBRUSH)(this == NULL ? NULL : m_hObject); }

  00040	8b 40 04	 mov	 eax, DWORD PTR [eax+4]
$LN1@OnCtlColor:
  00043	5f		 pop	 edi
; File D:\git\src\IBK\IBK_DRFN\ProjSrc\SrcDrfn\Chart\HWSTRATEGYANALYSIS\InfoRight.cpp

; 348  : }

  00044	5e		 pop	 esi
  00045	5b		 pop	 ebx
  00046	5d		 pop	 ebp
  00047	c2 0c 00	 ret	 12			; 0000000cH
?OnCtlColor@CInfoRight@@IAEPAUHBRUSH__@@PAVCDC@@PAVCWnd@@I@Z ENDP ; CInfoRight::OnCtlColor
_TEXT	ENDS
; Function compile flags: /Ogtp
; File D:\git\src\IBK\IBK_DRFN\ProjSrc\SrcDrfn\Chart\HWSTRATEGYANALYSIS\InfoRight.cpp
; File C:\Program Files (x86)\Microsoft Visual Studio\2019\Community\VC\Tools\MSVC\14.29.30133\atlmfc\include\afxwin1.inl
; File D:\git\src\IBK\IBK_DRFN\ProjSrc\SrcDrfn\Chart\HWSTRATEGYANALYSIS\InfoRight.cpp
; File C:\Program Files (x86)\Microsoft Visual Studio\2019\Community\VC\Tools\MSVC\14.29.30133\atlmfc\include\afxtempl.h
; File D:\git\src\IBK\IBK_DRFN\ProjSrc\SrcDrfn\Chart\HWSTRATEGYANALYSIS\InfoRight.cpp
; File C:\Program Files (x86)\Microsoft Visual Studio\2019\Community\VC\Tools\MSVC\14.29.30133\atlmfc\include\afxtempl.h
; File D:\git\src\IBK\IBK_DRFN\ProjSrc\SrcDrfn\Chart\HWSTRATEGYANALYSIS\InfoRight.cpp
; File C:\Program Files (x86)\Microsoft Visual Studio\2019\Community\VC\Tools\MSVC\14.29.30133\atlmfc\include\afxtempl.h
; File D:\git\src\IBK\IBK_DRFN\ProjSrc\SrcDrfn\Chart\HWSTRATEGYANALYSIS\InfoRight.cpp
;	COMDAT ?OnDestroy@CInfoRight@@IAEXXZ
_TEXT	SEGMENT
_nSize$1$ = -4						; size = 4
?OnDestroy@CInfoRight@@IAEXXZ PROC			; CInfoRight::OnDestroy, COMDAT
; _this$ = ecx

; 225  : {

  00000	55		 push	 ebp
  00001	8b ec		 mov	 ebp, esp
  00003	51		 push	 ecx
  00004	53		 push	 ebx
  00005	8b d9		 mov	 ebx, ecx

; 226  : 	if(m_Font.GetSafeHandle())

  00007	8d 8b 10 0a 00
	00		 lea	 ecx, DWORD PTR [ebx+2576]
; File C:\Program Files (x86)\Microsoft Visual Studio\2019\Community\VC\Tools\MSVC\14.29.30133\atlmfc\include\afxwin1.inl

; 68   : 	{ return this == NULL ? NULL : m_hObject; }

  0000d	85 c9		 test	 ecx, ecx
  0000f	74 0b		 je	 SHORT $LN5@OnDestroy
; File D:\git\src\IBK\IBK_DRFN\ProjSrc\SrcDrfn\Chart\HWSTRATEGYANALYSIS\InfoRight.cpp

; 226  : 	if(m_Font.GetSafeHandle())

  00011	83 79 04 00	 cmp	 DWORD PTR [ecx+4], 0
  00015	74 05		 je	 SHORT $LN5@OnDestroy

; 227  : 		m_Font.DeleteObject();

  00017	e8 00 00 00 00	 call	 ?DeleteObject@CGdiObject@@QAEHXZ ; CGdiObject::DeleteObject
$LN5@OnDestroy:
  0001c	56		 push	 esi

; 228  : 	
; 229  : 	CDialog::OnDestroy();

  0001d	8b cb		 mov	 ecx, ebx
  0001f	e8 00 00 00 00	 call	 ?OnDestroy@CWnd@@IAEXXZ	; CWnd::OnDestroy

; 230  : 	
; 231  : 	// TODO: Add your message handler code here
; 232  : 	CDialog *pTabDlg = NULL;
; 233  : 	int nSize = m_arrayTab.GetSize();

  00024	8b 83 f0 03 00
	00		 mov	 eax, DWORD PTR [ebx+1008]

; 234  : 	for(int nPos=0;nPos<nSize;nPos++)

  0002a	33 f6		 xor	 esi, esi
  0002c	89 45 fc	 mov	 DWORD PTR _nSize$1$[ebp], eax
  0002f	85 c0		 test	 eax, eax
  00031	7e 2d		 jle	 SHORT $LN3@OnDestroy
  00033	57		 push	 edi
$LL4@OnDestroy:
; File C:\Program Files (x86)\Microsoft Visual Studio\2019\Community\VC\Tools\MSVC\14.29.30133\atlmfc\include\afxtempl.h

; 288  : 	if(nIndex >= 0 && nIndex < m_nSize)

  00034	85 f6		 test	 esi, esi
  00036	78 5f		 js	 SHORT $LN14@OnDestroy
  00038	3b b3 f0 03 00
	00		 cmp	 esi, DWORD PTR [ebx+1008]
  0003e	7d 57		 jge	 SHORT $LN14@OnDestroy
; File D:\git\src\IBK\IBK_DRFN\ProjSrc\SrcDrfn\Chart\HWSTRATEGYANALYSIS\InfoRight.cpp

; 236  : 		pTabDlg = m_arrayTab.GetAt(nPos);

  00040	8b 83 ec 03 00
	00		 mov	 eax, DWORD PTR [ebx+1004]
  00046	8b 3c b0	 mov	 edi, DWORD PTR [eax+esi*4]

; 237  : 		pTabDlg->DestroyWindow();

  00049	8b cf		 mov	 ecx, edi
  0004b	8b 07		 mov	 eax, DWORD PTR [edi]
  0004d	ff 50 68	 call	 DWORD PTR [eax+104]

; 238  : 		delete pTabDlg;

  00050	8b 07		 mov	 eax, DWORD PTR [edi]
  00052	8b cf		 mov	 ecx, edi
  00054	6a 01		 push	 1
  00056	ff 50 04	 call	 DWORD PTR [eax+4]
  00059	46		 inc	 esi
  0005a	3b 75 fc	 cmp	 esi, DWORD PTR _nSize$1$[ebp]
  0005d	7c d5		 jl	 SHORT $LL4@OnDestroy

; 234  : 	for(int nPos=0;nPos<nSize;nPos++)

  0005f	5f		 pop	 edi
$LN3@OnDestroy:
; File C:\Program Files (x86)\Microsoft Visual Studio\2019\Community\VC\Tools\MSVC\14.29.30133\atlmfc\include\afxtempl.h

; 381  : 		if (m_pData != NULL)

  00060	8b 83 ec 03 00
	00		 mov	 eax, DWORD PTR [ebx+1004]
  00066	5e		 pop	 esi
  00067	85 c0		 test	 eax, eax
  00069	74 13		 je	 SHORT $LN39@OnDestroy

; 382  : 		{
; 383  : 			for( int i = 0; i < m_nSize; i++ )
; 384  : 				(m_pData + i)->~TYPE();
; 385  : 			delete[] (BYTE*)m_pData;

  0006b	50		 push	 eax
  0006c	e8 00 00 00 00	 call	 ??_V@YAXPAX@Z		; operator delete[]
  00071	83 c4 04	 add	 esp, 4

; 386  : 			m_pData = NULL;

  00074	c7 83 ec 03 00
	00 00 00 00 00	 mov	 DWORD PTR [ebx+1004], 0
$LN39@OnDestroy:

; 387  : 		}
; 388  : 		m_nSize = m_nMaxSize = 0;

  0007e	c7 83 f4 03 00
	00 00 00 00 00	 mov	 DWORD PTR [ebx+1012], 0
  00088	c7 83 f0 03 00
	00 00 00 00 00	 mov	 DWORD PTR [ebx+1008], 0
  00092	5b		 pop	 ebx
; File D:\git\src\IBK\IBK_DRFN\ProjSrc\SrcDrfn\Chart\HWSTRATEGYANALYSIS\InfoRight.cpp

; 242  : }

  00093	8b e5		 mov	 esp, ebp
  00095	5d		 pop	 ebp
  00096	c3		 ret	 0
$LN14@OnDestroy:
; File C:\Program Files (x86)\Microsoft Visual Studio\2019\Community\VC\Tools\MSVC\14.29.30133\atlmfc\include\afxtempl.h

; 290  : 	AfxThrowInvalidArgException();

  00097	e8 00 00 00 00	 call	 ?AfxThrowInvalidArgException@@YGXXZ ; AfxThrowInvalidArgException
$LN75@OnDestroy:
  0009c	cc		 int	 3
?OnDestroy@CInfoRight@@IAEXXZ ENDP			; CInfoRight::OnDestroy
_TEXT	ENDS
; Function compile flags: /Ogtp
; File D:\git\src\IBK\IBK_DRFN\ProjSrc\SrcDrfn\Chart\HWSTRATEGYANALYSIS\InfoRight.cpp
; File C:\Program Files (x86)\Microsoft Visual Studio\2019\Community\VC\Tools\MSVC\14.29.30133\atlmfc\include\afxwin2.inl
; File D:\git\src\IBK\IBK_DRFN\ProjSrc\SrcDrfn\Chart\HWSTRATEGYANALYSIS\InfoRight.cpp
; File C:\Program Files (x86)\Microsoft Visual Studio\2019\Community\VC\Tools\MSVC\14.29.30133\atlmfc\include\afxwin1.inl
; File D:\git\src\IBK\IBK_DRFN\ProjSrc\SrcDrfn\Chart\HWSTRATEGYANALYSIS\InfoRight.cpp
; File C:\Program Files (x86)\Microsoft Visual Studio\2019\Community\VC\Tools\MSVC\14.29.30133\atlmfc\include\afxwin1.inl
; File D:\git\src\IBK\IBK_DRFN\ProjSrc\SrcDrfn\Chart\HWSTRATEGYANALYSIS\InfoRight.cpp
; File C:\Program Files (x86)\Microsoft Visual Studio\2019\Community\VC\Tools\MSVC\14.29.30133\atlmfc\include\afxwin1.inl
; File D:\git\src\IBK\IBK_DRFN\ProjSrc\SrcDrfn\Chart\HWSTRATEGYANALYSIS\InfoRight.cpp
; File C:\Program Files (x86)\Microsoft Visual Studio\2019\Community\VC\Tools\MSVC\14.29.30133\atlmfc\include\afxwin1.inl
; File D:\git\src\IBK\IBK_DRFN\ProjSrc\SrcDrfn\Chart\HWSTRATEGYANALYSIS\InfoRight.cpp
; File C:\Program Files (x86)\Microsoft Visual Studio\2019\Community\VC\Tools\MSVC\14.29.30133\atlmfc\include\afxwin1.inl
; File D:\git\src\IBK\IBK_DRFN\ProjSrc\SrcDrfn\Chart\HWSTRATEGYANALYSIS\InfoRight.cpp
; File C:\Program Files (x86)\Microsoft Visual Studio\2019\Community\VC\Tools\MSVC\14.29.30133\atlmfc\include\afxwin1.inl
; File D:\git\src\IBK\IBK_DRFN\ProjSrc\SrcDrfn\Chart\HWSTRATEGYANALYSIS\InfoRight.cpp
; File C:\Program Files (x86)\Microsoft Visual Studio\2019\Community\VC\Tools\MSVC\14.29.30133\atlmfc\include\afxwin1.inl
; File D:\git\src\IBK\IBK_DRFN\ProjSrc\SrcDrfn\Chart\HWSTRATEGYANALYSIS\InfoRight.cpp
;	COMDAT ?OnInitDialog@CInfoRight@@MAEHXZ
_TEXT	SEGMENT
_lf$ = -64						; size = 60
__$ArrayPad$ = -4					; size = 4
?OnInitDialog@CInfoRight@@MAEHXZ PROC			; CInfoRight::OnInitDialog, COMDAT
; _this$ = ecx

; 143  : {

  00000	55		 push	 ebp
  00001	8b ec		 mov	 ebp, esp
  00003	83 ec 40	 sub	 esp, 64			; 00000040H
  00006	a1 00 00 00 00	 mov	 eax, DWORD PTR ___security_cookie
  0000b	33 c5		 xor	 eax, ebp
  0000d	89 45 fc	 mov	 DWORD PTR __$ArrayPad$[ebp], eax
  00010	56		 push	 esi
  00011	8b f1		 mov	 esi, ecx

; 144  : 	CDialog::OnInitDialog();

  00013	e8 00 00 00 00	 call	 ?OnInitDialog@CDialog@@UAEHXZ ; CDialog::OnInitDialog
; File C:\Program Files (x86)\Microsoft Visual Studio\2019\Community\VC\Tools\MSVC\14.29.30133\atlmfc\include\afxwin2.inl

; 799  : 	{ ASSERT(::IsWindow(m_hWnd)); return (int)::SendMessage(m_hWnd, CB_INSERTSTRING, nIndex, (LPARAM)lpszString); }

  00018	68 00 00 00 00	 push	 OFFSET ??_C@_04MHOBIAIL@?$MA?$PM?C?$LM@
  0001d	6a 00		 push	 0
  0001f	68 4a 01 00 00	 push	 330			; 0000014aH
  00024	ff b6 58 04 00
	00		 push	 DWORD PTR [esi+1112]
  0002a	ff 15 00 00 00
	00		 call	 DWORD PTR __imp__SendMessageA@16
; File D:\git\src\IBK\IBK_DRFN\ProjSrc\SrcDrfn\Chart\HWSTRATEGYANALYSIS\InfoRight.cpp

; 149  : 	m_ctlstName.SetStaticColor(RGB(0,0,0),RGB(255,255,255),RGB(0,0,0));

  00030	6a 00		 push	 0
  00032	68 ff ff ff 00	 push	 16777215		; 00ffffffH
  00037	6a 00		 push	 0
  00039	8d 8e c0 04 00
	00		 lea	 ecx, DWORD PTR [esi+1216]
  0003f	e8 00 00 00 00	 call	 ?SetStaticColor@CExStatic@@QAEHKKK@Z ; CExStatic::SetStaticColor
; File C:\Program Files (x86)\Microsoft Visual Studio\2019\Community\VC\Tools\MSVC\14.29.30133\atlmfc\include\afxwin1.inl

; 132  : 	{ return Attach(::CreateSolidBrush(crColor)); }

  00044	68 f7 f8 fc 00	 push	 16578807		; 00fcf8f7H
; File D:\git\src\IBK\IBK_DRFN\ProjSrc\SrcDrfn\Chart\HWSTRATEGYANALYSIS\InfoRight.cpp

; 150  : 		m_crBk = DEFAULT_BKGRND_COLOR2;

  00049	c7 86 e0 03 00
	00 f7 f8 fc 00	 mov	 DWORD PTR [esi+992], 16578807 ; 00fcf8f7H
; File C:\Program Files (x86)\Microsoft Visual Studio\2019\Community\VC\Tools\MSVC\14.29.30133\atlmfc\include\afxwin1.inl

; 132  : 	{ return Attach(::CreateSolidBrush(crColor)); }

  00053	ff 15 00 00 00
	00		 call	 DWORD PTR __imp__CreateSolidBrush@4
  00059	50		 push	 eax
; File D:\git\src\IBK\IBK_DRFN\ProjSrc\SrcDrfn\Chart\HWSTRATEGYANALYSIS\InfoRight.cpp

; 152  : 	m_brBkColor.CreateSolidBrush(m_crBk);

  0005a	8d 8e d8 03 00
	00		 lea	 ecx, DWORD PTR [esi+984]
; File C:\Program Files (x86)\Microsoft Visual Studio\2019\Community\VC\Tools\MSVC\14.29.30133\atlmfc\include\afxwin1.inl

; 132  : 	{ return Attach(::CreateSolidBrush(crColor)); }

  00060	e8 00 00 00 00	 call	 ?Attach@CGdiObject@@QAEHPAX@Z ; CGdiObject::Attach
; File D:\git\src\IBK\IBK_DRFN\ProjSrc\SrcDrfn\Chart\HWSTRATEGYANALYSIS\InfoRight.cpp

; 168  : 	strcpy(lf.lfFaceName, "");

  00065	a1 00 00 00 00	 mov	 eax, DWORD PTR ??_C@_06MFMMLLPC@?$LB?$LM?$LI?$LC?C?$LM@
  0006a	0f 57 c0	 xorps	 xmm0, xmm0
  0006d	89 45 dc	 mov	 DWORD PTR _lf$[ebp+28], eax
  00070	66 a1 04 00 00
	00		 mov	 ax, WORD PTR ??_C@_06MFMMLLPC@?$LB?$LM?$LI?$LC?C?$LM@+4
  00076	66 89 45 e0	 mov	 WORD PTR _lf$[ebp+32], ax
  0007a	a0 06 00 00 00	 mov	 al, BYTE PTR ??_C@_06MFMMLLPC@?$LB?$LM?$LI?$LC?C?$LM@+6
  0007f	88 45 e2	 mov	 BYTE PTR _lf$[ebp+34], al
; File C:\Program Files (x86)\Microsoft Visual Studio\2019\Community\VC\Tools\MSVC\14.29.30133\atlmfc\include\afxwin1.inl

; 157  : 	{ return Attach(::CreateFontIndirect(lpLogFont)); }

  00082	8d 45 c0	 lea	 eax, DWORD PTR _lf$[ebp]
; File D:\git\src\IBK\IBK_DRFN\ProjSrc\SrcDrfn\Chart\HWSTRATEGYANALYSIS\InfoRight.cpp

; 155  : 	::memset(&lf, 0x00, sizeof(LOGFONT));

  00085	66 0f 13 45 e3	 movlpd	 QWORD PTR _lf$[ebp+35], xmm0
  0008a	66 0f 13 45 eb	 movlpd	 QWORD PTR _lf$[ebp+43], xmm0
  0008f	66 0f 13 45 f3	 movlpd	 QWORD PTR _lf$[ebp+51], xmm0

; 156  : 	lf.lfWidth = 0; 

  00094	0f 28 05 00 00
	00 00		 movaps	 xmm0, XMMWORD PTR __xmm@00000190000000000000000000000000
; File C:\Program Files (x86)\Microsoft Visual Studio\2019\Community\VC\Tools\MSVC\14.29.30133\atlmfc\include\afxwin1.inl

; 157  : 	{ return Attach(::CreateFontIndirect(lpLogFont)); }

  0009b	50		 push	 eax
; File D:\git\src\IBK\IBK_DRFN\ProjSrc\SrcDrfn\Chart\HWSTRATEGYANALYSIS\InfoRight.cpp

; 155  : 	::memset(&lf, 0x00, sizeof(LOGFONT));

  0009c	c6 45 fb 00	 mov	 BYTE PTR _lf$[ebp+59], 0

; 156  : 	lf.lfWidth = 0; 

  000a0	0f 11 45 c4	 movups	 XMMWORD PTR _lf$[ebp+4], xmm0

; 157  : 	lf.lfEscapement = 0; 
; 158  : 	lf.lfOrientation = 0; 
; 159  : 	lf.lfWeight = FW_NORMAL; 
; 160  : 	lf.lfItalic = 0; 

  000a4	c7 45 d4 00 00
	00 01		 mov	 DWORD PTR _lf$[ebp+20], 16777216 ; 01000000H

; 161  : 	lf.lfUnderline = 0; 
; 162  : 	lf.lfStrikeOut = 0; 
; 163  : 	lf.lfCharSet = DEFAULT_CHARSET; 
; 164  : 	lf.lfOutPrecision = OUT_DEFAULT_PRECIS; 

  000ab	c7 45 d8 00 00
	00 10		 mov	 DWORD PTR _lf$[ebp+24], 268435456 ; 10000000H

; 169  : 	lf.lfHeight = 12;

  000b2	c7 45 c0 0c 00
	00 00		 mov	 DWORD PTR _lf$[ebp], 12	; 0000000cH
; File C:\Program Files (x86)\Microsoft Visual Studio\2019\Community\VC\Tools\MSVC\14.29.30133\atlmfc\include\afxwin1.inl

; 157  : 	{ return Attach(::CreateFontIndirect(lpLogFont)); }

  000b9	ff 15 00 00 00
	00		 call	 DWORD PTR __imp__CreateFontIndirectA@4
  000bf	50		 push	 eax
; File D:\git\src\IBK\IBK_DRFN\ProjSrc\SrcDrfn\Chart\HWSTRATEGYANALYSIS\InfoRight.cpp

; 170  : 	m_Font.CreateFontIndirect(&lf);

  000c0	8d 8e 10 0a 00
	00		 lea	 ecx, DWORD PTR [esi+2576]
; File C:\Program Files (x86)\Microsoft Visual Studio\2019\Community\VC\Tools\MSVC\14.29.30133\atlmfc\include\afxwin1.inl

; 157  : 	{ return Attach(::CreateFontIndirect(lpLogFont)); }

  000c6	e8 00 00 00 00	 call	 ?Attach@CGdiObject@@QAEHPAX@Z ; CGdiObject::Attach
; File D:\git\src\IBK\IBK_DRFN\ProjSrc\SrcDrfn\Chart\HWSTRATEGYANALYSIS\InfoRight.cpp

; 174  : }

  000cb	8b 4d fc	 mov	 ecx, DWORD PTR __$ArrayPad$[ebp]
  000ce	b8 01 00 00 00	 mov	 eax, 1
  000d3	33 cd		 xor	 ecx, ebp
  000d5	5e		 pop	 esi
  000d6	e8 00 00 00 00	 call	 @__security_check_cookie@4
  000db	8b e5		 mov	 esp, ebp
  000dd	5d		 pop	 ebp
  000de	c3		 ret	 0
?OnInitDialog@CInfoRight@@MAEHXZ ENDP			; CInfoRight::OnInitDialog
_TEXT	ENDS
; Function compile flags: /Ogtp
; File D:\git\src\IBK\IBK_DRFN\ProjSrc\SrcDrfn\Chart\HWSTRATEGYANALYSIS\InfoRight.cpp
; File C:\Program Files (x86)\Microsoft Visual Studio\2019\Community\VC\Tools\MSVC\14.29.30133\atlmfc\include\afxwin2.inl
; File D:\git\src\IBK\IBK_DRFN\ProjSrc\SrcDrfn\Chart\HWSTRATEGYANALYSIS\InfoRight.cpp
;	COMDAT ?OnBtnShow@CInfoRight@@IAEXXZ
_TEXT	SEGMENT
?OnBtnShow@CInfoRight@@IAEXXZ PROC			; CInfoRight::OnBtnShow, COMDAT
; _this$ = ecx
; File C:\Program Files (x86)\Microsoft Visual Studio\2019\Community\VC\Tools\MSVC\14.29.30133\atlmfc\include\afxwin2.inl

; 25   : 	{ return this == NULL ? NULL : m_hWnd; }

  00000	85 c9		 test	 ecx, ecx
  00002	75 04		 jne	 SHORT $LN5@OnBtnShow
  00004	33 d2		 xor	 edx, edx
  00006	eb 03		 jmp	 SHORT $LN6@OnBtnShow
$LN5@OnBtnShow:
  00008	8b 51 20	 mov	 edx, DWORD PTR [ecx+32]
$LN6@OnBtnShow:
; File D:\git\src\IBK\IBK_DRFN\ProjSrc\SrcDrfn\Chart\HWSTRATEGYANALYSIS\InfoRight.cpp

; 128  : 	m_pChartItem->InvokeAddIn("ChartSTIndexAddIn.dll",7,(long)GetSafeHwnd());

  0000b	8b 81 34 04 00
	00		 mov	 eax, DWORD PTR [ecx+1076]
  00011	52		 push	 edx
  00012	6a 07		 push	 7
  00014	68 00 00 00 00	 push	 OFFSET ??_C@_0BG@CHJJKIAP@ChartSTIndexAddIn?4dll@
  00019	8b 08		 mov	 ecx, DWORD PTR [eax]
  0001b	50		 push	 eax
  0001c	ff 51 18	 call	 DWORD PTR [ecx+24]

; 129  : }

  0001f	c3		 ret	 0
?OnBtnShow@CInfoRight@@IAEXXZ ENDP			; CInfoRight::OnBtnShow
_TEXT	ENDS
; Function compile flags: /Ogtp
; File D:\git\src\IBK\IBK_DRFN\ProjSrc\SrcDrfn\Chart\HWSTRATEGYANALYSIS\InfoRight.cpp
;	COMDAT ?DoDataExchange@CInfoRight@@MAEXPAVCDataExchange@@@Z
_TEXT	SEGMENT
_pDX$ = 8						; size = 4
?DoDataExchange@CInfoRight@@MAEXPAVCDataExchange@@@Z PROC ; CInfoRight::DoDataExchange, COMDAT
; _this$ = ecx

; 81   : {

  00000	55		 push	 ebp
  00001	8b ec		 mov	 ebp, esp
  00003	56		 push	 esi

; 82   : 	CDialog::DoDataExchange(pDX);
; 83   : 	//{{AFX_DATA_MAP(CInfoRight)
; 84   : 	DDX_Control(pDX, IDC_BTN_RESULT, m_CtlResult);

  00004	8b 75 08	 mov	 esi, DWORD PTR _pDX$[ebp]
  00007	57		 push	 edi
  00008	8b f9		 mov	 edi, ecx
  0000a	8d 87 a8 00 00
	00		 lea	 eax, DWORD PTR [edi+168]
  00010	50		 push	 eax
  00011	68 c8 0b 00 00	 push	 3016			; 00000bc8H
  00016	56		 push	 esi
  00017	e8 00 00 00 00	 call	 ?DDX_Control@@YGXPAVCDataExchange@@HAAVCWnd@@@Z ; DDX_Control

; 85   : 	DDX_Control(pDX, IDC_BTN_SHOWALL, m_CtlShowAll);

  0001c	8d 87 28 01 00
	00		 lea	 eax, DWORD PTR [edi+296]
  00022	50		 push	 eax
  00023	68 c5 0b 00 00	 push	 3013			; 00000bc5H
  00028	56		 push	 esi
  00029	e8 00 00 00 00	 call	 ?DDX_Control@@YGXPAVCDataExchange@@HAAVCWnd@@@Z ; DDX_Control

; 86   : 	DDX_Control(pDX, IDC_BTN_SHOW, m_CtlSpread);

  0002e	8d 87 a8 01 00
	00		 lea	 eax, DWORD PTR [edi+424]
  00034	50		 push	 eax
  00035	68 b9 0b 00 00	 push	 3001			; 00000bb9H
  0003a	56		 push	 esi
  0003b	e8 00 00 00 00	 call	 ?DDX_Control@@YGXPAVCDataExchange@@HAAVCWnd@@@Z ; DDX_Control

; 87   : 	DDX_Control(pDX, IDC_TAB1, m_CtlTab);

  00040	8d 87 28 02 00
	00		 lea	 eax, DWORD PTR [edi+552]
  00046	50		 push	 eax
  00047	68 c4 0b 00 00	 push	 3012			; 00000bc4H
  0004c	56		 push	 esi
  0004d	e8 00 00 00 00	 call	 ?DDX_Control@@YGXPAVCDataExchange@@HAAVCWnd@@@Z ; DDX_Control

; 88   : 	//DDX_Control(pDX, IDC_EXPLORER, m_Browser);
; 89   : 	//}}AFX_DATA_MAP
; 90   : 	DDX_Control(pDX, IDC_COMBO_DIVIDE, m_ctlComboDivide);

  00052	8d 87 38 04 00
	00		 lea	 eax, DWORD PTR [edi+1080]
  00058	50		 push	 eax
  00059	68 e2 0b 00 00	 push	 3042			; 00000be2H
  0005e	56		 push	 esi
  0005f	e8 00 00 00 00	 call	 ?DDX_Control@@YGXPAVCDataExchange@@HAAVCWnd@@@Z ; DDX_Control

; 91   : 	DDX_Control(pDX, IDC_STATIC_NAME, m_ctlstName);

  00064	8d 87 c0 04 00
	00		 lea	 eax, DWORD PTR [edi+1216]
  0006a	50		 push	 eax
  0006b	68 e9 0b 00 00	 push	 3049			; 00000be9H
  00070	56		 push	 esi
  00071	e8 00 00 00 00	 call	 ?DDX_Control@@YGXPAVCDataExchange@@HAAVCWnd@@@Z ; DDX_Control

; 92   : 	DDX_Control(pDX, IDC_STATIC_STNAME, m_ctlSTFILENAME);

  00076	8d 87 48 05 00
	00		 lea	 eax, DWORD PTR [edi+1352]
  0007c	50		 push	 eax
  0007d	68 eb 0b 00 00	 push	 3051			; 00000bebH
  00082	56		 push	 esi
  00083	e8 00 00 00 00	 call	 ?DDX_Control@@YGXPAVCDataExchange@@HAAVCWnd@@@Z ; DDX_Control

; 93   : 	DDX_Control(pDX, IDC_STATIC_POSITION, m_ctlstPosition);

  00088	8d 87 d0 05 00
	00		 lea	 eax, DWORD PTR [edi+1488]
  0008e	50		 push	 eax
  0008f	68 ec 0b 00 00	 push	 3052			; 00000becH
  00094	56		 push	 esi
  00095	e8 00 00 00 00	 call	 ?DDX_Control@@YGXPAVCDataExchange@@HAAVCWnd@@@Z ; DDX_Control

; 94   : 	DDX_Control(pDX, IDC_STATIC_PERIOD, m_ctlstPeriod);

  0009a	8d 87 58 06 00
	00		 lea	 eax, DWORD PTR [edi+1624]
  000a0	50		 push	 eax
