; Listing generated by Microsoft (R) Optimizing Compiler Version 19.29.30145.0 

	TITLE	D:\git\src\IBK\IBK_DRFN\#DRfn-CS\_Obj\HWStrategyAnalysis\StrategyLoader.obj
	.686P
	.XMM
	include listing.inc
	.model	flat

INCLUDELIB MSVCRT
INCLUDELIB OLDNAMES

PUBLIC	?m_bIsDebugVersion@CStrategyLoader@@1HA		; CStrategyLoader::m_bIsDebugVersion
PUBLIC	??_C@_0P@BKKCOCLK@RMSG_INTERFACE@		; `string'
PUBLIC	??_C@_0BB@GOOPDKI@RMSG_GETPCTRDATA@		; `string'
PUBLIC	??_C@_0BB@JPACFCL@RMSG_SETPCTRDATA@		; `string'
_BSS	SEGMENT
?m_bIsDebugVersion@CStrategyLoader@@1HA DD 01H DUP (?)	; CStrategyLoader::m_bIsDebugVersion
_BSS	ENDS
;	COMDAT ??_C@_0BB@JPACFCL@RMSG_SETPCTRDATA@
CONST	SEGMENT
??_C@_0BB@JPACFCL@RMSG_SETPCTRDATA@ DB 'RMSG_SETPCTRDATA', 00H ; `string'
CONST	ENDS
;	COMDAT ??_C@_0BB@GOOPDKI@RMSG_GETPCTRDATA@
CONST	SEGMENT
??_C@_0BB@GOOPDKI@RMSG_GETPCTRDATA@ DB 'RMSG_GETPCTRDATA', 00H ; `string'
CONST	ENDS
;	COMDAT ??_C@_0P@BKKCOCLK@RMSG_INTERFACE@
CONST	SEGMENT
??_C@_0P@BKKCOCLK@RMSG_INTERFACE@ DB 'RMSG_INTERFACE', 00H ; `string'
CONST	ENDS
PUBLIC	?__empty_global_delete@@YAXPAX@Z		; __empty_global_delete
PUBLIC	?__empty_global_delete@@YAXPAXI@Z		; __empty_global_delete
PUBLIC	___local_stdio_scanf_options
PUBLIC	_sscanf
PUBLIC	??0CStrategyLoader@@QAE@XZ			; CStrategyLoader::CStrategyLoader
PUBLIC	?GetStrategyItem@CStrategyLoader@@QAEPAVCIStrategyItem0001@@XZ ; CStrategyLoader::GetStrategyItem
PUBLIC	??1CStrategyLoader@@UAE@XZ			; CStrategyLoader::~CStrategyLoader
PUBLIC	?LoadStrategyManager@CStrategyLoader@@AAEHXZ	; CStrategyLoader::LoadStrategyManager
PUBLIC	?UnloadStrategyManager@CStrategyLoader@@AAEHXZ	; CStrategyLoader::UnloadStrategyManager
PUBLIC	??_GCStrategyLoader@@UAEPAXI@Z			; CStrategyLoader::`scalar deleting destructor'
PUBLIC	?StringCLSIDFromProgID@CProgIDInfo@@SAJPBDAAV?$CStringT@DV?$StrTraitMFC_DLL@DV?$ChTraitsCRT@D@ATL@@@@@ATL@@@Z ; CProgIDInfo::StringCLSIDFromProgID
PUBLIC	?ComServerFromProgID@CProgIDInfo@@SAJPBDAAV?$CStringT@DV?$StrTraitMFC_DLL@DV?$ChTraitsCRT@D@ATL@@@@@ATL@@@Z ; CProgIDInfo::ComServerFromProgID
PUBLIC	?_OptionsStorage@?1??__local_stdio_scanf_options@@9@4_KA ; `__local_stdio_scanf_options'::`2'::_OptionsStorage
PUBLIC	??_C@_06JHNIBAJK@CLSID?2@			; `string'
PUBLIC	?m_strChartOcxFolder@CStrategyLoader@@1V?$CStringT@DV?$StrTraitMFC_DLL@DV?$ChTraitsCRT@D@ATL@@@@@ATL@@A ; CStrategyLoader::m_strChartOcxFolder
PUBLIC	??_7CStrategyLoader@@6B@			; CStrategyLoader::`vftable'
PUBLIC	??_C@_0BA@CCGIMEPP@?2InprocServer32@		; `string'
PUBLIC	??_C@_0P@IKCDKIKH@?2LocalServer32@		; `string'
PUBLIC	??_C@_0M@CBBNGGHM@PcTrMng?4dll@			; `string'
PUBLIC	??_C@_06NDLAHCHE@?$CFs?$CF08X@			; `string'
PUBLIC	??_C@_02EMFKHFLK@?$CFX@				; `string'
PUBLIC	??_C@_0BD@CMCCCNBF@HANAROIGATEMANAGER@		; `string'
PUBLIC	??_C@_0BN@KNJCMBJP@DataPath?$LI?$KG?5?$LO?r?$MA?$LL?5?$LM?v?5?$LO?x?$LN?$MA?$LE?O?$LE?Y?4@ ; `string'
PUBLIC	??_C@_0BD@PNOKNCJO@ChartMetaTable?4dat@		; `string'
PUBLIC	??_C@_01KICIPPFI@?2@				; `string'
PUBLIC	??_C@_0O@OMPLGAKB@Prog?5ID?5Error@		; `string'
PUBLIC	??_C@_06FBGBHGJE@ProgID@			; `string'
PUBLIC	??_C@_0O@GDACOMFO@Chart?5Version@		; `string'
PUBLIC	??_C@_0P@KDDALGJC@IsDebugVersion@		; `string'
PUBLIC	??_C@_0BE@DBKBGFJM@StrategyManager?4dll@	; `string'
PUBLIC	??_C@_0BJ@EBHLMJOA@?$CFs?$MA?$LL?5Load?G?R?5?$LM?v?5?$LO?x?$LN?$MA?$LE?O?$LE?Y?4@ ; `string'
PUBLIC	??_C@_0BC@GBIBEELI@fnGetStrategyItem@		; `string'
PUBLIC	??_C@_0CL@JIIGDICO@?$CFs?$LP?$KB?$LM?$KN?5fnGetStrategyItem?5?C?$KD?$MA?$LL?5?$LM@ ; `string'
PUBLIC	??_R4CStrategyLoader@@6B@			; CStrategyLoader::`RTTI Complete Object Locator'
PUBLIC	??_R0?AVCStrategyLoader@@@8			; CStrategyLoader `RTTI Type Descriptor'
PUBLIC	??_R3CStrategyLoader@@8				; CStrategyLoader::`RTTI Class Hierarchy Descriptor'
PUBLIC	??_R2CStrategyLoader@@8				; CStrategyLoader::`RTTI Base Class Array'
PUBLIC	??_R1A@?0A@EA@CStrategyLoader@@8		; CStrategyLoader::`RTTI Base Class Descriptor at (0,-1,0,64)'
EXTRN	??3@YAXPAXI@Z:PROC				; operator delete
EXTRN	_atexit:PROC
EXTRN	_strrchr:PROC
EXTRN	__imp__GetEnvironmentVariableA@12:PROC
EXTRN	__imp__SetCurrentDirectoryA@4:PROC
EXTRN	__imp__GetCurrentDirectoryA@8:PROC
EXTRN	__imp__GetLongPathNameA@12:PROC
EXTRN	__imp__FreeLibrary@4:PROC
EXTRN	__imp__GetModuleHandleA@4:PROC
EXTRN	__imp__GetProcAddress@8:PROC
EXTRN	__imp__LoadLibraryA@4:PROC
EXTRN	__imp__GetPrivateProfileStringA@24:PROC
EXTRN	__imp__RegisterWindowMessageA@4:PROC
EXTRN	__imp__MultiByteToWideChar@24:PROC
EXTRN	__imp__WideCharToMultiByte@32:PROC
EXTRN	__imp__RegCloseKey@4:PROC
EXTRN	__imp__RegOpenKeyExA@20:PROC
EXTRN	__imp__RegQueryValueExA@24:PROC
EXTRN	__imp____stdio_common_vsscanf:PROC
EXTRN	__imp__StringFromCLSID@8:PROC
EXTRN	__imp__CLSIDFromProgID@8:PROC
EXTRN	__imp__CoTaskMemFree@4:PROC
EXTRN	__imp_?GetBuffer@?$CSimpleStringT@D$00@ATL@@QAEPADH@Z:PROC
EXTRN	__imp_?GetBufferSetLength@?$CSimpleStringT@D$00@ATL@@QAEPADH@Z:PROC
EXTRN	__imp_?ReleaseBuffer@?$CSimpleStringT@D$00@ATL@@QAEXH@Z:PROC
EXTRN	__imp_?Concatenate@?$CSimpleStringT@D$00@ATL@@KAXAAV12@PBDH1H@Z:PROC
EXTRN	__imp_??0?$CStringT@DV?$StrTraitMFC_DLL@DV?$ChTraitsCRT@D@ATL@@@@@ATL@@QAE@XZ:PROC
EXTRN	__imp_??0?$CStringT@DV?$StrTraitMFC_DLL@DV?$ChTraitsCRT@D@ATL@@@@@ATL@@QAE@PAUIAtlStringMgr@1@@Z:PROC
EXTRN	__imp_??0?$CStringT@DV?$StrTraitMFC_DLL@DV?$ChTraitsCRT@D@ATL@@@@@ATL@@QAE@PBD@Z:PROC
EXTRN	__imp_??1?$CStringT@DV?$StrTraitMFC_DLL@DV?$ChTraitsCRT@D@ATL@@@@@ATL@@QAE@XZ:PROC
EXTRN	__imp_??4?$CStringT@DV?$StrTraitMFC_DLL@DV?$ChTraitsCRT@D@ATL@@@@@ATL@@QAEAAV01@ABV01@@Z:PROC
EXTRN	__imp_??4?$CStringT@DV?$StrTraitMFC_DLL@DV?$ChTraitsCRT@D@ATL@@@@@ATL@@QAEAAV01@PBD@Z:PROC
EXTRN	__imp_?GetManager@?$CStringT@DV?$StrTraitMFC_DLL@DV?$ChTraitsCRT@D@ATL@@@@@ATL@@QBEPAUIAtlStringMgr@2@XZ:PROC
EXTRN	__imp_?ReverseFind@?$CStringT@DV?$StrTraitMFC_DLL@DV?$ChTraitsCRT@D@ATL@@@@@ATL@@QBEHD@Z:PROC
EXTRN	__imp_?Left@?$CStringT@DV?$StrTraitMFC_DLL@DV?$ChTraitsCRT@D@ATL@@@@@ATL@@QBE?AV12@H@Z:PROC
EXTRN	__imp_?Format@?$CStringT@DV?$StrTraitMFC_DLL@DV?$ChTraitsCRT@D@ATL@@@@@ATL@@QAAXPBDZZ:PROC
EXTRN	?AfxMessageBox@@YGHPBDII@Z:PROC			; AfxMessageBox
EXTRN	??_ECStrategyLoader@@UAEPAXI@Z:PROC		; CStrategyLoader::`vector deleting destructor'
EXTRN	@__security_check_cookie@4:PROC
EXTRN	___CxxFrameHandler3:PROC
EXTRN	__alloca_probe_16:PROC
EXTRN	_memset:PROC
EXTRN	??_7type_info@@6B@:QWORD			; type_info::`vftable'
EXTRN	___security_cookie:DWORD
;	COMDAT ?_OptionsStorage@?1??__local_stdio_scanf_options@@9@4_KA
_BSS	SEGMENT
?_OptionsStorage@?1??__local_stdio_scanf_options@@9@4_KA DQ 01H DUP (?) ; `__local_stdio_scanf_options'::`2'::_OptionsStorage
_BSS	ENDS
_BSS	SEGMENT
?m_strChartOcxFolder@CStrategyLoader@@1V?$CStringT@DV?$StrTraitMFC_DLL@DV?$ChTraitsCRT@D@ATL@@@@@ATL@@A DD 01H DUP (?) ; CStrategyLoader::m_strChartOcxFolder
?RMSG_INTERFACE@@3IB DD 01H DUP (?)			; RMSG_INTERFACE
?RMSG_GETPCTRDATA@@3IB DD 01H DUP (?)			; RMSG_GETPCTRDATA
?RMSG_SETPCTRDATA@@3IB DD 01H DUP (?)			; RMSG_SETPCTRDATA
_BSS	ENDS
CRT$XCU	SEGMENT
?RMSG_INTERFACE$initializer$@@3P6AXXZA DD FLAT:??__ERMSG_INTERFACE@@YAXXZ ; RMSG_INTERFACE$initializer$
CRT$XCU	ENDS
;	COMDAT ??_R1A@?0A@EA@CStrategyLoader@@8
rdata$r	SEGMENT
??_R1A@?0A@EA@CStrategyLoader@@8 DD FLAT:??_R0?AVCStrategyLoader@@@8 ; CStrategyLoader::`RTTI Base Class Descriptor at (0,-1,0,64)'
	DD	00H
	DD	00H
	DD	0ffffffffH
	DD	00H
	DD	040H
	DD	FLAT:??_R3CStrategyLoader@@8
rdata$r	ENDS
;	COMDAT ??_R2CStrategyLoader@@8
rdata$r	SEGMENT
??_R2CStrategyLoader@@8 DD FLAT:??_R1A@?0A@EA@CStrategyLoader@@8 ; CStrategyLoader::`RTTI Base Class Array'
rdata$r	ENDS
;	COMDAT ??_R3CStrategyLoader@@8
rdata$r	SEGMENT
??_R3CStrategyLoader@@8 DD 00H				; CStrategyLoader::`RTTI Class Hierarchy Descriptor'
	DD	00H
	DD	01H
	DD	FLAT:??_R2CStrategyLoader@@8
rdata$r	ENDS
;	COMDAT ??_R0?AVCStrategyLoader@@@8
data$rs	SEGMENT
??_R0?AVCStrategyLoader@@@8 DD FLAT:??_7type_info@@6B@	; CStrategyLoader `RTTI Type Descriptor'
	DD	00H
	DB	'.?AVCStrategyLoader@@', 00H
data$rs	ENDS
;	COMDAT ??_R4CStrategyLoader@@6B@
rdata$r	SEGMENT
??_R4CStrategyLoader@@6B@ DD 00H			; CStrategyLoader::`RTTI Complete Object Locator'
	DD	00H
	DD	00H
	DD	FLAT:??_R0?AVCStrategyLoader@@@8
	DD	FLAT:??_R3CStrategyLoader@@8
rdata$r	ENDS
;	COMDAT ??_C@_0CL@JIIGDICO@?$CFs?$LP?$KB?$LM?$KN?5fnGetStrategyItem?5?C?$KD?$MA?$LL?5?$LM@
CONST	SEGMENT
??_C@_0CL@JIIGDICO@?$CFs?$LP?$KB?$LM?$KN?5fnGetStrategyItem?5?C?$KD?$MA?$LL?5?$LM@ DB '%'
	DB	's', 0bfH, 0a1H, 0bcH, 0adH, ' fnGetStrategyItem ', 0c3H, 0a3H
	DB	0c0H, 0bbH, ' ', 0bcH, 0f6H, ' ', 0beH, 0f8H, 0bdH, 0c0H, 0b4H
	DB	0cfH, 0b4H, 0d9H, '.', 00H			; `string'
CONST	ENDS
;	COMDAT ??_C@_0BC@GBIBEELI@fnGetStrategyItem@
CONST	SEGMENT
??_C@_0BC@GBIBEELI@fnGetStrategyItem@ DB 'fnGetStrategyItem', 00H ; `string'
CONST	ENDS
;	COMDAT ??_C@_0BJ@EBHLMJOA@?$CFs?$MA?$LL?5Load?G?R?5?$LM?v?5?$LO?x?$LN?$MA?$LE?O?$LE?Y?4@
CONST	SEGMENT
??_C@_0BJ@EBHLMJOA@?$CFs?$MA?$LL?5Load?G?R?5?$LM?v?5?$LO?x?$LN?$MA?$LE?O?$LE?Y?4@ DB '%'
	DB	's', 0c0H, 0bbH, ' Load', 0c7H, 0d2H, ' ', 0bcH, 0f6H, ' ', 0beH
	DB	0f8H, 0bdH, 0c0H, 0b4H, 0cfH, 0b4H, 0d9H, '.', 00H ; `string'
CONST	ENDS
;	COMDAT ??_C@_0BE@DBKBGFJM@StrategyManager?4dll@
CONST	SEGMENT
??_C@_0BE@DBKBGFJM@StrategyManager?4dll@ DB 'StrategyManager.dll', 00H ; `string'
CONST	ENDS
;	COMDAT ??_C@_0P@KDDALGJC@IsDebugVersion@
CONST	SEGMENT
??_C@_0P@KDDALGJC@IsDebugVersion@ DB 'IsDebugVersion', 00H ; `string'
CONST	ENDS
;	COMDAT ??_C@_0O@GDACOMFO@Chart?5Version@
CONST	SEGMENT
??_C@_0O@GDACOMFO@Chart?5Version@ DB 'Chart Version', 00H ; `string'
CONST	ENDS
;	COMDAT ??_C@_06FBGBHGJE@ProgID@
CONST	SEGMENT
??_C@_06FBGBHGJE@ProgID@ DB 'ProgID', 00H		; `string'
CONST	ENDS
;	COMDAT ??_C@_0O@OMPLGAKB@Prog?5ID?5Error@
CONST	SEGMENT
??_C@_0O@OMPLGAKB@Prog?5ID?5Error@ DB 'Prog ID Error', 00H ; `string'
CONST	ENDS
;	COMDAT ??_C@_01KICIPPFI@?2@
CONST	SEGMENT
??_C@_01KICIPPFI@?2@ DB '\', 00H			; `string'
CONST	ENDS
;	COMDAT ??_C@_0BD@PNOKNCJO@ChartMetaTable?4dat@
CONST	SEGMENT
??_C@_0BD@PNOKNCJO@ChartMetaTable?4dat@ DB 'ChartMetaTable.dat', 00H ; `string'
CONST	ENDS
;	COMDAT ??_C@_0BN@KNJCMBJP@DataPath?$LI?$KG?5?$LO?r?$MA?$LL?5?$LM?v?5?$LO?x?$LN?$MA?$LE?O?$LE?Y?4@
CONST	SEGMENT
??_C@_0BN@KNJCMBJP@DataPath?$LI?$KG?5?$LO?r?$MA?$LL?5?$LM?v?5?$LO?x?$LN?$MA?$LE?O?$LE?Y?4@ DB 'D'
	DB	'ataPath', 0b8H, 0a6H, ' ', 0beH, 0f2H, 0c0H, 0bbH, ' ', 0bcH, 0f6H
	DB	' ', 0beH, 0f8H, 0bdH, 0c0H, 0b4H, 0cfH, 0b4H, 0d9H, '.', 00H ; `string'
CONST	ENDS
;	COMDAT ??_C@_0BD@CMCCCNBF@HANAROIGATEMANAGER@
CONST	SEGMENT
??_C@_0BD@CMCCCNBF@HANAROIGATEMANAGER@ DB 'HANAROIGATEMANAGER', 00H ; `string'
CONST	ENDS
;	COMDAT ??_C@_02EMFKHFLK@?$CFX@
CONST	SEGMENT
??_C@_02EMFKHFLK@?$CFX@ DB '%X', 00H			; `string'
CONST	ENDS
;	COMDAT ??_C@_06NDLAHCHE@?$CFs?$CF08X@
CONST	SEGMENT
??_C@_06NDLAHCHE@?$CFs?$CF08X@ DB '%s%08X', 00H		; `string'
CONST	ENDS
;	COMDAT ??_C@_0M@CBBNGGHM@PcTrMng?4dll@
CONST	SEGMENT
??_C@_0M@CBBNGGHM@PcTrMng?4dll@ DB 'PcTrMng.dll', 00H	; `string'
CONST	ENDS
;	COMDAT ??_C@_0P@IKCDKIKH@?2LocalServer32@
CONST	SEGMENT
??_C@_0P@IKCDKIKH@?2LocalServer32@ DB '\LocalServer32', 00H ; `string'
CONST	ENDS
;	COMDAT ??_C@_0BA@CCGIMEPP@?2InprocServer32@
CONST	SEGMENT
??_C@_0BA@CCGIMEPP@?2InprocServer32@ DB '\InprocServer32', 00H ; `string'
CONST	ENDS
;	COMDAT ??_7CStrategyLoader@@6B@
CONST	SEGMENT
??_7CStrategyLoader@@6B@ DD FLAT:??_R4CStrategyLoader@@6B@ ; CStrategyLoader::`vftable'
	DD	FLAT:??_ECStrategyLoader@@UAEPAXI@Z
CONST	ENDS
;	COMDAT ??_C@_06JHNIBAJK@CLSID?2@
CONST	SEGMENT
??_C@_06JHNIBAJK@CLSID?2@ DB 'CLSID\', 00H		; `string'
CONST	ENDS
;	COMDAT xdata$x
xdata$x	SEGMENT
__unwindtable$?ComServerFromProgID@CProgIDInfo@@SAJPBDAAV?$CStringT@DV?$StrTraitMFC_DLL@DV?$ChTraitsCRT@D@ATL@@@@@ATL@@@Z DD 0ffffffffH
	DD	FLAT:__unwindfunclet$?ComServerFromProgID@CProgIDInfo@@SAJPBDAAV?$CStringT@DV?$StrTraitMFC_DLL@DV?$ChTraitsCRT@D@ATL@@@@@ATL@@@Z$0
	DD	00H
	DD	FLAT:__unwindfunclet$?ComServerFromProgID@CProgIDInfo@@SAJPBDAAV?$CStringT@DV?$StrTraitMFC_DLL@DV?$ChTraitsCRT@D@ATL@@@@@ATL@@@Z$1
	DD	01H
	DD	FLAT:__unwindfunclet$?ComServerFromProgID@CProgIDInfo@@SAJPBDAAV?$CStringT@DV?$StrTraitMFC_DLL@DV?$ChTraitsCRT@D@ATL@@@@@ATL@@@Z$2
__ehfuncinfo$?ComServerFromProgID@CProgIDInfo@@SAJPBDAAV?$CStringT@DV?$StrTraitMFC_DLL@DV?$ChTraitsCRT@D@ATL@@@@@ATL@@@Z DD 019930522H
	DD	03H
	DD	FLAT:__unwindtable$?ComServerFromProgID@CProgIDInfo@@SAJPBDAAV?$CStringT@DV?$StrTraitMFC_DLL@DV?$ChTraitsCRT@D@ATL@@@@@ATL@@@Z
	DD	2 DUP(00H)
	DD	2 DUP(00H)
	DD	00H
	DD	01H
xdata$x	ENDS
;	COMDAT xdata$x
xdata$x	SEGMENT
__unwindtable$?ComServerFromStringCLSID@CProgIDInfo@@SAJPBDAAV?$CStringT@DV?$StrTraitMFC_DLL@DV?$ChTraitsCRT@D@ATL@@@@@ATL@@@Z DD 0ffffffffH
	DD	FLAT:__unwindfunclet$?ComServerFromStringCLSID@CProgIDInfo@@SAJPBDAAV?$CStringT@DV?$StrTraitMFC_DLL@DV?$ChTraitsCRT@D@ATL@@@@@ATL@@@Z$0
	DD	00H
	DD	FLAT:__unwindfunclet$?ComServerFromStringCLSID@CProgIDInfo@@SAJPBDAAV?$CStringT@DV?$StrTraitMFC_DLL@DV?$ChTraitsCRT@D@ATL@@@@@ATL@@@Z$1
__ehfuncinfo$?ComServerFromStringCLSID@CProgIDInfo@@SAJPBDAAV?$CStringT@DV?$StrTraitMFC_DLL@DV?$ChTraitsCRT@D@ATL@@@@@ATL@@@Z DD 019930522H
	DD	02H
	DD	FLAT:__unwindtable$?ComServerFromStringCLSID@CProgIDInfo@@SAJPBDAAV?$CStringT@DV?$StrTraitMFC_DLL@DV?$ChTraitsCRT@D@ATL@@@@@ATL@@@Z
	DD	2 DUP(00H)
	DD	2 DUP(00H)
	DD	00H
	DD	01H
xdata$x	ENDS
;	COMDAT xdata$x
xdata$x	SEGMENT
__unwindtable$?LoadStrategyManager@CStrategyLoader@@AAEHXZ DD 0ffffffffH
	DD	FLAT:__unwindfunclet$?LoadStrategyManager@CStrategyLoader@@AAEHXZ$0
__ehfuncinfo$?LoadStrategyManager@CStrategyLoader@@AAEHXZ DD 019930522H
	DD	01H
	DD	FLAT:__unwindtable$?LoadStrategyManager@CStrategyLoader@@AAEHXZ
	DD	2 DUP(00H)
	DD	2 DUP(00H)
	DD	00H
	DD	01H
xdata$x	ENDS
;	COMDAT xdata$x
xdata$x	SEGMENT
__ehfuncinfo$??0CStrategyLoader@@QAE@XZ DD 019930522H
	DD	08H
	DD	FLAT:__unwindtable$??0CStrategyLoader@@QAE@XZ
	DD	2 DUP(00H)
	DD	2 DUP(00H)
	DD	00H
	DD	01H
__unwindtable$??0CStrategyLoader@@QAE@XZ DD 0ffffffffH
	DD	FLAT:__unwindfunclet$??0CStrategyLoader@@QAE@XZ$0
	DD	00H
	DD	FLAT:__unwindfunclet$??0CStrategyLoader@@QAE@XZ$1
	DD	00H
	DD	FLAT:__unwindfunclet$??0CStrategyLoader@@QAE@XZ$2
	DD	02H
	DD	FLAT:__unwindfunclet$??0CStrategyLoader@@QAE@XZ$7
	DD	03H
	DD	FLAT:__unwindfunclet$??0CStrategyLoader@@QAE@XZ$8
	DD	02H
	DD	FLAT:__unwindfunclet$??0CStrategyLoader@@QAE@XZ$5
	DD	05H
	DD	FLAT:__unwindfunclet$??0CStrategyLoader@@QAE@XZ$6
	DD	00H
	DD	FLAT:__unwindfunclet$??0CStrategyLoader@@QAE@XZ$9
xdata$x	ENDS
;	COMDAT xdata$x
xdata$x	SEGMENT
__unwindtable$??HATL@@YA?AV?$CStringT@DV?$StrTraitMFC_DLL@DV?$ChTraitsCRT@D@ATL@@@@@0@ABV10@PBD@Z DD 0ffffffffH
	DD	FLAT:__unwindfunclet$??HATL@@YA?AV?$CStringT@DV?$StrTraitMFC_DLL@DV?$ChTraitsCRT@D@ATL@@@@@0@ABV10@PBD@Z$0
__ehfuncinfo$??HATL@@YA?AV?$CStringT@DV?$StrTraitMFC_DLL@DV?$ChTraitsCRT@D@ATL@@@@@0@ABV10@PBD@Z DD 019930522H
	DD	01H
	DD	FLAT:__unwindtable$??HATL@@YA?AV?$CStringT@DV?$StrTraitMFC_DLL@DV?$ChTraitsCRT@D@ATL@@@@@0@ABV10@PBD@Z
	DD	2 DUP(00H)
	DD	2 DUP(00H)
	DD	00H
	DD	01H
xdata$x	ENDS
CRT$XCU	SEGMENT
?RMSG_GETPCTRDATA$initializer$@@3P6AXXZA DD FLAT:??__ERMSG_GETPCTRDATA@@YAXXZ ; RMSG_GETPCTRDATA$initializer$
CRT$XCU	ENDS
CRT$XCU	SEGMENT
?RMSG_SETPCTRDATA$initializer$@@3P6AXXZA DD FLAT:??__ERMSG_SETPCTRDATA@@YAXXZ ; RMSG_SETPCTRDATA$initializer$
CRT$XCU	ENDS
CRT$XCU	SEGMENT
??m_strChartOcxFolder$initializer$@CStrategyLoader@@1P6AXXZA@@3P6AXXZA DD FLAT:??__E?m_strChartOcxFolder@CStrategyLoader@@1V?$CStringT@DV?$StrTraitMFC_DLL@DV?$ChTraitsCRT@D@ATL@@@@@ATL@@A@@YAXXZ ; ??m_strChartOcxFolder$initializer$@CStrategyLoader@@1P6AXXZA@@3P6AXXZA
CRT$XCU	ENDS
; Function compile flags: /Ogtp
;	COMDAT ??__F?m_strChartOcxFolder@CStrategyLoader@@1V?$CStringT@DV?$StrTraitMFC_DLL@DV?$ChTraitsCRT@D@ATL@@@@@ATL@@A@@YAXXZ
text$yd	SEGMENT
??__F?m_strChartOcxFolder@CStrategyLoader@@1V?$CStringT@DV?$StrTraitMFC_DLL@DV?$ChTraitsCRT@D@ATL@@@@@ATL@@A@@YAXXZ PROC ; `dynamic atexit destructor for 'CStrategyLoader::m_strChartOcxFolder'', COMDAT
  00000	b9 00 00 00 00	 mov	 ecx, OFFSET ?m_strChartOcxFolder@CStrategyLoader@@1V?$CStringT@DV?$StrTraitMFC_DLL@DV?$ChTraitsCRT@D@ATL@@@@@ATL@@A ; CStrategyLoader::m_strChartOcxFolder
  00005	ff 25 00 00 00
	00		 jmp	 DWORD PTR __imp_??1?$CStringT@DV?$StrTraitMFC_DLL@DV?$ChTraitsCRT@D@ATL@@@@@ATL@@QAE@XZ
??__F?m_strChartOcxFolder@CStrategyLoader@@1V?$CStringT@DV?$StrTraitMFC_DLL@DV?$ChTraitsCRT@D@ATL@@@@@ATL@@A@@YAXXZ ENDP ; `dynamic atexit destructor for 'CStrategyLoader::m_strChartOcxFolder''
text$yd	ENDS
; Function compile flags: /Ogtp
; File D:\git\src\IBK\IBK_DRFN\ProjSrc\SrcDrfn\Chart\Common_ST\StrategyLoader.cpp
;	COMDAT ??__E?m_strChartOcxFolder@CStrategyLoader@@1V?$CStringT@DV?$StrTraitMFC_DLL@DV?$ChTraitsCRT@D@ATL@@@@@ATL@@A@@YAXXZ
text$di	SEGMENT
??__E?m_strChartOcxFolder@CStrategyLoader@@1V?$CStringT@DV?$StrTraitMFC_DLL@DV?$ChTraitsCRT@D@ATL@@@@@ATL@@A@@YAXXZ PROC ; `dynamic initializer for 'CStrategyLoader::m_strChartOcxFolder'', COMDAT

; 80   : CString	CStrategyLoader::m_strChartOcxFolder;

  00000	b9 00 00 00 00	 mov	 ecx, OFFSET ?m_strChartOcxFolder@CStrategyLoader@@1V?$CStringT@DV?$StrTraitMFC_DLL@DV?$ChTraitsCRT@D@ATL@@@@@ATL@@A ; CStrategyLoader::m_strChartOcxFolder
  00005	ff 15 00 00 00
	00		 call	 DWORD PTR __imp_??0?$CStringT@DV?$StrTraitMFC_DLL@DV?$ChTraitsCRT@D@ATL@@@@@ATL@@QAE@XZ
  0000b	68 00 00 00 00	 push	 OFFSET ??__F?m_strChartOcxFolder@CStrategyLoader@@1V?$CStringT@DV?$StrTraitMFC_DLL@DV?$ChTraitsCRT@D@ATL@@@@@ATL@@A@@YAXXZ ; `dynamic atexit destructor for 'CStrategyLoader::m_strChartOcxFolder''
  00010	e8 00 00 00 00	 call	 _atexit
  00015	59		 pop	 ecx
  00016	c3		 ret	 0
??__E?m_strChartOcxFolder@CStrategyLoader@@1V?$CStringT@DV?$StrTraitMFC_DLL@DV?$ChTraitsCRT@D@ATL@@@@@ATL@@A@@YAXXZ ENDP ; `dynamic initializer for 'CStrategyLoader::m_strChartOcxFolder''
text$di	ENDS
; Function compile flags: /Ogtp
; File D:\git\src\IBK\IBK_DRFN\ProjSrc\SrcDrfn\inc\IBaseDefine.h
;	COMDAT ??__ERMSG_SETPCTRDATA@@YAXXZ
text$di	SEGMENT
??__ERMSG_SETPCTRDATA@@YAXXZ PROC			; `dynamic initializer for 'RMSG_SETPCTRDATA'', COMDAT

; 172  : const UINT RMSG_SETPCTRDATA = ::RegisterWindowMessage("RMSG_SETPCTRDATA");

  00000	68 00 00 00 00	 push	 OFFSET ??_C@_0BB@JPACFCL@RMSG_SETPCTRDATA@
  00005	ff 15 00 00 00
	00		 call	 DWORD PTR __imp__RegisterWindowMessageA@4
  0000b	a3 00 00 00 00	 mov	 DWORD PTR ?RMSG_SETPCTRDATA@@3IB, eax
  00010	c3		 ret	 0
??__ERMSG_SETPCTRDATA@@YAXXZ ENDP			; `dynamic initializer for 'RMSG_SETPCTRDATA''
text$di	ENDS
; Function compile flags: /Ogtp
; File D:\git\src\IBK\IBK_DRFN\ProjSrc\SrcDrfn\inc\IBaseDefine.h
;	COMDAT ??__ERMSG_GETPCTRDATA@@YAXXZ
text$di	SEGMENT
??__ERMSG_GETPCTRDATA@@YAXXZ PROC			; `dynamic initializer for 'RMSG_GETPCTRDATA'', COMDAT

; 171  : const UINT RMSG_GETPCTRDATA = ::RegisterWindowMessage("RMSG_GETPCTRDATA");

  00000	68 00 00 00 00	 push	 OFFSET ??_C@_0BB@GOOPDKI@RMSG_GETPCTRDATA@
  00005	ff 15 00 00 00
	00		 call	 DWORD PTR __imp__RegisterWindowMessageA@4
  0000b	a3 00 00 00 00	 mov	 DWORD PTR ?RMSG_GETPCTRDATA@@3IB, eax
  00010	c3		 ret	 0
??__ERMSG_GETPCTRDATA@@YAXXZ ENDP			; `dynamic initializer for 'RMSG_GETPCTRDATA''
text$di	ENDS
; Function compile flags: /Ogtp
; File D:\git\src\IBK\IBK_DRFN\ProjSrc\SrcDrfn\inc\IBaseDefine.h
;	COMDAT ??__ERMSG_INTERFACE@@YAXXZ
text$di	SEGMENT
??__ERMSG_INTERFACE@@YAXXZ PROC				; `dynamic initializer for 'RMSG_INTERFACE'', COMDAT

; 170  : const UINT RMSG_INTERFACE = ::RegisterWindowMessage("RMSG_INTERFACE");

  00000	68 00 00 00 00	 push	 OFFSET ??_C@_0P@BKKCOCLK@RMSG_INTERFACE@
  00005	ff 15 00 00 00
	00		 call	 DWORD PTR __imp__RegisterWindowMessageA@4
  0000b	a3 00 00 00 00	 mov	 DWORD PTR ?RMSG_INTERFACE@@3IB, eax
  00010	c3		 ret	 0
??__ERMSG_INTERFACE@@YAXXZ ENDP				; `dynamic initializer for 'RMSG_INTERFACE''
text$di	ENDS
; Function compile flags: /Ogtp
; File D:\git\src\IBK\IBK_DRFN\ProjSrc\SrcDrfn\Chart\INCLUDE_ST\ProgIDInfo.h
; File C:\Program Files (x86)\Microsoft Visual Studio\2019\Community\VC\Tools\MSVC\14.29.30133\atlmfc\include\atlsimpstr.h
; File D:\git\src\IBK\IBK_DRFN\ProjSrc\SrcDrfn\Chart\INCLUDE_ST\ProgIDInfo.h
; File C:\Program Files (x86)\Windows Kits\10\Include\10.0.22000.0\ucrt\string.h
; File D:\git\src\IBK\IBK_DRFN\ProjSrc\SrcDrfn\Chart\INCLUDE_ST\ProgIDInfo.h
;	COMDAT ?ComServerFromProgID@CProgIDInfo@@SAJPBDAAV?$CStringT@DV?$StrTraitMFC_DLL@DV?$ChTraitsCRT@D@ATL@@@@@ATL@@@Z
_TEXT	SEGMENT
_dwDataType$2 = -36					; size = 4
_dwReceivedSize$3 = -32					; size = 4
_strClsID$ = -28					; size = 4
_hKey$4 = -24						; size = 4
_strShortServerPath$5 = -20				; size = 4
_strSubKey$6 = -16					; size = 4
__$EHRec$ = -12						; size = 12
_p_szProgID$ = 8					; size = 4
_p_strComServer$ = 12					; size = 4
?ComServerFromProgID@CProgIDInfo@@SAJPBDAAV?$CStringT@DV?$StrTraitMFC_DLL@DV?$ChTraitsCRT@D@ATL@@@@@ATL@@@Z PROC ; CProgIDInfo::ComServerFromProgID, COMDAT

; 219  : 	{

  00000	55		 push	 ebp
  00001	8b ec		 mov	 ebp, esp
  00003	6a ff		 push	 -1
  00005	68 00 00 00 00	 push	 __ehhandler$?ComServerFromProgID@CProgIDInfo@@SAJPBDAAV?$CStringT@DV?$StrTraitMFC_DLL@DV?$ChTraitsCRT@D@ATL@@@@@ATL@@@Z
  0000a	64 a1 00 00 00
	00		 mov	 eax, DWORD PTR fs:0
  00010	50		 push	 eax
  00011	83 ec 18	 sub	 esp, 24			; 00000018H
  00014	56		 push	 esi
  00015	57		 push	 edi
  00016	a1 00 00 00 00	 mov	 eax, DWORD PTR ___security_cookie
  0001b	33 c5		 xor	 eax, ebp
  0001d	50		 push	 eax
  0001e	8d 45 f4	 lea	 eax, DWORD PTR __$EHRec$[ebp]
  00021	64 a3 00 00 00
	00		 mov	 DWORD PTR fs:0, eax

; 220  : 		// 1. 먼저 String CLSID를 구한다.
; 221  : 		CString strClsID;

  00027	8d 4d e4	 lea	 ecx, DWORD PTR _strClsID$[ebp]
  0002a	ff 15 00 00 00
	00		 call	 DWORD PTR __imp_??0?$CStringT@DV?$StrTraitMFC_DLL@DV?$ChTraitsCRT@D@ATL@@@@@ATL@@QAE@XZ

; 222  : 		long lResult = StringCLSIDFromProgID( p_szProgID, strClsID);

  00030	8d 45 e4	 lea	 eax, DWORD PTR _strClsID$[ebp]
  00033	c7 45 fc 00 00
	00 00		 mov	 DWORD PTR __$EHRec$[ebp+8], 0
  0003a	50		 push	 eax
  0003b	ff 75 08	 push	 DWORD PTR _p_szProgID$[ebp]
  0003e	e8 00 00 00 00	 call	 ?StringCLSIDFromProgID@CProgIDInfo@@SAJPBDAAV?$CStringT@DV?$StrTraitMFC_DLL@DV?$ChTraitsCRT@D@ATL@@@@@ATL@@@Z ; CProgIDInfo::StringCLSIDFromProgID
  00043	83 c4 08	 add	 esp, 8

; 223  : 		if( lResult < 0) return lResult * 10 - 1;

  00046	85 c0		 test	 eax, eax
  00048	79 0f		 jns	 SHORT $LN2@ComServerF
  0004a	8d 04 80	 lea	 eax, DWORD PTR [eax+eax*4]
  0004d	8d 34 45 ff ff
	ff ff		 lea	 esi, DWORD PTR [eax*2-1]
  00054	e9 99 01 00 00	 jmp	 $LN7@ComServerF
$LN2@ComServerF:
; File C:\Program Files (x86)\Microsoft Visual Studio\2019\Community\VC\Tools\MSVC\14.29.30133\atlmfc\include\atlsimpstr.h

; 377  : 		return( m_pszData );

  00059	8b 75 e4	 mov	 esi, DWORD PTR _strClsID$[ebp]
; File D:\git\src\IBK\IBK_DRFN\ProjSrc\SrcDrfn\Chart\INCLUDE_ST\ProgIDInfo.h

; 170  : 		CString strSubKey;

  0005c	8d 4d f0	 lea	 ecx, DWORD PTR _strSubKey$6[ebp]
  0005f	ff 15 00 00 00
	00		 call	 DWORD PTR __imp_??0?$CStringT@DV?$StrTraitMFC_DLL@DV?$ChTraitsCRT@D@ATL@@@@@ATL@@QAE@XZ

; 171  : 		const int nSubKey = 6 + 38 + 15 + 1;	// NULL 터미네이터 처리
; 172  : 		char *szSubKey = strSubKey.GetBufferSetLength(nSubKey);

  00065	6a 3c		 push	 60			; 0000003cH
  00067	8d 4d f0	 lea	 ecx, DWORD PTR _strSubKey$6[ebp]
  0006a	c6 45 fc 01	 mov	 BYTE PTR __$EHRec$[ebp+8], 1
  0006e	ff 15 00 00 00
	00		 call	 DWORD PTR __imp_?GetBufferSetLength@?$CSimpleStringT@D$00@ATL@@QAEPADH@Z
  00074	8b f8		 mov	 edi, eax

; 173  : 		szSubKey[nSubKey-1]=0;

  00076	c6 47 3b 00	 mov	 BYTE PTR [edi+59], 0

; 174  : 		strcpy( szSubKey, "CLSID\\");

  0007a	8b 0d 00 00 00
	00		 mov	 ecx, DWORD PTR ??_C@_06JHNIBAJK@CLSID?2@
  00080	89 0f		 mov	 DWORD PTR [edi], ecx
  00082	66 8b 0d 04 00
	00 00		 mov	 cx, WORD PTR ??_C@_06JHNIBAJK@CLSID?2@+4
  00089	66 89 4f 04	 mov	 WORD PTR [edi+4], cx
  0008d	8a 0d 06 00 00
	00		 mov	 cl, BYTE PTR ??_C@_06JHNIBAJK@CLSID?2@+6
  00093	88 4f 06	 mov	 BYTE PTR [edi+6], cl

; 175  : 		strcpy( szSubKey + 6, p_szClsID);

  00096	8b cf		 mov	 ecx, edi
  00098	2b ce		 sub	 ecx, esi
  0009a	66 0f 1f 44 00
	00		 npad	 6
$LL17@ComServerF:
  000a0	8a 06		 mov	 al, BYTE PTR [esi]
  000a2	8d 76 01	 lea	 esi, DWORD PTR [esi+1]
  000a5	88 44 31 05	 mov	 BYTE PTR [ecx+esi+5], al
  000a9	84 c0		 test	 al, al
  000ab	75 f3		 jne	 SHORT $LL17@ComServerF

; 176  : 		strcpy( szSubKey + 6 + 38, "\\InprocServer32");

  000ad	0f 10 05 00 00
	00 00		 movups	 xmm0, XMMWORD PTR ??_C@_0BA@CCGIMEPP@?2InprocServer32@

; 177  : 		// 1. Key를 Open한다.
; 178  : 		HKEY hKey;
; 179  : 		if( RegOpenKeyEx( HKEY_CLASSES_ROOT, szSubKey, 0, KEY_QUERY_VALUE, &hKey) != ERROR_SUCCESS)

  000b4	8b 35 00 00 00
	00		 mov	 esi, DWORD PTR __imp__RegOpenKeyExA@20
  000ba	8d 45 e8	 lea	 eax, DWORD PTR _hKey$4[ebp]
  000bd	50		 push	 eax
  000be	6a 01		 push	 1
  000c0	6a 00		 push	 0
  000c2	57		 push	 edi
  000c3	68 00 00 00 80	 push	 -2147483648		; 80000000H
  000c8	0f 11 47 2c	 movups	 XMMWORD PTR [edi+44], xmm0
  000cc	ff d6		 call	 esi
  000ce	85 c0		 test	 eax, eax
  000d0	74 4e		 je	 SHORT $LN12@ComServerF

; 180  : 		{
; 181  : 			// 1.1 InprocServer32가 아니라면 LocalServer32로 확인한다.
; 182  : 			strcpy( szSubKey + 6 + 38, "\\LocalServer32");

  000d2	f3 0f 7e 05 00
	00 00 00	 movq	 xmm0, QWORD PTR ??_C@_0P@IKCDKIKH@?2LocalServer32@
  000da	66 0f d6 47 2c	 movq	 QWORD PTR [edi+44], xmm0
  000df	a1 08 00 00 00	 mov	 eax, DWORD PTR ??_C@_0P@IKCDKIKH@?2LocalServer32@+8
  000e4	89 47 34	 mov	 DWORD PTR [edi+52], eax
  000e7	66 a1 0c 00 00
	00		 mov	 ax, WORD PTR ??_C@_0P@IKCDKIKH@?2LocalServer32@+12
  000ed	66 89 47 38	 mov	 WORD PTR [edi+56], ax
  000f1	a0 0e 00 00 00	 mov	 al, BYTE PTR ??_C@_0P@IKCDKIKH@?2LocalServer32@+14
  000f6	88 47 3a	 mov	 BYTE PTR [edi+58], al

; 183  : 			if( RegOpenKeyEx( HKEY_CLASSES_ROOT, szSubKey, 0, KEY_QUERY_VALUE, &hKey) != ERROR_SUCCESS)

  000f9	8d 45 e8	 lea	 eax, DWORD PTR _hKey$4[ebp]
  000fc	50		 push	 eax
  000fd	6a 01		 push	 1
  000ff	6a 00		 push	 0
  00101	57		 push	 edi
  00102	68 00 00 00 80	 push	 -2147483648		; 80000000H
  00107	ff d6		 call	 esi
  00109	85 c0		 test	 eax, eax
  0010b	74 13		 je	 SHORT $LN12@ComServerF

; 184  : 				return -1;

  0010d	8d 4d f0	 lea	 ecx, DWORD PTR _strSubKey$6[ebp]
  00110	ff 15 00 00 00
	00		 call	 DWORD PTR __imp_??1?$CStringT@DV?$StrTraitMFC_DLL@DV?$ChTraitsCRT@D@ATL@@@@@ATL@@QAE@XZ
  00116	be f4 ff ff ff	 mov	 esi, -12		; fffffff4H
  0011b	e9 d2 00 00 00	 jmp	 $LN7@ComServerF
$LN12@ComServerF:

; 185  : 		}
; 186  : 		// 2. ComServer의 경로를 정보를 구한다.(Default Value이다.)
; 187  : 		DWORD dwDataType, dwReceivedSize = _MAX_PATH;
; 188  : 		CString strShortServerPath;

  00120	8d 4d ec	 lea	 ecx, DWORD PTR _strShortServerPath$5[ebp]
  00123	c7 45 e0 04 01
	00 00		 mov	 DWORD PTR _dwReceivedSize$3[ebp], 260 ; 00000104H
  0012a	ff 15 00 00 00
	00		 call	 DWORD PTR __imp_??0?$CStringT@DV?$StrTraitMFC_DLL@DV?$ChTraitsCRT@D@ATL@@@@@ATL@@QAE@XZ

; 189  : 		char *szShortServerPath = strShortServerPath.GetBufferSetLength( dwReceivedSize);

  00130	ff 75 e0	 push	 DWORD PTR _dwReceivedSize$3[ebp]
  00133	8d 4d ec	 lea	 ecx, DWORD PTR _strShortServerPath$5[ebp]
  00136	c6 45 fc 02	 mov	 BYTE PTR __$EHRec$[ebp+8], 2
  0013a	ff 15 00 00 00
	00		 call	 DWORD PTR __imp_?GetBufferSetLength@?$CSimpleStringT@D$00@ATL@@QAEPADH@Z
  00140	8b f0		 mov	 esi, eax

; 190  : 		RegQueryValueEx( hKey, NULL, 0, &dwDataType, ( unsigned char *)szShortServerPath, &dwReceivedSize);

  00142	8d 45 e0	 lea	 eax, DWORD PTR _dwReceivedSize$3[ebp]
  00145	50		 push	 eax
  00146	56		 push	 esi
  00147	8d 45 dc	 lea	 eax, DWORD PTR _dwDataType$2[ebp]
  0014a	50		 push	 eax
  0014b	6a 00		 push	 0
  0014d	6a 00		 push	 0
  0014f	ff 75 e8	 push	 DWORD PTR _hKey$4[ebp]
  00152	ff 15 00 00 00
	00		 call	 DWORD PTR __imp__RegQueryValueExA@24

; 191  : 		// 3. Key를 닫는다.
; 192  : 		RegCloseKey( hKey);

  00158	ff 75 e8	 push	 DWORD PTR _hKey$4[ebp]
  0015b	ff 15 00 00 00
	00		 call	 DWORD PTR __imp__RegCloseKey@4

; 193  : 		// 4. 구해진 Com Server Path를 확인한다.
; 194  : 		if( !*szShortServerPath) return -2;

  00161	80 3e 00	 cmp	 BYTE PTR [esi], 0
  00164	75 19		 jne	 SHORT $LN13@ComServerF
  00166	8d 4d ec	 lea	 ecx, DWORD PTR _strShortServerPath$5[ebp]
  00169	ff 15 00 00 00
	00		 call	 DWORD PTR __imp_??1?$CStringT@DV?$StrTraitMFC_DLL@DV?$ChTraitsCRT@D@ATL@@@@@ATL@@QAE@XZ
  0016f	8d 4d f0	 lea	 ecx, DWORD PTR _strSubKey$6[ebp]
  00172	ff 15 00 00 00
	00		 call	 DWORD PTR __imp_??1?$CStringT@DV?$StrTraitMFC_DLL@DV?$ChTraitsCRT@D@ATL@@@@@ATL@@QAE@XZ
  00178	be ea ff ff ff	 mov	 esi, -22		; ffffffeaH
  0017d	eb 73		 jmp	 SHORT $LN7@ComServerF
$LN13@ComServerF:
; File C:\Program Files (x86)\Windows Kits\10\Include\10.0.22000.0\ucrt\string.h

; 514  :         return const_cast<char*>(strrchr(static_cast<char const*>(_String), _Ch));

  0017f	6a 2e		 push	 46			; 0000002eH
  00181	56		 push	 esi
  00182	e8 00 00 00 00	 call	 _strrchr
  00187	83 c4 08	 add	 esp, 8
; File D:\git\src\IBK\IBK_DRFN\ProjSrc\SrcDrfn\Chart\INCLUDE_ST\ProgIDInfo.h

; 197  : 		if( !szExtension) return -3;

  0018a	85 c0		 test	 eax, eax
  0018c	75 19		 jne	 SHORT $LN14@ComServerF
  0018e	8d 4d ec	 lea	 ecx, DWORD PTR _strShortServerPath$5[ebp]
  00191	ff 15 00 00 00
	00		 call	 DWORD PTR __imp_??1?$CStringT@DV?$StrTraitMFC_DLL@DV?$ChTraitsCRT@D@ATL@@@@@ATL@@QAE@XZ
  00197	8d 4d f0	 lea	 ecx, DWORD PTR _strSubKey$6[ebp]
  0019a	ff 15 00 00 00
	00		 call	 DWORD PTR __imp_??1?$CStringT@DV?$StrTraitMFC_DLL@DV?$ChTraitsCRT@D@ATL@@@@@ATL@@QAE@XZ
  001a0	be e0 ff ff ff	 mov	 esi, -32		; ffffffe0H
  001a5	eb 4b		 jmp	 SHORT $LN7@ComServerF
$LN14@ComServerF:

; 198  : 		szExtension[ 4] = '\0';
; 199  : 		// 6. Long File Path를 구한다.
; 200  : 		char *szLongServerPath = p_strComServer.GetBuffer( _MAX_PATH);

  001a7	8b 4d 0c	 mov	 ecx, DWORD PTR _p_strComServer$[ebp]
  001aa	68 04 01 00 00	 push	 260			; 00000104H
  001af	c6 40 04 00	 mov	 BYTE PTR [eax+4], 0
  001b3	ff 15 00 00 00
	00		 call	 DWORD PTR __imp_?GetBuffer@?$CSimpleStringT@D$00@ATL@@QAEPADH@Z

; 201  : 		DWORD dwLongPath = GetLongPathName( szShortServerPath, szLongServerPath, _MAX_PATH);

  001b9	68 04 01 00 00	 push	 260			; 00000104H
  001be	50		 push	 eax
  001bf	56		 push	 esi
  001c0	ff 15 00 00 00
	00		 call	 DWORD PTR __imp__GetLongPathNameA@12

; 202  : 		p_strComServer.ReleaseBuffer();

  001c6	8b 4d 0c	 mov	 ecx, DWORD PTR _p_strComServer$[ebp]
  001c9	8b f0		 mov	 esi, eax
  001cb	6a ff		 push	 -1
  001cd	ff 15 00 00 00
	00		 call	 DWORD PTR __imp_?ReleaseBuffer@?$CSimpleStringT@D$00@ATL@@QAEXH@Z

; 203  : 		if( !dwLongPath) return -4;

  001d3	8d 4d ec	 lea	 ecx, DWORD PTR _strShortServerPath$5[ebp]
  001d6	ff 15 00 00 00
	00		 call	 DWORD PTR __imp_??1?$CStringT@DV?$StrTraitMFC_DLL@DV?$ChTraitsCRT@D@ATL@@@@@ATL@@QAE@XZ
  001dc	8d 4d f0	 lea	 ecx, DWORD PTR _strSubKey$6[ebp]
  001df	ff 15 00 00 00
	00		 call	 DWORD PTR __imp_??1?$CStringT@DV?$StrTraitMFC_DLL@DV?$ChTraitsCRT@D@ATL@@@@@ATL@@QAE@XZ
  001e5	85 f6		 test	 esi, esi
  001e7	75 07		 jne	 SHORT $LN15@ComServerF
  001e9	be d6 ff ff ff	 mov	 esi, -42		; ffffffd6H
  001ee	eb 02		 jmp	 SHORT $LN7@ComServerF
$LN15@ComServerF:

; 224  : 		// 2. String CLSID로 Com Server를 구한다.
; 225  : 		lResult = ComServerFromStringCLSID( strClsID, p_strComServer);
; 226  : 		if( lResult < 0) return lResult * 10 - 2;
; 227  : 		return 0;

  001f0	33 f6		 xor	 esi, esi
$LN7@ComServerF:
  001f2	8d 4d e4	 lea	 ecx, DWORD PTR _strClsID$[ebp]
  001f5	ff 15 00 00 00
	00		 call	 DWORD PTR __imp_??1?$CStringT@DV?$StrTraitMFC_DLL@DV?$ChTraitsCRT@D@ATL@@@@@ATL@@QAE@XZ
  001fb	8b c6		 mov	 eax, esi

; 228  : 	}

  001fd	8b 4d f4	 mov	 ecx, DWORD PTR __$EHRec$[ebp]
  00200	64 89 0d 00 00
	00 00		 mov	 DWORD PTR fs:0, ecx
  00207	59		 pop	 ecx
  00208	5f		 pop	 edi
  00209	5e		 pop	 esi
  0020a	8b e5		 mov	 esp, ebp
  0020c	5d		 pop	 ebp
  0020d	c3		 ret	 0
_TEXT	ENDS
;	COMDAT text$x
text$x	SEGMENT
__unwindfunclet$?ComServerFromProgID@CProgIDInfo@@SAJPBDAAV?$CStringT@DV?$StrTraitMFC_DLL@DV?$ChTraitsCRT@D@ATL@@@@@ATL@@@Z$0:
  00000	8d 4d e4	 lea	 ecx, DWORD PTR _strClsID$[ebp]
  00003	ff 25 00 00 00
	00		 jmp	 DWORD PTR __imp_??1?$CStringT@DV?$StrTraitMFC_DLL@DV?$ChTraitsCRT@D@ATL@@@@@ATL@@QAE@XZ
__unwindfunclet$?ComServerFromProgID@CProgIDInfo@@SAJPBDAAV?$CStringT@DV?$StrTraitMFC_DLL@DV?$ChTraitsCRT@D@ATL@@@@@ATL@@@Z$1:
  00009	8d 4d f0	 lea	 ecx, DWORD PTR _strSubKey$6[ebp]
  0000c	ff 25 00 00 00
	00		 jmp	 DWORD PTR __imp_??1?$CStringT@DV?$StrTraitMFC_DLL@DV?$ChTraitsCRT@D@ATL@@@@@ATL@@QAE@XZ
__unwindfunclet$?ComServerFromProgID@CProgIDInfo@@SAJPBDAAV?$CStringT@DV?$StrTraitMFC_DLL@DV?$ChTraitsCRT@D@ATL@@@@@ATL@@@Z$2:
  00012	8d 4d ec	 lea	 ecx, DWORD PTR _strShortServerPath$5[ebp]
  00015	ff 25 00 00 00
	00		 jmp	 DWORD PTR __imp_??1?$CStringT@DV?$StrTraitMFC_DLL@DV?$ChTraitsCRT@D@ATL@@@@@ATL@@QAE@XZ
  0001b	cc		 int	 3
  0001c	cc		 int	 3
  0001d	cc		 int	 3
  0001e	cc		 int	 3
  0001f	cc		 int	 3
__ehhandler$?ComServerFromProgID@CProgIDInfo@@SAJPBDAAV?$CStringT@DV?$StrTraitMFC_DLL@DV?$ChTraitsCRT@D@ATL@@@@@ATL@@@Z:
  00020	90		 npad	 1
  00021	90		 npad	 1
  00022	8b 54 24 08	 mov	 edx, DWORD PTR [esp+8]
  00026	8d 42 0c	 lea	 eax, DWORD PTR [edx+12]
  00029	8b 4a dc	 mov	 ecx, DWORD PTR [edx-36]
  0002c	33 c8		 xor	 ecx, eax
  0002e	e8 00 00 00 00	 call	 @__security_check_cookie@4
  00033	b8 00 00 00 00	 mov	 eax, OFFSET __ehfuncinfo$?ComServerFromProgID@CProgIDInfo@@SAJPBDAAV?$CStringT@DV?$StrTraitMFC_DLL@DV?$ChTraitsCRT@D@ATL@@@@@ATL@@@Z
  00038	e9 00 00 00 00	 jmp	 ___CxxFrameHandler3
text$x	ENDS
?ComServerFromProgID@CProgIDInfo@@SAJPBDAAV?$CStringT@DV?$StrTraitMFC_DLL@DV?$ChTraitsCRT@D@ATL@@@@@ATL@@@Z ENDP ; CProgIDInfo::ComServerFromProgID
; Function compile flags: /Ogtp
; File D:\git\src\IBK\IBK_DRFN\ProjSrc\SrcDrfn\Chart\INCLUDE_ST\ProgIDInfo.h
; File C:\Program Files (x86)\Microsoft Visual Studio\2019\Community\VC\Tools\MSVC\14.29.30133\atlmfc\include\atlconv.h
; File D:\git\src\IBK\IBK_DRFN\ProjSrc\SrcDrfn\Chart\INCLUDE_ST\ProgIDInfo.h
; File C:\Program Files (x86)\Microsoft Visual Studio\2019\Community\VC\Tools\MSVC\14.29.30133\atlmfc\include\atlconv.h
; File D:\git\src\IBK\IBK_DRFN\ProjSrc\SrcDrfn\Chart\INCLUDE_ST\ProgIDInfo.h
;	COMDAT ?StringCLSIDFromProgID@CProgIDInfo@@SAJPBDAAV?$CStringT@DV?$StrTraitMFC_DLL@DV?$ChTraitsCRT@D@ATL@@@@@ATL@@@Z
_TEXT	SEGMENT
_p_strClsID$GSCopy$1$ = -44				; size = 4
_oleClsID$1 = -40					; size = 4
_p_clsID$ = -36						; size = 16
_clsID$ = -20						; size = 16
__$ArrayPad$ = -4					; size = 4
_p_szProgID$ = 8					; size = 4
_p_strClsID$ = 12					; size = 4
?StringCLSIDFromProgID@CProgIDInfo@@SAJPBDAAV?$CStringT@DV?$StrTraitMFC_DLL@DV?$ChTraitsCRT@D@ATL@@@@@ATL@@@Z PROC ; CProgIDInfo::StringCLSIDFromProgID, COMDAT

; 123  : 	{

  00000	55		 push	 ebp
  00001	8b ec		 mov	 ebp, esp
  00003	83 ec 2c	 sub	 esp, 44			; 0000002cH
  00006	a1 00 00 00 00	 mov	 eax, DWORD PTR ___security_cookie
  0000b	33 c5		 xor	 eax, ebp
  0000d	89 45 fc	 mov	 DWORD PTR __$ArrayPad$[ebp], eax
  00010	8b 45 0c	 mov	 eax, DWORD PTR _p_strClsID$[ebp]
  00013	53		 push	 ebx
  00014	56		 push	 esi
  00015	8b 75 08	 mov	 esi, DWORD PTR _p_szProgID$[ebp]
  00018	89 45 d4	 mov	 DWORD PTR _p_strClsID$GSCopy$1$[ebp], eax
  0001b	57		 push	 edi

; 51   : 		LPCOLESTR szOleProgID = T2COLE( p_szProgID);

  0001c	85 f6		 test	 esi, esi
  0001e	74 42		 je	 SHORT $LN18@StringCLSI
  00020	8b ce		 mov	 ecx, esi
  00022	8d 51 01	 lea	 edx, DWORD PTR [ecx+1]
$LL35@StringCLSI:
  00025	8a 01		 mov	 al, BYTE PTR [ecx]
  00027	41		 inc	 ecx
  00028	84 c0		 test	 al, al
  0002a	75 f9		 jne	 SHORT $LL35@StringCLSI
  0002c	2b ca		 sub	 ecx, edx
  0002e	8d 59 01	 lea	 ebx, DWORD PTR [ecx+1]
  00031	81 fb ff ff ff
	3f		 cmp	 ebx, 1073741823		; 3fffffffH
  00037	7f 29		 jg	 SHORT $LN18@StringCLSI
  00039	8d 04 1b	 lea	 eax, DWORD PTR [ebx+ebx]
  0003c	e8 00 00 00 00	 call	 __alloca_probe_16
  00041	8b fc		 mov	 edi, esp
; File C:\Program Files (x86)\Microsoft Visual Studio\2019\Community\VC\Tools\MSVC\14.29.30133\atlmfc\include\atlconv.h

; 566  : 	if (lpw == NULL || lpa == NULL)

  00043	85 ff		 test	 edi, edi
  00045	74 1b		 je	 SHORT $LN18@StringCLSI

; 567  : 		return NULL;
; 568  : 	// verify that no illegal character present
; 569  : 	// since lpw was allocated based on the size of lpa
; 570  : 	// don't worry about the number of chars
; 571  : 	*lpw = '\0';
; 572  : 	int ret = MultiByteToWideChar(acp, 0, lpa, -1, lpw, nChars);

  00047	53		 push	 ebx
  00048	57		 push	 edi
  00049	6a ff		 push	 -1
  0004b	33 c0		 xor	 eax, eax
  0004d	56		 push	 esi
  0004e	50		 push	 eax
  0004f	6a 03		 push	 3
  00051	66 89 07	 mov	 WORD PTR [edi], ax
  00054	ff 15 00 00 00
	00		 call	 DWORD PTR __imp__MultiByteToWideChar@24

; 573  : 	if(ret == 0)

  0005a	f7 d8		 neg	 eax
  0005c	1b c0		 sbb	 eax, eax
  0005e	23 c7		 and	 eax, edi

; 574  : 	{
; 575  : 		ATLASSERT(FALSE);
; 576  : 		return NULL;
; 577  : 	}
; 578  : 	return lpw;

  00060	eb 02		 jmp	 SHORT $LN15@StringCLSI
$LN18@StringCLSI:
; File D:\git\src\IBK\IBK_DRFN\ProjSrc\SrcDrfn\Chart\INCLUDE_ST\ProgIDInfo.h

; 52   : 		HRESULT hResult = ::CLSIDFromProgID( szOleProgID, p_pClsID);

  00062	33 c0		 xor	 eax, eax
$LN15@StringCLSI:
  00064	8d 4d ec	 lea	 ecx, DWORD PTR _clsID$[ebp]
  00067	51		 push	 ecx
  00068	50		 push	 eax
  00069	ff 15 00 00 00
	00		 call	 DWORD PTR __imp__CLSIDFromProgID@8
  0006f	8b c8		 mov	 ecx, eax

; 53   : 		if( hResult == S_OK) return 0;

  00071	85 c9		 test	 ecx, ecx
  00073	74 48		 je	 SHORT $LN2@StringCLSI

; 54   : 		else if( hResult == CO_E_CLASSSTRING) return -1;

  00075	81 f9 f3 01 04
	80		 cmp	 ecx, -2147221005	; 800401f3H
  0007b	75 19		 jne	 SHORT $LN8@StringCLSI
  0007d	b8 f5 ff ff ff	 mov	 eax, -11		; fffffff5H

; 132  : 	}

  00082	8d 65 c8	 lea	 esp, DWORD PTR [ebp-56]
  00085	5f		 pop	 edi
  00086	5e		 pop	 esi
  00087	5b		 pop	 ebx
  00088	8b 4d fc	 mov	 ecx, DWORD PTR __$ArrayPad$[ebp]
  0008b	33 cd		 xor	 ecx, ebp
  0008d	e8 00 00 00 00	 call	 @__security_check_cookie@4
  00092	8b e5		 mov	 esp, ebp
  00094	5d		 pop	 ebp
  00095	c3		 ret	 0
$LN8@StringCLSI:

; 55   : 		else if( hResult == REGDB_E_WRITEREGDB) return -2;

  00096	81 f9 51 01 04
	80		 cmp	 ecx, -2147221167	; 80040151H
  0009c	b8 e1 ff ff ff	 mov	 eax, -31		; ffffffe1H
  000a1	ba eb ff ff ff	 mov	 edx, -21		; ffffffebH
  000a6	0f 44 c2	 cmove	 eax, edx

; 132  : 	}

  000a9	8d 65 c8	 lea	 esp, DWORD PTR [ebp-56]
  000ac	5f		 pop	 edi
  000ad	5e		 pop	 esi
  000ae	5b		 pop	 ebx
  000af	8b 4d fc	 mov	 ecx, DWORD PTR __$ArrayPad$[ebp]
  000b2	33 cd		 xor	 ecx, ebp
  000b4	e8 00 00 00 00	 call	 @__security_check_cookie@4
  000b9	8b e5		 mov	 esp, ebp
  000bb	5d		 pop	 ebp
  000bc	c3		 ret	 0
$LN2@StringCLSI:

; 124  : 		// 1. 먼저 CLSID를 구한다.
; 125  : 		CLSID clsID;
; 126  : 		LONG lResult = CLSIDFromProgID( p_szProgID, &clsID);
; 127  : 		if( lResult < 0) return lResult * 10 - 1;
; 128  : 		// 2. String CLSID를 구한다.
; 129  : 		lResult = StringFromCLSID( clsID, p_strClsID);

  000bd	0f 10 45 ec	 movups	 xmm0, XMMWORD PTR _clsID$[ebp]

; 89   : 		HRESULT hResult = ::StringFromCLSID( p_clsID, &oleClsID);

  000c1	8d 45 d8	 lea	 eax, DWORD PTR _oleClsID$1[ebp]
  000c4	50		 push	 eax
  000c5	8d 45 dc	 lea	 eax, DWORD PTR _p_clsID$[ebp]
  000c8	50		 push	 eax

; 124  : 		// 1. 먼저 CLSID를 구한다.
; 125  : 		CLSID clsID;
; 126  : 		LONG lResult = CLSIDFromProgID( p_szProgID, &clsID);
; 127  : 		if( lResult < 0) return lResult * 10 - 1;
; 128  : 		// 2. String CLSID를 구한다.
; 129  : 		lResult = StringFromCLSID( clsID, p_strClsID);

  000c9	0f 11 45 dc	 movups	 XMMWORD PTR _p_clsID$[ebp], xmm0

; 89   : 		HRESULT hResult = ::StringFromCLSID( p_clsID, &oleClsID);

  000cd	ff 15 00 00 00
	00		 call	 DWORD PTR __imp__StringFromCLSID@8

; 90   : 		if( hResult != S_OK) return -1;

  000d3	85 c0		 test	 eax, eax
  000d5	75 7e		 jne	 SHORT $LN34@StringCLSI

; 92   : 		p_strClsID = OLE2T( oleClsID);

  000d7	8b 7d d8	 mov	 edi, DWORD PTR _oleClsID$1[ebp]
  000da	85 ff		 test	 edi, edi
  000dc	74 4c		 je	 SHORT $LN30@StringCLSI
  000de	8b cf		 mov	 ecx, edi
  000e0	8d 51 02	 lea	 edx, DWORD PTR [ecx+2]
$LL36@StringCLSI:
  000e3	66 8b 01	 mov	 ax, WORD PTR [ecx]
  000e6	83 c1 02	 add	 ecx, 2
  000e9	66 85 c0	 test	 ax, ax
  000ec	75 f5		 jne	 SHORT $LL36@StringCLSI
  000ee	2b ca		 sub	 ecx, edx
  000f0	d1 f9		 sar	 ecx, 1
  000f2	8d 59 01	 lea	 ebx, DWORD PTR [ecx+1]
  000f5	81 fb ff ff ff
	3f		 cmp	 ebx, 1073741823		; 3fffffffH
  000fb	7f 2d		 jg	 SHORT $LN30@StringCLSI
  000fd	03 db		 add	 ebx, ebx
  000ff	8b c3		 mov	 eax, ebx
  00101	e8 00 00 00 00	 call	 __alloca_probe_16
  00106	8b f4		 mov	 esi, esp
; File C:\Program Files (x86)\Microsoft Visual Studio\2019\Community\VC\Tools\MSVC\14.29.30133\atlmfc\include\atlconv.h

; 591  : 	if (lpa == NULL || lpw == NULL)

  00108	85 f6		 test	 esi, esi
  0010a	74 1e		 je	 SHORT $LN30@StringCLSI

; 592  : 		return NULL;
; 593  : 	// verify that no illegal character present
; 594  : 	// since lpa was allocated based on the size of lpw
; 595  : 	// don't worry about the number of chars
; 596  : 	*lpa = '\0';
; 597  : 	int ret = WideCharToMultiByte(acp, 0, lpw, -1, lpa, nChars, NULL, NULL);

  0010c	6a 00		 push	 0
  0010e	6a 00		 push	 0
  00110	53		 push	 ebx
  00111	56		 push	 esi
  00112	6a ff		 push	 -1
  00114	57		 push	 edi
  00115	6a 00		 push	 0
  00117	6a 03		 push	 3
  00119	c6 06 00	 mov	 BYTE PTR [esi], 0
  0011c	ff 15 00 00 00
	00		 call	 DWORD PTR __imp__WideCharToMultiByte@32

; 598  : 	if(ret == 0)

  00122	f7 d8		 neg	 eax
  00124	1b c0		 sbb	 eax, eax
  00126	23 c6		 and	 eax, esi

; 599  : 	{
; 600  : 		ATLASSERT(FALSE);
; 601  : 		return NULL;
; 602  : 	}
; 603  : 	return lpa;

  00128	eb 02		 jmp	 SHORT $LN27@StringCLSI
$LN30@StringCLSI:
; File D:\git\src\IBK\IBK_DRFN\ProjSrc\SrcDrfn\Chart\INCLUDE_ST\ProgIDInfo.h

; 92   : 		p_strClsID = OLE2T( oleClsID);

  0012a	33 c0		 xor	 eax, eax
$LN27@StringCLSI:
  0012c	8b 4d d4	 mov	 ecx, DWORD PTR _p_strClsID$GSCopy$1$[ebp]
  0012f	50		 push	 eax
  00130	ff 15 00 00 00
	00		 call	 DWORD PTR __imp_??4?$CStringT@DV?$StrTraitMFC_DLL@DV?$ChTraitsCRT@D@ATL@@@@@ATL@@QAEAAV01@PBD@Z

; 93   : 		CoTaskMemFree( oleClsID);

  00136	ff 75 d8	 push	 DWORD PTR _oleClsID$1[ebp]
  00139	ff 15 00 00 00
	00		 call	 DWORD PTR __imp__CoTaskMemFree@4

; 131  : 		return 0;

  0013f	33 c0		 xor	 eax, eax

; 132  : 	}

  00141	8d 65 c8	 lea	 esp, DWORD PTR [ebp-56]
  00144	5f		 pop	 edi
  00145	5e		 pop	 esi
  00146	5b		 pop	 ebx
  00147	8b 4d fc	 mov	 ecx, DWORD PTR __$ArrayPad$[ebp]
  0014a	33 cd		 xor	 ecx, ebp
  0014c	e8 00 00 00 00	 call	 @__security_check_cookie@4
  00151	8b e5		 mov	 esp, ebp
  00153	5d		 pop	 ebp
  00154	c3		 ret	 0
$LN34@StringCLSI:

; 130  : 		if( lResult < 0) return lResult * 10 - 2;

  00155	b8 f4 ff ff ff	 mov	 eax, -12		; fffffff4H

; 132  : 	}

  0015a	8d 65 c8	 lea	 esp, DWORD PTR [ebp-56]
  0015d	5f		 pop	 edi
  0015e	5e		 pop	 esi
  0015f	5b		 pop	 ebx
  00160	8b 4d fc	 mov	 ecx, DWORD PTR __$ArrayPad$[ebp]
  00163	33 cd		 xor	 ecx, ebp
  00165	e8 00 00 00 00	 call	 @__security_check_cookie@4
  0016a	8b e5		 mov	 esp, ebp
  0016c	5d		 pop	 ebp
  0016d	c3		 ret	 0
?StringCLSIDFromProgID@CProgIDInfo@@SAJPBDAAV?$CStringT@DV?$StrTraitMFC_DLL@DV?$ChTraitsCRT@D@ATL@@@@@ATL@@@Z ENDP ; CProgIDInfo::StringCLSIDFromProgID
_TEXT	ENDS
; Function compile flags: /Ogtp
; File D:\git\src\IBK\IBK_DRFN\ProjSrc\SrcDrfn\Chart\Common_ST\StrategyLoader.cpp
;	COMDAT ??_GCStrategyLoader@@UAEPAXI@Z
_TEXT	SEGMENT
___flags$ = 8						; size = 4
??_GCStrategyLoader@@UAEPAXI@Z PROC			; CStrategyLoader::`scalar deleting destructor', COMDAT
; _this$ = ecx
  00000	55		 push	 ebp
  00001	8b ec		 mov	 ebp, esp

; 74   : {

  00003	56		 push	 esi
  00004	8b f1		 mov	 esi, ecx

; 117  : 	if(!m_hStrategyManager) return TRUE;

  00006	8b 46 08	 mov	 eax, DWORD PTR [esi+8]

; 74   : {

  00009	c7 06 00 00 00
	00		 mov	 DWORD PTR [esi], OFFSET ??_7CStrategyLoader@@6B@

; 117  : 	if(!m_hStrategyManager) return TRUE;

  0000f	85 c0		 test	 eax, eax
  00011	74 19		 je	 SHORT $LN9@scalar

; 118  : 	BOOL bResult = FALSE;
; 119  : 	bResult = FreeLibrary(m_hStrategyManager);

  00013	50		 push	 eax
  00014	ff 15 00 00 00
	00		 call	 DWORD PTR __imp__FreeLibrary@4

; 120  : 	if(bResult)

  0001a	85 c0		 test	 eax, eax
  0001c	74 0e		 je	 SHORT $LN9@scalar

; 121  : 	{
; 122  : 		m_hStrategyManager = NULL;

  0001e	c7 46 08 00 00
	00 00		 mov	 DWORD PTR [esi+8], 0

; 123  : 		m_fnGetStrategyItem = NULL;

  00025	c7 46 04 00 00
	00 00		 mov	 DWORD PTR [esi+4], 0
$LN9@scalar:

; 76   : }

  0002c	8d 4e 0c	 lea	 ecx, DWORD PTR [esi+12]
  0002f	ff 15 00 00 00
	00		 call	 DWORD PTR __imp_??1?$CStringT@DV?$StrTraitMFC_DLL@DV?$ChTraitsCRT@D@ATL@@@@@ATL@@QAE@XZ
  00035	f6 45 08 01	 test	 BYTE PTR ___flags$[ebp], 1
  00039	74 0b		 je	 SHORT $LN12@scalar
  0003b	6a 10		 push	 16			; 00000010H
  0003d	56		 push	 esi
  0003e	e8 00 00 00 00	 call	 ??3@YAXPAXI@Z		; operator delete
  00043	83 c4 08	 add	 esp, 8
$LN12@scalar:
  00046	8b c6		 mov	 eax, esi
  00048	5e		 pop	 esi
  00049	5d		 pop	 ebp
  0004a	c2 04 00	 ret	 4
??_GCStrategyLoader@@UAEPAXI@Z ENDP			; CStrategyLoader::`scalar deleting destructor'
_TEXT	ENDS
; Function compile flags: /Ogtp
; File D:\git\src\IBK\IBK_DRFN\ProjSrc\SrcDrfn\Chart\Common_ST\StrategyLoader.cpp
;	COMDAT ?UnloadStrategyManager@CStrategyLoader@@AAEHXZ
_TEXT	SEGMENT
?UnloadStrategyManager@CStrategyLoader@@AAEHXZ PROC	; CStrategyLoader::UnloadStrategyManager, COMDAT
; _this$ = ecx

; 116  : {

  00000	56		 push	 esi
  00001	8b f1		 mov	 esi, ecx

; 117  : 	if(!m_hStrategyManager) return TRUE;

  00003	8b 46 08	 mov	 eax, DWORD PTR [esi+8]
  00006	85 c0		 test	 eax, eax
  00008	74 19		 je	 SHORT $LN6@UnloadStra

; 118  : 	BOOL bResult = FALSE;
; 119  : 	bResult = FreeLibrary(m_hStrategyManager);

  0000a	50		 push	 eax
  0000b	ff 15 00 00 00
	00		 call	 DWORD PTR __imp__FreeLibrary@4

; 120  : 	if(bResult)

  00011	85 c0		 test	 eax, eax
  00013	74 15		 je	 SHORT $LN3@UnloadStra

; 121  : 	{
; 122  : 		m_hStrategyManager = NULL;

  00015	c7 46 08 00 00
	00 00		 mov	 DWORD PTR [esi+8], 0

; 123  : 		m_fnGetStrategyItem = NULL;

  0001c	c7 46 04 00 00
	00 00		 mov	 DWORD PTR [esi+4], 0
$LN6@UnloadStra:

; 128  : 	}
; 129  : 	return TRUE;
; 130  : }

  00023	b8 01 00 00 00	 mov	 eax, 1
  00028	5e		 pop	 esi
  00029	c3		 ret	 0
$LN3@UnloadStra:

; 124  : 	}
; 125  : 	else
; 126  : 	{
; 127  : 		return FALSE;

  0002a	33 c0		 xor	 eax, eax
  0002c	5e		 pop	 esi

; 128  : 	}
; 129  : 	return TRUE;
; 130  : }

  0002d	c3		 ret	 0
?UnloadStrategyManager@CStrategyLoader@@AAEHXZ ENDP	; CStrategyLoader::UnloadStrategyManager
_TEXT	ENDS
; Function compile flags: /Ogtp
; File D:\git\src\IBK\IBK_DRFN\ProjSrc\SrcDrfn\Chart\Common_ST\StrategyLoader.cpp
;	COMDAT ?LoadStrategyManager@CStrategyLoader@@AAEHXZ
_TEXT	SEGMENT
_strMessage$ = -276					; size = 4
_szCurrentDirectory$ = -272				; size = 256
__$ArrayPad$ = -16					; size = 4
__$EHRec$ = -12						; size = 12
?LoadStrategyManager@CStrategyLoader@@AAEHXZ PROC	; CStrategyLoader::LoadStrategyManager, COMDAT
; _this$ = ecx

; 83   : {

  00000	55		 push	 ebp
  00001	8b ec		 mov	 ebp, esp
  00003	6a ff		 push	 -1
  00005	68 00 00 00 00	 push	 __ehhandler$?LoadStrategyManager@CStrategyLoader@@AAEHXZ
  0000a	64 a1 00 00 00
	00		 mov	 eax, DWORD PTR fs:0
  00010	50		 push	 eax
  00011	81 ec 08 01 00
	00		 sub	 esp, 264		; 00000108H
  00017	a1 00 00 00 00	 mov	 eax, DWORD PTR ___security_cookie
  0001c	33 c5		 xor	 eax, ebp
  0001e	89 45 f0	 mov	 DWORD PTR __$ArrayPad$[ebp], eax
  00021	56		 push	 esi
  00022	50		 push	 eax
  00023	8d 45 f4	 lea	 eax, DWORD PTR __$EHRec$[ebp]
  00026	64 a3 00 00 00
	00		 mov	 DWORD PTR fs:0, eax
  0002c	8b f1		 mov	 esi, ecx

; 84   : 	CString strMessage;	

  0002e	8d 8d ec fe ff
	ff		 lea	 ecx, DWORD PTR _strMessage$[ebp]
  00034	ff 15 00 00 00
	00		 call	 DWORD PTR __imp_??0?$CStringT@DV?$StrTraitMFC_DLL@DV?$ChTraitsCRT@D@ATL@@@@@ATL@@QAE@XZ

; 85   : 	if(m_hStrategyManager) return TRUE;

  0003a	83 7e 08 00	 cmp	 DWORD PTR [esi+8], 0
  0003e	c7 45 fc 00 00
	00 00		 mov	 DWORD PTR __$EHRec$[ebp+8], 0
  00045	0f 85 af 00 00
	00		 jne	 $LN6@LoadStrate

; 86   : 
; 87   : 	char szCurrentDirectory[ 256];
; 88   : 	if( GetCurrentDirectory( 256, szCurrentDirectory))

  0004b	8d 85 f0 fe ff
	ff		 lea	 eax, DWORD PTR _szCurrentDirectory$[ebp]
  00051	50		 push	 eax
  00052	68 00 01 00 00	 push	 256			; 00000100H
  00057	ff 15 00 00 00
	00		 call	 DWORD PTR __imp__GetCurrentDirectoryA@8
  0005d	85 c0		 test	 eax, eax
  0005f	74 29		 je	 SHORT $LN4@LoadStrate

; 89   : 	{
; 90   : 		if( SetCurrentDirectory( m_strChartOcxFolder))

  00061	ff 35 00 00 00
	00		 push	 DWORD PTR ?m_strChartOcxFolder@CStrategyLoader@@1V?$CStringT@DV?$StrTraitMFC_DLL@DV?$ChTraitsCRT@D@ATL@@@@@ATL@@A ; CStrategyLoader::m_strChartOcxFolder
  00067	ff 15 00 00 00
	00		 call	 DWORD PTR __imp__SetCurrentDirectoryA@4
  0006d	85 c0		 test	 eax, eax
  0006f	74 19		 je	 SHORT $LN4@LoadStrate

; 91   : 		{
; 92   : 			m_hStrategyManager  = (HINSTANCE) ::LoadLibrary(m_strStrategyManager);

  00071	ff 76 0c	 push	 DWORD PTR [esi+12]
  00074	ff 15 00 00 00
	00		 call	 DWORD PTR __imp__LoadLibraryA@4
  0007a	89 46 08	 mov	 DWORD PTR [esi+8], eax

; 93   : 
; 94   : 			SetCurrentDirectory( szCurrentDirectory);

  0007d	8d 85 f0 fe ff
	ff		 lea	 eax, DWORD PTR _szCurrentDirectory$[ebp]
  00083	50		 push	 eax
  00084	ff 15 00 00 00
	00		 call	 DWORD PTR __imp__SetCurrentDirectoryA@4
$LN4@LoadStrate:

; 95   : 		}
; 96   : 	}
; 97   : 	
; 98   : 	if( m_hStrategyManager == NULL)

  0008a	8b 46 08	 mov	 eax, DWORD PTR [esi+8]
  0008d	85 c0		 test	 eax, eax
  0008f	75 2b		 jne	 SHORT $LN5@LoadStrate

; 99   : 	{
; 100  : 		strMessage.Format("%s을 Load할 수 없습니다.",m_strStrategyManager);

  00091	ff 76 0c	 push	 DWORD PTR [esi+12]
  00094	8d 85 ec fe ff
	ff		 lea	 eax, DWORD PTR _strMessage$[ebp]
  0009a	68 00 00 00 00	 push	 OFFSET ??_C@_0BJ@EBHLMJOA@?$CFs?$MA?$LL?5Load?G?R?5?$LM?v?5?$LO?x?$LN?$MA?$LE?O?$LE?Y?4@
  0009f	50		 push	 eax
  000a0	ff 15 00 00 00
	00		 call	 DWORD PTR __imp_?Format@?$CStringT@DV?$StrTraitMFC_DLL@DV?$ChTraitsCRT@D@ATL@@@@@ATL@@QAAXPBDZZ
  000a6	83 c4 0c	 add	 esp, 12			; 0000000cH

; 101  : 		AfxMessageBox(strMessage);

  000a9	6a 00		 push	 0
  000ab	6a 00		 push	 0
  000ad	ff b5 ec fe ff
	ff		 push	 DWORD PTR _strMessage$[ebp]
  000b3	e8 00 00 00 00	 call	 ?AfxMessageBox@@YGHPBDII@Z ; AfxMessageBox

; 102  : 		return FALSE;

  000b8	33 f6		 xor	 esi, esi
  000ba	eb 43		 jmp	 SHORT $LN11@LoadStrate
$LN5@LoadStrate:

; 103  : 	}
; 104  : 	m_fnGetStrategyItem = (_DLL_GetStrategyItem)::GetProcAddress(m_hStrategyManager,"fnGetStrategyItem");

  000bc	68 00 00 00 00	 push	 OFFSET ??_C@_0BC@GBIBEELI@fnGetStrategyItem@
  000c1	50		 push	 eax
  000c2	ff 15 00 00 00
	00		 call	 DWORD PTR __imp__GetProcAddress@8
  000c8	89 46 04	 mov	 DWORD PTR [esi+4], eax

; 105  : 	if(m_fnGetStrategyItem == NULL)

  000cb	85 c0		 test	 eax, eax
  000cd	75 2b		 jne	 SHORT $LN6@LoadStrate

; 106  : 	{
; 107  : 		strMessage.Format("%s에서 fnGetStrategyItem 찾을 수 없습니다.",m_strStrategyManager);

  000cf	ff 76 0c	 push	 DWORD PTR [esi+12]
  000d2	8d 85 ec fe ff
	ff		 lea	 eax, DWORD PTR _strMessage$[ebp]
  000d8	68 00 00 00 00	 push	 OFFSET ??_C@_0CL@JIIGDICO@?$CFs?$LP?$KB?$LM?$KN?5fnGetStrategyItem?5?C?$KD?$MA?$LL?5?$LM@
  000dd	50		 push	 eax
  000de	ff 15 00 00 00
	00		 call	 DWORD PTR __imp_?Format@?$CStringT@DV?$StrTraitMFC_DLL@DV?$ChTraitsCRT@D@ATL@@@@@ATL@@QAAXPBDZZ
  000e4	83 c4 0c	 add	 esp, 12			; 0000000cH

; 108  : 		AfxMessageBox(strMessage);

  000e7	6a 00		 push	 0
  000e9	6a 00		 push	 0
  000eb	ff b5 ec fe ff
	ff		 push	 DWORD PTR _strMessage$[ebp]
  000f1	e8 00 00 00 00	 call	 ?AfxMessageBox@@YGHPBDII@Z ; AfxMessageBox

; 109  : 		return FALSE;

  000f6	33 f6		 xor	 esi, esi
  000f8	eb 05		 jmp	 SHORT $LN11@LoadStrate
$LN6@LoadStrate:

; 110  : 	}
; 111  : 	return TRUE;

  000fa	be 01 00 00 00	 mov	 esi, 1
$LN11@LoadStrate:
  000ff	8d 8d ec fe ff
	ff		 lea	 ecx, DWORD PTR _strMessage$[ebp]
  00105	ff 15 00 00 00
	00		 call	 DWORD PTR __imp_??1?$CStringT@DV?$StrTraitMFC_DLL@DV?$ChTraitsCRT@D@ATL@@@@@ATL@@QAE@XZ
  0010b	8b c6		 mov	 eax, esi

; 112  : 
; 113  : }

  0010d	8b 4d f4	 mov	 ecx, DWORD PTR __$EHRec$[ebp]
  00110	64 89 0d 00 00
	00 00		 mov	 DWORD PTR fs:0, ecx
  00117	59		 pop	 ecx
  00118	5e		 pop	 esi
  00119	8b 4d f0	 mov	 ecx, DWORD PTR __$ArrayPad$[ebp]
  0011c	33 cd		 xor	 ecx, ebp
  0011e	e8 00 00 00 00	 call	 @__security_check_cookie@4
  00123	8b e5		 mov	 esp, ebp
  00125	5d		 pop	 ebp
  00126	c3		 ret	 0
_TEXT	ENDS
;	COMDAT text$x
text$x	SEGMENT
__unwindfunclet$?LoadStrategyManager@CStrategyLoader@@AAEHXZ$0:
  00000	8d 8d ec fe ff
	ff		 lea	 ecx, DWORD PTR _strMessage$[ebp]
  00006	ff 25 00 00 00
	00		 jmp	 DWORD PTR __imp_??1?$CStringT@DV?$StrTraitMFC_DLL@DV?$ChTraitsCRT@D@ATL@@@@@ATL@@QAE@XZ
  0000c	cc		 int	 3
  0000d	cc		 int	 3
  0000e	cc		 int	 3
  0000f	cc		 int	 3
  00010	cc		 int	 3
__ehhandler$?LoadStrategyManager@CStrategyLoader@@AAEHXZ:
  00011	90		 npad	 1
  00012	90		 npad	 1
  00013	8b 54 24 08	 mov	 edx, DWORD PTR [esp+8]
  00017	8d 42 0c	 lea	 eax, DWORD PTR [edx+12]
  0001a	8b 8a f0 fe ff
	ff		 mov	 ecx, DWORD PTR [edx-272]
  00020	33 c8		 xor	 ecx, eax
  00022	e8 00 00 00 00	 call	 @__security_check_cookie@4
  00027	8b 4a fc	 mov	 ecx, DWORD PTR [edx-4]
  0002a	33 c8		 xor	 ecx, eax
  0002c	e8 00 00 00 00	 call	 @__security_check_cookie@4
  00031	b8 00 00 00 00	 mov	 eax, OFFSET __ehfuncinfo$?LoadStrategyManager@CStrategyLoader@@AAEHXZ
  00036	e9 00 00 00 00	 jmp	 ___CxxFrameHandler3
text$x	ENDS
?LoadStrategyManager@CStrategyLoader@@AAEHXZ ENDP	; CStrategyLoader::LoadStrategyManager
; Function compile flags: /Ogtp
; File D:\git\src\IBK\IBK_DRFN\ProjSrc\SrcDrfn\Chart\Common_ST\StrategyLoader.cpp
;	COMDAT ??1CStrategyLoader@@UAE@XZ
_TEXT	SEGMENT
??1CStrategyLoader@@UAE@XZ PROC				; CStrategyLoader::~CStrategyLoader, COMDAT
; _this$ = ecx

; 74   : {

  00000	56		 push	 esi
  00001	8b f1		 mov	 esi, ecx

; 117  : 	if(!m_hStrategyManager) return TRUE;

  00003	8b 46 08	 mov	 eax, DWORD PTR [esi+8]

; 74   : {

  00006	c7 06 00 00 00
	00		 mov	 DWORD PTR [esi], OFFSET ??_7CStrategyLoader@@6B@

; 117  : 	if(!m_hStrategyManager) return TRUE;

  0000c	85 c0		 test	 eax, eax
  0000e	74 19		 je	 SHORT $LN5@CStrategyL

; 118  : 	BOOL bResult = FALSE;
; 119  : 	bResult = FreeLibrary(m_hStrategyManager);

  00010	50		 push	 eax
  00011	ff 15 00 00 00
	00		 call	 DWORD PTR __imp__FreeLibrary@4

; 120  : 	if(bResult)

  00017	85 c0		 test	 eax, eax
  00019	74 0e		 je	 SHORT $LN5@CStrategyL

; 121  : 	{
; 122  : 		m_hStrategyManager = NULL;

  0001b	c7 46 08 00 00
	00 00		 mov	 DWORD PTR [esi+8], 0

; 123  : 		m_fnGetStrategyItem = NULL;

  00022	c7 46 04 00 00
	00 00		 mov	 DWORD PTR [esi+4], 0
$LN5@CStrategyL:

; 75   : 	UnloadStrategyManager();
; 76   : }

  00029	8d 4e 0c	 lea	 ecx, DWORD PTR [esi+12]
  0002c	5e		 pop	 esi
  0002d	ff 25 00 00 00
	00		 jmp	 DWORD PTR __imp_??1?$CStringT@DV?$StrTraitMFC_DLL@DV?$ChTraitsCRT@D@ATL@@@@@ATL@@QAE@XZ
??1CStrategyLoader@@UAE@XZ ENDP				; CStrategyLoader::~CStrategyLoader
_TEXT	ENDS
; Function compile flags: /Ogtp
; File D:\git\src\IBK\IBK_DRFN\ProjSrc\SrcDrfn\Chart\Common_ST\StrategyLoader.cpp
;	COMDAT ?GetStrategyItem@CStrategyLoader@@QAEPAVCIStrategyItem0001@@XZ
_TEXT	SEGMENT
?GetStrategyItem@CStrategyLoader@@QAEPAVCIStrategyItem0001@@XZ PROC ; CStrategyLoader::GetStrategyItem, COMDAT
; _this$ = ecx

; 134  : 	if(!m_fnGetStrategyItem) return NULL;

  00000	8b 41 04	 mov	 eax, DWORD PTR [ecx+4]
  00003	85 c0		 test	 eax, eax
  00005	75 01		 jne	 SHORT $LN2@GetStrateg

; 136  : }

  00007	c3		 ret	 0
$LN2@GetStrateg:

; 135  : 	return (CIStrategyItem *)m_fnGetStrategyItem();

  00008	ff e0		 jmp	 eax
?GetStrategyItem@CStrategyLoader@@QAEPAVCIStrategyItem0001@@XZ ENDP ; CStrategyLoader::GetStrategyItem
_TEXT	ENDS
; Function compile flags: /Ogtp
; File D:\git\src\IBK\IBK_DRFN\ProjSrc\SrcDrfn\Chart\Common_ST\StrategyLoader.cpp
; File C:\Program Files (x86)\Microsoft Visual Studio\2019\Community\VC\Tools\MSVC\14.29.30133\atlmfc\include\atlsimpstr.h
; File D:\git\src\IBK\IBK_DRFN\ProjSrc\SrcDrfn\Chart\Common_ST\StrategyLoader.cpp
; File C:\Program Files (x86)\Microsoft Visual Studio\2019\Community\VC\Tools\MSVC\14.29.30133\atlmfc\include\atlsimpstr.h
; File D:\git\src\IBK\IBK_DRFN\ProjSrc\SrcDrfn\Chart\Common_ST\StrategyLoader.cpp
; File C:\Program Files (x86)\Microsoft Visual Studio\2019\Community\VC\Tools\MSVC\14.29.30133\atlmfc\include\atlsimpstr.h
; File D:\git\src\IBK\IBK_DRFN\ProjSrc\SrcDrfn\Chart\Common_ST\StrategyLoader.cpp
; File C:\Program Files (x86)\Microsoft Visual Studio\2019\Community\VC\Tools\MSVC\14.29.30133\atlmfc\include\cstringt.h
; File D:\git\src\IBK\IBK_DRFN\ProjSrc\SrcDrfn\Chart\Common_ST\StrategyLoader.cpp
; File C:\Program Files (x86)\Microsoft Visual Studio\2019\Community\VC\Tools\MSVC\14.29.30133\atlmfc\include\cstringt.h
; File C:\Program Files (x86)\Microsoft Visual Studio\2019\Community\VC\Tools\MSVC\14.29.30133\atlmfc\include\atlsimpstr.h
; File C:\Program Files (x86)\Microsoft Visual Studio\2019\Community\VC\Tools\MSVC\14.29.30133\atlmfc\include\cstringt.h
; File D:\git\src\IBK\IBK_DRFN\ProjSrc\SrcDrfn\Chart\Common_ST\StrategyLoader.cpp
; File C:\Program Files (x86)\Microsoft Visual Studio\2019\Community\VC\Tools\MSVC\14.29.30133\atlmfc\include\cstringt.h
; File C:\Program Files (x86)\Microsoft Visual Studio\2019\Community\VC\Tools\MSVC\14.29.30133\atlmfc\include\atlsimpstr.h
; File C:\Program Files (x86)\Microsoft Visual Studio\2019\Community\VC\Tools\MSVC\14.29.30133\atlmfc\include\cstringt.h
; File D:\git\src\IBK\IBK_DRFN\ProjSrc\SrcDrfn\Chart\Common_ST\StrategyLoader.cpp
;	COMDAT ??0CStrategyLoader@@QAE@XZ
_TEXT	SEGMENT
_this$GSCopy$ = -572					; size = 4
_pGateMng$2 = -568					; size = 4
$T3 = -564						; size = 4
_strDataPath$4 = -560					; size = 4
_hChartOCX$1$ = -556					; size = 4
$T5 = -556						; size = 4
$T6 = -556						; size = 4
_this$ = -556						; size = 4
$T7 = -552						; size = 4
_szClipFormat$8 = -552					; size = 4
_strMessage$9 = -548					; size = 4
_strChartOcxPath$10 = -548				; size = 4
_szProgID$11 = -544					; size = 260
_szCurrentDirectory$12 = -284				; size = 256
_szCurrentDirectory$13 = -284				; size = 256
_aBufWnd$14 = -28					; size = 9
__$ArrayPad$ = -16					; size = 4
__$EHRec$ = -12						; size = 12
??0CStrategyLoader@@QAE@XZ PROC				; CStrategyLoader::CStrategyLoader, COMDAT
; _this$ = ecx

; 25   : {

  00000	55		 push	 ebp
  00001	8b ec		 mov	 ebp, esp
  00003	6a ff		 push	 -1
  00005	68 00 00 00 00	 push	 __ehhandler$??0CStrategyLoader@@QAE@XZ
  0000a	64 a1 00 00 00
	00		 mov	 eax, DWORD PTR fs:0
  00010	50		 push	 eax
  00011	81 ec 30 02 00
	00		 sub	 esp, 560		; 00000230H
  00017	a1 00 00 00 00	 mov	 eax, DWORD PTR ___security_cookie
  0001c	33 c5		 xor	 eax, ebp
  0001e	89 45 f0	 mov	 DWORD PTR __$ArrayPad$[ebp], eax
  00021	53		 push	 ebx
  00022	56		 push	 esi
  00023	57		 push	 edi
  00024	50		 push	 eax
  00025	8d 45 f4	 lea	 eax, DWORD PTR __$EHRec$[ebp]
  00028	64 a3 00 00 00
	00		 mov	 DWORD PTR fs:0, eax
  0002e	8b f1		 mov	 esi, ecx
  00030	89 b5 d4 fd ff
	ff		 mov	 DWORD PTR _this$[ebp], esi
  00036	89 b5 c4 fd ff
	ff		 mov	 DWORD PTR _this$GSCopy$[ebp], esi
  0003c	8d 4e 0c	 lea	 ecx, DWORD PTR [esi+12]
  0003f	c7 85 d4 fd ff
	ff 00 00 00 00	 mov	 DWORD PTR $T5[ebp], 0
  00049	c7 06 00 00 00
	00		 mov	 DWORD PTR [esi], OFFSET ??_7CStrategyLoader@@6B@
  0004f	ff 15 00 00 00
	00		 call	 DWORD PTR __imp_??0?$CStringT@DV?$StrTraitMFC_DLL@DV?$ChTraitsCRT@D@ATL@@@@@ATL@@QAE@XZ
; File C:\Program Files (x86)\Microsoft Visual Studio\2019\Community\VC\Tools\MSVC\14.29.30133\atlmfc\include\atlsimpstr.h

; 519  : 		return( GetData()->nDataLength );

  00055	a1 00 00 00 00	 mov	 eax, DWORD PTR ?m_strChartOcxFolder@CStrategyLoader@@1V?$CStringT@DV?$StrTraitMFC_DLL@DV?$ChTraitsCRT@D@ATL@@@@@ATL@@A ; CStrategyLoader::m_strChartOcxFolder
; File D:\git\src\IBK\IBK_DRFN\ProjSrc\SrcDrfn\Chart\Common_ST\StrategyLoader.cpp

; 27   : 	if( m_strChartOcxFolder.IsEmpty())

  0005a	8b 1d 00 00 00
	00		 mov	 ebx, DWORD PTR __imp__SetCurrentDirectoryA@4
  00060	c7 45 fc 00 00
	00 00		 mov	 DWORD PTR __$EHRec$[ebp+8], 0
; File C:\Program Files (x86)\Microsoft Visual Studio\2019\Community\VC\Tools\MSVC\14.29.30133\atlmfc\include\atlsimpstr.h

; 533  : 		return( GetLength() == 0 );

  00067	83 78 f4 00	 cmp	 DWORD PTR [eax-12], 0
; File D:\git\src\IBK\IBK_DRFN\ProjSrc\SrcDrfn\Chart\Common_ST\StrategyLoader.cpp

; 27   : 	if( m_strChartOcxFolder.IsEmpty())

  0006b	0f 85 aa 02 00
	00		 jne	 $LN2@CStrategyL

; 28   : 	{
; 29   : 		int nID = 21;
; 30   : 		IGateManager* pGateMng;	AfxGetIGateManager(pGateMng);

  00071	0f 57 c0	 xorps	 xmm0, xmm0
  00074	c7 85 c8 fd ff
	ff 00 00 00 00	 mov	 DWORD PTR _pGateMng$2[ebp], 0
  0007e	8d 8d d8 fd ff
	ff		 lea	 ecx, DWORD PTR _szClipFormat$8[ebp]
  00084	66 0f d6 45 e4	 movq	 QWORD PTR _aBufWnd$14[ebp], xmm0
  00089	c6 45 ec 00	 mov	 BYTE PTR _aBufWnd$14[ebp+8], 0
  0008d	ff 15 00 00 00
	00		 call	 DWORD PTR __imp_??0?$CStringT@DV?$StrTraitMFC_DLL@DV?$ChTraitsCRT@D@ATL@@@@@ATL@@QAE@XZ
  00093	68 00 00 00 00	 push	 OFFSET ??_C@_0M@CBBNGGHM@PcTrMng?4dll@
  00098	c6 45 fc 01	 mov	 BYTE PTR __$EHRec$[ebp+8], 1
  0009c	ff 15 00 00 00
	00		 call	 DWORD PTR __imp__GetModuleHandleA@4
  000a2	50		 push	 eax
  000a3	68 00 00 00 00	 push	 OFFSET ??_C@_0BD@CMCCCNBF@HANAROIGATEMANAGER@
  000a8	8d 85 d8 fd ff
	ff		 lea	 eax, DWORD PTR _szClipFormat$8[ebp]
  000ae	68 00 00 00 00	 push	 OFFSET ??_C@_06NDLAHCHE@?$CFs?$CF08X@
  000b3	50		 push	 eax
  000b4	ff 15 00 00 00
	00		 call	 DWORD PTR __imp_?Format@?$CStringT@DV?$StrTraitMFC_DLL@DV?$ChTraitsCRT@D@ATL@@@@@ATL@@QAAXPBDZZ
  000ba	83 c4 10	 add	 esp, 16			; 00000010H
  000bd	8d 45 e4	 lea	 eax, DWORD PTR _aBufWnd$14[ebp]
  000c0	6a 09		 push	 9
  000c2	50		 push	 eax
  000c3	ff b5 d8 fd ff
	ff		 push	 DWORD PTR _szClipFormat$8[ebp]
  000c9	ff 15 00 00 00
	00		 call	 DWORD PTR __imp__GetEnvironmentVariableA@12
  000cf	8d 85 c8 fd ff
	ff		 lea	 eax, DWORD PTR _pGateMng$2[ebp]
  000d5	50		 push	 eax
  000d6	8d 45 e4	 lea	 eax, DWORD PTR _aBufWnd$14[ebp]
  000d9	68 00 00 00 00	 push	 OFFSET ??_C@_02EMFKHFLK@?$CFX@
  000de	50		 push	 eax
  000df	e8 00 00 00 00	 call	 _sscanf
  000e4	83 c4 0c	 add	 esp, 12			; 0000000cH
  000e7	c6 45 fc 00	 mov	 BYTE PTR __$EHRec$[ebp+8], 0
  000eb	8d 8d d8 fd ff
	ff		 lea	 ecx, DWORD PTR _szClipFormat$8[ebp]
  000f1	ff 15 00 00 00
	00		 call	 DWORD PTR __imp_??1?$CStringT@DV?$StrTraitMFC_DLL@DV?$ChTraitsCRT@D@ATL@@@@@ATL@@QAE@XZ

; 31   : 		if(pGateMng == NULL)

  000f7	8b 8d c8 fd ff
	ff		 mov	 ecx, DWORD PTR _pGateMng$2[ebp]
  000fd	85 c9		 test	 ecx, ecx
  000ff	0f 84 da 02 00
	00		 je	 $LN78@CStrategyL

; 32   : 			return;
; 33   : 		IMainInfoManager* pManager = (IMainInfoManager*)pGateMng->GetInterface(nID);

  00105	8b 01		 mov	 eax, DWORD PTR [ecx]
  00107	6a 00		 push	 0
  00109	6a 15		 push	 21			; 00000015H
  0010b	51		 push	 ecx
  0010c	ff 10		 call	 DWORD PTR [eax]

; 34   : 		CString strDataPath = pManager->GetDataDir();

  0010e	50		 push	 eax
  0010f	8b 08		 mov	 ecx, DWORD PTR [eax]
  00111	ff 51 14	 call	 DWORD PTR [ecx+20]
  00114	50		 push	 eax
  00115	8d 8d d0 fd ff
	ff		 lea	 ecx, DWORD PTR _strDataPath$4[ebp]
  0011b	ff 15 00 00 00
	00		 call	 DWORD PTR __imp_??0?$CStringT@DV?$StrTraitMFC_DLL@DV?$ChTraitsCRT@D@ATL@@@@@ATL@@QAE@PBD@Z
; File C:\Program Files (x86)\Microsoft Visual Studio\2019\Community\VC\Tools\MSVC\14.29.30133\atlmfc\include\atlsimpstr.h

; 519  : 		return( GetData()->nDataLength );

  00121	8b 85 d0 fd ff
	ff		 mov	 eax, DWORD PTR _strDataPath$4[ebp]
; File D:\git\src\IBK\IBK_DRFN\ProjSrc\SrcDrfn\Chart\Common_ST\StrategyLoader.cpp

; 34   : 		CString strDataPath = pManager->GetDataDir();

  00127	c6 45 fc 02	 mov	 BYTE PTR __$EHRec$[ebp+8], 2

; 35   : 		if(strDataPath.GetLength()==0)

  0012b	83 78 f4 00	 cmp	 DWORD PTR [eax-12], 0
  0012f	75 0e		 jne	 SHORT $LN4@CStrategyL

; 36   : 		{
; 37   : 			AfxMessageBox("DataPath를 얻을 수 없습니다.");

  00131	6a 00		 push	 0
  00133	6a 00		 push	 0
  00135	68 00 00 00 00	 push	 OFFSET ??_C@_0BN@KNJCMBJP@DataPath?$LI?$KG?5?$LO?r?$MA?$LL?5?$LM?v?5?$LO?x?$LN?$MA?$LE?O?$LE?Y?4@
  0013a	e8 00 00 00 00	 call	 ?AfxMessageBox@@YGHPBDII@Z ; AfxMessageBox
$LN4@CStrategyL:

; 38   : 		}
; 39   : 
; 40   : 		char szProgID[MAX_PATH] = {0,};

  0013f	68 04 01 00 00	 push	 260			; 00000104H
  00144	8d 85 e0 fd ff
	ff		 lea	 eax, DWORD PTR _szProgID$11[ebp]
  0014a	6a 00		 push	 0
  0014c	50		 push	 eax
  0014d	e8 00 00 00 00	 call	 _memset
  00152	83 c4 0c	 add	 esp, 12			; 0000000cH
; File C:\Program Files (x86)\Microsoft Visual Studio\2019\Community\VC\Tools\MSVC\14.29.30133\atlmfc\include\cstringt.h

; 2401 : 		CStringT strResult( str1.GetManager() );

  00155	8d 8d d0 fd ff
	ff		 lea	 ecx, DWORD PTR _strDataPath$4[ebp]
; File D:\git\src\IBK\IBK_DRFN\ProjSrc\SrcDrfn\Chart\Common_ST\StrategyLoader.cpp

; 41   : 		DWORD dwError = GetPrivateProfileString( "Chart Version", "ProgID", "Prog ID Error", szProgID, 255, strDataPath + "\\" + "ChartMetaTable.dat");

  0015b	c6 45 fc 03	 mov	 BYTE PTR __$EHRec$[ebp+8], 3
; File C:\Program Files (x86)\Microsoft Visual Studio\2019\Community\VC\Tools\MSVC\14.29.30133\atlmfc\include\cstringt.h

; 2401 : 		CStringT strResult( str1.GetManager() );

  0015f	ff 15 00 00 00
	00		 call	 DWORD PTR __imp_?GetManager@?$CStringT@DV?$StrTraitMFC_DLL@DV?$ChTraitsCRT@D@ATL@@@@@ATL@@QBEPAUIAtlStringMgr@2@XZ
  00165	50		 push	 eax
  00166	8d 8d d8 fd ff
	ff		 lea	 ecx, DWORD PTR $T7[ebp]
  0016c	ff 15 00 00 00
	00		 call	 DWORD PTR __imp_??0?$CStringT@DV?$StrTraitMFC_DLL@DV?$ChTraitsCRT@D@ATL@@@@@ATL@@QAE@PAUIAtlStringMgr@1@@Z
; File C:\Program Files (x86)\Microsoft Visual Studio\2019\Community\VC\Tools\MSVC\14.29.30133\atlmfc\include\atlsimpstr.h

; 519  : 		return( GetData()->nDataLength );

  00172	8b 85 d0 fd ff
	ff		 mov	 eax, DWORD PTR _strDataPath$4[ebp]
; File C:\Program Files (x86)\Microsoft Visual Studio\2019\Community\VC\Tools\MSVC\14.29.30133\atlmfc\include\cstringt.h

; 2403 : 		CThisSimpleString::Concatenate( strResult, str1, str1.GetLength(), psz2, CThisSimpleString::StringLength( psz2 ) );

  00178	6a 01		 push	 1
  0017a	68 00 00 00 00	 push	 OFFSET ??_C@_01KICIPPFI@?2@

; 2404 : 
; 2405 : 		return( strResult );

  0017f	c7 85 d4 fd ff
	ff 01 00 00 00	 mov	 DWORD PTR $T5[ebp], 1
  00189	ff 70 f4	 push	 DWORD PTR [eax-12]
  0018c	50		 push	 eax
  0018d	8d 85 d8 fd ff
	ff		 lea	 eax, DWORD PTR $T7[ebp]
  00193	50		 push	 eax
  00194	ff 15 00 00 00
	00		 call	 DWORD PTR __imp_?Concatenate@?$CSimpleStringT@D$00@ATL@@KAXAAV12@PBDH1H@Z
  0019a	83 c4 14	 add	 esp, 20			; 00000014H

; 2401 : 		CStringT strResult( str1.GetManager() );

  0019d	8d 8d d8 fd ff
	ff		 lea	 ecx, DWORD PTR $T7[ebp]
; File D:\git\src\IBK\IBK_DRFN\ProjSrc\SrcDrfn\Chart\Common_ST\StrategyLoader.cpp

; 41   : 		DWORD dwError = GetPrivateProfileString( "Chart Version", "ProgID", "Prog ID Error", szProgID, 255, strDataPath + "\\" + "ChartMetaTable.dat");

  001a3	c6 45 fc 04	 mov	 BYTE PTR __$EHRec$[ebp+8], 4
; File C:\Program Files (x86)\Microsoft Visual Studio\2019\Community\VC\Tools\MSVC\14.29.30133\atlmfc\include\cstringt.h

; 2401 : 		CStringT strResult( str1.GetManager() );

  001a7	ff 15 00 00 00
	00		 call	 DWORD PTR __imp_?GetManager@?$CStringT@DV?$StrTraitMFC_DLL@DV?$ChTraitsCRT@D@ATL@@@@@ATL@@QBEPAUIAtlStringMgr@2@XZ
  001ad	50		 push	 eax
  001ae	8d 8d cc fd ff
	ff		 lea	 ecx, DWORD PTR $T3[ebp]
  001b4	ff 15 00 00 00
	00		 call	 DWORD PTR __imp_??0?$CStringT@DV?$StrTraitMFC_DLL@DV?$ChTraitsCRT@D@ATL@@@@@ATL@@QAE@PAUIAtlStringMgr@1@@Z
; File C:\Program Files (x86)\Microsoft Visual Studio\2019\Community\VC\Tools\MSVC\14.29.30133\atlmfc\include\atlsimpstr.h

; 519  : 		return( GetData()->nDataLength );

  001ba	8b 85 d8 fd ff
	ff		 mov	 eax, DWORD PTR $T7[ebp]
; File C:\Program Files (x86)\Microsoft Visual Studio\2019\Community\VC\Tools\MSVC\14.29.30133\atlmfc\include\cstringt.h

; 2403 : 		CThisSimpleString::Concatenate( strResult, str1, str1.GetLength(), psz2, CThisSimpleString::StringLength( psz2 ) );

  001c0	6a 12		 push	 18			; 00000012H
  001c2	68 00 00 00 00	 push	 OFFSET ??_C@_0BD@PNOKNCJO@ChartMetaTable?4dat@

; 2404 : 
; 2405 : 		return( strResult );

  001c7	c7 85 d4 fd ff
	ff 03 00 00 00	 mov	 DWORD PTR $T5[ebp], 3
  001d1	ff 70 f4	 push	 DWORD PTR [eax-12]
  001d4	50		 push	 eax
  001d5	8d 85 cc fd ff
	ff		 lea	 eax, DWORD PTR $T3[ebp]
  001db	50		 push	 eax
  001dc	ff 15 00 00 00
	00		 call	 DWORD PTR __imp_?Concatenate@?$CSimpleStringT@D$00@ATL@@KAXAAV12@PBDH1H@Z
  001e2	83 c4 14	 add	 esp, 20			; 00000014H
; File D:\git\src\IBK\IBK_DRFN\ProjSrc\SrcDrfn\Chart\Common_ST\StrategyLoader.cpp

; 41   : 		DWORD dwError = GetPrivateProfileString( "Chart Version", "ProgID", "Prog ID Error", szProgID, 255, strDataPath + "\\" + "ChartMetaTable.dat");

  001e5	8d 85 e0 fd ff
	ff		 lea	 eax, DWORD PTR _szProgID$11[ebp]
  001eb	ff b5 cc fd ff
	ff		 push	 DWORD PTR $T3[ebp]
  001f1	68 ff 00 00 00	 push	 255			; 000000ffH
  001f6	50		 push	 eax
  001f7	68 00 00 00 00	 push	 OFFSET ??_C@_0O@OMPLGAKB@Prog?5ID?5Error@
  001fc	68 00 00 00 00	 push	 OFFSET ??_C@_06FBGBHGJE@ProgID@
  00201	68 00 00 00 00	 push	 OFFSET ??_C@_0O@GDACOMFO@Chart?5Version@
  00206	ff 15 00 00 00
	00		 call	 DWORD PTR __imp__GetPrivateProfileStringA@24
  0020c	8d 8d cc fd ff
	ff		 lea	 ecx, DWORD PTR $T3[ebp]
  00212	ff 15 00 00 00
	00		 call	 DWORD PTR __imp_??1?$CStringT@DV?$StrTraitMFC_DLL@DV?$ChTraitsCRT@D@ATL@@@@@ATL@@QAE@XZ
  00218	8d 8d d8 fd ff
	ff		 lea	 ecx, DWORD PTR $T7[ebp]
  0021e	ff 15 00 00 00
	00		 call	 DWORD PTR __imp_??1?$CStringT@DV?$StrTraitMFC_DLL@DV?$ChTraitsCRT@D@ATL@@@@@ATL@@QAE@XZ

; 42   : 
; 43   : 		CString strChartOcxPath;

  00224	8d 8d dc fd ff
	ff		 lea	 ecx, DWORD PTR _strChartOcxPath$10[ebp]
  0022a	ff 15 00 00 00
	00		 call	 DWORD PTR __imp_??0?$CStringT@DV?$StrTraitMFC_DLL@DV?$ChTraitsCRT@D@ATL@@@@@ATL@@QAE@XZ

; 44   : 		if( !CProgIDInfo::ComServerFromProgID( szProgID, strChartOcxPath))

  00230	8d 85 dc fd ff
	ff		 lea	 eax, DWORD PTR _strChartOcxPath$10[ebp]
  00236	c6 45 fc 05	 mov	 BYTE PTR __$EHRec$[ebp+8], 5
  0023a	50		 push	 eax
  0023b	8d 85 e0 fd ff
	ff		 lea	 eax, DWORD PTR _szProgID$11[ebp]
  00241	50		 push	 eax
  00242	e8 00 00 00 00	 call	 ?ComServerFromProgID@CProgIDInfo@@SAJPBDAAV?$CStringT@DV?$StrTraitMFC_DLL@DV?$ChTraitsCRT@D@ATL@@@@@ATL@@@Z ; CProgIDInfo::ComServerFromProgID
  00247	83 c4 08	 add	 esp, 8
  0024a	85 c0		 test	 eax, eax
  0024c	0f 85 ad 00 00
	00		 jne	 $LN8@CStrategyL

; 45   : 		{
; 46   : 			m_strChartOcxFolder = strChartOcxPath.Left( strChartOcxPath.ReverseFind( '\\'));

  00252	6a 5c		 push	 92			; 0000005cH
  00254	8d 8d dc fd ff
	ff		 lea	 ecx, DWORD PTR _strChartOcxPath$10[ebp]
  0025a	ff 15 00 00 00
	00		 call	 DWORD PTR __imp_?ReverseFind@?$CStringT@DV?$StrTraitMFC_DLL@DV?$ChTraitsCRT@D@ATL@@@@@ATL@@QBEHD@Z
  00260	50		 push	 eax
  00261	8d 85 d4 fd ff
	ff		 lea	 eax, DWORD PTR $T6[ebp]
  00267	50		 push	 eax
  00268	8d 8d dc fd ff
	ff		 lea	 ecx, DWORD PTR _strChartOcxPath$10[ebp]
  0026e	ff 15 00 00 00
	00		 call	 DWORD PTR __imp_?Left@?$CStringT@DV?$StrTraitMFC_DLL@DV?$ChTraitsCRT@D@ATL@@@@@ATL@@QBE?AV12@H@Z
  00274	50		 push	 eax
  00275	b9 00 00 00 00	 mov	 ecx, OFFSET ?m_strChartOcxFolder@CStrategyLoader@@1V?$CStringT@DV?$StrTraitMFC_DLL@DV?$ChTraitsCRT@D@ATL@@@@@ATL@@A ; CStrategyLoader::m_strChartOcxFolder
  0027a	c6 45 fc 06	 mov	 BYTE PTR __$EHRec$[ebp+8], 6
  0027e	ff 15 00 00 00
	00		 call	 DWORD PTR __imp_??4?$CStringT@DV?$StrTraitMFC_DLL@DV?$ChTraitsCRT@D@ATL@@@@@ATL@@QAEAAV01@ABV01@@Z
  00284	8d 8d d4 fd ff
	ff		 lea	 ecx, DWORD PTR $T6[ebp]
  0028a	c6 45 fc 05	 mov	 BYTE PTR __$EHRec$[ebp+8], 5
  0028e	ff 15 00 00 00
	00		 call	 DWORD PTR __imp_??1?$CStringT@DV?$StrTraitMFC_DLL@DV?$ChTraitsCRT@D@ATL@@@@@ATL@@QAE@XZ

; 47   : 			// 2. Change Current Directory for Load OCX
; 48   : 			char szCurrentDirectory[ 256];
; 49   : 			if( GetCurrentDirectory( 256, szCurrentDirectory))

  00294	8d 85 e4 fe ff
	ff		 lea	 eax, DWORD PTR _szCurrentDirectory$13[ebp]
  0029a	50		 push	 eax
  0029b	68 00 01 00 00	 push	 256			; 00000100H
  002a0	ff 15 00 00 00
	00		 call	 DWORD PTR __imp__GetCurrentDirectoryA@8
  002a6	85 c0		 test	 eax, eax
  002a8	74 55		 je	 SHORT $LN8@CStrategyL

; 50   : 			{
; 51   : 				if( SetCurrentDirectory( m_strChartOcxFolder))

  002aa	ff 35 00 00 00
	00		 push	 DWORD PTR ?m_strChartOcxFolder@CStrategyLoader@@1V?$CStringT@DV?$StrTraitMFC_DLL@DV?$ChTraitsCRT@D@ATL@@@@@ATL@@A ; CStrategyLoader::m_strChartOcxFolder
  002b0	ff d3		 call	 ebx
  002b2	85 c0		 test	 eax, eax
  002b4	74 49		 je	 SHORT $LN8@CStrategyL

; 52   : 				{
; 53   : 					HMODULE hChartOCX = LoadLibrary( strChartOcxPath);

  002b6	ff b5 dc fd ff
	ff		 push	 DWORD PTR _strChartOcxPath$10[ebp]
  002bc	ff 15 00 00 00
	00		 call	 DWORD PTR __imp__LoadLibraryA@4
  002c2	89 85 d4 fd ff
	ff		 mov	 DWORD PTR _hChartOCX$1$[ebp], eax

; 54   : 					SetCurrentDirectory( szCurrentDirectory);

  002c8	8d 85 e4 fe ff
	ff		 lea	 eax, DWORD PTR _szCurrentDirectory$13[ebp]
  002ce	50		 push	 eax
  002cf	ff d3		 call	 ebx

; 55   : 
; 56   : 					if( hChartOCX)

  002d1	8b 85 d4 fd ff
	ff		 mov	 eax, DWORD PTR _hChartOCX$1$[ebp]
  002d7	85 c0		 test	 eax, eax
  002d9	74 24		 je	 SHORT $LN8@CStrategyL

; 57   : 					{
; 58   : 						PFnIsDebugVersion pfnIsDebugVersion = ( PFnIsDebugVersion)::GetProcAddress( hChartOCX, "IsDebugVersion");

  002db	68 00 00 00 00	 push	 OFFSET ??_C@_0P@KDDALGJC@IsDebugVersion@
  002e0	50		 push	 eax
  002e1	ff 15 00 00 00
	00		 call	 DWORD PTR __imp__GetProcAddress@8

; 59   : 						if( pfnIsDebugVersion) m_bIsDebugVersion = ( *pfnIsDebugVersion)();

  002e7	85 c0		 test	 eax, eax
  002e9	74 07		 je	 SHORT $LN9@CStrategyL
  002eb	ff d0		 call	 eax
  002ed	a3 00 00 00 00	 mov	 DWORD PTR ?m_bIsDebugVersion@CStrategyLoader@@1HA, eax ; CStrategyLoader::m_bIsDebugVersion
$LN9@CStrategyL:

; 60   : 						FreeLibrary( hChartOCX);

  002f2	8b 85 d4 fd ff
	ff		 mov	 eax, DWORD PTR _hChartOCX$1$[ebp]
  002f8	50		 push	 eax
  002f9	ff 15 00 00 00
	00		 call	 DWORD PTR __imp__FreeLibrary@4
$LN8@CStrategyL:

; 61   : 					}
; 62   : 				}
; 63   : 			}
; 64   : 		}
; 65   : 	}

  002ff	8d 8d dc fd ff
	ff		 lea	 ecx, DWORD PTR _strChartOcxPath$10[ebp]
  00305	ff 15 00 00 00
	00		 call	 DWORD PTR __imp_??1?$CStringT@DV?$StrTraitMFC_DLL@DV?$ChTraitsCRT@D@ATL@@@@@ATL@@QAE@XZ
  0030b	8d 8d d0 fd ff
	ff		 lea	 ecx, DWORD PTR _strDataPath$4[ebp]
  00311	c6 45 fc 00	 mov	 BYTE PTR __$EHRec$[ebp+8], 0
  00315	ff 15 00 00 00
	00		 call	 DWORD PTR __imp_??1?$CStringT@DV?$StrTraitMFC_DLL@DV?$ChTraitsCRT@D@ATL@@@@@ATL@@QAE@XZ
$LN2@CStrategyL:

; 66   : 	
; 67   : 	m_hStrategyManager = NULL;
; 68   : 	m_fnGetStrategyItem = NULL;
; 69   : 	m_strStrategyManager = "StrategyManager.dll";

  0031b	68 00 00 00 00	 push	 OFFSET ??_C@_0BE@DBKBGFJM@StrategyManager?4dll@
  00320	8d 4e 0c	 lea	 ecx, DWORD PTR [esi+12]
  00323	c7 46 08 00 00
	00 00		 mov	 DWORD PTR [esi+8], 0
  0032a	c7 46 04 00 00
	00 00		 mov	 DWORD PTR [esi+4], 0
  00331	ff 15 00 00 00
	00		 call	 DWORD PTR __imp_??4?$CStringT@DV?$StrTraitMFC_DLL@DV?$ChTraitsCRT@D@ATL@@@@@ATL@@QAEAAV01@PBD@Z

; 84   : 	CString strMessage;	

  00337	8d 8d dc fd ff
	ff		 lea	 ecx, DWORD PTR _strMessage$9[ebp]
  0033d	ff 15 00 00 00
	00		 call	 DWORD PTR __imp_??0?$CStringT@DV?$StrTraitMFC_DLL@DV?$ChTraitsCRT@D@ATL@@@@@ATL@@QAE@XZ

; 85   : 	if(m_hStrategyManager) return TRUE;

  00343	83 7e 08 00	 cmp	 DWORD PTR [esi+8], 0
  00347	c6 45 fc 07	 mov	 BYTE PTR __$EHRec$[ebp+8], 7
  0034b	0f 85 82 00 00
	00		 jne	 $LN67@CStrategyL

; 86   : 
; 87   : 	char szCurrentDirectory[ 256];
; 88   : 	if( GetCurrentDirectory( 256, szCurrentDirectory))

  00351	8d 85 e4 fe ff
	ff		 lea	 eax, DWORD PTR _szCurrentDirectory$12[ebp]
  00357	50		 push	 eax
  00358	68 00 01 00 00	 push	 256			; 00000100H
  0035d	ff 15 00 00 00
	00		 call	 DWORD PTR __imp__GetCurrentDirectoryA@8
  00363	85 c0		 test	 eax, eax
  00365	74 21		 je	 SHORT $LN65@CStrategyL

; 89   : 	{
; 90   : 		if( SetCurrentDirectory( m_strChartOcxFolder))

  00367	ff 35 00 00 00
	00		 push	 DWORD PTR ?m_strChartOcxFolder@CStrategyLoader@@1V?$CStringT@DV?$StrTraitMFC_DLL@DV?$ChTraitsCRT@D@ATL@@@@@ATL@@A ; CStrategyLoader::m_strChartOcxFolder
  0036d	ff d3		 call	 ebx
  0036f	85 c0		 test	 eax, eax
  00371	74 15		 je	 SHORT $LN65@CStrategyL

; 91   : 		{
; 92   : 			m_hStrategyManager  = (HINSTANCE) ::LoadLibrary(m_strStrategyManager);

  00373	ff 76 0c	 push	 DWORD PTR [esi+12]
  00376	ff 15 00 00 00
	00		 call	 DWORD PTR __imp__LoadLibraryA@4
  0037c	89 46 08	 mov	 DWORD PTR [esi+8], eax

; 93   : 
; 94   : 			SetCurrentDirectory( szCurrentDirectory);

  0037f	8d 85 e4 fe ff
	ff		 lea	 eax, DWORD PTR _szCurrentDirectory$12[ebp]
  00385	50		 push	 eax
  00386	ff d3		 call	 ebx
$LN65@CStrategyL:

; 95   : 		}
; 96   : 	}
; 97   : 	
; 98   : 	if( m_hStrategyManager == NULL)

  00388	8b 46 08	 mov	 eax, DWORD PTR [esi+8]
  0038b	85 c0		 test	 eax, eax
  0038d	75 0a		 jne	 SHORT $LN66@CStrategyL

; 99   : 	{
; 100  : 		strMessage.Format("%s을 Load할 수 없습니다.",m_strStrategyManager);

  0038f	ff 76 0c	 push	 DWORD PTR [esi+12]
  00392	68 00 00 00 00	 push	 OFFSET ??_C@_0BJ@EBHLMJOA@?$CFs?$MA?$LL?5Load?G?R?5?$LM?v?5?$LO?x?$LN?$MA?$LE?O?$LE?Y?4@

; 101  : 		AfxMessageBox(strMessage);
; 102  : 		return FALSE;

  00397	eb 1b		 jmp	 SHORT $LN80@CStrategyL
$LN66@CStrategyL:

; 103  : 	}
; 104  : 	m_fnGetStrategyItem = (_DLL_GetStrategyItem)::GetProcAddress(m_hStrategyManager,"fnGetStrategyItem");

  00399	68 00 00 00 00	 push	 OFFSET ??_C@_0BC@GBIBEELI@fnGetStrategyItem@
  0039e	50		 push	 eax
  0039f	ff 15 00 00 00
	00		 call	 DWORD PTR __imp__GetProcAddress@8
  003a5	89 46 04	 mov	 DWORD PTR [esi+4], eax

; 105  : 	if(m_fnGetStrategyItem == NULL)

  003a8	85 c0		 test	 eax, eax
  003aa	75 27		 jne	 SHORT $LN67@CStrategyL

; 106  : 	{
; 107  : 		strMessage.Format("%s에서 fnGetStrategyItem 찾을 수 없습니다.",m_strStrategyManager);

  003ac	ff 76 0c	 push	 DWORD PTR [esi+12]
  003af	68 00 00 00 00	 push	 OFFSET ??_C@_0CL@JIIGDICO@?$CFs?$LP?$KB?$LM?$KN?5fnGetStrategyItem?5?C?$KD?$MA?$LL?5?$LM@
$LN80@CStrategyL:

; 70   : 	LoadStrategyManager();
; 71   : }

  003b4	8d 85 dc fd ff
	ff		 lea	 eax, DWORD PTR _strMessage$9[ebp]
  003ba	50		 push	 eax
  003bb	ff 15 00 00 00
	00		 call	 DWORD PTR __imp_?Format@?$CStringT@DV?$StrTraitMFC_DLL@DV?$ChTraitsCRT@D@ATL@@@@@ATL@@QAAXPBDZZ
  003c1	83 c4 0c	 add	 esp, 12			; 0000000cH
  003c4	6a 00		 push	 0
  003c6	6a 00		 push	 0
  003c8	ff b5 dc fd ff
	ff		 push	 DWORD PTR _strMessage$9[ebp]
  003ce	e8 00 00 00 00	 call	 ?AfxMessageBox@@YGHPBDII@Z ; AfxMessageBox
$LN67@CStrategyL:
  003d3	8d 8d dc fd ff
	ff		 lea	 ecx, DWORD PTR _strMessage$9[ebp]
  003d9	ff 15 00 00 00
	00		 call	 DWORD PTR __imp_??1?$CStringT@DV?$StrTraitMFC_DLL@DV?$ChTraitsCRT@D@ATL@@@@@ATL@@QAE@XZ
$LN78@CStrategyL:
  003df	8b c6		 mov	 eax, esi
  003e1	8b 4d f4	 mov	 ecx, DWORD PTR __$EHRec$[ebp]
  003e4	64 89 0d 00 00
	00 00		 mov	 DWORD PTR fs:0, ecx
  003eb	59		 pop	 ecx
  003ec	5f		 pop	 edi
  003ed	5e		 pop	 esi
  003ee	5b		 pop	 ebx
  003ef	8b 4d f0	 mov	 ecx, DWORD PTR __$ArrayPad$[ebp]
  003f2	33 cd		 xor	 ecx, ebp
  003f4	e8 00 00 00 00	 call	 @__security_check_cookie@4
  003f9	8b e5		 mov	 esp, ebp
  003fb	5d		 pop	 ebp
  003fc	c3		 ret	 0
_TEXT	ENDS
;	COMDAT text$x
text$x	SEGMENT
__unwindfunclet$??0CStrategyLoader@@QAE@XZ$0:
  00000	8b 8d c4 fd ff
	ff		 mov	 ecx, DWORD PTR _this$GSCopy$[ebp]
  00006	83 c1 0c	 add	 ecx, 12			; 0000000cH
  00009	ff 25 00 00 00
	00		 jmp	 DWORD PTR __imp_??1?$CStringT@DV?$StrTraitMFC_DLL@DV?$ChTraitsCRT@D@ATL@@@@@ATL@@QAE@XZ
__unwindfunclet$??0CStrategyLoader@@QAE@XZ$1:
  0000f	8d 8d d8 fd ff
	ff		 lea	 ecx, DWORD PTR _szClipFormat$8[ebp]
  00015	ff 25 00 00 00
	00		 jmp	 DWORD PTR __imp_??1?$CStringT@DV?$StrTraitMFC_DLL@DV?$ChTraitsCRT@D@ATL@@@@@ATL@@QAE@XZ
__unwindfunclet$??0CStrategyLoader@@QAE@XZ$2:
  0001b	8d 8d d0 fd ff
	ff		 lea	 ecx, DWORD PTR _strDataPath$4[ebp]
  00021	ff 25 00 00 00
	00		 jmp	 DWORD PTR __imp_??1?$CStringT@DV?$StrTraitMFC_DLL@DV?$ChTraitsCRT@D@ATL@@@@@ATL@@QAE@XZ
__unwindfunclet$??0CStrategyLoader@@QAE@XZ$7:
  00027	8b 85 d4 fd ff
	ff		 mov	 eax, DWORD PTR $T5[ebp]
  0002d	83 e0 01	 and	 eax, 1
  00030	0f 84 13 00 00
	00		 je	 $LN33@CStrategyL
  00036	83 a5 d4 fd ff
	ff fe		 and	 DWORD PTR $T5[ebp], -2	; fffffffeH
  0003d	8d 8d d8 fd ff
	ff		 lea	 ecx, DWORD PTR $T7[ebp]
  00043	ff 25 00 00 00
	00		 jmp	 DWORD PTR __imp_??1?$CStringT@DV?$StrTraitMFC_DLL@DV?$ChTraitsCRT@D@ATL@@@@@ATL@@QAE@XZ
$LN33@CStrategyL:
  00049	c3		 ret	 0
__unwindfunclet$??0CStrategyLoader@@QAE@XZ$8:
  0004a	8b 85 d4 fd ff
	ff		 mov	 eax, DWORD PTR $T5[ebp]
  00050	83 e0 02	 and	 eax, 2
  00053	0f 84 13 00 00
	00		 je	 $LN46@CStrategyL
  00059	83 a5 d4 fd ff
	ff fd		 and	 DWORD PTR $T5[ebp], -3	; fffffffdH
  00060	8d 8d cc fd ff
	ff		 lea	 ecx, DWORD PTR $T3[ebp]
  00066	ff 25 00 00 00
	00		 jmp	 DWORD PTR __imp_??1?$CStringT@DV?$StrTraitMFC_DLL@DV?$ChTraitsCRT@D@ATL@@@@@ATL@@QAE@XZ
$LN46@CStrategyL:
  0006c	c3		 ret	 0
__unwindfunclet$??0CStrategyLoader@@QAE@XZ$5:
  0006d	8d 8d dc fd ff
	ff		 lea	 ecx, DWORD PTR _strChartOcxPath$10[ebp]
  00073	ff 25 00 00 00
	00		 jmp	 DWORD PTR __imp_??1?$CStringT@DV?$StrTraitMFC_DLL@DV?$ChTraitsCRT@D@ATL@@@@@ATL@@QAE@XZ
__unwindfunclet$??0CStrategyLoader@@QAE@XZ$6:
  00079	8d 8d d4 fd ff
	ff		 lea	 ecx, DWORD PTR $T6[ebp]
  0007f	ff 25 00 00 00
	00		 jmp	 DWORD PTR __imp_??1?$CStringT@DV?$StrTraitMFC_DLL@DV?$ChTraitsCRT@D@ATL@@@@@ATL@@QAE@XZ
__unwindfunclet$??0CStrategyLoader@@QAE@XZ$9:
  00085	8d 8d dc fd ff
	ff		 lea	 ecx, DWORD PTR _strMessage$9[ebp]
  0008b	ff 25 00 00 00
	00		 jmp	 DWORD PTR __imp_??1?$CStringT@DV?$StrTraitMFC_DLL@DV?$ChTraitsCRT@D@ATL@@@@@ATL@@QAE@XZ
  00091	cc		 int	 3
  00092	cc		 int	 3
  00093	cc		 int	 3
  00094	cc		 int	 3
  00095	cc		 int	 3
__ehhandler$??0CStrategyLoader@@QAE@XZ:
  00096	90		 npad	 1
  00097	90		 npad	 1
  00098	8b 54 24 08	 mov	 edx, DWORD PTR [esp+8]
  0009c	8d 42 0c	 lea	 eax, DWORD PTR [edx+12]
  0009f	8b 8a c0 fd ff
	ff		 mov	 ecx, DWORD PTR [edx-576]
  000a5	33 c8		 xor	 ecx, eax
  000a7	e8 00 00 00 00	 call	 @__security_check_cookie@4
  000ac	8b 4a fc	 mov	 ecx, DWORD PTR [edx-4]
  000af	33 c8		 xor	 ecx, eax
  000b1	e8 00 00 00 00	 call	 @__security_check_cookie@4
  000b6	b8 00 00 00 00	 mov	 eax, OFFSET __ehfuncinfo$??0CStrategyLoader@@QAE@XZ
  000bb	e9 00 00 00 00	 jmp	 ___CxxFrameHandler3
text$x	ENDS
??0CStrategyLoader@@QAE@XZ ENDP				; CStrategyLoader::CStrategyLoader
; Function compile flags: /Ogtp
; File C:\Program Files (x86)\Windows Kits\10\Include\10.0.22000.0\ucrt\stdio.h
;	COMDAT _sscanf
_TEXT	SEGMENT
__Buffer$ = 8						; size = 4
__Format$ = 12						; size = 4
_sscanf	PROC						; COMDAT

; 2247 :     {

  00000	55		 push	 ebp
  00001	8b ec		 mov	 ebp, esp

; 2153 :         return __stdio_common_vsscanf(

  00003	8d 45 10	 lea	 eax, DWORD PTR __Format$[ebp+4]
  00006	50		 push	 eax
  00007	6a 00		 push	 0
  00009	ff 75 0c	 push	 DWORD PTR __Format$[ebp]
  0000c	6a ff		 push	 -1
  0000e	ff 75 08	 push	 DWORD PTR __Buffer$[ebp]
  00011	e8 00 00 00 00	 call	 ___local_stdio_scanf_options
  00016	ff 70 04	 push	 DWORD PTR [eax+4]
  00019	ff 30		 push	 DWORD PTR [eax]
  0001b	ff 15 00 00 00
	00		 call	 DWORD PTR __imp____stdio_common_vsscanf
  00021	83 c4 1c	 add	 esp, 28			; 0000001cH

; 2248 :         int _Result;
; 2249 :         va_list _ArgList;
; 2250 :         __crt_va_start(_ArgList, _Format);
; 2251 :         _Result = _vsscanf_l(_Buffer, _Format, NULL, _ArgList);
; 2252 :         __crt_va_end(_ArgList);
; 2253 :         return _Result;
; 2254 :     }

  00024	5d		 pop	 ebp
  00025	c3		 ret	 0
_sscanf	ENDP
_TEXT	ENDS
; Function compile flags: /Ogtp
; File C:\Program Files (x86)\Windows Kits\10\Include\10.0.22000.0\ucrt\corecrt_stdio_config.h
;	COMDAT ___local_stdio_scanf_options
_TEXT	SEGMENT
___local_stdio_scanf_options PROC			; COMDAT

; 101  :         static unsigned __int64 _OptionsStorage;
; 102  :         return &_OptionsStorage;

  00000	b8 00 00 00 00	 mov	 eax, OFFSET ?_OptionsStorage@?1??__local_stdio_scanf_options@@9@4_KA ; `__local_stdio_scanf_options'::`2'::_OptionsStorage

; 103  :     }

  00005	c3		 ret	 0
___local_stdio_scanf_options ENDP
_TEXT	ENDS
; Function compile flags: /Ogtp
; File D:\git\src\IBK\IBK_DRFN\ProjSrc\SrcDrfn\Chart\Common_ST\StrategyLoader.cpp
;	COMDAT ?__empty_global_delete@@YAXPAXI@Z
_TEXT	SEGMENT
___formal$ = 8						; size = 4
___formal$ = 12						; size = 4
?__empty_global_delete@@YAXPAXI@Z PROC			; __empty_global_delete, COMDAT

  00000	c2 00 00	 ret	 0
?__empty_global_delete@@YAXPAXI@Z ENDP			; __empty_global_delete
_TEXT	ENDS
; Function compile flags: /Ogtp
; File D:\git\src\IBK\IBK_DRFN\ProjSrc\SrcDrfn\Chart\Common_ST\StrategyLoader.cpp
;	COMDAT ?__empty_global_delete@@YAXPAX@Z
_TEXT	SEGMENT
___formal$ = 8						; size = 4
?__empty_global_delete@@YAXPAX@Z PROC			; __empty_global_delete, COMDAT

  00000	c2 00 00	 ret	 0
?__empty_global_delete@@YAXPAX@Z ENDP			; __empty_global_delete
_TEXT	ENDS
END
