; Listing generated by Microsoft (R) Optimizing Compiler Version 19.29.30145.0 

	TITLE	D:\git\src\IBK\IBK_DRFN\#DRfn-CS\_Obj\HWStrategyAnalysis\TabAnalChart.obj
	.686P
	.XMM
	include listing.inc
	.model	flat

INCLUDELIB MSVCRT
INCLUDELIB OLDNAMES

PUBLIC	??_C@_0BG@ILOCDJNC@RMSG_UPDATE_DATAINDEX@	; `string'
PUBLIC	??_C@_0BG@DIEECPNP@RMSG_SELECT_DATAINDEX@	; `string'
;	COMDAT ??_C@_0BG@DIEECPNP@RMSG_SELECT_DATAINDEX@
CONST	SEGMENT
??_C@_0BG@DIEECPNP@RMSG_SELECT_DATAINDEX@ DB 'RMSG_SELECT_DATAINDEX', 00H ; `string'
CONST	ENDS
;	COMDAT ??_C@_0BG@ILOCDJNC@RMSG_UPDATE_DATAINDEX@
CONST	SEGMENT
??_C@_0BG@ILOCDJNC@RMSG_UPDATE_DATAINDEX@ DB 'RMSG_UPDATE_DATAINDEX', 00H ; `string'
CONST	ENDS
PUBLIC	?__empty_global_delete@@YAXPAX@Z		; __empty_global_delete
PUBLIC	?__empty_global_delete@@YAXPAXI@Z		; __empty_global_delete
PUBLIC	?Serialize@CObject@@UAEXAAVCArchive@@@Z		; CObject::Serialize
PUBLIC	?AssertValid@CObject@@UBEXXZ			; CObject::AssertValid
PUBLIC	?Dump@CObject@@UBEXAAVCDumpContext@@@Z		; CObject::Dump
PUBLIC	?BeginModalState@CWnd@@UAEXXZ			; CWnd::BeginModalState
PUBLIC	?EndModalState@CWnd@@UAEXXZ			; CWnd::EndModalState
PUBLIC	?Create@CDialog@@UAEHIPAVCWnd@@@Z		; CDialog::Create
PUBLIC	?PreTranslateMessage@CEscDialog@@MAEHPAUtagMSG@@@Z ; CEscDialog::PreTranslateMessage
PUBLIC	?GuganBtnUpdate@CDlgInterface@@UAEXXZ		; CDlgInterface::GuganBtnUpdate
PUBLIC	??0CTabAnalChart@@QAE@PAVCWnd@@@Z		; CTabAnalChart::CTabAnalChart
PUBLIC	?DoDataExchange@CTabAnalChart@@MAEXPAVCDataExchange@@@Z ; CTabAnalChart::DoDataExchange
PUBLIC	?OnInitDialog@CTabAnalChart@@MAEHXZ		; CTabAnalChart::OnInitDialog
PUBLIC	?OnSize@CTabAnalChart@@IAEXIHH@Z		; CTabAnalChart::OnSize
PUBLIC	?GetThisMessageMap@CTabAnalChart@@KGPBUAFX_MSGMAP@@XZ ; CTabAnalChart::GetThisMessageMap
PUBLIC	?GetMessageMap@CTabAnalChart@@MBEPBUAFX_MSGMAP@@XZ ; CTabAnalChart::GetMessageMap
PUBLIC	?OnUpdateDataIndex@CTabAnalChart@@IAEJIJ@Z	; CTabAnalChart::OnUpdateDataIndex
PUBLIC	?OnSelectDataIndex@CTabAnalChart@@IAEJIJ@Z	; CTabAnalChart::OnSelectDataIndex
PUBLIC	?UpdateDlg@CTabAnalChart@@UAEXXZ		; CTabAnalChart::UpdateDlg
PUBLIC	?SetChartFocus@CTabAnalChart@@UAEXH@Z		; CTabAnalChart::SetChartFocus
PUBLIC	??_GCTabAnalChart@@UAEPAXI@Z			; CTabAnalChart::`scalar deleting destructor'
PUBLIC	??_R0?AVCObject@@@8				; CObject `RTTI Type Descriptor'
PUBLIC	??_R3CObject@@8					; CObject::`RTTI Class Hierarchy Descriptor'
PUBLIC	??_R2CObject@@8					; CObject::`RTTI Base Class Array'
PUBLIC	??_R1A@?0A@EA@CObject@@8			; CObject::`RTTI Base Class Descriptor at (0,-1,0,64)'
PUBLIC	??_R1A@?0A@EA@CWnd@@8				; CWnd::`RTTI Base Class Descriptor at (0,-1,0,64)'
PUBLIC	??_R0?AVCWnd@@@8				; CWnd `RTTI Type Descriptor'
PUBLIC	??_R3CWnd@@8					; CWnd::`RTTI Class Hierarchy Descriptor'
PUBLIC	??_R2CWnd@@8					; CWnd::`RTTI Base Class Array'
PUBLIC	??_R1A@?0A@EA@CCmdTarget@@8			; CCmdTarget::`RTTI Base Class Descriptor at (0,-1,0,64)'
PUBLIC	??_R0?AVCCmdTarget@@@8				; CCmdTarget `RTTI Type Descriptor'
PUBLIC	??_R3CCmdTarget@@8				; CCmdTarget::`RTTI Class Hierarchy Descriptor'
PUBLIC	??_R2CCmdTarget@@8				; CCmdTarget::`RTTI Base Class Array'
PUBLIC	??_R1A@?0A@EA@CDialog@@8			; CDialog::`RTTI Base Class Descriptor at (0,-1,0,64)'
PUBLIC	??_R0?AVCDialog@@@8				; CDialog `RTTI Type Descriptor'
PUBLIC	??_R3CDialog@@8					; CDialog::`RTTI Class Hierarchy Descriptor'
PUBLIC	??_R2CDialog@@8					; CDialog::`RTTI Base Class Array'
PUBLIC	??_R0?AVCEscDialog@@@8				; CEscDialog `RTTI Type Descriptor'
PUBLIC	??_R3CEscDialog@@8				; CEscDialog::`RTTI Class Hierarchy Descriptor'
PUBLIC	??_R2CEscDialog@@8				; CEscDialog::`RTTI Base Class Array'
PUBLIC	??_R1A@?0A@EA@CEscDialog@@8			; CEscDialog::`RTTI Base Class Descriptor at (0,-1,0,64)'
PUBLIC	??_7CTabAnalChart@@6B@				; CTabAnalChart::`vftable'
PUBLIC	??_R4CTabAnalChart@@6B@				; CTabAnalChart::`RTTI Complete Object Locator'
PUBLIC	??_R0?AVCTabAnalChart@@@8			; CTabAnalChart `RTTI Type Descriptor'
PUBLIC	??_R3CTabAnalChart@@8				; CTabAnalChart::`RTTI Class Hierarchy Descriptor'
PUBLIC	??_R2CTabAnalChart@@8				; CTabAnalChart::`RTTI Base Class Array'
PUBLIC	??_R1A@?0A@EA@CTabAnalChart@@8			; CTabAnalChart::`RTTI Base Class Descriptor at (0,-1,0,64)'
PUBLIC	??_R1A@?0A@EA@CDlgInterface@@8			; CDlgInterface::`RTTI Base Class Descriptor at (0,-1,0,64)'
PUBLIC	??_R0?AVCDlgInterface@@@8			; CDlgInterface `RTTI Type Descriptor'
PUBLIC	??_R3CDlgInterface@@8				; CDlgInterface::`RTTI Class Hierarchy Descriptor'
PUBLIC	??_R2CDlgInterface@@8				; CDlgInterface::`RTTI Base Class Array'
EXTRN	??3@YAXPAX@Z:PROC				; operator delete
EXTRN	?__global_delete@@YAXPAXI@Z:PROC		; __global_delete
EXTRN	__imp__RegisterWindowMessageA@4:PROC
EXTRN	__imp__GetKeyState@4:PROC
EXTRN	__imp__EnableWindow@8:PROC
EXTRN	__imp__GetParent@4:PROC
EXTRN	?IsInvokeAllowed@CCmdTarget@@UAEHJ@Z:PROC	; CCmdTarget::IsInvokeAllowed
EXTRN	?GetDispatchIID@CCmdTarget@@UAEHPAU_GUID@@@Z:PROC ; CCmdTarget::GetDispatchIID
EXTRN	?GetTypeInfoCount@CCmdTarget@@UAEIXZ:PROC	; CCmdTarget::GetTypeInfoCount
EXTRN	?GetTypeLibCache@CCmdTarget@@UAEPAVCTypeLibCache@@XZ:PROC ; CCmdTarget::GetTypeLibCache
EXTRN	?GetTypeLib@CCmdTarget@@UAEJKPAPAUITypeLib@@@Z:PROC ; CCmdTarget::GetTypeLib
EXTRN	?GetCommandMap@CCmdTarget@@MBEPBUAFX_OLECMDMAP@@XZ:PROC ; CCmdTarget::GetCommandMap
EXTRN	?GetDispatchMap@CCmdTarget@@MBEPBUAFX_DISPMAP@@XZ:PROC ; CCmdTarget::GetDispatchMap
EXTRN	?GetConnectionMap@CCmdTarget@@MBEPBUAFX_CONNECTIONMAP@@XZ:PROC ; CCmdTarget::GetConnectionMap
EXTRN	?GetEventSinkMap@CCmdTarget@@MBEPBUAFX_EVENTSINKMAP@@XZ:PROC ; CCmdTarget::GetEventSinkMap
EXTRN	?OnCreateAggregates@CCmdTarget@@UAEHXZ:PROC	; CCmdTarget::OnCreateAggregates
EXTRN	?GetInterfaceHook@CCmdTarget@@UAEPAUIUnknown@@PBX@Z:PROC ; CCmdTarget::GetInterfaceHook
EXTRN	?GetExtraConnectionPoints@CCmdTarget@@MAEHPAVCPtrArray@@@Z:PROC ; CCmdTarget::GetExtraConnectionPoints
EXTRN	?GetConnectionHook@CCmdTarget@@MAEPAUIConnectionPoint@@ABU_GUID@@@Z:PROC ; CCmdTarget::GetConnectionHook
EXTRN	?FromHandle@CWnd@@SGPAV1@PAUHWND__@@@Z:PROC	; CWnd::FromHandle
EXTRN	?PreSubclassWindow@CWnd@@UAEXXZ:PROC		; CWnd::PreSubclassWindow
EXTRN	?Create@CWnd@@UAEHPBD0KABUtagRECT@@PAV1@IPAUCCreateContext@@@Z:PROC ; CWnd::Create
EXTRN	?CreateEx@CWnd@@UAEHKPBD0KHHHHPAUHWND__@@PAUHMENU__@@PAX@Z:PROC ; CWnd::CreateEx
EXTRN	?CreateEx@CWnd@@UAEHKPBD0KABUtagRECT@@PAV1@IPAX@Z:PROC ; CWnd::CreateEx
EXTRN	?DestroyWindow@CWnd@@UAEHXZ:PROC		; CWnd::DestroyWindow
EXTRN	?PreCreateWindow@CWnd@@UAEHAAUtagCREATESTRUCTA@@@Z:PROC ; CWnd::PreCreateWindow
EXTRN	?CalcWindowRect@CWnd@@UAEXPAUtagRECT@@I@Z:PROC	; CWnd::CalcWindowRect
EXTRN	?GetMenu@CWnd@@UBEPAVCMenu@@XZ:PROC		; CWnd::GetMenu
EXTRN	?SetMenu@CWnd@@UAEHPAVCMenu@@@Z:PROC		; CWnd::SetMenu
EXTRN	?OnToolHitTest@CWnd@@UBEHVCPoint@@PAUtagTOOLINFOA@@@Z:PROC ; CWnd::OnToolHitTest
EXTRN	?GetScrollBarCtrl@CWnd@@UBEPAVCScrollBar@@H@Z:PROC ; CWnd::GetScrollBarCtrl
EXTRN	?WinHelpA@CWnd@@UAEXKI@Z:PROC			; CWnd::WinHelpA
EXTRN	?HtmlHelpA@CWnd@@UAEXKI@Z:PROC			; CWnd::HtmlHelpA
EXTRN	?WinHelpInternal@CWnd@@UAEXKI@Z:PROC		; CWnd::WinHelpInternal
EXTRN	?ContinueModal@CWnd@@UAEHXZ:PROC		; CWnd::ContinueModal
EXTRN	?EndModalLoop@CWnd@@UAEXH@Z:PROC		; CWnd::EndModalLoop
EXTRN	?OnDrawIconicThumbnailOrLivePreview@CWnd@@UAEXAAVCDC@@VCRect@@VCSize@@HAAH@Z:PROC ; CWnd::OnDrawIconicThumbnailOrLivePreview
EXTRN	?GetInterfaceMap@CWnd@@MBEPBUAFX_INTERFACEMAP@@XZ:PROC ; CWnd::GetInterfaceMap
EXTRN	?EnsureStdObj@CWnd@@UAEJXZ:PROC			; CWnd::EnsureStdObj
EXTRN	?get_accParent@CWnd@@UAEJPAPAUIDispatch@@@Z:PROC ; CWnd::get_accParent
EXTRN	?get_accChildCount@CWnd@@UAEJPAJ@Z:PROC		; CWnd::get_accChildCount
EXTRN	?get_accChild@CWnd@@UAEJUtagVARIANT@@PAPAUIDispatch@@@Z:PROC ; CWnd::get_accChild
EXTRN	?get_accName@CWnd@@UAEJUtagVARIANT@@PAPA_W@Z:PROC ; CWnd::get_accName
EXTRN	?get_accValue@CWnd@@UAEJUtagVARIANT@@PAPA_W@Z:PROC ; CWnd::get_accValue
EXTRN	?get_accDescription@CWnd@@UAEJUtagVARIANT@@PAPA_W@Z:PROC ; CWnd::get_accDescription
EXTRN	?get_accRole@CWnd@@UAEJUtagVARIANT@@PAU2@@Z:PROC ; CWnd::get_accRole
EXTRN	?get_accState@CWnd@@UAEJUtagVARIANT@@PAU2@@Z:PROC ; CWnd::get_accState
EXTRN	?get_accHelp@CWnd@@UAEJUtagVARIANT@@PAPA_W@Z:PROC ; CWnd::get_accHelp
EXTRN	?get_accHelpTopic@CWnd@@UAEJPAPA_WUtagVARIANT@@PAJ@Z:PROC ; CWnd::get_accHelpTopic
EXTRN	?get_accKeyboardShortcut@CWnd@@UAEJUtagVARIANT@@PAPA_W@Z:PROC ; CWnd::get_accKeyboardShortcut
EXTRN	?get_accFocus@CWnd@@UAEJPAUtagVARIANT@@@Z:PROC	; CWnd::get_accFocus
EXTRN	?get_accSelection@CWnd@@UAEJPAUtagVARIANT@@@Z:PROC ; CWnd::get_accSelection
EXTRN	?get_accDefaultAction@CWnd@@UAEJUtagVARIANT@@PAPA_W@Z:PROC ; CWnd::get_accDefaultAction
EXTRN	?accSelect@CWnd@@UAEJJUtagVARIANT@@@Z:PROC	; CWnd::accSelect
EXTRN	?accLocation@CWnd@@UAEJPAJ000UtagVARIANT@@@Z:PROC ; CWnd::accLocation
EXTRN	?accNavigate@CWnd@@UAEJJUtagVARIANT@@PAU2@@Z:PROC ; CWnd::accNavigate
EXTRN	?accHitTest@CWnd@@UAEJJJPAUtagVARIANT@@@Z:PROC	; CWnd::accHitTest
EXTRN	?accDoDefaultAction@CWnd@@UAEJUtagVARIANT@@@Z:PROC ; CWnd::accDoDefaultAction
EXTRN	?put_accName@CWnd@@UAEJUtagVARIANT@@PA_W@Z:PROC	; CWnd::put_accName
EXTRN	?put_accValue@CWnd@@UAEJUtagVARIANT@@PA_W@Z:PROC ; CWnd::put_accValue
EXTRN	?SetProxy@CWnd@@UAEJPAUIAccessibleProxy@@@Z:PROC ; CWnd::SetProxy
EXTRN	?CreateAccessibleProxy@CWnd@@UAEJIJPAJ@Z:PROC	; CWnd::CreateAccessibleProxy
EXTRN	?OnCommand@CWnd@@MAEHIJ@Z:PROC			; CWnd::OnCommand
EXTRN	?OnNotify@CWnd@@MAEHIJPAJ@Z:PROC		; CWnd::OnNotify
EXTRN	?GetSuperWndProcAddr@CWnd@@MAEPAP6GJPAUHWND__@@IIJ@ZXZ:PROC ; CWnd::GetSuperWndProcAddr
EXTRN	?OnAmbientProperty@CWnd@@UAEHPAVCOleControlSite@@JPAUtagVARIANT@@@Z:PROC ; CWnd::OnAmbientProperty
EXTRN	?WindowProc@CWnd@@MAEJIIJ@Z:PROC		; CWnd::WindowProc
EXTRN	?OnWndMsg@CWnd@@MAEHIIJPAJ@Z:PROC		; CWnd::OnWndMsg
EXTRN	?Default@CWnd@@IAEJXZ:PROC			; CWnd::Default
EXTRN	?DefWindowProcA@CWnd@@MAEJIIJ@Z:PROC		; CWnd::DefWindowProcA
EXTRN	?PostNcDestroy@CWnd@@MAEXXZ:PROC		; CWnd::PostNcDestroy
EXTRN	?OnChildNotify@CWnd@@MAEHIIJPAJ@Z:PROC		; CWnd::OnChildNotify
EXTRN	?OnTouchInputs@CWnd@@MAEHIPAUtagTOUCHINPUT@@@Z:PROC ; CWnd::OnTouchInputs
EXTRN	?OnTouchInput@CWnd@@MAEHVCPoint@@HHPAUtagTOUCHINPUT@@@Z:PROC ; CWnd::OnTouchInput
EXTRN	?GetGestureStatus@CWnd@@MAEKVCPoint@@@Z:PROC	; CWnd::GetGestureStatus
EXTRN	?OnGestureZoom@CWnd@@MAEHVCPoint@@J@Z:PROC	; CWnd::OnGestureZoom
EXTRN	?OnGesturePan@CWnd@@MAEHVCPoint@@0@Z:PROC	; CWnd::OnGesturePan
EXTRN	?OnGestureRotate@CWnd@@MAEHVCPoint@@N@Z:PROC	; CWnd::OnGestureRotate
EXTRN	?OnGestureTwoFingerTap@CWnd@@MAEHVCPoint@@@Z:PROC ; CWnd::OnGestureTwoFingerTap
EXTRN	?OnGesturePressAndTap@CWnd@@MAEHVCPoint@@J@Z:PROC ; CWnd::OnGesturePressAndTap
EXTRN	?ResizeDynamicLayout@CWnd@@MAEXXZ:PROC		; CWnd::ResizeDynamicLayout
EXTRN	?IsFrameWnd@CWnd@@UBEHXZ:PROC			; CWnd::IsFrameWnd
EXTRN	?OnFinalRelease@CWnd@@UAEXXZ:PROC		; CWnd::OnFinalRelease
EXTRN	?CreateControlContainer@CWnd@@MAEHPAPAVCOleControlContainer@@@Z:PROC ; CWnd::CreateControlContainer
EXTRN	?CreateControlSite@CWnd@@MAEHPAVCOleControlContainer@@PAPAVCOleControlSite@@IABU_GUID@@@Z:PROC ; CWnd::CreateControlSite
EXTRN	?GetRuntimeClass@CDialog@@UBEPAUCRuntimeClass@@XZ:PROC ; CDialog::GetRuntimeClass
EXTRN	?Create@CDialog@@UAEHPBDPAVCWnd@@@Z:PROC	; CDialog::Create
EXTRN	?CreateIndirect@CDialog@@UAEHPBUDLGTEMPLATE@@PAVCWnd@@PAX@Z:PROC ; CDialog::CreateIndirect
EXTRN	?CreateIndirect@CDialog@@UAEHPAXPAVCWnd@@@Z:PROC ; CDialog::CreateIndirect
EXTRN	?DoModal@CDialog@@UAEHXZ:PROC			; CDialog::DoModal
EXTRN	?OnInitDialog@CDialog@@UAEHXZ:PROC		; CDialog::OnInitDialog
EXTRN	?OnSetFont@CDialog@@UAEXPAVCFont@@@Z:PROC	; CDialog::OnSetFont
EXTRN	?OnOK@CDialog@@MAEXXZ:PROC			; CDialog::OnOK
EXTRN	?OnCancel@CDialog@@MAEXXZ:PROC			; CDialog::OnCancel
EXTRN	??1CDialog@@UAE@XZ:PROC				; CDialog::~CDialog
EXTRN	?PreTranslateMessage@CDialog@@UAEHPAUtagMSG@@@Z:PROC ; CDialog::PreTranslateMessage
EXTRN	?OnCmdMsg@CDialog@@UAEHIHPAXPAUAFX_CMDHANDLERINFO@@@Z:PROC ; CDialog::OnCmdMsg
EXTRN	?CheckAutoCenter@CDialog@@UAEHXZ:PROC		; CDialog::CheckAutoCenter
EXTRN	?SetOccDialogInfo@CDialog@@MAEHPAU_AFX_OCC_DIALOG_INFO@@@Z:PROC ; CDialog::SetOccDialogInfo
EXTRN	?GetOccDialogInfo@CDialog@@MAEPAU_AFX_OCC_DIALOG_INFO@@XZ:PROC ; CDialog::GetOccDialogInfo
EXTRN	?PreInitDialog@CDialog@@MAEXXZ:PROC		; CDialog::PreInitDialog
EXTRN	??0CDlgInterface@@QAE@IPAVCWnd@@@Z:PROC		; CDlgInterface::CDlgInterface
EXTRN	?DoDataExchange@CDlgInterface@@MAEXPAVCDataExchange@@@Z:PROC ; CDlgInterface::DoDataExchange
EXTRN	?GetThisMessageMap@CDlgInterface@@KGPBUAFX_MSGMAP@@XZ:PROC ; CDlgInterface::GetThisMessageMap
EXTRN	??_ECTabAnalChart@@UAEPAXI@Z:PROC		; CTabAnalChart::`vector deleting destructor'
EXTRN	??_7type_info@@6B@:QWORD			; type_info::`vftable'
_BSS	SEGMENT
?RMSG_UPDATE_DATAINDEX@@3IB DD 01H DUP (?)		; RMSG_UPDATE_DATAINDEX
?RMSG_SELECT_DATAINDEX@@3IB DD 01H DUP (?)		; RMSG_SELECT_DATAINDEX
_BSS	ENDS
CRT$XCU	SEGMENT
?RMSG_UPDATE_DATAINDEX$initializer$@@3P6AXXZA DD FLAT:??__ERMSG_UPDATE_DATAINDEX@@YAXXZ ; RMSG_UPDATE_DATAINDEX$initializer$
CRT$XCU	ENDS
;	COMDAT ??_R2CDlgInterface@@8
rdata$r	SEGMENT
??_R2CDlgInterface@@8 DD FLAT:??_R1A@?0A@EA@CDlgInterface@@8 ; CDlgInterface::`RTTI Base Class Array'
	DD	FLAT:??_R1A@?0A@EA@CEscDialog@@8
	DD	FLAT:??_R1A@?0A@EA@CDialog@@8
	DD	FLAT:??_R1A@?0A@EA@CWnd@@8
	DD	FLAT:??_R1A@?0A@EA@CCmdTarget@@8
	DD	FLAT:??_R1A@?0A@EA@CObject@@8
rdata$r	ENDS
;	COMDAT ??_R3CDlgInterface@@8
rdata$r	SEGMENT
??_R3CDlgInterface@@8 DD 00H				; CDlgInterface::`RTTI Class Hierarchy Descriptor'
	DD	00H
	DD	06H
	DD	FLAT:??_R2CDlgInterface@@8
rdata$r	ENDS
;	COMDAT ??_R0?AVCDlgInterface@@@8
data$rs	SEGMENT
??_R0?AVCDlgInterface@@@8 DD FLAT:??_7type_info@@6B@	; CDlgInterface `RTTI Type Descriptor'
	DD	00H
	DB	'.?AVCDlgInterface@@', 00H
data$rs	ENDS
;	COMDAT ??_R1A@?0A@EA@CDlgInterface@@8
rdata$r	SEGMENT
??_R1A@?0A@EA@CDlgInterface@@8 DD FLAT:??_R0?AVCDlgInterface@@@8 ; CDlgInterface::`RTTI Base Class Descriptor at (0,-1,0,64)'
	DD	05H
	DD	00H
	DD	0ffffffffH
	DD	00H
	DD	040H
	DD	FLAT:??_R3CDlgInterface@@8
rdata$r	ENDS
;	COMDAT ??_R1A@?0A@EA@CTabAnalChart@@8
rdata$r	SEGMENT
??_R1A@?0A@EA@CTabAnalChart@@8 DD FLAT:??_R0?AVCTabAnalChart@@@8 ; CTabAnalChart::`RTTI Base Class Descriptor at (0,-1,0,64)'
	DD	06H
	DD	00H
	DD	0ffffffffH
	DD	00H
	DD	040H
	DD	FLAT:??_R3CTabAnalChart@@8
rdata$r	ENDS
;	COMDAT ??_R2CTabAnalChart@@8
rdata$r	SEGMENT
??_R2CTabAnalChart@@8 DD FLAT:??_R1A@?0A@EA@CTabAnalChart@@8 ; CTabAnalChart::`RTTI Base Class Array'
	DD	FLAT:??_R1A@?0A@EA@CDlgInterface@@8
	DD	FLAT:??_R1A@?0A@EA@CEscDialog@@8
	DD	FLAT:??_R1A@?0A@EA@CDialog@@8
	DD	FLAT:??_R1A@?0A@EA@CWnd@@8
	DD	FLAT:??_R1A@?0A@EA@CCmdTarget@@8
	DD	FLAT:??_R1A@?0A@EA@CObject@@8
rdata$r	ENDS
;	COMDAT ??_R3CTabAnalChart@@8
rdata$r	SEGMENT
??_R3CTabAnalChart@@8 DD 00H				; CTabAnalChart::`RTTI Class Hierarchy Descriptor'
	DD	00H
	DD	07H
	DD	FLAT:??_R2CTabAnalChart@@8
rdata$r	ENDS
;	COMDAT ??_R0?AVCTabAnalChart@@@8
data$rs	SEGMENT
??_R0?AVCTabAnalChart@@@8 DD FLAT:??_7type_info@@6B@	; CTabAnalChart `RTTI Type Descriptor'
	DD	00H
	DB	'.?AVCTabAnalChart@@', 00H
data$rs	ENDS
;	COMDAT ??_R4CTabAnalChart@@6B@
rdata$r	SEGMENT
??_R4CTabAnalChart@@6B@ DD 00H				; CTabAnalChart::`RTTI Complete Object Locator'
	DD	00H
	DD	00H
	DD	FLAT:??_R0?AVCTabAnalChart@@@8
	DD	FLAT:??_R3CTabAnalChart@@8
rdata$r	ENDS
;	COMDAT ?messageMap@?1??GetThisMessageMap@CTabAnalChart@@KGPBUAFX_MSGMAP@@XZ@4U3@B
CONST	SEGMENT
?messageMap@?1??GetThisMessageMap@CTabAnalChart@@KGPBUAFX_MSGMAP@@XZ@4U3@B DD FLAT:?GetThisMessageMap@CDlgInterface@@KGPBUAFX_MSGMAP@@XZ ; `CTabAnalChart::GetThisMessageMap'::`2'::messageMap
	DD	FLAT:?_messageEntries@?1??GetThisMessageMap@CTabAnalChart@@KGPBUAFX_MSGMAP@@XZ@4QBUAFX_MSGMAP_ENTRY@@B
CONST	ENDS
;	COMDAT ?_messageEntries@?1??GetThisMessageMap@CTabAnalChart@@KGPBUAFX_MSGMAP@@XZ@4QBUAFX_MSGMAP_ENTRY@@B
CONST	SEGMENT
?_messageEntries@?1??GetThisMessageMap@CTabAnalChart@@KGPBUAFX_MSGMAP@@XZ@4QBUAFX_MSGMAP_ENTRY@@B DD 05H ; `CTabAnalChart::GetThisMessageMap'::`2'::_messageEntries
	DD	00H
	DD	00H
	DD	00H
	DD	01aH
	DD	FLAT:?OnSize@CTabAnalChart@@IAEXIHH@Z
	DD	0c000H
	DD	00H
	DD	00H
	DD	00H
	DD	FLAT:?RMSG_UPDATE_DATAINDEX@@3IB
	DD	FLAT:?OnUpdateDataIndex@CTabAnalChart@@IAEJIJ@Z
	DD	0c000H
	DD	00H
	DD	00H
	DD	00H
	DD	FLAT:?RMSG_SELECT_DATAINDEX@@3IB
	DD	FLAT:?OnSelectDataIndex@CTabAnalChart@@IAEJIJ@Z
	DD	00H
	DD	00H
	DD	00H
	DD	00H
	DD	00H
	DD	00H
CONST	ENDS
;	COMDAT ??_7CTabAnalChart@@6B@
CONST	SEGMENT
??_7CTabAnalChart@@6B@ DD FLAT:??_R4CTabAnalChart@@6B@	; CTabAnalChart::`vftable'
	DD	FLAT:?GetRuntimeClass@CDialog@@UBEPAUCRuntimeClass@@XZ
	DD	FLAT:??_ECTabAnalChart@@UAEPAXI@Z
	DD	FLAT:?Serialize@CObject@@UAEXAAVCArchive@@@Z
	DD	FLAT:?AssertValid@CObject@@UBEXXZ
	DD	FLAT:?Dump@CObject@@UBEXAAVCDumpContext@@@Z
	DD	FLAT:?OnCmdMsg@CDialog@@UAEHIHPAXPAUAFX_CMDHANDLERINFO@@@Z
	DD	FLAT:?OnFinalRelease@CWnd@@UAEXXZ
	DD	FLAT:?IsInvokeAllowed@CCmdTarget@@UAEHJ@Z
	DD	FLAT:?GetDispatchIID@CCmdTarget@@UAEHPAU_GUID@@@Z
	DD	FLAT:?GetTypeInfoCount@CCmdTarget@@UAEIXZ
	DD	FLAT:?GetTypeLibCache@CCmdTarget@@UAEPAVCTypeLibCache@@XZ
	DD	FLAT:?GetTypeLib@CCmdTarget@@UAEJKPAPAUITypeLib@@@Z
	DD	FLAT:?GetMessageMap@CTabAnalChart@@MBEPBUAFX_MSGMAP@@XZ
	DD	FLAT:?GetCommandMap@CCmdTarget@@MBEPBUAFX_OLECMDMAP@@XZ
	DD	FLAT:?GetDispatchMap@CCmdTarget@@MBEPBUAFX_DISPMAP@@XZ
	DD	FLAT:?GetConnectionMap@CCmdTarget@@MBEPBUAFX_CONNECTIONMAP@@XZ
	DD	FLAT:?GetInterfaceMap@CWnd@@MBEPBUAFX_INTERFACEMAP@@XZ
	DD	FLAT:?GetEventSinkMap@CCmdTarget@@MBEPBUAFX_EVENTSINKMAP@@XZ
	DD	FLAT:?OnCreateAggregates@CCmdTarget@@UAEHXZ
	DD	FLAT:?GetInterfaceHook@CCmdTarget@@UAEPAUIUnknown@@PBX@Z
	DD	FLAT:?GetExtraConnectionPoints@CCmdTarget@@MAEHPAVCPtrArray@@@Z
	DD	FLAT:?GetConnectionHook@CCmdTarget@@MAEPAUIConnectionPoint@@ABU_GUID@@@Z
	DD	FLAT:?PreSubclassWindow@CWnd@@UAEXXZ
	DD	FLAT:?Create@CWnd@@UAEHPBD0KABUtagRECT@@PAV1@IPAUCCreateContext@@@Z
	DD	FLAT:?CreateEx@CWnd@@UAEHKPBD0KABUtagRECT@@PAV1@IPAX@Z
	DD	FLAT:?CreateEx@CWnd@@UAEHKPBD0KHHHHPAUHWND__@@PAUHMENU__@@PAX@Z
	DD	FLAT:?DestroyWindow@CWnd@@UAEHXZ
	DD	FLAT:?PreCreateWindow@CWnd@@UAEHAAUtagCREATESTRUCTA@@@Z
	DD	FLAT:?CalcWindowRect@CWnd@@UAEXPAUtagRECT@@I@Z
	DD	FLAT:?GetMenu@CWnd@@UBEPAVCMenu@@XZ
	DD	FLAT:?SetMenu@CWnd@@UAEHPAVCMenu@@@Z
	DD	FLAT:?OnToolHitTest@CWnd@@UBEHVCPoint@@PAUtagTOOLINFOA@@@Z
	DD	FLAT:?GetScrollBarCtrl@CWnd@@UBEPAVCScrollBar@@H@Z
	DD	FLAT:?WinHelpA@CWnd@@UAEXKI@Z
	DD	FLAT:?HtmlHelpA@CWnd@@UAEXKI@Z
	DD	FLAT:?WinHelpInternal@CWnd@@UAEXKI@Z
	DD	FLAT:?ContinueModal@CWnd@@UAEHXZ
	DD	FLAT:?EndModalLoop@CWnd@@UAEXH@Z
	DD	FLAT:?OnDrawIconicThumbnailOrLivePreview@CWnd@@UAEXAAVCDC@@VCRect@@VCSize@@HAAH@Z
	DD	FLAT:?EnsureStdObj@CWnd@@UAEJXZ
	DD	FLAT:?get_accParent@CWnd@@UAEJPAPAUIDispatch@@@Z
	DD	FLAT:?get_accChildCount@CWnd@@UAEJPAJ@Z
	DD	FLAT:?get_accChild@CWnd@@UAEJUtagVARIANT@@PAPAUIDispatch@@@Z
	DD	FLAT:?get_accName@CWnd@@UAEJUtagVARIANT@@PAPA_W@Z
	DD	FLAT:?get_accValue@CWnd@@UAEJUtagVARIANT@@PAPA_W@Z
	DD	FLAT:?get_accDescription@CWnd@@UAEJUtagVARIANT@@PAPA_W@Z
	DD	FLAT:?get_accRole@CWnd@@UAEJUtagVARIANT@@PAU2@@Z
	DD	FLAT:?get_accState@CWnd@@UAEJUtagVARIANT@@PAU2@@Z
	DD	FLAT:?get_accHelp@CWnd@@UAEJUtagVARIANT@@PAPA_W@Z
	DD	FLAT:?get_accHelpTopic@CWnd@@UAEJPAPA_WUtagVARIANT@@PAJ@Z
	DD	FLAT:?get_accKeyboardShortcut@CWnd@@UAEJUtagVARIANT@@PAPA_W@Z
	DD	FLAT:?get_accFocus@CWnd@@UAEJPAUtagVARIANT@@@Z
	DD	FLAT:?get_accSelection@CWnd@@UAEJPAUtagVARIANT@@@Z
	DD	FLAT:?get_accDefaultAction@CWnd@@UAEJUtagVARIANT@@PAPA_W@Z
	DD	FLAT:?accSelect@CWnd@@UAEJJUtagVARIANT@@@Z
	DD	FLAT:?accLocation@CWnd@@UAEJPAJ000UtagVARIANT@@@Z
	DD	FLAT:?accNavigate@CWnd@@UAEJJUtagVARIANT@@PAU2@@Z
	DD	FLAT:?accHitTest@CWnd@@UAEJJJPAUtagVARIANT@@@Z
	DD	FLAT:?accDoDefaultAction@CWnd@@UAEJUtagVARIANT@@@Z
	DD	FLAT:?put_accName@CWnd@@UAEJUtagVARIANT@@PA_W@Z
	DD	FLAT:?put_accValue@CWnd@@UAEJUtagVARIANT@@PA_W@Z
	DD	FLAT:?SetProxy@CWnd@@UAEJPAUIAccessibleProxy@@@Z
	DD	FLAT:?CreateAccessibleProxy@CWnd@@UAEJIJPAJ@Z
	DD	FLAT:?OnCommand@CWnd@@MAEHIJ@Z
	DD	FLAT:?OnNotify@CWnd@@MAEHIJPAJ@Z
	DD	FLAT:?GetSuperWndProcAddr@CWnd@@MAEPAP6GJPAUHWND__@@IIJ@ZXZ
	DD	FLAT:?DoDataExchange@CTabAnalChart@@MAEXPAVCDataExchange@@@Z
	DD	FLAT:?BeginModalState@CWnd@@UAEXXZ
	DD	FLAT:?EndModalState@CWnd@@UAEXXZ
	DD	FLAT:?PreTranslateMessage@CEscDialog@@MAEHPAUtagMSG@@@Z
	DD	FLAT:?OnAmbientProperty@CWnd@@UAEHPAVCOleControlSite@@JPAUtagVARIANT@@@Z
	DD	FLAT:?WindowProc@CWnd@@MAEJIIJ@Z
	DD	FLAT:?OnWndMsg@CWnd@@MAEHIIJPAJ@Z
	DD	FLAT:?DefWindowProcA@CWnd@@MAEJIIJ@Z
	DD	FLAT:?PostNcDestroy@CWnd@@MAEXXZ
	DD	FLAT:?OnChildNotify@CWnd@@MAEHIIJPAJ@Z
	DD	FLAT:?OnTouchInputs@CWnd@@MAEHIPAUtagTOUCHINPUT@@@Z
	DD	FLAT:?OnTouchInput@CWnd@@MAEHVCPoint@@HHPAUtagTOUCHINPUT@@@Z
	DD	FLAT:?GetGestureStatus@CWnd@@MAEKVCPoint@@@Z
	DD	FLAT:?OnGestureZoom@CWnd@@MAEHVCPoint@@J@Z
	DD	FLAT:?OnGesturePan@CWnd@@MAEHVCPoint@@0@Z
	DD	FLAT:?OnGestureRotate@CWnd@@MAEHVCPoint@@N@Z
	DD	FLAT:?OnGestureTwoFingerTap@CWnd@@MAEHVCPoint@@@Z
	DD	FLAT:?OnGesturePressAndTap@CWnd@@MAEHVCPoint@@J@Z
	DD	FLAT:?ResizeDynamicLayout@CWnd@@MAEXXZ
	DD	FLAT:?CheckAutoCenter@CDialog@@UAEHXZ
	DD	FLAT:?IsFrameWnd@CWnd@@UBEHXZ
	DD	FLAT:?CreateControlContainer@CWnd@@MAEHPAPAVCOleControlContainer@@@Z
	DD	FLAT:?CreateControlSite@CWnd@@MAEHPAVCOleControlContainer@@PAPAVCOleControlSite@@IABU_GUID@@@Z
	DD	FLAT:?SetOccDialogInfo@CDialog@@MAEHPAU_AFX_OCC_DIALOG_INFO@@@Z
	DD	FLAT:?GetOccDialogInfo@CDialog@@MAEPAU_AFX_OCC_DIALOG_INFO@@XZ
	DD	FLAT:?Create@CDialog@@UAEHIPAVCWnd@@@Z
	DD	FLAT:?Create@CDialog@@UAEHPBDPAVCWnd@@@Z
	DD	FLAT:?CreateIndirect@CDialog@@UAEHPAXPAVCWnd@@@Z
	DD	FLAT:?CreateIndirect@CDialog@@UAEHPBUDLGTEMPLATE@@PAVCWnd@@PAX@Z
	DD	FLAT:?DoModal@CDialog@@UAEHXZ
	DD	FLAT:?OnInitDialog@CTabAnalChart@@MAEHXZ
	DD	FLAT:?OnSetFont@CDialog@@UAEXPAVCFont@@@Z
	DD	FLAT:?OnOK@CDialog@@MAEXXZ
	DD	FLAT:?OnCancel@CDialog@@MAEXXZ
	DD	FLAT:?PreInitDialog@CDialog@@MAEXXZ
	DD	FLAT:?UpdateDlg@CTabAnalChart@@UAEXXZ
	DD	FLAT:?SetChartFocus@CTabAnalChart@@UAEXH@Z
	DD	FLAT:?GuganBtnUpdate@CDlgInterface@@UAEXXZ
CONST	ENDS
;	COMDAT ??_R1A@?0A@EA@CEscDialog@@8
rdata$r	SEGMENT
??_R1A@?0A@EA@CEscDialog@@8 DD FLAT:??_R0?AVCEscDialog@@@8 ; CEscDialog::`RTTI Base Class Descriptor at (0,-1,0,64)'
	DD	04H
	DD	00H
	DD	0ffffffffH
	DD	00H
	DD	040H
	DD	FLAT:??_R3CEscDialog@@8
rdata$r	ENDS
;	COMDAT ??_R2CEscDialog@@8
rdata$r	SEGMENT
??_R2CEscDialog@@8 DD FLAT:??_R1A@?0A@EA@CEscDialog@@8	; CEscDialog::`RTTI Base Class Array'
	DD	FLAT:??_R1A@?0A@EA@CDialog@@8
	DD	FLAT:??_R1A@?0A@EA@CWnd@@8
	DD	FLAT:??_R1A@?0A@EA@CCmdTarget@@8
	DD	FLAT:??_R1A@?0A@EA@CObject@@8
rdata$r	ENDS
;	COMDAT ??_R3CEscDialog@@8
rdata$r	SEGMENT
??_R3CEscDialog@@8 DD 00H				; CEscDialog::`RTTI Class Hierarchy Descriptor'
	DD	00H
	DD	05H
	DD	FLAT:??_R2CEscDialog@@8
rdata$r	ENDS
;	COMDAT ??_R0?AVCEscDialog@@@8
data$rs	SEGMENT
??_R0?AVCEscDialog@@@8 DD FLAT:??_7type_info@@6B@	; CEscDialog `RTTI Type Descriptor'
	DD	00H
	DB	'.?AVCEscDialog@@', 00H
data$rs	ENDS
;	COMDAT ??_R2CDialog@@8
rdata$r	SEGMENT
??_R2CDialog@@8 DD FLAT:??_R1A@?0A@EA@CDialog@@8	; CDialog::`RTTI Base Class Array'
	DD	FLAT:??_R1A@?0A@EA@CWnd@@8
	DD	FLAT:??_R1A@?0A@EA@CCmdTarget@@8
	DD	FLAT:??_R1A@?0A@EA@CObject@@8
rdata$r	ENDS
;	COMDAT ??_R3CDialog@@8
rdata$r	SEGMENT
??_R3CDialog@@8 DD 00H					; CDialog::`RTTI Class Hierarchy Descriptor'
	DD	00H
	DD	04H
	DD	FLAT:??_R2CDialog@@8
rdata$r	ENDS
;	COMDAT ??_R0?AVCDialog@@@8
data$rs	SEGMENT
??_R0?AVCDialog@@@8 DD FLAT:??_7type_info@@6B@		; CDialog `RTTI Type Descriptor'
	DD	00H
	DB	'.?AVCDialog@@', 00H
data$rs	ENDS
;	COMDAT ??_R1A@?0A@EA@CDialog@@8
rdata$r	SEGMENT
??_R1A@?0A@EA@CDialog@@8 DD FLAT:??_R0?AVCDialog@@@8	; CDialog::`RTTI Base Class Descriptor at (0,-1,0,64)'
	DD	03H
	DD	00H
	DD	0ffffffffH
	DD	00H
	DD	040H
	DD	FLAT:??_R3CDialog@@8
rdata$r	ENDS
;	COMDAT ??_R2CCmdTarget@@8
rdata$r	SEGMENT
??_R2CCmdTarget@@8 DD FLAT:??_R1A@?0A@EA@CCmdTarget@@8	; CCmdTarget::`RTTI Base Class Array'
	DD	FLAT:??_R1A@?0A@EA@CObject@@8
rdata$r	ENDS
;	COMDAT ??_R3CCmdTarget@@8
rdata$r	SEGMENT
??_R3CCmdTarget@@8 DD 00H				; CCmdTarget::`RTTI Class Hierarchy Descriptor'
	DD	00H
	DD	02H
	DD	FLAT:??_R2CCmdTarget@@8
rdata$r	ENDS
;	COMDAT ??_R0?AVCCmdTarget@@@8
data$rs	SEGMENT
??_R0?AVCCmdTarget@@@8 DD FLAT:??_7type_info@@6B@	; CCmdTarget `RTTI Type Descriptor'
	DD	00H
	DB	'.?AVCCmdTarget@@', 00H
data$rs	ENDS
;	COMDAT ??_R1A@?0A@EA@CCmdTarget@@8
rdata$r	SEGMENT
??_R1A@?0A@EA@CCmdTarget@@8 DD FLAT:??_R0?AVCCmdTarget@@@8 ; CCmdTarget::`RTTI Base Class Descriptor at (0,-1,0,64)'
	DD	01H
	DD	00H
	DD	0ffffffffH
	DD	00H
	DD	040H
	DD	FLAT:??_R3CCmdTarget@@8
rdata$r	ENDS
;	COMDAT ??_R2CWnd@@8
rdata$r	SEGMENT
??_R2CWnd@@8 DD	FLAT:??_R1A@?0A@EA@CWnd@@8		; CWnd::`RTTI Base Class Array'
	DD	FLAT:??_R1A@?0A@EA@CCmdTarget@@8
	DD	FLAT:??_R1A@?0A@EA@CObject@@8
rdata$r	ENDS
;	COMDAT ??_R3CWnd@@8
rdata$r	SEGMENT
??_R3CWnd@@8 DD	00H					; CWnd::`RTTI Class Hierarchy Descriptor'
	DD	00H
	DD	03H
	DD	FLAT:??_R2CWnd@@8
rdata$r	ENDS
;	COMDAT ??_R0?AVCWnd@@@8
data$rs	SEGMENT
??_R0?AVCWnd@@@8 DD FLAT:??_7type_info@@6B@		; CWnd `RTTI Type Descriptor'
	DD	00H
	DB	'.?AVCWnd@@', 00H
data$rs	ENDS
;	COMDAT ??_R1A@?0A@EA@CWnd@@8
rdata$r	SEGMENT
??_R1A@?0A@EA@CWnd@@8 DD FLAT:??_R0?AVCWnd@@@8		; CWnd::`RTTI Base Class Descriptor at (0,-1,0,64)'
	DD	02H
	DD	00H
	DD	0ffffffffH
	DD	00H
	DD	040H
	DD	FLAT:??_R3CWnd@@8
rdata$r	ENDS
;	COMDAT ??_R1A@?0A@EA@CObject@@8
rdata$r	SEGMENT
??_R1A@?0A@EA@CObject@@8 DD FLAT:??_R0?AVCObject@@@8	; CObject::`RTTI Base Class Descriptor at (0,-1,0,64)'
	DD	00H
	DD	00H
	DD	0ffffffffH
	DD	00H
	DD	040H
	DD	FLAT:??_R3CObject@@8
rdata$r	ENDS
;	COMDAT ??_R2CObject@@8
rdata$r	SEGMENT
??_R2CObject@@8 DD FLAT:??_R1A@?0A@EA@CObject@@8	; CObject::`RTTI Base Class Array'
rdata$r	ENDS
;	COMDAT ??_R3CObject@@8
rdata$r	SEGMENT
??_R3CObject@@8 DD 00H					; CObject::`RTTI Class Hierarchy Descriptor'
	DD	00H
	DD	01H
	DD	FLAT:??_R2CObject@@8
rdata$r	ENDS
;	COMDAT ??_R0?AVCObject@@@8
data$rs	SEGMENT
??_R0?AVCObject@@@8 DD FLAT:??_7type_info@@6B@		; CObject `RTTI Type Descriptor'
	DD	00H
	DB	'.?AVCObject@@', 00H
data$rs	ENDS
CRT$XCU	SEGMENT
?RMSG_SELECT_DATAINDEX$initializer$@@3P6AXXZA DD FLAT:??__ERMSG_SELECT_DATAINDEX@@YAXXZ ; RMSG_SELECT_DATAINDEX$initializer$
CRT$XCU	ENDS
; Function compile flags: /Ogtp
; File D:\git\src\IBK\IBK_DRFN\ProjSrc\SrcDrfn\Chart\HWSTRATEGYANALYSIS\TabAnalChart.cpp
;	COMDAT ??__ERMSG_SELECT_DATAINDEX@@YAXXZ
text$di	SEGMENT
??__ERMSG_SELECT_DATAINDEX@@YAXXZ PROC			; `dynamic initializer for 'RMSG_SELECT_DATAINDEX'', COMDAT

; 18   : const UINT RMSG_SELECT_DATAINDEX = ::RegisterWindowMessage("RMSG_SELECT_DATAINDEX");

  00000	68 00 00 00 00	 push	 OFFSET ??_C@_0BG@DIEECPNP@RMSG_SELECT_DATAINDEX@
  00005	ff 15 00 00 00
	00		 call	 DWORD PTR __imp__RegisterWindowMessageA@4
  0000b	a3 00 00 00 00	 mov	 DWORD PTR ?RMSG_SELECT_DATAINDEX@@3IB, eax
  00010	c3		 ret	 0
??__ERMSG_SELECT_DATAINDEX@@YAXXZ ENDP			; `dynamic initializer for 'RMSG_SELECT_DATAINDEX''
text$di	ENDS
; Function compile flags: /Ogtp
; File D:\git\src\IBK\IBK_DRFN\ProjSrc\SrcDrfn\Chart\HWSTRATEGYANALYSIS\TabAnalChart.cpp
;	COMDAT ??__ERMSG_UPDATE_DATAINDEX@@YAXXZ
text$di	SEGMENT
??__ERMSG_UPDATE_DATAINDEX@@YAXXZ PROC			; `dynamic initializer for 'RMSG_UPDATE_DATAINDEX'', COMDAT

; 17   : const UINT RMSG_UPDATE_DATAINDEX = ::RegisterWindowMessage("RMSG_UPDATE_DATAINDEX");

  00000	68 00 00 00 00	 push	 OFFSET ??_C@_0BG@ILOCDJNC@RMSG_UPDATE_DATAINDEX@
  00005	ff 15 00 00 00
	00		 call	 DWORD PTR __imp__RegisterWindowMessageA@4
  0000b	a3 00 00 00 00	 mov	 DWORD PTR ?RMSG_UPDATE_DATAINDEX@@3IB, eax
  00010	c3		 ret	 0
??__ERMSG_UPDATE_DATAINDEX@@YAXXZ ENDP			; `dynamic initializer for 'RMSG_UPDATE_DATAINDEX''
text$di	ENDS
; Function compile flags: /Ogtp
; File C:\Program Files (x86)\Microsoft Visual Studio\2019\Community\VC\Tools\MSVC\14.29.30133\atlmfc\include\afx.inl
;	COMDAT ??_GCTabAnalChart@@UAEPAXI@Z
_TEXT	SEGMENT
___flags$ = 8						; size = 4
??_GCTabAnalChart@@UAEPAXI@Z PROC			; CTabAnalChart::`scalar deleting destructor', COMDAT
; _this$ = ecx
  00000	55		 push	 ebp
  00001	8b ec		 mov	 ebp, esp
  00003	56		 push	 esi
  00004	8b f1		 mov	 esi, ecx
  00006	e8 00 00 00 00	 call	 ??1CDialog@@UAE@XZ	; CDialog::~CDialog
  0000b	8b 45 08	 mov	 eax, DWORD PTR ___flags$[ebp]
  0000e	a8 01		 test	 al, 1
  00010	74 22		 je	 SHORT $LN18@scalar
  00012	a8 04		 test	 al, 4
  00014	75 10		 jne	 SHORT $LN3@scalar

; 112  : 	{ ::operator delete(p); }

  00016	56		 push	 esi
  00017	e8 00 00 00 00	 call	 ??3@YAXPAX@Z		; operator delete
  0001c	83 c4 04	 add	 esp, 4
  0001f	8b c6		 mov	 eax, esi
  00021	5e		 pop	 esi
  00022	5d		 pop	 ebp
  00023	c2 04 00	 ret	 4
$LN3@scalar:
  00026	68 c0 00 00 00	 push	 192			; 000000c0H
  0002b	56		 push	 esi
  0002c	e8 00 00 00 00	 call	 ?__global_delete@@YAXPAXI@Z ; __global_delete
  00031	83 c4 08	 add	 esp, 8
$LN18@scalar:
  00034	8b c6		 mov	 eax, esi
  00036	5e		 pop	 esi
  00037	5d		 pop	 ebp
  00038	c2 04 00	 ret	 4
??_GCTabAnalChart@@UAEPAXI@Z ENDP			; CTabAnalChart::`scalar deleting destructor'
_TEXT	ENDS
; Function compile flags: /Ogtp
; File D:\git\src\IBK\IBK_DRFN\ProjSrc\SrcDrfn\Chart\HWSTRATEGYANALYSIS\TabAnalChart.cpp
;	COMDAT ?SetChartFocus@CTabAnalChart@@UAEXH@Z
_TEXT	SEGMENT
_nFocusIndex$ = 8					; size = 4
?SetChartFocus@CTabAnalChart@@UAEXH@Z PROC		; CTabAnalChart::SetChartFocus, COMDAT
; _this$ = ecx

; 184  : 	//m_Chart.InvokeAddIn("ChartStrategyAddin.dll",5,nFocusIndex);
; 185  : }

  00000	c2 04 00	 ret	 4
?SetChartFocus@CTabAnalChart@@UAEXH@Z ENDP		; CTabAnalChart::SetChartFocus
_TEXT	ENDS
; Function compile flags: /Ogtp
; File D:\git\src\IBK\IBK_DRFN\ProjSrc\SrcDrfn\Chart\HWSTRATEGYANALYSIS\TabAnalChart.cpp
;	COMDAT ?UpdateDlg@CTabAnalChart@@UAEXXZ
_TEXT	SEGMENT
?UpdateDlg@CTabAnalChart@@UAEXXZ PROC			; CTabAnalChart::UpdateDlg, COMDAT
; _this$ = ecx

; 51   : 
; 52   : 	//CIStrategyItem* pStrategyItem = m_pInput->GetStrategyItem();
; 53   : 	//int nCount = pStrategyItem->GetCount();
; 54   : 	//ST_DRAWINFO *pDrawInfo = (ST_DRAWINFO *)pStrategyItem->GetPtrDrawInfo(nCount-1);
; 55   : 
; 56   : 	//CISDataItem *pSDataItemDate = (CISDataItem *)pDrawInfo->pPtrArraySDataItem->GetAt(0);
; 57   : 	//CIDataItem *pDataItemOpen = (CIDataItem *)pDrawInfo->pPtrArrayHistoryDataItem->GetAt(0);
; 58   : 	//CIDataItem *pDataItemHigh = (CIDataItem *)pDrawInfo->pPtrArrayHistoryDataItem->GetAt(1);
; 59   : 	//CIDataItem *pDataItemLow = (CIDataItem *)pDrawInfo->pPtrArrayHistoryDataItem->GetAt(2);
; 60   : 	//CIDataItem *pDataItemClose = (CIDataItem *)pDrawInfo->pPtrArrayHistoryDataItem->GetAt(3);
; 61   : 	//CIDataItem *pDataItemVolume = (CIDataItem *)pDrawInfo->pPtrArrayHistoryDataItem->GetAt(4);
; 62   : 
; 63   : 	//ST_CHARTHEADER stChartHeader;
; 64   : 	//int nSize = pSDataItemDate->GetSize();
; 65   : 	//ST_CHARTDATA* pStChartData = new ST_CHARTDATA[nSize];
; 66   : 
; 67   : 	//
; 68   : 
; 69   : 	//memset(pStChartData,0x20,sizeof(ST_CHARTDATA)*nSize);
; 70   : 
; 71   : 	//CString strData;
; 72   : 	//ST_CHARTDATA* pStChartDataShifted = pStChartData;
; 73   : 	//for(int nPos=0;nPos<nSize;nPos++)
; 74   : 	//{
; 75   : 	//	strData = pSDataItemDate->GetAt(nPos);
; 76   : 	//	memcpy(pStChartDataShifted->date,(LPCTSTR)strData,strData.GetLength());
; 77   : 	//	strData.Format("%10.2f",pDataItemOpen->GetAt(nPos));
; 78   : 	//	memcpy(pStChartDataShifted->open,(LPCTSTR)strData,strData.GetLength());
; 79   : 	//	strData.Format("%10.2f",pDataItemHigh->GetAt(nPos));
; 80   : 	//	memcpy(pStChartDataShifted->high,(LPCTSTR)strData,strData.GetLength());
; 81   : 	//	strData.Format("%10.2f",pDataItemLow->GetAt(nPos));
; 82   : 	//	memcpy(pStChartDataShifted->low,(LPCTSTR)strData,strData.GetLength());
; 83   : 	//	strData.Format("%10.2f",pDataItemClose->GetAt(nPos));
; 84   : 	//	memcpy(pStChartDataShifted->close,(LPCTSTR)strData,strData.GetLength());
; 85   : 	//	strData.Format("%10.0f",pDataItemVolume->GetAt(nPos));
; 86   : 	//	memcpy(pStChartDataShifted->volume,(LPCTSTR)strData,strData.GetLength());
; 87   : 	//	pStChartDataShifted++;
; 88   : 	//}
; 89   : 
; 90   : 	//memset(&stChartHeader,0x20,sizeof(stChartHeader));
; 91   : 	//strData.Format("%5d",nSize);
; 92   : 	//memcpy(stChartHeader.tmp,(LPCTSTR)strData,strData.GetLength());
; 93   : 
; 94   : 	//
; 95   : 	//CString strTime = pStrategyItem->GetTime();
; 96   : 	//CString strTimeUnit = strTime.Mid(strTime.GetLength()-2);
; 97   : 	//CString strTimeNum = strTime.Left(strTime.GetLength()-2);
; 98   : 	//long lTimeNum = atol(strTimeNum);
; 99   : 	//CString strBojoMsg;
; 100  : 
; 101  : 	//if(strTimeUnit=="ÀÏ")
; 102  : 	//{
; 103  : 	//	strBojoMsg = "0086UM=E@UD=1@RDATET=YYYYMMDD@RESETUSERREAL=0@";
; 104  : 	//}
; 105  : 	//else if(strTimeUnit=="ºÐ")
; 106  : 	//{
; 107  : 	//	strBojoMsg = "0086UM=E@UD=4@RDATET=MMDDHHMM@RESETUSERREAL=0@";
; 108  : 	//}
; 109  : 	//else if(strTimeUnit=="Æ½")
; 110  : 	//{
; 111  : 	//	strBojoMsg = "0086UM=E@UD=4@RDATET=DDHHMMSS@RESETUSERREAL=0@";
; 112  : 	//}
; 113  : 	//else
; 114  : 	//{
; 115  : 	//	ASSERT(0);
; 116  : 	//}
; 117  : 
; 118  : 	//memcpy(stChartHeader.bojomsg,(LPCTSTR)strBojoMsg,strBojoMsg.GetLength());
; 119  : 
; 120  : 	//long lBufferSize = sizeof(stChartHeader)+sizeof(ST_CHARTDATA)*nSize;
; 121  : 	//char *pBuffer = new char[lBufferSize];
; 122  : 	//char *pBufferShifted = pBuffer;
; 123  : 	//memcpy(pBufferShifted,&stChartHeader,sizeof(stChartHeader));
; 124  : 	//pBufferShifted += sizeof(stChartHeader);
; 125  : 	//memcpy(pBufferShifted,pStChartData,sizeof(ST_CHARTDATA)*nSize);
; 126  : 
; 127  : 	//m_Chart.AddPacketAndGraph();
; 128  : 	//m_Chart.SetPacketData(m_Chart.GetPacketName(),(long)pBuffer,lBufferSize,TRUE);
; 129  : 	//m_Chart.SetNOnePageDataCount(nSize+10);
; 130  : 	//m_Chart.ShowInnerToolBar(FALSE);
; 131  : 	//m_Chart.InvokeAddIn("ChartStrategyAddin.dll",2,(long)pDrawInfo);
; 132  : 	//m_Chart.InvokeAddIn("ChartStrategyAddin.dll",3,(long)&m_pInput->m_stDataIndex);
; 133  : 	//m_Chart.InvokeAddIn("ChartStrategyAddin.dll",4,(long)GetSafeHwnd());
; 134  : 	//if(strTimeUnit=="Æ½"&&lTimeNum==1)
; 135  : 	//{
; 136  : 	//	m_Chart.AddChartBlock("¼±Â÷Æ®");
; 137  : 	//}
; 138  : 	//else
; 139  : 	//{
; 140  : 	//	m_Chart.AddChartBlock("ºÀÂ÷Æ®");
; 141  : 	//}
; 142  : 	//delete  pStChartData;
; 143  : 	//delete  pBuffer;
; 144  : }

  00000	c2 00 00	 ret	 0
?UpdateDlg@CTabAnalChart@@UAEXXZ ENDP			; CTabAnalChart::UpdateDlg
_TEXT	ENDS
; Function compile flags: /Ogtp
; File D:\git\src\IBK\IBK_DRFN\ProjSrc\SrcDrfn\Chart\HWSTRATEGYANALYSIS\TabAnalChart.cpp
;	COMDAT ?OnSelectDataIndex@CTabAnalChart@@IAEJIJ@Z
_TEXT	SEGMENT
_wParam$ = 8						; size = 4
_lParam$ = 12						; size = 4
?OnSelectDataIndex@CTabAnalChart@@IAEJIJ@Z PROC		; CTabAnalChart::OnSelectDataIndex, COMDAT
; _this$ = ecx

; 178  : 	//m_pInput->SetListFocus(wParam);
; 179  : 	return 0L;

  00000	33 c0		 xor	 eax, eax

; 180  : }

  00002	c2 08 00	 ret	 8
?OnSelectDataIndex@CTabAnalChart@@IAEJIJ@Z ENDP		; CTabAnalChart::OnSelectDataIndex
_TEXT	ENDS
; Function compile flags: /Ogtp
; File D:\git\src\IBK\IBK_DRFN\ProjSrc\SrcDrfn\Chart\HWSTRATEGYANALYSIS\TabAnalChart.cpp
;	COMDAT ?OnUpdateDataIndex@CTabAnalChart@@IAEJIJ@Z
_TEXT	SEGMENT
_wParam$ = 8						; size = 4
_lParam$ = 12						; size = 4
?OnUpdateDataIndex@CTabAnalChart@@IAEJIJ@Z PROC		; CTabAnalChart::OnUpdateDataIndex, COMDAT
; _this$ = ecx

; 172  : //	m_pInput->AllUpdateDataIndex();
; 173  : 	return 0L;

  00000	33 c0		 xor	 eax, eax

; 174  : }

  00002	c2 08 00	 ret	 8
?OnUpdateDataIndex@CTabAnalChart@@IAEJIJ@Z ENDP		; CTabAnalChart::OnUpdateDataIndex
_TEXT	ENDS
; Function compile flags: /Ogtp
; File D:\git\src\IBK\IBK_DRFN\ProjSrc\SrcDrfn\Chart\HWSTRATEGYANALYSIS\TabAnalChart.cpp
;	COMDAT ?GetMessageMap@CTabAnalChart@@MBEPBUAFX_MSGMAP@@XZ
_TEXT	SEGMENT
?GetMessageMap@CTabAnalChart@@MBEPBUAFX_MSGMAP@@XZ PROC	; CTabAnalChart::GetMessageMap, COMDAT
; _this$ = ecx

; 39   : BEGIN_MESSAGE_MAP(CTabAnalChart, CDlgInterface)

  00000	b8 00 00 00 00	 mov	 eax, OFFSET ?messageMap@?1??GetThisMessageMap@CTabAnalChart@@KGPBUAFX_MSGMAP@@XZ@4U3@B
  00005	c3		 ret	 0
?GetMessageMap@CTabAnalChart@@MBEPBUAFX_MSGMAP@@XZ ENDP	; CTabAnalChart::GetMessageMap
_TEXT	ENDS
; Function compile flags: /Ogtp
; File D:\git\src\IBK\IBK_DRFN\ProjSrc\SrcDrfn\Chart\HWSTRATEGYANALYSIS\TabAnalChart.cpp
;	COMDAT ?GetThisMessageMap@CTabAnalChart@@KGPBUAFX_MSGMAP@@XZ
_TEXT	SEGMENT
?GetThisMessageMap@CTabAnalChart@@KGPBUAFX_MSGMAP@@XZ PROC ; CTabAnalChart::GetThisMessageMap, COMDAT

; 40   : 	//{{AFX_MSG_MAP(CTabAnalChart)
; 41   : 	ON_WM_SIZE()
; 42   : 	//}}AFX_MSG_MAP
; 43   : 	ON_REGISTERED_MESSAGE(RMSG_UPDATE_DATAINDEX, OnUpdateDataIndex)
; 44   : 	ON_REGISTERED_MESSAGE(RMSG_SELECT_DATAINDEX, OnSelectDataIndex)
; 45   : END_MESSAGE_MAP()

  00000	b8 00 00 00 00	 mov	 eax, OFFSET ?messageMap@?1??GetThisMessageMap@CTabAnalChart@@KGPBUAFX_MSGMAP@@XZ@4U3@B
  00005	c3		 ret	 0
?GetThisMessageMap@CTabAnalChart@@KGPBUAFX_MSGMAP@@XZ ENDP ; CTabAnalChart::GetThisMessageMap
_TEXT	ENDS
; Function compile flags: /Ogtp
; File D:\git\src\IBK\IBK_DRFN\ProjSrc\SrcDrfn\Chart\HWSTRATEGYANALYSIS\TabAnalChart.cpp
; File C:\Program Files (x86)\Microsoft Visual Studio\2019\Community\VC\Tools\MSVC\14.29.30133\atlmfc\include\afxwin2.inl
; File D:\git\src\IBK\IBK_DRFN\ProjSrc\SrcDrfn\Chart\HWSTRATEGYANALYSIS\TabAnalChart.cpp
;	COMDAT ?OnSize@CTabAnalChart@@IAEXIHH@Z
_TEXT	SEGMENT
_nType$ = 8						; size = 4
_cx$ = 12						; size = 4
_cy$ = 16						; size = 4
?OnSize@CTabAnalChart@@IAEXIHH@Z PROC			; CTabAnalChart::OnSize, COMDAT
; _this$ = ecx
; File C:\Program Files (x86)\Microsoft Visual Studio\2019\Community\VC\Tools\MSVC\14.29.30133\atlmfc\include\afxwin2.inl

; 330  : 	{ Default(); }

  00000	e8 00 00 00 00	 call	 ?Default@CWnd@@IAEJXZ	; CWnd::Default
; File D:\git\src\IBK\IBK_DRFN\ProjSrc\SrcDrfn\Chart\HWSTRATEGYANALYSIS\TabAnalChart.cpp

; 199  : }

  00005	c2 0c 00	 ret	 12			; 0000000cH
?OnSize@CTabAnalChart@@IAEXIHH@Z ENDP			; CTabAnalChart::OnSize
_TEXT	ENDS
; Function compile flags: /Ogtp
; File D:\git\src\IBK\IBK_DRFN\ProjSrc\SrcDrfn\Chart\HWSTRATEGYANALYSIS\TabAnalChart.cpp
;	COMDAT ?OnInitDialog@CTabAnalChart@@MAEHXZ
_TEXT	SEGMENT
?OnInitDialog@CTabAnalChart@@MAEHXZ PROC		; CTabAnalChart::OnInitDialog, COMDAT
; _this$ = ecx

; 148  : 	CDlgInterface::OnInitDialog();

  00000	e8 00 00 00 00	 call	 ?OnInitDialog@CDialog@@UAEHXZ ; CDialog::OnInitDialog

; 149  : 	
; 150  : 	// TODO: Add extra initialization here
; 151  : //	CRect rect;
; 152  : //	GetClientRect(rect);
; 153  : 
; 154  : 	//GetWindowRect(&rect);	
; 155  : 	//ScreenToClient(rect);
; 156  : 	//rect.DeflateRect(0,0);
; 157  : 	//m_Chart.Create(this,rect,0x764);
; 158  : 
; 159  : 	//if(!m_pInput)
; 160  : 	//{
; 161  : 	//	return FALSE;
; 162  : 	//}
; 163  : 
; 164  : 	//m_Chart.SetHtsPath(m_pInput->m_strRootPath);
; 165  : 	//m_Chart.SetpBaseDesk(NULL, this->GetSafeHwnd());	
; 166  : 	return TRUE;  // return TRUE unless you set the focus to a control

  00005	b8 01 00 00 00	 mov	 eax, 1

; 167  : 	              // EXCEPTION: OCX Property Pages should return FALSE
; 168  : }

  0000a	c3		 ret	 0
?OnInitDialog@CTabAnalChart@@MAEHXZ ENDP		; CTabAnalChart::OnInitDialog
_TEXT	ENDS
; Function compile flags: /Ogtp
; File D:\git\src\IBK\IBK_DRFN\ProjSrc\SrcDrfn\Chart\HWSTRATEGYANALYSIS\TabAnalChart.cpp
;	COMDAT ?DoDataExchange@CTabAnalChart@@MAEXPAVCDataExchange@@@Z
_TEXT	SEGMENT
_pDX$ = 8						; size = 4
?DoDataExchange@CTabAnalChart@@MAEXPAVCDataExchange@@@Z PROC ; CTabAnalChart::DoDataExchange, COMDAT
; _this$ = ecx

; 31   : {

  00000	55		 push	 ebp
  00001	8b ec		 mov	 ebp, esp

; 33   : 	//{{AFX_DATA_MAP(CTabAnalChart)
; 34   : 		// NOTE: the ClassWizard will add DDX and DDV calls here
; 35   : 	//}}AFX_DATA_MAP
; 36   : }

  00003	5d		 pop	 ebp

; 32   : 	CDlgInterface::DoDataExchange(pDX);

  00004	e9 00 00 00 00	 jmp	 ?DoDataExchange@CDlgInterface@@MAEXPAVCDataExchange@@@Z ; CDlgInterface::DoDataExchange
?DoDataExchange@CTabAnalChart@@MAEXPAVCDataExchange@@@Z ENDP ; CTabAnalChart::DoDataExchange
_TEXT	ENDS
; Function compile flags: /Ogtp
; File D:\git\src\IBK\IBK_DRFN\ProjSrc\SrcDrfn\Chart\HWSTRATEGYANALYSIS\TabAnalChart.cpp
;	COMDAT ??0CTabAnalChart@@QAE@PAVCWnd@@@Z
_TEXT	SEGMENT
_this$ = -4						; size = 4
_pParent$ = 8						; size = 4
??0CTabAnalChart@@QAE@PAVCWnd@@@Z PROC			; CTabAnalChart::CTabAnalChart, COMDAT
; _this$ = ecx

; 22   : {

  00000	55		 push	 ebp
  00001	8b ec		 mov	 ebp, esp
  00003	51		 push	 ecx
  00004	56		 push	 esi
  00005	ff 75 08	 push	 DWORD PTR _pParent$[ebp]
  00008	8b f1		 mov	 esi, ecx
  0000a	68 bb 0b 00 00	 push	 3003			; 00000bbbH
  0000f	89 75 fc	 mov	 DWORD PTR _this$[ebp], esi
  00012	e8 00 00 00 00	 call	 ??0CDlgInterface@@QAE@IPAVCWnd@@@Z ; CDlgInterface::CDlgInterface
  00017	c7 06 00 00 00
	00		 mov	 DWORD PTR [esi], OFFSET ??_7CTabAnalChart@@6B@

; 23   : 	//{{AFX_DATA_INIT(CTabAnalChart)
; 24   : 		// NOTE: the ClassWizard will add member initialization here
; 25   : 	//}}AFX_DATA_INIT
; 26   : 
; 27   : }

  0001d	8b c6		 mov	 eax, esi
  0001f	5e		 pop	 esi
  00020	8b e5		 mov	 esp, ebp
  00022	5d		 pop	 ebp
  00023	c2 04 00	 ret	 4
??0CTabAnalChart@@QAE@PAVCWnd@@@Z ENDP			; CTabAnalChart::CTabAnalChart
_TEXT	ENDS
; Function compile flags: /Ogtp
; File D:\git\src\IBK\IBK_DRFN\ProjSrc\SrcDrfn\Chart\HWSTRATEGYANALYSIS\DlgInterface.h
;	COMDAT ?GuganBtnUpdate@CDlgInterface@@UAEXXZ
_TEXT	SEGMENT
?GuganBtnUpdate@CDlgInterface@@UAEXXZ PROC		; CDlgInterface::GuganBtnUpdate, COMDAT
; _this$ = ecx

; 60   : 		virtual void GuganBtnUpdate(){}

  00000	c2 00 00	 ret	 0
?GuganBtnUpdate@CDlgInterface@@UAEXXZ ENDP		; CDlgInterface::GuganBtnUpdate
_TEXT	ENDS
; Function compile flags: /Ogtp
; File D:\git\src\IBK\IBK_DRFN\ProjSrc\SrcDrfn\Chart\Common_ST\EscDialog.h
;	COMDAT ?PreTranslateMessage@CEscDialog@@MAEHPAUtagMSG@@@Z
_TEXT	SEGMENT
_pMsg$ = 8						; size = 4
?PreTranslateMessage@CEscDialog@@MAEHPAUtagMSG@@@Z PROC	; CEscDialog::PreTranslateMessage, COMDAT
; _this$ = ecx

; 40   : {

  00000	55		 push	 ebp
  00001	8b ec		 mov	 ebp, esp
  00003	56		 push	 esi

; 41   : 	// ¿£ÅÍ°¡ ÃÆÀ»¶§ Á×´Â Çö»ó ¹æÁö		JSJ_Modify_040421
; 42   : 	if(pMsg->message == WM_KEYDOWN)   

  00004	8b 75 08	 mov	 esi, DWORD PTR _pMsg$[ebp]
  00007	57		 push	 edi
  00008	8b f9		 mov	 edi, ecx
  0000a	81 7e 04 00 01
	00 00		 cmp	 DWORD PTR [esi+4], 256	; 00000100H
  00011	75 42		 jne	 SHORT $LN4@PreTransla

; 43   : 	{
; 44   : 		if(pMsg->wParam == VK_F4 && (::GetKeyState(VK_CONTROL) & 0x8000))

  00013	83 7e 08 73	 cmp	 DWORD PTR [esi+8], 115	; 00000073H
  00017	75 36		 jne	 SHORT $LN11@PreTransla
  00019	6a 11		 push	 17			; 00000011H
  0001b	ff 15 00 00 00
	00		 call	 DWORD PTR __imp__GetKeyState@4
  00021	66 0f ba e0 0f	 bt	 ax, 15			; 0000000fH
  00026	73 27		 jae	 SHORT $LN11@PreTransla

; 45   : 		{
; 46   : 			pMsg->wParam = VK_ESCAPE;

  00028	c7 46 08 1b 00
	00 00		 mov	 DWORD PTR [esi+8], 27	; 0000001bH
$LN12@PreTransla:

; 56   : }

  0002f	ff 77 20	 push	 DWORD PTR [edi+32]
  00032	ff 15 00 00 00
	00		 call	 DWORD PTR __imp__GetParent@4
  00038	50		 push	 eax
  00039	e8 00 00 00 00	 call	 ?FromHandle@CWnd@@SGPAV1@PAUHWND__@@@Z ; CWnd::FromHandle
  0003e	56		 push	 esi
  0003f	8b c8		 mov	 ecx, eax
  00041	8b 10		 mov	 edx, DWORD PTR [eax]
  00043	ff 92 14 01 00
	00		 call	 DWORD PTR [edx+276]
  00049	5f		 pop	 edi
  0004a	5e		 pop	 esi
  0004b	5d		 pop	 ebp
  0004c	c2 04 00	 ret	 4
$LN11@PreTransla:

; 47   : 			return GetParent()->PreTranslateMessage(pMsg);
; 48   : 		}
; 49   : 		if(pMsg->wParam == VK_ESCAPE)

  0004f	83 7e 08 1b	 cmp	 DWORD PTR [esi+8], 27	; 0000001bH
  00053	74 da		 je	 SHORT $LN12@PreTransla
$LN4@PreTransla:

; 50   : 		{
; 51   : 			return GetParent()->PreTranslateMessage(pMsg);
; 52   : 		}
; 53   : 	}
; 54   : 	
; 55   : 	return CDialog::PreTranslateMessage(pMsg);

  00055	56		 push	 esi
  00056	8b cf		 mov	 ecx, edi
  00058	e8 00 00 00 00	 call	 ?PreTranslateMessage@CDialog@@UAEHPAUtagMSG@@@Z ; CDialog::PreTranslateMessage
  0005d	5f		 pop	 edi

; 56   : }

  0005e	5e		 pop	 esi
  0005f	5d		 pop	 ebp
  00060	c2 04 00	 ret	 4
?PreTranslateMessage@CEscDialog@@MAEHPAUtagMSG@@@Z ENDP	; CEscDialog::PreTranslateMessage
_TEXT	ENDS
; Function compile flags: /Ogtp
; File C:\Program Files (x86)\Microsoft Visual Studio\2019\Community\VC\Tools\MSVC\14.29.30133\atlmfc\include\afxwin2.inl
;	COMDAT ?Create@CDialog@@UAEHIPAVCWnd@@@Z
_TEXT	SEGMENT
_nIDTemplate$ = 8					; size = 4
_pParentWnd$ = 12					; size = 4
?Create@CDialog@@UAEHIPAVCWnd@@@Z PROC			; CDialog::Create, COMDAT
; _this$ = ecx

; 585  : 	{ return CDialog::Create(ATL_MAKEINTRESOURCE(nIDTemplate), pParentWnd); }

  00000	55		 push	 ebp
  00001	8b ec		 mov	 ebp, esp
  00003	0f b7 45 08	 movzx	 eax, WORD PTR _nIDTemplate$[ebp]
  00007	89 45 08	 mov	 DWORD PTR _nIDTemplate$[ebp], eax
  0000a	5d		 pop	 ebp
  0000b	e9 00 00 00 00	 jmp	 ?Create@CDialog@@UAEHPBDPAVCWnd@@@Z ; CDialog::Create
?Create@CDialog@@UAEHIPAVCWnd@@@Z ENDP			; CDialog::Create
_TEXT	ENDS
; Function compile flags: /Ogtp
; File C:\Program Files (x86)\Microsoft Visual Studio\2019\Community\VC\Tools\MSVC\14.29.30133\atlmfc\include\afxwin2.inl
;	COMDAT ?EndModalState@CWnd@@UAEXXZ
_TEXT	SEGMENT
?EndModalState@CWnd@@UAEXXZ PROC			; CWnd::EndModalState, COMDAT
; _this$ = ecx

; 567  : 	{ ::EnableWindow(m_hWnd, TRUE); }

  00000	6a 01		 push	 1
  00002	ff 71 20	 push	 DWORD PTR [ecx+32]
  00005	ff 15 00 00 00
	00		 call	 DWORD PTR __imp__EnableWindow@8
  0000b	c3		 ret	 0
?EndModalState@CWnd@@UAEXXZ ENDP			; CWnd::EndModalState
_TEXT	ENDS
; Function compile flags: /Ogtp
; File C:\Program Files (x86)\Microsoft Visual Studio\2019\Community\VC\Tools\MSVC\14.29.30133\atlmfc\include\afxwin2.inl
;	COMDAT ?BeginModalState@CWnd@@UAEXXZ
_TEXT	SEGMENT
?BeginModalState@CWnd@@UAEXXZ PROC			; CWnd::BeginModalState, COMDAT
; _this$ = ecx

; 565  : 	{ ::EnableWindow(m_hWnd, FALSE); }

  00000	6a 00		 push	 0
  00002	ff 71 20	 push	 DWORD PTR [ecx+32]
  00005	ff 15 00 00 00
	00		 call	 DWORD PTR __imp__EnableWindow@8
  0000b	c3		 ret	 0
?BeginModalState@CWnd@@UAEXXZ ENDP			; CWnd::BeginModalState
_TEXT	ENDS
; Function compile flags: /Ogtp
; File C:\Program Files (x86)\Microsoft Visual Studio\2019\Community\VC\Tools\MSVC\14.29.30133\atlmfc\include\afx.inl
;	COMDAT ?Dump@CObject@@UBEXAAVCDumpContext@@@Z
_TEXT	SEGMENT
___formal$ = 8						; size = 4
?Dump@CObject@@UBEXAAVCDumpContext@@@Z PROC		; CObject::Dump, COMDAT
; _this$ = ecx

; 122  : 	{ /* no dumping in release builds */ }

  00000	c2 04 00	 ret	 4
?Dump@CObject@@UBEXAAVCDumpContext@@@Z ENDP		; CObject::Dump
_TEXT	ENDS
; Function compile flags: /Ogtp
; File C:\Program Files (x86)\Microsoft Visual Studio\2019\Community\VC\Tools\MSVC\14.29.30133\atlmfc\include\afx.inl
;	COMDAT ?AssertValid@CObject@@UBEXXZ
_TEXT	SEGMENT
?AssertValid@CObject@@UBEXXZ PROC			; CObject::AssertValid, COMDAT
; _this$ = ecx

; 120  : 	{ /* no asserts in release builds */ }

  00000	c2 00 00	 ret	 0
?AssertValid@CObject@@UBEXXZ ENDP			; CObject::AssertValid
_TEXT	ENDS
; Function compile flags: /Ogtp
; File C:\Program Files (x86)\Microsoft Visual Studio\2019\Community\VC\Tools\MSVC\14.29.30133\atlmfc\include\afx.inl
;	COMDAT ?Serialize@CObject@@UAEXAAVCArchive@@@Z
_TEXT	SEGMENT
___formal$ = 8						; size = 4
?Serialize@CObject@@UAEXAAVCArchive@@@Z PROC		; CObject::Serialize, COMDAT
; _this$ = ecx

; 106  : 	{ /* CObject does not serialize anything by default */ }

  00000	c2 04 00	 ret	 4
?Serialize@CObject@@UAEXAAVCArchive@@@Z ENDP		; CObject::Serialize
_TEXT	ENDS
; Function compile flags: /Ogtp
; File D:\git\src\IBK\IBK_DRFN\ProjSrc\SrcDrfn\Chart\HWSTRATEGYANALYSIS\TabAnalChart.cpp
;	COMDAT ?__empty_global_delete@@YAXPAXI@Z
_TEXT	SEGMENT
___formal$ = 8						; size = 4
___formal$ = 12						; size = 4
?__empty_global_delete@@YAXPAXI@Z PROC			; __empty_global_delete, COMDAT

  00000	c2 00 00	 ret	 0
?__empty_global_delete@@YAXPAXI@Z ENDP			; __empty_global_delete
_TEXT	ENDS
; Function compile flags: /Ogtp
; File D:\git\src\IBK\IBK_DRFN\ProjSrc\SrcDrfn\Chart\HWSTRATEGYANALYSIS\TabAnalChart.cpp
;	COMDAT ?__empty_global_delete@@YAXPAX@Z
_TEXT	SEGMENT
___formal$ = 8						; size = 4
?__empty_global_delete@@YAXPAX@Z PROC			; __empty_global_delete, COMDAT

  00000	c2 00 00	 ret	 0
?__empty_global_delete@@YAXPAX@Z ENDP			; __empty_global_delete
_TEXT	ENDS
END
